; Listing generated by Microsoft (R) Optimizing Compiler Version 16.00.30319.01 

	TITLE	D:\Lost Saga For Developer\Youtube\Tutorial\Source\src\LSClient\ioFishingManager.cpp
	.686P
	.XMM
	include listing.inc
	.model	flat

INCLUDELIB MSVCRT
INCLUDELIB OLDNAMES

PUBLIC	?ms_Singleton@?$Singleton@VioFishingManager@@@@1PAVioFishingManager@@A ; Singleton<ioFishingManager>::ms_Singleton
;	COMDAT ?ms_Singleton@?$Singleton@VioFishingManager@@@@1PAVioFishingManager@@A
_BSS	SEGMENT
?ms_Singleton@?$Singleton@VioFishingManager@@@@1PAVioFishingManager@@A DD 01H DUP (?) ; Singleton<ioFishingManager>::ms_Singleton
_BSS	ENDS
PUBLIC	??0FishingItem@@QAE@XZ				; FishingItem::FishingItem
EXTRN	__imp_??1ioHashString@@QAE@XZ:PROC
EXTRN	__imp_??0ioHashString@@QAE@XZ:PROC
EXTRN	___CxxFrameHandler3:PROC
EXTRN	@__security_check_cookie@4:PROC
EXTRN	__EH_epilog3:PROC
EXTRN	__EH_prolog3:PROC
;	COMDAT xdata$x
; File d:\lost saga for developer\youtube\tutorial\source\src\lsclient\iofishingmanager.h
xdata$x	SEGMENT
__unwindtable$??0FishingItem@@QAE@XZ DD 0ffffffffH
	DD	FLAT:__unwindfunclet$??0FishingItem@@QAE@XZ$0
	DD	00H
	DD	FLAT:__unwindfunclet$??0FishingItem@@QAE@XZ$1
__ehfuncinfo$??0FishingItem@@QAE@XZ DD 019930522H
	DD	02H
	DD	FLAT:__unwindtable$??0FishingItem@@QAE@XZ
	DD	2 DUP(00H)
	DD	2 DUP(00H)
	DD	00H
	DD	01H
; Function compile flags: /Ogsp
xdata$x	ENDS
;	COMDAT ??0FishingItem@@QAE@XZ
_TEXT	SEGMENT
_this$ = -16						; size = 4
__$EHRec$ = -12						; size = 12
??0FishingItem@@QAE@XZ PROC				; FishingItem::FishingItem, COMDAT
; _this$ = ecx

; 12   : 	FishingItem()

  00000	6a 04		 push	 4
  00002	b8 00 00 00 00	 mov	 eax, __ehhandler$??0FishingItem@@QAE@XZ
  00007	e8 00 00 00 00	 call	 __EH_prolog3
  0000c	8b f1		 mov	 esi, ecx
  0000e	89 75 f0	 mov	 DWORD PTR _this$[ebp], esi
  00011	8b 3d 00 00 00
	00		 mov	 edi, DWORD PTR __imp_??0ioHashString@@QAE@XZ
  00017	ff d7		 call	 edi
  00019	83 65 fc 00	 and	 DWORD PTR __$EHRec$[ebp+8], 0
  0001d	8d 4e 10	 lea	 ecx, DWORD PTR [esi+16]
  00020	ff d7		 call	 edi
  00022	8d 4e 20	 lea	 ecx, DWORD PTR [esi+32]
  00025	c6 45 fc 01	 mov	 BYTE PTR __$EHRec$[ebp+8], 1
  00029	ff d7		 call	 edi

; 13   : 	{
; 14   : 		m_iItemNum = 0;

  0002b	83 66 30 00	 and	 DWORD PTR [esi+48], 0

; 15   : 		m_iPeso = 0;

  0002f	83 66 38 00	 and	 DWORD PTR [esi+56], 0
  00033	83 66 3c 00	 and	 DWORD PTR [esi+60], 0

; 16   : 	}

  00037	8b c6		 mov	 eax, esi
  00039	e8 00 00 00 00	 call	 __EH_epilog3
  0003e	c3		 ret	 0
_TEXT	ENDS
;	COMDAT text$x
text$x	SEGMENT
__unwindfunclet$??0FishingItem@@QAE@XZ$0:
  00000	8b 4d f0	 mov	 ecx, DWORD PTR _this$[ebp]
  00003	ff 25 00 00 00
	00		 jmp	 DWORD PTR __imp_??1ioHashString@@QAE@XZ
__unwindfunclet$??0FishingItem@@QAE@XZ$1:
  00009	8b 4d f0	 mov	 ecx, DWORD PTR _this$[ebp]
  0000c	83 c1 10	 add	 ecx, 16			; 00000010H
  0000f	ff 25 00 00 00
	00		 jmp	 DWORD PTR __imp_??1ioHashString@@QAE@XZ
__ehhandler$??0FishingItem@@QAE@XZ:
  00015	8b 54 24 08	 mov	 edx, DWORD PTR [esp+8]
  00019	8d 42 0c	 lea	 eax, DWORD PTR [edx+12]
  0001c	8b 4a ec	 mov	 ecx, DWORD PTR [edx-20]
  0001f	33 c8		 xor	 ecx, eax
  00021	e8 00 00 00 00	 call	 @__security_check_cookie@4
  00026	b8 00 00 00 00	 mov	 eax, OFFSET __ehfuncinfo$??0FishingItem@@QAE@XZ
  0002b	e9 00 00 00 00	 jmp	 ___CxxFrameHandler3
text$x	ENDS
??0FishingItem@@QAE@XZ ENDP				; FishingItem::FishingItem
PUBLIC	?return1@@YAIXZ					; return1
; Function compile flags: /Ogsp
; File d:\lost saga for developer\youtube\tutorial\source\src\lsclient\stdafx.h
;	COMDAT ?return1@@YAIXZ
_TEXT	SEGMENT
?return1@@YAIXZ PROC					; return1, COMDAT

; 17   : 	__forceinline unsigned int return1() { __asm mov eax, 1 };

  00000	b8 01 00 00 00	 mov	 eax, 1
  00005	c3		 ret	 0
?return1@@YAIXZ ENDP					; return1
_TEXT	ENDS
PUBLIC	??1ioINILoader_e@@QAE@XZ			; ioINILoader_e::~ioINILoader_e
EXTRN	__imp_??1ioINILoader@@QAE@XZ:PROC
; Function compile flags: /Ogsp
;	COMDAT ??1ioINILoader_e@@QAE@XZ
_TEXT	SEGMENT
??1ioINILoader_e@@QAE@XZ PROC				; ioINILoader_e::~ioINILoader_e, COMDAT
; _this$ = ecx
  00000	ff 25 00 00 00
	00		 jmp	 DWORD PTR __imp_??1ioINILoader@@QAE@XZ
??1ioINILoader_e@@QAE@XZ ENDP				; ioINILoader_e::~ioINILoader_e
_TEXT	ENDS
PUBLIC	?return1000@@YAIXZ				; return1000
; Function compile flags: /Ogsp
;	COMDAT ?return1000@@YAIXZ
_TEXT	SEGMENT
?return1000@@YAIXZ PROC					; return1000, COMDAT

; 29   : 	__forceinline unsigned int return1000() { __asm mov eax, 1000 };

  00000	b8 e8 03 00 00	 mov	 eax, 1000		; 000003e8H
  00005	c3		 ret	 0
?return1000@@YAIXZ ENDP					; return1000
_TEXT	ENDS
PUBLIC	??_7bad_alloc@std@@6B@				; std::bad_alloc::`vftable'
PUBLIC	??0bad_alloc@std@@QAE@PBD@Z			; std::bad_alloc::bad_alloc
PUBLIC	??_R4bad_alloc@std@@6B@				; std::bad_alloc::`RTTI Complete Object Locator'
PUBLIC	??_R0?AVbad_alloc@std@@@8			; std::bad_alloc `RTTI Type Descriptor'
PUBLIC	??_R3bad_alloc@std@@8				; std::bad_alloc::`RTTI Class Hierarchy Descriptor'
PUBLIC	??_R2bad_alloc@std@@8				; std::bad_alloc::`RTTI Base Class Array'
PUBLIC	??_R1A@?0A@EA@bad_alloc@std@@8			; std::bad_alloc::`RTTI Base Class Descriptor at (0,-1,0,64)'
PUBLIC	??_R1A@?0A@EA@exception@std@@8			; std::exception::`RTTI Base Class Descriptor at (0,-1,0,64)'
PUBLIC	??_R0?AVexception@std@@@8			; std::exception `RTTI Type Descriptor'
PUBLIC	??_R3exception@std@@8				; std::exception::`RTTI Class Hierarchy Descriptor'
PUBLIC	??_R2exception@std@@8				; std::exception::`RTTI Base Class Array'
EXTRN	__imp_??0exception@std@@QAE@ABQBD@Z:PROC
EXTRN	??_7type_info@@6B@:QWORD			; type_info::`vftable'
EXTRN	??_Ebad_alloc@std@@UAEPAXI@Z:PROC		; std::bad_alloc::`vector deleting destructor'
EXTRN	?what@exception@std@@UBEPBDXZ:PROC		; std::exception::what
;	COMDAT ??_R2exception@std@@8
; File c:\program files (x86)\microsoft visual studio 10.0\vc\include\exception
rdata$r	SEGMENT
??_R2exception@std@@8 DD FLAT:??_R1A@?0A@EA@exception@std@@8 ; std::exception::`RTTI Base Class Array'
rdata$r	ENDS
;	COMDAT ??_R3exception@std@@8
rdata$r	SEGMENT
??_R3exception@std@@8 DD 00H				; std::exception::`RTTI Class Hierarchy Descriptor'
	DD	00H
	DD	01H
	DD	FLAT:??_R2exception@std@@8
rdata$r	ENDS
;	COMDAT ??_R0?AVexception@std@@@8
_DATA	SEGMENT
??_R0?AVexception@std@@@8 DD FLAT:??_7type_info@@6B@	; std::exception `RTTI Type Descriptor'
	DD	00H
	DB	'.?AVexception@std@@', 00H
_DATA	ENDS
;	COMDAT ??_R1A@?0A@EA@exception@std@@8
rdata$r	SEGMENT
??_R1A@?0A@EA@exception@std@@8 DD FLAT:??_R0?AVexception@std@@@8 ; std::exception::`RTTI Base Class Descriptor at (0,-1,0,64)'
	DD	00H
	DD	00H
	DD	0ffffffffH
	DD	00H
	DD	040H
	DD	FLAT:??_R3exception@std@@8
rdata$r	ENDS
;	COMDAT ??_R1A@?0A@EA@bad_alloc@std@@8
rdata$r	SEGMENT
??_R1A@?0A@EA@bad_alloc@std@@8 DD FLAT:??_R0?AVbad_alloc@std@@@8 ; std::bad_alloc::`RTTI Base Class Descriptor at (0,-1,0,64)'
	DD	01H
	DD	00H
	DD	0ffffffffH
	DD	00H
	DD	040H
	DD	FLAT:??_R3bad_alloc@std@@8
rdata$r	ENDS
;	COMDAT ??_R2bad_alloc@std@@8
rdata$r	SEGMENT
??_R2bad_alloc@std@@8 DD FLAT:??_R1A@?0A@EA@bad_alloc@std@@8 ; std::bad_alloc::`RTTI Base Class Array'
	DD	FLAT:??_R1A@?0A@EA@exception@std@@8
rdata$r	ENDS
;	COMDAT ??_R3bad_alloc@std@@8
rdata$r	SEGMENT
??_R3bad_alloc@std@@8 DD 00H				; std::bad_alloc::`RTTI Class Hierarchy Descriptor'
	DD	00H
	DD	02H
	DD	FLAT:??_R2bad_alloc@std@@8
rdata$r	ENDS
;	COMDAT ??_R0?AVbad_alloc@std@@@8
_DATA	SEGMENT
??_R0?AVbad_alloc@std@@@8 DD FLAT:??_7type_info@@6B@	; std::bad_alloc `RTTI Type Descriptor'
	DD	00H
	DB	'.?AVbad_alloc@std@@', 00H
_DATA	ENDS
;	COMDAT ??_R4bad_alloc@std@@6B@
rdata$r	SEGMENT
??_R4bad_alloc@std@@6B@ DD 00H				; std::bad_alloc::`RTTI Complete Object Locator'
	DD	00H
	DD	00H
	DD	FLAT:??_R0?AVbad_alloc@std@@@8
	DD	FLAT:??_R3bad_alloc@std@@8
rdata$r	ENDS
;	COMDAT ??_7bad_alloc@std@@6B@
CONST	SEGMENT
??_7bad_alloc@std@@6B@ DD FLAT:??_R4bad_alloc@std@@6B@	; std::bad_alloc::`vftable'
	DD	FLAT:??_Ebad_alloc@std@@UAEPAXI@Z
	DD	FLAT:?what@exception@std@@UBEPBDXZ
; Function compile flags: /Ogsp
CONST	ENDS
;	COMDAT ??0bad_alloc@std@@QAE@PBD@Z
_TEXT	SEGMENT
__Message$ = 8						; size = 4
??0bad_alloc@std@@QAE@PBD@Z PROC			; std::bad_alloc::bad_alloc, COMDAT
; _this$ = ecx

; 345  : 		{	// construct from message string

  00000	55		 push	 ebp
  00001	8b ec		 mov	 ebp, esp
  00003	56		 push	 esi
  00004	8d 45 08	 lea	 eax, DWORD PTR __Message$[ebp]
  00007	50		 push	 eax
  00008	8b f1		 mov	 esi, ecx
  0000a	ff 15 00 00 00
	00		 call	 DWORD PTR __imp_??0exception@std@@QAE@ABQBD@Z
  00010	c7 06 00 00 00
	00		 mov	 DWORD PTR [esi], OFFSET ??_7bad_alloc@std@@6B@

; 346  : 		}

  00016	8b c6		 mov	 eax, esi
  00018	5e		 pop	 esi
  00019	5d		 pop	 ebp
  0001a	c2 04 00	 ret	 4
??0bad_alloc@std@@QAE@PBD@Z ENDP			; std::bad_alloc::bad_alloc
_TEXT	ENDS
PUBLIC	??1bad_alloc@std@@UAE@XZ			; std::bad_alloc::~bad_alloc
EXTRN	__imp_??1exception@std@@UAE@XZ:PROC
; Function compile flags: /Ogsp
;	COMDAT ??1bad_alloc@std@@UAE@XZ
_TEXT	SEGMENT
??1bad_alloc@std@@UAE@XZ PROC				; std::bad_alloc::~bad_alloc, COMDAT
; _this$ = ecx

; 354  : 		{	// destroy the object

  00000	c7 01 00 00 00
	00		 mov	 DWORD PTR [ecx], OFFSET ??_7bad_alloc@std@@6B@

; 355  : 		}

  00006	ff 25 00 00 00
	00		 jmp	 DWORD PTR __imp_??1exception@std@@UAE@XZ
??1bad_alloc@std@@UAE@XZ ENDP				; std::bad_alloc::~bad_alloc
_TEXT	ENDS
EXTRN	??3@YAXPAX@Z:PROC				; operator delete
; Function compile flags: /Ogsp
;	COMDAT ??_Gbad_alloc@std@@UAEPAXI@Z
_TEXT	SEGMENT
___flags$ = 8						; size = 4
??_Gbad_alloc@std@@UAEPAXI@Z PROC			; std::bad_alloc::`scalar deleting destructor', COMDAT
; _this$ = ecx
  00000	55		 push	 ebp
  00001	8b ec		 mov	 ebp, esp
  00003	56		 push	 esi
  00004	8b f1		 mov	 esi, ecx
  00006	c7 06 00 00 00
	00		 mov	 DWORD PTR [esi], OFFSET ??_7bad_alloc@std@@6B@
  0000c	ff 15 00 00 00
	00		 call	 DWORD PTR __imp_??1exception@std@@UAE@XZ
  00012	f6 45 08 01	 test	 BYTE PTR ___flags$[ebp], 1
  00016	74 07		 je	 SHORT $LN1@scalar
  00018	56		 push	 esi
  00019	e8 00 00 00 00	 call	 ??3@YAXPAX@Z		; operator delete
  0001e	59		 pop	 ecx
$LN1@scalar:
  0001f	8b c6		 mov	 eax, esi
  00021	5e		 pop	 esi
  00022	5d		 pop	 ebp
  00023	c2 04 00	 ret	 4
??_Gbad_alloc@std@@UAEPAXI@Z ENDP			; std::bad_alloc::`scalar deleting destructor'
_TEXT	ENDS
PUBLIC	??2@YAPAXIPAX@Z					; operator new
; Function compile flags: /Ogsp
; File c:\program files (x86)\microsoft visual studio 10.0\vc\include\new
;	COMDAT ??2@YAPAXIPAX@Z
_TEXT	SEGMENT
___formal$ = 8						; size = 4
__Where$ = 12						; size = 4
??2@YAPAXIPAX@Z PROC					; operator new, COMDAT

; 56   : 	{	// construct array with placement at _Where

  00000	55		 push	 ebp
  00001	8b ec		 mov	 ebp, esp

; 57   : 	return (_Where);

  00003	8b 45 0c	 mov	 eax, DWORD PTR __Where$[ebp]

; 58   : 	}

  00006	5d		 pop	 ebp
  00007	c3		 ret	 0
??2@YAPAXIPAX@Z ENDP					; operator new
_TEXT	ENDS
PUBLIC	??3@YAXPAX0@Z					; operator delete
; Function compile flags: /Ogsp
;	COMDAT ??3@YAXPAX0@Z
_TEXT	SEGMENT
___formal$ = 8						; size = 4
___formal$ = 12						; size = 4
??3@YAXPAX0@Z PROC					; operator delete, COMDAT

; 62   : 	}

  00000	c3		 ret	 0
??3@YAXPAX0@Z ENDP					; operator delete
_TEXT	ENDS
PUBLIC	??1FishingItem@@QAE@XZ				; FishingItem::~FishingItem
;	COMDAT xdata$x
xdata$x	SEGMENT
__unwindtable$??1FishingItem@@QAE@XZ DD 0ffffffffH
	DD	FLAT:__unwindfunclet$??1FishingItem@@QAE@XZ$0
	DD	00H
	DD	FLAT:__unwindfunclet$??1FishingItem@@QAE@XZ$1
__ehfuncinfo$??1FishingItem@@QAE@XZ DD 019930522H
	DD	02H
	DD	FLAT:__unwindtable$??1FishingItem@@QAE@XZ
	DD	2 DUP(00H)
	DD	2 DUP(00H)
	DD	00H
	DD	01H
; Function compile flags: /Ogsp
xdata$x	ENDS
;	COMDAT ??1FishingItem@@QAE@XZ
_TEXT	SEGMENT
_this$ = -16						; size = 4
__$EHRec$ = -12						; size = 12
??1FishingItem@@QAE@XZ PROC				; FishingItem::~FishingItem, COMDAT
; _this$ = ecx
  00000	6a 04		 push	 4
  00002	b8 00 00 00 00	 mov	 eax, __ehhandler$??1FishingItem@@QAE@XZ
  00007	e8 00 00 00 00	 call	 __EH_prolog3
  0000c	8b f9		 mov	 edi, ecx
  0000e	89 7d f0	 mov	 DWORD PTR _this$[ebp], edi
  00011	8b 35 00 00 00
	00		 mov	 esi, DWORD PTR __imp_??1ioHashString@@QAE@XZ
  00017	8d 4f 20	 lea	 ecx, DWORD PTR [edi+32]
  0001a	c7 45 fc 01 00
	00 00		 mov	 DWORD PTR __$EHRec$[ebp+8], 1
  00021	ff d6		 call	 esi
  00023	8d 4f 10	 lea	 ecx, DWORD PTR [edi+16]
  00026	c6 45 fc 00	 mov	 BYTE PTR __$EHRec$[ebp+8], 0
  0002a	ff d6		 call	 esi
  0002c	83 4d fc ff	 or	 DWORD PTR __$EHRec$[ebp+8], -1
  00030	8b cf		 mov	 ecx, edi
  00032	ff d6		 call	 esi
  00034	e8 00 00 00 00	 call	 __EH_epilog3
  00039	c3		 ret	 0
_TEXT	ENDS
;	COMDAT text$x
text$x	SEGMENT
__unwindfunclet$??1FishingItem@@QAE@XZ$0:
  00000	8b 4d f0	 mov	 ecx, DWORD PTR _this$[ebp]
  00003	ff 25 00 00 00
	00		 jmp	 DWORD PTR __imp_??1ioHashString@@QAE@XZ
__unwindfunclet$??1FishingItem@@QAE@XZ$1:
  00009	8b 4d f0	 mov	 ecx, DWORD PTR _this$[ebp]
  0000c	83 c1 10	 add	 ecx, 16			; 00000010H
  0000f	ff 25 00 00 00
	00		 jmp	 DWORD PTR __imp_??1ioHashString@@QAE@XZ
__ehhandler$??1FishingItem@@QAE@XZ:
  00015	8b 54 24 08	 mov	 edx, DWORD PTR [esp+8]
  00019	8d 42 0c	 lea	 eax, DWORD PTR [edx+12]
  0001c	8b 4a ec	 mov	 ecx, DWORD PTR [edx-20]
  0001f	33 c8		 xor	 ecx, eax
  00021	e8 00 00 00 00	 call	 @__security_check_cookie@4
  00026	b8 00 00 00 00	 mov	 eax, OFFSET __ehfuncinfo$??1FishingItem@@QAE@XZ
  0002b	e9 00 00 00 00	 jmp	 ___CxxFrameHandler3
text$x	ENDS
??1FishingItem@@QAE@XZ ENDP				; FishingItem::~FishingItem
PUBLIC	?_Adopt@_Iterator_base0@std@@QAEXPBX@Z		; std::_Iterator_base0::_Adopt
; Function compile flags: /Ogsp
; File c:\program files (x86)\microsoft visual studio 10.0\vc\include\xutility
;	COMDAT ?_Adopt@_Iterator_base0@std@@QAEXPBX@Z
_TEXT	SEGMENT
___formal$ = 8						; size = 4
?_Adopt@_Iterator_base0@std@@QAEXPBX@Z PROC		; std::_Iterator_base0::_Adopt, COMDAT
; _this$ = ecx

; 49   : 		}

  00000	c2 04 00	 ret	 4
?_Adopt@_Iterator_base0@std@@QAEXPBX@Z ENDP		; std::_Iterator_base0::_Adopt
_TEXT	ENDS
PUBLIC	??1FishingItemGrade@@QAE@XZ			; FishingItemGrade::~FishingItemGrade
;	COMDAT xdata$x
xdata$x	SEGMENT
__unwindtable$??1FishingItemGrade@@QAE@XZ DD 0ffffffffH
	DD	FLAT:__unwindfunclet$??1FishingItemGrade@@QAE@XZ$0
__ehfuncinfo$??1FishingItemGrade@@QAE@XZ DD 019930522H
	DD	01H
	DD	FLAT:__unwindtable$??1FishingItemGrade@@QAE@XZ
	DD	2 DUP(00H)
	DD	2 DUP(00H)
	DD	00H
	DD	01H
; Function compile flags: /Ogsp
xdata$x	ENDS
;	COMDAT ??1FishingItemGrade@@QAE@XZ
_TEXT	SEGMENT
_this$ = -16						; size = 4
__$EHRec$ = -12						; size = 12
??1FishingItemGrade@@QAE@XZ PROC			; FishingItemGrade::~FishingItemGrade, COMDAT
; _this$ = ecx
  00000	6a 04		 push	 4
  00002	b8 00 00 00 00	 mov	 eax, __ehhandler$??1FishingItemGrade@@QAE@XZ
  00007	e8 00 00 00 00	 call	 __EH_prolog3
  0000c	8b f9		 mov	 edi, ecx
  0000e	89 7d f0	 mov	 DWORD PTR _this$[ebp], edi
  00011	8b 35 00 00 00
	00		 mov	 esi, DWORD PTR __imp_??1ioHashString@@QAE@XZ
  00017	83 65 fc 00	 and	 DWORD PTR __$EHRec$[ebp+8], 0
  0001b	8d 4f 14	 lea	 ecx, DWORD PTR [edi+20]
  0001e	ff d6		 call	 esi
  00020	83 4d fc ff	 or	 DWORD PTR __$EHRec$[ebp+8], -1
  00024	8d 4f 04	 lea	 ecx, DWORD PTR [edi+4]
  00027	ff d6		 call	 esi
  00029	e8 00 00 00 00	 call	 __EH_epilog3
  0002e	c3		 ret	 0
_TEXT	ENDS
;	COMDAT text$x
text$x	SEGMENT
__unwindfunclet$??1FishingItemGrade@@QAE@XZ$0:
  00000	8b 4d f0	 mov	 ecx, DWORD PTR _this$[ebp]
  00003	83 c1 04	 add	 ecx, 4
  00006	ff 25 00 00 00
	00		 jmp	 DWORD PTR __imp_??1ioHashString@@QAE@XZ
__ehhandler$??1FishingItemGrade@@QAE@XZ:
  0000c	8b 54 24 08	 mov	 edx, DWORD PTR [esp+8]
  00010	8d 42 0c	 lea	 eax, DWORD PTR [edx+12]
  00013	8b 4a ec	 mov	 ecx, DWORD PTR [edx-20]
  00016	33 c8		 xor	 ecx, eax
  00018	e8 00 00 00 00	 call	 @__security_check_cookie@4
  0001d	b8 00 00 00 00	 mov	 eax, OFFSET __ehfuncinfo$??1FishingItemGrade@@QAE@XZ
  00022	e9 00 00 00 00	 jmp	 ___CxxFrameHandler3
text$x	ENDS
??1FishingItemGrade@@QAE@XZ ENDP			; FishingItemGrade::~FishingItemGrade
PUBLIC	??0FishingTypeInfo@@QAE@XZ			; FishingTypeInfo::FishingTypeInfo
;	COMDAT xdata$x
xdata$x	SEGMENT
__unwindtable$??0FishingTypeInfo@@QAE@XZ DD 0ffffffffH
	DD	FLAT:__unwindfunclet$??0FishingTypeInfo@@QAE@XZ$0
	DD	00H
	DD	FLAT:__unwindfunclet$??0FishingTypeInfo@@QAE@XZ$1
	DD	01H
	DD	FLAT:__unwindfunclet$??0FishingTypeInfo@@QAE@XZ$2
__ehfuncinfo$??0FishingTypeInfo@@QAE@XZ DD 019930522H
	DD	03H
	DD	FLAT:__unwindtable$??0FishingTypeInfo@@QAE@XZ
	DD	2 DUP(00H)
	DD	2 DUP(00H)
	DD	00H
	DD	01H
; Function compile flags: /Ogsp
xdata$x	ENDS
;	COMDAT ??0FishingTypeInfo@@QAE@XZ
_TEXT	SEGMENT
_this$ = -16						; size = 4
__$EHRec$ = -12						; size = 12
??0FishingTypeInfo@@QAE@XZ PROC				; FishingTypeInfo::FishingTypeInfo, COMDAT
; _this$ = ecx
  00000	6a 04		 push	 4
  00002	b8 00 00 00 00	 mov	 eax, __ehhandler$??0FishingTypeInfo@@QAE@XZ
  00007	e8 00 00 00 00	 call	 __EH_prolog3
  0000c	8b f9		 mov	 edi, ecx
  0000e	89 7d f0	 mov	 DWORD PTR _this$[ebp], edi
  00011	8b 35 00 00 00
	00		 mov	 esi, DWORD PTR __imp_??0ioHashString@@QAE@XZ
  00017	ff d6		 call	 esi
  00019	83 65 fc 00	 and	 DWORD PTR __$EHRec$[ebp+8], 0
  0001d	8d 4f 10	 lea	 ecx, DWORD PTR [edi+16]
  00020	ff d6		 call	 esi
  00022	8d 4f 20	 lea	 ecx, DWORD PTR [edi+32]
  00025	c6 45 fc 01	 mov	 BYTE PTR __$EHRec$[ebp+8], 1
  00029	ff d6		 call	 esi
  0002b	8d 4f 30	 lea	 ecx, DWORD PTR [edi+48]
  0002e	c6 45 fc 02	 mov	 BYTE PTR __$EHRec$[ebp+8], 2
  00032	ff d6		 call	 esi
  00034	8b c7		 mov	 eax, edi
  00036	e8 00 00 00 00	 call	 __EH_epilog3
  0003b	c3		 ret	 0
_TEXT	ENDS
;	COMDAT text$x
text$x	SEGMENT
__unwindfunclet$??0FishingTypeInfo@@QAE@XZ$0:
  00000	8b 4d f0	 mov	 ecx, DWORD PTR _this$[ebp]
  00003	ff 25 00 00 00
	00		 jmp	 DWORD PTR __imp_??1ioHashString@@QAE@XZ
__unwindfunclet$??0FishingTypeInfo@@QAE@XZ$1:
  00009	8b 4d f0	 mov	 ecx, DWORD PTR _this$[ebp]
  0000c	83 c1 10	 add	 ecx, 16			; 00000010H
  0000f	ff 25 00 00 00
	00		 jmp	 DWORD PTR __imp_??1ioHashString@@QAE@XZ
__unwindfunclet$??0FishingTypeInfo@@QAE@XZ$2:
  00015	8b 4d f0	 mov	 ecx, DWORD PTR _this$[ebp]
  00018	83 c1 20	 add	 ecx, 32			; 00000020H
  0001b	ff 25 00 00 00
	00		 jmp	 DWORD PTR __imp_??1ioHashString@@QAE@XZ
__ehhandler$??0FishingTypeInfo@@QAE@XZ:
  00021	8b 54 24 08	 mov	 edx, DWORD PTR [esp+8]
  00025	8d 42 0c	 lea	 eax, DWORD PTR [edx+12]
  00028	8b 4a ec	 mov	 ecx, DWORD PTR [edx-20]
  0002b	33 c8		 xor	 ecx, eax
  0002d	e8 00 00 00 00	 call	 @__security_check_cookie@4
  00032	b8 00 00 00 00	 mov	 eax, OFFSET __ehfuncinfo$??0FishingTypeInfo@@QAE@XZ
  00037	e9 00 00 00 00	 jmp	 ___CxxFrameHandler3
text$x	ENDS
??0FishingTypeInfo@@QAE@XZ ENDP				; FishingTypeInfo::FishingTypeInfo
PUBLIC	??1FishingTypeInfo@@QAE@XZ			; FishingTypeInfo::~FishingTypeInfo
;	COMDAT xdata$x
xdata$x	SEGMENT
__unwindtable$??1FishingTypeInfo@@QAE@XZ DD 0ffffffffH
	DD	FLAT:__unwindfunclet$??1FishingTypeInfo@@QAE@XZ$0
	DD	00H
	DD	FLAT:__unwindfunclet$??1FishingTypeInfo@@QAE@XZ$1
	DD	01H
	DD	FLAT:__unwindfunclet$??1FishingTypeInfo@@QAE@XZ$2
__ehfuncinfo$??1FishingTypeInfo@@QAE@XZ DD 019930522H
	DD	03H
	DD	FLAT:__unwindtable$??1FishingTypeInfo@@QAE@XZ
	DD	2 DUP(00H)
	DD	2 DUP(00H)
	DD	00H
	DD	01H
; Function compile flags: /Ogsp
xdata$x	ENDS
;	COMDAT ??1FishingTypeInfo@@QAE@XZ
_TEXT	SEGMENT
_this$ = -16						; size = 4
__$EHRec$ = -12						; size = 12
??1FishingTypeInfo@@QAE@XZ PROC				; FishingTypeInfo::~FishingTypeInfo, COMDAT
; _this$ = ecx
  00000	6a 04		 push	 4
  00002	b8 00 00 00 00	 mov	 eax, __ehhandler$??1FishingTypeInfo@@QAE@XZ
  00007	e8 00 00 00 00	 call	 __EH_prolog3
  0000c	8b f9		 mov	 edi, ecx
  0000e	89 7d f0	 mov	 DWORD PTR _this$[ebp], edi
  00011	8b 35 00 00 00
	00		 mov	 esi, DWORD PTR __imp_??1ioHashString@@QAE@XZ
  00017	8d 4f 30	 lea	 ecx, DWORD PTR [edi+48]
  0001a	c7 45 fc 02 00
	00 00		 mov	 DWORD PTR __$EHRec$[ebp+8], 2
  00021	ff d6		 call	 esi
  00023	8d 4f 20	 lea	 ecx, DWORD PTR [edi+32]
  00026	c6 45 fc 01	 mov	 BYTE PTR __$EHRec$[ebp+8], 1
  0002a	ff d6		 call	 esi
  0002c	8d 4f 10	 lea	 ecx, DWORD PTR [edi+16]
  0002f	c6 45 fc 00	 mov	 BYTE PTR __$EHRec$[ebp+8], 0
  00033	ff d6		 call	 esi
  00035	83 4d fc ff	 or	 DWORD PTR __$EHRec$[ebp+8], -1
  00039	8b cf		 mov	 ecx, edi
  0003b	ff d6		 call	 esi
  0003d	e8 00 00 00 00	 call	 __EH_epilog3
  00042	c3		 ret	 0
_TEXT	ENDS
;	COMDAT text$x
text$x	SEGMENT
__unwindfunclet$??1FishingTypeInfo@@QAE@XZ$0:
  00000	8b 4d f0	 mov	 ecx, DWORD PTR _this$[ebp]
  00003	ff 25 00 00 00
	00		 jmp	 DWORD PTR __imp_??1ioHashString@@QAE@XZ
__unwindfunclet$??1FishingTypeInfo@@QAE@XZ$1:
  00009	8b 4d f0	 mov	 ecx, DWORD PTR _this$[ebp]
  0000c	83 c1 10	 add	 ecx, 16			; 00000010H
  0000f	ff 25 00 00 00
	00		 jmp	 DWORD PTR __imp_??1ioHashString@@QAE@XZ
__unwindfunclet$??1FishingTypeInfo@@QAE@XZ$2:
  00015	8b 4d f0	 mov	 ecx, DWORD PTR _this$[ebp]
  00018	83 c1 20	 add	 ecx, 32			; 00000020H
  0001b	ff 25 00 00 00
	00		 jmp	 DWORD PTR __imp_??1ioHashString@@QAE@XZ
__ehhandler$??1FishingTypeInfo@@QAE@XZ:
  00021	8b 54 24 08	 mov	 edx, DWORD PTR [esp+8]
  00025	8d 42 0c	 lea	 eax, DWORD PTR [edx+12]
  00028	8b 4a ec	 mov	 ecx, DWORD PTR [edx-20]
  0002b	33 c8		 xor	 ecx, eax
  0002d	e8 00 00 00 00	 call	 @__security_check_cookie@4
  00032	b8 00 00 00 00	 mov	 eax, OFFSET __ehfuncinfo$??1FishingTypeInfo@@QAE@XZ
  00037	e9 00 00 00 00	 jmp	 ___CxxFrameHandler3
text$x	ENDS
??1FishingTypeInfo@@QAE@XZ ENDP				; FishingTypeInfo::~FishingTypeInfo
PUBLIC	??1tagCostumeInfo@@QAE@XZ			; tagCostumeInfo::~tagCostumeInfo
;	COMDAT xdata$x
xdata$x	SEGMENT
__ehfuncinfo$??1tagCostumeInfo@@QAE@XZ DD 019930522H
	DD	08H
	DD	FLAT:__unwindtable$??1tagCostumeInfo@@QAE@XZ
	DD	2 DUP(00H)
	DD	2 DUP(00H)
	DD	00H
	DD	01H
__unwindtable$??1tagCostumeInfo@@QAE@XZ DD 0ffffffffH
	DD	FLAT:__unwindfunclet$??1tagCostumeInfo@@QAE@XZ$0
	DD	00H
	DD	FLAT:__unwindfunclet$??1tagCostumeInfo@@QAE@XZ$1
	DD	01H
	DD	FLAT:__unwindfunclet$??1tagCostumeInfo@@QAE@XZ$2
	DD	02H
	DD	FLAT:__unwindfunclet$??1tagCostumeInfo@@QAE@XZ$3
	DD	03H
	DD	FLAT:__unwindfunclet$??1tagCostumeInfo@@QAE@XZ$4
	DD	04H
	DD	FLAT:__unwindfunclet$??1tagCostumeInfo@@QAE@XZ$5
	DD	05H
	DD	FLAT:__unwindfunclet$??1tagCostumeInfo@@QAE@XZ$6
	DD	06H
	DD	FLAT:__unwindfunclet$??1tagCostumeInfo@@QAE@XZ$7
; Function compile flags: /Ogsp
xdata$x	ENDS
;	COMDAT ??1tagCostumeInfo@@QAE@XZ
_TEXT	SEGMENT
_this$ = -16						; size = 4
__$EHRec$ = -12						; size = 12
??1tagCostumeInfo@@QAE@XZ PROC				; tagCostumeInfo::~tagCostumeInfo, COMDAT
; _this$ = ecx
  00000	6a 04		 push	 4
  00002	b8 00 00 00 00	 mov	 eax, __ehhandler$??1tagCostumeInfo@@QAE@XZ
  00007	e8 00 00 00 00	 call	 __EH_prolog3
  0000c	8b f9		 mov	 edi, ecx
  0000e	89 7d f0	 mov	 DWORD PTR _this$[ebp], edi
  00011	8b 35 00 00 00
	00		 mov	 esi, DWORD PTR __imp_??1ioHashString@@QAE@XZ
  00017	8d 8f b8 00 00
	00		 lea	 ecx, DWORD PTR [edi+184]
  0001d	c7 45 fc 07 00
	00 00		 mov	 DWORD PTR __$EHRec$[ebp+8], 7
  00024	ff d6		 call	 esi
  00026	8d 8f a8 00 00
	00		 lea	 ecx, DWORD PTR [edi+168]
  0002c	c6 45 fc 06	 mov	 BYTE PTR __$EHRec$[ebp+8], 6
  00030	ff d6		 call	 esi
  00032	8d 8f 94 00 00
	00		 lea	 ecx, DWORD PTR [edi+148]
  00038	c6 45 fc 05	 mov	 BYTE PTR __$EHRec$[ebp+8], 5
  0003c	ff d6		 call	 esi
  0003e	8d 8f 84 00 00
	00		 lea	 ecx, DWORD PTR [edi+132]
  00044	c6 45 fc 04	 mov	 BYTE PTR __$EHRec$[ebp+8], 4
  00048	ff d6		 call	 esi
  0004a	8d 4f 60	 lea	 ecx, DWORD PTR [edi+96]
  0004d	c6 45 fc 03	 mov	 BYTE PTR __$EHRec$[ebp+8], 3
  00051	ff d6		 call	 esi
  00053	8d 4f 50	 lea	 ecx, DWORD PTR [edi+80]
  00056	c6 45 fc 02	 mov	 BYTE PTR __$EHRec$[ebp+8], 2
  0005a	ff d6		 call	 esi
  0005c	8d 4f 38	 lea	 ecx, DWORD PTR [edi+56]
  0005f	c6 45 fc 01	 mov	 BYTE PTR __$EHRec$[ebp+8], 1
  00063	ff d6		 call	 esi
  00065	8d 4f 28	 lea	 ecx, DWORD PTR [edi+40]
  00068	c6 45 fc 00	 mov	 BYTE PTR __$EHRec$[ebp+8], 0
  0006c	ff d6		 call	 esi
  0006e	83 4d fc ff	 or	 DWORD PTR __$EHRec$[ebp+8], -1
  00072	8d 4f 18	 lea	 ecx, DWORD PTR [edi+24]
  00075	ff d6		 call	 esi
  00077	e8 00 00 00 00	 call	 __EH_epilog3
  0007c	c3		 ret	 0
_TEXT	ENDS
;	COMDAT text$x
text$x	SEGMENT
__unwindfunclet$??1tagCostumeInfo@@QAE@XZ$0:
  00000	8b 4d f0	 mov	 ecx, DWORD PTR _this$[ebp]
  00003	83 c1 18	 add	 ecx, 24			; 00000018H
  00006	ff 25 00 00 00
	00		 jmp	 DWORD PTR __imp_??1ioHashString@@QAE@XZ
__unwindfunclet$??1tagCostumeInfo@@QAE@XZ$1:
  0000c	8b 4d f0	 mov	 ecx, DWORD PTR _this$[ebp]
  0000f	83 c1 28	 add	 ecx, 40			; 00000028H
  00012	ff 25 00 00 00
	00		 jmp	 DWORD PTR __imp_??1ioHashString@@QAE@XZ
__unwindfunclet$??1tagCostumeInfo@@QAE@XZ$2:
  00018	8b 4d f0	 mov	 ecx, DWORD PTR _this$[ebp]
  0001b	83 c1 38	 add	 ecx, 56			; 00000038H
  0001e	ff 25 00 00 00
	00		 jmp	 DWORD PTR __imp_??1ioHashString@@QAE@XZ
__unwindfunclet$??1tagCostumeInfo@@QAE@XZ$3:
  00024	8b 4d f0	 mov	 ecx, DWORD PTR _this$[ebp]
  00027	83 c1 50	 add	 ecx, 80			; 00000050H
  0002a	ff 25 00 00 00
	00		 jmp	 DWORD PTR __imp_??1ioHashString@@QAE@XZ
__unwindfunclet$??1tagCostumeInfo@@QAE@XZ$4:
  00030	8b 4d f0	 mov	 ecx, DWORD PTR _this$[ebp]
  00033	83 c1 60	 add	 ecx, 96			; 00000060H
  00036	ff 25 00 00 00
	00		 jmp	 DWORD PTR __imp_??1ioHashString@@QAE@XZ
__unwindfunclet$??1tagCostumeInfo@@QAE@XZ$5:
  0003c	8b 4d f0	 mov	 ecx, DWORD PTR _this$[ebp]
  0003f	81 c1 84 00 00
	00		 add	 ecx, 132		; 00000084H
  00045	ff 25 00 00 00
	00		 jmp	 DWORD PTR __imp_??1ioHashString@@QAE@XZ
__unwindfunclet$??1tagCostumeInfo@@QAE@XZ$6:
  0004b	8b 4d f0	 mov	 ecx, DWORD PTR _this$[ebp]
  0004e	81 c1 94 00 00
	00		 add	 ecx, 148		; 00000094H
  00054	ff 25 00 00 00
	00		 jmp	 DWORD PTR __imp_??1ioHashString@@QAE@XZ
__unwindfunclet$??1tagCostumeInfo@@QAE@XZ$7:
  0005a	8b 4d f0	 mov	 ecx, DWORD PTR _this$[ebp]
  0005d	81 c1 a8 00 00
	00		 add	 ecx, 168		; 000000a8H
  00063	ff 25 00 00 00
	00		 jmp	 DWORD PTR __imp_??1ioHashString@@QAE@XZ
__ehhandler$??1tagCostumeInfo@@QAE@XZ:
  00069	8b 54 24 08	 mov	 edx, DWORD PTR [esp+8]
  0006d	8d 42 0c	 lea	 eax, DWORD PTR [edx+12]
  00070	8b 4a ec	 mov	 ecx, DWORD PTR [edx-20]
  00073	33 c8		 xor	 ecx, eax
  00075	e8 00 00 00 00	 call	 @__security_check_cookie@4
  0007a	b8 00 00 00 00	 mov	 eax, OFFSET __ehfuncinfo$??1tagCostumeInfo@@QAE@XZ
  0007f	e9 00 00 00 00	 jmp	 ___CxxFrameHandler3
text$x	ENDS
??1tagCostumeInfo@@QAE@XZ ENDP				; tagCostumeInfo::~tagCostumeInfo
PUBLIC	?GetSingleton@?$Singleton@VioEtcItemManager@@@@SAAAVioEtcItemManager@@XZ ; Singleton<ioEtcItemManager>::GetSingleton
EXTRN	?ms_Singleton@?$Singleton@VioEtcItemManager@@@@1PAVioEtcItemManager@@A:DWORD ; Singleton<ioEtcItemManager>::ms_Singleton
; Function compile flags: /Ogsp
; File d:\lost saga for developer\youtube\tutorial\source\src\io3dengine\iosingleton.h
;	COMDAT ?GetSingleton@?$Singleton@VioEtcItemManager@@@@SAAAVioEtcItemManager@@XZ
_TEXT	SEGMENT
?GetSingleton@?$Singleton@VioEtcItemManager@@@@SAAAVioEtcItemManager@@XZ PROC ; Singleton<ioEtcItemManager>::GetSingleton, COMDAT

; 42   : 		assert( ms_Singleton );
; 43   : 		return (*ms_Singleton);

  00000	a1 00 00 00 00	 mov	 eax, DWORD PTR ?ms_Singleton@?$Singleton@VioEtcItemManager@@@@1PAVioEtcItemManager@@A ; Singleton<ioEtcItemManager>::ms_Singleton

; 44   : 	}

  00005	c3		 ret	 0
?GetSingleton@?$Singleton@VioEtcItemManager@@@@SAAAVioEtcItemManager@@XZ ENDP ; Singleton<ioEtcItemManager>::GetSingleton
_TEXT	ENDS
PUBLIC	??0?$Singleton@VioFishingManager@@@@QAE@XZ	; Singleton<ioFishingManager>::Singleton<ioFishingManager>
; Function compile flags: /Ogsp
;	COMDAT ??0?$Singleton@VioFishingManager@@@@QAE@XZ
_TEXT	SEGMENT
??0?$Singleton@VioFishingManager@@@@QAE@XZ PROC		; Singleton<ioFishingManager>::Singleton<ioFishingManager>, COMDAT
; _this$ = ecx

; 27   : 	Singleton()

  00000	8b c1		 mov	 eax, ecx

; 28   : 	{
; 29   : 		assert( !ms_Singleton );
; 30   : 		int offset = (int)(T*)1 - (int)(Singleton <T>*)(T*)1;
; 31   : 		ms_Singleton = (T*)((int)this + offset);

  00002	8d 48 fc	 lea	 ecx, DWORD PTR [eax-4]
  00005	89 0d 00 00 00
	00		 mov	 DWORD PTR ?ms_Singleton@?$Singleton@VioFishingManager@@@@1PAVioFishingManager@@A, ecx ; Singleton<ioFishingManager>::ms_Singleton

; 32   : 	}

  0000b	c3		 ret	 0
??0?$Singleton@VioFishingManager@@@@QAE@XZ ENDP		; Singleton<ioFishingManager>::Singleton<ioFishingManager>
_TEXT	ENDS
PUBLIC	??1?$Singleton@VioFishingManager@@@@QAE@XZ	; Singleton<ioFishingManager>::~Singleton<ioFishingManager>
; Function compile flags: /Ogsp
;	COMDAT ??1?$Singleton@VioFishingManager@@@@QAE@XZ
_TEXT	SEGMENT
??1?$Singleton@VioFishingManager@@@@QAE@XZ PROC		; Singleton<ioFishingManager>::~Singleton<ioFishingManager>, COMDAT
; _this$ = ecx

; 36   : 		assert( ms_Singleton );
; 37   : 		ms_Singleton = 0;

  00000	83 25 00 00 00
	00 00		 and	 DWORD PTR ?ms_Singleton@?$Singleton@VioFishingManager@@@@1PAVioFishingManager@@A, 0 ; Singleton<ioFishingManager>::ms_Singleton

; 38   : 	}

  00007	c3		 ret	 0
??1?$Singleton@VioFishingManager@@@@QAE@XZ ENDP		; Singleton<ioFishingManager>::~Singleton<ioFishingManager>
_TEXT	ENDS
PUBLIC	?GetSingleton@?$Singleton@VioFishingManager@@@@SAAAVioFishingManager@@XZ ; Singleton<ioFishingManager>::GetSingleton
; Function compile flags: /Ogsp
;	COMDAT ?GetSingleton@?$Singleton@VioFishingManager@@@@SAAAVioFishingManager@@XZ
_TEXT	SEGMENT
?GetSingleton@?$Singleton@VioFishingManager@@@@SAAAVioFishingManager@@XZ PROC ; Singleton<ioFishingManager>::GetSingleton, COMDAT

; 42   : 		assert( ms_Singleton );
; 43   : 		return (*ms_Singleton);

  00000	a1 00 00 00 00	 mov	 eax, DWORD PTR ?ms_Singleton@?$Singleton@VioFishingManager@@@@1PAVioFishingManager@@A ; Singleton<ioFishingManager>::ms_Singleton

; 44   : 	}

  00005	c3		 ret	 0
?GetSingleton@?$Singleton@VioFishingManager@@@@SAAAVioFishingManager@@XZ ENDP ; Singleton<ioFishingManager>::GetSingleton
_TEXT	ENDS
PUBLIC	?size@?$vector@UFishingItemGrade@@V?$allocator@UFishingItemGrade@@@std@@@std@@QBEIXZ ; std::vector<FishingItemGrade,std::allocator<FishingItemGrade> >::size
; Function compile flags: /Ogsp
; File c:\program files (x86)\microsoft visual studio 10.0\vc\include\vector
;	COMDAT ?size@?$vector@UFishingItemGrade@@V?$allocator@UFishingItemGrade@@@std@@@std@@QBEIXZ
_TEXT	SEGMENT
?size@?$vector@UFishingItemGrade@@V?$allocator@UFishingItemGrade@@@std@@@std@@QBEIXZ PROC ; std::vector<FishingItemGrade,std::allocator<FishingItemGrade> >::size, COMDAT
; _this$ = ecx

; 879  : 		return (this->_Mylast - this->_Myfirst);

  00000	8b 41 04	 mov	 eax, DWORD PTR [ecx+4]
  00003	2b 01		 sub	 eax, DWORD PTR [ecx]
  00005	6a 28		 push	 40			; 00000028H
  00007	99		 cdq
  00008	59		 pop	 ecx
  00009	f7 f9		 idiv	 ecx

; 880  : 		}

  0000b	c3		 ret	 0
?size@?$vector@UFishingItemGrade@@V?$allocator@UFishingItemGrade@@@std@@@std@@QBEIXZ ENDP ; std::vector<FishingItemGrade,std::allocator<FishingItemGrade> >::size
_TEXT	ENDS
PUBLIC	??A?$vector@UFishingItemGrade@@V?$allocator@UFishingItemGrade@@@std@@@std@@QAEAAUFishingItemGrade@@I@Z ; std::vector<FishingItemGrade,std::allocator<FishingItemGrade> >::operator[]
; Function compile flags: /Ogsp
;	COMDAT ??A?$vector@UFishingItemGrade@@V?$allocator@UFishingItemGrade@@@std@@@std@@QAEAAUFishingItemGrade@@I@Z
_TEXT	SEGMENT
__Pos$ = 8						; size = 4
??A?$vector@UFishingItemGrade@@V?$allocator@UFishingItemGrade@@@std@@@std@@QAEAAUFishingItemGrade@@I@Z PROC ; std::vector<FishingItemGrade,std::allocator<FishingItemGrade> >::operator[], COMDAT
; _this$ = ecx

; 928  : 		{	// subscript mutable sequence

  00000	55		 push	 ebp
  00001	8b ec		 mov	 ebp, esp

; 929  :  #if _ITERATOR_DEBUG_LEVEL == 2
; 930  : 		if (size() <= _Pos)
; 931  : 			{	// report error
; 932  : 			_DEBUG_ERROR("vector subscript out of range");
; 933  : 			_SCL_SECURE_OUT_OF_RANGE;
; 934  : 			}
; 935  : 
; 936  :  #elif _ITERATOR_DEBUG_LEVEL == 1
; 937  : 		_SCL_SECURE_VALIDATE_RANGE(_Pos < size());
; 938  :  #endif /* _ITERATOR_DEBUG_LEVEL */
; 939  : 
; 940  : 		return (*(this->_Myfirst + _Pos));

  00003	8b 45 08	 mov	 eax, DWORD PTR __Pos$[ebp]
  00006	6b c0 28	 imul	 eax, 40			; 00000028H
  00009	03 01		 add	 eax, DWORD PTR [ecx]

; 941  : 		}

  0000b	5d		 pop	 ebp
  0000c	c2 04 00	 ret	 4
??A?$vector@UFishingItemGrade@@V?$allocator@UFishingItemGrade@@@std@@@std@@QAEAAUFishingItemGrade@@I@Z ENDP ; std::vector<FishingItemGrade,std::allocator<FishingItemGrade> >::operator[]
_TEXT	ENDS
PUBLIC	?size@?$vector@UFishingTypeInfo@@V?$allocator@UFishingTypeInfo@@@std@@@std@@QBEIXZ ; std::vector<FishingTypeInfo,std::allocator<FishingTypeInfo> >::size
; Function compile flags: /Ogsp
;	COMDAT ?size@?$vector@UFishingTypeInfo@@V?$allocator@UFishingTypeInfo@@@std@@@std@@QBEIXZ
_TEXT	SEGMENT
?size@?$vector@UFishingTypeInfo@@V?$allocator@UFishingTypeInfo@@@std@@@std@@QBEIXZ PROC ; std::vector<FishingTypeInfo,std::allocator<FishingTypeInfo> >::size, COMDAT
; _this$ = ecx

; 879  : 		return (this->_Mylast - this->_Myfirst);

  00000	8b 41 04	 mov	 eax, DWORD PTR [ecx+4]
  00003	2b 01		 sub	 eax, DWORD PTR [ecx]
  00005	c1 f8 06	 sar	 eax, 6

; 880  : 		}

  00008	c3		 ret	 0
?size@?$vector@UFishingTypeInfo@@V?$allocator@UFishingTypeInfo@@@std@@@std@@QBEIXZ ENDP ; std::vector<FishingTypeInfo,std::allocator<FishingTypeInfo> >::size
_TEXT	ENDS
PUBLIC	??A?$vector@UFishingTypeInfo@@V?$allocator@UFishingTypeInfo@@@std@@@std@@QAEAAUFishingTypeInfo@@I@Z ; std::vector<FishingTypeInfo,std::allocator<FishingTypeInfo> >::operator[]
; Function compile flags: /Ogsp
;	COMDAT ??A?$vector@UFishingTypeInfo@@V?$allocator@UFishingTypeInfo@@@std@@@std@@QAEAAUFishingTypeInfo@@I@Z
_TEXT	SEGMENT
__Pos$ = 8						; size = 4
??A?$vector@UFishingTypeInfo@@V?$allocator@UFishingTypeInfo@@@std@@@std@@QAEAAUFishingTypeInfo@@I@Z PROC ; std::vector<FishingTypeInfo,std::allocator<FishingTypeInfo> >::operator[], COMDAT
; _this$ = ecx

; 928  : 		{	// subscript mutable sequence

  00000	55		 push	 ebp
  00001	8b ec		 mov	 ebp, esp

; 929  :  #if _ITERATOR_DEBUG_LEVEL == 2
; 930  : 		if (size() <= _Pos)
; 931  : 			{	// report error
; 932  : 			_DEBUG_ERROR("vector subscript out of range");
; 933  : 			_SCL_SECURE_OUT_OF_RANGE;
; 934  : 			}
; 935  : 
; 936  :  #elif _ITERATOR_DEBUG_LEVEL == 1
; 937  : 		_SCL_SECURE_VALIDATE_RANGE(_Pos < size());
; 938  :  #endif /* _ITERATOR_DEBUG_LEVEL */
; 939  : 
; 940  : 		return (*(this->_Myfirst + _Pos));

  00003	8b 45 08	 mov	 eax, DWORD PTR __Pos$[ebp]
  00006	c1 e0 06	 shl	 eax, 6
  00009	03 01		 add	 eax, DWORD PTR [ecx]

; 941  : 		}

  0000b	5d		 pop	 ebp
  0000c	c2 04 00	 ret	 4
??A?$vector@UFishingTypeInfo@@V?$allocator@UFishingTypeInfo@@@std@@@std@@QAEAAUFishingTypeInfo@@I@Z ENDP ; std::vector<FishingTypeInfo,std::allocator<FishingTypeInfo> >::operator[]
_TEXT	ENDS
PUBLIC	?_Inside@?$vector@UFishingItem@@V?$allocator@UFishingItem@@@std@@@std@@IBE_NPBUFishingItem@@@Z ; std::vector<FishingItem,std::allocator<FishingItem> >::_Inside
; Function compile flags: /Ogsp
;	COMDAT ?_Inside@?$vector@UFishingItem@@V?$allocator@UFishingItem@@@std@@@std@@IBE_NPBUFishingItem@@@Z
_TEXT	SEGMENT
__Ptr$ = 8						; size = 4
?_Inside@?$vector@UFishingItem@@V?$allocator@UFishingItem@@@std@@@std@@IBE_NPBUFishingItem@@@Z PROC ; std::vector<FishingItem,std::allocator<FishingItem> >::_Inside, COMDAT
; _this$ = ecx

; 1285 : 		{	// test if _Ptr points inside vector

  00000	55		 push	 ebp
  00001	8b ec		 mov	 ebp, esp

; 1286 : 		return (_Ptr < this->_Mylast && this->_Myfirst <= _Ptr);

  00003	8b 45 08	 mov	 eax, DWORD PTR __Ptr$[ebp]
  00006	3b 41 04	 cmp	 eax, DWORD PTR [ecx+4]
  00009	73 09		 jae	 SHORT $LN3@Inside
  0000b	39 01		 cmp	 DWORD PTR [ecx], eax
  0000d	77 05		 ja	 SHORT $LN3@Inside
  0000f	33 c0		 xor	 eax, eax
  00011	40		 inc	 eax
  00012	eb 02		 jmp	 SHORT $LN4@Inside
$LN3@Inside:
  00014	33 c0		 xor	 eax, eax
$LN4@Inside:

; 1287 : 		}

  00016	5d		 pop	 ebp
  00017	c2 04 00	 ret	 4
?_Inside@?$vector@UFishingItem@@V?$allocator@UFishingItem@@@std@@@std@@IBE_NPBUFishingItem@@@Z ENDP ; std::vector<FishingItem,std::allocator<FishingItem> >::_Inside
_TEXT	ENDS
PUBLIC	?_Orphan_range@?$vector@UFishingItem@@V?$allocator@UFishingItem@@@std@@@std@@IBEXPAUFishingItem@@0@Z ; std::vector<FishingItem,std::allocator<FishingItem> >::_Orphan_range
; Function compile flags: /Ogsp
;	COMDAT ?_Orphan_range@?$vector@UFishingItem@@V?$allocator@UFishingItem@@@std@@@std@@IBEXPAUFishingItem@@0@Z
_TEXT	SEGMENT
___formal$ = 8						; size = 4
___formal$ = 12						; size = 4
?_Orphan_range@?$vector@UFishingItem@@V?$allocator@UFishingItem@@@std@@@std@@IBEXPAUFishingItem@@0@Z PROC ; std::vector<FishingItem,std::allocator<FishingItem> >::_Orphan_range, COMDAT
; _this$ = ecx

; 1454 : 		}

  00000	c2 08 00	 ret	 8
?_Orphan_range@?$vector@UFishingItem@@V?$allocator@UFishingItem@@@std@@@std@@IBEXPAUFishingItem@@0@Z ENDP ; std::vector<FishingItem,std::allocator<FishingItem> >::_Orphan_range
_TEXT	ENDS
PUBLIC	??1?$_Vector_val@UFishingItem@@V?$allocator@UFishingItem@@@std@@@std@@QAE@XZ ; std::_Vector_val<FishingItem,std::allocator<FishingItem> >::~_Vector_val<FishingItem,std::allocator<FishingItem> >
; Function compile flags: /Ogsp
;	COMDAT ??1?$_Vector_val@UFishingItem@@V?$allocator@UFishingItem@@@std@@@std@@QAE@XZ
_TEXT	SEGMENT
??1?$_Vector_val@UFishingItem@@V?$allocator@UFishingItem@@@std@@@std@@QAE@XZ PROC ; std::_Vector_val<FishingItem,std::allocator<FishingItem> >::~_Vector_val<FishingItem,std::allocator<FishingItem> >, COMDAT
; _this$ = ecx

; 434  : 		}

  00000	c3		 ret	 0
??1?$_Vector_val@UFishingItem@@V?$allocator@UFishingItem@@@std@@@std@@QAE@XZ ENDP ; std::_Vector_val<FishingItem,std::allocator<FishingItem> >::~_Vector_val<FishingItem,std::allocator<FishingItem> >
_TEXT	ENDS
PUBLIC	??0?$allocator@UFishingItem@@@std@@QAE@XZ	; std::allocator<FishingItem>::allocator<FishingItem>
; Function compile flags: /Ogsp
; File c:\program files (x86)\microsoft visual studio 10.0\vc\include\xmemory
;	COMDAT ??0?$allocator@UFishingItem@@@std@@QAE@XZ
_TEXT	SEGMENT
??0?$allocator@UFishingItem@@@std@@QAE@XZ PROC		; std::allocator<FishingItem>::allocator<FishingItem>, COMDAT
; _this$ = ecx

; 161  : 	_ALLOCATOR() _THROW0()

  00000	8b c1		 mov	 eax, ecx

; 162  : 		{	// construct default allocator (do nothing)
; 163  : 		}

  00002	c3		 ret	 0
??0?$allocator@UFishingItem@@@std@@QAE@XZ ENDP		; std::allocator<FishingItem>::allocator<FishingItem>
_TEXT	ENDS
PUBLIC	?_Inside@?$vector@UFishingItemGrade@@V?$allocator@UFishingItemGrade@@@std@@@std@@IBE_NPBUFishingItemGrade@@@Z ; std::vector<FishingItemGrade,std::allocator<FishingItemGrade> >::_Inside
; Function compile flags: /Ogsp
; File c:\program files (x86)\microsoft visual studio 10.0\vc\include\vector
;	COMDAT ?_Inside@?$vector@UFishingItemGrade@@V?$allocator@UFishingItemGrade@@@std@@@std@@IBE_NPBUFishingItemGrade@@@Z
_TEXT	SEGMENT
__Ptr$ = 8						; size = 4
?_Inside@?$vector@UFishingItemGrade@@V?$allocator@UFishingItemGrade@@@std@@@std@@IBE_NPBUFishingItemGrade@@@Z PROC ; std::vector<FishingItemGrade,std::allocator<FishingItemGrade> >::_Inside, COMDAT
; _this$ = ecx

; 1285 : 		{	// test if _Ptr points inside vector

  00000	55		 push	 ebp
  00001	8b ec		 mov	 ebp, esp

; 1286 : 		return (_Ptr < this->_Mylast && this->_Myfirst <= _Ptr);

  00003	8b 45 08	 mov	 eax, DWORD PTR __Ptr$[ebp]
  00006	3b 41 04	 cmp	 eax, DWORD PTR [ecx+4]
  00009	73 09		 jae	 SHORT $LN3@Inside@2
  0000b	39 01		 cmp	 DWORD PTR [ecx], eax
  0000d	77 05		 ja	 SHORT $LN3@Inside@2
  0000f	33 c0		 xor	 eax, eax
  00011	40		 inc	 eax
  00012	eb 02		 jmp	 SHORT $LN4@Inside@2
$LN3@Inside@2:
  00014	33 c0		 xor	 eax, eax
$LN4@Inside@2:

; 1287 : 		}

  00016	5d		 pop	 ebp
  00017	c2 04 00	 ret	 4
?_Inside@?$vector@UFishingItemGrade@@V?$allocator@UFishingItemGrade@@@std@@@std@@IBE_NPBUFishingItemGrade@@@Z ENDP ; std::vector<FishingItemGrade,std::allocator<FishingItemGrade> >::_Inside
_TEXT	ENDS
PUBLIC	?_Orphan_range@?$vector@UFishingItemGrade@@V?$allocator@UFishingItemGrade@@@std@@@std@@IBEXPAUFishingItemGrade@@0@Z ; std::vector<FishingItemGrade,std::allocator<FishingItemGrade> >::_Orphan_range
; Function compile flags: /Ogsp
;	COMDAT ?_Orphan_range@?$vector@UFishingItemGrade@@V?$allocator@UFishingItemGrade@@@std@@@std@@IBEXPAUFishingItemGrade@@0@Z
_TEXT	SEGMENT
___formal$ = 8						; size = 4
___formal$ = 12						; size = 4
?_Orphan_range@?$vector@UFishingItemGrade@@V?$allocator@UFishingItemGrade@@@std@@@std@@IBEXPAUFishingItemGrade@@0@Z PROC ; std::vector<FishingItemGrade,std::allocator<FishingItemGrade> >::_Orphan_range, COMDAT
; _this$ = ecx

; 1454 : 		}

  00000	c2 08 00	 ret	 8
?_Orphan_range@?$vector@UFishingItemGrade@@V?$allocator@UFishingItemGrade@@@std@@@std@@IBEXPAUFishingItemGrade@@0@Z ENDP ; std::vector<FishingItemGrade,std::allocator<FishingItemGrade> >::_Orphan_range
_TEXT	ENDS
PUBLIC	??1?$_Vector_val@UFishingItemGrade@@V?$allocator@UFishingItemGrade@@@std@@@std@@QAE@XZ ; std::_Vector_val<FishingItemGrade,std::allocator<FishingItemGrade> >::~_Vector_val<FishingItemGrade,std::allocator<FishingItemGrade> >
; Function compile flags: /Ogsp
;	COMDAT ??1?$_Vector_val@UFishingItemGrade@@V?$allocator@UFishingItemGrade@@@std@@@std@@QAE@XZ
_TEXT	SEGMENT
??1?$_Vector_val@UFishingItemGrade@@V?$allocator@UFishingItemGrade@@@std@@@std@@QAE@XZ PROC ; std::_Vector_val<FishingItemGrade,std::allocator<FishingItemGrade> >::~_Vector_val<FishingItemGrade,std::allocator<FishingItemGrade> >, COMDAT
; _this$ = ecx

; 434  : 		}

  00000	c3		 ret	 0
??1?$_Vector_val@UFishingItemGrade@@V?$allocator@UFishingItemGrade@@@std@@@std@@QAE@XZ ENDP ; std::_Vector_val<FishingItemGrade,std::allocator<FishingItemGrade> >::~_Vector_val<FishingItemGrade,std::allocator<FishingItemGrade> >
_TEXT	ENDS
PUBLIC	??0?$allocator@UFishingItemGrade@@@std@@QAE@XZ	; std::allocator<FishingItemGrade>::allocator<FishingItemGrade>
; Function compile flags: /Ogsp
; File c:\program files (x86)\microsoft visual studio 10.0\vc\include\xmemory
;	COMDAT ??0?$allocator@UFishingItemGrade@@@std@@QAE@XZ
_TEXT	SEGMENT
??0?$allocator@UFishingItemGrade@@@std@@QAE@XZ PROC	; std::allocator<FishingItemGrade>::allocator<FishingItemGrade>, COMDAT
; _this$ = ecx

; 161  : 	_ALLOCATOR() _THROW0()

  00000	8b c1		 mov	 eax, ecx

; 162  : 		{	// construct default allocator (do nothing)
; 163  : 		}

  00002	c3		 ret	 0
??0?$allocator@UFishingItemGrade@@@std@@QAE@XZ ENDP	; std::allocator<FishingItemGrade>::allocator<FishingItemGrade>
_TEXT	ENDS
PUBLIC	?_Inside@?$vector@UFishingTypeInfo@@V?$allocator@UFishingTypeInfo@@@std@@@std@@IBE_NPBUFishingTypeInfo@@@Z ; std::vector<FishingTypeInfo,std::allocator<FishingTypeInfo> >::_Inside
; Function compile flags: /Ogsp
; File c:\program files (x86)\microsoft visual studio 10.0\vc\include\vector
;	COMDAT ?_Inside@?$vector@UFishingTypeInfo@@V?$allocator@UFishingTypeInfo@@@std@@@std@@IBE_NPBUFishingTypeInfo@@@Z
_TEXT	SEGMENT
__Ptr$ = 8						; size = 4
?_Inside@?$vector@UFishingTypeInfo@@V?$allocator@UFishingTypeInfo@@@std@@@std@@IBE_NPBUFishingTypeInfo@@@Z PROC ; std::vector<FishingTypeInfo,std::allocator<FishingTypeInfo> >::_Inside, COMDAT
; _this$ = ecx

; 1285 : 		{	// test if _Ptr points inside vector

  00000	55		 push	 ebp
  00001	8b ec		 mov	 ebp, esp

; 1286 : 		return (_Ptr < this->_Mylast && this->_Myfirst <= _Ptr);

  00003	8b 45 08	 mov	 eax, DWORD PTR __Ptr$[ebp]
  00006	3b 41 04	 cmp	 eax, DWORD PTR [ecx+4]
  00009	73 09		 jae	 SHORT $LN3@Inside@3
  0000b	39 01		 cmp	 DWORD PTR [ecx], eax
  0000d	77 05		 ja	 SHORT $LN3@Inside@3
  0000f	33 c0		 xor	 eax, eax
  00011	40		 inc	 eax
  00012	eb 02		 jmp	 SHORT $LN4@Inside@3
$LN3@Inside@3:
  00014	33 c0		 xor	 eax, eax
$LN4@Inside@3:

; 1287 : 		}

  00016	5d		 pop	 ebp
  00017	c2 04 00	 ret	 4
?_Inside@?$vector@UFishingTypeInfo@@V?$allocator@UFishingTypeInfo@@@std@@@std@@IBE_NPBUFishingTypeInfo@@@Z ENDP ; std::vector<FishingTypeInfo,std::allocator<FishingTypeInfo> >::_Inside
_TEXT	ENDS
PUBLIC	?_Orphan_range@?$vector@UFishingTypeInfo@@V?$allocator@UFishingTypeInfo@@@std@@@std@@IBEXPAUFishingTypeInfo@@0@Z ; std::vector<FishingTypeInfo,std::allocator<FishingTypeInfo> >::_Orphan_range
; Function compile flags: /Ogsp
;	COMDAT ?_Orphan_range@?$vector@UFishingTypeInfo@@V?$allocator@UFishingTypeInfo@@@std@@@std@@IBEXPAUFishingTypeInfo@@0@Z
_TEXT	SEGMENT
___formal$ = 8						; size = 4
___formal$ = 12						; size = 4
?_Orphan_range@?$vector@UFishingTypeInfo@@V?$allocator@UFishingTypeInfo@@@std@@@std@@IBEXPAUFishingTypeInfo@@0@Z PROC ; std::vector<FishingTypeInfo,std::allocator<FishingTypeInfo> >::_Orphan_range, COMDAT
; _this$ = ecx

; 1454 : 		}

  00000	c2 08 00	 ret	 8
?_Orphan_range@?$vector@UFishingTypeInfo@@V?$allocator@UFishingTypeInfo@@@std@@@std@@IBEXPAUFishingTypeInfo@@0@Z ENDP ; std::vector<FishingTypeInfo,std::allocator<FishingTypeInfo> >::_Orphan_range
_TEXT	ENDS
PUBLIC	??1?$_Vector_val@UFishingTypeInfo@@V?$allocator@UFishingTypeInfo@@@std@@@std@@QAE@XZ ; std::_Vector_val<FishingTypeInfo,std::allocator<FishingTypeInfo> >::~_Vector_val<FishingTypeInfo,std::allocator<FishingTypeInfo> >
; Function compile flags: /Ogsp
;	COMDAT ??1?$_Vector_val@UFishingTypeInfo@@V?$allocator@UFishingTypeInfo@@@std@@@std@@QAE@XZ
_TEXT	SEGMENT
??1?$_Vector_val@UFishingTypeInfo@@V?$allocator@UFishingTypeInfo@@@std@@@std@@QAE@XZ PROC ; std::_Vector_val<FishingTypeInfo,std::allocator<FishingTypeInfo> >::~_Vector_val<FishingTypeInfo,std::allocator<FishingTypeInfo> >, COMDAT
; _this$ = ecx

; 434  : 		}

  00000	c3		 ret	 0
??1?$_Vector_val@UFishingTypeInfo@@V?$allocator@UFishingTypeInfo@@@std@@@std@@QAE@XZ ENDP ; std::_Vector_val<FishingTypeInfo,std::allocator<FishingTypeInfo> >::~_Vector_val<FishingTypeInfo,std::allocator<FishingTypeInfo> >
_TEXT	ENDS
PUBLIC	??0?$allocator@UFishingTypeInfo@@@std@@QAE@XZ	; std::allocator<FishingTypeInfo>::allocator<FishingTypeInfo>
; Function compile flags: /Ogsp
; File c:\program files (x86)\microsoft visual studio 10.0\vc\include\xmemory
;	COMDAT ??0?$allocator@UFishingTypeInfo@@@std@@QAE@XZ
_TEXT	SEGMENT
??0?$allocator@UFishingTypeInfo@@@std@@QAE@XZ PROC	; std::allocator<FishingTypeInfo>::allocator<FishingTypeInfo>, COMDAT
; _this$ = ecx

; 161  : 	_ALLOCATOR() _THROW0()

  00000	8b c1		 mov	 eax, ecx

; 162  : 		{	// construct default allocator (do nothing)
; 163  : 		}

  00002	c3		 ret	 0
??0?$allocator@UFishingTypeInfo@@@std@@QAE@XZ ENDP	; std::allocator<FishingTypeInfo>::allocator<FishingTypeInfo>
_TEXT	ENDS
PUBLIC	??D?$_Vector_const_iterator@V?$_Vector_val@UFishingItem@@V?$allocator@UFishingItem@@@std@@@std@@@std@@QBEABUFishingItem@@XZ ; std::_Vector_const_iterator<std::_Vector_val<FishingItem,std::allocator<FishingItem> > >::operator*
; Function compile flags: /Ogsp
; File c:\program files (x86)\microsoft visual studio 10.0\vc\include\vector
;	COMDAT ??D?$_Vector_const_iterator@V?$_Vector_val@UFishingItem@@V?$allocator@UFishingItem@@@std@@@std@@@std@@QBEABUFishingItem@@XZ
_TEXT	SEGMENT
??D?$_Vector_const_iterator@V?$_Vector_val@UFishingItem@@V?$allocator@UFishingItem@@@std@@@std@@@std@@QBEABUFishingItem@@XZ PROC ; std::_Vector_const_iterator<std::_Vector_val<FishingItem,std::allocator<FishingItem> > >::operator*, COMDAT
; _this$ = ecx

; 64   :  #if _ITERATOR_DEBUG_LEVEL == 2
; 65   : 		if (this->_Getcont() == 0
; 66   : 			|| this->_Ptr == 0
; 67   : 			|| this->_Ptr < ((_Myvec *)this->_Getcont())->_Myfirst
; 68   : 			|| ((_Myvec *)this->_Getcont())->_Mylast <= this->_Ptr)
; 69   : 			{	// report error
; 70   : 			_DEBUG_ERROR("vector iterator not dereferencable");
; 71   : 			_SCL_SECURE_OUT_OF_RANGE;
; 72   : 			}
; 73   : 
; 74   :  #elif _ITERATOR_DEBUG_LEVEL == 1
; 75   : 		_SCL_SECURE_VALIDATE(this->_Getcont() != 0);
; 76   : 		_SCL_SECURE_VALIDATE_RANGE(
; 77   : 			this->_Ptr != 0
; 78   : 			&& ((_Myvec *)this->_Getcont())->_Myfirst <= this->_Ptr
; 79   : 			&& this->_Ptr < ((_Myvec *)this->_Getcont())->_Mylast);
; 80   :  #endif /* _ITERATOR_DEBUG_LEVEL */
; 81   : 
; 82   : 		__analysis_assume(this->_Ptr != 0);
; 83   : 
; 84   : 		return (*this->_Ptr);

  00000	8b 01		 mov	 eax, DWORD PTR [ecx]

; 85   : 		}

  00002	c3		 ret	 0
??D?$_Vector_const_iterator@V?$_Vector_val@UFishingItem@@V?$allocator@UFishingItem@@@std@@@std@@@std@@QBEABUFishingItem@@XZ ENDP ; std::_Vector_const_iterator<std::_Vector_val<FishingItem,std::allocator<FishingItem> > >::operator*
_TEXT	ENDS
PUBLIC	??E?$_Vector_const_iterator@V?$_Vector_val@UFishingItem@@V?$allocator@UFishingItem@@@std@@@std@@@std@@QAEAAV01@XZ ; std::_Vector_const_iterator<std::_Vector_val<FishingItem,std::allocator<FishingItem> > >::operator++
; Function compile flags: /Ogsp
;	COMDAT ??E?$_Vector_const_iterator@V?$_Vector_val@UFishingItem@@V?$allocator@UFishingItem@@@std@@@std@@@std@@QAEAAV01@XZ
_TEXT	SEGMENT
??E?$_Vector_const_iterator@V?$_Vector_val@UFishingItem@@V?$allocator@UFishingItem@@@std@@@std@@@std@@QAEAAV01@XZ PROC ; std::_Vector_const_iterator<std::_Vector_val<FishingItem,std::allocator<FishingItem> > >::operator++, COMDAT
; _this$ = ecx

; 93   : 		{	// preincrement

  00000	8b c1		 mov	 eax, ecx

; 94   :  #if _ITERATOR_DEBUG_LEVEL == 2
; 95   : 		if (this->_Getcont() == 0
; 96   : 			|| this->_Ptr == 0
; 97   : 			|| ((_Myvec *)this->_Getcont())->_Mylast <= this->_Ptr)
; 98   : 			{	// report error
; 99   : 			_DEBUG_ERROR("vector iterator not incrementable");
; 100  : 			_SCL_SECURE_OUT_OF_RANGE;
; 101  : 			}
; 102  : 
; 103  :  #elif _ITERATOR_DEBUG_LEVEL == 1
; 104  : 		_SCL_SECURE_VALIDATE(this->_Getcont() != 0);
; 105  : 		_SCL_SECURE_VALIDATE_RANGE(
; 106  : 			this->_Ptr != 0
; 107  : 			&& this->_Ptr < ((_Myvec *)this->_Getcont())->_Mylast);
; 108  :  #endif /* _ITERATOR_DEBUG_LEVEL */
; 109  : 
; 110  : 		++this->_Ptr;

  00002	83 00 40	 add	 DWORD PTR [eax], 64	; 00000040H

; 111  : 		return (*this);
; 112  : 		}

  00005	c3		 ret	 0
??E?$_Vector_const_iterator@V?$_Vector_val@UFishingItem@@V?$allocator@UFishingItem@@@std@@@std@@@std@@QAEAAV01@XZ ENDP ; std::_Vector_const_iterator<std::_Vector_val<FishingItem,std::allocator<FishingItem> > >::operator++
_TEXT	ENDS
PUBLIC	?capacity@?$vector@UFishingItem@@V?$allocator@UFishingItem@@@std@@@std@@QBEIXZ ; std::vector<FishingItem,std::allocator<FishingItem> >::capacity
; Function compile flags: /Ogsp
;	COMDAT ?capacity@?$vector@UFishingItem@@V?$allocator@UFishingItem@@@std@@@std@@QBEIXZ
_TEXT	SEGMENT
?capacity@?$vector@UFishingItem@@V?$allocator@UFishingItem@@@std@@@std@@QBEIXZ PROC ; std::vector<FishingItem,std::allocator<FishingItem> >::capacity, COMDAT
; _this$ = ecx

; 777  : 		return (this->_Myend - this->_Myfirst);

  00000	8b 41 08	 mov	 eax, DWORD PTR [ecx+8]
  00003	2b 01		 sub	 eax, DWORD PTR [ecx]
  00005	c1 f8 06	 sar	 eax, 6

; 778  : 		}

  00008	c3		 ret	 0
?capacity@?$vector@UFishingItem@@V?$allocator@UFishingItem@@@std@@@std@@QBEIXZ ENDP ; std::vector<FishingItem,std::allocator<FishingItem> >::capacity
_TEXT	ENDS
PUBLIC	?size@?$vector@UFishingItem@@V?$allocator@UFishingItem@@@std@@@std@@QBEIXZ ; std::vector<FishingItem,std::allocator<FishingItem> >::size
; Function compile flags: /Ogsp
;	COMDAT ?size@?$vector@UFishingItem@@V?$allocator@UFishingItem@@@std@@@std@@QBEIXZ
_TEXT	SEGMENT
?size@?$vector@UFishingItem@@V?$allocator@UFishingItem@@@std@@@std@@QBEIXZ PROC ; std::vector<FishingItem,std::allocator<FishingItem> >::size, COMDAT
; _this$ = ecx

; 879  : 		return (this->_Mylast - this->_Myfirst);

  00000	8b 41 04	 mov	 eax, DWORD PTR [ecx+4]
  00003	2b 01		 sub	 eax, DWORD PTR [ecx]
  00005	c1 f8 06	 sar	 eax, 6

; 880  : 		}

  00008	c3		 ret	 0
?size@?$vector@UFishingItem@@V?$allocator@UFishingItem@@@std@@@std@@QBEIXZ ENDP ; std::vector<FishingItem,std::allocator<FishingItem> >::size
_TEXT	ENDS
PUBLIC	??_C@_0BD@OLBABOEK@vector?$DMT?$DO?5too?5long?$AA@ ; `string'
PUBLIC	?_Xlen@?$vector@UFishingItem@@V?$allocator@UFishingItem@@@std@@@std@@IBEXXZ ; std::vector<FishingItem,std::allocator<FishingItem> >::_Xlen
EXTRN	__imp_?_Xlength_error@std@@YAXPBD@Z:PROC
;	COMDAT ??_C@_0BD@OLBABOEK@vector?$DMT?$DO?5too?5long?$AA@
CONST	SEGMENT
??_C@_0BD@OLBABOEK@vector?$DMT?$DO?5too?5long?$AA@ DB 'vector<T> too long'
	DB	00H						; `string'
; Function compile flags: /Ogsp
CONST	ENDS
;	COMDAT ?_Xlen@?$vector@UFishingItem@@V?$allocator@UFishingItem@@@std@@@std@@IBEXXZ
_TEXT	SEGMENT
?_Xlen@?$vector@UFishingItem@@V?$allocator@UFishingItem@@@std@@@std@@IBEXXZ PROC ; std::vector<FishingItem,std::allocator<FishingItem> >::_Xlen, COMDAT
; _this$ = ecx

; 1427 : 		_Xlength_error("vector<T> too long");

  00000	68 00 00 00 00	 push	 OFFSET ??_C@_0BD@OLBABOEK@vector?$DMT?$DO?5too?5long?$AA@
  00005	ff 15 00 00 00
	00		 call	 DWORD PTR __imp_?_Xlength_error@std@@YAXPBD@Z
$LN4@Xlen:
$LN3@Xlen:
  0000b	cc		 int	 3
?_Xlen@?$vector@UFishingItem@@V?$allocator@UFishingItem@@@std@@@std@@IBEXXZ ENDP ; std::vector<FishingItem,std::allocator<FishingItem> >::_Xlen
_TEXT	ENDS
PUBLIC	??0?$allocator@UFishingItem@@@std@@QAE@ABV01@@Z	; std::allocator<FishingItem>::allocator<FishingItem>
; Function compile flags: /Ogsp
; File c:\program files (x86)\microsoft visual studio 10.0\vc\include\xmemory
;	COMDAT ??0?$allocator@UFishingItem@@@std@@QAE@ABV01@@Z
_TEXT	SEGMENT
___formal$ = 8						; size = 4
??0?$allocator@UFishingItem@@@std@@QAE@ABV01@@Z PROC	; std::allocator<FishingItem>::allocator<FishingItem>, COMDAT
; _this$ = ecx

; 165  : 	_ALLOCATOR(const _ALLOCATOR<_Ty>&) _THROW0()

  00000	8b c1		 mov	 eax, ecx

; 166  : 		{	// construct by copying (do nothing)
; 167  : 		}

  00002	c2 04 00	 ret	 4
??0?$allocator@UFishingItem@@@std@@QAE@ABV01@@Z ENDP	; std::allocator<FishingItem>::allocator<FishingItem>
_TEXT	ENDS
PUBLIC	?deallocate@?$allocator@UFishingItem@@@std@@QAEXPAUFishingItem@@I@Z ; std::allocator<FishingItem>::deallocate
; Function compile flags: /Ogsp
;	COMDAT ?deallocate@?$allocator@UFishingItem@@@std@@QAEXPAUFishingItem@@I@Z
_TEXT	SEGMENT
__Ptr$ = 8						; size = 4
___formal$ = 12						; size = 4
?deallocate@?$allocator@UFishingItem@@@std@@QAEXPAUFishingItem@@I@Z PROC ; std::allocator<FishingItem>::deallocate, COMDAT
; _this$ = ecx

; 181  : 		{	// deallocate object at _Ptr, ignore size

  00000	55		 push	 ebp
  00001	8b ec		 mov	 ebp, esp

; 182  : 		::operator delete(_Ptr);

  00003	ff 75 08	 push	 DWORD PTR __Ptr$[ebp]
  00006	e8 00 00 00 00	 call	 ??3@YAXPAX@Z		; operator delete
  0000b	59		 pop	 ecx

; 183  : 		}

  0000c	5d		 pop	 ebp
  0000d	c2 08 00	 ret	 8
?deallocate@?$allocator@UFishingItem@@@std@@QAEXPAUFishingItem@@I@Z ENDP ; std::allocator<FishingItem>::deallocate
_TEXT	ENDS
PUBLIC	?capacity@?$vector@UFishingItemGrade@@V?$allocator@UFishingItemGrade@@@std@@@std@@QBEIXZ ; std::vector<FishingItemGrade,std::allocator<FishingItemGrade> >::capacity
; Function compile flags: /Ogsp
; File c:\program files (x86)\microsoft visual studio 10.0\vc\include\vector
;	COMDAT ?capacity@?$vector@UFishingItemGrade@@V?$allocator@UFishingItemGrade@@@std@@@std@@QBEIXZ
_TEXT	SEGMENT
?capacity@?$vector@UFishingItemGrade@@V?$allocator@UFishingItemGrade@@@std@@@std@@QBEIXZ PROC ; std::vector<FishingItemGrade,std::allocator<FishingItemGrade> >::capacity, COMDAT
; _this$ = ecx

; 777  : 		return (this->_Myend - this->_Myfirst);

  00000	8b 41 08	 mov	 eax, DWORD PTR [ecx+8]
  00003	2b 01		 sub	 eax, DWORD PTR [ecx]
  00005	6a 28		 push	 40			; 00000028H
  00007	99		 cdq
  00008	59		 pop	 ecx
  00009	f7 f9		 idiv	 ecx

; 778  : 		}

  0000b	c3		 ret	 0
?capacity@?$vector@UFishingItemGrade@@V?$allocator@UFishingItemGrade@@@std@@@std@@QBEIXZ ENDP ; std::vector<FishingItemGrade,std::allocator<FishingItemGrade> >::capacity
_TEXT	ENDS
PUBLIC	?_Xlen@?$vector@UFishingItemGrade@@V?$allocator@UFishingItemGrade@@@std@@@std@@IBEXXZ ; std::vector<FishingItemGrade,std::allocator<FishingItemGrade> >::_Xlen
; Function compile flags: /Ogsp
;	COMDAT ?_Xlen@?$vector@UFishingItemGrade@@V?$allocator@UFishingItemGrade@@@std@@@std@@IBEXXZ
_TEXT	SEGMENT
?_Xlen@?$vector@UFishingItemGrade@@V?$allocator@UFishingItemGrade@@@std@@@std@@IBEXXZ PROC ; std::vector<FishingItemGrade,std::allocator<FishingItemGrade> >::_Xlen, COMDAT
; _this$ = ecx

; 1427 : 		_Xlength_error("vector<T> too long");

  00000	68 00 00 00 00	 push	 OFFSET ??_C@_0BD@OLBABOEK@vector?$DMT?$DO?5too?5long?$AA@
  00005	ff 15 00 00 00
	00		 call	 DWORD PTR __imp_?_Xlength_error@std@@YAXPBD@Z
$LN4@Xlen@2:
$LN3@Xlen@2:
  0000b	cc		 int	 3
?_Xlen@?$vector@UFishingItemGrade@@V?$allocator@UFishingItemGrade@@@std@@@std@@IBEXXZ ENDP ; std::vector<FishingItemGrade,std::allocator<FishingItemGrade> >::_Xlen
_TEXT	ENDS
PUBLIC	??0?$allocator@UFishingItemGrade@@@std@@QAE@ABV01@@Z ; std::allocator<FishingItemGrade>::allocator<FishingItemGrade>
; Function compile flags: /Ogsp
; File c:\program files (x86)\microsoft visual studio 10.0\vc\include\xmemory
;	COMDAT ??0?$allocator@UFishingItemGrade@@@std@@QAE@ABV01@@Z
_TEXT	SEGMENT
___formal$ = 8						; size = 4
??0?$allocator@UFishingItemGrade@@@std@@QAE@ABV01@@Z PROC ; std::allocator<FishingItemGrade>::allocator<FishingItemGrade>, COMDAT
; _this$ = ecx

; 165  : 	_ALLOCATOR(const _ALLOCATOR<_Ty>&) _THROW0()

  00000	8b c1		 mov	 eax, ecx

; 166  : 		{	// construct by copying (do nothing)
; 167  : 		}

  00002	c2 04 00	 ret	 4
??0?$allocator@UFishingItemGrade@@@std@@QAE@ABV01@@Z ENDP ; std::allocator<FishingItemGrade>::allocator<FishingItemGrade>
_TEXT	ENDS
PUBLIC	?deallocate@?$allocator@UFishingItemGrade@@@std@@QAEXPAUFishingItemGrade@@I@Z ; std::allocator<FishingItemGrade>::deallocate
; Function compile flags: /Ogsp
;	COMDAT ?deallocate@?$allocator@UFishingItemGrade@@@std@@QAEXPAUFishingItemGrade@@I@Z
_TEXT	SEGMENT
__Ptr$ = 8						; size = 4
___formal$ = 12						; size = 4
?deallocate@?$allocator@UFishingItemGrade@@@std@@QAEXPAUFishingItemGrade@@I@Z PROC ; std::allocator<FishingItemGrade>::deallocate, COMDAT
; _this$ = ecx

; 181  : 		{	// deallocate object at _Ptr, ignore size

  00000	55		 push	 ebp
  00001	8b ec		 mov	 ebp, esp

; 182  : 		::operator delete(_Ptr);

  00003	ff 75 08	 push	 DWORD PTR __Ptr$[ebp]
  00006	e8 00 00 00 00	 call	 ??3@YAXPAX@Z		; operator delete
  0000b	59		 pop	 ecx

; 183  : 		}

  0000c	5d		 pop	 ebp
  0000d	c2 08 00	 ret	 8
?deallocate@?$allocator@UFishingItemGrade@@@std@@QAEXPAUFishingItemGrade@@I@Z ENDP ; std::allocator<FishingItemGrade>::deallocate
_TEXT	ENDS
PUBLIC	?capacity@?$vector@UFishingTypeInfo@@V?$allocator@UFishingTypeInfo@@@std@@@std@@QBEIXZ ; std::vector<FishingTypeInfo,std::allocator<FishingTypeInfo> >::capacity
; Function compile flags: /Ogsp
; File c:\program files (x86)\microsoft visual studio 10.0\vc\include\vector
;	COMDAT ?capacity@?$vector@UFishingTypeInfo@@V?$allocator@UFishingTypeInfo@@@std@@@std@@QBEIXZ
_TEXT	SEGMENT
?capacity@?$vector@UFishingTypeInfo@@V?$allocator@UFishingTypeInfo@@@std@@@std@@QBEIXZ PROC ; std::vector<FishingTypeInfo,std::allocator<FishingTypeInfo> >::capacity, COMDAT
; _this$ = ecx

; 777  : 		return (this->_Myend - this->_Myfirst);

  00000	8b 41 08	 mov	 eax, DWORD PTR [ecx+8]
  00003	2b 01		 sub	 eax, DWORD PTR [ecx]
  00005	c1 f8 06	 sar	 eax, 6

; 778  : 		}

  00008	c3		 ret	 0
?capacity@?$vector@UFishingTypeInfo@@V?$allocator@UFishingTypeInfo@@@std@@@std@@QBEIXZ ENDP ; std::vector<FishingTypeInfo,std::allocator<FishingTypeInfo> >::capacity
_TEXT	ENDS
PUBLIC	?_Xlen@?$vector@UFishingTypeInfo@@V?$allocator@UFishingTypeInfo@@@std@@@std@@IBEXXZ ; std::vector<FishingTypeInfo,std::allocator<FishingTypeInfo> >::_Xlen
; Function compile flags: /Ogsp
;	COMDAT ?_Xlen@?$vector@UFishingTypeInfo@@V?$allocator@UFishingTypeInfo@@@std@@@std@@IBEXXZ
_TEXT	SEGMENT
?_Xlen@?$vector@UFishingTypeInfo@@V?$allocator@UFishingTypeInfo@@@std@@@std@@IBEXXZ PROC ; std::vector<FishingTypeInfo,std::allocator<FishingTypeInfo> >::_Xlen, COMDAT
; _this$ = ecx

; 1427 : 		_Xlength_error("vector<T> too long");

  00000	68 00 00 00 00	 push	 OFFSET ??_C@_0BD@OLBABOEK@vector?$DMT?$DO?5too?5long?$AA@
  00005	ff 15 00 00 00
	00		 call	 DWORD PTR __imp_?_Xlength_error@std@@YAXPBD@Z
$LN4@Xlen@3:
$LN3@Xlen@3:
  0000b	cc		 int	 3
?_Xlen@?$vector@UFishingTypeInfo@@V?$allocator@UFishingTypeInfo@@@std@@@std@@IBEXXZ ENDP ; std::vector<FishingTypeInfo,std::allocator<FishingTypeInfo> >::_Xlen
_TEXT	ENDS
PUBLIC	??0?$allocator@UFishingTypeInfo@@@std@@QAE@ABV01@@Z ; std::allocator<FishingTypeInfo>::allocator<FishingTypeInfo>
; Function compile flags: /Ogsp
; File c:\program files (x86)\microsoft visual studio 10.0\vc\include\xmemory
;	COMDAT ??0?$allocator@UFishingTypeInfo@@@std@@QAE@ABV01@@Z
_TEXT	SEGMENT
___formal$ = 8						; size = 4
??0?$allocator@UFishingTypeInfo@@@std@@QAE@ABV01@@Z PROC ; std::allocator<FishingTypeInfo>::allocator<FishingTypeInfo>, COMDAT
; _this$ = ecx

; 165  : 	_ALLOCATOR(const _ALLOCATOR<_Ty>&) _THROW0()

  00000	8b c1		 mov	 eax, ecx

; 166  : 		{	// construct by copying (do nothing)
; 167  : 		}

  00002	c2 04 00	 ret	 4
??0?$allocator@UFishingTypeInfo@@@std@@QAE@ABV01@@Z ENDP ; std::allocator<FishingTypeInfo>::allocator<FishingTypeInfo>
_TEXT	ENDS
PUBLIC	?deallocate@?$allocator@UFishingTypeInfo@@@std@@QAEXPAUFishingTypeInfo@@I@Z ; std::allocator<FishingTypeInfo>::deallocate
; Function compile flags: /Ogsp
;	COMDAT ?deallocate@?$allocator@UFishingTypeInfo@@@std@@QAEXPAUFishingTypeInfo@@I@Z
_TEXT	SEGMENT
__Ptr$ = 8						; size = 4
___formal$ = 12						; size = 4
?deallocate@?$allocator@UFishingTypeInfo@@@std@@QAEXPAUFishingTypeInfo@@I@Z PROC ; std::allocator<FishingTypeInfo>::deallocate, COMDAT
; _this$ = ecx

; 181  : 		{	// deallocate object at _Ptr, ignore size

  00000	55		 push	 ebp
  00001	8b ec		 mov	 ebp, esp

; 182  : 		::operator delete(_Ptr);

  00003	ff 75 08	 push	 DWORD PTR __Ptr$[ebp]
  00006	e8 00 00 00 00	 call	 ??3@YAXPAX@Z		; operator delete
  0000b	59		 pop	 ecx

; 183  : 		}

  0000c	5d		 pop	 ebp
  0000d	c2 08 00	 ret	 8
?deallocate@?$allocator@UFishingTypeInfo@@@std@@QAEXPAUFishingTypeInfo@@I@Z ENDP ; std::allocator<FishingTypeInfo>::deallocate
_TEXT	ENDS
PUBLIC	??0?$_Vector_const_iterator@V?$_Vector_val@UFishingItem@@V?$allocator@UFishingItem@@@std@@@std@@@std@@QAE@PAUFishingItem@@PBU_Container_base0@1@@Z ; std::_Vector_const_iterator<std::_Vector_val<FishingItem,std::allocator<FishingItem> > >::_Vector_const_iterator<std::_Vector_val<FishingItem,std::allocator<FishingItem> > >
; Function compile flags: /Ogsp
; File c:\program files (x86)\microsoft visual studio 10.0\vc\include\vector
;	COMDAT ??0?$_Vector_const_iterator@V?$_Vector_val@UFishingItem@@V?$allocator@UFishingItem@@@std@@@std@@@std@@QAE@PAUFishingItem@@PBU_Container_base0@1@@Z
_TEXT	SEGMENT
__Parg$ = 8						; size = 4
__Pvector$ = 12						; size = 4
??0?$_Vector_const_iterator@V?$_Vector_val@UFishingItem@@V?$allocator@UFishingItem@@@std@@@std@@@std@@QAE@PAUFishingItem@@PBU_Container_base0@1@@Z PROC ; std::_Vector_const_iterator<std::_Vector_val<FishingItem,std::allocator<FishingItem> > >::_Vector_const_iterator<std::_Vector_val<FishingItem,std::allocator<FishingItem> > >, COMDAT
; _this$ = ecx

; 45   : 		{	// construct with pointer _Parg

  00000	55		 push	 ebp
  00001	8b ec		 mov	 ebp, esp
  00003	8b c1		 mov	 eax, ecx
  00005	8b 4d 08	 mov	 ecx, DWORD PTR __Parg$[ebp]
  00008	89 08		 mov	 DWORD PTR [eax], ecx

; 46   : 		this->_Adopt(_Pvector);
; 47   : 		}

  0000a	5d		 pop	 ebp
  0000b	c2 08 00	 ret	 8
??0?$_Vector_const_iterator@V?$_Vector_val@UFishingItem@@V?$allocator@UFishingItem@@@std@@@std@@@std@@QAE@PAUFishingItem@@PBU_Container_base0@1@@Z ENDP ; std::_Vector_const_iterator<std::_Vector_val<FishingItem,std::allocator<FishingItem> > >::_Vector_const_iterator<std::_Vector_val<FishingItem,std::allocator<FishingItem> > >
_TEXT	ENDS
PUBLIC	?_Compat@?$_Vector_const_iterator@V?$_Vector_val@UFishingItem@@V?$allocator@UFishingItem@@@std@@@std@@@std@@QBEXABV12@@Z ; std::_Vector_const_iterator<std::_Vector_val<FishingItem,std::allocator<FishingItem> > >::_Compat
; Function compile flags: /Ogsp
;	COMDAT ?_Compat@?$_Vector_const_iterator@V?$_Vector_val@UFishingItem@@V?$allocator@UFishingItem@@@std@@@std@@@std@@QBEXABV12@@Z
_TEXT	SEGMENT
___formal$ = 8						; size = 4
?_Compat@?$_Vector_const_iterator@V?$_Vector_val@UFishingItem@@V?$allocator@UFishingItem@@@std@@@std@@@std@@QBEXABV12@@Z PROC ; std::_Vector_const_iterator<std::_Vector_val<FishingItem,std::allocator<FishingItem> > >::_Compat, COMDAT
; _this$ = ecx

; 253  : 		}

  00000	c2 04 00	 ret	 4
?_Compat@?$_Vector_const_iterator@V?$_Vector_val@UFishingItem@@V?$allocator@UFishingItem@@@std@@@std@@@std@@QBEXABV12@@Z ENDP ; std::_Vector_const_iterator<std::_Vector_val<FishingItem,std::allocator<FishingItem> > >::_Compat
_TEXT	ENDS
PUBLIC	?max_size@?$allocator@UFishingItem@@@std@@QBEIXZ ; std::allocator<FishingItem>::max_size
; Function compile flags: /Ogsp
; File c:\program files (x86)\microsoft visual studio 10.0\vc\include\xmemory
;	COMDAT ?max_size@?$allocator@UFishingItem@@@std@@QBEIXZ
_TEXT	SEGMENT
?max_size@?$allocator@UFishingItem@@@std@@QBEIXZ PROC	; std::allocator<FishingItem>::max_size, COMDAT
; _this$ = ecx

; 218  : 		_SIZT _Count = (_SIZT)(-1) / sizeof (_Ty);
; 219  : 		return (0 < _Count ? _Count : 1);

  00000	b8 ff ff ff 03	 mov	 eax, 67108863		; 03ffffffH

; 220  : 		}

  00005	c3		 ret	 0
?max_size@?$allocator@UFishingItem@@@std@@QBEIXZ ENDP	; std::allocator<FishingItem>::max_size
_TEXT	ENDS
PUBLIC	?max_size@?$allocator@UFishingItemGrade@@@std@@QBEIXZ ; std::allocator<FishingItemGrade>::max_size
; Function compile flags: /Ogsp
;	COMDAT ?max_size@?$allocator@UFishingItemGrade@@@std@@QBEIXZ
_TEXT	SEGMENT
?max_size@?$allocator@UFishingItemGrade@@@std@@QBEIXZ PROC ; std::allocator<FishingItemGrade>::max_size, COMDAT
; _this$ = ecx

; 218  : 		_SIZT _Count = (_SIZT)(-1) / sizeof (_Ty);
; 219  : 		return (0 < _Count ? _Count : 1);

  00000	b8 66 66 66 06	 mov	 eax, 107374182		; 06666666H

; 220  : 		}

  00005	c3		 ret	 0
?max_size@?$allocator@UFishingItemGrade@@@std@@QBEIXZ ENDP ; std::allocator<FishingItemGrade>::max_size
_TEXT	ENDS
PUBLIC	?max_size@?$allocator@UFishingTypeInfo@@@std@@QBEIXZ ; std::allocator<FishingTypeInfo>::max_size
; Function compile flags: /Ogsp
;	COMDAT ?max_size@?$allocator@UFishingTypeInfo@@@std@@QBEIXZ
_TEXT	SEGMENT
?max_size@?$allocator@UFishingTypeInfo@@@std@@QBEIXZ PROC ; std::allocator<FishingTypeInfo>::max_size, COMDAT
; _this$ = ecx

; 218  : 		_SIZT _Count = (_SIZT)(-1) / sizeof (_Ty);
; 219  : 		return (0 < _Count ? _Count : 1);

  00000	b8 ff ff ff 03	 mov	 eax, 67108863		; 03ffffffH

; 220  : 		}

  00005	c3		 ret	 0
?max_size@?$allocator@UFishingTypeInfo@@@std@@QBEIXZ ENDP ; std::allocator<FishingTypeInfo>::max_size
_TEXT	ENDS
PUBLIC	??0?$_Vector_const_iterator@V?$_Vector_val@UFishingItemGrade@@V?$allocator@UFishingItemGrade@@@std@@@std@@@std@@QAE@PAUFishingItemGrade@@PBU_Container_base0@1@@Z ; std::_Vector_const_iterator<std::_Vector_val<FishingItemGrade,std::allocator<FishingItemGrade> > >::_Vector_const_iterator<std::_Vector_val<FishingItemGrade,std::allocator<FishingItemGrade> > >
; Function compile flags: /Ogsp
; File c:\program files (x86)\microsoft visual studio 10.0\vc\include\vector
;	COMDAT ??0?$_Vector_const_iterator@V?$_Vector_val@UFishingItemGrade@@V?$allocator@UFishingItemGrade@@@std@@@std@@@std@@QAE@PAUFishingItemGrade@@PBU_Container_base0@1@@Z
_TEXT	SEGMENT
__Parg$ = 8						; size = 4
__Pvector$ = 12						; size = 4
??0?$_Vector_const_iterator@V?$_Vector_val@UFishingItemGrade@@V?$allocator@UFishingItemGrade@@@std@@@std@@@std@@QAE@PAUFishingItemGrade@@PBU_Container_base0@1@@Z PROC ; std::_Vector_const_iterator<std::_Vector_val<FishingItemGrade,std::allocator<FishingItemGrade> > >::_Vector_const_iterator<std::_Vector_val<FishingItemGrade,std::allocator<FishingItemGrade> > >, COMDAT
; _this$ = ecx

; 45   : 		{	// construct with pointer _Parg

  00000	55		 push	 ebp
  00001	8b ec		 mov	 ebp, esp
  00003	8b c1		 mov	 eax, ecx
  00005	8b 4d 08	 mov	 ecx, DWORD PTR __Parg$[ebp]
  00008	89 08		 mov	 DWORD PTR [eax], ecx

; 46   : 		this->_Adopt(_Pvector);
; 47   : 		}

  0000a	5d		 pop	 ebp
  0000b	c2 08 00	 ret	 8
??0?$_Vector_const_iterator@V?$_Vector_val@UFishingItemGrade@@V?$allocator@UFishingItemGrade@@@std@@@std@@@std@@QAE@PAUFishingItemGrade@@PBU_Container_base0@1@@Z ENDP ; std::_Vector_const_iterator<std::_Vector_val<FishingItemGrade,std::allocator<FishingItemGrade> > >::_Vector_const_iterator<std::_Vector_val<FishingItemGrade,std::allocator<FishingItemGrade> > >
_TEXT	ENDS
PUBLIC	??0?$_Vector_const_iterator@V?$_Vector_val@UFishingTypeInfo@@V?$allocator@UFishingTypeInfo@@@std@@@std@@@std@@QAE@PAUFishingTypeInfo@@PBU_Container_base0@1@@Z ; std::_Vector_const_iterator<std::_Vector_val<FishingTypeInfo,std::allocator<FishingTypeInfo> > >::_Vector_const_iterator<std::_Vector_val<FishingTypeInfo,std::allocator<FishingTypeInfo> > >
; Function compile flags: /Ogsp
;	COMDAT ??0?$_Vector_const_iterator@V?$_Vector_val@UFishingTypeInfo@@V?$allocator@UFishingTypeInfo@@@std@@@std@@@std@@QAE@PAUFishingTypeInfo@@PBU_Container_base0@1@@Z
_TEXT	SEGMENT
__Parg$ = 8						; size = 4
__Pvector$ = 12						; size = 4
??0?$_Vector_const_iterator@V?$_Vector_val@UFishingTypeInfo@@V?$allocator@UFishingTypeInfo@@@std@@@std@@@std@@QAE@PAUFishingTypeInfo@@PBU_Container_base0@1@@Z PROC ; std::_Vector_const_iterator<std::_Vector_val<FishingTypeInfo,std::allocator<FishingTypeInfo> > >::_Vector_const_iterator<std::_Vector_val<FishingTypeInfo,std::allocator<FishingTypeInfo> > >, COMDAT
; _this$ = ecx

; 45   : 		{	// construct with pointer _Parg

  00000	55		 push	 ebp
  00001	8b ec		 mov	 ebp, esp
  00003	8b c1		 mov	 eax, ecx
  00005	8b 4d 08	 mov	 ecx, DWORD PTR __Parg$[ebp]
  00008	89 08		 mov	 DWORD PTR [eax], ecx

; 46   : 		this->_Adopt(_Pvector);
; 47   : 		}

  0000a	5d		 pop	 ebp
  0000b	c2 08 00	 ret	 8
??0?$_Vector_const_iterator@V?$_Vector_val@UFishingTypeInfo@@V?$allocator@UFishingTypeInfo@@@std@@@std@@@std@@QAE@PAUFishingTypeInfo@@PBU_Container_base0@1@@Z ENDP ; std::_Vector_const_iterator<std::_Vector_val<FishingTypeInfo,std::allocator<FishingTypeInfo> > >::_Vector_const_iterator<std::_Vector_val<FishingTypeInfo,std::allocator<FishingTypeInfo> > >
_TEXT	ENDS
PUBLIC	?_Compat@?$_Vector_const_iterator@V?$_Vector_val@UFishingItemGrade@@V?$allocator@UFishingItemGrade@@@std@@@std@@@std@@QBEXABV12@@Z ; std::_Vector_const_iterator<std::_Vector_val<FishingItemGrade,std::allocator<FishingItemGrade> > >::_Compat
; Function compile flags: /Ogsp
;	COMDAT ?_Compat@?$_Vector_const_iterator@V?$_Vector_val@UFishingItemGrade@@V?$allocator@UFishingItemGrade@@@std@@@std@@@std@@QBEXABV12@@Z
_TEXT	SEGMENT
___formal$ = 8						; size = 4
?_Compat@?$_Vector_const_iterator@V?$_Vector_val@UFishingItemGrade@@V?$allocator@UFishingItemGrade@@@std@@@std@@@std@@QBEXABV12@@Z PROC ; std::_Vector_const_iterator<std::_Vector_val<FishingItemGrade,std::allocator<FishingItemGrade> > >::_Compat, COMDAT
; _this$ = ecx

; 253  : 		}

  00000	c2 04 00	 ret	 4
?_Compat@?$_Vector_const_iterator@V?$_Vector_val@UFishingItemGrade@@V?$allocator@UFishingItemGrade@@@std@@@std@@@std@@QBEXABV12@@Z ENDP ; std::_Vector_const_iterator<std::_Vector_val<FishingItemGrade,std::allocator<FishingItemGrade> > >::_Compat
_TEXT	ENDS
PUBLIC	?_Compat@?$_Vector_const_iterator@V?$_Vector_val@UFishingTypeInfo@@V?$allocator@UFishingTypeInfo@@@std@@@std@@@std@@QBEXABV12@@Z ; std::_Vector_const_iterator<std::_Vector_val<FishingTypeInfo,std::allocator<FishingTypeInfo> > >::_Compat
; Function compile flags: /Ogsp
;	COMDAT ?_Compat@?$_Vector_const_iterator@V?$_Vector_val@UFishingTypeInfo@@V?$allocator@UFishingTypeInfo@@@std@@@std@@@std@@QBEXABV12@@Z
_TEXT	SEGMENT
___formal$ = 8						; size = 4
?_Compat@?$_Vector_const_iterator@V?$_Vector_val@UFishingTypeInfo@@V?$allocator@UFishingTypeInfo@@@std@@@std@@@std@@QBEXABV12@@Z PROC ; std::_Vector_const_iterator<std::_Vector_val<FishingTypeInfo,std::allocator<FishingTypeInfo> > >::_Compat, COMDAT
; _this$ = ecx

; 253  : 		}

  00000	c2 04 00	 ret	 4
?_Compat@?$_Vector_const_iterator@V?$_Vector_val@UFishingTypeInfo@@V?$allocator@UFishingTypeInfo@@@std@@@std@@@std@@QBEXABV12@@Z ENDP ; std::_Vector_const_iterator<std::_Vector_val<FishingTypeInfo,std::allocator<FishingTypeInfo> > >::_Compat
_TEXT	ENDS
PUBLIC	??$addressof@$$CBUFishingItem@@@std@@YAPBUFishingItem@@ABU1@@Z ; std::addressof<FishingItem const >
; Function compile flags: /Ogsp
; File c:\program files (x86)\microsoft visual studio 10.0\vc\include\xmemory
;	COMDAT ??$addressof@$$CBUFishingItem@@@std@@YAPBUFishingItem@@ABU1@@Z
_TEXT	SEGMENT
__Val$ = 8						; size = 4
??$addressof@$$CBUFishingItem@@@std@@YAPBUFishingItem@@ABU1@@Z PROC ; std::addressof<FishingItem const >, COMDAT

; 110  : 	{	// return address of _Val

  00000	55		 push	 ebp
  00001	8b ec		 mov	 ebp, esp

; 111  : 	return ((_Ty *) &(char&)_Val);

  00003	8b 45 08	 mov	 eax, DWORD PTR __Val$[ebp]

; 112  : 	}

  00006	5d		 pop	 ebp
  00007	c3		 ret	 0
??$addressof@$$CBUFishingItem@@@std@@YAPBUFishingItem@@ABU1@@Z ENDP ; std::addressof<FishingItem const >
_TEXT	ENDS
PUBLIC	??$addressof@$$CBUFishingItemGrade@@@std@@YAPBUFishingItemGrade@@ABU1@@Z ; std::addressof<FishingItemGrade const >
; Function compile flags: /Ogsp
;	COMDAT ??$addressof@$$CBUFishingItemGrade@@@std@@YAPBUFishingItemGrade@@ABU1@@Z
_TEXT	SEGMENT
__Val$ = 8						; size = 4
??$addressof@$$CBUFishingItemGrade@@@std@@YAPBUFishingItemGrade@@ABU1@@Z PROC ; std::addressof<FishingItemGrade const >, COMDAT

; 110  : 	{	// return address of _Val

  00000	55		 push	 ebp
  00001	8b ec		 mov	 ebp, esp

; 111  : 	return ((_Ty *) &(char&)_Val);

  00003	8b 45 08	 mov	 eax, DWORD PTR __Val$[ebp]

; 112  : 	}

  00006	5d		 pop	 ebp
  00007	c3		 ret	 0
??$addressof@$$CBUFishingItemGrade@@@std@@YAPBUFishingItemGrade@@ABU1@@Z ENDP ; std::addressof<FishingItemGrade const >
_TEXT	ENDS
PUBLIC	??$addressof@$$CBUFishingTypeInfo@@@std@@YAPBUFishingTypeInfo@@ABU1@@Z ; std::addressof<FishingTypeInfo const >
; Function compile flags: /Ogsp
;	COMDAT ??$addressof@$$CBUFishingTypeInfo@@@std@@YAPBUFishingTypeInfo@@ABU1@@Z
_TEXT	SEGMENT
__Val$ = 8						; size = 4
??$addressof@$$CBUFishingTypeInfo@@@std@@YAPBUFishingTypeInfo@@ABU1@@Z PROC ; std::addressof<FishingTypeInfo const >, COMDAT

; 110  : 	{	// return address of _Val

  00000	55		 push	 ebp
  00001	8b ec		 mov	 ebp, esp

; 111  : 	return ((_Ty *) &(char&)_Val);

  00003	8b 45 08	 mov	 eax, DWORD PTR __Val$[ebp]

; 112  : 	}

  00006	5d		 pop	 ebp
  00007	c3		 ret	 0
??$addressof@$$CBUFishingTypeInfo@@@std@@YAPBUFishingTypeInfo@@ABU1@@Z ENDP ; std::addressof<FishingTypeInfo const >
_TEXT	ENDS
PUBLIC	__TI2?AVbad_alloc@std@@
PUBLIC	??$_Allocate@UFishingItem@@@std@@YAPAUFishingItem@@IPAU1@@Z ; std::_Allocate<FishingItem>
PUBLIC	__CTA2?AVbad_alloc@std@@
PUBLIC	__CT??_R0?AVbad_alloc@std@@@8??0bad_alloc@std@@QAE@ABV01@@Z12
PUBLIC	??0bad_alloc@std@@QAE@ABV01@@Z			; std::bad_alloc::bad_alloc
PUBLIC	__CT??_R0?AVexception@std@@@8??0exception@std@@QAE@ABV01@@Z12
EXTRN	??2@YAPAXI@Z:PROC				; operator new
EXTRN	__CxxThrowException@8:PROC
EXTRN	??0exception@std@@QAE@ABV01@@Z:PROC		; std::exception::exception
;	COMDAT __CT??_R0?AVexception@std@@@8??0exception@std@@QAE@ABV01@@Z12
; File c:\program files (x86)\microsoft visual studio 10.0\vc\include\exception
xdata$x	SEGMENT
__CT??_R0?AVexception@std@@@8??0exception@std@@QAE@ABV01@@Z12 DD 00H
	DD	FLAT:??_R0?AVexception@std@@@8
	DD	00H
	DD	0ffffffffH
	ORG $+4
	DD	0cH
	DD	FLAT:??0exception@std@@QAE@ABV01@@Z
xdata$x	ENDS
;	COMDAT __CT??_R0?AVbad_alloc@std@@@8??0bad_alloc@std@@QAE@ABV01@@Z12
xdata$x	SEGMENT
__CT??_R0?AVbad_alloc@std@@@8??0bad_alloc@std@@QAE@ABV01@@Z12 DD 00H
	DD	FLAT:??_R0?AVbad_alloc@std@@@8
	DD	00H
	DD	0ffffffffH
	ORG $+4
	DD	0cH
	DD	FLAT:??0bad_alloc@std@@QAE@ABV01@@Z
xdata$x	ENDS
;	COMDAT __CTA2?AVbad_alloc@std@@
xdata$x	SEGMENT
__CTA2?AVbad_alloc@std@@ DD 02H
	DD	FLAT:__CT??_R0?AVbad_alloc@std@@@8??0bad_alloc@std@@QAE@ABV01@@Z12
	DD	FLAT:__CT??_R0?AVexception@std@@@8??0exception@std@@QAE@ABV01@@Z12
xdata$x	ENDS
;	COMDAT __TI2?AVbad_alloc@std@@
xdata$x	SEGMENT
__TI2?AVbad_alloc@std@@ DD 00H
	DD	FLAT:??1bad_alloc@std@@UAE@XZ
	DD	00H
	DD	FLAT:__CTA2?AVbad_alloc@std@@
; Function compile flags: /Ogsp
; File c:\program files (x86)\microsoft visual studio 10.0\vc\include\xmemory
xdata$x	ENDS
;	COMDAT ??$_Allocate@UFishingItem@@@std@@YAPAUFishingItem@@IPAU1@@Z
_TEXT	SEGMENT
$T512560 = -12						; size = 12
$T512565 = 8						; size = 4
__Count$ = 8						; size = 4
___formal$ = 12						; size = 4
??$_Allocate@UFishingItem@@@std@@YAPAUFishingItem@@IPAU1@@Z PROC ; std::_Allocate<FishingItem>, COMDAT

; 30   : 	{	// allocate storage for _Count elements of type _Ty

  00000	55		 push	 ebp
  00001	8b ec		 mov	 ebp, esp

; 31   : 	void *_Ptr = 0;
; 32   : 
; 33   : 	if (_Count <= 0)

  00003	8b 4d 08	 mov	 ecx, DWORD PTR __Count$[ebp]
  00006	83 ec 0c	 sub	 esp, 12			; 0000000cH
  00009	33 c0		 xor	 eax, eax
  0000b	85 c9		 test	 ecx, ecx

; 34   : 		_Count = 0;
; 35   : 	else if (((_SIZT)(-1) / sizeof (_Ty) < _Count)

  0000d	74 3c		 je	 SHORT $LN5@Allocate

; 36   : 		|| (_Ptr = ::operator new(_Count * sizeof (_Ty))) == 0)

  0000f	81 f9 ff ff ff
	03		 cmp	 ecx, 67108863		; 03ffffffH
  00015	77 0e		 ja	 SHORT $LN1@Allocate
  00017	c1 e1 06	 shl	 ecx, 6
  0001a	51		 push	 ecx
  0001b	e8 00 00 00 00	 call	 ??2@YAPAXI@Z		; operator new
  00020	59		 pop	 ecx
  00021	85 c0		 test	 eax, eax

; 38   : 
; 39   : 	return ((_Ty _FARQ *)_Ptr);

  00023	75 26		 jne	 SHORT $LN5@Allocate
$LN1@Allocate:

; 37   : 		_THROW_NCEE(bad_alloc, 0);

  00025	83 65 08 00	 and	 DWORD PTR $T512565[ebp], 0
  00029	8d 45 08	 lea	 eax, DWORD PTR $T512565[ebp]
  0002c	50		 push	 eax
  0002d	8d 4d f4	 lea	 ecx, DWORD PTR $T512560[ebp]
  00030	ff 15 00 00 00
	00		 call	 DWORD PTR __imp_??0exception@std@@QAE@ABQBD@Z
  00036	68 00 00 00 00	 push	 OFFSET __TI2?AVbad_alloc@std@@
  0003b	8d 45 f4	 lea	 eax, DWORD PTR $T512560[ebp]
  0003e	50		 push	 eax
  0003f	c7 45 f4 00 00
	00 00		 mov	 DWORD PTR $T512560[ebp], OFFSET ??_7bad_alloc@std@@6B@
  00046	e8 00 00 00 00	 call	 __CxxThrowException@8
$LN10@Allocate:
$LN5@Allocate:

; 40   : 	}

  0004b	c9		 leave
  0004c	c3		 ret	 0
$LN9@Allocate:
??$_Allocate@UFishingItem@@@std@@YAPAUFishingItem@@IPAU1@@Z ENDP ; std::_Allocate<FishingItem>
_TEXT	ENDS
PUBLIC	??$_Allocate@UFishingItemGrade@@@std@@YAPAUFishingItemGrade@@IPAU1@@Z ; std::_Allocate<FishingItemGrade>
; Function compile flags: /Ogsp
;	COMDAT ??$_Allocate@UFishingItemGrade@@@std@@YAPAUFishingItemGrade@@IPAU1@@Z
_TEXT	SEGMENT
$T512570 = -12						; size = 12
$T512574 = 8						; size = 4
__Count$ = 8						; size = 4
___formal$ = 12						; size = 4
??$_Allocate@UFishingItemGrade@@@std@@YAPAUFishingItemGrade@@IPAU1@@Z PROC ; std::_Allocate<FishingItemGrade>, COMDAT

; 30   : 	{	// allocate storage for _Count elements of type _Ty

  00000	55		 push	 ebp
  00001	8b ec		 mov	 ebp, esp

; 31   : 	void *_Ptr = 0;
; 32   : 
; 33   : 	if (_Count <= 0)

  00003	8b 4d 08	 mov	 ecx, DWORD PTR __Count$[ebp]
  00006	83 ec 0c	 sub	 esp, 12			; 0000000cH
  00009	33 c0		 xor	 eax, eax
  0000b	85 c9		 test	 ecx, ecx

; 34   : 		_Count = 0;
; 35   : 	else if (((_SIZT)(-1) / sizeof (_Ty) < _Count)

  0000d	74 3c		 je	 SHORT $LN5@Allocate@2

; 36   : 		|| (_Ptr = ::operator new(_Count * sizeof (_Ty))) == 0)

  0000f	81 f9 66 66 66
	06		 cmp	 ecx, 107374182		; 06666666H
  00015	77 0e		 ja	 SHORT $LN1@Allocate@2
  00017	6b c9 28	 imul	 ecx, 40			; 00000028H
  0001a	51		 push	 ecx
  0001b	e8 00 00 00 00	 call	 ??2@YAPAXI@Z		; operator new
  00020	59		 pop	 ecx
  00021	85 c0		 test	 eax, eax

; 38   : 
; 39   : 	return ((_Ty _FARQ *)_Ptr);

  00023	75 26		 jne	 SHORT $LN5@Allocate@2
$LN1@Allocate@2:

; 37   : 		_THROW_NCEE(bad_alloc, 0);

  00025	83 65 08 00	 and	 DWORD PTR $T512574[ebp], 0
  00029	8d 45 08	 lea	 eax, DWORD PTR $T512574[ebp]
  0002c	50		 push	 eax
  0002d	8d 4d f4	 lea	 ecx, DWORD PTR $T512570[ebp]
  00030	ff 15 00 00 00
	00		 call	 DWORD PTR __imp_??0exception@std@@QAE@ABQBD@Z
  00036	68 00 00 00 00	 push	 OFFSET __TI2?AVbad_alloc@std@@
  0003b	8d 45 f4	 lea	 eax, DWORD PTR $T512570[ebp]
  0003e	50		 push	 eax
  0003f	c7 45 f4 00 00
	00 00		 mov	 DWORD PTR $T512570[ebp], OFFSET ??_7bad_alloc@std@@6B@
  00046	e8 00 00 00 00	 call	 __CxxThrowException@8
$LN10@Allocate@2:
$LN5@Allocate@2:

; 40   : 	}

  0004b	c9		 leave
  0004c	c3		 ret	 0
$LN9@Allocate@2:
??$_Allocate@UFishingItemGrade@@@std@@YAPAUFishingItemGrade@@IPAU1@@Z ENDP ; std::_Allocate<FishingItemGrade>
_TEXT	ENDS
PUBLIC	??$_Allocate@UFishingTypeInfo@@@std@@YAPAUFishingTypeInfo@@IPAU1@@Z ; std::_Allocate<FishingTypeInfo>
; Function compile flags: /Ogsp
;	COMDAT ??$_Allocate@UFishingTypeInfo@@@std@@YAPAUFishingTypeInfo@@IPAU1@@Z
_TEXT	SEGMENT
$T512579 = -12						; size = 12
$T512583 = 8						; size = 4
__Count$ = 8						; size = 4
___formal$ = 12						; size = 4
??$_Allocate@UFishingTypeInfo@@@std@@YAPAUFishingTypeInfo@@IPAU1@@Z PROC ; std::_Allocate<FishingTypeInfo>, COMDAT

; 30   : 	{	// allocate storage for _Count elements of type _Ty

  00000	55		 push	 ebp
  00001	8b ec		 mov	 ebp, esp

; 31   : 	void *_Ptr = 0;
; 32   : 
; 33   : 	if (_Count <= 0)

  00003	8b 4d 08	 mov	 ecx, DWORD PTR __Count$[ebp]
  00006	83 ec 0c	 sub	 esp, 12			; 0000000cH
  00009	33 c0		 xor	 eax, eax
  0000b	85 c9		 test	 ecx, ecx

; 34   : 		_Count = 0;
; 35   : 	else if (((_SIZT)(-1) / sizeof (_Ty) < _Count)

  0000d	74 3c		 je	 SHORT $LN5@Allocate@3

; 36   : 		|| (_Ptr = ::operator new(_Count * sizeof (_Ty))) == 0)

  0000f	81 f9 ff ff ff
	03		 cmp	 ecx, 67108863		; 03ffffffH
  00015	77 0e		 ja	 SHORT $LN1@Allocate@3
  00017	c1 e1 06	 shl	 ecx, 6
  0001a	51		 push	 ecx
  0001b	e8 00 00 00 00	 call	 ??2@YAPAXI@Z		; operator new
  00020	59		 pop	 ecx
  00021	85 c0		 test	 eax, eax

; 38   : 
; 39   : 	return ((_Ty _FARQ *)_Ptr);

  00023	75 26		 jne	 SHORT $LN5@Allocate@3
$LN1@Allocate@3:

; 37   : 		_THROW_NCEE(bad_alloc, 0);

  00025	83 65 08 00	 and	 DWORD PTR $T512583[ebp], 0
  00029	8d 45 08	 lea	 eax, DWORD PTR $T512583[ebp]
  0002c	50		 push	 eax
  0002d	8d 4d f4	 lea	 ecx, DWORD PTR $T512579[ebp]
  00030	ff 15 00 00 00
	00		 call	 DWORD PTR __imp_??0exception@std@@QAE@ABQBD@Z
  00036	68 00 00 00 00	 push	 OFFSET __TI2?AVbad_alloc@std@@
  0003b	8d 45 f4	 lea	 eax, DWORD PTR $T512579[ebp]
  0003e	50		 push	 eax
  0003f	c7 45 f4 00 00
	00 00		 mov	 DWORD PTR $T512579[ebp], OFFSET ??_7bad_alloc@std@@6B@
  00046	e8 00 00 00 00	 call	 __CxxThrowException@8
$LN10@Allocate@3:
$LN5@Allocate@3:

; 40   : 	}

  0004b	c9		 leave
  0004c	c3		 ret	 0
$LN9@Allocate@3:
??$_Allocate@UFishingTypeInfo@@@std@@YAPAUFishingTypeInfo@@IPAU1@@Z ENDP ; std::_Allocate<FishingTypeInfo>
_TEXT	ENDS
PUBLIC	??$forward@AAUFishingItem@@@std@@YAAAUFishingItem@@AAU1@@Z ; std::forward<FishingItem &>
; Function compile flags: /Ogsp
; File c:\program files (x86)\microsoft visual studio 10.0\vc\include\utility
;	COMDAT ??$forward@AAUFishingItem@@@std@@YAAAUFishingItem@@AAU1@@Z
_TEXT	SEGMENT
__Arg$ = 8						; size = 4
??$forward@AAUFishingItem@@@std@@YAAAUFishingItem@@AAU1@@Z PROC ; std::forward<FishingItem &>, COMDAT

; 78   : 	{	// forward _Arg, given explicitly specified type parameter

  00000	55		 push	 ebp
  00001	8b ec		 mov	 ebp, esp

; 79   : 	return ((_Ty&&)_Arg);

  00003	8b 45 08	 mov	 eax, DWORD PTR __Arg$[ebp]

; 80   : 	}

  00006	5d		 pop	 ebp
  00007	c3		 ret	 0
??$forward@AAUFishingItem@@@std@@YAAAUFishingItem@@AAU1@@Z ENDP ; std::forward<FishingItem &>
_TEXT	ENDS
PUBLIC	??$forward@ABUFishingItem@@@std@@YAABUFishingItem@@ABU1@@Z ; std::forward<FishingItem const &>
; Function compile flags: /Ogsp
;	COMDAT ??$forward@ABUFishingItem@@@std@@YAABUFishingItem@@ABU1@@Z
_TEXT	SEGMENT
__Arg$ = 8						; size = 4
??$forward@ABUFishingItem@@@std@@YAABUFishingItem@@ABU1@@Z PROC ; std::forward<FishingItem const &>, COMDAT

; 78   : 	{	// forward _Arg, given explicitly specified type parameter

  00000	55		 push	 ebp
  00001	8b ec		 mov	 ebp, esp

; 79   : 	return ((_Ty&&)_Arg);

  00003	8b 45 08	 mov	 eax, DWORD PTR __Arg$[ebp]

; 80   : 	}

  00006	5d		 pop	 ebp
  00007	c3		 ret	 0
??$forward@ABUFishingItem@@@std@@YAABUFishingItem@@ABU1@@Z ENDP ; std::forward<FishingItem const &>
_TEXT	ENDS
PUBLIC	??$forward@AAUFishingItemGrade@@@std@@YAAAUFishingItemGrade@@AAU1@@Z ; std::forward<FishingItemGrade &>
; Function compile flags: /Ogsp
;	COMDAT ??$forward@AAUFishingItemGrade@@@std@@YAAAUFishingItemGrade@@AAU1@@Z
_TEXT	SEGMENT
__Arg$ = 8						; size = 4
??$forward@AAUFishingItemGrade@@@std@@YAAAUFishingItemGrade@@AAU1@@Z PROC ; std::forward<FishingItemGrade &>, COMDAT

; 78   : 	{	// forward _Arg, given explicitly specified type parameter

  00000	55		 push	 ebp
  00001	8b ec		 mov	 ebp, esp

; 79   : 	return ((_Ty&&)_Arg);

  00003	8b 45 08	 mov	 eax, DWORD PTR __Arg$[ebp]

; 80   : 	}

  00006	5d		 pop	 ebp
  00007	c3		 ret	 0
??$forward@AAUFishingItemGrade@@@std@@YAAAUFishingItemGrade@@AAU1@@Z ENDP ; std::forward<FishingItemGrade &>
_TEXT	ENDS
PUBLIC	??$forward@ABUFishingItemGrade@@@std@@YAABUFishingItemGrade@@ABU1@@Z ; std::forward<FishingItemGrade const &>
; Function compile flags: /Ogsp
;	COMDAT ??$forward@ABUFishingItemGrade@@@std@@YAABUFishingItemGrade@@ABU1@@Z
_TEXT	SEGMENT
__Arg$ = 8						; size = 4
??$forward@ABUFishingItemGrade@@@std@@YAABUFishingItemGrade@@ABU1@@Z PROC ; std::forward<FishingItemGrade const &>, COMDAT

; 78   : 	{	// forward _Arg, given explicitly specified type parameter

  00000	55		 push	 ebp
  00001	8b ec		 mov	 ebp, esp

; 79   : 	return ((_Ty&&)_Arg);

  00003	8b 45 08	 mov	 eax, DWORD PTR __Arg$[ebp]

; 80   : 	}

  00006	5d		 pop	 ebp
  00007	c3		 ret	 0
??$forward@ABUFishingItemGrade@@@std@@YAABUFishingItemGrade@@ABU1@@Z ENDP ; std::forward<FishingItemGrade const &>
_TEXT	ENDS
PUBLIC	??$forward@AAUFishingTypeInfo@@@std@@YAAAUFishingTypeInfo@@AAU1@@Z ; std::forward<FishingTypeInfo &>
; Function compile flags: /Ogsp
;	COMDAT ??$forward@AAUFishingTypeInfo@@@std@@YAAAUFishingTypeInfo@@AAU1@@Z
_TEXT	SEGMENT
__Arg$ = 8						; size = 4
??$forward@AAUFishingTypeInfo@@@std@@YAAAUFishingTypeInfo@@AAU1@@Z PROC ; std::forward<FishingTypeInfo &>, COMDAT

; 78   : 	{	// forward _Arg, given explicitly specified type parameter

  00000	55		 push	 ebp
  00001	8b ec		 mov	 ebp, esp

; 79   : 	return ((_Ty&&)_Arg);

  00003	8b 45 08	 mov	 eax, DWORD PTR __Arg$[ebp]

; 80   : 	}

  00006	5d		 pop	 ebp
  00007	c3		 ret	 0
??$forward@AAUFishingTypeInfo@@@std@@YAAAUFishingTypeInfo@@AAU1@@Z ENDP ; std::forward<FishingTypeInfo &>
_TEXT	ENDS
PUBLIC	??$forward@ABUFishingTypeInfo@@@std@@YAABUFishingTypeInfo@@ABU1@@Z ; std::forward<FishingTypeInfo const &>
; Function compile flags: /Ogsp
;	COMDAT ??$forward@ABUFishingTypeInfo@@@std@@YAABUFishingTypeInfo@@ABU1@@Z
_TEXT	SEGMENT
__Arg$ = 8						; size = 4
??$forward@ABUFishingTypeInfo@@@std@@YAABUFishingTypeInfo@@ABU1@@Z PROC ; std::forward<FishingTypeInfo const &>, COMDAT

; 78   : 	{	// forward _Arg, given explicitly specified type parameter

  00000	55		 push	 ebp
  00001	8b ec		 mov	 ebp, esp

; 79   : 	return ((_Ty&&)_Arg);

  00003	8b 45 08	 mov	 eax, DWORD PTR __Arg$[ebp]

; 80   : 	}

  00006	5d		 pop	 ebp
  00007	c3		 ret	 0
??$forward@ABUFishingTypeInfo@@@std@@YAABUFishingTypeInfo@@ABU1@@Z ENDP ; std::forward<FishingTypeInfo const &>
_TEXT	ENDS
PUBLIC	??$_Ptr_cat@UFishingItem@@U1@@std@@YA?AU_Nonscalar_ptr_iterator_tag@0@PAUFishingItem@@0@Z ; std::_Ptr_cat<FishingItem,FishingItem>
; Function compile flags: /Ogsp
; File c:\program files (x86)\microsoft visual studio 10.0\vc\include\xutility
;	COMDAT ??$_Ptr_cat@UFishingItem@@U1@@std@@YA?AU_Nonscalar_ptr_iterator_tag@0@PAUFishingItem@@0@Z
_TEXT	SEGMENT
__Cat$ = -1						; size = 1
___formal$ = 8						; size = 4
___formal$ = 12						; size = 4
??$_Ptr_cat@UFishingItem@@U1@@std@@YA?AU_Nonscalar_ptr_iterator_tag@0@PAUFishingItem@@0@Z PROC ; std::_Ptr_cat<FishingItem,FishingItem>, COMDAT

; 516  : 	{	// return pointer category from pointers

  00000	55		 push	 ebp
  00001	8b ec		 mov	 ebp, esp
  00003	51		 push	 ecx

; 517  : 	typename _Ptr_cat_helper<_Elem1, _Elem2>::_Type _Cat;
; 518  : 	return (_Cat);

  00004	8a 45 ff	 mov	 al, BYTE PTR __Cat$[ebp]

; 519  : 	}

  00007	c9		 leave
  00008	c3		 ret	 0
??$_Ptr_cat@UFishingItem@@U1@@std@@YA?AU_Nonscalar_ptr_iterator_tag@0@PAUFishingItem@@0@Z ENDP ; std::_Ptr_cat<FishingItem,FishingItem>
_TEXT	ENDS
PUBLIC	??$_Ptr_cat@UFishingItemGrade@@U1@@std@@YA?AU_Nonscalar_ptr_iterator_tag@0@PAUFishingItemGrade@@0@Z ; std::_Ptr_cat<FishingItemGrade,FishingItemGrade>
; Function compile flags: /Ogsp
;	COMDAT ??$_Ptr_cat@UFishingItemGrade@@U1@@std@@YA?AU_Nonscalar_ptr_iterator_tag@0@PAUFishingItemGrade@@0@Z
_TEXT	SEGMENT
__Cat$ = -1						; size = 1
___formal$ = 8						; size = 4
___formal$ = 12						; size = 4
??$_Ptr_cat@UFishingItemGrade@@U1@@std@@YA?AU_Nonscalar_ptr_iterator_tag@0@PAUFishingItemGrade@@0@Z PROC ; std::_Ptr_cat<FishingItemGrade,FishingItemGrade>, COMDAT

; 516  : 	{	// return pointer category from pointers

  00000	55		 push	 ebp
  00001	8b ec		 mov	 ebp, esp
  00003	51		 push	 ecx

; 517  : 	typename _Ptr_cat_helper<_Elem1, _Elem2>::_Type _Cat;
; 518  : 	return (_Cat);

  00004	8a 45 ff	 mov	 al, BYTE PTR __Cat$[ebp]

; 519  : 	}

  00007	c9		 leave
  00008	c3		 ret	 0
??$_Ptr_cat@UFishingItemGrade@@U1@@std@@YA?AU_Nonscalar_ptr_iterator_tag@0@PAUFishingItemGrade@@0@Z ENDP ; std::_Ptr_cat<FishingItemGrade,FishingItemGrade>
_TEXT	ENDS
PUBLIC	??$_Ptr_cat@UFishingTypeInfo@@U1@@std@@YA?AU_Nonscalar_ptr_iterator_tag@0@PAUFishingTypeInfo@@0@Z ; std::_Ptr_cat<FishingTypeInfo,FishingTypeInfo>
; Function compile flags: /Ogsp
;	COMDAT ??$_Ptr_cat@UFishingTypeInfo@@U1@@std@@YA?AU_Nonscalar_ptr_iterator_tag@0@PAUFishingTypeInfo@@0@Z
_TEXT	SEGMENT
__Cat$ = -1						; size = 1
___formal$ = 8						; size = 4
___formal$ = 12						; size = 4
??$_Ptr_cat@UFishingTypeInfo@@U1@@std@@YA?AU_Nonscalar_ptr_iterator_tag@0@PAUFishingTypeInfo@@0@Z PROC ; std::_Ptr_cat<FishingTypeInfo,FishingTypeInfo>, COMDAT

; 516  : 	{	// return pointer category from pointers

  00000	55		 push	 ebp
  00001	8b ec		 mov	 ebp, esp
  00003	51		 push	 ecx

; 517  : 	typename _Ptr_cat_helper<_Elem1, _Elem2>::_Type _Cat;
; 518  : 	return (_Cat);

  00004	8a 45 ff	 mov	 al, BYTE PTR __Cat$[ebp]

; 519  : 	}

  00007	c9		 leave
  00008	c3		 ret	 0
??$_Ptr_cat@UFishingTypeInfo@@U1@@std@@YA?AU_Nonscalar_ptr_iterator_tag@0@PAUFishingTypeInfo@@0@Z ENDP ; std::_Ptr_cat<FishingTypeInfo,FishingTypeInfo>
_TEXT	ENDS
PUBLIC	??0FishingItem@@QAE@ABU0@@Z			; FishingItem::FishingItem
EXTRN	__imp_??0ioHashString@@QAE@ABV0@@Z:PROC
;	COMDAT xdata$x
xdata$x	SEGMENT
__unwindtable$??0FishingItem@@QAE@ABU0@@Z DD 0ffffffffH
	DD	FLAT:__unwindfunclet$??0FishingItem@@QAE@ABU0@@Z$0
	DD	00H
	DD	FLAT:__unwindfunclet$??0FishingItem@@QAE@ABU0@@Z$1
__ehfuncinfo$??0FishingItem@@QAE@ABU0@@Z DD 019930522H
	DD	02H
	DD	FLAT:__unwindtable$??0FishingItem@@QAE@ABU0@@Z
	DD	2 DUP(00H)
	DD	2 DUP(00H)
	DD	00H
	DD	01H
; Function compile flags: /Ogsp
xdata$x	ENDS
;	COMDAT ??0FishingItem@@QAE@ABU0@@Z
_TEXT	SEGMENT
_this$ = -16						; size = 4
__$EHRec$ = -12						; size = 12
___that$ = 8						; size = 4
??0FishingItem@@QAE@ABU0@@Z PROC			; FishingItem::FishingItem, COMDAT
; _this$ = ecx
  00000	6a 04		 push	 4
  00002	b8 00 00 00 00	 mov	 eax, __ehhandler$??0FishingItem@@QAE@ABU0@@Z
  00007	e8 00 00 00 00	 call	 __EH_prolog3
  0000c	8b f1		 mov	 esi, ecx
  0000e	89 75 f0	 mov	 DWORD PTR _this$[ebp], esi
  00011	8b 7d 08	 mov	 edi, DWORD PTR ___that$[ebp]
  00014	8b 1d 00 00 00
	00		 mov	 ebx, DWORD PTR __imp_??0ioHashString@@QAE@ABV0@@Z
  0001a	57		 push	 edi
  0001b	ff d3		 call	 ebx
  0001d	83 65 fc 00	 and	 DWORD PTR __$EHRec$[ebp+8], 0
  00021	8d 47 10	 lea	 eax, DWORD PTR [edi+16]
  00024	50		 push	 eax
  00025	8d 4e 10	 lea	 ecx, DWORD PTR [esi+16]
  00028	ff d3		 call	 ebx
  0002a	8d 47 20	 lea	 eax, DWORD PTR [edi+32]
  0002d	50		 push	 eax
  0002e	8d 4e 20	 lea	 ecx, DWORD PTR [esi+32]
  00031	c6 45 fc 01	 mov	 BYTE PTR __$EHRec$[ebp+8], 1
  00035	ff d3		 call	 ebx
  00037	8b 47 30	 mov	 eax, DWORD PTR [edi+48]
  0003a	89 46 30	 mov	 DWORD PTR [esi+48], eax
  0003d	8b 47 38	 mov	 eax, DWORD PTR [edi+56]
  00040	89 46 38	 mov	 DWORD PTR [esi+56], eax
  00043	8b 47 3c	 mov	 eax, DWORD PTR [edi+60]
  00046	89 46 3c	 mov	 DWORD PTR [esi+60], eax
  00049	8b c6		 mov	 eax, esi
  0004b	e8 00 00 00 00	 call	 __EH_epilog3
  00050	c2 04 00	 ret	 4
_TEXT	ENDS
;	COMDAT text$x
text$x	SEGMENT
__unwindfunclet$??0FishingItem@@QAE@ABU0@@Z$0:
  00000	8b 4d f0	 mov	 ecx, DWORD PTR _this$[ebp]
  00003	ff 25 00 00 00
	00		 jmp	 DWORD PTR __imp_??1ioHashString@@QAE@XZ
__unwindfunclet$??0FishingItem@@QAE@ABU0@@Z$1:
  00009	8b 4d f0	 mov	 ecx, DWORD PTR _this$[ebp]
  0000c	83 c1 10	 add	 ecx, 16			; 00000010H
  0000f	ff 25 00 00 00
	00		 jmp	 DWORD PTR __imp_??1ioHashString@@QAE@XZ
__ehhandler$??0FishingItem@@QAE@ABU0@@Z:
  00015	8b 54 24 08	 mov	 edx, DWORD PTR [esp+8]
  00019	8d 42 0c	 lea	 eax, DWORD PTR [edx+12]
  0001c	8b 4a ec	 mov	 ecx, DWORD PTR [edx-20]
  0001f	33 c8		 xor	 ecx, eax
  00021	e8 00 00 00 00	 call	 @__security_check_cookie@4
  00026	b8 00 00 00 00	 mov	 eax, OFFSET __ehfuncinfo$??0FishingItem@@QAE@ABU0@@Z
  0002b	e9 00 00 00 00	 jmp	 ___CxxFrameHandler3
text$x	ENDS
??0FishingItem@@QAE@ABU0@@Z ENDP			; FishingItem::FishingItem
PUBLIC	??0FishingItemGrade@@QAE@ABU0@@Z		; FishingItemGrade::FishingItemGrade
EXTRN	__fltused:DWORD
;	COMDAT xdata$x
xdata$x	SEGMENT
__unwindtable$??0FishingItemGrade@@QAE@ABU0@@Z DD 0ffffffffH
	DD	FLAT:__unwindfunclet$??0FishingItemGrade@@QAE@ABU0@@Z$0
__ehfuncinfo$??0FishingItemGrade@@QAE@ABU0@@Z DD 019930522H
	DD	01H
	DD	FLAT:__unwindtable$??0FishingItemGrade@@QAE@ABU0@@Z
	DD	2 DUP(00H)
	DD	2 DUP(00H)
	DD	00H
	DD	01H
; Function compile flags: /Ogsp
xdata$x	ENDS
;	COMDAT ??0FishingItemGrade@@QAE@ABU0@@Z
_TEXT	SEGMENT
_this$ = -16						; size = 4
__$EHRec$ = -12						; size = 12
___that$ = 8						; size = 4
??0FishingItemGrade@@QAE@ABU0@@Z PROC			; FishingItemGrade::FishingItemGrade, COMDAT
; _this$ = ecx
  00000	6a 04		 push	 4
  00002	b8 00 00 00 00	 mov	 eax, __ehhandler$??0FishingItemGrade@@QAE@ABU0@@Z
  00007	e8 00 00 00 00	 call	 __EH_prolog3
  0000c	8b f1		 mov	 esi, ecx
  0000e	89 75 f0	 mov	 DWORD PTR _this$[ebp], esi
  00011	8b 7d 08	 mov	 edi, DWORD PTR ___that$[ebp]
  00014	8b 07		 mov	 eax, DWORD PTR [edi]
  00016	8b 1d 00 00 00
	00		 mov	 ebx, DWORD PTR __imp_??0ioHashString@@QAE@ABV0@@Z
  0001c	89 06		 mov	 DWORD PTR [esi], eax
  0001e	8d 47 04	 lea	 eax, DWORD PTR [edi+4]
  00021	50		 push	 eax
  00022	8d 4e 04	 lea	 ecx, DWORD PTR [esi+4]
  00025	ff d3		 call	 ebx
  00027	83 65 fc 00	 and	 DWORD PTR __$EHRec$[ebp+8], 0
  0002b	8d 47 14	 lea	 eax, DWORD PTR [edi+20]
  0002e	50		 push	 eax
  0002f	8d 4e 14	 lea	 ecx, DWORD PTR [esi+20]
  00032	ff d3		 call	 ebx
  00034	d9 47 24	 fld	 DWORD PTR [edi+36]
  00037	d9 5e 24	 fstp	 DWORD PTR [esi+36]
  0003a	8b c6		 mov	 eax, esi
  0003c	e8 00 00 00 00	 call	 __EH_epilog3
  00041	c2 04 00	 ret	 4
_TEXT	ENDS
;	COMDAT text$x
text$x	SEGMENT
__unwindfunclet$??0FishingItemGrade@@QAE@ABU0@@Z$0:
  00000	8b 4d f0	 mov	 ecx, DWORD PTR _this$[ebp]
  00003	83 c1 04	 add	 ecx, 4
  00006	ff 25 00 00 00
	00		 jmp	 DWORD PTR __imp_??1ioHashString@@QAE@XZ
__ehhandler$??0FishingItemGrade@@QAE@ABU0@@Z:
  0000c	8b 54 24 08	 mov	 edx, DWORD PTR [esp+8]
  00010	8d 42 0c	 lea	 eax, DWORD PTR [edx+12]
  00013	8b 4a ec	 mov	 ecx, DWORD PTR [edx-20]
  00016	33 c8		 xor	 ecx, eax
  00018	e8 00 00 00 00	 call	 @__security_check_cookie@4
  0001d	b8 00 00 00 00	 mov	 eax, OFFSET __ehfuncinfo$??0FishingItemGrade@@QAE@ABU0@@Z
  00022	e9 00 00 00 00	 jmp	 ___CxxFrameHandler3
text$x	ENDS
??0FishingItemGrade@@QAE@ABU0@@Z ENDP			; FishingItemGrade::FishingItemGrade
PUBLIC	??0FishingTypeInfo@@QAE@ABU0@@Z			; FishingTypeInfo::FishingTypeInfo
;	COMDAT xdata$x
xdata$x	SEGMENT
__unwindtable$??0FishingTypeInfo@@QAE@ABU0@@Z DD 0ffffffffH
	DD	FLAT:__unwindfunclet$??0FishingTypeInfo@@QAE@ABU0@@Z$0
	DD	00H
	DD	FLAT:__unwindfunclet$??0FishingTypeInfo@@QAE@ABU0@@Z$1
	DD	01H
	DD	FLAT:__unwindfunclet$??0FishingTypeInfo@@QAE@ABU0@@Z$2
__ehfuncinfo$??0FishingTypeInfo@@QAE@ABU0@@Z DD 019930522H
	DD	03H
	DD	FLAT:__unwindtable$??0FishingTypeInfo@@QAE@ABU0@@Z
	DD	2 DUP(00H)
	DD	2 DUP(00H)
	DD	00H
	DD	01H
; Function compile flags: /Ogsp
xdata$x	ENDS
;	COMDAT ??0FishingTypeInfo@@QAE@ABU0@@Z
_TEXT	SEGMENT
_this$ = -16						; size = 4
__$EHRec$ = -12						; size = 12
___that$ = 8						; size = 4
??0FishingTypeInfo@@QAE@ABU0@@Z PROC			; FishingTypeInfo::FishingTypeInfo, COMDAT
; _this$ = ecx
  00000	6a 04		 push	 4
  00002	b8 00 00 00 00	 mov	 eax, __ehhandler$??0FishingTypeInfo@@QAE@ABU0@@Z
  00007	e8 00 00 00 00	 call	 __EH_prolog3
  0000c	8b f9		 mov	 edi, ecx
  0000e	89 7d f0	 mov	 DWORD PTR _this$[ebp], edi
  00011	8b 5d 08	 mov	 ebx, DWORD PTR ___that$[ebp]
  00014	8b 35 00 00 00
	00		 mov	 esi, DWORD PTR __imp_??0ioHashString@@QAE@ABV0@@Z
  0001a	53		 push	 ebx
  0001b	ff d6		 call	 esi
  0001d	83 65 fc 00	 and	 DWORD PTR __$EHRec$[ebp+8], 0
  00021	8d 43 10	 lea	 eax, DWORD PTR [ebx+16]
  00024	50		 push	 eax
  00025	8d 4f 10	 lea	 ecx, DWORD PTR [edi+16]
  00028	ff d6		 call	 esi
  0002a	8d 43 20	 lea	 eax, DWORD PTR [ebx+32]
  0002d	50		 push	 eax
  0002e	8d 4f 20	 lea	 ecx, DWORD PTR [edi+32]
  00031	c6 45 fc 01	 mov	 BYTE PTR __$EHRec$[ebp+8], 1
  00035	ff d6		 call	 esi
  00037	83 c3 30	 add	 ebx, 48			; 00000030H
  0003a	53		 push	 ebx
  0003b	8d 4f 30	 lea	 ecx, DWORD PTR [edi+48]
  0003e	c6 45 fc 02	 mov	 BYTE PTR __$EHRec$[ebp+8], 2
  00042	ff d6		 call	 esi
  00044	8b c7		 mov	 eax, edi
  00046	e8 00 00 00 00	 call	 __EH_epilog3
  0004b	c2 04 00	 ret	 4
_TEXT	ENDS
;	COMDAT text$x
text$x	SEGMENT
__unwindfunclet$??0FishingTypeInfo@@QAE@ABU0@@Z$0:
  00000	8b 4d f0	 mov	 ecx, DWORD PTR _this$[ebp]
  00003	ff 25 00 00 00
	00		 jmp	 DWORD PTR __imp_??1ioHashString@@QAE@XZ
__unwindfunclet$??0FishingTypeInfo@@QAE@ABU0@@Z$1:
  00009	8b 4d f0	 mov	 ecx, DWORD PTR _this$[ebp]
  0000c	83 c1 10	 add	 ecx, 16			; 00000010H
  0000f	ff 25 00 00 00
	00		 jmp	 DWORD PTR __imp_??1ioHashString@@QAE@XZ
__unwindfunclet$??0FishingTypeInfo@@QAE@ABU0@@Z$2:
  00015	8b 4d f0	 mov	 ecx, DWORD PTR _this$[ebp]
  00018	83 c1 20	 add	 ecx, 32			; 00000020H
  0001b	ff 25 00 00 00
	00		 jmp	 DWORD PTR __imp_??1ioHashString@@QAE@XZ
__ehhandler$??0FishingTypeInfo@@QAE@ABU0@@Z:
  00021	8b 54 24 08	 mov	 edx, DWORD PTR [esp+8]
  00025	8d 42 0c	 lea	 eax, DWORD PTR [edx+12]
  00028	8b 4a ec	 mov	 ecx, DWORD PTR [edx-20]
  0002b	33 c8		 xor	 ecx, eax
  0002d	e8 00 00 00 00	 call	 @__security_check_cookie@4
  00032	b8 00 00 00 00	 mov	 eax, OFFSET __ehfuncinfo$??0FishingTypeInfo@@QAE@ABU0@@Z
  00037	e9 00 00 00 00	 jmp	 ___CxxFrameHandler3
text$x	ENDS
??0FishingTypeInfo@@QAE@ABU0@@Z ENDP			; FishingTypeInfo::FishingTypeInfo
PUBLIC	??4FishingItem@@QAEAAU0@ABU0@@Z			; FishingItem::operator=
EXTRN	__imp_??4ioHashString@@QAEAAV0@ABV0@@Z:PROC
; Function compile flags: /Ogsp
;	COMDAT ??4FishingItem@@QAEAAU0@ABU0@@Z
_TEXT	SEGMENT
___that$ = 8						; size = 4
??4FishingItem@@QAEAAU0@ABU0@@Z PROC			; FishingItem::operator=, COMDAT
; _this$ = ecx
  00000	55		 push	 ebp
  00001	8b ec		 mov	 ebp, esp
  00003	53		 push	 ebx
  00004	8b 1d 00 00 00
	00		 mov	 ebx, DWORD PTR __imp_??4ioHashString@@QAEAAV0@ABV0@@Z
  0000a	56		 push	 esi
  0000b	57		 push	 edi
  0000c	8b 7d 08	 mov	 edi, DWORD PTR ___that$[ebp]
  0000f	57		 push	 edi
  00010	8b f1		 mov	 esi, ecx
  00012	ff d3		 call	 ebx
  00014	8d 47 10	 lea	 eax, DWORD PTR [edi+16]
  00017	50		 push	 eax
  00018	8d 4e 10	 lea	 ecx, DWORD PTR [esi+16]
  0001b	ff d3		 call	 ebx
  0001d	8d 47 20	 lea	 eax, DWORD PTR [edi+32]
  00020	50		 push	 eax
  00021	8d 4e 20	 lea	 ecx, DWORD PTR [esi+32]
  00024	ff d3		 call	 ebx
  00026	8b 47 30	 mov	 eax, DWORD PTR [edi+48]
  00029	89 46 30	 mov	 DWORD PTR [esi+48], eax
  0002c	8b 47 38	 mov	 eax, DWORD PTR [edi+56]
  0002f	89 46 38	 mov	 DWORD PTR [esi+56], eax
  00032	8b 47 3c	 mov	 eax, DWORD PTR [edi+60]
  00035	89 46 3c	 mov	 DWORD PTR [esi+60], eax
  00038	5f		 pop	 edi
  00039	8b c6		 mov	 eax, esi
  0003b	5e		 pop	 esi
  0003c	5b		 pop	 ebx
  0003d	5d		 pop	 ebp
  0003e	c2 04 00	 ret	 4
??4FishingItem@@QAEAAU0@ABU0@@Z ENDP			; FishingItem::operator=
_TEXT	ENDS
PUBLIC	??4FishingItemGrade@@QAEAAU0@ABU0@@Z		; FishingItemGrade::operator=
; Function compile flags: /Ogsp
;	COMDAT ??4FishingItemGrade@@QAEAAU0@ABU0@@Z
_TEXT	SEGMENT
___that$ = 8						; size = 4
??4FishingItemGrade@@QAEAAU0@ABU0@@Z PROC		; FishingItemGrade::operator=, COMDAT
; _this$ = ecx
  00000	55		 push	 ebp
  00001	8b ec		 mov	 ebp, esp
  00003	53		 push	 ebx
  00004	8b 1d 00 00 00
	00		 mov	 ebx, DWORD PTR __imp_??4ioHashString@@QAEAAV0@ABV0@@Z
  0000a	56		 push	 esi
  0000b	57		 push	 edi
  0000c	8b 7d 08	 mov	 edi, DWORD PTR ___that$[ebp]
  0000f	8b 07		 mov	 eax, DWORD PTR [edi]
  00011	8b f1		 mov	 esi, ecx
  00013	89 06		 mov	 DWORD PTR [esi], eax
  00015	8d 47 04	 lea	 eax, DWORD PTR [edi+4]
  00018	50		 push	 eax
  00019	8d 4e 04	 lea	 ecx, DWORD PTR [esi+4]
  0001c	ff d3		 call	 ebx
  0001e	8d 47 14	 lea	 eax, DWORD PTR [edi+20]
  00021	50		 push	 eax
  00022	8d 4e 14	 lea	 ecx, DWORD PTR [esi+20]
  00025	ff d3		 call	 ebx
  00027	d9 47 24	 fld	 DWORD PTR [edi+36]
  0002a	5f		 pop	 edi
  0002b	d9 5e 24	 fstp	 DWORD PTR [esi+36]
  0002e	8b c6		 mov	 eax, esi
  00030	5e		 pop	 esi
  00031	5b		 pop	 ebx
  00032	5d		 pop	 ebp
  00033	c2 04 00	 ret	 4
??4FishingItemGrade@@QAEAAU0@ABU0@@Z ENDP		; FishingItemGrade::operator=
_TEXT	ENDS
PUBLIC	??4FishingTypeInfo@@QAEAAU0@ABU0@@Z		; FishingTypeInfo::operator=
; Function compile flags: /Ogsp
;	COMDAT ??4FishingTypeInfo@@QAEAAU0@ABU0@@Z
_TEXT	SEGMENT
___that$ = 8						; size = 4
??4FishingTypeInfo@@QAEAAU0@ABU0@@Z PROC		; FishingTypeInfo::operator=, COMDAT
; _this$ = ecx
  00000	55		 push	 ebp
  00001	8b ec		 mov	 ebp, esp
  00003	53		 push	 ebx
  00004	8b 5d 08	 mov	 ebx, DWORD PTR ___that$[ebp]
  00007	56		 push	 esi
  00008	8b 35 00 00 00
	00		 mov	 esi, DWORD PTR __imp_??4ioHashString@@QAEAAV0@ABV0@@Z
  0000e	57		 push	 edi
  0000f	53		 push	 ebx
  00010	8b f9		 mov	 edi, ecx
  00012	ff d6		 call	 esi
  00014	8d 43 10	 lea	 eax, DWORD PTR [ebx+16]
  00017	50		 push	 eax
  00018	8d 4f 10	 lea	 ecx, DWORD PTR [edi+16]
  0001b	ff d6		 call	 esi
  0001d	8d 43 20	 lea	 eax, DWORD PTR [ebx+32]
  00020	50		 push	 eax
  00021	8d 4f 20	 lea	 ecx, DWORD PTR [edi+32]
  00024	ff d6		 call	 esi
  00026	83 c3 30	 add	 ebx, 48			; 00000030H
  00029	53		 push	 ebx
  0002a	8d 4f 30	 lea	 ecx, DWORD PTR [edi+48]
  0002d	ff d6		 call	 esi
  0002f	8b c7		 mov	 eax, edi
  00031	5f		 pop	 edi
  00032	5e		 pop	 esi
  00033	5b		 pop	 ebx
  00034	5d		 pop	 ebp
  00035	c2 04 00	 ret	 4
??4FishingTypeInfo@@QAEAAU0@ABU0@@Z ENDP		; FishingTypeInfo::operator=
_TEXT	ENDS
PUBLIC	??$move@AAUFishingItem@@@std@@YA$$QAUFishingItem@@AAU1@@Z ; std::move<FishingItem &>
; Function compile flags: /Ogsp
; File c:\program files (x86)\microsoft visual studio 10.0\vc\include\utility
;	COMDAT ??$move@AAUFishingItem@@@std@@YA$$QAUFishingItem@@AAU1@@Z
_TEXT	SEGMENT
__Arg$ = 8						; size = 4
??$move@AAUFishingItem@@@std@@YA$$QAUFishingItem@@AAU1@@Z PROC ; std::move<FishingItem &>, COMDAT

; 86   : 	{	// forward _Arg as movable

  00000	55		 push	 ebp
  00001	8b ec		 mov	 ebp, esp

; 87   : 	return ((typename tr1::_Remove_reference<_Ty>::_Type&&)_Arg);

  00003	8b 45 08	 mov	 eax, DWORD PTR __Arg$[ebp]

; 88   : 	}

  00006	5d		 pop	 ebp
  00007	c3		 ret	 0
??$move@AAUFishingItem@@@std@@YA$$QAUFishingItem@@AAU1@@Z ENDP ; std::move<FishingItem &>
_TEXT	ENDS
PUBLIC	??$move@AAUFishingItemGrade@@@std@@YA$$QAUFishingItemGrade@@AAU1@@Z ; std::move<FishingItemGrade &>
; Function compile flags: /Ogsp
;	COMDAT ??$move@AAUFishingItemGrade@@@std@@YA$$QAUFishingItemGrade@@AAU1@@Z
_TEXT	SEGMENT
__Arg$ = 8						; size = 4
??$move@AAUFishingItemGrade@@@std@@YA$$QAUFishingItemGrade@@AAU1@@Z PROC ; std::move<FishingItemGrade &>, COMDAT

; 86   : 	{	// forward _Arg as movable

  00000	55		 push	 ebp
  00001	8b ec		 mov	 ebp, esp

; 87   : 	return ((typename tr1::_Remove_reference<_Ty>::_Type&&)_Arg);

  00003	8b 45 08	 mov	 eax, DWORD PTR __Arg$[ebp]

; 88   : 	}

  00006	5d		 pop	 ebp
  00007	c3		 ret	 0
??$move@AAUFishingItemGrade@@@std@@YA$$QAUFishingItemGrade@@AAU1@@Z ENDP ; std::move<FishingItemGrade &>
_TEXT	ENDS
PUBLIC	??$move@AAUFishingTypeInfo@@@std@@YA$$QAUFishingTypeInfo@@AAU1@@Z ; std::move<FishingTypeInfo &>
; Function compile flags: /Ogsp
;	COMDAT ??$move@AAUFishingTypeInfo@@@std@@YA$$QAUFishingTypeInfo@@AAU1@@Z
_TEXT	SEGMENT
__Arg$ = 8						; size = 4
??$move@AAUFishingTypeInfo@@@std@@YA$$QAUFishingTypeInfo@@AAU1@@Z PROC ; std::move<FishingTypeInfo &>, COMDAT

; 86   : 	{	// forward _Arg as movable

  00000	55		 push	 ebp
  00001	8b ec		 mov	 ebp, esp

; 87   : 	return ((typename tr1::_Remove_reference<_Ty>::_Type&&)_Arg);

  00003	8b 45 08	 mov	 eax, DWORD PTR __Arg$[ebp]

; 88   : 	}

  00006	5d		 pop	 ebp
  00007	c3		 ret	 0
??$move@AAUFishingTypeInfo@@@std@@YA$$QAUFishingTypeInfo@@AAU1@@Z ENDP ; std::move<FishingTypeInfo &>
_TEXT	ENDS
PUBLIC	??$_Val_type@PAUFishingItem@@@std@@YAPAUFishingItem@@PAU1@@Z ; std::_Val_type<FishingItem *>
; Function compile flags: /Ogsp
; File c:\program files (x86)\microsoft visual studio 10.0\vc\include\xutility
;	COMDAT ??$_Val_type@PAUFishingItem@@@std@@YAPAUFishingItem@@PAU1@@Z
_TEXT	SEGMENT
___formal$ = 8						; size = 4
??$_Val_type@PAUFishingItem@@@std@@YAPAUFishingItem@@PAU1@@Z PROC ; std::_Val_type<FishingItem *>, COMDAT

; 790  : 	return (0);

  00000	33 c0		 xor	 eax, eax

; 791  : 	}

  00002	c3		 ret	 0
??$_Val_type@PAUFishingItem@@@std@@YAPAUFishingItem@@PAU1@@Z ENDP ; std::_Val_type<FishingItem *>
_TEXT	ENDS
PUBLIC	??$_Val_type@PAUFishingItemGrade@@@std@@YAPAUFishingItemGrade@@PAU1@@Z ; std::_Val_type<FishingItemGrade *>
; Function compile flags: /Ogsp
;	COMDAT ??$_Val_type@PAUFishingItemGrade@@@std@@YAPAUFishingItemGrade@@PAU1@@Z
_TEXT	SEGMENT
___formal$ = 8						; size = 4
??$_Val_type@PAUFishingItemGrade@@@std@@YAPAUFishingItemGrade@@PAU1@@Z PROC ; std::_Val_type<FishingItemGrade *>, COMDAT

; 790  : 	return (0);

  00000	33 c0		 xor	 eax, eax

; 791  : 	}

  00002	c3		 ret	 0
??$_Val_type@PAUFishingItemGrade@@@std@@YAPAUFishingItemGrade@@PAU1@@Z ENDP ; std::_Val_type<FishingItemGrade *>
_TEXT	ENDS
PUBLIC	??$_Val_type@PAUFishingTypeInfo@@@std@@YAPAUFishingTypeInfo@@PAU1@@Z ; std::_Val_type<FishingTypeInfo *>
; Function compile flags: /Ogsp
;	COMDAT ??$_Val_type@PAUFishingTypeInfo@@@std@@YAPAUFishingTypeInfo@@PAU1@@Z
_TEXT	SEGMENT
___formal$ = 8						; size = 4
??$_Val_type@PAUFishingTypeInfo@@@std@@YAPAUFishingTypeInfo@@PAU1@@Z PROC ; std::_Val_type<FishingTypeInfo *>, COMDAT

; 790  : 	return (0);

  00000	33 c0		 xor	 eax, eax

; 791  : 	}

  00002	c3		 ret	 0
??$_Val_type@PAUFishingTypeInfo@@@std@@YAPAUFishingTypeInfo@@PAU1@@Z ENDP ; std::_Val_type<FishingTypeInfo *>
_TEXT	ENDS
PUBLIC	??_GFishingItem@@QAEPAXI@Z			; FishingItem::`scalar deleting destructor'
; Function compile flags: /Ogsp
;	COMDAT ??_GFishingItem@@QAEPAXI@Z
_TEXT	SEGMENT
___flags$ = 8						; size = 4
??_GFishingItem@@QAEPAXI@Z PROC				; FishingItem::`scalar deleting destructor', COMDAT
; _this$ = ecx
  00000	55		 push	 ebp
  00001	8b ec		 mov	 ebp, esp
  00003	56		 push	 esi
  00004	8b f1		 mov	 esi, ecx
  00006	e8 00 00 00 00	 call	 ??1FishingItem@@QAE@XZ
  0000b	f6 45 08 01	 test	 BYTE PTR ___flags$[ebp], 1
  0000f	74 07		 je	 SHORT $LN1@scalar@2
  00011	56		 push	 esi
  00012	e8 00 00 00 00	 call	 ??3@YAXPAX@Z		; operator delete
  00017	59		 pop	 ecx
$LN1@scalar@2:
  00018	8b c6		 mov	 eax, esi
  0001a	5e		 pop	 esi
  0001b	5d		 pop	 ebp
  0001c	c2 04 00	 ret	 4
??_GFishingItem@@QAEPAXI@Z ENDP				; FishingItem::`scalar deleting destructor'
_TEXT	ENDS
PUBLIC	??_GFishingItemGrade@@QAEPAXI@Z			; FishingItemGrade::`scalar deleting destructor'
; Function compile flags: /Ogsp
;	COMDAT ??_GFishingItemGrade@@QAEPAXI@Z
_TEXT	SEGMENT
___flags$ = 8						; size = 4
??_GFishingItemGrade@@QAEPAXI@Z PROC			; FishingItemGrade::`scalar deleting destructor', COMDAT
; _this$ = ecx
  00000	55		 push	 ebp
  00001	8b ec		 mov	 ebp, esp
  00003	56		 push	 esi
  00004	8b f1		 mov	 esi, ecx
  00006	e8 00 00 00 00	 call	 ??1FishingItemGrade@@QAE@XZ
  0000b	f6 45 08 01	 test	 BYTE PTR ___flags$[ebp], 1
  0000f	74 07		 je	 SHORT $LN1@scalar@3
  00011	56		 push	 esi
  00012	e8 00 00 00 00	 call	 ??3@YAXPAX@Z		; operator delete
  00017	59		 pop	 ecx
$LN1@scalar@3:
  00018	8b c6		 mov	 eax, esi
  0001a	5e		 pop	 esi
  0001b	5d		 pop	 ebp
  0001c	c2 04 00	 ret	 4
??_GFishingItemGrade@@QAEPAXI@Z ENDP			; FishingItemGrade::`scalar deleting destructor'
_TEXT	ENDS
PUBLIC	??_GFishingTypeInfo@@QAEPAXI@Z			; FishingTypeInfo::`scalar deleting destructor'
; Function compile flags: /Ogsp
;	COMDAT ??_GFishingTypeInfo@@QAEPAXI@Z
_TEXT	SEGMENT
___flags$ = 8						; size = 4
??_GFishingTypeInfo@@QAEPAXI@Z PROC			; FishingTypeInfo::`scalar deleting destructor', COMDAT
; _this$ = ecx
  00000	55		 push	 ebp
  00001	8b ec		 mov	 ebp, esp
  00003	56		 push	 esi
  00004	8b f1		 mov	 esi, ecx
  00006	e8 00 00 00 00	 call	 ??1FishingTypeInfo@@QAE@XZ
  0000b	f6 45 08 01	 test	 BYTE PTR ___flags$[ebp], 1
  0000f	74 07		 je	 SHORT $LN1@scalar@4
  00011	56		 push	 esi
  00012	e8 00 00 00 00	 call	 ??3@YAXPAX@Z		; operator delete
  00017	59		 pop	 ecx
$LN1@scalar@4:
  00018	8b c6		 mov	 eax, esi
  0001a	5e		 pop	 esi
  0001b	5d		 pop	 ebp
  0001c	c2 04 00	 ret	 4
??_GFishingTypeInfo@@QAEPAXI@Z ENDP			; FishingTypeInfo::`scalar deleting destructor'
_TEXT	ENDS
PUBLIC	??$forward@UFishingItem@@@std@@YA$$QAUFishingItem@@AAU1@@Z ; std::forward<FishingItem>
; Function compile flags: /Ogsp
; File c:\program files (x86)\microsoft visual studio 10.0\vc\include\utility
;	COMDAT ??$forward@UFishingItem@@@std@@YA$$QAUFishingItem@@AAU1@@Z
_TEXT	SEGMENT
__Arg$ = 8						; size = 4
??$forward@UFishingItem@@@std@@YA$$QAUFishingItem@@AAU1@@Z PROC ; std::forward<FishingItem>, COMDAT

; 78   : 	{	// forward _Arg, given explicitly specified type parameter

  00000	55		 push	 ebp
  00001	8b ec		 mov	 ebp, esp

; 79   : 	return ((_Ty&&)_Arg);

  00003	8b 45 08	 mov	 eax, DWORD PTR __Arg$[ebp]

; 80   : 	}

  00006	5d		 pop	 ebp
  00007	c3		 ret	 0
??$forward@UFishingItem@@@std@@YA$$QAUFishingItem@@AAU1@@Z ENDP ; std::forward<FishingItem>
_TEXT	ENDS
PUBLIC	??$forward@UFishingItemGrade@@@std@@YA$$QAUFishingItemGrade@@AAU1@@Z ; std::forward<FishingItemGrade>
; Function compile flags: /Ogsp
;	COMDAT ??$forward@UFishingItemGrade@@@std@@YA$$QAUFishingItemGrade@@AAU1@@Z
_TEXT	SEGMENT
__Arg$ = 8						; size = 4
??$forward@UFishingItemGrade@@@std@@YA$$QAUFishingItemGrade@@AAU1@@Z PROC ; std::forward<FishingItemGrade>, COMDAT

; 78   : 	{	// forward _Arg, given explicitly specified type parameter

  00000	55		 push	 ebp
  00001	8b ec		 mov	 ebp, esp

; 79   : 	return ((_Ty&&)_Arg);

  00003	8b 45 08	 mov	 eax, DWORD PTR __Arg$[ebp]

; 80   : 	}

  00006	5d		 pop	 ebp
  00007	c3		 ret	 0
??$forward@UFishingItemGrade@@@std@@YA$$QAUFishingItemGrade@@AAU1@@Z ENDP ; std::forward<FishingItemGrade>
_TEXT	ENDS
PUBLIC	??$forward@UFishingTypeInfo@@@std@@YA$$QAUFishingTypeInfo@@AAU1@@Z ; std::forward<FishingTypeInfo>
; Function compile flags: /Ogsp
;	COMDAT ??$forward@UFishingTypeInfo@@@std@@YA$$QAUFishingTypeInfo@@AAU1@@Z
_TEXT	SEGMENT
__Arg$ = 8						; size = 4
??$forward@UFishingTypeInfo@@@std@@YA$$QAUFishingTypeInfo@@AAU1@@Z PROC ; std::forward<FishingTypeInfo>, COMDAT

; 78   : 	{	// forward _Arg, given explicitly specified type parameter

  00000	55		 push	 ebp
  00001	8b ec		 mov	 ebp, esp

; 79   : 	return ((_Ty&&)_Arg);

  00003	8b 45 08	 mov	 eax, DWORD PTR __Arg$[ebp]

; 80   : 	}

  00006	5d		 pop	 ebp
  00007	c3		 ret	 0
??$forward@UFishingTypeInfo@@@std@@YA$$QAUFishingTypeInfo@@AAU1@@Z ENDP ; std::forward<FishingTypeInfo>
_TEXT	ENDS
PUBLIC	?_DECSTR@@YAXPADH@Z				; _DECSTR
; Function compile flags: /Ogsp
; File d:\lost saga for developer\youtube\tutorial\source\src\lsclient\stringprotect.h
;	COMDAT ?_DECSTR@@YAXPADH@Z
_TEXT	SEGMENT
_s$ = 8							; size = 4
_l$ = 12						; size = 4
?_DECSTR@@YAXPADH@Z PROC				; _DECSTR, COMDAT

; 40   : __forceinline void _DECSTR(char* s, int l){int i=0,l4=(l-1)/4,*p=(int*)s;s[l-1]=0;for(;i<l4;++i)*(p++)^=0xEAEBECED;for(i=l4*4;i<l-1;++i)s[i]^=0xED-i%4;}

  00000	55		 push	 ebp
  00001	8b ec		 mov	 ebp, esp
  00003	8b 4d 0c	 mov	 ecx, DWORD PTR _l$[ebp]
  00006	56		 push	 esi
  00007	8b 75 08	 mov	 esi, DWORD PTR _s$[ebp]
  0000a	57		 push	 edi
  0000b	8d 79 ff	 lea	 edi, DWORD PTR [ecx-1]
  0000e	8b c7		 mov	 eax, edi
  00010	99		 cdq
  00011	83 e2 03	 and	 edx, 3
  00014	03 c2		 add	 eax, edx
  00016	c1 f8 02	 sar	 eax, 2
  00019	8b d6		 mov	 edx, esi
  0001b	c6 44 0e ff 00	 mov	 BYTE PTR [esi+ecx-1], 0
  00020	85 c0		 test	 eax, eax
  00022	7e 0e		 jle	 SHORT $LN4@DECSTR
  00024	8b c8		 mov	 ecx, eax
$LL6@DECSTR:
  00026	81 32 ed ec eb
	ea		 xor	 DWORD PTR [edx], -353637139 ; eaebecedH
  0002c	83 c2 04	 add	 edx, 4
  0002f	49		 dec	 ecx
  00030	75 f4		 jne	 SHORT $LL6@DECSTR
$LN4@DECSTR:
  00032	c1 e0 02	 shl	 eax, 2
  00035	eb 17		 jmp	 SHORT $LN14@DECSTR
$LL3@DECSTR:
  00037	8b c8		 mov	 ecx, eax
  00039	81 e1 03 00 00
	80		 and	 ecx, -2147483645	; 80000003H
  0003f	79 05		 jns	 SHORT $LN13@DECSTR
  00041	49		 dec	 ecx
  00042	83 c9 fc	 or	 ecx, -4			; fffffffcH
  00045	41		 inc	 ecx
$LN13@DECSTR:
  00046	b2 ed		 mov	 dl, -19			; ffffffedH
  00048	2a d1		 sub	 dl, cl
  0004a	30 14 30	 xor	 BYTE PTR [eax+esi], dl
  0004d	40		 inc	 eax
$LN14@DECSTR:
  0004e	3b c7		 cmp	 eax, edi
  00050	7c e5		 jl	 SHORT $LL3@DECSTR
  00052	5f		 pop	 edi
  00053	5e		 pop	 esi
  00054	5d		 pop	 ebp
  00055	c3		 ret	 0
?_DECSTR@@YAXPADH@Z ENDP				; _DECSTR
_TEXT	ENDS
PUBLIC	__real@3f800000
PUBLIC	?Init@tagCostumeInfo@@QAEXXZ			; tagCostumeInfo::Init
EXTRN	__imp_?Clear@ioHashString@@QAEXXZ:PROC
;	COMDAT __real@3f800000
; File d:\lost saga for developer\youtube\tutorial\source\src\lsclient\costumeenumtype.h
CONST	SEGMENT
__real@3f800000 DD 03f800000r			; 1
; Function compile flags: /Ogsp
CONST	ENDS
;	COMDAT ?Init@tagCostumeInfo@@QAEXXZ
_TEXT	SEGMENT
?Init@tagCostumeInfo@@QAEXXZ PROC			; tagCostumeInfo::Init, COMDAT
; _this$ = ecx

; 111  : 		m_nCostumeCode = 0;
; 112  : 		m_nGradeType = 0;
; 113  : 		m_GlowColor.r = 0.0f;

  00000	0f 57 c0	 xorps	 xmm0, xmm0
  00003	53		 push	 ebx
  00004	56		 push	 esi
  00005	8b f1		 mov	 esi, ecx
  00007	57		 push	 edi

; 114  : 		m_GlowColor.g = 0.0f;
; 115  : 		m_GlowColor.b = 0.0f;
; 116  : 		m_GlowColor.a = 1.0f;
; 117  : 
; 118  : 		m_szEffect.Clear();

  00008	8b 3d 00 00 00
	00		 mov	 edi, DWORD PTR __imp_?Clear@ioHashString@@QAEXXZ
  0000e	33 db		 xor	 ebx, ebx
  00010	f3 0f 11 46 08	 movss	 DWORD PTR [esi+8], xmm0
  00015	f3 0f 11 46 0c	 movss	 DWORD PTR [esi+12], xmm0
  0001a	f3 0f 11 46 10	 movss	 DWORD PTR [esi+16], xmm0
  0001f	f3 0f 10 05 00
	00 00 00	 movss	 xmm0, DWORD PTR __real@3f800000
  00027	8d 4e 18	 lea	 ecx, DWORD PTR [esi+24]
  0002a	89 1e		 mov	 DWORD PTR [esi], ebx
  0002c	89 5e 04	 mov	 DWORD PTR [esi+4], ebx
  0002f	f3 0f 11 46 14	 movss	 DWORD PTR [esi+20], xmm0
  00034	ff d7		 call	 edi

; 119  : 		m_szEffectHW.Clear();

  00036	8d 4e 28	 lea	 ecx, DWORD PTR [esi+40]
  00039	ff d7		 call	 edi

; 120  : 		m_szSpring_Biped.Clear();

  0003b	8d 4e 38	 lea	 ecx, DWORD PTR [esi+56]
  0003e	ff d7		 call	 edi

; 121  : 		
; 122  : 		m_nArmorType = 0;
; 123  : 		m_nArmorSoundType = 0;
; 124  : 		m_szBodyMesh.Clear();

  00040	8d 4e 50	 lea	 ecx, DWORD PTR [esi+80]
  00043	89 5e 48	 mov	 DWORD PTR [esi+72], ebx
  00046	89 5e 4c	 mov	 DWORD PTR [esi+76], ebx
  00049	ff d7		 call	 edi

; 125  : 		m_szHandMesh.Clear();

  0004b	8d 4e 60	 lea	 ecx, DWORD PTR [esi+96]
  0004e	ff d7		 call	 edi

; 126  : 
; 127  : 		m_nInvisibleFaceType = 0;
; 128  : 		m_nFaceHM = 0;
; 129  : 		m_nFaceHW = 0;
; 130  : 
; 131  : 		m_nHairHM = 0;
; 132  : 		m_nHairHW = 0;
; 133  : 		m_szHelmetMesh.Clear();

  00050	8d 8e 84 00 00
	00		 lea	 ecx, DWORD PTR [esi+132]
  00056	89 5e 70	 mov	 DWORD PTR [esi+112], ebx
  00059	89 5e 74	 mov	 DWORD PTR [esi+116], ebx
  0005c	89 5e 78	 mov	 DWORD PTR [esi+120], ebx
  0005f	89 5e 7c	 mov	 DWORD PTR [esi+124], ebx
  00062	89 9e 80 00 00
	00		 mov	 DWORD PTR [esi+128], ebx
  00068	ff d7		 call	 edi

; 134  : 
; 135  : 		m_szCloakMesh.Clear();

  0006a	8d 8e 94 00 00
	00		 lea	 ecx, DWORD PTR [esi+148]
  00070	ff d7		 call	 edi

; 136  : 
; 137  : 		m_pCostumeSpringParam = NULL;
; 138  : 
; 139  : 		m_szName.Clear();

  00072	8d 8e a8 00 00
	00		 lea	 ecx, DWORD PTR [esi+168]
  00078	89 9e a4 00 00
	00		 mov	 DWORD PTR [esi+164], ebx
  0007e	ff d7		 call	 edi

; 140  : 		m_szIconName.Clear();

  00080	8d 8e b8 00 00
	00		 lea	 ecx, DWORD PTR [esi+184]
  00086	ff d7		 call	 edi
  00088	5f		 pop	 edi

; 141  : 
; 142  : 		m_nEnableClass = 0;

  00089	89 9e c8 00 00
	00		 mov	 DWORD PTR [esi+200], ebx

; 143  : 		m_nManual = 0;

  0008f	89 9e cc 00 00
	00		 mov	 DWORD PTR [esi+204], ebx

; 144  : 		m_nDisassembleCode = 0;

  00095	89 9e d0 00 00
	00		 mov	 DWORD PTR [esi+208], ebx

; 145  : 		m_nDisassembleMinCnt = 0;

  0009b	89 9e d4 00 00
	00		 mov	 DWORD PTR [esi+212], ebx

; 146  : 		m_nDisassembleMaxCnt = 0;

  000a1	89 9e d8 00 00
	00		 mov	 DWORD PTR [esi+216], ebx
  000a7	5e		 pop	 esi
  000a8	5b		 pop	 ebx

; 147  : 	}

  000a9	c3		 ret	 0
?Init@tagCostumeInfo@@QAEXXZ ENDP			; tagCostumeInfo::Init
_TEXT	ENDS
PUBLIC	??0tagCostumeInfo@@QAE@XZ			; tagCostumeInfo::tagCostumeInfo
;	COMDAT xdata$x
xdata$x	SEGMENT
__ehfuncinfo$??0tagCostumeInfo@@QAE@XZ DD 019930522H
	DD	09H
	DD	FLAT:__unwindtable$??0tagCostumeInfo@@QAE@XZ
	DD	2 DUP(00H)
	DD	2 DUP(00H)
	DD	00H
	DD	01H
__unwindtable$??0tagCostumeInfo@@QAE@XZ DD 0ffffffffH
	DD	FLAT:__unwindfunclet$??0tagCostumeInfo@@QAE@XZ$0
	DD	00H
	DD	FLAT:__unwindfunclet$??0tagCostumeInfo@@QAE@XZ$1
	DD	01H
	DD	FLAT:__unwindfunclet$??0tagCostumeInfo@@QAE@XZ$2
	DD	02H
	DD	FLAT:__unwindfunclet$??0tagCostumeInfo@@QAE@XZ$3
	DD	03H
	DD	FLAT:__unwindfunclet$??0tagCostumeInfo@@QAE@XZ$4
	DD	04H
	DD	FLAT:__unwindfunclet$??0tagCostumeInfo@@QAE@XZ$5
	DD	05H
	DD	FLAT:__unwindfunclet$??0tagCostumeInfo@@QAE@XZ$6
	DD	06H
	DD	FLAT:__unwindfunclet$??0tagCostumeInfo@@QAE@XZ$7
	DD	07H
	DD	FLAT:__unwindfunclet$??0tagCostumeInfo@@QAE@XZ$8
; Function compile flags: /Ogsp
xdata$x	ENDS
;	COMDAT ??0tagCostumeInfo@@QAE@XZ
_TEXT	SEGMENT
_this$ = -16						; size = 4
__$EHRec$ = -12						; size = 12
??0tagCostumeInfo@@QAE@XZ PROC				; tagCostumeInfo::tagCostumeInfo, COMDAT
; _this$ = ecx

; 149  : 	tagCostumeInfo()

  00000	6a 04		 push	 4
  00002	b8 00 00 00 00	 mov	 eax, __ehhandler$??0tagCostumeInfo@@QAE@XZ
  00007	e8 00 00 00 00	 call	 __EH_prolog3
  0000c	8b f9		 mov	 edi, ecx
  0000e	89 7d f0	 mov	 DWORD PTR _this$[ebp], edi
  00011	8b 35 00 00 00
	00		 mov	 esi, DWORD PTR __imp_??0ioHashString@@QAE@XZ
  00017	8d 4f 18	 lea	 ecx, DWORD PTR [edi+24]
  0001a	ff d6		 call	 esi
  0001c	83 65 fc 00	 and	 DWORD PTR __$EHRec$[ebp+8], 0
  00020	8d 4f 28	 lea	 ecx, DWORD PTR [edi+40]
  00023	ff d6		 call	 esi
  00025	8d 4f 38	 lea	 ecx, DWORD PTR [edi+56]
  00028	c6 45 fc 01	 mov	 BYTE PTR __$EHRec$[ebp+8], 1
  0002c	ff d6		 call	 esi
  0002e	8d 4f 50	 lea	 ecx, DWORD PTR [edi+80]
  00031	c6 45 fc 02	 mov	 BYTE PTR __$EHRec$[ebp+8], 2
  00035	ff d6		 call	 esi
  00037	8d 4f 60	 lea	 ecx, DWORD PTR [edi+96]
  0003a	c6 45 fc 03	 mov	 BYTE PTR __$EHRec$[ebp+8], 3
  0003e	ff d6		 call	 esi
  00040	8d 8f 84 00 00
	00		 lea	 ecx, DWORD PTR [edi+132]
  00046	c6 45 fc 04	 mov	 BYTE PTR __$EHRec$[ebp+8], 4
  0004a	ff d6		 call	 esi
  0004c	8d 8f 94 00 00
	00		 lea	 ecx, DWORD PTR [edi+148]
  00052	c6 45 fc 05	 mov	 BYTE PTR __$EHRec$[ebp+8], 5
  00056	ff d6		 call	 esi
  00058	8d 8f a8 00 00
	00		 lea	 ecx, DWORD PTR [edi+168]
  0005e	c6 45 fc 06	 mov	 BYTE PTR __$EHRec$[ebp+8], 6
  00062	ff d6		 call	 esi
  00064	8d 8f b8 00 00
	00		 lea	 ecx, DWORD PTR [edi+184]
  0006a	c6 45 fc 07	 mov	 BYTE PTR __$EHRec$[ebp+8], 7
  0006e	ff d6		 call	 esi

; 150  : 	{
; 151  : 		Init();

  00070	8b cf		 mov	 ecx, edi
  00072	c6 45 fc 08	 mov	 BYTE PTR __$EHRec$[ebp+8], 8
  00076	e8 00 00 00 00	 call	 ?Init@tagCostumeInfo@@QAEXXZ ; tagCostumeInfo::Init

; 152  : 	}

  0007b	8b c7		 mov	 eax, edi
  0007d	e8 00 00 00 00	 call	 __EH_epilog3
  00082	c3		 ret	 0
_TEXT	ENDS
;	COMDAT text$x
text$x	SEGMENT
__unwindfunclet$??0tagCostumeInfo@@QAE@XZ$0:
  00000	8b 4d f0	 mov	 ecx, DWORD PTR _this$[ebp]
  00003	83 c1 18	 add	 ecx, 24			; 00000018H
  00006	ff 25 00 00 00
	00		 jmp	 DWORD PTR __imp_??1ioHashString@@QAE@XZ
__unwindfunclet$??0tagCostumeInfo@@QAE@XZ$1:
  0000c	8b 4d f0	 mov	 ecx, DWORD PTR _this$[ebp]
  0000f	83 c1 28	 add	 ecx, 40			; 00000028H
  00012	ff 25 00 00 00
	00		 jmp	 DWORD PTR __imp_??1ioHashString@@QAE@XZ
__unwindfunclet$??0tagCostumeInfo@@QAE@XZ$2:
  00018	8b 4d f0	 mov	 ecx, DWORD PTR _this$[ebp]
  0001b	83 c1 38	 add	 ecx, 56			; 00000038H
  0001e	ff 25 00 00 00
	00		 jmp	 DWORD PTR __imp_??1ioHashString@@QAE@XZ
__unwindfunclet$??0tagCostumeInfo@@QAE@XZ$3:
  00024	8b 4d f0	 mov	 ecx, DWORD PTR _this$[ebp]
  00027	83 c1 50	 add	 ecx, 80			; 00000050H
  0002a	ff 25 00 00 00
	00		 jmp	 DWORD PTR __imp_??1ioHashString@@QAE@XZ
__unwindfunclet$??0tagCostumeInfo@@QAE@XZ$4:
  00030	8b 4d f0	 mov	 ecx, DWORD PTR _this$[ebp]
  00033	83 c1 60	 add	 ecx, 96			; 00000060H
  00036	ff 25 00 00 00
	00		 jmp	 DWORD PTR __imp_??1ioHashString@@QAE@XZ
__unwindfunclet$??0tagCostumeInfo@@QAE@XZ$5:
  0003c	8b 4d f0	 mov	 ecx, DWORD PTR _this$[ebp]
  0003f	81 c1 84 00 00
	00		 add	 ecx, 132		; 00000084H
  00045	ff 25 00 00 00
	00		 jmp	 DWORD PTR __imp_??1ioHashString@@QAE@XZ
__unwindfunclet$??0tagCostumeInfo@@QAE@XZ$6:
  0004b	8b 4d f0	 mov	 ecx, DWORD PTR _this$[ebp]
  0004e	81 c1 94 00 00
	00		 add	 ecx, 148		; 00000094H
  00054	ff 25 00 00 00
	00		 jmp	 DWORD PTR __imp_??1ioHashString@@QAE@XZ
__unwindfunclet$??0tagCostumeInfo@@QAE@XZ$7:
  0005a	8b 4d f0	 mov	 ecx, DWORD PTR _this$[ebp]
  0005d	81 c1 a8 00 00
	00		 add	 ecx, 168		; 000000a8H
  00063	ff 25 00 00 00
	00		 jmp	 DWORD PTR __imp_??1ioHashString@@QAE@XZ
__unwindfunclet$??0tagCostumeInfo@@QAE@XZ$8:
  00069	8b 4d f0	 mov	 ecx, DWORD PTR _this$[ebp]
  0006c	81 c1 b8 00 00
	00		 add	 ecx, 184		; 000000b8H
  00072	ff 25 00 00 00
	00		 jmp	 DWORD PTR __imp_??1ioHashString@@QAE@XZ
__ehhandler$??0tagCostumeInfo@@QAE@XZ:
  00078	8b 54 24 08	 mov	 edx, DWORD PTR [esp+8]
  0007c	8d 42 0c	 lea	 eax, DWORD PTR [edx+12]
  0007f	8b 4a ec	 mov	 ecx, DWORD PTR [edx-20]
  00082	33 c8		 xor	 ecx, eax
  00084	e8 00 00 00 00	 call	 @__security_check_cookie@4
  00089	b8 00 00 00 00	 mov	 eax, OFFSET __ehfuncinfo$??0tagCostumeInfo@@QAE@XZ
  0008e	e9 00 00 00 00	 jmp	 ___CxxFrameHandler3
text$x	ENDS
??0tagCostumeInfo@@QAE@XZ ENDP				; tagCostumeInfo::tagCostumeInfo
PUBLIC	?GetIconName@CostumeShopInfo@@QAEAAVioHashString@@XZ ; CostumeShopInfo::GetIconName
; Function compile flags: /Ogsp
; File d:\lost saga for developer\youtube\tutorial\source\src\lsclient\iocostumeshopinfomanager.h
;	COMDAT ?GetIconName@CostumeShopInfo@@QAEAAVioHashString@@XZ
_TEXT	SEGMENT
?GetIconName@CostumeShopInfo@@QAEAAVioHashString@@XZ PROC ; CostumeShopInfo::GetIconName, COMDAT
; _this$ = ecx

; 64   : 	inline ioHashString &GetIconName() { return m_szIconName; }

  00000	8d 41 50	 lea	 eax, DWORD PTR [ecx+80]
  00003	c3		 ret	 0
?GetIconName@CostumeShopInfo@@QAEAAVioHashString@@XZ ENDP ; CostumeShopInfo::GetIconName
_TEXT	ENDS
PUBLIC	?GetItemLargeIconName@ioItem@@QBEABVioHashString@@XZ ; ioItem::GetItemLargeIconName
; Function compile flags: /Ogsp
; File d:\lost saga for developer\youtube\tutorial\source\src\lsclient\ioitem.h
;	COMDAT ?GetItemLargeIconName@ioItem@@QBEABVioHashString@@XZ
_TEXT	SEGMENT
?GetItemLargeIconName@ioItem@@QBEABVioHashString@@XZ PROC ; ioItem::GetItemLargeIconName, COMDAT
; _this$ = ecx

; 288  : 	inline const ioHashString& GetItemLargeIconName() const { return m_ItemLargeIconFile; }

  00000	8d 81 14 02 00
	00		 lea	 eax, DWORD PTR [ecx+532]
  00006	c3		 ret	 0
?GetItemLargeIconName@ioItem@@QBEABVioHashString@@XZ ENDP ; ioItem::GetItemLargeIconName
_TEXT	ENDS
PUBLIC	?GetExtraType@ioEtcItem@@QBEHXZ			; ioEtcItem::GetExtraType
; Function compile flags: /Ogsp
; File d:\lost saga for developer\youtube\tutorial\source\src\lsclient\ioetcitem.h
;	COMDAT ?GetExtraType@ioEtcItem@@QBEHXZ
_TEXT	SEGMENT
?GetExtraType@ioEtcItem@@QBEHXZ PROC			; ioEtcItem::GetExtraType, COMDAT
; _this$ = ecx

; 425  : 	inline int	   GetExtraType() const { return m_iExtraType; }

  00000	8b 41 38	 mov	 eax, DWORD PTR [ecx+56]
  00003	c3		 ret	 0
?GetExtraType@ioEtcItem@@QBEHXZ ENDP			; ioEtcItem::GetExtraType
_TEXT	ENDS
PUBLIC	?GetIconName@ioEtcItem@@QBEABVioHashString@@XZ	; ioEtcItem::GetIconName
; Function compile flags: /Ogsp
;	COMDAT ?GetIconName@ioEtcItem@@QBEABVioHashString@@XZ
_TEXT	SEGMENT
?GetIconName@ioEtcItem@@QBEABVioHashString@@XZ PROC	; ioEtcItem::GetIconName, COMDAT
; _this$ = ecx

; 467  : 	inline const ioHashString& GetIconName() const { return m_IconName; }

  00000	8d 81 60 01 00
	00		 lea	 eax, DWORD PTR [ecx+352]
  00006	c3		 ret	 0
?GetIconName@ioEtcItem@@QBEABVioHashString@@XZ ENDP	; ioEtcItem::GetIconName
_TEXT	ENDS
PUBLIC	?GetIconName@RandomMachineInfo@@QBEABVioHashString@@XZ ; RandomMachineInfo::GetIconName
; Function compile flags: /Ogsp
; File d:\lost saga for developer\youtube\tutorial\source\src\lsclient\ioextraiteminfomanager.h
;	COMDAT ?GetIconName@RandomMachineInfo@@QBEABVioHashString@@XZ
_TEXT	SEGMENT
?GetIconName@RandomMachineInfo@@QBEABVioHashString@@XZ PROC ; RandomMachineInfo::GetIconName, COMDAT
; _this$ = ecx

; 117  : 	inline const ioHashString& GetIconName() const { return m_IconName; }

  00000	8d 41 18	 lea	 eax, DWORD PTR [ecx+24]
  00003	c3		 ret	 0
?GetIconName@RandomMachineInfo@@QBEABVioHashString@@XZ ENDP ; RandomMachineInfo::GetIconName
_TEXT	ENDS
EXTRN	__imp_??0exception@std@@QAE@ABV01@@Z:PROC
; Function compile flags: /Ogsp
;	COMDAT ??0bad_alloc@std@@QAE@ABV01@@Z
_TEXT	SEGMENT
___that$ = 8						; size = 4
??0bad_alloc@std@@QAE@ABV01@@Z PROC			; std::bad_alloc::bad_alloc, COMDAT
; _this$ = ecx
  00000	55		 push	 ebp
  00001	8b ec		 mov	 ebp, esp
  00003	56		 push	 esi
  00004	ff 75 08	 push	 DWORD PTR ___that$[ebp]
  00007	8b f1		 mov	 esi, ecx
  00009	ff 15 00 00 00
	00		 call	 DWORD PTR __imp_??0exception@std@@QAE@ABV01@@Z
  0000f	c7 06 00 00 00
	00		 mov	 DWORD PTR [esi], OFFSET ??_7bad_alloc@std@@6B@
  00015	8b c6		 mov	 eax, esi
  00017	5e		 pop	 esi
  00018	5d		 pop	 ebp
  00019	c2 04 00	 ret	 4
??0bad_alloc@std@@QAE@ABV01@@Z ENDP			; std::bad_alloc::bad_alloc
_TEXT	ENDS
PUBLIC	__real@4f800000
PUBLIC	??0FishingItemGrade@@QAE@XZ			; FishingItemGrade::FishingItemGrade
;	COMDAT __real@4f800000
; File d:\lost saga for developer\youtube\tutorial\source\src\lsclient\stdafx.h
CONST	SEGMENT
__real@4f800000 DD 04f800000r			; 4.29497e+009
CONST	ENDS
;	COMDAT xdata$x
xdata$x	SEGMENT
__unwindtable$??0FishingItemGrade@@QAE@XZ DD 0ffffffffH
	DD	FLAT:__unwindfunclet$??0FishingItemGrade@@QAE@XZ$0
__ehfuncinfo$??0FishingItemGrade@@QAE@XZ DD 019930522H
	DD	01H
	DD	FLAT:__unwindtable$??0FishingItemGrade@@QAE@XZ
	DD	2 DUP(00H)
	DD	2 DUP(00H)
	DD	00H
	DD	01H
; Function compile flags: /Ogsp
; File d:\lost saga for developer\youtube\tutorial\source\src\lsclient\iofishingmanager.h
xdata$x	ENDS
;	COMDAT ??0FishingItemGrade@@QAE@XZ
_TEXT	SEGMENT
tv134 = -16						; size = 4
_this$ = -16						; size = 4
__$EHRec$ = -12						; size = 12
??0FishingItemGrade@@QAE@XZ PROC			; FishingItemGrade::FishingItemGrade, COMDAT
; _this$ = ecx

; 27   : 	FishingItemGrade()

  00000	6a 04		 push	 4
  00002	b8 00 00 00 00	 mov	 eax, __ehhandler$??0FishingItemGrade@@QAE@XZ
  00007	e8 00 00 00 00	 call	 __EH_prolog3
  0000c	8b f1		 mov	 esi, ecx
  0000e	89 75 f0	 mov	 DWORD PTR _this$[ebp], esi
  00011	8b 3d 00 00 00
	00		 mov	 edi, DWORD PTR __imp_??0ioHashString@@QAE@XZ
  00017	8d 4e 04	 lea	 ecx, DWORD PTR [esi+4]
  0001a	ff d7		 call	 edi
  0001c	83 65 fc 00	 and	 DWORD PTR __$EHRec$[ebp+8], 0
  00020	8d 4e 14	 lea	 ecx, DWORD PTR [esi+20]
  00023	ff d7		 call	 edi

; 28   : 	{
; 29   : 		m_iGradeNum = 0;

  00025	83 26 00	 and	 DWORD PTR [esi], 0

; 30   : 		m_fValue = FLOAT1;

  00028	b8 01 00 00 00	 mov	 eax, 1
  0002d	89 45 f0	 mov	 DWORD PTR tv134[ebp], eax
  00030	db 45 f0	 fild	 DWORD PTR tv134[ebp]
  00033	85 c0		 test	 eax, eax
  00035	79 06		 jns	 SHORT $LN8@FishingIte
  00037	d8 05 00 00 00
	00		 fadd	 DWORD PTR __real@4f800000
$LN8@FishingIte:
  0003d	d9 5e 24	 fstp	 DWORD PTR [esi+36]

; 31   : 	}

  00040	8b c6		 mov	 eax, esi
  00042	e8 00 00 00 00	 call	 __EH_epilog3
  00047	c3		 ret	 0
_TEXT	ENDS
;	COMDAT text$x
text$x	SEGMENT
__unwindfunclet$??0FishingItemGrade@@QAE@XZ$0:
  00000	8b 4d f0	 mov	 ecx, DWORD PTR _this$[ebp]
  00003	83 c1 04	 add	 ecx, 4
  00006	ff 25 00 00 00
	00		 jmp	 DWORD PTR __imp_??1ioHashString@@QAE@XZ
__ehhandler$??0FishingItemGrade@@QAE@XZ:
  0000c	8b 54 24 08	 mov	 edx, DWORD PTR [esp+8]
  00010	8d 42 0c	 lea	 eax, DWORD PTR [edx+12]
  00013	8b 4a ec	 mov	 ecx, DWORD PTR [edx-20]
  00016	33 c8		 xor	 ecx, eax
  00018	e8 00 00 00 00	 call	 @__security_check_cookie@4
  0001d	b8 00 00 00 00	 mov	 eax, OFFSET __ehfuncinfo$??0FishingItemGrade@@QAE@XZ
  00022	e9 00 00 00 00	 jmp	 ___CxxFrameHandler3
text$x	ENDS
??0FishingItemGrade@@QAE@XZ ENDP			; FishingItemGrade::FishingItemGrade
PUBLIC	?GetSingleton@ioFishingManager@@SAAAV1@XZ	; ioFishingManager::GetSingleton
; Function compile flags: /Ogsp
; File d:\lost saga for developer\youtube\tutorial\source\src\lsclient\iofishingmanager.cpp
;	COMDAT ?GetSingleton@ioFishingManager@@SAAAV1@XZ
_TEXT	SEGMENT
?GetSingleton@ioFishingManager@@SAAAV1@XZ PROC		; ioFishingManager::GetSingleton, COMDAT

; 145  : 	return Singleton< ioFishingManager >::GetSingleton();

  00000	a1 00 00 00 00	 mov	 eax, DWORD PTR ?ms_Singleton@?$Singleton@VioFishingManager@@@@1PAVioFishingManager@@A ; Singleton<ioFishingManager>::ms_Singleton

; 146  : }

  00005	c3		 ret	 0
?GetSingleton@ioFishingManager@@SAAAV1@XZ ENDP		; ioFishingManager::GetSingleton
_TEXT	ENDS
PUBLIC	?GetFishingItemGradeName@ioFishingManager@@QAE?AVioHashString@@H@Z ; ioFishingManager::GetFishingItemGradeName
; Function compile flags: /Ogsp
;	COMDAT ?GetFishingItemGradeName@ioFishingManager@@QAE?AVioHashString@@H@Z
_TEXT	SEGMENT
$T512747 = -4						; size = 4
___$ReturnUdt$ = 8					; size = 4
_iItemGrade$ = 12					; size = 4
?GetFishingItemGradeName@ioFishingManager@@QAE?AVioHashString@@H@Z PROC ; ioFishingManager::GetFishingItemGradeName, COMDAT
; _this$ = ecx

; 191  : {

  00000	55		 push	 ebp
  00001	8b ec		 mov	 ebp, esp
  00003	51		 push	 ecx

; 192  : 	int iGradeCnt = m_vFishingItemGradeList.size();

  00004	8b 41 18	 mov	 eax, DWORD PTR [ecx+24]
  00007	2b 41 14	 sub	 eax, DWORD PTR [ecx+20]
  0000a	56		 push	 esi
  0000b	57		 push	 edi
  0000c	6a 28		 push	 40			; 00000028H
  0000e	99		 cdq
  0000f	5e		 pop	 esi
  00010	f7 fe		 idiv	 esi
  00012	83 65 fc 00	 and	 DWORD PTR $T512747[ebp], 0

; 193  : 	for( int i=0; i < iGradeCnt; ++i )

  00016	33 d2		 xor	 edx, edx
  00018	85 c0		 test	 eax, eax
  0001a	7e 14		 jle	 SHORT $LN2@GetFishing

; 194  : 	{
; 195  : 		if( m_vFishingItemGradeList[i].m_iGradeNum == iItemGrade )

  0001c	8b 49 14	 mov	 ecx, DWORD PTR [ecx+20]
  0001f	8b f1		 mov	 esi, ecx
$LL4@GetFishing:
  00021	8b 3e		 mov	 edi, DWORD PTR [esi]
  00023	3b 7d 0c	 cmp	 edi, DWORD PTR _iItemGrade$[ebp]
  00026	74 1a		 je	 SHORT $LN16@GetFishing

; 193  : 	for( int i=0; i < iGradeCnt; ++i )

  00028	42		 inc	 edx
  00029	83 c6 28	 add	 esi, 40			; 00000028H
  0002c	3b d0		 cmp	 edx, eax
  0002e	7c f1		 jl	 SHORT $LL4@GetFishing
$LN2@GetFishing:

; 198  : 		}
; 199  : 	}
; 200  : 
; 201  : 	return ioHashString();

  00030	8b 4d 08	 mov	 ecx, DWORD PTR ___$ReturnUdt$[ebp]
  00033	ff 15 00 00 00
	00		 call	 DWORD PTR __imp_??0ioHashString@@QAE@XZ
$LN18@GetFishing:
  00039	8b 45 08	 mov	 eax, DWORD PTR ___$ReturnUdt$[ebp]
  0003c	5f		 pop	 edi
  0003d	5e		 pop	 esi

; 202  : }

  0003e	c9		 leave
  0003f	c2 08 00	 ret	 8
$LN16@GetFishing:

; 196  : 		{
; 197  : 			return m_vFishingItemGradeList[i].m_Name;

  00042	6b d2 28	 imul	 edx, 40			; 00000028H
  00045	8d 44 0a 04	 lea	 eax, DWORD PTR [edx+ecx+4]
  00049	8b 4d 08	 mov	 ecx, DWORD PTR ___$ReturnUdt$[ebp]
  0004c	50		 push	 eax
  0004d	ff 15 00 00 00
	00		 call	 DWORD PTR __imp_??0ioHashString@@QAE@ABV0@@Z
  00053	eb e4		 jmp	 SHORT $LN18@GetFishing
?GetFishingItemGradeName@ioFishingManager@@QAE?AVioHashString@@H@Z ENDP ; ioFishingManager::GetFishingItemGradeName
_TEXT	ENDS
PUBLIC	?GetFishingItemGradeDesc@ioFishingManager@@QAE?AVioHashString@@H@Z ; ioFishingManager::GetFishingItemGradeDesc
; Function compile flags: /Ogsp
;	COMDAT ?GetFishingItemGradeDesc@ioFishingManager@@QAE?AVioHashString@@H@Z
_TEXT	SEGMENT
$T512767 = -4						; size = 4
___$ReturnUdt$ = 8					; size = 4
_iItemGrade$ = 12					; size = 4
?GetFishingItemGradeDesc@ioFishingManager@@QAE?AVioHashString@@H@Z PROC ; ioFishingManager::GetFishingItemGradeDesc, COMDAT
; _this$ = ecx

; 205  : {

  00000	55		 push	 ebp
  00001	8b ec		 mov	 ebp, esp
  00003	51		 push	 ecx

; 206  : 	int iGradeCnt = m_vFishingItemGradeList.size();

  00004	8b 41 18	 mov	 eax, DWORD PTR [ecx+24]
  00007	2b 41 14	 sub	 eax, DWORD PTR [ecx+20]
  0000a	56		 push	 esi
  0000b	57		 push	 edi
  0000c	6a 28		 push	 40			; 00000028H
  0000e	99		 cdq
  0000f	5e		 pop	 esi
  00010	f7 fe		 idiv	 esi
  00012	83 65 fc 00	 and	 DWORD PTR $T512767[ebp], 0

; 207  : 	for( int i=0; i < iGradeCnt; ++i )

  00016	33 d2		 xor	 edx, edx
  00018	85 c0		 test	 eax, eax
  0001a	7e 14		 jle	 SHORT $LN2@GetFishing@2

; 208  : 	{
; 209  : 		if( m_vFishingItemGradeList[i].m_iGradeNum == iItemGrade )

  0001c	8b 49 14	 mov	 ecx, DWORD PTR [ecx+20]
  0001f	8b f1		 mov	 esi, ecx
$LL4@GetFishing@2:
  00021	8b 3e		 mov	 edi, DWORD PTR [esi]
  00023	3b 7d 0c	 cmp	 edi, DWORD PTR _iItemGrade$[ebp]
  00026	74 1a		 je	 SHORT $LN16@GetFishing@2

; 207  : 	for( int i=0; i < iGradeCnt; ++i )

  00028	42		 inc	 edx
  00029	83 c6 28	 add	 esi, 40			; 00000028H
  0002c	3b d0		 cmp	 edx, eax
  0002e	7c f1		 jl	 SHORT $LL4@GetFishing@2
$LN2@GetFishing@2:

; 212  : 		}
; 213  : 	}
; 214  : 
; 215  : 	return ioHashString();

  00030	8b 4d 08	 mov	 ecx, DWORD PTR ___$ReturnUdt$[ebp]
  00033	ff 15 00 00 00
	00		 call	 DWORD PTR __imp_??0ioHashString@@QAE@XZ
$LN18@GetFishing@2:
  00039	8b 45 08	 mov	 eax, DWORD PTR ___$ReturnUdt$[ebp]
  0003c	5f		 pop	 edi
  0003d	5e		 pop	 esi

; 216  : }

  0003e	c9		 leave
  0003f	c2 08 00	 ret	 8
$LN16@GetFishing@2:

; 210  : 		{
; 211  : 			return m_vFishingItemGradeList[i].m_Desc;

  00042	6b d2 28	 imul	 edx, 40			; 00000028H
  00045	8d 44 0a 14	 lea	 eax, DWORD PTR [edx+ecx+20]
  00049	8b 4d 08	 mov	 ecx, DWORD PTR ___$ReturnUdt$[ebp]
  0004c	50		 push	 eax
  0004d	ff 15 00 00 00
	00		 call	 DWORD PTR __imp_??0ioHashString@@QAE@ABV0@@Z
  00053	eb e4		 jmp	 SHORT $LN18@GetFishing@2
?GetFishingItemGradeDesc@ioFishingManager@@QAE?AVioHashString@@H@Z ENDP ; ioFishingManager::GetFishingItemGradeDesc
_TEXT	ENDS
PUBLIC	?GetFishingRod@ioFishingManager@@QAE?AVioHashString@@H@Z ; ioFishingManager::GetFishingRod
EXTRN	?FindEtcItem@ioEtcItemManager@@QAEPAVioEtcItem@@K@Z:PROC ; ioEtcItemManager::FindEtcItem
; Function compile flags: /Ogsp
;	COMDAT ?GetFishingRod@ioFishingManager@@QAE?AVioHashString@@H@Z
_TEXT	SEGMENT
$T512787 = -4						; size = 4
___$ReturnUdt$ = 8					; size = 4
_iType$ = 12						; size = 4
?GetFishingRod@ioFishingManager@@QAE?AVioHashString@@H@Z PROC ; ioFishingManager::GetFishingRod, COMDAT
; _this$ = ecx

; 250  : {

  00000	55		 push	 ebp
  00001	8b ec		 mov	 ebp, esp
  00003	51		 push	 ecx
  00004	83 65 fc 00	 and	 DWORD PTR $T512787[ebp], 0
  00008	56		 push	 esi

; 251  : 	int iExtraType = -1;
; 252  : 	ioEtcItem *pItem = g_EtcItemMgr.FindEtcItem( iType );

  00009	ff 75 0c	 push	 DWORD PTR _iType$[ebp]
  0000c	8b f1		 mov	 esi, ecx
  0000e	8b 0d 00 00 00
	00		 mov	 ecx, DWORD PTR ?ms_Singleton@?$Singleton@VioEtcItemManager@@@@1PAVioEtcItemManager@@A ; Singleton<ioEtcItemManager>::ms_Singleton
  00014	e8 00 00 00 00	 call	 ?FindEtcItem@ioEtcItemManager@@QAEPAVioEtcItem@@K@Z ; ioEtcItemManager::FindEtcItem

; 253  : 	if( pItem )

  00019	85 c0		 test	 eax, eax
  0001b	74 25		 je	 SHORT $LN1@GetFishing@3

; 254  : 	{
; 255  : 		iExtraType = pItem->GetExtraType() - 1;

  0001d	8b 40 38	 mov	 eax, DWORD PTR [eax+56]
  00020	48		 dec	 eax

; 256  : 	}
; 257  : 
; 258  : 	if( COMPARE( iExtraType, 0, (int)m_vFishingTypeInfoList.size() ) )

  00021	78 1f		 js	 SHORT $LN1@GetFishing@3
  00023	8b 4e 28	 mov	 ecx, DWORD PTR [esi+40]
  00026	2b 4e 24	 sub	 ecx, DWORD PTR [esi+36]
  00029	c1 f9 06	 sar	 ecx, 6
  0002c	3b c1		 cmp	 eax, ecx
  0002e	7d 12		 jge	 SHORT $LN1@GetFishing@3

; 259  : 	{
; 260  : 		return m_vFishingTypeInfoList[iExtraType].m_FishingRod;

  00030	8b 4d 08	 mov	 ecx, DWORD PTR ___$ReturnUdt$[ebp]
  00033	c1 e0 06	 shl	 eax, 6
  00036	03 46 24	 add	 eax, DWORD PTR [esi+36]
  00039	50		 push	 eax
  0003a	ff 15 00 00 00
	00		 call	 DWORD PTR __imp_??0ioHashString@@QAE@ABV0@@Z
  00040	eb 09		 jmp	 SHORT $LN15@GetFishing@3
$LN1@GetFishing@3:

; 261  : 	}
; 262  : 
; 263  : 	return ioHashString();

  00042	8b 4d 08	 mov	 ecx, DWORD PTR ___$ReturnUdt$[ebp]
  00045	ff 15 00 00 00
	00		 call	 DWORD PTR __imp_??0ioHashString@@QAE@XZ
$LN15@GetFishing@3:
  0004b	8b 45 08	 mov	 eax, DWORD PTR ___$ReturnUdt$[ebp]
  0004e	5e		 pop	 esi

; 264  : }

  0004f	c9		 leave
  00050	c2 08 00	 ret	 8
?GetFishingRod@ioFishingManager@@QAE?AVioHashString@@H@Z ENDP ; ioFishingManager::GetFishingRod
_TEXT	ENDS
PUBLIC	?GetFishingReadyEffect@ioFishingManager@@QAE?AVioHashString@@H@Z ; ioFishingManager::GetFishingReadyEffect
; Function compile flags: /Ogsp
;	COMDAT ?GetFishingReadyEffect@ioFishingManager@@QAE?AVioHashString@@H@Z
_TEXT	SEGMENT
$T512809 = -4						; size = 4
___$ReturnUdt$ = 8					; size = 4
_iType$ = 12						; size = 4
?GetFishingReadyEffect@ioFishingManager@@QAE?AVioHashString@@H@Z PROC ; ioFishingManager::GetFishingReadyEffect, COMDAT
; _this$ = ecx

; 267  : {

  00000	55		 push	 ebp
  00001	8b ec		 mov	 ebp, esp
  00003	51		 push	 ecx
  00004	83 65 fc 00	 and	 DWORD PTR $T512809[ebp], 0
  00008	56		 push	 esi

; 268  : 	int iExtraType = -1;
; 269  : 	ioEtcItem *pItem = g_EtcItemMgr.FindEtcItem( iType );

  00009	ff 75 0c	 push	 DWORD PTR _iType$[ebp]
  0000c	8b f1		 mov	 esi, ecx
  0000e	8b 0d 00 00 00
	00		 mov	 ecx, DWORD PTR ?ms_Singleton@?$Singleton@VioEtcItemManager@@@@1PAVioEtcItemManager@@A ; Singleton<ioEtcItemManager>::ms_Singleton
  00014	e8 00 00 00 00	 call	 ?FindEtcItem@ioEtcItemManager@@QAEPAVioEtcItem@@K@Z ; ioEtcItemManager::FindEtcItem

; 270  : 	if( pItem )

  00019	85 c0		 test	 eax, eax
  0001b	74 29		 je	 SHORT $LN1@GetFishing@4

; 271  : 	{
; 272  : 		iExtraType = pItem->GetExtraType() - 1;

  0001d	8b 40 38	 mov	 eax, DWORD PTR [eax+56]
  00020	48		 dec	 eax

; 273  : 	}
; 274  : 
; 275  : 	if( COMPARE( iExtraType, 0, (int)m_vFishingTypeInfoList.size() ) )

  00021	78 23		 js	 SHORT $LN1@GetFishing@4
  00023	8b 4e 28	 mov	 ecx, DWORD PTR [esi+40]
  00026	2b 4e 24	 sub	 ecx, DWORD PTR [esi+36]
  00029	c1 f9 06	 sar	 ecx, 6
  0002c	3b c1		 cmp	 eax, ecx
  0002e	7d 16		 jge	 SHORT $LN1@GetFishing@4

; 276  : 	{
; 277  : 		return m_vFishingTypeInfoList[iExtraType].m_FishingReadyEffect;

  00030	8b 4e 24	 mov	 ecx, DWORD PTR [esi+36]
  00033	c1 e0 06	 shl	 eax, 6
  00036	8d 44 08 10	 lea	 eax, DWORD PTR [eax+ecx+16]
  0003a	8b 4d 08	 mov	 ecx, DWORD PTR ___$ReturnUdt$[ebp]
  0003d	50		 push	 eax
  0003e	ff 15 00 00 00
	00		 call	 DWORD PTR __imp_??0ioHashString@@QAE@ABV0@@Z
  00044	eb 09		 jmp	 SHORT $LN15@GetFishing@4
$LN1@GetFishing@4:

; 278  : 	}
; 279  : 
; 280  : 	return ioHashString();

  00046	8b 4d 08	 mov	 ecx, DWORD PTR ___$ReturnUdt$[ebp]
  00049	ff 15 00 00 00
	00		 call	 DWORD PTR __imp_??0ioHashString@@QAE@XZ
$LN15@GetFishing@4:
  0004f	8b 45 08	 mov	 eax, DWORD PTR ___$ReturnUdt$[ebp]
  00052	5e		 pop	 esi

; 281  : }

  00053	c9		 leave
  00054	c2 08 00	 ret	 8
?GetFishingReadyEffect@ioFishingManager@@QAE?AVioHashString@@H@Z ENDP ; ioFishingManager::GetFishingReadyEffect
_TEXT	ENDS
PUBLIC	?GetFishingWaitEffect@ioFishingManager@@QAE?AVioHashString@@H@Z ; ioFishingManager::GetFishingWaitEffect
; Function compile flags: /Ogsp
;	COMDAT ?GetFishingWaitEffect@ioFishingManager@@QAE?AVioHashString@@H@Z
_TEXT	SEGMENT
$T512831 = -4						; size = 4
___$ReturnUdt$ = 8					; size = 4
_iType$ = 12						; size = 4
?GetFishingWaitEffect@ioFishingManager@@QAE?AVioHashString@@H@Z PROC ; ioFishingManager::GetFishingWaitEffect, COMDAT
; _this$ = ecx

; 284  : {

  00000	55		 push	 ebp
  00001	8b ec		 mov	 ebp, esp
  00003	51		 push	 ecx
  00004	83 65 fc 00	 and	 DWORD PTR $T512831[ebp], 0
  00008	56		 push	 esi

; 285  : 	int iExtraType = -1;
; 286  : 	ioEtcItem *pItem = g_EtcItemMgr.FindEtcItem( iType );

  00009	ff 75 0c	 push	 DWORD PTR _iType$[ebp]
  0000c	8b f1		 mov	 esi, ecx
  0000e	8b 0d 00 00 00
	00		 mov	 ecx, DWORD PTR ?ms_Singleton@?$Singleton@VioEtcItemManager@@@@1PAVioEtcItemManager@@A ; Singleton<ioEtcItemManager>::ms_Singleton
  00014	e8 00 00 00 00	 call	 ?FindEtcItem@ioEtcItemManager@@QAEPAVioEtcItem@@K@Z ; ioEtcItemManager::FindEtcItem

; 287  : 	if( pItem )

  00019	85 c0		 test	 eax, eax
  0001b	74 29		 je	 SHORT $LN1@GetFishing@5

; 288  : 	{
; 289  : 		iExtraType = pItem->GetExtraType() - 1;

  0001d	8b 40 38	 mov	 eax, DWORD PTR [eax+56]
  00020	48		 dec	 eax

; 290  : 	}
; 291  : 
; 292  : 	if( COMPARE( iExtraType, 0, (int)m_vFishingTypeInfoList.size() ) )

  00021	78 23		 js	 SHORT $LN1@GetFishing@5
  00023	8b 4e 28	 mov	 ecx, DWORD PTR [esi+40]
  00026	2b 4e 24	 sub	 ecx, DWORD PTR [esi+36]
  00029	c1 f9 06	 sar	 ecx, 6
  0002c	3b c1		 cmp	 eax, ecx
  0002e	7d 16		 jge	 SHORT $LN1@GetFishing@5

; 293  : 	{
; 294  : 		return m_vFishingTypeInfoList[iExtraType].m_FishingWaitEffect;

  00030	8b 4e 24	 mov	 ecx, DWORD PTR [esi+36]
  00033	c1 e0 06	 shl	 eax, 6
  00036	8d 44 08 20	 lea	 eax, DWORD PTR [eax+ecx+32]
  0003a	8b 4d 08	 mov	 ecx, DWORD PTR ___$ReturnUdt$[ebp]
  0003d	50		 push	 eax
  0003e	ff 15 00 00 00
	00		 call	 DWORD PTR __imp_??0ioHashString@@QAE@ABV0@@Z
  00044	eb 09		 jmp	 SHORT $LN15@GetFishing@5
$LN1@GetFishing@5:

; 295  : 	}
; 296  : 
; 297  : 	return ioHashString();

  00046	8b 4d 08	 mov	 ecx, DWORD PTR ___$ReturnUdt$[ebp]
  00049	ff 15 00 00 00
	00		 call	 DWORD PTR __imp_??0ioHashString@@QAE@XZ
$LN15@GetFishing@5:
  0004f	8b 45 08	 mov	 eax, DWORD PTR ___$ReturnUdt$[ebp]
  00052	5e		 pop	 esi

; 298  : }

  00053	c9		 leave
  00054	c2 08 00	 ret	 8
?GetFishingWaitEffect@ioFishingManager@@QAE?AVioHashString@@H@Z ENDP ; ioFishingManager::GetFishingWaitEffect
_TEXT	ENDS
PUBLIC	?GetFishingPullEffect@ioFishingManager@@QAE?AVioHashString@@H@Z ; ioFishingManager::GetFishingPullEffect
; Function compile flags: /Ogsp
;	COMDAT ?GetFishingPullEffect@ioFishingManager@@QAE?AVioHashString@@H@Z
_TEXT	SEGMENT
$T512853 = -4						; size = 4
___$ReturnUdt$ = 8					; size = 4
_iType$ = 12						; size = 4
?GetFishingPullEffect@ioFishingManager@@QAE?AVioHashString@@H@Z PROC ; ioFishingManager::GetFishingPullEffect, COMDAT
; _this$ = ecx

; 301  : {

  00000	55		 push	 ebp
  00001	8b ec		 mov	 ebp, esp
  00003	51		 push	 ecx
  00004	83 65 fc 00	 and	 DWORD PTR $T512853[ebp], 0
  00008	56		 push	 esi

; 302  : 	int iExtraType = -1;
; 303  : 	ioEtcItem *pItem = g_EtcItemMgr.FindEtcItem( iType );

  00009	ff 75 0c	 push	 DWORD PTR _iType$[ebp]
  0000c	8b f1		 mov	 esi, ecx
  0000e	8b 0d 00 00 00
	00		 mov	 ecx, DWORD PTR ?ms_Singleton@?$Singleton@VioEtcItemManager@@@@1PAVioEtcItemManager@@A ; Singleton<ioEtcItemManager>::ms_Singleton
  00014	e8 00 00 00 00	 call	 ?FindEtcItem@ioEtcItemManager@@QAEPAVioEtcItem@@K@Z ; ioEtcItemManager::FindEtcItem

; 304  : 	if( pItem )

  00019	85 c0		 test	 eax, eax
  0001b	74 29		 je	 SHORT $LN1@GetFishing@6

; 305  : 	{
; 306  : 		iExtraType = pItem->GetExtraType() - 1;

  0001d	8b 40 38	 mov	 eax, DWORD PTR [eax+56]
  00020	48		 dec	 eax

; 307  : 	}
; 308  : 
; 309  : 	if( COMPARE( iExtraType, 0, (int)m_vFishingTypeInfoList.size() ) )

  00021	78 23		 js	 SHORT $LN1@GetFishing@6
  00023	8b 4e 28	 mov	 ecx, DWORD PTR [esi+40]
  00026	2b 4e 24	 sub	 ecx, DWORD PTR [esi+36]
  00029	c1 f9 06	 sar	 ecx, 6
  0002c	3b c1		 cmp	 eax, ecx
  0002e	7d 16		 jge	 SHORT $LN1@GetFishing@6

; 310  : 	{
; 311  : 		return m_vFishingTypeInfoList[iExtraType].m_FishingPullEffect;

  00030	8b 4e 24	 mov	 ecx, DWORD PTR [esi+36]
  00033	c1 e0 06	 shl	 eax, 6
  00036	8d 44 08 30	 lea	 eax, DWORD PTR [eax+ecx+48]
  0003a	8b 4d 08	 mov	 ecx, DWORD PTR ___$ReturnUdt$[ebp]
  0003d	50		 push	 eax
  0003e	ff 15 00 00 00
	00		 call	 DWORD PTR __imp_??0ioHashString@@QAE@ABV0@@Z
  00044	eb 09		 jmp	 SHORT $LN15@GetFishing@6
$LN1@GetFishing@6:

; 312  : 	}
; 313  : 
; 314  : 	return ioHashString();

  00046	8b 4d 08	 mov	 ecx, DWORD PTR ___$ReturnUdt$[ebp]
  00049	ff 15 00 00 00
	00		 call	 DWORD PTR __imp_??0ioHashString@@QAE@XZ
$LN15@GetFishing@6:
  0004f	8b 45 08	 mov	 eax, DWORD PTR ___$ReturnUdt$[ebp]
  00052	5e		 pop	 esi

; 315  : }

  00053	c9		 leave
  00054	c2 08 00	 ret	 8
?GetFishingPullEffect@ioFishingManager@@QAE?AVioHashString@@H@Z ENDP ; ioFishingManager::GetFishingPullEffect
_TEXT	ENDS
PUBLIC	??_C@_0BD@HEINEDGN@UIIconPack101?$CDCash?$AA@	; `string'
PUBLIC	??_C@_0BH@FLBLIBDA@UIIconPack13?$CDquest_001?$AA@ ; `string'
PUBLIC	??_C@_0CM@BJAIHEFE@ioFishingManager?3?3GetFishingPres@ ; `string'
PUBLIC	??_C@_0BH@HADGNCPD@UIIconPack13?$CDquest_002?$AA@ ; `string'
PUBLIC	?GetFishingPresentIconName@ioFishingManager@@QAE?AVioHashString@@FHH@Z ; ioFishingManager::GetFishingPresentIconName
EXTRN	?GetCostumeMachineInfo@ioCostumeShopInfoManager@@QAEPAVCostumeShopInfo@@H@Z:PROC ; ioCostumeShopInfoManager::GetCostumeMachineInfo
EXTRN	?GetSingleton@ioCostumeShopInfoManager@@SAAAV1@XZ:PROC ; ioCostumeShopInfoManager::GetSingleton
EXTRN	?GetCostumeIcon@ioCostumeInfoManager@@QAE?AVioHashString@@H@Z:PROC ; ioCostumeInfoManager::GetCostumeIcon
EXTRN	?GetSingleton@ioCostumeInfoManager@@SAAAV1@XZ:PROC ; ioCostumeInfoManager::GetSingleton
EXTRN	?GetItemInfo@ioMedalItemInfoManager@@QAEPBUItemInfo@1@H@Z:PROC ; ioMedalItemInfoManager::GetItemInfo
EXTRN	?GetSingleton@ioMedalItemInfoManager@@SAAAV1@XZ:PROC ; ioMedalItemInfoManager::GetSingleton
EXTRN	?GetRandomMachineInfo@ioExtraItemInfoManager@@QAEPAVRandomMachineInfo@@H@Z:PROC ; ioExtraItemInfoManager::GetRandomMachineInfo
EXTRN	?GetSingleton@ioExtraItemInfoManager@@SAAAV1@XZ:PROC ; ioExtraItemInfoManager::GetSingleton
EXTRN	__imp_?IsEmpty@ioHashString@@QBE_NXZ:PROC
EXTRN	?GetItemConst@ioItemMaker@@QBEPBVioItem@@KABVioHashString@@@Z:PROC ; ioItemMaker::GetItemConst
EXTRN	?GetSingleton@ioItemMaker@@SAAAV1@XZ:PROC	; ioItemMaker::GetSingleton
EXTRN	__imp_??0ioHashString@@QAE@PBD@Z:PROC
EXTRN	?GetDecoData@ioDecorationPrice@@QAEABUtagDecoData@@HHH@Z:PROC ; ioDecorationPrice::GetDecoData
EXTRN	?GetSingleton@ioDecorationPrice@@SAAAV1@XZ:PROC	; ioDecorationPrice::GetSingleton
EXTRN	?GetMySoldierIconName@ioMyInfo@@QAEAAVioHashString@@H@Z:PROC ; ioMyInfo::GetMySoldierIconName
EXTRN	?GetSingleton@ioMyInfo@@SAAAV1@XZ:PROC		; ioMyInfo::GetSingleton
EXTRN	__ftol2_sse:PROC
;	COMDAT ??_C@_0BD@HEINEDGN@UIIconPack101?$CDCash?$AA@
; File d:\lost saga for developer\youtube\tutorial\source\src\lsclient\iocostumeshopinfomanager.h
CONST	SEGMENT
??_C@_0BD@HEINEDGN@UIIconPack101?$CDCash?$AA@ DB 'UIIconPack101#Cash', 00H ; `string'
CONST	ENDS
;	COMDAT ??_C@_0BH@FLBLIBDA@UIIconPack13?$CDquest_001?$AA@
CONST	SEGMENT
??_C@_0BH@FLBLIBDA@UIIconPack13?$CDquest_001?$AA@ DB 'UIIconPack13#quest_'
	DB	'001', 00H					; `string'
CONST	ENDS
;	COMDAT ??_C@_0CM@BJAIHEFE@ioFishingManager?3?3GetFishingPres@
CONST	SEGMENT
??_C@_0CM@BJAIHEFE@ioFishingManager?3?3GetFishingPres@ DB 'ioFishingManag'
	DB	'er::GetFishingPresentIconName', 00H		; `string'
CONST	ENDS
;	COMDAT ??_C@_0BH@HADGNCPD@UIIconPack13?$CDquest_002?$AA@
CONST	SEGMENT
??_C@_0BH@HADGNCPD@UIIconPack13?$CDquest_002?$AA@ DB 'UIIconPack13#quest_'
	DB	'002', 00H					; `string'
CONST	ENDS
;	COMDAT xdata$x
xdata$x	SEGMENT
__ehfuncinfo$?GetFishingPresentIconName@ioFishingManager@@QAE?AVioHashString@@FHH@Z DD 019930522H
	DD	06H
	DD	FLAT:__unwindtable$?GetFishingPresentIconName@ioFishingManager@@QAE?AVioHashString@@FHH@Z
	DD	2 DUP(00H)
	DD	2 DUP(00H)
	DD	00H
	DD	01H
__unwindtable$?GetFishingPresentIconName@ioFishingManager@@QAE?AVioHashString@@FHH@Z DD 0ffffffffH
	DD	FLAT:__unwindfunclet$?GetFishingPresentIconName@ioFishingManager@@QAE?AVioHashString@@FHH@Z$1
	DD	0ffffffffH
	DD	FLAT:__unwindfunclet$?GetFishingPresentIconName@ioFishingManager@@QAE?AVioHashString@@FHH@Z$2
	DD	0ffffffffH
	DD	FLAT:__unwindfunclet$?GetFishingPresentIconName@ioFishingManager@@QAE?AVioHashString@@FHH@Z$3
	DD	0ffffffffH
	DD	FLAT:__unwindfunclet$?GetFishingPresentIconName@ioFishingManager@@QAE?AVioHashString@@FHH@Z$4
	DD	0ffffffffH
	DD	FLAT:__unwindfunclet$?GetFishingPresentIconName@ioFishingManager@@QAE?AVioHashString@@FHH@Z$5
	DD	0ffffffffH
	DD	FLAT:__unwindfunclet$?GetFishingPresentIconName@ioFishingManager@@QAE?AVioHashString@@FHH@Z$6
; Function compile flags: /Ogsp
; File d:\lost saga for developer\youtube\tutorial\source\src\lsclient\iofishingmanager.cpp
xdata$x	ENDS
;	COMDAT ?GetFishingPresentIconName@ioFishingManager@@QAE?AVioHashString@@FHH@Z
_TEXT	SEGMENT
_szIcon$508552 = -64					; size = 16
_szIcon$508546 = -48					; size = 16
_szIcon$508543 = -48					; size = 16
_szIcon$508530 = -48					; size = 16
_szIcon$508525 = -48					; size = 16
$T512874 = -32						; size = 16
$T512876 = -16						; size = 4
__$EHRec$ = -12						; size = 12
___$ReturnUdt$ = 8					; size = 4
tv374 = 12						; size = 4
tv371 = 12						; size = 4
tv337 = 12						; size = 4
tv334 = 12						; size = 4
_iPresentType$ = 12					; size = 2
_iValue1$ = 16						; size = 4
_iValue2$ = 20						; size = 4
?GetFishingPresentIconName@ioFishingManager@@QAE?AVioHashString@@FHH@Z PROC ; ioFishingManager::GetFishingPresentIconName, COMDAT
; _this$ = ecx

; 318  : {

  00000	6a 34		 push	 52			; 00000034H
  00002	b8 00 00 00 00	 mov	 eax, __ehhandler$?GetFishingPresentIconName@ioFishingManager@@QAE?AVioHashString@@FHH@Z
  00007	e8 00 00 00 00	 call	 __EH_prolog3

; 319  : 	switch( iPresentType )

  0000c	0f bf 45 0c	 movsx	 eax, WORD PTR _iPresentType$[ebp]
  00010	83 65 f0 00	 and	 DWORD PTR $T512876[ebp], 0
  00014	48		 dec	 eax
  00015	83 f8 0e	 cmp	 eax, 14			; 0000000eH
  00018	0f 87 22 01 00
	00		 ja	 $LN22@GetFishing@7
  0001e	ff 24 85 00 00
	00 00		 jmp	 DWORD PTR $LN62@GetFishing@7[eax*4]
$LN21@GetFishing@7:

; 320  : 	{
; 321  : 	case PRESENT_SOLDIER:
; 322  : 		return g_MyInfo.GetMySoldierIconName( iValue1 );

  00025	ff 75 10	 push	 DWORD PTR _iValue1$[ebp]
  00028	e8 00 00 00 00	 call	 ?GetSingleton@ioMyInfo@@SAAAV1@XZ ; ioMyInfo::GetSingleton
  0002d	8b c8		 mov	 ecx, eax
  0002f	e8 00 00 00 00	 call	 ?GetMySoldierIconName@ioMyInfo@@QAEAAVioHashString@@H@Z ; ioMyInfo::GetMySoldierIconName
$LN53@GetFishing@7:
  00034	8b 4d 08	 mov	 ecx, DWORD PTR ___$ReturnUdt$[ebp]
  00037	50		 push	 eax
  00038	ff 15 00 00 00
	00		 call	 DWORD PTR __imp_??0ioHashString@@QAE@ABV0@@Z
  0003e	e9 06 01 00 00	 jmp	 $LN51@GetFishing@7
$LN20@GetFishing@7:

; 323  : 	case PRESENT_DECORATION:
; 324  : 		{
; 325  : 			int iClassType = iValue1 / 100000;
; 326  : 			int iSexType   = (iValue1 % 100000) / FLOAT1000;

  00043	b8 e8 03 00 00	 mov	 eax, 1000		; 000003e8H
  00048	8b c8		 mov	 ecx, eax

; 327  : 			int iDecoType  = iValue1 % 1000;

  0004a	8b 45 10	 mov	 eax, DWORD PTR _iValue1$[ebp]
  0004d	99		 cdq
  0004e	be e8 03 00 00	 mov	 esi, 1000		; 000003e8H
  00053	f7 fe		 idiv	 esi

; 328  : 			const DecoData &kData = g_DecorationPrice.GetDecoData( iSexType, iDecoType, iValue2 );

  00055	ff 75 14	 push	 DWORD PTR _iValue2$[ebp]
  00058	8b 45 10	 mov	 eax, DWORD PTR _iValue1$[ebp]
  0005b	be a0 86 01 00	 mov	 esi, 100000		; 000186a0H
  00060	52		 push	 edx
  00061	99		 cdq
  00062	f7 fe		 idiv	 esi
  00064	89 55 0c	 mov	 DWORD PTR tv374[ebp], edx
  00067	db 45 0c	 fild	 DWORD PTR tv374[ebp]
  0006a	89 4d 0c	 mov	 DWORD PTR tv371[ebp], ecx
  0006d	db 45 0c	 fild	 DWORD PTR tv371[ebp]
$LN59@GetFishing@7:
  00070	85 c9		 test	 ecx, ecx
  00072	79 06		 jns	 SHORT $LN49@GetFishing@7
  00074	d8 05 00 00 00
	00		 fadd	 DWORD PTR __real@4f800000
$LN49@GetFishing@7:

; 323  : 	case PRESENT_DECORATION:
; 324  : 		{
; 325  : 			int iClassType = iValue1 / 100000;
; 326  : 			int iSexType   = (iValue1 % 100000) / FLOAT1000;

  0007a	de f9		 fdivp	 ST(1), ST(0)

; 328  : 			const DecoData &kData = g_DecorationPrice.GetDecoData( iSexType, iDecoType, iValue2 );

  0007c	e8 00 00 00 00	 call	 __ftol2_sse
  00081	50		 push	 eax
  00082	e8 00 00 00 00	 call	 ?GetSingleton@ioDecorationPrice@@SAAAV1@XZ ; ioDecorationPrice::GetSingleton
  00087	8b c8		 mov	 ecx, eax
  00089	e8 00 00 00 00	 call	 ?GetDecoData@ioDecorationPrice@@QAEABUtagDecoData@@HHH@Z ; ioDecorationPrice::GetDecoData

; 329  : 			return kData.m_szIcon;

  0008e	83 c0 10	 add	 eax, 16			; 00000010H
  00091	eb a1		 jmp	 SHORT $LN53@GetFishing@7
$LN19@GetFishing@7:

; 330  : 		}
; 331  : 		break;
; 332  : 	case PRESENT_ETC_ITEM:
; 333  : 		{
; 334  : 			ioEtcItem *pEtcItem = g_EtcItemMgr.FindEtcItem( iValue1 );

  00093	ff 75 10	 push	 DWORD PTR _iValue1$[ebp]
  00096	8b 0d 00 00 00
	00		 mov	 ecx, DWORD PTR ?ms_Singleton@?$Singleton@VioEtcItemManager@@@@1PAVioEtcItemManager@@A ; Singleton<ioEtcItemManager>::ms_Singleton
  0009c	e8 00 00 00 00	 call	 ?FindEtcItem@ioEtcItemManager@@QAEPAVioEtcItem@@K@Z ; ioEtcItemManager::FindEtcItem

; 335  : 			if( pEtcItem )

  000a1	85 c0		 test	 eax, eax
  000a3	0f 84 97 00 00
	00		 je	 $LN22@GetFishing@7

; 336  : 			{
; 337  : 				return pEtcItem->GetIconName();

  000a9	05 60 01 00 00	 add	 eax, 352		; 00000160H
  000ae	eb 84		 jmp	 SHORT $LN53@GetFishing@7
$LN17@GetFishing@7:

; 338  : 			}			
; 339  : 		}
; 340  : 		break;
; 341  : 	case PRESENT_PESO:
; 342  : 		{
; 343  : 			return ioHashString( "UIIconPack13#quest_002" );

  000b0	68 00 00 00 00	 push	 OFFSET ??_C@_0BH@HADGNCPD@UIIconPack13?$CDquest_002?$AA@
$LN54@GetFishing@7:
  000b5	8b 4d 08	 mov	 ecx, DWORD PTR ___$ReturnUdt$[ebp]
  000b8	ff 15 00 00 00
	00		 call	 DWORD PTR __imp_??0ioHashString@@QAE@PBD@Z
  000be	e9 86 00 00 00	 jmp	 $LN51@GetFishing@7
$LN16@GetFishing@7:

; 344  : 		}
; 345  : 		break;
; 346  : 	case PRESENT_EXTRAITEM:
; 347  : 	case PRESENT_ACCESSORY:
; 348  : 		{
; 349  : 			const ioItem *pItem = g_ItemMaker.GetItemConst( iValue1, __FUNCTION__ );

  000c3	68 00 00 00 00	 push	 OFFSET ??_C@_0CM@BJAIHEFE@ioFishingManager?3?3GetFishingPres@
  000c8	8d 4d e0	 lea	 ecx, DWORD PTR $T512874[ebp]
  000cb	ff 15 00 00 00
	00		 call	 DWORD PTR __imp_??0ioHashString@@QAE@PBD@Z
  000d1	83 65 fc 00	 and	 DWORD PTR __$EHRec$[ebp+8], 0
  000d5	8d 45 e0	 lea	 eax, DWORD PTR $T512874[ebp]
  000d8	50		 push	 eax
  000d9	ff 75 10	 push	 DWORD PTR _iValue1$[ebp]
  000dc	e8 00 00 00 00	 call	 ?GetSingleton@ioItemMaker@@SAAAV1@XZ ; ioItemMaker::GetSingleton
  000e1	8b c8		 mov	 ecx, eax
  000e3	e8 00 00 00 00	 call	 ?GetItemConst@ioItemMaker@@QBEPBVioItem@@KABVioHashString@@@Z ; ioItemMaker::GetItemConst
  000e8	8b 35 00 00 00
	00		 mov	 esi, DWORD PTR __imp_??1ioHashString@@QAE@XZ
  000ee	83 4d fc ff	 or	 DWORD PTR __$EHRec$[ebp+8], -1
  000f2	8d 4d e0	 lea	 ecx, DWORD PTR $T512874[ebp]
  000f5	8b f8		 mov	 edi, eax
  000f7	ff d6		 call	 esi

; 350  : 			if( pItem )

  000f9	85 ff		 test	 edi, edi
  000fb	74 43		 je	 SHORT $LN22@GetFishing@7

; 351  : 			{
; 352  : 				ioHashString szIcon = pItem->GetItemLargeIconName();

  000fd	81 c7 14 02 00
	00		 add	 edi, 532		; 00000214H
  00103	57		 push	 edi
  00104	8b 3d 00 00 00
	00		 mov	 edi, DWORD PTR __imp_??0ioHashString@@QAE@ABV0@@Z
  0010a	8d 4d d0	 lea	 ecx, DWORD PTR _szIcon$508525[ebp]
  0010d	ff d7		 call	 edi

; 353  : 				if( !szIcon.IsEmpty() )

  0010f	8d 4d d0	 lea	 ecx, DWORD PTR _szIcon$508525[ebp]
  00112	c7 45 fc 01 00
	00 00		 mov	 DWORD PTR __$EHRec$[ebp+8], 1
  00119	ff 15 00 00 00
	00		 call	 DWORD PTR __imp_?IsEmpty@ioHashString@@QBE_NXZ
  0011f	84 c0		 test	 al, al
  00121	75 14		 jne	 SHORT $LN14@GetFishing@7

; 354  : 				{
; 355  : 					return szIcon;

  00123	8b 4d 08	 mov	 ecx, DWORD PTR ___$ReturnUdt$[ebp]
  00126	8d 45 d0	 lea	 eax, DWORD PTR _szIcon$508525[ebp]
  00129	50		 push	 eax
  0012a	ff d7		 call	 edi
  0012c	83 4d fc ff	 or	 DWORD PTR __$EHRec$[ebp+8], -1
  00130	8d 4d d0	 lea	 ecx, DWORD PTR _szIcon$508525[ebp]
  00133	ff d6		 call	 esi
  00135	eb 12		 jmp	 SHORT $LN51@GetFishing@7
$LN14@GetFishing@7:

; 356  : 				}
; 357  : 			}

  00137	83 4d fc ff	 or	 DWORD PTR __$EHRec$[ebp+8], -1
  0013b	8d 4d d0	 lea	 ecx, DWORD PTR _szIcon$508525[ebp]
  0013e	ff d6		 call	 esi
$LN22@GetFishing@7:

; 418  : 		}
; 419  : 		break;
; 420  : 	}
; 421  : 
; 422  : 	return ioHashString();

  00140	8b 4d 08	 mov	 ecx, DWORD PTR ___$ReturnUdt$[ebp]
  00143	ff 15 00 00 00
	00		 call	 DWORD PTR __imp_??0ioHashString@@QAE@XZ
$LN51@GetFishing@7:
  00149	8b 45 08	 mov	 eax, DWORD PTR ___$ReturnUdt$[ebp]

; 423  : }

  0014c	e8 00 00 00 00	 call	 __EH_epilog3
  00151	c2 10 00	 ret	 16			; 00000010H
$LN13@GetFishing@7:

; 358  : 		}
; 359  : 		break;
; 360  : 	case PRESENT_EXTRAITEM_BOX:
; 361  : 		{
; 362  : 			RandomMachineInfo *pInfo = g_ExtraItemInfoMgr.GetRandomMachineInfo( iValue1 );

  00154	ff 75 10	 push	 DWORD PTR _iValue1$[ebp]
  00157	e8 00 00 00 00	 call	 ?GetSingleton@ioExtraItemInfoManager@@SAAAV1@XZ ; ioExtraItemInfoManager::GetSingleton
  0015c	8b c8		 mov	 ecx, eax
  0015e	e8 00 00 00 00	 call	 ?GetRandomMachineInfo@ioExtraItemInfoManager@@QAEPAVRandomMachineInfo@@H@Z ; ioExtraItemInfoManager::GetRandomMachineInfo

; 363  : 			if( pInfo )

  00163	85 c0		 test	 eax, eax
  00165	74 d9		 je	 SHORT $LN22@GetFishing@7

; 364  : 			{
; 365  : 				ioHashString szIcon = pInfo->GetIconName();

  00167	8b 35 00 00 00
	00		 mov	 esi, DWORD PTR __imp_??0ioHashString@@QAE@ABV0@@Z
  0016d	83 c0 18	 add	 eax, 24			; 00000018H
  00170	50		 push	 eax
  00171	8d 4d d0	 lea	 ecx, DWORD PTR _szIcon$508530[ebp]
  00174	ff d6		 call	 esi
  00176	c7 45 fc 02 00
	00 00		 mov	 DWORD PTR __$EHRec$[ebp+8], 2
$LN55@GetFishing@7:

; 366  : 				if( !szIcon.IsEmpty() )

  0017d	8d 4d d0	 lea	 ecx, DWORD PTR _szIcon$508530[ebp]
  00180	ff 15 00 00 00
	00		 call	 DWORD PTR __imp_?IsEmpty@ioHashString@@QBE_NXZ
  00186	84 c0		 test	 al, al
  00188	75 18		 jne	 SHORT $LN11@GetFishing@7

; 367  : 				{
; 368  : 					return szIcon;

  0018a	8b 4d 08	 mov	 ecx, DWORD PTR ___$ReturnUdt$[ebp]
  0018d	8d 45 d0	 lea	 eax, DWORD PTR _szIcon$508530[ebp]
  00190	50		 push	 eax
  00191	ff d6		 call	 esi
$LN56@GetFishing@7:
  00193	8d 4d d0	 lea	 ecx, DWORD PTR _szIcon$508530[ebp]
$LN60@GetFishing@7:
  00196	83 4d fc ff	 or	 DWORD PTR __$EHRec$[ebp+8], -1
  0019a	ff 15 00 00 00
	00		 call	 DWORD PTR __imp_??1ioHashString@@QAE@XZ
  001a0	eb a7		 jmp	 SHORT $LN51@GetFishing@7
$LN11@GetFishing@7:

; 369  : 				}
; 370  : 			}

  001a2	8d 4d d0	 lea	 ecx, DWORD PTR _szIcon$508530[ebp]
$LN61@GetFishing@7:
  001a5	83 4d fc ff	 or	 DWORD PTR __$EHRec$[ebp+8], -1
  001a9	ff 15 00 00 00
	00		 call	 DWORD PTR __imp_??1ioHashString@@QAE@XZ

; 371  : 		}
; 372  : 		break;

  001af	eb 8f		 jmp	 SHORT $LN22@GetFishing@7
$LN10@GetFishing@7:

; 373  : 	case PRESENT_RANDOM_DECO:
; 374  : 		{
; 375  : 			int iClassType = iValue1 / 100000;
; 376  : 			int iSexType   = (iValue1 % 100000) / FLOAT1000;

  001b1	b8 e8 03 00 00	 mov	 eax, 1000		; 000003e8H
  001b6	8b c8		 mov	 ecx, eax

; 377  : 			int iDecoType  = iValue1 % 1000;

  001b8	8b 45 10	 mov	 eax, DWORD PTR _iValue1$[ebp]
  001bb	99		 cdq
  001bc	be e8 03 00 00	 mov	 esi, 1000		; 000003e8H
  001c1	f7 fe		 idiv	 esi

; 378  : 			const DecoData &kData = g_DecorationPrice.GetDecoData( iSexType, iDecoType, iValue2 );

  001c3	ff 75 14	 push	 DWORD PTR _iValue2$[ebp]
  001c6	8b 45 10	 mov	 eax, DWORD PTR _iValue1$[ebp]
  001c9	be a0 86 01 00	 mov	 esi, 100000		; 000186a0H
  001ce	52		 push	 edx
  001cf	99		 cdq
  001d0	f7 fe		 idiv	 esi
  001d2	89 55 0c	 mov	 DWORD PTR tv337[ebp], edx
  001d5	db 45 0c	 fild	 DWORD PTR tv337[ebp]
  001d8	89 4d 0c	 mov	 DWORD PTR tv334[ebp], ecx
  001db	db 45 0c	 fild	 DWORD PTR tv334[ebp]

; 379  : 			return kData.m_szIcon;

  001de	e9 8d fe ff ff	 jmp	 $LN59@GetFishing@7
$LN9@GetFishing@7:

; 380  : 		}
; 381  : 		break;
; 382  : 	case PRESENT_GRADE_EXP:
; 383  : 		{
; 384  : 			return ioHashString( "UIIconPack13#quest_001" );

  001e3	68 00 00 00 00	 push	 OFFSET ??_C@_0BH@FLBLIBDA@UIIconPack13?$CDquest_001?$AA@
  001e8	e9 c8 fe ff ff	 jmp	 $LN54@GetFishing@7
$LN8@GetFishing@7:

; 385  : 		}
; 386  : 		break;
; 387  : 	case PRESENT_MEDALITEM:
; 388  : 		{
; 389  : 			const ioMedalItemInfoManager::ItemInfo *pItem = g_MedalItemMgr.GetItemInfo( iValue1 );

  001ed	ff 75 10	 push	 DWORD PTR _iValue1$[ebp]
  001f0	e8 00 00 00 00	 call	 ?GetSingleton@ioMedalItemInfoManager@@SAAAV1@XZ ; ioMedalItemInfoManager::GetSingleton
  001f5	8b c8		 mov	 ecx, eax
  001f7	e8 00 00 00 00	 call	 ?GetItemInfo@ioMedalItemInfoManager@@QAEPBUItemInfo@1@H@Z ; ioMedalItemInfoManager::GetItemInfo

; 390  : 			ioHashString szIcon = pItem->m_sIcon;

  001fc	8b 35 00 00 00
	00		 mov	 esi, DWORD PTR __imp_??0ioHashString@@QAE@ABV0@@Z
  00202	05 a8 01 00 00	 add	 eax, 424		; 000001a8H
  00207	50		 push	 eax
  00208	8d 4d d0	 lea	 ecx, DWORD PTR _szIcon$508543[ebp]
  0020b	ff d6		 call	 esi
  0020d	c7 45 fc 03 00
	00 00		 mov	 DWORD PTR __$EHRec$[ebp+8], 3

; 391  : 			if( !szIcon.IsEmpty() )
; 392  : 			{
; 393  : 				return szIcon;

  00214	e9 64 ff ff ff	 jmp	 $LN55@GetFishing@7
$LN6@GetFishing@7:

; 394  : 			}
; 395  : 		}
; 396  : 		break;
; 397  : 	case PRESENT_COSTUME:
; 398  : 		{
; 399  : 			ioHashString szIcon = g_CostumeInfoMgr.GetCostumeIcon( iValue1 );

  00219	ff 75 10	 push	 DWORD PTR _iValue1$[ebp]
  0021c	8d 45 d0	 lea	 eax, DWORD PTR _szIcon$508546[ebp]
  0021f	50		 push	 eax
  00220	e8 00 00 00 00	 call	 ?GetSingleton@ioCostumeInfoManager@@SAAAV1@XZ ; ioCostumeInfoManager::GetSingleton
  00225	8b c8		 mov	 ecx, eax
  00227	e8 00 00 00 00	 call	 ?GetCostumeIcon@ioCostumeInfoManager@@QAE?AVioHashString@@H@Z ; ioCostumeInfoManager::GetCostumeIcon

; 400  : 			if( !szIcon.IsEmpty() )

  0022c	8d 4d d0	 lea	 ecx, DWORD PTR _szIcon$508546[ebp]
  0022f	c7 45 fc 04 00
	00 00		 mov	 DWORD PTR __$EHRec$[ebp+8], 4
  00236	ff 15 00 00 00
	00		 call	 DWORD PTR __imp_?IsEmpty@ioHashString@@QBE_NXZ
  0023c	84 c0		 test	 al, al
  0023e	0f 85 5e ff ff
	ff		 jne	 $LN11@GetFishing@7

; 401  : 				return szIcon;

  00244	8b 4d 08	 mov	 ecx, DWORD PTR ___$ReturnUdt$[ebp]
  00247	8d 45 d0	 lea	 eax, DWORD PTR _szIcon$508546[ebp]
  0024a	50		 push	 eax
  0024b	ff 15 00 00 00
	00		 call	 DWORD PTR __imp_??0ioHashString@@QAE@ABV0@@Z
  00251	e9 3d ff ff ff	 jmp	 $LN56@GetFishing@7
$LN4@GetFishing@7:

; 402  : 		}
; 403  : 		break;
; 404  : 	case PRESENT_COSTUME_BOX:
; 405  : 		{
; 406  : 			CostumeShopInfo *pInfo = g_CostumeShopInfoMgr.GetCostumeMachineInfo( iValue1 );

  00256	ff 75 10	 push	 DWORD PTR _iValue1$[ebp]
  00259	e8 00 00 00 00	 call	 ?GetSingleton@ioCostumeShopInfoManager@@SAAAV1@XZ ; ioCostumeShopInfoManager::GetSingleton
  0025e	8b c8		 mov	 ecx, eax
  00260	e8 00 00 00 00	 call	 ?GetCostumeMachineInfo@ioCostumeShopInfoManager@@QAEPAVCostumeShopInfo@@H@Z ; ioCostumeShopInfoManager::GetCostumeMachineInfo

; 407  : 			if( pInfo )

  00265	85 c0		 test	 eax, eax
  00267	0f 84 d3 fe ff
	ff		 je	 $LN22@GetFishing@7

; 408  : 			{
; 409  : 				ioHashString szIcon = pInfo->GetIconName();

  0026d	8b 35 00 00 00
	00		 mov	 esi, DWORD PTR __imp_??0ioHashString@@QAE@ABV0@@Z
  00273	83 c0 50	 add	 eax, 80			; 00000050H
  00276	50		 push	 eax
  00277	8d 4d c0	 lea	 ecx, DWORD PTR _szIcon$508552[ebp]
  0027a	ff d6		 call	 esi

; 410  : 				if( !szIcon.IsEmpty() )

  0027c	8d 4d c0	 lea	 ecx, DWORD PTR _szIcon$508552[ebp]
  0027f	c7 45 fc 05 00
	00 00		 mov	 DWORD PTR __$EHRec$[ebp+8], 5
  00286	ff 15 00 00 00
	00		 call	 DWORD PTR __imp_?IsEmpty@ioHashString@@QBE_NXZ
  0028c	84 c0		 test	 al, al
  0028e	75 11		 jne	 SHORT $LN2@GetFishing@7

; 411  : 					return szIcon;

  00290	8b 4d 08	 mov	 ecx, DWORD PTR ___$ReturnUdt$[ebp]
  00293	8d 45 c0	 lea	 eax, DWORD PTR _szIcon$508552[ebp]
  00296	50		 push	 eax
  00297	ff d6		 call	 esi
  00299	8d 4d c0	 lea	 ecx, DWORD PTR _szIcon$508552[ebp]
  0029c	e9 f5 fe ff ff	 jmp	 $LN60@GetFishing@7
$LN2@GetFishing@7:

; 412  : 			}

  002a1	8d 4d c0	 lea	 ecx, DWORD PTR _szIcon$508552[ebp]

; 413  : 		}
; 414  : 		break;

  002a4	e9 fc fe ff ff	 jmp	 $LN61@GetFishing@7
$LN1@GetFishing@7:

; 415  : 	case PRESENT_BONUS_CASH:
; 416  : 		{
; 417  : 			return ioHashString( "UIIconPack101#Cash" );

  002a9	68 00 00 00 00	 push	 OFFSET ??_C@_0BD@HEINEDGN@UIIconPack101?$CDCash?$AA@
  002ae	e9 02 fe ff ff	 jmp	 $LN54@GetFishing@7
  002b3	90		 npad	 1
$LN62@GetFishing@7:

; 423  : }

  002b4	00 00 00 00	 DD	 $LN21@GetFishing@7
  002b8	00 00 00 00	 DD	 $LN20@GetFishing@7
  002bc	00 00 00 00	 DD	 $LN19@GetFishing@7
  002c0	00 00 00 00	 DD	 $LN17@GetFishing@7
  002c4	00 00 00 00	 DD	 $LN16@GetFishing@7
  002c8	00 00 00 00	 DD	 $LN13@GetFishing@7
  002cc	00 00 00 00	 DD	 $LN10@GetFishing@7
  002d0	00 00 00 00	 DD	 $LN9@GetFishing@7
  002d4	00 00 00 00	 DD	 $LN8@GetFishing@7
  002d8	00 00 00 00	 DD	 $LN22@GetFishing@7
  002dc	00 00 00 00	 DD	 $LN22@GetFishing@7
  002e0	00 00 00 00	 DD	 $LN6@GetFishing@7
  002e4	00 00 00 00	 DD	 $LN1@GetFishing@7
  002e8	00 00 00 00	 DD	 $LN16@GetFishing@7
  002ec	00 00 00 00	 DD	 $LN4@GetFishing@7
_TEXT	ENDS
;	COMDAT text$x
text$x	SEGMENT
__unwindfunclet$?GetFishingPresentIconName@ioFishingManager@@QAE?AVioHashString@@FHH@Z$1:
  00000	8d 4d e0	 lea	 ecx, DWORD PTR $T512874[ebp]
  00003	ff 25 00 00 00
	00		 jmp	 DWORD PTR __imp_??1ioHashString@@QAE@XZ
__unwindfunclet$?GetFishingPresentIconName@ioFishingManager@@QAE?AVioHashString@@FHH@Z$2:
  00009	8d 4d d0	 lea	 ecx, DWORD PTR _szIcon$508525[ebp]
  0000c	ff 25 00 00 00
	00		 jmp	 DWORD PTR __imp_??1ioHashString@@QAE@XZ
__unwindfunclet$?GetFishingPresentIconName@ioFishingManager@@QAE?AVioHashString@@FHH@Z$3:
  00012	8d 4d d0	 lea	 ecx, DWORD PTR _szIcon$508530[ebp]
  00015	ff 25 00 00 00
	00		 jmp	 DWORD PTR __imp_??1ioHashString@@QAE@XZ
__unwindfunclet$?GetFishingPresentIconName@ioFishingManager@@QAE?AVioHashString@@FHH@Z$4:
  0001b	8d 4d d0	 lea	 ecx, DWORD PTR _szIcon$508543[ebp]
  0001e	ff 25 00 00 00
	00		 jmp	 DWORD PTR __imp_??1ioHashString@@QAE@XZ
__unwindfunclet$?GetFishingPresentIconName@ioFishingManager@@QAE?AVioHashString@@FHH@Z$5:
  00024	8d 4d d0	 lea	 ecx, DWORD PTR _szIcon$508546[ebp]
  00027	ff 25 00 00 00
	00		 jmp	 DWORD PTR __imp_??1ioHashString@@QAE@XZ
__unwindfunclet$?GetFishingPresentIconName@ioFishingManager@@QAE?AVioHashString@@FHH@Z$6:
  0002d	8d 4d c0	 lea	 ecx, DWORD PTR _szIcon$508552[ebp]
  00030	ff 25 00 00 00
	00		 jmp	 DWORD PTR __imp_??1ioHashString@@QAE@XZ
__ehhandler$?GetFishingPresentIconName@ioFishingManager@@QAE?AVioHashString@@FHH@Z:
  00036	8b 54 24 08	 mov	 edx, DWORD PTR [esp+8]
  0003a	8d 42 0c	 lea	 eax, DWORD PTR [edx+12]
  0003d	8b 4a bc	 mov	 ecx, DWORD PTR [edx-68]
  00040	33 c8		 xor	 ecx, eax
  00042	e8 00 00 00 00	 call	 @__security_check_cookie@4
  00047	b8 00 00 00 00	 mov	 eax, OFFSET __ehfuncinfo$?GetFishingPresentIconName@ioFishingManager@@QAE?AVioHashString@@FHH@Z
  0004c	e9 00 00 00 00	 jmp	 ___CxxFrameHandler3
text$x	ENDS
?GetFishingPresentIconName@ioFishingManager@@QAE?AVioHashString@@FHH@Z ENDP ; ioFishingManager::GetFishingPresentIconName
PUBLIC	??_C@_0CM@ENJCGBIG@ioFishingManager?3?3GetFishingPres@ ; `string'
PUBLIC	??_C@_04OHJIHAFH@None?$AA@			; `string'
PUBLIC	_iValue1$GSCopy$
PUBLIC	_iPresentType$GSCopy$
PUBLIC	___$ReturnUdt$GSCopy$
PUBLIC	?GetFishingPresentItemName@ioFishingManager@@QAE?AVioHashString@@FHH@Z ; ioFishingManager::GetFishingPresentItemName
EXTRN	?GetCostumeInfo@ioCostumeInfoManager@@QAE_NHAAUtagCostumeInfo@@@Z:PROC ; ioCostumeInfoManager::GetCostumeInfo
EXTRN	__imp_??4ioHashString@@QAEAAV0@PBD@Z:PROC
EXTRN	__imp__wsprintfA:PROC
EXTRN	__imp_?c_str@ioHashString@@QBEPBDXZ:PROC
EXTRN	?GetPresentValue2Text@ioPresentMgr@@QAEABVioHashString@@FHH@Z:PROC ; ioPresentMgr::GetPresentValue2Text
EXTRN	?GetPresentValue1Text@ioPresentMgr@@QAEABVioHashString@@FHH@Z:PROC ; ioPresentMgr::GetPresentValue1Text
EXTRN	?GetSingleton@ioPresentMgr@@SAAAV1@XZ:PROC	; ioPresentMgr::GetSingleton
EXTRN	_atexit:PROC
EXTRN	__EH_epilog3_GS:PROC
EXTRN	__EH_prolog3_GS:PROC
EXTRN	_memset:PROC
;	COMDAT ?szReturn@?1??GetFishingPresentItemName@ioFishingManager@@QAE?AVioHashString@@FHH@Z@4V3@A
; File d:\lost saga for developer\youtube\tutorial\source\src\io3dengine\iosingleton.h
_BSS	SEGMENT
?szReturn@?1??GetFishingPresentItemName@ioFishingManager@@QAE?AVioHashString@@FHH@Z@4V3@A DB 010H DUP (?) ; `ioFishingManager::GetFishingPresentItemName'::`2'::szReturn
_BSS	ENDS
;	COMDAT ?$S1@?1??GetFishingPresentItemName@ioFishingManager@@QAE?AVioHashString@@FHH@Z@4IA
_BSS	SEGMENT
?$S1@?1??GetFishingPresentItemName@ioFishingManager@@QAE?AVioHashString@@FHH@Z@4IA DD 01H DUP (?) ; `ioFishingManager::GetFishingPresentItemName'::`2'::$S1
_BSS	ENDS
;	COMDAT ??_C@_0CM@ENJCGBIG@ioFishingManager?3?3GetFishingPres@
CONST	SEGMENT
??_C@_0CM@ENJCGBIG@ioFishingManager?3?3GetFishingPres@ DB 'ioFishingManag'
	DB	'er::GetFishingPresentItemName', 00H		; `string'
CONST	ENDS
;	COMDAT ??_C@_04OHJIHAFH@None?$AA@
CONST	SEGMENT
??_C@_04OHJIHAFH@None?$AA@ DB 'None', 00H		; `string'
CONST	ENDS
;	COMDAT xdata$x
xdata$x	SEGMENT
__ehfuncinfo$?GetFishingPresentItemName@ioFishingManager@@QAE?AVioHashString@@FHH@Z DD 019930522H
	DD	06H
	DD	FLAT:__unwindtable$?GetFishingPresentItemName@ioFishingManager@@QAE?AVioHashString@@FHH@Z
	DD	2 DUP(00H)
	DD	2 DUP(00H)
	DD	00H
	DD	01H
__unwindtable$?GetFishingPresentItemName@ioFishingManager@@QAE?AVioHashString@@FHH@Z DD 0ffffffffH
	DD	FLAT:__unwindfunclet$?GetFishingPresentItemName@ioFishingManager@@QAE?AVioHashString@@FHH@Z$5
	DD	00H
	DD	FLAT:__unwindfunclet$?GetFishingPresentItemName@ioFishingManager@@QAE?AVioHashString@@FHH@Z$0
	DD	00H
	DD	FLAT:__unwindfunclet$?GetFishingPresentItemName@ioFishingManager@@QAE?AVioHashString@@FHH@Z$1
	DD	02H
	DD	FLAT:__unwindfunclet$?GetFishingPresentItemName@ioFishingManager@@QAE?AVioHashString@@FHH@Z$2
	DD	03H
	DD	FLAT:__unwindfunclet$?GetFishingPresentItemName@ioFishingManager@@QAE?AVioHashString@@FHH@Z$3
	DD	03H
	DD	FLAT:__unwindfunclet$?GetFishingPresentItemName@ioFishingManager@@QAE?AVioHashString@@FHH@Z$4
; Function compile flags: /Ogsp
; File d:\lost saga for developer\youtube\tutorial\source\src\lsclient\iofishingmanager.cpp
xdata$x	ENDS
;	COMDAT ?GetFishingPresentItemName@ioFishingManager@@QAE?AVioHashString@@FHH@Z
_TEXT	SEGMENT
_szText2$ = -560					; size = 16
_szText1$ = -544					; size = 16
$T512939 = -528						; size = 4
___$ReturnUdt$GSCopy$ = -524				; size = 4
_iPresentType$GSCopy$ = -520				; size = 2
_pItem$508736 = -520					; size = 4
_iValue1$GSCopy$ = -516					; size = 4
_sCostumeInfo$508747 = -512				; size = 220
_szBuf$ = -292						; size = 260
$T512932 = -32						; size = 16
___encStr$508578 = -28					; size = 6
__$EHRec$ = -12						; size = 12
___$ReturnUdt$ = 8					; size = 4
_iPresentType$ = 12					; size = 2
_iValue1$ = 16						; size = 4
_iValue2$ = 20						; size = 4
?GetFishingPresentItemName@ioFishingManager@@QAE?AVioHashString@@FHH@Z PROC ; ioFishingManager::GetFishingPresentItemName, COMDAT
; _this$ = ecx

; 426  : {

  00000	68 24 02 00 00	 push	 548			; 00000224H
  00005	b8 00 00 00 00	 mov	 eax, __ehhandler$?GetFishingPresentItemName@ioFishingManager@@QAE?AVioHashString@@FHH@Z
  0000a	e8 00 00 00 00	 call	 __EH_prolog3_GS

; 481  : 	}
; 482  : 
; 483  : 	return szReturn;

  0000f	8b 45 08	 mov	 eax, DWORD PTR ___$ReturnUdt$[ebp]
  00012	0f b7 7d 0c	 movzx	 edi, WORD PTR _iPresentType$[ebp]
  00016	83 a5 f0 fd ff
	ff 00		 and	 DWORD PTR $T512939[ebp], 0
  0001d	f6 05 00 00 00
	00 01		 test	 BYTE PTR ?$S1@?1??GetFishingPresentItemName@ioFishingManager@@QAE?AVioHashString@@FHH@Z@4IA, 1
  00024	8b 5d 14	 mov	 ebx, DWORD PTR _iValue2$[ebp]
  00027	89 85 f4 fd ff
	ff		 mov	 DWORD PTR ___$ReturnUdt$GSCopy$[ebp], eax
  0002d	8b 45 10	 mov	 eax, DWORD PTR _iValue1$[ebp]
  00030	89 bd f8 fd ff
	ff		 mov	 DWORD PTR _iPresentType$GSCopy$[ebp], edi
  00036	89 85 fc fd ff
	ff		 mov	 DWORD PTR _iValue1$GSCopy$[ebp], eax
  0003c	be 00 00 00 00	 mov	 esi, OFFSET ?szReturn@?1??GetFishingPresentItemName@ioFishingManager@@QAE?AVioHashString@@FHH@Z@4V3@A
  00041	75 23		 jne	 SHORT $LN114@GetFishing@8

; 427  : 	static ioHashString szReturn;

  00043	33 c0		 xor	 eax, eax
  00045	40		 inc	 eax
  00046	09 05 00 00 00
	00		 or	 DWORD PTR ?$S1@?1??GetFishingPresentItemName@ioFishingManager@@QAE?AVioHashString@@FHH@Z@4IA, eax
  0004c	8b ce		 mov	 ecx, esi
  0004e	89 45 fc	 mov	 DWORD PTR __$EHRec$[ebp+8], eax
  00051	ff 15 00 00 00
	00		 call	 DWORD PTR __imp_??0ioHashString@@QAE@XZ
  00057	68 00 00 00 00	 push	 OFFSET ??__FszReturn@?1??GetFishingPresentItemName@ioFishingManager@@QAE?AVioHashString@@FHH@Z@YAXXZ ; `ioFishingManager::GetFishingPresentItemName'::`2'::`dynamic atexit destructor for 'szReturn''
  0005c	e8 00 00 00 00	 call	 _atexit
  00061	59		 pop	 ecx
  00062	c6 45 fc 00	 mov	 BYTE PTR __$EHRec$[ebp+8], 0
$LN114@GetFishing@8:

; 428  : 
; 429  : 	ioHashString szText1 = g_PresentMgr.GetPresentValue1Text( iPresentType, iValue1, iValue2 );

  00066	53		 push	 ebx
  00067	ff b5 fc fd ff
	ff		 push	 DWORD PTR _iValue1$GSCopy$[ebp]
  0006d	57		 push	 edi
  0006e	e8 00 00 00 00	 call	 ?GetSingleton@ioPresentMgr@@SAAAV1@XZ ; ioPresentMgr::GetSingleton
  00073	8b c8		 mov	 ecx, eax
  00075	e8 00 00 00 00	 call	 ?GetPresentValue1Text@ioPresentMgr@@QAEABVioHashString@@FHH@Z ; ioPresentMgr::GetPresentValue1Text
  0007a	8b 3d 00 00 00
	00		 mov	 edi, DWORD PTR __imp_??0ioHashString@@QAE@ABV0@@Z
  00080	50		 push	 eax
  00081	8d 8d e0 fd ff
	ff		 lea	 ecx, DWORD PTR _szText1$[ebp]
  00087	ff d7		 call	 edi

; 430  : 	ioHashString szText2 = g_PresentMgr.GetPresentValue2Text( iPresentType, iValue1, iValue2 );

  00089	53		 push	 ebx
  0008a	ff b5 fc fd ff
	ff		 push	 DWORD PTR _iValue1$GSCopy$[ebp]
  00090	c7 45 fc 02 00
	00 00		 mov	 DWORD PTR __$EHRec$[ebp+8], 2
  00097	ff b5 f8 fd ff
	ff		 push	 DWORD PTR _iPresentType$GSCopy$[ebp]
  0009d	e8 00 00 00 00	 call	 ?GetSingleton@ioPresentMgr@@SAAAV1@XZ ; ioPresentMgr::GetSingleton
  000a2	8b c8		 mov	 ecx, eax
  000a4	e8 00 00 00 00	 call	 ?GetPresentValue2Text@ioPresentMgr@@QAEABVioHashString@@FHH@Z ; ioPresentMgr::GetPresentValue2Text
  000a9	50		 push	 eax
  000aa	8d 8d d0 fd ff
	ff		 lea	 ecx, DWORD PTR _szText2$[ebp]
  000b0	ff d7		 call	 edi

; 431  : 
; 432  : 	char szBuf[MAX_PATH] = "";

  000b2	68 03 01 00 00	 push	 259			; 00000103H
  000b7	8d 85 dd fe ff
	ff		 lea	 eax, DWORD PTR _szBuf$[ebp+1]
  000bd	6a 00		 push	 0
  000bf	50		 push	 eax
  000c0	c6 45 fc 03	 mov	 BYTE PTR __$EHRec$[ebp+8], 3
  000c4	c6 85 dc fe ff
	ff 00		 mov	 BYTE PTR _szBuf$[ebp], 0
  000cb	e8 00 00 00 00	 call	 _memset

; 433  : 	wsprintf_e( szBuf, "%s %s", szText1.c_str(), szText2.c_str() );

  000d0	c7 45 e4 c8 9f
	cb cf		 mov	 DWORD PTR ___encStr$508578[ebp], -808738872 ; cfcb9fc8H
  000d7	81 75 e4 ed ec
	eb ea		 xor	 DWORD PTR ___encStr$508578[ebp], -353637139 ; eaebecedH
  000de	83 c4 0c	 add	 esp, 12			; 0000000cH
  000e1	8d 8d d0 fd ff
	ff		 lea	 ecx, DWORD PTR _szText2$[ebp]
  000e7	66 c7 45 e8 73
	00		 mov	 WORD PTR ___encStr$508578[ebp+4], 115 ; 00000073H
  000ed	ff 15 00 00 00
	00		 call	 DWORD PTR __imp_?c_str@ioHashString@@QBEPBDXZ
  000f3	50		 push	 eax
  000f4	8d 8d e0 fd ff
	ff		 lea	 ecx, DWORD PTR _szText1$[ebp]
  000fa	ff 15 00 00 00
	00		 call	 DWORD PTR __imp_?c_str@ioHashString@@QBEPBDXZ
  00100	50		 push	 eax
  00101	8d 45 e4	 lea	 eax, DWORD PTR ___encStr$508578[ebp]
  00104	50		 push	 eax
  00105	8d 85 dc fe ff
	ff		 lea	 eax, DWORD PTR _szBuf$[ebp]
  0010b	50		 push	 eax
  0010c	ff 15 00 00 00
	00		 call	 DWORD PTR __imp__wsprintfA

; 434  : 	szReturn = szBuf;

  00112	8b 1d 00 00 00
	00		 mov	 ebx, DWORD PTR __imp_??4ioHashString@@QAEAAV0@PBD@Z
  00118	83 c4 10	 add	 esp, 16			; 00000010H
  0011b	8d 85 dc fe ff
	ff		 lea	 eax, DWORD PTR _szBuf$[ebp]
  00121	50		 push	 eax
  00122	8b ce		 mov	 ecx, esi
  00124	ff d3		 call	 ebx

; 435  : 
; 436  : 	switch( iPresentType )

  00126	0f bf 85 f8 fd
	ff ff		 movsx	 eax, WORD PTR _iPresentType$GSCopy$[ebp]
  0012d	83 e8 03	 sub	 eax, 3
  00130	0f 84 f4 00 00
	00		 je	 $LN12@GetFishing@8
  00136	48		 dec	 eax
  00137	48		 dec	 eax
  00138	0f 84 a8 00 00
	00		 je	 $LN10@GetFishing@8
  0013e	48		 dec	 eax
  0013f	0f 84 8d 00 00
	00		 je	 $LN8@GetFishing@8
  00145	83 e8 03	 sub	 eax, 3
  00148	74 74		 je	 SHORT $LN6@GetFishing@8
  0014a	83 e8 03	 sub	 eax, 3
  0014d	74 26		 je	 SHORT $LN4@GetFishing@8
  0014f	48		 dec	 eax
  00150	48		 dec	 eax
  00151	0f 84 8f 00 00
	00		 je	 $LN10@GetFishing@8
  00157	48		 dec	 eax
  00158	0f 85 ea 00 00
	00		 jne	 $LN11@GetFishing@8

; 474  : 	case PRESENT_COSTUME_BOX:
; 475  : 		{
; 476  : 			CostumeShopInfo *pInfo = g_CostumeShopInfoMgr.GetCostumeMachineInfo( iValue1 );

  0015e	ff b5 fc fd ff
	ff		 push	 DWORD PTR _iValue1$GSCopy$[ebp]
  00164	e8 00 00 00 00	 call	 ?GetSingleton@ioCostumeShopInfoManager@@SAAAV1@XZ ; ioCostumeShopInfoManager::GetSingleton
  00169	8b c8		 mov	 ecx, eax
  0016b	e8 00 00 00 00	 call	 ?GetCostumeMachineInfo@ioCostumeShopInfoManager@@QAEPAVCostumeShopInfo@@H@Z ; ioCostumeShopInfoManager::GetCostumeMachineInfo

; 477  : 			if( !pInfo )
; 478  : 				szReturn = "None";
; 479  : 		}
; 480  : 		break;

  00170	e9 c6 00 00 00	 jmp	 $LN139@GetFishing@8
$LN4@GetFishing@8:

; 467  : 	case PRESENT_COSTUME:
; 468  : 		{
; 469  : 			CostumeInfo sCostumeInfo;

  00175	8d 8d 00 fe ff
	ff		 lea	 ecx, DWORD PTR _sCostumeInfo$508747[ebp]
  0017b	e8 00 00 00 00	 call	 ??0tagCostumeInfo@@QAE@XZ ; tagCostumeInfo::tagCostumeInfo

; 470  : 			if ( !g_CostumeInfoMgr.GetCostumeInfo( iValue1, sCostumeInfo ) )

  00180	8d 85 00 fe ff
	ff		 lea	 eax, DWORD PTR _sCostumeInfo$508747[ebp]
  00186	50		 push	 eax
  00187	ff b5 fc fd ff
	ff		 push	 DWORD PTR _iValue1$GSCopy$[ebp]
  0018d	c6 45 fc 05	 mov	 BYTE PTR __$EHRec$[ebp+8], 5
  00191	e8 00 00 00 00	 call	 ?GetSingleton@ioCostumeInfoManager@@SAAAV1@XZ ; ioCostumeInfoManager::GetSingleton
  00196	8b c8		 mov	 ecx, eax
  00198	e8 00 00 00 00	 call	 ?GetCostumeInfo@ioCostumeInfoManager@@QAE_NHAAUtagCostumeInfo@@@Z ; ioCostumeInfoManager::GetCostumeInfo
  0019d	84 c0		 test	 al, al
  0019f	75 09		 jne	 SHORT $LN3@GetFishing@8

; 471  : 				szReturn = "None";

  001a1	68 00 00 00 00	 push	 OFFSET ??_C@_04OHJIHAFH@None?$AA@
  001a6	8b ce		 mov	 ecx, esi
  001a8	ff d3		 call	 ebx
$LN3@GetFishing@8:

; 472  : 		}

  001aa	8d 8d 00 fe ff
	ff		 lea	 ecx, DWORD PTR _sCostumeInfo$508747[ebp]
  001b0	c6 45 fc 03	 mov	 BYTE PTR __$EHRec$[ebp+8], 3
  001b4	e8 00 00 00 00	 call	 ??1tagCostumeInfo@@QAE@XZ

; 473  : 		break;

  001b9	e9 8a 00 00 00	 jmp	 $LN11@GetFishing@8
$LN6@GetFishing@8:

; 460  : 	case PRESENT_MEDALITEM:
; 461  : 		{
; 462  : 			const ioMedalItemInfoManager::ItemInfo *pItem = g_MedalItemMgr.GetItemInfo( iValue1 );

  001be	ff b5 fc fd ff
	ff		 push	 DWORD PTR _iValue1$GSCopy$[ebp]
  001c4	e8 00 00 00 00	 call	 ?GetSingleton@ioMedalItemInfoManager@@SAAAV1@XZ ; ioMedalItemInfoManager::GetSingleton
  001c9	8b c8		 mov	 ecx, eax
  001cb	e8 00 00 00 00	 call	 ?GetItemInfo@ioMedalItemInfoManager@@QAEPBUItemInfo@1@H@Z ; ioMedalItemInfoManager::GetItemInfo

; 463  : 			if( !pItem )	
; 464  : 				szReturn = "None";
; 465  : 		}
; 466  : 		break;

  001d0	eb 69		 jmp	 SHORT $LN139@GetFishing@8
$LN8@GetFishing@8:

; 453  : 	case PRESENT_EXTRAITEM_BOX:
; 454  : 		{
; 455  : 			RandomMachineInfo *pInfo = g_ExtraItemInfoMgr.GetRandomMachineInfo( iValue1 );

  001d2	ff b5 fc fd ff
	ff		 push	 DWORD PTR _iValue1$GSCopy$[ebp]
  001d8	e8 00 00 00 00	 call	 ?GetSingleton@ioExtraItemInfoManager@@SAAAV1@XZ ; ioExtraItemInfoManager::GetSingleton
  001dd	8b c8		 mov	 ecx, eax
  001df	e8 00 00 00 00	 call	 ?GetRandomMachineInfo@ioExtraItemInfoManager@@QAEPAVRandomMachineInfo@@H@Z ; ioExtraItemInfoManager::GetRandomMachineInfo

; 456  : 			if( !pInfo )
; 457  : 				szReturn = "None";
; 458  : 		}
; 459  : 		break;

  001e4	eb 55		 jmp	 SHORT $LN139@GetFishing@8
$LN10@GetFishing@8:

; 443  : 		}
; 444  : 		break;
; 445  : 	case PRESENT_EXTRAITEM:
; 446  : 	case PRESENT_ACCESSORY:
; 447  : 		{
; 448  : 			const ioItem *pItem = g_ItemMaker.GetItemConst( iValue1, __FUNCTION__ );

  001e6	68 00 00 00 00	 push	 OFFSET ??_C@_0CM@ENJCGBIG@ioFishingManager?3?3GetFishingPres@
  001eb	8d 4d e0	 lea	 ecx, DWORD PTR $T512932[ebp]
  001ee	ff 15 00 00 00
	00		 call	 DWORD PTR __imp_??0ioHashString@@QAE@PBD@Z
  001f4	8d 45 e0	 lea	 eax, DWORD PTR $T512932[ebp]
  001f7	50		 push	 eax
  001f8	ff b5 fc fd ff
	ff		 push	 DWORD PTR _iValue1$GSCopy$[ebp]
  001fe	c6 45 fc 04	 mov	 BYTE PTR __$EHRec$[ebp+8], 4
  00202	e8 00 00 00 00	 call	 ?GetSingleton@ioItemMaker@@SAAAV1@XZ ; ioItemMaker::GetSingleton
  00207	8b c8		 mov	 ecx, eax
  00209	e8 00 00 00 00	 call	 ?GetItemConst@ioItemMaker@@QBEPBVioItem@@KABVioHashString@@@Z ; ioItemMaker::GetItemConst
  0020e	8d 4d e0	 lea	 ecx, DWORD PTR $T512932[ebp]
  00211	89 85 f8 fd ff
	ff		 mov	 DWORD PTR _pItem$508736[ebp], eax
  00217	c6 45 fc 03	 mov	 BYTE PTR __$EHRec$[ebp+8], 3
  0021b	ff 15 00 00 00
	00		 call	 DWORD PTR __imp_??1ioHashString@@QAE@XZ

; 449  : 			if( !pItem )

  00221	83 bd f8 fd ff
	ff 00		 cmp	 DWORD PTR _pItem$508736[ebp], 0

; 450  : 				szReturn = "None";
; 451  : 		}
; 452  : 		break;

  00228	eb 13		 jmp	 SHORT $LN140@GetFishing@8
$LN12@GetFishing@8:

; 437  : 	{
; 438  : 	case PRESENT_ETC_ITEM:
; 439  : 		{
; 440  : 			ioEtcItem *pEtcItem = g_EtcItemMgr.FindEtcItem( iValue1 );

  0022a	ff b5 fc fd ff
	ff		 push	 DWORD PTR _iValue1$GSCopy$[ebp]
  00230	8b 0d 00 00 00
	00		 mov	 ecx, DWORD PTR ?ms_Singleton@?$Singleton@VioEtcItemManager@@@@1PAVioEtcItemManager@@A ; Singleton<ioEtcItemManager>::ms_Singleton
  00236	e8 00 00 00 00	 call	 ?FindEtcItem@ioEtcItemManager@@QAEPAVioEtcItem@@K@Z ; ioEtcItemManager::FindEtcItem
$LN139@GetFishing@8:

; 441  : 			if( !pEtcItem )

  0023b	85 c0		 test	 eax, eax
$LN140@GetFishing@8:
  0023d	75 09		 jne	 SHORT $LN11@GetFishing@8

; 442  : 				szReturn = "None";

  0023f	68 00 00 00 00	 push	 OFFSET ??_C@_04OHJIHAFH@None?$AA@
  00244	8b ce		 mov	 ecx, esi
  00246	ff d3		 call	 ebx
$LN11@GetFishing@8:

; 481  : 	}
; 482  : 
; 483  : 	return szReturn;

  00248	8b 8d f4 fd ff
	ff		 mov	 ecx, DWORD PTR ___$ReturnUdt$GSCopy$[ebp]
  0024e	56		 push	 esi
  0024f	ff d7		 call	 edi
  00251	8b 35 00 00 00
	00		 mov	 esi, DWORD PTR __imp_??1ioHashString@@QAE@XZ
  00257	8d 8d d0 fd ff
	ff		 lea	 ecx, DWORD PTR _szText2$[ebp]
  0025d	c7 85 f0 fd ff
	ff 01 00 00 00	 mov	 DWORD PTR $T512939[ebp], 1
  00267	c6 45 fc 02	 mov	 BYTE PTR __$EHRec$[ebp+8], 2
  0026b	ff d6		 call	 esi
  0026d	8d 8d e0 fd ff
	ff		 lea	 ecx, DWORD PTR _szText1$[ebp]
  00273	c6 45 fc 00	 mov	 BYTE PTR __$EHRec$[ebp+8], 0
  00277	ff d6		 call	 esi
  00279	8b 85 f4 fd ff
	ff		 mov	 eax, DWORD PTR ___$ReturnUdt$GSCopy$[ebp]

; 484  : }

  0027f	e8 00 00 00 00	 call	 __EH_epilog3_GS
  00284	c2 10 00	 ret	 16			; 00000010H
_TEXT	ENDS
;	COMDAT text$x
text$x	SEGMENT
__unwindfunclet$?GetFishingPresentItemName@ioFishingManager@@QAE?AVioHashString@@FHH@Z$0:
  00000	a1 00 00 00 00	 mov	 eax, DWORD PTR ?$S1@?1??GetFishingPresentItemName@ioFishingManager@@QAE?AVioHashString@@FHH@Z@4IA
  00005	83 e0 fe	 and	 eax, -2			; fffffffeH
  00008	a3 00 00 00 00	 mov	 DWORD PTR ?$S1@?1??GetFishingPresentItemName@ioFishingManager@@QAE?AVioHashString@@FHH@Z@4IA, eax
  0000d	c3		 ret	 0
__unwindfunclet$?GetFishingPresentItemName@ioFishingManager@@QAE?AVioHashString@@FHH@Z$1:
  0000e	8d 8d e0 fd ff
	ff		 lea	 ecx, DWORD PTR _szText1$[ebp]
  00014	ff 25 00 00 00
	00		 jmp	 DWORD PTR __imp_??1ioHashString@@QAE@XZ
__unwindfunclet$?GetFishingPresentItemName@ioFishingManager@@QAE?AVioHashString@@FHH@Z$2:
  0001a	8d 8d d0 fd ff
	ff		 lea	 ecx, DWORD PTR _szText2$[ebp]
  00020	ff 25 00 00 00
	00		 jmp	 DWORD PTR __imp_??1ioHashString@@QAE@XZ
__unwindfunclet$?GetFishingPresentItemName@ioFishingManager@@QAE?AVioHashString@@FHH@Z$4:
  00026	8d 8d 00 fe ff
	ff		 lea	 ecx, DWORD PTR _sCostumeInfo$508747[ebp]
  0002c	e9 00 00 00 00	 jmp	 ??1tagCostumeInfo@@QAE@XZ
__unwindfunclet$?GetFishingPresentItemName@ioFishingManager@@QAE?AVioHashString@@FHH@Z$3:
  00031	8d 4d e0	 lea	 ecx, DWORD PTR $T512932[ebp]
  00034	ff 25 00 00 00
	00		 jmp	 DWORD PTR __imp_??1ioHashString@@QAE@XZ
__unwindfunclet$?GetFishingPresentItemName@ioFishingManager@@QAE?AVioHashString@@FHH@Z$5:
  0003a	8b 85 f0 fd ff
	ff		 mov	 eax, DWORD PTR $T512939[ebp]
  00040	83 e0 01	 and	 eax, 1
  00043	0f 84 13 00 00
	00		 je	 $LN123@GetFishing@8
  00049	83 a5 f0 fd ff
	ff fe		 and	 DWORD PTR $T512939[ebp], -2 ; fffffffeH
  00050	8b 8d f4 fd ff
	ff		 mov	 ecx, DWORD PTR ___$ReturnUdt$GSCopy$[ebp]
  00056	ff 25 00 00 00
	00		 jmp	 DWORD PTR __imp_??1ioHashString@@QAE@XZ
$LN123@GetFishing@8:
  0005c	c3		 ret	 0
__ehhandler$?GetFishingPresentItemName@ioFishingManager@@QAE?AVioHashString@@FHH@Z:
  0005d	8b 54 24 08	 mov	 edx, DWORD PTR [esp+8]
  00061	8d 42 0c	 lea	 eax, DWORD PTR [edx+12]
  00064	8b 8a cc fd ff
	ff		 mov	 ecx, DWORD PTR [edx-564]
  0006a	33 c8		 xor	 ecx, eax
  0006c	e8 00 00 00 00	 call	 @__security_check_cookie@4
  00071	8b 4a fc	 mov	 ecx, DWORD PTR [edx-4]
  00074	33 c8		 xor	 ecx, eax
  00076	e8 00 00 00 00	 call	 @__security_check_cookie@4
  0007b	b8 00 00 00 00	 mov	 eax, OFFSET __ehfuncinfo$?GetFishingPresentItemName@ioFishingManager@@QAE?AVioHashString@@FHH@Z
  00080	e9 00 00 00 00	 jmp	 ___CxxFrameHandler3
text$x	ENDS
?GetFishingPresentItemName@ioFishingManager@@QAE?AVioHashString@@FHH@Z ENDP ; ioFishingManager::GetFishingPresentItemName
PUBLIC	??D?$_Vector_iterator@V?$_Vector_val@UFishingItem@@V?$allocator@UFishingItem@@@std@@@std@@@std@@QBEAAUFishingItem@@XZ ; std::_Vector_iterator<std::_Vector_val<FishingItem,std::allocator<FishingItem> > >::operator*
; Function compile flags: /Ogsp
; File c:\program files (x86)\microsoft visual studio 10.0\vc\include\vector
;	COMDAT ??D?$_Vector_iterator@V?$_Vector_val@UFishingItem@@V?$allocator@UFishingItem@@@std@@@std@@@std@@QBEAAUFishingItem@@XZ
_TEXT	SEGMENT
??D?$_Vector_iterator@V?$_Vector_val@UFishingItem@@V?$allocator@UFishingItem@@@std@@@std@@@std@@QBEAAUFishingItem@@XZ PROC ; std::_Vector_iterator<std::_Vector_val<FishingItem,std::allocator<FishingItem> > >::operator*, COMDAT
; _this$ = ecx

; 322  : 		return ((reference)**(_Mybase *)this);

  00000	8b 01		 mov	 eax, DWORD PTR [ecx]

; 323  : 		}

  00002	c3		 ret	 0
??D?$_Vector_iterator@V?$_Vector_val@UFishingItem@@V?$allocator@UFishingItem@@@std@@@std@@@std@@QBEAAUFishingItem@@XZ ENDP ; std::_Vector_iterator<std::_Vector_val<FishingItem,std::allocator<FishingItem> > >::operator*
_TEXT	ENDS
PUBLIC	??E?$_Vector_iterator@V?$_Vector_val@UFishingItem@@V?$allocator@UFishingItem@@@std@@@std@@@std@@QAEAAV01@XZ ; std::_Vector_iterator<std::_Vector_val<FishingItem,std::allocator<FishingItem> > >::operator++
; Function compile flags: /Ogsp
;	COMDAT ??E?$_Vector_iterator@V?$_Vector_val@UFishingItem@@V?$allocator@UFishingItem@@@std@@@std@@@std@@QAEAAV01@XZ
_TEXT	SEGMENT
??E?$_Vector_iterator@V?$_Vector_val@UFishingItem@@V?$allocator@UFishingItem@@@std@@@std@@@std@@QAEAAV01@XZ PROC ; std::_Vector_iterator<std::_Vector_val<FishingItem,std::allocator<FishingItem> > >::operator++, COMDAT
; _this$ = ecx

; 331  : 		{	// preincrement

  00000	8b c1		 mov	 eax, ecx

; 332  : 		++*(_Mybase *)this;

  00002	83 00 40	 add	 DWORD PTR [eax], 64	; 00000040H

; 333  : 		return (*this);
; 334  : 		}

  00005	c3		 ret	 0
??E?$_Vector_iterator@V?$_Vector_val@UFishingItem@@V?$allocator@UFishingItem@@@std@@@std@@@std@@QAEAAV01@XZ ENDP ; std::_Vector_iterator<std::_Vector_val<FishingItem,std::allocator<FishingItem> > >::operator++
_TEXT	ENDS
PUBLIC	??0?$_Vector_val@UFishingItem@@V?$allocator@UFishingItem@@@std@@@std@@QAE@V?$allocator@UFishingItem@@@1@@Z ; std::_Vector_val<FishingItem,std::allocator<FishingItem> >::_Vector_val<FishingItem,std::allocator<FishingItem> >
; Function compile flags: /Ogsp
;	COMDAT ??0?$_Vector_val@UFishingItem@@V?$allocator@UFishingItem@@@std@@@std@@QAE@V?$allocator@UFishingItem@@@1@@Z
_TEXT	SEGMENT
__Al$ = 8						; size = 1
??0?$_Vector_val@UFishingItem@@V?$allocator@UFishingItem@@@std@@@std@@QAE@V?$allocator@UFishingItem@@@1@@Z PROC ; std::_Vector_val<FishingItem,std::allocator<FishingItem> >::_Vector_val<FishingItem,std::allocator<FishingItem> >, COMDAT
; _this$ = ecx

; 426  : 		{	// construct allocator from _Al

  00000	8b c1		 mov	 eax, ecx

; 427  : 		_Myfirst = 0;

  00002	33 c9		 xor	 ecx, ecx
  00004	89 08		 mov	 DWORD PTR [eax], ecx

; 428  : 		_Mylast = 0;

  00006	89 48 04	 mov	 DWORD PTR [eax+4], ecx

; 429  : 		_Myend = 0;

  00009	89 48 08	 mov	 DWORD PTR [eax+8], ecx

; 430  : 		}

  0000c	c2 04 00	 ret	 4
??0?$_Vector_val@UFishingItem@@V?$allocator@UFishingItem@@@std@@@std@@QAE@V?$allocator@UFishingItem@@@1@@Z ENDP ; std::_Vector_val<FishingItem,std::allocator<FishingItem> >::_Vector_val<FishingItem,std::allocator<FishingItem> >
_TEXT	ENDS
PUBLIC	??0?$_Vector_val@UFishingItemGrade@@V?$allocator@UFishingItemGrade@@@std@@@std@@QAE@V?$allocator@UFishingItemGrade@@@1@@Z ; std::_Vector_val<FishingItemGrade,std::allocator<FishingItemGrade> >::_Vector_val<FishingItemGrade,std::allocator<FishingItemGrade> >
; Function compile flags: /Ogsp
;	COMDAT ??0?$_Vector_val@UFishingItemGrade@@V?$allocator@UFishingItemGrade@@@std@@@std@@QAE@V?$allocator@UFishingItemGrade@@@1@@Z
_TEXT	SEGMENT
__Al$ = 8						; size = 1
??0?$_Vector_val@UFishingItemGrade@@V?$allocator@UFishingItemGrade@@@std@@@std@@QAE@V?$allocator@UFishingItemGrade@@@1@@Z PROC ; std::_Vector_val<FishingItemGrade,std::allocator<FishingItemGrade> >::_Vector_val<FishingItemGrade,std::allocator<FishingItemGrade> >, COMDAT
; _this$ = ecx

; 426  : 		{	// construct allocator from _Al

  00000	8b c1		 mov	 eax, ecx

; 427  : 		_Myfirst = 0;

  00002	33 c9		 xor	 ecx, ecx
  00004	89 08		 mov	 DWORD PTR [eax], ecx

; 428  : 		_Mylast = 0;

  00006	89 48 04	 mov	 DWORD PTR [eax+4], ecx

; 429  : 		_Myend = 0;

  00009	89 48 08	 mov	 DWORD PTR [eax+8], ecx

; 430  : 		}

  0000c	c2 04 00	 ret	 4
??0?$_Vector_val@UFishingItemGrade@@V?$allocator@UFishingItemGrade@@@std@@@std@@QAE@V?$allocator@UFishingItemGrade@@@1@@Z ENDP ; std::_Vector_val<FishingItemGrade,std::allocator<FishingItemGrade> >::_Vector_val<FishingItemGrade,std::allocator<FishingItemGrade> >
_TEXT	ENDS
PUBLIC	??0?$_Vector_val@UFishingTypeInfo@@V?$allocator@UFishingTypeInfo@@@std@@@std@@QAE@V?$allocator@UFishingTypeInfo@@@1@@Z ; std::_Vector_val<FishingTypeInfo,std::allocator<FishingTypeInfo> >::_Vector_val<FishingTypeInfo,std::allocator<FishingTypeInfo> >
; Function compile flags: /Ogsp
;	COMDAT ??0?$_Vector_val@UFishingTypeInfo@@V?$allocator@UFishingTypeInfo@@@std@@@std@@QAE@V?$allocator@UFishingTypeInfo@@@1@@Z
_TEXT	SEGMENT
__Al$ = 8						; size = 1
??0?$_Vector_val@UFishingTypeInfo@@V?$allocator@UFishingTypeInfo@@@std@@@std@@QAE@V?$allocator@UFishingTypeInfo@@@1@@Z PROC ; std::_Vector_val<FishingTypeInfo,std::allocator<FishingTypeInfo> >::_Vector_val<FishingTypeInfo,std::allocator<FishingTypeInfo> >, COMDAT
; _this$ = ecx

; 426  : 		{	// construct allocator from _Al

  00000	8b c1		 mov	 eax, ecx

; 427  : 		_Myfirst = 0;

  00002	33 c9		 xor	 ecx, ecx
  00004	89 08		 mov	 DWORD PTR [eax], ecx

; 428  : 		_Mylast = 0;

  00006	89 48 04	 mov	 DWORD PTR [eax+4], ecx

; 429  : 		_Myend = 0;

  00009	89 48 08	 mov	 DWORD PTR [eax+8], ecx

; 430  : 		}

  0000c	c2 04 00	 ret	 4
??0?$_Vector_val@UFishingTypeInfo@@V?$allocator@UFishingTypeInfo@@@std@@@std@@QAE@V?$allocator@UFishingTypeInfo@@@1@@Z ENDP ; std::_Vector_val<FishingTypeInfo,std::allocator<FishingTypeInfo> >::_Vector_val<FishingTypeInfo,std::allocator<FishingTypeInfo> >
_TEXT	ENDS
PUBLIC	??0?$_Vector_iterator@V?$_Vector_val@UFishingItem@@V?$allocator@UFishingItem@@@std@@@std@@@std@@QAE@PAUFishingItem@@PBU_Container_base0@1@@Z ; std::_Vector_iterator<std::_Vector_val<FishingItem,std::allocator<FishingItem> > >::_Vector_iterator<std::_Vector_val<FishingItem,std::allocator<FishingItem> > >
; Function compile flags: /Ogsp
;	COMDAT ??0?$_Vector_iterator@V?$_Vector_val@UFishingItem@@V?$allocator@UFishingItem@@@std@@@std@@@std@@QAE@PAUFishingItem@@PBU_Container_base0@1@@Z
_TEXT	SEGMENT
__Parg$ = 8						; size = 4
__Pvector$ = 12						; size = 4
??0?$_Vector_iterator@V?$_Vector_val@UFishingItem@@V?$allocator@UFishingItem@@@std@@@std@@@std@@QAE@PAUFishingItem@@PBU_Container_base0@1@@Z PROC ; std::_Vector_iterator<std::_Vector_val<FishingItem,std::allocator<FishingItem> > >::_Vector_iterator<std::_Vector_val<FishingItem,std::allocator<FishingItem> > >, COMDAT
; _this$ = ecx

; 304  : 		{	// construct with pointer _Parg

  00000	55		 push	 ebp
  00001	8b ec		 mov	 ebp, esp
  00003	8b c1		 mov	 eax, ecx
  00005	8b 4d 08	 mov	 ecx, DWORD PTR __Parg$[ebp]
  00008	89 08		 mov	 DWORD PTR [eax], ecx

; 305  : 		}

  0000a	5d		 pop	 ebp
  0000b	c2 08 00	 ret	 8
??0?$_Vector_iterator@V?$_Vector_val@UFishingItem@@V?$allocator@UFishingItem@@@std@@@std@@@std@@QAE@PAUFishingItem@@PBU_Container_base0@1@@Z ENDP ; std::_Vector_iterator<std::_Vector_val<FishingItem,std::allocator<FishingItem> > >::_Vector_iterator<std::_Vector_val<FishingItem,std::allocator<FishingItem> > >
_TEXT	ENDS
PUBLIC	??8?$_Vector_const_iterator@V?$_Vector_val@UFishingItem@@V?$allocator@UFishingItem@@@std@@@std@@@std@@QBE_NABV01@@Z ; std::_Vector_const_iterator<std::_Vector_val<FishingItem,std::allocator<FishingItem> > >::operator==
; Function compile flags: /Ogsp
;	COMDAT ??8?$_Vector_const_iterator@V?$_Vector_val@UFishingItem@@V?$allocator@UFishingItem@@@std@@@std@@@std@@QBE_NABV01@@Z
_TEXT	SEGMENT
__Right$ = 8						; size = 4
??8?$_Vector_const_iterator@V?$_Vector_val@UFishingItem@@V?$allocator@UFishingItem@@@std@@@std@@@std@@QBE_NABV01@@Z PROC ; std::_Vector_const_iterator<std::_Vector_val<FishingItem,std::allocator<FishingItem> > >::operator==, COMDAT
; _this$ = ecx

; 201  : 		{	// test for iterator equality

  00000	55		 push	 ebp
  00001	8b ec		 mov	 ebp, esp

; 202  : 		_Compat(_Right);
; 203  : 		return (this->_Ptr == _Right._Ptr);

  00003	8b 01		 mov	 eax, DWORD PTR [ecx]
  00005	8b 4d 08	 mov	 ecx, DWORD PTR __Right$[ebp]
  00008	2b 01		 sub	 eax, DWORD PTR [ecx]
  0000a	f7 d8		 neg	 eax
  0000c	1b c0		 sbb	 eax, eax
  0000e	40		 inc	 eax

; 204  : 		}

  0000f	5d		 pop	 ebp
  00010	c2 04 00	 ret	 4
??8?$_Vector_const_iterator@V?$_Vector_val@UFishingItem@@V?$allocator@UFishingItem@@@std@@@std@@@std@@QBE_NABV01@@Z ENDP ; std::_Vector_const_iterator<std::_Vector_val<FishingItem,std::allocator<FishingItem> > >::operator==
_TEXT	ENDS
PUBLIC	?_Make_iter@?$vector@UFishingItem@@V?$allocator@UFishingItem@@@std@@@std@@QBE?AV?$_Vector_iterator@V?$_Vector_val@UFishingItem@@V?$allocator@UFishingItem@@@std@@@std@@@2@V?$_Vector_const_iterator@V?$_Vector_val@UFishingItem@@V?$allocator@UFishingItem@@@std@@@std@@@2@@Z ; std::vector<FishingItem,std::allocator<FishingItem> >::_Make_iter
; Function compile flags: /Ogsp
;	COMDAT ?_Make_iter@?$vector@UFishingItem@@V?$allocator@UFishingItem@@@std@@@std@@QBE?AV?$_Vector_iterator@V?$_Vector_val@UFishingItem@@V?$allocator@UFishingItem@@@std@@@std@@@2@V?$_Vector_const_iterator@V?$_Vector_val@UFishingItem@@V?$allocator@UFishingItem@@@std@@@std@@@2@@Z
_TEXT	SEGMENT
___$ReturnUdt$ = 8					; size = 4
__Where$ = 12						; size = 4
?_Make_iter@?$vector@UFishingItem@@V?$allocator@UFishingItem@@@std@@@std@@QBE?AV?$_Vector_iterator@V?$_Vector_val@UFishingItem@@V?$allocator@UFishingItem@@@std@@@std@@@2@V?$_Vector_const_iterator@V?$_Vector_val@UFishingItem@@V?$allocator@UFishingItem@@@std@@@std@@@2@@Z PROC ; std::vector<FishingItem,std::allocator<FishingItem> >::_Make_iter, COMDAT
; _this$ = ecx

; 801  : 		{	// make iterator from const_iterator

  00000	55		 push	 ebp
  00001	8b ec		 mov	 ebp, esp

; 802  : 		return (iterator(_Where._Ptr, this));

  00003	8b 45 08	 mov	 eax, DWORD PTR ___$ReturnUdt$[ebp]
  00006	8b 4d 0c	 mov	 ecx, DWORD PTR __Where$[ebp]
  00009	89 08		 mov	 DWORD PTR [eax], ecx

; 803  : 		}

  0000b	5d		 pop	 ebp
  0000c	c2 08 00	 ret	 8
?_Make_iter@?$vector@UFishingItem@@V?$allocator@UFishingItem@@@std@@@std@@QBE?AV?$_Vector_iterator@V?$_Vector_val@UFishingItem@@V?$allocator@UFishingItem@@@std@@@std@@@2@V?$_Vector_const_iterator@V?$_Vector_val@UFishingItem@@V?$allocator@UFishingItem@@@std@@@std@@@2@@Z ENDP ; std::vector<FishingItem,std::allocator<FishingItem> >::_Make_iter
_TEXT	ENDS
PUBLIC	?max_size@?$vector@UFishingItem@@V?$allocator@UFishingItem@@@std@@@std@@QBEIXZ ; std::vector<FishingItem,std::allocator<FishingItem> >::max_size
; Function compile flags: /Ogsp
;	COMDAT ?max_size@?$vector@UFishingItem@@V?$allocator@UFishingItem@@@std@@@std@@QBEIXZ
_TEXT	SEGMENT
?max_size@?$vector@UFishingItem@@V?$allocator@UFishingItem@@@std@@@std@@QBEIXZ PROC ; std::vector<FishingItem,std::allocator<FishingItem> >::max_size, COMDAT
; _this$ = ecx

; 884  : 		return (this->_Alval.max_size());

  00000	b8 ff ff ff 03	 mov	 eax, 67108863		; 03ffffffH

; 885  : 		}

  00005	c3		 ret	 0
?max_size@?$vector@UFishingItem@@V?$allocator@UFishingItem@@@std@@@std@@QBEIXZ ENDP ; std::vector<FishingItem,std::allocator<FishingItem> >::max_size
_TEXT	ENDS
PUBLIC	?_Grow_to@?$vector@UFishingItem@@V?$allocator@UFishingItem@@@std@@@std@@IBEII@Z ; std::vector<FishingItem,std::allocator<FishingItem> >::_Grow_to
; Function compile flags: /Ogsp
;	COMDAT ?_Grow_to@?$vector@UFishingItem@@V?$allocator@UFishingItem@@@std@@@std@@IBEII@Z
_TEXT	SEGMENT
__Count$ = 8						; size = 4
?_Grow_to@?$vector@UFishingItem@@V?$allocator@UFishingItem@@@std@@@std@@IBEII@Z PROC ; std::vector<FishingItem,std::allocator<FishingItem> >::_Grow_to, COMDAT
; _this$ = ecx

; 1274 : 		{	// grow by 50% or at least to _Count

  00000	55		 push	 ebp
  00001	8b ec		 mov	 ebp, esp

; 1275 : 		size_type _Capacity = capacity();

  00003	8b 41 08	 mov	 eax, DWORD PTR [ecx+8]
  00006	2b 01		 sub	 eax, DWORD PTR [ecx]

; 1276 : 
; 1277 : 		_Capacity = max_size() - _Capacity / 2 < _Capacity
; 1278 : 			? 0 : _Capacity + _Capacity / 2;	// try to grow by 50%

  00008	ba ff ff ff 03	 mov	 edx, 67108863		; 03ffffffH
  0000d	c1 f8 06	 sar	 eax, 6
  00010	8b c8		 mov	 ecx, eax
  00012	d1 e9		 shr	 ecx, 1
  00014	2b d1		 sub	 edx, ecx
  00016	3b d0		 cmp	 edx, eax
  00018	73 04		 jae	 SHORT $LN4@Grow_to
  0001a	33 c0		 xor	 eax, eax
  0001c	eb 02		 jmp	 SHORT $LN5@Grow_to
$LN4@Grow_to:
  0001e	03 c1		 add	 eax, ecx
$LN5@Grow_to:

; 1279 : 		if (_Capacity < _Count)

  00020	3b 45 08	 cmp	 eax, DWORD PTR __Count$[ebp]

; 1280 : 			_Capacity = _Count;

  00023	0f 42 45 08	 cmovb	 eax, DWORD PTR __Count$[ebp]

; 1281 : 		return (_Capacity);
; 1282 : 		}

  00027	5d		 pop	 ebp
  00028	c2 04 00	 ret	 4
?_Grow_to@?$vector@UFishingItem@@V?$allocator@UFishingItem@@@std@@@std@@IBEII@Z ENDP ; std::vector<FishingItem,std::allocator<FishingItem> >::_Grow_to
_TEXT	ENDS
PUBLIC	?max_size@?$vector@UFishingItemGrade@@V?$allocator@UFishingItemGrade@@@std@@@std@@QBEIXZ ; std::vector<FishingItemGrade,std::allocator<FishingItemGrade> >::max_size
; Function compile flags: /Ogsp
;	COMDAT ?max_size@?$vector@UFishingItemGrade@@V?$allocator@UFishingItemGrade@@@std@@@std@@QBEIXZ
_TEXT	SEGMENT
?max_size@?$vector@UFishingItemGrade@@V?$allocator@UFishingItemGrade@@@std@@@std@@QBEIXZ PROC ; std::vector<FishingItemGrade,std::allocator<FishingItemGrade> >::max_size, COMDAT
; _this$ = ecx

; 884  : 		return (this->_Alval.max_size());

  00000	b8 66 66 66 06	 mov	 eax, 107374182		; 06666666H

; 885  : 		}

  00005	c3		 ret	 0
?max_size@?$vector@UFishingItemGrade@@V?$allocator@UFishingItemGrade@@@std@@@std@@QBEIXZ ENDP ; std::vector<FishingItemGrade,std::allocator<FishingItemGrade> >::max_size
_TEXT	ENDS
PUBLIC	?_Grow_to@?$vector@UFishingItemGrade@@V?$allocator@UFishingItemGrade@@@std@@@std@@IBEII@Z ; std::vector<FishingItemGrade,std::allocator<FishingItemGrade> >::_Grow_to
; Function compile flags: /Ogsp
;	COMDAT ?_Grow_to@?$vector@UFishingItemGrade@@V?$allocator@UFishingItemGrade@@@std@@@std@@IBEII@Z
_TEXT	SEGMENT
__Count$ = 8						; size = 4
?_Grow_to@?$vector@UFishingItemGrade@@V?$allocator@UFishingItemGrade@@@std@@@std@@IBEII@Z PROC ; std::vector<FishingItemGrade,std::allocator<FishingItemGrade> >::_Grow_to, COMDAT
; _this$ = ecx

; 1274 : 		{	// grow by 50% or at least to _Count

  00000	55		 push	 ebp
  00001	8b ec		 mov	 ebp, esp

; 1275 : 		size_type _Capacity = capacity();

  00003	8b 41 08	 mov	 eax, DWORD PTR [ecx+8]
  00006	2b 01		 sub	 eax, DWORD PTR [ecx]
  00008	6a 28		 push	 40			; 00000028H
  0000a	99		 cdq
  0000b	59		 pop	 ecx
  0000c	f7 f9		 idiv	 ecx

; 1276 : 
; 1277 : 		_Capacity = max_size() - _Capacity / 2 < _Capacity
; 1278 : 			? 0 : _Capacity + _Capacity / 2;	// try to grow by 50%

  0000e	ba 66 66 66 06	 mov	 edx, 107374182		; 06666666H
  00013	8b c8		 mov	 ecx, eax
  00015	d1 e9		 shr	 ecx, 1
  00017	2b d1		 sub	 edx, ecx
  00019	3b d0		 cmp	 edx, eax
  0001b	73 04		 jae	 SHORT $LN4@Grow_to@2
  0001d	33 c0		 xor	 eax, eax
  0001f	eb 02		 jmp	 SHORT $LN5@Grow_to@2
$LN4@Grow_to@2:
  00021	03 c1		 add	 eax, ecx
$LN5@Grow_to@2:

; 1279 : 		if (_Capacity < _Count)

  00023	3b 45 08	 cmp	 eax, DWORD PTR __Count$[ebp]

; 1280 : 			_Capacity = _Count;

  00026	0f 42 45 08	 cmovb	 eax, DWORD PTR __Count$[ebp]

; 1281 : 		return (_Capacity);
; 1282 : 		}

  0002a	5d		 pop	 ebp
  0002b	c2 04 00	 ret	 4
?_Grow_to@?$vector@UFishingItemGrade@@V?$allocator@UFishingItemGrade@@@std@@@std@@IBEII@Z ENDP ; std::vector<FishingItemGrade,std::allocator<FishingItemGrade> >::_Grow_to
_TEXT	ENDS
PUBLIC	?max_size@?$vector@UFishingTypeInfo@@V?$allocator@UFishingTypeInfo@@@std@@@std@@QBEIXZ ; std::vector<FishingTypeInfo,std::allocator<FishingTypeInfo> >::max_size
; Function compile flags: /Ogsp
;	COMDAT ?max_size@?$vector@UFishingTypeInfo@@V?$allocator@UFishingTypeInfo@@@std@@@std@@QBEIXZ
_TEXT	SEGMENT
?max_size@?$vector@UFishingTypeInfo@@V?$allocator@UFishingTypeInfo@@@std@@@std@@QBEIXZ PROC ; std::vector<FishingTypeInfo,std::allocator<FishingTypeInfo> >::max_size, COMDAT
; _this$ = ecx

; 884  : 		return (this->_Alval.max_size());

  00000	b8 ff ff ff 03	 mov	 eax, 67108863		; 03ffffffH

; 885  : 		}

  00005	c3		 ret	 0
?max_size@?$vector@UFishingTypeInfo@@V?$allocator@UFishingTypeInfo@@@std@@@std@@QBEIXZ ENDP ; std::vector<FishingTypeInfo,std::allocator<FishingTypeInfo> >::max_size
_TEXT	ENDS
PUBLIC	?_Grow_to@?$vector@UFishingTypeInfo@@V?$allocator@UFishingTypeInfo@@@std@@@std@@IBEII@Z ; std::vector<FishingTypeInfo,std::allocator<FishingTypeInfo> >::_Grow_to
; Function compile flags: /Ogsp
;	COMDAT ?_Grow_to@?$vector@UFishingTypeInfo@@V?$allocator@UFishingTypeInfo@@@std@@@std@@IBEII@Z
_TEXT	SEGMENT
__Count$ = 8						; size = 4
?_Grow_to@?$vector@UFishingTypeInfo@@V?$allocator@UFishingTypeInfo@@@std@@@std@@IBEII@Z PROC ; std::vector<FishingTypeInfo,std::allocator<FishingTypeInfo> >::_Grow_to, COMDAT
; _this$ = ecx

; 1274 : 		{	// grow by 50% or at least to _Count

  00000	55		 push	 ebp
  00001	8b ec		 mov	 ebp, esp

; 1275 : 		size_type _Capacity = capacity();

  00003	8b 41 08	 mov	 eax, DWORD PTR [ecx+8]
  00006	2b 01		 sub	 eax, DWORD PTR [ecx]

; 1276 : 
; 1277 : 		_Capacity = max_size() - _Capacity / 2 < _Capacity
; 1278 : 			? 0 : _Capacity + _Capacity / 2;	// try to grow by 50%

  00008	ba ff ff ff 03	 mov	 edx, 67108863		; 03ffffffH
  0000d	c1 f8 06	 sar	 eax, 6
  00010	8b c8		 mov	 ecx, eax
  00012	d1 e9		 shr	 ecx, 1
  00014	2b d1		 sub	 edx, ecx
  00016	3b d0		 cmp	 edx, eax
  00018	73 04		 jae	 SHORT $LN4@Grow_to@3
  0001a	33 c0		 xor	 eax, eax
  0001c	eb 02		 jmp	 SHORT $LN5@Grow_to@3
$LN4@Grow_to@3:
  0001e	03 c1		 add	 eax, ecx
$LN5@Grow_to@3:

; 1279 : 		if (_Capacity < _Count)

  00020	3b 45 08	 cmp	 eax, DWORD PTR __Count$[ebp]

; 1280 : 			_Capacity = _Count;

  00023	0f 42 45 08	 cmovb	 eax, DWORD PTR __Count$[ebp]

; 1281 : 		return (_Capacity);
; 1282 : 		}

  00027	5d		 pop	 ebp
  00028	c2 04 00	 ret	 4
?_Grow_to@?$vector@UFishingTypeInfo@@V?$allocator@UFishingTypeInfo@@@std@@@std@@IBEII@Z ENDP ; std::vector<FishingTypeInfo,std::allocator<FishingTypeInfo> >::_Grow_to
_TEXT	ENDS
PUBLIC	??0?$_Vector_iterator@V?$_Vector_val@UFishingItemGrade@@V?$allocator@UFishingItemGrade@@@std@@@std@@@std@@QAE@PAUFishingItemGrade@@PBU_Container_base0@1@@Z ; std::_Vector_iterator<std::_Vector_val<FishingItemGrade,std::allocator<FishingItemGrade> > >::_Vector_iterator<std::_Vector_val<FishingItemGrade,std::allocator<FishingItemGrade> > >
; Function compile flags: /Ogsp
;	COMDAT ??0?$_Vector_iterator@V?$_Vector_val@UFishingItemGrade@@V?$allocator@UFishingItemGrade@@@std@@@std@@@std@@QAE@PAUFishingItemGrade@@PBU_Container_base0@1@@Z
_TEXT	SEGMENT
__Parg$ = 8						; size = 4
__Pvector$ = 12						; size = 4
??0?$_Vector_iterator@V?$_Vector_val@UFishingItemGrade@@V?$allocator@UFishingItemGrade@@@std@@@std@@@std@@QAE@PAUFishingItemGrade@@PBU_Container_base0@1@@Z PROC ; std::_Vector_iterator<std::_Vector_val<FishingItemGrade,std::allocator<FishingItemGrade> > >::_Vector_iterator<std::_Vector_val<FishingItemGrade,std::allocator<FishingItemGrade> > >, COMDAT
; _this$ = ecx

; 304  : 		{	// construct with pointer _Parg

  00000	55		 push	 ebp
  00001	8b ec		 mov	 ebp, esp
  00003	8b c1		 mov	 eax, ecx
  00005	8b 4d 08	 mov	 ecx, DWORD PTR __Parg$[ebp]
  00008	89 08		 mov	 DWORD PTR [eax], ecx

; 305  : 		}

  0000a	5d		 pop	 ebp
  0000b	c2 08 00	 ret	 8
??0?$_Vector_iterator@V?$_Vector_val@UFishingItemGrade@@V?$allocator@UFishingItemGrade@@@std@@@std@@@std@@QAE@PAUFishingItemGrade@@PBU_Container_base0@1@@Z ENDP ; std::_Vector_iterator<std::_Vector_val<FishingItemGrade,std::allocator<FishingItemGrade> > >::_Vector_iterator<std::_Vector_val<FishingItemGrade,std::allocator<FishingItemGrade> > >
_TEXT	ENDS
PUBLIC	??0?$_Vector_iterator@V?$_Vector_val@UFishingTypeInfo@@V?$allocator@UFishingTypeInfo@@@std@@@std@@@std@@QAE@PAUFishingTypeInfo@@PBU_Container_base0@1@@Z ; std::_Vector_iterator<std::_Vector_val<FishingTypeInfo,std::allocator<FishingTypeInfo> > >::_Vector_iterator<std::_Vector_val<FishingTypeInfo,std::allocator<FishingTypeInfo> > >
; Function compile flags: /Ogsp
;	COMDAT ??0?$_Vector_iterator@V?$_Vector_val@UFishingTypeInfo@@V?$allocator@UFishingTypeInfo@@@std@@@std@@@std@@QAE@PAUFishingTypeInfo@@PBU_Container_base0@1@@Z
_TEXT	SEGMENT
__Parg$ = 8						; size = 4
__Pvector$ = 12						; size = 4
??0?$_Vector_iterator@V?$_Vector_val@UFishingTypeInfo@@V?$allocator@UFishingTypeInfo@@@std@@@std@@@std@@QAE@PAUFishingTypeInfo@@PBU_Container_base0@1@@Z PROC ; std::_Vector_iterator<std::_Vector_val<FishingTypeInfo,std::allocator<FishingTypeInfo> > >::_Vector_iterator<std::_Vector_val<FishingTypeInfo,std::allocator<FishingTypeInfo> > >, COMDAT
; _this$ = ecx

; 304  : 		{	// construct with pointer _Parg

  00000	55		 push	 ebp
  00001	8b ec		 mov	 ebp, esp
  00003	8b c1		 mov	 eax, ecx
  00005	8b 4d 08	 mov	 ecx, DWORD PTR __Parg$[ebp]
  00008	89 08		 mov	 DWORD PTR [eax], ecx

; 305  : 		}

  0000a	5d		 pop	 ebp
  0000b	c2 08 00	 ret	 8
??0?$_Vector_iterator@V?$_Vector_val@UFishingTypeInfo@@V?$allocator@UFishingTypeInfo@@@std@@@std@@@std@@QAE@PAUFishingTypeInfo@@PBU_Container_base0@1@@Z ENDP ; std::_Vector_iterator<std::_Vector_val<FishingTypeInfo,std::allocator<FishingTypeInfo> > >::_Vector_iterator<std::_Vector_val<FishingTypeInfo,std::allocator<FishingTypeInfo> > >
_TEXT	ENDS
PUBLIC	?allocate@?$allocator@UFishingItem@@@std@@QAEPAUFishingItem@@I@Z ; std::allocator<FishingItem>::allocate
; Function compile flags: /Ogsp
; File c:\program files (x86)\microsoft visual studio 10.0\vc\include\xmemory
;	COMDAT ?allocate@?$allocator@UFishingItem@@@std@@QAEPAUFishingItem@@I@Z
_TEXT	SEGMENT
__Count$ = 8						; size = 4
?allocate@?$allocator@UFishingItem@@@std@@QAEPAUFishingItem@@I@Z PROC ; std::allocator<FishingItem>::allocate, COMDAT
; _this$ = ecx

; 186  : 		{	// allocate array of _Count elements

  00000	55		 push	 ebp
  00001	8b ec		 mov	 ebp, esp

; 187  : 		return (_Allocate(_Count, (pointer)0));

  00003	6a 00		 push	 0
  00005	ff 75 08	 push	 DWORD PTR __Count$[ebp]
  00008	e8 00 00 00 00	 call	 ??$_Allocate@UFishingItem@@@std@@YAPAUFishingItem@@IPAU1@@Z ; std::_Allocate<FishingItem>
  0000d	59		 pop	 ecx
  0000e	59		 pop	 ecx

; 188  : 		}

  0000f	5d		 pop	 ebp
  00010	c2 04 00	 ret	 4
?allocate@?$allocator@UFishingItem@@@std@@QAEPAUFishingItem@@I@Z ENDP ; std::allocator<FishingItem>::allocate
_TEXT	ENDS
PUBLIC	?allocate@?$allocator@UFishingItemGrade@@@std@@QAEPAUFishingItemGrade@@I@Z ; std::allocator<FishingItemGrade>::allocate
; Function compile flags: /Ogsp
;	COMDAT ?allocate@?$allocator@UFishingItemGrade@@@std@@QAEPAUFishingItemGrade@@I@Z
_TEXT	SEGMENT
__Count$ = 8						; size = 4
?allocate@?$allocator@UFishingItemGrade@@@std@@QAEPAUFishingItemGrade@@I@Z PROC ; std::allocator<FishingItemGrade>::allocate, COMDAT
; _this$ = ecx

; 186  : 		{	// allocate array of _Count elements

  00000	55		 push	 ebp
  00001	8b ec		 mov	 ebp, esp

; 187  : 		return (_Allocate(_Count, (pointer)0));

  00003	6a 00		 push	 0
  00005	ff 75 08	 push	 DWORD PTR __Count$[ebp]
  00008	e8 00 00 00 00	 call	 ??$_Allocate@UFishingItemGrade@@@std@@YAPAUFishingItemGrade@@IPAU1@@Z ; std::_Allocate<FishingItemGrade>
  0000d	59		 pop	 ecx
  0000e	59		 pop	 ecx

; 188  : 		}

  0000f	5d		 pop	 ebp
  00010	c2 04 00	 ret	 4
?allocate@?$allocator@UFishingItemGrade@@@std@@QAEPAUFishingItemGrade@@I@Z ENDP ; std::allocator<FishingItemGrade>::allocate
_TEXT	ENDS
PUBLIC	?allocate@?$allocator@UFishingTypeInfo@@@std@@QAEPAUFishingTypeInfo@@I@Z ; std::allocator<FishingTypeInfo>::allocate
; Function compile flags: /Ogsp
;	COMDAT ?allocate@?$allocator@UFishingTypeInfo@@@std@@QAEPAUFishingTypeInfo@@I@Z
_TEXT	SEGMENT
__Count$ = 8						; size = 4
?allocate@?$allocator@UFishingTypeInfo@@@std@@QAEPAUFishingTypeInfo@@I@Z PROC ; std::allocator<FishingTypeInfo>::allocate, COMDAT
; _this$ = ecx

; 186  : 		{	// allocate array of _Count elements

  00000	55		 push	 ebp
  00001	8b ec		 mov	 ebp, esp

; 187  : 		return (_Allocate(_Count, (pointer)0));

  00003	6a 00		 push	 0
  00005	ff 75 08	 push	 DWORD PTR __Count$[ebp]
  00008	e8 00 00 00 00	 call	 ??$_Allocate@UFishingTypeInfo@@@std@@YAPAUFishingTypeInfo@@IPAU1@@Z ; std::_Allocate<FishingTypeInfo>
  0000d	59		 pop	 ecx
  0000e	59		 pop	 ecx

; 188  : 		}

  0000f	5d		 pop	 ebp
  00010	c2 04 00	 ret	 4
?allocate@?$allocator@UFishingTypeInfo@@@std@@QAEPAUFishingTypeInfo@@I@Z ENDP ; std::allocator<FishingTypeInfo>::allocate
_TEXT	ENDS
PUBLIC	??8?$_Vector_const_iterator@V?$_Vector_val@UFishingItemGrade@@V?$allocator@UFishingItemGrade@@@std@@@std@@@std@@QBE_NABV01@@Z ; std::_Vector_const_iterator<std::_Vector_val<FishingItemGrade,std::allocator<FishingItemGrade> > >::operator==
; Function compile flags: /Ogsp
; File c:\program files (x86)\microsoft visual studio 10.0\vc\include\vector
;	COMDAT ??8?$_Vector_const_iterator@V?$_Vector_val@UFishingItemGrade@@V?$allocator@UFishingItemGrade@@@std@@@std@@@std@@QBE_NABV01@@Z
_TEXT	SEGMENT
__Right$ = 8						; size = 4
??8?$_Vector_const_iterator@V?$_Vector_val@UFishingItemGrade@@V?$allocator@UFishingItemGrade@@@std@@@std@@@std@@QBE_NABV01@@Z PROC ; std::_Vector_const_iterator<std::_Vector_val<FishingItemGrade,std::allocator<FishingItemGrade> > >::operator==, COMDAT
; _this$ = ecx

; 201  : 		{	// test for iterator equality

  00000	55		 push	 ebp
  00001	8b ec		 mov	 ebp, esp

; 202  : 		_Compat(_Right);
; 203  : 		return (this->_Ptr == _Right._Ptr);

  00003	8b 01		 mov	 eax, DWORD PTR [ecx]
  00005	8b 4d 08	 mov	 ecx, DWORD PTR __Right$[ebp]
  00008	2b 01		 sub	 eax, DWORD PTR [ecx]
  0000a	f7 d8		 neg	 eax
  0000c	1b c0		 sbb	 eax, eax
  0000e	40		 inc	 eax

; 204  : 		}

  0000f	5d		 pop	 ebp
  00010	c2 04 00	 ret	 4
??8?$_Vector_const_iterator@V?$_Vector_val@UFishingItemGrade@@V?$allocator@UFishingItemGrade@@@std@@@std@@@std@@QBE_NABV01@@Z ENDP ; std::_Vector_const_iterator<std::_Vector_val<FishingItemGrade,std::allocator<FishingItemGrade> > >::operator==
_TEXT	ENDS
PUBLIC	??8?$_Vector_const_iterator@V?$_Vector_val@UFishingTypeInfo@@V?$allocator@UFishingTypeInfo@@@std@@@std@@@std@@QBE_NABV01@@Z ; std::_Vector_const_iterator<std::_Vector_val<FishingTypeInfo,std::allocator<FishingTypeInfo> > >::operator==
; Function compile flags: /Ogsp
;	COMDAT ??8?$_Vector_const_iterator@V?$_Vector_val@UFishingTypeInfo@@V?$allocator@UFishingTypeInfo@@@std@@@std@@@std@@QBE_NABV01@@Z
_TEXT	SEGMENT
__Right$ = 8						; size = 4
??8?$_Vector_const_iterator@V?$_Vector_val@UFishingTypeInfo@@V?$allocator@UFishingTypeInfo@@@std@@@std@@@std@@QBE_NABV01@@Z PROC ; std::_Vector_const_iterator<std::_Vector_val<FishingTypeInfo,std::allocator<FishingTypeInfo> > >::operator==, COMDAT
; _this$ = ecx

; 201  : 		{	// test for iterator equality

  00000	55		 push	 ebp
  00001	8b ec		 mov	 ebp, esp

; 202  : 		_Compat(_Right);
; 203  : 		return (this->_Ptr == _Right._Ptr);

  00003	8b 01		 mov	 eax, DWORD PTR [ecx]
  00005	8b 4d 08	 mov	 ecx, DWORD PTR __Right$[ebp]
  00008	2b 01		 sub	 eax, DWORD PTR [ecx]
  0000a	f7 d8		 neg	 eax
  0000c	1b c0		 sbb	 eax, eax
  0000e	40		 inc	 eax

; 204  : 		}

  0000f	5d		 pop	 ebp
  00010	c2 04 00	 ret	 4
??8?$_Vector_const_iterator@V?$_Vector_val@UFishingTypeInfo@@V?$allocator@UFishingTypeInfo@@@std@@@std@@@std@@QBE_NABV01@@Z ENDP ; std::_Vector_const_iterator<std::_Vector_val<FishingTypeInfo,std::allocator<FishingTypeInfo> > >::operator==
_TEXT	ENDS
PUBLIC	__$ArrayPad$
PUBLIC	??$SetTitle_e@$06@ioINILoader@@QAEXAAY06$$CBD@Z	; ioINILoader::SetTitle_e<7>
EXTRN	__imp_?SetTitle@ioINILoader@@QAEXPBD@Z:PROC
EXTRN	___security_cookie:DWORD
; Function compile flags: /Ogsp
; File d:\lost saga for developer\youtube\tutorial\source\src\io3dengine\ioiniloader.h
;	COMDAT ??$SetTitle_e@$06@ioINILoader@@QAEXAAY06$$CBD@Z
_TEXT	SEGMENT
__t$ = -16						; size = 7
__$ArrayPad$ = -4					; size = 4
_t$ = 8							; size = 4
??$SetTitle_e@$06@ioINILoader@@QAEXAAY06$$CBD@Z PROC	; ioINILoader::SetTitle_e<7>, COMDAT
; _this$ = ecx

; 188  : 	{

  00000	55		 push	 ebp
  00001	8b ec		 mov	 ebp, esp
  00003	83 ec 10	 sub	 esp, 16			; 00000010H
  00006	a1 00 00 00 00	 mov	 eax, DWORD PTR ___security_cookie
  0000b	33 c5		 xor	 eax, ebp
  0000d	89 45 fc	 mov	 DWORD PTR __$ArrayPad$[ebp], eax
  00010	8b 45 08	 mov	 eax, DWORD PTR _t$[ebp]

; 189  : 		_ENCSTR(t, _t);

  00013	8a 10		 mov	 dl, BYTE PTR [eax]
  00015	56		 push	 esi
  00016	8b f1		 mov	 esi, ecx
  00018	84 d2		 test	 dl, dl
  0001a	0f 84 c0 00 00
	00		 je	 $LN96@SetTitle_e
  00020	80 f2 ed	 xor	 dl, -19			; ffffffedH
  00023	88 55 f0	 mov	 BYTE PTR __t$[ebp], dl
  00026	8a 50 01	 mov	 dl, BYTE PTR [eax+1]
  00029	84 d2		 test	 dl, dl
  0002b	0f 84 a9 00 00
	00		 je	 $LN95@SetTitle_e
  00031	80 f2 ec	 xor	 dl, -20			; ffffffecH
  00034	88 55 f1	 mov	 BYTE PTR __t$[ebp+1], dl
  00037	8a 50 02	 mov	 dl, BYTE PTR [eax+2]
  0003a	84 d2		 test	 dl, dl
  0003c	0f 84 92 00 00
	00		 je	 $LN94@SetTitle_e
  00042	80 f2 eb	 xor	 dl, -21			; ffffffebH
  00045	88 55 f2	 mov	 BYTE PTR __t$[ebp+2], dl
  00048	8a 50 03	 mov	 dl, BYTE PTR [eax+3]
  0004b	84 d2		 test	 dl, dl
  0004d	74 7f		 je	 SHORT $LN93@SetTitle_e
  0004f	80 f2 ea	 xor	 dl, -22			; ffffffeaH
  00052	88 55 f3	 mov	 BYTE PTR __t$[ebp+3], dl
  00055	8a 50 04	 mov	 dl, BYTE PTR [eax+4]
  00058	84 d2		 test	 dl, dl
  0005a	74 6c		 je	 SHORT $LN92@SetTitle_e
  0005c	80 f2 ed	 xor	 dl, -19			; ffffffedH
  0005f	88 55 f4	 mov	 BYTE PTR __t$[ebp+4], dl
  00062	8a 50 05	 mov	 dl, BYTE PTR [eax+5]
  00065	84 d2		 test	 dl, dl
  00067	74 59		 je	 SHORT $LN91@SetTitle_e
  00069	80 f2 ec	 xor	 dl, -20			; ffffffecH
  0006c	80 78 06 00	 cmp	 BYTE PTR [eax+6], 0
  00070	88 55 f5	 mov	 BYTE PTR __t$[ebp+5], dl
  00073	74 6f		 je	 SHORT $LN1@SetTitle_e
  00075	8a 50 07	 mov	 dl, BYTE PTR [eax+7]
  00078	84 d2		 test	 dl, dl
  0007a	74 40		 je	 SHORT $LN89@SetTitle_e
  0007c	80 f2 ea	 xor	 dl, -22			; ffffffeaH
  0007f	88 55 f7	 mov	 BYTE PTR __t$[ebp+7], dl
  00082	8a 50 08	 mov	 dl, BYTE PTR [eax+8]
  00085	84 d2		 test	 dl, dl
  00087	74 2d		 je	 SHORT $LN88@SetTitle_e
  00089	80 f2 ed	 xor	 dl, -19			; ffffffedH
  0008c	88 55 f8	 mov	 BYTE PTR __t$[ebp+8], dl
  0008f	8a 50 09	 mov	 dl, BYTE PTR [eax+9]
  00092	84 d2		 test	 dl, dl
  00094	74 1a		 je	 SHORT $LN87@SetTitle_e
  00096	8a 40 0a	 mov	 al, BYTE PTR [eax+10]
  00099	80 f2 ec	 xor	 dl, -20			; ffffffecH
  0009c	88 55 f9	 mov	 BYTE PTR __t$[ebp+9], dl
  0009f	84 c0		 test	 al, al
  000a1	74 07		 je	 SHORT $LN86@SetTitle_e
  000a3	34 eb		 xor	 al, -21			; ffffffebH
  000a5	88 45 fa	 mov	 BYTE PTR __t$[ebp+10], al
  000a8	eb 3a		 jmp	 SHORT $LN1@SetTitle_e
$LN86@SetTitle_e:
  000aa	c6 45 fa eb	 mov	 BYTE PTR __t$[ebp+10], -21 ; ffffffebH
  000ae	eb 34		 jmp	 SHORT $LN1@SetTitle_e
$LN87@SetTitle_e:
  000b0	c6 45 f9 ec	 mov	 BYTE PTR __t$[ebp+9], -20 ; ffffffecH
  000b4	eb 2e		 jmp	 SHORT $LN1@SetTitle_e
$LN88@SetTitle_e:
  000b6	c6 45 f8 ed	 mov	 BYTE PTR __t$[ebp+8], -19 ; ffffffedH
  000ba	eb 28		 jmp	 SHORT $LN1@SetTitle_e
$LN89@SetTitle_e:
  000bc	c6 45 f7 ea	 mov	 BYTE PTR __t$[ebp+7], -22 ; ffffffeaH
  000c0	eb 22		 jmp	 SHORT $LN1@SetTitle_e
$LN91@SetTitle_e:
  000c2	c6 45 f5 ec	 mov	 BYTE PTR __t$[ebp+5], -20 ; ffffffecH
  000c6	eb 1c		 jmp	 SHORT $LN1@SetTitle_e
$LN92@SetTitle_e:
  000c8	c6 45 f4 ed	 mov	 BYTE PTR __t$[ebp+4], -19 ; ffffffedH
  000cc	eb 16		 jmp	 SHORT $LN1@SetTitle_e
$LN93@SetTitle_e:
  000ce	c6 45 f3 ea	 mov	 BYTE PTR __t$[ebp+3], -22 ; ffffffeaH
  000d2	eb 10		 jmp	 SHORT $LN1@SetTitle_e
$LN94@SetTitle_e:
  000d4	c6 45 f2 eb	 mov	 BYTE PTR __t$[ebp+2], -21 ; ffffffebH
  000d8	eb 0a		 jmp	 SHORT $LN1@SetTitle_e
$LN95@SetTitle_e:
  000da	c6 45 f1 ec	 mov	 BYTE PTR __t$[ebp+1], -20 ; ffffffecH
  000de	eb 04		 jmp	 SHORT $LN1@SetTitle_e
$LN96@SetTitle_e:
  000e0	c6 45 f0 ed	 mov	 BYTE PTR __t$[ebp], -19	; ffffffedH
$LN1@SetTitle_e:
  000e4	81 75 f0 ed ec
	eb ea		 xor	 DWORD PTR __t$[ebp], -353637139 ; eaebecedH
  000eb	6a 04		 push	 4
  000ed	c6 45 f6 00	 mov	 BYTE PTR __t$[ebp+6], 0
  000f1	58		 pop	 eax
$LL101@SetTitle_e:
  000f2	8b c8		 mov	 ecx, eax
  000f4	81 e1 03 00 00
	80		 and	 ecx, -2147483645	; 80000003H
  000fa	79 05		 jns	 SHORT $LN111@SetTitle_e
  000fc	49		 dec	 ecx
  000fd	83 c9 fc	 or	 ecx, -4			; fffffffcH
  00100	41		 inc	 ecx
$LN111@SetTitle_e:
  00101	b2 ed		 mov	 dl, -19			; ffffffedH
  00103	2a d1		 sub	 dl, cl
  00105	30 54 05 f0	 xor	 BYTE PTR __t$[ebp+eax], dl
  00109	40		 inc	 eax
  0010a	83 f8 06	 cmp	 eax, 6
  0010d	7c e3		 jl	 SHORT $LL101@SetTitle_e

; 190  : 		SetTitle(_t);

  0010f	8d 45 f0	 lea	 eax, DWORD PTR __t$[ebp]
  00112	50		 push	 eax
  00113	8b ce		 mov	 ecx, esi
  00115	ff 15 00 00 00
	00		 call	 DWORD PTR __imp_?SetTitle@ioINILoader@@QAEXPBD@Z

; 191  : 	}

  0011b	8b 4d fc	 mov	 ecx, DWORD PTR __$ArrayPad$[ebp]
  0011e	33 cd		 xor	 ecx, ebp
  00120	5e		 pop	 esi
  00121	e8 00 00 00 00	 call	 @__security_check_cookie@4
  00126	c9		 leave
  00127	c2 04 00	 ret	 4
??$SetTitle_e@$06@ioINILoader@@QAEXAAY06$$CBD@Z ENDP	; ioINILoader::SetTitle_e<7>
_TEXT	ENDS
PUBLIC	__$ArrayPad$
PUBLIC	??$LoadInt_e@$0N@@ioINILoader@@QAEHAAY0N@$$CBDH@Z ; ioINILoader::LoadInt_e<13>
EXTRN	__imp_?LoadInt@ioINILoader@@QAEHPBDH@Z:PROC
; Function compile flags: /Ogsp
;	COMDAT ??$LoadInt_e@$0N@@ioINILoader@@QAEHAAY0N@$$CBDH@Z
_TEXT	SEGMENT
__k$ = -24						; size = 13
__$ArrayPad$ = -4					; size = 4
_k$ = 8							; size = 4
_i$ = 12						; size = 4
??$LoadInt_e@$0N@@ioINILoader@@QAEHAAY0N@$$CBDH@Z PROC	; ioINILoader::LoadInt_e<13>, COMDAT
; _this$ = ecx

; 118  : 	{

  00000	55		 push	 ebp
  00001	8b ec		 mov	 ebp, esp
  00003	83 ec 18	 sub	 esp, 24			; 00000018H
  00006	a1 00 00 00 00	 mov	 eax, DWORD PTR ___security_cookie
  0000b	33 c5		 xor	 eax, ebp
  0000d	89 45 fc	 mov	 DWORD PTR __$ArrayPad$[ebp], eax
  00010	8b 45 08	 mov	 eax, DWORD PTR _k$[ebp]

; 119  : 		_ENCSTR(k, _k);

  00013	8a 10		 mov	 dl, BYTE PTR [eax]
  00015	56		 push	 esi
  00016	8b f1		 mov	 esi, ecx
  00018	84 d2		 test	 dl, dl
  0001a	0f 84 4d 01 00
	00		 je	 $LN96@LoadInt_e
  00020	80 f2 ed	 xor	 dl, -19			; ffffffedH
  00023	88 55 e8	 mov	 BYTE PTR __k$[ebp], dl
  00026	8a 50 01	 mov	 dl, BYTE PTR [eax+1]
  00029	84 d2		 test	 dl, dl
  0002b	0f 84 36 01 00
	00		 je	 $LN95@LoadInt_e
  00031	b1 ec		 mov	 cl, -20			; ffffffecH
  00033	32 d1		 xor	 dl, cl
  00035	88 55 e9	 mov	 BYTE PTR __k$[ebp+1], dl
  00038	8a 50 02	 mov	 dl, BYTE PTR [eax+2]
  0003b	84 d2		 test	 dl, dl
  0003d	0f 84 1e 01 00
	00		 je	 $LN94@LoadInt_e
  00043	80 f2 eb	 xor	 dl, -21			; ffffffebH
  00046	88 55 ea	 mov	 BYTE PTR __k$[ebp+2], dl
  00049	8a 50 03	 mov	 dl, BYTE PTR [eax+3]
  0004c	84 d2		 test	 dl, dl
  0004e	0f 84 07 01 00
	00		 je	 $LN93@LoadInt_e
  00054	80 f2 ea	 xor	 dl, -22			; ffffffeaH
  00057	88 55 eb	 mov	 BYTE PTR __k$[ebp+3], dl
  0005a	8a 50 04	 mov	 dl, BYTE PTR [eax+4]
  0005d	84 d2		 test	 dl, dl
  0005f	0f 84 f0 00 00
	00		 je	 $LN92@LoadInt_e
  00065	80 f2 ed	 xor	 dl, -19			; ffffffedH
  00068	88 55 ec	 mov	 BYTE PTR __k$[ebp+4], dl
  0006b	8a 50 05	 mov	 dl, BYTE PTR [eax+5]
  0006e	84 d2		 test	 dl, dl
  00070	0f 84 da 00 00
	00		 je	 $LN91@LoadInt_e
  00076	32 d1		 xor	 dl, cl
  00078	88 55 ed	 mov	 BYTE PTR __k$[ebp+5], dl
  0007b	8a 50 06	 mov	 dl, BYTE PTR [eax+6]
  0007e	84 d2		 test	 dl, dl
  00080	0f 84 c4 00 00
	00		 je	 $LN90@LoadInt_e
  00086	80 f2 eb	 xor	 dl, -21			; ffffffebH
  00089	88 55 ee	 mov	 BYTE PTR __k$[ebp+6], dl
  0008c	8a 50 07	 mov	 dl, BYTE PTR [eax+7]
  0008f	84 d2		 test	 dl, dl
  00091	0f 84 ad 00 00
	00		 je	 $LN89@LoadInt_e
  00097	80 f2 ea	 xor	 dl, -22			; ffffffeaH
  0009a	88 55 ef	 mov	 BYTE PTR __k$[ebp+7], dl
  0009d	8a 50 08	 mov	 dl, BYTE PTR [eax+8]
  000a0	84 d2		 test	 dl, dl
  000a2	0f 84 96 00 00
	00		 je	 $LN88@LoadInt_e
  000a8	80 f2 ed	 xor	 dl, -19			; ffffffedH
  000ab	88 55 f0	 mov	 BYTE PTR __k$[ebp+8], dl
  000ae	8a 50 09	 mov	 dl, BYTE PTR [eax+9]
  000b1	84 d2		 test	 dl, dl
  000b3	0f 84 80 00 00
	00		 je	 $LN87@LoadInt_e
  000b9	32 d1		 xor	 dl, cl
  000bb	88 55 f1	 mov	 BYTE PTR __k$[ebp+9], dl
  000be	8a 50 0a	 mov	 dl, BYTE PTR [eax+10]
  000c1	84 d2		 test	 dl, dl
  000c3	74 6e		 je	 SHORT $LN86@LoadInt_e
  000c5	80 f2 eb	 xor	 dl, -21			; ffffffebH
  000c8	88 55 f2	 mov	 BYTE PTR __k$[ebp+10], dl
  000cb	8a 50 0b	 mov	 dl, BYTE PTR [eax+11]
  000ce	84 d2		 test	 dl, dl
  000d0	74 5b		 je	 SHORT $LN85@LoadInt_e
  000d2	80 f2 ea	 xor	 dl, -22			; ffffffeaH
  000d5	80 78 0c 00	 cmp	 BYTE PTR [eax+12], 0
  000d9	88 55 f3	 mov	 BYTE PTR __k$[ebp+11], dl
  000dc	0f 84 8f 00 00
	00		 je	 $LN1@LoadInt_e
  000e2	8a 50 0d	 mov	 dl, BYTE PTR [eax+13]
  000e5	84 d2		 test	 dl, dl
  000e7	74 3f		 je	 SHORT $LN83@LoadInt_e
  000e9	32 d1		 xor	 dl, cl
  000eb	88 55 f5	 mov	 BYTE PTR __k$[ebp+13], dl
  000ee	8a 50 0e	 mov	 dl, BYTE PTR [eax+14]
  000f1	84 d2		 test	 dl, dl
  000f3	74 2d		 je	 SHORT $LN82@LoadInt_e
  000f5	80 f2 eb	 xor	 dl, -21			; ffffffebH
  000f8	88 55 f6	 mov	 BYTE PTR __k$[ebp+14], dl
  000fb	8a 50 0f	 mov	 dl, BYTE PTR [eax+15]
  000fe	84 d2		 test	 dl, dl
  00100	74 1a		 je	 SHORT $LN81@LoadInt_e
  00102	8a 40 10	 mov	 al, BYTE PTR [eax+16]
  00105	80 f2 ea	 xor	 dl, -22			; ffffffeaH
  00108	88 55 f7	 mov	 BYTE PTR __k$[ebp+15], dl
  0010b	84 c0		 test	 al, al
  0010d	74 07		 je	 SHORT $LN80@LoadInt_e
  0010f	34 ed		 xor	 al, -19			; ffffffedH
  00111	88 45 f8	 mov	 BYTE PTR __k$[ebp+16], al
  00114	eb 5b		 jmp	 SHORT $LN1@LoadInt_e
$LN80@LoadInt_e:
  00116	c6 45 f8 ed	 mov	 BYTE PTR __k$[ebp+16], -19 ; ffffffedH
  0011a	eb 55		 jmp	 SHORT $LN1@LoadInt_e
$LN81@LoadInt_e:
  0011c	c6 45 f7 ea	 mov	 BYTE PTR __k$[ebp+15], -22 ; ffffffeaH
  00120	eb 4f		 jmp	 SHORT $LN1@LoadInt_e
$LN82@LoadInt_e:
  00122	c6 45 f6 eb	 mov	 BYTE PTR __k$[ebp+14], -21 ; ffffffebH
  00126	eb 49		 jmp	 SHORT $LN1@LoadInt_e
$LN83@LoadInt_e:
  00128	88 4d f5	 mov	 BYTE PTR __k$[ebp+13], cl
  0012b	eb 44		 jmp	 SHORT $LN1@LoadInt_e
$LN85@LoadInt_e:
  0012d	c6 45 f3 ea	 mov	 BYTE PTR __k$[ebp+11], -22 ; ffffffeaH
  00131	eb 3e		 jmp	 SHORT $LN1@LoadInt_e
$LN86@LoadInt_e:
  00133	c6 45 f2 eb	 mov	 BYTE PTR __k$[ebp+10], -21 ; ffffffebH
  00137	eb 38		 jmp	 SHORT $LN1@LoadInt_e
$LN87@LoadInt_e:
  00139	88 4d f1	 mov	 BYTE PTR __k$[ebp+9], cl
  0013c	eb 33		 jmp	 SHORT $LN1@LoadInt_e
$LN88@LoadInt_e:
  0013e	c6 45 f0 ed	 mov	 BYTE PTR __k$[ebp+8], -19 ; ffffffedH
  00142	eb 2d		 jmp	 SHORT $LN1@LoadInt_e
$LN89@LoadInt_e:
  00144	c6 45 ef ea	 mov	 BYTE PTR __k$[ebp+7], -22 ; ffffffeaH
  00148	eb 27		 jmp	 SHORT $LN1@LoadInt_e
$LN90@LoadInt_e:
  0014a	c6 45 ee eb	 mov	 BYTE PTR __k$[ebp+6], -21 ; ffffffebH
  0014e	eb 21		 jmp	 SHORT $LN1@LoadInt_e
$LN91@LoadInt_e:
  00150	88 4d ed	 mov	 BYTE PTR __k$[ebp+5], cl
  00153	eb 1c		 jmp	 SHORT $LN1@LoadInt_e
$LN92@LoadInt_e:
  00155	c6 45 ec ed	 mov	 BYTE PTR __k$[ebp+4], -19 ; ffffffedH
  00159	eb 16		 jmp	 SHORT $LN1@LoadInt_e
$LN93@LoadInt_e:
  0015b	c6 45 eb ea	 mov	 BYTE PTR __k$[ebp+3], -22 ; ffffffeaH
  0015f	eb 10		 jmp	 SHORT $LN1@LoadInt_e
$LN94@LoadInt_e:
  00161	c6 45 ea eb	 mov	 BYTE PTR __k$[ebp+2], -21 ; ffffffebH
  00165	eb 0a		 jmp	 SHORT $LN1@LoadInt_e
$LN95@LoadInt_e:
  00167	c6 45 e9 ec	 mov	 BYTE PTR __k$[ebp+1], -20 ; ffffffecH
  0016b	eb 04		 jmp	 SHORT $LN1@LoadInt_e
$LN96@LoadInt_e:
  0016d	c6 45 e8 ed	 mov	 BYTE PTR __k$[ebp], -19	; ffffffedH
$LN1@LoadInt_e:
  00171	6a 03		 push	 3
  00173	8d 45 e8	 lea	 eax, DWORD PTR __k$[ebp]
  00176	c6 45 f4 00	 mov	 BYTE PTR __k$[ebp+12], 0
  0017a	5a		 pop	 edx
$LL104@LoadInt_e:
  0017b	81 30 ed ec eb
	ea		 xor	 DWORD PTR [eax], -353637139 ; eaebecedH
  00181	83 c0 04	 add	 eax, 4
  00184	4a		 dec	 edx
  00185	75 f4		 jne	 SHORT $LL104@LoadInt_e

; 120  : 		return LoadInt(_k, i);

  00187	ff 75 0c	 push	 DWORD PTR _i$[ebp]
  0018a	8d 45 e8	 lea	 eax, DWORD PTR __k$[ebp]
  0018d	50		 push	 eax
  0018e	8b ce		 mov	 ecx, esi
  00190	ff 15 00 00 00
	00		 call	 DWORD PTR __imp_?LoadInt@ioINILoader@@QAEHPBDH@Z

; 121  : 	}

  00196	8b 4d fc	 mov	 ecx, DWORD PTR __$ArrayPad$[ebp]
  00199	33 cd		 xor	 ecx, ebp
  0019b	5e		 pop	 esi
  0019c	e8 00 00 00 00	 call	 @__security_check_cookie@4
  001a1	c9		 leave
  001a2	c2 08 00	 ret	 8
??$LoadInt_e@$0N@@ioINILoader@@QAEHAAY0N@$$CBDH@Z ENDP	; ioINILoader::LoadInt_e<13>
_TEXT	ENDS
PUBLIC	__$ArrayPad$
PUBLIC	??$LoadInt_e@$0O@@ioINILoader@@QAEHAAY0O@$$CBDH@Z ; ioINILoader::LoadInt_e<14>
; Function compile flags: /Ogsp
;	COMDAT ??$LoadInt_e@$0O@@ioINILoader@@QAEHAAY0O@$$CBDH@Z
_TEXT	SEGMENT
__k$ = -24						; size = 14
__$ArrayPad$ = -4					; size = 4
_k$ = 8							; size = 4
_i$ = 12						; size = 4
??$LoadInt_e@$0O@@ioINILoader@@QAEHAAY0O@$$CBDH@Z PROC	; ioINILoader::LoadInt_e<14>, COMDAT
; _this$ = ecx

; 118  : 	{

  00000	55		 push	 ebp
  00001	8b ec		 mov	 ebp, esp
  00003	83 ec 18	 sub	 esp, 24			; 00000018H
  00006	a1 00 00 00 00	 mov	 eax, DWORD PTR ___security_cookie
  0000b	33 c5		 xor	 eax, ebp
  0000d	89 45 fc	 mov	 DWORD PTR __$ArrayPad$[ebp], eax
  00010	8b 45 08	 mov	 eax, DWORD PTR _k$[ebp]

; 119  : 		_ENCSTR(k, _k);

  00013	8a 10		 mov	 dl, BYTE PTR [eax]
  00015	56		 push	 esi
  00016	8b f1		 mov	 esi, ecx
  00018	84 d2		 test	 dl, dl
  0001a	0f 84 64 01 00
	00		 je	 $LN96@LoadInt_e@2
  00020	80 f2 ed	 xor	 dl, -19			; ffffffedH
  00023	88 55 e8	 mov	 BYTE PTR __k$[ebp], dl
  00026	8a 50 01	 mov	 dl, BYTE PTR [eax+1]
  00029	84 d2		 test	 dl, dl
  0002b	0f 84 4d 01 00
	00		 je	 $LN95@LoadInt_e@2
  00031	80 f2 ec	 xor	 dl, -20			; ffffffecH
  00034	88 55 e9	 mov	 BYTE PTR __k$[ebp+1], dl
  00037	8a 50 02	 mov	 dl, BYTE PTR [eax+2]
  0003a	84 d2		 test	 dl, dl
  0003c	0f 84 36 01 00
	00		 je	 $LN94@LoadInt_e@2
  00042	b1 eb		 mov	 cl, -21			; ffffffebH
  00044	32 d1		 xor	 dl, cl
  00046	88 55 ea	 mov	 BYTE PTR __k$[ebp+2], dl
  00049	8a 50 03	 mov	 dl, BYTE PTR [eax+3]
  0004c	84 d2		 test	 dl, dl
  0004e	0f 84 1e 01 00
	00		 je	 $LN93@LoadInt_e@2
  00054	80 f2 ea	 xor	 dl, -22			; ffffffeaH
  00057	88 55 eb	 mov	 BYTE PTR __k$[ebp+3], dl
  0005a	8a 50 04	 mov	 dl, BYTE PTR [eax+4]
  0005d	84 d2		 test	 dl, dl
  0005f	0f 84 07 01 00
	00		 je	 $LN92@LoadInt_e@2
  00065	80 f2 ed	 xor	 dl, -19			; ffffffedH
  00068	88 55 ec	 mov	 BYTE PTR __k$[ebp+4], dl
  0006b	8a 50 05	 mov	 dl, BYTE PTR [eax+5]
  0006e	84 d2		 test	 dl, dl
  00070	0f 84 f0 00 00
	00		 je	 $LN91@LoadInt_e@2
  00076	80 f2 ec	 xor	 dl, -20			; ffffffecH
  00079	88 55 ed	 mov	 BYTE PTR __k$[ebp+5], dl
  0007c	8a 50 06	 mov	 dl, BYTE PTR [eax+6]
  0007f	84 d2		 test	 dl, dl
  00081	0f 84 da 00 00
	00		 je	 $LN90@LoadInt_e@2
  00087	32 d1		 xor	 dl, cl
  00089	88 55 ee	 mov	 BYTE PTR __k$[ebp+6], dl
  0008c	8a 50 07	 mov	 dl, BYTE PTR [eax+7]
  0008f	84 d2		 test	 dl, dl
  00091	0f 84 c4 00 00
	00		 je	 $LN89@LoadInt_e@2
  00097	80 f2 ea	 xor	 dl, -22			; ffffffeaH
  0009a	88 55 ef	 mov	 BYTE PTR __k$[ebp+7], dl
  0009d	8a 50 08	 mov	 dl, BYTE PTR [eax+8]
  000a0	84 d2		 test	 dl, dl
  000a2	0f 84 ad 00 00
	00		 je	 $LN88@LoadInt_e@2
  000a8	80 f2 ed	 xor	 dl, -19			; ffffffedH
  000ab	88 55 f0	 mov	 BYTE PTR __k$[ebp+8], dl
  000ae	8a 50 09	 mov	 dl, BYTE PTR [eax+9]
  000b1	84 d2		 test	 dl, dl
  000b3	0f 84 96 00 00
	00		 je	 $LN87@LoadInt_e@2
  000b9	80 f2 ec	 xor	 dl, -20			; ffffffecH
  000bc	88 55 f1	 mov	 BYTE PTR __k$[ebp+9], dl
  000bf	8a 50 0a	 mov	 dl, BYTE PTR [eax+10]
  000c2	84 d2		 test	 dl, dl
  000c4	0f 84 80 00 00
	00		 je	 $LN86@LoadInt_e@2
  000ca	32 d1		 xor	 dl, cl
  000cc	88 55 f2	 mov	 BYTE PTR __k$[ebp+10], dl
  000cf	8a 50 0b	 mov	 dl, BYTE PTR [eax+11]
  000d2	84 d2		 test	 dl, dl
  000d4	74 6e		 je	 SHORT $LN85@LoadInt_e@2
  000d6	80 f2 ea	 xor	 dl, -22			; ffffffeaH
  000d9	88 55 f3	 mov	 BYTE PTR __k$[ebp+11], dl
  000dc	8a 50 0c	 mov	 dl, BYTE PTR [eax+12]
  000df	84 d2		 test	 dl, dl
  000e1	74 5b		 je	 SHORT $LN84@LoadInt_e@2
  000e3	80 f2 ed	 xor	 dl, -19			; ffffffedH
  000e6	80 78 0d 00	 cmp	 BYTE PTR [eax+13], 0
  000ea	88 55 f4	 mov	 BYTE PTR __k$[ebp+12], dl
  000ed	0f 84 95 00 00
	00		 je	 $LN1@LoadInt_e@2
  000f3	8a 50 0e	 mov	 dl, BYTE PTR [eax+14]
  000f6	84 d2		 test	 dl, dl
  000f8	74 3f		 je	 SHORT $LN82@LoadInt_e@2
  000fa	32 d1		 xor	 dl, cl
  000fc	88 55 f6	 mov	 BYTE PTR __k$[ebp+14], dl
  000ff	8a 50 0f	 mov	 dl, BYTE PTR [eax+15]
  00102	84 d2		 test	 dl, dl
  00104	74 2d		 je	 SHORT $LN81@LoadInt_e@2
  00106	80 f2 ea	 xor	 dl, -22			; ffffffeaH
  00109	88 55 f7	 mov	 BYTE PTR __k$[ebp+15], dl
  0010c	8a 50 10	 mov	 dl, BYTE PTR [eax+16]
  0010f	84 d2		 test	 dl, dl
  00111	74 1a		 je	 SHORT $LN80@LoadInt_e@2
  00113	8a 40 11	 mov	 al, BYTE PTR [eax+17]
  00116	80 f2 ed	 xor	 dl, -19			; ffffffedH
  00119	88 55 f8	 mov	 BYTE PTR __k$[ebp+16], dl
  0011c	84 c0		 test	 al, al
  0011e	74 07		 je	 SHORT $LN79@LoadInt_e@2
  00120	34 ec		 xor	 al, -20			; ffffffecH
  00122	88 45 f9	 mov	 BYTE PTR __k$[ebp+17], al
  00125	eb 61		 jmp	 SHORT $LN1@LoadInt_e@2
$LN79@LoadInt_e@2:
  00127	c6 45 f9 ec	 mov	 BYTE PTR __k$[ebp+17], -20 ; ffffffecH
  0012b	eb 5b		 jmp	 SHORT $LN1@LoadInt_e@2
$LN80@LoadInt_e@2:
  0012d	c6 45 f8 ed	 mov	 BYTE PTR __k$[ebp+16], -19 ; ffffffedH
  00131	eb 55		 jmp	 SHORT $LN1@LoadInt_e@2
$LN81@LoadInt_e@2:
  00133	c6 45 f7 ea	 mov	 BYTE PTR __k$[ebp+15], -22 ; ffffffeaH
  00137	eb 4f		 jmp	 SHORT $LN1@LoadInt_e@2
$LN82@LoadInt_e@2:
  00139	88 4d f6	 mov	 BYTE PTR __k$[ebp+14], cl
  0013c	eb 4a		 jmp	 SHORT $LN1@LoadInt_e@2
$LN84@LoadInt_e@2:
  0013e	c6 45 f4 ed	 mov	 BYTE PTR __k$[ebp+12], -19 ; ffffffedH
  00142	eb 44		 jmp	 SHORT $LN1@LoadInt_e@2
$LN85@LoadInt_e@2:
  00144	c6 45 f3 ea	 mov	 BYTE PTR __k$[ebp+11], -22 ; ffffffeaH
  00148	eb 3e		 jmp	 SHORT $LN1@LoadInt_e@2
$LN86@LoadInt_e@2:
  0014a	88 4d f2	 mov	 BYTE PTR __k$[ebp+10], cl
  0014d	eb 39		 jmp	 SHORT $LN1@LoadInt_e@2
$LN87@LoadInt_e@2:
  0014f	c6 45 f1 ec	 mov	 BYTE PTR __k$[ebp+9], -20 ; ffffffecH
  00153	eb 33		 jmp	 SHORT $LN1@LoadInt_e@2
$LN88@LoadInt_e@2:
  00155	c6 45 f0 ed	 mov	 BYTE PTR __k$[ebp+8], -19 ; ffffffedH
  00159	eb 2d		 jmp	 SHORT $LN1@LoadInt_e@2
$LN89@LoadInt_e@2:
  0015b	c6 45 ef ea	 mov	 BYTE PTR __k$[ebp+7], -22 ; ffffffeaH
  0015f	eb 27		 jmp	 SHORT $LN1@LoadInt_e@2
$LN90@LoadInt_e@2:
  00161	88 4d ee	 mov	 BYTE PTR __k$[ebp+6], cl
  00164	eb 22		 jmp	 SHORT $LN1@LoadInt_e@2
$LN91@LoadInt_e@2:
  00166	c6 45 ed ec	 mov	 BYTE PTR __k$[ebp+5], -20 ; ffffffecH
  0016a	eb 1c		 jmp	 SHORT $LN1@LoadInt_e@2
$LN92@LoadInt_e@2:
  0016c	c6 45 ec ed	 mov	 BYTE PTR __k$[ebp+4], -19 ; ffffffedH
  00170	eb 16		 jmp	 SHORT $LN1@LoadInt_e@2
$LN93@LoadInt_e@2:
  00172	c6 45 eb ea	 mov	 BYTE PTR __k$[ebp+3], -22 ; ffffffeaH
  00176	eb 10		 jmp	 SHORT $LN1@LoadInt_e@2
$LN94@LoadInt_e@2:
  00178	c6 45 ea eb	 mov	 BYTE PTR __k$[ebp+2], -21 ; ffffffebH
  0017c	eb 0a		 jmp	 SHORT $LN1@LoadInt_e@2
$LN95@LoadInt_e@2:
  0017e	c6 45 e9 ec	 mov	 BYTE PTR __k$[ebp+1], -20 ; ffffffecH
  00182	eb 04		 jmp	 SHORT $LN1@LoadInt_e@2
$LN96@LoadInt_e@2:
  00184	c6 45 e8 ed	 mov	 BYTE PTR __k$[ebp], -19	; ffffffedH
$LN1@LoadInt_e@2:
  00188	6a 03		 push	 3
  0018a	8d 45 e8	 lea	 eax, DWORD PTR __k$[ebp]
  0018d	c6 45 f5 00	 mov	 BYTE PTR __k$[ebp+13], 0
  00191	5a		 pop	 edx
$LL104@LoadInt_e@2:
  00192	81 30 ed ec eb
	ea		 xor	 DWORD PTR [eax], -353637139 ; eaebecedH
  00198	83 c0 04	 add	 eax, 4
  0019b	4a		 dec	 edx
  0019c	75 f4		 jne	 SHORT $LL104@LoadInt_e@2

; 120  : 		return LoadInt(_k, i);

  0019e	ff 75 0c	 push	 DWORD PTR _i$[ebp]
  001a1	80 75 f4 ed	 xor	 BYTE PTR __k$[ebp+12], -19 ; ffffffedH
  001a5	8d 45 e8	 lea	 eax, DWORD PTR __k$[ebp]
  001a8	50		 push	 eax
  001a9	8b ce		 mov	 ecx, esi
  001ab	ff 15 00 00 00
	00		 call	 DWORD PTR __imp_?LoadInt@ioINILoader@@QAEHPBDH@Z

; 121  : 	}

  001b1	8b 4d fc	 mov	 ecx, DWORD PTR __$ArrayPad$[ebp]
  001b4	33 cd		 xor	 ecx, ebp
  001b6	5e		 pop	 esi
  001b7	e8 00 00 00 00	 call	 @__security_check_cookie@4
  001bc	c9		 leave
  001bd	c2 08 00	 ret	 8
??$LoadInt_e@$0O@@ioINILoader@@QAEHAAY0O@$$CBDH@Z ENDP	; ioINILoader::LoadInt_e<14>
_TEXT	ENDS
PUBLIC	__$ArrayPad$
PUBLIC	??$LoadInt_e@$08@ioINILoader@@QAEHAAY08$$CBDH@Z	; ioINILoader::LoadInt_e<9>
; Function compile flags: /Ogsp
;	COMDAT ??$LoadInt_e@$08@ioINILoader@@QAEHAAY08$$CBDH@Z
_TEXT	SEGMENT
__k$ = -20						; size = 9
__$ArrayPad$ = -4					; size = 4
_k$ = 8							; size = 4
_i$ = 12						; size = 4
??$LoadInt_e@$08@ioINILoader@@QAEHAAY08$$CBDH@Z PROC	; ioINILoader::LoadInt_e<9>, COMDAT
; _this$ = ecx

; 118  : 	{

  00000	55		 push	 ebp
  00001	8b ec		 mov	 ebp, esp
  00003	83 ec 14	 sub	 esp, 20			; 00000014H
  00006	a1 00 00 00 00	 mov	 eax, DWORD PTR ___security_cookie
  0000b	33 c5		 xor	 eax, ebp
  0000d	89 45 fc	 mov	 DWORD PTR __$ArrayPad$[ebp], eax
  00010	8b 45 08	 mov	 eax, DWORD PTR _k$[ebp]

; 119  : 		_ENCSTR(k, _k);

  00013	8a 10		 mov	 dl, BYTE PTR [eax]
  00015	84 d2		 test	 dl, dl
  00017	0f 84 ee 00 00
	00		 je	 $LN96@LoadInt_e@3
  0001d	80 f2 ed	 xor	 dl, -19			; ffffffedH
  00020	88 55 ec	 mov	 BYTE PTR __k$[ebp], dl
  00023	8a 50 01	 mov	 dl, BYTE PTR [eax+1]
  00026	84 d2		 test	 dl, dl
  00028	0f 84 d7 00 00
	00		 je	 $LN95@LoadInt_e@3
  0002e	80 f2 ec	 xor	 dl, -20			; ffffffecH
  00031	88 55 ed	 mov	 BYTE PTR __k$[ebp+1], dl
  00034	8a 50 02	 mov	 dl, BYTE PTR [eax+2]
  00037	84 d2		 test	 dl, dl
  00039	0f 84 c0 00 00
	00		 je	 $LN94@LoadInt_e@3
  0003f	80 f2 eb	 xor	 dl, -21			; ffffffebH
  00042	88 55 ee	 mov	 BYTE PTR __k$[ebp+2], dl
  00045	8a 50 03	 mov	 dl, BYTE PTR [eax+3]
  00048	84 d2		 test	 dl, dl
  0004a	0f 84 a9 00 00
	00		 je	 $LN93@LoadInt_e@3
  00050	80 f2 ea	 xor	 dl, -22			; ffffffeaH
  00053	88 55 ef	 mov	 BYTE PTR __k$[ebp+3], dl
  00056	8a 50 04	 mov	 dl, BYTE PTR [eax+4]
  00059	84 d2		 test	 dl, dl
  0005b	0f 84 92 00 00
	00		 je	 $LN92@LoadInt_e@3
  00061	80 f2 ed	 xor	 dl, -19			; ffffffedH
  00064	88 55 f0	 mov	 BYTE PTR __k$[ebp+4], dl
  00067	8a 50 05	 mov	 dl, BYTE PTR [eax+5]
  0006a	84 d2		 test	 dl, dl
  0006c	74 7f		 je	 SHORT $LN91@LoadInt_e@3
  0006e	80 f2 ec	 xor	 dl, -20			; ffffffecH
  00071	88 55 f1	 mov	 BYTE PTR __k$[ebp+5], dl
  00074	8a 50 06	 mov	 dl, BYTE PTR [eax+6]
  00077	84 d2		 test	 dl, dl
  00079	74 6c		 je	 SHORT $LN90@LoadInt_e@3
  0007b	80 f2 eb	 xor	 dl, -21			; ffffffebH
  0007e	88 55 f2	 mov	 BYTE PTR __k$[ebp+6], dl
  00081	8a 50 07	 mov	 dl, BYTE PTR [eax+7]
  00084	84 d2		 test	 dl, dl
  00086	74 59		 je	 SHORT $LN89@LoadInt_e@3
  00088	80 f2 ea	 xor	 dl, -22			; ffffffeaH
  0008b	80 78 08 00	 cmp	 BYTE PTR [eax+8], 0
  0008f	88 55 f3	 mov	 BYTE PTR __k$[ebp+7], dl
  00092	74 7b		 je	 SHORT $LN1@LoadInt_e@3
  00094	8a 50 09	 mov	 dl, BYTE PTR [eax+9]
  00097	84 d2		 test	 dl, dl
  00099	74 40		 je	 SHORT $LN87@LoadInt_e@3
  0009b	80 f2 ec	 xor	 dl, -20			; ffffffecH
  0009e	88 55 f5	 mov	 BYTE PTR __k$[ebp+9], dl
  000a1	8a 50 0a	 mov	 dl, BYTE PTR [eax+10]
  000a4	84 d2		 test	 dl, dl
  000a6	74 2d		 je	 SHORT $LN86@LoadInt_e@3
  000a8	80 f2 eb	 xor	 dl, -21			; ffffffebH
  000ab	88 55 f6	 mov	 BYTE PTR __k$[ebp+10], dl
  000ae	8a 50 0b	 mov	 dl, BYTE PTR [eax+11]
  000b1	84 d2		 test	 dl, dl
  000b3	74 1a		 je	 SHORT $LN85@LoadInt_e@3
  000b5	8a 40 0c	 mov	 al, BYTE PTR [eax+12]
  000b8	80 f2 ea	 xor	 dl, -22			; ffffffeaH
  000bb	88 55 f7	 mov	 BYTE PTR __k$[ebp+11], dl
  000be	84 c0		 test	 al, al
  000c0	74 07		 je	 SHORT $LN84@LoadInt_e@3
  000c2	34 ed		 xor	 al, -19			; ffffffedH
  000c4	88 45 f8	 mov	 BYTE PTR __k$[ebp+12], al
  000c7	eb 46		 jmp	 SHORT $LN1@LoadInt_e@3
$LN84@LoadInt_e@3:
  000c9	c6 45 f8 ed	 mov	 BYTE PTR __k$[ebp+12], -19 ; ffffffedH
  000cd	eb 40		 jmp	 SHORT $LN1@LoadInt_e@3
$LN85@LoadInt_e@3:
  000cf	c6 45 f7 ea	 mov	 BYTE PTR __k$[ebp+11], -22 ; ffffffeaH
  000d3	eb 3a		 jmp	 SHORT $LN1@LoadInt_e@3
$LN86@LoadInt_e@3:
  000d5	c6 45 f6 eb	 mov	 BYTE PTR __k$[ebp+10], -21 ; ffffffebH
  000d9	eb 34		 jmp	 SHORT $LN1@LoadInt_e@3
$LN87@LoadInt_e@3:
  000db	c6 45 f5 ec	 mov	 BYTE PTR __k$[ebp+9], -20 ; ffffffecH
  000df	eb 2e		 jmp	 SHORT $LN1@LoadInt_e@3
$LN89@LoadInt_e@3:
  000e1	c6 45 f3 ea	 mov	 BYTE PTR __k$[ebp+7], -22 ; ffffffeaH
  000e5	eb 28		 jmp	 SHORT $LN1@LoadInt_e@3
$LN90@LoadInt_e@3:
  000e7	c6 45 f2 eb	 mov	 BYTE PTR __k$[ebp+6], -21 ; ffffffebH
  000eb	eb 22		 jmp	 SHORT $LN1@LoadInt_e@3
$LN91@LoadInt_e@3:
  000ed	c6 45 f1 ec	 mov	 BYTE PTR __k$[ebp+5], -20 ; ffffffecH
  000f1	eb 1c		 jmp	 SHORT $LN1@LoadInt_e@3
$LN92@LoadInt_e@3:
  000f3	c6 45 f0 ed	 mov	 BYTE PTR __k$[ebp+4], -19 ; ffffffedH
  000f7	eb 16		 jmp	 SHORT $LN1@LoadInt_e@3
$LN93@LoadInt_e@3:
  000f9	c6 45 ef ea	 mov	 BYTE PTR __k$[ebp+3], -22 ; ffffffeaH
  000fd	eb 10		 jmp	 SHORT $LN1@LoadInt_e@3
$LN94@LoadInt_e@3:
  000ff	c6 45 ee eb	 mov	 BYTE PTR __k$[ebp+2], -21 ; ffffffebH
  00103	eb 0a		 jmp	 SHORT $LN1@LoadInt_e@3
$LN95@LoadInt_e@3:
  00105	c6 45 ed ec	 mov	 BYTE PTR __k$[ebp+1], -20 ; ffffffecH
  00109	eb 04		 jmp	 SHORT $LN1@LoadInt_e@3
$LN96@LoadInt_e@3:
  0010b	c6 45 ec ed	 mov	 BYTE PTR __k$[ebp], -19	; ffffffedH
$LN1@LoadInt_e@3:
  0010f	6a 02		 push	 2
  00111	8d 45 ec	 lea	 eax, DWORD PTR __k$[ebp]
  00114	c6 45 f4 00	 mov	 BYTE PTR __k$[ebp+8], 0
  00118	5a		 pop	 edx
$LL104@LoadInt_e@3:
  00119	81 30 ed ec eb
	ea		 xor	 DWORD PTR [eax], -353637139 ; eaebecedH
  0011f	83 c0 04	 add	 eax, 4
  00122	4a		 dec	 edx
  00123	75 f4		 jne	 SHORT $LL104@LoadInt_e@3

; 120  : 		return LoadInt(_k, i);

  00125	ff 75 0c	 push	 DWORD PTR _i$[ebp]
  00128	8d 45 ec	 lea	 eax, DWORD PTR __k$[ebp]
  0012b	50		 push	 eax
  0012c	ff 15 00 00 00
	00		 call	 DWORD PTR __imp_?LoadInt@ioINILoader@@QAEHPBDH@Z

; 121  : 	}

  00132	8b 4d fc	 mov	 ecx, DWORD PTR __$ArrayPad$[ebp]
  00135	33 cd		 xor	 ecx, ebp
  00137	e8 00 00 00 00	 call	 @__security_check_cookie@4
  0013c	c9		 leave
  0013d	c2 08 00	 ret	 8
??$LoadInt_e@$08@ioINILoader@@QAEHAAY08$$CBDH@Z ENDP	; ioINILoader::LoadInt_e<9>
_TEXT	ENDS
PUBLIC	__$ArrayPad$
PUBLIC	??$SetTitle_e@$0BB@@ioINILoader@@QAEXAAY0BB@$$CBD@Z ; ioINILoader::SetTitle_e<17>
; Function compile flags: /Ogsp
;	COMDAT ??$SetTitle_e@$0BB@@ioINILoader@@QAEXAAY0BB@$$CBD@Z
_TEXT	SEGMENT
__t$ = -28						; size = 17
__$ArrayPad$ = -4					; size = 4
_t$ = 8							; size = 4
??$SetTitle_e@$0BB@@ioINILoader@@QAEXAAY0BB@$$CBD@Z PROC ; ioINILoader::SetTitle_e<17>, COMDAT
; _this$ = ecx

; 188  : 	{

  00000	55		 push	 ebp
  00001	8b ec		 mov	 ebp, esp
  00003	83 ec 1c	 sub	 esp, 28			; 0000001cH
  00006	a1 00 00 00 00	 mov	 eax, DWORD PTR ___security_cookie
  0000b	33 c5		 xor	 eax, ebp
  0000d	89 45 fc	 mov	 DWORD PTR __$ArrayPad$[ebp], eax
  00010	8b 45 08	 mov	 eax, DWORD PTR _t$[ebp]

; 189  : 		_ENCSTR(t, _t);

  00013	8a 10		 mov	 dl, BYTE PTR [eax]
  00015	56		 push	 esi
  00016	8b f1		 mov	 esi, ecx
  00018	84 d2		 test	 dl, dl
  0001a	0f 84 a7 01 00
	00		 je	 $LN96@SetTitle_e@2
  00020	80 f2 ed	 xor	 dl, -19			; ffffffedH
  00023	88 55 e4	 mov	 BYTE PTR __t$[ebp], dl
  00026	8a 50 01	 mov	 dl, BYTE PTR [eax+1]
  00029	84 d2		 test	 dl, dl
  0002b	0f 84 90 01 00
	00		 je	 $LN95@SetTitle_e@2
  00031	b1 ec		 mov	 cl, -20			; ffffffecH
  00033	32 d1		 xor	 dl, cl
  00035	88 55 e5	 mov	 BYTE PTR __t$[ebp+1], dl
  00038	8a 50 02	 mov	 dl, BYTE PTR [eax+2]
  0003b	84 d2		 test	 dl, dl
  0003d	0f 84 78 01 00
	00		 je	 $LN94@SetTitle_e@2
  00043	80 f2 eb	 xor	 dl, -21			; ffffffebH
  00046	88 55 e6	 mov	 BYTE PTR __t$[ebp+2], dl
  00049	8a 50 03	 mov	 dl, BYTE PTR [eax+3]
  0004c	84 d2		 test	 dl, dl
  0004e	0f 84 61 01 00
	00		 je	 $LN93@SetTitle_e@2
  00054	80 f2 ea	 xor	 dl, -22			; ffffffeaH
  00057	88 55 e7	 mov	 BYTE PTR __t$[ebp+3], dl
  0005a	8a 50 04	 mov	 dl, BYTE PTR [eax+4]
  0005d	84 d2		 test	 dl, dl
  0005f	0f 84 4a 01 00
	00		 je	 $LN92@SetTitle_e@2
  00065	80 f2 ed	 xor	 dl, -19			; ffffffedH
  00068	88 55 e8	 mov	 BYTE PTR __t$[ebp+4], dl
  0006b	8a 50 05	 mov	 dl, BYTE PTR [eax+5]
  0006e	84 d2		 test	 dl, dl
  00070	0f 84 34 01 00
	00		 je	 $LN91@SetTitle_e@2
  00076	32 d1		 xor	 dl, cl
  00078	88 55 e9	 mov	 BYTE PTR __t$[ebp+5], dl
  0007b	8a 50 06	 mov	 dl, BYTE PTR [eax+6]
  0007e	84 d2		 test	 dl, dl
  00080	0f 84 1e 01 00
	00		 je	 $LN90@SetTitle_e@2
  00086	80 f2 eb	 xor	 dl, -21			; ffffffebH
  00089	88 55 ea	 mov	 BYTE PTR __t$[ebp+6], dl
  0008c	8a 50 07	 mov	 dl, BYTE PTR [eax+7]
  0008f	84 d2		 test	 dl, dl
  00091	0f 84 07 01 00
	00		 je	 $LN89@SetTitle_e@2
  00097	80 f2 ea	 xor	 dl, -22			; ffffffeaH
  0009a	88 55 eb	 mov	 BYTE PTR __t$[ebp+7], dl
  0009d	8a 50 08	 mov	 dl, BYTE PTR [eax+8]
  000a0	84 d2		 test	 dl, dl
  000a2	0f 84 f0 00 00
	00		 je	 $LN88@SetTitle_e@2
  000a8	80 f2 ed	 xor	 dl, -19			; ffffffedH
  000ab	88 55 ec	 mov	 BYTE PTR __t$[ebp+8], dl
  000ae	8a 50 09	 mov	 dl, BYTE PTR [eax+9]
  000b1	84 d2		 test	 dl, dl
  000b3	0f 84 da 00 00
	00		 je	 $LN87@SetTitle_e@2
  000b9	32 d1		 xor	 dl, cl
  000bb	88 55 ed	 mov	 BYTE PTR __t$[ebp+9], dl
  000be	8a 50 0a	 mov	 dl, BYTE PTR [eax+10]
  000c1	84 d2		 test	 dl, dl
  000c3	0f 84 c4 00 00
	00		 je	 $LN86@SetTitle_e@2
  000c9	80 f2 eb	 xor	 dl, -21			; ffffffebH
  000cc	88 55 ee	 mov	 BYTE PTR __t$[ebp+10], dl
  000cf	8a 50 0b	 mov	 dl, BYTE PTR [eax+11]
  000d2	84 d2		 test	 dl, dl
  000d4	0f 84 ad 00 00
	00		 je	 $LN85@SetTitle_e@2
  000da	80 f2 ea	 xor	 dl, -22			; ffffffeaH
  000dd	88 55 ef	 mov	 BYTE PTR __t$[ebp+11], dl
  000e0	8a 50 0c	 mov	 dl, BYTE PTR [eax+12]
  000e3	84 d2		 test	 dl, dl
  000e5	0f 84 96 00 00
	00		 je	 $LN84@SetTitle_e@2
  000eb	80 f2 ed	 xor	 dl, -19			; ffffffedH
  000ee	88 55 f0	 mov	 BYTE PTR __t$[ebp+12], dl
  000f1	8a 50 0d	 mov	 dl, BYTE PTR [eax+13]
  000f4	84 d2		 test	 dl, dl
  000f6	0f 84 80 00 00
	00		 je	 $LN83@SetTitle_e@2
  000fc	32 d1		 xor	 dl, cl
  000fe	88 55 f1	 mov	 BYTE PTR __t$[ebp+13], dl
  00101	8a 50 0e	 mov	 dl, BYTE PTR [eax+14]
  00104	84 d2		 test	 dl, dl
  00106	74 6e		 je	 SHORT $LN82@SetTitle_e@2
  00108	80 f2 eb	 xor	 dl, -21			; ffffffebH
  0010b	88 55 f2	 mov	 BYTE PTR __t$[ebp+14], dl
  0010e	8a 50 0f	 mov	 dl, BYTE PTR [eax+15]
  00111	84 d2		 test	 dl, dl
  00113	74 5b		 je	 SHORT $LN81@SetTitle_e@2
  00115	80 f2 ea	 xor	 dl, -22			; ffffffeaH
  00118	80 78 10 00	 cmp	 BYTE PTR [eax+16], 0
  0011c	88 55 f3	 mov	 BYTE PTR __t$[ebp+15], dl
  0011f	0f 84 a6 00 00
	00		 je	 $LN1@SetTitle_e@2
  00125	8a 50 11	 mov	 dl, BYTE PTR [eax+17]
  00128	84 d2		 test	 dl, dl
  0012a	74 3f		 je	 SHORT $LN79@SetTitle_e@2
  0012c	32 d1		 xor	 dl, cl
  0012e	88 55 f5	 mov	 BYTE PTR __t$[ebp+17], dl
  00131	8a 50 12	 mov	 dl, BYTE PTR [eax+18]
  00134	84 d2		 test	 dl, dl
  00136	74 2d		 je	 SHORT $LN78@SetTitle_e@2
  00138	80 f2 eb	 xor	 dl, -21			; ffffffebH
  0013b	88 55 f6	 mov	 BYTE PTR __t$[ebp+18], dl
  0013e	8a 50 13	 mov	 dl, BYTE PTR [eax+19]
  00141	84 d2		 test	 dl, dl
  00143	74 1a		 je	 SHORT $LN77@SetTitle_e@2
  00145	8a 40 14	 mov	 al, BYTE PTR [eax+20]
  00148	80 f2 ea	 xor	 dl, -22			; ffffffeaH
  0014b	88 55 f7	 mov	 BYTE PTR __t$[ebp+19], dl
  0014e	84 c0		 test	 al, al
  00150	74 07		 je	 SHORT $LN76@SetTitle_e@2
  00152	34 ed		 xor	 al, -19			; ffffffedH
  00154	88 45 f8	 mov	 BYTE PTR __t$[ebp+20], al
  00157	eb 72		 jmp	 SHORT $LN1@SetTitle_e@2
$LN76@SetTitle_e@2:
  00159	c6 45 f8 ed	 mov	 BYTE PTR __t$[ebp+20], -19 ; ffffffedH
  0015d	eb 6c		 jmp	 SHORT $LN1@SetTitle_e@2
$LN77@SetTitle_e@2:
  0015f	c6 45 f7 ea	 mov	 BYTE PTR __t$[ebp+19], -22 ; ffffffeaH
  00163	eb 66		 jmp	 SHORT $LN1@SetTitle_e@2
$LN78@SetTitle_e@2:
  00165	c6 45 f6 eb	 mov	 BYTE PTR __t$[ebp+18], -21 ; ffffffebH
  00169	eb 60		 jmp	 SHORT $LN1@SetTitle_e@2
$LN79@SetTitle_e@2:
  0016b	88 4d f5	 mov	 BYTE PTR __t$[ebp+17], cl
  0016e	eb 5b		 jmp	 SHORT $LN1@SetTitle_e@2
$LN81@SetTitle_e@2:
  00170	c6 45 f3 ea	 mov	 BYTE PTR __t$[ebp+15], -22 ; ffffffeaH
  00174	eb 55		 jmp	 SHORT $LN1@SetTitle_e@2
$LN82@SetTitle_e@2:
  00176	c6 45 f2 eb	 mov	 BYTE PTR __t$[ebp+14], -21 ; ffffffebH
  0017a	eb 4f		 jmp	 SHORT $LN1@SetTitle_e@2
$LN83@SetTitle_e@2:
  0017c	88 4d f1	 mov	 BYTE PTR __t$[ebp+13], cl
  0017f	eb 4a		 jmp	 SHORT $LN1@SetTitle_e@2
$LN84@SetTitle_e@2:
  00181	c6 45 f0 ed	 mov	 BYTE PTR __t$[ebp+12], -19 ; ffffffedH
  00185	eb 44		 jmp	 SHORT $LN1@SetTitle_e@2
$LN85@SetTitle_e@2:
  00187	c6 45 ef ea	 mov	 BYTE PTR __t$[ebp+11], -22 ; ffffffeaH
  0018b	eb 3e		 jmp	 SHORT $LN1@SetTitle_e@2
$LN86@SetTitle_e@2:
  0018d	c6 45 ee eb	 mov	 BYTE PTR __t$[ebp+10], -21 ; ffffffebH
  00191	eb 38		 jmp	 SHORT $LN1@SetTitle_e@2
$LN87@SetTitle_e@2:
  00193	88 4d ed	 mov	 BYTE PTR __t$[ebp+9], cl
  00196	eb 33		 jmp	 SHORT $LN1@SetTitle_e@2
$LN88@SetTitle_e@2:
  00198	c6 45 ec ed	 mov	 BYTE PTR __t$[ebp+8], -19 ; ffffffedH
  0019c	eb 2d		 jmp	 SHORT $LN1@SetTitle_e@2
$LN89@SetTitle_e@2:
  0019e	c6 45 eb ea	 mov	 BYTE PTR __t$[ebp+7], -22 ; ffffffeaH
  001a2	eb 27		 jmp	 SHORT $LN1@SetTitle_e@2
$LN90@SetTitle_e@2:
  001a4	c6 45 ea eb	 mov	 BYTE PTR __t$[ebp+6], -21 ; ffffffebH
  001a8	eb 21		 jmp	 SHORT $LN1@SetTitle_e@2
$LN91@SetTitle_e@2:
  001aa	88 4d e9	 mov	 BYTE PTR __t$[ebp+5], cl
  001ad	eb 1c		 jmp	 SHORT $LN1@SetTitle_e@2
$LN92@SetTitle_e@2:
  001af	c6 45 e8 ed	 mov	 BYTE PTR __t$[ebp+4], -19 ; ffffffedH
  001b3	eb 16		 jmp	 SHORT $LN1@SetTitle_e@2
$LN93@SetTitle_e@2:
  001b5	c6 45 e7 ea	 mov	 BYTE PTR __t$[ebp+3], -22 ; ffffffeaH
  001b9	eb 10		 jmp	 SHORT $LN1@SetTitle_e@2
$LN94@SetTitle_e@2:
  001bb	c6 45 e6 eb	 mov	 BYTE PTR __t$[ebp+2], -21 ; ffffffebH
  001bf	eb 0a		 jmp	 SHORT $LN1@SetTitle_e@2
$LN95@SetTitle_e@2:
  001c1	c6 45 e5 ec	 mov	 BYTE PTR __t$[ebp+1], -20 ; ffffffecH
  001c5	eb 04		 jmp	 SHORT $LN1@SetTitle_e@2
$LN96@SetTitle_e@2:
  001c7	c6 45 e4 ed	 mov	 BYTE PTR __t$[ebp], -19	; ffffffedH
$LN1@SetTitle_e@2:
  001cb	6a 04		 push	 4
  001cd	8d 45 e4	 lea	 eax, DWORD PTR __t$[ebp]
  001d0	c6 45 f4 00	 mov	 BYTE PTR __t$[ebp+16], 0
  001d4	5a		 pop	 edx
$LL104@SetTitle_e@2:
  001d5	81 30 ed ec eb
	ea		 xor	 DWORD PTR [eax], -353637139 ; eaebecedH
  001db	83 c0 04	 add	 eax, 4
  001de	4a		 dec	 edx
  001df	75 f4		 jne	 SHORT $LL104@SetTitle_e@2

; 190  : 		SetTitle(_t);

  001e1	8d 45 e4	 lea	 eax, DWORD PTR __t$[ebp]
  001e4	50		 push	 eax
  001e5	8b ce		 mov	 ecx, esi
  001e7	ff 15 00 00 00
	00		 call	 DWORD PTR __imp_?SetTitle@ioINILoader@@QAEXPBD@Z

; 191  : 	}

  001ed	8b 4d fc	 mov	 ecx, DWORD PTR __$ArrayPad$[ebp]
  001f0	33 cd		 xor	 ecx, ebp
  001f2	5e		 pop	 esi
  001f3	e8 00 00 00 00	 call	 @__security_check_cookie@4
  001f8	c9		 leave
  001f9	c2 04 00	 ret	 4
??$SetTitle_e@$0BB@@ioINILoader@@QAEXAAY0BB@$$CBD@Z ENDP ; ioINILoader::SetTitle_e<17>
_TEXT	ENDS
PUBLIC	??$encodeString@$0BM@@ioINILoader_e@@AAEPADAAY0BM@$$CBDPAD@Z ; ioINILoader_e::encodeString<28>
; Function compile flags: /Ogsp
;	COMDAT ??$encodeString@$0BM@@ioINILoader_e@@AAEPADAAY0BM@$$CBDPAD@Z
_TEXT	SEGMENT
_s$ = 8							; size = 4
_e$ = 12						; size = 4
??$encodeString@$0BM@@ioINILoader_e@@AAEPADAAY0BM@$$CBDPAD@Z PROC ; ioINILoader_e::encodeString<28>, COMDAT
; _this$ = ecx

; 215  : 	{

  00000	55		 push	 ebp
  00001	8b ec		 mov	 ebp, esp

; 216  : 		__ENCSTR(s, e);

  00003	8b 4d 08	 mov	 ecx, DWORD PTR _s$[ebp]
  00006	8a 11		 mov	 dl, BYTE PTR [ecx]
  00008	8b 45 0c	 mov	 eax, DWORD PTR _e$[ebp]
  0000b	53		 push	 ebx
  0000c	84 d2		 test	 dl, dl
  0000e	0f 84 6a 04 00
	00		 je	 $LN96@encodeStri
  00014	80 f2 ed	 xor	 dl, -19			; ffffffedH
  00017	88 10		 mov	 BYTE PTR [eax], dl
  00019	8a 51 01	 mov	 dl, BYTE PTR [ecx+1]
  0001c	84 d2		 test	 dl, dl
  0001e	0f 84 54 04 00
	00		 je	 $LN95@encodeStri
  00024	80 f2 ec	 xor	 dl, -20			; ffffffecH
  00027	88 50 01	 mov	 BYTE PTR [eax+1], dl
  0002a	8a 51 02	 mov	 dl, BYTE PTR [ecx+2]
  0002d	84 d2		 test	 dl, dl
  0002f	0f 84 3d 04 00
	00		 je	 $LN94@encodeStri
  00035	b3 eb		 mov	 bl, -21			; ffffffebH
  00037	32 d3		 xor	 dl, bl
  00039	88 50 02	 mov	 BYTE PTR [eax+2], dl
  0003c	8a 51 03	 mov	 dl, BYTE PTR [ecx+3]
  0003f	84 d2		 test	 dl, dl
  00041	0f 84 25 04 00
	00		 je	 $LN93@encodeStri
  00047	80 f2 ea	 xor	 dl, -22			; ffffffeaH
  0004a	88 50 03	 mov	 BYTE PTR [eax+3], dl
  0004d	8a 51 04	 mov	 dl, BYTE PTR [ecx+4]
  00050	84 d2		 test	 dl, dl
  00052	0f 84 0e 04 00
	00		 je	 $LN92@encodeStri
  00058	80 f2 ed	 xor	 dl, -19			; ffffffedH
  0005b	88 50 04	 mov	 BYTE PTR [eax+4], dl
  0005e	8a 51 05	 mov	 dl, BYTE PTR [ecx+5]
  00061	84 d2		 test	 dl, dl
  00063	0f 84 f7 03 00
	00		 je	 $LN91@encodeStri
  00069	80 f2 ec	 xor	 dl, -20			; ffffffecH
  0006c	88 50 05	 mov	 BYTE PTR [eax+5], dl
  0006f	8a 51 06	 mov	 dl, BYTE PTR [ecx+6]
  00072	84 d2		 test	 dl, dl
  00074	0f 84 e1 03 00
	00		 je	 $LN90@encodeStri
  0007a	32 d3		 xor	 dl, bl
  0007c	88 50 06	 mov	 BYTE PTR [eax+6], dl
  0007f	8a 51 07	 mov	 dl, BYTE PTR [ecx+7]
  00082	84 d2		 test	 dl, dl
  00084	0f 84 cb 03 00
	00		 je	 $LN89@encodeStri
  0008a	80 f2 ea	 xor	 dl, -22			; ffffffeaH
  0008d	88 50 07	 mov	 BYTE PTR [eax+7], dl
  00090	8a 51 08	 mov	 dl, BYTE PTR [ecx+8]
  00093	84 d2		 test	 dl, dl
  00095	0f 84 b4 03 00
	00		 je	 $LN88@encodeStri
  0009b	80 f2 ed	 xor	 dl, -19			; ffffffedH
  0009e	88 50 08	 mov	 BYTE PTR [eax+8], dl
  000a1	8a 51 09	 mov	 dl, BYTE PTR [ecx+9]
  000a4	84 d2		 test	 dl, dl
  000a6	0f 84 9d 03 00
	00		 je	 $LN87@encodeStri
  000ac	80 f2 ec	 xor	 dl, -20			; ffffffecH
  000af	88 50 09	 mov	 BYTE PTR [eax+9], dl
  000b2	8a 51 0a	 mov	 dl, BYTE PTR [ecx+10]
  000b5	84 d2		 test	 dl, dl
  000b7	0f 84 87 03 00
	00		 je	 $LN86@encodeStri
  000bd	32 d3		 xor	 dl, bl
  000bf	88 50 0a	 mov	 BYTE PTR [eax+10], dl
  000c2	8a 51 0b	 mov	 dl, BYTE PTR [ecx+11]
  000c5	84 d2		 test	 dl, dl
  000c7	0f 84 71 03 00
	00		 je	 $LN85@encodeStri
  000cd	80 f2 ea	 xor	 dl, -22			; ffffffeaH
  000d0	88 50 0b	 mov	 BYTE PTR [eax+11], dl
  000d3	8a 51 0c	 mov	 dl, BYTE PTR [ecx+12]
  000d6	84 d2		 test	 dl, dl
  000d8	0f 84 5a 03 00
	00		 je	 $LN84@encodeStri
  000de	80 f2 ed	 xor	 dl, -19			; ffffffedH
  000e1	88 50 0c	 mov	 BYTE PTR [eax+12], dl
  000e4	8a 51 0d	 mov	 dl, BYTE PTR [ecx+13]
  000e7	84 d2		 test	 dl, dl
  000e9	0f 84 43 03 00
	00		 je	 $LN83@encodeStri
  000ef	80 f2 ec	 xor	 dl, -20			; ffffffecH
  000f2	88 50 0d	 mov	 BYTE PTR [eax+13], dl
  000f5	8a 51 0e	 mov	 dl, BYTE PTR [ecx+14]
  000f8	84 d2		 test	 dl, dl
  000fa	0f 84 2d 03 00
	00		 je	 $LN82@encodeStri
  00100	32 d3		 xor	 dl, bl
  00102	88 50 0e	 mov	 BYTE PTR [eax+14], dl
  00105	8a 51 0f	 mov	 dl, BYTE PTR [ecx+15]
  00108	84 d2		 test	 dl, dl
  0010a	0f 84 17 03 00
	00		 je	 $LN81@encodeStri
  00110	80 f2 ea	 xor	 dl, -22			; ffffffeaH
  00113	88 50 0f	 mov	 BYTE PTR [eax+15], dl
  00116	8a 51 10	 mov	 dl, BYTE PTR [ecx+16]
  00119	84 d2		 test	 dl, dl
  0011b	0f 84 00 03 00
	00		 je	 $LN80@encodeStri
  00121	80 f2 ed	 xor	 dl, -19			; ffffffedH
  00124	88 50 10	 mov	 BYTE PTR [eax+16], dl
  00127	8a 51 11	 mov	 dl, BYTE PTR [ecx+17]
  0012a	84 d2		 test	 dl, dl
  0012c	0f 84 e9 02 00
	00		 je	 $LN79@encodeStri
  00132	80 f2 ec	 xor	 dl, -20			; ffffffecH
  00135	88 50 11	 mov	 BYTE PTR [eax+17], dl
  00138	8a 51 12	 mov	 dl, BYTE PTR [ecx+18]
  0013b	84 d2		 test	 dl, dl
  0013d	0f 84 d3 02 00
	00		 je	 $LN78@encodeStri
  00143	32 d3		 xor	 dl, bl
  00145	88 50 12	 mov	 BYTE PTR [eax+18], dl
  00148	8a 51 13	 mov	 dl, BYTE PTR [ecx+19]
  0014b	84 d2		 test	 dl, dl
  0014d	0f 84 bd 02 00
	00		 je	 $LN77@encodeStri
  00153	80 f2 ea	 xor	 dl, -22			; ffffffeaH
  00156	88 50 13	 mov	 BYTE PTR [eax+19], dl
  00159	8a 51 14	 mov	 dl, BYTE PTR [ecx+20]
  0015c	84 d2		 test	 dl, dl
  0015e	0f 84 a6 02 00
	00		 je	 $LN76@encodeStri
  00164	80 f2 ed	 xor	 dl, -19			; ffffffedH
  00167	88 50 14	 mov	 BYTE PTR [eax+20], dl
  0016a	8a 51 15	 mov	 dl, BYTE PTR [ecx+21]
  0016d	84 d2		 test	 dl, dl
  0016f	0f 84 8f 02 00
	00		 je	 $LN75@encodeStri
  00175	80 f2 ec	 xor	 dl, -20			; ffffffecH
  00178	88 50 15	 mov	 BYTE PTR [eax+21], dl
  0017b	8a 51 16	 mov	 dl, BYTE PTR [ecx+22]
  0017e	84 d2		 test	 dl, dl
  00180	0f 84 79 02 00
	00		 je	 $LN74@encodeStri
  00186	32 d3		 xor	 dl, bl
  00188	88 50 16	 mov	 BYTE PTR [eax+22], dl
  0018b	8a 51 17	 mov	 dl, BYTE PTR [ecx+23]
  0018e	84 d2		 test	 dl, dl
  00190	0f 84 60 02 00
	00		 je	 $LN73@encodeStri
  00196	80 f2 ea	 xor	 dl, -22			; ffffffeaH
  00199	88 50 17	 mov	 BYTE PTR [eax+23], dl
  0019c	8a 51 18	 mov	 dl, BYTE PTR [ecx+24]
  0019f	84 d2		 test	 dl, dl
  001a1	0f 84 46 02 00
	00		 je	 $LN72@encodeStri
  001a7	80 f2 ed	 xor	 dl, -19			; ffffffedH
  001aa	88 50 18	 mov	 BYTE PTR [eax+24], dl
  001ad	8a 51 19	 mov	 dl, BYTE PTR [ecx+25]
  001b0	84 d2		 test	 dl, dl
  001b2	0f 84 2c 02 00
	00		 je	 $LN71@encodeStri
  001b8	80 f2 ec	 xor	 dl, -20			; ffffffecH
  001bb	88 50 19	 mov	 BYTE PTR [eax+25], dl
  001be	8a 51 1a	 mov	 dl, BYTE PTR [ecx+26]
  001c1	84 d2		 test	 dl, dl
  001c3	0f 84 13 02 00
	00		 je	 $LN70@encodeStri
  001c9	32 d3		 xor	 dl, bl
  001cb	88 50 1a	 mov	 BYTE PTR [eax+26], dl
  001ce	8a 51 1b	 mov	 dl, BYTE PTR [ecx+27]
  001d1	84 d2		 test	 dl, dl
  001d3	0f 84 fa 01 00
	00		 je	 $LN69@encodeStri
  001d9	80 f2 ea	 xor	 dl, -22			; ffffffeaH
  001dc	88 50 1b	 mov	 BYTE PTR [eax+27], dl
  001df	8a 51 1c	 mov	 dl, BYTE PTR [ecx+28]
  001e2	84 d2		 test	 dl, dl
  001e4	0f 84 e0 01 00
	00		 je	 $LN68@encodeStri
  001ea	80 f2 ed	 xor	 dl, -19			; ffffffedH
  001ed	88 50 1c	 mov	 BYTE PTR [eax+28], dl
  001f0	8a 51 1d	 mov	 dl, BYTE PTR [ecx+29]
  001f3	84 d2		 test	 dl, dl
  001f5	0f 84 c6 01 00
	00		 je	 $LN67@encodeStri
  001fb	80 f2 ec	 xor	 dl, -20			; ffffffecH
  001fe	88 50 1d	 mov	 BYTE PTR [eax+29], dl
  00201	8a 51 1e	 mov	 dl, BYTE PTR [ecx+30]
  00204	84 d2		 test	 dl, dl
  00206	0f 84 ad 01 00
	00		 je	 $LN66@encodeStri
  0020c	32 d3		 xor	 dl, bl
  0020e	88 50 1e	 mov	 BYTE PTR [eax+30], dl
  00211	8a 51 1f	 mov	 dl, BYTE PTR [ecx+31]
  00214	84 d2		 test	 dl, dl
  00216	0f 84 94 01 00
	00		 je	 $LN65@encodeStri
  0021c	80 f2 ea	 xor	 dl, -22			; ffffffeaH
  0021f	88 50 1f	 mov	 BYTE PTR [eax+31], dl
  00222	8a 51 20	 mov	 dl, BYTE PTR [ecx+32]
  00225	84 d2		 test	 dl, dl
  00227	0f 84 7a 01 00
	00		 je	 $LN64@encodeStri
  0022d	80 f2 ed	 xor	 dl, -19			; ffffffedH
  00230	88 50 20	 mov	 BYTE PTR [eax+32], dl
  00233	8a 51 21	 mov	 dl, BYTE PTR [ecx+33]
  00236	84 d2		 test	 dl, dl
  00238	0f 84 60 01 00
	00		 je	 $LN63@encodeStri
  0023e	80 f2 ec	 xor	 dl, -20			; ffffffecH
  00241	88 50 21	 mov	 BYTE PTR [eax+33], dl
  00244	8a 51 22	 mov	 dl, BYTE PTR [ecx+34]
  00247	84 d2		 test	 dl, dl
  00249	0f 84 47 01 00
	00		 je	 $LN62@encodeStri
  0024f	32 d3		 xor	 dl, bl
  00251	88 50 22	 mov	 BYTE PTR [eax+34], dl
  00254	8a 51 23	 mov	 dl, BYTE PTR [ecx+35]
  00257	84 d2		 test	 dl, dl
  00259	0f 84 2e 01 00
	00		 je	 $LN61@encodeStri
  0025f	80 f2 ea	 xor	 dl, -22			; ffffffeaH
  00262	88 50 23	 mov	 BYTE PTR [eax+35], dl
  00265	8a 51 24	 mov	 dl, BYTE PTR [ecx+36]
  00268	84 d2		 test	 dl, dl
  0026a	0f 84 14 01 00
	00		 je	 $LN60@encodeStri
  00270	80 f2 ed	 xor	 dl, -19			; ffffffedH
  00273	88 50 24	 mov	 BYTE PTR [eax+36], dl
  00276	8a 51 25	 mov	 dl, BYTE PTR [ecx+37]
  00279	84 d2		 test	 dl, dl
  0027b	0f 84 fa 00 00
	00		 je	 $LN59@encodeStri
  00281	80 f2 ec	 xor	 dl, -20			; ffffffecH
  00284	88 50 25	 mov	 BYTE PTR [eax+37], dl
  00287	8a 51 26	 mov	 dl, BYTE PTR [ecx+38]
  0028a	84 d2		 test	 dl, dl
  0028c	0f 84 e1 00 00
	00		 je	 $LN58@encodeStri
  00292	32 d3		 xor	 dl, bl
  00294	88 50 26	 mov	 BYTE PTR [eax+38], dl
  00297	8a 51 27	 mov	 dl, BYTE PTR [ecx+39]
  0029a	84 d2		 test	 dl, dl
  0029c	0f 84 c8 00 00
	00		 je	 $LN57@encodeStri
  002a2	80 f2 ea	 xor	 dl, -22			; ffffffeaH
  002a5	88 50 27	 mov	 BYTE PTR [eax+39], dl
  002a8	8a 51 28	 mov	 dl, BYTE PTR [ecx+40]
  002ab	84 d2		 test	 dl, dl
  002ad	0f 84 ae 00 00
	00		 je	 $LN56@encodeStri
  002b3	80 f2 ed	 xor	 dl, -19			; ffffffedH
  002b6	88 50 28	 mov	 BYTE PTR [eax+40], dl
  002b9	8a 51 29	 mov	 dl, BYTE PTR [ecx+41]
  002bc	84 d2		 test	 dl, dl
  002be	0f 84 94 00 00
	00		 je	 $LN55@encodeStri
  002c4	80 f2 ec	 xor	 dl, -20			; ffffffecH
  002c7	88 50 29	 mov	 BYTE PTR [eax+41], dl
  002ca	8a 51 2a	 mov	 dl, BYTE PTR [ecx+42]
  002cd	84 d2		 test	 dl, dl
  002cf	74 7f		 je	 SHORT $LN54@encodeStri
  002d1	32 d3		 xor	 dl, bl
  002d3	88 50 2a	 mov	 BYTE PTR [eax+42], dl
  002d6	8a 51 2b	 mov	 dl, BYTE PTR [ecx+43]
  002d9	84 d2		 test	 dl, dl
  002db	74 6a		 je	 SHORT $LN53@encodeStri
  002dd	80 f2 ea	 xor	 dl, -22			; ffffffeaH
  002e0	88 50 2b	 mov	 BYTE PTR [eax+43], dl
  002e3	8a 51 2c	 mov	 dl, BYTE PTR [ecx+44]
  002e6	84 d2		 test	 dl, dl
  002e8	74 54		 je	 SHORT $LN52@encodeStri
  002ea	80 f2 ed	 xor	 dl, -19			; ffffffedH
  002ed	88 50 2c	 mov	 BYTE PTR [eax+44], dl
  002f0	8a 51 2d	 mov	 dl, BYTE PTR [ecx+45]
  002f3	84 d2		 test	 dl, dl
  002f5	74 3e		 je	 SHORT $LN51@encodeStri
  002f7	80 f2 ec	 xor	 dl, -20			; ffffffecH
  002fa	88 50 2d	 mov	 BYTE PTR [eax+45], dl
  002fd	8a 51 2e	 mov	 dl, BYTE PTR [ecx+46]
  00300	84 d2		 test	 dl, dl
  00302	74 29		 je	 SHORT $LN50@encodeStri
  00304	32 d3		 xor	 dl, bl
  00306	88 50 2e	 mov	 BYTE PTR [eax+46], dl
  00309	8a 51 2f	 mov	 dl, BYTE PTR [ecx+47]
  0030c	84 d2		 test	 dl, dl
  0030e	74 14		 je	 SHORT $LN49@encodeStri
  00310	80 f2 ea	 xor	 dl, -22			; ffffffeaH
  00313	88 50 2f	 mov	 BYTE PTR [eax+47], dl
  00316	8a 49 30	 mov	 cl, BYTE PTR [ecx+48]
  00319	80 f1 ed	 xor	 cl, -19			; ffffffedH
  0031c	88 48 30	 mov	 BYTE PTR [eax+48], cl
  0031f	e9 5d 01 00 00	 jmp	 $LN1@encodeStri
$LN49@encodeStri:
  00324	c6 40 2f ea	 mov	 BYTE PTR [eax+47], -22	; ffffffeaH
  00328	e9 54 01 00 00	 jmp	 $LN1@encodeStri
$LN50@encodeStri:
  0032d	88 58 2e	 mov	 BYTE PTR [eax+46], bl
  00330	e9 4c 01 00 00	 jmp	 $LN1@encodeStri
$LN51@encodeStri:
  00335	c6 40 2d ec	 mov	 BYTE PTR [eax+45], -20	; ffffffecH
  00339	e9 43 01 00 00	 jmp	 $LN1@encodeStri
$LN52@encodeStri:
  0033e	c6 40 2c ed	 mov	 BYTE PTR [eax+44], -19	; ffffffedH
  00342	e9 3a 01 00 00	 jmp	 $LN1@encodeStri
$LN53@encodeStri:
  00347	c6 40 2b ea	 mov	 BYTE PTR [eax+43], -22	; ffffffeaH
  0034b	e9 31 01 00 00	 jmp	 $LN1@encodeStri
$LN54@encodeStri:
  00350	88 58 2a	 mov	 BYTE PTR [eax+42], bl
  00353	e9 29 01 00 00	 jmp	 $LN1@encodeStri
$LN55@encodeStri:
  00358	c6 40 29 ec	 mov	 BYTE PTR [eax+41], -20	; ffffffecH
  0035c	e9 20 01 00 00	 jmp	 $LN1@encodeStri
$LN56@encodeStri:
  00361	c6 40 28 ed	 mov	 BYTE PTR [eax+40], -19	; ffffffedH
  00365	e9 17 01 00 00	 jmp	 $LN1@encodeStri
$LN57@encodeStri:
  0036a	c6 40 27 ea	 mov	 BYTE PTR [eax+39], -22	; ffffffeaH
  0036e	e9 0e 01 00 00	 jmp	 $LN1@encodeStri
$LN58@encodeStri:
  00373	88 58 26	 mov	 BYTE PTR [eax+38], bl
  00376	e9 06 01 00 00	 jmp	 $LN1@encodeStri
$LN59@encodeStri:
  0037b	c6 40 25 ec	 mov	 BYTE PTR [eax+37], -20	; ffffffecH
  0037f	e9 fd 00 00 00	 jmp	 $LN1@encodeStri
$LN60@encodeStri:
  00384	c6 40 24 ed	 mov	 BYTE PTR [eax+36], -19	; ffffffedH
  00388	e9 f4 00 00 00	 jmp	 $LN1@encodeStri
$LN61@encodeStri:
  0038d	c6 40 23 ea	 mov	 BYTE PTR [eax+35], -22	; ffffffeaH
  00391	e9 eb 00 00 00	 jmp	 $LN1@encodeStri
$LN62@encodeStri:
  00396	88 58 22	 mov	 BYTE PTR [eax+34], bl
  00399	e9 e3 00 00 00	 jmp	 $LN1@encodeStri
$LN63@encodeStri:
  0039e	c6 40 21 ec	 mov	 BYTE PTR [eax+33], -20	; ffffffecH
  003a2	e9 da 00 00 00	 jmp	 $LN1@encodeStri
$LN64@encodeStri:
  003a7	c6 40 20 ed	 mov	 BYTE PTR [eax+32], -19	; ffffffedH
  003ab	e9 d1 00 00 00	 jmp	 $LN1@encodeStri
$LN65@encodeStri:
  003b0	c6 40 1f ea	 mov	 BYTE PTR [eax+31], -22	; ffffffeaH
  003b4	e9 c8 00 00 00	 jmp	 $LN1@encodeStri
$LN66@encodeStri:
  003b9	88 58 1e	 mov	 BYTE PTR [eax+30], bl
  003bc	e9 c0 00 00 00	 jmp	 $LN1@encodeStri
$LN67@encodeStri:
  003c1	c6 40 1d ec	 mov	 BYTE PTR [eax+29], -20	; ffffffecH
  003c5	e9 b7 00 00 00	 jmp	 $LN1@encodeStri
$LN68@encodeStri:
  003ca	c6 40 1c ed	 mov	 BYTE PTR [eax+28], -19	; ffffffedH
  003ce	e9 ae 00 00 00	 jmp	 $LN1@encodeStri
$LN69@encodeStri:
  003d3	c6 40 1b ea	 mov	 BYTE PTR [eax+27], -22	; ffffffeaH
  003d7	e9 a5 00 00 00	 jmp	 $LN1@encodeStri
$LN70@encodeStri:
  003dc	88 58 1a	 mov	 BYTE PTR [eax+26], bl
  003df	e9 9d 00 00 00	 jmp	 $LN1@encodeStri
$LN71@encodeStri:
  003e4	c6 40 19 ec	 mov	 BYTE PTR [eax+25], -20	; ffffffecH
  003e8	e9 94 00 00 00	 jmp	 $LN1@encodeStri
$LN72@encodeStri:
  003ed	c6 40 18 ed	 mov	 BYTE PTR [eax+24], -19	; ffffffedH
  003f1	e9 8b 00 00 00	 jmp	 $LN1@encodeStri
$LN73@encodeStri:
  003f6	c6 40 17 ea	 mov	 BYTE PTR [eax+23], -22	; ffffffeaH
  003fa	e9 82 00 00 00	 jmp	 $LN1@encodeStri
$LN74@encodeStri:
  003ff	88 58 16	 mov	 BYTE PTR [eax+22], bl
  00402	eb 7d		 jmp	 SHORT $LN1@encodeStri
$LN75@encodeStri:
  00404	c6 40 15 ec	 mov	 BYTE PTR [eax+21], -20	; ffffffecH
  00408	eb 77		 jmp	 SHORT $LN1@encodeStri
$LN76@encodeStri:
  0040a	c6 40 14 ed	 mov	 BYTE PTR [eax+20], -19	; ffffffedH
  0040e	eb 71		 jmp	 SHORT $LN1@encodeStri
$LN77@encodeStri:
  00410	c6 40 13 ea	 mov	 BYTE PTR [eax+19], -22	; ffffffeaH
  00414	eb 6b		 jmp	 SHORT $LN1@encodeStri
$LN78@encodeStri:
  00416	88 58 12	 mov	 BYTE PTR [eax+18], bl
  00419	eb 66		 jmp	 SHORT $LN1@encodeStri
$LN79@encodeStri:
  0041b	c6 40 11 ec	 mov	 BYTE PTR [eax+17], -20	; ffffffecH
  0041f	eb 60		 jmp	 SHORT $LN1@encodeStri
$LN80@encodeStri:
  00421	c6 40 10 ed	 mov	 BYTE PTR [eax+16], -19	; ffffffedH
  00425	eb 5a		 jmp	 SHORT $LN1@encodeStri
$LN81@encodeStri:
  00427	c6 40 0f ea	 mov	 BYTE PTR [eax+15], -22	; ffffffeaH
  0042b	eb 54		 jmp	 SHORT $LN1@encodeStri
$LN82@encodeStri:
  0042d	88 58 0e	 mov	 BYTE PTR [eax+14], bl
  00430	eb 4f		 jmp	 SHORT $LN1@encodeStri
$LN83@encodeStri:
  00432	c6 40 0d ec	 mov	 BYTE PTR [eax+13], -20	; ffffffecH
  00436	eb 49		 jmp	 SHORT $LN1@encodeStri
$LN84@encodeStri:
  00438	c6 40 0c ed	 mov	 BYTE PTR [eax+12], -19	; ffffffedH
  0043c	eb 43		 jmp	 SHORT $LN1@encodeStri
$LN85@encodeStri:
  0043e	c6 40 0b ea	 mov	 BYTE PTR [eax+11], -22	; ffffffeaH
  00442	eb 3d		 jmp	 SHORT $LN1@encodeStri
$LN86@encodeStri:
  00444	88 58 0a	 mov	 BYTE PTR [eax+10], bl
  00447	eb 38		 jmp	 SHORT $LN1@encodeStri
$LN87@encodeStri:
  00449	c6 40 09 ec	 mov	 BYTE PTR [eax+9], -20	; ffffffecH
  0044d	eb 32		 jmp	 SHORT $LN1@encodeStri
$LN88@encodeStri:
  0044f	c6 40 08 ed	 mov	 BYTE PTR [eax+8], -19	; ffffffedH
  00453	eb 2c		 jmp	 SHORT $LN1@encodeStri
$LN89@encodeStri:
  00455	c6 40 07 ea	 mov	 BYTE PTR [eax+7], -22	; ffffffeaH
  00459	eb 26		 jmp	 SHORT $LN1@encodeStri
$LN90@encodeStri:
  0045b	88 58 06	 mov	 BYTE PTR [eax+6], bl
  0045e	eb 21		 jmp	 SHORT $LN1@encodeStri
$LN91@encodeStri:
  00460	c6 40 05 ec	 mov	 BYTE PTR [eax+5], -20	; ffffffecH
  00464	eb 1b		 jmp	 SHORT $LN1@encodeStri
$LN92@encodeStri:
  00466	c6 40 04 ed	 mov	 BYTE PTR [eax+4], -19	; ffffffedH
  0046a	eb 15		 jmp	 SHORT $LN1@encodeStri
$LN93@encodeStri:
  0046c	c6 40 03 ea	 mov	 BYTE PTR [eax+3], -22	; ffffffeaH
  00470	eb 0f		 jmp	 SHORT $LN1@encodeStri
$LN94@encodeStri:
  00472	c6 40 02 eb	 mov	 BYTE PTR [eax+2], -21	; ffffffebH
  00476	eb 09		 jmp	 SHORT $LN1@encodeStri
$LN95@encodeStri:
  00478	c6 40 01 ec	 mov	 BYTE PTR [eax+1], -20	; ffffffecH
  0047c	eb 03		 jmp	 SHORT $LN1@encodeStri
$LN96@encodeStri:
  0047e	c6 00 ed	 mov	 BYTE PTR [eax], -19	; ffffffedH
$LN1@encodeStri:
  00481	6a 06		 push	 6
  00483	5a		 pop	 edx
  00484	8b c8		 mov	 ecx, eax
  00486	c6 40 1b 00	 mov	 BYTE PTR [eax+27], 0
  0048a	5b		 pop	 ebx
$LL104@encodeStri:
  0048b	81 31 ed ec eb
	ea		 xor	 DWORD PTR [ecx], -353637139 ; eaebecedH
  00491	83 c1 04	 add	 ecx, 4
  00494	4a		 dec	 edx
  00495	75 f4		 jne	 SHORT $LL104@encodeStri
  00497	56		 push	 esi
  00498	6a 18		 push	 24			; 00000018H
  0049a	5e		 pop	 esi
$LL101@encodeStri:
  0049b	8b ce		 mov	 ecx, esi
  0049d	81 e1 03 00 00
	80		 and	 ecx, -2147483645	; 80000003H
  004a3	79 05		 jns	 SHORT $LN111@encodeStri
  004a5	49		 dec	 ecx
  004a6	83 c9 fc	 or	 ecx, -4			; fffffffcH
  004a9	41		 inc	 ecx
$LN111@encodeStri:
  004aa	b2 ed		 mov	 dl, -19			; ffffffedH
  004ac	2a d1		 sub	 dl, cl
  004ae	30 14 06	 xor	 BYTE PTR [esi+eax], dl
  004b1	46		 inc	 esi
  004b2	83 fe 1b	 cmp	 esi, 27			; 0000001bH
  004b5	7c e4		 jl	 SHORT $LL101@encodeStri
  004b7	5e		 pop	 esi

; 217  : 		return e;
; 218  : 	}

  004b8	5d		 pop	 ebp
  004b9	c2 08 00	 ret	 8
??$encodeString@$0BM@@ioINILoader_e@@AAEPADAAY0BM@$$CBDPAD@Z ENDP ; ioINILoader_e::encodeString<28>
_TEXT	ENDS
PUBLIC	??$construct@AAUFishingItem@@@?$allocator@UFishingItem@@@std@@QAEXPAUFishingItem@@AAU2@@Z ; std::allocator<FishingItem>::construct<FishingItem &>
;	COMDAT xdata$x
; File c:\program files (x86)\microsoft visual studio 10.0\vc\include\utility
xdata$x	SEGMENT
__unwindtable$??$construct@AAUFishingItem@@@?$allocator@UFishingItem@@@std@@QAEXPAUFishingItem@@AAU2@@Z DD 0ffffffffH
	DD	FLAT:__unwindfunclet$??$construct@AAUFishingItem@@@?$allocator@UFishingItem@@@std@@QAEXPAUFishingItem@@AAU2@@Z$0
__ehfuncinfo$??$construct@AAUFishingItem@@@?$allocator@UFishingItem@@@std@@QAEXPAUFishingItem@@AAU2@@Z DD 019930522H
	DD	01H
	DD	FLAT:__unwindtable$??$construct@AAUFishingItem@@@?$allocator@UFishingItem@@@std@@QAEXPAUFishingItem@@AAU2@@Z
	DD	2 DUP(00H)
	DD	2 DUP(00H)
	DD	00H
	DD	01H
; Function compile flags: /Ogsp
; File c:\program files (x86)\microsoft visual studio 10.0\vc\include\xmemory
xdata$x	ENDS
;	COMDAT ??$construct@AAUFishingItem@@@?$allocator@UFishingItem@@@std@@QAEXPAUFishingItem@@AAU2@@Z
_TEXT	SEGMENT
$T513306 = -16						; size = 4
__$EHRec$ = -12						; size = 12
__Ptr$ = 8						; size = 4
__Val$ = 12						; size = 4
??$construct@AAUFishingItem@@@?$allocator@UFishingItem@@@std@@QAEXPAUFishingItem@@AAU2@@Z PROC ; std::allocator<FishingItem>::construct<FishingItem &>, COMDAT
; _this$ = ecx

; 206  : 		void construct(pointer _Ptr, _Other&& _Val)

  00000	6a 04		 push	 4
  00002	b8 00 00 00 00	 mov	 eax, __ehhandler$??$construct@AAUFishingItem@@@?$allocator@UFishingItem@@@std@@QAEXPAUFishingItem@@AAU2@@Z
  00007	e8 00 00 00 00	 call	 __EH_prolog3

; 207  : 		{	// construct object at _Ptr with value _Val
; 208  : 		::new ((void _FARQ *)_Ptr) _Ty(_STD forward<_Other>(_Val));

  0000c	8b 4d 08	 mov	 ecx, DWORD PTR __Ptr$[ebp]
  0000f	89 4d f0	 mov	 DWORD PTR $T513306[ebp], ecx
  00012	83 65 fc 00	 and	 DWORD PTR __$EHRec$[ebp+8], 0
  00016	85 c9		 test	 ecx, ecx
  00018	74 08		 je	 SHORT $LN3@construct
  0001a	ff 75 0c	 push	 DWORD PTR __Val$[ebp]
  0001d	e8 00 00 00 00	 call	 ??0FishingItem@@QAE@ABU0@@Z
$LN3@construct:

; 209  : 		}

  00022	e8 00 00 00 00	 call	 __EH_epilog3
  00027	c2 08 00	 ret	 8
_TEXT	ENDS
;	COMDAT text$x
text$x	SEGMENT
__unwindfunclet$??$construct@AAUFishingItem@@@?$allocator@UFishingItem@@@std@@QAEXPAUFishingItem@@AAU2@@Z$0:
  00000	ff 75 08	 push	 DWORD PTR __Ptr$[ebp]
  00003	ff 75 f0	 push	 DWORD PTR $T513306[ebp]
  00006	e8 00 00 00 00	 call	 ??3@YAXPAX0@Z		; operator delete
  0000b	59		 pop	 ecx
  0000c	59		 pop	 ecx
  0000d	c3		 ret	 0
__ehhandler$??$construct@AAUFishingItem@@@?$allocator@UFishingItem@@@std@@QAEXPAUFishingItem@@AAU2@@Z:
  0000e	8b 54 24 08	 mov	 edx, DWORD PTR [esp+8]
  00012	8d 42 0c	 lea	 eax, DWORD PTR [edx+12]
  00015	8b 4a ec	 mov	 ecx, DWORD PTR [edx-20]
  00018	33 c8		 xor	 ecx, eax
  0001a	e8 00 00 00 00	 call	 @__security_check_cookie@4
  0001f	b8 00 00 00 00	 mov	 eax, OFFSET __ehfuncinfo$??$construct@AAUFishingItem@@@?$allocator@UFishingItem@@@std@@QAEXPAUFishingItem@@AAU2@@Z
  00024	e9 00 00 00 00	 jmp	 ___CxxFrameHandler3
text$x	ENDS
??$construct@AAUFishingItem@@@?$allocator@UFishingItem@@@std@@QAEXPAUFishingItem@@AAU2@@Z ENDP ; std::allocator<FishingItem>::construct<FishingItem &>
PUBLIC	??$construct@AAUFishingItemGrade@@@?$allocator@UFishingItemGrade@@@std@@QAEXPAUFishingItemGrade@@AAU2@@Z ; std::allocator<FishingItemGrade>::construct<FishingItemGrade &>
;	COMDAT xdata$x
; File c:\program files (x86)\microsoft visual studio 10.0\vc\include\utility
xdata$x	SEGMENT
__unwindtable$??$construct@AAUFishingItemGrade@@@?$allocator@UFishingItemGrade@@@std@@QAEXPAUFishingItemGrade@@AAU2@@Z DD 0ffffffffH
	DD	FLAT:__unwindfunclet$??$construct@AAUFishingItemGrade@@@?$allocator@UFishingItemGrade@@@std@@QAEXPAUFishingItemGrade@@AAU2@@Z$0
__ehfuncinfo$??$construct@AAUFishingItemGrade@@@?$allocator@UFishingItemGrade@@@std@@QAEXPAUFishingItemGrade@@AAU2@@Z DD 019930522H
	DD	01H
	DD	FLAT:__unwindtable$??$construct@AAUFishingItemGrade@@@?$allocator@UFishingItemGrade@@@std@@QAEXPAUFishingItemGrade@@AAU2@@Z
	DD	2 DUP(00H)
	DD	2 DUP(00H)
	DD	00H
	DD	01H
; Function compile flags: /Ogsp
; File c:\program files (x86)\microsoft visual studio 10.0\vc\include\xmemory
xdata$x	ENDS
;	COMDAT ??$construct@AAUFishingItemGrade@@@?$allocator@UFishingItemGrade@@@std@@QAEXPAUFishingItemGrade@@AAU2@@Z
_TEXT	SEGMENT
$T513325 = -16						; size = 4
__$EHRec$ = -12						; size = 12
__Ptr$ = 8						; size = 4
__Val$ = 12						; size = 4
??$construct@AAUFishingItemGrade@@@?$allocator@UFishingItemGrade@@@std@@QAEXPAUFishingItemGrade@@AAU2@@Z PROC ; std::allocator<FishingItemGrade>::construct<FishingItemGrade &>, COMDAT
; _this$ = ecx

; 206  : 		void construct(pointer _Ptr, _Other&& _Val)

  00000	6a 04		 push	 4
  00002	b8 00 00 00 00	 mov	 eax, __ehhandler$??$construct@AAUFishingItemGrade@@@?$allocator@UFishingItemGrade@@@std@@QAEXPAUFishingItemGrade@@AAU2@@Z
  00007	e8 00 00 00 00	 call	 __EH_prolog3

; 207  : 		{	// construct object at _Ptr with value _Val
; 208  : 		::new ((void _FARQ *)_Ptr) _Ty(_STD forward<_Other>(_Val));

  0000c	8b 4d 08	 mov	 ecx, DWORD PTR __Ptr$[ebp]
  0000f	89 4d f0	 mov	 DWORD PTR $T513325[ebp], ecx
  00012	83 65 fc 00	 and	 DWORD PTR __$EHRec$[ebp+8], 0
  00016	85 c9		 test	 ecx, ecx
  00018	74 08		 je	 SHORT $LN3@construct@2
  0001a	ff 75 0c	 push	 DWORD PTR __Val$[ebp]
  0001d	e8 00 00 00 00	 call	 ??0FishingItemGrade@@QAE@ABU0@@Z
$LN3@construct@2:

; 209  : 		}

  00022	e8 00 00 00 00	 call	 __EH_epilog3
  00027	c2 08 00	 ret	 8
_TEXT	ENDS
;	COMDAT text$x
text$x	SEGMENT
__unwindfunclet$??$construct@AAUFishingItemGrade@@@?$allocator@UFishingItemGrade@@@std@@QAEXPAUFishingItemGrade@@AAU2@@Z$0:
  00000	ff 75 08	 push	 DWORD PTR __Ptr$[ebp]
  00003	ff 75 f0	 push	 DWORD PTR $T513325[ebp]
  00006	e8 00 00 00 00	 call	 ??3@YAXPAX0@Z		; operator delete
  0000b	59		 pop	 ecx
  0000c	59		 pop	 ecx
  0000d	c3		 ret	 0
__ehhandler$??$construct@AAUFishingItemGrade@@@?$allocator@UFishingItemGrade@@@std@@QAEXPAUFishingItemGrade@@AAU2@@Z:
  0000e	8b 54 24 08	 mov	 edx, DWORD PTR [esp+8]
  00012	8d 42 0c	 lea	 eax, DWORD PTR [edx+12]
  00015	8b 4a ec	 mov	 ecx, DWORD PTR [edx-20]
  00018	33 c8		 xor	 ecx, eax
  0001a	e8 00 00 00 00	 call	 @__security_check_cookie@4
  0001f	b8 00 00 00 00	 mov	 eax, OFFSET __ehfuncinfo$??$construct@AAUFishingItemGrade@@@?$allocator@UFishingItemGrade@@@std@@QAEXPAUFishingItemGrade@@AAU2@@Z
  00024	e9 00 00 00 00	 jmp	 ___CxxFrameHandler3
text$x	ENDS
??$construct@AAUFishingItemGrade@@@?$allocator@UFishingItemGrade@@@std@@QAEXPAUFishingItemGrade@@AAU2@@Z ENDP ; std::allocator<FishingItemGrade>::construct<FishingItemGrade &>
PUBLIC	??$construct@AAUFishingTypeInfo@@@?$allocator@UFishingTypeInfo@@@std@@QAEXPAUFishingTypeInfo@@AAU2@@Z ; std::allocator<FishingTypeInfo>::construct<FishingTypeInfo &>
;	COMDAT xdata$x
; File c:\program files (x86)\microsoft visual studio 10.0\vc\include\utility
xdata$x	SEGMENT
__unwindtable$??$construct@AAUFishingTypeInfo@@@?$allocator@UFishingTypeInfo@@@std@@QAEXPAUFishingTypeInfo@@AAU2@@Z DD 0ffffffffH
	DD	FLAT:__unwindfunclet$??$construct@AAUFishingTypeInfo@@@?$allocator@UFishingTypeInfo@@@std@@QAEXPAUFishingTypeInfo@@AAU2@@Z$0
__ehfuncinfo$??$construct@AAUFishingTypeInfo@@@?$allocator@UFishingTypeInfo@@@std@@QAEXPAUFishingTypeInfo@@AAU2@@Z DD 019930522H
	DD	01H
	DD	FLAT:__unwindtable$??$construct@AAUFishingTypeInfo@@@?$allocator@UFishingTypeInfo@@@std@@QAEXPAUFishingTypeInfo@@AAU2@@Z
	DD	2 DUP(00H)
	DD	2 DUP(00H)
	DD	00H
	DD	01H
; Function compile flags: /Ogsp
; File c:\program files (x86)\microsoft visual studio 10.0\vc\include\xmemory
xdata$x	ENDS
;	COMDAT ??$construct@AAUFishingTypeInfo@@@?$allocator@UFishingTypeInfo@@@std@@QAEXPAUFishingTypeInfo@@AAU2@@Z
_TEXT	SEGMENT
$T513344 = -16						; size = 4
__$EHRec$ = -12						; size = 12
__Ptr$ = 8						; size = 4
__Val$ = 12						; size = 4
??$construct@AAUFishingTypeInfo@@@?$allocator@UFishingTypeInfo@@@std@@QAEXPAUFishingTypeInfo@@AAU2@@Z PROC ; std::allocator<FishingTypeInfo>::construct<FishingTypeInfo &>, COMDAT
; _this$ = ecx

; 206  : 		void construct(pointer _Ptr, _Other&& _Val)

  00000	6a 04		 push	 4
  00002	b8 00 00 00 00	 mov	 eax, __ehhandler$??$construct@AAUFishingTypeInfo@@@?$allocator@UFishingTypeInfo@@@std@@QAEXPAUFishingTypeInfo@@AAU2@@Z
  00007	e8 00 00 00 00	 call	 __EH_prolog3

; 207  : 		{	// construct object at _Ptr with value _Val
; 208  : 		::new ((void _FARQ *)_Ptr) _Ty(_STD forward<_Other>(_Val));

  0000c	8b 4d 08	 mov	 ecx, DWORD PTR __Ptr$[ebp]
  0000f	89 4d f0	 mov	 DWORD PTR $T513344[ebp], ecx
  00012	83 65 fc 00	 and	 DWORD PTR __$EHRec$[ebp+8], 0
  00016	85 c9		 test	 ecx, ecx
  00018	74 08		 je	 SHORT $LN3@construct@3
  0001a	ff 75 0c	 push	 DWORD PTR __Val$[ebp]
  0001d	e8 00 00 00 00	 call	 ??0FishingTypeInfo@@QAE@ABU0@@Z
$LN3@construct@3:

; 209  : 		}

  00022	e8 00 00 00 00	 call	 __EH_epilog3
  00027	c2 08 00	 ret	 8
_TEXT	ENDS
;	COMDAT text$x
text$x	SEGMENT
__unwindfunclet$??$construct@AAUFishingTypeInfo@@@?$allocator@UFishingTypeInfo@@@std@@QAEXPAUFishingTypeInfo@@AAU2@@Z$0:
  00000	ff 75 08	 push	 DWORD PTR __Ptr$[ebp]
  00003	ff 75 f0	 push	 DWORD PTR $T513344[ebp]
  00006	e8 00 00 00 00	 call	 ??3@YAXPAX0@Z		; operator delete
  0000b	59		 pop	 ecx
  0000c	59		 pop	 ecx
  0000d	c3		 ret	 0
__ehhandler$??$construct@AAUFishingTypeInfo@@@?$allocator@UFishingTypeInfo@@@std@@QAEXPAUFishingTypeInfo@@AAU2@@Z:
  0000e	8b 54 24 08	 mov	 edx, DWORD PTR [esp+8]
  00012	8d 42 0c	 lea	 eax, DWORD PTR [edx+12]
  00015	8b 4a ec	 mov	 ecx, DWORD PTR [edx-20]
  00018	33 c8		 xor	 ecx, eax
  0001a	e8 00 00 00 00	 call	 @__security_check_cookie@4
  0001f	b8 00 00 00 00	 mov	 eax, OFFSET __ehfuncinfo$??$construct@AAUFishingTypeInfo@@@?$allocator@UFishingTypeInfo@@@std@@QAEXPAUFishingTypeInfo@@AAU2@@Z
  00024	e9 00 00 00 00	 jmp	 ___CxxFrameHandler3
text$x	ENDS
??$construct@AAUFishingTypeInfo@@@?$allocator@UFishingTypeInfo@@@std@@QAEXPAUFishingTypeInfo@@AAU2@@Z ENDP ; std::allocator<FishingTypeInfo>::construct<FishingTypeInfo &>
PUBLIC	??$_Move@PAUFishingItem@@PAU1@@std@@YAPAUFishingItem@@PAU1@00U_Nonscalar_ptr_iterator_tag@0@@Z ; std::_Move<FishingItem *,FishingItem *>
; Function compile flags: /Ogsp
; File c:\program files (x86)\microsoft visual studio 10.0\vc\include\xutility
;	COMDAT ??$_Move@PAUFishingItem@@PAU1@@std@@YAPAUFishingItem@@PAU1@00U_Nonscalar_ptr_iterator_tag@0@@Z
_TEXT	SEGMENT
__First$ = 8						; size = 4
__Last$ = 12						; size = 4
__Dest$ = 16						; size = 4
___formal$ = 20						; size = 1
??$_Move@PAUFishingItem@@PAU1@@std@@YAPAUFishingItem@@PAU1@00U_Nonscalar_ptr_iterator_tag@0@@Z PROC ; std::_Move<FishingItem *,FishingItem *>, COMDAT

; 2512 : 	{	// move [_First, _Last) to [_Dest, ...), arbitrary iterators

  00000	55		 push	 ebp
  00001	8b ec		 mov	 ebp, esp
  00003	56		 push	 esi

; 2513 : 	for (; _First != _Last; ++_Dest, ++_First)

  00004	8b 75 08	 mov	 esi, DWORD PTR __First$[ebp]
  00007	eb 10		 jmp	 SHORT $LN11@Move
$LL3@Move:

; 2514 : 		*_Dest = _STD move(*_First);

  00009	8b 4d 10	 mov	 ecx, DWORD PTR __Dest$[ebp]
  0000c	56		 push	 esi
  0000d	e8 00 00 00 00	 call	 ??4FishingItem@@QAEAAU0@ABU0@@Z
  00012	83 45 10 40	 add	 DWORD PTR __Dest$[ebp], 64 ; 00000040H
  00016	83 c6 40	 add	 esi, 64			; 00000040H
$LN11@Move:

; 2513 : 	for (; _First != _Last; ++_Dest, ++_First)

  00019	3b 75 0c	 cmp	 esi, DWORD PTR __Last$[ebp]
  0001c	75 eb		 jne	 SHORT $LL3@Move

; 2515 : 	return (_Dest);

  0001e	8b 45 10	 mov	 eax, DWORD PTR __Dest$[ebp]
  00021	5e		 pop	 esi

; 2516 : 	}

  00022	5d		 pop	 ebp
  00023	c3		 ret	 0
??$_Move@PAUFishingItem@@PAU1@@std@@YAPAUFishingItem@@PAU1@00U_Nonscalar_ptr_iterator_tag@0@@Z ENDP ; std::_Move<FishingItem *,FishingItem *>
_TEXT	ENDS
PUBLIC	??$_Move@PAUFishingItemGrade@@PAU1@@std@@YAPAUFishingItemGrade@@PAU1@00U_Nonscalar_ptr_iterator_tag@0@@Z ; std::_Move<FishingItemGrade *,FishingItemGrade *>
; Function compile flags: /Ogsp
;	COMDAT ??$_Move@PAUFishingItemGrade@@PAU1@@std@@YAPAUFishingItemGrade@@PAU1@00U_Nonscalar_ptr_iterator_tag@0@@Z
_TEXT	SEGMENT
__First$ = 8						; size = 4
__Last$ = 12						; size = 4
__Dest$ = 16						; size = 4
___formal$ = 20						; size = 1
??$_Move@PAUFishingItemGrade@@PAU1@@std@@YAPAUFishingItemGrade@@PAU1@00U_Nonscalar_ptr_iterator_tag@0@@Z PROC ; std::_Move<FishingItemGrade *,FishingItemGrade *>, COMDAT

; 2512 : 	{	// move [_First, _Last) to [_Dest, ...), arbitrary iterators

  00000	55		 push	 ebp
  00001	8b ec		 mov	 ebp, esp
  00003	56		 push	 esi

; 2513 : 	for (; _First != _Last; ++_Dest, ++_First)

  00004	8b 75 08	 mov	 esi, DWORD PTR __First$[ebp]
  00007	eb 10		 jmp	 SHORT $LN11@Move@2
$LL3@Move@2:

; 2514 : 		*_Dest = _STD move(*_First);

  00009	8b 4d 10	 mov	 ecx, DWORD PTR __Dest$[ebp]
  0000c	56		 push	 esi
  0000d	e8 00 00 00 00	 call	 ??4FishingItemGrade@@QAEAAU0@ABU0@@Z
  00012	83 45 10 28	 add	 DWORD PTR __Dest$[ebp], 40 ; 00000028H
  00016	83 c6 28	 add	 esi, 40			; 00000028H
$LN11@Move@2:

; 2513 : 	for (; _First != _Last; ++_Dest, ++_First)

  00019	3b 75 0c	 cmp	 esi, DWORD PTR __Last$[ebp]
  0001c	75 eb		 jne	 SHORT $LL3@Move@2

; 2515 : 	return (_Dest);

  0001e	8b 45 10	 mov	 eax, DWORD PTR __Dest$[ebp]
  00021	5e		 pop	 esi

; 2516 : 	}

  00022	5d		 pop	 ebp
  00023	c3		 ret	 0
??$_Move@PAUFishingItemGrade@@PAU1@@std@@YAPAUFishingItemGrade@@PAU1@00U_Nonscalar_ptr_iterator_tag@0@@Z ENDP ; std::_Move<FishingItemGrade *,FishingItemGrade *>
_TEXT	ENDS
PUBLIC	??$_Move@PAUFishingTypeInfo@@PAU1@@std@@YAPAUFishingTypeInfo@@PAU1@00U_Nonscalar_ptr_iterator_tag@0@@Z ; std::_Move<FishingTypeInfo *,FishingTypeInfo *>
; Function compile flags: /Ogsp
;	COMDAT ??$_Move@PAUFishingTypeInfo@@PAU1@@std@@YAPAUFishingTypeInfo@@PAU1@00U_Nonscalar_ptr_iterator_tag@0@@Z
_TEXT	SEGMENT
__First$ = 8						; size = 4
__Last$ = 12						; size = 4
__Dest$ = 16						; size = 4
___formal$ = 20						; size = 1
??$_Move@PAUFishingTypeInfo@@PAU1@@std@@YAPAUFishingTypeInfo@@PAU1@00U_Nonscalar_ptr_iterator_tag@0@@Z PROC ; std::_Move<FishingTypeInfo *,FishingTypeInfo *>, COMDAT

; 2512 : 	{	// move [_First, _Last) to [_Dest, ...), arbitrary iterators

  00000	55		 push	 ebp
  00001	8b ec		 mov	 ebp, esp
  00003	56		 push	 esi

; 2513 : 	for (; _First != _Last; ++_Dest, ++_First)

  00004	8b 75 08	 mov	 esi, DWORD PTR __First$[ebp]
  00007	eb 10		 jmp	 SHORT $LN11@Move@3
$LL3@Move@3:

; 2514 : 		*_Dest = _STD move(*_First);

  00009	8b 4d 10	 mov	 ecx, DWORD PTR __Dest$[ebp]
  0000c	56		 push	 esi
  0000d	e8 00 00 00 00	 call	 ??4FishingTypeInfo@@QAEAAU0@ABU0@@Z
  00012	83 45 10 40	 add	 DWORD PTR __Dest$[ebp], 64 ; 00000040H
  00016	83 c6 40	 add	 esi, 64			; 00000040H
$LN11@Move@3:

; 2513 : 	for (; _First != _Last; ++_Dest, ++_First)

  00019	3b 75 0c	 cmp	 esi, DWORD PTR __Last$[ebp]
  0001c	75 eb		 jne	 SHORT $LL3@Move@3

; 2515 : 	return (_Dest);

  0001e	8b 45 10	 mov	 eax, DWORD PTR __Dest$[ebp]
  00021	5e		 pop	 esi

; 2516 : 	}

  00022	5d		 pop	 ebp
  00023	c3		 ret	 0
??$_Move@PAUFishingTypeInfo@@PAU1@@std@@YAPAUFishingTypeInfo@@PAU1@00U_Nonscalar_ptr_iterator_tag@0@@Z ENDP ; std::_Move<FishingTypeInfo *,FishingTypeInfo *>
_TEXT	ENDS
PUBLIC	??$_Construct@UFishingItem@@ABU1@@std@@YAXPAUFishingItem@@ABU1@@Z ; std::_Construct<FishingItem,FishingItem const &>
;	COMDAT xdata$x
; File c:\program files (x86)\microsoft visual studio 10.0\vc\include\utility
xdata$x	SEGMENT
__unwindtable$??$_Construct@UFishingItem@@ABU1@@std@@YAXPAUFishingItem@@ABU1@@Z DD 0ffffffffH
	DD	FLAT:__unwindfunclet$??$_Construct@UFishingItem@@ABU1@@std@@YAXPAUFishingItem@@ABU1@@Z$0
__ehfuncinfo$??$_Construct@UFishingItem@@ABU1@@std@@YAXPAUFishingItem@@ABU1@@Z DD 019930522H
	DD	01H
	DD	FLAT:__unwindtable$??$_Construct@UFishingItem@@ABU1@@std@@YAXPAUFishingItem@@ABU1@@Z
	DD	2 DUP(00H)
	DD	2 DUP(00H)
	DD	00H
	DD	01H
; Function compile flags: /Ogsp
; File c:\program files (x86)\microsoft visual studio 10.0\vc\include\xmemory
xdata$x	ENDS
;	COMDAT ??$_Construct@UFishingItem@@ABU1@@std@@YAXPAUFishingItem@@ABU1@@Z
_TEXT	SEGMENT
$T513390 = -16						; size = 4
__$EHRec$ = -12						; size = 12
__Vptr$ = 8						; size = 4
__Ptr$ = 8						; size = 4
__Val$ = 12						; size = 4
??$_Construct@UFishingItem@@ABU1@@std@@YAXPAUFishingItem@@ABU1@@Z PROC ; std::_Construct<FishingItem,FishingItem const &>, COMDAT

; 46   : 	{	// construct object at _Ptr with value _Val

  00000	6a 04		 push	 4
  00002	b8 00 00 00 00	 mov	 eax, __ehhandler$??$_Construct@UFishingItem@@ABU1@@std@@YAXPAUFishingItem@@ABU1@@Z
  00007	e8 00 00 00 00	 call	 __EH_prolog3

; 47   : 	void _FARQ *_Vptr = _Ptr;

  0000c	8b 4d 08	 mov	 ecx, DWORD PTR __Ptr$[ebp]
  0000f	89 4d 08	 mov	 DWORD PTR __Vptr$[ebp], ecx

; 48   : 	::new (_Vptr) _Ty1(_STD forward<_Ty2>(_Val));

  00012	89 4d f0	 mov	 DWORD PTR $T513390[ebp], ecx
  00015	83 65 fc 00	 and	 DWORD PTR __$EHRec$[ebp+8], 0
  00019	85 c9		 test	 ecx, ecx
  0001b	74 08		 je	 SHORT $LN3@Construct
  0001d	ff 75 0c	 push	 DWORD PTR __Val$[ebp]
  00020	e8 00 00 00 00	 call	 ??0FishingItem@@QAE@ABU0@@Z
$LN3@Construct:

; 49   : 	}

  00025	e8 00 00 00 00	 call	 __EH_epilog3
  0002a	c3		 ret	 0
_TEXT	ENDS
;	COMDAT text$x
text$x	SEGMENT
__unwindfunclet$??$_Construct@UFishingItem@@ABU1@@std@@YAXPAUFishingItem@@ABU1@@Z$0:
  00000	ff 75 08	 push	 DWORD PTR __Vptr$[ebp]
  00003	ff 75 f0	 push	 DWORD PTR $T513390[ebp]
  00006	e8 00 00 00 00	 call	 ??3@YAXPAX0@Z		; operator delete
  0000b	59		 pop	 ecx
  0000c	59		 pop	 ecx
  0000d	c3		 ret	 0
__ehhandler$??$_Construct@UFishingItem@@ABU1@@std@@YAXPAUFishingItem@@ABU1@@Z:
  0000e	8b 54 24 08	 mov	 edx, DWORD PTR [esp+8]
  00012	8d 42 0c	 lea	 eax, DWORD PTR [edx+12]
  00015	8b 4a ec	 mov	 ecx, DWORD PTR [edx-20]
  00018	33 c8		 xor	 ecx, eax
  0001a	e8 00 00 00 00	 call	 @__security_check_cookie@4
  0001f	b8 00 00 00 00	 mov	 eax, OFFSET __ehfuncinfo$??$_Construct@UFishingItem@@ABU1@@std@@YAXPAUFishingItem@@ABU1@@Z
  00024	e9 00 00 00 00	 jmp	 ___CxxFrameHandler3
text$x	ENDS
??$_Construct@UFishingItem@@ABU1@@std@@YAXPAUFishingItem@@ABU1@@Z ENDP ; std::_Construct<FishingItem,FishingItem const &>
PUBLIC	??$_Construct@UFishingItemGrade@@ABU1@@std@@YAXPAUFishingItemGrade@@ABU1@@Z ; std::_Construct<FishingItemGrade,FishingItemGrade const &>
;	COMDAT xdata$x
; File c:\program files (x86)\microsoft visual studio 10.0\vc\include\utility
xdata$x	SEGMENT
__unwindtable$??$_Construct@UFishingItemGrade@@ABU1@@std@@YAXPAUFishingItemGrade@@ABU1@@Z DD 0ffffffffH
	DD	FLAT:__unwindfunclet$??$_Construct@UFishingItemGrade@@ABU1@@std@@YAXPAUFishingItemGrade@@ABU1@@Z$0
__ehfuncinfo$??$_Construct@UFishingItemGrade@@ABU1@@std@@YAXPAUFishingItemGrade@@ABU1@@Z DD 019930522H
	DD	01H
	DD	FLAT:__unwindtable$??$_Construct@UFishingItemGrade@@ABU1@@std@@YAXPAUFishingItemGrade@@ABU1@@Z
	DD	2 DUP(00H)
	DD	2 DUP(00H)
	DD	00H
	DD	01H
; Function compile flags: /Ogsp
; File c:\program files (x86)\microsoft visual studio 10.0\vc\include\xmemory
xdata$x	ENDS
;	COMDAT ??$_Construct@UFishingItemGrade@@ABU1@@std@@YAXPAUFishingItemGrade@@ABU1@@Z
_TEXT	SEGMENT
$T513409 = -16						; size = 4
__$EHRec$ = -12						; size = 12
__Vptr$ = 8						; size = 4
__Ptr$ = 8						; size = 4
__Val$ = 12						; size = 4
??$_Construct@UFishingItemGrade@@ABU1@@std@@YAXPAUFishingItemGrade@@ABU1@@Z PROC ; std::_Construct<FishingItemGrade,FishingItemGrade const &>, COMDAT

; 46   : 	{	// construct object at _Ptr with value _Val

  00000	6a 04		 push	 4
  00002	b8 00 00 00 00	 mov	 eax, __ehhandler$??$_Construct@UFishingItemGrade@@ABU1@@std@@YAXPAUFishingItemGrade@@ABU1@@Z
  00007	e8 00 00 00 00	 call	 __EH_prolog3

; 47   : 	void _FARQ *_Vptr = _Ptr;

  0000c	8b 4d 08	 mov	 ecx, DWORD PTR __Ptr$[ebp]
  0000f	89 4d 08	 mov	 DWORD PTR __Vptr$[ebp], ecx

; 48   : 	::new (_Vptr) _Ty1(_STD forward<_Ty2>(_Val));

  00012	89 4d f0	 mov	 DWORD PTR $T513409[ebp], ecx
  00015	83 65 fc 00	 and	 DWORD PTR __$EHRec$[ebp+8], 0
  00019	85 c9		 test	 ecx, ecx
  0001b	74 08		 je	 SHORT $LN3@Construct@2
  0001d	ff 75 0c	 push	 DWORD PTR __Val$[ebp]
  00020	e8 00 00 00 00	 call	 ??0FishingItemGrade@@QAE@ABU0@@Z
$LN3@Construct@2:

; 49   : 	}

  00025	e8 00 00 00 00	 call	 __EH_epilog3
  0002a	c3		 ret	 0
_TEXT	ENDS
;	COMDAT text$x
text$x	SEGMENT
__unwindfunclet$??$_Construct@UFishingItemGrade@@ABU1@@std@@YAXPAUFishingItemGrade@@ABU1@@Z$0:
  00000	ff 75 08	 push	 DWORD PTR __Vptr$[ebp]
  00003	ff 75 f0	 push	 DWORD PTR $T513409[ebp]
  00006	e8 00 00 00 00	 call	 ??3@YAXPAX0@Z		; operator delete
  0000b	59		 pop	 ecx
  0000c	59		 pop	 ecx
  0000d	c3		 ret	 0
__ehhandler$??$_Construct@UFishingItemGrade@@ABU1@@std@@YAXPAUFishingItemGrade@@ABU1@@Z:
  0000e	8b 54 24 08	 mov	 edx, DWORD PTR [esp+8]
  00012	8d 42 0c	 lea	 eax, DWORD PTR [edx+12]
  00015	8b 4a ec	 mov	 ecx, DWORD PTR [edx-20]
  00018	33 c8		 xor	 ecx, eax
  0001a	e8 00 00 00 00	 call	 @__security_check_cookie@4
  0001f	b8 00 00 00 00	 mov	 eax, OFFSET __ehfuncinfo$??$_Construct@UFishingItemGrade@@ABU1@@std@@YAXPAUFishingItemGrade@@ABU1@@Z
  00024	e9 00 00 00 00	 jmp	 ___CxxFrameHandler3
text$x	ENDS
??$_Construct@UFishingItemGrade@@ABU1@@std@@YAXPAUFishingItemGrade@@ABU1@@Z ENDP ; std::_Construct<FishingItemGrade,FishingItemGrade const &>
PUBLIC	??$_Construct@UFishingTypeInfo@@ABU1@@std@@YAXPAUFishingTypeInfo@@ABU1@@Z ; std::_Construct<FishingTypeInfo,FishingTypeInfo const &>
;	COMDAT xdata$x
; File c:\program files (x86)\microsoft visual studio 10.0\vc\include\utility
xdata$x	SEGMENT
__unwindtable$??$_Construct@UFishingTypeInfo@@ABU1@@std@@YAXPAUFishingTypeInfo@@ABU1@@Z DD 0ffffffffH
	DD	FLAT:__unwindfunclet$??$_Construct@UFishingTypeInfo@@ABU1@@std@@YAXPAUFishingTypeInfo@@ABU1@@Z$0
__ehfuncinfo$??$_Construct@UFishingTypeInfo@@ABU1@@std@@YAXPAUFishingTypeInfo@@ABU1@@Z DD 019930522H
	DD	01H
	DD	FLAT:__unwindtable$??$_Construct@UFishingTypeInfo@@ABU1@@std@@YAXPAUFishingTypeInfo@@ABU1@@Z
	DD	2 DUP(00H)
	DD	2 DUP(00H)
	DD	00H
	DD	01H
; Function compile flags: /Ogsp
; File c:\program files (x86)\microsoft visual studio 10.0\vc\include\xmemory
xdata$x	ENDS
;	COMDAT ??$_Construct@UFishingTypeInfo@@ABU1@@std@@YAXPAUFishingTypeInfo@@ABU1@@Z
_TEXT	SEGMENT
$T513428 = -16						; size = 4
__$EHRec$ = -12						; size = 12
__Vptr$ = 8						; size = 4
__Ptr$ = 8						; size = 4
__Val$ = 12						; size = 4
??$_Construct@UFishingTypeInfo@@ABU1@@std@@YAXPAUFishingTypeInfo@@ABU1@@Z PROC ; std::_Construct<FishingTypeInfo,FishingTypeInfo const &>, COMDAT

; 46   : 	{	// construct object at _Ptr with value _Val

  00000	6a 04		 push	 4
  00002	b8 00 00 00 00	 mov	 eax, __ehhandler$??$_Construct@UFishingTypeInfo@@ABU1@@std@@YAXPAUFishingTypeInfo@@ABU1@@Z
  00007	e8 00 00 00 00	 call	 __EH_prolog3

; 47   : 	void _FARQ *_Vptr = _Ptr;

  0000c	8b 4d 08	 mov	 ecx, DWORD PTR __Ptr$[ebp]
  0000f	89 4d 08	 mov	 DWORD PTR __Vptr$[ebp], ecx

; 48   : 	::new (_Vptr) _Ty1(_STD forward<_Ty2>(_Val));

  00012	89 4d f0	 mov	 DWORD PTR $T513428[ebp], ecx
  00015	83 65 fc 00	 and	 DWORD PTR __$EHRec$[ebp+8], 0
  00019	85 c9		 test	 ecx, ecx
  0001b	74 08		 je	 SHORT $LN3@Construct@3
  0001d	ff 75 0c	 push	 DWORD PTR __Val$[ebp]
  00020	e8 00 00 00 00	 call	 ??0FishingTypeInfo@@QAE@ABU0@@Z
$LN3@Construct@3:

; 49   : 	}

  00025	e8 00 00 00 00	 call	 __EH_epilog3
  0002a	c3		 ret	 0
_TEXT	ENDS
;	COMDAT text$x
text$x	SEGMENT
__unwindfunclet$??$_Construct@UFishingTypeInfo@@ABU1@@std@@YAXPAUFishingTypeInfo@@ABU1@@Z$0:
  00000	ff 75 08	 push	 DWORD PTR __Vptr$[ebp]
  00003	ff 75 f0	 push	 DWORD PTR $T513428[ebp]
  00006	e8 00 00 00 00	 call	 ??3@YAXPAX0@Z		; operator delete
  0000b	59		 pop	 ecx
  0000c	59		 pop	 ecx
  0000d	c3		 ret	 0
__ehhandler$??$_Construct@UFishingTypeInfo@@ABU1@@std@@YAXPAUFishingTypeInfo@@ABU1@@Z:
  0000e	8b 54 24 08	 mov	 edx, DWORD PTR [esp+8]
  00012	8d 42 0c	 lea	 eax, DWORD PTR [edx+12]
  00015	8b 4a ec	 mov	 ecx, DWORD PTR [edx-20]
  00018	33 c8		 xor	 ecx, eax
  0001a	e8 00 00 00 00	 call	 @__security_check_cookie@4
  0001f	b8 00 00 00 00	 mov	 eax, OFFSET __ehfuncinfo$??$_Construct@UFishingTypeInfo@@ABU1@@std@@YAXPAUFishingTypeInfo@@ABU1@@Z
  00024	e9 00 00 00 00	 jmp	 ___CxxFrameHandler3
text$x	ENDS
??$_Construct@UFishingTypeInfo@@ABU1@@std@@YAXPAUFishingTypeInfo@@ABU1@@Z ENDP ; std::_Construct<FishingTypeInfo,FishingTypeInfo const &>
PUBLIC	??$_Destroy@UFishingItem@@@std@@YAXPAUFishingItem@@@Z ; std::_Destroy<FishingItem>
; Function compile flags: /Ogsp
;	COMDAT ??$_Destroy@UFishingItem@@@std@@YAXPAUFishingItem@@@Z
_TEXT	SEGMENT
__Ptr$ = 8						; size = 4
??$_Destroy@UFishingItem@@@std@@YAXPAUFishingItem@@@Z PROC ; std::_Destroy<FishingItem>, COMDAT

; 62   : 	{	// destroy object at _Ptr

  00000	55		 push	 ebp
  00001	8b ec		 mov	 ebp, esp

; 63   : 	_Ptr->~_Ty();

  00003	8b 4d 08	 mov	 ecx, DWORD PTR __Ptr$[ebp]

; 64   : 	}

  00006	5d		 pop	 ebp

; 63   : 	_Ptr->~_Ty();

  00007	e9 00 00 00 00	 jmp	 ??1FishingItem@@QAE@XZ
??$_Destroy@UFishingItem@@@std@@YAXPAUFishingItem@@@Z ENDP ; std::_Destroy<FishingItem>
_TEXT	ENDS
PUBLIC	??$_Destroy@UFishingItemGrade@@@std@@YAXPAUFishingItemGrade@@@Z ; std::_Destroy<FishingItemGrade>
; Function compile flags: /Ogsp
;	COMDAT ??$_Destroy@UFishingItemGrade@@@std@@YAXPAUFishingItemGrade@@@Z
_TEXT	SEGMENT
__Ptr$ = 8						; size = 4
??$_Destroy@UFishingItemGrade@@@std@@YAXPAUFishingItemGrade@@@Z PROC ; std::_Destroy<FishingItemGrade>, COMDAT

; 62   : 	{	// destroy object at _Ptr

  00000	55		 push	 ebp
  00001	8b ec		 mov	 ebp, esp

; 63   : 	_Ptr->~_Ty();

  00003	8b 4d 08	 mov	 ecx, DWORD PTR __Ptr$[ebp]

; 64   : 	}

  00006	5d		 pop	 ebp

; 63   : 	_Ptr->~_Ty();

  00007	e9 00 00 00 00	 jmp	 ??1FishingItemGrade@@QAE@XZ
??$_Destroy@UFishingItemGrade@@@std@@YAXPAUFishingItemGrade@@@Z ENDP ; std::_Destroy<FishingItemGrade>
_TEXT	ENDS
PUBLIC	??$_Destroy@UFishingTypeInfo@@@std@@YAXPAUFishingTypeInfo@@@Z ; std::_Destroy<FishingTypeInfo>
; Function compile flags: /Ogsp
;	COMDAT ??$_Destroy@UFishingTypeInfo@@@std@@YAXPAUFishingTypeInfo@@@Z
_TEXT	SEGMENT
__Ptr$ = 8						; size = 4
??$_Destroy@UFishingTypeInfo@@@std@@YAXPAUFishingTypeInfo@@@Z PROC ; std::_Destroy<FishingTypeInfo>, COMDAT

; 62   : 	{	// destroy object at _Ptr

  00000	55		 push	 ebp
  00001	8b ec		 mov	 ebp, esp

; 63   : 	_Ptr->~_Ty();

  00003	8b 4d 08	 mov	 ecx, DWORD PTR __Ptr$[ebp]

; 64   : 	}

  00006	5d		 pop	 ebp

; 63   : 	_Ptr->~_Ty();

  00007	e9 00 00 00 00	 jmp	 ??1FishingTypeInfo@@QAE@XZ
??$_Destroy@UFishingTypeInfo@@@std@@YAXPAUFishingTypeInfo@@@Z ENDP ; std::_Destroy<FishingTypeInfo>
_TEXT	ENDS
PUBLIC	?construct@?$allocator@UFishingItem@@@std@@QAEXPAUFishingItem@@$$QAU3@@Z ; std::allocator<FishingItem>::construct
;	COMDAT xdata$x
; File c:\program files (x86)\microsoft visual studio 10.0\vc\include\utility
xdata$x	SEGMENT
__unwindtable$?construct@?$allocator@UFishingItem@@@std@@QAEXPAUFishingItem@@$$QAU3@@Z DD 0ffffffffH
	DD	FLAT:__unwindfunclet$?construct@?$allocator@UFishingItem@@@std@@QAEXPAUFishingItem@@$$QAU3@@Z$0
__ehfuncinfo$?construct@?$allocator@UFishingItem@@@std@@QAEXPAUFishingItem@@$$QAU3@@Z DD 019930522H
	DD	01H
	DD	FLAT:__unwindtable$?construct@?$allocator@UFishingItem@@@std@@QAEXPAUFishingItem@@$$QAU3@@Z
	DD	2 DUP(00H)
	DD	2 DUP(00H)
	DD	00H
	DD	01H
; Function compile flags: /Ogsp
; File c:\program files (x86)\microsoft visual studio 10.0\vc\include\xmemory
xdata$x	ENDS
;	COMDAT ?construct@?$allocator@UFishingItem@@@std@@QAEXPAUFishingItem@@$$QAU3@@Z
_TEXT	SEGMENT
$T513471 = -16						; size = 4
__$EHRec$ = -12						; size = 12
__Ptr$ = 8						; size = 4
__Val$ = 12						; size = 4
?construct@?$allocator@UFishingItem@@@std@@QAEXPAUFishingItem@@$$QAU3@@Z PROC ; std::allocator<FishingItem>::construct, COMDAT
; _this$ = ecx

; 201  : 		{	// construct object at _Ptr with value _Val

  00000	6a 04		 push	 4
  00002	b8 00 00 00 00	 mov	 eax, __ehhandler$?construct@?$allocator@UFishingItem@@@std@@QAEXPAUFishingItem@@$$QAU3@@Z
  00007	e8 00 00 00 00	 call	 __EH_prolog3

; 202  : 		::new ((void _FARQ *)_Ptr) _Ty(_STD forward<_Ty>(_Val));

  0000c	8b 4d 08	 mov	 ecx, DWORD PTR __Ptr$[ebp]
  0000f	89 4d f0	 mov	 DWORD PTR $T513471[ebp], ecx
  00012	83 65 fc 00	 and	 DWORD PTR __$EHRec$[ebp+8], 0
  00016	85 c9		 test	 ecx, ecx
  00018	74 08		 je	 SHORT $LN3@construct@4
  0001a	ff 75 0c	 push	 DWORD PTR __Val$[ebp]
  0001d	e8 00 00 00 00	 call	 ??0FishingItem@@QAE@ABU0@@Z
$LN3@construct@4:

; 203  : 		}

  00022	e8 00 00 00 00	 call	 __EH_epilog3
  00027	c2 08 00	 ret	 8
_TEXT	ENDS
;	COMDAT text$x
text$x	SEGMENT
__unwindfunclet$?construct@?$allocator@UFishingItem@@@std@@QAEXPAUFishingItem@@$$QAU3@@Z$0:
  00000	ff 75 08	 push	 DWORD PTR __Ptr$[ebp]
  00003	ff 75 f0	 push	 DWORD PTR $T513471[ebp]
  00006	e8 00 00 00 00	 call	 ??3@YAXPAX0@Z		; operator delete
  0000b	59		 pop	 ecx
  0000c	59		 pop	 ecx
  0000d	c3		 ret	 0
__ehhandler$?construct@?$allocator@UFishingItem@@@std@@QAEXPAUFishingItem@@$$QAU3@@Z:
  0000e	8b 54 24 08	 mov	 edx, DWORD PTR [esp+8]
  00012	8d 42 0c	 lea	 eax, DWORD PTR [edx+12]
  00015	8b 4a ec	 mov	 ecx, DWORD PTR [edx-20]
  00018	33 c8		 xor	 ecx, eax
  0001a	e8 00 00 00 00	 call	 @__security_check_cookie@4
  0001f	b8 00 00 00 00	 mov	 eax, OFFSET __ehfuncinfo$?construct@?$allocator@UFishingItem@@@std@@QAEXPAUFishingItem@@$$QAU3@@Z
  00024	e9 00 00 00 00	 jmp	 ___CxxFrameHandler3
text$x	ENDS
?construct@?$allocator@UFishingItem@@@std@@QAEXPAUFishingItem@@$$QAU3@@Z ENDP ; std::allocator<FishingItem>::construct
PUBLIC	?construct@?$allocator@UFishingItemGrade@@@std@@QAEXPAUFishingItemGrade@@$$QAU3@@Z ; std::allocator<FishingItemGrade>::construct
;	COMDAT xdata$x
; File c:\program files (x86)\microsoft visual studio 10.0\vc\include\utility
xdata$x	SEGMENT
__unwindtable$?construct@?$allocator@UFishingItemGrade@@@std@@QAEXPAUFishingItemGrade@@$$QAU3@@Z DD 0ffffffffH
	DD	FLAT:__unwindfunclet$?construct@?$allocator@UFishingItemGrade@@@std@@QAEXPAUFishingItemGrade@@$$QAU3@@Z$0
__ehfuncinfo$?construct@?$allocator@UFishingItemGrade@@@std@@QAEXPAUFishingItemGrade@@$$QAU3@@Z DD 019930522H
	DD	01H
	DD	FLAT:__unwindtable$?construct@?$allocator@UFishingItemGrade@@@std@@QAEXPAUFishingItemGrade@@$$QAU3@@Z
	DD	2 DUP(00H)
	DD	2 DUP(00H)
	DD	00H
	DD	01H
; Function compile flags: /Ogsp
; File c:\program files (x86)\microsoft visual studio 10.0\vc\include\xmemory
xdata$x	ENDS
;	COMDAT ?construct@?$allocator@UFishingItemGrade@@@std@@QAEXPAUFishingItemGrade@@$$QAU3@@Z
_TEXT	SEGMENT
$T513490 = -16						; size = 4
__$EHRec$ = -12						; size = 12
__Ptr$ = 8						; size = 4
__Val$ = 12						; size = 4
?construct@?$allocator@UFishingItemGrade@@@std@@QAEXPAUFishingItemGrade@@$$QAU3@@Z PROC ; std::allocator<FishingItemGrade>::construct, COMDAT
; _this$ = ecx

; 201  : 		{	// construct object at _Ptr with value _Val

  00000	6a 04		 push	 4
  00002	b8 00 00 00 00	 mov	 eax, __ehhandler$?construct@?$allocator@UFishingItemGrade@@@std@@QAEXPAUFishingItemGrade@@$$QAU3@@Z
  00007	e8 00 00 00 00	 call	 __EH_prolog3

; 202  : 		::new ((void _FARQ *)_Ptr) _Ty(_STD forward<_Ty>(_Val));

  0000c	8b 4d 08	 mov	 ecx, DWORD PTR __Ptr$[ebp]
  0000f	89 4d f0	 mov	 DWORD PTR $T513490[ebp], ecx
  00012	83 65 fc 00	 and	 DWORD PTR __$EHRec$[ebp+8], 0
  00016	85 c9		 test	 ecx, ecx
  00018	74 08		 je	 SHORT $LN3@construct@5
  0001a	ff 75 0c	 push	 DWORD PTR __Val$[ebp]
  0001d	e8 00 00 00 00	 call	 ??0FishingItemGrade@@QAE@ABU0@@Z
$LN3@construct@5:

; 203  : 		}

  00022	e8 00 00 00 00	 call	 __EH_epilog3
  00027	c2 08 00	 ret	 8
_TEXT	ENDS
;	COMDAT text$x
text$x	SEGMENT
__unwindfunclet$?construct@?$allocator@UFishingItemGrade@@@std@@QAEXPAUFishingItemGrade@@$$QAU3@@Z$0:
  00000	ff 75 08	 push	 DWORD PTR __Ptr$[ebp]
  00003	ff 75 f0	 push	 DWORD PTR $T513490[ebp]
  00006	e8 00 00 00 00	 call	 ??3@YAXPAX0@Z		; operator delete
  0000b	59		 pop	 ecx
  0000c	59		 pop	 ecx
  0000d	c3		 ret	 0
__ehhandler$?construct@?$allocator@UFishingItemGrade@@@std@@QAEXPAUFishingItemGrade@@$$QAU3@@Z:
  0000e	8b 54 24 08	 mov	 edx, DWORD PTR [esp+8]
  00012	8d 42 0c	 lea	 eax, DWORD PTR [edx+12]
  00015	8b 4a ec	 mov	 ecx, DWORD PTR [edx-20]
  00018	33 c8		 xor	 ecx, eax
  0001a	e8 00 00 00 00	 call	 @__security_check_cookie@4
  0001f	b8 00 00 00 00	 mov	 eax, OFFSET __ehfuncinfo$?construct@?$allocator@UFishingItemGrade@@@std@@QAEXPAUFishingItemGrade@@$$QAU3@@Z
  00024	e9 00 00 00 00	 jmp	 ___CxxFrameHandler3
text$x	ENDS
?construct@?$allocator@UFishingItemGrade@@@std@@QAEXPAUFishingItemGrade@@$$QAU3@@Z ENDP ; std::allocator<FishingItemGrade>::construct
PUBLIC	?construct@?$allocator@UFishingTypeInfo@@@std@@QAEXPAUFishingTypeInfo@@$$QAU3@@Z ; std::allocator<FishingTypeInfo>::construct
;	COMDAT xdata$x
; File c:\program files (x86)\microsoft visual studio 10.0\vc\include\utility
xdata$x	SEGMENT
__unwindtable$?construct@?$allocator@UFishingTypeInfo@@@std@@QAEXPAUFishingTypeInfo@@$$QAU3@@Z DD 0ffffffffH
	DD	FLAT:__unwindfunclet$?construct@?$allocator@UFishingTypeInfo@@@std@@QAEXPAUFishingTypeInfo@@$$QAU3@@Z$0
__ehfuncinfo$?construct@?$allocator@UFishingTypeInfo@@@std@@QAEXPAUFishingTypeInfo@@$$QAU3@@Z DD 019930522H
	DD	01H
	DD	FLAT:__unwindtable$?construct@?$allocator@UFishingTypeInfo@@@std@@QAEXPAUFishingTypeInfo@@$$QAU3@@Z
	DD	2 DUP(00H)
	DD	2 DUP(00H)
	DD	00H
	DD	01H
; Function compile flags: /Ogsp
; File c:\program files (x86)\microsoft visual studio 10.0\vc\include\xmemory
xdata$x	ENDS
;	COMDAT ?construct@?$allocator@UFishingTypeInfo@@@std@@QAEXPAUFishingTypeInfo@@$$QAU3@@Z
_TEXT	SEGMENT
$T513509 = -16						; size = 4
__$EHRec$ = -12						; size = 12
__Ptr$ = 8						; size = 4
__Val$ = 12						; size = 4
?construct@?$allocator@UFishingTypeInfo@@@std@@QAEXPAUFishingTypeInfo@@$$QAU3@@Z PROC ; std::allocator<FishingTypeInfo>::construct, COMDAT
; _this$ = ecx

; 201  : 		{	// construct object at _Ptr with value _Val

  00000	6a 04		 push	 4
  00002	b8 00 00 00 00	 mov	 eax, __ehhandler$?construct@?$allocator@UFishingTypeInfo@@@std@@QAEXPAUFishingTypeInfo@@$$QAU3@@Z
  00007	e8 00 00 00 00	 call	 __EH_prolog3

; 202  : 		::new ((void _FARQ *)_Ptr) _Ty(_STD forward<_Ty>(_Val));

  0000c	8b 4d 08	 mov	 ecx, DWORD PTR __Ptr$[ebp]
  0000f	89 4d f0	 mov	 DWORD PTR $T513509[ebp], ecx
  00012	83 65 fc 00	 and	 DWORD PTR __$EHRec$[ebp+8], 0
  00016	85 c9		 test	 ecx, ecx
  00018	74 08		 je	 SHORT $LN3@construct@6
  0001a	ff 75 0c	 push	 DWORD PTR __Val$[ebp]
  0001d	e8 00 00 00 00	 call	 ??0FishingTypeInfo@@QAE@ABU0@@Z
$LN3@construct@6:

; 203  : 		}

  00022	e8 00 00 00 00	 call	 __EH_epilog3
  00027	c2 08 00	 ret	 8
_TEXT	ENDS
;	COMDAT text$x
text$x	SEGMENT
__unwindfunclet$?construct@?$allocator@UFishingTypeInfo@@@std@@QAEXPAUFishingTypeInfo@@$$QAU3@@Z$0:
  00000	ff 75 08	 push	 DWORD PTR __Ptr$[ebp]
  00003	ff 75 f0	 push	 DWORD PTR $T513509[ebp]
  00006	e8 00 00 00 00	 call	 ??3@YAXPAX0@Z		; operator delete
  0000b	59		 pop	 ecx
  0000c	59		 pop	 ecx
  0000d	c3		 ret	 0
__ehhandler$?construct@?$allocator@UFishingTypeInfo@@@std@@QAEXPAUFishingTypeInfo@@$$QAU3@@Z:
  0000e	8b 54 24 08	 mov	 edx, DWORD PTR [esp+8]
  00012	8d 42 0c	 lea	 eax, DWORD PTR [edx+12]
  00015	8b 4a ec	 mov	 ecx, DWORD PTR [edx-20]
  00018	33 c8		 xor	 ecx, eax
  0001a	e8 00 00 00 00	 call	 @__security_check_cookie@4
  0001f	b8 00 00 00 00	 mov	 eax, OFFSET __ehfuncinfo$?construct@?$allocator@UFishingTypeInfo@@@std@@QAEXPAUFishingTypeInfo@@$$QAU3@@Z
  00024	e9 00 00 00 00	 jmp	 ___CxxFrameHandler3
text$x	ENDS
?construct@?$allocator@UFishingTypeInfo@@@std@@QAEXPAUFishingTypeInfo@@$$QAU3@@Z ENDP ; std::allocator<FishingTypeInfo>::construct
PUBLIC	??0?$vector@UFishingItem@@V?$allocator@UFishingItem@@@std@@@std@@QAE@XZ ; std::vector<FishingItem,std::allocator<FishingItem> >::vector<FishingItem,std::allocator<FishingItem> >
; Function compile flags: /Ogsp
; File c:\program files (x86)\microsoft visual studio 10.0\vc\include\vector
;	COMDAT ??0?$vector@UFishingItem@@V?$allocator@UFishingItem@@@std@@@std@@QAE@XZ
_TEXT	SEGMENT
??0?$vector@UFishingItem@@V?$allocator@UFishingItem@@@std@@@std@@QAE@XZ PROC ; std::vector<FishingItem,std::allocator<FishingItem> >::vector<FishingItem,std::allocator<FishingItem> >, COMDAT
; _this$ = ecx

; 507  : 		{	// construct empty vector

  00000	8b c1		 mov	 eax, ecx
  00002	33 c9		 xor	 ecx, ecx
  00004	89 08		 mov	 DWORD PTR [eax], ecx
  00006	89 48 04	 mov	 DWORD PTR [eax+4], ecx
  00009	89 48 08	 mov	 DWORD PTR [eax+8], ecx

; 508  : 		}

  0000c	c3		 ret	 0
??0?$vector@UFishingItem@@V?$allocator@UFishingItem@@@std@@@std@@QAE@XZ ENDP ; std::vector<FishingItem,std::allocator<FishingItem> >::vector<FishingItem,std::allocator<FishingItem> >
_TEXT	ENDS
PUBLIC	?begin@?$vector@UFishingItem@@V?$allocator@UFishingItem@@@std@@@std@@QAE?AV?$_Vector_iterator@V?$_Vector_val@UFishingItem@@V?$allocator@UFishingItem@@@std@@@std@@@2@XZ ; std::vector<FishingItem,std::allocator<FishingItem> >::begin
; Function compile flags: /Ogsp
;	COMDAT ?begin@?$vector@UFishingItem@@V?$allocator@UFishingItem@@@std@@@std@@QAE?AV?$_Vector_iterator@V?$_Vector_val@UFishingItem@@V?$allocator@UFishingItem@@@std@@@std@@@2@XZ
_TEXT	SEGMENT
___$ReturnUdt$ = 8					; size = 4
?begin@?$vector@UFishingItem@@V?$allocator@UFishingItem@@@std@@@std@@QAE?AV?$_Vector_iterator@V?$_Vector_val@UFishingItem@@V?$allocator@UFishingItem@@@std@@@std@@@2@XZ PROC ; std::vector<FishingItem,std::allocator<FishingItem> >::begin, COMDAT
; _this$ = ecx

; 781  : 		{	// return iterator for beginning of mutable sequence

  00000	55		 push	 ebp
  00001	8b ec		 mov	 ebp, esp

; 782  : 		return (iterator(this->_Myfirst, this));

  00003	8b 09		 mov	 ecx, DWORD PTR [ecx]
  00005	8b 45 08	 mov	 eax, DWORD PTR ___$ReturnUdt$[ebp]
  00008	89 08		 mov	 DWORD PTR [eax], ecx

; 783  : 		}

  0000a	5d		 pop	 ebp
  0000b	c2 04 00	 ret	 4
?begin@?$vector@UFishingItem@@V?$allocator@UFishingItem@@@std@@@std@@QAE?AV?$_Vector_iterator@V?$_Vector_val@UFishingItem@@V?$allocator@UFishingItem@@@std@@@std@@@2@XZ ENDP ; std::vector<FishingItem,std::allocator<FishingItem> >::begin
_TEXT	ENDS
PUBLIC	?end@?$vector@UFishingItem@@V?$allocator@UFishingItem@@@std@@@std@@QAE?AV?$_Vector_iterator@V?$_Vector_val@UFishingItem@@V?$allocator@UFishingItem@@@std@@@std@@@2@XZ ; std::vector<FishingItem,std::allocator<FishingItem> >::end
; Function compile flags: /Ogsp
;	COMDAT ?end@?$vector@UFishingItem@@V?$allocator@UFishingItem@@@std@@@std@@QAE?AV?$_Vector_iterator@V?$_Vector_val@UFishingItem@@V?$allocator@UFishingItem@@@std@@@std@@@2@XZ
_TEXT	SEGMENT
___$ReturnUdt$ = 8					; size = 4
?end@?$vector@UFishingItem@@V?$allocator@UFishingItem@@@std@@@std@@QAE?AV?$_Vector_iterator@V?$_Vector_val@UFishingItem@@V?$allocator@UFishingItem@@@std@@@std@@@2@XZ PROC ; std::vector<FishingItem,std::allocator<FishingItem> >::end, COMDAT
; _this$ = ecx

; 791  : 		{	// return iterator for end of mutable sequence

  00000	55		 push	 ebp
  00001	8b ec		 mov	 ebp, esp

; 792  : 		return (iterator(this->_Mylast, this));

  00003	8b 49 04	 mov	 ecx, DWORD PTR [ecx+4]
  00006	8b 45 08	 mov	 eax, DWORD PTR ___$ReturnUdt$[ebp]
  00009	89 08		 mov	 DWORD PTR [eax], ecx

; 793  : 		}

  0000b	5d		 pop	 ebp
  0000c	c2 04 00	 ret	 4
?end@?$vector@UFishingItem@@V?$allocator@UFishingItem@@@std@@@std@@QAE?AV?$_Vector_iterator@V?$_Vector_val@UFishingItem@@V?$allocator@UFishingItem@@@std@@@std@@@2@XZ ENDP ; std::vector<FishingItem,std::allocator<FishingItem> >::end
_TEXT	ENDS
PUBLIC	??0?$vector@UFishingItemGrade@@V?$allocator@UFishingItemGrade@@@std@@@std@@QAE@XZ ; std::vector<FishingItemGrade,std::allocator<FishingItemGrade> >::vector<FishingItemGrade,std::allocator<FishingItemGrade> >
; Function compile flags: /Ogsp
;	COMDAT ??0?$vector@UFishingItemGrade@@V?$allocator@UFishingItemGrade@@@std@@@std@@QAE@XZ
_TEXT	SEGMENT
??0?$vector@UFishingItemGrade@@V?$allocator@UFishingItemGrade@@@std@@@std@@QAE@XZ PROC ; std::vector<FishingItemGrade,std::allocator<FishingItemGrade> >::vector<FishingItemGrade,std::allocator<FishingItemGrade> >, COMDAT
; _this$ = ecx

; 507  : 		{	// construct empty vector

  00000	8b c1		 mov	 eax, ecx
  00002	33 c9		 xor	 ecx, ecx
  00004	89 08		 mov	 DWORD PTR [eax], ecx
  00006	89 48 04	 mov	 DWORD PTR [eax+4], ecx
  00009	89 48 08	 mov	 DWORD PTR [eax+8], ecx

; 508  : 		}

  0000c	c3		 ret	 0
??0?$vector@UFishingItemGrade@@V?$allocator@UFishingItemGrade@@@std@@@std@@QAE@XZ ENDP ; std::vector<FishingItemGrade,std::allocator<FishingItemGrade> >::vector<FishingItemGrade,std::allocator<FishingItemGrade> >
_TEXT	ENDS
PUBLIC	??0?$vector@UFishingTypeInfo@@V?$allocator@UFishingTypeInfo@@@std@@@std@@QAE@XZ ; std::vector<FishingTypeInfo,std::allocator<FishingTypeInfo> >::vector<FishingTypeInfo,std::allocator<FishingTypeInfo> >
; Function compile flags: /Ogsp
;	COMDAT ??0?$vector@UFishingTypeInfo@@V?$allocator@UFishingTypeInfo@@@std@@@std@@QAE@XZ
_TEXT	SEGMENT
??0?$vector@UFishingTypeInfo@@V?$allocator@UFishingTypeInfo@@@std@@@std@@QAE@XZ PROC ; std::vector<FishingTypeInfo,std::allocator<FishingTypeInfo> >::vector<FishingTypeInfo,std::allocator<FishingTypeInfo> >, COMDAT
; _this$ = ecx

; 507  : 		{	// construct empty vector

  00000	8b c1		 mov	 eax, ecx
  00002	33 c9		 xor	 ecx, ecx
  00004	89 08		 mov	 DWORD PTR [eax], ecx
  00006	89 48 04	 mov	 DWORD PTR [eax+4], ecx
  00009	89 48 08	 mov	 DWORD PTR [eax+8], ecx

; 508  : 		}

  0000c	c3		 ret	 0
??0?$vector@UFishingTypeInfo@@V?$allocator@UFishingTypeInfo@@@std@@@std@@QAE@XZ ENDP ; std::vector<FishingTypeInfo,std::allocator<FishingTypeInfo> >::vector<FishingTypeInfo,std::allocator<FishingTypeInfo> >
_TEXT	ENDS
PUBLIC	??9?$_Vector_const_iterator@V?$_Vector_val@UFishingItem@@V?$allocator@UFishingItem@@@std@@@std@@@std@@QBE_NABV01@@Z ; std::_Vector_const_iterator<std::_Vector_val<FishingItem,std::allocator<FishingItem> > >::operator!=
; Function compile flags: /Ogsp
;	COMDAT ??9?$_Vector_const_iterator@V?$_Vector_val@UFishingItem@@V?$allocator@UFishingItem@@@std@@@std@@@std@@QBE_NABV01@@Z
_TEXT	SEGMENT
__Right$ = 8						; size = 4
??9?$_Vector_const_iterator@V?$_Vector_val@UFishingItem@@V?$allocator@UFishingItem@@@std@@@std@@@std@@QBE_NABV01@@Z PROC ; std::_Vector_const_iterator<std::_Vector_val<FishingItem,std::allocator<FishingItem> > >::operator!=, COMDAT
; _this$ = ecx

; 207  : 		{	// test for iterator inequality

  00000	55		 push	 ebp
  00001	8b ec		 mov	 ebp, esp

; 208  : 		return (!(*this == _Right));

  00003	8b 01		 mov	 eax, DWORD PTR [ecx]
  00005	8b 55 08	 mov	 edx, DWORD PTR __Right$[ebp]
  00008	33 c9		 xor	 ecx, ecx
  0000a	3b 02		 cmp	 eax, DWORD PTR [edx]
  0000c	0f 95 c0	 setne	 al

; 209  : 		}

  0000f	5d		 pop	 ebp
  00010	c2 04 00	 ret	 4
??9?$_Vector_const_iterator@V?$_Vector_val@UFishingItem@@V?$allocator@UFishingItem@@@std@@@std@@@std@@QBE_NABV01@@Z ENDP ; std::_Vector_const_iterator<std::_Vector_val<FishingItem,std::allocator<FishingItem> > >::operator!=
_TEXT	ENDS
PUBLIC	?begin@?$vector@UFishingItemGrade@@V?$allocator@UFishingItemGrade@@@std@@@std@@QAE?AV?$_Vector_iterator@V?$_Vector_val@UFishingItemGrade@@V?$allocator@UFishingItemGrade@@@std@@@std@@@2@XZ ; std::vector<FishingItemGrade,std::allocator<FishingItemGrade> >::begin
; Function compile flags: /Ogsp
;	COMDAT ?begin@?$vector@UFishingItemGrade@@V?$allocator@UFishingItemGrade@@@std@@@std@@QAE?AV?$_Vector_iterator@V?$_Vector_val@UFishingItemGrade@@V?$allocator@UFishingItemGrade@@@std@@@std@@@2@XZ
_TEXT	SEGMENT
___$ReturnUdt$ = 8					; size = 4
?begin@?$vector@UFishingItemGrade@@V?$allocator@UFishingItemGrade@@@std@@@std@@QAE?AV?$_Vector_iterator@V?$_Vector_val@UFishingItemGrade@@V?$allocator@UFishingItemGrade@@@std@@@std@@@2@XZ PROC ; std::vector<FishingItemGrade,std::allocator<FishingItemGrade> >::begin, COMDAT
; _this$ = ecx

; 781  : 		{	// return iterator for beginning of mutable sequence

  00000	55		 push	 ebp
  00001	8b ec		 mov	 ebp, esp

; 782  : 		return (iterator(this->_Myfirst, this));

  00003	8b 09		 mov	 ecx, DWORD PTR [ecx]
  00005	8b 45 08	 mov	 eax, DWORD PTR ___$ReturnUdt$[ebp]
  00008	89 08		 mov	 DWORD PTR [eax], ecx

; 783  : 		}

  0000a	5d		 pop	 ebp
  0000b	c2 04 00	 ret	 4
?begin@?$vector@UFishingItemGrade@@V?$allocator@UFishingItemGrade@@@std@@@std@@QAE?AV?$_Vector_iterator@V?$_Vector_val@UFishingItemGrade@@V?$allocator@UFishingItemGrade@@@std@@@std@@@2@XZ ENDP ; std::vector<FishingItemGrade,std::allocator<FishingItemGrade> >::begin
_TEXT	ENDS
PUBLIC	?end@?$vector@UFishingItemGrade@@V?$allocator@UFishingItemGrade@@@std@@@std@@QAE?AV?$_Vector_iterator@V?$_Vector_val@UFishingItemGrade@@V?$allocator@UFishingItemGrade@@@std@@@std@@@2@XZ ; std::vector<FishingItemGrade,std::allocator<FishingItemGrade> >::end
; Function compile flags: /Ogsp
;	COMDAT ?end@?$vector@UFishingItemGrade@@V?$allocator@UFishingItemGrade@@@std@@@std@@QAE?AV?$_Vector_iterator@V?$_Vector_val@UFishingItemGrade@@V?$allocator@UFishingItemGrade@@@std@@@std@@@2@XZ
_TEXT	SEGMENT
___$ReturnUdt$ = 8					; size = 4
?end@?$vector@UFishingItemGrade@@V?$allocator@UFishingItemGrade@@@std@@@std@@QAE?AV?$_Vector_iterator@V?$_Vector_val@UFishingItemGrade@@V?$allocator@UFishingItemGrade@@@std@@@std@@@2@XZ PROC ; std::vector<FishingItemGrade,std::allocator<FishingItemGrade> >::end, COMDAT
; _this$ = ecx

; 791  : 		{	// return iterator for end of mutable sequence

  00000	55		 push	 ebp
  00001	8b ec		 mov	 ebp, esp

; 792  : 		return (iterator(this->_Mylast, this));

  00003	8b 49 04	 mov	 ecx, DWORD PTR [ecx+4]
  00006	8b 45 08	 mov	 eax, DWORD PTR ___$ReturnUdt$[ebp]
  00009	89 08		 mov	 DWORD PTR [eax], ecx

; 793  : 		}

  0000b	5d		 pop	 ebp
  0000c	c2 04 00	 ret	 4
?end@?$vector@UFishingItemGrade@@V?$allocator@UFishingItemGrade@@@std@@@std@@QAE?AV?$_Vector_iterator@V?$_Vector_val@UFishingItemGrade@@V?$allocator@UFishingItemGrade@@@std@@@std@@@2@XZ ENDP ; std::vector<FishingItemGrade,std::allocator<FishingItemGrade> >::end
_TEXT	ENDS
PUBLIC	?begin@?$vector@UFishingTypeInfo@@V?$allocator@UFishingTypeInfo@@@std@@@std@@QAE?AV?$_Vector_iterator@V?$_Vector_val@UFishingTypeInfo@@V?$allocator@UFishingTypeInfo@@@std@@@std@@@2@XZ ; std::vector<FishingTypeInfo,std::allocator<FishingTypeInfo> >::begin
; Function compile flags: /Ogsp
;	COMDAT ?begin@?$vector@UFishingTypeInfo@@V?$allocator@UFishingTypeInfo@@@std@@@std@@QAE?AV?$_Vector_iterator@V?$_Vector_val@UFishingTypeInfo@@V?$allocator@UFishingTypeInfo@@@std@@@std@@@2@XZ
_TEXT	SEGMENT
___$ReturnUdt$ = 8					; size = 4
?begin@?$vector@UFishingTypeInfo@@V?$allocator@UFishingTypeInfo@@@std@@@std@@QAE?AV?$_Vector_iterator@V?$_Vector_val@UFishingTypeInfo@@V?$allocator@UFishingTypeInfo@@@std@@@std@@@2@XZ PROC ; std::vector<FishingTypeInfo,std::allocator<FishingTypeInfo> >::begin, COMDAT
; _this$ = ecx

; 781  : 		{	// return iterator for beginning of mutable sequence

  00000	55		 push	 ebp
  00001	8b ec		 mov	 ebp, esp

; 782  : 		return (iterator(this->_Myfirst, this));

  00003	8b 09		 mov	 ecx, DWORD PTR [ecx]
  00005	8b 45 08	 mov	 eax, DWORD PTR ___$ReturnUdt$[ebp]
  00008	89 08		 mov	 DWORD PTR [eax], ecx

; 783  : 		}

  0000a	5d		 pop	 ebp
  0000b	c2 04 00	 ret	 4
?begin@?$vector@UFishingTypeInfo@@V?$allocator@UFishingTypeInfo@@@std@@@std@@QAE?AV?$_Vector_iterator@V?$_Vector_val@UFishingTypeInfo@@V?$allocator@UFishingTypeInfo@@@std@@@std@@@2@XZ ENDP ; std::vector<FishingTypeInfo,std::allocator<FishingTypeInfo> >::begin
_TEXT	ENDS
PUBLIC	?end@?$vector@UFishingTypeInfo@@V?$allocator@UFishingTypeInfo@@@std@@@std@@QAE?AV?$_Vector_iterator@V?$_Vector_val@UFishingTypeInfo@@V?$allocator@UFishingTypeInfo@@@std@@@std@@@2@XZ ; std::vector<FishingTypeInfo,std::allocator<FishingTypeInfo> >::end
; Function compile flags: /Ogsp
;	COMDAT ?end@?$vector@UFishingTypeInfo@@V?$allocator@UFishingTypeInfo@@@std@@@std@@QAE?AV?$_Vector_iterator@V?$_Vector_val@UFishingTypeInfo@@V?$allocator@UFishingTypeInfo@@@std@@@std@@@2@XZ
_TEXT	SEGMENT
___$ReturnUdt$ = 8					; size = 4
?end@?$vector@UFishingTypeInfo@@V?$allocator@UFishingTypeInfo@@@std@@@std@@QAE?AV?$_Vector_iterator@V?$_Vector_val@UFishingTypeInfo@@V?$allocator@UFishingTypeInfo@@@std@@@std@@@2@XZ PROC ; std::vector<FishingTypeInfo,std::allocator<FishingTypeInfo> >::end, COMDAT
; _this$ = ecx

; 791  : 		{	// return iterator for end of mutable sequence

  00000	55		 push	 ebp
  00001	8b ec		 mov	 ebp, esp

; 792  : 		return (iterator(this->_Mylast, this));

  00003	8b 49 04	 mov	 ecx, DWORD PTR [ecx+4]
  00006	8b 45 08	 mov	 eax, DWORD PTR ___$ReturnUdt$[ebp]
  00009	89 08		 mov	 DWORD PTR [eax], ecx

; 793  : 		}

  0000b	5d		 pop	 ebp
  0000c	c2 04 00	 ret	 4
?end@?$vector@UFishingTypeInfo@@V?$allocator@UFishingTypeInfo@@@std@@@std@@QAE?AV?$_Vector_iterator@V?$_Vector_val@UFishingTypeInfo@@V?$allocator@UFishingTypeInfo@@@std@@@std@@@2@XZ ENDP ; std::vector<FishingTypeInfo,std::allocator<FishingTypeInfo> >::end
_TEXT	ENDS
PUBLIC	?_Make_iter@?$vector@UFishingItemGrade@@V?$allocator@UFishingItemGrade@@@std@@@std@@QBE?AV?$_Vector_iterator@V?$_Vector_val@UFishingItemGrade@@V?$allocator@UFishingItemGrade@@@std@@@std@@@2@V?$_Vector_const_iterator@V?$_Vector_val@UFishingItemGrade@@V?$allocator@UFishingItemGrade@@@std@@@std@@@2@@Z ; std::vector<FishingItemGrade,std::allocator<FishingItemGrade> >::_Make_iter
; Function compile flags: /Ogsp
;	COMDAT ?_Make_iter@?$vector@UFishingItemGrade@@V?$allocator@UFishingItemGrade@@@std@@@std@@QBE?AV?$_Vector_iterator@V?$_Vector_val@UFishingItemGrade@@V?$allocator@UFishingItemGrade@@@std@@@std@@@2@V?$_Vector_const_iterator@V?$_Vector_val@UFishingItemGrade@@V?$allocator@UFishingItemGrade@@@std@@@std@@@2@@Z
_TEXT	SEGMENT
___$ReturnUdt$ = 8					; size = 4
__Where$ = 12						; size = 4
?_Make_iter@?$vector@UFishingItemGrade@@V?$allocator@UFishingItemGrade@@@std@@@std@@QBE?AV?$_Vector_iterator@V?$_Vector_val@UFishingItemGrade@@V?$allocator@UFishingItemGrade@@@std@@@std@@@2@V?$_Vector_const_iterator@V?$_Vector_val@UFishingItemGrade@@V?$allocator@UFishingItemGrade@@@std@@@std@@@2@@Z PROC ; std::vector<FishingItemGrade,std::allocator<FishingItemGrade> >::_Make_iter, COMDAT
; _this$ = ecx

; 801  : 		{	// make iterator from const_iterator

  00000	55		 push	 ebp
  00001	8b ec		 mov	 ebp, esp

; 802  : 		return (iterator(_Where._Ptr, this));

  00003	8b 45 08	 mov	 eax, DWORD PTR ___$ReturnUdt$[ebp]
  00006	8b 4d 0c	 mov	 ecx, DWORD PTR __Where$[ebp]
  00009	89 08		 mov	 DWORD PTR [eax], ecx

; 803  : 		}

  0000b	5d		 pop	 ebp
  0000c	c2 08 00	 ret	 8
?_Make_iter@?$vector@UFishingItemGrade@@V?$allocator@UFishingItemGrade@@@std@@@std@@QBE?AV?$_Vector_iterator@V?$_Vector_val@UFishingItemGrade@@V?$allocator@UFishingItemGrade@@@std@@@std@@@2@V?$_Vector_const_iterator@V?$_Vector_val@UFishingItemGrade@@V?$allocator@UFishingItemGrade@@@std@@@std@@@2@@Z ENDP ; std::vector<FishingItemGrade,std::allocator<FishingItemGrade> >::_Make_iter
_TEXT	ENDS
PUBLIC	?_Make_iter@?$vector@UFishingTypeInfo@@V?$allocator@UFishingTypeInfo@@@std@@@std@@QBE?AV?$_Vector_iterator@V?$_Vector_val@UFishingTypeInfo@@V?$allocator@UFishingTypeInfo@@@std@@@std@@@2@V?$_Vector_const_iterator@V?$_Vector_val@UFishingTypeInfo@@V?$allocator@UFishingTypeInfo@@@std@@@std@@@2@@Z ; std::vector<FishingTypeInfo,std::allocator<FishingTypeInfo> >::_Make_iter
; Function compile flags: /Ogsp
;	COMDAT ?_Make_iter@?$vector@UFishingTypeInfo@@V?$allocator@UFishingTypeInfo@@@std@@@std@@QBE?AV?$_Vector_iterator@V?$_Vector_val@UFishingTypeInfo@@V?$allocator@UFishingTypeInfo@@@std@@@std@@@2@V?$_Vector_const_iterator@V?$_Vector_val@UFishingTypeInfo@@V?$allocator@UFishingTypeInfo@@@std@@@std@@@2@@Z
_TEXT	SEGMENT
___$ReturnUdt$ = 8					; size = 4
__Where$ = 12						; size = 4
?_Make_iter@?$vector@UFishingTypeInfo@@V?$allocator@UFishingTypeInfo@@@std@@@std@@QBE?AV?$_Vector_iterator@V?$_Vector_val@UFishingTypeInfo@@V?$allocator@UFishingTypeInfo@@@std@@@std@@@2@V?$_Vector_const_iterator@V?$_Vector_val@UFishingTypeInfo@@V?$allocator@UFishingTypeInfo@@@std@@@std@@@2@@Z PROC ; std::vector<FishingTypeInfo,std::allocator<FishingTypeInfo> >::_Make_iter, COMDAT
; _this$ = ecx

; 801  : 		{	// make iterator from const_iterator

  00000	55		 push	 ebp
  00001	8b ec		 mov	 ebp, esp

; 802  : 		return (iterator(_Where._Ptr, this));

  00003	8b 45 08	 mov	 eax, DWORD PTR ___$ReturnUdt$[ebp]
  00006	8b 4d 0c	 mov	 ecx, DWORD PTR __Where$[ebp]
  00009	89 08		 mov	 DWORD PTR [eax], ecx

; 803  : 		}

  0000b	5d		 pop	 ebp
  0000c	c2 08 00	 ret	 8
?_Make_iter@?$vector@UFishingTypeInfo@@V?$allocator@UFishingTypeInfo@@@std@@@std@@QBE?AV?$_Vector_iterator@V?$_Vector_val@UFishingTypeInfo@@V?$allocator@UFishingTypeInfo@@@std@@@std@@@2@V?$_Vector_const_iterator@V?$_Vector_val@UFishingTypeInfo@@V?$allocator@UFishingTypeInfo@@@std@@@std@@@2@@Z ENDP ; std::vector<FishingTypeInfo,std::allocator<FishingTypeInfo> >::_Make_iter
_TEXT	ENDS
PUBLIC	??9?$_Vector_const_iterator@V?$_Vector_val@UFishingItemGrade@@V?$allocator@UFishingItemGrade@@@std@@@std@@@std@@QBE_NABV01@@Z ; std::_Vector_const_iterator<std::_Vector_val<FishingItemGrade,std::allocator<FishingItemGrade> > >::operator!=
; Function compile flags: /Ogsp
;	COMDAT ??9?$_Vector_const_iterator@V?$_Vector_val@UFishingItemGrade@@V?$allocator@UFishingItemGrade@@@std@@@std@@@std@@QBE_NABV01@@Z
_TEXT	SEGMENT
__Right$ = 8						; size = 4
??9?$_Vector_const_iterator@V?$_Vector_val@UFishingItemGrade@@V?$allocator@UFishingItemGrade@@@std@@@std@@@std@@QBE_NABV01@@Z PROC ; std::_Vector_const_iterator<std::_Vector_val<FishingItemGrade,std::allocator<FishingItemGrade> > >::operator!=, COMDAT
; _this$ = ecx

; 207  : 		{	// test for iterator inequality

  00000	55		 push	 ebp
  00001	8b ec		 mov	 ebp, esp

; 208  : 		return (!(*this == _Right));

  00003	8b 01		 mov	 eax, DWORD PTR [ecx]
  00005	8b 55 08	 mov	 edx, DWORD PTR __Right$[ebp]
  00008	33 c9		 xor	 ecx, ecx
  0000a	3b 02		 cmp	 eax, DWORD PTR [edx]
  0000c	0f 95 c0	 setne	 al

; 209  : 		}

  0000f	5d		 pop	 ebp
  00010	c2 04 00	 ret	 4
??9?$_Vector_const_iterator@V?$_Vector_val@UFishingItemGrade@@V?$allocator@UFishingItemGrade@@@std@@@std@@@std@@QBE_NABV01@@Z ENDP ; std::_Vector_const_iterator<std::_Vector_val<FishingItemGrade,std::allocator<FishingItemGrade> > >::operator!=
_TEXT	ENDS
PUBLIC	??9?$_Vector_const_iterator@V?$_Vector_val@UFishingTypeInfo@@V?$allocator@UFishingTypeInfo@@@std@@@std@@@std@@QBE_NABV01@@Z ; std::_Vector_const_iterator<std::_Vector_val<FishingTypeInfo,std::allocator<FishingTypeInfo> > >::operator!=
; Function compile flags: /Ogsp
;	COMDAT ??9?$_Vector_const_iterator@V?$_Vector_val@UFishingTypeInfo@@V?$allocator@UFishingTypeInfo@@@std@@@std@@@std@@QBE_NABV01@@Z
_TEXT	SEGMENT
__Right$ = 8						; size = 4
??9?$_Vector_const_iterator@V?$_Vector_val@UFishingTypeInfo@@V?$allocator@UFishingTypeInfo@@@std@@@std@@@std@@QBE_NABV01@@Z PROC ; std::_Vector_const_iterator<std::_Vector_val<FishingTypeInfo,std::allocator<FishingTypeInfo> > >::operator!=, COMDAT
; _this$ = ecx

; 207  : 		{	// test for iterator inequality

  00000	55		 push	 ebp
  00001	8b ec		 mov	 ebp, esp

; 208  : 		return (!(*this == _Right));

  00003	8b 01		 mov	 eax, DWORD PTR [ecx]
  00005	8b 55 08	 mov	 edx, DWORD PTR __Right$[ebp]
  00008	33 c9		 xor	 ecx, ecx
  0000a	3b 02		 cmp	 eax, DWORD PTR [edx]
  0000c	0f 95 c0	 setne	 al

; 209  : 		}

  0000f	5d		 pop	 ebp
  00010	c2 04 00	 ret	 4
??9?$_Vector_const_iterator@V?$_Vector_val@UFishingTypeInfo@@V?$allocator@UFishingTypeInfo@@@std@@@std@@@std@@QBE_NABV01@@Z ENDP ; std::_Vector_const_iterator<std::_Vector_val<FishingTypeInfo,std::allocator<FishingTypeInfo> > >::operator!=
_TEXT	ENDS
PUBLIC	??$?0$0BM@@ioINILoader_e@@QAE@AAY0BM@$$CBD_N@Z	; ioINILoader_e::ioINILoader_e<28>
EXTRN	__imp_??0ioINILoader@@QAE@PBD_N@Z:PROC
; Function compile flags: /Ogsp
; File d:\lost saga for developer\youtube\tutorial\source\src\io3dengine\ioiniloader.h
;	COMDAT ??$?0$0BM@@ioINILoader_e@@QAE@AAY0BM@$$CBD_N@Z
_TEXT	SEGMENT
_fn$ = 8						; size = 4
_b$ = 12						; size = 1
??$?0$0BM@@ioINILoader_e@@QAE@AAY0BM@$$CBD_N@Z PROC	; ioINILoader_e::ioINILoader_e<28>, COMDAT
; _this$ = ecx

; 224  : 	{

  00000	55		 push	 ebp
  00001	8b ec		 mov	 ebp, esp
  00003	53		 push	 ebx
  00004	56		 push	 esi
  00005	57		 push	 edi
  00006	8b f9		 mov	 edi, ecx
  00008	8b 4d 08	 mov	 ecx, DWORD PTR _fn$[ebp]
  0000b	8a 11		 mov	 dl, BYTE PTR [ecx]
  0000d	8d 87 50 03 00
	00		 lea	 eax, DWORD PTR [edi+848]
  00013	84 d2		 test	 dl, dl
  00015	0f 84 6a 04 00
	00		 je	 $LN99@ioINILoade
  0001b	80 f2 ed	 xor	 dl, -19			; ffffffedH
  0001e	88 10		 mov	 BYTE PTR [eax], dl
  00020	8a 51 01	 mov	 dl, BYTE PTR [ecx+1]
  00023	84 d2		 test	 dl, dl
  00025	0f 84 54 04 00
	00		 je	 $LN98@ioINILoade
  0002b	80 f2 ec	 xor	 dl, -20			; ffffffecH
  0002e	88 50 01	 mov	 BYTE PTR [eax+1], dl
  00031	8a 51 02	 mov	 dl, BYTE PTR [ecx+2]
  00034	84 d2		 test	 dl, dl
  00036	0f 84 3d 04 00
	00		 je	 $LN97@ioINILoade
  0003c	b3 eb		 mov	 bl, -21			; ffffffebH
  0003e	32 d3		 xor	 dl, bl
  00040	88 50 02	 mov	 BYTE PTR [eax+2], dl
  00043	8a 51 03	 mov	 dl, BYTE PTR [ecx+3]
  00046	84 d2		 test	 dl, dl
  00048	0f 84 25 04 00
	00		 je	 $LN96@ioINILoade
  0004e	80 f2 ea	 xor	 dl, -22			; ffffffeaH
  00051	88 50 03	 mov	 BYTE PTR [eax+3], dl
  00054	8a 51 04	 mov	 dl, BYTE PTR [ecx+4]
  00057	84 d2		 test	 dl, dl
  00059	0f 84 0e 04 00
	00		 je	 $LN95@ioINILoade
  0005f	80 f2 ed	 xor	 dl, -19			; ffffffedH
  00062	88 50 04	 mov	 BYTE PTR [eax+4], dl
  00065	8a 51 05	 mov	 dl, BYTE PTR [ecx+5]
  00068	84 d2		 test	 dl, dl
  0006a	0f 84 f7 03 00
	00		 je	 $LN94@ioINILoade
  00070	80 f2 ec	 xor	 dl, -20			; ffffffecH
  00073	88 50 05	 mov	 BYTE PTR [eax+5], dl
  00076	8a 51 06	 mov	 dl, BYTE PTR [ecx+6]
  00079	84 d2		 test	 dl, dl
  0007b	0f 84 e1 03 00
	00		 je	 $LN93@ioINILoade
  00081	32 d3		 xor	 dl, bl
  00083	88 50 06	 mov	 BYTE PTR [eax+6], dl
  00086	8a 51 07	 mov	 dl, BYTE PTR [ecx+7]
  00089	84 d2		 test	 dl, dl
  0008b	0f 84 cb 03 00
	00		 je	 $LN92@ioINILoade
  00091	80 f2 ea	 xor	 dl, -22			; ffffffeaH
  00094	88 50 07	 mov	 BYTE PTR [eax+7], dl
  00097	8a 51 08	 mov	 dl, BYTE PTR [ecx+8]
  0009a	84 d2		 test	 dl, dl
  0009c	0f 84 b4 03 00
	00		 je	 $LN91@ioINILoade
  000a2	80 f2 ed	 xor	 dl, -19			; ffffffedH
  000a5	88 50 08	 mov	 BYTE PTR [eax+8], dl
  000a8	8a 51 09	 mov	 dl, BYTE PTR [ecx+9]
  000ab	84 d2		 test	 dl, dl
  000ad	0f 84 9d 03 00
	00		 je	 $LN90@ioINILoade
  000b3	80 f2 ec	 xor	 dl, -20			; ffffffecH
  000b6	88 50 09	 mov	 BYTE PTR [eax+9], dl
  000b9	8a 51 0a	 mov	 dl, BYTE PTR [ecx+10]
  000bc	84 d2		 test	 dl, dl
  000be	0f 84 87 03 00
	00		 je	 $LN89@ioINILoade
  000c4	32 d3		 xor	 dl, bl
  000c6	88 50 0a	 mov	 BYTE PTR [eax+10], dl
  000c9	8a 51 0b	 mov	 dl, BYTE PTR [ecx+11]
  000cc	84 d2		 test	 dl, dl
  000ce	0f 84 71 03 00
	00		 je	 $LN88@ioINILoade
  000d4	80 f2 ea	 xor	 dl, -22			; ffffffeaH
  000d7	88 50 0b	 mov	 BYTE PTR [eax+11], dl
  000da	8a 51 0c	 mov	 dl, BYTE PTR [ecx+12]
  000dd	84 d2		 test	 dl, dl
  000df	0f 84 5a 03 00
	00		 je	 $LN87@ioINILoade
  000e5	80 f2 ed	 xor	 dl, -19			; ffffffedH
  000e8	88 50 0c	 mov	 BYTE PTR [eax+12], dl
  000eb	8a 51 0d	 mov	 dl, BYTE PTR [ecx+13]
  000ee	84 d2		 test	 dl, dl
  000f0	0f 84 43 03 00
	00		 je	 $LN86@ioINILoade
  000f6	80 f2 ec	 xor	 dl, -20			; ffffffecH
  000f9	88 50 0d	 mov	 BYTE PTR [eax+13], dl
  000fc	8a 51 0e	 mov	 dl, BYTE PTR [ecx+14]
  000ff	84 d2		 test	 dl, dl
  00101	0f 84 2d 03 00
	00		 je	 $LN85@ioINILoade
  00107	32 d3		 xor	 dl, bl
  00109	88 50 0e	 mov	 BYTE PTR [eax+14], dl
  0010c	8a 51 0f	 mov	 dl, BYTE PTR [ecx+15]
  0010f	84 d2		 test	 dl, dl
  00111	0f 84 17 03 00
	00		 je	 $LN84@ioINILoade
  00117	80 f2 ea	 xor	 dl, -22			; ffffffeaH
  0011a	88 50 0f	 mov	 BYTE PTR [eax+15], dl
  0011d	8a 51 10	 mov	 dl, BYTE PTR [ecx+16]
  00120	84 d2		 test	 dl, dl
  00122	0f 84 00 03 00
	00		 je	 $LN83@ioINILoade
  00128	80 f2 ed	 xor	 dl, -19			; ffffffedH
  0012b	88 50 10	 mov	 BYTE PTR [eax+16], dl
  0012e	8a 51 11	 mov	 dl, BYTE PTR [ecx+17]
  00131	84 d2		 test	 dl, dl
  00133	0f 84 e9 02 00
	00		 je	 $LN82@ioINILoade
  00139	80 f2 ec	 xor	 dl, -20			; ffffffecH
  0013c	88 50 11	 mov	 BYTE PTR [eax+17], dl
  0013f	8a 51 12	 mov	 dl, BYTE PTR [ecx+18]
  00142	84 d2		 test	 dl, dl
  00144	0f 84 d3 02 00
	00		 je	 $LN81@ioINILoade
  0014a	32 d3		 xor	 dl, bl
  0014c	88 50 12	 mov	 BYTE PTR [eax+18], dl
  0014f	8a 51 13	 mov	 dl, BYTE PTR [ecx+19]
  00152	84 d2		 test	 dl, dl
  00154	0f 84 bd 02 00
	00		 je	 $LN80@ioINILoade
  0015a	80 f2 ea	 xor	 dl, -22			; ffffffeaH
  0015d	88 50 13	 mov	 BYTE PTR [eax+19], dl
  00160	8a 51 14	 mov	 dl, BYTE PTR [ecx+20]
  00163	84 d2		 test	 dl, dl
  00165	0f 84 a6 02 00
	00		 je	 $LN79@ioINILoade
  0016b	80 f2 ed	 xor	 dl, -19			; ffffffedH
  0016e	88 50 14	 mov	 BYTE PTR [eax+20], dl
  00171	8a 51 15	 mov	 dl, BYTE PTR [ecx+21]
  00174	84 d2		 test	 dl, dl
  00176	0f 84 8f 02 00
	00		 je	 $LN78@ioINILoade
  0017c	80 f2 ec	 xor	 dl, -20			; ffffffecH
  0017f	88 50 15	 mov	 BYTE PTR [eax+21], dl
  00182	8a 51 16	 mov	 dl, BYTE PTR [ecx+22]
  00185	84 d2		 test	 dl, dl
  00187	0f 84 79 02 00
	00		 je	 $LN77@ioINILoade
  0018d	32 d3		 xor	 dl, bl
  0018f	88 50 16	 mov	 BYTE PTR [eax+22], dl
  00192	8a 51 17	 mov	 dl, BYTE PTR [ecx+23]
  00195	84 d2		 test	 dl, dl
  00197	0f 84 60 02 00
	00		 je	 $LN76@ioINILoade
  0019d	80 f2 ea	 xor	 dl, -22			; ffffffeaH
  001a0	88 50 17	 mov	 BYTE PTR [eax+23], dl
  001a3	8a 51 18	 mov	 dl, BYTE PTR [ecx+24]
  001a6	84 d2		 test	 dl, dl
  001a8	0f 84 46 02 00
	00		 je	 $LN75@ioINILoade
  001ae	80 f2 ed	 xor	 dl, -19			; ffffffedH
  001b1	88 50 18	 mov	 BYTE PTR [eax+24], dl
  001b4	8a 51 19	 mov	 dl, BYTE PTR [ecx+25]
  001b7	84 d2		 test	 dl, dl
  001b9	0f 84 2c 02 00
	00		 je	 $LN74@ioINILoade
  001bf	80 f2 ec	 xor	 dl, -20			; ffffffecH
  001c2	88 50 19	 mov	 BYTE PTR [eax+25], dl
  001c5	8a 51 1a	 mov	 dl, BYTE PTR [ecx+26]
  001c8	84 d2		 test	 dl, dl
  001ca	0f 84 13 02 00
	00		 je	 $LN73@ioINILoade
  001d0	32 d3		 xor	 dl, bl
  001d2	88 50 1a	 mov	 BYTE PTR [eax+26], dl
  001d5	8a 51 1b	 mov	 dl, BYTE PTR [ecx+27]
  001d8	84 d2		 test	 dl, dl
  001da	0f 84 fa 01 00
	00		 je	 $LN72@ioINILoade
  001e0	80 f2 ea	 xor	 dl, -22			; ffffffeaH
  001e3	88 50 1b	 mov	 BYTE PTR [eax+27], dl
  001e6	8a 51 1c	 mov	 dl, BYTE PTR [ecx+28]
  001e9	84 d2		 test	 dl, dl
  001eb	0f 84 e0 01 00
	00		 je	 $LN71@ioINILoade
  001f1	80 f2 ed	 xor	 dl, -19			; ffffffedH
  001f4	88 50 1c	 mov	 BYTE PTR [eax+28], dl
  001f7	8a 51 1d	 mov	 dl, BYTE PTR [ecx+29]
  001fa	84 d2		 test	 dl, dl
  001fc	0f 84 c6 01 00
	00		 je	 $LN70@ioINILoade
  00202	80 f2 ec	 xor	 dl, -20			; ffffffecH
  00205	88 50 1d	 mov	 BYTE PTR [eax+29], dl
  00208	8a 51 1e	 mov	 dl, BYTE PTR [ecx+30]
  0020b	84 d2		 test	 dl, dl
  0020d	0f 84 ad 01 00
	00		 je	 $LN69@ioINILoade
  00213	32 d3		 xor	 dl, bl
  00215	88 50 1e	 mov	 BYTE PTR [eax+30], dl
  00218	8a 51 1f	 mov	 dl, BYTE PTR [ecx+31]
  0021b	84 d2		 test	 dl, dl
  0021d	0f 84 94 01 00
	00		 je	 $LN68@ioINILoade
  00223	80 f2 ea	 xor	 dl, -22			; ffffffeaH
  00226	88 50 1f	 mov	 BYTE PTR [eax+31], dl
  00229	8a 51 20	 mov	 dl, BYTE PTR [ecx+32]
  0022c	84 d2		 test	 dl, dl
  0022e	0f 84 7a 01 00
	00		 je	 $LN67@ioINILoade
  00234	80 f2 ed	 xor	 dl, -19			; ffffffedH
  00237	88 50 20	 mov	 BYTE PTR [eax+32], dl
  0023a	8a 51 21	 mov	 dl, BYTE PTR [ecx+33]
  0023d	84 d2		 test	 dl, dl
  0023f	0f 84 60 01 00
	00		 je	 $LN66@ioINILoade
  00245	80 f2 ec	 xor	 dl, -20			; ffffffecH
  00248	88 50 21	 mov	 BYTE PTR [eax+33], dl
  0024b	8a 51 22	 mov	 dl, BYTE PTR [ecx+34]
  0024e	84 d2		 test	 dl, dl
  00250	0f 84 47 01 00
	00		 je	 $LN65@ioINILoade
  00256	32 d3		 xor	 dl, bl
  00258	88 50 22	 mov	 BYTE PTR [eax+34], dl
  0025b	8a 51 23	 mov	 dl, BYTE PTR [ecx+35]
  0025e	84 d2		 test	 dl, dl
  00260	0f 84 2e 01 00
	00		 je	 $LN64@ioINILoade
  00266	80 f2 ea	 xor	 dl, -22			; ffffffeaH
  00269	88 50 23	 mov	 BYTE PTR [eax+35], dl
  0026c	8a 51 24	 mov	 dl, BYTE PTR [ecx+36]
  0026f	84 d2		 test	 dl, dl
  00271	0f 84 14 01 00
	00		 je	 $LN63@ioINILoade
  00277	80 f2 ed	 xor	 dl, -19			; ffffffedH
  0027a	88 50 24	 mov	 BYTE PTR [eax+36], dl
  0027d	8a 51 25	 mov	 dl, BYTE PTR [ecx+37]
  00280	84 d2		 test	 dl, dl
  00282	0f 84 fa 00 00
	00		 je	 $LN62@ioINILoade
  00288	80 f2 ec	 xor	 dl, -20			; ffffffecH
  0028b	88 50 25	 mov	 BYTE PTR [eax+37], dl
  0028e	8a 51 26	 mov	 dl, BYTE PTR [ecx+38]
  00291	84 d2		 test	 dl, dl
  00293	0f 84 e1 00 00
	00		 je	 $LN61@ioINILoade
  00299	32 d3		 xor	 dl, bl
  0029b	88 50 26	 mov	 BYTE PTR [eax+38], dl
  0029e	8a 51 27	 mov	 dl, BYTE PTR [ecx+39]
  002a1	84 d2		 test	 dl, dl
  002a3	0f 84 c8 00 00
	00		 je	 $LN60@ioINILoade
  002a9	80 f2 ea	 xor	 dl, -22			; ffffffeaH
  002ac	88 50 27	 mov	 BYTE PTR [eax+39], dl
  002af	8a 51 28	 mov	 dl, BYTE PTR [ecx+40]
  002b2	84 d2		 test	 dl, dl
  002b4	0f 84 ae 00 00
	00		 je	 $LN59@ioINILoade
  002ba	80 f2 ed	 xor	 dl, -19			; ffffffedH
  002bd	88 50 28	 mov	 BYTE PTR [eax+40], dl
  002c0	8a 51 29	 mov	 dl, BYTE PTR [ecx+41]
  002c3	84 d2		 test	 dl, dl
  002c5	0f 84 94 00 00
	00		 je	 $LN58@ioINILoade
  002cb	80 f2 ec	 xor	 dl, -20			; ffffffecH
  002ce	88 50 29	 mov	 BYTE PTR [eax+41], dl
  002d1	8a 51 2a	 mov	 dl, BYTE PTR [ecx+42]
  002d4	84 d2		 test	 dl, dl
  002d6	74 7f		 je	 SHORT $LN57@ioINILoade
  002d8	32 d3		 xor	 dl, bl
  002da	88 50 2a	 mov	 BYTE PTR [eax+42], dl
  002dd	8a 51 2b	 mov	 dl, BYTE PTR [ecx+43]
  002e0	84 d2		 test	 dl, dl
  002e2	74 6a		 je	 SHORT $LN56@ioINILoade
  002e4	80 f2 ea	 xor	 dl, -22			; ffffffeaH
  002e7	88 50 2b	 mov	 BYTE PTR [eax+43], dl
  002ea	8a 51 2c	 mov	 dl, BYTE PTR [ecx+44]
  002ed	84 d2		 test	 dl, dl
  002ef	74 54		 je	 SHORT $LN55@ioINILoade
  002f1	80 f2 ed	 xor	 dl, -19			; ffffffedH
  002f4	88 50 2c	 mov	 BYTE PTR [eax+44], dl
  002f7	8a 51 2d	 mov	 dl, BYTE PTR [ecx+45]
  002fa	84 d2		 test	 dl, dl
  002fc	74 3e		 je	 SHORT $LN54@ioINILoade
  002fe	80 f2 ec	 xor	 dl, -20			; ffffffecH
  00301	88 50 2d	 mov	 BYTE PTR [eax+45], dl
  00304	8a 51 2e	 mov	 dl, BYTE PTR [ecx+46]
  00307	84 d2		 test	 dl, dl
  00309	74 29		 je	 SHORT $LN53@ioINILoade
  0030b	32 d3		 xor	 dl, bl
  0030d	88 50 2e	 mov	 BYTE PTR [eax+46], dl
  00310	8a 51 2f	 mov	 dl, BYTE PTR [ecx+47]
  00313	84 d2		 test	 dl, dl
  00315	74 14		 je	 SHORT $LN52@ioINILoade
  00317	80 f2 ea	 xor	 dl, -22			; ffffffeaH
  0031a	88 50 2f	 mov	 BYTE PTR [eax+47], dl
  0031d	8a 49 30	 mov	 cl, BYTE PTR [ecx+48]
  00320	80 f1 ed	 xor	 cl, -19			; ffffffedH
  00323	88 48 30	 mov	 BYTE PTR [eax+48], cl
  00326	e9 5d 01 00 00	 jmp	 $LN4@ioINILoade
$LN52@ioINILoade:
  0032b	c6 40 2f ea	 mov	 BYTE PTR [eax+47], -22	; ffffffeaH
  0032f	e9 54 01 00 00	 jmp	 $LN4@ioINILoade
$LN53@ioINILoade:
  00334	88 58 2e	 mov	 BYTE PTR [eax+46], bl
  00337	e9 4c 01 00 00	 jmp	 $LN4@ioINILoade
$LN54@ioINILoade:
  0033c	c6 40 2d ec	 mov	 BYTE PTR [eax+45], -20	; ffffffecH
  00340	e9 43 01 00 00	 jmp	 $LN4@ioINILoade
$LN55@ioINILoade:
  00345	c6 40 2c ed	 mov	 BYTE PTR [eax+44], -19	; ffffffedH
  00349	e9 3a 01 00 00	 jmp	 $LN4@ioINILoade
$LN56@ioINILoade:
  0034e	c6 40 2b ea	 mov	 BYTE PTR [eax+43], -22	; ffffffeaH
  00352	e9 31 01 00 00	 jmp	 $LN4@ioINILoade
$LN57@ioINILoade:
  00357	88 58 2a	 mov	 BYTE PTR [eax+42], bl
  0035a	e9 29 01 00 00	 jmp	 $LN4@ioINILoade
$LN58@ioINILoade:
  0035f	c6 40 29 ec	 mov	 BYTE PTR [eax+41], -20	; ffffffecH
  00363	e9 20 01 00 00	 jmp	 $LN4@ioINILoade
$LN59@ioINILoade:
  00368	c6 40 28 ed	 mov	 BYTE PTR [eax+40], -19	; ffffffedH
  0036c	e9 17 01 00 00	 jmp	 $LN4@ioINILoade
$LN60@ioINILoade:
  00371	c6 40 27 ea	 mov	 BYTE PTR [eax+39], -22	; ffffffeaH
  00375	e9 0e 01 00 00	 jmp	 $LN4@ioINILoade
$LN61@ioINILoade:
  0037a	88 58 26	 mov	 BYTE PTR [eax+38], bl
  0037d	e9 06 01 00 00	 jmp	 $LN4@ioINILoade
$LN62@ioINILoade:
  00382	c6 40 25 ec	 mov	 BYTE PTR [eax+37], -20	; ffffffecH
  00386	e9 fd 00 00 00	 jmp	 $LN4@ioINILoade
$LN63@ioINILoade:
  0038b	c6 40 24 ed	 mov	 BYTE PTR [eax+36], -19	; ffffffedH
  0038f	e9 f4 00 00 00	 jmp	 $LN4@ioINILoade
$LN64@ioINILoade:
  00394	c6 40 23 ea	 mov	 BYTE PTR [eax+35], -22	; ffffffeaH
  00398	e9 eb 00 00 00	 jmp	 $LN4@ioINILoade
$LN65@ioINILoade:
  0039d	88 58 22	 mov	 BYTE PTR [eax+34], bl
  003a0	e9 e3 00 00 00	 jmp	 $LN4@ioINILoade
$LN66@ioINILoade:
  003a5	c6 40 21 ec	 mov	 BYTE PTR [eax+33], -20	; ffffffecH
  003a9	e9 da 00 00 00	 jmp	 $LN4@ioINILoade
$LN67@ioINILoade:
  003ae	c6 40 20 ed	 mov	 BYTE PTR [eax+32], -19	; ffffffedH
  003b2	e9 d1 00 00 00	 jmp	 $LN4@ioINILoade
$LN68@ioINILoade:
  003b7	c6 40 1f ea	 mov	 BYTE PTR [eax+31], -22	; ffffffeaH
  003bb	e9 c8 00 00 00	 jmp	 $LN4@ioINILoade
$LN69@ioINILoade:
  003c0	88 58 1e	 mov	 BYTE PTR [eax+30], bl
  003c3	e9 c0 00 00 00	 jmp	 $LN4@ioINILoade
$LN70@ioINILoade:
  003c8	c6 40 1d ec	 mov	 BYTE PTR [eax+29], -20	; ffffffecH
  003cc	e9 b7 00 00 00	 jmp	 $LN4@ioINILoade
$LN71@ioINILoade:
  003d1	c6 40 1c ed	 mov	 BYTE PTR [eax+28], -19	; ffffffedH
  003d5	e9 ae 00 00 00	 jmp	 $LN4@ioINILoade
$LN72@ioINILoade:
  003da	c6 40 1b ea	 mov	 BYTE PTR [eax+27], -22	; ffffffeaH
  003de	e9 a5 00 00 00	 jmp	 $LN4@ioINILoade
$LN73@ioINILoade:
  003e3	88 58 1a	 mov	 BYTE PTR [eax+26], bl
  003e6	e9 9d 00 00 00	 jmp	 $LN4@ioINILoade
$LN74@ioINILoade:
  003eb	c6 40 19 ec	 mov	 BYTE PTR [eax+25], -20	; ffffffecH
  003ef	e9 94 00 00 00	 jmp	 $LN4@ioINILoade
$LN75@ioINILoade:
  003f4	c6 40 18 ed	 mov	 BYTE PTR [eax+24], -19	; ffffffedH
  003f8	e9 8b 00 00 00	 jmp	 $LN4@ioINILoade
$LN76@ioINILoade:
  003fd	c6 40 17 ea	 mov	 BYTE PTR [eax+23], -22	; ffffffeaH
  00401	e9 82 00 00 00	 jmp	 $LN4@ioINILoade
$LN77@ioINILoade:
  00406	88 58 16	 mov	 BYTE PTR [eax+22], bl
  00409	eb 7d		 jmp	 SHORT $LN4@ioINILoade
$LN78@ioINILoade:
  0040b	c6 40 15 ec	 mov	 BYTE PTR [eax+21], -20	; ffffffecH
  0040f	eb 77		 jmp	 SHORT $LN4@ioINILoade
$LN79@ioINILoade:
  00411	c6 40 14 ed	 mov	 BYTE PTR [eax+20], -19	; ffffffedH
  00415	eb 71		 jmp	 SHORT $LN4@ioINILoade
$LN80@ioINILoade:
  00417	c6 40 13 ea	 mov	 BYTE PTR [eax+19], -22	; ffffffeaH
  0041b	eb 6b		 jmp	 SHORT $LN4@ioINILoade
$LN81@ioINILoade:
  0041d	88 58 12	 mov	 BYTE PTR [eax+18], bl
  00420	eb 66		 jmp	 SHORT $LN4@ioINILoade
$LN82@ioINILoade:
  00422	c6 40 11 ec	 mov	 BYTE PTR [eax+17], -20	; ffffffecH
  00426	eb 60		 jmp	 SHORT $LN4@ioINILoade
$LN83@ioINILoade:
  00428	c6 40 10 ed	 mov	 BYTE PTR [eax+16], -19	; ffffffedH
  0042c	eb 5a		 jmp	 SHORT $LN4@ioINILoade
$LN84@ioINILoade:
  0042e	c6 40 0f ea	 mov	 BYTE PTR [eax+15], -22	; ffffffeaH
  00432	eb 54		 jmp	 SHORT $LN4@ioINILoade
$LN85@ioINILoade:
  00434	88 58 0e	 mov	 BYTE PTR [eax+14], bl
  00437	eb 4f		 jmp	 SHORT $LN4@ioINILoade
$LN86@ioINILoade:
  00439	c6 40 0d ec	 mov	 BYTE PTR [eax+13], -20	; ffffffecH
  0043d	eb 49		 jmp	 SHORT $LN4@ioINILoade
$LN87@ioINILoade:
  0043f	c6 40 0c ed	 mov	 BYTE PTR [eax+12], -19	; ffffffedH
  00443	eb 43		 jmp	 SHORT $LN4@ioINILoade
$LN88@ioINILoade:
  00445	c6 40 0b ea	 mov	 BYTE PTR [eax+11], -22	; ffffffeaH
  00449	eb 3d		 jmp	 SHORT $LN4@ioINILoade
$LN89@ioINILoade:
  0044b	88 58 0a	 mov	 BYTE PTR [eax+10], bl
  0044e	eb 38		 jmp	 SHORT $LN4@ioINILoade
$LN90@ioINILoade:
  00450	c6 40 09 ec	 mov	 BYTE PTR [eax+9], -20	; ffffffecH
  00454	eb 32		 jmp	 SHORT $LN4@ioINILoade
$LN91@ioINILoade:
  00456	c6 40 08 ed	 mov	 BYTE PTR [eax+8], -19	; ffffffedH
  0045a	eb 2c		 jmp	 SHORT $LN4@ioINILoade
$LN92@ioINILoade:
  0045c	c6 40 07 ea	 mov	 BYTE PTR [eax+7], -22	; ffffffeaH
  00460	eb 26		 jmp	 SHORT $LN4@ioINILoade
$LN93@ioINILoade:
  00462	88 58 06	 mov	 BYTE PTR [eax+6], bl
  00465	eb 21		 jmp	 SHORT $LN4@ioINILoade
$LN94@ioINILoade:
  00467	c6 40 05 ec	 mov	 BYTE PTR [eax+5], -20	; ffffffecH
  0046b	eb 1b		 jmp	 SHORT $LN4@ioINILoade
$LN95@ioINILoade:
  0046d	c6 40 04 ed	 mov	 BYTE PTR [eax+4], -19	; ffffffedH
  00471	eb 15		 jmp	 SHORT $LN4@ioINILoade
$LN96@ioINILoade:
  00473	c6 40 03 ea	 mov	 BYTE PTR [eax+3], -22	; ffffffeaH
  00477	eb 0f		 jmp	 SHORT $LN4@ioINILoade
$LN97@ioINILoade:
  00479	c6 40 02 eb	 mov	 BYTE PTR [eax+2], -21	; ffffffebH
  0047d	eb 09		 jmp	 SHORT $LN4@ioINILoade
$LN98@ioINILoade:
  0047f	c6 40 01 ec	 mov	 BYTE PTR [eax+1], -20	; ffffffecH
  00483	eb 03		 jmp	 SHORT $LN4@ioINILoade
$LN99@ioINILoade:
  00485	c6 00 ed	 mov	 BYTE PTR [eax], -19	; ffffffedH
$LN4@ioINILoade:
  00488	6a 06		 push	 6
  0048a	8b c8		 mov	 ecx, eax
  0048c	c6 40 1b 00	 mov	 BYTE PTR [eax+27], 0
  00490	5a		 pop	 edx
$LL107@ioINILoade:
  00491	81 31 ed ec eb
	ea		 xor	 DWORD PTR [ecx], -353637139 ; eaebecedH
  00497	83 c1 04	 add	 ecx, 4
  0049a	4a		 dec	 edx
  0049b	75 f4		 jne	 SHORT $LL107@ioINILoade
  0049d	6a 18		 push	 24			; 00000018H
  0049f	5e		 pop	 esi
$LL104@ioINILoade:
  004a0	8b ce		 mov	 ecx, esi
  004a2	81 e1 03 00 00
	80		 and	 ecx, -2147483645	; 80000003H
  004a8	79 05		 jns	 SHORT $LN114@ioINILoade
  004aa	49		 dec	 ecx
  004ab	83 c9 fc	 or	 ecx, -4			; fffffffcH
  004ae	41		 inc	 ecx
$LN114@ioINILoade:
  004af	b2 ed		 mov	 dl, -19			; ffffffedH
  004b1	2a d1		 sub	 dl, cl
  004b3	30 14 06	 xor	 BYTE PTR [esi+eax], dl
  004b6	46		 inc	 esi
  004b7	83 fe 1b	 cmp	 esi, 27			; 0000001bH
  004ba	7c e4		 jl	 SHORT $LL104@ioINILoade
  004bc	ff 75 0c	 push	 DWORD PTR _b$[ebp]
  004bf	8b cf		 mov	 ecx, edi
  004c1	50		 push	 eax
  004c2	ff 15 00 00 00
	00		 call	 DWORD PTR __imp_??0ioINILoader@@QAE@PBD_N@Z

; 225  : 	}

  004c8	8b c7		 mov	 eax, edi
  004ca	5f		 pop	 edi
  004cb	5e		 pop	 esi
  004cc	5b		 pop	 ebx
  004cd	5d		 pop	 ebp
  004ce	c2 08 00	 ret	 8
??$?0$0BM@@ioINILoader_e@@QAE@AAY0BM@$$CBD_N@Z ENDP	; ioINILoader_e::ioINILoader_e<28>
_TEXT	ENDS
PUBLIC	??$_Cons_val@V?$allocator@UFishingItem@@@std@@UFishingItem@@AAU3@@std@@YAXAAV?$allocator@UFishingItem@@@0@PAUFishingItem@@AAU2@@Z ; std::_Cons_val<std::allocator<FishingItem>,FishingItem,FishingItem &>
;	COMDAT xdata$x
; File c:\program files (x86)\microsoft visual studio 10.0\vc\include\utility
xdata$x	SEGMENT
__unwindtable$??$_Cons_val@V?$allocator@UFishingItem@@@std@@UFishingItem@@AAU3@@std@@YAXAAV?$allocator@UFishingItem@@@0@PAUFishingItem@@AAU2@@Z DD 0ffffffffH
	DD	FLAT:__unwindfunclet$??$_Cons_val@V?$allocator@UFishingItem@@@std@@UFishingItem@@AAU3@@std@@YAXAAV?$allocator@UFishingItem@@@0@PAUFishingItem@@AAU2@@Z$0
__ehfuncinfo$??$_Cons_val@V?$allocator@UFishingItem@@@std@@UFishingItem@@AAU3@@std@@YAXAAV?$allocator@UFishingItem@@@0@PAUFishingItem@@AAU2@@Z DD 019930522H
	DD	01H
	DD	FLAT:__unwindtable$??$_Cons_val@V?$allocator@UFishingItem@@@std@@UFishingItem@@AAU3@@std@@YAXAAV?$allocator@UFishingItem@@@0@PAUFishingItem@@AAU2@@Z
	DD	2 DUP(00H)
	DD	2 DUP(00H)
	DD	00H
	DD	01H
; Function compile flags: /Ogsp
; File c:\program files (x86)\microsoft visual studio 10.0\vc\include\xmemory
xdata$x	ENDS
;	COMDAT ??$_Cons_val@V?$allocator@UFishingItem@@@std@@UFishingItem@@AAU3@@std@@YAXAAV?$allocator@UFishingItem@@@0@PAUFishingItem@@AAU2@@Z
_TEXT	SEGMENT
$T513899 = -16						; size = 4
__$EHRec$ = -12						; size = 12
__Alval$ = 8						; size = 4
__Pdest$ = 12						; size = 4
__Src$ = 16						; size = 4
??$_Cons_val@V?$allocator@UFishingItem@@@std@@UFishingItem@@AAU3@@std@@YAXAAV?$allocator@UFishingItem@@@0@PAUFishingItem@@AAU2@@Z PROC ; std::_Cons_val<std::allocator<FishingItem>,FishingItem,FishingItem &>, COMDAT

; 279  : 	{	// construct using allocator

  00000	6a 04		 push	 4
  00002	b8 00 00 00 00	 mov	 eax, __ehhandler$??$_Cons_val@V?$allocator@UFishingItem@@@std@@UFishingItem@@AAU3@@std@@YAXAAV?$allocator@UFishingItem@@@0@PAUFishingItem@@AAU2@@Z
  00007	e8 00 00 00 00	 call	 __EH_prolog3

; 280  : 	_Alval.construct(_Pdest, _STD forward<_Ty2>(_Src));

  0000c	8b 4d 0c	 mov	 ecx, DWORD PTR __Pdest$[ebp]
  0000f	89 4d f0	 mov	 DWORD PTR $T513899[ebp], ecx
  00012	83 65 fc 00	 and	 DWORD PTR __$EHRec$[ebp+8], 0
  00016	85 c9		 test	 ecx, ecx
  00018	74 08		 je	 SHORT $LN7@Cons_val
  0001a	ff 75 10	 push	 DWORD PTR __Src$[ebp]
  0001d	e8 00 00 00 00	 call	 ??0FishingItem@@QAE@ABU0@@Z
$LN7@Cons_val:

; 281  : 	}

  00022	e8 00 00 00 00	 call	 __EH_epilog3
  00027	c3		 ret	 0
_TEXT	ENDS
;	COMDAT text$x
text$x	SEGMENT
__unwindfunclet$??$_Cons_val@V?$allocator@UFishingItem@@@std@@UFishingItem@@AAU3@@std@@YAXAAV?$allocator@UFishingItem@@@0@PAUFishingItem@@AAU2@@Z$0:
  00000	ff 75 0c	 push	 DWORD PTR __Pdest$[ebp]
  00003	ff 75 f0	 push	 DWORD PTR $T513899[ebp]
  00006	e8 00 00 00 00	 call	 ??3@YAXPAX0@Z		; operator delete
  0000b	59		 pop	 ecx
  0000c	59		 pop	 ecx
  0000d	c3		 ret	 0
__ehhandler$??$_Cons_val@V?$allocator@UFishingItem@@@std@@UFishingItem@@AAU3@@std@@YAXAAV?$allocator@UFishingItem@@@0@PAUFishingItem@@AAU2@@Z:
  0000e	8b 54 24 08	 mov	 edx, DWORD PTR [esp+8]
  00012	8d 42 0c	 lea	 eax, DWORD PTR [edx+12]
  00015	8b 4a ec	 mov	 ecx, DWORD PTR [edx-20]
  00018	33 c8		 xor	 ecx, eax
  0001a	e8 00 00 00 00	 call	 @__security_check_cookie@4
  0001f	b8 00 00 00 00	 mov	 eax, OFFSET __ehfuncinfo$??$_Cons_val@V?$allocator@UFishingItem@@@std@@UFishingItem@@AAU3@@std@@YAXAAV?$allocator@UFishingItem@@@0@PAUFishingItem@@AAU2@@Z
  00024	e9 00 00 00 00	 jmp	 ___CxxFrameHandler3
text$x	ENDS
??$_Cons_val@V?$allocator@UFishingItem@@@std@@UFishingItem@@AAU3@@std@@YAXAAV?$allocator@UFishingItem@@@0@PAUFishingItem@@AAU2@@Z ENDP ; std::_Cons_val<std::allocator<FishingItem>,FishingItem,FishingItem &>
PUBLIC	??$_Cons_val@V?$allocator@UFishingItemGrade@@@std@@UFishingItemGrade@@AAU3@@std@@YAXAAV?$allocator@UFishingItemGrade@@@0@PAUFishingItemGrade@@AAU2@@Z ; std::_Cons_val<std::allocator<FishingItemGrade>,FishingItemGrade,FishingItemGrade &>
;	COMDAT xdata$x
; File c:\program files (x86)\microsoft visual studio 10.0\vc\include\utility
xdata$x	SEGMENT
__unwindtable$??$_Cons_val@V?$allocator@UFishingItemGrade@@@std@@UFishingItemGrade@@AAU3@@std@@YAXAAV?$allocator@UFishingItemGrade@@@0@PAUFishingItemGrade@@AAU2@@Z DD 0ffffffffH
	DD	FLAT:__unwindfunclet$??$_Cons_val@V?$allocator@UFishingItemGrade@@@std@@UFishingItemGrade@@AAU3@@std@@YAXAAV?$allocator@UFishingItemGrade@@@0@PAUFishingItemGrade@@AAU2@@Z$0
__ehfuncinfo$??$_Cons_val@V?$allocator@UFishingItemGrade@@@std@@UFishingItemGrade@@AAU3@@std@@YAXAAV?$allocator@UFishingItemGrade@@@0@PAUFishingItemGrade@@AAU2@@Z DD 019930522H
	DD	01H
	DD	FLAT:__unwindtable$??$_Cons_val@V?$allocator@UFishingItemGrade@@@std@@UFishingItemGrade@@AAU3@@std@@YAXAAV?$allocator@UFishingItemGrade@@@0@PAUFishingItemGrade@@AAU2@@Z
	DD	2 DUP(00H)
	DD	2 DUP(00H)
	DD	00H
	DD	01H
; Function compile flags: /Ogsp
; File c:\program files (x86)\microsoft visual studio 10.0\vc\include\xmemory
xdata$x	ENDS
;	COMDAT ??$_Cons_val@V?$allocator@UFishingItemGrade@@@std@@UFishingItemGrade@@AAU3@@std@@YAXAAV?$allocator@UFishingItemGrade@@@0@PAUFishingItemGrade@@AAU2@@Z
_TEXT	SEGMENT
$T513932 = -16						; size = 4
__$EHRec$ = -12						; size = 12
__Alval$ = 8						; size = 4
__Pdest$ = 12						; size = 4
__Src$ = 16						; size = 4
??$_Cons_val@V?$allocator@UFishingItemGrade@@@std@@UFishingItemGrade@@AAU3@@std@@YAXAAV?$allocator@UFishingItemGrade@@@0@PAUFishingItemGrade@@AAU2@@Z PROC ; std::_Cons_val<std::allocator<FishingItemGrade>,FishingItemGrade,FishingItemGrade &>, COMDAT

; 279  : 	{	// construct using allocator

  00000	6a 04		 push	 4
  00002	b8 00 00 00 00	 mov	 eax, __ehhandler$??$_Cons_val@V?$allocator@UFishingItemGrade@@@std@@UFishingItemGrade@@AAU3@@std@@YAXAAV?$allocator@UFishingItemGrade@@@0@PAUFishingItemGrade@@AAU2@@Z
  00007	e8 00 00 00 00	 call	 __EH_prolog3

; 280  : 	_Alval.construct(_Pdest, _STD forward<_Ty2>(_Src));

  0000c	8b 4d 0c	 mov	 ecx, DWORD PTR __Pdest$[ebp]
  0000f	89 4d f0	 mov	 DWORD PTR $T513932[ebp], ecx
  00012	83 65 fc 00	 and	 DWORD PTR __$EHRec$[ebp+8], 0
  00016	85 c9		 test	 ecx, ecx
  00018	74 08		 je	 SHORT $LN7@Cons_val@2
  0001a	ff 75 10	 push	 DWORD PTR __Src$[ebp]
  0001d	e8 00 00 00 00	 call	 ??0FishingItemGrade@@QAE@ABU0@@Z
$LN7@Cons_val@2:

; 281  : 	}

  00022	e8 00 00 00 00	 call	 __EH_epilog3
  00027	c3		 ret	 0
_TEXT	ENDS
;	COMDAT text$x
text$x	SEGMENT
__unwindfunclet$??$_Cons_val@V?$allocator@UFishingItemGrade@@@std@@UFishingItemGrade@@AAU3@@std@@YAXAAV?$allocator@UFishingItemGrade@@@0@PAUFishingItemGrade@@AAU2@@Z$0:
  00000	ff 75 0c	 push	 DWORD PTR __Pdest$[ebp]
  00003	ff 75 f0	 push	 DWORD PTR $T513932[ebp]
  00006	e8 00 00 00 00	 call	 ??3@YAXPAX0@Z		; operator delete
  0000b	59		 pop	 ecx
  0000c	59		 pop	 ecx
  0000d	c3		 ret	 0
__ehhandler$??$_Cons_val@V?$allocator@UFishingItemGrade@@@std@@UFishingItemGrade@@AAU3@@std@@YAXAAV?$allocator@UFishingItemGrade@@@0@PAUFishingItemGrade@@AAU2@@Z:
  0000e	8b 54 24 08	 mov	 edx, DWORD PTR [esp+8]
  00012	8d 42 0c	 lea	 eax, DWORD PTR [edx+12]
  00015	8b 4a ec	 mov	 ecx, DWORD PTR [edx-20]
  00018	33 c8		 xor	 ecx, eax
  0001a	e8 00 00 00 00	 call	 @__security_check_cookie@4
  0001f	b8 00 00 00 00	 mov	 eax, OFFSET __ehfuncinfo$??$_Cons_val@V?$allocator@UFishingItemGrade@@@std@@UFishingItemGrade@@AAU3@@std@@YAXAAV?$allocator@UFishingItemGrade@@@0@PAUFishingItemGrade@@AAU2@@Z
  00024	e9 00 00 00 00	 jmp	 ___CxxFrameHandler3
text$x	ENDS
??$_Cons_val@V?$allocator@UFishingItemGrade@@@std@@UFishingItemGrade@@AAU3@@std@@YAXAAV?$allocator@UFishingItemGrade@@@0@PAUFishingItemGrade@@AAU2@@Z ENDP ; std::_Cons_val<std::allocator<FishingItemGrade>,FishingItemGrade,FishingItemGrade &>
PUBLIC	??$_Cons_val@V?$allocator@UFishingTypeInfo@@@std@@UFishingTypeInfo@@AAU3@@std@@YAXAAV?$allocator@UFishingTypeInfo@@@0@PAUFishingTypeInfo@@AAU2@@Z ; std::_Cons_val<std::allocator<FishingTypeInfo>,FishingTypeInfo,FishingTypeInfo &>
;	COMDAT xdata$x
; File c:\program files (x86)\microsoft visual studio 10.0\vc\include\utility
xdata$x	SEGMENT
__unwindtable$??$_Cons_val@V?$allocator@UFishingTypeInfo@@@std@@UFishingTypeInfo@@AAU3@@std@@YAXAAV?$allocator@UFishingTypeInfo@@@0@PAUFishingTypeInfo@@AAU2@@Z DD 0ffffffffH
	DD	FLAT:__unwindfunclet$??$_Cons_val@V?$allocator@UFishingTypeInfo@@@std@@UFishingTypeInfo@@AAU3@@std@@YAXAAV?$allocator@UFishingTypeInfo@@@0@PAUFishingTypeInfo@@AAU2@@Z$0
__ehfuncinfo$??$_Cons_val@V?$allocator@UFishingTypeInfo@@@std@@UFishingTypeInfo@@AAU3@@std@@YAXAAV?$allocator@UFishingTypeInfo@@@0@PAUFishingTypeInfo@@AAU2@@Z DD 019930522H
	DD	01H
	DD	FLAT:__unwindtable$??$_Cons_val@V?$allocator@UFishingTypeInfo@@@std@@UFishingTypeInfo@@AAU3@@std@@YAXAAV?$allocator@UFishingTypeInfo@@@0@PAUFishingTypeInfo@@AAU2@@Z
	DD	2 DUP(00H)
	DD	2 DUP(00H)
	DD	00H
	DD	01H
; Function compile flags: /Ogsp
; File c:\program files (x86)\microsoft visual studio 10.0\vc\include\xmemory
xdata$x	ENDS
;	COMDAT ??$_Cons_val@V?$allocator@UFishingTypeInfo@@@std@@UFishingTypeInfo@@AAU3@@std@@YAXAAV?$allocator@UFishingTypeInfo@@@0@PAUFishingTypeInfo@@AAU2@@Z
_TEXT	SEGMENT
$T513965 = -16						; size = 4
__$EHRec$ = -12						; size = 12
__Alval$ = 8						; size = 4
__Pdest$ = 12						; size = 4
__Src$ = 16						; size = 4
??$_Cons_val@V?$allocator@UFishingTypeInfo@@@std@@UFishingTypeInfo@@AAU3@@std@@YAXAAV?$allocator@UFishingTypeInfo@@@0@PAUFishingTypeInfo@@AAU2@@Z PROC ; std::_Cons_val<std::allocator<FishingTypeInfo>,FishingTypeInfo,FishingTypeInfo &>, COMDAT

; 279  : 	{	// construct using allocator

  00000	6a 04		 push	 4
  00002	b8 00 00 00 00	 mov	 eax, __ehhandler$??$_Cons_val@V?$allocator@UFishingTypeInfo@@@std@@UFishingTypeInfo@@AAU3@@std@@YAXAAV?$allocator@UFishingTypeInfo@@@0@PAUFishingTypeInfo@@AAU2@@Z
  00007	e8 00 00 00 00	 call	 __EH_prolog3

; 280  : 	_Alval.construct(_Pdest, _STD forward<_Ty2>(_Src));

  0000c	8b 4d 0c	 mov	 ecx, DWORD PTR __Pdest$[ebp]
  0000f	89 4d f0	 mov	 DWORD PTR $T513965[ebp], ecx
  00012	83 65 fc 00	 and	 DWORD PTR __$EHRec$[ebp+8], 0
  00016	85 c9		 test	 ecx, ecx
  00018	74 08		 je	 SHORT $LN7@Cons_val@3
  0001a	ff 75 10	 push	 DWORD PTR __Src$[ebp]
  0001d	e8 00 00 00 00	 call	 ??0FishingTypeInfo@@QAE@ABU0@@Z
$LN7@Cons_val@3:

; 281  : 	}

  00022	e8 00 00 00 00	 call	 __EH_epilog3
  00027	c3		 ret	 0
_TEXT	ENDS
;	COMDAT text$x
text$x	SEGMENT
__unwindfunclet$??$_Cons_val@V?$allocator@UFishingTypeInfo@@@std@@UFishingTypeInfo@@AAU3@@std@@YAXAAV?$allocator@UFishingTypeInfo@@@0@PAUFishingTypeInfo@@AAU2@@Z$0:
  00000	ff 75 0c	 push	 DWORD PTR __Pdest$[ebp]
  00003	ff 75 f0	 push	 DWORD PTR $T513965[ebp]
  00006	e8 00 00 00 00	 call	 ??3@YAXPAX0@Z		; operator delete
  0000b	59		 pop	 ecx
  0000c	59		 pop	 ecx
  0000d	c3		 ret	 0
__ehhandler$??$_Cons_val@V?$allocator@UFishingTypeInfo@@@std@@UFishingTypeInfo@@AAU3@@std@@YAXAAV?$allocator@UFishingTypeInfo@@@0@PAUFishingTypeInfo@@AAU2@@Z:
  0000e	8b 54 24 08	 mov	 edx, DWORD PTR [esp+8]
  00012	8d 42 0c	 lea	 eax, DWORD PTR [edx+12]
  00015	8b 4a ec	 mov	 ecx, DWORD PTR [edx-20]
  00018	33 c8		 xor	 ecx, eax
  0001a	e8 00 00 00 00	 call	 @__security_check_cookie@4
  0001f	b8 00 00 00 00	 mov	 eax, OFFSET __ehfuncinfo$??$_Cons_val@V?$allocator@UFishingTypeInfo@@@std@@UFishingTypeInfo@@AAU3@@std@@YAXAAV?$allocator@UFishingTypeInfo@@@0@PAUFishingTypeInfo@@AAU2@@Z
  00024	e9 00 00 00 00	 jmp	 ___CxxFrameHandler3
text$x	ENDS
??$_Cons_val@V?$allocator@UFishingTypeInfo@@@std@@UFishingTypeInfo@@AAU3@@std@@YAXAAV?$allocator@UFishingTypeInfo@@@0@PAUFishingTypeInfo@@AAU2@@Z ENDP ; std::_Cons_val<std::allocator<FishingTypeInfo>,FishingTypeInfo,FishingTypeInfo &>
PUBLIC	??$_Move@PAUFishingItem@@PAU1@@std@@YAPAUFishingItem@@PAU1@00@Z ; std::_Move<FishingItem *,FishingItem *>
; Function compile flags: /Ogsp
; File c:\program files (x86)\microsoft visual studio 10.0\vc\include\xutility
;	COMDAT ??$_Move@PAUFishingItem@@PAU1@@std@@YAPAUFishingItem@@PAU1@00@Z
_TEXT	SEGMENT
__Cat$513983 = -4					; size = 1
__First$ = 8						; size = 4
__Last$ = 12						; size = 4
__Dest$ = 16						; size = 4
??$_Move@PAUFishingItem@@PAU1@@std@@YAPAUFishingItem@@PAU1@00@Z PROC ; std::_Move<FishingItem *,FishingItem *>, COMDAT

; 2533 : 	{	// move [_First, _Last) to [_Dest, ...), unchecked

  00000	55		 push	 ebp
  00001	8b ec		 mov	 ebp, esp
  00003	51		 push	 ecx

; 2534 : 	return (_Move(_First, _Last,
; 2535 : 		_Dest, _Ptr_cat(_First, _Dest)));

  00004	ff 75 fc	 push	 DWORD PTR __Cat$513983[ebp]
  00007	ff 75 10	 push	 DWORD PTR __Dest$[ebp]
  0000a	ff 75 0c	 push	 DWORD PTR __Last$[ebp]
  0000d	ff 75 08	 push	 DWORD PTR __First$[ebp]
  00010	e8 00 00 00 00	 call	 ??$_Move@PAUFishingItem@@PAU1@@std@@YAPAUFishingItem@@PAU1@00U_Nonscalar_ptr_iterator_tag@0@@Z ; std::_Move<FishingItem *,FishingItem *>
  00015	83 c4 10	 add	 esp, 16			; 00000010H

; 2536 : 	}

  00018	c9		 leave
  00019	c3		 ret	 0
??$_Move@PAUFishingItem@@PAU1@@std@@YAPAUFishingItem@@PAU1@00@Z ENDP ; std::_Move<FishingItem *,FishingItem *>
_TEXT	ENDS
PUBLIC	??$_Move@PAUFishingItemGrade@@PAU1@@std@@YAPAUFishingItemGrade@@PAU1@00@Z ; std::_Move<FishingItemGrade *,FishingItemGrade *>
; Function compile flags: /Ogsp
;	COMDAT ??$_Move@PAUFishingItemGrade@@PAU1@@std@@YAPAUFishingItemGrade@@PAU1@00@Z
_TEXT	SEGMENT
__Cat$513990 = -4					; size = 1
__First$ = 8						; size = 4
__Last$ = 12						; size = 4
__Dest$ = 16						; size = 4
??$_Move@PAUFishingItemGrade@@PAU1@@std@@YAPAUFishingItemGrade@@PAU1@00@Z PROC ; std::_Move<FishingItemGrade *,FishingItemGrade *>, COMDAT

; 2533 : 	{	// move [_First, _Last) to [_Dest, ...), unchecked

  00000	55		 push	 ebp
  00001	8b ec		 mov	 ebp, esp
  00003	51		 push	 ecx

; 2534 : 	return (_Move(_First, _Last,
; 2535 : 		_Dest, _Ptr_cat(_First, _Dest)));

  00004	ff 75 fc	 push	 DWORD PTR __Cat$513990[ebp]
  00007	ff 75 10	 push	 DWORD PTR __Dest$[ebp]
  0000a	ff 75 0c	 push	 DWORD PTR __Last$[ebp]
  0000d	ff 75 08	 push	 DWORD PTR __First$[ebp]
  00010	e8 00 00 00 00	 call	 ??$_Move@PAUFishingItemGrade@@PAU1@@std@@YAPAUFishingItemGrade@@PAU1@00U_Nonscalar_ptr_iterator_tag@0@@Z ; std::_Move<FishingItemGrade *,FishingItemGrade *>
  00015	83 c4 10	 add	 esp, 16			; 00000010H

; 2536 : 	}

  00018	c9		 leave
  00019	c3		 ret	 0
??$_Move@PAUFishingItemGrade@@PAU1@@std@@YAPAUFishingItemGrade@@PAU1@00@Z ENDP ; std::_Move<FishingItemGrade *,FishingItemGrade *>
_TEXT	ENDS
PUBLIC	??$_Move@PAUFishingTypeInfo@@PAU1@@std@@YAPAUFishingTypeInfo@@PAU1@00@Z ; std::_Move<FishingTypeInfo *,FishingTypeInfo *>
; Function compile flags: /Ogsp
;	COMDAT ??$_Move@PAUFishingTypeInfo@@PAU1@@std@@YAPAUFishingTypeInfo@@PAU1@00@Z
_TEXT	SEGMENT
__Cat$513997 = -4					; size = 1
__First$ = 8						; size = 4
__Last$ = 12						; size = 4
__Dest$ = 16						; size = 4
??$_Move@PAUFishingTypeInfo@@PAU1@@std@@YAPAUFishingTypeInfo@@PAU1@00@Z PROC ; std::_Move<FishingTypeInfo *,FishingTypeInfo *>, COMDAT

; 2533 : 	{	// move [_First, _Last) to [_Dest, ...), unchecked

  00000	55		 push	 ebp
  00001	8b ec		 mov	 ebp, esp
  00003	51		 push	 ecx

; 2534 : 	return (_Move(_First, _Last,
; 2535 : 		_Dest, _Ptr_cat(_First, _Dest)));

  00004	ff 75 fc	 push	 DWORD PTR __Cat$513997[ebp]
  00007	ff 75 10	 push	 DWORD PTR __Dest$[ebp]
  0000a	ff 75 0c	 push	 DWORD PTR __Last$[ebp]
  0000d	ff 75 08	 push	 DWORD PTR __First$[ebp]
  00010	e8 00 00 00 00	 call	 ??$_Move@PAUFishingTypeInfo@@PAU1@@std@@YAPAUFishingTypeInfo@@PAU1@00U_Nonscalar_ptr_iterator_tag@0@@Z ; std::_Move<FishingTypeInfo *,FishingTypeInfo *>
  00015	83 c4 10	 add	 esp, 16			; 00000010H

; 2536 : 	}

  00018	c9		 leave
  00019	c3		 ret	 0
??$_Move@PAUFishingTypeInfo@@PAU1@@std@@YAPAUFishingTypeInfo@@PAU1@00@Z ENDP ; std::_Move<FishingTypeInfo *,FishingTypeInfo *>
_TEXT	ENDS
PUBLIC	?construct@?$allocator@UFishingItem@@@std@@QAEXPAUFishingItem@@ABU3@@Z ; std::allocator<FishingItem>::construct
; Function compile flags: /Ogsp
; File c:\program files (x86)\microsoft visual studio 10.0\vc\include\xmemory
;	COMDAT ?construct@?$allocator@UFishingItem@@@std@@QAEXPAUFishingItem@@ABU3@@Z
_TEXT	SEGMENT
__Ptr$ = 8						; size = 4
__Val$ = 12						; size = 4
?construct@?$allocator@UFishingItem@@@std@@QAEXPAUFishingItem@@ABU3@@Z PROC ; std::allocator<FishingItem>::construct, COMDAT
; _this$ = ecx

; 196  : 		{	// construct object at _Ptr with value _Val

  00000	55		 push	 ebp
  00001	8b ec		 mov	 ebp, esp

; 197  : 		_Construct(_Ptr, _Val);

  00003	ff 75 0c	 push	 DWORD PTR __Val$[ebp]
  00006	ff 75 08	 push	 DWORD PTR __Ptr$[ebp]
  00009	e8 00 00 00 00	 call	 ??$_Construct@UFishingItem@@ABU1@@std@@YAXPAUFishingItem@@ABU1@@Z ; std::_Construct<FishingItem,FishingItem const &>
  0000e	59		 pop	 ecx
  0000f	59		 pop	 ecx

; 198  : 		}

  00010	5d		 pop	 ebp
  00011	c2 08 00	 ret	 8
?construct@?$allocator@UFishingItem@@@std@@QAEXPAUFishingItem@@ABU3@@Z ENDP ; std::allocator<FishingItem>::construct
_TEXT	ENDS
PUBLIC	?construct@?$allocator@UFishingItemGrade@@@std@@QAEXPAUFishingItemGrade@@ABU3@@Z ; std::allocator<FishingItemGrade>::construct
; Function compile flags: /Ogsp
;	COMDAT ?construct@?$allocator@UFishingItemGrade@@@std@@QAEXPAUFishingItemGrade@@ABU3@@Z
_TEXT	SEGMENT
__Ptr$ = 8						; size = 4
__Val$ = 12						; size = 4
?construct@?$allocator@UFishingItemGrade@@@std@@QAEXPAUFishingItemGrade@@ABU3@@Z PROC ; std::allocator<FishingItemGrade>::construct, COMDAT
; _this$ = ecx

; 196  : 		{	// construct object at _Ptr with value _Val

  00000	55		 push	 ebp
  00001	8b ec		 mov	 ebp, esp

; 197  : 		_Construct(_Ptr, _Val);

  00003	ff 75 0c	 push	 DWORD PTR __Val$[ebp]
  00006	ff 75 08	 push	 DWORD PTR __Ptr$[ebp]
  00009	e8 00 00 00 00	 call	 ??$_Construct@UFishingItemGrade@@ABU1@@std@@YAXPAUFishingItemGrade@@ABU1@@Z ; std::_Construct<FishingItemGrade,FishingItemGrade const &>
  0000e	59		 pop	 ecx
  0000f	59		 pop	 ecx

; 198  : 		}

  00010	5d		 pop	 ebp
  00011	c2 08 00	 ret	 8
?construct@?$allocator@UFishingItemGrade@@@std@@QAEXPAUFishingItemGrade@@ABU3@@Z ENDP ; std::allocator<FishingItemGrade>::construct
_TEXT	ENDS
PUBLIC	?construct@?$allocator@UFishingTypeInfo@@@std@@QAEXPAUFishingTypeInfo@@ABU3@@Z ; std::allocator<FishingTypeInfo>::construct
; Function compile flags: /Ogsp
;	COMDAT ?construct@?$allocator@UFishingTypeInfo@@@std@@QAEXPAUFishingTypeInfo@@ABU3@@Z
_TEXT	SEGMENT
__Ptr$ = 8						; size = 4
__Val$ = 12						; size = 4
?construct@?$allocator@UFishingTypeInfo@@@std@@QAEXPAUFishingTypeInfo@@ABU3@@Z PROC ; std::allocator<FishingTypeInfo>::construct, COMDAT
; _this$ = ecx

; 196  : 		{	// construct object at _Ptr with value _Val

  00000	55		 push	 ebp
  00001	8b ec		 mov	 ebp, esp

; 197  : 		_Construct(_Ptr, _Val);

  00003	ff 75 0c	 push	 DWORD PTR __Val$[ebp]
  00006	ff 75 08	 push	 DWORD PTR __Ptr$[ebp]
  00009	e8 00 00 00 00	 call	 ??$_Construct@UFishingTypeInfo@@ABU1@@std@@YAXPAUFishingTypeInfo@@ABU1@@Z ; std::_Construct<FishingTypeInfo,FishingTypeInfo const &>
  0000e	59		 pop	 ecx
  0000f	59		 pop	 ecx

; 198  : 		}

  00010	5d		 pop	 ebp
  00011	c2 08 00	 ret	 8
?construct@?$allocator@UFishingTypeInfo@@@std@@QAEXPAUFishingTypeInfo@@ABU3@@Z ENDP ; std::allocator<FishingTypeInfo>::construct
_TEXT	ENDS
PUBLIC	?destroy@?$allocator@UFishingItem@@@std@@QAEXPAUFishingItem@@@Z ; std::allocator<FishingItem>::destroy
; Function compile flags: /Ogsp
;	COMDAT ?destroy@?$allocator@UFishingItem@@@std@@QAEXPAUFishingItem@@@Z
_TEXT	SEGMENT
__Ptr$ = 8						; size = 4
?destroy@?$allocator@UFishingItem@@@std@@QAEXPAUFishingItem@@@Z PROC ; std::allocator<FishingItem>::destroy, COMDAT
; _this$ = ecx

; 212  : 		{	// destroy object at _Ptr

  00000	55		 push	 ebp
  00001	8b ec		 mov	 ebp, esp

; 213  : 		_Destroy(_Ptr);

  00003	8b 4d 08	 mov	 ecx, DWORD PTR __Ptr$[ebp]
  00006	e8 00 00 00 00	 call	 ??1FishingItem@@QAE@XZ

; 214  : 		}

  0000b	5d		 pop	 ebp
  0000c	c2 04 00	 ret	 4
?destroy@?$allocator@UFishingItem@@@std@@QAEXPAUFishingItem@@@Z ENDP ; std::allocator<FishingItem>::destroy
_TEXT	ENDS
PUBLIC	?destroy@?$allocator@UFishingItemGrade@@@std@@QAEXPAUFishingItemGrade@@@Z ; std::allocator<FishingItemGrade>::destroy
; Function compile flags: /Ogsp
;	COMDAT ?destroy@?$allocator@UFishingItemGrade@@@std@@QAEXPAUFishingItemGrade@@@Z
_TEXT	SEGMENT
__Ptr$ = 8						; size = 4
?destroy@?$allocator@UFishingItemGrade@@@std@@QAEXPAUFishingItemGrade@@@Z PROC ; std::allocator<FishingItemGrade>::destroy, COMDAT
; _this$ = ecx

; 212  : 		{	// destroy object at _Ptr

  00000	55		 push	 ebp
  00001	8b ec		 mov	 ebp, esp

; 213  : 		_Destroy(_Ptr);

  00003	8b 4d 08	 mov	 ecx, DWORD PTR __Ptr$[ebp]
  00006	e8 00 00 00 00	 call	 ??1FishingItemGrade@@QAE@XZ

; 214  : 		}

  0000b	5d		 pop	 ebp
  0000c	c2 04 00	 ret	 4
?destroy@?$allocator@UFishingItemGrade@@@std@@QAEXPAUFishingItemGrade@@@Z ENDP ; std::allocator<FishingItemGrade>::destroy
_TEXT	ENDS
PUBLIC	?destroy@?$allocator@UFishingTypeInfo@@@std@@QAEXPAUFishingTypeInfo@@@Z ; std::allocator<FishingTypeInfo>::destroy
; Function compile flags: /Ogsp
;	COMDAT ?destroy@?$allocator@UFishingTypeInfo@@@std@@QAEXPAUFishingTypeInfo@@@Z
_TEXT	SEGMENT
__Ptr$ = 8						; size = 4
?destroy@?$allocator@UFishingTypeInfo@@@std@@QAEXPAUFishingTypeInfo@@@Z PROC ; std::allocator<FishingTypeInfo>::destroy, COMDAT
; _this$ = ecx

; 212  : 		{	// destroy object at _Ptr

  00000	55		 push	 ebp
  00001	8b ec		 mov	 ebp, esp

; 213  : 		_Destroy(_Ptr);

  00003	8b 4d 08	 mov	 ecx, DWORD PTR __Ptr$[ebp]
  00006	e8 00 00 00 00	 call	 ??1FishingTypeInfo@@QAE@XZ

; 214  : 		}

  0000b	5d		 pop	 ebp
  0000c	c2 04 00	 ret	 4
?destroy@?$allocator@UFishingTypeInfo@@@std@@QAEXPAUFishingTypeInfo@@@Z ENDP ; std::allocator<FishingTypeInfo>::destroy
_TEXT	ENDS
PUBLIC	??$_Cons_val@V?$allocator@UFishingItem@@@std@@UFishingItem@@U3@@std@@YAXAAV?$allocator@UFishingItem@@@0@PAUFishingItem@@$$QAU2@@Z ; std::_Cons_val<std::allocator<FishingItem>,FishingItem,FishingItem>
;	COMDAT xdata$x
; File c:\program files (x86)\microsoft visual studio 10.0\vc\include\utility
xdata$x	SEGMENT
__unwindtable$??$_Cons_val@V?$allocator@UFishingItem@@@std@@UFishingItem@@U3@@std@@YAXAAV?$allocator@UFishingItem@@@0@PAUFishingItem@@$$QAU2@@Z DD 0ffffffffH
	DD	FLAT:__unwindfunclet$??$_Cons_val@V?$allocator@UFishingItem@@@std@@UFishingItem@@U3@@std@@YAXAAV?$allocator@UFishingItem@@@0@PAUFishingItem@@$$QAU2@@Z$0
__ehfuncinfo$??$_Cons_val@V?$allocator@UFishingItem@@@std@@UFishingItem@@U3@@std@@YAXAAV?$allocator@UFishingItem@@@0@PAUFishingItem@@$$QAU2@@Z DD 019930522H
	DD	01H
	DD	FLAT:__unwindtable$??$_Cons_val@V?$allocator@UFishingItem@@@std@@UFishingItem@@U3@@std@@YAXAAV?$allocator@UFishingItem@@@0@PAUFishingItem@@$$QAU2@@Z
	DD	2 DUP(00H)
	DD	2 DUP(00H)
	DD	00H
	DD	01H
; Function compile flags: /Ogsp
; File c:\program files (x86)\microsoft visual studio 10.0\vc\include\xmemory
xdata$x	ENDS
;	COMDAT ??$_Cons_val@V?$allocator@UFishingItem@@@std@@UFishingItem@@U3@@std@@YAXAAV?$allocator@UFishingItem@@@0@PAUFishingItem@@$$QAU2@@Z
_TEXT	SEGMENT
$T514058 = -16						; size = 4
__$EHRec$ = -12						; size = 12
__Alval$ = 8						; size = 4
__Pdest$ = 12						; size = 4
__Src$ = 16						; size = 4
??$_Cons_val@V?$allocator@UFishingItem@@@std@@UFishingItem@@U3@@std@@YAXAAV?$allocator@UFishingItem@@@0@PAUFishingItem@@$$QAU2@@Z PROC ; std::_Cons_val<std::allocator<FishingItem>,FishingItem,FishingItem>, COMDAT

; 279  : 	{	// construct using allocator

  00000	6a 04		 push	 4
  00002	b8 00 00 00 00	 mov	 eax, __ehhandler$??$_Cons_val@V?$allocator@UFishingItem@@@std@@UFishingItem@@U3@@std@@YAXAAV?$allocator@UFishingItem@@@0@PAUFishingItem@@$$QAU2@@Z
  00007	e8 00 00 00 00	 call	 __EH_prolog3

; 280  : 	_Alval.construct(_Pdest, _STD forward<_Ty2>(_Src));

  0000c	8b 4d 0c	 mov	 ecx, DWORD PTR __Pdest$[ebp]
  0000f	89 4d f0	 mov	 DWORD PTR $T514058[ebp], ecx
  00012	83 65 fc 00	 and	 DWORD PTR __$EHRec$[ebp+8], 0
  00016	85 c9		 test	 ecx, ecx
  00018	74 08		 je	 SHORT $LN7@Cons_val@4
  0001a	ff 75 10	 push	 DWORD PTR __Src$[ebp]
  0001d	e8 00 00 00 00	 call	 ??0FishingItem@@QAE@ABU0@@Z
$LN7@Cons_val@4:

; 281  : 	}

  00022	e8 00 00 00 00	 call	 __EH_epilog3
  00027	c3		 ret	 0
_TEXT	ENDS
;	COMDAT text$x
text$x	SEGMENT
__unwindfunclet$??$_Cons_val@V?$allocator@UFishingItem@@@std@@UFishingItem@@U3@@std@@YAXAAV?$allocator@UFishingItem@@@0@PAUFishingItem@@$$QAU2@@Z$0:
  00000	ff 75 0c	 push	 DWORD PTR __Pdest$[ebp]
  00003	ff 75 f0	 push	 DWORD PTR $T514058[ebp]
  00006	e8 00 00 00 00	 call	 ??3@YAXPAX0@Z		; operator delete
  0000b	59		 pop	 ecx
  0000c	59		 pop	 ecx
  0000d	c3		 ret	 0
__ehhandler$??$_Cons_val@V?$allocator@UFishingItem@@@std@@UFishingItem@@U3@@std@@YAXAAV?$allocator@UFishingItem@@@0@PAUFishingItem@@$$QAU2@@Z:
  0000e	8b 54 24 08	 mov	 edx, DWORD PTR [esp+8]
  00012	8d 42 0c	 lea	 eax, DWORD PTR [edx+12]
  00015	8b 4a ec	 mov	 ecx, DWORD PTR [edx-20]
  00018	33 c8		 xor	 ecx, eax
  0001a	e8 00 00 00 00	 call	 @__security_check_cookie@4
  0001f	b8 00 00 00 00	 mov	 eax, OFFSET __ehfuncinfo$??$_Cons_val@V?$allocator@UFishingItem@@@std@@UFishingItem@@U3@@std@@YAXAAV?$allocator@UFishingItem@@@0@PAUFishingItem@@$$QAU2@@Z
  00024	e9 00 00 00 00	 jmp	 ___CxxFrameHandler3
text$x	ENDS
??$_Cons_val@V?$allocator@UFishingItem@@@std@@UFishingItem@@U3@@std@@YAXAAV?$allocator@UFishingItem@@@0@PAUFishingItem@@$$QAU2@@Z ENDP ; std::_Cons_val<std::allocator<FishingItem>,FishingItem,FishingItem>
PUBLIC	??$_Cons_val@V?$allocator@UFishingItemGrade@@@std@@UFishingItemGrade@@U3@@std@@YAXAAV?$allocator@UFishingItemGrade@@@0@PAUFishingItemGrade@@$$QAU2@@Z ; std::_Cons_val<std::allocator<FishingItemGrade>,FishingItemGrade,FishingItemGrade>
;	COMDAT xdata$x
; File c:\program files (x86)\microsoft visual studio 10.0\vc\include\utility
xdata$x	SEGMENT
__unwindtable$??$_Cons_val@V?$allocator@UFishingItemGrade@@@std@@UFishingItemGrade@@U3@@std@@YAXAAV?$allocator@UFishingItemGrade@@@0@PAUFishingItemGrade@@$$QAU2@@Z DD 0ffffffffH
	DD	FLAT:__unwindfunclet$??$_Cons_val@V?$allocator@UFishingItemGrade@@@std@@UFishingItemGrade@@U3@@std@@YAXAAV?$allocator@UFishingItemGrade@@@0@PAUFishingItemGrade@@$$QAU2@@Z$0
__ehfuncinfo$??$_Cons_val@V?$allocator@UFishingItemGrade@@@std@@UFishingItemGrade@@U3@@std@@YAXAAV?$allocator@UFishingItemGrade@@@0@PAUFishingItemGrade@@$$QAU2@@Z DD 019930522H
	DD	01H
	DD	FLAT:__unwindtable$??$_Cons_val@V?$allocator@UFishingItemGrade@@@std@@UFishingItemGrade@@U3@@std@@YAXAAV?$allocator@UFishingItemGrade@@@0@PAUFishingItemGrade@@$$QAU2@@Z
	DD	2 DUP(00H)
	DD	2 DUP(00H)
	DD	00H
	DD	01H
; Function compile flags: /Ogsp
; File c:\program files (x86)\microsoft visual studio 10.0\vc\include\xmemory
xdata$x	ENDS
;	COMDAT ??$_Cons_val@V?$allocator@UFishingItemGrade@@@std@@UFishingItemGrade@@U3@@std@@YAXAAV?$allocator@UFishingItemGrade@@@0@PAUFishingItemGrade@@$$QAU2@@Z
_TEXT	SEGMENT
$T514093 = -16						; size = 4
__$EHRec$ = -12						; size = 12
__Alval$ = 8						; size = 4
__Pdest$ = 12						; size = 4
__Src$ = 16						; size = 4
??$_Cons_val@V?$allocator@UFishingItemGrade@@@std@@UFishingItemGrade@@U3@@std@@YAXAAV?$allocator@UFishingItemGrade@@@0@PAUFishingItemGrade@@$$QAU2@@Z PROC ; std::_Cons_val<std::allocator<FishingItemGrade>,FishingItemGrade,FishingItemGrade>, COMDAT

; 279  : 	{	// construct using allocator

  00000	6a 04		 push	 4
  00002	b8 00 00 00 00	 mov	 eax, __ehhandler$??$_Cons_val@V?$allocator@UFishingItemGrade@@@std@@UFishingItemGrade@@U3@@std@@YAXAAV?$allocator@UFishingItemGrade@@@0@PAUFishingItemGrade@@$$QAU2@@Z
  00007	e8 00 00 00 00	 call	 __EH_prolog3

; 280  : 	_Alval.construct(_Pdest, _STD forward<_Ty2>(_Src));

  0000c	8b 4d 0c	 mov	 ecx, DWORD PTR __Pdest$[ebp]
  0000f	89 4d f0	 mov	 DWORD PTR $T514093[ebp], ecx
  00012	83 65 fc 00	 and	 DWORD PTR __$EHRec$[ebp+8], 0
  00016	85 c9		 test	 ecx, ecx
  00018	74 08		 je	 SHORT $LN7@Cons_val@5
  0001a	ff 75 10	 push	 DWORD PTR __Src$[ebp]
  0001d	e8 00 00 00 00	 call	 ??0FishingItemGrade@@QAE@ABU0@@Z
$LN7@Cons_val@5:

; 281  : 	}

  00022	e8 00 00 00 00	 call	 __EH_epilog3
  00027	c3		 ret	 0
_TEXT	ENDS
;	COMDAT text$x
text$x	SEGMENT
__unwindfunclet$??$_Cons_val@V?$allocator@UFishingItemGrade@@@std@@UFishingItemGrade@@U3@@std@@YAXAAV?$allocator@UFishingItemGrade@@@0@PAUFishingItemGrade@@$$QAU2@@Z$0:
  00000	ff 75 0c	 push	 DWORD PTR __Pdest$[ebp]
  00003	ff 75 f0	 push	 DWORD PTR $T514093[ebp]
  00006	e8 00 00 00 00	 call	 ??3@YAXPAX0@Z		; operator delete
  0000b	59		 pop	 ecx
  0000c	59		 pop	 ecx
  0000d	c3		 ret	 0
__ehhandler$??$_Cons_val@V?$allocator@UFishingItemGrade@@@std@@UFishingItemGrade@@U3@@std@@YAXAAV?$allocator@UFishingItemGrade@@@0@PAUFishingItemGrade@@$$QAU2@@Z:
  0000e	8b 54 24 08	 mov	 edx, DWORD PTR [esp+8]
  00012	8d 42 0c	 lea	 eax, DWORD PTR [edx+12]
  00015	8b 4a ec	 mov	 ecx, DWORD PTR [edx-20]
  00018	33 c8		 xor	 ecx, eax
  0001a	e8 00 00 00 00	 call	 @__security_check_cookie@4
  0001f	b8 00 00 00 00	 mov	 eax, OFFSET __ehfuncinfo$??$_Cons_val@V?$allocator@UFishingItemGrade@@@std@@UFishingItemGrade@@U3@@std@@YAXAAV?$allocator@UFishingItemGrade@@@0@PAUFishingItemGrade@@$$QAU2@@Z
  00024	e9 00 00 00 00	 jmp	 ___CxxFrameHandler3
text$x	ENDS
??$_Cons_val@V?$allocator@UFishingItemGrade@@@std@@UFishingItemGrade@@U3@@std@@YAXAAV?$allocator@UFishingItemGrade@@@0@PAUFishingItemGrade@@$$QAU2@@Z ENDP ; std::_Cons_val<std::allocator<FishingItemGrade>,FishingItemGrade,FishingItemGrade>
PUBLIC	??$_Cons_val@V?$allocator@UFishingTypeInfo@@@std@@UFishingTypeInfo@@U3@@std@@YAXAAV?$allocator@UFishingTypeInfo@@@0@PAUFishingTypeInfo@@$$QAU2@@Z ; std::_Cons_val<std::allocator<FishingTypeInfo>,FishingTypeInfo,FishingTypeInfo>
;	COMDAT xdata$x
; File c:\program files (x86)\microsoft visual studio 10.0\vc\include\utility
xdata$x	SEGMENT
__unwindtable$??$_Cons_val@V?$allocator@UFishingTypeInfo@@@std@@UFishingTypeInfo@@U3@@std@@YAXAAV?$allocator@UFishingTypeInfo@@@0@PAUFishingTypeInfo@@$$QAU2@@Z DD 0ffffffffH
	DD	FLAT:__unwindfunclet$??$_Cons_val@V?$allocator@UFishingTypeInfo@@@std@@UFishingTypeInfo@@U3@@std@@YAXAAV?$allocator@UFishingTypeInfo@@@0@PAUFishingTypeInfo@@$$QAU2@@Z$0
__ehfuncinfo$??$_Cons_val@V?$allocator@UFishingTypeInfo@@@std@@UFishingTypeInfo@@U3@@std@@YAXAAV?$allocator@UFishingTypeInfo@@@0@PAUFishingTypeInfo@@$$QAU2@@Z DD 019930522H
	DD	01H
	DD	FLAT:__unwindtable$??$_Cons_val@V?$allocator@UFishingTypeInfo@@@std@@UFishingTypeInfo@@U3@@std@@YAXAAV?$allocator@UFishingTypeInfo@@@0@PAUFishingTypeInfo@@$$QAU2@@Z
	DD	2 DUP(00H)
	DD	2 DUP(00H)
	DD	00H
	DD	01H
; Function compile flags: /Ogsp
; File c:\program files (x86)\microsoft visual studio 10.0\vc\include\xmemory
xdata$x	ENDS
;	COMDAT ??$_Cons_val@V?$allocator@UFishingTypeInfo@@@std@@UFishingTypeInfo@@U3@@std@@YAXAAV?$allocator@UFishingTypeInfo@@@0@PAUFishingTypeInfo@@$$QAU2@@Z
_TEXT	SEGMENT
$T514126 = -16						; size = 4
__$EHRec$ = -12						; size = 12
__Alval$ = 8						; size = 4
__Pdest$ = 12						; size = 4
__Src$ = 16						; size = 4
??$_Cons_val@V?$allocator@UFishingTypeInfo@@@std@@UFishingTypeInfo@@U3@@std@@YAXAAV?$allocator@UFishingTypeInfo@@@0@PAUFishingTypeInfo@@$$QAU2@@Z PROC ; std::_Cons_val<std::allocator<FishingTypeInfo>,FishingTypeInfo,FishingTypeInfo>, COMDAT

; 279  : 	{	// construct using allocator

  00000	6a 04		 push	 4
  00002	b8 00 00 00 00	 mov	 eax, __ehhandler$??$_Cons_val@V?$allocator@UFishingTypeInfo@@@std@@UFishingTypeInfo@@U3@@std@@YAXAAV?$allocator@UFishingTypeInfo@@@0@PAUFishingTypeInfo@@$$QAU2@@Z
  00007	e8 00 00 00 00	 call	 __EH_prolog3

; 280  : 	_Alval.construct(_Pdest, _STD forward<_Ty2>(_Src));

  0000c	8b 4d 0c	 mov	 ecx, DWORD PTR __Pdest$[ebp]
  0000f	89 4d f0	 mov	 DWORD PTR $T514126[ebp], ecx
  00012	83 65 fc 00	 and	 DWORD PTR __$EHRec$[ebp+8], 0
  00016	85 c9		 test	 ecx, ecx
  00018	74 08		 je	 SHORT $LN7@Cons_val@6
  0001a	ff 75 10	 push	 DWORD PTR __Src$[ebp]
  0001d	e8 00 00 00 00	 call	 ??0FishingTypeInfo@@QAE@ABU0@@Z
$LN7@Cons_val@6:

; 281  : 	}

  00022	e8 00 00 00 00	 call	 __EH_epilog3
  00027	c3		 ret	 0
_TEXT	ENDS
;	COMDAT text$x
text$x	SEGMENT
__unwindfunclet$??$_Cons_val@V?$allocator@UFishingTypeInfo@@@std@@UFishingTypeInfo@@U3@@std@@YAXAAV?$allocator@UFishingTypeInfo@@@0@PAUFishingTypeInfo@@$$QAU2@@Z$0:
  00000	ff 75 0c	 push	 DWORD PTR __Pdest$[ebp]
  00003	ff 75 f0	 push	 DWORD PTR $T514126[ebp]
  00006	e8 00 00 00 00	 call	 ??3@YAXPAX0@Z		; operator delete
  0000b	59		 pop	 ecx
  0000c	59		 pop	 ecx
  0000d	c3		 ret	 0
__ehhandler$??$_Cons_val@V?$allocator@UFishingTypeInfo@@@std@@UFishingTypeInfo@@U3@@std@@YAXAAV?$allocator@UFishingTypeInfo@@@0@PAUFishingTypeInfo@@$$QAU2@@Z:
  0000e	8b 54 24 08	 mov	 edx, DWORD PTR [esp+8]
  00012	8d 42 0c	 lea	 eax, DWORD PTR [edx+12]
  00015	8b 4a ec	 mov	 ecx, DWORD PTR [edx-20]
  00018	33 c8		 xor	 ecx, eax
  0001a	e8 00 00 00 00	 call	 @__security_check_cookie@4
  0001f	b8 00 00 00 00	 mov	 eax, OFFSET __ehfuncinfo$??$_Cons_val@V?$allocator@UFishingTypeInfo@@@std@@UFishingTypeInfo@@U3@@std@@YAXAAV?$allocator@UFishingTypeInfo@@@0@PAUFishingTypeInfo@@$$QAU2@@Z
  00024	e9 00 00 00 00	 jmp	 ___CxxFrameHandler3
text$x	ENDS
??$_Cons_val@V?$allocator@UFishingTypeInfo@@@std@@UFishingTypeInfo@@U3@@std@@YAXAAV?$allocator@UFishingTypeInfo@@@0@PAUFishingTypeInfo@@$$QAU2@@Z ENDP ; std::_Cons_val<std::allocator<FishingTypeInfo>,FishingTypeInfo,FishingTypeInfo>
PUBLIC	?GetFishingItemName@ioFishingManager@@QAE?AVioHashString@@H@Z ; ioFishingManager::GetFishingItemName
; Function compile flags: /Ogsp
; File d:\lost saga for developer\youtube\tutorial\source\src\lsclient\iofishingmanager.cpp
;	COMDAT ?GetFishingItemName@ioFishingManager@@QAE?AVioHashString@@H@Z
_TEXT	SEGMENT
$T514144 = -4						; size = 4
___$ReturnUdt$ = 8					; size = 4
_iItemType$ = 12					; size = 4
?GetFishingItemName@ioFishingManager@@QAE?AVioHashString@@H@Z PROC ; ioFishingManager::GetFishingItemName, COMDAT
; _this$ = ecx

; 149  : {

  00000	55		 push	 ebp
  00001	8b ec		 mov	 ebp, esp
  00003	51		 push	 ecx

; 150  : 	FishingItemList::iterator iter = m_vFishingItemList.begin();

  00004	8b 41 04	 mov	 eax, DWORD PTR [ecx+4]
  00007	83 65 fc 00	 and	 DWORD PTR $T514144[ebp], 0

; 151  : 	while( iter != m_vFishingItemList.end() )

  0000b	8b 49 08	 mov	 ecx, DWORD PTR [ecx+8]
  0000e	eb 0b		 jmp	 SHORT $LN45@GetFishing@9
$LL3@GetFishing@9:

; 152  : 	{
; 153  : 		if( (*iter).m_iItemNum == iItemType )

  00010	8b 50 30	 mov	 edx, DWORD PTR [eax+48]
  00013	3b 55 0c	 cmp	 edx, DWORD PTR _iItemType$[ebp]
  00016	74 17		 je	 SHORT $LN43@GetFishing@9

; 155  : 
; 156  : 		++iter;

  00018	83 c0 40	 add	 eax, 64			; 00000040H
$LN45@GetFishing@9:

; 151  : 	while( iter != m_vFishingItemList.end() )

  0001b	3b c1		 cmp	 eax, ecx
  0001d	75 f1		 jne	 SHORT $LL3@GetFishing@9

; 157  : 	}
; 158  : 
; 159  : 	return ioHashString();

  0001f	8b 4d 08	 mov	 ecx, DWORD PTR ___$ReturnUdt$[ebp]
  00022	ff 15 00 00 00
	00		 call	 DWORD PTR __imp_??0ioHashString@@QAE@XZ
$LN46@GetFishing@9:
  00028	8b 45 08	 mov	 eax, DWORD PTR ___$ReturnUdt$[ebp]

; 160  : }

  0002b	c9		 leave
  0002c	c2 08 00	 ret	 8
$LN43@GetFishing@9:

; 154  : 			return (*iter).m_Name;

  0002f	8b 4d 08	 mov	 ecx, DWORD PTR ___$ReturnUdt$[ebp]
  00032	50		 push	 eax
  00033	ff 15 00 00 00
	00		 call	 DWORD PTR __imp_??0ioHashString@@QAE@ABV0@@Z
  00039	eb ed		 jmp	 SHORT $LN46@GetFishing@9
?GetFishingItemName@ioFishingManager@@QAE?AVioHashString@@H@Z ENDP ; ioFishingManager::GetFishingItemName
_TEXT	ENDS
PUBLIC	?GetFishingItemDesc@ioFishingManager@@QAE?AVioHashString@@H@Z ; ioFishingManager::GetFishingItemDesc
; Function compile flags: /Ogsp
;	COMDAT ?GetFishingItemDesc@ioFishingManager@@QAE?AVioHashString@@H@Z
_TEXT	SEGMENT
$T514245 = -4						; size = 4
___$ReturnUdt$ = 8					; size = 4
_iItemType$ = 12					; size = 4
?GetFishingItemDesc@ioFishingManager@@QAE?AVioHashString@@H@Z PROC ; ioFishingManager::GetFishingItemDesc, COMDAT
; _this$ = ecx

; 163  : {

  00000	55		 push	 ebp
  00001	8b ec		 mov	 ebp, esp
  00003	51		 push	 ecx

; 164  : 	FishingItemList::iterator iter = m_vFishingItemList.begin();

  00004	8b 41 04	 mov	 eax, DWORD PTR [ecx+4]
  00007	83 65 fc 00	 and	 DWORD PTR $T514245[ebp], 0

; 165  : 	while( iter != m_vFishingItemList.end() )

  0000b	8b 49 08	 mov	 ecx, DWORD PTR [ecx+8]
  0000e	eb 0b		 jmp	 SHORT $LN45@GetFishing@10
$LL3@GetFishing@10:

; 166  : 	{
; 167  : 		if( (*iter).m_iItemNum == iItemType )

  00010	8b 50 30	 mov	 edx, DWORD PTR [eax+48]
  00013	3b 55 0c	 cmp	 edx, DWORD PTR _iItemType$[ebp]
  00016	74 17		 je	 SHORT $LN43@GetFishing@10

; 169  : 
; 170  : 		++iter;

  00018	83 c0 40	 add	 eax, 64			; 00000040H
$LN45@GetFishing@10:

; 165  : 	while( iter != m_vFishingItemList.end() )

  0001b	3b c1		 cmp	 eax, ecx
  0001d	75 f1		 jne	 SHORT $LL3@GetFishing@10

; 171  : 	}
; 172  : 
; 173  : 	return ioHashString();

  0001f	8b 4d 08	 mov	 ecx, DWORD PTR ___$ReturnUdt$[ebp]
  00022	ff 15 00 00 00
	00		 call	 DWORD PTR __imp_??0ioHashString@@QAE@XZ
$LN46@GetFishing@10:
  00028	8b 45 08	 mov	 eax, DWORD PTR ___$ReturnUdt$[ebp]

; 174  : }

  0002b	c9		 leave
  0002c	c2 08 00	 ret	 8
$LN43@GetFishing@10:

; 168  : 			return (*iter).m_Desc;

  0002f	8b 4d 08	 mov	 ecx, DWORD PTR ___$ReturnUdt$[ebp]
  00032	83 c0 20	 add	 eax, 32			; 00000020H
  00035	50		 push	 eax
  00036	ff 15 00 00 00
	00		 call	 DWORD PTR __imp_??0ioHashString@@QAE@ABV0@@Z
  0003c	eb ea		 jmp	 SHORT $LN46@GetFishing@10
?GetFishingItemDesc@ioFishingManager@@QAE?AVioHashString@@H@Z ENDP ; ioFishingManager::GetFishingItemDesc
_TEXT	ENDS
PUBLIC	?GetFishingItemIconName@ioFishingManager@@QAE?AVioHashString@@H@Z ; ioFishingManager::GetFishingItemIconName
; Function compile flags: /Ogsp
;	COMDAT ?GetFishingItemIconName@ioFishingManager@@QAE?AVioHashString@@H@Z
_TEXT	SEGMENT
$T514346 = -4						; size = 4
___$ReturnUdt$ = 8					; size = 4
_iItemType$ = 12					; size = 4
?GetFishingItemIconName@ioFishingManager@@QAE?AVioHashString@@H@Z PROC ; ioFishingManager::GetFishingItemIconName, COMDAT
; _this$ = ecx

; 177  : {

  00000	55		 push	 ebp
  00001	8b ec		 mov	 ebp, esp
  00003	51		 push	 ecx

; 178  : 	FishingItemList::iterator iter = m_vFishingItemList.begin();

  00004	8b 41 04	 mov	 eax, DWORD PTR [ecx+4]
  00007	83 65 fc 00	 and	 DWORD PTR $T514346[ebp], 0

; 179  : 	while( iter != m_vFishingItemList.end() )

  0000b	8b 49 08	 mov	 ecx, DWORD PTR [ecx+8]
  0000e	eb 0b		 jmp	 SHORT $LN45@GetFishing@11
$LL3@GetFishing@11:

; 180  : 	{
; 181  : 		if( (*iter).m_iItemNum == iItemType )

  00010	8b 50 30	 mov	 edx, DWORD PTR [eax+48]
  00013	3b 55 0c	 cmp	 edx, DWORD PTR _iItemType$[ebp]
  00016	74 17		 je	 SHORT $LN43@GetFishing@11

; 183  : 
; 184  : 		++iter;

  00018	83 c0 40	 add	 eax, 64			; 00000040H
$LN45@GetFishing@11:

; 179  : 	while( iter != m_vFishingItemList.end() )

  0001b	3b c1		 cmp	 eax, ecx
  0001d	75 f1		 jne	 SHORT $LL3@GetFishing@11

; 185  : 	}
; 186  : 
; 187  : 	return ioHashString();

  0001f	8b 4d 08	 mov	 ecx, DWORD PTR ___$ReturnUdt$[ebp]
  00022	ff 15 00 00 00
	00		 call	 DWORD PTR __imp_??0ioHashString@@QAE@XZ
$LN46@GetFishing@11:
  00028	8b 45 08	 mov	 eax, DWORD PTR ___$ReturnUdt$[ebp]

; 188  : }

  0002b	c9		 leave
  0002c	c2 08 00	 ret	 8
$LN43@GetFishing@11:

; 182  : 			return (*iter).m_IconName;

  0002f	8b 4d 08	 mov	 ecx, DWORD PTR ___$ReturnUdt$[ebp]
  00032	83 c0 10	 add	 eax, 16			; 00000010H
  00035	50		 push	 eax
  00036	ff 15 00 00 00
	00		 call	 DWORD PTR __imp_??0ioHashString@@QAE@ABV0@@Z
  0003c	eb ea		 jmp	 SHORT $LN46@GetFishing@11
?GetFishingItemIconName@ioFishingManager@@QAE?AVioHashString@@H@Z ENDP ; ioFishingManager::GetFishingItemIconName
_TEXT	ENDS
PUBLIC	??$_Cons_val@V?$allocator@UFishingItem@@@std@@UFishingItem@@ABU3@@std@@YAXAAV?$allocator@UFishingItem@@@0@PAUFishingItem@@ABU2@@Z ; std::_Cons_val<std::allocator<FishingItem>,FishingItem,FishingItem const &>
; Function compile flags: /Ogsp
; File c:\program files (x86)\microsoft visual studio 10.0\vc\include\xmemory
;	COMDAT ??$_Cons_val@V?$allocator@UFishingItem@@@std@@UFishingItem@@ABU3@@std@@YAXAAV?$allocator@UFishingItem@@@0@PAUFishingItem@@ABU2@@Z
_TEXT	SEGMENT
__Alval$ = 8						; size = 4
__Pdest$ = 12						; size = 4
__Src$ = 16						; size = 4
??$_Cons_val@V?$allocator@UFishingItem@@@std@@UFishingItem@@ABU3@@std@@YAXAAV?$allocator@UFishingItem@@@0@PAUFishingItem@@ABU2@@Z PROC ; std::_Cons_val<std::allocator<FishingItem>,FishingItem,FishingItem const &>, COMDAT

; 279  : 	{	// construct using allocator

  00000	55		 push	 ebp
  00001	8b ec		 mov	 ebp, esp

; 280  : 	_Alval.construct(_Pdest, _STD forward<_Ty2>(_Src));

  00003	ff 75 10	 push	 DWORD PTR __Src$[ebp]
  00006	ff 75 0c	 push	 DWORD PTR __Pdest$[ebp]
  00009	e8 00 00 00 00	 call	 ??$_Construct@UFishingItem@@ABU1@@std@@YAXPAUFishingItem@@ABU1@@Z ; std::_Construct<FishingItem,FishingItem const &>
  0000e	59		 pop	 ecx
  0000f	59		 pop	 ecx

; 281  : 	}

  00010	5d		 pop	 ebp
  00011	c3		 ret	 0
??$_Cons_val@V?$allocator@UFishingItem@@@std@@UFishingItem@@ABU3@@std@@YAXAAV?$allocator@UFishingItem@@@0@PAUFishingItem@@ABU2@@Z ENDP ; std::_Cons_val<std::allocator<FishingItem>,FishingItem,FishingItem const &>
_TEXT	ENDS
PUBLIC	??$_Cons_val@V?$allocator@UFishingItemGrade@@@std@@UFishingItemGrade@@ABU3@@std@@YAXAAV?$allocator@UFishingItemGrade@@@0@PAUFishingItemGrade@@ABU2@@Z ; std::_Cons_val<std::allocator<FishingItemGrade>,FishingItemGrade,FishingItemGrade const &>
; Function compile flags: /Ogsp
;	COMDAT ??$_Cons_val@V?$allocator@UFishingItemGrade@@@std@@UFishingItemGrade@@ABU3@@std@@YAXAAV?$allocator@UFishingItemGrade@@@0@PAUFishingItemGrade@@ABU2@@Z
_TEXT	SEGMENT
__Alval$ = 8						; size = 4
__Pdest$ = 12						; size = 4
__Src$ = 16						; size = 4
??$_Cons_val@V?$allocator@UFishingItemGrade@@@std@@UFishingItemGrade@@ABU3@@std@@YAXAAV?$allocator@UFishingItemGrade@@@0@PAUFishingItemGrade@@ABU2@@Z PROC ; std::_Cons_val<std::allocator<FishingItemGrade>,FishingItemGrade,FishingItemGrade const &>, COMDAT

; 279  : 	{	// construct using allocator

  00000	55		 push	 ebp
  00001	8b ec		 mov	 ebp, esp

; 280  : 	_Alval.construct(_Pdest, _STD forward<_Ty2>(_Src));

  00003	ff 75 10	 push	 DWORD PTR __Src$[ebp]
  00006	ff 75 0c	 push	 DWORD PTR __Pdest$[ebp]
  00009	e8 00 00 00 00	 call	 ??$_Construct@UFishingItemGrade@@ABU1@@std@@YAXPAUFishingItemGrade@@ABU1@@Z ; std::_Construct<FishingItemGrade,FishingItemGrade const &>
  0000e	59		 pop	 ecx
  0000f	59		 pop	 ecx

; 281  : 	}

  00010	5d		 pop	 ebp
  00011	c3		 ret	 0
??$_Cons_val@V?$allocator@UFishingItemGrade@@@std@@UFishingItemGrade@@ABU3@@std@@YAXAAV?$allocator@UFishingItemGrade@@@0@PAUFishingItemGrade@@ABU2@@Z ENDP ; std::_Cons_val<std::allocator<FishingItemGrade>,FishingItemGrade,FishingItemGrade const &>
_TEXT	ENDS
PUBLIC	??$_Cons_val@V?$allocator@UFishingTypeInfo@@@std@@UFishingTypeInfo@@ABU3@@std@@YAXAAV?$allocator@UFishingTypeInfo@@@0@PAUFishingTypeInfo@@ABU2@@Z ; std::_Cons_val<std::allocator<FishingTypeInfo>,FishingTypeInfo,FishingTypeInfo const &>
; Function compile flags: /Ogsp
;	COMDAT ??$_Cons_val@V?$allocator@UFishingTypeInfo@@@std@@UFishingTypeInfo@@ABU3@@std@@YAXAAV?$allocator@UFishingTypeInfo@@@0@PAUFishingTypeInfo@@ABU2@@Z
_TEXT	SEGMENT
__Alval$ = 8						; size = 4
__Pdest$ = 12						; size = 4
__Src$ = 16						; size = 4
??$_Cons_val@V?$allocator@UFishingTypeInfo@@@std@@UFishingTypeInfo@@ABU3@@std@@YAXAAV?$allocator@UFishingTypeInfo@@@0@PAUFishingTypeInfo@@ABU2@@Z PROC ; std::_Cons_val<std::allocator<FishingTypeInfo>,FishingTypeInfo,FishingTypeInfo const &>, COMDAT

; 279  : 	{	// construct using allocator

  00000	55		 push	 ebp
  00001	8b ec		 mov	 ebp, esp

; 280  : 	_Alval.construct(_Pdest, _STD forward<_Ty2>(_Src));

  00003	ff 75 10	 push	 DWORD PTR __Src$[ebp]
  00006	ff 75 0c	 push	 DWORD PTR __Pdest$[ebp]
  00009	e8 00 00 00 00	 call	 ??$_Construct@UFishingTypeInfo@@ABU1@@std@@YAXPAUFishingTypeInfo@@ABU1@@Z ; std::_Construct<FishingTypeInfo,FishingTypeInfo const &>
  0000e	59		 pop	 ecx
  0000f	59		 pop	 ecx

; 281  : 	}

  00010	5d		 pop	 ebp
  00011	c3		 ret	 0
??$_Cons_val@V?$allocator@UFishingTypeInfo@@@std@@UFishingTypeInfo@@ABU3@@std@@YAXAAV?$allocator@UFishingTypeInfo@@@0@PAUFishingTypeInfo@@ABU2@@Z ENDP ; std::_Cons_val<std::allocator<FishingTypeInfo>,FishingTypeInfo,FishingTypeInfo const &>
_TEXT	ENDS
PUBLIC	??$_Dest_val@V?$allocator@UFishingItem@@@std@@UFishingItem@@@std@@YAXAAV?$allocator@UFishingItem@@@0@PAUFishingItem@@@Z ; std::_Dest_val<std::allocator<FishingItem>,FishingItem>
; Function compile flags: /Ogsp
;	COMDAT ??$_Dest_val@V?$allocator@UFishingItem@@@std@@UFishingItem@@@std@@YAXAAV?$allocator@UFishingItem@@@0@PAUFishingItem@@@Z
_TEXT	SEGMENT
__Alval$ = 8						; size = 4
__Pdest$ = 12						; size = 4
??$_Dest_val@V?$allocator@UFishingItem@@@std@@UFishingItem@@@std@@YAXAAV?$allocator@UFishingItem@@@0@PAUFishingItem@@@Z PROC ; std::_Dest_val<std::allocator<FishingItem>,FishingItem>, COMDAT

; 286  : 	{	// destroy using allocator

  00000	55		 push	 ebp
  00001	8b ec		 mov	 ebp, esp

; 287  : 	_Alval.destroy(_Pdest);

  00003	8b 4d 0c	 mov	 ecx, DWORD PTR __Pdest$[ebp]

; 288  : 	}

  00006	5d		 pop	 ebp

; 287  : 	_Alval.destroy(_Pdest);

  00007	e9 00 00 00 00	 jmp	 ??1FishingItem@@QAE@XZ
??$_Dest_val@V?$allocator@UFishingItem@@@std@@UFishingItem@@@std@@YAXAAV?$allocator@UFishingItem@@@0@PAUFishingItem@@@Z ENDP ; std::_Dest_val<std::allocator<FishingItem>,FishingItem>
_TEXT	ENDS
PUBLIC	??$_Dest_val@V?$allocator@UFishingItemGrade@@@std@@UFishingItemGrade@@@std@@YAXAAV?$allocator@UFishingItemGrade@@@0@PAUFishingItemGrade@@@Z ; std::_Dest_val<std::allocator<FishingItemGrade>,FishingItemGrade>
; Function compile flags: /Ogsp
;	COMDAT ??$_Dest_val@V?$allocator@UFishingItemGrade@@@std@@UFishingItemGrade@@@std@@YAXAAV?$allocator@UFishingItemGrade@@@0@PAUFishingItemGrade@@@Z
_TEXT	SEGMENT
__Alval$ = 8						; size = 4
__Pdest$ = 12						; size = 4
??$_Dest_val@V?$allocator@UFishingItemGrade@@@std@@UFishingItemGrade@@@std@@YAXAAV?$allocator@UFishingItemGrade@@@0@PAUFishingItemGrade@@@Z PROC ; std::_Dest_val<std::allocator<FishingItemGrade>,FishingItemGrade>, COMDAT

; 286  : 	{	// destroy using allocator

  00000	55		 push	 ebp
  00001	8b ec		 mov	 ebp, esp

; 287  : 	_Alval.destroy(_Pdest);

  00003	8b 4d 0c	 mov	 ecx, DWORD PTR __Pdest$[ebp]

; 288  : 	}

  00006	5d		 pop	 ebp

; 287  : 	_Alval.destroy(_Pdest);

  00007	e9 00 00 00 00	 jmp	 ??1FishingItemGrade@@QAE@XZ
??$_Dest_val@V?$allocator@UFishingItemGrade@@@std@@UFishingItemGrade@@@std@@YAXAAV?$allocator@UFishingItemGrade@@@0@PAUFishingItemGrade@@@Z ENDP ; std::_Dest_val<std::allocator<FishingItemGrade>,FishingItemGrade>
_TEXT	ENDS
PUBLIC	??$_Dest_val@V?$allocator@UFishingTypeInfo@@@std@@UFishingTypeInfo@@@std@@YAXAAV?$allocator@UFishingTypeInfo@@@0@PAUFishingTypeInfo@@@Z ; std::_Dest_val<std::allocator<FishingTypeInfo>,FishingTypeInfo>
; Function compile flags: /Ogsp
;	COMDAT ??$_Dest_val@V?$allocator@UFishingTypeInfo@@@std@@UFishingTypeInfo@@@std@@YAXAAV?$allocator@UFishingTypeInfo@@@0@PAUFishingTypeInfo@@@Z
_TEXT	SEGMENT
__Alval$ = 8						; size = 4
__Pdest$ = 12						; size = 4
??$_Dest_val@V?$allocator@UFishingTypeInfo@@@std@@UFishingTypeInfo@@@std@@YAXAAV?$allocator@UFishingTypeInfo@@@0@PAUFishingTypeInfo@@@Z PROC ; std::_Dest_val<std::allocator<FishingTypeInfo>,FishingTypeInfo>, COMDAT

; 286  : 	{	// destroy using allocator

  00000	55		 push	 ebp
  00001	8b ec		 mov	 ebp, esp

; 287  : 	_Alval.destroy(_Pdest);

  00003	8b 4d 0c	 mov	 ecx, DWORD PTR __Pdest$[ebp]

; 288  : 	}

  00006	5d		 pop	 ebp

; 287  : 	_Alval.destroy(_Pdest);

  00007	e9 00 00 00 00	 jmp	 ??1FishingTypeInfo@@QAE@XZ
??$_Dest_val@V?$allocator@UFishingTypeInfo@@@std@@UFishingTypeInfo@@@std@@YAXAAV?$allocator@UFishingTypeInfo@@@0@PAUFishingTypeInfo@@@Z ENDP ; std::_Dest_val<std::allocator<FishingTypeInfo>,FishingTypeInfo>
_TEXT	ENDS
PUBLIC	??$_Destroy_range@V?$allocator@UFishingItem@@@std@@@std@@YAXPAUFishingItem@@0AAV?$allocator@UFishingItem@@@0@U_Nonscalar_ptr_iterator_tag@0@@Z ; std::_Destroy_range<std::allocator<FishingItem> >
; Function compile flags: /Ogsp
;	COMDAT ??$_Destroy_range@V?$allocator@UFishingItem@@@std@@@std@@YAXPAUFishingItem@@0AAV?$allocator@UFishingItem@@@0@U_Nonscalar_ptr_iterator_tag@0@@Z
_TEXT	SEGMENT
__First$ = 8						; size = 4
__Last$ = 12						; size = 4
__Al$ = 16						; size = 4
___formal$ = 20						; size = 1
??$_Destroy_range@V?$allocator@UFishingItem@@@std@@@std@@YAXPAUFishingItem@@0AAV?$allocator@UFishingItem@@@0@U_Nonscalar_ptr_iterator_tag@0@@Z PROC ; std::_Destroy_range<std::allocator<FishingItem> >, COMDAT

; 95   : 	{	// destroy [_First, _Last), arbitrary type

  00000	55		 push	 ebp
  00001	8b ec		 mov	 ebp, esp
  00003	56		 push	 esi

; 96   : 	for (; _First != _Last; ++_First)

  00004	8b 75 08	 mov	 esi, DWORD PTR __First$[ebp]
  00007	eb 0a		 jmp	 SHORT $LN17@Destroy_ra
$LL3@Destroy_ra:

; 97   : 		_Dest_val(_Al, _First);

  00009	8b ce		 mov	 ecx, esi
  0000b	e8 00 00 00 00	 call	 ??1FishingItem@@QAE@XZ
  00010	83 c6 40	 add	 esi, 64			; 00000040H
$LN17@Destroy_ra:

; 96   : 	for (; _First != _Last; ++_First)

  00013	3b 75 0c	 cmp	 esi, DWORD PTR __Last$[ebp]
  00016	75 f1		 jne	 SHORT $LL3@Destroy_ra
  00018	5e		 pop	 esi

; 98   : 	}

  00019	5d		 pop	 ebp
  0001a	c3		 ret	 0
??$_Destroy_range@V?$allocator@UFishingItem@@@std@@@std@@YAXPAUFishingItem@@0AAV?$allocator@UFishingItem@@@0@U_Nonscalar_ptr_iterator_tag@0@@Z ENDP ; std::_Destroy_range<std::allocator<FishingItem> >
_TEXT	ENDS
PUBLIC	??$_Destroy_range@V?$allocator@UFishingItemGrade@@@std@@@std@@YAXPAUFishingItemGrade@@0AAV?$allocator@UFishingItemGrade@@@0@U_Nonscalar_ptr_iterator_tag@0@@Z ; std::_Destroy_range<std::allocator<FishingItemGrade> >
; Function compile flags: /Ogsp
;	COMDAT ??$_Destroy_range@V?$allocator@UFishingItemGrade@@@std@@@std@@YAXPAUFishingItemGrade@@0AAV?$allocator@UFishingItemGrade@@@0@U_Nonscalar_ptr_iterator_tag@0@@Z
_TEXT	SEGMENT
__First$ = 8						; size = 4
__Last$ = 12						; size = 4
__Al$ = 16						; size = 4
___formal$ = 20						; size = 1
??$_Destroy_range@V?$allocator@UFishingItemGrade@@@std@@@std@@YAXPAUFishingItemGrade@@0AAV?$allocator@UFishingItemGrade@@@0@U_Nonscalar_ptr_iterator_tag@0@@Z PROC ; std::_Destroy_range<std::allocator<FishingItemGrade> >, COMDAT

; 95   : 	{	// destroy [_First, _Last), arbitrary type

  00000	55		 push	 ebp
  00001	8b ec		 mov	 ebp, esp
  00003	56		 push	 esi

; 96   : 	for (; _First != _Last; ++_First)

  00004	8b 75 08	 mov	 esi, DWORD PTR __First$[ebp]
  00007	eb 0a		 jmp	 SHORT $LN17@Destroy_ra@2
$LL3@Destroy_ra@2:

; 97   : 		_Dest_val(_Al, _First);

  00009	8b ce		 mov	 ecx, esi
  0000b	e8 00 00 00 00	 call	 ??1FishingItemGrade@@QAE@XZ
  00010	83 c6 28	 add	 esi, 40			; 00000028H
$LN17@Destroy_ra@2:

; 96   : 	for (; _First != _Last; ++_First)

  00013	3b 75 0c	 cmp	 esi, DWORD PTR __Last$[ebp]
  00016	75 f1		 jne	 SHORT $LL3@Destroy_ra@2
  00018	5e		 pop	 esi

; 98   : 	}

  00019	5d		 pop	 ebp
  0001a	c3		 ret	 0
??$_Destroy_range@V?$allocator@UFishingItemGrade@@@std@@@std@@YAXPAUFishingItemGrade@@0AAV?$allocator@UFishingItemGrade@@@0@U_Nonscalar_ptr_iterator_tag@0@@Z ENDP ; std::_Destroy_range<std::allocator<FishingItemGrade> >
_TEXT	ENDS
PUBLIC	??$_Destroy_range@V?$allocator@UFishingTypeInfo@@@std@@@std@@YAXPAUFishingTypeInfo@@0AAV?$allocator@UFishingTypeInfo@@@0@U_Nonscalar_ptr_iterator_tag@0@@Z ; std::_Destroy_range<std::allocator<FishingTypeInfo> >
; Function compile flags: /Ogsp
;	COMDAT ??$_Destroy_range@V?$allocator@UFishingTypeInfo@@@std@@@std@@YAXPAUFishingTypeInfo@@0AAV?$allocator@UFishingTypeInfo@@@0@U_Nonscalar_ptr_iterator_tag@0@@Z
_TEXT	SEGMENT
__First$ = 8						; size = 4
__Last$ = 12						; size = 4
__Al$ = 16						; size = 4
___formal$ = 20						; size = 1
??$_Destroy_range@V?$allocator@UFishingTypeInfo@@@std@@@std@@YAXPAUFishingTypeInfo@@0AAV?$allocator@UFishingTypeInfo@@@0@U_Nonscalar_ptr_iterator_tag@0@@Z PROC ; std::_Destroy_range<std::allocator<FishingTypeInfo> >, COMDAT

; 95   : 	{	// destroy [_First, _Last), arbitrary type

  00000	55		 push	 ebp
  00001	8b ec		 mov	 ebp, esp
  00003	56		 push	 esi

; 96   : 	for (; _First != _Last; ++_First)

  00004	8b 75 08	 mov	 esi, DWORD PTR __First$[ebp]
  00007	eb 0a		 jmp	 SHORT $LN17@Destroy_ra@3
$LL3@Destroy_ra@3:

; 97   : 		_Dest_val(_Al, _First);

  00009	8b ce		 mov	 ecx, esi
  0000b	e8 00 00 00 00	 call	 ??1FishingTypeInfo@@QAE@XZ
  00010	83 c6 40	 add	 esi, 64			; 00000040H
$LN17@Destroy_ra@3:

; 96   : 	for (; _First != _Last; ++_First)

  00013	3b 75 0c	 cmp	 esi, DWORD PTR __Last$[ebp]
  00016	75 f1		 jne	 SHORT $LL3@Destroy_ra@3
  00018	5e		 pop	 esi

; 98   : 	}

  00019	5d		 pop	 ebp
  0001a	c3		 ret	 0
??$_Destroy_range@V?$allocator@UFishingTypeInfo@@@std@@@std@@YAXPAUFishingTypeInfo@@0AAV?$allocator@UFishingTypeInfo@@@0@U_Nonscalar_ptr_iterator_tag@0@@Z ENDP ; std::_Destroy_range<std::allocator<FishingTypeInfo> >
_TEXT	ENDS
PUBLIC	??$_Uninit_move@PAUFishingItem@@PAU1@V?$allocator@UFishingItem@@@std@@U1@@std@@YAPAUFishingItem@@PAU1@00AAV?$allocator@UFishingItem@@@0@0U_Nonscalar_ptr_iterator_tag@0@@Z ; std::_Uninit_move<FishingItem *,FishingItem *,std::allocator<FishingItem>,FishingItem>
EXTRN	__EH_prolog3_catch:PROC
;	COMDAT xdata$x
xdata$x	SEGMENT
__catchsym$??$_Uninit_move@PAUFishingItem@@PAU1@V?$allocator@UFishingItem@@@std@@U1@@std@@YAPAUFishingItem@@PAU1@00AAV?$allocator@UFishingItem@@@0@0U_Nonscalar_ptr_iterator_tag@0@@Z$2 DD 040H
	DD	00H
	DD	00H
	DD	FLAT:__catch$??$_Uninit_move@PAUFishingItem@@PAU1@V?$allocator@UFishingItem@@@std@@U1@@std@@YAPAUFishingItem@@PAU1@00AAV?$allocator@UFishingItem@@@0@0U_Nonscalar_ptr_iterator_tag@0@@Z$0
__unwindtable$??$_Uninit_move@PAUFishingItem@@PAU1@V?$allocator@UFishingItem@@@std@@U1@@std@@YAPAUFishingItem@@PAU1@00AAV?$allocator@UFishingItem@@@0@0U_Nonscalar_ptr_iterator_tag@0@@Z DD 0ffffffffH
	DD	00H
	DD	0ffffffffH
	DD	00H
__tryblocktable$??$_Uninit_move@PAUFishingItem@@PAU1@V?$allocator@UFishingItem@@@std@@U1@@std@@YAPAUFishingItem@@PAU1@00AAV?$allocator@UFishingItem@@@0@0U_Nonscalar_ptr_iterator_tag@0@@Z DD 00H
	DD	00H
	DD	01H
	DD	01H
	DD	FLAT:__catchsym$??$_Uninit_move@PAUFishingItem@@PAU1@V?$allocator@UFishingItem@@@std@@U1@@std@@YAPAUFishingItem@@PAU1@00AAV?$allocator@UFishingItem@@@0@0U_Nonscalar_ptr_iterator_tag@0@@Z$2
__ehfuncinfo$??$_Uninit_move@PAUFishingItem@@PAU1@V?$allocator@UFishingItem@@@std@@U1@@std@@YAPAUFishingItem@@PAU1@00AAV?$allocator@UFishingItem@@@0@0U_Nonscalar_ptr_iterator_tag@0@@Z DD 019930522H
	DD	02H
	DD	FLAT:__unwindtable$??$_Uninit_move@PAUFishingItem@@PAU1@V?$allocator@UFishingItem@@@std@@U1@@std@@YAPAUFishingItem@@PAU1@00AAV?$allocator@UFishingItem@@@0@0U_Nonscalar_ptr_iterator_tag@0@@Z
	DD	01H
	DD	FLAT:__tryblocktable$??$_Uninit_move@PAUFishingItem@@PAU1@V?$allocator@UFishingItem@@@std@@U1@@std@@YAPAUFishingItem@@PAU1@00AAV?$allocator@UFishingItem@@@0@0U_Nonscalar_ptr_iterator_tag@0@@Z
	DD	2 DUP(00H)
	DD	00H
	DD	01H
; Function compile flags: /Ogsp
; File c:\program files (x86)\microsoft visual studio 10.0\vc\include\memory
xdata$x	ENDS
;	COMDAT ??$_Uninit_move@PAUFishingItem@@PAU1@V?$allocator@UFishingItem@@@std@@U1@@std@@YAPAUFishingItem@@PAU1@00AAV?$allocator@UFishingItem@@@0@0U_Nonscalar_ptr_iterator_tag@0@@Z
_TEXT	SEGMENT
__Next$ = -20						; size = 4
__$EHRec$ = -16						; size = 16
__First$ = 8						; size = 4
__Last$ = 12						; size = 4
__Dest$ = 16						; size = 4
__Al$ = 20						; size = 4
___formal$ = 24						; size = 4
___formal$ = 28						; size = 1
??$_Uninit_move@PAUFishingItem@@PAU1@V?$allocator@UFishingItem@@@std@@U1@@std@@YAPAUFishingItem@@PAU1@00AAV?$allocator@UFishingItem@@@0@0U_Nonscalar_ptr_iterator_tag@0@@Z PROC ; std::_Uninit_move<FishingItem *,FishingItem *,std::allocator<FishingItem>,FishingItem>, COMDAT

; 424  : 	{	// move [_First, _Last) to raw _Dest, using _Al, arbitrary type

  00000	6a 08		 push	 8
  00002	b8 00 00 00 00	 mov	 eax, __ehhandler$??$_Uninit_move@PAUFishingItem@@PAU1@V?$allocator@UFishingItem@@@std@@U1@@std@@YAPAUFishingItem@@PAU1@00AAV?$allocator@UFishingItem@@@0@0U_Nonscalar_ptr_iterator_tag@0@@Z
  00007	e8 00 00 00 00	 call	 __EH_prolog3_catch

; 425  : 	_DEBUG_RANGE(_First, _Last);
; 426  : 	_DEBUG_POINTER(_Dest);
; 427  : 	_FwdIt _Next = _Dest;

  0000c	8b 45 10	 mov	 eax, DWORD PTR __Dest$[ebp]

; 428  : 
; 429  : 	_TRY_BEGIN

  0000f	83 65 fc 00	 and	 DWORD PTR __$EHRec$[ebp+12], 0
  00013	8b 75 08	 mov	 esi, DWORD PTR __First$[ebp]
  00016	89 45 ec	 mov	 DWORD PTR __Next$[ebp], eax
$LL6@Uninit_mov:

; 430  : 	for (; _First != _Last; ++_Dest, ++_First)

  00019	3b 75 0c	 cmp	 esi, DWORD PTR __Last$[ebp]
  0001c	74 35		 je	 SHORT $LN4@Uninit_mov

; 431  : 		_Cons_val(_Al, _Dest, (_Valty &&)*_First);

  0001e	56		 push	 esi
  0001f	ff 75 10	 push	 DWORD PTR __Dest$[ebp]
  00022	ff 75 14	 push	 DWORD PTR __Al$[ebp]
  00025	e8 00 00 00 00	 call	 ??$_Cons_val@V?$allocator@UFishingItem@@@std@@UFishingItem@@U3@@std@@YAXAAV?$allocator@UFishingItem@@@0@PAUFishingItem@@$$QAU2@@Z ; std::_Cons_val<std::allocator<FishingItem>,FishingItem,FishingItem>
  0002a	83 45 10 40	 add	 DWORD PTR __Dest$[ebp], 64 ; 00000040H
  0002e	83 c4 0c	 add	 esp, 12			; 0000000cH
  00031	83 c6 40	 add	 esi, 64			; 00000040H
  00034	eb e3		 jmp	 SHORT $LL6@Uninit_mov
__catch$??$_Uninit_move@PAUFishingItem@@PAU1@V?$allocator@UFishingItem@@@std@@U1@@std@@YAPAUFishingItem@@PAU1@00AAV?$allocator@UFishingItem@@@0@0U_Nonscalar_ptr_iterator_tag@0@@Z$0:

; 432  : 	_CATCH_ALL
; 433  : 	for (; _Next != _Dest; ++_Next)

  00036	8b 75 ec	 mov	 esi, DWORD PTR __Next$[ebp]
  00039	eb 0a		 jmp	 SHORT $LN29@Uninit_mov
$LL3@Uninit_mov:

; 434  : 		_Dest_val(_Al, _Next);

  0003b	8b ce		 mov	 ecx, esi
  0003d	e8 00 00 00 00	 call	 ??1FishingItem@@QAE@XZ
  00042	83 c6 40	 add	 esi, 64			; 00000040H
$LN29@Uninit_mov:

; 432  : 	_CATCH_ALL
; 433  : 	for (; _Next != _Dest; ++_Next)

  00045	3b 75 10	 cmp	 esi, DWORD PTR __Dest$[ebp]
  00048	75 f1		 jne	 SHORT $LL3@Uninit_mov

; 435  : 	_RERAISE;

  0004a	6a 00		 push	 0
  0004c	6a 00		 push	 0
  0004e	e8 00 00 00 00	 call	 __CxxThrowException@8
$LN30@Uninit_mov:
$LN4@Uninit_mov:

; 436  : 	_CATCH_END
; 437  : 	return (_Dest);

  00053	8b 45 10	 mov	 eax, DWORD PTR __Dest$[ebp]

; 438  : 	}

  00056	e8 00 00 00 00	 call	 __EH_epilog3
  0005b	c3		 ret	 0
$LN28@Uninit_mov:
_TEXT	ENDS
;	COMDAT text$x
text$x	SEGMENT
__ehhandler$??$_Uninit_move@PAUFishingItem@@PAU1@V?$allocator@UFishingItem@@@std@@U1@@std@@YAPAUFishingItem@@PAU1@00AAV?$allocator@UFishingItem@@@0@0U_Nonscalar_ptr_iterator_tag@0@@Z:
  00000	8b 54 24 08	 mov	 edx, DWORD PTR [esp+8]
  00004	8d 42 0c	 lea	 eax, DWORD PTR [edx+12]
  00007	8b 4a e8	 mov	 ecx, DWORD PTR [edx-24]
  0000a	33 c8		 xor	 ecx, eax
  0000c	e8 00 00 00 00	 call	 @__security_check_cookie@4
  00011	b8 00 00 00 00	 mov	 eax, OFFSET __ehfuncinfo$??$_Uninit_move@PAUFishingItem@@PAU1@V?$allocator@UFishingItem@@@std@@U1@@std@@YAPAUFishingItem@@PAU1@00AAV?$allocator@UFishingItem@@@0@0U_Nonscalar_ptr_iterator_tag@0@@Z
  00016	e9 00 00 00 00	 jmp	 ___CxxFrameHandler3
text$x	ENDS
??$_Uninit_move@PAUFishingItem@@PAU1@V?$allocator@UFishingItem@@@std@@U1@@std@@YAPAUFishingItem@@PAU1@00AAV?$allocator@UFishingItem@@@0@0U_Nonscalar_ptr_iterator_tag@0@@Z ENDP ; std::_Uninit_move<FishingItem *,FishingItem *,std::allocator<FishingItem>,FishingItem>
PUBLIC	??$_Uninit_move@PAUFishingItemGrade@@PAU1@V?$allocator@UFishingItemGrade@@@std@@U1@@std@@YAPAUFishingItemGrade@@PAU1@00AAV?$allocator@UFishingItemGrade@@@0@0U_Nonscalar_ptr_iterator_tag@0@@Z ; std::_Uninit_move<FishingItemGrade *,FishingItemGrade *,std::allocator<FishingItemGrade>,FishingItemGrade>
;	COMDAT xdata$x
; File c:\program files (x86)\microsoft visual studio 10.0\vc\include\xmemory
xdata$x	SEGMENT
__catchsym$??$_Uninit_move@PAUFishingItemGrade@@PAU1@V?$allocator@UFishingItemGrade@@@std@@U1@@std@@YAPAUFishingItemGrade@@PAU1@00AAV?$allocator@UFishingItemGrade@@@0@0U_Nonscalar_ptr_iterator_tag@0@@Z$2 DD 040H
	DD	00H
	DD	00H
	DD	FLAT:__catch$??$_Uninit_move@PAUFishingItemGrade@@PAU1@V?$allocator@UFishingItemGrade@@@std@@U1@@std@@YAPAUFishingItemGrade@@PAU1@00AAV?$allocator@UFishingItemGrade@@@0@0U_Nonscalar_ptr_iterator_tag@0@@Z$0
__unwindtable$??$_Uninit_move@PAUFishingItemGrade@@PAU1@V?$allocator@UFishingItemGrade@@@std@@U1@@std@@YAPAUFishingItemGrade@@PAU1@00AAV?$allocator@UFishingItemGrade@@@0@0U_Nonscalar_ptr_iterator_tag@0@@Z DD 0ffffffffH
	DD	00H
	DD	0ffffffffH
	DD	00H
__tryblocktable$??$_Uninit_move@PAUFishingItemGrade@@PAU1@V?$allocator@UFishingItemGrade@@@std@@U1@@std@@YAPAUFishingItemGrade@@PAU1@00AAV?$allocator@UFishingItemGrade@@@0@0U_Nonscalar_ptr_iterator_tag@0@@Z DD 00H
	DD	00H
	DD	01H
	DD	01H
	DD	FLAT:__catchsym$??$_Uninit_move@PAUFishingItemGrade@@PAU1@V?$allocator@UFishingItemGrade@@@std@@U1@@std@@YAPAUFishingItemGrade@@PAU1@00AAV?$allocator@UFishingItemGrade@@@0@0U_Nonscalar_ptr_iterator_tag@0@@Z$2
__ehfuncinfo$??$_Uninit_move@PAUFishingItemGrade@@PAU1@V?$allocator@UFishingItemGrade@@@std@@U1@@std@@YAPAUFishingItemGrade@@PAU1@00AAV?$allocator@UFishingItemGrade@@@0@0U_Nonscalar_ptr_iterator_tag@0@@Z DD 019930522H
	DD	02H
	DD	FLAT:__unwindtable$??$_Uninit_move@PAUFishingItemGrade@@PAU1@V?$allocator@UFishingItemGrade@@@std@@U1@@std@@YAPAUFishingItemGrade@@PAU1@00AAV?$allocator@UFishingItemGrade@@@0@0U_Nonscalar_ptr_iterator_tag@0@@Z
	DD	01H
	DD	FLAT:__tryblocktable$??$_Uninit_move@PAUFishingItemGrade@@PAU1@V?$allocator@UFishingItemGrade@@@std@@U1@@std@@YAPAUFishingItemGrade@@PAU1@00AAV?$allocator@UFishingItemGrade@@@0@0U_Nonscalar_ptr_iterator_tag@0@@Z
	DD	2 DUP(00H)
	DD	00H
	DD	01H
; Function compile flags: /Ogsp
; File c:\program files (x86)\microsoft visual studio 10.0\vc\include\memory
xdata$x	ENDS
;	COMDAT ??$_Uninit_move@PAUFishingItemGrade@@PAU1@V?$allocator@UFishingItemGrade@@@std@@U1@@std@@YAPAUFishingItemGrade@@PAU1@00AAV?$allocator@UFishingItemGrade@@@0@0U_Nonscalar_ptr_iterator_tag@0@@Z
_TEXT	SEGMENT
__Next$ = -20						; size = 4
__$EHRec$ = -16						; size = 16
__First$ = 8						; size = 4
__Last$ = 12						; size = 4
__Dest$ = 16						; size = 4
__Al$ = 20						; size = 4
___formal$ = 24						; size = 4
___formal$ = 28						; size = 1
??$_Uninit_move@PAUFishingItemGrade@@PAU1@V?$allocator@UFishingItemGrade@@@std@@U1@@std@@YAPAUFishingItemGrade@@PAU1@00AAV?$allocator@UFishingItemGrade@@@0@0U_Nonscalar_ptr_iterator_tag@0@@Z PROC ; std::_Uninit_move<FishingItemGrade *,FishingItemGrade *,std::allocator<FishingItemGrade>,FishingItemGrade>, COMDAT

; 424  : 	{	// move [_First, _Last) to raw _Dest, using _Al, arbitrary type

  00000	6a 08		 push	 8
  00002	b8 00 00 00 00	 mov	 eax, __ehhandler$??$_Uninit_move@PAUFishingItemGrade@@PAU1@V?$allocator@UFishingItemGrade@@@std@@U1@@std@@YAPAUFishingItemGrade@@PAU1@00AAV?$allocator@UFishingItemGrade@@@0@0U_Nonscalar_ptr_iterator_tag@0@@Z
  00007	e8 00 00 00 00	 call	 __EH_prolog3_catch

; 425  : 	_DEBUG_RANGE(_First, _Last);
; 426  : 	_DEBUG_POINTER(_Dest);
; 427  : 	_FwdIt _Next = _Dest;

  0000c	8b 45 10	 mov	 eax, DWORD PTR __Dest$[ebp]

; 428  : 
; 429  : 	_TRY_BEGIN

  0000f	83 65 fc 00	 and	 DWORD PTR __$EHRec$[ebp+12], 0
  00013	8b 75 08	 mov	 esi, DWORD PTR __First$[ebp]
  00016	89 45 ec	 mov	 DWORD PTR __Next$[ebp], eax
$LL6@Uninit_mov@2:

; 430  : 	for (; _First != _Last; ++_Dest, ++_First)

  00019	3b 75 0c	 cmp	 esi, DWORD PTR __Last$[ebp]
  0001c	74 35		 je	 SHORT $LN4@Uninit_mov@2

; 431  : 		_Cons_val(_Al, _Dest, (_Valty &&)*_First);

  0001e	56		 push	 esi
  0001f	ff 75 10	 push	 DWORD PTR __Dest$[ebp]
  00022	ff 75 14	 push	 DWORD PTR __Al$[ebp]
  00025	e8 00 00 00 00	 call	 ??$_Cons_val@V?$allocator@UFishingItemGrade@@@std@@UFishingItemGrade@@U3@@std@@YAXAAV?$allocator@UFishingItemGrade@@@0@PAUFishingItemGrade@@$$QAU2@@Z ; std::_Cons_val<std::allocator<FishingItemGrade>,FishingItemGrade,FishingItemGrade>
  0002a	83 45 10 28	 add	 DWORD PTR __Dest$[ebp], 40 ; 00000028H
  0002e	83 c4 0c	 add	 esp, 12			; 0000000cH
  00031	83 c6 28	 add	 esi, 40			; 00000028H
  00034	eb e3		 jmp	 SHORT $LL6@Uninit_mov@2
__catch$??$_Uninit_move@PAUFishingItemGrade@@PAU1@V?$allocator@UFishingItemGrade@@@std@@U1@@std@@YAPAUFishingItemGrade@@PAU1@00AAV?$allocator@UFishingItemGrade@@@0@0U_Nonscalar_ptr_iterator_tag@0@@Z$0:

; 432  : 	_CATCH_ALL
; 433  : 	for (; _Next != _Dest; ++_Next)

  00036	8b 75 ec	 mov	 esi, DWORD PTR __Next$[ebp]
  00039	eb 0a		 jmp	 SHORT $LN29@Uninit_mov@2
$LL3@Uninit_mov@2:

; 434  : 		_Dest_val(_Al, _Next);

  0003b	8b ce		 mov	 ecx, esi
  0003d	e8 00 00 00 00	 call	 ??1FishingItemGrade@@QAE@XZ
  00042	83 c6 28	 add	 esi, 40			; 00000028H
$LN29@Uninit_mov@2:

; 432  : 	_CATCH_ALL
; 433  : 	for (; _Next != _Dest; ++_Next)

  00045	3b 75 10	 cmp	 esi, DWORD PTR __Dest$[ebp]
  00048	75 f1		 jne	 SHORT $LL3@Uninit_mov@2

; 435  : 	_RERAISE;

  0004a	6a 00		 push	 0
  0004c	6a 00		 push	 0
  0004e	e8 00 00 00 00	 call	 __CxxThrowException@8
$LN30@Uninit_mov@2:
$LN4@Uninit_mov@2:

; 436  : 	_CATCH_END
; 437  : 	return (_Dest);

  00053	8b 45 10	 mov	 eax, DWORD PTR __Dest$[ebp]

; 438  : 	}

  00056	e8 00 00 00 00	 call	 __EH_epilog3
  0005b	c3		 ret	 0
$LN28@Uninit_mov@2:
_TEXT	ENDS
;	COMDAT text$x
text$x	SEGMENT
__ehhandler$??$_Uninit_move@PAUFishingItemGrade@@PAU1@V?$allocator@UFishingItemGrade@@@std@@U1@@std@@YAPAUFishingItemGrade@@PAU1@00AAV?$allocator@UFishingItemGrade@@@0@0U_Nonscalar_ptr_iterator_tag@0@@Z:
  00000	8b 54 24 08	 mov	 edx, DWORD PTR [esp+8]
  00004	8d 42 0c	 lea	 eax, DWORD PTR [edx+12]
  00007	8b 4a e8	 mov	 ecx, DWORD PTR [edx-24]
  0000a	33 c8		 xor	 ecx, eax
  0000c	e8 00 00 00 00	 call	 @__security_check_cookie@4
  00011	b8 00 00 00 00	 mov	 eax, OFFSET __ehfuncinfo$??$_Uninit_move@PAUFishingItemGrade@@PAU1@V?$allocator@UFishingItemGrade@@@std@@U1@@std@@YAPAUFishingItemGrade@@PAU1@00AAV?$allocator@UFishingItemGrade@@@0@0U_Nonscalar_ptr_iterator_tag@0@@Z
  00016	e9 00 00 00 00	 jmp	 ___CxxFrameHandler3
text$x	ENDS
??$_Uninit_move@PAUFishingItemGrade@@PAU1@V?$allocator@UFishingItemGrade@@@std@@U1@@std@@YAPAUFishingItemGrade@@PAU1@00AAV?$allocator@UFishingItemGrade@@@0@0U_Nonscalar_ptr_iterator_tag@0@@Z ENDP ; std::_Uninit_move<FishingItemGrade *,FishingItemGrade *,std::allocator<FishingItemGrade>,FishingItemGrade>
PUBLIC	??$_Uninit_move@PAUFishingTypeInfo@@PAU1@V?$allocator@UFishingTypeInfo@@@std@@U1@@std@@YAPAUFishingTypeInfo@@PAU1@00AAV?$allocator@UFishingTypeInfo@@@0@0U_Nonscalar_ptr_iterator_tag@0@@Z ; std::_Uninit_move<FishingTypeInfo *,FishingTypeInfo *,std::allocator<FishingTypeInfo>,FishingTypeInfo>
;	COMDAT xdata$x
; File c:\program files (x86)\microsoft visual studio 10.0\vc\include\xmemory
xdata$x	SEGMENT
__catchsym$??$_Uninit_move@PAUFishingTypeInfo@@PAU1@V?$allocator@UFishingTypeInfo@@@std@@U1@@std@@YAPAUFishingTypeInfo@@PAU1@00AAV?$allocator@UFishingTypeInfo@@@0@0U_Nonscalar_ptr_iterator_tag@0@@Z$2 DD 040H
	DD	00H
	DD	00H
	DD	FLAT:__catch$??$_Uninit_move@PAUFishingTypeInfo@@PAU1@V?$allocator@UFishingTypeInfo@@@std@@U1@@std@@YAPAUFishingTypeInfo@@PAU1@00AAV?$allocator@UFishingTypeInfo@@@0@0U_Nonscalar_ptr_iterator_tag@0@@Z$0
__unwindtable$??$_Uninit_move@PAUFishingTypeInfo@@PAU1@V?$allocator@UFishingTypeInfo@@@std@@U1@@std@@YAPAUFishingTypeInfo@@PAU1@00AAV?$allocator@UFishingTypeInfo@@@0@0U_Nonscalar_ptr_iterator_tag@0@@Z DD 0ffffffffH
	DD	00H
	DD	0ffffffffH
	DD	00H
__tryblocktable$??$_Uninit_move@PAUFishingTypeInfo@@PAU1@V?$allocator@UFishingTypeInfo@@@std@@U1@@std@@YAPAUFishingTypeInfo@@PAU1@00AAV?$allocator@UFishingTypeInfo@@@0@0U_Nonscalar_ptr_iterator_tag@0@@Z DD 00H
	DD	00H
	DD	01H
	DD	01H
	DD	FLAT:__catchsym$??$_Uninit_move@PAUFishingTypeInfo@@PAU1@V?$allocator@UFishingTypeInfo@@@std@@U1@@std@@YAPAUFishingTypeInfo@@PAU1@00AAV?$allocator@UFishingTypeInfo@@@0@0U_Nonscalar_ptr_iterator_tag@0@@Z$2
__ehfuncinfo$??$_Uninit_move@PAUFishingTypeInfo@@PAU1@V?$allocator@UFishingTypeInfo@@@std@@U1@@std@@YAPAUFishingTypeInfo@@PAU1@00AAV?$allocator@UFishingTypeInfo@@@0@0U_Nonscalar_ptr_iterator_tag@0@@Z DD 019930522H
	DD	02H
	DD	FLAT:__unwindtable$??$_Uninit_move@PAUFishingTypeInfo@@PAU1@V?$allocator@UFishingTypeInfo@@@std@@U1@@std@@YAPAUFishingTypeInfo@@PAU1@00AAV?$allocator@UFishingTypeInfo@@@0@0U_Nonscalar_ptr_iterator_tag@0@@Z
	DD	01H
	DD	FLAT:__tryblocktable$??$_Uninit_move@PAUFishingTypeInfo@@PAU1@V?$allocator@UFishingTypeInfo@@@std@@U1@@std@@YAPAUFishingTypeInfo@@PAU1@00AAV?$allocator@UFishingTypeInfo@@@0@0U_Nonscalar_ptr_iterator_tag@0@@Z
	DD	2 DUP(00H)
	DD	00H
	DD	01H
; Function compile flags: /Ogsp
; File c:\program files (x86)\microsoft visual studio 10.0\vc\include\memory
xdata$x	ENDS
;	COMDAT ??$_Uninit_move@PAUFishingTypeInfo@@PAU1@V?$allocator@UFishingTypeInfo@@@std@@U1@@std@@YAPAUFishingTypeInfo@@PAU1@00AAV?$allocator@UFishingTypeInfo@@@0@0U_Nonscalar_ptr_iterator_tag@0@@Z
_TEXT	SEGMENT
__Next$ = -20						; size = 4
__$EHRec$ = -16						; size = 16
__First$ = 8						; size = 4
__Last$ = 12						; size = 4
__Dest$ = 16						; size = 4
__Al$ = 20						; size = 4
___formal$ = 24						; size = 4
___formal$ = 28						; size = 1
??$_Uninit_move@PAUFishingTypeInfo@@PAU1@V?$allocator@UFishingTypeInfo@@@std@@U1@@std@@YAPAUFishingTypeInfo@@PAU1@00AAV?$allocator@UFishingTypeInfo@@@0@0U_Nonscalar_ptr_iterator_tag@0@@Z PROC ; std::_Uninit_move<FishingTypeInfo *,FishingTypeInfo *,std::allocator<FishingTypeInfo>,FishingTypeInfo>, COMDAT

; 424  : 	{	// move [_First, _Last) to raw _Dest, using _Al, arbitrary type

  00000	6a 08		 push	 8
  00002	b8 00 00 00 00	 mov	 eax, __ehhandler$??$_Uninit_move@PAUFishingTypeInfo@@PAU1@V?$allocator@UFishingTypeInfo@@@std@@U1@@std@@YAPAUFishingTypeInfo@@PAU1@00AAV?$allocator@UFishingTypeInfo@@@0@0U_Nonscalar_ptr_iterator_tag@0@@Z
  00007	e8 00 00 00 00	 call	 __EH_prolog3_catch

; 425  : 	_DEBUG_RANGE(_First, _Last);
; 426  : 	_DEBUG_POINTER(_Dest);
; 427  : 	_FwdIt _Next = _Dest;

  0000c	8b 45 10	 mov	 eax, DWORD PTR __Dest$[ebp]

; 428  : 
; 429  : 	_TRY_BEGIN

  0000f	83 65 fc 00	 and	 DWORD PTR __$EHRec$[ebp+12], 0
  00013	8b 75 08	 mov	 esi, DWORD PTR __First$[ebp]
  00016	89 45 ec	 mov	 DWORD PTR __Next$[ebp], eax
$LL6@Uninit_mov@3:

; 430  : 	for (; _First != _Last; ++_Dest, ++_First)

  00019	3b 75 0c	 cmp	 esi, DWORD PTR __Last$[ebp]
  0001c	74 35		 je	 SHORT $LN4@Uninit_mov@3

; 431  : 		_Cons_val(_Al, _Dest, (_Valty &&)*_First);

  0001e	56		 push	 esi
  0001f	ff 75 10	 push	 DWORD PTR __Dest$[ebp]
  00022	ff 75 14	 push	 DWORD PTR __Al$[ebp]
  00025	e8 00 00 00 00	 call	 ??$_Cons_val@V?$allocator@UFishingTypeInfo@@@std@@UFishingTypeInfo@@U3@@std@@YAXAAV?$allocator@UFishingTypeInfo@@@0@PAUFishingTypeInfo@@$$QAU2@@Z ; std::_Cons_val<std::allocator<FishingTypeInfo>,FishingTypeInfo,FishingTypeInfo>
  0002a	83 45 10 40	 add	 DWORD PTR __Dest$[ebp], 64 ; 00000040H
  0002e	83 c4 0c	 add	 esp, 12			; 0000000cH
  00031	83 c6 40	 add	 esi, 64			; 00000040H
  00034	eb e3		 jmp	 SHORT $LL6@Uninit_mov@3
__catch$??$_Uninit_move@PAUFishingTypeInfo@@PAU1@V?$allocator@UFishingTypeInfo@@@std@@U1@@std@@YAPAUFishingTypeInfo@@PAU1@00AAV?$allocator@UFishingTypeInfo@@@0@0U_Nonscalar_ptr_iterator_tag@0@@Z$0:

; 432  : 	_CATCH_ALL
; 433  : 	for (; _Next != _Dest; ++_Next)

  00036	8b 75 ec	 mov	 esi, DWORD PTR __Next$[ebp]
  00039	eb 0a		 jmp	 SHORT $LN29@Uninit_mov@3
$LL3@Uninit_mov@3:

; 434  : 		_Dest_val(_Al, _Next);

  0003b	8b ce		 mov	 ecx, esi
  0003d	e8 00 00 00 00	 call	 ??1FishingTypeInfo@@QAE@XZ
  00042	83 c6 40	 add	 esi, 64			; 00000040H
$LN29@Uninit_mov@3:

; 432  : 	_CATCH_ALL
; 433  : 	for (; _Next != _Dest; ++_Next)

  00045	3b 75 10	 cmp	 esi, DWORD PTR __Dest$[ebp]
  00048	75 f1		 jne	 SHORT $LL3@Uninit_mov@3

; 435  : 	_RERAISE;

  0004a	6a 00		 push	 0
  0004c	6a 00		 push	 0
  0004e	e8 00 00 00 00	 call	 __CxxThrowException@8
$LN30@Uninit_mov@3:
$LN4@Uninit_mov@3:

; 436  : 	_CATCH_END
; 437  : 	return (_Dest);

  00053	8b 45 10	 mov	 eax, DWORD PTR __Dest$[ebp]

; 438  : 	}

  00056	e8 00 00 00 00	 call	 __EH_epilog3
  0005b	c3		 ret	 0
$LN28@Uninit_mov@3:
_TEXT	ENDS
;	COMDAT text$x
text$x	SEGMENT
__ehhandler$??$_Uninit_move@PAUFishingTypeInfo@@PAU1@V?$allocator@UFishingTypeInfo@@@std@@U1@@std@@YAPAUFishingTypeInfo@@PAU1@00AAV?$allocator@UFishingTypeInfo@@@0@0U_Nonscalar_ptr_iterator_tag@0@@Z:
  00000	8b 54 24 08	 mov	 edx, DWORD PTR [esp+8]
  00004	8d 42 0c	 lea	 eax, DWORD PTR [edx+12]
  00007	8b 4a e8	 mov	 ecx, DWORD PTR [edx-24]
  0000a	33 c8		 xor	 ecx, eax
  0000c	e8 00 00 00 00	 call	 @__security_check_cookie@4
  00011	b8 00 00 00 00	 mov	 eax, OFFSET __ehfuncinfo$??$_Uninit_move@PAUFishingTypeInfo@@PAU1@V?$allocator@UFishingTypeInfo@@@std@@U1@@std@@YAPAUFishingTypeInfo@@PAU1@00AAV?$allocator@UFishingTypeInfo@@@0@0U_Nonscalar_ptr_iterator_tag@0@@Z
  00016	e9 00 00 00 00	 jmp	 ___CxxFrameHandler3
text$x	ENDS
??$_Uninit_move@PAUFishingTypeInfo@@PAU1@V?$allocator@UFishingTypeInfo@@@std@@U1@@std@@YAPAUFishingTypeInfo@@PAU1@00AAV?$allocator@UFishingTypeInfo@@@0@0U_Nonscalar_ptr_iterator_tag@0@@Z ENDP ; std::_Uninit_move<FishingTypeInfo *,FishingTypeInfo *,std::allocator<FishingTypeInfo>,FishingTypeInfo>
PUBLIC	??$_Destroy_range@V?$allocator@UFishingItem@@@std@@@std@@YAXPAUFishingItem@@0AAV?$allocator@UFishingItem@@@0@@Z ; std::_Destroy_range<std::allocator<FishingItem> >
; Function compile flags: /Ogsp
; File c:\program files (x86)\microsoft visual studio 10.0\vc\include\xmemory
;	COMDAT ??$_Destroy_range@V?$allocator@UFishingItem@@@std@@@std@@YAXPAUFishingItem@@0AAV?$allocator@UFishingItem@@@0@@Z
_TEXT	SEGMENT
__First$ = 8						; size = 4
__Last$ = 12						; size = 4
__Al$ = 16						; size = 4
??$_Destroy_range@V?$allocator@UFishingItem@@@std@@@std@@YAXPAUFishingItem@@0AAV?$allocator@UFishingItem@@@0@@Z PROC ; std::_Destroy_range<std::allocator<FishingItem> >, COMDAT

; 87   : 	{	// destroy [_First, _Last)

  00000	55		 push	 ebp
  00001	8b ec		 mov	 ebp, esp
  00003	56		 push	 esi

; 88   : 	_Destroy_range(_First, _Last, _Al, _Ptr_cat(_First, _Last));

  00004	8b 75 08	 mov	 esi, DWORD PTR __First$[ebp]
  00007	eb 0a		 jmp	 SHORT $LN21@Destroy_ra@4
$LL7@Destroy_ra@4:
  00009	8b ce		 mov	 ecx, esi
  0000b	e8 00 00 00 00	 call	 ??1FishingItem@@QAE@XZ
  00010	83 c6 40	 add	 esi, 64			; 00000040H
$LN21@Destroy_ra@4:
  00013	3b 75 0c	 cmp	 esi, DWORD PTR __Last$[ebp]
  00016	75 f1		 jne	 SHORT $LL7@Destroy_ra@4
  00018	5e		 pop	 esi

; 89   : 	}

  00019	5d		 pop	 ebp
  0001a	c3		 ret	 0
??$_Destroy_range@V?$allocator@UFishingItem@@@std@@@std@@YAXPAUFishingItem@@0AAV?$allocator@UFishingItem@@@0@@Z ENDP ; std::_Destroy_range<std::allocator<FishingItem> >
_TEXT	ENDS
PUBLIC	??$_Destroy_range@V?$allocator@UFishingItemGrade@@@std@@@std@@YAXPAUFishingItemGrade@@0AAV?$allocator@UFishingItemGrade@@@0@@Z ; std::_Destroy_range<std::allocator<FishingItemGrade> >
; Function compile flags: /Ogsp
;	COMDAT ??$_Destroy_range@V?$allocator@UFishingItemGrade@@@std@@@std@@YAXPAUFishingItemGrade@@0AAV?$allocator@UFishingItemGrade@@@0@@Z
_TEXT	SEGMENT
__First$ = 8						; size = 4
__Last$ = 12						; size = 4
__Al$ = 16						; size = 4
??$_Destroy_range@V?$allocator@UFishingItemGrade@@@std@@@std@@YAXPAUFishingItemGrade@@0AAV?$allocator@UFishingItemGrade@@@0@@Z PROC ; std::_Destroy_range<std::allocator<FishingItemGrade> >, COMDAT

; 87   : 	{	// destroy [_First, _Last)

  00000	55		 push	 ebp
  00001	8b ec		 mov	 ebp, esp
  00003	56		 push	 esi

; 88   : 	_Destroy_range(_First, _Last, _Al, _Ptr_cat(_First, _Last));

  00004	8b 75 08	 mov	 esi, DWORD PTR __First$[ebp]
  00007	eb 0a		 jmp	 SHORT $LN21@Destroy_ra@5
$LL7@Destroy_ra@5:
  00009	8b ce		 mov	 ecx, esi
  0000b	e8 00 00 00 00	 call	 ??1FishingItemGrade@@QAE@XZ
  00010	83 c6 28	 add	 esi, 40			; 00000028H
$LN21@Destroy_ra@5:
  00013	3b 75 0c	 cmp	 esi, DWORD PTR __Last$[ebp]
  00016	75 f1		 jne	 SHORT $LL7@Destroy_ra@5
  00018	5e		 pop	 esi

; 89   : 	}

  00019	5d		 pop	 ebp
  0001a	c3		 ret	 0
??$_Destroy_range@V?$allocator@UFishingItemGrade@@@std@@@std@@YAXPAUFishingItemGrade@@0AAV?$allocator@UFishingItemGrade@@@0@@Z ENDP ; std::_Destroy_range<std::allocator<FishingItemGrade> >
_TEXT	ENDS
PUBLIC	??$_Destroy_range@V?$allocator@UFishingTypeInfo@@@std@@@std@@YAXPAUFishingTypeInfo@@0AAV?$allocator@UFishingTypeInfo@@@0@@Z ; std::_Destroy_range<std::allocator<FishingTypeInfo> >
; Function compile flags: /Ogsp
;	COMDAT ??$_Destroy_range@V?$allocator@UFishingTypeInfo@@@std@@@std@@YAXPAUFishingTypeInfo@@0AAV?$allocator@UFishingTypeInfo@@@0@@Z
_TEXT	SEGMENT
__First$ = 8						; size = 4
__Last$ = 12						; size = 4
__Al$ = 16						; size = 4
??$_Destroy_range@V?$allocator@UFishingTypeInfo@@@std@@@std@@YAXPAUFishingTypeInfo@@0AAV?$allocator@UFishingTypeInfo@@@0@@Z PROC ; std::_Destroy_range<std::allocator<FishingTypeInfo> >, COMDAT

; 87   : 	{	// destroy [_First, _Last)

  00000	55		 push	 ebp
  00001	8b ec		 mov	 ebp, esp
  00003	56		 push	 esi

; 88   : 	_Destroy_range(_First, _Last, _Al, _Ptr_cat(_First, _Last));

  00004	8b 75 08	 mov	 esi, DWORD PTR __First$[ebp]
  00007	eb 0a		 jmp	 SHORT $LN21@Destroy_ra@6
$LL7@Destroy_ra@6:
  00009	8b ce		 mov	 ecx, esi
  0000b	e8 00 00 00 00	 call	 ??1FishingTypeInfo@@QAE@XZ
  00010	83 c6 40	 add	 esi, 64			; 00000040H
$LN21@Destroy_ra@6:
  00013	3b 75 0c	 cmp	 esi, DWORD PTR __Last$[ebp]
  00016	75 f1		 jne	 SHORT $LL7@Destroy_ra@6
  00018	5e		 pop	 esi

; 89   : 	}

  00019	5d		 pop	 ebp
  0001a	c3		 ret	 0
??$_Destroy_range@V?$allocator@UFishingTypeInfo@@@std@@@std@@YAXPAUFishingTypeInfo@@0AAV?$allocator@UFishingTypeInfo@@@0@@Z ENDP ; std::_Destroy_range<std::allocator<FishingTypeInfo> >
_TEXT	ENDS
PUBLIC	??$_Uninitialized_move@PAUFishingItem@@PAU1@V?$allocator@UFishingItem@@@std@@@std@@YAPAUFishingItem@@PAU1@00AAV?$allocator@UFishingItem@@@0@@Z ; std::_Uninitialized_move<FishingItem *,FishingItem *,std::allocator<FishingItem> >
; Function compile flags: /Ogsp
; File c:\program files (x86)\microsoft visual studio 10.0\vc\include\memory
;	COMDAT ??$_Uninitialized_move@PAUFishingItem@@PAU1@V?$allocator@UFishingItem@@@std@@@std@@YAPAUFishingItem@@PAU1@00AAV?$allocator@UFishingItem@@@0@@Z
_TEXT	SEGMENT
__Cat$514947 = -4					; size = 1
__First$ = 8						; size = 4
__Last$ = 12						; size = 4
__Dest$ = 16						; size = 4
__Al$ = 20						; size = 4
??$_Uninitialized_move@PAUFishingItem@@PAU1@V?$allocator@UFishingItem@@@std@@@std@@YAPAUFishingItem@@PAU1@00AAV?$allocator@UFishingItem@@@0@@Z PROC ; std::_Uninitialized_move<FishingItem *,FishingItem *,std::allocator<FishingItem> >, COMDAT

; 469  : 	{	// move [_First, _Last) to raw _Dest, using _Al

  00000	55		 push	 ebp
  00001	8b ec		 mov	 ebp, esp
  00003	51		 push	 ecx

; 470  : 	return (_Uninit_move(_First, _Last, _Dest, _Al,
; 471  : 		_Val_type(_First), _Ptr_cat(_First, _Dest)));

  00004	ff 75 fc	 push	 DWORD PTR __Cat$514947[ebp]
  00007	6a 00		 push	 0
  00009	ff 75 14	 push	 DWORD PTR __Al$[ebp]
  0000c	ff 75 10	 push	 DWORD PTR __Dest$[ebp]
  0000f	ff 75 0c	 push	 DWORD PTR __Last$[ebp]
  00012	ff 75 08	 push	 DWORD PTR __First$[ebp]
  00015	e8 00 00 00 00	 call	 ??$_Uninit_move@PAUFishingItem@@PAU1@V?$allocator@UFishingItem@@@std@@U1@@std@@YAPAUFishingItem@@PAU1@00AAV?$allocator@UFishingItem@@@0@0U_Nonscalar_ptr_iterator_tag@0@@Z ; std::_Uninit_move<FishingItem *,FishingItem *,std::allocator<FishingItem>,FishingItem>
  0001a	83 c4 18	 add	 esp, 24			; 00000018H

; 472  : 	}

  0001d	c9		 leave
  0001e	c3		 ret	 0
??$_Uninitialized_move@PAUFishingItem@@PAU1@V?$allocator@UFishingItem@@@std@@@std@@YAPAUFishingItem@@PAU1@00AAV?$allocator@UFishingItem@@@0@@Z ENDP ; std::_Uninitialized_move<FishingItem *,FishingItem *,std::allocator<FishingItem> >
_TEXT	ENDS
PUBLIC	??$_Uninitialized_move@PAUFishingItemGrade@@PAU1@V?$allocator@UFishingItemGrade@@@std@@@std@@YAPAUFishingItemGrade@@PAU1@00AAV?$allocator@UFishingItemGrade@@@0@@Z ; std::_Uninitialized_move<FishingItemGrade *,FishingItemGrade *,std::allocator<FishingItemGrade> >
; Function compile flags: /Ogsp
;	COMDAT ??$_Uninitialized_move@PAUFishingItemGrade@@PAU1@V?$allocator@UFishingItemGrade@@@std@@@std@@YAPAUFishingItemGrade@@PAU1@00AAV?$allocator@UFishingItemGrade@@@0@@Z
_TEXT	SEGMENT
__Cat$514957 = -4					; size = 1
__First$ = 8						; size = 4
__Last$ = 12						; size = 4
__Dest$ = 16						; size = 4
__Al$ = 20						; size = 4
??$_Uninitialized_move@PAUFishingItemGrade@@PAU1@V?$allocator@UFishingItemGrade@@@std@@@std@@YAPAUFishingItemGrade@@PAU1@00AAV?$allocator@UFishingItemGrade@@@0@@Z PROC ; std::_Uninitialized_move<FishingItemGrade *,FishingItemGrade *,std::allocator<FishingItemGrade> >, COMDAT

; 469  : 	{	// move [_First, _Last) to raw _Dest, using _Al

  00000	55		 push	 ebp
  00001	8b ec		 mov	 ebp, esp
  00003	51		 push	 ecx

; 470  : 	return (_Uninit_move(_First, _Last, _Dest, _Al,
; 471  : 		_Val_type(_First), _Ptr_cat(_First, _Dest)));

  00004	ff 75 fc	 push	 DWORD PTR __Cat$514957[ebp]
  00007	6a 00		 push	 0
  00009	ff 75 14	 push	 DWORD PTR __Al$[ebp]
  0000c	ff 75 10	 push	 DWORD PTR __Dest$[ebp]
  0000f	ff 75 0c	 push	 DWORD PTR __Last$[ebp]
  00012	ff 75 08	 push	 DWORD PTR __First$[ebp]
  00015	e8 00 00 00 00	 call	 ??$_Uninit_move@PAUFishingItemGrade@@PAU1@V?$allocator@UFishingItemGrade@@@std@@U1@@std@@YAPAUFishingItemGrade@@PAU1@00AAV?$allocator@UFishingItemGrade@@@0@0U_Nonscalar_ptr_iterator_tag@0@@Z ; std::_Uninit_move<FishingItemGrade *,FishingItemGrade *,std::allocator<FishingItemGrade>,FishingItemGrade>
  0001a	83 c4 18	 add	 esp, 24			; 00000018H

; 472  : 	}

  0001d	c9		 leave
  0001e	c3		 ret	 0
??$_Uninitialized_move@PAUFishingItemGrade@@PAU1@V?$allocator@UFishingItemGrade@@@std@@@std@@YAPAUFishingItemGrade@@PAU1@00AAV?$allocator@UFishingItemGrade@@@0@@Z ENDP ; std::_Uninitialized_move<FishingItemGrade *,FishingItemGrade *,std::allocator<FishingItemGrade> >
_TEXT	ENDS
PUBLIC	??$_Uninitialized_move@PAUFishingTypeInfo@@PAU1@V?$allocator@UFishingTypeInfo@@@std@@@std@@YAPAUFishingTypeInfo@@PAU1@00AAV?$allocator@UFishingTypeInfo@@@0@@Z ; std::_Uninitialized_move<FishingTypeInfo *,FishingTypeInfo *,std::allocator<FishingTypeInfo> >
; Function compile flags: /Ogsp
;	COMDAT ??$_Uninitialized_move@PAUFishingTypeInfo@@PAU1@V?$allocator@UFishingTypeInfo@@@std@@@std@@YAPAUFishingTypeInfo@@PAU1@00AAV?$allocator@UFishingTypeInfo@@@0@@Z
_TEXT	SEGMENT
__Cat$514967 = -4					; size = 1
__First$ = 8						; size = 4
__Last$ = 12						; size = 4
__Dest$ = 16						; size = 4
__Al$ = 20						; size = 4
??$_Uninitialized_move@PAUFishingTypeInfo@@PAU1@V?$allocator@UFishingTypeInfo@@@std@@@std@@YAPAUFishingTypeInfo@@PAU1@00AAV?$allocator@UFishingTypeInfo@@@0@@Z PROC ; std::_Uninitialized_move<FishingTypeInfo *,FishingTypeInfo *,std::allocator<FishingTypeInfo> >, COMDAT

; 469  : 	{	// move [_First, _Last) to raw _Dest, using _Al

  00000	55		 push	 ebp
  00001	8b ec		 mov	 ebp, esp
  00003	51		 push	 ecx

; 470  : 	return (_Uninit_move(_First, _Last, _Dest, _Al,
; 471  : 		_Val_type(_First), _Ptr_cat(_First, _Dest)));

  00004	ff 75 fc	 push	 DWORD PTR __Cat$514967[ebp]
  00007	6a 00		 push	 0
  00009	ff 75 14	 push	 DWORD PTR __Al$[ebp]
  0000c	ff 75 10	 push	 DWORD PTR __Dest$[ebp]
  0000f	ff 75 0c	 push	 DWORD PTR __Last$[ebp]
  00012	ff 75 08	 push	 DWORD PTR __First$[ebp]
  00015	e8 00 00 00 00	 call	 ??$_Uninit_move@PAUFishingTypeInfo@@PAU1@V?$allocator@UFishingTypeInfo@@@std@@U1@@std@@YAPAUFishingTypeInfo@@PAU1@00AAV?$allocator@UFishingTypeInfo@@@0@0U_Nonscalar_ptr_iterator_tag@0@@Z ; std::_Uninit_move<FishingTypeInfo *,FishingTypeInfo *,std::allocator<FishingTypeInfo>,FishingTypeInfo>
  0001a	83 c4 18	 add	 esp, 24			; 00000018H

; 472  : 	}

  0001d	c9		 leave
  0001e	c3		 ret	 0
??$_Uninitialized_move@PAUFishingTypeInfo@@PAU1@V?$allocator@UFishingTypeInfo@@@std@@@std@@YAPAUFishingTypeInfo@@PAU1@00AAV?$allocator@UFishingTypeInfo@@@0@@Z ENDP ; std::_Uninitialized_move<FishingTypeInfo *,FishingTypeInfo *,std::allocator<FishingTypeInfo> >
_TEXT	ENDS
PUBLIC	?_Destroy@?$vector@UFishingItem@@V?$allocator@UFishingItem@@@std@@@std@@IAEXPAUFishingItem@@0@Z ; std::vector<FishingItem,std::allocator<FishingItem> >::_Destroy
; Function compile flags: /Ogsp
; File c:\program files (x86)\microsoft visual studio 10.0\vc\include\vector
;	COMDAT ?_Destroy@?$vector@UFishingItem@@V?$allocator@UFishingItem@@@std@@@std@@IAEXPAUFishingItem@@0@Z
_TEXT	SEGMENT
__First$ = 8						; size = 4
__Last$ = 12						; size = 4
?_Destroy@?$vector@UFishingItem@@V?$allocator@UFishingItem@@@std@@@std@@IAEXPAUFishingItem@@0@Z PROC ; std::vector<FishingItem,std::allocator<FishingItem> >::_Destroy, COMDAT
; _this$ = ecx

; 1269 : 		{	// destroy [_First, _Last) using allocator

  00000	55		 push	 ebp
  00001	8b ec		 mov	 ebp, esp
  00003	56		 push	 esi

; 1270 : 		_Destroy_range(_First, _Last, this->_Alval);

  00004	8b 75 08	 mov	 esi, DWORD PTR __First$[ebp]
  00007	eb 0a		 jmp	 SHORT $LN23@Destroy
$LL9@Destroy:
  00009	8b ce		 mov	 ecx, esi
  0000b	e8 00 00 00 00	 call	 ??1FishingItem@@QAE@XZ
  00010	83 c6 40	 add	 esi, 64			; 00000040H
$LN23@Destroy:
  00013	3b 75 0c	 cmp	 esi, DWORD PTR __Last$[ebp]
  00016	75 f1		 jne	 SHORT $LL9@Destroy
  00018	5e		 pop	 esi

; 1271 : 		}

  00019	5d		 pop	 ebp
  0001a	c2 08 00	 ret	 8
?_Destroy@?$vector@UFishingItem@@V?$allocator@UFishingItem@@@std@@@std@@IAEXPAUFishingItem@@0@Z ENDP ; std::vector<FishingItem,std::allocator<FishingItem> >::_Destroy
_TEXT	ENDS
PUBLIC	?_Destroy@?$vector@UFishingItemGrade@@V?$allocator@UFishingItemGrade@@@std@@@std@@IAEXPAUFishingItemGrade@@0@Z ; std::vector<FishingItemGrade,std::allocator<FishingItemGrade> >::_Destroy
; Function compile flags: /Ogsp
;	COMDAT ?_Destroy@?$vector@UFishingItemGrade@@V?$allocator@UFishingItemGrade@@@std@@@std@@IAEXPAUFishingItemGrade@@0@Z
_TEXT	SEGMENT
__First$ = 8						; size = 4
__Last$ = 12						; size = 4
?_Destroy@?$vector@UFishingItemGrade@@V?$allocator@UFishingItemGrade@@@std@@@std@@IAEXPAUFishingItemGrade@@0@Z PROC ; std::vector<FishingItemGrade,std::allocator<FishingItemGrade> >::_Destroy, COMDAT
; _this$ = ecx

; 1269 : 		{	// destroy [_First, _Last) using allocator

  00000	55		 push	 ebp
  00001	8b ec		 mov	 ebp, esp
  00003	56		 push	 esi

; 1270 : 		_Destroy_range(_First, _Last, this->_Alval);

  00004	8b 75 08	 mov	 esi, DWORD PTR __First$[ebp]
  00007	eb 0a		 jmp	 SHORT $LN23@Destroy@2
$LL9@Destroy@2:
  00009	8b ce		 mov	 ecx, esi
  0000b	e8 00 00 00 00	 call	 ??1FishingItemGrade@@QAE@XZ
  00010	83 c6 28	 add	 esi, 40			; 00000028H
$LN23@Destroy@2:
  00013	3b 75 0c	 cmp	 esi, DWORD PTR __Last$[ebp]
  00016	75 f1		 jne	 SHORT $LL9@Destroy@2
  00018	5e		 pop	 esi

; 1271 : 		}

  00019	5d		 pop	 ebp
  0001a	c2 08 00	 ret	 8
?_Destroy@?$vector@UFishingItemGrade@@V?$allocator@UFishingItemGrade@@@std@@@std@@IAEXPAUFishingItemGrade@@0@Z ENDP ; std::vector<FishingItemGrade,std::allocator<FishingItemGrade> >::_Destroy
_TEXT	ENDS
PUBLIC	?_Destroy@?$vector@UFishingTypeInfo@@V?$allocator@UFishingTypeInfo@@@std@@@std@@IAEXPAUFishingTypeInfo@@0@Z ; std::vector<FishingTypeInfo,std::allocator<FishingTypeInfo> >::_Destroy
; Function compile flags: /Ogsp
;	COMDAT ?_Destroy@?$vector@UFishingTypeInfo@@V?$allocator@UFishingTypeInfo@@@std@@@std@@IAEXPAUFishingTypeInfo@@0@Z
_TEXT	SEGMENT
__First$ = 8						; size = 4
__Last$ = 12						; size = 4
?_Destroy@?$vector@UFishingTypeInfo@@V?$allocator@UFishingTypeInfo@@@std@@@std@@IAEXPAUFishingTypeInfo@@0@Z PROC ; std::vector<FishingTypeInfo,std::allocator<FishingTypeInfo> >::_Destroy, COMDAT
; _this$ = ecx

; 1269 : 		{	// destroy [_First, _Last) using allocator

  00000	55		 push	 ebp
  00001	8b ec		 mov	 ebp, esp
  00003	56		 push	 esi

; 1270 : 		_Destroy_range(_First, _Last, this->_Alval);

  00004	8b 75 08	 mov	 esi, DWORD PTR __First$[ebp]
  00007	eb 0a		 jmp	 SHORT $LN23@Destroy@3
$LL9@Destroy@3:
  00009	8b ce		 mov	 ecx, esi
  0000b	e8 00 00 00 00	 call	 ??1FishingTypeInfo@@QAE@XZ
  00010	83 c6 40	 add	 esi, 64			; 00000040H
$LN23@Destroy@3:
  00013	3b 75 0c	 cmp	 esi, DWORD PTR __Last$[ebp]
  00016	75 f1		 jne	 SHORT $LL9@Destroy@3
  00018	5e		 pop	 esi

; 1271 : 		}

  00019	5d		 pop	 ebp
  0001a	c2 08 00	 ret	 8
?_Destroy@?$vector@UFishingTypeInfo@@V?$allocator@UFishingTypeInfo@@@std@@@std@@IAEXPAUFishingTypeInfo@@0@Z ENDP ; std::vector<FishingTypeInfo,std::allocator<FishingTypeInfo> >::_Destroy
_TEXT	ENDS
PUBLIC	??$_Umove@PAUFishingItem@@@?$vector@UFishingItem@@V?$allocator@UFishingItem@@@std@@@std@@IAEPAUFishingItem@@PAU2@00@Z ; std::vector<FishingItem,std::allocator<FishingItem> >::_Umove<FishingItem *>
; Function compile flags: /Ogsp
;	COMDAT ??$_Umove@PAUFishingItem@@@?$vector@UFishingItem@@V?$allocator@UFishingItem@@@std@@@std@@IAEPAUFishingItem@@PAU2@00@Z
_TEXT	SEGMENT
__First$ = 8						; size = 4
__Last$ = 12						; size = 4
__Ptr$ = 16						; size = 4
??$_Umove@PAUFishingItem@@@?$vector@UFishingItem@@V?$allocator@UFishingItem@@@std@@@std@@IAEPAUFishingItem@@PAU2@00@Z PROC ; std::vector<FishingItem,std::allocator<FishingItem> >::_Umove<FishingItem *>, COMDAT
; _this$ = ecx

; 1322 : 		pointer _Umove(_Iter _First, _Iter _Last, pointer _Ptr)

  00000	55		 push	 ebp
  00001	8b ec		 mov	 ebp, esp

; 1323 : 		{	// move initializing [_First, _Last), using allocator
; 1324 : 		return (_Uninitialized_move(_First, _Last,
; 1325 : 			_Ptr, this->_Alval));

  00003	83 c1 0c	 add	 ecx, 12			; 0000000cH
  00006	51		 push	 ecx
  00007	ff 75 10	 push	 DWORD PTR __Ptr$[ebp]
  0000a	ff 75 0c	 push	 DWORD PTR __Last$[ebp]
  0000d	ff 75 08	 push	 DWORD PTR __First$[ebp]
  00010	e8 00 00 00 00	 call	 ??$_Uninitialized_move@PAUFishingItem@@PAU1@V?$allocator@UFishingItem@@@std@@@std@@YAPAUFishingItem@@PAU1@00AAV?$allocator@UFishingItem@@@0@@Z ; std::_Uninitialized_move<FishingItem *,FishingItem *,std::allocator<FishingItem> >
  00015	83 c4 10	 add	 esp, 16			; 00000010H

; 1326 : 		}

  00018	5d		 pop	 ebp
  00019	c2 0c 00	 ret	 12			; 0000000cH
??$_Umove@PAUFishingItem@@@?$vector@UFishingItem@@V?$allocator@UFishingItem@@@std@@@std@@IAEPAUFishingItem@@PAU2@00@Z ENDP ; std::vector<FishingItem,std::allocator<FishingItem> >::_Umove<FishingItem *>
_TEXT	ENDS
PUBLIC	??$_Umove@PAUFishingItemGrade@@@?$vector@UFishingItemGrade@@V?$allocator@UFishingItemGrade@@@std@@@std@@IAEPAUFishingItemGrade@@PAU2@00@Z ; std::vector<FishingItemGrade,std::allocator<FishingItemGrade> >::_Umove<FishingItemGrade *>
; Function compile flags: /Ogsp
;	COMDAT ??$_Umove@PAUFishingItemGrade@@@?$vector@UFishingItemGrade@@V?$allocator@UFishingItemGrade@@@std@@@std@@IAEPAUFishingItemGrade@@PAU2@00@Z
_TEXT	SEGMENT
__First$ = 8						; size = 4
__Last$ = 12						; size = 4
__Ptr$ = 16						; size = 4
??$_Umove@PAUFishingItemGrade@@@?$vector@UFishingItemGrade@@V?$allocator@UFishingItemGrade@@@std@@@std@@IAEPAUFishingItemGrade@@PAU2@00@Z PROC ; std::vector<FishingItemGrade,std::allocator<FishingItemGrade> >::_Umove<FishingItemGrade *>, COMDAT
; _this$ = ecx

; 1322 : 		pointer _Umove(_Iter _First, _Iter _Last, pointer _Ptr)

  00000	55		 push	 ebp
  00001	8b ec		 mov	 ebp, esp

; 1323 : 		{	// move initializing [_First, _Last), using allocator
; 1324 : 		return (_Uninitialized_move(_First, _Last,
; 1325 : 			_Ptr, this->_Alval));

  00003	83 c1 0c	 add	 ecx, 12			; 0000000cH
  00006	51		 push	 ecx
  00007	ff 75 10	 push	 DWORD PTR __Ptr$[ebp]
  0000a	ff 75 0c	 push	 DWORD PTR __Last$[ebp]
  0000d	ff 75 08	 push	 DWORD PTR __First$[ebp]
  00010	e8 00 00 00 00	 call	 ??$_Uninitialized_move@PAUFishingItemGrade@@PAU1@V?$allocator@UFishingItemGrade@@@std@@@std@@YAPAUFishingItemGrade@@PAU1@00AAV?$allocator@UFishingItemGrade@@@0@@Z ; std::_Uninitialized_move<FishingItemGrade *,FishingItemGrade *,std::allocator<FishingItemGrade> >
  00015	83 c4 10	 add	 esp, 16			; 00000010H

; 1326 : 		}

  00018	5d		 pop	 ebp
  00019	c2 0c 00	 ret	 12			; 0000000cH
??$_Umove@PAUFishingItemGrade@@@?$vector@UFishingItemGrade@@V?$allocator@UFishingItemGrade@@@std@@@std@@IAEPAUFishingItemGrade@@PAU2@00@Z ENDP ; std::vector<FishingItemGrade,std::allocator<FishingItemGrade> >::_Umove<FishingItemGrade *>
_TEXT	ENDS
PUBLIC	??$_Umove@PAUFishingTypeInfo@@@?$vector@UFishingTypeInfo@@V?$allocator@UFishingTypeInfo@@@std@@@std@@IAEPAUFishingTypeInfo@@PAU2@00@Z ; std::vector<FishingTypeInfo,std::allocator<FishingTypeInfo> >::_Umove<FishingTypeInfo *>
; Function compile flags: /Ogsp
;	COMDAT ??$_Umove@PAUFishingTypeInfo@@@?$vector@UFishingTypeInfo@@V?$allocator@UFishingTypeInfo@@@std@@@std@@IAEPAUFishingTypeInfo@@PAU2@00@Z
_TEXT	SEGMENT
__First$ = 8						; size = 4
__Last$ = 12						; size = 4
__Ptr$ = 16						; size = 4
??$_Umove@PAUFishingTypeInfo@@@?$vector@UFishingTypeInfo@@V?$allocator@UFishingTypeInfo@@@std@@@std@@IAEPAUFishingTypeInfo@@PAU2@00@Z PROC ; std::vector<FishingTypeInfo,std::allocator<FishingTypeInfo> >::_Umove<FishingTypeInfo *>, COMDAT
; _this$ = ecx

; 1322 : 		pointer _Umove(_Iter _First, _Iter _Last, pointer _Ptr)

  00000	55		 push	 ebp
  00001	8b ec		 mov	 ebp, esp

; 1323 : 		{	// move initializing [_First, _Last), using allocator
; 1324 : 		return (_Uninitialized_move(_First, _Last,
; 1325 : 			_Ptr, this->_Alval));

  00003	83 c1 0c	 add	 ecx, 12			; 0000000cH
  00006	51		 push	 ecx
  00007	ff 75 10	 push	 DWORD PTR __Ptr$[ebp]
  0000a	ff 75 0c	 push	 DWORD PTR __Last$[ebp]
  0000d	ff 75 08	 push	 DWORD PTR __First$[ebp]
  00010	e8 00 00 00 00	 call	 ??$_Uninitialized_move@PAUFishingTypeInfo@@PAU1@V?$allocator@UFishingTypeInfo@@@std@@@std@@YAPAUFishingTypeInfo@@PAU1@00AAV?$allocator@UFishingTypeInfo@@@0@@Z ; std::_Uninitialized_move<FishingTypeInfo *,FishingTypeInfo *,std::allocator<FishingTypeInfo> >
  00015	83 c4 10	 add	 esp, 16			; 00000010H

; 1326 : 		}

  00018	5d		 pop	 ebp
  00019	c2 0c 00	 ret	 12			; 0000000cH
??$_Umove@PAUFishingTypeInfo@@@?$vector@UFishingTypeInfo@@V?$allocator@UFishingTypeInfo@@@std@@@std@@IAEPAUFishingTypeInfo@@PAU2@00@Z ENDP ; std::vector<FishingTypeInfo,std::allocator<FishingTypeInfo> >::_Umove<FishingTypeInfo *>
_TEXT	ENDS
PUBLIC	?erase@?$vector@UFishingItem@@V?$allocator@UFishingItem@@@std@@@std@@QAE?AV?$_Vector_iterator@V?$_Vector_val@UFishingItem@@V?$allocator@UFishingItem@@@std@@@std@@@2@V?$_Vector_const_iterator@V?$_Vector_val@UFishingItem@@V?$allocator@UFishingItem@@@std@@@std@@@2@0@Z ; std::vector<FishingItem,std::allocator<FishingItem> >::erase
; Function compile flags: /Ogsp
;	COMDAT ?erase@?$vector@UFishingItem@@V?$allocator@UFishingItem@@@std@@@std@@QAE?AV?$_Vector_iterator@V?$_Vector_val@UFishingItem@@V?$allocator@UFishingItem@@@std@@@std@@@2@V?$_Vector_const_iterator@V?$_Vector_val@UFishingItem@@V?$allocator@UFishingItem@@@std@@@std@@@2@0@Z
_TEXT	SEGMENT
$T515333 = -4						; size = 4
___$ReturnUdt$ = 8					; size = 4
__First_arg$ = 12					; size = 4
__Cat$515278 = 16					; size = 1
__Last_arg$ = 16					; size = 4
?erase@?$vector@UFishingItem@@V?$allocator@UFishingItem@@@std@@@std@@QAE?AV?$_Vector_iterator@V?$_Vector_val@UFishingItem@@V?$allocator@UFishingItem@@@std@@@std@@@2@V?$_Vector_const_iterator@V?$_Vector_val@UFishingItem@@V?$allocator@UFishingItem@@@std@@@std@@@2@0@Z PROC ; std::vector<FishingItem,std::allocator<FishingItem> >::erase, COMDAT
; _this$ = ecx

; 1190 : 		{	// erase [_First, _Last)

  00000	55		 push	 ebp
  00001	8b ec		 mov	 ebp, esp
  00003	51		 push	 ecx

; 1191 : 		iterator _First = _Make_iter(_First_arg);

  00004	8b 45 08	 mov	 eax, DWORD PTR ___$ReturnUdt$[ebp]
  00007	56		 push	 esi
  00008	8b f1		 mov	 esi, ecx
  0000a	8b 4d 0c	 mov	 ecx, DWORD PTR __First_arg$[ebp]
  0000d	89 08		 mov	 DWORD PTR [eax], ecx

; 1192 : 		iterator _Last = _Make_iter(_Last_arg);
; 1193 : 
; 1194 : 		if (_First != _Last)

  0000f	3b 4d 10	 cmp	 ecx, DWORD PTR __Last_arg$[ebp]
  00012	74 37		 je	 SHORT $LN1@erase

; 1195 : 			{	// worth doing, copy down over hole
; 1196 :  #if _ITERATOR_DEBUG_LEVEL == 2
; 1197 : 			if (_Last < _First || _VICONT(_First) != this
; 1198 : 				|| _VIPTR(_First) < this->_Myfirst
; 1199 : 				|| this->_Mylast < _VIPTR(_Last))
; 1200 : 				_DEBUG_ERROR("vector erase iterator outside range");
; 1201 : 			pointer _Ptr = _Move(_VIPTR(_Last), this->_Mylast,
; 1202 : 				_VIPTR(_First));
; 1203 : 			_Orphan_range(_VIPTR(_First), this->_Mylast);
; 1204 : 
; 1205 :  #else /* _ITERATOR_DEBUG_LEVEL == 2 */
; 1206 : 			pointer _Ptr = _Move(_VIPTR(_Last), this->_Mylast,
; 1207 : 				_VIPTR(_First));

  00014	8b 46 04	 mov	 eax, DWORD PTR [esi+4]
  00017	53		 push	 ebx
  00018	57		 push	 edi
  00019	ff 75 10	 push	 DWORD PTR __Cat$515278[ebp]
  0001c	51		 push	 ecx
  0001d	50		 push	 eax
  0001e	ff 75 10	 push	 DWORD PTR __Last_arg$[ebp]
  00021	e8 00 00 00 00	 call	 ??$_Move@PAUFishingItem@@PAU1@@std@@YAPAUFishingItem@@PAU1@00U_Nonscalar_ptr_iterator_tag@0@@Z ; std::_Move<FishingItem *,FishingItem *>

; 1208 :  #endif /* _ITERATOR_DEBUG_LEVEL == 2 */
; 1209 : 
; 1210 : 			_Destroy(_Ptr, this->_Mylast);

  00026	8b 7e 04	 mov	 edi, DWORD PTR [esi+4]
  00029	8b d8		 mov	 ebx, eax
  0002b	83 c4 10	 add	 esp, 16			; 00000010H
  0002e	89 5d fc	 mov	 DWORD PTR $T515333[ebp], ebx
  00031	3b df		 cmp	 ebx, edi
  00033	74 11		 je	 SHORT $LN36@erase
$LL52@erase:
  00035	8b 4d fc	 mov	 ecx, DWORD PTR $T515333[ebp]
  00038	e8 00 00 00 00	 call	 ??1FishingItem@@QAE@XZ
  0003d	83 45 fc 40	 add	 DWORD PTR $T515333[ebp], 64 ; 00000040H
  00041	39 7d fc	 cmp	 DWORD PTR $T515333[ebp], edi
  00044	75 ef		 jne	 SHORT $LL52@erase
$LN36@erase:

; 1211 : 			this->_Mylast = _Ptr;

  00046	5f		 pop	 edi
  00047	89 5e 04	 mov	 DWORD PTR [esi+4], ebx
  0004a	5b		 pop	 ebx
$LN1@erase:

; 1212 : 			}
; 1213 : 		return (_First);

  0004b	8b 45 08	 mov	 eax, DWORD PTR ___$ReturnUdt$[ebp]
  0004e	5e		 pop	 esi

; 1214 : 		}

  0004f	c9		 leave
  00050	c2 0c 00	 ret	 12			; 0000000cH
?erase@?$vector@UFishingItem@@V?$allocator@UFishingItem@@@std@@@std@@QAE?AV?$_Vector_iterator@V?$_Vector_val@UFishingItem@@V?$allocator@UFishingItem@@@std@@@std@@@2@V?$_Vector_const_iterator@V?$_Vector_val@UFishingItem@@V?$allocator@UFishingItem@@@std@@@std@@@2@0@Z ENDP ; std::vector<FishingItem,std::allocator<FishingItem> >::erase
_TEXT	ENDS
PUBLIC	?_Tidy@?$vector@UFishingItem@@V?$allocator@UFishingItem@@@std@@@std@@IAEXXZ ; std::vector<FishingItem,std::allocator<FishingItem> >::_Tidy
EXTRN	__imp_?_Orphan_all@_Container_base0@std@@QAEXXZ:PROC
; Function compile flags: /Ogsp
;	COMDAT ?_Tidy@?$vector@UFishingItem@@V?$allocator@UFishingItem@@@std@@@std@@IAEXXZ
_TEXT	SEGMENT
?_Tidy@?$vector@UFishingItem@@V?$allocator@UFishingItem@@@std@@@std@@IAEXXZ PROC ; std::vector<FishingItem,std::allocator<FishingItem> >::_Tidy, COMDAT
; _this$ = ecx

; 1301 : 		{	// free all storage

  00000	56		 push	 esi
  00001	8b f1		 mov	 esi, ecx

; 1302 : 		if (this->_Myfirst != 0)

  00003	83 3e 00	 cmp	 DWORD PTR [esi], 0
  00006	74 27		 je	 SHORT $LN24@Tidy

; 1303 : 			{	// something to free, destroy and deallocate it
; 1304 : 			this->_Orphan_all();

  00008	53		 push	 ebx
  00009	57		 push	 edi
  0000a	ff 15 00 00 00
	00		 call	 DWORD PTR __imp_?_Orphan_all@_Container_base0@std@@QAEXXZ

; 1305 : 			_Destroy(this->_Myfirst, this->_Mylast);

  00010	8b 5e 04	 mov	 ebx, DWORD PTR [esi+4]
  00013	8b 3e		 mov	 edi, DWORD PTR [esi]
  00015	eb 0a		 jmp	 SHORT $LN28@Tidy
$LL12@Tidy:
  00017	8b cf		 mov	 ecx, edi
  00019	e8 00 00 00 00	 call	 ??1FishingItem@@QAE@XZ
  0001e	83 c7 40	 add	 edi, 64			; 00000040H
$LN28@Tidy:
  00021	3b fb		 cmp	 edi, ebx
  00023	75 f2		 jne	 SHORT $LL12@Tidy

; 1306 : 			this->_Alval.deallocate(this->_Myfirst,
; 1307 : 				this->_Myend - this->_Myfirst);

  00025	ff 36		 push	 DWORD PTR [esi]
  00027	e8 00 00 00 00	 call	 ??3@YAXPAX@Z		; operator delete
  0002c	59		 pop	 ecx
  0002d	5f		 pop	 edi
  0002e	5b		 pop	 ebx
$LN24@Tidy:

; 1308 : 			}
; 1309 : 		this->_Myfirst = 0;

  0002f	33 c0		 xor	 eax, eax
  00031	89 06		 mov	 DWORD PTR [esi], eax

; 1310 : 		this->_Mylast = 0;

  00033	89 46 04	 mov	 DWORD PTR [esi+4], eax

; 1311 : 		this->_Myend = 0;

  00036	89 46 08	 mov	 DWORD PTR [esi+8], eax
  00039	5e		 pop	 esi

; 1312 : 		}

  0003a	c3		 ret	 0
?_Tidy@?$vector@UFishingItem@@V?$allocator@UFishingItem@@@std@@@std@@IAEXXZ ENDP ; std::vector<FishingItem,std::allocator<FishingItem> >::_Tidy
_TEXT	ENDS
PUBLIC	?erase@?$vector@UFishingItemGrade@@V?$allocator@UFishingItemGrade@@@std@@@std@@QAE?AV?$_Vector_iterator@V?$_Vector_val@UFishingItemGrade@@V?$allocator@UFishingItemGrade@@@std@@@std@@@2@V?$_Vector_const_iterator@V?$_Vector_val@UFishingItemGrade@@V?$allocator@UFishingItemGrade@@@std@@@std@@@2@0@Z ; std::vector<FishingItemGrade,std::allocator<FishingItemGrade> >::erase
; Function compile flags: /Ogsp
;	COMDAT ?erase@?$vector@UFishingItemGrade@@V?$allocator@UFishingItemGrade@@@std@@@std@@QAE?AV?$_Vector_iterator@V?$_Vector_val@UFishingItemGrade@@V?$allocator@UFishingItemGrade@@@std@@@std@@@2@V?$_Vector_const_iterator@V?$_Vector_val@UFishingItemGrade@@V?$allocator@UFishingItemGrade@@@std@@@std@@@2@0@Z
_TEXT	SEGMENT
$T515616 = -4						; size = 4
___$ReturnUdt$ = 8					; size = 4
__First_arg$ = 12					; size = 4
__Cat$515561 = 16					; size = 1
__Last_arg$ = 16					; size = 4
?erase@?$vector@UFishingItemGrade@@V?$allocator@UFishingItemGrade@@@std@@@std@@QAE?AV?$_Vector_iterator@V?$_Vector_val@UFishingItemGrade@@V?$allocator@UFishingItemGrade@@@std@@@std@@@2@V?$_Vector_const_iterator@V?$_Vector_val@UFishingItemGrade@@V?$allocator@UFishingItemGrade@@@std@@@std@@@2@0@Z PROC ; std::vector<FishingItemGrade,std::allocator<FishingItemGrade> >::erase, COMDAT
; _this$ = ecx

; 1190 : 		{	// erase [_First, _Last)

  00000	55		 push	 ebp
  00001	8b ec		 mov	 ebp, esp
  00003	51		 push	 ecx

; 1191 : 		iterator _First = _Make_iter(_First_arg);

  00004	8b 45 08	 mov	 eax, DWORD PTR ___$ReturnUdt$[ebp]
  00007	56		 push	 esi
  00008	8b f1		 mov	 esi, ecx
  0000a	8b 4d 0c	 mov	 ecx, DWORD PTR __First_arg$[ebp]
  0000d	89 08		 mov	 DWORD PTR [eax], ecx

; 1192 : 		iterator _Last = _Make_iter(_Last_arg);
; 1193 : 
; 1194 : 		if (_First != _Last)

  0000f	3b 4d 10	 cmp	 ecx, DWORD PTR __Last_arg$[ebp]
  00012	74 37		 je	 SHORT $LN1@erase@2

; 1195 : 			{	// worth doing, copy down over hole
; 1196 :  #if _ITERATOR_DEBUG_LEVEL == 2
; 1197 : 			if (_Last < _First || _VICONT(_First) != this
; 1198 : 				|| _VIPTR(_First) < this->_Myfirst
; 1199 : 				|| this->_Mylast < _VIPTR(_Last))
; 1200 : 				_DEBUG_ERROR("vector erase iterator outside range");
; 1201 : 			pointer _Ptr = _Move(_VIPTR(_Last), this->_Mylast,
; 1202 : 				_VIPTR(_First));
; 1203 : 			_Orphan_range(_VIPTR(_First), this->_Mylast);
; 1204 : 
; 1205 :  #else /* _ITERATOR_DEBUG_LEVEL == 2 */
; 1206 : 			pointer _Ptr = _Move(_VIPTR(_Last), this->_Mylast,
; 1207 : 				_VIPTR(_First));

  00014	8b 46 04	 mov	 eax, DWORD PTR [esi+4]
  00017	53		 push	 ebx
  00018	57		 push	 edi
  00019	ff 75 10	 push	 DWORD PTR __Cat$515561[ebp]
  0001c	51		 push	 ecx
  0001d	50		 push	 eax
  0001e	ff 75 10	 push	 DWORD PTR __Last_arg$[ebp]
  00021	e8 00 00 00 00	 call	 ??$_Move@PAUFishingItemGrade@@PAU1@@std@@YAPAUFishingItemGrade@@PAU1@00U_Nonscalar_ptr_iterator_tag@0@@Z ; std::_Move<FishingItemGrade *,FishingItemGrade *>

; 1208 :  #endif /* _ITERATOR_DEBUG_LEVEL == 2 */
; 1209 : 
; 1210 : 			_Destroy(_Ptr, this->_Mylast);

  00026	8b 7e 04	 mov	 edi, DWORD PTR [esi+4]
  00029	8b d8		 mov	 ebx, eax
  0002b	83 c4 10	 add	 esp, 16			; 00000010H
  0002e	89 5d fc	 mov	 DWORD PTR $T515616[ebp], ebx
  00031	3b df		 cmp	 ebx, edi
  00033	74 11		 je	 SHORT $LN36@erase@2
$LL52@erase@2:
  00035	8b 4d fc	 mov	 ecx, DWORD PTR $T515616[ebp]
  00038	e8 00 00 00 00	 call	 ??1FishingItemGrade@@QAE@XZ
  0003d	83 45 fc 28	 add	 DWORD PTR $T515616[ebp], 40 ; 00000028H
  00041	39 7d fc	 cmp	 DWORD PTR $T515616[ebp], edi
  00044	75 ef		 jne	 SHORT $LL52@erase@2
$LN36@erase@2:

; 1211 : 			this->_Mylast = _Ptr;

  00046	5f		 pop	 edi
  00047	89 5e 04	 mov	 DWORD PTR [esi+4], ebx
  0004a	5b		 pop	 ebx
$LN1@erase@2:

; 1212 : 			}
; 1213 : 		return (_First);

  0004b	8b 45 08	 mov	 eax, DWORD PTR ___$ReturnUdt$[ebp]
  0004e	5e		 pop	 esi

; 1214 : 		}

  0004f	c9		 leave
  00050	c2 0c 00	 ret	 12			; 0000000cH
?erase@?$vector@UFishingItemGrade@@V?$allocator@UFishingItemGrade@@@std@@@std@@QAE?AV?$_Vector_iterator@V?$_Vector_val@UFishingItemGrade@@V?$allocator@UFishingItemGrade@@@std@@@std@@@2@V?$_Vector_const_iterator@V?$_Vector_val@UFishingItemGrade@@V?$allocator@UFishingItemGrade@@@std@@@std@@@2@0@Z ENDP ; std::vector<FishingItemGrade,std::allocator<FishingItemGrade> >::erase
_TEXT	ENDS
PUBLIC	?_Tidy@?$vector@UFishingItemGrade@@V?$allocator@UFishingItemGrade@@@std@@@std@@IAEXXZ ; std::vector<FishingItemGrade,std::allocator<FishingItemGrade> >::_Tidy
; Function compile flags: /Ogsp
;	COMDAT ?_Tidy@?$vector@UFishingItemGrade@@V?$allocator@UFishingItemGrade@@@std@@@std@@IAEXXZ
_TEXT	SEGMENT
?_Tidy@?$vector@UFishingItemGrade@@V?$allocator@UFishingItemGrade@@@std@@@std@@IAEXXZ PROC ; std::vector<FishingItemGrade,std::allocator<FishingItemGrade> >::_Tidy, COMDAT
; _this$ = ecx

; 1301 : 		{	// free all storage

  00000	56		 push	 esi
  00001	8b f1		 mov	 esi, ecx

; 1302 : 		if (this->_Myfirst != 0)

  00003	83 3e 00	 cmp	 DWORD PTR [esi], 0
  00006	74 27		 je	 SHORT $LN24@Tidy@2

; 1303 : 			{	// something to free, destroy and deallocate it
; 1304 : 			this->_Orphan_all();

  00008	53		 push	 ebx
  00009	57		 push	 edi
  0000a	ff 15 00 00 00
	00		 call	 DWORD PTR __imp_?_Orphan_all@_Container_base0@std@@QAEXXZ

; 1305 : 			_Destroy(this->_Myfirst, this->_Mylast);

  00010	8b 5e 04	 mov	 ebx, DWORD PTR [esi+4]
  00013	8b 3e		 mov	 edi, DWORD PTR [esi]
  00015	eb 0a		 jmp	 SHORT $LN28@Tidy@2
$LL12@Tidy@2:
  00017	8b cf		 mov	 ecx, edi
  00019	e8 00 00 00 00	 call	 ??1FishingItemGrade@@QAE@XZ
  0001e	83 c7 28	 add	 edi, 40			; 00000028H
$LN28@Tidy@2:
  00021	3b fb		 cmp	 edi, ebx
  00023	75 f2		 jne	 SHORT $LL12@Tidy@2

; 1306 : 			this->_Alval.deallocate(this->_Myfirst,
; 1307 : 				this->_Myend - this->_Myfirst);

  00025	ff 36		 push	 DWORD PTR [esi]
  00027	e8 00 00 00 00	 call	 ??3@YAXPAX@Z		; operator delete
  0002c	59		 pop	 ecx
  0002d	5f		 pop	 edi
  0002e	5b		 pop	 ebx
$LN24@Tidy@2:

; 1308 : 			}
; 1309 : 		this->_Myfirst = 0;

  0002f	33 c0		 xor	 eax, eax
  00031	89 06		 mov	 DWORD PTR [esi], eax

; 1310 : 		this->_Mylast = 0;

  00033	89 46 04	 mov	 DWORD PTR [esi+4], eax

; 1311 : 		this->_Myend = 0;

  00036	89 46 08	 mov	 DWORD PTR [esi+8], eax
  00039	5e		 pop	 esi

; 1312 : 		}

  0003a	c3		 ret	 0
?_Tidy@?$vector@UFishingItemGrade@@V?$allocator@UFishingItemGrade@@@std@@@std@@IAEXXZ ENDP ; std::vector<FishingItemGrade,std::allocator<FishingItemGrade> >::_Tidy
_TEXT	ENDS
PUBLIC	?erase@?$vector@UFishingTypeInfo@@V?$allocator@UFishingTypeInfo@@@std@@@std@@QAE?AV?$_Vector_iterator@V?$_Vector_val@UFishingTypeInfo@@V?$allocator@UFishingTypeInfo@@@std@@@std@@@2@V?$_Vector_const_iterator@V?$_Vector_val@UFishingTypeInfo@@V?$allocator@UFishingTypeInfo@@@std@@@std@@@2@0@Z ; std::vector<FishingTypeInfo,std::allocator<FishingTypeInfo> >::erase
; Function compile flags: /Ogsp
;	COMDAT ?erase@?$vector@UFishingTypeInfo@@V?$allocator@UFishingTypeInfo@@@std@@@std@@QAE?AV?$_Vector_iterator@V?$_Vector_val@UFishingTypeInfo@@V?$allocator@UFishingTypeInfo@@@std@@@std@@@2@V?$_Vector_const_iterator@V?$_Vector_val@UFishingTypeInfo@@V?$allocator@UFishingTypeInfo@@@std@@@std@@@2@0@Z
_TEXT	SEGMENT
$T515899 = -4						; size = 4
___$ReturnUdt$ = 8					; size = 4
__First_arg$ = 12					; size = 4
__Cat$515843 = 16					; size = 1
__Last_arg$ = 16					; size = 4
?erase@?$vector@UFishingTypeInfo@@V?$allocator@UFishingTypeInfo@@@std@@@std@@QAE?AV?$_Vector_iterator@V?$_Vector_val@UFishingTypeInfo@@V?$allocator@UFishingTypeInfo@@@std@@@std@@@2@V?$_Vector_const_iterator@V?$_Vector_val@UFishingTypeInfo@@V?$allocator@UFishingTypeInfo@@@std@@@std@@@2@0@Z PROC ; std::vector<FishingTypeInfo,std::allocator<FishingTypeInfo> >::erase, COMDAT
; _this$ = ecx

; 1190 : 		{	// erase [_First, _Last)

  00000	55		 push	 ebp
  00001	8b ec		 mov	 ebp, esp
  00003	51		 push	 ecx

; 1191 : 		iterator _First = _Make_iter(_First_arg);

  00004	8b 45 08	 mov	 eax, DWORD PTR ___$ReturnUdt$[ebp]
  00007	56		 push	 esi
  00008	8b f1		 mov	 esi, ecx
  0000a	8b 4d 0c	 mov	 ecx, DWORD PTR __First_arg$[ebp]
  0000d	89 08		 mov	 DWORD PTR [eax], ecx

; 1192 : 		iterator _Last = _Make_iter(_Last_arg);
; 1193 : 
; 1194 : 		if (_First != _Last)

  0000f	3b 4d 10	 cmp	 ecx, DWORD PTR __Last_arg$[ebp]
  00012	74 37		 je	 SHORT $LN1@erase@3

; 1195 : 			{	// worth doing, copy down over hole
; 1196 :  #if _ITERATOR_DEBUG_LEVEL == 2
; 1197 : 			if (_Last < _First || _VICONT(_First) != this
; 1198 : 				|| _VIPTR(_First) < this->_Myfirst
; 1199 : 				|| this->_Mylast < _VIPTR(_Last))
; 1200 : 				_DEBUG_ERROR("vector erase iterator outside range");
; 1201 : 			pointer _Ptr = _Move(_VIPTR(_Last), this->_Mylast,
; 1202 : 				_VIPTR(_First));
; 1203 : 			_Orphan_range(_VIPTR(_First), this->_Mylast);
; 1204 : 
; 1205 :  #else /* _ITERATOR_DEBUG_LEVEL == 2 */
; 1206 : 			pointer _Ptr = _Move(_VIPTR(_Last), this->_Mylast,
; 1207 : 				_VIPTR(_First));

  00014	8b 46 04	 mov	 eax, DWORD PTR [esi+4]
  00017	53		 push	 ebx
  00018	57		 push	 edi
  00019	ff 75 10	 push	 DWORD PTR __Cat$515843[ebp]
  0001c	51		 push	 ecx
  0001d	50		 push	 eax
  0001e	ff 75 10	 push	 DWORD PTR __Last_arg$[ebp]
  00021	e8 00 00 00 00	 call	 ??$_Move@PAUFishingTypeInfo@@PAU1@@std@@YAPAUFishingTypeInfo@@PAU1@00U_Nonscalar_ptr_iterator_tag@0@@Z ; std::_Move<FishingTypeInfo *,FishingTypeInfo *>

; 1208 :  #endif /* _ITERATOR_DEBUG_LEVEL == 2 */
; 1209 : 
; 1210 : 			_Destroy(_Ptr, this->_Mylast);

  00026	8b 7e 04	 mov	 edi, DWORD PTR [esi+4]
  00029	8b d8		 mov	 ebx, eax
  0002b	83 c4 10	 add	 esp, 16			; 00000010H
  0002e	89 5d fc	 mov	 DWORD PTR $T515899[ebp], ebx
  00031	3b df		 cmp	 ebx, edi
  00033	74 11		 je	 SHORT $LN36@erase@3
$LL52@erase@3:
  00035	8b 4d fc	 mov	 ecx, DWORD PTR $T515899[ebp]
  00038	e8 00 00 00 00	 call	 ??1FishingTypeInfo@@QAE@XZ
  0003d	83 45 fc 40	 add	 DWORD PTR $T515899[ebp], 64 ; 00000040H
  00041	39 7d fc	 cmp	 DWORD PTR $T515899[ebp], edi
  00044	75 ef		 jne	 SHORT $LL52@erase@3
$LN36@erase@3:

; 1211 : 			this->_Mylast = _Ptr;

  00046	5f		 pop	 edi
  00047	89 5e 04	 mov	 DWORD PTR [esi+4], ebx
  0004a	5b		 pop	 ebx
$LN1@erase@3:

; 1212 : 			}
; 1213 : 		return (_First);

  0004b	8b 45 08	 mov	 eax, DWORD PTR ___$ReturnUdt$[ebp]
  0004e	5e		 pop	 esi

; 1214 : 		}

  0004f	c9		 leave
  00050	c2 0c 00	 ret	 12			; 0000000cH
?erase@?$vector@UFishingTypeInfo@@V?$allocator@UFishingTypeInfo@@@std@@@std@@QAE?AV?$_Vector_iterator@V?$_Vector_val@UFishingTypeInfo@@V?$allocator@UFishingTypeInfo@@@std@@@std@@@2@V?$_Vector_const_iterator@V?$_Vector_val@UFishingTypeInfo@@V?$allocator@UFishingTypeInfo@@@std@@@std@@@2@0@Z ENDP ; std::vector<FishingTypeInfo,std::allocator<FishingTypeInfo> >::erase
_TEXT	ENDS
PUBLIC	?_Tidy@?$vector@UFishingTypeInfo@@V?$allocator@UFishingTypeInfo@@@std@@@std@@IAEXXZ ; std::vector<FishingTypeInfo,std::allocator<FishingTypeInfo> >::_Tidy
; Function compile flags: /Ogsp
;	COMDAT ?_Tidy@?$vector@UFishingTypeInfo@@V?$allocator@UFishingTypeInfo@@@std@@@std@@IAEXXZ
_TEXT	SEGMENT
?_Tidy@?$vector@UFishingTypeInfo@@V?$allocator@UFishingTypeInfo@@@std@@@std@@IAEXXZ PROC ; std::vector<FishingTypeInfo,std::allocator<FishingTypeInfo> >::_Tidy, COMDAT
; _this$ = ecx

; 1301 : 		{	// free all storage

  00000	56		 push	 esi
  00001	8b f1		 mov	 esi, ecx

; 1302 : 		if (this->_Myfirst != 0)

  00003	83 3e 00	 cmp	 DWORD PTR [esi], 0
  00006	74 27		 je	 SHORT $LN24@Tidy@3

; 1303 : 			{	// something to free, destroy and deallocate it
; 1304 : 			this->_Orphan_all();

  00008	53		 push	 ebx
  00009	57		 push	 edi
  0000a	ff 15 00 00 00
	00		 call	 DWORD PTR __imp_?_Orphan_all@_Container_base0@std@@QAEXXZ

; 1305 : 			_Destroy(this->_Myfirst, this->_Mylast);

  00010	8b 5e 04	 mov	 ebx, DWORD PTR [esi+4]
  00013	8b 3e		 mov	 edi, DWORD PTR [esi]
  00015	eb 0a		 jmp	 SHORT $LN28@Tidy@3
$LL12@Tidy@3:
  00017	8b cf		 mov	 ecx, edi
  00019	e8 00 00 00 00	 call	 ??1FishingTypeInfo@@QAE@XZ
  0001e	83 c7 40	 add	 edi, 64			; 00000040H
$LN28@Tidy@3:
  00021	3b fb		 cmp	 edi, ebx
  00023	75 f2		 jne	 SHORT $LL12@Tidy@3

; 1306 : 			this->_Alval.deallocate(this->_Myfirst,
; 1307 : 				this->_Myend - this->_Myfirst);

  00025	ff 36		 push	 DWORD PTR [esi]
  00027	e8 00 00 00 00	 call	 ??3@YAXPAX@Z		; operator delete
  0002c	59		 pop	 ecx
  0002d	5f		 pop	 edi
  0002e	5b		 pop	 ebx
$LN24@Tidy@3:

; 1308 : 			}
; 1309 : 		this->_Myfirst = 0;

  0002f	33 c0		 xor	 eax, eax
  00031	89 06		 mov	 DWORD PTR [esi], eax

; 1310 : 		this->_Mylast = 0;

  00033	89 46 04	 mov	 DWORD PTR [esi+4], eax

; 1311 : 		this->_Myend = 0;

  00036	89 46 08	 mov	 DWORD PTR [esi+8], eax
  00039	5e		 pop	 esi

; 1312 : 		}

  0003a	c3		 ret	 0
?_Tidy@?$vector@UFishingTypeInfo@@V?$allocator@UFishingTypeInfo@@@std@@@std@@IAEXXZ ENDP ; std::vector<FishingTypeInfo,std::allocator<FishingTypeInfo> >::_Tidy
_TEXT	ENDS
PUBLIC	?reserve@?$vector@UFishingItem@@V?$allocator@UFishingItem@@@std@@@std@@QAEXI@Z ; std::vector<FishingItem,std::allocator<FishingItem> >::reserve
;	COMDAT xdata$x
; File c:\program files (x86)\microsoft visual studio 10.0\vc\include\xmemory
xdata$x	SEGMENT
__catchsym$?reserve@?$vector@UFishingItem@@V?$allocator@UFishingItem@@@std@@@std@@QAEXI@Z$2 DD 040H
	DD	00H
	DD	00H
	DD	FLAT:__catch$?reserve@?$vector@UFishingItem@@V?$allocator@UFishingItem@@@std@@@std@@QAEXI@Z$0
__unwindtable$?reserve@?$vector@UFishingItem@@V?$allocator@UFishingItem@@@std@@@std@@QAEXI@Z DD 0ffffffffH
	DD	00H
	DD	0ffffffffH
	DD	00H
__tryblocktable$?reserve@?$vector@UFishingItem@@V?$allocator@UFishingItem@@@std@@@std@@QAEXI@Z DD 00H
	DD	00H
	DD	01H
	DD	01H
	DD	FLAT:__catchsym$?reserve@?$vector@UFishingItem@@V?$allocator@UFishingItem@@@std@@@std@@QAEXI@Z$2
__ehfuncinfo$?reserve@?$vector@UFishingItem@@V?$allocator@UFishingItem@@@std@@@std@@QAEXI@Z DD 019930522H
	DD	02H
	DD	FLAT:__unwindtable$?reserve@?$vector@UFishingItem@@V?$allocator@UFishingItem@@@std@@@std@@QAEXI@Z
	DD	01H
	DD	FLAT:__tryblocktable$?reserve@?$vector@UFishingItem@@V?$allocator@UFishingItem@@@std@@@std@@QAEXI@Z
	DD	2 DUP(00H)
	DD	00H
	DD	01H
; Function compile flags: /Ogsp
; File c:\program files (x86)\microsoft visual studio 10.0\vc\include\vector
xdata$x	ENDS
;	COMDAT ?reserve@?$vector@UFishingItem@@V?$allocator@UFishingItem@@@std@@@std@@QAEXI@Z
_TEXT	SEGMENT
tv300 = -24						; size = 4
__Ptr$509374 = -20					; size = 4
__$EHRec$ = -16						; size = 16
$T516145 = 8						; size = 4
__Count$ = 8						; size = 4
?reserve@?$vector@UFishingItem@@V?$allocator@UFishingItem@@@std@@@std@@QAEXI@Z PROC ; std::vector<FishingItem,std::allocator<FishingItem> >::reserve, COMDAT
; _this$ = ecx

; 746  : 		{	// determine new minimum length of allocated storage

  00000	6a 0c		 push	 12			; 0000000cH
  00002	b8 00 00 00 00	 mov	 eax, __ehhandler$?reserve@?$vector@UFishingItem@@V?$allocator@UFishingItem@@@std@@@std@@QAEXI@Z
  00007	e8 00 00 00 00	 call	 __EH_prolog3_catch
  0000c	8b f1		 mov	 esi, ecx

; 747  : 		if (max_size() < _Count)

  0000e	8b 5d 08	 mov	 ebx, DWORD PTR __Count$[ebp]
  00011	81 fb ff ff ff
	03		 cmp	 ebx, 67108863		; 03ffffffH
  00017	76 0b		 jbe	 SHORT $LN5@reserve

; 748  : 			_Xlen();	// result too long

  00019	68 00 00 00 00	 push	 OFFSET ??_C@_0BD@OLBABOEK@vector?$DMT?$DO?5too?5long?$AA@
  0001e	ff 15 00 00 00
	00		 call	 DWORD PTR __imp_?_Xlength_error@std@@YAXPBD@Z
$LN59@reserve:
$LN5@reserve:

; 749  : 		else if (capacity() < _Count)

  00024	8b 46 08	 mov	 eax, DWORD PTR [esi+8]
  00027	2b 06		 sub	 eax, DWORD PTR [esi]
  00029	c1 f8 06	 sar	 eax, 6
  0002c	3b c3		 cmp	 eax, ebx
  0002e	73 79		 jae	 SHORT $LN3@reserve

; 750  : 			{	// not enough room, reallocate
; 751  : 			pointer _Ptr = this->_Alval.allocate(_Count);

  00030	6a 00		 push	 0
  00032	53		 push	 ebx
  00033	e8 00 00 00 00	 call	 ??$_Allocate@UFishingItem@@@std@@YAPAUFishingItem@@IPAU1@@Z ; std::_Allocate<FishingItem>

; 752  : 
; 753  : 			_TRY_BEGIN
; 754  : 			_Umove(this->_Myfirst, this->_Mylast, _Ptr);

  00038	8b 0e		 mov	 ecx, DWORD PTR [esi]
  0003a	83 65 fc 00	 and	 DWORD PTR __$EHRec$[ebp+12], 0
  0003e	8d 56 0c	 lea	 edx, DWORD PTR [esi+12]
  00041	52		 push	 edx
  00042	89 45 ec	 mov	 DWORD PTR __Ptr$509374[ebp], eax
  00045	ff 75 ec	 push	 DWORD PTR __Ptr$509374[ebp]
  00048	8b 46 04	 mov	 eax, DWORD PTR [esi+4]
  0004b	50		 push	 eax
  0004c	51		 push	 ecx
  0004d	e8 00 00 00 00	 call	 ??$_Uninitialized_move@PAUFishingItem@@PAU1@V?$allocator@UFishingItem@@@std@@@std@@YAPAUFishingItem@@PAU1@00AAV?$allocator@UFishingItem@@@0@@Z ; std::_Uninitialized_move<FishingItem *,FishingItem *,std::allocator<FishingItem> >

; 758  : 			_CATCH_END
; 759  : 
; 760  : 			size_type _Size = size();

  00052	8b 4e 04	 mov	 ecx, DWORD PTR [esi+4]
  00055	8b 06		 mov	 eax, DWORD PTR [esi]
  00057	83 4d fc ff	 or	 DWORD PTR __$EHRec$[ebp+12], -1
  0005b	8b f9		 mov	 edi, ecx
  0005d	83 c4 18	 add	 esp, 24			; 00000018H
  00060	2b f8		 sub	 edi, eax
  00062	89 4d e8	 mov	 DWORD PTR tv300[ebp], ecx
  00065	85 c0		 test	 eax, eax
  00067	74 23		 je	 SHORT $LN51@reserve

; 761  : 			if (this->_Myfirst != 0)
; 762  : 				{	// destroy and deallocate old array
; 763  : 				_Destroy(this->_Myfirst, this->_Mylast);

  00069	89 45 08	 mov	 DWORD PTR $T516145[ebp], eax
  0006c	3b c1		 cmp	 eax, ecx
  0006e	74 14		 je	 SHORT $LN37@reserve
$LN39@reserve:
  00070	8b 4d 08	 mov	 ecx, DWORD PTR $T516145[ebp]
  00073	e8 00 00 00 00	 call	 ??1FishingItem@@QAE@XZ
  00078	83 45 08 40	 add	 DWORD PTR $T516145[ebp], 64 ; 00000040H
  0007c	8b 45 08	 mov	 eax, DWORD PTR $T516145[ebp]
  0007f	3b 45 e8	 cmp	 eax, DWORD PTR tv300[ebp]
  00082	75 ec		 jne	 SHORT $LN39@reserve
$LN37@reserve:

; 764  : 				this->_Alval.deallocate(this->_Myfirst,
; 765  : 					this->_Myend - this->_Myfirst);

  00084	ff 36		 push	 DWORD PTR [esi]
  00086	e8 00 00 00 00	 call	 ??3@YAXPAX@Z		; operator delete
  0008b	59		 pop	 ecx
$LN51@reserve:

; 766  : 				}
; 767  : 
; 768  : 			this->_Orphan_all();

  0008c	8b ce		 mov	 ecx, esi
  0008e	ff 15 00 00 00
	00		 call	 DWORD PTR __imp_?_Orphan_all@_Container_base0@std@@QAEXXZ

; 769  : 			this->_Myend = _Ptr + _Count;

  00094	8b 45 ec	 mov	 eax, DWORD PTR __Ptr$509374[ebp]
  00097	c1 e3 06	 shl	 ebx, 6
  0009a	03 d8		 add	 ebx, eax

; 770  : 			this->_Mylast = _Ptr + _Size;

  0009c	83 e7 c0	 and	 edi, -64		; ffffffc0H
  0009f	03 f8		 add	 edi, eax
  000a1	89 5e 08	 mov	 DWORD PTR [esi+8], ebx
  000a4	89 7e 04	 mov	 DWORD PTR [esi+4], edi

; 771  : 			this->_Myfirst = _Ptr;

  000a7	89 06		 mov	 DWORD PTR [esi], eax
$LN3@reserve:

; 772  : 			}
; 773  : 		}

  000a9	e8 00 00 00 00	 call	 __EH_epilog3
  000ae	c2 04 00	 ret	 4
__catch$?reserve@?$vector@UFishingItem@@V?$allocator@UFishingItem@@@std@@@std@@QAEXI@Z$0:

; 755  : 			_CATCH_ALL
; 756  : 			this->_Alval.deallocate(_Ptr, _Count);

  000b1	ff 75 ec	 push	 DWORD PTR __Ptr$509374[ebp]
  000b4	e8 00 00 00 00	 call	 ??3@YAXPAX@Z		; operator delete
  000b9	59		 pop	 ecx

; 757  : 			_RERAISE;

  000ba	6a 00		 push	 0
  000bc	6a 00		 push	 0
  000be	e8 00 00 00 00	 call	 __CxxThrowException@8
$LN60@reserve:
$LN58@reserve:
  000c3	cc		 int	 3
_TEXT	ENDS
;	COMDAT text$x
text$x	SEGMENT
__ehhandler$?reserve@?$vector@UFishingItem@@V?$allocator@UFishingItem@@@std@@@std@@QAEXI@Z:
  00000	8b 54 24 08	 mov	 edx, DWORD PTR [esp+8]
  00004	8d 42 0c	 lea	 eax, DWORD PTR [edx+12]
  00007	8b 4a e4	 mov	 ecx, DWORD PTR [edx-28]
  0000a	33 c8		 xor	 ecx, eax
  0000c	e8 00 00 00 00	 call	 @__security_check_cookie@4
  00011	b8 00 00 00 00	 mov	 eax, OFFSET __ehfuncinfo$?reserve@?$vector@UFishingItem@@V?$allocator@UFishingItem@@@std@@@std@@QAEXI@Z
  00016	e9 00 00 00 00	 jmp	 ___CxxFrameHandler3
text$x	ENDS
?reserve@?$vector@UFishingItem@@V?$allocator@UFishingItem@@@std@@@std@@QAEXI@Z ENDP ; std::vector<FishingItem,std::allocator<FishingItem> >::reserve
PUBLIC	?reserve@?$vector@UFishingItemGrade@@V?$allocator@UFishingItemGrade@@@std@@@std@@QAEXI@Z ; std::vector<FishingItemGrade,std::allocator<FishingItemGrade> >::reserve
;	COMDAT xdata$x
; File c:\program files (x86)\microsoft visual studio 10.0\vc\include\xmemory
xdata$x	SEGMENT
__catchsym$?reserve@?$vector@UFishingItemGrade@@V?$allocator@UFishingItemGrade@@@std@@@std@@QAEXI@Z$2 DD 040H
	DD	00H
	DD	00H
	DD	FLAT:__catch$?reserve@?$vector@UFishingItemGrade@@V?$allocator@UFishingItemGrade@@@std@@@std@@QAEXI@Z$0
__unwindtable$?reserve@?$vector@UFishingItemGrade@@V?$allocator@UFishingItemGrade@@@std@@@std@@QAEXI@Z DD 0ffffffffH
	DD	00H
	DD	0ffffffffH
	DD	00H
__tryblocktable$?reserve@?$vector@UFishingItemGrade@@V?$allocator@UFishingItemGrade@@@std@@@std@@QAEXI@Z DD 00H
	DD	00H
	DD	01H
	DD	01H
	DD	FLAT:__catchsym$?reserve@?$vector@UFishingItemGrade@@V?$allocator@UFishingItemGrade@@@std@@@std@@QAEXI@Z$2
__ehfuncinfo$?reserve@?$vector@UFishingItemGrade@@V?$allocator@UFishingItemGrade@@@std@@@std@@QAEXI@Z DD 019930522H
	DD	02H
	DD	FLAT:__unwindtable$?reserve@?$vector@UFishingItemGrade@@V?$allocator@UFishingItemGrade@@@std@@@std@@QAEXI@Z
	DD	01H
	DD	FLAT:__tryblocktable$?reserve@?$vector@UFishingItemGrade@@V?$allocator@UFishingItemGrade@@@std@@@std@@QAEXI@Z
	DD	2 DUP(00H)
	DD	00H
	DD	01H
; Function compile flags: /Ogsp
; File c:\program files (x86)\microsoft visual studio 10.0\vc\include\vector
xdata$x	ENDS
;	COMDAT ?reserve@?$vector@UFishingItemGrade@@V?$allocator@UFishingItemGrade@@@std@@@std@@QAEXI@Z
_TEXT	SEGMENT
__Ptr$509416 = -24					; size = 4
$T516303 = -20						; size = 4
__$EHRec$ = -16						; size = 16
__Count$ = 8						; size = 4
?reserve@?$vector@UFishingItemGrade@@V?$allocator@UFishingItemGrade@@@std@@@std@@QAEXI@Z PROC ; std::vector<FishingItemGrade,std::allocator<FishingItemGrade> >::reserve, COMDAT
; _this$ = ecx

; 746  : 		{	// determine new minimum length of allocated storage

  00000	6a 0c		 push	 12			; 0000000cH
  00002	b8 00 00 00 00	 mov	 eax, __ehhandler$?reserve@?$vector@UFishingItemGrade@@V?$allocator@UFishingItemGrade@@@std@@@std@@QAEXI@Z
  00007	e8 00 00 00 00	 call	 __EH_prolog3_catch
  0000c	8b f1		 mov	 esi, ecx

; 747  : 		if (max_size() < _Count)

  0000e	81 7d 08 66 66
	66 06		 cmp	 DWORD PTR __Count$[ebp], 107374182 ; 06666666H
  00015	76 0b		 jbe	 SHORT $LN5@reserve@2

; 748  : 			_Xlen();	// result too long

  00017	68 00 00 00 00	 push	 OFFSET ??_C@_0BD@OLBABOEK@vector?$DMT?$DO?5too?5long?$AA@
  0001c	ff 15 00 00 00
	00		 call	 DWORD PTR __imp_?_Xlength_error@std@@YAXPBD@Z
$LN59@reserve@2:
$LN5@reserve@2:

; 749  : 		else if (capacity() < _Count)

  00022	8b 46 08	 mov	 eax, DWORD PTR [esi+8]
  00025	2b 06		 sub	 eax, DWORD PTR [esi]
  00027	6a 28		 push	 40			; 00000028H
  00029	99		 cdq
  0002a	59		 pop	 ecx
  0002b	f7 f9		 idiv	 ecx
  0002d	3b 45 08	 cmp	 eax, DWORD PTR __Count$[ebp]
  00030	0f 83 80 00 00
	00		 jae	 $LN3@reserve@2

; 750  : 			{	// not enough room, reallocate
; 751  : 			pointer _Ptr = this->_Alval.allocate(_Count);

  00036	6a 00		 push	 0
  00038	ff 75 08	 push	 DWORD PTR __Count$[ebp]
  0003b	e8 00 00 00 00	 call	 ??$_Allocate@UFishingItemGrade@@@std@@YAPAUFishingItemGrade@@IPAU1@@Z ; std::_Allocate<FishingItemGrade>

; 752  : 
; 753  : 			_TRY_BEGIN
; 754  : 			_Umove(this->_Myfirst, this->_Mylast, _Ptr);

  00040	8b 0e		 mov	 ecx, DWORD PTR [esi]
  00042	83 65 fc 00	 and	 DWORD PTR __$EHRec$[ebp+12], 0
  00046	8d 56 0c	 lea	 edx, DWORD PTR [esi+12]
  00049	52		 push	 edx
  0004a	89 45 e8	 mov	 DWORD PTR __Ptr$509416[ebp], eax
  0004d	ff 75 e8	 push	 DWORD PTR __Ptr$509416[ebp]
  00050	8b 46 04	 mov	 eax, DWORD PTR [esi+4]
  00053	50		 push	 eax
  00054	51		 push	 ecx
  00055	e8 00 00 00 00	 call	 ??$_Uninitialized_move@PAUFishingItemGrade@@PAU1@V?$allocator@UFishingItemGrade@@@std@@@std@@YAPAUFishingItemGrade@@PAU1@00AAV?$allocator@UFishingItemGrade@@@0@@Z ; std::_Uninitialized_move<FishingItemGrade *,FishingItemGrade *,std::allocator<FishingItemGrade> >

; 758  : 			_CATCH_END
; 759  : 
; 760  : 			size_type _Size = size();

  0005a	8b 5e 04	 mov	 ebx, DWORD PTR [esi+4]
  0005d	8b 0e		 mov	 ecx, DWORD PTR [esi]
  0005f	83 c4 18	 add	 esp, 24			; 00000018H
  00062	8b c3		 mov	 eax, ebx
  00064	2b c1		 sub	 eax, ecx
  00066	6a 28		 push	 40			; 00000028H
  00068	99		 cdq
  00069	5f		 pop	 edi
  0006a	f7 ff		 idiv	 edi
  0006c	83 4d fc ff	 or	 DWORD PTR __$EHRec$[ebp+12], -1
  00070	8b f8		 mov	 edi, eax
  00072	85 c9		 test	 ecx, ecx
  00074	74 20		 je	 SHORT $LN51@reserve@2

; 761  : 			if (this->_Myfirst != 0)
; 762  : 				{	// destroy and deallocate old array
; 763  : 				_Destroy(this->_Myfirst, this->_Mylast);

  00076	89 4d ec	 mov	 DWORD PTR $T516303[ebp], ecx
  00079	3b cb		 cmp	 ecx, ebx
  0007b	74 11		 je	 SHORT $LN37@reserve@2
$LN39@reserve@2:
  0007d	8b 4d ec	 mov	 ecx, DWORD PTR $T516303[ebp]
  00080	e8 00 00 00 00	 call	 ??1FishingItemGrade@@QAE@XZ
  00085	83 45 ec 28	 add	 DWORD PTR $T516303[ebp], 40 ; 00000028H
  00089	39 5d ec	 cmp	 DWORD PTR $T516303[ebp], ebx
  0008c	75 ef		 jne	 SHORT $LN39@reserve@2
$LN37@reserve@2:

; 764  : 				this->_Alval.deallocate(this->_Myfirst,
; 765  : 					this->_Myend - this->_Myfirst);

  0008e	ff 36		 push	 DWORD PTR [esi]
  00090	e8 00 00 00 00	 call	 ??3@YAXPAX@Z		; operator delete
  00095	59		 pop	 ecx
$LN51@reserve@2:

; 766  : 				}
; 767  : 
; 768  : 			this->_Orphan_all();

  00096	8b ce		 mov	 ecx, esi
  00098	ff 15 00 00 00
	00		 call	 DWORD PTR __imp_?_Orphan_all@_Container_base0@std@@QAEXXZ

; 769  : 			this->_Myend = _Ptr + _Count;
; 770  : 			this->_Mylast = _Ptr + _Size;

  0009e	6b ff 28	 imul	 edi, 40			; 00000028H
  000a1	8b 45 08	 mov	 eax, DWORD PTR __Count$[ebp]
  000a4	8b 4d e8	 mov	 ecx, DWORD PTR __Ptr$509416[ebp]
  000a7	6b c0 28	 imul	 eax, 40			; 00000028H
  000aa	03 c1		 add	 eax, ecx
  000ac	03 f9		 add	 edi, ecx
  000ae	89 46 08	 mov	 DWORD PTR [esi+8], eax
  000b1	89 7e 04	 mov	 DWORD PTR [esi+4], edi

; 771  : 			this->_Myfirst = _Ptr;

  000b4	89 0e		 mov	 DWORD PTR [esi], ecx
$LN3@reserve@2:

; 772  : 			}
; 773  : 		}

  000b6	e8 00 00 00 00	 call	 __EH_epilog3
  000bb	c2 04 00	 ret	 4
__catch$?reserve@?$vector@UFishingItemGrade@@V?$allocator@UFishingItemGrade@@@std@@@std@@QAEXI@Z$0:

; 755  : 			_CATCH_ALL
; 756  : 			this->_Alval.deallocate(_Ptr, _Count);

  000be	ff 75 e8	 push	 DWORD PTR __Ptr$509416[ebp]
  000c1	e8 00 00 00 00	 call	 ??3@YAXPAX@Z		; operator delete
  000c6	59		 pop	 ecx

; 757  : 			_RERAISE;

  000c7	6a 00		 push	 0
  000c9	6a 00		 push	 0
  000cb	e8 00 00 00 00	 call	 __CxxThrowException@8
$LN60@reserve@2:
$LN58@reserve@2:
  000d0	cc		 int	 3
_TEXT	ENDS
;	COMDAT text$x
text$x	SEGMENT
__ehhandler$?reserve@?$vector@UFishingItemGrade@@V?$allocator@UFishingItemGrade@@@std@@@std@@QAEXI@Z:
  00000	8b 54 24 08	 mov	 edx, DWORD PTR [esp+8]
  00004	8d 42 0c	 lea	 eax, DWORD PTR [edx+12]
  00007	8b 4a e4	 mov	 ecx, DWORD PTR [edx-28]
  0000a	33 c8		 xor	 ecx, eax
  0000c	e8 00 00 00 00	 call	 @__security_check_cookie@4
  00011	b8 00 00 00 00	 mov	 eax, OFFSET __ehfuncinfo$?reserve@?$vector@UFishingItemGrade@@V?$allocator@UFishingItemGrade@@@std@@@std@@QAEXI@Z
  00016	e9 00 00 00 00	 jmp	 ___CxxFrameHandler3
text$x	ENDS
?reserve@?$vector@UFishingItemGrade@@V?$allocator@UFishingItemGrade@@@std@@@std@@QAEXI@Z ENDP ; std::vector<FishingItemGrade,std::allocator<FishingItemGrade> >::reserve
PUBLIC	?reserve@?$vector@UFishingTypeInfo@@V?$allocator@UFishingTypeInfo@@@std@@@std@@QAEXI@Z ; std::vector<FishingTypeInfo,std::allocator<FishingTypeInfo> >::reserve
;	COMDAT xdata$x
; File c:\program files (x86)\microsoft visual studio 10.0\vc\include\xmemory
xdata$x	SEGMENT
__catchsym$?reserve@?$vector@UFishingTypeInfo@@V?$allocator@UFishingTypeInfo@@@std@@@std@@QAEXI@Z$2 DD 040H
	DD	00H
	DD	00H
	DD	FLAT:__catch$?reserve@?$vector@UFishingTypeInfo@@V?$allocator@UFishingTypeInfo@@@std@@@std@@QAEXI@Z$0
__unwindtable$?reserve@?$vector@UFishingTypeInfo@@V?$allocator@UFishingTypeInfo@@@std@@@std@@QAEXI@Z DD 0ffffffffH
	DD	00H
	DD	0ffffffffH
	DD	00H
__tryblocktable$?reserve@?$vector@UFishingTypeInfo@@V?$allocator@UFishingTypeInfo@@@std@@@std@@QAEXI@Z DD 00H
	DD	00H
	DD	01H
	DD	01H
	DD	FLAT:__catchsym$?reserve@?$vector@UFishingTypeInfo@@V?$allocator@UFishingTypeInfo@@@std@@@std@@QAEXI@Z$2
__ehfuncinfo$?reserve@?$vector@UFishingTypeInfo@@V?$allocator@UFishingTypeInfo@@@std@@@std@@QAEXI@Z DD 019930522H
	DD	02H
	DD	FLAT:__unwindtable$?reserve@?$vector@UFishingTypeInfo@@V?$allocator@UFishingTypeInfo@@@std@@@std@@QAEXI@Z
	DD	01H
	DD	FLAT:__tryblocktable$?reserve@?$vector@UFishingTypeInfo@@V?$allocator@UFishingTypeInfo@@@std@@@std@@QAEXI@Z
	DD	2 DUP(00H)
	DD	00H
	DD	01H
; Function compile flags: /Ogsp
; File c:\program files (x86)\microsoft visual studio 10.0\vc\include\vector
xdata$x	ENDS
;	COMDAT ?reserve@?$vector@UFishingTypeInfo@@V?$allocator@UFishingTypeInfo@@@std@@@std@@QAEXI@Z
_TEXT	SEGMENT
tv300 = -24						; size = 4
__Ptr$509456 = -20					; size = 4
__$EHRec$ = -16						; size = 16
$T516461 = 8						; size = 4
__Count$ = 8						; size = 4
?reserve@?$vector@UFishingTypeInfo@@V?$allocator@UFishingTypeInfo@@@std@@@std@@QAEXI@Z PROC ; std::vector<FishingTypeInfo,std::allocator<FishingTypeInfo> >::reserve, COMDAT
; _this$ = ecx

; 746  : 		{	// determine new minimum length of allocated storage

  00000	6a 0c		 push	 12			; 0000000cH
  00002	b8 00 00 00 00	 mov	 eax, __ehhandler$?reserve@?$vector@UFishingTypeInfo@@V?$allocator@UFishingTypeInfo@@@std@@@std@@QAEXI@Z
  00007	e8 00 00 00 00	 call	 __EH_prolog3_catch
  0000c	8b f1		 mov	 esi, ecx

; 747  : 		if (max_size() < _Count)

  0000e	8b 5d 08	 mov	 ebx, DWORD PTR __Count$[ebp]
  00011	81 fb ff ff ff
	03		 cmp	 ebx, 67108863		; 03ffffffH
  00017	76 0b		 jbe	 SHORT $LN5@reserve@3

; 748  : 			_Xlen();	// result too long

  00019	68 00 00 00 00	 push	 OFFSET ??_C@_0BD@OLBABOEK@vector?$DMT?$DO?5too?5long?$AA@
  0001e	ff 15 00 00 00
	00		 call	 DWORD PTR __imp_?_Xlength_error@std@@YAXPBD@Z
$LN59@reserve@3:
$LN5@reserve@3:

; 749  : 		else if (capacity() < _Count)

  00024	8b 46 08	 mov	 eax, DWORD PTR [esi+8]
  00027	2b 06		 sub	 eax, DWORD PTR [esi]
  00029	c1 f8 06	 sar	 eax, 6
  0002c	3b c3		 cmp	 eax, ebx
  0002e	73 79		 jae	 SHORT $LN3@reserve@3

; 750  : 			{	// not enough room, reallocate
; 751  : 			pointer _Ptr = this->_Alval.allocate(_Count);

  00030	6a 00		 push	 0
  00032	53		 push	 ebx
  00033	e8 00 00 00 00	 call	 ??$_Allocate@UFishingTypeInfo@@@std@@YAPAUFishingTypeInfo@@IPAU1@@Z ; std::_Allocate<FishingTypeInfo>

; 752  : 
; 753  : 			_TRY_BEGIN
; 754  : 			_Umove(this->_Myfirst, this->_Mylast, _Ptr);

  00038	8b 0e		 mov	 ecx, DWORD PTR [esi]
  0003a	83 65 fc 00	 and	 DWORD PTR __$EHRec$[ebp+12], 0
  0003e	8d 56 0c	 lea	 edx, DWORD PTR [esi+12]
  00041	52		 push	 edx
  00042	89 45 ec	 mov	 DWORD PTR __Ptr$509456[ebp], eax
  00045	ff 75 ec	 push	 DWORD PTR __Ptr$509456[ebp]
  00048	8b 46 04	 mov	 eax, DWORD PTR [esi+4]
  0004b	50		 push	 eax
  0004c	51		 push	 ecx
  0004d	e8 00 00 00 00	 call	 ??$_Uninitialized_move@PAUFishingTypeInfo@@PAU1@V?$allocator@UFishingTypeInfo@@@std@@@std@@YAPAUFishingTypeInfo@@PAU1@00AAV?$allocator@UFishingTypeInfo@@@0@@Z ; std::_Uninitialized_move<FishingTypeInfo *,FishingTypeInfo *,std::allocator<FishingTypeInfo> >

; 758  : 			_CATCH_END
; 759  : 
; 760  : 			size_type _Size = size();

  00052	8b 4e 04	 mov	 ecx, DWORD PTR [esi+4]
  00055	8b 06		 mov	 eax, DWORD PTR [esi]
  00057	83 4d fc ff	 or	 DWORD PTR __$EHRec$[ebp+12], -1
  0005b	8b f9		 mov	 edi, ecx
  0005d	83 c4 18	 add	 esp, 24			; 00000018H
  00060	2b f8		 sub	 edi, eax
  00062	89 4d e8	 mov	 DWORD PTR tv300[ebp], ecx
  00065	85 c0		 test	 eax, eax
  00067	74 23		 je	 SHORT $LN51@reserve@3

; 761  : 			if (this->_Myfirst != 0)
; 762  : 				{	// destroy and deallocate old array
; 763  : 				_Destroy(this->_Myfirst, this->_Mylast);

  00069	89 45 08	 mov	 DWORD PTR $T516461[ebp], eax
  0006c	3b c1		 cmp	 eax, ecx
  0006e	74 14		 je	 SHORT $LN37@reserve@3
$LN39@reserve@3:
  00070	8b 4d 08	 mov	 ecx, DWORD PTR $T516461[ebp]
  00073	e8 00 00 00 00	 call	 ??1FishingTypeInfo@@QAE@XZ
  00078	83 45 08 40	 add	 DWORD PTR $T516461[ebp], 64 ; 00000040H
  0007c	8b 45 08	 mov	 eax, DWORD PTR $T516461[ebp]
  0007f	3b 45 e8	 cmp	 eax, DWORD PTR tv300[ebp]
  00082	75 ec		 jne	 SHORT $LN39@reserve@3
$LN37@reserve@3:

; 764  : 				this->_Alval.deallocate(this->_Myfirst,
; 765  : 					this->_Myend - this->_Myfirst);

  00084	ff 36		 push	 DWORD PTR [esi]
  00086	e8 00 00 00 00	 call	 ??3@YAXPAX@Z		; operator delete
  0008b	59		 pop	 ecx
$LN51@reserve@3:

; 766  : 				}
; 767  : 
; 768  : 			this->_Orphan_all();

  0008c	8b ce		 mov	 ecx, esi
  0008e	ff 15 00 00 00
	00		 call	 DWORD PTR __imp_?_Orphan_all@_Container_base0@std@@QAEXXZ

; 769  : 			this->_Myend = _Ptr + _Count;

  00094	8b 45 ec	 mov	 eax, DWORD PTR __Ptr$509456[ebp]
  00097	c1 e3 06	 shl	 ebx, 6
  0009a	03 d8		 add	 ebx, eax

; 770  : 			this->_Mylast = _Ptr + _Size;

  0009c	83 e7 c0	 and	 edi, -64		; ffffffc0H
  0009f	03 f8		 add	 edi, eax
  000a1	89 5e 08	 mov	 DWORD PTR [esi+8], ebx
  000a4	89 7e 04	 mov	 DWORD PTR [esi+4], edi

; 771  : 			this->_Myfirst = _Ptr;

  000a7	89 06		 mov	 DWORD PTR [esi], eax
$LN3@reserve@3:

; 772  : 			}
; 773  : 		}

  000a9	e8 00 00 00 00	 call	 __EH_epilog3
  000ae	c2 04 00	 ret	 4
__catch$?reserve@?$vector@UFishingTypeInfo@@V?$allocator@UFishingTypeInfo@@@std@@@std@@QAEXI@Z$0:

; 755  : 			_CATCH_ALL
; 756  : 			this->_Alval.deallocate(_Ptr, _Count);

  000b1	ff 75 ec	 push	 DWORD PTR __Ptr$509456[ebp]
  000b4	e8 00 00 00 00	 call	 ??3@YAXPAX@Z		; operator delete
  000b9	59		 pop	 ecx

; 757  : 			_RERAISE;

  000ba	6a 00		 push	 0
  000bc	6a 00		 push	 0
  000be	e8 00 00 00 00	 call	 __CxxThrowException@8
$LN60@reserve@3:
$LN58@reserve@3:
  000c3	cc		 int	 3
_TEXT	ENDS
;	COMDAT text$x
text$x	SEGMENT
__ehhandler$?reserve@?$vector@UFishingTypeInfo@@V?$allocator@UFishingTypeInfo@@@std@@@std@@QAEXI@Z:
  00000	8b 54 24 08	 mov	 edx, DWORD PTR [esp+8]
  00004	8d 42 0c	 lea	 eax, DWORD PTR [edx+12]
  00007	8b 4a e4	 mov	 ecx, DWORD PTR [edx-28]
  0000a	33 c8		 xor	 ecx, eax
  0000c	e8 00 00 00 00	 call	 @__security_check_cookie@4
  00011	b8 00 00 00 00	 mov	 eax, OFFSET __ehfuncinfo$?reserve@?$vector@UFishingTypeInfo@@V?$allocator@UFishingTypeInfo@@@std@@@std@@QAEXI@Z
  00016	e9 00 00 00 00	 jmp	 ___CxxFrameHandler3
text$x	ENDS
?reserve@?$vector@UFishingTypeInfo@@V?$allocator@UFishingTypeInfo@@@std@@@std@@QAEXI@Z ENDP ; std::vector<FishingTypeInfo,std::allocator<FishingTypeInfo> >::reserve
PUBLIC	??1?$vector@UFishingItem@@V?$allocator@UFishingItem@@@std@@@std@@QAE@XZ ; std::vector<FishingItem,std::allocator<FishingItem> >::~vector<FishingItem,std::allocator<FishingItem> >
; Function compile flags: /Ogsp
;	COMDAT ??1?$vector@UFishingItem@@V?$allocator@UFishingItem@@@std@@@std@@QAE@XZ
_TEXT	SEGMENT
??1?$vector@UFishingItem@@V?$allocator@UFishingItem@@@std@@@std@@QAE@XZ PROC ; std::vector<FishingItem,std::allocator<FishingItem> >::~vector<FishingItem,std::allocator<FishingItem> >, COMDAT
; _this$ = ecx

; 705  : 		_Tidy();

  00000	e9 00 00 00 00	 jmp	 ?_Tidy@?$vector@UFishingItem@@V?$allocator@UFishingItem@@@std@@@std@@IAEXXZ ; std::vector<FishingItem,std::allocator<FishingItem> >::_Tidy
??1?$vector@UFishingItem@@V?$allocator@UFishingItem@@@std@@@std@@QAE@XZ ENDP ; std::vector<FishingItem,std::allocator<FishingItem> >::~vector<FishingItem,std::allocator<FishingItem> >
_TEXT	ENDS
PUBLIC	?clear@?$vector@UFishingItem@@V?$allocator@UFishingItem@@@std@@@std@@QAEXXZ ; std::vector<FishingItem,std::allocator<FishingItem> >::clear
; Function compile flags: /Ogsp
;	COMDAT ?clear@?$vector@UFishingItem@@V?$allocator@UFishingItem@@@std@@@std@@QAEXXZ
_TEXT	SEGMENT
$T516539 = -4						; size = 4
?clear@?$vector@UFishingItem@@V?$allocator@UFishingItem@@@std@@@std@@QAEXXZ PROC ; std::vector<FishingItem,std::allocator<FishingItem> >::clear, COMDAT
; _this$ = ecx

; 1217 : 		{	// erase all

  00000	55		 push	 ebp
  00001	8b ec		 mov	 ebp, esp
  00003	51		 push	 ecx

; 1218 : 		erase(begin(), end());

  00004	8b 41 04	 mov	 eax, DWORD PTR [ecx+4]
  00007	8b 11		 mov	 edx, DWORD PTR [ecx]
  00009	50		 push	 eax
  0000a	52		 push	 edx
  0000b	8d 45 fc	 lea	 eax, DWORD PTR $T516539[ebp]
  0000e	50		 push	 eax
  0000f	e8 00 00 00 00	 call	 ?erase@?$vector@UFishingItem@@V?$allocator@UFishingItem@@@std@@@std@@QAE?AV?$_Vector_iterator@V?$_Vector_val@UFishingItem@@V?$allocator@UFishingItem@@@std@@@std@@@2@V?$_Vector_const_iterator@V?$_Vector_val@UFishingItem@@V?$allocator@UFishingItem@@@std@@@std@@@2@0@Z ; std::vector<FishingItem,std::allocator<FishingItem> >::erase

; 1219 : 		}

  00014	c9		 leave
  00015	c3		 ret	 0
?clear@?$vector@UFishingItem@@V?$allocator@UFishingItem@@@std@@@std@@QAEXXZ ENDP ; std::vector<FishingItem,std::allocator<FishingItem> >::clear
_TEXT	ENDS
PUBLIC	??1?$vector@UFishingItemGrade@@V?$allocator@UFishingItemGrade@@@std@@@std@@QAE@XZ ; std::vector<FishingItemGrade,std::allocator<FishingItemGrade> >::~vector<FishingItemGrade,std::allocator<FishingItemGrade> >
; Function compile flags: /Ogsp
;	COMDAT ??1?$vector@UFishingItemGrade@@V?$allocator@UFishingItemGrade@@@std@@@std@@QAE@XZ
_TEXT	SEGMENT
??1?$vector@UFishingItemGrade@@V?$allocator@UFishingItemGrade@@@std@@@std@@QAE@XZ PROC ; std::vector<FishingItemGrade,std::allocator<FishingItemGrade> >::~vector<FishingItemGrade,std::allocator<FishingItemGrade> >, COMDAT
; _this$ = ecx

; 705  : 		_Tidy();

  00000	e9 00 00 00 00	 jmp	 ?_Tidy@?$vector@UFishingItemGrade@@V?$allocator@UFishingItemGrade@@@std@@@std@@IAEXXZ ; std::vector<FishingItemGrade,std::allocator<FishingItemGrade> >::_Tidy
??1?$vector@UFishingItemGrade@@V?$allocator@UFishingItemGrade@@@std@@@std@@QAE@XZ ENDP ; std::vector<FishingItemGrade,std::allocator<FishingItemGrade> >::~vector<FishingItemGrade,std::allocator<FishingItemGrade> >
_TEXT	ENDS
PUBLIC	?clear@?$vector@UFishingItemGrade@@V?$allocator@UFishingItemGrade@@@std@@@std@@QAEXXZ ; std::vector<FishingItemGrade,std::allocator<FishingItemGrade> >::clear
; Function compile flags: /Ogsp
;	COMDAT ?clear@?$vector@UFishingItemGrade@@V?$allocator@UFishingItemGrade@@@std@@@std@@QAEXXZ
_TEXT	SEGMENT
$T516603 = -4						; size = 4
?clear@?$vector@UFishingItemGrade@@V?$allocator@UFishingItemGrade@@@std@@@std@@QAEXXZ PROC ; std::vector<FishingItemGrade,std::allocator<FishingItemGrade> >::clear, COMDAT
; _this$ = ecx

; 1217 : 		{	// erase all

  00000	55		 push	 ebp
  00001	8b ec		 mov	 ebp, esp
  00003	51		 push	 ecx

; 1218 : 		erase(begin(), end());

  00004	8b 41 04	 mov	 eax, DWORD PTR [ecx+4]
  00007	8b 11		 mov	 edx, DWORD PTR [ecx]
  00009	50		 push	 eax
  0000a	52		 push	 edx
  0000b	8d 45 fc	 lea	 eax, DWORD PTR $T516603[ebp]
  0000e	50		 push	 eax
  0000f	e8 00 00 00 00	 call	 ?erase@?$vector@UFishingItemGrade@@V?$allocator@UFishingItemGrade@@@std@@@std@@QAE?AV?$_Vector_iterator@V?$_Vector_val@UFishingItemGrade@@V?$allocator@UFishingItemGrade@@@std@@@std@@@2@V?$_Vector_const_iterator@V?$_Vector_val@UFishingItemGrade@@V?$allocator@UFishingItemGrade@@@std@@@std@@@2@0@Z ; std::vector<FishingItemGrade,std::allocator<FishingItemGrade> >::erase

; 1219 : 		}

  00014	c9		 leave
  00015	c3		 ret	 0
?clear@?$vector@UFishingItemGrade@@V?$allocator@UFishingItemGrade@@@std@@@std@@QAEXXZ ENDP ; std::vector<FishingItemGrade,std::allocator<FishingItemGrade> >::clear
_TEXT	ENDS
PUBLIC	??1?$vector@UFishingTypeInfo@@V?$allocator@UFishingTypeInfo@@@std@@@std@@QAE@XZ ; std::vector<FishingTypeInfo,std::allocator<FishingTypeInfo> >::~vector<FishingTypeInfo,std::allocator<FishingTypeInfo> >
; Function compile flags: /Ogsp
;	COMDAT ??1?$vector@UFishingTypeInfo@@V?$allocator@UFishingTypeInfo@@@std@@@std@@QAE@XZ
_TEXT	SEGMENT
??1?$vector@UFishingTypeInfo@@V?$allocator@UFishingTypeInfo@@@std@@@std@@QAE@XZ PROC ; std::vector<FishingTypeInfo,std::allocator<FishingTypeInfo> >::~vector<FishingTypeInfo,std::allocator<FishingTypeInfo> >, COMDAT
; _this$ = ecx

; 705  : 		_Tidy();

  00000	e9 00 00 00 00	 jmp	 ?_Tidy@?$vector@UFishingTypeInfo@@V?$allocator@UFishingTypeInfo@@@std@@@std@@IAEXXZ ; std::vector<FishingTypeInfo,std::allocator<FishingTypeInfo> >::_Tidy
??1?$vector@UFishingTypeInfo@@V?$allocator@UFishingTypeInfo@@@std@@@std@@QAE@XZ ENDP ; std::vector<FishingTypeInfo,std::allocator<FishingTypeInfo> >::~vector<FishingTypeInfo,std::allocator<FishingTypeInfo> >
_TEXT	ENDS
PUBLIC	?clear@?$vector@UFishingTypeInfo@@V?$allocator@UFishingTypeInfo@@@std@@@std@@QAEXXZ ; std::vector<FishingTypeInfo,std::allocator<FishingTypeInfo> >::clear
; Function compile flags: /Ogsp
;	COMDAT ?clear@?$vector@UFishingTypeInfo@@V?$allocator@UFishingTypeInfo@@@std@@@std@@QAEXXZ
_TEXT	SEGMENT
$T516667 = -4						; size = 4
?clear@?$vector@UFishingTypeInfo@@V?$allocator@UFishingTypeInfo@@@std@@@std@@QAEXXZ PROC ; std::vector<FishingTypeInfo,std::allocator<FishingTypeInfo> >::clear, COMDAT
; _this$ = ecx

; 1217 : 		{	// erase all

  00000	55		 push	 ebp
  00001	8b ec		 mov	 ebp, esp
  00003	51		 push	 ecx

; 1218 : 		erase(begin(), end());

  00004	8b 41 04	 mov	 eax, DWORD PTR [ecx+4]
  00007	8b 11		 mov	 edx, DWORD PTR [ecx]
  00009	50		 push	 eax
  0000a	52		 push	 edx
  0000b	8d 45 fc	 lea	 eax, DWORD PTR $T516667[ebp]
  0000e	50		 push	 eax
  0000f	e8 00 00 00 00	 call	 ?erase@?$vector@UFishingTypeInfo@@V?$allocator@UFishingTypeInfo@@@std@@@std@@QAE?AV?$_Vector_iterator@V?$_Vector_val@UFishingTypeInfo@@V?$allocator@UFishingTypeInfo@@@std@@@std@@@2@V?$_Vector_const_iterator@V?$_Vector_val@UFishingTypeInfo@@V?$allocator@UFishingTypeInfo@@@std@@@std@@@2@0@Z ; std::vector<FishingTypeInfo,std::allocator<FishingTypeInfo> >::erase

; 1219 : 		}

  00014	c9		 leave
  00015	c3		 ret	 0
?clear@?$vector@UFishingTypeInfo@@V?$allocator@UFishingTypeInfo@@@std@@@std@@QAEXXZ ENDP ; std::vector<FishingTypeInfo,std::allocator<FishingTypeInfo> >::clear
_TEXT	ENDS
PUBLIC	?_Reserve@?$vector@UFishingItem@@V?$allocator@UFishingItem@@@std@@@std@@IAEXI@Z ; std::vector<FishingItem,std::allocator<FishingItem> >::_Reserve
; Function compile flags: /Ogsp
;	COMDAT ?_Reserve@?$vector@UFishingItem@@V?$allocator@UFishingItem@@@std@@@std@@IAEXI@Z
_TEXT	SEGMENT
__Count$ = 8						; size = 4
?_Reserve@?$vector@UFishingItem@@V?$allocator@UFishingItem@@@std@@@std@@IAEXI@Z PROC ; std::vector<FishingItem,std::allocator<FishingItem> >::_Reserve, COMDAT
; _this$ = ecx

; 1290 : 		{	// ensure room for _Count new elements, grow exponentially

  00000	55		 push	 ebp
  00001	8b ec		 mov	 ebp, esp
  00003	56		 push	 esi
  00004	8b f1		 mov	 esi, ecx

; 1291 : 		size_type _Size = size();

  00006	8b 0e		 mov	 ecx, DWORD PTR [esi]
  00008	8b 46 04	 mov	 eax, DWORD PTR [esi+4]
  0000b	2b c1		 sub	 eax, ecx

; 1292 : 		if (max_size() - _Count < _Size)

  0000d	ba ff ff ff 03	 mov	 edx, 67108863		; 03ffffffH
  00012	2b 55 08	 sub	 edx, DWORD PTR __Count$[ebp]
  00015	c1 f8 06	 sar	 eax, 6
  00018	3b d0		 cmp	 edx, eax
  0001a	73 0b		 jae	 SHORT $LN4@Reserve

; 1293 : 			_Xlen();

  0001c	68 00 00 00 00	 push	 OFFSET ??_C@_0BD@OLBABOEK@vector?$DMT?$DO?5too?5long?$AA@
  00021	ff 15 00 00 00
	00		 call	 DWORD PTR __imp_?_Xlength_error@std@@YAXPBD@Z
$LN21@Reserve:
$LN4@Reserve:

; 1294 : 		else if ((_Size += _Count) <= capacity())

  00027	8b 56 08	 mov	 edx, DWORD PTR [esi+8]
  0002a	03 45 08	 add	 eax, DWORD PTR __Count$[ebp]
  0002d	2b d1		 sub	 edx, ecx
  0002f	c1 fa 06	 sar	 edx, 6
  00032	3b c2		 cmp	 eax, edx
  00034	76 10		 jbe	 SHORT $LN1@Reserve

; 1295 : 			;
; 1296 : 		else
; 1297 : 			reserve(_Grow_to(_Size));

  00036	50		 push	 eax
  00037	8b ce		 mov	 ecx, esi
  00039	e8 00 00 00 00	 call	 ?_Grow_to@?$vector@UFishingItem@@V?$allocator@UFishingItem@@@std@@@std@@IBEII@Z ; std::vector<FishingItem,std::allocator<FishingItem> >::_Grow_to
  0003e	50		 push	 eax
  0003f	8b ce		 mov	 ecx, esi
  00041	e8 00 00 00 00	 call	 ?reserve@?$vector@UFishingItem@@V?$allocator@UFishingItem@@@std@@@std@@QAEXI@Z ; std::vector<FishingItem,std::allocator<FishingItem> >::reserve
$LN1@Reserve:
  00046	5e		 pop	 esi

; 1298 : 		}

  00047	5d		 pop	 ebp
  00048	c2 04 00	 ret	 4
$LN20@Reserve:
?_Reserve@?$vector@UFishingItem@@V?$allocator@UFishingItem@@@std@@@std@@IAEXI@Z ENDP ; std::vector<FishingItem,std::allocator<FishingItem> >::_Reserve
_TEXT	ENDS
PUBLIC	?_Reserve@?$vector@UFishingItemGrade@@V?$allocator@UFishingItemGrade@@@std@@@std@@IAEXI@Z ; std::vector<FishingItemGrade,std::allocator<FishingItemGrade> >::_Reserve
; Function compile flags: /Ogsp
;	COMDAT ?_Reserve@?$vector@UFishingItemGrade@@V?$allocator@UFishingItemGrade@@@std@@@std@@IAEXI@Z
_TEXT	SEGMENT
__Count$ = 8						; size = 4
?_Reserve@?$vector@UFishingItemGrade@@V?$allocator@UFishingItemGrade@@@std@@@std@@IAEXI@Z PROC ; std::vector<FishingItemGrade,std::allocator<FishingItemGrade> >::_Reserve, COMDAT
; _this$ = ecx

; 1290 : 		{	// ensure room for _Count new elements, grow exponentially

  00000	55		 push	 ebp
  00001	8b ec		 mov	 ebp, esp
  00003	56		 push	 esi
  00004	8b f1		 mov	 esi, ecx

; 1291 : 		size_type _Size = size();

  00006	8b 0e		 mov	 ecx, DWORD PTR [esi]
  00008	8b 46 04	 mov	 eax, DWORD PTR [esi+4]
  0000b	2b c1		 sub	 eax, ecx
  0000d	57		 push	 edi
  0000e	99		 cdq
  0000f	6a 28		 push	 40			; 00000028H
  00011	5f		 pop	 edi
  00012	f7 ff		 idiv	 edi
  00014	8b f8		 mov	 edi, eax

; 1292 : 		if (max_size() - _Count < _Size)

  00016	b8 66 66 66 06	 mov	 eax, 107374182		; 06666666H
  0001b	2b 45 08	 sub	 eax, DWORD PTR __Count$[ebp]
  0001e	3b c7		 cmp	 eax, edi
  00020	73 0b		 jae	 SHORT $LN4@Reserve@2

; 1293 : 			_Xlen();

  00022	68 00 00 00 00	 push	 OFFSET ??_C@_0BD@OLBABOEK@vector?$DMT?$DO?5too?5long?$AA@
  00027	ff 15 00 00 00
	00		 call	 DWORD PTR __imp_?_Xlength_error@std@@YAXPBD@Z
$LN21@Reserve@2:
$LN4@Reserve@2:

; 1294 : 		else if ((_Size += _Count) <= capacity())

  0002d	8b 46 08	 mov	 eax, DWORD PTR [esi+8]
  00030	2b c1		 sub	 eax, ecx
  00032	6a 28		 push	 40			; 00000028H
  00034	99		 cdq
  00035	59		 pop	 ecx
  00036	f7 f9		 idiv	 ecx
  00038	03 7d 08	 add	 edi, DWORD PTR __Count$[ebp]
  0003b	3b f8		 cmp	 edi, eax
  0003d	76 10		 jbe	 SHORT $LN1@Reserve@2

; 1295 : 			;
; 1296 : 		else
; 1297 : 			reserve(_Grow_to(_Size));

  0003f	57		 push	 edi
  00040	8b ce		 mov	 ecx, esi
  00042	e8 00 00 00 00	 call	 ?_Grow_to@?$vector@UFishingItemGrade@@V?$allocator@UFishingItemGrade@@@std@@@std@@IBEII@Z ; std::vector<FishingItemGrade,std::allocator<FishingItemGrade> >::_Grow_to
  00047	50		 push	 eax
  00048	8b ce		 mov	 ecx, esi
  0004a	e8 00 00 00 00	 call	 ?reserve@?$vector@UFishingItemGrade@@V?$allocator@UFishingItemGrade@@@std@@@std@@QAEXI@Z ; std::vector<FishingItemGrade,std::allocator<FishingItemGrade> >::reserve
$LN1@Reserve@2:
  0004f	5f		 pop	 edi
  00050	5e		 pop	 esi

; 1298 : 		}

  00051	5d		 pop	 ebp
  00052	c2 04 00	 ret	 4
$LN20@Reserve@2:
?_Reserve@?$vector@UFishingItemGrade@@V?$allocator@UFishingItemGrade@@@std@@@std@@IAEXI@Z ENDP ; std::vector<FishingItemGrade,std::allocator<FishingItemGrade> >::_Reserve
_TEXT	ENDS
PUBLIC	?_Reserve@?$vector@UFishingTypeInfo@@V?$allocator@UFishingTypeInfo@@@std@@@std@@IAEXI@Z ; std::vector<FishingTypeInfo,std::allocator<FishingTypeInfo> >::_Reserve
; Function compile flags: /Ogsp
;	COMDAT ?_Reserve@?$vector@UFishingTypeInfo@@V?$allocator@UFishingTypeInfo@@@std@@@std@@IAEXI@Z
_TEXT	SEGMENT
__Count$ = 8						; size = 4
?_Reserve@?$vector@UFishingTypeInfo@@V?$allocator@UFishingTypeInfo@@@std@@@std@@IAEXI@Z PROC ; std::vector<FishingTypeInfo,std::allocator<FishingTypeInfo> >::_Reserve, COMDAT
; _this$ = ecx

; 1290 : 		{	// ensure room for _Count new elements, grow exponentially

  00000	55		 push	 ebp
  00001	8b ec		 mov	 ebp, esp
  00003	56		 push	 esi
  00004	8b f1		 mov	 esi, ecx

; 1291 : 		size_type _Size = size();

  00006	8b 0e		 mov	 ecx, DWORD PTR [esi]
  00008	8b 46 04	 mov	 eax, DWORD PTR [esi+4]
  0000b	2b c1		 sub	 eax, ecx

; 1292 : 		if (max_size() - _Count < _Size)

  0000d	ba ff ff ff 03	 mov	 edx, 67108863		; 03ffffffH
  00012	2b 55 08	 sub	 edx, DWORD PTR __Count$[ebp]
  00015	c1 f8 06	 sar	 eax, 6
  00018	3b d0		 cmp	 edx, eax
  0001a	73 0b		 jae	 SHORT $LN4@Reserve@3

; 1293 : 			_Xlen();

  0001c	68 00 00 00 00	 push	 OFFSET ??_C@_0BD@OLBABOEK@vector?$DMT?$DO?5too?5long?$AA@
  00021	ff 15 00 00 00
	00		 call	 DWORD PTR __imp_?_Xlength_error@std@@YAXPBD@Z
$LN21@Reserve@3:
$LN4@Reserve@3:

; 1294 : 		else if ((_Size += _Count) <= capacity())

  00027	8b 56 08	 mov	 edx, DWORD PTR [esi+8]
  0002a	03 45 08	 add	 eax, DWORD PTR __Count$[ebp]
  0002d	2b d1		 sub	 edx, ecx
  0002f	c1 fa 06	 sar	 edx, 6
  00032	3b c2		 cmp	 eax, edx
  00034	76 10		 jbe	 SHORT $LN1@Reserve@3

; 1295 : 			;
; 1296 : 		else
; 1297 : 			reserve(_Grow_to(_Size));

  00036	50		 push	 eax
  00037	8b ce		 mov	 ecx, esi
  00039	e8 00 00 00 00	 call	 ?_Grow_to@?$vector@UFishingTypeInfo@@V?$allocator@UFishingTypeInfo@@@std@@@std@@IBEII@Z ; std::vector<FishingTypeInfo,std::allocator<FishingTypeInfo> >::_Grow_to
  0003e	50		 push	 eax
  0003f	8b ce		 mov	 ecx, esi
  00041	e8 00 00 00 00	 call	 ?reserve@?$vector@UFishingTypeInfo@@V?$allocator@UFishingTypeInfo@@@std@@@std@@QAEXI@Z ; std::vector<FishingTypeInfo,std::allocator<FishingTypeInfo> >::reserve
$LN1@Reserve@3:
  00046	5e		 pop	 esi

; 1298 : 		}

  00047	5d		 pop	 ebp
  00048	c2 04 00	 ret	 4
$LN20@Reserve@3:
?_Reserve@?$vector@UFishingTypeInfo@@V?$allocator@UFishingTypeInfo@@@std@@@std@@IAEXI@Z ENDP ; std::vector<FishingTypeInfo,std::allocator<FishingTypeInfo> >::_Reserve
_TEXT	ENDS
PUBLIC	?ClearAllInfo@ioFishingManager@@IAEXXZ		; ioFishingManager::ClearAllInfo
; Function compile flags: /Ogsp
; File d:\lost saga for developer\youtube\tutorial\source\src\lsclient\iofishingmanager.cpp
;	COMDAT ?ClearAllInfo@ioFishingManager@@IAEXXZ
_TEXT	SEGMENT
$T517032 = -4						; size = 4
$T516951 = -4						; size = 4
$T516871 = -4						; size = 4
?ClearAllInfo@ioFishingManager@@IAEXXZ PROC		; ioFishingManager::ClearAllInfo, COMDAT
; _this$ = ecx

; 137  : {

  00000	55		 push	 ebp
  00001	8b ec		 mov	 ebp, esp
  00003	51		 push	 ecx
  00004	56		 push	 esi
  00005	8b f1		 mov	 esi, ecx

; 138  : 	m_vFishingItemList.clear();

  00007	8d 4e 04	 lea	 ecx, DWORD PTR [esi+4]
  0000a	8b 41 04	 mov	 eax, DWORD PTR [ecx+4]
  0000d	8b 11		 mov	 edx, DWORD PTR [ecx]
  0000f	50		 push	 eax
  00010	52		 push	 edx
  00011	8d 45 fc	 lea	 eax, DWORD PTR $T516871[ebp]
  00014	50		 push	 eax
  00015	e8 00 00 00 00	 call	 ?erase@?$vector@UFishingItem@@V?$allocator@UFishingItem@@@std@@@std@@QAE?AV?$_Vector_iterator@V?$_Vector_val@UFishingItem@@V?$allocator@UFishingItem@@@std@@@std@@@2@V?$_Vector_const_iterator@V?$_Vector_val@UFishingItem@@V?$allocator@UFishingItem@@@std@@@std@@@2@0@Z ; std::vector<FishingItem,std::allocator<FishingItem> >::erase

; 139  : 	m_vFishingItemGradeList.clear();

  0001a	8d 4e 14	 lea	 ecx, DWORD PTR [esi+20]
  0001d	8b 41 04	 mov	 eax, DWORD PTR [ecx+4]
  00020	8b 11		 mov	 edx, DWORD PTR [ecx]
  00022	50		 push	 eax
  00023	52		 push	 edx
  00024	8d 45 fc	 lea	 eax, DWORD PTR $T516951[ebp]
  00027	50		 push	 eax
  00028	e8 00 00 00 00	 call	 ?erase@?$vector@UFishingItemGrade@@V?$allocator@UFishingItemGrade@@@std@@@std@@QAE?AV?$_Vector_iterator@V?$_Vector_val@UFishingItemGrade@@V?$allocator@UFishingItemGrade@@@std@@@std@@@2@V?$_Vector_const_iterator@V?$_Vector_val@UFishingItemGrade@@V?$allocator@UFishingItemGrade@@@std@@@std@@@2@0@Z ; std::vector<FishingItemGrade,std::allocator<FishingItemGrade> >::erase

; 140  : 	m_vFishingTypeInfoList.clear();

  0002d	8d 4e 24	 lea	 ecx, DWORD PTR [esi+36]
  00030	8b 41 04	 mov	 eax, DWORD PTR [ecx+4]
  00033	8b 11		 mov	 edx, DWORD PTR [ecx]
  00035	50		 push	 eax
  00036	52		 push	 edx
  00037	8d 45 fc	 lea	 eax, DWORD PTR $T517032[ebp]
  0003a	50		 push	 eax
  0003b	e8 00 00 00 00	 call	 ?erase@?$vector@UFishingTypeInfo@@V?$allocator@UFishingTypeInfo@@@std@@@std@@QAE?AV?$_Vector_iterator@V?$_Vector_val@UFishingTypeInfo@@V?$allocator@UFishingTypeInfo@@@std@@@std@@@2@V?$_Vector_const_iterator@V?$_Vector_val@UFishingTypeInfo@@V?$allocator@UFishingTypeInfo@@@std@@@std@@@2@0@Z ; std::vector<FishingTypeInfo,std::allocator<FishingTypeInfo> >::erase
  00040	5e		 pop	 esi

; 141  : }

  00041	c9		 leave
  00042	c3		 ret	 0
?ClearAllInfo@ioFishingManager@@IAEXXZ ENDP		; ioFishingManager::ClearAllInfo
_TEXT	ENDS
PUBLIC	?push_back@?$vector@UFishingItem@@V?$allocator@UFishingItem@@@std@@@std@@QAEXABUFishingItem@@@Z ; std::vector<FishingItem,std::allocator<FishingItem> >::push_back
; Function compile flags: /Ogsp
; File c:\program files (x86)\microsoft visual studio 10.0\vc\include\vector
;	COMDAT ?push_back@?$vector@UFishingItem@@V?$allocator@UFishingItem@@@std@@@std@@QAEXABUFishingItem@@@Z
_TEXT	SEGMENT
__Val$ = 8						; size = 4
?push_back@?$vector@UFishingItem@@V?$allocator@UFishingItem@@@std@@@std@@QAEXABUFishingItem@@@Z PROC ; std::vector<FishingItem,std::allocator<FishingItem> >::push_back, COMDAT
; _this$ = ecx

; 976  : 		{	// insert element at end

  00000	55		 push	 ebp
  00001	8b ec		 mov	 ebp, esp
  00003	56		 push	 esi
  00004	8b f1		 mov	 esi, ecx

; 977  : 		if (_Inside(_STD addressof(_Val)))

  00006	8b 46 04	 mov	 eax, DWORD PTR [esi+4]
  00009	57		 push	 edi
  0000a	8b 7d 08	 mov	 edi, DWORD PTR __Val$[ebp]
  0000d	3b f8		 cmp	 edi, eax
  0000f	73 2d		 jae	 SHORT $LN4@push_back
  00011	8b 0e		 mov	 ecx, DWORD PTR [esi]
  00013	3b cf		 cmp	 ecx, edi
  00015	77 27		 ja	 SHORT $LN4@push_back

; 978  : 			{	// push back an element
; 979  : 			size_type _Idx = _STD addressof(_Val) - this->_Myfirst;

  00017	2b f9		 sub	 edi, ecx

; 980  : 			if (this->_Mylast == this->_Myend)

  00019	3b 46 08	 cmp	 eax, DWORD PTR [esi+8]
  0001c	75 09		 jne	 SHORT $LN3@push_back

; 981  : 				_Reserve(1);

  0001e	6a 01		 push	 1
  00020	8b ce		 mov	 ecx, esi
  00022	e8 00 00 00 00	 call	 ?_Reserve@?$vector@UFishingItem@@V?$allocator@UFishingItem@@@std@@@std@@IAEXI@Z ; std::vector<FishingItem,std::allocator<FishingItem> >::_Reserve
$LN3@push_back:

; 982  : 			_Orphan_range(this->_Mylast, this->_Mylast);
; 983  : 			_Cons_val(this->_Alval,
; 984  : 				this->_Mylast,
; 985  : 				this->_Myfirst[_Idx]);

  00027	83 e7 c0	 and	 edi, -64		; ffffffc0H
  0002a	03 3e		 add	 edi, DWORD PTR [esi]
  0002c	8d 46 0c	 lea	 eax, DWORD PTR [esi+12]
  0002f	57		 push	 edi
  00030	ff 76 04	 push	 DWORD PTR [esi+4]
  00033	50		 push	 eax
  00034	e8 00 00 00 00	 call	 ??$_Cons_val@V?$allocator@UFishingItem@@@std@@UFishingItem@@AAU3@@std@@YAXAAV?$allocator@UFishingItem@@@0@PAUFishingItem@@AAU2@@Z ; std::_Cons_val<std::allocator<FishingItem>,FishingItem,FishingItem &>
  00039	83 c4 0c	 add	 esp, 12			; 0000000cH

; 986  : 			++this->_Mylast;
; 987  : 			}
; 988  : 		else

  0003c	eb 19		 jmp	 SHORT $LN26@push_back
$LN4@push_back:

; 989  : 			{	// push back a non-element
; 990  : 			if (this->_Mylast == this->_Myend)

  0003e	3b 46 08	 cmp	 eax, DWORD PTR [esi+8]
  00041	75 09		 jne	 SHORT $LN1@push_back

; 991  : 				_Reserve(1);

  00043	6a 01		 push	 1
  00045	8b ce		 mov	 ecx, esi
  00047	e8 00 00 00 00	 call	 ?_Reserve@?$vector@UFishingItem@@V?$allocator@UFishingItem@@@std@@@std@@IAEXI@Z ; std::vector<FishingItem,std::allocator<FishingItem> >::_Reserve
$LN1@push_back:

; 992  : 			_Orphan_range(this->_Mylast, this->_Mylast);
; 993  : 			_Cons_val(this->_Alval,
; 994  : 				this->_Mylast,
; 995  : 				_Val);

  0004c	57		 push	 edi
  0004d	ff 76 04	 push	 DWORD PTR [esi+4]
  00050	e8 00 00 00 00	 call	 ??$_Construct@UFishingItem@@ABU1@@std@@YAXPAUFishingItem@@ABU1@@Z ; std::_Construct<FishingItem,FishingItem const &>
  00055	59		 pop	 ecx
  00056	59		 pop	 ecx
$LN26@push_back:

; 996  : 			++this->_Mylast;

  00057	83 46 04 40	 add	 DWORD PTR [esi+4], 64	; 00000040H
  0005b	5f		 pop	 edi
  0005c	5e		 pop	 esi

; 997  : 			}
; 998  : 		}

  0005d	5d		 pop	 ebp
  0005e	c2 04 00	 ret	 4
?push_back@?$vector@UFishingItem@@V?$allocator@UFishingItem@@@std@@@std@@QAEXABUFishingItem@@@Z ENDP ; std::vector<FishingItem,std::allocator<FishingItem> >::push_back
_TEXT	ENDS
PUBLIC	?push_back@?$vector@UFishingItemGrade@@V?$allocator@UFishingItemGrade@@@std@@@std@@QAEXABUFishingItemGrade@@@Z ; std::vector<FishingItemGrade,std::allocator<FishingItemGrade> >::push_back
; Function compile flags: /Ogsp
;	COMDAT ?push_back@?$vector@UFishingItemGrade@@V?$allocator@UFishingItemGrade@@@std@@@std@@QAEXABUFishingItemGrade@@@Z
_TEXT	SEGMENT
__Val$ = 8						; size = 4
?push_back@?$vector@UFishingItemGrade@@V?$allocator@UFishingItemGrade@@@std@@@std@@QAEXABUFishingItemGrade@@@Z PROC ; std::vector<FishingItemGrade,std::allocator<FishingItemGrade> >::push_back, COMDAT
; _this$ = ecx

; 976  : 		{	// insert element at end

  00000	55		 push	 ebp
  00001	8b ec		 mov	 ebp, esp
  00003	56		 push	 esi
  00004	8b f1		 mov	 esi, ecx

; 977  : 		if (_Inside(_STD addressof(_Val)))

  00006	8b 4e 04	 mov	 ecx, DWORD PTR [esi+4]
  00009	57		 push	 edi
  0000a	8b 7d 08	 mov	 edi, DWORD PTR __Val$[ebp]
  0000d	3b f9		 cmp	 edi, ecx
  0000f	73 37		 jae	 SHORT $LN4@push_back@2
  00011	8b 16		 mov	 edx, DWORD PTR [esi]
  00013	3b d7		 cmp	 edx, edi
  00015	77 31		 ja	 SHORT $LN4@push_back@2

; 978  : 			{	// push back an element
; 979  : 			size_type _Idx = _STD addressof(_Val) - this->_Myfirst;

  00017	8b c7		 mov	 eax, edi
  00019	2b c2		 sub	 eax, edx
  0001b	6a 28		 push	 40			; 00000028H
  0001d	99		 cdq
  0001e	5f		 pop	 edi
  0001f	f7 ff		 idiv	 edi
  00021	8b f8		 mov	 edi, eax

; 980  : 			if (this->_Mylast == this->_Myend)

  00023	3b 4e 08	 cmp	 ecx, DWORD PTR [esi+8]
  00026	75 09		 jne	 SHORT $LN3@push_back@2

; 981  : 				_Reserve(1);

  00028	6a 01		 push	 1
  0002a	8b ce		 mov	 ecx, esi
  0002c	e8 00 00 00 00	 call	 ?_Reserve@?$vector@UFishingItemGrade@@V?$allocator@UFishingItemGrade@@@std@@@std@@IAEXI@Z ; std::vector<FishingItemGrade,std::allocator<FishingItemGrade> >::_Reserve
$LN3@push_back@2:

; 982  : 			_Orphan_range(this->_Mylast, this->_Mylast);
; 983  : 			_Cons_val(this->_Alval,
; 984  : 				this->_Mylast,
; 985  : 				this->_Myfirst[_Idx]);

  00031	6b ff 28	 imul	 edi, 40			; 00000028H
  00034	03 3e		 add	 edi, DWORD PTR [esi]
  00036	8d 46 0c	 lea	 eax, DWORD PTR [esi+12]
  00039	57		 push	 edi
  0003a	ff 76 04	 push	 DWORD PTR [esi+4]
  0003d	50		 push	 eax
  0003e	e8 00 00 00 00	 call	 ??$_Cons_val@V?$allocator@UFishingItemGrade@@@std@@UFishingItemGrade@@AAU3@@std@@YAXAAV?$allocator@UFishingItemGrade@@@0@PAUFishingItemGrade@@AAU2@@Z ; std::_Cons_val<std::allocator<FishingItemGrade>,FishingItemGrade,FishingItemGrade &>
  00043	83 c4 0c	 add	 esp, 12			; 0000000cH

; 986  : 			++this->_Mylast;
; 987  : 			}
; 988  : 		else

  00046	eb 19		 jmp	 SHORT $LN26@push_back@2
$LN4@push_back@2:

; 989  : 			{	// push back a non-element
; 990  : 			if (this->_Mylast == this->_Myend)

  00048	3b 4e 08	 cmp	 ecx, DWORD PTR [esi+8]
  0004b	75 09		 jne	 SHORT $LN1@push_back@2

; 991  : 				_Reserve(1);

  0004d	6a 01		 push	 1
  0004f	8b ce		 mov	 ecx, esi
  00051	e8 00 00 00 00	 call	 ?_Reserve@?$vector@UFishingItemGrade@@V?$allocator@UFishingItemGrade@@@std@@@std@@IAEXI@Z ; std::vector<FishingItemGrade,std::allocator<FishingItemGrade> >::_Reserve
$LN1@push_back@2:

; 992  : 			_Orphan_range(this->_Mylast, this->_Mylast);
; 993  : 			_Cons_val(this->_Alval,
; 994  : 				this->_Mylast,
; 995  : 				_Val);

  00056	57		 push	 edi
  00057	ff 76 04	 push	 DWORD PTR [esi+4]
  0005a	e8 00 00 00 00	 call	 ??$_Construct@UFishingItemGrade@@ABU1@@std@@YAXPAUFishingItemGrade@@ABU1@@Z ; std::_Construct<FishingItemGrade,FishingItemGrade const &>
  0005f	59		 pop	 ecx
  00060	59		 pop	 ecx
$LN26@push_back@2:

; 996  : 			++this->_Mylast;

  00061	83 46 04 28	 add	 DWORD PTR [esi+4], 40	; 00000028H
  00065	5f		 pop	 edi
  00066	5e		 pop	 esi

; 997  : 			}
; 998  : 		}

  00067	5d		 pop	 ebp
  00068	c2 04 00	 ret	 4
?push_back@?$vector@UFishingItemGrade@@V?$allocator@UFishingItemGrade@@@std@@@std@@QAEXABUFishingItemGrade@@@Z ENDP ; std::vector<FishingItemGrade,std::allocator<FishingItemGrade> >::push_back
_TEXT	ENDS
PUBLIC	?push_back@?$vector@UFishingTypeInfo@@V?$allocator@UFishingTypeInfo@@@std@@@std@@QAEXABUFishingTypeInfo@@@Z ; std::vector<FishingTypeInfo,std::allocator<FishingTypeInfo> >::push_back
; Function compile flags: /Ogsp
;	COMDAT ?push_back@?$vector@UFishingTypeInfo@@V?$allocator@UFishingTypeInfo@@@std@@@std@@QAEXABUFishingTypeInfo@@@Z
_TEXT	SEGMENT
__Val$ = 8						; size = 4
?push_back@?$vector@UFishingTypeInfo@@V?$allocator@UFishingTypeInfo@@@std@@@std@@QAEXABUFishingTypeInfo@@@Z PROC ; std::vector<FishingTypeInfo,std::allocator<FishingTypeInfo> >::push_back, COMDAT
; _this$ = ecx

; 976  : 		{	// insert element at end

  00000	55		 push	 ebp
  00001	8b ec		 mov	 ebp, esp
  00003	56		 push	 esi
  00004	8b f1		 mov	 esi, ecx

; 977  : 		if (_Inside(_STD addressof(_Val)))

  00006	8b 46 04	 mov	 eax, DWORD PTR [esi+4]
  00009	57		 push	 edi
  0000a	8b 7d 08	 mov	 edi, DWORD PTR __Val$[ebp]
  0000d	3b f8		 cmp	 edi, eax
  0000f	73 2d		 jae	 SHORT $LN4@push_back@3
  00011	8b 0e		 mov	 ecx, DWORD PTR [esi]
  00013	3b cf		 cmp	 ecx, edi
  00015	77 27		 ja	 SHORT $LN4@push_back@3

; 978  : 			{	// push back an element
; 979  : 			size_type _Idx = _STD addressof(_Val) - this->_Myfirst;

  00017	2b f9		 sub	 edi, ecx

; 980  : 			if (this->_Mylast == this->_Myend)

  00019	3b 46 08	 cmp	 eax, DWORD PTR [esi+8]
  0001c	75 09		 jne	 SHORT $LN3@push_back@3

; 981  : 				_Reserve(1);

  0001e	6a 01		 push	 1
  00020	8b ce		 mov	 ecx, esi
  00022	e8 00 00 00 00	 call	 ?_Reserve@?$vector@UFishingTypeInfo@@V?$allocator@UFishingTypeInfo@@@std@@@std@@IAEXI@Z ; std::vector<FishingTypeInfo,std::allocator<FishingTypeInfo> >::_Reserve
$LN3@push_back@3:

; 982  : 			_Orphan_range(this->_Mylast, this->_Mylast);
; 983  : 			_Cons_val(this->_Alval,
; 984  : 				this->_Mylast,
; 985  : 				this->_Myfirst[_Idx]);

  00027	83 e7 c0	 and	 edi, -64		; ffffffc0H
  0002a	03 3e		 add	 edi, DWORD PTR [esi]
  0002c	8d 46 0c	 lea	 eax, DWORD PTR [esi+12]
  0002f	57		 push	 edi
  00030	ff 76 04	 push	 DWORD PTR [esi+4]
  00033	50		 push	 eax
  00034	e8 00 00 00 00	 call	 ??$_Cons_val@V?$allocator@UFishingTypeInfo@@@std@@UFishingTypeInfo@@AAU3@@std@@YAXAAV?$allocator@UFishingTypeInfo@@@0@PAUFishingTypeInfo@@AAU2@@Z ; std::_Cons_val<std::allocator<FishingTypeInfo>,FishingTypeInfo,FishingTypeInfo &>
  00039	83 c4 0c	 add	 esp, 12			; 0000000cH

; 986  : 			++this->_Mylast;
; 987  : 			}
; 988  : 		else

  0003c	eb 19		 jmp	 SHORT $LN26@push_back@3
$LN4@push_back@3:

; 989  : 			{	// push back a non-element
; 990  : 			if (this->_Mylast == this->_Myend)

  0003e	3b 46 08	 cmp	 eax, DWORD PTR [esi+8]
  00041	75 09		 jne	 SHORT $LN1@push_back@3

; 991  : 				_Reserve(1);

  00043	6a 01		 push	 1
  00045	8b ce		 mov	 ecx, esi
  00047	e8 00 00 00 00	 call	 ?_Reserve@?$vector@UFishingTypeInfo@@V?$allocator@UFishingTypeInfo@@@std@@@std@@IAEXI@Z ; std::vector<FishingTypeInfo,std::allocator<FishingTypeInfo> >::_Reserve
$LN1@push_back@3:

; 992  : 			_Orphan_range(this->_Mylast, this->_Mylast);
; 993  : 			_Cons_val(this->_Alval,
; 994  : 				this->_Mylast,
; 995  : 				_Val);

  0004c	57		 push	 edi
  0004d	ff 76 04	 push	 DWORD PTR [esi+4]
  00050	e8 00 00 00 00	 call	 ??$_Construct@UFishingTypeInfo@@ABU1@@std@@YAXPAUFishingTypeInfo@@ABU1@@Z ; std::_Construct<FishingTypeInfo,FishingTypeInfo const &>
  00055	59		 pop	 ecx
  00056	59		 pop	 ecx
$LN26@push_back@3:

; 996  : 			++this->_Mylast;

  00057	83 46 04 40	 add	 DWORD PTR [esi+4], 64	; 00000040H
  0005b	5f		 pop	 edi
  0005c	5e		 pop	 esi

; 997  : 			}
; 998  : 		}

  0005d	5d		 pop	 ebp
  0005e	c2 04 00	 ret	 4
?push_back@?$vector@UFishingTypeInfo@@V?$allocator@UFishingTypeInfo@@@std@@@std@@QAEXABUFishingTypeInfo@@@Z ENDP ; std::vector<FishingTypeInfo,std::allocator<FishingTypeInfo> >::push_back
_TEXT	ENDS
PUBLIC	??_7ioFishingManager@@6B@			; ioFishingManager::`vftable'
PUBLIC	??0ioFishingManager@@QAE@XZ			; ioFishingManager::ioFishingManager
PUBLIC	??_R4ioFishingManager@@6B@			; ioFishingManager::`RTTI Complete Object Locator'
PUBLIC	??_R0?AVioFishingManager@@@8			; ioFishingManager `RTTI Type Descriptor'
PUBLIC	??_R3ioFishingManager@@8			; ioFishingManager::`RTTI Class Hierarchy Descriptor'
PUBLIC	??_R2ioFishingManager@@8			; ioFishingManager::`RTTI Base Class Array'
PUBLIC	??_R1A@?0A@EA@ioFishingManager@@8		; ioFishingManager::`RTTI Base Class Descriptor at (0,-1,0,64)'
PUBLIC	??_R13?0A@EA@?$Singleton@VioFishingManager@@@@8	; Singleton<ioFishingManager>::`RTTI Base Class Descriptor at (4,-1,0,64)'
PUBLIC	??_R0?AV?$Singleton@VioFishingManager@@@@@8	; Singleton<ioFishingManager> `RTTI Type Descriptor'
PUBLIC	??_R3?$Singleton@VioFishingManager@@@@8		; Singleton<ioFishingManager>::`RTTI Class Hierarchy Descriptor'
PUBLIC	??_R2?$Singleton@VioFishingManager@@@@8		; Singleton<ioFishingManager>::`RTTI Base Class Array'
PUBLIC	??_R1A@?0A@EA@?$Singleton@VioFishingManager@@@@8 ; Singleton<ioFishingManager>::`RTTI Base Class Descriptor at (0,-1,0,64)'
EXTRN	??_EioFishingManager@@UAEPAXI@Z:PROC		; ioFishingManager::`vector deleting destructor'
;	COMDAT ??_R1A@?0A@EA@?$Singleton@VioFishingManager@@@@8
; File c:\program files (x86)\microsoft visual studio 10.0\vc\include\xmemory
rdata$r	SEGMENT
??_R1A@?0A@EA@?$Singleton@VioFishingManager@@@@8 DD FLAT:??_R0?AV?$Singleton@VioFishingManager@@@@@8 ; Singleton<ioFishingManager>::`RTTI Base Class Descriptor at (0,-1,0,64)'
	DD	00H
	DD	00H
	DD	0ffffffffH
	DD	00H
	DD	040H
	DD	FLAT:??_R3?$Singleton@VioFishingManager@@@@8
rdata$r	ENDS
;	COMDAT ??_R2?$Singleton@VioFishingManager@@@@8
rdata$r	SEGMENT
??_R2?$Singleton@VioFishingManager@@@@8 DD FLAT:??_R1A@?0A@EA@?$Singleton@VioFishingManager@@@@8 ; Singleton<ioFishingManager>::`RTTI Base Class Array'
rdata$r	ENDS
;	COMDAT ??_R3?$Singleton@VioFishingManager@@@@8
rdata$r	SEGMENT
??_R3?$Singleton@VioFishingManager@@@@8 DD 00H		; Singleton<ioFishingManager>::`RTTI Class Hierarchy Descriptor'
	DD	00H
	DD	01H
	DD	FLAT:??_R2?$Singleton@VioFishingManager@@@@8
rdata$r	ENDS
;	COMDAT ??_R0?AV?$Singleton@VioFishingManager@@@@@8
_DATA	SEGMENT
??_R0?AV?$Singleton@VioFishingManager@@@@@8 DD FLAT:??_7type_info@@6B@ ; Singleton<ioFishingManager> `RTTI Type Descriptor'
	DD	00H
	DB	'.?AV?$Singleton@VioFishingManager@@@@', 00H
_DATA	ENDS
;	COMDAT ??_R13?0A@EA@?$Singleton@VioFishingManager@@@@8
rdata$r	SEGMENT
??_R13?0A@EA@?$Singleton@VioFishingManager@@@@8 DD FLAT:??_R0?AV?$Singleton@VioFishingManager@@@@@8 ; Singleton<ioFishingManager>::`RTTI Base Class Descriptor at (4,-1,0,64)'
	DD	00H
	DD	04H
	DD	0ffffffffH
	DD	00H
	DD	040H
	DD	FLAT:??_R3?$Singleton@VioFishingManager@@@@8
rdata$r	ENDS
;	COMDAT ??_R1A@?0A@EA@ioFishingManager@@8
rdata$r	SEGMENT
??_R1A@?0A@EA@ioFishingManager@@8 DD FLAT:??_R0?AVioFishingManager@@@8 ; ioFishingManager::`RTTI Base Class Descriptor at (0,-1,0,64)'
	DD	01H
	DD	00H
	DD	0ffffffffH
	DD	00H
	DD	040H
	DD	FLAT:??_R3ioFishingManager@@8
rdata$r	ENDS
;	COMDAT ??_R2ioFishingManager@@8
rdata$r	SEGMENT
??_R2ioFishingManager@@8 DD FLAT:??_R1A@?0A@EA@ioFishingManager@@8 ; ioFishingManager::`RTTI Base Class Array'
	DD	FLAT:??_R13?0A@EA@?$Singleton@VioFishingManager@@@@8
rdata$r	ENDS
;	COMDAT ??_R3ioFishingManager@@8
rdata$r	SEGMENT
??_R3ioFishingManager@@8 DD 00H				; ioFishingManager::`RTTI Class Hierarchy Descriptor'
	DD	00H
	DD	02H
	DD	FLAT:??_R2ioFishingManager@@8
rdata$r	ENDS
;	COMDAT ??_R0?AVioFishingManager@@@8
_DATA	SEGMENT
??_R0?AVioFishingManager@@@8 DD FLAT:??_7type_info@@6B@	; ioFishingManager `RTTI Type Descriptor'
	DD	00H
	DB	'.?AVioFishingManager@@', 00H
_DATA	ENDS
;	COMDAT ??_R4ioFishingManager@@6B@
rdata$r	SEGMENT
??_R4ioFishingManager@@6B@ DD 00H			; ioFishingManager::`RTTI Complete Object Locator'
	DD	00H
	DD	00H
	DD	FLAT:??_R0?AVioFishingManager@@@8
	DD	FLAT:??_R3ioFishingManager@@8
rdata$r	ENDS
;	COMDAT ??_7ioFishingManager@@6B@
CONST	SEGMENT
??_7ioFishingManager@@6B@ DD FLAT:??_R4ioFishingManager@@6B@ ; ioFishingManager::`vftable'
	DD	FLAT:??_EioFishingManager@@UAEPAXI@Z
CONST	ENDS
;	COMDAT xdata$x
xdata$x	SEGMENT
__unwindtable$??0ioFishingManager@@QAE@XZ DD 0ffffffffH
	DD	FLAT:__unwindfunclet$??0ioFishingManager@@QAE@XZ$0
	DD	00H
	DD	FLAT:__unwindfunclet$??0ioFishingManager@@QAE@XZ$1
	DD	01H
	DD	FLAT:__unwindfunclet$??0ioFishingManager@@QAE@XZ$2
	DD	02H
	DD	FLAT:__unwindfunclet$??0ioFishingManager@@QAE@XZ$3
__ehfuncinfo$??0ioFishingManager@@QAE@XZ DD 019930522H
	DD	04H
	DD	FLAT:__unwindtable$??0ioFishingManager@@QAE@XZ
	DD	2 DUP(00H)
	DD	2 DUP(00H)
	DD	00H
	DD	01H
; Function compile flags: /Ogsp
; File d:\lost saga for developer\youtube\tutorial\source\src\lsclient\iofishingmanager.cpp
xdata$x	ENDS
;	COMDAT ??0ioFishingManager@@QAE@XZ
_TEXT	SEGMENT
_this$ = -16						; size = 4
__$EHRec$ = -12						; size = 12
??0ioFishingManager@@QAE@XZ PROC			; ioFishingManager::ioFishingManager, COMDAT
; _this$ = ecx

; 13   : {

  00000	6a 04		 push	 4
  00002	b8 00 00 00 00	 mov	 eax, __ehhandler$??0ioFishingManager@@QAE@XZ
  00007	e8 00 00 00 00	 call	 __EH_prolog3
  0000c	8b f1		 mov	 esi, ecx
  0000e	89 75 f0	 mov	 DWORD PTR _this$[ebp], esi
  00011	8b c6		 mov	 eax, esi
  00013	a3 00 00 00 00	 mov	 DWORD PTR ?ms_Singleton@?$Singleton@VioFishingManager@@@@1PAVioFishingManager@@A, eax ; Singleton<ioFishingManager>::ms_Singleton
  00018	33 c0		 xor	 eax, eax
  0001a	c7 06 00 00 00
	00		 mov	 DWORD PTR [esi], OFFSET ??_7ioFishingManager@@6B@
  00020	89 45 fc	 mov	 DWORD PTR __$EHRec$[ebp+8], eax
  00023	89 46 04	 mov	 DWORD PTR [esi+4], eax
  00026	89 46 08	 mov	 DWORD PTR [esi+8], eax
  00029	89 46 0c	 mov	 DWORD PTR [esi+12], eax
  0002c	89 46 14	 mov	 DWORD PTR [esi+20], eax
  0002f	89 46 18	 mov	 DWORD PTR [esi+24], eax
  00032	89 46 1c	 mov	 DWORD PTR [esi+28], eax
  00035	89 46 24	 mov	 DWORD PTR [esi+36], eax
  00038	89 46 28	 mov	 DWORD PTR [esi+40], eax
  0003b	89 46 2c	 mov	 DWORD PTR [esi+44], eax
  0003e	c6 45 fc 03	 mov	 BYTE PTR __$EHRec$[ebp+8], 3

; 14   : 	ClearAllInfo();

  00042	e8 00 00 00 00	 call	 ?ClearAllInfo@ioFishingManager@@IAEXXZ ; ioFishingManager::ClearAllInfo

; 15   : }

  00047	8b c6		 mov	 eax, esi
  00049	e8 00 00 00 00	 call	 __EH_epilog3
  0004e	c3		 ret	 0
_TEXT	ENDS
;	COMDAT text$x
text$x	SEGMENT
__unwindfunclet$??0ioFishingManager@@QAE@XZ$0:
  00000	8b 4d f0	 mov	 ecx, DWORD PTR _this$[ebp]
  00003	83 c1 04	 add	 ecx, 4
  00006	e9 00 00 00 00	 jmp	 ??1?$Singleton@VioFishingManager@@@@QAE@XZ ; Singleton<ioFishingManager>::~Singleton<ioFishingManager>
__unwindfunclet$??0ioFishingManager@@QAE@XZ$1:
  0000b	8b 4d f0	 mov	 ecx, DWORD PTR _this$[ebp]
  0000e	83 c1 04	 add	 ecx, 4
  00011	e9 00 00 00 00	 jmp	 ??1?$vector@UFishingItem@@V?$allocator@UFishingItem@@@std@@@std@@QAE@XZ ; std::vector<FishingItem,std::allocator<FishingItem> >::~vector<FishingItem,std::allocator<FishingItem> >
__unwindfunclet$??0ioFishingManager@@QAE@XZ$2:
  00016	8b 4d f0	 mov	 ecx, DWORD PTR _this$[ebp]
  00019	83 c1 14	 add	 ecx, 20			; 00000014H
  0001c	e9 00 00 00 00	 jmp	 ??1?$vector@UFishingItemGrade@@V?$allocator@UFishingItemGrade@@@std@@@std@@QAE@XZ ; std::vector<FishingItemGrade,std::allocator<FishingItemGrade> >::~vector<FishingItemGrade,std::allocator<FishingItemGrade> >
__unwindfunclet$??0ioFishingManager@@QAE@XZ$3:
  00021	8b 4d f0	 mov	 ecx, DWORD PTR _this$[ebp]
  00024	83 c1 24	 add	 ecx, 36			; 00000024H
  00027	e9 00 00 00 00	 jmp	 ??1?$vector@UFishingTypeInfo@@V?$allocator@UFishingTypeInfo@@@std@@@std@@QAE@XZ ; std::vector<FishingTypeInfo,std::allocator<FishingTypeInfo> >::~vector<FishingTypeInfo,std::allocator<FishingTypeInfo> >
__ehhandler$??0ioFishingManager@@QAE@XZ:
  0002c	8b 54 24 08	 mov	 edx, DWORD PTR [esp+8]
  00030	8d 42 0c	 lea	 eax, DWORD PTR [edx+12]
  00033	8b 4a ec	 mov	 ecx, DWORD PTR [edx-20]
  00036	33 c8		 xor	 ecx, eax
  00038	e8 00 00 00 00	 call	 @__security_check_cookie@4
  0003d	b8 00 00 00 00	 mov	 eax, OFFSET __ehfuncinfo$??0ioFishingManager@@QAE@XZ
  00042	e9 00 00 00 00	 jmp	 ___CxxFrameHandler3
text$x	ENDS
??0ioFishingManager@@QAE@XZ ENDP			; ioFishingManager::ioFishingManager
PUBLIC	??1ioFishingManager@@UAE@XZ			; ioFishingManager::~ioFishingManager
;	COMDAT xdata$x
; File d:\lost saga for developer\youtube\tutorial\source\src\io3dengine\iosingleton.h
xdata$x	SEGMENT
__unwindtable$??1ioFishingManager@@UAE@XZ DD 0ffffffffH
	DD	FLAT:__unwindfunclet$??1ioFishingManager@@UAE@XZ$0
	DD	00H
	DD	FLAT:__unwindfunclet$??1ioFishingManager@@UAE@XZ$1
	DD	01H
	DD	FLAT:__unwindfunclet$??1ioFishingManager@@UAE@XZ$2
	DD	02H
	DD	FLAT:__unwindfunclet$??1ioFishingManager@@UAE@XZ$3
__ehfuncinfo$??1ioFishingManager@@UAE@XZ DD 019930522H
	DD	04H
	DD	FLAT:__unwindtable$??1ioFishingManager@@UAE@XZ
	DD	2 DUP(00H)
	DD	2 DUP(00H)
	DD	00H
	DD	01H
; Function compile flags: /Ogsp
; File d:\lost saga for developer\youtube\tutorial\source\src\lsclient\iofishingmanager.cpp
xdata$x	ENDS
;	COMDAT ??1ioFishingManager@@UAE@XZ
_TEXT	SEGMENT
_this$ = -16						; size = 4
__$EHRec$ = -12						; size = 12
??1ioFishingManager@@UAE@XZ PROC			; ioFishingManager::~ioFishingManager, COMDAT
; _this$ = ecx

; 18   : {

  00000	6a 04		 push	 4
  00002	b8 00 00 00 00	 mov	 eax, __ehhandler$??1ioFishingManager@@UAE@XZ
  00007	e8 00 00 00 00	 call	 __EH_prolog3
  0000c	8b f1		 mov	 esi, ecx
  0000e	89 75 f0	 mov	 DWORD PTR _this$[ebp], esi
  00011	c7 06 00 00 00
	00		 mov	 DWORD PTR [esi], OFFSET ??_7ioFishingManager@@6B@
  00017	c7 45 fc 03 00
	00 00		 mov	 DWORD PTR __$EHRec$[ebp+8], 3

; 19   : 	ClearAllInfo();

  0001e	e8 00 00 00 00	 call	 ?ClearAllInfo@ioFishingManager@@IAEXXZ ; ioFishingManager::ClearAllInfo

; 20   : }

  00023	8d 4e 24	 lea	 ecx, DWORD PTR [esi+36]
  00026	c6 45 fc 02	 mov	 BYTE PTR __$EHRec$[ebp+8], 2
  0002a	e8 00 00 00 00	 call	 ?_Tidy@?$vector@UFishingTypeInfo@@V?$allocator@UFishingTypeInfo@@@std@@@std@@IAEXXZ ; std::vector<FishingTypeInfo,std::allocator<FishingTypeInfo> >::_Tidy
  0002f	8d 4e 14	 lea	 ecx, DWORD PTR [esi+20]
  00032	c6 45 fc 01	 mov	 BYTE PTR __$EHRec$[ebp+8], 1
  00036	e8 00 00 00 00	 call	 ?_Tidy@?$vector@UFishingItemGrade@@V?$allocator@UFishingItemGrade@@@std@@@std@@IAEXXZ ; std::vector<FishingItemGrade,std::allocator<FishingItemGrade> >::_Tidy
  0003b	8d 4e 04	 lea	 ecx, DWORD PTR [esi+4]
  0003e	c6 45 fc 00	 mov	 BYTE PTR __$EHRec$[ebp+8], 0
  00042	e8 00 00 00 00	 call	 ?_Tidy@?$vector@UFishingItem@@V?$allocator@UFishingItem@@@std@@@std@@IAEXXZ ; std::vector<FishingItem,std::allocator<FishingItem> >::_Tidy
  00047	83 25 00 00 00
	00 00		 and	 DWORD PTR ?ms_Singleton@?$Singleton@VioFishingManager@@@@1PAVioFishingManager@@A, 0 ; Singleton<ioFishingManager>::ms_Singleton
  0004e	e8 00 00 00 00	 call	 __EH_epilog3
  00053	c3		 ret	 0
_TEXT	ENDS
;	COMDAT text$x
text$x	SEGMENT
__unwindfunclet$??1ioFishingManager@@UAE@XZ$0:
  00000	8b 4d f0	 mov	 ecx, DWORD PTR _this$[ebp]
  00003	83 c1 04	 add	 ecx, 4
  00006	e9 00 00 00 00	 jmp	 ??1?$Singleton@VioFishingManager@@@@QAE@XZ ; Singleton<ioFishingManager>::~Singleton<ioFishingManager>
__unwindfunclet$??1ioFishingManager@@UAE@XZ$1:
  0000b	8b 4d f0	 mov	 ecx, DWORD PTR _this$[ebp]
  0000e	83 c1 04	 add	 ecx, 4
  00011	e9 00 00 00 00	 jmp	 ??1?$vector@UFishingItem@@V?$allocator@UFishingItem@@@std@@@std@@QAE@XZ ; std::vector<FishingItem,std::allocator<FishingItem> >::~vector<FishingItem,std::allocator<FishingItem> >
__unwindfunclet$??1ioFishingManager@@UAE@XZ$2:
  00016	8b 4d f0	 mov	 ecx, DWORD PTR _this$[ebp]
  00019	83 c1 14	 add	 ecx, 20			; 00000014H
  0001c	e9 00 00 00 00	 jmp	 ??1?$vector@UFishingItemGrade@@V?$allocator@UFishingItemGrade@@@std@@@std@@QAE@XZ ; std::vector<FishingItemGrade,std::allocator<FishingItemGrade> >::~vector<FishingItemGrade,std::allocator<FishingItemGrade> >
__unwindfunclet$??1ioFishingManager@@UAE@XZ$3:
  00021	8b 4d f0	 mov	 ecx, DWORD PTR _this$[ebp]
  00024	83 c1 24	 add	 ecx, 36			; 00000024H
  00027	e9 00 00 00 00	 jmp	 ??1?$vector@UFishingTypeInfo@@V?$allocator@UFishingTypeInfo@@@std@@@std@@QAE@XZ ; std::vector<FishingTypeInfo,std::allocator<FishingTypeInfo> >::~vector<FishingTypeInfo,std::allocator<FishingTypeInfo> >
__ehhandler$??1ioFishingManager@@UAE@XZ:
  0002c	8b 54 24 08	 mov	 edx, DWORD PTR [esp+8]
  00030	8d 42 0c	 lea	 eax, DWORD PTR [edx+12]
  00033	8b 4a ec	 mov	 ecx, DWORD PTR [edx-20]
  00036	33 c8		 xor	 ecx, eax
  00038	e8 00 00 00 00	 call	 @__security_check_cookie@4
  0003d	b8 00 00 00 00	 mov	 eax, OFFSET __ehfuncinfo$??1ioFishingManager@@UAE@XZ
  00042	e9 00 00 00 00	 jmp	 ___CxxFrameHandler3
text$x	ENDS
??1ioFishingManager@@UAE@XZ ENDP			; ioFishingManager::~ioFishingManager
PUBLIC	??_C@_00CNPNBAHC@?$AA@				; `string'
PUBLIC	_rkLoader$GSCopy$
PUBLIC	?LoadFishItemList@ioFishingManager@@QAEXAAVioINILoader@@@Z ; ioFishingManager::LoadFishItemList
EXTRN	__imp_?LoadStringA@ioINILoader@@QAEXPBD0PADH@Z:PROC
;	COMDAT ??_C@_00CNPNBAHC@?$AA@
; File d:\lost saga for developer\youtube\tutorial\source\src\lsclient\stringprotect.h
CONST	SEGMENT
??_C@_00CNPNBAHC@?$AA@ DB 00H				; `string'
CONST	ENDS
;	COMDAT xdata$x
xdata$x	SEGMENT
__unwindtable$?LoadFishItemList@ioFishingManager@@QAEXAAVioINILoader@@@Z DD 0ffffffffH
	DD	FLAT:__unwindfunclet$?LoadFishItemList@ioFishingManager@@QAEXAAVioINILoader@@@Z$0
__ehfuncinfo$?LoadFishItemList@ioFishingManager@@QAEXAAVioINILoader@@@Z DD 019930522H
	DD	01H
	DD	FLAT:__unwindtable$?LoadFishItemList@ioFishingManager@@QAEXAAVioINILoader@@@Z
	DD	2 DUP(00H)
	DD	2 DUP(00H)
	DD	00H
	DD	01H
; Function compile flags: /Ogsp
; File d:\lost saga for developer\youtube\tutorial\source\src\lsclient\iofishingmanager.cpp
xdata$x	ENDS
;	COMDAT ?LoadFishItemList@ioFishingManager@@QAEXAAVioINILoader@@@Z
_TEXT	SEGMENT
_kItem$506211 = -708					; size = 64
tv4315 = -644						; size = 4
tv1758 = -640						; size = 4
_rkLoader$GSCopy$ = -636				; size = 4
tv4808 = -632						; size = 4
_szBuf$ = -628						; size = 260
_szKey$ = -368						; size = 260
___encStr$506368 = -108					; size = 17
___encStr$506824 = -84					; size = 12
___encStr$506672 = -68					; size = 11
___encStr$506215 = -52					; size = 12
__k$517328 = -36					; size = 13
___encStr$506520 = -36					; size = 12
__$EHRec$ = -12						; size = 12
_rkLoader$ = 8						; size = 4
?LoadFishItemList@ioFishingManager@@QAEXAAVioINILoader@@@Z PROC ; ioFishingManager::LoadFishItemList, COMDAT
; _this$ = ecx

; 36   : {

  00000	68 b8 02 00 00	 push	 696			; 000002b8H
  00005	b8 00 00 00 00	 mov	 eax, __ehhandler$?LoadFishItemList@ioFishingManager@@QAEXAAVioINILoader@@@Z
  0000a	e8 00 00 00 00	 call	 __EH_prolog3_GS
  0000f	8b f9		 mov	 edi, ecx
  00011	8b 4d 08	 mov	 ecx, DWORD PTR _rkLoader$[ebp]

; 37   : 	// ItemList
; 38   : 	int iItemCnt = rkLoader.LoadInt_e( "max_item_cnt", 0 );

  00014	6a 03		 push	 3

; 60   : 
; 61   : 		wsprintf_e( szKey, "item%d_peso", i+1 );

  00016	89 8d 84 fd ff
	ff		 mov	 DWORD PTR _rkLoader$GSCopy$[ebp], ecx
  0001c	c7 45 dc 80 8d
	93 b5		 mov	 DWORD PTR __k$517328[ebp], -1248621184 ; b5938d80H
  00023	c7 45 e0 84 98
	8e 87		 mov	 DWORD PTR __k$517328[ebp+4], -2020697980 ; 878e9884H
  0002a	c7 45 e4 b2 8f
	85 9e		 mov	 DWORD PTR __k$517328[ebp+8], -1635414094 ; 9e858fb2H
  00031	8d 45 dc	 lea	 eax, DWORD PTR __k$517328[ebp]
  00034	c6 45 e8 00	 mov	 BYTE PTR __k$517328[ebp+12], 0
  00038	5a		 pop	 edx
$LL605@LoadFishIt:

; 37   : 	// ItemList
; 38   : 	int iItemCnt = rkLoader.LoadInt_e( "max_item_cnt", 0 );

  00039	81 30 ed ec eb
	ea		 xor	 DWORD PTR [eax], -353637139 ; eaebecedH
  0003f	83 c0 04	 add	 eax, 4
  00042	4a		 dec	 edx
  00043	75 f4		 jne	 SHORT $LL605@LoadFishIt
  00045	52		 push	 edx
  00046	8d 45 dc	 lea	 eax, DWORD PTR __k$517328[ebp]
  00049	50		 push	 eax
  0004a	ff 15 00 00 00
	00		 call	 DWORD PTR __imp_?LoadInt@ioINILoader@@QAEHPBDH@Z

; 39   : 	
; 40   : 	char szKey[MAX_PATH] = "";

  00050	be 03 01 00 00	 mov	 esi, 259		; 00000103H
  00055	56		 push	 esi
  00056	8b d8		 mov	 ebx, eax
  00058	8d 85 91 fe ff
	ff		 lea	 eax, DWORD PTR _szKey$[ebp+1]
  0005e	6a 00		 push	 0
  00060	50		 push	 eax
  00061	c6 85 90 fe ff
	ff 00		 mov	 BYTE PTR _szKey$[ebp], 0
  00068	e8 00 00 00 00	 call	 _memset

; 41   : 	char szBuf[MAX_PATH] = "";

  0006d	56		 push	 esi
  0006e	8d 85 8d fd ff
	ff		 lea	 eax, DWORD PTR _szBuf$[ebp+1]
  00074	6a 00		 push	 0
  00076	50		 push	 eax
  00077	c6 85 8c fd ff
	ff 00		 mov	 BYTE PTR _szBuf$[ebp], 0
  0007e	e8 00 00 00 00	 call	 _memset
  00083	83 c4 18	 add	 esp, 24			; 00000018H

; 42   : 	for( int i=0; i < iItemCnt; ++i )

  00086	85 db		 test	 ebx, ebx
  00088	0f 8e f6 02 00
	00		 jle	 $LN496@LoadFishIt

; 37   : 	// ItemList
; 38   : 	int iItemCnt = rkLoader.LoadInt_e( "max_item_cnt", 0 );

  0008e	8b 35 00 00 00
	00		 mov	 esi, DWORD PTR __imp__wsprintfA
  00094	83 c7 04	 add	 edi, 4
  00097	89 bd 7c fd ff
	ff		 mov	 DWORD PTR tv4315[ebp], edi
  0009d	8b 3d 00 00 00
	00		 mov	 edi, DWORD PTR __imp_?LoadStringA@ioINILoader@@QAEXPBD0PADH@Z
  000a3	89 9d 80 fd ff
	ff		 mov	 DWORD PTR tv1758[ebp], ebx
  000a9	8b 1d 00 00 00
	00		 mov	 ebx, DWORD PTR __imp_??4ioHashString@@QAEAAV0@PBD@Z
  000af	c7 85 88 fd ff
	ff 01 00 00 00	 mov	 DWORD PTR tv4808[ebp], 1
$LL498@LoadFishIt:

; 43   : 	{
; 44   : 		FishingItem kItem;

  000b9	8d 8d 3c fd ff
	ff		 lea	 ecx, DWORD PTR _kItem$506211[ebp]
  000bf	e8 00 00 00 00	 call	 ??0FishingItem@@QAE@XZ	; FishingItem::FishingItem
  000c4	83 65 fc 00	 and	 DWORD PTR __$EHRec$[ebp+8], 0
  000c8	6a 02		 push	 2

; 45   : 
; 46   : 		wsprintf_e( szKey, "item%d_name", i+1 );

  000ca	c7 45 cc 84 98
	8e 87		 mov	 DWORD PTR ___encStr$506215[ebp], -2020697980 ; 878e9884H
  000d1	c7 45 d0 c8 88
	b4 84		 mov	 DWORD PTR ___encStr$506215[ebp+4], -2068543288 ; 84b488c8H
  000d8	8d 45 cc	 lea	 eax, DWORD PTR ___encStr$506215[ebp]
  000db	c7 45 d4 8c 81
	8e 00		 mov	 DWORD PTR ___encStr$506215[ebp+8], 9339276 ; 008e818cH
  000e2	59		 pop	 ecx
$LL613@LoadFishIt:
  000e3	81 30 ed ec eb
	ea		 xor	 DWORD PTR [eax], -353637139 ; eaebecedH
  000e9	83 c0 04	 add	 eax, 4
  000ec	49		 dec	 ecx
  000ed	75 f4		 jne	 SHORT $LL613@LoadFishIt
  000ef	6a 08		 push	 8
  000f1	58		 pop	 eax
$LL610@LoadFishIt:
  000f2	8b c8		 mov	 ecx, eax
  000f4	81 e1 03 00 00
	80		 and	 ecx, -2147483645	; 80000003H
  000fa	79 05		 jns	 SHORT $LN675@LoadFishIt
  000fc	49		 dec	 ecx
  000fd	83 c9 fc	 or	 ecx, -4			; fffffffcH
  00100	41		 inc	 ecx
$LN675@LoadFishIt:
  00101	b2 ed		 mov	 dl, -19			; ffffffedH
  00103	2a d1		 sub	 dl, cl
  00105	30 54 05 cc	 xor	 BYTE PTR ___encStr$506215[ebp+eax], dl
  00109	40		 inc	 eax
  0010a	83 f8 0b	 cmp	 eax, 11			; 0000000bH
  0010d	7c e3		 jl	 SHORT $LL610@LoadFishIt
  0010f	ff b5 88 fd ff
	ff		 push	 DWORD PTR tv4808[ebp]
  00115	8d 45 cc	 lea	 eax, DWORD PTR ___encStr$506215[ebp]
  00118	50		 push	 eax
  00119	8d 85 90 fe ff
	ff		 lea	 eax, DWORD PTR _szKey$[ebp]
  0011f	50		 push	 eax
  00120	ff d6		 call	 esi

; 47   : 		rkLoader.LoadString( szKey, "", szBuf, MAX_PATH );

  00122	8b 8d 84 fd ff
	ff		 mov	 ecx, DWORD PTR _rkLoader$GSCopy$[ebp]
  00128	83 c4 0c	 add	 esp, 12			; 0000000cH
  0012b	68 04 01 00 00	 push	 260			; 00000104H
  00130	8d 85 8c fd ff
	ff		 lea	 eax, DWORD PTR _szBuf$[ebp]
  00136	50		 push	 eax
  00137	68 00 00 00 00	 push	 OFFSET ??_C@_00CNPNBAHC@?$AA@
  0013c	8d 85 90 fe ff
	ff		 lea	 eax, DWORD PTR _szKey$[ebp]
  00142	50		 push	 eax
  00143	ff d7		 call	 edi

; 48   : 		kItem.m_Name = szBuf;

  00145	8d 85 8c fd ff
	ff		 lea	 eax, DWORD PTR _szBuf$[ebp]
  0014b	50		 push	 eax
  0014c	8d 8d 3c fd ff
	ff		 lea	 ecx, DWORD PTR _kItem$506211[ebp]
  00152	ff d3		 call	 ebx
  00154	6a 04		 push	 4

; 49   : 
; 50   : 		wsprintf_e( szKey, "item%d_icon_name", i+1 );

  00156	c7 45 94 84 98
	8e 87		 mov	 DWORD PTR ___encStr$506368[ebp], -2020697980 ; 878e9884H
  0015d	c7 45 98 c8 88
	b4 83		 mov	 DWORD PTR ___encStr$506368[ebp+4], -2085320504 ; 83b488c8H
  00164	c7 45 9c 8e 83
	85 b5		 mov	 DWORD PTR ___encStr$506368[ebp+8], -1249541234 ; b585838eH
  0016b	c7 45 a0 83 8d
	86 8f		 mov	 DWORD PTR ___encStr$506368[ebp+12], -1887007357 ; 8f868d83H
  00172	8d 45 94	 lea	 eax, DWORD PTR ___encStr$506368[ebp]
  00175	c6 45 a4 00	 mov	 BYTE PTR ___encStr$506368[ebp+16], 0
  00179	59		 pop	 ecx
$LL621@LoadFishIt:
  0017a	81 30 ed ec eb
	ea		 xor	 DWORD PTR [eax], -353637139 ; eaebecedH
  00180	83 c0 04	 add	 eax, 4
  00183	49		 dec	 ecx
  00184	75 f4		 jne	 SHORT $LL621@LoadFishIt
  00186	ff b5 88 fd ff
	ff		 push	 DWORD PTR tv4808[ebp]
  0018c	8d 45 94	 lea	 eax, DWORD PTR ___encStr$506368[ebp]
  0018f	50		 push	 eax
  00190	8d 85 90 fe ff
	ff		 lea	 eax, DWORD PTR _szKey$[ebp]
  00196	50		 push	 eax
  00197	ff d6		 call	 esi

; 51   : 		rkLoader.LoadString( szKey, "", szBuf, MAX_PATH );

  00199	8b 8d 84 fd ff
	ff		 mov	 ecx, DWORD PTR _rkLoader$GSCopy$[ebp]
  0019f	83 c4 0c	 add	 esp, 12			; 0000000cH
  001a2	68 04 01 00 00	 push	 260			; 00000104H
  001a7	8d 85 8c fd ff
	ff		 lea	 eax, DWORD PTR _szBuf$[ebp]
  001ad	50		 push	 eax
  001ae	68 00 00 00 00	 push	 OFFSET ??_C@_00CNPNBAHC@?$AA@
  001b3	8d 85 90 fe ff
	ff		 lea	 eax, DWORD PTR _szKey$[ebp]
  001b9	50		 push	 eax
  001ba	ff d7		 call	 edi

; 52   : 		kItem.m_IconName = szBuf;

  001bc	8d 85 8c fd ff
	ff		 lea	 eax, DWORD PTR _szBuf$[ebp]
  001c2	50		 push	 eax
  001c3	8d 8d 4c fd ff
	ff		 lea	 ecx, DWORD PTR _kItem$506211[ebp+16]
  001c9	ff d3		 call	 ebx
  001cb	6a 02		 push	 2

; 53   : 
; 54   : 		wsprintf_e( szKey, "item%d_desc", i+1 );

  001cd	c7 45 dc 84 98
	8e 87		 mov	 DWORD PTR ___encStr$506520[ebp], -2020697980 ; 878e9884H
  001d4	c7 45 e0 c8 88
	b4 8e		 mov	 DWORD PTR ___encStr$506520[ebp+4], -1900771128 ; 8eb488c8H
  001db	8d 45 dc	 lea	 eax, DWORD PTR ___encStr$506520[ebp]
  001de	c7 45 e4 88 9f
	88 00		 mov	 DWORD PTR ___encStr$506520[ebp+8], 8953736 ; 00889f88H
  001e5	59		 pop	 ecx
$LL629@LoadFishIt:
  001e6	81 30 ed ec eb
	ea		 xor	 DWORD PTR [eax], -353637139 ; eaebecedH
  001ec	83 c0 04	 add	 eax, 4
  001ef	49		 dec	 ecx
  001f0	75 f4		 jne	 SHORT $LL629@LoadFishIt
  001f2	6a 08		 push	 8
  001f4	58		 pop	 eax
$LL626@LoadFishIt:
  001f5	8b c8		 mov	 ecx, eax
  001f7	81 e1 03 00 00
	80		 and	 ecx, -2147483645	; 80000003H
  001fd	79 05		 jns	 SHORT $LN676@LoadFishIt
  001ff	49		 dec	 ecx
  00200	83 c9 fc	 or	 ecx, -4			; fffffffcH
  00203	41		 inc	 ecx
$LN676@LoadFishIt:
  00204	b2 ed		 mov	 dl, -19			; ffffffedH
  00206	2a d1		 sub	 dl, cl
  00208	30 54 05 dc	 xor	 BYTE PTR ___encStr$506520[ebp+eax], dl
  0020c	40		 inc	 eax
  0020d	83 f8 0b	 cmp	 eax, 11			; 0000000bH
  00210	7c e3		 jl	 SHORT $LL626@LoadFishIt
  00212	ff b5 88 fd ff
	ff		 push	 DWORD PTR tv4808[ebp]
  00218	8d 45 dc	 lea	 eax, DWORD PTR ___encStr$506520[ebp]
  0021b	50		 push	 eax
  0021c	8d 85 90 fe ff
	ff		 lea	 eax, DWORD PTR _szKey$[ebp]
  00222	50		 push	 eax
  00223	ff d6		 call	 esi

; 55   : 		rkLoader.LoadString( szKey, "", szBuf, MAX_PATH );

  00225	8b 8d 84 fd ff
	ff		 mov	 ecx, DWORD PTR _rkLoader$GSCopy$[ebp]
  0022b	83 c4 0c	 add	 esp, 12			; 0000000cH
  0022e	68 04 01 00 00	 push	 260			; 00000104H
  00233	8d 85 8c fd ff
	ff		 lea	 eax, DWORD PTR _szBuf$[ebp]
  00239	50		 push	 eax
  0023a	68 00 00 00 00	 push	 OFFSET ??_C@_00CNPNBAHC@?$AA@
  0023f	8d 85 90 fe ff
	ff		 lea	 eax, DWORD PTR _szKey$[ebp]
  00245	50		 push	 eax
  00246	ff d7		 call	 edi

; 56   : 		kItem.m_Desc = szBuf;

  00248	8d 85 8c fd ff
	ff		 lea	 eax, DWORD PTR _szBuf$[ebp]
  0024e	50		 push	 eax
  0024f	8d 8d 5c fd ff
	ff		 lea	 ecx, DWORD PTR _kItem$506211[ebp+32]
  00255	ff d3		 call	 ebx
  00257	6a 02		 push	 2

; 57   : 
; 58   : 		wsprintf_e( szKey, "item%d_num", i+1 );

  00259	c7 45 bc 84 98
	8e 87		 mov	 DWORD PTR ___encStr$506672[ebp], -2020697980 ; 878e9884H
  00260	c7 45 c0 c8 88
	b4 84		 mov	 DWORD PTR ___encStr$506672[ebp+4], -2068543288 ; 84b488c8H
  00267	66 c7 45 c4 98
	81		 mov	 WORD PTR ___encStr$506672[ebp+8], 33176 ; 00008198H
  0026d	8d 45 bc	 lea	 eax, DWORD PTR ___encStr$506672[ebp]
  00270	c6 45 c6 00	 mov	 BYTE PTR ___encStr$506672[ebp+10], 0
  00274	59		 pop	 ecx
$LL637@LoadFishIt:
  00275	81 30 ed ec eb
	ea		 xor	 DWORD PTR [eax], -353637139 ; eaebecedH
  0027b	83 c0 04	 add	 eax, 4
  0027e	49		 dec	 ecx
  0027f	75 f4		 jne	 SHORT $LL637@LoadFishIt
  00281	6a 08		 push	 8
  00283	58		 pop	 eax
$LL634@LoadFishIt:
  00284	8b c8		 mov	 ecx, eax
  00286	81 e1 03 00 00
	80		 and	 ecx, -2147483645	; 80000003H
  0028c	79 05		 jns	 SHORT $LN677@LoadFishIt
  0028e	49		 dec	 ecx
  0028f	83 c9 fc	 or	 ecx, -4			; fffffffcH
  00292	41		 inc	 ecx
$LN677@LoadFishIt:
  00293	b2 ed		 mov	 dl, -19			; ffffffedH
  00295	2a d1		 sub	 dl, cl
  00297	30 54 05 bc	 xor	 BYTE PTR ___encStr$506672[ebp+eax], dl
  0029b	40		 inc	 eax
  0029c	83 f8 0a	 cmp	 eax, 10			; 0000000aH
  0029f	7c e3		 jl	 SHORT $LL634@LoadFishIt
  002a1	ff b5 88 fd ff
	ff		 push	 DWORD PTR tv4808[ebp]
  002a7	8d 45 bc	 lea	 eax, DWORD PTR ___encStr$506672[ebp]
  002aa	50		 push	 eax
  002ab	8d 85 90 fe ff
	ff		 lea	 eax, DWORD PTR _szKey$[ebp]
  002b1	50		 push	 eax
  002b2	ff d6		 call	 esi

; 59   : 		kItem.m_iItemNum = rkLoader.LoadInt( szKey, 0 );

  002b4	8b 8d 84 fd ff
	ff		 mov	 ecx, DWORD PTR _rkLoader$GSCopy$[ebp]
  002ba	83 c4 0c	 add	 esp, 12			; 0000000cH
  002bd	6a 00		 push	 0
  002bf	8d 85 90 fe ff
	ff		 lea	 eax, DWORD PTR _szKey$[ebp]
  002c5	50		 push	 eax
  002c6	ff 15 00 00 00
	00		 call	 DWORD PTR __imp_?LoadInt@ioINILoader@@QAEHPBDH@Z
  002cc	6a 02		 push	 2
  002ce	89 85 6c fd ff
	ff		 mov	 DWORD PTR _kItem$506211[ebp+48], eax

; 60   : 
; 61   : 		wsprintf_e( szKey, "item%d_peso", i+1 );

  002d4	c7 45 ac 84 98
	8e 87		 mov	 DWORD PTR ___encStr$506824[ebp], -2020697980 ; 878e9884H
  002db	c7 45 b0 c8 88
	b4 9a		 mov	 DWORD PTR ___encStr$506824[ebp+4], -1699444536 ; 9ab488c8H
  002e2	8d 45 ac	 lea	 eax, DWORD PTR ___encStr$506824[ebp]
  002e5	c7 45 b4 88 9f
	84 00		 mov	 DWORD PTR ___encStr$506824[ebp+8], 8691592 ; 00849f88H
  002ec	59		 pop	 ecx
$LL645@LoadFishIt:
  002ed	81 30 ed ec eb
	ea		 xor	 DWORD PTR [eax], -353637139 ; eaebecedH
  002f3	83 c0 04	 add	 eax, 4
  002f6	49		 dec	 ecx
  002f7	75 f4		 jne	 SHORT $LL645@LoadFishIt
  002f9	6a 08		 push	 8
  002fb	58		 pop	 eax
$LL642@LoadFishIt:
  002fc	8b c8		 mov	 ecx, eax
  002fe	81 e1 03 00 00
	80		 and	 ecx, -2147483645	; 80000003H
  00304	79 05		 jns	 SHORT $LN678@LoadFishIt
  00306	49		 dec	 ecx
  00307	83 c9 fc	 or	 ecx, -4			; fffffffcH
  0030a	41		 inc	 ecx
$LN678@LoadFishIt:
  0030b	b2 ed		 mov	 dl, -19			; ffffffedH
  0030d	2a d1		 sub	 dl, cl
  0030f	30 54 05 ac	 xor	 BYTE PTR ___encStr$506824[ebp+eax], dl
  00313	40		 inc	 eax
  00314	83 f8 0b	 cmp	 eax, 11			; 0000000bH
  00317	7c e3		 jl	 SHORT $LL642@LoadFishIt
  00319	ff b5 88 fd ff
	ff		 push	 DWORD PTR tv4808[ebp]
  0031f	8d 45 ac	 lea	 eax, DWORD PTR ___encStr$506824[ebp]
  00322	50		 push	 eax
  00323	8d 85 90 fe ff
	ff		 lea	 eax, DWORD PTR _szKey$[ebp]
  00329	50		 push	 eax
  0032a	ff d6		 call	 esi

; 62   : 		kItem.m_iPeso = (__int64)rkLoader.LoadInt( szKey, 0 );

  0032c	8b 8d 84 fd ff
	ff		 mov	 ecx, DWORD PTR _rkLoader$GSCopy$[ebp]
  00332	83 c4 0c	 add	 esp, 12			; 0000000cH
  00335	6a 00		 push	 0
  00337	8d 85 90 fe ff
	ff		 lea	 eax, DWORD PTR _szKey$[ebp]
  0033d	50		 push	 eax
  0033e	ff 15 00 00 00
	00		 call	 DWORD PTR __imp_?LoadInt@ioINILoader@@QAEHPBDH@Z

; 63   : 
; 64   : 		m_vFishingItemList.push_back( kItem );

  00344	8b 8d 7c fd ff
	ff		 mov	 ecx, DWORD PTR tv4315[ebp]
  0034a	99		 cdq
  0034b	89 85 74 fd ff
	ff		 mov	 DWORD PTR _kItem$506211[ebp+56], eax
  00351	8d 85 3c fd ff
	ff		 lea	 eax, DWORD PTR _kItem$506211[ebp]
  00357	50		 push	 eax
  00358	89 95 78 fd ff
	ff		 mov	 DWORD PTR _kItem$506211[ebp+60], edx
  0035e	e8 00 00 00 00	 call	 ?push_back@?$vector@UFishingItem@@V?$allocator@UFishingItem@@@std@@@std@@QAEXABUFishingItem@@@Z ; std::vector<FishingItem,std::allocator<FishingItem> >::push_back

; 65   : 	}

  00363	83 4d fc ff	 or	 DWORD PTR __$EHRec$[ebp+8], -1
  00367	8d 8d 3c fd ff
	ff		 lea	 ecx, DWORD PTR _kItem$506211[ebp]
  0036d	e8 00 00 00 00	 call	 ??1FishingItem@@QAE@XZ
  00372	ff 85 88 fd ff
	ff		 inc	 DWORD PTR tv4808[ebp]
  00378	ff 8d 80 fd ff
	ff		 dec	 DWORD PTR tv1758[ebp]
  0037e	0f 85 35 fd ff
	ff		 jne	 $LL498@LoadFishIt
$LN496@LoadFishIt:

; 66   : }

  00384	e8 00 00 00 00	 call	 __EH_epilog3_GS
  00389	c2 04 00	 ret	 4
_TEXT	ENDS
;	COMDAT text$x
text$x	SEGMENT
__unwindfunclet$?LoadFishItemList@ioFishingManager@@QAEXAAVioINILoader@@@Z$0:
  00000	8d 8d 3c fd ff
	ff		 lea	 ecx, DWORD PTR _kItem$506211[ebp]
  00006	e9 00 00 00 00	 jmp	 ??1FishingItem@@QAE@XZ
__ehhandler$?LoadFishItemList@ioFishingManager@@QAEXAAVioINILoader@@@Z:
  0000b	8b 54 24 08	 mov	 edx, DWORD PTR [esp+8]
  0000f	8d 42 0c	 lea	 eax, DWORD PTR [edx+12]
  00012	8b 8a 38 fd ff
	ff		 mov	 ecx, DWORD PTR [edx-712]
  00018	33 c8		 xor	 ecx, eax
  0001a	e8 00 00 00 00	 call	 @__security_check_cookie@4
  0001f	8b 4a fc	 mov	 ecx, DWORD PTR [edx-4]
  00022	33 c8		 xor	 ecx, eax
  00024	e8 00 00 00 00	 call	 @__security_check_cookie@4
  00029	b8 00 00 00 00	 mov	 eax, OFFSET __ehfuncinfo$?LoadFishItemList@ioFishingManager@@QAEXAAVioINILoader@@@Z
  0002e	e9 00 00 00 00	 jmp	 ___CxxFrameHandler3
text$x	ENDS
?LoadFishItemList@ioFishingManager@@QAEXAAVioINILoader@@@Z ENDP ; ioFishingManager::LoadFishItemList
PUBLIC	_rkLoader$GSCopy$
PUBLIC	?LoadFishGradeList@ioFishingManager@@QAEXAAVioINILoader@@@Z ; ioFishingManager::LoadFishGradeList
EXTRN	__imp_?LoadFloat@ioINILoader@@QAEMPBDM@Z:PROC
EXTRN	__imp__sprintf:PROC
;	COMDAT xdata$x
; File d:\lost saga for developer\youtube\tutorial\source\src\lsclient\stdafx.h
xdata$x	SEGMENT
__unwindtable$?LoadFishGradeList@ioFishingManager@@QAEXAAVioINILoader@@@Z DD 0ffffffffH
	DD	FLAT:__unwindfunclet$?LoadFishGradeList@ioFishingManager@@QAEXAAVioINILoader@@@Z$0
__ehfuncinfo$?LoadFishGradeList@ioFishingManager@@QAEXAAVioINILoader@@@Z DD 019930522H
	DD	01H
	DD	FLAT:__unwindtable$?LoadFishGradeList@ioFishingManager@@QAEXAAVioINILoader@@@Z
	DD	2 DUP(00H)
	DD	2 DUP(00H)
	DD	00H
	DD	01H
; Function compile flags: /Ogsp
; File d:\lost saga for developer\youtube\tutorial\source\src\lsclient\iofishingmanager.cpp
xdata$x	ENDS
;	COMDAT ?LoadFishGradeList@ioFishingManager@@QAEXAAVioINILoader@@@Z
_TEXT	SEGMENT
_kGrade$506992 = -652					; size = 40
tv4019 = -612						; size = 4
tv3621 = -608						; size = 4
tv1590 = -604						; size = 4
_rkLoader$GSCopy$ = -600				; size = 4
tv4041 = -596						; size = 4
_szBuf$ = -592						; size = 260
_szKey$ = -332						; size = 260
___encStr$507452 = -72					; size = 14
___encStr$507300 = -52					; size = 12
__k$517600 = -36					; size = 14
___encStr$507148 = -36					; size = 13
___encStr$506996 = -36					; size = 13
__$EHRec$ = -12						; size = 12
_rkLoader$ = 8						; size = 4
?LoadFishGradeList@ioFishingManager@@QAEXAAVioINILoader@@@Z PROC ; ioFishingManager::LoadFishGradeList, COMDAT
; _this$ = ecx

; 69   : {

  00000	68 80 02 00 00	 push	 640			; 00000280H
  00005	b8 00 00 00 00	 mov	 eax, __ehhandler$?LoadFishGradeList@ioFishingManager@@QAEXAAVioINILoader@@@Z
  0000a	e8 00 00 00 00	 call	 __EH_prolog3_GS
  0000f	8b d9		 mov	 ebx, ecx
  00011	8b 4d 08	 mov	 ecx, DWORD PTR _rkLoader$[ebp]

; 70   : 	// ItemGradeList
; 71   : 	int iGradeCnt = rkLoader.LoadInt_e( "max_grade_cnt", 0 );

  00014	6a 03		 push	 3

; 89   : 
; 90   : 		wsprintf_e( szKey, "grade%d_value", j+1 );

  00016	89 8d a8 fd ff
	ff		 mov	 DWORD PTR _rkLoader$GSCopy$[ebp], ecx
  0001c	c7 45 dc 80 8d
	93 b5		 mov	 DWORD PTR __k$517600[ebp], -1248621184 ; b5938d80H
  00023	c7 45 e0 8a 9e
	8a 8e		 mov	 DWORD PTR __k$517600[ebp+4], -1903518070 ; 8e8a9e8aH
  0002a	c7 45 e4 88 b3
	88 84		 mov	 DWORD PTR __k$517600[ebp+8], -2071415928 ; 8488b388H
  00031	8d 45 dc	 lea	 eax, DWORD PTR __k$517600[ebp]
  00034	66 c7 45 e8 99
	00		 mov	 WORD PTR __k$517600[ebp+12], 153 ; 00000099H
  0003a	5a		 pop	 edx
$LL506@LoadFishGr:

; 70   : 	// ItemGradeList
; 71   : 	int iGradeCnt = rkLoader.LoadInt_e( "max_grade_cnt", 0 );

  0003b	81 30 ed ec eb
	ea		 xor	 DWORD PTR [eax], -353637139 ; eaebecedH
  00041	83 c0 04	 add	 eax, 4
  00044	4a		 dec	 edx
  00045	75 f4		 jne	 SHORT $LL506@LoadFishGr
  00047	80 75 e8 ed	 xor	 BYTE PTR __k$517600[ebp+12], -19 ; ffffffedH
  0004b	52		 push	 edx
  0004c	8d 45 dc	 lea	 eax, DWORD PTR __k$517600[ebp]
  0004f	50		 push	 eax
  00050	ff 15 00 00 00
	00		 call	 DWORD PTR __imp_?LoadInt@ioINILoader@@QAEHPBDH@Z

; 72   : 
; 73   : 	char szKey[MAX_PATH] = "";

  00056	be 03 01 00 00	 mov	 esi, 259		; 00000103H
  0005b	56		 push	 esi
  0005c	8b f8		 mov	 edi, eax
  0005e	8d 85 b5 fe ff
	ff		 lea	 eax, DWORD PTR _szKey$[ebp+1]
  00064	6a 00		 push	 0
  00066	50		 push	 eax
  00067	c6 85 b4 fe ff
	ff 00		 mov	 BYTE PTR _szKey$[ebp], 0
  0006e	e8 00 00 00 00	 call	 _memset

; 74   : 	char szBuf[MAX_PATH] = "";

  00073	56		 push	 esi
  00074	8d 85 b1 fd ff
	ff		 lea	 eax, DWORD PTR _szBuf$[ebp+1]
  0007a	6a 00		 push	 0
  0007c	50		 push	 eax
  0007d	c6 85 b0 fd ff
	ff 00		 mov	 BYTE PTR _szBuf$[ebp], 0
  00084	e8 00 00 00 00	 call	 _memset
  00089	83 c4 18	 add	 esp, 24			; 00000018H

; 75   : 	for( int j=0; j < iGradeCnt; ++j )

  0008c	85 ff		 test	 edi, edi
  0008e	0f 8e 48 02 00
	00		 jle	 $LN397@LoadFishGr

; 70   : 	// ItemGradeList
; 71   : 	int iGradeCnt = rkLoader.LoadInt_e( "max_grade_cnt", 0 );

  00094	8b 35 00 00 00
	00		 mov	 esi, DWORD PTR __imp__wsprintfA
  0009a	83 c3 14	 add	 ebx, 20			; 00000014H
  0009d	89 9d a0 fd ff
	ff		 mov	 DWORD PTR tv3621[ebp], ebx
  000a3	8b 1d 00 00 00
	00		 mov	 ebx, DWORD PTR __imp_??4ioHashString@@QAEAAV0@PBD@Z
  000a9	89 bd a4 fd ff
	ff		 mov	 DWORD PTR tv1590[ebp], edi
  000af	8b 3d 00 00 00
	00		 mov	 edi, DWORD PTR __imp_?LoadStringA@ioINILoader@@QAEXPBD0PADH@Z
  000b5	c7 85 ac fd ff
	ff 01 00 00 00	 mov	 DWORD PTR tv4041[ebp], 1
$LL399@LoadFishGr:

; 76   : 	{
; 77   : 		FishingItemGrade kGrade;

  000bf	8d 8d 74 fd ff
	ff		 lea	 ecx, DWORD PTR _kGrade$506992[ebp]
  000c5	e8 00 00 00 00	 call	 ??0FishingItemGrade@@QAE@XZ ; FishingItemGrade::FishingItemGrade
  000ca	83 65 fc 00	 and	 DWORD PTR __$EHRec$[ebp+8], 0
  000ce	6a 03		 push	 3

; 78   : 
; 79   : 		wsprintf_e( szKey, "grade%d_name", j+1 );

  000d0	c7 45 dc 8a 9e
	8a 8e		 mov	 DWORD PTR ___encStr$506996[ebp], -1903518070 ; 8e8a9e8aH
  000d7	c7 45 e0 88 c9
	8f b5		 mov	 DWORD PTR ___encStr$506996[ebp+4], -1248867960 ; b58fc988H
  000de	c7 45 e4 83 8d
	86 8f		 mov	 DWORD PTR ___encStr$506996[ebp+8], -1887007357 ; 8f868d83H
  000e5	8d 45 dc	 lea	 eax, DWORD PTR ___encStr$506996[ebp]
  000e8	c6 45 e8 00	 mov	 BYTE PTR ___encStr$506996[ebp+12], 0
  000ec	59		 pop	 ecx
$LL514@LoadFishGr:
  000ed	81 30 ed ec eb
	ea		 xor	 DWORD PTR [eax], -353637139 ; eaebecedH
  000f3	83 c0 04	 add	 eax, 4
  000f6	49		 dec	 ecx
  000f7	75 f4		 jne	 SHORT $LL514@LoadFishGr
  000f9	ff b5 ac fd ff
	ff		 push	 DWORD PTR tv4041[ebp]
  000ff	8d 45 dc	 lea	 eax, DWORD PTR ___encStr$506996[ebp]
  00102	50		 push	 eax
  00103	8d 85 b4 fe ff
	ff		 lea	 eax, DWORD PTR _szKey$[ebp]
  00109	50		 push	 eax
  0010a	ff d6		 call	 esi

; 80   : 		rkLoader.LoadString( szKey, "", szBuf, MAX_PATH );

  0010c	8b 8d a8 fd ff
	ff		 mov	 ecx, DWORD PTR _rkLoader$GSCopy$[ebp]
  00112	83 c4 0c	 add	 esp, 12			; 0000000cH
  00115	68 04 01 00 00	 push	 260			; 00000104H
  0011a	8d 85 b0 fd ff
	ff		 lea	 eax, DWORD PTR _szBuf$[ebp]
  00120	50		 push	 eax
  00121	68 00 00 00 00	 push	 OFFSET ??_C@_00CNPNBAHC@?$AA@
  00126	8d 85 b4 fe ff
	ff		 lea	 eax, DWORD PTR _szKey$[ebp]
  0012c	50		 push	 eax
  0012d	ff d7		 call	 edi

; 81   : 		kGrade.m_Name = szBuf;

  0012f	8d 85 b0 fd ff
	ff		 lea	 eax, DWORD PTR _szBuf$[ebp]
  00135	50		 push	 eax
  00136	8d 8d 78 fd ff
	ff		 lea	 ecx, DWORD PTR _kGrade$506992[ebp+4]
  0013c	ff d3		 call	 ebx
  0013e	6a 03		 push	 3

; 82   : 
; 83   : 		sprintf_e( szKey, "grade%d_desc", j+1 );

  00140	c7 45 dc 8a 9e
	8a 8e		 mov	 DWORD PTR ___encStr$507148[ebp], -1903518070 ; 8e8a9e8aH
  00147	c7 45 e0 88 c9
	8f b5		 mov	 DWORD PTR ___encStr$507148[ebp+4], -1248867960 ; b58fc988H
  0014e	c7 45 e4 89 89
	98 89		 mov	 DWORD PTR ___encStr$507148[ebp+8], -1986492023 ; 89988989H
  00155	8d 45 dc	 lea	 eax, DWORD PTR ___encStr$507148[ebp]
  00158	c6 45 e8 00	 mov	 BYTE PTR ___encStr$507148[ebp+12], 0
  0015c	59		 pop	 ecx
$LL522@LoadFishGr:
  0015d	81 30 ed ec eb
	ea		 xor	 DWORD PTR [eax], -353637139 ; eaebecedH
  00163	83 c0 04	 add	 eax, 4
  00166	49		 dec	 ecx
  00167	75 f4		 jne	 SHORT $LL522@LoadFishGr
  00169	ff b5 ac fd ff
	ff		 push	 DWORD PTR tv4041[ebp]
  0016f	8d 45 dc	 lea	 eax, DWORD PTR ___encStr$507148[ebp]
  00172	50		 push	 eax
  00173	8d 85 b4 fe ff
	ff		 lea	 eax, DWORD PTR _szKey$[ebp]
  00179	50		 push	 eax
  0017a	ff 15 00 00 00
	00		 call	 DWORD PTR __imp__sprintf

; 84   : 		rkLoader.LoadString( szKey, "", szBuf, MAX_PATH );

  00180	8b 8d a8 fd ff
	ff		 mov	 ecx, DWORD PTR _rkLoader$GSCopy$[ebp]
  00186	83 c4 0c	 add	 esp, 12			; 0000000cH
  00189	68 04 01 00 00	 push	 260			; 00000104H
  0018e	8d 85 b0 fd ff
	ff		 lea	 eax, DWORD PTR _szBuf$[ebp]
  00194	50		 push	 eax
  00195	68 00 00 00 00	 push	 OFFSET ??_C@_00CNPNBAHC@?$AA@
  0019a	8d 85 b4 fe ff
	ff		 lea	 eax, DWORD PTR _szKey$[ebp]
  001a0	50		 push	 eax
  001a1	ff d7		 call	 edi

; 85   : 		kGrade.m_Desc  = szBuf;

  001a3	8d 85 b0 fd ff
	ff		 lea	 eax, DWORD PTR _szBuf$[ebp]
  001a9	50		 push	 eax
  001aa	8d 8d 88 fd ff
	ff		 lea	 ecx, DWORD PTR _kGrade$506992[ebp+20]
  001b0	ff d3		 call	 ebx
  001b2	6a 02		 push	 2

; 86   : 
; 87   : 		wsprintf_e( szKey, "grade%d_num", j+1 );

  001b4	c7 45 cc 8a 9e
	8a 8e		 mov	 DWORD PTR ___encStr$507300[ebp], -1903518070 ; 8e8a9e8aH
  001bb	c7 45 d0 88 c9
	8f b5		 mov	 DWORD PTR ___encStr$507300[ebp+4], -1248867960 ; b58fc988H
  001c2	8d 45 cc	 lea	 eax, DWORD PTR ___encStr$507300[ebp]
  001c5	c7 45 d4 83 99
	86 00		 mov	 DWORD PTR ___encStr$507300[ebp+8], 8821123 ; 00869983H
  001cc	59		 pop	 ecx
$LL530@LoadFishGr:
  001cd	81 30 ed ec eb
	ea		 xor	 DWORD PTR [eax], -353637139 ; eaebecedH
  001d3	83 c0 04	 add	 eax, 4
  001d6	49		 dec	 ecx
  001d7	75 f4		 jne	 SHORT $LL530@LoadFishGr
  001d9	6a 08		 push	 8
  001db	58		 pop	 eax
$LL527@LoadFishGr:
  001dc	8b c8		 mov	 ecx, eax
  001de	81 e1 03 00 00
	80		 and	 ecx, -2147483645	; 80000003H
  001e4	79 05		 jns	 SHORT $LN566@LoadFishGr
  001e6	49		 dec	 ecx
  001e7	83 c9 fc	 or	 ecx, -4			; fffffffcH
  001ea	41		 inc	 ecx
$LN566@LoadFishGr:
  001eb	b2 ed		 mov	 dl, -19			; ffffffedH
  001ed	2a d1		 sub	 dl, cl
  001ef	30 54 05 cc	 xor	 BYTE PTR ___encStr$507300[ebp+eax], dl
  001f3	40		 inc	 eax
  001f4	83 f8 0b	 cmp	 eax, 11			; 0000000bH
  001f7	7c e3		 jl	 SHORT $LL527@LoadFishGr
  001f9	ff b5 ac fd ff
	ff		 push	 DWORD PTR tv4041[ebp]
  001ff	8d 45 cc	 lea	 eax, DWORD PTR ___encStr$507300[ebp]
  00202	50		 push	 eax
  00203	8d 85 b4 fe ff
	ff		 lea	 eax, DWORD PTR _szKey$[ebp]
  00209	50		 push	 eax
  0020a	ff d6		 call	 esi

; 88   : 		kGrade.m_iGradeNum = rkLoader.LoadInt( szKey, 0 );

  0020c	8b 8d a8 fd ff
	ff		 mov	 ecx, DWORD PTR _rkLoader$GSCopy$[ebp]
  00212	83 c4 0c	 add	 esp, 12			; 0000000cH
  00215	6a 00		 push	 0
  00217	8d 85 b4 fe ff
	ff		 lea	 eax, DWORD PTR _szKey$[ebp]
  0021d	50		 push	 eax
  0021e	ff 15 00 00 00
	00		 call	 DWORD PTR __imp_?LoadInt@ioINILoader@@QAEHPBDH@Z
  00224	6a 03		 push	 3
  00226	89 85 74 fd ff
	ff		 mov	 DWORD PTR _kGrade$506992[ebp], eax

; 89   : 
; 90   : 		wsprintf_e( szKey, "grade%d_value", j+1 );

  0022c	c7 45 b8 8a 9e
	8a 8e		 mov	 DWORD PTR ___encStr$507452[ebp], -1903518070 ; 8e8a9e8aH
  00233	c7 45 bc 88 c9
	8f b5		 mov	 DWORD PTR ___encStr$507452[ebp+4], -1248867960 ; b58fc988H
  0023a	c7 45 c0 9b 8d
	87 9f		 mov	 DWORD PTR ___encStr$507452[ebp+8], -1618506341 ; 9f878d9bH
  00241	8d 45 b8	 lea	 eax, DWORD PTR ___encStr$507452[ebp]
  00244	66 c7 45 c4 88
	00		 mov	 WORD PTR ___encStr$507452[ebp+12], 136 ; 00000088H
  0024a	59		 pop	 ecx
$LL538@LoadFishGr:
  0024b	81 30 ed ec eb
	ea		 xor	 DWORD PTR [eax], -353637139 ; eaebecedH
  00251	83 c0 04	 add	 eax, 4
  00254	49		 dec	 ecx
  00255	75 f4		 jne	 SHORT $LL538@LoadFishGr
  00257	ff b5 ac fd ff
	ff		 push	 DWORD PTR tv4041[ebp]
  0025d	80 75 c4 ed	 xor	 BYTE PTR ___encStr$507452[ebp+12], -19 ; ffffffedH
  00261	8d 45 b8	 lea	 eax, DWORD PTR ___encStr$507452[ebp]
  00264	50		 push	 eax
  00265	8d 85 b4 fe ff
	ff		 lea	 eax, DWORD PTR _szKey$[ebp]
  0026b	50		 push	 eax
  0026c	ff d6		 call	 esi
  0026e	83 c4 0c	 add	 esp, 12			; 0000000cH

; 91   : 		kGrade.m_fValue = rkLoader.LoadFloat( szKey, FLOAT1 );

  00271	b8 01 00 00 00	 mov	 eax, 1
  00276	89 85 9c fd ff
	ff		 mov	 DWORD PTR tv4019[ebp], eax
  0027c	db 85 9c fd ff
	ff		 fild	 DWORD PTR tv4019[ebp]
  00282	85 c0		 test	 eax, eax
  00284	79 06		 jns	 SHORT $LN567@LoadFishGr
  00286	d8 05 00 00 00
	00		 fadd	 DWORD PTR __real@4f800000
$LN567@LoadFishGr:
  0028c	51		 push	 ecx
  0028d	8b 8d a8 fd ff
	ff		 mov	 ecx, DWORD PTR _rkLoader$GSCopy$[ebp]
  00293	d9 1c 24	 fstp	 DWORD PTR [esp]
  00296	8d 85 b4 fe ff
	ff		 lea	 eax, DWORD PTR _szKey$[ebp]
  0029c	50		 push	 eax
  0029d	ff 15 00 00 00
	00		 call	 DWORD PTR __imp_?LoadFloat@ioINILoader@@QAEMPBDM@Z
  002a3	d9 9d 98 fd ff
	ff		 fstp	 DWORD PTR _kGrade$506992[ebp+36]

; 92   : 
; 93   : 		m_vFishingItemGradeList.push_back( kGrade );

  002a9	8b 8d a0 fd ff
	ff		 mov	 ecx, DWORD PTR tv3621[ebp]
  002af	8d 85 74 fd ff
	ff		 lea	 eax, DWORD PTR _kGrade$506992[ebp]
  002b5	50		 push	 eax
  002b6	e8 00 00 00 00	 call	 ?push_back@?$vector@UFishingItemGrade@@V?$allocator@UFishingItemGrade@@@std@@@std@@QAEXABUFishingItemGrade@@@Z ; std::vector<FishingItemGrade,std::allocator<FishingItemGrade> >::push_back

; 94   : 	}

  002bb	83 4d fc ff	 or	 DWORD PTR __$EHRec$[ebp+8], -1
  002bf	8d 8d 74 fd ff
	ff		 lea	 ecx, DWORD PTR _kGrade$506992[ebp]
  002c5	e8 00 00 00 00	 call	 ??1FishingItemGrade@@QAE@XZ
  002ca	ff 85 ac fd ff
	ff		 inc	 DWORD PTR tv4041[ebp]
  002d0	ff 8d a4 fd ff
	ff		 dec	 DWORD PTR tv1590[ebp]
  002d6	0f 85 e3 fd ff
	ff		 jne	 $LL399@LoadFishGr
$LN397@LoadFishGr:

; 95   : }

  002dc	e8 00 00 00 00	 call	 __EH_epilog3_GS
  002e1	c2 04 00	 ret	 4
_TEXT	ENDS
;	COMDAT text$x
text$x	SEGMENT
__unwindfunclet$?LoadFishGradeList@ioFishingManager@@QAEXAAVioINILoader@@@Z$0:
  00000	8d 8d 74 fd ff
	ff		 lea	 ecx, DWORD PTR _kGrade$506992[ebp]
  00006	e9 00 00 00 00	 jmp	 ??1FishingItemGrade@@QAE@XZ
__ehhandler$?LoadFishGradeList@ioFishingManager@@QAEXAAVioINILoader@@@Z:
  0000b	8b 54 24 08	 mov	 edx, DWORD PTR [esp+8]
  0000f	8d 42 0c	 lea	 eax, DWORD PTR [edx+12]
  00012	8b 8a 70 fd ff
	ff		 mov	 ecx, DWORD PTR [edx-656]
  00018	33 c8		 xor	 ecx, eax
  0001a	e8 00 00 00 00	 call	 @__security_check_cookie@4
  0001f	8b 4a fc	 mov	 ecx, DWORD PTR [edx-4]
  00022	33 c8		 xor	 ecx, eax
  00024	e8 00 00 00 00	 call	 @__security_check_cookie@4
  00029	b8 00 00 00 00	 mov	 eax, OFFSET __ehfuncinfo$?LoadFishGradeList@ioFishingManager@@QAEXAAVioINILoader@@@Z
  0002e	e9 00 00 00 00	 jmp	 ___CxxFrameHandler3
text$x	ENDS
?LoadFishGradeList@ioFishingManager@@QAEXAAVioINILoader@@@Z ENDP ; ioFishingManager::LoadFishGradeList
PUBLIC	_rkLoader$GSCopy$
PUBLIC	?LoadFishTypeList@ioFishingManager@@QAEXAAVioINILoader@@@Z ; ioFishingManager::LoadFishTypeList
;	COMDAT xdata$x
; File d:\lost saga for developer\youtube\tutorial\source\src\lsclient\stringprotect.h
xdata$x	SEGMENT
__unwindtable$?LoadFishTypeList@ioFishingManager@@QAEXAAVioINILoader@@@Z DD 0ffffffffH
	DD	FLAT:__unwindfunclet$?LoadFishTypeList@ioFishingManager@@QAEXAAVioINILoader@@@Z$0
__ehfuncinfo$?LoadFishTypeList@ioFishingManager@@QAEXAAVioINILoader@@@Z DD 019930522H
	DD	01H
	DD	FLAT:__unwindtable$?LoadFishTypeList@ioFishingManager@@QAEXAAVioINILoader@@@Z
	DD	2 DUP(00H)
	DD	2 DUP(00H)
	DD	00H
	DD	01H
; Function compile flags: /Ogsp
; File d:\lost saga for developer\youtube\tutorial\source\src\lsclient\iofishingmanager.cpp
xdata$x	ENDS
;	COMDAT ?LoadFishTypeList@ioFishingManager@@QAEXAAVioINILoader@@@Z
_TEXT	SEGMENT
_kInfo$507620 = -656					; size = 64
tv3583 = -592						; size = 4
tv408 = -588						; size = 4
_rkLoader$GSCopy$ = -584				; size = 4
tv4005 = -580						; size = 4
_szKey$ = -576						; size = 260
_szBuf$ = -316						; size = 260
___encStr$508080 = -56					; size = 15
___encStr$507776 = -56					; size = 16
___encStr$507928 = -36					; size = 15
___encStr$507624 = -36					; size = 14
__k$517755 = -32					; size = 9
__$EHRec$ = -12						; size = 12
_rkLoader$ = 8						; size = 4
?LoadFishTypeList@ioFishingManager@@QAEXAAVioINILoader@@@Z PROC ; ioFishingManager::LoadFishTypeList, COMDAT
; _this$ = ecx

; 98   : {

  00000	68 84 02 00 00	 push	 644			; 00000284H
  00005	b8 00 00 00 00	 mov	 eax, __ehhandler$?LoadFishTypeList@ioFishingManager@@QAEXAAVioINILoader@@@Z
  0000a	e8 00 00 00 00	 call	 __EH_prolog3_GS
  0000f	8b f9		 mov	 edi, ecx
  00011	8b 4d 08	 mov	 ecx, DWORD PTR _rkLoader$[ebp]

; 99   : 	// type list
; 100  : 	int iTypeCnt = rkLoader.LoadInt_e( "type_cnt", 0 );

  00014	6a 02		 push	 2

; 119  : 
; 120  : 		wsprintf_e( szKey, "fishing_pull%d", k+1 );

  00016	89 8d b8 fd ff
	ff		 mov	 DWORD PTR _rkLoader$GSCopy$[ebp], ecx
  0001c	c7 45 e0 99 95
	9b 8f		 mov	 DWORD PTR __k$517755[ebp], -1885629031 ; 8f9b9599H
  00023	c7 45 e4 b2 8f
	85 9e		 mov	 DWORD PTR __k$517755[ebp+4], -1635414094 ; 9e858fb2H
  0002a	8d 45 e0	 lea	 eax, DWORD PTR __k$517755[ebp]
  0002d	c6 45 e8 00	 mov	 BYTE PTR __k$517755[ebp+8], 0
  00031	5a		 pop	 edx
$LL506@LoadFishTy:

; 99   : 	// type list
; 100  : 	int iTypeCnt = rkLoader.LoadInt_e( "type_cnt", 0 );

  00032	81 30 ed ec eb
	ea		 xor	 DWORD PTR [eax], -353637139 ; eaebecedH
  00038	83 c0 04	 add	 eax, 4
  0003b	4a		 dec	 edx
  0003c	75 f4		 jne	 SHORT $LL506@LoadFishTy
  0003e	52		 push	 edx
  0003f	8d 45 e0	 lea	 eax, DWORD PTR __k$517755[ebp]
  00042	50		 push	 eax
  00043	ff 15 00 00 00
	00		 call	 DWORD PTR __imp_?LoadInt@ioINILoader@@QAEHPBDH@Z

; 101  : 	
; 102  : 	char szKey[MAX_PATH] = "";

  00049	be 03 01 00 00	 mov	 esi, 259		; 00000103H
  0004e	56		 push	 esi
  0004f	8b d8		 mov	 ebx, eax
  00051	8d 85 c1 fd ff
	ff		 lea	 eax, DWORD PTR _szKey$[ebp+1]
  00057	6a 00		 push	 0
  00059	50		 push	 eax
  0005a	c6 85 c0 fd ff
	ff 00		 mov	 BYTE PTR _szKey$[ebp], 0
  00061	e8 00 00 00 00	 call	 _memset

; 103  : 	char szBuf[MAX_PATH] = "";

  00066	56		 push	 esi
  00067	8d 85 c5 fe ff
	ff		 lea	 eax, DWORD PTR _szBuf$[ebp+1]
  0006d	6a 00		 push	 0
  0006f	50		 push	 eax
  00070	c6 85 c4 fe ff
	ff 00		 mov	 BYTE PTR _szBuf$[ebp], 0
  00077	e8 00 00 00 00	 call	 _memset
  0007c	83 c4 18	 add	 esp, 24			; 00000018H

; 104  : 	for( int k=0; k < iTypeCnt; ++k )

  0007f	85 db		 test	 ebx, ebx
  00081	0f 8e a2 02 00
	00		 jle	 $LN397@LoadFishTy

; 99   : 	// type list
; 100  : 	int iTypeCnt = rkLoader.LoadInt_e( "type_cnt", 0 );

  00087	8b 35 00 00 00
	00		 mov	 esi, DWORD PTR __imp__wsprintfA
  0008d	83 c7 24	 add	 edi, 36			; 00000024H
  00090	89 bd b0 fd ff
	ff		 mov	 DWORD PTR tv3583[ebp], edi
  00096	8b 3d 00 00 00
	00		 mov	 edi, DWORD PTR __imp_?LoadStringA@ioINILoader@@QAEXPBD0PADH@Z
  0009c	89 9d b4 fd ff
	ff		 mov	 DWORD PTR tv408[ebp], ebx
  000a2	8b 1d 00 00 00
	00		 mov	 ebx, DWORD PTR __imp_??4ioHashString@@QAEAAV0@PBD@Z
  000a8	c7 85 bc fd ff
	ff 01 00 00 00	 mov	 DWORD PTR tv4005[ebp], 1
$LL399@LoadFishTy:

; 105  : 	{
; 106  : 		FishingTypeInfo kInfo;

  000b2	8d 8d 70 fd ff
	ff		 lea	 ecx, DWORD PTR _kInfo$507620[ebp]
  000b8	e8 00 00 00 00	 call	 ??0FishingTypeInfo@@QAE@XZ
  000bd	83 65 fc 00	 and	 DWORD PTR __$EHRec$[ebp+8], 0
  000c1	6a 03		 push	 3

; 107  : 
; 108  : 		wsprintf_e( szKey, "fishing_rod%d", k+1 );

  000c3	c7 45 dc 8b 85
	98 82		 mov	 DWORD PTR ___encStr$507624[ebp], -2103933557 ; 8298858bH
  000ca	c7 45 e0 84 82
	8c b5		 mov	 DWORD PTR ___encStr$507624[ebp+4], -1249082748 ; b58c8284H
  000d1	c7 45 e4 9f 83
	8f cf		 mov	 DWORD PTR ___encStr$507624[ebp+8], -812678241 ; cf8f839fH
  000d8	8d 45 dc	 lea	 eax, DWORD PTR ___encStr$507624[ebp]
  000db	66 c7 45 e8 89
	00		 mov	 WORD PTR ___encStr$507624[ebp+12], 137 ; 00000089H
  000e1	59		 pop	 ecx
$LL514@LoadFishTy:
  000e2	81 30 ed ec eb
	ea		 xor	 DWORD PTR [eax], -353637139 ; eaebecedH
  000e8	83 c0 04	 add	 eax, 4
  000eb	49		 dec	 ecx
  000ec	75 f4		 jne	 SHORT $LL514@LoadFishTy
  000ee	ff b5 bc fd ff
	ff		 push	 DWORD PTR tv4005[ebp]
  000f4	80 75 e8 ed	 xor	 BYTE PTR ___encStr$507624[ebp+12], -19 ; ffffffedH
  000f8	8d 45 dc	 lea	 eax, DWORD PTR ___encStr$507624[ebp]
  000fb	50		 push	 eax
  000fc	8d 85 c0 fd ff
	ff		 lea	 eax, DWORD PTR _szKey$[ebp]
  00102	50		 push	 eax
  00103	ff d6		 call	 esi

; 109  : 		rkLoader.LoadString( szKey, "", szBuf, MAX_PATH );

  00105	8b 8d b8 fd ff
	ff		 mov	 ecx, DWORD PTR _rkLoader$GSCopy$[ebp]
  0010b	83 c4 0c	 add	 esp, 12			; 0000000cH
  0010e	68 04 01 00 00	 push	 260			; 00000104H
  00113	8d 85 c4 fe ff
	ff		 lea	 eax, DWORD PTR _szBuf$[ebp]
  00119	50		 push	 eax
  0011a	68 00 00 00 00	 push	 OFFSET ??_C@_00CNPNBAHC@?$AA@
  0011f	8d 85 c0 fd ff
	ff		 lea	 eax, DWORD PTR _szKey$[ebp]
  00125	50		 push	 eax
  00126	ff d7		 call	 edi

; 110  : 		kInfo.m_FishingRod = szBuf;

  00128	8d 85 c4 fe ff
	ff		 lea	 eax, DWORD PTR _szBuf$[ebp]
  0012e	50		 push	 eax
  0012f	8d 8d 70 fd ff
	ff		 lea	 ecx, DWORD PTR _kInfo$507620[ebp]
  00135	ff d3		 call	 ebx
  00137	6a 03		 push	 3

; 111  : 
; 112  : 		wsprintf_e( szKey, "fishing_ready%d", k+1 );

  00139	c7 45 c8 8b 85
	98 82		 mov	 DWORD PTR ___encStr$507776[ebp], -2103933557 ; 8298858bH
  00140	c7 45 cc 84 82
	8c b5		 mov	 DWORD PTR ___encStr$507776[ebp+4], -1249082748 ; b58c8284H
  00147	c7 45 d0 9f 89
	8a 8e		 mov	 DWORD PTR ___encStr$507776[ebp+8], -1903523425 ; 8e8a899fH
  0014e	8d 45 c8	 lea	 eax, DWORD PTR ___encStr$507776[ebp]
  00151	c7 45 d4 94 c9
	8f 00		 mov	 DWORD PTR ___encStr$507776[ebp+12], 9423252 ; 008fc994H
  00158	59		 pop	 ecx
$LL522@LoadFishTy:
  00159	81 30 ed ec eb
	ea		 xor	 DWORD PTR [eax], -353637139 ; eaebecedH
  0015f	83 c0 04	 add	 eax, 4
  00162	49		 dec	 ecx
  00163	75 f4		 jne	 SHORT $LL522@LoadFishTy
  00165	6a 0c		 push	 12			; 0000000cH
  00167	58		 pop	 eax
$LL519@LoadFishTy:
  00168	8b c8		 mov	 ecx, eax
  0016a	81 e1 03 00 00
	80		 and	 ecx, -2147483645	; 80000003H
  00170	79 05		 jns	 SHORT $LN564@LoadFishTy
  00172	49		 dec	 ecx
  00173	83 c9 fc	 or	 ecx, -4			; fffffffcH
  00176	41		 inc	 ecx
$LN564@LoadFishTy:
  00177	b2 ed		 mov	 dl, -19			; ffffffedH
  00179	2a d1		 sub	 dl, cl
  0017b	30 54 05 c8	 xor	 BYTE PTR ___encStr$507776[ebp+eax], dl
  0017f	40		 inc	 eax
  00180	83 f8 0f	 cmp	 eax, 15			; 0000000fH
  00183	7c e3		 jl	 SHORT $LL519@LoadFishTy
  00185	ff b5 bc fd ff
	ff		 push	 DWORD PTR tv4005[ebp]
  0018b	8d 45 c8	 lea	 eax, DWORD PTR ___encStr$507776[ebp]
  0018e	50		 push	 eax
  0018f	8d 85 c0 fd ff
	ff		 lea	 eax, DWORD PTR _szKey$[ebp]
  00195	50		 push	 eax
  00196	ff d6		 call	 esi

; 113  : 		rkLoader.LoadString( szKey, "", szBuf, MAX_PATH );

  00198	8b 8d b8 fd ff
	ff		 mov	 ecx, DWORD PTR _rkLoader$GSCopy$[ebp]
  0019e	83 c4 0c	 add	 esp, 12			; 0000000cH
  001a1	68 04 01 00 00	 push	 260			; 00000104H
  001a6	8d 85 c4 fe ff
	ff		 lea	 eax, DWORD PTR _szBuf$[ebp]
  001ac	50		 push	 eax
  001ad	68 00 00 00 00	 push	 OFFSET ??_C@_00CNPNBAHC@?$AA@
  001b2	8d 85 c0 fd ff
	ff		 lea	 eax, DWORD PTR _szKey$[ebp]
  001b8	50		 push	 eax
  001b9	ff d7		 call	 edi

; 114  : 		kInfo.m_FishingReadyEffect = szBuf;

  001bb	8d 85 c4 fe ff
	ff		 lea	 eax, DWORD PTR _szBuf$[ebp]
  001c1	50		 push	 eax
  001c2	8d 8d 80 fd ff
	ff		 lea	 ecx, DWORD PTR _kInfo$507620[ebp+16]
  001c8	ff d3		 call	 ebx
  001ca	6a 03		 push	 3

; 115  : 
; 116  : 		wsprintf_e( szKey, "fishing_wait%d", k+1 );

  001cc	c7 45 dc 8b 85
	98 82		 mov	 DWORD PTR ___encStr$507928[ebp], -2103933557 ; 8298858bH
  001d3	c7 45 e0 84 82
	8c b5		 mov	 DWORD PTR ___encStr$507928[ebp+4], -1249082748 ; b58c8284H
  001da	c7 45 e4 9a 8d
	82 9e		 mov	 DWORD PTR ___encStr$507928[ebp+8], -1635611238 ; 9e828d9aH
  001e1	66 c7 45 e8 c8
	88		 mov	 WORD PTR ___encStr$507928[ebp+12], 35016 ; 000088c8H
  001e7	8d 45 dc	 lea	 eax, DWORD PTR ___encStr$507928[ebp]
  001ea	c6 45 ea 00	 mov	 BYTE PTR ___encStr$507928[ebp+14], 0
  001ee	59		 pop	 ecx
$LL530@LoadFishTy:
  001ef	81 30 ed ec eb
	ea		 xor	 DWORD PTR [eax], -353637139 ; eaebecedH
  001f5	83 c0 04	 add	 eax, 4
  001f8	49		 dec	 ecx
  001f9	75 f4		 jne	 SHORT $LL530@LoadFishTy
  001fb	6a 0c		 push	 12			; 0000000cH
  001fd	58		 pop	 eax
$LL527@LoadFishTy:
  001fe	8b c8		 mov	 ecx, eax
  00200	81 e1 03 00 00
	80		 and	 ecx, -2147483645	; 80000003H
  00206	79 05		 jns	 SHORT $LN565@LoadFishTy
  00208	49		 dec	 ecx
  00209	83 c9 fc	 or	 ecx, -4			; fffffffcH
  0020c	41		 inc	 ecx
$LN565@LoadFishTy:
  0020d	b2 ed		 mov	 dl, -19			; ffffffedH
  0020f	2a d1		 sub	 dl, cl
  00211	30 54 05 dc	 xor	 BYTE PTR ___encStr$507928[ebp+eax], dl
  00215	40		 inc	 eax
  00216	83 f8 0e	 cmp	 eax, 14			; 0000000eH
  00219	7c e3		 jl	 SHORT $LL527@LoadFishTy
  0021b	ff b5 bc fd ff
	ff		 push	 DWORD PTR tv4005[ebp]
  00221	8d 45 dc	 lea	 eax, DWORD PTR ___encStr$507928[ebp]
  00224	50		 push	 eax
  00225	8d 85 c0 fd ff
	ff		 lea	 eax, DWORD PTR _szKey$[ebp]
  0022b	50		 push	 eax
  0022c	ff d6		 call	 esi

; 117  : 		rkLoader.LoadString( szKey, "", szBuf, MAX_PATH );

  0022e	8b 8d b8 fd ff
	ff		 mov	 ecx, DWORD PTR _rkLoader$GSCopy$[ebp]
  00234	83 c4 0c	 add	 esp, 12			; 0000000cH
  00237	68 04 01 00 00	 push	 260			; 00000104H
  0023c	8d 85 c4 fe ff
	ff		 lea	 eax, DWORD PTR _szBuf$[ebp]
  00242	50		 push	 eax
  00243	68 00 00 00 00	 push	 OFFSET ??_C@_00CNPNBAHC@?$AA@
  00248	8d 85 c0 fd ff
	ff		 lea	 eax, DWORD PTR _szKey$[ebp]
  0024e	50		 push	 eax
  0024f	ff d7		 call	 edi

; 118  : 		kInfo.m_FishingWaitEffect = szBuf;

  00251	8d 85 c4 fe ff
	ff		 lea	 eax, DWORD PTR _szBuf$[ebp]
  00257	50		 push	 eax
  00258	8d 8d 90 fd ff
	ff		 lea	 ecx, DWORD PTR _kInfo$507620[ebp+32]
  0025e	ff d3		 call	 ebx
  00260	6a 03		 push	 3

; 119  : 
; 120  : 		wsprintf_e( szKey, "fishing_pull%d", k+1 );

  00262	c7 45 c8 8b 85
	98 82		 mov	 DWORD PTR ___encStr$508080[ebp], -2103933557 ; 8298858bH
  00269	c7 45 cc 84 82
	8c b5		 mov	 DWORD PTR ___encStr$508080[ebp+4], -1249082748 ; b58c8284H
  00270	c7 45 d0 9d 99
	87 86		 mov	 DWORD PTR ___encStr$508080[ebp+8], -2037933667 ; 8687999dH
  00277	66 c7 45 d4 c8
	88		 mov	 WORD PTR ___encStr$508080[ebp+12], 35016 ; 000088c8H
  0027d	8d 45 c8	 lea	 eax, DWORD PTR ___encStr$508080[ebp]
  00280	c6 45 d6 00	 mov	 BYTE PTR ___encStr$508080[ebp+14], 0
  00284	59		 pop	 ecx
$LL538@LoadFishTy:
  00285	81 30 ed ec eb
	ea		 xor	 DWORD PTR [eax], -353637139 ; eaebecedH
  0028b	83 c0 04	 add	 eax, 4
  0028e	49		 dec	 ecx
  0028f	75 f4		 jne	 SHORT $LL538@LoadFishTy
  00291	6a 0c		 push	 12			; 0000000cH
  00293	58		 pop	 eax
$LL535@LoadFishTy:
  00294	8b c8		 mov	 ecx, eax
  00296	81 e1 03 00 00
	80		 and	 ecx, -2147483645	; 80000003H
  0029c	79 05		 jns	 SHORT $LN566@LoadFishTy
  0029e	49		 dec	 ecx
  0029f	83 c9 fc	 or	 ecx, -4			; fffffffcH
  002a2	41		 inc	 ecx
$LN566@LoadFishTy:
  002a3	b2 ed		 mov	 dl, -19			; ffffffedH
  002a5	2a d1		 sub	 dl, cl
  002a7	30 54 05 c8	 xor	 BYTE PTR ___encStr$508080[ebp+eax], dl
  002ab	40		 inc	 eax
  002ac	83 f8 0e	 cmp	 eax, 14			; 0000000eH
  002af	7c e3		 jl	 SHORT $LL535@LoadFishTy
  002b1	ff b5 bc fd ff
	ff		 push	 DWORD PTR tv4005[ebp]
  002b7	8d 45 c8	 lea	 eax, DWORD PTR ___encStr$508080[ebp]
  002ba	50		 push	 eax
  002bb	8d 85 c0 fd ff
	ff		 lea	 eax, DWORD PTR _szKey$[ebp]
  002c1	50		 push	 eax
  002c2	ff d6		 call	 esi

; 121  : 		rkLoader.LoadString( szKey, "", szBuf, MAX_PATH );

  002c4	8b 8d b8 fd ff
	ff		 mov	 ecx, DWORD PTR _rkLoader$GSCopy$[ebp]
  002ca	83 c4 0c	 add	 esp, 12			; 0000000cH
  002cd	68 04 01 00 00	 push	 260			; 00000104H
  002d2	8d 85 c4 fe ff
	ff		 lea	 eax, DWORD PTR _szBuf$[ebp]
  002d8	50		 push	 eax
  002d9	68 00 00 00 00	 push	 OFFSET ??_C@_00CNPNBAHC@?$AA@
  002de	8d 85 c0 fd ff
	ff		 lea	 eax, DWORD PTR _szKey$[ebp]
  002e4	50		 push	 eax
  002e5	ff d7		 call	 edi

; 122  : 		kInfo.m_FishingPullEffect = szBuf;

  002e7	8d 85 c4 fe ff
	ff		 lea	 eax, DWORD PTR _szBuf$[ebp]
  002ed	50		 push	 eax
  002ee	8d 8d a0 fd ff
	ff		 lea	 ecx, DWORD PTR _kInfo$507620[ebp+48]
  002f4	ff d3		 call	 ebx

; 123  : 
; 124  : 		m_vFishingTypeInfoList.push_back( kInfo );

  002f6	8b 8d b0 fd ff
	ff		 mov	 ecx, DWORD PTR tv3583[ebp]
  002fc	8d 85 70 fd ff
	ff		 lea	 eax, DWORD PTR _kInfo$507620[ebp]
  00302	50		 push	 eax
  00303	e8 00 00 00 00	 call	 ?push_back@?$vector@UFishingTypeInfo@@V?$allocator@UFishingTypeInfo@@@std@@@std@@QAEXABUFishingTypeInfo@@@Z ; std::vector<FishingTypeInfo,std::allocator<FishingTypeInfo> >::push_back

; 125  : 	}

  00308	83 4d fc ff	 or	 DWORD PTR __$EHRec$[ebp+8], -1
  0030c	8d 8d 70 fd ff
	ff		 lea	 ecx, DWORD PTR _kInfo$507620[ebp]
  00312	e8 00 00 00 00	 call	 ??1FishingTypeInfo@@QAE@XZ
  00317	ff 85 bc fd ff
	ff		 inc	 DWORD PTR tv4005[ebp]
  0031d	ff 8d b4 fd ff
	ff		 dec	 DWORD PTR tv408[ebp]
  00323	0f 85 89 fd ff
	ff		 jne	 $LL399@LoadFishTy
$LN397@LoadFishTy:

; 126  : }

  00329	e8 00 00 00 00	 call	 __EH_epilog3_GS
  0032e	c2 04 00	 ret	 4
_TEXT	ENDS
;	COMDAT text$x
text$x	SEGMENT
__unwindfunclet$?LoadFishTypeList@ioFishingManager@@QAEXAAVioINILoader@@@Z$0:
  00000	8d 8d 70 fd ff
	ff		 lea	 ecx, DWORD PTR _kInfo$507620[ebp]
  00006	e9 00 00 00 00	 jmp	 ??1FishingTypeInfo@@QAE@XZ
__ehhandler$?LoadFishTypeList@ioFishingManager@@QAEXAAVioINILoader@@@Z:
  0000b	8b 54 24 08	 mov	 edx, DWORD PTR [esp+8]
  0000f	8d 42 0c	 lea	 eax, DWORD PTR [edx+12]
  00012	8b 8a 6c fd ff
	ff		 mov	 ecx, DWORD PTR [edx-660]
  00018	33 c8		 xor	 ecx, eax
  0001a	e8 00 00 00 00	 call	 @__security_check_cookie@4
  0001f	8b 4a fc	 mov	 ecx, DWORD PTR [edx-4]
  00022	33 c8		 xor	 ecx, eax
  00024	e8 00 00 00 00	 call	 @__security_check_cookie@4
  00029	b8 00 00 00 00	 mov	 eax, OFFSET __ehfuncinfo$?LoadFishTypeList@ioFishingManager@@QAEXAAVioINILoader@@@Z
  0002e	e9 00 00 00 00	 jmp	 ___CxxFrameHandler3
text$x	ENDS
?LoadFishTypeList@ioFishingManager@@QAEXAAVioINILoader@@@Z ENDP ; ioFishingManager::LoadFishTypeList
PUBLIC	_this$GSCopy$
PUBLIC	?LoadGuildFishingInfo@ioFishingManager@@QAEXXZ	; ioFishingManager::LoadGuildFishingInfo
;	COMDAT xdata$x
xdata$x	SEGMENT
__unwindtable$?LoadGuildFishingInfo@ioFishingManager@@QAEXXZ DD 0ffffffffH
	DD	FLAT:__unwindfunclet$?LoadGuildFishingInfo@ioFishingManager@@QAEXXZ$0
__ehfuncinfo$?LoadGuildFishingInfo@ioFishingManager@@QAEXXZ DD 019930522H
	DD	01H
	DD	FLAT:__unwindtable$?LoadGuildFishingInfo@ioFishingManager@@QAEXXZ
	DD	2 DUP(00H)
	DD	2 DUP(00H)
	DD	00H
	DD	01H
; Function compile flags: /Ogsp
xdata$x	ENDS
;	COMDAT ?LoadGuildFishingInfo@ioFishingManager@@QAEXXZ
_TEXT	SEGMENT
_this$GSCopy$ = -956					; size = 4
_kLoader$ = -952					; size = 912
__t$518214 = -40					; size = 17
__$EHRec$ = -12						; size = 12
?LoadGuildFishingInfo@ioFishingManager@@QAEXXZ PROC	; ioFishingManager::LoadGuildFishingInfo, COMDAT
; _this$ = ecx

; 129  : {

  00000	68 b0 03 00 00	 push	 944			; 000003b0H
  00005	b8 00 00 00 00	 mov	 eax, __ehhandler$?LoadGuildFishingInfo@ioFishingManager@@QAEXXZ
  0000a	e8 00 00 00 00	 call	 __EH_prolog3_GS

; 130  : 	ioINILoader_e kLoader( "config/sp2_fishing_info.ini" );

  0000f	6a 06		 push	 6
  00011	89 8d 44 fc ff
	ff		 mov	 DWORD PTR _this$GSCopy$[ebp], ecx
  00017	c7 45 98 8e 83
	85 8c		 mov	 DWORD PTR _kLoader$[ebp+848], -1937407090 ; 8c85838eH
  0001e	c7 45 9c 84 8b
	c4 99		 mov	 DWORD PTR _kLoader$[ebp+852], -1715172476 ; 99c48b84H
  00025	c7 45 a0 9d de
	b4 8c		 mov	 DWORD PTR _kLoader$[ebp+856], -1934303587 ; 8cb4de9dH
  0002c	c7 45 a4 84 9f
	83 83		 mov	 DWORD PTR _kLoader$[ebp+860], -2088525948 ; 83839f84H
  00033	c7 45 a8 83 8b
	b4 83		 mov	 DWORD PTR _kLoader$[ebp+864], -2085319805 ; 83b48b83H
  0003a	c7 45 ac 83 8a
	84 c4		 mov	 DWORD PTR _kLoader$[ebp+868], -997946749 ; c4848a83H
  00041	8d 45 98	 lea	 eax, DWORD PTR _kLoader$[ebp+848]
  00044	c7 45 b0 84 82
	82 00		 mov	 DWORD PTR _kLoader$[ebp+872], 8553092 ; 00828284H
  0004b	59		 pop	 ecx
  0004c	be ed ec eb ea	 mov	 esi, -353637139		; eaebecedH
$LL110@LoadGuildF:
  00051	31 30		 xor	 DWORD PTR [eax], esi
  00053	83 c0 04	 add	 eax, 4
  00056	49		 dec	 ecx
  00057	75 f8		 jne	 SHORT $LL110@LoadGuildF
  00059	6a 18		 push	 24			; 00000018H
  0005b	5f		 pop	 edi
$LL107@LoadGuildF:
  0005c	8b c7		 mov	 eax, edi
  0005e	25 03 00 00 80	 and	 eax, -2147483645	; 80000003H
  00063	79 05		 jns	 SHORT $LN231@LoadGuildF
  00065	48		 dec	 eax
  00066	83 c8 fc	 or	 eax, -4			; fffffffcH
  00069	40		 inc	 eax
$LN231@LoadGuildF:
  0006a	b1 ed		 mov	 cl, -19			; ffffffedH
  0006c	2a c8		 sub	 cl, al
  0006e	30 4c 3d 98	 xor	 BYTE PTR _kLoader$[ebp+edi+848], cl
  00072	47		 inc	 edi
  00073	83 ff 1b	 cmp	 edi, 27			; 0000001bH
  00076	7c e4		 jl	 SHORT $LL107@LoadGuildF
  00078	6a 01		 push	 1
  0007a	8d 45 98	 lea	 eax, DWORD PTR _kLoader$[ebp+848]
  0007d	50		 push	 eax
  0007e	8d 8d 48 fc ff
	ff		 lea	 ecx, DWORD PTR _kLoader$[ebp]
  00084	ff 15 00 00 00
	00		 call	 DWORD PTR __imp_??0ioINILoader@@QAE@PBD_N@Z
  0008a	83 65 fc 00	 and	 DWORD PTR __$EHRec$[ebp+8], 0
  0008e	6a 04		 push	 4

; 131  : 	kLoader.SetTitle_e( "GuildFisheryItem" );

  00090	c7 45 d8 aa 99
	82 86		 mov	 DWORD PTR __t$518214[ebp], -2038261334 ; 868299aaH
  00097	c7 45 dc 89 aa
	82 99		 mov	 DWORD PTR __t$518214[ebp+4], -1719489911 ; 9982aa89H
  0009e	c7 45 e0 85 89
	99 93		 mov	 DWORD PTR __t$518214[ebp+8], -1818654331 ; 93998985H
  000a5	c7 45 e4 a4 98
	8e 87		 mov	 DWORD PTR __t$518214[ebp+12], -2020697948 ; 878e98a4H
  000ac	8d 45 d8	 lea	 eax, DWORD PTR __t$518214[ebp]
  000af	c6 45 e8 00	 mov	 BYTE PTR __t$518214[ebp+16], 0
  000b3	59		 pop	 ecx
$LL216@LoadGuildF:
  000b4	31 30		 xor	 DWORD PTR [eax], esi
  000b6	83 c0 04	 add	 eax, 4
  000b9	49		 dec	 ecx
  000ba	75 f8		 jne	 SHORT $LL216@LoadGuildF
  000bc	8d 45 d8	 lea	 eax, DWORD PTR __t$518214[ebp]
  000bf	50		 push	 eax
  000c0	8d 8d 48 fc ff
	ff		 lea	 ecx, DWORD PTR _kLoader$[ebp]
  000c6	ff 15 00 00 00
	00		 call	 DWORD PTR __imp_?SetTitle@ioINILoader@@QAEXPBD@Z

; 132  : 	LoadFishItemList( kLoader );

  000cc	8b 8d 44 fc ff
	ff		 mov	 ecx, DWORD PTR _this$GSCopy$[ebp]
  000d2	8d 85 48 fc ff
	ff		 lea	 eax, DWORD PTR _kLoader$[ebp]
  000d8	50		 push	 eax
  000d9	e8 00 00 00 00	 call	 ?LoadFishItemList@ioFishingManager@@QAEXAAVioINILoader@@@Z ; ioFishingManager::LoadFishItemList

; 133  : 	LoadFishGradeList( kLoader );

  000de	8b 8d 44 fc ff
	ff		 mov	 ecx, DWORD PTR _this$GSCopy$[ebp]
  000e4	8d 85 48 fc ff
	ff		 lea	 eax, DWORD PTR _kLoader$[ebp]
  000ea	50		 push	 eax
  000eb	e8 00 00 00 00	 call	 ?LoadFishGradeList@ioFishingManager@@QAEXAAVioINILoader@@@Z ; ioFishingManager::LoadFishGradeList

; 134  : }

  000f0	83 4d fc ff	 or	 DWORD PTR __$EHRec$[ebp+8], -1
  000f4	8d 8d 48 fc ff
	ff		 lea	 ecx, DWORD PTR _kLoader$[ebp]
  000fa	ff 15 00 00 00
	00		 call	 DWORD PTR __imp_??1ioINILoader@@QAE@XZ
  00100	e8 00 00 00 00	 call	 __EH_epilog3_GS
  00105	c3		 ret	 0
_TEXT	ENDS
;	COMDAT text$x
text$x	SEGMENT
__unwindfunclet$?LoadGuildFishingInfo@ioFishingManager@@QAEXXZ$0:
  00000	8d 8d 48 fc ff
	ff		 lea	 ecx, DWORD PTR _kLoader$[ebp]
  00006	e9 00 00 00 00	 jmp	 ??1ioINILoader_e@@QAE@XZ
__ehhandler$?LoadGuildFishingInfo@ioFishingManager@@QAEXXZ:
  0000b	8b 54 24 08	 mov	 edx, DWORD PTR [esp+8]
  0000f	8d 42 0c	 lea	 eax, DWORD PTR [edx+12]
  00012	8b 8a 40 fc ff
	ff		 mov	 ecx, DWORD PTR [edx-960]
  00018	33 c8		 xor	 ecx, eax
  0001a	e8 00 00 00 00	 call	 @__security_check_cookie@4
  0001f	8b 4a fc	 mov	 ecx, DWORD PTR [edx-4]
  00022	33 c8		 xor	 ecx, eax
  00024	e8 00 00 00 00	 call	 @__security_check_cookie@4
  00029	b8 00 00 00 00	 mov	 eax, OFFSET __ehfuncinfo$?LoadGuildFishingInfo@ioFishingManager@@QAEXXZ
  0002e	e9 00 00 00 00	 jmp	 ___CxxFrameHandler3
text$x	ENDS
?LoadGuildFishingInfo@ioFishingManager@@QAEXXZ ENDP	; ioFishingManager::LoadGuildFishingInfo
; Function compile flags: /Ogsp
;	COMDAT ??_GioFishingManager@@UAEPAXI@Z
_TEXT	SEGMENT
___flags$ = 8						; size = 4
??_GioFishingManager@@UAEPAXI@Z PROC			; ioFishingManager::`scalar deleting destructor', COMDAT
; _this$ = ecx
  00000	55		 push	 ebp
  00001	8b ec		 mov	 ebp, esp
  00003	56		 push	 esi
  00004	8b f1		 mov	 esi, ecx
  00006	e8 00 00 00 00	 call	 ??1ioFishingManager@@UAE@XZ ; ioFishingManager::~ioFishingManager
  0000b	f6 45 08 01	 test	 BYTE PTR ___flags$[ebp], 1
  0000f	74 07		 je	 SHORT $LN1@scalar@5
  00011	56		 push	 esi
  00012	e8 00 00 00 00	 call	 ??3@YAXPAX@Z		; operator delete
  00017	59		 pop	 ecx
$LN1@scalar@5:
  00018	8b c6		 mov	 eax, esi
  0001a	5e		 pop	 esi
  0001b	5d		 pop	 ebp
  0001c	c2 04 00	 ret	 4
??_GioFishingManager@@UAEPAXI@Z ENDP			; ioFishingManager::`scalar deleting destructor'
_TEXT	ENDS
PUBLIC	_this$GSCopy$
PUBLIC	?LoadFishingInfo@ioFishingManager@@QAEXXZ	; ioFishingManager::LoadFishingInfo
;	COMDAT xdata$x
xdata$x	SEGMENT
__unwindtable$?LoadFishingInfo@ioFishingManager@@QAEXXZ DD 0ffffffffH
	DD	FLAT:__unwindfunclet$?LoadFishingInfo@ioFishingManager@@QAEXXZ$0
__ehfuncinfo$?LoadFishingInfo@ioFishingManager@@QAEXXZ DD 019930522H
	DD	01H
	DD	FLAT:__unwindtable$?LoadFishingInfo@ioFishingManager@@QAEXXZ
	DD	2 DUP(00H)
	DD	2 DUP(00H)
	DD	00H
	DD	01H
; Function compile flags: /Ogsp
xdata$x	ENDS
;	COMDAT ?LoadFishingInfo@ioFishingManager@@QAEXXZ
_TEXT	SEGMENT
_this$GSCopy$ = -944					; size = 4
_kLoader$ = -940					; size = 912
__t$518601 = -28					; size = 7
__$EHRec$ = -12						; size = 12
?LoadFishingInfo@ioFishingManager@@QAEXXZ PROC		; ioFishingManager::LoadFishingInfo, COMDAT
; _this$ = ecx

; 23   : {

  00000	68 a4 03 00 00	 push	 932			; 000003a4H
  00005	b8 00 00 00 00	 mov	 eax, __ehhandler$?LoadFishingInfo@ioFishingManager@@QAEXXZ
  0000a	e8 00 00 00 00	 call	 __EH_prolog3_GS

; 24   : 	ClearAllInfo();
; 25   : 
; 26   : 	ioINILoader_e kLoader( "config/sp2_fishing_info.ini" );

  0000f	89 8d 50 fc ff
	ff		 mov	 DWORD PTR _this$GSCopy$[ebp], ecx
  00015	e8 00 00 00 00	 call	 ?ClearAllInfo@ioFishingManager@@IAEXXZ ; ioFishingManager::ClearAllInfo
  0001a	6a 06		 push	 6
  0001c	c7 45 a4 8e 83
	85 8c		 mov	 DWORD PTR _kLoader$[ebp+848], -1937407090 ; 8c85838eH
  00023	c7 45 a8 84 8b
	c4 99		 mov	 DWORD PTR _kLoader$[ebp+852], -1715172476 ; 99c48b84H
  0002a	c7 45 ac 9d de
	b4 8c		 mov	 DWORD PTR _kLoader$[ebp+856], -1934303587 ; 8cb4de9dH
  00031	c7 45 b0 84 9f
	83 83		 mov	 DWORD PTR _kLoader$[ebp+860], -2088525948 ; 83839f84H
  00038	c7 45 b4 83 8b
	b4 83		 mov	 DWORD PTR _kLoader$[ebp+864], -2085319805 ; 83b48b83H
  0003f	c7 45 b8 83 8a
	84 c4		 mov	 DWORD PTR _kLoader$[ebp+868], -997946749 ; c4848a83H
  00046	8d 45 a4	 lea	 eax, DWORD PTR _kLoader$[ebp+848]
  00049	c7 45 bc 84 82
	82 00		 mov	 DWORD PTR _kLoader$[ebp+872], 8553092 ; 00828284H
  00050	59		 pop	 ecx
  00051	be ed ec eb ea	 mov	 esi, -353637139		; eaebecedH
$LL110@LoadFishin:
  00056	31 30		 xor	 DWORD PTR [eax], esi
  00058	83 c0 04	 add	 eax, 4
  0005b	49		 dec	 ecx
  0005c	75 f8		 jne	 SHORT $LL110@LoadFishin
  0005e	6a 18		 push	 24			; 00000018H
  00060	5f		 pop	 edi
$LL107@LoadFishin:
  00061	8b c7		 mov	 eax, edi
  00063	25 03 00 00 80	 and	 eax, -2147483645	; 80000003H
  00068	79 05		 jns	 SHORT $LN231@LoadFishin
  0006a	48		 dec	 eax
  0006b	83 c8 fc	 or	 eax, -4			; fffffffcH
  0006e	40		 inc	 eax
$LN231@LoadFishin:
  0006f	b1 ed		 mov	 cl, -19			; ffffffedH
  00071	2a c8		 sub	 cl, al
  00073	30 4c 3d a4	 xor	 BYTE PTR _kLoader$[ebp+edi+848], cl
  00077	47		 inc	 edi
  00078	83 ff 1b	 cmp	 edi, 27			; 0000001bH
  0007b	7c e4		 jl	 SHORT $LL107@LoadFishin
  0007d	6a 01		 push	 1
  0007f	8d 45 a4	 lea	 eax, DWORD PTR _kLoader$[ebp+848]
  00082	50		 push	 eax
  00083	8d 8d 54 fc ff
	ff		 lea	 ecx, DWORD PTR _kLoader$[ebp]
  00089	ff 15 00 00 00
	00		 call	 DWORD PTR __imp_??0ioINILoader@@QAE@PBD_N@Z
  0008f	83 65 fc 00	 and	 DWORD PTR __$EHRec$[ebp+8], 0

; 27   : 
; 28   : 	kLoader.SetTitle_e( "common" );

  00093	6a 04		 push	 4
  00095	c7 45 e4 8e 83
	86 87		 mov	 DWORD PTR __t$518601[ebp], -2021227634 ; 8786838eH
  0009c	31 75 e4	 xor	 DWORD PTR __t$518601[ebp], esi
  0009f	66 c7 45 e8 82
	82		 mov	 WORD PTR __t$518601[ebp+4], 33410 ; 00008282H
  000a5	c6 45 ea 00	 mov	 BYTE PTR __t$518601[ebp+6], 0
  000a9	58		 pop	 eax
$LL213@LoadFishin:
  000aa	8b c8		 mov	 ecx, eax
  000ac	81 e1 03 00 00
	80		 and	 ecx, -2147483645	; 80000003H
  000b2	79 05		 jns	 SHORT $LN232@LoadFishin
  000b4	49		 dec	 ecx
  000b5	83 c9 fc	 or	 ecx, -4			; fffffffcH
  000b8	41		 inc	 ecx
$LN232@LoadFishin:
  000b9	b2 ed		 mov	 dl, -19			; ffffffedH
  000bb	2a d1		 sub	 dl, cl
  000bd	30 54 05 e4	 xor	 BYTE PTR __t$518601[ebp+eax], dl
  000c1	40		 inc	 eax
  000c2	83 f8 06	 cmp	 eax, 6
  000c5	7c e3		 jl	 SHORT $LL213@LoadFishin
  000c7	8d 45 e4	 lea	 eax, DWORD PTR __t$518601[ebp]
  000ca	50		 push	 eax
  000cb	8d 8d 54 fc ff
	ff		 lea	 ecx, DWORD PTR _kLoader$[ebp]
  000d1	ff 15 00 00 00
	00		 call	 DWORD PTR __imp_?SetTitle@ioINILoader@@QAEXPBD@Z

; 29   : 
; 30   : 	LoadFishItemList( kLoader );

  000d7	8b 8d 50 fc ff
	ff		 mov	 ecx, DWORD PTR _this$GSCopy$[ebp]
  000dd	8d 85 54 fc ff
	ff		 lea	 eax, DWORD PTR _kLoader$[ebp]
  000e3	50		 push	 eax
  000e4	e8 00 00 00 00	 call	 ?LoadFishItemList@ioFishingManager@@QAEXAAVioINILoader@@@Z ; ioFishingManager::LoadFishItemList

; 31   : 	LoadFishGradeList( kLoader );

  000e9	8b 8d 50 fc ff
	ff		 mov	 ecx, DWORD PTR _this$GSCopy$[ebp]
  000ef	8d 85 54 fc ff
	ff		 lea	 eax, DWORD PTR _kLoader$[ebp]
  000f5	50		 push	 eax
  000f6	e8 00 00 00 00	 call	 ?LoadFishGradeList@ioFishingManager@@QAEXAAVioINILoader@@@Z ; ioFishingManager::LoadFishGradeList

; 32   : 	LoadFishTypeList( kLoader );

  000fb	8b 8d 50 fc ff
	ff		 mov	 ecx, DWORD PTR _this$GSCopy$[ebp]
  00101	8d 85 54 fc ff
	ff		 lea	 eax, DWORD PTR _kLoader$[ebp]
  00107	50		 push	 eax
  00108	e8 00 00 00 00	 call	 ?LoadFishTypeList@ioFishingManager@@QAEXAAVioINILoader@@@Z ; ioFishingManager::LoadFishTypeList

; 33   : }

  0010d	83 4d fc ff	 or	 DWORD PTR __$EHRec$[ebp+8], -1
  00111	8d 8d 54 fc ff
	ff		 lea	 ecx, DWORD PTR _kLoader$[ebp]
  00117	ff 15 00 00 00
	00		 call	 DWORD PTR __imp_??1ioINILoader@@QAE@XZ
  0011d	e8 00 00 00 00	 call	 __EH_epilog3_GS
  00122	c3		 ret	 0
_TEXT	ENDS
;	COMDAT text$x
text$x	SEGMENT
__unwindfunclet$?LoadFishingInfo@ioFishingManager@@QAEXXZ$0:
  00000	8d 8d 54 fc ff
	ff		 lea	 ecx, DWORD PTR _kLoader$[ebp]
  00006	e9 00 00 00 00	 jmp	 ??1ioINILoader_e@@QAE@XZ
__ehhandler$?LoadFishingInfo@ioFishingManager@@QAEXXZ:
  0000b	8b 54 24 08	 mov	 edx, DWORD PTR [esp+8]
  0000f	8d 42 0c	 lea	 eax, DWORD PTR [edx+12]
  00012	8b 8a 4c fc ff
	ff		 mov	 ecx, DWORD PTR [edx-948]
  00018	33 c8		 xor	 ecx, eax
  0001a	e8 00 00 00 00	 call	 @__security_check_cookie@4
  0001f	8b 4a fc	 mov	 ecx, DWORD PTR [edx-4]
  00022	33 c8		 xor	 ecx, eax
  00024	e8 00 00 00 00	 call	 @__security_check_cookie@4
  00029	b8 00 00 00 00	 mov	 eax, OFFSET __ehfuncinfo$?LoadFishingInfo@ioFishingManager@@QAEXXZ
  0002e	e9 00 00 00 00	 jmp	 ___CxxFrameHandler3
text$x	ENDS
?LoadFishingInfo@ioFishingManager@@QAEXXZ ENDP		; ioFishingManager::LoadFishingInfo
; Function compile flags: /Ogsp
;	COMDAT ??__FszReturn@?1??GetFishingPresentItemName@ioFishingManager@@QAE?AVioHashString@@FHH@Z@YAXXZ
text$yd	SEGMENT
??__FszReturn@?1??GetFishingPresentItemName@ioFishingManager@@QAE?AVioHashString@@FHH@Z@YAXXZ PROC ; `ioFishingManager::GetFishingPresentItemName'::`2'::`dynamic atexit destructor for 'szReturn'', COMDAT
  00000	b9 00 00 00 00	 mov	 ecx, OFFSET ?szReturn@?1??GetFishingPresentItemName@ioFishingManager@@QAE?AVioHashString@@FHH@Z@4V3@A
  00005	ff 25 00 00 00
	00		 jmp	 DWORD PTR __imp_??1ioHashString@@QAE@XZ
??__FszReturn@?1??GetFishingPresentItemName@ioFishingManager@@QAE?AVioHashString@@FHH@Z@YAXXZ ENDP ; `ioFishingManager::GetFishingPresentItemName'::`2'::`dynamic atexit destructor for 'szReturn''
text$yd	ENDS
END
