; Listing generated by Microsoft (R) Optimizing Compiler Version 16.00.30319.01 

	TITLE	D:\Lost Saga For Developer\Youtube\Tutorial\Source\src\LSClient\ioFieldItemMgr.cpp
	.686P
	.XMM
	include listing.inc
	.model	flat

INCLUDELIB MSVCRT
INCLUDELIB OLDNAMES

PUBLIC	?ms_Singleton@?$Singleton@VioFieldItemMgr@@@@1PAVioFieldItemMgr@@A ; Singleton<ioFieldItemMgr>::ms_Singleton
;	COMDAT ?ms_Singleton@?$Singleton@VioFieldItemMgr@@@@1PAVioFieldItemMgr@@A
_BSS	SEGMENT
?ms_Singleton@?$Singleton@VioFieldItemMgr@@@@1PAVioFieldItemMgr@@A DD 01H DUP (?) ; Singleton<ioFieldItemMgr>::ms_Singleton
_BSS	ENDS
PUBLIC	??1ioINILoader_e@@QAE@XZ			; ioINILoader_e::~ioINILoader_e
EXTRN	__imp_??1ioINILoader@@QAE@XZ:PROC
; Function compile flags: /Ogsp
;	COMDAT ??1ioINILoader_e@@QAE@XZ
_TEXT	SEGMENT
??1ioINILoader_e@@QAE@XZ PROC				; ioINILoader_e::~ioINILoader_e, COMDAT
; _this$ = ecx
  00000	ff 25 00 00 00
	00		 jmp	 DWORD PTR __imp_??1ioINILoader@@QAE@XZ
??1ioINILoader_e@@QAE@XZ ENDP				; ioINILoader_e::~ioINILoader_e
_TEXT	ENDS
PUBLIC	??0?$Singleton@VioFieldItemMgr@@@@QAE@XZ	; Singleton<ioFieldItemMgr>::Singleton<ioFieldItemMgr>
; Function compile flags: /Ogsp
; File d:\lost saga for developer\youtube\tutorial\source\src\io3dengine\iosingleton.h
;	COMDAT ??0?$Singleton@VioFieldItemMgr@@@@QAE@XZ
_TEXT	SEGMENT
??0?$Singleton@VioFieldItemMgr@@@@QAE@XZ PROC		; Singleton<ioFieldItemMgr>::Singleton<ioFieldItemMgr>, COMDAT
; _this$ = ecx

; 27   : 	Singleton()

  00000	8b c1		 mov	 eax, ecx

; 28   : 	{
; 29   : 		assert( !ms_Singleton );
; 30   : 		int offset = (int)(T*)1 - (int)(Singleton <T>*)(T*)1;
; 31   : 		ms_Singleton = (T*)((int)this + offset);

  00002	8d 48 fc	 lea	 ecx, DWORD PTR [eax-4]
  00005	89 0d 00 00 00
	00		 mov	 DWORD PTR ?ms_Singleton@?$Singleton@VioFieldItemMgr@@@@1PAVioFieldItemMgr@@A, ecx ; Singleton<ioFieldItemMgr>::ms_Singleton

; 32   : 	}

  0000b	c3		 ret	 0
??0?$Singleton@VioFieldItemMgr@@@@QAE@XZ ENDP		; Singleton<ioFieldItemMgr>::Singleton<ioFieldItemMgr>
_TEXT	ENDS
PUBLIC	??1?$Singleton@VioFieldItemMgr@@@@QAE@XZ	; Singleton<ioFieldItemMgr>::~Singleton<ioFieldItemMgr>
; Function compile flags: /Ogsp
;	COMDAT ??1?$Singleton@VioFieldItemMgr@@@@QAE@XZ
_TEXT	SEGMENT
??1?$Singleton@VioFieldItemMgr@@@@QAE@XZ PROC		; Singleton<ioFieldItemMgr>::~Singleton<ioFieldItemMgr>, COMDAT
; _this$ = ecx

; 36   : 		assert( ms_Singleton );
; 37   : 		ms_Singleton = 0;

  00000	83 25 00 00 00
	00 00		 and	 DWORD PTR ?ms_Singleton@?$Singleton@VioFieldItemMgr@@@@1PAVioFieldItemMgr@@A, 0 ; Singleton<ioFieldItemMgr>::ms_Singleton

; 38   : 	}

  00007	c3		 ret	 0
??1?$Singleton@VioFieldItemMgr@@@@QAE@XZ ENDP		; Singleton<ioFieldItemMgr>::~Singleton<ioFieldItemMgr>
_TEXT	ENDS
PUBLIC	?GetSingleton@?$Singleton@VioFieldItemMgr@@@@SAAAVioFieldItemMgr@@XZ ; Singleton<ioFieldItemMgr>::GetSingleton
; Function compile flags: /Ogsp
;	COMDAT ?GetSingleton@?$Singleton@VioFieldItemMgr@@@@SAAAVioFieldItemMgr@@XZ
_TEXT	SEGMENT
?GetSingleton@?$Singleton@VioFieldItemMgr@@@@SAAAVioFieldItemMgr@@XZ PROC ; Singleton<ioFieldItemMgr>::GetSingleton, COMDAT

; 42   : 		assert( ms_Singleton );
; 43   : 		return (*ms_Singleton);

  00000	a1 00 00 00 00	 mov	 eax, DWORD PTR ?ms_Singleton@?$Singleton@VioFieldItemMgr@@@@1PAVioFieldItemMgr@@A ; Singleton<ioFieldItemMgr>::ms_Singleton

; 44   : 	}

  00005	c3		 ret	 0
?GetSingleton@?$Singleton@VioFieldItemMgr@@@@SAAAVioFieldItemMgr@@XZ ENDP ; Singleton<ioFieldItemMgr>::GetSingleton
_TEXT	ENDS
PUBLIC	?_DECSTR@@YAXPADH@Z				; _DECSTR
; Function compile flags: /Ogsp
; File d:\lost saga for developer\youtube\tutorial\source\src\lsclient\stringprotect.h
;	COMDAT ?_DECSTR@@YAXPADH@Z
_TEXT	SEGMENT
_s$ = 8							; size = 4
_l$ = 12						; size = 4
?_DECSTR@@YAXPADH@Z PROC				; _DECSTR, COMDAT

; 40   : __forceinline void _DECSTR(char* s, int l){int i=0,l4=(l-1)/4,*p=(int*)s;s[l-1]=0;for(;i<l4;++i)*(p++)^=0xEAEBECED;for(i=l4*4;i<l-1;++i)s[i]^=0xED-i%4;}

  00000	55		 push	 ebp
  00001	8b ec		 mov	 ebp, esp
  00003	8b 4d 0c	 mov	 ecx, DWORD PTR _l$[ebp]
  00006	56		 push	 esi
  00007	8b 75 08	 mov	 esi, DWORD PTR _s$[ebp]
  0000a	57		 push	 edi
  0000b	8d 79 ff	 lea	 edi, DWORD PTR [ecx-1]
  0000e	8b c7		 mov	 eax, edi
  00010	99		 cdq
  00011	83 e2 03	 and	 edx, 3
  00014	03 c2		 add	 eax, edx
  00016	c1 f8 02	 sar	 eax, 2
  00019	8b d6		 mov	 edx, esi
  0001b	c6 44 0e ff 00	 mov	 BYTE PTR [esi+ecx-1], 0
  00020	85 c0		 test	 eax, eax
  00022	7e 0e		 jle	 SHORT $LN4@DECSTR
  00024	8b c8		 mov	 ecx, eax
$LL6@DECSTR:
  00026	81 32 ed ec eb
	ea		 xor	 DWORD PTR [edx], -353637139 ; eaebecedH
  0002c	83 c2 04	 add	 edx, 4
  0002f	49		 dec	 ecx
  00030	75 f4		 jne	 SHORT $LL6@DECSTR
$LN4@DECSTR:
  00032	c1 e0 02	 shl	 eax, 2
  00035	eb 17		 jmp	 SHORT $LN14@DECSTR
$LL3@DECSTR:
  00037	8b c8		 mov	 ecx, eax
  00039	81 e1 03 00 00
	80		 and	 ecx, -2147483645	; 80000003H
  0003f	79 05		 jns	 SHORT $LN13@DECSTR
  00041	49		 dec	 ecx
  00042	83 c9 fc	 or	 ecx, -4			; fffffffcH
  00045	41		 inc	 ecx
$LN13@DECSTR:
  00046	b2 ed		 mov	 dl, -19			; ffffffedH
  00048	2a d1		 sub	 dl, cl
  0004a	30 14 30	 xor	 BYTE PTR [eax+esi], dl
  0004d	40		 inc	 eax
$LN14@DECSTR:
  0004e	3b c7		 cmp	 eax, edi
  00050	7c e5		 jl	 SHORT $LL3@DECSTR
  00052	5f		 pop	 edi
  00053	5e		 pop	 esi
  00054	5d		 pop	 ebp
  00055	c3		 ret	 0
?_DECSTR@@YAXPADH@Z ENDP				; _DECSTR
_TEXT	ENDS
PUBLIC	??_7?$CEncrypt@M@@6B@				; CEncrypt<float>::`vftable'
PUBLIC	??1?$CEncrypt@M@@UAE@XZ				; CEncrypt<float>::~CEncrypt<float>
PUBLIC	??_R4?$CEncrypt@M@@6B@				; CEncrypt<float>::`RTTI Complete Object Locator'
PUBLIC	??_R0?AV?$CEncrypt@M@@@8			; CEncrypt<float> `RTTI Type Descriptor'
PUBLIC	??_R3?$CEncrypt@M@@8				; CEncrypt<float>::`RTTI Class Hierarchy Descriptor'
PUBLIC	??_R2?$CEncrypt@M@@8				; CEncrypt<float>::`RTTI Base Class Array'
PUBLIC	??_R1A@?0A@EA@?$CEncrypt@M@@8			; CEncrypt<float>::`RTTI Base Class Descriptor at (0,-1,0,64)'
EXTRN	??1ccddaabb@@UAE@XZ:PROC			; ccddaabb::~ccddaabb
EXTRN	??_7type_info@@6B@:QWORD			; type_info::`vftable'
EXTRN	??_E?$CEncrypt@M@@UAEPAXI@Z:PROC		; CEncrypt<float>::`vector deleting destructor'
;	COMDAT ??_R1A@?0A@EA@?$CEncrypt@M@@8
; File d:\lost saga for developer\youtube\tutorial\source\src\lsclient\encryptvalue.h
rdata$r	SEGMENT
??_R1A@?0A@EA@?$CEncrypt@M@@8 DD FLAT:??_R0?AV?$CEncrypt@M@@@8 ; CEncrypt<float>::`RTTI Base Class Descriptor at (0,-1,0,64)'
	DD	00H
	DD	00H
	DD	0ffffffffH
	DD	00H
	DD	040H
	DD	FLAT:??_R3?$CEncrypt@M@@8
rdata$r	ENDS
;	COMDAT ??_R2?$CEncrypt@M@@8
rdata$r	SEGMENT
??_R2?$CEncrypt@M@@8 DD FLAT:??_R1A@?0A@EA@?$CEncrypt@M@@8 ; CEncrypt<float>::`RTTI Base Class Array'
rdata$r	ENDS
;	COMDAT ??_R3?$CEncrypt@M@@8
rdata$r	SEGMENT
??_R3?$CEncrypt@M@@8 DD 00H				; CEncrypt<float>::`RTTI Class Hierarchy Descriptor'
	DD	00H
	DD	01H
	DD	FLAT:??_R2?$CEncrypt@M@@8
rdata$r	ENDS
;	COMDAT ??_R0?AV?$CEncrypt@M@@@8
_DATA	SEGMENT
??_R0?AV?$CEncrypt@M@@@8 DD FLAT:??_7type_info@@6B@	; CEncrypt<float> `RTTI Type Descriptor'
	DD	00H
	DB	'.?AV?$CEncrypt@M@@', 00H
_DATA	ENDS
;	COMDAT ??_R4?$CEncrypt@M@@6B@
rdata$r	SEGMENT
??_R4?$CEncrypt@M@@6B@ DD 00H				; CEncrypt<float>::`RTTI Complete Object Locator'
	DD	00H
	DD	00H
	DD	FLAT:??_R0?AV?$CEncrypt@M@@@8
	DD	FLAT:??_R3?$CEncrypt@M@@8
rdata$r	ENDS
;	COMDAT ??_7?$CEncrypt@M@@6B@
CONST	SEGMENT
??_7?$CEncrypt@M@@6B@ DD FLAT:??_R4?$CEncrypt@M@@6B@	; CEncrypt<float>::`vftable'
	DD	FLAT:??_E?$CEncrypt@M@@UAEPAXI@Z
; Function compile flags: /Ogsp
CONST	ENDS
;	COMDAT ??1?$CEncrypt@M@@UAE@XZ
_TEXT	SEGMENT
??1?$CEncrypt@M@@UAE@XZ PROC				; CEncrypt<float>::~CEncrypt<float>, COMDAT
; _this$ = ecx

; 127  : 	{

  00000	c7 01 00 00 00
	00		 mov	 DWORD PTR [ecx], OFFSET ??_7?$CEncrypt@M@@6B@

; 128  : 	}

  00006	83 c1 0c	 add	 ecx, 12			; 0000000cH
  00009	e9 00 00 00 00	 jmp	 ??1ccddaabb@@UAE@XZ	; ccddaabb::~ccddaabb
??1?$CEncrypt@M@@UAE@XZ ENDP				; CEncrypt<float>::~CEncrypt<float>
_TEXT	ENDS
EXTRN	??3@YAXPAX@Z:PROC				; operator delete
; Function compile flags: /Ogsp
;	COMDAT ??_G?$CEncrypt@M@@UAEPAXI@Z
_TEXT	SEGMENT
___flags$ = 8						; size = 4
??_G?$CEncrypt@M@@UAEPAXI@Z PROC			; CEncrypt<float>::`scalar deleting destructor', COMDAT
; _this$ = ecx
  00000	55		 push	 ebp
  00001	8b ec		 mov	 ebp, esp
  00003	56		 push	 esi
  00004	8b f1		 mov	 esi, ecx
  00006	8d 4e 0c	 lea	 ecx, DWORD PTR [esi+12]
  00009	c7 06 00 00 00
	00		 mov	 DWORD PTR [esi], OFFSET ??_7?$CEncrypt@M@@6B@
  0000f	e8 00 00 00 00	 call	 ??1ccddaabb@@UAE@XZ	; ccddaabb::~ccddaabb
  00014	f6 45 08 01	 test	 BYTE PTR ___flags$[ebp], 1
  00018	74 07		 je	 SHORT $LN1@scalar
  0001a	56		 push	 esi
  0001b	e8 00 00 00 00	 call	 ??3@YAXPAX@Z		; operator delete
  00020	59		 pop	 ecx
$LN1@scalar:
  00021	8b c6		 mov	 eax, esi
  00023	5e		 pop	 esi
  00024	5d		 pop	 ebp
  00025	c2 04 00	 ret	 4
??_G?$CEncrypt@M@@UAEPAXI@Z ENDP			; CEncrypt<float>::`scalar deleting destructor'
_TEXT	ENDS
PUBLIC	?EncryptValueToPool@?$CEncrypt@M@@AAEXPBD@Z	; CEncrypt<float>::EncryptValueToPool
EXTRN	?EncryptByte@ccddaabb@@QAEXPBDPADH@Z:PROC	; ccddaabb::EncryptByte
; Function compile flags: /Ogsp
;	COMDAT ?EncryptValueToPool@?$CEncrypt@M@@AAEXPBD@Z
_TEXT	SEGMENT
_value$ = 8						; size = 4
?EncryptValueToPool@?$CEncrypt@M@@AAEXPBD@Z PROC	; CEncrypt<float>::EncryptValueToPool, COMDAT
; _this$ = ecx

; 67   : 	{

  00000	55		 push	 ebp
  00001	8b ec		 mov	 ebp, esp

; 68   : 		m_RC5.EncryptByte( value, m_MemPool, max(m_ValueSize, DEFAULT_ENCRYPT) );

  00003	0f b7 41 06	 movzx	 eax, WORD PTR [ecx+6]
  00007	83 f8 04	 cmp	 eax, 4
  0000a	77 03		 ja	 SHORT $LN4@EncryptVal
  0000c	6a 04		 push	 4
  0000e	58		 pop	 eax
$LN4@EncryptVal:
  0000f	50		 push	 eax
  00010	8d 41 1c	 lea	 eax, DWORD PTR [ecx+28]
  00013	50		 push	 eax
  00014	ff 75 08	 push	 DWORD PTR _value$[ebp]
  00017	83 c1 0c	 add	 ecx, 12			; 0000000cH
  0001a	e8 00 00 00 00	 call	 ?EncryptByte@ccddaabb@@QAEXPBDPADH@Z ; ccddaabb::EncryptByte

; 69   : 		
; 70   : 	}

  0001f	5d		 pop	 ebp
  00020	c2 04 00	 ret	 4
?EncryptValueToPool@?$CEncrypt@M@@AAEXPBD@Z ENDP	; CEncrypt<float>::EncryptValueToPool
_TEXT	ENDS
PUBLIC	?Init@?$CEncrypt@M@@AAEXXZ			; CEncrypt<float>::Init
EXTRN	?Setup@ccddaabb@@QAEXPBDHH@Z:PROC		; ccddaabb::Setup
EXTRN	__imp__rand:PROC
EXTRN	__imp__timeGetTime@0:PROC
EXTRN	__imp__GetCurrentProcessId@0:PROC
; Function compile flags: /Ogsp
;	COMDAT ?Init@?$CEncrypt@M@@AAEXXZ
_TEXT	SEGMENT
_pid$ = -8						; size = 4
_tick$ = -4						; size = 4
?Init@?$CEncrypt@M@@AAEXXZ PROC				; CEncrypt<float>::Init, COMDAT
; _this$ = ecx

; 73   : 	{

  00000	55		 push	 ebp
  00001	8b ec		 mov	 ebp, esp
  00003	51		 push	 ecx
  00004	51		 push	 ecx
  00005	53		 push	 ebx
  00006	56		 push	 esi
  00007	57		 push	 edi
  00008	8b f1		 mov	 esi, ecx

; 74   : 		DWORD pid = GetCurrentProcessId();

  0000a	ff 15 00 00 00
	00		 call	 DWORD PTR __imp__GetCurrentProcessId@0
  00010	89 45 f8	 mov	 DWORD PTR _pid$[ebp], eax

; 75   : 		DWORD tick = timeGetTime();

  00013	ff 15 00 00 00
	00		 call	 DWORD PTR __imp__timeGetTime@0

; 76   : 		m_ValueSize    = sizeof(type);
; 77   : 		m_MemPoolPos   = (unsigned short)( rand()+pid+tick )%(MAX_MEM_POOL-m_ValueSize);

  00019	8b 3d 00 00 00
	00		 mov	 edi, DWORD PTR __imp__rand
  0001f	89 45 fc	 mov	 DWORD PTR _tick$[ebp], eax
  00022	6a 04		 push	 4
  00024	58		 pop	 eax
  00025	66 89 46 06	 mov	 WORD PTR [esi+6], ax
  00029	ff d7		 call	 edi
  0002b	03 45 f8	 add	 eax, DWORD PTR _pid$[ebp]
  0002e	0f b7 4e 06	 movzx	 ecx, WORD PTR [esi+6]
  00032	03 45 fc	 add	 eax, DWORD PTR _tick$[ebp]
  00035	6a 0c		 push	 12			; 0000000cH
  00037	0f b7 c0	 movzx	 eax, ax
  0003a	5b		 pop	 ebx
  0003b	99		 cdq
  0003c	2b d9		 sub	 ebx, ecx
  0003e	f7 fb		 idiv	 ebx
  00040	66 89 56 04	 mov	 WORD PTR [esi+4], dx

; 78   : 		m_EncryptSeed  = (char)( rand()+pid+tick )%256;

  00044	ff d7		 call	 edi
  00046	02 45 f8	 add	 al, BYTE PTR _pid$[ebp]
  00049	02 45 fc	 add	 al, BYTE PTR _tick$[ebp]
  0004c	0f be c0	 movsx	 eax, al
  0004f	25 ff 00 00 80	 and	 eax, -2147483393	; 800000ffH
  00054	79 07		 jns	 SHORT $LN8@Init
  00056	48		 dec	 eax
  00057	0d 00 ff ff ff	 or	 eax, -256		; ffffff00H
  0005c	40		 inc	 eax
$LN8@Init:
  0005d	88 46 08	 mov	 BYTE PTR [esi+8], al

; 79   : 
; 80   : 		for (int i = 0; i < MAX_MEM_POOL ; i++)

  00060	33 db		 xor	 ebx, ebx
$LL3@Init:

; 81   : 			m_MemPool[i] = (char)( rand()+pid+tick )%256; // 더미

  00062	ff d7		 call	 edi
  00064	02 45 f8	 add	 al, BYTE PTR _pid$[ebp]
  00067	02 45 fc	 add	 al, BYTE PTR _tick$[ebp]
  0006a	0f be c0	 movsx	 eax, al
  0006d	25 ff 00 00 80	 and	 eax, -2147483393	; 800000ffH
  00072	79 07		 jns	 SHORT $LN9@Init
  00074	48		 dec	 eax
  00075	0d 00 ff ff ff	 or	 eax, -256		; ffffff00H
  0007a	40		 inc	 eax
$LN9@Init:
  0007b	88 44 1e 1c	 mov	 BYTE PTR [esi+ebx+28], al
  0007f	43		 inc	 ebx
  00080	83 fb 0c	 cmp	 ebx, 12			; 0000000cH
  00083	7c dd		 jl	 SHORT $LL3@Init

; 82   : 
; 83   : 		//UJ 130913, 최적화: szKey 사용안하도록 간략화
; 84   : 		//char szKey[ccddaabb::KEY_SIZE];//="";
; 85   : 		//for (int i = 0; i < ccddaabb::KEY_SIZE  ; i++)
; 86   : 		//	szKey[i] = (char)( rand()+pid+tick )%256; // 더미
; 87   : 		m_RC5.Setup( NULL, pid, tick );

  00085	ff 75 fc	 push	 DWORD PTR _tick$[ebp]
  00088	8d 4e 0c	 lea	 ecx, DWORD PTR [esi+12]
  0008b	ff 75 f8	 push	 DWORD PTR _pid$[ebp]
  0008e	6a 00		 push	 0
  00090	e8 00 00 00 00	 call	 ?Setup@ccddaabb@@QAEXPBDHH@Z ; ccddaabb::Setup
  00095	5f		 pop	 edi
  00096	5e		 pop	 esi
  00097	5b		 pop	 ebx

; 88   : 
; 89   : #ifdef _NOTUSE
; 90   : 		m_value        = 0;
; 91   : 		EncryptValueToPool((char*)&m_value);
; 92   : 		Debug();
; 93   : #endif
; 94   : 	}

  00098	c9		 leave
  00099	c3		 ret	 0
?Init@?$CEncrypt@M@@AAEXXZ ENDP				; CEncrypt<float>::Init
_TEXT	ENDS
PUBLIC	??_7ioFieldItemMgr@@6B@				; ioFieldItemMgr::`vftable'
PUBLIC	??1ioFieldItemMgr@@UAE@XZ			; ioFieldItemMgr::~ioFieldItemMgr
PUBLIC	??_R4ioFieldItemMgr@@6B@			; ioFieldItemMgr::`RTTI Complete Object Locator'
PUBLIC	??_R0?AVioFieldItemMgr@@@8			; ioFieldItemMgr `RTTI Type Descriptor'
PUBLIC	??_R3ioFieldItemMgr@@8				; ioFieldItemMgr::`RTTI Class Hierarchy Descriptor'
PUBLIC	??_R2ioFieldItemMgr@@8				; ioFieldItemMgr::`RTTI Base Class Array'
PUBLIC	??_R1A@?0A@EA@ioFieldItemMgr@@8			; ioFieldItemMgr::`RTTI Base Class Descriptor at (0,-1,0,64)'
PUBLIC	??_R13?0A@EA@?$Singleton@VioFieldItemMgr@@@@8	; Singleton<ioFieldItemMgr>::`RTTI Base Class Descriptor at (4,-1,0,64)'
PUBLIC	??_R0?AV?$Singleton@VioFieldItemMgr@@@@@8	; Singleton<ioFieldItemMgr> `RTTI Type Descriptor'
PUBLIC	??_R3?$Singleton@VioFieldItemMgr@@@@8		; Singleton<ioFieldItemMgr>::`RTTI Class Hierarchy Descriptor'
PUBLIC	??_R2?$Singleton@VioFieldItemMgr@@@@8		; Singleton<ioFieldItemMgr>::`RTTI Base Class Array'
PUBLIC	??_R1A@?0A@EA@?$Singleton@VioFieldItemMgr@@@@8	; Singleton<ioFieldItemMgr>::`RTTI Base Class Descriptor at (0,-1,0,64)'
EXTRN	__imp_??1ioHashString@@QAE@XZ:PROC
EXTRN	___CxxFrameHandler3:PROC
EXTRN	@__security_check_cookie@4:PROC
EXTRN	__EH_epilog3:PROC
EXTRN	__EH_prolog3:PROC
EXTRN	??_EioFieldItemMgr@@UAEPAXI@Z:PROC		; ioFieldItemMgr::`vector deleting destructor'
;	COMDAT ??_R1A@?0A@EA@?$Singleton@VioFieldItemMgr@@@@8
; File d:\lost saga for developer\youtube\tutorial\source\src\io3dengine\iosingleton.h
rdata$r	SEGMENT
??_R1A@?0A@EA@?$Singleton@VioFieldItemMgr@@@@8 DD FLAT:??_R0?AV?$Singleton@VioFieldItemMgr@@@@@8 ; Singleton<ioFieldItemMgr>::`RTTI Base Class Descriptor at (0,-1,0,64)'
	DD	00H
	DD	00H
	DD	0ffffffffH
	DD	00H
	DD	040H
	DD	FLAT:??_R3?$Singleton@VioFieldItemMgr@@@@8
rdata$r	ENDS
;	COMDAT ??_R2?$Singleton@VioFieldItemMgr@@@@8
rdata$r	SEGMENT
??_R2?$Singleton@VioFieldItemMgr@@@@8 DD FLAT:??_R1A@?0A@EA@?$Singleton@VioFieldItemMgr@@@@8 ; Singleton<ioFieldItemMgr>::`RTTI Base Class Array'
rdata$r	ENDS
;	COMDAT ??_R3?$Singleton@VioFieldItemMgr@@@@8
rdata$r	SEGMENT
??_R3?$Singleton@VioFieldItemMgr@@@@8 DD 00H		; Singleton<ioFieldItemMgr>::`RTTI Class Hierarchy Descriptor'
	DD	00H
	DD	01H
	DD	FLAT:??_R2?$Singleton@VioFieldItemMgr@@@@8
rdata$r	ENDS
;	COMDAT ??_R0?AV?$Singleton@VioFieldItemMgr@@@@@8
_DATA	SEGMENT
??_R0?AV?$Singleton@VioFieldItemMgr@@@@@8 DD FLAT:??_7type_info@@6B@ ; Singleton<ioFieldItemMgr> `RTTI Type Descriptor'
	DD	00H
	DB	'.?AV?$Singleton@VioFieldItemMgr@@@@', 00H
_DATA	ENDS
;	COMDAT ??_R13?0A@EA@?$Singleton@VioFieldItemMgr@@@@8
rdata$r	SEGMENT
??_R13?0A@EA@?$Singleton@VioFieldItemMgr@@@@8 DD FLAT:??_R0?AV?$Singleton@VioFieldItemMgr@@@@@8 ; Singleton<ioFieldItemMgr>::`RTTI Base Class Descriptor at (4,-1,0,64)'
	DD	00H
	DD	04H
	DD	0ffffffffH
	DD	00H
	DD	040H
	DD	FLAT:??_R3?$Singleton@VioFieldItemMgr@@@@8
rdata$r	ENDS
;	COMDAT ??_R1A@?0A@EA@ioFieldItemMgr@@8
rdata$r	SEGMENT
??_R1A@?0A@EA@ioFieldItemMgr@@8 DD FLAT:??_R0?AVioFieldItemMgr@@@8 ; ioFieldItemMgr::`RTTI Base Class Descriptor at (0,-1,0,64)'
	DD	01H
	DD	00H
	DD	0ffffffffH
	DD	00H
	DD	040H
	DD	FLAT:??_R3ioFieldItemMgr@@8
rdata$r	ENDS
;	COMDAT ??_R2ioFieldItemMgr@@8
rdata$r	SEGMENT
??_R2ioFieldItemMgr@@8 DD FLAT:??_R1A@?0A@EA@ioFieldItemMgr@@8 ; ioFieldItemMgr::`RTTI Base Class Array'
	DD	FLAT:??_R13?0A@EA@?$Singleton@VioFieldItemMgr@@@@8
rdata$r	ENDS
;	COMDAT ??_R3ioFieldItemMgr@@8
rdata$r	SEGMENT
??_R3ioFieldItemMgr@@8 DD 00H				; ioFieldItemMgr::`RTTI Class Hierarchy Descriptor'
	DD	00H
	DD	02H
	DD	FLAT:??_R2ioFieldItemMgr@@8
rdata$r	ENDS
;	COMDAT ??_R0?AVioFieldItemMgr@@@8
_DATA	SEGMENT
??_R0?AVioFieldItemMgr@@@8 DD FLAT:??_7type_info@@6B@	; ioFieldItemMgr `RTTI Type Descriptor'
	DD	00H
	DB	'.?AVioFieldItemMgr@@', 00H
_DATA	ENDS
;	COMDAT ??_R4ioFieldItemMgr@@6B@
rdata$r	SEGMENT
??_R4ioFieldItemMgr@@6B@ DD 00H				; ioFieldItemMgr::`RTTI Complete Object Locator'
	DD	00H
	DD	00H
	DD	FLAT:??_R0?AVioFieldItemMgr@@@8
	DD	FLAT:??_R3ioFieldItemMgr@@8
rdata$r	ENDS
;	COMDAT ??_7ioFieldItemMgr@@6B@
CONST	SEGMENT
??_7ioFieldItemMgr@@6B@ DD FLAT:??_R4ioFieldItemMgr@@6B@ ; ioFieldItemMgr::`vftable'
	DD	FLAT:??_EioFieldItemMgr@@UAEPAXI@Z
CONST	ENDS
;	COMDAT xdata$x
xdata$x	SEGMENT
__unwindtable$??1ioFieldItemMgr@@UAE@XZ DD 0ffffffffH
	DD	FLAT:__unwindfunclet$??1ioFieldItemMgr@@UAE@XZ$0
	DD	00H
	DD	FLAT:__unwindfunclet$??1ioFieldItemMgr@@UAE@XZ$1
	DD	01H
	DD	FLAT:__unwindfunclet$??1ioFieldItemMgr@@UAE@XZ$2
	DD	02H
	DD	FLAT:__unwindfunclet$??1ioFieldItemMgr@@UAE@XZ$3
__ehfuncinfo$??1ioFieldItemMgr@@UAE@XZ DD 019930522H
	DD	04H
	DD	FLAT:__unwindtable$??1ioFieldItemMgr@@UAE@XZ
	DD	2 DUP(00H)
	DD	2 DUP(00H)
	DD	00H
	DD	01H
; Function compile flags: /Ogsp
; File d:\lost saga for developer\youtube\tutorial\source\src\lsclient\iofielditemmgr.cpp
xdata$x	ENDS
;	COMDAT ??1ioFieldItemMgr@@UAE@XZ
_TEXT	SEGMENT
_this$ = -16						; size = 4
__$EHRec$ = -12						; size = 12
??1ioFieldItemMgr@@UAE@XZ PROC				; ioFieldItemMgr::~ioFieldItemMgr, COMDAT
; _this$ = ecx

; 13   : {

  00000	6a 04		 push	 4
  00002	b8 00 00 00 00	 mov	 eax, __ehhandler$??1ioFieldItemMgr@@UAE@XZ
  00007	e8 00 00 00 00	 call	 __EH_prolog3
  0000c	8b f1		 mov	 esi, ecx
  0000e	89 75 f0	 mov	 DWORD PTR _this$[ebp], esi
  00011	c7 06 00 00 00
	00		 mov	 DWORD PTR [esi], OFFSET ??_7ioFieldItemMgr@@6B@

; 14   : }

  00017	bf 00 00 00 00	 mov	 edi, OFFSET ??_7?$CEncrypt@M@@6B@
  0001c	8d 4e 60	 lea	 ecx, DWORD PTR [esi+96]
  0001f	c7 45 fc 03 00
	00 00		 mov	 DWORD PTR __$EHRec$[ebp+8], 3
  00026	89 7e 54	 mov	 DWORD PTR [esi+84], edi
  00029	e8 00 00 00 00	 call	 ??1ccddaabb@@UAE@XZ	; ccddaabb::~ccddaabb
  0002e	8d 4e 30	 lea	 ecx, DWORD PTR [esi+48]
  00031	c6 45 fc 02	 mov	 BYTE PTR __$EHRec$[ebp+8], 2
  00035	89 7e 24	 mov	 DWORD PTR [esi+36], edi
  00038	e8 00 00 00 00	 call	 ??1ccddaabb@@UAE@XZ	; ccddaabb::~ccddaabb
  0003d	8b 3d 00 00 00
	00		 mov	 edi, DWORD PTR __imp_??1ioHashString@@QAE@XZ
  00043	8d 4e 14	 lea	 ecx, DWORD PTR [esi+20]
  00046	c6 45 fc 01	 mov	 BYTE PTR __$EHRec$[ebp+8], 1
  0004a	ff d7		 call	 edi
  0004c	8d 4e 04	 lea	 ecx, DWORD PTR [esi+4]
  0004f	c6 45 fc 00	 mov	 BYTE PTR __$EHRec$[ebp+8], 0
  00053	ff d7		 call	 edi
  00055	83 25 00 00 00
	00 00		 and	 DWORD PTR ?ms_Singleton@?$Singleton@VioFieldItemMgr@@@@1PAVioFieldItemMgr@@A, 0 ; Singleton<ioFieldItemMgr>::ms_Singleton
  0005c	e8 00 00 00 00	 call	 __EH_epilog3
  00061	c3		 ret	 0
_TEXT	ENDS
;	COMDAT text$x
text$x	SEGMENT
__unwindfunclet$??1ioFieldItemMgr@@UAE@XZ$0:
  00000	8b 4d f0	 mov	 ecx, DWORD PTR _this$[ebp]
  00003	83 c1 04	 add	 ecx, 4
  00006	e9 00 00 00 00	 jmp	 ??1?$Singleton@VioFieldItemMgr@@@@QAE@XZ ; Singleton<ioFieldItemMgr>::~Singleton<ioFieldItemMgr>
__unwindfunclet$??1ioFieldItemMgr@@UAE@XZ$1:
  0000b	8b 4d f0	 mov	 ecx, DWORD PTR _this$[ebp]
  0000e	83 c1 04	 add	 ecx, 4
  00011	ff 25 00 00 00
	00		 jmp	 DWORD PTR __imp_??1ioHashString@@QAE@XZ
__unwindfunclet$??1ioFieldItemMgr@@UAE@XZ$2:
  00017	8b 4d f0	 mov	 ecx, DWORD PTR _this$[ebp]
  0001a	83 c1 14	 add	 ecx, 20			; 00000014H
  0001d	ff 25 00 00 00
	00		 jmp	 DWORD PTR __imp_??1ioHashString@@QAE@XZ
__unwindfunclet$??1ioFieldItemMgr@@UAE@XZ$3:
  00023	8b 4d f0	 mov	 ecx, DWORD PTR _this$[ebp]
  00026	83 c1 24	 add	 ecx, 36			; 00000024H
  00029	e9 00 00 00 00	 jmp	 ??1?$CEncrypt@M@@UAE@XZ	; CEncrypt<float>::~CEncrypt<float>
__ehhandler$??1ioFieldItemMgr@@UAE@XZ:
  0002e	8b 54 24 08	 mov	 edx, DWORD PTR [esp+8]
  00032	8d 42 0c	 lea	 eax, DWORD PTR [edx+12]
  00035	8b 4a ec	 mov	 ecx, DWORD PTR [edx-20]
  00038	33 c8		 xor	 ecx, eax
  0003a	e8 00 00 00 00	 call	 @__security_check_cookie@4
  0003f	b8 00 00 00 00	 mov	 eax, OFFSET __ehfuncinfo$??1ioFieldItemMgr@@UAE@XZ
  00044	e9 00 00 00 00	 jmp	 ___CxxFrameHandler3
text$x	ENDS
??1ioFieldItemMgr@@UAE@XZ ENDP				; ioFieldItemMgr::~ioFieldItemMgr
PUBLIC	?GetSingleton@ioFieldItemMgr@@SAAAV1@XZ		; ioFieldItemMgr::GetSingleton
; Function compile flags: /Ogsp
;	COMDAT ?GetSingleton@ioFieldItemMgr@@SAAAV1@XZ
_TEXT	SEGMENT
?GetSingleton@ioFieldItemMgr@@SAAAV1@XZ PROC		; ioFieldItemMgr::GetSingleton, COMDAT

; 18   : 	return Singleton< ioFieldItemMgr >::GetSingleton();

  00000	a1 00 00 00 00	 mov	 eax, DWORD PTR ?ms_Singleton@?$Singleton@VioFieldItemMgr@@@@1PAVioFieldItemMgr@@A ; Singleton<ioFieldItemMgr>::ms_Singleton

; 19   : }

  00005	c3		 ret	 0
?GetSingleton@ioFieldItemMgr@@SAAAV1@XZ ENDP		; ioFieldItemMgr::GetSingleton
_TEXT	ENDS
PUBLIC	__$ArrayPad$
PUBLIC	??$SetTitle_e@$06@ioINILoader@@QAEXAAY06$$CBD@Z	; ioINILoader::SetTitle_e<7>
EXTRN	__imp_?SetTitle@ioINILoader@@QAEXPBD@Z:PROC
EXTRN	___security_cookie:DWORD
; Function compile flags: /Ogsp
; File d:\lost saga for developer\youtube\tutorial\source\src\io3dengine\ioiniloader.h
;	COMDAT ??$SetTitle_e@$06@ioINILoader@@QAEXAAY06$$CBD@Z
_TEXT	SEGMENT
__t$ = -16						; size = 7
__$ArrayPad$ = -4					; size = 4
_t$ = 8							; size = 4
??$SetTitle_e@$06@ioINILoader@@QAEXAAY06$$CBD@Z PROC	; ioINILoader::SetTitle_e<7>, COMDAT
; _this$ = ecx

; 188  : 	{

  00000	55		 push	 ebp
  00001	8b ec		 mov	 ebp, esp
  00003	83 ec 10	 sub	 esp, 16			; 00000010H
  00006	a1 00 00 00 00	 mov	 eax, DWORD PTR ___security_cookie
  0000b	33 c5		 xor	 eax, ebp
  0000d	89 45 fc	 mov	 DWORD PTR __$ArrayPad$[ebp], eax
  00010	8b 45 08	 mov	 eax, DWORD PTR _t$[ebp]

; 189  : 		_ENCSTR(t, _t);

  00013	8a 10		 mov	 dl, BYTE PTR [eax]
  00015	56		 push	 esi
  00016	8b f1		 mov	 esi, ecx
  00018	84 d2		 test	 dl, dl
  0001a	0f 84 c0 00 00
	00		 je	 $LN96@SetTitle_e
  00020	80 f2 ed	 xor	 dl, -19			; ffffffedH
  00023	88 55 f0	 mov	 BYTE PTR __t$[ebp], dl
  00026	8a 50 01	 mov	 dl, BYTE PTR [eax+1]
  00029	84 d2		 test	 dl, dl
  0002b	0f 84 a9 00 00
	00		 je	 $LN95@SetTitle_e
  00031	80 f2 ec	 xor	 dl, -20			; ffffffecH
  00034	88 55 f1	 mov	 BYTE PTR __t$[ebp+1], dl
  00037	8a 50 02	 mov	 dl, BYTE PTR [eax+2]
  0003a	84 d2		 test	 dl, dl
  0003c	0f 84 92 00 00
	00		 je	 $LN94@SetTitle_e
  00042	80 f2 eb	 xor	 dl, -21			; ffffffebH
  00045	88 55 f2	 mov	 BYTE PTR __t$[ebp+2], dl
  00048	8a 50 03	 mov	 dl, BYTE PTR [eax+3]
  0004b	84 d2		 test	 dl, dl
  0004d	74 7f		 je	 SHORT $LN93@SetTitle_e
  0004f	80 f2 ea	 xor	 dl, -22			; ffffffeaH
  00052	88 55 f3	 mov	 BYTE PTR __t$[ebp+3], dl
  00055	8a 50 04	 mov	 dl, BYTE PTR [eax+4]
  00058	84 d2		 test	 dl, dl
  0005a	74 6c		 je	 SHORT $LN92@SetTitle_e
  0005c	80 f2 ed	 xor	 dl, -19			; ffffffedH
  0005f	88 55 f4	 mov	 BYTE PTR __t$[ebp+4], dl
  00062	8a 50 05	 mov	 dl, BYTE PTR [eax+5]
  00065	84 d2		 test	 dl, dl
  00067	74 59		 je	 SHORT $LN91@SetTitle_e
  00069	80 f2 ec	 xor	 dl, -20			; ffffffecH
  0006c	80 78 06 00	 cmp	 BYTE PTR [eax+6], 0
  00070	88 55 f5	 mov	 BYTE PTR __t$[ebp+5], dl
  00073	74 6f		 je	 SHORT $LN1@SetTitle_e
  00075	8a 50 07	 mov	 dl, BYTE PTR [eax+7]
  00078	84 d2		 test	 dl, dl
  0007a	74 40		 je	 SHORT $LN89@SetTitle_e
  0007c	80 f2 ea	 xor	 dl, -22			; ffffffeaH
  0007f	88 55 f7	 mov	 BYTE PTR __t$[ebp+7], dl
  00082	8a 50 08	 mov	 dl, BYTE PTR [eax+8]
  00085	84 d2		 test	 dl, dl
  00087	74 2d		 je	 SHORT $LN88@SetTitle_e
  00089	80 f2 ed	 xor	 dl, -19			; ffffffedH
  0008c	88 55 f8	 mov	 BYTE PTR __t$[ebp+8], dl
  0008f	8a 50 09	 mov	 dl, BYTE PTR [eax+9]
  00092	84 d2		 test	 dl, dl
  00094	74 1a		 je	 SHORT $LN87@SetTitle_e
  00096	8a 40 0a	 mov	 al, BYTE PTR [eax+10]
  00099	80 f2 ec	 xor	 dl, -20			; ffffffecH
  0009c	88 55 f9	 mov	 BYTE PTR __t$[ebp+9], dl
  0009f	84 c0		 test	 al, al
  000a1	74 07		 je	 SHORT $LN86@SetTitle_e
  000a3	34 eb		 xor	 al, -21			; ffffffebH
  000a5	88 45 fa	 mov	 BYTE PTR __t$[ebp+10], al
  000a8	eb 3a		 jmp	 SHORT $LN1@SetTitle_e
$LN86@SetTitle_e:
  000aa	c6 45 fa eb	 mov	 BYTE PTR __t$[ebp+10], -21 ; ffffffebH
  000ae	eb 34		 jmp	 SHORT $LN1@SetTitle_e
$LN87@SetTitle_e:
  000b0	c6 45 f9 ec	 mov	 BYTE PTR __t$[ebp+9], -20 ; ffffffecH
  000b4	eb 2e		 jmp	 SHORT $LN1@SetTitle_e
$LN88@SetTitle_e:
  000b6	c6 45 f8 ed	 mov	 BYTE PTR __t$[ebp+8], -19 ; ffffffedH
  000ba	eb 28		 jmp	 SHORT $LN1@SetTitle_e
$LN89@SetTitle_e:
  000bc	c6 45 f7 ea	 mov	 BYTE PTR __t$[ebp+7], -22 ; ffffffeaH
  000c0	eb 22		 jmp	 SHORT $LN1@SetTitle_e
$LN91@SetTitle_e:
  000c2	c6 45 f5 ec	 mov	 BYTE PTR __t$[ebp+5], -20 ; ffffffecH
  000c6	eb 1c		 jmp	 SHORT $LN1@SetTitle_e
$LN92@SetTitle_e:
  000c8	c6 45 f4 ed	 mov	 BYTE PTR __t$[ebp+4], -19 ; ffffffedH
  000cc	eb 16		 jmp	 SHORT $LN1@SetTitle_e
$LN93@SetTitle_e:
  000ce	c6 45 f3 ea	 mov	 BYTE PTR __t$[ebp+3], -22 ; ffffffeaH
  000d2	eb 10		 jmp	 SHORT $LN1@SetTitle_e
$LN94@SetTitle_e:
  000d4	c6 45 f2 eb	 mov	 BYTE PTR __t$[ebp+2], -21 ; ffffffebH
  000d8	eb 0a		 jmp	 SHORT $LN1@SetTitle_e
$LN95@SetTitle_e:
  000da	c6 45 f1 ec	 mov	 BYTE PTR __t$[ebp+1], -20 ; ffffffecH
  000de	eb 04		 jmp	 SHORT $LN1@SetTitle_e
$LN96@SetTitle_e:
  000e0	c6 45 f0 ed	 mov	 BYTE PTR __t$[ebp], -19	; ffffffedH
$LN1@SetTitle_e:
  000e4	81 75 f0 ed ec
	eb ea		 xor	 DWORD PTR __t$[ebp], -353637139 ; eaebecedH
  000eb	6a 04		 push	 4
  000ed	c6 45 f6 00	 mov	 BYTE PTR __t$[ebp+6], 0
  000f1	58		 pop	 eax
$LL101@SetTitle_e:
  000f2	8b c8		 mov	 ecx, eax
  000f4	81 e1 03 00 00
	80		 and	 ecx, -2147483645	; 80000003H
  000fa	79 05		 jns	 SHORT $LN111@SetTitle_e
  000fc	49		 dec	 ecx
  000fd	83 c9 fc	 or	 ecx, -4			; fffffffcH
  00100	41		 inc	 ecx
$LN111@SetTitle_e:
  00101	b2 ed		 mov	 dl, -19			; ffffffedH
  00103	2a d1		 sub	 dl, cl
  00105	30 54 05 f0	 xor	 BYTE PTR __t$[ebp+eax], dl
  00109	40		 inc	 eax
  0010a	83 f8 06	 cmp	 eax, 6
  0010d	7c e3		 jl	 SHORT $LL101@SetTitle_e

; 190  : 		SetTitle(_t);

  0010f	8d 45 f0	 lea	 eax, DWORD PTR __t$[ebp]
  00112	50		 push	 eax
  00113	8b ce		 mov	 ecx, esi
  00115	ff 15 00 00 00
	00		 call	 DWORD PTR __imp_?SetTitle@ioINILoader@@QAEXPBD@Z

; 191  : 	}

  0011b	8b 4d fc	 mov	 ecx, DWORD PTR __$ArrayPad$[ebp]
  0011e	33 cd		 xor	 ecx, ebp
  00120	5e		 pop	 esi
  00121	e8 00 00 00 00	 call	 @__security_check_cookie@4
  00126	c9		 leave
  00127	c2 04 00	 ret	 4
??$SetTitle_e@$06@ioINILoader@@QAEXAAY06$$CBD@Z ENDP	; ioINILoader::SetTitle_e<7>
_TEXT	ENDS
PUBLIC	_this$GSCopy$
PUBLIC	__$ArrayPad$
PUBLIC	??$LoadString_e@$0BE@@ioINILoader@@QAEXAAY0BE@$$CBDAAY00$$CBDPADH@Z ; ioINILoader::LoadString_e<20>
EXTRN	__imp_?LoadStringA@ioINILoader@@QAEXPBD0PADH@Z:PROC
; Function compile flags: /Ogsp
;	COMDAT ??$LoadString_e@$0BE@@ioINILoader@@QAEXAAY0BE@$$CBDAAY00$$CBDPADH@Z
_TEXT	SEGMENT
_this$GSCopy$ = -32					; size = 4
__k$ = -28						; size = 20
__$ArrayPad$ = -4					; size = 4
_k$ = 8							; size = 4
_d$ = 12						; size = 4
_b$ = 16						; size = 4
_i$ = 20						; size = 4
??$LoadString_e@$0BE@@ioINILoader@@QAEXAAY0BE@$$CBDAAY00$$CBDPADH@Z PROC ; ioINILoader::LoadString_e<20>, COMDAT
; _this$ = ecx

; 161  : 	{

  00000	55		 push	 ebp
  00001	8b ec		 mov	 ebp, esp
  00003	83 ec 20	 sub	 esp, 32			; 00000020H
  00006	a1 00 00 00 00	 mov	 eax, DWORD PTR ___security_cookie
  0000b	33 c5		 xor	 eax, ebp
  0000d	89 45 fc	 mov	 DWORD PTR __$ArrayPad$[ebp], eax
  00010	8b 45 08	 mov	 eax, DWORD PTR _k$[ebp]

; 162  : 		_ENCSTR(k, _k);

  00013	8a 10		 mov	 dl, BYTE PTR [eax]
  00015	53		 push	 ebx
  00016	56		 push	 esi
  00017	8b 75 0c	 mov	 esi, DWORD PTR _d$[ebp]
  0001a	57		 push	 edi
  0001b	8b 7d 10	 mov	 edi, DWORD PTR _b$[ebp]
  0001e	89 4d e0	 mov	 DWORD PTR _this$GSCopy$[ebp], ecx
  00021	84 d2		 test	 dl, dl
  00023	0f 84 dd 01 00
	00		 je	 $LN96@LoadString
  00029	80 f2 ed	 xor	 dl, -19			; ffffffedH
  0002c	88 55 e4	 mov	 BYTE PTR __k$[ebp], dl
  0002f	8a 50 01	 mov	 dl, BYTE PTR [eax+1]
  00032	84 d2		 test	 dl, dl
  00034	0f 84 c6 01 00
	00		 je	 $LN95@LoadString
  0003a	b3 ec		 mov	 bl, -20			; ffffffecH
  0003c	32 d3		 xor	 dl, bl
  0003e	88 55 e5	 mov	 BYTE PTR __k$[ebp+1], dl
  00041	8a 50 02	 mov	 dl, BYTE PTR [eax+2]
  00044	84 d2		 test	 dl, dl
  00046	0f 84 ae 01 00
	00		 je	 $LN94@LoadString
  0004c	b1 eb		 mov	 cl, -21			; ffffffebH
  0004e	32 d1		 xor	 dl, cl
  00050	88 55 e6	 mov	 BYTE PTR __k$[ebp+2], dl
  00053	8a 50 03	 mov	 dl, BYTE PTR [eax+3]
  00056	84 d2		 test	 dl, dl
  00058	0f 84 96 01 00
	00		 je	 $LN93@LoadString
  0005e	80 f2 ea	 xor	 dl, -22			; ffffffeaH
  00061	88 55 e7	 mov	 BYTE PTR __k$[ebp+3], dl
  00064	8a 50 04	 mov	 dl, BYTE PTR [eax+4]
  00067	84 d2		 test	 dl, dl
  00069	0f 84 7f 01 00
	00		 je	 $LN92@LoadString
  0006f	80 f2 ed	 xor	 dl, -19			; ffffffedH
  00072	88 55 e8	 mov	 BYTE PTR __k$[ebp+4], dl
  00075	8a 50 05	 mov	 dl, BYTE PTR [eax+5]
  00078	84 d2		 test	 dl, dl
  0007a	0f 84 69 01 00
	00		 je	 $LN91@LoadString
  00080	32 d3		 xor	 dl, bl
  00082	88 55 e9	 mov	 BYTE PTR __k$[ebp+5], dl
  00085	8a 50 06	 mov	 dl, BYTE PTR [eax+6]
  00088	84 d2		 test	 dl, dl
  0008a	0f 84 54 01 00
	00		 je	 $LN90@LoadString
  00090	32 d1		 xor	 dl, cl
  00092	88 55 ea	 mov	 BYTE PTR __k$[ebp+6], dl
  00095	8a 50 07	 mov	 dl, BYTE PTR [eax+7]
  00098	84 d2		 test	 dl, dl
  0009a	0f 84 3e 01 00
	00		 je	 $LN89@LoadString
  000a0	80 f2 ea	 xor	 dl, -22			; ffffffeaH
  000a3	88 55 eb	 mov	 BYTE PTR __k$[ebp+7], dl
  000a6	8a 50 08	 mov	 dl, BYTE PTR [eax+8]
  000a9	84 d2		 test	 dl, dl
  000ab	0f 84 27 01 00
	00		 je	 $LN88@LoadString
  000b1	80 f2 ed	 xor	 dl, -19			; ffffffedH
  000b4	88 55 ec	 mov	 BYTE PTR __k$[ebp+8], dl
  000b7	8a 50 09	 mov	 dl, BYTE PTR [eax+9]
  000ba	84 d2		 test	 dl, dl
  000bc	0f 84 11 01 00
	00		 je	 $LN87@LoadString
  000c2	32 d3		 xor	 dl, bl
  000c4	88 55 ed	 mov	 BYTE PTR __k$[ebp+9], dl
  000c7	8a 50 0a	 mov	 dl, BYTE PTR [eax+10]
  000ca	84 d2		 test	 dl, dl
  000cc	0f 84 fc 00 00
	00		 je	 $LN86@LoadString
  000d2	32 d1		 xor	 dl, cl
  000d4	88 55 ee	 mov	 BYTE PTR __k$[ebp+10], dl
  000d7	8a 50 0b	 mov	 dl, BYTE PTR [eax+11]
  000da	84 d2		 test	 dl, dl
  000dc	0f 84 e6 00 00
	00		 je	 $LN85@LoadString
  000e2	80 f2 ea	 xor	 dl, -22			; ffffffeaH
  000e5	88 55 ef	 mov	 BYTE PTR __k$[ebp+11], dl
  000e8	8a 50 0c	 mov	 dl, BYTE PTR [eax+12]
  000eb	84 d2		 test	 dl, dl
  000ed	0f 84 cf 00 00
	00		 je	 $LN84@LoadString
  000f3	80 f2 ed	 xor	 dl, -19			; ffffffedH
  000f6	88 55 f0	 mov	 BYTE PTR __k$[ebp+12], dl
  000f9	8a 50 0d	 mov	 dl, BYTE PTR [eax+13]
  000fc	84 d2		 test	 dl, dl
  000fe	0f 84 b9 00 00
	00		 je	 $LN83@LoadString
  00104	32 d3		 xor	 dl, bl
  00106	88 55 f1	 mov	 BYTE PTR __k$[ebp+13], dl
  00109	8a 50 0e	 mov	 dl, BYTE PTR [eax+14]
  0010c	84 d2		 test	 dl, dl
  0010e	0f 84 a4 00 00
	00		 je	 $LN82@LoadString
  00114	32 d1		 xor	 dl, cl
  00116	88 55 f2	 mov	 BYTE PTR __k$[ebp+14], dl
  00119	8a 50 0f	 mov	 dl, BYTE PTR [eax+15]
  0011c	84 d2		 test	 dl, dl
  0011e	0f 84 8e 00 00
	00		 je	 $LN81@LoadString
  00124	80 f2 ea	 xor	 dl, -22			; ffffffeaH
  00127	88 55 f3	 mov	 BYTE PTR __k$[ebp+15], dl
  0012a	8a 50 10	 mov	 dl, BYTE PTR [eax+16]
  0012d	84 d2		 test	 dl, dl
  0012f	74 7b		 je	 SHORT $LN80@LoadString
  00131	80 f2 ed	 xor	 dl, -19			; ffffffedH
  00134	88 55 f4	 mov	 BYTE PTR __k$[ebp+16], dl
  00137	8a 50 11	 mov	 dl, BYTE PTR [eax+17]
  0013a	84 d2		 test	 dl, dl
  0013c	74 69		 je	 SHORT $LN79@LoadString
  0013e	32 d3		 xor	 dl, bl
  00140	88 55 f5	 mov	 BYTE PTR __k$[ebp+17], dl
  00143	8a 50 12	 mov	 dl, BYTE PTR [eax+18]
  00146	84 d2		 test	 dl, dl
  00148	74 58		 je	 SHORT $LN78@LoadString
  0014a	32 d1		 xor	 dl, cl
  0014c	80 78 13 00	 cmp	 BYTE PTR [eax+19], 0
  00150	88 55 f6	 mov	 BYTE PTR __k$[ebp+18], dl
  00153	0f 84 b1 00 00
	00		 je	 $LN111@LoadString
  00159	8a 50 14	 mov	 dl, BYTE PTR [eax+20]
  0015c	84 d2		 test	 dl, dl
  0015e	74 3c		 je	 SHORT $LN76@LoadString
  00160	80 f2 ed	 xor	 dl, -19			; ffffffedH
  00163	88 55 f8	 mov	 BYTE PTR __k$[ebp+20], dl
  00166	8a 50 15	 mov	 dl, BYTE PTR [eax+21]
  00169	84 d2		 test	 dl, dl
  0016b	74 2a		 je	 SHORT $LN75@LoadString
  0016d	32 d3		 xor	 dl, bl
  0016f	88 55 f9	 mov	 BYTE PTR __k$[ebp+21], dl
  00172	8a 50 16	 mov	 dl, BYTE PTR [eax+22]
  00175	84 d2		 test	 dl, dl
  00177	74 19		 je	 SHORT $LN74@LoadString
  00179	8a 40 17	 mov	 al, BYTE PTR [eax+23]
  0017c	32 d1		 xor	 dl, cl
  0017e	88 55 fa	 mov	 BYTE PTR __k$[ebp+22], dl
  00181	84 c0		 test	 al, al
  00183	74 07		 je	 SHORT $LN73@LoadString
  00185	34 ea		 xor	 al, -22			; ffffffeaH
  00187	88 45 fb	 mov	 BYTE PTR __k$[ebp+23], al
  0018a	eb 7e		 jmp	 SHORT $LN111@LoadString
$LN73@LoadString:
  0018c	c6 45 fb ea	 mov	 BYTE PTR __k$[ebp+23], -22 ; ffffffeaH
  00190	eb 78		 jmp	 SHORT $LN111@LoadString
$LN74@LoadString:
  00192	88 4d fa	 mov	 BYTE PTR __k$[ebp+22], cl
  00195	eb 73		 jmp	 SHORT $LN111@LoadString
$LN75@LoadString:
  00197	88 5d f9	 mov	 BYTE PTR __k$[ebp+21], bl
  0019a	eb 6e		 jmp	 SHORT $LN111@LoadString
$LN76@LoadString:
  0019c	c6 45 f8 ed	 mov	 BYTE PTR __k$[ebp+20], -19 ; ffffffedH
  001a0	eb 68		 jmp	 SHORT $LN111@LoadString
$LN78@LoadString:
  001a2	88 4d f6	 mov	 BYTE PTR __k$[ebp+18], cl
  001a5	eb 63		 jmp	 SHORT $LN111@LoadString
$LN79@LoadString:
  001a7	88 5d f5	 mov	 BYTE PTR __k$[ebp+17], bl
  001aa	eb 5e		 jmp	 SHORT $LN111@LoadString
$LN80@LoadString:
  001ac	c6 45 f4 ed	 mov	 BYTE PTR __k$[ebp+16], -19 ; ffffffedH
  001b0	eb 58		 jmp	 SHORT $LN111@LoadString
$LN81@LoadString:
  001b2	c6 45 f3 ea	 mov	 BYTE PTR __k$[ebp+15], -22 ; ffffffeaH
  001b6	eb 52		 jmp	 SHORT $LN111@LoadString
$LN82@LoadString:
  001b8	88 4d f2	 mov	 BYTE PTR __k$[ebp+14], cl
  001bb	eb 4d		 jmp	 SHORT $LN111@LoadString
$LN83@LoadString:
  001bd	88 5d f1	 mov	 BYTE PTR __k$[ebp+13], bl
  001c0	eb 48		 jmp	 SHORT $LN111@LoadString
$LN84@LoadString:
  001c2	c6 45 f0 ed	 mov	 BYTE PTR __k$[ebp+12], -19 ; ffffffedH
  001c6	eb 42		 jmp	 SHORT $LN111@LoadString
$LN85@LoadString:
  001c8	c6 45 ef ea	 mov	 BYTE PTR __k$[ebp+11], -22 ; ffffffeaH
  001cc	eb 3c		 jmp	 SHORT $LN111@LoadString
$LN86@LoadString:
  001ce	88 4d ee	 mov	 BYTE PTR __k$[ebp+10], cl
  001d1	eb 37		 jmp	 SHORT $LN111@LoadString
$LN87@LoadString:
  001d3	88 5d ed	 mov	 BYTE PTR __k$[ebp+9], bl
  001d6	eb 32		 jmp	 SHORT $LN111@LoadString
$LN88@LoadString:
  001d8	c6 45 ec ed	 mov	 BYTE PTR __k$[ebp+8], -19 ; ffffffedH
  001dc	eb 2c		 jmp	 SHORT $LN111@LoadString
$LN89@LoadString:
  001de	c6 45 eb ea	 mov	 BYTE PTR __k$[ebp+7], -22 ; ffffffeaH
  001e2	eb 26		 jmp	 SHORT $LN111@LoadString
$LN90@LoadString:
  001e4	88 4d ea	 mov	 BYTE PTR __k$[ebp+6], cl
  001e7	eb 21		 jmp	 SHORT $LN111@LoadString
$LN91@LoadString:
  001e9	88 5d e9	 mov	 BYTE PTR __k$[ebp+5], bl
  001ec	eb 1c		 jmp	 SHORT $LN111@LoadString
$LN92@LoadString:
  001ee	c6 45 e8 ed	 mov	 BYTE PTR __k$[ebp+4], -19 ; ffffffedH
  001f2	eb 16		 jmp	 SHORT $LN111@LoadString
$LN93@LoadString:
  001f4	c6 45 e7 ea	 mov	 BYTE PTR __k$[ebp+3], -22 ; ffffffeaH
  001f8	eb 10		 jmp	 SHORT $LN111@LoadString
$LN94@LoadString:
  001fa	c6 45 e6 eb	 mov	 BYTE PTR __k$[ebp+2], -21 ; ffffffebH
  001fe	eb 0a		 jmp	 SHORT $LN111@LoadString
$LN95@LoadString:
  00200	c6 45 e5 ec	 mov	 BYTE PTR __k$[ebp+1], -20 ; ffffffecH
  00204	eb 04		 jmp	 SHORT $LN111@LoadString
$LN96@LoadString:
  00206	c6 45 e4 ed	 mov	 BYTE PTR __k$[ebp], -19	; ffffffedH
$LN111@LoadString:
  0020a	6a 04		 push	 4
  0020c	8d 45 e4	 lea	 eax, DWORD PTR __k$[ebp]
  0020f	c6 45 f7 00	 mov	 BYTE PTR __k$[ebp+19], 0
  00213	5a		 pop	 edx
$LL104@LoadString:
  00214	81 30 ed ec eb
	ea		 xor	 DWORD PTR [eax], -353637139 ; eaebecedH
  0021a	83 c0 04	 add	 eax, 4
  0021d	4a		 dec	 edx
  0021e	75 f4		 jne	 SHORT $LL104@LoadString
  00220	6a 10		 push	 16			; 00000010H
  00222	58		 pop	 eax
$LL101@LoadString:
  00223	8b c8		 mov	 ecx, eax
  00225	81 e1 03 00 00
	80		 and	 ecx, -2147483645	; 80000003H
  0022b	79 05		 jns	 SHORT $LN112@LoadString
  0022d	49		 dec	 ecx
  0022e	83 c9 fc	 or	 ecx, -4			; fffffffcH
  00231	41		 inc	 ecx
$LN112@LoadString:
  00232	b2 ed		 mov	 dl, -19			; ffffffedH
  00234	2a d1		 sub	 dl, cl
  00236	30 54 05 e4	 xor	 BYTE PTR __k$[ebp+eax], dl
  0023a	40		 inc	 eax
  0023b	83 f8 13	 cmp	 eax, 19			; 00000013H
  0023e	7c e3		 jl	 SHORT $LL101@LoadString

; 163  : 		LoadString(_k, d, b, i);

  00240	ff 75 14	 push	 DWORD PTR _i$[ebp]
  00243	8b 4d e0	 mov	 ecx, DWORD PTR _this$GSCopy$[ebp]
  00246	57		 push	 edi
  00247	56		 push	 esi
  00248	8d 45 e4	 lea	 eax, DWORD PTR __k$[ebp]
  0024b	50		 push	 eax
  0024c	ff 15 00 00 00
	00		 call	 DWORD PTR __imp_?LoadStringA@ioINILoader@@QAEXPBD0PADH@Z

; 164  : 	}

  00252	8b 4d fc	 mov	 ecx, DWORD PTR __$ArrayPad$[ebp]
  00255	5f		 pop	 edi
  00256	5e		 pop	 esi
  00257	33 cd		 xor	 ecx, ebp
  00259	5b		 pop	 ebx
  0025a	e8 00 00 00 00	 call	 @__security_check_cookie@4
  0025f	c9		 leave
  00260	c2 10 00	 ret	 16			; 00000010H
??$LoadString_e@$0BE@@ioINILoader@@QAEXAAY0BE@$$CBDAAY00$$CBDPADH@Z ENDP ; ioINILoader::LoadString_e<20>
_TEXT	ENDS
PUBLIC	_this$GSCopy$
PUBLIC	__$ArrayPad$
PUBLIC	??$LoadString_e@$0BJ@@ioINILoader@@QAEXAAY0BJ@$$CBDAAY00$$CBDPADH@Z ; ioINILoader::LoadString_e<25>
; Function compile flags: /Ogsp
;	COMDAT ??$LoadString_e@$0BJ@@ioINILoader@@QAEXAAY0BJ@$$CBDAAY00$$CBDPADH@Z
_TEXT	SEGMENT
_this$GSCopy$ = -40					; size = 4
__k$ = -36						; size = 25
__$ArrayPad$ = -4					; size = 4
_k$ = 8							; size = 4
_d$ = 12						; size = 4
_b$ = 16						; size = 4
_i$ = 20						; size = 4
??$LoadString_e@$0BJ@@ioINILoader@@QAEXAAY0BJ@$$CBDAAY00$$CBDPADH@Z PROC ; ioINILoader::LoadString_e<25>, COMDAT
; _this$ = ecx

; 161  : 	{

  00000	55		 push	 ebp
  00001	8b ec		 mov	 ebp, esp
  00003	83 ec 28	 sub	 esp, 40			; 00000028H
  00006	a1 00 00 00 00	 mov	 eax, DWORD PTR ___security_cookie
  0000b	33 c5		 xor	 eax, ebp
  0000d	89 45 fc	 mov	 DWORD PTR __$ArrayPad$[ebp], eax
  00010	8b 45 08	 mov	 eax, DWORD PTR _k$[ebp]

; 162  : 		_ENCSTR(k, _k);

  00013	8a 10		 mov	 dl, BYTE PTR [eax]
  00015	53		 push	 ebx
  00016	56		 push	 esi
  00017	8b 75 0c	 mov	 esi, DWORD PTR _d$[ebp]
  0001a	57		 push	 edi
  0001b	8b 7d 10	 mov	 edi, DWORD PTR _b$[ebp]
  0001e	89 4d d8	 mov	 DWORD PTR _this$GSCopy$[ebp], ecx
  00021	84 d2		 test	 dl, dl
  00023	0f 84 5f 02 00
	00		 je	 $LN96@LoadString@2
  00029	80 f2 ed	 xor	 dl, -19			; ffffffedH
  0002c	88 55 dc	 mov	 BYTE PTR __k$[ebp], dl
  0002f	8a 50 01	 mov	 dl, BYTE PTR [eax+1]
  00032	84 d2		 test	 dl, dl
  00034	0f 84 48 02 00
	00		 je	 $LN95@LoadString@2
  0003a	b1 ec		 mov	 cl, -20			; ffffffecH
  0003c	32 d1		 xor	 dl, cl
  0003e	88 55 dd	 mov	 BYTE PTR __k$[ebp+1], dl
  00041	8a 50 02	 mov	 dl, BYTE PTR [eax+2]
  00044	84 d2		 test	 dl, dl
  00046	0f 84 30 02 00
	00		 je	 $LN94@LoadString@2
  0004c	b3 eb		 mov	 bl, -21			; ffffffebH
  0004e	32 d3		 xor	 dl, bl
  00050	88 55 de	 mov	 BYTE PTR __k$[ebp+2], dl
  00053	8a 50 03	 mov	 dl, BYTE PTR [eax+3]
  00056	84 d2		 test	 dl, dl
  00058	0f 84 18 02 00
	00		 je	 $LN93@LoadString@2
  0005e	80 f2 ea	 xor	 dl, -22			; ffffffeaH
  00061	88 55 df	 mov	 BYTE PTR __k$[ebp+3], dl
  00064	8a 50 04	 mov	 dl, BYTE PTR [eax+4]
  00067	84 d2		 test	 dl, dl
  00069	0f 84 01 02 00
	00		 je	 $LN92@LoadString@2
  0006f	80 f2 ed	 xor	 dl, -19			; ffffffedH
  00072	88 55 e0	 mov	 BYTE PTR __k$[ebp+4], dl
  00075	8a 50 05	 mov	 dl, BYTE PTR [eax+5]
  00078	84 d2		 test	 dl, dl
  0007a	0f 84 eb 01 00
	00		 je	 $LN91@LoadString@2
  00080	32 d1		 xor	 dl, cl
  00082	88 55 e1	 mov	 BYTE PTR __k$[ebp+5], dl
  00085	8a 50 06	 mov	 dl, BYTE PTR [eax+6]
  00088	84 d2		 test	 dl, dl
  0008a	0f 84 d6 01 00
	00		 je	 $LN90@LoadString@2
  00090	32 d3		 xor	 dl, bl
  00092	88 55 e2	 mov	 BYTE PTR __k$[ebp+6], dl
  00095	8a 50 07	 mov	 dl, BYTE PTR [eax+7]
  00098	84 d2		 test	 dl, dl
  0009a	0f 84 c0 01 00
	00		 je	 $LN89@LoadString@2
  000a0	80 f2 ea	 xor	 dl, -22			; ffffffeaH
  000a3	88 55 e3	 mov	 BYTE PTR __k$[ebp+7], dl
  000a6	8a 50 08	 mov	 dl, BYTE PTR [eax+8]
  000a9	84 d2		 test	 dl, dl
  000ab	0f 84 a9 01 00
	00		 je	 $LN88@LoadString@2
  000b1	80 f2 ed	 xor	 dl, -19			; ffffffedH
  000b4	88 55 e4	 mov	 BYTE PTR __k$[ebp+8], dl
  000b7	8a 50 09	 mov	 dl, BYTE PTR [eax+9]
  000ba	84 d2		 test	 dl, dl
  000bc	0f 84 93 01 00
	00		 je	 $LN87@LoadString@2
  000c2	32 d1		 xor	 dl, cl
  000c4	88 55 e5	 mov	 BYTE PTR __k$[ebp+9], dl
  000c7	8a 50 0a	 mov	 dl, BYTE PTR [eax+10]
  000ca	84 d2		 test	 dl, dl
  000cc	0f 84 7e 01 00
	00		 je	 $LN86@LoadString@2
  000d2	32 d3		 xor	 dl, bl
  000d4	88 55 e6	 mov	 BYTE PTR __k$[ebp+10], dl
  000d7	8a 50 0b	 mov	 dl, BYTE PTR [eax+11]
  000da	84 d2		 test	 dl, dl
  000dc	0f 84 68 01 00
	00		 je	 $LN85@LoadString@2
  000e2	80 f2 ea	 xor	 dl, -22			; ffffffeaH
  000e5	88 55 e7	 mov	 BYTE PTR __k$[ebp+11], dl
  000e8	8a 50 0c	 mov	 dl, BYTE PTR [eax+12]
  000eb	84 d2		 test	 dl, dl
  000ed	0f 84 51 01 00
	00		 je	 $LN84@LoadString@2
  000f3	80 f2 ed	 xor	 dl, -19			; ffffffedH
  000f6	88 55 e8	 mov	 BYTE PTR __k$[ebp+12], dl
  000f9	8a 50 0d	 mov	 dl, BYTE PTR [eax+13]
  000fc	84 d2		 test	 dl, dl
  000fe	0f 84 3b 01 00
	00		 je	 $LN83@LoadString@2
  00104	32 d1		 xor	 dl, cl
  00106	88 55 e9	 mov	 BYTE PTR __k$[ebp+13], dl
  00109	8a 50 0e	 mov	 dl, BYTE PTR [eax+14]
  0010c	84 d2		 test	 dl, dl
  0010e	0f 84 26 01 00
	00		 je	 $LN82@LoadString@2
  00114	32 d3		 xor	 dl, bl
  00116	88 55 ea	 mov	 BYTE PTR __k$[ebp+14], dl
  00119	8a 50 0f	 mov	 dl, BYTE PTR [eax+15]
  0011c	84 d2		 test	 dl, dl
  0011e	0f 84 10 01 00
	00		 je	 $LN81@LoadString@2
  00124	80 f2 ea	 xor	 dl, -22			; ffffffeaH
  00127	88 55 eb	 mov	 BYTE PTR __k$[ebp+15], dl
  0012a	8a 50 10	 mov	 dl, BYTE PTR [eax+16]
  0012d	84 d2		 test	 dl, dl
  0012f	0f 84 f9 00 00
	00		 je	 $LN80@LoadString@2
  00135	80 f2 ed	 xor	 dl, -19			; ffffffedH
  00138	88 55 ec	 mov	 BYTE PTR __k$[ebp+16], dl
  0013b	8a 50 11	 mov	 dl, BYTE PTR [eax+17]
  0013e	84 d2		 test	 dl, dl
  00140	0f 84 e3 00 00
	00		 je	 $LN79@LoadString@2
  00146	32 d1		 xor	 dl, cl
  00148	88 55 ed	 mov	 BYTE PTR __k$[ebp+17], dl
  0014b	8a 50 12	 mov	 dl, BYTE PTR [eax+18]
  0014e	84 d2		 test	 dl, dl
  00150	0f 84 ce 00 00
	00		 je	 $LN78@LoadString@2
  00156	32 d3		 xor	 dl, bl
  00158	88 55 ee	 mov	 BYTE PTR __k$[ebp+18], dl
  0015b	8a 50 13	 mov	 dl, BYTE PTR [eax+19]
  0015e	84 d2		 test	 dl, dl
  00160	0f 84 b8 00 00
	00		 je	 $LN77@LoadString@2
  00166	80 f2 ea	 xor	 dl, -22			; ffffffeaH
  00169	88 55 ef	 mov	 BYTE PTR __k$[ebp+19], dl
  0016c	8a 50 14	 mov	 dl, BYTE PTR [eax+20]
  0016f	84 d2		 test	 dl, dl
  00171	0f 84 a1 00 00
	00		 je	 $LN76@LoadString@2
  00177	80 f2 ed	 xor	 dl, -19			; ffffffedH
  0017a	88 55 f0	 mov	 BYTE PTR __k$[ebp+20], dl
  0017d	8a 50 15	 mov	 dl, BYTE PTR [eax+21]
  00180	84 d2		 test	 dl, dl
  00182	0f 84 8b 00 00
	00		 je	 $LN75@LoadString@2
  00188	32 d1		 xor	 dl, cl
  0018a	88 55 f1	 mov	 BYTE PTR __k$[ebp+21], dl
  0018d	8a 50 16	 mov	 dl, BYTE PTR [eax+22]
  00190	84 d2		 test	 dl, dl
  00192	74 7a		 je	 SHORT $LN74@LoadString@2
  00194	32 d3		 xor	 dl, bl
  00196	88 55 f2	 mov	 BYTE PTR __k$[ebp+22], dl
  00199	8a 50 17	 mov	 dl, BYTE PTR [eax+23]
  0019c	84 d2		 test	 dl, dl
  0019e	74 68		 je	 SHORT $LN73@LoadString@2
  001a0	80 f2 ea	 xor	 dl, -22			; ffffffeaH
  001a3	80 78 18 00	 cmp	 BYTE PTR [eax+24], 0
  001a7	88 55 f3	 mov	 BYTE PTR __k$[ebp+23], dl
  001aa	0f 84 dc 00 00
	00		 je	 $LN111@LoadString@2
  001b0	8a 50 19	 mov	 dl, BYTE PTR [eax+25]
  001b3	84 d2		 test	 dl, dl
  001b5	74 49		 je	 SHORT $LN71@LoadString@2
  001b7	32 d1		 xor	 dl, cl
  001b9	88 55 f5	 mov	 BYTE PTR __k$[ebp+25], dl
  001bc	8a 50 1a	 mov	 dl, BYTE PTR [eax+26]
  001bf	84 d2		 test	 dl, dl
  001c1	74 35		 je	 SHORT $LN70@LoadString@2
  001c3	32 d3		 xor	 dl, bl
  001c5	88 55 f6	 mov	 BYTE PTR __k$[ebp+26], dl
  001c8	8a 50 1b	 mov	 dl, BYTE PTR [eax+27]
  001cb	84 d2		 test	 dl, dl
  001cd	74 20		 je	 SHORT $LN69@LoadString@2
  001cf	8a 40 1c	 mov	 al, BYTE PTR [eax+28]
  001d2	80 f2 ea	 xor	 dl, -22			; ffffffeaH
  001d5	88 55 f7	 mov	 BYTE PTR __k$[ebp+27], dl
  001d8	84 c0		 test	 al, al
  001da	74 0a		 je	 SHORT $LN68@LoadString@2
  001dc	34 ed		 xor	 al, -19			; ffffffedH
  001de	88 45 f8	 mov	 BYTE PTR __k$[ebp+28], al
  001e1	e9 a6 00 00 00	 jmp	 $LN111@LoadString@2
$LN68@LoadString@2:
  001e6	c6 45 f8 ed	 mov	 BYTE PTR __k$[ebp+28], -19 ; ffffffedH
  001ea	e9 9d 00 00 00	 jmp	 $LN111@LoadString@2
$LN69@LoadString@2:
  001ef	c6 45 f7 ea	 mov	 BYTE PTR __k$[ebp+27], -22 ; ffffffeaH
  001f3	e9 94 00 00 00	 jmp	 $LN111@LoadString@2
$LN70@LoadString@2:
  001f8	88 5d f6	 mov	 BYTE PTR __k$[ebp+26], bl
  001fb	e9 8c 00 00 00	 jmp	 $LN111@LoadString@2
$LN71@LoadString@2:
  00200	88 4d f5	 mov	 BYTE PTR __k$[ebp+25], cl
  00203	e9 84 00 00 00	 jmp	 $LN111@LoadString@2
$LN73@LoadString@2:
  00208	c6 45 f3 ea	 mov	 BYTE PTR __k$[ebp+23], -22 ; ffffffeaH
  0020c	eb 7e		 jmp	 SHORT $LN111@LoadString@2
$LN74@LoadString@2:
  0020e	88 5d f2	 mov	 BYTE PTR __k$[ebp+22], bl
  00211	eb 79		 jmp	 SHORT $LN111@LoadString@2
$LN75@LoadString@2:
  00213	88 4d f1	 mov	 BYTE PTR __k$[ebp+21], cl
  00216	eb 74		 jmp	 SHORT $LN111@LoadString@2
$LN76@LoadString@2:
  00218	c6 45 f0 ed	 mov	 BYTE PTR __k$[ebp+20], -19 ; ffffffedH
  0021c	eb 6e		 jmp	 SHORT $LN111@LoadString@2
$LN77@LoadString@2:
  0021e	c6 45 ef ea	 mov	 BYTE PTR __k$[ebp+19], -22 ; ffffffeaH
  00222	eb 68		 jmp	 SHORT $LN111@LoadString@2
$LN78@LoadString@2:
  00224	88 5d ee	 mov	 BYTE PTR __k$[ebp+18], bl
  00227	eb 63		 jmp	 SHORT $LN111@LoadString@2
$LN79@LoadString@2:
  00229	88 4d ed	 mov	 BYTE PTR __k$[ebp+17], cl
  0022c	eb 5e		 jmp	 SHORT $LN111@LoadString@2
$LN80@LoadString@2:
  0022e	c6 45 ec ed	 mov	 BYTE PTR __k$[ebp+16], -19 ; ffffffedH
  00232	eb 58		 jmp	 SHORT $LN111@LoadString@2
$LN81@LoadString@2:
  00234	c6 45 eb ea	 mov	 BYTE PTR __k$[ebp+15], -22 ; ffffffeaH
  00238	eb 52		 jmp	 SHORT $LN111@LoadString@2
$LN82@LoadString@2:
  0023a	88 5d ea	 mov	 BYTE PTR __k$[ebp+14], bl
  0023d	eb 4d		 jmp	 SHORT $LN111@LoadString@2
$LN83@LoadString@2:
  0023f	88 4d e9	 mov	 BYTE PTR __k$[ebp+13], cl
  00242	eb 48		 jmp	 SHORT $LN111@LoadString@2
$LN84@LoadString@2:
  00244	c6 45 e8 ed	 mov	 BYTE PTR __k$[ebp+12], -19 ; ffffffedH
  00248	eb 42		 jmp	 SHORT $LN111@LoadString@2
$LN85@LoadString@2:
  0024a	c6 45 e7 ea	 mov	 BYTE PTR __k$[ebp+11], -22 ; ffffffeaH
  0024e	eb 3c		 jmp	 SHORT $LN111@LoadString@2
$LN86@LoadString@2:
  00250	88 5d e6	 mov	 BYTE PTR __k$[ebp+10], bl
  00253	eb 37		 jmp	 SHORT $LN111@LoadString@2
$LN87@LoadString@2:
  00255	88 4d e5	 mov	 BYTE PTR __k$[ebp+9], cl
  00258	eb 32		 jmp	 SHORT $LN111@LoadString@2
$LN88@LoadString@2:
  0025a	c6 45 e4 ed	 mov	 BYTE PTR __k$[ebp+8], -19 ; ffffffedH
  0025e	eb 2c		 jmp	 SHORT $LN111@LoadString@2
$LN89@LoadString@2:
  00260	c6 45 e3 ea	 mov	 BYTE PTR __k$[ebp+7], -22 ; ffffffeaH
  00264	eb 26		 jmp	 SHORT $LN111@LoadString@2
$LN90@LoadString@2:
  00266	88 5d e2	 mov	 BYTE PTR __k$[ebp+6], bl
  00269	eb 21		 jmp	 SHORT $LN111@LoadString@2
$LN91@LoadString@2:
  0026b	88 4d e1	 mov	 BYTE PTR __k$[ebp+5], cl
  0026e	eb 1c		 jmp	 SHORT $LN111@LoadString@2
$LN92@LoadString@2:
  00270	c6 45 e0 ed	 mov	 BYTE PTR __k$[ebp+4], -19 ; ffffffedH
  00274	eb 16		 jmp	 SHORT $LN111@LoadString@2
$LN93@LoadString@2:
  00276	c6 45 df ea	 mov	 BYTE PTR __k$[ebp+3], -22 ; ffffffeaH
  0027a	eb 10		 jmp	 SHORT $LN111@LoadString@2
$LN94@LoadString@2:
  0027c	c6 45 de eb	 mov	 BYTE PTR __k$[ebp+2], -21 ; ffffffebH
  00280	eb 0a		 jmp	 SHORT $LN111@LoadString@2
$LN95@LoadString@2:
  00282	c6 45 dd ec	 mov	 BYTE PTR __k$[ebp+1], -20 ; ffffffecH
  00286	eb 04		 jmp	 SHORT $LN111@LoadString@2
$LN96@LoadString@2:
  00288	c6 45 dc ed	 mov	 BYTE PTR __k$[ebp], -19	; ffffffedH
$LN111@LoadString@2:
  0028c	6a 06		 push	 6
  0028e	8d 45 dc	 lea	 eax, DWORD PTR __k$[ebp]
  00291	c6 45 f4 00	 mov	 BYTE PTR __k$[ebp+24], 0
  00295	5a		 pop	 edx
$LL104@LoadString@2:
  00296	81 30 ed ec eb
	ea		 xor	 DWORD PTR [eax], -353637139 ; eaebecedH
  0029c	83 c0 04	 add	 eax, 4
  0029f	4a		 dec	 edx
  002a0	75 f4		 jne	 SHORT $LL104@LoadString@2

; 163  : 		LoadString(_k, d, b, i);

  002a2	ff 75 14	 push	 DWORD PTR _i$[ebp]
  002a5	8b 4d d8	 mov	 ecx, DWORD PTR _this$GSCopy$[ebp]
  002a8	57		 push	 edi
  002a9	56		 push	 esi
  002aa	8d 45 dc	 lea	 eax, DWORD PTR __k$[ebp]
  002ad	50		 push	 eax
  002ae	ff 15 00 00 00
	00		 call	 DWORD PTR __imp_?LoadStringA@ioINILoader@@QAEXPBD0PADH@Z

; 164  : 	}

  002b4	8b 4d fc	 mov	 ecx, DWORD PTR __$ArrayPad$[ebp]
  002b7	5f		 pop	 edi
  002b8	5e		 pop	 esi
  002b9	33 cd		 xor	 ecx, ebp
  002bb	5b		 pop	 ebx
  002bc	e8 00 00 00 00	 call	 @__security_check_cookie@4
  002c1	c9		 leave
  002c2	c2 10 00	 ret	 16			; 00000010H
??$LoadString_e@$0BJ@@ioINILoader@@QAEXAAY0BJ@$$CBDAAY00$$CBDPADH@Z ENDP ; ioINILoader::LoadString_e<25>
_TEXT	ENDS
PUBLIC	__$ArrayPad$
PUBLIC	??$LoadFloat_e@$0BD@@ioINILoader@@QAEMAAY0BD@$$CBDM@Z ; ioINILoader::LoadFloat_e<19>
EXTRN	__imp_?LoadFloat@ioINILoader@@QAEMPBDM@Z:PROC
EXTRN	__fltused:DWORD
; Function compile flags: /Ogsp
;	COMDAT ??$LoadFloat_e@$0BD@@ioINILoader@@QAEMAAY0BD@$$CBDM@Z
_TEXT	SEGMENT
__k$ = -28						; size = 19
__$ArrayPad$ = -4					; size = 4
_k$ = 8							; size = 4
_f$ = 12						; size = 4
??$LoadFloat_e@$0BD@@ioINILoader@@QAEMAAY0BD@$$CBDM@Z PROC ; ioINILoader::LoadFloat_e<19>, COMDAT
; _this$ = ecx

; 135  : 	{

  00000	55		 push	 ebp
  00001	8b ec		 mov	 ebp, esp
  00003	83 ec 1c	 sub	 esp, 28			; 0000001cH
  00006	a1 00 00 00 00	 mov	 eax, DWORD PTR ___security_cookie
  0000b	33 c5		 xor	 eax, ebp
  0000d	89 45 fc	 mov	 DWORD PTR __$ArrayPad$[ebp], eax
  00010	8b 45 08	 mov	 eax, DWORD PTR _k$[ebp]

; 136  : 		_ENCSTR(k, _k);

  00013	8a 10		 mov	 dl, BYTE PTR [eax]
  00015	56		 push	 esi
  00016	8b f1		 mov	 esi, ecx
  00018	84 d2		 test	 dl, dl
  0001a	0f 84 cf 01 00
	00		 je	 $LN96@LoadFloat_
  00020	80 f2 ed	 xor	 dl, -19			; ffffffedH
  00023	88 55 e4	 mov	 BYTE PTR __k$[ebp], dl
  00026	8a 50 01	 mov	 dl, BYTE PTR [eax+1]
  00029	84 d2		 test	 dl, dl
  0002b	0f 84 b8 01 00
	00		 je	 $LN95@LoadFloat_
  00031	b1 ec		 mov	 cl, -20			; ffffffecH
  00033	32 d1		 xor	 dl, cl
  00035	88 55 e5	 mov	 BYTE PTR __k$[ebp+1], dl
  00038	8a 50 02	 mov	 dl, BYTE PTR [eax+2]
  0003b	84 d2		 test	 dl, dl
  0003d	0f 84 a0 01 00
	00		 je	 $LN94@LoadFloat_
  00043	80 f2 eb	 xor	 dl, -21			; ffffffebH
  00046	88 55 e6	 mov	 BYTE PTR __k$[ebp+2], dl
  00049	8a 50 03	 mov	 dl, BYTE PTR [eax+3]
  0004c	84 d2		 test	 dl, dl
  0004e	0f 84 89 01 00
	00		 je	 $LN93@LoadFloat_
  00054	80 f2 ea	 xor	 dl, -22			; ffffffeaH
  00057	88 55 e7	 mov	 BYTE PTR __k$[ebp+3], dl
  0005a	8a 50 04	 mov	 dl, BYTE PTR [eax+4]
  0005d	84 d2		 test	 dl, dl
  0005f	0f 84 72 01 00
	00		 je	 $LN92@LoadFloat_
  00065	80 f2 ed	 xor	 dl, -19			; ffffffedH
  00068	88 55 e8	 mov	 BYTE PTR __k$[ebp+4], dl
  0006b	8a 50 05	 mov	 dl, BYTE PTR [eax+5]
  0006e	84 d2		 test	 dl, dl
  00070	0f 84 5c 01 00
	00		 je	 $LN91@LoadFloat_
  00076	32 d1		 xor	 dl, cl
  00078	88 55 e9	 mov	 BYTE PTR __k$[ebp+5], dl
  0007b	8a 50 06	 mov	 dl, BYTE PTR [eax+6]
  0007e	84 d2		 test	 dl, dl
  00080	0f 84 46 01 00
	00		 je	 $LN90@LoadFloat_
  00086	80 f2 eb	 xor	 dl, -21			; ffffffebH
  00089	88 55 ea	 mov	 BYTE PTR __k$[ebp+6], dl
  0008c	8a 50 07	 mov	 dl, BYTE PTR [eax+7]
  0008f	84 d2		 test	 dl, dl
  00091	0f 84 2f 01 00
	00		 je	 $LN89@LoadFloat_
  00097	80 f2 ea	 xor	 dl, -22			; ffffffeaH
  0009a	88 55 eb	 mov	 BYTE PTR __k$[ebp+7], dl
  0009d	8a 50 08	 mov	 dl, BYTE PTR [eax+8]
  000a0	84 d2		 test	 dl, dl
  000a2	0f 84 18 01 00
	00		 je	 $LN88@LoadFloat_
  000a8	80 f2 ed	 xor	 dl, -19			; ffffffedH
  000ab	88 55 ec	 mov	 BYTE PTR __k$[ebp+8], dl
  000ae	8a 50 09	 mov	 dl, BYTE PTR [eax+9]
  000b1	84 d2		 test	 dl, dl
  000b3	0f 84 02 01 00
	00		 je	 $LN87@LoadFloat_
  000b9	32 d1		 xor	 dl, cl
  000bb	88 55 ed	 mov	 BYTE PTR __k$[ebp+9], dl
  000be	8a 50 0a	 mov	 dl, BYTE PTR [eax+10]
  000c1	84 d2		 test	 dl, dl
  000c3	0f 84 ec 00 00
	00		 je	 $LN86@LoadFloat_
  000c9	80 f2 eb	 xor	 dl, -21			; ffffffebH
  000cc	88 55 ee	 mov	 BYTE PTR __k$[ebp+10], dl
  000cf	8a 50 0b	 mov	 dl, BYTE PTR [eax+11]
  000d2	84 d2		 test	 dl, dl
  000d4	0f 84 d5 00 00
	00		 je	 $LN85@LoadFloat_
  000da	80 f2 ea	 xor	 dl, -22			; ffffffeaH
  000dd	88 55 ef	 mov	 BYTE PTR __k$[ebp+11], dl
  000e0	8a 50 0c	 mov	 dl, BYTE PTR [eax+12]
  000e3	84 d2		 test	 dl, dl
  000e5	0f 84 be 00 00
	00		 je	 $LN84@LoadFloat_
  000eb	80 f2 ed	 xor	 dl, -19			; ffffffedH
  000ee	88 55 f0	 mov	 BYTE PTR __k$[ebp+12], dl
  000f1	8a 50 0d	 mov	 dl, BYTE PTR [eax+13]
  000f4	84 d2		 test	 dl, dl
  000f6	0f 84 a8 00 00
	00		 je	 $LN83@LoadFloat_
  000fc	32 d1		 xor	 dl, cl
  000fe	88 55 f1	 mov	 BYTE PTR __k$[ebp+13], dl
  00101	8a 50 0e	 mov	 dl, BYTE PTR [eax+14]
  00104	84 d2		 test	 dl, dl
  00106	0f 84 92 00 00
	00		 je	 $LN82@LoadFloat_
  0010c	80 f2 eb	 xor	 dl, -21			; ffffffebH
  0010f	88 55 f2	 mov	 BYTE PTR __k$[ebp+14], dl
  00112	8a 50 0f	 mov	 dl, BYTE PTR [eax+15]
  00115	84 d2		 test	 dl, dl
  00117	74 7f		 je	 SHORT $LN81@LoadFloat_
  00119	80 f2 ea	 xor	 dl, -22			; ffffffeaH
  0011c	88 55 f3	 mov	 BYTE PTR __k$[ebp+15], dl
  0011f	8a 50 10	 mov	 dl, BYTE PTR [eax+16]
  00122	84 d2		 test	 dl, dl
  00124	74 6c		 je	 SHORT $LN80@LoadFloat_
  00126	80 f2 ed	 xor	 dl, -19			; ffffffedH
  00129	88 55 f4	 mov	 BYTE PTR __k$[ebp+16], dl
  0012c	8a 50 11	 mov	 dl, BYTE PTR [eax+17]
  0012f	84 d2		 test	 dl, dl
  00131	74 5a		 je	 SHORT $LN79@LoadFloat_
  00133	32 d1		 xor	 dl, cl
  00135	80 78 12 00	 cmp	 BYTE PTR [eax+18], 0
  00139	88 55 f5	 mov	 BYTE PTR __k$[ebp+17], dl
  0013c	0f 84 b1 00 00
	00		 je	 $LN1@LoadFloat_
  00142	8a 50 13	 mov	 dl, BYTE PTR [eax+19]
  00145	84 d2		 test	 dl, dl
  00147	74 3e		 je	 SHORT $LN77@LoadFloat_
  00149	80 f2 ea	 xor	 dl, -22			; ffffffeaH
  0014c	88 55 f7	 mov	 BYTE PTR __k$[ebp+19], dl
  0014f	8a 50 14	 mov	 dl, BYTE PTR [eax+20]
  00152	84 d2		 test	 dl, dl
  00154	74 2b		 je	 SHORT $LN76@LoadFloat_
  00156	80 f2 ed	 xor	 dl, -19			; ffffffedH
  00159	88 55 f8	 mov	 BYTE PTR __k$[ebp+20], dl
  0015c	8a 50 15	 mov	 dl, BYTE PTR [eax+21]
  0015f	84 d2		 test	 dl, dl
  00161	74 19		 je	 SHORT $LN75@LoadFloat_
  00163	8a 40 16	 mov	 al, BYTE PTR [eax+22]
  00166	32 d1		 xor	 dl, cl
  00168	88 55 f9	 mov	 BYTE PTR __k$[ebp+21], dl
  0016b	84 c0		 test	 al, al
  0016d	74 07		 je	 SHORT $LN74@LoadFloat_
  0016f	34 eb		 xor	 al, -21			; ffffffebH
  00171	88 45 fa	 mov	 BYTE PTR __k$[ebp+22], al
  00174	eb 7d		 jmp	 SHORT $LN1@LoadFloat_
$LN74@LoadFloat_:
  00176	c6 45 fa eb	 mov	 BYTE PTR __k$[ebp+22], -21 ; ffffffebH
  0017a	eb 77		 jmp	 SHORT $LN1@LoadFloat_
$LN75@LoadFloat_:
  0017c	88 4d f9	 mov	 BYTE PTR __k$[ebp+21], cl
  0017f	eb 72		 jmp	 SHORT $LN1@LoadFloat_
$LN76@LoadFloat_:
  00181	c6 45 f8 ed	 mov	 BYTE PTR __k$[ebp+20], -19 ; ffffffedH
  00185	eb 6c		 jmp	 SHORT $LN1@LoadFloat_
$LN77@LoadFloat_:
  00187	c6 45 f7 ea	 mov	 BYTE PTR __k$[ebp+19], -22 ; ffffffeaH
  0018b	eb 66		 jmp	 SHORT $LN1@LoadFloat_
$LN79@LoadFloat_:
  0018d	88 4d f5	 mov	 BYTE PTR __k$[ebp+17], cl
  00190	eb 61		 jmp	 SHORT $LN1@LoadFloat_
$LN80@LoadFloat_:
  00192	c6 45 f4 ed	 mov	 BYTE PTR __k$[ebp+16], -19 ; ffffffedH
  00196	eb 5b		 jmp	 SHORT $LN1@LoadFloat_
$LN81@LoadFloat_:
  00198	c6 45 f3 ea	 mov	 BYTE PTR __k$[ebp+15], -22 ; ffffffeaH
  0019c	eb 55		 jmp	 SHORT $LN1@LoadFloat_
$LN82@LoadFloat_:
  0019e	c6 45 f2 eb	 mov	 BYTE PTR __k$[ebp+14], -21 ; ffffffebH
  001a2	eb 4f		 jmp	 SHORT $LN1@LoadFloat_
$LN83@LoadFloat_:
  001a4	88 4d f1	 mov	 BYTE PTR __k$[ebp+13], cl
  001a7	eb 4a		 jmp	 SHORT $LN1@LoadFloat_
$LN84@LoadFloat_:
  001a9	c6 45 f0 ed	 mov	 BYTE PTR __k$[ebp+12], -19 ; ffffffedH
  001ad	eb 44		 jmp	 SHORT $LN1@LoadFloat_
$LN85@LoadFloat_:
  001af	c6 45 ef ea	 mov	 BYTE PTR __k$[ebp+11], -22 ; ffffffeaH
  001b3	eb 3e		 jmp	 SHORT $LN1@LoadFloat_
$LN86@LoadFloat_:
  001b5	c6 45 ee eb	 mov	 BYTE PTR __k$[ebp+10], -21 ; ffffffebH
  001b9	eb 38		 jmp	 SHORT $LN1@LoadFloat_
$LN87@LoadFloat_:
  001bb	88 4d ed	 mov	 BYTE PTR __k$[ebp+9], cl
  001be	eb 33		 jmp	 SHORT $LN1@LoadFloat_
$LN88@LoadFloat_:
  001c0	c6 45 ec ed	 mov	 BYTE PTR __k$[ebp+8], -19 ; ffffffedH
  001c4	eb 2d		 jmp	 SHORT $LN1@LoadFloat_
$LN89@LoadFloat_:
  001c6	c6 45 eb ea	 mov	 BYTE PTR __k$[ebp+7], -22 ; ffffffeaH
  001ca	eb 27		 jmp	 SHORT $LN1@LoadFloat_
$LN90@LoadFloat_:
  001cc	c6 45 ea eb	 mov	 BYTE PTR __k$[ebp+6], -21 ; ffffffebH
  001d0	eb 21		 jmp	 SHORT $LN1@LoadFloat_
$LN91@LoadFloat_:
  001d2	88 4d e9	 mov	 BYTE PTR __k$[ebp+5], cl
  001d5	eb 1c		 jmp	 SHORT $LN1@LoadFloat_
$LN92@LoadFloat_:
  001d7	c6 45 e8 ed	 mov	 BYTE PTR __k$[ebp+4], -19 ; ffffffedH
  001db	eb 16		 jmp	 SHORT $LN1@LoadFloat_
$LN93@LoadFloat_:
  001dd	c6 45 e7 ea	 mov	 BYTE PTR __k$[ebp+3], -22 ; ffffffeaH
  001e1	eb 10		 jmp	 SHORT $LN1@LoadFloat_
$LN94@LoadFloat_:
  001e3	c6 45 e6 eb	 mov	 BYTE PTR __k$[ebp+2], -21 ; ffffffebH
  001e7	eb 0a		 jmp	 SHORT $LN1@LoadFloat_
$LN95@LoadFloat_:
  001e9	c6 45 e5 ec	 mov	 BYTE PTR __k$[ebp+1], -20 ; ffffffecH
  001ed	eb 04		 jmp	 SHORT $LN1@LoadFloat_
$LN96@LoadFloat_:
  001ef	c6 45 e4 ed	 mov	 BYTE PTR __k$[ebp], -19	; ffffffedH
$LN1@LoadFloat_:
  001f3	6a 04		 push	 4
  001f5	8d 45 e4	 lea	 eax, DWORD PTR __k$[ebp]
  001f8	c6 45 f6 00	 mov	 BYTE PTR __k$[ebp+18], 0
  001fc	5a		 pop	 edx
$LL104@LoadFloat_:
  001fd	81 30 ed ec eb
	ea		 xor	 DWORD PTR [eax], -353637139 ; eaebecedH
  00203	83 c0 04	 add	 eax, 4
  00206	4a		 dec	 edx
  00207	75 f4		 jne	 SHORT $LL104@LoadFloat_
  00209	6a 10		 push	 16			; 00000010H
  0020b	58		 pop	 eax
$LL101@LoadFloat_:
  0020c	8b c8		 mov	 ecx, eax
  0020e	81 e1 03 00 00
	80		 and	 ecx, -2147483645	; 80000003H
  00214	79 05		 jns	 SHORT $LN111@LoadFloat_
  00216	49		 dec	 ecx
  00217	83 c9 fc	 or	 ecx, -4			; fffffffcH
  0021a	41		 inc	 ecx
$LN111@LoadFloat_:
  0021b	b2 ed		 mov	 dl, -19			; ffffffedH
  0021d	2a d1		 sub	 dl, cl
  0021f	30 54 05 e4	 xor	 BYTE PTR __k$[ebp+eax], dl
  00223	40		 inc	 eax
  00224	83 f8 12	 cmp	 eax, 18			; 00000012H
  00227	7c e3		 jl	 SHORT $LL101@LoadFloat_

; 137  : 		return LoadFloat(_k, f);

  00229	f3 0f 10 45 0c	 movss	 xmm0, DWORD PTR _f$[ebp]
  0022e	51		 push	 ecx
  0022f	8d 45 e4	 lea	 eax, DWORD PTR __k$[ebp]
  00232	f3 0f 11 04 24	 movss	 DWORD PTR [esp], xmm0
  00237	50		 push	 eax
  00238	8b ce		 mov	 ecx, esi
  0023a	ff 15 00 00 00
	00		 call	 DWORD PTR __imp_?LoadFloat@ioINILoader@@QAEMPBDM@Z

; 138  : 	}

  00240	8b 4d fc	 mov	 ecx, DWORD PTR __$ArrayPad$[ebp]
  00243	33 cd		 xor	 ecx, ebp
  00245	5e		 pop	 esi
  00246	e8 00 00 00 00	 call	 @__security_check_cookie@4
  0024b	c9		 leave
  0024c	c2 08 00	 ret	 8
??$LoadFloat_e@$0BD@@ioINILoader@@QAEMAAY0BD@$$CBDM@Z ENDP ; ioINILoader::LoadFloat_e<19>
_TEXT	ENDS
PUBLIC	__$ArrayPad$
PUBLIC	??$LoadFloat_e@$0BG@@ioINILoader@@QAEMAAY0BG@$$CBDM@Z ; ioINILoader::LoadFloat_e<22>
; Function compile flags: /Ogsp
;	COMDAT ??$LoadFloat_e@$0BG@@ioINILoader@@QAEMAAY0BG@$$CBDM@Z
_TEXT	SEGMENT
__k$ = -32						; size = 22
__$ArrayPad$ = -4					; size = 4
_k$ = 8							; size = 4
_f$ = 12						; size = 4
??$LoadFloat_e@$0BG@@ioINILoader@@QAEMAAY0BG@$$CBDM@Z PROC ; ioINILoader::LoadFloat_e<22>, COMDAT
; _this$ = ecx

; 135  : 	{

  00000	55		 push	 ebp
  00001	8b ec		 mov	 ebp, esp
  00003	83 ec 20	 sub	 esp, 32			; 00000020H
  00006	a1 00 00 00 00	 mov	 eax, DWORD PTR ___security_cookie
  0000b	33 c5		 xor	 eax, ebp
  0000d	89 45 fc	 mov	 DWORD PTR __$ArrayPad$[ebp], eax
  00010	8b 45 08	 mov	 eax, DWORD PTR _k$[ebp]

; 136  : 		_ENCSTR(k, _k);

  00013	8a 10		 mov	 dl, BYTE PTR [eax]
  00015	53		 push	 ebx
  00016	56		 push	 esi
  00017	8b f1		 mov	 esi, ecx
  00019	84 d2		 test	 dl, dl
  0001b	0f 84 15 02 00
	00		 je	 $LN96@LoadFloat_@2
  00021	80 f2 ed	 xor	 dl, -19			; ffffffedH
  00024	88 55 e0	 mov	 BYTE PTR __k$[ebp], dl
  00027	8a 50 01	 mov	 dl, BYTE PTR [eax+1]
  0002a	84 d2		 test	 dl, dl
  0002c	0f 84 fe 01 00
	00		 je	 $LN95@LoadFloat_@2
  00032	80 f2 ec	 xor	 dl, -20			; ffffffecH
  00035	88 55 e1	 mov	 BYTE PTR __k$[ebp+1], dl
  00038	8a 50 02	 mov	 dl, BYTE PTR [eax+2]
  0003b	84 d2		 test	 dl, dl
  0003d	0f 84 e7 01 00
	00		 je	 $LN94@LoadFloat_@2
  00043	b1 eb		 mov	 cl, -21			; ffffffebH
  00045	32 d1		 xor	 dl, cl
  00047	88 55 e2	 mov	 BYTE PTR __k$[ebp+2], dl
  0004a	8a 50 03	 mov	 dl, BYTE PTR [eax+3]
  0004d	84 d2		 test	 dl, dl
  0004f	0f 84 cf 01 00
	00		 je	 $LN93@LoadFloat_@2
  00055	b3 ea		 mov	 bl, -22			; ffffffeaH
  00057	32 d3		 xor	 dl, bl
  00059	88 55 e3	 mov	 BYTE PTR __k$[ebp+3], dl
  0005c	8a 50 04	 mov	 dl, BYTE PTR [eax+4]
  0005f	84 d2		 test	 dl, dl
  00061	0f 84 b7 01 00
	00		 je	 $LN92@LoadFloat_@2
  00067	80 f2 ed	 xor	 dl, -19			; ffffffedH
  0006a	88 55 e4	 mov	 BYTE PTR __k$[ebp+4], dl
  0006d	8a 50 05	 mov	 dl, BYTE PTR [eax+5]
  00070	84 d2		 test	 dl, dl
  00072	0f 84 a0 01 00
	00		 je	 $LN91@LoadFloat_@2
  00078	80 f2 ec	 xor	 dl, -20			; ffffffecH
  0007b	88 55 e5	 mov	 BYTE PTR __k$[ebp+5], dl
  0007e	8a 50 06	 mov	 dl, BYTE PTR [eax+6]
  00081	84 d2		 test	 dl, dl
  00083	0f 84 8a 01 00
	00		 je	 $LN90@LoadFloat_@2
  00089	32 d1		 xor	 dl, cl
  0008b	88 55 e6	 mov	 BYTE PTR __k$[ebp+6], dl
  0008e	8a 50 07	 mov	 dl, BYTE PTR [eax+7]
  00091	84 d2		 test	 dl, dl
  00093	0f 84 75 01 00
	00		 je	 $LN89@LoadFloat_@2
  00099	32 d3		 xor	 dl, bl
  0009b	88 55 e7	 mov	 BYTE PTR __k$[ebp+7], dl
  0009e	8a 50 08	 mov	 dl, BYTE PTR [eax+8]
  000a1	84 d2		 test	 dl, dl
  000a3	0f 84 5f 01 00
	00		 je	 $LN88@LoadFloat_@2
  000a9	80 f2 ed	 xor	 dl, -19			; ffffffedH
  000ac	88 55 e8	 mov	 BYTE PTR __k$[ebp+8], dl
  000af	8a 50 09	 mov	 dl, BYTE PTR [eax+9]
  000b2	84 d2		 test	 dl, dl
  000b4	0f 84 48 01 00
	00		 je	 $LN87@LoadFloat_@2
  000ba	80 f2 ec	 xor	 dl, -20			; ffffffecH
  000bd	88 55 e9	 mov	 BYTE PTR __k$[ebp+9], dl
  000c0	8a 50 0a	 mov	 dl, BYTE PTR [eax+10]
  000c3	84 d2		 test	 dl, dl
  000c5	0f 84 32 01 00
	00		 je	 $LN86@LoadFloat_@2
  000cb	32 d1		 xor	 dl, cl
  000cd	88 55 ea	 mov	 BYTE PTR __k$[ebp+10], dl
  000d0	8a 50 0b	 mov	 dl, BYTE PTR [eax+11]
  000d3	84 d2		 test	 dl, dl
  000d5	0f 84 1d 01 00
	00		 je	 $LN85@LoadFloat_@2
  000db	32 d3		 xor	 dl, bl
  000dd	88 55 eb	 mov	 BYTE PTR __k$[ebp+11], dl
  000e0	8a 50 0c	 mov	 dl, BYTE PTR [eax+12]
  000e3	84 d2		 test	 dl, dl
  000e5	0f 84 07 01 00
	00		 je	 $LN84@LoadFloat_@2
  000eb	80 f2 ed	 xor	 dl, -19			; ffffffedH
  000ee	88 55 ec	 mov	 BYTE PTR __k$[ebp+12], dl
  000f1	8a 50 0d	 mov	 dl, BYTE PTR [eax+13]
  000f4	84 d2		 test	 dl, dl
  000f6	0f 84 f0 00 00
	00		 je	 $LN83@LoadFloat_@2
  000fc	80 f2 ec	 xor	 dl, -20			; ffffffecH
  000ff	88 55 ed	 mov	 BYTE PTR __k$[ebp+13], dl
  00102	8a 50 0e	 mov	 dl, BYTE PTR [eax+14]
  00105	84 d2		 test	 dl, dl
  00107	0f 84 da 00 00
	00		 je	 $LN82@LoadFloat_@2
  0010d	32 d1		 xor	 dl, cl
  0010f	88 55 ee	 mov	 BYTE PTR __k$[ebp+14], dl
  00112	8a 50 0f	 mov	 dl, BYTE PTR [eax+15]
  00115	84 d2		 test	 dl, dl
  00117	0f 84 c5 00 00
	00		 je	 $LN81@LoadFloat_@2
  0011d	32 d3		 xor	 dl, bl
  0011f	88 55 ef	 mov	 BYTE PTR __k$[ebp+15], dl
  00122	8a 50 10	 mov	 dl, BYTE PTR [eax+16]
  00125	84 d2		 test	 dl, dl
  00127	0f 84 af 00 00
	00		 je	 $LN80@LoadFloat_@2
  0012d	80 f2 ed	 xor	 dl, -19			; ffffffedH
  00130	88 55 f0	 mov	 BYTE PTR __k$[ebp+16], dl
  00133	8a 50 11	 mov	 dl, BYTE PTR [eax+17]
  00136	84 d2		 test	 dl, dl
  00138	0f 84 98 00 00
	00		 je	 $LN79@LoadFloat_@2
  0013e	80 f2 ec	 xor	 dl, -20			; ffffffecH
  00141	88 55 f1	 mov	 BYTE PTR __k$[ebp+17], dl
  00144	8a 50 12	 mov	 dl, BYTE PTR [eax+18]
  00147	84 d2		 test	 dl, dl
  00149	0f 84 82 00 00
	00		 je	 $LN78@LoadFloat_@2
  0014f	32 d1		 xor	 dl, cl
  00151	88 55 f2	 mov	 BYTE PTR __k$[ebp+18], dl
  00154	8a 50 13	 mov	 dl, BYTE PTR [eax+19]
  00157	84 d2		 test	 dl, dl
  00159	74 71		 je	 SHORT $LN77@LoadFloat_@2
  0015b	32 d3		 xor	 dl, bl
  0015d	88 55 f3	 mov	 BYTE PTR __k$[ebp+19], dl
  00160	8a 50 14	 mov	 dl, BYTE PTR [eax+20]
  00163	84 d2		 test	 dl, dl
  00165	74 5f		 je	 SHORT $LN76@LoadFloat_@2
  00167	80 f2 ed	 xor	 dl, -19			; ffffffedH
  0016a	80 78 15 00	 cmp	 BYTE PTR [eax+21], 0
  0016e	88 55 f4	 mov	 BYTE PTR __k$[ebp+20], dl
  00171	0f 84 c3 00 00
	00		 je	 $LN1@LoadFloat_@2
  00177	8a 50 16	 mov	 dl, BYTE PTR [eax+22]
  0017a	84 d2		 test	 dl, dl
  0017c	74 43		 je	 SHORT $LN74@LoadFloat_@2
  0017e	32 d1		 xor	 dl, cl
  00180	88 55 f6	 mov	 BYTE PTR __k$[ebp+22], dl
  00183	8a 50 17	 mov	 dl, BYTE PTR [eax+23]
  00186	84 d2		 test	 dl, dl
  00188	74 32		 je	 SHORT $LN73@LoadFloat_@2
  0018a	32 d3		 xor	 dl, bl
  0018c	88 55 f7	 mov	 BYTE PTR __k$[ebp+23], dl
  0018f	8a 50 18	 mov	 dl, BYTE PTR [eax+24]
  00192	84 d2		 test	 dl, dl
  00194	74 20		 je	 SHORT $LN72@LoadFloat_@2
  00196	8a 40 19	 mov	 al, BYTE PTR [eax+25]
  00199	80 f2 ed	 xor	 dl, -19			; ffffffedH
  0019c	88 55 f8	 mov	 BYTE PTR __k$[ebp+24], dl
  0019f	84 c0		 test	 al, al
  001a1	74 0a		 je	 SHORT $LN71@LoadFloat_@2
  001a3	34 ec		 xor	 al, -20			; ffffffecH
  001a5	88 45 f9	 mov	 BYTE PTR __k$[ebp+25], al
  001a8	e9 8d 00 00 00	 jmp	 $LN1@LoadFloat_@2
$LN71@LoadFloat_@2:
  001ad	c6 45 f9 ec	 mov	 BYTE PTR __k$[ebp+25], -20 ; ffffffecH
  001b1	e9 84 00 00 00	 jmp	 $LN1@LoadFloat_@2
$LN72@LoadFloat_@2:
  001b6	c6 45 f8 ed	 mov	 BYTE PTR __k$[ebp+24], -19 ; ffffffedH
  001ba	eb 7e		 jmp	 SHORT $LN1@LoadFloat_@2
$LN73@LoadFloat_@2:
  001bc	88 5d f7	 mov	 BYTE PTR __k$[ebp+23], bl
  001bf	eb 79		 jmp	 SHORT $LN1@LoadFloat_@2
$LN74@LoadFloat_@2:
  001c1	88 4d f6	 mov	 BYTE PTR __k$[ebp+22], cl
  001c4	eb 74		 jmp	 SHORT $LN1@LoadFloat_@2
$LN76@LoadFloat_@2:
  001c6	c6 45 f4 ed	 mov	 BYTE PTR __k$[ebp+20], -19 ; ffffffedH
  001ca	eb 6e		 jmp	 SHORT $LN1@LoadFloat_@2
$LN77@LoadFloat_@2:
  001cc	88 5d f3	 mov	 BYTE PTR __k$[ebp+19], bl
  001cf	eb 69		 jmp	 SHORT $LN1@LoadFloat_@2
$LN78@LoadFloat_@2:
  001d1	88 4d f2	 mov	 BYTE PTR __k$[ebp+18], cl
  001d4	eb 64		 jmp	 SHORT $LN1@LoadFloat_@2
$LN79@LoadFloat_@2:
  001d6	c6 45 f1 ec	 mov	 BYTE PTR __k$[ebp+17], -20 ; ffffffecH
  001da	eb 5e		 jmp	 SHORT $LN1@LoadFloat_@2
$LN80@LoadFloat_@2:
  001dc	c6 45 f0 ed	 mov	 BYTE PTR __k$[ebp+16], -19 ; ffffffedH
  001e0	eb 58		 jmp	 SHORT $LN1@LoadFloat_@2
$LN81@LoadFloat_@2:
  001e2	88 5d ef	 mov	 BYTE PTR __k$[ebp+15], bl
  001e5	eb 53		 jmp	 SHORT $LN1@LoadFloat_@2
$LN82@LoadFloat_@2:
  001e7	88 4d ee	 mov	 BYTE PTR __k$[ebp+14], cl
  001ea	eb 4e		 jmp	 SHORT $LN1@LoadFloat_@2
$LN83@LoadFloat_@2:
  001ec	c6 45 ed ec	 mov	 BYTE PTR __k$[ebp+13], -20 ; ffffffecH
  001f0	eb 48		 jmp	 SHORT $LN1@LoadFloat_@2
$LN84@LoadFloat_@2:
  001f2	c6 45 ec ed	 mov	 BYTE PTR __k$[ebp+12], -19 ; ffffffedH
  001f6	eb 42		 jmp	 SHORT $LN1@LoadFloat_@2
$LN85@LoadFloat_@2:
  001f8	88 5d eb	 mov	 BYTE PTR __k$[ebp+11], bl
  001fb	eb 3d		 jmp	 SHORT $LN1@LoadFloat_@2
$LN86@LoadFloat_@2:
  001fd	88 4d ea	 mov	 BYTE PTR __k$[ebp+10], cl
  00200	eb 38		 jmp	 SHORT $LN1@LoadFloat_@2
$LN87@LoadFloat_@2:
  00202	c6 45 e9 ec	 mov	 BYTE PTR __k$[ebp+9], -20 ; ffffffecH
  00206	eb 32		 jmp	 SHORT $LN1@LoadFloat_@2
$LN88@LoadFloat_@2:
  00208	c6 45 e8 ed	 mov	 BYTE PTR __k$[ebp+8], -19 ; ffffffedH
  0020c	eb 2c		 jmp	 SHORT $LN1@LoadFloat_@2
$LN89@LoadFloat_@2:
  0020e	88 5d e7	 mov	 BYTE PTR __k$[ebp+7], bl
  00211	eb 27		 jmp	 SHORT $LN1@LoadFloat_@2
$LN90@LoadFloat_@2:
  00213	88 4d e6	 mov	 BYTE PTR __k$[ebp+6], cl
  00216	eb 22		 jmp	 SHORT $LN1@LoadFloat_@2
$LN91@LoadFloat_@2:
  00218	c6 45 e5 ec	 mov	 BYTE PTR __k$[ebp+5], -20 ; ffffffecH
  0021c	eb 1c		 jmp	 SHORT $LN1@LoadFloat_@2
$LN92@LoadFloat_@2:
  0021e	c6 45 e4 ed	 mov	 BYTE PTR __k$[ebp+4], -19 ; ffffffedH
  00222	eb 16		 jmp	 SHORT $LN1@LoadFloat_@2
$LN93@LoadFloat_@2:
  00224	c6 45 e3 ea	 mov	 BYTE PTR __k$[ebp+3], -22 ; ffffffeaH
  00228	eb 10		 jmp	 SHORT $LN1@LoadFloat_@2
$LN94@LoadFloat_@2:
  0022a	c6 45 e2 eb	 mov	 BYTE PTR __k$[ebp+2], -21 ; ffffffebH
  0022e	eb 0a		 jmp	 SHORT $LN1@LoadFloat_@2
$LN95@LoadFloat_@2:
  00230	c6 45 e1 ec	 mov	 BYTE PTR __k$[ebp+1], -20 ; ffffffecH
  00234	eb 04		 jmp	 SHORT $LN1@LoadFloat_@2
$LN96@LoadFloat_@2:
  00236	c6 45 e0 ed	 mov	 BYTE PTR __k$[ebp], -19	; ffffffedH
$LN1@LoadFloat_@2:
  0023a	6a 05		 push	 5
  0023c	8d 45 e0	 lea	 eax, DWORD PTR __k$[ebp]
  0023f	c6 45 f5 00	 mov	 BYTE PTR __k$[ebp+21], 0
  00243	5a		 pop	 edx
$LL104@LoadFloat_@2:
  00244	81 30 ed ec eb
	ea		 xor	 DWORD PTR [eax], -353637139 ; eaebecedH
  0024a	83 c0 04	 add	 eax, 4
  0024d	4a		 dec	 edx
  0024e	75 f4		 jne	 SHORT $LL104@LoadFloat_@2

; 137  : 		return LoadFloat(_k, f);

  00250	f3 0f 10 45 0c	 movss	 xmm0, DWORD PTR _f$[ebp]
  00255	80 75 f4 ed	 xor	 BYTE PTR __k$[ebp+20], -19 ; ffffffedH
  00259	51		 push	 ecx
  0025a	8d 45 e0	 lea	 eax, DWORD PTR __k$[ebp]
  0025d	f3 0f 11 04 24	 movss	 DWORD PTR [esp], xmm0
  00262	50		 push	 eax
  00263	8b ce		 mov	 ecx, esi
  00265	ff 15 00 00 00
	00		 call	 DWORD PTR __imp_?LoadFloat@ioINILoader@@QAEMPBDM@Z

; 138  : 	}

  0026b	8b 4d fc	 mov	 ecx, DWORD PTR __$ArrayPad$[ebp]
  0026e	5e		 pop	 esi
  0026f	33 cd		 xor	 ecx, ebp
  00271	5b		 pop	 ebx
  00272	e8 00 00 00 00	 call	 @__security_check_cookie@4
  00277	c9		 leave
  00278	c2 08 00	 ret	 8
??$LoadFloat_e@$0BG@@ioINILoader@@QAEMAAY0BG@$$CBDM@Z ENDP ; ioINILoader::LoadFloat_e<22>
_TEXT	ENDS
PUBLIC	??$encodeString@$0BK@@ioINILoader_e@@AAEPADAAY0BK@$$CBDPAD@Z ; ioINILoader_e::encodeString<26>
; Function compile flags: /Ogsp
;	COMDAT ??$encodeString@$0BK@@ioINILoader_e@@AAEPADAAY0BK@$$CBDPAD@Z
_TEXT	SEGMENT
_s$ = 8							; size = 4
_e$ = 12						; size = 4
??$encodeString@$0BK@@ioINILoader_e@@AAEPADAAY0BK@$$CBDPAD@Z PROC ; ioINILoader_e::encodeString<26>, COMDAT
; _this$ = ecx

; 215  : 	{

  00000	55		 push	 ebp
  00001	8b ec		 mov	 ebp, esp

; 216  : 		__ENCSTR(s, e);

  00003	8b 4d 08	 mov	 ecx, DWORD PTR _s$[ebp]
  00006	8a 11		 mov	 dl, BYTE PTR [ecx]
  00008	8b 45 0c	 mov	 eax, DWORD PTR _e$[ebp]
  0000b	53		 push	 ebx
  0000c	84 d2		 test	 dl, dl
  0000e	0f 84 6a 04 00
	00		 je	 $LN96@encodeStri
  00014	80 f2 ed	 xor	 dl, -19			; ffffffedH
  00017	88 10		 mov	 BYTE PTR [eax], dl
  00019	8a 51 01	 mov	 dl, BYTE PTR [ecx+1]
  0001c	84 d2		 test	 dl, dl
  0001e	0f 84 54 04 00
	00		 je	 $LN95@encodeStri
  00024	80 f2 ec	 xor	 dl, -20			; ffffffecH
  00027	88 50 01	 mov	 BYTE PTR [eax+1], dl
  0002a	8a 51 02	 mov	 dl, BYTE PTR [ecx+2]
  0002d	84 d2		 test	 dl, dl
  0002f	0f 84 3d 04 00
	00		 je	 $LN94@encodeStri
  00035	b3 eb		 mov	 bl, -21			; ffffffebH
  00037	32 d3		 xor	 dl, bl
  00039	88 50 02	 mov	 BYTE PTR [eax+2], dl
  0003c	8a 51 03	 mov	 dl, BYTE PTR [ecx+3]
  0003f	84 d2		 test	 dl, dl
  00041	0f 84 25 04 00
	00		 je	 $LN93@encodeStri
  00047	80 f2 ea	 xor	 dl, -22			; ffffffeaH
  0004a	88 50 03	 mov	 BYTE PTR [eax+3], dl
  0004d	8a 51 04	 mov	 dl, BYTE PTR [ecx+4]
  00050	84 d2		 test	 dl, dl
  00052	0f 84 0e 04 00
	00		 je	 $LN92@encodeStri
  00058	80 f2 ed	 xor	 dl, -19			; ffffffedH
  0005b	88 50 04	 mov	 BYTE PTR [eax+4], dl
  0005e	8a 51 05	 mov	 dl, BYTE PTR [ecx+5]
  00061	84 d2		 test	 dl, dl
  00063	0f 84 f7 03 00
	00		 je	 $LN91@encodeStri
  00069	80 f2 ec	 xor	 dl, -20			; ffffffecH
  0006c	88 50 05	 mov	 BYTE PTR [eax+5], dl
  0006f	8a 51 06	 mov	 dl, BYTE PTR [ecx+6]
  00072	84 d2		 test	 dl, dl
  00074	0f 84 e1 03 00
	00		 je	 $LN90@encodeStri
  0007a	32 d3		 xor	 dl, bl
  0007c	88 50 06	 mov	 BYTE PTR [eax+6], dl
  0007f	8a 51 07	 mov	 dl, BYTE PTR [ecx+7]
  00082	84 d2		 test	 dl, dl
  00084	0f 84 cb 03 00
	00		 je	 $LN89@encodeStri
  0008a	80 f2 ea	 xor	 dl, -22			; ffffffeaH
  0008d	88 50 07	 mov	 BYTE PTR [eax+7], dl
  00090	8a 51 08	 mov	 dl, BYTE PTR [ecx+8]
  00093	84 d2		 test	 dl, dl
  00095	0f 84 b4 03 00
	00		 je	 $LN88@encodeStri
  0009b	80 f2 ed	 xor	 dl, -19			; ffffffedH
  0009e	88 50 08	 mov	 BYTE PTR [eax+8], dl
  000a1	8a 51 09	 mov	 dl, BYTE PTR [ecx+9]
  000a4	84 d2		 test	 dl, dl
  000a6	0f 84 9d 03 00
	00		 je	 $LN87@encodeStri
  000ac	80 f2 ec	 xor	 dl, -20			; ffffffecH
  000af	88 50 09	 mov	 BYTE PTR [eax+9], dl
  000b2	8a 51 0a	 mov	 dl, BYTE PTR [ecx+10]
  000b5	84 d2		 test	 dl, dl
  000b7	0f 84 87 03 00
	00		 je	 $LN86@encodeStri
  000bd	32 d3		 xor	 dl, bl
  000bf	88 50 0a	 mov	 BYTE PTR [eax+10], dl
  000c2	8a 51 0b	 mov	 dl, BYTE PTR [ecx+11]
  000c5	84 d2		 test	 dl, dl
  000c7	0f 84 71 03 00
	00		 je	 $LN85@encodeStri
  000cd	80 f2 ea	 xor	 dl, -22			; ffffffeaH
  000d0	88 50 0b	 mov	 BYTE PTR [eax+11], dl
  000d3	8a 51 0c	 mov	 dl, BYTE PTR [ecx+12]
  000d6	84 d2		 test	 dl, dl
  000d8	0f 84 5a 03 00
	00		 je	 $LN84@encodeStri
  000de	80 f2 ed	 xor	 dl, -19			; ffffffedH
  000e1	88 50 0c	 mov	 BYTE PTR [eax+12], dl
  000e4	8a 51 0d	 mov	 dl, BYTE PTR [ecx+13]
  000e7	84 d2		 test	 dl, dl
  000e9	0f 84 43 03 00
	00		 je	 $LN83@encodeStri
  000ef	80 f2 ec	 xor	 dl, -20			; ffffffecH
  000f2	88 50 0d	 mov	 BYTE PTR [eax+13], dl
  000f5	8a 51 0e	 mov	 dl, BYTE PTR [ecx+14]
  000f8	84 d2		 test	 dl, dl
  000fa	0f 84 2d 03 00
	00		 je	 $LN82@encodeStri
  00100	32 d3		 xor	 dl, bl
  00102	88 50 0e	 mov	 BYTE PTR [eax+14], dl
  00105	8a 51 0f	 mov	 dl, BYTE PTR [ecx+15]
  00108	84 d2		 test	 dl, dl
  0010a	0f 84 17 03 00
	00		 je	 $LN81@encodeStri
  00110	80 f2 ea	 xor	 dl, -22			; ffffffeaH
  00113	88 50 0f	 mov	 BYTE PTR [eax+15], dl
  00116	8a 51 10	 mov	 dl, BYTE PTR [ecx+16]
  00119	84 d2		 test	 dl, dl
  0011b	0f 84 00 03 00
	00		 je	 $LN80@encodeStri
  00121	80 f2 ed	 xor	 dl, -19			; ffffffedH
  00124	88 50 10	 mov	 BYTE PTR [eax+16], dl
  00127	8a 51 11	 mov	 dl, BYTE PTR [ecx+17]
  0012a	84 d2		 test	 dl, dl
  0012c	0f 84 e9 02 00
	00		 je	 $LN79@encodeStri
  00132	80 f2 ec	 xor	 dl, -20			; ffffffecH
  00135	88 50 11	 mov	 BYTE PTR [eax+17], dl
  00138	8a 51 12	 mov	 dl, BYTE PTR [ecx+18]
  0013b	84 d2		 test	 dl, dl
  0013d	0f 84 d3 02 00
	00		 je	 $LN78@encodeStri
  00143	32 d3		 xor	 dl, bl
  00145	88 50 12	 mov	 BYTE PTR [eax+18], dl
  00148	8a 51 13	 mov	 dl, BYTE PTR [ecx+19]
  0014b	84 d2		 test	 dl, dl
  0014d	0f 84 bd 02 00
	00		 je	 $LN77@encodeStri
  00153	80 f2 ea	 xor	 dl, -22			; ffffffeaH
  00156	88 50 13	 mov	 BYTE PTR [eax+19], dl
  00159	8a 51 14	 mov	 dl, BYTE PTR [ecx+20]
  0015c	84 d2		 test	 dl, dl
  0015e	0f 84 a6 02 00
	00		 je	 $LN76@encodeStri
  00164	80 f2 ed	 xor	 dl, -19			; ffffffedH
  00167	88 50 14	 mov	 BYTE PTR [eax+20], dl
  0016a	8a 51 15	 mov	 dl, BYTE PTR [ecx+21]
  0016d	84 d2		 test	 dl, dl
  0016f	0f 84 8f 02 00
	00		 je	 $LN75@encodeStri
  00175	80 f2 ec	 xor	 dl, -20			; ffffffecH
  00178	88 50 15	 mov	 BYTE PTR [eax+21], dl
  0017b	8a 51 16	 mov	 dl, BYTE PTR [ecx+22]
  0017e	84 d2		 test	 dl, dl
  00180	0f 84 79 02 00
	00		 je	 $LN74@encodeStri
  00186	32 d3		 xor	 dl, bl
  00188	88 50 16	 mov	 BYTE PTR [eax+22], dl
  0018b	8a 51 17	 mov	 dl, BYTE PTR [ecx+23]
  0018e	84 d2		 test	 dl, dl
  00190	0f 84 60 02 00
	00		 je	 $LN73@encodeStri
  00196	80 f2 ea	 xor	 dl, -22			; ffffffeaH
  00199	88 50 17	 mov	 BYTE PTR [eax+23], dl
  0019c	8a 51 18	 mov	 dl, BYTE PTR [ecx+24]
  0019f	84 d2		 test	 dl, dl
  001a1	0f 84 46 02 00
	00		 je	 $LN72@encodeStri
  001a7	80 f2 ed	 xor	 dl, -19			; ffffffedH
  001aa	88 50 18	 mov	 BYTE PTR [eax+24], dl
  001ad	8a 51 19	 mov	 dl, BYTE PTR [ecx+25]
  001b0	84 d2		 test	 dl, dl
  001b2	0f 84 2c 02 00
	00		 je	 $LN71@encodeStri
  001b8	80 f2 ec	 xor	 dl, -20			; ffffffecH
  001bb	88 50 19	 mov	 BYTE PTR [eax+25], dl
  001be	8a 51 1a	 mov	 dl, BYTE PTR [ecx+26]
  001c1	84 d2		 test	 dl, dl
  001c3	0f 84 13 02 00
	00		 je	 $LN70@encodeStri
  001c9	32 d3		 xor	 dl, bl
  001cb	88 50 1a	 mov	 BYTE PTR [eax+26], dl
  001ce	8a 51 1b	 mov	 dl, BYTE PTR [ecx+27]
  001d1	84 d2		 test	 dl, dl
  001d3	0f 84 fa 01 00
	00		 je	 $LN69@encodeStri
  001d9	80 f2 ea	 xor	 dl, -22			; ffffffeaH
  001dc	88 50 1b	 mov	 BYTE PTR [eax+27], dl
  001df	8a 51 1c	 mov	 dl, BYTE PTR [ecx+28]
  001e2	84 d2		 test	 dl, dl
  001e4	0f 84 e0 01 00
	00		 je	 $LN68@encodeStri
  001ea	80 f2 ed	 xor	 dl, -19			; ffffffedH
  001ed	88 50 1c	 mov	 BYTE PTR [eax+28], dl
  001f0	8a 51 1d	 mov	 dl, BYTE PTR [ecx+29]
  001f3	84 d2		 test	 dl, dl
  001f5	0f 84 c6 01 00
	00		 je	 $LN67@encodeStri
  001fb	80 f2 ec	 xor	 dl, -20			; ffffffecH
  001fe	88 50 1d	 mov	 BYTE PTR [eax+29], dl
  00201	8a 51 1e	 mov	 dl, BYTE PTR [ecx+30]
  00204	84 d2		 test	 dl, dl
  00206	0f 84 ad 01 00
	00		 je	 $LN66@encodeStri
  0020c	32 d3		 xor	 dl, bl
  0020e	88 50 1e	 mov	 BYTE PTR [eax+30], dl
  00211	8a 51 1f	 mov	 dl, BYTE PTR [ecx+31]
  00214	84 d2		 test	 dl, dl
  00216	0f 84 94 01 00
	00		 je	 $LN65@encodeStri
  0021c	80 f2 ea	 xor	 dl, -22			; ffffffeaH
  0021f	88 50 1f	 mov	 BYTE PTR [eax+31], dl
  00222	8a 51 20	 mov	 dl, BYTE PTR [ecx+32]
  00225	84 d2		 test	 dl, dl
  00227	0f 84 7a 01 00
	00		 je	 $LN64@encodeStri
  0022d	80 f2 ed	 xor	 dl, -19			; ffffffedH
  00230	88 50 20	 mov	 BYTE PTR [eax+32], dl
  00233	8a 51 21	 mov	 dl, BYTE PTR [ecx+33]
  00236	84 d2		 test	 dl, dl
  00238	0f 84 60 01 00
	00		 je	 $LN63@encodeStri
  0023e	80 f2 ec	 xor	 dl, -20			; ffffffecH
  00241	88 50 21	 mov	 BYTE PTR [eax+33], dl
  00244	8a 51 22	 mov	 dl, BYTE PTR [ecx+34]
  00247	84 d2		 test	 dl, dl
  00249	0f 84 47 01 00
	00		 je	 $LN62@encodeStri
  0024f	32 d3		 xor	 dl, bl
  00251	88 50 22	 mov	 BYTE PTR [eax+34], dl
  00254	8a 51 23	 mov	 dl, BYTE PTR [ecx+35]
  00257	84 d2		 test	 dl, dl
  00259	0f 84 2e 01 00
	00		 je	 $LN61@encodeStri
  0025f	80 f2 ea	 xor	 dl, -22			; ffffffeaH
  00262	88 50 23	 mov	 BYTE PTR [eax+35], dl
  00265	8a 51 24	 mov	 dl, BYTE PTR [ecx+36]
  00268	84 d2		 test	 dl, dl
  0026a	0f 84 14 01 00
	00		 je	 $LN60@encodeStri
  00270	80 f2 ed	 xor	 dl, -19			; ffffffedH
  00273	88 50 24	 mov	 BYTE PTR [eax+36], dl
  00276	8a 51 25	 mov	 dl, BYTE PTR [ecx+37]
  00279	84 d2		 test	 dl, dl
  0027b	0f 84 fa 00 00
	00		 je	 $LN59@encodeStri
  00281	80 f2 ec	 xor	 dl, -20			; ffffffecH
  00284	88 50 25	 mov	 BYTE PTR [eax+37], dl
  00287	8a 51 26	 mov	 dl, BYTE PTR [ecx+38]
  0028a	84 d2		 test	 dl, dl
  0028c	0f 84 e1 00 00
	00		 je	 $LN58@encodeStri
  00292	32 d3		 xor	 dl, bl
  00294	88 50 26	 mov	 BYTE PTR [eax+38], dl
  00297	8a 51 27	 mov	 dl, BYTE PTR [ecx+39]
  0029a	84 d2		 test	 dl, dl
  0029c	0f 84 c8 00 00
	00		 je	 $LN57@encodeStri
  002a2	80 f2 ea	 xor	 dl, -22			; ffffffeaH
  002a5	88 50 27	 mov	 BYTE PTR [eax+39], dl
  002a8	8a 51 28	 mov	 dl, BYTE PTR [ecx+40]
  002ab	84 d2		 test	 dl, dl
  002ad	0f 84 ae 00 00
	00		 je	 $LN56@encodeStri
  002b3	80 f2 ed	 xor	 dl, -19			; ffffffedH
  002b6	88 50 28	 mov	 BYTE PTR [eax+40], dl
  002b9	8a 51 29	 mov	 dl, BYTE PTR [ecx+41]
  002bc	84 d2		 test	 dl, dl
  002be	0f 84 94 00 00
	00		 je	 $LN55@encodeStri
  002c4	80 f2 ec	 xor	 dl, -20			; ffffffecH
  002c7	88 50 29	 mov	 BYTE PTR [eax+41], dl
  002ca	8a 51 2a	 mov	 dl, BYTE PTR [ecx+42]
  002cd	84 d2		 test	 dl, dl
  002cf	74 7f		 je	 SHORT $LN54@encodeStri
  002d1	32 d3		 xor	 dl, bl
  002d3	88 50 2a	 mov	 BYTE PTR [eax+42], dl
  002d6	8a 51 2b	 mov	 dl, BYTE PTR [ecx+43]
  002d9	84 d2		 test	 dl, dl
  002db	74 6a		 je	 SHORT $LN53@encodeStri
  002dd	80 f2 ea	 xor	 dl, -22			; ffffffeaH
  002e0	88 50 2b	 mov	 BYTE PTR [eax+43], dl
  002e3	8a 51 2c	 mov	 dl, BYTE PTR [ecx+44]
  002e6	84 d2		 test	 dl, dl
  002e8	74 54		 je	 SHORT $LN52@encodeStri
  002ea	80 f2 ed	 xor	 dl, -19			; ffffffedH
  002ed	88 50 2c	 mov	 BYTE PTR [eax+44], dl
  002f0	8a 51 2d	 mov	 dl, BYTE PTR [ecx+45]
  002f3	84 d2		 test	 dl, dl
  002f5	74 3e		 je	 SHORT $LN51@encodeStri
  002f7	80 f2 ec	 xor	 dl, -20			; ffffffecH
  002fa	88 50 2d	 mov	 BYTE PTR [eax+45], dl
  002fd	8a 51 2e	 mov	 dl, BYTE PTR [ecx+46]
  00300	84 d2		 test	 dl, dl
  00302	74 29		 je	 SHORT $LN50@encodeStri
  00304	32 d3		 xor	 dl, bl
  00306	88 50 2e	 mov	 BYTE PTR [eax+46], dl
  00309	8a 51 2f	 mov	 dl, BYTE PTR [ecx+47]
  0030c	84 d2		 test	 dl, dl
  0030e	74 14		 je	 SHORT $LN49@encodeStri
  00310	80 f2 ea	 xor	 dl, -22			; ffffffeaH
  00313	88 50 2f	 mov	 BYTE PTR [eax+47], dl
  00316	8a 49 30	 mov	 cl, BYTE PTR [ecx+48]
  00319	80 f1 ed	 xor	 cl, -19			; ffffffedH
  0031c	88 48 30	 mov	 BYTE PTR [eax+48], cl
  0031f	e9 5d 01 00 00	 jmp	 $LN1@encodeStri
$LN49@encodeStri:
  00324	c6 40 2f ea	 mov	 BYTE PTR [eax+47], -22	; ffffffeaH
  00328	e9 54 01 00 00	 jmp	 $LN1@encodeStri
$LN50@encodeStri:
  0032d	88 58 2e	 mov	 BYTE PTR [eax+46], bl
  00330	e9 4c 01 00 00	 jmp	 $LN1@encodeStri
$LN51@encodeStri:
  00335	c6 40 2d ec	 mov	 BYTE PTR [eax+45], -20	; ffffffecH
  00339	e9 43 01 00 00	 jmp	 $LN1@encodeStri
$LN52@encodeStri:
  0033e	c6 40 2c ed	 mov	 BYTE PTR [eax+44], -19	; ffffffedH
  00342	e9 3a 01 00 00	 jmp	 $LN1@encodeStri
$LN53@encodeStri:
  00347	c6 40 2b ea	 mov	 BYTE PTR [eax+43], -22	; ffffffeaH
  0034b	e9 31 01 00 00	 jmp	 $LN1@encodeStri
$LN54@encodeStri:
  00350	88 58 2a	 mov	 BYTE PTR [eax+42], bl
  00353	e9 29 01 00 00	 jmp	 $LN1@encodeStri
$LN55@encodeStri:
  00358	c6 40 29 ec	 mov	 BYTE PTR [eax+41], -20	; ffffffecH
  0035c	e9 20 01 00 00	 jmp	 $LN1@encodeStri
$LN56@encodeStri:
  00361	c6 40 28 ed	 mov	 BYTE PTR [eax+40], -19	; ffffffedH
  00365	e9 17 01 00 00	 jmp	 $LN1@encodeStri
$LN57@encodeStri:
  0036a	c6 40 27 ea	 mov	 BYTE PTR [eax+39], -22	; ffffffeaH
  0036e	e9 0e 01 00 00	 jmp	 $LN1@encodeStri
$LN58@encodeStri:
  00373	88 58 26	 mov	 BYTE PTR [eax+38], bl
  00376	e9 06 01 00 00	 jmp	 $LN1@encodeStri
$LN59@encodeStri:
  0037b	c6 40 25 ec	 mov	 BYTE PTR [eax+37], -20	; ffffffecH
  0037f	e9 fd 00 00 00	 jmp	 $LN1@encodeStri
$LN60@encodeStri:
  00384	c6 40 24 ed	 mov	 BYTE PTR [eax+36], -19	; ffffffedH
  00388	e9 f4 00 00 00	 jmp	 $LN1@encodeStri
$LN61@encodeStri:
  0038d	c6 40 23 ea	 mov	 BYTE PTR [eax+35], -22	; ffffffeaH
  00391	e9 eb 00 00 00	 jmp	 $LN1@encodeStri
$LN62@encodeStri:
  00396	88 58 22	 mov	 BYTE PTR [eax+34], bl
  00399	e9 e3 00 00 00	 jmp	 $LN1@encodeStri
$LN63@encodeStri:
  0039e	c6 40 21 ec	 mov	 BYTE PTR [eax+33], -20	; ffffffecH
  003a2	e9 da 00 00 00	 jmp	 $LN1@encodeStri
$LN64@encodeStri:
  003a7	c6 40 20 ed	 mov	 BYTE PTR [eax+32], -19	; ffffffedH
  003ab	e9 d1 00 00 00	 jmp	 $LN1@encodeStri
$LN65@encodeStri:
  003b0	c6 40 1f ea	 mov	 BYTE PTR [eax+31], -22	; ffffffeaH
  003b4	e9 c8 00 00 00	 jmp	 $LN1@encodeStri
$LN66@encodeStri:
  003b9	88 58 1e	 mov	 BYTE PTR [eax+30], bl
  003bc	e9 c0 00 00 00	 jmp	 $LN1@encodeStri
$LN67@encodeStri:
  003c1	c6 40 1d ec	 mov	 BYTE PTR [eax+29], -20	; ffffffecH
  003c5	e9 b7 00 00 00	 jmp	 $LN1@encodeStri
$LN68@encodeStri:
  003ca	c6 40 1c ed	 mov	 BYTE PTR [eax+28], -19	; ffffffedH
  003ce	e9 ae 00 00 00	 jmp	 $LN1@encodeStri
$LN69@encodeStri:
  003d3	c6 40 1b ea	 mov	 BYTE PTR [eax+27], -22	; ffffffeaH
  003d7	e9 a5 00 00 00	 jmp	 $LN1@encodeStri
$LN70@encodeStri:
  003dc	88 58 1a	 mov	 BYTE PTR [eax+26], bl
  003df	e9 9d 00 00 00	 jmp	 $LN1@encodeStri
$LN71@encodeStri:
  003e4	c6 40 19 ec	 mov	 BYTE PTR [eax+25], -20	; ffffffecH
  003e8	e9 94 00 00 00	 jmp	 $LN1@encodeStri
$LN72@encodeStri:
  003ed	c6 40 18 ed	 mov	 BYTE PTR [eax+24], -19	; ffffffedH
  003f1	e9 8b 00 00 00	 jmp	 $LN1@encodeStri
$LN73@encodeStri:
  003f6	c6 40 17 ea	 mov	 BYTE PTR [eax+23], -22	; ffffffeaH
  003fa	e9 82 00 00 00	 jmp	 $LN1@encodeStri
$LN74@encodeStri:
  003ff	88 58 16	 mov	 BYTE PTR [eax+22], bl
  00402	eb 7d		 jmp	 SHORT $LN1@encodeStri
$LN75@encodeStri:
  00404	c6 40 15 ec	 mov	 BYTE PTR [eax+21], -20	; ffffffecH
  00408	eb 77		 jmp	 SHORT $LN1@encodeStri
$LN76@encodeStri:
  0040a	c6 40 14 ed	 mov	 BYTE PTR [eax+20], -19	; ffffffedH
  0040e	eb 71		 jmp	 SHORT $LN1@encodeStri
$LN77@encodeStri:
  00410	c6 40 13 ea	 mov	 BYTE PTR [eax+19], -22	; ffffffeaH
  00414	eb 6b		 jmp	 SHORT $LN1@encodeStri
$LN78@encodeStri:
  00416	88 58 12	 mov	 BYTE PTR [eax+18], bl
  00419	eb 66		 jmp	 SHORT $LN1@encodeStri
$LN79@encodeStri:
  0041b	c6 40 11 ec	 mov	 BYTE PTR [eax+17], -20	; ffffffecH
  0041f	eb 60		 jmp	 SHORT $LN1@encodeStri
$LN80@encodeStri:
  00421	c6 40 10 ed	 mov	 BYTE PTR [eax+16], -19	; ffffffedH
  00425	eb 5a		 jmp	 SHORT $LN1@encodeStri
$LN81@encodeStri:
  00427	c6 40 0f ea	 mov	 BYTE PTR [eax+15], -22	; ffffffeaH
  0042b	eb 54		 jmp	 SHORT $LN1@encodeStri
$LN82@encodeStri:
  0042d	88 58 0e	 mov	 BYTE PTR [eax+14], bl
  00430	eb 4f		 jmp	 SHORT $LN1@encodeStri
$LN83@encodeStri:
  00432	c6 40 0d ec	 mov	 BYTE PTR [eax+13], -20	; ffffffecH
  00436	eb 49		 jmp	 SHORT $LN1@encodeStri
$LN84@encodeStri:
  00438	c6 40 0c ed	 mov	 BYTE PTR [eax+12], -19	; ffffffedH
  0043c	eb 43		 jmp	 SHORT $LN1@encodeStri
$LN85@encodeStri:
  0043e	c6 40 0b ea	 mov	 BYTE PTR [eax+11], -22	; ffffffeaH
  00442	eb 3d		 jmp	 SHORT $LN1@encodeStri
$LN86@encodeStri:
  00444	88 58 0a	 mov	 BYTE PTR [eax+10], bl
  00447	eb 38		 jmp	 SHORT $LN1@encodeStri
$LN87@encodeStri:
  00449	c6 40 09 ec	 mov	 BYTE PTR [eax+9], -20	; ffffffecH
  0044d	eb 32		 jmp	 SHORT $LN1@encodeStri
$LN88@encodeStri:
  0044f	c6 40 08 ed	 mov	 BYTE PTR [eax+8], -19	; ffffffedH
  00453	eb 2c		 jmp	 SHORT $LN1@encodeStri
$LN89@encodeStri:
  00455	c6 40 07 ea	 mov	 BYTE PTR [eax+7], -22	; ffffffeaH
  00459	eb 26		 jmp	 SHORT $LN1@encodeStri
$LN90@encodeStri:
  0045b	88 58 06	 mov	 BYTE PTR [eax+6], bl
  0045e	eb 21		 jmp	 SHORT $LN1@encodeStri
$LN91@encodeStri:
  00460	c6 40 05 ec	 mov	 BYTE PTR [eax+5], -20	; ffffffecH
  00464	eb 1b		 jmp	 SHORT $LN1@encodeStri
$LN92@encodeStri:
  00466	c6 40 04 ed	 mov	 BYTE PTR [eax+4], -19	; ffffffedH
  0046a	eb 15		 jmp	 SHORT $LN1@encodeStri
$LN93@encodeStri:
  0046c	c6 40 03 ea	 mov	 BYTE PTR [eax+3], -22	; ffffffeaH
  00470	eb 0f		 jmp	 SHORT $LN1@encodeStri
$LN94@encodeStri:
  00472	c6 40 02 eb	 mov	 BYTE PTR [eax+2], -21	; ffffffebH
  00476	eb 09		 jmp	 SHORT $LN1@encodeStri
$LN95@encodeStri:
  00478	c6 40 01 ec	 mov	 BYTE PTR [eax+1], -20	; ffffffecH
  0047c	eb 03		 jmp	 SHORT $LN1@encodeStri
$LN96@encodeStri:
  0047e	c6 00 ed	 mov	 BYTE PTR [eax], -19	; ffffffedH
$LN1@encodeStri:
  00481	6a 06		 push	 6
  00483	5a		 pop	 edx
  00484	8b c8		 mov	 ecx, eax
  00486	c6 40 19 00	 mov	 BYTE PTR [eax+25], 0
  0048a	5b		 pop	 ebx
$LL104@encodeStri:
  0048b	81 31 ed ec eb
	ea		 xor	 DWORD PTR [ecx], -353637139 ; eaebecedH
  00491	83 c1 04	 add	 ecx, 4
  00494	4a		 dec	 edx
  00495	75 f4		 jne	 SHORT $LL104@encodeStri
  00497	80 70 18 ed	 xor	 BYTE PTR [eax+24], -19	; ffffffedH

; 217  : 		return e;
; 218  : 	}

  0049b	5d		 pop	 ebp
  0049c	c2 08 00	 ret	 8
??$encodeString@$0BK@@ioINILoader_e@@AAEPADAAY0BK@$$CBDPAD@Z ENDP ; ioINILoader_e::encodeString<26>
_TEXT	ENDS
PUBLIC	??0?$CEncrypt@M@@QAE@XZ				; CEncrypt<float>::CEncrypt<float>
EXTRN	??0ccddaabb@@QAE@XZ:PROC			; ccddaabb::ccddaabb
;	COMDAT xdata$x
; File d:\lost saga for developer\youtube\tutorial\source\src\lsclient\encryptvalue.h
xdata$x	SEGMENT
__unwindtable$??0?$CEncrypt@M@@QAE@XZ DD 0ffffffffH
	DD	FLAT:__unwindfunclet$??0?$CEncrypt@M@@QAE@XZ$0
__ehfuncinfo$??0?$CEncrypt@M@@QAE@XZ DD 019930522H
	DD	01H
	DD	FLAT:__unwindtable$??0?$CEncrypt@M@@QAE@XZ
	DD	2 DUP(00H)
	DD	2 DUP(00H)
	DD	00H
	DD	01H
; Function compile flags: /Ogsp
xdata$x	ENDS
;	COMDAT ??0?$CEncrypt@M@@QAE@XZ
_TEXT	SEGMENT
_this$ = -16						; size = 4
__$EHRec$ = -12						; size = 12
??0?$CEncrypt@M@@QAE@XZ PROC				; CEncrypt<float>::CEncrypt<float>, COMDAT
; _this$ = ecx

; 109  : 	CEncrypt()

  00000	6a 04		 push	 4
  00002	b8 00 00 00 00	 mov	 eax, __ehhandler$??0?$CEncrypt@M@@QAE@XZ
  00007	e8 00 00 00 00	 call	 __EH_prolog3
  0000c	8b f1		 mov	 esi, ecx
  0000e	89 75 f0	 mov	 DWORD PTR _this$[ebp], esi
  00011	8d 4e 0c	 lea	 ecx, DWORD PTR [esi+12]
  00014	c7 06 00 00 00
	00		 mov	 DWORD PTR [esi], OFFSET ??_7?$CEncrypt@M@@6B@
  0001a	e8 00 00 00 00	 call	 ??0ccddaabb@@QAE@XZ	; ccddaabb::ccddaabb
  0001f	83 65 fc 00	 and	 DWORD PTR __$EHRec$[ebp+8], 0

; 110  : 	{
; 111  : 		Init();

  00023	8b ce		 mov	 ecx, esi
  00025	e8 00 00 00 00	 call	 ?Init@?$CEncrypt@M@@AAEXXZ ; CEncrypt<float>::Init

; 112  : 	}

  0002a	8b c6		 mov	 eax, esi
  0002c	e8 00 00 00 00	 call	 __EH_epilog3
  00031	c3		 ret	 0
_TEXT	ENDS
;	COMDAT text$x
text$x	SEGMENT
__unwindfunclet$??0?$CEncrypt@M@@QAE@XZ$0:
  00000	8b 4d f0	 mov	 ecx, DWORD PTR _this$[ebp]
  00003	83 c1 0c	 add	 ecx, 12			; 0000000cH
  00006	e9 00 00 00 00	 jmp	 ??1ccddaabb@@UAE@XZ	; ccddaabb::~ccddaabb
__ehhandler$??0?$CEncrypt@M@@QAE@XZ:
  0000b	8b 54 24 08	 mov	 edx, DWORD PTR [esp+8]
  0000f	8d 42 0c	 lea	 eax, DWORD PTR [edx+12]
  00012	8b 4a ec	 mov	 ecx, DWORD PTR [edx-20]
  00015	33 c8		 xor	 ecx, eax
  00017	e8 00 00 00 00	 call	 @__security_check_cookie@4
  0001c	b8 00 00 00 00	 mov	 eax, OFFSET __ehfuncinfo$??0?$CEncrypt@M@@QAE@XZ
  00021	e9 00 00 00 00	 jmp	 ___CxxFrameHandler3
text$x	ENDS
??0?$CEncrypt@M@@QAE@XZ ENDP				; CEncrypt<float>::CEncrypt<float>
PUBLIC	??4?$CEncrypt@M@@QAEMM@Z			; CEncrypt<float>::operator=
; Function compile flags: /Ogsp
;	COMDAT ??4?$CEncrypt@M@@QAEMM@Z
_TEXT	SEGMENT
_value$ = 8						; size = 4
_inValue$ = 8						; size = 4
??4?$CEncrypt@M@@QAEMM@Z PROC				; CEncrypt<float>::operator=, COMDAT
; _this$ = ecx

; 1654 : 	{	

  00000	55		 push	 ebp
  00001	8b ec		 mov	 ebp, esp

; 1655 : 		type value = inValue;

  00003	d9 45 08	 fld	 DWORD PTR _inValue$[ebp]

; 1656 : 		EncryptValueToPool((char*)&value);

  00006	8d 45 08	 lea	 eax, DWORD PTR _value$[ebp]
  00009	50		 push	 eax
  0000a	d9 5d 08	 fstp	 DWORD PTR _value$[ebp]
  0000d	e8 00 00 00 00	 call	 ?EncryptValueToPool@?$CEncrypt@M@@AAEXPBD@Z ; CEncrypt<float>::EncryptValueToPool

; 1657 : #ifdef _NOTUSE
; 1658 : 		m_value = inValue;
; 1659 : 		Debug();
; 1660 : #endif
; 1661 : 		return value;

  00012	d9 45 08	 fld	 DWORD PTR _value$[ebp]

; 1662 : 	}

  00015	5d		 pop	 ebp
  00016	c2 04 00	 ret	 4
??4?$CEncrypt@M@@QAEMM@Z ENDP				; CEncrypt<float>::operator=
_TEXT	ENDS
PUBLIC	??0ioFieldItemMgr@@QAE@XZ			; ioFieldItemMgr::ioFieldItemMgr
EXTRN	__imp_??0ioHashString@@QAE@XZ:PROC
;	COMDAT xdata$x
; File d:\lost saga for developer\youtube\tutorial\source\src\io3dengine\iosingleton.h
xdata$x	SEGMENT
__unwindtable$??0ioFieldItemMgr@@QAE@XZ DD 0ffffffffH
	DD	FLAT:__unwindfunclet$??0ioFieldItemMgr@@QAE@XZ$0
	DD	00H
	DD	FLAT:__unwindfunclet$??0ioFieldItemMgr@@QAE@XZ$1
	DD	01H
	DD	FLAT:__unwindfunclet$??0ioFieldItemMgr@@QAE@XZ$2
	DD	02H
	DD	FLAT:__unwindfunclet$??0ioFieldItemMgr@@QAE@XZ$3
__ehfuncinfo$??0ioFieldItemMgr@@QAE@XZ DD 019930522H
	DD	04H
	DD	FLAT:__unwindtable$??0ioFieldItemMgr@@QAE@XZ
	DD	2 DUP(00H)
	DD	2 DUP(00H)
	DD	00H
	DD	01H
; Function compile flags: /Ogsp
; File d:\lost saga for developer\youtube\tutorial\source\src\lsclient\iofielditemmgr.cpp
xdata$x	ENDS
;	COMDAT ??0ioFieldItemMgr@@QAE@XZ
_TEXT	SEGMENT
_this$ = -16						; size = 4
__$EHRec$ = -12						; size = 12
??0ioFieldItemMgr@@QAE@XZ PROC				; ioFieldItemMgr::ioFieldItemMgr, COMDAT
; _this$ = ecx

; 9    : {

  00000	6a 04		 push	 4
  00002	b8 00 00 00 00	 mov	 eax, __ehhandler$??0ioFieldItemMgr@@QAE@XZ
  00007	e8 00 00 00 00	 call	 __EH_prolog3
  0000c	8b f1		 mov	 esi, ecx
  0000e	89 75 f0	 mov	 DWORD PTR _this$[ebp], esi
  00011	8d 4e 04	 lea	 ecx, DWORD PTR [esi+4]
  00014	8d 41 fc	 lea	 eax, DWORD PTR [ecx-4]
  00017	a3 00 00 00 00	 mov	 DWORD PTR ?ms_Singleton@?$Singleton@VioFieldItemMgr@@@@1PAVioFieldItemMgr@@A, eax ; Singleton<ioFieldItemMgr>::ms_Singleton
  0001c	8b 3d 00 00 00
	00		 mov	 edi, DWORD PTR __imp_??0ioHashString@@QAE@XZ
  00022	83 65 fc 00	 and	 DWORD PTR __$EHRec$[ebp+8], 0
  00026	c7 06 00 00 00
	00		 mov	 DWORD PTR [esi], OFFSET ??_7ioFieldItemMgr@@6B@
  0002c	ff d7		 call	 edi
  0002e	8d 4e 14	 lea	 ecx, DWORD PTR [esi+20]
  00031	c6 45 fc 01	 mov	 BYTE PTR __$EHRec$[ebp+8], 1
  00035	ff d7		 call	 edi
  00037	8d 4e 24	 lea	 ecx, DWORD PTR [esi+36]
  0003a	c6 45 fc 02	 mov	 BYTE PTR __$EHRec$[ebp+8], 2
  0003e	e8 00 00 00 00	 call	 ??0?$CEncrypt@M@@QAE@XZ	; CEncrypt<float>::CEncrypt<float>
  00043	8d 4e 54	 lea	 ecx, DWORD PTR [esi+84]
  00046	c6 45 fc 03	 mov	 BYTE PTR __$EHRec$[ebp+8], 3
  0004a	e8 00 00 00 00	 call	 ??0?$CEncrypt@M@@QAE@XZ	; CEncrypt<float>::CEncrypt<float>

; 10   : }

  0004f	8b c6		 mov	 eax, esi
  00051	e8 00 00 00 00	 call	 __EH_epilog3
  00056	c3		 ret	 0
_TEXT	ENDS
;	COMDAT text$x
text$x	SEGMENT
__unwindfunclet$??0ioFieldItemMgr@@QAE@XZ$0:
  00000	8b 4d f0	 mov	 ecx, DWORD PTR _this$[ebp]
  00003	83 c1 04	 add	 ecx, 4
  00006	e9 00 00 00 00	 jmp	 ??1?$Singleton@VioFieldItemMgr@@@@QAE@XZ ; Singleton<ioFieldItemMgr>::~Singleton<ioFieldItemMgr>
__unwindfunclet$??0ioFieldItemMgr@@QAE@XZ$1:
  0000b	8b 4d f0	 mov	 ecx, DWORD PTR _this$[ebp]
  0000e	83 c1 04	 add	 ecx, 4
  00011	ff 25 00 00 00
	00		 jmp	 DWORD PTR __imp_??1ioHashString@@QAE@XZ
__unwindfunclet$??0ioFieldItemMgr@@QAE@XZ$2:
  00017	8b 4d f0	 mov	 ecx, DWORD PTR _this$[ebp]
  0001a	83 c1 14	 add	 ecx, 20			; 00000014H
  0001d	ff 25 00 00 00
	00		 jmp	 DWORD PTR __imp_??1ioHashString@@QAE@XZ
__unwindfunclet$??0ioFieldItemMgr@@QAE@XZ$3:
  00023	8b 4d f0	 mov	 ecx, DWORD PTR _this$[ebp]
  00026	83 c1 24	 add	 ecx, 36			; 00000024H
  00029	e9 00 00 00 00	 jmp	 ??1?$CEncrypt@M@@UAE@XZ	; CEncrypt<float>::~CEncrypt<float>
__ehhandler$??0ioFieldItemMgr@@QAE@XZ:
  0002e	8b 54 24 08	 mov	 edx, DWORD PTR [esp+8]
  00032	8d 42 0c	 lea	 eax, DWORD PTR [edx+12]
  00035	8b 4a ec	 mov	 ecx, DWORD PTR [edx-20]
  00038	33 c8		 xor	 ecx, eax
  0003a	e8 00 00 00 00	 call	 @__security_check_cookie@4
  0003f	b8 00 00 00 00	 mov	 eax, OFFSET __ehfuncinfo$??0ioFieldItemMgr@@QAE@XZ
  00044	e9 00 00 00 00	 jmp	 ___CxxFrameHandler3
text$x	ENDS
??0ioFieldItemMgr@@QAE@XZ ENDP				; ioFieldItemMgr::ioFieldItemMgr
; Function compile flags: /Ogsp
;	COMDAT ??_GioFieldItemMgr@@UAEPAXI@Z
_TEXT	SEGMENT
___flags$ = 8						; size = 4
??_GioFieldItemMgr@@UAEPAXI@Z PROC			; ioFieldItemMgr::`scalar deleting destructor', COMDAT
; _this$ = ecx
  00000	55		 push	 ebp
  00001	8b ec		 mov	 ebp, esp
  00003	56		 push	 esi
  00004	8b f1		 mov	 esi, ecx
  00006	e8 00 00 00 00	 call	 ??1ioFieldItemMgr@@UAE@XZ ; ioFieldItemMgr::~ioFieldItemMgr
  0000b	f6 45 08 01	 test	 BYTE PTR ___flags$[ebp], 1
  0000f	74 07		 je	 SHORT $LN1@scalar@2
  00011	56		 push	 esi
  00012	e8 00 00 00 00	 call	 ??3@YAXPAX@Z		; operator delete
  00017	59		 pop	 ecx
$LN1@scalar@2:
  00018	8b c6		 mov	 eax, esi
  0001a	5e		 pop	 esi
  0001b	5d		 pop	 ebp
  0001c	c2 04 00	 ret	 4
??_GioFieldItemMgr@@UAEPAXI@Z ENDP			; ioFieldItemMgr::`scalar deleting destructor'
_TEXT	ENDS
PUBLIC	??$?0$0BK@@ioINILoader_e@@QAE@AAY0BK@$$CBD_N@Z	; ioINILoader_e::ioINILoader_e<26>
EXTRN	__imp_??0ioINILoader@@QAE@PBD_N@Z:PROC
; Function compile flags: /Ogsp
; File d:\lost saga for developer\youtube\tutorial\source\src\io3dengine\ioiniloader.h
;	COMDAT ??$?0$0BK@@ioINILoader_e@@QAE@AAY0BK@$$CBD_N@Z
_TEXT	SEGMENT
_fn$ = 8						; size = 4
_b$ = 12						; size = 1
??$?0$0BK@@ioINILoader_e@@QAE@AAY0BK@$$CBD_N@Z PROC	; ioINILoader_e::ioINILoader_e<26>, COMDAT
; _this$ = ecx

; 224  : 	{

  00000	55		 push	 ebp
  00001	8b ec		 mov	 ebp, esp
  00003	53		 push	 ebx
  00004	56		 push	 esi
  00005	8b f1		 mov	 esi, ecx
  00007	8b 4d 08	 mov	 ecx, DWORD PTR _fn$[ebp]
  0000a	8a 11		 mov	 dl, BYTE PTR [ecx]
  0000c	8d 86 50 03 00
	00		 lea	 eax, DWORD PTR [esi+848]
  00012	84 d2		 test	 dl, dl
  00014	0f 84 6a 04 00
	00		 je	 $LN99@ioINILoade
  0001a	80 f2 ed	 xor	 dl, -19			; ffffffedH
  0001d	88 10		 mov	 BYTE PTR [eax], dl
  0001f	8a 51 01	 mov	 dl, BYTE PTR [ecx+1]
  00022	84 d2		 test	 dl, dl
  00024	0f 84 54 04 00
	00		 je	 $LN98@ioINILoade
  0002a	80 f2 ec	 xor	 dl, -20			; ffffffecH
  0002d	88 50 01	 mov	 BYTE PTR [eax+1], dl
  00030	8a 51 02	 mov	 dl, BYTE PTR [ecx+2]
  00033	84 d2		 test	 dl, dl
  00035	0f 84 3d 04 00
	00		 je	 $LN97@ioINILoade
  0003b	b3 eb		 mov	 bl, -21			; ffffffebH
  0003d	32 d3		 xor	 dl, bl
  0003f	88 50 02	 mov	 BYTE PTR [eax+2], dl
  00042	8a 51 03	 mov	 dl, BYTE PTR [ecx+3]
  00045	84 d2		 test	 dl, dl
  00047	0f 84 25 04 00
	00		 je	 $LN96@ioINILoade
  0004d	80 f2 ea	 xor	 dl, -22			; ffffffeaH
  00050	88 50 03	 mov	 BYTE PTR [eax+3], dl
  00053	8a 51 04	 mov	 dl, BYTE PTR [ecx+4]
  00056	84 d2		 test	 dl, dl
  00058	0f 84 0e 04 00
	00		 je	 $LN95@ioINILoade
  0005e	80 f2 ed	 xor	 dl, -19			; ffffffedH
  00061	88 50 04	 mov	 BYTE PTR [eax+4], dl
  00064	8a 51 05	 mov	 dl, BYTE PTR [ecx+5]
  00067	84 d2		 test	 dl, dl
  00069	0f 84 f7 03 00
	00		 je	 $LN94@ioINILoade
  0006f	80 f2 ec	 xor	 dl, -20			; ffffffecH
  00072	88 50 05	 mov	 BYTE PTR [eax+5], dl
  00075	8a 51 06	 mov	 dl, BYTE PTR [ecx+6]
  00078	84 d2		 test	 dl, dl
  0007a	0f 84 e1 03 00
	00		 je	 $LN93@ioINILoade
  00080	32 d3		 xor	 dl, bl
  00082	88 50 06	 mov	 BYTE PTR [eax+6], dl
  00085	8a 51 07	 mov	 dl, BYTE PTR [ecx+7]
  00088	84 d2		 test	 dl, dl
  0008a	0f 84 cb 03 00
	00		 je	 $LN92@ioINILoade
  00090	80 f2 ea	 xor	 dl, -22			; ffffffeaH
  00093	88 50 07	 mov	 BYTE PTR [eax+7], dl
  00096	8a 51 08	 mov	 dl, BYTE PTR [ecx+8]
  00099	84 d2		 test	 dl, dl
  0009b	0f 84 b4 03 00
	00		 je	 $LN91@ioINILoade
  000a1	80 f2 ed	 xor	 dl, -19			; ffffffedH
  000a4	88 50 08	 mov	 BYTE PTR [eax+8], dl
  000a7	8a 51 09	 mov	 dl, BYTE PTR [ecx+9]
  000aa	84 d2		 test	 dl, dl
  000ac	0f 84 9d 03 00
	00		 je	 $LN90@ioINILoade
  000b2	80 f2 ec	 xor	 dl, -20			; ffffffecH
  000b5	88 50 09	 mov	 BYTE PTR [eax+9], dl
  000b8	8a 51 0a	 mov	 dl, BYTE PTR [ecx+10]
  000bb	84 d2		 test	 dl, dl
  000bd	0f 84 87 03 00
	00		 je	 $LN89@ioINILoade
  000c3	32 d3		 xor	 dl, bl
  000c5	88 50 0a	 mov	 BYTE PTR [eax+10], dl
  000c8	8a 51 0b	 mov	 dl, BYTE PTR [ecx+11]
  000cb	84 d2		 test	 dl, dl
  000cd	0f 84 71 03 00
	00		 je	 $LN88@ioINILoade
  000d3	80 f2 ea	 xor	 dl, -22			; ffffffeaH
  000d6	88 50 0b	 mov	 BYTE PTR [eax+11], dl
  000d9	8a 51 0c	 mov	 dl, BYTE PTR [ecx+12]
  000dc	84 d2		 test	 dl, dl
  000de	0f 84 5a 03 00
	00		 je	 $LN87@ioINILoade
  000e4	80 f2 ed	 xor	 dl, -19			; ffffffedH
  000e7	88 50 0c	 mov	 BYTE PTR [eax+12], dl
  000ea	8a 51 0d	 mov	 dl, BYTE PTR [ecx+13]
  000ed	84 d2		 test	 dl, dl
  000ef	0f 84 43 03 00
	00		 je	 $LN86@ioINILoade
  000f5	80 f2 ec	 xor	 dl, -20			; ffffffecH
  000f8	88 50 0d	 mov	 BYTE PTR [eax+13], dl
  000fb	8a 51 0e	 mov	 dl, BYTE PTR [ecx+14]
  000fe	84 d2		 test	 dl, dl
  00100	0f 84 2d 03 00
	00		 je	 $LN85@ioINILoade
  00106	32 d3		 xor	 dl, bl
  00108	88 50 0e	 mov	 BYTE PTR [eax+14], dl
  0010b	8a 51 0f	 mov	 dl, BYTE PTR [ecx+15]
  0010e	84 d2		 test	 dl, dl
  00110	0f 84 17 03 00
	00		 je	 $LN84@ioINILoade
  00116	80 f2 ea	 xor	 dl, -22			; ffffffeaH
  00119	88 50 0f	 mov	 BYTE PTR [eax+15], dl
  0011c	8a 51 10	 mov	 dl, BYTE PTR [ecx+16]
  0011f	84 d2		 test	 dl, dl
  00121	0f 84 00 03 00
	00		 je	 $LN83@ioINILoade
  00127	80 f2 ed	 xor	 dl, -19			; ffffffedH
  0012a	88 50 10	 mov	 BYTE PTR [eax+16], dl
  0012d	8a 51 11	 mov	 dl, BYTE PTR [ecx+17]
  00130	84 d2		 test	 dl, dl
  00132	0f 84 e9 02 00
	00		 je	 $LN82@ioINILoade
  00138	80 f2 ec	 xor	 dl, -20			; ffffffecH
  0013b	88 50 11	 mov	 BYTE PTR [eax+17], dl
  0013e	8a 51 12	 mov	 dl, BYTE PTR [ecx+18]
  00141	84 d2		 test	 dl, dl
  00143	0f 84 d3 02 00
	00		 je	 $LN81@ioINILoade
  00149	32 d3		 xor	 dl, bl
  0014b	88 50 12	 mov	 BYTE PTR [eax+18], dl
  0014e	8a 51 13	 mov	 dl, BYTE PTR [ecx+19]
  00151	84 d2		 test	 dl, dl
  00153	0f 84 bd 02 00
	00		 je	 $LN80@ioINILoade
  00159	80 f2 ea	 xor	 dl, -22			; ffffffeaH
  0015c	88 50 13	 mov	 BYTE PTR [eax+19], dl
  0015f	8a 51 14	 mov	 dl, BYTE PTR [ecx+20]
  00162	84 d2		 test	 dl, dl
  00164	0f 84 a6 02 00
	00		 je	 $LN79@ioINILoade
  0016a	80 f2 ed	 xor	 dl, -19			; ffffffedH
  0016d	88 50 14	 mov	 BYTE PTR [eax+20], dl
  00170	8a 51 15	 mov	 dl, BYTE PTR [ecx+21]
  00173	84 d2		 test	 dl, dl
  00175	0f 84 8f 02 00
	00		 je	 $LN78@ioINILoade
  0017b	80 f2 ec	 xor	 dl, -20			; ffffffecH
  0017e	88 50 15	 mov	 BYTE PTR [eax+21], dl
  00181	8a 51 16	 mov	 dl, BYTE PTR [ecx+22]
  00184	84 d2		 test	 dl, dl
  00186	0f 84 79 02 00
	00		 je	 $LN77@ioINILoade
  0018c	32 d3		 xor	 dl, bl
  0018e	88 50 16	 mov	 BYTE PTR [eax+22], dl
  00191	8a 51 17	 mov	 dl, BYTE PTR [ecx+23]
  00194	84 d2		 test	 dl, dl
  00196	0f 84 60 02 00
	00		 je	 $LN76@ioINILoade
  0019c	80 f2 ea	 xor	 dl, -22			; ffffffeaH
  0019f	88 50 17	 mov	 BYTE PTR [eax+23], dl
  001a2	8a 51 18	 mov	 dl, BYTE PTR [ecx+24]
  001a5	84 d2		 test	 dl, dl
  001a7	0f 84 46 02 00
	00		 je	 $LN75@ioINILoade
  001ad	80 f2 ed	 xor	 dl, -19			; ffffffedH
  001b0	88 50 18	 mov	 BYTE PTR [eax+24], dl
  001b3	8a 51 19	 mov	 dl, BYTE PTR [ecx+25]
  001b6	84 d2		 test	 dl, dl
  001b8	0f 84 2c 02 00
	00		 je	 $LN74@ioINILoade
  001be	80 f2 ec	 xor	 dl, -20			; ffffffecH
  001c1	88 50 19	 mov	 BYTE PTR [eax+25], dl
  001c4	8a 51 1a	 mov	 dl, BYTE PTR [ecx+26]
  001c7	84 d2		 test	 dl, dl
  001c9	0f 84 13 02 00
	00		 je	 $LN73@ioINILoade
  001cf	32 d3		 xor	 dl, bl
  001d1	88 50 1a	 mov	 BYTE PTR [eax+26], dl
  001d4	8a 51 1b	 mov	 dl, BYTE PTR [ecx+27]
  001d7	84 d2		 test	 dl, dl
  001d9	0f 84 fa 01 00
	00		 je	 $LN72@ioINILoade
  001df	80 f2 ea	 xor	 dl, -22			; ffffffeaH
  001e2	88 50 1b	 mov	 BYTE PTR [eax+27], dl
  001e5	8a 51 1c	 mov	 dl, BYTE PTR [ecx+28]
  001e8	84 d2		 test	 dl, dl
  001ea	0f 84 e0 01 00
	00		 je	 $LN71@ioINILoade
  001f0	80 f2 ed	 xor	 dl, -19			; ffffffedH
  001f3	88 50 1c	 mov	 BYTE PTR [eax+28], dl
  001f6	8a 51 1d	 mov	 dl, BYTE PTR [ecx+29]
  001f9	84 d2		 test	 dl, dl
  001fb	0f 84 c6 01 00
	00		 je	 $LN70@ioINILoade
  00201	80 f2 ec	 xor	 dl, -20			; ffffffecH
  00204	88 50 1d	 mov	 BYTE PTR [eax+29], dl
  00207	8a 51 1e	 mov	 dl, BYTE PTR [ecx+30]
  0020a	84 d2		 test	 dl, dl
  0020c	0f 84 ad 01 00
	00		 je	 $LN69@ioINILoade
  00212	32 d3		 xor	 dl, bl
  00214	88 50 1e	 mov	 BYTE PTR [eax+30], dl
  00217	8a 51 1f	 mov	 dl, BYTE PTR [ecx+31]
  0021a	84 d2		 test	 dl, dl
  0021c	0f 84 94 01 00
	00		 je	 $LN68@ioINILoade
  00222	80 f2 ea	 xor	 dl, -22			; ffffffeaH
  00225	88 50 1f	 mov	 BYTE PTR [eax+31], dl
  00228	8a 51 20	 mov	 dl, BYTE PTR [ecx+32]
  0022b	84 d2		 test	 dl, dl
  0022d	0f 84 7a 01 00
	00		 je	 $LN67@ioINILoade
  00233	80 f2 ed	 xor	 dl, -19			; ffffffedH
  00236	88 50 20	 mov	 BYTE PTR [eax+32], dl
  00239	8a 51 21	 mov	 dl, BYTE PTR [ecx+33]
  0023c	84 d2		 test	 dl, dl
  0023e	0f 84 60 01 00
	00		 je	 $LN66@ioINILoade
  00244	80 f2 ec	 xor	 dl, -20			; ffffffecH
  00247	88 50 21	 mov	 BYTE PTR [eax+33], dl
  0024a	8a 51 22	 mov	 dl, BYTE PTR [ecx+34]
  0024d	84 d2		 test	 dl, dl
  0024f	0f 84 47 01 00
	00		 je	 $LN65@ioINILoade
  00255	32 d3		 xor	 dl, bl
  00257	88 50 22	 mov	 BYTE PTR [eax+34], dl
  0025a	8a 51 23	 mov	 dl, BYTE PTR [ecx+35]
  0025d	84 d2		 test	 dl, dl
  0025f	0f 84 2e 01 00
	00		 je	 $LN64@ioINILoade
  00265	80 f2 ea	 xor	 dl, -22			; ffffffeaH
  00268	88 50 23	 mov	 BYTE PTR [eax+35], dl
  0026b	8a 51 24	 mov	 dl, BYTE PTR [ecx+36]
  0026e	84 d2		 test	 dl, dl
  00270	0f 84 14 01 00
	00		 je	 $LN63@ioINILoade
  00276	80 f2 ed	 xor	 dl, -19			; ffffffedH
  00279	88 50 24	 mov	 BYTE PTR [eax+36], dl
  0027c	8a 51 25	 mov	 dl, BYTE PTR [ecx+37]
  0027f	84 d2		 test	 dl, dl
  00281	0f 84 fa 00 00
	00		 je	 $LN62@ioINILoade
  00287	80 f2 ec	 xor	 dl, -20			; ffffffecH
  0028a	88 50 25	 mov	 BYTE PTR [eax+37], dl
  0028d	8a 51 26	 mov	 dl, BYTE PTR [ecx+38]
  00290	84 d2		 test	 dl, dl
  00292	0f 84 e1 00 00
	00		 je	 $LN61@ioINILoade
  00298	32 d3		 xor	 dl, bl
  0029a	88 50 26	 mov	 BYTE PTR [eax+38], dl
  0029d	8a 51 27	 mov	 dl, BYTE PTR [ecx+39]
  002a0	84 d2		 test	 dl, dl
  002a2	0f 84 c8 00 00
	00		 je	 $LN60@ioINILoade
  002a8	80 f2 ea	 xor	 dl, -22			; ffffffeaH
  002ab	88 50 27	 mov	 BYTE PTR [eax+39], dl
  002ae	8a 51 28	 mov	 dl, BYTE PTR [ecx+40]
  002b1	84 d2		 test	 dl, dl
  002b3	0f 84 ae 00 00
	00		 je	 $LN59@ioINILoade
  002b9	80 f2 ed	 xor	 dl, -19			; ffffffedH
  002bc	88 50 28	 mov	 BYTE PTR [eax+40], dl
  002bf	8a 51 29	 mov	 dl, BYTE PTR [ecx+41]
  002c2	84 d2		 test	 dl, dl
  002c4	0f 84 94 00 00
	00		 je	 $LN58@ioINILoade
  002ca	80 f2 ec	 xor	 dl, -20			; ffffffecH
  002cd	88 50 29	 mov	 BYTE PTR [eax+41], dl
  002d0	8a 51 2a	 mov	 dl, BYTE PTR [ecx+42]
  002d3	84 d2		 test	 dl, dl
  002d5	74 7f		 je	 SHORT $LN57@ioINILoade
  002d7	32 d3		 xor	 dl, bl
  002d9	88 50 2a	 mov	 BYTE PTR [eax+42], dl
  002dc	8a 51 2b	 mov	 dl, BYTE PTR [ecx+43]
  002df	84 d2		 test	 dl, dl
  002e1	74 6a		 je	 SHORT $LN56@ioINILoade
  002e3	80 f2 ea	 xor	 dl, -22			; ffffffeaH
  002e6	88 50 2b	 mov	 BYTE PTR [eax+43], dl
  002e9	8a 51 2c	 mov	 dl, BYTE PTR [ecx+44]
  002ec	84 d2		 test	 dl, dl
  002ee	74 54		 je	 SHORT $LN55@ioINILoade
  002f0	80 f2 ed	 xor	 dl, -19			; ffffffedH
  002f3	88 50 2c	 mov	 BYTE PTR [eax+44], dl
  002f6	8a 51 2d	 mov	 dl, BYTE PTR [ecx+45]
  002f9	84 d2		 test	 dl, dl
  002fb	74 3e		 je	 SHORT $LN54@ioINILoade
  002fd	80 f2 ec	 xor	 dl, -20			; ffffffecH
  00300	88 50 2d	 mov	 BYTE PTR [eax+45], dl
  00303	8a 51 2e	 mov	 dl, BYTE PTR [ecx+46]
  00306	84 d2		 test	 dl, dl
  00308	74 29		 je	 SHORT $LN53@ioINILoade
  0030a	32 d3		 xor	 dl, bl
  0030c	88 50 2e	 mov	 BYTE PTR [eax+46], dl
  0030f	8a 51 2f	 mov	 dl, BYTE PTR [ecx+47]
  00312	84 d2		 test	 dl, dl
  00314	74 14		 je	 SHORT $LN52@ioINILoade
  00316	80 f2 ea	 xor	 dl, -22			; ffffffeaH
  00319	88 50 2f	 mov	 BYTE PTR [eax+47], dl
  0031c	8a 49 30	 mov	 cl, BYTE PTR [ecx+48]
  0031f	80 f1 ed	 xor	 cl, -19			; ffffffedH
  00322	88 48 30	 mov	 BYTE PTR [eax+48], cl
  00325	e9 5d 01 00 00	 jmp	 $LN4@ioINILoade
$LN52@ioINILoade:
  0032a	c6 40 2f ea	 mov	 BYTE PTR [eax+47], -22	; ffffffeaH
  0032e	e9 54 01 00 00	 jmp	 $LN4@ioINILoade
$LN53@ioINILoade:
  00333	88 58 2e	 mov	 BYTE PTR [eax+46], bl
  00336	e9 4c 01 00 00	 jmp	 $LN4@ioINILoade
$LN54@ioINILoade:
  0033b	c6 40 2d ec	 mov	 BYTE PTR [eax+45], -20	; ffffffecH
  0033f	e9 43 01 00 00	 jmp	 $LN4@ioINILoade
$LN55@ioINILoade:
  00344	c6 40 2c ed	 mov	 BYTE PTR [eax+44], -19	; ffffffedH
  00348	e9 3a 01 00 00	 jmp	 $LN4@ioINILoade
$LN56@ioINILoade:
  0034d	c6 40 2b ea	 mov	 BYTE PTR [eax+43], -22	; ffffffeaH
  00351	e9 31 01 00 00	 jmp	 $LN4@ioINILoade
$LN57@ioINILoade:
  00356	88 58 2a	 mov	 BYTE PTR [eax+42], bl
  00359	e9 29 01 00 00	 jmp	 $LN4@ioINILoade
$LN58@ioINILoade:
  0035e	c6 40 29 ec	 mov	 BYTE PTR [eax+41], -20	; ffffffecH
  00362	e9 20 01 00 00	 jmp	 $LN4@ioINILoade
$LN59@ioINILoade:
  00367	c6 40 28 ed	 mov	 BYTE PTR [eax+40], -19	; ffffffedH
  0036b	e9 17 01 00 00	 jmp	 $LN4@ioINILoade
$LN60@ioINILoade:
  00370	c6 40 27 ea	 mov	 BYTE PTR [eax+39], -22	; ffffffeaH
  00374	e9 0e 01 00 00	 jmp	 $LN4@ioINILoade
$LN61@ioINILoade:
  00379	88 58 26	 mov	 BYTE PTR [eax+38], bl
  0037c	e9 06 01 00 00	 jmp	 $LN4@ioINILoade
$LN62@ioINILoade:
  00381	c6 40 25 ec	 mov	 BYTE PTR [eax+37], -20	; ffffffecH
  00385	e9 fd 00 00 00	 jmp	 $LN4@ioINILoade
$LN63@ioINILoade:
  0038a	c6 40 24 ed	 mov	 BYTE PTR [eax+36], -19	; ffffffedH
  0038e	e9 f4 00 00 00	 jmp	 $LN4@ioINILoade
$LN64@ioINILoade:
  00393	c6 40 23 ea	 mov	 BYTE PTR [eax+35], -22	; ffffffeaH
  00397	e9 eb 00 00 00	 jmp	 $LN4@ioINILoade
$LN65@ioINILoade:
  0039c	88 58 22	 mov	 BYTE PTR [eax+34], bl
  0039f	e9 e3 00 00 00	 jmp	 $LN4@ioINILoade
$LN66@ioINILoade:
  003a4	c6 40 21 ec	 mov	 BYTE PTR [eax+33], -20	; ffffffecH
  003a8	e9 da 00 00 00	 jmp	 $LN4@ioINILoade
$LN67@ioINILoade:
  003ad	c6 40 20 ed	 mov	 BYTE PTR [eax+32], -19	; ffffffedH
  003b1	e9 d1 00 00 00	 jmp	 $LN4@ioINILoade
$LN68@ioINILoade:
  003b6	c6 40 1f ea	 mov	 BYTE PTR [eax+31], -22	; ffffffeaH
  003ba	e9 c8 00 00 00	 jmp	 $LN4@ioINILoade
$LN69@ioINILoade:
  003bf	88 58 1e	 mov	 BYTE PTR [eax+30], bl
  003c2	e9 c0 00 00 00	 jmp	 $LN4@ioINILoade
$LN70@ioINILoade:
  003c7	c6 40 1d ec	 mov	 BYTE PTR [eax+29], -20	; ffffffecH
  003cb	e9 b7 00 00 00	 jmp	 $LN4@ioINILoade
$LN71@ioINILoade:
  003d0	c6 40 1c ed	 mov	 BYTE PTR [eax+28], -19	; ffffffedH
  003d4	e9 ae 00 00 00	 jmp	 $LN4@ioINILoade
$LN72@ioINILoade:
  003d9	c6 40 1b ea	 mov	 BYTE PTR [eax+27], -22	; ffffffeaH
  003dd	e9 a5 00 00 00	 jmp	 $LN4@ioINILoade
$LN73@ioINILoade:
  003e2	88 58 1a	 mov	 BYTE PTR [eax+26], bl
  003e5	e9 9d 00 00 00	 jmp	 $LN4@ioINILoade
$LN74@ioINILoade:
  003ea	c6 40 19 ec	 mov	 BYTE PTR [eax+25], -20	; ffffffecH
  003ee	e9 94 00 00 00	 jmp	 $LN4@ioINILoade
$LN75@ioINILoade:
  003f3	c6 40 18 ed	 mov	 BYTE PTR [eax+24], -19	; ffffffedH
  003f7	e9 8b 00 00 00	 jmp	 $LN4@ioINILoade
$LN76@ioINILoade:
  003fc	c6 40 17 ea	 mov	 BYTE PTR [eax+23], -22	; ffffffeaH
  00400	e9 82 00 00 00	 jmp	 $LN4@ioINILoade
$LN77@ioINILoade:
  00405	88 58 16	 mov	 BYTE PTR [eax+22], bl
  00408	eb 7d		 jmp	 SHORT $LN4@ioINILoade
$LN78@ioINILoade:
  0040a	c6 40 15 ec	 mov	 BYTE PTR [eax+21], -20	; ffffffecH
  0040e	eb 77		 jmp	 SHORT $LN4@ioINILoade
$LN79@ioINILoade:
  00410	c6 40 14 ed	 mov	 BYTE PTR [eax+20], -19	; ffffffedH
  00414	eb 71		 jmp	 SHORT $LN4@ioINILoade
$LN80@ioINILoade:
  00416	c6 40 13 ea	 mov	 BYTE PTR [eax+19], -22	; ffffffeaH
  0041a	eb 6b		 jmp	 SHORT $LN4@ioINILoade
$LN81@ioINILoade:
  0041c	88 58 12	 mov	 BYTE PTR [eax+18], bl
  0041f	eb 66		 jmp	 SHORT $LN4@ioINILoade
$LN82@ioINILoade:
  00421	c6 40 11 ec	 mov	 BYTE PTR [eax+17], -20	; ffffffecH
  00425	eb 60		 jmp	 SHORT $LN4@ioINILoade
$LN83@ioINILoade:
  00427	c6 40 10 ed	 mov	 BYTE PTR [eax+16], -19	; ffffffedH
  0042b	eb 5a		 jmp	 SHORT $LN4@ioINILoade
$LN84@ioINILoade:
  0042d	c6 40 0f ea	 mov	 BYTE PTR [eax+15], -22	; ffffffeaH
  00431	eb 54		 jmp	 SHORT $LN4@ioINILoade
$LN85@ioINILoade:
  00433	88 58 0e	 mov	 BYTE PTR [eax+14], bl
  00436	eb 4f		 jmp	 SHORT $LN4@ioINILoade
$LN86@ioINILoade:
  00438	c6 40 0d ec	 mov	 BYTE PTR [eax+13], -20	; ffffffecH
  0043c	eb 49		 jmp	 SHORT $LN4@ioINILoade
$LN87@ioINILoade:
  0043e	c6 40 0c ed	 mov	 BYTE PTR [eax+12], -19	; ffffffedH
  00442	eb 43		 jmp	 SHORT $LN4@ioINILoade
$LN88@ioINILoade:
  00444	c6 40 0b ea	 mov	 BYTE PTR [eax+11], -22	; ffffffeaH
  00448	eb 3d		 jmp	 SHORT $LN4@ioINILoade
$LN89@ioINILoade:
  0044a	88 58 0a	 mov	 BYTE PTR [eax+10], bl
  0044d	eb 38		 jmp	 SHORT $LN4@ioINILoade
$LN90@ioINILoade:
  0044f	c6 40 09 ec	 mov	 BYTE PTR [eax+9], -20	; ffffffecH
  00453	eb 32		 jmp	 SHORT $LN4@ioINILoade
$LN91@ioINILoade:
  00455	c6 40 08 ed	 mov	 BYTE PTR [eax+8], -19	; ffffffedH
  00459	eb 2c		 jmp	 SHORT $LN4@ioINILoade
$LN92@ioINILoade:
  0045b	c6 40 07 ea	 mov	 BYTE PTR [eax+7], -22	; ffffffeaH
  0045f	eb 26		 jmp	 SHORT $LN4@ioINILoade
$LN93@ioINILoade:
  00461	88 58 06	 mov	 BYTE PTR [eax+6], bl
  00464	eb 21		 jmp	 SHORT $LN4@ioINILoade
$LN94@ioINILoade:
  00466	c6 40 05 ec	 mov	 BYTE PTR [eax+5], -20	; ffffffecH
  0046a	eb 1b		 jmp	 SHORT $LN4@ioINILoade
$LN95@ioINILoade:
  0046c	c6 40 04 ed	 mov	 BYTE PTR [eax+4], -19	; ffffffedH
  00470	eb 15		 jmp	 SHORT $LN4@ioINILoade
$LN96@ioINILoade:
  00472	c6 40 03 ea	 mov	 BYTE PTR [eax+3], -22	; ffffffeaH
  00476	eb 0f		 jmp	 SHORT $LN4@ioINILoade
$LN97@ioINILoade:
  00478	c6 40 02 eb	 mov	 BYTE PTR [eax+2], -21	; ffffffebH
  0047c	eb 09		 jmp	 SHORT $LN4@ioINILoade
$LN98@ioINILoade:
  0047e	c6 40 01 ec	 mov	 BYTE PTR [eax+1], -20	; ffffffecH
  00482	eb 03		 jmp	 SHORT $LN4@ioINILoade
$LN99@ioINILoade:
  00484	c6 00 ed	 mov	 BYTE PTR [eax], -19	; ffffffedH
$LN4@ioINILoade:
  00487	6a 06		 push	 6
  00489	8b c8		 mov	 ecx, eax
  0048b	c6 40 19 00	 mov	 BYTE PTR [eax+25], 0
  0048f	5a		 pop	 edx
$LL107@ioINILoade:
  00490	81 31 ed ec eb
	ea		 xor	 DWORD PTR [ecx], -353637139 ; eaebecedH
  00496	83 c1 04	 add	 ecx, 4
  00499	4a		 dec	 edx
  0049a	75 f4		 jne	 SHORT $LL107@ioINILoade
  0049c	ff 75 0c	 push	 DWORD PTR _b$[ebp]
  0049f	80 70 18 ed	 xor	 BYTE PTR [eax+24], -19	; ffffffedH
  004a3	50		 push	 eax
  004a4	8b ce		 mov	 ecx, esi
  004a6	ff 15 00 00 00
	00		 call	 DWORD PTR __imp_??0ioINILoader@@QAE@PBD_N@Z

; 225  : 	}

  004ac	8b c6		 mov	 eax, esi
  004ae	5e		 pop	 esi
  004af	5b		 pop	 ebx
  004b0	5d		 pop	 ebp
  004b1	c2 08 00	 ret	 8
??$?0$0BK@@ioINILoader_e@@QAE@AAY0BK@$$CBD_N@Z ENDP	; ioINILoader_e::ioINILoader_e<26>
_TEXT	ENDS
PUBLIC	??_C@_00CNPNBAHC@?$AA@				; `string'
PUBLIC	_this$GSCopy$
PUBLIC	?LoadINIData@ioFieldItemMgr@@QAEXXZ		; ioFieldItemMgr::LoadINIData
EXTRN	__imp_??4ioHashString@@QAEAAV0@PBD@Z:PROC
EXTRN	__EH_epilog3_GS:PROC
EXTRN	__EH_prolog3_GS:PROC
EXTRN	_memset:PROC
;	COMDAT ??_C@_00CNPNBAHC@?$AA@
; File d:\lost saga for developer\youtube\tutorial\source\src\lsclient\iofielditemmgr.cpp
CONST	SEGMENT
??_C@_00CNPNBAHC@?$AA@ DB 00H				; `string'
CONST	ENDS
;	COMDAT xdata$x
xdata$x	SEGMENT
__unwindtable$?LoadINIData@ioFieldItemMgr@@QAEXXZ DD 0ffffffffH
	DD	FLAT:__unwindfunclet$?LoadINIData@ioFieldItemMgr@@QAEXXZ$0
__ehfuncinfo$?LoadINIData@ioFieldItemMgr@@QAEXXZ DD 019930522H
	DD	01H
	DD	FLAT:__unwindtable$?LoadINIData@ioFieldItemMgr@@QAEXXZ
	DD	2 DUP(00H)
	DD	2 DUP(00H)
	DD	00H
	DD	01H
; Function compile flags: /Ogsp
xdata$x	ENDS
;	COMDAT ?LoadINIData@ioFieldItemMgr@@QAEXXZ
_TEXT	SEGMENT
_this$GSCopy$ = -1236					; size = 4
_value$507444 = -1236					; size = 4
_value$507314 = -1236					; size = 4
_kLoader$ = -1232					; size = 912
_szBuf$ = -320						; size = 260
__t$506826 = -60					; size = 7
__k$507403 = -48					; size = 22
__k$507089 = -48					; size = 25
__k$507214 = -44					; size = 19
__k$506964 = -44					; size = 20
__$EHRec$ = -12						; size = 12
?LoadINIData@ioFieldItemMgr@@QAEXXZ PROC		; ioFieldItemMgr::LoadINIData, COMDAT
; _this$ = ecx

; 22   : {

  00000	68 c8 04 00 00	 push	 1224			; 000004c8H
  00005	b8 00 00 00 00	 mov	 eax, __ehhandler$?LoadINIData@ioFieldItemMgr@@QAEXXZ
  0000a	e8 00 00 00 00	 call	 __EH_prolog3_GS

; 23   : 	char szBuf[MAX_PATH] = "";

  0000f	68 03 01 00 00	 push	 259			; 00000103H
  00014	8d 85 c1 fe ff
	ff		 lea	 eax, DWORD PTR _szBuf$[ebp+1]
  0001a	8b f9		 mov	 edi, ecx
  0001c	6a 00		 push	 0
  0001e	50		 push	 eax

; 30   : 	kLoader.LoadString_e( "default_item_over_effect", "", szBuf, MAX_PATH );

  0001f	89 bd 2c fb ff
	ff		 mov	 DWORD PTR _this$GSCopy$[ebp], edi
  00025	c6 85 c0 fe ff
	ff 00		 mov	 BYTE PTR _szBuf$[ebp], 0
  0002c	e8 00 00 00 00	 call	 _memset
  00031	83 c4 0c	 add	 esp, 12			; 0000000cH
  00034	6a 06		 push	 6
  00036	c7 85 80 fe ff
	ff 8e 83 85 8c	 mov	 DWORD PTR _kLoader$[ebp+848], -1937407090 ; 8c85838eH
  00040	c7 85 84 fe ff
	ff 84 8b c4 99	 mov	 DWORD PTR _kLoader$[ebp+852], -1715172476 ; 99c48b84H
  0004a	c7 85 88 fe ff
	ff 9d de b4 8c	 mov	 DWORD PTR _kLoader$[ebp+856], -1934303587 ; 8cb4de9dH
  00054	c7 85 8c fe ff
	ff 84 89 87 8e	 mov	 DWORD PTR _kLoader$[ebp+860], -1903720060 ; 8e878984H
  0005e	c7 85 90 fe ff
	ff b2 85 9f 8f	 mov	 DWORD PTR _kLoader$[ebp+864], -1885370958 ; 8f9f85b2H
  00068	c7 85 94 fe ff
	ff 80 c2 82 84	 mov	 DWORD PTR _kLoader$[ebp+868], -2071805312 ; 8482c280H
  00072	8d 85 80 fe ff
	ff		 lea	 eax, DWORD PTR _kLoader$[ebp+848]
  00078	66 c7 85 98 fe
	ff ff 84 00	 mov	 WORD PTR _kLoader$[ebp+872], 132 ; 00000084H
  00081	59		 pop	 ecx
$LL110@LoadINIDat:

; 24   : 	
; 25   : 	ioINILoader_e kLoader( "config/sp2_field_item.ini" );

  00082	81 30 ed ec eb
	ea		 xor	 DWORD PTR [eax], -353637139 ; eaebecedH
  00088	83 c0 04	 add	 eax, 4
  0008b	49		 dec	 ecx
  0008c	75 f4		 jne	 SHORT $LL110@LoadINIDat
  0008e	80 b5 98 fe ff
	ff ed		 xor	 BYTE PTR _kLoader$[ebp+872], -19 ; ffffffedH
  00095	6a 01		 push	 1
  00097	8d 85 80 fe ff
	ff		 lea	 eax, DWORD PTR _kLoader$[ebp+848]
  0009d	50		 push	 eax
  0009e	8d 8d 30 fb ff
	ff		 lea	 ecx, DWORD PTR _kLoader$[ebp]
  000a4	ff 15 00 00 00
	00		 call	 DWORD PTR __imp_??0ioINILoader@@QAE@PBD_N@Z
  000aa	83 65 fc 00	 and	 DWORD PTR __$EHRec$[ebp+8], 0

; 26   : 	kLoader.SetTitle_e( "common" );

  000ae	be ed ec eb ea	 mov	 esi, -353637139		; eaebecedH
  000b3	6a 04		 push	 4
  000b5	c7 45 c4 8e 83
	86 87		 mov	 DWORD PTR __t$506826[ebp], -2021227634 ; 8786838eH
  000bc	31 75 c4	 xor	 DWORD PTR __t$506826[ebp], esi
  000bf	66 c7 45 c8 82
	82		 mov	 WORD PTR __t$506826[ebp+4], 33410 ; 00008282H
  000c5	c6 45 ca 00	 mov	 BYTE PTR __t$506826[ebp+6], 0
  000c9	58		 pop	 eax
$LL213@LoadINIDat:
  000ca	8b c8		 mov	 ecx, eax
  000cc	81 e1 03 00 00
	80		 and	 ecx, -2147483645	; 80000003H
  000d2	79 05		 jns	 SHORT $LN675@LoadINIDat
  000d4	49		 dec	 ecx
  000d5	83 c9 fc	 or	 ecx, -4			; fffffffcH
  000d8	41		 inc	 ecx
$LN675@LoadINIDat:
  000d9	b2 ed		 mov	 dl, -19			; ffffffedH
  000db	2a d1		 sub	 dl, cl
  000dd	30 54 05 c4	 xor	 BYTE PTR __t$506826[ebp+eax], dl
  000e1	40		 inc	 eax
  000e2	83 f8 06	 cmp	 eax, 6
  000e5	7c e3		 jl	 SHORT $LL213@LoadINIDat
  000e7	8d 45 c4	 lea	 eax, DWORD PTR __t$506826[ebp]
  000ea	50		 push	 eax
  000eb	8d 8d 30 fb ff
	ff		 lea	 ecx, DWORD PTR _kLoader$[ebp]
  000f1	ff 15 00 00 00
	00		 call	 DWORD PTR __imp_?SetTitle@ioINILoader@@QAEXPBD@Z
  000f7	6a 04		 push	 4

; 27   : 
; 28   : 	kLoader.LoadString_e( "default_item_effect", "", szBuf, MAX_PATH );

  000f9	c7 45 d4 89 89
	8d 8b		 mov	 DWORD PTR __k$506964[ebp], -1953658487 ; 8b8d8989H
  00100	c7 45 d8 98 80
	9f b5		 mov	 DWORD PTR __k$506964[ebp+4], -1247838056 ; b59f8098H
  00107	c7 45 dc 84 98
	8e 87		 mov	 DWORD PTR __k$506964[ebp+8], -2020697980 ; 878e9884H
  0010e	c7 45 e0 b2 89
	8d 8c		 mov	 DWORD PTR __k$506964[ebp+12], -1936881230 ; 8c8d89b2H
  00115	8d 45 d4	 lea	 eax, DWORD PTR __k$506964[ebp]
  00118	c7 45 e4 88 8f
	9f 00		 mov	 DWORD PTR __k$506964[ebp+16], 10456968 ; 009f8f88H
  0011f	59		 pop	 ecx
$LL322@LoadINIDat:
  00120	31 30		 xor	 DWORD PTR [eax], esi
  00122	83 c0 04	 add	 eax, 4
  00125	49		 dec	 ecx
  00126	75 f8		 jne	 SHORT $LL322@LoadINIDat
  00128	6a 10		 push	 16			; 00000010H
  0012a	58		 pop	 eax
$LL319@LoadINIDat:
  0012b	8b c8		 mov	 ecx, eax
  0012d	81 e1 03 00 00
	80		 and	 ecx, -2147483645	; 80000003H
  00133	79 05		 jns	 SHORT $LN676@LoadINIDat
  00135	49		 dec	 ecx
  00136	83 c9 fc	 or	 ecx, -4			; fffffffcH
  00139	41		 inc	 ecx
$LN676@LoadINIDat:
  0013a	b2 ed		 mov	 dl, -19			; ffffffedH
  0013c	2a d1		 sub	 dl, cl
  0013e	30 54 05 d4	 xor	 BYTE PTR __k$506964[ebp+eax], dl
  00142	40		 inc	 eax
  00143	83 f8 13	 cmp	 eax, 19			; 00000013H
  00146	7c e3		 jl	 SHORT $LL319@LoadINIDat
  00148	8b 35 00 00 00
	00		 mov	 esi, DWORD PTR __imp_?LoadStringA@ioINILoader@@QAEXPBD0PADH@Z
  0014e	68 04 01 00 00	 push	 260			; 00000104H
  00153	8d 85 c0 fe ff
	ff		 lea	 eax, DWORD PTR _szBuf$[ebp]
  00159	50		 push	 eax
  0015a	bb 00 00 00 00	 mov	 ebx, OFFSET ??_C@_00CNPNBAHC@?$AA@
  0015f	53		 push	 ebx
  00160	8d 45 d4	 lea	 eax, DWORD PTR __k$506964[ebp]
  00163	50		 push	 eax
  00164	8d 8d 30 fb ff
	ff		 lea	 ecx, DWORD PTR _kLoader$[ebp]
  0016a	ff d6		 call	 esi

; 29   : 	m_DefaultItemEffect = szBuf;

  0016c	8d 85 c0 fe ff
	ff		 lea	 eax, DWORD PTR _szBuf$[ebp]
  00172	8d 4f 04	 lea	 ecx, DWORD PTR [edi+4]
  00175	8b 3d 00 00 00
	00		 mov	 edi, DWORD PTR __imp_??4ioHashString@@QAEAAV0@PBD@Z
  0017b	50		 push	 eax
  0017c	ff d7		 call	 edi
  0017e	6a 06		 push	 6

; 30   : 	kLoader.LoadString_e( "default_item_over_effect", "", szBuf, MAX_PATH );

  00180	c7 45 d0 89 89
	8d 8b		 mov	 DWORD PTR __k$507089[ebp], -1953658487 ; 8b8d8989H
  00187	c7 45 d4 98 80
	9f b5		 mov	 DWORD PTR __k$507089[ebp+4], -1247838056 ; b59f8098H
  0018e	c7 45 d8 84 98
	8e 87		 mov	 DWORD PTR __k$507089[ebp+8], -2020697980 ; 878e9884H
  00195	c7 45 dc b2 83
	9d 8f		 mov	 DWORD PTR __k$507089[ebp+12], -1885502542 ; 8f9d83b2H
  0019c	c7 45 e0 9f b3
	8e 8c		 mov	 DWORD PTR __k$507089[ebp+16], -1936804961 ; 8c8eb39fH
  001a3	c7 45 e4 8b 89
	88 9e		 mov	 DWORD PTR __k$507089[ebp+20], -1635219061 ; 9e88898bH
  001aa	8d 45 d0	 lea	 eax, DWORD PTR __k$507089[ebp]
  001ad	c6 45 e8 00	 mov	 BYTE PTR __k$507089[ebp+24], 0
  001b1	59		 pop	 ecx
$LL428@LoadINIDat:
  001b2	81 30 ed ec eb
	ea		 xor	 DWORD PTR [eax], -353637139 ; eaebecedH
  001b8	83 c0 04	 add	 eax, 4
  001bb	49		 dec	 ecx
  001bc	75 f4		 jne	 SHORT $LL428@LoadINIDat
  001be	68 04 01 00 00	 push	 260			; 00000104H
  001c3	8d 85 c0 fe ff
	ff		 lea	 eax, DWORD PTR _szBuf$[ebp]
  001c9	50		 push	 eax
  001ca	53		 push	 ebx
  001cb	8d 45 d0	 lea	 eax, DWORD PTR __k$507089[ebp]
  001ce	50		 push	 eax
  001cf	8d 8d 30 fb ff
	ff		 lea	 ecx, DWORD PTR _kLoader$[ebp]
  001d5	ff d6		 call	 esi

; 31   : 	m_DefaultItemOverEffect = szBuf;

  001d7	8b b5 2c fb ff
	ff		 mov	 esi, DWORD PTR _this$GSCopy$[ebp]
  001dd	8d 85 c0 fe ff
	ff		 lea	 eax, DWORD PTR _szBuf$[ebp]
  001e3	50		 push	 eax
  001e4	8d 4e 14	 lea	 ecx, DWORD PTR [esi+20]
  001e7	ff d7		 call	 edi
  001e9	6a 04		 push	 4

; 32   : 
; 33   : 	m_fMoveDropJumpAmt = kLoader.LoadFloat_e( "move_drop_jump_amt", 0.0f );

  001eb	c7 45 d4 80 83
	9d 8f		 mov	 DWORD PTR __k$507214[ebp], -1885502592 ; 8f9d8380H
  001f2	c7 45 d8 b2 88
	99 85		 mov	 DWORD PTR __k$507214[ebp+4], -2053535566 ; 859988b2H
  001f9	c7 45 dc 9d b3
	81 9f		 mov	 DWORD PTR __k$507214[ebp+8], -1618889827 ; 9f81b39dH
  00200	c7 45 e0 80 9c
	b4 8b		 mov	 DWORD PTR __k$507214[ebp+12], -1951097728 ; 8bb49c80H
  00207	66 c7 45 e4 80
	98		 mov	 WORD PTR __k$507214[ebp+16], 39040 ; 00009880H
  0020d	8d 45 d4	 lea	 eax, DWORD PTR __k$507214[ebp]
  00210	c6 45 e6 00	 mov	 BYTE PTR __k$507214[ebp+18], 0
  00214	59		 pop	 ecx
$LL534@LoadINIDat:
  00215	81 30 ed ec eb
	ea		 xor	 DWORD PTR [eax], -353637139 ; eaebecedH
  0021b	83 c0 04	 add	 eax, 4
  0021e	49		 dec	 ecx
  0021f	75 f4		 jne	 SHORT $LL534@LoadINIDat
  00221	6a 10		 push	 16			; 00000010H
  00223	58		 pop	 eax
$LL531@LoadINIDat:
  00224	8b c8		 mov	 ecx, eax
  00226	81 e1 03 00 00
	80		 and	 ecx, -2147483645	; 80000003H
  0022c	79 05		 jns	 SHORT $LN677@LoadINIDat
  0022e	49		 dec	 ecx
  0022f	83 c9 fc	 or	 ecx, -4			; fffffffcH
  00232	41		 inc	 ecx
$LN677@LoadINIDat:
  00233	b2 ed		 mov	 dl, -19			; ffffffedH
  00235	2a d1		 sub	 dl, cl
  00237	30 54 05 d4	 xor	 BYTE PTR __k$507214[ebp+eax], dl
  0023b	40		 inc	 eax
  0023c	83 f8 12	 cmp	 eax, 18			; 00000012H
  0023f	7c e3		 jl	 SHORT $LL531@LoadINIDat
  00241	0f 57 c0	 xorps	 xmm0, xmm0
  00244	51		 push	 ecx
  00245	8d 45 d4	 lea	 eax, DWORD PTR __k$507214[ebp]
  00248	f3 0f 11 04 24	 movss	 DWORD PTR [esp], xmm0
  0024d	50		 push	 eax
  0024e	8d 8d 30 fb ff
	ff		 lea	 ecx, DWORD PTR _kLoader$[ebp]
  00254	ff 15 00 00 00
	00		 call	 DWORD PTR __imp_?LoadFloat@ioINILoader@@QAEMPBDM@Z
  0025a	d9 9d 2c fb ff
	ff		 fstp	 DWORD PTR _value$507314[ebp]
  00260	8d 85 2c fb ff
	ff		 lea	 eax, DWORD PTR _value$507314[ebp]
  00266	50		 push	 eax
  00267	8d 4e 24	 lea	 ecx, DWORD PTR [esi+36]
  0026a	e8 00 00 00 00	 call	 ?EncryptValueToPool@?$CEncrypt@M@@AAEXPBD@Z ; CEncrypt<float>::EncryptValueToPool
  0026f	6a 05		 push	 5

; 34   : 	m_fMoveDropGravityAmt = kLoader.LoadFloat_e( "move_drop_gravity_amt", 0.0f );

  00271	c7 45 d0 80 83
	9d 8f		 mov	 DWORD PTR __k$507403[ebp], -1885502592 ; 8f9d8380H
  00278	c7 45 d4 b2 88
	99 85		 mov	 DWORD PTR __k$507403[ebp+4], -2053535566 ; 859988b2H
  0027f	c7 45 d8 9d b3
	8c 98		 mov	 DWORD PTR __k$507403[ebp+8], -1735609443 ; 988cb39dH
  00286	c7 45 dc 8c 9a
	82 9e		 mov	 DWORD PTR __k$507403[ebp+12], -1635607924 ; 9e829a8cH
  0028d	c7 45 e0 94 b3
	8a 87		 mov	 DWORD PTR __k$507403[ebp+16], -2020953196 ; 878ab394H
  00294	8d 45 d0	 lea	 eax, DWORD PTR __k$507403[ebp]
  00297	66 c7 45 e4 99
	00		 mov	 WORD PTR __k$507403[ebp+20], 153 ; 00000099H
  0029d	59		 pop	 ecx
$LL642@LoadINIDat:
  0029e	81 30 ed ec eb
	ea		 xor	 DWORD PTR [eax], -353637139 ; eaebecedH
  002a4	83 c0 04	 add	 eax, 4
  002a7	49		 dec	 ecx
  002a8	75 f4		 jne	 SHORT $LL642@LoadINIDat
  002aa	0f 57 c0	 xorps	 xmm0, xmm0
  002ad	80 75 e4 ed	 xor	 BYTE PTR __k$507403[ebp+20], -19 ; ffffffedH
  002b1	51		 push	 ecx
  002b2	8d 45 d0	 lea	 eax, DWORD PTR __k$507403[ebp]
  002b5	f3 0f 11 04 24	 movss	 DWORD PTR [esp], xmm0
  002ba	50		 push	 eax
  002bb	8d 8d 30 fb ff
	ff		 lea	 ecx, DWORD PTR _kLoader$[ebp]
  002c1	ff 15 00 00 00
	00		 call	 DWORD PTR __imp_?LoadFloat@ioINILoader@@QAEMPBDM@Z
  002c7	d9 9d 2c fb ff
	ff		 fstp	 DWORD PTR _value$507444[ebp]
  002cd	8d 85 2c fb ff
	ff		 lea	 eax, DWORD PTR _value$507444[ebp]
  002d3	50		 push	 eax
  002d4	8d 4e 54	 lea	 ecx, DWORD PTR [esi+84]
  002d7	e8 00 00 00 00	 call	 ?EncryptValueToPool@?$CEncrypt@M@@AAEXPBD@Z ; CEncrypt<float>::EncryptValueToPool

; 35   : }

  002dc	83 4d fc ff	 or	 DWORD PTR __$EHRec$[ebp+8], -1
  002e0	8d 8d 30 fb ff
	ff		 lea	 ecx, DWORD PTR _kLoader$[ebp]
  002e6	ff 15 00 00 00
	00		 call	 DWORD PTR __imp_??1ioINILoader@@QAE@XZ
  002ec	e8 00 00 00 00	 call	 __EH_epilog3_GS
  002f1	c3		 ret	 0
_TEXT	ENDS
;	COMDAT text$x
text$x	SEGMENT
__unwindfunclet$?LoadINIData@ioFieldItemMgr@@QAEXXZ$0:
  00000	8d 8d 30 fb ff
	ff		 lea	 ecx, DWORD PTR _kLoader$[ebp]
  00006	e9 00 00 00 00	 jmp	 ??1ioINILoader_e@@QAE@XZ
__ehhandler$?LoadINIData@ioFieldItemMgr@@QAEXXZ:
  0000b	8b 54 24 08	 mov	 edx, DWORD PTR [esp+8]
  0000f	8d 42 0c	 lea	 eax, DWORD PTR [edx+12]
  00012	8b 8a 28 fb ff
	ff		 mov	 ecx, DWORD PTR [edx-1240]
  00018	33 c8		 xor	 ecx, eax
  0001a	e8 00 00 00 00	 call	 @__security_check_cookie@4
  0001f	8b 4a fc	 mov	 ecx, DWORD PTR [edx-4]
  00022	33 c8		 xor	 ecx, eax
  00024	e8 00 00 00 00	 call	 @__security_check_cookie@4
  00029	b8 00 00 00 00	 mov	 eax, OFFSET __ehfuncinfo$?LoadINIData@ioFieldItemMgr@@QAEXXZ
  0002e	e9 00 00 00 00	 jmp	 ___CxxFrameHandler3
text$x	ENDS
?LoadINIData@ioFieldItemMgr@@QAEXXZ ENDP		; ioFieldItemMgr::LoadINIData
END
