; Listing generated by Microsoft (R) Optimizing Compiler Version 16.00.30319.01 

	TITLE	D:\Lost Saga For Developer\Youtube\Tutorial\Source\src\LSClient\ioFileWriteClient.cpp
	.686P
	.XMM
	include listing.inc
	.model	flat

INCLUDELIB MSVCRT
INCLUDELIB OLDNAMES

PUBLIC	?ms_Singleton@?$Singleton@VioFileWriteClient@@@@1PAVioFileWriteClient@@A ; Singleton<ioFileWriteClient>::ms_Singleton
;	COMDAT ?ms_Singleton@?$Singleton@VioFileWriteClient@@@@1PAVioFileWriteClient@@A
_BSS	SEGMENT
?ms_Singleton@?$Singleton@VioFileWriteClient@@@@1PAVioFileWriteClient@@A DD 01H DUP (?) ; Singleton<ioFileWriteClient>::ms_Singleton
_BSS	ENDS
PUBLIC	??_7ioFileSocket@@6B@				; ioFileSocket::`vftable'
PUBLIC	??0ioFileSocket@@QAE@K@Z			; ioFileSocket::ioFileSocket
PUBLIC	??_R4ioFileSocket@@6B@				; ioFileSocket::`RTTI Complete Object Locator'
PUBLIC	??_R0?AVioFileSocket@@@8			; ioFileSocket `RTTI Type Descriptor'
PUBLIC	??_R3ioFileSocket@@8				; ioFileSocket::`RTTI Class Hierarchy Descriptor'
PUBLIC	??_R2ioFileSocket@@8				; ioFileSocket::`RTTI Base Class Array'
PUBLIC	??_R1A@?0A@EA@ioFileSocket@@8			; ioFileSocket::`RTTI Base Class Descriptor at (0,-1,0,64)'
PUBLIC	??_R1A@?0A@EA@ioClientTCPSocket@@8		; ioClientTCPSocket::`RTTI Base Class Descriptor at (0,-1,0,64)'
PUBLIC	??_R0?AVioClientTCPSocket@@@8			; ioClientTCPSocket `RTTI Type Descriptor'
PUBLIC	??_R3ioClientTCPSocket@@8			; ioClientTCPSocket::`RTTI Class Hierarchy Descriptor'
PUBLIC	??_R2ioClientTCPSocket@@8			; ioClientTCPSocket::`RTTI Base Class Array'
PUBLIC	?ConnectProcess@ioFileSocket@@UAEXXZ		; ioFileSocket::ConnectProcess
PUBLIC	?DisconnectProcess@ioFileSocket@@UAEXXZ		; ioFileSocket::DisconnectProcess
PUBLIC	?ProcessPacket@ioFileSocket@@UAEXAAVCPacket@@@Z	; ioFileSocket::ProcessPacket
PUBLIC	?CheckNS@ioFileSocket@@UAE_NAAVCPacket@@@Z	; ioFileSocket::CheckNS
EXTRN	__imp_??0ioClientTCPSocket@@QAE@XZ:PROC
EXTRN	??_7type_info@@6B@:QWORD			; type_info::`vftable'
EXTRN	?SendLoop@ioClientTCPSocket@@UAE_NAAVCPacket@@@Z:PROC ; ioClientTCPSocket::SendLoop
EXTRN	?RecvLoop@ioClientTCPSocket@@UAE_NI@Z:PROC	; ioClientTCPSocket::RecvLoop
EXTRN	??_EioFileSocket@@UAEPAXI@Z:PROC		; ioFileSocket::`vector deleting destructor'
;	COMDAT ??_R2ioClientTCPSocket@@8
; File d:\lost saga for developer\youtube\tutorial\source\src\lsclient\iofilewriteclient.cpp
rdata$r	SEGMENT
??_R2ioClientTCPSocket@@8 DD FLAT:??_R1A@?0A@EA@ioClientTCPSocket@@8 ; ioClientTCPSocket::`RTTI Base Class Array'
rdata$r	ENDS
;	COMDAT ??_R3ioClientTCPSocket@@8
rdata$r	SEGMENT
??_R3ioClientTCPSocket@@8 DD 00H			; ioClientTCPSocket::`RTTI Class Hierarchy Descriptor'
	DD	00H
	DD	01H
	DD	FLAT:??_R2ioClientTCPSocket@@8
rdata$r	ENDS
;	COMDAT ??_R0?AVioClientTCPSocket@@@8
_DATA	SEGMENT
??_R0?AVioClientTCPSocket@@@8 DD FLAT:??_7type_info@@6B@ ; ioClientTCPSocket `RTTI Type Descriptor'
	DD	00H
	DB	'.?AVioClientTCPSocket@@', 00H
_DATA	ENDS
;	COMDAT ??_R1A@?0A@EA@ioClientTCPSocket@@8
rdata$r	SEGMENT
??_R1A@?0A@EA@ioClientTCPSocket@@8 DD FLAT:??_R0?AVioClientTCPSocket@@@8 ; ioClientTCPSocket::`RTTI Base Class Descriptor at (0,-1,0,64)'
	DD	00H
	DD	00H
	DD	0ffffffffH
	DD	00H
	DD	040H
	DD	FLAT:??_R3ioClientTCPSocket@@8
rdata$r	ENDS
;	COMDAT ??_R1A@?0A@EA@ioFileSocket@@8
rdata$r	SEGMENT
??_R1A@?0A@EA@ioFileSocket@@8 DD FLAT:??_R0?AVioFileSocket@@@8 ; ioFileSocket::`RTTI Base Class Descriptor at (0,-1,0,64)'
	DD	01H
	DD	00H
	DD	0ffffffffH
	DD	00H
	DD	040H
	DD	FLAT:??_R3ioFileSocket@@8
rdata$r	ENDS
;	COMDAT ??_R2ioFileSocket@@8
rdata$r	SEGMENT
??_R2ioFileSocket@@8 DD FLAT:??_R1A@?0A@EA@ioFileSocket@@8 ; ioFileSocket::`RTTI Base Class Array'
	DD	FLAT:??_R1A@?0A@EA@ioClientTCPSocket@@8
rdata$r	ENDS
;	COMDAT ??_R3ioFileSocket@@8
rdata$r	SEGMENT
??_R3ioFileSocket@@8 DD 00H				; ioFileSocket::`RTTI Class Hierarchy Descriptor'
	DD	00H
	DD	02H
	DD	FLAT:??_R2ioFileSocket@@8
rdata$r	ENDS
;	COMDAT ??_R0?AVioFileSocket@@@8
_DATA	SEGMENT
??_R0?AVioFileSocket@@@8 DD FLAT:??_7type_info@@6B@	; ioFileSocket `RTTI Type Descriptor'
	DD	00H
	DB	'.?AVioFileSocket@@', 00H
_DATA	ENDS
;	COMDAT ??_R4ioFileSocket@@6B@
rdata$r	SEGMENT
??_R4ioFileSocket@@6B@ DD 00H				; ioFileSocket::`RTTI Complete Object Locator'
	DD	00H
	DD	00H
	DD	FLAT:??_R0?AVioFileSocket@@@8
	DD	FLAT:??_R3ioFileSocket@@8
rdata$r	ENDS
;	COMDAT ??_7ioFileSocket@@6B@
CONST	SEGMENT
??_7ioFileSocket@@6B@ DD FLAT:??_R4ioFileSocket@@6B@	; ioFileSocket::`vftable'
	DD	FLAT:?SendLoop@ioClientTCPSocket@@UAE_NAAVCPacket@@@Z
	DD	FLAT:?RecvLoop@ioClientTCPSocket@@UAE_NI@Z
	DD	FLAT:?ConnectProcess@ioFileSocket@@UAEXXZ
	DD	FLAT:?DisconnectProcess@ioFileSocket@@UAEXXZ
	DD	FLAT:?ProcessPacket@ioFileSocket@@UAEXAAVCPacket@@@Z
	DD	FLAT:?CheckNS@ioFileSocket@@UAE_NAAVCPacket@@@Z
	DD	FLAT:??_EioFileSocket@@UAEPAXI@Z
; Function compile flags: /Ogsp
CONST	ENDS
;	COMDAT ??0ioFileSocket@@QAE@K@Z
_TEXT	SEGMENT
_dwProcID$ = 8						; size = 4
??0ioFileSocket@@QAE@K@Z PROC				; ioFileSocket::ioFileSocket, COMDAT
; _this$ = ecx

; 13   : {

  00000	55		 push	 ebp
  00001	8b ec		 mov	 ebp, esp
  00003	56		 push	 esi
  00004	8b f1		 mov	 esi, ecx
  00006	ff 15 00 00 00
	00		 call	 DWORD PTR __imp_??0ioClientTCPSocket@@QAE@XZ

; 14   : 	m_dwProcID = dwProcID;

  0000c	8b 45 08	 mov	 eax, DWORD PTR _dwProcID$[ebp]
  0000f	89 86 2c 01 00
	00		 mov	 DWORD PTR [esi+300], eax
  00015	c7 06 00 00 00
	00		 mov	 DWORD PTR [esi], OFFSET ??_7ioFileSocket@@6B@

; 15   : }

  0001b	8b c6		 mov	 eax, esi
  0001d	5e		 pop	 esi
  0001e	5d		 pop	 ebp
  0001f	c2 04 00	 ret	 4
??0ioFileSocket@@QAE@K@Z ENDP				; ioFileSocket::ioFileSocket
_TEXT	ENDS
PUBLIC	??1ioFileSocket@@UAE@XZ				; ioFileSocket::~ioFileSocket
EXTRN	__imp_??1ioClientTCPSocket@@UAE@XZ:PROC
EXTRN	___CxxFrameHandler3:PROC
EXTRN	@__security_check_cookie@4:PROC
EXTRN	__EH_epilog3:PROC
EXTRN	__EH_prolog3:PROC
;	COMDAT xdata$x
xdata$x	SEGMENT
__unwindtable$??1ioFileSocket@@UAE@XZ DD 0ffffffffH
	DD	FLAT:__unwindfunclet$??1ioFileSocket@@UAE@XZ$0
__ehfuncinfo$??1ioFileSocket@@UAE@XZ DD 019930522H
	DD	01H
	DD	FLAT:__unwindtable$??1ioFileSocket@@UAE@XZ
	DD	2 DUP(00H)
	DD	2 DUP(00H)
	DD	00H
	DD	01H
; Function compile flags: /Ogsp
xdata$x	ENDS
;	COMDAT ??1ioFileSocket@@UAE@XZ
_TEXT	SEGMENT
_this$ = -16						; size = 4
__$EHRec$ = -12						; size = 12
??1ioFileSocket@@UAE@XZ PROC				; ioFileSocket::~ioFileSocket, COMDAT
; _this$ = ecx

; 18   : {

  00000	6a 04		 push	 4
  00002	b8 00 00 00 00	 mov	 eax, __ehhandler$??1ioFileSocket@@UAE@XZ
  00007	e8 00 00 00 00	 call	 __EH_prolog3
  0000c	8b f9		 mov	 edi, ecx
  0000e	89 7d f0	 mov	 DWORD PTR _this$[ebp], edi
  00011	c7 07 00 00 00
	00		 mov	 DWORD PTR [edi], OFFSET ??_7ioFileSocket@@6B@

; 19   : 	SAFEDELETE( m_pNS );

  00017	8b 8f 28 01 00
	00		 mov	 ecx, DWORD PTR [edi+296]
  0001d	83 65 fc 00	 and	 DWORD PTR __$EHRec$[ebp+8], 0
  00021	85 c9		 test	 ecx, ecx
  00023	74 0e		 je	 SHORT $LN1@ioFileSock
  00025	8b 01		 mov	 eax, DWORD PTR [ecx]
  00027	6a 01		 push	 1
  00029	ff 50 24	 call	 DWORD PTR [eax+36]
  0002c	83 a7 28 01 00
	00 00		 and	 DWORD PTR [edi+296], 0
$LN1@ioFileSock:

; 20   : }

  00033	83 4d fc ff	 or	 DWORD PTR __$EHRec$[ebp+8], -1
  00037	8b cf		 mov	 ecx, edi
  00039	ff 15 00 00 00
	00		 call	 DWORD PTR __imp_??1ioClientTCPSocket@@UAE@XZ
  0003f	e8 00 00 00 00	 call	 __EH_epilog3
  00044	c3		 ret	 0
_TEXT	ENDS
;	COMDAT text$x
text$x	SEGMENT
__unwindfunclet$??1ioFileSocket@@UAE@XZ$0:
  00000	8b 4d f0	 mov	 ecx, DWORD PTR _this$[ebp]
  00003	ff 25 00 00 00
	00		 jmp	 DWORD PTR __imp_??1ioClientTCPSocket@@UAE@XZ
__ehhandler$??1ioFileSocket@@UAE@XZ:
  00009	8b 54 24 08	 mov	 edx, DWORD PTR [esp+8]
  0000d	8d 42 0c	 lea	 eax, DWORD PTR [edx+12]
  00010	8b 4a ec	 mov	 ecx, DWORD PTR [edx-20]
  00013	33 c8		 xor	 ecx, eax
  00015	e8 00 00 00 00	 call	 @__security_check_cookie@4
  0001a	b8 00 00 00 00	 mov	 eax, OFFSET __ehfuncinfo$??1ioFileSocket@@UAE@XZ
  0001f	e9 00 00 00 00	 jmp	 ___CxxFrameHandler3
text$x	ENDS
??1ioFileSocket@@UAE@XZ ENDP				; ioFileSocket::~ioFileSocket
PUBLIC	??1ioINILoader_e@@QAE@XZ			; ioINILoader_e::~ioINILoader_e
EXTRN	__imp_??1ioINILoader@@QAE@XZ:PROC
; Function compile flags: /Ogsp
;	COMDAT ??1ioINILoader_e@@QAE@XZ
_TEXT	SEGMENT
??1ioINILoader_e@@QAE@XZ PROC				; ioINILoader_e::~ioINILoader_e, COMDAT
; _this$ = ecx
  00000	ff 25 00 00 00
	00		 jmp	 DWORD PTR __imp_??1ioINILoader@@QAE@XZ
??1ioINILoader_e@@QAE@XZ ENDP				; ioINILoader_e::~ioINILoader_e
_TEXT	ENDS
PUBLIC	??_C@_0EB@POAOAHAC@ioFileSocket?3?3CheckNSType?3?$CFd?5Sta@ ; `string'
PUBLIC	??_C@_0DB@HONKIGPD@ioFileSocket?3?3CheckNS?5Check?5Sum?5@ ; `string'
PUBLIC	??_C@_0CI@JNKLOOKL@ioFileSocket?3?3CheckNS?5?$CI?5m_pNS?5?$DN?$DN@ ; `string'
EXTRN	__imp_?GetState@CPacket@@QBEHXZ:PROC
EXTRN	__imp_?GetPacketID@CPacket@@QBEKXZ:PROC
EXTRN	__imp_?GetCheckSum@CPacket@@QBEKXZ:PROC
EXTRN	__imp_?PrintTimeAndLog@CLog@@QAAXHPADZZ:PROC
EXTRN	__imp_?LOG@@3VCLog@@A:BYTE
;	COMDAT ??_C@_0EB@POAOAHAC@ioFileSocket?3?3CheckNSType?3?$CFd?5Sta@
CONST	SEGMENT
??_C@_0EB@POAOAHAC@ioFileSocket?3?3CheckNSType?3?$CFd?5Sta@ DB 'ioFileSoc'
	DB	'ket::CheckNSType:%d State Not Same Client:%d, Server:%d', 00H ; `string'
CONST	ENDS
;	COMDAT ??_C@_0DB@HONKIGPD@ioFileSocket?3?3CheckNS?5Check?5Sum?5@
CONST	SEGMENT
??_C@_0DB@HONKIGPD@ioFileSocket?3?3CheckNS?5Check?5Sum?5@ DB 'ioFileSocke'
	DB	't::CheckNS Check Sum Fail!! [%d : %d]', 00H	; `string'
CONST	ENDS
;	COMDAT ??_C@_0CI@JNKLOOKL@ioFileSocket?3?3CheckNS?5?$CI?5m_pNS?5?$DN?$DN@
CONST	SEGMENT
??_C@_0CI@JNKLOOKL@ioFileSocket?3?3CheckNS?5?$CI?5m_pNS?5?$DN?$DN@ DB 'io'
	DB	'FileSocket::CheckNS ( m_pNS == NULL )', 00H	; `string'
; Function compile flags: /Ogsp
CONST	ENDS
;	COMDAT ?CheckNS@ioFileSocket@@UAE_NAAVCPacket@@@Z
_TEXT	SEGMENT
_rkPacket$ = 8						; size = 4
?CheckNS@ioFileSocket@@UAE_NAAVCPacket@@@Z PROC		; ioFileSocket::CheckNS, COMDAT
; _this$ = ecx

; 45   : {

  00000	55		 push	 ebp
  00001	8b ec		 mov	 ebp, esp
  00003	56		 push	 esi

; 46   : 	if( m_pNS == NULL )

  00004	8b b1 28 01 00
	00		 mov	 esi, DWORD PTR [ecx+296]
  0000a	85 f6		 test	 esi, esi
  0000c	75 19		 jne	 SHORT $LN3@CheckNS

; 47   : 	{
; 48   : 		LOG.PrintTimeAndLog( 0, "ioFileSocket::CheckNS ( m_pNS == NULL )" );

  0000e	68 00 00 00 00	 push	 OFFSET ??_C@_0CI@JNKLOOKL@ioFileSocket?3?3CheckNS?5?$CI?5m_pNS?5?$DN?$DN@
  00013	56		 push	 esi
  00014	ff 35 00 00 00
	00		 push	 DWORD PTR __imp_?LOG@@3VCLog@@A
  0001a	ff 15 00 00 00
	00		 call	 DWORD PTR __imp_?PrintTimeAndLog@CLog@@QAAXHPADZZ
  00020	83 c4 0c	 add	 esp, 12			; 0000000cH

; 49   : 		return true;

  00023	b0 01		 mov	 al, 1
  00025	eb 7d		 jmp	 SHORT $LN4@CheckNS
$LN3@CheckNS:

; 50   : 	}
; 51   : 
; 52   : 	ioTCPClientSecurity *pCS = (ioTCPClientSecurity*)m_pNS;
; 53   : 
; 54   : 	if( !pCS->IsCheckSum( rkPacket ) )

  00027	8b 06		 mov	 eax, DWORD PTR [esi]
  00029	57		 push	 edi
  0002a	8b 7d 08	 mov	 edi, DWORD PTR _rkPacket$[ebp]
  0002d	57		 push	 edi
  0002e	8b ce		 mov	 ecx, esi
  00030	ff 50 04	 call	 DWORD PTR [eax+4]
  00033	84 c0		 test	 al, al
  00035	75 2a		 jne	 SHORT $LN2@CheckNS

; 55   : 	{
; 56   : 		LOG.PrintTimeAndLog( 0, "ioFileSocket::CheckNS Check Sum Fail!! [%d : %d]", rkPacket.GetPacketID(), rkPacket.GetCheckSum() );

  00037	8b cf		 mov	 ecx, edi
  00039	ff 15 00 00 00
	00		 call	 DWORD PTR __imp_?GetCheckSum@CPacket@@QBEKXZ
  0003f	50		 push	 eax
  00040	8b cf		 mov	 ecx, edi
  00042	ff 15 00 00 00
	00		 call	 DWORD PTR __imp_?GetPacketID@CPacket@@QBEKXZ
  00048	50		 push	 eax
  00049	68 00 00 00 00	 push	 OFFSET ??_C@_0DB@HONKIGPD@ioFileSocket?3?3CheckNS?5Check?5Sum?5@
  0004e	6a 00		 push	 0
  00050	ff 35 00 00 00
	00		 push	 DWORD PTR __imp_?LOG@@3VCLog@@A
  00056	ff 15 00 00 00
	00		 call	 DWORD PTR __imp_?PrintTimeAndLog@CLog@@QAAXHPADZZ
  0005c	83 c4 14	 add	 esp, 20			; 00000014H

; 57   : 		return false;

  0005f	eb 3c		 jmp	 SHORT $LN7@CheckNS
$LN2@CheckNS:

; 58   : 	}
; 59   : 
; 60   : 	if( !pCS->CheckState( rkPacket ) )

  00061	8b 06		 mov	 eax, DWORD PTR [esi]
  00063	57		 push	 edi
  00064	8b ce		 mov	 ecx, esi
  00066	ff 50 18	 call	 DWORD PTR [eax+24]
  00069	84 c0		 test	 al, al
  0006b	75 34		 jne	 SHORT $LN1@CheckNS

; 61   : 	{
; 62   : 		LOG.PrintTimeAndLog( 0, "ioFileSocket::CheckNSType:%d State Not Same Client:%d, Server:%d", 
; 63   : 			rkPacket.GetPacketID(), rkPacket.GetState(), pCS->GetRcvState() );

  0006d	8b 06		 mov	 eax, DWORD PTR [esi]
  0006f	8b ce		 mov	 ecx, esi
  00071	ff 50 10	 call	 DWORD PTR [eax+16]
  00074	50		 push	 eax
  00075	8b cf		 mov	 ecx, edi
  00077	ff 15 00 00 00
	00		 call	 DWORD PTR __imp_?GetState@CPacket@@QBEHXZ
  0007d	50		 push	 eax
  0007e	8b cf		 mov	 ecx, edi
  00080	ff 15 00 00 00
	00		 call	 DWORD PTR __imp_?GetPacketID@CPacket@@QBEKXZ
  00086	50		 push	 eax
  00087	68 00 00 00 00	 push	 OFFSET ??_C@_0EB@POAOAHAC@ioFileSocket?3?3CheckNSType?3?$CFd?5Sta@
  0008c	6a 00		 push	 0
  0008e	ff 35 00 00 00
	00		 push	 DWORD PTR __imp_?LOG@@3VCLog@@A
  00094	ff 15 00 00 00
	00		 call	 DWORD PTR __imp_?PrintTimeAndLog@CLog@@QAAXHPADZZ
  0009a	83 c4 18	 add	 esp, 24			; 00000018H
$LN7@CheckNS:

; 64   : 		return false;

  0009d	32 c0		 xor	 al, al
  0009f	eb 02		 jmp	 SHORT $LN6@CheckNS
$LN1@CheckNS:

; 65   : 	}
; 66   : 
; 67   : 	return true;

  000a1	b0 01		 mov	 al, 1
$LN6@CheckNS:
  000a3	5f		 pop	 edi
$LN4@CheckNS:
  000a4	5e		 pop	 esi

; 68   : }

  000a5	5d		 pop	 ebp
  000a6	c2 04 00	 ret	 4
?CheckNS@ioFileSocket@@UAE_NAAVCPacket@@@Z ENDP		; ioFileSocket::CheckNS
_TEXT	ENDS
PUBLIC	?EvaluateSocket@ioFileWriteClient@@QAE_NIJ@Z	; ioFileWriteClient::EvaluateSocket
EXTRN	__imp_?EvaluateSocket@ioClientTCPSocket@@QAE_NIJ@Z:PROC
; Function compile flags: /Ogsp
;	COMDAT ?EvaluateSocket@ioFileWriteClient@@QAE_NIJ@Z
_TEXT	SEGMENT
_wParam$ = 8						; size = 4
_lParam$ = 12						; size = 4
?EvaluateSocket@ioFileWriteClient@@QAE_NIJ@Z PROC	; ioFileWriteClient::EvaluateSocket, COMDAT
; _this$ = ecx

; 282  : {

  00000	55		 push	 ebp
  00001	8b ec		 mov	 ebp, esp

; 283  : 	if( !m_pSocket )

  00003	8b 49 04	 mov	 ecx, DWORD PTR [ecx+4]
  00006	85 c9		 test	 ecx, ecx
  00008	75 06		 jne	 SHORT $LN1@EvaluateSo

; 284  : 		return false;

  0000a	32 c0		 xor	 al, al

; 287  : }

  0000c	5d		 pop	 ebp
  0000d	c2 08 00	 ret	 8
$LN1@EvaluateSo:
  00010	5d		 pop	 ebp

; 285  : 	
; 286  : 	return m_pSocket->EvaluateSocket( wParam, lParam );	

  00011	ff 25 00 00 00
	00		 jmp	 DWORD PTR __imp_?EvaluateSocket@ioClientTCPSocket@@QAE_NIJ@Z
?EvaluateSocket@ioFileWriteClient@@QAE_NIJ@Z ENDP	; ioFileWriteClient::EvaluateSocket
_TEXT	ENDS
PUBLIC	?SendLoop@ioFileWriteClient@@IAE_NAAVSP2Packet@@@Z ; ioFileWriteClient::SendLoop
; Function compile flags: /Ogsp
;	COMDAT ?SendLoop@ioFileWriteClient@@IAE_NAAVSP2Packet@@@Z
_TEXT	SEGMENT
_rkPacket$ = 8						; size = 4
?SendLoop@ioFileWriteClient@@IAE_NAAVSP2Packet@@@Z PROC	; ioFileWriteClient::SendLoop, COMDAT
; _this$ = ecx

; 374  : {

  00000	55		 push	 ebp
  00001	8b ec		 mov	 ebp, esp

; 375  : 	if( m_pSocket )

  00003	83 79 04 00	 cmp	 DWORD PTR [ecx+4], 0
  00007	74 08		 je	 SHORT $LN1@SendLoop

; 376  : 		return m_pSocket->SendLoop( rkPacket );

  00009	8b 49 04	 mov	 ecx, DWORD PTR [ecx+4]
  0000c	8b 01		 mov	 eax, DWORD PTR [ecx]

; 379  : }

  0000e	5d		 pop	 ebp

; 376  : 		return m_pSocket->SendLoop( rkPacket );

  0000f	ff 20		 jmp	 DWORD PTR [eax]
$LN1@SendLoop:

; 377  : 
; 378  : 	return false;

  00011	32 c0		 xor	 al, al

; 379  : }

  00013	5d		 pop	 ebp
  00014	c2 04 00	 ret	 4
?SendLoop@ioFileWriteClient@@IAE_NAAVSP2Packet@@@Z ENDP	; ioFileWriteClient::SendLoop
_TEXT	ENDS
PUBLIC	?SetReturnWndParam@ioFileWriteClient@@IAEXH@Z	; ioFileWriteClient::SetReturnWndParam
EXTRN	__imp_?FindChildWnd@ioWnd@@QAEPAV1@K@Z:PROC
EXTRN	__imp_?FindWnd@ioGUIManager@@QAEPAVioWnd@@K@Z:PROC
EXTRN	?GetSingleton@ioSP2GUIManager@@SAAAV1@XZ:PROC	; ioSP2GUIManager::GetSingleton
; Function compile flags: /Ogsp
;	COMDAT ?SetReturnWndParam@ioFileWriteClient@@IAEXH@Z
_TEXT	SEGMENT
_iParam$ = 8						; size = 4
?SetReturnWndParam@ioFileWriteClient@@IAEXH@Z PROC	; ioFileWriteClient::SetReturnWndParam, COMDAT
; _this$ = ecx

; 382  : {

  00000	55		 push	 ebp
  00001	8b ec		 mov	 ebp, esp
  00003	56		 push	 esi
  00004	8b f1		 mov	 esi, ecx
  00006	57		 push	 edi

; 383  : 	ioWnd *pParent = g_GUIMgr.FindWnd( m_dwReturnParentID );

  00007	ff 76 48	 push	 DWORD PTR [esi+72]
  0000a	e8 00 00 00 00	 call	 ?GetSingleton@ioSP2GUIManager@@SAAAV1@XZ ; ioSP2GUIManager::GetSingleton
  0000f	8b c8		 mov	 ecx, eax
  00011	ff 15 00 00 00
	00		 call	 DWORD PTR __imp_?FindWnd@ioGUIManager@@QAEPAVioWnd@@K@Z
  00017	8b f8		 mov	 edi, eax

; 384  : 	if( pParent )

  00019	85 ff		 test	 edi, edi
  0001b	74 1f		 je	 SHORT $LN1@SetReturnW

; 385  : 	{
; 386  : 		ioWnd *pWnd = pParent->FindChildWnd( m_dwReturnID );

  0001d	ff 76 4c	 push	 DWORD PTR [esi+76]
  00020	8b cf		 mov	 ecx, edi
  00022	ff 15 00 00 00
	00		 call	 DWORD PTR __imp_?FindChildWnd@ioWnd@@QAEPAV1@K@Z

; 387  : 		if( pWnd )

  00028	85 c0		 test	 eax, eax
  0002a	74 10		 je	 SHORT $LN1@SetReturnW

; 388  : 			pParent->iwm_command( pWnd, IOBN_BTNUP, iParam );

  0002c	ff 75 08	 push	 DWORD PTR _iParam$[ebp]
  0002f	8b 17		 mov	 edx, DWORD PTR [edi]
  00031	6a 11		 push	 17			; 00000011H
  00033	50		 push	 eax
  00034	8b cf		 mov	 ecx, edi
  00036	ff 92 8c 00 00
	00		 call	 DWORD PTR [edx+140]
$LN1@SetReturnW:
  0003c	5f		 pop	 edi
  0003d	5e		 pop	 esi

; 389  : 	}
; 390  : }

  0003e	5d		 pop	 ebp
  0003f	c2 04 00	 ret	 4
?SetReturnWndParam@ioFileWriteClient@@IAEXH@Z ENDP	; ioFileWriteClient::SetReturnWndParam
_TEXT	ENDS
PUBLIC	??_7bad_alloc@std@@6B@				; std::bad_alloc::`vftable'
PUBLIC	??0bad_alloc@std@@QAE@PBD@Z			; std::bad_alloc::bad_alloc
PUBLIC	??_R4bad_alloc@std@@6B@				; std::bad_alloc::`RTTI Complete Object Locator'
PUBLIC	??_R0?AVbad_alloc@std@@@8			; std::bad_alloc `RTTI Type Descriptor'
PUBLIC	??_R3bad_alloc@std@@8				; std::bad_alloc::`RTTI Class Hierarchy Descriptor'
PUBLIC	??_R2bad_alloc@std@@8				; std::bad_alloc::`RTTI Base Class Array'
PUBLIC	??_R1A@?0A@EA@bad_alloc@std@@8			; std::bad_alloc::`RTTI Base Class Descriptor at (0,-1,0,64)'
PUBLIC	??_R1A@?0A@EA@exception@std@@8			; std::exception::`RTTI Base Class Descriptor at (0,-1,0,64)'
PUBLIC	??_R0?AVexception@std@@@8			; std::exception `RTTI Type Descriptor'
PUBLIC	??_R3exception@std@@8				; std::exception::`RTTI Class Hierarchy Descriptor'
PUBLIC	??_R2exception@std@@8				; std::exception::`RTTI Base Class Array'
EXTRN	__imp_??0exception@std@@QAE@ABQBD@Z:PROC
EXTRN	??_Ebad_alloc@std@@UAEPAXI@Z:PROC		; std::bad_alloc::`vector deleting destructor'
EXTRN	?what@exception@std@@UBEPBDXZ:PROC		; std::exception::what
;	COMDAT ??_R2exception@std@@8
; File c:\program files (x86)\microsoft visual studio 10.0\vc\include\exception
rdata$r	SEGMENT
??_R2exception@std@@8 DD FLAT:??_R1A@?0A@EA@exception@std@@8 ; std::exception::`RTTI Base Class Array'
rdata$r	ENDS
;	COMDAT ??_R3exception@std@@8
rdata$r	SEGMENT
??_R3exception@std@@8 DD 00H				; std::exception::`RTTI Class Hierarchy Descriptor'
	DD	00H
	DD	01H
	DD	FLAT:??_R2exception@std@@8
rdata$r	ENDS
;	COMDAT ??_R0?AVexception@std@@@8
_DATA	SEGMENT
??_R0?AVexception@std@@@8 DD FLAT:??_7type_info@@6B@	; std::exception `RTTI Type Descriptor'
	DD	00H
	DB	'.?AVexception@std@@', 00H
_DATA	ENDS
;	COMDAT ??_R1A@?0A@EA@exception@std@@8
rdata$r	SEGMENT
??_R1A@?0A@EA@exception@std@@8 DD FLAT:??_R0?AVexception@std@@@8 ; std::exception::`RTTI Base Class Descriptor at (0,-1,0,64)'
	DD	00H
	DD	00H
	DD	0ffffffffH
	DD	00H
	DD	040H
	DD	FLAT:??_R3exception@std@@8
rdata$r	ENDS
;	COMDAT ??_R1A@?0A@EA@bad_alloc@std@@8
rdata$r	SEGMENT
??_R1A@?0A@EA@bad_alloc@std@@8 DD FLAT:??_R0?AVbad_alloc@std@@@8 ; std::bad_alloc::`RTTI Base Class Descriptor at (0,-1,0,64)'
	DD	01H
	DD	00H
	DD	0ffffffffH
	DD	00H
	DD	040H
	DD	FLAT:??_R3bad_alloc@std@@8
rdata$r	ENDS
;	COMDAT ??_R2bad_alloc@std@@8
rdata$r	SEGMENT
??_R2bad_alloc@std@@8 DD FLAT:??_R1A@?0A@EA@bad_alloc@std@@8 ; std::bad_alloc::`RTTI Base Class Array'
	DD	FLAT:??_R1A@?0A@EA@exception@std@@8
rdata$r	ENDS
;	COMDAT ??_R3bad_alloc@std@@8
rdata$r	SEGMENT
??_R3bad_alloc@std@@8 DD 00H				; std::bad_alloc::`RTTI Class Hierarchy Descriptor'
	DD	00H
	DD	02H
	DD	FLAT:??_R2bad_alloc@std@@8
rdata$r	ENDS
;	COMDAT ??_R0?AVbad_alloc@std@@@8
_DATA	SEGMENT
??_R0?AVbad_alloc@std@@@8 DD FLAT:??_7type_info@@6B@	; std::bad_alloc `RTTI Type Descriptor'
	DD	00H
	DB	'.?AVbad_alloc@std@@', 00H
_DATA	ENDS
;	COMDAT ??_R4bad_alloc@std@@6B@
rdata$r	SEGMENT
??_R4bad_alloc@std@@6B@ DD 00H				; std::bad_alloc::`RTTI Complete Object Locator'
	DD	00H
	DD	00H
	DD	FLAT:??_R0?AVbad_alloc@std@@@8
	DD	FLAT:??_R3bad_alloc@std@@8
rdata$r	ENDS
;	COMDAT ??_7bad_alloc@std@@6B@
CONST	SEGMENT
??_7bad_alloc@std@@6B@ DD FLAT:??_R4bad_alloc@std@@6B@	; std::bad_alloc::`vftable'
	DD	FLAT:??_Ebad_alloc@std@@UAEPAXI@Z
	DD	FLAT:?what@exception@std@@UBEPBDXZ
; Function compile flags: /Ogsp
CONST	ENDS
;	COMDAT ??0bad_alloc@std@@QAE@PBD@Z
_TEXT	SEGMENT
__Message$ = 8						; size = 4
??0bad_alloc@std@@QAE@PBD@Z PROC			; std::bad_alloc::bad_alloc, COMDAT
; _this$ = ecx

; 345  : 		{	// construct from message string

  00000	55		 push	 ebp
  00001	8b ec		 mov	 ebp, esp
  00003	56		 push	 esi
  00004	8d 45 08	 lea	 eax, DWORD PTR __Message$[ebp]
  00007	50		 push	 eax
  00008	8b f1		 mov	 esi, ecx
  0000a	ff 15 00 00 00
	00		 call	 DWORD PTR __imp_??0exception@std@@QAE@ABQBD@Z
  00010	c7 06 00 00 00
	00		 mov	 DWORD PTR [esi], OFFSET ??_7bad_alloc@std@@6B@

; 346  : 		}

  00016	8b c6		 mov	 eax, esi
  00018	5e		 pop	 esi
  00019	5d		 pop	 ebp
  0001a	c2 04 00	 ret	 4
??0bad_alloc@std@@QAE@PBD@Z ENDP			; std::bad_alloc::bad_alloc
_TEXT	ENDS
PUBLIC	?InitData@ioFileWriteClient@@IAEXXZ		; ioFileWriteClient::InitData
EXTRN	__imp_?Clear@ioHashString@@QAEXXZ:PROC
EXTRN	__imp__CloseHandle@4:PROC
; Function compile flags: /Ogsp
; File d:\lost saga for developer\youtube\tutorial\source\src\lsclient\iofilewriteclient.cpp
;	COMDAT ?InitData@ioFileWriteClient@@IAEXXZ
_TEXT	SEGMENT
?InitData@ioFileWriteClient@@IAEXXZ PROC		; ioFileWriteClient::InitData, COMDAT
; _this$ = ecx

; 435  : {

  00000	53		 push	 ebx
  00001	56		 push	 esi
  00002	8b f1		 mov	 esi, ecx

; 436  : 	if( m_hFile )

  00004	8b 46 08	 mov	 eax, DWORD PTR [esi+8]
  00007	33 db		 xor	 ebx, ebx
  00009	3b c3		 cmp	 eax, ebx
  0000b	74 0a		 je	 SHORT $LN1@InitData

; 437  : 	{
; 438  : 		CloseHandle( m_hFile );

  0000d	50		 push	 eax
  0000e	ff 15 00 00 00
	00		 call	 DWORD PTR __imp__CloseHandle@4

; 439  : 		m_hFile = NULL;

  00014	89 5e 08	 mov	 DWORD PTR [esi+8], ebx
$LN1@InitData:

; 440  : 	}
; 441  : 	m_dwWriteSendTime = 0;
; 442  : 	m_szWriteFileName.Clear();

  00017	8d 4e 1c	 lea	 ecx, DWORD PTR [esi+28]
  0001a	89 5e 14	 mov	 DWORD PTR [esi+20], ebx
  0001d	ff 15 00 00 00
	00		 call	 DWORD PTR __imp_?Clear@ioHashString@@QAEXXZ

; 443  : 	m_dwFileWidth      = 0;

  00023	89 5e 2c	 mov	 DWORD PTR [esi+44], ebx

; 444  : 	m_dwFileHeight     = 0;

  00026	89 5e 30	 mov	 DWORD PTR [esi+48], ebx

; 445  : 	m_dwConnectCheckTime = 0;

  00029	89 5e 50	 mov	 DWORD PTR [esi+80], ebx

; 446  : 	m_bTempSend = false;

  0002c	88 5e 7c	 mov	 BYTE PTR [esi+124], bl
  0002f	5e		 pop	 esi
  00030	5b		 pop	 ebx

; 447  : }

  00031	c3		 ret	 0
?InitData@ioFileWriteClient@@IAEXXZ ENDP		; ioFileWriteClient::InitData
_TEXT	ENDS
PUBLIC	??_C@_0CH@EKJGGGLM@ioFileWriteClient?3?3ProcessConnec@ ; `string'
PUBLIC	??_C@_00CNPNBAHC@?$AA@				; `string'
PUBLIC	?ProcessConnectCheck@ioFileWriteClient@@IAEXXZ	; ioFileWriteClient::ProcessConnectCheck
EXTRN	?SetMsgBox@ioSP2GUIManager@@QAAXHPAVioWnd@@PBDZZ:PROC ; ioSP2GUIManager::SetMsgBox
EXTRN	__imp_?GetString@ioStringManager@@QAEPADPBD0HW4FileNamePrefix@1@@Z:PROC
EXTRN	__imp_?GetSingleton@ioStringManager@@SAAAV1@XZ:PROC
EXTRN	?SetMouseBusy@ioApplication@@QAEX_N@Z:PROC	; ioApplication::SetMouseBusy
EXTRN	?GetSingleton@ioApplication@@SAAAV1@XZ:PROC	; ioApplication::GetSingleton
EXTRN	__imp_?CloseClientTCP@ioClientTCPSocket@@QAEXXZ:PROC
EXTRN	__imp_?IsConnected@ioClientTCPSocket@@QBE_NXZ:PROC
EXTRN	__imp_?GetTotalSec@ioFrameTimer@@QAEKXZ:PROC
EXTRN	__imp_?GetSingleton@ioFrameTimer@@SAAAV1@XZ:PROC
;	COMDAT ??_C@_0CH@EKJGGGLM@ioFileWriteClient?3?3ProcessConnec@
CONST	SEGMENT
??_C@_0CH@EKJGGGLM@ioFileWriteClient?3?3ProcessConnec@ DB 'ioFileWriteCli'
	DB	'ent::ProcessConnectCheck', 00H		; `string'
CONST	ENDS
;	COMDAT ??_C@_00CNPNBAHC@?$AA@
CONST	SEGMENT
??_C@_00CNPNBAHC@?$AA@ DB 00H				; `string'
; Function compile flags: /Ogsp
CONST	ENDS
;	COMDAT ?ProcessConnectCheck@ioFileWriteClient@@IAEXXZ
_TEXT	SEGMENT
?ProcessConnectCheck@ioFileWriteClient@@IAEXXZ PROC	; ioFileWriteClient::ProcessConnectCheck, COMDAT
; _this$ = ecx

; 450  : {

  00000	56		 push	 esi
  00001	57		 push	 edi
  00002	8b f1		 mov	 esi, ecx

; 451  : 	if( m_dwConnectCheckTime == 0 )

  00004	33 ff		 xor	 edi, edi
  00006	39 7e 50	 cmp	 DWORD PTR [esi+80], edi
  00009	0f 84 83 00 00
	00		 je	 $LN1@ProcessCon

; 452  : 		return;
; 453  : 
; 454  : 	enum { DELAY_TIME = 60000, };
; 455  : 	if( REALGETTIME() - m_dwConnectCheckTime < DELAY_TIME )

  0000f	ff 15 00 00 00
	00		 call	 DWORD PTR __imp_?GetSingleton@ioFrameTimer@@SAAAV1@XZ
  00015	8b c8		 mov	 ecx, eax
  00017	ff 15 00 00 00
	00		 call	 DWORD PTR __imp_?GetTotalSec@ioFrameTimer@@QAEKXZ
  0001d	2b 46 50	 sub	 eax, DWORD PTR [esi+80]
  00020	3d 60 ea 00 00	 cmp	 eax, 60000		; 0000ea60H
  00025	72 6b		 jb	 SHORT $LN1@ProcessCon

; 456  : 		return;
; 457  : 
; 458  : 	m_dwConnectCheckTime = 0;
; 459  : 	if( m_pSocket )

  00027	8b 4e 04	 mov	 ecx, DWORD PTR [esi+4]
  0002a	89 7e 50	 mov	 DWORD PTR [esi+80], edi
  0002d	3b cf		 cmp	 ecx, edi
  0002f	74 61		 je	 SHORT $LN1@ProcessCon

; 460  : 	{
; 461  : 		if( !m_pSocket->IsConnected() )

  00031	ff 15 00 00 00
	00		 call	 DWORD PTR __imp_?IsConnected@ioClientTCPSocket@@QBE_NXZ
  00037	84 c0		 test	 al, al
  00039	75 57		 jne	 SHORT $LN1@ProcessCon

; 462  : 		{
; 463  : 			m_pSocket->CloseClientTCP();

  0003b	8b 4e 04	 mov	 ecx, DWORD PTR [esi+4]
  0003e	ff 15 00 00 00
	00		 call	 DWORD PTR __imp_?CloseClientTCP@ioClientTCPSocket@@QAEXXZ

; 464  : 			g_App.SetMouseBusy( false );

  00044	57		 push	 edi
  00045	e8 00 00 00 00	 call	 ?GetSingleton@ioApplication@@SAAAV1@XZ ; ioApplication::GetSingleton
  0004a	8b c8		 mov	 ecx, eax
  0004c	e8 00 00 00 00	 call	 ?SetMouseBusy@ioApplication@@QAEX_N@Z ; ioApplication::SetMouseBusy

; 465  : 			g_GUIMgr.SetMsgBox( MB_OK, NULL, STR(1) );

  00051	57		 push	 edi
  00052	6a 01		 push	 1
  00054	68 00 00 00 00	 push	 OFFSET ??_C@_00CNPNBAHC@?$AA@
  00059	68 00 00 00 00	 push	 OFFSET ??_C@_0CH@EKJGGGLM@ioFileWriteClient?3?3ProcessConnec@
  0005e	ff 15 00 00 00
	00		 call	 DWORD PTR __imp_?GetSingleton@ioStringManager@@SAAAV1@XZ
  00064	8b c8		 mov	 ecx, eax
  00066	ff 15 00 00 00
	00		 call	 DWORD PTR __imp_?GetString@ioStringManager@@QAEPADPBD0HW4FileNamePrefix@1@@Z
  0006c	50		 push	 eax
  0006d	57		 push	 edi
  0006e	57		 push	 edi
  0006f	e8 00 00 00 00	 call	 ?GetSingleton@ioSP2GUIManager@@SAAAV1@XZ ; ioSP2GUIManager::GetSingleton
  00074	50		 push	 eax
  00075	e8 00 00 00 00	 call	 ?SetMsgBox@ioSP2GUIManager@@QAAXHPAVioWnd@@PBDZZ ; ioSP2GUIManager::SetMsgBox
  0007a	83 c4 10	 add	 esp, 16			; 00000010H

; 466  : 			SetReturnWndParam( RETURN_WND_PARAM_FAIL );

  0007d	68 12 27 00 00	 push	 10002			; 00002712H
  00082	8b ce		 mov	 ecx, esi
  00084	e8 00 00 00 00	 call	 ?SetReturnWndParam@ioFileWriteClient@@IAEXH@Z ; ioFileWriteClient::SetReturnWndParam
  00089	5f		 pop	 edi

; 467  : 			InitData();

  0008a	8b ce		 mov	 ecx, esi
  0008c	5e		 pop	 esi
  0008d	e9 00 00 00 00	 jmp	 ?InitData@ioFileWriteClient@@IAEXXZ ; ioFileWriteClient::InitData
$LN1@ProcessCon:
  00092	5f		 pop	 edi
  00093	5e		 pop	 esi

; 468  : 		}
; 469  : 	}
; 470  : }

  00094	c3		 ret	 0
?ProcessConnectCheck@ioFileWriteClient@@IAEXXZ ENDP	; ioFileWriteClient::ProcessConnectCheck
_TEXT	ENDS
PUBLIC	??1bad_alloc@std@@UAE@XZ			; std::bad_alloc::~bad_alloc
EXTRN	__imp_??1exception@std@@UAE@XZ:PROC
; Function compile flags: /Ogsp
; File c:\program files (x86)\microsoft visual studio 10.0\vc\include\exception
;	COMDAT ??1bad_alloc@std@@UAE@XZ
_TEXT	SEGMENT
??1bad_alloc@std@@UAE@XZ PROC				; std::bad_alloc::~bad_alloc, COMDAT
; _this$ = ecx

; 354  : 		{	// destroy the object

  00000	c7 01 00 00 00
	00		 mov	 DWORD PTR [ecx], OFFSET ??_7bad_alloc@std@@6B@

; 355  : 		}

  00006	ff 25 00 00 00
	00		 jmp	 DWORD PTR __imp_??1exception@std@@UAE@XZ
??1bad_alloc@std@@UAE@XZ ENDP				; std::bad_alloc::~bad_alloc
_TEXT	ENDS
EXTRN	??3@YAXPAX@Z:PROC				; operator delete
; Function compile flags: /Ogsp
;	COMDAT ??_Gbad_alloc@std@@UAEPAXI@Z
_TEXT	SEGMENT
___flags$ = 8						; size = 4
??_Gbad_alloc@std@@UAEPAXI@Z PROC			; std::bad_alloc::`scalar deleting destructor', COMDAT
; _this$ = ecx
  00000	55		 push	 ebp
  00001	8b ec		 mov	 ebp, esp
  00003	56		 push	 esi
  00004	8b f1		 mov	 esi, ecx
  00006	c7 06 00 00 00
	00		 mov	 DWORD PTR [esi], OFFSET ??_7bad_alloc@std@@6B@
  0000c	ff 15 00 00 00
	00		 call	 DWORD PTR __imp_??1exception@std@@UAE@XZ
  00012	f6 45 08 01	 test	 BYTE PTR ___flags$[ebp], 1
  00016	74 07		 je	 SHORT $LN1@scalar
  00018	56		 push	 esi
  00019	e8 00 00 00 00	 call	 ??3@YAXPAX@Z		; operator delete
  0001e	59		 pop	 ecx
$LN1@scalar:
  0001f	8b c6		 mov	 eax, esi
  00021	5e		 pop	 esi
  00022	5d		 pop	 ebp
  00023	c2 04 00	 ret	 4
??_Gbad_alloc@std@@UAEPAXI@Z ENDP			; std::bad_alloc::`scalar deleting destructor'
_TEXT	ENDS
PUBLIC	??_C@_01KDCPPGHE@r?$AA@				; `string'
PUBLIC	?IsFileCheck@ioFileWriteClient@@QAE_NABVioHashString@@@Z ; ioFileWriteClient::IsFileCheck
EXTRN	__imp__fclose:PROC
EXTRN	__imp__fopen:PROC
EXTRN	__imp_?c_str@ioHashString@@QBEPBDXZ:PROC
;	COMDAT ??_C@_01KDCPPGHE@r?$AA@
; File d:\lost saga for developer\youtube\tutorial\source\src\lsclient\iofilewriteclient.cpp
CONST	SEGMENT
??_C@_01KDCPPGHE@r?$AA@ DB 'r', 00H			; `string'
; Function compile flags: /Ogsp
CONST	ENDS
;	COMDAT ?IsFileCheck@ioFileWriteClient@@QAE_NABVioHashString@@@Z
_TEXT	SEGMENT
_rkFileName$ = 8					; size = 4
?IsFileCheck@ioFileWriteClient@@QAE_NABVioHashString@@@Z PROC ; ioFileWriteClient::IsFileCheck, COMDAT
; _this$ = ecx

; 501  : {

  00000	55		 push	 ebp
  00001	8b ec		 mov	 ebp, esp

; 502  : 	FILE *pFile = fopen( rkFileName.c_str(), "r" );

  00003	8b 4d 08	 mov	 ecx, DWORD PTR _rkFileName$[ebp]
  00006	68 00 00 00 00	 push	 OFFSET ??_C@_01KDCPPGHE@r?$AA@
  0000b	ff 15 00 00 00
	00		 call	 DWORD PTR __imp_?c_str@ioHashString@@QBEPBDXZ
  00011	50		 push	 eax
  00012	ff 15 00 00 00
	00		 call	 DWORD PTR __imp__fopen
  00018	59		 pop	 ecx
  00019	59		 pop	 ecx

; 503  : 	if( pFile ) 

  0001a	85 c0		 test	 eax, eax
  0001c	74 0c		 je	 SHORT $LN1@IsFileChec

; 504  : 	{
; 505  : 		fclose( pFile );		

  0001e	50		 push	 eax
  0001f	ff 15 00 00 00
	00		 call	 DWORD PTR __imp__fclose
  00025	59		 pop	 ecx

; 506  : 		return true;

  00026	b0 01		 mov	 al, 1
  00028	eb 02		 jmp	 SHORT $LN2@IsFileChec
$LN1@IsFileChec:

; 507  : 	}
; 508  : 	return false;

  0002a	32 c0		 xor	 al, al
$LN2@IsFileChec:

; 509  : }

  0002c	5d		 pop	 ebp
  0002d	c2 04 00	 ret	 4
?IsFileCheck@ioFileWriteClient@@QAE_NABVioHashString@@@Z ENDP ; ioFileWriteClient::IsFileCheck
_TEXT	ENDS
PUBLIC	??2@YAPAXIPAX@Z					; operator new
; Function compile flags: /Ogsp
; File c:\program files (x86)\microsoft visual studio 10.0\vc\include\new
;	COMDAT ??2@YAPAXIPAX@Z
_TEXT	SEGMENT
___formal$ = 8						; size = 4
__Where$ = 12						; size = 4
??2@YAPAXIPAX@Z PROC					; operator new, COMDAT

; 56   : 	{	// construct array with placement at _Where

  00000	55		 push	 ebp
  00001	8b ec		 mov	 ebp, esp

; 57   : 	return (_Where);

  00003	8b 45 0c	 mov	 eax, DWORD PTR __Where$[ebp]

; 58   : 	}

  00006	5d		 pop	 ebp
  00007	c3		 ret	 0
??2@YAPAXIPAX@Z ENDP					; operator new
_TEXT	ENDS
PUBLIC	??3@YAXPAX0@Z					; operator delete
; Function compile flags: /Ogsp
;	COMDAT ??3@YAXPAX0@Z
_TEXT	SEGMENT
___formal$ = 8						; size = 4
___formal$ = 12						; size = 4
??3@YAXPAX0@Z PROC					; operator delete, COMDAT

; 62   : 	}

  00000	c3		 ret	 0
??3@YAXPAX0@Z ENDP					; operator delete
_TEXT	ENDS
PUBLIC	??_C@_0CD@BHLCJABD@?$MA?$KP?$MA?z?5?$LO?w?$LH?N?$LF?e?$LA?$KB?5?$LK?q?H?$LA?$LM?$LK?H?$KN?5?$LL?s?E?B?$MA?T?$LE?O?$LE@ ; `string'
PUBLIC	??_C@_0DJ@DNGDENGG@?$LF?n?$LH?O?G?R?5?F?D?$MA?O?$MA?L?5JPG?5?F?D?$MA?O?5?$LO?F?$LE?O?$LA?E?$LD?$KK?5@ ; `string'
PUBLIC	??_C@_0CD@HJMHNDPO@?$LF?n?$LH?O?G?R?5?F?D?$MA?O?5?$MA?L?$LF?$LP?$MA?L?5?$LN?G?F?P?G?O?$LP?$LE?$LN?$MA?$LE?O?$LE@ ; `string'
PUBLIC	??_C@_0BO@MAGPJFFF@?$LF?n?$LH?O?G?R?5?F?D?$MA?O?$MA?L?5?$LM?U?$LL?s?$LF?G?$LO?z?$LN?$MA?$LE?O?$LE?Y?4?$AA@ ; `string'
PUBLIC	??_C@_0CD@KPEFFJCL@?$LF?n?$LH?O?G?R?5?F?D?$MA?O?5?$LO?$LC?$LB?b?$LA?$KB?5?$LN?G?F?P?G?O?$LP?$LE?$LN?$MA?$LE?O?$LE@ ; `string'
PUBLIC	??_C@_0CD@KOCENMLE@?$LF?n?$LH?O?G?R?5?F?D?$MA?O?5?$LL?$PN?$LM?$LK?$MA?L?5?$LN?G?F?P?G?O?$LP?$LE?$LN?$MA?$LE?O?$LE@ ; `string'
PUBLIC	??_C@_0BI@BKOHDDBN@?$MA?L?$LJ?L?5?$LF?n?$LH?O?$LF?H?5?F?D?$MA?O?$MA?T?$LE?O?$LE?Y?4?$AA@ ; `string'
PUBLIC	??_C@_0CD@LCGFLBGK@?$LF?n?$LH?O?G?R?5?F?D?$MA?O?5?$MA?L?$LI?$KH?$MA?L?5?$MA?$NP?$LI?x?$LF?G?$LO?z?$LN?$MA?$LE?O?$LE@ ; `string'
PUBLIC	?OnTempFileWrite@ioFileWriteClient@@QAEXAAVSP2Packet@@@Z ; ioFileWriteClient::OnTempFileWrite
EXTRN	?CheckEnableTimeGapUser2@Help@@YA_NH@Z:PROC	; Help::CheckEnableTimeGapUser2
EXTRN	??5SP2Packet@@QAEAAV0@AAH@Z:PROC		; SP2Packet::operator>>
;	COMDAT ??_C@_0CD@BHLCJABD@?$MA?$KP?$MA?z?5?$LO?w?$LH?N?$LF?e?$LA?$KB?5?$LK?q?H?$LA?$LM?$LK?H?$KN?5?$LL?s?E?B?$MA?T?$LE?O?$LE@
; File d:\lost saga for developer\youtube\tutorial\source\src\lsclient\iofilewriteclient.cpp
CONST	SEGMENT
??_C@_0CD@BHLCJABD@?$MA?$KP?$MA?z?5?$LO?w?$LH?N?$LF?e?$LA?$KB?5?$LK?q?H?$LA?$LM?$LK?H?$KN?5?$LL?s?E?B?$MA?T?$LE?O?$LE@ DB 0c0H
	DB	0afH, 0c0H, 0faH, ' ', 0beH, 0f7H, 0b7H, 0ceH, 0b5H, 0e5H, 0b0H
	DB	0a1H, ' ', 0baH, 0f1H, 0c8H, 0b0H, 0bcH, 0baH, 0c8H, 0adH, ' ', 0bbH
	DB	0f3H, 0c5H, 0c2H, 0c0H, 0d4H, 0b4H, 0cfH, 0b4H, 0d9H, '.', 00H ; `string'
CONST	ENDS
;	COMDAT ??_C@_0DJ@DNGDENGG@?$LF?n?$LH?O?G?R?5?F?D?$MA?O?$MA?L?5JPG?5?F?D?$MA?O?5?$LO?F?$LE?O?$LA?E?$LD?$KK?5@
CONST	SEGMENT
??_C@_0DJ@DNGDENGG@?$LF?n?$LH?O?G?R?5?F?D?$MA?O?$MA?L?5JPG?5?F?D?$MA?O?5?$LO?F?$LE?O?$LA?E?$LD?$KK?5@ DB 0b5H
	DB	0eeH, 0b7H, 0cfH, 0c7H, 0d2H, ' ', 0c6H, 0c4H, 0c0H, 0cfH, 0c0H
	DB	0ccH, ' JPG ', 0c6H, 0c4H, 0c0H, 0cfH, ' ', 0beH, 0c6H, 0b4H, 0cfH
	DB	0b0H, 0c5H, 0b3H, 0aaH, ' ', 0bbH, 0e7H, 0c0H, 0ccH, 0c1H, 0eeH
	DB	0b0H, 0a1H, ' ', 0c0H, 0dfH, 0b8H, 0f8H, 0b5H, 0c7H, 0beH, 0faH
	DB	0bdH, 0c0H, 0b4H, 0cfH, 0b4H, 0d9H, '.', 00H	; `string'
CONST	ENDS
;	COMDAT ??_C@_0CD@HJMHNDPO@?$LF?n?$LH?O?G?R?5?F?D?$MA?O?5?$MA?L?$LF?$LP?$MA?L?5?$LN?G?F?P?G?O?$LP?$LE?$LN?$MA?$LE?O?$LE@
CONST	SEGMENT
??_C@_0CD@HJMHNDPO@?$LF?n?$LH?O?G?R?5?F?D?$MA?O?5?$MA?L?$LF?$LP?$MA?L?5?$LN?G?F?P?G?O?$LP?$LE?$LN?$MA?$LE?O?$LE@ DB 0b5H
	DB	0eeH, 0b7H, 0cfH, 0c7H, 0d2H, ' ', 0c6H, 0c4H, 0c0H, 0cfH, ' ', 0c0H
	DB	0ccH, 0b5H, 0bfH, 0c0H, 0ccH, ' ', 0bdH, 0c7H, 0c6H, 0d0H, 0c7H
	DB	0cfH, 0bfH, 0b4H, 0bdH, 0c0H, 0b4H, 0cfH, 0b4H, 0d9H, '.', 00H ; `string'
CONST	ENDS
;	COMDAT ??_C@_0BO@MAGPJFFF@?$LF?n?$LH?O?G?R?5?F?D?$MA?O?$MA?L?5?$LM?U?$LL?s?$LF?G?$LO?z?$LN?$MA?$LE?O?$LE?Y?4?$AA@
CONST	SEGMENT
??_C@_0BO@MAGPJFFF@?$LF?n?$LH?O?G?R?5?F?D?$MA?O?$MA?L?5?$LM?U?$LL?s?$LF?G?$LO?z?$LN?$MA?$LE?O?$LE?Y?4?$AA@ DB 0b5H
	DB	0eeH, 0b7H, 0cfH, 0c7H, 0d2H, ' ', 0c6H, 0c4H, 0c0H, 0cfH, 0c0H
	DB	0ccH, ' ', 0bcH, 0d5H, 0bbH, 0f3H, 0b5H, 0c7H, 0beH, 0faH, 0bdH
	DB	0c0H, 0b4H, 0cfH, 0b4H, 0d9H, '.', 00H	; `string'
CONST	ENDS
;	COMDAT ??_C@_0CD@KPEFFJCL@?$LF?n?$LH?O?G?R?5?F?D?$MA?O?5?$LO?$LC?$LB?b?$LA?$KB?5?$LN?G?F?P?G?O?$LP?$LE?$LN?$MA?$LE?O?$LE@
CONST	SEGMENT
??_C@_0CD@KPEFFJCL@?$LF?n?$LH?O?G?R?5?F?D?$MA?O?5?$LO?$LC?$LB?b?$LA?$KB?5?$LN?G?F?P?G?O?$LP?$LE?$LN?$MA?$LE?O?$LE@ DB 0b5H
	DB	0eeH, 0b7H, 0cfH, 0c7H, 0d2H, ' ', 0c6H, 0c4H, 0c0H, 0cfH, ' ', 0beH
	DB	0b2H, 0b1H, 0e2H, 0b0H, 0a1H, ' ', 0bdH, 0c7H, 0c6H, 0d0H, 0c7H
	DB	0cfH, 0bfH, 0b4H, 0bdH, 0c0H, 0b4H, 0cfH, 0b4H, 0d9H, '.', 00H ; `string'
CONST	ENDS
;	COMDAT ??_C@_0CD@KOCENMLE@?$LF?n?$LH?O?G?R?5?F?D?$MA?O?5?$LL?$PN?$LM?$LK?$MA?L?5?$LN?G?F?P?G?O?$LP?$LE?$LN?$MA?$LE?O?$LE@
CONST	SEGMENT
??_C@_0CD@KOCENMLE@?$LF?n?$LH?O?G?R?5?F?D?$MA?O?5?$LL?$PN?$LM?$LK?$MA?L?5?$LN?G?F?P?G?O?$LP?$LE?$LN?$MA?$LE?O?$LE@ DB 0b5H
	DB	0eeH, 0b7H, 0cfH, 0c7H, 0d2H, ' ', 0c6H, 0c4H, 0c0H, 0cfH, ' ', 0bbH
	DB	0fdH, 0bcH, 0baH, 0c0H, 0ccH, ' ', 0bdH, 0c7H, 0c6H, 0d0H, 0c7H
	DB	0cfH, 0bfH, 0b4H, 0bdH, 0c0H, 0b4H, 0cfH, 0b4H, 0d9H, '.', 00H ; `string'
CONST	ENDS
;	COMDAT ??_C@_0BI@BKOHDDBN@?$MA?L?$LJ?L?5?$LF?n?$LH?O?$LF?H?5?F?D?$MA?O?$MA?T?$LE?O?$LE?Y?4?$AA@
CONST	SEGMENT
??_C@_0BI@BKOHDDBN@?$MA?L?$LJ?L?5?$LF?n?$LH?O?$LF?H?5?F?D?$MA?O?$MA?T?$LE?O?$LE?Y?4?$AA@ DB 0c0H
	DB	0ccH, 0b9H, 0ccH, ' ', 0b5H, 0eeH, 0b7H, 0cfH, 0b5H, 0c8H, ' ', 0c6H
	DB	0c4H, 0c0H, 0cfH, 0c0H, 0d4H, 0b4H, 0cfH, 0b4H, 0d9H, '.', 00H ; `string'
CONST	ENDS
;	COMDAT ??_C@_0CD@LCGFLBGK@?$LF?n?$LH?O?G?R?5?F?D?$MA?O?5?$MA?L?$LI?$KH?$MA?L?5?$MA?$NP?$LI?x?$LF?G?$LO?z?$LN?$MA?$LE?O?$LE@
CONST	SEGMENT
??_C@_0CD@LCGFLBGK@?$LF?n?$LH?O?G?R?5?F?D?$MA?O?5?$MA?L?$LI?$KH?$MA?L?5?$MA?$NP?$LI?x?$LF?G?$LO?z?$LN?$MA?$LE?O?$LE@ DB 0b5H
	DB	0eeH, 0b7H, 0cfH, 0c7H, 0d2H, ' ', 0c6H, 0c4H, 0c0H, 0cfH, ' ', 0c0H
	DB	0ccH, 0b8H, 0a7H, 0c0H, 0ccH, ' ', 0c0H, 0dfH, 0b8H, 0f8H, 0b5H
	DB	0c7H, 0beH, 0faH, 0bdH, 0c0H, 0b4H, 0cfH, 0b4H, 0d9H, '.', 00H ; `string'
; Function compile flags: /Ogsp
CONST	ENDS
;	COMDAT ?OnTempFileWrite@ioFileWriteClient@@QAEXAAVSP2Packet@@@Z
_TEXT	SEGMENT
_iMsg$ = -4						; size = 4
_rkPacket$ = 8						; size = 4
?OnTempFileWrite@ioFileWriteClient@@QAEXAAVSP2Packet@@@Z PROC ; ioFileWriteClient::OnTempFileWrite, COMDAT
; _this$ = ecx

; 694  : {

  00000	55		 push	 ebp
  00001	8b ec		 mov	 ebp, esp
  00003	51		 push	 ecx
  00004	53		 push	 ebx
  00005	56		 push	 esi
  00006	57		 push	 edi

; 695  : 	g_App.SetMouseBusy( false );

  00007	33 f6		 xor	 esi, esi
  00009	56		 push	 esi
  0000a	8b f9		 mov	 edi, ecx
  0000c	e8 00 00 00 00	 call	 ?GetSingleton@ioApplication@@SAAAV1@XZ ; ioApplication::GetSingleton
  00011	8b c8		 mov	 ecx, eax
  00013	e8 00 00 00 00	 call	 ?SetMouseBusy@ioApplication@@QAEX_N@Z ; ioApplication::SetMouseBusy

; 696  : 
; 697  : 	int iMsg = 0;
; 698  : 	rkPacket >> iMsg;

  00018	8b 4d 08	 mov	 ecx, DWORD PTR _rkPacket$[ebp]
  0001b	8d 45 fc	 lea	 eax, DWORD PTR _iMsg$[ebp]
  0001e	50		 push	 eax
  0001f	89 75 fc	 mov	 DWORD PTR _iMsg$[ebp], esi
  00022	e8 00 00 00 00	 call	 ??5SP2Packet@@QAEAAV0@AAH@Z ; SP2Packet::operator>>

; 699  : 		
; 700  : 	bool bLog = false;
; 701  : 	if( Help::CheckEnableTimeGapUser2( 1 ) )

  00027	6a 01		 push	 1
  00029	32 db		 xor	 bl, bl
  0002b	e8 00 00 00 00	 call	 ?CheckEnableTimeGapUser2@Help@@YA_NH@Z ; Help::CheckEnableTimeGapUser2
  00030	59		 pop	 ecx
  00031	84 c0		 test	 al, al
  00033	74 02		 je	 SHORT $LN19@OnTempFile

; 702  : 		bLog = true;

  00035	fe c3		 inc	 bl
$LN19@OnTempFile:

; 703  : 
; 704  : 	if( iMsg == FILE_WRITE_ERROR_FILE_NAME && bLog )

  00037	8b 45 fc	 mov	 eax, DWORD PTR _iMsg$[ebp]
  0003a	83 f8 02	 cmp	 eax, 2
  0003d	75 0f		 jne	 SHORT $LN18@OnTempFile
  0003f	84 db		 test	 bl, bl
  00041	0f 84 85 00 00
	00		 je	 $LN2@OnTempFile

; 705  : 		LOG.PrintTimeAndLog( 0, "등록할 파일 이름이 잘못되었습니다." );

  00047	68 00 00 00 00	 push	 OFFSET ??_C@_0CD@LCGFLBGK@?$LF?n?$LH?O?G?R?5?F?D?$MA?O?5?$MA?L?$LI?$KH?$MA?L?5?$MA?$NP?$LI?x?$LF?G?$LO?z?$LN?$MA?$LE?O?$LE@
  0004c	eb 6e		 jmp	 SHORT $LN22@OnTempFile
$LN18@OnTempFile:

; 706  : 	else if( iMsg == FILE_WRITE_EXIST_FILE && bLog )

  0004e	83 f8 03	 cmp	 eax, 3
  00051	75 0b		 jne	 SHORT $LN16@OnTempFile
  00053	84 db		 test	 bl, bl
  00055	74 75		 je	 SHORT $LN2@OnTempFile

; 707  : 		LOG.PrintTimeAndLog( 0, "이미 등록된 파일입니다." );

  00057	68 00 00 00 00	 push	 OFFSET ??_C@_0BI@BKOHDDBN@?$MA?L?$LJ?L?5?$LF?n?$LH?O?$LF?H?5?F?D?$MA?O?$MA?T?$LE?O?$LE?Y?4?$AA@
  0005c	eb 5e		 jmp	 SHORT $LN22@OnTempFile
$LN16@OnTempFile:

; 708  : 	else if( iMsg == FILE_WRITE_ERROR_CREATE_FILE && bLog )

  0005e	83 f8 04	 cmp	 eax, 4
  00061	75 0b		 jne	 SHORT $LN14@OnTempFile
  00063	84 db		 test	 bl, bl
  00065	74 65		 je	 SHORT $LN2@OnTempFile

; 709  : 		LOG.PrintTimeAndLog( 0, "등록할 파일 생성이 실패하였습니다." );

  00067	68 00 00 00 00	 push	 OFFSET ??_C@_0CD@KOCENMLE@?$LF?n?$LH?O?G?R?5?F?D?$MA?O?5?$LL?$PN?$LM?$LK?$MA?L?5?$LN?G?F?P?G?O?$LP?$LE?$LN?$MA?$LE?O?$LE@
  0006c	eb 4e		 jmp	 SHORT $LN22@OnTempFile
$LN14@OnTempFile:

; 710  : 	else if( iMsg == FILE_WRITE_ERROR_WRITE_FILE && bLog )

  0006e	83 f8 05	 cmp	 eax, 5
  00071	75 0b		 jne	 SHORT $LN12@OnTempFile
  00073	84 db		 test	 bl, bl
  00075	74 55		 je	 SHORT $LN2@OnTempFile

; 711  : 		LOG.PrintTimeAndLog( 0, "등록할 파일 쓰기가 실패하였습니다." );

  00077	68 00 00 00 00	 push	 OFFSET ??_C@_0CD@KPEFFJCL@?$LF?n?$LH?O?G?R?5?F?D?$MA?O?5?$LO?$LC?$LB?b?$LA?$KB?5?$LN?G?F?P?G?O?$LP?$LE?$LN?$MA?$LE?O?$LE@
  0007c	eb 3e		 jmp	 SHORT $LN22@OnTempFile
$LN12@OnTempFile:

; 712  : 	else if( iMsg == FILE_WRITE_ERROR_FILE_CRC && bLog )

  0007e	83 f8 06	 cmp	 eax, 6
  00081	75 0b		 jne	 SHORT $LN10@OnTempFile
  00083	84 db		 test	 bl, bl
  00085	74 45		 je	 SHORT $LN2@OnTempFile

; 713  : 		LOG.PrintTimeAndLog( 0, "등록할 파일이 손상되었습니다." );

  00087	68 00 00 00 00	 push	 OFFSET ??_C@_0BO@MAGPJFFF@?$LF?n?$LH?O?G?R?5?F?D?$MA?O?$MA?L?5?$LM?U?$LL?s?$LF?G?$LO?z?$LN?$MA?$LE?O?$LE?Y?4?$AA@
  0008c	eb 2e		 jmp	 SHORT $LN22@OnTempFile
$LN10@OnTempFile:

; 714  : 	else if( iMsg == FILE_WRITE_ERROR_MOVE_FILE && bLog )

  0008e	83 f8 07	 cmp	 eax, 7
  00091	75 0b		 jne	 SHORT $LN8@OnTempFile
  00093	84 db		 test	 bl, bl
  00095	74 35		 je	 SHORT $LN2@OnTempFile

; 715  : 		LOG.PrintTimeAndLog( 0, "등록할 파일 이동이 실패하였습니다." );

  00097	68 00 00 00 00	 push	 OFFSET ??_C@_0CD@HJMHNDPO@?$LF?n?$LH?O?G?R?5?F?D?$MA?O?5?$MA?L?$LF?$LP?$MA?L?5?$LN?G?F?P?G?O?$LP?$LE?$LN?$MA?$LE?O?$LE@
  0009c	eb 1e		 jmp	 SHORT $LN22@OnTempFile
$LN8@OnTempFile:

; 716  : 	else if( iMsg == FILE_WRITE_ERROR_WRONG_FILE && bLog )

  0009e	83 f8 08	 cmp	 eax, 8
  000a1	75 0b		 jne	 SHORT $LN6@OnTempFile
  000a3	84 db		 test	 bl, bl
  000a5	74 25		 je	 SHORT $LN2@OnTempFile

; 717  : 		LOG.PrintTimeAndLog( 0, "등록할 파일이 JPG 파일 아니거나 사이즈가 잘못되었습니다." );

  000a7	68 00 00 00 00	 push	 OFFSET ??_C@_0DJ@DNGDENGG@?$LF?n?$LH?O?G?R?5?F?D?$MA?O?$MA?L?5JPG?5?F?D?$MA?O?5?$LO?F?$LE?O?$LA?E?$LD?$KK?5@
  000ac	eb 0e		 jmp	 SHORT $LN22@OnTempFile
$LN6@OnTempFile:

; 718  : 	else if( iMsg == FILE_WRITE_EXEPTION && bLog )

  000ae	83 f8 0a	 cmp	 eax, 10			; 0000000aH
  000b1	75 3b		 jne	 SHORT $LN4@OnTempFile
  000b3	84 db		 test	 bl, bl
  000b5	74 15		 je	 SHORT $LN2@OnTempFile

; 719  : 		LOG.PrintTimeAndLog( 0, "유저 업로드가 비활성화 상태입니다." );

  000b7	68 00 00 00 00	 push	 OFFSET ??_C@_0CD@BHLCJABD@?$MA?$KP?$MA?z?5?$LO?w?$LH?N?$LF?e?$LA?$KB?5?$LK?q?H?$LA?$LM?$LK?H?$KN?5?$LL?s?E?B?$MA?T?$LE?O?$LE@
$LN22@OnTempFile:
  000bc	56		 push	 esi
  000bd	ff 35 00 00 00
	00		 push	 DWORD PTR __imp_?LOG@@3VCLog@@A
  000c3	ff 15 00 00 00
	00		 call	 DWORD PTR __imp_?PrintTimeAndLog@CLog@@QAAXHPADZZ
  000c9	83 c4 0c	 add	 esp, 12			; 0000000cH
$LN2@OnTempFile:

; 724  : 	}
; 725  : 
; 726  : 	if( m_pSocket )

  000cc	8b 4f 04	 mov	 ecx, DWORD PTR [edi+4]
  000cf	3b ce		 cmp	 ecx, esi
  000d1	74 06		 je	 SHORT $LN1@OnTempFile

; 727  : 		m_pSocket->CloseClientTCP();

  000d3	ff 15 00 00 00
	00		 call	 DWORD PTR __imp_?CloseClientTCP@ioClientTCPSocket@@QAEXXZ
$LN1@OnTempFile:

; 728  : 	InitData();

  000d9	8b cf		 mov	 ecx, edi
  000db	e8 00 00 00 00	 call	 ?InitData@ioFileWriteClient@@IAEXXZ ; ioFileWriteClient::InitData

; 729  : 
; 730  : 	m_TempState = TS_END;

  000e0	c7 47 78 02 00
	00 00		 mov	 DWORD PTR [edi+120], 2
$LN20@OnTempFile:
  000e7	5f		 pop	 edi
  000e8	5e		 pop	 esi
  000e9	5b		 pop	 ebx

; 731  : }

  000ea	c9		 leave
  000eb	c2 04 00	 ret	 4
$LN4@OnTempFile:

; 720  : 	else if( iMsg == FILE_WRITE_START_OK )

  000ee	83 f8 09	 cmp	 eax, 9
  000f1	75 d9		 jne	 SHORT $LN2@OnTempFile

; 721  : 	{
; 722  : 		m_dwWriteSendTime = REALGETTIME();    // PROCESS 시작

  000f3	ff 15 00 00 00
	00		 call	 DWORD PTR __imp_?GetSingleton@ioFrameTimer@@SAAAV1@XZ
  000f9	8b c8		 mov	 ecx, eax
  000fb	ff 15 00 00 00
	00		 call	 DWORD PTR __imp_?GetTotalSec@ioFrameTimer@@QAEKXZ
  00101	89 47 14	 mov	 DWORD PTR [edi+20], eax

; 723  : 		return;

  00104	eb e1		 jmp	 SHORT $LN20@OnTempFile
?OnTempFileWrite@ioFileWriteClient@@QAEXAAVSP2Packet@@@Z ENDP ; ioFileWriteClient::OnTempFileWrite
_TEXT	ENDS
PUBLIC	?empty@?$vector@VioHashString@@V?$allocator@VioHashString@@@std@@@std@@QBE_NXZ ; std::vector<ioHashString,std::allocator<ioHashString> >::empty
; Function compile flags: /Ogsp
; File c:\program files (x86)\microsoft visual studio 10.0\vc\include\vector
;	COMDAT ?empty@?$vector@VioHashString@@V?$allocator@VioHashString@@@std@@@std@@QBE_NXZ
_TEXT	SEGMENT
?empty@?$vector@VioHashString@@V?$allocator@VioHashString@@@std@@@std@@QBE_NXZ PROC ; std::vector<ioHashString,std::allocator<ioHashString> >::empty, COMDAT
; _this$ = ecx

; 889  : 		return (this->_Myfirst == this->_Mylast);

  00000	8b 01		 mov	 eax, DWORD PTR [ecx]
  00002	2b 41 04	 sub	 eax, DWORD PTR [ecx+4]
  00005	f7 d8		 neg	 eax
  00007	1b c0		 sbb	 eax, eax
  00009	40		 inc	 eax

; 890  : 		}

  0000a	c3		 ret	 0
?empty@?$vector@VioHashString@@V?$allocator@VioHashString@@@std@@@std@@QBE_NXZ ENDP ; std::vector<ioHashString,std::allocator<ioHashString> >::empty
_TEXT	ENDS
PUBLIC	??A?$vector@VioHashString@@V?$allocator@VioHashString@@@std@@@std@@QAEAAVioHashString@@I@Z ; std::vector<ioHashString,std::allocator<ioHashString> >::operator[]
; Function compile flags: /Ogsp
;	COMDAT ??A?$vector@VioHashString@@V?$allocator@VioHashString@@@std@@@std@@QAEAAVioHashString@@I@Z
_TEXT	SEGMENT
__Pos$ = 8						; size = 4
??A?$vector@VioHashString@@V?$allocator@VioHashString@@@std@@@std@@QAEAAVioHashString@@I@Z PROC ; std::vector<ioHashString,std::allocator<ioHashString> >::operator[], COMDAT
; _this$ = ecx

; 928  : 		{	// subscript mutable sequence

  00000	55		 push	 ebp
  00001	8b ec		 mov	 ebp, esp

; 929  :  #if _ITERATOR_DEBUG_LEVEL == 2
; 930  : 		if (size() <= _Pos)
; 931  : 			{	// report error
; 932  : 			_DEBUG_ERROR("vector subscript out of range");
; 933  : 			_SCL_SECURE_OUT_OF_RANGE;
; 934  : 			}
; 935  : 
; 936  :  #elif _ITERATOR_DEBUG_LEVEL == 1
; 937  : 		_SCL_SECURE_VALIDATE_RANGE(_Pos < size());
; 938  :  #endif /* _ITERATOR_DEBUG_LEVEL */
; 939  : 
; 940  : 		return (*(this->_Myfirst + _Pos));

  00003	8b 45 08	 mov	 eax, DWORD PTR __Pos$[ebp]
  00006	c1 e0 04	 shl	 eax, 4
  00009	03 01		 add	 eax, DWORD PTR [ecx]

; 941  : 		}

  0000b	5d		 pop	 ebp
  0000c	c2 04 00	 ret	 4
??A?$vector@VioHashString@@V?$allocator@VioHashString@@@std@@@std@@QAEAAVioHashString@@I@Z ENDP ; std::vector<ioHashString,std::allocator<ioHashString> >::operator[]
_TEXT	ENDS
PUBLIC	??0?$Singleton@VioFileWriteClient@@@@QAE@XZ	; Singleton<ioFileWriteClient>::Singleton<ioFileWriteClient>
; Function compile flags: /Ogsp
; File d:\lost saga for developer\youtube\tutorial\source\src\io3dengine\iosingleton.h
;	COMDAT ??0?$Singleton@VioFileWriteClient@@@@QAE@XZ
_TEXT	SEGMENT
??0?$Singleton@VioFileWriteClient@@@@QAE@XZ PROC	; Singleton<ioFileWriteClient>::Singleton<ioFileWriteClient>, COMDAT
; _this$ = ecx

; 27   : 	Singleton()

  00000	8b c1		 mov	 eax, ecx

; 28   : 	{
; 29   : 		assert( !ms_Singleton );
; 30   : 		int offset = (int)(T*)1 - (int)(Singleton <T>*)(T*)1;
; 31   : 		ms_Singleton = (T*)((int)this + offset);

  00002	8d 48 fc	 lea	 ecx, DWORD PTR [eax-4]
  00005	89 0d 00 00 00
	00		 mov	 DWORD PTR ?ms_Singleton@?$Singleton@VioFileWriteClient@@@@1PAVioFileWriteClient@@A, ecx ; Singleton<ioFileWriteClient>::ms_Singleton

; 32   : 	}

  0000b	c3		 ret	 0
??0?$Singleton@VioFileWriteClient@@@@QAE@XZ ENDP	; Singleton<ioFileWriteClient>::Singleton<ioFileWriteClient>
_TEXT	ENDS
PUBLIC	??1?$Singleton@VioFileWriteClient@@@@QAE@XZ	; Singleton<ioFileWriteClient>::~Singleton<ioFileWriteClient>
; Function compile flags: /Ogsp
;	COMDAT ??1?$Singleton@VioFileWriteClient@@@@QAE@XZ
_TEXT	SEGMENT
??1?$Singleton@VioFileWriteClient@@@@QAE@XZ PROC	; Singleton<ioFileWriteClient>::~Singleton<ioFileWriteClient>, COMDAT
; _this$ = ecx

; 36   : 		assert( ms_Singleton );
; 37   : 		ms_Singleton = 0;

  00000	83 25 00 00 00
	00 00		 and	 DWORD PTR ?ms_Singleton@?$Singleton@VioFileWriteClient@@@@1PAVioFileWriteClient@@A, 0 ; Singleton<ioFileWriteClient>::ms_Singleton

; 38   : 	}

  00007	c3		 ret	 0
??1?$Singleton@VioFileWriteClient@@@@QAE@XZ ENDP	; Singleton<ioFileWriteClient>::~Singleton<ioFileWriteClient>
_TEXT	ENDS
PUBLIC	?GetSingleton@?$Singleton@VioFileWriteClient@@@@SAAAVioFileWriteClient@@XZ ; Singleton<ioFileWriteClient>::GetSingleton
; Function compile flags: /Ogsp
;	COMDAT ?GetSingleton@?$Singleton@VioFileWriteClient@@@@SAAAVioFileWriteClient@@XZ
_TEXT	SEGMENT
?GetSingleton@?$Singleton@VioFileWriteClient@@@@SAAAVioFileWriteClient@@XZ PROC ; Singleton<ioFileWriteClient>::GetSingleton, COMDAT

; 42   : 		assert( ms_Singleton );
; 43   : 		return (*ms_Singleton);

  00000	a1 00 00 00 00	 mov	 eax, DWORD PTR ?ms_Singleton@?$Singleton@VioFileWriteClient@@@@1PAVioFileWriteClient@@A ; Singleton<ioFileWriteClient>::ms_Singleton

; 44   : 	}

  00005	c3		 ret	 0
?GetSingleton@?$Singleton@VioFileWriteClient@@@@SAAAVioFileWriteClient@@XZ ENDP ; Singleton<ioFileWriteClient>::GetSingleton
_TEXT	ENDS
PUBLIC	?empty@?$vector@KV?$allocator@K@std@@@std@@QBE_NXZ ; std::vector<unsigned long,std::allocator<unsigned long> >::empty
; Function compile flags: /Ogsp
; File c:\program files (x86)\microsoft visual studio 10.0\vc\include\vector
;	COMDAT ?empty@?$vector@KV?$allocator@K@std@@@std@@QBE_NXZ
_TEXT	SEGMENT
?empty@?$vector@KV?$allocator@K@std@@@std@@QBE_NXZ PROC	; std::vector<unsigned long,std::allocator<unsigned long> >::empty, COMDAT
; _this$ = ecx

; 889  : 		return (this->_Myfirst == this->_Mylast);

  00000	8b 01		 mov	 eax, DWORD PTR [ecx]
  00002	2b 41 04	 sub	 eax, DWORD PTR [ecx+4]
  00005	f7 d8		 neg	 eax
  00007	1b c0		 sbb	 eax, eax
  00009	40		 inc	 eax

; 890  : 		}

  0000a	c3		 ret	 0
?empty@?$vector@KV?$allocator@K@std@@@std@@QBE_NXZ ENDP	; std::vector<unsigned long,std::allocator<unsigned long> >::empty
_TEXT	ENDS
PUBLIC	?_Inside@?$vector@VioHashString@@V?$allocator@VioHashString@@@std@@@std@@IBE_NPBVioHashString@@@Z ; std::vector<ioHashString,std::allocator<ioHashString> >::_Inside
; Function compile flags: /Ogsp
;	COMDAT ?_Inside@?$vector@VioHashString@@V?$allocator@VioHashString@@@std@@@std@@IBE_NPBVioHashString@@@Z
_TEXT	SEGMENT
__Ptr$ = 8						; size = 4
?_Inside@?$vector@VioHashString@@V?$allocator@VioHashString@@@std@@@std@@IBE_NPBVioHashString@@@Z PROC ; std::vector<ioHashString,std::allocator<ioHashString> >::_Inside, COMDAT
; _this$ = ecx

; 1285 : 		{	// test if _Ptr points inside vector

  00000	55		 push	 ebp
  00001	8b ec		 mov	 ebp, esp

; 1286 : 		return (_Ptr < this->_Mylast && this->_Myfirst <= _Ptr);

  00003	8b 45 08	 mov	 eax, DWORD PTR __Ptr$[ebp]
  00006	3b 41 04	 cmp	 eax, DWORD PTR [ecx+4]
  00009	73 09		 jae	 SHORT $LN3@Inside
  0000b	39 01		 cmp	 DWORD PTR [ecx], eax
  0000d	77 05		 ja	 SHORT $LN3@Inside
  0000f	33 c0		 xor	 eax, eax
  00011	40		 inc	 eax
  00012	eb 02		 jmp	 SHORT $LN4@Inside
$LN3@Inside:
  00014	33 c0		 xor	 eax, eax
$LN4@Inside:

; 1287 : 		}

  00016	5d		 pop	 ebp
  00017	c2 04 00	 ret	 4
?_Inside@?$vector@VioHashString@@V?$allocator@VioHashString@@@std@@@std@@IBE_NPBVioHashString@@@Z ENDP ; std::vector<ioHashString,std::allocator<ioHashString> >::_Inside
_TEXT	ENDS
PUBLIC	?_Orphan_range@?$vector@VioHashString@@V?$allocator@VioHashString@@@std@@@std@@IBEXPAVioHashString@@0@Z ; std::vector<ioHashString,std::allocator<ioHashString> >::_Orphan_range
; Function compile flags: /Ogsp
;	COMDAT ?_Orphan_range@?$vector@VioHashString@@V?$allocator@VioHashString@@@std@@@std@@IBEXPAVioHashString@@0@Z
_TEXT	SEGMENT
___formal$ = 8						; size = 4
___formal$ = 12						; size = 4
?_Orphan_range@?$vector@VioHashString@@V?$allocator@VioHashString@@@std@@@std@@IBEXPAVioHashString@@0@Z PROC ; std::vector<ioHashString,std::allocator<ioHashString> >::_Orphan_range, COMDAT
; _this$ = ecx

; 1454 : 		}

  00000	c2 08 00	 ret	 8
?_Orphan_range@?$vector@VioHashString@@V?$allocator@VioHashString@@@std@@@std@@IBEXPAVioHashString@@0@Z ENDP ; std::vector<ioHashString,std::allocator<ioHashString> >::_Orphan_range
_TEXT	ENDS
PUBLIC	?capacity@?$vector@VioHashString@@V?$allocator@VioHashString@@@std@@@std@@QBEIXZ ; std::vector<ioHashString,std::allocator<ioHashString> >::capacity
; Function compile flags: /Ogsp
;	COMDAT ?capacity@?$vector@VioHashString@@V?$allocator@VioHashString@@@std@@@std@@QBEIXZ
_TEXT	SEGMENT
?capacity@?$vector@VioHashString@@V?$allocator@VioHashString@@@std@@@std@@QBEIXZ PROC ; std::vector<ioHashString,std::allocator<ioHashString> >::capacity, COMDAT
; _this$ = ecx

; 777  : 		return (this->_Myend - this->_Myfirst);

  00000	8b 41 08	 mov	 eax, DWORD PTR [ecx+8]
  00003	2b 01		 sub	 eax, DWORD PTR [ecx]
  00005	c1 f8 04	 sar	 eax, 4

; 778  : 		}

  00008	c3		 ret	 0
?capacity@?$vector@VioHashString@@V?$allocator@VioHashString@@@std@@@std@@QBEIXZ ENDP ; std::vector<ioHashString,std::allocator<ioHashString> >::capacity
_TEXT	ENDS
PUBLIC	?_Adopt@_Iterator_base0@std@@QAEXPBX@Z		; std::_Iterator_base0::_Adopt
; Function compile flags: /Ogsp
; File c:\program files (x86)\microsoft visual studio 10.0\vc\include\xutility
;	COMDAT ?_Adopt@_Iterator_base0@std@@QAEXPBX@Z
_TEXT	SEGMENT
___formal$ = 8						; size = 4
?_Adopt@_Iterator_base0@std@@QAEXPBX@Z PROC		; std::_Iterator_base0::_Adopt, COMDAT
; _this$ = ecx

; 49   : 		}

  00000	c2 04 00	 ret	 4
?_Adopt@_Iterator_base0@std@@QAEXPBX@Z ENDP		; std::_Iterator_base0::_Adopt
_TEXT	ENDS
PUBLIC	??$addressof@$$CBVioHashString@@@std@@YAPBVioHashString@@ABV1@@Z ; std::addressof<ioHashString const >
; Function compile flags: /Ogsp
; File c:\program files (x86)\microsoft visual studio 10.0\vc\include\xmemory
;	COMDAT ??$addressof@$$CBVioHashString@@@std@@YAPBVioHashString@@ABV1@@Z
_TEXT	SEGMENT
__Val$ = 8						; size = 4
??$addressof@$$CBVioHashString@@@std@@YAPBVioHashString@@ABV1@@Z PROC ; std::addressof<ioHashString const >, COMDAT

; 110  : 	{	// return address of _Val

  00000	55		 push	 ebp
  00001	8b ec		 mov	 ebp, esp

; 111  : 	return ((_Ty *) &(char&)_Val);

  00003	8b 45 08	 mov	 eax, DWORD PTR __Val$[ebp]

; 112  : 	}

  00006	5d		 pop	 ebp
  00007	c3		 ret	 0
??$addressof@$$CBVioHashString@@@std@@YAPBVioHashString@@ABV1@@Z ENDP ; std::addressof<ioHashString const >
_TEXT	ENDS
PUBLIC	??$_Val_type@PAVioHashString@@@std@@YAPAVioHashString@@PAV1@@Z ; std::_Val_type<ioHashString *>
; Function compile flags: /Ogsp
; File c:\program files (x86)\microsoft visual studio 10.0\vc\include\xutility
;	COMDAT ??$_Val_type@PAVioHashString@@@std@@YAPAVioHashString@@PAV1@@Z
_TEXT	SEGMENT
___formal$ = 8						; size = 4
??$_Val_type@PAVioHashString@@@std@@YAPAVioHashString@@PAV1@@Z PROC ; std::_Val_type<ioHashString *>, COMDAT

; 790  : 	return (0);

  00000	33 c0		 xor	 eax, eax

; 791  : 	}

  00002	c3		 ret	 0
??$_Val_type@PAVioHashString@@@std@@YAPAVioHashString@@PAV1@@Z ENDP ; std::_Val_type<ioHashString *>
_TEXT	ENDS
PUBLIC	??$forward@VioHashString@@@std@@YA$$QAVioHashString@@AAV1@@Z ; std::forward<ioHashString>
; Function compile flags: /Ogsp
; File c:\program files (x86)\microsoft visual studio 10.0\vc\include\utility
;	COMDAT ??$forward@VioHashString@@@std@@YA$$QAVioHashString@@AAV1@@Z
_TEXT	SEGMENT
__Arg$ = 8						; size = 4
??$forward@VioHashString@@@std@@YA$$QAVioHashString@@AAV1@@Z PROC ; std::forward<ioHashString>, COMDAT

; 78   : 	{	// forward _Arg, given explicitly specified type parameter

  00000	55		 push	 ebp
  00001	8b ec		 mov	 ebp, esp

; 79   : 	return ((_Ty&&)_Arg);

  00003	8b 45 08	 mov	 eax, DWORD PTR __Arg$[ebp]

; 80   : 	}

  00006	5d		 pop	 ebp
  00007	c3		 ret	 0
??$forward@VioHashString@@@std@@YA$$QAVioHashString@@AAV1@@Z ENDP ; std::forward<ioHashString>
_TEXT	ENDS
PUBLIC	?_DECSTR@@YAXPADH@Z				; _DECSTR
; Function compile flags: /Ogsp
; File d:\lost saga for developer\youtube\tutorial\source\src\lsclient\stringprotect.h
;	COMDAT ?_DECSTR@@YAXPADH@Z
_TEXT	SEGMENT
_s$ = 8							; size = 4
_l$ = 12						; size = 4
?_DECSTR@@YAXPADH@Z PROC				; _DECSTR, COMDAT

; 40   : __forceinline void _DECSTR(char* s, int l){int i=0,l4=(l-1)/4,*p=(int*)s;s[l-1]=0;for(;i<l4;++i)*(p++)^=0xEAEBECED;for(i=l4*4;i<l-1;++i)s[i]^=0xED-i%4;}

  00000	55		 push	 ebp
  00001	8b ec		 mov	 ebp, esp
  00003	8b 4d 0c	 mov	 ecx, DWORD PTR _l$[ebp]
  00006	56		 push	 esi
  00007	8b 75 08	 mov	 esi, DWORD PTR _s$[ebp]
  0000a	57		 push	 edi
  0000b	8d 79 ff	 lea	 edi, DWORD PTR [ecx-1]
  0000e	8b c7		 mov	 eax, edi
  00010	99		 cdq
  00011	83 e2 03	 and	 edx, 3
  00014	03 c2		 add	 eax, edx
  00016	c1 f8 02	 sar	 eax, 2
  00019	8b d6		 mov	 edx, esi
  0001b	c6 44 0e ff 00	 mov	 BYTE PTR [esi+ecx-1], 0
  00020	85 c0		 test	 eax, eax
  00022	7e 0e		 jle	 SHORT $LN4@DECSTR
  00024	8b c8		 mov	 ecx, eax
$LL6@DECSTR:
  00026	81 32 ed ec eb
	ea		 xor	 DWORD PTR [edx], -353637139 ; eaebecedH
  0002c	83 c2 04	 add	 edx, 4
  0002f	49		 dec	 ecx
  00030	75 f4		 jne	 SHORT $LL6@DECSTR
$LN4@DECSTR:
  00032	c1 e0 02	 shl	 eax, 2
  00035	eb 17		 jmp	 SHORT $LN14@DECSTR
$LL3@DECSTR:
  00037	8b c8		 mov	 ecx, eax
  00039	81 e1 03 00 00
	80		 and	 ecx, -2147483645	; 80000003H
  0003f	79 05		 jns	 SHORT $LN13@DECSTR
  00041	49		 dec	 ecx
  00042	83 c9 fc	 or	 ecx, -4			; fffffffcH
  00045	41		 inc	 ecx
$LN13@DECSTR:
  00046	b2 ed		 mov	 dl, -19			; ffffffedH
  00048	2a d1		 sub	 dl, cl
  0004a	30 14 30	 xor	 BYTE PTR [eax+esi], dl
  0004d	40		 inc	 eax
$LN14@DECSTR:
  0004e	3b c7		 cmp	 eax, edi
  00050	7c e5		 jl	 SHORT $LL3@DECSTR
  00052	5f		 pop	 edi
  00053	5e		 pop	 esi
  00054	5d		 pop	 ebp
  00055	c3		 ret	 0
?_DECSTR@@YAXPADH@Z ENDP				; _DECSTR
_TEXT	ENDS
PUBLIC	?GetProcID@ioFileSocket@@QAEKXZ			; ioFileSocket::GetProcID
; Function compile flags: /Ogsp
; File d:\lost saga for developer\youtube\tutorial\source\src\lsclient\iofilewriteclient.h
;	COMDAT ?GetProcID@ioFileSocket@@QAEKXZ
_TEXT	SEGMENT
?GetProcID@ioFileSocket@@QAEKXZ PROC			; ioFileSocket::GetProcID, COMDAT
; _this$ = ecx

; 19   : 	DWORD GetProcID(){ return m_dwProcID; }

  00000	8b 81 2c 01 00
	00		 mov	 eax, DWORD PTR [ecx+300]
  00006	c3		 ret	 0
?GetProcID@ioFileSocket@@QAEKXZ ENDP			; ioFileSocket::GetProcID
_TEXT	ENDS
PUBLIC	??0tagFilePacket@@QAE@XZ			; tagFilePacket::tagFilePacket
EXTRN	_memset:PROC
; Function compile flags: /Ogsp
;	COMDAT ??0tagFilePacket@@QAE@XZ
_TEXT	SEGMENT
??0tagFilePacket@@QAE@XZ PROC				; tagFilePacket::tagFilePacket, COMDAT
; _this$ = ecx

; 118  : 	tagFilePacket()

  00000	56		 push	 esi

; 119  : 	{
; 120  : 		ZeroMemory( m_FilePacket, sizeof( m_FilePacket ) );

  00001	68 00 02 00 00	 push	 512			; 00000200H
  00006	8b f1		 mov	 esi, ecx
  00008	6a 00		 push	 0
  0000a	56		 push	 esi
  0000b	e8 00 00 00 00	 call	 _memset
  00010	83 c4 0c	 add	 esp, 12			; 0000000cH

; 121  : 	}

  00013	8b c6		 mov	 eax, esi
  00015	5e		 pop	 esi
  00016	c3		 ret	 0
??0tagFilePacket@@QAE@XZ ENDP				; tagFilePacket::tagFilePacket
_TEXT	ENDS
PUBLIC	?GetHWnd@ioApplication@@QBEPAUHWND__@@XZ	; ioApplication::GetHWnd
; Function compile flags: /Ogsp
; File d:\lost saga for developer\youtube\tutorial\source\src\lsclient\ioapplication.h
;	COMDAT ?GetHWnd@ioApplication@@QBEPAUHWND__@@XZ
_TEXT	SEGMENT
?GetHWnd@ioApplication@@QBEPAUHWND__@@XZ PROC		; ioApplication::GetHWnd, COMDAT
; _this$ = ecx

; 686  : 	HWND GetHWnd() const { return m_hWnd; }

  00000	8b 41 08	 mov	 eax, DWORD PTR [ecx+8]
  00003	c3		 ret	 0
?GetHWnd@ioApplication@@QBEPAUHWND__@@XZ ENDP		; ioApplication::GetHWnd
_TEXT	ENDS
PUBLIC	?GetUserIndex@ioMyInfo@@QBEABKXZ		; ioMyInfo::GetUserIndex
; Function compile flags: /Ogsp
; File d:\lost saga for developer\youtube\tutorial\source\src\lsclient\iomyinfo.h
;	COMDAT ?GetUserIndex@ioMyInfo@@QBEABKXZ
_TEXT	SEGMENT
?GetUserIndex@ioMyInfo@@QBEABKXZ PROC			; ioMyInfo::GetUserIndex, COMDAT
; _this$ = ecx

; 515  : 	const DWORD& GetUserIndex() const { return m_user_data.m_user_idx; }

  00000	8d 41 08	 lea	 eax, DWORD PTR [ecx+8]
  00003	c3		 ret	 0
?GetUserIndex@ioMyInfo@@QBEABKXZ ENDP			; ioMyInfo::GetUserIndex
_TEXT	ENDS
PUBLIC	?GetPrivateID@ioMyInfo@@QBEABVioHashString@@XZ	; ioMyInfo::GetPrivateID
; Function compile flags: /Ogsp
;	COMDAT ?GetPrivateID@ioMyInfo@@QBEABVioHashString@@XZ
_TEXT	SEGMENT
?GetPrivateID@ioMyInfo@@QBEABVioHashString@@XZ PROC	; ioMyInfo::GetPrivateID, COMDAT
; _this$ = ecx

; 516  : 	const ioHashString& GetPrivateID() const { return m_user_data.m_private_id; }  

  00000	8d 41 0c	 lea	 eax, DWORD PTR [ecx+12]
  00003	c3		 ret	 0
?GetPrivateID@ioMyInfo@@QBEABVioHashString@@XZ ENDP	; ioMyInfo::GetPrivateID
_TEXT	ENDS
PUBLIC	?GetPublicID@ioMyInfo@@QBEABVioHashString@@XZ	; ioMyInfo::GetPublicID
; Function compile flags: /Ogsp
;	COMDAT ?GetPublicID@ioMyInfo@@QBEABVioHashString@@XZ
_TEXT	SEGMENT
?GetPublicID@ioMyInfo@@QBEABVioHashString@@XZ PROC	; ioMyInfo::GetPublicID, COMDAT
; _this$ = ecx

; 517  : 	const ioHashString& GetPublicID() const { return m_user_data.m_public_id; }    

  00000	8d 41 1c	 lea	 eax, DWORD PTR [ecx+28]
  00003	c3		 ret	 0
?GetPublicID@ioMyInfo@@QBEABVioHashString@@XZ ENDP	; ioMyInfo::GetPublicID
_TEXT	ENDS
PUBLIC	?GetMyIP@ioMyInfo@@QBEABVioHashString@@XZ	; ioMyInfo::GetMyIP
; Function compile flags: /Ogsp
;	COMDAT ?GetMyIP@ioMyInfo@@QBEABVioHashString@@XZ
_TEXT	SEGMENT
?GetMyIP@ioMyInfo@@QBEABVioHashString@@XZ PROC		; ioMyInfo::GetMyIP, COMDAT
; _this$ = ecx

; 763  : 	inline const ioHashString& GetMyIP() const {return m_MyIP;}

  00000	8d 81 68 04 00
	00		 lea	 eax, DWORD PTR [ecx+1128]
  00006	c3		 ret	 0
?GetMyIP@ioMyInfo@@QBEABVioHashString@@XZ ENDP		; ioMyInfo::GetMyIP
_TEXT	ENDS
PUBLIC	?size@?$vector@VioHashString@@V?$allocator@VioHashString@@@std@@@std@@QBEIXZ ; std::vector<ioHashString,std::allocator<ioHashString> >::size
; Function compile flags: /Ogsp
; File c:\program files (x86)\microsoft visual studio 10.0\vc\include\vector
;	COMDAT ?size@?$vector@VioHashString@@V?$allocator@VioHashString@@@std@@@std@@QBEIXZ
_TEXT	SEGMENT
?size@?$vector@VioHashString@@V?$allocator@VioHashString@@@std@@@std@@QBEIXZ PROC ; std::vector<ioHashString,std::allocator<ioHashString> >::size, COMDAT
; _this$ = ecx

; 879  : 		return (this->_Mylast - this->_Myfirst);

  00000	8b 41 04	 mov	 eax, DWORD PTR [ecx+4]
  00003	2b 01		 sub	 eax, DWORD PTR [ecx]
  00005	c1 f8 04	 sar	 eax, 4

; 880  : 		}

  00008	c3		 ret	 0
?size@?$vector@VioHashString@@V?$allocator@VioHashString@@@std@@@std@@QBEIXZ ENDP ; std::vector<ioHashString,std::allocator<ioHashString> >::size
_TEXT	ENDS
PUBLIC	?size@?$vector@KV?$allocator@K@std@@@std@@QBEIXZ ; std::vector<unsigned long,std::allocator<unsigned long> >::size
; Function compile flags: /Ogsp
;	COMDAT ?size@?$vector@KV?$allocator@K@std@@@std@@QBEIXZ
_TEXT	SEGMENT
?size@?$vector@KV?$allocator@K@std@@@std@@QBEIXZ PROC	; std::vector<unsigned long,std::allocator<unsigned long> >::size, COMDAT
; _this$ = ecx

; 879  : 		return (this->_Mylast - this->_Myfirst);

  00000	8b 41 04	 mov	 eax, DWORD PTR [ecx+4]
  00003	2b 01		 sub	 eax, DWORD PTR [ecx]
  00005	c1 f8 02	 sar	 eax, 2

; 880  : 		}

  00008	c3		 ret	 0
?size@?$vector@KV?$allocator@K@std@@@std@@QBEIXZ ENDP	; std::vector<unsigned long,std::allocator<unsigned long> >::size
_TEXT	ENDS
PUBLIC	??A?$vector@KV?$allocator@K@std@@@std@@QAEAAKI@Z ; std::vector<unsigned long,std::allocator<unsigned long> >::operator[]
; Function compile flags: /Ogsp
;	COMDAT ??A?$vector@KV?$allocator@K@std@@@std@@QAEAAKI@Z
_TEXT	SEGMENT
__Pos$ = 8						; size = 4
??A?$vector@KV?$allocator@K@std@@@std@@QAEAAKI@Z PROC	; std::vector<unsigned long,std::allocator<unsigned long> >::operator[], COMDAT
; _this$ = ecx

; 928  : 		{	// subscript mutable sequence

  00000	55		 push	 ebp
  00001	8b ec		 mov	 ebp, esp

; 929  :  #if _ITERATOR_DEBUG_LEVEL == 2
; 930  : 		if (size() <= _Pos)
; 931  : 			{	// report error
; 932  : 			_DEBUG_ERROR("vector subscript out of range");
; 933  : 			_SCL_SECURE_OUT_OF_RANGE;
; 934  : 			}
; 935  : 
; 936  :  #elif _ITERATOR_DEBUG_LEVEL == 1
; 937  : 		_SCL_SECURE_VALIDATE_RANGE(_Pos < size());
; 938  :  #endif /* _ITERATOR_DEBUG_LEVEL */
; 939  : 
; 940  : 		return (*(this->_Myfirst + _Pos));

  00003	8b 01		 mov	 eax, DWORD PTR [ecx]
  00005	8b 4d 08	 mov	 ecx, DWORD PTR __Pos$[ebp]
  00008	8d 04 88	 lea	 eax, DWORD PTR [eax+ecx*4]

; 941  : 		}

  0000b	5d		 pop	 ebp
  0000c	c2 04 00	 ret	 4
??A?$vector@KV?$allocator@K@std@@@std@@QAEAAKI@Z ENDP	; std::vector<unsigned long,std::allocator<unsigned long> >::operator[]
_TEXT	ENDS
PUBLIC	??1?$_Vector_val@VioHashString@@V?$allocator@VioHashString@@@std@@@std@@QAE@XZ ; std::_Vector_val<ioHashString,std::allocator<ioHashString> >::~_Vector_val<ioHashString,std::allocator<ioHashString> >
; Function compile flags: /Ogsp
;	COMDAT ??1?$_Vector_val@VioHashString@@V?$allocator@VioHashString@@@std@@@std@@QAE@XZ
_TEXT	SEGMENT
??1?$_Vector_val@VioHashString@@V?$allocator@VioHashString@@@std@@@std@@QAE@XZ PROC ; std::_Vector_val<ioHashString,std::allocator<ioHashString> >::~_Vector_val<ioHashString,std::allocator<ioHashString> >, COMDAT
; _this$ = ecx

; 434  : 		}

  00000	c3		 ret	 0
??1?$_Vector_val@VioHashString@@V?$allocator@VioHashString@@@std@@@std@@QAE@XZ ENDP ; std::_Vector_val<ioHashString,std::allocator<ioHashString> >::~_Vector_val<ioHashString,std::allocator<ioHashString> >
_TEXT	ENDS
PUBLIC	??0?$allocator@VioHashString@@@std@@QAE@XZ	; std::allocator<ioHashString>::allocator<ioHashString>
; Function compile flags: /Ogsp
; File c:\program files (x86)\microsoft visual studio 10.0\vc\include\xmemory
;	COMDAT ??0?$allocator@VioHashString@@@std@@QAE@XZ
_TEXT	SEGMENT
??0?$allocator@VioHashString@@@std@@QAE@XZ PROC		; std::allocator<ioHashString>::allocator<ioHashString>, COMDAT
; _this$ = ecx

; 161  : 	_ALLOCATOR() _THROW0()

  00000	8b c1		 mov	 eax, ecx

; 162  : 		{	// construct default allocator (do nothing)
; 163  : 		}

  00002	c3		 ret	 0
??0?$allocator@VioHashString@@@std@@QAE@XZ ENDP		; std::allocator<ioHashString>::allocator<ioHashString>
_TEXT	ENDS
PUBLIC	??0?$allocator@VioHashString@@@std@@QAE@ABV01@@Z ; std::allocator<ioHashString>::allocator<ioHashString>
; Function compile flags: /Ogsp
;	COMDAT ??0?$allocator@VioHashString@@@std@@QAE@ABV01@@Z
_TEXT	SEGMENT
___formal$ = 8						; size = 4
??0?$allocator@VioHashString@@@std@@QAE@ABV01@@Z PROC	; std::allocator<ioHashString>::allocator<ioHashString>, COMDAT
; _this$ = ecx

; 165  : 	_ALLOCATOR(const _ALLOCATOR<_Ty>&) _THROW0()

  00000	8b c1		 mov	 eax, ecx

; 166  : 		{	// construct by copying (do nothing)
; 167  : 		}

  00002	c2 04 00	 ret	 4
??0?$allocator@VioHashString@@@std@@QAE@ABV01@@Z ENDP	; std::allocator<ioHashString>::allocator<ioHashString>
_TEXT	ENDS
PUBLIC	??_C@_0BD@OLBABOEK@vector?$DMT?$DO?5too?5long?$AA@ ; `string'
PUBLIC	?_Xlen@?$vector@VioHashString@@V?$allocator@VioHashString@@@std@@@std@@IBEXXZ ; std::vector<ioHashString,std::allocator<ioHashString> >::_Xlen
EXTRN	__imp_?_Xlength_error@std@@YAXPBD@Z:PROC
;	COMDAT ??_C@_0BD@OLBABOEK@vector?$DMT?$DO?5too?5long?$AA@
; File c:\program files (x86)\microsoft visual studio 10.0\vc\include\vector
CONST	SEGMENT
??_C@_0BD@OLBABOEK@vector?$DMT?$DO?5too?5long?$AA@ DB 'vector<T> too long'
	DB	00H						; `string'
; Function compile flags: /Ogsp
CONST	ENDS
;	COMDAT ?_Xlen@?$vector@VioHashString@@V?$allocator@VioHashString@@@std@@@std@@IBEXXZ
_TEXT	SEGMENT
?_Xlen@?$vector@VioHashString@@V?$allocator@VioHashString@@@std@@@std@@IBEXXZ PROC ; std::vector<ioHashString,std::allocator<ioHashString> >::_Xlen, COMDAT
; _this$ = ecx

; 1427 : 		_Xlength_error("vector<T> too long");

  00000	68 00 00 00 00	 push	 OFFSET ??_C@_0BD@OLBABOEK@vector?$DMT?$DO?5too?5long?$AA@
  00005	ff 15 00 00 00
	00		 call	 DWORD PTR __imp_?_Xlength_error@std@@YAXPBD@Z
$LN4@Xlen:
$LN3@Xlen:
  0000b	cc		 int	 3
?_Xlen@?$vector@VioHashString@@V?$allocator@VioHashString@@@std@@@std@@IBEXXZ ENDP ; std::vector<ioHashString,std::allocator<ioHashString> >::_Xlen
_TEXT	ENDS
PUBLIC	?deallocate@?$allocator@VioHashString@@@std@@QAEXPAVioHashString@@I@Z ; std::allocator<ioHashString>::deallocate
; Function compile flags: /Ogsp
; File c:\program files (x86)\microsoft visual studio 10.0\vc\include\xmemory
;	COMDAT ?deallocate@?$allocator@VioHashString@@@std@@QAEXPAVioHashString@@I@Z
_TEXT	SEGMENT
__Ptr$ = 8						; size = 4
___formal$ = 12						; size = 4
?deallocate@?$allocator@VioHashString@@@std@@QAEXPAVioHashString@@I@Z PROC ; std::allocator<ioHashString>::deallocate, COMDAT
; _this$ = ecx

; 181  : 		{	// deallocate object at _Ptr, ignore size

  00000	55		 push	 ebp
  00001	8b ec		 mov	 ebp, esp

; 182  : 		::operator delete(_Ptr);

  00003	ff 75 08	 push	 DWORD PTR __Ptr$[ebp]
  00006	e8 00 00 00 00	 call	 ??3@YAXPAX@Z		; operator delete
  0000b	59		 pop	 ecx

; 183  : 		}

  0000c	5d		 pop	 ebp
  0000d	c2 08 00	 ret	 8
?deallocate@?$allocator@VioHashString@@@std@@QAEXPAVioHashString@@I@Z ENDP ; std::allocator<ioHashString>::deallocate
_TEXT	ENDS
PUBLIC	??0?$_Vector_const_iterator@V?$_Vector_val@VioHashString@@V?$allocator@VioHashString@@@std@@@std@@@std@@QAE@PAVioHashString@@PBU_Container_base0@1@@Z ; std::_Vector_const_iterator<std::_Vector_val<ioHashString,std::allocator<ioHashString> > >::_Vector_const_iterator<std::_Vector_val<ioHashString,std::allocator<ioHashString> > >
; Function compile flags: /Ogsp
; File c:\program files (x86)\microsoft visual studio 10.0\vc\include\vector
;	COMDAT ??0?$_Vector_const_iterator@V?$_Vector_val@VioHashString@@V?$allocator@VioHashString@@@std@@@std@@@std@@QAE@PAVioHashString@@PBU_Container_base0@1@@Z
_TEXT	SEGMENT
__Parg$ = 8						; size = 4
__Pvector$ = 12						; size = 4
??0?$_Vector_const_iterator@V?$_Vector_val@VioHashString@@V?$allocator@VioHashString@@@std@@@std@@@std@@QAE@PAVioHashString@@PBU_Container_base0@1@@Z PROC ; std::_Vector_const_iterator<std::_Vector_val<ioHashString,std::allocator<ioHashString> > >::_Vector_const_iterator<std::_Vector_val<ioHashString,std::allocator<ioHashString> > >, COMDAT
; _this$ = ecx

; 45   : 		{	// construct with pointer _Parg

  00000	55		 push	 ebp
  00001	8b ec		 mov	 ebp, esp
  00003	8b c1		 mov	 eax, ecx
  00005	8b 4d 08	 mov	 ecx, DWORD PTR __Parg$[ebp]
  00008	89 08		 mov	 DWORD PTR [eax], ecx

; 46   : 		this->_Adopt(_Pvector);
; 47   : 		}

  0000a	5d		 pop	 ebp
  0000b	c2 08 00	 ret	 8
??0?$_Vector_const_iterator@V?$_Vector_val@VioHashString@@V?$allocator@VioHashString@@@std@@@std@@@std@@QAE@PAVioHashString@@PBU_Container_base0@1@@Z ENDP ; std::_Vector_const_iterator<std::_Vector_val<ioHashString,std::allocator<ioHashString> > >::_Vector_const_iterator<std::_Vector_val<ioHashString,std::allocator<ioHashString> > >
_TEXT	ENDS
PUBLIC	??0?$_Vector_iterator@V?$_Vector_val@VioHashString@@V?$allocator@VioHashString@@@std@@@std@@@std@@QAE@PAVioHashString@@PBU_Container_base0@1@@Z ; std::_Vector_iterator<std::_Vector_val<ioHashString,std::allocator<ioHashString> > >::_Vector_iterator<std::_Vector_val<ioHashString,std::allocator<ioHashString> > >
; Function compile flags: /Ogsp
;	COMDAT ??0?$_Vector_iterator@V?$_Vector_val@VioHashString@@V?$allocator@VioHashString@@@std@@@std@@@std@@QAE@PAVioHashString@@PBU_Container_base0@1@@Z
_TEXT	SEGMENT
__Parg$ = 8						; size = 4
__Pvector$ = 12						; size = 4
??0?$_Vector_iterator@V?$_Vector_val@VioHashString@@V?$allocator@VioHashString@@@std@@@std@@@std@@QAE@PAVioHashString@@PBU_Container_base0@1@@Z PROC ; std::_Vector_iterator<std::_Vector_val<ioHashString,std::allocator<ioHashString> > >::_Vector_iterator<std::_Vector_val<ioHashString,std::allocator<ioHashString> > >, COMDAT
; _this$ = ecx

; 304  : 		{	// construct with pointer _Parg

  00000	55		 push	 ebp
  00001	8b ec		 mov	 ebp, esp
  00003	8b c1		 mov	 eax, ecx
  00005	8b 4d 08	 mov	 ecx, DWORD PTR __Parg$[ebp]
  00008	89 08		 mov	 DWORD PTR [eax], ecx

; 305  : 		}

  0000a	5d		 pop	 ebp
  0000b	c2 08 00	 ret	 8
??0?$_Vector_iterator@V?$_Vector_val@VioHashString@@V?$allocator@VioHashString@@@std@@@std@@@std@@QAE@PAVioHashString@@PBU_Container_base0@1@@Z ENDP ; std::_Vector_iterator<std::_Vector_val<ioHashString,std::allocator<ioHashString> > >::_Vector_iterator<std::_Vector_val<ioHashString,std::allocator<ioHashString> > >
_TEXT	ENDS
PUBLIC	?max_size@?$allocator@VioHashString@@@std@@QBEIXZ ; std::allocator<ioHashString>::max_size
; Function compile flags: /Ogsp
; File c:\program files (x86)\microsoft visual studio 10.0\vc\include\xmemory
;	COMDAT ?max_size@?$allocator@VioHashString@@@std@@QBEIXZ
_TEXT	SEGMENT
?max_size@?$allocator@VioHashString@@@std@@QBEIXZ PROC	; std::allocator<ioHashString>::max_size, COMDAT
; _this$ = ecx

; 218  : 		_SIZT _Count = (_SIZT)(-1) / sizeof (_Ty);
; 219  : 		return (0 < _Count ? _Count : 1);

  00000	b8 ff ff ff 0f	 mov	 eax, 268435455		; 0fffffffH

; 220  : 		}

  00005	c3		 ret	 0
?max_size@?$allocator@VioHashString@@@std@@QBEIXZ ENDP	; std::allocator<ioHashString>::max_size
_TEXT	ENDS
PUBLIC	?_Compat@?$_Vector_const_iterator@V?$_Vector_val@VioHashString@@V?$allocator@VioHashString@@@std@@@std@@@std@@QBEXABV12@@Z ; std::_Vector_const_iterator<std::_Vector_val<ioHashString,std::allocator<ioHashString> > >::_Compat
; Function compile flags: /Ogsp
; File c:\program files (x86)\microsoft visual studio 10.0\vc\include\vector
;	COMDAT ?_Compat@?$_Vector_const_iterator@V?$_Vector_val@VioHashString@@V?$allocator@VioHashString@@@std@@@std@@@std@@QBEXABV12@@Z
_TEXT	SEGMENT
___formal$ = 8						; size = 4
?_Compat@?$_Vector_const_iterator@V?$_Vector_val@VioHashString@@V?$allocator@VioHashString@@@std@@@std@@@std@@QBEXABV12@@Z PROC ; std::_Vector_const_iterator<std::_Vector_val<ioHashString,std::allocator<ioHashString> > >::_Compat, COMDAT
; _this$ = ecx

; 253  : 		}

  00000	c2 04 00	 ret	 4
?_Compat@?$_Vector_const_iterator@V?$_Vector_val@VioHashString@@V?$allocator@VioHashString@@@std@@@std@@@std@@QBEXABV12@@Z ENDP ; std::_Vector_const_iterator<std::_Vector_val<ioHashString,std::allocator<ioHashString> > >::_Compat
_TEXT	ENDS
PUBLIC	__TI2?AVbad_alloc@std@@
PUBLIC	??$_Allocate@VioHashString@@@std@@YAPAVioHashString@@IPAV1@@Z ; std::_Allocate<ioHashString>
PUBLIC	__CTA2?AVbad_alloc@std@@
PUBLIC	__CT??_R0?AVbad_alloc@std@@@8??0bad_alloc@std@@QAE@ABV01@@Z12
PUBLIC	??0bad_alloc@std@@QAE@ABV01@@Z			; std::bad_alloc::bad_alloc
PUBLIC	__CT??_R0?AVexception@std@@@8??0exception@std@@QAE@ABV01@@Z12
EXTRN	??2@YAPAXI@Z:PROC				; operator new
EXTRN	__CxxThrowException@8:PROC
EXTRN	??0exception@std@@QAE@ABV01@@Z:PROC		; std::exception::exception
;	COMDAT __CT??_R0?AVexception@std@@@8??0exception@std@@QAE@ABV01@@Z12
; File c:\program files (x86)\microsoft visual studio 10.0\vc\include\exception
xdata$x	SEGMENT
__CT??_R0?AVexception@std@@@8??0exception@std@@QAE@ABV01@@Z12 DD 00H
	DD	FLAT:??_R0?AVexception@std@@@8
	DD	00H
	DD	0ffffffffH
	ORG $+4
	DD	0cH
	DD	FLAT:??0exception@std@@QAE@ABV01@@Z
xdata$x	ENDS
;	COMDAT __CT??_R0?AVbad_alloc@std@@@8??0bad_alloc@std@@QAE@ABV01@@Z12
xdata$x	SEGMENT
__CT??_R0?AVbad_alloc@std@@@8??0bad_alloc@std@@QAE@ABV01@@Z12 DD 00H
	DD	FLAT:??_R0?AVbad_alloc@std@@@8
	DD	00H
	DD	0ffffffffH
	ORG $+4
	DD	0cH
	DD	FLAT:??0bad_alloc@std@@QAE@ABV01@@Z
xdata$x	ENDS
;	COMDAT __CTA2?AVbad_alloc@std@@
xdata$x	SEGMENT
__CTA2?AVbad_alloc@std@@ DD 02H
	DD	FLAT:__CT??_R0?AVbad_alloc@std@@@8??0bad_alloc@std@@QAE@ABV01@@Z12
	DD	FLAT:__CT??_R0?AVexception@std@@@8??0exception@std@@QAE@ABV01@@Z12
xdata$x	ENDS
;	COMDAT __TI2?AVbad_alloc@std@@
xdata$x	SEGMENT
__TI2?AVbad_alloc@std@@ DD 00H
	DD	FLAT:??1bad_alloc@std@@UAE@XZ
	DD	00H
	DD	FLAT:__CTA2?AVbad_alloc@std@@
; Function compile flags: /Ogsp
; File c:\program files (x86)\microsoft visual studio 10.0\vc\include\xmemory
xdata$x	ENDS
;	COMDAT ??$_Allocate@VioHashString@@@std@@YAPAVioHashString@@IPAV1@@Z
_TEXT	SEGMENT
$T509916 = -12						; size = 12
$T509921 = 8						; size = 4
__Count$ = 8						; size = 4
___formal$ = 12						; size = 4
??$_Allocate@VioHashString@@@std@@YAPAVioHashString@@IPAV1@@Z PROC ; std::_Allocate<ioHashString>, COMDAT

; 30   : 	{	// allocate storage for _Count elements of type _Ty

  00000	55		 push	 ebp
  00001	8b ec		 mov	 ebp, esp

; 31   : 	void *_Ptr = 0;
; 32   : 
; 33   : 	if (_Count <= 0)

  00003	8b 4d 08	 mov	 ecx, DWORD PTR __Count$[ebp]
  00006	83 ec 0c	 sub	 esp, 12			; 0000000cH
  00009	33 c0		 xor	 eax, eax
  0000b	85 c9		 test	 ecx, ecx

; 34   : 		_Count = 0;
; 35   : 	else if (((_SIZT)(-1) / sizeof (_Ty) < _Count)

  0000d	74 3c		 je	 SHORT $LN5@Allocate

; 36   : 		|| (_Ptr = ::operator new(_Count * sizeof (_Ty))) == 0)

  0000f	81 f9 ff ff ff
	0f		 cmp	 ecx, 268435455		; 0fffffffH
  00015	77 0e		 ja	 SHORT $LN1@Allocate
  00017	c1 e1 04	 shl	 ecx, 4
  0001a	51		 push	 ecx
  0001b	e8 00 00 00 00	 call	 ??2@YAPAXI@Z		; operator new
  00020	59		 pop	 ecx
  00021	85 c0		 test	 eax, eax

; 38   : 
; 39   : 	return ((_Ty _FARQ *)_Ptr);

  00023	75 26		 jne	 SHORT $LN5@Allocate
$LN1@Allocate:

; 37   : 		_THROW_NCEE(bad_alloc, 0);

  00025	83 65 08 00	 and	 DWORD PTR $T509921[ebp], 0
  00029	8d 45 08	 lea	 eax, DWORD PTR $T509921[ebp]
  0002c	50		 push	 eax
  0002d	8d 4d f4	 lea	 ecx, DWORD PTR $T509916[ebp]
  00030	ff 15 00 00 00
	00		 call	 DWORD PTR __imp_??0exception@std@@QAE@ABQBD@Z
  00036	68 00 00 00 00	 push	 OFFSET __TI2?AVbad_alloc@std@@
  0003b	8d 45 f4	 lea	 eax, DWORD PTR $T509916[ebp]
  0003e	50		 push	 eax
  0003f	c7 45 f4 00 00
	00 00		 mov	 DWORD PTR $T509916[ebp], OFFSET ??_7bad_alloc@std@@6B@
  00046	e8 00 00 00 00	 call	 __CxxThrowException@8
$LN10@Allocate:
$LN5@Allocate:

; 40   : 	}

  0004b	c9		 leave
  0004c	c3		 ret	 0
$LN9@Allocate:
??$_Allocate@VioHashString@@@std@@YAPAVioHashString@@IPAV1@@Z ENDP ; std::_Allocate<ioHashString>
_TEXT	ENDS
EXTRN	__imp_??0exception@std@@QAE@ABV01@@Z:PROC
; Function compile flags: /Ogsp
;	COMDAT ??0bad_alloc@std@@QAE@ABV01@@Z
_TEXT	SEGMENT
___that$ = 8						; size = 4
??0bad_alloc@std@@QAE@ABV01@@Z PROC			; std::bad_alloc::bad_alloc, COMDAT
; _this$ = ecx
  00000	55		 push	 ebp
  00001	8b ec		 mov	 ebp, esp
  00003	56		 push	 esi
  00004	ff 75 08	 push	 DWORD PTR ___that$[ebp]
  00007	8b f1		 mov	 esi, ecx
  00009	ff 15 00 00 00
	00		 call	 DWORD PTR __imp_??0exception@std@@QAE@ABV01@@Z
  0000f	c7 06 00 00 00
	00		 mov	 DWORD PTR [esi], OFFSET ??_7bad_alloc@std@@6B@
  00015	8b c6		 mov	 eax, esi
  00017	5e		 pop	 esi
  00018	5d		 pop	 ebp
  00019	c2 04 00	 ret	 4
??0bad_alloc@std@@QAE@ABV01@@Z ENDP			; std::bad_alloc::bad_alloc
_TEXT	ENDS
PUBLIC	??$forward@ABVioHashString@@@std@@YAABVioHashString@@ABV1@@Z ; std::forward<ioHashString const &>
; Function compile flags: /Ogsp
; File c:\program files (x86)\microsoft visual studio 10.0\vc\include\utility
;	COMDAT ??$forward@ABVioHashString@@@std@@YAABVioHashString@@ABV1@@Z
_TEXT	SEGMENT
__Arg$ = 8						; size = 4
??$forward@ABVioHashString@@@std@@YAABVioHashString@@ABV1@@Z PROC ; std::forward<ioHashString const &>, COMDAT

; 78   : 	{	// forward _Arg, given explicitly specified type parameter

  00000	55		 push	 ebp
  00001	8b ec		 mov	 ebp, esp

; 79   : 	return ((_Ty&&)_Arg);

  00003	8b 45 08	 mov	 eax, DWORD PTR __Arg$[ebp]

; 80   : 	}

  00006	5d		 pop	 ebp
  00007	c3		 ret	 0
??$forward@ABVioHashString@@@std@@YAABVioHashString@@ABV1@@Z ENDP ; std::forward<ioHashString const &>
_TEXT	ENDS
PUBLIC	??$forward@AAVioHashString@@@std@@YAAAVioHashString@@AAV1@@Z ; std::forward<ioHashString &>
; Function compile flags: /Ogsp
;	COMDAT ??$forward@AAVioHashString@@@std@@YAAAVioHashString@@AAV1@@Z
_TEXT	SEGMENT
__Arg$ = 8						; size = 4
??$forward@AAVioHashString@@@std@@YAAAVioHashString@@AAV1@@Z PROC ; std::forward<ioHashString &>, COMDAT

; 78   : 	{	// forward _Arg, given explicitly specified type parameter

  00000	55		 push	 ebp
  00001	8b ec		 mov	 ebp, esp

; 79   : 	return ((_Ty&&)_Arg);

  00003	8b 45 08	 mov	 eax, DWORD PTR __Arg$[ebp]

; 80   : 	}

  00006	5d		 pop	 ebp
  00007	c3		 ret	 0
??$forward@AAVioHashString@@@std@@YAAAVioHashString@@AAV1@@Z ENDP ; std::forward<ioHashString &>
_TEXT	ENDS
PUBLIC	??$_Ptr_cat@VioHashString@@V1@@std@@YA?AU_Nonscalar_ptr_iterator_tag@0@PAVioHashString@@0@Z ; std::_Ptr_cat<ioHashString,ioHashString>
; Function compile flags: /Ogsp
; File c:\program files (x86)\microsoft visual studio 10.0\vc\include\xutility
;	COMDAT ??$_Ptr_cat@VioHashString@@V1@@std@@YA?AU_Nonscalar_ptr_iterator_tag@0@PAVioHashString@@0@Z
_TEXT	SEGMENT
__Cat$ = -1						; size = 1
___formal$ = 8						; size = 4
___formal$ = 12						; size = 4
??$_Ptr_cat@VioHashString@@V1@@std@@YA?AU_Nonscalar_ptr_iterator_tag@0@PAVioHashString@@0@Z PROC ; std::_Ptr_cat<ioHashString,ioHashString>, COMDAT

; 516  : 	{	// return pointer category from pointers

  00000	55		 push	 ebp
  00001	8b ec		 mov	 ebp, esp
  00003	51		 push	 ecx

; 517  : 	typename _Ptr_cat_helper<_Elem1, _Elem2>::_Type _Cat;
; 518  : 	return (_Cat);

  00004	8a 45 ff	 mov	 al, BYTE PTR __Cat$[ebp]

; 519  : 	}

  00007	c9		 leave
  00008	c3		 ret	 0
??$_Ptr_cat@VioHashString@@V1@@std@@YA?AU_Nonscalar_ptr_iterator_tag@0@PAVioHashString@@0@Z ENDP ; std::_Ptr_cat<ioHashString,ioHashString>
_TEXT	ENDS
PUBLIC	??$move@AAVioHashString@@@std@@YA$$QAVioHashString@@AAV1@@Z ; std::move<ioHashString &>
; Function compile flags: /Ogsp
; File c:\program files (x86)\microsoft visual studio 10.0\vc\include\utility
;	COMDAT ??$move@AAVioHashString@@@std@@YA$$QAVioHashString@@AAV1@@Z
_TEXT	SEGMENT
__Arg$ = 8						; size = 4
??$move@AAVioHashString@@@std@@YA$$QAVioHashString@@AAV1@@Z PROC ; std::move<ioHashString &>, COMDAT

; 86   : 	{	// forward _Arg as movable

  00000	55		 push	 ebp
  00001	8b ec		 mov	 ebp, esp

; 87   : 	return ((typename tr1::_Remove_reference<_Ty>::_Type&&)_Arg);

  00003	8b 45 08	 mov	 eax, DWORD PTR __Arg$[ebp]

; 88   : 	}

  00006	5d		 pop	 ebp
  00007	c3		 ret	 0
??$move@AAVioHashString@@@std@@YA$$QAVioHashString@@AAV1@@Z ENDP ; std::move<ioHashString &>
_TEXT	ENDS
PUBLIC	??_GioHashString@@QAEPAXI@Z			; ioHashString::`scalar deleting destructor'
EXTRN	__imp_??1ioHashString@@QAE@XZ:PROC
; Function compile flags: /Ogsp
;	COMDAT ??_GioHashString@@QAEPAXI@Z
_TEXT	SEGMENT
___flags$ = 8						; size = 4
??_GioHashString@@QAEPAXI@Z PROC			; ioHashString::`scalar deleting destructor', COMDAT
; _this$ = ecx
  00000	55		 push	 ebp
  00001	8b ec		 mov	 ebp, esp
  00003	56		 push	 esi
  00004	8b f1		 mov	 esi, ecx
  00006	ff 15 00 00 00
	00		 call	 DWORD PTR __imp_??1ioHashString@@QAE@XZ
  0000c	f6 45 08 01	 test	 BYTE PTR ___flags$[ebp], 1
  00010	74 07		 je	 SHORT $LN1@scalar@2
  00012	56		 push	 esi
  00013	e8 00 00 00 00	 call	 ??3@YAXPAX@Z		; operator delete
  00018	59		 pop	 ecx
$LN1@scalar@2:
  00019	8b c6		 mov	 eax, esi
  0001b	5e		 pop	 esi
  0001c	5d		 pop	 ebp
  0001d	c2 04 00	 ret	 4
??_GioHashString@@QAEPAXI@Z ENDP			; ioHashString::`scalar deleting destructor'
_TEXT	ENDS
PUBLIC	??$_Construct@VioHashString@@ABV1@@std@@YAXPAVioHashString@@ABV1@@Z ; std::_Construct<ioHashString,ioHashString const &>
EXTRN	__imp_??0ioHashString@@QAE@ABV0@@Z:PROC
;	COMDAT xdata$x
xdata$x	SEGMENT
__unwindtable$??$_Construct@VioHashString@@ABV1@@std@@YAXPAVioHashString@@ABV1@@Z DD 0ffffffffH
	DD	FLAT:__unwindfunclet$??$_Construct@VioHashString@@ABV1@@std@@YAXPAVioHashString@@ABV1@@Z$0
__ehfuncinfo$??$_Construct@VioHashString@@ABV1@@std@@YAXPAVioHashString@@ABV1@@Z DD 019930522H
	DD	01H
	DD	FLAT:__unwindtable$??$_Construct@VioHashString@@ABV1@@std@@YAXPAVioHashString@@ABV1@@Z
	DD	2 DUP(00H)
	DD	2 DUP(00H)
	DD	00H
	DD	01H
; Function compile flags: /Ogsp
; File c:\program files (x86)\microsoft visual studio 10.0\vc\include\xmemory
xdata$x	ENDS
;	COMDAT ??$_Construct@VioHashString@@ABV1@@std@@YAXPAVioHashString@@ABV1@@Z
_TEXT	SEGMENT
$T509940 = -16						; size = 4
__$EHRec$ = -12						; size = 12
__Vptr$ = 8						; size = 4
__Ptr$ = 8						; size = 4
__Val$ = 12						; size = 4
??$_Construct@VioHashString@@ABV1@@std@@YAXPAVioHashString@@ABV1@@Z PROC ; std::_Construct<ioHashString,ioHashString const &>, COMDAT

; 46   : 	{	// construct object at _Ptr with value _Val

  00000	6a 04		 push	 4
  00002	b8 00 00 00 00	 mov	 eax, __ehhandler$??$_Construct@VioHashString@@ABV1@@std@@YAXPAVioHashString@@ABV1@@Z
  00007	e8 00 00 00 00	 call	 __EH_prolog3

; 47   : 	void _FARQ *_Vptr = _Ptr;

  0000c	8b 4d 08	 mov	 ecx, DWORD PTR __Ptr$[ebp]
  0000f	89 4d 08	 mov	 DWORD PTR __Vptr$[ebp], ecx

; 48   : 	::new (_Vptr) _Ty1(_STD forward<_Ty2>(_Val));

  00012	89 4d f0	 mov	 DWORD PTR $T509940[ebp], ecx
  00015	83 65 fc 00	 and	 DWORD PTR __$EHRec$[ebp+8], 0
  00019	85 c9		 test	 ecx, ecx
  0001b	74 09		 je	 SHORT $LN3@Construct
  0001d	ff 75 0c	 push	 DWORD PTR __Val$[ebp]
  00020	ff 15 00 00 00
	00		 call	 DWORD PTR __imp_??0ioHashString@@QAE@ABV0@@Z
$LN3@Construct:

; 49   : 	}

  00026	e8 00 00 00 00	 call	 __EH_epilog3
  0002b	c3		 ret	 0
_TEXT	ENDS
;	COMDAT text$x
text$x	SEGMENT
__unwindfunclet$??$_Construct@VioHashString@@ABV1@@std@@YAXPAVioHashString@@ABV1@@Z$0:
  00000	ff 75 08	 push	 DWORD PTR __Vptr$[ebp]
  00003	ff 75 f0	 push	 DWORD PTR $T509940[ebp]
  00006	e8 00 00 00 00	 call	 ??3@YAXPAX0@Z		; operator delete
  0000b	59		 pop	 ecx
  0000c	59		 pop	 ecx
  0000d	c3		 ret	 0
__ehhandler$??$_Construct@VioHashString@@ABV1@@std@@YAXPAVioHashString@@ABV1@@Z:
  0000e	8b 54 24 08	 mov	 edx, DWORD PTR [esp+8]
  00012	8d 42 0c	 lea	 eax, DWORD PTR [edx+12]
  00015	8b 4a ec	 mov	 ecx, DWORD PTR [edx-20]
  00018	33 c8		 xor	 ecx, eax
  0001a	e8 00 00 00 00	 call	 @__security_check_cookie@4
  0001f	b8 00 00 00 00	 mov	 eax, OFFSET __ehfuncinfo$??$_Construct@VioHashString@@ABV1@@std@@YAXPAVioHashString@@ABV1@@Z
  00024	e9 00 00 00 00	 jmp	 ___CxxFrameHandler3
text$x	ENDS
??$_Construct@VioHashString@@ABV1@@std@@YAXPAVioHashString@@ABV1@@Z ENDP ; std::_Construct<ioHashString,ioHashString const &>
; Function compile flags: /Ogsp
;	COMDAT ??_GioFileSocket@@UAEPAXI@Z
_TEXT	SEGMENT
___flags$ = 8						; size = 4
??_GioFileSocket@@UAEPAXI@Z PROC			; ioFileSocket::`scalar deleting destructor', COMDAT
; _this$ = ecx
  00000	55		 push	 ebp
  00001	8b ec		 mov	 ebp, esp
  00003	56		 push	 esi
  00004	8b f1		 mov	 esi, ecx
  00006	e8 00 00 00 00	 call	 ??1ioFileSocket@@UAE@XZ	; ioFileSocket::~ioFileSocket
  0000b	f6 45 08 01	 test	 BYTE PTR ___flags$[ebp], 1
  0000f	74 07		 je	 SHORT $LN1@scalar@3
  00011	56		 push	 esi
  00012	e8 00 00 00 00	 call	 ??3@YAXPAX@Z		; operator delete
  00017	59		 pop	 ecx
$LN1@scalar@3:
  00018	8b c6		 mov	 eax, esi
  0001a	5e		 pop	 esi
  0001b	5d		 pop	 ebp
  0001c	c2 04 00	 ret	 4
??_GioFileSocket@@UAEPAXI@Z ENDP			; ioFileSocket::`scalar deleting destructor'
_TEXT	ENDS
PUBLIC	?GetSingleton@ioFileWriteClient@@SAAAV1@XZ	; ioFileWriteClient::GetSingleton
; Function compile flags: /Ogsp
; File d:\lost saga for developer\youtube\tutorial\source\src\lsclient\iofilewriteclient.cpp
;	COMDAT ?GetSingleton@ioFileWriteClient@@SAAAV1@XZ
_TEXT	SEGMENT
?GetSingleton@ioFileWriteClient@@SAAAV1@XZ PROC		; ioFileWriteClient::GetSingleton, COMDAT

; 112  : 	return Singleton< ioFileWriteClient >::GetSingleton();

  00000	a1 00 00 00 00	 mov	 eax, DWORD PTR ?ms_Singleton@?$Singleton@VioFileWriteClient@@@@1PAVioFileWriteClient@@A ; Singleton<ioFileWriteClient>::ms_Singleton

; 113  : }

  00005	c3		 ret	 0
?GetSingleton@ioFileWriteClient@@SAAAV1@XZ ENDP		; ioFileWriteClient::GetSingleton
_TEXT	ENDS
PUBLIC	??_C@_0BL@NDJGNIF@?$CFs?5?9?5TCP?5Socket?5Failed?$CI?$CFd?$CJ?$AA@ ; `string'
PUBLIC	??_C@_0BC@BMEBLLML@?$CFs?5Socket?5?$DN?$DN?5NULL?$AA@ ; `string'
PUBLIC	??_C@_0BJ@BFKNODCG@ioFileWriteClient?3?3Start?$AA@ ; `string'
PUBLIC	?Start@ioFileWriteClient@@QAE_NPBD0KKKKK@Z	; ioFileWriteClient::Start
EXTRN	__imp_??4ioHashString@@QAEAAV0@PBD@Z:PROC
EXTRN	?FileCrc32Streams@CCrc32Static@@SAKPBDAAK@Z:PROC ; CCrc32Static::FileCrc32Streams
EXTRN	?SetMsgBox@ioSP2GUIManager@@QAEXHPAVioWnd@@PBDK@Z:PROC ; ioSP2GUIManager::SetMsgBox
EXTRN	__imp__GetFileSize@8:PROC
EXTRN	__imp__CreateFileA@28:PROC
EXTRN	__imp__WSAGetLastError@0:PROC
EXTRN	__imp_?InitClientTCP@ioClientTCPSocket@@QAE_NPAUHWND__@@IPBDH@Z:PROC
;	COMDAT ??_C@_0BL@NDJGNIF@?$CFs?5?9?5TCP?5Socket?5Failed?$CI?$CFd?$CJ?$AA@
; File d:\lost saga for developer\youtube\tutorial\source\src\lsclient\ioapplication.h
CONST	SEGMENT
??_C@_0BL@NDJGNIF@?$CFs?5?9?5TCP?5Socket?5Failed?$CI?$CFd?$CJ?$AA@ DB '%s'
	DB	' - TCP Socket Failed(%d)', 00H		; `string'
CONST	ENDS
;	COMDAT ??_C@_0BC@BMEBLLML@?$CFs?5Socket?5?$DN?$DN?5NULL?$AA@
CONST	SEGMENT
??_C@_0BC@BMEBLLML@?$CFs?5Socket?5?$DN?$DN?5NULL?$AA@ DB '%s Socket == NU'
	DB	'LL', 00H					; `string'
CONST	ENDS
;	COMDAT ??_C@_0BJ@BFKNODCG@ioFileWriteClient?3?3Start?$AA@
CONST	SEGMENT
??_C@_0BJ@BFKNODCG@ioFileWriteClient?3?3Start?$AA@ DB 'ioFileWriteClient:'
	DB	':Start', 00H				; `string'
; Function compile flags: /Ogsp
; File d:\lost saga for developer\youtube\tutorial\source\src\lsclient\iofilewriteclient.cpp
CONST	ENDS
;	COMDAT ?Start@ioFileWriteClient@@QAE_NPBD0KKKKK@Z
_TEXT	SEGMENT
_dwCRC$ = -4						; size = 4
_szFilePath$ = 8					; size = 4
_szWriteFileName$ = 12					; size = 4
_dwMaxFileSize$ = 16					; size = 4
_dwFileWidth$ = 20					; size = 4
_dwFileHeight$ = 24					; size = 4
$T509974 = 28						; size = 4
_dwReturnParentID$ = 28					; size = 4
_dwReturnID$ = 32					; size = 4
?Start@ioFileWriteClient@@QAE_NPBD0KKKKK@Z PROC		; ioFileWriteClient::Start, COMDAT
; _this$ = ecx

; 140  : {

  00000	55		 push	 ebp
  00001	8b ec		 mov	 ebp, esp
  00003	51		 push	 ecx
  00004	53		 push	 ebx
  00005	56		 push	 esi
  00006	8b d9		 mov	 ebx, ecx

; 141  : 	if( m_hFile )

  00008	33 f6		 xor	 esi, esi
  0000a	39 73 08	 cmp	 DWORD PTR [ebx+8], esi
  0000d	74 33		 je	 SHORT $LN9@Start

; 142  : 	{
; 143  : 		g_GUIMgr.SetMsgBox( MB_OK, NULL, STR(1) );

  0000f	56		 push	 esi
  00010	6a 01		 push	 1
$LN21@Start:
  00012	68 00 00 00 00	 push	 OFFSET ??_C@_00CNPNBAHC@?$AA@
  00017	68 00 00 00 00	 push	 OFFSET ??_C@_0BJ@BFKNODCG@ioFileWriteClient?3?3Start?$AA@
  0001c	ff 15 00 00 00
	00		 call	 DWORD PTR __imp_?GetSingleton@ioStringManager@@SAAAV1@XZ
  00022	8b c8		 mov	 ecx, eax
  00024	ff 15 00 00 00
	00		 call	 DWORD PTR __imp_?GetString@ioStringManager@@QAEPADPBD0HW4FileNamePrefix@1@@Z
  0002a	50		 push	 eax
  0002b	56		 push	 esi
  0002c	56		 push	 esi
  0002d	e8 00 00 00 00	 call	 ?GetSingleton@ioSP2GUIManager@@SAAAV1@XZ ; ioSP2GUIManager::GetSingleton
  00032	50		 push	 eax
  00033	e8 00 00 00 00	 call	 ?SetMsgBox@ioSP2GUIManager@@QAAXHPAVioWnd@@PBDZZ ; ioSP2GUIManager::SetMsgBox
$LN20@Start:
  00038	83 c4 10	 add	 esp, 16			; 00000010H

; 144  : 		return false;

  0003b	32 c0		 xor	 al, al
  0003d	e9 f6 01 00 00	 jmp	 $LN10@Start
$LN9@Start:

; 145  : 	}
; 146  : 
; 147  : 	if( !m_pSocket )

  00042	8b 4b 04	 mov	 ecx, DWORD PTR [ebx+4]
  00045	3b ce		 cmp	 ecx, esi
  00047	75 19		 jne	 SHORT $LN8@Start

; 148  : 	{
; 149  : 		LOG.PrintTimeAndLog( 0, "%s Socket == NULL", __FUNCTION__ );

  00049	68 00 00 00 00	 push	 OFFSET ??_C@_0BJ@BFKNODCG@ioFileWriteClient?3?3Start?$AA@
  0004e	68 00 00 00 00	 push	 OFFSET ??_C@_0BC@BMEBLLML@?$CFs?5Socket?5?$DN?$DN?5NULL?$AA@
  00053	56		 push	 esi
  00054	ff 35 00 00 00
	00		 push	 DWORD PTR __imp_?LOG@@3VCLog@@A
  0005a	ff 15 00 00 00
	00		 call	 DWORD PTR __imp_?PrintTimeAndLog@CLog@@QAAXHPADZZ

; 150  : 		return false;

  00060	eb d6		 jmp	 SHORT $LN20@Start
$LN8@Start:

; 151  : 	}
; 152  : 
; 153  : 	if( m_pSocket->IsConnected() ) 

  00062	ff 15 00 00 00
	00		 call	 DWORD PTR __imp_?IsConnected@ioClientTCPSocket@@QBE_NXZ
  00068	84 c0		 test	 al, al
  0006a	74 05		 je	 SHORT $LN7@Start

; 154  : 	{
; 155  : 		g_GUIMgr.SetMsgBox( MB_OK, NULL, STR(2) );

  0006c	56		 push	 esi
  0006d	6a 02		 push	 2

; 156  : 		return false;

  0006f	eb a1		 jmp	 SHORT $LN21@Start
$LN7@Start:

; 157  : 	}
; 158  : 
; 159  : 	m_dwReturnParentID = dwReturnParentID;

  00071	8b 45 1c	 mov	 eax, DWORD PTR _dwReturnParentID$[ebp]
  00074	89 43 48	 mov	 DWORD PTR [ebx+72], eax

; 160  : 	m_dwReturnID       = dwReturnID;

  00077	8b 45 20	 mov	 eax, DWORD PTR _dwReturnID$[ebp]
  0007a	89 43 4c	 mov	 DWORD PTR [ebx+76], eax

; 161  : 
; 162  : 	if( !m_pSocket->InitClientTCP( g_App.GetHWnd(), m_pSocket->GetProcID(), m_szServerIP.c_str(), m_iServerPort ) )

  0007d	8b 43 04	 mov	 eax, DWORD PTR [ebx+4]
  00080	57		 push	 edi
  00081	8b b8 2c 01 00
	00		 mov	 edi, DWORD PTR [eax+300]
  00087	e8 00 00 00 00	 call	 ?GetSingleton@ioApplication@@SAAAV1@XZ ; ioApplication::GetSingleton
  0008c	8b 40 08	 mov	 eax, DWORD PTR [eax+8]
  0008f	ff 73 44	 push	 DWORD PTR [ebx+68]
  00092	8d 4b 34	 lea	 ecx, DWORD PTR [ebx+52]
  00095	89 45 1c	 mov	 DWORD PTR $T509974[ebp], eax
  00098	ff 15 00 00 00
	00		 call	 DWORD PTR __imp_?c_str@ioHashString@@QBEPBDXZ
  0009e	8b 4b 04	 mov	 ecx, DWORD PTR [ebx+4]
  000a1	50		 push	 eax
  000a2	57		 push	 edi
  000a3	ff 75 1c	 push	 DWORD PTR $T509974[ebp]
  000a6	ff 15 00 00 00
	00		 call	 DWORD PTR __imp_?InitClientTCP@ioClientTCPSocket@@QAE_NPAUHWND__@@IPBDH@Z
  000ac	84 c0		 test	 al, al
  000ae	75 56		 jne	 SHORT $LN6@Start

; 163  : 	{
; 164  : 		InitData();

  000b0	8b cb		 mov	 ecx, ebx
  000b2	e8 00 00 00 00	 call	 ?InitData@ioFileWriteClient@@IAEXXZ ; ioFileWriteClient::InitData

; 165  : 		g_GUIMgr.SetMsgBox( MB_OK, NULL, STR(3) );

  000b7	56		 push	 esi
  000b8	6a 03		 push	 3
  000ba	68 00 00 00 00	 push	 OFFSET ??_C@_00CNPNBAHC@?$AA@
  000bf	bf 00 00 00 00	 mov	 edi, OFFSET ??_C@_0BJ@BFKNODCG@ioFileWriteClient?3?3Start?$AA@
  000c4	57		 push	 edi
  000c5	ff 15 00 00 00
	00		 call	 DWORD PTR __imp_?GetSingleton@ioStringManager@@SAAAV1@XZ
  000cb	8b c8		 mov	 ecx, eax
  000cd	ff 15 00 00 00
	00		 call	 DWORD PTR __imp_?GetString@ioStringManager@@QAEPADPBD0HW4FileNamePrefix@1@@Z
  000d3	50		 push	 eax
  000d4	56		 push	 esi
  000d5	56		 push	 esi
  000d6	e8 00 00 00 00	 call	 ?GetSingleton@ioSP2GUIManager@@SAAAV1@XZ ; ioSP2GUIManager::GetSingleton
  000db	50		 push	 eax
  000dc	e8 00 00 00 00	 call	 ?SetMsgBox@ioSP2GUIManager@@QAAXHPAVioWnd@@PBDZZ ; ioSP2GUIManager::SetMsgBox
  000e1	83 c4 10	 add	 esp, 16			; 00000010H

; 166  : 		LOG.PrintTimeAndLog( 0, "%s - TCP Socket Failed(%d)", __FUNCTION__, WSAGetLastError() );

  000e4	ff 15 00 00 00
	00		 call	 DWORD PTR __imp__WSAGetLastError@0
  000ea	50		 push	 eax
  000eb	57		 push	 edi
  000ec	68 00 00 00 00	 push	 OFFSET ??_C@_0BL@NDJGNIF@?$CFs?5?9?5TCP?5Socket?5Failed?$CI?$CFd?$CJ?$AA@
  000f1	56		 push	 esi
  000f2	ff 35 00 00 00
	00		 push	 DWORD PTR __imp_?LOG@@3VCLog@@A
  000f8	ff 15 00 00 00
	00		 call	 DWORD PTR __imp_?PrintTimeAndLog@CLog@@QAAXHPADZZ
  000fe	83 c4 14	 add	 esp, 20			; 00000014H

; 167  : 		return false;

  00101	e9 2f 01 00 00	 jmp	 $LN18@Start
$LN6@Start:

; 168  : 	}
; 169  : 
; 170  : 	m_hFile = CreateFile( szFilePath, GENERIC_READ, FILE_SHARE_READ, NULL, OPEN_EXISTING, FILE_ATTRIBUTE_NORMAL, NULL );

  00106	56		 push	 esi
  00107	68 80 00 00 00	 push	 128			; 00000080H
  0010c	6a 03		 push	 3
  0010e	56		 push	 esi
  0010f	6a 01		 push	 1
  00111	68 00 00 00 80	 push	 -2147483648		; 80000000H
  00116	ff 75 08	 push	 DWORD PTR _szFilePath$[ebp]
  00119	ff 15 00 00 00
	00		 call	 DWORD PTR __imp__CreateFileA@28
  0011f	89 43 08	 mov	 DWORD PTR [ebx+8], eax

; 171  : 	if ( m_hFile == INVALID_HANDLE_VALUE )

  00122	83 f8 ff	 cmp	 eax, -1
  00125	75 0f		 jne	 SHORT $LN5@Start

; 172  : 	{
; 173  : 		InitData();

  00127	8b cb		 mov	 ecx, ebx
  00129	e8 00 00 00 00	 call	 ?InitData@ioFileWriteClient@@IAEXXZ ; ioFileWriteClient::InitData

; 174  : 		g_GUIMgr.SetMsgBox( MB_OK, NULL, STR(4) );

  0012e	56		 push	 esi
  0012f	6a 04		 push	 4

; 175  : 		return false;

  00131	e9 d6 00 00 00	 jmp	 $LN19@Start
$LN5@Start:

; 176  : 	}
; 177  : 
; 178  : 	m_dwFileSize = GetFileSize( m_hFile, NULL );

  00136	56		 push	 esi
  00137	50		 push	 eax
  00138	ff 15 00 00 00
	00		 call	 DWORD PTR __imp__GetFileSize@8
  0013e	89 43 0c	 mov	 DWORD PTR [ebx+12], eax

; 179  : 	if( m_dwFileSize > dwMaxFileSize )

  00141	3b 45 10	 cmp	 eax, DWORD PTR _dwMaxFileSize$[ebp]
  00144	76 39		 jbe	 SHORT $LN4@Start

; 180  : 	{
; 181  : 		InitData();

  00146	8b cb		 mov	 ecx, ebx
  00148	e8 00 00 00 00	 call	 ?InitData@ioFileWriteClient@@IAEXXZ ; ioFileWriteClient::InitData

; 182  : 		g_GUIMgr.SetMsgBox( MB_OK, NULL, STR(5), dwMaxFileSize );

  0014d	ff 75 10	 push	 DWORD PTR _dwMaxFileSize$[ebp]
  00150	56		 push	 esi
  00151	6a 05		 push	 5
  00153	68 00 00 00 00	 push	 OFFSET ??_C@_00CNPNBAHC@?$AA@
  00158	68 00 00 00 00	 push	 OFFSET ??_C@_0BJ@BFKNODCG@ioFileWriteClient?3?3Start?$AA@
  0015d	ff 15 00 00 00
	00		 call	 DWORD PTR __imp_?GetSingleton@ioStringManager@@SAAAV1@XZ
  00163	8b c8		 mov	 ecx, eax
  00165	ff 15 00 00 00
	00		 call	 DWORD PTR __imp_?GetString@ioStringManager@@QAEPADPBD0HW4FileNamePrefix@1@@Z
  0016b	50		 push	 eax
  0016c	56		 push	 esi
  0016d	56		 push	 esi
  0016e	e8 00 00 00 00	 call	 ?GetSingleton@ioSP2GUIManager@@SAAAV1@XZ ; ioSP2GUIManager::GetSingleton
  00173	8b c8		 mov	 ecx, eax
  00175	e8 00 00 00 00	 call	 ?SetMsgBox@ioSP2GUIManager@@QAEXHPAVioWnd@@PBDK@Z ; ioSP2GUIManager::SetMsgBox

; 183  : 		return false;

  0017a	e9 b6 00 00 00	 jmp	 $LN18@Start
$LN4@Start:

; 184  : 	}
; 185  : 
; 186  : 	if( dwFileWidth == 0 || dwFileHeight == 0 )

  0017f	39 75 14	 cmp	 DWORD PTR _dwFileWidth$[ebp], esi
  00182	74 7e		 je	 SHORT $LN2@Start
  00184	39 75 18	 cmp	 DWORD PTR _dwFileHeight$[ebp], esi
  00187	74 79		 je	 SHORT $LN2@Start

; 191  : 	}
; 192  : 
; 193  : 	if( strcmp( szWriteFileName, "" ) == 0 )

  00189	8b 75 0c	 mov	 esi, DWORD PTR _szWriteFileName$[ebp]
  0018c	33 c9		 xor	 ecx, ecx
  0018e	41		 inc	 ecx
  0018f	bf 00 00 00 00	 mov	 edi, OFFSET ??_C@_00CNPNBAHC@?$AA@
  00194	33 c0		 xor	 eax, eax
  00196	f3 a6		 repe cmpsb
  00198	75 0e		 jne	 SHORT $LN1@Start

; 194  : 	{
; 195  : 		InitData();

  0019a	8b cb		 mov	 ecx, ebx
  0019c	e8 00 00 00 00	 call	 ?InitData@ioFileWriteClient@@IAEXXZ ; ioFileWriteClient::InitData

; 196  : 		g_GUIMgr.SetMsgBox( MB_OK, NULL, STR(7) );

  001a1	33 f6		 xor	 esi, esi
  001a3	56		 push	 esi
  001a4	6a 07		 push	 7

; 197  : 		return false;

  001a6	eb 64		 jmp	 SHORT $LN19@Start
$LN1@Start:

; 198  : 	}
; 199  : 
; 200  : 	DWORD dwCRC = 0;

  001a8	21 45 fc	 and	 DWORD PTR _dwCRC$[ebp], eax

; 201  : 	CCrc32Static::FileCrc32Streams( szFilePath, dwCRC );

  001ab	8d 45 fc	 lea	 eax, DWORD PTR _dwCRC$[ebp]
  001ae	50		 push	 eax
  001af	ff 75 08	 push	 DWORD PTR _szFilePath$[ebp]
  001b2	e8 00 00 00 00	 call	 ?FileCrc32Streams@CCrc32Static@@SAKPBDAAK@Z ; CCrc32Static::FileCrc32Streams

; 202  : 
; 203  : 	m_dwFileCRC       = dwCRC;

  001b7	8b 45 fc	 mov	 eax, DWORD PTR _dwCRC$[ebp]
  001ba	59		 pop	 ecx
  001bb	59		 pop	 ecx

; 204  : 	m_szWriteFileName = szWriteFileName;

  001bc	ff 75 0c	 push	 DWORD PTR _szWriteFileName$[ebp]
  001bf	8d 4b 1c	 lea	 ecx, DWORD PTR [ebx+28]
  001c2	89 43 18	 mov	 DWORD PTR [ebx+24], eax
  001c5	ff 15 00 00 00
	00		 call	 DWORD PTR __imp_??4ioHashString@@QAEAAV0@PBD@Z

; 205  : 	m_dwFileWidth     = dwFileWidth;

  001cb	8b 45 14	 mov	 eax, DWORD PTR _dwFileWidth$[ebp]

; 206  : 	m_dwFileHeight    = dwFileHeight;
; 207  : 	m_dwReadSize      = 0;

  001ce	83 63 10 00	 and	 DWORD PTR [ebx+16], 0
  001d2	89 43 2c	 mov	 DWORD PTR [ebx+44], eax
  001d5	8b 45 18	 mov	 eax, DWORD PTR _dwFileHeight$[ebp]

; 208  : 
; 209  : 	g_App.SetMouseBusy( true );

  001d8	6a 01		 push	 1
  001da	89 43 30	 mov	 DWORD PTR [ebx+48], eax
  001dd	e8 00 00 00 00	 call	 ?GetSingleton@ioApplication@@SAAAV1@XZ ; ioApplication::GetSingleton
  001e2	8b c8		 mov	 ecx, eax
  001e4	e8 00 00 00 00	 call	 ?SetMouseBusy@ioApplication@@QAEX_N@Z ; ioApplication::SetMouseBusy

; 210  : 	m_dwConnectCheckTime = REALGETTIME();

  001e9	ff 15 00 00 00
	00		 call	 DWORD PTR __imp_?GetSingleton@ioFrameTimer@@SAAAV1@XZ
  001ef	8b c8		 mov	 ecx, eax
  001f1	ff 15 00 00 00
	00		 call	 DWORD PTR __imp_?GetTotalSec@ioFrameTimer@@QAEKXZ
  001f7	89 43 50	 mov	 DWORD PTR [ebx+80], eax

; 211  : 	m_bTempSend = false;

  001fa	c6 43 7c 00	 mov	 BYTE PTR [ebx+124], 0

; 212  : 	return true;

  001fe	b0 01		 mov	 al, 1
  00200	eb 35		 jmp	 SHORT $LN17@Start
$LN2@Start:

; 187  : 	{
; 188  : 		InitData();

  00202	8b cb		 mov	 ecx, ebx
  00204	e8 00 00 00 00	 call	 ?InitData@ioFileWriteClient@@IAEXXZ ; ioFileWriteClient::InitData

; 189  : 		g_GUIMgr.SetMsgBox( MB_OK, NULL, STR(6) );

  00209	56		 push	 esi
  0020a	6a 06		 push	 6
$LN19@Start:
  0020c	68 00 00 00 00	 push	 OFFSET ??_C@_00CNPNBAHC@?$AA@
  00211	68 00 00 00 00	 push	 OFFSET ??_C@_0BJ@BFKNODCG@ioFileWriteClient?3?3Start?$AA@
  00216	ff 15 00 00 00
	00		 call	 DWORD PTR __imp_?GetSingleton@ioStringManager@@SAAAV1@XZ
  0021c	8b c8		 mov	 ecx, eax
  0021e	ff 15 00 00 00
	00		 call	 DWORD PTR __imp_?GetString@ioStringManager@@QAEPADPBD0HW4FileNamePrefix@1@@Z
  00224	50		 push	 eax
  00225	56		 push	 esi
  00226	56		 push	 esi
  00227	e8 00 00 00 00	 call	 ?GetSingleton@ioSP2GUIManager@@SAAAV1@XZ ; ioSP2GUIManager::GetSingleton
  0022c	50		 push	 eax
  0022d	e8 00 00 00 00	 call	 ?SetMsgBox@ioSP2GUIManager@@QAAXHPAVioWnd@@PBDZZ ; ioSP2GUIManager::SetMsgBox
  00232	83 c4 10	 add	 esp, 16			; 00000010H
$LN18@Start:

; 190  : 		return false;

  00235	32 c0		 xor	 al, al
$LN17@Start:
  00237	5f		 pop	 edi
$LN10@Start:
  00238	5e		 pop	 esi
  00239	5b		 pop	 ebx

; 213  : }

  0023a	c9		 leave
  0023b	c2 1c 00	 ret	 28			; 0000001cH
?Start@ioFileWriteClient@@QAE_NPBD0KKKKK@Z ENDP		; ioFileWriteClient::Start
_TEXT	ENDS
PUBLIC	??_C@_0M@DIPKMNHI@?$CFs?5Complete?$AA@		; `string'
PUBLIC	??_R0?AVioWnd@@@8				; ioWnd `RTTI Type Descriptor'
PUBLIC	??_R0?AVFileWriteUploadWnd@@@8			; FileWriteUploadWnd `RTTI Type Descriptor'
PUBLIC	??_C@_0BL@MKAIAEBG@ioFileWriteClient?3?3Process?$AA@ ; `string'
PUBLIC	__$ArrayPad$
PUBLIC	?Process@ioFileWriteClient@@QAEXXZ		; ioFileWriteClient::Process
EXTRN	??1SP2Packet@@UAE@XZ:PROC			; SP2Packet::~SP2Packet
EXTRN	??6SP2Packet@@QAEAAV0@ABUtagFilePacket@@@Z:PROC	; SP2Packet::operator<<
EXTRN	??6SP2Packet@@QAEAAV0@K@Z:PROC			; SP2Packet::operator<<
EXTRN	?UploadFileSize@FileWriteUploadWnd@@QAEXHH@Z:PROC ; FileWriteUploadWnd::UploadFileSize
EXTRN	__imp_?IsShow@ioWnd@@QBE_NXZ:PROC
EXTRN	__imp__ReadFile@20:PROC
EXTRN	??6SP2Packet@@QAEAAV0@H@Z:PROC			; SP2Packet::operator<<
EXTRN	??0SP2Packet@@QAE@K@Z:PROC			; SP2Packet::SP2Packet
EXTRN	___security_cookie:DWORD
EXTRN	__chkstk:PROC
EXTRN	___RTDynamicCast:PROC
;	COMDAT ??_C@_0M@DIPKMNHI@?$CFs?5Complete?$AA@
CONST	SEGMENT
??_C@_0M@DIPKMNHI@?$CFs?5Complete?$AA@ DB '%s Complete', 00H ; `string'
CONST	ENDS
;	COMDAT ??_R0?AVioWnd@@@8
_DATA	SEGMENT
??_R0?AVioWnd@@@8 DD FLAT:??_7type_info@@6B@		; ioWnd `RTTI Type Descriptor'
	DD	00H
	DB	'.?AVioWnd@@', 00H
_DATA	ENDS
;	COMDAT ??_R0?AVFileWriteUploadWnd@@@8
_DATA	SEGMENT
??_R0?AVFileWriteUploadWnd@@@8 DD FLAT:??_7type_info@@6B@ ; FileWriteUploadWnd `RTTI Type Descriptor'
	DD	00H
	DB	'.?AVFileWriteUploadWnd@@', 00H
_DATA	ENDS
;	COMDAT ??_C@_0BL@MKAIAEBG@ioFileWriteClient?3?3Process?$AA@
CONST	SEGMENT
??_C@_0BL@MKAIAEBG@ioFileWriteClient?3?3Process?$AA@ DB 'ioFileWriteClien'
	DB	't::Process', 00H				; `string'
CONST	ENDS
;	COMDAT xdata$x
xdata$x	SEGMENT
__unwindtable$?Process@ioFileWriteClient@@QAEXXZ DD 0ffffffffH
	DD	FLAT:__unwindfunclet$?Process@ioFileWriteClient@@QAEXXZ$0
	DD	0ffffffffH
	DD	FLAT:__unwindfunclet$?Process@ioFileWriteClient@@QAEXXZ$1
	DD	0ffffffffH
	DD	FLAT:__unwindfunclet$?Process@ioFileWriteClient@@QAEXXZ$2
	DD	0ffffffffH
	DD	FLAT:__unwindfunclet$?Process@ioFileWriteClient@@QAEXXZ$3
__ehfuncinfo$?Process@ioFileWriteClient@@QAEXXZ DD 019930522H
	DD	04H
	DD	FLAT:__unwindtable$?Process@ioFileWriteClient@@QAEXXZ
	DD	2 DUP(00H)
	DD	2 DUP(00H)
	DD	00H
	DD	01H
; Function compile flags: /Ogsp
xdata$x	ENDS
;	COMDAT ?Process@ioFileWriteClient@@QAEXXZ
_TEXT	SEGMENT
_dwRead$ = -66116					; size = 4
_kPacket$507640 = -66112				; size = 32792
_kPacket$507638 = -33320				; size = 32792
_kPacket$507632 = -33320				; size = 32792
_kPacket$507627 = -33320				; size = 32792
_kFile$ = -528						; size = 512
__$ArrayPad$ = -16					; size = 4
__$EHRec$ = -12						; size = 12
?Process@ioFileWriteClient@@QAEXXZ PROC			; ioFileWriteClient::Process, COMDAT
; _this$ = ecx

; 216  : {

  00000	55		 push	 ebp
  00001	8b ec		 mov	 ebp, esp
  00003	6a ff		 push	 -1
  00005	68 00 00 00 00	 push	 __ehhandler$?Process@ioFileWriteClient@@QAEXXZ
  0000a	64 a1 00 00 00
	00		 mov	 eax, DWORD PTR fs:0
  00010	50		 push	 eax
  00011	b8 38 02 01 00	 mov	 eax, 66104		; 00010238H
  00016	e8 00 00 00 00	 call	 __chkstk
  0001b	a1 00 00 00 00	 mov	 eax, DWORD PTR ___security_cookie
  00020	33 c5		 xor	 eax, ebp
  00022	89 45 f0	 mov	 DWORD PTR __$ArrayPad$[ebp], eax
  00025	53		 push	 ebx
  00026	56		 push	 esi
  00027	57		 push	 edi
  00028	50		 push	 eax
  00029	8d 45 f4	 lea	 eax, DWORD PTR __$EHRec$[ebp]
  0002c	64 a3 00 00 00
	00		 mov	 DWORD PTR fs:0, eax
  00032	8b f1		 mov	 esi, ecx

; 217  : 	ProcessConnectCheck();

  00034	e8 00 00 00 00	 call	 ?ProcessConnectCheck@ioFileWriteClient@@IAEXXZ ; ioFileWriteClient::ProcessConnectCheck

; 218  : 
; 219  : 	if( !m_dwWriteSendTime || m_bTempSend )

  00039	83 7e 14 00	 cmp	 DWORD PTR [esi+20], 0
  0003d	0f 84 75 02 00
	00		 je	 $LN8@Process
  00043	80 7e 7c 00	 cmp	 BYTE PTR [esi+124], 0
  00047	0f 85 6b 02 00
	00		 jne	 $LN8@Process

; 220  : 		return;
; 221  : 
; 222  : 	enum { WRITE_SEND_TIME = 100, };
; 223  : 	if( REALGETTIME() - m_dwWriteSendTime < WRITE_SEND_TIME )

  0004d	8b 3d 00 00 00
	00		 mov	 edi, DWORD PTR __imp_?GetSingleton@ioFrameTimer@@SAAAV1@XZ
  00053	ff d7		 call	 edi
  00055	8b 1d 00 00 00
	00		 mov	 ebx, DWORD PTR __imp_?GetTotalSec@ioFrameTimer@@QAEKXZ
  0005b	8b c8		 mov	 ecx, eax
  0005d	ff d3		 call	 ebx
  0005f	2b 46 14	 sub	 eax, DWORD PTR [esi+20]
  00062	83 f8 64	 cmp	 eax, 100		; 00000064H
  00065	0f 82 4d 02 00
	00		 jb	 $LN8@Process

; 224  : 		return;
; 225  : 	m_dwWriteSendTime = REALGETTIME();

  0006b	ff d7		 call	 edi
  0006d	8b c8		 mov	 ecx, eax
  0006f	ff d3		 call	 ebx

; 226  : 
; 227  : 	if( !m_hFile )

  00071	33 ff		 xor	 edi, edi
  00073	89 46 14	 mov	 DWORD PTR [esi+20], eax
  00076	39 7e 08	 cmp	 DWORD PTR [esi+8], edi
  00079	75 7c		 jne	 SHORT $LN6@Process

; 228  : 	{
; 229  : 		SP2Packet kPacket( CFTPK_FILE_WRITE );

  0007b	68 01 20 01 00	 push	 73729			; 00012001H
  00080	8d 8d d8 7d ff
	ff		 lea	 ecx, DWORD PTR _kPacket$507627[ebp]
  00086	e8 00 00 00 00	 call	 ??0SP2Packet@@QAE@K@Z	; SP2Packet::SP2Packet

; 230  : 		kPacket << FILE_WRITE_PROCESS_ERROR;

  0008b	6a 04		 push	 4
  0008d	8d 8d d8 7d ff
	ff		 lea	 ecx, DWORD PTR _kPacket$507627[ebp]
  00093	89 7d fc	 mov	 DWORD PTR __$EHRec$[ebp+8], edi
  00096	e8 00 00 00 00	 call	 ??6SP2Packet@@QAEAAV0@H@Z ; SP2Packet::operator<<

; 231  : 		SendLoop( kPacket );

  0009b	8b 4e 04	 mov	 ecx, DWORD PTR [esi+4]
  0009e	3b cf		 cmp	 ecx, edi
  000a0	74 0b		 je	 SHORT $LN16@Process
  000a2	8b 01		 mov	 eax, DWORD PTR [ecx]
  000a4	8d 95 d8 7d ff
	ff		 lea	 edx, DWORD PTR _kPacket$507627[ebp]
  000aa	52		 push	 edx
  000ab	ff 10		 call	 DWORD PTR [eax]
$LN16@Process:

; 232  : 		g_GUIMgr.SetMsgBox( MB_OK, NULL, STR(1) );

  000ad	57		 push	 edi
  000ae	6a 01		 push	 1
$LN32@Process:
  000b0	68 00 00 00 00	 push	 OFFSET ??_C@_00CNPNBAHC@?$AA@
  000b5	68 00 00 00 00	 push	 OFFSET ??_C@_0BL@MKAIAEBG@ioFileWriteClient?3?3Process?$AA@
  000ba	ff 15 00 00 00
	00		 call	 DWORD PTR __imp_?GetSingleton@ioStringManager@@SAAAV1@XZ
  000c0	8b c8		 mov	 ecx, eax
  000c2	ff 15 00 00 00
	00		 call	 DWORD PTR __imp_?GetString@ioStringManager@@QAEPADPBD0HW4FileNamePrefix@1@@Z
  000c8	50		 push	 eax
  000c9	57		 push	 edi
  000ca	57		 push	 edi
  000cb	e8 00 00 00 00	 call	 ?GetSingleton@ioSP2GUIManager@@SAAAV1@XZ ; ioSP2GUIManager::GetSingleton
  000d0	50		 push	 eax
  000d1	e8 00 00 00 00	 call	 ?SetMsgBox@ioSP2GUIManager@@QAAXHPAVioWnd@@PBDZZ ; ioSP2GUIManager::SetMsgBox
  000d6	83 c4 10	 add	 esp, 16			; 00000010H

; 233  : 		SetReturnWndParam( RETURN_WND_PARAM_FAIL );

  000d9	68 12 27 00 00	 push	 10002			; 00002712H
  000de	8b ce		 mov	 ecx, esi
  000e0	e8 00 00 00 00	 call	 ?SetReturnWndParam@ioFileWriteClient@@IAEXH@Z ; ioFileWriteClient::SetReturnWndParam

; 234  : 		InitData();

  000e5	8b ce		 mov	 ecx, esi
  000e7	e8 00 00 00 00	 call	 ?InitData@ioFileWriteClient@@IAEXXZ ; ioFileWriteClient::InitData

; 265  : 		SendLoop( kPacket );

$LN24@Process:

; 235  : 		return;

  000ec	8d 8d d8 7d ff
	ff		 lea	 ecx, DWORD PTR _kPacket$507627[ebp]
  000f2	e9 b8 01 00 00	 jmp	 $LN31@Process
$LN6@Process:

; 236  : 	}
; 237  : 
; 238  : 	FilePacket kFile;

  000f7	bb 00 02 00 00	 mov	 ebx, 512		; 00000200H
  000fc	53		 push	 ebx
  000fd	8d 85 f0 fd ff
	ff		 lea	 eax, DWORD PTR _kFile$[ebp]
  00103	57		 push	 edi
  00104	50		 push	 eax
  00105	e8 00 00 00 00	 call	 _memset
  0010a	83 c4 0c	 add	 esp, 12			; 0000000cH

; 239  : 	DWORD dwRead = 0;
; 240  : 	if( !ReadFile( m_hFile, kFile.m_FilePacket, sizeof(kFile.m_FilePacket), &dwRead, NULL) )

  0010d	57		 push	 edi
  0010e	8d 85 bc fd fe
	ff		 lea	 eax, DWORD PTR _dwRead$[ebp]
  00114	50		 push	 eax
  00115	53		 push	 ebx
  00116	8d 85 f0 fd ff
	ff		 lea	 eax, DWORD PTR _kFile$[ebp]
  0011c	50		 push	 eax
  0011d	ff 76 08	 push	 DWORD PTR [esi+8]
  00120	89 bd bc fd fe
	ff		 mov	 DWORD PTR _dwRead$[ebp], edi
  00126	ff 15 00 00 00
	00		 call	 DWORD PTR __imp__ReadFile@20
  0012c	85 c0		 test	 eax, eax
  0012e	75 3e		 jne	 SHORT $LN5@Process

; 241  : 	{
; 242  : 		SP2Packet kPacket( CFTPK_FILE_WRITE );

  00130	68 01 20 01 00	 push	 73729			; 00012001H
  00135	8d 8d d8 7d ff
	ff		 lea	 ecx, DWORD PTR _kPacket$507632[ebp]
  0013b	e8 00 00 00 00	 call	 ??0SP2Packet@@QAE@K@Z	; SP2Packet::SP2Packet

; 243  : 		kPacket << FILE_WRITE_PROCESS_ERROR;

  00140	6a 04		 push	 4
  00142	8d 8d d8 7d ff
	ff		 lea	 ecx, DWORD PTR _kPacket$507632[ebp]
  00148	c7 45 fc 01 00
	00 00		 mov	 DWORD PTR __$EHRec$[ebp+8], 1
  0014f	e8 00 00 00 00	 call	 ??6SP2Packet@@QAEAAV0@H@Z ; SP2Packet::operator<<

; 244  : 		SendLoop( kPacket );

  00154	8b 4e 04	 mov	 ecx, DWORD PTR [esi+4]
  00157	3b cf		 cmp	 ecx, edi
  00159	74 0b		 je	 SHORT $LN21@Process
  0015b	8b 01		 mov	 eax, DWORD PTR [ecx]
  0015d	8d 95 d8 7d ff
	ff		 lea	 edx, DWORD PTR _kPacket$507632[ebp]
  00163	52		 push	 edx
  00164	ff 10		 call	 DWORD PTR [eax]
$LN21@Process:

; 245  : 		g_GUIMgr.SetMsgBox( MB_OK, NULL, STR(2) );

  00166	57		 push	 edi
  00167	6a 02		 push	 2

; 246  : 		SetReturnWndParam( RETURN_WND_PARAM_FAIL );
; 247  : 		InitData();
; 248  : 		return;

  00169	e9 42 ff ff ff	 jmp	 $LN32@Process
$LN5@Process:

; 249  : 	}
; 250  : 
; 251  : 	m_dwReadSize += dwRead;

  0016e	8b 85 bc fd fe
	ff		 mov	 eax, DWORD PTR _dwRead$[ebp]
  00174	01 46 10	 add	 DWORD PTR [esi+16], eax

; 252  : 
; 253  : 	FileWriteUploadWnd *pFileUploadWnd = dynamic_cast< FileWriteUploadWnd * >( g_GUIMgr.FindWnd( FILE_WRITE_SERVER_PROCESS ) );

  00177	57		 push	 edi
  00178	68 00 00 00 00	 push	 OFFSET ??_R0?AVFileWriteUploadWnd@@@8
  0017d	68 00 00 00 00	 push	 OFFSET ??_R0?AVioWnd@@@8
  00182	57		 push	 edi
  00183	68 1b 18 00 00	 push	 6171			; 0000181bH
  00188	e8 00 00 00 00	 call	 ?GetSingleton@ioSP2GUIManager@@SAAAV1@XZ ; ioSP2GUIManager::GetSingleton
  0018d	8b c8		 mov	 ecx, eax
  0018f	ff 15 00 00 00
	00		 call	 DWORD PTR __imp_?FindWnd@ioGUIManager@@QAEPAVioWnd@@K@Z
  00195	50		 push	 eax
  00196	e8 00 00 00 00	 call	 ___RTDynamicCast
  0019b	8b d8		 mov	 ebx, eax
  0019d	83 c4 14	 add	 esp, 20			; 00000014H

; 254  : 	if( pFileUploadWnd && pFileUploadWnd->IsShow() )

  001a0	3b df		 cmp	 ebx, edi
  001a2	74 19		 je	 SHORT $LN4@Process
  001a4	8b cb		 mov	 ecx, ebx
  001a6	ff 15 00 00 00
	00		 call	 DWORD PTR __imp_?IsShow@ioWnd@@QBE_NXZ
  001ac	84 c0		 test	 al, al
  001ae	74 0d		 je	 SHORT $LN4@Process

; 255  : 	{
; 256  : 		pFileUploadWnd->UploadFileSize( m_dwReadSize, m_dwFileSize );

  001b0	ff 76 0c	 push	 DWORD PTR [esi+12]
  001b3	8b cb		 mov	 ecx, ebx
  001b5	ff 76 10	 push	 DWORD PTR [esi+16]
  001b8	e8 00 00 00 00	 call	 ?UploadFileSize@FileWriteUploadWnd@@QAEXHH@Z ; FileWriteUploadWnd::UploadFileSize
$LN4@Process:

; 257  : 	}
; 258  : 
; 259  : 	if( m_dwReadSize < m_dwFileSize )

  001bd	8b 46 10	 mov	 eax, DWORD PTR [esi+16]
  001c0	3b 46 0c	 cmp	 eax, DWORD PTR [esi+12]
  001c3	73 62		 jae	 SHORT $LN3@Process

; 260  : 	{
; 261  : 		SP2Packet kPacket( CFTPK_FILE_WRITE );

  001c5	68 01 20 01 00	 push	 73729			; 00012001H
  001ca	8d 8d d8 7d ff
	ff		 lea	 ecx, DWORD PTR _kPacket$507638[ebp]
  001d0	e8 00 00 00 00	 call	 ??0SP2Packet@@QAE@K@Z	; SP2Packet::SP2Packet
  001d5	6a 02		 push	 2
  001d7	58		 pop	 eax

; 262  : 		kPacket << FILE_WRITE_PROCESS;

  001d8	50		 push	 eax
  001d9	8d 8d d8 7d ff
	ff		 lea	 ecx, DWORD PTR _kPacket$507638[ebp]
  001df	89 45 fc	 mov	 DWORD PTR __$EHRec$[ebp+8], eax
  001e2	e8 00 00 00 00	 call	 ??6SP2Packet@@QAEAAV0@H@Z ; SP2Packet::operator<<

; 263  : 		kPacket << dwRead;

  001e7	ff b5 bc fd fe
	ff		 push	 DWORD PTR _dwRead$[ebp]
  001ed	8d 8d d8 7d ff
	ff		 lea	 ecx, DWORD PTR _kPacket$507638[ebp]
  001f3	e8 00 00 00 00	 call	 ??6SP2Packet@@QAEAAV0@K@Z ; SP2Packet::operator<<

; 264  : 		kPacket << kFile;

  001f8	8d 85 f0 fd ff
	ff		 lea	 eax, DWORD PTR _kFile$[ebp]
  001fe	50		 push	 eax
  001ff	8d 8d d8 7d ff
	ff		 lea	 ecx, DWORD PTR _kPacket$507638[ebp]
  00205	e8 00 00 00 00	 call	 ??6SP2Packet@@QAEAAV0@ABUtagFilePacket@@@Z ; SP2Packet::operator<<

; 265  : 		SendLoop( kPacket );

  0020a	8b 76 04	 mov	 esi, DWORD PTR [esi+4]
  0020d	3b f7		 cmp	 esi, edi
  0020f	0f 84 d7 fe ff
	ff		 je	 $LN24@Process
  00215	8b 06		 mov	 eax, DWORD PTR [esi]
  00217	8d 8d d8 7d ff
	ff		 lea	 ecx, DWORD PTR _kPacket$507638[ebp]
  0021d	51		 push	 ecx
  0021e	8b ce		 mov	 ecx, esi
  00220	ff 10		 call	 DWORD PTR [eax]

; 266  : 	}
; 267  : 	else

  00222	e9 c5 fe ff ff	 jmp	 $LN24@Process
$LN3@Process:

; 268  : 	{
; 269  : 		InitData();

  00227	8b ce		 mov	 ecx, esi
  00229	e8 00 00 00 00	 call	 ?InitData@ioFileWriteClient@@IAEXXZ ; ioFileWriteClient::InitData

; 270  : 		SP2Packet kPacket( CFTPK_FILE_WRITE );

  0022e	68 01 20 01 00	 push	 73729			; 00012001H
  00233	8d 8d c0 fd fe
	ff		 lea	 ecx, DWORD PTR _kPacket$507640[ebp]
  00239	e8 00 00 00 00	 call	 ??0SP2Packet@@QAE@K@Z	; SP2Packet::SP2Packet
  0023e	6a 03		 push	 3
  00240	58		 pop	 eax

; 271  : 		kPacket << FILE_WRITE_END;

  00241	50		 push	 eax
  00242	8d 8d c0 fd fe
	ff		 lea	 ecx, DWORD PTR _kPacket$507640[ebp]
  00248	89 45 fc	 mov	 DWORD PTR __$EHRec$[ebp+8], eax
  0024b	e8 00 00 00 00	 call	 ??6SP2Packet@@QAEAAV0@H@Z ; SP2Packet::operator<<

; 272  : 		kPacket << dwRead;

  00250	ff b5 bc fd fe
	ff		 push	 DWORD PTR _dwRead$[ebp]
  00256	8d 8d c0 fd fe
	ff		 lea	 ecx, DWORD PTR _kPacket$507640[ebp]
  0025c	e8 00 00 00 00	 call	 ??6SP2Packet@@QAEAAV0@K@Z ; SP2Packet::operator<<

; 273  : 		if( dwRead != 0 )

  00261	39 bd bc fd fe
	ff		 cmp	 DWORD PTR _dwRead$[ebp], edi
  00267	74 12		 je	 SHORT $LN1@Process

; 274  : 			kPacket << kFile;

  00269	8d 85 f0 fd ff
	ff		 lea	 eax, DWORD PTR _kFile$[ebp]
  0026f	50		 push	 eax
  00270	8d 8d c0 fd fe
	ff		 lea	 ecx, DWORD PTR _kPacket$507640[ebp]
  00276	e8 00 00 00 00	 call	 ??6SP2Packet@@QAEAAV0@ABUtagFilePacket@@@Z ; SP2Packet::operator<<
$LN1@Process:

; 275  : 		SendLoop( kPacket );

  0027b	8b 76 04	 mov	 esi, DWORD PTR [esi+4]
  0027e	3b f7		 cmp	 esi, edi
  00280	74 0d		 je	 SHORT $LN27@Process
  00282	8b 06		 mov	 eax, DWORD PTR [esi]
  00284	8d 8d c0 fd fe
	ff		 lea	 ecx, DWORD PTR _kPacket$507640[ebp]
  0028a	51		 push	 ecx
  0028b	8b ce		 mov	 ecx, esi
  0028d	ff 10		 call	 DWORD PTR [eax]
$LN27@Process:

; 276  : 		
; 277  : 		LOG.PrintTimeAndLog( 0, "%s Complete", __FUNCTION__ );

  0028f	68 00 00 00 00	 push	 OFFSET ??_C@_0BL@MKAIAEBG@ioFileWriteClient?3?3Process?$AA@
  00294	68 00 00 00 00	 push	 OFFSET ??_C@_0M@DIPKMNHI@?$CFs?5Complete?$AA@
  00299	57		 push	 edi
  0029a	ff 35 00 00 00
	00		 push	 DWORD PTR __imp_?LOG@@3VCLog@@A
  002a0	ff 15 00 00 00
	00		 call	 DWORD PTR __imp_?PrintTimeAndLog@CLog@@QAAXHPADZZ
  002a6	83 c4 10	 add	 esp, 16			; 00000010H

; 278  : 	}

  002a9	8d 8d c0 fd fe
	ff		 lea	 ecx, DWORD PTR _kPacket$507640[ebp]
$LN31@Process:
  002af	83 4d fc ff	 or	 DWORD PTR __$EHRec$[ebp+8], -1
  002b3	e8 00 00 00 00	 call	 ??1SP2Packet@@UAE@XZ	; SP2Packet::~SP2Packet
$LN8@Process:

; 279  : }

  002b8	8b 4d f4	 mov	 ecx, DWORD PTR __$EHRec$[ebp]
  002bb	64 89 0d 00 00
	00 00		 mov	 DWORD PTR fs:0, ecx
  002c2	59		 pop	 ecx
  002c3	5f		 pop	 edi
  002c4	5e		 pop	 esi
  002c5	5b		 pop	 ebx
  002c6	8b 4d f0	 mov	 ecx, DWORD PTR __$ArrayPad$[ebp]
  002c9	33 cd		 xor	 ecx, ebp
  002cb	e8 00 00 00 00	 call	 @__security_check_cookie@4
  002d0	c9		 leave
  002d1	c3		 ret	 0
_TEXT	ENDS
;	COMDAT text$x
text$x	SEGMENT
__unwindfunclet$?Process@ioFileWriteClient@@QAEXXZ$0:
  00000	8d 8d d8 7d ff
	ff		 lea	 ecx, DWORD PTR _kPacket$507627[ebp]
  00006	e9 00 00 00 00	 jmp	 ??1SP2Packet@@UAE@XZ	; SP2Packet::~SP2Packet
__unwindfunclet$?Process@ioFileWriteClient@@QAEXXZ$1:
  0000b	8d 8d d8 7d ff
	ff		 lea	 ecx, DWORD PTR _kPacket$507632[ebp]
  00011	e9 00 00 00 00	 jmp	 ??1SP2Packet@@UAE@XZ	; SP2Packet::~SP2Packet
__unwindfunclet$?Process@ioFileWriteClient@@QAEXXZ$2:
  00016	8d 8d d8 7d ff
	ff		 lea	 ecx, DWORD PTR _kPacket$507638[ebp]
  0001c	e9 00 00 00 00	 jmp	 ??1SP2Packet@@UAE@XZ	; SP2Packet::~SP2Packet
__unwindfunclet$?Process@ioFileWriteClient@@QAEXXZ$3:
  00021	8d 8d c0 fd fe
	ff		 lea	 ecx, DWORD PTR _kPacket$507640[ebp]
  00027	e9 00 00 00 00	 jmp	 ??1SP2Packet@@UAE@XZ	; SP2Packet::~SP2Packet
__ehhandler$?Process@ioFileWriteClient@@QAEXXZ:
  0002c	8b 54 24 08	 mov	 edx, DWORD PTR [esp+8]
  00030	8d 42 0c	 lea	 eax, DWORD PTR [edx+12]
  00033	8b 8a b8 fd fe
	ff		 mov	 ecx, DWORD PTR [edx-66120]
  00039	33 c8		 xor	 ecx, eax
  0003b	e8 00 00 00 00	 call	 @__security_check_cookie@4
  00040	8b 4a fc	 mov	 ecx, DWORD PTR [edx-4]
  00043	33 c8		 xor	 ecx, eax
  00045	e8 00 00 00 00	 call	 @__security_check_cookie@4
  0004a	b8 00 00 00 00	 mov	 eax, OFFSET __ehfuncinfo$?Process@ioFileWriteClient@@QAEXXZ
  0004f	e9 00 00 00 00	 jmp	 ___CxxFrameHandler3
text$x	ENDS
?Process@ioFileWriteClient@@QAEXXZ ENDP			; ioFileWriteClient::Process
PUBLIC	??_C@_0BP@DECHCGIL@ioFileWriteClient?3?3OnFileWrite?$AA@ ; `string'
PUBLIC	?OnFileWrite@ioFileWriteClient@@IAEXAAVSP2Packet@@@Z ; ioFileWriteClient::OnFileWrite
;	COMDAT ??_C@_0BP@DECHCGIL@ioFileWriteClient?3?3OnFileWrite?$AA@
CONST	SEGMENT
??_C@_0BP@DECHCGIL@ioFileWriteClient?3?3OnFileWrite?$AA@ DB 'ioFileWriteC'
	DB	'lient::OnFileWrite', 00H			; `string'
; Function compile flags: /Ogsp
CONST	ENDS
;	COMDAT ?OnFileWrite@ioFileWriteClient@@IAEXAAVSP2Packet@@@Z
_TEXT	SEGMENT
_iMsg$ = -4						; size = 4
_rkPacket$ = 8						; size = 4
?OnFileWrite@ioFileWriteClient@@IAEXAAVSP2Packet@@@Z PROC ; ioFileWriteClient::OnFileWrite, COMDAT
; _this$ = ecx

; 319  : {

  00000	55		 push	 ebp
  00001	8b ec		 mov	 ebp, esp
  00003	51		 push	 ecx
  00004	53		 push	 ebx
  00005	56		 push	 esi
  00006	57		 push	 edi

; 320  : 	g_App.SetMouseBusy( false );

  00007	33 f6		 xor	 esi, esi
  00009	56		 push	 esi
  0000a	8b d9		 mov	 ebx, ecx
  0000c	e8 00 00 00 00	 call	 ?GetSingleton@ioApplication@@SAAAV1@XZ ; ioApplication::GetSingleton
  00011	8b c8		 mov	 ecx, eax
  00013	e8 00 00 00 00	 call	 ?SetMouseBusy@ioApplication@@QAEX_N@Z ; ioApplication::SetMouseBusy

; 321  : 
; 322  : 	int iMsg = 0;
; 323  : 	rkPacket >> iMsg;

  00018	8b 4d 08	 mov	 ecx, DWORD PTR _rkPacket$[ebp]
  0001b	8d 45 fc	 lea	 eax, DWORD PTR _iMsg$[ebp]
  0001e	50		 push	 eax
  0001f	89 75 fc	 mov	 DWORD PTR _iMsg$[ebp], esi
  00022	e8 00 00 00 00	 call	 ??5SP2Packet@@QAEAAV0@AAH@Z ; SP2Packet::operator>>

; 324  : 
; 325  : 	int iParam = RETURN_WND_PARAM_COMPLETE;
; 326  : 	if( iMsg == FILE_WRITE_ERROR_FILE_NAME )

  00027	8b 45 fc	 mov	 eax, DWORD PTR _iMsg$[ebp]
  0002a	bf 11 27 00 00	 mov	 edi, 10001		; 00002711H
  0002f	83 f8 02	 cmp	 eax, 2
  00032	75 05		 jne	 SHORT $LN16@OnFileWrit

; 327  : 	{
; 328  : 		iParam = RETURN_WND_PARAM_FAIL;
; 329  : 		g_GUIMgr.SetMsgBox( MB_OK, NULL, STR(1) );

  00034	56		 push	 esi
  00035	6a 01		 push	 1
  00037	eb 3a		 jmp	 SHORT $LN20@OnFileWrit
$LN16@OnFileWrit:

; 330  : 	}
; 331  : 	else if( iMsg == FILE_WRITE_EXIST_FILE )

  00039	83 f8 03	 cmp	 eax, 3
  0003c	75 05		 jne	 SHORT $LN14@OnFileWrit

; 332  : 	{
; 333  : 		iParam = RETURN_WND_PARAM_FAIL;
; 334  : 		g_GUIMgr.SetMsgBox( MB_OK, NULL, STR(2) );

  0003e	56		 push	 esi
  0003f	6a 02		 push	 2
  00041	eb 30		 jmp	 SHORT $LN20@OnFileWrit
$LN14@OnFileWrit:

; 335  : 	}
; 336  : 	else if( iMsg == FILE_WRITE_ERROR_CREATE_FILE )

  00043	83 f8 04	 cmp	 eax, 4
  00046	75 05		 jne	 SHORT $LN12@OnFileWrit

; 337  : 	{
; 338  : 		iParam = RETURN_WND_PARAM_FAIL;
; 339  : 		g_GUIMgr.SetMsgBox( MB_OK, NULL, STR(3) );

  00048	56		 push	 esi
  00049	6a 03		 push	 3
  0004b	eb 26		 jmp	 SHORT $LN20@OnFileWrit
$LN12@OnFileWrit:

; 340  : 	}
; 341  : 	else if( iMsg == FILE_WRITE_ERROR_WRITE_FILE )

  0004d	83 f8 05	 cmp	 eax, 5
  00050	75 05		 jne	 SHORT $LN10@OnFileWrit

; 342  : 	{
; 343  : 		iParam = RETURN_WND_PARAM_FAIL;
; 344  : 		g_GUIMgr.SetMsgBox( MB_OK, NULL, STR(4) );

  00052	56		 push	 esi
  00053	6a 04		 push	 4
  00055	eb 1c		 jmp	 SHORT $LN20@OnFileWrit
$LN10@OnFileWrit:

; 345  : 	}
; 346  : 	else if( iMsg == FILE_WRITE_ERROR_FILE_CRC )

  00057	83 f8 06	 cmp	 eax, 6
  0005a	75 05		 jne	 SHORT $LN8@OnFileWrit

; 347  : 	{
; 348  : 		iParam = RETURN_WND_PARAM_FAIL;
; 349  : 		g_GUIMgr.SetMsgBox( MB_OK, NULL, STR(5) );

  0005c	56		 push	 esi
  0005d	6a 05		 push	 5
  0005f	eb 12		 jmp	 SHORT $LN20@OnFileWrit
$LN8@OnFileWrit:

; 350  : 	}
; 351  : 	else if( iMsg == FILE_WRITE_ERROR_MOVE_FILE )

  00061	83 f8 07	 cmp	 eax, 7
  00064	75 05		 jne	 SHORT $LN6@OnFileWrit

; 352  : 	{
; 353  : 		iParam = RETURN_WND_PARAM_FAIL;
; 354  : 		g_GUIMgr.SetMsgBox( MB_OK, NULL, STR(6) );

  00066	56		 push	 esi
  00067	6a 06		 push	 6
  00069	eb 08		 jmp	 SHORT $LN20@OnFileWrit
$LN6@OnFileWrit:

; 355  : 	}
; 356  : 	else if( iMsg == FILE_WRITE_ERROR_WRONG_FILE )

  0006b	83 f8 08	 cmp	 eax, 8
  0006e	75 54		 jne	 SHORT $LN4@OnFileWrit

; 357  : 	{
; 358  : 		iParam = RETURN_WND_PARAM_FAIL;
; 359  : 		g_GUIMgr.SetMsgBox( MB_OK, NULL, STR(7) );

  00070	56		 push	 esi
  00071	6a 07		 push	 7
$LN20@OnFileWrit:
  00073	68 00 00 00 00	 push	 OFFSET ??_C@_00CNPNBAHC@?$AA@
  00078	68 00 00 00 00	 push	 OFFSET ??_C@_0BP@DECHCGIL@ioFileWriteClient?3?3OnFileWrite?$AA@
  0007d	bf 12 27 00 00	 mov	 edi, 10002		; 00002712H
  00082	ff 15 00 00 00
	00		 call	 DWORD PTR __imp_?GetSingleton@ioStringManager@@SAAAV1@XZ
  00088	8b c8		 mov	 ecx, eax
  0008a	ff 15 00 00 00
	00		 call	 DWORD PTR __imp_?GetString@ioStringManager@@QAEPADPBD0HW4FileNamePrefix@1@@Z
  00090	50		 push	 eax
  00091	56		 push	 esi
  00092	56		 push	 esi
  00093	e8 00 00 00 00	 call	 ?GetSingleton@ioSP2GUIManager@@SAAAV1@XZ ; ioSP2GUIManager::GetSingleton
  00098	50		 push	 eax
  00099	e8 00 00 00 00	 call	 ?SetMsgBox@ioSP2GUIManager@@QAAXHPAVioWnd@@PBDZZ ; ioSP2GUIManager::SetMsgBox
  0009e	83 c4 10	 add	 esp, 16			; 00000010H
$LN2@OnFileWrit:

; 365  : 	}
; 366  : 
; 367  : 	if( m_pSocket )

  000a1	8b 4b 04	 mov	 ecx, DWORD PTR [ebx+4]
  000a4	3b ce		 cmp	 ecx, esi
  000a6	74 06		 je	 SHORT $LN1@OnFileWrit

; 368  : 		m_pSocket->CloseClientTCP();

  000a8	ff 15 00 00 00
	00		 call	 DWORD PTR __imp_?CloseClientTCP@ioClientTCPSocket@@QAEXXZ
$LN1@OnFileWrit:

; 369  : 	InitData();

  000ae	8b cb		 mov	 ecx, ebx
  000b0	e8 00 00 00 00	 call	 ?InitData@ioFileWriteClient@@IAEXXZ ; ioFileWriteClient::InitData

; 370  : 	SetReturnWndParam( iParam );

  000b5	57		 push	 edi
  000b6	8b cb		 mov	 ecx, ebx
  000b8	e8 00 00 00 00	 call	 ?SetReturnWndParam@ioFileWriteClient@@IAEXH@Z ; ioFileWriteClient::SetReturnWndParam
$LN17@OnFileWrit:
  000bd	5f		 pop	 edi
  000be	5e		 pop	 esi
  000bf	5b		 pop	 ebx

; 371  : }

  000c0	c9		 leave
  000c1	c2 04 00	 ret	 4
$LN4@OnFileWrit:

; 360  : 	}
; 361  : 	else if( iMsg == FILE_WRITE_START_OK )

  000c4	83 f8 09	 cmp	 eax, 9
  000c7	75 d8		 jne	 SHORT $LN2@OnFileWrit

; 362  : 	{
; 363  : 		m_dwWriteSendTime = REALGETTIME();    // PROCESS 시작

  000c9	ff 15 00 00 00
	00		 call	 DWORD PTR __imp_?GetSingleton@ioFrameTimer@@SAAAV1@XZ
  000cf	8b c8		 mov	 ecx, eax
  000d1	ff 15 00 00 00
	00		 call	 DWORD PTR __imp_?GetTotalSec@ioFrameTimer@@QAEKXZ
  000d7	89 43 14	 mov	 DWORD PTR [ebx+20], eax

; 364  : 		return;

  000da	eb e1		 jmp	 SHORT $LN17@OnFileWrit
?OnFileWrite@ioFileWriteClient@@IAEXAAVSP2Packet@@@Z ENDP ; ioFileWriteClient::OnFileWrite
_TEXT	ENDS
PUBLIC	__$ArrayPad$
PUBLIC	?ConnectProcess@ioFileWriteClient@@QAEXXZ	; ioFileWriteClient::ConnectProcess
EXTRN	??6SP2Packet@@QAEAAV0@ABVioHashString@@@Z:PROC	; SP2Packet::operator<<
EXTRN	?GetSingleton@ioMyInfo@@SAAAV1@XZ:PROC		; ioMyInfo::GetSingleton
;	COMDAT xdata$x
xdata$x	SEGMENT
__unwindtable$?ConnectProcess@ioFileWriteClient@@QAEXXZ DD 0ffffffffH
	DD	FLAT:__unwindfunclet$?ConnectProcess@ioFileWriteClient@@QAEXXZ$0
	DD	0ffffffffH
	DD	FLAT:__unwindfunclet$?ConnectProcess@ioFileWriteClient@@QAEXXZ$1
__ehfuncinfo$?ConnectProcess@ioFileWriteClient@@QAEXXZ DD 019930522H
	DD	02H
	DD	FLAT:__unwindtable$?ConnectProcess@ioFileWriteClient@@QAEXXZ
	DD	2 DUP(00H)
	DD	2 DUP(00H)
	DD	00H
	DD	01H
; Function compile flags: /Ogsp
xdata$x	ENDS
;	COMDAT ?ConnectProcess@ioFileWriteClient@@QAEXXZ
_TEXT	SEGMENT
_kPacket$507704 = -65600				; size = 32792
_kPacket$507702 = -32808				; size = 32792
__$ArrayPad$ = -16					; size = 4
__$EHRec$ = -12						; size = 12
?ConnectProcess@ioFileWriteClient@@QAEXXZ PROC		; ioFileWriteClient::ConnectProcess, COMDAT
; _this$ = ecx

; 393  : {

  00000	55		 push	 ebp
  00001	8b ec		 mov	 ebp, esp
  00003	6a ff		 push	 -1
  00005	68 00 00 00 00	 push	 __ehhandler$?ConnectProcess@ioFileWriteClient@@QAEXXZ
  0000a	64 a1 00 00 00
	00		 mov	 eax, DWORD PTR fs:0
  00010	50		 push	 eax
  00011	b8 34 00 01 00	 mov	 eax, 65588		; 00010034H
  00016	e8 00 00 00 00	 call	 __chkstk
  0001b	a1 00 00 00 00	 mov	 eax, DWORD PTR ___security_cookie
  00020	33 c5		 xor	 eax, ebp
  00022	89 45 f0	 mov	 DWORD PTR __$ArrayPad$[ebp], eax
  00025	56		 push	 esi
  00026	50		 push	 eax
  00027	8d 45 f4	 lea	 eax, DWORD PTR __$EHRec$[ebp]
  0002a	64 a3 00 00 00
	00		 mov	 DWORD PTR fs:0, eax
  00030	8b f1		 mov	 esi, ecx

; 394  : 	if ( !m_bTempSend )

  00032	80 7e 7c 00	 cmp	 BYTE PTR [esi+124], 0
  00036	0f 85 c8 00 00
	00		 jne	 $LN2@ConnectPro

; 395  : 	{
; 396  : 		SP2Packet kPacket( CFTPK_FILE_WRITE );

  0003c	68 01 20 01 00	 push	 73729			; 00012001H
  00041	8d 8d d8 7f ff
	ff		 lea	 ecx, DWORD PTR _kPacket$507702[ebp]
  00047	e8 00 00 00 00	 call	 ??0SP2Packet@@QAE@K@Z	; SP2Packet::SP2Packet
  0004c	83 65 fc 00	 and	 DWORD PTR __$EHRec$[ebp+8], 0

; 397  : 		kPacket << FILE_WRITE_START;

  00050	6a 01		 push	 1
  00052	8d 8d d8 7f ff
	ff		 lea	 ecx, DWORD PTR _kPacket$507702[ebp]
  00058	e8 00 00 00 00	 call	 ??6SP2Packet@@QAEAAV0@H@Z ; SP2Packet::operator<<

; 398  : 		kPacket << g_MyInfo.GetUserIndex();

  0005d	e8 00 00 00 00	 call	 ?GetSingleton@ioMyInfo@@SAAAV1@XZ ; ioMyInfo::GetSingleton
  00062	ff 70 08	 push	 DWORD PTR [eax+8]
  00065	8d 8d d8 7f ff
	ff		 lea	 ecx, DWORD PTR _kPacket$507702[ebp]
  0006b	e8 00 00 00 00	 call	 ??6SP2Packet@@QAEAAV0@K@Z ; SP2Packet::operator<<

; 399  : 		kPacket << g_MyInfo.GetPrivateID();

  00070	e8 00 00 00 00	 call	 ?GetSingleton@ioMyInfo@@SAAAV1@XZ ; ioMyInfo::GetSingleton
  00075	83 c0 0c	 add	 eax, 12			; 0000000cH
  00078	50		 push	 eax
  00079	8d 8d d8 7f ff
	ff		 lea	 ecx, DWORD PTR _kPacket$507702[ebp]
  0007f	e8 00 00 00 00	 call	 ??6SP2Packet@@QAEAAV0@ABVioHashString@@@Z ; SP2Packet::operator<<

; 400  : 		kPacket << g_MyInfo.GetPublicID();

  00084	e8 00 00 00 00	 call	 ?GetSingleton@ioMyInfo@@SAAAV1@XZ ; ioMyInfo::GetSingleton
  00089	83 c0 1c	 add	 eax, 28			; 0000001cH
  0008c	50		 push	 eax
  0008d	8d 8d d8 7f ff
	ff		 lea	 ecx, DWORD PTR _kPacket$507702[ebp]
  00093	e8 00 00 00 00	 call	 ??6SP2Packet@@QAEAAV0@ABVioHashString@@@Z ; SP2Packet::operator<<

; 401  : 		kPacket << g_MyInfo.GetMyIP();

  00098	e8 00 00 00 00	 call	 ?GetSingleton@ioMyInfo@@SAAAV1@XZ ; ioMyInfo::GetSingleton
  0009d	05 68 04 00 00	 add	 eax, 1128		; 00000468H
  000a2	50		 push	 eax
  000a3	8d 8d d8 7f ff
	ff		 lea	 ecx, DWORD PTR _kPacket$507702[ebp]
  000a9	e8 00 00 00 00	 call	 ??6SP2Packet@@QAEAAV0@ABVioHashString@@@Z ; SP2Packet::operator<<

; 402  : 		kPacket << m_szWriteFileName;

  000ae	8d 46 1c	 lea	 eax, DWORD PTR [esi+28]
  000b1	50		 push	 eax
  000b2	8d 8d d8 7f ff
	ff		 lea	 ecx, DWORD PTR _kPacket$507702[ebp]
  000b8	e8 00 00 00 00	 call	 ??6SP2Packet@@QAEAAV0@ABVioHashString@@@Z ; SP2Packet::operator<<

; 403  : 		kPacket << m_dwFileCRC;

  000bd	ff 76 18	 push	 DWORD PTR [esi+24]
  000c0	8d 8d d8 7f ff
	ff		 lea	 ecx, DWORD PTR _kPacket$507702[ebp]
  000c6	e8 00 00 00 00	 call	 ??6SP2Packet@@QAEAAV0@K@Z ; SP2Packet::operator<<

; 404  : 		kPacket << m_dwFileWidth;

  000cb	ff 76 2c	 push	 DWORD PTR [esi+44]
  000ce	8d 8d d8 7f ff
	ff		 lea	 ecx, DWORD PTR _kPacket$507702[ebp]
  000d4	e8 00 00 00 00	 call	 ??6SP2Packet@@QAEAAV0@K@Z ; SP2Packet::operator<<

; 405  : 		kPacket << m_dwFileHeight;

  000d9	ff 76 30	 push	 DWORD PTR [esi+48]
  000dc	8d 8d d8 7f ff
	ff		 lea	 ecx, DWORD PTR _kPacket$507702[ebp]
  000e2	e8 00 00 00 00	 call	 ??6SP2Packet@@QAEAAV0@K@Z ; SP2Packet::operator<<

; 406  : 		SendLoop( kPacket );

  000e7	8b 4e 04	 mov	 ecx, DWORD PTR [esi+4]
  000ea	85 c9		 test	 ecx, ecx
  000ec	74 0b		 je	 SHORT $LN15@ConnectPro
  000ee	8b 01		 mov	 eax, DWORD PTR [ecx]
  000f0	8d 95 d8 7f ff
	ff		 lea	 edx, DWORD PTR _kPacket$507702[ebp]
  000f6	52		 push	 edx
  000f7	ff 10		 call	 DWORD PTR [eax]
$LN15@ConnectPro:

; 407  : 	}

  000f9	8d 8d d8 7f ff
	ff		 lea	 ecx, DWORD PTR _kPacket$507702[ebp]

; 408  : 	else

  000ff	e9 c4 00 00 00	 jmp	 $LN30@ConnectPro
$LN2@ConnectPro:

; 409  : 	{
; 410  : 		SP2Packet kPacket( CFTPK_ALL_FILE_WRITE );

  00104	68 02 20 01 00	 push	 73730			; 00012002H
  00109	8d 8d c0 ff fe
	ff		 lea	 ecx, DWORD PTR _kPacket$507704[ebp]
  0010f	e8 00 00 00 00	 call	 ??0SP2Packet@@QAE@K@Z	; SP2Packet::SP2Packet
  00114	33 c0		 xor	 eax, eax
  00116	40		 inc	 eax

; 411  : 		kPacket << FILE_WRITE_START;

  00117	50		 push	 eax
  00118	8d 8d c0 ff fe
	ff		 lea	 ecx, DWORD PTR _kPacket$507704[ebp]
  0011e	89 45 fc	 mov	 DWORD PTR __$EHRec$[ebp+8], eax
  00121	e8 00 00 00 00	 call	 ??6SP2Packet@@QAEAAV0@H@Z ; SP2Packet::operator<<

; 412  : 		kPacket << g_MyInfo.GetUserIndex();

  00126	e8 00 00 00 00	 call	 ?GetSingleton@ioMyInfo@@SAAAV1@XZ ; ioMyInfo::GetSingleton
  0012b	ff 70 08	 push	 DWORD PTR [eax+8]
  0012e	8d 8d c0 ff fe
	ff		 lea	 ecx, DWORD PTR _kPacket$507704[ebp]
  00134	e8 00 00 00 00	 call	 ??6SP2Packet@@QAEAAV0@K@Z ; SP2Packet::operator<<

; 413  : 		kPacket << g_MyInfo.GetPrivateID();

  00139	e8 00 00 00 00	 call	 ?GetSingleton@ioMyInfo@@SAAAV1@XZ ; ioMyInfo::GetSingleton
  0013e	83 c0 0c	 add	 eax, 12			; 0000000cH
  00141	50		 push	 eax
  00142	8d 8d c0 ff fe
	ff		 lea	 ecx, DWORD PTR _kPacket$507704[ebp]
  00148	e8 00 00 00 00	 call	 ??6SP2Packet@@QAEAAV0@ABVioHashString@@@Z ; SP2Packet::operator<<

; 414  : 		kPacket << g_MyInfo.GetPublicID();

  0014d	e8 00 00 00 00	 call	 ?GetSingleton@ioMyInfo@@SAAAV1@XZ ; ioMyInfo::GetSingleton
  00152	83 c0 1c	 add	 eax, 28			; 0000001cH
  00155	50		 push	 eax
  00156	8d 8d c0 ff fe
	ff		 lea	 ecx, DWORD PTR _kPacket$507704[ebp]
  0015c	e8 00 00 00 00	 call	 ??6SP2Packet@@QAEAAV0@ABVioHashString@@@Z ; SP2Packet::operator<<

; 415  : 		kPacket << g_MyInfo.GetMyIP();

  00161	e8 00 00 00 00	 call	 ?GetSingleton@ioMyInfo@@SAAAV1@XZ ; ioMyInfo::GetSingleton
  00166	05 68 04 00 00	 add	 eax, 1128		; 00000468H
  0016b	50		 push	 eax
  0016c	8d 8d c0 ff fe
	ff		 lea	 ecx, DWORD PTR _kPacket$507704[ebp]
  00172	e8 00 00 00 00	 call	 ??6SP2Packet@@QAEAAV0@ABVioHashString@@@Z ; SP2Packet::operator<<

; 416  : 		kPacket << m_szWriteFileName;

  00177	8d 46 1c	 lea	 eax, DWORD PTR [esi+28]
  0017a	50		 push	 eax
  0017b	8d 8d c0 ff fe
	ff		 lea	 ecx, DWORD PTR _kPacket$507704[ebp]
  00181	e8 00 00 00 00	 call	 ??6SP2Packet@@QAEAAV0@ABVioHashString@@@Z ; SP2Packet::operator<<

; 417  : 		kPacket << m_dwFileCRC;

  00186	ff 76 18	 push	 DWORD PTR [esi+24]
  00189	8d 8d c0 ff fe
	ff		 lea	 ecx, DWORD PTR _kPacket$507704[ebp]
  0018f	e8 00 00 00 00	 call	 ??6SP2Packet@@QAEAAV0@K@Z ; SP2Packet::operator<<

; 418  : 		kPacket << m_dwFileWidth;

  00194	ff 76 2c	 push	 DWORD PTR [esi+44]
  00197	8d 8d c0 ff fe
	ff		 lea	 ecx, DWORD PTR _kPacket$507704[ebp]
  0019d	e8 00 00 00 00	 call	 ??6SP2Packet@@QAEAAV0@K@Z ; SP2Packet::operator<<

; 419  : 		kPacket << m_dwFileHeight;

  001a2	ff 76 30	 push	 DWORD PTR [esi+48]
  001a5	8d 8d c0 ff fe
	ff		 lea	 ecx, DWORD PTR _kPacket$507704[ebp]
  001ab	e8 00 00 00 00	 call	 ??6SP2Packet@@QAEAAV0@K@Z ; SP2Packet::operator<<

; 420  : 		SendLoop( kPacket );

  001b0	8b 4e 04	 mov	 ecx, DWORD PTR [esi+4]
  001b3	85 c9		 test	 ecx, ecx
  001b5	74 0b		 je	 SHORT $LN26@ConnectPro
  001b7	8b 01		 mov	 eax, DWORD PTR [ecx]
  001b9	8d 95 c0 ff fe
	ff		 lea	 edx, DWORD PTR _kPacket$507704[ebp]
  001bf	52		 push	 edx
  001c0	ff 10		 call	 DWORD PTR [eax]
$LN26@ConnectPro:

; 421  : 	}

  001c2	8d 8d c0 ff fe
	ff		 lea	 ecx, DWORD PTR _kPacket$507704[ebp]
$LN30@ConnectPro:
  001c8	83 4d fc ff	 or	 DWORD PTR __$EHRec$[ebp+8], -1
  001cc	e8 00 00 00 00	 call	 ??1SP2Packet@@UAE@XZ	; SP2Packet::~SP2Packet

; 422  : 
; 423  : 	m_dwConnectCheckTime = 0;

  001d1	83 66 50 00	 and	 DWORD PTR [esi+80], 0

; 424  : }

  001d5	8b 4d f4	 mov	 ecx, DWORD PTR __$EHRec$[ebp]
  001d8	64 89 0d 00 00
	00 00		 mov	 DWORD PTR fs:0, ecx
  001df	59		 pop	 ecx
  001e0	5e		 pop	 esi
  001e1	8b 4d f0	 mov	 ecx, DWORD PTR __$ArrayPad$[ebp]
  001e4	33 cd		 xor	 ecx, ebp
  001e6	e8 00 00 00 00	 call	 @__security_check_cookie@4
  001eb	c9		 leave
  001ec	c3		 ret	 0
_TEXT	ENDS
;	COMDAT text$x
text$x	SEGMENT
__unwindfunclet$?ConnectProcess@ioFileWriteClient@@QAEXXZ$0:
  00000	8d 8d d8 7f ff
	ff		 lea	 ecx, DWORD PTR _kPacket$507702[ebp]
  00006	e9 00 00 00 00	 jmp	 ??1SP2Packet@@UAE@XZ	; SP2Packet::~SP2Packet
__unwindfunclet$?ConnectProcess@ioFileWriteClient@@QAEXXZ$1:
  0000b	8d 8d c0 ff fe
	ff		 lea	 ecx, DWORD PTR _kPacket$507704[ebp]
  00011	e9 00 00 00 00	 jmp	 ??1SP2Packet@@UAE@XZ	; SP2Packet::~SP2Packet
__ehhandler$?ConnectProcess@ioFileWriteClient@@QAEXXZ:
  00016	8b 54 24 08	 mov	 edx, DWORD PTR [esp+8]
  0001a	8d 42 0c	 lea	 eax, DWORD PTR [edx+12]
  0001d	8b 8a c4 ff fe
	ff		 mov	 ecx, DWORD PTR [edx-65596]
  00023	33 c8		 xor	 ecx, eax
  00025	e8 00 00 00 00	 call	 @__security_check_cookie@4
  0002a	8b 4a fc	 mov	 ecx, DWORD PTR [edx-4]
  0002d	33 c8		 xor	 ecx, eax
  0002f	e8 00 00 00 00	 call	 @__security_check_cookie@4
  00034	b8 00 00 00 00	 mov	 eax, OFFSET __ehfuncinfo$?ConnectProcess@ioFileWriteClient@@QAEXXZ
  00039	e9 00 00 00 00	 jmp	 ___CxxFrameHandler3
text$x	ENDS
?ConnectProcess@ioFileWriteClient@@QAEXXZ ENDP		; ioFileWriteClient::ConnectProcess
PUBLIC	??_C@_0CF@FIAKAONK@ioFileWriteClient?3?3DisconnectPro@ ; `string'
PUBLIC	?DisconnectProcess@ioFileWriteClient@@QAEXXZ	; ioFileWriteClient::DisconnectProcess
;	COMDAT ??_C@_0CF@FIAKAONK@ioFileWriteClient?3?3DisconnectPro@
CONST	SEGMENT
??_C@_0CF@FIAKAONK@ioFileWriteClient?3?3DisconnectPro@ DB 'ioFileWriteCli'
	DB	'ent::DisconnectProcess', 00H		; `string'
; Function compile flags: /Ogsp
CONST	ENDS
;	COMDAT ?DisconnectProcess@ioFileWriteClient@@QAEXXZ
_TEXT	SEGMENT
?DisconnectProcess@ioFileWriteClient@@QAEXXZ PROC	; ioFileWriteClient::DisconnectProcess, COMDAT
; _this$ = ecx

; 427  : {

  00000	56		 push	 esi

; 428  : 	g_GUIMgr.SetMsgBox( MB_OK, NULL, STR(1) );

  00001	6a 00		 push	 0
  00003	6a 01		 push	 1
  00005	68 00 00 00 00	 push	 OFFSET ??_C@_00CNPNBAHC@?$AA@
  0000a	68 00 00 00 00	 push	 OFFSET ??_C@_0CF@FIAKAONK@ioFileWriteClient?3?3DisconnectPro@
  0000f	8b f1		 mov	 esi, ecx
  00011	ff 15 00 00 00
	00		 call	 DWORD PTR __imp_?GetSingleton@ioStringManager@@SAAAV1@XZ
  00017	8b c8		 mov	 ecx, eax
  00019	ff 15 00 00 00
	00		 call	 DWORD PTR __imp_?GetString@ioStringManager@@QAEPADPBD0HW4FileNamePrefix@1@@Z
  0001f	50		 push	 eax
  00020	6a 00		 push	 0
  00022	6a 00		 push	 0
  00024	e8 00 00 00 00	 call	 ?GetSingleton@ioSP2GUIManager@@SAAAV1@XZ ; ioSP2GUIManager::GetSingleton
  00029	50		 push	 eax
  0002a	e8 00 00 00 00	 call	 ?SetMsgBox@ioSP2GUIManager@@QAAXHPAVioWnd@@PBDZZ ; ioSP2GUIManager::SetMsgBox
  0002f	83 c4 10	 add	 esp, 16			; 00000010H

; 429  : 	SetReturnWndParam( RETURN_WND_PARAM_FAIL );

  00032	68 12 27 00 00	 push	 10002			; 00002712H
  00037	8b ce		 mov	 ecx, esi
  00039	e8 00 00 00 00	 call	 ?SetReturnWndParam@ioFileWriteClient@@IAEXH@Z ; ioFileWriteClient::SetReturnWndParam

; 430  : 
; 431  : 	InitData();

  0003e	8b ce		 mov	 ecx, esi
  00040	5e		 pop	 esi
  00041	e9 00 00 00 00	 jmp	 ?InitData@ioFileWriteClient@@IAEXXZ ; ioFileWriteClient::InitData
?DisconnectProcess@ioFileWriteClient@@QAEXXZ ENDP	; ioFileWriteClient::DisconnectProcess
_TEXT	ENDS
PUBLIC	??_C@_0CF@IFOBJEBC@?$LO?w?$LH?N?$LF?e?G?R?5?F?D?$MA?O?5?$MA?L?$LI?$KH?$MA?L?5?$MA?$NP?$LI?x?$LF?G?$LO?z?$LN?$MA?$LE@ ; `string'
PUBLIC	??_C@_0CC@HNBBGJCC@?F?D?$MA?O?$MA?L?5?$CFd?$LJ?Y?$MA?L?F?$KO?$LI?$KG?5?C?J?$LA?z?G?O?$LP?$LE?$LN?$MA?$LE?O?$LE?Y@ ; `string'
PUBLIC	??_C@_0BM@BJBJEINO@?F?D?$MA?O?5?$LP?$MA?G?B?$MA?L?5?$LN?G?F?P?G?O?$LP?$LE?$LN?$MA?$LE?O?$LE?Y?4?$AA@ ; `string'
PUBLIC	??_C@_0CH@PCFEJPNP@?$LO?w?$LH?N?$LF?e?G?R?5?$LM?$KN?$LJ?v?$LP?$KB?5?$LP?$KM?$LA?a?$MA?L?5?$LN?G?F?P?G?O?$LP?$LE?$LN@ ; `string'
PUBLIC	??_C@_0CI@MMNNEJCF@?$LO?w?$LH?N?$LF?e?G?R?5?$LM?$KN?$LJ?v?$LP?$KB?5?$MA?L?$LJ?L?5?$LP?$KM?$LA?a?$LF?G?$LO?n?5?$MA?V@ ; `string'
PUBLIC	??_C@_0BN@EIJJBCFC@ioFileWriteClient?3?3TempStart?$AA@ ; `string'
PUBLIC	??_C@_0CI@HFFFBAAO@?$LO?w?$LH?N?$LF?e?G?R?5?F?D?$MA?O?$MA?L?5?$MA?L?$LJ?L?5?$LP?$MA?G?B?$LF?G?$LO?n?5?$MA?V@ ; `string'
PUBLIC	??_C@_04HDOCAJNK@?$CFs?$CFs?$AA@		; `string'
PUBLIC	_szWriteFileName$GSCopy$
PUBLIC	__$ArrayPad$
PUBLIC	?TempStart@ioFileWriteClient@@QAE_NPBDK@Z	; ioFileWriteClient::TempStart
EXTRN	__imp__sprintf:PROC
;	COMDAT ??_C@_0CF@IFOBJEBC@?$LO?w?$LH?N?$LF?e?G?R?5?F?D?$MA?O?5?$MA?L?$LI?$KH?$MA?L?5?$MA?$NP?$LI?x?$LF?G?$LO?z?$LN?$MA?$LE@
; File d:\lost saga for developer\youtube\tutorial\source\src\lsclient\ioapplication.h
CONST	SEGMENT
??_C@_0CF@IFOBJEBC@?$LO?w?$LH?N?$LF?e?G?R?5?F?D?$MA?O?5?$MA?L?$LI?$KH?$MA?L?5?$MA?$NP?$LI?x?$LF?G?$LO?z?$LN?$MA?$LE@ DB 0beH
	DB	0f7H, 0b7H, 0ceH, 0b5H, 0e5H, 0c7H, 0d2H, ' ', 0c6H, 0c4H, 0c0H
	DB	0cfH, ' ', 0c0H, 0ccH, 0b8H, 0a7H, 0c0H, 0ccH, ' ', 0c0H, 0dfH
	DB	0b8H, 0f8H, 0b5H, 0c7H, 0beH, 0faH, 0bdH, 0c0H, 0b4H, 0cfH, 0b4H
	DB	0d9H, '.', 00H				; `string'
CONST	ENDS
;	COMDAT ??_C@_0CC@HNBBGJCC@?F?D?$MA?O?$MA?L?5?$CFd?$LJ?Y?$MA?L?F?$KO?$LI?$KG?5?C?J?$LA?z?G?O?$LP?$LE?$LN?$MA?$LE?O?$LE?Y@
CONST	SEGMENT
??_C@_0CC@HNBBGJCC@?F?D?$MA?O?$MA?L?5?$CFd?$LJ?Y?$MA?L?F?$KO?$LI?$KG?5?C?J?$LA?z?G?O?$LP?$LE?$LN?$MA?$LE?O?$LE?Y@ DB 0c6H
	DB	0c4H, 0c0H, 0cfH, 0c0H, 0ccH, ' %d', 0b9H, 0d9H, 0c0H, 0ccH, 0c6H
	DB	0aeH, 0b8H, 0a6H, ' ', 0c3H, 0caH, 0b0H, 0faH, 0c7H, 0cfH, 0bfH
	DB	0b4H, 0bdH, 0c0H, 0b4H, 0cfH, 0b4H, 0d9H, '.', 00H ; `string'
CONST	ENDS
;	COMDAT ??_C@_0BM@BJBJEINO@?F?D?$MA?O?5?$LP?$MA?G?B?$MA?L?5?$LN?G?F?P?G?O?$LP?$LE?$LN?$MA?$LE?O?$LE?Y?4?$AA@
CONST	SEGMENT
??_C@_0BM@BJBJEINO@?F?D?$MA?O?5?$LP?$MA?G?B?$MA?L?5?$LN?G?F?P?G?O?$LP?$LE?$LN?$MA?$LE?O?$LE?Y?4?$AA@ DB 0c6H
	DB	0c4H, 0c0H, 0cfH, ' ', 0bfH, 0c0H, 0c7H, 0c2H, 0c0H, 0ccH, ' ', 0bdH
	DB	0c7H, 0c6H, 0d0H, 0c7H, 0cfH, 0bfH, 0b4H, 0bdH, 0c0H, 0b4H, 0cfH
	DB	0b4H, 0d9H, '.', 00H				; `string'
CONST	ENDS
;	COMDAT ??_C@_0CH@PCFEJPNP@?$LO?w?$LH?N?$LF?e?G?R?5?$LM?$KN?$LJ?v?$LP?$KB?5?$LP?$KM?$LA?a?$MA?L?5?$LN?G?F?P?G?O?$LP?$LE?$LN@
CONST	SEGMENT
??_C@_0CH@PCFEJPNP@?$LO?w?$LH?N?$LF?e?G?R?5?$LM?$KN?$LJ?v?$LP?$KB?5?$LP?$KM?$LA?a?$MA?L?5?$LN?G?F?P?G?O?$LP?$LE?$LN@ DB 0beH
	DB	0f7H, 0b7H, 0ceH, 0b5H, 0e5H, 0c7H, 0d2H, ' ', 0bcH, 0adH, 0b9H
	DB	0f6H, 0bfH, 0a1H, ' ', 0bfH, 0acH, 0b0H, 0e1H, 0c0H, 0ccH, ' ', 0bdH
	DB	0c7H, 0c6H, 0d0H, 0c7H, 0cfH, 0bfH, 0b4H, 0bdH, 0c0H, 0b4H, 0cfH
	DB	0b4H, 0d9H, '.', 00H				; `string'
CONST	ENDS
;	COMDAT ??_C@_0CI@MMNNEJCF@?$LO?w?$LH?N?$LF?e?G?R?5?$LM?$KN?$LJ?v?$LP?$KB?5?$MA?L?$LJ?L?5?$LP?$KM?$LA?a?$LF?G?$LO?n?5?$MA?V@
CONST	SEGMENT
??_C@_0CI@MMNNEJCF@?$LO?w?$LH?N?$LF?e?G?R?5?$LM?$KN?$LJ?v?$LP?$KB?5?$MA?L?$LJ?L?5?$LP?$KM?$LA?a?$LF?G?$LO?n?5?$MA?V@ DB 0beH
	DB	0f7H, 0b7H, 0ceH, 0b5H, 0e5H, 0c7H, 0d2H, ' ', 0bcH, 0adH, 0b9H
	DB	0f6H, 0bfH, 0a1H, ' ', 0c0H, 0ccH, 0b9H, 0ccH, ' ', 0bfH, 0acH
	DB	0b0H, 0e1H, 0b5H, 0c7H, 0beH, 0eeH, ' ', 0c0H, 0d6H, 0bdH, 0c0H
	DB	0b4H, 0cfH, 0b4H, 0d9H, '.', 00H		; `string'
CONST	ENDS
;	COMDAT ??_C@_0BN@EIJJBCFC@ioFileWriteClient?3?3TempStart?$AA@
CONST	SEGMENT
??_C@_0BN@EIJJBCFC@ioFileWriteClient?3?3TempStart?$AA@ DB 'ioFileWriteCli'
	DB	'ent::TempStart', 00H			; `string'
CONST	ENDS
;	COMDAT ??_C@_0CI@HFFFBAAO@?$LO?w?$LH?N?$LF?e?G?R?5?F?D?$MA?O?$MA?L?5?$MA?L?$LJ?L?5?$LP?$MA?G?B?$LF?G?$LO?n?5?$MA?V@
CONST	SEGMENT
??_C@_0CI@HFFFBAAO@?$LO?w?$LH?N?$LF?e?G?R?5?F?D?$MA?O?$MA?L?5?$MA?L?$LJ?L?5?$LP?$MA?G?B?$LF?G?$LO?n?5?$MA?V@ DB 0beH
	DB	0f7H, 0b7H, 0ceH, 0b5H, 0e5H, 0c7H, 0d2H, ' ', 0c6H, 0c4H, 0c0H
	DB	0cfH, 0c0H, 0ccH, ' ', 0c0H, 0ccH, 0b9H, 0ccH, ' ', 0bfH, 0c0H
	DB	0c7H, 0c2H, 0b5H, 0c7H, 0beH, 0eeH, ' ', 0c0H, 0d6H, 0bdH, 0c0H
	DB	0b4H, 0cfH, 0b4H, 0d9H, '.', 00H		; `string'
CONST	ENDS
;	COMDAT ??_C@_04HDOCAJNK@?$CFs?$CFs?$AA@
CONST	SEGMENT
??_C@_04HDOCAJNK@?$CFs?$CFs?$AA@ DB '%s%s', 00H		; `string'
; Function compile flags: /Ogsp
; File d:\lost saga for developer\youtube\tutorial\source\src\lsclient\iofilewriteclient.cpp
CONST	ENDS
;	COMDAT ?TempStart@ioFileWriteClient@@QAE_NPBDK@Z
_TEXT	SEGMENT
$T510092 = -276						; size = 4
_dwCRC$ = -272						; size = 4
_szWriteFileName$GSCopy$ = -268				; size = 4
_szPath$ = -264						; size = 260
__$ArrayPad$ = -4					; size = 4
_szWriteFileName$ = 8					; size = 4
_dwMaxFileSize$ = 12					; size = 4
?TempStart@ioFileWriteClient@@QAE_NPBDK@Z PROC		; ioFileWriteClient::TempStart, COMDAT
; _this$ = ecx

; 512  : {

  00000	55		 push	 ebp
  00001	8b ec		 mov	 ebp, esp
  00003	81 ec 14 01 00
	00		 sub	 esp, 276		; 00000114H
  00009	a1 00 00 00 00	 mov	 eax, DWORD PTR ___security_cookie
  0000e	33 c5		 xor	 eax, ebp
  00010	89 45 fc	 mov	 DWORD PTR __$ArrayPad$[ebp], eax
  00013	53		 push	 ebx
  00014	56		 push	 esi
  00015	8b 75 08	 mov	 esi, DWORD PTR _szWriteFileName$[ebp]
  00018	57		 push	 edi

; 513  : 	char szPath[MAX_PATH] = "";

  00019	68 03 01 00 00	 push	 259			; 00000103H
  0001e	33 ff		 xor	 edi, edi
  00020	8d 85 f9 fe ff
	ff		 lea	 eax, DWORD PTR _szPath$[ebp+1]
  00026	57		 push	 edi
  00027	50		 push	 eax
  00028	8b d9		 mov	 ebx, ecx

; 578  : 	}
; 579  : 
; 580  : 	DWORD dwCRC = 0;

  0002a	89 b5 f4 fe ff
	ff		 mov	 DWORD PTR _szWriteFileName$GSCopy$[ebp], esi
  00030	c6 85 f8 fe ff
	ff 00		 mov	 BYTE PTR _szPath$[ebp], 0
  00037	e8 00 00 00 00	 call	 _memset
  0003c	83 c4 0c	 add	 esp, 12			; 0000000cH
  0003f	56		 push	 esi
  00040	8d 4b 68	 lea	 ecx, DWORD PTR [ebx+104]
  00043	ff 15 00 00 00
	00		 call	 DWORD PTR __imp_?c_str@ioHashString@@QBEPBDXZ
  00049	50		 push	 eax
  0004a	8d 85 f8 fe ff
	ff		 lea	 eax, DWORD PTR _szPath$[ebp]
  00050	68 00 00 00 00	 push	 OFFSET ??_C@_04HDOCAJNK@?$CFs?$CFs?$AA@
  00055	50		 push	 eax
  00056	ff 15 00 00 00
	00		 call	 DWORD PTR __imp__sprintf
  0005c	83 c4 10	 add	 esp, 16			; 00000010H
  0005f	39 7b 08	 cmp	 DWORD PTR [ebx+8], edi
  00062	74 28		 je	 SHORT $LN14@TempStart

; 514  : 	sprintf( szPath, "%s%s", m_szTempUploadDir.c_str(), szWriteFileName );
; 515  : 
; 516  : 	if( m_hFile )
; 517  : 	{
; 518  : 		if( Help::CheckEnableTimeGapUser2( 1 ) )

  00064	6a 01		 push	 1
  00066	e8 00 00 00 00	 call	 ?CheckEnableTimeGapUser2@Help@@YA_NH@Z ; Help::CheckEnableTimeGapUser2
  0006b	59		 pop	 ecx
  0006c	84 c0		 test	 al, al
  0006e	74 15		 je	 SHORT $LN13@TempStart

; 519  : 			LOG.PrintTimeAndLog( 0, "업로드할 파일이 이미 오픈되어 있습니다." );

  00070	68 00 00 00 00	 push	 OFFSET ??_C@_0CI@HFFFBAAO@?$LO?w?$LH?N?$LF?e?G?R?5?F?D?$MA?O?$MA?L?5?$MA?L?$LJ?L?5?$LP?$MA?G?B?$LF?G?$LO?n?5?$MA?V@
$LN22@TempStart:
  00075	57		 push	 edi
$LN23@TempStart:
  00076	ff 35 00 00 00
	00		 push	 DWORD PTR __imp_?LOG@@3VCLog@@A
  0007c	ff 15 00 00 00
	00		 call	 DWORD PTR __imp_?PrintTimeAndLog@CLog@@QAAXHPADZZ
  00082	83 c4 0c	 add	 esp, 12			; 0000000cH
$LN13@TempStart:

; 520  : 		return false;

  00085	32 c0		 xor	 al, al
  00087	e9 ee 01 00 00	 jmp	 $LN15@TempStart
$LN14@TempStart:

; 521  : 	}
; 522  : 
; 523  : 	if( !m_pSocket )

  0008c	8b 4b 04	 mov	 ecx, DWORD PTR [ebx+4]
  0008f	3b cf		 cmp	 ecx, edi
  00091	75 28		 jne	 SHORT $LN12@TempStart

; 524  : 	{
; 525  : 		if( Help::CheckEnableTimeGapUser2( 1 ) )

  00093	6a 01		 push	 1
  00095	e8 00 00 00 00	 call	 ?CheckEnableTimeGapUser2@Help@@YA_NH@Z ; Help::CheckEnableTimeGapUser2
  0009a	59		 pop	 ecx
  0009b	84 c0		 test	 al, al
  0009d	74 e6		 je	 SHORT $LN13@TempStart

; 526  : 			LOG.PrintTimeAndLog( 0, "%s Socket == NULL", __FUNCTION__ );

  0009f	68 00 00 00 00	 push	 OFFSET ??_C@_0BN@EIJJBCFC@ioFileWriteClient?3?3TempStart?$AA@
  000a4	68 00 00 00 00	 push	 OFFSET ??_C@_0BC@BMEBLLML@?$CFs?5Socket?5?$DN?$DN?5NULL?$AA@
$LN24@TempStart:
  000a9	57		 push	 edi
  000aa	ff 35 00 00 00
	00		 push	 DWORD PTR __imp_?LOG@@3VCLog@@A
  000b0	ff 15 00 00 00
	00		 call	 DWORD PTR __imp_?PrintTimeAndLog@CLog@@QAAXHPADZZ
  000b6	83 c4 10	 add	 esp, 16			; 00000010H

; 527  : 		return false;

  000b9	eb ca		 jmp	 SHORT $LN13@TempStart
$LN12@TempStart:

; 528  : 	}
; 529  : 
; 530  : 	if( m_pSocket->IsConnected() ) 

  000bb	ff 15 00 00 00
	00		 call	 DWORD PTR __imp_?IsConnected@ioClientTCPSocket@@QBE_NXZ
  000c1	84 c0		 test	 al, al
  000c3	74 13		 je	 SHORT $LN10@TempStart

; 531  : 	{
; 532  : 		if( Help::CheckEnableTimeGapUser2( 1 ) )

  000c5	6a 01		 push	 1
  000c7	e8 00 00 00 00	 call	 ?CheckEnableTimeGapUser2@Help@@YA_NH@Z ; Help::CheckEnableTimeGapUser2
  000cc	59		 pop	 ecx
  000cd	84 c0		 test	 al, al
  000cf	74 b4		 je	 SHORT $LN13@TempStart

; 533  : 			LOG.PrintTimeAndLog( 0, "업로드할 서버에 이미 연결되어 있습니다." );

  000d1	68 00 00 00 00	 push	 OFFSET ??_C@_0CI@MMNNEJCF@?$LO?w?$LH?N?$LF?e?G?R?5?$LM?$KN?$LJ?v?$LP?$KB?5?$MA?L?$LJ?L?5?$LP?$KM?$LA?a?$LF?G?$LO?n?5?$MA?V@

; 534  : 		return false;

  000d6	eb 9d		 jmp	 SHORT $LN22@TempStart
$LN10@TempStart:

; 535  : 	}
; 536  : 
; 537  : 	m_dwReturnParentID = 0;
; 538  : 	m_dwReturnID       = 0;
; 539  : 
; 540  : 	if( !m_pSocket->InitClientTCP( g_App.GetHWnd(), m_pSocket->GetProcID(), m_szServerIP.c_str(), m_iServerPort ) )

  000d8	8b 43 04	 mov	 eax, DWORD PTR [ebx+4]
  000db	89 7b 48	 mov	 DWORD PTR [ebx+72], edi
  000de	89 7b 4c	 mov	 DWORD PTR [ebx+76], edi
  000e1	8b b0 2c 01 00
	00		 mov	 esi, DWORD PTR [eax+300]
  000e7	e8 00 00 00 00	 call	 ?GetSingleton@ioApplication@@SAAAV1@XZ ; ioApplication::GetSingleton
  000ec	8b 40 08	 mov	 eax, DWORD PTR [eax+8]
  000ef	ff 73 44	 push	 DWORD PTR [ebx+68]
  000f2	8d 4b 34	 lea	 ecx, DWORD PTR [ebx+52]
  000f5	89 85 ec fe ff
	ff		 mov	 DWORD PTR $T510092[ebp], eax
  000fb	ff 15 00 00 00
	00		 call	 DWORD PTR __imp_?c_str@ioHashString@@QBEPBDXZ
  00101	8b 4b 04	 mov	 ecx, DWORD PTR [ebx+4]
  00104	50		 push	 eax
  00105	56		 push	 esi
  00106	ff b5 ec fe ff
	ff		 push	 DWORD PTR $T510092[ebp]
  0010c	ff 15 00 00 00
	00		 call	 DWORD PTR __imp_?InitClientTCP@ioClientTCPSocket@@QAE_NPAUHWND__@@IPBDH@Z
  00112	84 c0		 test	 al, al
  00114	75 50		 jne	 SHORT $LN8@TempStart

; 541  : 	{
; 542  : 		InitData();

  00116	8b cb		 mov	 ecx, ebx
  00118	e8 00 00 00 00	 call	 ?InitData@ioFileWriteClient@@IAEXXZ ; ioFileWriteClient::InitData

; 543  : 		if( Help::CheckEnableTimeGapUser2( 1 ) )

  0011d	6a 01		 push	 1
  0011f	e8 00 00 00 00	 call	 ?CheckEnableTimeGapUser2@Help@@YA_NH@Z ; Help::CheckEnableTimeGapUser2
  00124	59		 pop	 ecx
  00125	84 c0		 test	 al, al
  00127	0f 84 58 ff ff
	ff		 je	 $LN13@TempStart

; 544  : 		{
; 545  : 			LOG.PrintTimeAndLog( 0, "업로드할 서버에 연결이 실패하였습니다." );

  0012d	8b 35 00 00 00
	00		 mov	 esi, DWORD PTR __imp_?PrintTimeAndLog@CLog@@QAAXHPADZZ
  00133	68 00 00 00 00	 push	 OFFSET ??_C@_0CH@PCFEJPNP@?$LO?w?$LH?N?$LF?e?G?R?5?$LM?$KN?$LJ?v?$LP?$KB?5?$LP?$KM?$LA?a?$MA?L?5?$LN?G?F?P?G?O?$LP?$LE?$LN@
  00138	57		 push	 edi
  00139	ff 35 00 00 00
	00		 push	 DWORD PTR __imp_?LOG@@3VCLog@@A
  0013f	ff d6		 call	 esi
  00141	83 c4 0c	 add	 esp, 12			; 0000000cH

; 546  : 			LOG.PrintTimeAndLog( 0, "%s - TCP Socket Failed(%d)", __FUNCTION__, WSAGetLastError() );

  00144	ff 15 00 00 00
	00		 call	 DWORD PTR __imp__WSAGetLastError@0
  0014a	50		 push	 eax
  0014b	68 00 00 00 00	 push	 OFFSET ??_C@_0BN@EIJJBCFC@ioFileWriteClient?3?3TempStart?$AA@
  00150	68 00 00 00 00	 push	 OFFSET ??_C@_0BL@NDJGNIF@?$CFs?5?9?5TCP?5Socket?5Failed?$CI?$CFd?$CJ?$AA@
  00155	57		 push	 edi
  00156	ff 35 00 00 00
	00		 push	 DWORD PTR __imp_?LOG@@3VCLog@@A
  0015c	ff d6		 call	 esi
  0015e	83 c4 14	 add	 esp, 20			; 00000014H

; 547  : 		}
; 548  : 		return false;

  00161	e9 1f ff ff ff	 jmp	 $LN13@TempStart
$LN8@TempStart:

; 549  : 	}
; 550  : 
; 551  : 	m_hFile = CreateFile( szPath, GENERIC_READ, FILE_SHARE_READ, NULL, OPEN_EXISTING, FILE_ATTRIBUTE_NORMAL, NULL );

  00166	57		 push	 edi
  00167	68 80 00 00 00	 push	 128			; 00000080H
  0016c	6a 03		 push	 3
  0016e	57		 push	 edi
  0016f	6a 01		 push	 1
  00171	68 00 00 00 80	 push	 -2147483648		; 80000000H
  00176	8d 85 f8 fe ff
	ff		 lea	 eax, DWORD PTR _szPath$[ebp]
  0017c	50		 push	 eax
  0017d	ff 15 00 00 00
	00		 call	 DWORD PTR __imp__CreateFileA@28
  00183	89 43 08	 mov	 DWORD PTR [ebx+8], eax

; 552  : 	if ( m_hFile == INVALID_HANDLE_VALUE )

  00186	83 f8 ff	 cmp	 eax, -1
  00189	75 21		 jne	 SHORT $LN6@TempStart

; 553  : 	{
; 554  : 		InitData();

  0018b	8b cb		 mov	 ecx, ebx
  0018d	e8 00 00 00 00	 call	 ?InitData@ioFileWriteClient@@IAEXXZ ; ioFileWriteClient::InitData

; 555  : 
; 556  : 		if( Help::CheckEnableTimeGapUser2( 1 ) )

  00192	6a 01		 push	 1
  00194	e8 00 00 00 00	 call	 ?CheckEnableTimeGapUser2@Help@@YA_NH@Z ; Help::CheckEnableTimeGapUser2
  00199	59		 pop	 ecx
  0019a	84 c0		 test	 al, al
  0019c	0f 84 e3 fe ff
	ff		 je	 $LN13@TempStart

; 557  : 			LOG.PrintTimeAndLog( 0, "파일 오픈이 실패하였습니다." );

  001a2	68 00 00 00 00	 push	 OFFSET ??_C@_0BM@BJBJEINO@?F?D?$MA?O?5?$LP?$MA?G?B?$MA?L?5?$LN?G?F?P?G?O?$LP?$LE?$LN?$MA?$LE?O?$LE?Y?4?$AA@

; 558  : 		return false;

  001a7	e9 c9 fe ff ff	 jmp	 $LN22@TempStart
$LN6@TempStart:

; 559  : 	}
; 560  : 
; 561  : 	m_dwFileSize = GetFileSize( m_hFile, NULL );

  001ac	57		 push	 edi
  001ad	50		 push	 eax
  001ae	ff 15 00 00 00
	00		 call	 DWORD PTR __imp__GetFileSize@8
  001b4	89 43 0c	 mov	 DWORD PTR [ebx+12], eax

; 562  : 	if( m_dwFileSize > dwMaxFileSize )

  001b7	3b 45 0c	 cmp	 eax, DWORD PTR _dwMaxFileSize$[ebp]
  001ba	76 24		 jbe	 SHORT $LN4@TempStart

; 563  : 	{
; 564  : 		InitData();

  001bc	8b cb		 mov	 ecx, ebx
  001be	e8 00 00 00 00	 call	 ?InitData@ioFileWriteClient@@IAEXXZ ; ioFileWriteClient::InitData

; 565  : 
; 566  : 		if( Help::CheckEnableTimeGapUser2( 1 ) )

  001c3	6a 01		 push	 1
  001c5	e8 00 00 00 00	 call	 ?CheckEnableTimeGapUser2@Help@@YA_NH@Z ; Help::CheckEnableTimeGapUser2
  001ca	59		 pop	 ecx
  001cb	84 c0		 test	 al, al
  001cd	0f 84 b2 fe ff
	ff		 je	 $LN13@TempStart

; 567  : 			LOG.PrintTimeAndLog( 0, "파일이 %d바이트를 초과하였습니다.", dwMaxFileSize );

  001d3	ff 75 0c	 push	 DWORD PTR _dwMaxFileSize$[ebp]
  001d6	68 00 00 00 00	 push	 OFFSET ??_C@_0CC@HNBBGJCC@?F?D?$MA?O?$MA?L?5?$CFd?$LJ?Y?$MA?L?F?$KO?$LI?$KG?5?C?J?$LA?z?G?O?$LP?$LE?$LN?$MA?$LE?O?$LE?Y@

; 568  : 		return false;

  001db	e9 c9 fe ff ff	 jmp	 $LN24@TempStart
$LN4@TempStart:

; 569  : 	}
; 570  : 	
; 571  : 	if( strcmp( szWriteFileName, "" ) == 0 )

  001e0	8b b5 f4 fe ff
	ff		 mov	 esi, DWORD PTR _szWriteFileName$GSCopy$[ebp]
  001e6	33 c9		 xor	 ecx, ecx
  001e8	41		 inc	 ecx
  001e9	bf 00 00 00 00	 mov	 edi, OFFSET ??_C@_00CNPNBAHC@?$AA@
  001ee	33 c0		 xor	 eax, eax
  001f0	f3 a6		 repe cmpsb
  001f2	75 23		 jne	 SHORT $LN2@TempStart

; 572  : 	{
; 573  : 		InitData();

  001f4	8b cb		 mov	 ecx, ebx
  001f6	e8 00 00 00 00	 call	 ?InitData@ioFileWriteClient@@IAEXXZ ; ioFileWriteClient::InitData

; 574  : 
; 575  : 		if( Help::CheckEnableTimeGapUser2( 1 ) )

  001fb	6a 01		 push	 1
  001fd	e8 00 00 00 00	 call	 ?CheckEnableTimeGapUser2@Help@@YA_NH@Z ; Help::CheckEnableTimeGapUser2
  00202	59		 pop	 ecx
  00203	84 c0		 test	 al, al
  00205	0f 84 7a fe ff
	ff		 je	 $LN13@TempStart

; 576  : 			LOG.PrintTimeAndLog( 0, "업로드할 파일 이름이 잘못되었습니다." );

  0020b	68 00 00 00 00	 push	 OFFSET ??_C@_0CF@IFOBJEBC@?$LO?w?$LH?N?$LF?e?G?R?5?F?D?$MA?O?5?$MA?L?$LI?$KH?$MA?L?5?$MA?$NP?$LI?x?$LF?G?$LO?z?$LN?$MA?$LE@
  00210	6a 00		 push	 0

; 577  : 		return false;

  00212	e9 5f fe ff ff	 jmp	 $LN23@TempStart
$LN2@TempStart:

; 581  : 	CCrc32Static::FileCrc32Streams( szPath, dwCRC );

  00217	8d 85 f0 fe ff
	ff		 lea	 eax, DWORD PTR _dwCRC$[ebp]
  0021d	50		 push	 eax
  0021e	8d 85 f8 fe ff
	ff		 lea	 eax, DWORD PTR _szPath$[ebp]
  00224	33 f6		 xor	 esi, esi
  00226	50		 push	 eax
  00227	89 b5 f0 fe ff
	ff		 mov	 DWORD PTR _dwCRC$[ebp], esi
  0022d	e8 00 00 00 00	 call	 ?FileCrc32Streams@CCrc32Static@@SAKPBDAAK@Z ; CCrc32Static::FileCrc32Streams

; 582  : 
; 583  : 	m_dwFileCRC       = dwCRC;

  00232	8b 85 f0 fe ff
	ff		 mov	 eax, DWORD PTR _dwCRC$[ebp]
  00238	59		 pop	 ecx
  00239	59		 pop	 ecx

; 584  : 	m_szWriteFileName = szWriteFileName;

  0023a	ff b5 f4 fe ff
	ff		 push	 DWORD PTR _szWriteFileName$GSCopy$[ebp]
  00240	8d 4b 1c	 lea	 ecx, DWORD PTR [ebx+28]
  00243	89 43 18	 mov	 DWORD PTR [ebx+24], eax
  00246	ff 15 00 00 00
	00		 call	 DWORD PTR __imp_??4ioHashString@@QAEAAV0@PBD@Z

; 585  : 	m_dwFileWidth     = 0;
; 586  : 	m_dwFileHeight    = 0;
; 587  : 	m_dwReadSize      = 0;
; 588  : 
; 589  : 	g_App.SetMouseBusy( true );

  0024c	6a 01		 push	 1
  0024e	89 73 2c	 mov	 DWORD PTR [ebx+44], esi
  00251	89 73 30	 mov	 DWORD PTR [ebx+48], esi
  00254	89 73 10	 mov	 DWORD PTR [ebx+16], esi
  00257	e8 00 00 00 00	 call	 ?GetSingleton@ioApplication@@SAAAV1@XZ ; ioApplication::GetSingleton
  0025c	8b c8		 mov	 ecx, eax
  0025e	e8 00 00 00 00	 call	 ?SetMouseBusy@ioApplication@@QAEX_N@Z ; ioApplication::SetMouseBusy

; 590  : 	m_dwConnectCheckTime = REALGETTIME();

  00263	ff 15 00 00 00
	00		 call	 DWORD PTR __imp_?GetSingleton@ioFrameTimer@@SAAAV1@XZ
  00269	8b c8		 mov	 ecx, eax
  0026b	ff 15 00 00 00
	00		 call	 DWORD PTR __imp_?GetTotalSec@ioFrameTimer@@QAEKXZ
  00271	89 43 50	 mov	 DWORD PTR [ebx+80], eax

; 591  : 	m_bTempSend = true;

  00274	c6 43 7c 01	 mov	 BYTE PTR [ebx+124], 1

; 592  : 	return true;

  00278	b0 01		 mov	 al, 1
$LN15@TempStart:

; 593  : }

  0027a	8b 4d fc	 mov	 ecx, DWORD PTR __$ArrayPad$[ebp]
  0027d	5f		 pop	 edi
  0027e	5e		 pop	 esi
  0027f	33 cd		 xor	 ecx, ebp
  00281	5b		 pop	 ebx
  00282	e8 00 00 00 00	 call	 @__security_check_cookie@4
  00287	c9		 leave
  00288	c2 08 00	 ret	 8
?TempStart@ioFileWriteClient@@QAE_NPBDK@Z ENDP		; ioFileWriteClient::TempStart
_TEXT	ENDS
PUBLIC	??_C@_0CD@GHAIAKEK@ioFileWriteClient?3?3ProcessTempSe@ ; `string'
PUBLIC	??_C@_0CL@FLJKAJL@?F?D?$MA?O?5?$LO?w?$LH?N?$LF?e?5?A?$NP?5?F?D?$MA?O?5?$MA?P?$LB?b?$LP?$KB?5?$LN?G?F?P?G@ ; `string'
PUBLIC	??_C@_0CN@LKNJCPAL@?F?D?$MA?O?5?$LO?w?$LH?N?$LF?e?5?A?$NP?5?F?D?$MA?O?5?D?A?F?$KO?$LH?Q?$LP?$KB?5?$LN?G?F@ ; `string'
PUBLIC	__$ArrayPad$
PUBLIC	?ProcessTempSend@ioFileWriteClient@@QAEXXZ	; ioFileWriteClient::ProcessTempSend
;	COMDAT ??_C@_0CD@GHAIAKEK@ioFileWriteClient?3?3ProcessTempSe@
CONST	SEGMENT
??_C@_0CD@GHAIAKEK@ioFileWriteClient?3?3ProcessTempSe@ DB 'ioFileWriteCli'
	DB	'ent::ProcessTempSend', 00H			; `string'
CONST	ENDS
;	COMDAT ??_C@_0CL@FLJKAJL@?F?D?$MA?O?5?$LO?w?$LH?N?$LF?e?5?A?$NP?5?F?D?$MA?O?5?$MA?P?$LB?b?$LP?$KB?5?$LN?G?F?P?G@
CONST	SEGMENT
??_C@_0CL@FLJKAJL@?F?D?$MA?O?5?$LO?w?$LH?N?$LF?e?5?A?$NP?5?F?D?$MA?O?5?$MA?P?$LB?b?$LP?$KB?5?$LN?G?F?P?G@ DB 0c6H
	DB	0c4H, 0c0H, 0cfH, ' ', 0beH, 0f7H, 0b7H, 0ceH, 0b5H, 0e5H, ' ', 0c1H
	DB	0dfH, ' ', 0c6H, 0c4H, 0c0H, 0cfH, ' ', 0c0H, 0d0H, 0b1H, 0e2H
	DB	0bfH, 0a1H, ' ', 0bdH, 0c7H, 0c6H, 0d0H, 0c7H, 0cfH, 0bfH, 0b4H
	DB	0bdH, 0c0H, 0b4H, 0cfH, 0b4H, 0d9H, '.', 00H	; `string'
CONST	ENDS
;	COMDAT ??_C@_0CN@LKNJCPAL@?F?D?$MA?O?5?$LO?w?$LH?N?$LF?e?5?A?$NP?5?F?D?$MA?O?5?D?A?F?$KO?$LH?Q?$LP?$KB?5?$LN?G?F@
CONST	SEGMENT
??_C@_0CN@LKNJCPAL@?F?D?$MA?O?5?$LO?w?$LH?N?$LF?e?5?A?$NP?5?F?D?$MA?O?5?D?A?F?$KO?$LH?Q?$LP?$KB?5?$LN?G?F@ DB 0c6H
	DB	0c4H, 0c0H, 0cfH, ' ', 0beH, 0f7H, 0b7H, 0ceH, 0b5H, 0e5H, ' ', 0c1H
	DB	0dfH, ' ', 0c6H, 0c4H, 0c0H, 0cfH, ' ', 0c4H, 0c1H, 0c6H, 0aeH
	DB	0b7H, 0d1H, 0bfH, 0a1H, ' ', 0bdH, 0c7H, 0c6H, 0d0H, 0c7H, 0cfH
	DB	0bfH, 0b4H, 0bdH, 0c0H, 0b4H, 0cfH, 0b4H, 0d9H, '.', 00H ; `string'
CONST	ENDS
;	COMDAT xdata$x
xdata$x	SEGMENT
__unwindtable$?ProcessTempSend@ioFileWriteClient@@QAEXXZ DD 0ffffffffH
	DD	FLAT:__unwindfunclet$?ProcessTempSend@ioFileWriteClient@@QAEXXZ$0
	DD	0ffffffffH
	DD	FLAT:__unwindfunclet$?ProcessTempSend@ioFileWriteClient@@QAEXXZ$1
	DD	0ffffffffH
	DD	FLAT:__unwindfunclet$?ProcessTempSend@ioFileWriteClient@@QAEXXZ$2
	DD	0ffffffffH
	DD	FLAT:__unwindfunclet$?ProcessTempSend@ioFileWriteClient@@QAEXXZ$3
__ehfuncinfo$?ProcessTempSend@ioFileWriteClient@@QAEXXZ DD 019930522H
	DD	04H
	DD	FLAT:__unwindtable$?ProcessTempSend@ioFileWriteClient@@QAEXXZ
	DD	2 DUP(00H)
	DD	2 DUP(00H)
	DD	00H
	DD	01H
; Function compile flags: /Ogsp
xdata$x	ENDS
;	COMDAT ?ProcessTempSend@ioFileWriteClient@@QAEXXZ
_TEXT	SEGMENT
_dwRead$ = -66116					; size = 4
_kPacket$507819 = -66112				; size = 32792
_kPacket$507817 = -33320				; size = 32812
_kPacket$507813 = -33320				; size = 32792
_kPacket$507807 = -33320				; size = 32792
_kFile$ = -528						; size = 512
__$ArrayPad$ = -16					; size = 4
__$EHRec$ = -12						; size = 12
?ProcessTempSend@ioFileWriteClient@@QAEXXZ PROC		; ioFileWriteClient::ProcessTempSend, COMDAT
; _this$ = ecx

; 619  : {

  00000	55		 push	 ebp
  00001	8b ec		 mov	 ebp, esp
  00003	6a ff		 push	 -1
  00005	68 00 00 00 00	 push	 __ehhandler$?ProcessTempSend@ioFileWriteClient@@QAEXXZ
  0000a	64 a1 00 00 00
	00		 mov	 eax, DWORD PTR fs:0
  00010	50		 push	 eax
  00011	b8 38 02 01 00	 mov	 eax, 66104		; 00010238H
  00016	e8 00 00 00 00	 call	 __chkstk
  0001b	a1 00 00 00 00	 mov	 eax, DWORD PTR ___security_cookie
  00020	33 c5		 xor	 eax, ebp
  00022	89 45 f0	 mov	 DWORD PTR __$ArrayPad$[ebp], eax
  00025	53		 push	 ebx
  00026	56		 push	 esi
  00027	57		 push	 edi
  00028	50		 push	 eax
  00029	8d 45 f4	 lea	 eax, DWORD PTR __$EHRec$[ebp]
  0002c	64 a3 00 00 00
	00		 mov	 DWORD PTR fs:0, eax
  00032	8b f1		 mov	 esi, ecx

; 620  : 	ProcessConnectCheck();

  00034	e8 00 00 00 00	 call	 ?ProcessConnectCheck@ioFileWriteClient@@IAEXXZ ; ioFileWriteClient::ProcessConnectCheck

; 621  : 
; 622  : 	if( !m_dwWriteSendTime || !m_bTempSend )

  00039	83 7e 14 00	 cmp	 DWORD PTR [esi+20], 0
  0003d	0f 84 38 02 00
	00		 je	 $LN10@ProcessTem
  00043	80 7e 7c 00	 cmp	 BYTE PTR [esi+124], 0
  00047	0f 84 2e 02 00
	00		 je	 $LN10@ProcessTem

; 623  : 		return;
; 624  : 
; 625  : 	enum { WRITE_SEND_TIME = 100, };
; 626  : 	if( REALGETTIME() - m_dwWriteSendTime < WRITE_SEND_TIME )

  0004d	8b 3d 00 00 00
	00		 mov	 edi, DWORD PTR __imp_?GetSingleton@ioFrameTimer@@SAAAV1@XZ
  00053	ff d7		 call	 edi
  00055	8b 1d 00 00 00
	00		 mov	 ebx, DWORD PTR __imp_?GetTotalSec@ioFrameTimer@@QAEKXZ
  0005b	8b c8		 mov	 ecx, eax
  0005d	ff d3		 call	 ebx
  0005f	2b 46 14	 sub	 eax, DWORD PTR [esi+20]
  00062	83 f8 64	 cmp	 eax, 100		; 00000064H
  00065	0f 82 10 02 00
	00		 jb	 $LN10@ProcessTem

; 627  : 		return;
; 628  : 	m_dwWriteSendTime = REALGETTIME();

  0006b	ff d7		 call	 edi
  0006d	8b c8		 mov	 ecx, eax
  0006f	ff d3		 call	 ebx

; 629  : 
; 630  : 	if( !m_hFile )

  00071	8b 5e 08	 mov	 ebx, DWORD PTR [esi+8]
  00074	89 46 14	 mov	 DWORD PTR [esi+20], eax
  00077	85 db		 test	 ebx, ebx
  00079	75 66		 jne	 SHORT $LN8@ProcessTem

; 631  : 	{
; 632  : 		SP2Packet kPacket( CFTPK_ALL_FILE_WRITE );

  0007b	68 02 20 01 00	 push	 73730			; 00012002H
  00080	8d 8d d8 7d ff
	ff		 lea	 ecx, DWORD PTR _kPacket$507807[ebp]
  00086	e8 00 00 00 00	 call	 ??0SP2Packet@@QAE@K@Z	; SP2Packet::SP2Packet
  0008b	21 5d fc	 and	 DWORD PTR __$EHRec$[ebp+8], ebx

; 633  : 		kPacket << FILE_WRITE_PROCESS_ERROR;

  0008e	6a 04		 push	 4
  00090	8d 8d d8 7d ff
	ff		 lea	 ecx, DWORD PTR _kPacket$507807[ebp]
  00096	e8 00 00 00 00	 call	 ??6SP2Packet@@QAEAAV0@H@Z ; SP2Packet::operator<<

; 634  : 		SendLoop( kPacket );

  0009b	8b 4e 04	 mov	 ecx, DWORD PTR [esi+4]
  0009e	85 c9		 test	 ecx, ecx
  000a0	74 0b		 je	 SHORT $LN18@ProcessTem
  000a2	8b 01		 mov	 eax, DWORD PTR [ecx]
  000a4	8d 95 d8 7d ff
	ff		 lea	 edx, DWORD PTR _kPacket$507807[ebp]
  000aa	52		 push	 edx
  000ab	ff 10		 call	 DWORD PTR [eax]
$LN18@ProcessTem:

; 635  : 
; 636  : 		if( Help::CheckEnableTimeGapUser2( 1 ) )

  000ad	6a 01		 push	 1
  000af	e8 00 00 00 00	 call	 ?CheckEnableTimeGapUser2@Help@@YA_NH@Z ; Help::CheckEnableTimeGapUser2
  000b4	59		 pop	 ecx
  000b5	84 c0		 test	 al, al
  000b7	74 16		 je	 SHORT $LN7@ProcessTem

; 637  : 			LOG.PrintTimeAndLog( 0, "파일 업로드 중 파일 컨트롤에 실패하였습니다." );

  000b9	68 00 00 00 00	 push	 OFFSET ??_C@_0CN@LKNJCPAL@?F?D?$MA?O?5?$LO?w?$LH?N?$LF?e?5?A?$NP?5?F?D?$MA?O?5?D?A?F?$KO?$LH?Q?$LP?$KB?5?$LN?G?F@
$LN34@ProcessTem:
  000be	6a 00		 push	 0
  000c0	ff 35 00 00 00
	00		 push	 DWORD PTR __imp_?LOG@@3VCLog@@A
  000c6	ff 15 00 00 00
	00		 call	 DWORD PTR __imp_?PrintTimeAndLog@CLog@@QAAXHPADZZ
  000cc	83 c4 0c	 add	 esp, 12			; 0000000cH
$LN7@ProcessTem:

; 638  : 		InitData();

  000cf	8b ce		 mov	 ecx, esi
  000d1	e8 00 00 00 00	 call	 ?InitData@ioFileWriteClient@@IAEXXZ ; ioFileWriteClient::InitData

; 664  : 		SendLoop( kPacket );

$LN26@ProcessTem:

; 639  : 		return;

  000d6	8d 8d d8 7d ff
	ff		 lea	 ecx, DWORD PTR _kPacket$507807[ebp]
  000dc	e9 91 01 00 00	 jmp	 $LN33@ProcessTem
$LN8@ProcessTem:

; 640  : 	}
; 641  : 
; 642  : 	FilePacket kFile;

  000e1	bf 00 02 00 00	 mov	 edi, 512		; 00000200H
  000e6	57		 push	 edi
  000e7	8d 85 f0 fd ff
	ff		 lea	 eax, DWORD PTR _kFile$[ebp]
  000ed	6a 00		 push	 0
  000ef	50		 push	 eax
  000f0	e8 00 00 00 00	 call	 _memset

; 643  : 	DWORD dwRead = 0;

  000f5	83 a5 bc fd fe
	ff 00		 and	 DWORD PTR _dwRead$[ebp], 0
  000fc	83 c4 0c	 add	 esp, 12			; 0000000cH

; 644  : 	if( !ReadFile( m_hFile, kFile.m_FilePacket, sizeof(kFile.m_FilePacket), &dwRead, NULL) )

  000ff	6a 00		 push	 0
  00101	8d 85 bc fd fe
	ff		 lea	 eax, DWORD PTR _dwRead$[ebp]
  00107	50		 push	 eax
  00108	57		 push	 edi
  00109	8d 85 f0 fd ff
	ff		 lea	 eax, DWORD PTR _kFile$[ebp]
  0010f	50		 push	 eax
  00110	53		 push	 ebx
  00111	ff 15 00 00 00
	00		 call	 DWORD PTR __imp__ReadFile@20
  00117	85 c0		 test	 eax, eax
  00119	75 4e		 jne	 SHORT $LN6@ProcessTem

; 645  : 	{
; 646  : 		SP2Packet kPacket( CFTPK_ALL_FILE_WRITE );

  0011b	68 02 20 01 00	 push	 73730			; 00012002H
  00120	8d 8d d8 7d ff
	ff		 lea	 ecx, DWORD PTR _kPacket$507813[ebp]
  00126	e8 00 00 00 00	 call	 ??0SP2Packet@@QAE@K@Z	; SP2Packet::SP2Packet
  0012b	33 ff		 xor	 edi, edi
  0012d	47		 inc	 edi

; 647  : 		kPacket << FILE_WRITE_PROCESS_ERROR;

  0012e	6a 04		 push	 4
  00130	8d 8d d8 7d ff
	ff		 lea	 ecx, DWORD PTR _kPacket$507813[ebp]
  00136	89 7d fc	 mov	 DWORD PTR __$EHRec$[ebp+8], edi
  00139	e8 00 00 00 00	 call	 ??6SP2Packet@@QAEAAV0@H@Z ; SP2Packet::operator<<

; 648  : 		SendLoop( kPacket );

  0013e	8b 4e 04	 mov	 ecx, DWORD PTR [esi+4]
  00141	85 c9		 test	 ecx, ecx
  00143	74 0b		 je	 SHORT $LN23@ProcessTem
  00145	8b 01		 mov	 eax, DWORD PTR [ecx]
  00147	8d 95 d8 7d ff
	ff		 lea	 edx, DWORD PTR _kPacket$507813[ebp]
  0014d	52		 push	 edx
  0014e	ff 10		 call	 DWORD PTR [eax]
$LN23@ProcessTem:

; 649  : 
; 650  : 		if( Help::CheckEnableTimeGapUser2( 1 ) )

  00150	57		 push	 edi
  00151	e8 00 00 00 00	 call	 ?CheckEnableTimeGapUser2@Help@@YA_NH@Z ; Help::CheckEnableTimeGapUser2
  00156	59		 pop	 ecx
  00157	84 c0		 test	 al, al
  00159	0f 84 70 ff ff
	ff		 je	 $LN7@ProcessTem

; 651  : 			LOG.PrintTimeAndLog( 0, "파일 업로드 중 파일 읽기에 실패하였습니다." );

  0015f	68 00 00 00 00	 push	 OFFSET ??_C@_0CL@FLJKAJL@?F?D?$MA?O?5?$LO?w?$LH?N?$LF?e?5?A?$NP?5?F?D?$MA?O?5?$MA?P?$LB?b?$LP?$KB?5?$LN?G?F?P?G@

; 652  : 		InitData();
; 653  : 		return;

  00164	e9 55 ff ff ff	 jmp	 $LN34@ProcessTem
$LN6@ProcessTem:

; 654  : 	}
; 655  : 
; 656  : 	m_dwReadSize += dwRead;

  00169	8b 85 bc fd fe
	ff		 mov	 eax, DWORD PTR _dwRead$[ebp]
  0016f	01 46 10	 add	 DWORD PTR [esi+16], eax
  00172	8b 46 10	 mov	 eax, DWORD PTR [esi+16]

; 657  : 
; 658  : 	if( m_dwReadSize < m_dwFileSize )

  00175	3b 46 0c	 cmp	 eax, DWORD PTR [esi+12]
  00178	73 62		 jae	 SHORT $LN4@ProcessTem

; 659  : 	{
; 660  : 		SP2Packet kPacket( CFTPK_ALL_FILE_WRITE );

  0017a	68 02 20 01 00	 push	 73730			; 00012002H
  0017f	8d 8d d8 7d ff
	ff		 lea	 ecx, DWORD PTR _kPacket$507817[ebp]
  00185	e8 00 00 00 00	 call	 ??0SP2Packet@@QAE@K@Z	; SP2Packet::SP2Packet
  0018a	6a 02		 push	 2
  0018c	58		 pop	 eax

; 661  : 		kPacket << FILE_WRITE_PROCESS;

  0018d	50		 push	 eax
  0018e	8d 8d d8 7d ff
	ff		 lea	 ecx, DWORD PTR _kPacket$507817[ebp]
  00194	89 45 fc	 mov	 DWORD PTR __$EHRec$[ebp+8], eax
  00197	e8 00 00 00 00	 call	 ??6SP2Packet@@QAEAAV0@H@Z ; SP2Packet::operator<<

; 662  : 		kPacket << dwRead;

  0019c	ff b5 bc fd fe
	ff		 push	 DWORD PTR _dwRead$[ebp]
  001a2	8d 8d d8 7d ff
	ff		 lea	 ecx, DWORD PTR _kPacket$507817[ebp]
  001a8	e8 00 00 00 00	 call	 ??6SP2Packet@@QAEAAV0@K@Z ; SP2Packet::operator<<

; 663  : 		kPacket << kFile;

  001ad	8d 85 f0 fd ff
	ff		 lea	 eax, DWORD PTR _kFile$[ebp]
  001b3	50		 push	 eax
  001b4	8d 8d d8 7d ff
	ff		 lea	 ecx, DWORD PTR _kPacket$507817[ebp]
  001ba	e8 00 00 00 00	 call	 ??6SP2Packet@@QAEAAV0@ABUtagFilePacket@@@Z ; SP2Packet::operator<<

; 664  : 		SendLoop( kPacket );

  001bf	8b 76 04	 mov	 esi, DWORD PTR [esi+4]
  001c2	85 f6		 test	 esi, esi
  001c4	0f 84 0c ff ff
	ff		 je	 $LN26@ProcessTem
  001ca	8b 06		 mov	 eax, DWORD PTR [esi]
  001cc	8d 8d d8 7d ff
	ff		 lea	 ecx, DWORD PTR _kPacket$507817[ebp]
  001d2	51		 push	 ecx
  001d3	8b ce		 mov	 ecx, esi
  001d5	ff 10		 call	 DWORD PTR [eax]

; 665  : 	}
; 666  : 	else

  001d7	e9 fa fe ff ff	 jmp	 $LN26@ProcessTem
$LN4@ProcessTem:

; 667  : 	{
; 668  : 		InitData();

  001dc	8b ce		 mov	 ecx, esi
  001de	e8 00 00 00 00	 call	 ?InitData@ioFileWriteClient@@IAEXXZ ; ioFileWriteClient::InitData

; 669  : 		SP2Packet kPacket( CFTPK_ALL_FILE_WRITE );

  001e3	68 02 20 01 00	 push	 73730			; 00012002H
  001e8	8d 8d c0 fd fe
	ff		 lea	 ecx, DWORD PTR _kPacket$507819[ebp]
  001ee	e8 00 00 00 00	 call	 ??0SP2Packet@@QAE@K@Z	; SP2Packet::SP2Packet
  001f3	6a 03		 push	 3
  001f5	58		 pop	 eax

; 670  : 		kPacket << FILE_WRITE_END;

  001f6	50		 push	 eax
  001f7	8d 8d c0 fd fe
	ff		 lea	 ecx, DWORD PTR _kPacket$507819[ebp]
  001fd	89 45 fc	 mov	 DWORD PTR __$EHRec$[ebp+8], eax
  00200	e8 00 00 00 00	 call	 ??6SP2Packet@@QAEAAV0@H@Z ; SP2Packet::operator<<

; 671  : 		kPacket << dwRead;

  00205	ff b5 bc fd fe
	ff		 push	 DWORD PTR _dwRead$[ebp]
  0020b	8d 8d c0 fd fe
	ff		 lea	 ecx, DWORD PTR _kPacket$507819[ebp]
  00211	e8 00 00 00 00	 call	 ??6SP2Packet@@QAEAAV0@K@Z ; SP2Packet::operator<<

; 672  : 		if( dwRead != 0 )

  00216	83 bd bc fd fe
	ff 00		 cmp	 DWORD PTR _dwRead$[ebp], 0
  0021d	74 12		 je	 SHORT $LN2@ProcessTem

; 673  : 			kPacket << kFile;

  0021f	8d 85 f0 fd ff
	ff		 lea	 eax, DWORD PTR _kFile$[ebp]
  00225	50		 push	 eax
  00226	8d 8d c0 fd fe
	ff		 lea	 ecx, DWORD PTR _kPacket$507819[ebp]
  0022c	e8 00 00 00 00	 call	 ??6SP2Packet@@QAEAAV0@ABUtagFilePacket@@@Z ; SP2Packet::operator<<
$LN2@ProcessTem:

; 674  : 		SendLoop( kPacket );

  00231	8b 76 04	 mov	 esi, DWORD PTR [esi+4]
  00234	85 f6		 test	 esi, esi
  00236	74 0d		 je	 SHORT $LN29@ProcessTem
  00238	8b 06		 mov	 eax, DWORD PTR [esi]
  0023a	8d 8d c0 fd fe
	ff		 lea	 ecx, DWORD PTR _kPacket$507819[ebp]
  00240	51		 push	 ecx
  00241	8b ce		 mov	 ecx, esi
  00243	ff 10		 call	 DWORD PTR [eax]
$LN29@ProcessTem:

; 675  : 
; 676  : 		if( Help::CheckEnableTimeGapUser2( 1 ) )

  00245	6a 01		 push	 1
  00247	e8 00 00 00 00	 call	 ?CheckEnableTimeGapUser2@Help@@YA_NH@Z ; Help::CheckEnableTimeGapUser2
  0024c	59		 pop	 ecx
  0024d	84 c0		 test	 al, al
  0024f	74 1b		 je	 SHORT $LN1@ProcessTem

; 677  : 			LOG.PrintTimeAndLog( 0, "%s Complete", __FUNCTION__ );

  00251	68 00 00 00 00	 push	 OFFSET ??_C@_0CD@GHAIAKEK@ioFileWriteClient?3?3ProcessTempSe@
  00256	68 00 00 00 00	 push	 OFFSET ??_C@_0M@DIPKMNHI@?$CFs?5Complete?$AA@
  0025b	6a 00		 push	 0
  0025d	ff 35 00 00 00
	00		 push	 DWORD PTR __imp_?LOG@@3VCLog@@A
  00263	ff 15 00 00 00
	00		 call	 DWORD PTR __imp_?PrintTimeAndLog@CLog@@QAAXHPADZZ
  00269	83 c4 10	 add	 esp, 16			; 00000010H
$LN1@ProcessTem:

; 678  : 	}

  0026c	8d 8d c0 fd fe
	ff		 lea	 ecx, DWORD PTR _kPacket$507819[ebp]
$LN33@ProcessTem:
  00272	83 4d fc ff	 or	 DWORD PTR __$EHRec$[ebp+8], -1
  00276	e8 00 00 00 00	 call	 ??1SP2Packet@@UAE@XZ	; SP2Packet::~SP2Packet
$LN10@ProcessTem:

; 679  : }

  0027b	8b 4d f4	 mov	 ecx, DWORD PTR __$EHRec$[ebp]
  0027e	64 89 0d 00 00
	00 00		 mov	 DWORD PTR fs:0, ecx
  00285	59		 pop	 ecx
  00286	5f		 pop	 edi
  00287	5e		 pop	 esi
  00288	5b		 pop	 ebx
  00289	8b 4d f0	 mov	 ecx, DWORD PTR __$ArrayPad$[ebp]
  0028c	33 cd		 xor	 ecx, ebp
  0028e	e8 00 00 00 00	 call	 @__security_check_cookie@4
  00293	c9		 leave
  00294	c3		 ret	 0
_TEXT	ENDS
;	COMDAT text$x
text$x	SEGMENT
__unwindfunclet$?ProcessTempSend@ioFileWriteClient@@QAEXXZ$0:
  00000	8d 8d d8 7d ff
	ff		 lea	 ecx, DWORD PTR _kPacket$507807[ebp]
  00006	e9 00 00 00 00	 jmp	 ??1SP2Packet@@UAE@XZ	; SP2Packet::~SP2Packet
__unwindfunclet$?ProcessTempSend@ioFileWriteClient@@QAEXXZ$1:
  0000b	8d 8d d8 7d ff
	ff		 lea	 ecx, DWORD PTR _kPacket$507813[ebp]
  00011	e9 00 00 00 00	 jmp	 ??1SP2Packet@@UAE@XZ	; SP2Packet::~SP2Packet
__unwindfunclet$?ProcessTempSend@ioFileWriteClient@@QAEXXZ$2:
  00016	8d 8d d8 7d ff
	ff		 lea	 ecx, DWORD PTR _kPacket$507817[ebp]
  0001c	e9 00 00 00 00	 jmp	 ??1SP2Packet@@UAE@XZ	; SP2Packet::~SP2Packet
__unwindfunclet$?ProcessTempSend@ioFileWriteClient@@QAEXXZ$3:
  00021	8d 8d c0 fd fe
	ff		 lea	 ecx, DWORD PTR _kPacket$507819[ebp]
  00027	e9 00 00 00 00	 jmp	 ??1SP2Packet@@UAE@XZ	; SP2Packet::~SP2Packet
__ehhandler$?ProcessTempSend@ioFileWriteClient@@QAEXXZ:
  0002c	8b 54 24 08	 mov	 edx, DWORD PTR [esp+8]
  00030	8d 42 0c	 lea	 eax, DWORD PTR [edx+12]
  00033	8b 8a b8 fd fe
	ff		 mov	 ecx, DWORD PTR [edx-66120]
  00039	33 c8		 xor	 ecx, eax
  0003b	e8 00 00 00 00	 call	 @__security_check_cookie@4
  00040	8b 4a fc	 mov	 ecx, DWORD PTR [edx-4]
  00043	33 c8		 xor	 ecx, eax
  00045	e8 00 00 00 00	 call	 @__security_check_cookie@4
  0004a	b8 00 00 00 00	 mov	 eax, OFFSET __ehfuncinfo$?ProcessTempSend@ioFileWriteClient@@QAEXXZ
  0004f	e9 00 00 00 00	 jmp	 ___CxxFrameHandler3
text$x	ENDS
?ProcessTempSend@ioFileWriteClient@@QAEXXZ ENDP		; ioFileWriteClient::ProcessTempSend
PUBLIC	__$ArrayPad$
PUBLIC	??$LoadInt_e@$08$02@ioINILoader@@QAEHAAY08$$CBDAAY02$$CBDH@Z ; ioINILoader::LoadInt_e<9,3>
EXTRN	__imp_?LoadInt@ioINILoader@@QAEHPBD0H@Z:PROC
; Function compile flags: /Ogsp
; File d:\lost saga for developer\youtube\tutorial\source\src\io3dengine\ioiniloader.h
;	COMDAT ??$LoadInt_e@$08$02@ioINILoader@@QAEHAAY08$$CBDAAY02$$CBDH@Z
_TEXT	SEGMENT
__k$ = -28						; size = 3
__t$ = -20						; size = 9
__$ArrayPad$ = -4					; size = 4
_t$ = 8							; size = 4
_k$ = 12						; size = 4
_i$ = 16						; size = 4
??$LoadInt_e@$08$02@ioINILoader@@QAEHAAY08$$CBDAAY02$$CBDH@Z PROC ; ioINILoader::LoadInt_e<9,3>, COMDAT
; _this$ = ecx

; 126  : 	{

  00000	55		 push	 ebp
  00001	8b ec		 mov	 ebp, esp
  00003	83 ec 1c	 sub	 esp, 28			; 0000001cH
  00006	a1 00 00 00 00	 mov	 eax, DWORD PTR ___security_cookie
  0000b	33 c5		 xor	 eax, ebp
  0000d	89 45 fc	 mov	 DWORD PTR __$ArrayPad$[ebp], eax
  00010	8b 45 08	 mov	 eax, DWORD PTR _t$[ebp]

; 127  : 		_ENCSTR(t, _t);

  00013	8a 10		 mov	 dl, BYTE PTR [eax]
  00015	56		 push	 esi
  00016	8b 75 0c	 mov	 esi, DWORD PTR _k$[ebp]
  00019	57		 push	 edi
  0001a	8b f9		 mov	 edi, ecx
  0001c	b1 ea		 mov	 cl, -22			; ffffffeaH
  0001e	84 d2		 test	 dl, dl
  00020	0f 84 e8 00 00
	00		 je	 $LN192@LoadInt_e
  00026	80 f2 ed	 xor	 dl, -19			; ffffffedH
  00029	88 55 ec	 mov	 BYTE PTR __t$[ebp], dl
  0002c	8a 50 01	 mov	 dl, BYTE PTR [eax+1]
  0002f	84 d2		 test	 dl, dl
  00031	0f 84 d1 00 00
	00		 je	 $LN191@LoadInt_e
  00037	80 f2 ec	 xor	 dl, -20			; ffffffecH
  0003a	88 55 ed	 mov	 BYTE PTR __t$[ebp+1], dl
  0003d	8a 50 02	 mov	 dl, BYTE PTR [eax+2]
  00040	84 d2		 test	 dl, dl
  00042	0f 84 ba 00 00
	00		 je	 $LN190@LoadInt_e
  00048	80 f2 eb	 xor	 dl, -21			; ffffffebH
  0004b	88 55 ee	 mov	 BYTE PTR __t$[ebp+2], dl
  0004e	8a 50 03	 mov	 dl, BYTE PTR [eax+3]
  00051	84 d2		 test	 dl, dl
  00053	0f 84 a4 00 00
	00		 je	 $LN189@LoadInt_e
  00059	32 d1		 xor	 dl, cl
  0005b	88 55 ef	 mov	 BYTE PTR __t$[ebp+3], dl
  0005e	8a 50 04	 mov	 dl, BYTE PTR [eax+4]
  00061	84 d2		 test	 dl, dl
  00063	0f 84 8e 00 00
	00		 je	 $LN188@LoadInt_e
  00069	80 f2 ed	 xor	 dl, -19			; ffffffedH
  0006c	88 55 f0	 mov	 BYTE PTR __t$[ebp+4], dl
  0006f	8a 50 05	 mov	 dl, BYTE PTR [eax+5]
  00072	84 d2		 test	 dl, dl
  00074	74 7b		 je	 SHORT $LN187@LoadInt_e
  00076	80 f2 ec	 xor	 dl, -20			; ffffffecH
  00079	88 55 f1	 mov	 BYTE PTR __t$[ebp+5], dl
  0007c	8a 50 06	 mov	 dl, BYTE PTR [eax+6]
  0007f	84 d2		 test	 dl, dl
  00081	74 68		 je	 SHORT $LN186@LoadInt_e
  00083	80 f2 eb	 xor	 dl, -21			; ffffffebH
  00086	88 55 f2	 mov	 BYTE PTR __t$[ebp+6], dl
  00089	8a 50 07	 mov	 dl, BYTE PTR [eax+7]
  0008c	84 d2		 test	 dl, dl
  0008e	74 56		 je	 SHORT $LN185@LoadInt_e
  00090	32 d1		 xor	 dl, cl
  00092	80 78 08 00	 cmp	 BYTE PTR [eax+8], 0
  00096	88 55 f3	 mov	 BYTE PTR __t$[ebp+7], dl
  00099	74 77		 je	 SHORT $LN97@LoadInt_e
  0009b	8a 50 09	 mov	 dl, BYTE PTR [eax+9]
  0009e	84 d2		 test	 dl, dl
  000a0	74 3e		 je	 SHORT $LN183@LoadInt_e
  000a2	80 f2 ec	 xor	 dl, -20			; ffffffecH
  000a5	88 55 f5	 mov	 BYTE PTR __t$[ebp+9], dl
  000a8	8a 50 0a	 mov	 dl, BYTE PTR [eax+10]
  000ab	84 d2		 test	 dl, dl
  000ad	74 2b		 je	 SHORT $LN182@LoadInt_e
  000af	80 f2 eb	 xor	 dl, -21			; ffffffebH
  000b2	88 55 f6	 mov	 BYTE PTR __t$[ebp+10], dl
  000b5	8a 50 0b	 mov	 dl, BYTE PTR [eax+11]
  000b8	84 d2		 test	 dl, dl
  000ba	74 19		 je	 SHORT $LN181@LoadInt_e
  000bc	8a 40 0c	 mov	 al, BYTE PTR [eax+12]
  000bf	32 d1		 xor	 dl, cl
  000c1	88 55 f7	 mov	 BYTE PTR __t$[ebp+11], dl
  000c4	84 c0		 test	 al, al
  000c6	74 07		 je	 SHORT $LN180@LoadInt_e
  000c8	34 ed		 xor	 al, -19			; ffffffedH
  000ca	88 45 f8	 mov	 BYTE PTR __t$[ebp+12], al
  000cd	eb 43		 jmp	 SHORT $LN97@LoadInt_e
$LN180@LoadInt_e:
  000cf	c6 45 f8 ed	 mov	 BYTE PTR __t$[ebp+12], -19 ; ffffffedH
  000d3	eb 3d		 jmp	 SHORT $LN97@LoadInt_e
$LN181@LoadInt_e:
  000d5	88 4d f7	 mov	 BYTE PTR __t$[ebp+11], cl
  000d8	eb 38		 jmp	 SHORT $LN97@LoadInt_e
$LN182@LoadInt_e:
  000da	c6 45 f6 eb	 mov	 BYTE PTR __t$[ebp+10], -21 ; ffffffebH
  000de	eb 32		 jmp	 SHORT $LN97@LoadInt_e
$LN183@LoadInt_e:
  000e0	c6 45 f5 ec	 mov	 BYTE PTR __t$[ebp+9], -20 ; ffffffecH
  000e4	eb 2c		 jmp	 SHORT $LN97@LoadInt_e
$LN185@LoadInt_e:
  000e6	88 4d f3	 mov	 BYTE PTR __t$[ebp+7], cl
  000e9	eb 27		 jmp	 SHORT $LN97@LoadInt_e
$LN186@LoadInt_e:
  000eb	c6 45 f2 eb	 mov	 BYTE PTR __t$[ebp+6], -21 ; ffffffebH
  000ef	eb 21		 jmp	 SHORT $LN97@LoadInt_e
$LN187@LoadInt_e:
  000f1	c6 45 f1 ec	 mov	 BYTE PTR __t$[ebp+5], -20 ; ffffffecH
  000f5	eb 1b		 jmp	 SHORT $LN97@LoadInt_e
$LN188@LoadInt_e:
  000f7	c6 45 f0 ed	 mov	 BYTE PTR __t$[ebp+4], -19 ; ffffffedH
  000fb	eb 15		 jmp	 SHORT $LN97@LoadInt_e
$LN189@LoadInt_e:
  000fd	88 4d ef	 mov	 BYTE PTR __t$[ebp+3], cl
  00100	eb 10		 jmp	 SHORT $LN97@LoadInt_e
$LN190@LoadInt_e:
  00102	c6 45 ee eb	 mov	 BYTE PTR __t$[ebp+2], -21 ; ffffffebH
  00106	eb 0a		 jmp	 SHORT $LN97@LoadInt_e
$LN191@LoadInt_e:
  00108	c6 45 ed ec	 mov	 BYTE PTR __t$[ebp+1], -20 ; ffffffecH
  0010c	eb 04		 jmp	 SHORT $LN97@LoadInt_e
$LN192@LoadInt_e:
  0010e	c6 45 ec ed	 mov	 BYTE PTR __t$[ebp], -19	; ffffffedH
$LN97@LoadInt_e:
  00112	6a 02		 push	 2
  00114	8d 45 ec	 lea	 eax, DWORD PTR __t$[ebp]
  00117	c6 45 f4 00	 mov	 BYTE PTR __t$[ebp+8], 0
  0011b	5a		 pop	 edx
$LL200@LoadInt_e:
  0011c	81 30 ed ec eb
	ea		 xor	 DWORD PTR [eax], -353637139 ; eaebecedH
  00122	83 c0 04	 add	 eax, 4
  00125	4a		 dec	 edx
  00126	75 f4		 jne	 SHORT $LL200@LoadInt_e

; 128  : 		_ENCSTR(k, _k);

  00128	8a 06		 mov	 al, BYTE PTR [esi]
  0012a	84 c0		 test	 al, al
  0012c	74 65		 je	 SHORT $LN96@LoadInt_e
  0012e	34 ed		 xor	 al, -19			; ffffffedH
  00130	88 45 e4	 mov	 BYTE PTR __k$[ebp], al
  00133	8a 46 01	 mov	 al, BYTE PTR [esi+1]
  00136	84 c0		 test	 al, al
  00138	74 53		 je	 SHORT $LN95@LoadInt_e
  0013a	34 ec		 xor	 al, -20			; ffffffecH
  0013c	88 45 e5	 mov	 BYTE PTR __k$[ebp+1], al
  0013f	38 56 02	 cmp	 BYTE PTR [esi+2], dl
  00142	74 53		 je	 SHORT $LN1@LoadInt_e
  00144	8a 46 03	 mov	 al, BYTE PTR [esi+3]
  00147	84 c0		 test	 al, al
  00149	74 3d		 je	 SHORT $LN93@LoadInt_e
  0014b	32 c1		 xor	 al, cl
  0014d	88 45 e7	 mov	 BYTE PTR __k$[ebp+3], al
  00150	8a 46 04	 mov	 al, BYTE PTR [esi+4]
  00153	84 c0		 test	 al, al
  00155	74 2b		 je	 SHORT $LN92@LoadInt_e
  00157	34 ed		 xor	 al, -19			; ffffffedH
  00159	88 45 e8	 mov	 BYTE PTR __k$[ebp+4], al
  0015c	8a 46 05	 mov	 al, BYTE PTR [esi+5]
  0015f	84 c0		 test	 al, al
  00161	74 19		 je	 SHORT $LN91@LoadInt_e
  00163	34 ec		 xor	 al, -20			; ffffffecH
  00165	88 45 e9	 mov	 BYTE PTR __k$[ebp+5], al
  00168	8a 46 06	 mov	 al, BYTE PTR [esi+6]
  0016b	84 c0		 test	 al, al
  0016d	74 07		 je	 SHORT $LN90@LoadInt_e
  0016f	34 eb		 xor	 al, -21			; ffffffebH
  00171	88 45 ea	 mov	 BYTE PTR __k$[ebp+6], al
  00174	eb 21		 jmp	 SHORT $LN1@LoadInt_e
$LN90@LoadInt_e:
  00176	c6 45 ea eb	 mov	 BYTE PTR __k$[ebp+6], -21 ; ffffffebH
  0017a	eb 1b		 jmp	 SHORT $LN1@LoadInt_e
$LN91@LoadInt_e:
  0017c	c6 45 e9 ec	 mov	 BYTE PTR __k$[ebp+5], -20 ; ffffffecH
  00180	eb 15		 jmp	 SHORT $LN1@LoadInt_e
$LN92@LoadInt_e:
  00182	c6 45 e8 ed	 mov	 BYTE PTR __k$[ebp+4], -19 ; ffffffedH
  00186	eb 0f		 jmp	 SHORT $LN1@LoadInt_e
$LN93@LoadInt_e:
  00188	88 4d e7	 mov	 BYTE PTR __k$[ebp+3], cl
  0018b	eb 0a		 jmp	 SHORT $LN1@LoadInt_e
$LN95@LoadInt_e:
  0018d	c6 45 e5 ec	 mov	 BYTE PTR __k$[ebp+1], -20 ; ffffffecH
  00191	eb 04		 jmp	 SHORT $LN1@LoadInt_e
$LN96@LoadInt_e:
  00193	c6 45 e4 ed	 mov	 BYTE PTR __k$[ebp], -19	; ffffffedH
$LN1@LoadInt_e:
  00197	c6 45 e6 00	 mov	 BYTE PTR __k$[ebp+2], 0
  0019b	33 c0		 xor	 eax, eax
$LL205@LoadInt_e:
  0019d	8b c8		 mov	 ecx, eax
  0019f	81 e1 03 00 00
	80		 and	 ecx, -2147483645	; 80000003H
  001a5	79 05		 jns	 SHORT $LN219@LoadInt_e
  001a7	49		 dec	 ecx
  001a8	83 c9 fc	 or	 ecx, -4			; fffffffcH
  001ab	41		 inc	 ecx
$LN219@LoadInt_e:
  001ac	b2 ed		 mov	 dl, -19			; ffffffedH
  001ae	2a d1		 sub	 dl, cl
  001b0	30 54 05 e4	 xor	 BYTE PTR __k$[ebp+eax], dl
  001b4	40		 inc	 eax
  001b5	83 f8 02	 cmp	 eax, 2
  001b8	7c e3		 jl	 SHORT $LL205@LoadInt_e

; 129  : 		return LoadInt(_t, _k, i);

  001ba	ff 75 10	 push	 DWORD PTR _i$[ebp]
  001bd	8d 45 e4	 lea	 eax, DWORD PTR __k$[ebp]
  001c0	50		 push	 eax
  001c1	8d 45 ec	 lea	 eax, DWORD PTR __t$[ebp]
  001c4	50		 push	 eax
  001c5	8b cf		 mov	 ecx, edi
  001c7	ff 15 00 00 00
	00		 call	 DWORD PTR __imp_?LoadInt@ioINILoader@@QAEHPBD0H@Z

; 130  : 	}

  001cd	8b 4d fc	 mov	 ecx, DWORD PTR __$ArrayPad$[ebp]
  001d0	5f		 pop	 edi
  001d1	33 cd		 xor	 ecx, ebp
  001d3	5e		 pop	 esi
  001d4	e8 00 00 00 00	 call	 @__security_check_cookie@4
  001d9	c9		 leave
  001da	c2 0c 00	 ret	 12			; 0000000cH
??$LoadInt_e@$08$02@ioINILoader@@QAEHAAY08$$CBDAAY02$$CBDH@Z ENDP ; ioINILoader::LoadInt_e<9,3>
_TEXT	ENDS
PUBLIC	__$ArrayPad$
PUBLIC	??$SetTitle_e@$06@ioINILoader@@QAEXAAY06$$CBD@Z	; ioINILoader::SetTitle_e<7>
EXTRN	__imp_?SetTitle@ioINILoader@@QAEXPBD@Z:PROC
; Function compile flags: /Ogsp
;	COMDAT ??$SetTitle_e@$06@ioINILoader@@QAEXAAY06$$CBD@Z
_TEXT	SEGMENT
__t$ = -16						; size = 7
__$ArrayPad$ = -4					; size = 4
_t$ = 8							; size = 4
??$SetTitle_e@$06@ioINILoader@@QAEXAAY06$$CBD@Z PROC	; ioINILoader::SetTitle_e<7>, COMDAT
; _this$ = ecx

; 188  : 	{

  00000	55		 push	 ebp
  00001	8b ec		 mov	 ebp, esp
  00003	83 ec 10	 sub	 esp, 16			; 00000010H
  00006	a1 00 00 00 00	 mov	 eax, DWORD PTR ___security_cookie
  0000b	33 c5		 xor	 eax, ebp
  0000d	89 45 fc	 mov	 DWORD PTR __$ArrayPad$[ebp], eax
  00010	8b 45 08	 mov	 eax, DWORD PTR _t$[ebp]

; 189  : 		_ENCSTR(t, _t);

  00013	8a 10		 mov	 dl, BYTE PTR [eax]
  00015	56		 push	 esi
  00016	8b f1		 mov	 esi, ecx
  00018	84 d2		 test	 dl, dl
  0001a	0f 84 c0 00 00
	00		 je	 $LN96@SetTitle_e
  00020	80 f2 ed	 xor	 dl, -19			; ffffffedH
  00023	88 55 f0	 mov	 BYTE PTR __t$[ebp], dl
  00026	8a 50 01	 mov	 dl, BYTE PTR [eax+1]
  00029	84 d2		 test	 dl, dl
  0002b	0f 84 a9 00 00
	00		 je	 $LN95@SetTitle_e
  00031	80 f2 ec	 xor	 dl, -20			; ffffffecH
  00034	88 55 f1	 mov	 BYTE PTR __t$[ebp+1], dl
  00037	8a 50 02	 mov	 dl, BYTE PTR [eax+2]
  0003a	84 d2		 test	 dl, dl
  0003c	0f 84 92 00 00
	00		 je	 $LN94@SetTitle_e
  00042	80 f2 eb	 xor	 dl, -21			; ffffffebH
  00045	88 55 f2	 mov	 BYTE PTR __t$[ebp+2], dl
  00048	8a 50 03	 mov	 dl, BYTE PTR [eax+3]
  0004b	84 d2		 test	 dl, dl
  0004d	74 7f		 je	 SHORT $LN93@SetTitle_e
  0004f	80 f2 ea	 xor	 dl, -22			; ffffffeaH
  00052	88 55 f3	 mov	 BYTE PTR __t$[ebp+3], dl
  00055	8a 50 04	 mov	 dl, BYTE PTR [eax+4]
  00058	84 d2		 test	 dl, dl
  0005a	74 6c		 je	 SHORT $LN92@SetTitle_e
  0005c	80 f2 ed	 xor	 dl, -19			; ffffffedH
  0005f	88 55 f4	 mov	 BYTE PTR __t$[ebp+4], dl
  00062	8a 50 05	 mov	 dl, BYTE PTR [eax+5]
  00065	84 d2		 test	 dl, dl
  00067	74 59		 je	 SHORT $LN91@SetTitle_e
  00069	80 f2 ec	 xor	 dl, -20			; ffffffecH
  0006c	80 78 06 00	 cmp	 BYTE PTR [eax+6], 0
  00070	88 55 f5	 mov	 BYTE PTR __t$[ebp+5], dl
  00073	74 6f		 je	 SHORT $LN1@SetTitle_e
  00075	8a 50 07	 mov	 dl, BYTE PTR [eax+7]
  00078	84 d2		 test	 dl, dl
  0007a	74 40		 je	 SHORT $LN89@SetTitle_e
  0007c	80 f2 ea	 xor	 dl, -22			; ffffffeaH
  0007f	88 55 f7	 mov	 BYTE PTR __t$[ebp+7], dl
  00082	8a 50 08	 mov	 dl, BYTE PTR [eax+8]
  00085	84 d2		 test	 dl, dl
  00087	74 2d		 je	 SHORT $LN88@SetTitle_e
  00089	80 f2 ed	 xor	 dl, -19			; ffffffedH
  0008c	88 55 f8	 mov	 BYTE PTR __t$[ebp+8], dl
  0008f	8a 50 09	 mov	 dl, BYTE PTR [eax+9]
  00092	84 d2		 test	 dl, dl
  00094	74 1a		 je	 SHORT $LN87@SetTitle_e
  00096	8a 40 0a	 mov	 al, BYTE PTR [eax+10]
  00099	80 f2 ec	 xor	 dl, -20			; ffffffecH
  0009c	88 55 f9	 mov	 BYTE PTR __t$[ebp+9], dl
  0009f	84 c0		 test	 al, al
  000a1	74 07		 je	 SHORT $LN86@SetTitle_e
  000a3	34 eb		 xor	 al, -21			; ffffffebH
  000a5	88 45 fa	 mov	 BYTE PTR __t$[ebp+10], al
  000a8	eb 3a		 jmp	 SHORT $LN1@SetTitle_e
$LN86@SetTitle_e:
  000aa	c6 45 fa eb	 mov	 BYTE PTR __t$[ebp+10], -21 ; ffffffebH
  000ae	eb 34		 jmp	 SHORT $LN1@SetTitle_e
$LN87@SetTitle_e:
  000b0	c6 45 f9 ec	 mov	 BYTE PTR __t$[ebp+9], -20 ; ffffffecH
  000b4	eb 2e		 jmp	 SHORT $LN1@SetTitle_e
$LN88@SetTitle_e:
  000b6	c6 45 f8 ed	 mov	 BYTE PTR __t$[ebp+8], -19 ; ffffffedH
  000ba	eb 28		 jmp	 SHORT $LN1@SetTitle_e
$LN89@SetTitle_e:
  000bc	c6 45 f7 ea	 mov	 BYTE PTR __t$[ebp+7], -22 ; ffffffeaH
  000c0	eb 22		 jmp	 SHORT $LN1@SetTitle_e
$LN91@SetTitle_e:
  000c2	c6 45 f5 ec	 mov	 BYTE PTR __t$[ebp+5], -20 ; ffffffecH
  000c6	eb 1c		 jmp	 SHORT $LN1@SetTitle_e
$LN92@SetTitle_e:
  000c8	c6 45 f4 ed	 mov	 BYTE PTR __t$[ebp+4], -19 ; ffffffedH
  000cc	eb 16		 jmp	 SHORT $LN1@SetTitle_e
$LN93@SetTitle_e:
  000ce	c6 45 f3 ea	 mov	 BYTE PTR __t$[ebp+3], -22 ; ffffffeaH
  000d2	eb 10		 jmp	 SHORT $LN1@SetTitle_e
$LN94@SetTitle_e:
  000d4	c6 45 f2 eb	 mov	 BYTE PTR __t$[ebp+2], -21 ; ffffffebH
  000d8	eb 0a		 jmp	 SHORT $LN1@SetTitle_e
$LN95@SetTitle_e:
  000da	c6 45 f1 ec	 mov	 BYTE PTR __t$[ebp+1], -20 ; ffffffecH
  000de	eb 04		 jmp	 SHORT $LN1@SetTitle_e
$LN96@SetTitle_e:
  000e0	c6 45 f0 ed	 mov	 BYTE PTR __t$[ebp], -19	; ffffffedH
$LN1@SetTitle_e:
  000e4	81 75 f0 ed ec
	eb ea		 xor	 DWORD PTR __t$[ebp], -353637139 ; eaebecedH
  000eb	6a 04		 push	 4
  000ed	c6 45 f6 00	 mov	 BYTE PTR __t$[ebp+6], 0
  000f1	58		 pop	 eax
$LL101@SetTitle_e:
  000f2	8b c8		 mov	 ecx, eax
  000f4	81 e1 03 00 00
	80		 and	 ecx, -2147483645	; 80000003H
  000fa	79 05		 jns	 SHORT $LN111@SetTitle_e
  000fc	49		 dec	 ecx
  000fd	83 c9 fc	 or	 ecx, -4			; fffffffcH
  00100	41		 inc	 ecx
$LN111@SetTitle_e:
  00101	b2 ed		 mov	 dl, -19			; ffffffedH
  00103	2a d1		 sub	 dl, cl
  00105	30 54 05 f0	 xor	 BYTE PTR __t$[ebp+eax], dl
  00109	40		 inc	 eax
  0010a	83 f8 06	 cmp	 eax, 6
  0010d	7c e3		 jl	 SHORT $LL101@SetTitle_e

; 190  : 		SetTitle(_t);

  0010f	8d 45 f0	 lea	 eax, DWORD PTR __t$[ebp]
  00112	50		 push	 eax
  00113	8b ce		 mov	 ecx, esi
  00115	ff 15 00 00 00
	00		 call	 DWORD PTR __imp_?SetTitle@ioINILoader@@QAEXPBD@Z

; 191  : 	}

  0011b	8b 4d fc	 mov	 ecx, DWORD PTR __$ArrayPad$[ebp]
  0011e	33 cd		 xor	 ecx, ebp
  00120	5e		 pop	 esi
  00121	e8 00 00 00 00	 call	 @__security_check_cookie@4
  00126	c9		 leave
  00127	c2 04 00	 ret	 4
??$SetTitle_e@$06@ioINILoader@@QAEXAAY06$$CBD@Z ENDP	; ioINILoader::SetTitle_e<7>
_TEXT	ENDS
PUBLIC	_this$GSCopy$
PUBLIC	__$ArrayPad$
PUBLIC	??$LoadString_e@$0P@@ioINILoader@@QAEXAAY0P@$$CBDAAY00$$CBDPADH@Z ; ioINILoader::LoadString_e<15>
EXTRN	__imp_?LoadStringA@ioINILoader@@QAEXPBD0PADH@Z:PROC
; Function compile flags: /Ogsp
;	COMDAT ??$LoadString_e@$0P@@ioINILoader@@QAEXAAY0P@$$CBDAAY00$$CBDPADH@Z
_TEXT	SEGMENT
_this$GSCopy$ = -28					; size = 4
__k$ = -24						; size = 15
__$ArrayPad$ = -4					; size = 4
_k$ = 8							; size = 4
_d$ = 12						; size = 4
_b$ = 16						; size = 4
_i$ = 20						; size = 4
??$LoadString_e@$0P@@ioINILoader@@QAEXAAY0P@$$CBDAAY00$$CBDPADH@Z PROC ; ioINILoader::LoadString_e<15>, COMDAT
; _this$ = ecx

; 161  : 	{

  00000	55		 push	 ebp
  00001	8b ec		 mov	 ebp, esp
  00003	83 ec 1c	 sub	 esp, 28			; 0000001cH
  00006	a1 00 00 00 00	 mov	 eax, DWORD PTR ___security_cookie
  0000b	33 c5		 xor	 eax, ebp
  0000d	89 45 fc	 mov	 DWORD PTR __$ArrayPad$[ebp], eax
  00010	8b 45 08	 mov	 eax, DWORD PTR _k$[ebp]

; 162  : 		_ENCSTR(k, _k);

  00013	8a 10		 mov	 dl, BYTE PTR [eax]
  00015	56		 push	 esi
  00016	8b 75 0c	 mov	 esi, DWORD PTR _d$[ebp]
  00019	57		 push	 edi
  0001a	8b 7d 10	 mov	 edi, DWORD PTR _b$[ebp]
  0001d	89 4d e4	 mov	 DWORD PTR _this$GSCopy$[ebp], ecx
  00020	84 d2		 test	 dl, dl
  00022	0f 84 75 01 00
	00		 je	 $LN96@LoadString
  00028	80 f2 ed	 xor	 dl, -19			; ffffffedH
  0002b	88 55 e8	 mov	 BYTE PTR __k$[ebp], dl
  0002e	8a 50 01	 mov	 dl, BYTE PTR [eax+1]
  00031	84 d2		 test	 dl, dl
  00033	0f 84 5e 01 00
	00		 je	 $LN95@LoadString
  00039	b1 ec		 mov	 cl, -20			; ffffffecH
  0003b	32 d1		 xor	 dl, cl
  0003d	88 55 e9	 mov	 BYTE PTR __k$[ebp+1], dl
  00040	8a 50 02	 mov	 dl, BYTE PTR [eax+2]
  00043	84 d2		 test	 dl, dl
  00045	0f 84 46 01 00
	00		 je	 $LN94@LoadString
  0004b	80 f2 eb	 xor	 dl, -21			; ffffffebH
  0004e	88 55 ea	 mov	 BYTE PTR __k$[ebp+2], dl
  00051	8a 50 03	 mov	 dl, BYTE PTR [eax+3]
  00054	84 d2		 test	 dl, dl
  00056	0f 84 2f 01 00
	00		 je	 $LN93@LoadString
  0005c	80 f2 ea	 xor	 dl, -22			; ffffffeaH
  0005f	88 55 eb	 mov	 BYTE PTR __k$[ebp+3], dl
  00062	8a 50 04	 mov	 dl, BYTE PTR [eax+4]
  00065	84 d2		 test	 dl, dl
  00067	0f 84 18 01 00
	00		 je	 $LN92@LoadString
  0006d	80 f2 ed	 xor	 dl, -19			; ffffffedH
  00070	88 55 ec	 mov	 BYTE PTR __k$[ebp+4], dl
  00073	8a 50 05	 mov	 dl, BYTE PTR [eax+5]
  00076	84 d2		 test	 dl, dl
  00078	0f 84 02 01 00
	00		 je	 $LN91@LoadString
  0007e	32 d1		 xor	 dl, cl
  00080	88 55 ed	 mov	 BYTE PTR __k$[ebp+5], dl
  00083	8a 50 06	 mov	 dl, BYTE PTR [eax+6]
  00086	84 d2		 test	 dl, dl
  00088	0f 84 ec 00 00
	00		 je	 $LN90@LoadString
  0008e	80 f2 eb	 xor	 dl, -21			; ffffffebH
  00091	88 55 ee	 mov	 BYTE PTR __k$[ebp+6], dl
  00094	8a 50 07	 mov	 dl, BYTE PTR [eax+7]
  00097	84 d2		 test	 dl, dl
  00099	0f 84 d5 00 00
	00		 je	 $LN89@LoadString
  0009f	80 f2 ea	 xor	 dl, -22			; ffffffeaH
  000a2	88 55 ef	 mov	 BYTE PTR __k$[ebp+7], dl
  000a5	8a 50 08	 mov	 dl, BYTE PTR [eax+8]
  000a8	84 d2		 test	 dl, dl
  000aa	0f 84 be 00 00
	00		 je	 $LN88@LoadString
  000b0	80 f2 ed	 xor	 dl, -19			; ffffffedH
  000b3	88 55 f0	 mov	 BYTE PTR __k$[ebp+8], dl
  000b6	8a 50 09	 mov	 dl, BYTE PTR [eax+9]
  000b9	84 d2		 test	 dl, dl
  000bb	0f 84 a8 00 00
	00		 je	 $LN87@LoadString
  000c1	32 d1		 xor	 dl, cl
  000c3	88 55 f1	 mov	 BYTE PTR __k$[ebp+9], dl
  000c6	8a 50 0a	 mov	 dl, BYTE PTR [eax+10]
  000c9	84 d2		 test	 dl, dl
  000cb	0f 84 92 00 00
	00		 je	 $LN86@LoadString
  000d1	80 f2 eb	 xor	 dl, -21			; ffffffebH
  000d4	88 55 f2	 mov	 BYTE PTR __k$[ebp+10], dl
  000d7	8a 50 0b	 mov	 dl, BYTE PTR [eax+11]
  000da	84 d2		 test	 dl, dl
  000dc	74 7f		 je	 SHORT $LN85@LoadString
  000de	80 f2 ea	 xor	 dl, -22			; ffffffeaH
  000e1	88 55 f3	 mov	 BYTE PTR __k$[ebp+11], dl
  000e4	8a 50 0c	 mov	 dl, BYTE PTR [eax+12]
  000e7	84 d2		 test	 dl, dl
  000e9	74 6c		 je	 SHORT $LN84@LoadString
  000eb	80 f2 ed	 xor	 dl, -19			; ffffffedH
  000ee	88 55 f4	 mov	 BYTE PTR __k$[ebp+12], dl
  000f1	8a 50 0d	 mov	 dl, BYTE PTR [eax+13]
  000f4	84 d2		 test	 dl, dl
  000f6	74 5a		 je	 SHORT $LN83@LoadString
  000f8	32 d1		 xor	 dl, cl
  000fa	80 78 0e 00	 cmp	 BYTE PTR [eax+14], 0
  000fe	88 55 f5	 mov	 BYTE PTR __k$[ebp+13], dl
  00101	0f 84 9a 00 00
	00		 je	 $LN111@LoadString
  00107	8a 50 0f	 mov	 dl, BYTE PTR [eax+15]
  0010a	84 d2		 test	 dl, dl
  0010c	74 3e		 je	 SHORT $LN81@LoadString
  0010e	80 f2 ea	 xor	 dl, -22			; ffffffeaH
  00111	88 55 f7	 mov	 BYTE PTR __k$[ebp+15], dl
  00114	8a 50 10	 mov	 dl, BYTE PTR [eax+16]
  00117	84 d2		 test	 dl, dl
  00119	74 2b		 je	 SHORT $LN80@LoadString
  0011b	80 f2 ed	 xor	 dl, -19			; ffffffedH
  0011e	88 55 f8	 mov	 BYTE PTR __k$[ebp+16], dl
  00121	8a 50 11	 mov	 dl, BYTE PTR [eax+17]
  00124	84 d2		 test	 dl, dl
  00126	74 19		 je	 SHORT $LN79@LoadString
  00128	8a 40 12	 mov	 al, BYTE PTR [eax+18]
  0012b	32 d1		 xor	 dl, cl
  0012d	88 55 f9	 mov	 BYTE PTR __k$[ebp+17], dl
  00130	84 c0		 test	 al, al
  00132	74 07		 je	 SHORT $LN78@LoadString
  00134	34 eb		 xor	 al, -21			; ffffffebH
  00136	88 45 fa	 mov	 BYTE PTR __k$[ebp+18], al
  00139	eb 66		 jmp	 SHORT $LN111@LoadString
$LN78@LoadString:
  0013b	c6 45 fa eb	 mov	 BYTE PTR __k$[ebp+18], -21 ; ffffffebH
  0013f	eb 60		 jmp	 SHORT $LN111@LoadString
$LN79@LoadString:
  00141	88 4d f9	 mov	 BYTE PTR __k$[ebp+17], cl
  00144	eb 5b		 jmp	 SHORT $LN111@LoadString
$LN80@LoadString:
  00146	c6 45 f8 ed	 mov	 BYTE PTR __k$[ebp+16], -19 ; ffffffedH
  0014a	eb 55		 jmp	 SHORT $LN111@LoadString
$LN81@LoadString:
  0014c	c6 45 f7 ea	 mov	 BYTE PTR __k$[ebp+15], -22 ; ffffffeaH
  00150	eb 4f		 jmp	 SHORT $LN111@LoadString
$LN83@LoadString:
  00152	88 4d f5	 mov	 BYTE PTR __k$[ebp+13], cl
  00155	eb 4a		 jmp	 SHORT $LN111@LoadString
$LN84@LoadString:
  00157	c6 45 f4 ed	 mov	 BYTE PTR __k$[ebp+12], -19 ; ffffffedH
  0015b	eb 44		 jmp	 SHORT $LN111@LoadString
$LN85@LoadString:
  0015d	c6 45 f3 ea	 mov	 BYTE PTR __k$[ebp+11], -22 ; ffffffeaH
  00161	eb 3e		 jmp	 SHORT $LN111@LoadString
$LN86@LoadString:
  00163	c6 45 f2 eb	 mov	 BYTE PTR __k$[ebp+10], -21 ; ffffffebH
  00167	eb 38		 jmp	 SHORT $LN111@LoadString
$LN87@LoadString:
  00169	88 4d f1	 mov	 BYTE PTR __k$[ebp+9], cl
  0016c	eb 33		 jmp	 SHORT $LN111@LoadString
$LN88@LoadString:
  0016e	c6 45 f0 ed	 mov	 BYTE PTR __k$[ebp+8], -19 ; ffffffedH
  00172	eb 2d		 jmp	 SHORT $LN111@LoadString
$LN89@LoadString:
  00174	c6 45 ef ea	 mov	 BYTE PTR __k$[ebp+7], -22 ; ffffffeaH
  00178	eb 27		 jmp	 SHORT $LN111@LoadString
$LN90@LoadString:
  0017a	c6 45 ee eb	 mov	 BYTE PTR __k$[ebp+6], -21 ; ffffffebH
  0017e	eb 21		 jmp	 SHORT $LN111@LoadString
$LN91@LoadString:
  00180	88 4d ed	 mov	 BYTE PTR __k$[ebp+5], cl
  00183	eb 1c		 jmp	 SHORT $LN111@LoadString
$LN92@LoadString:
  00185	c6 45 ec ed	 mov	 BYTE PTR __k$[ebp+4], -19 ; ffffffedH
  00189	eb 16		 jmp	 SHORT $LN111@LoadString
$LN93@LoadString:
  0018b	c6 45 eb ea	 mov	 BYTE PTR __k$[ebp+3], -22 ; ffffffeaH
  0018f	eb 10		 jmp	 SHORT $LN111@LoadString
$LN94@LoadString:
  00191	c6 45 ea eb	 mov	 BYTE PTR __k$[ebp+2], -21 ; ffffffebH
  00195	eb 0a		 jmp	 SHORT $LN111@LoadString
$LN95@LoadString:
  00197	c6 45 e9 ec	 mov	 BYTE PTR __k$[ebp+1], -20 ; ffffffecH
  0019b	eb 04		 jmp	 SHORT $LN111@LoadString
$LN96@LoadString:
  0019d	c6 45 e8 ed	 mov	 BYTE PTR __k$[ebp], -19	; ffffffedH
$LN111@LoadString:
  001a1	6a 03		 push	 3
  001a3	8d 45 e8	 lea	 eax, DWORD PTR __k$[ebp]
  001a6	c6 45 f6 00	 mov	 BYTE PTR __k$[ebp+14], 0
  001aa	5a		 pop	 edx
$LL104@LoadString:
  001ab	81 30 ed ec eb
	ea		 xor	 DWORD PTR [eax], -353637139 ; eaebecedH
  001b1	83 c0 04	 add	 eax, 4
  001b4	4a		 dec	 edx
  001b5	75 f4		 jne	 SHORT $LL104@LoadString
  001b7	6a 0c		 push	 12			; 0000000cH
  001b9	58		 pop	 eax
$LL101@LoadString:
  001ba	8b c8		 mov	 ecx, eax
  001bc	81 e1 03 00 00
	80		 and	 ecx, -2147483645	; 80000003H
  001c2	79 05		 jns	 SHORT $LN112@LoadString
  001c4	49		 dec	 ecx
  001c5	83 c9 fc	 or	 ecx, -4			; fffffffcH
  001c8	41		 inc	 ecx
$LN112@LoadString:
  001c9	b2 ed		 mov	 dl, -19			; ffffffedH
  001cb	2a d1		 sub	 dl, cl
  001cd	30 54 05 e8	 xor	 BYTE PTR __k$[ebp+eax], dl
  001d1	40		 inc	 eax
  001d2	83 f8 0e	 cmp	 eax, 14			; 0000000eH
  001d5	7c e3		 jl	 SHORT $LL101@LoadString

; 163  : 		LoadString(_k, d, b, i);

  001d7	ff 75 14	 push	 DWORD PTR _i$[ebp]
  001da	8b 4d e4	 mov	 ecx, DWORD PTR _this$GSCopy$[ebp]
  001dd	57		 push	 edi
  001de	56		 push	 esi
  001df	8d 45 e8	 lea	 eax, DWORD PTR __k$[ebp]
  001e2	50		 push	 eax
  001e3	ff 15 00 00 00
	00		 call	 DWORD PTR __imp_?LoadStringA@ioINILoader@@QAEXPBD0PADH@Z

; 164  : 	}

  001e9	8b 4d fc	 mov	 ecx, DWORD PTR __$ArrayPad$[ebp]
  001ec	5f		 pop	 edi
  001ed	33 cd		 xor	 ecx, ebp
  001ef	5e		 pop	 esi
  001f0	e8 00 00 00 00	 call	 @__security_check_cookie@4
  001f5	c9		 leave
  001f6	c2 10 00	 ret	 16			; 00000010H
??$LoadString_e@$0P@@ioINILoader@@QAEXAAY0P@$$CBDAAY00$$CBDPADH@Z ENDP ; ioINILoader::LoadString_e<15>
_TEXT	ENDS
PUBLIC	__$ArrayPad$
PUBLIC	??$LoadInt_e@$0BB@@ioINILoader@@QAEHAAY0BB@$$CBDH@Z ; ioINILoader::LoadInt_e<17>
EXTRN	__imp_?LoadInt@ioINILoader@@QAEHPBDH@Z:PROC
; Function compile flags: /Ogsp
;	COMDAT ??$LoadInt_e@$0BB@@ioINILoader@@QAEHAAY0BB@$$CBDH@Z
_TEXT	SEGMENT
__k$ = -28						; size = 17
__$ArrayPad$ = -4					; size = 4
_k$ = 8							; size = 4
_i$ = 12						; size = 4
??$LoadInt_e@$0BB@@ioINILoader@@QAEHAAY0BB@$$CBDH@Z PROC ; ioINILoader::LoadInt_e<17>, COMDAT
; _this$ = ecx

; 118  : 	{

  00000	55		 push	 ebp
  00001	8b ec		 mov	 ebp, esp
  00003	83 ec 1c	 sub	 esp, 28			; 0000001cH
  00006	a1 00 00 00 00	 mov	 eax, DWORD PTR ___security_cookie
  0000b	33 c5		 xor	 eax, ebp
  0000d	89 45 fc	 mov	 DWORD PTR __$ArrayPad$[ebp], eax
  00010	8b 45 08	 mov	 eax, DWORD PTR _k$[ebp]

; 119  : 		_ENCSTR(k, _k);

  00013	8a 10		 mov	 dl, BYTE PTR [eax]
  00015	56		 push	 esi
  00016	8b f1		 mov	 esi, ecx
  00018	84 d2		 test	 dl, dl
  0001a	0f 84 a7 01 00
	00		 je	 $LN96@LoadInt_e@2
  00020	80 f2 ed	 xor	 dl, -19			; ffffffedH
  00023	88 55 e4	 mov	 BYTE PTR __k$[ebp], dl
  00026	8a 50 01	 mov	 dl, BYTE PTR [eax+1]
  00029	84 d2		 test	 dl, dl
  0002b	0f 84 90 01 00
	00		 je	 $LN95@LoadInt_e@2
  00031	b1 ec		 mov	 cl, -20			; ffffffecH
  00033	32 d1		 xor	 dl, cl
  00035	88 55 e5	 mov	 BYTE PTR __k$[ebp+1], dl
  00038	8a 50 02	 mov	 dl, BYTE PTR [eax+2]
  0003b	84 d2		 test	 dl, dl
  0003d	0f 84 78 01 00
	00		 je	 $LN94@LoadInt_e@2
  00043	80 f2 eb	 xor	 dl, -21			; ffffffebH
  00046	88 55 e6	 mov	 BYTE PTR __k$[ebp+2], dl
  00049	8a 50 03	 mov	 dl, BYTE PTR [eax+3]
  0004c	84 d2		 test	 dl, dl
  0004e	0f 84 61 01 00
	00		 je	 $LN93@LoadInt_e@2
  00054	80 f2 ea	 xor	 dl, -22			; ffffffeaH
  00057	88 55 e7	 mov	 BYTE PTR __k$[ebp+3], dl
  0005a	8a 50 04	 mov	 dl, BYTE PTR [eax+4]
  0005d	84 d2		 test	 dl, dl
  0005f	0f 84 4a 01 00
	00		 je	 $LN92@LoadInt_e@2
  00065	80 f2 ed	 xor	 dl, -19			; ffffffedH
  00068	88 55 e8	 mov	 BYTE PTR __k$[ebp+4], dl
  0006b	8a 50 05	 mov	 dl, BYTE PTR [eax+5]
  0006e	84 d2		 test	 dl, dl
  00070	0f 84 34 01 00
	00		 je	 $LN91@LoadInt_e@2
  00076	32 d1		 xor	 dl, cl
  00078	88 55 e9	 mov	 BYTE PTR __k$[ebp+5], dl
  0007b	8a 50 06	 mov	 dl, BYTE PTR [eax+6]
  0007e	84 d2		 test	 dl, dl
  00080	0f 84 1e 01 00
	00		 je	 $LN90@LoadInt_e@2
  00086	80 f2 eb	 xor	 dl, -21			; ffffffebH
  00089	88 55 ea	 mov	 BYTE PTR __k$[ebp+6], dl
  0008c	8a 50 07	 mov	 dl, BYTE PTR [eax+7]
  0008f	84 d2		 test	 dl, dl
  00091	0f 84 07 01 00
	00		 je	 $LN89@LoadInt_e@2
  00097	80 f2 ea	 xor	 dl, -22			; ffffffeaH
  0009a	88 55 eb	 mov	 BYTE PTR __k$[ebp+7], dl
  0009d	8a 50 08	 mov	 dl, BYTE PTR [eax+8]
  000a0	84 d2		 test	 dl, dl
  000a2	0f 84 f0 00 00
	00		 je	 $LN88@LoadInt_e@2
  000a8	80 f2 ed	 xor	 dl, -19			; ffffffedH
  000ab	88 55 ec	 mov	 BYTE PTR __k$[ebp+8], dl
  000ae	8a 50 09	 mov	 dl, BYTE PTR [eax+9]
  000b1	84 d2		 test	 dl, dl
  000b3	0f 84 da 00 00
	00		 je	 $LN87@LoadInt_e@2
  000b9	32 d1		 xor	 dl, cl
  000bb	88 55 ed	 mov	 BYTE PTR __k$[ebp+9], dl
  000be	8a 50 0a	 mov	 dl, BYTE PTR [eax+10]
  000c1	84 d2		 test	 dl, dl
  000c3	0f 84 c4 00 00
	00		 je	 $LN86@LoadInt_e@2
  000c9	80 f2 eb	 xor	 dl, -21			; ffffffebH
  000cc	88 55 ee	 mov	 BYTE PTR __k$[ebp+10], dl
  000cf	8a 50 0b	 mov	 dl, BYTE PTR [eax+11]
  000d2	84 d2		 test	 dl, dl
  000d4	0f 84 ad 00 00
	00		 je	 $LN85@LoadInt_e@2
  000da	80 f2 ea	 xor	 dl, -22			; ffffffeaH
  000dd	88 55 ef	 mov	 BYTE PTR __k$[ebp+11], dl
  000e0	8a 50 0c	 mov	 dl, BYTE PTR [eax+12]
  000e3	84 d2		 test	 dl, dl
  000e5	0f 84 96 00 00
	00		 je	 $LN84@LoadInt_e@2
  000eb	80 f2 ed	 xor	 dl, -19			; ffffffedH
  000ee	88 55 f0	 mov	 BYTE PTR __k$[ebp+12], dl
  000f1	8a 50 0d	 mov	 dl, BYTE PTR [eax+13]
  000f4	84 d2		 test	 dl, dl
  000f6	0f 84 80 00 00
	00		 je	 $LN83@LoadInt_e@2
  000fc	32 d1		 xor	 dl, cl
  000fe	88 55 f1	 mov	 BYTE PTR __k$[ebp+13], dl
  00101	8a 50 0e	 mov	 dl, BYTE PTR [eax+14]
  00104	84 d2		 test	 dl, dl
  00106	74 6e		 je	 SHORT $LN82@LoadInt_e@2
  00108	80 f2 eb	 xor	 dl, -21			; ffffffebH
  0010b	88 55 f2	 mov	 BYTE PTR __k$[ebp+14], dl
  0010e	8a 50 0f	 mov	 dl, BYTE PTR [eax+15]
  00111	84 d2		 test	 dl, dl
  00113	74 5b		 je	 SHORT $LN81@LoadInt_e@2
  00115	80 f2 ea	 xor	 dl, -22			; ffffffeaH
  00118	80 78 10 00	 cmp	 BYTE PTR [eax+16], 0
  0011c	88 55 f3	 mov	 BYTE PTR __k$[ebp+15], dl
  0011f	0f 84 a6 00 00
	00		 je	 $LN1@LoadInt_e@2
  00125	8a 50 11	 mov	 dl, BYTE PTR [eax+17]
  00128	84 d2		 test	 dl, dl
  0012a	74 3f		 je	 SHORT $LN79@LoadInt_e@2
  0012c	32 d1		 xor	 dl, cl
  0012e	88 55 f5	 mov	 BYTE PTR __k$[ebp+17], dl
  00131	8a 50 12	 mov	 dl, BYTE PTR [eax+18]
  00134	84 d2		 test	 dl, dl
  00136	74 2d		 je	 SHORT $LN78@LoadInt_e@2
  00138	80 f2 eb	 xor	 dl, -21			; ffffffebH
  0013b	88 55 f6	 mov	 BYTE PTR __k$[ebp+18], dl
  0013e	8a 50 13	 mov	 dl, BYTE PTR [eax+19]
  00141	84 d2		 test	 dl, dl
  00143	74 1a		 je	 SHORT $LN77@LoadInt_e@2
  00145	8a 40 14	 mov	 al, BYTE PTR [eax+20]
  00148	80 f2 ea	 xor	 dl, -22			; ffffffeaH
  0014b	88 55 f7	 mov	 BYTE PTR __k$[ebp+19], dl
  0014e	84 c0		 test	 al, al
  00150	74 07		 je	 SHORT $LN76@LoadInt_e@2
  00152	34 ed		 xor	 al, -19			; ffffffedH
  00154	88 45 f8	 mov	 BYTE PTR __k$[ebp+20], al
  00157	eb 72		 jmp	 SHORT $LN1@LoadInt_e@2
$LN76@LoadInt_e@2:
  00159	c6 45 f8 ed	 mov	 BYTE PTR __k$[ebp+20], -19 ; ffffffedH
  0015d	eb 6c		 jmp	 SHORT $LN1@LoadInt_e@2
$LN77@LoadInt_e@2:
  0015f	c6 45 f7 ea	 mov	 BYTE PTR __k$[ebp+19], -22 ; ffffffeaH
  00163	eb 66		 jmp	 SHORT $LN1@LoadInt_e@2
$LN78@LoadInt_e@2:
  00165	c6 45 f6 eb	 mov	 BYTE PTR __k$[ebp+18], -21 ; ffffffebH
  00169	eb 60		 jmp	 SHORT $LN1@LoadInt_e@2
$LN79@LoadInt_e@2:
  0016b	88 4d f5	 mov	 BYTE PTR __k$[ebp+17], cl
  0016e	eb 5b		 jmp	 SHORT $LN1@LoadInt_e@2
$LN81@LoadInt_e@2:
  00170	c6 45 f3 ea	 mov	 BYTE PTR __k$[ebp+15], -22 ; ffffffeaH
  00174	eb 55		 jmp	 SHORT $LN1@LoadInt_e@2
$LN82@LoadInt_e@2:
  00176	c6 45 f2 eb	 mov	 BYTE PTR __k$[ebp+14], -21 ; ffffffebH
  0017a	eb 4f		 jmp	 SHORT $LN1@LoadInt_e@2
$LN83@LoadInt_e@2:
  0017c	88 4d f1	 mov	 BYTE PTR __k$[ebp+13], cl
  0017f	eb 4a		 jmp	 SHORT $LN1@LoadInt_e@2
$LN84@LoadInt_e@2:
  00181	c6 45 f0 ed	 mov	 BYTE PTR __k$[ebp+12], -19 ; ffffffedH
  00185	eb 44		 jmp	 SHORT $LN1@LoadInt_e@2
$LN85@LoadInt_e@2:
  00187	c6 45 ef ea	 mov	 BYTE PTR __k$[ebp+11], -22 ; ffffffeaH
  0018b	eb 3e		 jmp	 SHORT $LN1@LoadInt_e@2
$LN86@LoadInt_e@2:
  0018d	c6 45 ee eb	 mov	 BYTE PTR __k$[ebp+10], -21 ; ffffffebH
  00191	eb 38		 jmp	 SHORT $LN1@LoadInt_e@2
$LN87@LoadInt_e@2:
  00193	88 4d ed	 mov	 BYTE PTR __k$[ebp+9], cl
  00196	eb 33		 jmp	 SHORT $LN1@LoadInt_e@2
$LN88@LoadInt_e@2:
  00198	c6 45 ec ed	 mov	 BYTE PTR __k$[ebp+8], -19 ; ffffffedH
  0019c	eb 2d		 jmp	 SHORT $LN1@LoadInt_e@2
$LN89@LoadInt_e@2:
  0019e	c6 45 eb ea	 mov	 BYTE PTR __k$[ebp+7], -22 ; ffffffeaH
  001a2	eb 27		 jmp	 SHORT $LN1@LoadInt_e@2
$LN90@LoadInt_e@2:
  001a4	c6 45 ea eb	 mov	 BYTE PTR __k$[ebp+6], -21 ; ffffffebH
  001a8	eb 21		 jmp	 SHORT $LN1@LoadInt_e@2
$LN91@LoadInt_e@2:
  001aa	88 4d e9	 mov	 BYTE PTR __k$[ebp+5], cl
  001ad	eb 1c		 jmp	 SHORT $LN1@LoadInt_e@2
$LN92@LoadInt_e@2:
  001af	c6 45 e8 ed	 mov	 BYTE PTR __k$[ebp+4], -19 ; ffffffedH
  001b3	eb 16		 jmp	 SHORT $LN1@LoadInt_e@2
$LN93@LoadInt_e@2:
  001b5	c6 45 e7 ea	 mov	 BYTE PTR __k$[ebp+3], -22 ; ffffffeaH
  001b9	eb 10		 jmp	 SHORT $LN1@LoadInt_e@2
$LN94@LoadInt_e@2:
  001bb	c6 45 e6 eb	 mov	 BYTE PTR __k$[ebp+2], -21 ; ffffffebH
  001bf	eb 0a		 jmp	 SHORT $LN1@LoadInt_e@2
$LN95@LoadInt_e@2:
  001c1	c6 45 e5 ec	 mov	 BYTE PTR __k$[ebp+1], -20 ; ffffffecH
  001c5	eb 04		 jmp	 SHORT $LN1@LoadInt_e@2
$LN96@LoadInt_e@2:
  001c7	c6 45 e4 ed	 mov	 BYTE PTR __k$[ebp], -19	; ffffffedH
$LN1@LoadInt_e@2:
  001cb	6a 04		 push	 4
  001cd	8d 45 e4	 lea	 eax, DWORD PTR __k$[ebp]
  001d0	c6 45 f4 00	 mov	 BYTE PTR __k$[ebp+16], 0
  001d4	5a		 pop	 edx
$LL104@LoadInt_e@2:
  001d5	81 30 ed ec eb
	ea		 xor	 DWORD PTR [eax], -353637139 ; eaebecedH
  001db	83 c0 04	 add	 eax, 4
  001de	4a		 dec	 edx
  001df	75 f4		 jne	 SHORT $LL104@LoadInt_e@2

; 120  : 		return LoadInt(_k, i);

  001e1	ff 75 0c	 push	 DWORD PTR _i$[ebp]
  001e4	8d 45 e4	 lea	 eax, DWORD PTR __k$[ebp]
  001e7	50		 push	 eax
  001e8	8b ce		 mov	 ecx, esi
  001ea	ff 15 00 00 00
	00		 call	 DWORD PTR __imp_?LoadInt@ioINILoader@@QAEHPBDH@Z

; 121  : 	}

  001f0	8b 4d fc	 mov	 ecx, DWORD PTR __$ArrayPad$[ebp]
  001f3	33 cd		 xor	 ecx, ebp
  001f5	5e		 pop	 esi
  001f6	e8 00 00 00 00	 call	 @__security_check_cookie@4
  001fb	c9		 leave
  001fc	c2 08 00	 ret	 8
??$LoadInt_e@$0BB@@ioINILoader@@QAEHAAY0BB@$$CBDH@Z ENDP ; ioINILoader::LoadInt_e<17>
_TEXT	ENDS
PUBLIC	__$ArrayPad$
PUBLIC	??$LoadInt_e@$0BI@@ioINILoader@@QAEHAAY0BI@$$CBDH@Z ; ioINILoader::LoadInt_e<24>
; Function compile flags: /Ogsp
;	COMDAT ??$LoadInt_e@$0BI@@ioINILoader@@QAEHAAY0BI@$$CBDH@Z
_TEXT	SEGMENT
__k$ = -32						; size = 24
__$ArrayPad$ = -4					; size = 4
_k$ = 8							; size = 4
_i$ = 12						; size = 4
??$LoadInt_e@$0BI@@ioINILoader@@QAEHAAY0BI@$$CBDH@Z PROC ; ioINILoader::LoadInt_e<24>, COMDAT
; _this$ = ecx

; 118  : 	{

  00000	55		 push	 ebp
  00001	8b ec		 mov	 ebp, esp
  00003	83 ec 20	 sub	 esp, 32			; 00000020H
  00006	a1 00 00 00 00	 mov	 eax, DWORD PTR ___security_cookie
  0000b	33 c5		 xor	 eax, ebp
  0000d	89 45 fc	 mov	 DWORD PTR __$ArrayPad$[ebp], eax
  00010	8b 45 08	 mov	 eax, DWORD PTR _k$[ebp]

; 119  : 		_ENCSTR(k, _k);

  00013	8a 10		 mov	 dl, BYTE PTR [eax]
  00015	53		 push	 ebx
  00016	56		 push	 esi
  00017	8b f1		 mov	 esi, ecx
  00019	84 d2		 test	 dl, dl
  0001b	0f 84 45 02 00
	00		 je	 $LN96@LoadInt_e@3
  00021	80 f2 ed	 xor	 dl, -19			; ffffffedH
  00024	88 55 e0	 mov	 BYTE PTR __k$[ebp], dl
  00027	8a 50 01	 mov	 dl, BYTE PTR [eax+1]
  0002a	84 d2		 test	 dl, dl
  0002c	0f 84 2e 02 00
	00		 je	 $LN95@LoadInt_e@3
  00032	b3 ec		 mov	 bl, -20			; ffffffecH
  00034	32 d3		 xor	 dl, bl
  00036	88 55 e1	 mov	 BYTE PTR __k$[ebp+1], dl
  00039	8a 50 02	 mov	 dl, BYTE PTR [eax+2]
  0003c	84 d2		 test	 dl, dl
  0003e	0f 84 16 02 00
	00		 je	 $LN94@LoadInt_e@3
  00044	b1 eb		 mov	 cl, -21			; ffffffebH
  00046	32 d1		 xor	 dl, cl
  00048	88 55 e2	 mov	 BYTE PTR __k$[ebp+2], dl
  0004b	8a 50 03	 mov	 dl, BYTE PTR [eax+3]
  0004e	84 d2		 test	 dl, dl
  00050	0f 84 fe 01 00
	00		 je	 $LN93@LoadInt_e@3
  00056	80 f2 ea	 xor	 dl, -22			; ffffffeaH
  00059	88 55 e3	 mov	 BYTE PTR __k$[ebp+3], dl
  0005c	8a 50 04	 mov	 dl, BYTE PTR [eax+4]
  0005f	84 d2		 test	 dl, dl
  00061	0f 84 e7 01 00
	00		 je	 $LN92@LoadInt_e@3
  00067	80 f2 ed	 xor	 dl, -19			; ffffffedH
  0006a	88 55 e4	 mov	 BYTE PTR __k$[ebp+4], dl
  0006d	8a 50 05	 mov	 dl, BYTE PTR [eax+5]
  00070	84 d2		 test	 dl, dl
  00072	0f 84 d1 01 00
	00		 je	 $LN91@LoadInt_e@3
  00078	32 d3		 xor	 dl, bl
  0007a	88 55 e5	 mov	 BYTE PTR __k$[ebp+5], dl
  0007d	8a 50 06	 mov	 dl, BYTE PTR [eax+6]
  00080	84 d2		 test	 dl, dl
  00082	0f 84 bc 01 00
	00		 je	 $LN90@LoadInt_e@3
  00088	32 d1		 xor	 dl, cl
  0008a	88 55 e6	 mov	 BYTE PTR __k$[ebp+6], dl
  0008d	8a 50 07	 mov	 dl, BYTE PTR [eax+7]
  00090	84 d2		 test	 dl, dl
  00092	0f 84 a6 01 00
	00		 je	 $LN89@LoadInt_e@3
  00098	80 f2 ea	 xor	 dl, -22			; ffffffeaH
  0009b	88 55 e7	 mov	 BYTE PTR __k$[ebp+7], dl
  0009e	8a 50 08	 mov	 dl, BYTE PTR [eax+8]
  000a1	84 d2		 test	 dl, dl
  000a3	0f 84 8f 01 00
	00		 je	 $LN88@LoadInt_e@3
  000a9	80 f2 ed	 xor	 dl, -19			; ffffffedH
  000ac	88 55 e8	 mov	 BYTE PTR __k$[ebp+8], dl
  000af	8a 50 09	 mov	 dl, BYTE PTR [eax+9]
  000b2	84 d2		 test	 dl, dl
  000b4	0f 84 79 01 00
	00		 je	 $LN87@LoadInt_e@3
  000ba	32 d3		 xor	 dl, bl
  000bc	88 55 e9	 mov	 BYTE PTR __k$[ebp+9], dl
  000bf	8a 50 0a	 mov	 dl, BYTE PTR [eax+10]
  000c2	84 d2		 test	 dl, dl
  000c4	0f 84 64 01 00
	00		 je	 $LN86@LoadInt_e@3
  000ca	32 d1		 xor	 dl, cl
  000cc	88 55 ea	 mov	 BYTE PTR __k$[ebp+10], dl
  000cf	8a 50 0b	 mov	 dl, BYTE PTR [eax+11]
  000d2	84 d2		 test	 dl, dl
  000d4	0f 84 4e 01 00
	00		 je	 $LN85@LoadInt_e@3
  000da	80 f2 ea	 xor	 dl, -22			; ffffffeaH
  000dd	88 55 eb	 mov	 BYTE PTR __k$[ebp+11], dl
  000e0	8a 50 0c	 mov	 dl, BYTE PTR [eax+12]
  000e3	84 d2		 test	 dl, dl
  000e5	0f 84 37 01 00
	00		 je	 $LN84@LoadInt_e@3
  000eb	80 f2 ed	 xor	 dl, -19			; ffffffedH
  000ee	88 55 ec	 mov	 BYTE PTR __k$[ebp+12], dl
  000f1	8a 50 0d	 mov	 dl, BYTE PTR [eax+13]
  000f4	84 d2		 test	 dl, dl
  000f6	0f 84 21 01 00
	00		 je	 $LN83@LoadInt_e@3
  000fc	32 d3		 xor	 dl, bl
  000fe	88 55 ed	 mov	 BYTE PTR __k$[ebp+13], dl
  00101	8a 50 0e	 mov	 dl, BYTE PTR [eax+14]
  00104	84 d2		 test	 dl, dl
  00106	0f 84 0c 01 00
	00		 je	 $LN82@LoadInt_e@3
  0010c	32 d1		 xor	 dl, cl
  0010e	88 55 ee	 mov	 BYTE PTR __k$[ebp+14], dl
  00111	8a 50 0f	 mov	 dl, BYTE PTR [eax+15]
  00114	84 d2		 test	 dl, dl
  00116	0f 84 f6 00 00
	00		 je	 $LN81@LoadInt_e@3
  0011c	80 f2 ea	 xor	 dl, -22			; ffffffeaH
  0011f	88 55 ef	 mov	 BYTE PTR __k$[ebp+15], dl
  00122	8a 50 10	 mov	 dl, BYTE PTR [eax+16]
  00125	84 d2		 test	 dl, dl
  00127	0f 84 df 00 00
	00		 je	 $LN80@LoadInt_e@3
  0012d	80 f2 ed	 xor	 dl, -19			; ffffffedH
  00130	88 55 f0	 mov	 BYTE PTR __k$[ebp+16], dl
  00133	8a 50 11	 mov	 dl, BYTE PTR [eax+17]
  00136	84 d2		 test	 dl, dl
  00138	0f 84 c9 00 00
	00		 je	 $LN79@LoadInt_e@3
  0013e	32 d3		 xor	 dl, bl
  00140	88 55 f1	 mov	 BYTE PTR __k$[ebp+17], dl
  00143	8a 50 12	 mov	 dl, BYTE PTR [eax+18]
  00146	84 d2		 test	 dl, dl
  00148	0f 84 b4 00 00
	00		 je	 $LN78@LoadInt_e@3
  0014e	32 d1		 xor	 dl, cl
  00150	88 55 f2	 mov	 BYTE PTR __k$[ebp+18], dl
  00153	8a 50 13	 mov	 dl, BYTE PTR [eax+19]
  00156	84 d2		 test	 dl, dl
  00158	0f 84 9e 00 00
	00		 je	 $LN77@LoadInt_e@3
  0015e	80 f2 ea	 xor	 dl, -22			; ffffffeaH
  00161	88 55 f3	 mov	 BYTE PTR __k$[ebp+19], dl
  00164	8a 50 14	 mov	 dl, BYTE PTR [eax+20]
  00167	84 d2		 test	 dl, dl
  00169	0f 84 87 00 00
	00		 je	 $LN76@LoadInt_e@3
  0016f	80 f2 ed	 xor	 dl, -19			; ffffffedH
  00172	88 55 f4	 mov	 BYTE PTR __k$[ebp+20], dl
  00175	8a 50 15	 mov	 dl, BYTE PTR [eax+21]
  00178	84 d2		 test	 dl, dl
  0017a	74 75		 je	 SHORT $LN75@LoadInt_e@3
  0017c	32 d3		 xor	 dl, bl
  0017e	88 55 f5	 mov	 BYTE PTR __k$[ebp+21], dl
  00181	8a 50 16	 mov	 dl, BYTE PTR [eax+22]
  00184	84 d2		 test	 dl, dl
  00186	74 64		 je	 SHORT $LN74@LoadInt_e@3
  00188	32 d1		 xor	 dl, cl
  0018a	80 78 17 00	 cmp	 BYTE PTR [eax+23], 0
  0018e	88 55 f6	 mov	 BYTE PTR __k$[ebp+22], dl
  00191	0f 84 d3 00 00
	00		 je	 $LN1@LoadInt_e@3
  00197	8a 50 18	 mov	 dl, BYTE PTR [eax+24]
  0019a	84 d2		 test	 dl, dl
  0019c	74 48		 je	 SHORT $LN72@LoadInt_e@3
  0019e	80 f2 ed	 xor	 dl, -19			; ffffffedH
  001a1	88 55 f8	 mov	 BYTE PTR __k$[ebp+24], dl
  001a4	8a 50 19	 mov	 dl, BYTE PTR [eax+25]
  001a7	84 d2		 test	 dl, dl
  001a9	74 33		 je	 SHORT $LN71@LoadInt_e@3
  001ab	32 d3		 xor	 dl, bl
  001ad	88 55 f9	 mov	 BYTE PTR __k$[ebp+25], dl
  001b0	8a 50 1a	 mov	 dl, BYTE PTR [eax+26]
  001b3	84 d2		 test	 dl, dl
  001b5	74 1f		 je	 SHORT $LN70@LoadInt_e@3
  001b7	8a 40 1b	 mov	 al, BYTE PTR [eax+27]
  001ba	32 d1		 xor	 dl, cl
  001bc	88 55 fa	 mov	 BYTE PTR __k$[ebp+26], dl
  001bf	84 c0		 test	 al, al
  001c1	74 0a		 je	 SHORT $LN69@LoadInt_e@3
  001c3	34 ea		 xor	 al, -22			; ffffffeaH
  001c5	88 45 fb	 mov	 BYTE PTR __k$[ebp+27], al
  001c8	e9 9d 00 00 00	 jmp	 $LN1@LoadInt_e@3
$LN69@LoadInt_e@3:
  001cd	c6 45 fb ea	 mov	 BYTE PTR __k$[ebp+27], -22 ; ffffffeaH
  001d1	e9 94 00 00 00	 jmp	 $LN1@LoadInt_e@3
$LN70@LoadInt_e@3:
  001d6	88 4d fa	 mov	 BYTE PTR __k$[ebp+26], cl
  001d9	e9 8c 00 00 00	 jmp	 $LN1@LoadInt_e@3
$LN71@LoadInt_e@3:
  001de	88 5d f9	 mov	 BYTE PTR __k$[ebp+25], bl
  001e1	e9 84 00 00 00	 jmp	 $LN1@LoadInt_e@3
$LN72@LoadInt_e@3:
  001e6	c6 45 f8 ed	 mov	 BYTE PTR __k$[ebp+24], -19 ; ffffffedH
  001ea	eb 7e		 jmp	 SHORT $LN1@LoadInt_e@3
$LN74@LoadInt_e@3:
  001ec	88 4d f6	 mov	 BYTE PTR __k$[ebp+22], cl
  001ef	eb 79		 jmp	 SHORT $LN1@LoadInt_e@3
$LN75@LoadInt_e@3:
  001f1	88 5d f5	 mov	 BYTE PTR __k$[ebp+21], bl
  001f4	eb 74		 jmp	 SHORT $LN1@LoadInt_e@3
$LN76@LoadInt_e@3:
  001f6	c6 45 f4 ed	 mov	 BYTE PTR __k$[ebp+20], -19 ; ffffffedH
  001fa	eb 6e		 jmp	 SHORT $LN1@LoadInt_e@3
$LN77@LoadInt_e@3:
  001fc	c6 45 f3 ea	 mov	 BYTE PTR __k$[ebp+19], -22 ; ffffffeaH
  00200	eb 68		 jmp	 SHORT $LN1@LoadInt_e@3
$LN78@LoadInt_e@3:
  00202	88 4d f2	 mov	 BYTE PTR __k$[ebp+18], cl
  00205	eb 63		 jmp	 SHORT $LN1@LoadInt_e@3
$LN79@LoadInt_e@3:
  00207	88 5d f1	 mov	 BYTE PTR __k$[ebp+17], bl
  0020a	eb 5e		 jmp	 SHORT $LN1@LoadInt_e@3
$LN80@LoadInt_e@3:
  0020c	c6 45 f0 ed	 mov	 BYTE PTR __k$[ebp+16], -19 ; ffffffedH
  00210	eb 58		 jmp	 SHORT $LN1@LoadInt_e@3
$LN81@LoadInt_e@3:
  00212	c6 45 ef ea	 mov	 BYTE PTR __k$[ebp+15], -22 ; ffffffeaH
  00216	eb 52		 jmp	 SHORT $LN1@LoadInt_e@3
$LN82@LoadInt_e@3:
  00218	88 4d ee	 mov	 BYTE PTR __k$[ebp+14], cl
  0021b	eb 4d		 jmp	 SHORT $LN1@LoadInt_e@3
$LN83@LoadInt_e@3:
  0021d	88 5d ed	 mov	 BYTE PTR __k$[ebp+13], bl
  00220	eb 48		 jmp	 SHORT $LN1@LoadInt_e@3
$LN84@LoadInt_e@3:
  00222	c6 45 ec ed	 mov	 BYTE PTR __k$[ebp+12], -19 ; ffffffedH
  00226	eb 42		 jmp	 SHORT $LN1@LoadInt_e@3
$LN85@LoadInt_e@3:
  00228	c6 45 eb ea	 mov	 BYTE PTR __k$[ebp+11], -22 ; ffffffeaH
  0022c	eb 3c		 jmp	 SHORT $LN1@LoadInt_e@3
$LN86@LoadInt_e@3:
  0022e	88 4d ea	 mov	 BYTE PTR __k$[ebp+10], cl
  00231	eb 37		 jmp	 SHORT $LN1@LoadInt_e@3
$LN87@LoadInt_e@3:
  00233	88 5d e9	 mov	 BYTE PTR __k$[ebp+9], bl
  00236	eb 32		 jmp	 SHORT $LN1@LoadInt_e@3
$LN88@LoadInt_e@3:
  00238	c6 45 e8 ed	 mov	 BYTE PTR __k$[ebp+8], -19 ; ffffffedH
  0023c	eb 2c		 jmp	 SHORT $LN1@LoadInt_e@3
$LN89@LoadInt_e@3:
  0023e	c6 45 e7 ea	 mov	 BYTE PTR __k$[ebp+7], -22 ; ffffffeaH
  00242	eb 26		 jmp	 SHORT $LN1@LoadInt_e@3
$LN90@LoadInt_e@3:
  00244	88 4d e6	 mov	 BYTE PTR __k$[ebp+6], cl
  00247	eb 21		 jmp	 SHORT $LN1@LoadInt_e@3
$LN91@LoadInt_e@3:
  00249	88 5d e5	 mov	 BYTE PTR __k$[ebp+5], bl
  0024c	eb 1c		 jmp	 SHORT $LN1@LoadInt_e@3
$LN92@LoadInt_e@3:
  0024e	c6 45 e4 ed	 mov	 BYTE PTR __k$[ebp+4], -19 ; ffffffedH
  00252	eb 16		 jmp	 SHORT $LN1@LoadInt_e@3
$LN93@LoadInt_e@3:
  00254	c6 45 e3 ea	 mov	 BYTE PTR __k$[ebp+3], -22 ; ffffffeaH
  00258	eb 10		 jmp	 SHORT $LN1@LoadInt_e@3
$LN94@LoadInt_e@3:
  0025a	c6 45 e2 eb	 mov	 BYTE PTR __k$[ebp+2], -21 ; ffffffebH
  0025e	eb 0a		 jmp	 SHORT $LN1@LoadInt_e@3
$LN95@LoadInt_e@3:
  00260	c6 45 e1 ec	 mov	 BYTE PTR __k$[ebp+1], -20 ; ffffffecH
  00264	eb 04		 jmp	 SHORT $LN1@LoadInt_e@3
$LN96@LoadInt_e@3:
  00266	c6 45 e0 ed	 mov	 BYTE PTR __k$[ebp], -19	; ffffffedH
$LN1@LoadInt_e@3:
  0026a	6a 05		 push	 5
  0026c	8d 45 e0	 lea	 eax, DWORD PTR __k$[ebp]
  0026f	c6 45 f7 00	 mov	 BYTE PTR __k$[ebp+23], 0
  00273	5a		 pop	 edx
$LL104@LoadInt_e@3:
  00274	81 30 ed ec eb
	ea		 xor	 DWORD PTR [eax], -353637139 ; eaebecedH
  0027a	83 c0 04	 add	 eax, 4
  0027d	4a		 dec	 edx
  0027e	75 f4		 jne	 SHORT $LL104@LoadInt_e@3
  00280	6a 14		 push	 20			; 00000014H
  00282	58		 pop	 eax
$LL101@LoadInt_e@3:
  00283	8b c8		 mov	 ecx, eax
  00285	81 e1 03 00 00
	80		 and	 ecx, -2147483645	; 80000003H
  0028b	79 05		 jns	 SHORT $LN111@LoadInt_e@3
  0028d	49		 dec	 ecx
  0028e	83 c9 fc	 or	 ecx, -4			; fffffffcH
  00291	41		 inc	 ecx
$LN111@LoadInt_e@3:
  00292	b2 ed		 mov	 dl, -19			; ffffffedH
  00294	2a d1		 sub	 dl, cl
  00296	30 54 05 e0	 xor	 BYTE PTR __k$[ebp+eax], dl
  0029a	40		 inc	 eax
  0029b	83 f8 17	 cmp	 eax, 23			; 00000017H
  0029e	7c e3		 jl	 SHORT $LL101@LoadInt_e@3

; 120  : 		return LoadInt(_k, i);

  002a0	ff 75 0c	 push	 DWORD PTR _i$[ebp]
  002a3	8d 45 e0	 lea	 eax, DWORD PTR __k$[ebp]
  002a6	50		 push	 eax
  002a7	8b ce		 mov	 ecx, esi
  002a9	ff 15 00 00 00
	00		 call	 DWORD PTR __imp_?LoadInt@ioINILoader@@QAEHPBDH@Z

; 121  : 	}

  002af	8b 4d fc	 mov	 ecx, DWORD PTR __$ArrayPad$[ebp]
  002b2	5e		 pop	 esi
  002b3	33 cd		 xor	 ecx, ebp
  002b5	5b		 pop	 ebx
  002b6	e8 00 00 00 00	 call	 @__security_check_cookie@4
  002bb	c9		 leave
  002bc	c2 08 00	 ret	 8
??$LoadInt_e@$0BI@@ioINILoader@@QAEHAAY0BI@$$CBDH@Z ENDP ; ioINILoader::LoadInt_e<24>
_TEXT	ENDS
PUBLIC	__$ArrayPad$
PUBLIC	??$LoadBool_e@$0BA@@ioINILoader@@QAE_NAAY0BA@$$CBD_N@Z ; ioINILoader::LoadBool_e<16>
EXTRN	__imp_?LoadBool@ioINILoader@@QAE_NPBD_N@Z:PROC
; Function compile flags: /Ogsp
;	COMDAT ??$LoadBool_e@$0BA@@ioINILoader@@QAE_NAAY0BA@$$CBD_N@Z
_TEXT	SEGMENT
__k$ = -24						; size = 16
__$ArrayPad$ = -4					; size = 4
_k$ = 8							; size = 4
_b$ = 12						; size = 1
??$LoadBool_e@$0BA@@ioINILoader@@QAE_NAAY0BA@$$CBD_N@Z PROC ; ioINILoader::LoadBool_e<16>, COMDAT
; _this$ = ecx

; 101  : 	{

  00000	55		 push	 ebp
  00001	8b ec		 mov	 ebp, esp
  00003	83 ec 18	 sub	 esp, 24			; 00000018H
  00006	a1 00 00 00 00	 mov	 eax, DWORD PTR ___security_cookie
  0000b	33 c5		 xor	 eax, ebp
  0000d	89 45 fc	 mov	 DWORD PTR __$ArrayPad$[ebp], eax
  00010	8b 45 08	 mov	 eax, DWORD PTR _k$[ebp]

; 102  : 		_ENCSTR(k, _k);

  00013	8a 10		 mov	 dl, BYTE PTR [eax]
  00015	56		 push	 esi
  00016	8b f1		 mov	 esi, ecx
  00018	84 d2		 test	 dl, dl
  0001a	0f 84 8c 01 00
	00		 je	 $LN96@LoadBool_e
  00020	80 f2 ed	 xor	 dl, -19			; ffffffedH
  00023	88 55 e8	 mov	 BYTE PTR __k$[ebp], dl
  00026	8a 50 01	 mov	 dl, BYTE PTR [eax+1]
  00029	84 d2		 test	 dl, dl
  0002b	0f 84 75 01 00
	00		 je	 $LN95@LoadBool_e
  00031	80 f2 ec	 xor	 dl, -20			; ffffffecH
  00034	88 55 e9	 mov	 BYTE PTR __k$[ebp+1], dl
  00037	8a 50 02	 mov	 dl, BYTE PTR [eax+2]
  0003a	84 d2		 test	 dl, dl
  0003c	0f 84 5e 01 00
	00		 je	 $LN94@LoadBool_e
  00042	b1 eb		 mov	 cl, -21			; ffffffebH
  00044	32 d1		 xor	 dl, cl
  00046	88 55 ea	 mov	 BYTE PTR __k$[ebp+2], dl
  00049	8a 50 03	 mov	 dl, BYTE PTR [eax+3]
  0004c	84 d2		 test	 dl, dl
  0004e	0f 84 46 01 00
	00		 je	 $LN93@LoadBool_e
  00054	80 f2 ea	 xor	 dl, -22			; ffffffeaH
  00057	88 55 eb	 mov	 BYTE PTR __k$[ebp+3], dl
  0005a	8a 50 04	 mov	 dl, BYTE PTR [eax+4]
  0005d	84 d2		 test	 dl, dl
  0005f	0f 84 2f 01 00
	00		 je	 $LN92@LoadBool_e
  00065	80 f2 ed	 xor	 dl, -19			; ffffffedH
  00068	88 55 ec	 mov	 BYTE PTR __k$[ebp+4], dl
  0006b	8a 50 05	 mov	 dl, BYTE PTR [eax+5]
  0006e	84 d2		 test	 dl, dl
  00070	0f 84 18 01 00
	00		 je	 $LN91@LoadBool_e
  00076	80 f2 ec	 xor	 dl, -20			; ffffffecH
  00079	88 55 ed	 mov	 BYTE PTR __k$[ebp+5], dl
  0007c	8a 50 06	 mov	 dl, BYTE PTR [eax+6]
  0007f	84 d2		 test	 dl, dl
  00081	0f 84 02 01 00
	00		 je	 $LN90@LoadBool_e
  00087	32 d1		 xor	 dl, cl
  00089	88 55 ee	 mov	 BYTE PTR __k$[ebp+6], dl
  0008c	8a 50 07	 mov	 dl, BYTE PTR [eax+7]
  0008f	84 d2		 test	 dl, dl
  00091	0f 84 ec 00 00
	00		 je	 $LN89@LoadBool_e
  00097	80 f2 ea	 xor	 dl, -22			; ffffffeaH
  0009a	88 55 ef	 mov	 BYTE PTR __k$[ebp+7], dl
  0009d	8a 50 08	 mov	 dl, BYTE PTR [eax+8]
  000a0	84 d2		 test	 dl, dl
  000a2	0f 84 d5 00 00
	00		 je	 $LN88@LoadBool_e
  000a8	80 f2 ed	 xor	 dl, -19			; ffffffedH
  000ab	88 55 f0	 mov	 BYTE PTR __k$[ebp+8], dl
  000ae	8a 50 09	 mov	 dl, BYTE PTR [eax+9]
  000b1	84 d2		 test	 dl, dl
  000b3	0f 84 be 00 00
	00		 je	 $LN87@LoadBool_e
  000b9	80 f2 ec	 xor	 dl, -20			; ffffffecH
  000bc	88 55 f1	 mov	 BYTE PTR __k$[ebp+9], dl
  000bf	8a 50 0a	 mov	 dl, BYTE PTR [eax+10]
  000c2	84 d2		 test	 dl, dl
  000c4	0f 84 a8 00 00
	00		 je	 $LN86@LoadBool_e
  000ca	32 d1		 xor	 dl, cl
  000cc	88 55 f2	 mov	 BYTE PTR __k$[ebp+10], dl
  000cf	8a 50 0b	 mov	 dl, BYTE PTR [eax+11]
  000d2	84 d2		 test	 dl, dl
  000d4	0f 84 92 00 00
	00		 je	 $LN85@LoadBool_e
  000da	80 f2 ea	 xor	 dl, -22			; ffffffeaH
  000dd	88 55 f3	 mov	 BYTE PTR __k$[ebp+11], dl
  000e0	8a 50 0c	 mov	 dl, BYTE PTR [eax+12]
  000e3	84 d2		 test	 dl, dl
  000e5	74 7f		 je	 SHORT $LN84@LoadBool_e
  000e7	80 f2 ed	 xor	 dl, -19			; ffffffedH
  000ea	88 55 f4	 mov	 BYTE PTR __k$[ebp+12], dl
  000ed	8a 50 0d	 mov	 dl, BYTE PTR [eax+13]
  000f0	84 d2		 test	 dl, dl
  000f2	74 6c		 je	 SHORT $LN83@LoadBool_e
  000f4	80 f2 ec	 xor	 dl, -20			; ffffffecH
  000f7	88 55 f5	 mov	 BYTE PTR __k$[ebp+13], dl
  000fa	8a 50 0e	 mov	 dl, BYTE PTR [eax+14]
  000fd	84 d2		 test	 dl, dl
  000ff	74 5a		 je	 SHORT $LN82@LoadBool_e
  00101	32 d1		 xor	 dl, cl
  00103	80 78 0f 00	 cmp	 BYTE PTR [eax+15], 0
  00107	88 55 f6	 mov	 BYTE PTR __k$[ebp+14], dl
  0010a	0f 84 a0 00 00
	00		 je	 $LN1@LoadBool_e
  00110	8a 50 10	 mov	 dl, BYTE PTR [eax+16]
  00113	84 d2		 test	 dl, dl
  00115	74 3e		 je	 SHORT $LN80@LoadBool_e
  00117	80 f2 ed	 xor	 dl, -19			; ffffffedH
  0011a	88 55 f8	 mov	 BYTE PTR __k$[ebp+16], dl
  0011d	8a 50 11	 mov	 dl, BYTE PTR [eax+17]
  00120	84 d2		 test	 dl, dl
  00122	74 2b		 je	 SHORT $LN79@LoadBool_e
  00124	80 f2 ec	 xor	 dl, -20			; ffffffecH
  00127	88 55 f9	 mov	 BYTE PTR __k$[ebp+17], dl
  0012a	8a 50 12	 mov	 dl, BYTE PTR [eax+18]
  0012d	84 d2		 test	 dl, dl
  0012f	74 19		 je	 SHORT $LN78@LoadBool_e
  00131	8a 40 13	 mov	 al, BYTE PTR [eax+19]
  00134	32 d1		 xor	 dl, cl
  00136	88 55 fa	 mov	 BYTE PTR __k$[ebp+18], dl
  00139	84 c0		 test	 al, al
  0013b	74 07		 je	 SHORT $LN77@LoadBool_e
  0013d	34 ea		 xor	 al, -22			; ffffffeaH
  0013f	88 45 fb	 mov	 BYTE PTR __k$[ebp+19], al
  00142	eb 6c		 jmp	 SHORT $LN1@LoadBool_e
$LN77@LoadBool_e:
  00144	c6 45 fb ea	 mov	 BYTE PTR __k$[ebp+19], -22 ; ffffffeaH
  00148	eb 66		 jmp	 SHORT $LN1@LoadBool_e
$LN78@LoadBool_e:
  0014a	88 4d fa	 mov	 BYTE PTR __k$[ebp+18], cl
  0014d	eb 61		 jmp	 SHORT $LN1@LoadBool_e
$LN79@LoadBool_e:
  0014f	c6 45 f9 ec	 mov	 BYTE PTR __k$[ebp+17], -20 ; ffffffecH
  00153	eb 5b		 jmp	 SHORT $LN1@LoadBool_e
$LN80@LoadBool_e:
  00155	c6 45 f8 ed	 mov	 BYTE PTR __k$[ebp+16], -19 ; ffffffedH
  00159	eb 55		 jmp	 SHORT $LN1@LoadBool_e
$LN82@LoadBool_e:
  0015b	88 4d f6	 mov	 BYTE PTR __k$[ebp+14], cl
  0015e	eb 50		 jmp	 SHORT $LN1@LoadBool_e
$LN83@LoadBool_e:
  00160	c6 45 f5 ec	 mov	 BYTE PTR __k$[ebp+13], -20 ; ffffffecH
  00164	eb 4a		 jmp	 SHORT $LN1@LoadBool_e
$LN84@LoadBool_e:
  00166	c6 45 f4 ed	 mov	 BYTE PTR __k$[ebp+12], -19 ; ffffffedH
  0016a	eb 44		 jmp	 SHORT $LN1@LoadBool_e
$LN85@LoadBool_e:
  0016c	c6 45 f3 ea	 mov	 BYTE PTR __k$[ebp+11], -22 ; ffffffeaH
  00170	eb 3e		 jmp	 SHORT $LN1@LoadBool_e
$LN86@LoadBool_e:
  00172	88 4d f2	 mov	 BYTE PTR __k$[ebp+10], cl
  00175	eb 39		 jmp	 SHORT $LN1@LoadBool_e
$LN87@LoadBool_e:
  00177	c6 45 f1 ec	 mov	 BYTE PTR __k$[ebp+9], -20 ; ffffffecH
  0017b	eb 33		 jmp	 SHORT $LN1@LoadBool_e
$LN88@LoadBool_e:
  0017d	c6 45 f0 ed	 mov	 BYTE PTR __k$[ebp+8], -19 ; ffffffedH
  00181	eb 2d		 jmp	 SHORT $LN1@LoadBool_e
$LN89@LoadBool_e:
  00183	c6 45 ef ea	 mov	 BYTE PTR __k$[ebp+7], -22 ; ffffffeaH
  00187	eb 27		 jmp	 SHORT $LN1@LoadBool_e
$LN90@LoadBool_e:
  00189	88 4d ee	 mov	 BYTE PTR __k$[ebp+6], cl
  0018c	eb 22		 jmp	 SHORT $LN1@LoadBool_e
$LN91@LoadBool_e:
  0018e	c6 45 ed ec	 mov	 BYTE PTR __k$[ebp+5], -20 ; ffffffecH
  00192	eb 1c		 jmp	 SHORT $LN1@LoadBool_e
$LN92@LoadBool_e:
  00194	c6 45 ec ed	 mov	 BYTE PTR __k$[ebp+4], -19 ; ffffffedH
  00198	eb 16		 jmp	 SHORT $LN1@LoadBool_e
$LN93@LoadBool_e:
  0019a	c6 45 eb ea	 mov	 BYTE PTR __k$[ebp+3], -22 ; ffffffeaH
  0019e	eb 10		 jmp	 SHORT $LN1@LoadBool_e
$LN94@LoadBool_e:
  001a0	c6 45 ea eb	 mov	 BYTE PTR __k$[ebp+2], -21 ; ffffffebH
  001a4	eb 0a		 jmp	 SHORT $LN1@LoadBool_e
$LN95@LoadBool_e:
  001a6	c6 45 e9 ec	 mov	 BYTE PTR __k$[ebp+1], -20 ; ffffffecH
  001aa	eb 04		 jmp	 SHORT $LN1@LoadBool_e
$LN96@LoadBool_e:
  001ac	c6 45 e8 ed	 mov	 BYTE PTR __k$[ebp], -19	; ffffffedH
$LN1@LoadBool_e:
  001b0	6a 03		 push	 3
  001b2	8d 45 e8	 lea	 eax, DWORD PTR __k$[ebp]
  001b5	c6 45 f7 00	 mov	 BYTE PTR __k$[ebp+15], 0
  001b9	5a		 pop	 edx
$LL104@LoadBool_e:
  001ba	81 30 ed ec eb
	ea		 xor	 DWORD PTR [eax], -353637139 ; eaebecedH
  001c0	83 c0 04	 add	 eax, 4
  001c3	4a		 dec	 edx
  001c4	75 f4		 jne	 SHORT $LL104@LoadBool_e
  001c6	6a 0c		 push	 12			; 0000000cH
  001c8	58		 pop	 eax
$LL101@LoadBool_e:
  001c9	8b c8		 mov	 ecx, eax
  001cb	81 e1 03 00 00
	80		 and	 ecx, -2147483645	; 80000003H
  001d1	79 05		 jns	 SHORT $LN111@LoadBool_e
  001d3	49		 dec	 ecx
  001d4	83 c9 fc	 or	 ecx, -4			; fffffffcH
  001d7	41		 inc	 ecx
$LN111@LoadBool_e:
  001d8	b2 ed		 mov	 dl, -19			; ffffffedH
  001da	2a d1		 sub	 dl, cl
  001dc	30 54 05 e8	 xor	 BYTE PTR __k$[ebp+eax], dl
  001e0	40		 inc	 eax
  001e1	83 f8 0f	 cmp	 eax, 15			; 0000000fH
  001e4	7c e3		 jl	 SHORT $LL101@LoadBool_e

; 103  : 		return LoadBool(_k, b);

  001e6	ff 75 0c	 push	 DWORD PTR _b$[ebp]
  001e9	8d 45 e8	 lea	 eax, DWORD PTR __k$[ebp]
  001ec	50		 push	 eax
  001ed	8b ce		 mov	 ecx, esi
  001ef	ff 15 00 00 00
	00		 call	 DWORD PTR __imp_?LoadBool@ioINILoader@@QAE_NPBD_N@Z

; 104  : 	}

  001f5	8b 4d fc	 mov	 ecx, DWORD PTR __$ArrayPad$[ebp]
  001f8	33 cd		 xor	 ecx, ebp
  001fa	5e		 pop	 esi
  001fb	e8 00 00 00 00	 call	 @__security_check_cookie@4
  00200	c9		 leave
  00201	c2 08 00	 ret	 8
??$LoadBool_e@$0BA@@ioINILoader@@QAE_NAAY0BA@$$CBD_N@Z ENDP ; ioINILoader::LoadBool_e<16>
_TEXT	ENDS
PUBLIC	??$encodeString@$0P@@ioINILoader_e@@AAEPADAAY0P@$$CBDPAD@Z ; ioINILoader_e::encodeString<15>
; Function compile flags: /Ogsp
;	COMDAT ??$encodeString@$0P@@ioINILoader_e@@AAEPADAAY0P@$$CBDPAD@Z
_TEXT	SEGMENT
_s$ = 8							; size = 4
_e$ = 12						; size = 4
??$encodeString@$0P@@ioINILoader_e@@AAEPADAAY0P@$$CBDPAD@Z PROC ; ioINILoader_e::encodeString<15>, COMDAT
; _this$ = ecx

; 215  : 	{

  00000	55		 push	 ebp
  00001	8b ec		 mov	 ebp, esp

; 216  : 		__ENCSTR(s, e);

  00003	8b 4d 08	 mov	 ecx, DWORD PTR _s$[ebp]
  00006	8a 11		 mov	 dl, BYTE PTR [ecx]
  00008	8b 45 0c	 mov	 eax, DWORD PTR _e$[ebp]
  0000b	53		 push	 ebx
  0000c	84 d2		 test	 dl, dl
  0000e	0f 84 6a 04 00
	00		 je	 $LN96@encodeStri
  00014	80 f2 ed	 xor	 dl, -19			; ffffffedH
  00017	88 10		 mov	 BYTE PTR [eax], dl
  00019	8a 51 01	 mov	 dl, BYTE PTR [ecx+1]
  0001c	84 d2		 test	 dl, dl
  0001e	0f 84 54 04 00
	00		 je	 $LN95@encodeStri
  00024	80 f2 ec	 xor	 dl, -20			; ffffffecH
  00027	88 50 01	 mov	 BYTE PTR [eax+1], dl
  0002a	8a 51 02	 mov	 dl, BYTE PTR [ecx+2]
  0002d	84 d2		 test	 dl, dl
  0002f	0f 84 3d 04 00
	00		 je	 $LN94@encodeStri
  00035	b3 eb		 mov	 bl, -21			; ffffffebH
  00037	32 d3		 xor	 dl, bl
  00039	88 50 02	 mov	 BYTE PTR [eax+2], dl
  0003c	8a 51 03	 mov	 dl, BYTE PTR [ecx+3]
  0003f	84 d2		 test	 dl, dl
  00041	0f 84 25 04 00
	00		 je	 $LN93@encodeStri
  00047	80 f2 ea	 xor	 dl, -22			; ffffffeaH
  0004a	88 50 03	 mov	 BYTE PTR [eax+3], dl
  0004d	8a 51 04	 mov	 dl, BYTE PTR [ecx+4]
  00050	84 d2		 test	 dl, dl
  00052	0f 84 0e 04 00
	00		 je	 $LN92@encodeStri
  00058	80 f2 ed	 xor	 dl, -19			; ffffffedH
  0005b	88 50 04	 mov	 BYTE PTR [eax+4], dl
  0005e	8a 51 05	 mov	 dl, BYTE PTR [ecx+5]
  00061	84 d2		 test	 dl, dl
  00063	0f 84 f7 03 00
	00		 je	 $LN91@encodeStri
  00069	80 f2 ec	 xor	 dl, -20			; ffffffecH
  0006c	88 50 05	 mov	 BYTE PTR [eax+5], dl
  0006f	8a 51 06	 mov	 dl, BYTE PTR [ecx+6]
  00072	84 d2		 test	 dl, dl
  00074	0f 84 e1 03 00
	00		 je	 $LN90@encodeStri
  0007a	32 d3		 xor	 dl, bl
  0007c	88 50 06	 mov	 BYTE PTR [eax+6], dl
  0007f	8a 51 07	 mov	 dl, BYTE PTR [ecx+7]
  00082	84 d2		 test	 dl, dl
  00084	0f 84 cb 03 00
	00		 je	 $LN89@encodeStri
  0008a	80 f2 ea	 xor	 dl, -22			; ffffffeaH
  0008d	88 50 07	 mov	 BYTE PTR [eax+7], dl
  00090	8a 51 08	 mov	 dl, BYTE PTR [ecx+8]
  00093	84 d2		 test	 dl, dl
  00095	0f 84 b4 03 00
	00		 je	 $LN88@encodeStri
  0009b	80 f2 ed	 xor	 dl, -19			; ffffffedH
  0009e	88 50 08	 mov	 BYTE PTR [eax+8], dl
  000a1	8a 51 09	 mov	 dl, BYTE PTR [ecx+9]
  000a4	84 d2		 test	 dl, dl
  000a6	0f 84 9d 03 00
	00		 je	 $LN87@encodeStri
  000ac	80 f2 ec	 xor	 dl, -20			; ffffffecH
  000af	88 50 09	 mov	 BYTE PTR [eax+9], dl
  000b2	8a 51 0a	 mov	 dl, BYTE PTR [ecx+10]
  000b5	84 d2		 test	 dl, dl
  000b7	0f 84 87 03 00
	00		 je	 $LN86@encodeStri
  000bd	32 d3		 xor	 dl, bl
  000bf	88 50 0a	 mov	 BYTE PTR [eax+10], dl
  000c2	8a 51 0b	 mov	 dl, BYTE PTR [ecx+11]
  000c5	84 d2		 test	 dl, dl
  000c7	0f 84 71 03 00
	00		 je	 $LN85@encodeStri
  000cd	80 f2 ea	 xor	 dl, -22			; ffffffeaH
  000d0	88 50 0b	 mov	 BYTE PTR [eax+11], dl
  000d3	8a 51 0c	 mov	 dl, BYTE PTR [ecx+12]
  000d6	84 d2		 test	 dl, dl
  000d8	0f 84 5a 03 00
	00		 je	 $LN84@encodeStri
  000de	80 f2 ed	 xor	 dl, -19			; ffffffedH
  000e1	88 50 0c	 mov	 BYTE PTR [eax+12], dl
  000e4	8a 51 0d	 mov	 dl, BYTE PTR [ecx+13]
  000e7	84 d2		 test	 dl, dl
  000e9	0f 84 43 03 00
	00		 je	 $LN83@encodeStri
  000ef	80 f2 ec	 xor	 dl, -20			; ffffffecH
  000f2	88 50 0d	 mov	 BYTE PTR [eax+13], dl
  000f5	8a 51 0e	 mov	 dl, BYTE PTR [ecx+14]
  000f8	84 d2		 test	 dl, dl
  000fa	0f 84 2d 03 00
	00		 je	 $LN82@encodeStri
  00100	32 d3		 xor	 dl, bl
  00102	88 50 0e	 mov	 BYTE PTR [eax+14], dl
  00105	8a 51 0f	 mov	 dl, BYTE PTR [ecx+15]
  00108	84 d2		 test	 dl, dl
  0010a	0f 84 17 03 00
	00		 je	 $LN81@encodeStri
  00110	80 f2 ea	 xor	 dl, -22			; ffffffeaH
  00113	88 50 0f	 mov	 BYTE PTR [eax+15], dl
  00116	8a 51 10	 mov	 dl, BYTE PTR [ecx+16]
  00119	84 d2		 test	 dl, dl
  0011b	0f 84 00 03 00
	00		 je	 $LN80@encodeStri
  00121	80 f2 ed	 xor	 dl, -19			; ffffffedH
  00124	88 50 10	 mov	 BYTE PTR [eax+16], dl
  00127	8a 51 11	 mov	 dl, BYTE PTR [ecx+17]
  0012a	84 d2		 test	 dl, dl
  0012c	0f 84 e9 02 00
	00		 je	 $LN79@encodeStri
  00132	80 f2 ec	 xor	 dl, -20			; ffffffecH
  00135	88 50 11	 mov	 BYTE PTR [eax+17], dl
  00138	8a 51 12	 mov	 dl, BYTE PTR [ecx+18]
  0013b	84 d2		 test	 dl, dl
  0013d	0f 84 d3 02 00
	00		 je	 $LN78@encodeStri
  00143	32 d3		 xor	 dl, bl
  00145	88 50 12	 mov	 BYTE PTR [eax+18], dl
  00148	8a 51 13	 mov	 dl, BYTE PTR [ecx+19]
  0014b	84 d2		 test	 dl, dl
  0014d	0f 84 bd 02 00
	00		 je	 $LN77@encodeStri
  00153	80 f2 ea	 xor	 dl, -22			; ffffffeaH
  00156	88 50 13	 mov	 BYTE PTR [eax+19], dl
  00159	8a 51 14	 mov	 dl, BYTE PTR [ecx+20]
  0015c	84 d2		 test	 dl, dl
  0015e	0f 84 a6 02 00
	00		 je	 $LN76@encodeStri
  00164	80 f2 ed	 xor	 dl, -19			; ffffffedH
  00167	88 50 14	 mov	 BYTE PTR [eax+20], dl
  0016a	8a 51 15	 mov	 dl, BYTE PTR [ecx+21]
  0016d	84 d2		 test	 dl, dl
  0016f	0f 84 8f 02 00
	00		 je	 $LN75@encodeStri
  00175	80 f2 ec	 xor	 dl, -20			; ffffffecH
  00178	88 50 15	 mov	 BYTE PTR [eax+21], dl
  0017b	8a 51 16	 mov	 dl, BYTE PTR [ecx+22]
  0017e	84 d2		 test	 dl, dl
  00180	0f 84 79 02 00
	00		 je	 $LN74@encodeStri
  00186	32 d3		 xor	 dl, bl
  00188	88 50 16	 mov	 BYTE PTR [eax+22], dl
  0018b	8a 51 17	 mov	 dl, BYTE PTR [ecx+23]
  0018e	84 d2		 test	 dl, dl
  00190	0f 84 60 02 00
	00		 je	 $LN73@encodeStri
  00196	80 f2 ea	 xor	 dl, -22			; ffffffeaH
  00199	88 50 17	 mov	 BYTE PTR [eax+23], dl
  0019c	8a 51 18	 mov	 dl, BYTE PTR [ecx+24]
  0019f	84 d2		 test	 dl, dl
  001a1	0f 84 46 02 00
	00		 je	 $LN72@encodeStri
  001a7	80 f2 ed	 xor	 dl, -19			; ffffffedH
  001aa	88 50 18	 mov	 BYTE PTR [eax+24], dl
  001ad	8a 51 19	 mov	 dl, BYTE PTR [ecx+25]
  001b0	84 d2		 test	 dl, dl
  001b2	0f 84 2c 02 00
	00		 je	 $LN71@encodeStri
  001b8	80 f2 ec	 xor	 dl, -20			; ffffffecH
  001bb	88 50 19	 mov	 BYTE PTR [eax+25], dl
  001be	8a 51 1a	 mov	 dl, BYTE PTR [ecx+26]
  001c1	84 d2		 test	 dl, dl
  001c3	0f 84 13 02 00
	00		 je	 $LN70@encodeStri
  001c9	32 d3		 xor	 dl, bl
  001cb	88 50 1a	 mov	 BYTE PTR [eax+26], dl
  001ce	8a 51 1b	 mov	 dl, BYTE PTR [ecx+27]
  001d1	84 d2		 test	 dl, dl
  001d3	0f 84 fa 01 00
	00		 je	 $LN69@encodeStri
  001d9	80 f2 ea	 xor	 dl, -22			; ffffffeaH
  001dc	88 50 1b	 mov	 BYTE PTR [eax+27], dl
  001df	8a 51 1c	 mov	 dl, BYTE PTR [ecx+28]
  001e2	84 d2		 test	 dl, dl
  001e4	0f 84 e0 01 00
	00		 je	 $LN68@encodeStri
  001ea	80 f2 ed	 xor	 dl, -19			; ffffffedH
  001ed	88 50 1c	 mov	 BYTE PTR [eax+28], dl
  001f0	8a 51 1d	 mov	 dl, BYTE PTR [ecx+29]
  001f3	84 d2		 test	 dl, dl
  001f5	0f 84 c6 01 00
	00		 je	 $LN67@encodeStri
  001fb	80 f2 ec	 xor	 dl, -20			; ffffffecH
  001fe	88 50 1d	 mov	 BYTE PTR [eax+29], dl
  00201	8a 51 1e	 mov	 dl, BYTE PTR [ecx+30]
  00204	84 d2		 test	 dl, dl
  00206	0f 84 ad 01 00
	00		 je	 $LN66@encodeStri
  0020c	32 d3		 xor	 dl, bl
  0020e	88 50 1e	 mov	 BYTE PTR [eax+30], dl
  00211	8a 51 1f	 mov	 dl, BYTE PTR [ecx+31]
  00214	84 d2		 test	 dl, dl
  00216	0f 84 94 01 00
	00		 je	 $LN65@encodeStri
  0021c	80 f2 ea	 xor	 dl, -22			; ffffffeaH
  0021f	88 50 1f	 mov	 BYTE PTR [eax+31], dl
  00222	8a 51 20	 mov	 dl, BYTE PTR [ecx+32]
  00225	84 d2		 test	 dl, dl
  00227	0f 84 7a 01 00
	00		 je	 $LN64@encodeStri
  0022d	80 f2 ed	 xor	 dl, -19			; ffffffedH
  00230	88 50 20	 mov	 BYTE PTR [eax+32], dl
  00233	8a 51 21	 mov	 dl, BYTE PTR [ecx+33]
  00236	84 d2		 test	 dl, dl
  00238	0f 84 60 01 00
	00		 je	 $LN63@encodeStri
  0023e	80 f2 ec	 xor	 dl, -20			; ffffffecH
  00241	88 50 21	 mov	 BYTE PTR [eax+33], dl
  00244	8a 51 22	 mov	 dl, BYTE PTR [ecx+34]
  00247	84 d2		 test	 dl, dl
  00249	0f 84 47 01 00
	00		 je	 $LN62@encodeStri
  0024f	32 d3		 xor	 dl, bl
  00251	88 50 22	 mov	 BYTE PTR [eax+34], dl
  00254	8a 51 23	 mov	 dl, BYTE PTR [ecx+35]
  00257	84 d2		 test	 dl, dl
  00259	0f 84 2e 01 00
	00		 je	 $LN61@encodeStri
  0025f	80 f2 ea	 xor	 dl, -22			; ffffffeaH
  00262	88 50 23	 mov	 BYTE PTR [eax+35], dl
  00265	8a 51 24	 mov	 dl, BYTE PTR [ecx+36]
  00268	84 d2		 test	 dl, dl
  0026a	0f 84 14 01 00
	00		 je	 $LN60@encodeStri
  00270	80 f2 ed	 xor	 dl, -19			; ffffffedH
  00273	88 50 24	 mov	 BYTE PTR [eax+36], dl
  00276	8a 51 25	 mov	 dl, BYTE PTR [ecx+37]
  00279	84 d2		 test	 dl, dl
  0027b	0f 84 fa 00 00
	00		 je	 $LN59@encodeStri
  00281	80 f2 ec	 xor	 dl, -20			; ffffffecH
  00284	88 50 25	 mov	 BYTE PTR [eax+37], dl
  00287	8a 51 26	 mov	 dl, BYTE PTR [ecx+38]
  0028a	84 d2		 test	 dl, dl
  0028c	0f 84 e1 00 00
	00		 je	 $LN58@encodeStri
  00292	32 d3		 xor	 dl, bl
  00294	88 50 26	 mov	 BYTE PTR [eax+38], dl
  00297	8a 51 27	 mov	 dl, BYTE PTR [ecx+39]
  0029a	84 d2		 test	 dl, dl
  0029c	0f 84 c8 00 00
	00		 je	 $LN57@encodeStri
  002a2	80 f2 ea	 xor	 dl, -22			; ffffffeaH
  002a5	88 50 27	 mov	 BYTE PTR [eax+39], dl
  002a8	8a 51 28	 mov	 dl, BYTE PTR [ecx+40]
  002ab	84 d2		 test	 dl, dl
  002ad	0f 84 ae 00 00
	00		 je	 $LN56@encodeStri
  002b3	80 f2 ed	 xor	 dl, -19			; ffffffedH
  002b6	88 50 28	 mov	 BYTE PTR [eax+40], dl
  002b9	8a 51 29	 mov	 dl, BYTE PTR [ecx+41]
  002bc	84 d2		 test	 dl, dl
  002be	0f 84 94 00 00
	00		 je	 $LN55@encodeStri
  002c4	80 f2 ec	 xor	 dl, -20			; ffffffecH
  002c7	88 50 29	 mov	 BYTE PTR [eax+41], dl
  002ca	8a 51 2a	 mov	 dl, BYTE PTR [ecx+42]
  002cd	84 d2		 test	 dl, dl
  002cf	74 7f		 je	 SHORT $LN54@encodeStri
  002d1	32 d3		 xor	 dl, bl
  002d3	88 50 2a	 mov	 BYTE PTR [eax+42], dl
  002d6	8a 51 2b	 mov	 dl, BYTE PTR [ecx+43]
  002d9	84 d2		 test	 dl, dl
  002db	74 6a		 je	 SHORT $LN53@encodeStri
  002dd	80 f2 ea	 xor	 dl, -22			; ffffffeaH
  002e0	88 50 2b	 mov	 BYTE PTR [eax+43], dl
  002e3	8a 51 2c	 mov	 dl, BYTE PTR [ecx+44]
  002e6	84 d2		 test	 dl, dl
  002e8	74 54		 je	 SHORT $LN52@encodeStri
  002ea	80 f2 ed	 xor	 dl, -19			; ffffffedH
  002ed	88 50 2c	 mov	 BYTE PTR [eax+44], dl
  002f0	8a 51 2d	 mov	 dl, BYTE PTR [ecx+45]
  002f3	84 d2		 test	 dl, dl
  002f5	74 3e		 je	 SHORT $LN51@encodeStri
  002f7	80 f2 ec	 xor	 dl, -20			; ffffffecH
  002fa	88 50 2d	 mov	 BYTE PTR [eax+45], dl
  002fd	8a 51 2e	 mov	 dl, BYTE PTR [ecx+46]
  00300	84 d2		 test	 dl, dl
  00302	74 29		 je	 SHORT $LN50@encodeStri
  00304	32 d3		 xor	 dl, bl
  00306	88 50 2e	 mov	 BYTE PTR [eax+46], dl
  00309	8a 51 2f	 mov	 dl, BYTE PTR [ecx+47]
  0030c	84 d2		 test	 dl, dl
  0030e	74 14		 je	 SHORT $LN49@encodeStri
  00310	80 f2 ea	 xor	 dl, -22			; ffffffeaH
  00313	88 50 2f	 mov	 BYTE PTR [eax+47], dl
  00316	8a 49 30	 mov	 cl, BYTE PTR [ecx+48]
  00319	80 f1 ed	 xor	 cl, -19			; ffffffedH
  0031c	88 48 30	 mov	 BYTE PTR [eax+48], cl
  0031f	e9 5d 01 00 00	 jmp	 $LN1@encodeStri
$LN49@encodeStri:
  00324	c6 40 2f ea	 mov	 BYTE PTR [eax+47], -22	; ffffffeaH
  00328	e9 54 01 00 00	 jmp	 $LN1@encodeStri
$LN50@encodeStri:
  0032d	88 58 2e	 mov	 BYTE PTR [eax+46], bl
  00330	e9 4c 01 00 00	 jmp	 $LN1@encodeStri
$LN51@encodeStri:
  00335	c6 40 2d ec	 mov	 BYTE PTR [eax+45], -20	; ffffffecH
  00339	e9 43 01 00 00	 jmp	 $LN1@encodeStri
$LN52@encodeStri:
  0033e	c6 40 2c ed	 mov	 BYTE PTR [eax+44], -19	; ffffffedH
  00342	e9 3a 01 00 00	 jmp	 $LN1@encodeStri
$LN53@encodeStri:
  00347	c6 40 2b ea	 mov	 BYTE PTR [eax+43], -22	; ffffffeaH
  0034b	e9 31 01 00 00	 jmp	 $LN1@encodeStri
$LN54@encodeStri:
  00350	88 58 2a	 mov	 BYTE PTR [eax+42], bl
  00353	e9 29 01 00 00	 jmp	 $LN1@encodeStri
$LN55@encodeStri:
  00358	c6 40 29 ec	 mov	 BYTE PTR [eax+41], -20	; ffffffecH
  0035c	e9 20 01 00 00	 jmp	 $LN1@encodeStri
$LN56@encodeStri:
  00361	c6 40 28 ed	 mov	 BYTE PTR [eax+40], -19	; ffffffedH
  00365	e9 17 01 00 00	 jmp	 $LN1@encodeStri
$LN57@encodeStri:
  0036a	c6 40 27 ea	 mov	 BYTE PTR [eax+39], -22	; ffffffeaH
  0036e	e9 0e 01 00 00	 jmp	 $LN1@encodeStri
$LN58@encodeStri:
  00373	88 58 26	 mov	 BYTE PTR [eax+38], bl
  00376	e9 06 01 00 00	 jmp	 $LN1@encodeStri
$LN59@encodeStri:
  0037b	c6 40 25 ec	 mov	 BYTE PTR [eax+37], -20	; ffffffecH
  0037f	e9 fd 00 00 00	 jmp	 $LN1@encodeStri
$LN60@encodeStri:
  00384	c6 40 24 ed	 mov	 BYTE PTR [eax+36], -19	; ffffffedH
  00388	e9 f4 00 00 00	 jmp	 $LN1@encodeStri
$LN61@encodeStri:
  0038d	c6 40 23 ea	 mov	 BYTE PTR [eax+35], -22	; ffffffeaH
  00391	e9 eb 00 00 00	 jmp	 $LN1@encodeStri
$LN62@encodeStri:
  00396	88 58 22	 mov	 BYTE PTR [eax+34], bl
  00399	e9 e3 00 00 00	 jmp	 $LN1@encodeStri
$LN63@encodeStri:
  0039e	c6 40 21 ec	 mov	 BYTE PTR [eax+33], -20	; ffffffecH
  003a2	e9 da 00 00 00	 jmp	 $LN1@encodeStri
$LN64@encodeStri:
  003a7	c6 40 20 ed	 mov	 BYTE PTR [eax+32], -19	; ffffffedH
  003ab	e9 d1 00 00 00	 jmp	 $LN1@encodeStri
$LN65@encodeStri:
  003b0	c6 40 1f ea	 mov	 BYTE PTR [eax+31], -22	; ffffffeaH
  003b4	e9 c8 00 00 00	 jmp	 $LN1@encodeStri
$LN66@encodeStri:
  003b9	88 58 1e	 mov	 BYTE PTR [eax+30], bl
  003bc	e9 c0 00 00 00	 jmp	 $LN1@encodeStri
$LN67@encodeStri:
  003c1	c6 40 1d ec	 mov	 BYTE PTR [eax+29], -20	; ffffffecH
  003c5	e9 b7 00 00 00	 jmp	 $LN1@encodeStri
$LN68@encodeStri:
  003ca	c6 40 1c ed	 mov	 BYTE PTR [eax+28], -19	; ffffffedH
  003ce	e9 ae 00 00 00	 jmp	 $LN1@encodeStri
$LN69@encodeStri:
  003d3	c6 40 1b ea	 mov	 BYTE PTR [eax+27], -22	; ffffffeaH
  003d7	e9 a5 00 00 00	 jmp	 $LN1@encodeStri
$LN70@encodeStri:
  003dc	88 58 1a	 mov	 BYTE PTR [eax+26], bl
  003df	e9 9d 00 00 00	 jmp	 $LN1@encodeStri
$LN71@encodeStri:
  003e4	c6 40 19 ec	 mov	 BYTE PTR [eax+25], -20	; ffffffecH
  003e8	e9 94 00 00 00	 jmp	 $LN1@encodeStri
$LN72@encodeStri:
  003ed	c6 40 18 ed	 mov	 BYTE PTR [eax+24], -19	; ffffffedH
  003f1	e9 8b 00 00 00	 jmp	 $LN1@encodeStri
$LN73@encodeStri:
  003f6	c6 40 17 ea	 mov	 BYTE PTR [eax+23], -22	; ffffffeaH
  003fa	e9 82 00 00 00	 jmp	 $LN1@encodeStri
$LN74@encodeStri:
  003ff	88 58 16	 mov	 BYTE PTR [eax+22], bl
  00402	eb 7d		 jmp	 SHORT $LN1@encodeStri
$LN75@encodeStri:
  00404	c6 40 15 ec	 mov	 BYTE PTR [eax+21], -20	; ffffffecH
  00408	eb 77		 jmp	 SHORT $LN1@encodeStri
$LN76@encodeStri:
  0040a	c6 40 14 ed	 mov	 BYTE PTR [eax+20], -19	; ffffffedH
  0040e	eb 71		 jmp	 SHORT $LN1@encodeStri
$LN77@encodeStri:
  00410	c6 40 13 ea	 mov	 BYTE PTR [eax+19], -22	; ffffffeaH
  00414	eb 6b		 jmp	 SHORT $LN1@encodeStri
$LN78@encodeStri:
  00416	88 58 12	 mov	 BYTE PTR [eax+18], bl
  00419	eb 66		 jmp	 SHORT $LN1@encodeStri
$LN79@encodeStri:
  0041b	c6 40 11 ec	 mov	 BYTE PTR [eax+17], -20	; ffffffecH
  0041f	eb 60		 jmp	 SHORT $LN1@encodeStri
$LN80@encodeStri:
  00421	c6 40 10 ed	 mov	 BYTE PTR [eax+16], -19	; ffffffedH
  00425	eb 5a		 jmp	 SHORT $LN1@encodeStri
$LN81@encodeStri:
  00427	c6 40 0f ea	 mov	 BYTE PTR [eax+15], -22	; ffffffeaH
  0042b	eb 54		 jmp	 SHORT $LN1@encodeStri
$LN82@encodeStri:
  0042d	88 58 0e	 mov	 BYTE PTR [eax+14], bl
  00430	eb 4f		 jmp	 SHORT $LN1@encodeStri
$LN83@encodeStri:
  00432	c6 40 0d ec	 mov	 BYTE PTR [eax+13], -20	; ffffffecH
  00436	eb 49		 jmp	 SHORT $LN1@encodeStri
$LN84@encodeStri:
  00438	c6 40 0c ed	 mov	 BYTE PTR [eax+12], -19	; ffffffedH
  0043c	eb 43		 jmp	 SHORT $LN1@encodeStri
$LN85@encodeStri:
  0043e	c6 40 0b ea	 mov	 BYTE PTR [eax+11], -22	; ffffffeaH
  00442	eb 3d		 jmp	 SHORT $LN1@encodeStri
$LN86@encodeStri:
  00444	88 58 0a	 mov	 BYTE PTR [eax+10], bl
  00447	eb 38		 jmp	 SHORT $LN1@encodeStri
$LN87@encodeStri:
  00449	c6 40 09 ec	 mov	 BYTE PTR [eax+9], -20	; ffffffecH
  0044d	eb 32		 jmp	 SHORT $LN1@encodeStri
$LN88@encodeStri:
  0044f	c6 40 08 ed	 mov	 BYTE PTR [eax+8], -19	; ffffffedH
  00453	eb 2c		 jmp	 SHORT $LN1@encodeStri
$LN89@encodeStri:
  00455	c6 40 07 ea	 mov	 BYTE PTR [eax+7], -22	; ffffffeaH
  00459	eb 26		 jmp	 SHORT $LN1@encodeStri
$LN90@encodeStri:
  0045b	88 58 06	 mov	 BYTE PTR [eax+6], bl
  0045e	eb 21		 jmp	 SHORT $LN1@encodeStri
$LN91@encodeStri:
  00460	c6 40 05 ec	 mov	 BYTE PTR [eax+5], -20	; ffffffecH
  00464	eb 1b		 jmp	 SHORT $LN1@encodeStri
$LN92@encodeStri:
  00466	c6 40 04 ed	 mov	 BYTE PTR [eax+4], -19	; ffffffedH
  0046a	eb 15		 jmp	 SHORT $LN1@encodeStri
$LN93@encodeStri:
  0046c	c6 40 03 ea	 mov	 BYTE PTR [eax+3], -22	; ffffffeaH
  00470	eb 0f		 jmp	 SHORT $LN1@encodeStri
$LN94@encodeStri:
  00472	c6 40 02 eb	 mov	 BYTE PTR [eax+2], -21	; ffffffebH
  00476	eb 09		 jmp	 SHORT $LN1@encodeStri
$LN95@encodeStri:
  00478	c6 40 01 ec	 mov	 BYTE PTR [eax+1], -20	; ffffffecH
  0047c	eb 03		 jmp	 SHORT $LN1@encodeStri
$LN96@encodeStri:
  0047e	c6 00 ed	 mov	 BYTE PTR [eax], -19	; ffffffedH
$LN1@encodeStri:
  00481	6a 03		 push	 3
  00483	5a		 pop	 edx
  00484	8b c8		 mov	 ecx, eax
  00486	c6 40 0e 00	 mov	 BYTE PTR [eax+14], 0
  0048a	5b		 pop	 ebx
$LL104@encodeStri:
  0048b	81 31 ed ec eb
	ea		 xor	 DWORD PTR [ecx], -353637139 ; eaebecedH
  00491	83 c1 04	 add	 ecx, 4
  00494	4a		 dec	 edx
  00495	75 f4		 jne	 SHORT $LL104@encodeStri
  00497	56		 push	 esi
  00498	6a 0c		 push	 12			; 0000000cH
  0049a	5e		 pop	 esi
$LL101@encodeStri:
  0049b	8b ce		 mov	 ecx, esi
  0049d	81 e1 03 00 00
	80		 and	 ecx, -2147483645	; 80000003H
  004a3	79 05		 jns	 SHORT $LN111@encodeStri
  004a5	49		 dec	 ecx
  004a6	83 c9 fc	 or	 ecx, -4			; fffffffcH
  004a9	41		 inc	 ecx
$LN111@encodeStri:
  004aa	b2 ed		 mov	 dl, -19			; ffffffedH
  004ac	2a d1		 sub	 dl, cl
  004ae	30 14 06	 xor	 BYTE PTR [esi+eax], dl
  004b1	46		 inc	 esi
  004b2	83 fe 0e	 cmp	 esi, 14			; 0000000eH
  004b5	7c e4		 jl	 SHORT $LL101@encodeStri
  004b7	5e		 pop	 esi

; 217  : 		return e;
; 218  : 	}

  004b8	5d		 pop	 ebp
  004b9	c2 08 00	 ret	 8
??$encodeString@$0P@@ioINILoader_e@@AAEPADAAY0P@$$CBDPAD@Z ENDP ; ioINILoader_e::encodeString<15>
_TEXT	ENDS
PUBLIC	??$encodeString@$0BF@@ioINILoader_e@@AAEPADAAY0BF@$$CBDPAD@Z ; ioINILoader_e::encodeString<21>
; Function compile flags: /Ogsp
;	COMDAT ??$encodeString@$0BF@@ioINILoader_e@@AAEPADAAY0BF@$$CBDPAD@Z
_TEXT	SEGMENT
_s$ = 8							; size = 4
_e$ = 12						; size = 4
??$encodeString@$0BF@@ioINILoader_e@@AAEPADAAY0BF@$$CBDPAD@Z PROC ; ioINILoader_e::encodeString<21>, COMDAT
; _this$ = ecx

; 215  : 	{

  00000	55		 push	 ebp
  00001	8b ec		 mov	 ebp, esp

; 216  : 		__ENCSTR(s, e);

  00003	8b 4d 08	 mov	 ecx, DWORD PTR _s$[ebp]
  00006	8a 11		 mov	 dl, BYTE PTR [ecx]
  00008	8b 45 0c	 mov	 eax, DWORD PTR _e$[ebp]
  0000b	53		 push	 ebx
  0000c	84 d2		 test	 dl, dl
  0000e	0f 84 6a 04 00
	00		 je	 $LN96@encodeStri@2
  00014	80 f2 ed	 xor	 dl, -19			; ffffffedH
  00017	88 10		 mov	 BYTE PTR [eax], dl
  00019	8a 51 01	 mov	 dl, BYTE PTR [ecx+1]
  0001c	84 d2		 test	 dl, dl
  0001e	0f 84 54 04 00
	00		 je	 $LN95@encodeStri@2
  00024	80 f2 ec	 xor	 dl, -20			; ffffffecH
  00027	88 50 01	 mov	 BYTE PTR [eax+1], dl
  0002a	8a 51 02	 mov	 dl, BYTE PTR [ecx+2]
  0002d	84 d2		 test	 dl, dl
  0002f	0f 84 3d 04 00
	00		 je	 $LN94@encodeStri@2
  00035	b3 eb		 mov	 bl, -21			; ffffffebH
  00037	32 d3		 xor	 dl, bl
  00039	88 50 02	 mov	 BYTE PTR [eax+2], dl
  0003c	8a 51 03	 mov	 dl, BYTE PTR [ecx+3]
  0003f	84 d2		 test	 dl, dl
  00041	0f 84 25 04 00
	00		 je	 $LN93@encodeStri@2
  00047	80 f2 ea	 xor	 dl, -22			; ffffffeaH
  0004a	88 50 03	 mov	 BYTE PTR [eax+3], dl
  0004d	8a 51 04	 mov	 dl, BYTE PTR [ecx+4]
  00050	84 d2		 test	 dl, dl
  00052	0f 84 0e 04 00
	00		 je	 $LN92@encodeStri@2
  00058	80 f2 ed	 xor	 dl, -19			; ffffffedH
  0005b	88 50 04	 mov	 BYTE PTR [eax+4], dl
  0005e	8a 51 05	 mov	 dl, BYTE PTR [ecx+5]
  00061	84 d2		 test	 dl, dl
  00063	0f 84 f7 03 00
	00		 je	 $LN91@encodeStri@2
  00069	80 f2 ec	 xor	 dl, -20			; ffffffecH
  0006c	88 50 05	 mov	 BYTE PTR [eax+5], dl
  0006f	8a 51 06	 mov	 dl, BYTE PTR [ecx+6]
  00072	84 d2		 test	 dl, dl
  00074	0f 84 e1 03 00
	00		 je	 $LN90@encodeStri@2
  0007a	32 d3		 xor	 dl, bl
  0007c	88 50 06	 mov	 BYTE PTR [eax+6], dl
  0007f	8a 51 07	 mov	 dl, BYTE PTR [ecx+7]
  00082	84 d2		 test	 dl, dl
  00084	0f 84 cb 03 00
	00		 je	 $LN89@encodeStri@2
  0008a	80 f2 ea	 xor	 dl, -22			; ffffffeaH
  0008d	88 50 07	 mov	 BYTE PTR [eax+7], dl
  00090	8a 51 08	 mov	 dl, BYTE PTR [ecx+8]
  00093	84 d2		 test	 dl, dl
  00095	0f 84 b4 03 00
	00		 je	 $LN88@encodeStri@2
  0009b	80 f2 ed	 xor	 dl, -19			; ffffffedH
  0009e	88 50 08	 mov	 BYTE PTR [eax+8], dl
  000a1	8a 51 09	 mov	 dl, BYTE PTR [ecx+9]
  000a4	84 d2		 test	 dl, dl
  000a6	0f 84 9d 03 00
	00		 je	 $LN87@encodeStri@2
  000ac	80 f2 ec	 xor	 dl, -20			; ffffffecH
  000af	88 50 09	 mov	 BYTE PTR [eax+9], dl
  000b2	8a 51 0a	 mov	 dl, BYTE PTR [ecx+10]
  000b5	84 d2		 test	 dl, dl
  000b7	0f 84 87 03 00
	00		 je	 $LN86@encodeStri@2
  000bd	32 d3		 xor	 dl, bl
  000bf	88 50 0a	 mov	 BYTE PTR [eax+10], dl
  000c2	8a 51 0b	 mov	 dl, BYTE PTR [ecx+11]
  000c5	84 d2		 test	 dl, dl
  000c7	0f 84 71 03 00
	00		 je	 $LN85@encodeStri@2
  000cd	80 f2 ea	 xor	 dl, -22			; ffffffeaH
  000d0	88 50 0b	 mov	 BYTE PTR [eax+11], dl
  000d3	8a 51 0c	 mov	 dl, BYTE PTR [ecx+12]
  000d6	84 d2		 test	 dl, dl
  000d8	0f 84 5a 03 00
	00		 je	 $LN84@encodeStri@2
  000de	80 f2 ed	 xor	 dl, -19			; ffffffedH
  000e1	88 50 0c	 mov	 BYTE PTR [eax+12], dl
  000e4	8a 51 0d	 mov	 dl, BYTE PTR [ecx+13]
  000e7	84 d2		 test	 dl, dl
  000e9	0f 84 43 03 00
	00		 je	 $LN83@encodeStri@2
  000ef	80 f2 ec	 xor	 dl, -20			; ffffffecH
  000f2	88 50 0d	 mov	 BYTE PTR [eax+13], dl
  000f5	8a 51 0e	 mov	 dl, BYTE PTR [ecx+14]
  000f8	84 d2		 test	 dl, dl
  000fa	0f 84 2d 03 00
	00		 je	 $LN82@encodeStri@2
  00100	32 d3		 xor	 dl, bl
  00102	88 50 0e	 mov	 BYTE PTR [eax+14], dl
  00105	8a 51 0f	 mov	 dl, BYTE PTR [ecx+15]
  00108	84 d2		 test	 dl, dl
  0010a	0f 84 17 03 00
	00		 je	 $LN81@encodeStri@2
  00110	80 f2 ea	 xor	 dl, -22			; ffffffeaH
  00113	88 50 0f	 mov	 BYTE PTR [eax+15], dl
  00116	8a 51 10	 mov	 dl, BYTE PTR [ecx+16]
  00119	84 d2		 test	 dl, dl
  0011b	0f 84 00 03 00
	00		 je	 $LN80@encodeStri@2
  00121	80 f2 ed	 xor	 dl, -19			; ffffffedH
  00124	88 50 10	 mov	 BYTE PTR [eax+16], dl
  00127	8a 51 11	 mov	 dl, BYTE PTR [ecx+17]
  0012a	84 d2		 test	 dl, dl
  0012c	0f 84 e9 02 00
	00		 je	 $LN79@encodeStri@2
  00132	80 f2 ec	 xor	 dl, -20			; ffffffecH
  00135	88 50 11	 mov	 BYTE PTR [eax+17], dl
  00138	8a 51 12	 mov	 dl, BYTE PTR [ecx+18]
  0013b	84 d2		 test	 dl, dl
  0013d	0f 84 d3 02 00
	00		 je	 $LN78@encodeStri@2
  00143	32 d3		 xor	 dl, bl
  00145	88 50 12	 mov	 BYTE PTR [eax+18], dl
  00148	8a 51 13	 mov	 dl, BYTE PTR [ecx+19]
  0014b	84 d2		 test	 dl, dl
  0014d	0f 84 bd 02 00
	00		 je	 $LN77@encodeStri@2
  00153	80 f2 ea	 xor	 dl, -22			; ffffffeaH
  00156	88 50 13	 mov	 BYTE PTR [eax+19], dl
  00159	8a 51 14	 mov	 dl, BYTE PTR [ecx+20]
  0015c	84 d2		 test	 dl, dl
  0015e	0f 84 a6 02 00
	00		 je	 $LN76@encodeStri@2
  00164	80 f2 ed	 xor	 dl, -19			; ffffffedH
  00167	88 50 14	 mov	 BYTE PTR [eax+20], dl
  0016a	8a 51 15	 mov	 dl, BYTE PTR [ecx+21]
  0016d	84 d2		 test	 dl, dl
  0016f	0f 84 8f 02 00
	00		 je	 $LN75@encodeStri@2
  00175	80 f2 ec	 xor	 dl, -20			; ffffffecH
  00178	88 50 15	 mov	 BYTE PTR [eax+21], dl
  0017b	8a 51 16	 mov	 dl, BYTE PTR [ecx+22]
  0017e	84 d2		 test	 dl, dl
  00180	0f 84 79 02 00
	00		 je	 $LN74@encodeStri@2
  00186	32 d3		 xor	 dl, bl
  00188	88 50 16	 mov	 BYTE PTR [eax+22], dl
  0018b	8a 51 17	 mov	 dl, BYTE PTR [ecx+23]
  0018e	84 d2		 test	 dl, dl
  00190	0f 84 60 02 00
	00		 je	 $LN73@encodeStri@2
  00196	80 f2 ea	 xor	 dl, -22			; ffffffeaH
  00199	88 50 17	 mov	 BYTE PTR [eax+23], dl
  0019c	8a 51 18	 mov	 dl, BYTE PTR [ecx+24]
  0019f	84 d2		 test	 dl, dl
  001a1	0f 84 46 02 00
	00		 je	 $LN72@encodeStri@2
  001a7	80 f2 ed	 xor	 dl, -19			; ffffffedH
  001aa	88 50 18	 mov	 BYTE PTR [eax+24], dl
  001ad	8a 51 19	 mov	 dl, BYTE PTR [ecx+25]
  001b0	84 d2		 test	 dl, dl
  001b2	0f 84 2c 02 00
	00		 je	 $LN71@encodeStri@2
  001b8	80 f2 ec	 xor	 dl, -20			; ffffffecH
  001bb	88 50 19	 mov	 BYTE PTR [eax+25], dl
  001be	8a 51 1a	 mov	 dl, BYTE PTR [ecx+26]
  001c1	84 d2		 test	 dl, dl
  001c3	0f 84 13 02 00
	00		 je	 $LN70@encodeStri@2
  001c9	32 d3		 xor	 dl, bl
  001cb	88 50 1a	 mov	 BYTE PTR [eax+26], dl
  001ce	8a 51 1b	 mov	 dl, BYTE PTR [ecx+27]
  001d1	84 d2		 test	 dl, dl
  001d3	0f 84 fa 01 00
	00		 je	 $LN69@encodeStri@2
  001d9	80 f2 ea	 xor	 dl, -22			; ffffffeaH
  001dc	88 50 1b	 mov	 BYTE PTR [eax+27], dl
  001df	8a 51 1c	 mov	 dl, BYTE PTR [ecx+28]
  001e2	84 d2		 test	 dl, dl
  001e4	0f 84 e0 01 00
	00		 je	 $LN68@encodeStri@2
  001ea	80 f2 ed	 xor	 dl, -19			; ffffffedH
  001ed	88 50 1c	 mov	 BYTE PTR [eax+28], dl
  001f0	8a 51 1d	 mov	 dl, BYTE PTR [ecx+29]
  001f3	84 d2		 test	 dl, dl
  001f5	0f 84 c6 01 00
	00		 je	 $LN67@encodeStri@2
  001fb	80 f2 ec	 xor	 dl, -20			; ffffffecH
  001fe	88 50 1d	 mov	 BYTE PTR [eax+29], dl
  00201	8a 51 1e	 mov	 dl, BYTE PTR [ecx+30]
  00204	84 d2		 test	 dl, dl
  00206	0f 84 ad 01 00
	00		 je	 $LN66@encodeStri@2
  0020c	32 d3		 xor	 dl, bl
  0020e	88 50 1e	 mov	 BYTE PTR [eax+30], dl
  00211	8a 51 1f	 mov	 dl, BYTE PTR [ecx+31]
  00214	84 d2		 test	 dl, dl
  00216	0f 84 94 01 00
	00		 je	 $LN65@encodeStri@2
  0021c	80 f2 ea	 xor	 dl, -22			; ffffffeaH
  0021f	88 50 1f	 mov	 BYTE PTR [eax+31], dl
  00222	8a 51 20	 mov	 dl, BYTE PTR [ecx+32]
  00225	84 d2		 test	 dl, dl
  00227	0f 84 7a 01 00
	00		 je	 $LN64@encodeStri@2
  0022d	80 f2 ed	 xor	 dl, -19			; ffffffedH
  00230	88 50 20	 mov	 BYTE PTR [eax+32], dl
  00233	8a 51 21	 mov	 dl, BYTE PTR [ecx+33]
  00236	84 d2		 test	 dl, dl
  00238	0f 84 60 01 00
	00		 je	 $LN63@encodeStri@2
  0023e	80 f2 ec	 xor	 dl, -20			; ffffffecH
  00241	88 50 21	 mov	 BYTE PTR [eax+33], dl
  00244	8a 51 22	 mov	 dl, BYTE PTR [ecx+34]
  00247	84 d2		 test	 dl, dl
  00249	0f 84 47 01 00
	00		 je	 $LN62@encodeStri@2
  0024f	32 d3		 xor	 dl, bl
  00251	88 50 22	 mov	 BYTE PTR [eax+34], dl
  00254	8a 51 23	 mov	 dl, BYTE PTR [ecx+35]
  00257	84 d2		 test	 dl, dl
  00259	0f 84 2e 01 00
	00		 je	 $LN61@encodeStri@2
  0025f	80 f2 ea	 xor	 dl, -22			; ffffffeaH
  00262	88 50 23	 mov	 BYTE PTR [eax+35], dl
  00265	8a 51 24	 mov	 dl, BYTE PTR [ecx+36]
  00268	84 d2		 test	 dl, dl
  0026a	0f 84 14 01 00
	00		 je	 $LN60@encodeStri@2
  00270	80 f2 ed	 xor	 dl, -19			; ffffffedH
  00273	88 50 24	 mov	 BYTE PTR [eax+36], dl
  00276	8a 51 25	 mov	 dl, BYTE PTR [ecx+37]
  00279	84 d2		 test	 dl, dl
  0027b	0f 84 fa 00 00
	00		 je	 $LN59@encodeStri@2
  00281	80 f2 ec	 xor	 dl, -20			; ffffffecH
  00284	88 50 25	 mov	 BYTE PTR [eax+37], dl
  00287	8a 51 26	 mov	 dl, BYTE PTR [ecx+38]
  0028a	84 d2		 test	 dl, dl
  0028c	0f 84 e1 00 00
	00		 je	 $LN58@encodeStri@2
  00292	32 d3		 xor	 dl, bl
  00294	88 50 26	 mov	 BYTE PTR [eax+38], dl
  00297	8a 51 27	 mov	 dl, BYTE PTR [ecx+39]
  0029a	84 d2		 test	 dl, dl
  0029c	0f 84 c8 00 00
	00		 je	 $LN57@encodeStri@2
  002a2	80 f2 ea	 xor	 dl, -22			; ffffffeaH
  002a5	88 50 27	 mov	 BYTE PTR [eax+39], dl
  002a8	8a 51 28	 mov	 dl, BYTE PTR [ecx+40]
  002ab	84 d2		 test	 dl, dl
  002ad	0f 84 ae 00 00
	00		 je	 $LN56@encodeStri@2
  002b3	80 f2 ed	 xor	 dl, -19			; ffffffedH
  002b6	88 50 28	 mov	 BYTE PTR [eax+40], dl
  002b9	8a 51 29	 mov	 dl, BYTE PTR [ecx+41]
  002bc	84 d2		 test	 dl, dl
  002be	0f 84 94 00 00
	00		 je	 $LN55@encodeStri@2
  002c4	80 f2 ec	 xor	 dl, -20			; ffffffecH
  002c7	88 50 29	 mov	 BYTE PTR [eax+41], dl
  002ca	8a 51 2a	 mov	 dl, BYTE PTR [ecx+42]
  002cd	84 d2		 test	 dl, dl
  002cf	74 7f		 je	 SHORT $LN54@encodeStri@2
  002d1	32 d3		 xor	 dl, bl
  002d3	88 50 2a	 mov	 BYTE PTR [eax+42], dl
  002d6	8a 51 2b	 mov	 dl, BYTE PTR [ecx+43]
  002d9	84 d2		 test	 dl, dl
  002db	74 6a		 je	 SHORT $LN53@encodeStri@2
  002dd	80 f2 ea	 xor	 dl, -22			; ffffffeaH
  002e0	88 50 2b	 mov	 BYTE PTR [eax+43], dl
  002e3	8a 51 2c	 mov	 dl, BYTE PTR [ecx+44]
  002e6	84 d2		 test	 dl, dl
  002e8	74 54		 je	 SHORT $LN52@encodeStri@2
  002ea	80 f2 ed	 xor	 dl, -19			; ffffffedH
  002ed	88 50 2c	 mov	 BYTE PTR [eax+44], dl
  002f0	8a 51 2d	 mov	 dl, BYTE PTR [ecx+45]
  002f3	84 d2		 test	 dl, dl
  002f5	74 3e		 je	 SHORT $LN51@encodeStri@2
  002f7	80 f2 ec	 xor	 dl, -20			; ffffffecH
  002fa	88 50 2d	 mov	 BYTE PTR [eax+45], dl
  002fd	8a 51 2e	 mov	 dl, BYTE PTR [ecx+46]
  00300	84 d2		 test	 dl, dl
  00302	74 29		 je	 SHORT $LN50@encodeStri@2
  00304	32 d3		 xor	 dl, bl
  00306	88 50 2e	 mov	 BYTE PTR [eax+46], dl
  00309	8a 51 2f	 mov	 dl, BYTE PTR [ecx+47]
  0030c	84 d2		 test	 dl, dl
  0030e	74 14		 je	 SHORT $LN49@encodeStri@2
  00310	80 f2 ea	 xor	 dl, -22			; ffffffeaH
  00313	88 50 2f	 mov	 BYTE PTR [eax+47], dl
  00316	8a 49 30	 mov	 cl, BYTE PTR [ecx+48]
  00319	80 f1 ed	 xor	 cl, -19			; ffffffedH
  0031c	88 48 30	 mov	 BYTE PTR [eax+48], cl
  0031f	e9 5d 01 00 00	 jmp	 $LN1@encodeStri@2
$LN49@encodeStri@2:
  00324	c6 40 2f ea	 mov	 BYTE PTR [eax+47], -22	; ffffffeaH
  00328	e9 54 01 00 00	 jmp	 $LN1@encodeStri@2
$LN50@encodeStri@2:
  0032d	88 58 2e	 mov	 BYTE PTR [eax+46], bl
  00330	e9 4c 01 00 00	 jmp	 $LN1@encodeStri@2
$LN51@encodeStri@2:
  00335	c6 40 2d ec	 mov	 BYTE PTR [eax+45], -20	; ffffffecH
  00339	e9 43 01 00 00	 jmp	 $LN1@encodeStri@2
$LN52@encodeStri@2:
  0033e	c6 40 2c ed	 mov	 BYTE PTR [eax+44], -19	; ffffffedH
  00342	e9 3a 01 00 00	 jmp	 $LN1@encodeStri@2
$LN53@encodeStri@2:
  00347	c6 40 2b ea	 mov	 BYTE PTR [eax+43], -22	; ffffffeaH
  0034b	e9 31 01 00 00	 jmp	 $LN1@encodeStri@2
$LN54@encodeStri@2:
  00350	88 58 2a	 mov	 BYTE PTR [eax+42], bl
  00353	e9 29 01 00 00	 jmp	 $LN1@encodeStri@2
$LN55@encodeStri@2:
  00358	c6 40 29 ec	 mov	 BYTE PTR [eax+41], -20	; ffffffecH
  0035c	e9 20 01 00 00	 jmp	 $LN1@encodeStri@2
$LN56@encodeStri@2:
  00361	c6 40 28 ed	 mov	 BYTE PTR [eax+40], -19	; ffffffedH
  00365	e9 17 01 00 00	 jmp	 $LN1@encodeStri@2
$LN57@encodeStri@2:
  0036a	c6 40 27 ea	 mov	 BYTE PTR [eax+39], -22	; ffffffeaH
  0036e	e9 0e 01 00 00	 jmp	 $LN1@encodeStri@2
$LN58@encodeStri@2:
  00373	88 58 26	 mov	 BYTE PTR [eax+38], bl
  00376	e9 06 01 00 00	 jmp	 $LN1@encodeStri@2
$LN59@encodeStri@2:
  0037b	c6 40 25 ec	 mov	 BYTE PTR [eax+37], -20	; ffffffecH
  0037f	e9 fd 00 00 00	 jmp	 $LN1@encodeStri@2
$LN60@encodeStri@2:
  00384	c6 40 24 ed	 mov	 BYTE PTR [eax+36], -19	; ffffffedH
  00388	e9 f4 00 00 00	 jmp	 $LN1@encodeStri@2
$LN61@encodeStri@2:
  0038d	c6 40 23 ea	 mov	 BYTE PTR [eax+35], -22	; ffffffeaH
  00391	e9 eb 00 00 00	 jmp	 $LN1@encodeStri@2
$LN62@encodeStri@2:
  00396	88 58 22	 mov	 BYTE PTR [eax+34], bl
  00399	e9 e3 00 00 00	 jmp	 $LN1@encodeStri@2
$LN63@encodeStri@2:
  0039e	c6 40 21 ec	 mov	 BYTE PTR [eax+33], -20	; ffffffecH
  003a2	e9 da 00 00 00	 jmp	 $LN1@encodeStri@2
$LN64@encodeStri@2:
  003a7	c6 40 20 ed	 mov	 BYTE PTR [eax+32], -19	; ffffffedH
  003ab	e9 d1 00 00 00	 jmp	 $LN1@encodeStri@2
$LN65@encodeStri@2:
  003b0	c6 40 1f ea	 mov	 BYTE PTR [eax+31], -22	; ffffffeaH
  003b4	e9 c8 00 00 00	 jmp	 $LN1@encodeStri@2
$LN66@encodeStri@2:
  003b9	88 58 1e	 mov	 BYTE PTR [eax+30], bl
  003bc	e9 c0 00 00 00	 jmp	 $LN1@encodeStri@2
$LN67@encodeStri@2:
  003c1	c6 40 1d ec	 mov	 BYTE PTR [eax+29], -20	; ffffffecH
  003c5	e9 b7 00 00 00	 jmp	 $LN1@encodeStri@2
$LN68@encodeStri@2:
  003ca	c6 40 1c ed	 mov	 BYTE PTR [eax+28], -19	; ffffffedH
  003ce	e9 ae 00 00 00	 jmp	 $LN1@encodeStri@2
$LN69@encodeStri@2:
  003d3	c6 40 1b ea	 mov	 BYTE PTR [eax+27], -22	; ffffffeaH
  003d7	e9 a5 00 00 00	 jmp	 $LN1@encodeStri@2
$LN70@encodeStri@2:
  003dc	88 58 1a	 mov	 BYTE PTR [eax+26], bl
  003df	e9 9d 00 00 00	 jmp	 $LN1@encodeStri@2
$LN71@encodeStri@2:
  003e4	c6 40 19 ec	 mov	 BYTE PTR [eax+25], -20	; ffffffecH
  003e8	e9 94 00 00 00	 jmp	 $LN1@encodeStri@2
$LN72@encodeStri@2:
  003ed	c6 40 18 ed	 mov	 BYTE PTR [eax+24], -19	; ffffffedH
  003f1	e9 8b 00 00 00	 jmp	 $LN1@encodeStri@2
$LN73@encodeStri@2:
  003f6	c6 40 17 ea	 mov	 BYTE PTR [eax+23], -22	; ffffffeaH
  003fa	e9 82 00 00 00	 jmp	 $LN1@encodeStri@2
$LN74@encodeStri@2:
  003ff	88 58 16	 mov	 BYTE PTR [eax+22], bl
  00402	eb 7d		 jmp	 SHORT $LN1@encodeStri@2
$LN75@encodeStri@2:
  00404	c6 40 15 ec	 mov	 BYTE PTR [eax+21], -20	; ffffffecH
  00408	eb 77		 jmp	 SHORT $LN1@encodeStri@2
$LN76@encodeStri@2:
  0040a	c6 40 14 ed	 mov	 BYTE PTR [eax+20], -19	; ffffffedH
  0040e	eb 71		 jmp	 SHORT $LN1@encodeStri@2
$LN77@encodeStri@2:
  00410	c6 40 13 ea	 mov	 BYTE PTR [eax+19], -22	; ffffffeaH
  00414	eb 6b		 jmp	 SHORT $LN1@encodeStri@2
$LN78@encodeStri@2:
  00416	88 58 12	 mov	 BYTE PTR [eax+18], bl
  00419	eb 66		 jmp	 SHORT $LN1@encodeStri@2
$LN79@encodeStri@2:
  0041b	c6 40 11 ec	 mov	 BYTE PTR [eax+17], -20	; ffffffecH
  0041f	eb 60		 jmp	 SHORT $LN1@encodeStri@2
$LN80@encodeStri@2:
  00421	c6 40 10 ed	 mov	 BYTE PTR [eax+16], -19	; ffffffedH
  00425	eb 5a		 jmp	 SHORT $LN1@encodeStri@2
$LN81@encodeStri@2:
  00427	c6 40 0f ea	 mov	 BYTE PTR [eax+15], -22	; ffffffeaH
  0042b	eb 54		 jmp	 SHORT $LN1@encodeStri@2
$LN82@encodeStri@2:
  0042d	88 58 0e	 mov	 BYTE PTR [eax+14], bl
  00430	eb 4f		 jmp	 SHORT $LN1@encodeStri@2
$LN83@encodeStri@2:
  00432	c6 40 0d ec	 mov	 BYTE PTR [eax+13], -20	; ffffffecH
  00436	eb 49		 jmp	 SHORT $LN1@encodeStri@2
$LN84@encodeStri@2:
  00438	c6 40 0c ed	 mov	 BYTE PTR [eax+12], -19	; ffffffedH
  0043c	eb 43		 jmp	 SHORT $LN1@encodeStri@2
$LN85@encodeStri@2:
  0043e	c6 40 0b ea	 mov	 BYTE PTR [eax+11], -22	; ffffffeaH
  00442	eb 3d		 jmp	 SHORT $LN1@encodeStri@2
$LN86@encodeStri@2:
  00444	88 58 0a	 mov	 BYTE PTR [eax+10], bl
  00447	eb 38		 jmp	 SHORT $LN1@encodeStri@2
$LN87@encodeStri@2:
  00449	c6 40 09 ec	 mov	 BYTE PTR [eax+9], -20	; ffffffecH
  0044d	eb 32		 jmp	 SHORT $LN1@encodeStri@2
$LN88@encodeStri@2:
  0044f	c6 40 08 ed	 mov	 BYTE PTR [eax+8], -19	; ffffffedH
  00453	eb 2c		 jmp	 SHORT $LN1@encodeStri@2
$LN89@encodeStri@2:
  00455	c6 40 07 ea	 mov	 BYTE PTR [eax+7], -22	; ffffffeaH
  00459	eb 26		 jmp	 SHORT $LN1@encodeStri@2
$LN90@encodeStri@2:
  0045b	88 58 06	 mov	 BYTE PTR [eax+6], bl
  0045e	eb 21		 jmp	 SHORT $LN1@encodeStri@2
$LN91@encodeStri@2:
  00460	c6 40 05 ec	 mov	 BYTE PTR [eax+5], -20	; ffffffecH
  00464	eb 1b		 jmp	 SHORT $LN1@encodeStri@2
$LN92@encodeStri@2:
  00466	c6 40 04 ed	 mov	 BYTE PTR [eax+4], -19	; ffffffedH
  0046a	eb 15		 jmp	 SHORT $LN1@encodeStri@2
$LN93@encodeStri@2:
  0046c	c6 40 03 ea	 mov	 BYTE PTR [eax+3], -22	; ffffffeaH
  00470	eb 0f		 jmp	 SHORT $LN1@encodeStri@2
$LN94@encodeStri@2:
  00472	c6 40 02 eb	 mov	 BYTE PTR [eax+2], -21	; ffffffebH
  00476	eb 09		 jmp	 SHORT $LN1@encodeStri@2
$LN95@encodeStri@2:
  00478	c6 40 01 ec	 mov	 BYTE PTR [eax+1], -20	; ffffffecH
  0047c	eb 03		 jmp	 SHORT $LN1@encodeStri@2
$LN96@encodeStri@2:
  0047e	c6 00 ed	 mov	 BYTE PTR [eax], -19	; ffffffedH
$LN1@encodeStri@2:
  00481	6a 05		 push	 5
  00483	5a		 pop	 edx
  00484	8b c8		 mov	 ecx, eax
  00486	c6 40 14 00	 mov	 BYTE PTR [eax+20], 0
  0048a	5b		 pop	 ebx
$LL104@encodeStri@2:
  0048b	81 31 ed ec eb
	ea		 xor	 DWORD PTR [ecx], -353637139 ; eaebecedH
  00491	83 c1 04	 add	 ecx, 4
  00494	4a		 dec	 edx
  00495	75 f4		 jne	 SHORT $LL104@encodeStri@2

; 217  : 		return e;
; 218  : 	}

  00497	5d		 pop	 ebp
  00498	c2 08 00	 ret	 8
??$encodeString@$0BF@@ioINILoader_e@@AAEPADAAY0BF@$$CBDPAD@Z ENDP ; ioINILoader_e::encodeString<21>
_TEXT	ENDS
PUBLIC	??$construct@AAVioHashString@@@?$allocator@VioHashString@@@std@@QAEXPAVioHashString@@AAV2@@Z ; std::allocator<ioHashString>::construct<ioHashString &>
;	COMDAT xdata$x
; File c:\program files (x86)\microsoft visual studio 10.0\vc\include\utility
xdata$x	SEGMENT
__unwindtable$??$construct@AAVioHashString@@@?$allocator@VioHashString@@@std@@QAEXPAVioHashString@@AAV2@@Z DD 0ffffffffH
	DD	FLAT:__unwindfunclet$??$construct@AAVioHashString@@@?$allocator@VioHashString@@@std@@QAEXPAVioHashString@@AAV2@@Z$0
__ehfuncinfo$??$construct@AAVioHashString@@@?$allocator@VioHashString@@@std@@QAEXPAVioHashString@@AAV2@@Z DD 019930522H
	DD	01H
	DD	FLAT:__unwindtable$??$construct@AAVioHashString@@@?$allocator@VioHashString@@@std@@QAEXPAVioHashString@@AAV2@@Z
	DD	2 DUP(00H)
	DD	2 DUP(00H)
	DD	00H
	DD	01H
; Function compile flags: /Ogsp
; File c:\program files (x86)\microsoft visual studio 10.0\vc\include\xmemory
xdata$x	ENDS
;	COMDAT ??$construct@AAVioHashString@@@?$allocator@VioHashString@@@std@@QAEXPAVioHashString@@AAV2@@Z
_TEXT	SEGMENT
$T510325 = -16						; size = 4
__$EHRec$ = -12						; size = 12
__Ptr$ = 8						; size = 4
__Val$ = 12						; size = 4
??$construct@AAVioHashString@@@?$allocator@VioHashString@@@std@@QAEXPAVioHashString@@AAV2@@Z PROC ; std::allocator<ioHashString>::construct<ioHashString &>, COMDAT
; _this$ = ecx

; 206  : 		void construct(pointer _Ptr, _Other&& _Val)

  00000	6a 04		 push	 4
  00002	b8 00 00 00 00	 mov	 eax, __ehhandler$??$construct@AAVioHashString@@@?$allocator@VioHashString@@@std@@QAEXPAVioHashString@@AAV2@@Z
  00007	e8 00 00 00 00	 call	 __EH_prolog3

; 207  : 		{	// construct object at _Ptr with value _Val
; 208  : 		::new ((void _FARQ *)_Ptr) _Ty(_STD forward<_Other>(_Val));

  0000c	8b 4d 08	 mov	 ecx, DWORD PTR __Ptr$[ebp]
  0000f	89 4d f0	 mov	 DWORD PTR $T510325[ebp], ecx
  00012	83 65 fc 00	 and	 DWORD PTR __$EHRec$[ebp+8], 0
  00016	85 c9		 test	 ecx, ecx
  00018	74 09		 je	 SHORT $LN3@construct
  0001a	ff 75 0c	 push	 DWORD PTR __Val$[ebp]
  0001d	ff 15 00 00 00
	00		 call	 DWORD PTR __imp_??0ioHashString@@QAE@ABV0@@Z
$LN3@construct:

; 209  : 		}

  00023	e8 00 00 00 00	 call	 __EH_epilog3
  00028	c2 08 00	 ret	 8
_TEXT	ENDS
;	COMDAT text$x
text$x	SEGMENT
__unwindfunclet$??$construct@AAVioHashString@@@?$allocator@VioHashString@@@std@@QAEXPAVioHashString@@AAV2@@Z$0:
  00000	ff 75 08	 push	 DWORD PTR __Ptr$[ebp]
  00003	ff 75 f0	 push	 DWORD PTR $T510325[ebp]
  00006	e8 00 00 00 00	 call	 ??3@YAXPAX0@Z		; operator delete
  0000b	59		 pop	 ecx
  0000c	59		 pop	 ecx
  0000d	c3		 ret	 0
__ehhandler$??$construct@AAVioHashString@@@?$allocator@VioHashString@@@std@@QAEXPAVioHashString@@AAV2@@Z:
  0000e	8b 54 24 08	 mov	 edx, DWORD PTR [esp+8]
  00012	8d 42 0c	 lea	 eax, DWORD PTR [edx+12]
  00015	8b 4a ec	 mov	 ecx, DWORD PTR [edx-20]
  00018	33 c8		 xor	 ecx, eax
  0001a	e8 00 00 00 00	 call	 @__security_check_cookie@4
  0001f	b8 00 00 00 00	 mov	 eax, OFFSET __ehfuncinfo$??$construct@AAVioHashString@@@?$allocator@VioHashString@@@std@@QAEXPAVioHashString@@AAV2@@Z
  00024	e9 00 00 00 00	 jmp	 ___CxxFrameHandler3
text$x	ENDS
??$construct@AAVioHashString@@@?$allocator@VioHashString@@@std@@QAEXPAVioHashString@@AAV2@@Z ENDP ; std::allocator<ioHashString>::construct<ioHashString &>
PUBLIC	?construct@?$allocator@VioHashString@@@std@@QAEXPAVioHashString@@$$QAV3@@Z ; std::allocator<ioHashString>::construct
;	COMDAT xdata$x
; File c:\program files (x86)\microsoft visual studio 10.0\vc\include\utility
xdata$x	SEGMENT
__unwindtable$?construct@?$allocator@VioHashString@@@std@@QAEXPAVioHashString@@$$QAV3@@Z DD 0ffffffffH
	DD	FLAT:__unwindfunclet$?construct@?$allocator@VioHashString@@@std@@QAEXPAVioHashString@@$$QAV3@@Z$0
__ehfuncinfo$?construct@?$allocator@VioHashString@@@std@@QAEXPAVioHashString@@$$QAV3@@Z DD 019930522H
	DD	01H
	DD	FLAT:__unwindtable$?construct@?$allocator@VioHashString@@@std@@QAEXPAVioHashString@@$$QAV3@@Z
	DD	2 DUP(00H)
	DD	2 DUP(00H)
	DD	00H
	DD	01H
; Function compile flags: /Ogsp
; File c:\program files (x86)\microsoft visual studio 10.0\vc\include\xmemory
xdata$x	ENDS
;	COMDAT ?construct@?$allocator@VioHashString@@@std@@QAEXPAVioHashString@@$$QAV3@@Z
_TEXT	SEGMENT
$T510344 = -16						; size = 4
__$EHRec$ = -12						; size = 12
__Ptr$ = 8						; size = 4
__Val$ = 12						; size = 4
?construct@?$allocator@VioHashString@@@std@@QAEXPAVioHashString@@$$QAV3@@Z PROC ; std::allocator<ioHashString>::construct, COMDAT
; _this$ = ecx

; 201  : 		{	// construct object at _Ptr with value _Val

  00000	6a 04		 push	 4
  00002	b8 00 00 00 00	 mov	 eax, __ehhandler$?construct@?$allocator@VioHashString@@@std@@QAEXPAVioHashString@@$$QAV3@@Z
  00007	e8 00 00 00 00	 call	 __EH_prolog3

; 202  : 		::new ((void _FARQ *)_Ptr) _Ty(_STD forward<_Ty>(_Val));

  0000c	8b 4d 08	 mov	 ecx, DWORD PTR __Ptr$[ebp]
  0000f	89 4d f0	 mov	 DWORD PTR $T510344[ebp], ecx
  00012	83 65 fc 00	 and	 DWORD PTR __$EHRec$[ebp+8], 0
  00016	85 c9		 test	 ecx, ecx
  00018	74 09		 je	 SHORT $LN3@construct@2
  0001a	ff 75 0c	 push	 DWORD PTR __Val$[ebp]
  0001d	ff 15 00 00 00
	00		 call	 DWORD PTR __imp_??0ioHashString@@QAE@ABV0@@Z
$LN3@construct@2:

; 203  : 		}

  00023	e8 00 00 00 00	 call	 __EH_epilog3
  00028	c2 08 00	 ret	 8
_TEXT	ENDS
;	COMDAT text$x
text$x	SEGMENT
__unwindfunclet$?construct@?$allocator@VioHashString@@@std@@QAEXPAVioHashString@@$$QAV3@@Z$0:
  00000	ff 75 08	 push	 DWORD PTR __Ptr$[ebp]
  00003	ff 75 f0	 push	 DWORD PTR $T510344[ebp]
  00006	e8 00 00 00 00	 call	 ??3@YAXPAX0@Z		; operator delete
  0000b	59		 pop	 ecx
  0000c	59		 pop	 ecx
  0000d	c3		 ret	 0
__ehhandler$?construct@?$allocator@VioHashString@@@std@@QAEXPAVioHashString@@$$QAV3@@Z:
  0000e	8b 54 24 08	 mov	 edx, DWORD PTR [esp+8]
  00012	8d 42 0c	 lea	 eax, DWORD PTR [edx+12]
  00015	8b 4a ec	 mov	 ecx, DWORD PTR [edx-20]
  00018	33 c8		 xor	 ecx, eax
  0001a	e8 00 00 00 00	 call	 @__security_check_cookie@4
  0001f	b8 00 00 00 00	 mov	 eax, OFFSET __ehfuncinfo$?construct@?$allocator@VioHashString@@@std@@QAEXPAVioHashString@@$$QAV3@@Z
  00024	e9 00 00 00 00	 jmp	 ___CxxFrameHandler3
text$x	ENDS
?construct@?$allocator@VioHashString@@@std@@QAEXPAVioHashString@@$$QAV3@@Z ENDP ; std::allocator<ioHashString>::construct
PUBLIC	?begin@?$vector@VioHashString@@V?$allocator@VioHashString@@@std@@@std@@QAE?AV?$_Vector_iterator@V?$_Vector_val@VioHashString@@V?$allocator@VioHashString@@@std@@@std@@@2@XZ ; std::vector<ioHashString,std::allocator<ioHashString> >::begin
; Function compile flags: /Ogsp
; File c:\program files (x86)\microsoft visual studio 10.0\vc\include\vector
;	COMDAT ?begin@?$vector@VioHashString@@V?$allocator@VioHashString@@@std@@@std@@QAE?AV?$_Vector_iterator@V?$_Vector_val@VioHashString@@V?$allocator@VioHashString@@@std@@@std@@@2@XZ
_TEXT	SEGMENT
___$ReturnUdt$ = 8					; size = 4
?begin@?$vector@VioHashString@@V?$allocator@VioHashString@@@std@@@std@@QAE?AV?$_Vector_iterator@V?$_Vector_val@VioHashString@@V?$allocator@VioHashString@@@std@@@std@@@2@XZ PROC ; std::vector<ioHashString,std::allocator<ioHashString> >::begin, COMDAT
; _this$ = ecx

; 781  : 		{	// return iterator for beginning of mutable sequence

  00000	55		 push	 ebp
  00001	8b ec		 mov	 ebp, esp

; 782  : 		return (iterator(this->_Myfirst, this));

  00003	8b 09		 mov	 ecx, DWORD PTR [ecx]
  00005	8b 45 08	 mov	 eax, DWORD PTR ___$ReturnUdt$[ebp]
  00008	89 08		 mov	 DWORD PTR [eax], ecx

; 783  : 		}

  0000a	5d		 pop	 ebp
  0000b	c2 04 00	 ret	 4
?begin@?$vector@VioHashString@@V?$allocator@VioHashString@@@std@@@std@@QAE?AV?$_Vector_iterator@V?$_Vector_val@VioHashString@@V?$allocator@VioHashString@@@std@@@std@@@2@XZ ENDP ; std::vector<ioHashString,std::allocator<ioHashString> >::begin
_TEXT	ENDS
PUBLIC	?end@?$vector@VioHashString@@V?$allocator@VioHashString@@@std@@@std@@QAE?AV?$_Vector_iterator@V?$_Vector_val@VioHashString@@V?$allocator@VioHashString@@@std@@@std@@@2@XZ ; std::vector<ioHashString,std::allocator<ioHashString> >::end
; Function compile flags: /Ogsp
;	COMDAT ?end@?$vector@VioHashString@@V?$allocator@VioHashString@@@std@@@std@@QAE?AV?$_Vector_iterator@V?$_Vector_val@VioHashString@@V?$allocator@VioHashString@@@std@@@std@@@2@XZ
_TEXT	SEGMENT
___$ReturnUdt$ = 8					; size = 4
?end@?$vector@VioHashString@@V?$allocator@VioHashString@@@std@@@std@@QAE?AV?$_Vector_iterator@V?$_Vector_val@VioHashString@@V?$allocator@VioHashString@@@std@@@std@@@2@XZ PROC ; std::vector<ioHashString,std::allocator<ioHashString> >::end, COMDAT
; _this$ = ecx

; 791  : 		{	// return iterator for end of mutable sequence

  00000	55		 push	 ebp
  00001	8b ec		 mov	 ebp, esp

; 792  : 		return (iterator(this->_Mylast, this));

  00003	8b 49 04	 mov	 ecx, DWORD PTR [ecx+4]
  00006	8b 45 08	 mov	 eax, DWORD PTR ___$ReturnUdt$[ebp]
  00009	89 08		 mov	 DWORD PTR [eax], ecx

; 793  : 		}

  0000b	5d		 pop	 ebp
  0000c	c2 04 00	 ret	 4
?end@?$vector@VioHashString@@V?$allocator@VioHashString@@@std@@@std@@QAE?AV?$_Vector_iterator@V?$_Vector_val@VioHashString@@V?$allocator@VioHashString@@@std@@@std@@@2@XZ ENDP ; std::vector<ioHashString,std::allocator<ioHashString> >::end
_TEXT	ENDS
PUBLIC	??0?$_Vector_val@VioHashString@@V?$allocator@VioHashString@@@std@@@std@@QAE@V?$allocator@VioHashString@@@1@@Z ; std::_Vector_val<ioHashString,std::allocator<ioHashString> >::_Vector_val<ioHashString,std::allocator<ioHashString> >
; Function compile flags: /Ogsp
;	COMDAT ??0?$_Vector_val@VioHashString@@V?$allocator@VioHashString@@@std@@@std@@QAE@V?$allocator@VioHashString@@@1@@Z
_TEXT	SEGMENT
__Al$ = 8						; size = 1
??0?$_Vector_val@VioHashString@@V?$allocator@VioHashString@@@std@@@std@@QAE@V?$allocator@VioHashString@@@1@@Z PROC ; std::_Vector_val<ioHashString,std::allocator<ioHashString> >::_Vector_val<ioHashString,std::allocator<ioHashString> >, COMDAT
; _this$ = ecx

; 426  : 		{	// construct allocator from _Al

  00000	8b c1		 mov	 eax, ecx

; 427  : 		_Myfirst = 0;

  00002	33 c9		 xor	 ecx, ecx
  00004	89 08		 mov	 DWORD PTR [eax], ecx

; 428  : 		_Mylast = 0;

  00006	89 48 04	 mov	 DWORD PTR [eax+4], ecx

; 429  : 		_Myend = 0;

  00009	89 48 08	 mov	 DWORD PTR [eax+8], ecx

; 430  : 		}

  0000c	c2 04 00	 ret	 4
??0?$_Vector_val@VioHashString@@V?$allocator@VioHashString@@@std@@@std@@QAE@V?$allocator@VioHashString@@@1@@Z ENDP ; std::_Vector_val<ioHashString,std::allocator<ioHashString> >::_Vector_val<ioHashString,std::allocator<ioHashString> >
_TEXT	ENDS
PUBLIC	?_Make_iter@?$vector@VioHashString@@V?$allocator@VioHashString@@@std@@@std@@QBE?AV?$_Vector_iterator@V?$_Vector_val@VioHashString@@V?$allocator@VioHashString@@@std@@@std@@@2@V?$_Vector_const_iterator@V?$_Vector_val@VioHashString@@V?$allocator@VioHashString@@@std@@@std@@@2@@Z ; std::vector<ioHashString,std::allocator<ioHashString> >::_Make_iter
; Function compile flags: /Ogsp
;	COMDAT ?_Make_iter@?$vector@VioHashString@@V?$allocator@VioHashString@@@std@@@std@@QBE?AV?$_Vector_iterator@V?$_Vector_val@VioHashString@@V?$allocator@VioHashString@@@std@@@std@@@2@V?$_Vector_const_iterator@V?$_Vector_val@VioHashString@@V?$allocator@VioHashString@@@std@@@std@@@2@@Z
_TEXT	SEGMENT
___$ReturnUdt$ = 8					; size = 4
__Where$ = 12						; size = 4
?_Make_iter@?$vector@VioHashString@@V?$allocator@VioHashString@@@std@@@std@@QBE?AV?$_Vector_iterator@V?$_Vector_val@VioHashString@@V?$allocator@VioHashString@@@std@@@std@@@2@V?$_Vector_const_iterator@V?$_Vector_val@VioHashString@@V?$allocator@VioHashString@@@std@@@std@@@2@@Z PROC ; std::vector<ioHashString,std::allocator<ioHashString> >::_Make_iter, COMDAT
; _this$ = ecx

; 801  : 		{	// make iterator from const_iterator

  00000	55		 push	 ebp
  00001	8b ec		 mov	 ebp, esp

; 802  : 		return (iterator(_Where._Ptr, this));

  00003	8b 45 08	 mov	 eax, DWORD PTR ___$ReturnUdt$[ebp]
  00006	8b 4d 0c	 mov	 ecx, DWORD PTR __Where$[ebp]
  00009	89 08		 mov	 DWORD PTR [eax], ecx

; 803  : 		}

  0000b	5d		 pop	 ebp
  0000c	c2 08 00	 ret	 8
?_Make_iter@?$vector@VioHashString@@V?$allocator@VioHashString@@@std@@@std@@QBE?AV?$_Vector_iterator@V?$_Vector_val@VioHashString@@V?$allocator@VioHashString@@@std@@@std@@@2@V?$_Vector_const_iterator@V?$_Vector_val@VioHashString@@V?$allocator@VioHashString@@@std@@@std@@@2@@Z ENDP ; std::vector<ioHashString,std::allocator<ioHashString> >::_Make_iter
_TEXT	ENDS
PUBLIC	?max_size@?$vector@VioHashString@@V?$allocator@VioHashString@@@std@@@std@@QBEIXZ ; std::vector<ioHashString,std::allocator<ioHashString> >::max_size
; Function compile flags: /Ogsp
;	COMDAT ?max_size@?$vector@VioHashString@@V?$allocator@VioHashString@@@std@@@std@@QBEIXZ
_TEXT	SEGMENT
?max_size@?$vector@VioHashString@@V?$allocator@VioHashString@@@std@@@std@@QBEIXZ PROC ; std::vector<ioHashString,std::allocator<ioHashString> >::max_size, COMDAT
; _this$ = ecx

; 884  : 		return (this->_Alval.max_size());

  00000	b8 ff ff ff 0f	 mov	 eax, 268435455		; 0fffffffH

; 885  : 		}

  00005	c3		 ret	 0
?max_size@?$vector@VioHashString@@V?$allocator@VioHashString@@@std@@@std@@QBEIXZ ENDP ; std::vector<ioHashString,std::allocator<ioHashString> >::max_size
_TEXT	ENDS
PUBLIC	?allocate@?$allocator@VioHashString@@@std@@QAEPAVioHashString@@I@Z ; std::allocator<ioHashString>::allocate
; Function compile flags: /Ogsp
; File c:\program files (x86)\microsoft visual studio 10.0\vc\include\xmemory
;	COMDAT ?allocate@?$allocator@VioHashString@@@std@@QAEPAVioHashString@@I@Z
_TEXT	SEGMENT
__Count$ = 8						; size = 4
?allocate@?$allocator@VioHashString@@@std@@QAEPAVioHashString@@I@Z PROC ; std::allocator<ioHashString>::allocate, COMDAT
; _this$ = ecx

; 186  : 		{	// allocate array of _Count elements

  00000	55		 push	 ebp
  00001	8b ec		 mov	 ebp, esp

; 187  : 		return (_Allocate(_Count, (pointer)0));

  00003	6a 00		 push	 0
  00005	ff 75 08	 push	 DWORD PTR __Count$[ebp]
  00008	e8 00 00 00 00	 call	 ??$_Allocate@VioHashString@@@std@@YAPAVioHashString@@IPAV1@@Z ; std::_Allocate<ioHashString>
  0000d	59		 pop	 ecx
  0000e	59		 pop	 ecx

; 188  : 		}

  0000f	5d		 pop	 ebp
  00010	c2 04 00	 ret	 4
?allocate@?$allocator@VioHashString@@@std@@QAEPAVioHashString@@I@Z ENDP ; std::allocator<ioHashString>::allocate
_TEXT	ENDS
PUBLIC	??8?$_Vector_const_iterator@V?$_Vector_val@VioHashString@@V?$allocator@VioHashString@@@std@@@std@@@std@@QBE_NABV01@@Z ; std::_Vector_const_iterator<std::_Vector_val<ioHashString,std::allocator<ioHashString> > >::operator==
; Function compile flags: /Ogsp
; File c:\program files (x86)\microsoft visual studio 10.0\vc\include\vector
;	COMDAT ??8?$_Vector_const_iterator@V?$_Vector_val@VioHashString@@V?$allocator@VioHashString@@@std@@@std@@@std@@QBE_NABV01@@Z
_TEXT	SEGMENT
__Right$ = 8						; size = 4
??8?$_Vector_const_iterator@V?$_Vector_val@VioHashString@@V?$allocator@VioHashString@@@std@@@std@@@std@@QBE_NABV01@@Z PROC ; std::_Vector_const_iterator<std::_Vector_val<ioHashString,std::allocator<ioHashString> > >::operator==, COMDAT
; _this$ = ecx

; 201  : 		{	// test for iterator equality

  00000	55		 push	 ebp
  00001	8b ec		 mov	 ebp, esp

; 202  : 		_Compat(_Right);
; 203  : 		return (this->_Ptr == _Right._Ptr);

  00003	8b 01		 mov	 eax, DWORD PTR [ecx]
  00005	8b 4d 08	 mov	 ecx, DWORD PTR __Right$[ebp]
  00008	2b 01		 sub	 eax, DWORD PTR [ecx]
  0000a	f7 d8		 neg	 eax
  0000c	1b c0		 sbb	 eax, eax
  0000e	40		 inc	 eax

; 204  : 		}

  0000f	5d		 pop	 ebp
  00010	c2 04 00	 ret	 4
??8?$_Vector_const_iterator@V?$_Vector_val@VioHashString@@V?$allocator@VioHashString@@@std@@@std@@@std@@QBE_NABV01@@Z ENDP ; std::_Vector_const_iterator<std::_Vector_val<ioHashString,std::allocator<ioHashString> > >::operator==
_TEXT	ENDS
PUBLIC	??$_Move@PAVioHashString@@PAV1@@std@@YAPAVioHashString@@PAV1@00U_Nonscalar_ptr_iterator_tag@0@@Z ; std::_Move<ioHashString *,ioHashString *>
EXTRN	__imp_??4ioHashString@@QAEAAV0@ABV0@@Z:PROC
; Function compile flags: /Ogsp
; File c:\program files (x86)\microsoft visual studio 10.0\vc\include\xutility
;	COMDAT ??$_Move@PAVioHashString@@PAV1@@std@@YAPAVioHashString@@PAV1@00U_Nonscalar_ptr_iterator_tag@0@@Z
_TEXT	SEGMENT
__First$ = 8						; size = 4
__Last$ = 12						; size = 4
__Dest$ = 16						; size = 4
___formal$ = 20						; size = 1
??$_Move@PAVioHashString@@PAV1@@std@@YAPAVioHashString@@PAV1@00U_Nonscalar_ptr_iterator_tag@0@@Z PROC ; std::_Move<ioHashString *,ioHashString *>, COMDAT

; 2512 : 	{	// move [_First, _Last) to [_Dest, ...), arbitrary iterators

  00000	55		 push	 ebp
  00001	8b ec		 mov	 ebp, esp
  00003	56		 push	 esi

; 2513 : 	for (; _First != _Last; ++_Dest, ++_First)

  00004	8b 75 08	 mov	 esi, DWORD PTR __First$[ebp]
  00007	eb 11		 jmp	 SHORT $LN11@Move
$LL3@Move:

; 2514 : 		*_Dest = _STD move(*_First);

  00009	8b 4d 10	 mov	 ecx, DWORD PTR __Dest$[ebp]
  0000c	56		 push	 esi
  0000d	ff 15 00 00 00
	00		 call	 DWORD PTR __imp_??4ioHashString@@QAEAAV0@ABV0@@Z
  00013	83 45 10 10	 add	 DWORD PTR __Dest$[ebp], 16 ; 00000010H
  00017	83 c6 10	 add	 esi, 16			; 00000010H
$LN11@Move:

; 2513 : 	for (; _First != _Last; ++_Dest, ++_First)

  0001a	3b 75 0c	 cmp	 esi, DWORD PTR __Last$[ebp]
  0001d	75 ea		 jne	 SHORT $LL3@Move

; 2515 : 	return (_Dest);

  0001f	8b 45 10	 mov	 eax, DWORD PTR __Dest$[ebp]
  00022	5e		 pop	 esi

; 2516 : 	}

  00023	5d		 pop	 ebp
  00024	c3		 ret	 0
??$_Move@PAVioHashString@@PAV1@@std@@YAPAVioHashString@@PAV1@00U_Nonscalar_ptr_iterator_tag@0@@Z ENDP ; std::_Move<ioHashString *,ioHashString *>
_TEXT	ENDS
PUBLIC	??$_Destroy@VioHashString@@@std@@YAXPAVioHashString@@@Z ; std::_Destroy<ioHashString>
; Function compile flags: /Ogsp
; File c:\program files (x86)\microsoft visual studio 10.0\vc\include\xmemory
;	COMDAT ??$_Destroy@VioHashString@@@std@@YAXPAVioHashString@@@Z
_TEXT	SEGMENT
__Ptr$ = 8						; size = 4
??$_Destroy@VioHashString@@@std@@YAXPAVioHashString@@@Z PROC ; std::_Destroy<ioHashString>, COMDAT

; 62   : 	{	// destroy object at _Ptr

  00000	55		 push	 ebp
  00001	8b ec		 mov	 ebp, esp

; 63   : 	_Ptr->~_Ty();

  00003	8b 4d 08	 mov	 ecx, DWORD PTR __Ptr$[ebp]

; 64   : 	}

  00006	5d		 pop	 ebp

; 63   : 	_Ptr->~_Ty();

  00007	ff 25 00 00 00
	00		 jmp	 DWORD PTR __imp_??1ioHashString@@QAE@XZ
??$_Destroy@VioHashString@@@std@@YAXPAVioHashString@@@Z ENDP ; std::_Destroy<ioHashString>
_TEXT	ENDS
PUBLIC	?construct@?$allocator@VioHashString@@@std@@QAEXPAVioHashString@@ABV3@@Z ; std::allocator<ioHashString>::construct
; Function compile flags: /Ogsp
;	COMDAT ?construct@?$allocator@VioHashString@@@std@@QAEXPAVioHashString@@ABV3@@Z
_TEXT	SEGMENT
__Ptr$ = 8						; size = 4
__Val$ = 12						; size = 4
?construct@?$allocator@VioHashString@@@std@@QAEXPAVioHashString@@ABV3@@Z PROC ; std::allocator<ioHashString>::construct, COMDAT
; _this$ = ecx

; 196  : 		{	// construct object at _Ptr with value _Val

  00000	55		 push	 ebp
  00001	8b ec		 mov	 ebp, esp

; 197  : 		_Construct(_Ptr, _Val);

  00003	ff 75 0c	 push	 DWORD PTR __Val$[ebp]
  00006	ff 75 08	 push	 DWORD PTR __Ptr$[ebp]
  00009	e8 00 00 00 00	 call	 ??$_Construct@VioHashString@@ABV1@@std@@YAXPAVioHashString@@ABV1@@Z ; std::_Construct<ioHashString,ioHashString const &>
  0000e	59		 pop	 ecx
  0000f	59		 pop	 ecx

; 198  : 		}

  00010	5d		 pop	 ebp
  00011	c2 08 00	 ret	 8
?construct@?$allocator@VioHashString@@@std@@QAEXPAVioHashString@@ABV3@@Z ENDP ; std::allocator<ioHashString>::construct
_TEXT	ENDS
PUBLIC	??_C@_0DG@GMBBJDMP@ioFileSocket?3?3DisconnectProcess?5@ ; `string'
;	COMDAT ??_C@_0DG@GMBBJDMP@ioFileSocket?3?3DisconnectProcess?5@
; File d:\lost saga for developer\youtube\tutorial\source\src\io3dengine\iosingleton.h
CONST	SEGMENT
??_C@_0DG@GMBBJDMP@ioFileSocket?3?3DisconnectProcess?5@ DB 'ioFileSocket:'
	DB	':DisconnectProcess - Disconnected Server', 00H ; `string'
; Function compile flags: /Ogsp
; File d:\lost saga for developer\youtube\tutorial\source\src\lsclient\iofilewriteclient.cpp
CONST	ENDS
;	COMDAT ?DisconnectProcess@ioFileSocket@@UAEXXZ
_TEXT	SEGMENT
?DisconnectProcess@ioFileSocket@@UAEXXZ PROC		; ioFileSocket::DisconnectProcess, COMDAT
; _this$ = ecx

; 38   : {

  00000	56		 push	 esi

; 39   : 	LOG.PrintTimeAndLog( 0, "ioFileSocket::DisconnectProcess - Disconnected Server" );

  00001	68 00 00 00 00	 push	 OFFSET ??_C@_0DG@GMBBJDMP@ioFileSocket?3?3DisconnectProcess?5@
  00006	6a 00		 push	 0
  00008	ff 35 00 00 00
	00		 push	 DWORD PTR __imp_?LOG@@3VCLog@@A
  0000e	8b f1		 mov	 esi, ecx
  00010	ff 15 00 00 00
	00		 call	 DWORD PTR __imp_?PrintTimeAndLog@CLog@@QAAXHPADZZ

; 40   : 	SAFEDELETE( m_pNS );	

  00016	8b 8e 28 01 00
	00		 mov	 ecx, DWORD PTR [esi+296]
  0001c	83 c4 0c	 add	 esp, 12			; 0000000cH
  0001f	85 c9		 test	 ecx, ecx
  00021	74 0e		 je	 SHORT $LN1@Disconnect
  00023	8b 01		 mov	 eax, DWORD PTR [ecx]
  00025	6a 01		 push	 1
  00027	ff 50 24	 call	 DWORD PTR [eax+36]
  0002a	83 a6 28 01 00
	00 00		 and	 DWORD PTR [esi+296], 0
$LN1@Disconnect:

; 41   : 	g_FileWriteClient.DisconnectProcess();

  00031	8b 0d 00 00 00
	00		 mov	 ecx, DWORD PTR ?ms_Singleton@?$Singleton@VioFileWriteClient@@@@1PAVioFileWriteClient@@A ; Singleton<ioFileWriteClient>::ms_Singleton
  00037	5e		 pop	 esi
  00038	e9 00 00 00 00	 jmp	 ?DisconnectProcess@ioFileWriteClient@@QAEXXZ ; ioFileWriteClient::DisconnectProcess
?DisconnectProcess@ioFileSocket@@UAEXXZ ENDP		; ioFileSocket::DisconnectProcess
_TEXT	ENDS
PUBLIC	??_C@_0BA@IGCFLDDN@ExitProgram?5?9?59?$AA@	; `string'
PUBLIC	__real@45fa0000
PUBLIC	__real@40000000
PUBLIC	__real@45fa0800
PUBLIC	__real@3f800000
PUBLIC	?RecvPacket@ioFileWriteClient@@QAEXAAVSP2Packet@@@Z ; ioFileWriteClient::RecvPacket
EXTRN	?SetExitProgram@ioApplication@@QAEXXZ:PROC	; ioApplication::SetExitProgram
EXTRN	?ExceptCallBack@@YGJPAU_EXCEPTION_POINTERS@@@Z:PROC ; ExceptCallBack
EXTRN	__imp_?SetPosition@ErrorReport@@YAXMM@Z:PROC
EXTRN	__fltused:DWORD
EXTRN	__SEH_epilog4:PROC
EXTRN	__except_handler4:PROC
EXTRN	__SEH_prolog4:PROC
;	COMDAT ??_C@_0BA@IGCFLDDN@ExitProgram?5?9?59?$AA@
CONST	SEGMENT
??_C@_0BA@IGCFLDDN@ExitProgram?5?9?59?$AA@ DB 'ExitProgram - 9', 00H ; `string'
CONST	ENDS
;	COMDAT __real@45fa0000
CONST	SEGMENT
__real@45fa0000 DD 045fa0000r			; 8000
CONST	ENDS
;	COMDAT __real@40000000
CONST	SEGMENT
__real@40000000 DD 040000000r			; 2
CONST	ENDS
;	COMDAT __real@45fa0800
CONST	SEGMENT
__real@45fa0800 DD 045fa0800r			; 8001
CONST	ENDS
;	COMDAT __real@3f800000
CONST	SEGMENT
__real@3f800000 DD 03f800000r			; 1
CONST	ENDS
;	COMDAT xdata$x
xdata$x	SEGMENT
__sehtable$?RecvPacket@ioFileWriteClient@@QAEXAAVSP2Packet@@@Z DD 0fffffffeH
	DD	00H
	DD	0ffffffd8H
	DD	00H
	DD	0fffffffeH
	DD	FLAT:$LN9@RecvPacket
	DD	FLAT:$LN10@RecvPacket
; Function compile flags: /Ogsp
xdata$x	ENDS
;	COMDAT ?RecvPacket@ioFileWriteClient@@QAEXAAVSP2Packet@@@Z
_TEXT	SEGMENT
__$SEHRec$ = -24					; size = 24
_rkPacket$ = 8						; size = 4
?RecvPacket@ioFileWriteClient@@QAEXAAVSP2Packet@@@Z PROC ; ioFileWriteClient::RecvPacket, COMDAT
; _this$ = ecx

; 290  : {

  00000	6a 08		 push	 8
  00002	68 00 00 00 00	 push	 OFFSET __sehtable$?RecvPacket@ioFileWriteClient@@QAEXAAVSP2Packet@@@Z
  00007	e8 00 00 00 00	 call	 __SEH_prolog4
  0000c	8b f9		 mov	 edi, ecx

; 291  : #ifndef _DEBUG
; 292  : 	__try

  0000e	9b		 fwait
  0000f	83 65 fc 00	 and	 DWORD PTR __$SEHRec$[ebp+20], 0

; 293  : #endif
; 294  : 	{
; 295  : 		switch( rkPacket.GetPacketID() )

  00013	8b 4d 08	 mov	 ecx, DWORD PTR _rkPacket$[ebp]
  00016	ff 15 00 00 00
	00		 call	 DWORD PTR __imp_?GetPacketID@CPacket@@QBEKXZ
  0001c	2d 01 30 01 00	 sub	 eax, 77825		; 00013001H
  00021	74 5d		 je	 SHORT $LN2@RecvPacket
  00023	48		 dec	 eax
  00024	74 06		 je	 SHORT $LN1@RecvPacket
$LN15@RecvPacket:

; 307  : 		}
; 308  : 	}

  00026	9b		 fwait
  00027	e9 cd 00 00 00	 jmp	 $LN14@RecvPacket
$LN1@RecvPacket:

; 302  : 		case SFTPK_ALL_FILE_WRITE:
; 303  : 			ErrorReport::SetPosition( 8001, 1 );

  0002c	51		 push	 ecx
  0002d	51		 push	 ecx
  0002e	f3 0f 10 05 00
	00 00 00	 movss	 xmm0, DWORD PTR __real@3f800000
  00036	f3 0f 11 44 24
	04		 movss	 DWORD PTR [esp+4], xmm0
  0003c	f3 0f 10 05 00
	00 00 00	 movss	 xmm0, DWORD PTR __real@45fa0800
  00044	f3 0f 11 04 24	 movss	 DWORD PTR [esp], xmm0
  00049	8b 35 00 00 00
	00		 mov	 esi, DWORD PTR __imp_?SetPosition@ErrorReport@@YAXMM@Z
  0004f	ff d6		 call	 esi
  00051	59		 pop	 ecx
  00052	59		 pop	 ecx

; 304  : 			OnTempFileWrite( rkPacket );

  00053	ff 75 08	 push	 DWORD PTR _rkPacket$[ebp]
  00056	8b cf		 mov	 ecx, edi
  00058	e8 00 00 00 00	 call	 ?OnTempFileWrite@ioFileWriteClient@@QAEXAAVSP2Packet@@@Z ; ioFileWriteClient::OnTempFileWrite

; 305  : 			ErrorReport::SetPosition( 8001, 2 );

  0005d	51		 push	 ecx
  0005e	51		 push	 ecx
  0005f	f3 0f 10 05 00
	00 00 00	 movss	 xmm0, DWORD PTR __real@40000000
  00067	f3 0f 11 44 24
	04		 movss	 DWORD PTR [esp+4], xmm0
  0006d	f3 0f 10 05 00
	00 00 00	 movss	 xmm0, DWORD PTR __real@45fa0800
$LN16@RecvPacket:
  00075	f3 0f 11 04 24	 movss	 DWORD PTR [esp], xmm0
  0007a	ff d6		 call	 esi
  0007c	59		 pop	 ecx
  0007d	59		 pop	 ecx

; 306  : 			return;

  0007e	eb a6		 jmp	 SHORT $LN15@RecvPacket
$LN2@RecvPacket:

; 296  : 		{
; 297  : 		case SFTPK_FILE_WRITE:
; 298  : 			ErrorReport::SetPosition( 8000, 1 );

  00080	51		 push	 ecx
  00081	51		 push	 ecx
  00082	f3 0f 10 05 00
	00 00 00	 movss	 xmm0, DWORD PTR __real@3f800000
  0008a	f3 0f 11 44 24
	04		 movss	 DWORD PTR [esp+4], xmm0
  00090	f3 0f 10 05 00
	00 00 00	 movss	 xmm0, DWORD PTR __real@45fa0000
  00098	f3 0f 11 04 24	 movss	 DWORD PTR [esp], xmm0
  0009d	8b 35 00 00 00
	00		 mov	 esi, DWORD PTR __imp_?SetPosition@ErrorReport@@YAXMM@Z
  000a3	ff d6		 call	 esi
  000a5	59		 pop	 ecx
  000a6	59		 pop	 ecx

; 299  : 			OnFileWrite( rkPacket );

  000a7	ff 75 08	 push	 DWORD PTR _rkPacket$[ebp]
  000aa	8b cf		 mov	 ecx, edi
  000ac	e8 00 00 00 00	 call	 ?OnFileWrite@ioFileWriteClient@@IAEXAAVSP2Packet@@@Z ; ioFileWriteClient::OnFileWrite

; 300  : 			ErrorReport::SetPosition( 8000, 2 );

  000b1	51		 push	 ecx
  000b2	51		 push	 ecx
  000b3	f3 0f 10 05 00
	00 00 00	 movss	 xmm0, DWORD PTR __real@40000000
  000bb	f3 0f 11 44 24
	04		 movss	 DWORD PTR [esp+4], xmm0
  000c1	f3 0f 10 05 00
	00 00 00	 movss	 xmm0, DWORD PTR __real@45fa0000

; 301  : 			return;

  000c9	eb aa		 jmp	 SHORT $LN16@RecvPacket
$LN9@RecvPacket:
$LN17@RecvPacket:

; 309  : #ifndef _DEBUG
; 310  : 	__except( ExceptCallBack( GetExceptionInformation() ) )

  000cb	ff 75 ec	 push	 DWORD PTR __$SEHRec$[ebp+4]
  000ce	e8 00 00 00 00	 call	 ?ExceptCallBack@@YGJPAU_EXCEPTION_POINTERS@@@Z ; ExceptCallBack
$LN13@RecvPacket:
$LN11@RecvPacket:
  000d3	c3		 ret	 0
$LN10@RecvPacket:
  000d4	8b 65 e8	 mov	 esp, DWORD PTR __$SEHRec$[ebp]

; 311  : 	{
; 312  : 		LOG.PrintTimeAndLog( 0, "ExitProgram - 9" );

  000d7	68 00 00 00 00	 push	 OFFSET ??_C@_0BA@IGCFLDDN@ExitProgram?5?9?59?$AA@
  000dc	6a 00		 push	 0
  000de	ff 35 00 00 00
	00		 push	 DWORD PTR __imp_?LOG@@3VCLog@@A
  000e4	ff 15 00 00 00
	00		 call	 DWORD PTR __imp_?PrintTimeAndLog@CLog@@QAAXHPADZZ
  000ea	83 c4 0c	 add	 esp, 12			; 0000000cH

; 313  : 		g_App.SetExitProgram();

  000ed	e8 00 00 00 00	 call	 ?GetSingleton@ioApplication@@SAAAV1@XZ ; ioApplication::GetSingleton
  000f2	8b c8		 mov	 ecx, eax
  000f4	e8 00 00 00 00	 call	 ?SetExitProgram@ioApplication@@QAEXXZ ; ioApplication::SetExitProgram
$LN14@RecvPacket:

; 314  : 	}

  000f9	c7 45 fc fe ff
	ff ff		 mov	 DWORD PTR __$SEHRec$[ebp+20], -2 ; fffffffeH

; 315  : #endif
; 316  : }

  00100	e8 00 00 00 00	 call	 __SEH_epilog4
  00105	c2 04 00	 ret	 4
?RecvPacket@ioFileWriteClient@@QAEXAAVSP2Packet@@@Z ENDP ; ioFileWriteClient::RecvPacket
_TEXT	ENDS
PUBLIC	?_Grow_to@?$vector@VioHashString@@V?$allocator@VioHashString@@@std@@@std@@IBEII@Z ; std::vector<ioHashString,std::allocator<ioHashString> >::_Grow_to
; Function compile flags: /Ogsp
; File c:\program files (x86)\microsoft visual studio 10.0\vc\include\vector
;	COMDAT ?_Grow_to@?$vector@VioHashString@@V?$allocator@VioHashString@@@std@@@std@@IBEII@Z
_TEXT	SEGMENT
__Count$ = 8						; size = 4
?_Grow_to@?$vector@VioHashString@@V?$allocator@VioHashString@@@std@@@std@@IBEII@Z PROC ; std::vector<ioHashString,std::allocator<ioHashString> >::_Grow_to, COMDAT
; _this$ = ecx

; 1274 : 		{	// grow by 50% or at least to _Count

  00000	55		 push	 ebp
  00001	8b ec		 mov	 ebp, esp

; 1275 : 		size_type _Capacity = capacity();

  00003	8b 41 08	 mov	 eax, DWORD PTR [ecx+8]
  00006	2b 01		 sub	 eax, DWORD PTR [ecx]

; 1276 : 
; 1277 : 		_Capacity = max_size() - _Capacity / 2 < _Capacity
; 1278 : 			? 0 : _Capacity + _Capacity / 2;	// try to grow by 50%

  00008	ba ff ff ff 0f	 mov	 edx, 268435455		; 0fffffffH
  0000d	c1 f8 04	 sar	 eax, 4
  00010	8b c8		 mov	 ecx, eax
  00012	d1 e9		 shr	 ecx, 1
  00014	2b d1		 sub	 edx, ecx
  00016	3b d0		 cmp	 edx, eax
  00018	73 04		 jae	 SHORT $LN4@Grow_to
  0001a	33 c0		 xor	 eax, eax
  0001c	eb 02		 jmp	 SHORT $LN5@Grow_to
$LN4@Grow_to:
  0001e	03 c1		 add	 eax, ecx
$LN5@Grow_to:

; 1279 : 		if (_Capacity < _Count)

  00020	3b 45 08	 cmp	 eax, DWORD PTR __Count$[ebp]

; 1280 : 			_Capacity = _Count;

  00023	0f 42 45 08	 cmovb	 eax, DWORD PTR __Count$[ebp]

; 1281 : 		return (_Capacity);
; 1282 : 		}

  00027	5d		 pop	 ebp
  00028	c2 04 00	 ret	 4
?_Grow_to@?$vector@VioHashString@@V?$allocator@VioHashString@@@std@@@std@@IBEII@Z ENDP ; std::vector<ioHashString,std::allocator<ioHashString> >::_Grow_to
_TEXT	ENDS
PUBLIC	??$?0$0P@@ioINILoader_e@@QAE@AAY0P@$$CBD_N@Z	; ioINILoader_e::ioINILoader_e<15>
EXTRN	__imp_??0ioINILoader@@QAE@PBD_N@Z:PROC
; Function compile flags: /Ogsp
; File d:\lost saga for developer\youtube\tutorial\source\src\io3dengine\ioiniloader.h
;	COMDAT ??$?0$0P@@ioINILoader_e@@QAE@AAY0P@$$CBD_N@Z
_TEXT	SEGMENT
_fn$ = 8						; size = 4
_b$ = 12						; size = 1
??$?0$0P@@ioINILoader_e@@QAE@AAY0P@$$CBD_N@Z PROC	; ioINILoader_e::ioINILoader_e<15>, COMDAT
; _this$ = ecx

; 224  : 	{

  00000	55		 push	 ebp
  00001	8b ec		 mov	 ebp, esp
  00003	53		 push	 ebx
  00004	56		 push	 esi
  00005	57		 push	 edi
  00006	8b f9		 mov	 edi, ecx
  00008	8b 4d 08	 mov	 ecx, DWORD PTR _fn$[ebp]
  0000b	8a 11		 mov	 dl, BYTE PTR [ecx]
  0000d	8d 87 50 03 00
	00		 lea	 eax, DWORD PTR [edi+848]
  00013	84 d2		 test	 dl, dl
  00015	0f 84 6a 04 00
	00		 je	 $LN99@ioINILoade
  0001b	80 f2 ed	 xor	 dl, -19			; ffffffedH
  0001e	88 10		 mov	 BYTE PTR [eax], dl
  00020	8a 51 01	 mov	 dl, BYTE PTR [ecx+1]
  00023	84 d2		 test	 dl, dl
  00025	0f 84 54 04 00
	00		 je	 $LN98@ioINILoade
  0002b	80 f2 ec	 xor	 dl, -20			; ffffffecH
  0002e	88 50 01	 mov	 BYTE PTR [eax+1], dl
  00031	8a 51 02	 mov	 dl, BYTE PTR [ecx+2]
  00034	84 d2		 test	 dl, dl
  00036	0f 84 3d 04 00
	00		 je	 $LN97@ioINILoade
  0003c	b3 eb		 mov	 bl, -21			; ffffffebH
  0003e	32 d3		 xor	 dl, bl
  00040	88 50 02	 mov	 BYTE PTR [eax+2], dl
  00043	8a 51 03	 mov	 dl, BYTE PTR [ecx+3]
  00046	84 d2		 test	 dl, dl
  00048	0f 84 25 04 00
	00		 je	 $LN96@ioINILoade
  0004e	80 f2 ea	 xor	 dl, -22			; ffffffeaH
  00051	88 50 03	 mov	 BYTE PTR [eax+3], dl
  00054	8a 51 04	 mov	 dl, BYTE PTR [ecx+4]
  00057	84 d2		 test	 dl, dl
  00059	0f 84 0e 04 00
	00		 je	 $LN95@ioINILoade
  0005f	80 f2 ed	 xor	 dl, -19			; ffffffedH
  00062	88 50 04	 mov	 BYTE PTR [eax+4], dl
  00065	8a 51 05	 mov	 dl, BYTE PTR [ecx+5]
  00068	84 d2		 test	 dl, dl
  0006a	0f 84 f7 03 00
	00		 je	 $LN94@ioINILoade
  00070	80 f2 ec	 xor	 dl, -20			; ffffffecH
  00073	88 50 05	 mov	 BYTE PTR [eax+5], dl
  00076	8a 51 06	 mov	 dl, BYTE PTR [ecx+6]
  00079	84 d2		 test	 dl, dl
  0007b	0f 84 e1 03 00
	00		 je	 $LN93@ioINILoade
  00081	32 d3		 xor	 dl, bl
  00083	88 50 06	 mov	 BYTE PTR [eax+6], dl
  00086	8a 51 07	 mov	 dl, BYTE PTR [ecx+7]
  00089	84 d2		 test	 dl, dl
  0008b	0f 84 cb 03 00
	00		 je	 $LN92@ioINILoade
  00091	80 f2 ea	 xor	 dl, -22			; ffffffeaH
  00094	88 50 07	 mov	 BYTE PTR [eax+7], dl
  00097	8a 51 08	 mov	 dl, BYTE PTR [ecx+8]
  0009a	84 d2		 test	 dl, dl
  0009c	0f 84 b4 03 00
	00		 je	 $LN91@ioINILoade
  000a2	80 f2 ed	 xor	 dl, -19			; ffffffedH
  000a5	88 50 08	 mov	 BYTE PTR [eax+8], dl
  000a8	8a 51 09	 mov	 dl, BYTE PTR [ecx+9]
  000ab	84 d2		 test	 dl, dl
  000ad	0f 84 9d 03 00
	00		 je	 $LN90@ioINILoade
  000b3	80 f2 ec	 xor	 dl, -20			; ffffffecH
  000b6	88 50 09	 mov	 BYTE PTR [eax+9], dl
  000b9	8a 51 0a	 mov	 dl, BYTE PTR [ecx+10]
  000bc	84 d2		 test	 dl, dl
  000be	0f 84 87 03 00
	00		 je	 $LN89@ioINILoade
  000c4	32 d3		 xor	 dl, bl
  000c6	88 50 0a	 mov	 BYTE PTR [eax+10], dl
  000c9	8a 51 0b	 mov	 dl, BYTE PTR [ecx+11]
  000cc	84 d2		 test	 dl, dl
  000ce	0f 84 71 03 00
	00		 je	 $LN88@ioINILoade
  000d4	80 f2 ea	 xor	 dl, -22			; ffffffeaH
  000d7	88 50 0b	 mov	 BYTE PTR [eax+11], dl
  000da	8a 51 0c	 mov	 dl, BYTE PTR [ecx+12]
  000dd	84 d2		 test	 dl, dl
  000df	0f 84 5a 03 00
	00		 je	 $LN87@ioINILoade
  000e5	80 f2 ed	 xor	 dl, -19			; ffffffedH
  000e8	88 50 0c	 mov	 BYTE PTR [eax+12], dl
  000eb	8a 51 0d	 mov	 dl, BYTE PTR [ecx+13]
  000ee	84 d2		 test	 dl, dl
  000f0	0f 84 43 03 00
	00		 je	 $LN86@ioINILoade
  000f6	80 f2 ec	 xor	 dl, -20			; ffffffecH
  000f9	88 50 0d	 mov	 BYTE PTR [eax+13], dl
  000fc	8a 51 0e	 mov	 dl, BYTE PTR [ecx+14]
  000ff	84 d2		 test	 dl, dl
  00101	0f 84 2d 03 00
	00		 je	 $LN85@ioINILoade
  00107	32 d3		 xor	 dl, bl
  00109	88 50 0e	 mov	 BYTE PTR [eax+14], dl
  0010c	8a 51 0f	 mov	 dl, BYTE PTR [ecx+15]
  0010f	84 d2		 test	 dl, dl
  00111	0f 84 17 03 00
	00		 je	 $LN84@ioINILoade
  00117	80 f2 ea	 xor	 dl, -22			; ffffffeaH
  0011a	88 50 0f	 mov	 BYTE PTR [eax+15], dl
  0011d	8a 51 10	 mov	 dl, BYTE PTR [ecx+16]
  00120	84 d2		 test	 dl, dl
  00122	0f 84 00 03 00
	00		 je	 $LN83@ioINILoade
  00128	80 f2 ed	 xor	 dl, -19			; ffffffedH
  0012b	88 50 10	 mov	 BYTE PTR [eax+16], dl
  0012e	8a 51 11	 mov	 dl, BYTE PTR [ecx+17]
  00131	84 d2		 test	 dl, dl
  00133	0f 84 e9 02 00
	00		 je	 $LN82@ioINILoade
  00139	80 f2 ec	 xor	 dl, -20			; ffffffecH
  0013c	88 50 11	 mov	 BYTE PTR [eax+17], dl
  0013f	8a 51 12	 mov	 dl, BYTE PTR [ecx+18]
  00142	84 d2		 test	 dl, dl
  00144	0f 84 d3 02 00
	00		 je	 $LN81@ioINILoade
  0014a	32 d3		 xor	 dl, bl
  0014c	88 50 12	 mov	 BYTE PTR [eax+18], dl
  0014f	8a 51 13	 mov	 dl, BYTE PTR [ecx+19]
  00152	84 d2		 test	 dl, dl
  00154	0f 84 bd 02 00
	00		 je	 $LN80@ioINILoade
  0015a	80 f2 ea	 xor	 dl, -22			; ffffffeaH
  0015d	88 50 13	 mov	 BYTE PTR [eax+19], dl
  00160	8a 51 14	 mov	 dl, BYTE PTR [ecx+20]
  00163	84 d2		 test	 dl, dl
  00165	0f 84 a6 02 00
	00		 je	 $LN79@ioINILoade
  0016b	80 f2 ed	 xor	 dl, -19			; ffffffedH
  0016e	88 50 14	 mov	 BYTE PTR [eax+20], dl
  00171	8a 51 15	 mov	 dl, BYTE PTR [ecx+21]
  00174	84 d2		 test	 dl, dl
  00176	0f 84 8f 02 00
	00		 je	 $LN78@ioINILoade
  0017c	80 f2 ec	 xor	 dl, -20			; ffffffecH
  0017f	88 50 15	 mov	 BYTE PTR [eax+21], dl
  00182	8a 51 16	 mov	 dl, BYTE PTR [ecx+22]
  00185	84 d2		 test	 dl, dl
  00187	0f 84 79 02 00
	00		 je	 $LN77@ioINILoade
  0018d	32 d3		 xor	 dl, bl
  0018f	88 50 16	 mov	 BYTE PTR [eax+22], dl
  00192	8a 51 17	 mov	 dl, BYTE PTR [ecx+23]
  00195	84 d2		 test	 dl, dl
  00197	0f 84 60 02 00
	00		 je	 $LN76@ioINILoade
  0019d	80 f2 ea	 xor	 dl, -22			; ffffffeaH
  001a0	88 50 17	 mov	 BYTE PTR [eax+23], dl
  001a3	8a 51 18	 mov	 dl, BYTE PTR [ecx+24]
  001a6	84 d2		 test	 dl, dl
  001a8	0f 84 46 02 00
	00		 je	 $LN75@ioINILoade
  001ae	80 f2 ed	 xor	 dl, -19			; ffffffedH
  001b1	88 50 18	 mov	 BYTE PTR [eax+24], dl
  001b4	8a 51 19	 mov	 dl, BYTE PTR [ecx+25]
  001b7	84 d2		 test	 dl, dl
  001b9	0f 84 2c 02 00
	00		 je	 $LN74@ioINILoade
  001bf	80 f2 ec	 xor	 dl, -20			; ffffffecH
  001c2	88 50 19	 mov	 BYTE PTR [eax+25], dl
  001c5	8a 51 1a	 mov	 dl, BYTE PTR [ecx+26]
  001c8	84 d2		 test	 dl, dl
  001ca	0f 84 13 02 00
	00		 je	 $LN73@ioINILoade
  001d0	32 d3		 xor	 dl, bl
  001d2	88 50 1a	 mov	 BYTE PTR [eax+26], dl
  001d5	8a 51 1b	 mov	 dl, BYTE PTR [ecx+27]
  001d8	84 d2		 test	 dl, dl
  001da	0f 84 fa 01 00
	00		 je	 $LN72@ioINILoade
  001e0	80 f2 ea	 xor	 dl, -22			; ffffffeaH
  001e3	88 50 1b	 mov	 BYTE PTR [eax+27], dl
  001e6	8a 51 1c	 mov	 dl, BYTE PTR [ecx+28]
  001e9	84 d2		 test	 dl, dl
  001eb	0f 84 e0 01 00
	00		 je	 $LN71@ioINILoade
  001f1	80 f2 ed	 xor	 dl, -19			; ffffffedH
  001f4	88 50 1c	 mov	 BYTE PTR [eax+28], dl
  001f7	8a 51 1d	 mov	 dl, BYTE PTR [ecx+29]
  001fa	84 d2		 test	 dl, dl
  001fc	0f 84 c6 01 00
	00		 je	 $LN70@ioINILoade
  00202	80 f2 ec	 xor	 dl, -20			; ffffffecH
  00205	88 50 1d	 mov	 BYTE PTR [eax+29], dl
  00208	8a 51 1e	 mov	 dl, BYTE PTR [ecx+30]
  0020b	84 d2		 test	 dl, dl
  0020d	0f 84 ad 01 00
	00		 je	 $LN69@ioINILoade
  00213	32 d3		 xor	 dl, bl
  00215	88 50 1e	 mov	 BYTE PTR [eax+30], dl
  00218	8a 51 1f	 mov	 dl, BYTE PTR [ecx+31]
  0021b	84 d2		 test	 dl, dl
  0021d	0f 84 94 01 00
	00		 je	 $LN68@ioINILoade
  00223	80 f2 ea	 xor	 dl, -22			; ffffffeaH
  00226	88 50 1f	 mov	 BYTE PTR [eax+31], dl
  00229	8a 51 20	 mov	 dl, BYTE PTR [ecx+32]
  0022c	84 d2		 test	 dl, dl
  0022e	0f 84 7a 01 00
	00		 je	 $LN67@ioINILoade
  00234	80 f2 ed	 xor	 dl, -19			; ffffffedH
  00237	88 50 20	 mov	 BYTE PTR [eax+32], dl
  0023a	8a 51 21	 mov	 dl, BYTE PTR [ecx+33]
  0023d	84 d2		 test	 dl, dl
  0023f	0f 84 60 01 00
	00		 je	 $LN66@ioINILoade
  00245	80 f2 ec	 xor	 dl, -20			; ffffffecH
  00248	88 50 21	 mov	 BYTE PTR [eax+33], dl
  0024b	8a 51 22	 mov	 dl, BYTE PTR [ecx+34]
  0024e	84 d2		 test	 dl, dl
  00250	0f 84 47 01 00
	00		 je	 $LN65@ioINILoade
  00256	32 d3		 xor	 dl, bl
  00258	88 50 22	 mov	 BYTE PTR [eax+34], dl
  0025b	8a 51 23	 mov	 dl, BYTE PTR [ecx+35]
  0025e	84 d2		 test	 dl, dl
  00260	0f 84 2e 01 00
	00		 je	 $LN64@ioINILoade
  00266	80 f2 ea	 xor	 dl, -22			; ffffffeaH
  00269	88 50 23	 mov	 BYTE PTR [eax+35], dl
  0026c	8a 51 24	 mov	 dl, BYTE PTR [ecx+36]
  0026f	84 d2		 test	 dl, dl
  00271	0f 84 14 01 00
	00		 je	 $LN63@ioINILoade
  00277	80 f2 ed	 xor	 dl, -19			; ffffffedH
  0027a	88 50 24	 mov	 BYTE PTR [eax+36], dl
  0027d	8a 51 25	 mov	 dl, BYTE PTR [ecx+37]
  00280	84 d2		 test	 dl, dl
  00282	0f 84 fa 00 00
	00		 je	 $LN62@ioINILoade
  00288	80 f2 ec	 xor	 dl, -20			; ffffffecH
  0028b	88 50 25	 mov	 BYTE PTR [eax+37], dl
  0028e	8a 51 26	 mov	 dl, BYTE PTR [ecx+38]
  00291	84 d2		 test	 dl, dl
  00293	0f 84 e1 00 00
	00		 je	 $LN61@ioINILoade
  00299	32 d3		 xor	 dl, bl
  0029b	88 50 26	 mov	 BYTE PTR [eax+38], dl
  0029e	8a 51 27	 mov	 dl, BYTE PTR [ecx+39]
  002a1	84 d2		 test	 dl, dl
  002a3	0f 84 c8 00 00
	00		 je	 $LN60@ioINILoade
  002a9	80 f2 ea	 xor	 dl, -22			; ffffffeaH
  002ac	88 50 27	 mov	 BYTE PTR [eax+39], dl
  002af	8a 51 28	 mov	 dl, BYTE PTR [ecx+40]
  002b2	84 d2		 test	 dl, dl
  002b4	0f 84 ae 00 00
	00		 je	 $LN59@ioINILoade
  002ba	80 f2 ed	 xor	 dl, -19			; ffffffedH
  002bd	88 50 28	 mov	 BYTE PTR [eax+40], dl
  002c0	8a 51 29	 mov	 dl, BYTE PTR [ecx+41]
  002c3	84 d2		 test	 dl, dl
  002c5	0f 84 94 00 00
	00		 je	 $LN58@ioINILoade
  002cb	80 f2 ec	 xor	 dl, -20			; ffffffecH
  002ce	88 50 29	 mov	 BYTE PTR [eax+41], dl
  002d1	8a 51 2a	 mov	 dl, BYTE PTR [ecx+42]
  002d4	84 d2		 test	 dl, dl
  002d6	74 7f		 je	 SHORT $LN57@ioINILoade
  002d8	32 d3		 xor	 dl, bl
  002da	88 50 2a	 mov	 BYTE PTR [eax+42], dl
  002dd	8a 51 2b	 mov	 dl, BYTE PTR [ecx+43]
  002e0	84 d2		 test	 dl, dl
  002e2	74 6a		 je	 SHORT $LN56@ioINILoade
  002e4	80 f2 ea	 xor	 dl, -22			; ffffffeaH
  002e7	88 50 2b	 mov	 BYTE PTR [eax+43], dl
  002ea	8a 51 2c	 mov	 dl, BYTE PTR [ecx+44]
  002ed	84 d2		 test	 dl, dl
  002ef	74 54		 je	 SHORT $LN55@ioINILoade
  002f1	80 f2 ed	 xor	 dl, -19			; ffffffedH
  002f4	88 50 2c	 mov	 BYTE PTR [eax+44], dl
  002f7	8a 51 2d	 mov	 dl, BYTE PTR [ecx+45]
  002fa	84 d2		 test	 dl, dl
  002fc	74 3e		 je	 SHORT $LN54@ioINILoade
  002fe	80 f2 ec	 xor	 dl, -20			; ffffffecH
  00301	88 50 2d	 mov	 BYTE PTR [eax+45], dl
  00304	8a 51 2e	 mov	 dl, BYTE PTR [ecx+46]
  00307	84 d2		 test	 dl, dl
  00309	74 29		 je	 SHORT $LN53@ioINILoade
  0030b	32 d3		 xor	 dl, bl
  0030d	88 50 2e	 mov	 BYTE PTR [eax+46], dl
  00310	8a 51 2f	 mov	 dl, BYTE PTR [ecx+47]
  00313	84 d2		 test	 dl, dl
  00315	74 14		 je	 SHORT $LN52@ioINILoade
  00317	80 f2 ea	 xor	 dl, -22			; ffffffeaH
  0031a	88 50 2f	 mov	 BYTE PTR [eax+47], dl
  0031d	8a 49 30	 mov	 cl, BYTE PTR [ecx+48]
  00320	80 f1 ed	 xor	 cl, -19			; ffffffedH
  00323	88 48 30	 mov	 BYTE PTR [eax+48], cl
  00326	e9 5d 01 00 00	 jmp	 $LN4@ioINILoade
$LN52@ioINILoade:
  0032b	c6 40 2f ea	 mov	 BYTE PTR [eax+47], -22	; ffffffeaH
  0032f	e9 54 01 00 00	 jmp	 $LN4@ioINILoade
$LN53@ioINILoade:
  00334	88 58 2e	 mov	 BYTE PTR [eax+46], bl
  00337	e9 4c 01 00 00	 jmp	 $LN4@ioINILoade
$LN54@ioINILoade:
  0033c	c6 40 2d ec	 mov	 BYTE PTR [eax+45], -20	; ffffffecH
  00340	e9 43 01 00 00	 jmp	 $LN4@ioINILoade
$LN55@ioINILoade:
  00345	c6 40 2c ed	 mov	 BYTE PTR [eax+44], -19	; ffffffedH
  00349	e9 3a 01 00 00	 jmp	 $LN4@ioINILoade
$LN56@ioINILoade:
  0034e	c6 40 2b ea	 mov	 BYTE PTR [eax+43], -22	; ffffffeaH
  00352	e9 31 01 00 00	 jmp	 $LN4@ioINILoade
$LN57@ioINILoade:
  00357	88 58 2a	 mov	 BYTE PTR [eax+42], bl
  0035a	e9 29 01 00 00	 jmp	 $LN4@ioINILoade
$LN58@ioINILoade:
  0035f	c6 40 29 ec	 mov	 BYTE PTR [eax+41], -20	; ffffffecH
  00363	e9 20 01 00 00	 jmp	 $LN4@ioINILoade
$LN59@ioINILoade:
  00368	c6 40 28 ed	 mov	 BYTE PTR [eax+40], -19	; ffffffedH
  0036c	e9 17 01 00 00	 jmp	 $LN4@ioINILoade
$LN60@ioINILoade:
  00371	c6 40 27 ea	 mov	 BYTE PTR [eax+39], -22	; ffffffeaH
  00375	e9 0e 01 00 00	 jmp	 $LN4@ioINILoade
$LN61@ioINILoade:
  0037a	88 58 26	 mov	 BYTE PTR [eax+38], bl
  0037d	e9 06 01 00 00	 jmp	 $LN4@ioINILoade
$LN62@ioINILoade:
  00382	c6 40 25 ec	 mov	 BYTE PTR [eax+37], -20	; ffffffecH
  00386	e9 fd 00 00 00	 jmp	 $LN4@ioINILoade
$LN63@ioINILoade:
  0038b	c6 40 24 ed	 mov	 BYTE PTR [eax+36], -19	; ffffffedH
  0038f	e9 f4 00 00 00	 jmp	 $LN4@ioINILoade
$LN64@ioINILoade:
  00394	c6 40 23 ea	 mov	 BYTE PTR [eax+35], -22	; ffffffeaH
  00398	e9 eb 00 00 00	 jmp	 $LN4@ioINILoade
$LN65@ioINILoade:
  0039d	88 58 22	 mov	 BYTE PTR [eax+34], bl
  003a0	e9 e3 00 00 00	 jmp	 $LN4@ioINILoade
$LN66@ioINILoade:
  003a5	c6 40 21 ec	 mov	 BYTE PTR [eax+33], -20	; ffffffecH
  003a9	e9 da 00 00 00	 jmp	 $LN4@ioINILoade
$LN67@ioINILoade:
  003ae	c6 40 20 ed	 mov	 BYTE PTR [eax+32], -19	; ffffffedH
  003b2	e9 d1 00 00 00	 jmp	 $LN4@ioINILoade
$LN68@ioINILoade:
  003b7	c6 40 1f ea	 mov	 BYTE PTR [eax+31], -22	; ffffffeaH
  003bb	e9 c8 00 00 00	 jmp	 $LN4@ioINILoade
$LN69@ioINILoade:
  003c0	88 58 1e	 mov	 BYTE PTR [eax+30], bl
  003c3	e9 c0 00 00 00	 jmp	 $LN4@ioINILoade
$LN70@ioINILoade:
  003c8	c6 40 1d ec	 mov	 BYTE PTR [eax+29], -20	; ffffffecH
  003cc	e9 b7 00 00 00	 jmp	 $LN4@ioINILoade
$LN71@ioINILoade:
  003d1	c6 40 1c ed	 mov	 BYTE PTR [eax+28], -19	; ffffffedH
  003d5	e9 ae 00 00 00	 jmp	 $LN4@ioINILoade
$LN72@ioINILoade:
  003da	c6 40 1b ea	 mov	 BYTE PTR [eax+27], -22	; ffffffeaH
  003de	e9 a5 00 00 00	 jmp	 $LN4@ioINILoade
$LN73@ioINILoade:
  003e3	88 58 1a	 mov	 BYTE PTR [eax+26], bl
  003e6	e9 9d 00 00 00	 jmp	 $LN4@ioINILoade
$LN74@ioINILoade:
  003eb	c6 40 19 ec	 mov	 BYTE PTR [eax+25], -20	; ffffffecH
  003ef	e9 94 00 00 00	 jmp	 $LN4@ioINILoade
$LN75@ioINILoade:
  003f4	c6 40 18 ed	 mov	 BYTE PTR [eax+24], -19	; ffffffedH
  003f8	e9 8b 00 00 00	 jmp	 $LN4@ioINILoade
$LN76@ioINILoade:
  003fd	c6 40 17 ea	 mov	 BYTE PTR [eax+23], -22	; ffffffeaH
  00401	e9 82 00 00 00	 jmp	 $LN4@ioINILoade
$LN77@ioINILoade:
  00406	88 58 16	 mov	 BYTE PTR [eax+22], bl
  00409	eb 7d		 jmp	 SHORT $LN4@ioINILoade
$LN78@ioINILoade:
  0040b	c6 40 15 ec	 mov	 BYTE PTR [eax+21], -20	; ffffffecH
  0040f	eb 77		 jmp	 SHORT $LN4@ioINILoade
$LN79@ioINILoade:
  00411	c6 40 14 ed	 mov	 BYTE PTR [eax+20], -19	; ffffffedH
  00415	eb 71		 jmp	 SHORT $LN4@ioINILoade
$LN80@ioINILoade:
  00417	c6 40 13 ea	 mov	 BYTE PTR [eax+19], -22	; ffffffeaH
  0041b	eb 6b		 jmp	 SHORT $LN4@ioINILoade
$LN81@ioINILoade:
  0041d	88 58 12	 mov	 BYTE PTR [eax+18], bl
  00420	eb 66		 jmp	 SHORT $LN4@ioINILoade
$LN82@ioINILoade:
  00422	c6 40 11 ec	 mov	 BYTE PTR [eax+17], -20	; ffffffecH
  00426	eb 60		 jmp	 SHORT $LN4@ioINILoade
$LN83@ioINILoade:
  00428	c6 40 10 ed	 mov	 BYTE PTR [eax+16], -19	; ffffffedH
  0042c	eb 5a		 jmp	 SHORT $LN4@ioINILoade
$LN84@ioINILoade:
  0042e	c6 40 0f ea	 mov	 BYTE PTR [eax+15], -22	; ffffffeaH
  00432	eb 54		 jmp	 SHORT $LN4@ioINILoade
$LN85@ioINILoade:
  00434	88 58 0e	 mov	 BYTE PTR [eax+14], bl
  00437	eb 4f		 jmp	 SHORT $LN4@ioINILoade
$LN86@ioINILoade:
  00439	c6 40 0d ec	 mov	 BYTE PTR [eax+13], -20	; ffffffecH
  0043d	eb 49		 jmp	 SHORT $LN4@ioINILoade
$LN87@ioINILoade:
  0043f	c6 40 0c ed	 mov	 BYTE PTR [eax+12], -19	; ffffffedH
  00443	eb 43		 jmp	 SHORT $LN4@ioINILoade
$LN88@ioINILoade:
  00445	c6 40 0b ea	 mov	 BYTE PTR [eax+11], -22	; ffffffeaH
  00449	eb 3d		 jmp	 SHORT $LN4@ioINILoade
$LN89@ioINILoade:
  0044b	88 58 0a	 mov	 BYTE PTR [eax+10], bl
  0044e	eb 38		 jmp	 SHORT $LN4@ioINILoade
$LN90@ioINILoade:
  00450	c6 40 09 ec	 mov	 BYTE PTR [eax+9], -20	; ffffffecH
  00454	eb 32		 jmp	 SHORT $LN4@ioINILoade
$LN91@ioINILoade:
  00456	c6 40 08 ed	 mov	 BYTE PTR [eax+8], -19	; ffffffedH
  0045a	eb 2c		 jmp	 SHORT $LN4@ioINILoade
$LN92@ioINILoade:
  0045c	c6 40 07 ea	 mov	 BYTE PTR [eax+7], -22	; ffffffeaH
  00460	eb 26		 jmp	 SHORT $LN4@ioINILoade
$LN93@ioINILoade:
  00462	88 58 06	 mov	 BYTE PTR [eax+6], bl
  00465	eb 21		 jmp	 SHORT $LN4@ioINILoade
$LN94@ioINILoade:
  00467	c6 40 05 ec	 mov	 BYTE PTR [eax+5], -20	; ffffffecH
  0046b	eb 1b		 jmp	 SHORT $LN4@ioINILoade
$LN95@ioINILoade:
  0046d	c6 40 04 ed	 mov	 BYTE PTR [eax+4], -19	; ffffffedH
  00471	eb 15		 jmp	 SHORT $LN4@ioINILoade
$LN96@ioINILoade:
  00473	c6 40 03 ea	 mov	 BYTE PTR [eax+3], -22	; ffffffeaH
  00477	eb 0f		 jmp	 SHORT $LN4@ioINILoade
$LN97@ioINILoade:
  00479	c6 40 02 eb	 mov	 BYTE PTR [eax+2], -21	; ffffffebH
  0047d	eb 09		 jmp	 SHORT $LN4@ioINILoade
$LN98@ioINILoade:
  0047f	c6 40 01 ec	 mov	 BYTE PTR [eax+1], -20	; ffffffecH
  00483	eb 03		 jmp	 SHORT $LN4@ioINILoade
$LN99@ioINILoade:
  00485	c6 00 ed	 mov	 BYTE PTR [eax], -19	; ffffffedH
$LN4@ioINILoade:
  00488	6a 03		 push	 3
  0048a	8b c8		 mov	 ecx, eax
  0048c	c6 40 0e 00	 mov	 BYTE PTR [eax+14], 0
  00490	5a		 pop	 edx
$LL107@ioINILoade:
  00491	81 31 ed ec eb
	ea		 xor	 DWORD PTR [ecx], -353637139 ; eaebecedH
  00497	83 c1 04	 add	 ecx, 4
  0049a	4a		 dec	 edx
  0049b	75 f4		 jne	 SHORT $LL107@ioINILoade
  0049d	6a 0c		 push	 12			; 0000000cH
  0049f	5e		 pop	 esi
$LL104@ioINILoade:
  004a0	8b ce		 mov	 ecx, esi
  004a2	81 e1 03 00 00
	80		 and	 ecx, -2147483645	; 80000003H
  004a8	79 05		 jns	 SHORT $LN114@ioINILoade
  004aa	49		 dec	 ecx
  004ab	83 c9 fc	 or	 ecx, -4			; fffffffcH
  004ae	41		 inc	 ecx
$LN114@ioINILoade:
  004af	b2 ed		 mov	 dl, -19			; ffffffedH
  004b1	2a d1		 sub	 dl, cl
  004b3	30 14 06	 xor	 BYTE PTR [esi+eax], dl
  004b6	46		 inc	 esi
  004b7	83 fe 0e	 cmp	 esi, 14			; 0000000eH
  004ba	7c e4		 jl	 SHORT $LL104@ioINILoade
  004bc	ff 75 0c	 push	 DWORD PTR _b$[ebp]
  004bf	8b cf		 mov	 ecx, edi
  004c1	50		 push	 eax
  004c2	ff 15 00 00 00
	00		 call	 DWORD PTR __imp_??0ioINILoader@@QAE@PBD_N@Z

; 225  : 	}

  004c8	8b c7		 mov	 eax, edi
  004ca	5f		 pop	 edi
  004cb	5e		 pop	 esi
  004cc	5b		 pop	 ebx
  004cd	5d		 pop	 ebp
  004ce	c2 08 00	 ret	 8
??$?0$0P@@ioINILoader_e@@QAE@AAY0P@$$CBD_N@Z ENDP	; ioINILoader_e::ioINILoader_e<15>
_TEXT	ENDS
PUBLIC	??$?0$0BF@@ioINILoader_e@@QAE@AAY0BF@$$CBD_N@Z	; ioINILoader_e::ioINILoader_e<21>
; Function compile flags: /Ogsp
;	COMDAT ??$?0$0BF@@ioINILoader_e@@QAE@AAY0BF@$$CBD_N@Z
_TEXT	SEGMENT
_fn$ = 8						; size = 4
_b$ = 12						; size = 1
??$?0$0BF@@ioINILoader_e@@QAE@AAY0BF@$$CBD_N@Z PROC	; ioINILoader_e::ioINILoader_e<21>, COMDAT
; _this$ = ecx

; 224  : 	{

  00000	55		 push	 ebp
  00001	8b ec		 mov	 ebp, esp
  00003	53		 push	 ebx
  00004	56		 push	 esi
  00005	8b f1		 mov	 esi, ecx
  00007	8b 4d 08	 mov	 ecx, DWORD PTR _fn$[ebp]
  0000a	8a 11		 mov	 dl, BYTE PTR [ecx]
  0000c	8d 86 50 03 00
	00		 lea	 eax, DWORD PTR [esi+848]
  00012	84 d2		 test	 dl, dl
  00014	0f 84 6a 04 00
	00		 je	 $LN99@ioINILoade@2
  0001a	80 f2 ed	 xor	 dl, -19			; ffffffedH
  0001d	88 10		 mov	 BYTE PTR [eax], dl
  0001f	8a 51 01	 mov	 dl, BYTE PTR [ecx+1]
  00022	84 d2		 test	 dl, dl
  00024	0f 84 54 04 00
	00		 je	 $LN98@ioINILoade@2
  0002a	80 f2 ec	 xor	 dl, -20			; ffffffecH
  0002d	88 50 01	 mov	 BYTE PTR [eax+1], dl
  00030	8a 51 02	 mov	 dl, BYTE PTR [ecx+2]
  00033	84 d2		 test	 dl, dl
  00035	0f 84 3d 04 00
	00		 je	 $LN97@ioINILoade@2
  0003b	b3 eb		 mov	 bl, -21			; ffffffebH
  0003d	32 d3		 xor	 dl, bl
  0003f	88 50 02	 mov	 BYTE PTR [eax+2], dl
  00042	8a 51 03	 mov	 dl, BYTE PTR [ecx+3]
  00045	84 d2		 test	 dl, dl
  00047	0f 84 25 04 00
	00		 je	 $LN96@ioINILoade@2
  0004d	80 f2 ea	 xor	 dl, -22			; ffffffeaH
  00050	88 50 03	 mov	 BYTE PTR [eax+3], dl
  00053	8a 51 04	 mov	 dl, BYTE PTR [ecx+4]
  00056	84 d2		 test	 dl, dl
  00058	0f 84 0e 04 00
	00		 je	 $LN95@ioINILoade@2
  0005e	80 f2 ed	 xor	 dl, -19			; ffffffedH
  00061	88 50 04	 mov	 BYTE PTR [eax+4], dl
  00064	8a 51 05	 mov	 dl, BYTE PTR [ecx+5]
  00067	84 d2		 test	 dl, dl
  00069	0f 84 f7 03 00
	00		 je	 $LN94@ioINILoade@2
  0006f	80 f2 ec	 xor	 dl, -20			; ffffffecH
  00072	88 50 05	 mov	 BYTE PTR [eax+5], dl
  00075	8a 51 06	 mov	 dl, BYTE PTR [ecx+6]
  00078	84 d2		 test	 dl, dl
  0007a	0f 84 e1 03 00
	00		 je	 $LN93@ioINILoade@2
  00080	32 d3		 xor	 dl, bl
  00082	88 50 06	 mov	 BYTE PTR [eax+6], dl
  00085	8a 51 07	 mov	 dl, BYTE PTR [ecx+7]
  00088	84 d2		 test	 dl, dl
  0008a	0f 84 cb 03 00
	00		 je	 $LN92@ioINILoade@2
  00090	80 f2 ea	 xor	 dl, -22			; ffffffeaH
  00093	88 50 07	 mov	 BYTE PTR [eax+7], dl
  00096	8a 51 08	 mov	 dl, BYTE PTR [ecx+8]
  00099	84 d2		 test	 dl, dl
  0009b	0f 84 b4 03 00
	00		 je	 $LN91@ioINILoade@2
  000a1	80 f2 ed	 xor	 dl, -19			; ffffffedH
  000a4	88 50 08	 mov	 BYTE PTR [eax+8], dl
  000a7	8a 51 09	 mov	 dl, BYTE PTR [ecx+9]
  000aa	84 d2		 test	 dl, dl
  000ac	0f 84 9d 03 00
	00		 je	 $LN90@ioINILoade@2
  000b2	80 f2 ec	 xor	 dl, -20			; ffffffecH
  000b5	88 50 09	 mov	 BYTE PTR [eax+9], dl
  000b8	8a 51 0a	 mov	 dl, BYTE PTR [ecx+10]
  000bb	84 d2		 test	 dl, dl
  000bd	0f 84 87 03 00
	00		 je	 $LN89@ioINILoade@2
  000c3	32 d3		 xor	 dl, bl
  000c5	88 50 0a	 mov	 BYTE PTR [eax+10], dl
  000c8	8a 51 0b	 mov	 dl, BYTE PTR [ecx+11]
  000cb	84 d2		 test	 dl, dl
  000cd	0f 84 71 03 00
	00		 je	 $LN88@ioINILoade@2
  000d3	80 f2 ea	 xor	 dl, -22			; ffffffeaH
  000d6	88 50 0b	 mov	 BYTE PTR [eax+11], dl
  000d9	8a 51 0c	 mov	 dl, BYTE PTR [ecx+12]
  000dc	84 d2		 test	 dl, dl
  000de	0f 84 5a 03 00
	00		 je	 $LN87@ioINILoade@2
  000e4	80 f2 ed	 xor	 dl, -19			; ffffffedH
  000e7	88 50 0c	 mov	 BYTE PTR [eax+12], dl
  000ea	8a 51 0d	 mov	 dl, BYTE PTR [ecx+13]
  000ed	84 d2		 test	 dl, dl
  000ef	0f 84 43 03 00
	00		 je	 $LN86@ioINILoade@2
  000f5	80 f2 ec	 xor	 dl, -20			; ffffffecH
  000f8	88 50 0d	 mov	 BYTE PTR [eax+13], dl
  000fb	8a 51 0e	 mov	 dl, BYTE PTR [ecx+14]
  000fe	84 d2		 test	 dl, dl
  00100	0f 84 2d 03 00
	00		 je	 $LN85@ioINILoade@2
  00106	32 d3		 xor	 dl, bl
  00108	88 50 0e	 mov	 BYTE PTR [eax+14], dl
  0010b	8a 51 0f	 mov	 dl, BYTE PTR [ecx+15]
  0010e	84 d2		 test	 dl, dl
  00110	0f 84 17 03 00
	00		 je	 $LN84@ioINILoade@2
  00116	80 f2 ea	 xor	 dl, -22			; ffffffeaH
  00119	88 50 0f	 mov	 BYTE PTR [eax+15], dl
  0011c	8a 51 10	 mov	 dl, BYTE PTR [ecx+16]
  0011f	84 d2		 test	 dl, dl
  00121	0f 84 00 03 00
	00		 je	 $LN83@ioINILoade@2
  00127	80 f2 ed	 xor	 dl, -19			; ffffffedH
  0012a	88 50 10	 mov	 BYTE PTR [eax+16], dl
  0012d	8a 51 11	 mov	 dl, BYTE PTR [ecx+17]
  00130	84 d2		 test	 dl, dl
  00132	0f 84 e9 02 00
	00		 je	 $LN82@ioINILoade@2
  00138	80 f2 ec	 xor	 dl, -20			; ffffffecH
  0013b	88 50 11	 mov	 BYTE PTR [eax+17], dl
  0013e	8a 51 12	 mov	 dl, BYTE PTR [ecx+18]
  00141	84 d2		 test	 dl, dl
  00143	0f 84 d3 02 00
	00		 je	 $LN81@ioINILoade@2
  00149	32 d3		 xor	 dl, bl
  0014b	88 50 12	 mov	 BYTE PTR [eax+18], dl
  0014e	8a 51 13	 mov	 dl, BYTE PTR [ecx+19]
  00151	84 d2		 test	 dl, dl
  00153	0f 84 bd 02 00
	00		 je	 $LN80@ioINILoade@2
  00159	80 f2 ea	 xor	 dl, -22			; ffffffeaH
  0015c	88 50 13	 mov	 BYTE PTR [eax+19], dl
  0015f	8a 51 14	 mov	 dl, BYTE PTR [ecx+20]
  00162	84 d2		 test	 dl, dl
  00164	0f 84 a6 02 00
	00		 je	 $LN79@ioINILoade@2
  0016a	80 f2 ed	 xor	 dl, -19			; ffffffedH
  0016d	88 50 14	 mov	 BYTE PTR [eax+20], dl
  00170	8a 51 15	 mov	 dl, BYTE PTR [ecx+21]
  00173	84 d2		 test	 dl, dl
  00175	0f 84 8f 02 00
	00		 je	 $LN78@ioINILoade@2
  0017b	80 f2 ec	 xor	 dl, -20			; ffffffecH
  0017e	88 50 15	 mov	 BYTE PTR [eax+21], dl
  00181	8a 51 16	 mov	 dl, BYTE PTR [ecx+22]
  00184	84 d2		 test	 dl, dl
  00186	0f 84 79 02 00
	00		 je	 $LN77@ioINILoade@2
  0018c	32 d3		 xor	 dl, bl
  0018e	88 50 16	 mov	 BYTE PTR [eax+22], dl
  00191	8a 51 17	 mov	 dl, BYTE PTR [ecx+23]
  00194	84 d2		 test	 dl, dl
  00196	0f 84 60 02 00
	00		 je	 $LN76@ioINILoade@2
  0019c	80 f2 ea	 xor	 dl, -22			; ffffffeaH
  0019f	88 50 17	 mov	 BYTE PTR [eax+23], dl
  001a2	8a 51 18	 mov	 dl, BYTE PTR [ecx+24]
  001a5	84 d2		 test	 dl, dl
  001a7	0f 84 46 02 00
	00		 je	 $LN75@ioINILoade@2
  001ad	80 f2 ed	 xor	 dl, -19			; ffffffedH
  001b0	88 50 18	 mov	 BYTE PTR [eax+24], dl
  001b3	8a 51 19	 mov	 dl, BYTE PTR [ecx+25]
  001b6	84 d2		 test	 dl, dl
  001b8	0f 84 2c 02 00
	00		 je	 $LN74@ioINILoade@2
  001be	80 f2 ec	 xor	 dl, -20			; ffffffecH
  001c1	88 50 19	 mov	 BYTE PTR [eax+25], dl
  001c4	8a 51 1a	 mov	 dl, BYTE PTR [ecx+26]
  001c7	84 d2		 test	 dl, dl
  001c9	0f 84 13 02 00
	00		 je	 $LN73@ioINILoade@2
  001cf	32 d3		 xor	 dl, bl
  001d1	88 50 1a	 mov	 BYTE PTR [eax+26], dl
  001d4	8a 51 1b	 mov	 dl, BYTE PTR [ecx+27]
  001d7	84 d2		 test	 dl, dl
  001d9	0f 84 fa 01 00
	00		 je	 $LN72@ioINILoade@2
  001df	80 f2 ea	 xor	 dl, -22			; ffffffeaH
  001e2	88 50 1b	 mov	 BYTE PTR [eax+27], dl
  001e5	8a 51 1c	 mov	 dl, BYTE PTR [ecx+28]
  001e8	84 d2		 test	 dl, dl
  001ea	0f 84 e0 01 00
	00		 je	 $LN71@ioINILoade@2
  001f0	80 f2 ed	 xor	 dl, -19			; ffffffedH
  001f3	88 50 1c	 mov	 BYTE PTR [eax+28], dl
  001f6	8a 51 1d	 mov	 dl, BYTE PTR [ecx+29]
  001f9	84 d2		 test	 dl, dl
  001fb	0f 84 c6 01 00
	00		 je	 $LN70@ioINILoade@2
  00201	80 f2 ec	 xor	 dl, -20			; ffffffecH
  00204	88 50 1d	 mov	 BYTE PTR [eax+29], dl
  00207	8a 51 1e	 mov	 dl, BYTE PTR [ecx+30]
  0020a	84 d2		 test	 dl, dl
  0020c	0f 84 ad 01 00
	00		 je	 $LN69@ioINILoade@2
  00212	32 d3		 xor	 dl, bl
  00214	88 50 1e	 mov	 BYTE PTR [eax+30], dl
  00217	8a 51 1f	 mov	 dl, BYTE PTR [ecx+31]
  0021a	84 d2		 test	 dl, dl
  0021c	0f 84 94 01 00
	00		 je	 $LN68@ioINILoade@2
  00222	80 f2 ea	 xor	 dl, -22			; ffffffeaH
  00225	88 50 1f	 mov	 BYTE PTR [eax+31], dl
  00228	8a 51 20	 mov	 dl, BYTE PTR [ecx+32]
  0022b	84 d2		 test	 dl, dl
  0022d	0f 84 7a 01 00
	00		 je	 $LN67@ioINILoade@2
  00233	80 f2 ed	 xor	 dl, -19			; ffffffedH
  00236	88 50 20	 mov	 BYTE PTR [eax+32], dl
  00239	8a 51 21	 mov	 dl, BYTE PTR [ecx+33]
  0023c	84 d2		 test	 dl, dl
  0023e	0f 84 60 01 00
	00		 je	 $LN66@ioINILoade@2
  00244	80 f2 ec	 xor	 dl, -20			; ffffffecH
  00247	88 50 21	 mov	 BYTE PTR [eax+33], dl
  0024a	8a 51 22	 mov	 dl, BYTE PTR [ecx+34]
  0024d	84 d2		 test	 dl, dl
  0024f	0f 84 47 01 00
	00		 je	 $LN65@ioINILoade@2
  00255	32 d3		 xor	 dl, bl
  00257	88 50 22	 mov	 BYTE PTR [eax+34], dl
  0025a	8a 51 23	 mov	 dl, BYTE PTR [ecx+35]
  0025d	84 d2		 test	 dl, dl
  0025f	0f 84 2e 01 00
	00		 je	 $LN64@ioINILoade@2
  00265	80 f2 ea	 xor	 dl, -22			; ffffffeaH
  00268	88 50 23	 mov	 BYTE PTR [eax+35], dl
  0026b	8a 51 24	 mov	 dl, BYTE PTR [ecx+36]
  0026e	84 d2		 test	 dl, dl
  00270	0f 84 14 01 00
	00		 je	 $LN63@ioINILoade@2
  00276	80 f2 ed	 xor	 dl, -19			; ffffffedH
  00279	88 50 24	 mov	 BYTE PTR [eax+36], dl
  0027c	8a 51 25	 mov	 dl, BYTE PTR [ecx+37]
  0027f	84 d2		 test	 dl, dl
  00281	0f 84 fa 00 00
	00		 je	 $LN62@ioINILoade@2
  00287	80 f2 ec	 xor	 dl, -20			; ffffffecH
  0028a	88 50 25	 mov	 BYTE PTR [eax+37], dl
  0028d	8a 51 26	 mov	 dl, BYTE PTR [ecx+38]
  00290	84 d2		 test	 dl, dl
  00292	0f 84 e1 00 00
	00		 je	 $LN61@ioINILoade@2
  00298	32 d3		 xor	 dl, bl
  0029a	88 50 26	 mov	 BYTE PTR [eax+38], dl
  0029d	8a 51 27	 mov	 dl, BYTE PTR [ecx+39]
  002a0	84 d2		 test	 dl, dl
  002a2	0f 84 c8 00 00
	00		 je	 $LN60@ioINILoade@2
  002a8	80 f2 ea	 xor	 dl, -22			; ffffffeaH
  002ab	88 50 27	 mov	 BYTE PTR [eax+39], dl
  002ae	8a 51 28	 mov	 dl, BYTE PTR [ecx+40]
  002b1	84 d2		 test	 dl, dl
  002b3	0f 84 ae 00 00
	00		 je	 $LN59@ioINILoade@2
  002b9	80 f2 ed	 xor	 dl, -19			; ffffffedH
  002bc	88 50 28	 mov	 BYTE PTR [eax+40], dl
  002bf	8a 51 29	 mov	 dl, BYTE PTR [ecx+41]
  002c2	84 d2		 test	 dl, dl
  002c4	0f 84 94 00 00
	00		 je	 $LN58@ioINILoade@2
  002ca	80 f2 ec	 xor	 dl, -20			; ffffffecH
  002cd	88 50 29	 mov	 BYTE PTR [eax+41], dl
  002d0	8a 51 2a	 mov	 dl, BYTE PTR [ecx+42]
  002d3	84 d2		 test	 dl, dl
  002d5	74 7f		 je	 SHORT $LN57@ioINILoade@2
  002d7	32 d3		 xor	 dl, bl
  002d9	88 50 2a	 mov	 BYTE PTR [eax+42], dl
  002dc	8a 51 2b	 mov	 dl, BYTE PTR [ecx+43]
  002df	84 d2		 test	 dl, dl
  002e1	74 6a		 je	 SHORT $LN56@ioINILoade@2
  002e3	80 f2 ea	 xor	 dl, -22			; ffffffeaH
  002e6	88 50 2b	 mov	 BYTE PTR [eax+43], dl
  002e9	8a 51 2c	 mov	 dl, BYTE PTR [ecx+44]
  002ec	84 d2		 test	 dl, dl
  002ee	74 54		 je	 SHORT $LN55@ioINILoade@2
  002f0	80 f2 ed	 xor	 dl, -19			; ffffffedH
  002f3	88 50 2c	 mov	 BYTE PTR [eax+44], dl
  002f6	8a 51 2d	 mov	 dl, BYTE PTR [ecx+45]
  002f9	84 d2		 test	 dl, dl
  002fb	74 3e		 je	 SHORT $LN54@ioINILoade@2
  002fd	80 f2 ec	 xor	 dl, -20			; ffffffecH
  00300	88 50 2d	 mov	 BYTE PTR [eax+45], dl
  00303	8a 51 2e	 mov	 dl, BYTE PTR [ecx+46]
  00306	84 d2		 test	 dl, dl
  00308	74 29		 je	 SHORT $LN53@ioINILoade@2
  0030a	32 d3		 xor	 dl, bl
  0030c	88 50 2e	 mov	 BYTE PTR [eax+46], dl
  0030f	8a 51 2f	 mov	 dl, BYTE PTR [ecx+47]
  00312	84 d2		 test	 dl, dl
  00314	74 14		 je	 SHORT $LN52@ioINILoade@2
  00316	80 f2 ea	 xor	 dl, -22			; ffffffeaH
  00319	88 50 2f	 mov	 BYTE PTR [eax+47], dl
  0031c	8a 49 30	 mov	 cl, BYTE PTR [ecx+48]
  0031f	80 f1 ed	 xor	 cl, -19			; ffffffedH
  00322	88 48 30	 mov	 BYTE PTR [eax+48], cl
  00325	e9 5d 01 00 00	 jmp	 $LN4@ioINILoade@2
$LN52@ioINILoade@2:
  0032a	c6 40 2f ea	 mov	 BYTE PTR [eax+47], -22	; ffffffeaH
  0032e	e9 54 01 00 00	 jmp	 $LN4@ioINILoade@2
$LN53@ioINILoade@2:
  00333	88 58 2e	 mov	 BYTE PTR [eax+46], bl
  00336	e9 4c 01 00 00	 jmp	 $LN4@ioINILoade@2
$LN54@ioINILoade@2:
  0033b	c6 40 2d ec	 mov	 BYTE PTR [eax+45], -20	; ffffffecH
  0033f	e9 43 01 00 00	 jmp	 $LN4@ioINILoade@2
$LN55@ioINILoade@2:
  00344	c6 40 2c ed	 mov	 BYTE PTR [eax+44], -19	; ffffffedH
  00348	e9 3a 01 00 00	 jmp	 $LN4@ioINILoade@2
$LN56@ioINILoade@2:
  0034d	c6 40 2b ea	 mov	 BYTE PTR [eax+43], -22	; ffffffeaH
  00351	e9 31 01 00 00	 jmp	 $LN4@ioINILoade@2
$LN57@ioINILoade@2:
  00356	88 58 2a	 mov	 BYTE PTR [eax+42], bl
  00359	e9 29 01 00 00	 jmp	 $LN4@ioINILoade@2
$LN58@ioINILoade@2:
  0035e	c6 40 29 ec	 mov	 BYTE PTR [eax+41], -20	; ffffffecH
  00362	e9 20 01 00 00	 jmp	 $LN4@ioINILoade@2
$LN59@ioINILoade@2:
  00367	c6 40 28 ed	 mov	 BYTE PTR [eax+40], -19	; ffffffedH
  0036b	e9 17 01 00 00	 jmp	 $LN4@ioINILoade@2
$LN60@ioINILoade@2:
  00370	c6 40 27 ea	 mov	 BYTE PTR [eax+39], -22	; ffffffeaH
  00374	e9 0e 01 00 00	 jmp	 $LN4@ioINILoade@2
$LN61@ioINILoade@2:
  00379	88 58 26	 mov	 BYTE PTR [eax+38], bl
  0037c	e9 06 01 00 00	 jmp	 $LN4@ioINILoade@2
$LN62@ioINILoade@2:
  00381	c6 40 25 ec	 mov	 BYTE PTR [eax+37], -20	; ffffffecH
  00385	e9 fd 00 00 00	 jmp	 $LN4@ioINILoade@2
$LN63@ioINILoade@2:
  0038a	c6 40 24 ed	 mov	 BYTE PTR [eax+36], -19	; ffffffedH
  0038e	e9 f4 00 00 00	 jmp	 $LN4@ioINILoade@2
$LN64@ioINILoade@2:
  00393	c6 40 23 ea	 mov	 BYTE PTR [eax+35], -22	; ffffffeaH
  00397	e9 eb 00 00 00	 jmp	 $LN4@ioINILoade@2
$LN65@ioINILoade@2:
  0039c	88 58 22	 mov	 BYTE PTR [eax+34], bl
  0039f	e9 e3 00 00 00	 jmp	 $LN4@ioINILoade@2
$LN66@ioINILoade@2:
  003a4	c6 40 21 ec	 mov	 BYTE PTR [eax+33], -20	; ffffffecH
  003a8	e9 da 00 00 00	 jmp	 $LN4@ioINILoade@2
$LN67@ioINILoade@2:
  003ad	c6 40 20 ed	 mov	 BYTE PTR [eax+32], -19	; ffffffedH
  003b1	e9 d1 00 00 00	 jmp	 $LN4@ioINILoade@2
$LN68@ioINILoade@2:
  003b6	c6 40 1f ea	 mov	 BYTE PTR [eax+31], -22	; ffffffeaH
  003ba	e9 c8 00 00 00	 jmp	 $LN4@ioINILoade@2
$LN69@ioINILoade@2:
  003bf	88 58 1e	 mov	 BYTE PTR [eax+30], bl
  003c2	e9 c0 00 00 00	 jmp	 $LN4@ioINILoade@2
$LN70@ioINILoade@2:
  003c7	c6 40 1d ec	 mov	 BYTE PTR [eax+29], -20	; ffffffecH
  003cb	e9 b7 00 00 00	 jmp	 $LN4@ioINILoade@2
$LN71@ioINILoade@2:
  003d0	c6 40 1c ed	 mov	 BYTE PTR [eax+28], -19	; ffffffedH
  003d4	e9 ae 00 00 00	 jmp	 $LN4@ioINILoade@2
$LN72@ioINILoade@2:
  003d9	c6 40 1b ea	 mov	 BYTE PTR [eax+27], -22	; ffffffeaH
  003dd	e9 a5 00 00 00	 jmp	 $LN4@ioINILoade@2
$LN73@ioINILoade@2:
  003e2	88 58 1a	 mov	 BYTE PTR [eax+26], bl
  003e5	e9 9d 00 00 00	 jmp	 $LN4@ioINILoade@2
$LN74@ioINILoade@2:
  003ea	c6 40 19 ec	 mov	 BYTE PTR [eax+25], -20	; ffffffecH
  003ee	e9 94 00 00 00	 jmp	 $LN4@ioINILoade@2
$LN75@ioINILoade@2:
  003f3	c6 40 18 ed	 mov	 BYTE PTR [eax+24], -19	; ffffffedH
  003f7	e9 8b 00 00 00	 jmp	 $LN4@ioINILoade@2
$LN76@ioINILoade@2:
  003fc	c6 40 17 ea	 mov	 BYTE PTR [eax+23], -22	; ffffffeaH
  00400	e9 82 00 00 00	 jmp	 $LN4@ioINILoade@2
$LN77@ioINILoade@2:
  00405	88 58 16	 mov	 BYTE PTR [eax+22], bl
  00408	eb 7d		 jmp	 SHORT $LN4@ioINILoade@2
$LN78@ioINILoade@2:
  0040a	c6 40 15 ec	 mov	 BYTE PTR [eax+21], -20	; ffffffecH
  0040e	eb 77		 jmp	 SHORT $LN4@ioINILoade@2
$LN79@ioINILoade@2:
  00410	c6 40 14 ed	 mov	 BYTE PTR [eax+20], -19	; ffffffedH
  00414	eb 71		 jmp	 SHORT $LN4@ioINILoade@2
$LN80@ioINILoade@2:
  00416	c6 40 13 ea	 mov	 BYTE PTR [eax+19], -22	; ffffffeaH
  0041a	eb 6b		 jmp	 SHORT $LN4@ioINILoade@2
$LN81@ioINILoade@2:
  0041c	88 58 12	 mov	 BYTE PTR [eax+18], bl
  0041f	eb 66		 jmp	 SHORT $LN4@ioINILoade@2
$LN82@ioINILoade@2:
  00421	c6 40 11 ec	 mov	 BYTE PTR [eax+17], -20	; ffffffecH
  00425	eb 60		 jmp	 SHORT $LN4@ioINILoade@2
$LN83@ioINILoade@2:
  00427	c6 40 10 ed	 mov	 BYTE PTR [eax+16], -19	; ffffffedH
  0042b	eb 5a		 jmp	 SHORT $LN4@ioINILoade@2
$LN84@ioINILoade@2:
  0042d	c6 40 0f ea	 mov	 BYTE PTR [eax+15], -22	; ffffffeaH
  00431	eb 54		 jmp	 SHORT $LN4@ioINILoade@2
$LN85@ioINILoade@2:
  00433	88 58 0e	 mov	 BYTE PTR [eax+14], bl
  00436	eb 4f		 jmp	 SHORT $LN4@ioINILoade@2
$LN86@ioINILoade@2:
  00438	c6 40 0d ec	 mov	 BYTE PTR [eax+13], -20	; ffffffecH
  0043c	eb 49		 jmp	 SHORT $LN4@ioINILoade@2
$LN87@ioINILoade@2:
  0043e	c6 40 0c ed	 mov	 BYTE PTR [eax+12], -19	; ffffffedH
  00442	eb 43		 jmp	 SHORT $LN4@ioINILoade@2
$LN88@ioINILoade@2:
  00444	c6 40 0b ea	 mov	 BYTE PTR [eax+11], -22	; ffffffeaH
  00448	eb 3d		 jmp	 SHORT $LN4@ioINILoade@2
$LN89@ioINILoade@2:
  0044a	88 58 0a	 mov	 BYTE PTR [eax+10], bl
  0044d	eb 38		 jmp	 SHORT $LN4@ioINILoade@2
$LN90@ioINILoade@2:
  0044f	c6 40 09 ec	 mov	 BYTE PTR [eax+9], -20	; ffffffecH
  00453	eb 32		 jmp	 SHORT $LN4@ioINILoade@2
$LN91@ioINILoade@2:
  00455	c6 40 08 ed	 mov	 BYTE PTR [eax+8], -19	; ffffffedH
  00459	eb 2c		 jmp	 SHORT $LN4@ioINILoade@2
$LN92@ioINILoade@2:
  0045b	c6 40 07 ea	 mov	 BYTE PTR [eax+7], -22	; ffffffeaH
  0045f	eb 26		 jmp	 SHORT $LN4@ioINILoade@2
$LN93@ioINILoade@2:
  00461	88 58 06	 mov	 BYTE PTR [eax+6], bl
  00464	eb 21		 jmp	 SHORT $LN4@ioINILoade@2
$LN94@ioINILoade@2:
  00466	c6 40 05 ec	 mov	 BYTE PTR [eax+5], -20	; ffffffecH
  0046a	eb 1b		 jmp	 SHORT $LN4@ioINILoade@2
$LN95@ioINILoade@2:
  0046c	c6 40 04 ed	 mov	 BYTE PTR [eax+4], -19	; ffffffedH
  00470	eb 15		 jmp	 SHORT $LN4@ioINILoade@2
$LN96@ioINILoade@2:
  00472	c6 40 03 ea	 mov	 BYTE PTR [eax+3], -22	; ffffffeaH
  00476	eb 0f		 jmp	 SHORT $LN4@ioINILoade@2
$LN97@ioINILoade@2:
  00478	c6 40 02 eb	 mov	 BYTE PTR [eax+2], -21	; ffffffebH
  0047c	eb 09		 jmp	 SHORT $LN4@ioINILoade@2
$LN98@ioINILoade@2:
  0047e	c6 40 01 ec	 mov	 BYTE PTR [eax+1], -20	; ffffffecH
  00482	eb 03		 jmp	 SHORT $LN4@ioINILoade@2
$LN99@ioINILoade@2:
  00484	c6 00 ed	 mov	 BYTE PTR [eax], -19	; ffffffedH
$LN4@ioINILoade@2:
  00487	6a 05		 push	 5
  00489	8b c8		 mov	 ecx, eax
  0048b	c6 40 14 00	 mov	 BYTE PTR [eax+20], 0
  0048f	5a		 pop	 edx
$LL107@ioINILoade@2:
  00490	81 31 ed ec eb
	ea		 xor	 DWORD PTR [ecx], -353637139 ; eaebecedH
  00496	83 c1 04	 add	 ecx, 4
  00499	4a		 dec	 edx
  0049a	75 f4		 jne	 SHORT $LL107@ioINILoade@2
  0049c	ff 75 0c	 push	 DWORD PTR _b$[ebp]
  0049f	8b ce		 mov	 ecx, esi
  004a1	50		 push	 eax
  004a2	ff 15 00 00 00
	00		 call	 DWORD PTR __imp_??0ioINILoader@@QAE@PBD_N@Z

; 225  : 	}

  004a8	8b c6		 mov	 eax, esi
  004aa	5e		 pop	 esi
  004ab	5b		 pop	 ebx
  004ac	5d		 pop	 ebp
  004ad	c2 08 00	 ret	 8
??$?0$0BF@@ioINILoader_e@@QAE@AAY0BF@$$CBD_N@Z ENDP	; ioINILoader_e::ioINILoader_e<21>
_TEXT	ENDS
PUBLIC	??$_Cons_val@V?$allocator@VioHashString@@@std@@VioHashString@@AAV3@@std@@YAXAAV?$allocator@VioHashString@@@0@PAVioHashString@@AAV2@@Z ; std::_Cons_val<std::allocator<ioHashString>,ioHashString,ioHashString &>
; Function compile flags: /Ogsp
; File c:\program files (x86)\microsoft visual studio 10.0\vc\include\xmemory
;	COMDAT ??$_Cons_val@V?$allocator@VioHashString@@@std@@VioHashString@@AAV3@@std@@YAXAAV?$allocator@VioHashString@@@0@PAVioHashString@@AAV2@@Z
_TEXT	SEGMENT
__Alval$ = 8						; size = 4
__Pdest$ = 12						; size = 4
__Src$ = 16						; size = 4
??$_Cons_val@V?$allocator@VioHashString@@@std@@VioHashString@@AAV3@@std@@YAXAAV?$allocator@VioHashString@@@0@PAVioHashString@@AAV2@@Z PROC ; std::_Cons_val<std::allocator<ioHashString>,ioHashString,ioHashString &>, COMDAT

; 279  : 	{	// construct using allocator

  00000	55		 push	 ebp
  00001	8b ec		 mov	 ebp, esp

; 280  : 	_Alval.construct(_Pdest, _STD forward<_Ty2>(_Src));

  00003	ff 75 10	 push	 DWORD PTR __Src$[ebp]
  00006	8b 4d 08	 mov	 ecx, DWORD PTR __Alval$[ebp]
  00009	ff 75 0c	 push	 DWORD PTR __Pdest$[ebp]
  0000c	e8 00 00 00 00	 call	 ??$construct@AAVioHashString@@@?$allocator@VioHashString@@@std@@QAEXPAVioHashString@@AAV2@@Z ; std::allocator<ioHashString>::construct<ioHashString &>

; 281  : 	}

  00011	5d		 pop	 ebp
  00012	c3		 ret	 0
??$_Cons_val@V?$allocator@VioHashString@@@std@@VioHashString@@AAV3@@std@@YAXAAV?$allocator@VioHashString@@@0@PAVioHashString@@AAV2@@Z ENDP ; std::_Cons_val<std::allocator<ioHashString>,ioHashString,ioHashString &>
_TEXT	ENDS
PUBLIC	??$_Cons_val@V?$allocator@VioHashString@@@std@@VioHashString@@V3@@std@@YAXAAV?$allocator@VioHashString@@@0@PAVioHashString@@$$QAV2@@Z ; std::_Cons_val<std::allocator<ioHashString>,ioHashString,ioHashString>
; Function compile flags: /Ogsp
;	COMDAT ??$_Cons_val@V?$allocator@VioHashString@@@std@@VioHashString@@V3@@std@@YAXAAV?$allocator@VioHashString@@@0@PAVioHashString@@$$QAV2@@Z
_TEXT	SEGMENT
__Alval$ = 8						; size = 4
__Pdest$ = 12						; size = 4
__Src$ = 16						; size = 4
??$_Cons_val@V?$allocator@VioHashString@@@std@@VioHashString@@V3@@std@@YAXAAV?$allocator@VioHashString@@@0@PAVioHashString@@$$QAV2@@Z PROC ; std::_Cons_val<std::allocator<ioHashString>,ioHashString,ioHashString>, COMDAT

; 279  : 	{	// construct using allocator

  00000	55		 push	 ebp
  00001	8b ec		 mov	 ebp, esp

; 280  : 	_Alval.construct(_Pdest, _STD forward<_Ty2>(_Src));

  00003	ff 75 10	 push	 DWORD PTR __Src$[ebp]
  00006	8b 4d 08	 mov	 ecx, DWORD PTR __Alval$[ebp]
  00009	ff 75 0c	 push	 DWORD PTR __Pdest$[ebp]
  0000c	e8 00 00 00 00	 call	 ?construct@?$allocator@VioHashString@@@std@@QAEXPAVioHashString@@$$QAV3@@Z ; std::allocator<ioHashString>::construct

; 281  : 	}

  00011	5d		 pop	 ebp
  00012	c3		 ret	 0
??$_Cons_val@V?$allocator@VioHashString@@@std@@VioHashString@@V3@@std@@YAXAAV?$allocator@VioHashString@@@0@PAVioHashString@@$$QAV2@@Z ENDP ; std::_Cons_val<std::allocator<ioHashString>,ioHashString,ioHashString>
_TEXT	ENDS
PUBLIC	??0?$vector@VioHashString@@V?$allocator@VioHashString@@@std@@@std@@QAE@XZ ; std::vector<ioHashString,std::allocator<ioHashString> >::vector<ioHashString,std::allocator<ioHashString> >
; Function compile flags: /Ogsp
; File c:\program files (x86)\microsoft visual studio 10.0\vc\include\vector
;	COMDAT ??0?$vector@VioHashString@@V?$allocator@VioHashString@@@std@@@std@@QAE@XZ
_TEXT	SEGMENT
??0?$vector@VioHashString@@V?$allocator@VioHashString@@@std@@@std@@QAE@XZ PROC ; std::vector<ioHashString,std::allocator<ioHashString> >::vector<ioHashString,std::allocator<ioHashString> >, COMDAT
; _this$ = ecx

; 507  : 		{	// construct empty vector

  00000	8b c1		 mov	 eax, ecx
  00002	33 c9		 xor	 ecx, ecx
  00004	89 08		 mov	 DWORD PTR [eax], ecx
  00006	89 48 04	 mov	 DWORD PTR [eax+4], ecx
  00009	89 48 08	 mov	 DWORD PTR [eax+8], ecx

; 508  : 		}

  0000c	c3		 ret	 0
??0?$vector@VioHashString@@V?$allocator@VioHashString@@@std@@@std@@QAE@XZ ENDP ; std::vector<ioHashString,std::allocator<ioHashString> >::vector<ioHashString,std::allocator<ioHashString> >
_TEXT	ENDS
PUBLIC	??9?$_Vector_const_iterator@V?$_Vector_val@VioHashString@@V?$allocator@VioHashString@@@std@@@std@@@std@@QBE_NABV01@@Z ; std::_Vector_const_iterator<std::_Vector_val<ioHashString,std::allocator<ioHashString> > >::operator!=
; Function compile flags: /Ogsp
;	COMDAT ??9?$_Vector_const_iterator@V?$_Vector_val@VioHashString@@V?$allocator@VioHashString@@@std@@@std@@@std@@QBE_NABV01@@Z
_TEXT	SEGMENT
__Right$ = 8						; size = 4
??9?$_Vector_const_iterator@V?$_Vector_val@VioHashString@@V?$allocator@VioHashString@@@std@@@std@@@std@@QBE_NABV01@@Z PROC ; std::_Vector_const_iterator<std::_Vector_val<ioHashString,std::allocator<ioHashString> > >::operator!=, COMDAT
; _this$ = ecx

; 207  : 		{	// test for iterator inequality

  00000	55		 push	 ebp
  00001	8b ec		 mov	 ebp, esp

; 208  : 		return (!(*this == _Right));

  00003	8b 01		 mov	 eax, DWORD PTR [ecx]
  00005	8b 55 08	 mov	 edx, DWORD PTR __Right$[ebp]
  00008	33 c9		 xor	 ecx, ecx
  0000a	3b 02		 cmp	 eax, DWORD PTR [edx]
  0000c	0f 95 c0	 setne	 al

; 209  : 		}

  0000f	5d		 pop	 ebp
  00010	c2 04 00	 ret	 4
??9?$_Vector_const_iterator@V?$_Vector_val@VioHashString@@V?$allocator@VioHashString@@@std@@@std@@@std@@QBE_NABV01@@Z ENDP ; std::_Vector_const_iterator<std::_Vector_val<ioHashString,std::allocator<ioHashString> > >::operator!=
_TEXT	ENDS
PUBLIC	??$_Move@PAVioHashString@@PAV1@@std@@YAPAVioHashString@@PAV1@00@Z ; std::_Move<ioHashString *,ioHashString *>
; Function compile flags: /Ogsp
; File c:\program files (x86)\microsoft visual studio 10.0\vc\include\xutility
;	COMDAT ??$_Move@PAVioHashString@@PAV1@@std@@YAPAVioHashString@@PAV1@00@Z
_TEXT	SEGMENT
__Cat$510826 = -4					; size = 1
__First$ = 8						; size = 4
__Last$ = 12						; size = 4
__Dest$ = 16						; size = 4
??$_Move@PAVioHashString@@PAV1@@std@@YAPAVioHashString@@PAV1@00@Z PROC ; std::_Move<ioHashString *,ioHashString *>, COMDAT

; 2533 : 	{	// move [_First, _Last) to [_Dest, ...), unchecked

  00000	55		 push	 ebp
  00001	8b ec		 mov	 ebp, esp
  00003	51		 push	 ecx

; 2534 : 	return (_Move(_First, _Last,
; 2535 : 		_Dest, _Ptr_cat(_First, _Dest)));

  00004	ff 75 fc	 push	 DWORD PTR __Cat$510826[ebp]
  00007	ff 75 10	 push	 DWORD PTR __Dest$[ebp]
  0000a	ff 75 0c	 push	 DWORD PTR __Last$[ebp]
  0000d	ff 75 08	 push	 DWORD PTR __First$[ebp]
  00010	e8 00 00 00 00	 call	 ??$_Move@PAVioHashString@@PAV1@@std@@YAPAVioHashString@@PAV1@00U_Nonscalar_ptr_iterator_tag@0@@Z ; std::_Move<ioHashString *,ioHashString *>
  00015	83 c4 10	 add	 esp, 16			; 00000010H

; 2536 : 	}

  00018	c9		 leave
  00019	c3		 ret	 0
??$_Move@PAVioHashString@@PAV1@@std@@YAPAVioHashString@@PAV1@00@Z ENDP ; std::_Move<ioHashString *,ioHashString *>
_TEXT	ENDS
PUBLIC	?destroy@?$allocator@VioHashString@@@std@@QAEXPAVioHashString@@@Z ; std::allocator<ioHashString>::destroy
; Function compile flags: /Ogsp
; File c:\program files (x86)\microsoft visual studio 10.0\vc\include\xmemory
;	COMDAT ?destroy@?$allocator@VioHashString@@@std@@QAEXPAVioHashString@@@Z
_TEXT	SEGMENT
__Ptr$ = 8						; size = 4
?destroy@?$allocator@VioHashString@@@std@@QAEXPAVioHashString@@@Z PROC ; std::allocator<ioHashString>::destroy, COMDAT
; _this$ = ecx

; 212  : 		{	// destroy object at _Ptr

  00000	55		 push	 ebp
  00001	8b ec		 mov	 ebp, esp

; 213  : 		_Destroy(_Ptr);

  00003	8b 4d 08	 mov	 ecx, DWORD PTR __Ptr$[ebp]
  00006	ff 15 00 00 00
	00		 call	 DWORD PTR __imp_??1ioHashString@@QAE@XZ

; 214  : 		}

  0000c	5d		 pop	 ebp
  0000d	c2 04 00	 ret	 4
?destroy@?$allocator@VioHashString@@@std@@QAEXPAVioHashString@@@Z ENDP ; std::allocator<ioHashString>::destroy
_TEXT	ENDS
PUBLIC	??$_Cons_val@V?$allocator@VioHashString@@@std@@VioHashString@@ABV3@@std@@YAXAAV?$allocator@VioHashString@@@0@PAVioHashString@@ABV2@@Z ; std::_Cons_val<std::allocator<ioHashString>,ioHashString,ioHashString const &>
; Function compile flags: /Ogsp
;	COMDAT ??$_Cons_val@V?$allocator@VioHashString@@@std@@VioHashString@@ABV3@@std@@YAXAAV?$allocator@VioHashString@@@0@PAVioHashString@@ABV2@@Z
_TEXT	SEGMENT
__Alval$ = 8						; size = 4
__Pdest$ = 12						; size = 4
__Src$ = 16						; size = 4
??$_Cons_val@V?$allocator@VioHashString@@@std@@VioHashString@@ABV3@@std@@YAXAAV?$allocator@VioHashString@@@0@PAVioHashString@@ABV2@@Z PROC ; std::_Cons_val<std::allocator<ioHashString>,ioHashString,ioHashString const &>, COMDAT

; 279  : 	{	// construct using allocator

  00000	55		 push	 ebp
  00001	8b ec		 mov	 ebp, esp

; 280  : 	_Alval.construct(_Pdest, _STD forward<_Ty2>(_Src));

  00003	ff 75 10	 push	 DWORD PTR __Src$[ebp]
  00006	ff 75 0c	 push	 DWORD PTR __Pdest$[ebp]
  00009	e8 00 00 00 00	 call	 ??$_Construct@VioHashString@@ABV1@@std@@YAXPAVioHashString@@ABV1@@Z ; std::_Construct<ioHashString,ioHashString const &>
  0000e	59		 pop	 ecx
  0000f	59		 pop	 ecx

; 281  : 	}

  00010	5d		 pop	 ebp
  00011	c3		 ret	 0
??$_Cons_val@V?$allocator@VioHashString@@@std@@VioHashString@@ABV3@@std@@YAXAAV?$allocator@VioHashString@@@0@PAVioHashString@@ABV2@@Z ENDP ; std::_Cons_val<std::allocator<ioHashString>,ioHashString,ioHashString const &>
_TEXT	ENDS
PUBLIC	??_C@_0P@DMINADAO@Server?5Connect?$AA@		; `string'
EXTRN	__imp_?SetNS@ioClientTCPSocket@@QAEXPAVNetworkSecurity@@@Z:PROC
EXTRN	??0ioTCPClientSecurity@@QAE@XZ:PROC		; ioTCPClientSecurity::ioTCPClientSecurity
EXTRN	__EH_epilog3_GS:PROC
EXTRN	__EH_prolog3_GS:PROC
;	COMDAT ??_C@_0P@DMINADAO@Server?5Connect?$AA@
; File d:\lost saga for developer\youtube\tutorial\source\src\lsclient\iofilewriteclient.cpp
CONST	SEGMENT
??_C@_0P@DMINADAO@Server?5Connect?$AA@ DB 'Server Connect', 00H ; `string'
CONST	ENDS
;	COMDAT xdata$x
xdata$x	SEGMENT
__unwindtable$?ConnectProcess@ioFileSocket@@UAEXXZ DD 0ffffffffH
	DD	FLAT:__unwindfunclet$?ConnectProcess@ioFileSocket@@UAEXXZ$0
	DD	00H
	DD	FLAT:__unwindfunclet$?ConnectProcess@ioFileSocket@@UAEXXZ$1
__ehfuncinfo$?ConnectProcess@ioFileSocket@@UAEXXZ DD 019930522H
	DD	02H
	DD	FLAT:__unwindtable$?ConnectProcess@ioFileSocket@@UAEXXZ
	DD	2 DUP(00H)
	DD	2 DUP(00H)
	DD	00H
	DD	01H
; Function compile flags: /Ogsp
xdata$x	ENDS
;	COMDAT ?ConnectProcess@ioFileSocket@@UAEXXZ
_TEXT	SEGMENT
$T510856 = -956						; size = 4
__k$511245 = -952					; size = 3
_kLoader$ = -944					; size = 912
__t$511124 = -32					; size = 9
__$EHRec$ = -12						; size = 12
?ConnectProcess@ioFileSocket@@UAEXXZ PROC		; ioFileSocket::ConnectProcess, COMDAT
; _this$ = ecx

; 23   : {

  00000	68 b0 03 00 00	 push	 944			; 000003b0H
  00005	b8 00 00 00 00	 mov	 eax, __ehhandler$?ConnectProcess@ioFileSocket@@UAEXXZ
  0000a	e8 00 00 00 00	 call	 __EH_prolog3_GS

; 24   : 	LOG.PrintTimeAndLog( 0, "Server Connect" );

  0000f	68 00 00 00 00	 push	 OFFSET ??_C@_0P@DMINADAO@Server?5Connect?$AA@
  00014	33 db		 xor	 ebx, ebx
  00016	53		 push	 ebx
  00017	ff 35 00 00 00
	00		 push	 DWORD PTR __imp_?LOG@@3VCLog@@A
  0001d	8b f9		 mov	 edi, ecx
  0001f	ff 15 00 00 00
	00		 call	 DWORD PTR __imp_?PrintTimeAndLog@CLog@@QAAXHPADZZ

; 25   : 
; 26   : 	SAFEDELETE( m_pNS );

  00025	8b 8f 28 01 00
	00		 mov	 ecx, DWORD PTR [edi+296]
  0002b	83 c4 0c	 add	 esp, 12			; 0000000cH
  0002e	3b cb		 cmp	 ecx, ebx
  00030	74 0d		 je	 SHORT $LN2@ConnectPro@2
  00032	8b 01		 mov	 eax, DWORD PTR [ecx]
  00034	6a 01		 push	 1
  00036	ff 50 24	 call	 DWORD PTR [eax+36]
  00039	89 9f 28 01 00
	00		 mov	 DWORD PTR [edi+296], ebx
$LN2@ConnectPro@2:

; 27   : 
; 28   : 	ioINILoader_e kLoader( "config/sp2.ini" );

  0003f	6a 03		 push	 3
  00041	c7 45 a0 8e 83
	85 8c		 mov	 DWORD PTR _kLoader$[ebp+848], -1937407090 ; 8c85838eH
  00048	c7 45 a4 84 8b
	c4 99		 mov	 DWORD PTR _kLoader$[ebp+852], -1715172476 ; 99c48b84H
  0004f	c7 45 a8 9d de
	c5 83		 mov	 DWORD PTR _kLoader$[ebp+856], -2084184419 ; 83c5de9dH
  00056	66 c7 45 ac 83
	85		 mov	 WORD PTR _kLoader$[ebp+860], 34179 ; 00008583H
  0005c	8d 45 a0	 lea	 eax, DWORD PTR _kLoader$[ebp+848]
  0005f	88 5d ae	 mov	 BYTE PTR _kLoader$[ebp+862], bl
  00062	59		 pop	 ecx
  00063	be ed ec eb ea	 mov	 esi, -353637139		; eaebecedH
$LL117@ConnectPro@2:
  00068	31 30		 xor	 DWORD PTR [eax], esi
  0006a	83 c0 04	 add	 eax, 4
  0006d	49		 dec	 ecx
  0006e	75 f8		 jne	 SHORT $LL117@ConnectPro@2
  00070	6a 0c		 push	 12			; 0000000cH
  00072	58		 pop	 eax
$LL114@ConnectPro@2:
  00073	8b c8		 mov	 ecx, eax
  00075	81 e1 03 00 00
	80		 and	 ecx, -2147483645	; 80000003H
  0007b	79 05		 jns	 SHORT $LN351@ConnectPro@2
  0007d	49		 dec	 ecx
  0007e	83 c9 fc	 or	 ecx, -4			; fffffffcH
  00081	41		 inc	 ecx
$LN351@ConnectPro@2:
  00082	b2 ed		 mov	 dl, -19			; ffffffedH
  00084	2a d1		 sub	 dl, cl
  00086	30 54 05 a0	 xor	 BYTE PTR _kLoader$[ebp+eax+848], dl
  0008a	40		 inc	 eax
  0008b	83 f8 0e	 cmp	 eax, 14			; 0000000eH
  0008e	7c e3		 jl	 SHORT $LL114@ConnectPro@2
  00090	6a 01		 push	 1
  00092	8d 45 a0	 lea	 eax, DWORD PTR _kLoader$[ebp+848]
  00095	50		 push	 eax
  00096	8d 8d 50 fc ff
	ff		 lea	 ecx, DWORD PTR _kLoader$[ebp]
  0009c	ff 15 00 00 00
	00		 call	 DWORD PTR __imp_??0ioINILoader@@QAE@PBD_N@Z
  000a2	6a 02		 push	 2
  000a4	89 5d fc	 mov	 DWORD PTR __$EHRec$[ebp+8], ebx

; 29   : 	if( kLoader.LoadInt_e( "security", "ON", 1 ) == 1 )

  000a7	c7 45 e0 9e 89
	88 9f		 mov	 DWORD PTR __t$511124[ebp], -1618441826 ; 9f88899eH
  000ae	c7 45 e4 9f 85
	9f 93		 mov	 DWORD PTR __t$511124[ebp+4], -1818262113 ; 939f859fH
  000b5	8d 45 e0	 lea	 eax, DWORD PTR __t$511124[ebp]
  000b8	88 5d e8	 mov	 BYTE PTR __t$511124[ebp+8], bl
  000bb	59		 pop	 ecx
$LL319@ConnectPro@2:
  000bc	31 30		 xor	 DWORD PTR [eax], esi
  000be	83 c0 04	 add	 eax, 4
  000c1	49		 dec	 ecx
  000c2	75 f8		 jne	 SHORT $LL319@ConnectPro@2
  000c4	66 c7 85 48 fc
	ff ff a2 a2	 mov	 WORD PTR __k$511245[ebp], 41634 ; 0000a2a2H
  000cd	88 9d 4a fc ff
	ff		 mov	 BYTE PTR __k$511245[ebp+2], bl
  000d3	33 c0		 xor	 eax, eax
$LL324@ConnectPro@2:
  000d5	8b c8		 mov	 ecx, eax
  000d7	81 e1 03 00 00
	80		 and	 ecx, -2147483645	; 80000003H
  000dd	79 05		 jns	 SHORT $LN352@ConnectPro@2
  000df	49		 dec	 ecx
  000e0	83 c9 fc	 or	 ecx, -4			; fffffffcH
  000e3	41		 inc	 ecx
$LN352@ConnectPro@2:
  000e4	b2 ed		 mov	 dl, -19			; ffffffedH
  000e6	2a d1		 sub	 dl, cl
  000e8	30 94 05 48 fc
	ff ff		 xor	 BYTE PTR __k$511245[ebp+eax], dl
  000ef	40		 inc	 eax
  000f0	83 f8 02	 cmp	 eax, 2
  000f3	7c e0		 jl	 SHORT $LL324@ConnectPro@2
  000f5	6a 01		 push	 1
  000f7	8d 85 48 fc ff
	ff		 lea	 eax, DWORD PTR __k$511245[ebp]
  000fd	50		 push	 eax
  000fe	8d 45 e0	 lea	 eax, DWORD PTR __t$511124[ebp]
  00101	50		 push	 eax
  00102	8d 8d 50 fc ff
	ff		 lea	 ecx, DWORD PTR _kLoader$[ebp]
  00108	ff 15 00 00 00
	00		 call	 DWORD PTR __imp_?LoadInt@ioINILoader@@QAEHPBD0H@Z
  0010e	83 f8 01	 cmp	 eax, 1
  00111	75 2d		 jne	 SHORT $LN1@ConnectPro@2

; 30   : 	{
; 31   : 		SetNS( new ioTCPClientSecurity );

  00113	6a 0c		 push	 12			; 0000000cH
  00115	e8 00 00 00 00	 call	 ??2@YAPAXI@Z		; operator new
  0011a	59		 pop	 ecx
  0011b	8b c8		 mov	 ecx, eax
  0011d	89 8d 44 fc ff
	ff		 mov	 DWORD PTR $T510856[ebp], ecx
  00123	c6 45 fc 01	 mov	 BYTE PTR __$EHRec$[ebp+8], 1
  00127	3b cb		 cmp	 ecx, ebx
  00129	74 07		 je	 SHORT $LN7@ConnectPro@2
  0012b	e8 00 00 00 00	 call	 ??0ioTCPClientSecurity@@QAE@XZ ; ioTCPClientSecurity::ioTCPClientSecurity
  00130	eb 02		 jmp	 SHORT $LN8@ConnectPro@2
$LN7@ConnectPro@2:
  00132	33 c0		 xor	 eax, eax
$LN8@ConnectPro@2:
  00134	50		 push	 eax
  00135	8b cf		 mov	 ecx, edi
  00137	88 5d fc	 mov	 BYTE PTR __$EHRec$[ebp+8], bl
  0013a	ff 15 00 00 00
	00		 call	 DWORD PTR __imp_?SetNS@ioClientTCPSocket@@QAEXPAVNetworkSecurity@@@Z
$LN1@ConnectPro@2:

; 32   : 	}
; 33   : 
; 34   : 	g_FileWriteClient.ConnectProcess();

  00140	8b 0d 00 00 00
	00		 mov	 ecx, DWORD PTR ?ms_Singleton@?$Singleton@VioFileWriteClient@@@@1PAVioFileWriteClient@@A ; Singleton<ioFileWriteClient>::ms_Singleton
  00146	e8 00 00 00 00	 call	 ?ConnectProcess@ioFileWriteClient@@QAEXXZ ; ioFileWriteClient::ConnectProcess

; 35   : }

  0014b	83 4d fc ff	 or	 DWORD PTR __$EHRec$[ebp+8], -1
  0014f	8d 8d 50 fc ff
	ff		 lea	 ecx, DWORD PTR _kLoader$[ebp]
  00155	ff 15 00 00 00
	00		 call	 DWORD PTR __imp_??1ioINILoader@@QAE@XZ
  0015b	e8 00 00 00 00	 call	 __EH_epilog3_GS
  00160	c3		 ret	 0
_TEXT	ENDS
;	COMDAT text$x
text$x	SEGMENT
__unwindfunclet$?ConnectProcess@ioFileSocket@@UAEXXZ$0:
  00000	8d 8d 50 fc ff
	ff		 lea	 ecx, DWORD PTR _kLoader$[ebp]
  00006	e9 00 00 00 00	 jmp	 ??1ioINILoader_e@@QAE@XZ
__unwindfunclet$?ConnectProcess@ioFileSocket@@UAEXXZ$1:
  0000b	ff b5 44 fc ff
	ff		 push	 DWORD PTR $T510856[ebp]
  00011	e8 00 00 00 00	 call	 ??3@YAXPAX@Z		; operator delete
  00016	59		 pop	 ecx
  00017	c3		 ret	 0
__ehhandler$?ConnectProcess@ioFileSocket@@UAEXXZ:
  00018	8b 54 24 08	 mov	 edx, DWORD PTR [esp+8]
  0001c	8d 42 0c	 lea	 eax, DWORD PTR [edx+12]
  0001f	8b 8a 40 fc ff
	ff		 mov	 ecx, DWORD PTR [edx-960]
  00025	33 c8		 xor	 ecx, eax
  00027	e8 00 00 00 00	 call	 @__security_check_cookie@4
  0002c	8b 4a fc	 mov	 ecx, DWORD PTR [edx-4]
  0002f	33 c8		 xor	 ecx, eax
  00031	e8 00 00 00 00	 call	 @__security_check_cookie@4
  00036	b8 00 00 00 00	 mov	 eax, OFFSET __ehfuncinfo$?ConnectProcess@ioFileSocket@@UAEXXZ
  0003b	e9 00 00 00 00	 jmp	 ___CxxFrameHandler3
text$x	ENDS
?ConnectProcess@ioFileSocket@@UAEXXZ ENDP		; ioFileSocket::ConnectProcess
; Function compile flags: /Ogsp
;	COMDAT ?ProcessPacket@ioFileSocket@@UAEXAAVCPacket@@@Z
_TEXT	SEGMENT
_rkPacket$ = 8						; size = 4
?ProcessPacket@ioFileSocket@@UAEXAAVCPacket@@@Z PROC	; ioFileSocket::ProcessPacket, COMDAT
; _this$ = ecx

; 71   : {

  00000	55		 push	 ebp
  00001	8b ec		 mov	 ebp, esp

; 72   : 	g_FileWriteClient.RecvPacket( (SP2Packet&)rkPacket );

  00003	8b 0d 00 00 00
	00		 mov	 ecx, DWORD PTR ?ms_Singleton@?$Singleton@VioFileWriteClient@@@@1PAVioFileWriteClient@@A ; Singleton<ioFileWriteClient>::ms_Singleton

; 73   : }

  00009	5d		 pop	 ebp

; 72   : 	g_FileWriteClient.RecvPacket( (SP2Packet&)rkPacket );

  0000a	e9 00 00 00 00	 jmp	 ?RecvPacket@ioFileWriteClient@@QAEXAAVSP2Packet@@@Z ; ioFileWriteClient::RecvPacket
?ProcessPacket@ioFileSocket@@UAEXAAVCPacket@@@Z ENDP	; ioFileSocket::ProcessPacket
_TEXT	ENDS
PUBLIC	??_C@_0BF@KIIGLING@?$CFs?1resource?1texture?1?$AA@ ; `string'
PUBLIC	??_C@_0N@OGNBECJ@?$CFs?1resource?1?$AA@		; `string'
PUBLIC	?LoadINI@ioFileWriteClient@@QAEXXZ		; ioFileWriteClient::LoadINI
EXTRN	__imp__CreateDirectoryA@8:PROC
EXTRN	__imp__GetCurrentDirectoryA@8:PROC
;	COMDAT ??_C@_0BF@KIIGLING@?$CFs?1resource?1texture?1?$AA@
CONST	SEGMENT
??_C@_0BF@KIIGLING@?$CFs?1resource?1texture?1?$AA@ DB '%s/resource/textur'
	DB	'e/', 00H					; `string'
CONST	ENDS
;	COMDAT ??_C@_0N@OGNBECJ@?$CFs?1resource?1?$AA@
CONST	SEGMENT
??_C@_0N@OGNBECJ@?$CFs?1resource?1?$AA@ DB '%s/resource/', 00H ; `string'
CONST	ENDS
;	COMDAT xdata$x
xdata$x	SEGMENT
__unwindtable$?LoadINI@ioFileWriteClient@@QAEXXZ DD 0ffffffffH
	DD	FLAT:__unwindfunclet$?LoadINI@ioFileWriteClient@@QAEXXZ$0
__ehfuncinfo$?LoadINI@ioFileWriteClient@@QAEXXZ DD 019930522H
	DD	01H
	DD	FLAT:__unwindtable$?LoadINI@ioFileWriteClient@@QAEXXZ
	DD	2 DUP(00H)
	DD	2 DUP(00H)
	DD	00H
	DD	01H
; Function compile flags: /Ogsp
xdata$x	ENDS
;	COMDAT ?LoadINI@ioFileWriteClient@@QAEXXZ
_TEXT	SEGMENT
_kLoader$ = -1476					; size = 912
_szAppDir$ = -564					; size = 260
_szBuf$ = -304						; size = 260
__k$512033 = -44					; size = 24
__k$511895 = -40					; size = 17
__k$512195 = -36					; size = 16
__k$511770 = -36					; size = 15
__t$511645 = -28					; size = 7
__$EHRec$ = -12						; size = 12
?LoadINI@ioFileWriteClient@@QAEXXZ PROC			; ioFileWriteClient::LoadINI, COMDAT
; _this$ = ecx

; 116  : {

  00000	68 b8 05 00 00	 push	 1464			; 000005b8H
  00005	b8 00 00 00 00	 mov	 eax, __ehhandler$?LoadINI@ioFileWriteClient@@QAEXXZ
  0000a	e8 00 00 00 00	 call	 __EH_prolog3_GS

; 117  : 	ioINILoader_e kLoader( "config/sp2_guild.ini" );

  0000f	33 db		 xor	 ebx, ebx
  00011	6a 05		 push	 5
  00013	8b f1		 mov	 esi, ecx
  00015	c7 85 8c fd ff
	ff 8e 83 85 8c	 mov	 DWORD PTR _kLoader$[ebp+848], -1937407090 ; 8c85838eH
  0001f	c7 85 90 fd ff
	ff 84 8b c4 99	 mov	 DWORD PTR _kLoader$[ebp+852], -1715172476 ; 99c48b84H
  00029	c7 85 94 fd ff
	ff 9d de b4 8d	 mov	 DWORD PTR _kLoader$[ebp+856], -1917526371 ; 8db4de9dH
  00033	c7 85 98 fd ff
	ff 98 85 87 8e	 mov	 DWORD PTR _kLoader$[ebp+860], -1903721064 ; 8e878598H
  0003d	c7 85 9c fd ff
	ff c3 85 85 83	 mov	 DWORD PTR _kLoader$[ebp+864], -2088401469 ; 838585c3H
  00047	8d 85 8c fd ff
	ff		 lea	 eax, DWORD PTR _kLoader$[ebp+848]
  0004d	88 9d a0 fd ff
	ff		 mov	 BYTE PTR _kLoader$[ebp+868], bl
  00053	59		 pop	 ecx
$LL110@LoadINI:
  00054	81 30 ed ec eb
	ea		 xor	 DWORD PTR [eax], -353637139 ; eaebecedH
  0005a	83 c0 04	 add	 eax, 4
  0005d	49		 dec	 ecx
  0005e	75 f4		 jne	 SHORT $LL110@LoadINI
  00060	6a 01		 push	 1
  00062	8d 85 8c fd ff
	ff		 lea	 eax, DWORD PTR _kLoader$[ebp+848]
  00068	50		 push	 eax
  00069	8d 8d 3c fa ff
	ff		 lea	 ecx, DWORD PTR _kLoader$[ebp]
  0006f	ff 15 00 00 00
	00		 call	 DWORD PTR __imp_??0ioINILoader@@QAE@PBD_N@Z

; 118  : 	kLoader.SetTitle_e( "custom" );

  00075	bf ed ec eb ea	 mov	 edi, -353637139		; eaebecedH
  0007a	6a 04		 push	 4
  0007c	c7 45 e4 8e 99
	98 9e		 mov	 DWORD PTR __t$511645[ebp], -1634166386 ; 9e98998eH
  00083	31 7d e4	 xor	 DWORD PTR __t$511645[ebp], edi
  00086	89 5d fc	 mov	 DWORD PTR __$EHRec$[ebp+8], ebx
  00089	66 c7 45 e8 82
	81		 mov	 WORD PTR __t$511645[ebp+4], 33154 ; 00008182H
  0008f	88 5d ea	 mov	 BYTE PTR __t$511645[ebp+6], bl
  00092	58		 pop	 eax
$LL213@LoadINI:
  00093	8b c8		 mov	 ecx, eax
  00095	81 e1 03 00 00
	80		 and	 ecx, -2147483645	; 80000003H
  0009b	79 05		 jns	 SHORT $LN671@LoadINI
  0009d	49		 dec	 ecx
  0009e	83 c9 fc	 or	 ecx, -4			; fffffffcH
  000a1	41		 inc	 ecx
$LN671@LoadINI:
  000a2	b2 ed		 mov	 dl, -19			; ffffffedH
  000a4	2a d1		 sub	 dl, cl
  000a6	30 54 05 e4	 xor	 BYTE PTR __t$511645[ebp+eax], dl
  000aa	40		 inc	 eax
  000ab	83 f8 06	 cmp	 eax, 6
  000ae	7c e3		 jl	 SHORT $LL213@LoadINI
  000b0	8d 45 e4	 lea	 eax, DWORD PTR __t$511645[ebp]
  000b3	50		 push	 eax
  000b4	8d 8d 3c fa ff
	ff		 lea	 ecx, DWORD PTR _kLoader$[ebp]
  000ba	ff 15 00 00 00
	00		 call	 DWORD PTR __imp_?SetTitle@ioINILoader@@QAEXPBD@Z

; 119  : 	char szBuf[MAX_PATH]="";

  000c0	68 03 01 00 00	 push	 259			; 00000103H
  000c5	8d 85 d1 fe ff
	ff		 lea	 eax, DWORD PTR _szBuf$[ebp+1]
  000cb	53		 push	 ebx
  000cc	50		 push	 eax
  000cd	88 9d d0 fe ff
	ff		 mov	 BYTE PTR _szBuf$[ebp], bl
  000d3	e8 00 00 00 00	 call	 _memset
  000d8	83 c4 0c	 add	 esp, 12			; 0000000cH
  000db	6a 03		 push	 3

; 120  : 	kLoader.LoadString_e( "file_server_ip", "", szBuf, MAX_PATH );

  000dd	c7 45 dc 8b 85
	87 8f		 mov	 DWORD PTR __k$511770[ebp], -1886943861 ; 8f87858bH
  000e4	c7 45 e0 b2 9f
	8e 98		 mov	 DWORD PTR __k$511770[ebp+4], -1735483470 ; 988e9fb2H
  000eb	c7 45 e4 9b 89
	99 b5		 mov	 DWORD PTR __k$511770[ebp+8], -1248228965 ; b599899bH
  000f2	66 c7 45 e8 84
	9c		 mov	 WORD PTR __k$511770[ebp+12], 40068 ; 00009c84H
  000f8	8d 45 dc	 lea	 eax, DWORD PTR __k$511770[ebp]
  000fb	88 5d ea	 mov	 BYTE PTR __k$511770[ebp+14], bl
  000fe	59		 pop	 ecx
$LL322@LoadINI:
  000ff	31 38		 xor	 DWORD PTR [eax], edi
  00101	83 c0 04	 add	 eax, 4
  00104	49		 dec	 ecx
  00105	75 f8		 jne	 SHORT $LL322@LoadINI
  00107	6a 0c		 push	 12			; 0000000cH
  00109	58		 pop	 eax
$LL319@LoadINI:
  0010a	8b c8		 mov	 ecx, eax
  0010c	81 e1 03 00 00
	80		 and	 ecx, -2147483645	; 80000003H
  00112	79 05		 jns	 SHORT $LN672@LoadINI
  00114	49		 dec	 ecx
  00115	83 c9 fc	 or	 ecx, -4			; fffffffcH
  00118	41		 inc	 ecx
$LN672@LoadINI:
  00119	b2 ed		 mov	 dl, -19			; ffffffedH
  0011b	2a d1		 sub	 dl, cl
  0011d	30 54 05 dc	 xor	 BYTE PTR __k$511770[ebp+eax], dl
  00121	40		 inc	 eax
  00122	83 f8 0e	 cmp	 eax, 14			; 0000000eH
  00125	7c e3		 jl	 SHORT $LL319@LoadINI
  00127	68 04 01 00 00	 push	 260			; 00000104H
  0012c	8d 85 d0 fe ff
	ff		 lea	 eax, DWORD PTR _szBuf$[ebp]
  00132	50		 push	 eax
  00133	68 00 00 00 00	 push	 OFFSET ??_C@_00CNPNBAHC@?$AA@
  00138	8d 45 dc	 lea	 eax, DWORD PTR __k$511770[ebp]
  0013b	50		 push	 eax
  0013c	8d 8d 3c fa ff
	ff		 lea	 ecx, DWORD PTR _kLoader$[ebp]
  00142	ff 15 00 00 00
	00		 call	 DWORD PTR __imp_?LoadStringA@ioINILoader@@QAEXPBD0PADH@Z

; 121  : 	m_szServerIP  = szBuf;

  00148	8d 85 d0 fe ff
	ff		 lea	 eax, DWORD PTR _szBuf$[ebp]
  0014e	50		 push	 eax
  0014f	8d 4e 34	 lea	 ecx, DWORD PTR [esi+52]
  00152	ff 15 00 00 00
	00		 call	 DWORD PTR __imp_??4ioHashString@@QAEAAV0@PBD@Z
  00158	6a 04		 push	 4

; 122  : 	m_iServerPort = kLoader.LoadInt_e( "file_server_port", 0 );

  0015a	c7 45 d8 8b 85
	87 8f		 mov	 DWORD PTR __k$511895[ebp], -1886943861 ; 8f87858bH
  00161	c7 45 dc b2 9f
	8e 98		 mov	 DWORD PTR __k$511895[ebp+4], -1735483470 ; 988e9fb2H
  00168	c7 45 e0 9b 89
	99 b5		 mov	 DWORD PTR __k$511895[ebp+8], -1248228965 ; b599899bH
  0016f	c7 45 e4 9d 83
	99 9e		 mov	 DWORD PTR __k$511895[ebp+12], -1634106467 ; 9e99839dH
  00176	8d 45 d8	 lea	 eax, DWORD PTR __k$511895[ebp]
  00179	88 5d e8	 mov	 BYTE PTR __k$511895[ebp+16], bl
  0017c	59		 pop	 ecx
$LL428@LoadINI:
  0017d	31 38		 xor	 DWORD PTR [eax], edi
  0017f	83 c0 04	 add	 eax, 4
  00182	49		 dec	 ecx
  00183	75 f8		 jne	 SHORT $LL428@LoadINI
  00185	8b 3d 00 00 00
	00		 mov	 edi, DWORD PTR __imp_?LoadInt@ioINILoader@@QAEHPBDH@Z
  0018b	53		 push	 ebx
  0018c	8d 45 d8	 lea	 eax, DWORD PTR __k$511895[ebp]
  0018f	50		 push	 eax
  00190	8d 8d 3c fa ff
	ff		 lea	 ecx, DWORD PTR _kLoader$[ebp]
  00196	ff d7		 call	 edi
  00198	6a 05		 push	 5
  0019a	89 46 44	 mov	 DWORD PTR [esi+68], eax

; 123  : 	
; 124  : 	//임시
; 125  : 	m_nMaxSubCnt = kLoader.LoadInt_e( "temp_max_sub_custom_cnt", 0 );

  0019d	c7 45 d4 99 89
	86 9a		 mov	 DWORD PTR __k$512033[ebp], -1702458983 ; 9a868999H
  001a4	c7 45 d8 b2 81
	8a 92		 mov	 DWORD PTR __k$512033[ebp+4], -1836416590 ; 928a81b2H
  001ab	c7 45 dc b2 9f
	9e 88		 mov	 DWORD PTR __k$512033[ebp+8], -2002870350 ; 889e9fb2H
  001b2	c7 45 e0 b2 8f
	9e 99		 mov	 DWORD PTR __k$512033[ebp+12], -1717661774 ; 999e8fb2H
  001b9	c7 45 e4 99 83
	86 b5		 mov	 DWORD PTR __k$512033[ebp+16], -1249475687 ; b5868399H
  001c0	8d 45 d4	 lea	 eax, DWORD PTR __k$512033[ebp]
  001c3	c7 45 e8 8e 82
	9f 00		 mov	 DWORD PTR __k$512033[ebp+20], 10453646 ; 009f828eH
  001ca	59		 pop	 ecx
$LL534@LoadINI:
  001cb	81 30 ed ec eb
	ea		 xor	 DWORD PTR [eax], -353637139 ; eaebecedH
  001d1	83 c0 04	 add	 eax, 4
  001d4	49		 dec	 ecx
  001d5	75 f4		 jne	 SHORT $LL534@LoadINI
  001d7	6a 14		 push	 20			; 00000014H
  001d9	58		 pop	 eax
$LL531@LoadINI:
  001da	8b c8		 mov	 ecx, eax
  001dc	81 e1 03 00 00
	80		 and	 ecx, -2147483645	; 80000003H
  001e2	79 05		 jns	 SHORT $LN673@LoadINI
  001e4	49		 dec	 ecx
  001e5	83 c9 fc	 or	 ecx, -4			; fffffffcH
  001e8	41		 inc	 ecx
$LN673@LoadINI:
  001e9	b2 ed		 mov	 dl, -19			; ffffffedH
  001eb	2a d1		 sub	 dl, cl
  001ed	30 54 05 d4	 xor	 BYTE PTR __k$512033[ebp+eax], dl
  001f1	40		 inc	 eax
  001f2	83 f8 17	 cmp	 eax, 23			; 00000017H
  001f5	7c e3		 jl	 SHORT $LL531@LoadINI
  001f7	53		 push	 ebx
  001f8	8d 45 d4	 lea	 eax, DWORD PTR __k$512033[ebp]
  001fb	50		 push	 eax
  001fc	8d 8d 3c fa ff
	ff		 lea	 ecx, DWORD PTR _kLoader$[ebp]
  00202	ff d7		 call	 edi
  00204	6a 03		 push	 3
  00206	89 46 64	 mov	 DWORD PTR [esi+100], eax

; 126  : 	m_bSetTempUpload = kLoader.LoadBool_e( "set_temp_upload", false );

  00209	c7 45 dc 9e 89
	9f b5		 mov	 DWORD PTR __k$512195[ebp], -1247835746 ; b59f899eH
  00210	c7 45 e0 99 89
	86 9a		 mov	 DWORD PTR __k$512195[ebp+4], -1702458983 ; 9a868999H
  00217	c7 45 e4 b2 99
	9b 86		 mov	 DWORD PTR __k$512195[ebp+8], -2036622926 ; 869b99b2H
  0021e	8d 45 dc	 lea	 eax, DWORD PTR __k$512195[ebp]
  00221	c7 45 e8 82 8d
	8f 00		 mov	 DWORD PTR __k$512195[ebp+12], 9407874 ; 008f8d82H
  00228	59		 pop	 ecx
$LL640@LoadINI:
  00229	81 30 ed ec eb
	ea		 xor	 DWORD PTR [eax], -353637139 ; eaebecedH
  0022f	83 c0 04	 add	 eax, 4
  00232	49		 dec	 ecx
  00233	75 f4		 jne	 SHORT $LL640@LoadINI
  00235	6a 0c		 push	 12			; 0000000cH
  00237	5f		 pop	 edi
$LL637@LoadINI:
  00238	8b c7		 mov	 eax, edi
  0023a	25 03 00 00 80	 and	 eax, -2147483645	; 80000003H
  0023f	79 05		 jns	 SHORT $LN674@LoadINI
  00241	48		 dec	 eax
  00242	83 c8 fc	 or	 eax, -4			; fffffffcH
  00245	40		 inc	 eax
$LN674@LoadINI:
  00246	b1 ed		 mov	 cl, -19			; ffffffedH
  00248	2a c8		 sub	 cl, al
  0024a	30 4c 3d dc	 xor	 BYTE PTR __k$512195[ebp+edi], cl
  0024e	47		 inc	 edi
  0024f	83 ff 0f	 cmp	 edi, 15			; 0000000fH
  00252	7c e4		 jl	 SHORT $LL637@LoadINI
  00254	53		 push	 ebx
  00255	8d 45 dc	 lea	 eax, DWORD PTR __k$512195[ebp]
  00258	50		 push	 eax
  00259	8d 8d 3c fa ff
	ff		 lea	 ecx, DWORD PTR _kLoader$[ebp]
  0025f	ff 15 00 00 00
	00		 call	 DWORD PTR __imp_?LoadBool@ioINILoader@@QAE_NPBD_N@Z

; 127  : 
; 128  : 	char szAppDir[MAX_PATH] = "";

  00265	68 03 01 00 00	 push	 259			; 00000103H
  0026a	88 46 7d	 mov	 BYTE PTR [esi+125], al
  0026d	8d 85 cd fd ff
	ff		 lea	 eax, DWORD PTR _szAppDir$[ebp+1]
  00273	53		 push	 ebx
  00274	50		 push	 eax
  00275	88 9d cc fd ff
	ff		 mov	 BYTE PTR _szAppDir$[ebp], bl
  0027b	e8 00 00 00 00	 call	 _memset
  00280	83 c4 0c	 add	 esp, 12			; 0000000cH

; 129  : 	::GetCurrentDirectory( MAX_PATH, szAppDir );

  00283	8d 85 cc fd ff
	ff		 lea	 eax, DWORD PTR _szAppDir$[ebp]
  00289	50		 push	 eax
  0028a	68 04 01 00 00	 push	 260			; 00000104H
  0028f	ff 15 00 00 00
	00		 call	 DWORD PTR __imp__GetCurrentDirectoryA@8

; 130  : 
; 131  : 	sprintf( szBuf, "%s/resource/", szAppDir );

  00295	8b 3d 00 00 00
	00		 mov	 edi, DWORD PTR __imp__sprintf
  0029b	8d 85 cc fd ff
	ff		 lea	 eax, DWORD PTR _szAppDir$[ebp]
  002a1	50		 push	 eax
  002a2	8d 85 d0 fe ff
	ff		 lea	 eax, DWORD PTR _szBuf$[ebp]
  002a8	68 00 00 00 00	 push	 OFFSET ??_C@_0N@OGNBECJ@?$CFs?1resource?1?$AA@
  002ad	50		 push	 eax
  002ae	ff d7		 call	 edi
  002b0	83 c4 0c	 add	 esp, 12			; 0000000cH

; 132  : 	::CreateDirectory( szBuf, NULL );

  002b3	53		 push	 ebx
  002b4	8d 85 d0 fe ff
	ff		 lea	 eax, DWORD PTR _szBuf$[ebp]
  002ba	50		 push	 eax
  002bb	ff 15 00 00 00
	00		 call	 DWORD PTR __imp__CreateDirectoryA@8

; 133  : 
; 134  : 	sprintf( szBuf, "%s/resource/texture/", szAppDir );

  002c1	8d 85 cc fd ff
	ff		 lea	 eax, DWORD PTR _szAppDir$[ebp]
  002c7	50		 push	 eax
  002c8	8d 85 d0 fe ff
	ff		 lea	 eax, DWORD PTR _szBuf$[ebp]
  002ce	68 00 00 00 00	 push	 OFFSET ??_C@_0BF@KIIGLING@?$CFs?1resource?1texture?1?$AA@
  002d3	50		 push	 eax
  002d4	ff d7		 call	 edi
  002d6	83 c4 0c	 add	 esp, 12			; 0000000cH

; 135  : 	::CreateDirectory( szBuf, NULL );

  002d9	53		 push	 ebx
  002da	8d 85 d0 fe ff
	ff		 lea	 eax, DWORD PTR _szBuf$[ebp]
  002e0	50		 push	 eax
  002e1	ff 15 00 00 00
	00		 call	 DWORD PTR __imp__CreateDirectoryA@8

; 136  : 	m_szTempUploadDir = szBuf;

  002e7	8d 85 d0 fe ff
	ff		 lea	 eax, DWORD PTR _szBuf$[ebp]
  002ed	50		 push	 eax
  002ee	8d 4e 68	 lea	 ecx, DWORD PTR [esi+104]
  002f1	ff 15 00 00 00
	00		 call	 DWORD PTR __imp_??4ioHashString@@QAEAAV0@PBD@Z

; 137  : }

  002f7	83 4d fc ff	 or	 DWORD PTR __$EHRec$[ebp+8], -1
  002fb	8d 8d 3c fa ff
	ff		 lea	 ecx, DWORD PTR _kLoader$[ebp]
  00301	ff 15 00 00 00
	00		 call	 DWORD PTR __imp_??1ioINILoader@@QAE@XZ
  00307	e8 00 00 00 00	 call	 __EH_epilog3_GS
  0030c	c3		 ret	 0
_TEXT	ENDS
;	COMDAT text$x
text$x	SEGMENT
__unwindfunclet$?LoadINI@ioFileWriteClient@@QAEXXZ$0:
  00000	8d 8d 3c fa ff
	ff		 lea	 ecx, DWORD PTR _kLoader$[ebp]
  00006	e9 00 00 00 00	 jmp	 ??1ioINILoader_e@@QAE@XZ
__ehhandler$?LoadINI@ioFileWriteClient@@QAEXXZ:
  0000b	8b 54 24 08	 mov	 edx, DWORD PTR [esp+8]
  0000f	8d 42 0c	 lea	 eax, DWORD PTR [edx+12]
  00012	8b 8a 38 fa ff
	ff		 mov	 ecx, DWORD PTR [edx-1480]
  00018	33 c8		 xor	 ecx, eax
  0001a	e8 00 00 00 00	 call	 @__security_check_cookie@4
  0001f	8b 4a fc	 mov	 ecx, DWORD PTR [edx-4]
  00022	33 c8		 xor	 ecx, eax
  00024	e8 00 00 00 00	 call	 @__security_check_cookie@4
  00029	b8 00 00 00 00	 mov	 eax, OFFSET __ehfuncinfo$?LoadINI@ioFileWriteClient@@QAEXXZ
  0002e	e9 00 00 00 00	 jmp	 ___CxxFrameHandler3
text$x	ENDS
?LoadINI@ioFileWriteClient@@QAEXXZ ENDP			; ioFileWriteClient::LoadINI
PUBLIC	??$_Dest_val@V?$allocator@VioHashString@@@std@@VioHashString@@@std@@YAXAAV?$allocator@VioHashString@@@0@PAVioHashString@@@Z ; std::_Dest_val<std::allocator<ioHashString>,ioHashString>
; Function compile flags: /Ogsp
; File c:\program files (x86)\microsoft visual studio 10.0\vc\include\xmemory
;	COMDAT ??$_Dest_val@V?$allocator@VioHashString@@@std@@VioHashString@@@std@@YAXAAV?$allocator@VioHashString@@@0@PAVioHashString@@@Z
_TEXT	SEGMENT
__Alval$ = 8						; size = 4
__Pdest$ = 12						; size = 4
??$_Dest_val@V?$allocator@VioHashString@@@std@@VioHashString@@@std@@YAXAAV?$allocator@VioHashString@@@0@PAVioHashString@@@Z PROC ; std::_Dest_val<std::allocator<ioHashString>,ioHashString>, COMDAT

; 286  : 	{	// destroy using allocator

  00000	55		 push	 ebp
  00001	8b ec		 mov	 ebp, esp

; 287  : 	_Alval.destroy(_Pdest);

  00003	8b 4d 0c	 mov	 ecx, DWORD PTR __Pdest$[ebp]

; 288  : 	}

  00006	5d		 pop	 ebp

; 287  : 	_Alval.destroy(_Pdest);

  00007	ff 25 00 00 00
	00		 jmp	 DWORD PTR __imp_??1ioHashString@@QAE@XZ
??$_Dest_val@V?$allocator@VioHashString@@@std@@VioHashString@@@std@@YAXAAV?$allocator@VioHashString@@@0@PAVioHashString@@@Z ENDP ; std::_Dest_val<std::allocator<ioHashString>,ioHashString>
_TEXT	ENDS
PUBLIC	??$_Uninit_move@PAVioHashString@@PAV1@V?$allocator@VioHashString@@@std@@V1@@std@@YAPAVioHashString@@PAV1@00AAV?$allocator@VioHashString@@@0@0U_Nonscalar_ptr_iterator_tag@0@@Z ; std::_Uninit_move<ioHashString *,ioHashString *,std::allocator<ioHashString>,ioHashString>
EXTRN	__EH_prolog3_catch:PROC
;	COMDAT xdata$x
; File c:\program files (x86)\microsoft visual studio 10.0\vc\include\vector
xdata$x	SEGMENT
__catchsym$??$_Uninit_move@PAVioHashString@@PAV1@V?$allocator@VioHashString@@@std@@V1@@std@@YAPAVioHashString@@PAV1@00AAV?$allocator@VioHashString@@@0@0U_Nonscalar_ptr_iterator_tag@0@@Z$2 DD 040H
	DD	00H
	DD	00H
	DD	FLAT:__catch$??$_Uninit_move@PAVioHashString@@PAV1@V?$allocator@VioHashString@@@std@@V1@@std@@YAPAVioHashString@@PAV1@00AAV?$allocator@VioHashString@@@0@0U_Nonscalar_ptr_iterator_tag@0@@Z$0
__unwindtable$??$_Uninit_move@PAVioHashString@@PAV1@V?$allocator@VioHashString@@@std@@V1@@std@@YAPAVioHashString@@PAV1@00AAV?$allocator@VioHashString@@@0@0U_Nonscalar_ptr_iterator_tag@0@@Z DD 0ffffffffH
	DD	00H
	DD	0ffffffffH
	DD	00H
__tryblocktable$??$_Uninit_move@PAVioHashString@@PAV1@V?$allocator@VioHashString@@@std@@V1@@std@@YAPAVioHashString@@PAV1@00AAV?$allocator@VioHashString@@@0@0U_Nonscalar_ptr_iterator_tag@0@@Z DD 00H
	DD	00H
	DD	01H
	DD	01H
	DD	FLAT:__catchsym$??$_Uninit_move@PAVioHashString@@PAV1@V?$allocator@VioHashString@@@std@@V1@@std@@YAPAVioHashString@@PAV1@00AAV?$allocator@VioHashString@@@0@0U_Nonscalar_ptr_iterator_tag@0@@Z$2
__ehfuncinfo$??$_Uninit_move@PAVioHashString@@PAV1@V?$allocator@VioHashString@@@std@@V1@@std@@YAPAVioHashString@@PAV1@00AAV?$allocator@VioHashString@@@0@0U_Nonscalar_ptr_iterator_tag@0@@Z DD 019930522H
	DD	02H
	DD	FLAT:__unwindtable$??$_Uninit_move@PAVioHashString@@PAV1@V?$allocator@VioHashString@@@std@@V1@@std@@YAPAVioHashString@@PAV1@00AAV?$allocator@VioHashString@@@0@0U_Nonscalar_ptr_iterator_tag@0@@Z
	DD	01H
	DD	FLAT:__tryblocktable$??$_Uninit_move@PAVioHashString@@PAV1@V?$allocator@VioHashString@@@std@@V1@@std@@YAPAVioHashString@@PAV1@00AAV?$allocator@VioHashString@@@0@0U_Nonscalar_ptr_iterator_tag@0@@Z
	DD	2 DUP(00H)
	DD	00H
	DD	01H
; Function compile flags: /Ogsp
; File c:\program files (x86)\microsoft visual studio 10.0\vc\include\memory
xdata$x	ENDS
;	COMDAT ??$_Uninit_move@PAVioHashString@@PAV1@V?$allocator@VioHashString@@@std@@V1@@std@@YAPAVioHashString@@PAV1@00AAV?$allocator@VioHashString@@@0@0U_Nonscalar_ptr_iterator_tag@0@@Z
_TEXT	SEGMENT
__Next$ = -20						; size = 4
__$EHRec$ = -16						; size = 16
__First$ = 8						; size = 4
__Last$ = 12						; size = 4
__Dest$ = 16						; size = 4
__Al$ = 20						; size = 4
___formal$ = 24						; size = 4
___formal$ = 28						; size = 1
??$_Uninit_move@PAVioHashString@@PAV1@V?$allocator@VioHashString@@@std@@V1@@std@@YAPAVioHashString@@PAV1@00AAV?$allocator@VioHashString@@@0@0U_Nonscalar_ptr_iterator_tag@0@@Z PROC ; std::_Uninit_move<ioHashString *,ioHashString *,std::allocator<ioHashString>,ioHashString>, COMDAT

; 424  : 	{	// move [_First, _Last) to raw _Dest, using _Al, arbitrary type

  00000	6a 08		 push	 8
  00002	b8 00 00 00 00	 mov	 eax, __ehhandler$??$_Uninit_move@PAVioHashString@@PAV1@V?$allocator@VioHashString@@@std@@V1@@std@@YAPAVioHashString@@PAV1@00AAV?$allocator@VioHashString@@@0@0U_Nonscalar_ptr_iterator_tag@0@@Z
  00007	e8 00 00 00 00	 call	 __EH_prolog3_catch

; 425  : 	_DEBUG_RANGE(_First, _Last);
; 426  : 	_DEBUG_POINTER(_Dest);
; 427  : 	_FwdIt _Next = _Dest;

  0000c	8b 45 10	 mov	 eax, DWORD PTR __Dest$[ebp]

; 428  : 
; 429  : 	_TRY_BEGIN

  0000f	83 65 fc 00	 and	 DWORD PTR __$EHRec$[ebp+12], 0
  00013	8b 75 08	 mov	 esi, DWORD PTR __First$[ebp]
  00016	89 45 ec	 mov	 DWORD PTR __Next$[ebp], eax
$LL6@Uninit_mov:

; 430  : 	for (; _First != _Last; ++_Dest, ++_First)

  00019	3b 75 0c	 cmp	 esi, DWORD PTR __Last$[ebp]
  0001c	74 33		 je	 SHORT $LN4@Uninit_mov

; 431  : 		_Cons_val(_Al, _Dest, (_Valty &&)*_First);

  0001e	8b 4d 14	 mov	 ecx, DWORD PTR __Al$[ebp]
  00021	56		 push	 esi
  00022	ff 75 10	 push	 DWORD PTR __Dest$[ebp]
  00025	e8 00 00 00 00	 call	 ?construct@?$allocator@VioHashString@@@std@@QAEXPAVioHashString@@$$QAV3@@Z ; std::allocator<ioHashString>::construct
  0002a	83 45 10 10	 add	 DWORD PTR __Dest$[ebp], 16 ; 00000010H
  0002e	83 c6 10	 add	 esi, 16			; 00000010H
  00031	eb e6		 jmp	 SHORT $LL6@Uninit_mov
__catch$??$_Uninit_move@PAVioHashString@@PAV1@V?$allocator@VioHashString@@@std@@V1@@std@@YAPAVioHashString@@PAV1@00AAV?$allocator@VioHashString@@@0@0U_Nonscalar_ptr_iterator_tag@0@@Z$0:

; 432  : 	_CATCH_ALL
; 433  : 	for (; _Next != _Dest; ++_Next)

  00033	8b 75 ec	 mov	 esi, DWORD PTR __Next$[ebp]
  00036	eb 0b		 jmp	 SHORT $LN33@Uninit_mov
$LL3@Uninit_mov:

; 434  : 		_Dest_val(_Al, _Next);

  00038	8b ce		 mov	 ecx, esi
  0003a	ff 15 00 00 00
	00		 call	 DWORD PTR __imp_??1ioHashString@@QAE@XZ
  00040	83 c6 10	 add	 esi, 16			; 00000010H
$LN33@Uninit_mov:

; 432  : 	_CATCH_ALL
; 433  : 	for (; _Next != _Dest; ++_Next)

  00043	3b 75 10	 cmp	 esi, DWORD PTR __Dest$[ebp]
  00046	75 f0		 jne	 SHORT $LL3@Uninit_mov

; 435  : 	_RERAISE;

  00048	6a 00		 push	 0
  0004a	6a 00		 push	 0
  0004c	e8 00 00 00 00	 call	 __CxxThrowException@8
$LN34@Uninit_mov:
$LN4@Uninit_mov:

; 436  : 	_CATCH_END
; 437  : 	return (_Dest);

  00051	8b 45 10	 mov	 eax, DWORD PTR __Dest$[ebp]

; 438  : 	}

  00054	e8 00 00 00 00	 call	 __EH_epilog3
  00059	c3		 ret	 0
$LN32@Uninit_mov:
_TEXT	ENDS
;	COMDAT text$x
text$x	SEGMENT
__ehhandler$??$_Uninit_move@PAVioHashString@@PAV1@V?$allocator@VioHashString@@@std@@V1@@std@@YAPAVioHashString@@PAV1@00AAV?$allocator@VioHashString@@@0@0U_Nonscalar_ptr_iterator_tag@0@@Z:
  00000	8b 54 24 08	 mov	 edx, DWORD PTR [esp+8]
  00004	8d 42 0c	 lea	 eax, DWORD PTR [edx+12]
  00007	8b 4a e8	 mov	 ecx, DWORD PTR [edx-24]
  0000a	33 c8		 xor	 ecx, eax
  0000c	e8 00 00 00 00	 call	 @__security_check_cookie@4
  00011	b8 00 00 00 00	 mov	 eax, OFFSET __ehfuncinfo$??$_Uninit_move@PAVioHashString@@PAV1@V?$allocator@VioHashString@@@std@@V1@@std@@YAPAVioHashString@@PAV1@00AAV?$allocator@VioHashString@@@0@0U_Nonscalar_ptr_iterator_tag@0@@Z
  00016	e9 00 00 00 00	 jmp	 ___CxxFrameHandler3
text$x	ENDS
??$_Uninit_move@PAVioHashString@@PAV1@V?$allocator@VioHashString@@@std@@V1@@std@@YAPAVioHashString@@PAV1@00AAV?$allocator@VioHashString@@@0@0U_Nonscalar_ptr_iterator_tag@0@@Z ENDP ; std::_Uninit_move<ioHashString *,ioHashString *,std::allocator<ioHashString>,ioHashString>
PUBLIC	??$_Destroy_range@V?$allocator@VioHashString@@@std@@@std@@YAXPAVioHashString@@0AAV?$allocator@VioHashString@@@0@U_Nonscalar_ptr_iterator_tag@0@@Z ; std::_Destroy_range<std::allocator<ioHashString> >
; Function compile flags: /Ogsp
; File c:\program files (x86)\microsoft visual studio 10.0\vc\include\xmemory
;	COMDAT ??$_Destroy_range@V?$allocator@VioHashString@@@std@@@std@@YAXPAVioHashString@@0AAV?$allocator@VioHashString@@@0@U_Nonscalar_ptr_iterator_tag@0@@Z
_TEXT	SEGMENT
__First$ = 8						; size = 4
__Last$ = 12						; size = 4
__Al$ = 16						; size = 4
___formal$ = 20						; size = 1
??$_Destroy_range@V?$allocator@VioHashString@@@std@@@std@@YAXPAVioHashString@@0AAV?$allocator@VioHashString@@@0@U_Nonscalar_ptr_iterator_tag@0@@Z PROC ; std::_Destroy_range<std::allocator<ioHashString> >, COMDAT

; 95   : 	{	// destroy [_First, _Last), arbitrary type

  00000	55		 push	 ebp
  00001	8b ec		 mov	 ebp, esp
  00003	56		 push	 esi

; 96   : 	for (; _First != _Last; ++_First)

  00004	8b 75 08	 mov	 esi, DWORD PTR __First$[ebp]
  00007	eb 0b		 jmp	 SHORT $LN17@Destroy_ra
$LL3@Destroy_ra:

; 97   : 		_Dest_val(_Al, _First);

  00009	8b ce		 mov	 ecx, esi
  0000b	ff 15 00 00 00
	00		 call	 DWORD PTR __imp_??1ioHashString@@QAE@XZ
  00011	83 c6 10	 add	 esi, 16			; 00000010H
$LN17@Destroy_ra:

; 96   : 	for (; _First != _Last; ++_First)

  00014	3b 75 0c	 cmp	 esi, DWORD PTR __Last$[ebp]
  00017	75 f0		 jne	 SHORT $LL3@Destroy_ra
  00019	5e		 pop	 esi

; 98   : 	}

  0001a	5d		 pop	 ebp
  0001b	c3		 ret	 0
??$_Destroy_range@V?$allocator@VioHashString@@@std@@@std@@YAXPAVioHashString@@0AAV?$allocator@VioHashString@@@0@U_Nonscalar_ptr_iterator_tag@0@@Z ENDP ; std::_Destroy_range<std::allocator<ioHashString> >
_TEXT	ENDS
PUBLIC	??$_Uninitialized_move@PAVioHashString@@PAV1@V?$allocator@VioHashString@@@std@@@std@@YAPAVioHashString@@PAV1@00AAV?$allocator@VioHashString@@@0@@Z ; std::_Uninitialized_move<ioHashString *,ioHashString *,std::allocator<ioHashString> >
; Function compile flags: /Ogsp
; File c:\program files (x86)\microsoft visual studio 10.0\vc\include\memory
;	COMDAT ??$_Uninitialized_move@PAVioHashString@@PAV1@V?$allocator@VioHashString@@@std@@@std@@YAPAVioHashString@@PAV1@00AAV?$allocator@VioHashString@@@0@@Z
_TEXT	SEGMENT
__Cat$512411 = -4					; size = 1
__First$ = 8						; size = 4
__Last$ = 12						; size = 4
__Dest$ = 16						; size = 4
__Al$ = 20						; size = 4
??$_Uninitialized_move@PAVioHashString@@PAV1@V?$allocator@VioHashString@@@std@@@std@@YAPAVioHashString@@PAV1@00AAV?$allocator@VioHashString@@@0@@Z PROC ; std::_Uninitialized_move<ioHashString *,ioHashString *,std::allocator<ioHashString> >, COMDAT

; 469  : 	{	// move [_First, _Last) to raw _Dest, using _Al

  00000	55		 push	 ebp
  00001	8b ec		 mov	 ebp, esp
  00003	51		 push	 ecx

; 470  : 	return (_Uninit_move(_First, _Last, _Dest, _Al,
; 471  : 		_Val_type(_First), _Ptr_cat(_First, _Dest)));

  00004	ff 75 fc	 push	 DWORD PTR __Cat$512411[ebp]
  00007	6a 00		 push	 0
  00009	ff 75 14	 push	 DWORD PTR __Al$[ebp]
  0000c	ff 75 10	 push	 DWORD PTR __Dest$[ebp]
  0000f	ff 75 0c	 push	 DWORD PTR __Last$[ebp]
  00012	ff 75 08	 push	 DWORD PTR __First$[ebp]
  00015	e8 00 00 00 00	 call	 ??$_Uninit_move@PAVioHashString@@PAV1@V?$allocator@VioHashString@@@std@@V1@@std@@YAPAVioHashString@@PAV1@00AAV?$allocator@VioHashString@@@0@0U_Nonscalar_ptr_iterator_tag@0@@Z ; std::_Uninit_move<ioHashString *,ioHashString *,std::allocator<ioHashString>,ioHashString>
  0001a	83 c4 18	 add	 esp, 24			; 00000018H

; 472  : 	}

  0001d	c9		 leave
  0001e	c3		 ret	 0
??$_Uninitialized_move@PAVioHashString@@PAV1@V?$allocator@VioHashString@@@std@@@std@@YAPAVioHashString@@PAV1@00AAV?$allocator@VioHashString@@@0@@Z ENDP ; std::_Uninitialized_move<ioHashString *,ioHashString *,std::allocator<ioHashString> >
_TEXT	ENDS
PUBLIC	??$_Destroy_range@V?$allocator@VioHashString@@@std@@@std@@YAXPAVioHashString@@0AAV?$allocator@VioHashString@@@0@@Z ; std::_Destroy_range<std::allocator<ioHashString> >
; Function compile flags: /Ogsp
; File c:\program files (x86)\microsoft visual studio 10.0\vc\include\xmemory
;	COMDAT ??$_Destroy_range@V?$allocator@VioHashString@@@std@@@std@@YAXPAVioHashString@@0AAV?$allocator@VioHashString@@@0@@Z
_TEXT	SEGMENT
__First$ = 8						; size = 4
__Last$ = 12						; size = 4
__Al$ = 16						; size = 4
??$_Destroy_range@V?$allocator@VioHashString@@@std@@@std@@YAXPAVioHashString@@0AAV?$allocator@VioHashString@@@0@@Z PROC ; std::_Destroy_range<std::allocator<ioHashString> >, COMDAT

; 87   : 	{	// destroy [_First, _Last)

  00000	55		 push	 ebp
  00001	8b ec		 mov	 ebp, esp
  00003	56		 push	 esi

; 88   : 	_Destroy_range(_First, _Last, _Al, _Ptr_cat(_First, _Last));

  00004	8b 75 08	 mov	 esi, DWORD PTR __First$[ebp]
  00007	eb 0b		 jmp	 SHORT $LN21@Destroy_ra@2
$LL7@Destroy_ra@2:
  00009	8b ce		 mov	 ecx, esi
  0000b	ff 15 00 00 00
	00		 call	 DWORD PTR __imp_??1ioHashString@@QAE@XZ
  00011	83 c6 10	 add	 esi, 16			; 00000010H
$LN21@Destroy_ra@2:
  00014	3b 75 0c	 cmp	 esi, DWORD PTR __Last$[ebp]
  00017	75 f0		 jne	 SHORT $LL7@Destroy_ra@2
  00019	5e		 pop	 esi

; 89   : 	}

  0001a	5d		 pop	 ebp
  0001b	c3		 ret	 0
??$_Destroy_range@V?$allocator@VioHashString@@@std@@@std@@YAXPAVioHashString@@0AAV?$allocator@VioHashString@@@0@@Z ENDP ; std::_Destroy_range<std::allocator<ioHashString> >
_TEXT	ENDS
PUBLIC	??$_Umove@PAVioHashString@@@?$vector@VioHashString@@V?$allocator@VioHashString@@@std@@@std@@IAEPAVioHashString@@PAV2@00@Z ; std::vector<ioHashString,std::allocator<ioHashString> >::_Umove<ioHashString *>
; Function compile flags: /Ogsp
; File c:\program files (x86)\microsoft visual studio 10.0\vc\include\vector
;	COMDAT ??$_Umove@PAVioHashString@@@?$vector@VioHashString@@V?$allocator@VioHashString@@@std@@@std@@IAEPAVioHashString@@PAV2@00@Z
_TEXT	SEGMENT
__First$ = 8						; size = 4
__Last$ = 12						; size = 4
__Ptr$ = 16						; size = 4
??$_Umove@PAVioHashString@@@?$vector@VioHashString@@V?$allocator@VioHashString@@@std@@@std@@IAEPAVioHashString@@PAV2@00@Z PROC ; std::vector<ioHashString,std::allocator<ioHashString> >::_Umove<ioHashString *>, COMDAT
; _this$ = ecx

; 1322 : 		pointer _Umove(_Iter _First, _Iter _Last, pointer _Ptr)

  00000	55		 push	 ebp
  00001	8b ec		 mov	 ebp, esp

; 1323 : 		{	// move initializing [_First, _Last), using allocator
; 1324 : 		return (_Uninitialized_move(_First, _Last,
; 1325 : 			_Ptr, this->_Alval));

  00003	83 c1 0c	 add	 ecx, 12			; 0000000cH
  00006	51		 push	 ecx
  00007	ff 75 10	 push	 DWORD PTR __Ptr$[ebp]
  0000a	ff 75 0c	 push	 DWORD PTR __Last$[ebp]
  0000d	ff 75 08	 push	 DWORD PTR __First$[ebp]
  00010	e8 00 00 00 00	 call	 ??$_Uninitialized_move@PAVioHashString@@PAV1@V?$allocator@VioHashString@@@std@@@std@@YAPAVioHashString@@PAV1@00AAV?$allocator@VioHashString@@@0@@Z ; std::_Uninitialized_move<ioHashString *,ioHashString *,std::allocator<ioHashString> >
  00015	83 c4 10	 add	 esp, 16			; 00000010H

; 1326 : 		}

  00018	5d		 pop	 ebp
  00019	c2 0c 00	 ret	 12			; 0000000cH
??$_Umove@PAVioHashString@@@?$vector@VioHashString@@V?$allocator@VioHashString@@@std@@@std@@IAEPAVioHashString@@PAV2@00@Z ENDP ; std::vector<ioHashString,std::allocator<ioHashString> >::_Umove<ioHashString *>
_TEXT	ENDS
PUBLIC	?_Destroy@?$vector@VioHashString@@V?$allocator@VioHashString@@@std@@@std@@IAEXPAVioHashString@@0@Z ; std::vector<ioHashString,std::allocator<ioHashString> >::_Destroy
; Function compile flags: /Ogsp
;	COMDAT ?_Destroy@?$vector@VioHashString@@V?$allocator@VioHashString@@@std@@@std@@IAEXPAVioHashString@@0@Z
_TEXT	SEGMENT
__First$ = 8						; size = 4
__Last$ = 12						; size = 4
?_Destroy@?$vector@VioHashString@@V?$allocator@VioHashString@@@std@@@std@@IAEXPAVioHashString@@0@Z PROC ; std::vector<ioHashString,std::allocator<ioHashString> >::_Destroy, COMDAT
; _this$ = ecx

; 1269 : 		{	// destroy [_First, _Last) using allocator

  00000	55		 push	 ebp
  00001	8b ec		 mov	 ebp, esp
  00003	56		 push	 esi

; 1270 : 		_Destroy_range(_First, _Last, this->_Alval);

  00004	8b 75 08	 mov	 esi, DWORD PTR __First$[ebp]
  00007	eb 0b		 jmp	 SHORT $LN23@Destroy
$LL9@Destroy:
  00009	8b ce		 mov	 ecx, esi
  0000b	ff 15 00 00 00
	00		 call	 DWORD PTR __imp_??1ioHashString@@QAE@XZ
  00011	83 c6 10	 add	 esi, 16			; 00000010H
$LN23@Destroy:
  00014	3b 75 0c	 cmp	 esi, DWORD PTR __Last$[ebp]
  00017	75 f0		 jne	 SHORT $LL9@Destroy
  00019	5e		 pop	 esi

; 1271 : 		}

  0001a	5d		 pop	 ebp
  0001b	c2 08 00	 ret	 8
?_Destroy@?$vector@VioHashString@@V?$allocator@VioHashString@@@std@@@std@@IAEXPAVioHashString@@0@Z ENDP ; std::vector<ioHashString,std::allocator<ioHashString> >::_Destroy
_TEXT	ENDS
PUBLIC	?erase@?$vector@VioHashString@@V?$allocator@VioHashString@@@std@@@std@@QAE?AV?$_Vector_iterator@V?$_Vector_val@VioHashString@@V?$allocator@VioHashString@@@std@@@std@@@2@V?$_Vector_const_iterator@V?$_Vector_val@VioHashString@@V?$allocator@VioHashString@@@std@@@std@@@2@@Z ; std::vector<ioHashString,std::allocator<ioHashString> >::erase
; Function compile flags: /Ogsp
;	COMDAT ?erase@?$vector@VioHashString@@V?$allocator@VioHashString@@@std@@@std@@QAE?AV?$_Vector_iterator@V?$_Vector_val@VioHashString@@V?$allocator@VioHashString@@@std@@@std@@@2@V?$_Vector_const_iterator@V?$_Vector_val@VioHashString@@V?$allocator@VioHashString@@@std@@@std@@@2@@Z
_TEXT	SEGMENT
___$ReturnUdt$ = 8					; size = 4
__Cat$512558 = 12					; size = 1
__Where$ = 12						; size = 4
?erase@?$vector@VioHashString@@V?$allocator@VioHashString@@@std@@@std@@QAE?AV?$_Vector_iterator@V?$_Vector_val@VioHashString@@V?$allocator@VioHashString@@@std@@@std@@@2@V?$_Vector_const_iterator@V?$_Vector_val@VioHashString@@V?$allocator@VioHashString@@@std@@@std@@@2@@Z PROC ; std::vector<ioHashString,std::allocator<ioHashString> >::erase, COMDAT
; _this$ = ecx

; 1179 : 		{	// erase element at where

  00000	55		 push	 ebp
  00001	8b ec		 mov	 ebp, esp

; 1180 : 		_Move(_VIPTR(_Where) + 1, this->_Mylast,
; 1181 : 			_VIPTR(_Where));

  00003	8b 45 0c	 mov	 eax, DWORD PTR __Where$[ebp]
  00006	53		 push	 ebx
  00007	56		 push	 esi
  00008	57		 push	 edi
  00009	ff 75 0c	 push	 DWORD PTR __Cat$512558[ebp]
  0000c	8b f1		 mov	 esi, ecx
  0000e	50		 push	 eax
  0000f	ff 76 04	 push	 DWORD PTR [esi+4]
  00012	83 c0 10	 add	 eax, 16			; 00000010H
  00015	50		 push	 eax
  00016	e8 00 00 00 00	 call	 ??$_Move@PAVioHashString@@PAV1@@std@@YAPAVioHashString@@PAV1@00U_Nonscalar_ptr_iterator_tag@0@@Z ; std::_Move<ioHashString *,ioHashString *>

; 1182 : 		_Destroy(this->_Mylast - 1, this->_Mylast);

  0001b	8b 7e 04	 mov	 edi, DWORD PTR [esi+4]
  0001e	83 c4 10	 add	 esp, 16			; 00000010H
  00021	8d 5f f0	 lea	 ebx, DWORD PTR [edi-16]
  00024	eb 0b		 jmp	 SHORT $LN37@erase
$LL15@erase:
  00026	8b cb		 mov	 ecx, ebx
  00028	ff 15 00 00 00
	00		 call	 DWORD PTR __imp_??1ioHashString@@QAE@XZ
  0002e	83 c3 10	 add	 ebx, 16			; 00000010H
$LN37@erase:
  00031	3b df		 cmp	 ebx, edi
  00033	75 f1		 jne	 SHORT $LL15@erase

; 1183 : 		--this->_Mylast;

  00035	83 46 04 f0	 add	 DWORD PTR [esi+4], -16	; fffffff0H

; 1184 : 		return (_Make_iter(_Where));

  00039	8b 45 08	 mov	 eax, DWORD PTR ___$ReturnUdt$[ebp]
  0003c	8b 4d 0c	 mov	 ecx, DWORD PTR __Where$[ebp]
  0003f	5f		 pop	 edi
  00040	5e		 pop	 esi
  00041	89 08		 mov	 DWORD PTR [eax], ecx
  00043	5b		 pop	 ebx

; 1185 : 		}

  00044	5d		 pop	 ebp
  00045	c2 08 00	 ret	 8
?erase@?$vector@VioHashString@@V?$allocator@VioHashString@@@std@@@std@@QAE?AV?$_Vector_iterator@V?$_Vector_val@VioHashString@@V?$allocator@VioHashString@@@std@@@std@@@2@V?$_Vector_const_iterator@V?$_Vector_val@VioHashString@@V?$allocator@VioHashString@@@std@@@std@@@2@@Z ENDP ; std::vector<ioHashString,std::allocator<ioHashString> >::erase
_TEXT	ENDS
PUBLIC	?reserve@?$vector@VioHashString@@V?$allocator@VioHashString@@@std@@@std@@QAEXI@Z ; std::vector<ioHashString,std::allocator<ioHashString> >::reserve
EXTRN	__imp_?_Orphan_all@_Container_base0@std@@QAEXXZ:PROC
;	COMDAT xdata$x
; File c:\program files (x86)\microsoft visual studio 10.0\vc\include\xmemory
xdata$x	SEGMENT
__catchsym$?reserve@?$vector@VioHashString@@V?$allocator@VioHashString@@@std@@@std@@QAEXI@Z$2 DD 040H
	DD	00H
	DD	00H
	DD	FLAT:__catch$?reserve@?$vector@VioHashString@@V?$allocator@VioHashString@@@std@@@std@@QAEXI@Z$0
__unwindtable$?reserve@?$vector@VioHashString@@V?$allocator@VioHashString@@@std@@@std@@QAEXI@Z DD 0ffffffffH
	DD	00H
	DD	0ffffffffH
	DD	00H
__tryblocktable$?reserve@?$vector@VioHashString@@V?$allocator@VioHashString@@@std@@@std@@QAEXI@Z DD 00H
	DD	00H
	DD	01H
	DD	01H
	DD	FLAT:__catchsym$?reserve@?$vector@VioHashString@@V?$allocator@VioHashString@@@std@@@std@@QAEXI@Z$2
__ehfuncinfo$?reserve@?$vector@VioHashString@@V?$allocator@VioHashString@@@std@@@std@@QAEXI@Z DD 019930522H
	DD	02H
	DD	FLAT:__unwindtable$?reserve@?$vector@VioHashString@@V?$allocator@VioHashString@@@std@@@std@@QAEXI@Z
	DD	01H
	DD	FLAT:__tryblocktable$?reserve@?$vector@VioHashString@@V?$allocator@VioHashString@@@std@@@std@@QAEXI@Z
	DD	2 DUP(00H)
	DD	00H
	DD	01H
; Function compile flags: /Ogsp
; File c:\program files (x86)\microsoft visual studio 10.0\vc\include\vector
xdata$x	ENDS
;	COMDAT ?reserve@?$vector@VioHashString@@V?$allocator@VioHashString@@@std@@@std@@QAEXI@Z
_TEXT	SEGMENT
tv300 = -24						; size = 4
__Ptr$507927 = -20					; size = 4
__$EHRec$ = -16						; size = 16
$T512777 = 8						; size = 4
__Count$ = 8						; size = 4
?reserve@?$vector@VioHashString@@V?$allocator@VioHashString@@@std@@@std@@QAEXI@Z PROC ; std::vector<ioHashString,std::allocator<ioHashString> >::reserve, COMDAT
; _this$ = ecx

; 746  : 		{	// determine new minimum length of allocated storage

  00000	6a 0c		 push	 12			; 0000000cH
  00002	b8 00 00 00 00	 mov	 eax, __ehhandler$?reserve@?$vector@VioHashString@@V?$allocator@VioHashString@@@std@@@std@@QAEXI@Z
  00007	e8 00 00 00 00	 call	 __EH_prolog3_catch
  0000c	8b f1		 mov	 esi, ecx

; 747  : 		if (max_size() < _Count)

  0000e	8b 5d 08	 mov	 ebx, DWORD PTR __Count$[ebp]
  00011	81 fb ff ff ff
	0f		 cmp	 ebx, 268435455		; 0fffffffH
  00017	76 0b		 jbe	 SHORT $LN5@reserve

; 748  : 			_Xlen();	// result too long

  00019	68 00 00 00 00	 push	 OFFSET ??_C@_0BD@OLBABOEK@vector?$DMT?$DO?5too?5long?$AA@
  0001e	ff 15 00 00 00
	00		 call	 DWORD PTR __imp_?_Xlength_error@std@@YAXPBD@Z
$LN59@reserve:
$LN5@reserve:

; 749  : 		else if (capacity() < _Count)

  00024	8b 46 08	 mov	 eax, DWORD PTR [esi+8]
  00027	2b 06		 sub	 eax, DWORD PTR [esi]
  00029	c1 f8 04	 sar	 eax, 4
  0002c	3b c3		 cmp	 eax, ebx
  0002e	73 7a		 jae	 SHORT $LN3@reserve

; 750  : 			{	// not enough room, reallocate
; 751  : 			pointer _Ptr = this->_Alval.allocate(_Count);

  00030	6a 00		 push	 0
  00032	53		 push	 ebx
  00033	e8 00 00 00 00	 call	 ??$_Allocate@VioHashString@@@std@@YAPAVioHashString@@IPAV1@@Z ; std::_Allocate<ioHashString>

; 752  : 
; 753  : 			_TRY_BEGIN
; 754  : 			_Umove(this->_Myfirst, this->_Mylast, _Ptr);

  00038	8b 0e		 mov	 ecx, DWORD PTR [esi]
  0003a	83 65 fc 00	 and	 DWORD PTR __$EHRec$[ebp+12], 0
  0003e	8d 56 0c	 lea	 edx, DWORD PTR [esi+12]
  00041	52		 push	 edx
  00042	89 45 ec	 mov	 DWORD PTR __Ptr$507927[ebp], eax
  00045	ff 75 ec	 push	 DWORD PTR __Ptr$507927[ebp]
  00048	8b 46 04	 mov	 eax, DWORD PTR [esi+4]
  0004b	50		 push	 eax
  0004c	51		 push	 ecx
  0004d	e8 00 00 00 00	 call	 ??$_Uninitialized_move@PAVioHashString@@PAV1@V?$allocator@VioHashString@@@std@@@std@@YAPAVioHashString@@PAV1@00AAV?$allocator@VioHashString@@@0@@Z ; std::_Uninitialized_move<ioHashString *,ioHashString *,std::allocator<ioHashString> >

; 758  : 			_CATCH_END
; 759  : 
; 760  : 			size_type _Size = size();

  00052	8b 4e 04	 mov	 ecx, DWORD PTR [esi+4]
  00055	8b 06		 mov	 eax, DWORD PTR [esi]
  00057	83 4d fc ff	 or	 DWORD PTR __$EHRec$[ebp+12], -1
  0005b	8b f9		 mov	 edi, ecx
  0005d	83 c4 18	 add	 esp, 24			; 00000018H
  00060	2b f8		 sub	 edi, eax
  00062	89 4d e8	 mov	 DWORD PTR tv300[ebp], ecx
  00065	85 c0		 test	 eax, eax
  00067	74 24		 je	 SHORT $LN51@reserve

; 761  : 			if (this->_Myfirst != 0)
; 762  : 				{	// destroy and deallocate old array
; 763  : 				_Destroy(this->_Myfirst, this->_Mylast);

  00069	89 45 08	 mov	 DWORD PTR $T512777[ebp], eax
  0006c	3b c1		 cmp	 eax, ecx
  0006e	74 15		 je	 SHORT $LN37@reserve
$LN39@reserve:
  00070	8b 4d 08	 mov	 ecx, DWORD PTR $T512777[ebp]
  00073	ff 15 00 00 00
	00		 call	 DWORD PTR __imp_??1ioHashString@@QAE@XZ
  00079	83 45 08 10	 add	 DWORD PTR $T512777[ebp], 16 ; 00000010H
  0007d	8b 45 08	 mov	 eax, DWORD PTR $T512777[ebp]
  00080	3b 45 e8	 cmp	 eax, DWORD PTR tv300[ebp]
  00083	75 eb		 jne	 SHORT $LN39@reserve
$LN37@reserve:

; 764  : 				this->_Alval.deallocate(this->_Myfirst,
; 765  : 					this->_Myend - this->_Myfirst);

  00085	ff 36		 push	 DWORD PTR [esi]
  00087	e8 00 00 00 00	 call	 ??3@YAXPAX@Z		; operator delete
  0008c	59		 pop	 ecx
$LN51@reserve:

; 766  : 				}
; 767  : 
; 768  : 			this->_Orphan_all();

  0008d	8b ce		 mov	 ecx, esi
  0008f	ff 15 00 00 00
	00		 call	 DWORD PTR __imp_?_Orphan_all@_Container_base0@std@@QAEXXZ

; 769  : 			this->_Myend = _Ptr + _Count;

  00095	8b 45 ec	 mov	 eax, DWORD PTR __Ptr$507927[ebp]
  00098	c1 e3 04	 shl	 ebx, 4
  0009b	03 d8		 add	 ebx, eax

; 770  : 			this->_Mylast = _Ptr + _Size;

  0009d	83 e7 f0	 and	 edi, -16		; fffffff0H
  000a0	03 f8		 add	 edi, eax
  000a2	89 5e 08	 mov	 DWORD PTR [esi+8], ebx
  000a5	89 7e 04	 mov	 DWORD PTR [esi+4], edi

; 771  : 			this->_Myfirst = _Ptr;

  000a8	89 06		 mov	 DWORD PTR [esi], eax
$LN3@reserve:

; 772  : 			}
; 773  : 		}

  000aa	e8 00 00 00 00	 call	 __EH_epilog3
  000af	c2 04 00	 ret	 4
__catch$?reserve@?$vector@VioHashString@@V?$allocator@VioHashString@@@std@@@std@@QAEXI@Z$0:

; 755  : 			_CATCH_ALL
; 756  : 			this->_Alval.deallocate(_Ptr, _Count);

  000b2	ff 75 ec	 push	 DWORD PTR __Ptr$507927[ebp]
  000b5	e8 00 00 00 00	 call	 ??3@YAXPAX@Z		; operator delete
  000ba	59		 pop	 ecx

; 757  : 			_RERAISE;

  000bb	6a 00		 push	 0
  000bd	6a 00		 push	 0
  000bf	e8 00 00 00 00	 call	 __CxxThrowException@8
$LN60@reserve:
$LN58@reserve:
  000c4	cc		 int	 3
_TEXT	ENDS
;	COMDAT text$x
text$x	SEGMENT
__ehhandler$?reserve@?$vector@VioHashString@@V?$allocator@VioHashString@@@std@@@std@@QAEXI@Z:
  00000	8b 54 24 08	 mov	 edx, DWORD PTR [esp+8]
  00004	8d 42 0c	 lea	 eax, DWORD PTR [edx+12]
  00007	8b 4a e4	 mov	 ecx, DWORD PTR [edx-28]
  0000a	33 c8		 xor	 ecx, eax
  0000c	e8 00 00 00 00	 call	 @__security_check_cookie@4
  00011	b8 00 00 00 00	 mov	 eax, OFFSET __ehfuncinfo$?reserve@?$vector@VioHashString@@V?$allocator@VioHashString@@@std@@@std@@QAEXI@Z
  00016	e9 00 00 00 00	 jmp	 ___CxxFrameHandler3
text$x	ENDS
?reserve@?$vector@VioHashString@@V?$allocator@VioHashString@@@std@@@std@@QAEXI@Z ENDP ; std::vector<ioHashString,std::allocator<ioHashString> >::reserve
PUBLIC	?erase@?$vector@VioHashString@@V?$allocator@VioHashString@@@std@@@std@@QAE?AV?$_Vector_iterator@V?$_Vector_val@VioHashString@@V?$allocator@VioHashString@@@std@@@std@@@2@V?$_Vector_const_iterator@V?$_Vector_val@VioHashString@@V?$allocator@VioHashString@@@std@@@std@@@2@0@Z ; std::vector<ioHashString,std::allocator<ioHashString> >::erase
; Function compile flags: /Ogsp
;	COMDAT ?erase@?$vector@VioHashString@@V?$allocator@VioHashString@@@std@@@std@@QAE?AV?$_Vector_iterator@V?$_Vector_val@VioHashString@@V?$allocator@VioHashString@@@std@@@std@@@2@V?$_Vector_const_iterator@V?$_Vector_val@VioHashString@@V?$allocator@VioHashString@@@std@@@std@@@2@0@Z
_TEXT	SEGMENT
$T512972 = -4						; size = 4
___$ReturnUdt$ = 8					; size = 4
__First_arg$ = 12					; size = 4
__Cat$512917 = 16					; size = 1
__Last_arg$ = 16					; size = 4
?erase@?$vector@VioHashString@@V?$allocator@VioHashString@@@std@@@std@@QAE?AV?$_Vector_iterator@V?$_Vector_val@VioHashString@@V?$allocator@VioHashString@@@std@@@std@@@2@V?$_Vector_const_iterator@V?$_Vector_val@VioHashString@@V?$allocator@VioHashString@@@std@@@std@@@2@0@Z PROC ; std::vector<ioHashString,std::allocator<ioHashString> >::erase, COMDAT
; _this$ = ecx

; 1190 : 		{	// erase [_First, _Last)

  00000	55		 push	 ebp
  00001	8b ec		 mov	 ebp, esp
  00003	51		 push	 ecx

; 1191 : 		iterator _First = _Make_iter(_First_arg);

  00004	8b 45 08	 mov	 eax, DWORD PTR ___$ReturnUdt$[ebp]
  00007	56		 push	 esi
  00008	8b f1		 mov	 esi, ecx
  0000a	8b 4d 0c	 mov	 ecx, DWORD PTR __First_arg$[ebp]
  0000d	89 08		 mov	 DWORD PTR [eax], ecx

; 1192 : 		iterator _Last = _Make_iter(_Last_arg);
; 1193 : 
; 1194 : 		if (_First != _Last)

  0000f	3b 4d 10	 cmp	 ecx, DWORD PTR __Last_arg$[ebp]
  00012	74 38		 je	 SHORT $LN1@erase@2

; 1195 : 			{	// worth doing, copy down over hole
; 1196 :  #if _ITERATOR_DEBUG_LEVEL == 2
; 1197 : 			if (_Last < _First || _VICONT(_First) != this
; 1198 : 				|| _VIPTR(_First) < this->_Myfirst
; 1199 : 				|| this->_Mylast < _VIPTR(_Last))
; 1200 : 				_DEBUG_ERROR("vector erase iterator outside range");
; 1201 : 			pointer _Ptr = _Move(_VIPTR(_Last), this->_Mylast,
; 1202 : 				_VIPTR(_First));
; 1203 : 			_Orphan_range(_VIPTR(_First), this->_Mylast);
; 1204 : 
; 1205 :  #else /* _ITERATOR_DEBUG_LEVEL == 2 */
; 1206 : 			pointer _Ptr = _Move(_VIPTR(_Last), this->_Mylast,
; 1207 : 				_VIPTR(_First));

  00014	8b 46 04	 mov	 eax, DWORD PTR [esi+4]
  00017	53		 push	 ebx
  00018	57		 push	 edi
  00019	ff 75 10	 push	 DWORD PTR __Cat$512917[ebp]
  0001c	51		 push	 ecx
  0001d	50		 push	 eax
  0001e	ff 75 10	 push	 DWORD PTR __Last_arg$[ebp]
  00021	e8 00 00 00 00	 call	 ??$_Move@PAVioHashString@@PAV1@@std@@YAPAVioHashString@@PAV1@00U_Nonscalar_ptr_iterator_tag@0@@Z ; std::_Move<ioHashString *,ioHashString *>

; 1208 :  #endif /* _ITERATOR_DEBUG_LEVEL == 2 */
; 1209 : 
; 1210 : 			_Destroy(_Ptr, this->_Mylast);

  00026	8b 7e 04	 mov	 edi, DWORD PTR [esi+4]
  00029	8b d8		 mov	 ebx, eax
  0002b	83 c4 10	 add	 esp, 16			; 00000010H
  0002e	89 5d fc	 mov	 DWORD PTR $T512972[ebp], ebx
  00031	3b df		 cmp	 ebx, edi
  00033	74 12		 je	 SHORT $LN36@erase@2
$LL52@erase@2:
  00035	8b 4d fc	 mov	 ecx, DWORD PTR $T512972[ebp]
  00038	ff 15 00 00 00
	00		 call	 DWORD PTR __imp_??1ioHashString@@QAE@XZ
  0003e	83 45 fc 10	 add	 DWORD PTR $T512972[ebp], 16 ; 00000010H
  00042	39 7d fc	 cmp	 DWORD PTR $T512972[ebp], edi
  00045	75 ee		 jne	 SHORT $LL52@erase@2
$LN36@erase@2:

; 1211 : 			this->_Mylast = _Ptr;

  00047	5f		 pop	 edi
  00048	89 5e 04	 mov	 DWORD PTR [esi+4], ebx
  0004b	5b		 pop	 ebx
$LN1@erase@2:

; 1212 : 			}
; 1213 : 		return (_First);

  0004c	8b 45 08	 mov	 eax, DWORD PTR ___$ReturnUdt$[ebp]
  0004f	5e		 pop	 esi

; 1214 : 		}

  00050	c9		 leave
  00051	c2 0c 00	 ret	 12			; 0000000cH
?erase@?$vector@VioHashString@@V?$allocator@VioHashString@@@std@@@std@@QAE?AV?$_Vector_iterator@V?$_Vector_val@VioHashString@@V?$allocator@VioHashString@@@std@@@std@@@2@V?$_Vector_const_iterator@V?$_Vector_val@VioHashString@@V?$allocator@VioHashString@@@std@@@std@@@2@0@Z ENDP ; std::vector<ioHashString,std::allocator<ioHashString> >::erase
_TEXT	ENDS
PUBLIC	?_Tidy@?$vector@VioHashString@@V?$allocator@VioHashString@@@std@@@std@@IAEXXZ ; std::vector<ioHashString,std::allocator<ioHashString> >::_Tidy
; Function compile flags: /Ogsp
;	COMDAT ?_Tidy@?$vector@VioHashString@@V?$allocator@VioHashString@@@std@@@std@@IAEXXZ
_TEXT	SEGMENT
?_Tidy@?$vector@VioHashString@@V?$allocator@VioHashString@@@std@@@std@@IAEXXZ PROC ; std::vector<ioHashString,std::allocator<ioHashString> >::_Tidy, COMDAT
; _this$ = ecx

; 1301 : 		{	// free all storage

  00000	56		 push	 esi
  00001	8b f1		 mov	 esi, ecx

; 1302 : 		if (this->_Myfirst != 0)

  00003	83 3e 00	 cmp	 DWORD PTR [esi], 0
  00006	74 28		 je	 SHORT $LN24@Tidy

; 1303 : 			{	// something to free, destroy and deallocate it
; 1304 : 			this->_Orphan_all();

  00008	53		 push	 ebx
  00009	57		 push	 edi
  0000a	ff 15 00 00 00
	00		 call	 DWORD PTR __imp_?_Orphan_all@_Container_base0@std@@QAEXXZ

; 1305 : 			_Destroy(this->_Myfirst, this->_Mylast);

  00010	8b 5e 04	 mov	 ebx, DWORD PTR [esi+4]
  00013	8b 3e		 mov	 edi, DWORD PTR [esi]
  00015	eb 0b		 jmp	 SHORT $LN28@Tidy
$LL12@Tidy:
  00017	8b cf		 mov	 ecx, edi
  00019	ff 15 00 00 00
	00		 call	 DWORD PTR __imp_??1ioHashString@@QAE@XZ
  0001f	83 c7 10	 add	 edi, 16			; 00000010H
$LN28@Tidy:
  00022	3b fb		 cmp	 edi, ebx
  00024	75 f1		 jne	 SHORT $LL12@Tidy

; 1306 : 			this->_Alval.deallocate(this->_Myfirst,
; 1307 : 				this->_Myend - this->_Myfirst);

  00026	ff 36		 push	 DWORD PTR [esi]
  00028	e8 00 00 00 00	 call	 ??3@YAXPAX@Z		; operator delete
  0002d	59		 pop	 ecx
  0002e	5f		 pop	 edi
  0002f	5b		 pop	 ebx
$LN24@Tidy:

; 1308 : 			}
; 1309 : 		this->_Myfirst = 0;

  00030	33 c0		 xor	 eax, eax
  00032	89 06		 mov	 DWORD PTR [esi], eax

; 1310 : 		this->_Mylast = 0;

  00034	89 46 04	 mov	 DWORD PTR [esi+4], eax

; 1311 : 		this->_Myend = 0;

  00037	89 46 08	 mov	 DWORD PTR [esi+8], eax
  0003a	5e		 pop	 esi

; 1312 : 		}

  0003b	c3		 ret	 0
?_Tidy@?$vector@VioHashString@@V?$allocator@VioHashString@@@std@@@std@@IAEXXZ ENDP ; std::vector<ioHashString,std::allocator<ioHashString> >::_Tidy
_TEXT	ENDS
PUBLIC	??_C@_0CM@HICHPLFK@void?5ioFileWriteClient?3?3NextUplo@ ; `string'
PUBLIC	?NextUploadList@ioFileWriteClient@@QAEXXZ	; ioFileWriteClient::NextUploadList
;	COMDAT ??_C@_0CM@HICHPLFK@void?5ioFileWriteClient?3?3NextUplo@
CONST	SEGMENT
??_C@_0CM@HICHPLFK@void?5ioFileWriteClient?3?3NextUplo@ DB 'void ioFileWr'
	DB	'iteClient::NextUploadList - %s', 00H	; `string'
; Function compile flags: /Ogsp
; File d:\lost saga for developer\youtube\tutorial\source\src\lsclient\iofilewriteclient.cpp
CONST	ENDS
;	COMDAT ?NextUploadList@ioFileWriteClient@@QAEXXZ
_TEXT	SEGMENT
$T513129 = -4						; size = 4
?NextUploadList@ioFileWriteClient@@QAEXXZ PROC		; ioFileWriteClient::NextUploadList, COMDAT
; _this$ = ecx

; 682  : {	

  00000	55		 push	 ebp
  00001	8b ec		 mov	 ebp, esp
  00003	51		 push	 ecx
  00004	56		 push	 esi
  00005	57		 push	 edi
  00006	8b f9		 mov	 edi, ecx

; 683  : 	m_TempCustomFileList.erase( m_TempCustomFileList.begin() );

  00008	ff 77 54	 push	 DWORD PTR [edi+84]
  0000b	8d 45 fc	 lea	 eax, DWORD PTR $T513129[ebp]
  0000e	50		 push	 eax
  0000f	8d 4f 54	 lea	 ecx, DWORD PTR [edi+84]
  00012	e8 00 00 00 00	 call	 ?erase@?$vector@VioHashString@@V?$allocator@VioHashString@@@std@@@std@@QAE?AV?$_Vector_iterator@V?$_Vector_val@VioHashString@@V?$allocator@VioHashString@@@std@@@std@@@2@V?$_Vector_const_iterator@V?$_Vector_val@VioHashString@@V?$allocator@VioHashString@@@std@@@std@@@2@@Z ; std::vector<ioHashString,std::allocator<ioHashString> >::erase

; 684  : 	if ( m_TempCustomFileList.empty() )

  00017	8b 47 54	 mov	 eax, DWORD PTR [edi+84]
  0001a	3b 47 58	 cmp	 eax, DWORD PTR [edi+88]
  0001d	74 30		 je	 SHORT $LN1@NextUpload

; 685  : 		return;
; 686  : 
; 687  : 	m_TempState = TS_NEW;

  0001f	83 67 78 00	 and	 DWORD PTR [edi+120], 0

; 688  : 
; 689  : 	if( Help::CheckEnableTimeGapUser2( 1 ) )

  00023	6a 01		 push	 1
  00025	e8 00 00 00 00	 call	 ?CheckEnableTimeGapUser2@Help@@YA_NH@Z ; Help::CheckEnableTimeGapUser2
  0002a	59		 pop	 ecx
  0002b	84 c0		 test	 al, al
  0002d	74 20		 je	 SHORT $LN1@NextUpload

; 690  : 		LOG.PrintTimeAndLog( 0, "void ioFileWriteClient::NextUploadList - %s", m_TempCustomFileList[0].c_str() );

  0002f	8b 4f 54	 mov	 ecx, DWORD PTR [edi+84]
  00032	ff 15 00 00 00
	00		 call	 DWORD PTR __imp_?c_str@ioHashString@@QBEPBDXZ
  00038	50		 push	 eax
  00039	68 00 00 00 00	 push	 OFFSET ??_C@_0CM@HICHPLFK@void?5ioFileWriteClient?3?3NextUplo@
  0003e	6a 00		 push	 0
  00040	ff 35 00 00 00
	00		 push	 DWORD PTR __imp_?LOG@@3VCLog@@A
  00046	ff 15 00 00 00
	00		 call	 DWORD PTR __imp_?PrintTimeAndLog@CLog@@QAAXHPADZZ
  0004c	83 c4 10	 add	 esp, 16			; 00000010H
$LN1@NextUpload:
  0004f	5f		 pop	 edi
  00050	5e		 pop	 esi

; 691  : }

  00051	c9		 leave
  00052	c3		 ret	 0
?NextUploadList@ioFileWriteClient@@QAEXXZ ENDP		; ioFileWriteClient::NextUploadList
_TEXT	ENDS
PUBLIC	?_Reserve@?$vector@VioHashString@@V?$allocator@VioHashString@@@std@@@std@@IAEXI@Z ; std::vector<ioHashString,std::allocator<ioHashString> >::_Reserve
; Function compile flags: /Ogsp
; File c:\program files (x86)\microsoft visual studio 10.0\vc\include\vector
;	COMDAT ?_Reserve@?$vector@VioHashString@@V?$allocator@VioHashString@@@std@@@std@@IAEXI@Z
_TEXT	SEGMENT
__Count$ = 8						; size = 4
?_Reserve@?$vector@VioHashString@@V?$allocator@VioHashString@@@std@@@std@@IAEXI@Z PROC ; std::vector<ioHashString,std::allocator<ioHashString> >::_Reserve, COMDAT
; _this$ = ecx

; 1290 : 		{	// ensure room for _Count new elements, grow exponentially

  00000	55		 push	 ebp
  00001	8b ec		 mov	 ebp, esp
  00003	56		 push	 esi
  00004	8b f1		 mov	 esi, ecx

; 1291 : 		size_type _Size = size();

  00006	8b 0e		 mov	 ecx, DWORD PTR [esi]
  00008	8b 46 04	 mov	 eax, DWORD PTR [esi+4]
  0000b	2b c1		 sub	 eax, ecx

; 1292 : 		if (max_size() - _Count < _Size)

  0000d	ba ff ff ff 0f	 mov	 edx, 268435455		; 0fffffffH
  00012	2b 55 08	 sub	 edx, DWORD PTR __Count$[ebp]
  00015	c1 f8 04	 sar	 eax, 4
  00018	3b d0		 cmp	 edx, eax
  0001a	73 0b		 jae	 SHORT $LN4@Reserve

; 1293 : 			_Xlen();

  0001c	68 00 00 00 00	 push	 OFFSET ??_C@_0BD@OLBABOEK@vector?$DMT?$DO?5too?5long?$AA@
  00021	ff 15 00 00 00
	00		 call	 DWORD PTR __imp_?_Xlength_error@std@@YAXPBD@Z
$LN21@Reserve:
$LN4@Reserve:

; 1294 : 		else if ((_Size += _Count) <= capacity())

  00027	8b 56 08	 mov	 edx, DWORD PTR [esi+8]
  0002a	03 45 08	 add	 eax, DWORD PTR __Count$[ebp]
  0002d	2b d1		 sub	 edx, ecx
  0002f	c1 fa 04	 sar	 edx, 4
  00032	3b c2		 cmp	 eax, edx
  00034	76 10		 jbe	 SHORT $LN1@Reserve

; 1295 : 			;
; 1296 : 		else
; 1297 : 			reserve(_Grow_to(_Size));

  00036	50		 push	 eax
  00037	8b ce		 mov	 ecx, esi
  00039	e8 00 00 00 00	 call	 ?_Grow_to@?$vector@VioHashString@@V?$allocator@VioHashString@@@std@@@std@@IBEII@Z ; std::vector<ioHashString,std::allocator<ioHashString> >::_Grow_to
  0003e	50		 push	 eax
  0003f	8b ce		 mov	 ecx, esi
  00041	e8 00 00 00 00	 call	 ?reserve@?$vector@VioHashString@@V?$allocator@VioHashString@@@std@@@std@@QAEXI@Z ; std::vector<ioHashString,std::allocator<ioHashString> >::reserve
$LN1@Reserve:
  00046	5e		 pop	 esi

; 1298 : 		}

  00047	5d		 pop	 ebp
  00048	c2 04 00	 ret	 4
$LN20@Reserve:
?_Reserve@?$vector@VioHashString@@V?$allocator@VioHashString@@@std@@@std@@IAEXI@Z ENDP ; std::vector<ioHashString,std::allocator<ioHashString> >::_Reserve
_TEXT	ENDS
PUBLIC	??1?$vector@VioHashString@@V?$allocator@VioHashString@@@std@@@std@@QAE@XZ ; std::vector<ioHashString,std::allocator<ioHashString> >::~vector<ioHashString,std::allocator<ioHashString> >
; Function compile flags: /Ogsp
;	COMDAT ??1?$vector@VioHashString@@V?$allocator@VioHashString@@@std@@@std@@QAE@XZ
_TEXT	SEGMENT
??1?$vector@VioHashString@@V?$allocator@VioHashString@@@std@@@std@@QAE@XZ PROC ; std::vector<ioHashString,std::allocator<ioHashString> >::~vector<ioHashString,std::allocator<ioHashString> >, COMDAT
; _this$ = ecx

; 705  : 		_Tidy();

  00000	e9 00 00 00 00	 jmp	 ?_Tidy@?$vector@VioHashString@@V?$allocator@VioHashString@@@std@@@std@@IAEXXZ ; std::vector<ioHashString,std::allocator<ioHashString> >::_Tidy
??1?$vector@VioHashString@@V?$allocator@VioHashString@@@std@@@std@@QAE@XZ ENDP ; std::vector<ioHashString,std::allocator<ioHashString> >::~vector<ioHashString,std::allocator<ioHashString> >
_TEXT	ENDS
PUBLIC	?clear@?$vector@VioHashString@@V?$allocator@VioHashString@@@std@@@std@@QAEXXZ ; std::vector<ioHashString,std::allocator<ioHashString> >::clear
; Function compile flags: /Ogsp
;	COMDAT ?clear@?$vector@VioHashString@@V?$allocator@VioHashString@@@std@@@std@@QAEXXZ
_TEXT	SEGMENT
$T513206 = -4						; size = 4
?clear@?$vector@VioHashString@@V?$allocator@VioHashString@@@std@@@std@@QAEXXZ PROC ; std::vector<ioHashString,std::allocator<ioHashString> >::clear, COMDAT
; _this$ = ecx

; 1217 : 		{	// erase all

  00000	55		 push	 ebp
  00001	8b ec		 mov	 ebp, esp
  00003	51		 push	 ecx

; 1218 : 		erase(begin(), end());

  00004	8b 41 04	 mov	 eax, DWORD PTR [ecx+4]
  00007	8b 11		 mov	 edx, DWORD PTR [ecx]
  00009	50		 push	 eax
  0000a	52		 push	 edx
  0000b	8d 45 fc	 lea	 eax, DWORD PTR $T513206[ebp]
  0000e	50		 push	 eax
  0000f	e8 00 00 00 00	 call	 ?erase@?$vector@VioHashString@@V?$allocator@VioHashString@@@std@@@std@@QAE?AV?$_Vector_iterator@V?$_Vector_val@VioHashString@@V?$allocator@VioHashString@@@std@@@std@@@2@V?$_Vector_const_iterator@V?$_Vector_val@VioHashString@@V?$allocator@VioHashString@@@std@@@std@@@2@0@Z ; std::vector<ioHashString,std::allocator<ioHashString> >::erase

; 1219 : 		}

  00014	c9		 leave
  00015	c3		 ret	 0
?clear@?$vector@VioHashString@@V?$allocator@VioHashString@@@std@@@std@@QAEXXZ ENDP ; std::vector<ioHashString,std::allocator<ioHashString> >::clear
_TEXT	ENDS
PUBLIC	??_7ioFileWriteClient@@6B@			; ioFileWriteClient::`vftable'
PUBLIC	??0ioFileWriteClient@@QAE@XZ			; ioFileWriteClient::ioFileWriteClient
PUBLIC	??_R4ioFileWriteClient@@6B@			; ioFileWriteClient::`RTTI Complete Object Locator'
PUBLIC	??_R0?AVioFileWriteClient@@@8			; ioFileWriteClient `RTTI Type Descriptor'
PUBLIC	??_R3ioFileWriteClient@@8			; ioFileWriteClient::`RTTI Class Hierarchy Descriptor'
PUBLIC	??_R2ioFileWriteClient@@8			; ioFileWriteClient::`RTTI Base Class Array'
PUBLIC	??_R1A@?0A@EA@ioFileWriteClient@@8		; ioFileWriteClient::`RTTI Base Class Descriptor at (0,-1,0,64)'
PUBLIC	??_R13?0A@EA@?$Singleton@VioFileWriteClient@@@@8 ; Singleton<ioFileWriteClient>::`RTTI Base Class Descriptor at (4,-1,0,64)'
PUBLIC	??_R0?AV?$Singleton@VioFileWriteClient@@@@@8	; Singleton<ioFileWriteClient> `RTTI Type Descriptor'
PUBLIC	??_R3?$Singleton@VioFileWriteClient@@@@8	; Singleton<ioFileWriteClient>::`RTTI Class Hierarchy Descriptor'
PUBLIC	??_R2?$Singleton@VioFileWriteClient@@@@8	; Singleton<ioFileWriteClient>::`RTTI Base Class Array'
PUBLIC	??_R1A@?0A@EA@?$Singleton@VioFileWriteClient@@@@8 ; Singleton<ioFileWriteClient>::`RTTI Base Class Descriptor at (0,-1,0,64)'
EXTRN	__imp_??0ioHashString@@QAE@XZ:PROC
EXTRN	??_EioFileWriteClient@@UAEPAXI@Z:PROC		; ioFileWriteClient::`vector deleting destructor'
;	COMDAT ??_R1A@?0A@EA@?$Singleton@VioFileWriteClient@@@@8
; File c:\program files (x86)\microsoft visual studio 10.0\vc\include\xmemory
rdata$r	SEGMENT
??_R1A@?0A@EA@?$Singleton@VioFileWriteClient@@@@8 DD FLAT:??_R0?AV?$Singleton@VioFileWriteClient@@@@@8 ; Singleton<ioFileWriteClient>::`RTTI Base Class Descriptor at (0,-1,0,64)'
	DD	00H
	DD	00H
	DD	0ffffffffH
	DD	00H
	DD	040H
	DD	FLAT:??_R3?$Singleton@VioFileWriteClient@@@@8
rdata$r	ENDS
;	COMDAT ??_R2?$Singleton@VioFileWriteClient@@@@8
rdata$r	SEGMENT
??_R2?$Singleton@VioFileWriteClient@@@@8 DD FLAT:??_R1A@?0A@EA@?$Singleton@VioFileWriteClient@@@@8 ; Singleton<ioFileWriteClient>::`RTTI Base Class Array'
rdata$r	ENDS
;	COMDAT ??_R3?$Singleton@VioFileWriteClient@@@@8
rdata$r	SEGMENT
??_R3?$Singleton@VioFileWriteClient@@@@8 DD 00H		; Singleton<ioFileWriteClient>::`RTTI Class Hierarchy Descriptor'
	DD	00H
	DD	01H
	DD	FLAT:??_R2?$Singleton@VioFileWriteClient@@@@8
rdata$r	ENDS
;	COMDAT ??_R0?AV?$Singleton@VioFileWriteClient@@@@@8
_DATA	SEGMENT
??_R0?AV?$Singleton@VioFileWriteClient@@@@@8 DD FLAT:??_7type_info@@6B@ ; Singleton<ioFileWriteClient> `RTTI Type Descriptor'
	DD	00H
	DB	'.?AV?$Singleton@VioFileWriteClient@@@@', 00H
_DATA	ENDS
;	COMDAT ??_R13?0A@EA@?$Singleton@VioFileWriteClient@@@@8
rdata$r	SEGMENT
??_R13?0A@EA@?$Singleton@VioFileWriteClient@@@@8 DD FLAT:??_R0?AV?$Singleton@VioFileWriteClient@@@@@8 ; Singleton<ioFileWriteClient>::`RTTI Base Class Descriptor at (4,-1,0,64)'
	DD	00H
	DD	04H
	DD	0ffffffffH
	DD	00H
	DD	040H
	DD	FLAT:??_R3?$Singleton@VioFileWriteClient@@@@8
rdata$r	ENDS
;	COMDAT ??_R1A@?0A@EA@ioFileWriteClient@@8
rdata$r	SEGMENT
??_R1A@?0A@EA@ioFileWriteClient@@8 DD FLAT:??_R0?AVioFileWriteClient@@@8 ; ioFileWriteClient::`RTTI Base Class Descriptor at (0,-1,0,64)'
	DD	01H
	DD	00H
	DD	0ffffffffH
	DD	00H
	DD	040H
	DD	FLAT:??_R3ioFileWriteClient@@8
rdata$r	ENDS
;	COMDAT ??_R2ioFileWriteClient@@8
rdata$r	SEGMENT
??_R2ioFileWriteClient@@8 DD FLAT:??_R1A@?0A@EA@ioFileWriteClient@@8 ; ioFileWriteClient::`RTTI Base Class Array'
	DD	FLAT:??_R13?0A@EA@?$Singleton@VioFileWriteClient@@@@8
rdata$r	ENDS
;	COMDAT ??_R3ioFileWriteClient@@8
rdata$r	SEGMENT
??_R3ioFileWriteClient@@8 DD 00H			; ioFileWriteClient::`RTTI Class Hierarchy Descriptor'
	DD	00H
	DD	02H
	DD	FLAT:??_R2ioFileWriteClient@@8
rdata$r	ENDS
;	COMDAT ??_R0?AVioFileWriteClient@@@8
_DATA	SEGMENT
??_R0?AVioFileWriteClient@@@8 DD FLAT:??_7type_info@@6B@ ; ioFileWriteClient `RTTI Type Descriptor'
	DD	00H
	DB	'.?AVioFileWriteClient@@', 00H
_DATA	ENDS
;	COMDAT ??_R4ioFileWriteClient@@6B@
rdata$r	SEGMENT
??_R4ioFileWriteClient@@6B@ DD 00H			; ioFileWriteClient::`RTTI Complete Object Locator'
	DD	00H
	DD	00H
	DD	FLAT:??_R0?AVioFileWriteClient@@@8
	DD	FLAT:??_R3ioFileWriteClient@@8
rdata$r	ENDS
;	COMDAT ??_7ioFileWriteClient@@6B@
CONST	SEGMENT
??_7ioFileWriteClient@@6B@ DD FLAT:??_R4ioFileWriteClient@@6B@ ; ioFileWriteClient::`vftable'
	DD	FLAT:??_EioFileWriteClient@@UAEPAXI@Z
CONST	ENDS
;	COMDAT xdata$x
xdata$x	SEGMENT
__ehfuncinfo$??0ioFileWriteClient@@QAE@XZ DD 019930522H
	DD	06H
	DD	FLAT:__unwindtable$??0ioFileWriteClient@@QAE@XZ
	DD	2 DUP(00H)
	DD	2 DUP(00H)
	DD	00H
	DD	01H
__unwindtable$??0ioFileWriteClient@@QAE@XZ DD 0ffffffffH
	DD	FLAT:__unwindfunclet$??0ioFileWriteClient@@QAE@XZ$0
	DD	00H
	DD	FLAT:__unwindfunclet$??0ioFileWriteClient@@QAE@XZ$1
	DD	01H
	DD	FLAT:__unwindfunclet$??0ioFileWriteClient@@QAE@XZ$2
	DD	02H
	DD	FLAT:__unwindfunclet$??0ioFileWriteClient@@QAE@XZ$3
	DD	03H
	DD	FLAT:__unwindfunclet$??0ioFileWriteClient@@QAE@XZ$4
	DD	04H
	DD	FLAT:__unwindfunclet$??0ioFileWriteClient@@QAE@XZ$5
; Function compile flags: /Ogsp
; File d:\lost saga for developer\youtube\tutorial\source\src\lsclient\iofilewriteclient.cpp
xdata$x	ENDS
;	COMDAT ??0ioFileWriteClient@@QAE@XZ
_TEXT	SEGMENT
$T513260 = -20						; size = 4
_this$ = -16						; size = 4
__$EHRec$ = -12						; size = 12
??0ioFileWriteClient@@QAE@XZ PROC			; ioFileWriteClient::ioFileWriteClient, COMDAT
; _this$ = ecx

; 82   : {

  00000	6a 08		 push	 8
  00002	b8 00 00 00 00	 mov	 eax, __ehhandler$??0ioFileWriteClient@@QAE@XZ
  00007	e8 00 00 00 00	 call	 __EH_prolog3
  0000c	8b f1		 mov	 esi, ecx
  0000e	89 75 f0	 mov	 DWORD PTR _this$[ebp], esi
  00011	8b c6		 mov	 eax, esi
  00013	a3 00 00 00 00	 mov	 DWORD PTR ?ms_Singleton@?$Singleton@VioFileWriteClient@@@@1PAVioFileWriteClient@@A, eax ; Singleton<ioFileWriteClient>::ms_Singleton
  00018	8b 1d 00 00 00
	00		 mov	 ebx, DWORD PTR __imp_??0ioHashString@@QAE@XZ
  0001e	33 ff		 xor	 edi, edi
  00020	8d 4e 1c	 lea	 ecx, DWORD PTR [esi+28]
  00023	89 7d fc	 mov	 DWORD PTR __$EHRec$[ebp+8], edi
  00026	c7 06 00 00 00
	00		 mov	 DWORD PTR [esi], OFFSET ??_7ioFileWriteClient@@6B@
  0002c	ff d3		 call	 ebx
  0002e	8d 4e 34	 lea	 ecx, DWORD PTR [esi+52]
  00031	c6 45 fc 01	 mov	 BYTE PTR __$EHRec$[ebp+8], 1
  00035	ff d3		 call	 ebx
  00037	89 7e 54	 mov	 DWORD PTR [esi+84], edi
  0003a	89 7e 58	 mov	 DWORD PTR [esi+88], edi
  0003d	89 7e 5c	 mov	 DWORD PTR [esi+92], edi
  00040	8d 4e 68	 lea	 ecx, DWORD PTR [esi+104]
  00043	c6 45 fc 03	 mov	 BYTE PTR __$EHRec$[ebp+8], 3
  00047	ff d3		 call	 ebx

; 83   : 	m_dwWriteSendTime = 0;
; 84   : 	m_hFile           = NULL;
; 85   : 	m_dwFileSize      = 0;
; 86   : 	m_dwReadSize      = 0;
; 87   : 	m_dwFileCRC       = 0;
; 88   : 	m_pSocket         = NULL;
; 89   : 	m_iServerPort     = 0;
; 90   : 	m_dwReturnParentID= 0;
; 91   : 	m_dwReturnID      = 0;
; 92   : 	m_dwFileWidth     = 0;
; 93   : 	m_dwFileHeight    = 0;
; 94   : 	m_dwConnectCheckTime = 0;
; 95   : 
; 96   : 	m_pSocket  = new ioFileSocket( WM_FILESOCKET );

  00049	68 30 01 00 00	 push	 304			; 00000130H
  0004e	c6 45 fc 04	 mov	 BYTE PTR __$EHRec$[ebp+8], 4
  00052	89 7e 14	 mov	 DWORD PTR [esi+20], edi
  00055	89 7e 08	 mov	 DWORD PTR [esi+8], edi
  00058	89 7e 0c	 mov	 DWORD PTR [esi+12], edi
  0005b	89 7e 10	 mov	 DWORD PTR [esi+16], edi
  0005e	89 7e 18	 mov	 DWORD PTR [esi+24], edi
  00061	89 7e 04	 mov	 DWORD PTR [esi+4], edi
  00064	89 7e 44	 mov	 DWORD PTR [esi+68], edi
  00067	89 7e 48	 mov	 DWORD PTR [esi+72], edi
  0006a	89 7e 4c	 mov	 DWORD PTR [esi+76], edi
  0006d	89 7e 2c	 mov	 DWORD PTR [esi+44], edi
  00070	89 7e 30	 mov	 DWORD PTR [esi+48], edi
  00073	89 7e 50	 mov	 DWORD PTR [esi+80], edi
  00076	e8 00 00 00 00	 call	 ??2@YAPAXI@Z		; operator new
  0007b	59		 pop	 ecx
  0007c	8b c8		 mov	 ecx, eax
  0007e	89 4d ec	 mov	 DWORD PTR $T513260[ebp], ecx
  00081	c6 45 fc 05	 mov	 BYTE PTR __$EHRec$[ebp+8], 5
  00085	3b cf		 cmp	 ecx, edi
  00087	74 0c		 je	 SHORT $LN3@ioFileWrit
  00089	68 0d 04 00 00	 push	 1037			; 0000040dH
  0008e	e8 00 00 00 00	 call	 ??0ioFileSocket@@QAE@K@Z ; ioFileSocket::ioFileSocket
  00093	eb 02		 jmp	 SHORT $LN4@ioFileWrit
$LN3@ioFileWrit:
  00095	33 c0		 xor	 eax, eax
$LN4@ioFileWrit:
  00097	89 46 04	 mov	 DWORD PTR [esi+4], eax

; 97   : }

  0009a	8b c6		 mov	 eax, esi
  0009c	e8 00 00 00 00	 call	 __EH_epilog3
  000a1	c3		 ret	 0
_TEXT	ENDS
;	COMDAT text$x
text$x	SEGMENT
__unwindfunclet$??0ioFileWriteClient@@QAE@XZ$0:
  00000	8b 4d f0	 mov	 ecx, DWORD PTR _this$[ebp]
  00003	83 c1 04	 add	 ecx, 4
  00006	e9 00 00 00 00	 jmp	 ??1?$Singleton@VioFileWriteClient@@@@QAE@XZ ; Singleton<ioFileWriteClient>::~Singleton<ioFileWriteClient>
__unwindfunclet$??0ioFileWriteClient@@QAE@XZ$1:
  0000b	8b 4d f0	 mov	 ecx, DWORD PTR _this$[ebp]
  0000e	83 c1 1c	 add	 ecx, 28			; 0000001cH
  00011	ff 25 00 00 00
	00		 jmp	 DWORD PTR __imp_??1ioHashString@@QAE@XZ
__unwindfunclet$??0ioFileWriteClient@@QAE@XZ$2:
  00017	8b 4d f0	 mov	 ecx, DWORD PTR _this$[ebp]
  0001a	83 c1 34	 add	 ecx, 52			; 00000034H
  0001d	ff 25 00 00 00
	00		 jmp	 DWORD PTR __imp_??1ioHashString@@QAE@XZ
__unwindfunclet$??0ioFileWriteClient@@QAE@XZ$3:
  00023	8b 4d f0	 mov	 ecx, DWORD PTR _this$[ebp]
  00026	83 c1 54	 add	 ecx, 84			; 00000054H
  00029	e9 00 00 00 00	 jmp	 ??1?$vector@VioHashString@@V?$allocator@VioHashString@@@std@@@std@@QAE@XZ ; std::vector<ioHashString,std::allocator<ioHashString> >::~vector<ioHashString,std::allocator<ioHashString> >
__unwindfunclet$??0ioFileWriteClient@@QAE@XZ$4:
  0002e	8b 4d f0	 mov	 ecx, DWORD PTR _this$[ebp]
  00031	83 c1 68	 add	 ecx, 104		; 00000068H
  00034	ff 25 00 00 00
	00		 jmp	 DWORD PTR __imp_??1ioHashString@@QAE@XZ
__unwindfunclet$??0ioFileWriteClient@@QAE@XZ$5:
  0003a	ff 75 ec	 push	 DWORD PTR $T513260[ebp]
  0003d	e8 00 00 00 00	 call	 ??3@YAXPAX@Z		; operator delete
  00042	59		 pop	 ecx
  00043	c3		 ret	 0
__ehhandler$??0ioFileWriteClient@@QAE@XZ:
  00044	8b 54 24 08	 mov	 edx, DWORD PTR [esp+8]
  00048	8d 42 0c	 lea	 eax, DWORD PTR [edx+12]
  0004b	8b 4a e8	 mov	 ecx, DWORD PTR [edx-24]
  0004e	33 c8		 xor	 ecx, eax
  00050	e8 00 00 00 00	 call	 @__security_check_cookie@4
  00055	b8 00 00 00 00	 mov	 eax, OFFSET __ehfuncinfo$??0ioFileWriteClient@@QAE@XZ
  0005a	e9 00 00 00 00	 jmp	 ___CxxFrameHandler3
text$x	ENDS
??0ioFileWriteClient@@QAE@XZ ENDP			; ioFileWriteClient::ioFileWriteClient
PUBLIC	??1ioFileWriteClient@@UAE@XZ			; ioFileWriteClient::~ioFileWriteClient
;	COMDAT xdata$x
; File d:\lost saga for developer\youtube\tutorial\source\src\io3dengine\iosingleton.h
xdata$x	SEGMENT
__ehfuncinfo$??1ioFileWriteClient@@UAE@XZ DD 019930522H
	DD	05H
	DD	FLAT:__unwindtable$??1ioFileWriteClient@@UAE@XZ
	DD	2 DUP(00H)
	DD	2 DUP(00H)
	DD	00H
	DD	01H
__unwindtable$??1ioFileWriteClient@@UAE@XZ DD 0ffffffffH
	DD	FLAT:__unwindfunclet$??1ioFileWriteClient@@UAE@XZ$0
	DD	00H
	DD	FLAT:__unwindfunclet$??1ioFileWriteClient@@UAE@XZ$1
	DD	01H
	DD	FLAT:__unwindfunclet$??1ioFileWriteClient@@UAE@XZ$2
	DD	02H
	DD	FLAT:__unwindfunclet$??1ioFileWriteClient@@UAE@XZ$3
	DD	03H
	DD	FLAT:__unwindfunclet$??1ioFileWriteClient@@UAE@XZ$4
; Function compile flags: /Ogsp
; File d:\lost saga for developer\youtube\tutorial\source\src\lsclient\iofilewriteclient.cpp
xdata$x	ENDS
;	COMDAT ??1ioFileWriteClient@@UAE@XZ
_TEXT	SEGMENT
$T513382 = -20						; size = 4
_this$ = -16						; size = 4
__$EHRec$ = -12						; size = 12
??1ioFileWriteClient@@UAE@XZ PROC			; ioFileWriteClient::~ioFileWriteClient, COMDAT
; _this$ = ecx

; 100  : {

  00000	6a 08		 push	 8
  00002	b8 00 00 00 00	 mov	 eax, __ehhandler$??1ioFileWriteClient@@UAE@XZ
  00007	e8 00 00 00 00	 call	 __EH_prolog3
  0000c	8b f1		 mov	 esi, ecx
  0000e	89 75 f0	 mov	 DWORD PTR _this$[ebp], esi
  00011	c7 06 00 00 00
	00		 mov	 DWORD PTR [esi], OFFSET ??_7ioFileWriteClient@@6B@

; 101  : 	SAFEDELETE( m_pSocket );

  00017	8b 4e 04	 mov	 ecx, DWORD PTR [esi+4]
  0001a	c7 45 fc 04 00
	00 00		 mov	 DWORD PTR __$EHRec$[ebp+8], 4
  00021	85 c9		 test	 ecx, ecx
  00023	74 0b		 je	 SHORT $LN2@ioFileWrit@2
  00025	8b 01		 mov	 eax, DWORD PTR [ecx]
  00027	6a 01		 push	 1
  00029	ff 50 18	 call	 DWORD PTR [eax+24]
  0002c	83 66 04 00	 and	 DWORD PTR [esi+4], 0
$LN2@ioFileWrit@2:

; 102  : 	if( m_hFile )

  00030	8b 46 08	 mov	 eax, DWORD PTR [esi+8]
  00033	85 c0		 test	 eax, eax
  00035	74 0b		 je	 SHORT $LN1@ioFileWrit@2

; 103  : 	{
; 104  : 		CloseHandle( m_hFile );

  00037	50		 push	 eax
  00038	ff 15 00 00 00
	00		 call	 DWORD PTR __imp__CloseHandle@4

; 105  : 		m_hFile = NULL;

  0003e	83 66 08 00	 and	 DWORD PTR [esi+8], 0
$LN1@ioFileWrit@2:

; 106  : 	}
; 107  : 	m_TempCustomFileList.clear();

  00042	8b 46 58	 mov	 eax, DWORD PTR [esi+88]
  00045	8b 4e 54	 mov	 ecx, DWORD PTR [esi+84]
  00048	50		 push	 eax
  00049	51		 push	 ecx
  0004a	8d 45 ec	 lea	 eax, DWORD PTR $T513382[ebp]
  0004d	50		 push	 eax
  0004e	8d 4e 54	 lea	 ecx, DWORD PTR [esi+84]
  00051	e8 00 00 00 00	 call	 ?erase@?$vector@VioHashString@@V?$allocator@VioHashString@@@std@@@std@@QAE?AV?$_Vector_iterator@V?$_Vector_val@VioHashString@@V?$allocator@VioHashString@@@std@@@std@@@2@V?$_Vector_const_iterator@V?$_Vector_val@VioHashString@@V?$allocator@VioHashString@@@std@@@std@@@2@0@Z ; std::vector<ioHashString,std::allocator<ioHashString> >::erase

; 108  : }

  00056	8b 3d 00 00 00
	00		 mov	 edi, DWORD PTR __imp_??1ioHashString@@QAE@XZ
  0005c	8d 4e 68	 lea	 ecx, DWORD PTR [esi+104]
  0005f	c6 45 fc 03	 mov	 BYTE PTR __$EHRec$[ebp+8], 3
  00063	ff d7		 call	 edi
  00065	8d 4e 54	 lea	 ecx, DWORD PTR [esi+84]
  00068	c6 45 fc 02	 mov	 BYTE PTR __$EHRec$[ebp+8], 2
  0006c	e8 00 00 00 00	 call	 ?_Tidy@?$vector@VioHashString@@V?$allocator@VioHashString@@@std@@@std@@IAEXXZ ; std::vector<ioHashString,std::allocator<ioHashString> >::_Tidy
  00071	8d 4e 34	 lea	 ecx, DWORD PTR [esi+52]
  00074	c6 45 fc 01	 mov	 BYTE PTR __$EHRec$[ebp+8], 1
  00078	ff d7		 call	 edi
  0007a	8d 4e 1c	 lea	 ecx, DWORD PTR [esi+28]
  0007d	c6 45 fc 00	 mov	 BYTE PTR __$EHRec$[ebp+8], 0
  00081	ff d7		 call	 edi
  00083	83 25 00 00 00
	00 00		 and	 DWORD PTR ?ms_Singleton@?$Singleton@VioFileWriteClient@@@@1PAVioFileWriteClient@@A, 0 ; Singleton<ioFileWriteClient>::ms_Singleton
  0008a	e8 00 00 00 00	 call	 __EH_epilog3
  0008f	c3		 ret	 0
_TEXT	ENDS
;	COMDAT text$x
text$x	SEGMENT
__unwindfunclet$??1ioFileWriteClient@@UAE@XZ$0:
  00000	8b 4d f0	 mov	 ecx, DWORD PTR _this$[ebp]
  00003	83 c1 04	 add	 ecx, 4
  00006	e9 00 00 00 00	 jmp	 ??1?$Singleton@VioFileWriteClient@@@@QAE@XZ ; Singleton<ioFileWriteClient>::~Singleton<ioFileWriteClient>
__unwindfunclet$??1ioFileWriteClient@@UAE@XZ$1:
  0000b	8b 4d f0	 mov	 ecx, DWORD PTR _this$[ebp]
  0000e	83 c1 1c	 add	 ecx, 28			; 0000001cH
  00011	ff 25 00 00 00
	00		 jmp	 DWORD PTR __imp_??1ioHashString@@QAE@XZ
__unwindfunclet$??1ioFileWriteClient@@UAE@XZ$2:
  00017	8b 4d f0	 mov	 ecx, DWORD PTR _this$[ebp]
  0001a	83 c1 34	 add	 ecx, 52			; 00000034H
  0001d	ff 25 00 00 00
	00		 jmp	 DWORD PTR __imp_??1ioHashString@@QAE@XZ
__unwindfunclet$??1ioFileWriteClient@@UAE@XZ$3:
  00023	8b 4d f0	 mov	 ecx, DWORD PTR _this$[ebp]
  00026	83 c1 54	 add	 ecx, 84			; 00000054H
  00029	e9 00 00 00 00	 jmp	 ??1?$vector@VioHashString@@V?$allocator@VioHashString@@@std@@@std@@QAE@XZ ; std::vector<ioHashString,std::allocator<ioHashString> >::~vector<ioHashString,std::allocator<ioHashString> >
__unwindfunclet$??1ioFileWriteClient@@UAE@XZ$4:
  0002e	8b 4d f0	 mov	 ecx, DWORD PTR _this$[ebp]
  00031	83 c1 68	 add	 ecx, 104		; 00000068H
  00034	ff 25 00 00 00
	00		 jmp	 DWORD PTR __imp_??1ioHashString@@QAE@XZ
__ehhandler$??1ioFileWriteClient@@UAE@XZ:
  0003a	8b 54 24 08	 mov	 edx, DWORD PTR [esp+8]
  0003e	8d 42 0c	 lea	 eax, DWORD PTR [edx+12]
  00041	8b 4a e8	 mov	 ecx, DWORD PTR [edx-24]
  00044	33 c8		 xor	 ecx, eax
  00046	e8 00 00 00 00	 call	 @__security_check_cookie@4
  0004b	b8 00 00 00 00	 mov	 eax, OFFSET __ehfuncinfo$??1ioFileWriteClient@@UAE@XZ
  00050	e9 00 00 00 00	 jmp	 ___CxxFrameHandler3
text$x	ENDS
??1ioFileWriteClient@@UAE@XZ ENDP			; ioFileWriteClient::~ioFileWriteClient
PUBLIC	??_C@_0CJ@IGELHGDI@void?5ioFileWriteClient?3?3ProcessT@ ; `string'
PUBLIC	?ProcessTemp@ioFileWriteClient@@QAEXXZ		; ioFileWriteClient::ProcessTemp
;	COMDAT ??_C@_0CJ@IGELHGDI@void?5ioFileWriteClient?3?3ProcessT@
; File c:\program files (x86)\microsoft visual studio 10.0\vc\include\vector
CONST	SEGMENT
??_C@_0CJ@IGELHGDI@void?5ioFileWriteClient?3?3ProcessT@ DB 'void ioFileWr'
	DB	'iteClient::ProcessTemp - %s', 00H		; `string'
; Function compile flags: /Ogsp
; File d:\lost saga for developer\youtube\tutorial\source\src\lsclient\iofilewriteclient.cpp
CONST	ENDS
;	COMDAT ?ProcessTemp@ioFileWriteClient@@QAEXXZ
_TEXT	SEGMENT
?ProcessTemp@ioFileWriteClient@@QAEXXZ PROC		; ioFileWriteClient::ProcessTemp, COMDAT
; _this$ = ecx

; 596  : {

  00000	56		 push	 esi
  00001	8b f1		 mov	 esi, ecx

; 597  : 	if ( m_TempCustomFileList.empty() || !m_bSetTempUpload )

  00003	8b 46 54	 mov	 eax, DWORD PTR [esi+84]
  00006	3b 46 58	 cmp	 eax, DWORD PTR [esi+88]
  00009	74 67		 je	 SHORT $LN3@ProcessTem@2
  0000b	80 7e 7d 00	 cmp	 BYTE PTR [esi+125], 0
  0000f	74 61		 je	 SHORT $LN3@ProcessTem@2

; 598  : 		return;
; 599  : 
; 600  : 	switch ( m_TempState )

  00011	8b 46 78	 mov	 eax, DWORD PTR [esi+120]
  00014	83 e8 00	 sub	 eax, 0
  00017	74 12		 je	 SHORT $LN4@ProcessTem@2
  00019	48		 dec	 eax
  0001a	74 09		 je	 SHORT $LN2@ProcessTem@2
  0001c	48		 dec	 eax
  0001d	75 53		 jne	 SHORT $LN3@ProcessTem@2
  0001f	5e		 pop	 esi

; 611  : 		break;
; 612  : 	case TS_END:
; 613  : 		NextUploadList();

  00020	e9 00 00 00 00	 jmp	 ?NextUploadList@ioFileWriteClient@@QAEXXZ ; ioFileWriteClient::NextUploadList
$LN2@ProcessTem@2:
  00025	5e		 pop	 esi

; 608  : 		break;
; 609  : 	case TS_SEND:
; 610  : 		ProcessTempSend();

  00026	e9 00 00 00 00	 jmp	 ?ProcessTempSend@ioFileWriteClient@@QAEXXZ ; ioFileWriteClient::ProcessTempSend
$LN4@ProcessTem@2:

; 601  : 	{
; 602  : 	case TS_NEW:
; 603  : 		TempStart( m_TempCustomFileList[0].c_str(), 1000000 );

  0002b	8b 4e 54	 mov	 ecx, DWORD PTR [esi+84]
  0002e	68 40 42 0f 00	 push	 1000000			; 000f4240H
  00033	ff 15 00 00 00
	00		 call	 DWORD PTR __imp_?c_str@ioHashString@@QBEPBDXZ
  00039	50		 push	 eax
  0003a	8b ce		 mov	 ecx, esi
  0003c	e8 00 00 00 00	 call	 ?TempStart@ioFileWriteClient@@QAE_NPBDK@Z ; ioFileWriteClient::TempStart

; 604  : 		m_TempState = TS_SEND;

  00041	33 c0		 xor	 eax, eax
  00043	40		 inc	 eax

; 605  : 
; 606  : 		if( Help::CheckEnableTimeGapUser2( 1 ) )

  00044	50		 push	 eax
  00045	89 46 78	 mov	 DWORD PTR [esi+120], eax
  00048	e8 00 00 00 00	 call	 ?CheckEnableTimeGapUser2@Help@@YA_NH@Z ; Help::CheckEnableTimeGapUser2
  0004d	59		 pop	 ecx
  0004e	84 c0		 test	 al, al
  00050	74 20		 je	 SHORT $LN3@ProcessTem@2

; 607  : 			LOG.PrintTimeAndLog( 0, "void ioFileWriteClient::ProcessTemp - %s", m_TempCustomFileList[0].c_str() );

  00052	8b 4e 54	 mov	 ecx, DWORD PTR [esi+84]
  00055	ff 15 00 00 00
	00		 call	 DWORD PTR __imp_?c_str@ioHashString@@QBEPBDXZ
  0005b	50		 push	 eax
  0005c	68 00 00 00 00	 push	 OFFSET ??_C@_0CJ@IGELHGDI@void?5ioFileWriteClient?3?3ProcessT@
  00061	6a 00		 push	 0
  00063	ff 35 00 00 00
	00		 push	 DWORD PTR __imp_?LOG@@3VCLog@@A
  00069	ff 15 00 00 00
	00		 call	 DWORD PTR __imp_?PrintTimeAndLog@CLog@@QAAXHPADZZ
  0006f	83 c4 10	 add	 esp, 16			; 00000010H
$LN3@ProcessTem@2:
  00072	5e		 pop	 esi

; 614  : 		break;
; 615  : 	}
; 616  : }

  00073	c3		 ret	 0
?ProcessTemp@ioFileWriteClient@@QAEXXZ ENDP		; ioFileWriteClient::ProcessTemp
_TEXT	ENDS
PUBLIC	?push_back@?$vector@VioHashString@@V?$allocator@VioHashString@@@std@@@std@@QAEXABVioHashString@@@Z ; std::vector<ioHashString,std::allocator<ioHashString> >::push_back
; Function compile flags: /Ogsp
; File c:\program files (x86)\microsoft visual studio 10.0\vc\include\vector
;	COMDAT ?push_back@?$vector@VioHashString@@V?$allocator@VioHashString@@@std@@@std@@QAEXABVioHashString@@@Z
_TEXT	SEGMENT
__Val$ = 8						; size = 4
?push_back@?$vector@VioHashString@@V?$allocator@VioHashString@@@std@@@std@@QAEXABVioHashString@@@Z PROC ; std::vector<ioHashString,std::allocator<ioHashString> >::push_back, COMDAT
; _this$ = ecx

; 976  : 		{	// insert element at end

  00000	55		 push	 ebp
  00001	8b ec		 mov	 ebp, esp
  00003	56		 push	 esi
  00004	8b f1		 mov	 esi, ecx

; 977  : 		if (_Inside(_STD addressof(_Val)))

  00006	8b 46 04	 mov	 eax, DWORD PTR [esi+4]
  00009	57		 push	 edi
  0000a	8b 7d 08	 mov	 edi, DWORD PTR __Val$[ebp]
  0000d	3b f8		 cmp	 edi, eax
  0000f	73 29		 jae	 SHORT $LN4@push_back
  00011	8b 0e		 mov	 ecx, DWORD PTR [esi]
  00013	3b cf		 cmp	 ecx, edi
  00015	77 23		 ja	 SHORT $LN4@push_back

; 978  : 			{	// push back an element
; 979  : 			size_type _Idx = _STD addressof(_Val) - this->_Myfirst;

  00017	2b f9		 sub	 edi, ecx

; 980  : 			if (this->_Mylast == this->_Myend)

  00019	3b 46 08	 cmp	 eax, DWORD PTR [esi+8]
  0001c	75 09		 jne	 SHORT $LN3@push_back

; 981  : 				_Reserve(1);

  0001e	6a 01		 push	 1
  00020	8b ce		 mov	 ecx, esi
  00022	e8 00 00 00 00	 call	 ?_Reserve@?$vector@VioHashString@@V?$allocator@VioHashString@@@std@@@std@@IAEXI@Z ; std::vector<ioHashString,std::allocator<ioHashString> >::_Reserve
$LN3@push_back:

; 982  : 			_Orphan_range(this->_Mylast, this->_Mylast);
; 983  : 			_Cons_val(this->_Alval,
; 984  : 				this->_Mylast,
; 985  : 				this->_Myfirst[_Idx]);

  00027	83 e7 f0	 and	 edi, -16		; fffffff0H
  0002a	03 3e		 add	 edi, DWORD PTR [esi]
  0002c	8d 4e 0c	 lea	 ecx, DWORD PTR [esi+12]
  0002f	57		 push	 edi
  00030	ff 76 04	 push	 DWORD PTR [esi+4]
  00033	e8 00 00 00 00	 call	 ??$construct@AAVioHashString@@@?$allocator@VioHashString@@@std@@QAEXPAVioHashString@@AAV2@@Z ; std::allocator<ioHashString>::construct<ioHashString &>

; 986  : 			++this->_Mylast;
; 987  : 			}
; 988  : 		else

  00038	eb 19		 jmp	 SHORT $LN30@push_back
$LN4@push_back:

; 989  : 			{	// push back a non-element
; 990  : 			if (this->_Mylast == this->_Myend)

  0003a	3b 46 08	 cmp	 eax, DWORD PTR [esi+8]
  0003d	75 09		 jne	 SHORT $LN1@push_back

; 991  : 				_Reserve(1);

  0003f	6a 01		 push	 1
  00041	8b ce		 mov	 ecx, esi
  00043	e8 00 00 00 00	 call	 ?_Reserve@?$vector@VioHashString@@V?$allocator@VioHashString@@@std@@@std@@IAEXI@Z ; std::vector<ioHashString,std::allocator<ioHashString> >::_Reserve
$LN1@push_back:

; 992  : 			_Orphan_range(this->_Mylast, this->_Mylast);
; 993  : 			_Cons_val(this->_Alval,
; 994  : 				this->_Mylast,
; 995  : 				_Val);

  00048	57		 push	 edi
  00049	ff 76 04	 push	 DWORD PTR [esi+4]
  0004c	e8 00 00 00 00	 call	 ??$_Construct@VioHashString@@ABV1@@std@@YAXPAVioHashString@@ABV1@@Z ; std::_Construct<ioHashString,ioHashString const &>
  00051	59		 pop	 ecx
  00052	59		 pop	 ecx
$LN30@push_back:

; 996  : 			++this->_Mylast;

  00053	83 46 04 10	 add	 DWORD PTR [esi+4], 16	; 00000010H
  00057	5f		 pop	 edi
  00058	5e		 pop	 esi

; 997  : 			}
; 998  : 		}

  00059	5d		 pop	 ebp
  0005a	c2 04 00	 ret	 4
?push_back@?$vector@VioHashString@@V?$allocator@VioHashString@@@std@@@std@@QAEXABVioHashString@@@Z ENDP ; std::vector<ioHashString,std::allocator<ioHashString> >::push_back
; Function compile flags: /Ogsp
_TEXT	ENDS
;	COMDAT ??_GioFileWriteClient@@UAEPAXI@Z
_TEXT	SEGMENT
___flags$ = 8						; size = 4
??_GioFileWriteClient@@UAEPAXI@Z PROC			; ioFileWriteClient::`scalar deleting destructor', COMDAT
; _this$ = ecx
  00000	55		 push	 ebp
  00001	8b ec		 mov	 ebp, esp
  00003	56		 push	 esi
  00004	8b f1		 mov	 esi, ecx
  00006	e8 00 00 00 00	 call	 ??1ioFileWriteClient@@UAE@XZ ; ioFileWriteClient::~ioFileWriteClient
  0000b	f6 45 08 01	 test	 BYTE PTR ___flags$[ebp], 1
  0000f	74 07		 je	 SHORT $LN1@scalar@4
  00011	56		 push	 esi
  00012	e8 00 00 00 00	 call	 ??3@YAXPAX@Z		; operator delete
  00017	59		 pop	 ecx
$LN1@scalar@4:
  00018	8b c6		 mov	 eax, esi
  0001a	5e		 pop	 esi
  0001b	5d		 pop	 ebp
  0001c	c2 04 00	 ret	 4
??_GioFileWriteClient@@UAEPAXI@Z ENDP			; ioFileWriteClient::`scalar deleting destructor'
_TEXT	ENDS
PUBLIC	??_C@_0CJ@DIBCDPKO@void?5ioFileWriteClient?3?3CreateUp@ ; `string'
PUBLIC	??_C@_09CBAOACBL@?$CFd_?$CFd?4lsc?$AA@		; `string'
PUBLIC	?CreateUploadList@ioFileWriteClient@@QAEXAAV?$vector@KV?$allocator@K@std@@@std@@@Z ; ioFileWriteClient::CreateUploadList
EXTRN	__imp_??0ioHashString@@QAE@PBD@Z:PROC
;	COMDAT ??_C@_0CJ@DIBCDPKO@void?5ioFileWriteClient?3?3CreateUp@
CONST	SEGMENT
??_C@_0CJ@DIBCDPKO@void?5ioFileWriteClient?3?3CreateUp@ DB 'void ioFileWr'
	DB	'iteClient::CreateUploadList', 00H		; `string'
CONST	ENDS
;	COMDAT ??_C@_09CBAOACBL@?$CFd_?$CFd?4lsc?$AA@
CONST	SEGMENT
??_C@_09CBAOACBL@?$CFd_?$CFd?4lsc?$AA@ DB '%d_%d.lsc', 00H ; `string'
CONST	ENDS
;	COMDAT xdata$x
xdata$x	SEGMENT
__unwindtable$?CreateUploadList@ioFileWriteClient@@QAEXAAV?$vector@KV?$allocator@K@std@@@std@@@Z DD 0ffffffffH
	DD	FLAT:__unwindfunclet$?CreateUploadList@ioFileWriteClient@@QAEXAAV?$vector@KV?$allocator@K@std@@@std@@@Z$0
	DD	0ffffffffH
	DD	FLAT:__unwindfunclet$?CreateUploadList@ioFileWriteClient@@QAEXAAV?$vector@KV?$allocator@K@std@@@std@@@Z$1
__ehfuncinfo$?CreateUploadList@ioFileWriteClient@@QAEXAAV?$vector@KV?$allocator@K@std@@@std@@@Z DD 019930522H
	DD	02H
	DD	FLAT:__unwindtable$?CreateUploadList@ioFileWriteClient@@QAEXAAV?$vector@KV?$allocator@K@std@@@std@@@Z
	DD	2 DUP(00H)
	DD	2 DUP(00H)
	DD	00H
	DD	01H
; Function compile flags: /Ogsp
; File d:\lost saga for developer\youtube\tutorial\source\src\lsclient\iofilewriteclient.cpp
xdata$x	ENDS
;	COMDAT ?CreateUploadList@ioFileWriteClient@@QAEXAAV?$vector@KV?$allocator@K@std@@@std@@@Z
_TEXT	SEGMENT
$T513488 = -580						; size = 16
$T513487 = -564						; size = 16
tv309 = -548						; size = 4
$T513556 = -548						; size = 4
_i$507730 = -544					; size = 4
$T513486 = -537						; size = 1
_szPath$ = -536						; size = 260
_szName$ = -276						; size = 260
__$EHRec$ = -12						; size = 12
_dwCustomIdxList$ = 8					; size = 4
?CreateUploadList@ioFileWriteClient@@QAEXAAV?$vector@KV?$allocator@K@std@@@std@@@Z PROC ; ioFileWriteClient::CreateUploadList, COMDAT
; _this$ = ecx

; 475  : {

  00000	68 38 02 00 00	 push	 568			; 00000238H
  00005	b8 00 00 00 00	 mov	 eax, __ehhandler$?CreateUploadList@ioFileWriteClient@@QAEXAAV?$vector@KV?$allocator@K@std@@@std@@@Z
  0000a	e8 00 00 00 00	 call	 __EH_prolog3_GS
  0000f	8b 75 08	 mov	 esi, DWORD PTR _dwCustomIdxList$[ebp]

; 476  : 	if ( dwCustomIdxList.empty() )

  00012	8b 06		 mov	 eax, DWORD PTR [esi]
  00014	8b d9		 mov	 ebx, ecx
  00016	3b 46 04	 cmp	 eax, DWORD PTR [esi+4]
  00019	0f 84 84 01 00
	00		 je	 $LN1@CreateUplo

; 477  : 		return;
; 478  : 
; 479  : 	m_TempCustomFileList.clear();

  0001f	8d 4b 54	 lea	 ecx, DWORD PTR [ebx+84]
  00022	8b 41 04	 mov	 eax, DWORD PTR [ecx+4]
  00025	8b 11		 mov	 edx, DWORD PTR [ecx]
  00027	50		 push	 eax
  00028	52		 push	 edx
  00029	8d 85 dc fd ff
	ff		 lea	 eax, DWORD PTR $T513556[ebp]
  0002f	50		 push	 eax
  00030	e8 00 00 00 00	 call	 ?erase@?$vector@VioHashString@@V?$allocator@VioHashString@@@std@@@std@@QAE?AV?$_Vector_iterator@V?$_Vector_val@VioHashString@@V?$allocator@VioHashString@@@std@@@std@@@2@V?$_Vector_const_iterator@V?$_Vector_val@VioHashString@@V?$allocator@VioHashString@@@std@@@std@@@2@0@Z ; std::vector<ioHashString,std::allocator<ioHashString> >::erase

; 480  : 
; 481  : 	char szName[MAX_PATH] = "";

  00035	bf 03 01 00 00	 mov	 edi, 259		; 00000103H
  0003a	57		 push	 edi
  0003b	8d 85 ed fe ff
	ff		 lea	 eax, DWORD PTR _szName$[ebp+1]
  00041	6a 00		 push	 0
  00043	50		 push	 eax
  00044	c6 85 ec fe ff
	ff 00		 mov	 BYTE PTR _szName$[ebp], 0
  0004b	e8 00 00 00 00	 call	 _memset

; 482  : 	char szPath[MAX_PATH] = "";

  00050	57		 push	 edi
  00051	8d 85 e9 fd ff
	ff		 lea	 eax, DWORD PTR _szPath$[ebp+1]
  00057	6a 00		 push	 0
  00059	50		 push	 eax
  0005a	c6 85 e8 fd ff
	ff 00		 mov	 BYTE PTR _szPath$[ebp], 0
  00061	e8 00 00 00 00	 call	 _memset

; 483  : 	for ( int i=0; i<(int)dwCustomIdxList.size(); ++i )

  00066	8b 46 04	 mov	 eax, DWORD PTR [esi+4]
  00069	2b 06		 sub	 eax, DWORD PTR [esi]
  0006b	83 a5 e0 fd ff
	ff 00		 and	 DWORD PTR _i$507730[ebp], 0
  00072	83 c4 18	 add	 esp, 24			; 00000018H
  00075	a9 fc ff ff ff	 test	 eax, -4			; fffffffcH
  0007a	0f 8e fd 00 00
	00		 jle	 $LN6@CreateUplo
  00080	8b 3d 00 00 00
	00		 mov	 edi, DWORD PTR __imp__sprintf
$LL8@CreateUplo:

; 484  : 	{
; 485  : 		for ( int j=0; j<m_nMaxSubCnt; ++j )

  00086	33 c0		 xor	 eax, eax
  00088	39 43 64	 cmp	 DWORD PTR [ebx+100], eax
  0008b	0f 8e d2 00 00
	00		 jle	 $LN7@CreateUplo
$LN5@CreateUplo:

; 486  : 		{
; 487  : 			sprintf( szName, "%d_%d.lsc", dwCustomIdxList[i], j+1 );

  00091	8b 8d e0 fd ff
	ff		 mov	 ecx, DWORD PTR _i$507730[ebp]
  00097	40		 inc	 eax
  00098	50		 push	 eax
  00099	89 85 dc fd ff
	ff		 mov	 DWORD PTR tv309[ebp], eax
  0009f	8b 06		 mov	 eax, DWORD PTR [esi]
  000a1	ff 34 88	 push	 DWORD PTR [eax+ecx*4]
  000a4	8d 85 ec fe ff
	ff		 lea	 eax, DWORD PTR _szName$[ebp]
  000aa	68 00 00 00 00	 push	 OFFSET ??_C@_09CBAOACBL@?$CFd_?$CFd?4lsc?$AA@
  000af	50		 push	 eax
  000b0	ff d7		 call	 edi
  000b2	83 c4 10	 add	 esp, 16			; 00000010H

; 488  : 			sprintf( szPath, "%s%s", m_szTempUploadDir.c_str(), szName );

  000b5	8d 85 ec fe ff
	ff		 lea	 eax, DWORD PTR _szName$[ebp]
  000bb	50		 push	 eax
  000bc	8d 4b 68	 lea	 ecx, DWORD PTR [ebx+104]
  000bf	ff 15 00 00 00
	00		 call	 DWORD PTR __imp_?c_str@ioHashString@@QBEPBDXZ
  000c5	50		 push	 eax
  000c6	8d 85 e8 fd ff
	ff		 lea	 eax, DWORD PTR _szPath$[ebp]
  000cc	68 00 00 00 00	 push	 OFFSET ??_C@_04HDOCAJNK@?$CFs?$CFs?$AA@
  000d1	50		 push	 eax
  000d2	ff d7		 call	 edi
  000d4	83 c4 10	 add	 esp, 16			; 00000010H

; 489  : 			if ( IsFileCheck( szPath ) )

  000d7	8d 85 e8 fd ff
	ff		 lea	 eax, DWORD PTR _szPath$[ebp]
  000dd	50		 push	 eax
  000de	8d 8d cc fd ff
	ff		 lea	 ecx, DWORD PTR $T513487[ebp]
  000e4	ff 15 00 00 00
	00		 call	 DWORD PTR __imp_??0ioHashString@@QAE@PBD@Z
  000ea	83 65 fc 00	 and	 DWORD PTR __$EHRec$[ebp+8], 0
  000ee	8d 85 cc fd ff
	ff		 lea	 eax, DWORD PTR $T513487[ebp]
  000f4	50		 push	 eax
  000f5	8b cb		 mov	 ecx, ebx
  000f7	e8 00 00 00 00	 call	 ?IsFileCheck@ioFileWriteClient@@QAE_NABVioHashString@@@Z ; ioFileWriteClient::IsFileCheck
  000fc	83 4d fc ff	 or	 DWORD PTR __$EHRec$[ebp+8], -1
  00100	8d 8d cc fd ff
	ff		 lea	 ecx, DWORD PTR $T513487[ebp]
  00106	88 85 e7 fd ff
	ff		 mov	 BYTE PTR $T513486[ebp], al
  0010c	ff 15 00 00 00
	00		 call	 DWORD PTR __imp_??1ioHashString@@QAE@XZ
  00112	80 bd e7 fd ff
	ff 00		 cmp	 BYTE PTR $T513486[ebp], 0
  00119	74 39		 je	 SHORT $LN4@CreateUplo

; 490  : 				m_TempCustomFileList.push_back( szName );

  0011b	8d 85 ec fe ff
	ff		 lea	 eax, DWORD PTR _szName$[ebp]
  00121	50		 push	 eax
  00122	8d 8d bc fd ff
	ff		 lea	 ecx, DWORD PTR $T513488[ebp]
  00128	ff 15 00 00 00
	00		 call	 DWORD PTR __imp_??0ioHashString@@QAE@PBD@Z
  0012e	8d 85 bc fd ff
	ff		 lea	 eax, DWORD PTR $T513488[ebp]
  00134	50		 push	 eax
  00135	8d 4b 54	 lea	 ecx, DWORD PTR [ebx+84]
  00138	c7 45 fc 01 00
	00 00		 mov	 DWORD PTR __$EHRec$[ebp+8], 1
  0013f	e8 00 00 00 00	 call	 ?push_back@?$vector@VioHashString@@V?$allocator@VioHashString@@@std@@@std@@QAEXABVioHashString@@@Z ; std::vector<ioHashString,std::allocator<ioHashString> >::push_back
  00144	83 4d fc ff	 or	 DWORD PTR __$EHRec$[ebp+8], -1
  00148	8d 8d bc fd ff
	ff		 lea	 ecx, DWORD PTR $T513488[ebp]
  0014e	ff 15 00 00 00
	00		 call	 DWORD PTR __imp_??1ioHashString@@QAE@XZ
$LN4@CreateUplo:

; 484  : 	{
; 485  : 		for ( int j=0; j<m_nMaxSubCnt; ++j )

  00154	8b 85 dc fd ff
	ff		 mov	 eax, DWORD PTR tv309[ebp]
  0015a	3b 43 64	 cmp	 eax, DWORD PTR [ebx+100]
  0015d	0f 8c 2e ff ff
	ff		 jl	 $LN5@CreateUplo
$LN7@CreateUplo:

; 483  : 	for ( int i=0; i<(int)dwCustomIdxList.size(); ++i )

  00163	8b 46 04	 mov	 eax, DWORD PTR [esi+4]
  00166	2b 06		 sub	 eax, DWORD PTR [esi]
  00168	ff 85 e0 fd ff
	ff		 inc	 DWORD PTR _i$507730[ebp]
  0016e	c1 f8 02	 sar	 eax, 2
  00171	39 85 e0 fd ff
	ff		 cmp	 DWORD PTR _i$507730[ebp], eax
  00177	0f 8c 09 ff ff
	ff		 jl	 $LL8@CreateUplo
$LN6@CreateUplo:

; 491  : 		}
; 492  : 	}
; 493  : 
; 494  : 	m_TempState = TS_NEW;

  0017d	83 63 78 00	 and	 DWORD PTR [ebx+120], 0

; 495  : 
; 496  : 	if( Help::CheckEnableTimeGapUser2( 1 ) )

  00181	6a 01		 push	 1
  00183	e8 00 00 00 00	 call	 ?CheckEnableTimeGapUser2@Help@@YA_NH@Z ; Help::CheckEnableTimeGapUser2
  00188	59		 pop	 ecx
  00189	84 c0		 test	 al, al
  0018b	74 16		 je	 SHORT $LN1@CreateUplo

; 497  : 		LOG.PrintTimeAndLog( 0, "void ioFileWriteClient::CreateUploadList");

  0018d	68 00 00 00 00	 push	 OFFSET ??_C@_0CJ@DIBCDPKO@void?5ioFileWriteClient?3?3CreateUp@
  00192	6a 00		 push	 0
  00194	ff 35 00 00 00
	00		 push	 DWORD PTR __imp_?LOG@@3VCLog@@A
  0019a	ff 15 00 00 00
	00		 call	 DWORD PTR __imp_?PrintTimeAndLog@CLog@@QAAXHPADZZ
  001a0	83 c4 0c	 add	 esp, 12			; 0000000cH
$LN1@CreateUplo:

; 498  : }

  001a3	e8 00 00 00 00	 call	 __EH_epilog3_GS
  001a8	c2 04 00	 ret	 4
_TEXT	ENDS
;	COMDAT text$x
text$x	SEGMENT
__unwindfunclet$?CreateUploadList@ioFileWriteClient@@QAEXAAV?$vector@KV?$allocator@K@std@@@std@@@Z$0:
  00000	8d 8d cc fd ff
	ff		 lea	 ecx, DWORD PTR $T513487[ebp]
  00006	ff 25 00 00 00
	00		 jmp	 DWORD PTR __imp_??1ioHashString@@QAE@XZ
__unwindfunclet$?CreateUploadList@ioFileWriteClient@@QAEXAAV?$vector@KV?$allocator@K@std@@@std@@@Z$1:
  0000c	8d 8d bc fd ff
	ff		 lea	 ecx, DWORD PTR $T513488[ebp]
  00012	ff 25 00 00 00
	00		 jmp	 DWORD PTR __imp_??1ioHashString@@QAE@XZ
__ehhandler$?CreateUploadList@ioFileWriteClient@@QAEXAAV?$vector@KV?$allocator@K@std@@@std@@@Z:
  00018	8b 54 24 08	 mov	 edx, DWORD PTR [esp+8]
  0001c	8d 42 0c	 lea	 eax, DWORD PTR [edx+12]
  0001f	8b 8a b8 fd ff
	ff		 mov	 ecx, DWORD PTR [edx-584]
  00025	33 c8		 xor	 ecx, eax
  00027	e8 00 00 00 00	 call	 @__security_check_cookie@4
  0002c	8b 4a fc	 mov	 ecx, DWORD PTR [edx-4]
  0002f	33 c8		 xor	 ecx, eax
  00031	e8 00 00 00 00	 call	 @__security_check_cookie@4
  00036	b8 00 00 00 00	 mov	 eax, OFFSET __ehfuncinfo$?CreateUploadList@ioFileWriteClient@@QAEXAAV?$vector@KV?$allocator@K@std@@@std@@@Z
  0003b	e9 00 00 00 00	 jmp	 ___CxxFrameHandler3
text$x	ENDS
?CreateUploadList@ioFileWriteClient@@QAEXAAV?$vector@KV?$allocator@K@std@@@std@@@Z ENDP ; ioFileWriteClient::CreateUploadList
END
