; Listing generated by Microsoft (R) Optimizing Compiler Version 16.00.30319.01 

	TITLE	D:\Lost Saga For Developer\Youtube\Tutorial\Source\src\LSClient\ioFireAndBuffCheckSkill.cpp
	.686P
	.XMM
	include listing.inc
	.model	flat

INCLUDELIB MSVCRT
INCLUDELIB OLDNAMES

PUBLIC	?_EEM_DS@?$deque@UD3DXVECTOR3@@V?$allocator@UD3DXVECTOR3@@@std@@@std@@2HB ; std::deque<D3DXVECTOR3,std::allocator<D3DXVECTOR3> >::_EEM_DS
;	COMDAT ?_EEM_DS@?$deque@UD3DXVECTOR3@@V?$allocator@UD3DXVECTOR3@@@std@@@std@@2HB
CONST	SEGMENT
?_EEM_DS@?$deque@UD3DXVECTOR3@@V?$allocator@UD3DXVECTOR3@@@std@@@std@@2HB DD 01H ; std::deque<D3DXVECTOR3,std::allocator<D3DXVECTOR3> >::_EEM_DS
CONST	ENDS
PUBLIC	?Init@UpDownAttackAttribute@ioFireAndBuffCheckSkill@@QAEXXZ ; ioFireAndBuffCheckSkill::UpDownAttackAttribute::Init
EXTRN	__imp_?Clear@ioHashString@@QAEXXZ:PROC
EXTRN	?Init@AttackAttribute@@QAEXXZ:PROC		; AttackAttribute::Init
; Function compile flags: /Ogsp
; File d:\lost saga for developer\youtube\tutorial\source\src\lsclient\iofireandbuffcheckskill.h
;	COMDAT ?Init@UpDownAttackAttribute@ioFireAndBuffCheckSkill@@QAEXXZ
_TEXT	SEGMENT
?Init@UpDownAttackAttribute@ioFireAndBuffCheckSkill@@QAEXXZ PROC ; ioFireAndBuffCheckSkill::UpDownAttackAttribute::Init, COMDAT
; _this$ = ecx

; 33   : 		{

  00000	56		 push	 esi
  00001	57		 push	 edi
  00002	8b f1		 mov	 esi, ecx

; 34   : 			m_Attribute.Init();

  00004	e8 00 00 00 00	 call	 ?Init@AttackAttribute@@QAEXXZ ; AttackAttribute::Init

; 35   : 			m_UpAnimation.Clear();

  00009	8b 3d 00 00 00
	00		 mov	 edi, DWORD PTR __imp_?Clear@ioHashString@@QAEXXZ
  0000f	8d 4e 50	 lea	 ecx, DWORD PTR [esi+80]
  00012	ff d7		 call	 edi

; 36   : 			m_DownAnimation.Clear();

  00014	8d 4e 60	 lea	 ecx, DWORD PTR [esi+96]
  00017	ff d7		 call	 edi
  00019	5f		 pop	 edi
  0001a	5e		 pop	 esi

; 37   : 		}

  0001b	c3		 ret	 0
?Init@UpDownAttackAttribute@ioFireAndBuffCheckSkill@@QAEXXZ ENDP ; ioFireAndBuffCheckSkill::UpDownAttackAttribute::Init
_TEXT	ENDS
PUBLIC	?GetBaseCharList@ioPlayStage@@QBEABV?$vector@PAVioBaseChar@@V?$allocator@PAVioBaseChar@@@std@@@std@@XZ ; ioPlayStage::GetBaseCharList
; Function compile flags: /Ogsp
; File d:\lost saga for developer\youtube\tutorial\source\src\lsclient\ioplaystage.h
;	COMDAT ?GetBaseCharList@ioPlayStage@@QBEABV?$vector@PAVioBaseChar@@V?$allocator@PAVioBaseChar@@@std@@@std@@XZ
_TEXT	SEGMENT
?GetBaseCharList@ioPlayStage@@QBEABV?$vector@PAVioBaseChar@@V?$allocator@PAVioBaseChar@@@std@@@std@@XZ PROC ; ioPlayStage::GetBaseCharList, COMDAT
; _this$ = ecx

; 755  : 	const BaseCharList& GetBaseCharList() const { return m_BaseCharList; }

  00000	8d 41 2c	 lea	 eax, DWORD PTR [ecx+44]
  00003	c3		 ret	 0
?GetBaseCharList@ioPlayStage@@QBEABV?$vector@PAVioBaseChar@@V?$allocator@PAVioBaseChar@@@std@@@std@@XZ ENDP ; ioPlayStage::GetBaseCharList
_TEXT	ENDS
PUBLIC	?return5@@YAIXZ					; return5
; Function compile flags: /Ogsp
; File d:\lost saga for developer\youtube\tutorial\source\src\lsclient\stdafx.h
;	COMDAT ?return5@@YAIXZ
_TEXT	SEGMENT
?return5@@YAIXZ PROC					; return5, COMDAT

; 18   : 	__forceinline unsigned int return5() { __asm mov eax, 5 };

  00000	b8 05 00 00 00	 mov	 eax, 5
  00005	c3		 ret	 0
?return5@@YAIXZ ENDP					; return5
_TEXT	ENDS
PUBLIC	?return10@@YAIXZ				; return10
; Function compile flags: /Ogsp
;	COMDAT ?return10@@YAIXZ
_TEXT	SEGMENT
?return10@@YAIXZ PROC					; return10, COMDAT

; 21   : 	__forceinline unsigned int return10() { __asm mov eax, 10 };

  00000	b8 0a 00 00 00	 mov	 eax, 10			; 0000000aH
  00005	c3		 ret	 0
?return10@@YAIXZ ENDP					; return10
_TEXT	ENDS
PUBLIC	_acosf
EXTRN	__fltused:DWORD
EXTRN	__CIacos:PROC
; Function compile flags: /Ogsp
; File c:\program files (x86)\microsoft visual studio 10.0\vc\include\math.h
;	COMDAT _acosf
_TEXT	SEGMENT
tv69 = 8						; size = 4
__X$ = 8						; size = 4
_acosf	PROC						; COMDAT

; 400  :         {return ((float)acos((double)_X)); }

  00000	55		 push	 ebp
  00001	8b ec		 mov	 ebp, esp
  00003	d9 45 08	 fld	 DWORD PTR __X$[ebp]
  00006	e8 00 00 00 00	 call	 __CIacos
  0000b	d9 5d 08	 fstp	 DWORD PTR tv69[ebp]
  0000e	d9 45 08	 fld	 DWORD PTR tv69[ebp]
  00011	5d		 pop	 ebp
  00012	c3		 ret	 0
_acosf	ENDP
_TEXT	ENDS
PUBLIC	?GetCharName@ioBaseChar@@QBEABVioHashString@@XZ	; ioBaseChar::GetCharName
; Function compile flags: /Ogsp
; File d:\lost saga for developer\youtube\tutorial\source\src\lsclient\iobasechar.h
;	COMDAT ?GetCharName@ioBaseChar@@QBEABVioHashString@@XZ
_TEXT	SEGMENT
?GetCharName@ioBaseChar@@QBEABVioHashString@@XZ PROC	; ioBaseChar::GetCharName, COMDAT
; _this$ = ecx

; 2594 : 	inline const ioHashString& GetCharName() const { return m_Name; }

  00000	8d 81 d4 02 00
	00		 lea	 eax, DWORD PTR [ecx+724]
  00006	c3		 ret	 0
?GetCharName@ioBaseChar@@QBEABVioHashString@@XZ ENDP	; ioBaseChar::GetCharName
_TEXT	ENDS
PUBLIC	??_7bad_alloc@std@@6B@				; std::bad_alloc::`vftable'
PUBLIC	??0bad_alloc@std@@QAE@PBD@Z			; std::bad_alloc::bad_alloc
PUBLIC	??_R4bad_alloc@std@@6B@				; std::bad_alloc::`RTTI Complete Object Locator'
PUBLIC	??_R0?AVbad_alloc@std@@@8			; std::bad_alloc `RTTI Type Descriptor'
PUBLIC	??_R3bad_alloc@std@@8				; std::bad_alloc::`RTTI Class Hierarchy Descriptor'
PUBLIC	??_R2bad_alloc@std@@8				; std::bad_alloc::`RTTI Base Class Array'
PUBLIC	??_R1A@?0A@EA@bad_alloc@std@@8			; std::bad_alloc::`RTTI Base Class Descriptor at (0,-1,0,64)'
PUBLIC	??_R1A@?0A@EA@exception@std@@8			; std::exception::`RTTI Base Class Descriptor at (0,-1,0,64)'
PUBLIC	??_R0?AVexception@std@@@8			; std::exception `RTTI Type Descriptor'
PUBLIC	??_R3exception@std@@8				; std::exception::`RTTI Class Hierarchy Descriptor'
PUBLIC	??_R2exception@std@@8				; std::exception::`RTTI Base Class Array'
EXTRN	__imp_??0exception@std@@QAE@ABQBD@Z:PROC
EXTRN	??_7type_info@@6B@:QWORD			; type_info::`vftable'
EXTRN	??_Ebad_alloc@std@@UAEPAXI@Z:PROC		; std::bad_alloc::`vector deleting destructor'
EXTRN	?what@exception@std@@UBEPBDXZ:PROC		; std::exception::what
;	COMDAT ??_R2exception@std@@8
; File c:\program files (x86)\microsoft visual studio 10.0\vc\include\exception
rdata$r	SEGMENT
??_R2exception@std@@8 DD FLAT:??_R1A@?0A@EA@exception@std@@8 ; std::exception::`RTTI Base Class Array'
rdata$r	ENDS
;	COMDAT ??_R3exception@std@@8
rdata$r	SEGMENT
??_R3exception@std@@8 DD 00H				; std::exception::`RTTI Class Hierarchy Descriptor'
	DD	00H
	DD	01H
	DD	FLAT:??_R2exception@std@@8
rdata$r	ENDS
;	COMDAT ??_R0?AVexception@std@@@8
_DATA	SEGMENT
??_R0?AVexception@std@@@8 DD FLAT:??_7type_info@@6B@	; std::exception `RTTI Type Descriptor'
	DD	00H
	DB	'.?AVexception@std@@', 00H
_DATA	ENDS
;	COMDAT ??_R1A@?0A@EA@exception@std@@8
rdata$r	SEGMENT
??_R1A@?0A@EA@exception@std@@8 DD FLAT:??_R0?AVexception@std@@@8 ; std::exception::`RTTI Base Class Descriptor at (0,-1,0,64)'
	DD	00H
	DD	00H
	DD	0ffffffffH
	DD	00H
	DD	040H
	DD	FLAT:??_R3exception@std@@8
rdata$r	ENDS
;	COMDAT ??_R1A@?0A@EA@bad_alloc@std@@8
rdata$r	SEGMENT
??_R1A@?0A@EA@bad_alloc@std@@8 DD FLAT:??_R0?AVbad_alloc@std@@@8 ; std::bad_alloc::`RTTI Base Class Descriptor at (0,-1,0,64)'
	DD	01H
	DD	00H
	DD	0ffffffffH
	DD	00H
	DD	040H
	DD	FLAT:??_R3bad_alloc@std@@8
rdata$r	ENDS
;	COMDAT ??_R2bad_alloc@std@@8
rdata$r	SEGMENT
??_R2bad_alloc@std@@8 DD FLAT:??_R1A@?0A@EA@bad_alloc@std@@8 ; std::bad_alloc::`RTTI Base Class Array'
	DD	FLAT:??_R1A@?0A@EA@exception@std@@8
rdata$r	ENDS
;	COMDAT ??_R3bad_alloc@std@@8
rdata$r	SEGMENT
??_R3bad_alloc@std@@8 DD 00H				; std::bad_alloc::`RTTI Class Hierarchy Descriptor'
	DD	00H
	DD	02H
	DD	FLAT:??_R2bad_alloc@std@@8
rdata$r	ENDS
;	COMDAT ??_R0?AVbad_alloc@std@@@8
_DATA	SEGMENT
??_R0?AVbad_alloc@std@@@8 DD FLAT:??_7type_info@@6B@	; std::bad_alloc `RTTI Type Descriptor'
	DD	00H
	DB	'.?AVbad_alloc@std@@', 00H
_DATA	ENDS
;	COMDAT ??_R4bad_alloc@std@@6B@
rdata$r	SEGMENT
??_R4bad_alloc@std@@6B@ DD 00H				; std::bad_alloc::`RTTI Complete Object Locator'
	DD	00H
	DD	00H
	DD	FLAT:??_R0?AVbad_alloc@std@@@8
	DD	FLAT:??_R3bad_alloc@std@@8
rdata$r	ENDS
;	COMDAT ??_7bad_alloc@std@@6B@
CONST	SEGMENT
??_7bad_alloc@std@@6B@ DD FLAT:??_R4bad_alloc@std@@6B@	; std::bad_alloc::`vftable'
	DD	FLAT:??_Ebad_alloc@std@@UAEPAXI@Z
	DD	FLAT:?what@exception@std@@UBEPBDXZ
; Function compile flags: /Ogsp
CONST	ENDS
;	COMDAT ??0bad_alloc@std@@QAE@PBD@Z
_TEXT	SEGMENT
__Message$ = 8						; size = 4
??0bad_alloc@std@@QAE@PBD@Z PROC			; std::bad_alloc::bad_alloc, COMDAT
; _this$ = ecx

; 345  : 		{	// construct from message string

  00000	55		 push	 ebp
  00001	8b ec		 mov	 ebp, esp
  00003	56		 push	 esi
  00004	8d 45 08	 lea	 eax, DWORD PTR __Message$[ebp]
  00007	50		 push	 eax
  00008	8b f1		 mov	 esi, ecx
  0000a	ff 15 00 00 00
	00		 call	 DWORD PTR __imp_??0exception@std@@QAE@ABQBD@Z
  00010	c7 06 00 00 00
	00		 mov	 DWORD PTR [esi], OFFSET ??_7bad_alloc@std@@6B@

; 346  : 		}

  00016	8b c6		 mov	 eax, esi
  00018	5e		 pop	 esi
  00019	5d		 pop	 ebp
  0001a	c2 04 00	 ret	 4
??0bad_alloc@std@@QAE@PBD@Z ENDP			; std::bad_alloc::bad_alloc
_TEXT	ENDS
PUBLIC	??1bad_alloc@std@@UAE@XZ			; std::bad_alloc::~bad_alloc
EXTRN	__imp_??1exception@std@@UAE@XZ:PROC
; Function compile flags: /Ogsp
;	COMDAT ??1bad_alloc@std@@UAE@XZ
_TEXT	SEGMENT
??1bad_alloc@std@@UAE@XZ PROC				; std::bad_alloc::~bad_alloc, COMDAT
; _this$ = ecx

; 354  : 		{	// destroy the object

  00000	c7 01 00 00 00
	00		 mov	 DWORD PTR [ecx], OFFSET ??_7bad_alloc@std@@6B@

; 355  : 		}

  00006	ff 25 00 00 00
	00		 jmp	 DWORD PTR __imp_??1exception@std@@UAE@XZ
??1bad_alloc@std@@UAE@XZ ENDP				; std::bad_alloc::~bad_alloc
_TEXT	ENDS
EXTRN	??3@YAXPAX@Z:PROC				; operator delete
; Function compile flags: /Ogsp
;	COMDAT ??_Gbad_alloc@std@@UAEPAXI@Z
_TEXT	SEGMENT
___flags$ = 8						; size = 4
??_Gbad_alloc@std@@UAEPAXI@Z PROC			; std::bad_alloc::`scalar deleting destructor', COMDAT
; _this$ = ecx
  00000	55		 push	 ebp
  00001	8b ec		 mov	 ebp, esp
  00003	56		 push	 esi
  00004	8b f1		 mov	 esi, ecx
  00006	c7 06 00 00 00
	00		 mov	 DWORD PTR [esi], OFFSET ??_7bad_alloc@std@@6B@
  0000c	ff 15 00 00 00
	00		 call	 DWORD PTR __imp_??1exception@std@@UAE@XZ
  00012	f6 45 08 01	 test	 BYTE PTR ___flags$[ebp], 1
  00016	74 07		 je	 SHORT $LN1@scalar
  00018	56		 push	 esi
  00019	e8 00 00 00 00	 call	 ??3@YAXPAX@Z		; operator delete
  0001e	59		 pop	 ecx
$LN1@scalar:
  0001f	8b c6		 mov	 eax, esi
  00021	5e		 pop	 esi
  00022	5d		 pop	 ebp
  00023	c2 04 00	 ret	 4
??_Gbad_alloc@std@@UAEPAXI@Z ENDP			; std::bad_alloc::`scalar deleting destructor'
_TEXT	ENDS
PUBLIC	??2@YAPAXIPAX@Z					; operator new
; Function compile flags: /Ogsp
; File c:\program files (x86)\microsoft visual studio 10.0\vc\include\new
;	COMDAT ??2@YAPAXIPAX@Z
_TEXT	SEGMENT
___formal$ = 8						; size = 4
__Where$ = 12						; size = 4
??2@YAPAXIPAX@Z PROC					; operator new, COMDAT

; 56   : 	{	// construct array with placement at _Where

  00000	55		 push	 ebp
  00001	8b ec		 mov	 ebp, esp

; 57   : 	return (_Where);

  00003	8b 45 0c	 mov	 eax, DWORD PTR __Where$[ebp]

; 58   : 	}

  00006	5d		 pop	 ebp
  00007	c3		 ret	 0
??2@YAPAXIPAX@Z ENDP					; operator new
_TEXT	ENDS
PUBLIC	??3@YAXPAX0@Z					; operator delete
; Function compile flags: /Ogsp
;	COMDAT ??3@YAXPAX0@Z
_TEXT	SEGMENT
___formal$ = 8						; size = 4
___formal$ = 12						; size = 4
??3@YAXPAX0@Z PROC					; operator delete, COMDAT

; 62   : 	}

  00000	c3		 ret	 0
??3@YAXPAX0@Z ENDP					; operator delete
_TEXT	ENDS
PUBLIC	?GetCreator@ioBaseChar@@QAEPAVioPlayStage@@XZ	; ioBaseChar::GetCreator
; Function compile flags: /Ogsp
; File d:\lost saga for developer\youtube\tutorial\source\src\lsclient\iobasechar.h
;	COMDAT ?GetCreator@ioBaseChar@@QAEPAVioPlayStage@@XZ
_TEXT	SEGMENT
?GetCreator@ioBaseChar@@QAEPAVioPlayStage@@XZ PROC	; ioBaseChar::GetCreator, COMDAT
; _this$ = ecx

; 4013 : 	inline ioPlayStage* GetCreator() { return m_pCreator; }

  00000	8b 81 44 03 00
	00		 mov	 eax, DWORD PTR [ecx+836]
  00006	c3		 ret	 0
?GetCreator@ioBaseChar@@QAEPAVioPlayStage@@XZ ENDP	; ioBaseChar::GetCreator
_TEXT	ENDS
PUBLIC	?_Adopt@_Iterator_base0@std@@QAEXPBX@Z		; std::_Iterator_base0::_Adopt
; Function compile flags: /Ogsp
; File c:\program files (x86)\microsoft visual studio 10.0\vc\include\xutility
;	COMDAT ?_Adopt@_Iterator_base0@std@@QAEXPBX@Z
_TEXT	SEGMENT
___formal$ = 8						; size = 4
?_Adopt@_Iterator_base0@std@@QAEXPBX@Z PROC		; std::_Iterator_base0::_Adopt, COMDAT
; _this$ = ecx

; 49   : 		}

  00000	c2 04 00	 ret	 4
?_Adopt@_Iterator_base0@std@@QAEXPBX@Z ENDP		; std::_Iterator_base0::_Adopt
_TEXT	ENDS
PUBLIC	?IsSkillMotionEnd@ioFireAndBuffCheckSkill@@UBE_NKPAVioBaseChar@@@Z ; ioFireAndBuffCheckSkill::IsSkillMotionEnd
EXTRN	__imp_?GetLoopSec@ioFrameTimer@@QBEKXZ:PROC
EXTRN	__imp_?GetSingleton@ioFrameTimer@@SAAAV1@XZ:PROC
; Function compile flags: /Ogsp
; File d:\lost saga for developer\youtube\tutorial\source\src\lsclient\iofireandbuffcheckskill.cpp
;	COMDAT ?IsSkillMotionEnd@ioFireAndBuffCheckSkill@@UBE_NKPAVioBaseChar@@@Z
_TEXT	SEGMENT
_dwActionStop$ = 8					; size = 4
_pOwner$ = 12						; size = 4
?IsSkillMotionEnd@ioFireAndBuffCheckSkill@@UBE_NKPAVioBaseChar@@@Z PROC ; ioFireAndBuffCheckSkill::IsSkillMotionEnd, COMDAT
; _this$ = ecx

; 125  : {

  00000	56		 push	 esi
  00001	8b f1		 mov	 esi, ecx

; 126  : 	if ( m_SkillState == SS_END && m_dwMotionEndTime < FRAMEGETTIME() )

  00003	83 be e4 10 00
	00 04		 cmp	 DWORD PTR [esi+4324], 4
  0000a	75 1a		 jne	 SHORT $LN1@IsSkillMot
  0000c	ff 15 00 00 00
	00		 call	 DWORD PTR __imp_?GetSingleton@ioFrameTimer@@SAAAV1@XZ
  00012	8b c8		 mov	 ecx, eax
  00014	ff 15 00 00 00
	00		 call	 DWORD PTR __imp_?GetLoopSec@ioFrameTimer@@QBEKXZ
  0001a	39 86 d8 02 00
	00		 cmp	 DWORD PTR [esi+728], eax
  00020	73 04		 jae	 SHORT $LN1@IsSkillMot

; 127  : 		return true;

  00022	b0 01		 mov	 al, 1
  00024	eb 02		 jmp	 SHORT $LN2@IsSkillMot
$LN1@IsSkillMot:

; 128  : 	return false;

  00026	32 c0		 xor	 al, al
$LN2@IsSkillMot:
  00028	5e		 pop	 esi

; 129  : }

  00029	c2 08 00	 ret	 8
?IsSkillMotionEnd@ioFireAndBuffCheckSkill@@UBE_NKPAVioBaseChar@@@Z ENDP ; ioFireAndBuffCheckSkill::IsSkillMotionEnd
_TEXT	ENDS
PUBLIC	??1tagBaseCharDistanceSq@@QAE@XZ		; tagBaseCharDistanceSq::~tagBaseCharDistanceSq
EXTRN	__imp_??1ioHashString@@QAE@XZ:PROC
; Function compile flags: /Ogsp
;	COMDAT ??1tagBaseCharDistanceSq@@QAE@XZ
_TEXT	SEGMENT
??1tagBaseCharDistanceSq@@QAE@XZ PROC			; tagBaseCharDistanceSq::~tagBaseCharDistanceSq, COMDAT
; _this$ = ecx
  00000	ff 25 00 00 00
	00		 jmp	 DWORD PTR __imp_??1ioHashString@@QAE@XZ
??1tagBaseCharDistanceSq@@QAE@XZ ENDP			; tagBaseCharDistanceSq::~tagBaseCharDistanceSq
_TEXT	ENDS
PUBLIC	??1FireTime@@QAE@XZ				; FireTime::~FireTime
EXTRN	___CxxFrameHandler3:PROC
EXTRN	@__security_check_cookie@4:PROC
EXTRN	__EH_epilog3:PROC
EXTRN	__EH_prolog3:PROC
;	COMDAT xdata$x
xdata$x	SEGMENT
__unwindtable$??1FireTime@@QAE@XZ DD 0ffffffffH
	DD	FLAT:__unwindfunclet$??1FireTime@@QAE@XZ$0
	DD	00H
	DD	FLAT:__unwindfunclet$??1FireTime@@QAE@XZ$1
__ehfuncinfo$??1FireTime@@QAE@XZ DD 019930522H
	DD	02H
	DD	FLAT:__unwindtable$??1FireTime@@QAE@XZ
	DD	2 DUP(00H)
	DD	2 DUP(00H)
	DD	00H
	DD	01H
; Function compile flags: /Ogsp
xdata$x	ENDS
;	COMDAT ??1FireTime@@QAE@XZ
_TEXT	SEGMENT
_this$ = -16						; size = 4
__$EHRec$ = -12						; size = 12
??1FireTime@@QAE@XZ PROC				; FireTime::~FireTime, COMDAT
; _this$ = ecx
  00000	6a 04		 push	 4
  00002	b8 00 00 00 00	 mov	 eax, __ehhandler$??1FireTime@@QAE@XZ
  00007	e8 00 00 00 00	 call	 __EH_prolog3
  0000c	8b f9		 mov	 edi, ecx
  0000e	89 7d f0	 mov	 DWORD PTR _this$[ebp], edi
  00011	8b 35 00 00 00
	00		 mov	 esi, DWORD PTR __imp_??1ioHashString@@QAE@XZ
  00017	8d 4f 44	 lea	 ecx, DWORD PTR [edi+68]
  0001a	c7 45 fc 01 00
	00 00		 mov	 DWORD PTR __$EHRec$[ebp+8], 1
  00021	ff d6		 call	 esi
  00023	8d 4f 30	 lea	 ecx, DWORD PTR [edi+48]
  00026	c6 45 fc 00	 mov	 BYTE PTR __$EHRec$[ebp+8], 0
  0002a	ff d6		 call	 esi
  0002c	83 4d fc ff	 or	 DWORD PTR __$EHRec$[ebp+8], -1
  00030	8d 4f 14	 lea	 ecx, DWORD PTR [edi+20]
  00033	ff d6		 call	 esi
  00035	e8 00 00 00 00	 call	 __EH_epilog3
  0003a	c3		 ret	 0
_TEXT	ENDS
;	COMDAT text$x
text$x	SEGMENT
__unwindfunclet$??1FireTime@@QAE@XZ$0:
  00000	8b 4d f0	 mov	 ecx, DWORD PTR _this$[ebp]
  00003	83 c1 14	 add	 ecx, 20			; 00000014H
  00006	ff 25 00 00 00
	00		 jmp	 DWORD PTR __imp_??1ioHashString@@QAE@XZ
__unwindfunclet$??1FireTime@@QAE@XZ$1:
  0000c	8b 4d f0	 mov	 ecx, DWORD PTR _this$[ebp]
  0000f	83 c1 30	 add	 ecx, 48			; 00000030H
  00012	ff 25 00 00 00
	00		 jmp	 DWORD PTR __imp_??1ioHashString@@QAE@XZ
__ehhandler$??1FireTime@@QAE@XZ:
  00018	8b 54 24 08	 mov	 edx, DWORD PTR [esp+8]
  0001c	8d 42 0c	 lea	 eax, DWORD PTR [edx+12]
  0001f	8b 4a ec	 mov	 ecx, DWORD PTR [edx-20]
  00022	33 c8		 xor	 ecx, eax
  00024	e8 00 00 00 00	 call	 @__security_check_cookie@4
  00029	b8 00 00 00 00	 mov	 eax, OFFSET __ehfuncinfo$??1FireTime@@QAE@XZ
  0002e	e9 00 00 00 00	 jmp	 ___CxxFrameHandler3
text$x	ENDS
??1FireTime@@QAE@XZ ENDP				; FireTime::~FireTime
PUBLIC	??A?$vector@VioHashString@@V?$allocator@VioHashString@@@std@@@std@@QAEAAVioHashString@@I@Z ; std::vector<ioHashString,std::allocator<ioHashString> >::operator[]
; Function compile flags: /Ogsp
; File c:\program files (x86)\microsoft visual studio 10.0\vc\include\vector
;	COMDAT ??A?$vector@VioHashString@@V?$allocator@VioHashString@@@std@@@std@@QAEAAVioHashString@@I@Z
_TEXT	SEGMENT
__Pos$ = 8						; size = 4
??A?$vector@VioHashString@@V?$allocator@VioHashString@@@std@@@std@@QAEAAVioHashString@@I@Z PROC ; std::vector<ioHashString,std::allocator<ioHashString> >::operator[], COMDAT
; _this$ = ecx

; 928  : 		{	// subscript mutable sequence

  00000	55		 push	 ebp
  00001	8b ec		 mov	 ebp, esp

; 929  :  #if _ITERATOR_DEBUG_LEVEL == 2
; 930  : 		if (size() <= _Pos)
; 931  : 			{	// report error
; 932  : 			_DEBUG_ERROR("vector subscript out of range");
; 933  : 			_SCL_SECURE_OUT_OF_RANGE;
; 934  : 			}
; 935  : 
; 936  :  #elif _ITERATOR_DEBUG_LEVEL == 1
; 937  : 		_SCL_SECURE_VALIDATE_RANGE(_Pos < size());
; 938  :  #endif /* _ITERATOR_DEBUG_LEVEL */
; 939  : 
; 940  : 		return (*(this->_Myfirst + _Pos));

  00003	8b 45 08	 mov	 eax, DWORD PTR __Pos$[ebp]
  00006	c1 e0 04	 shl	 eax, 4
  00009	03 01		 add	 eax, DWORD PTR [ecx]

; 941  : 		}

  0000b	5d		 pop	 ebp
  0000c	c2 04 00	 ret	 4
??A?$vector@VioHashString@@V?$allocator@VioHashString@@@std@@@std@@QAEAAVioHashString@@I@Z ENDP ; std::vector<ioHashString,std::allocator<ioHashString> >::operator[]
_TEXT	ENDS
PUBLIC	?empty@?$vector@UWeaponInfo@@V?$allocator@UWeaponInfo@@@std@@@std@@QBE_NXZ ; std::vector<WeaponInfo,std::allocator<WeaponInfo> >::empty
; Function compile flags: /Ogsp
;	COMDAT ?empty@?$vector@UWeaponInfo@@V?$allocator@UWeaponInfo@@@std@@@std@@QBE_NXZ
_TEXT	SEGMENT
?empty@?$vector@UWeaponInfo@@V?$allocator@UWeaponInfo@@@std@@@std@@QBE_NXZ PROC ; std::vector<WeaponInfo,std::allocator<WeaponInfo> >::empty, COMDAT
; _this$ = ecx

; 889  : 		return (this->_Myfirst == this->_Mylast);

  00000	8b 01		 mov	 eax, DWORD PTR [ecx]
  00002	2b 41 04	 sub	 eax, DWORD PTR [ecx+4]
  00005	f7 d8		 neg	 eax
  00007	1b c0		 sbb	 eax, eax
  00009	40		 inc	 eax

; 890  : 		}

  0000a	c3		 ret	 0
?empty@?$vector@UWeaponInfo@@V?$allocator@UWeaponInfo@@@std@@@std@@QBE_NXZ ENDP ; std::vector<WeaponInfo,std::allocator<WeaponInfo> >::empty
_TEXT	ENDS
PUBLIC	??A?$vector@UWeaponInfo@@V?$allocator@UWeaponInfo@@@std@@@std@@QBEABUWeaponInfo@@I@Z ; std::vector<WeaponInfo,std::allocator<WeaponInfo> >::operator[]
; Function compile flags: /Ogsp
;	COMDAT ??A?$vector@UWeaponInfo@@V?$allocator@UWeaponInfo@@@std@@@std@@QBEABUWeaponInfo@@I@Z
_TEXT	SEGMENT
__Pos$ = 8						; size = 4
??A?$vector@UWeaponInfo@@V?$allocator@UWeaponInfo@@@std@@@std@@QBEABUWeaponInfo@@I@Z PROC ; std::vector<WeaponInfo,std::allocator<WeaponInfo> >::operator[], COMDAT
; _this$ = ecx

; 912  : 		{	// subscript nonmutable sequence

  00000	55		 push	 ebp
  00001	8b ec		 mov	 ebp, esp

; 913  :  #if _ITERATOR_DEBUG_LEVEL == 2
; 914  : 		if (size() <= _Pos)
; 915  : 			{	// report error
; 916  : 			_DEBUG_ERROR("vector subscript out of range");
; 917  : 			_SCL_SECURE_OUT_OF_RANGE;
; 918  : 			}
; 919  : 
; 920  :  #elif _ITERATOR_DEBUG_LEVEL == 1
; 921  : 		_SCL_SECURE_VALIDATE_RANGE(_Pos < size());
; 922  :  #endif /* _ITERATOR_DEBUG_LEVEL */
; 923  : 
; 924  : 		return (*(this->_Myfirst + _Pos));

  00003	8b 45 08	 mov	 eax, DWORD PTR __Pos$[ebp]
  00006	6b c0 28	 imul	 eax, 40			; 00000028H
  00009	03 01		 add	 eax, DWORD PTR [ecx]

; 925  : 		}

  0000b	5d		 pop	 ebp
  0000c	c2 04 00	 ret	 4
??A?$vector@UWeaponInfo@@V?$allocator@UWeaponInfo@@@std@@@std@@QBEABUWeaponInfo@@I@Z ENDP ; std::vector<WeaponInfo,std::allocator<WeaponInfo> >::operator[]
_TEXT	ENDS
PUBLIC	??A?$vector@UWeaponInfo@@V?$allocator@UWeaponInfo@@@std@@@std@@QAEAAUWeaponInfo@@I@Z ; std::vector<WeaponInfo,std::allocator<WeaponInfo> >::operator[]
; Function compile flags: /Ogsp
;	COMDAT ??A?$vector@UWeaponInfo@@V?$allocator@UWeaponInfo@@@std@@@std@@QAEAAUWeaponInfo@@I@Z
_TEXT	SEGMENT
__Pos$ = 8						; size = 4
??A?$vector@UWeaponInfo@@V?$allocator@UWeaponInfo@@@std@@@std@@QAEAAUWeaponInfo@@I@Z PROC ; std::vector<WeaponInfo,std::allocator<WeaponInfo> >::operator[], COMDAT
; _this$ = ecx

; 928  : 		{	// subscript mutable sequence

  00000	55		 push	 ebp
  00001	8b ec		 mov	 ebp, esp

; 929  :  #if _ITERATOR_DEBUG_LEVEL == 2
; 930  : 		if (size() <= _Pos)
; 931  : 			{	// report error
; 932  : 			_DEBUG_ERROR("vector subscript out of range");
; 933  : 			_SCL_SECURE_OUT_OF_RANGE;
; 934  : 			}
; 935  : 
; 936  :  #elif _ITERATOR_DEBUG_LEVEL == 1
; 937  : 		_SCL_SECURE_VALIDATE_RANGE(_Pos < size());
; 938  :  #endif /* _ITERATOR_DEBUG_LEVEL */
; 939  : 
; 940  : 		return (*(this->_Myfirst + _Pos));

  00003	8b 45 08	 mov	 eax, DWORD PTR __Pos$[ebp]
  00006	6b c0 28	 imul	 eax, 40			; 00000028H
  00009	03 01		 add	 eax, DWORD PTR [ecx]

; 941  : 		}

  0000b	5d		 pop	 ebp
  0000c	c2 04 00	 ret	 4
??A?$vector@UWeaponInfo@@V?$allocator@UWeaponInfo@@@std@@@std@@QAEAAUWeaponInfo@@I@Z ENDP ; std::vector<WeaponInfo,std::allocator<WeaponInfo> >::operator[]
_TEXT	ENDS
PUBLIC	?size@?$vector@UUpDownAttackAttribute@ioFireAndBuffCheckSkill@@V?$allocator@UUpDownAttackAttribute@ioFireAndBuffCheckSkill@@@std@@@std@@QBEIXZ ; std::vector<ioFireAndBuffCheckSkill::UpDownAttackAttribute,std::allocator<ioFireAndBuffCheckSkill::UpDownAttackAttribute> >::size
; Function compile flags: /Ogsp
;	COMDAT ?size@?$vector@UUpDownAttackAttribute@ioFireAndBuffCheckSkill@@V?$allocator@UUpDownAttackAttribute@ioFireAndBuffCheckSkill@@@std@@@std@@QBEIXZ
_TEXT	SEGMENT
?size@?$vector@UUpDownAttackAttribute@ioFireAndBuffCheckSkill@@V?$allocator@UUpDownAttackAttribute@ioFireAndBuffCheckSkill@@@std@@@std@@QBEIXZ PROC ; std::vector<ioFireAndBuffCheckSkill::UpDownAttackAttribute,std::allocator<ioFireAndBuffCheckSkill::UpDownAttackAttribute> >::size, COMDAT
; _this$ = ecx

; 879  : 		return (this->_Mylast - this->_Myfirst);

  00000	8b 41 04	 mov	 eax, DWORD PTR [ecx+4]
  00003	2b 01		 sub	 eax, DWORD PTR [ecx]
  00005	6a 70		 push	 112			; 00000070H
  00007	99		 cdq
  00008	59		 pop	 ecx
  00009	f7 f9		 idiv	 ecx

; 880  : 		}

  0000b	c3		 ret	 0
?size@?$vector@UUpDownAttackAttribute@ioFireAndBuffCheckSkill@@V?$allocator@UUpDownAttackAttribute@ioFireAndBuffCheckSkill@@@std@@@std@@QBEIXZ ENDP ; std::vector<ioFireAndBuffCheckSkill::UpDownAttackAttribute,std::allocator<ioFireAndBuffCheckSkill::UpDownAttackAttribute> >::size
_TEXT	ENDS
PUBLIC	?empty@?$vector@UUpDownAttackAttribute@ioFireAndBuffCheckSkill@@V?$allocator@UUpDownAttackAttribute@ioFireAndBuffCheckSkill@@@std@@@std@@QBE_NXZ ; std::vector<ioFireAndBuffCheckSkill::UpDownAttackAttribute,std::allocator<ioFireAndBuffCheckSkill::UpDownAttackAttribute> >::empty
; Function compile flags: /Ogsp
;	COMDAT ?empty@?$vector@UUpDownAttackAttribute@ioFireAndBuffCheckSkill@@V?$allocator@UUpDownAttackAttribute@ioFireAndBuffCheckSkill@@@std@@@std@@QBE_NXZ
_TEXT	SEGMENT
?empty@?$vector@UUpDownAttackAttribute@ioFireAndBuffCheckSkill@@V?$allocator@UUpDownAttackAttribute@ioFireAndBuffCheckSkill@@@std@@@std@@QBE_NXZ PROC ; std::vector<ioFireAndBuffCheckSkill::UpDownAttackAttribute,std::allocator<ioFireAndBuffCheckSkill::UpDownAttackAttribute> >::empty, COMDAT
; _this$ = ecx

; 889  : 		return (this->_Myfirst == this->_Mylast);

  00000	8b 01		 mov	 eax, DWORD PTR [ecx]
  00002	2b 41 04	 sub	 eax, DWORD PTR [ecx+4]
  00005	f7 d8		 neg	 eax
  00007	1b c0		 sbb	 eax, eax
  00009	40		 inc	 eax

; 890  : 		}

  0000a	c3		 ret	 0
?empty@?$vector@UUpDownAttackAttribute@ioFireAndBuffCheckSkill@@V?$allocator@UUpDownAttackAttribute@ioFireAndBuffCheckSkill@@@std@@@std@@QBE_NXZ ENDP ; std::vector<ioFireAndBuffCheckSkill::UpDownAttackAttribute,std::allocator<ioFireAndBuffCheckSkill::UpDownAttackAttribute> >::empty
_TEXT	ENDS
PUBLIC	??A?$vector@UUpDownAttackAttribute@ioFireAndBuffCheckSkill@@V?$allocator@UUpDownAttackAttribute@ioFireAndBuffCheckSkill@@@std@@@std@@QAEAAUUpDownAttackAttribute@ioFireAndBuffCheckSkill@@I@Z ; std::vector<ioFireAndBuffCheckSkill::UpDownAttackAttribute,std::allocator<ioFireAndBuffCheckSkill::UpDownAttackAttribute> >::operator[]
; Function compile flags: /Ogsp
;	COMDAT ??A?$vector@UUpDownAttackAttribute@ioFireAndBuffCheckSkill@@V?$allocator@UUpDownAttackAttribute@ioFireAndBuffCheckSkill@@@std@@@std@@QAEAAUUpDownAttackAttribute@ioFireAndBuffCheckSkill@@I@Z
_TEXT	SEGMENT
__Pos$ = 8						; size = 4
??A?$vector@UUpDownAttackAttribute@ioFireAndBuffCheckSkill@@V?$allocator@UUpDownAttackAttribute@ioFireAndBuffCheckSkill@@@std@@@std@@QAEAAUUpDownAttackAttribute@ioFireAndBuffCheckSkill@@I@Z PROC ; std::vector<ioFireAndBuffCheckSkill::UpDownAttackAttribute,std::allocator<ioFireAndBuffCheckSkill::UpDownAttackAttribute> >::operator[], COMDAT
; _this$ = ecx

; 928  : 		{	// subscript mutable sequence

  00000	55		 push	 ebp
  00001	8b ec		 mov	 ebp, esp

; 929  :  #if _ITERATOR_DEBUG_LEVEL == 2
; 930  : 		if (size() <= _Pos)
; 931  : 			{	// report error
; 932  : 			_DEBUG_ERROR("vector subscript out of range");
; 933  : 			_SCL_SECURE_OUT_OF_RANGE;
; 934  : 			}
; 935  : 
; 936  :  #elif _ITERATOR_DEBUG_LEVEL == 1
; 937  : 		_SCL_SECURE_VALIDATE_RANGE(_Pos < size());
; 938  :  #endif /* _ITERATOR_DEBUG_LEVEL */
; 939  : 
; 940  : 		return (*(this->_Myfirst + _Pos));

  00003	8b 45 08	 mov	 eax, DWORD PTR __Pos$[ebp]
  00006	6b c0 70	 imul	 eax, 112		; 00000070H
  00009	03 01		 add	 eax, DWORD PTR [ecx]

; 941  : 		}

  0000b	5d		 pop	 ebp
  0000c	c2 04 00	 ret	 4
??A?$vector@UUpDownAttackAttribute@ioFireAndBuffCheckSkill@@V?$allocator@UUpDownAttackAttribute@ioFireAndBuffCheckSkill@@@std@@@std@@QAEAAUUpDownAttackAttribute@ioFireAndBuffCheckSkill@@I@Z ENDP ; std::vector<ioFireAndBuffCheckSkill::UpDownAttackAttribute,std::allocator<ioFireAndBuffCheckSkill::UpDownAttackAttribute> >::operator[]
_TEXT	ENDS
PUBLIC	?size@?$vector@UtagBaseCharDistanceSq@@V?$allocator@UtagBaseCharDistanceSq@@@std@@@std@@QBEIXZ ; std::vector<tagBaseCharDistanceSq,std::allocator<tagBaseCharDistanceSq> >::size
; Function compile flags: /Ogsp
;	COMDAT ?size@?$vector@UtagBaseCharDistanceSq@@V?$allocator@UtagBaseCharDistanceSq@@@std@@@std@@QBEIXZ
_TEXT	SEGMENT
?size@?$vector@UtagBaseCharDistanceSq@@V?$allocator@UtagBaseCharDistanceSq@@@std@@@std@@QBEIXZ PROC ; std::vector<tagBaseCharDistanceSq,std::allocator<tagBaseCharDistanceSq> >::size, COMDAT
; _this$ = ecx

; 879  : 		return (this->_Mylast - this->_Myfirst);

  00000	8b 41 04	 mov	 eax, DWORD PTR [ecx+4]
  00003	2b 01		 sub	 eax, DWORD PTR [ecx]
  00005	c1 f8 05	 sar	 eax, 5

; 880  : 		}

  00008	c3		 ret	 0
?size@?$vector@UtagBaseCharDistanceSq@@V?$allocator@UtagBaseCharDistanceSq@@@std@@@std@@QBEIXZ ENDP ; std::vector<tagBaseCharDistanceSq,std::allocator<tagBaseCharDistanceSq> >::size
_TEXT	ENDS
PUBLIC	?empty@?$vector@UtagBaseCharDistanceSq@@V?$allocator@UtagBaseCharDistanceSq@@@std@@@std@@QBE_NXZ ; std::vector<tagBaseCharDistanceSq,std::allocator<tagBaseCharDistanceSq> >::empty
; Function compile flags: /Ogsp
;	COMDAT ?empty@?$vector@UtagBaseCharDistanceSq@@V?$allocator@UtagBaseCharDistanceSq@@@std@@@std@@QBE_NXZ
_TEXT	SEGMENT
?empty@?$vector@UtagBaseCharDistanceSq@@V?$allocator@UtagBaseCharDistanceSq@@@std@@@std@@QBE_NXZ PROC ; std::vector<tagBaseCharDistanceSq,std::allocator<tagBaseCharDistanceSq> >::empty, COMDAT
; _this$ = ecx

; 889  : 		return (this->_Myfirst == this->_Mylast);

  00000	8b 01		 mov	 eax, DWORD PTR [ecx]
  00002	2b 41 04	 sub	 eax, DWORD PTR [ecx+4]
  00005	f7 d8		 neg	 eax
  00007	1b c0		 sbb	 eax, eax
  00009	40		 inc	 eax

; 890  : 		}

  0000a	c3		 ret	 0
?empty@?$vector@UtagBaseCharDistanceSq@@V?$allocator@UtagBaseCharDistanceSq@@@std@@@std@@QBE_NXZ ENDP ; std::vector<tagBaseCharDistanceSq,std::allocator<tagBaseCharDistanceSq> >::empty
_TEXT	ENDS
PUBLIC	??A?$vector@UtagBaseCharDistanceSq@@V?$allocator@UtagBaseCharDistanceSq@@@std@@@std@@QAEAAUtagBaseCharDistanceSq@@I@Z ; std::vector<tagBaseCharDistanceSq,std::allocator<tagBaseCharDistanceSq> >::operator[]
; Function compile flags: /Ogsp
;	COMDAT ??A?$vector@UtagBaseCharDistanceSq@@V?$allocator@UtagBaseCharDistanceSq@@@std@@@std@@QAEAAUtagBaseCharDistanceSq@@I@Z
_TEXT	SEGMENT
__Pos$ = 8						; size = 4
??A?$vector@UtagBaseCharDistanceSq@@V?$allocator@UtagBaseCharDistanceSq@@@std@@@std@@QAEAAUtagBaseCharDistanceSq@@I@Z PROC ; std::vector<tagBaseCharDistanceSq,std::allocator<tagBaseCharDistanceSq> >::operator[], COMDAT
; _this$ = ecx

; 928  : 		{	// subscript mutable sequence

  00000	55		 push	 ebp
  00001	8b ec		 mov	 ebp, esp

; 929  :  #if _ITERATOR_DEBUG_LEVEL == 2
; 930  : 		if (size() <= _Pos)
; 931  : 			{	// report error
; 932  : 			_DEBUG_ERROR("vector subscript out of range");
; 933  : 			_SCL_SECURE_OUT_OF_RANGE;
; 934  : 			}
; 935  : 
; 936  :  #elif _ITERATOR_DEBUG_LEVEL == 1
; 937  : 		_SCL_SECURE_VALIDATE_RANGE(_Pos < size());
; 938  :  #endif /* _ITERATOR_DEBUG_LEVEL */
; 939  : 
; 940  : 		return (*(this->_Myfirst + _Pos));

  00003	8b 45 08	 mov	 eax, DWORD PTR __Pos$[ebp]
  00006	c1 e0 05	 shl	 eax, 5
  00009	03 01		 add	 eax, DWORD PTR [ecx]

; 941  : 		}

  0000b	5d		 pop	 ebp
  0000c	c2 04 00	 ret	 4
??A?$vector@UtagBaseCharDistanceSq@@V?$allocator@UtagBaseCharDistanceSq@@@std@@@std@@QAEAAUtagBaseCharDistanceSq@@I@Z ENDP ; std::vector<tagBaseCharDistanceSq,std::allocator<tagBaseCharDistanceSq> >::operator[]
_TEXT	ENDS
PUBLIC	??0?$_Vector_const_iterator@V?$_Vector_val@PAVioBaseChar@@V?$allocator@PAVioBaseChar@@@std@@@std@@@std@@QAE@XZ ; std::_Vector_const_iterator<std::_Vector_val<ioBaseChar *,std::allocator<ioBaseChar *> > >::_Vector_const_iterator<std::_Vector_val<ioBaseChar *,std::allocator<ioBaseChar *> > >
; Function compile flags: /Ogsp
;	COMDAT ??0?$_Vector_const_iterator@V?$_Vector_val@PAVioBaseChar@@V?$allocator@PAVioBaseChar@@@std@@@std@@@std@@QAE@XZ
_TEXT	SEGMENT
??0?$_Vector_const_iterator@V?$_Vector_val@PAVioBaseChar@@V?$allocator@PAVioBaseChar@@@std@@@std@@@std@@QAE@XZ PROC ; std::_Vector_const_iterator<std::_Vector_val<ioBaseChar *,std::allocator<ioBaseChar *> > >::_Vector_const_iterator<std::_Vector_val<ioBaseChar *,std::allocator<ioBaseChar *> > >, COMDAT
; _this$ = ecx

; 40   : 		{	// construct with null pointer

  00000	8b c1		 mov	 eax, ecx
  00002	83 20 00	 and	 DWORD PTR [eax], 0

; 41   : 		}

  00005	c3		 ret	 0
??0?$_Vector_const_iterator@V?$_Vector_val@PAVioBaseChar@@V?$allocator@PAVioBaseChar@@@std@@@std@@@std@@QAE@XZ ENDP ; std::_Vector_const_iterator<std::_Vector_val<ioBaseChar *,std::allocator<ioBaseChar *> > >::_Vector_const_iterator<std::_Vector_val<ioBaseChar *,std::allocator<ioBaseChar *> > >
_TEXT	ENDS
PUBLIC	??D?$_Vector_const_iterator@V?$_Vector_val@PAVioBaseChar@@V?$allocator@PAVioBaseChar@@@std@@@std@@@std@@QBEABQAVioBaseChar@@XZ ; std::_Vector_const_iterator<std::_Vector_val<ioBaseChar *,std::allocator<ioBaseChar *> > >::operator*
; Function compile flags: /Ogsp
;	COMDAT ??D?$_Vector_const_iterator@V?$_Vector_val@PAVioBaseChar@@V?$allocator@PAVioBaseChar@@@std@@@std@@@std@@QBEABQAVioBaseChar@@XZ
_TEXT	SEGMENT
??D?$_Vector_const_iterator@V?$_Vector_val@PAVioBaseChar@@V?$allocator@PAVioBaseChar@@@std@@@std@@@std@@QBEABQAVioBaseChar@@XZ PROC ; std::_Vector_const_iterator<std::_Vector_val<ioBaseChar *,std::allocator<ioBaseChar *> > >::operator*, COMDAT
; _this$ = ecx

; 64   :  #if _ITERATOR_DEBUG_LEVEL == 2
; 65   : 		if (this->_Getcont() == 0
; 66   : 			|| this->_Ptr == 0
; 67   : 			|| this->_Ptr < ((_Myvec *)this->_Getcont())->_Myfirst
; 68   : 			|| ((_Myvec *)this->_Getcont())->_Mylast <= this->_Ptr)
; 69   : 			{	// report error
; 70   : 			_DEBUG_ERROR("vector iterator not dereferencable");
; 71   : 			_SCL_SECURE_OUT_OF_RANGE;
; 72   : 			}
; 73   : 
; 74   :  #elif _ITERATOR_DEBUG_LEVEL == 1
; 75   : 		_SCL_SECURE_VALIDATE(this->_Getcont() != 0);
; 76   : 		_SCL_SECURE_VALIDATE_RANGE(
; 77   : 			this->_Ptr != 0
; 78   : 			&& ((_Myvec *)this->_Getcont())->_Myfirst <= this->_Ptr
; 79   : 			&& this->_Ptr < ((_Myvec *)this->_Getcont())->_Mylast);
; 80   :  #endif /* _ITERATOR_DEBUG_LEVEL */
; 81   : 
; 82   : 		__analysis_assume(this->_Ptr != 0);
; 83   : 
; 84   : 		return (*this->_Ptr);

  00000	8b 01		 mov	 eax, DWORD PTR [ecx]

; 85   : 		}

  00002	c3		 ret	 0
??D?$_Vector_const_iterator@V?$_Vector_val@PAVioBaseChar@@V?$allocator@PAVioBaseChar@@@std@@@std@@@std@@QBEABQAVioBaseChar@@XZ ENDP ; std::_Vector_const_iterator<std::_Vector_val<ioBaseChar *,std::allocator<ioBaseChar *> > >::operator*
_TEXT	ENDS
PUBLIC	??E?$_Vector_const_iterator@V?$_Vector_val@PAVioBaseChar@@V?$allocator@PAVioBaseChar@@@std@@@std@@@std@@QAEAAV01@XZ ; std::_Vector_const_iterator<std::_Vector_val<ioBaseChar *,std::allocator<ioBaseChar *> > >::operator++
; Function compile flags: /Ogsp
;	COMDAT ??E?$_Vector_const_iterator@V?$_Vector_val@PAVioBaseChar@@V?$allocator@PAVioBaseChar@@@std@@@std@@@std@@QAEAAV01@XZ
_TEXT	SEGMENT
??E?$_Vector_const_iterator@V?$_Vector_val@PAVioBaseChar@@V?$allocator@PAVioBaseChar@@@std@@@std@@@std@@QAEAAV01@XZ PROC ; std::_Vector_const_iterator<std::_Vector_val<ioBaseChar *,std::allocator<ioBaseChar *> > >::operator++, COMDAT
; _this$ = ecx

; 93   : 		{	// preincrement

  00000	8b c1		 mov	 eax, ecx

; 94   :  #if _ITERATOR_DEBUG_LEVEL == 2
; 95   : 		if (this->_Getcont() == 0
; 96   : 			|| this->_Ptr == 0
; 97   : 			|| ((_Myvec *)this->_Getcont())->_Mylast <= this->_Ptr)
; 98   : 			{	// report error
; 99   : 			_DEBUG_ERROR("vector iterator not incrementable");
; 100  : 			_SCL_SECURE_OUT_OF_RANGE;
; 101  : 			}
; 102  : 
; 103  :  #elif _ITERATOR_DEBUG_LEVEL == 1
; 104  : 		_SCL_SECURE_VALIDATE(this->_Getcont() != 0);
; 105  : 		_SCL_SECURE_VALIDATE_RANGE(
; 106  : 			this->_Ptr != 0
; 107  : 			&& this->_Ptr < ((_Myvec *)this->_Getcont())->_Mylast);
; 108  :  #endif /* _ITERATOR_DEBUG_LEVEL */
; 109  : 
; 110  : 		++this->_Ptr;

  00002	83 00 04	 add	 DWORD PTR [eax], 4

; 111  : 		return (*this);
; 112  : 		}

  00005	c3		 ret	 0
??E?$_Vector_const_iterator@V?$_Vector_val@PAVioBaseChar@@V?$allocator@PAVioBaseChar@@@std@@@std@@@std@@QAEAAV01@XZ ENDP ; std::_Vector_const_iterator<std::_Vector_val<ioBaseChar *,std::allocator<ioBaseChar *> > >::operator++
_TEXT	ENDS
PUBLIC	?capacity@?$vector@VioHashString@@V?$allocator@VioHashString@@@std@@@std@@QBEIXZ ; std::vector<ioHashString,std::allocator<ioHashString> >::capacity
; Function compile flags: /Ogsp
;	COMDAT ?capacity@?$vector@VioHashString@@V?$allocator@VioHashString@@@std@@@std@@QBEIXZ
_TEXT	SEGMENT
?capacity@?$vector@VioHashString@@V?$allocator@VioHashString@@@std@@@std@@QBEIXZ PROC ; std::vector<ioHashString,std::allocator<ioHashString> >::capacity, COMDAT
; _this$ = ecx

; 777  : 		return (this->_Myend - this->_Myfirst);

  00000	8b 41 08	 mov	 eax, DWORD PTR [ecx+8]
  00003	2b 01		 sub	 eax, DWORD PTR [ecx]
  00005	c1 f8 04	 sar	 eax, 4

; 778  : 		}

  00008	c3		 ret	 0
?capacity@?$vector@VioHashString@@V?$allocator@VioHashString@@@std@@@std@@QBEIXZ ENDP ; std::vector<ioHashString,std::allocator<ioHashString> >::capacity
_TEXT	ENDS
PUBLIC	?_Inside@?$vector@VioHashString@@V?$allocator@VioHashString@@@std@@@std@@IBE_NPBVioHashString@@@Z ; std::vector<ioHashString,std::allocator<ioHashString> >::_Inside
; Function compile flags: /Ogsp
;	COMDAT ?_Inside@?$vector@VioHashString@@V?$allocator@VioHashString@@@std@@@std@@IBE_NPBVioHashString@@@Z
_TEXT	SEGMENT
__Ptr$ = 8						; size = 4
?_Inside@?$vector@VioHashString@@V?$allocator@VioHashString@@@std@@@std@@IBE_NPBVioHashString@@@Z PROC ; std::vector<ioHashString,std::allocator<ioHashString> >::_Inside, COMDAT
; _this$ = ecx

; 1285 : 		{	// test if _Ptr points inside vector

  00000	55		 push	 ebp
  00001	8b ec		 mov	 ebp, esp

; 1286 : 		return (_Ptr < this->_Mylast && this->_Myfirst <= _Ptr);

  00003	8b 45 08	 mov	 eax, DWORD PTR __Ptr$[ebp]
  00006	3b 41 04	 cmp	 eax, DWORD PTR [ecx+4]
  00009	73 09		 jae	 SHORT $LN3@Inside
  0000b	39 01		 cmp	 DWORD PTR [ecx], eax
  0000d	77 05		 ja	 SHORT $LN3@Inside
  0000f	33 c0		 xor	 eax, eax
  00011	40		 inc	 eax
  00012	eb 02		 jmp	 SHORT $LN4@Inside
$LN3@Inside:
  00014	33 c0		 xor	 eax, eax
$LN4@Inside:

; 1287 : 		}

  00016	5d		 pop	 ebp
  00017	c2 04 00	 ret	 4
?_Inside@?$vector@VioHashString@@V?$allocator@VioHashString@@@std@@@std@@IBE_NPBVioHashString@@@Z ENDP ; std::vector<ioHashString,std::allocator<ioHashString> >::_Inside
_TEXT	ENDS
PUBLIC	?_Orphan_range@?$vector@VioHashString@@V?$allocator@VioHashString@@@std@@@std@@IBEXPAVioHashString@@0@Z ; std::vector<ioHashString,std::allocator<ioHashString> >::_Orphan_range
; Function compile flags: /Ogsp
;	COMDAT ?_Orphan_range@?$vector@VioHashString@@V?$allocator@VioHashString@@@std@@@std@@IBEXPAVioHashString@@0@Z
_TEXT	SEGMENT
___formal$ = 8						; size = 4
___formal$ = 12						; size = 4
?_Orphan_range@?$vector@VioHashString@@V?$allocator@VioHashString@@@std@@@std@@IBEXPAVioHashString@@0@Z PROC ; std::vector<ioHashString,std::allocator<ioHashString> >::_Orphan_range, COMDAT
; _this$ = ecx

; 1454 : 		}

  00000	c2 08 00	 ret	 8
?_Orphan_range@?$vector@VioHashString@@V?$allocator@VioHashString@@@std@@@std@@IBEXPAVioHashString@@0@Z ENDP ; std::vector<ioHashString,std::allocator<ioHashString> >::_Orphan_range
_TEXT	ENDS
PUBLIC	?capacity@?$vector@UUpDownAttackAttribute@ioFireAndBuffCheckSkill@@V?$allocator@UUpDownAttackAttribute@ioFireAndBuffCheckSkill@@@std@@@std@@QBEIXZ ; std::vector<ioFireAndBuffCheckSkill::UpDownAttackAttribute,std::allocator<ioFireAndBuffCheckSkill::UpDownAttackAttribute> >::capacity
; Function compile flags: /Ogsp
;	COMDAT ?capacity@?$vector@UUpDownAttackAttribute@ioFireAndBuffCheckSkill@@V?$allocator@UUpDownAttackAttribute@ioFireAndBuffCheckSkill@@@std@@@std@@QBEIXZ
_TEXT	SEGMENT
?capacity@?$vector@UUpDownAttackAttribute@ioFireAndBuffCheckSkill@@V?$allocator@UUpDownAttackAttribute@ioFireAndBuffCheckSkill@@@std@@@std@@QBEIXZ PROC ; std::vector<ioFireAndBuffCheckSkill::UpDownAttackAttribute,std::allocator<ioFireAndBuffCheckSkill::UpDownAttackAttribute> >::capacity, COMDAT
; _this$ = ecx

; 777  : 		return (this->_Myend - this->_Myfirst);

  00000	8b 41 08	 mov	 eax, DWORD PTR [ecx+8]
  00003	2b 01		 sub	 eax, DWORD PTR [ecx]
  00005	6a 70		 push	 112			; 00000070H
  00007	99		 cdq
  00008	59		 pop	 ecx
  00009	f7 f9		 idiv	 ecx

; 778  : 		}

  0000b	c3		 ret	 0
?capacity@?$vector@UUpDownAttackAttribute@ioFireAndBuffCheckSkill@@V?$allocator@UUpDownAttackAttribute@ioFireAndBuffCheckSkill@@@std@@@std@@QBEIXZ ENDP ; std::vector<ioFireAndBuffCheckSkill::UpDownAttackAttribute,std::allocator<ioFireAndBuffCheckSkill::UpDownAttackAttribute> >::capacity
_TEXT	ENDS
PUBLIC	?_Inside@?$vector@UUpDownAttackAttribute@ioFireAndBuffCheckSkill@@V?$allocator@UUpDownAttackAttribute@ioFireAndBuffCheckSkill@@@std@@@std@@IBE_NPBUUpDownAttackAttribute@ioFireAndBuffCheckSkill@@@Z ; std::vector<ioFireAndBuffCheckSkill::UpDownAttackAttribute,std::allocator<ioFireAndBuffCheckSkill::UpDownAttackAttribute> >::_Inside
; Function compile flags: /Ogsp
;	COMDAT ?_Inside@?$vector@UUpDownAttackAttribute@ioFireAndBuffCheckSkill@@V?$allocator@UUpDownAttackAttribute@ioFireAndBuffCheckSkill@@@std@@@std@@IBE_NPBUUpDownAttackAttribute@ioFireAndBuffCheckSkill@@@Z
_TEXT	SEGMENT
__Ptr$ = 8						; size = 4
?_Inside@?$vector@UUpDownAttackAttribute@ioFireAndBuffCheckSkill@@V?$allocator@UUpDownAttackAttribute@ioFireAndBuffCheckSkill@@@std@@@std@@IBE_NPBUUpDownAttackAttribute@ioFireAndBuffCheckSkill@@@Z PROC ; std::vector<ioFireAndBuffCheckSkill::UpDownAttackAttribute,std::allocator<ioFireAndBuffCheckSkill::UpDownAttackAttribute> >::_Inside, COMDAT
; _this$ = ecx

; 1285 : 		{	// test if _Ptr points inside vector

  00000	55		 push	 ebp
  00001	8b ec		 mov	 ebp, esp

; 1286 : 		return (_Ptr < this->_Mylast && this->_Myfirst <= _Ptr);

  00003	8b 45 08	 mov	 eax, DWORD PTR __Ptr$[ebp]
  00006	3b 41 04	 cmp	 eax, DWORD PTR [ecx+4]
  00009	73 09		 jae	 SHORT $LN3@Inside@2
  0000b	39 01		 cmp	 DWORD PTR [ecx], eax
  0000d	77 05		 ja	 SHORT $LN3@Inside@2
  0000f	33 c0		 xor	 eax, eax
  00011	40		 inc	 eax
  00012	eb 02		 jmp	 SHORT $LN4@Inside@2
$LN3@Inside@2:
  00014	33 c0		 xor	 eax, eax
$LN4@Inside@2:

; 1287 : 		}

  00016	5d		 pop	 ebp
  00017	c2 04 00	 ret	 4
?_Inside@?$vector@UUpDownAttackAttribute@ioFireAndBuffCheckSkill@@V?$allocator@UUpDownAttackAttribute@ioFireAndBuffCheckSkill@@@std@@@std@@IBE_NPBUUpDownAttackAttribute@ioFireAndBuffCheckSkill@@@Z ENDP ; std::vector<ioFireAndBuffCheckSkill::UpDownAttackAttribute,std::allocator<ioFireAndBuffCheckSkill::UpDownAttackAttribute> >::_Inside
_TEXT	ENDS
PUBLIC	??_C@_0BD@OLBABOEK@vector?$DMT?$DO?5too?5long?$AA@ ; `string'
PUBLIC	?_Xlen@?$vector@UUpDownAttackAttribute@ioFireAndBuffCheckSkill@@V?$allocator@UUpDownAttackAttribute@ioFireAndBuffCheckSkill@@@std@@@std@@IBEXXZ ; std::vector<ioFireAndBuffCheckSkill::UpDownAttackAttribute,std::allocator<ioFireAndBuffCheckSkill::UpDownAttackAttribute> >::_Xlen
EXTRN	__imp_?_Xlength_error@std@@YAXPBD@Z:PROC
;	COMDAT ??_C@_0BD@OLBABOEK@vector?$DMT?$DO?5too?5long?$AA@
CONST	SEGMENT
??_C@_0BD@OLBABOEK@vector?$DMT?$DO?5too?5long?$AA@ DB 'vector<T> too long'
	DB	00H						; `string'
; Function compile flags: /Ogsp
CONST	ENDS
;	COMDAT ?_Xlen@?$vector@UUpDownAttackAttribute@ioFireAndBuffCheckSkill@@V?$allocator@UUpDownAttackAttribute@ioFireAndBuffCheckSkill@@@std@@@std@@IBEXXZ
_TEXT	SEGMENT
?_Xlen@?$vector@UUpDownAttackAttribute@ioFireAndBuffCheckSkill@@V?$allocator@UUpDownAttackAttribute@ioFireAndBuffCheckSkill@@@std@@@std@@IBEXXZ PROC ; std::vector<ioFireAndBuffCheckSkill::UpDownAttackAttribute,std::allocator<ioFireAndBuffCheckSkill::UpDownAttackAttribute> >::_Xlen, COMDAT
; _this$ = ecx

; 1427 : 		_Xlength_error("vector<T> too long");

  00000	68 00 00 00 00	 push	 OFFSET ??_C@_0BD@OLBABOEK@vector?$DMT?$DO?5too?5long?$AA@
  00005	ff 15 00 00 00
	00		 call	 DWORD PTR __imp_?_Xlength_error@std@@YAXPBD@Z
$LN4@Xlen:
$LN3@Xlen:
  0000b	cc		 int	 3
?_Xlen@?$vector@UUpDownAttackAttribute@ioFireAndBuffCheckSkill@@V?$allocator@UUpDownAttackAttribute@ioFireAndBuffCheckSkill@@@std@@@std@@IBEXXZ ENDP ; std::vector<ioFireAndBuffCheckSkill::UpDownAttackAttribute,std::allocator<ioFireAndBuffCheckSkill::UpDownAttackAttribute> >::_Xlen
_TEXT	ENDS
PUBLIC	?_Orphan_range@?$vector@UUpDownAttackAttribute@ioFireAndBuffCheckSkill@@V?$allocator@UUpDownAttackAttribute@ioFireAndBuffCheckSkill@@@std@@@std@@IBEXPAUUpDownAttackAttribute@ioFireAndBuffCheckSkill@@0@Z ; std::vector<ioFireAndBuffCheckSkill::UpDownAttackAttribute,std::allocator<ioFireAndBuffCheckSkill::UpDownAttackAttribute> >::_Orphan_range
; Function compile flags: /Ogsp
;	COMDAT ?_Orphan_range@?$vector@UUpDownAttackAttribute@ioFireAndBuffCheckSkill@@V?$allocator@UUpDownAttackAttribute@ioFireAndBuffCheckSkill@@@std@@@std@@IBEXPAUUpDownAttackAttribute@ioFireAndBuffCheckSkill@@0@Z
_TEXT	SEGMENT
___formal$ = 8						; size = 4
___formal$ = 12						; size = 4
?_Orphan_range@?$vector@UUpDownAttackAttribute@ioFireAndBuffCheckSkill@@V?$allocator@UUpDownAttackAttribute@ioFireAndBuffCheckSkill@@@std@@@std@@IBEXPAUUpDownAttackAttribute@ioFireAndBuffCheckSkill@@0@Z PROC ; std::vector<ioFireAndBuffCheckSkill::UpDownAttackAttribute,std::allocator<ioFireAndBuffCheckSkill::UpDownAttackAttribute> >::_Orphan_range, COMDAT
; _this$ = ecx

; 1454 : 		}

  00000	c2 08 00	 ret	 8
?_Orphan_range@?$vector@UUpDownAttackAttribute@ioFireAndBuffCheckSkill@@V?$allocator@UUpDownAttackAttribute@ioFireAndBuffCheckSkill@@@std@@@std@@IBEXPAUUpDownAttackAttribute@ioFireAndBuffCheckSkill@@0@Z ENDP ; std::vector<ioFireAndBuffCheckSkill::UpDownAttackAttribute,std::allocator<ioFireAndBuffCheckSkill::UpDownAttackAttribute> >::_Orphan_range
_TEXT	ENDS
PUBLIC	??1?$_Vector_val@UUpDownAttackAttribute@ioFireAndBuffCheckSkill@@V?$allocator@UUpDownAttackAttribute@ioFireAndBuffCheckSkill@@@std@@@std@@QAE@XZ ; std::_Vector_val<ioFireAndBuffCheckSkill::UpDownAttackAttribute,std::allocator<ioFireAndBuffCheckSkill::UpDownAttackAttribute> >::~_Vector_val<ioFireAndBuffCheckSkill::UpDownAttackAttribute,std::allocator<ioFireAndBuffCheckSkill::UpDownAttackAttribute> >
; Function compile flags: /Ogsp
;	COMDAT ??1?$_Vector_val@UUpDownAttackAttribute@ioFireAndBuffCheckSkill@@V?$allocator@UUpDownAttackAttribute@ioFireAndBuffCheckSkill@@@std@@@std@@QAE@XZ
_TEXT	SEGMENT
??1?$_Vector_val@UUpDownAttackAttribute@ioFireAndBuffCheckSkill@@V?$allocator@UUpDownAttackAttribute@ioFireAndBuffCheckSkill@@@std@@@std@@QAE@XZ PROC ; std::_Vector_val<ioFireAndBuffCheckSkill::UpDownAttackAttribute,std::allocator<ioFireAndBuffCheckSkill::UpDownAttackAttribute> >::~_Vector_val<ioFireAndBuffCheckSkill::UpDownAttackAttribute,std::allocator<ioFireAndBuffCheckSkill::UpDownAttackAttribute> >, COMDAT
; _this$ = ecx

; 434  : 		}

  00000	c3		 ret	 0
??1?$_Vector_val@UUpDownAttackAttribute@ioFireAndBuffCheckSkill@@V?$allocator@UUpDownAttackAttribute@ioFireAndBuffCheckSkill@@@std@@@std@@QAE@XZ ENDP ; std::_Vector_val<ioFireAndBuffCheckSkill::UpDownAttackAttribute,std::allocator<ioFireAndBuffCheckSkill::UpDownAttackAttribute> >::~_Vector_val<ioFireAndBuffCheckSkill::UpDownAttackAttribute,std::allocator<ioFireAndBuffCheckSkill::UpDownAttackAttribute> >
_TEXT	ENDS
PUBLIC	??0?$allocator@UUpDownAttackAttribute@ioFireAndBuffCheckSkill@@@std@@QAE@XZ ; std::allocator<ioFireAndBuffCheckSkill::UpDownAttackAttribute>::allocator<ioFireAndBuffCheckSkill::UpDownAttackAttribute>
; Function compile flags: /Ogsp
; File c:\program files (x86)\microsoft visual studio 10.0\vc\include\xmemory
;	COMDAT ??0?$allocator@UUpDownAttackAttribute@ioFireAndBuffCheckSkill@@@std@@QAE@XZ
_TEXT	SEGMENT
??0?$allocator@UUpDownAttackAttribute@ioFireAndBuffCheckSkill@@@std@@QAE@XZ PROC ; std::allocator<ioFireAndBuffCheckSkill::UpDownAttackAttribute>::allocator<ioFireAndBuffCheckSkill::UpDownAttackAttribute>, COMDAT
; _this$ = ecx

; 161  : 	_ALLOCATOR() _THROW0()

  00000	8b c1		 mov	 eax, ecx

; 162  : 		{	// construct default allocator (do nothing)
; 163  : 		}

  00002	c3		 ret	 0
??0?$allocator@UUpDownAttackAttribute@ioFireAndBuffCheckSkill@@@std@@QAE@XZ ENDP ; std::allocator<ioFireAndBuffCheckSkill::UpDownAttackAttribute>::allocator<ioFireAndBuffCheckSkill::UpDownAttackAttribute>
_TEXT	ENDS
PUBLIC	??0?$allocator@UUpDownAttackAttribute@ioFireAndBuffCheckSkill@@@std@@QAE@ABV01@@Z ; std::allocator<ioFireAndBuffCheckSkill::UpDownAttackAttribute>::allocator<ioFireAndBuffCheckSkill::UpDownAttackAttribute>
; Function compile flags: /Ogsp
;	COMDAT ??0?$allocator@UUpDownAttackAttribute@ioFireAndBuffCheckSkill@@@std@@QAE@ABV01@@Z
_TEXT	SEGMENT
___formal$ = 8						; size = 4
??0?$allocator@UUpDownAttackAttribute@ioFireAndBuffCheckSkill@@@std@@QAE@ABV01@@Z PROC ; std::allocator<ioFireAndBuffCheckSkill::UpDownAttackAttribute>::allocator<ioFireAndBuffCheckSkill::UpDownAttackAttribute>, COMDAT
; _this$ = ecx

; 165  : 	_ALLOCATOR(const _ALLOCATOR<_Ty>&) _THROW0()

  00000	8b c1		 mov	 eax, ecx

; 166  : 		{	// construct by copying (do nothing)
; 167  : 		}

  00002	c2 04 00	 ret	 4
??0?$allocator@UUpDownAttackAttribute@ioFireAndBuffCheckSkill@@@std@@QAE@ABV01@@Z ENDP ; std::allocator<ioFireAndBuffCheckSkill::UpDownAttackAttribute>::allocator<ioFireAndBuffCheckSkill::UpDownAttackAttribute>
_TEXT	ENDS
PUBLIC	?deallocate@?$allocator@UUpDownAttackAttribute@ioFireAndBuffCheckSkill@@@std@@QAEXPAUUpDownAttackAttribute@ioFireAndBuffCheckSkill@@I@Z ; std::allocator<ioFireAndBuffCheckSkill::UpDownAttackAttribute>::deallocate
; Function compile flags: /Ogsp
;	COMDAT ?deallocate@?$allocator@UUpDownAttackAttribute@ioFireAndBuffCheckSkill@@@std@@QAEXPAUUpDownAttackAttribute@ioFireAndBuffCheckSkill@@I@Z
_TEXT	SEGMENT
__Ptr$ = 8						; size = 4
___formal$ = 12						; size = 4
?deallocate@?$allocator@UUpDownAttackAttribute@ioFireAndBuffCheckSkill@@@std@@QAEXPAUUpDownAttackAttribute@ioFireAndBuffCheckSkill@@I@Z PROC ; std::allocator<ioFireAndBuffCheckSkill::UpDownAttackAttribute>::deallocate, COMDAT
; _this$ = ecx

; 181  : 		{	// deallocate object at _Ptr, ignore size

  00000	55		 push	 ebp
  00001	8b ec		 mov	 ebp, esp

; 182  : 		::operator delete(_Ptr);

  00003	ff 75 08	 push	 DWORD PTR __Ptr$[ebp]
  00006	e8 00 00 00 00	 call	 ??3@YAXPAX@Z		; operator delete
  0000b	59		 pop	 ecx

; 183  : 		}

  0000c	5d		 pop	 ebp
  0000d	c2 08 00	 ret	 8
?deallocate@?$allocator@UUpDownAttackAttribute@ioFireAndBuffCheckSkill@@@std@@QAEXPAUUpDownAttackAttribute@ioFireAndBuffCheckSkill@@I@Z ENDP ; std::allocator<ioFireAndBuffCheckSkill::UpDownAttackAttribute>::deallocate
_TEXT	ENDS
PUBLIC	?_Inside@?$vector@UtagBaseCharDistanceSq@@V?$allocator@UtagBaseCharDistanceSq@@@std@@@std@@IBE_NPBUtagBaseCharDistanceSq@@@Z ; std::vector<tagBaseCharDistanceSq,std::allocator<tagBaseCharDistanceSq> >::_Inside
; Function compile flags: /Ogsp
; File c:\program files (x86)\microsoft visual studio 10.0\vc\include\vector
;	COMDAT ?_Inside@?$vector@UtagBaseCharDistanceSq@@V?$allocator@UtagBaseCharDistanceSq@@@std@@@std@@IBE_NPBUtagBaseCharDistanceSq@@@Z
_TEXT	SEGMENT
__Ptr$ = 8						; size = 4
?_Inside@?$vector@UtagBaseCharDistanceSq@@V?$allocator@UtagBaseCharDistanceSq@@@std@@@std@@IBE_NPBUtagBaseCharDistanceSq@@@Z PROC ; std::vector<tagBaseCharDistanceSq,std::allocator<tagBaseCharDistanceSq> >::_Inside, COMDAT
; _this$ = ecx

; 1285 : 		{	// test if _Ptr points inside vector

  00000	55		 push	 ebp
  00001	8b ec		 mov	 ebp, esp

; 1286 : 		return (_Ptr < this->_Mylast && this->_Myfirst <= _Ptr);

  00003	8b 45 08	 mov	 eax, DWORD PTR __Ptr$[ebp]
  00006	3b 41 04	 cmp	 eax, DWORD PTR [ecx+4]
  00009	73 09		 jae	 SHORT $LN3@Inside@3
  0000b	39 01		 cmp	 DWORD PTR [ecx], eax
  0000d	77 05		 ja	 SHORT $LN3@Inside@3
  0000f	33 c0		 xor	 eax, eax
  00011	40		 inc	 eax
  00012	eb 02		 jmp	 SHORT $LN4@Inside@3
$LN3@Inside@3:
  00014	33 c0		 xor	 eax, eax
$LN4@Inside@3:

; 1287 : 		}

  00016	5d		 pop	 ebp
  00017	c2 04 00	 ret	 4
?_Inside@?$vector@UtagBaseCharDistanceSq@@V?$allocator@UtagBaseCharDistanceSq@@@std@@@std@@IBE_NPBUtagBaseCharDistanceSq@@@Z ENDP ; std::vector<tagBaseCharDistanceSq,std::allocator<tagBaseCharDistanceSq> >::_Inside
_TEXT	ENDS
PUBLIC	?_Orphan_range@?$vector@UtagBaseCharDistanceSq@@V?$allocator@UtagBaseCharDistanceSq@@@std@@@std@@IBEXPAUtagBaseCharDistanceSq@@0@Z ; std::vector<tagBaseCharDistanceSq,std::allocator<tagBaseCharDistanceSq> >::_Orphan_range
; Function compile flags: /Ogsp
;	COMDAT ?_Orphan_range@?$vector@UtagBaseCharDistanceSq@@V?$allocator@UtagBaseCharDistanceSq@@@std@@@std@@IBEXPAUtagBaseCharDistanceSq@@0@Z
_TEXT	SEGMENT
___formal$ = 8						; size = 4
___formal$ = 12						; size = 4
?_Orphan_range@?$vector@UtagBaseCharDistanceSq@@V?$allocator@UtagBaseCharDistanceSq@@@std@@@std@@IBEXPAUtagBaseCharDistanceSq@@0@Z PROC ; std::vector<tagBaseCharDistanceSq,std::allocator<tagBaseCharDistanceSq> >::_Orphan_range, COMDAT
; _this$ = ecx

; 1454 : 		}

  00000	c2 08 00	 ret	 8
?_Orphan_range@?$vector@UtagBaseCharDistanceSq@@V?$allocator@UtagBaseCharDistanceSq@@@std@@@std@@IBEXPAUtagBaseCharDistanceSq@@0@Z ENDP ; std::vector<tagBaseCharDistanceSq,std::allocator<tagBaseCharDistanceSq> >::_Orphan_range
_TEXT	ENDS
PUBLIC	??1?$_Vector_val@UtagBaseCharDistanceSq@@V?$allocator@UtagBaseCharDistanceSq@@@std@@@std@@QAE@XZ ; std::_Vector_val<tagBaseCharDistanceSq,std::allocator<tagBaseCharDistanceSq> >::~_Vector_val<tagBaseCharDistanceSq,std::allocator<tagBaseCharDistanceSq> >
; Function compile flags: /Ogsp
;	COMDAT ??1?$_Vector_val@UtagBaseCharDistanceSq@@V?$allocator@UtagBaseCharDistanceSq@@@std@@@std@@QAE@XZ
_TEXT	SEGMENT
??1?$_Vector_val@UtagBaseCharDistanceSq@@V?$allocator@UtagBaseCharDistanceSq@@@std@@@std@@QAE@XZ PROC ; std::_Vector_val<tagBaseCharDistanceSq,std::allocator<tagBaseCharDistanceSq> >::~_Vector_val<tagBaseCharDistanceSq,std::allocator<tagBaseCharDistanceSq> >, COMDAT
; _this$ = ecx

; 434  : 		}

  00000	c3		 ret	 0
??1?$_Vector_val@UtagBaseCharDistanceSq@@V?$allocator@UtagBaseCharDistanceSq@@@std@@@std@@QAE@XZ ENDP ; std::_Vector_val<tagBaseCharDistanceSq,std::allocator<tagBaseCharDistanceSq> >::~_Vector_val<tagBaseCharDistanceSq,std::allocator<tagBaseCharDistanceSq> >
_TEXT	ENDS
PUBLIC	??0?$allocator@UtagBaseCharDistanceSq@@@std@@QAE@XZ ; std::allocator<tagBaseCharDistanceSq>::allocator<tagBaseCharDistanceSq>
; Function compile flags: /Ogsp
; File c:\program files (x86)\microsoft visual studio 10.0\vc\include\xmemory
;	COMDAT ??0?$allocator@UtagBaseCharDistanceSq@@@std@@QAE@XZ
_TEXT	SEGMENT
??0?$allocator@UtagBaseCharDistanceSq@@@std@@QAE@XZ PROC ; std::allocator<tagBaseCharDistanceSq>::allocator<tagBaseCharDistanceSq>, COMDAT
; _this$ = ecx

; 161  : 	_ALLOCATOR() _THROW0()

  00000	8b c1		 mov	 eax, ecx

; 162  : 		{	// construct default allocator (do nothing)
; 163  : 		}

  00002	c3		 ret	 0
??0?$allocator@UtagBaseCharDistanceSq@@@std@@QAE@XZ ENDP ; std::allocator<tagBaseCharDistanceSq>::allocator<tagBaseCharDistanceSq>
_TEXT	ENDS
PUBLIC	??0?$_Vector_const_iterator@V?$_Vector_val@PAVioBaseChar@@V?$allocator@PAVioBaseChar@@@std@@@std@@@std@@QAE@PAPAVioBaseChar@@PBU_Container_base0@1@@Z ; std::_Vector_const_iterator<std::_Vector_val<ioBaseChar *,std::allocator<ioBaseChar *> > >::_Vector_const_iterator<std::_Vector_val<ioBaseChar *,std::allocator<ioBaseChar *> > >
; Function compile flags: /Ogsp
; File c:\program files (x86)\microsoft visual studio 10.0\vc\include\vector
;	COMDAT ??0?$_Vector_const_iterator@V?$_Vector_val@PAVioBaseChar@@V?$allocator@PAVioBaseChar@@@std@@@std@@@std@@QAE@PAPAVioBaseChar@@PBU_Container_base0@1@@Z
_TEXT	SEGMENT
__Parg$ = 8						; size = 4
__Pvector$ = 12						; size = 4
??0?$_Vector_const_iterator@V?$_Vector_val@PAVioBaseChar@@V?$allocator@PAVioBaseChar@@@std@@@std@@@std@@QAE@PAPAVioBaseChar@@PBU_Container_base0@1@@Z PROC ; std::_Vector_const_iterator<std::_Vector_val<ioBaseChar *,std::allocator<ioBaseChar *> > >::_Vector_const_iterator<std::_Vector_val<ioBaseChar *,std::allocator<ioBaseChar *> > >, COMDAT
; _this$ = ecx

; 45   : 		{	// construct with pointer _Parg

  00000	55		 push	 ebp
  00001	8b ec		 mov	 ebp, esp
  00003	8b c1		 mov	 eax, ecx
  00005	8b 4d 08	 mov	 ecx, DWORD PTR __Parg$[ebp]
  00008	89 08		 mov	 DWORD PTR [eax], ecx

; 46   : 		this->_Adopt(_Pvector);
; 47   : 		}

  0000a	5d		 pop	 ebp
  0000b	c2 08 00	 ret	 8
??0?$_Vector_const_iterator@V?$_Vector_val@PAVioBaseChar@@V?$allocator@PAVioBaseChar@@@std@@@std@@@std@@QAE@PAPAVioBaseChar@@PBU_Container_base0@1@@Z ENDP ; std::_Vector_const_iterator<std::_Vector_val<ioBaseChar *,std::allocator<ioBaseChar *> > >::_Vector_const_iterator<std::_Vector_val<ioBaseChar *,std::allocator<ioBaseChar *> > >
_TEXT	ENDS
PUBLIC	??D?$_Vector_const_iterator@V?$_Vector_val@UtagBaseCharDistanceSq@@V?$allocator@UtagBaseCharDistanceSq@@@std@@@std@@@std@@QBEABUtagBaseCharDistanceSq@@XZ ; std::_Vector_const_iterator<std::_Vector_val<tagBaseCharDistanceSq,std::allocator<tagBaseCharDistanceSq> > >::operator*
; Function compile flags: /Ogsp
;	COMDAT ??D?$_Vector_const_iterator@V?$_Vector_val@UtagBaseCharDistanceSq@@V?$allocator@UtagBaseCharDistanceSq@@@std@@@std@@@std@@QBEABUtagBaseCharDistanceSq@@XZ
_TEXT	SEGMENT
??D?$_Vector_const_iterator@V?$_Vector_val@UtagBaseCharDistanceSq@@V?$allocator@UtagBaseCharDistanceSq@@@std@@@std@@@std@@QBEABUtagBaseCharDistanceSq@@XZ PROC ; std::_Vector_const_iterator<std::_Vector_val<tagBaseCharDistanceSq,std::allocator<tagBaseCharDistanceSq> > >::operator*, COMDAT
; _this$ = ecx

; 64   :  #if _ITERATOR_DEBUG_LEVEL == 2
; 65   : 		if (this->_Getcont() == 0
; 66   : 			|| this->_Ptr == 0
; 67   : 			|| this->_Ptr < ((_Myvec *)this->_Getcont())->_Myfirst
; 68   : 			|| ((_Myvec *)this->_Getcont())->_Mylast <= this->_Ptr)
; 69   : 			{	// report error
; 70   : 			_DEBUG_ERROR("vector iterator not dereferencable");
; 71   : 			_SCL_SECURE_OUT_OF_RANGE;
; 72   : 			}
; 73   : 
; 74   :  #elif _ITERATOR_DEBUG_LEVEL == 1
; 75   : 		_SCL_SECURE_VALIDATE(this->_Getcont() != 0);
; 76   : 		_SCL_SECURE_VALIDATE_RANGE(
; 77   : 			this->_Ptr != 0
; 78   : 			&& ((_Myvec *)this->_Getcont())->_Myfirst <= this->_Ptr
; 79   : 			&& this->_Ptr < ((_Myvec *)this->_Getcont())->_Mylast);
; 80   :  #endif /* _ITERATOR_DEBUG_LEVEL */
; 81   : 
; 82   : 		__analysis_assume(this->_Ptr != 0);
; 83   : 
; 84   : 		return (*this->_Ptr);

  00000	8b 01		 mov	 eax, DWORD PTR [ecx]

; 85   : 		}

  00002	c3		 ret	 0
??D?$_Vector_const_iterator@V?$_Vector_val@UtagBaseCharDistanceSq@@V?$allocator@UtagBaseCharDistanceSq@@@std@@@std@@@std@@QBEABUtagBaseCharDistanceSq@@XZ ENDP ; std::_Vector_const_iterator<std::_Vector_val<tagBaseCharDistanceSq,std::allocator<tagBaseCharDistanceSq> > >::operator*
_TEXT	ENDS
PUBLIC	??E?$_Vector_const_iterator@V?$_Vector_val@UtagBaseCharDistanceSq@@V?$allocator@UtagBaseCharDistanceSq@@@std@@@std@@@std@@QAEAAV01@XZ ; std::_Vector_const_iterator<std::_Vector_val<tagBaseCharDistanceSq,std::allocator<tagBaseCharDistanceSq> > >::operator++
; Function compile flags: /Ogsp
;	COMDAT ??E?$_Vector_const_iterator@V?$_Vector_val@UtagBaseCharDistanceSq@@V?$allocator@UtagBaseCharDistanceSq@@@std@@@std@@@std@@QAEAAV01@XZ
_TEXT	SEGMENT
??E?$_Vector_const_iterator@V?$_Vector_val@UtagBaseCharDistanceSq@@V?$allocator@UtagBaseCharDistanceSq@@@std@@@std@@@std@@QAEAAV01@XZ PROC ; std::_Vector_const_iterator<std::_Vector_val<tagBaseCharDistanceSq,std::allocator<tagBaseCharDistanceSq> > >::operator++, COMDAT
; _this$ = ecx

; 93   : 		{	// preincrement

  00000	8b c1		 mov	 eax, ecx

; 94   :  #if _ITERATOR_DEBUG_LEVEL == 2
; 95   : 		if (this->_Getcont() == 0
; 96   : 			|| this->_Ptr == 0
; 97   : 			|| ((_Myvec *)this->_Getcont())->_Mylast <= this->_Ptr)
; 98   : 			{	// report error
; 99   : 			_DEBUG_ERROR("vector iterator not incrementable");
; 100  : 			_SCL_SECURE_OUT_OF_RANGE;
; 101  : 			}
; 102  : 
; 103  :  #elif _ITERATOR_DEBUG_LEVEL == 1
; 104  : 		_SCL_SECURE_VALIDATE(this->_Getcont() != 0);
; 105  : 		_SCL_SECURE_VALIDATE_RANGE(
; 106  : 			this->_Ptr != 0
; 107  : 			&& this->_Ptr < ((_Myvec *)this->_Getcont())->_Mylast);
; 108  :  #endif /* _ITERATOR_DEBUG_LEVEL */
; 109  : 
; 110  : 		++this->_Ptr;

  00002	83 00 20	 add	 DWORD PTR [eax], 32	; 00000020H

; 111  : 		return (*this);
; 112  : 		}

  00005	c3		 ret	 0
??E?$_Vector_const_iterator@V?$_Vector_val@UtagBaseCharDistanceSq@@V?$allocator@UtagBaseCharDistanceSq@@@std@@@std@@@std@@QAEAAV01@XZ ENDP ; std::_Vector_const_iterator<std::_Vector_val<tagBaseCharDistanceSq,std::allocator<tagBaseCharDistanceSq> > >::operator++
_TEXT	ENDS
PUBLIC	?max_size@?$allocator@UUpDownAttackAttribute@ioFireAndBuffCheckSkill@@@std@@QBEIXZ ; std::allocator<ioFireAndBuffCheckSkill::UpDownAttackAttribute>::max_size
; Function compile flags: /Ogsp
; File c:\program files (x86)\microsoft visual studio 10.0\vc\include\xmemory
;	COMDAT ?max_size@?$allocator@UUpDownAttackAttribute@ioFireAndBuffCheckSkill@@@std@@QBEIXZ
_TEXT	SEGMENT
?max_size@?$allocator@UUpDownAttackAttribute@ioFireAndBuffCheckSkill@@@std@@QBEIXZ PROC ; std::allocator<ioFireAndBuffCheckSkill::UpDownAttackAttribute>::max_size, COMDAT
; _this$ = ecx

; 218  : 		_SIZT _Count = (_SIZT)(-1) / sizeof (_Ty);
; 219  : 		return (0 < _Count ? _Count : 1);

  00000	b8 92 24 49 02	 mov	 eax, 38347922		; 02492492H

; 220  : 		}

  00005	c3		 ret	 0
?max_size@?$allocator@UUpDownAttackAttribute@ioFireAndBuffCheckSkill@@@std@@QBEIXZ ENDP ; std::allocator<ioFireAndBuffCheckSkill::UpDownAttackAttribute>::max_size
_TEXT	ENDS
PUBLIC	?capacity@?$vector@UtagBaseCharDistanceSq@@V?$allocator@UtagBaseCharDistanceSq@@@std@@@std@@QBEIXZ ; std::vector<tagBaseCharDistanceSq,std::allocator<tagBaseCharDistanceSq> >::capacity
; Function compile flags: /Ogsp
; File c:\program files (x86)\microsoft visual studio 10.0\vc\include\vector
;	COMDAT ?capacity@?$vector@UtagBaseCharDistanceSq@@V?$allocator@UtagBaseCharDistanceSq@@@std@@@std@@QBEIXZ
_TEXT	SEGMENT
?capacity@?$vector@UtagBaseCharDistanceSq@@V?$allocator@UtagBaseCharDistanceSq@@@std@@@std@@QBEIXZ PROC ; std::vector<tagBaseCharDistanceSq,std::allocator<tagBaseCharDistanceSq> >::capacity, COMDAT
; _this$ = ecx

; 777  : 		return (this->_Myend - this->_Myfirst);

  00000	8b 41 08	 mov	 eax, DWORD PTR [ecx+8]
  00003	2b 01		 sub	 eax, DWORD PTR [ecx]
  00005	c1 f8 05	 sar	 eax, 5

; 778  : 		}

  00008	c3		 ret	 0
?capacity@?$vector@UtagBaseCharDistanceSq@@V?$allocator@UtagBaseCharDistanceSq@@@std@@@std@@QBEIXZ ENDP ; std::vector<tagBaseCharDistanceSq,std::allocator<tagBaseCharDistanceSq> >::capacity
_TEXT	ENDS
PUBLIC	?_Xlen@?$vector@UtagBaseCharDistanceSq@@V?$allocator@UtagBaseCharDistanceSq@@@std@@@std@@IBEXXZ ; std::vector<tagBaseCharDistanceSq,std::allocator<tagBaseCharDistanceSq> >::_Xlen
; Function compile flags: /Ogsp
;	COMDAT ?_Xlen@?$vector@UtagBaseCharDistanceSq@@V?$allocator@UtagBaseCharDistanceSq@@@std@@@std@@IBEXXZ
_TEXT	SEGMENT
?_Xlen@?$vector@UtagBaseCharDistanceSq@@V?$allocator@UtagBaseCharDistanceSq@@@std@@@std@@IBEXXZ PROC ; std::vector<tagBaseCharDistanceSq,std::allocator<tagBaseCharDistanceSq> >::_Xlen, COMDAT
; _this$ = ecx

; 1427 : 		_Xlength_error("vector<T> too long");

  00000	68 00 00 00 00	 push	 OFFSET ??_C@_0BD@OLBABOEK@vector?$DMT?$DO?5too?5long?$AA@
  00005	ff 15 00 00 00
	00		 call	 DWORD PTR __imp_?_Xlength_error@std@@YAXPBD@Z
$LN4@Xlen@2:
$LN3@Xlen@2:
  0000b	cc		 int	 3
?_Xlen@?$vector@UtagBaseCharDistanceSq@@V?$allocator@UtagBaseCharDistanceSq@@@std@@@std@@IBEXXZ ENDP ; std::vector<tagBaseCharDistanceSq,std::allocator<tagBaseCharDistanceSq> >::_Xlen
_TEXT	ENDS
PUBLIC	??0?$allocator@UtagBaseCharDistanceSq@@@std@@QAE@ABV01@@Z ; std::allocator<tagBaseCharDistanceSq>::allocator<tagBaseCharDistanceSq>
; Function compile flags: /Ogsp
; File c:\program files (x86)\microsoft visual studio 10.0\vc\include\xmemory
;	COMDAT ??0?$allocator@UtagBaseCharDistanceSq@@@std@@QAE@ABV01@@Z
_TEXT	SEGMENT
___formal$ = 8						; size = 4
??0?$allocator@UtagBaseCharDistanceSq@@@std@@QAE@ABV01@@Z PROC ; std::allocator<tagBaseCharDistanceSq>::allocator<tagBaseCharDistanceSq>, COMDAT
; _this$ = ecx

; 165  : 	_ALLOCATOR(const _ALLOCATOR<_Ty>&) _THROW0()

  00000	8b c1		 mov	 eax, ecx

; 166  : 		{	// construct by copying (do nothing)
; 167  : 		}

  00002	c2 04 00	 ret	 4
??0?$allocator@UtagBaseCharDistanceSq@@@std@@QAE@ABV01@@Z ENDP ; std::allocator<tagBaseCharDistanceSq>::allocator<tagBaseCharDistanceSq>
_TEXT	ENDS
PUBLIC	?deallocate@?$allocator@UtagBaseCharDistanceSq@@@std@@QAEXPAUtagBaseCharDistanceSq@@I@Z ; std::allocator<tagBaseCharDistanceSq>::deallocate
; Function compile flags: /Ogsp
;	COMDAT ?deallocate@?$allocator@UtagBaseCharDistanceSq@@@std@@QAEXPAUtagBaseCharDistanceSq@@I@Z
_TEXT	SEGMENT
__Ptr$ = 8						; size = 4
___formal$ = 12						; size = 4
?deallocate@?$allocator@UtagBaseCharDistanceSq@@@std@@QAEXPAUtagBaseCharDistanceSq@@I@Z PROC ; std::allocator<tagBaseCharDistanceSq>::deallocate, COMDAT
; _this$ = ecx

; 181  : 		{	// deallocate object at _Ptr, ignore size

  00000	55		 push	 ebp
  00001	8b ec		 mov	 ebp, esp

; 182  : 		::operator delete(_Ptr);

  00003	ff 75 08	 push	 DWORD PTR __Ptr$[ebp]
  00006	e8 00 00 00 00	 call	 ??3@YAXPAX@Z		; operator delete
  0000b	59		 pop	 ecx

; 183  : 		}

  0000c	5d		 pop	 ebp
  0000d	c2 08 00	 ret	 8
?deallocate@?$allocator@UtagBaseCharDistanceSq@@@std@@QAEXPAUtagBaseCharDistanceSq@@I@Z ENDP ; std::allocator<tagBaseCharDistanceSq>::deallocate
_TEXT	ENDS
PUBLIC	?_Compat@?$_Vector_const_iterator@V?$_Vector_val@PAVioBaseChar@@V?$allocator@PAVioBaseChar@@@std@@@std@@@std@@QBEXABV12@@Z ; std::_Vector_const_iterator<std::_Vector_val<ioBaseChar *,std::allocator<ioBaseChar *> > >::_Compat
; Function compile flags: /Ogsp
; File c:\program files (x86)\microsoft visual studio 10.0\vc\include\vector
;	COMDAT ?_Compat@?$_Vector_const_iterator@V?$_Vector_val@PAVioBaseChar@@V?$allocator@PAVioBaseChar@@@std@@@std@@@std@@QBEXABV12@@Z
_TEXT	SEGMENT
___formal$ = 8						; size = 4
?_Compat@?$_Vector_const_iterator@V?$_Vector_val@PAVioBaseChar@@V?$allocator@PAVioBaseChar@@@std@@@std@@@std@@QBEXABV12@@Z PROC ; std::_Vector_const_iterator<std::_Vector_val<ioBaseChar *,std::allocator<ioBaseChar *> > >::_Compat, COMDAT
; _this$ = ecx

; 253  : 		}

  00000	c2 04 00	 ret	 4
?_Compat@?$_Vector_const_iterator@V?$_Vector_val@PAVioBaseChar@@V?$allocator@PAVioBaseChar@@@std@@@std@@@std@@QBEXABV12@@Z ENDP ; std::_Vector_const_iterator<std::_Vector_val<ioBaseChar *,std::allocator<ioBaseChar *> > >::_Compat
_TEXT	ENDS
PUBLIC	??0?$_Vector_const_iterator@V?$_Vector_val@UtagBaseCharDistanceSq@@V?$allocator@UtagBaseCharDistanceSq@@@std@@@std@@@std@@QAE@PAUtagBaseCharDistanceSq@@PBU_Container_base0@1@@Z ; std::_Vector_const_iterator<std::_Vector_val<tagBaseCharDistanceSq,std::allocator<tagBaseCharDistanceSq> > >::_Vector_const_iterator<std::_Vector_val<tagBaseCharDistanceSq,std::allocator<tagBaseCharDistanceSq> > >
; Function compile flags: /Ogsp
;	COMDAT ??0?$_Vector_const_iterator@V?$_Vector_val@UtagBaseCharDistanceSq@@V?$allocator@UtagBaseCharDistanceSq@@@std@@@std@@@std@@QAE@PAUtagBaseCharDistanceSq@@PBU_Container_base0@1@@Z
_TEXT	SEGMENT
__Parg$ = 8						; size = 4
__Pvector$ = 12						; size = 4
??0?$_Vector_const_iterator@V?$_Vector_val@UtagBaseCharDistanceSq@@V?$allocator@UtagBaseCharDistanceSq@@@std@@@std@@@std@@QAE@PAUtagBaseCharDistanceSq@@PBU_Container_base0@1@@Z PROC ; std::_Vector_const_iterator<std::_Vector_val<tagBaseCharDistanceSq,std::allocator<tagBaseCharDistanceSq> > >::_Vector_const_iterator<std::_Vector_val<tagBaseCharDistanceSq,std::allocator<tagBaseCharDistanceSq> > >, COMDAT
; _this$ = ecx

; 45   : 		{	// construct with pointer _Parg

  00000	55		 push	 ebp
  00001	8b ec		 mov	 ebp, esp
  00003	8b c1		 mov	 eax, ecx
  00005	8b 4d 08	 mov	 ecx, DWORD PTR __Parg$[ebp]
  00008	89 08		 mov	 DWORD PTR [eax], ecx

; 46   : 		this->_Adopt(_Pvector);
; 47   : 		}

  0000a	5d		 pop	 ebp
  0000b	c2 08 00	 ret	 8
??0?$_Vector_const_iterator@V?$_Vector_val@UtagBaseCharDistanceSq@@V?$allocator@UtagBaseCharDistanceSq@@@std@@@std@@@std@@QAE@PAUtagBaseCharDistanceSq@@PBU_Container_base0@1@@Z ENDP ; std::_Vector_const_iterator<std::_Vector_val<tagBaseCharDistanceSq,std::allocator<tagBaseCharDistanceSq> > >::_Vector_const_iterator<std::_Vector_val<tagBaseCharDistanceSq,std::allocator<tagBaseCharDistanceSq> > >
_TEXT	ENDS
PUBLIC	?_Compat@?$_Vector_const_iterator@V?$_Vector_val@UtagBaseCharDistanceSq@@V?$allocator@UtagBaseCharDistanceSq@@@std@@@std@@@std@@QBEXABV12@@Z ; std::_Vector_const_iterator<std::_Vector_val<tagBaseCharDistanceSq,std::allocator<tagBaseCharDistanceSq> > >::_Compat
; Function compile flags: /Ogsp
;	COMDAT ?_Compat@?$_Vector_const_iterator@V?$_Vector_val@UtagBaseCharDistanceSq@@V?$allocator@UtagBaseCharDistanceSq@@@std@@@std@@@std@@QBEXABV12@@Z
_TEXT	SEGMENT
___formal$ = 8						; size = 4
?_Compat@?$_Vector_const_iterator@V?$_Vector_val@UtagBaseCharDistanceSq@@V?$allocator@UtagBaseCharDistanceSq@@@std@@@std@@@std@@QBEXABV12@@Z PROC ; std::_Vector_const_iterator<std::_Vector_val<tagBaseCharDistanceSq,std::allocator<tagBaseCharDistanceSq> > >::_Compat, COMDAT
; _this$ = ecx

; 253  : 		}

  00000	c2 04 00	 ret	 4
?_Compat@?$_Vector_const_iterator@V?$_Vector_val@UtagBaseCharDistanceSq@@V?$allocator@UtagBaseCharDistanceSq@@@std@@@std@@@std@@QBEXABV12@@Z ENDP ; std::_Vector_const_iterator<std::_Vector_val<tagBaseCharDistanceSq,std::allocator<tagBaseCharDistanceSq> > >::_Compat
_TEXT	ENDS
PUBLIC	??0?$_Vector_const_iterator@V?$_Vector_val@UUpDownAttackAttribute@ioFireAndBuffCheckSkill@@V?$allocator@UUpDownAttackAttribute@ioFireAndBuffCheckSkill@@@std@@@std@@@std@@QAE@PAUUpDownAttackAttribute@ioFireAndBuffCheckSkill@@PBU_Container_base0@1@@Z ; std::_Vector_const_iterator<std::_Vector_val<ioFireAndBuffCheckSkill::UpDownAttackAttribute,std::allocator<ioFireAndBuffCheckSkill::UpDownAttackAttribute> > >::_Vector_const_iterator<std::_Vector_val<ioFireAndBuffCheckSkill::UpDownAttackAttribute,std::allocator<ioFireAndBuffCheckSkill::UpDownAttackAttribute> > >
; Function compile flags: /Ogsp
;	COMDAT ??0?$_Vector_const_iterator@V?$_Vector_val@UUpDownAttackAttribute@ioFireAndBuffCheckSkill@@V?$allocator@UUpDownAttackAttribute@ioFireAndBuffCheckSkill@@@std@@@std@@@std@@QAE@PAUUpDownAttackAttribute@ioFireAndBuffCheckSkill@@PBU_Container_base0@1@@Z
_TEXT	SEGMENT
__Parg$ = 8						; size = 4
__Pvector$ = 12						; size = 4
??0?$_Vector_const_iterator@V?$_Vector_val@UUpDownAttackAttribute@ioFireAndBuffCheckSkill@@V?$allocator@UUpDownAttackAttribute@ioFireAndBuffCheckSkill@@@std@@@std@@@std@@QAE@PAUUpDownAttackAttribute@ioFireAndBuffCheckSkill@@PBU_Container_base0@1@@Z PROC ; std::_Vector_const_iterator<std::_Vector_val<ioFireAndBuffCheckSkill::UpDownAttackAttribute,std::allocator<ioFireAndBuffCheckSkill::UpDownAttackAttribute> > >::_Vector_const_iterator<std::_Vector_val<ioFireAndBuffCheckSkill::UpDownAttackAttribute,std::allocator<ioFireAndBuffCheckSkill::UpDownAttackAttribute> > >, COMDAT
; _this$ = ecx

; 45   : 		{	// construct with pointer _Parg

  00000	55		 push	 ebp
  00001	8b ec		 mov	 ebp, esp
  00003	8b c1		 mov	 eax, ecx
  00005	8b 4d 08	 mov	 ecx, DWORD PTR __Parg$[ebp]
  00008	89 08		 mov	 DWORD PTR [eax], ecx

; 46   : 		this->_Adopt(_Pvector);
; 47   : 		}

  0000a	5d		 pop	 ebp
  0000b	c2 08 00	 ret	 8
??0?$_Vector_const_iterator@V?$_Vector_val@UUpDownAttackAttribute@ioFireAndBuffCheckSkill@@V?$allocator@UUpDownAttackAttribute@ioFireAndBuffCheckSkill@@@std@@@std@@@std@@QAE@PAUUpDownAttackAttribute@ioFireAndBuffCheckSkill@@PBU_Container_base0@1@@Z ENDP ; std::_Vector_const_iterator<std::_Vector_val<ioFireAndBuffCheckSkill::UpDownAttackAttribute,std::allocator<ioFireAndBuffCheckSkill::UpDownAttackAttribute> > >::_Vector_const_iterator<std::_Vector_val<ioFireAndBuffCheckSkill::UpDownAttackAttribute,std::allocator<ioFireAndBuffCheckSkill::UpDownAttackAttribute> > >
_TEXT	ENDS
PUBLIC	??0?$_Vector_iterator@V?$_Vector_val@UUpDownAttackAttribute@ioFireAndBuffCheckSkill@@V?$allocator@UUpDownAttackAttribute@ioFireAndBuffCheckSkill@@@std@@@std@@@std@@QAE@PAUUpDownAttackAttribute@ioFireAndBuffCheckSkill@@PBU_Container_base0@1@@Z ; std::_Vector_iterator<std::_Vector_val<ioFireAndBuffCheckSkill::UpDownAttackAttribute,std::allocator<ioFireAndBuffCheckSkill::UpDownAttackAttribute> > >::_Vector_iterator<std::_Vector_val<ioFireAndBuffCheckSkill::UpDownAttackAttribute,std::allocator<ioFireAndBuffCheckSkill::UpDownAttackAttribute> > >
; Function compile flags: /Ogsp
;	COMDAT ??0?$_Vector_iterator@V?$_Vector_val@UUpDownAttackAttribute@ioFireAndBuffCheckSkill@@V?$allocator@UUpDownAttackAttribute@ioFireAndBuffCheckSkill@@@std@@@std@@@std@@QAE@PAUUpDownAttackAttribute@ioFireAndBuffCheckSkill@@PBU_Container_base0@1@@Z
_TEXT	SEGMENT
__Parg$ = 8						; size = 4
__Pvector$ = 12						; size = 4
??0?$_Vector_iterator@V?$_Vector_val@UUpDownAttackAttribute@ioFireAndBuffCheckSkill@@V?$allocator@UUpDownAttackAttribute@ioFireAndBuffCheckSkill@@@std@@@std@@@std@@QAE@PAUUpDownAttackAttribute@ioFireAndBuffCheckSkill@@PBU_Container_base0@1@@Z PROC ; std::_Vector_iterator<std::_Vector_val<ioFireAndBuffCheckSkill::UpDownAttackAttribute,std::allocator<ioFireAndBuffCheckSkill::UpDownAttackAttribute> > >::_Vector_iterator<std::_Vector_val<ioFireAndBuffCheckSkill::UpDownAttackAttribute,std::allocator<ioFireAndBuffCheckSkill::UpDownAttackAttribute> > >, COMDAT
; _this$ = ecx

; 304  : 		{	// construct with pointer _Parg

  00000	55		 push	 ebp
  00001	8b ec		 mov	 ebp, esp
  00003	8b c1		 mov	 eax, ecx
  00005	8b 4d 08	 mov	 ecx, DWORD PTR __Parg$[ebp]
  00008	89 08		 mov	 DWORD PTR [eax], ecx

; 305  : 		}

  0000a	5d		 pop	 ebp
  0000b	c2 08 00	 ret	 8
??0?$_Vector_iterator@V?$_Vector_val@UUpDownAttackAttribute@ioFireAndBuffCheckSkill@@V?$allocator@UUpDownAttackAttribute@ioFireAndBuffCheckSkill@@@std@@@std@@@std@@QAE@PAUUpDownAttackAttribute@ioFireAndBuffCheckSkill@@PBU_Container_base0@1@@Z ENDP ; std::_Vector_iterator<std::_Vector_val<ioFireAndBuffCheckSkill::UpDownAttackAttribute,std::allocator<ioFireAndBuffCheckSkill::UpDownAttackAttribute> > >::_Vector_iterator<std::_Vector_val<ioFireAndBuffCheckSkill::UpDownAttackAttribute,std::allocator<ioFireAndBuffCheckSkill::UpDownAttackAttribute> > >
_TEXT	ENDS
PUBLIC	?max_size@?$allocator@UtagBaseCharDistanceSq@@@std@@QBEIXZ ; std::allocator<tagBaseCharDistanceSq>::max_size
; Function compile flags: /Ogsp
; File c:\program files (x86)\microsoft visual studio 10.0\vc\include\xmemory
;	COMDAT ?max_size@?$allocator@UtagBaseCharDistanceSq@@@std@@QBEIXZ
_TEXT	SEGMENT
?max_size@?$allocator@UtagBaseCharDistanceSq@@@std@@QBEIXZ PROC ; std::allocator<tagBaseCharDistanceSq>::max_size, COMDAT
; _this$ = ecx

; 218  : 		_SIZT _Count = (_SIZT)(-1) / sizeof (_Ty);
; 219  : 		return (0 < _Count ? _Count : 1);

  00000	b8 ff ff ff 07	 mov	 eax, 134217727		; 07ffffffH

; 220  : 		}

  00005	c3		 ret	 0
?max_size@?$allocator@UtagBaseCharDistanceSq@@@std@@QBEIXZ ENDP ; std::allocator<tagBaseCharDistanceSq>::max_size
_TEXT	ENDS
PUBLIC	?_Compat@?$_Vector_const_iterator@V?$_Vector_val@UUpDownAttackAttribute@ioFireAndBuffCheckSkill@@V?$allocator@UUpDownAttackAttribute@ioFireAndBuffCheckSkill@@@std@@@std@@@std@@QBEXABV12@@Z ; std::_Vector_const_iterator<std::_Vector_val<ioFireAndBuffCheckSkill::UpDownAttackAttribute,std::allocator<ioFireAndBuffCheckSkill::UpDownAttackAttribute> > >::_Compat
; Function compile flags: /Ogsp
; File c:\program files (x86)\microsoft visual studio 10.0\vc\include\vector
;	COMDAT ?_Compat@?$_Vector_const_iterator@V?$_Vector_val@UUpDownAttackAttribute@ioFireAndBuffCheckSkill@@V?$allocator@UUpDownAttackAttribute@ioFireAndBuffCheckSkill@@@std@@@std@@@std@@QBEXABV12@@Z
_TEXT	SEGMENT
___formal$ = 8						; size = 4
?_Compat@?$_Vector_const_iterator@V?$_Vector_val@UUpDownAttackAttribute@ioFireAndBuffCheckSkill@@V?$allocator@UUpDownAttackAttribute@ioFireAndBuffCheckSkill@@@std@@@std@@@std@@QBEXABV12@@Z PROC ; std::_Vector_const_iterator<std::_Vector_val<ioFireAndBuffCheckSkill::UpDownAttackAttribute,std::allocator<ioFireAndBuffCheckSkill::UpDownAttackAttribute> > >::_Compat, COMDAT
; _this$ = ecx

; 253  : 		}

  00000	c2 04 00	 ret	 4
?_Compat@?$_Vector_const_iterator@V?$_Vector_val@UUpDownAttackAttribute@ioFireAndBuffCheckSkill@@V?$allocator@UUpDownAttackAttribute@ioFireAndBuffCheckSkill@@@std@@@std@@@std@@QBEXABV12@@Z ENDP ; std::_Vector_const_iterator<std::_Vector_val<ioFireAndBuffCheckSkill::UpDownAttackAttribute,std::allocator<ioFireAndBuffCheckSkill::UpDownAttackAttribute> > >::_Compat
_TEXT	ENDS
PUBLIC	??0D3DXVECTOR3@@QAE@XZ				; D3DXVECTOR3::D3DXVECTOR3
; Function compile flags: /Ogsp
; File c:\program files (x86)\microsoft directx sdk (june 2010)\include\d3dx9math.h
;	COMDAT ??0D3DXVECTOR3@@QAE@XZ
_TEXT	SEGMENT
??0D3DXVECTOR3@@QAE@XZ PROC				; D3DXVECTOR3::D3DXVECTOR3, COMDAT
; _this$ = ecx

; 165  :     D3DXVECTOR3() {};

  00000	8b c1		 mov	 eax, ecx
  00002	c3		 ret	 0
??0D3DXVECTOR3@@QAE@XZ ENDP				; D3DXVECTOR3::D3DXVECTOR3
_TEXT	ENDS
PUBLIC	??0D3DXVECTOR3@@QAE@MMM@Z			; D3DXVECTOR3::D3DXVECTOR3
; Function compile flags: /Ogsp
; File c:\program files (x86)\microsoft directx sdk (june 2010)\include\d3dx9math.inl
;	COMDAT ??0D3DXVECTOR3@@QAE@MMM@Z
_TEXT	SEGMENT
_fx$ = 8						; size = 4
_fy$ = 12						; size = 4
_fz$ = 16						; size = 4
??0D3DXVECTOR3@@QAE@MMM@Z PROC				; D3DXVECTOR3::D3DXVECTOR3, COMDAT
; _this$ = ecx

; 303  : {

  00000	55		 push	 ebp
  00001	8b ec		 mov	 ebp, esp

; 304  :     x = fx;

  00003	f3 0f 10 45 08	 movss	 xmm0, DWORD PTR _fx$[ebp]
  00008	8b c1		 mov	 eax, ecx
  0000a	f3 0f 11 00	 movss	 DWORD PTR [eax], xmm0

; 305  :     y = fy;

  0000e	f3 0f 10 45 0c	 movss	 xmm0, DWORD PTR _fy$[ebp]
  00013	f3 0f 11 40 04	 movss	 DWORD PTR [eax+4], xmm0

; 306  :     z = fz;

  00018	f3 0f 10 45 10	 movss	 xmm0, DWORD PTR _fz$[ebp]
  0001d	f3 0f 11 40 08	 movss	 DWORD PTR [eax+8], xmm0

; 307  : }

  00022	5d		 pop	 ebp
  00023	c2 0c 00	 ret	 12			; 0000000cH
??0D3DXVECTOR3@@QAE@MMM@Z ENDP				; D3DXVECTOR3::D3DXVECTOR3
_TEXT	ENDS
PUBLIC	??GD3DXVECTOR3@@QBE?AU0@ABU0@@Z			; D3DXVECTOR3::operator-
; Function compile flags: /Ogsp
;	COMDAT ??GD3DXVECTOR3@@QBE?AU0@ABU0@@Z
_TEXT	SEGMENT
___$ReturnUdt$ = 8					; size = 4
_v$ = 12						; size = 4
??GD3DXVECTOR3@@QBE?AU0@ABU0@@Z PROC			; D3DXVECTOR3::operator-, COMDAT
; _this$ = ecx

; 386  : {

  00000	55		 push	 ebp
  00001	8b ec		 mov	 ebp, esp

; 387  :     return D3DXVECTOR3(x - v.x, y - v.y, z - v.z);

  00003	8b 55 0c	 mov	 edx, DWORD PTR _v$[ebp]
  00006	f3 0f 10 01	 movss	 xmm0, DWORD PTR [ecx]
  0000a	f3 0f 10 0a	 movss	 xmm1, DWORD PTR [edx]
  0000e	8b 45 08	 mov	 eax, DWORD PTR ___$ReturnUdt$[ebp]
  00011	0f 5a c0	 cvtps2pd xmm0, xmm0
  00014	0f 5a c9	 cvtps2pd xmm1, xmm1
  00017	f2 0f 5c c1	 subsd	 xmm0, xmm1
  0001b	f3 0f 10 4a 04	 movss	 xmm1, DWORD PTR [edx+4]
  00020	66 0f 5a c0	 cvtpd2ps xmm0, xmm0
  00024	f3 0f 11 00	 movss	 DWORD PTR [eax], xmm0
  00028	f3 0f 10 41 04	 movss	 xmm0, DWORD PTR [ecx+4]
  0002d	0f 5a c0	 cvtps2pd xmm0, xmm0
  00030	0f 5a c9	 cvtps2pd xmm1, xmm1
  00033	f2 0f 5c c1	 subsd	 xmm0, xmm1
  00037	f3 0f 10 4a 08	 movss	 xmm1, DWORD PTR [edx+8]
  0003c	66 0f 5a c0	 cvtpd2ps xmm0, xmm0
  00040	f3 0f 11 40 04	 movss	 DWORD PTR [eax+4], xmm0
  00045	f3 0f 10 41 08	 movss	 xmm0, DWORD PTR [ecx+8]
  0004a	0f 5a c0	 cvtps2pd xmm0, xmm0
  0004d	0f 5a c9	 cvtps2pd xmm1, xmm1
  00050	f2 0f 5c c1	 subsd	 xmm0, xmm1
  00054	66 0f 5a c0	 cvtpd2ps xmm0, xmm0
  00058	f3 0f 11 40 08	 movss	 DWORD PTR [eax+8], xmm0

; 388  : }

  0005d	5d		 pop	 ebp
  0005e	c2 08 00	 ret	 8
??GD3DXVECTOR3@@QBE?AU0@ABU0@@Z ENDP			; D3DXVECTOR3::operator-
_TEXT	ENDS
PUBLIC	??8D3DXVECTOR3@@QBEHABU0@@Z			; D3DXVECTOR3::operator==
; Function compile flags: /Ogsp
;	COMDAT ??8D3DXVECTOR3@@QBEHABU0@@Z
_TEXT	SEGMENT
_v$ = 8							; size = 4
??8D3DXVECTOR3@@QBEHABU0@@Z PROC			; D3DXVECTOR3::operator==, COMDAT
; _this$ = ecx

; 413  : {

  00000	55		 push	 ebp
  00001	8b ec		 mov	 ebp, esp

; 414  :     return x == v.x && y == v.y && z == v.z;

  00003	8b 55 08	 mov	 edx, DWORD PTR _v$[ebp]
  00006	f3 0f 10 01	 movss	 xmm0, DWORD PTR [ecx]
  0000a	f3 0f 10 0a	 movss	 xmm1, DWORD PTR [edx]
  0000e	0f 5a c0	 cvtps2pd xmm0, xmm0
  00011	0f 5a c9	 cvtps2pd xmm1, xmm1
  00014	66 0f 2e c1	 ucomisd xmm0, xmm1
  00018	9f		 lahf
  00019	f6 c4 44	 test	 ah, 68			; 00000044H
  0001c	7a 39		 jp	 SHORT $LN3@operator
  0001e	f3 0f 10 41 04	 movss	 xmm0, DWORD PTR [ecx+4]
  00023	f3 0f 10 4a 04	 movss	 xmm1, DWORD PTR [edx+4]
  00028	0f 5a c0	 cvtps2pd xmm0, xmm0
  0002b	0f 5a c9	 cvtps2pd xmm1, xmm1
  0002e	66 0f 2e c1	 ucomisd xmm0, xmm1
  00032	9f		 lahf
  00033	f6 c4 44	 test	 ah, 68			; 00000044H
  00036	7a 1f		 jp	 SHORT $LN3@operator
  00038	f3 0f 10 41 08	 movss	 xmm0, DWORD PTR [ecx+8]
  0003d	f3 0f 10 4a 08	 movss	 xmm1, DWORD PTR [edx+8]
  00042	0f 5a c0	 cvtps2pd xmm0, xmm0
  00045	0f 5a c9	 cvtps2pd xmm1, xmm1
  00048	66 0f 2e c1	 ucomisd xmm0, xmm1
  0004c	9f		 lahf
  0004d	f6 c4 44	 test	 ah, 68			; 00000044H
  00050	7a 05		 jp	 SHORT $LN3@operator
  00052	33 c0		 xor	 eax, eax
  00054	40		 inc	 eax
  00055	eb 02		 jmp	 SHORT $LN4@operator
$LN3@operator:
  00057	33 c0		 xor	 eax, eax
$LN4@operator:

; 415  : }

  00059	5d		 pop	 ebp
  0005a	c2 04 00	 ret	 4
??8D3DXVECTOR3@@QBEHABU0@@Z ENDP			; D3DXVECTOR3::operator==
_TEXT	ENDS
PUBLIC	??$addressof@$$CBVioHashString@@@std@@YAPBVioHashString@@ABV1@@Z ; std::addressof<ioHashString const >
; Function compile flags: /Ogsp
; File c:\program files (x86)\microsoft visual studio 10.0\vc\include\xmemory
;	COMDAT ??$addressof@$$CBVioHashString@@@std@@YAPBVioHashString@@ABV1@@Z
_TEXT	SEGMENT
__Val$ = 8						; size = 4
??$addressof@$$CBVioHashString@@@std@@YAPBVioHashString@@ABV1@@Z PROC ; std::addressof<ioHashString const >, COMDAT

; 110  : 	{	// return address of _Val

  00000	55		 push	 ebp
  00001	8b ec		 mov	 ebp, esp

; 111  : 	return ((_Ty *) &(char&)_Val);

  00003	8b 45 08	 mov	 eax, DWORD PTR __Val$[ebp]

; 112  : 	}

  00006	5d		 pop	 ebp
  00007	c3		 ret	 0
??$addressof@$$CBVioHashString@@@std@@YAPBVioHashString@@ABV1@@Z ENDP ; std::addressof<ioHashString const >
_TEXT	ENDS
PUBLIC	??$addressof@$$CBUUpDownAttackAttribute@ioFireAndBuffCheckSkill@@@std@@YAPBUUpDownAttackAttribute@ioFireAndBuffCheckSkill@@ABU12@@Z ; std::addressof<ioFireAndBuffCheckSkill::UpDownAttackAttribute const >
; Function compile flags: /Ogsp
;	COMDAT ??$addressof@$$CBUUpDownAttackAttribute@ioFireAndBuffCheckSkill@@@std@@YAPBUUpDownAttackAttribute@ioFireAndBuffCheckSkill@@ABU12@@Z
_TEXT	SEGMENT
__Val$ = 8						; size = 4
??$addressof@$$CBUUpDownAttackAttribute@ioFireAndBuffCheckSkill@@@std@@YAPBUUpDownAttackAttribute@ioFireAndBuffCheckSkill@@ABU12@@Z PROC ; std::addressof<ioFireAndBuffCheckSkill::UpDownAttackAttribute const >, COMDAT

; 110  : 	{	// return address of _Val

  00000	55		 push	 ebp
  00001	8b ec		 mov	 ebp, esp

; 111  : 	return ((_Ty *) &(char&)_Val);

  00003	8b 45 08	 mov	 eax, DWORD PTR __Val$[ebp]

; 112  : 	}

  00006	5d		 pop	 ebp
  00007	c3		 ret	 0
??$addressof@$$CBUUpDownAttackAttribute@ioFireAndBuffCheckSkill@@@std@@YAPBUUpDownAttackAttribute@ioFireAndBuffCheckSkill@@ABU12@@Z ENDP ; std::addressof<ioFireAndBuffCheckSkill::UpDownAttackAttribute const >
_TEXT	ENDS
PUBLIC	??$addressof@$$CBUtagBaseCharDistanceSq@@@std@@YAPBUtagBaseCharDistanceSq@@ABU1@@Z ; std::addressof<tagBaseCharDistanceSq const >
; Function compile flags: /Ogsp
;	COMDAT ??$addressof@$$CBUtagBaseCharDistanceSq@@@std@@YAPBUtagBaseCharDistanceSq@@ABU1@@Z
_TEXT	SEGMENT
__Val$ = 8						; size = 4
??$addressof@$$CBUtagBaseCharDistanceSq@@@std@@YAPBUtagBaseCharDistanceSq@@ABU1@@Z PROC ; std::addressof<tagBaseCharDistanceSq const >, COMDAT

; 110  : 	{	// return address of _Val

  00000	55		 push	 ebp
  00001	8b ec		 mov	 ebp, esp

; 111  : 	return ((_Ty *) &(char&)_Val);

  00003	8b 45 08	 mov	 eax, DWORD PTR __Val$[ebp]

; 112  : 	}

  00006	5d		 pop	 ebp
  00007	c3		 ret	 0
??$addressof@$$CBUtagBaseCharDistanceSq@@@std@@YAPBUtagBaseCharDistanceSq@@ABU1@@Z ENDP ; std::addressof<tagBaseCharDistanceSq const >
_TEXT	ENDS
PUBLIC	__TI2?AVbad_alloc@std@@
PUBLIC	??$_Allocate@UUpDownAttackAttribute@ioFireAndBuffCheckSkill@@@std@@YAPAUUpDownAttackAttribute@ioFireAndBuffCheckSkill@@IPAU12@@Z ; std::_Allocate<ioFireAndBuffCheckSkill::UpDownAttackAttribute>
PUBLIC	__CTA2?AVbad_alloc@std@@
PUBLIC	__CT??_R0?AVbad_alloc@std@@@8??0bad_alloc@std@@QAE@ABV01@@Z12
PUBLIC	??0bad_alloc@std@@QAE@ABV01@@Z			; std::bad_alloc::bad_alloc
PUBLIC	__CT??_R0?AVexception@std@@@8??0exception@std@@QAE@ABV01@@Z12
EXTRN	??2@YAPAXI@Z:PROC				; operator new
EXTRN	__CxxThrowException@8:PROC
EXTRN	??0exception@std@@QAE@ABV01@@Z:PROC		; std::exception::exception
;	COMDAT __CT??_R0?AVexception@std@@@8??0exception@std@@QAE@ABV01@@Z12
; File c:\program files (x86)\microsoft visual studio 10.0\vc\include\exception
xdata$x	SEGMENT
__CT??_R0?AVexception@std@@@8??0exception@std@@QAE@ABV01@@Z12 DD 00H
	DD	FLAT:??_R0?AVexception@std@@@8
	DD	00H
	DD	0ffffffffH
	ORG $+4
	DD	0cH
	DD	FLAT:??0exception@std@@QAE@ABV01@@Z
xdata$x	ENDS
;	COMDAT __CT??_R0?AVbad_alloc@std@@@8??0bad_alloc@std@@QAE@ABV01@@Z12
xdata$x	SEGMENT
__CT??_R0?AVbad_alloc@std@@@8??0bad_alloc@std@@QAE@ABV01@@Z12 DD 00H
	DD	FLAT:??_R0?AVbad_alloc@std@@@8
	DD	00H
	DD	0ffffffffH
	ORG $+4
	DD	0cH
	DD	FLAT:??0bad_alloc@std@@QAE@ABV01@@Z
xdata$x	ENDS
;	COMDAT __CTA2?AVbad_alloc@std@@
xdata$x	SEGMENT
__CTA2?AVbad_alloc@std@@ DD 02H
	DD	FLAT:__CT??_R0?AVbad_alloc@std@@@8??0bad_alloc@std@@QAE@ABV01@@Z12
	DD	FLAT:__CT??_R0?AVexception@std@@@8??0exception@std@@QAE@ABV01@@Z12
xdata$x	ENDS
;	COMDAT __TI2?AVbad_alloc@std@@
xdata$x	SEGMENT
__TI2?AVbad_alloc@std@@ DD 00H
	DD	FLAT:??1bad_alloc@std@@UAE@XZ
	DD	00H
	DD	FLAT:__CTA2?AVbad_alloc@std@@
; Function compile flags: /Ogsp
; File c:\program files (x86)\microsoft visual studio 10.0\vc\include\xmemory
xdata$x	ENDS
;	COMDAT ??$_Allocate@UUpDownAttackAttribute@ioFireAndBuffCheckSkill@@@std@@YAPAUUpDownAttackAttribute@ioFireAndBuffCheckSkill@@IPAU12@@Z
_TEXT	SEGMENT
$T537604 = -12						; size = 12
$T537609 = 8						; size = 4
__Count$ = 8						; size = 4
___formal$ = 12						; size = 4
??$_Allocate@UUpDownAttackAttribute@ioFireAndBuffCheckSkill@@@std@@YAPAUUpDownAttackAttribute@ioFireAndBuffCheckSkill@@IPAU12@@Z PROC ; std::_Allocate<ioFireAndBuffCheckSkill::UpDownAttackAttribute>, COMDAT

; 30   : 	{	// allocate storage for _Count elements of type _Ty

  00000	55		 push	 ebp
  00001	8b ec		 mov	 ebp, esp

; 31   : 	void *_Ptr = 0;
; 32   : 
; 33   : 	if (_Count <= 0)

  00003	8b 4d 08	 mov	 ecx, DWORD PTR __Count$[ebp]
  00006	83 ec 0c	 sub	 esp, 12			; 0000000cH
  00009	33 c0		 xor	 eax, eax
  0000b	85 c9		 test	 ecx, ecx

; 34   : 		_Count = 0;
; 35   : 	else if (((_SIZT)(-1) / sizeof (_Ty) < _Count)

  0000d	74 3c		 je	 SHORT $LN5@Allocate

; 36   : 		|| (_Ptr = ::operator new(_Count * sizeof (_Ty))) == 0)

  0000f	81 f9 92 24 49
	02		 cmp	 ecx, 38347922		; 02492492H
  00015	77 0e		 ja	 SHORT $LN1@Allocate
  00017	6b c9 70	 imul	 ecx, 112		; 00000070H
  0001a	51		 push	 ecx
  0001b	e8 00 00 00 00	 call	 ??2@YAPAXI@Z		; operator new
  00020	59		 pop	 ecx
  00021	85 c0		 test	 eax, eax

; 38   : 
; 39   : 	return ((_Ty _FARQ *)_Ptr);

  00023	75 26		 jne	 SHORT $LN5@Allocate
$LN1@Allocate:

; 37   : 		_THROW_NCEE(bad_alloc, 0);

  00025	83 65 08 00	 and	 DWORD PTR $T537609[ebp], 0
  00029	8d 45 08	 lea	 eax, DWORD PTR $T537609[ebp]
  0002c	50		 push	 eax
  0002d	8d 4d f4	 lea	 ecx, DWORD PTR $T537604[ebp]
  00030	ff 15 00 00 00
	00		 call	 DWORD PTR __imp_??0exception@std@@QAE@ABQBD@Z
  00036	68 00 00 00 00	 push	 OFFSET __TI2?AVbad_alloc@std@@
  0003b	8d 45 f4	 lea	 eax, DWORD PTR $T537604[ebp]
  0003e	50		 push	 eax
  0003f	c7 45 f4 00 00
	00 00		 mov	 DWORD PTR $T537604[ebp], OFFSET ??_7bad_alloc@std@@6B@
  00046	e8 00 00 00 00	 call	 __CxxThrowException@8
$LN10@Allocate:
$LN5@Allocate:

; 40   : 	}

  0004b	c9		 leave
  0004c	c3		 ret	 0
$LN9@Allocate:
??$_Allocate@UUpDownAttackAttribute@ioFireAndBuffCheckSkill@@@std@@YAPAUUpDownAttackAttribute@ioFireAndBuffCheckSkill@@IPAU12@@Z ENDP ; std::_Allocate<ioFireAndBuffCheckSkill::UpDownAttackAttribute>
_TEXT	ENDS
PUBLIC	??$_Allocate@UtagBaseCharDistanceSq@@@std@@YAPAUtagBaseCharDistanceSq@@IPAU1@@Z ; std::_Allocate<tagBaseCharDistanceSq>
; Function compile flags: /Ogsp
;	COMDAT ??$_Allocate@UtagBaseCharDistanceSq@@@std@@YAPAUtagBaseCharDistanceSq@@IPAU1@@Z
_TEXT	SEGMENT
$T537614 = -12						; size = 12
$T537618 = 8						; size = 4
__Count$ = 8						; size = 4
___formal$ = 12						; size = 4
??$_Allocate@UtagBaseCharDistanceSq@@@std@@YAPAUtagBaseCharDistanceSq@@IPAU1@@Z PROC ; std::_Allocate<tagBaseCharDistanceSq>, COMDAT

; 30   : 	{	// allocate storage for _Count elements of type _Ty

  00000	55		 push	 ebp
  00001	8b ec		 mov	 ebp, esp

; 31   : 	void *_Ptr = 0;
; 32   : 
; 33   : 	if (_Count <= 0)

  00003	8b 4d 08	 mov	 ecx, DWORD PTR __Count$[ebp]
  00006	83 ec 0c	 sub	 esp, 12			; 0000000cH
  00009	33 c0		 xor	 eax, eax
  0000b	85 c9		 test	 ecx, ecx

; 34   : 		_Count = 0;
; 35   : 	else if (((_SIZT)(-1) / sizeof (_Ty) < _Count)

  0000d	74 3c		 je	 SHORT $LN5@Allocate@2

; 36   : 		|| (_Ptr = ::operator new(_Count * sizeof (_Ty))) == 0)

  0000f	81 f9 ff ff ff
	07		 cmp	 ecx, 134217727		; 07ffffffH
  00015	77 0e		 ja	 SHORT $LN1@Allocate@2
  00017	c1 e1 05	 shl	 ecx, 5
  0001a	51		 push	 ecx
  0001b	e8 00 00 00 00	 call	 ??2@YAPAXI@Z		; operator new
  00020	59		 pop	 ecx
  00021	85 c0		 test	 eax, eax

; 38   : 
; 39   : 	return ((_Ty _FARQ *)_Ptr);

  00023	75 26		 jne	 SHORT $LN5@Allocate@2
$LN1@Allocate@2:

; 37   : 		_THROW_NCEE(bad_alloc, 0);

  00025	83 65 08 00	 and	 DWORD PTR $T537618[ebp], 0
  00029	8d 45 08	 lea	 eax, DWORD PTR $T537618[ebp]
  0002c	50		 push	 eax
  0002d	8d 4d f4	 lea	 ecx, DWORD PTR $T537614[ebp]
  00030	ff 15 00 00 00
	00		 call	 DWORD PTR __imp_??0exception@std@@QAE@ABQBD@Z
  00036	68 00 00 00 00	 push	 OFFSET __TI2?AVbad_alloc@std@@
  0003b	8d 45 f4	 lea	 eax, DWORD PTR $T537614[ebp]
  0003e	50		 push	 eax
  0003f	c7 45 f4 00 00
	00 00		 mov	 DWORD PTR $T537614[ebp], OFFSET ??_7bad_alloc@std@@6B@
  00046	e8 00 00 00 00	 call	 __CxxThrowException@8
$LN10@Allocate@2:
$LN5@Allocate@2:

; 40   : 	}

  0004b	c9		 leave
  0004c	c3		 ret	 0
$LN9@Allocate@2:
??$_Allocate@UtagBaseCharDistanceSq@@@std@@YAPAUtagBaseCharDistanceSq@@IPAU1@@Z ENDP ; std::_Allocate<tagBaseCharDistanceSq>
_TEXT	ENDS
PUBLIC	??G?$_Vector_const_iterator@V?$_Vector_val@UtagBaseCharDistanceSq@@V?$allocator@UtagBaseCharDistanceSq@@@std@@@std@@@std@@QBEHABV01@@Z ; std::_Vector_const_iterator<std::_Vector_val<tagBaseCharDistanceSq,std::allocator<tagBaseCharDistanceSq> > >::operator-
; Function compile flags: /Ogsp
; File c:\program files (x86)\microsoft visual studio 10.0\vc\include\vector
;	COMDAT ??G?$_Vector_const_iterator@V?$_Vector_val@UtagBaseCharDistanceSq@@V?$allocator@UtagBaseCharDistanceSq@@@std@@@std@@@std@@QBEHABV01@@Z
_TEXT	SEGMENT
__Right$ = 8						; size = 4
??G?$_Vector_const_iterator@V?$_Vector_val@UtagBaseCharDistanceSq@@V?$allocator@UtagBaseCharDistanceSq@@@std@@@std@@@std@@QBEHABV01@@Z PROC ; std::_Vector_const_iterator<std::_Vector_val<tagBaseCharDistanceSq,std::allocator<tagBaseCharDistanceSq> > >::operator-, COMDAT
; _this$ = ecx

; 190  : 		{	// return difference of iterators

  00000	55		 push	 ebp
  00001	8b ec		 mov	 ebp, esp

; 191  : 		_Compat(_Right);
; 192  : 		return (this->_Ptr - _Right._Ptr);

  00003	8b 01		 mov	 eax, DWORD PTR [ecx]
  00005	8b 4d 08	 mov	 ecx, DWORD PTR __Right$[ebp]
  00008	2b 01		 sub	 eax, DWORD PTR [ecx]
  0000a	c1 f8 05	 sar	 eax, 5

; 193  : 		}

  0000d	5d		 pop	 ebp
  0000e	c2 04 00	 ret	 4
??G?$_Vector_const_iterator@V?$_Vector_val@UtagBaseCharDistanceSq@@V?$allocator@UtagBaseCharDistanceSq@@@std@@@std@@@std@@QBEHABV01@@Z ENDP ; std::_Vector_const_iterator<std::_Vector_val<tagBaseCharDistanceSq,std::allocator<tagBaseCharDistanceSq> > >::operator-
_TEXT	ENDS
PUBLIC	??$forward@AAUUpDownAttackAttribute@ioFireAndBuffCheckSkill@@@std@@YAAAUUpDownAttackAttribute@ioFireAndBuffCheckSkill@@AAU12@@Z ; std::forward<ioFireAndBuffCheckSkill::UpDownAttackAttribute &>
; Function compile flags: /Ogsp
; File c:\program files (x86)\microsoft visual studio 10.0\vc\include\utility
;	COMDAT ??$forward@AAUUpDownAttackAttribute@ioFireAndBuffCheckSkill@@@std@@YAAAUUpDownAttackAttribute@ioFireAndBuffCheckSkill@@AAU12@@Z
_TEXT	SEGMENT
__Arg$ = 8						; size = 4
??$forward@AAUUpDownAttackAttribute@ioFireAndBuffCheckSkill@@@std@@YAAAUUpDownAttackAttribute@ioFireAndBuffCheckSkill@@AAU12@@Z PROC ; std::forward<ioFireAndBuffCheckSkill::UpDownAttackAttribute &>, COMDAT

; 78   : 	{	// forward _Arg, given explicitly specified type parameter

  00000	55		 push	 ebp
  00001	8b ec		 mov	 ebp, esp

; 79   : 	return ((_Ty&&)_Arg);

  00003	8b 45 08	 mov	 eax, DWORD PTR __Arg$[ebp]

; 80   : 	}

  00006	5d		 pop	 ebp
  00007	c3		 ret	 0
??$forward@AAUUpDownAttackAttribute@ioFireAndBuffCheckSkill@@@std@@YAAAUUpDownAttackAttribute@ioFireAndBuffCheckSkill@@AAU12@@Z ENDP ; std::forward<ioFireAndBuffCheckSkill::UpDownAttackAttribute &>
_TEXT	ENDS
PUBLIC	??$forward@ABUUpDownAttackAttribute@ioFireAndBuffCheckSkill@@@std@@YAABUUpDownAttackAttribute@ioFireAndBuffCheckSkill@@ABU12@@Z ; std::forward<ioFireAndBuffCheckSkill::UpDownAttackAttribute const &>
; Function compile flags: /Ogsp
;	COMDAT ??$forward@ABUUpDownAttackAttribute@ioFireAndBuffCheckSkill@@@std@@YAABUUpDownAttackAttribute@ioFireAndBuffCheckSkill@@ABU12@@Z
_TEXT	SEGMENT
__Arg$ = 8						; size = 4
??$forward@ABUUpDownAttackAttribute@ioFireAndBuffCheckSkill@@@std@@YAABUUpDownAttackAttribute@ioFireAndBuffCheckSkill@@ABU12@@Z PROC ; std::forward<ioFireAndBuffCheckSkill::UpDownAttackAttribute const &>, COMDAT

; 78   : 	{	// forward _Arg, given explicitly specified type parameter

  00000	55		 push	 ebp
  00001	8b ec		 mov	 ebp, esp

; 79   : 	return ((_Ty&&)_Arg);

  00003	8b 45 08	 mov	 eax, DWORD PTR __Arg$[ebp]

; 80   : 	}

  00006	5d		 pop	 ebp
  00007	c3		 ret	 0
??$forward@ABUUpDownAttackAttribute@ioFireAndBuffCheckSkill@@@std@@YAABUUpDownAttackAttribute@ioFireAndBuffCheckSkill@@ABU12@@Z ENDP ; std::forward<ioFireAndBuffCheckSkill::UpDownAttackAttribute const &>
_TEXT	ENDS
PUBLIC	??$forward@AAUtagBaseCharDistanceSq@@@std@@YAAAUtagBaseCharDistanceSq@@AAU1@@Z ; std::forward<tagBaseCharDistanceSq &>
; Function compile flags: /Ogsp
;	COMDAT ??$forward@AAUtagBaseCharDistanceSq@@@std@@YAAAUtagBaseCharDistanceSq@@AAU1@@Z
_TEXT	SEGMENT
__Arg$ = 8						; size = 4
??$forward@AAUtagBaseCharDistanceSq@@@std@@YAAAUtagBaseCharDistanceSq@@AAU1@@Z PROC ; std::forward<tagBaseCharDistanceSq &>, COMDAT

; 78   : 	{	// forward _Arg, given explicitly specified type parameter

  00000	55		 push	 ebp
  00001	8b ec		 mov	 ebp, esp

; 79   : 	return ((_Ty&&)_Arg);

  00003	8b 45 08	 mov	 eax, DWORD PTR __Arg$[ebp]

; 80   : 	}

  00006	5d		 pop	 ebp
  00007	c3		 ret	 0
??$forward@AAUtagBaseCharDistanceSq@@@std@@YAAAUtagBaseCharDistanceSq@@AAU1@@Z ENDP ; std::forward<tagBaseCharDistanceSq &>
_TEXT	ENDS
PUBLIC	??$forward@ABUtagBaseCharDistanceSq@@@std@@YAABUtagBaseCharDistanceSq@@ABU1@@Z ; std::forward<tagBaseCharDistanceSq const &>
; Function compile flags: /Ogsp
;	COMDAT ??$forward@ABUtagBaseCharDistanceSq@@@std@@YAABUtagBaseCharDistanceSq@@ABU1@@Z
_TEXT	SEGMENT
__Arg$ = 8						; size = 4
??$forward@ABUtagBaseCharDistanceSq@@@std@@YAABUtagBaseCharDistanceSq@@ABU1@@Z PROC ; std::forward<tagBaseCharDistanceSq const &>, COMDAT

; 78   : 	{	// forward _Arg, given explicitly specified type parameter

  00000	55		 push	 ebp
  00001	8b ec		 mov	 ebp, esp

; 79   : 	return ((_Ty&&)_Arg);

  00003	8b 45 08	 mov	 eax, DWORD PTR __Arg$[ebp]

; 80   : 	}

  00006	5d		 pop	 ebp
  00007	c3		 ret	 0
??$forward@ABUtagBaseCharDistanceSq@@@std@@YAABUtagBaseCharDistanceSq@@ABU1@@Z ENDP ; std::forward<tagBaseCharDistanceSq const &>
_TEXT	ENDS
PUBLIC	??$_Ptr_cat@UtagBaseCharDistanceSq@@U1@@std@@YA?AU_Nonscalar_ptr_iterator_tag@0@PAUtagBaseCharDistanceSq@@0@Z ; std::_Ptr_cat<tagBaseCharDistanceSq,tagBaseCharDistanceSq>
; Function compile flags: /Ogsp
; File c:\program files (x86)\microsoft visual studio 10.0\vc\include\xutility
;	COMDAT ??$_Ptr_cat@UtagBaseCharDistanceSq@@U1@@std@@YA?AU_Nonscalar_ptr_iterator_tag@0@PAUtagBaseCharDistanceSq@@0@Z
_TEXT	SEGMENT
__Cat$ = -1						; size = 1
___formal$ = 8						; size = 4
___formal$ = 12						; size = 4
??$_Ptr_cat@UtagBaseCharDistanceSq@@U1@@std@@YA?AU_Nonscalar_ptr_iterator_tag@0@PAUtagBaseCharDistanceSq@@0@Z PROC ; std::_Ptr_cat<tagBaseCharDistanceSq,tagBaseCharDistanceSq>, COMDAT

; 516  : 	{	// return pointer category from pointers

  00000	55		 push	 ebp
  00001	8b ec		 mov	 ebp, esp
  00003	51		 push	 ecx

; 517  : 	typename _Ptr_cat_helper<_Elem1, _Elem2>::_Type _Cat;
; 518  : 	return (_Cat);

  00004	8a 45 ff	 mov	 al, BYTE PTR __Cat$[ebp]

; 519  : 	}

  00007	c9		 leave
  00008	c3		 ret	 0
??$_Ptr_cat@UtagBaseCharDistanceSq@@U1@@std@@YA?AU_Nonscalar_ptr_iterator_tag@0@PAUtagBaseCharDistanceSq@@0@Z ENDP ; std::_Ptr_cat<tagBaseCharDistanceSq,tagBaseCharDistanceSq>
_TEXT	ENDS
PUBLIC	??$_Ptr_cat@UUpDownAttackAttribute@ioFireAndBuffCheckSkill@@U12@@std@@YA?AU_Nonscalar_ptr_iterator_tag@0@PAUUpDownAttackAttribute@ioFireAndBuffCheckSkill@@0@Z ; std::_Ptr_cat<ioFireAndBuffCheckSkill::UpDownAttackAttribute,ioFireAndBuffCheckSkill::UpDownAttackAttribute>
; Function compile flags: /Ogsp
;	COMDAT ??$_Ptr_cat@UUpDownAttackAttribute@ioFireAndBuffCheckSkill@@U12@@std@@YA?AU_Nonscalar_ptr_iterator_tag@0@PAUUpDownAttackAttribute@ioFireAndBuffCheckSkill@@0@Z
_TEXT	SEGMENT
__Cat$ = -1						; size = 1
___formal$ = 8						; size = 4
___formal$ = 12						; size = 4
??$_Ptr_cat@UUpDownAttackAttribute@ioFireAndBuffCheckSkill@@U12@@std@@YA?AU_Nonscalar_ptr_iterator_tag@0@PAUUpDownAttackAttribute@ioFireAndBuffCheckSkill@@0@Z PROC ; std::_Ptr_cat<ioFireAndBuffCheckSkill::UpDownAttackAttribute,ioFireAndBuffCheckSkill::UpDownAttackAttribute>, COMDAT

; 516  : 	{	// return pointer category from pointers

  00000	55		 push	 ebp
  00001	8b ec		 mov	 ebp, esp
  00003	51		 push	 ecx

; 517  : 	typename _Ptr_cat_helper<_Elem1, _Elem2>::_Type _Cat;
; 518  : 	return (_Cat);

  00004	8a 45 ff	 mov	 al, BYTE PTR __Cat$[ebp]

; 519  : 	}

  00007	c9		 leave
  00008	c3		 ret	 0
??$_Ptr_cat@UUpDownAttackAttribute@ioFireAndBuffCheckSkill@@U12@@std@@YA?AU_Nonscalar_ptr_iterator_tag@0@PAUUpDownAttackAttribute@ioFireAndBuffCheckSkill@@0@Z ENDP ; std::_Ptr_cat<ioFireAndBuffCheckSkill::UpDownAttackAttribute,ioFireAndBuffCheckSkill::UpDownAttackAttribute>
_TEXT	ENDS
PUBLIC	??0tagBaseCharDistanceSq@@QAE@ABU0@@Z		; tagBaseCharDistanceSq::tagBaseCharDistanceSq
EXTRN	__imp_??0ioHashString@@QAE@ABV0@@Z:PROC
; Function compile flags: /Ogsp
;	COMDAT ??0tagBaseCharDistanceSq@@QAE@ABU0@@Z
_TEXT	SEGMENT
___that$ = 8						; size = 4
??0tagBaseCharDistanceSq@@QAE@ABU0@@Z PROC		; tagBaseCharDistanceSq::tagBaseCharDistanceSq, COMDAT
; _this$ = ecx
  00000	55		 push	 ebp
  00001	8b ec		 mov	 ebp, esp
  00003	53		 push	 ebx
  00004	56		 push	 esi
  00005	8b 75 08	 mov	 esi, DWORD PTR ___that$[ebp]
  00008	57		 push	 edi
  00009	56		 push	 esi
  0000a	8b d9		 mov	 ebx, ecx
  0000c	ff 15 00 00 00
	00		 call	 DWORD PTR __imp_??0ioHashString@@QAE@ABV0@@Z
  00012	d9 46 10	 fld	 DWORD PTR [esi+16]
  00015	83 c6 14	 add	 esi, 20			; 00000014H
  00018	d9 5b 10	 fstp	 DWORD PTR [ebx+16]
  0001b	8d 7b 14	 lea	 edi, DWORD PTR [ebx+20]
  0001e	a5		 movsd
  0001f	a5		 movsd
  00020	a5		 movsd
  00021	5f		 pop	 edi
  00022	5e		 pop	 esi
  00023	8b c3		 mov	 eax, ebx
  00025	5b		 pop	 ebx
  00026	5d		 pop	 ebp
  00027	c2 04 00	 ret	 4
??0tagBaseCharDistanceSq@@QAE@ABU0@@Z ENDP		; tagBaseCharDistanceSq::tagBaseCharDistanceSq
_TEXT	ENDS
PUBLIC	??4tagBaseCharDistanceSq@@QAEAAU0@ABU0@@Z	; tagBaseCharDistanceSq::operator=
EXTRN	__imp_??4ioHashString@@QAEAAV0@ABV0@@Z:PROC
; Function compile flags: /Ogsp
;	COMDAT ??4tagBaseCharDistanceSq@@QAEAAU0@ABU0@@Z
_TEXT	SEGMENT
___that$ = 8						; size = 4
??4tagBaseCharDistanceSq@@QAEAAU0@ABU0@@Z PROC		; tagBaseCharDistanceSq::operator=, COMDAT
; _this$ = ecx
  00000	55		 push	 ebp
  00001	8b ec		 mov	 ebp, esp
  00003	53		 push	 ebx
  00004	56		 push	 esi
  00005	8b 75 08	 mov	 esi, DWORD PTR ___that$[ebp]
  00008	57		 push	 edi
  00009	56		 push	 esi
  0000a	8b d9		 mov	 ebx, ecx
  0000c	ff 15 00 00 00
	00		 call	 DWORD PTR __imp_??4ioHashString@@QAEAAV0@ABV0@@Z
  00012	d9 46 10	 fld	 DWORD PTR [esi+16]
  00015	83 c6 14	 add	 esi, 20			; 00000014H
  00018	d9 5b 10	 fstp	 DWORD PTR [ebx+16]
  0001b	8d 7b 14	 lea	 edi, DWORD PTR [ebx+20]
  0001e	a5		 movsd
  0001f	a5		 movsd
  00020	a5		 movsd
  00021	5f		 pop	 edi
  00022	5e		 pop	 esi
  00023	8b c3		 mov	 eax, ebx
  00025	5b		 pop	 ebx
  00026	5d		 pop	 ebp
  00027	c2 04 00	 ret	 4
??4tagBaseCharDistanceSq@@QAEAAU0@ABU0@@Z ENDP		; tagBaseCharDistanceSq::operator=
_TEXT	ENDS
PUBLIC	?_Unchecked@?$_Vector_iterator@V?$_Vector_val@UtagBaseCharDistanceSq@@V?$allocator@UtagBaseCharDistanceSq@@@std@@@std@@@std@@QBEPAUtagBaseCharDistanceSq@@XZ ; std::_Vector_iterator<std::_Vector_val<tagBaseCharDistanceSq,std::allocator<tagBaseCharDistanceSq> > >::_Unchecked
; Function compile flags: /Ogsp
; File c:\program files (x86)\microsoft visual studio 10.0\vc\include\vector
;	COMDAT ?_Unchecked@?$_Vector_iterator@V?$_Vector_val@UtagBaseCharDistanceSq@@V?$allocator@UtagBaseCharDistanceSq@@@std@@@std@@@std@@QBEPAUtagBaseCharDistanceSq@@XZ
_TEXT	SEGMENT
?_Unchecked@?$_Vector_iterator@V?$_Vector_val@UtagBaseCharDistanceSq@@V?$allocator@UtagBaseCharDistanceSq@@@std@@@std@@@std@@QBEPAUtagBaseCharDistanceSq@@XZ PROC ; std::_Vector_iterator<std::_Vector_val<tagBaseCharDistanceSq,std::allocator<tagBaseCharDistanceSq> > >::_Unchecked, COMDAT
; _this$ = ecx

; 317  : 		return (_Unchecked_type(this->_Ptr));

  00000	8b 01		 mov	 eax, DWORD PTR [ecx]

; 318  : 		}

  00002	c3		 ret	 0
?_Unchecked@?$_Vector_iterator@V?$_Vector_val@UtagBaseCharDistanceSq@@V?$allocator@UtagBaseCharDistanceSq@@@std@@@std@@@std@@QBEPAUtagBaseCharDistanceSq@@XZ ENDP ; std::_Vector_iterator<std::_Vector_val<tagBaseCharDistanceSq,std::allocator<tagBaseCharDistanceSq> > >::_Unchecked
_TEXT	ENDS
PUBLIC	??$_Val_type@PAVioHashString@@@std@@YAPAVioHashString@@PAV1@@Z ; std::_Val_type<ioHashString *>
; Function compile flags: /Ogsp
; File c:\program files (x86)\microsoft visual studio 10.0\vc\include\xutility
;	COMDAT ??$_Val_type@PAVioHashString@@@std@@YAPAVioHashString@@PAV1@@Z
_TEXT	SEGMENT
___formal$ = 8						; size = 4
??$_Val_type@PAVioHashString@@@std@@YAPAVioHashString@@PAV1@@Z PROC ; std::_Val_type<ioHashString *>, COMDAT

; 790  : 	return (0);

  00000	33 c0		 xor	 eax, eax

; 791  : 	}

  00002	c3		 ret	 0
??$_Val_type@PAVioHashString@@@std@@YAPAVioHashString@@PAV1@@Z ENDP ; std::_Val_type<ioHashString *>
_TEXT	ENDS
PUBLIC	??$_Ptr_cat@V?$_Vector_const_iterator@V?$_Vector_val@UWeaponInfo@@V?$allocator@UWeaponInfo@@@std@@@std@@@std@@PAUWeaponInfo@@@std@@YA?AU_Nonscalar_ptr_iterator_tag@0@AAV?$_Vector_const_iterator@V?$_Vector_val@UWeaponInfo@@V?$allocator@UWeaponInfo@@@std@@@std@@@0@AAPAUWeaponInfo@@@Z ; std::_Ptr_cat<std::_Vector_const_iterator<std::_Vector_val<WeaponInfo,std::allocator<WeaponInfo> > >,WeaponInfo *>
; Function compile flags: /Ogsp
;	COMDAT ??$_Ptr_cat@V?$_Vector_const_iterator@V?$_Vector_val@UWeaponInfo@@V?$allocator@UWeaponInfo@@@std@@@std@@@std@@PAUWeaponInfo@@@std@@YA?AU_Nonscalar_ptr_iterator_tag@0@AAV?$_Vector_const_iterator@V?$_Vector_val@UWeaponInfo@@V?$allocator@UWeaponInfo@@@std@@@std@@@0@AAPAUWeaponInfo@@@Z
_TEXT	SEGMENT
__Cat$ = -1						; size = 1
___formal$ = 8						; size = 4
___formal$ = 12						; size = 4
??$_Ptr_cat@V?$_Vector_const_iterator@V?$_Vector_val@UWeaponInfo@@V?$allocator@UWeaponInfo@@@std@@@std@@@std@@PAUWeaponInfo@@@std@@YA?AU_Nonscalar_ptr_iterator_tag@0@AAV?$_Vector_const_iterator@V?$_Vector_val@UWeaponInfo@@V?$allocator@UWeaponInfo@@@std@@@std@@@0@AAPAUWeaponInfo@@@Z PROC ; std::_Ptr_cat<std::_Vector_const_iterator<std::_Vector_val<WeaponInfo,std::allocator<WeaponInfo> > >,WeaponInfo *>, COMDAT

; 485  : 	{	// return pointer category from arbitrary arguments

  00000	55		 push	 ebp
  00001	8b ec		 mov	 ebp, esp
  00003	51		 push	 ecx

; 486  : 	_Nonscalar_ptr_iterator_tag _Cat;
; 487  : 	return (_Cat);

  00004	8a 45 ff	 mov	 al, BYTE PTR __Cat$[ebp]

; 488  : 	}

  00007	c9		 leave
  00008	c3		 ret	 0
??$_Ptr_cat@V?$_Vector_const_iterator@V?$_Vector_val@UWeaponInfo@@V?$allocator@UWeaponInfo@@@std@@@std@@@std@@PAUWeaponInfo@@@std@@YA?AU_Nonscalar_ptr_iterator_tag@0@AAV?$_Vector_const_iterator@V?$_Vector_val@UWeaponInfo@@V?$allocator@UWeaponInfo@@@std@@@std@@@0@AAPAUWeaponInfo@@@Z ENDP ; std::_Ptr_cat<std::_Vector_const_iterator<std::_Vector_val<WeaponInfo,std::allocator<WeaponInfo> > >,WeaponInfo *>
_TEXT	ENDS
PUBLIC	??$_Ptr_cat@V?$_Vector_const_iterator@V?$_Vector_val@UForceInfo@@V?$allocator@UForceInfo@@@std@@@std@@@std@@PAUForceInfo@@@std@@YA?AU_Nonscalar_ptr_iterator_tag@0@AAV?$_Vector_const_iterator@V?$_Vector_val@UForceInfo@@V?$allocator@UForceInfo@@@std@@@std@@@0@AAPAUForceInfo@@@Z ; std::_Ptr_cat<std::_Vector_const_iterator<std::_Vector_val<ForceInfo,std::allocator<ForceInfo> > >,ForceInfo *>
; Function compile flags: /Ogsp
;	COMDAT ??$_Ptr_cat@V?$_Vector_const_iterator@V?$_Vector_val@UForceInfo@@V?$allocator@UForceInfo@@@std@@@std@@@std@@PAUForceInfo@@@std@@YA?AU_Nonscalar_ptr_iterator_tag@0@AAV?$_Vector_const_iterator@V?$_Vector_val@UForceInfo@@V?$allocator@UForceInfo@@@std@@@std@@@0@AAPAUForceInfo@@@Z
_TEXT	SEGMENT
__Cat$ = -1						; size = 1
___formal$ = 8						; size = 4
___formal$ = 12						; size = 4
??$_Ptr_cat@V?$_Vector_const_iterator@V?$_Vector_val@UForceInfo@@V?$allocator@UForceInfo@@@std@@@std@@@std@@PAUForceInfo@@@std@@YA?AU_Nonscalar_ptr_iterator_tag@0@AAV?$_Vector_const_iterator@V?$_Vector_val@UForceInfo@@V?$allocator@UForceInfo@@@std@@@std@@@0@AAPAUForceInfo@@@Z PROC ; std::_Ptr_cat<std::_Vector_const_iterator<std::_Vector_val<ForceInfo,std::allocator<ForceInfo> > >,ForceInfo *>, COMDAT

; 485  : 	{	// return pointer category from arbitrary arguments

  00000	55		 push	 ebp
  00001	8b ec		 mov	 ebp, esp
  00003	51		 push	 ecx

; 486  : 	_Nonscalar_ptr_iterator_tag _Cat;
; 487  : 	return (_Cat);

  00004	8a 45 ff	 mov	 al, BYTE PTR __Cat$[ebp]

; 488  : 	}

  00007	c9		 leave
  00008	c3		 ret	 0
??$_Ptr_cat@V?$_Vector_const_iterator@V?$_Vector_val@UForceInfo@@V?$allocator@UForceInfo@@@std@@@std@@@std@@PAUForceInfo@@@std@@YA?AU_Nonscalar_ptr_iterator_tag@0@AAV?$_Vector_const_iterator@V?$_Vector_val@UForceInfo@@V?$allocator@UForceInfo@@@std@@@std@@@0@AAPAUForceInfo@@@Z ENDP ; std::_Ptr_cat<std::_Vector_const_iterator<std::_Vector_val<ForceInfo,std::allocator<ForceInfo> > >,ForceInfo *>
_TEXT	ENDS
PUBLIC	??$_Ptr_cat@V?$_Vector_const_iterator@V?$_Vector_val@UUpDownAttackAttribute@ioFireAndBuffCheckSkill@@V?$allocator@UUpDownAttackAttribute@ioFireAndBuffCheckSkill@@@std@@@std@@@std@@PAUUpDownAttackAttribute@ioFireAndBuffCheckSkill@@@std@@YA?AU_Nonscalar_ptr_iterator_tag@0@AAV?$_Vector_const_iterator@V?$_Vector_val@UUpDownAttackAttribute@ioFireAndBuffCheckSkill@@V?$allocator@UUpDownAttackAttribute@ioFireAndBuffCheckSkill@@@std@@@std@@@0@AAPAUUpDownAttackAttribute@ioFireAndBuffCheckSkill@@@Z ; std::_Ptr_cat<std::_Vector_const_iterator<std::_Vector_val<ioFireAndBuffCheckSkill::UpDownAttackAttribute,std::allocator<ioFireAndBuffCheckSkill::UpDownAttackAttribute> > >,ioFireAndBuffCheckSkill::UpDownAttackAttribute *>
; Function compile flags: /Ogsp
;	COMDAT ??$_Ptr_cat@V?$_Vector_const_iterator@V?$_Vector_val@UUpDownAttackAttribute@ioFireAndBuffCheckSkill@@V?$allocator@UUpDownAttackAttribute@ioFireAndBuffCheckSkill@@@std@@@std@@@std@@PAUUpDownAttackAttribute@ioFireAndBuffCheckSkill@@@std@@YA?AU_Nonscalar_ptr_iterator_tag@0@AAV?$_Vector_const_iterator@V?$_Vector_val@UUpDownAttackAttribute@ioFireAndBuffCheckSkill@@V?$allocator@UUpDownAttackAttribute@ioFireAndBuffCheckSkill@@@std@@@std@@@0@AAPAUUpDownAttackAttribute@ioFireAndBuffCheckSkill@@@Z
_TEXT	SEGMENT
__Cat$ = -1						; size = 1
___formal$ = 8						; size = 4
___formal$ = 12						; size = 4
??$_Ptr_cat@V?$_Vector_const_iterator@V?$_Vector_val@UUpDownAttackAttribute@ioFireAndBuffCheckSkill@@V?$allocator@UUpDownAttackAttribute@ioFireAndBuffCheckSkill@@@std@@@std@@@std@@PAUUpDownAttackAttribute@ioFireAndBuffCheckSkill@@@std@@YA?AU_Nonscalar_ptr_iterator_tag@0@AAV?$_Vector_const_iterator@V?$_Vector_val@UUpDownAttackAttribute@ioFireAndBuffCheckSkill@@V?$allocator@UUpDownAttackAttribute@ioFireAndBuffCheckSkill@@@std@@@std@@@0@AAPAUUpDownAttackAttribute@ioFireAndBuffCheckSkill@@@Z PROC ; std::_Ptr_cat<std::_Vector_const_iterator<std::_Vector_val<ioFireAndBuffCheckSkill::UpDownAttackAttribute,std::allocator<ioFireAndBuffCheckSkill::UpDownAttackAttribute> > >,ioFireAndBuffCheckSkill::UpDownAttackAttribute *>, COMDAT

; 485  : 	{	// return pointer category from arbitrary arguments

  00000	55		 push	 ebp
  00001	8b ec		 mov	 ebp, esp
  00003	51		 push	 ecx

; 486  : 	_Nonscalar_ptr_iterator_tag _Cat;
; 487  : 	return (_Cat);

  00004	8a 45 ff	 mov	 al, BYTE PTR __Cat$[ebp]

; 488  : 	}

  00007	c9		 leave
  00008	c3		 ret	 0
??$_Ptr_cat@V?$_Vector_const_iterator@V?$_Vector_val@UUpDownAttackAttribute@ioFireAndBuffCheckSkill@@V?$allocator@UUpDownAttackAttribute@ioFireAndBuffCheckSkill@@@std@@@std@@@std@@PAUUpDownAttackAttribute@ioFireAndBuffCheckSkill@@@std@@YA?AU_Nonscalar_ptr_iterator_tag@0@AAV?$_Vector_const_iterator@V?$_Vector_val@UUpDownAttackAttribute@ioFireAndBuffCheckSkill@@V?$allocator@UUpDownAttackAttribute@ioFireAndBuffCheckSkill@@@std@@@std@@@0@AAPAUUpDownAttackAttribute@ioFireAndBuffCheckSkill@@@Z ENDP ; std::_Ptr_cat<std::_Vector_const_iterator<std::_Vector_val<ioFireAndBuffCheckSkill::UpDownAttackAttribute,std::allocator<ioFireAndBuffCheckSkill::UpDownAttackAttribute> > >,ioFireAndBuffCheckSkill::UpDownAttackAttribute *>
_TEXT	ENDS
PUBLIC	??$_Val_type@PAUUpDownAttackAttribute@ioFireAndBuffCheckSkill@@@std@@YAPAUUpDownAttackAttribute@ioFireAndBuffCheckSkill@@PAU12@@Z ; std::_Val_type<ioFireAndBuffCheckSkill::UpDownAttackAttribute *>
; Function compile flags: /Ogsp
;	COMDAT ??$_Val_type@PAUUpDownAttackAttribute@ioFireAndBuffCheckSkill@@@std@@YAPAUUpDownAttackAttribute@ioFireAndBuffCheckSkill@@PAU12@@Z
_TEXT	SEGMENT
___formal$ = 8						; size = 4
??$_Val_type@PAUUpDownAttackAttribute@ioFireAndBuffCheckSkill@@@std@@YAPAUUpDownAttackAttribute@ioFireAndBuffCheckSkill@@PAU12@@Z PROC ; std::_Val_type<ioFireAndBuffCheckSkill::UpDownAttackAttribute *>, COMDAT

; 790  : 	return (0);

  00000	33 c0		 xor	 eax, eax

; 791  : 	}

  00002	c3		 ret	 0
??$_Val_type@PAUUpDownAttackAttribute@ioFireAndBuffCheckSkill@@@std@@YAPAUUpDownAttackAttribute@ioFireAndBuffCheckSkill@@PAU12@@Z ENDP ; std::_Val_type<ioFireAndBuffCheckSkill::UpDownAttackAttribute *>
_TEXT	ENDS
PUBLIC	??$move@AAUtagBaseCharDistanceSq@@@std@@YA$$QAUtagBaseCharDistanceSq@@AAU1@@Z ; std::move<tagBaseCharDistanceSq &>
; Function compile flags: /Ogsp
; File c:\program files (x86)\microsoft visual studio 10.0\vc\include\utility
;	COMDAT ??$move@AAUtagBaseCharDistanceSq@@@std@@YA$$QAUtagBaseCharDistanceSq@@AAU1@@Z
_TEXT	SEGMENT
__Arg$ = 8						; size = 4
??$move@AAUtagBaseCharDistanceSq@@@std@@YA$$QAUtagBaseCharDistanceSq@@AAU1@@Z PROC ; std::move<tagBaseCharDistanceSq &>, COMDAT

; 86   : 	{	// forward _Arg as movable

  00000	55		 push	 ebp
  00001	8b ec		 mov	 ebp, esp

; 87   : 	return ((typename tr1::_Remove_reference<_Ty>::_Type&&)_Arg);

  00003	8b 45 08	 mov	 eax, DWORD PTR __Arg$[ebp]

; 88   : 	}

  00006	5d		 pop	 ebp
  00007	c3		 ret	 0
??$move@AAUtagBaseCharDistanceSq@@@std@@YA$$QAUtagBaseCharDistanceSq@@AAU1@@Z ENDP ; std::move<tagBaseCharDistanceSq &>
_TEXT	ENDS
PUBLIC	??$move@AAUUpDownAttackAttribute@ioFireAndBuffCheckSkill@@@std@@YA$$QAUUpDownAttackAttribute@ioFireAndBuffCheckSkill@@AAU12@@Z ; std::move<ioFireAndBuffCheckSkill::UpDownAttackAttribute &>
; Function compile flags: /Ogsp
;	COMDAT ??$move@AAUUpDownAttackAttribute@ioFireAndBuffCheckSkill@@@std@@YA$$QAUUpDownAttackAttribute@ioFireAndBuffCheckSkill@@AAU12@@Z
_TEXT	SEGMENT
__Arg$ = 8						; size = 4
??$move@AAUUpDownAttackAttribute@ioFireAndBuffCheckSkill@@@std@@YA$$QAUUpDownAttackAttribute@ioFireAndBuffCheckSkill@@AAU12@@Z PROC ; std::move<ioFireAndBuffCheckSkill::UpDownAttackAttribute &>, COMDAT

; 86   : 	{	// forward _Arg as movable

  00000	55		 push	 ebp
  00001	8b ec		 mov	 ebp, esp

; 87   : 	return ((typename tr1::_Remove_reference<_Ty>::_Type&&)_Arg);

  00003	8b 45 08	 mov	 eax, DWORD PTR __Arg$[ebp]

; 88   : 	}

  00006	5d		 pop	 ebp
  00007	c3		 ret	 0
??$move@AAUUpDownAttackAttribute@ioFireAndBuffCheckSkill@@@std@@YA$$QAUUpDownAttackAttribute@ioFireAndBuffCheckSkill@@AAU12@@Z ENDP ; std::move<ioFireAndBuffCheckSkill::UpDownAttackAttribute &>
_TEXT	ENDS
PUBLIC	??$_Val_type@PAUtagBaseCharDistanceSq@@@std@@YAPAUtagBaseCharDistanceSq@@PAU1@@Z ; std::_Val_type<tagBaseCharDistanceSq *>
; Function compile flags: /Ogsp
; File c:\program files (x86)\microsoft visual studio 10.0\vc\include\xutility
;	COMDAT ??$_Val_type@PAUtagBaseCharDistanceSq@@@std@@YAPAUtagBaseCharDistanceSq@@PAU1@@Z
_TEXT	SEGMENT
___formal$ = 8						; size = 4
??$_Val_type@PAUtagBaseCharDistanceSq@@@std@@YAPAUtagBaseCharDistanceSq@@PAU1@@Z PROC ; std::_Val_type<tagBaseCharDistanceSq *>, COMDAT

; 790  : 	return (0);

  00000	33 c0		 xor	 eax, eax

; 791  : 	}

  00002	c3		 ret	 0
??$_Val_type@PAUtagBaseCharDistanceSq@@@std@@YAPAUtagBaseCharDistanceSq@@PAU1@@Z ENDP ; std::_Val_type<tagBaseCharDistanceSq *>
_TEXT	ENDS
PUBLIC	??D?$_Vector_const_iterator@V?$_Vector_val@UWeaponInfo@@V?$allocator@UWeaponInfo@@@std@@@std@@@std@@QBEABUWeaponInfo@@XZ ; std::_Vector_const_iterator<std::_Vector_val<WeaponInfo,std::allocator<WeaponInfo> > >::operator*
; Function compile flags: /Ogsp
; File c:\program files (x86)\microsoft visual studio 10.0\vc\include\vector
;	COMDAT ??D?$_Vector_const_iterator@V?$_Vector_val@UWeaponInfo@@V?$allocator@UWeaponInfo@@@std@@@std@@@std@@QBEABUWeaponInfo@@XZ
_TEXT	SEGMENT
??D?$_Vector_const_iterator@V?$_Vector_val@UWeaponInfo@@V?$allocator@UWeaponInfo@@@std@@@std@@@std@@QBEABUWeaponInfo@@XZ PROC ; std::_Vector_const_iterator<std::_Vector_val<WeaponInfo,std::allocator<WeaponInfo> > >::operator*, COMDAT
; _this$ = ecx

; 64   :  #if _ITERATOR_DEBUG_LEVEL == 2
; 65   : 		if (this->_Getcont() == 0
; 66   : 			|| this->_Ptr == 0
; 67   : 			|| this->_Ptr < ((_Myvec *)this->_Getcont())->_Myfirst
; 68   : 			|| ((_Myvec *)this->_Getcont())->_Mylast <= this->_Ptr)
; 69   : 			{	// report error
; 70   : 			_DEBUG_ERROR("vector iterator not dereferencable");
; 71   : 			_SCL_SECURE_OUT_OF_RANGE;
; 72   : 			}
; 73   : 
; 74   :  #elif _ITERATOR_DEBUG_LEVEL == 1
; 75   : 		_SCL_SECURE_VALIDATE(this->_Getcont() != 0);
; 76   : 		_SCL_SECURE_VALIDATE_RANGE(
; 77   : 			this->_Ptr != 0
; 78   : 			&& ((_Myvec *)this->_Getcont())->_Myfirst <= this->_Ptr
; 79   : 			&& this->_Ptr < ((_Myvec *)this->_Getcont())->_Mylast);
; 80   :  #endif /* _ITERATOR_DEBUG_LEVEL */
; 81   : 
; 82   : 		__analysis_assume(this->_Ptr != 0);
; 83   : 
; 84   : 		return (*this->_Ptr);

  00000	8b 01		 mov	 eax, DWORD PTR [ecx]

; 85   : 		}

  00002	c3		 ret	 0
??D?$_Vector_const_iterator@V?$_Vector_val@UWeaponInfo@@V?$allocator@UWeaponInfo@@@std@@@std@@@std@@QBEABUWeaponInfo@@XZ ENDP ; std::_Vector_const_iterator<std::_Vector_val<WeaponInfo,std::allocator<WeaponInfo> > >::operator*
_TEXT	ENDS
PUBLIC	??E?$_Vector_const_iterator@V?$_Vector_val@UWeaponInfo@@V?$allocator@UWeaponInfo@@@std@@@std@@@std@@QAEAAV01@XZ ; std::_Vector_const_iterator<std::_Vector_val<WeaponInfo,std::allocator<WeaponInfo> > >::operator++
; Function compile flags: /Ogsp
;	COMDAT ??E?$_Vector_const_iterator@V?$_Vector_val@UWeaponInfo@@V?$allocator@UWeaponInfo@@@std@@@std@@@std@@QAEAAV01@XZ
_TEXT	SEGMENT
??E?$_Vector_const_iterator@V?$_Vector_val@UWeaponInfo@@V?$allocator@UWeaponInfo@@@std@@@std@@@std@@QAEAAV01@XZ PROC ; std::_Vector_const_iterator<std::_Vector_val<WeaponInfo,std::allocator<WeaponInfo> > >::operator++, COMDAT
; _this$ = ecx

; 93   : 		{	// preincrement

  00000	8b c1		 mov	 eax, ecx

; 94   :  #if _ITERATOR_DEBUG_LEVEL == 2
; 95   : 		if (this->_Getcont() == 0
; 96   : 			|| this->_Ptr == 0
; 97   : 			|| ((_Myvec *)this->_Getcont())->_Mylast <= this->_Ptr)
; 98   : 			{	// report error
; 99   : 			_DEBUG_ERROR("vector iterator not incrementable");
; 100  : 			_SCL_SECURE_OUT_OF_RANGE;
; 101  : 			}
; 102  : 
; 103  :  #elif _ITERATOR_DEBUG_LEVEL == 1
; 104  : 		_SCL_SECURE_VALIDATE(this->_Getcont() != 0);
; 105  : 		_SCL_SECURE_VALIDATE_RANGE(
; 106  : 			this->_Ptr != 0
; 107  : 			&& this->_Ptr < ((_Myvec *)this->_Getcont())->_Mylast);
; 108  :  #endif /* _ITERATOR_DEBUG_LEVEL */
; 109  : 
; 110  : 		++this->_Ptr;

  00002	83 00 28	 add	 DWORD PTR [eax], 40	; 00000028H

; 111  : 		return (*this);
; 112  : 		}

  00005	c3		 ret	 0
??E?$_Vector_const_iterator@V?$_Vector_val@UWeaponInfo@@V?$allocator@UWeaponInfo@@@std@@@std@@@std@@QAEAAV01@XZ ENDP ; std::_Vector_const_iterator<std::_Vector_val<WeaponInfo,std::allocator<WeaponInfo> > >::operator++
_TEXT	ENDS
PUBLIC	??D?$_Vector_const_iterator@V?$_Vector_val@UForceInfo@@V?$allocator@UForceInfo@@@std@@@std@@@std@@QBEABUForceInfo@@XZ ; std::_Vector_const_iterator<std::_Vector_val<ForceInfo,std::allocator<ForceInfo> > >::operator*
; Function compile flags: /Ogsp
;	COMDAT ??D?$_Vector_const_iterator@V?$_Vector_val@UForceInfo@@V?$allocator@UForceInfo@@@std@@@std@@@std@@QBEABUForceInfo@@XZ
_TEXT	SEGMENT
??D?$_Vector_const_iterator@V?$_Vector_val@UForceInfo@@V?$allocator@UForceInfo@@@std@@@std@@@std@@QBEABUForceInfo@@XZ PROC ; std::_Vector_const_iterator<std::_Vector_val<ForceInfo,std::allocator<ForceInfo> > >::operator*, COMDAT
; _this$ = ecx

; 64   :  #if _ITERATOR_DEBUG_LEVEL == 2
; 65   : 		if (this->_Getcont() == 0
; 66   : 			|| this->_Ptr == 0
; 67   : 			|| this->_Ptr < ((_Myvec *)this->_Getcont())->_Myfirst
; 68   : 			|| ((_Myvec *)this->_Getcont())->_Mylast <= this->_Ptr)
; 69   : 			{	// report error
; 70   : 			_DEBUG_ERROR("vector iterator not dereferencable");
; 71   : 			_SCL_SECURE_OUT_OF_RANGE;
; 72   : 			}
; 73   : 
; 74   :  #elif _ITERATOR_DEBUG_LEVEL == 1
; 75   : 		_SCL_SECURE_VALIDATE(this->_Getcont() != 0);
; 76   : 		_SCL_SECURE_VALIDATE_RANGE(
; 77   : 			this->_Ptr != 0
; 78   : 			&& ((_Myvec *)this->_Getcont())->_Myfirst <= this->_Ptr
; 79   : 			&& this->_Ptr < ((_Myvec *)this->_Getcont())->_Mylast);
; 80   :  #endif /* _ITERATOR_DEBUG_LEVEL */
; 81   : 
; 82   : 		__analysis_assume(this->_Ptr != 0);
; 83   : 
; 84   : 		return (*this->_Ptr);

  00000	8b 01		 mov	 eax, DWORD PTR [ecx]

; 85   : 		}

  00002	c3		 ret	 0
??D?$_Vector_const_iterator@V?$_Vector_val@UForceInfo@@V?$allocator@UForceInfo@@@std@@@std@@@std@@QBEABUForceInfo@@XZ ENDP ; std::_Vector_const_iterator<std::_Vector_val<ForceInfo,std::allocator<ForceInfo> > >::operator*
_TEXT	ENDS
PUBLIC	??E?$_Vector_const_iterator@V?$_Vector_val@UForceInfo@@V?$allocator@UForceInfo@@@std@@@std@@@std@@QAEAAV01@XZ ; std::_Vector_const_iterator<std::_Vector_val<ForceInfo,std::allocator<ForceInfo> > >::operator++
; Function compile flags: /Ogsp
;	COMDAT ??E?$_Vector_const_iterator@V?$_Vector_val@UForceInfo@@V?$allocator@UForceInfo@@@std@@@std@@@std@@QAEAAV01@XZ
_TEXT	SEGMENT
??E?$_Vector_const_iterator@V?$_Vector_val@UForceInfo@@V?$allocator@UForceInfo@@@std@@@std@@@std@@QAEAAV01@XZ PROC ; std::_Vector_const_iterator<std::_Vector_val<ForceInfo,std::allocator<ForceInfo> > >::operator++, COMDAT
; _this$ = ecx

; 93   : 		{	// preincrement

  00000	8b c1		 mov	 eax, ecx

; 94   :  #if _ITERATOR_DEBUG_LEVEL == 2
; 95   : 		if (this->_Getcont() == 0
; 96   : 			|| this->_Ptr == 0
; 97   : 			|| ((_Myvec *)this->_Getcont())->_Mylast <= this->_Ptr)
; 98   : 			{	// report error
; 99   : 			_DEBUG_ERROR("vector iterator not incrementable");
; 100  : 			_SCL_SECURE_OUT_OF_RANGE;
; 101  : 			}
; 102  : 
; 103  :  #elif _ITERATOR_DEBUG_LEVEL == 1
; 104  : 		_SCL_SECURE_VALIDATE(this->_Getcont() != 0);
; 105  : 		_SCL_SECURE_VALIDATE_RANGE(
; 106  : 			this->_Ptr != 0
; 107  : 			&& this->_Ptr < ((_Myvec *)this->_Getcont())->_Mylast);
; 108  :  #endif /* _ITERATOR_DEBUG_LEVEL */
; 109  : 
; 110  : 		++this->_Ptr;

  00002	83 00 0c	 add	 DWORD PTR [eax], 12	; 0000000cH

; 111  : 		return (*this);
; 112  : 		}

  00005	c3		 ret	 0
??E?$_Vector_const_iterator@V?$_Vector_val@UForceInfo@@V?$allocator@UForceInfo@@@std@@@std@@@std@@QAEAAV01@XZ ENDP ; std::_Vector_const_iterator<std::_Vector_val<ForceInfo,std::allocator<ForceInfo> > >::operator++
_TEXT	ENDS
PUBLIC	??D?$_Vector_const_iterator@V?$_Vector_val@UUpDownAttackAttribute@ioFireAndBuffCheckSkill@@V?$allocator@UUpDownAttackAttribute@ioFireAndBuffCheckSkill@@@std@@@std@@@std@@QBEABUUpDownAttackAttribute@ioFireAndBuffCheckSkill@@XZ ; std::_Vector_const_iterator<std::_Vector_val<ioFireAndBuffCheckSkill::UpDownAttackAttribute,std::allocator<ioFireAndBuffCheckSkill::UpDownAttackAttribute> > >::operator*
; Function compile flags: /Ogsp
;	COMDAT ??D?$_Vector_const_iterator@V?$_Vector_val@UUpDownAttackAttribute@ioFireAndBuffCheckSkill@@V?$allocator@UUpDownAttackAttribute@ioFireAndBuffCheckSkill@@@std@@@std@@@std@@QBEABUUpDownAttackAttribute@ioFireAndBuffCheckSkill@@XZ
_TEXT	SEGMENT
??D?$_Vector_const_iterator@V?$_Vector_val@UUpDownAttackAttribute@ioFireAndBuffCheckSkill@@V?$allocator@UUpDownAttackAttribute@ioFireAndBuffCheckSkill@@@std@@@std@@@std@@QBEABUUpDownAttackAttribute@ioFireAndBuffCheckSkill@@XZ PROC ; std::_Vector_const_iterator<std::_Vector_val<ioFireAndBuffCheckSkill::UpDownAttackAttribute,std::allocator<ioFireAndBuffCheckSkill::UpDownAttackAttribute> > >::operator*, COMDAT
; _this$ = ecx

; 64   :  #if _ITERATOR_DEBUG_LEVEL == 2
; 65   : 		if (this->_Getcont() == 0
; 66   : 			|| this->_Ptr == 0
; 67   : 			|| this->_Ptr < ((_Myvec *)this->_Getcont())->_Myfirst
; 68   : 			|| ((_Myvec *)this->_Getcont())->_Mylast <= this->_Ptr)
; 69   : 			{	// report error
; 70   : 			_DEBUG_ERROR("vector iterator not dereferencable");
; 71   : 			_SCL_SECURE_OUT_OF_RANGE;
; 72   : 			}
; 73   : 
; 74   :  #elif _ITERATOR_DEBUG_LEVEL == 1
; 75   : 		_SCL_SECURE_VALIDATE(this->_Getcont() != 0);
; 76   : 		_SCL_SECURE_VALIDATE_RANGE(
; 77   : 			this->_Ptr != 0
; 78   : 			&& ((_Myvec *)this->_Getcont())->_Myfirst <= this->_Ptr
; 79   : 			&& this->_Ptr < ((_Myvec *)this->_Getcont())->_Mylast);
; 80   :  #endif /* _ITERATOR_DEBUG_LEVEL */
; 81   : 
; 82   : 		__analysis_assume(this->_Ptr != 0);
; 83   : 
; 84   : 		return (*this->_Ptr);

  00000	8b 01		 mov	 eax, DWORD PTR [ecx]

; 85   : 		}

  00002	c3		 ret	 0
??D?$_Vector_const_iterator@V?$_Vector_val@UUpDownAttackAttribute@ioFireAndBuffCheckSkill@@V?$allocator@UUpDownAttackAttribute@ioFireAndBuffCheckSkill@@@std@@@std@@@std@@QBEABUUpDownAttackAttribute@ioFireAndBuffCheckSkill@@XZ ENDP ; std::_Vector_const_iterator<std::_Vector_val<ioFireAndBuffCheckSkill::UpDownAttackAttribute,std::allocator<ioFireAndBuffCheckSkill::UpDownAttackAttribute> > >::operator*
_TEXT	ENDS
PUBLIC	??E?$_Vector_const_iterator@V?$_Vector_val@UUpDownAttackAttribute@ioFireAndBuffCheckSkill@@V?$allocator@UUpDownAttackAttribute@ioFireAndBuffCheckSkill@@@std@@@std@@@std@@QAEAAV01@XZ ; std::_Vector_const_iterator<std::_Vector_val<ioFireAndBuffCheckSkill::UpDownAttackAttribute,std::allocator<ioFireAndBuffCheckSkill::UpDownAttackAttribute> > >::operator++
; Function compile flags: /Ogsp
;	COMDAT ??E?$_Vector_const_iterator@V?$_Vector_val@UUpDownAttackAttribute@ioFireAndBuffCheckSkill@@V?$allocator@UUpDownAttackAttribute@ioFireAndBuffCheckSkill@@@std@@@std@@@std@@QAEAAV01@XZ
_TEXT	SEGMENT
??E?$_Vector_const_iterator@V?$_Vector_val@UUpDownAttackAttribute@ioFireAndBuffCheckSkill@@V?$allocator@UUpDownAttackAttribute@ioFireAndBuffCheckSkill@@@std@@@std@@@std@@QAEAAV01@XZ PROC ; std::_Vector_const_iterator<std::_Vector_val<ioFireAndBuffCheckSkill::UpDownAttackAttribute,std::allocator<ioFireAndBuffCheckSkill::UpDownAttackAttribute> > >::operator++, COMDAT
; _this$ = ecx

; 93   : 		{	// preincrement

  00000	8b c1		 mov	 eax, ecx

; 94   :  #if _ITERATOR_DEBUG_LEVEL == 2
; 95   : 		if (this->_Getcont() == 0
; 96   : 			|| this->_Ptr == 0
; 97   : 			|| ((_Myvec *)this->_Getcont())->_Mylast <= this->_Ptr)
; 98   : 			{	// report error
; 99   : 			_DEBUG_ERROR("vector iterator not incrementable");
; 100  : 			_SCL_SECURE_OUT_OF_RANGE;
; 101  : 			}
; 102  : 
; 103  :  #elif _ITERATOR_DEBUG_LEVEL == 1
; 104  : 		_SCL_SECURE_VALIDATE(this->_Getcont() != 0);
; 105  : 		_SCL_SECURE_VALIDATE_RANGE(
; 106  : 			this->_Ptr != 0
; 107  : 			&& this->_Ptr < ((_Myvec *)this->_Getcont())->_Mylast);
; 108  :  #endif /* _ITERATOR_DEBUG_LEVEL */
; 109  : 
; 110  : 		++this->_Ptr;

  00002	83 00 70	 add	 DWORD PTR [eax], 112	; 00000070H

; 111  : 		return (*this);
; 112  : 		}

  00005	c3		 ret	 0
??E?$_Vector_const_iterator@V?$_Vector_val@UUpDownAttackAttribute@ioFireAndBuffCheckSkill@@V?$allocator@UUpDownAttackAttribute@ioFireAndBuffCheckSkill@@@std@@@std@@@std@@QAEAAV01@XZ ENDP ; std::_Vector_const_iterator<std::_Vector_val<ioFireAndBuffCheckSkill::UpDownAttackAttribute,std::allocator<ioFireAndBuffCheckSkill::UpDownAttackAttribute> > >::operator++
_TEXT	ENDS
PUBLIC	??$_Unchecked@PAUtagBaseCharDistanceSq@@@std@@YAPAUtagBaseCharDistanceSq@@PAU1@@Z ; std::_Unchecked<tagBaseCharDistanceSq *>
; Function compile flags: /Ogsp
; File c:\program files (x86)\microsoft visual studio 10.0\vc\include\xutility
;	COMDAT ??$_Unchecked@PAUtagBaseCharDistanceSq@@@std@@YAPAUtagBaseCharDistanceSq@@PAU1@@Z
_TEXT	SEGMENT
__Src$ = 8						; size = 4
??$_Unchecked@PAUtagBaseCharDistanceSq@@@std@@YAPAUtagBaseCharDistanceSq@@PAU1@@Z PROC ; std::_Unchecked<tagBaseCharDistanceSq *>, COMDAT

; 266  : 	{	// construct unchecked from checked, generic

  00000	55		 push	 ebp
  00001	8b ec		 mov	 ebp, esp

; 267  : 	return (_Src);

  00003	8b 45 08	 mov	 eax, DWORD PTR __Src$[ebp]

; 268  : 	}

  00006	5d		 pop	 ebp
  00007	c3		 ret	 0
??$_Unchecked@PAUtagBaseCharDistanceSq@@@std@@YAPAUtagBaseCharDistanceSq@@PAU1@@Z ENDP ; std::_Unchecked<tagBaseCharDistanceSq *>
_TEXT	ENDS
PUBLIC	??$_Dist_type@PAUtagBaseCharDistanceSq@@@std@@YAPAHPAUtagBaseCharDistanceSq@@@Z ; std::_Dist_type<tagBaseCharDistanceSq *>
; Function compile flags: /Ogsp
;	COMDAT ??$_Dist_type@PAUtagBaseCharDistanceSq@@@std@@YAPAHPAUtagBaseCharDistanceSq@@@Z
_TEXT	SEGMENT
___formal$ = 8						; size = 4
??$_Dist_type@PAUtagBaseCharDistanceSq@@@std@@YAPAHPAUtagBaseCharDistanceSq@@@Z PROC ; std::_Dist_type<tagBaseCharDistanceSq *>, COMDAT

; 850  : 	return (0);

  00000	33 c0		 xor	 eax, eax

; 851  : 	}

  00002	c3		 ret	 0
??$_Dist_type@PAUtagBaseCharDistanceSq@@@std@@YAPAHPAUtagBaseCharDistanceSq@@@Z ENDP ; std::_Dist_type<tagBaseCharDistanceSq *>
_TEXT	ENDS
PUBLIC	??_GtagBaseCharDistanceSq@@QAEPAXI@Z		; tagBaseCharDistanceSq::`scalar deleting destructor'
; Function compile flags: /Ogsp
;	COMDAT ??_GtagBaseCharDistanceSq@@QAEPAXI@Z
_TEXT	SEGMENT
___flags$ = 8						; size = 4
??_GtagBaseCharDistanceSq@@QAEPAXI@Z PROC		; tagBaseCharDistanceSq::`scalar deleting destructor', COMDAT
; _this$ = ecx
  00000	55		 push	 ebp
  00001	8b ec		 mov	 ebp, esp
  00003	56		 push	 esi
  00004	8b f1		 mov	 esi, ecx
  00006	ff 15 00 00 00
	00		 call	 DWORD PTR __imp_??1ioHashString@@QAE@XZ
  0000c	f6 45 08 01	 test	 BYTE PTR ___flags$[ebp], 1
  00010	74 07		 je	 SHORT $LN1@scalar@2
  00012	56		 push	 esi
  00013	e8 00 00 00 00	 call	 ??3@YAXPAX@Z		; operator delete
  00018	59		 pop	 ecx
$LN1@scalar@2:
  00019	8b c6		 mov	 eax, esi
  0001b	5e		 pop	 esi
  0001c	5d		 pop	 ebp
  0001d	c2 04 00	 ret	 4
??_GtagBaseCharDistanceSq@@QAEPAXI@Z ENDP		; tagBaseCharDistanceSq::`scalar deleting destructor'
_TEXT	ENDS
PUBLIC	??$forward@AAPAUtagBaseCharDistanceSq@@@std@@YAAAPAUtagBaseCharDistanceSq@@AAPAU1@@Z ; std::forward<tagBaseCharDistanceSq * &>
; Function compile flags: /Ogsp
; File c:\program files (x86)\microsoft visual studio 10.0\vc\include\utility
;	COMDAT ??$forward@AAPAUtagBaseCharDistanceSq@@@std@@YAAAPAUtagBaseCharDistanceSq@@AAPAU1@@Z
_TEXT	SEGMENT
__Arg$ = 8						; size = 4
??$forward@AAPAUtagBaseCharDistanceSq@@@std@@YAAAPAUtagBaseCharDistanceSq@@AAPAU1@@Z PROC ; std::forward<tagBaseCharDistanceSq * &>, COMDAT

; 78   : 	{	// forward _Arg, given explicitly specified type parameter

  00000	55		 push	 ebp
  00001	8b ec		 mov	 ebp, esp

; 79   : 	return ((_Ty&&)_Arg);

  00003	8b 45 08	 mov	 eax, DWORD PTR __Arg$[ebp]

; 80   : 	}

  00006	5d		 pop	 ebp
  00007	c3		 ret	 0
??$forward@AAPAUtagBaseCharDistanceSq@@@std@@YAAAPAUtagBaseCharDistanceSq@@AAPAU1@@Z ENDP ; std::forward<tagBaseCharDistanceSq * &>
_TEXT	ENDS
PUBLIC	??$?0AAPAUtagBaseCharDistanceSq@@AAPAU0@@?$_Pair_base@PAUtagBaseCharDistanceSq@@PAU1@@std@@QAE@AAPAUtagBaseCharDistanceSq@@0@Z ; std::_Pair_base<tagBaseCharDistanceSq *,tagBaseCharDistanceSq *>::_Pair_base<tagBaseCharDistanceSq *,tagBaseCharDistanceSq *><tagBaseCharDistanceSq * &,tagBaseCharDistanceSq * &>
; Function compile flags: /Ogsp
;	COMDAT ??$?0AAPAUtagBaseCharDistanceSq@@AAPAU0@@?$_Pair_base@PAUtagBaseCharDistanceSq@@PAU1@@std@@QAE@AAPAUtagBaseCharDistanceSq@@0@Z
_TEXT	SEGMENT
__Val1$ = 8						; size = 4
__Val2$ = 12						; size = 4
??$?0AAPAUtagBaseCharDistanceSq@@AAPAU0@@?$_Pair_base@PAUtagBaseCharDistanceSq@@PAU1@@std@@QAE@AAPAUtagBaseCharDistanceSq@@0@Z PROC ; std::_Pair_base<tagBaseCharDistanceSq *,tagBaseCharDistanceSq *>::_Pair_base<tagBaseCharDistanceSq *,tagBaseCharDistanceSq *><tagBaseCharDistanceSq * &,tagBaseCharDistanceSq * &>, COMDAT
; _this$ = ecx

; 163  : 		{	// construct from moved values

  00000	55		 push	 ebp
  00001	8b ec		 mov	 ebp, esp
  00003	8b c1		 mov	 eax, ecx
  00005	8b 4d 08	 mov	 ecx, DWORD PTR __Val1$[ebp]
  00008	8b 09		 mov	 ecx, DWORD PTR [ecx]
  0000a	89 08		 mov	 DWORD PTR [eax], ecx
  0000c	8b 4d 0c	 mov	 ecx, DWORD PTR __Val2$[ebp]
  0000f	8b 09		 mov	 ecx, DWORD PTR [ecx]
  00011	89 48 04	 mov	 DWORD PTR [eax+4], ecx

; 164  : 		}

  00014	5d		 pop	 ebp
  00015	c2 08 00	 ret	 8
??$?0AAPAUtagBaseCharDistanceSq@@AAPAU0@@?$_Pair_base@PAUtagBaseCharDistanceSq@@PAU1@@std@@QAE@AAPAUtagBaseCharDistanceSq@@0@Z ENDP ; std::_Pair_base<tagBaseCharDistanceSq *,tagBaseCharDistanceSq *>::_Pair_base<tagBaseCharDistanceSq *,tagBaseCharDistanceSq *><tagBaseCharDistanceSq * &,tagBaseCharDistanceSq * &>
_TEXT	ENDS
PUBLIC	??$_Move@AAUtagBaseCharDistanceSq@@@std@@YA$$QAUtagBaseCharDistanceSq@@AAU1@@Z ; std::_Move<tagBaseCharDistanceSq &>
; Function compile flags: /Ogsp
;	COMDAT ??$_Move@AAUtagBaseCharDistanceSq@@@std@@YA$$QAUtagBaseCharDistanceSq@@AAU1@@Z
_TEXT	SEGMENT
__Arg$ = 8						; size = 4
??$_Move@AAUtagBaseCharDistanceSq@@@std@@YA$$QAUtagBaseCharDistanceSq@@AAU1@@Z PROC ; std::_Move<tagBaseCharDistanceSq &>, COMDAT

; 94   : 	{	// forward _Arg as movable

  00000	55		 push	 ebp
  00001	8b ec		 mov	 ebp, esp

; 95   : 	return ((typename tr1::_Remove_reference<_Ty>::_Type&&)_Arg);

  00003	8b 45 08	 mov	 eax, DWORD PTR __Arg$[ebp]

; 96   : 	}

  00006	5d		 pop	 ebp
  00007	c3		 ret	 0
??$_Move@AAUtagBaseCharDistanceSq@@@std@@YA$$QAUtagBaseCharDistanceSq@@AAU1@@Z ENDP ; std::_Move<tagBaseCharDistanceSq &>
_TEXT	ENDS
PUBLIC	??$forward@VioHashString@@@std@@YA$$QAVioHashString@@AAV1@@Z ; std::forward<ioHashString>
; Function compile flags: /Ogsp
;	COMDAT ??$forward@VioHashString@@@std@@YA$$QAVioHashString@@AAV1@@Z
_TEXT	SEGMENT
__Arg$ = 8						; size = 4
??$forward@VioHashString@@@std@@YA$$QAVioHashString@@AAV1@@Z PROC ; std::forward<ioHashString>, COMDAT

; 78   : 	{	// forward _Arg, given explicitly specified type parameter

  00000	55		 push	 ebp
  00001	8b ec		 mov	 ebp, esp

; 79   : 	return ((_Ty&&)_Arg);

  00003	8b 45 08	 mov	 eax, DWORD PTR __Arg$[ebp]

; 80   : 	}

  00006	5d		 pop	 ebp
  00007	c3		 ret	 0
??$forward@VioHashString@@@std@@YA$$QAVioHashString@@AAV1@@Z ENDP ; std::forward<ioHashString>
_TEXT	ENDS
PUBLIC	??$forward@ABUWeaponInfo@@@std@@YAABUWeaponInfo@@ABU1@@Z ; std::forward<WeaponInfo const &>
; Function compile flags: /Ogsp
;	COMDAT ??$forward@ABUWeaponInfo@@@std@@YAABUWeaponInfo@@ABU1@@Z
_TEXT	SEGMENT
__Arg$ = 8						; size = 4
??$forward@ABUWeaponInfo@@@std@@YAABUWeaponInfo@@ABU1@@Z PROC ; std::forward<WeaponInfo const &>, COMDAT

; 78   : 	{	// forward _Arg, given explicitly specified type parameter

  00000	55		 push	 ebp
  00001	8b ec		 mov	 ebp, esp

; 79   : 	return ((_Ty&&)_Arg);

  00003	8b 45 08	 mov	 eax, DWORD PTR __Arg$[ebp]

; 80   : 	}

  00006	5d		 pop	 ebp
  00007	c3		 ret	 0
??$forward@ABUWeaponInfo@@@std@@YAABUWeaponInfo@@ABU1@@Z ENDP ; std::forward<WeaponInfo const &>
_TEXT	ENDS
PUBLIC	??$forward@ABUForceInfo@@@std@@YAABUForceInfo@@ABU1@@Z ; std::forward<ForceInfo const &>
; Function compile flags: /Ogsp
;	COMDAT ??$forward@ABUForceInfo@@@std@@YAABUForceInfo@@ABU1@@Z
_TEXT	SEGMENT
__Arg$ = 8						; size = 4
??$forward@ABUForceInfo@@@std@@YAABUForceInfo@@ABU1@@Z PROC ; std::forward<ForceInfo const &>, COMDAT

; 78   : 	{	// forward _Arg, given explicitly specified type parameter

  00000	55		 push	 ebp
  00001	8b ec		 mov	 ebp, esp

; 79   : 	return ((_Ty&&)_Arg);

  00003	8b 45 08	 mov	 eax, DWORD PTR __Arg$[ebp]

; 80   : 	}

  00006	5d		 pop	 ebp
  00007	c3		 ret	 0
??$forward@ABUForceInfo@@@std@@YAABUForceInfo@@ABU1@@Z ENDP ; std::forward<ForceInfo const &>
_TEXT	ENDS
PUBLIC	??$forward@UUpDownAttackAttribute@ioFireAndBuffCheckSkill@@@std@@YA$$QAUUpDownAttackAttribute@ioFireAndBuffCheckSkill@@AAU12@@Z ; std::forward<ioFireAndBuffCheckSkill::UpDownAttackAttribute>
; Function compile flags: /Ogsp
;	COMDAT ??$forward@UUpDownAttackAttribute@ioFireAndBuffCheckSkill@@@std@@YA$$QAUUpDownAttackAttribute@ioFireAndBuffCheckSkill@@AAU12@@Z
_TEXT	SEGMENT
__Arg$ = 8						; size = 4
??$forward@UUpDownAttackAttribute@ioFireAndBuffCheckSkill@@@std@@YA$$QAUUpDownAttackAttribute@ioFireAndBuffCheckSkill@@AAU12@@Z PROC ; std::forward<ioFireAndBuffCheckSkill::UpDownAttackAttribute>, COMDAT

; 78   : 	{	// forward _Arg, given explicitly specified type parameter

  00000	55		 push	 ebp
  00001	8b ec		 mov	 ebp, esp

; 79   : 	return ((_Ty&&)_Arg);

  00003	8b 45 08	 mov	 eax, DWORD PTR __Arg$[ebp]

; 80   : 	}

  00006	5d		 pop	 ebp
  00007	c3		 ret	 0
??$forward@UUpDownAttackAttribute@ioFireAndBuffCheckSkill@@@std@@YA$$QAUUpDownAttackAttribute@ioFireAndBuffCheckSkill@@AAU12@@Z ENDP ; std::forward<ioFireAndBuffCheckSkill::UpDownAttackAttribute>
_TEXT	ENDS
PUBLIC	??$forward@UtagBaseCharDistanceSq@@@std@@YA$$QAUtagBaseCharDistanceSq@@AAU1@@Z ; std::forward<tagBaseCharDistanceSq>
; Function compile flags: /Ogsp
;	COMDAT ??$forward@UtagBaseCharDistanceSq@@@std@@YA$$QAUtagBaseCharDistanceSq@@AAU1@@Z
_TEXT	SEGMENT
__Arg$ = 8						; size = 4
??$forward@UtagBaseCharDistanceSq@@@std@@YA$$QAUtagBaseCharDistanceSq@@AAU1@@Z PROC ; std::forward<tagBaseCharDistanceSq>, COMDAT

; 78   : 	{	// forward _Arg, given explicitly specified type parameter

  00000	55		 push	 ebp
  00001	8b ec		 mov	 ebp, esp

; 79   : 	return ((_Ty&&)_Arg);

  00003	8b 45 08	 mov	 eax, DWORD PTR __Arg$[ebp]

; 80   : 	}

  00006	5d		 pop	 ebp
  00007	c3		 ret	 0
??$forward@UtagBaseCharDistanceSq@@@std@@YA$$QAUtagBaseCharDistanceSq@@AAU1@@Z ENDP ; std::forward<tagBaseCharDistanceSq>
_TEXT	ENDS
PUBLIC	??$_Construct@UForceInfo@@ABU1@@std@@YAXPAUForceInfo@@ABU1@@Z ; std::_Construct<ForceInfo,ForceInfo const &>
; Function compile flags: /Ogsp
; File c:\program files (x86)\microsoft visual studio 10.0\vc\include\xmemory
;	COMDAT ??$_Construct@UForceInfo@@ABU1@@std@@YAXPAUForceInfo@@ABU1@@Z
_TEXT	SEGMENT
__Ptr$ = 8						; size = 4
__Val$ = 12						; size = 4
??$_Construct@UForceInfo@@ABU1@@std@@YAXPAUForceInfo@@ABU1@@Z PROC ; std::_Construct<ForceInfo,ForceInfo const &>, COMDAT

; 46   : 	{	// construct object at _Ptr with value _Val

  00000	55		 push	 ebp
  00001	8b ec		 mov	 ebp, esp
  00003	57		 push	 edi

; 47   : 	void _FARQ *_Vptr = _Ptr;
; 48   : 	::new (_Vptr) _Ty1(_STD forward<_Ty2>(_Val));

  00004	8b 7d 08	 mov	 edi, DWORD PTR __Ptr$[ebp]
  00007	85 ff		 test	 edi, edi
  00009	74 08		 je	 SHORT $LN3@Construct
  0000b	56		 push	 esi
  0000c	8b 75 0c	 mov	 esi, DWORD PTR __Val$[ebp]
  0000f	a5		 movsd
  00010	a5		 movsd
  00011	a5		 movsd
  00012	5e		 pop	 esi
$LN3@Construct:
  00013	5f		 pop	 edi

; 49   : 	}

  00014	5d		 pop	 ebp
  00015	c3		 ret	 0
??$_Construct@UForceInfo@@ABU1@@std@@YAXPAUForceInfo@@ABU1@@Z ENDP ; std::_Construct<ForceInfo,ForceInfo const &>
_TEXT	ENDS
PUBLIC	??$_Move_backward@PAUtagBaseCharDistanceSq@@PAU1@@std@@YAPAUtagBaseCharDistanceSq@@PAU1@00U_Nonscalar_ptr_iterator_tag@0@@Z ; std::_Move_backward<tagBaseCharDistanceSq *,tagBaseCharDistanceSq *>
; Function compile flags: /Ogsp
; File c:\program files (x86)\microsoft visual studio 10.0\vc\include\xutility
;	COMDAT ??$_Move_backward@PAUtagBaseCharDistanceSq@@PAU1@@std@@YAPAUtagBaseCharDistanceSq@@PAU1@00U_Nonscalar_ptr_iterator_tag@0@@Z
_TEXT	SEGMENT
__First$ = 8						; size = 4
__Last$ = 12						; size = 4
__Dest$ = 16						; size = 4
___formal$ = 20						; size = 1
??$_Move_backward@PAUtagBaseCharDistanceSq@@PAU1@@std@@YAPAUtagBaseCharDistanceSq@@PAU1@00U_Nonscalar_ptr_iterator_tag@0@@Z PROC ; std::_Move_backward<tagBaseCharDistanceSq *,tagBaseCharDistanceSq *>, COMDAT

; 2617 : 	{	// move [_First, _Last) backwards to [..., _Dest), arbitrary iterators

  00000	55		 push	 ebp
  00001	8b ec		 mov	 ebp, esp
  00003	56		 push	 esi

; 2618 : 	while (_First != _Last)

  00004	8b 75 0c	 mov	 esi, DWORD PTR __Last$[ebp]
  00007	39 75 08	 cmp	 DWORD PTR __First$[ebp], esi
  0000a	74 15		 je	 SHORT $LN9@Move_backw
$LL2@Move_backw:

; 2619 : 		*--_Dest = _STD move(*--_Last);

  0000c	83 6d 10 20	 sub	 DWORD PTR __Dest$[ebp], 32 ; 00000020H
  00010	8b 4d 10	 mov	 ecx, DWORD PTR __Dest$[ebp]
  00013	83 ee 20	 sub	 esi, 32			; 00000020H
  00016	56		 push	 esi
  00017	e8 00 00 00 00	 call	 ??4tagBaseCharDistanceSq@@QAEAAU0@ABU0@@Z
  0001c	3b 75 08	 cmp	 esi, DWORD PTR __First$[ebp]
  0001f	75 eb		 jne	 SHORT $LL2@Move_backw
$LN9@Move_backw:

; 2620 : 	return (_Dest);

  00021	8b 45 10	 mov	 eax, DWORD PTR __Dest$[ebp]
  00024	5e		 pop	 esi

; 2621 : 	}

  00025	5d		 pop	 ebp
  00026	c3		 ret	 0
??$_Move_backward@PAUtagBaseCharDistanceSq@@PAU1@@std@@YAPAUtagBaseCharDistanceSq@@PAU1@00U_Nonscalar_ptr_iterator_tag@0@@Z ENDP ; std::_Move_backward<tagBaseCharDistanceSq *,tagBaseCharDistanceSq *>
_TEXT	ENDS
PUBLIC	?D3DXVec3LengthSq@@YAMPBUD3DXVECTOR3@@@Z	; D3DXVec3LengthSq
; Function compile flags: /Ogsp
; File c:\program files (x86)\microsoft directx sdk (june 2010)\include\d3dx9math.inl
;	COMDAT ?D3DXVec3LengthSq@@YAMPBUD3DXVECTOR3@@@Z
_TEXT	SEGMENT
tv165 = 8						; size = 4
_pV$ = 8						; size = 4
?D3DXVec3LengthSq@@YAMPBUD3DXVECTOR3@@@Z PROC		; D3DXVec3LengthSq, COMDAT

; 1725 : {

  00000	55		 push	 ebp
  00001	8b ec		 mov	 ebp, esp

; 1726 : #ifdef D3DX_DEBUG
; 1727 :     if(!pV)
; 1728 :         return 0.0f;
; 1729 : #endif
; 1730 : 
; 1731 :     return pV->x * pV->x + pV->y * pV->y + pV->z * pV->z;

  00003	8b 45 08	 mov	 eax, DWORD PTR _pV$[ebp]
  00006	d9 40 04	 fld	 DWORD PTR [eax+4]
  00009	d9 00		 fld	 DWORD PTR [eax]
  0000b	d9 40 08	 fld	 DWORD PTR [eax+8]
  0000e	d9 c1		 fld	 ST(1)
  00010	de ca		 fmulp	 ST(2), ST(0)
  00012	d9 c2		 fld	 ST(2)
  00014	de cb		 fmulp	 ST(3), ST(0)
  00016	d9 c9		 fxch	 ST(1)
  00018	de c2		 faddp	 ST(2), ST(0)
  0001a	d9 c0		 fld	 ST(0)
  0001c	de c9		 fmulp	 ST(1), ST(0)
  0001e	de c1		 faddp	 ST(1), ST(0)
  00020	d9 5d 08	 fstp	 DWORD PTR tv165[ebp]
  00023	d9 45 08	 fld	 DWORD PTR tv165[ebp]

; 1732 : }

  00026	5d		 pop	 ebp
  00027	c3		 ret	 0
?D3DXVec3LengthSq@@YAMPBUD3DXVECTOR3@@@Z ENDP		; D3DXVec3LengthSq
_TEXT	ENDS
PUBLIC	?D3DXVec3Dot@@YAMPBUD3DXVECTOR3@@0@Z		; D3DXVec3Dot
; Function compile flags: /Ogsp
;	COMDAT ?D3DXVec3Dot@@YAMPBUD3DXVECTOR3@@0@Z
_TEXT	SEGMENT
tv188 = 8						; size = 4
_pV1$ = 8						; size = 4
_pV2$ = 12						; size = 4
?D3DXVec3Dot@@YAMPBUD3DXVECTOR3@@0@Z PROC		; D3DXVec3Dot, COMDAT

; 1736 : {

  00000	55		 push	 ebp
  00001	8b ec		 mov	 ebp, esp

; 1737 : #ifdef D3DX_DEBUG
; 1738 :     if(!pV1 || !pV2)
; 1739 :         return 0.0f;
; 1740 : #endif
; 1741 : 
; 1742 :     return pV1->x * pV2->x + pV1->y * pV2->y + pV1->z * pV2->z;

  00003	8b 45 08	 mov	 eax, DWORD PTR _pV1$[ebp]
  00006	8b 4d 0c	 mov	 ecx, DWORD PTR _pV2$[ebp]
  00009	d9 40 04	 fld	 DWORD PTR [eax+4]
  0000c	d8 49 04	 fmul	 DWORD PTR [ecx+4]
  0000f	d9 00		 fld	 DWORD PTR [eax]
  00011	d8 09		 fmul	 DWORD PTR [ecx]
  00013	de c1		 faddp	 ST(1), ST(0)
  00015	d9 40 08	 fld	 DWORD PTR [eax+8]
  00018	d8 49 08	 fmul	 DWORD PTR [ecx+8]
  0001b	de c1		 faddp	 ST(1), ST(0)
  0001d	d9 5d 08	 fstp	 DWORD PTR tv188[ebp]
  00020	d9 45 08	 fld	 DWORD PTR tv188[ebp]

; 1743 : }

  00023	5d		 pop	 ebp
  00024	c3		 ret	 0
?D3DXVec3Dot@@YAMPBUD3DXVECTOR3@@0@Z ENDP		; D3DXVec3Dot
_TEXT	ENDS
PUBLIC	?_DECSTR@@YAXPADH@Z				; _DECSTR
; Function compile flags: /Ogsp
; File d:\lost saga for developer\youtube\tutorial\source\src\lsclient\stringprotect.h
;	COMDAT ?_DECSTR@@YAXPADH@Z
_TEXT	SEGMENT
_s$ = 8							; size = 4
_l$ = 12						; size = 4
?_DECSTR@@YAXPADH@Z PROC				; _DECSTR, COMDAT

; 40   : __forceinline void _DECSTR(char* s, int l){int i=0,l4=(l-1)/4,*p=(int*)s;s[l-1]=0;for(;i<l4;++i)*(p++)^=0xEAEBECED;for(i=l4*4;i<l-1;++i)s[i]^=0xED-i%4;}

  00000	55		 push	 ebp
  00001	8b ec		 mov	 ebp, esp
  00003	8b 4d 0c	 mov	 ecx, DWORD PTR _l$[ebp]
  00006	56		 push	 esi
  00007	8b 75 08	 mov	 esi, DWORD PTR _s$[ebp]
  0000a	57		 push	 edi
  0000b	8d 79 ff	 lea	 edi, DWORD PTR [ecx-1]
  0000e	8b c7		 mov	 eax, edi
  00010	99		 cdq
  00011	83 e2 03	 and	 edx, 3
  00014	03 c2		 add	 eax, edx
  00016	c1 f8 02	 sar	 eax, 2
  00019	8b d6		 mov	 edx, esi
  0001b	c6 44 0e ff 00	 mov	 BYTE PTR [esi+ecx-1], 0
  00020	85 c0		 test	 eax, eax
  00022	7e 0e		 jle	 SHORT $LN4@DECSTR
  00024	8b c8		 mov	 ecx, eax
$LL6@DECSTR:
  00026	81 32 ed ec eb
	ea		 xor	 DWORD PTR [edx], -353637139 ; eaebecedH
  0002c	83 c2 04	 add	 edx, 4
  0002f	49		 dec	 ecx
  00030	75 f4		 jne	 SHORT $LL6@DECSTR
$LN4@DECSTR:
  00032	c1 e0 02	 shl	 eax, 2
  00035	eb 17		 jmp	 SHORT $LN14@DECSTR
$LL3@DECSTR:
  00037	8b c8		 mov	 ecx, eax
  00039	81 e1 03 00 00
	80		 and	 ecx, -2147483645	; 80000003H
  0003f	79 05		 jns	 SHORT $LN13@DECSTR
  00041	49		 dec	 ecx
  00042	83 c9 fc	 or	 ecx, -4			; fffffffcH
  00045	41		 inc	 ecx
$LN13@DECSTR:
  00046	b2 ed		 mov	 dl, -19			; ffffffedH
  00048	2a d1		 sub	 dl, cl
  0004a	30 14 30	 xor	 BYTE PTR [eax+esi], dl
  0004d	40		 inc	 eax
$LN14@DECSTR:
  0004e	3b c7		 cmp	 eax, edi
  00050	7c e5		 jl	 SHORT $LL3@DECSTR
  00052	5f		 pop	 edi
  00053	5e		 pop	 esi
  00054	5d		 pop	 ebp
  00055	c3		 ret	 0
?_DECSTR@@YAXPADH@Z ENDP				; _DECSTR
_TEXT	ENDS
PUBLIC	?return57@@YAIXZ				; return57
; Function compile flags: /Ogsp
; File d:\lost saga for developer\youtube\tutorial\source\src\lsclient\veryoftenusedefine.h
;	COMDAT ?return57@@YAIXZ
_TEXT	SEGMENT
?return57@@YAIXZ PROC					; return57, COMDAT

; 15   : __forceinline unsigned int return57() { __asm mov eax, 57 };

  00000	b8 39 00 00 00	 mov	 eax, 57			; 00000039H
  00005	c3		 ret	 0
?return57@@YAIXZ ENDP					; return57
_TEXT	ENDS
PUBLIC	?GetGroup@ioGameEntity@@QBEPAVioEntityGroup@@XZ	; ioGameEntity::GetGroup
; Function compile flags: /Ogsp
; File d:\lost saga for developer\youtube\tutorial\source\src\lsclient\iogameentity.h
;	COMDAT ?GetGroup@ioGameEntity@@QBEPAVioEntityGroup@@XZ
_TEXT	SEGMENT
?GetGroup@ioGameEntity@@QBEPAVioEntityGroup@@XZ PROC	; ioGameEntity::GetGroup, COMDAT
; _this$ = ecx

; 166  : 	inline ioEntityGroup* GetGroup() const { return m_pGroup; }

  00000	8b 41 04	 mov	 eax, DWORD PTR [ecx+4]
  00003	c3		 ret	 0
?GetGroup@ioGameEntity@@QBEPAVioEntityGroup@@XZ ENDP	; ioGameEntity::GetGroup
_TEXT	ENDS
PUBLIC	??0FireTime@@QAE@XZ				; FireTime::FireTime
EXTRN	__imp_??0ioHashString@@QAE@XZ:PROC
;	COMDAT xdata$x
; File d:\lost saga for developer\youtube\tutorial\source\src\lsclient\playentityhelpstruct.h
xdata$x	SEGMENT
__unwindtable$??0FireTime@@QAE@XZ DD 0ffffffffH
	DD	FLAT:__unwindfunclet$??0FireTime@@QAE@XZ$0
	DD	00H
	DD	FLAT:__unwindfunclet$??0FireTime@@QAE@XZ$1
__ehfuncinfo$??0FireTime@@QAE@XZ DD 019930522H
	DD	02H
	DD	FLAT:__unwindtable$??0FireTime@@QAE@XZ
	DD	2 DUP(00H)
	DD	2 DUP(00H)
	DD	00H
	DD	01H
; Function compile flags: /Ogsp
xdata$x	ENDS
;	COMDAT ??0FireTime@@QAE@XZ
_TEXT	SEGMENT
_this$ = -16						; size = 4
__$EHRec$ = -12						; size = 12
??0FireTime@@QAE@XZ PROC				; FireTime::FireTime, COMDAT
; _this$ = ecx

; 219  : 	FireTime()

  00000	6a 04		 push	 4
  00002	b8 00 00 00 00	 mov	 eax, __ehhandler$??0FireTime@@QAE@XZ
  00007	e8 00 00 00 00	 call	 __EH_prolog3
  0000c	8b f1		 mov	 esi, ecx
  0000e	89 75 f0	 mov	 DWORD PTR _this$[ebp], esi
  00011	8b 3d 00 00 00
	00		 mov	 edi, DWORD PTR __imp_??0ioHashString@@QAE@XZ
  00017	8d 4e 14	 lea	 ecx, DWORD PTR [esi+20]
  0001a	ff d7		 call	 edi
  0001c	33 db		 xor	 ebx, ebx
  0001e	8d 4e 30	 lea	 ecx, DWORD PTR [esi+48]
  00021	89 5d fc	 mov	 DWORD PTR __$EHRec$[ebp+8], ebx
  00024	ff d7		 call	 edi
  00026	8d 4e 44	 lea	 ecx, DWORD PTR [esi+68]
  00029	c6 45 fc 01	 mov	 BYTE PTR __$EHRec$[ebp+8], 1
  0002d	ff d7		 call	 edi

; 220  : 	{
; 221  : 		dwStart = 0;

  0002f	89 1e		 mov	 DWORD PTR [esi], ebx

; 222  : 		dwDuration = 0;

  00031	89 5e 04	 mov	 DWORD PTR [esi+4], ebx

; 223  : 
; 224  : 		iAttributeIdx = 0;

  00034	89 5e 08	 mov	 DWORD PTR [esi+8], ebx

; 225  : 		iResistanceIdx = 0;

  00037	89 5e 0c	 mov	 DWORD PTR [esi+12], ebx

; 226  : 
; 227  : 		bLoopWoundedAni = false;

  0003a	88 5e 10	 mov	 BYTE PTR [esi+16], bl

; 228  : 		dwWoundedAniDuration = 0;

  0003d	89 5e 24	 mov	 DWORD PTR [esi+36], ebx

; 229  : 
; 230  : 		dwWeaponIdx = 0;

  00040	89 5e 28	 mov	 DWORD PTR [esi+40], ebx

; 231  : 		eCollisionType = ACT_NONE;

  00043	c7 46 2c 06 00
	00 00		 mov	 DWORD PTR [esi+44], 6

; 232  : 		eFireTimeType = FTT_NORMAL_ATTACK;

  0004a	89 5e 40	 mov	 DWORD PTR [esi+64], ebx

; 233  : 
; 234  : 		m_iExtraValue = 0;

  0004d	89 5e 54	 mov	 DWORD PTR [esi+84], ebx

; 235  : 	}

  00050	8b c6		 mov	 eax, esi
  00052	e8 00 00 00 00	 call	 __EH_epilog3
  00057	c3		 ret	 0
_TEXT	ENDS
;	COMDAT text$x
text$x	SEGMENT
__unwindfunclet$??0FireTime@@QAE@XZ$0:
  00000	8b 4d f0	 mov	 ecx, DWORD PTR _this$[ebp]
  00003	83 c1 14	 add	 ecx, 20			; 00000014H
  00006	ff 25 00 00 00
	00		 jmp	 DWORD PTR __imp_??1ioHashString@@QAE@XZ
__unwindfunclet$??0FireTime@@QAE@XZ$1:
  0000c	8b 4d f0	 mov	 ecx, DWORD PTR _this$[ebp]
  0000f	83 c1 30	 add	 ecx, 48			; 00000030H
  00012	ff 25 00 00 00
	00		 jmp	 DWORD PTR __imp_??1ioHashString@@QAE@XZ
__ehhandler$??0FireTime@@QAE@XZ:
  00018	8b 54 24 08	 mov	 edx, DWORD PTR [esp+8]
  0001c	8d 42 0c	 lea	 eax, DWORD PTR [edx+12]
  0001f	8b 4a ec	 mov	 ecx, DWORD PTR [edx-20]
  00022	33 c8		 xor	 ecx, eax
  00024	e8 00 00 00 00	 call	 @__security_check_cookie@4
  00029	b8 00 00 00 00	 mov	 eax, OFFSET __ehfuncinfo$??0FireTime@@QAE@XZ
  0002e	e9 00 00 00 00	 jmp	 ___CxxFrameHandler3
text$x	ENDS
??0FireTime@@QAE@XZ ENDP				; FireTime::FireTime
PUBLIC	??1WeaponInfo@@QAE@XZ				; WeaponInfo::~WeaponInfo
; Function compile flags: /Ogsp
;	COMDAT ??1WeaponInfo@@QAE@XZ
_TEXT	SEGMENT
??1WeaponInfo@@QAE@XZ PROC				; WeaponInfo::~WeaponInfo, COMDAT
; _this$ = ecx
  00000	83 c1 08	 add	 ecx, 8
  00003	ff 25 00 00 00
	00		 jmp	 DWORD PTR __imp_??1ioHashString@@QAE@XZ
??1WeaponInfo@@QAE@XZ ENDP				; WeaponInfo::~WeaponInfo
_TEXT	ENDS
PUBLIC	??0tagBaseCharDistanceSq@@QAE@XZ		; tagBaseCharDistanceSq::tagBaseCharDistanceSq
EXTRN	__imp_?VEC3_ZERO@ioMath@@2UD3DXVECTOR3@@A:BYTE
; Function compile flags: /Ogsp
;	COMDAT ??0tagBaseCharDistanceSq@@QAE@XZ
_TEXT	SEGMENT
??0tagBaseCharDistanceSq@@QAE@XZ PROC			; tagBaseCharDistanceSq::tagBaseCharDistanceSq, COMDAT
; _this$ = ecx

; 3001 : 	tagBaseCharDistanceSq()

  00000	53		 push	 ebx
  00001	56		 push	 esi
  00002	57		 push	 edi
  00003	8b d9		 mov	 ebx, ecx
  00005	ff 15 00 00 00
	00		 call	 DWORD PTR __imp_??0ioHashString@@QAE@XZ

; 3002 : 	{
; 3003 : 		m_fDistanceSq = 0.0f;

  0000b	0f 57 c0	 xorps	 xmm0, xmm0
  0000e	f3 0f 11 43 10	 movss	 DWORD PTR [ebx+16], xmm0

; 3004 : 		m_vPos = ioMath::VEC3_ZERO;

  00013	8b 35 00 00 00
	00		 mov	 esi, DWORD PTR __imp_?VEC3_ZERO@ioMath@@2UD3DXVECTOR3@@A
  00019	8d 7b 14	 lea	 edi, DWORD PTR [ebx+20]
  0001c	a5		 movsd
  0001d	a5		 movsd
  0001e	a5		 movsd
  0001f	5f		 pop	 edi
  00020	5e		 pop	 esi

; 3005 : 	}

  00021	8b c3		 mov	 eax, ebx
  00023	5b		 pop	 ebx
  00024	c3		 ret	 0
??0tagBaseCharDistanceSq@@QAE@XZ ENDP			; tagBaseCharDistanceSq::tagBaseCharDistanceSq
_TEXT	ENDS
PUBLIC	??RBaseCharDistanceSqSort2@@QBE_NABUtagBaseCharDistanceSq@@0@Z ; BaseCharDistanceSqSort2::operator()
; Function compile flags: /Ogsp
;	COMDAT ??RBaseCharDistanceSqSort2@@QBE_NABUtagBaseCharDistanceSq@@0@Z
_TEXT	SEGMENT
_lhs$ = 8						; size = 4
_rhs$ = 12						; size = 4
??RBaseCharDistanceSqSort2@@QBE_NABUtagBaseCharDistanceSq@@0@Z PROC ; BaseCharDistanceSqSort2::operator(), COMDAT
; _this$ = ecx

; 3029 : 	{

  00000	55		 push	 ebp
  00001	8b ec		 mov	 ebp, esp

; 3030 : 		if( lhs.m_fDistanceSq < rhs.m_fDistanceSq )

  00003	8b 45 08	 mov	 eax, DWORD PTR _lhs$[ebp]
  00006	f3 0f 10 40 10	 movss	 xmm0, DWORD PTR [eax+16]
  0000b	8b 45 0c	 mov	 eax, DWORD PTR _rhs$[ebp]
  0000e	f3 0f 10 48 10	 movss	 xmm1, DWORD PTR [eax+16]
  00013	0f 5a c0	 cvtps2pd xmm0, xmm0
  00016	0f 5a c9	 cvtps2pd xmm1, xmm1
  00019	66 0f 2f c8	 comisd	 xmm1, xmm0
  0001d	76 04		 jbe	 SHORT $LN1@operator@2

; 3031 : 		{
; 3032 : 			return true;

  0001f	b0 01		 mov	 al, 1
  00021	eb 02		 jmp	 SHORT $LN2@operator@2
$LN1@operator@2:

; 3033 : 		}
; 3034 : 
; 3035 : 		return false;

  00023	32 c0		 xor	 al, al
$LN2@operator@2:

; 3036 : 	}

  00025	5d		 pop	 ebp
  00026	c2 08 00	 ret	 8
??RBaseCharDistanceSqSort2@@QBE_NABUtagBaseCharDistanceSq@@0@Z ENDP ; BaseCharDistanceSqSort2::operator()
_TEXT	ENDS
PUBLIC	?GetName@ioItem@@QBEABVioHashString@@XZ		; ioItem::GetName
; Function compile flags: /Ogsp
; File d:\lost saga for developer\youtube\tutorial\source\src\lsclient\ioitem.h
;	COMDAT ?GetName@ioItem@@QBEABVioHashString@@XZ
_TEXT	SEGMENT
?GetName@ioItem@@QBEABVioHashString@@XZ PROC		; ioItem::GetName, COMDAT
; _this$ = ecx

; 269  : 	inline const ioHashString& GetName() const { return m_Name; }

  00000	8d 81 34 01 00
	00		 lea	 eax, DWORD PTR [ecx+308]
  00006	c3		 ret	 0
?GetName@ioItem@@QBEABVioHashString@@XZ ENDP		; ioItem::GetName
_TEXT	ENDS
PUBLIC	?GetOwnerItem@ioSkill@@QBEPAVioItem@@XZ		; ioSkill::GetOwnerItem
; Function compile flags: /Ogsp
; File d:\lost saga for developer\youtube\tutorial\source\src\lsclient\ioskill.h
;	COMDAT ?GetOwnerItem@ioSkill@@QBEPAVioItem@@XZ
_TEXT	SEGMENT
?GetOwnerItem@ioSkill@@QBEPAVioItem@@XZ PROC		; ioSkill::GetOwnerItem, COMDAT
; _this$ = ecx

; 397  : 	inline ioItem *GetOwnerItem() const { return m_pOwnerItem; }

  00000	8b 81 a4 02 00
	00		 mov	 eax, DWORD PTR [ecx+676]
  00006	c3		 ret	 0
?GetOwnerItem@ioSkill@@QBEPAVioItem@@XZ ENDP		; ioSkill::GetOwnerItem
_TEXT	ENDS
PUBLIC	?GetName@ioSkill@@QBEABVioHashString@@XZ	; ioSkill::GetName
; Function compile flags: /Ogsp
;	COMDAT ?GetName@ioSkill@@QBEABVioHashString@@XZ
_TEXT	SEGMENT
?GetName@ioSkill@@QBEABVioHashString@@XZ PROC		; ioSkill::GetName, COMDAT
; _this$ = ecx

; 414  : 	inline const ioHashString& GetName() const { return m_Name; }

  00000	8d 41 24	 lea	 eax, DWORD PTR [ecx+36]
  00003	c3		 ret	 0
?GetName@ioSkill@@QBEABVioHashString@@XZ ENDP		; ioSkill::GetName
_TEXT	ENDS
PUBLIC	?size@?$vector@VioHashString@@V?$allocator@VioHashString@@@std@@@std@@QBEIXZ ; std::vector<ioHashString,std::allocator<ioHashString> >::size
; Function compile flags: /Ogsp
; File c:\program files (x86)\microsoft visual studio 10.0\vc\include\vector
;	COMDAT ?size@?$vector@VioHashString@@V?$allocator@VioHashString@@@std@@@std@@QBEIXZ
_TEXT	SEGMENT
?size@?$vector@VioHashString@@V?$allocator@VioHashString@@@std@@@std@@QBEIXZ PROC ; std::vector<ioHashString,std::allocator<ioHashString> >::size, COMDAT
; _this$ = ecx

; 879  : 		return (this->_Mylast - this->_Myfirst);

  00000	8b 41 04	 mov	 eax, DWORD PTR [ecx+4]
  00003	2b 01		 sub	 eax, DWORD PTR [ecx]
  00005	c1 f8 04	 sar	 eax, 4

; 880  : 		}

  00008	c3		 ret	 0
?size@?$vector@VioHashString@@V?$allocator@VioHashString@@@std@@@std@@QBEIXZ ENDP ; std::vector<ioHashString,std::allocator<ioHashString> >::size
_TEXT	ENDS
PUBLIC	??1?$_Vector_val@VioHashString@@V?$allocator@VioHashString@@@std@@@std@@QAE@XZ ; std::_Vector_val<ioHashString,std::allocator<ioHashString> >::~_Vector_val<ioHashString,std::allocator<ioHashString> >
; Function compile flags: /Ogsp
;	COMDAT ??1?$_Vector_val@VioHashString@@V?$allocator@VioHashString@@@std@@@std@@QAE@XZ
_TEXT	SEGMENT
??1?$_Vector_val@VioHashString@@V?$allocator@VioHashString@@@std@@@std@@QAE@XZ PROC ; std::_Vector_val<ioHashString,std::allocator<ioHashString> >::~_Vector_val<ioHashString,std::allocator<ioHashString> >, COMDAT
; _this$ = ecx

; 434  : 		}

  00000	c3		 ret	 0
??1?$_Vector_val@VioHashString@@V?$allocator@VioHashString@@@std@@@std@@QAE@XZ ENDP ; std::_Vector_val<ioHashString,std::allocator<ioHashString> >::~_Vector_val<ioHashString,std::allocator<ioHashString> >
_TEXT	ENDS
PUBLIC	??0?$allocator@VioHashString@@@std@@QAE@XZ	; std::allocator<ioHashString>::allocator<ioHashString>
; Function compile flags: /Ogsp
; File c:\program files (x86)\microsoft visual studio 10.0\vc\include\xmemory
;	COMDAT ??0?$allocator@VioHashString@@@std@@QAE@XZ
_TEXT	SEGMENT
??0?$allocator@VioHashString@@@std@@QAE@XZ PROC		; std::allocator<ioHashString>::allocator<ioHashString>, COMDAT
; _this$ = ecx

; 161  : 	_ALLOCATOR() _THROW0()

  00000	8b c1		 mov	 eax, ecx

; 162  : 		{	// construct default allocator (do nothing)
; 163  : 		}

  00002	c3		 ret	 0
??0?$allocator@VioHashString@@@std@@QAE@XZ ENDP		; std::allocator<ioHashString>::allocator<ioHashString>
_TEXT	ENDS
PUBLIC	??0?$allocator@VioHashString@@@std@@QAE@ABV01@@Z ; std::allocator<ioHashString>::allocator<ioHashString>
; Function compile flags: /Ogsp
;	COMDAT ??0?$allocator@VioHashString@@@std@@QAE@ABV01@@Z
_TEXT	SEGMENT
___formal$ = 8						; size = 4
??0?$allocator@VioHashString@@@std@@QAE@ABV01@@Z PROC	; std::allocator<ioHashString>::allocator<ioHashString>, COMDAT
; _this$ = ecx

; 165  : 	_ALLOCATOR(const _ALLOCATOR<_Ty>&) _THROW0()

  00000	8b c1		 mov	 eax, ecx

; 166  : 		{	// construct by copying (do nothing)
; 167  : 		}

  00002	c2 04 00	 ret	 4
??0?$allocator@VioHashString@@@std@@QAE@ABV01@@Z ENDP	; std::allocator<ioHashString>::allocator<ioHashString>
_TEXT	ENDS
PUBLIC	??1?$_Vector_val@UWeaponInfo@@V?$allocator@UWeaponInfo@@@std@@@std@@QAE@XZ ; std::_Vector_val<WeaponInfo,std::allocator<WeaponInfo> >::~_Vector_val<WeaponInfo,std::allocator<WeaponInfo> >
; Function compile flags: /Ogsp
; File c:\program files (x86)\microsoft visual studio 10.0\vc\include\vector
;	COMDAT ??1?$_Vector_val@UWeaponInfo@@V?$allocator@UWeaponInfo@@@std@@@std@@QAE@XZ
_TEXT	SEGMENT
??1?$_Vector_val@UWeaponInfo@@V?$allocator@UWeaponInfo@@@std@@@std@@QAE@XZ PROC ; std::_Vector_val<WeaponInfo,std::allocator<WeaponInfo> >::~_Vector_val<WeaponInfo,std::allocator<WeaponInfo> >, COMDAT
; _this$ = ecx

; 434  : 		}

  00000	c3		 ret	 0
??1?$_Vector_val@UWeaponInfo@@V?$allocator@UWeaponInfo@@@std@@@std@@QAE@XZ ENDP ; std::_Vector_val<WeaponInfo,std::allocator<WeaponInfo> >::~_Vector_val<WeaponInfo,std::allocator<WeaponInfo> >
_TEXT	ENDS
PUBLIC	??0?$allocator@UWeaponInfo@@@std@@QAE@XZ	; std::allocator<WeaponInfo>::allocator<WeaponInfo>
; Function compile flags: /Ogsp
; File c:\program files (x86)\microsoft visual studio 10.0\vc\include\xmemory
;	COMDAT ??0?$allocator@UWeaponInfo@@@std@@QAE@XZ
_TEXT	SEGMENT
??0?$allocator@UWeaponInfo@@@std@@QAE@XZ PROC		; std::allocator<WeaponInfo>::allocator<WeaponInfo>, COMDAT
; _this$ = ecx

; 161  : 	_ALLOCATOR() _THROW0()

  00000	8b c1		 mov	 eax, ecx

; 162  : 		{	// construct default allocator (do nothing)
; 163  : 		}

  00002	c3		 ret	 0
??0?$allocator@UWeaponInfo@@@std@@QAE@XZ ENDP		; std::allocator<WeaponInfo>::allocator<WeaponInfo>
_TEXT	ENDS
PUBLIC	??1?$_Vector_val@UForceInfo@@V?$allocator@UForceInfo@@@std@@@std@@QAE@XZ ; std::_Vector_val<ForceInfo,std::allocator<ForceInfo> >::~_Vector_val<ForceInfo,std::allocator<ForceInfo> >
; Function compile flags: /Ogsp
; File c:\program files (x86)\microsoft visual studio 10.0\vc\include\vector
;	COMDAT ??1?$_Vector_val@UForceInfo@@V?$allocator@UForceInfo@@@std@@@std@@QAE@XZ
_TEXT	SEGMENT
??1?$_Vector_val@UForceInfo@@V?$allocator@UForceInfo@@@std@@@std@@QAE@XZ PROC ; std::_Vector_val<ForceInfo,std::allocator<ForceInfo> >::~_Vector_val<ForceInfo,std::allocator<ForceInfo> >, COMDAT
; _this$ = ecx

; 434  : 		}

  00000	c3		 ret	 0
??1?$_Vector_val@UForceInfo@@V?$allocator@UForceInfo@@@std@@@std@@QAE@XZ ENDP ; std::_Vector_val<ForceInfo,std::allocator<ForceInfo> >::~_Vector_val<ForceInfo,std::allocator<ForceInfo> >
_TEXT	ENDS
PUBLIC	??0?$allocator@UForceInfo@@@std@@QAE@XZ		; std::allocator<ForceInfo>::allocator<ForceInfo>
; Function compile flags: /Ogsp
; File c:\program files (x86)\microsoft visual studio 10.0\vc\include\xmemory
;	COMDAT ??0?$allocator@UForceInfo@@@std@@QAE@XZ
_TEXT	SEGMENT
??0?$allocator@UForceInfo@@@std@@QAE@XZ PROC		; std::allocator<ForceInfo>::allocator<ForceInfo>, COMDAT
; _this$ = ecx

; 161  : 	_ALLOCATOR() _THROW0()

  00000	8b c1		 mov	 eax, ecx

; 162  : 		{	// construct default allocator (do nothing)
; 163  : 		}

  00002	c3		 ret	 0
??0?$allocator@UForceInfo@@@std@@QAE@XZ ENDP		; std::allocator<ForceInfo>::allocator<ForceInfo>
_TEXT	ENDS
PUBLIC	?EncryptValueToPool@?$CEncrypt@K@@AAEXPBD@Z	; CEncrypt<unsigned long>::EncryptValueToPool
EXTRN	?EncryptByte@ccddaabb@@QAEXPBDPADH@Z:PROC	; ccddaabb::EncryptByte
; Function compile flags: /Ogsp
; File d:\lost saga for developer\youtube\tutorial\source\src\lsclient\encryptvalue.h
;	COMDAT ?EncryptValueToPool@?$CEncrypt@K@@AAEXPBD@Z
_TEXT	SEGMENT
_value$ = 8						; size = 4
?EncryptValueToPool@?$CEncrypt@K@@AAEXPBD@Z PROC	; CEncrypt<unsigned long>::EncryptValueToPool, COMDAT
; _this$ = ecx

; 67   : 	{

  00000	55		 push	 ebp
  00001	8b ec		 mov	 ebp, esp

; 68   : 		m_RC5.EncryptByte( value, m_MemPool, max(m_ValueSize, DEFAULT_ENCRYPT) );

  00003	0f b7 41 06	 movzx	 eax, WORD PTR [ecx+6]
  00007	83 f8 04	 cmp	 eax, 4
  0000a	77 03		 ja	 SHORT $LN4@EncryptVal
  0000c	6a 04		 push	 4
  0000e	58		 pop	 eax
$LN4@EncryptVal:
  0000f	50		 push	 eax
  00010	8d 41 1c	 lea	 eax, DWORD PTR [ecx+28]
  00013	50		 push	 eax
  00014	ff 75 08	 push	 DWORD PTR _value$[ebp]
  00017	83 c1 0c	 add	 ecx, 12			; 0000000cH
  0001a	e8 00 00 00 00	 call	 ?EncryptByte@ccddaabb@@QAEXPBDPADH@Z ; ccddaabb::EncryptByte

; 69   : 		
; 70   : 	}

  0001f	5d		 pop	 ebp
  00020	c2 04 00	 ret	 4
?EncryptValueToPool@?$CEncrypt@K@@AAEXPBD@Z ENDP	; CEncrypt<unsigned long>::EncryptValueToPool
_TEXT	ENDS
PUBLIC	?DecryptValueToPool@?$CEncrypt@W4TeamType@@@@QAEXPAW4TeamType@@@Z ; CEncrypt<enum TeamType>::DecryptValueToPool
EXTRN	?DecryptByte@ccddaabb@@QBEXPBDPADH@Z:PROC	; ccddaabb::DecryptByte
; Function compile flags: /Ogsp
;	COMDAT ?DecryptValueToPool@?$CEncrypt@W4TeamType@@@@QAEXPAW4TeamType@@@Z
_TEXT	SEGMENT
_value$ = 8						; size = 4
?DecryptValueToPool@?$CEncrypt@W4TeamType@@@@QAEXPAW4TeamType@@@Z PROC ; CEncrypt<enum TeamType>::DecryptValueToPool, COMDAT
; _this$ = ecx

; 2959 : 	{

  00000	55		 push	 ebp
  00001	8b ec		 mov	 ebp, esp
  00003	56		 push	 esi

; 2960 : 		m_RC5.DecryptByte( m_MemPool, m_TempMem, sizeof(TeamType) );

  00004	8d 71 28	 lea	 esi, DWORD PTR [ecx+40]
  00007	6a 04		 push	 4
  00009	8d 41 1c	 lea	 eax, DWORD PTR [ecx+28]
  0000c	56		 push	 esi
  0000d	50		 push	 eax
  0000e	83 c1 0c	 add	 ecx, 12			; 0000000cH
  00011	e8 00 00 00 00	 call	 ?DecryptByte@ccddaabb@@QBEXPBDPADH@Z ; ccddaabb::DecryptByte

; 2961 : 		*value = *((TeamType*)m_TempMem);

  00016	8b 06		 mov	 eax, DWORD PTR [esi]
  00018	8b 4d 08	 mov	 ecx, DWORD PTR _value$[ebp]
  0001b	89 01		 mov	 DWORD PTR [ecx], eax
  0001d	5e		 pop	 esi

; 2962 : 	}

  0001e	5d		 pop	 ebp
  0001f	c2 04 00	 ret	 4
?DecryptValueToPool@?$CEncrypt@W4TeamType@@@@QAEXPAW4TeamType@@@Z ENDP ; CEncrypt<enum TeamType>::DecryptValueToPool
_TEXT	ENDS
PUBLIC	?_Xlen@?$vector@VioHashString@@V?$allocator@VioHashString@@@std@@@std@@IBEXXZ ; std::vector<ioHashString,std::allocator<ioHashString> >::_Xlen
; Function compile flags: /Ogsp
; File c:\program files (x86)\microsoft visual studio 10.0\vc\include\vector
;	COMDAT ?_Xlen@?$vector@VioHashString@@V?$allocator@VioHashString@@@std@@@std@@IBEXXZ
_TEXT	SEGMENT
?_Xlen@?$vector@VioHashString@@V?$allocator@VioHashString@@@std@@@std@@IBEXXZ PROC ; std::vector<ioHashString,std::allocator<ioHashString> >::_Xlen, COMDAT
; _this$ = ecx

; 1427 : 		_Xlength_error("vector<T> too long");

  00000	68 00 00 00 00	 push	 OFFSET ??_C@_0BD@OLBABOEK@vector?$DMT?$DO?5too?5long?$AA@
  00005	ff 15 00 00 00
	00		 call	 DWORD PTR __imp_?_Xlength_error@std@@YAXPBD@Z
$LN4@Xlen@3:
$LN3@Xlen@3:
  0000b	cc		 int	 3
?_Xlen@?$vector@VioHashString@@V?$allocator@VioHashString@@@std@@@std@@IBEXXZ ENDP ; std::vector<ioHashString,std::allocator<ioHashString> >::_Xlen
_TEXT	ENDS
PUBLIC	?deallocate@?$allocator@VioHashString@@@std@@QAEXPAVioHashString@@I@Z ; std::allocator<ioHashString>::deallocate
; Function compile flags: /Ogsp
; File c:\program files (x86)\microsoft visual studio 10.0\vc\include\xmemory
;	COMDAT ?deallocate@?$allocator@VioHashString@@@std@@QAEXPAVioHashString@@I@Z
_TEXT	SEGMENT
__Ptr$ = 8						; size = 4
___formal$ = 12						; size = 4
?deallocate@?$allocator@VioHashString@@@std@@QAEXPAVioHashString@@I@Z PROC ; std::allocator<ioHashString>::deallocate, COMDAT
; _this$ = ecx

; 181  : 		{	// deallocate object at _Ptr, ignore size

  00000	55		 push	 ebp
  00001	8b ec		 mov	 ebp, esp

; 182  : 		::operator delete(_Ptr);

  00003	ff 75 08	 push	 DWORD PTR __Ptr$[ebp]
  00006	e8 00 00 00 00	 call	 ??3@YAXPAX@Z		; operator delete
  0000b	59		 pop	 ecx

; 183  : 		}

  0000c	5d		 pop	 ebp
  0000d	c2 08 00	 ret	 8
?deallocate@?$allocator@VioHashString@@@std@@QAEXPAVioHashString@@I@Z ENDP ; std::allocator<ioHashString>::deallocate
_TEXT	ENDS
PUBLIC	??0?$allocator@UWeaponInfo@@@std@@QAE@ABV01@@Z	; std::allocator<WeaponInfo>::allocator<WeaponInfo>
; Function compile flags: /Ogsp
;	COMDAT ??0?$allocator@UWeaponInfo@@@std@@QAE@ABV01@@Z
_TEXT	SEGMENT
___formal$ = 8						; size = 4
??0?$allocator@UWeaponInfo@@@std@@QAE@ABV01@@Z PROC	; std::allocator<WeaponInfo>::allocator<WeaponInfo>, COMDAT
; _this$ = ecx

; 165  : 	_ALLOCATOR(const _ALLOCATOR<_Ty>&) _THROW0()

  00000	8b c1		 mov	 eax, ecx

; 166  : 		{	// construct by copying (do nothing)
; 167  : 		}

  00002	c2 04 00	 ret	 4
??0?$allocator@UWeaponInfo@@@std@@QAE@ABV01@@Z ENDP	; std::allocator<WeaponInfo>::allocator<WeaponInfo>
_TEXT	ENDS
PUBLIC	?deallocate@?$allocator@UWeaponInfo@@@std@@QAEXPAUWeaponInfo@@I@Z ; std::allocator<WeaponInfo>::deallocate
; Function compile flags: /Ogsp
;	COMDAT ?deallocate@?$allocator@UWeaponInfo@@@std@@QAEXPAUWeaponInfo@@I@Z
_TEXT	SEGMENT
__Ptr$ = 8						; size = 4
___formal$ = 12						; size = 4
?deallocate@?$allocator@UWeaponInfo@@@std@@QAEXPAUWeaponInfo@@I@Z PROC ; std::allocator<WeaponInfo>::deallocate, COMDAT
; _this$ = ecx

; 181  : 		{	// deallocate object at _Ptr, ignore size

  00000	55		 push	 ebp
  00001	8b ec		 mov	 ebp, esp

; 182  : 		::operator delete(_Ptr);

  00003	ff 75 08	 push	 DWORD PTR __Ptr$[ebp]
  00006	e8 00 00 00 00	 call	 ??3@YAXPAX@Z		; operator delete
  0000b	59		 pop	 ecx

; 183  : 		}

  0000c	5d		 pop	 ebp
  0000d	c2 08 00	 ret	 8
?deallocate@?$allocator@UWeaponInfo@@@std@@QAEXPAUWeaponInfo@@I@Z ENDP ; std::allocator<WeaponInfo>::deallocate
_TEXT	ENDS
PUBLIC	??0?$allocator@UForceInfo@@@std@@QAE@ABV01@@Z	; std::allocator<ForceInfo>::allocator<ForceInfo>
; Function compile flags: /Ogsp
;	COMDAT ??0?$allocator@UForceInfo@@@std@@QAE@ABV01@@Z
_TEXT	SEGMENT
___formal$ = 8						; size = 4
??0?$allocator@UForceInfo@@@std@@QAE@ABV01@@Z PROC	; std::allocator<ForceInfo>::allocator<ForceInfo>, COMDAT
; _this$ = ecx

; 165  : 	_ALLOCATOR(const _ALLOCATOR<_Ty>&) _THROW0()

  00000	8b c1		 mov	 eax, ecx

; 166  : 		{	// construct by copying (do nothing)
; 167  : 		}

  00002	c2 04 00	 ret	 4
??0?$allocator@UForceInfo@@@std@@QAE@ABV01@@Z ENDP	; std::allocator<ForceInfo>::allocator<ForceInfo>
_TEXT	ENDS
PUBLIC	?deallocate@?$allocator@UForceInfo@@@std@@QAEXPAUForceInfo@@I@Z ; std::allocator<ForceInfo>::deallocate
; Function compile flags: /Ogsp
;	COMDAT ?deallocate@?$allocator@UForceInfo@@@std@@QAEXPAUForceInfo@@I@Z
_TEXT	SEGMENT
__Ptr$ = 8						; size = 4
___formal$ = 12						; size = 4
?deallocate@?$allocator@UForceInfo@@@std@@QAEXPAUForceInfo@@I@Z PROC ; std::allocator<ForceInfo>::deallocate, COMDAT
; _this$ = ecx

; 181  : 		{	// deallocate object at _Ptr, ignore size

  00000	55		 push	 ebp
  00001	8b ec		 mov	 ebp, esp

; 182  : 		::operator delete(_Ptr);

  00003	ff 75 08	 push	 DWORD PTR __Ptr$[ebp]
  00006	e8 00 00 00 00	 call	 ??3@YAXPAX@Z		; operator delete
  0000b	59		 pop	 ecx

; 183  : 		}

  0000c	5d		 pop	 ebp
  0000d	c2 08 00	 ret	 8
?deallocate@?$allocator@UForceInfo@@@std@@QAEXPAUForceInfo@@I@Z ENDP ; std::allocator<ForceInfo>::deallocate
_TEXT	ENDS
PUBLIC	??0?$_Vector_const_iterator@V?$_Vector_val@VioHashString@@V?$allocator@VioHashString@@@std@@@std@@@std@@QAE@PAVioHashString@@PBU_Container_base0@1@@Z ; std::_Vector_const_iterator<std::_Vector_val<ioHashString,std::allocator<ioHashString> > >::_Vector_const_iterator<std::_Vector_val<ioHashString,std::allocator<ioHashString> > >
; Function compile flags: /Ogsp
; File c:\program files (x86)\microsoft visual studio 10.0\vc\include\vector
;	COMDAT ??0?$_Vector_const_iterator@V?$_Vector_val@VioHashString@@V?$allocator@VioHashString@@@std@@@std@@@std@@QAE@PAVioHashString@@PBU_Container_base0@1@@Z
_TEXT	SEGMENT
__Parg$ = 8						; size = 4
__Pvector$ = 12						; size = 4
??0?$_Vector_const_iterator@V?$_Vector_val@VioHashString@@V?$allocator@VioHashString@@@std@@@std@@@std@@QAE@PAVioHashString@@PBU_Container_base0@1@@Z PROC ; std::_Vector_const_iterator<std::_Vector_val<ioHashString,std::allocator<ioHashString> > >::_Vector_const_iterator<std::_Vector_val<ioHashString,std::allocator<ioHashString> > >, COMDAT
; _this$ = ecx

; 45   : 		{	// construct with pointer _Parg

  00000	55		 push	 ebp
  00001	8b ec		 mov	 ebp, esp
  00003	8b c1		 mov	 eax, ecx
  00005	8b 4d 08	 mov	 ecx, DWORD PTR __Parg$[ebp]
  00008	89 08		 mov	 DWORD PTR [eax], ecx

; 46   : 		this->_Adopt(_Pvector);
; 47   : 		}

  0000a	5d		 pop	 ebp
  0000b	c2 08 00	 ret	 8
??0?$_Vector_const_iterator@V?$_Vector_val@VioHashString@@V?$allocator@VioHashString@@@std@@@std@@@std@@QAE@PAVioHashString@@PBU_Container_base0@1@@Z ENDP ; std::_Vector_const_iterator<std::_Vector_val<ioHashString,std::allocator<ioHashString> > >::_Vector_const_iterator<std::_Vector_val<ioHashString,std::allocator<ioHashString> > >
_TEXT	ENDS
PUBLIC	??0?$_Vector_iterator@V?$_Vector_val@VioHashString@@V?$allocator@VioHashString@@@std@@@std@@@std@@QAE@PAVioHashString@@PBU_Container_base0@1@@Z ; std::_Vector_iterator<std::_Vector_val<ioHashString,std::allocator<ioHashString> > >::_Vector_iterator<std::_Vector_val<ioHashString,std::allocator<ioHashString> > >
; Function compile flags: /Ogsp
;	COMDAT ??0?$_Vector_iterator@V?$_Vector_val@VioHashString@@V?$allocator@VioHashString@@@std@@@std@@@std@@QAE@PAVioHashString@@PBU_Container_base0@1@@Z
_TEXT	SEGMENT
__Parg$ = 8						; size = 4
__Pvector$ = 12						; size = 4
??0?$_Vector_iterator@V?$_Vector_val@VioHashString@@V?$allocator@VioHashString@@@std@@@std@@@std@@QAE@PAVioHashString@@PBU_Container_base0@1@@Z PROC ; std::_Vector_iterator<std::_Vector_val<ioHashString,std::allocator<ioHashString> > >::_Vector_iterator<std::_Vector_val<ioHashString,std::allocator<ioHashString> > >, COMDAT
; _this$ = ecx

; 304  : 		{	// construct with pointer _Parg

  00000	55		 push	 ebp
  00001	8b ec		 mov	 ebp, esp
  00003	8b c1		 mov	 eax, ecx
  00005	8b 4d 08	 mov	 ecx, DWORD PTR __Parg$[ebp]
  00008	89 08		 mov	 DWORD PTR [eax], ecx

; 305  : 		}

  0000a	5d		 pop	 ebp
  0000b	c2 08 00	 ret	 8
??0?$_Vector_iterator@V?$_Vector_val@VioHashString@@V?$allocator@VioHashString@@@std@@@std@@@std@@QAE@PAVioHashString@@PBU_Container_base0@1@@Z ENDP ; std::_Vector_iterator<std::_Vector_val<ioHashString,std::allocator<ioHashString> > >::_Vector_iterator<std::_Vector_val<ioHashString,std::allocator<ioHashString> > >
_TEXT	ENDS
PUBLIC	?max_size@?$allocator@VioHashString@@@std@@QBEIXZ ; std::allocator<ioHashString>::max_size
; Function compile flags: /Ogsp
; File c:\program files (x86)\microsoft visual studio 10.0\vc\include\xmemory
;	COMDAT ?max_size@?$allocator@VioHashString@@@std@@QBEIXZ
_TEXT	SEGMENT
?max_size@?$allocator@VioHashString@@@std@@QBEIXZ PROC	; std::allocator<ioHashString>::max_size, COMDAT
; _this$ = ecx

; 218  : 		_SIZT _Count = (_SIZT)(-1) / sizeof (_Ty);
; 219  : 		return (0 < _Count ? _Count : 1);

  00000	b8 ff ff ff 0f	 mov	 eax, 268435455		; 0fffffffH

; 220  : 		}

  00005	c3		 ret	 0
?max_size@?$allocator@VioHashString@@@std@@QBEIXZ ENDP	; std::allocator<ioHashString>::max_size
_TEXT	ENDS
PUBLIC	?_Compat@?$_Vector_const_iterator@V?$_Vector_val@VioHashString@@V?$allocator@VioHashString@@@std@@@std@@@std@@QBEXABV12@@Z ; std::_Vector_const_iterator<std::_Vector_val<ioHashString,std::allocator<ioHashString> > >::_Compat
; Function compile flags: /Ogsp
; File c:\program files (x86)\microsoft visual studio 10.0\vc\include\vector
;	COMDAT ?_Compat@?$_Vector_const_iterator@V?$_Vector_val@VioHashString@@V?$allocator@VioHashString@@@std@@@std@@@std@@QBEXABV12@@Z
_TEXT	SEGMENT
___formal$ = 8						; size = 4
?_Compat@?$_Vector_const_iterator@V?$_Vector_val@VioHashString@@V?$allocator@VioHashString@@@std@@@std@@@std@@QBEXABV12@@Z PROC ; std::_Vector_const_iterator<std::_Vector_val<ioHashString,std::allocator<ioHashString> > >::_Compat, COMDAT
; _this$ = ecx

; 253  : 		}

  00000	c2 04 00	 ret	 4
?_Compat@?$_Vector_const_iterator@V?$_Vector_val@VioHashString@@V?$allocator@VioHashString@@@std@@@std@@@std@@QBEXABV12@@Z ENDP ; std::_Vector_const_iterator<std::_Vector_val<ioHashString,std::allocator<ioHashString> > >::_Compat
_TEXT	ENDS
PUBLIC	??$_Allocate@VioHashString@@@std@@YAPAVioHashString@@IPAV1@@Z ; std::_Allocate<ioHashString>
; Function compile flags: /Ogsp
; File c:\program files (x86)\microsoft visual studio 10.0\vc\include\xmemory
;	COMDAT ??$_Allocate@VioHashString@@@std@@YAPAVioHashString@@IPAV1@@Z
_TEXT	SEGMENT
$T537862 = -12						; size = 12
$T537866 = 8						; size = 4
__Count$ = 8						; size = 4
___formal$ = 12						; size = 4
??$_Allocate@VioHashString@@@std@@YAPAVioHashString@@IPAV1@@Z PROC ; std::_Allocate<ioHashString>, COMDAT

; 30   : 	{	// allocate storage for _Count elements of type _Ty

  00000	55		 push	 ebp
  00001	8b ec		 mov	 ebp, esp

; 31   : 	void *_Ptr = 0;
; 32   : 
; 33   : 	if (_Count <= 0)

  00003	8b 4d 08	 mov	 ecx, DWORD PTR __Count$[ebp]
  00006	83 ec 0c	 sub	 esp, 12			; 0000000cH
  00009	33 c0		 xor	 eax, eax
  0000b	85 c9		 test	 ecx, ecx

; 34   : 		_Count = 0;
; 35   : 	else if (((_SIZT)(-1) / sizeof (_Ty) < _Count)

  0000d	74 3c		 je	 SHORT $LN5@Allocate@3

; 36   : 		|| (_Ptr = ::operator new(_Count * sizeof (_Ty))) == 0)

  0000f	81 f9 ff ff ff
	0f		 cmp	 ecx, 268435455		; 0fffffffH
  00015	77 0e		 ja	 SHORT $LN1@Allocate@3
  00017	c1 e1 04	 shl	 ecx, 4
  0001a	51		 push	 ecx
  0001b	e8 00 00 00 00	 call	 ??2@YAPAXI@Z		; operator new
  00020	59		 pop	 ecx
  00021	85 c0		 test	 eax, eax

; 38   : 
; 39   : 	return ((_Ty _FARQ *)_Ptr);

  00023	75 26		 jne	 SHORT $LN5@Allocate@3
$LN1@Allocate@3:

; 37   : 		_THROW_NCEE(bad_alloc, 0);

  00025	83 65 08 00	 and	 DWORD PTR $T537866[ebp], 0
  00029	8d 45 08	 lea	 eax, DWORD PTR $T537866[ebp]
  0002c	50		 push	 eax
  0002d	8d 4d f4	 lea	 ecx, DWORD PTR $T537862[ebp]
  00030	ff 15 00 00 00
	00		 call	 DWORD PTR __imp_??0exception@std@@QAE@ABQBD@Z
  00036	68 00 00 00 00	 push	 OFFSET __TI2?AVbad_alloc@std@@
  0003b	8d 45 f4	 lea	 eax, DWORD PTR $T537862[ebp]
  0003e	50		 push	 eax
  0003f	c7 45 f4 00 00
	00 00		 mov	 DWORD PTR $T537862[ebp], OFFSET ??_7bad_alloc@std@@6B@
  00046	e8 00 00 00 00	 call	 __CxxThrowException@8
$LN10@Allocate@3:
$LN5@Allocate@3:

; 40   : 	}

  0004b	c9		 leave
  0004c	c3		 ret	 0
$LN9@Allocate@3:
??$_Allocate@VioHashString@@@std@@YAPAVioHashString@@IPAV1@@Z ENDP ; std::_Allocate<ioHashString>
_TEXT	ENDS
EXTRN	__imp_??0exception@std@@QAE@ABV01@@Z:PROC
; Function compile flags: /Ogsp
;	COMDAT ??0bad_alloc@std@@QAE@ABV01@@Z
_TEXT	SEGMENT
___that$ = 8						; size = 4
??0bad_alloc@std@@QAE@ABV01@@Z PROC			; std::bad_alloc::bad_alloc, COMDAT
; _this$ = ecx
  00000	55		 push	 ebp
  00001	8b ec		 mov	 ebp, esp
  00003	56		 push	 esi
  00004	ff 75 08	 push	 DWORD PTR ___that$[ebp]
  00007	8b f1		 mov	 esi, ecx
  00009	ff 15 00 00 00
	00		 call	 DWORD PTR __imp_??0exception@std@@QAE@ABV01@@Z
  0000f	c7 06 00 00 00
	00		 mov	 DWORD PTR [esi], OFFSET ??_7bad_alloc@std@@6B@
  00015	8b c6		 mov	 eax, esi
  00017	5e		 pop	 esi
  00018	5d		 pop	 ebp
  00019	c2 04 00	 ret	 4
??0bad_alloc@std@@QAE@ABV01@@Z ENDP			; std::bad_alloc::bad_alloc
_TEXT	ENDS
PUBLIC	??$forward@ABVioHashString@@@std@@YAABVioHashString@@ABV1@@Z ; std::forward<ioHashString const &>
; Function compile flags: /Ogsp
; File c:\program files (x86)\microsoft visual studio 10.0\vc\include\utility
;	COMDAT ??$forward@ABVioHashString@@@std@@YAABVioHashString@@ABV1@@Z
_TEXT	SEGMENT
__Arg$ = 8						; size = 4
??$forward@ABVioHashString@@@std@@YAABVioHashString@@ABV1@@Z PROC ; std::forward<ioHashString const &>, COMDAT

; 78   : 	{	// forward _Arg, given explicitly specified type parameter

  00000	55		 push	 ebp
  00001	8b ec		 mov	 ebp, esp

; 79   : 	return ((_Ty&&)_Arg);

  00003	8b 45 08	 mov	 eax, DWORD PTR __Arg$[ebp]

; 80   : 	}

  00006	5d		 pop	 ebp
  00007	c3		 ret	 0
??$forward@ABVioHashString@@@std@@YAABVioHashString@@ABV1@@Z ENDP ; std::forward<ioHashString const &>
_TEXT	ENDS
PUBLIC	??$forward@AAVioHashString@@@std@@YAAAVioHashString@@AAV1@@Z ; std::forward<ioHashString &>
; Function compile flags: /Ogsp
;	COMDAT ??$forward@AAVioHashString@@@std@@YAAAVioHashString@@AAV1@@Z
_TEXT	SEGMENT
__Arg$ = 8						; size = 4
??$forward@AAVioHashString@@@std@@YAAAVioHashString@@AAV1@@Z PROC ; std::forward<ioHashString &>, COMDAT

; 78   : 	{	// forward _Arg, given explicitly specified type parameter

  00000	55		 push	 ebp
  00001	8b ec		 mov	 ebp, esp

; 79   : 	return ((_Ty&&)_Arg);

  00003	8b 45 08	 mov	 eax, DWORD PTR __Arg$[ebp]

; 80   : 	}

  00006	5d		 pop	 ebp
  00007	c3		 ret	 0
??$forward@AAVioHashString@@@std@@YAAAVioHashString@@AAV1@@Z ENDP ; std::forward<ioHashString &>
_TEXT	ENDS
PUBLIC	??$_Ptr_cat@VioHashString@@V1@@std@@YA?AU_Nonscalar_ptr_iterator_tag@0@PAVioHashString@@0@Z ; std::_Ptr_cat<ioHashString,ioHashString>
; Function compile flags: /Ogsp
; File c:\program files (x86)\microsoft visual studio 10.0\vc\include\xutility
;	COMDAT ??$_Ptr_cat@VioHashString@@V1@@std@@YA?AU_Nonscalar_ptr_iterator_tag@0@PAVioHashString@@0@Z
_TEXT	SEGMENT
__Cat$ = -1						; size = 1
___formal$ = 8						; size = 4
___formal$ = 12						; size = 4
??$_Ptr_cat@VioHashString@@V1@@std@@YA?AU_Nonscalar_ptr_iterator_tag@0@PAVioHashString@@0@Z PROC ; std::_Ptr_cat<ioHashString,ioHashString>, COMDAT

; 516  : 	{	// return pointer category from pointers

  00000	55		 push	 ebp
  00001	8b ec		 mov	 ebp, esp
  00003	51		 push	 ecx

; 517  : 	typename _Ptr_cat_helper<_Elem1, _Elem2>::_Type _Cat;
; 518  : 	return (_Cat);

  00004	8a 45 ff	 mov	 al, BYTE PTR __Cat$[ebp]

; 519  : 	}

  00007	c9		 leave
  00008	c3		 ret	 0
??$_Ptr_cat@VioHashString@@V1@@std@@YA?AU_Nonscalar_ptr_iterator_tag@0@PAVioHashString@@0@Z ENDP ; std::_Ptr_cat<ioHashString,ioHashString>
_TEXT	ENDS
PUBLIC	??$_Ptr_cat@UWeaponInfo@@U1@@std@@YA?AU_Nonscalar_ptr_iterator_tag@0@PAUWeaponInfo@@0@Z ; std::_Ptr_cat<WeaponInfo,WeaponInfo>
; Function compile flags: /Ogsp
;	COMDAT ??$_Ptr_cat@UWeaponInfo@@U1@@std@@YA?AU_Nonscalar_ptr_iterator_tag@0@PAUWeaponInfo@@0@Z
_TEXT	SEGMENT
__Cat$ = -1						; size = 1
___formal$ = 8						; size = 4
___formal$ = 12						; size = 4
??$_Ptr_cat@UWeaponInfo@@U1@@std@@YA?AU_Nonscalar_ptr_iterator_tag@0@PAUWeaponInfo@@0@Z PROC ; std::_Ptr_cat<WeaponInfo,WeaponInfo>, COMDAT

; 516  : 	{	// return pointer category from pointers

  00000	55		 push	 ebp
  00001	8b ec		 mov	 ebp, esp
  00003	51		 push	 ecx

; 517  : 	typename _Ptr_cat_helper<_Elem1, _Elem2>::_Type _Cat;
; 518  : 	return (_Cat);

  00004	8a 45 ff	 mov	 al, BYTE PTR __Cat$[ebp]

; 519  : 	}

  00007	c9		 leave
  00008	c3		 ret	 0
??$_Ptr_cat@UWeaponInfo@@U1@@std@@YA?AU_Nonscalar_ptr_iterator_tag@0@PAUWeaponInfo@@0@Z ENDP ; std::_Ptr_cat<WeaponInfo,WeaponInfo>
_TEXT	ENDS
PUBLIC	??$_Ptr_cat@UForceInfo@@U1@@std@@YA?AU_Nonscalar_ptr_iterator_tag@0@PAUForceInfo@@0@Z ; std::_Ptr_cat<ForceInfo,ForceInfo>
; Function compile flags: /Ogsp
;	COMDAT ??$_Ptr_cat@UForceInfo@@U1@@std@@YA?AU_Nonscalar_ptr_iterator_tag@0@PAUForceInfo@@0@Z
_TEXT	SEGMENT
__Cat$ = -1						; size = 1
___formal$ = 8						; size = 4
___formal$ = 12						; size = 4
??$_Ptr_cat@UForceInfo@@U1@@std@@YA?AU_Nonscalar_ptr_iterator_tag@0@PAUForceInfo@@0@Z PROC ; std::_Ptr_cat<ForceInfo,ForceInfo>, COMDAT

; 516  : 	{	// return pointer category from pointers

  00000	55		 push	 ebp
  00001	8b ec		 mov	 ebp, esp
  00003	51		 push	 ecx

; 517  : 	typename _Ptr_cat_helper<_Elem1, _Elem2>::_Type _Cat;
; 518  : 	return (_Cat);

  00004	8a 45 ff	 mov	 al, BYTE PTR __Cat$[ebp]

; 519  : 	}

  00007	c9		 leave
  00008	c3		 ret	 0
??$_Ptr_cat@UForceInfo@@U1@@std@@YA?AU_Nonscalar_ptr_iterator_tag@0@PAUForceInfo@@0@Z ENDP ; std::_Ptr_cat<ForceInfo,ForceInfo>
_TEXT	ENDS
PUBLIC	?capacity@?$vector@UWeaponInfo@@V?$allocator@UWeaponInfo@@@std@@@std@@QBEIXZ ; std::vector<WeaponInfo,std::allocator<WeaponInfo> >::capacity
; Function compile flags: /Ogsp
; File c:\program files (x86)\microsoft visual studio 10.0\vc\include\vector
;	COMDAT ?capacity@?$vector@UWeaponInfo@@V?$allocator@UWeaponInfo@@@std@@@std@@QBEIXZ
_TEXT	SEGMENT
?capacity@?$vector@UWeaponInfo@@V?$allocator@UWeaponInfo@@@std@@@std@@QBEIXZ PROC ; std::vector<WeaponInfo,std::allocator<WeaponInfo> >::capacity, COMDAT
; _this$ = ecx

; 777  : 		return (this->_Myend - this->_Myfirst);

  00000	8b 41 08	 mov	 eax, DWORD PTR [ecx+8]
  00003	2b 01		 sub	 eax, DWORD PTR [ecx]
  00005	6a 28		 push	 40			; 00000028H
  00007	99		 cdq
  00008	59		 pop	 ecx
  00009	f7 f9		 idiv	 ecx

; 778  : 		}

  0000b	c3		 ret	 0
?capacity@?$vector@UWeaponInfo@@V?$allocator@UWeaponInfo@@@std@@@std@@QBEIXZ ENDP ; std::vector<WeaponInfo,std::allocator<WeaponInfo> >::capacity
_TEXT	ENDS
PUBLIC	?size@?$vector@UWeaponInfo@@V?$allocator@UWeaponInfo@@@std@@@std@@QBEIXZ ; std::vector<WeaponInfo,std::allocator<WeaponInfo> >::size
; Function compile flags: /Ogsp
;	COMDAT ?size@?$vector@UWeaponInfo@@V?$allocator@UWeaponInfo@@@std@@@std@@QBEIXZ
_TEXT	SEGMENT
?size@?$vector@UWeaponInfo@@V?$allocator@UWeaponInfo@@@std@@@std@@QBEIXZ PROC ; std::vector<WeaponInfo,std::allocator<WeaponInfo> >::size, COMDAT
; _this$ = ecx

; 879  : 		return (this->_Mylast - this->_Myfirst);

  00000	8b 41 04	 mov	 eax, DWORD PTR [ecx+4]
  00003	2b 01		 sub	 eax, DWORD PTR [ecx]
  00005	6a 28		 push	 40			; 00000028H
  00007	99		 cdq
  00008	59		 pop	 ecx
  00009	f7 f9		 idiv	 ecx

; 880  : 		}

  0000b	c3		 ret	 0
?size@?$vector@UWeaponInfo@@V?$allocator@UWeaponInfo@@@std@@@std@@QBEIXZ ENDP ; std::vector<WeaponInfo,std::allocator<WeaponInfo> >::size
_TEXT	ENDS
PUBLIC	?capacity@?$vector@UForceInfo@@V?$allocator@UForceInfo@@@std@@@std@@QBEIXZ ; std::vector<ForceInfo,std::allocator<ForceInfo> >::capacity
; Function compile flags: /Ogsp
;	COMDAT ?capacity@?$vector@UForceInfo@@V?$allocator@UForceInfo@@@std@@@std@@QBEIXZ
_TEXT	SEGMENT
?capacity@?$vector@UForceInfo@@V?$allocator@UForceInfo@@@std@@@std@@QBEIXZ PROC ; std::vector<ForceInfo,std::allocator<ForceInfo> >::capacity, COMDAT
; _this$ = ecx

; 777  : 		return (this->_Myend - this->_Myfirst);

  00000	8b 41 08	 mov	 eax, DWORD PTR [ecx+8]
  00003	2b 01		 sub	 eax, DWORD PTR [ecx]
  00005	6a 0c		 push	 12			; 0000000cH
  00007	99		 cdq
  00008	59		 pop	 ecx
  00009	f7 f9		 idiv	 ecx

; 778  : 		}

  0000b	c3		 ret	 0
?capacity@?$vector@UForceInfo@@V?$allocator@UForceInfo@@@std@@@std@@QBEIXZ ENDP ; std::vector<ForceInfo,std::allocator<ForceInfo> >::capacity
_TEXT	ENDS
PUBLIC	?size@?$vector@UForceInfo@@V?$allocator@UForceInfo@@@std@@@std@@QBEIXZ ; std::vector<ForceInfo,std::allocator<ForceInfo> >::size
; Function compile flags: /Ogsp
;	COMDAT ?size@?$vector@UForceInfo@@V?$allocator@UForceInfo@@@std@@@std@@QBEIXZ
_TEXT	SEGMENT
?size@?$vector@UForceInfo@@V?$allocator@UForceInfo@@@std@@@std@@QBEIXZ PROC ; std::vector<ForceInfo,std::allocator<ForceInfo> >::size, COMDAT
; _this$ = ecx

; 879  : 		return (this->_Mylast - this->_Myfirst);

  00000	8b 41 04	 mov	 eax, DWORD PTR [ecx+4]
  00003	2b 01		 sub	 eax, DWORD PTR [ecx]
  00005	6a 0c		 push	 12			; 0000000cH
  00007	99		 cdq
  00008	59		 pop	 ecx
  00009	f7 f9		 idiv	 ecx

; 880  : 		}

  0000b	c3		 ret	 0
?size@?$vector@UForceInfo@@V?$allocator@UForceInfo@@@std@@@std@@QBEIXZ ENDP ; std::vector<ForceInfo,std::allocator<ForceInfo> >::size
_TEXT	ENDS
PUBLIC	?_Xlen@?$vector@UWeaponInfo@@V?$allocator@UWeaponInfo@@@std@@@std@@IBEXXZ ; std::vector<WeaponInfo,std::allocator<WeaponInfo> >::_Xlen
; Function compile flags: /Ogsp
;	COMDAT ?_Xlen@?$vector@UWeaponInfo@@V?$allocator@UWeaponInfo@@@std@@@std@@IBEXXZ
_TEXT	SEGMENT
?_Xlen@?$vector@UWeaponInfo@@V?$allocator@UWeaponInfo@@@std@@@std@@IBEXXZ PROC ; std::vector<WeaponInfo,std::allocator<WeaponInfo> >::_Xlen, COMDAT
; _this$ = ecx

; 1427 : 		_Xlength_error("vector<T> too long");

  00000	68 00 00 00 00	 push	 OFFSET ??_C@_0BD@OLBABOEK@vector?$DMT?$DO?5too?5long?$AA@
  00005	ff 15 00 00 00
	00		 call	 DWORD PTR __imp_?_Xlength_error@std@@YAXPBD@Z
$LN4@Xlen@4:
$LN3@Xlen@4:
  0000b	cc		 int	 3
?_Xlen@?$vector@UWeaponInfo@@V?$allocator@UWeaponInfo@@@std@@@std@@IBEXXZ ENDP ; std::vector<WeaponInfo,std::allocator<WeaponInfo> >::_Xlen
_TEXT	ENDS
PUBLIC	?_Xlen@?$vector@UForceInfo@@V?$allocator@UForceInfo@@@std@@@std@@IBEXXZ ; std::vector<ForceInfo,std::allocator<ForceInfo> >::_Xlen
; Function compile flags: /Ogsp
;	COMDAT ?_Xlen@?$vector@UForceInfo@@V?$allocator@UForceInfo@@@std@@@std@@IBEXXZ
_TEXT	SEGMENT
?_Xlen@?$vector@UForceInfo@@V?$allocator@UForceInfo@@@std@@@std@@IBEXXZ PROC ; std::vector<ForceInfo,std::allocator<ForceInfo> >::_Xlen, COMDAT
; _this$ = ecx

; 1427 : 		_Xlength_error("vector<T> too long");

  00000	68 00 00 00 00	 push	 OFFSET ??_C@_0BD@OLBABOEK@vector?$DMT?$DO?5too?5long?$AA@
  00005	ff 15 00 00 00
	00		 call	 DWORD PTR __imp_?_Xlength_error@std@@YAXPBD@Z
$LN4@Xlen@5:
$LN3@Xlen@5:
  0000b	cc		 int	 3
?_Xlen@?$vector@UForceInfo@@V?$allocator@UForceInfo@@@std@@@std@@IBEXXZ ENDP ; std::vector<ForceInfo,std::allocator<ForceInfo> >::_Xlen
_TEXT	ENDS
PUBLIC	?max_size@?$allocator@UWeaponInfo@@@std@@QBEIXZ	; std::allocator<WeaponInfo>::max_size
; Function compile flags: /Ogsp
; File c:\program files (x86)\microsoft visual studio 10.0\vc\include\xmemory
;	COMDAT ?max_size@?$allocator@UWeaponInfo@@@std@@QBEIXZ
_TEXT	SEGMENT
?max_size@?$allocator@UWeaponInfo@@@std@@QBEIXZ PROC	; std::allocator<WeaponInfo>::max_size, COMDAT
; _this$ = ecx

; 218  : 		_SIZT _Count = (_SIZT)(-1) / sizeof (_Ty);
; 219  : 		return (0 < _Count ? _Count : 1);

  00000	b8 66 66 66 06	 mov	 eax, 107374182		; 06666666H

; 220  : 		}

  00005	c3		 ret	 0
?max_size@?$allocator@UWeaponInfo@@@std@@QBEIXZ ENDP	; std::allocator<WeaponInfo>::max_size
_TEXT	ENDS
PUBLIC	?max_size@?$allocator@UForceInfo@@@std@@QBEIXZ	; std::allocator<ForceInfo>::max_size
; Function compile flags: /Ogsp
;	COMDAT ?max_size@?$allocator@UForceInfo@@@std@@QBEIXZ
_TEXT	SEGMENT
?max_size@?$allocator@UForceInfo@@@std@@QBEIXZ PROC	; std::allocator<ForceInfo>::max_size, COMDAT
; _this$ = ecx

; 218  : 		_SIZT _Count = (_SIZT)(-1) / sizeof (_Ty);
; 219  : 		return (0 < _Count ? _Count : 1);

  00000	b8 55 55 55 15	 mov	 eax, 357913941		; 15555555H

; 220  : 		}

  00005	c3		 ret	 0
?max_size@?$allocator@UForceInfo@@@std@@QBEIXZ ENDP	; std::allocator<ForceInfo>::max_size
_TEXT	ENDS
PUBLIC	??0?$_Vector_const_iterator@V?$_Vector_val@UWeaponInfo@@V?$allocator@UWeaponInfo@@@std@@@std@@@std@@QAE@PAUWeaponInfo@@PBU_Container_base0@1@@Z ; std::_Vector_const_iterator<std::_Vector_val<WeaponInfo,std::allocator<WeaponInfo> > >::_Vector_const_iterator<std::_Vector_val<WeaponInfo,std::allocator<WeaponInfo> > >
; Function compile flags: /Ogsp
; File c:\program files (x86)\microsoft visual studio 10.0\vc\include\vector
;	COMDAT ??0?$_Vector_const_iterator@V?$_Vector_val@UWeaponInfo@@V?$allocator@UWeaponInfo@@@std@@@std@@@std@@QAE@PAUWeaponInfo@@PBU_Container_base0@1@@Z
_TEXT	SEGMENT
__Parg$ = 8						; size = 4
__Pvector$ = 12						; size = 4
??0?$_Vector_const_iterator@V?$_Vector_val@UWeaponInfo@@V?$allocator@UWeaponInfo@@@std@@@std@@@std@@QAE@PAUWeaponInfo@@PBU_Container_base0@1@@Z PROC ; std::_Vector_const_iterator<std::_Vector_val<WeaponInfo,std::allocator<WeaponInfo> > >::_Vector_const_iterator<std::_Vector_val<WeaponInfo,std::allocator<WeaponInfo> > >, COMDAT
; _this$ = ecx

; 45   : 		{	// construct with pointer _Parg

  00000	55		 push	 ebp
  00001	8b ec		 mov	 ebp, esp
  00003	8b c1		 mov	 eax, ecx
  00005	8b 4d 08	 mov	 ecx, DWORD PTR __Parg$[ebp]
  00008	89 08		 mov	 DWORD PTR [eax], ecx

; 46   : 		this->_Adopt(_Pvector);
; 47   : 		}

  0000a	5d		 pop	 ebp
  0000b	c2 08 00	 ret	 8
??0?$_Vector_const_iterator@V?$_Vector_val@UWeaponInfo@@V?$allocator@UWeaponInfo@@@std@@@std@@@std@@QAE@PAUWeaponInfo@@PBU_Container_base0@1@@Z ENDP ; std::_Vector_const_iterator<std::_Vector_val<WeaponInfo,std::allocator<WeaponInfo> > >::_Vector_const_iterator<std::_Vector_val<WeaponInfo,std::allocator<WeaponInfo> > >
_TEXT	ENDS
PUBLIC	??0?$_Vector_const_iterator@V?$_Vector_val@UForceInfo@@V?$allocator@UForceInfo@@@std@@@std@@@std@@QAE@PAUForceInfo@@PBU_Container_base0@1@@Z ; std::_Vector_const_iterator<std::_Vector_val<ForceInfo,std::allocator<ForceInfo> > >::_Vector_const_iterator<std::_Vector_val<ForceInfo,std::allocator<ForceInfo> > >
; Function compile flags: /Ogsp
;	COMDAT ??0?$_Vector_const_iterator@V?$_Vector_val@UForceInfo@@V?$allocator@UForceInfo@@@std@@@std@@@std@@QAE@PAUForceInfo@@PBU_Container_base0@1@@Z
_TEXT	SEGMENT
__Parg$ = 8						; size = 4
__Pvector$ = 12						; size = 4
??0?$_Vector_const_iterator@V?$_Vector_val@UForceInfo@@V?$allocator@UForceInfo@@@std@@@std@@@std@@QAE@PAUForceInfo@@PBU_Container_base0@1@@Z PROC ; std::_Vector_const_iterator<std::_Vector_val<ForceInfo,std::allocator<ForceInfo> > >::_Vector_const_iterator<std::_Vector_val<ForceInfo,std::allocator<ForceInfo> > >, COMDAT
; _this$ = ecx

; 45   : 		{	// construct with pointer _Parg

  00000	55		 push	 ebp
  00001	8b ec		 mov	 ebp, esp
  00003	8b c1		 mov	 eax, ecx
  00005	8b 4d 08	 mov	 ecx, DWORD PTR __Parg$[ebp]
  00008	89 08		 mov	 DWORD PTR [eax], ecx

; 46   : 		this->_Adopt(_Pvector);
; 47   : 		}

  0000a	5d		 pop	 ebp
  0000b	c2 08 00	 ret	 8
??0?$_Vector_const_iterator@V?$_Vector_val@UForceInfo@@V?$allocator@UForceInfo@@@std@@@std@@@std@@QAE@PAUForceInfo@@PBU_Container_base0@1@@Z ENDP ; std::_Vector_const_iterator<std::_Vector_val<ForceInfo,std::allocator<ForceInfo> > >::_Vector_const_iterator<std::_Vector_val<ForceInfo,std::allocator<ForceInfo> > >
_TEXT	ENDS
PUBLIC	?_Compat@?$_Vector_const_iterator@V?$_Vector_val@UWeaponInfo@@V?$allocator@UWeaponInfo@@@std@@@std@@@std@@QBEXABV12@@Z ; std::_Vector_const_iterator<std::_Vector_val<WeaponInfo,std::allocator<WeaponInfo> > >::_Compat
; Function compile flags: /Ogsp
;	COMDAT ?_Compat@?$_Vector_const_iterator@V?$_Vector_val@UWeaponInfo@@V?$allocator@UWeaponInfo@@@std@@@std@@@std@@QBEXABV12@@Z
_TEXT	SEGMENT
___formal$ = 8						; size = 4
?_Compat@?$_Vector_const_iterator@V?$_Vector_val@UWeaponInfo@@V?$allocator@UWeaponInfo@@@std@@@std@@@std@@QBEXABV12@@Z PROC ; std::_Vector_const_iterator<std::_Vector_val<WeaponInfo,std::allocator<WeaponInfo> > >::_Compat, COMDAT
; _this$ = ecx

; 253  : 		}

  00000	c2 04 00	 ret	 4
?_Compat@?$_Vector_const_iterator@V?$_Vector_val@UWeaponInfo@@V?$allocator@UWeaponInfo@@@std@@@std@@@std@@QBEXABV12@@Z ENDP ; std::_Vector_const_iterator<std::_Vector_val<WeaponInfo,std::allocator<WeaponInfo> > >::_Compat
_TEXT	ENDS
PUBLIC	?_Compat@?$_Vector_const_iterator@V?$_Vector_val@UForceInfo@@V?$allocator@UForceInfo@@@std@@@std@@@std@@QBEXABV12@@Z ; std::_Vector_const_iterator<std::_Vector_val<ForceInfo,std::allocator<ForceInfo> > >::_Compat
; Function compile flags: /Ogsp
;	COMDAT ?_Compat@?$_Vector_const_iterator@V?$_Vector_val@UForceInfo@@V?$allocator@UForceInfo@@@std@@@std@@@std@@QBEXABV12@@Z
_TEXT	SEGMENT
___formal$ = 8						; size = 4
?_Compat@?$_Vector_const_iterator@V?$_Vector_val@UForceInfo@@V?$allocator@UForceInfo@@@std@@@std@@@std@@QBEXABV12@@Z PROC ; std::_Vector_const_iterator<std::_Vector_val<ForceInfo,std::allocator<ForceInfo> > >::_Compat, COMDAT
; _this$ = ecx

; 253  : 		}

  00000	c2 04 00	 ret	 4
?_Compat@?$_Vector_const_iterator@V?$_Vector_val@UForceInfo@@V?$allocator@UForceInfo@@@std@@@std@@@std@@QBEXABV12@@Z ENDP ; std::_Vector_const_iterator<std::_Vector_val<ForceInfo,std::allocator<ForceInfo> > >::_Compat
_TEXT	ENDS
PUBLIC	??$_Ptr_cat@V?$_Vector_const_iterator@V?$_Vector_val@VioHashString@@V?$allocator@VioHashString@@@std@@@std@@@std@@PAVioHashString@@@std@@YA?AU_Nonscalar_ptr_iterator_tag@0@AAV?$_Vector_const_iterator@V?$_Vector_val@VioHashString@@V?$allocator@VioHashString@@@std@@@std@@@0@AAPAVioHashString@@@Z ; std::_Ptr_cat<std::_Vector_const_iterator<std::_Vector_val<ioHashString,std::allocator<ioHashString> > >,ioHashString *>
; Function compile flags: /Ogsp
; File c:\program files (x86)\microsoft visual studio 10.0\vc\include\xutility
;	COMDAT ??$_Ptr_cat@V?$_Vector_const_iterator@V?$_Vector_val@VioHashString@@V?$allocator@VioHashString@@@std@@@std@@@std@@PAVioHashString@@@std@@YA?AU_Nonscalar_ptr_iterator_tag@0@AAV?$_Vector_const_iterator@V?$_Vector_val@VioHashString@@V?$allocator@VioHashString@@@std@@@std@@@0@AAPAVioHashString@@@Z
_TEXT	SEGMENT
__Cat$ = -1						; size = 1
___formal$ = 8						; size = 4
___formal$ = 12						; size = 4
??$_Ptr_cat@V?$_Vector_const_iterator@V?$_Vector_val@VioHashString@@V?$allocator@VioHashString@@@std@@@std@@@std@@PAVioHashString@@@std@@YA?AU_Nonscalar_ptr_iterator_tag@0@AAV?$_Vector_const_iterator@V?$_Vector_val@VioHashString@@V?$allocator@VioHashString@@@std@@@std@@@0@AAPAVioHashString@@@Z PROC ; std::_Ptr_cat<std::_Vector_const_iterator<std::_Vector_val<ioHashString,std::allocator<ioHashString> > >,ioHashString *>, COMDAT

; 485  : 	{	// return pointer category from arbitrary arguments

  00000	55		 push	 ebp
  00001	8b ec		 mov	 ebp, esp
  00003	51		 push	 ecx

; 486  : 	_Nonscalar_ptr_iterator_tag _Cat;
; 487  : 	return (_Cat);

  00004	8a 45 ff	 mov	 al, BYTE PTR __Cat$[ebp]

; 488  : 	}

  00007	c9		 leave
  00008	c3		 ret	 0
??$_Ptr_cat@V?$_Vector_const_iterator@V?$_Vector_val@VioHashString@@V?$allocator@VioHashString@@@std@@@std@@@std@@PAVioHashString@@@std@@YA?AU_Nonscalar_ptr_iterator_tag@0@AAV?$_Vector_const_iterator@V?$_Vector_val@VioHashString@@V?$allocator@VioHashString@@@std@@@std@@@0@AAPAVioHashString@@@Z ENDP ; std::_Ptr_cat<std::_Vector_const_iterator<std::_Vector_val<ioHashString,std::allocator<ioHashString> > >,ioHashString *>
_TEXT	ENDS
PUBLIC	??$move@AAVioHashString@@@std@@YA$$QAVioHashString@@AAV1@@Z ; std::move<ioHashString &>
; Function compile flags: /Ogsp
; File c:\program files (x86)\microsoft visual studio 10.0\vc\include\utility
;	COMDAT ??$move@AAVioHashString@@@std@@YA$$QAVioHashString@@AAV1@@Z
_TEXT	SEGMENT
__Arg$ = 8						; size = 4
??$move@AAVioHashString@@@std@@YA$$QAVioHashString@@AAV1@@Z PROC ; std::move<ioHashString &>, COMDAT

; 86   : 	{	// forward _Arg as movable

  00000	55		 push	 ebp
  00001	8b ec		 mov	 ebp, esp

; 87   : 	return ((typename tr1::_Remove_reference<_Ty>::_Type&&)_Arg);

  00003	8b 45 08	 mov	 eax, DWORD PTR __Arg$[ebp]

; 88   : 	}

  00006	5d		 pop	 ebp
  00007	c3		 ret	 0
??$move@AAVioHashString@@@std@@YA$$QAVioHashString@@AAV1@@Z ENDP ; std::move<ioHashString &>
_TEXT	ENDS
PUBLIC	??$_Allocate@UWeaponInfo@@@std@@YAPAUWeaponInfo@@IPAU1@@Z ; std::_Allocate<WeaponInfo>
; Function compile flags: /Ogsp
; File c:\program files (x86)\microsoft visual studio 10.0\vc\include\xmemory
;	COMDAT ??$_Allocate@UWeaponInfo@@@std@@YAPAUWeaponInfo@@IPAU1@@Z
_TEXT	SEGMENT
$T537936 = -12						; size = 12
$T537940 = 8						; size = 4
__Count$ = 8						; size = 4
___formal$ = 12						; size = 4
??$_Allocate@UWeaponInfo@@@std@@YAPAUWeaponInfo@@IPAU1@@Z PROC ; std::_Allocate<WeaponInfo>, COMDAT

; 30   : 	{	// allocate storage for _Count elements of type _Ty

  00000	55		 push	 ebp
  00001	8b ec		 mov	 ebp, esp

; 31   : 	void *_Ptr = 0;
; 32   : 
; 33   : 	if (_Count <= 0)

  00003	8b 4d 08	 mov	 ecx, DWORD PTR __Count$[ebp]
  00006	83 ec 0c	 sub	 esp, 12			; 0000000cH
  00009	33 c0		 xor	 eax, eax
  0000b	85 c9		 test	 ecx, ecx

; 34   : 		_Count = 0;
; 35   : 	else if (((_SIZT)(-1) / sizeof (_Ty) < _Count)

  0000d	74 3c		 je	 SHORT $LN5@Allocate@4

; 36   : 		|| (_Ptr = ::operator new(_Count * sizeof (_Ty))) == 0)

  0000f	81 f9 66 66 66
	06		 cmp	 ecx, 107374182		; 06666666H
  00015	77 0e		 ja	 SHORT $LN1@Allocate@4
  00017	6b c9 28	 imul	 ecx, 40			; 00000028H
  0001a	51		 push	 ecx
  0001b	e8 00 00 00 00	 call	 ??2@YAPAXI@Z		; operator new
  00020	59		 pop	 ecx
  00021	85 c0		 test	 eax, eax

; 38   : 
; 39   : 	return ((_Ty _FARQ *)_Ptr);

  00023	75 26		 jne	 SHORT $LN5@Allocate@4
$LN1@Allocate@4:

; 37   : 		_THROW_NCEE(bad_alloc, 0);

  00025	83 65 08 00	 and	 DWORD PTR $T537940[ebp], 0
  00029	8d 45 08	 lea	 eax, DWORD PTR $T537940[ebp]
  0002c	50		 push	 eax
  0002d	8d 4d f4	 lea	 ecx, DWORD PTR $T537936[ebp]
  00030	ff 15 00 00 00
	00		 call	 DWORD PTR __imp_??0exception@std@@QAE@ABQBD@Z
  00036	68 00 00 00 00	 push	 OFFSET __TI2?AVbad_alloc@std@@
  0003b	8d 45 f4	 lea	 eax, DWORD PTR $T537936[ebp]
  0003e	50		 push	 eax
  0003f	c7 45 f4 00 00
	00 00		 mov	 DWORD PTR $T537936[ebp], OFFSET ??_7bad_alloc@std@@6B@
  00046	e8 00 00 00 00	 call	 __CxxThrowException@8
$LN10@Allocate@4:
$LN5@Allocate@4:

; 40   : 	}

  0004b	c9		 leave
  0004c	c3		 ret	 0
$LN9@Allocate@4:
??$_Allocate@UWeaponInfo@@@std@@YAPAUWeaponInfo@@IPAU1@@Z ENDP ; std::_Allocate<WeaponInfo>
_TEXT	ENDS
PUBLIC	??$_Allocate@UForceInfo@@@std@@YAPAUForceInfo@@IPAU1@@Z ; std::_Allocate<ForceInfo>
; Function compile flags: /Ogsp
;	COMDAT ??$_Allocate@UForceInfo@@@std@@YAPAUForceInfo@@IPAU1@@Z
_TEXT	SEGMENT
$T537945 = -12						; size = 12
$T537949 = 8						; size = 4
__Count$ = 8						; size = 4
___formal$ = 12						; size = 4
??$_Allocate@UForceInfo@@@std@@YAPAUForceInfo@@IPAU1@@Z PROC ; std::_Allocate<ForceInfo>, COMDAT

; 30   : 	{	// allocate storage for _Count elements of type _Ty

  00000	55		 push	 ebp
  00001	8b ec		 mov	 ebp, esp

; 31   : 	void *_Ptr = 0;
; 32   : 
; 33   : 	if (_Count <= 0)

  00003	8b 4d 08	 mov	 ecx, DWORD PTR __Count$[ebp]
  00006	83 ec 0c	 sub	 esp, 12			; 0000000cH
  00009	33 c0		 xor	 eax, eax
  0000b	85 c9		 test	 ecx, ecx

; 34   : 		_Count = 0;
; 35   : 	else if (((_SIZT)(-1) / sizeof (_Ty) < _Count)

  0000d	74 3c		 je	 SHORT $LN5@Allocate@5

; 36   : 		|| (_Ptr = ::operator new(_Count * sizeof (_Ty))) == 0)

  0000f	81 f9 55 55 55
	15		 cmp	 ecx, 357913941		; 15555555H
  00015	77 0e		 ja	 SHORT $LN1@Allocate@5
  00017	6b c9 0c	 imul	 ecx, 12			; 0000000cH
  0001a	51		 push	 ecx
  0001b	e8 00 00 00 00	 call	 ??2@YAPAXI@Z		; operator new
  00020	59		 pop	 ecx
  00021	85 c0		 test	 eax, eax

; 38   : 
; 39   : 	return ((_Ty _FARQ *)_Ptr);

  00023	75 26		 jne	 SHORT $LN5@Allocate@5
$LN1@Allocate@5:

; 37   : 		_THROW_NCEE(bad_alloc, 0);

  00025	83 65 08 00	 and	 DWORD PTR $T537949[ebp], 0
  00029	8d 45 08	 lea	 eax, DWORD PTR $T537949[ebp]
  0002c	50		 push	 eax
  0002d	8d 4d f4	 lea	 ecx, DWORD PTR $T537945[ebp]
  00030	ff 15 00 00 00
	00		 call	 DWORD PTR __imp_??0exception@std@@QAE@ABQBD@Z
  00036	68 00 00 00 00	 push	 OFFSET __TI2?AVbad_alloc@std@@
  0003b	8d 45 f4	 lea	 eax, DWORD PTR $T537945[ebp]
  0003e	50		 push	 eax
  0003f	c7 45 f4 00 00
	00 00		 mov	 DWORD PTR $T537945[ebp], OFFSET ??_7bad_alloc@std@@6B@
  00046	e8 00 00 00 00	 call	 __CxxThrowException@8
$LN10@Allocate@5:
$LN5@Allocate@5:

; 40   : 	}

  0004b	c9		 leave
  0004c	c3		 ret	 0
$LN9@Allocate@5:
??$_Allocate@UForceInfo@@@std@@YAPAUForceInfo@@IPAU1@@Z ENDP ; std::_Allocate<ForceInfo>
_TEXT	ENDS
PUBLIC	??D?$_Vector_const_iterator@V?$_Vector_val@VioHashString@@V?$allocator@VioHashString@@@std@@@std@@@std@@QBEABVioHashString@@XZ ; std::_Vector_const_iterator<std::_Vector_val<ioHashString,std::allocator<ioHashString> > >::operator*
; Function compile flags: /Ogsp
; File c:\program files (x86)\microsoft visual studio 10.0\vc\include\vector
;	COMDAT ??D?$_Vector_const_iterator@V?$_Vector_val@VioHashString@@V?$allocator@VioHashString@@@std@@@std@@@std@@QBEABVioHashString@@XZ
_TEXT	SEGMENT
??D?$_Vector_const_iterator@V?$_Vector_val@VioHashString@@V?$allocator@VioHashString@@@std@@@std@@@std@@QBEABVioHashString@@XZ PROC ; std::_Vector_const_iterator<std::_Vector_val<ioHashString,std::allocator<ioHashString> > >::operator*, COMDAT
; _this$ = ecx

; 64   :  #if _ITERATOR_DEBUG_LEVEL == 2
; 65   : 		if (this->_Getcont() == 0
; 66   : 			|| this->_Ptr == 0
; 67   : 			|| this->_Ptr < ((_Myvec *)this->_Getcont())->_Myfirst
; 68   : 			|| ((_Myvec *)this->_Getcont())->_Mylast <= this->_Ptr)
; 69   : 			{	// report error
; 70   : 			_DEBUG_ERROR("vector iterator not dereferencable");
; 71   : 			_SCL_SECURE_OUT_OF_RANGE;
; 72   : 			}
; 73   : 
; 74   :  #elif _ITERATOR_DEBUG_LEVEL == 1
; 75   : 		_SCL_SECURE_VALIDATE(this->_Getcont() != 0);
; 76   : 		_SCL_SECURE_VALIDATE_RANGE(
; 77   : 			this->_Ptr != 0
; 78   : 			&& ((_Myvec *)this->_Getcont())->_Myfirst <= this->_Ptr
; 79   : 			&& this->_Ptr < ((_Myvec *)this->_Getcont())->_Mylast);
; 80   :  #endif /* _ITERATOR_DEBUG_LEVEL */
; 81   : 
; 82   : 		__analysis_assume(this->_Ptr != 0);
; 83   : 
; 84   : 		return (*this->_Ptr);

  00000	8b 01		 mov	 eax, DWORD PTR [ecx]

; 85   : 		}

  00002	c3		 ret	 0
??D?$_Vector_const_iterator@V?$_Vector_val@VioHashString@@V?$allocator@VioHashString@@@std@@@std@@@std@@QBEABVioHashString@@XZ ENDP ; std::_Vector_const_iterator<std::_Vector_val<ioHashString,std::allocator<ioHashString> > >::operator*
_TEXT	ENDS
PUBLIC	??E?$_Vector_const_iterator@V?$_Vector_val@VioHashString@@V?$allocator@VioHashString@@@std@@@std@@@std@@QAEAAV01@XZ ; std::_Vector_const_iterator<std::_Vector_val<ioHashString,std::allocator<ioHashString> > >::operator++
; Function compile flags: /Ogsp
;	COMDAT ??E?$_Vector_const_iterator@V?$_Vector_val@VioHashString@@V?$allocator@VioHashString@@@std@@@std@@@std@@QAEAAV01@XZ
_TEXT	SEGMENT
??E?$_Vector_const_iterator@V?$_Vector_val@VioHashString@@V?$allocator@VioHashString@@@std@@@std@@@std@@QAEAAV01@XZ PROC ; std::_Vector_const_iterator<std::_Vector_val<ioHashString,std::allocator<ioHashString> > >::operator++, COMDAT
; _this$ = ecx

; 93   : 		{	// preincrement

  00000	8b c1		 mov	 eax, ecx

; 94   :  #if _ITERATOR_DEBUG_LEVEL == 2
; 95   : 		if (this->_Getcont() == 0
; 96   : 			|| this->_Ptr == 0
; 97   : 			|| ((_Myvec *)this->_Getcont())->_Mylast <= this->_Ptr)
; 98   : 			{	// report error
; 99   : 			_DEBUG_ERROR("vector iterator not incrementable");
; 100  : 			_SCL_SECURE_OUT_OF_RANGE;
; 101  : 			}
; 102  : 
; 103  :  #elif _ITERATOR_DEBUG_LEVEL == 1
; 104  : 		_SCL_SECURE_VALIDATE(this->_Getcont() != 0);
; 105  : 		_SCL_SECURE_VALIDATE_RANGE(
; 106  : 			this->_Ptr != 0
; 107  : 			&& this->_Ptr < ((_Myvec *)this->_Getcont())->_Mylast);
; 108  :  #endif /* _ITERATOR_DEBUG_LEVEL */
; 109  : 
; 110  : 		++this->_Ptr;

  00002	83 00 10	 add	 DWORD PTR [eax], 16	; 00000010H

; 111  : 		return (*this);
; 112  : 		}

  00005	c3		 ret	 0
??E?$_Vector_const_iterator@V?$_Vector_val@VioHashString@@V?$allocator@VioHashString@@@std@@@std@@@std@@QAEAAV01@XZ ENDP ; std::_Vector_const_iterator<std::_Vector_val<ioHashString,std::allocator<ioHashString> > >::operator++
_TEXT	ENDS
PUBLIC	??$_Copy_impl@PAUForceInfo@@PAU1@@std@@YAPAUForceInfo@@PAU1@00U_Nonscalar_ptr_iterator_tag@0@@Z ; std::_Copy_impl<ForceInfo *,ForceInfo *>
; Function compile flags: /Ogsp
; File c:\program files (x86)\microsoft visual studio 10.0\vc\include\xutility
;	COMDAT ??$_Copy_impl@PAUForceInfo@@PAU1@@std@@YAPAUForceInfo@@PAU1@00U_Nonscalar_ptr_iterator_tag@0@@Z
_TEXT	SEGMENT
__First$ = 8						; size = 4
__Last$ = 12						; size = 4
__Dest$ = 16						; size = 4
___formal$ = 20						; size = 1
??$_Copy_impl@PAUForceInfo@@PAU1@@std@@YAPAUForceInfo@@PAU1@00U_Nonscalar_ptr_iterator_tag@0@@Z PROC ; std::_Copy_impl<ForceInfo *,ForceInfo *>, COMDAT

; 2142 : 	{	// copy [_First, _Last) to [_Dest, ...), arbitrary iterators

  00000	55		 push	 ebp
  00001	8b ec		 mov	 ebp, esp

; 2143 : 	for (; _First != _Last; ++_Dest, ++_First)

  00003	8b 45 08	 mov	 eax, DWORD PTR __First$[ebp]
  00006	3b 45 0c	 cmp	 eax, DWORD PTR __Last$[ebp]
  00009	74 18		 je	 SHORT $LN8@Copy_impl
  0000b	56		 push	 esi
  0000c	57		 push	 edi
$LL3@Copy_impl:

; 2144 : 		*_Dest = *_First;

  0000d	8b 7d 10	 mov	 edi, DWORD PTR __Dest$[ebp]
  00010	83 45 10 0c	 add	 DWORD PTR __Dest$[ebp], 12 ; 0000000cH
  00014	8b f0		 mov	 esi, eax
  00016	a5		 movsd
  00017	a5		 movsd
  00018	83 c0 0c	 add	 eax, 12			; 0000000cH
  0001b	a5		 movsd
  0001c	3b 45 0c	 cmp	 eax, DWORD PTR __Last$[ebp]
  0001f	75 ec		 jne	 SHORT $LL3@Copy_impl
  00021	5f		 pop	 edi
  00022	5e		 pop	 esi
$LN8@Copy_impl:

; 2145 : 	return (_Dest);

  00023	8b 45 10	 mov	 eax, DWORD PTR __Dest$[ebp]

; 2146 : 	}

  00026	5d		 pop	 ebp
  00027	c3		 ret	 0
??$_Copy_impl@PAUForceInfo@@PAU1@@std@@YAPAUForceInfo@@PAU1@00U_Nonscalar_ptr_iterator_tag@0@@Z ENDP ; std::_Copy_impl<ForceInfo *,ForceInfo *>
_TEXT	ENDS
PUBLIC	??$_Destroy@UForceInfo@@@std@@YAXPAUForceInfo@@@Z ; std::_Destroy<ForceInfo>
; Function compile flags: /Ogsp
; File c:\program files (x86)\microsoft visual studio 10.0\vc\include\xmemory
;	COMDAT ??$_Destroy@UForceInfo@@@std@@YAXPAUForceInfo@@@Z
_TEXT	SEGMENT
__Ptr$ = 8						; size = 4
??$_Destroy@UForceInfo@@@std@@YAXPAUForceInfo@@@Z PROC	; std::_Destroy<ForceInfo>, COMDAT

; 63   : 	_Ptr->~_Ty();
; 64   : 	}

  00000	c3		 ret	 0
??$_Destroy@UForceInfo@@@std@@YAXPAUForceInfo@@@Z ENDP	; std::_Destroy<ForceInfo>
_TEXT	ENDS
PUBLIC	??4WeaponInfo@@QAEAAU0@ABU0@@Z			; WeaponInfo::operator=
; Function compile flags: /Ogsp
;	COMDAT ??4WeaponInfo@@QAEAAU0@ABU0@@Z
_TEXT	SEGMENT
___that$ = 8						; size = 4
??4WeaponInfo@@QAEAAU0@ABU0@@Z PROC			; WeaponInfo::operator=, COMDAT
; _this$ = ecx
  00000	55		 push	 ebp
  00001	8b ec		 mov	 ebp, esp
  00003	56		 push	 esi
  00004	57		 push	 edi
  00005	8b 7d 08	 mov	 edi, DWORD PTR ___that$[ebp]
  00008	8b 07		 mov	 eax, DWORD PTR [edi]
  0000a	8b f1		 mov	 esi, ecx
  0000c	89 06		 mov	 DWORD PTR [esi], eax
  0000e	8b 47 04	 mov	 eax, DWORD PTR [edi+4]
  00011	89 46 04	 mov	 DWORD PTR [esi+4], eax
  00014	8d 47 08	 lea	 eax, DWORD PTR [edi+8]
  00017	50		 push	 eax
  00018	8d 4e 08	 lea	 ecx, DWORD PTR [esi+8]
  0001b	ff 15 00 00 00
	00		 call	 DWORD PTR __imp_??4ioHashString@@QAEAAV0@ABV0@@Z
  00021	8b 47 18	 mov	 eax, DWORD PTR [edi+24]
  00024	89 46 18	 mov	 DWORD PTR [esi+24], eax
  00027	8b 47 1c	 mov	 eax, DWORD PTR [edi+28]
  0002a	89 46 1c	 mov	 DWORD PTR [esi+28], eax
  0002d	8a 47 20	 mov	 al, BYTE PTR [edi+32]
  00030	88 46 20	 mov	 BYTE PTR [esi+32], al
  00033	8b 47 24	 mov	 eax, DWORD PTR [edi+36]
  00036	89 46 24	 mov	 DWORD PTR [esi+36], eax
  00039	5f		 pop	 edi
  0003a	8b c6		 mov	 eax, esi
  0003c	5e		 pop	 esi
  0003d	5d		 pop	 ebp
  0003e	c2 04 00	 ret	 4
??4WeaponInfo@@QAEAAU0@ABU0@@Z ENDP			; WeaponInfo::operator=
_TEXT	ENDS
PUBLIC	??_GioHashString@@QAEPAXI@Z			; ioHashString::`scalar deleting destructor'
; Function compile flags: /Ogsp
;	COMDAT ??_GioHashString@@QAEPAXI@Z
_TEXT	SEGMENT
___flags$ = 8						; size = 4
??_GioHashString@@QAEPAXI@Z PROC			; ioHashString::`scalar deleting destructor', COMDAT
; _this$ = ecx
  00000	55		 push	 ebp
  00001	8b ec		 mov	 ebp, esp
  00003	56		 push	 esi
  00004	8b f1		 mov	 esi, ecx
  00006	ff 15 00 00 00
	00		 call	 DWORD PTR __imp_??1ioHashString@@QAE@XZ
  0000c	f6 45 08 01	 test	 BYTE PTR ___flags$[ebp], 1
  00010	74 07		 je	 SHORT $LN1@scalar@3
  00012	56		 push	 esi
  00013	e8 00 00 00 00	 call	 ??3@YAXPAX@Z		; operator delete
  00018	59		 pop	 ecx
$LN1@scalar@3:
  00019	8b c6		 mov	 eax, esi
  0001b	5e		 pop	 esi
  0001c	5d		 pop	 ebp
  0001d	c2 04 00	 ret	 4
??_GioHashString@@QAEPAXI@Z ENDP			; ioHashString::`scalar deleting destructor'
_TEXT	ENDS
PUBLIC	??_GWeaponInfo@@QAEPAXI@Z			; WeaponInfo::`scalar deleting destructor'
; Function compile flags: /Ogsp
;	COMDAT ??_GWeaponInfo@@QAEPAXI@Z
_TEXT	SEGMENT
___flags$ = 8						; size = 4
??_GWeaponInfo@@QAEPAXI@Z PROC				; WeaponInfo::`scalar deleting destructor', COMDAT
; _this$ = ecx
  00000	55		 push	 ebp
  00001	8b ec		 mov	 ebp, esp
  00003	56		 push	 esi
  00004	8b f1		 mov	 esi, ecx
  00006	8d 4e 08	 lea	 ecx, DWORD PTR [esi+8]
  00009	ff 15 00 00 00
	00		 call	 DWORD PTR __imp_??1ioHashString@@QAE@XZ
  0000f	f6 45 08 01	 test	 BYTE PTR ___flags$[ebp], 1
  00013	74 07		 je	 SHORT $LN1@scalar@4
  00015	56		 push	 esi
  00016	e8 00 00 00 00	 call	 ??3@YAXPAX@Z		; operator delete
  0001b	59		 pop	 ecx
$LN1@scalar@4:
  0001c	8b c6		 mov	 eax, esi
  0001e	5e		 pop	 esi
  0001f	5d		 pop	 ebp
  00020	c2 04 00	 ret	 4
??_GWeaponInfo@@QAEPAXI@Z ENDP				; WeaponInfo::`scalar deleting destructor'
_TEXT	ENDS
PUBLIC	??$move@AAUWeaponInfo@@@std@@YA$$QAUWeaponInfo@@AAU1@@Z ; std::move<WeaponInfo &>
; Function compile flags: /Ogsp
; File c:\program files (x86)\microsoft visual studio 10.0\vc\include\utility
;	COMDAT ??$move@AAUWeaponInfo@@@std@@YA$$QAUWeaponInfo@@AAU1@@Z
_TEXT	SEGMENT
__Arg$ = 8						; size = 4
??$move@AAUWeaponInfo@@@std@@YA$$QAUWeaponInfo@@AAU1@@Z PROC ; std::move<WeaponInfo &>, COMDAT

; 86   : 	{	// forward _Arg as movable

  00000	55		 push	 ebp
  00001	8b ec		 mov	 ebp, esp

; 87   : 	return ((typename tr1::_Remove_reference<_Ty>::_Type&&)_Arg);

  00003	8b 45 08	 mov	 eax, DWORD PTR __Arg$[ebp]

; 88   : 	}

  00006	5d		 pop	 ebp
  00007	c3		 ret	 0
??$move@AAUWeaponInfo@@@std@@YA$$QAUWeaponInfo@@AAU1@@Z ENDP ; std::move<WeaponInfo &>
_TEXT	ENDS
PUBLIC	??$move@AAUForceInfo@@@std@@YA$$QAUForceInfo@@AAU1@@Z ; std::move<ForceInfo &>
; Function compile flags: /Ogsp
;	COMDAT ??$move@AAUForceInfo@@@std@@YA$$QAUForceInfo@@AAU1@@Z
_TEXT	SEGMENT
__Arg$ = 8						; size = 4
??$move@AAUForceInfo@@@std@@YA$$QAUForceInfo@@AAU1@@Z PROC ; std::move<ForceInfo &>, COMDAT

; 86   : 	{	// forward _Arg as movable

  00000	55		 push	 ebp
  00001	8b ec		 mov	 ebp, esp

; 87   : 	return ((typename tr1::_Remove_reference<_Ty>::_Type&&)_Arg);

  00003	8b 45 08	 mov	 eax, DWORD PTR __Arg$[ebp]

; 88   : 	}

  00006	5d		 pop	 ebp
  00007	c3		 ret	 0
??$move@AAUForceInfo@@@std@@YA$$QAUForceInfo@@AAU1@@Z ENDP ; std::move<ForceInfo &>
_TEXT	ENDS
PUBLIC	??$_Construct@VioHashString@@ABV1@@std@@YAXPAVioHashString@@ABV1@@Z ; std::_Construct<ioHashString,ioHashString const &>
;	COMDAT xdata$x
xdata$x	SEGMENT
__unwindtable$??$_Construct@VioHashString@@ABV1@@std@@YAXPAVioHashString@@ABV1@@Z DD 0ffffffffH
	DD	FLAT:__unwindfunclet$??$_Construct@VioHashString@@ABV1@@std@@YAXPAVioHashString@@ABV1@@Z$0
__ehfuncinfo$??$_Construct@VioHashString@@ABV1@@std@@YAXPAVioHashString@@ABV1@@Z DD 019930522H
	DD	01H
	DD	FLAT:__unwindtable$??$_Construct@VioHashString@@ABV1@@std@@YAXPAVioHashString@@ABV1@@Z
	DD	2 DUP(00H)
	DD	2 DUP(00H)
	DD	00H
	DD	01H
; Function compile flags: /Ogsp
; File c:\program files (x86)\microsoft visual studio 10.0\vc\include\xmemory
xdata$x	ENDS
;	COMDAT ??$_Construct@VioHashString@@ABV1@@std@@YAXPAVioHashString@@ABV1@@Z
_TEXT	SEGMENT
$T537983 = -16						; size = 4
__$EHRec$ = -12						; size = 12
__Vptr$ = 8						; size = 4
__Ptr$ = 8						; size = 4
__Val$ = 12						; size = 4
??$_Construct@VioHashString@@ABV1@@std@@YAXPAVioHashString@@ABV1@@Z PROC ; std::_Construct<ioHashString,ioHashString const &>, COMDAT

; 46   : 	{	// construct object at _Ptr with value _Val

  00000	6a 04		 push	 4
  00002	b8 00 00 00 00	 mov	 eax, __ehhandler$??$_Construct@VioHashString@@ABV1@@std@@YAXPAVioHashString@@ABV1@@Z
  00007	e8 00 00 00 00	 call	 __EH_prolog3

; 47   : 	void _FARQ *_Vptr = _Ptr;

  0000c	8b 4d 08	 mov	 ecx, DWORD PTR __Ptr$[ebp]
  0000f	89 4d 08	 mov	 DWORD PTR __Vptr$[ebp], ecx

; 48   : 	::new (_Vptr) _Ty1(_STD forward<_Ty2>(_Val));

  00012	89 4d f0	 mov	 DWORD PTR $T537983[ebp], ecx
  00015	83 65 fc 00	 and	 DWORD PTR __$EHRec$[ebp+8], 0
  00019	85 c9		 test	 ecx, ecx
  0001b	74 09		 je	 SHORT $LN3@Construct@2
  0001d	ff 75 0c	 push	 DWORD PTR __Val$[ebp]
  00020	ff 15 00 00 00
	00		 call	 DWORD PTR __imp_??0ioHashString@@QAE@ABV0@@Z
$LN3@Construct@2:

; 49   : 	}

  00026	e8 00 00 00 00	 call	 __EH_epilog3
  0002b	c3		 ret	 0
_TEXT	ENDS
;	COMDAT text$x
text$x	SEGMENT
__unwindfunclet$??$_Construct@VioHashString@@ABV1@@std@@YAXPAVioHashString@@ABV1@@Z$0:
  00000	ff 75 08	 push	 DWORD PTR __Vptr$[ebp]
  00003	ff 75 f0	 push	 DWORD PTR $T537983[ebp]
  00006	e8 00 00 00 00	 call	 ??3@YAXPAX0@Z		; operator delete
  0000b	59		 pop	 ecx
  0000c	59		 pop	 ecx
  0000d	c3		 ret	 0
__ehhandler$??$_Construct@VioHashString@@ABV1@@std@@YAXPAVioHashString@@ABV1@@Z:
  0000e	8b 54 24 08	 mov	 edx, DWORD PTR [esp+8]
  00012	8d 42 0c	 lea	 eax, DWORD PTR [edx+12]
  00015	8b 4a ec	 mov	 ecx, DWORD PTR [edx-20]
  00018	33 c8		 xor	 ecx, eax
  0001a	e8 00 00 00 00	 call	 @__security_check_cookie@4
  0001f	b8 00 00 00 00	 mov	 eax, OFFSET __ehfuncinfo$??$_Construct@VioHashString@@ABV1@@std@@YAXPAVioHashString@@ABV1@@Z
  00024	e9 00 00 00 00	 jmp	 ___CxxFrameHandler3
text$x	ENDS
??$_Construct@VioHashString@@ABV1@@std@@YAXPAVioHashString@@ABV1@@Z ENDP ; std::_Construct<ioHashString,ioHashString const &>
PUBLIC	??$forward@AAUWeaponInfo@@@std@@YAAAUWeaponInfo@@AAU1@@Z ; std::forward<WeaponInfo &>
; Function compile flags: /Ogsp
; File c:\program files (x86)\microsoft visual studio 10.0\vc\include\utility
;	COMDAT ??$forward@AAUWeaponInfo@@@std@@YAAAUWeaponInfo@@AAU1@@Z
_TEXT	SEGMENT
__Arg$ = 8						; size = 4
??$forward@AAUWeaponInfo@@@std@@YAAAUWeaponInfo@@AAU1@@Z PROC ; std::forward<WeaponInfo &>, COMDAT

; 78   : 	{	// forward _Arg, given explicitly specified type parameter

  00000	55		 push	 ebp
  00001	8b ec		 mov	 ebp, esp

; 79   : 	return ((_Ty&&)_Arg);

  00003	8b 45 08	 mov	 eax, DWORD PTR __Arg$[ebp]

; 80   : 	}

  00006	5d		 pop	 ebp
  00007	c3		 ret	 0
??$forward@AAUWeaponInfo@@@std@@YAAAUWeaponInfo@@AAU1@@Z ENDP ; std::forward<WeaponInfo &>
_TEXT	ENDS
PUBLIC	??$forward@AAUForceInfo@@@std@@YAAAUForceInfo@@AAU1@@Z ; std::forward<ForceInfo &>
; Function compile flags: /Ogsp
;	COMDAT ??$forward@AAUForceInfo@@@std@@YAAAUForceInfo@@AAU1@@Z
_TEXT	SEGMENT
__Arg$ = 8						; size = 4
??$forward@AAUForceInfo@@@std@@YAAAUForceInfo@@AAU1@@Z PROC ; std::forward<ForceInfo &>, COMDAT

; 78   : 	{	// forward _Arg, given explicitly specified type parameter

  00000	55		 push	 ebp
  00001	8b ec		 mov	 ebp, esp

; 79   : 	return ((_Ty&&)_Arg);

  00003	8b 45 08	 mov	 eax, DWORD PTR __Arg$[ebp]

; 80   : 	}

  00006	5d		 pop	 ebp
  00007	c3		 ret	 0
??$forward@AAUForceInfo@@@std@@YAAAUForceInfo@@AAU1@@Z ENDP ; std::forward<ForceInfo &>
_TEXT	ENDS
PUBLIC	??$construct@AAUForceInfo@@@?$allocator@UForceInfo@@@std@@QAEXPAUForceInfo@@AAU2@@Z ; std::allocator<ForceInfo>::construct<ForceInfo &>
; Function compile flags: /Ogsp
; File c:\program files (x86)\microsoft visual studio 10.0\vc\include\xmemory
;	COMDAT ??$construct@AAUForceInfo@@@?$allocator@UForceInfo@@@std@@QAEXPAUForceInfo@@AAU2@@Z
_TEXT	SEGMENT
__Ptr$ = 8						; size = 4
__Val$ = 12						; size = 4
??$construct@AAUForceInfo@@@?$allocator@UForceInfo@@@std@@QAEXPAUForceInfo@@AAU2@@Z PROC ; std::allocator<ForceInfo>::construct<ForceInfo &>, COMDAT
; _this$ = ecx

; 206  : 		void construct(pointer _Ptr, _Other&& _Val)

  00000	55		 push	 ebp
  00001	8b ec		 mov	 ebp, esp
  00003	57		 push	 edi

; 207  : 		{	// construct object at _Ptr with value _Val
; 208  : 		::new ((void _FARQ *)_Ptr) _Ty(_STD forward<_Other>(_Val));

  00004	8b 7d 08	 mov	 edi, DWORD PTR __Ptr$[ebp]
  00007	85 ff		 test	 edi, edi
  00009	74 08		 je	 SHORT $LN3@construct
  0000b	56		 push	 esi
  0000c	8b 75 0c	 mov	 esi, DWORD PTR __Val$[ebp]
  0000f	a5		 movsd
  00010	a5		 movsd
  00011	a5		 movsd
  00012	5e		 pop	 esi
$LN3@construct:
  00013	5f		 pop	 edi

; 209  : 		}

  00014	5d		 pop	 ebp
  00015	c2 08 00	 ret	 8
??$construct@AAUForceInfo@@@?$allocator@UForceInfo@@@std@@QAEXPAUForceInfo@@AAU2@@Z ENDP ; std::allocator<ForceInfo>::construct<ForceInfo &>
_TEXT	ENDS
PUBLIC	??0WeaponInfo@@QAE@ABU0@@Z			; WeaponInfo::WeaponInfo
; Function compile flags: /Ogsp
;	COMDAT ??0WeaponInfo@@QAE@ABU0@@Z
_TEXT	SEGMENT
___that$ = 8						; size = 4
??0WeaponInfo@@QAE@ABU0@@Z PROC				; WeaponInfo::WeaponInfo, COMDAT
; _this$ = ecx
  00000	55		 push	 ebp
  00001	8b ec		 mov	 ebp, esp
  00003	56		 push	 esi
  00004	57		 push	 edi
  00005	8b 7d 08	 mov	 edi, DWORD PTR ___that$[ebp]
  00008	8b 07		 mov	 eax, DWORD PTR [edi]
  0000a	8b f1		 mov	 esi, ecx
  0000c	89 06		 mov	 DWORD PTR [esi], eax
  0000e	8b 47 04	 mov	 eax, DWORD PTR [edi+4]
  00011	89 46 04	 mov	 DWORD PTR [esi+4], eax
  00014	8d 47 08	 lea	 eax, DWORD PTR [edi+8]
  00017	50		 push	 eax
  00018	8d 4e 08	 lea	 ecx, DWORD PTR [esi+8]
  0001b	ff 15 00 00 00
	00		 call	 DWORD PTR __imp_??0ioHashString@@QAE@ABV0@@Z
  00021	8b 47 18	 mov	 eax, DWORD PTR [edi+24]
  00024	89 46 18	 mov	 DWORD PTR [esi+24], eax
  00027	8b 47 1c	 mov	 eax, DWORD PTR [edi+28]
  0002a	89 46 1c	 mov	 DWORD PTR [esi+28], eax
  0002d	8a 47 20	 mov	 al, BYTE PTR [edi+32]
  00030	88 46 20	 mov	 BYTE PTR [esi+32], al
  00033	8b 47 24	 mov	 eax, DWORD PTR [edi+36]
  00036	89 46 24	 mov	 DWORD PTR [esi+36], eax
  00039	5f		 pop	 edi
  0003a	8b c6		 mov	 eax, esi
  0003c	5e		 pop	 esi
  0003d	5d		 pop	 ebp
  0003e	c2 04 00	 ret	 4
??0WeaponInfo@@QAE@ABU0@@Z ENDP				; WeaponInfo::WeaponInfo
_TEXT	ENDS
PUBLIC	__real@41f0000000000000
PUBLIC	__real@4f800000
PUBLIC	?SetFireState@ioFireAndBuffCheckSkill@@IAEXPAVioBaseChar@@@Z ; ioFireAndBuffCheckSkill::SetFireState
EXTRN	__imp_?GetAnimationFullTime@ioEntityGroup@@QAEMH@Z:PROC
EXTRN	__imp_?GetAnimationIdx@ioEntityGroup@@QAEHABVioHashString@@@Z:PROC
EXTRN	__ftol2:PROC
;	COMDAT __real@41f0000000000000
; File d:\lost saga for developer\youtube\tutorial\source\src\lsclient\iogameentity.h
CONST	SEGMENT
__real@41f0000000000000 DQ 041f0000000000000r	; 4.29497e+009
CONST	ENDS
;	COMDAT __real@4f800000
CONST	SEGMENT
__real@4f800000 DD 04f800000r			; 4.29497e+009
; Function compile flags: /Ogsp
; File d:\lost saga for developer\youtube\tutorial\source\src\lsclient\iofireandbuffcheckskill.cpp
CONST	ENDS
;	COMDAT ?SetFireState@ioFireAndBuffCheckSkill@@IAEXPAVioBaseChar@@@Z
_TEXT	SEGMENT
tv150 = -8						; size = 8
tv137 = -8						; size = 8
tv214 = 8						; size = 4
tv209 = 8						; size = 4
_iAniID$532089 = 8					; size = 4
_pChar$ = 8						; size = 4
?SetFireState@ioFireAndBuffCheckSkill@@IAEXPAVioBaseChar@@@Z PROC ; ioFireAndBuffCheckSkill::SetFireState, COMDAT
; _this$ = ecx

; 268  : {

  00000	55		 push	 ebp
  00001	8b ec		 mov	 ebp, esp
  00003	51		 push	 ecx
  00004	51		 push	 ecx
  00005	56		 push	 esi
  00006	57		 push	 edi

; 269  : 	if ( !pChar )

  00007	8b 7d 08	 mov	 edi, DWORD PTR _pChar$[ebp]
  0000a	8b f1		 mov	 esi, ecx
  0000c	85 ff		 test	 edi, edi
  0000e	0f 84 b5 00 00
	00		 je	 $LN2@SetFireSta

; 270  : 		return;
; 271  : 
; 272  : 	m_SkillState = SS_FIRE;
; 273  : 	AttackSkillFire( pChar );

  00014	8b 06		 mov	 eax, DWORD PTR [esi]
  00016	57		 push	 edi
  00017	c7 86 e4 10 00
	00 01 00 00 00	 mov	 DWORD PTR [esi+4324], 1
  00021	ff 90 8c 01 00
	00		 call	 DWORD PTR [eax+396]

; 274  : 
; 275  : 	if ( m_bUsingTargetCheckTime )

  00027	80 be 58 11 00
	00 00		 cmp	 BYTE PTR [esi+4440], 0
  0002e	0f 84 95 00 00
	00		 je	 $LN2@SetFireSta

; 276  : 	{
; 277  : 		ioEntityGroup *pGrp = pChar->GetGroup();
; 278  : 		int iAniID = pGrp->GetAnimationIdx( GetAttribute().m_AttackAnimation );

  00034	8b 06		 mov	 eax, DWORD PTR [esi]
  00036	53		 push	 ebx
  00037	8b 5f 04	 mov	 ebx, DWORD PTR [edi+4]
  0003a	8b ce		 mov	 ecx, esi
  0003c	ff 90 a4 01 00
	00		 call	 DWORD PTR [eax+420]
  00042	50		 push	 eax
  00043	8b cb		 mov	 ecx, ebx
  00045	ff 15 00 00 00
	00		 call	 DWORD PTR __imp_?GetAnimationIdx@ioEntityGroup@@QAEHABVioHashString@@@Z
  0004b	89 45 08	 mov	 DWORD PTR _iAniID$532089[ebp], eax

; 279  : 		if( iAniID == -1 )

  0004e	83 f8 ff	 cmp	 eax, -1
  00051	74 75		 je	 SHORT $LN8@SetFireSta

; 280  : 			return;
; 281  : 		m_dwTargetCheckTime = FRAMEGETTIME();

  00053	ff 15 00 00 00
	00		 call	 DWORD PTR __imp_?GetSingleton@ioFrameTimer@@SAAAV1@XZ
  00059	8b c8		 mov	 ecx, eax
  0005b	ff 15 00 00 00
	00		 call	 DWORD PTR __imp_?GetLoopSec@ioFrameTimer@@QBEKXZ

; 282  : 		m_dwTargetCheckTime += GetAttribute().m_dwPreDelay + pGrp->GetAnimationFullTime( iAniID ) * GetAttackTimeRate();

  00061	ff 75 08	 push	 DWORD PTR _iAniID$532089[ebp]
  00064	8b cb		 mov	 ecx, ebx
  00066	89 86 54 11 00
	00		 mov	 DWORD PTR [esi+4436], eax
  0006c	ff 15 00 00 00
	00		 call	 DWORD PTR __imp_?GetAnimationFullTime@ioEntityGroup@@QAEMH@Z
  00072	dd 5d f8	 fstp	 QWORD PTR tv150[ebp]
  00075	8b 06		 mov	 eax, DWORD PTR [esi]
  00077	8b ce		 mov	 ecx, esi
  00079	ff 90 90 01 00
	00		 call	 DWORD PTR [eax+400]
  0007f	dc 4d f8	 fmul	 QWORD PTR tv150[ebp]
  00082	8b 06		 mov	 eax, DWORD PTR [esi]
  00084	8b ce		 mov	 ecx, esi
  00086	dd 5d f8	 fstp	 QWORD PTR tv137[ebp]
  00089	ff 90 a4 01 00
	00		 call	 DWORD PTR [eax+420]
  0008f	8b 40 48	 mov	 eax, DWORD PTR [eax+72]
  00092	89 45 08	 mov	 DWORD PTR tv214[ebp], eax
  00095	db 45 08	 fild	 DWORD PTR tv214[ebp]
  00098	85 c0		 test	 eax, eax
  0009a	79 06		 jns	 SHORT $LN9@SetFireSta
  0009c	d8 05 00 00 00
	00		 fadd	 DWORD PTR __real@4f800000
$LN9@SetFireSta:
  000a2	8b 86 54 11 00
	00		 mov	 eax, DWORD PTR [esi+4436]
  000a8	dc 45 f8	 fadd	 QWORD PTR tv137[ebp]
  000ab	db 86 54 11 00
	00		 fild	 DWORD PTR [esi+4436]
  000b1	85 c0		 test	 eax, eax
  000b3	79 06		 jns	 SHORT $LN10@SetFireSta
  000b5	dc 05 00 00 00
	00		 fadd	 QWORD PTR __real@41f0000000000000
$LN10@SetFireSta:
  000bb	de c1		 faddp	 ST(1), ST(0)
  000bd	e8 00 00 00 00	 call	 __ftol2
  000c2	89 86 54 11 00
	00		 mov	 DWORD PTR [esi+4436], eax
$LN8@SetFireSta:
  000c8	5b		 pop	 ebx
$LN2@SetFireSta:
  000c9	5f		 pop	 edi
  000ca	5e		 pop	 esi

; 283  : 	}
; 284  : }

  000cb	c9		 leave
  000cc	c2 04 00	 ret	 4
?SetFireState@ioFireAndBuffCheckSkill@@IAEXPAVioBaseChar@@@Z ENDP ; ioFireAndBuffCheckSkill::SetFireState
_TEXT	ENDS
PUBLIC	__$ArrayPad$
PUBLIC	?SetEndState@ioFireAndBuffCheckSkill@@IAEXPAVioBaseChar@@_N@Z ; ioFireAndBuffCheckSkill::SetEndState
EXTRN	??1SP2Packet@@UAE@XZ:PROC			; SP2Packet::~SP2Packet
EXTRN	?SendToAllPlayingUser@P2PNetwork@@YAXAAVSP2Packet@@PAVioBaseChar@@@Z:PROC ; P2PNetwork::SendToAllPlayingUser
EXTRN	??6SP2Packet@@QAEAAV0@E@Z:PROC			; SP2Packet::operator<<
EXTRN	??6SP2Packet@@QAEAAV0@ABVioHashString@@@Z:PROC	; SP2Packet::operator<<
EXTRN	??0SP2Packet@@QAE@K@Z:PROC			; SP2Packet::SP2Packet
EXTRN	___security_cookie:DWORD
EXTRN	__chkstk:PROC
;	COMDAT xdata$x
; File d:\lost saga for developer\youtube\tutorial\source\src\lsclient\ioskill.h
xdata$x	SEGMENT
__unwindtable$?SetEndState@ioFireAndBuffCheckSkill@@IAEXPAVioBaseChar@@_N@Z DD 0ffffffffH
	DD	FLAT:__unwindfunclet$?SetEndState@ioFireAndBuffCheckSkill@@IAEXPAVioBaseChar@@_N@Z$0
__ehfuncinfo$?SetEndState@ioFireAndBuffCheckSkill@@IAEXPAVioBaseChar@@_N@Z DD 019930522H
	DD	01H
	DD	FLAT:__unwindtable$?SetEndState@ioFireAndBuffCheckSkill@@IAEXPAVioBaseChar@@_N@Z
	DD	2 DUP(00H)
	DD	2 DUP(00H)
	DD	00H
	DD	01H
; Function compile flags: /Ogsp
; File d:\lost saga for developer\youtube\tutorial\source\src\lsclient\iofireandbuffcheckskill.cpp
xdata$x	ENDS
;	COMDAT ?SetEndState@ioFireAndBuffCheckSkill@@IAEXPAVioBaseChar@@_N@Z
_TEXT	SEGMENT
_kPacket$532097 = -32808				; size = 32792
__$ArrayPad$ = -16					; size = 4
__$EHRec$ = -12						; size = 12
_pChar$ = 8						; size = 4
_bSend$ = 12						; size = 1
?SetEndState@ioFireAndBuffCheckSkill@@IAEXPAVioBaseChar@@_N@Z PROC ; ioFireAndBuffCheckSkill::SetEndState, COMDAT
; _this$ = ecx

; 287  : {

  00000	55		 push	 ebp
  00001	8b ec		 mov	 ebp, esp
  00003	6a ff		 push	 -1
  00005	68 00 00 00 00	 push	 __ehhandler$?SetEndState@ioFireAndBuffCheckSkill@@IAEXPAVioBaseChar@@_N@Z
  0000a	64 a1 00 00 00
	00		 mov	 eax, DWORD PTR fs:0
  00010	50		 push	 eax
  00011	b8 1c 80 00 00	 mov	 eax, 32796		; 0000801cH
  00016	e8 00 00 00 00	 call	 __chkstk
  0001b	a1 00 00 00 00	 mov	 eax, DWORD PTR ___security_cookie
  00020	33 c5		 xor	 eax, ebp
  00022	89 45 f0	 mov	 DWORD PTR __$ArrayPad$[ebp], eax
  00025	56		 push	 esi
  00026	57		 push	 edi
  00027	50		 push	 eax
  00028	8d 45 f4	 lea	 eax, DWORD PTR __$EHRec$[ebp]
  0002b	64 a3 00 00 00
	00		 mov	 DWORD PTR fs:0, eax
  00031	8b 7d 08	 mov	 edi, DWORD PTR _pChar$[ebp]
  00034	8b f1		 mov	 esi, ecx

; 288  : 	m_SkillState = SS_END;
; 289  : 	m_dwMotionEndTime = 0;

  00036	83 a6 d8 02 00
	00 00		 and	 DWORD PTR [esi+728], 0

; 290  : 	if ( bSend && pChar->IsNeedSendNetwork() )

  0003d	80 7d 0c 00	 cmp	 BYTE PTR _bSend$[ebp], 0
  00041	c7 86 e4 10 00
	00 04 00 00 00	 mov	 DWORD PTR [esi+4324], 4
  0004b	74 6f		 je	 SHORT $LN1@SetEndStat
  0004d	8b 07		 mov	 eax, DWORD PTR [edi]
  0004f	8b cf		 mov	 ecx, edi
  00051	ff 90 04 01 00
	00		 call	 DWORD PTR [eax+260]
  00057	84 c0		 test	 al, al
  00059	74 61		 je	 SHORT $LN1@SetEndStat

; 291  : 	{
; 292  : 		SP2Packet kPacket( CUPK_SKILL_EXTRA_INFO );

  0005b	68 39 41 00 00	 push	 16697			; 00004139H
  00060	8d 8d d8 7f ff
	ff		 lea	 ecx, DWORD PTR _kPacket$532097[ebp]
  00066	e8 00 00 00 00	 call	 ??0SP2Packet@@QAE@K@Z	; SP2Packet::SP2Packet
  0006b	83 65 fc 00	 and	 DWORD PTR __$EHRec$[ebp+8], 0

; 293  : 		kPacket << pChar->GetCharName();

  0006f	81 c7 d4 02 00
	00		 add	 edi, 724		; 000002d4H
  00075	57		 push	 edi
  00076	8d 8d d8 7f ff
	ff		 lea	 ecx, DWORD PTR _kPacket$532097[ebp]
  0007c	e8 00 00 00 00	 call	 ??6SP2Packet@@QAEAAV0@ABVioHashString@@@Z ; SP2Packet::operator<<

; 294  : 		kPacket << GetName();

  00081	83 c6 24	 add	 esi, 36			; 00000024H
  00084	56		 push	 esi
  00085	8d 8d d8 7f ff
	ff		 lea	 ecx, DWORD PTR _kPacket$532097[ebp]
  0008b	e8 00 00 00 00	 call	 ??6SP2Packet@@QAEAAV0@ABVioHashString@@@Z ; SP2Packet::operator<<

; 295  : 		kPacket << static_cast<BYTE>(SS_END);

  00090	6a 04		 push	 4
  00092	8d 8d d8 7f ff
	ff		 lea	 ecx, DWORD PTR _kPacket$532097[ebp]
  00098	e8 00 00 00 00	 call	 ??6SP2Packet@@QAEAAV0@E@Z ; SP2Packet::operator<<

; 296  : 		P2PNetwork::SendToAllPlayingUser( kPacket );

  0009d	8d 85 d8 7f ff
	ff		 lea	 eax, DWORD PTR _kPacket$532097[ebp]
  000a3	6a 00		 push	 0
  000a5	50		 push	 eax
  000a6	e8 00 00 00 00	 call	 ?SendToAllPlayingUser@P2PNetwork@@YAXAAVSP2Packet@@PAVioBaseChar@@@Z ; P2PNetwork::SendToAllPlayingUser

; 297  : 	}

  000ab	83 4d fc ff	 or	 DWORD PTR __$EHRec$[ebp+8], -1
  000af	59		 pop	 ecx
  000b0	59		 pop	 ecx
  000b1	8d 8d d8 7f ff
	ff		 lea	 ecx, DWORD PTR _kPacket$532097[ebp]
  000b7	e8 00 00 00 00	 call	 ??1SP2Packet@@UAE@XZ	; SP2Packet::~SP2Packet
$LN1@SetEndStat:

; 298  : }

  000bc	8b 4d f4	 mov	 ecx, DWORD PTR __$EHRec$[ebp]
  000bf	64 89 0d 00 00
	00 00		 mov	 DWORD PTR fs:0, ecx
  000c6	59		 pop	 ecx
  000c7	5f		 pop	 edi
  000c8	5e		 pop	 esi
  000c9	8b 4d f0	 mov	 ecx, DWORD PTR __$ArrayPad$[ebp]
  000cc	33 cd		 xor	 ecx, ebp
  000ce	e8 00 00 00 00	 call	 @__security_check_cookie@4
  000d3	c9		 leave
  000d4	c2 08 00	 ret	 8
_TEXT	ENDS
;	COMDAT text$x
text$x	SEGMENT
__unwindfunclet$?SetEndState@ioFireAndBuffCheckSkill@@IAEXPAVioBaseChar@@_N@Z$0:
  00000	8d 8d d8 7f ff
	ff		 lea	 ecx, DWORD PTR _kPacket$532097[ebp]
  00006	e9 00 00 00 00	 jmp	 ??1SP2Packet@@UAE@XZ	; SP2Packet::~SP2Packet
__ehhandler$?SetEndState@ioFireAndBuffCheckSkill@@IAEXPAVioBaseChar@@_N@Z:
  0000b	8b 54 24 08	 mov	 edx, DWORD PTR [esp+8]
  0000f	8d 42 0c	 lea	 eax, DWORD PTR [edx+12]
  00012	8b 8a d8 7f ff
	ff		 mov	 ecx, DWORD PTR [edx-32808]
  00018	33 c8		 xor	 ecx, eax
  0001a	e8 00 00 00 00	 call	 @__security_check_cookie@4
  0001f	8b 4a fc	 mov	 ecx, DWORD PTR [edx-4]
  00022	33 c8		 xor	 ecx, eax
  00024	e8 00 00 00 00	 call	 @__security_check_cookie@4
  00029	b8 00 00 00 00	 mov	 eax, OFFSET __ehfuncinfo$?SetEndState@ioFireAndBuffCheckSkill@@IAEXPAVioBaseChar@@_N@Z
  0002e	e9 00 00 00 00	 jmp	 ___CxxFrameHandler3
text$x	ENDS
?SetEndState@ioFireAndBuffCheckSkill@@IAEXPAVioBaseChar@@_N@Z ENDP ; ioFireAndBuffCheckSkill::SetEndState
PUBLIC	_pOwner$GSCopy$
PUBLIC	?FireTarget@ioFireAndBuffCheckSkill@@IAEXPAVioBaseChar@@@Z ; ioFireAndBuffCheckSkill::FireTarget
EXTRN	?ExtendFireExplicit@ioBaseChar@@QAEPAVioWeapon@@ABUFireTime@@ABUD3DXVECTOR3@@1ABVioHashString@@@Z:PROC ; ioBaseChar::ExtendFireExplicit
EXTRN	_D3DXVec3Normalize@8:PROC
EXTRN	?GetMidPositionByRate@ioGameEntity@@QBE?AUD3DXVECTOR3@@M@Z:PROC ; ioGameEntity::GetMidPositionByRate
EXTRN	?IncreaseWeaponIndexBase@ioBaseChar@@QAEKXZ:PROC ; ioBaseChar::IncreaseWeaponIndexBase
EXTRN	?GetBaseChar@ioBaseChar@@QAEPAV1@ABVioHashString@@@Z:PROC ; ioBaseChar::GetBaseChar
EXTRN	__imp_?IsEmpty@ioHashString@@QBE_NXZ:PROC
EXTRN	__EH_epilog3_GS:PROC
EXTRN	__EH_prolog3_GS:PROC
;	COMDAT xdata$x
; File d:\lost saga for developer\youtube\tutorial\source\src\lsclient\ioitem.h
xdata$x	SEGMENT
__unwindtable$?FireTarget@ioFireAndBuffCheckSkill@@IAEXPAVioBaseChar@@@Z DD 0ffffffffH
	DD	FLAT:__unwindfunclet$?FireTarget@ioFireAndBuffCheckSkill@@IAEXPAVioBaseChar@@@Z$0
	DD	00H
	DD	FLAT:__unwindfunclet$?FireTarget@ioFireAndBuffCheckSkill@@IAEXPAVioBaseChar@@@Z$1
__ehfuncinfo$?FireTarget@ioFireAndBuffCheckSkill@@IAEXPAVioBaseChar@@@Z DD 019930522H
	DD	02H
	DD	FLAT:__unwindtable$?FireTarget@ioFireAndBuffCheckSkill@@IAEXPAVioBaseChar@@@Z
	DD	2 DUP(00H)
	DD	2 DUP(00H)
	DD	00H
	DD	01H
; Function compile flags: /Ogsp
; File d:\lost saga for developer\youtube\tutorial\source\src\lsclient\iofireandbuffcheckskill.cpp
xdata$x	ENDS
;	COMDAT ?FireTarget@ioFireAndBuffCheckSkill@@IAEXPAVioBaseChar@@@Z
_TEXT	SEGMENT
_kFireTime$532370 = -160				; size = 88
_szItemName$532375 = -72				; size = 16
_pTarget$ = -56						; size = 4
_pOwner$GSCopy$ = -52					; size = 4
_i$532365 = -48						; size = 4
tv615 = -44						; size = 4
tv611 = -44						; size = 4
tv607 = -44						; size = 4
_vPos$532371 = -40					; size = 12
_vDir$532373 = -28					; size = 12
__$EHRec$ = -12						; size = 12
_pOwner$ = 8						; size = 4
?FireTarget@ioFireAndBuffCheckSkill@@IAEXPAVioBaseChar@@@Z PROC ; ioFireAndBuffCheckSkill::FireTarget, COMDAT
; _this$ = ecx

; 488  : {

  00000	68 94 00 00 00	 push	 148			; 00000094H
  00005	b8 00 00 00 00	 mov	 eax, __ehhandler$?FireTarget@ioFireAndBuffCheckSkill@@IAEXPAVioBaseChar@@@Z
  0000a	e8 00 00 00 00	 call	 __EH_prolog3_GS
  0000f	8b 5d 08	 mov	 ebx, DWORD PTR _pOwner$[ebp]
  00012	8b f1		 mov	 esi, ecx

; 489  : 	if ( m_szTargetName.IsEmpty() )

  00014	8d be 74 11 00
	00		 lea	 edi, DWORD PTR [esi+4468]
  0001a	8b cf		 mov	 ecx, edi

; 521  : 		pOwner->ExtendFireExplicit( kFireTime, vPos, vDir, szItemName );

  0001c	89 5d cc	 mov	 DWORD PTR _pOwner$GSCopy$[ebp], ebx
  0001f	ff 15 00 00 00
	00		 call	 DWORD PTR __imp_?IsEmpty@ioHashString@@QBE_NXZ
  00025	84 c0		 test	 al, al
  00027	0f 85 06 02 00
	00		 jne	 $LN8@FireTarget

; 490  : 		return;
; 491  : 
; 492  : 	ioBaseChar *pTarget = pOwner->GetBaseChar( m_szTargetName );

  0002d	57		 push	 edi
  0002e	8b cb		 mov	 ecx, ebx
  00030	e8 00 00 00 00	 call	 ?GetBaseChar@ioBaseChar@@QAEPAV1@ABVioHashString@@@Z ; ioBaseChar::GetBaseChar
  00035	89 45 c8	 mov	 DWORD PTR _pTarget$[ebp], eax

; 493  : 	if ( !pTarget )

  00038	85 c0		 test	 eax, eax
  0003a	0f 84 f3 01 00
	00		 je	 $LN8@FireTarget

; 494  : 		return;
; 495  : 
; 496  : 	if ( m_iCurWeaponInfo.empty() )

  00040	8b 86 5c 11 00
	00		 mov	 eax, DWORD PTR [esi+4444]
  00046	3b 86 60 11 00
	00		 cmp	 eax, DWORD PTR [esi+4448]
  0004c	0f 84 e1 01 00
	00		 je	 $LN8@FireTarget

; 497  : 		return;
; 498  : 
; 499  : 	m_dwWeaponBaseIndex = pOwner->IncreaseWeaponIndexBase();

  00052	8b cb		 mov	 ecx, ebx
  00054	e8 00 00 00 00	 call	 ?IncreaseWeaponIndexBase@ioBaseChar@@QAEKXZ ; ioBaseChar::IncreaseWeaponIndexBase
  00059	89 46 78	 mov	 DWORD PTR [esi+120], eax

; 500  : 
; 501  : 	for ( int i=0 ; i< (int)m_iCurWeaponInfo.size() ; ++i )

  0005c	8b 86 60 11 00
	00		 mov	 eax, DWORD PTR [esi+4448]
  00062	2b 86 5c 11 00
	00		 sub	 eax, DWORD PTR [esi+4444]
  00068	6a 28		 push	 40			; 00000028H
  0006a	99		 cdq
  0006b	59		 pop	 ecx
  0006c	f7 f9		 idiv	 ecx
  0006e	83 65 d0 00	 and	 DWORD PTR _i$532365[ebp], 0
  00072	85 c0		 test	 eax, eax
  00074	0f 8e b3 01 00
	00		 jle	 $LN2@FireTarget

; 497  : 		return;
; 498  : 
; 499  : 	m_dwWeaponBaseIndex = pOwner->IncreaseWeaponIndexBase();

  0007a	33 db		 xor	 ebx, ebx
$LN4@FireTarget:

; 502  : 	{
; 503  : 		FireTime kFireTime;

  0007c	8d 8d 60 ff ff
	ff		 lea	 ecx, DWORD PTR _kFireTime$532370[ebp]
  00082	e8 00 00 00 00	 call	 ??0FireTime@@QAE@XZ	; FireTime::FireTime
  00087	83 65 fc 00	 and	 DWORD PTR __$EHRec$[ebp+8], 0

; 504  : 		kFireTime.dwStart = FRAMEGETTIME() + m_iCurWeaponInfo[i].m_dwCallTime;

  0008b	8b be 5c 11 00
	00		 mov	 edi, DWORD PTR [esi+4444]
  00091	ff 15 00 00 00
	00		 call	 DWORD PTR __imp_?GetSingleton@ioFrameTimer@@SAAAV1@XZ
  00097	8b c8		 mov	 ecx, eax
  00099	ff 15 00 00 00
	00		 call	 DWORD PTR __imp_?GetLoopSec@ioFrameTimer@@QBEKXZ
  0009f	03 44 1f 1c	 add	 eax, DWORD PTR [edi+ebx+28]
  000a3	89 85 60 ff ff
	ff		 mov	 DWORD PTR _kFireTime$532370[ebp], eax

; 505  : 		kFireTime.iAttributeIdx = m_iCurWeaponInfo[i].m_iWeaponIdx;

  000a9	8b 86 5c 11 00
	00		 mov	 eax, DWORD PTR [esi+4444]
  000af	03 c3		 add	 eax, ebx
  000b1	8b 08		 mov	 ecx, DWORD PTR [eax]
  000b3	89 8d 68 ff ff
	ff		 mov	 DWORD PTR _kFireTime$532370[ebp+8], ecx

; 506  : 		kFireTime.iResistanceIdx = m_iCurWeaponInfo[i].m_iResistanceIdx;

  000b9	8b 48 04	 mov	 ecx, DWORD PTR [eax+4]

; 507  : 		kFireTime.szWoundedAni  = m_iCurWeaponInfo[i].m_WoundedAnimation;

  000bc	83 c0 08	 add	 eax, 8
  000bf	89 8d 6c ff ff
	ff		 mov	 DWORD PTR _kFireTime$532370[ebp+12], ecx
  000c5	50		 push	 eax
  000c6	8d 8d 74 ff ff
	ff		 lea	 ecx, DWORD PTR _kFireTime$532370[ebp+20]
  000cc	ff 15 00 00 00
	00		 call	 DWORD PTR __imp_??4ioHashString@@QAEAAV0@ABV0@@Z

; 508  : 		kFireTime.dwWoundedAniDuration = m_iCurWeaponInfo[i].m_dwWoundedDuration;

  000d2	8b 86 5c 11 00
	00		 mov	 eax, DWORD PTR [esi+4444]
  000d8	8b 4c 18 18	 mov	 ecx, DWORD PTR [eax+ebx+24]
  000dc	89 4d 84	 mov	 DWORD PTR _kFireTime$532370[ebp+36], ecx

; 509  : 		kFireTime.bLoopWoundedAni = m_iCurWeaponInfo[i].m_bWoundedLoopAni;

  000df	8a 44 18 20	 mov	 al, BYTE PTR [eax+ebx+32]

; 510  : 		kFireTime.dwWeaponIdx = ++m_dwWeaponBaseIndex;

  000e3	ff 46 78	 inc	 DWORD PTR [esi+120]
  000e6	88 85 70 ff ff
	ff		 mov	 BYTE PTR _kFireTime$532370[ebp+16], al
  000ec	8b 46 78	 mov	 eax, DWORD PTR [esi+120]
  000ef	89 45 88	 mov	 DWORD PTR _kFireTime$532370[ebp+40], eax

; 511  : 		kFireTime.eFireTimeType = FTT_SKILL_ATTACK;

  000f2	c7 45 a0 04 00
	00 00		 mov	 DWORD PTR _kFireTime$532370[ebp+64], 4

; 512  : 
; 513  : 		D3DXVECTOR3 vPos = pOwner->GetMidPositionByRate();

  000f9	b8 05 00 00 00	 mov	 eax, 5
  000fe	8b c8		 mov	 ecx, eax
  00100	b8 0a 00 00 00	 mov	 eax, 10			; 0000000aH
  00105	89 4d d4	 mov	 DWORD PTR tv615[ebp], ecx
  00108	db 45 d4	 fild	 DWORD PTR tv615[ebp]
  0010b	85 c9		 test	 ecx, ecx
  0010d	79 06		 jns	 SHORT $LN46@FireTarget
  0010f	d8 05 00 00 00
	00		 fadd	 DWORD PTR __real@4f800000
$LN46@FireTarget:
  00115	89 45 d4	 mov	 DWORD PTR tv611[ebp], eax
  00118	db 45 d4	 fild	 DWORD PTR tv611[ebp]
  0011b	85 c0		 test	 eax, eax
  0011d	79 06		 jns	 SHORT $LN47@FireTarget
  0011f	d8 05 00 00 00
	00		 fadd	 DWORD PTR __real@4f800000
$LN47@FireTarget:
  00125	de f9		 fdivp	 ST(1), ST(0)
  00127	8b 7d cc	 mov	 edi, DWORD PTR _pOwner$GSCopy$[ebp]
  0012a	51		 push	 ecx
  0012b	8d 45 d8	 lea	 eax, DWORD PTR _vPos$532371[ebp]
  0012e	8b cf		 mov	 ecx, edi
  00130	d9 5d d4	 fstp	 DWORD PTR tv607[ebp]
  00133	d9 45 d4	 fld	 DWORD PTR tv607[ebp]
  00136	d9 1c 24	 fstp	 DWORD PTR [esp]
  00139	50		 push	 eax
  0013a	e8 00 00 00 00	 call	 ?GetMidPositionByRate@ioGameEntity@@QBE?AUD3DXVECTOR3@@M@Z ; ioGameEntity::GetMidPositionByRate

; 514  : 
; 515  : 		D3DXVECTOR3 vDir = pTarget->GetWorldPosition() - pOwner->GetWorldPosition();

  0013f	8b 07		 mov	 eax, DWORD PTR [edi]
  00141	8b cf		 mov	 ecx, edi
  00143	ff 50 70	 call	 DWORD PTR [eax+112]
  00146	8b 4d c8	 mov	 ecx, DWORD PTR _pTarget$[ebp]
  00149	8b f8		 mov	 edi, eax
  0014b	8b 01		 mov	 eax, DWORD PTR [ecx]
  0014d	ff 50 70	 call	 DWORD PTR [eax+112]
  00150	f3 0f 10 00	 movss	 xmm0, DWORD PTR [eax]
  00154	f3 0f 10 0f	 movss	 xmm1, DWORD PTR [edi]
  00158	f3 0f 10 57 04	 movss	 xmm2, DWORD PTR [edi+4]
  0015d	f3 0f 10 5f 08	 movss	 xmm3, DWORD PTR [edi+8]
  00162	0f 5a c9	 cvtps2pd xmm1, xmm1
  00165	0f 5a c0	 cvtps2pd xmm0, xmm0
  00168	f2 0f 5c c1	 subsd	 xmm0, xmm1
  0016c	f3 0f 10 48 04	 movss	 xmm1, DWORD PTR [eax+4]
  00171	0f 5a d2	 cvtps2pd xmm2, xmm2
  00174	0f 5a c9	 cvtps2pd xmm1, xmm1
  00177	f2 0f 5c ca	 subsd	 xmm1, xmm2
  0017b	f3 0f 10 50 08	 movss	 xmm2, DWORD PTR [eax+8]

; 516  : 		D3DXVec3Normalize( &vDir, &vDir );

  00180	8d 45 e4	 lea	 eax, DWORD PTR _vDir$532373[ebp]
  00183	0f 5a d2	 cvtps2pd xmm2, xmm2
  00186	0f 5a db	 cvtps2pd xmm3, xmm3
  00189	50		 push	 eax
  0018a	f2 0f 5c d3	 subsd	 xmm2, xmm3
  0018e	66 0f 5a c0	 cvtpd2ps xmm0, xmm0
  00192	66 0f 5a c9	 cvtpd2ps xmm1, xmm1
  00196	66 0f 5a d2	 cvtpd2ps xmm2, xmm2
  0019a	50		 push	 eax
  0019b	f3 0f 11 45 e4	 movss	 DWORD PTR _vDir$532373[ebp], xmm0
  001a0	f3 0f 11 4d e8	 movss	 DWORD PTR _vDir$532373[ebp+4], xmm1
  001a5	f3 0f 11 55 ec	 movss	 DWORD PTR _vDir$532373[ebp+8], xmm2
  001aa	e8 00 00 00 00	 call	 _D3DXVec3Normalize@8

; 517  : 
; 518  : 		ioHashString szItemName;

  001af	8d 4d b8	 lea	 ecx, DWORD PTR _szItemName$532375[ebp]
  001b2	ff 15 00 00 00
	00		 call	 DWORD PTR __imp_??0ioHashString@@QAE@XZ

; 519  : 		if ( GetOwnerItem() )

  001b8	8b 86 a4 02 00
	00		 mov	 eax, DWORD PTR [esi+676]
  001be	c6 45 fc 01	 mov	 BYTE PTR __$EHRec$[ebp+8], 1
  001c2	85 c0		 test	 eax, eax
  001c4	74 0f		 je	 SHORT $LN1@FireTarget

; 520  : 			szItemName = GetOwnerItem()->GetName();

  001c6	05 34 01 00 00	 add	 eax, 308		; 00000134H
  001cb	50		 push	 eax
  001cc	8d 4d b8	 lea	 ecx, DWORD PTR _szItemName$532375[ebp]
  001cf	ff 15 00 00 00
	00		 call	 DWORD PTR __imp_??4ioHashString@@QAEAAV0@ABV0@@Z
$LN1@FireTarget:

; 521  : 		pOwner->ExtendFireExplicit( kFireTime, vPos, vDir, szItemName );

  001d5	8b 4d cc	 mov	 ecx, DWORD PTR _pOwner$GSCopy$[ebp]
  001d8	8d 45 b8	 lea	 eax, DWORD PTR _szItemName$532375[ebp]
  001db	50		 push	 eax
  001dc	8d 45 e4	 lea	 eax, DWORD PTR _vDir$532373[ebp]
  001df	50		 push	 eax
  001e0	8d 45 d8	 lea	 eax, DWORD PTR _vPos$532371[ebp]
  001e3	50		 push	 eax
  001e4	8d 85 60 ff ff
	ff		 lea	 eax, DWORD PTR _kFireTime$532370[ebp]
  001ea	50		 push	 eax
  001eb	e8 00 00 00 00	 call	 ?ExtendFireExplicit@ioBaseChar@@QAEPAVioWeapon@@ABUFireTime@@ABUD3DXVECTOR3@@1ABVioHashString@@@Z ; ioBaseChar::ExtendFireExplicit

; 522  : 	}

  001f0	8d 4d b8	 lea	 ecx, DWORD PTR _szItemName$532375[ebp]
  001f3	c6 45 fc 00	 mov	 BYTE PTR __$EHRec$[ebp+8], 0
  001f7	ff 15 00 00 00
	00		 call	 DWORD PTR __imp_??1ioHashString@@QAE@XZ
  001fd	83 4d fc ff	 or	 DWORD PTR __$EHRec$[ebp+8], -1
  00201	8d 8d 60 ff ff
	ff		 lea	 ecx, DWORD PTR _kFireTime$532370[ebp]
  00207	e8 00 00 00 00	 call	 ??1FireTime@@QAE@XZ
  0020c	8b 86 60 11 00
	00		 mov	 eax, DWORD PTR [esi+4448]
  00212	2b 86 5c 11 00
	00		 sub	 eax, DWORD PTR [esi+4444]
  00218	6a 28		 push	 40			; 00000028H
  0021a	99		 cdq
  0021b	59		 pop	 ecx
  0021c	f7 f9		 idiv	 ecx
  0021e	ff 45 d0	 inc	 DWORD PTR _i$532365[ebp]
  00221	83 c3 28	 add	 ebx, 40			; 00000028H
  00224	39 45 d0	 cmp	 DWORD PTR _i$532365[ebp], eax
  00227	0f 8c 4f fe ff
	ff		 jl	 $LN4@FireTarget
$LN2@FireTarget:

; 523  : 
; 524  : 	m_iCurAttackCount++;

  0022d	ff 86 70 11 00
	00		 inc	 DWORD PTR [esi+4464]
$LN8@FireTarget:

; 525  : }

  00233	e8 00 00 00 00	 call	 __EH_epilog3_GS
  00238	c2 04 00	 ret	 4
_TEXT	ENDS
;	COMDAT text$x
text$x	SEGMENT
__unwindfunclet$?FireTarget@ioFireAndBuffCheckSkill@@IAEXPAVioBaseChar@@@Z$0:
  00000	8d 8d 60 ff ff
	ff		 lea	 ecx, DWORD PTR _kFireTime$532370[ebp]
  00006	e9 00 00 00 00	 jmp	 ??1FireTime@@QAE@XZ
__unwindfunclet$?FireTarget@ioFireAndBuffCheckSkill@@IAEXPAVioBaseChar@@@Z$1:
  0000b	8d 4d b8	 lea	 ecx, DWORD PTR _szItemName$532375[ebp]
  0000e	ff 25 00 00 00
	00		 jmp	 DWORD PTR __imp_??1ioHashString@@QAE@XZ
__ehhandler$?FireTarget@ioFireAndBuffCheckSkill@@IAEXPAVioBaseChar@@@Z:
  00014	8b 54 24 08	 mov	 edx, DWORD PTR [esp+8]
  00018	8d 42 0c	 lea	 eax, DWORD PTR [edx+12]
  0001b	8b 8a 5c ff ff
	ff		 mov	 ecx, DWORD PTR [edx-164]
  00021	33 c8		 xor	 ecx, eax
  00023	e8 00 00 00 00	 call	 @__security_check_cookie@4
  00028	8b 4a fc	 mov	 ecx, DWORD PTR [edx-4]
  0002b	33 c8		 xor	 ecx, eax
  0002d	e8 00 00 00 00	 call	 @__security_check_cookie@4
  00032	b8 00 00 00 00	 mov	 eax, OFFSET __ehfuncinfo$?FireTarget@ioFireAndBuffCheckSkill@@IAEXPAVioBaseChar@@@Z
  00037	e9 00 00 00 00	 jmp	 ___CxxFrameHandler3
text$x	ENDS
?FireTarget@ioFireAndBuffCheckSkill@@IAEXPAVioBaseChar@@@Z ENDP ; ioFireAndBuffCheckSkill::FireTarget
PUBLIC	_pChar$GSCopy$
PUBLIC	__$ArrayPad$
PUBLIC	?SetTargetRotation@ioFireAndBuffCheckSkill@@IAEXPAVioBaseChar@@@Z ; ioFireAndBuffCheckSkill::SetTargetRotation
EXTRN	?SetTargetRotToDir@ioBaseChar@@QAEXABUD3DXVECTOR3@@_N1@Z:PROC ; ioBaseChar::SetTargetRotToDir
; Function compile flags: /Ogsp
;	COMDAT ?SetTargetRotation@ioFireAndBuffCheckSkill@@IAEXPAVioBaseChar@@@Z
_TEXT	SEGMENT
$T532389 = -56						; size = 12
tv282 = -44						; size = 4
$T538145 = -44						; size = 4
_pChar$GSCopy$ = -40					; size = 4
tv278 = -36						; size = 4
tv274 = -36						; size = 4
$T538149 = -36						; size = 4
tv296 = -32						; size = 4
tv292 = -32						; size = 4
tv288 = -32						; size = 4
tv257 = -32						; size = 4
$T532387 = -28						; size = 12
$T532388 = -16						; size = 12
__$ArrayPad$ = -4					; size = 4
_pChar$ = 8						; size = 4
?SetTargetRotation@ioFireAndBuffCheckSkill@@IAEXPAVioBaseChar@@@Z PROC ; ioFireAndBuffCheckSkill::SetTargetRotation, COMDAT
; _this$ = ecx

; 528  : {

  00000	55		 push	 ebp
  00001	8b ec		 mov	 ebp, esp
  00003	83 ec 38	 sub	 esp, 56			; 00000038H
  00006	a1 00 00 00 00	 mov	 eax, DWORD PTR ___security_cookie
  0000b	33 c5		 xor	 eax, ebp
  0000d	89 45 fc	 mov	 DWORD PTR __$ArrayPad$[ebp], eax
  00010	8b 45 08	 mov	 eax, DWORD PTR _pChar$[ebp]
  00013	53		 push	 ebx
  00014	8b d9		 mov	 ebx, ecx

; 534  : 		return;
; 535  : 
; 536  : 	m_vTargetDir = pTarget->GetMidPositionByRate() - pChar->GetMidPositionByRate();

  00016	89 45 d8	 mov	 DWORD PTR _pChar$GSCopy$[ebp], eax
  00019	85 c0		 test	 eax, eax
  0001b	0f 84 41 01 00
	00		 je	 $LN2@SetTargetR

; 529  : 	if ( !pChar || m_szTargetName.IsEmpty() )

  00021	8d 8b 74 11 00
	00		 lea	 ecx, DWORD PTR [ebx+4468]
  00027	89 4d e0	 mov	 DWORD PTR tv257[ebp], ecx
  0002a	ff 15 00 00 00
	00		 call	 DWORD PTR __imp_?IsEmpty@ioHashString@@QBE_NXZ
  00030	84 c0		 test	 al, al
  00032	0f 85 2a 01 00
	00		 jne	 $LN2@SetTargetR

; 530  : 		return;
; 531  : 	m_vTargetDir = ioMath::VEC3_ZERO;
; 532  : 	ioBaseChar *pTarget = pChar->GetBaseChar( m_szTargetName );

  00038	8b 4d d8	 mov	 ecx, DWORD PTR _pChar$GSCopy$[ebp]
  0003b	56		 push	 esi
  0003c	8b 35 00 00 00
	00		 mov	 esi, DWORD PTR __imp_?VEC3_ZERO@ioMath@@2UD3DXVECTOR3@@A
  00042	57		 push	 edi
  00043	ff 75 e0	 push	 DWORD PTR tv257[ebp]
  00046	81 c3 a4 11 00
	00		 add	 ebx, 4516		; 000011a4H
  0004c	8b fb		 mov	 edi, ebx
  0004e	a5		 movsd
  0004f	a5		 movsd
  00050	a5		 movsd
  00051	e8 00 00 00 00	 call	 ?GetBaseChar@ioBaseChar@@QAEPAV1@ABVioHashString@@@Z ; ioBaseChar::GetBaseChar
  00056	8b f8		 mov	 edi, eax

; 533  : 	if ( !pTarget )

  00058	85 ff		 test	 edi, edi
  0005a	0f 84 00 01 00
	00		 je	 $LN18@SetTargetR

; 534  : 		return;
; 535  : 
; 536  : 	m_vTargetDir = pTarget->GetMidPositionByRate() - pChar->GetMidPositionByRate();

  00060	b8 05 00 00 00	 mov	 eax, 5
  00065	8b c8		 mov	 ecx, eax
  00067	b8 0a 00 00 00	 mov	 eax, 10			; 0000000aH
  0006c	8b d0		 mov	 edx, eax
  0006e	b8 05 00 00 00	 mov	 eax, 5
  00073	89 45 d4	 mov	 DWORD PTR $T538145[ebp], eax
  00076	b8 0a 00 00 00	 mov	 eax, 10			; 0000000aH
  0007b	89 4d e0	 mov	 DWORD PTR tv296[ebp], ecx
  0007e	db 45 e0	 fild	 DWORD PTR tv296[ebp]
  00081	89 45 dc	 mov	 DWORD PTR $T538149[ebp], eax
  00084	85 c9		 test	 ecx, ecx
  00086	79 06		 jns	 SHORT $LN20@SetTargetR
  00088	d8 05 00 00 00
	00		 fadd	 DWORD PTR __real@4f800000
$LN20@SetTargetR:
  0008e	89 55 e0	 mov	 DWORD PTR tv292[ebp], edx
  00091	db 45 e0	 fild	 DWORD PTR tv292[ebp]
  00094	85 d2		 test	 edx, edx
  00096	79 06		 jns	 SHORT $LN21@SetTargetR
  00098	d8 05 00 00 00
	00		 fadd	 DWORD PTR __real@4f800000
$LN21@SetTargetR:
  0009e	de f9		 fdivp	 ST(1), ST(0)
  000a0	51		 push	 ecx
  000a1	8b 4d d8	 mov	 ecx, DWORD PTR _pChar$GSCopy$[ebp]
  000a4	8d 45 f0	 lea	 eax, DWORD PTR $T532388[ebp]
  000a7	d9 5d e0	 fstp	 DWORD PTR tv288[ebp]
  000aa	d9 45 e0	 fld	 DWORD PTR tv288[ebp]
  000ad	d9 1c 24	 fstp	 DWORD PTR [esp]
  000b0	50		 push	 eax
  000b1	e8 00 00 00 00	 call	 ?GetMidPositionByRate@ioGameEntity@@QBE?AUD3DXVECTOR3@@M@Z ; ioGameEntity::GetMidPositionByRate
  000b6	db 45 d4	 fild	 DWORD PTR $T538145[ebp]
  000b9	8b f0		 mov	 esi, eax
  000bb	8b 45 d4	 mov	 eax, DWORD PTR $T538145[ebp]
  000be	85 c0		 test	 eax, eax
  000c0	79 06		 jns	 SHORT $LN22@SetTargetR
  000c2	d8 05 00 00 00
	00		 fadd	 DWORD PTR __real@4f800000
$LN22@SetTargetR:
  000c8	8b 45 dc	 mov	 eax, DWORD PTR $T538149[ebp]
  000cb	db 45 dc	 fild	 DWORD PTR $T538149[ebp]
  000ce	85 c0		 test	 eax, eax
  000d0	79 06		 jns	 SHORT $LN23@SetTargetR
  000d2	d8 05 00 00 00
	00		 fadd	 DWORD PTR __real@4f800000
$LN23@SetTargetR:
  000d8	de f9		 fdivp	 ST(1), ST(0)
  000da	51		 push	 ecx
  000db	8d 45 e4	 lea	 eax, DWORD PTR $T532387[ebp]
  000de	8b cf		 mov	 ecx, edi
  000e0	d9 5d dc	 fstp	 DWORD PTR tv274[ebp]
  000e3	d9 45 dc	 fld	 DWORD PTR tv274[ebp]
  000e6	d9 1c 24	 fstp	 DWORD PTR [esp]
  000e9	50		 push	 eax
  000ea	e8 00 00 00 00	 call	 ?GetMidPositionByRate@ioGameEntity@@QBE?AUD3DXVECTOR3@@M@Z ; ioGameEntity::GetMidPositionByRate
  000ef	f3 0f 10 0e	 movss	 xmm1, DWORD PTR [esi]
  000f3	f3 0f 10 00	 movss	 xmm0, DWORD PTR [eax]
  000f7	0f 5a c0	 cvtps2pd xmm0, xmm0
  000fa	0f 5a c9	 cvtps2pd xmm1, xmm1
  000fd	f2 0f 5c c1	 subsd	 xmm0, xmm1
  00101	f3 0f 10 4e 04	 movss	 xmm1, DWORD PTR [esi+4]
  00106	66 0f 5a c0	 cvtpd2ps xmm0, xmm0
  0010a	f3 0f 11 45 c8	 movss	 DWORD PTR $T532389[ebp], xmm0
  0010f	f3 0f 10 40 04	 movss	 xmm0, DWORD PTR [eax+4]
  00114	0f 5a c0	 cvtps2pd xmm0, xmm0
  00117	0f 5a c9	 cvtps2pd xmm1, xmm1
  0011a	f2 0f 5c c1	 subsd	 xmm0, xmm1
  0011e	f3 0f 10 4e 08	 movss	 xmm1, DWORD PTR [esi+8]
  00123	66 0f 5a c0	 cvtpd2ps xmm0, xmm0
  00127	f3 0f 11 45 cc	 movss	 DWORD PTR $T532389[ebp+4], xmm0
  0012c	f3 0f 10 40 08	 movss	 xmm0, DWORD PTR [eax+8]
  00131	0f 5a c0	 cvtps2pd xmm0, xmm0
  00134	0f 5a c9	 cvtps2pd xmm1, xmm1
  00137	f2 0f 5c c1	 subsd	 xmm0, xmm1
  0013b	66 0f 5a c0	 cvtpd2ps xmm0, xmm0
  0013f	f3 0f 11 45 d0	 movss	 DWORD PTR $T532389[ebp+8], xmm0
  00144	8d 75 c8	 lea	 esi, DWORD PTR $T532389[ebp]
  00147	8b fb		 mov	 edi, ebx
  00149	a5		 movsd
  0014a	a5		 movsd

; 537  : 	D3DXVec3Normalize( &m_vTargetDir, &m_vTargetDir );

  0014b	53		 push	 ebx
  0014c	53		 push	 ebx
  0014d	a5		 movsd
  0014e	e8 00 00 00 00	 call	 _D3DXVec3Normalize@8

; 538  : 	pChar->SetTargetRotToDir( m_vTargetDir, true );

  00153	8b 4d d8	 mov	 ecx, DWORD PTR _pChar$GSCopy$[ebp]
  00156	6a 00		 push	 0
  00158	6a 01		 push	 1
  0015a	53		 push	 ebx
  0015b	e8 00 00 00 00	 call	 ?SetTargetRotToDir@ioBaseChar@@QAEXABUD3DXVECTOR3@@_N1@Z ; ioBaseChar::SetTargetRotToDir
$LN18@SetTargetR:
  00160	5f		 pop	 edi
  00161	5e		 pop	 esi
$LN2@SetTargetR:

; 539  : }

  00162	8b 4d fc	 mov	 ecx, DWORD PTR __$ArrayPad$[ebp]
  00165	33 cd		 xor	 ecx, ebp
  00167	5b		 pop	 ebx
  00168	e8 00 00 00 00	 call	 @__security_check_cookie@4
  0016d	c9		 leave
  0016e	c2 04 00	 ret	 4
?SetTargetRotation@ioFireAndBuffCheckSkill@@IAEXPAVioBaseChar@@@Z ENDP ; ioFireAndBuffCheckSkill::SetTargetRotation
_TEXT	ENDS
PUBLIC	?begin@?$vector@PAVioBaseChar@@V?$allocator@PAVioBaseChar@@@std@@@std@@QBE?AV?$_Vector_const_iterator@V?$_Vector_val@PAVioBaseChar@@V?$allocator@PAVioBaseChar@@@std@@@std@@@2@XZ ; std::vector<ioBaseChar *,std::allocator<ioBaseChar *> >::begin
; Function compile flags: /Ogsp
; File c:\program files (x86)\microsoft visual studio 10.0\vc\include\vector
;	COMDAT ?begin@?$vector@PAVioBaseChar@@V?$allocator@PAVioBaseChar@@@std@@@std@@QBE?AV?$_Vector_const_iterator@V?$_Vector_val@PAVioBaseChar@@V?$allocator@PAVioBaseChar@@@std@@@std@@@2@XZ
_TEXT	SEGMENT
___$ReturnUdt$ = 8					; size = 4
?begin@?$vector@PAVioBaseChar@@V?$allocator@PAVioBaseChar@@@std@@@std@@QBE?AV?$_Vector_const_iterator@V?$_Vector_val@PAVioBaseChar@@V?$allocator@PAVioBaseChar@@@std@@@std@@@2@XZ PROC ; std::vector<ioBaseChar *,std::allocator<ioBaseChar *> >::begin, COMDAT
; _this$ = ecx

; 786  : 		{	// return iterator for beginning of nonmutable sequence

  00000	55		 push	 ebp
  00001	8b ec		 mov	 ebp, esp

; 787  : 		return (const_iterator(this->_Myfirst, this));

  00003	8b 09		 mov	 ecx, DWORD PTR [ecx]
  00005	8b 45 08	 mov	 eax, DWORD PTR ___$ReturnUdt$[ebp]
  00008	89 08		 mov	 DWORD PTR [eax], ecx

; 788  : 		}

  0000a	5d		 pop	 ebp
  0000b	c2 04 00	 ret	 4
?begin@?$vector@PAVioBaseChar@@V?$allocator@PAVioBaseChar@@@std@@@std@@QBE?AV?$_Vector_const_iterator@V?$_Vector_val@PAVioBaseChar@@V?$allocator@PAVioBaseChar@@@std@@@std@@@2@XZ ENDP ; std::vector<ioBaseChar *,std::allocator<ioBaseChar *> >::begin
_TEXT	ENDS
PUBLIC	?end@?$vector@PAVioBaseChar@@V?$allocator@PAVioBaseChar@@@std@@@std@@QBE?AV?$_Vector_const_iterator@V?$_Vector_val@PAVioBaseChar@@V?$allocator@PAVioBaseChar@@@std@@@std@@@2@XZ ; std::vector<ioBaseChar *,std::allocator<ioBaseChar *> >::end
; Function compile flags: /Ogsp
;	COMDAT ?end@?$vector@PAVioBaseChar@@V?$allocator@PAVioBaseChar@@@std@@@std@@QBE?AV?$_Vector_const_iterator@V?$_Vector_val@PAVioBaseChar@@V?$allocator@PAVioBaseChar@@@std@@@std@@@2@XZ
_TEXT	SEGMENT
___$ReturnUdt$ = 8					; size = 4
?end@?$vector@PAVioBaseChar@@V?$allocator@PAVioBaseChar@@@std@@@std@@QBE?AV?$_Vector_const_iterator@V?$_Vector_val@PAVioBaseChar@@V?$allocator@PAVioBaseChar@@@std@@@std@@@2@XZ PROC ; std::vector<ioBaseChar *,std::allocator<ioBaseChar *> >::end, COMDAT
; _this$ = ecx

; 796  : 		{	// return iterator for end of nonmutable sequence

  00000	55		 push	 ebp
  00001	8b ec		 mov	 ebp, esp

; 797  : 		return (const_iterator(this->_Mylast, this));

  00003	8b 49 04	 mov	 ecx, DWORD PTR [ecx+4]
  00006	8b 45 08	 mov	 eax, DWORD PTR ___$ReturnUdt$[ebp]
  00009	89 08		 mov	 DWORD PTR [eax], ecx

; 798  : 		}

  0000b	5d		 pop	 ebp
  0000c	c2 04 00	 ret	 4
?end@?$vector@PAVioBaseChar@@V?$allocator@PAVioBaseChar@@@std@@@std@@QBE?AV?$_Vector_const_iterator@V?$_Vector_val@PAVioBaseChar@@V?$allocator@PAVioBaseChar@@@std@@@std@@@2@XZ ENDP ; std::vector<ioBaseChar *,std::allocator<ioBaseChar *> >::end
_TEXT	ENDS
PUBLIC	??D?$_Vector_iterator@V?$_Vector_val@UtagBaseCharDistanceSq@@V?$allocator@UtagBaseCharDistanceSq@@@std@@@std@@@std@@QBEAAUtagBaseCharDistanceSq@@XZ ; std::_Vector_iterator<std::_Vector_val<tagBaseCharDistanceSq,std::allocator<tagBaseCharDistanceSq> > >::operator*
; Function compile flags: /Ogsp
;	COMDAT ??D?$_Vector_iterator@V?$_Vector_val@UtagBaseCharDistanceSq@@V?$allocator@UtagBaseCharDistanceSq@@@std@@@std@@@std@@QBEAAUtagBaseCharDistanceSq@@XZ
_TEXT	SEGMENT
??D?$_Vector_iterator@V?$_Vector_val@UtagBaseCharDistanceSq@@V?$allocator@UtagBaseCharDistanceSq@@@std@@@std@@@std@@QBEAAUtagBaseCharDistanceSq@@XZ PROC ; std::_Vector_iterator<std::_Vector_val<tagBaseCharDistanceSq,std::allocator<tagBaseCharDistanceSq> > >::operator*, COMDAT
; _this$ = ecx

; 322  : 		return ((reference)**(_Mybase *)this);

  00000	8b 01		 mov	 eax, DWORD PTR [ecx]

; 323  : 		}

  00002	c3		 ret	 0
??D?$_Vector_iterator@V?$_Vector_val@UtagBaseCharDistanceSq@@V?$allocator@UtagBaseCharDistanceSq@@@std@@@std@@@std@@QBEAAUtagBaseCharDistanceSq@@XZ ENDP ; std::_Vector_iterator<std::_Vector_val<tagBaseCharDistanceSq,std::allocator<tagBaseCharDistanceSq> > >::operator*
_TEXT	ENDS
PUBLIC	??E?$_Vector_iterator@V?$_Vector_val@UtagBaseCharDistanceSq@@V?$allocator@UtagBaseCharDistanceSq@@@std@@@std@@@std@@QAEAAV01@XZ ; std::_Vector_iterator<std::_Vector_val<tagBaseCharDistanceSq,std::allocator<tagBaseCharDistanceSq> > >::operator++
; Function compile flags: /Ogsp
;	COMDAT ??E?$_Vector_iterator@V?$_Vector_val@UtagBaseCharDistanceSq@@V?$allocator@UtagBaseCharDistanceSq@@@std@@@std@@@std@@QAEAAV01@XZ
_TEXT	SEGMENT
??E?$_Vector_iterator@V?$_Vector_val@UtagBaseCharDistanceSq@@V?$allocator@UtagBaseCharDistanceSq@@@std@@@std@@@std@@QAEAAV01@XZ PROC ; std::_Vector_iterator<std::_Vector_val<tagBaseCharDistanceSq,std::allocator<tagBaseCharDistanceSq> > >::operator++, COMDAT
; _this$ = ecx

; 331  : 		{	// preincrement

  00000	8b c1		 mov	 eax, ecx

; 332  : 		++*(_Mybase *)this;

  00002	83 00 20	 add	 DWORD PTR [eax], 32	; 00000020H

; 333  : 		return (*this);
; 334  : 		}

  00005	c3		 ret	 0
??E?$_Vector_iterator@V?$_Vector_val@UtagBaseCharDistanceSq@@V?$allocator@UtagBaseCharDistanceSq@@@std@@@std@@@std@@QAEAAV01@XZ ENDP ; std::_Vector_iterator<std::_Vector_val<tagBaseCharDistanceSq,std::allocator<tagBaseCharDistanceSq> > >::operator++
_TEXT	ENDS
PUBLIC	?begin@?$vector@UWeaponInfo@@V?$allocator@UWeaponInfo@@@std@@@std@@QBE?AV?$_Vector_const_iterator@V?$_Vector_val@UWeaponInfo@@V?$allocator@UWeaponInfo@@@std@@@std@@@2@XZ ; std::vector<WeaponInfo,std::allocator<WeaponInfo> >::begin
; Function compile flags: /Ogsp
;	COMDAT ?begin@?$vector@UWeaponInfo@@V?$allocator@UWeaponInfo@@@std@@@std@@QBE?AV?$_Vector_const_iterator@V?$_Vector_val@UWeaponInfo@@V?$allocator@UWeaponInfo@@@std@@@std@@@2@XZ
_TEXT	SEGMENT
___$ReturnUdt$ = 8					; size = 4
?begin@?$vector@UWeaponInfo@@V?$allocator@UWeaponInfo@@@std@@@std@@QBE?AV?$_Vector_const_iterator@V?$_Vector_val@UWeaponInfo@@V?$allocator@UWeaponInfo@@@std@@@std@@@2@XZ PROC ; std::vector<WeaponInfo,std::allocator<WeaponInfo> >::begin, COMDAT
; _this$ = ecx

; 786  : 		{	// return iterator for beginning of nonmutable sequence

  00000	55		 push	 ebp
  00001	8b ec		 mov	 ebp, esp

; 787  : 		return (const_iterator(this->_Myfirst, this));

  00003	8b 09		 mov	 ecx, DWORD PTR [ecx]
  00005	8b 45 08	 mov	 eax, DWORD PTR ___$ReturnUdt$[ebp]
  00008	89 08		 mov	 DWORD PTR [eax], ecx

; 788  : 		}

  0000a	5d		 pop	 ebp
  0000b	c2 04 00	 ret	 4
?begin@?$vector@UWeaponInfo@@V?$allocator@UWeaponInfo@@@std@@@std@@QBE?AV?$_Vector_const_iterator@V?$_Vector_val@UWeaponInfo@@V?$allocator@UWeaponInfo@@@std@@@std@@@2@XZ ENDP ; std::vector<WeaponInfo,std::allocator<WeaponInfo> >::begin
_TEXT	ENDS
