; Listing generated by Microsoft (R) Optimizing Compiler Version 16.00.30319.01 

	TITLE	D:\Lost Saga For Developer\Youtube\Tutorial\Source\src\LSClient\ioFireSkill2.cpp
	.686P
	.XMM
	include listing.inc
	.model	flat

INCLUDELIB MSVCRT
INCLUDELIB OLDNAMES

PUBLIC	?_EEM_DS@?$deque@UD3DXVECTOR3@@V?$allocator@UD3DXVECTOR3@@@std@@@std@@2HB ; std::deque<D3DXVECTOR3,std::allocator<D3DXVECTOR3> >::_EEM_DS
;	COMDAT ?_EEM_DS@?$deque@UD3DXVECTOR3@@V?$allocator@UD3DXVECTOR3@@@std@@@std@@2HB
CONST	SEGMENT
?_EEM_DS@?$deque@UD3DXVECTOR3@@V?$allocator@UD3DXVECTOR3@@@std@@@std@@2HB DD 01H ; std::deque<D3DXVECTOR3,std::allocator<D3DXVECTOR3> >::_EEM_DS
CONST	ENDS
PUBLIC	?return1@@YAIXZ					; return1
; Function compile flags: /Ogsp
; File d:\lost saga for developer\youtube\tutorial\source\src\lsclient\stdafx.h
;	COMDAT ?return1@@YAIXZ
_TEXT	SEGMENT
?return1@@YAIXZ PROC					; return1, COMDAT

; 17   : 	__forceinline unsigned int return1() { __asm mov eax, 1 };

  00000	b8 01 00 00 00	 mov	 eax, 1
  00005	c3		 ret	 0
?return1@@YAIXZ ENDP					; return1
_TEXT	ENDS
PUBLIC	?return5@@YAIXZ					; return5
; Function compile flags: /Ogsp
;	COMDAT ?return5@@YAIXZ
_TEXT	SEGMENT
?return5@@YAIXZ PROC					; return5, COMDAT

; 18   : 	__forceinline unsigned int return5() { __asm mov eax, 5 };

  00000	b8 05 00 00 00	 mov	 eax, 5
  00005	c3		 ret	 0
?return5@@YAIXZ ENDP					; return5
_TEXT	ENDS
PUBLIC	?return10@@YAIXZ				; return10
; Function compile flags: /Ogsp
;	COMDAT ?return10@@YAIXZ
_TEXT	SEGMENT
?return10@@YAIXZ PROC					; return10, COMDAT

; 21   : 	__forceinline unsigned int return10() { __asm mov eax, 10 };

  00000	b8 0a 00 00 00	 mov	 eax, 10			; 0000000aH
  00005	c3		 ret	 0
?return10@@YAIXZ ENDP					; return10
_TEXT	ENDS
PUBLIC	?return100@@YAIXZ				; return100
; Function compile flags: /Ogsp
;	COMDAT ?return100@@YAIXZ
_TEXT	SEGMENT
?return100@@YAIXZ PROC					; return100, COMDAT

; 25   : 	__forceinline unsigned int return100() { __asm mov eax, 100 };

  00000	b8 64 00 00 00	 mov	 eax, 100		; 00000064H
  00005	c3		 ret	 0
?return100@@YAIXZ ENDP					; return100
_TEXT	ENDS
PUBLIC	?GetBlowStopMotionState@ioBaseChar@@QBE_NXZ	; ioBaseChar::GetBlowStopMotionState
; Function compile flags: /Ogsp
; File d:\lost saga for developer\youtube\tutorial\source\src\lsclient\iobasechar.h
;	COMDAT ?GetBlowStopMotionState@ioBaseChar@@QBE_NXZ
_TEXT	SEGMENT
?GetBlowStopMotionState@ioBaseChar@@QBE_NXZ PROC	; ioBaseChar::GetBlowStopMotionState, COMDAT
; _this$ = ecx

; 1566 : 	inline bool GetBlowStopMotionState() const { return m_bBlowStopMotion; }

  00000	8a 81 c7 15 00
	00		 mov	 al, BYTE PTR [ecx+5575]
  00006	c3		 ret	 0
?GetBlowStopMotionState@ioBaseChar@@QBE_NXZ ENDP	; ioBaseChar::GetBlowStopMotionState
_TEXT	ENDS
PUBLIC	?GetBlowFrozenState@ioBaseChar@@QBE_NXZ		; ioBaseChar::GetBlowFrozenState
; Function compile flags: /Ogsp
;	COMDAT ?GetBlowFrozenState@ioBaseChar@@QBE_NXZ
_TEXT	SEGMENT
?GetBlowFrozenState@ioBaseChar@@QBE_NXZ PROC		; ioBaseChar::GetBlowFrozenState, COMDAT
; _this$ = ecx

; 1571 : 	inline bool GetBlowFrozenState() const { return m_bBlowFrozenState; }

  00000	8a 81 c5 15 00
	00		 mov	 al, BYTE PTR [ecx+5573]
  00006	c3		 ret	 0
?GetBlowFrozenState@ioBaseChar@@QBE_NXZ ENDP		; ioBaseChar::GetBlowFrozenState
_TEXT	ENDS
PUBLIC	?GetState@ioBaseChar@@QBE?AW4CharState@@XZ	; ioBaseChar::GetState
; Function compile flags: /Ogsp
;	COMDAT ?GetState@ioBaseChar@@QBE?AW4CharState@@XZ
_TEXT	SEGMENT
?GetState@ioBaseChar@@QBE?AW4CharState@@XZ PROC		; ioBaseChar::GetState, COMDAT
; _this$ = ecx

; 2156 : 	inline CharState GetState() const { return m_CharState; }	

  00000	8a 81 10 03 00
	00		 mov	 al, BYTE PTR [ecx+784]
  00006	c3		 ret	 0
?GetState@ioBaseChar@@QBE?AW4CharState@@XZ ENDP		; ioBaseChar::GetState
_TEXT	ENDS
PUBLIC	?GetCharName@ioBaseChar@@QBEABVioHashString@@XZ	; ioBaseChar::GetCharName
; Function compile flags: /Ogsp
;	COMDAT ?GetCharName@ioBaseChar@@QBEABVioHashString@@XZ
_TEXT	SEGMENT
?GetCharName@ioBaseChar@@QBEABVioHashString@@XZ PROC	; ioBaseChar::GetCharName, COMDAT
; _this$ = ecx

; 2594 : 	inline const ioHashString& GetCharName() const { return m_Name; }

  00000	8d 81 d4 02 00
	00		 lea	 eax, DWORD PTR [ecx+724]
  00006	c3		 ret	 0
?GetCharName@ioBaseChar@@QBEABVioHashString@@XZ ENDP	; ioBaseChar::GetCharName
_TEXT	ENDS
PUBLIC	?GetTargetRot@ioBaseChar@@QBEABUD3DXQUATERNION@@XZ ; ioBaseChar::GetTargetRot
; Function compile flags: /Ogsp
;	COMDAT ?GetTargetRot@ioBaseChar@@QBEABUD3DXQUATERNION@@XZ
_TEXT	SEGMENT
?GetTargetRot@ioBaseChar@@QBEABUD3DXQUATERNION@@XZ PROC	; ioBaseChar::GetTargetRot, COMDAT
; _this$ = ecx

; 2599 : 	inline const D3DXQUATERNION& GetTargetRot() const { return m_qtTargetRot; }

  00000	8d 81 a4 06 00
	00		 lea	 eax, DWORD PTR [ecx+1700]
  00006	c3		 ret	 0
?GetTargetRot@ioBaseChar@@QBEABUD3DXQUATERNION@@XZ ENDP	; ioBaseChar::GetTargetRot
_TEXT	ENDS
PUBLIC	_acosf
EXTRN	__fltused:DWORD
EXTRN	__CIacos:PROC
; Function compile flags: /Ogsp
; File c:\program files (x86)\microsoft visual studio 10.0\vc\include\math.h
;	COMDAT _acosf
_TEXT	SEGMENT
tv69 = 8						; size = 4
__X$ = 8						; size = 4
_acosf	PROC						; COMDAT

; 400  :         {return ((float)acos((double)_X)); }

  00000	55		 push	 ebp
  00001	8b ec		 mov	 ebp, esp
  00003	d9 45 08	 fld	 DWORD PTR __X$[ebp]
  00006	e8 00 00 00 00	 call	 __CIacos
  0000b	d9 5d 08	 fstp	 DWORD PTR tv69[ebp]
  0000e	d9 45 08	 fld	 DWORD PTR tv69[ebp]
  00011	5d		 pop	 ebp
  00012	c3		 ret	 0
_acosf	ENDP
_TEXT	ENDS
PUBLIC	??_7bad_alloc@std@@6B@				; std::bad_alloc::`vftable'
PUBLIC	??0bad_alloc@std@@QAE@PBD@Z			; std::bad_alloc::bad_alloc
PUBLIC	??_R4bad_alloc@std@@6B@				; std::bad_alloc::`RTTI Complete Object Locator'
PUBLIC	??_R0?AVbad_alloc@std@@@8			; std::bad_alloc `RTTI Type Descriptor'
PUBLIC	??_R3bad_alloc@std@@8				; std::bad_alloc::`RTTI Class Hierarchy Descriptor'
PUBLIC	??_R2bad_alloc@std@@8				; std::bad_alloc::`RTTI Base Class Array'
PUBLIC	??_R1A@?0A@EA@bad_alloc@std@@8			; std::bad_alloc::`RTTI Base Class Descriptor at (0,-1,0,64)'
PUBLIC	??_R1A@?0A@EA@exception@std@@8			; std::exception::`RTTI Base Class Descriptor at (0,-1,0,64)'
PUBLIC	??_R0?AVexception@std@@@8			; std::exception `RTTI Type Descriptor'
PUBLIC	??_R3exception@std@@8				; std::exception::`RTTI Class Hierarchy Descriptor'
PUBLIC	??_R2exception@std@@8				; std::exception::`RTTI Base Class Array'
EXTRN	__imp_??0exception@std@@QAE@ABQBD@Z:PROC
EXTRN	??_7type_info@@6B@:QWORD			; type_info::`vftable'
EXTRN	??_Ebad_alloc@std@@UAEPAXI@Z:PROC		; std::bad_alloc::`vector deleting destructor'
EXTRN	?what@exception@std@@UBEPBDXZ:PROC		; std::exception::what
;	COMDAT ??_R2exception@std@@8
; File c:\program files (x86)\microsoft visual studio 10.0\vc\include\exception
rdata$r	SEGMENT
??_R2exception@std@@8 DD FLAT:??_R1A@?0A@EA@exception@std@@8 ; std::exception::`RTTI Base Class Array'
rdata$r	ENDS
;	COMDAT ??_R3exception@std@@8
rdata$r	SEGMENT
??_R3exception@std@@8 DD 00H				; std::exception::`RTTI Class Hierarchy Descriptor'
	DD	00H
	DD	01H
	DD	FLAT:??_R2exception@std@@8
rdata$r	ENDS
;	COMDAT ??_R0?AVexception@std@@@8
_DATA	SEGMENT
??_R0?AVexception@std@@@8 DD FLAT:??_7type_info@@6B@	; std::exception `RTTI Type Descriptor'
	DD	00H
	DB	'.?AVexception@std@@', 00H
_DATA	ENDS
;	COMDAT ??_R1A@?0A@EA@exception@std@@8
rdata$r	SEGMENT
??_R1A@?0A@EA@exception@std@@8 DD FLAT:??_R0?AVexception@std@@@8 ; std::exception::`RTTI Base Class Descriptor at (0,-1,0,64)'
	DD	00H
	DD	00H
	DD	0ffffffffH
	DD	00H
	DD	040H
	DD	FLAT:??_R3exception@std@@8
rdata$r	ENDS
;	COMDAT ??_R1A@?0A@EA@bad_alloc@std@@8
rdata$r	SEGMENT
??_R1A@?0A@EA@bad_alloc@std@@8 DD FLAT:??_R0?AVbad_alloc@std@@@8 ; std::bad_alloc::`RTTI Base Class Descriptor at (0,-1,0,64)'
	DD	01H
	DD	00H
	DD	0ffffffffH
	DD	00H
	DD	040H
	DD	FLAT:??_R3bad_alloc@std@@8
rdata$r	ENDS
;	COMDAT ??_R2bad_alloc@std@@8
rdata$r	SEGMENT
??_R2bad_alloc@std@@8 DD FLAT:??_R1A@?0A@EA@bad_alloc@std@@8 ; std::bad_alloc::`RTTI Base Class Array'
	DD	FLAT:??_R1A@?0A@EA@exception@std@@8
rdata$r	ENDS
;	COMDAT ??_R3bad_alloc@std@@8
rdata$r	SEGMENT
??_R3bad_alloc@std@@8 DD 00H				; std::bad_alloc::`RTTI Class Hierarchy Descriptor'
	DD	00H
	DD	02H
	DD	FLAT:??_R2bad_alloc@std@@8
rdata$r	ENDS
;	COMDAT ??_R0?AVbad_alloc@std@@@8
_DATA	SEGMENT
??_R0?AVbad_alloc@std@@@8 DD FLAT:??_7type_info@@6B@	; std::bad_alloc `RTTI Type Descriptor'
	DD	00H
	DB	'.?AVbad_alloc@std@@', 00H
_DATA	ENDS
;	COMDAT ??_R4bad_alloc@std@@6B@
rdata$r	SEGMENT
??_R4bad_alloc@std@@6B@ DD 00H				; std::bad_alloc::`RTTI Complete Object Locator'
	DD	00H
	DD	00H
	DD	FLAT:??_R0?AVbad_alloc@std@@@8
	DD	FLAT:??_R3bad_alloc@std@@8
rdata$r	ENDS
;	COMDAT ??_7bad_alloc@std@@6B@
CONST	SEGMENT
??_7bad_alloc@std@@6B@ DD FLAT:??_R4bad_alloc@std@@6B@	; std::bad_alloc::`vftable'
	DD	FLAT:??_Ebad_alloc@std@@UAEPAXI@Z
	DD	FLAT:?what@exception@std@@UBEPBDXZ
; Function compile flags: /Ogsp
CONST	ENDS
;	COMDAT ??0bad_alloc@std@@QAE@PBD@Z
_TEXT	SEGMENT
__Message$ = 8						; size = 4
??0bad_alloc@std@@QAE@PBD@Z PROC			; std::bad_alloc::bad_alloc, COMDAT
; _this$ = ecx

; 345  : 		{	// construct from message string

  00000	55		 push	 ebp
  00001	8b ec		 mov	 ebp, esp
  00003	56		 push	 esi
  00004	8d 45 08	 lea	 eax, DWORD PTR __Message$[ebp]
  00007	50		 push	 eax
  00008	8b f1		 mov	 esi, ecx
  0000a	ff 15 00 00 00
	00		 call	 DWORD PTR __imp_??0exception@std@@QAE@ABQBD@Z
  00010	c7 06 00 00 00
	00		 mov	 DWORD PTR [esi], OFFSET ??_7bad_alloc@std@@6B@

; 346  : 		}

  00016	8b c6		 mov	 eax, esi
  00018	5e		 pop	 esi
  00019	5d		 pop	 ebp
  0001a	c2 04 00	 ret	 4
??0bad_alloc@std@@QAE@PBD@Z ENDP			; std::bad_alloc::bad_alloc
_TEXT	ENDS
PUBLIC	??1bad_alloc@std@@UAE@XZ			; std::bad_alloc::~bad_alloc
EXTRN	__imp_??1exception@std@@UAE@XZ:PROC
; Function compile flags: /Ogsp
;	COMDAT ??1bad_alloc@std@@UAE@XZ
_TEXT	SEGMENT
??1bad_alloc@std@@UAE@XZ PROC				; std::bad_alloc::~bad_alloc, COMDAT
; _this$ = ecx

; 354  : 		{	// destroy the object

  00000	c7 01 00 00 00
	00		 mov	 DWORD PTR [ecx], OFFSET ??_7bad_alloc@std@@6B@

; 355  : 		}

  00006	ff 25 00 00 00
	00		 jmp	 DWORD PTR __imp_??1exception@std@@UAE@XZ
??1bad_alloc@std@@UAE@XZ ENDP				; std::bad_alloc::~bad_alloc
_TEXT	ENDS
EXTRN	??3@YAXPAX@Z:PROC				; operator delete
; Function compile flags: /Ogsp
;	COMDAT ??_Gbad_alloc@std@@UAEPAXI@Z
_TEXT	SEGMENT
___flags$ = 8						; size = 4
??_Gbad_alloc@std@@UAEPAXI@Z PROC			; std::bad_alloc::`scalar deleting destructor', COMDAT
; _this$ = ecx
  00000	55		 push	 ebp
  00001	8b ec		 mov	 ebp, esp
  00003	56		 push	 esi
  00004	8b f1		 mov	 esi, ecx
  00006	c7 06 00 00 00
	00		 mov	 DWORD PTR [esi], OFFSET ??_7bad_alloc@std@@6B@
  0000c	ff 15 00 00 00
	00		 call	 DWORD PTR __imp_??1exception@std@@UAE@XZ
  00012	f6 45 08 01	 test	 BYTE PTR ___flags$[ebp], 1
  00016	74 07		 je	 SHORT $LN1@scalar
  00018	56		 push	 esi
  00019	e8 00 00 00 00	 call	 ??3@YAXPAX@Z		; operator delete
  0001e	59		 pop	 ecx
$LN1@scalar:
  0001f	8b c6		 mov	 eax, esi
  00021	5e		 pop	 esi
  00022	5d		 pop	 ebp
  00023	c2 04 00	 ret	 4
??_Gbad_alloc@std@@UAEPAXI@Z ENDP			; std::bad_alloc::`scalar deleting destructor'
_TEXT	ENDS
PUBLIC	??2@YAPAXIPAX@Z					; operator new
; Function compile flags: /Ogsp
; File c:\program files (x86)\microsoft visual studio 10.0\vc\include\new
;	COMDAT ??2@YAPAXIPAX@Z
_TEXT	SEGMENT
___formal$ = 8						; size = 4
__Where$ = 12						; size = 4
??2@YAPAXIPAX@Z PROC					; operator new, COMDAT

; 56   : 	{	// construct array with placement at _Where

  00000	55		 push	 ebp
  00001	8b ec		 mov	 ebp, esp

; 57   : 	return (_Where);

  00003	8b 45 0c	 mov	 eax, DWORD PTR __Where$[ebp]

; 58   : 	}

  00006	5d		 pop	 ebp
  00007	c3		 ret	 0
??2@YAPAXIPAX@Z ENDP					; operator new
_TEXT	ENDS
PUBLIC	??3@YAXPAX0@Z					; operator delete
; Function compile flags: /Ogsp
;	COMDAT ??3@YAXPAX0@Z
_TEXT	SEGMENT
___formal$ = 8						; size = 4
___formal$ = 12						; size = 4
??3@YAXPAX0@Z PROC					; operator delete, COMDAT

; 62   : 	}

  00000	c3		 ret	 0
??3@YAXPAX0@Z ENDP					; operator delete
_TEXT	ENDS
PUBLIC	?length@?$char_traits@D@std@@SAIPBD@Z		; std::char_traits<char>::length
; Function compile flags: /Ogsp
; File c:\program files (x86)\microsoft visual studio 10.0\vc\include\iosfwd
;	COMDAT ?length@?$char_traits@D@std@@SAIPBD@Z
_TEXT	SEGMENT
__First$ = 8						; size = 4
?length@?$char_traits@D@std@@SAIPBD@Z PROC		; std::char_traits<char>::length, COMDAT

; 490  : 		{	// find length of null-terminated string

  00000	55		 push	 ebp
  00001	8b ec		 mov	 ebp, esp

; 491  : 		return (_CSTD strlen(_First));

  00003	8b 45 08	 mov	 eax, DWORD PTR __First$[ebp]
  00006	8d 50 01	 lea	 edx, DWORD PTR [eax+1]
$LL3@length:
  00009	8a 08		 mov	 cl, BYTE PTR [eax]
  0000b	40		 inc	 eax
  0000c	84 c9		 test	 cl, cl
  0000e	75 f9		 jne	 SHORT $LL3@length
  00010	2b c2		 sub	 eax, edx

; 492  : 		}

  00012	5d		 pop	 ebp
  00013	c3		 ret	 0
?length@?$char_traits@D@std@@SAIPBD@Z ENDP		; std::char_traits<char>::length
_TEXT	ENDS
PUBLIC	?copy@?$char_traits@D@std@@SAPADPADPBDI@Z	; std::char_traits<char>::copy
EXTRN	_memcpy:PROC
; Function compile flags: /Ogsp
;	COMDAT ?copy@?$char_traits@D@std@@SAPADPADPBDI@Z
_TEXT	SEGMENT
__First1$ = 8						; size = 4
__First2$ = 12						; size = 4
__Count$ = 16						; size = 4
?copy@?$char_traits@D@std@@SAPADPADPBDI@Z PROC		; std::char_traits<char>::copy, COMDAT

; 496  : 		{	// copy [_First1, _First1 + _Count) to [_First2, ...)

  00000	55		 push	 ebp
  00001	8b ec		 mov	 ebp, esp

; 498  : 		}

  00003	5d		 pop	 ebp

; 497  : 		return ((_Elem *)_CSTD memcpy(_First1, _First2, _Count));

  00004	e9 00 00 00 00	 jmp	 _memcpy
?copy@?$char_traits@D@std@@SAPADPADPBDI@Z ENDP		; std::char_traits<char>::copy
_TEXT	ENDS
PUBLIC	?move@?$char_traits@D@std@@SAPADPADPBDI@Z	; std::char_traits<char>::move
EXTRN	__imp__memmove:PROC
; Function compile flags: /Ogsp
;	COMDAT ?move@?$char_traits@D@std@@SAPADPADPBDI@Z
_TEXT	SEGMENT
__First1$ = 8						; size = 4
__First2$ = 12						; size = 4
__Count$ = 16						; size = 4
?move@?$char_traits@D@std@@SAPADPADPBDI@Z PROC		; std::char_traits<char>::move, COMDAT

; 516  : 		{	// copy [_First1, _First1 + _Count) to [_First2, ...)

  00000	55		 push	 ebp
  00001	8b ec		 mov	 ebp, esp

; 518  : 		}

  00003	5d		 pop	 ebp

; 517  : 		return ((_Elem *)_CSTD memmove(_First1, _First2, _Count));

  00004	ff 25 00 00 00
	00		 jmp	 DWORD PTR __imp__memmove
?move@?$char_traits@D@std@@SAPADPADPBDI@Z ENDP		; std::char_traits<char>::move
_TEXT	ENDS
PUBLIC	?assign@?$char_traits@D@std@@SAXAADABD@Z	; std::char_traits<char>::assign
; Function compile flags: /Ogsp
;	COMDAT ?assign@?$char_traits@D@std@@SAXAADABD@Z
_TEXT	SEGMENT
__Left$ = 8						; size = 4
__Right$ = 12						; size = 4
?assign@?$char_traits@D@std@@SAXAADABD@Z PROC		; std::char_traits<char>::assign, COMDAT

; 526  : 		{	// assign an element

  00000	55		 push	 ebp
  00001	8b ec		 mov	 ebp, esp

; 527  : 		_Left = _Right;

  00003	8b 45 0c	 mov	 eax, DWORD PTR __Right$[ebp]
  00006	8a 00		 mov	 al, BYTE PTR [eax]
  00008	8b 4d 08	 mov	 ecx, DWORD PTR __Left$[ebp]
  0000b	88 01		 mov	 BYTE PTR [ecx], al

; 528  : 		}

  0000d	5d		 pop	 ebp
  0000e	c3		 ret	 0
?assign@?$char_traits@D@std@@SAXAADABD@Z ENDP		; std::char_traits<char>::assign
_TEXT	ENDS
PUBLIC	??_R0?AVioWeapon@@@8				; ioWeapon `RTTI Type Descriptor'
PUBLIC	??_R0?AVioMissileWeapon@@@8			; ioMissileWeapon `RTTI Type Descriptor'
PUBLIC	?ToMissileWeapon@@YAPAVioMissileWeapon@@PAVioWeapon@@@Z ; ToMissileWeapon
EXTRN	___RTDynamicCast:PROC
;	COMDAT ??_R0?AVioWeapon@@@8
; File d:\lost saga for developer\youtube\tutorial\source\src\lsclient\iomissileweapon.h
_DATA	SEGMENT
??_R0?AVioWeapon@@@8 DD FLAT:??_7type_info@@6B@		; ioWeapon `RTTI Type Descriptor'
	DD	00H
	DB	'.?AVioWeapon@@', 00H
_DATA	ENDS
;	COMDAT ??_R0?AVioMissileWeapon@@@8
_DATA	SEGMENT
??_R0?AVioMissileWeapon@@@8 DD FLAT:??_7type_info@@6B@	; ioMissileWeapon `RTTI Type Descriptor'
	DD	00H
	DB	'.?AVioMissileWeapon@@', 00H
; Function compile flags: /Ogsp
_DATA	ENDS
;	COMDAT ?ToMissileWeapon@@YAPAVioMissileWeapon@@PAVioWeapon@@@Z
_TEXT	SEGMENT
_pWeapon$ = 8						; size = 4
?ToMissileWeapon@@YAPAVioMissileWeapon@@PAVioWeapon@@@Z PROC ; ToMissileWeapon, COMDAT

; 116  : {

  00000	55		 push	 ebp
  00001	8b ec		 mov	 ebp, esp
  00003	56		 push	 esi

; 117  : 	if( !pWeapon || pWeapon->GetType() != ioWeapon::WT_MISSILE )

  00004	8b 75 08	 mov	 esi, DWORD PTR _pWeapon$[ebp]
  00007	85 f6		 test	 esi, esi
  00009	74 28		 je	 SHORT $LN1@ToMissileW
  0000b	8b 06		 mov	 eax, DWORD PTR [esi]
  0000d	8b ce		 mov	 ecx, esi
  0000f	ff 90 10 01 00
	00		 call	 DWORD PTR [eax+272]
  00015	83 f8 02	 cmp	 eax, 2
  00018	75 19		 jne	 SHORT $LN1@ToMissileW

; 119  : 
; 120  : 	return dynamic_cast< ioMissileWeapon* >( pWeapon );

  0001a	6a 00		 push	 0
  0001c	68 00 00 00 00	 push	 OFFSET ??_R0?AVioMissileWeapon@@@8
  00021	68 00 00 00 00	 push	 OFFSET ??_R0?AVioWeapon@@@8
  00026	6a 00		 push	 0
  00028	56		 push	 esi
  00029	e8 00 00 00 00	 call	 ___RTDynamicCast
  0002e	83 c4 14	 add	 esp, 20			; 00000014H
  00031	eb 02		 jmp	 SHORT $LN3@ToMissileW
$LN1@ToMissileW:

; 118  : 		return NULL;

  00033	33 c0		 xor	 eax, eax
$LN3@ToMissileW:
  00035	5e		 pop	 esi

; 121  : }

  00036	5d		 pop	 ebp
  00037	c3		 ret	 0
?ToMissileWeapon@@YAPAVioMissileWeapon@@PAVioWeapon@@@Z ENDP ; ToMissileWeapon
_TEXT	ENDS
PUBLIC	??_R0?AVioBombMissileWeapon@@@8			; ioBombMissileWeapon `RTTI Type Descriptor'
PUBLIC	?ToBombMissileWeapon@@YAPAVioBombMissileWeapon@@PAVioWeapon@@@Z ; ToBombMissileWeapon
;	COMDAT ??_R0?AVioBombMissileWeapon@@@8
; File d:\lost saga for developer\youtube\tutorial\source\src\lsclient\iobombmissileweapon.h
_DATA	SEGMENT
??_R0?AVioBombMissileWeapon@@@8 DD FLAT:??_7type_info@@6B@ ; ioBombMissileWeapon `RTTI Type Descriptor'
	DD	00H
	DB	'.?AVioBombMissileWeapon@@', 00H
; Function compile flags: /Ogsp
_DATA	ENDS
;	COMDAT ?ToBombMissileWeapon@@YAPAVioBombMissileWeapon@@PAVioWeapon@@@Z
_TEXT	SEGMENT
_pWeapon$ = 8						; size = 4
?ToBombMissileWeapon@@YAPAVioBombMissileWeapon@@PAVioWeapon@@@Z PROC ; ToBombMissileWeapon, COMDAT

; 160  : {

  00000	55		 push	 ebp
  00001	8b ec		 mov	 ebp, esp
  00003	56		 push	 esi

; 161  : 	if( !pWeapon || pWeapon->GetType() != ioWeapon::WT_BOMB_MISSILE )

  00004	8b 75 08	 mov	 esi, DWORD PTR _pWeapon$[ebp]
  00007	85 f6		 test	 esi, esi
  00009	74 28		 je	 SHORT $LN1@ToBombMiss
  0000b	8b 06		 mov	 eax, DWORD PTR [esi]
  0000d	8b ce		 mov	 ecx, esi
  0000f	ff 90 10 01 00
	00		 call	 DWORD PTR [eax+272]
  00015	83 f8 11	 cmp	 eax, 17			; 00000011H
  00018	75 19		 jne	 SHORT $LN1@ToBombMiss

; 163  : 
; 164  : 	return dynamic_cast< ioBombMissileWeapon* >( pWeapon );

  0001a	6a 00		 push	 0
  0001c	68 00 00 00 00	 push	 OFFSET ??_R0?AVioBombMissileWeapon@@@8
  00021	68 00 00 00 00	 push	 OFFSET ??_R0?AVioWeapon@@@8
  00026	6a 00		 push	 0
  00028	56		 push	 esi
  00029	e8 00 00 00 00	 call	 ___RTDynamicCast
  0002e	83 c4 14	 add	 esp, 20			; 00000014H
  00031	eb 02		 jmp	 SHORT $LN3@ToBombMiss
$LN1@ToBombMiss:

; 162  : 		return NULL;

  00033	33 c0		 xor	 eax, eax
$LN3@ToBombMiss:
  00035	5e		 pop	 esi

; 165  : }

  00036	5d		 pop	 ebp
  00037	c3		 ret	 0
?ToBombMissileWeapon@@YAPAVioBombMissileWeapon@@PAVioWeapon@@@Z ENDP ; ToBombMissileWeapon
_TEXT	ENDS
PUBLIC	??_R0?AVioArrowWeapon@@@8			; ioArrowWeapon `RTTI Type Descriptor'
PUBLIC	?ToArrowWeapon@@YAPAVioArrowWeapon@@PAVioWeapon@@@Z ; ToArrowWeapon
;	COMDAT ??_R0?AVioArrowWeapon@@@8
; File d:\lost saga for developer\youtube\tutorial\source\src\lsclient\ioarrowweapon.h
_DATA	SEGMENT
??_R0?AVioArrowWeapon@@@8 DD FLAT:??_7type_info@@6B@	; ioArrowWeapon `RTTI Type Descriptor'
	DD	00H
	DB	'.?AVioArrowWeapon@@', 00H
; Function compile flags: /Ogsp
_DATA	ENDS
;	COMDAT ?ToArrowWeapon@@YAPAVioArrowWeapon@@PAVioWeapon@@@Z
_TEXT	SEGMENT
_pWeapon$ = 8						; size = 4
?ToArrowWeapon@@YAPAVioArrowWeapon@@PAVioWeapon@@@Z PROC ; ToArrowWeapon, COMDAT

; 112  : {

  00000	55		 push	 ebp
  00001	8b ec		 mov	 ebp, esp
  00003	56		 push	 esi

; 113  : 	if( !pWeapon || pWeapon->GetType() != ioWeapon::WT_ARROW )

  00004	8b 75 08	 mov	 esi, DWORD PTR _pWeapon$[ebp]
  00007	85 f6		 test	 esi, esi
  00009	74 28		 je	 SHORT $LN1@ToArrowWea
  0000b	8b 06		 mov	 eax, DWORD PTR [esi]
  0000d	8b ce		 mov	 ecx, esi
  0000f	ff 90 10 01 00
	00		 call	 DWORD PTR [eax+272]
  00015	83 f8 0b	 cmp	 eax, 11			; 0000000bH
  00018	75 19		 jne	 SHORT $LN1@ToArrowWea

; 115  : 
; 116  : 	return dynamic_cast< ioArrowWeapon* >( pWeapon );

  0001a	6a 00		 push	 0
  0001c	68 00 00 00 00	 push	 OFFSET ??_R0?AVioArrowWeapon@@@8
  00021	68 00 00 00 00	 push	 OFFSET ??_R0?AVioWeapon@@@8
  00026	6a 00		 push	 0
  00028	56		 push	 esi
  00029	e8 00 00 00 00	 call	 ___RTDynamicCast
  0002e	83 c4 14	 add	 esp, 20			; 00000014H
  00031	eb 02		 jmp	 SHORT $LN3@ToArrowWea
$LN1@ToArrowWea:

; 114  : 		return NULL;

  00033	33 c0		 xor	 eax, eax
$LN3@ToArrowWea:
  00035	5e		 pop	 esi

; 117  : }

  00036	5d		 pop	 ebp
  00037	c3		 ret	 0
?ToArrowWeapon@@YAPAVioArrowWeapon@@PAVioWeapon@@@Z ENDP ; ToArrowWeapon
_TEXT	ENDS
PUBLIC	?_Adopt@_Iterator_base0@std@@QAEXPBX@Z		; std::_Iterator_base0::_Adopt
; Function compile flags: /Ogsp
; File c:\program files (x86)\microsoft visual studio 10.0\vc\include\xutility
;	COMDAT ?_Adopt@_Iterator_base0@std@@QAEXPBX@Z
_TEXT	SEGMENT
___formal$ = 8						; size = 4
?_Adopt@_Iterator_base0@std@@QAEXPBX@Z PROC		; std::_Iterator_base0::_Adopt, COMDAT
; _this$ = ecx

; 49   : 		}

  00000	c2 04 00	 ret	 4
?_Adopt@_Iterator_base0@std@@QAEXPBX@Z ENDP		; std::_Iterator_base0::_Adopt
_TEXT	ENDS
PUBLIC	??_R0?AVioSylphidMissileWeapon@@@8		; ioSylphidMissileWeapon `RTTI Type Descriptor'
PUBLIC	?ToSylphidMissileWeapon@@YAPAVioSylphidMissileWeapon@@PAVioWeapon@@@Z ; ToSylphidMissileWeapon
;	COMDAT ??_R0?AVioSylphidMissileWeapon@@@8
; File d:\lost saga for developer\youtube\tutorial\source\src\lsclient\iosylphidmissileweapon.h
_DATA	SEGMENT
??_R0?AVioSylphidMissileWeapon@@@8 DD FLAT:??_7type_info@@6B@ ; ioSylphidMissileWeapon `RTTI Type Descriptor'
	DD	00H
	DB	'.?AVioSylphidMissileWeapon@@', 00H
; Function compile flags: /Ogsp
_DATA	ENDS
;	COMDAT ?ToSylphidMissileWeapon@@YAPAVioSylphidMissileWeapon@@PAVioWeapon@@@Z
_TEXT	SEGMENT
_pWeapon$ = 8						; size = 4
?ToSylphidMissileWeapon@@YAPAVioSylphidMissileWeapon@@PAVioWeapon@@@Z PROC ; ToSylphidMissileWeapon, COMDAT

; 107  : {

  00000	55		 push	 ebp
  00001	8b ec		 mov	 ebp, esp
  00003	56		 push	 esi

; 108  : 	if( !pWeapon || pWeapon->GetType() != ioWeapon::WT_SYLPHID_MISSILE )

  00004	8b 75 08	 mov	 esi, DWORD PTR _pWeapon$[ebp]
  00007	85 f6		 test	 esi, esi
  00009	74 28		 je	 SHORT $LN1@ToSylphidM
  0000b	8b 06		 mov	 eax, DWORD PTR [esi]
  0000d	8b ce		 mov	 ecx, esi
  0000f	ff 90 10 01 00
	00		 call	 DWORD PTR [eax+272]
  00015	83 f8 37	 cmp	 eax, 55			; 00000037H
  00018	75 19		 jne	 SHORT $LN1@ToSylphidM

; 110  : 
; 111  : 	return dynamic_cast< ioSylphidMissileWeapon* >( pWeapon );

  0001a	6a 00		 push	 0
  0001c	68 00 00 00 00	 push	 OFFSET ??_R0?AVioSylphidMissileWeapon@@@8
  00021	68 00 00 00 00	 push	 OFFSET ??_R0?AVioWeapon@@@8
  00026	6a 00		 push	 0
  00028	56		 push	 esi
  00029	e8 00 00 00 00	 call	 ___RTDynamicCast
  0002e	83 c4 14	 add	 esp, 20			; 00000014H
  00031	eb 02		 jmp	 SHORT $LN3@ToSylphidM
$LN1@ToSylphidM:

; 109  : 		return NULL;

  00033	33 c0		 xor	 eax, eax
$LN3@ToSylphidM:
  00035	5e		 pop	 esi

; 112  : }

  00036	5d		 pop	 ebp
  00037	c3		 ret	 0
?ToSylphidMissileWeapon@@YAPAVioSylphidMissileWeapon@@PAVioWeapon@@@Z ENDP ; ToSylphidMissileWeapon
_TEXT	ENDS
PUBLIC	?CheckUseItemMesh@ioFireSkill2@@UAE_NXZ		; ioFireSkill2::CheckUseItemMesh
; Function compile flags: /Ogsp
; File d:\lost saga for developer\youtube\tutorial\source\src\lsclient\iofireskill2.cpp
;	COMDAT ?CheckUseItemMesh@ioFireSkill2@@UAE_NXZ
_TEXT	SEGMENT
?CheckUseItemMesh@ioFireSkill2@@UAE_NXZ PROC		; ioFireSkill2::CheckUseItemMesh, COMDAT
; _this$ = ecx

; 226  : 	return m_bUseItemMesh;

  00000	8a 81 08 0f 00
	00		 mov	 al, BYTE PTR [ecx+3848]

; 227  : }

  00006	c3		 ret	 0
?CheckUseItemMesh@ioFireSkill2@@UAE_NXZ ENDP		; ioFireSkill2::CheckUseItemMesh
_TEXT	ENDS
PUBLIC	??1tagBaseCharDistanceSq@@QAE@XZ		; tagBaseCharDistanceSq::~tagBaseCharDistanceSq
EXTRN	__imp_??1ioHashString@@QAE@XZ:PROC
; Function compile flags: /Ogsp
;	COMDAT ??1tagBaseCharDistanceSq@@QAE@XZ
_TEXT	SEGMENT
??1tagBaseCharDistanceSq@@QAE@XZ PROC			; tagBaseCharDistanceSq::~tagBaseCharDistanceSq, COMDAT
; _this$ = ecx
  00000	ff 25 00 00 00
	00		 jmp	 DWORD PTR __imp_??1ioHashString@@QAE@XZ
??1tagBaseCharDistanceSq@@QAE@XZ ENDP			; tagBaseCharDistanceSq::~tagBaseCharDistanceSq
_TEXT	ENDS
PUBLIC	__real@4f800000
PUBLIC	?AimedFireToUp@ioFireSkill2@@IAEXPAVioEntityGroup@@MMK_N@Z ; ioFireSkill2::AimedFireToUp
EXTRN	__imp_?SetActionAni@ioEntityGroup@@QAE_NABVioHashString@@MMMMMM_N1@Z:PROC
;	COMDAT __real@4f800000
; File d:\lost saga for developer\youtube\tutorial\source\src\lsclient\stdafx.h
CONST	SEGMENT
__real@4f800000 DD 04f800000r			; 4.29497e+009
; Function compile flags: /Ogsp
; File d:\lost saga for developer\youtube\tutorial\source\src\lsclient\iofireskill2.cpp
CONST	ENDS
;	COMDAT ?AimedFireToUp@ioFireSkill2@@IAEXPAVioEntityGroup@@MMK_N@Z
_TEXT	SEGMENT
tv249 = -16						; size = 4
tv243 = -16						; size = 4
tv239 = -16						; size = 4
tv235 = -16						; size = 4
tv225 = -16						; size = 4
tv199 = -16						; size = 4
tv198 = -16						; size = 4
tv194 = -16						; size = 4
_bAniFx2$ = -12						; size = 1
_bAniFx1$ = -8						; size = 1
_fFadeOut$ = -4						; size = 4
_pGrp$ = 8						; size = 4
_fWeight$ = 12						; size = 4
_fTimeRate$ = 16					; size = 4
_dwPreDelay$ = 20					; size = 4
tv177 = 24						; size = 4
tv171 = 24						; size = 4
tv168 = 24						; size = 4
tv164 = 24						; size = 4
tv136 = 24						; size = 4
tv93 = 24						; size = 4
_bHold$ = 24						; size = 1
?AimedFireToUp@ioFireSkill2@@IAEXPAVioEntityGroup@@MMK_N@Z PROC ; ioFireSkill2::AimedFireToUp, COMDAT
; _this$ = ecx

; 537  : {

  00000	55		 push	 ebp
  00001	8b ec		 mov	 ebp, esp
  00003	83 ec 10	 sub	 esp, 16			; 00000010H
  00006	53		 push	 ebx
  00007	56		 push	 esi
  00008	57		 push	 edi
  00009	8b f9		 mov	 edi, ecx

; 538  : 	float fFadeOut = FLOAT100;

  0000b	b8 64 00 00 00	 mov	 eax, 100		; 00000064H
  00010	89 45 f0	 mov	 DWORD PTR tv249[ebp], eax
  00013	db 45 f0	 fild	 DWORD PTR tv249[ebp]
  00016	85 c0		 test	 eax, eax
  00018	79 06		 jns	 SHORT $LN23@AimedFireT
  0001a	d8 05 00 00 00
	00		 fadd	 DWORD PTR __real@4f800000
$LN23@AimedFireT:

; 539  : 	if( !bHold )

  00020	0f 57 c0	 xorps	 xmm0, xmm0
  00023	d9 5d fc	 fstp	 DWORD PTR _fFadeOut$[ebp]
  00026	32 d2		 xor	 dl, dl
  00028	38 55 18	 cmp	 BYTE PTR _bHold$[ebp], dl
  0002b	75 05		 jne	 SHORT $LN22@AimedFireT

; 540  : 		fFadeOut = 0.0f;

  0002d	f3 0f 11 45 fc	 movss	 DWORD PTR _fFadeOut$[ebp], xmm0
$LN22@AimedFireT:

; 541  : 
; 542  : 	bool bAniFx1 = false;

  00032	88 55 f8	 mov	 BYTE PTR _bAniFx1$[ebp], dl

; 543  : 	bool bAniFx2 = true;

  00035	c6 45 f4 01	 mov	 BYTE PTR _bAniFx2$[ebp], 1

; 544  : 
; 545  : 	if( fWeight > FLOAT05 )

  00039	b8 05 00 00 00	 mov	 eax, 5
  0003e	8b c8		 mov	 ecx, eax
  00040	b8 0a 00 00 00	 mov	 eax, 10			; 0000000aH
  00045	d9 45 0c	 fld	 DWORD PTR _fWeight$[ebp]
  00048	89 4d f0	 mov	 DWORD PTR tv243[ebp], ecx
  0004b	db 45 f0	 fild	 DWORD PTR tv243[ebp]
  0004e	85 c9		 test	 ecx, ecx
  00050	79 06		 jns	 SHORT $LN24@AimedFireT
  00052	d8 05 00 00 00
	00		 fadd	 DWORD PTR __real@4f800000
$LN24@AimedFireT:
  00058	89 45 f0	 mov	 DWORD PTR tv239[ebp], eax
  0005b	db 45 f0	 fild	 DWORD PTR tv239[ebp]
  0005e	85 c0		 test	 eax, eax
  00060	79 06		 jns	 SHORT $LN25@AimedFireT
  00062	d8 05 00 00 00
	00		 fadd	 DWORD PTR __real@4f800000
$LN25@AimedFireT:
  00068	de f9		 fdivp	 ST(1), ST(0)
  0006a	d9 5d f0	 fstp	 DWORD PTR tv235[ebp]
  0006d	d9 45 f0	 fld	 DWORD PTR tv235[ebp]
  00070	d9 c9		 fxch	 ST(1)
  00072	df f1		 fcomip	 ST(1)
  00074	dd d8		 fstp	 ST(0)
  00076	76 07		 jbe	 SHORT $LN2@AimedFireT

; 546  : 	{
; 547  : 		bAniFx1 = true;

  00078	c6 45 f8 01	 mov	 BYTE PTR _bAniFx1$[ebp], 1

; 548  : 		bAniFx2 = false;

  0007c	88 55 f4	 mov	 BYTE PTR _bAniFx2$[ebp], dl
$LN2@AimedFireT:

; 549  : 	}
; 550  : 
; 551  : 	if( fWeight > 0.0f )

  0007f	f3 0f 10 4d 0c	 movss	 xmm1, DWORD PTR _fWeight$[ebp]
  00084	0f 2f c8	 comiss	 xmm1, xmm0
  00087	8b 35 00 00 00
	00		 mov	 esi, DWORD PTR __imp_?SetActionAni@ioEntityGroup@@QAE_NABVioHashString@@MMMMMM_N1@Z
  0008d	76 7f		 jbe	 SHORT $LN1@AimedFireT

; 552  : 	{
; 553  : 		pGrp->SetActionAni( m_FireUpAni,
; 554  : 			FLOAT100, fFadeOut,
; 555  : 			fWeight, FLOAT1/fTimeRate,
; 556  : 			0.0f, dwPreDelay,
; 557  : 			bHold, bAniFx1 );

  0008f	b8 01 00 00 00	 mov	 eax, 1
  00094	8b c8		 mov	 ecx, eax
  00096	b8 64 00 00 00	 mov	 eax, 100		; 00000064H
  0009b	db 45 14	 fild	 DWORD PTR _dwPreDelay$[ebp]
  0009e	ff 75 f8	 push	 DWORD PTR _bAniFx1$[ebp]
  000a1	8b 55 14	 mov	 edx, DWORD PTR _dwPreDelay$[ebp]
  000a4	ff 75 18	 push	 DWORD PTR _bHold$[ebp]
  000a7	85 d2		 test	 edx, edx
  000a9	79 06		 jns	 SHORT $LN26@AimedFireT
  000ab	d8 05 00 00 00
	00		 fadd	 DWORD PTR __real@4f800000
$LN26@AimedFireT:
  000b1	83 ec 18	 sub	 esp, 24			; 00000018H
  000b4	d9 5c 24 14	 fstp	 DWORD PTR [esp+20]
  000b8	89 4d f0	 mov	 DWORD PTR tv198[ebp], ecx
  000bb	db 45 f0	 fild	 DWORD PTR tv198[ebp]
  000be	f3 0f 11 44 24
	10		 movss	 DWORD PTR [esp+16], xmm0
  000c4	85 c9		 test	 ecx, ecx
  000c6	79 06		 jns	 SHORT $LN27@AimedFireT
  000c8	d8 05 00 00 00
	00		 fadd	 DWORD PTR __real@4f800000
$LN27@AimedFireT:
  000ce	d8 75 10	 fdiv	 DWORD PTR _fTimeRate$[ebp]
  000d1	f3 0f 10 45 fc	 movss	 xmm0, DWORD PTR _fFadeOut$[ebp]
  000d6	d9 5d f0	 fstp	 DWORD PTR tv199[ebp]
  000d9	d9 45 f0	 fld	 DWORD PTR tv199[ebp]
  000dc	d9 5c 24 0c	 fstp	 DWORD PTR [esp+12]
  000e0	89 45 f0	 mov	 DWORD PTR tv194[ebp], eax
  000e3	db 45 f0	 fild	 DWORD PTR tv194[ebp]
  000e6	f3 0f 11 4c 24
	08		 movss	 DWORD PTR [esp+8], xmm1
  000ec	f3 0f 11 44 24
	04		 movss	 DWORD PTR [esp+4], xmm0
  000f2	85 c0		 test	 eax, eax
  000f4	79 06		 jns	 SHORT $LN28@AimedFireT
  000f6	d8 05 00 00 00
	00		 fadd	 DWORD PTR __real@4f800000
$LN28@AimedFireT:
  000fc	8b 4d 08	 mov	 ecx, DWORD PTR _pGrp$[ebp]
  000ff	d9 1c 24	 fstp	 DWORD PTR [esp]
  00102	8d 87 f0 12 00
	00		 lea	 eax, DWORD PTR [edi+4848]
  00108	50		 push	 eax
  00109	ff d6		 call	 esi
  0010b	0f 57 c0	 xorps	 xmm0, xmm0
$LN1@AimedFireT:

; 558  : 	}
; 559  : 
; 560  : 	pGrp->SetActionAni( GetAttribute().m_AttackAnimation,
; 561  : 						FLOAT100, fFadeOut,
; 562  : 						FLOAT1 - fWeight, FLOAT1/fTimeRate,
; 563  : 						0.0f, dwPreDelay,
; 564  : 						bHold, bAniFx2 );

  0010e	b8 01 00 00 00	 mov	 eax, 1
  00113	8b c8		 mov	 ecx, eax
  00115	b8 01 00 00 00	 mov	 eax, 1
  0011a	8b d0		 mov	 edx, eax
  0011c	b8 64 00 00 00	 mov	 eax, 100		; 00000064H
  00121	db 45 14	 fild	 DWORD PTR _dwPreDelay$[ebp]
  00124	ff 75 f4	 push	 DWORD PTR _bAniFx2$[ebp]
  00127	8b 5d 14	 mov	 ebx, DWORD PTR _dwPreDelay$[ebp]
  0012a	ff 75 18	 push	 DWORD PTR _bHold$[ebp]
  0012d	85 db		 test	 ebx, ebx
  0012f	79 06		 jns	 SHORT $LN29@AimedFireT
  00131	d8 05 00 00 00
	00		 fadd	 DWORD PTR __real@4f800000
$LN29@AimedFireT:
  00137	83 ec 18	 sub	 esp, 24			; 00000018H
  0013a	d9 5c 24 14	 fstp	 DWORD PTR [esp+20]
  0013e	89 4d 18	 mov	 DWORD PTR tv171[ebp], ecx
  00141	db 45 18	 fild	 DWORD PTR tv171[ebp]
  00144	f3 0f 11 44 24
	10		 movss	 DWORD PTR [esp+16], xmm0
  0014a	85 c9		 test	 ecx, ecx
  0014c	79 06		 jns	 SHORT $LN30@AimedFireT
  0014e	d8 05 00 00 00
	00		 fadd	 DWORD PTR __real@4f800000
$LN30@AimedFireT:
  00154	d8 75 10	 fdiv	 DWORD PTR _fTimeRate$[ebp]
  00157	d9 5d 18	 fstp	 DWORD PTR tv168[ebp]
  0015a	d9 45 18	 fld	 DWORD PTR tv168[ebp]
  0015d	d9 5c 24 0c	 fstp	 DWORD PTR [esp+12]
  00161	89 55 18	 mov	 DWORD PTR tv164[ebp], edx
  00164	db 45 18	 fild	 DWORD PTR tv164[ebp]
  00167	85 d2		 test	 edx, edx
  00169	79 06		 jns	 SHORT $LN31@AimedFireT
  0016b	d8 05 00 00 00
	00		 fadd	 DWORD PTR __real@4f800000
$LN31@AimedFireT:
  00171	d8 65 0c	 fsub	 DWORD PTR _fWeight$[ebp]
  00174	f3 0f 10 45 fc	 movss	 xmm0, DWORD PTR _fFadeOut$[ebp]
  00179	d9 5d 18	 fstp	 DWORD PTR tv136[ebp]
  0017c	d9 45 18	 fld	 DWORD PTR tv136[ebp]
  0017f	89 45 18	 mov	 DWORD PTR tv93[ebp], eax
  00182	d9 5c 24 08	 fstp	 DWORD PTR [esp+8]
  00186	f3 0f 11 44 24
	04		 movss	 DWORD PTR [esp+4], xmm0
  0018c	db 45 18	 fild	 DWORD PTR tv93[ebp]
  0018f	85 c0		 test	 eax, eax
  00191	79 06		 jns	 SHORT $LN32@AimedFireT
  00193	d8 05 00 00 00
	00		 fadd	 DWORD PTR __real@4f800000
$LN32@AimedFireT:
  00199	8b 07		 mov	 eax, DWORD PTR [edi]
  0019b	d9 1c 24	 fstp	 DWORD PTR [esp]
  0019e	8b cf		 mov	 ecx, edi
  001a0	ff 90 a4 01 00
	00		 call	 DWORD PTR [eax+420]
  001a6	8b 4d 08	 mov	 ecx, DWORD PTR _pGrp$[ebp]
  001a9	50		 push	 eax
  001aa	ff d6		 call	 esi
  001ac	5f		 pop	 edi
  001ad	5e		 pop	 esi
  001ae	5b		 pop	 ebx

; 565  : }

  001af	c9		 leave
  001b0	c2 14 00	 ret	 20			; 00000014H
?AimedFireToUp@ioFireSkill2@@IAEXPAVioEntityGroup@@MMK_N@Z ENDP ; ioFireSkill2::AimedFireToUp
_TEXT	ENDS
PUBLIC	?AimedFireToDown@ioFireSkill2@@IAEXPAVioEntityGroup@@MMK_N@Z ; ioFireSkill2::AimedFireToDown
; Function compile flags: /Ogsp
;	COMDAT ?AimedFireToDown@ioFireSkill2@@IAEXPAVioEntityGroup@@MMK_N@Z
_TEXT	SEGMENT
tv249 = -16						; size = 4
tv243 = -16						; size = 4
tv239 = -16						; size = 4
tv235 = -16						; size = 4
tv225 = -16						; size = 4
tv199 = -16						; size = 4
tv198 = -16						; size = 4
tv194 = -16						; size = 4
_bAniFx1$ = -12						; size = 1
_bAniFx2$ = -8						; size = 1
_fFadeOut$ = -4						; size = 4
_pGrp$ = 8						; size = 4
_fWeight$ = 12						; size = 4
_fTimeRate$ = 16					; size = 4
_dwPreDelay$ = 20					; size = 4
tv177 = 24						; size = 4
tv171 = 24						; size = 4
tv168 = 24						; size = 4
tv164 = 24						; size = 4
tv136 = 24						; size = 4
tv93 = 24						; size = 4
_bHold$ = 24						; size = 1
?AimedFireToDown@ioFireSkill2@@IAEXPAVioEntityGroup@@MMK_N@Z PROC ; ioFireSkill2::AimedFireToDown, COMDAT
; _this$ = ecx

; 572  : {

  00000	55		 push	 ebp
  00001	8b ec		 mov	 ebp, esp
  00003	83 ec 10	 sub	 esp, 16			; 00000010H
  00006	53		 push	 ebx
  00007	56		 push	 esi
  00008	57		 push	 edi
  00009	8b f9		 mov	 edi, ecx

; 573  : 	float fFadeOut = FLOAT100;

  0000b	b8 64 00 00 00	 mov	 eax, 100		; 00000064H
  00010	89 45 f0	 mov	 DWORD PTR tv249[ebp], eax
  00013	db 45 f0	 fild	 DWORD PTR tv249[ebp]
  00016	85 c0		 test	 eax, eax
  00018	79 06		 jns	 SHORT $LN23@AimedFireT@2
  0001a	d8 05 00 00 00
	00		 fadd	 DWORD PTR __real@4f800000
$LN23@AimedFireT@2:

; 574  : 	if( !bHold )

  00020	0f 57 c0	 xorps	 xmm0, xmm0
  00023	d9 5d fc	 fstp	 DWORD PTR _fFadeOut$[ebp]
  00026	32 d2		 xor	 dl, dl
  00028	38 55 18	 cmp	 BYTE PTR _bHold$[ebp], dl
  0002b	75 05		 jne	 SHORT $LN22@AimedFireT@2

; 575  : 		fFadeOut = 0.0f;

  0002d	f3 0f 11 45 fc	 movss	 DWORD PTR _fFadeOut$[ebp], xmm0
$LN22@AimedFireT@2:

; 576  : 	bool bAniFx1 = true;

  00032	c6 45 f4 01	 mov	 BYTE PTR _bAniFx1$[ebp], 1

; 577  : 	bool bAniFx2 = false;

  00036	88 55 f8	 mov	 BYTE PTR _bAniFx2$[ebp], dl

; 578  : 
; 579  : 	if( fWeight > FLOAT05 )

  00039	b8 05 00 00 00	 mov	 eax, 5
  0003e	8b c8		 mov	 ecx, eax
  00040	b8 0a 00 00 00	 mov	 eax, 10			; 0000000aH
  00045	d9 45 0c	 fld	 DWORD PTR _fWeight$[ebp]
  00048	89 4d f0	 mov	 DWORD PTR tv243[ebp], ecx
  0004b	db 45 f0	 fild	 DWORD PTR tv243[ebp]
  0004e	85 c9		 test	 ecx, ecx
  00050	79 06		 jns	 SHORT $LN24@AimedFireT@2
  00052	d8 05 00 00 00
	00		 fadd	 DWORD PTR __real@4f800000
$LN24@AimedFireT@2:
  00058	89 45 f0	 mov	 DWORD PTR tv239[ebp], eax
  0005b	db 45 f0	 fild	 DWORD PTR tv239[ebp]
  0005e	85 c0		 test	 eax, eax
  00060	79 06		 jns	 SHORT $LN25@AimedFireT@2
  00062	d8 05 00 00 00
	00		 fadd	 DWORD PTR __real@4f800000
$LN25@AimedFireT@2:
  00068	de f9		 fdivp	 ST(1), ST(0)
  0006a	d9 5d f0	 fstp	 DWORD PTR tv235[ebp]
  0006d	d9 45 f0	 fld	 DWORD PTR tv235[ebp]
  00070	d9 c9		 fxch	 ST(1)
  00072	df f1		 fcomip	 ST(1)
  00074	dd d8		 fstp	 ST(0)
  00076	76 07		 jbe	 SHORT $LN2@AimedFireT@2

; 580  : 	{
; 581  : 		bAniFx1 = false;

  00078	88 55 f4	 mov	 BYTE PTR _bAniFx1$[ebp], dl

; 582  : 		bAniFx2 = true;

  0007b	c6 45 f8 01	 mov	 BYTE PTR _bAniFx2$[ebp], 1
$LN2@AimedFireT@2:

; 583  : 	}
; 584  : 
; 585  : 	if( fWeight > 0.0f )

  0007f	f3 0f 10 4d 0c	 movss	 xmm1, DWORD PTR _fWeight$[ebp]
  00084	0f 2f c8	 comiss	 xmm1, xmm0
  00087	8b 35 00 00 00
	00		 mov	 esi, DWORD PTR __imp_?SetActionAni@ioEntityGroup@@QAE_NABVioHashString@@MMMMMM_N1@Z
  0008d	76 7f		 jbe	 SHORT $LN1@AimedFireT@2

; 586  : 	{
; 587  : 		pGrp->SetActionAni( m_FireDownAni,
; 588  : 							FLOAT100, fFadeOut,
; 589  : 							fWeight, FLOAT1/fTimeRate,
; 590  : 							0.0f, dwPreDelay,
; 591  : 							bHold, bAniFx2 );

  0008f	b8 01 00 00 00	 mov	 eax, 1
  00094	8b c8		 mov	 ecx, eax
  00096	b8 64 00 00 00	 mov	 eax, 100		; 00000064H
  0009b	db 45 14	 fild	 DWORD PTR _dwPreDelay$[ebp]
  0009e	ff 75 f8	 push	 DWORD PTR _bAniFx2$[ebp]
  000a1	8b 55 14	 mov	 edx, DWORD PTR _dwPreDelay$[ebp]
  000a4	ff 75 18	 push	 DWORD PTR _bHold$[ebp]
  000a7	85 d2		 test	 edx, edx
  000a9	79 06		 jns	 SHORT $LN26@AimedFireT@2
  000ab	d8 05 00 00 00
	00		 fadd	 DWORD PTR __real@4f800000
$LN26@AimedFireT@2:
  000b1	83 ec 18	 sub	 esp, 24			; 00000018H
  000b4	d9 5c 24 14	 fstp	 DWORD PTR [esp+20]
  000b8	89 4d f0	 mov	 DWORD PTR tv198[ebp], ecx
  000bb	db 45 f0	 fild	 DWORD PTR tv198[ebp]
  000be	f3 0f 11 44 24
	10		 movss	 DWORD PTR [esp+16], xmm0
  000c4	85 c9		 test	 ecx, ecx
  000c6	79 06		 jns	 SHORT $LN27@AimedFireT@2
  000c8	d8 05 00 00 00
	00		 fadd	 DWORD PTR __real@4f800000
$LN27@AimedFireT@2:
  000ce	d8 75 10	 fdiv	 DWORD PTR _fTimeRate$[ebp]
  000d1	f3 0f 10 45 fc	 movss	 xmm0, DWORD PTR _fFadeOut$[ebp]
  000d6	d9 5d f0	 fstp	 DWORD PTR tv199[ebp]
  000d9	d9 45 f0	 fld	 DWORD PTR tv199[ebp]
  000dc	d9 5c 24 0c	 fstp	 DWORD PTR [esp+12]
  000e0	89 45 f0	 mov	 DWORD PTR tv194[ebp], eax
  000e3	db 45 f0	 fild	 DWORD PTR tv194[ebp]
  000e6	f3 0f 11 4c 24
	08		 movss	 DWORD PTR [esp+8], xmm1
  000ec	f3 0f 11 44 24
	04		 movss	 DWORD PTR [esp+4], xmm0
  000f2	85 c0		 test	 eax, eax
  000f4	79 06		 jns	 SHORT $LN28@AimedFireT@2
  000f6	d8 05 00 00 00
	00		 fadd	 DWORD PTR __real@4f800000
$LN28@AimedFireT@2:
  000fc	8b 4d 08	 mov	 ecx, DWORD PTR _pGrp$[ebp]
  000ff	d9 1c 24	 fstp	 DWORD PTR [esp]
  00102	8d 87 00 13 00
	00		 lea	 eax, DWORD PTR [edi+4864]
  00108	50		 push	 eax
  00109	ff d6		 call	 esi
  0010b	0f 57 c0	 xorps	 xmm0, xmm0
$LN1@AimedFireT@2:

; 592  : 	}
; 593  : 
; 594  : 	pGrp->SetActionAni( GetAttribute().m_AttackAnimation,
; 595  : 						FLOAT100, fFadeOut,
; 596  : 						FLOAT1 - fWeight, FLOAT1/fTimeRate,
; 597  : 						0.0f, dwPreDelay,
; 598  : 						bHold, bAniFx1 );

  0010e	b8 01 00 00 00	 mov	 eax, 1
  00113	8b c8		 mov	 ecx, eax
  00115	b8 01 00 00 00	 mov	 eax, 1
  0011a	8b d0		 mov	 edx, eax
  0011c	b8 64 00 00 00	 mov	 eax, 100		; 00000064H
  00121	db 45 14	 fild	 DWORD PTR _dwPreDelay$[ebp]
  00124	ff 75 f4	 push	 DWORD PTR _bAniFx1$[ebp]
  00127	8b 5d 14	 mov	 ebx, DWORD PTR _dwPreDelay$[ebp]
  0012a	ff 75 18	 push	 DWORD PTR _bHold$[ebp]
  0012d	85 db		 test	 ebx, ebx
  0012f	79 06		 jns	 SHORT $LN29@AimedFireT@2
  00131	d8 05 00 00 00
	00		 fadd	 DWORD PTR __real@4f800000
$LN29@AimedFireT@2:
  00137	83 ec 18	 sub	 esp, 24			; 00000018H
  0013a	d9 5c 24 14	 fstp	 DWORD PTR [esp+20]
  0013e	89 4d 18	 mov	 DWORD PTR tv171[ebp], ecx
  00141	db 45 18	 fild	 DWORD PTR tv171[ebp]
  00144	f3 0f 11 44 24
	10		 movss	 DWORD PTR [esp+16], xmm0
  0014a	85 c9		 test	 ecx, ecx
  0014c	79 06		 jns	 SHORT $LN30@AimedFireT@2
  0014e	d8 05 00 00 00
	00		 fadd	 DWORD PTR __real@4f800000
$LN30@AimedFireT@2:
  00154	d8 75 10	 fdiv	 DWORD PTR _fTimeRate$[ebp]
  00157	d9 5d 18	 fstp	 DWORD PTR tv168[ebp]
  0015a	d9 45 18	 fld	 DWORD PTR tv168[ebp]
  0015d	d9 5c 24 0c	 fstp	 DWORD PTR [esp+12]
  00161	89 55 18	 mov	 DWORD PTR tv164[ebp], edx
  00164	db 45 18	 fild	 DWORD PTR tv164[ebp]
  00167	85 d2		 test	 edx, edx
  00169	79 06		 jns	 SHORT $LN31@AimedFireT@2
  0016b	d8 05 00 00 00
	00		 fadd	 DWORD PTR __real@4f800000
$LN31@AimedFireT@2:
  00171	d8 65 0c	 fsub	 DWORD PTR _fWeight$[ebp]
  00174	f3 0f 10 45 fc	 movss	 xmm0, DWORD PTR _fFadeOut$[ebp]
  00179	d9 5d 18	 fstp	 DWORD PTR tv136[ebp]
  0017c	d9 45 18	 fld	 DWORD PTR tv136[ebp]
  0017f	89 45 18	 mov	 DWORD PTR tv93[ebp], eax
  00182	d9 5c 24 08	 fstp	 DWORD PTR [esp+8]
  00186	f3 0f 11 44 24
	04		 movss	 DWORD PTR [esp+4], xmm0
  0018c	db 45 18	 fild	 DWORD PTR tv93[ebp]
  0018f	85 c0		 test	 eax, eax
  00191	79 06		 jns	 SHORT $LN32@AimedFireT@2
  00193	d8 05 00 00 00
	00		 fadd	 DWORD PTR __real@4f800000
$LN32@AimedFireT@2:
  00199	8b 07		 mov	 eax, DWORD PTR [edi]
  0019b	d9 1c 24	 fstp	 DWORD PTR [esp]
  0019e	8b cf		 mov	 ecx, edi
  001a0	ff 90 a4 01 00
	00		 call	 DWORD PTR [eax+420]
  001a6	8b 4d 08	 mov	 ecx, DWORD PTR _pGrp$[ebp]
  001a9	50		 push	 eax
  001aa	ff d6		 call	 esi
  001ac	5f		 pop	 edi
  001ad	5e		 pop	 esi
  001ae	5b		 pop	 ebx

; 599  : }

  001af	c9		 leave
  001b0	c2 14 00	 ret	 20			; 00000014H
?AimedFireToDown@ioFireSkill2@@IAEXPAVioEntityGroup@@MMK_N@Z ENDP ; ioFireSkill2::AimedFireToDown
_TEXT	ENDS
PUBLIC	?CheckDownAimState@ioFireSkill2@@IAE_NPAVioBaseChar@@@Z ; ioFireSkill2::CheckDownAimState
EXTRN	?IsApplyDownState@ioBaseChar@@QAE_N_N@Z:PROC	; ioBaseChar::IsApplyDownState
EXTRN	?IsFloatingState@ioBaseChar@@QBE_NXZ:PROC	; ioBaseChar::IsFloatingState
; Function compile flags: /Ogsp
;	COMDAT ?CheckDownAimState@ioFireSkill2@@IAE_NPAVioBaseChar@@@Z
_TEXT	SEGMENT
_pTarget$ = 8						; size = 4
?CheckDownAimState@ioFireSkill2@@IAE_NPAVioBaseChar@@@Z PROC ; ioFireSkill2::CheckDownAimState, COMDAT
; _this$ = ecx

; 733  : {

  00000	55		 push	 ebp
  00001	8b ec		 mov	 ebp, esp

; 734  : 	if( !pTarget ) return false;

  00003	8b 4d 08	 mov	 ecx, DWORD PTR _pTarget$[ebp]
  00006	33 d2		 xor	 edx, edx
  00008	3b ca		 cmp	 ecx, edx
  0000a	74 23		 je	 SHORT $LN1@CheckDownA

; 735  : 
; 736  : 	CharState eState = pTarget->GetState();

  0000c	8a 81 10 03 00
	00		 mov	 al, BYTE PTR [ecx+784]

; 737  : 
; 738  : 	if( eState == CS_FROZEN && pTarget->GetBlowFrozenState() )

  00012	3c 17		 cmp	 al, 23			; 00000017H
  00014	75 0c		 jne	 SHORT $LN6@CheckDownA
  00016	38 91 c5 15 00
	00		 cmp	 BYTE PTR [ecx+5573], dl
$LN17@CheckDownA:
  0001c	74 11		 je	 SHORT $LN1@CheckDownA
$LN16@CheckDownA:

; 739  : 		return true;

  0001e	b0 01		 mov	 al, 1
  00020	eb 0f		 jmp	 SHORT $LN8@CheckDownA
$LN6@CheckDownA:

; 740  : 
; 741  : 	if( eState == CS_BLOW_WOUNDED && !pTarget->IsFloatingState() )

  00022	3c 0c		 cmp	 al, 12			; 0000000cH
  00024	75 0f		 jne	 SHORT $LN5@CheckDownA
$LN19@CheckDownA:
  00026	e8 00 00 00 00	 call	 ?IsFloatingState@ioBaseChar@@QBE_NXZ ; ioBaseChar::IsFloatingState
  0002b	84 c0		 test	 al, al
  0002d	74 ef		 je	 SHORT $LN16@CheckDownA
$LN1@CheckDownA:

; 755  : 
; 756  : 	return false;

  0002f	32 c0		 xor	 al, al
$LN8@CheckDownA:

; 757  : }

  00031	5d		 pop	 ebp
  00032	c2 04 00	 ret	 4
$LN5@CheckDownA:

; 742  : 		return true;
; 743  : 
; 744  : 	if( eState == CS_BOUND_BLOW_WOUNDED && !pTarget->IsFloatingState() )

  00035	3c 31		 cmp	 al, 49			; 00000031H

; 745  : 		return true;

  00037	74 ed		 je	 SHORT $LN19@CheckDownA

; 746  : 
; 747  : 	if( eState == CS_ETC_STATE && pTarget->IsApplyDownState(false) )

  00039	3c 0f		 cmp	 al, 15			; 0000000fH
  0003b	75 0a		 jne	 SHORT $LN3@CheckDownA
$LN18@CheckDownA:
  0003d	52		 push	 edx
  0003e	e8 00 00 00 00	 call	 ?IsApplyDownState@ioBaseChar@@QAE_N_N@Z ; ioBaseChar::IsApplyDownState
  00043	84 c0		 test	 al, al

; 748  : 		return true;

  00045	eb d5		 jmp	 SHORT $LN17@CheckDownA
$LN3@CheckDownA:

; 749  : 
; 750  : 	if( eState == CS_USING_SKILL && pTarget->IsApplyDownState(false) )

  00047	3c 07		 cmp	 al, 7

; 751  : 		return true;

  00049	74 f2		 je	 SHORT $LN18@CheckDownA

; 752  : 
; 753  : 	if( eState == CS_STOP_MOTION && pTarget->GetBlowStopMotionState() )

  0004b	3c 26		 cmp	 al, 38			; 00000026H
  0004d	75 e0		 jne	 SHORT $LN1@CheckDownA
  0004f	38 91 c7 15 00
	00		 cmp	 BYTE PTR [ecx+5575], dl

; 754  : 		return true;

  00055	eb c5		 jmp	 SHORT $LN17@CheckDownA
?CheckDownAimState@ioFireSkill2@@IAE_NPAVioBaseChar@@@Z ENDP ; ioFireSkill2::CheckDownAimState
_TEXT	ENDS
PUBLIC	?size@?$vector@V?$basic_string@DU?$char_traits@D@std@@V?$allocator@D@2@@std@@V?$allocator@V?$basic_string@DU?$char_traits@D@std@@V?$allocator@D@2@@std@@@2@@std@@QBEIXZ ; std::vector<std::basic_string<char,std::char_traits<char>,std::allocator<char> >,std::allocator<std::basic_string<char,std::char_traits<char>,std::allocator<char> > > >::size
; Function compile flags: /Ogsp
; File c:\program files (x86)\microsoft visual studio 10.0\vc\include\vector
;	COMDAT ?size@?$vector@V?$basic_string@DU?$char_traits@D@std@@V?$allocator@D@2@@std@@V?$allocator@V?$basic_string@DU?$char_traits@D@std@@V?$allocator@D@2@@std@@@2@@std@@QBEIXZ
_TEXT	SEGMENT
?size@?$vector@V?$basic_string@DU?$char_traits@D@std@@V?$allocator@D@2@@std@@V?$allocator@V?$basic_string@DU?$char_traits@D@std@@V?$allocator@D@2@@std@@@2@@std@@QBEIXZ PROC ; std::vector<std::basic_string<char,std::char_traits<char>,std::allocator<char> >,std::allocator<std::basic_string<char,std::char_traits<char>,std::allocator<char> > > >::size, COMDAT
; _this$ = ecx

; 879  : 		return (this->_Mylast - this->_Myfirst);

  00000	8b 41 04	 mov	 eax, DWORD PTR [ecx+4]
  00003	2b 01		 sub	 eax, DWORD PTR [ecx]
  00005	6a 1c		 push	 28			; 0000001cH
  00007	99		 cdq
  00008	59		 pop	 ecx
  00009	f7 f9		 idiv	 ecx

; 880  : 		}

  0000b	c3		 ret	 0
?size@?$vector@V?$basic_string@DU?$char_traits@D@std@@V?$allocator@D@2@@std@@V?$allocator@V?$basic_string@DU?$char_traits@D@std@@V?$allocator@D@2@@std@@@2@@std@@QBEIXZ ENDP ; std::vector<std::basic_string<char,std::char_traits<char>,std::allocator<char> >,std::allocator<std::basic_string<char,std::char_traits<char>,std::allocator<char> > > >::size
_TEXT	ENDS
PUBLIC	??A?$vector@V?$basic_string@DU?$char_traits@D@std@@V?$allocator@D@2@@std@@V?$allocator@V?$basic_string@DU?$char_traits@D@std@@V?$allocator@D@2@@std@@@2@@std@@QBEABV?$basic_string@DU?$char_traits@D@std@@V?$allocator@D@2@@1@I@Z ; std::vector<std::basic_string<char,std::char_traits<char>,std::allocator<char> >,std::allocator<std::basic_string<char,std::char_traits<char>,std::allocator<char> > > >::operator[]
; Function compile flags: /Ogsp
;	COMDAT ??A?$vector@V?$basic_string@DU?$char_traits@D@std@@V?$allocator@D@2@@std@@V?$allocator@V?$basic_string@DU?$char_traits@D@std@@V?$allocator@D@2@@std@@@2@@std@@QBEABV?$basic_string@DU?$char_traits@D@std@@V?$allocator@D@2@@1@I@Z
_TEXT	SEGMENT
__Pos$ = 8						; size = 4
??A?$vector@V?$basic_string@DU?$char_traits@D@std@@V?$allocator@D@2@@std@@V?$allocator@V?$basic_string@DU?$char_traits@D@std@@V?$allocator@D@2@@std@@@2@@std@@QBEABV?$basic_string@DU?$char_traits@D@std@@V?$allocator@D@2@@1@I@Z PROC ; std::vector<std::basic_string<char,std::char_traits<char>,std::allocator<char> >,std::allocator<std::basic_string<char,std::char_traits<char>,std::allocator<char> > > >::operator[], COMDAT
; _this$ = ecx

; 912  : 		{	// subscript nonmutable sequence

  00000	55		 push	 ebp
  00001	8b ec		 mov	 ebp, esp

; 913  :  #if _ITERATOR_DEBUG_LEVEL == 2
; 914  : 		if (size() <= _Pos)
; 915  : 			{	// report error
; 916  : 			_DEBUG_ERROR("vector subscript out of range");
; 917  : 			_SCL_SECURE_OUT_OF_RANGE;
; 918  : 			}
; 919  : 
; 920  :  #elif _ITERATOR_DEBUG_LEVEL == 1
; 921  : 		_SCL_SECURE_VALIDATE_RANGE(_Pos < size());
; 922  :  #endif /* _ITERATOR_DEBUG_LEVEL */
; 923  : 
; 924  : 		return (*(this->_Myfirst + _Pos));

  00003	8b 45 08	 mov	 eax, DWORD PTR __Pos$[ebp]
  00006	6b c0 1c	 imul	 eax, 28			; 0000001cH
  00009	03 01		 add	 eax, DWORD PTR [ecx]

; 925  : 		}

  0000b	5d		 pop	 ebp
  0000c	c2 04 00	 ret	 4
??A?$vector@V?$basic_string@DU?$char_traits@D@std@@V?$allocator@D@2@@std@@V?$allocator@V?$basic_string@DU?$char_traits@D@std@@V?$allocator@D@2@@std@@@2@@std@@QBEABV?$basic_string@DU?$char_traits@D@std@@V?$allocator@D@2@@1@I@Z ENDP ; std::vector<std::basic_string<char,std::char_traits<char>,std::allocator<char> >,std::allocator<std::basic_string<char,std::char_traits<char>,std::allocator<char> > > >::operator[]
_TEXT	ENDS
PUBLIC	?empty@?$vector@UAniRotateInfo@@V?$allocator@UAniRotateInfo@@@std@@@std@@QBE_NXZ ; std::vector<AniRotateInfo,std::allocator<AniRotateInfo> >::empty
; Function compile flags: /Ogsp
;	COMDAT ?empty@?$vector@UAniRotateInfo@@V?$allocator@UAniRotateInfo@@@std@@@std@@QBE_NXZ
_TEXT	SEGMENT
?empty@?$vector@UAniRotateInfo@@V?$allocator@UAniRotateInfo@@@std@@@std@@QBE_NXZ PROC ; std::vector<AniRotateInfo,std::allocator<AniRotateInfo> >::empty, COMDAT
; _this$ = ecx

; 889  : 		return (this->_Myfirst == this->_Mylast);

  00000	8b 01		 mov	 eax, DWORD PTR [ecx]
  00002	2b 41 04	 sub	 eax, DWORD PTR [ecx+4]
  00005	f7 d8		 neg	 eax
  00007	1b c0		 sbb	 eax, eax
  00009	40		 inc	 eax

; 890  : 		}

  0000a	c3		 ret	 0
?empty@?$vector@UAniRotateInfo@@V?$allocator@UAniRotateInfo@@@std@@@std@@QBE_NXZ ENDP ; std::vector<AniRotateInfo,std::allocator<AniRotateInfo> >::empty
_TEXT	ENDS
PUBLIC	??A?$vector@UAniRotateInfo@@V?$allocator@UAniRotateInfo@@@std@@@std@@QAEAAUAniRotateInfo@@I@Z ; std::vector<AniRotateInfo,std::allocator<AniRotateInfo> >::operator[]
; Function compile flags: /Ogsp
;	COMDAT ??A?$vector@UAniRotateInfo@@V?$allocator@UAniRotateInfo@@@std@@@std@@QAEAAUAniRotateInfo@@I@Z
_TEXT	SEGMENT
__Pos$ = 8						; size = 4
??A?$vector@UAniRotateInfo@@V?$allocator@UAniRotateInfo@@@std@@@std@@QAEAAUAniRotateInfo@@I@Z PROC ; std::vector<AniRotateInfo,std::allocator<AniRotateInfo> >::operator[], COMDAT
; _this$ = ecx

; 928  : 		{	// subscript mutable sequence

  00000	55		 push	 ebp
  00001	8b ec		 mov	 ebp, esp

; 929  :  #if _ITERATOR_DEBUG_LEVEL == 2
; 930  : 		if (size() <= _Pos)
; 931  : 			{	// report error
; 932  : 			_DEBUG_ERROR("vector subscript out of range");
; 933  : 			_SCL_SECURE_OUT_OF_RANGE;
; 934  : 			}
; 935  : 
; 936  :  #elif _ITERATOR_DEBUG_LEVEL == 1
; 937  : 		_SCL_SECURE_VALIDATE_RANGE(_Pos < size());
; 938  :  #endif /* _ITERATOR_DEBUG_LEVEL */
; 939  : 
; 940  : 		return (*(this->_Myfirst + _Pos));

  00003	8b 01		 mov	 eax, DWORD PTR [ecx]
  00005	8b 4d 08	 mov	 ecx, DWORD PTR __Pos$[ebp]
  00008	8d 04 c8	 lea	 eax, DWORD PTR [eax+ecx*8]

; 941  : 		}

  0000b	5d		 pop	 ebp
  0000c	c2 04 00	 ret	 4
??A?$vector@UAniRotateInfo@@V?$allocator@UAniRotateInfo@@@std@@@std@@QAEAAUAniRotateInfo@@I@Z ENDP ; std::vector<AniRotateInfo,std::allocator<AniRotateInfo> >::operator[]
_TEXT	ENDS
PUBLIC	?empty@?$vector@UtagBaseCharDistanceSq@@V?$allocator@UtagBaseCharDistanceSq@@@std@@@std@@QBE_NXZ ; std::vector<tagBaseCharDistanceSq,std::allocator<tagBaseCharDistanceSq> >::empty
; Function compile flags: /Ogsp
;	COMDAT ?empty@?$vector@UtagBaseCharDistanceSq@@V?$allocator@UtagBaseCharDistanceSq@@@std@@@std@@QBE_NXZ
_TEXT	SEGMENT
?empty@?$vector@UtagBaseCharDistanceSq@@V?$allocator@UtagBaseCharDistanceSq@@@std@@@std@@QBE_NXZ PROC ; std::vector<tagBaseCharDistanceSq,std::allocator<tagBaseCharDistanceSq> >::empty, COMDAT
; _this$ = ecx

; 889  : 		return (this->_Myfirst == this->_Mylast);

  00000	8b 01		 mov	 eax, DWORD PTR [ecx]
  00002	2b 41 04	 sub	 eax, DWORD PTR [ecx+4]
  00005	f7 d8		 neg	 eax
  00007	1b c0		 sbb	 eax, eax
  00009	40		 inc	 eax

; 890  : 		}

  0000a	c3		 ret	 0
?empty@?$vector@UtagBaseCharDistanceSq@@V?$allocator@UtagBaseCharDistanceSq@@@std@@@std@@QBE_NXZ ENDP ; std::vector<tagBaseCharDistanceSq,std::allocator<tagBaseCharDistanceSq> >::empty
_TEXT	ENDS
PUBLIC	??1?$_Vector_val@PAVioBaseChar@@V?$allocator@PAVioBaseChar@@@std@@@std@@QAE@XZ ; std::_Vector_val<ioBaseChar *,std::allocator<ioBaseChar *> >::~_Vector_val<ioBaseChar *,std::allocator<ioBaseChar *> >
; Function compile flags: /Ogsp
;	COMDAT ??1?$_Vector_val@PAVioBaseChar@@V?$allocator@PAVioBaseChar@@@std@@@std@@QAE@XZ
_TEXT	SEGMENT
??1?$_Vector_val@PAVioBaseChar@@V?$allocator@PAVioBaseChar@@@std@@@std@@QAE@XZ PROC ; std::_Vector_val<ioBaseChar *,std::allocator<ioBaseChar *> >::~_Vector_val<ioBaseChar *,std::allocator<ioBaseChar *> >, COMDAT
; _this$ = ecx

; 434  : 		}

  00000	c3		 ret	 0
??1?$_Vector_val@PAVioBaseChar@@V?$allocator@PAVioBaseChar@@@std@@@std@@QAE@XZ ENDP ; std::_Vector_val<ioBaseChar *,std::allocator<ioBaseChar *> >::~_Vector_val<ioBaseChar *,std::allocator<ioBaseChar *> >
_TEXT	ENDS
PUBLIC	??0?$allocator@PAVioBaseChar@@@std@@QAE@XZ	; std::allocator<ioBaseChar *>::allocator<ioBaseChar *>
; Function compile flags: /Ogsp
; File c:\program files (x86)\microsoft visual studio 10.0\vc\include\xmemory
;	COMDAT ??0?$allocator@PAVioBaseChar@@@std@@QAE@XZ
_TEXT	SEGMENT
??0?$allocator@PAVioBaseChar@@@std@@QAE@XZ PROC		; std::allocator<ioBaseChar *>::allocator<ioBaseChar *>, COMDAT
; _this$ = ecx

; 161  : 	_ALLOCATOR() _THROW0()

  00000	8b c1		 mov	 eax, ecx

; 162  : 		{	// construct default allocator (do nothing)
; 163  : 		}

  00002	c3		 ret	 0
??0?$allocator@PAVioBaseChar@@@std@@QAE@XZ ENDP		; std::allocator<ioBaseChar *>::allocator<ioBaseChar *>
_TEXT	ENDS
PUBLIC	?_Inside@?$vector@UAniRotateInfo@@V?$allocator@UAniRotateInfo@@@std@@@std@@IBE_NPBUAniRotateInfo@@@Z ; std::vector<AniRotateInfo,std::allocator<AniRotateInfo> >::_Inside
; Function compile flags: /Ogsp
; File c:\program files (x86)\microsoft visual studio 10.0\vc\include\vector
;	COMDAT ?_Inside@?$vector@UAniRotateInfo@@V?$allocator@UAniRotateInfo@@@std@@@std@@IBE_NPBUAniRotateInfo@@@Z
_TEXT	SEGMENT
__Ptr$ = 8						; size = 4
?_Inside@?$vector@UAniRotateInfo@@V?$allocator@UAniRotateInfo@@@std@@@std@@IBE_NPBUAniRotateInfo@@@Z PROC ; std::vector<AniRotateInfo,std::allocator<AniRotateInfo> >::_Inside, COMDAT
; _this$ = ecx

; 1285 : 		{	// test if _Ptr points inside vector

  00000	55		 push	 ebp
  00001	8b ec		 mov	 ebp, esp

; 1286 : 		return (_Ptr < this->_Mylast && this->_Myfirst <= _Ptr);

  00003	8b 45 08	 mov	 eax, DWORD PTR __Ptr$[ebp]
  00006	3b 41 04	 cmp	 eax, DWORD PTR [ecx+4]
  00009	73 09		 jae	 SHORT $LN3@Inside
  0000b	39 01		 cmp	 DWORD PTR [ecx], eax
  0000d	77 05		 ja	 SHORT $LN3@Inside
  0000f	33 c0		 xor	 eax, eax
  00011	40		 inc	 eax
  00012	eb 02		 jmp	 SHORT $LN4@Inside
$LN3@Inside:
  00014	33 c0		 xor	 eax, eax
$LN4@Inside:

; 1287 : 		}

  00016	5d		 pop	 ebp
  00017	c2 04 00	 ret	 4
?_Inside@?$vector@UAniRotateInfo@@V?$allocator@UAniRotateInfo@@@std@@@std@@IBE_NPBUAniRotateInfo@@@Z ENDP ; std::vector<AniRotateInfo,std::allocator<AniRotateInfo> >::_Inside
_TEXT	ENDS
PUBLIC	?_Orphan_range@?$vector@UAniRotateInfo@@V?$allocator@UAniRotateInfo@@@std@@@std@@IBEXPAUAniRotateInfo@@0@Z ; std::vector<AniRotateInfo,std::allocator<AniRotateInfo> >::_Orphan_range
; Function compile flags: /Ogsp
;	COMDAT ?_Orphan_range@?$vector@UAniRotateInfo@@V?$allocator@UAniRotateInfo@@@std@@@std@@IBEXPAUAniRotateInfo@@0@Z
_TEXT	SEGMENT
___formal$ = 8						; size = 4
___formal$ = 12						; size = 4
?_Orphan_range@?$vector@UAniRotateInfo@@V?$allocator@UAniRotateInfo@@@std@@@std@@IBEXPAUAniRotateInfo@@0@Z PROC ; std::vector<AniRotateInfo,std::allocator<AniRotateInfo> >::_Orphan_range, COMDAT
; _this$ = ecx

; 1454 : 		}

  00000	c2 08 00	 ret	 8
?_Orphan_range@?$vector@UAniRotateInfo@@V?$allocator@UAniRotateInfo@@@std@@@std@@IBEXPAUAniRotateInfo@@0@Z ENDP ; std::vector<AniRotateInfo,std::allocator<AniRotateInfo> >::_Orphan_range
_TEXT	ENDS
PUBLIC	?_Inside@?$vector@UtagBaseCharDistanceSq@@V?$allocator@UtagBaseCharDistanceSq@@@std@@@std@@IBE_NPBUtagBaseCharDistanceSq@@@Z ; std::vector<tagBaseCharDistanceSq,std::allocator<tagBaseCharDistanceSq> >::_Inside
; Function compile flags: /Ogsp
;	COMDAT ?_Inside@?$vector@UtagBaseCharDistanceSq@@V?$allocator@UtagBaseCharDistanceSq@@@std@@@std@@IBE_NPBUtagBaseCharDistanceSq@@@Z
_TEXT	SEGMENT
__Ptr$ = 8						; size = 4
?_Inside@?$vector@UtagBaseCharDistanceSq@@V?$allocator@UtagBaseCharDistanceSq@@@std@@@std@@IBE_NPBUtagBaseCharDistanceSq@@@Z PROC ; std::vector<tagBaseCharDistanceSq,std::allocator<tagBaseCharDistanceSq> >::_Inside, COMDAT
; _this$ = ecx

; 1285 : 		{	// test if _Ptr points inside vector

  00000	55		 push	 ebp
  00001	8b ec		 mov	 ebp, esp

; 1286 : 		return (_Ptr < this->_Mylast && this->_Myfirst <= _Ptr);

  00003	8b 45 08	 mov	 eax, DWORD PTR __Ptr$[ebp]
  00006	3b 41 04	 cmp	 eax, DWORD PTR [ecx+4]
  00009	73 09		 jae	 SHORT $LN3@Inside@2
  0000b	39 01		 cmp	 DWORD PTR [ecx], eax
  0000d	77 05		 ja	 SHORT $LN3@Inside@2
  0000f	33 c0		 xor	 eax, eax
  00011	40		 inc	 eax
  00012	eb 02		 jmp	 SHORT $LN4@Inside@2
$LN3@Inside@2:
  00014	33 c0		 xor	 eax, eax
$LN4@Inside@2:

; 1287 : 		}

  00016	5d		 pop	 ebp
  00017	c2 04 00	 ret	 4
?_Inside@?$vector@UtagBaseCharDistanceSq@@V?$allocator@UtagBaseCharDistanceSq@@@std@@@std@@IBE_NPBUtagBaseCharDistanceSq@@@Z ENDP ; std::vector<tagBaseCharDistanceSq,std::allocator<tagBaseCharDistanceSq> >::_Inside
_TEXT	ENDS
PUBLIC	?_Orphan_range@?$vector@UtagBaseCharDistanceSq@@V?$allocator@UtagBaseCharDistanceSq@@@std@@@std@@IBEXPAUtagBaseCharDistanceSq@@0@Z ; std::vector<tagBaseCharDistanceSq,std::allocator<tagBaseCharDistanceSq> >::_Orphan_range
; Function compile flags: /Ogsp
;	COMDAT ?_Orphan_range@?$vector@UtagBaseCharDistanceSq@@V?$allocator@UtagBaseCharDistanceSq@@@std@@@std@@IBEXPAUtagBaseCharDistanceSq@@0@Z
_TEXT	SEGMENT
___formal$ = 8						; size = 4
___formal$ = 12						; size = 4
?_Orphan_range@?$vector@UtagBaseCharDistanceSq@@V?$allocator@UtagBaseCharDistanceSq@@@std@@@std@@IBEXPAUtagBaseCharDistanceSq@@0@Z PROC ; std::vector<tagBaseCharDistanceSq,std::allocator<tagBaseCharDistanceSq> >::_Orphan_range, COMDAT
; _this$ = ecx

; 1454 : 		}

  00000	c2 08 00	 ret	 8
?_Orphan_range@?$vector@UtagBaseCharDistanceSq@@V?$allocator@UtagBaseCharDistanceSq@@@std@@@std@@IBEXPAUtagBaseCharDistanceSq@@0@Z ENDP ; std::vector<tagBaseCharDistanceSq,std::allocator<tagBaseCharDistanceSq> >::_Orphan_range
_TEXT	ENDS
PUBLIC	??1?$_Vector_val@UtagBaseCharDistanceSq@@V?$allocator@UtagBaseCharDistanceSq@@@std@@@std@@QAE@XZ ; std::_Vector_val<tagBaseCharDistanceSq,std::allocator<tagBaseCharDistanceSq> >::~_Vector_val<tagBaseCharDistanceSq,std::allocator<tagBaseCharDistanceSq> >
; Function compile flags: /Ogsp
;	COMDAT ??1?$_Vector_val@UtagBaseCharDistanceSq@@V?$allocator@UtagBaseCharDistanceSq@@@std@@@std@@QAE@XZ
_TEXT	SEGMENT
??1?$_Vector_val@UtagBaseCharDistanceSq@@V?$allocator@UtagBaseCharDistanceSq@@@std@@@std@@QAE@XZ PROC ; std::_Vector_val<tagBaseCharDistanceSq,std::allocator<tagBaseCharDistanceSq> >::~_Vector_val<tagBaseCharDistanceSq,std::allocator<tagBaseCharDistanceSq> >, COMDAT
; _this$ = ecx

; 434  : 		}

  00000	c3		 ret	 0
??1?$_Vector_val@UtagBaseCharDistanceSq@@V?$allocator@UtagBaseCharDistanceSq@@@std@@@std@@QAE@XZ ENDP ; std::_Vector_val<tagBaseCharDistanceSq,std::allocator<tagBaseCharDistanceSq> >::~_Vector_val<tagBaseCharDistanceSq,std::allocator<tagBaseCharDistanceSq> >
_TEXT	ENDS
PUBLIC	??0?$allocator@UtagBaseCharDistanceSq@@@std@@QAE@XZ ; std::allocator<tagBaseCharDistanceSq>::allocator<tagBaseCharDistanceSq>
; Function compile flags: /Ogsp
; File c:\program files (x86)\microsoft visual studio 10.0\vc\include\xmemory
;	COMDAT ??0?$allocator@UtagBaseCharDistanceSq@@@std@@QAE@XZ
_TEXT	SEGMENT
??0?$allocator@UtagBaseCharDistanceSq@@@std@@QAE@XZ PROC ; std::allocator<tagBaseCharDistanceSq>::allocator<tagBaseCharDistanceSq>, COMDAT
; _this$ = ecx

; 161  : 	_ALLOCATOR() _THROW0()

  00000	8b c1		 mov	 eax, ecx

; 162  : 		{	// construct default allocator (do nothing)
; 163  : 		}

  00002	c3		 ret	 0
??0?$allocator@UtagBaseCharDistanceSq@@@std@@QAE@XZ ENDP ; std::allocator<tagBaseCharDistanceSq>::allocator<tagBaseCharDistanceSq>
_TEXT	ENDS
PUBLIC	??0?$_Vector_const_iterator@V?$_Vector_val@PAVioBaseChar@@V?$allocator@PAVioBaseChar@@@std@@@std@@@std@@QAE@XZ ; std::_Vector_const_iterator<std::_Vector_val<ioBaseChar *,std::allocator<ioBaseChar *> > >::_Vector_const_iterator<std::_Vector_val<ioBaseChar *,std::allocator<ioBaseChar *> > >
; Function compile flags: /Ogsp
; File c:\program files (x86)\microsoft visual studio 10.0\vc\include\vector
;	COMDAT ??0?$_Vector_const_iterator@V?$_Vector_val@PAVioBaseChar@@V?$allocator@PAVioBaseChar@@@std@@@std@@@std@@QAE@XZ
_TEXT	SEGMENT
??0?$_Vector_const_iterator@V?$_Vector_val@PAVioBaseChar@@V?$allocator@PAVioBaseChar@@@std@@@std@@@std@@QAE@XZ PROC ; std::_Vector_const_iterator<std::_Vector_val<ioBaseChar *,std::allocator<ioBaseChar *> > >::_Vector_const_iterator<std::_Vector_val<ioBaseChar *,std::allocator<ioBaseChar *> > >, COMDAT
; _this$ = ecx

; 40   : 		{	// construct with null pointer

  00000	8b c1		 mov	 eax, ecx
  00002	83 20 00	 and	 DWORD PTR [eax], 0

; 41   : 		}

  00005	c3		 ret	 0
??0?$_Vector_const_iterator@V?$_Vector_val@PAVioBaseChar@@V?$allocator@PAVioBaseChar@@@std@@@std@@@std@@QAE@XZ ENDP ; std::_Vector_const_iterator<std::_Vector_val<ioBaseChar *,std::allocator<ioBaseChar *> > >::_Vector_const_iterator<std::_Vector_val<ioBaseChar *,std::allocator<ioBaseChar *> > >
_TEXT	ENDS
PUBLIC	??D?$_Vector_const_iterator@V?$_Vector_val@PAVioBaseChar@@V?$allocator@PAVioBaseChar@@@std@@@std@@@std@@QBEABQAVioBaseChar@@XZ ; std::_Vector_const_iterator<std::_Vector_val<ioBaseChar *,std::allocator<ioBaseChar *> > >::operator*
; Function compile flags: /Ogsp
;	COMDAT ??D?$_Vector_const_iterator@V?$_Vector_val@PAVioBaseChar@@V?$allocator@PAVioBaseChar@@@std@@@std@@@std@@QBEABQAVioBaseChar@@XZ
_TEXT	SEGMENT
??D?$_Vector_const_iterator@V?$_Vector_val@PAVioBaseChar@@V?$allocator@PAVioBaseChar@@@std@@@std@@@std@@QBEABQAVioBaseChar@@XZ PROC ; std::_Vector_const_iterator<std::_Vector_val<ioBaseChar *,std::allocator<ioBaseChar *> > >::operator*, COMDAT
; _this$ = ecx

; 64   :  #if _ITERATOR_DEBUG_LEVEL == 2
; 65   : 		if (this->_Getcont() == 0
; 66   : 			|| this->_Ptr == 0
; 67   : 			|| this->_Ptr < ((_Myvec *)this->_Getcont())->_Myfirst
; 68   : 			|| ((_Myvec *)this->_Getcont())->_Mylast <= this->_Ptr)
; 69   : 			{	// report error
; 70   : 			_DEBUG_ERROR("vector iterator not dereferencable");
; 71   : 			_SCL_SECURE_OUT_OF_RANGE;
; 72   : 			}
; 73   : 
; 74   :  #elif _ITERATOR_DEBUG_LEVEL == 1
; 75   : 		_SCL_SECURE_VALIDATE(this->_Getcont() != 0);
; 76   : 		_SCL_SECURE_VALIDATE_RANGE(
; 77   : 			this->_Ptr != 0
; 78   : 			&& ((_Myvec *)this->_Getcont())->_Myfirst <= this->_Ptr
; 79   : 			&& this->_Ptr < ((_Myvec *)this->_Getcont())->_Mylast);
; 80   :  #endif /* _ITERATOR_DEBUG_LEVEL */
; 81   : 
; 82   : 		__analysis_assume(this->_Ptr != 0);
; 83   : 
; 84   : 		return (*this->_Ptr);

  00000	8b 01		 mov	 eax, DWORD PTR [ecx]

; 85   : 		}

  00002	c3		 ret	 0
??D?$_Vector_const_iterator@V?$_Vector_val@PAVioBaseChar@@V?$allocator@PAVioBaseChar@@@std@@@std@@@std@@QBEABQAVioBaseChar@@XZ ENDP ; std::_Vector_const_iterator<std::_Vector_val<ioBaseChar *,std::allocator<ioBaseChar *> > >::operator*
_TEXT	ENDS
PUBLIC	??E?$_Vector_const_iterator@V?$_Vector_val@PAVioBaseChar@@V?$allocator@PAVioBaseChar@@@std@@@std@@@std@@QAEAAV01@XZ ; std::_Vector_const_iterator<std::_Vector_val<ioBaseChar *,std::allocator<ioBaseChar *> > >::operator++
; Function compile flags: /Ogsp
;	COMDAT ??E?$_Vector_const_iterator@V?$_Vector_val@PAVioBaseChar@@V?$allocator@PAVioBaseChar@@@std@@@std@@@std@@QAEAAV01@XZ
_TEXT	SEGMENT
??E?$_Vector_const_iterator@V?$_Vector_val@PAVioBaseChar@@V?$allocator@PAVioBaseChar@@@std@@@std@@@std@@QAEAAV01@XZ PROC ; std::_Vector_const_iterator<std::_Vector_val<ioBaseChar *,std::allocator<ioBaseChar *> > >::operator++, COMDAT
; _this$ = ecx

; 93   : 		{	// preincrement

  00000	8b c1		 mov	 eax, ecx

; 94   :  #if _ITERATOR_DEBUG_LEVEL == 2
; 95   : 		if (this->_Getcont() == 0
; 96   : 			|| this->_Ptr == 0
; 97   : 			|| ((_Myvec *)this->_Getcont())->_Mylast <= this->_Ptr)
; 98   : 			{	// report error
; 99   : 			_DEBUG_ERROR("vector iterator not incrementable");
; 100  : 			_SCL_SECURE_OUT_OF_RANGE;
; 101  : 			}
; 102  : 
; 103  :  #elif _ITERATOR_DEBUG_LEVEL == 1
; 104  : 		_SCL_SECURE_VALIDATE(this->_Getcont() != 0);
; 105  : 		_SCL_SECURE_VALIDATE_RANGE(
; 106  : 			this->_Ptr != 0
; 107  : 			&& this->_Ptr < ((_Myvec *)this->_Getcont())->_Mylast);
; 108  :  #endif /* _ITERATOR_DEBUG_LEVEL */
; 109  : 
; 110  : 		++this->_Ptr;

  00002	83 00 04	 add	 DWORD PTR [eax], 4

; 111  : 		return (*this);
; 112  : 		}

  00005	c3		 ret	 0
??E?$_Vector_const_iterator@V?$_Vector_val@PAVioBaseChar@@V?$allocator@PAVioBaseChar@@@std@@@std@@@std@@QAEAAV01@XZ ENDP ; std::_Vector_const_iterator<std::_Vector_val<ioBaseChar *,std::allocator<ioBaseChar *> > >::operator++
_TEXT	ENDS
PUBLIC	??D?$_Vector_const_iterator@V?$_Vector_val@UtagBaseCharDistanceSq@@V?$allocator@UtagBaseCharDistanceSq@@@std@@@std@@@std@@QBEABUtagBaseCharDistanceSq@@XZ ; std::_Vector_const_iterator<std::_Vector_val<tagBaseCharDistanceSq,std::allocator<tagBaseCharDistanceSq> > >::operator*
; Function compile flags: /Ogsp
;	COMDAT ??D?$_Vector_const_iterator@V?$_Vector_val@UtagBaseCharDistanceSq@@V?$allocator@UtagBaseCharDistanceSq@@@std@@@std@@@std@@QBEABUtagBaseCharDistanceSq@@XZ
_TEXT	SEGMENT
??D?$_Vector_const_iterator@V?$_Vector_val@UtagBaseCharDistanceSq@@V?$allocator@UtagBaseCharDistanceSq@@@std@@@std@@@std@@QBEABUtagBaseCharDistanceSq@@XZ PROC ; std::_Vector_const_iterator<std::_Vector_val<tagBaseCharDistanceSq,std::allocator<tagBaseCharDistanceSq> > >::operator*, COMDAT
; _this$ = ecx

; 64   :  #if _ITERATOR_DEBUG_LEVEL == 2
; 65   : 		if (this->_Getcont() == 0
; 66   : 			|| this->_Ptr == 0
; 67   : 			|| this->_Ptr < ((_Myvec *)this->_Getcont())->_Myfirst
; 68   : 			|| ((_Myvec *)this->_Getcont())->_Mylast <= this->_Ptr)
; 69   : 			{	// report error
; 70   : 			_DEBUG_ERROR("vector iterator not dereferencable");
; 71   : 			_SCL_SECURE_OUT_OF_RANGE;
; 72   : 			}
; 73   : 
; 74   :  #elif _ITERATOR_DEBUG_LEVEL == 1
; 75   : 		_SCL_SECURE_VALIDATE(this->_Getcont() != 0);
; 76   : 		_SCL_SECURE_VALIDATE_RANGE(
; 77   : 			this->_Ptr != 0
; 78   : 			&& ((_Myvec *)this->_Getcont())->_Myfirst <= this->_Ptr
; 79   : 			&& this->_Ptr < ((_Myvec *)this->_Getcont())->_Mylast);
; 80   :  #endif /* _ITERATOR_DEBUG_LEVEL */
; 81   : 
; 82   : 		__analysis_assume(this->_Ptr != 0);
; 83   : 
; 84   : 		return (*this->_Ptr);

  00000	8b 01		 mov	 eax, DWORD PTR [ecx]

; 85   : 		}

  00002	c3		 ret	 0
??D?$_Vector_const_iterator@V?$_Vector_val@UtagBaseCharDistanceSq@@V?$allocator@UtagBaseCharDistanceSq@@@std@@@std@@@std@@QBEABUtagBaseCharDistanceSq@@XZ ENDP ; std::_Vector_const_iterator<std::_Vector_val<tagBaseCharDistanceSq,std::allocator<tagBaseCharDistanceSq> > >::operator*
_TEXT	ENDS
PUBLIC	??1?$_Vector_val@PBUAniEventTime@@V?$allocator@PBUAniEventTime@@@std@@@std@@QAE@XZ ; std::_Vector_val<AniEventTime const *,std::allocator<AniEventTime const *> >::~_Vector_val<AniEventTime const *,std::allocator<AniEventTime const *> >
; Function compile flags: /Ogsp
;	COMDAT ??1?$_Vector_val@PBUAniEventTime@@V?$allocator@PBUAniEventTime@@@std@@@std@@QAE@XZ
_TEXT	SEGMENT
??1?$_Vector_val@PBUAniEventTime@@V?$allocator@PBUAniEventTime@@@std@@@std@@QAE@XZ PROC ; std::_Vector_val<AniEventTime const *,std::allocator<AniEventTime const *> >::~_Vector_val<AniEventTime const *,std::allocator<AniEventTime const *> >, COMDAT
; _this$ = ecx

; 434  : 		}

  00000	c3		 ret	 0
??1?$_Vector_val@PBUAniEventTime@@V?$allocator@PBUAniEventTime@@@std@@@std@@QAE@XZ ENDP ; std::_Vector_val<AniEventTime const *,std::allocator<AniEventTime const *> >::~_Vector_val<AniEventTime const *,std::allocator<AniEventTime const *> >
_TEXT	ENDS
PUBLIC	??0?$allocator@PBUAniEventTime@@@std@@QAE@XZ	; std::allocator<AniEventTime const *>::allocator<AniEventTime const *>
; Function compile flags: /Ogsp
; File c:\program files (x86)\microsoft visual studio 10.0\vc\include\xmemory
;	COMDAT ??0?$allocator@PBUAniEventTime@@@std@@QAE@XZ
_TEXT	SEGMENT
??0?$allocator@PBUAniEventTime@@@std@@QAE@XZ PROC	; std::allocator<AniEventTime const *>::allocator<AniEventTime const *>, COMDAT
; _this$ = ecx

; 161  : 	_ALLOCATOR() _THROW0()

  00000	8b c1		 mov	 eax, ecx

; 162  : 		{	// construct default allocator (do nothing)
; 163  : 		}

  00002	c3		 ret	 0
??0?$allocator@PBUAniEventTime@@@std@@QAE@XZ ENDP	; std::allocator<AniEventTime const *>::allocator<AniEventTime const *>
_TEXT	ENDS
PUBLIC	??D?$_Vector_const_iterator@V?$_Vector_val@PBUAniEventTime@@V?$allocator@PBUAniEventTime@@@std@@@std@@@std@@QBEABQBUAniEventTime@@XZ ; std::_Vector_const_iterator<std::_Vector_val<AniEventTime const *,std::allocator<AniEventTime const *> > >::operator*
; Function compile flags: /Ogsp
; File c:\program files (x86)\microsoft visual studio 10.0\vc\include\vector
;	COMDAT ??D?$_Vector_const_iterator@V?$_Vector_val@PBUAniEventTime@@V?$allocator@PBUAniEventTime@@@std@@@std@@@std@@QBEABQBUAniEventTime@@XZ
_TEXT	SEGMENT
??D?$_Vector_const_iterator@V?$_Vector_val@PBUAniEventTime@@V?$allocator@PBUAniEventTime@@@std@@@std@@@std@@QBEABQBUAniEventTime@@XZ PROC ; std::_Vector_const_iterator<std::_Vector_val<AniEventTime const *,std::allocator<AniEventTime const *> > >::operator*, COMDAT
; _this$ = ecx

; 64   :  #if _ITERATOR_DEBUG_LEVEL == 2
; 65   : 		if (this->_Getcont() == 0
; 66   : 			|| this->_Ptr == 0
; 67   : 			|| this->_Ptr < ((_Myvec *)this->_Getcont())->_Myfirst
; 68   : 			|| ((_Myvec *)this->_Getcont())->_Mylast <= this->_Ptr)
; 69   : 			{	// report error
; 70   : 			_DEBUG_ERROR("vector iterator not dereferencable");
; 71   : 			_SCL_SECURE_OUT_OF_RANGE;
; 72   : 			}
; 73   : 
; 74   :  #elif _ITERATOR_DEBUG_LEVEL == 1
; 75   : 		_SCL_SECURE_VALIDATE(this->_Getcont() != 0);
; 76   : 		_SCL_SECURE_VALIDATE_RANGE(
; 77   : 			this->_Ptr != 0
; 78   : 			&& ((_Myvec *)this->_Getcont())->_Myfirst <= this->_Ptr
; 79   : 			&& this->_Ptr < ((_Myvec *)this->_Getcont())->_Mylast);
; 80   :  #endif /* _ITERATOR_DEBUG_LEVEL */
; 81   : 
; 82   : 		__analysis_assume(this->_Ptr != 0);
; 83   : 
; 84   : 		return (*this->_Ptr);

  00000	8b 01		 mov	 eax, DWORD PTR [ecx]

; 85   : 		}

  00002	c3		 ret	 0
??D?$_Vector_const_iterator@V?$_Vector_val@PBUAniEventTime@@V?$allocator@PBUAniEventTime@@@std@@@std@@@std@@QBEABQBUAniEventTime@@XZ ENDP ; std::_Vector_const_iterator<std::_Vector_val<AniEventTime const *,std::allocator<AniEventTime const *> > >::operator*
_TEXT	ENDS
PUBLIC	??E?$_Vector_const_iterator@V?$_Vector_val@PBUAniEventTime@@V?$allocator@PBUAniEventTime@@@std@@@std@@@std@@QAEAAV01@XZ ; std::_Vector_const_iterator<std::_Vector_val<AniEventTime const *,std::allocator<AniEventTime const *> > >::operator++
; Function compile flags: /Ogsp
;	COMDAT ??E?$_Vector_const_iterator@V?$_Vector_val@PBUAniEventTime@@V?$allocator@PBUAniEventTime@@@std@@@std@@@std@@QAEAAV01@XZ
_TEXT	SEGMENT
??E?$_Vector_const_iterator@V?$_Vector_val@PBUAniEventTime@@V?$allocator@PBUAniEventTime@@@std@@@std@@@std@@QAEAAV01@XZ PROC ; std::_Vector_const_iterator<std::_Vector_val<AniEventTime const *,std::allocator<AniEventTime const *> > >::operator++, COMDAT
; _this$ = ecx

; 93   : 		{	// preincrement

  00000	8b c1		 mov	 eax, ecx

; 94   :  #if _ITERATOR_DEBUG_LEVEL == 2
; 95   : 		if (this->_Getcont() == 0
; 96   : 			|| this->_Ptr == 0
; 97   : 			|| ((_Myvec *)this->_Getcont())->_Mylast <= this->_Ptr)
; 98   : 			{	// report error
; 99   : 			_DEBUG_ERROR("vector iterator not incrementable");
; 100  : 			_SCL_SECURE_OUT_OF_RANGE;
; 101  : 			}
; 102  : 
; 103  :  #elif _ITERATOR_DEBUG_LEVEL == 1
; 104  : 		_SCL_SECURE_VALIDATE(this->_Getcont() != 0);
; 105  : 		_SCL_SECURE_VALIDATE_RANGE(
; 106  : 			this->_Ptr != 0
; 107  : 			&& this->_Ptr < ((_Myvec *)this->_Getcont())->_Mylast);
; 108  :  #endif /* _ITERATOR_DEBUG_LEVEL */
; 109  : 
; 110  : 		++this->_Ptr;

  00002	83 00 04	 add	 DWORD PTR [eax], 4

; 111  : 		return (*this);
; 112  : 		}

  00005	c3		 ret	 0
??E?$_Vector_const_iterator@V?$_Vector_val@PBUAniEventTime@@V?$allocator@PBUAniEventTime@@@std@@@std@@@std@@QAEAAV01@XZ ENDP ; std::_Vector_const_iterator<std::_Vector_val<AniEventTime const *,std::allocator<AniEventTime const *> > >::operator++
_TEXT	ENDS
PUBLIC	??0?$allocator@PAVioBaseChar@@@std@@QAE@ABV01@@Z ; std::allocator<ioBaseChar *>::allocator<ioBaseChar *>
; Function compile flags: /Ogsp
; File c:\program files (x86)\microsoft visual studio 10.0\vc\include\xmemory
;	COMDAT ??0?$allocator@PAVioBaseChar@@@std@@QAE@ABV01@@Z
_TEXT	SEGMENT
___formal$ = 8						; size = 4
??0?$allocator@PAVioBaseChar@@@std@@QAE@ABV01@@Z PROC	; std::allocator<ioBaseChar *>::allocator<ioBaseChar *>, COMDAT
; _this$ = ecx

; 165  : 	_ALLOCATOR(const _ALLOCATOR<_Ty>&) _THROW0()

  00000	8b c1		 mov	 eax, ecx

; 166  : 		{	// construct by copying (do nothing)
; 167  : 		}

  00002	c2 04 00	 ret	 4
??0?$allocator@PAVioBaseChar@@@std@@QAE@ABV01@@Z ENDP	; std::allocator<ioBaseChar *>::allocator<ioBaseChar *>
_TEXT	ENDS
PUBLIC	?deallocate@?$allocator@PAVioBaseChar@@@std@@QAEXPAPAVioBaseChar@@I@Z ; std::allocator<ioBaseChar *>::deallocate
; Function compile flags: /Ogsp
;	COMDAT ?deallocate@?$allocator@PAVioBaseChar@@@std@@QAEXPAPAVioBaseChar@@I@Z
_TEXT	SEGMENT
__Ptr$ = 8						; size = 4
___formal$ = 12						; size = 4
?deallocate@?$allocator@PAVioBaseChar@@@std@@QAEXPAPAVioBaseChar@@I@Z PROC ; std::allocator<ioBaseChar *>::deallocate, COMDAT
; _this$ = ecx

; 181  : 		{	// deallocate object at _Ptr, ignore size

  00000	55		 push	 ebp
  00001	8b ec		 mov	 ebp, esp

; 182  : 		::operator delete(_Ptr);

  00003	ff 75 08	 push	 DWORD PTR __Ptr$[ebp]
  00006	e8 00 00 00 00	 call	 ??3@YAXPAX@Z		; operator delete
  0000b	59		 pop	 ecx

; 183  : 		}

  0000c	5d		 pop	 ebp
  0000d	c2 08 00	 ret	 8
?deallocate@?$allocator@PAVioBaseChar@@@std@@QAEXPAPAVioBaseChar@@I@Z ENDP ; std::allocator<ioBaseChar *>::deallocate
_TEXT	ENDS
PUBLIC	?capacity@?$vector@UAniRotateInfo@@V?$allocator@UAniRotateInfo@@@std@@@std@@QBEIXZ ; std::vector<AniRotateInfo,std::allocator<AniRotateInfo> >::capacity
; Function compile flags: /Ogsp
; File c:\program files (x86)\microsoft visual studio 10.0\vc\include\vector
;	COMDAT ?capacity@?$vector@UAniRotateInfo@@V?$allocator@UAniRotateInfo@@@std@@@std@@QBEIXZ
_TEXT	SEGMENT
?capacity@?$vector@UAniRotateInfo@@V?$allocator@UAniRotateInfo@@@std@@@std@@QBEIXZ PROC ; std::vector<AniRotateInfo,std::allocator<AniRotateInfo> >::capacity, COMDAT
; _this$ = ecx

; 777  : 		return (this->_Myend - this->_Myfirst);

  00000	8b 41 08	 mov	 eax, DWORD PTR [ecx+8]
  00003	2b 01		 sub	 eax, DWORD PTR [ecx]
  00005	c1 f8 03	 sar	 eax, 3

; 778  : 		}

  00008	c3		 ret	 0
?capacity@?$vector@UAniRotateInfo@@V?$allocator@UAniRotateInfo@@@std@@@std@@QBEIXZ ENDP ; std::vector<AniRotateInfo,std::allocator<AniRotateInfo> >::capacity
_TEXT	ENDS
PUBLIC	?size@?$vector@UAniRotateInfo@@V?$allocator@UAniRotateInfo@@@std@@@std@@QBEIXZ ; std::vector<AniRotateInfo,std::allocator<AniRotateInfo> >::size
; Function compile flags: /Ogsp
;	COMDAT ?size@?$vector@UAniRotateInfo@@V?$allocator@UAniRotateInfo@@@std@@@std@@QBEIXZ
_TEXT	SEGMENT
?size@?$vector@UAniRotateInfo@@V?$allocator@UAniRotateInfo@@@std@@@std@@QBEIXZ PROC ; std::vector<AniRotateInfo,std::allocator<AniRotateInfo> >::size, COMDAT
; _this$ = ecx

; 879  : 		return (this->_Mylast - this->_Myfirst);

  00000	8b 41 04	 mov	 eax, DWORD PTR [ecx+4]
  00003	2b 01		 sub	 eax, DWORD PTR [ecx]
  00005	c1 f8 03	 sar	 eax, 3

; 880  : 		}

  00008	c3		 ret	 0
?size@?$vector@UAniRotateInfo@@V?$allocator@UAniRotateInfo@@@std@@@std@@QBEIXZ ENDP ; std::vector<AniRotateInfo,std::allocator<AniRotateInfo> >::size
_TEXT	ENDS
PUBLIC	??_C@_0BD@OLBABOEK@vector?$DMT?$DO?5too?5long?$AA@ ; `string'
PUBLIC	?_Xlen@?$vector@UAniRotateInfo@@V?$allocator@UAniRotateInfo@@@std@@@std@@IBEXXZ ; std::vector<AniRotateInfo,std::allocator<AniRotateInfo> >::_Xlen
EXTRN	__imp_?_Xlength_error@std@@YAXPBD@Z:PROC
;	COMDAT ??_C@_0BD@OLBABOEK@vector?$DMT?$DO?5too?5long?$AA@
CONST	SEGMENT
??_C@_0BD@OLBABOEK@vector?$DMT?$DO?5too?5long?$AA@ DB 'vector<T> too long'
	DB	00H						; `string'
; Function compile flags: /Ogsp
CONST	ENDS
;	COMDAT ?_Xlen@?$vector@UAniRotateInfo@@V?$allocator@UAniRotateInfo@@@std@@@std@@IBEXXZ
_TEXT	SEGMENT
?_Xlen@?$vector@UAniRotateInfo@@V?$allocator@UAniRotateInfo@@@std@@@std@@IBEXXZ PROC ; std::vector<AniRotateInfo,std::allocator<AniRotateInfo> >::_Xlen, COMDAT
; _this$ = ecx

; 1427 : 		_Xlength_error("vector<T> too long");

  00000	68 00 00 00 00	 push	 OFFSET ??_C@_0BD@OLBABOEK@vector?$DMT?$DO?5too?5long?$AA@
  00005	ff 15 00 00 00
	00		 call	 DWORD PTR __imp_?_Xlength_error@std@@YAXPBD@Z
$LN4@Xlen:
$LN3@Xlen:
  0000b	cc		 int	 3
?_Xlen@?$vector@UAniRotateInfo@@V?$allocator@UAniRotateInfo@@@std@@@std@@IBEXXZ ENDP ; std::vector<AniRotateInfo,std::allocator<AniRotateInfo> >::_Xlen
_TEXT	ENDS
PUBLIC	?capacity@?$vector@UtagBaseCharDistanceSq@@V?$allocator@UtagBaseCharDistanceSq@@@std@@@std@@QBEIXZ ; std::vector<tagBaseCharDistanceSq,std::allocator<tagBaseCharDistanceSq> >::capacity
; Function compile flags: /Ogsp
;	COMDAT ?capacity@?$vector@UtagBaseCharDistanceSq@@V?$allocator@UtagBaseCharDistanceSq@@@std@@@std@@QBEIXZ
_TEXT	SEGMENT
?capacity@?$vector@UtagBaseCharDistanceSq@@V?$allocator@UtagBaseCharDistanceSq@@@std@@@std@@QBEIXZ PROC ; std::vector<tagBaseCharDistanceSq,std::allocator<tagBaseCharDistanceSq> >::capacity, COMDAT
; _this$ = ecx

; 777  : 		return (this->_Myend - this->_Myfirst);

  00000	8b 41 08	 mov	 eax, DWORD PTR [ecx+8]
  00003	2b 01		 sub	 eax, DWORD PTR [ecx]
  00005	c1 f8 05	 sar	 eax, 5

; 778  : 		}

  00008	c3		 ret	 0
?capacity@?$vector@UtagBaseCharDistanceSq@@V?$allocator@UtagBaseCharDistanceSq@@@std@@@std@@QBEIXZ ENDP ; std::vector<tagBaseCharDistanceSq,std::allocator<tagBaseCharDistanceSq> >::capacity
_TEXT	ENDS
PUBLIC	?size@?$vector@UtagBaseCharDistanceSq@@V?$allocator@UtagBaseCharDistanceSq@@@std@@@std@@QBEIXZ ; std::vector<tagBaseCharDistanceSq,std::allocator<tagBaseCharDistanceSq> >::size
; Function compile flags: /Ogsp
;	COMDAT ?size@?$vector@UtagBaseCharDistanceSq@@V?$allocator@UtagBaseCharDistanceSq@@@std@@@std@@QBEIXZ
_TEXT	SEGMENT
?size@?$vector@UtagBaseCharDistanceSq@@V?$allocator@UtagBaseCharDistanceSq@@@std@@@std@@QBEIXZ PROC ; std::vector<tagBaseCharDistanceSq,std::allocator<tagBaseCharDistanceSq> >::size, COMDAT
; _this$ = ecx

; 879  : 		return (this->_Mylast - this->_Myfirst);

  00000	8b 41 04	 mov	 eax, DWORD PTR [ecx+4]
  00003	2b 01		 sub	 eax, DWORD PTR [ecx]
  00005	c1 f8 05	 sar	 eax, 5

; 880  : 		}

  00008	c3		 ret	 0
?size@?$vector@UtagBaseCharDistanceSq@@V?$allocator@UtagBaseCharDistanceSq@@@std@@@std@@QBEIXZ ENDP ; std::vector<tagBaseCharDistanceSq,std::allocator<tagBaseCharDistanceSq> >::size
_TEXT	ENDS
PUBLIC	?_Xlen@?$vector@UtagBaseCharDistanceSq@@V?$allocator@UtagBaseCharDistanceSq@@@std@@@std@@IBEXXZ ; std::vector<tagBaseCharDistanceSq,std::allocator<tagBaseCharDistanceSq> >::_Xlen
; Function compile flags: /Ogsp
;	COMDAT ?_Xlen@?$vector@UtagBaseCharDistanceSq@@V?$allocator@UtagBaseCharDistanceSq@@@std@@@std@@IBEXXZ
_TEXT	SEGMENT
?_Xlen@?$vector@UtagBaseCharDistanceSq@@V?$allocator@UtagBaseCharDistanceSq@@@std@@@std@@IBEXXZ PROC ; std::vector<tagBaseCharDistanceSq,std::allocator<tagBaseCharDistanceSq> >::_Xlen, COMDAT
; _this$ = ecx

; 1427 : 		_Xlength_error("vector<T> too long");

  00000	68 00 00 00 00	 push	 OFFSET ??_C@_0BD@OLBABOEK@vector?$DMT?$DO?5too?5long?$AA@
  00005	ff 15 00 00 00
	00		 call	 DWORD PTR __imp_?_Xlength_error@std@@YAXPBD@Z
$LN4@Xlen@2:
$LN3@Xlen@2:
  0000b	cc		 int	 3
?_Xlen@?$vector@UtagBaseCharDistanceSq@@V?$allocator@UtagBaseCharDistanceSq@@@std@@@std@@IBEXXZ ENDP ; std::vector<tagBaseCharDistanceSq,std::allocator<tagBaseCharDistanceSq> >::_Xlen
_TEXT	ENDS
PUBLIC	??0?$allocator@UtagBaseCharDistanceSq@@@std@@QAE@ABV01@@Z ; std::allocator<tagBaseCharDistanceSq>::allocator<tagBaseCharDistanceSq>
; Function compile flags: /Ogsp
; File c:\program files (x86)\microsoft visual studio 10.0\vc\include\xmemory
;	COMDAT ??0?$allocator@UtagBaseCharDistanceSq@@@std@@QAE@ABV01@@Z
_TEXT	SEGMENT
___formal$ = 8						; size = 4
??0?$allocator@UtagBaseCharDistanceSq@@@std@@QAE@ABV01@@Z PROC ; std::allocator<tagBaseCharDistanceSq>::allocator<tagBaseCharDistanceSq>, COMDAT
; _this$ = ecx

; 165  : 	_ALLOCATOR(const _ALLOCATOR<_Ty>&) _THROW0()

  00000	8b c1		 mov	 eax, ecx

; 166  : 		{	// construct by copying (do nothing)
; 167  : 		}

  00002	c2 04 00	 ret	 4
??0?$allocator@UtagBaseCharDistanceSq@@@std@@QAE@ABV01@@Z ENDP ; std::allocator<tagBaseCharDistanceSq>::allocator<tagBaseCharDistanceSq>
_TEXT	ENDS
PUBLIC	?deallocate@?$allocator@UtagBaseCharDistanceSq@@@std@@QAEXPAUtagBaseCharDistanceSq@@I@Z ; std::allocator<tagBaseCharDistanceSq>::deallocate
; Function compile flags: /Ogsp
;	COMDAT ?deallocate@?$allocator@UtagBaseCharDistanceSq@@@std@@QAEXPAUtagBaseCharDistanceSq@@I@Z
_TEXT	SEGMENT
__Ptr$ = 8						; size = 4
___formal$ = 12						; size = 4
?deallocate@?$allocator@UtagBaseCharDistanceSq@@@std@@QAEXPAUtagBaseCharDistanceSq@@I@Z PROC ; std::allocator<tagBaseCharDistanceSq>::deallocate, COMDAT
; _this$ = ecx

; 181  : 		{	// deallocate object at _Ptr, ignore size

  00000	55		 push	 ebp
  00001	8b ec		 mov	 ebp, esp

; 182  : 		::operator delete(_Ptr);

  00003	ff 75 08	 push	 DWORD PTR __Ptr$[ebp]
  00006	e8 00 00 00 00	 call	 ??3@YAXPAX@Z		; operator delete
  0000b	59		 pop	 ecx

; 183  : 		}

  0000c	5d		 pop	 ebp
  0000d	c2 08 00	 ret	 8
?deallocate@?$allocator@UtagBaseCharDistanceSq@@@std@@QAEXPAUtagBaseCharDistanceSq@@I@Z ENDP ; std::allocator<tagBaseCharDistanceSq>::deallocate
_TEXT	ENDS
PUBLIC	??0?$_Vector_const_iterator@V?$_Vector_val@PAVioBaseChar@@V?$allocator@PAVioBaseChar@@@std@@@std@@@std@@QAE@PAPAVioBaseChar@@PBU_Container_base0@1@@Z ; std::_Vector_const_iterator<std::_Vector_val<ioBaseChar *,std::allocator<ioBaseChar *> > >::_Vector_const_iterator<std::_Vector_val<ioBaseChar *,std::allocator<ioBaseChar *> > >
; Function compile flags: /Ogsp
; File c:\program files (x86)\microsoft visual studio 10.0\vc\include\vector
;	COMDAT ??0?$_Vector_const_iterator@V?$_Vector_val@PAVioBaseChar@@V?$allocator@PAVioBaseChar@@@std@@@std@@@std@@QAE@PAPAVioBaseChar@@PBU_Container_base0@1@@Z
_TEXT	SEGMENT
__Parg$ = 8						; size = 4
__Pvector$ = 12						; size = 4
??0?$_Vector_const_iterator@V?$_Vector_val@PAVioBaseChar@@V?$allocator@PAVioBaseChar@@@std@@@std@@@std@@QAE@PAPAVioBaseChar@@PBU_Container_base0@1@@Z PROC ; std::_Vector_const_iterator<std::_Vector_val<ioBaseChar *,std::allocator<ioBaseChar *> > >::_Vector_const_iterator<std::_Vector_val<ioBaseChar *,std::allocator<ioBaseChar *> > >, COMDAT
; _this$ = ecx

; 45   : 		{	// construct with pointer _Parg

  00000	55		 push	 ebp
  00001	8b ec		 mov	 ebp, esp
  00003	8b c1		 mov	 eax, ecx
  00005	8b 4d 08	 mov	 ecx, DWORD PTR __Parg$[ebp]
  00008	89 08		 mov	 DWORD PTR [eax], ecx

; 46   : 		this->_Adopt(_Pvector);
; 47   : 		}

  0000a	5d		 pop	 ebp
  0000b	c2 08 00	 ret	 8
??0?$_Vector_const_iterator@V?$_Vector_val@PAVioBaseChar@@V?$allocator@PAVioBaseChar@@@std@@@std@@@std@@QAE@PAPAVioBaseChar@@PBU_Container_base0@1@@Z ENDP ; std::_Vector_const_iterator<std::_Vector_val<ioBaseChar *,std::allocator<ioBaseChar *> > >::_Vector_const_iterator<std::_Vector_val<ioBaseChar *,std::allocator<ioBaseChar *> > >
_TEXT	ENDS
PUBLIC	?_Compat@?$_Vector_const_iterator@V?$_Vector_val@PAVioBaseChar@@V?$allocator@PAVioBaseChar@@@std@@@std@@@std@@QBEXABV12@@Z ; std::_Vector_const_iterator<std::_Vector_val<ioBaseChar *,std::allocator<ioBaseChar *> > >::_Compat
; Function compile flags: /Ogsp
;	COMDAT ?_Compat@?$_Vector_const_iterator@V?$_Vector_val@PAVioBaseChar@@V?$allocator@PAVioBaseChar@@@std@@@std@@@std@@QBEXABV12@@Z
_TEXT	SEGMENT
___formal$ = 8						; size = 4
?_Compat@?$_Vector_const_iterator@V?$_Vector_val@PAVioBaseChar@@V?$allocator@PAVioBaseChar@@@std@@@std@@@std@@QBEXABV12@@Z PROC ; std::_Vector_const_iterator<std::_Vector_val<ioBaseChar *,std::allocator<ioBaseChar *> > >::_Compat, COMDAT
; _this$ = ecx

; 253  : 		}

  00000	c2 04 00	 ret	 4
?_Compat@?$_Vector_const_iterator@V?$_Vector_val@PAVioBaseChar@@V?$allocator@PAVioBaseChar@@@std@@@std@@@std@@QBEXABV12@@Z ENDP ; std::_Vector_const_iterator<std::_Vector_val<ioBaseChar *,std::allocator<ioBaseChar *> > >::_Compat
_TEXT	ENDS
PUBLIC	??0?$_Vector_const_iterator@V?$_Vector_val@UtagBaseCharDistanceSq@@V?$allocator@UtagBaseCharDistanceSq@@@std@@@std@@@std@@QAE@PAUtagBaseCharDistanceSq@@PBU_Container_base0@1@@Z ; std::_Vector_const_iterator<std::_Vector_val<tagBaseCharDistanceSq,std::allocator<tagBaseCharDistanceSq> > >::_Vector_const_iterator<std::_Vector_val<tagBaseCharDistanceSq,std::allocator<tagBaseCharDistanceSq> > >
; Function compile flags: /Ogsp
;	COMDAT ??0?$_Vector_const_iterator@V?$_Vector_val@UtagBaseCharDistanceSq@@V?$allocator@UtagBaseCharDistanceSq@@@std@@@std@@@std@@QAE@PAUtagBaseCharDistanceSq@@PBU_Container_base0@1@@Z
_TEXT	SEGMENT
__Parg$ = 8						; size = 4
__Pvector$ = 12						; size = 4
??0?$_Vector_const_iterator@V?$_Vector_val@UtagBaseCharDistanceSq@@V?$allocator@UtagBaseCharDistanceSq@@@std@@@std@@@std@@QAE@PAUtagBaseCharDistanceSq@@PBU_Container_base0@1@@Z PROC ; std::_Vector_const_iterator<std::_Vector_val<tagBaseCharDistanceSq,std::allocator<tagBaseCharDistanceSq> > >::_Vector_const_iterator<std::_Vector_val<tagBaseCharDistanceSq,std::allocator<tagBaseCharDistanceSq> > >, COMDAT
; _this$ = ecx

; 45   : 		{	// construct with pointer _Parg

  00000	55		 push	 ebp
  00001	8b ec		 mov	 ebp, esp
  00003	8b c1		 mov	 eax, ecx
  00005	8b 4d 08	 mov	 ecx, DWORD PTR __Parg$[ebp]
  00008	89 08		 mov	 DWORD PTR [eax], ecx

; 46   : 		this->_Adopt(_Pvector);
; 47   : 		}

  0000a	5d		 pop	 ebp
  0000b	c2 08 00	 ret	 8
??0?$_Vector_const_iterator@V?$_Vector_val@UtagBaseCharDistanceSq@@V?$allocator@UtagBaseCharDistanceSq@@@std@@@std@@@std@@QAE@PAUtagBaseCharDistanceSq@@PBU_Container_base0@1@@Z ENDP ; std::_Vector_const_iterator<std::_Vector_val<tagBaseCharDistanceSq,std::allocator<tagBaseCharDistanceSq> > >::_Vector_const_iterator<std::_Vector_val<tagBaseCharDistanceSq,std::allocator<tagBaseCharDistanceSq> > >
_TEXT	ENDS
PUBLIC	??E?$_Vector_const_iterator@V?$_Vector_val@UtagBaseCharDistanceSq@@V?$allocator@UtagBaseCharDistanceSq@@@std@@@std@@@std@@QAEAAV01@XZ ; std::_Vector_const_iterator<std::_Vector_val<tagBaseCharDistanceSq,std::allocator<tagBaseCharDistanceSq> > >::operator++
; Function compile flags: /Ogsp
;	COMDAT ??E?$_Vector_const_iterator@V?$_Vector_val@UtagBaseCharDistanceSq@@V?$allocator@UtagBaseCharDistanceSq@@@std@@@std@@@std@@QAEAAV01@XZ
_TEXT	SEGMENT
??E?$_Vector_const_iterator@V?$_Vector_val@UtagBaseCharDistanceSq@@V?$allocator@UtagBaseCharDistanceSq@@@std@@@std@@@std@@QAEAAV01@XZ PROC ; std::_Vector_const_iterator<std::_Vector_val<tagBaseCharDistanceSq,std::allocator<tagBaseCharDistanceSq> > >::operator++, COMDAT
; _this$ = ecx

; 93   : 		{	// preincrement

  00000	8b c1		 mov	 eax, ecx

; 94   :  #if _ITERATOR_DEBUG_LEVEL == 2
; 95   : 		if (this->_Getcont() == 0
; 96   : 			|| this->_Ptr == 0
; 97   : 			|| ((_Myvec *)this->_Getcont())->_Mylast <= this->_Ptr)
; 98   : 			{	// report error
; 99   : 			_DEBUG_ERROR("vector iterator not incrementable");
; 100  : 			_SCL_SECURE_OUT_OF_RANGE;
; 101  : 			}
; 102  : 
; 103  :  #elif _ITERATOR_DEBUG_LEVEL == 1
; 104  : 		_SCL_SECURE_VALIDATE(this->_Getcont() != 0);
; 105  : 		_SCL_SECURE_VALIDATE_RANGE(
; 106  : 			this->_Ptr != 0
; 107  : 			&& this->_Ptr < ((_Myvec *)this->_Getcont())->_Mylast);
; 108  :  #endif /* _ITERATOR_DEBUG_LEVEL */
; 109  : 
; 110  : 		++this->_Ptr;

  00002	83 00 20	 add	 DWORD PTR [eax], 32	; 00000020H

; 111  : 		return (*this);
; 112  : 		}

  00005	c3		 ret	 0
??E?$_Vector_const_iterator@V?$_Vector_val@UtagBaseCharDistanceSq@@V?$allocator@UtagBaseCharDistanceSq@@@std@@@std@@@std@@QAEAAV01@XZ ENDP ; std::_Vector_const_iterator<std::_Vector_val<tagBaseCharDistanceSq,std::allocator<tagBaseCharDistanceSq> > >::operator++
_TEXT	ENDS
PUBLIC	?_Compat@?$_Vector_const_iterator@V?$_Vector_val@UtagBaseCharDistanceSq@@V?$allocator@UtagBaseCharDistanceSq@@@std@@@std@@@std@@QBEXABV12@@Z ; std::_Vector_const_iterator<std::_Vector_val<tagBaseCharDistanceSq,std::allocator<tagBaseCharDistanceSq> > >::_Compat
; Function compile flags: /Ogsp
;	COMDAT ?_Compat@?$_Vector_const_iterator@V?$_Vector_val@UtagBaseCharDistanceSq@@V?$allocator@UtagBaseCharDistanceSq@@@std@@@std@@@std@@QBEXABV12@@Z
_TEXT	SEGMENT
___formal$ = 8						; size = 4
?_Compat@?$_Vector_const_iterator@V?$_Vector_val@UtagBaseCharDistanceSq@@V?$allocator@UtagBaseCharDistanceSq@@@std@@@std@@@std@@QBEXABV12@@Z PROC ; std::_Vector_const_iterator<std::_Vector_val<tagBaseCharDistanceSq,std::allocator<tagBaseCharDistanceSq> > >::_Compat, COMDAT
; _this$ = ecx

; 253  : 		}

  00000	c2 04 00	 ret	 4
?_Compat@?$_Vector_const_iterator@V?$_Vector_val@UtagBaseCharDistanceSq@@V?$allocator@UtagBaseCharDistanceSq@@@std@@@std@@@std@@QBEXABV12@@Z ENDP ; std::_Vector_const_iterator<std::_Vector_val<tagBaseCharDistanceSq,std::allocator<tagBaseCharDistanceSq> > >::_Compat
_TEXT	ENDS
PUBLIC	??0?$allocator@PBUAniEventTime@@@std@@QAE@ABV01@@Z ; std::allocator<AniEventTime const *>::allocator<AniEventTime const *>
; Function compile flags: /Ogsp
; File c:\program files (x86)\microsoft visual studio 10.0\vc\include\xmemory
;	COMDAT ??0?$allocator@PBUAniEventTime@@@std@@QAE@ABV01@@Z
_TEXT	SEGMENT
___formal$ = 8						; size = 4
??0?$allocator@PBUAniEventTime@@@std@@QAE@ABV01@@Z PROC	; std::allocator<AniEventTime const *>::allocator<AniEventTime const *>, COMDAT
; _this$ = ecx

; 165  : 	_ALLOCATOR(const _ALLOCATOR<_Ty>&) _THROW0()

  00000	8b c1		 mov	 eax, ecx

; 166  : 		{	// construct by copying (do nothing)
; 167  : 		}

  00002	c2 04 00	 ret	 4
??0?$allocator@PBUAniEventTime@@@std@@QAE@ABV01@@Z ENDP	; std::allocator<AniEventTime const *>::allocator<AniEventTime const *>
_TEXT	ENDS
PUBLIC	?deallocate@?$allocator@PBUAniEventTime@@@std@@QAEXPAPBUAniEventTime@@I@Z ; std::allocator<AniEventTime const *>::deallocate
; Function compile flags: /Ogsp
;	COMDAT ?deallocate@?$allocator@PBUAniEventTime@@@std@@QAEXPAPBUAniEventTime@@I@Z
_TEXT	SEGMENT
__Ptr$ = 8						; size = 4
___formal$ = 12						; size = 4
?deallocate@?$allocator@PBUAniEventTime@@@std@@QAEXPAPBUAniEventTime@@I@Z PROC ; std::allocator<AniEventTime const *>::deallocate, COMDAT
; _this$ = ecx

; 181  : 		{	// deallocate object at _Ptr, ignore size

  00000	55		 push	 ebp
  00001	8b ec		 mov	 ebp, esp

; 182  : 		::operator delete(_Ptr);

  00003	ff 75 08	 push	 DWORD PTR __Ptr$[ebp]
  00006	e8 00 00 00 00	 call	 ??3@YAXPAX@Z		; operator delete
  0000b	59		 pop	 ecx

; 183  : 		}

  0000c	5d		 pop	 ebp
  0000d	c2 08 00	 ret	 8
?deallocate@?$allocator@PBUAniEventTime@@@std@@QAEXPAPBUAniEventTime@@I@Z ENDP ; std::allocator<AniEventTime const *>::deallocate
_TEXT	ENDS
PUBLIC	??0?$_Vector_const_iterator@V?$_Vector_val@PBUAniEventTime@@V?$allocator@PBUAniEventTime@@@std@@@std@@@std@@QAE@PAPBUAniEventTime@@PBU_Container_base0@1@@Z ; std::_Vector_const_iterator<std::_Vector_val<AniEventTime const *,std::allocator<AniEventTime const *> > >::_Vector_const_iterator<std::_Vector_val<AniEventTime const *,std::allocator<AniEventTime const *> > >
; Function compile flags: /Ogsp
; File c:\program files (x86)\microsoft visual studio 10.0\vc\include\vector
;	COMDAT ??0?$_Vector_const_iterator@V?$_Vector_val@PBUAniEventTime@@V?$allocator@PBUAniEventTime@@@std@@@std@@@std@@QAE@PAPBUAniEventTime@@PBU_Container_base0@1@@Z
_TEXT	SEGMENT
__Parg$ = 8						; size = 4
__Pvector$ = 12						; size = 4
??0?$_Vector_const_iterator@V?$_Vector_val@PBUAniEventTime@@V?$allocator@PBUAniEventTime@@@std@@@std@@@std@@QAE@PAPBUAniEventTime@@PBU_Container_base0@1@@Z PROC ; std::_Vector_const_iterator<std::_Vector_val<AniEventTime const *,std::allocator<AniEventTime const *> > >::_Vector_const_iterator<std::_Vector_val<AniEventTime const *,std::allocator<AniEventTime const *> > >, COMDAT
; _this$ = ecx

; 45   : 		{	// construct with pointer _Parg

  00000	55		 push	 ebp
  00001	8b ec		 mov	 ebp, esp
  00003	8b c1		 mov	 eax, ecx
  00005	8b 4d 08	 mov	 ecx, DWORD PTR __Parg$[ebp]
  00008	89 08		 mov	 DWORD PTR [eax], ecx

; 46   : 		this->_Adopt(_Pvector);
; 47   : 		}

  0000a	5d		 pop	 ebp
  0000b	c2 08 00	 ret	 8
??0?$_Vector_const_iterator@V?$_Vector_val@PBUAniEventTime@@V?$allocator@PBUAniEventTime@@@std@@@std@@@std@@QAE@PAPBUAniEventTime@@PBU_Container_base0@1@@Z ENDP ; std::_Vector_const_iterator<std::_Vector_val<AniEventTime const *,std::allocator<AniEventTime const *> > >::_Vector_const_iterator<std::_Vector_val<AniEventTime const *,std::allocator<AniEventTime const *> > >
_TEXT	ENDS
PUBLIC	?_Compat@?$_Vector_const_iterator@V?$_Vector_val@PBUAniEventTime@@V?$allocator@PBUAniEventTime@@@std@@@std@@@std@@QBEXABV12@@Z ; std::_Vector_const_iterator<std::_Vector_val<AniEventTime const *,std::allocator<AniEventTime const *> > >::_Compat
; Function compile flags: /Ogsp
;	COMDAT ?_Compat@?$_Vector_const_iterator@V?$_Vector_val@PBUAniEventTime@@V?$allocator@PBUAniEventTime@@@std@@@std@@@std@@QBEXABV12@@Z
_TEXT	SEGMENT
___formal$ = 8						; size = 4
?_Compat@?$_Vector_const_iterator@V?$_Vector_val@PBUAniEventTime@@V?$allocator@PBUAniEventTime@@@std@@@std@@@std@@QBEXABV12@@Z PROC ; std::_Vector_const_iterator<std::_Vector_val<AniEventTime const *,std::allocator<AniEventTime const *> > >::_Compat, COMDAT
; _this$ = ecx

; 253  : 		}

  00000	c2 04 00	 ret	 4
?_Compat@?$_Vector_const_iterator@V?$_Vector_val@PBUAniEventTime@@V?$allocator@PBUAniEventTime@@@std@@@std@@@std@@QBEXABV12@@Z ENDP ; std::_Vector_const_iterator<std::_Vector_val<AniEventTime const *,std::allocator<AniEventTime const *> > >::_Compat
_TEXT	ENDS
PUBLIC	?deallocate@?$allocator@UAniRotateInfo@@@std@@QAEXPAUAniRotateInfo@@I@Z ; std::allocator<AniRotateInfo>::deallocate
; Function compile flags: /Ogsp
; File c:\program files (x86)\microsoft visual studio 10.0\vc\include\xmemory
;	COMDAT ?deallocate@?$allocator@UAniRotateInfo@@@std@@QAEXPAUAniRotateInfo@@I@Z
_TEXT	SEGMENT
__Ptr$ = 8						; size = 4
___formal$ = 12						; size = 4
?deallocate@?$allocator@UAniRotateInfo@@@std@@QAEXPAUAniRotateInfo@@I@Z PROC ; std::allocator<AniRotateInfo>::deallocate, COMDAT
; _this$ = ecx

; 181  : 		{	// deallocate object at _Ptr, ignore size

  00000	55		 push	 ebp
  00001	8b ec		 mov	 ebp, esp

; 182  : 		::operator delete(_Ptr);

  00003	ff 75 08	 push	 DWORD PTR __Ptr$[ebp]
  00006	e8 00 00 00 00	 call	 ??3@YAXPAX@Z		; operator delete
  0000b	59		 pop	 ecx

; 183  : 		}

  0000c	5d		 pop	 ebp
  0000d	c2 08 00	 ret	 8
?deallocate@?$allocator@UAniRotateInfo@@@std@@QAEXPAUAniRotateInfo@@I@Z ENDP ; std::allocator<AniRotateInfo>::deallocate
_TEXT	ENDS
PUBLIC	?max_size@?$allocator@UAniRotateInfo@@@std@@QBEIXZ ; std::allocator<AniRotateInfo>::max_size
; Function compile flags: /Ogsp
;	COMDAT ?max_size@?$allocator@UAniRotateInfo@@@std@@QBEIXZ
_TEXT	SEGMENT
?max_size@?$allocator@UAniRotateInfo@@@std@@QBEIXZ PROC	; std::allocator<AniRotateInfo>::max_size, COMDAT
; _this$ = ecx

; 218  : 		_SIZT _Count = (_SIZT)(-1) / sizeof (_Ty);
; 219  : 		return (0 < _Count ? _Count : 1);

  00000	b8 ff ff ff 1f	 mov	 eax, 536870911		; 1fffffffH

; 220  : 		}

  00005	c3		 ret	 0
?max_size@?$allocator@UAniRotateInfo@@@std@@QBEIXZ ENDP	; std::allocator<AniRotateInfo>::max_size
_TEXT	ENDS
PUBLIC	?max_size@?$allocator@UtagBaseCharDistanceSq@@@std@@QBEIXZ ; std::allocator<tagBaseCharDistanceSq>::max_size
; Function compile flags: /Ogsp
;	COMDAT ?max_size@?$allocator@UtagBaseCharDistanceSq@@@std@@QBEIXZ
_TEXT	SEGMENT
?max_size@?$allocator@UtagBaseCharDistanceSq@@@std@@QBEIXZ PROC ; std::allocator<tagBaseCharDistanceSq>::max_size, COMDAT
; _this$ = ecx

; 218  : 		_SIZT _Count = (_SIZT)(-1) / sizeof (_Ty);
; 219  : 		return (0 < _Count ? _Count : 1);

  00000	b8 ff ff ff 07	 mov	 eax, 134217727		; 07ffffffH

; 220  : 		}

  00005	c3		 ret	 0
?max_size@?$allocator@UtagBaseCharDistanceSq@@@std@@QBEIXZ ENDP ; std::allocator<tagBaseCharDistanceSq>::max_size
_TEXT	ENDS
PUBLIC	??0?$_Vector_const_iterator@V?$_Vector_val@UAniRotateInfo@@V?$allocator@UAniRotateInfo@@@std@@@std@@@std@@QAE@PAUAniRotateInfo@@PBU_Container_base0@1@@Z ; std::_Vector_const_iterator<std::_Vector_val<AniRotateInfo,std::allocator<AniRotateInfo> > >::_Vector_const_iterator<std::_Vector_val<AniRotateInfo,std::allocator<AniRotateInfo> > >
; Function compile flags: /Ogsp
; File c:\program files (x86)\microsoft visual studio 10.0\vc\include\vector
;	COMDAT ??0?$_Vector_const_iterator@V?$_Vector_val@UAniRotateInfo@@V?$allocator@UAniRotateInfo@@@std@@@std@@@std@@QAE@PAUAniRotateInfo@@PBU_Container_base0@1@@Z
_TEXT	SEGMENT
__Parg$ = 8						; size = 4
__Pvector$ = 12						; size = 4
??0?$_Vector_const_iterator@V?$_Vector_val@UAniRotateInfo@@V?$allocator@UAniRotateInfo@@@std@@@std@@@std@@QAE@PAUAniRotateInfo@@PBU_Container_base0@1@@Z PROC ; std::_Vector_const_iterator<std::_Vector_val<AniRotateInfo,std::allocator<AniRotateInfo> > >::_Vector_const_iterator<std::_Vector_val<AniRotateInfo,std::allocator<AniRotateInfo> > >, COMDAT
; _this$ = ecx

; 45   : 		{	// construct with pointer _Parg

  00000	55		 push	 ebp
  00001	8b ec		 mov	 ebp, esp
  00003	8b c1		 mov	 eax, ecx
  00005	8b 4d 08	 mov	 ecx, DWORD PTR __Parg$[ebp]
  00008	89 08		 mov	 DWORD PTR [eax], ecx

; 46   : 		this->_Adopt(_Pvector);
; 47   : 		}

  0000a	5d		 pop	 ebp
  0000b	c2 08 00	 ret	 8
??0?$_Vector_const_iterator@V?$_Vector_val@UAniRotateInfo@@V?$allocator@UAniRotateInfo@@@std@@@std@@@std@@QAE@PAUAniRotateInfo@@PBU_Container_base0@1@@Z ENDP ; std::_Vector_const_iterator<std::_Vector_val<AniRotateInfo,std::allocator<AniRotateInfo> > >::_Vector_const_iterator<std::_Vector_val<AniRotateInfo,std::allocator<AniRotateInfo> > >
_TEXT	ENDS
PUBLIC	?_Compat@?$_Vector_const_iterator@V?$_Vector_val@UAniRotateInfo@@V?$allocator@UAniRotateInfo@@@std@@@std@@@std@@QBEXABV12@@Z ; std::_Vector_const_iterator<std::_Vector_val<AniRotateInfo,std::allocator<AniRotateInfo> > >::_Compat
; Function compile flags: /Ogsp
;	COMDAT ?_Compat@?$_Vector_const_iterator@V?$_Vector_val@UAniRotateInfo@@V?$allocator@UAniRotateInfo@@@std@@@std@@@std@@QBEXABV12@@Z
_TEXT	SEGMENT
___formal$ = 8						; size = 4
?_Compat@?$_Vector_const_iterator@V?$_Vector_val@UAniRotateInfo@@V?$allocator@UAniRotateInfo@@@std@@@std@@@std@@QBEXABV12@@Z PROC ; std::_Vector_const_iterator<std::_Vector_val<AniRotateInfo,std::allocator<AniRotateInfo> > >::_Compat, COMDAT
; _this$ = ecx

; 253  : 		}

  00000	c2 04 00	 ret	 4
?_Compat@?$_Vector_const_iterator@V?$_Vector_val@UAniRotateInfo@@V?$allocator@UAniRotateInfo@@@std@@@std@@@std@@QBEXABV12@@Z ENDP ; std::_Vector_const_iterator<std::_Vector_val<AniRotateInfo,std::allocator<AniRotateInfo> > >::_Compat
_TEXT	ENDS
PUBLIC	??0D3DXVECTOR3@@QAE@XZ				; D3DXVECTOR3::D3DXVECTOR3
; Function compile flags: /Ogsp
; File c:\program files (x86)\microsoft directx sdk (june 2010)\include\d3dx9math.h
;	COMDAT ??0D3DXVECTOR3@@QAE@XZ
_TEXT	SEGMENT
??0D3DXVECTOR3@@QAE@XZ PROC				; D3DXVECTOR3::D3DXVECTOR3, COMDAT
; _this$ = ecx

; 165  :     D3DXVECTOR3() {};

  00000	8b c1		 mov	 eax, ecx
  00002	c3		 ret	 0
??0D3DXVECTOR3@@QAE@XZ ENDP				; D3DXVECTOR3::D3DXVECTOR3
_TEXT	ENDS
PUBLIC	??0D3DXQUATERNION@@QAE@XZ			; D3DXQUATERNION::D3DXQUATERNION
; Function compile flags: /Ogsp
;	COMDAT ??0D3DXQUATERNION@@QAE@XZ
_TEXT	SEGMENT
??0D3DXQUATERNION@@QAE@XZ PROC				; D3DXQUATERNION::D3DXQUATERNION, COMDAT
; _this$ = ecx

; 429  :     D3DXQUATERNION() {}

  00000	8b c1		 mov	 eax, ecx
  00002	c3		 ret	 0
??0D3DXQUATERNION@@QAE@XZ ENDP				; D3DXQUATERNION::D3DXQUATERNION
_TEXT	ENDS
PUBLIC	??0D3DXVECTOR3@@QAE@MMM@Z			; D3DXVECTOR3::D3DXVECTOR3
; Function compile flags: /Ogsp
; File c:\program files (x86)\microsoft directx sdk (june 2010)\include\d3dx9math.inl
;	COMDAT ??0D3DXVECTOR3@@QAE@MMM@Z
_TEXT	SEGMENT
_fx$ = 8						; size = 4
_fy$ = 12						; size = 4
_fz$ = 16						; size = 4
??0D3DXVECTOR3@@QAE@MMM@Z PROC				; D3DXVECTOR3::D3DXVECTOR3, COMDAT
; _this$ = ecx

; 303  : {

  00000	55		 push	 ebp
  00001	8b ec		 mov	 ebp, esp

; 304  :     x = fx;

  00003	f3 0f 10 45 08	 movss	 xmm0, DWORD PTR _fx$[ebp]
  00008	8b c1		 mov	 eax, ecx
  0000a	f3 0f 11 00	 movss	 DWORD PTR [eax], xmm0

; 305  :     y = fy;

  0000e	f3 0f 10 45 0c	 movss	 xmm0, DWORD PTR _fy$[ebp]
  00013	f3 0f 11 40 04	 movss	 DWORD PTR [eax+4], xmm0

; 306  :     z = fz;

  00018	f3 0f 10 45 10	 movss	 xmm0, DWORD PTR _fz$[ebp]
  0001d	f3 0f 11 40 08	 movss	 DWORD PTR [eax+8], xmm0

; 307  : }

  00022	5d		 pop	 ebp
  00023	c2 0c 00	 ret	 12			; 0000000cH
??0D3DXVECTOR3@@QAE@MMM@Z ENDP				; D3DXVECTOR3::D3DXVECTOR3
_TEXT	ENDS
PUBLIC	??YD3DXVECTOR3@@QAEAAU0@ABU0@@Z			; D3DXVECTOR3::operator+=
; Function compile flags: /Ogsp
;	COMDAT ??YD3DXVECTOR3@@QAEAAU0@ABU0@@Z
_TEXT	SEGMENT
_v$ = 8							; size = 4
??YD3DXVECTOR3@@QAEAAU0@ABU0@@Z PROC			; D3DXVECTOR3::operator+=, COMDAT
; _this$ = ecx

; 327  : {

  00000	55		 push	 ebp
  00001	8b ec		 mov	 ebp, esp
  00003	8b c1		 mov	 eax, ecx

; 328  :     x += v.x;

  00005	8b 4d 08	 mov	 ecx, DWORD PTR _v$[ebp]
  00008	f3 0f 10 01	 movss	 xmm0, DWORD PTR [ecx]
  0000c	f3 0f 10 08	 movss	 xmm1, DWORD PTR [eax]
  00010	0f 5a c0	 cvtps2pd xmm0, xmm0
  00013	0f 5a c9	 cvtps2pd xmm1, xmm1
  00016	f2 0f 58 c1	 addsd	 xmm0, xmm1

; 329  :     y += v.y;

  0001a	f3 0f 10 48 04	 movss	 xmm1, DWORD PTR [eax+4]
  0001f	66 0f 5a c0	 cvtpd2ps xmm0, xmm0
  00023	f3 0f 11 00	 movss	 DWORD PTR [eax], xmm0
  00027	f3 0f 10 41 04	 movss	 xmm0, DWORD PTR [ecx+4]
  0002c	0f 5a c0	 cvtps2pd xmm0, xmm0
  0002f	0f 5a c9	 cvtps2pd xmm1, xmm1
  00032	f2 0f 58 c1	 addsd	 xmm0, xmm1

; 330  :     z += v.z;

  00036	f3 0f 10 48 08	 movss	 xmm1, DWORD PTR [eax+8]
  0003b	66 0f 5a c0	 cvtpd2ps xmm0, xmm0
  0003f	f3 0f 11 40 04	 movss	 DWORD PTR [eax+4], xmm0
  00044	f3 0f 10 41 08	 movss	 xmm0, DWORD PTR [ecx+8]
  00049	0f 5a c0	 cvtps2pd xmm0, xmm0
  0004c	0f 5a c9	 cvtps2pd xmm1, xmm1
  0004f	f2 0f 58 c1	 addsd	 xmm0, xmm1
  00053	66 0f 5a c0	 cvtpd2ps xmm0, xmm0
  00057	f3 0f 11 40 08	 movss	 DWORD PTR [eax+8], xmm0

; 331  :     return *this;
; 332  : }

  0005c	5d		 pop	 ebp
  0005d	c2 04 00	 ret	 4
??YD3DXVECTOR3@@QAEAAU0@ABU0@@Z ENDP			; D3DXVECTOR3::operator+=
_TEXT	ENDS
PUBLIC	??ZD3DXVECTOR3@@QAEAAU0@ABU0@@Z			; D3DXVECTOR3::operator-=
; Function compile flags: /Ogsp
;	COMDAT ??ZD3DXVECTOR3@@QAEAAU0@ABU0@@Z
_TEXT	SEGMENT
_v$ = 8							; size = 4
??ZD3DXVECTOR3@@QAEAAU0@ABU0@@Z PROC			; D3DXVECTOR3::operator-=, COMDAT
; _this$ = ecx

; 336  : {

  00000	55		 push	 ebp
  00001	8b ec		 mov	 ebp, esp
  00003	8b c1		 mov	 eax, ecx

; 337  :     x -= v.x;

  00005	8b 4d 08	 mov	 ecx, DWORD PTR _v$[ebp]
  00008	f3 0f 10 09	 movss	 xmm1, DWORD PTR [ecx]
  0000c	f3 0f 10 00	 movss	 xmm0, DWORD PTR [eax]
  00010	0f 5a c0	 cvtps2pd xmm0, xmm0
  00013	0f 5a c9	 cvtps2pd xmm1, xmm1
  00016	f2 0f 5c c1	 subsd	 xmm0, xmm1
  0001a	66 0f 5a c0	 cvtpd2ps xmm0, xmm0
  0001e	f3 0f 11 00	 movss	 DWORD PTR [eax], xmm0

; 338  :     y -= v.y;

  00022	f3 0f 10 49 04	 movss	 xmm1, DWORD PTR [ecx+4]
  00027	f3 0f 10 40 04	 movss	 xmm0, DWORD PTR [eax+4]
  0002c	0f 5a c0	 cvtps2pd xmm0, xmm0
  0002f	0f 5a c9	 cvtps2pd xmm1, xmm1
  00032	f2 0f 5c c1	 subsd	 xmm0, xmm1
  00036	66 0f 5a c0	 cvtpd2ps xmm0, xmm0
  0003a	f3 0f 11 40 04	 movss	 DWORD PTR [eax+4], xmm0

; 339  :     z -= v.z;

  0003f	f3 0f 10 40 08	 movss	 xmm0, DWORD PTR [eax+8]
  00044	f3 0f 10 49 08	 movss	 xmm1, DWORD PTR [ecx+8]
  00049	0f 5a c0	 cvtps2pd xmm0, xmm0
  0004c	0f 5a c9	 cvtps2pd xmm1, xmm1
  0004f	f2 0f 5c c1	 subsd	 xmm0, xmm1
  00053	66 0f 5a c0	 cvtpd2ps xmm0, xmm0
  00057	f3 0f 11 40 08	 movss	 DWORD PTR [eax+8], xmm0

; 340  :     return *this;
; 341  : }

  0005c	5d		 pop	 ebp
  0005d	c2 04 00	 ret	 4
??ZD3DXVECTOR3@@QAEAAU0@ABU0@@Z ENDP			; D3DXVECTOR3::operator-=
_TEXT	ENDS
PUBLIC	??GD3DXVECTOR3@@QBE?AU0@ABU0@@Z			; D3DXVECTOR3::operator-
; Function compile flags: /Ogsp
;	COMDAT ??GD3DXVECTOR3@@QBE?AU0@ABU0@@Z
_TEXT	SEGMENT
___$ReturnUdt$ = 8					; size = 4
_v$ = 12						; size = 4
??GD3DXVECTOR3@@QBE?AU0@ABU0@@Z PROC			; D3DXVECTOR3::operator-, COMDAT
; _this$ = ecx

; 386  : {

  00000	55		 push	 ebp
  00001	8b ec		 mov	 ebp, esp

; 387  :     return D3DXVECTOR3(x - v.x, y - v.y, z - v.z);

  00003	8b 55 0c	 mov	 edx, DWORD PTR _v$[ebp]
  00006	f3 0f 10 01	 movss	 xmm0, DWORD PTR [ecx]
  0000a	f3 0f 10 0a	 movss	 xmm1, DWORD PTR [edx]
  0000e	8b 45 08	 mov	 eax, DWORD PTR ___$ReturnUdt$[ebp]
  00011	0f 5a c0	 cvtps2pd xmm0, xmm0
  00014	0f 5a c9	 cvtps2pd xmm1, xmm1
  00017	f2 0f 5c c1	 subsd	 xmm0, xmm1
  0001b	f3 0f 10 4a 04	 movss	 xmm1, DWORD PTR [edx+4]
  00020	66 0f 5a c0	 cvtpd2ps xmm0, xmm0
  00024	f3 0f 11 00	 movss	 DWORD PTR [eax], xmm0
  00028	f3 0f 10 41 04	 movss	 xmm0, DWORD PTR [ecx+4]
  0002d	0f 5a c0	 cvtps2pd xmm0, xmm0
  00030	0f 5a c9	 cvtps2pd xmm1, xmm1
  00033	f2 0f 5c c1	 subsd	 xmm0, xmm1
  00037	f3 0f 10 4a 08	 movss	 xmm1, DWORD PTR [edx+8]
  0003c	66 0f 5a c0	 cvtpd2ps xmm0, xmm0
  00040	f3 0f 11 40 04	 movss	 DWORD PTR [eax+4], xmm0
  00045	f3 0f 10 41 08	 movss	 xmm0, DWORD PTR [ecx+8]
  0004a	0f 5a c0	 cvtps2pd xmm0, xmm0
  0004d	0f 5a c9	 cvtps2pd xmm1, xmm1
  00050	f2 0f 5c c1	 subsd	 xmm0, xmm1
  00054	66 0f 5a c0	 cvtpd2ps xmm0, xmm0
  00058	f3 0f 11 40 08	 movss	 DWORD PTR [eax+8], xmm0

; 388  : }

  0005d	5d		 pop	 ebp
  0005e	c2 08 00	 ret	 8
??GD3DXVECTOR3@@QBE?AU0@ABU0@@Z ENDP			; D3DXVECTOR3::operator-
_TEXT	ENDS
PUBLIC	??DD3DXVECTOR3@@QBE?AU0@M@Z			; D3DXVECTOR3::operator*
; Function compile flags: /Ogsp
;	COMDAT ??DD3DXVECTOR3@@QBE?AU0@M@Z
_TEXT	SEGMENT
___$ReturnUdt$ = 8					; size = 4
_f$ = 12						; size = 4
??DD3DXVECTOR3@@QBE?AU0@M@Z PROC			; D3DXVECTOR3::operator*, COMDAT
; _this$ = ecx

; 392  : {

  00000	55		 push	 ebp
  00001	8b ec		 mov	 ebp, esp

; 393  :     return D3DXVECTOR3(x * f, y * f, z * f);

  00003	f3 0f 10 4d 0c	 movss	 xmm1, DWORD PTR _f$[ebp]
  00008	f3 0f 10 01	 movss	 xmm0, DWORD PTR [ecx]
  0000c	8b 45 08	 mov	 eax, DWORD PTR ___$ReturnUdt$[ebp]
  0000f	0f 5a c0	 cvtps2pd xmm0, xmm0
  00012	0f 5a c9	 cvtps2pd xmm1, xmm1
  00015	f2 0f 59 c1	 mulsd	 xmm0, xmm1
  00019	f3 0f 10 4d 0c	 movss	 xmm1, DWORD PTR _f$[ebp]
  0001e	66 0f 5a c0	 cvtpd2ps xmm0, xmm0
  00022	f3 0f 11 00	 movss	 DWORD PTR [eax], xmm0
  00026	f3 0f 10 41 04	 movss	 xmm0, DWORD PTR [ecx+4]
  0002b	0f 5a c0	 cvtps2pd xmm0, xmm0
  0002e	0f 5a c9	 cvtps2pd xmm1, xmm1
  00031	f2 0f 59 c1	 mulsd	 xmm0, xmm1
  00035	f3 0f 10 4d 0c	 movss	 xmm1, DWORD PTR _f$[ebp]
  0003a	66 0f 5a c0	 cvtpd2ps xmm0, xmm0
  0003e	f3 0f 11 40 04	 movss	 DWORD PTR [eax+4], xmm0
  00043	f3 0f 10 41 08	 movss	 xmm0, DWORD PTR [ecx+8]
  00048	0f 5a c0	 cvtps2pd xmm0, xmm0
  0004b	0f 5a c9	 cvtps2pd xmm1, xmm1
  0004e	f2 0f 59 c1	 mulsd	 xmm0, xmm1
  00052	66 0f 5a c0	 cvtpd2ps xmm0, xmm0
  00056	f3 0f 11 40 08	 movss	 DWORD PTR [eax+8], xmm0

; 394  : }

  0005b	5d		 pop	 ebp
  0005c	c2 08 00	 ret	 8
??DD3DXVECTOR3@@QBE?AU0@M@Z ENDP			; D3DXVECTOR3::operator*
_TEXT	ENDS
PUBLIC	??8D3DXVECTOR3@@QBEHABU0@@Z			; D3DXVECTOR3::operator==
; Function compile flags: /Ogsp
;	COMDAT ??8D3DXVECTOR3@@QBEHABU0@@Z
_TEXT	SEGMENT
_v$ = 8							; size = 4
??8D3DXVECTOR3@@QBEHABU0@@Z PROC			; D3DXVECTOR3::operator==, COMDAT
; _this$ = ecx

; 413  : {

  00000	55		 push	 ebp
  00001	8b ec		 mov	 ebp, esp

; 414  :     return x == v.x && y == v.y && z == v.z;

  00003	8b 55 08	 mov	 edx, DWORD PTR _v$[ebp]
  00006	f3 0f 10 01	 movss	 xmm0, DWORD PTR [ecx]
  0000a	f3 0f 10 0a	 movss	 xmm1, DWORD PTR [edx]
  0000e	0f 5a c0	 cvtps2pd xmm0, xmm0
  00011	0f 5a c9	 cvtps2pd xmm1, xmm1
  00014	66 0f 2e c1	 ucomisd xmm0, xmm1
  00018	9f		 lahf
  00019	f6 c4 44	 test	 ah, 68			; 00000044H
  0001c	7a 39		 jp	 SHORT $LN3@operator
  0001e	f3 0f 10 41 04	 movss	 xmm0, DWORD PTR [ecx+4]
  00023	f3 0f 10 4a 04	 movss	 xmm1, DWORD PTR [edx+4]
  00028	0f 5a c0	 cvtps2pd xmm0, xmm0
  0002b	0f 5a c9	 cvtps2pd xmm1, xmm1
  0002e	66 0f 2e c1	 ucomisd xmm0, xmm1
  00032	9f		 lahf
  00033	f6 c4 44	 test	 ah, 68			; 00000044H
  00036	7a 1f		 jp	 SHORT $LN3@operator
  00038	f3 0f 10 41 08	 movss	 xmm0, DWORD PTR [ecx+8]
  0003d	f3 0f 10 4a 08	 movss	 xmm1, DWORD PTR [edx+8]
  00042	0f 5a c0	 cvtps2pd xmm0, xmm0
  00045	0f 5a c9	 cvtps2pd xmm1, xmm1
  00048	66 0f 2e c1	 ucomisd xmm0, xmm1
  0004c	9f		 lahf
  0004d	f6 c4 44	 test	 ah, 68			; 00000044H
  00050	7a 05		 jp	 SHORT $LN3@operator
  00052	33 c0		 xor	 eax, eax
  00054	40		 inc	 eax
  00055	eb 02		 jmp	 SHORT $LN4@operator
$LN3@operator:
  00057	33 c0		 xor	 eax, eax
$LN4@operator:

; 415  : }

  00059	5d		 pop	 ebp
  0005a	c2 04 00	 ret	 4
??8D3DXVECTOR3@@QBEHABU0@@Z ENDP			; D3DXVECTOR3::operator==
_TEXT	ENDS
PUBLIC	??9D3DXVECTOR3@@QBEHABU0@@Z			; D3DXVECTOR3::operator!=
; Function compile flags: /Ogsp
;	COMDAT ??9D3DXVECTOR3@@QBEHABU0@@Z
_TEXT	SEGMENT
_v$ = 8							; size = 4
??9D3DXVECTOR3@@QBEHABU0@@Z PROC			; D3DXVECTOR3::operator!=, COMDAT
; _this$ = ecx

; 419  : {

  00000	55		 push	 ebp
  00001	8b ec		 mov	 ebp, esp

; 420  :     return x != v.x || y != v.y || z != v.z;

  00003	8b 55 08	 mov	 edx, DWORD PTR _v$[ebp]
  00006	f3 0f 10 01	 movss	 xmm0, DWORD PTR [ecx]
  0000a	f3 0f 10 0a	 movss	 xmm1, DWORD PTR [edx]
  0000e	0f 5a c0	 cvtps2pd xmm0, xmm0
  00011	0f 5a c9	 cvtps2pd xmm1, xmm1
  00014	66 0f 2e c1	 ucomisd xmm0, xmm1
  00018	9f		 lahf
  00019	f6 c4 44	 test	 ah, 68			; 00000044H
  0001c	7a 38		 jp	 SHORT $LN3@operator@2
  0001e	f3 0f 10 41 04	 movss	 xmm0, DWORD PTR [ecx+4]
  00023	f3 0f 10 4a 04	 movss	 xmm1, DWORD PTR [edx+4]
  00028	0f 5a c0	 cvtps2pd xmm0, xmm0
  0002b	0f 5a c9	 cvtps2pd xmm1, xmm1
  0002e	66 0f 2e c1	 ucomisd xmm0, xmm1
  00032	9f		 lahf
  00033	f6 c4 44	 test	 ah, 68			; 00000044H
  00036	7a 1e		 jp	 SHORT $LN3@operator@2
  00038	f3 0f 10 41 08	 movss	 xmm0, DWORD PTR [ecx+8]
  0003d	f3 0f 10 4a 08	 movss	 xmm1, DWORD PTR [edx+8]
  00042	0f 5a c0	 cvtps2pd xmm0, xmm0
  00045	0f 5a c9	 cvtps2pd xmm1, xmm1
  00048	66 0f 2e c1	 ucomisd xmm0, xmm1
  0004c	9f		 lahf
  0004d	f6 c4 44	 test	 ah, 68			; 00000044H
  00050	7a 04		 jp	 SHORT $LN3@operator@2
  00052	33 c0		 xor	 eax, eax
  00054	eb 03		 jmp	 SHORT $LN4@operator@2
$LN3@operator@2:
  00056	33 c0		 xor	 eax, eax
  00058	40		 inc	 eax
$LN4@operator@2:

; 421  : }

  00059	5d		 pop	 ebp
  0005a	c2 04 00	 ret	 4
??9D3DXVECTOR3@@QBEHABU0@@Z ENDP			; D3DXVECTOR3::operator!=
_TEXT	ENDS
PUBLIC	?D3DXVec3LengthSq@@YAMPBUD3DXVECTOR3@@@Z	; D3DXVec3LengthSq
; Function compile flags: /Ogsp
;	COMDAT ?D3DXVec3LengthSq@@YAMPBUD3DXVECTOR3@@@Z
_TEXT	SEGMENT
tv165 = 8						; size = 4
_pV$ = 8						; size = 4
?D3DXVec3LengthSq@@YAMPBUD3DXVECTOR3@@@Z PROC		; D3DXVec3LengthSq, COMDAT

; 1725 : {

  00000	55		 push	 ebp
  00001	8b ec		 mov	 ebp, esp

; 1726 : #ifdef D3DX_DEBUG
; 1727 :     if(!pV)
; 1728 :         return 0.0f;
; 1729 : #endif
; 1730 : 
; 1731 :     return pV->x * pV->x + pV->y * pV->y + pV->z * pV->z;

  00003	8b 45 08	 mov	 eax, DWORD PTR _pV$[ebp]
  00006	d9 40 04	 fld	 DWORD PTR [eax+4]
  00009	d9 00		 fld	 DWORD PTR [eax]
  0000b	d9 40 08	 fld	 DWORD PTR [eax+8]
  0000e	d9 c1		 fld	 ST(1)
  00010	de ca		 fmulp	 ST(2), ST(0)
  00012	d9 c2		 fld	 ST(2)
  00014	de cb		 fmulp	 ST(3), ST(0)
  00016	d9 c9		 fxch	 ST(1)
  00018	de c2		 faddp	 ST(2), ST(0)
  0001a	d9 c0		 fld	 ST(0)
  0001c	de c9		 fmulp	 ST(1), ST(0)
  0001e	de c1		 faddp	 ST(1), ST(0)
  00020	d9 5d 08	 fstp	 DWORD PTR tv165[ebp]
  00023	d9 45 08	 fld	 DWORD PTR tv165[ebp]

; 1732 : }

  00026	5d		 pop	 ebp
  00027	c3		 ret	 0
?D3DXVec3LengthSq@@YAMPBUD3DXVECTOR3@@@Z ENDP		; D3DXVec3LengthSq
_TEXT	ENDS
PUBLIC	?D3DXVec3Dot@@YAMPBUD3DXVECTOR3@@0@Z		; D3DXVec3Dot
; Function compile flags: /Ogsp
;	COMDAT ?D3DXVec3Dot@@YAMPBUD3DXVECTOR3@@0@Z
_TEXT	SEGMENT
tv188 = 8						; size = 4
_pV1$ = 8						; size = 4
_pV2$ = 12						; size = 4
?D3DXVec3Dot@@YAMPBUD3DXVECTOR3@@0@Z PROC		; D3DXVec3Dot, COMDAT

; 1736 : {

  00000	55		 push	 ebp
  00001	8b ec		 mov	 ebp, esp

; 1737 : #ifdef D3DX_DEBUG
; 1738 :     if(!pV1 || !pV2)
; 1739 :         return 0.0f;
; 1740 : #endif
; 1741 : 
; 1742 :     return pV1->x * pV2->x + pV1->y * pV2->y + pV1->z * pV2->z;

  00003	8b 45 08	 mov	 eax, DWORD PTR _pV1$[ebp]
  00006	8b 4d 0c	 mov	 ecx, DWORD PTR _pV2$[ebp]
  00009	d9 40 04	 fld	 DWORD PTR [eax+4]
  0000c	d8 49 04	 fmul	 DWORD PTR [ecx+4]
  0000f	d9 00		 fld	 DWORD PTR [eax]
  00011	d8 09		 fmul	 DWORD PTR [ecx]
  00013	de c1		 faddp	 ST(1), ST(0)
  00015	d9 40 08	 fld	 DWORD PTR [eax+8]
  00018	d8 49 08	 fmul	 DWORD PTR [ecx+8]
  0001b	de c1		 faddp	 ST(1), ST(0)
  0001d	d9 5d 08	 fstp	 DWORD PTR tv188[ebp]
  00020	d9 45 08	 fld	 DWORD PTR tv188[ebp]

; 1743 : }

  00023	5d		 pop	 ebp
  00024	c3		 ret	 0
?D3DXVec3Dot@@YAMPBUD3DXVECTOR3@@0@Z ENDP		; D3DXVec3Dot
_TEXT	ENDS
PUBLIC	??$addressof@$$CBUAniRotateInfo@@@std@@YAPBUAniRotateInfo@@ABU1@@Z ; std::addressof<AniRotateInfo const >
; Function compile flags: /Ogsp
; File c:\program files (x86)\microsoft visual studio 10.0\vc\include\xmemory
;	COMDAT ??$addressof@$$CBUAniRotateInfo@@@std@@YAPBUAniRotateInfo@@ABU1@@Z
_TEXT	SEGMENT
__Val$ = 8						; size = 4
??$addressof@$$CBUAniRotateInfo@@@std@@YAPBUAniRotateInfo@@ABU1@@Z PROC ; std::addressof<AniRotateInfo const >, COMDAT

; 110  : 	{	// return address of _Val

  00000	55		 push	 ebp
  00001	8b ec		 mov	 ebp, esp

; 111  : 	return ((_Ty *) &(char&)_Val);

  00003	8b 45 08	 mov	 eax, DWORD PTR __Val$[ebp]

; 112  : 	}

  00006	5d		 pop	 ebp
  00007	c3		 ret	 0
??$addressof@$$CBUAniRotateInfo@@@std@@YAPBUAniRotateInfo@@ABU1@@Z ENDP ; std::addressof<AniRotateInfo const >
_TEXT	ENDS
PUBLIC	??$addressof@$$CBUtagBaseCharDistanceSq@@@std@@YAPBUtagBaseCharDistanceSq@@ABU1@@Z ; std::addressof<tagBaseCharDistanceSq const >
; Function compile flags: /Ogsp
;	COMDAT ??$addressof@$$CBUtagBaseCharDistanceSq@@@std@@YAPBUtagBaseCharDistanceSq@@ABU1@@Z
_TEXT	SEGMENT
__Val$ = 8						; size = 4
??$addressof@$$CBUtagBaseCharDistanceSq@@@std@@YAPBUtagBaseCharDistanceSq@@ABU1@@Z PROC ; std::addressof<tagBaseCharDistanceSq const >, COMDAT

; 110  : 	{	// return address of _Val

  00000	55		 push	 ebp
  00001	8b ec		 mov	 ebp, esp

; 111  : 	return ((_Ty *) &(char&)_Val);

  00003	8b 45 08	 mov	 eax, DWORD PTR __Val$[ebp]

; 112  : 	}

  00006	5d		 pop	 ebp
  00007	c3		 ret	 0
??$addressof@$$CBUtagBaseCharDistanceSq@@@std@@YAPBUtagBaseCharDistanceSq@@ABU1@@Z ENDP ; std::addressof<tagBaseCharDistanceSq const >
_TEXT	ENDS
PUBLIC	__TI2?AVbad_alloc@std@@
PUBLIC	??$_Allocate@UAniRotateInfo@@@std@@YAPAUAniRotateInfo@@IPAU1@@Z ; std::_Allocate<AniRotateInfo>
PUBLIC	__CTA2?AVbad_alloc@std@@
PUBLIC	__CT??_R0?AVbad_alloc@std@@@8??0bad_alloc@std@@QAE@ABV01@@Z12
PUBLIC	??0bad_alloc@std@@QAE@ABV01@@Z			; std::bad_alloc::bad_alloc
PUBLIC	__CT??_R0?AVexception@std@@@8??0exception@std@@QAE@ABV01@@Z12
EXTRN	??2@YAPAXI@Z:PROC				; operator new
EXTRN	__CxxThrowException@8:PROC
EXTRN	??0exception@std@@QAE@ABV01@@Z:PROC		; std::exception::exception
;	COMDAT __CT??_R0?AVexception@std@@@8??0exception@std@@QAE@ABV01@@Z12
; File c:\program files (x86)\microsoft visual studio 10.0\vc\include\exception
xdata$x	SEGMENT
__CT??_R0?AVexception@std@@@8??0exception@std@@QAE@ABV01@@Z12 DD 00H
	DD	FLAT:??_R0?AVexception@std@@@8
	DD	00H
	DD	0ffffffffH
	ORG $+4
	DD	0cH
	DD	FLAT:??0exception@std@@QAE@ABV01@@Z
xdata$x	ENDS
;	COMDAT __CT??_R0?AVbad_alloc@std@@@8??0bad_alloc@std@@QAE@ABV01@@Z12
xdata$x	SEGMENT
__CT??_R0?AVbad_alloc@std@@@8??0bad_alloc@std@@QAE@ABV01@@Z12 DD 00H
	DD	FLAT:??_R0?AVbad_alloc@std@@@8
	DD	00H
	DD	0ffffffffH
	ORG $+4
	DD	0cH
	DD	FLAT:??0bad_alloc@std@@QAE@ABV01@@Z
xdata$x	ENDS
;	COMDAT __CTA2?AVbad_alloc@std@@
xdata$x	SEGMENT
__CTA2?AVbad_alloc@std@@ DD 02H
	DD	FLAT:__CT??_R0?AVbad_alloc@std@@@8??0bad_alloc@std@@QAE@ABV01@@Z12
	DD	FLAT:__CT??_R0?AVexception@std@@@8??0exception@std@@QAE@ABV01@@Z12
xdata$x	ENDS
;	COMDAT __TI2?AVbad_alloc@std@@
xdata$x	SEGMENT
__TI2?AVbad_alloc@std@@ DD 00H
	DD	FLAT:??1bad_alloc@std@@UAE@XZ
	DD	00H
	DD	FLAT:__CTA2?AVbad_alloc@std@@
; Function compile flags: /Ogsp
; File c:\program files (x86)\microsoft visual studio 10.0\vc\include\xmemory
xdata$x	ENDS
;	COMDAT ??$_Allocate@UAniRotateInfo@@@std@@YAPAUAniRotateInfo@@IPAU1@@Z
_TEXT	SEGMENT
$T556611 = -12						; size = 12
$T556616 = 8						; size = 4
__Count$ = 8						; size = 4
___formal$ = 12						; size = 4
??$_Allocate@UAniRotateInfo@@@std@@YAPAUAniRotateInfo@@IPAU1@@Z PROC ; std::_Allocate<AniRotateInfo>, COMDAT

; 30   : 	{	// allocate storage for _Count elements of type _Ty

  00000	55		 push	 ebp
  00001	8b ec		 mov	 ebp, esp

; 31   : 	void *_Ptr = 0;
; 32   : 
; 33   : 	if (_Count <= 0)

  00003	8b 4d 08	 mov	 ecx, DWORD PTR __Count$[ebp]
  00006	83 ec 0c	 sub	 esp, 12			; 0000000cH
  00009	33 c0		 xor	 eax, eax
  0000b	85 c9		 test	 ecx, ecx

; 34   : 		_Count = 0;
; 35   : 	else if (((_SIZT)(-1) / sizeof (_Ty) < _Count)

  0000d	74 3e		 je	 SHORT $LN5@Allocate

; 36   : 		|| (_Ptr = ::operator new(_Count * sizeof (_Ty))) == 0)

  0000f	81 f9 ff ff ff
	1f		 cmp	 ecx, 536870911		; 1fffffffH
  00015	77 10		 ja	 SHORT $LN1@Allocate
  00017	8b c1		 mov	 eax, ecx
  00019	c1 e0 03	 shl	 eax, 3
  0001c	50		 push	 eax
  0001d	e8 00 00 00 00	 call	 ??2@YAPAXI@Z		; operator new
  00022	59		 pop	 ecx
  00023	85 c0		 test	 eax, eax

; 38   : 
; 39   : 	return ((_Ty _FARQ *)_Ptr);

  00025	75 26		 jne	 SHORT $LN5@Allocate
$LN1@Allocate:

; 37   : 		_THROW_NCEE(bad_alloc, 0);

  00027	83 65 08 00	 and	 DWORD PTR $T556616[ebp], 0
  0002b	8d 45 08	 lea	 eax, DWORD PTR $T556616[ebp]
  0002e	50		 push	 eax
  0002f	8d 4d f4	 lea	 ecx, DWORD PTR $T556611[ebp]
  00032	ff 15 00 00 00
	00		 call	 DWORD PTR __imp_??0exception@std@@QAE@ABQBD@Z
  00038	68 00 00 00 00	 push	 OFFSET __TI2?AVbad_alloc@std@@
  0003d	8d 45 f4	 lea	 eax, DWORD PTR $T556611[ebp]
  00040	50		 push	 eax
  00041	c7 45 f4 00 00
	00 00		 mov	 DWORD PTR $T556611[ebp], OFFSET ??_7bad_alloc@std@@6B@
  00048	e8 00 00 00 00	 call	 __CxxThrowException@8
$LN10@Allocate:
$LN5@Allocate:

; 40   : 	}

  0004d	c9		 leave
  0004e	c3		 ret	 0
$LN9@Allocate:
??$_Allocate@UAniRotateInfo@@@std@@YAPAUAniRotateInfo@@IPAU1@@Z ENDP ; std::_Allocate<AniRotateInfo>
_TEXT	ENDS
PUBLIC	??$_Allocate@UtagBaseCharDistanceSq@@@std@@YAPAUtagBaseCharDistanceSq@@IPAU1@@Z ; std::_Allocate<tagBaseCharDistanceSq>
; Function compile flags: /Ogsp
;	COMDAT ??$_Allocate@UtagBaseCharDistanceSq@@@std@@YAPAUtagBaseCharDistanceSq@@IPAU1@@Z
_TEXT	SEGMENT
$T556621 = -12						; size = 12
$T556625 = 8						; size = 4
__Count$ = 8						; size = 4
___formal$ = 12						; size = 4
??$_Allocate@UtagBaseCharDistanceSq@@@std@@YAPAUtagBaseCharDistanceSq@@IPAU1@@Z PROC ; std::_Allocate<tagBaseCharDistanceSq>, COMDAT

; 30   : 	{	// allocate storage for _Count elements of type _Ty

  00000	55		 push	 ebp
  00001	8b ec		 mov	 ebp, esp

; 31   : 	void *_Ptr = 0;
; 32   : 
; 33   : 	if (_Count <= 0)

  00003	8b 4d 08	 mov	 ecx, DWORD PTR __Count$[ebp]
  00006	83 ec 0c	 sub	 esp, 12			; 0000000cH
  00009	33 c0		 xor	 eax, eax
  0000b	85 c9		 test	 ecx, ecx

; 34   : 		_Count = 0;
; 35   : 	else if (((_SIZT)(-1) / sizeof (_Ty) < _Count)

  0000d	74 3c		 je	 SHORT $LN5@Allocate@2

; 36   : 		|| (_Ptr = ::operator new(_Count * sizeof (_Ty))) == 0)

  0000f	81 f9 ff ff ff
	07		 cmp	 ecx, 134217727		; 07ffffffH
  00015	77 0e		 ja	 SHORT $LN1@Allocate@2
  00017	c1 e1 05	 shl	 ecx, 5
  0001a	51		 push	 ecx
  0001b	e8 00 00 00 00	 call	 ??2@YAPAXI@Z		; operator new
  00020	59		 pop	 ecx
  00021	85 c0		 test	 eax, eax

; 38   : 
; 39   : 	return ((_Ty _FARQ *)_Ptr);

  00023	75 26		 jne	 SHORT $LN5@Allocate@2
$LN1@Allocate@2:

; 37   : 		_THROW_NCEE(bad_alloc, 0);

  00025	83 65 08 00	 and	 DWORD PTR $T556625[ebp], 0
  00029	8d 45 08	 lea	 eax, DWORD PTR $T556625[ebp]
  0002c	50		 push	 eax
  0002d	8d 4d f4	 lea	 ecx, DWORD PTR $T556621[ebp]
  00030	ff 15 00 00 00
	00		 call	 DWORD PTR __imp_??0exception@std@@QAE@ABQBD@Z
  00036	68 00 00 00 00	 push	 OFFSET __TI2?AVbad_alloc@std@@
  0003b	8d 45 f4	 lea	 eax, DWORD PTR $T556621[ebp]
  0003e	50		 push	 eax
  0003f	c7 45 f4 00 00
	00 00		 mov	 DWORD PTR $T556621[ebp], OFFSET ??_7bad_alloc@std@@6B@
  00046	e8 00 00 00 00	 call	 __CxxThrowException@8
$LN10@Allocate@2:
$LN5@Allocate@2:

; 40   : 	}

  0004b	c9		 leave
  0004c	c3		 ret	 0
$LN9@Allocate@2:
??$_Allocate@UtagBaseCharDistanceSq@@@std@@YAPAUtagBaseCharDistanceSq@@IPAU1@@Z ENDP ; std::_Allocate<tagBaseCharDistanceSq>
_TEXT	ENDS
PUBLIC	??G?$_Vector_const_iterator@V?$_Vector_val@UtagBaseCharDistanceSq@@V?$allocator@UtagBaseCharDistanceSq@@@std@@@std@@@std@@QBEHABV01@@Z ; std::_Vector_const_iterator<std::_Vector_val<tagBaseCharDistanceSq,std::allocator<tagBaseCharDistanceSq> > >::operator-
; Function compile flags: /Ogsp
; File c:\program files (x86)\microsoft visual studio 10.0\vc\include\vector
;	COMDAT ??G?$_Vector_const_iterator@V?$_Vector_val@UtagBaseCharDistanceSq@@V?$allocator@UtagBaseCharDistanceSq@@@std@@@std@@@std@@QBEHABV01@@Z
_TEXT	SEGMENT
__Right$ = 8						; size = 4
??G?$_Vector_const_iterator@V?$_Vector_val@UtagBaseCharDistanceSq@@V?$allocator@UtagBaseCharDistanceSq@@@std@@@std@@@std@@QBEHABV01@@Z PROC ; std::_Vector_const_iterator<std::_Vector_val<tagBaseCharDistanceSq,std::allocator<tagBaseCharDistanceSq> > >::operator-, COMDAT
; _this$ = ecx

; 190  : 		{	// return difference of iterators

  00000	55		 push	 ebp
  00001	8b ec		 mov	 ebp, esp

; 191  : 		_Compat(_Right);
; 192  : 		return (this->_Ptr - _Right._Ptr);

  00003	8b 01		 mov	 eax, DWORD PTR [ecx]
  00005	8b 4d 08	 mov	 ecx, DWORD PTR __Right$[ebp]
  00008	2b 01		 sub	 eax, DWORD PTR [ecx]
  0000a	c1 f8 05	 sar	 eax, 5

; 193  : 		}

  0000d	5d		 pop	 ebp
  0000e	c2 04 00	 ret	 4
??G?$_Vector_const_iterator@V?$_Vector_val@UtagBaseCharDistanceSq@@V?$allocator@UtagBaseCharDistanceSq@@@std@@@std@@@std@@QBEHABV01@@Z ENDP ; std::_Vector_const_iterator<std::_Vector_val<tagBaseCharDistanceSq,std::allocator<tagBaseCharDistanceSq> > >::operator-
_TEXT	ENDS
PUBLIC	??$forward@AAUAniRotateInfo@@@std@@YAAAUAniRotateInfo@@AAU1@@Z ; std::forward<AniRotateInfo &>
; Function compile flags: /Ogsp
; File c:\program files (x86)\microsoft visual studio 10.0\vc\include\utility
;	COMDAT ??$forward@AAUAniRotateInfo@@@std@@YAAAUAniRotateInfo@@AAU1@@Z
_TEXT	SEGMENT
__Arg$ = 8						; size = 4
??$forward@AAUAniRotateInfo@@@std@@YAAAUAniRotateInfo@@AAU1@@Z PROC ; std::forward<AniRotateInfo &>, COMDAT

; 78   : 	{	// forward _Arg, given explicitly specified type parameter

  00000	55		 push	 ebp
  00001	8b ec		 mov	 ebp, esp

; 79   : 	return ((_Ty&&)_Arg);

  00003	8b 45 08	 mov	 eax, DWORD PTR __Arg$[ebp]

; 80   : 	}

  00006	5d		 pop	 ebp
  00007	c3		 ret	 0
??$forward@AAUAniRotateInfo@@@std@@YAAAUAniRotateInfo@@AAU1@@Z ENDP ; std::forward<AniRotateInfo &>
_TEXT	ENDS
PUBLIC	??$construct@AAUAniRotateInfo@@@?$allocator@UAniRotateInfo@@@std@@QAEXPAUAniRotateInfo@@AAU2@@Z ; std::allocator<AniRotateInfo>::construct<AniRotateInfo &>
; Function compile flags: /Ogsp
; File c:\program files (x86)\microsoft visual studio 10.0\vc\include\xmemory
;	COMDAT ??$construct@AAUAniRotateInfo@@@?$allocator@UAniRotateInfo@@@std@@QAEXPAUAniRotateInfo@@AAU2@@Z
_TEXT	SEGMENT
__Ptr$ = 8						; size = 4
__Val$ = 12						; size = 4
??$construct@AAUAniRotateInfo@@@?$allocator@UAniRotateInfo@@@std@@QAEXPAUAniRotateInfo@@AAU2@@Z PROC ; std::allocator<AniRotateInfo>::construct<AniRotateInfo &>, COMDAT
; _this$ = ecx

; 206  : 		void construct(pointer _Ptr, _Other&& _Val)

  00000	55		 push	 ebp
  00001	8b ec		 mov	 ebp, esp

; 207  : 		{	// construct object at _Ptr with value _Val
; 208  : 		::new ((void _FARQ *)_Ptr) _Ty(_STD forward<_Other>(_Val));

  00003	8b 45 08	 mov	 eax, DWORD PTR __Ptr$[ebp]
  00006	85 c0		 test	 eax, eax
  00008	74 0d		 je	 SHORT $LN3@construct
  0000a	8b 4d 0c	 mov	 ecx, DWORD PTR __Val$[ebp]
  0000d	8b 11		 mov	 edx, DWORD PTR [ecx]
  0000f	89 10		 mov	 DWORD PTR [eax], edx
  00011	8b 49 04	 mov	 ecx, DWORD PTR [ecx+4]
  00014	89 48 04	 mov	 DWORD PTR [eax+4], ecx
$LN3@construct:

; 209  : 		}

  00017	5d		 pop	 ebp
  00018	c2 08 00	 ret	 8
??$construct@AAUAniRotateInfo@@@?$allocator@UAniRotateInfo@@@std@@QAEXPAUAniRotateInfo@@AAU2@@Z ENDP ; std::allocator<AniRotateInfo>::construct<AniRotateInfo &>
_TEXT	ENDS
PUBLIC	??$forward@ABUAniRotateInfo@@@std@@YAABUAniRotateInfo@@ABU1@@Z ; std::forward<AniRotateInfo const &>
; Function compile flags: /Ogsp
; File c:\program files (x86)\microsoft visual studio 10.0\vc\include\utility
;	COMDAT ??$forward@ABUAniRotateInfo@@@std@@YAABUAniRotateInfo@@ABU1@@Z
_TEXT	SEGMENT
__Arg$ = 8						; size = 4
??$forward@ABUAniRotateInfo@@@std@@YAABUAniRotateInfo@@ABU1@@Z PROC ; std::forward<AniRotateInfo const &>, COMDAT

; 78   : 	{	// forward _Arg, given explicitly specified type parameter

  00000	55		 push	 ebp
  00001	8b ec		 mov	 ebp, esp

; 79   : 	return ((_Ty&&)_Arg);

  00003	8b 45 08	 mov	 eax, DWORD PTR __Arg$[ebp]

; 80   : 	}

  00006	5d		 pop	 ebp
  00007	c3		 ret	 0
??$forward@ABUAniRotateInfo@@@std@@YAABUAniRotateInfo@@ABU1@@Z ENDP ; std::forward<AniRotateInfo const &>
_TEXT	ENDS
PUBLIC	??$forward@AAUtagBaseCharDistanceSq@@@std@@YAAAUtagBaseCharDistanceSq@@AAU1@@Z ; std::forward<tagBaseCharDistanceSq &>
; Function compile flags: /Ogsp
;	COMDAT ??$forward@AAUtagBaseCharDistanceSq@@@std@@YAAAUtagBaseCharDistanceSq@@AAU1@@Z
_TEXT	SEGMENT
__Arg$ = 8						; size = 4
??$forward@AAUtagBaseCharDistanceSq@@@std@@YAAAUtagBaseCharDistanceSq@@AAU1@@Z PROC ; std::forward<tagBaseCharDistanceSq &>, COMDAT

; 78   : 	{	// forward _Arg, given explicitly specified type parameter

  00000	55		 push	 ebp
  00001	8b ec		 mov	 ebp, esp

; 79   : 	return ((_Ty&&)_Arg);

  00003	8b 45 08	 mov	 eax, DWORD PTR __Arg$[ebp]

; 80   : 	}

  00006	5d		 pop	 ebp
  00007	c3		 ret	 0
??$forward@AAUtagBaseCharDistanceSq@@@std@@YAAAUtagBaseCharDistanceSq@@AAU1@@Z ENDP ; std::forward<tagBaseCharDistanceSq &>
_TEXT	ENDS
PUBLIC	??$forward@ABUtagBaseCharDistanceSq@@@std@@YAABUtagBaseCharDistanceSq@@ABU1@@Z ; std::forward<tagBaseCharDistanceSq const &>
; Function compile flags: /Ogsp
;	COMDAT ??$forward@ABUtagBaseCharDistanceSq@@@std@@YAABUtagBaseCharDistanceSq@@ABU1@@Z
_TEXT	SEGMENT
__Arg$ = 8						; size = 4
??$forward@ABUtagBaseCharDistanceSq@@@std@@YAABUtagBaseCharDistanceSq@@ABU1@@Z PROC ; std::forward<tagBaseCharDistanceSq const &>, COMDAT

; 78   : 	{	// forward _Arg, given explicitly specified type parameter

  00000	55		 push	 ebp
  00001	8b ec		 mov	 ebp, esp

; 79   : 	return ((_Ty&&)_Arg);

  00003	8b 45 08	 mov	 eax, DWORD PTR __Arg$[ebp]

; 80   : 	}

  00006	5d		 pop	 ebp
  00007	c3		 ret	 0
??$forward@ABUtagBaseCharDistanceSq@@@std@@YAABUtagBaseCharDistanceSq@@ABU1@@Z ENDP ; std::forward<tagBaseCharDistanceSq const &>
_TEXT	ENDS
PUBLIC	??$_Ptr_cat@PAVioBaseChar@@PAV1@@std@@YA?AU_Scalar_ptr_iterator_tag@0@PAPAVioBaseChar@@0@Z ; std::_Ptr_cat<ioBaseChar *,ioBaseChar *>
; Function compile flags: /Ogsp
; File c:\program files (x86)\microsoft visual studio 10.0\vc\include\xutility
;	COMDAT ??$_Ptr_cat@PAVioBaseChar@@PAV1@@std@@YA?AU_Scalar_ptr_iterator_tag@0@PAPAVioBaseChar@@0@Z
_TEXT	SEGMENT
__Cat$ = -1						; size = 1
___formal$ = 8						; size = 4
___formal$ = 12						; size = 4
??$_Ptr_cat@PAVioBaseChar@@PAV1@@std@@YA?AU_Scalar_ptr_iterator_tag@0@PAPAVioBaseChar@@0@Z PROC ; std::_Ptr_cat<ioBaseChar *,ioBaseChar *>, COMDAT

; 516  : 	{	// return pointer category from pointers

  00000	55		 push	 ebp
  00001	8b ec		 mov	 ebp, esp
  00003	51		 push	 ecx

; 517  : 	typename _Ptr_cat_helper<_Elem1, _Elem2>::_Type _Cat;
; 518  : 	return (_Cat);

  00004	8a 45 ff	 mov	 al, BYTE PTR __Cat$[ebp]

; 519  : 	}

  00007	c9		 leave
  00008	c3		 ret	 0
??$_Ptr_cat@PAVioBaseChar@@PAV1@@std@@YA?AU_Scalar_ptr_iterator_tag@0@PAPAVioBaseChar@@0@Z ENDP ; std::_Ptr_cat<ioBaseChar *,ioBaseChar *>
_TEXT	ENDS
PUBLIC	??$_Move@PAPAVioBaseChar@@PAPAV1@@std@@YAPAPAVioBaseChar@@PAPAV1@00U_Scalar_ptr_iterator_tag@0@@Z ; std::_Move<ioBaseChar * *,ioBaseChar * *>
; Function compile flags: /Ogsp
;	COMDAT ??$_Move@PAPAVioBaseChar@@PAPAV1@@std@@YAPAPAVioBaseChar@@PAPAV1@00U_Scalar_ptr_iterator_tag@0@@Z
_TEXT	SEGMENT
__First$ = 8						; size = 4
__Last$ = 12						; size = 4
__Dest$ = 16						; size = 4
___formal$ = 20						; size = 1
??$_Move@PAPAVioBaseChar@@PAPAV1@@std@@YAPAPAVioBaseChar@@PAPAV1@00U_Scalar_ptr_iterator_tag@0@@Z PROC ; std::_Move<ioBaseChar * *,ioBaseChar * *>, COMDAT

; 2522 : 	{	// move [_First, _Last) to [_Dest, ...), pointers to scalars

  00000	55		 push	 ebp
  00001	8b ec		 mov	 ebp, esp
  00003	56		 push	 esi

; 2523 : 	ptrdiff_t _Count = _Last - _First;

  00004	8b 75 0c	 mov	 esi, DWORD PTR __Last$[ebp]
  00007	2b 75 08	 sub	 esi, DWORD PTR __First$[ebp]
  0000a	57		 push	 edi

; 2524 : 	_CSTD memmove(&*_Dest, &*_First,
; 2525 : 		_Count * sizeof (*_First));

  0000b	8b 7d 10	 mov	 edi, DWORD PTR __Dest$[ebp]
  0000e	c1 fe 02	 sar	 esi, 2
  00011	c1 e6 02	 shl	 esi, 2
  00014	56		 push	 esi
  00015	ff 75 08	 push	 DWORD PTR __First$[ebp]
  00018	57		 push	 edi
  00019	ff 15 00 00 00
	00		 call	 DWORD PTR __imp__memmove
  0001f	83 c4 0c	 add	 esp, 12			; 0000000cH

; 2526 : 	return (_Dest + _Count);

  00022	8d 04 3e	 lea	 eax, DWORD PTR [esi+edi]
  00025	5f		 pop	 edi
  00026	5e		 pop	 esi

; 2527 : 	}

  00027	5d		 pop	 ebp
  00028	c3		 ret	 0
??$_Move@PAPAVioBaseChar@@PAPAV1@@std@@YAPAPAVioBaseChar@@PAPAV1@00U_Scalar_ptr_iterator_tag@0@@Z ENDP ; std::_Move<ioBaseChar * *,ioBaseChar * *>
_TEXT	ENDS
PUBLIC	??$_Ptr_cat@UAniRotateInfo@@U1@@std@@YA?AU_Nonscalar_ptr_iterator_tag@0@PAUAniRotateInfo@@0@Z ; std::_Ptr_cat<AniRotateInfo,AniRotateInfo>
; Function compile flags: /Ogsp
;	COMDAT ??$_Ptr_cat@UAniRotateInfo@@U1@@std@@YA?AU_Nonscalar_ptr_iterator_tag@0@PAUAniRotateInfo@@0@Z
_TEXT	SEGMENT
__Cat$ = -1						; size = 1
___formal$ = 8						; size = 4
___formal$ = 12						; size = 4
??$_Ptr_cat@UAniRotateInfo@@U1@@std@@YA?AU_Nonscalar_ptr_iterator_tag@0@PAUAniRotateInfo@@0@Z PROC ; std::_Ptr_cat<AniRotateInfo,AniRotateInfo>, COMDAT

; 516  : 	{	// return pointer category from pointers

  00000	55		 push	 ebp
  00001	8b ec		 mov	 ebp, esp
  00003	51		 push	 ecx

; 517  : 	typename _Ptr_cat_helper<_Elem1, _Elem2>::_Type _Cat;
; 518  : 	return (_Cat);

  00004	8a 45 ff	 mov	 al, BYTE PTR __Cat$[ebp]

; 519  : 	}

  00007	c9		 leave
  00008	c3		 ret	 0
??$_Ptr_cat@UAniRotateInfo@@U1@@std@@YA?AU_Nonscalar_ptr_iterator_tag@0@PAUAniRotateInfo@@0@Z ENDP ; std::_Ptr_cat<AniRotateInfo,AniRotateInfo>
_TEXT	ENDS
PUBLIC	??$_Destroy_range@V?$allocator@PAVioBaseChar@@@std@@@std@@YAXPAPAVioBaseChar@@0AAV?$allocator@PAVioBaseChar@@@0@U_Scalar_ptr_iterator_tag@0@@Z ; std::_Destroy_range<std::allocator<ioBaseChar *> >
; Function compile flags: /Ogsp
; File c:\program files (x86)\microsoft visual studio 10.0\vc\include\xmemory
;	COMDAT ??$_Destroy_range@V?$allocator@PAVioBaseChar@@@std@@@std@@YAXPAPAVioBaseChar@@0AAV?$allocator@PAVioBaseChar@@@0@U_Scalar_ptr_iterator_tag@0@@Z
_TEXT	SEGMENT
__First$ = 8						; size = 4
__Last$ = 12						; size = 4
__Al$ = 16						; size = 4
___formal$ = 20						; size = 1
??$_Destroy_range@V?$allocator@PAVioBaseChar@@@std@@@std@@YAXPAPAVioBaseChar@@0AAV?$allocator@PAVioBaseChar@@@0@U_Scalar_ptr_iterator_tag@0@@Z PROC ; std::_Destroy_range<std::allocator<ioBaseChar *> >, COMDAT

; 105  : 	}

  00000	c3		 ret	 0
??$_Destroy_range@V?$allocator@PAVioBaseChar@@@std@@@std@@YAXPAPAVioBaseChar@@0AAV?$allocator@PAVioBaseChar@@@0@U_Scalar_ptr_iterator_tag@0@@Z ENDP ; std::_Destroy_range<std::allocator<ioBaseChar *> >
_TEXT	ENDS
PUBLIC	??$_Ptr_cat@UtagBaseCharDistanceSq@@U1@@std@@YA?AU_Nonscalar_ptr_iterator_tag@0@PAUtagBaseCharDistanceSq@@0@Z ; std::_Ptr_cat<tagBaseCharDistanceSq,tagBaseCharDistanceSq>
; Function compile flags: /Ogsp
; File c:\program files (x86)\microsoft visual studio 10.0\vc\include\xutility
;	COMDAT ??$_Ptr_cat@UtagBaseCharDistanceSq@@U1@@std@@YA?AU_Nonscalar_ptr_iterator_tag@0@PAUtagBaseCharDistanceSq@@0@Z
_TEXT	SEGMENT
__Cat$ = -1						; size = 1
___formal$ = 8						; size = 4
___formal$ = 12						; size = 4
??$_Ptr_cat@UtagBaseCharDistanceSq@@U1@@std@@YA?AU_Nonscalar_ptr_iterator_tag@0@PAUtagBaseCharDistanceSq@@0@Z PROC ; std::_Ptr_cat<tagBaseCharDistanceSq,tagBaseCharDistanceSq>, COMDAT

; 516  : 	{	// return pointer category from pointers

  00000	55		 push	 ebp
  00001	8b ec		 mov	 ebp, esp
  00003	51		 push	 ecx

; 517  : 	typename _Ptr_cat_helper<_Elem1, _Elem2>::_Type _Cat;
; 518  : 	return (_Cat);

  00004	8a 45 ff	 mov	 al, BYTE PTR __Cat$[ebp]

; 519  : 	}

  00007	c9		 leave
  00008	c3		 ret	 0
??$_Ptr_cat@UtagBaseCharDistanceSq@@U1@@std@@YA?AU_Nonscalar_ptr_iterator_tag@0@PAUtagBaseCharDistanceSq@@0@Z ENDP ; std::_Ptr_cat<tagBaseCharDistanceSq,tagBaseCharDistanceSq>
_TEXT	ENDS
PUBLIC	??$_Ptr_cat@PBUAniEventTime@@PBU1@@std@@YA?AU_Scalar_ptr_iterator_tag@0@PAPBUAniEventTime@@0@Z ; std::_Ptr_cat<AniEventTime const *,AniEventTime const *>
; Function compile flags: /Ogsp
;	COMDAT ??$_Ptr_cat@PBUAniEventTime@@PBU1@@std@@YA?AU_Scalar_ptr_iterator_tag@0@PAPBUAniEventTime@@0@Z
_TEXT	SEGMENT
__Cat$ = -1						; size = 1
___formal$ = 8						; size = 4
___formal$ = 12						; size = 4
??$_Ptr_cat@PBUAniEventTime@@PBU1@@std@@YA?AU_Scalar_ptr_iterator_tag@0@PAPBUAniEventTime@@0@Z PROC ; std::_Ptr_cat<AniEventTime const *,AniEventTime const *>, COMDAT

; 516  : 	{	// return pointer category from pointers

  00000	55		 push	 ebp
  00001	8b ec		 mov	 ebp, esp
  00003	51		 push	 ecx

; 517  : 	typename _Ptr_cat_helper<_Elem1, _Elem2>::_Type _Cat;
; 518  : 	return (_Cat);

  00004	8a 45 ff	 mov	 al, BYTE PTR __Cat$[ebp]

; 519  : 	}

  00007	c9		 leave
  00008	c3		 ret	 0
??$_Ptr_cat@PBUAniEventTime@@PBU1@@std@@YA?AU_Scalar_ptr_iterator_tag@0@PAPBUAniEventTime@@0@Z ENDP ; std::_Ptr_cat<AniEventTime const *,AniEventTime const *>
_TEXT	ENDS
PUBLIC	??$_Destroy_range@V?$allocator@PBUAniEventTime@@@std@@@std@@YAXPAPBUAniEventTime@@0AAV?$allocator@PBUAniEventTime@@@0@U_Scalar_ptr_iterator_tag@0@@Z ; std::_Destroy_range<std::allocator<AniEventTime const *> >
; Function compile flags: /Ogsp
; File c:\program files (x86)\microsoft visual studio 10.0\vc\include\xmemory
;	COMDAT ??$_Destroy_range@V?$allocator@PBUAniEventTime@@@std@@@std@@YAXPAPBUAniEventTime@@0AAV?$allocator@PBUAniEventTime@@@0@U_Scalar_ptr_iterator_tag@0@@Z
_TEXT	SEGMENT
__First$ = 8						; size = 4
__Last$ = 12						; size = 4
__Al$ = 16						; size = 4
___formal$ = 20						; size = 1
??$_Destroy_range@V?$allocator@PBUAniEventTime@@@std@@@std@@YAXPAPBUAniEventTime@@0AAV?$allocator@PBUAniEventTime@@@0@U_Scalar_ptr_iterator_tag@0@@Z PROC ; std::_Destroy_range<std::allocator<AniEventTime const *> >, COMDAT

; 105  : 	}

  00000	c3		 ret	 0
??$_Destroy_range@V?$allocator@PBUAniEventTime@@@std@@@std@@YAXPAPBUAniEventTime@@0AAV?$allocator@PBUAniEventTime@@@0@U_Scalar_ptr_iterator_tag@0@@Z ENDP ; std::_Destroy_range<std::allocator<AniEventTime const *> >
_TEXT	ENDS
PUBLIC	??$_Construct@UAniRotateInfo@@ABU1@@std@@YAXPAUAniRotateInfo@@ABU1@@Z ; std::_Construct<AniRotateInfo,AniRotateInfo const &>
; Function compile flags: /Ogsp
;	COMDAT ??$_Construct@UAniRotateInfo@@ABU1@@std@@YAXPAUAniRotateInfo@@ABU1@@Z
_TEXT	SEGMENT
__Ptr$ = 8						; size = 4
__Val$ = 12						; size = 4
??$_Construct@UAniRotateInfo@@ABU1@@std@@YAXPAUAniRotateInfo@@ABU1@@Z PROC ; std::_Construct<AniRotateInfo,AniRotateInfo const &>, COMDAT

; 46   : 	{	// construct object at _Ptr with value _Val

  00000	55		 push	 ebp
  00001	8b ec		 mov	 ebp, esp

; 47   : 	void _FARQ *_Vptr = _Ptr;
; 48   : 	::new (_Vptr) _Ty1(_STD forward<_Ty2>(_Val));

  00003	8b 45 08	 mov	 eax, DWORD PTR __Ptr$[ebp]
  00006	85 c0		 test	 eax, eax
  00008	74 0d		 je	 SHORT $LN3@Construct
  0000a	8b 4d 0c	 mov	 ecx, DWORD PTR __Val$[ebp]
  0000d	8b 11		 mov	 edx, DWORD PTR [ecx]
  0000f	89 10		 mov	 DWORD PTR [eax], edx
  00011	8b 49 04	 mov	 ecx, DWORD PTR [ecx+4]
  00014	89 48 04	 mov	 DWORD PTR [eax+4], ecx
$LN3@Construct:

; 49   : 	}

  00017	5d		 pop	 ebp
  00018	c3		 ret	 0
??$_Construct@UAniRotateInfo@@ABU1@@std@@YAXPAUAniRotateInfo@@ABU1@@Z ENDP ; std::_Construct<AniRotateInfo,AniRotateInfo const &>
_TEXT	ENDS
PUBLIC	??0tagBaseCharDistanceSq@@QAE@ABU0@@Z		; tagBaseCharDistanceSq::tagBaseCharDistanceSq
EXTRN	__imp_??0ioHashString@@QAE@ABV0@@Z:PROC
; Function compile flags: /Ogsp
;	COMDAT ??0tagBaseCharDistanceSq@@QAE@ABU0@@Z
_TEXT	SEGMENT
___that$ = 8						; size = 4
??0tagBaseCharDistanceSq@@QAE@ABU0@@Z PROC		; tagBaseCharDistanceSq::tagBaseCharDistanceSq, COMDAT
; _this$ = ecx
  00000	55		 push	 ebp
  00001	8b ec		 mov	 ebp, esp
  00003	53		 push	 ebx
  00004	56		 push	 esi
  00005	8b 75 08	 mov	 esi, DWORD PTR ___that$[ebp]
  00008	57		 push	 edi
  00009	56		 push	 esi
  0000a	8b d9		 mov	 ebx, ecx
  0000c	ff 15 00 00 00
	00		 call	 DWORD PTR __imp_??0ioHashString@@QAE@ABV0@@Z
  00012	d9 46 10	 fld	 DWORD PTR [esi+16]
  00015	83 c6 14	 add	 esi, 20			; 00000014H
  00018	d9 5b 10	 fstp	 DWORD PTR [ebx+16]
  0001b	8d 7b 14	 lea	 edi, DWORD PTR [ebx+20]
  0001e	a5		 movsd
  0001f	a5		 movsd
  00020	a5		 movsd
  00021	5f		 pop	 edi
  00022	5e		 pop	 esi
  00023	8b c3		 mov	 eax, ebx
  00025	5b		 pop	 ebx
  00026	5d		 pop	 ebp
  00027	c2 04 00	 ret	 4
??0tagBaseCharDistanceSq@@QAE@ABU0@@Z ENDP		; tagBaseCharDistanceSq::tagBaseCharDistanceSq
_TEXT	ENDS
PUBLIC	?_Unchecked@?$_Vector_iterator@V?$_Vector_val@UtagBaseCharDistanceSq@@V?$allocator@UtagBaseCharDistanceSq@@@std@@@std@@@std@@QBEPAUtagBaseCharDistanceSq@@XZ ; std::_Vector_iterator<std::_Vector_val<tagBaseCharDistanceSq,std::allocator<tagBaseCharDistanceSq> > >::_Unchecked
; Function compile flags: /Ogsp
; File c:\program files (x86)\microsoft visual studio 10.0\vc\include\vector
;	COMDAT ?_Unchecked@?$_Vector_iterator@V?$_Vector_val@UtagBaseCharDistanceSq@@V?$allocator@UtagBaseCharDistanceSq@@@std@@@std@@@std@@QBEPAUtagBaseCharDistanceSq@@XZ
_TEXT	SEGMENT
?_Unchecked@?$_Vector_iterator@V?$_Vector_val@UtagBaseCharDistanceSq@@V?$allocator@UtagBaseCharDistanceSq@@@std@@@std@@@std@@QBEPAUtagBaseCharDistanceSq@@XZ PROC ; std::_Vector_iterator<std::_Vector_val<tagBaseCharDistanceSq,std::allocator<tagBaseCharDistanceSq> > >::_Unchecked, COMDAT
; _this$ = ecx

; 317  : 		return (_Unchecked_type(this->_Ptr));

  00000	8b 01		 mov	 eax, DWORD PTR [ecx]

; 318  : 		}

  00002	c3		 ret	 0
?_Unchecked@?$_Vector_iterator@V?$_Vector_val@UtagBaseCharDistanceSq@@V?$allocator@UtagBaseCharDistanceSq@@@std@@@std@@@std@@QBEPAUtagBaseCharDistanceSq@@XZ ENDP ; std::_Vector_iterator<std::_Vector_val<tagBaseCharDistanceSq,std::allocator<tagBaseCharDistanceSq> > >::_Unchecked
_TEXT	ENDS
PUBLIC	??$move@AAUAniRotateInfo@@@std@@YA$$QAUAniRotateInfo@@AAU1@@Z ; std::move<AniRotateInfo &>
; Function compile flags: /Ogsp
; File c:\program files (x86)\microsoft visual studio 10.0\vc\include\utility
;	COMDAT ??$move@AAUAniRotateInfo@@@std@@YA$$QAUAniRotateInfo@@AAU1@@Z
_TEXT	SEGMENT
__Arg$ = 8						; size = 4
??$move@AAUAniRotateInfo@@@std@@YA$$QAUAniRotateInfo@@AAU1@@Z PROC ; std::move<AniRotateInfo &>, COMDAT

; 86   : 	{	// forward _Arg as movable

  00000	55		 push	 ebp
  00001	8b ec		 mov	 ebp, esp

; 87   : 	return ((typename tr1::_Remove_reference<_Ty>::_Type&&)_Arg);

  00003	8b 45 08	 mov	 eax, DWORD PTR __Arg$[ebp]

; 88   : 	}

  00006	5d		 pop	 ebp
  00007	c3		 ret	 0
??$move@AAUAniRotateInfo@@@std@@YA$$QAUAniRotateInfo@@AAU1@@Z ENDP ; std::move<AniRotateInfo &>
_TEXT	ENDS
PUBLIC	??$_Val_type@PAUAniRotateInfo@@@std@@YAPAUAniRotateInfo@@PAU1@@Z ; std::_Val_type<AniRotateInfo *>
; Function compile flags: /Ogsp
; File c:\program files (x86)\microsoft visual studio 10.0\vc\include\xutility
;	COMDAT ??$_Val_type@PAUAniRotateInfo@@@std@@YAPAUAniRotateInfo@@PAU1@@Z
_TEXT	SEGMENT
___formal$ = 8						; size = 4
??$_Val_type@PAUAniRotateInfo@@@std@@YAPAUAniRotateInfo@@PAU1@@Z PROC ; std::_Val_type<AniRotateInfo *>, COMDAT

; 790  : 	return (0);

  00000	33 c0		 xor	 eax, eax

; 791  : 	}

  00002	c3		 ret	 0
??$_Val_type@PAUAniRotateInfo@@@std@@YAPAUAniRotateInfo@@PAU1@@Z ENDP ; std::_Val_type<AniRotateInfo *>
_TEXT	ENDS
PUBLIC	??$_Val_type@PAUtagBaseCharDistanceSq@@@std@@YAPAUtagBaseCharDistanceSq@@PAU1@@Z ; std::_Val_type<tagBaseCharDistanceSq *>
; Function compile flags: /Ogsp
;	COMDAT ??$_Val_type@PAUtagBaseCharDistanceSq@@@std@@YAPAUtagBaseCharDistanceSq@@PAU1@@Z
_TEXT	SEGMENT
___formal$ = 8						; size = 4
??$_Val_type@PAUtagBaseCharDistanceSq@@@std@@YAPAUtagBaseCharDistanceSq@@PAU1@@Z PROC ; std::_Val_type<tagBaseCharDistanceSq *>, COMDAT

; 790  : 	return (0);

  00000	33 c0		 xor	 eax, eax

; 791  : 	}

  00002	c3		 ret	 0
??$_Val_type@PAUtagBaseCharDistanceSq@@@std@@YAPAUtagBaseCharDistanceSq@@PAU1@@Z ENDP ; std::_Val_type<tagBaseCharDistanceSq *>
_TEXT	ENDS
PUBLIC	??$_Unchecked@PAUtagBaseCharDistanceSq@@@std@@YAPAUtagBaseCharDistanceSq@@PAU1@@Z ; std::_Unchecked<tagBaseCharDistanceSq *>
; Function compile flags: /Ogsp
;	COMDAT ??$_Unchecked@PAUtagBaseCharDistanceSq@@@std@@YAPAUtagBaseCharDistanceSq@@PAU1@@Z
_TEXT	SEGMENT
__Src$ = 8						; size = 4
??$_Unchecked@PAUtagBaseCharDistanceSq@@@std@@YAPAUtagBaseCharDistanceSq@@PAU1@@Z PROC ; std::_Unchecked<tagBaseCharDistanceSq *>, COMDAT

; 266  : 	{	// construct unchecked from checked, generic

  00000	55		 push	 ebp
  00001	8b ec		 mov	 ebp, esp

; 267  : 	return (_Src);

  00003	8b 45 08	 mov	 eax, DWORD PTR __Src$[ebp]

; 268  : 	}

  00006	5d		 pop	 ebp
  00007	c3		 ret	 0
??$_Unchecked@PAUtagBaseCharDistanceSq@@@std@@YAPAUtagBaseCharDistanceSq@@PAU1@@Z ENDP ; std::_Unchecked<tagBaseCharDistanceSq *>
_TEXT	ENDS
PUBLIC	??$_Dist_type@PAUtagBaseCharDistanceSq@@@std@@YAPAHPAUtagBaseCharDistanceSq@@@Z ; std::_Dist_type<tagBaseCharDistanceSq *>
; Function compile flags: /Ogsp
;	COMDAT ??$_Dist_type@PAUtagBaseCharDistanceSq@@@std@@YAPAHPAUtagBaseCharDistanceSq@@@Z
_TEXT	SEGMENT
___formal$ = 8						; size = 4
??$_Dist_type@PAUtagBaseCharDistanceSq@@@std@@YAPAHPAUtagBaseCharDistanceSq@@@Z PROC ; std::_Dist_type<tagBaseCharDistanceSq *>, COMDAT

; 850  : 	return (0);

  00000	33 c0		 xor	 eax, eax

; 851  : 	}

  00002	c3		 ret	 0
??$_Dist_type@PAUtagBaseCharDistanceSq@@@std@@YAPAHPAUtagBaseCharDistanceSq@@@Z ENDP ; std::_Dist_type<tagBaseCharDistanceSq *>
_TEXT	ENDS
PUBLIC	??$_Destroy@UAniRotateInfo@@@std@@YAXPAUAniRotateInfo@@@Z ; std::_Destroy<AniRotateInfo>
; Function compile flags: /Ogsp
; File c:\program files (x86)\microsoft visual studio 10.0\vc\include\xmemory
;	COMDAT ??$_Destroy@UAniRotateInfo@@@std@@YAXPAUAniRotateInfo@@@Z
_TEXT	SEGMENT
__Ptr$ = 8						; size = 4
??$_Destroy@UAniRotateInfo@@@std@@YAXPAUAniRotateInfo@@@Z PROC ; std::_Destroy<AniRotateInfo>, COMDAT

; 63   : 	_Ptr->~_Ty();
; 64   : 	}

  00000	c3		 ret	 0
??$_Destroy@UAniRotateInfo@@@std@@YAXPAUAniRotateInfo@@@Z ENDP ; std::_Destroy<AniRotateInfo>
_TEXT	ENDS
PUBLIC	??4tagBaseCharDistanceSq@@QAEAAU0@ABU0@@Z	; tagBaseCharDistanceSq::operator=
EXTRN	__imp_??4ioHashString@@QAEAAV0@ABV0@@Z:PROC
; Function compile flags: /Ogsp
;	COMDAT ??4tagBaseCharDistanceSq@@QAEAAU0@ABU0@@Z
_TEXT	SEGMENT
___that$ = 8						; size = 4
??4tagBaseCharDistanceSq@@QAEAAU0@ABU0@@Z PROC		; tagBaseCharDistanceSq::operator=, COMDAT
; _this$ = ecx
  00000	55		 push	 ebp
  00001	8b ec		 mov	 ebp, esp
  00003	53		 push	 ebx
  00004	56		 push	 esi
  00005	8b 75 08	 mov	 esi, DWORD PTR ___that$[ebp]
  00008	57		 push	 edi
  00009	56		 push	 esi
  0000a	8b d9		 mov	 ebx, ecx
  0000c	ff 15 00 00 00
	00		 call	 DWORD PTR __imp_??4ioHashString@@QAEAAV0@ABV0@@Z
  00012	d9 46 10	 fld	 DWORD PTR [esi+16]
  00015	83 c6 14	 add	 esi, 20			; 00000014H
  00018	d9 5b 10	 fstp	 DWORD PTR [ebx+16]
  0001b	8d 7b 14	 lea	 edi, DWORD PTR [ebx+20]
  0001e	a5		 movsd
  0001f	a5		 movsd
  00020	a5		 movsd
  00021	5f		 pop	 edi
  00022	5e		 pop	 esi
  00023	8b c3		 mov	 eax, ebx
  00025	5b		 pop	 ebx
  00026	5d		 pop	 ebp
  00027	c2 04 00	 ret	 4
??4tagBaseCharDistanceSq@@QAEAAU0@ABU0@@Z ENDP		; tagBaseCharDistanceSq::operator=
_TEXT	ENDS
PUBLIC	??_GtagBaseCharDistanceSq@@QAEPAXI@Z		; tagBaseCharDistanceSq::`scalar deleting destructor'
; Function compile flags: /Ogsp
;	COMDAT ??_GtagBaseCharDistanceSq@@QAEPAXI@Z
_TEXT	SEGMENT
___flags$ = 8						; size = 4
??_GtagBaseCharDistanceSq@@QAEPAXI@Z PROC		; tagBaseCharDistanceSq::`scalar deleting destructor', COMDAT
; _this$ = ecx
  00000	55		 push	 ebp
  00001	8b ec		 mov	 ebp, esp
  00003	56		 push	 esi
  00004	8b f1		 mov	 esi, ecx
  00006	ff 15 00 00 00
	00		 call	 DWORD PTR __imp_??1ioHashString@@QAE@XZ
  0000c	f6 45 08 01	 test	 BYTE PTR ___flags$[ebp], 1
  00010	74 07		 je	 SHORT $LN1@scalar@2
  00012	56		 push	 esi
  00013	e8 00 00 00 00	 call	 ??3@YAXPAX@Z		; operator delete
  00018	59		 pop	 ecx
$LN1@scalar@2:
  00019	8b c6		 mov	 eax, esi
  0001b	5e		 pop	 esi
  0001c	5d		 pop	 ebp
  0001d	c2 04 00	 ret	 4
??_GtagBaseCharDistanceSq@@QAEPAXI@Z ENDP		; tagBaseCharDistanceSq::`scalar deleting destructor'
_TEXT	ENDS
PUBLIC	??$forward@AAPAUtagBaseCharDistanceSq@@@std@@YAAAPAUtagBaseCharDistanceSq@@AAPAU1@@Z ; std::forward<tagBaseCharDistanceSq * &>
; Function compile flags: /Ogsp
; File c:\program files (x86)\microsoft visual studio 10.0\vc\include\utility
;	COMDAT ??$forward@AAPAUtagBaseCharDistanceSq@@@std@@YAAAPAUtagBaseCharDistanceSq@@AAPAU1@@Z
_TEXT	SEGMENT
__Arg$ = 8						; size = 4
??$forward@AAPAUtagBaseCharDistanceSq@@@std@@YAAAPAUtagBaseCharDistanceSq@@AAPAU1@@Z PROC ; std::forward<tagBaseCharDistanceSq * &>, COMDAT

; 78   : 	{	// forward _Arg, given explicitly specified type parameter

  00000	55		 push	 ebp
  00001	8b ec		 mov	 ebp, esp

; 79   : 	return ((_Ty&&)_Arg);

  00003	8b 45 08	 mov	 eax, DWORD PTR __Arg$[ebp]

; 80   : 	}

  00006	5d		 pop	 ebp
  00007	c3		 ret	 0
??$forward@AAPAUtagBaseCharDistanceSq@@@std@@YAAAPAUtagBaseCharDistanceSq@@AAPAU1@@Z ENDP ; std::forward<tagBaseCharDistanceSq * &>
_TEXT	ENDS
PUBLIC	??$?0AAPAUtagBaseCharDistanceSq@@AAPAU0@@?$_Pair_base@PAUtagBaseCharDistanceSq@@PAU1@@std@@QAE@AAPAUtagBaseCharDistanceSq@@0@Z ; std::_Pair_base<tagBaseCharDistanceSq *,tagBaseCharDistanceSq *>::_Pair_base<tagBaseCharDistanceSq *,tagBaseCharDistanceSq *><tagBaseCharDistanceSq * &,tagBaseCharDistanceSq * &>
; Function compile flags: /Ogsp
;	COMDAT ??$?0AAPAUtagBaseCharDistanceSq@@AAPAU0@@?$_Pair_base@PAUtagBaseCharDistanceSq@@PAU1@@std@@QAE@AAPAUtagBaseCharDistanceSq@@0@Z
_TEXT	SEGMENT
__Val1$ = 8						; size = 4
__Val2$ = 12						; size = 4
??$?0AAPAUtagBaseCharDistanceSq@@AAPAU0@@?$_Pair_base@PAUtagBaseCharDistanceSq@@PAU1@@std@@QAE@AAPAUtagBaseCharDistanceSq@@0@Z PROC ; std::_Pair_base<tagBaseCharDistanceSq *,tagBaseCharDistanceSq *>::_Pair_base<tagBaseCharDistanceSq *,tagBaseCharDistanceSq *><tagBaseCharDistanceSq * &,tagBaseCharDistanceSq * &>, COMDAT
; _this$ = ecx

; 163  : 		{	// construct from moved values

  00000	55		 push	 ebp
  00001	8b ec		 mov	 ebp, esp
  00003	8b c1		 mov	 eax, ecx
  00005	8b 4d 08	 mov	 ecx, DWORD PTR __Val1$[ebp]
  00008	8b 09		 mov	 ecx, DWORD PTR [ecx]
  0000a	89 08		 mov	 DWORD PTR [eax], ecx
  0000c	8b 4d 0c	 mov	 ecx, DWORD PTR __Val2$[ebp]
  0000f	8b 09		 mov	 ecx, DWORD PTR [ecx]
  00011	89 48 04	 mov	 DWORD PTR [eax+4], ecx

; 164  : 		}

  00014	5d		 pop	 ebp
  00015	c2 08 00	 ret	 8
??$?0AAPAUtagBaseCharDistanceSq@@AAPAU0@@?$_Pair_base@PAUtagBaseCharDistanceSq@@PAU1@@std@@QAE@AAPAUtagBaseCharDistanceSq@@0@Z ENDP ; std::_Pair_base<tagBaseCharDistanceSq *,tagBaseCharDistanceSq *>::_Pair_base<tagBaseCharDistanceSq *,tagBaseCharDistanceSq *><tagBaseCharDistanceSq * &,tagBaseCharDistanceSq * &>
_TEXT	ENDS
PUBLIC	??$_Move@AAUtagBaseCharDistanceSq@@@std@@YA$$QAUtagBaseCharDistanceSq@@AAU1@@Z ; std::_Move<tagBaseCharDistanceSq &>
; Function compile flags: /Ogsp
;	COMDAT ??$_Move@AAUtagBaseCharDistanceSq@@@std@@YA$$QAUtagBaseCharDistanceSq@@AAU1@@Z
_TEXT	SEGMENT
__Arg$ = 8						; size = 4
??$_Move@AAUtagBaseCharDistanceSq@@@std@@YA$$QAUtagBaseCharDistanceSq@@AAU1@@Z PROC ; std::_Move<tagBaseCharDistanceSq &>, COMDAT

; 94   : 	{	// forward _Arg as movable

  00000	55		 push	 ebp
  00001	8b ec		 mov	 ebp, esp

; 95   : 	return ((typename tr1::_Remove_reference<_Ty>::_Type&&)_Arg);

  00003	8b 45 08	 mov	 eax, DWORD PTR __Arg$[ebp]

; 96   : 	}

  00006	5d		 pop	 ebp
  00007	c3		 ret	 0
??$_Move@AAUtagBaseCharDistanceSq@@@std@@YA$$QAUtagBaseCharDistanceSq@@AAU1@@Z ENDP ; std::_Move<tagBaseCharDistanceSq &>
_TEXT	ENDS
PUBLIC	??$forward@UAniRotateInfo@@@std@@YA$$QAUAniRotateInfo@@AAU1@@Z ; std::forward<AniRotateInfo>
; Function compile flags: /Ogsp
;	COMDAT ??$forward@UAniRotateInfo@@@std@@YA$$QAUAniRotateInfo@@AAU1@@Z
_TEXT	SEGMENT
__Arg$ = 8						; size = 4
??$forward@UAniRotateInfo@@@std@@YA$$QAUAniRotateInfo@@AAU1@@Z PROC ; std::forward<AniRotateInfo>, COMDAT

; 78   : 	{	// forward _Arg, given explicitly specified type parameter

  00000	55		 push	 ebp
  00001	8b ec		 mov	 ebp, esp

; 79   : 	return ((_Ty&&)_Arg);

  00003	8b 45 08	 mov	 eax, DWORD PTR __Arg$[ebp]

; 80   : 	}

  00006	5d		 pop	 ebp
  00007	c3		 ret	 0
??$forward@UAniRotateInfo@@@std@@YA$$QAUAniRotateInfo@@AAU1@@Z ENDP ; std::forward<AniRotateInfo>
_TEXT	ENDS
PUBLIC	??$forward@UtagBaseCharDistanceSq@@@std@@YA$$QAUtagBaseCharDistanceSq@@AAU1@@Z ; std::forward<tagBaseCharDistanceSq>
; Function compile flags: /Ogsp
;	COMDAT ??$forward@UtagBaseCharDistanceSq@@@std@@YA$$QAUtagBaseCharDistanceSq@@AAU1@@Z
_TEXT	SEGMENT
__Arg$ = 8						; size = 4
??$forward@UtagBaseCharDistanceSq@@@std@@YA$$QAUtagBaseCharDistanceSq@@AAU1@@Z PROC ; std::forward<tagBaseCharDistanceSq>, COMDAT

; 78   : 	{	// forward _Arg, given explicitly specified type parameter

  00000	55		 push	 ebp
  00001	8b ec		 mov	 ebp, esp

; 79   : 	return ((_Ty&&)_Arg);

  00003	8b 45 08	 mov	 eax, DWORD PTR __Arg$[ebp]

; 80   : 	}

  00006	5d		 pop	 ebp
  00007	c3		 ret	 0
??$forward@UtagBaseCharDistanceSq@@@std@@YA$$QAUtagBaseCharDistanceSq@@AAU1@@Z ENDP ; std::forward<tagBaseCharDistanceSq>
_TEXT	ENDS
PUBLIC	??$move@AAUtagBaseCharDistanceSq@@@std@@YA$$QAUtagBaseCharDistanceSq@@AAU1@@Z ; std::move<tagBaseCharDistanceSq &>
; Function compile flags: /Ogsp
;	COMDAT ??$move@AAUtagBaseCharDistanceSq@@@std@@YA$$QAUtagBaseCharDistanceSq@@AAU1@@Z
_TEXT	SEGMENT
__Arg$ = 8						; size = 4
??$move@AAUtagBaseCharDistanceSq@@@std@@YA$$QAUtagBaseCharDistanceSq@@AAU1@@Z PROC ; std::move<tagBaseCharDistanceSq &>, COMDAT

; 86   : 	{	// forward _Arg as movable

  00000	55		 push	 ebp
  00001	8b ec		 mov	 ebp, esp

; 87   : 	return ((typename tr1::_Remove_reference<_Ty>::_Type&&)_Arg);

  00003	8b 45 08	 mov	 eax, DWORD PTR __Arg$[ebp]

; 88   : 	}

  00006	5d		 pop	 ebp
  00007	c3		 ret	 0
??$move@AAUtagBaseCharDistanceSq@@@std@@YA$$QAUtagBaseCharDistanceSq@@AAU1@@Z ENDP ; std::move<tagBaseCharDistanceSq &>
_TEXT	ENDS
PUBLIC	?_DECSTR@@YAXPADH@Z				; _DECSTR
; Function compile flags: /Ogsp
; File d:\lost saga for developer\youtube\tutorial\source\src\lsclient\stringprotect.h
;	COMDAT ?_DECSTR@@YAXPADH@Z
_TEXT	SEGMENT
_s$ = 8							; size = 4
_l$ = 12						; size = 4
?_DECSTR@@YAXPADH@Z PROC				; _DECSTR, COMDAT

; 40   : __forceinline void _DECSTR(char* s, int l){int i=0,l4=(l-1)/4,*p=(int*)s;s[l-1]=0;for(;i<l4;++i)*(p++)^=0xEAEBECED;for(i=l4*4;i<l-1;++i)s[i]^=0xED-i%4;}

  00000	55		 push	 ebp
  00001	8b ec		 mov	 ebp, esp
  00003	8b 4d 0c	 mov	 ecx, DWORD PTR _l$[ebp]
  00006	56		 push	 esi
  00007	8b 75 08	 mov	 esi, DWORD PTR _s$[ebp]
  0000a	57		 push	 edi
  0000b	8d 79 ff	 lea	 edi, DWORD PTR [ecx-1]
  0000e	8b c7		 mov	 eax, edi
  00010	99		 cdq
  00011	83 e2 03	 and	 edx, 3
  00014	03 c2		 add	 eax, edx
  00016	c1 f8 02	 sar	 eax, 2
  00019	8b d6		 mov	 edx, esi
  0001b	c6 44 0e ff 00	 mov	 BYTE PTR [esi+ecx-1], 0
  00020	85 c0		 test	 eax, eax
  00022	7e 0e		 jle	 SHORT $LN4@DECSTR
  00024	8b c8		 mov	 ecx, eax
$LL6@DECSTR:
  00026	81 32 ed ec eb
	ea		 xor	 DWORD PTR [edx], -353637139 ; eaebecedH
  0002c	83 c2 04	 add	 edx, 4
  0002f	49		 dec	 ecx
  00030	75 f4		 jne	 SHORT $LL6@DECSTR
$LN4@DECSTR:
  00032	c1 e0 02	 shl	 eax, 2
  00035	eb 17		 jmp	 SHORT $LN14@DECSTR
$LL3@DECSTR:
  00037	8b c8		 mov	 ecx, eax
  00039	81 e1 03 00 00
	80		 and	 ecx, -2147483645	; 80000003H
  0003f	79 05		 jns	 SHORT $LN13@DECSTR
  00041	49		 dec	 ecx
  00042	83 c9 fc	 or	 ecx, -4			; fffffffcH
  00045	41		 inc	 ecx
$LN13@DECSTR:
  00046	b2 ed		 mov	 dl, -19			; ffffffedH
  00048	2a d1		 sub	 dl, cl
  0004a	30 14 30	 xor	 BYTE PTR [eax+esi], dl
  0004d	40		 inc	 eax
$LN14@DECSTR:
  0004e	3b c7		 cmp	 eax, edi
  00050	7c e5		 jl	 SHORT $LL3@DECSTR
  00052	5f		 pop	 edi
  00053	5e		 pop	 esi
  00054	5d		 pop	 ebp
  00055	c3		 ret	 0
?_DECSTR@@YAXPADH@Z ENDP				; _DECSTR
_TEXT	ENDS
PUBLIC	?return57@@YAIXZ				; return57
; Function compile flags: /Ogsp
; File d:\lost saga for developer\youtube\tutorial\source\src\lsclient\veryoftenusedefine.h
;	COMDAT ?return57@@YAIXZ
_TEXT	SEGMENT
?return57@@YAIXZ PROC					; return57, COMDAT

; 15   : __forceinline unsigned int return57() { __asm mov eax, 57 };

  00000	b8 39 00 00 00	 mov	 eax, 57			; 00000039H
  00005	c3		 ret	 0
?return57@@YAIXZ ENDP					; return57
_TEXT	ENDS
PUBLIC	?GetGroup@ioGameEntity@@QBEPAVioEntityGroup@@XZ	; ioGameEntity::GetGroup
; Function compile flags: /Ogsp
; File d:\lost saga for developer\youtube\tutorial\source\src\lsclient\iogameentity.h
;	COMDAT ?GetGroup@ioGameEntity@@QBEPAVioEntityGroup@@XZ
_TEXT	SEGMENT
?GetGroup@ioGameEntity@@QBEPAVioEntityGroup@@XZ PROC	; ioGameEntity::GetGroup, COMDAT
; _this$ = ecx

; 166  : 	inline ioEntityGroup* GetGroup() const { return m_pGroup; }

  00000	8b 41 04	 mov	 eax, DWORD PTR [ecx+4]
  00003	c3		 ret	 0
?GetGroup@ioGameEntity@@QBEPAVioEntityGroup@@XZ ENDP	; ioGameEntity::GetGroup
_TEXT	ENDS
PUBLIC	??0AniRotateInfo@@QAE@XZ			; AniRotateInfo::AniRotateInfo
; Function compile flags: /Ogsp
; File d:\lost saga for developer\youtube\tutorial\source\src\lsclient\playentityhelpstruct.h
;	COMDAT ??0AniRotateInfo@@QAE@XZ
_TEXT	SEGMENT
??0AniRotateInfo@@QAE@XZ PROC				; AniRotateInfo::AniRotateInfo, COMDAT
; _this$ = ecx

; 1071 : 	{
; 1072 : 		m_dwTime = 0;
; 1073 : 		m_fAngle = 0.0f;

  00000	0f 57 c0	 xorps	 xmm0, xmm0
  00003	8b c1		 mov	 eax, ecx
  00005	83 20 00	 and	 DWORD PTR [eax], 0
  00008	f3 0f 11 40 04	 movss	 DWORD PTR [eax+4], xmm0

; 1074 : 	}

  0000d	c3		 ret	 0
??0AniRotateInfo@@QAE@XZ ENDP				; AniRotateInfo::AniRotateInfo
_TEXT	ENDS
PUBLIC	??0tagBaseCharDistanceSq@@QAE@XZ		; tagBaseCharDistanceSq::tagBaseCharDistanceSq
EXTRN	__imp_?VEC3_ZERO@ioMath@@2UD3DXVECTOR3@@A:BYTE
EXTRN	__imp_??0ioHashString@@QAE@XZ:PROC
; Function compile flags: /Ogsp
;	COMDAT ??0tagBaseCharDistanceSq@@QAE@XZ
_TEXT	SEGMENT
??0tagBaseCharDistanceSq@@QAE@XZ PROC			; tagBaseCharDistanceSq::tagBaseCharDistanceSq, COMDAT
; _this$ = ecx

; 3001 : 	tagBaseCharDistanceSq()

  00000	53		 push	 ebx
  00001	56		 push	 esi
  00002	57		 push	 edi
  00003	8b d9		 mov	 ebx, ecx
  00005	ff 15 00 00 00
	00		 call	 DWORD PTR __imp_??0ioHashString@@QAE@XZ

; 3002 : 	{
; 3003 : 		m_fDistanceSq = 0.0f;

  0000b	0f 57 c0	 xorps	 xmm0, xmm0
  0000e	f3 0f 11 43 10	 movss	 DWORD PTR [ebx+16], xmm0

; 3004 : 		m_vPos = ioMath::VEC3_ZERO;

  00013	8b 35 00 00 00
	00		 mov	 esi, DWORD PTR __imp_?VEC3_ZERO@ioMath@@2UD3DXVECTOR3@@A
  00019	8d 7b 14	 lea	 edi, DWORD PTR [ebx+20]
  0001c	a5		 movsd
  0001d	a5		 movsd
  0001e	a5		 movsd
  0001f	5f		 pop	 edi
  00020	5e		 pop	 esi

; 3005 : 	}

  00021	8b c3		 mov	 eax, ebx
  00023	5b		 pop	 ebx
  00024	c3		 ret	 0
??0tagBaseCharDistanceSq@@QAE@XZ ENDP			; tagBaseCharDistanceSq::tagBaseCharDistanceSq
_TEXT	ENDS
PUBLIC	??RBaseCharDistanceSqSort2@@QBE_NABUtagBaseCharDistanceSq@@0@Z ; BaseCharDistanceSqSort2::operator()
; Function compile flags: /Ogsp
;	COMDAT ??RBaseCharDistanceSqSort2@@QBE_NABUtagBaseCharDistanceSq@@0@Z
_TEXT	SEGMENT
_lhs$ = 8						; size = 4
_rhs$ = 12						; size = 4
??RBaseCharDistanceSqSort2@@QBE_NABUtagBaseCharDistanceSq@@0@Z PROC ; BaseCharDistanceSqSort2::operator(), COMDAT
; _this$ = ecx

; 3029 : 	{

  00000	55		 push	 ebp
  00001	8b ec		 mov	 ebp, esp

; 3030 : 		if( lhs.m_fDistanceSq < rhs.m_fDistanceSq )

  00003	8b 45 08	 mov	 eax, DWORD PTR _lhs$[ebp]
  00006	f3 0f 10 40 10	 movss	 xmm0, DWORD PTR [eax+16]
  0000b	8b 45 0c	 mov	 eax, DWORD PTR _rhs$[ebp]
  0000e	f3 0f 10 48 10	 movss	 xmm1, DWORD PTR [eax+16]
  00013	0f 5a c0	 cvtps2pd xmm0, xmm0
  00016	0f 5a c9	 cvtps2pd xmm1, xmm1
  00019	66 0f 2f c8	 comisd	 xmm1, xmm0
  0001d	76 04		 jbe	 SHORT $LN1@operator@3

; 3031 : 		{
; 3032 : 			return true;

  0001f	b0 01		 mov	 al, 1
  00021	eb 02		 jmp	 SHORT $LN2@operator@3
$LN1@operator@3:

; 3033 : 		}
; 3034 : 
; 3035 : 		return false;

  00023	32 c0		 xor	 al, al
$LN2@operator@3:

; 3036 : 	}

  00025	5d		 pop	 ebp
  00026	c2 08 00	 ret	 8
??RBaseCharDistanceSqSort2@@QBE_NABUtagBaseCharDistanceSq@@0@Z ENDP ; BaseCharDistanceSqSort2::operator()
_TEXT	ENDS
PUBLIC	?GetOwnerItem@ioSkill@@QBEPAVioItem@@XZ		; ioSkill::GetOwnerItem
; Function compile flags: /Ogsp
; File d:\lost saga for developer\youtube\tutorial\source\src\lsclient\ioskill.h
;	COMDAT ?GetOwnerItem@ioSkill@@QBEPAVioItem@@XZ
_TEXT	SEGMENT
?GetOwnerItem@ioSkill@@QBEPAVioItem@@XZ PROC		; ioSkill::GetOwnerItem, COMDAT
; _this$ = ecx

; 397  : 	inline ioItem *GetOwnerItem() const { return m_pOwnerItem; }

  00000	8b 81 a4 02 00
	00		 mov	 eax, DWORD PTR [ecx+676]
  00006	c3		 ret	 0
?GetOwnerItem@ioSkill@@QBEPAVioItem@@XZ ENDP		; ioSkill::GetOwnerItem
_TEXT	ENDS
PUBLIC	?GetName@ioSkill@@QBEABVioHashString@@XZ	; ioSkill::GetName
; Function compile flags: /Ogsp
;	COMDAT ?GetName@ioSkill@@QBEABVioHashString@@XZ
_TEXT	SEGMENT
?GetName@ioSkill@@QBEABVioHashString@@XZ PROC		; ioSkill::GetName, COMDAT
; _this$ = ecx

; 414  : 	inline const ioHashString& GetName() const { return m_Name; }

  00000	8d 41 24	 lea	 eax, DWORD PTR [ecx+36]
  00003	c3		 ret	 0
?GetName@ioSkill@@QBEABVioHashString@@XZ ENDP		; ioSkill::GetName
_TEXT	ENDS
PUBLIC	?size@?$basic_string@DU?$char_traits@D@std@@V?$allocator@D@2@@std@@QBEIXZ ; std::basic_string<char,std::char_traits<char>,std::allocator<char> >::size
; Function compile flags: /Ogsp
; File c:\program files (x86)\microsoft visual studio 10.0\vc\include\xstring
;	COMDAT ?size@?$basic_string@DU?$char_traits@D@std@@V?$allocator@D@2@@std@@QBEIXZ
_TEXT	SEGMENT
?size@?$basic_string@DU?$char_traits@D@std@@V?$allocator@D@2@@std@@QBEIXZ PROC ; std::basic_string<char,std::char_traits<char>,std::allocator<char> >::size, COMDAT
; _this$ = ecx

; 1512 : 		return (this->_Mysize);

  00000	8b 41 10	 mov	 eax, DWORD PTR [ecx+16]

; 1513 : 		}

  00003	c3		 ret	 0
?size@?$basic_string@DU?$char_traits@D@std@@V?$allocator@D@2@@std@@QBEIXZ ENDP ; std::basic_string<char,std::char_traits<char>,std::allocator<char> >::size
_TEXT	ENDS
PUBLIC	??_7?$CEncrypt@M@@6B@				; CEncrypt<float>::`vftable'
PUBLIC	??1?$CEncrypt@M@@UAE@XZ				; CEncrypt<float>::~CEncrypt<float>
PUBLIC	??_R4?$CEncrypt@M@@6B@				; CEncrypt<float>::`RTTI Complete Object Locator'
PUBLIC	??_R0?AV?$CEncrypt@M@@@8			; CEncrypt<float> `RTTI Type Descriptor'
PUBLIC	??_R3?$CEncrypt@M@@8				; CEncrypt<float>::`RTTI Class Hierarchy Descriptor'
PUBLIC	??_R2?$CEncrypt@M@@8				; CEncrypt<float>::`RTTI Base Class Array'
PUBLIC	??_R1A@?0A@EA@?$CEncrypt@M@@8			; CEncrypt<float>::`RTTI Base Class Descriptor at (0,-1,0,64)'
EXTRN	??1ccddaabb@@UAE@XZ:PROC			; ccddaabb::~ccddaabb
EXTRN	??_E?$CEncrypt@M@@UAEPAXI@Z:PROC		; CEncrypt<float>::`vector deleting destructor'
;	COMDAT ??_R1A@?0A@EA@?$CEncrypt@M@@8
; File d:\lost saga for developer\youtube\tutorial\source\src\lsclient\encryptvalue.h
rdata$r	SEGMENT
??_R1A@?0A@EA@?$CEncrypt@M@@8 DD FLAT:??_R0?AV?$CEncrypt@M@@@8 ; CEncrypt<float>::`RTTI Base Class Descriptor at (0,-1,0,64)'
	DD	00H
	DD	00H
	DD	0ffffffffH
	DD	00H
	DD	040H
	DD	FLAT:??_R3?$CEncrypt@M@@8
rdata$r	ENDS
;	COMDAT ??_R2?$CEncrypt@M@@8
rdata$r	SEGMENT
??_R2?$CEncrypt@M@@8 DD FLAT:??_R1A@?0A@EA@?$CEncrypt@M@@8 ; CEncrypt<float>::`RTTI Base Class Array'
rdata$r	ENDS
;	COMDAT ??_R3?$CEncrypt@M@@8
rdata$r	SEGMENT
??_R3?$CEncrypt@M@@8 DD 00H				; CEncrypt<float>::`RTTI Class Hierarchy Descriptor'
	DD	00H
	DD	01H
	DD	FLAT:??_R2?$CEncrypt@M@@8
rdata$r	ENDS
;	COMDAT ??_R0?AV?$CEncrypt@M@@@8
_DATA	SEGMENT
??_R0?AV?$CEncrypt@M@@@8 DD FLAT:??_7type_info@@6B@	; CEncrypt<float> `RTTI Type Descriptor'
	DD	00H
	DB	'.?AV?$CEncrypt@M@@', 00H
_DATA	ENDS
;	COMDAT ??_R4?$CEncrypt@M@@6B@
rdata$r	SEGMENT
??_R4?$CEncrypt@M@@6B@ DD 00H				; CEncrypt<float>::`RTTI Complete Object Locator'
	DD	00H
	DD	00H
	DD	FLAT:??_R0?AV?$CEncrypt@M@@@8
	DD	FLAT:??_R3?$CEncrypt@M@@8
rdata$r	ENDS
;	COMDAT ??_7?$CEncrypt@M@@6B@
CONST	SEGMENT
??_7?$CEncrypt@M@@6B@ DD FLAT:??_R4?$CEncrypt@M@@6B@	; CEncrypt<float>::`vftable'
	DD	FLAT:??_E?$CEncrypt@M@@UAEPAXI@Z
; Function compile flags: /Ogsp
CONST	ENDS
;	COMDAT ??1?$CEncrypt@M@@UAE@XZ
_TEXT	SEGMENT
??1?$CEncrypt@M@@UAE@XZ PROC				; CEncrypt<float>::~CEncrypt<float>, COMDAT
; _this$ = ecx

; 127  : 	{

  00000	c7 01 00 00 00
	00		 mov	 DWORD PTR [ecx], OFFSET ??_7?$CEncrypt@M@@6B@

; 128  : 	}

  00006	83 c1 0c	 add	 ecx, 12			; 0000000cH
  00009	e9 00 00 00 00	 jmp	 ??1ccddaabb@@UAE@XZ	; ccddaabb::~ccddaabb
??1?$CEncrypt@M@@UAE@XZ ENDP				; CEncrypt<float>::~CEncrypt<float>
_TEXT	ENDS
PUBLIC	??_7?$CEncrypt@K@@6B@				; CEncrypt<unsigned long>::`vftable'
PUBLIC	??1?$CEncrypt@K@@UAE@XZ				; CEncrypt<unsigned long>::~CEncrypt<unsigned long>
PUBLIC	??_R4?$CEncrypt@K@@6B@				; CEncrypt<unsigned long>::`RTTI Complete Object Locator'
PUBLIC	??_R0?AV?$CEncrypt@K@@@8			; CEncrypt<unsigned long> `RTTI Type Descriptor'
PUBLIC	??_R3?$CEncrypt@K@@8				; CEncrypt<unsigned long>::`RTTI Class Hierarchy Descriptor'
PUBLIC	??_R2?$CEncrypt@K@@8				; CEncrypt<unsigned long>::`RTTI Base Class Array'
PUBLIC	??_R1A@?0A@EA@?$CEncrypt@K@@8			; CEncrypt<unsigned long>::`RTTI Base Class Descriptor at (0,-1,0,64)'
EXTRN	??_E?$CEncrypt@K@@UAEPAXI@Z:PROC		; CEncrypt<unsigned long>::`vector deleting destructor'
;	COMDAT ??_R1A@?0A@EA@?$CEncrypt@K@@8
rdata$r	SEGMENT
??_R1A@?0A@EA@?$CEncrypt@K@@8 DD FLAT:??_R0?AV?$CEncrypt@K@@@8 ; CEncrypt<unsigned long>::`RTTI Base Class Descriptor at (0,-1,0,64)'
	DD	00H
	DD	00H
	DD	0ffffffffH
	DD	00H
	DD	040H
	DD	FLAT:??_R3?$CEncrypt@K@@8
rdata$r	ENDS
;	COMDAT ??_R2?$CEncrypt@K@@8
rdata$r	SEGMENT
??_R2?$CEncrypt@K@@8 DD FLAT:??_R1A@?0A@EA@?$CEncrypt@K@@8 ; CEncrypt<unsigned long>::`RTTI Base Class Array'
rdata$r	ENDS
;	COMDAT ??_R3?$CEncrypt@K@@8
rdata$r	SEGMENT
??_R3?$CEncrypt@K@@8 DD 00H				; CEncrypt<unsigned long>::`RTTI Class Hierarchy Descriptor'
	DD	00H
	DD	01H
	DD	FLAT:??_R2?$CEncrypt@K@@8
rdata$r	ENDS
;	COMDAT ??_R0?AV?$CEncrypt@K@@@8
_DATA	SEGMENT
??_R0?AV?$CEncrypt@K@@@8 DD FLAT:??_7type_info@@6B@	; CEncrypt<unsigned long> `RTTI Type Descriptor'
	DD	00H
	DB	'.?AV?$CEncrypt@K@@', 00H
_DATA	ENDS
;	COMDAT ??_R4?$CEncrypt@K@@6B@
rdata$r	SEGMENT
??_R4?$CEncrypt@K@@6B@ DD 00H				; CEncrypt<unsigned long>::`RTTI Complete Object Locator'
	DD	00H
	DD	00H
	DD	FLAT:??_R0?AV?$CEncrypt@K@@@8
	DD	FLAT:??_R3?$CEncrypt@K@@8
rdata$r	ENDS
;	COMDAT ??_7?$CEncrypt@K@@6B@
CONST	SEGMENT
??_7?$CEncrypt@K@@6B@ DD FLAT:??_R4?$CEncrypt@K@@6B@	; CEncrypt<unsigned long>::`vftable'
	DD	FLAT:??_E?$CEncrypt@K@@UAEPAXI@Z
; Function compile flags: /Ogsp
CONST	ENDS
;	COMDAT ??1?$CEncrypt@K@@UAE@XZ
_TEXT	SEGMENT
??1?$CEncrypt@K@@UAE@XZ PROC				; CEncrypt<unsigned long>::~CEncrypt<unsigned long>, COMDAT
; _this$ = ecx

; 127  : 	{

  00000	c7 01 00 00 00
	00		 mov	 DWORD PTR [ecx], OFFSET ??_7?$CEncrypt@K@@6B@

; 128  : 	}

  00006	83 c1 0c	 add	 ecx, 12			; 0000000cH
  00009	e9 00 00 00 00	 jmp	 ??1ccddaabb@@UAE@XZ	; ccddaabb::~ccddaabb
??1?$CEncrypt@K@@UAE@XZ ENDP				; CEncrypt<unsigned long>::~CEncrypt<unsigned long>
_TEXT	ENDS
PUBLIC	??_7?$CEncrypt@H@@6B@				; CEncrypt<int>::`vftable'
PUBLIC	??1?$CEncrypt@H@@UAE@XZ				; CEncrypt<int>::~CEncrypt<int>
PUBLIC	??_R4?$CEncrypt@H@@6B@				; CEncrypt<int>::`RTTI Complete Object Locator'
PUBLIC	??_R0?AV?$CEncrypt@H@@@8			; CEncrypt<int> `RTTI Type Descriptor'
PUBLIC	??_R3?$CEncrypt@H@@8				; CEncrypt<int>::`RTTI Class Hierarchy Descriptor'
PUBLIC	??_R2?$CEncrypt@H@@8				; CEncrypt<int>::`RTTI Base Class Array'
PUBLIC	??_R1A@?0A@EA@?$CEncrypt@H@@8			; CEncrypt<int>::`RTTI Base Class Descriptor at (0,-1,0,64)'
EXTRN	??_E?$CEncrypt@H@@UAEPAXI@Z:PROC		; CEncrypt<int>::`vector deleting destructor'
;	COMDAT ??_R1A@?0A@EA@?$CEncrypt@H@@8
rdata$r	SEGMENT
??_R1A@?0A@EA@?$CEncrypt@H@@8 DD FLAT:??_R0?AV?$CEncrypt@H@@@8 ; CEncrypt<int>::`RTTI Base Class Descriptor at (0,-1,0,64)'
	DD	00H
	DD	00H
	DD	0ffffffffH
	DD	00H
	DD	040H
	DD	FLAT:??_R3?$CEncrypt@H@@8
rdata$r	ENDS
;	COMDAT ??_R2?$CEncrypt@H@@8
rdata$r	SEGMENT
??_R2?$CEncrypt@H@@8 DD FLAT:??_R1A@?0A@EA@?$CEncrypt@H@@8 ; CEncrypt<int>::`RTTI Base Class Array'
rdata$r	ENDS
;	COMDAT ??_R3?$CEncrypt@H@@8
rdata$r	SEGMENT
??_R3?$CEncrypt@H@@8 DD 00H				; CEncrypt<int>::`RTTI Class Hierarchy Descriptor'
	DD	00H
	DD	01H
	DD	FLAT:??_R2?$CEncrypt@H@@8
rdata$r	ENDS
;	COMDAT ??_R0?AV?$CEncrypt@H@@@8
_DATA	SEGMENT
??_R0?AV?$CEncrypt@H@@@8 DD FLAT:??_7type_info@@6B@	; CEncrypt<int> `RTTI Type Descriptor'
	DD	00H
	DB	'.?AV?$CEncrypt@H@@', 00H
_DATA	ENDS
;	COMDAT ??_R4?$CEncrypt@H@@6B@
rdata$r	SEGMENT
??_R4?$CEncrypt@H@@6B@ DD 00H				; CEncrypt<int>::`RTTI Complete Object Locator'
	DD	00H
	DD	00H
	DD	FLAT:??_R0?AV?$CEncrypt@H@@@8
	DD	FLAT:??_R3?$CEncrypt@H@@8
rdata$r	ENDS
;	COMDAT ??_7?$CEncrypt@H@@6B@
CONST	SEGMENT
??_7?$CEncrypt@H@@6B@ DD FLAT:??_R4?$CEncrypt@H@@6B@	; CEncrypt<int>::`vftable'
	DD	FLAT:??_E?$CEncrypt@H@@UAEPAXI@Z
; Function compile flags: /Ogsp
CONST	ENDS
;	COMDAT ??1?$CEncrypt@H@@UAE@XZ
_TEXT	SEGMENT
??1?$CEncrypt@H@@UAE@XZ PROC				; CEncrypt<int>::~CEncrypt<int>, COMDAT
; _this$ = ecx

; 127  : 	{

  00000	c7 01 00 00 00
	00		 mov	 DWORD PTR [ecx], OFFSET ??_7?$CEncrypt@H@@6B@

; 128  : 	}

  00006	83 c1 0c	 add	 ecx, 12			; 0000000cH
  00009	e9 00 00 00 00	 jmp	 ??1ccddaabb@@UAE@XZ	; ccddaabb::~ccddaabb
??1?$CEncrypt@H@@UAE@XZ ENDP				; CEncrypt<int>::~CEncrypt<int>
; Function compile flags: /Ogsp
_TEXT	ENDS
;	COMDAT ??_G?$CEncrypt@M@@UAEPAXI@Z
_TEXT	SEGMENT
___flags$ = 8						; size = 4
??_G?$CEncrypt@M@@UAEPAXI@Z PROC			; CEncrypt<float>::`scalar deleting destructor', COMDAT
; _this$ = ecx
  00000	55		 push	 ebp
  00001	8b ec		 mov	 ebp, esp
  00003	56		 push	 esi
  00004	8b f1		 mov	 esi, ecx
  00006	8d 4e 0c	 lea	 ecx, DWORD PTR [esi+12]
  00009	c7 06 00 00 00
	00		 mov	 DWORD PTR [esi], OFFSET ??_7?$CEncrypt@M@@6B@
  0000f	e8 00 00 00 00	 call	 ??1ccddaabb@@UAE@XZ	; ccddaabb::~ccddaabb
  00014	f6 45 08 01	 test	 BYTE PTR ___flags$[ebp], 1
  00018	74 07		 je	 SHORT $LN1@scalar@3
  0001a	56		 push	 esi
  0001b	e8 00 00 00 00	 call	 ??3@YAXPAX@Z		; operator delete
  00020	59		 pop	 ecx
$LN1@scalar@3:
  00021	8b c6		 mov	 eax, esi
  00023	5e		 pop	 esi
  00024	5d		 pop	 ebp
  00025	c2 04 00	 ret	 4
??_G?$CEncrypt@M@@UAEPAXI@Z ENDP			; CEncrypt<float>::`scalar deleting destructor'
; Function compile flags: /Ogsp
_TEXT	ENDS
;	COMDAT ??_G?$CEncrypt@K@@UAEPAXI@Z
_TEXT	SEGMENT
___flags$ = 8						; size = 4
??_G?$CEncrypt@K@@UAEPAXI@Z PROC			; CEncrypt<unsigned long>::`scalar deleting destructor', COMDAT
; _this$ = ecx
  00000	55		 push	 ebp
  00001	8b ec		 mov	 ebp, esp
  00003	56		 push	 esi
  00004	8b f1		 mov	 esi, ecx
  00006	8d 4e 0c	 lea	 ecx, DWORD PTR [esi+12]
  00009	c7 06 00 00 00
	00		 mov	 DWORD PTR [esi], OFFSET ??_7?$CEncrypt@K@@6B@
  0000f	e8 00 00 00 00	 call	 ??1ccddaabb@@UAE@XZ	; ccddaabb::~ccddaabb
  00014	f6 45 08 01	 test	 BYTE PTR ___flags$[ebp], 1
  00018	74 07		 je	 SHORT $LN1@scalar@4
  0001a	56		 push	 esi
  0001b	e8 00 00 00 00	 call	 ??3@YAXPAX@Z		; operator delete
  00020	59		 pop	 ecx
$LN1@scalar@4:
  00021	8b c6		 mov	 eax, esi
  00023	5e		 pop	 esi
  00024	5d		 pop	 ebp
  00025	c2 04 00	 ret	 4
??_G?$CEncrypt@K@@UAEPAXI@Z ENDP			; CEncrypt<unsigned long>::`scalar deleting destructor'
; Function compile flags: /Ogsp
_TEXT	ENDS
;	COMDAT ??_G?$CEncrypt@H@@UAEPAXI@Z
_TEXT	SEGMENT
___flags$ = 8						; size = 4
??_G?$CEncrypt@H@@UAEPAXI@Z PROC			; CEncrypt<int>::`scalar deleting destructor', COMDAT
; _this$ = ecx
  00000	55		 push	 ebp
  00001	8b ec		 mov	 ebp, esp
  00003	56		 push	 esi
  00004	8b f1		 mov	 esi, ecx
  00006	8d 4e 0c	 lea	 ecx, DWORD PTR [esi+12]
  00009	c7 06 00 00 00
	00		 mov	 DWORD PTR [esi], OFFSET ??_7?$CEncrypt@H@@6B@
  0000f	e8 00 00 00 00	 call	 ??1ccddaabb@@UAE@XZ	; ccddaabb::~ccddaabb
  00014	f6 45 08 01	 test	 BYTE PTR ___flags$[ebp], 1
  00018	74 07		 je	 SHORT $LN1@scalar@5
  0001a	56		 push	 esi
  0001b	e8 00 00 00 00	 call	 ??3@YAXPAX@Z		; operator delete
  00020	59		 pop	 ecx
$LN1@scalar@5:
  00021	8b c6		 mov	 eax, esi
  00023	5e		 pop	 esi
  00024	5d		 pop	 ebp
  00025	c2 04 00	 ret	 4
??_G?$CEncrypt@H@@UAEPAXI@Z ENDP			; CEncrypt<int>::`scalar deleting destructor'
_TEXT	ENDS
PUBLIC	?_Myptr@?$basic_string@DU?$char_traits@D@std@@V?$allocator@D@2@@std@@QBEPBDXZ ; std::basic_string<char,std::char_traits<char>,std::allocator<char> >::_Myptr
; Function compile flags: /Ogsp
; File c:\program files (x86)\microsoft visual studio 10.0\vc\include\xstring
;	COMDAT ?_Myptr@?$basic_string@DU?$char_traits@D@std@@V?$allocator@D@2@@std@@QBEPBDXZ
_TEXT	SEGMENT
?_Myptr@?$basic_string@DU?$char_traits@D@std@@V?$allocator@D@2@@std@@QBEPBDXZ PROC ; std::basic_string<char,std::char_traits<char>,std::allocator<char> >::_Myptr, COMDAT
; _this$ = ecx

; 2010 : 		return (this->_BUF_SIZE <= this->_Myres ? this->_Bx._Ptr
; 2011 : 			: this->_Bx._Buf);

  00000	83 79 14 10	 cmp	 DWORD PTR [ecx+20], 16	; 00000010H
  00004	72 03		 jb	 SHORT $LN3@Myptr
  00006	8b 01		 mov	 eax, DWORD PTR [ecx]

; 2012 : 		}

  00008	c3		 ret	 0
$LN3@Myptr:

; 2010 : 		return (this->_BUF_SIZE <= this->_Myres ? this->_Bx._Ptr
; 2011 : 			: this->_Bx._Buf);

  00009	8b c1		 mov	 eax, ecx

; 2012 : 		}

  0000b	c3		 ret	 0
?_Myptr@?$basic_string@DU?$char_traits@D@std@@V?$allocator@D@2@@std@@QBEPBDXZ ENDP ; std::basic_string<char,std::char_traits<char>,std::allocator<char> >::_Myptr
_TEXT	ENDS
PUBLIC	??1?$_String_val@DV?$allocator@D@std@@@std@@QAE@XZ ; std::_String_val<char,std::allocator<char> >::~_String_val<char,std::allocator<char> >
; Function compile flags: /Ogsp
;	COMDAT ??1?$_String_val@DV?$allocator@D@std@@@std@@QAE@XZ
_TEXT	SEGMENT
??1?$_String_val@DV?$allocator@D@std@@@std@@QAE@XZ PROC	; std::_String_val<char,std::allocator<char> >::~_String_val<char,std::allocator<char> >, COMDAT
; _this$ = ecx

; 459  : 		}

  00000	c3		 ret	 0
??1?$_String_val@DV?$allocator@D@std@@@std@@QAE@XZ ENDP	; std::_String_val<char,std::allocator<char> >::~_String_val<char,std::allocator<char> >
_TEXT	ENDS
PUBLIC	??0?$allocator@D@std@@QAE@XZ			; std::allocator<char>::allocator<char>
; Function compile flags: /Ogsp
; File c:\program files (x86)\microsoft visual studio 10.0\vc\include\xmemory
;	COMDAT ??0?$allocator@D@std@@QAE@XZ
_TEXT	SEGMENT
??0?$allocator@D@std@@QAE@XZ PROC			; std::allocator<char>::allocator<char>, COMDAT
; _this$ = ecx

; 161  : 	_ALLOCATOR() _THROW0()

  00000	8b c1		 mov	 eax, ecx

; 162  : 		{	// construct default allocator (do nothing)
; 163  : 		}

  00002	c3		 ret	 0
??0?$allocator@D@std@@QAE@XZ ENDP			; std::allocator<char>::allocator<char>
_TEXT	ENDS
PUBLIC	??0?$allocator@D@std@@QAE@ABV01@@Z		; std::allocator<char>::allocator<char>
; Function compile flags: /Ogsp
;	COMDAT ??0?$allocator@D@std@@QAE@ABV01@@Z
_TEXT	SEGMENT
___formal$ = 8						; size = 4
??0?$allocator@D@std@@QAE@ABV01@@Z PROC			; std::allocator<char>::allocator<char>, COMDAT
; _this$ = ecx

; 165  : 	_ALLOCATOR(const _ALLOCATOR<_Ty>&) _THROW0()

  00000	8b c1		 mov	 eax, ecx

; 166  : 		{	// construct by copying (do nothing)
; 167  : 		}

  00002	c2 04 00	 ret	 4
??0?$allocator@D@std@@QAE@ABV01@@Z ENDP			; std::allocator<char>::allocator<char>
_TEXT	ENDS
PUBLIC	?EncryptValueToPool@?$CEncrypt@M@@AAEXPBD@Z	; CEncrypt<float>::EncryptValueToPool
EXTRN	?EncryptByte@ccddaabb@@QAEXPBDPADH@Z:PROC	; ccddaabb::EncryptByte
; Function compile flags: /Ogsp
; File d:\lost saga for developer\youtube\tutorial\source\src\lsclient\encryptvalue.h
;	COMDAT ?EncryptValueToPool@?$CEncrypt@M@@AAEXPBD@Z
_TEXT	SEGMENT
_value$ = 8						; size = 4
?EncryptValueToPool@?$CEncrypt@M@@AAEXPBD@Z PROC	; CEncrypt<float>::EncryptValueToPool, COMDAT
; _this$ = ecx

; 67   : 	{

  00000	55		 push	 ebp
  00001	8b ec		 mov	 ebp, esp

; 68   : 		m_RC5.EncryptByte( value, m_MemPool, max(m_ValueSize, DEFAULT_ENCRYPT) );

  00003	0f b7 41 06	 movzx	 eax, WORD PTR [ecx+6]
  00007	83 f8 04	 cmp	 eax, 4
  0000a	77 03		 ja	 SHORT $LN4@EncryptVal
  0000c	6a 04		 push	 4
  0000e	58		 pop	 eax
$LN4@EncryptVal:
  0000f	50		 push	 eax
  00010	8d 41 1c	 lea	 eax, DWORD PTR [ecx+28]
  00013	50		 push	 eax
  00014	ff 75 08	 push	 DWORD PTR _value$[ebp]
  00017	83 c1 0c	 add	 ecx, 12			; 0000000cH
  0001a	e8 00 00 00 00	 call	 ?EncryptByte@ccddaabb@@QAEXPBDPADH@Z ; ccddaabb::EncryptByte

; 69   : 		
; 70   : 	}

  0001f	5d		 pop	 ebp
  00020	c2 04 00	 ret	 4
?EncryptValueToPool@?$CEncrypt@M@@AAEXPBD@Z ENDP	; CEncrypt<float>::EncryptValueToPool
_TEXT	ENDS
PUBLIC	?Init@?$CEncrypt@M@@AAEXXZ			; CEncrypt<float>::Init
EXTRN	?Setup@ccddaabb@@QAEXPBDHH@Z:PROC		; ccddaabb::Setup
EXTRN	__imp__rand:PROC
EXTRN	__imp__timeGetTime@0:PROC
EXTRN	__imp__GetCurrentProcessId@0:PROC
; Function compile flags: /Ogsp
;	COMDAT ?Init@?$CEncrypt@M@@AAEXXZ
_TEXT	SEGMENT
_pid$ = -8						; size = 4
_tick$ = -4						; size = 4
?Init@?$CEncrypt@M@@AAEXXZ PROC				; CEncrypt<float>::Init, COMDAT
; _this$ = ecx

; 73   : 	{

  00000	55		 push	 ebp
  00001	8b ec		 mov	 ebp, esp
  00003	51		 push	 ecx
  00004	51		 push	 ecx
  00005	53		 push	 ebx
  00006	56		 push	 esi
  00007	57		 push	 edi
  00008	8b f1		 mov	 esi, ecx

; 74   : 		DWORD pid = GetCurrentProcessId();

  0000a	ff 15 00 00 00
	00		 call	 DWORD PTR __imp__GetCurrentProcessId@0
  00010	89 45 f8	 mov	 DWORD PTR _pid$[ebp], eax

; 75   : 		DWORD tick = timeGetTime();

  00013	ff 15 00 00 00
	00		 call	 DWORD PTR __imp__timeGetTime@0

; 76   : 		m_ValueSize    = sizeof(type);
; 77   : 		m_MemPoolPos   = (unsigned short)( rand()+pid+tick )%(MAX_MEM_POOL-m_ValueSize);

  00019	8b 3d 00 00 00
	00		 mov	 edi, DWORD PTR __imp__rand
  0001f	89 45 fc	 mov	 DWORD PTR _tick$[ebp], eax
  00022	6a 04		 push	 4
  00024	58		 pop	 eax
  00025	66 89 46 06	 mov	 WORD PTR [esi+6], ax
  00029	ff d7		 call	 edi
  0002b	03 45 f8	 add	 eax, DWORD PTR _pid$[ebp]
  0002e	0f b7 4e 06	 movzx	 ecx, WORD PTR [esi+6]
  00032	03 45 fc	 add	 eax, DWORD PTR _tick$[ebp]
  00035	6a 0c		 push	 12			; 0000000cH
  00037	0f b7 c0	 movzx	 eax, ax
  0003a	5b		 pop	 ebx
  0003b	99		 cdq
  0003c	2b d9		 sub	 ebx, ecx
  0003e	f7 fb		 idiv	 ebx
  00040	66 89 56 04	 mov	 WORD PTR [esi+4], dx

; 78   : 		m_EncryptSeed  = (char)( rand()+pid+tick )%256;

  00044	ff d7		 call	 edi
  00046	02 45 f8	 add	 al, BYTE PTR _pid$[ebp]
  00049	02 45 fc	 add	 al, BYTE PTR _tick$[ebp]
  0004c	0f be c0	 movsx	 eax, al
  0004f	25 ff 00 00 80	 and	 eax, -2147483393	; 800000ffH
  00054	79 07		 jns	 SHORT $LN8@Init
  00056	48		 dec	 eax
  00057	0d 00 ff ff ff	 or	 eax, -256		; ffffff00H
  0005c	40		 inc	 eax
$LN8@Init:
  0005d	88 46 08	 mov	 BYTE PTR [esi+8], al

; 79   : 
; 80   : 		for (int i = 0; i < MAX_MEM_POOL ; i++)

  00060	33 db		 xor	 ebx, ebx
$LL3@Init:

; 81   : 			m_MemPool[i] = (char)( rand()+pid+tick )%256; // 

  00062	ff d7		 call	 edi
  00064	02 45 f8	 add	 al, BYTE PTR _pid$[ebp]
  00067	02 45 fc	 add	 al, BYTE PTR _tick$[ebp]
  0006a	0f be c0	 movsx	 eax, al
  0006d	25 ff 00 00 80	 and	 eax, -2147483393	; 800000ffH
  00072	79 07		 jns	 SHORT $LN9@Init
  00074	48		 dec	 eax
  00075	0d 00 ff ff ff	 or	 eax, -256		; ffffff00H
  0007a	40		 inc	 eax
$LN9@Init:
  0007b	88 44 1e 1c	 mov	 BYTE PTR [esi+ebx+28], al
  0007f	43		 inc	 ebx
  00080	83 fb 0c	 cmp	 ebx, 12			; 0000000cH
  00083	7c dd		 jl	 SHORT $LL3@Init

; 82   : 
; 83   : 		//UJ 130913, : szKey  
; 84   : 		//char szKey[ccddaabb::KEY_SIZE];//="";
; 85   : 		//for (int i = 0; i < ccddaabb::KEY_SIZE  ; i++)
; 86   : 		//	szKey[i] = (char)( rand()+pid+tick )%256; // 
; 87   : 		m_RC5.Setup( NULL, pid, tick );

  00085	ff 75 fc	 push	 DWORD PTR _tick$[ebp]
  00088	8d 4e 0c	 lea	 ecx, DWORD PTR [esi+12]
  0008b	ff 75 f8	 push	 DWORD PTR _pid$[ebp]
  0008e	6a 00		 push	 0
  00090	e8 00 00 00 00	 call	 ?Setup@ccddaabb@@QAEXPBDHH@Z ; ccddaabb::Setup
  00095	5f		 pop	 edi
  00096	5e		 pop	 esi
  00097	5b		 pop	 ebx

; 88   : 
; 89   : #ifdef _NOTUSE
; 90   : 		m_value        = 0;
; 91   : 		EncryptValueToPool((char*)&m_value);
; 92   : 		Debug();
; 93   : #endif
; 94   : 	}

  00098	c9		 leave
  00099	c3		 ret	 0
?Init@?$CEncrypt@M@@AAEXXZ ENDP				; CEncrypt<float>::Init
_TEXT	ENDS
PUBLIC	?DecryptValueToPool@?$CEncrypt@M@@QAEXPAM@Z	; CEncrypt<float>::DecryptValueToPool
EXTRN	?DecryptByte@ccddaabb@@QBEXPBDPADH@Z:PROC	; ccddaabb::DecryptByte
; Function compile flags: /Ogsp
;	COMDAT ?DecryptValueToPool@?$CEncrypt@M@@QAEXPAM@Z
_TEXT	SEGMENT
_value$ = 8						; size = 4
?DecryptValueToPool@?$CEncrypt@M@@QAEXPAM@Z PROC	; CEncrypt<float>::DecryptValueToPool, COMDAT
; _this$ = ecx

; 1648 : 	{

  00000	55		 push	 ebp
  00001	8b ec		 mov	 ebp, esp
  00003	56		 push	 esi

; 1649 : 		m_RC5.DecryptByte( m_MemPool, m_TempMem, 4 );

  00004	8d 71 28	 lea	 esi, DWORD PTR [ecx+40]
  00007	6a 04		 push	 4
  00009	8d 41 1c	 lea	 eax, DWORD PTR [ecx+28]
  0000c	56		 push	 esi
  0000d	50		 push	 eax
  0000e	83 c1 0c	 add	 ecx, 12			; 0000000cH
  00011	e8 00 00 00 00	 call	 ?DecryptByte@ccddaabb@@QBEXPBDPADH@Z ; ccddaabb::DecryptByte

; 1650 : 		*value = *((float*)m_TempMem);

  00016	d9 06		 fld	 DWORD PTR [esi]
  00018	8b 45 08	 mov	 eax, DWORD PTR _value$[ebp]
  0001b	d9 18		 fstp	 DWORD PTR [eax]
  0001d	5e		 pop	 esi

; 1651 : 	}

  0001e	5d		 pop	 ebp
  0001f	c2 04 00	 ret	 4
?DecryptValueToPool@?$CEncrypt@M@@QAEXPAM@Z ENDP	; CEncrypt<float>::DecryptValueToPool
_TEXT	ENDS
PUBLIC	?EncryptValueToPool@?$CEncrypt@K@@AAEXPBD@Z	; CEncrypt<unsigned long>::EncryptValueToPool
; Function compile flags: /Ogsp
;	COMDAT ?EncryptValueToPool@?$CEncrypt@K@@AAEXPBD@Z
_TEXT	SEGMENT
_value$ = 8						; size = 4
?EncryptValueToPool@?$CEncrypt@K@@AAEXPBD@Z PROC	; CEncrypt<unsigned long>::EncryptValueToPool, COMDAT
; _this$ = ecx

; 67   : 	{

  00000	55		 push	 ebp
  00001	8b ec		 mov	 ebp, esp

; 68   : 		m_RC5.EncryptByte( value, m_MemPool, max(m_ValueSize, DEFAULT_ENCRYPT) );

  00003	0f b7 41 06	 movzx	 eax, WORD PTR [ecx+6]
  00007	83 f8 04	 cmp	 eax, 4
  0000a	77 03		 ja	 SHORT $LN4@EncryptVal@2
  0000c	6a 04		 push	 4
  0000e	58		 pop	 eax
$LN4@EncryptVal@2:
  0000f	50		 push	 eax
  00010	8d 41 1c	 lea	 eax, DWORD PTR [ecx+28]
  00013	50		 push	 eax
  00014	ff 75 08	 push	 DWORD PTR _value$[ebp]
  00017	83 c1 0c	 add	 ecx, 12			; 0000000cH
  0001a	e8 00 00 00 00	 call	 ?EncryptByte@ccddaabb@@QAEXPBDPADH@Z ; ccddaabb::EncryptByte

; 69   : 		
; 70   : 	}

  0001f	5d		 pop	 ebp
  00020	c2 04 00	 ret	 4
?EncryptValueToPool@?$CEncrypt@K@@AAEXPBD@Z ENDP	; CEncrypt<unsigned long>::EncryptValueToPool
_TEXT	ENDS
PUBLIC	?Init@?$CEncrypt@K@@AAEXXZ			; CEncrypt<unsigned long>::Init
; Function compile flags: /Ogsp
;	COMDAT ?Init@?$CEncrypt@K@@AAEXXZ
_TEXT	SEGMENT
_pid$ = -8						; size = 4
_tick$ = -4						; size = 4
?Init@?$CEncrypt@K@@AAEXXZ PROC				; CEncrypt<unsigned long>::Init, COMDAT
; _this$ = ecx

; 73   : 	{

  00000	55		 push	 ebp
  00001	8b ec		 mov	 ebp, esp
  00003	51		 push	 ecx
  00004	51		 push	 ecx
  00005	53		 push	 ebx
  00006	56		 push	 esi
  00007	57		 push	 edi
  00008	8b f1		 mov	 esi, ecx

; 74   : 		DWORD pid = GetCurrentProcessId();

  0000a	ff 15 00 00 00
	00		 call	 DWORD PTR __imp__GetCurrentProcessId@0
  00010	89 45 f8	 mov	 DWORD PTR _pid$[ebp], eax

; 75   : 		DWORD tick = timeGetTime();

  00013	ff 15 00 00 00
	00		 call	 DWORD PTR __imp__timeGetTime@0

; 76   : 		m_ValueSize    = sizeof(type);
; 77   : 		m_MemPoolPos   = (unsigned short)( rand()+pid+tick )%(MAX_MEM_POOL-m_ValueSize);

  00019	8b 3d 00 00 00
	00		 mov	 edi, DWORD PTR __imp__rand
  0001f	89 45 fc	 mov	 DWORD PTR _tick$[ebp], eax
  00022	6a 04		 push	 4
  00024	58		 pop	 eax
  00025	66 89 46 06	 mov	 WORD PTR [esi+6], ax
  00029	ff d7		 call	 edi
  0002b	03 45 f8	 add	 eax, DWORD PTR _pid$[ebp]
  0002e	0f b7 4e 06	 movzx	 ecx, WORD PTR [esi+6]
  00032	03 45 fc	 add	 eax, DWORD PTR _tick$[ebp]
  00035	6a 0c		 push	 12			; 0000000cH
  00037	0f b7 c0	 movzx	 eax, ax
  0003a	5b		 pop	 ebx
  0003b	99		 cdq
  0003c	2b d9		 sub	 ebx, ecx
  0003e	f7 fb		 idiv	 ebx
  00040	66 89 56 04	 mov	 WORD PTR [esi+4], dx

; 78   : 		m_EncryptSeed  = (char)( rand()+pid+tick )%256;

  00044	ff d7		 call	 edi
  00046	02 45 f8	 add	 al, BYTE PTR _pid$[ebp]
  00049	02 45 fc	 add	 al, BYTE PTR _tick$[ebp]
  0004c	0f be c0	 movsx	 eax, al
  0004f	25 ff 00 00 80	 and	 eax, -2147483393	; 800000ffH
  00054	79 07		 jns	 SHORT $LN8@Init@2
  00056	48		 dec	 eax
  00057	0d 00 ff ff ff	 or	 eax, -256		; ffffff00H
  0005c	40		 inc	 eax
$LN8@Init@2:
  0005d	88 46 08	 mov	 BYTE PTR [esi+8], al

; 79   : 
; 80   : 		for (int i = 0; i < MAX_MEM_POOL ; i++)

  00060	33 db		 xor	 ebx, ebx
$LL3@Init@2:

; 81   : 			m_MemPool[i] = (char)( rand()+pid+tick )%256; // 

  00062	ff d7		 call	 edi
  00064	02 45 f8	 add	 al, BYTE PTR _pid$[ebp]
  00067	02 45 fc	 add	 al, BYTE PTR _tick$[ebp]
  0006a	0f be c0	 movsx	 eax, al
  0006d	25 ff 00 00 80	 and	 eax, -2147483393	; 800000ffH
  00072	79 07		 jns	 SHORT $LN9@Init@2
  00074	48		 dec	 eax
  00075	0d 00 ff ff ff	 or	 eax, -256		; ffffff00H
  0007a	40		 inc	 eax
$LN9@Init@2:
  0007b	88 44 1e 1c	 mov	 BYTE PTR [esi+ebx+28], al
  0007f	43		 inc	 ebx
  00080	83 fb 0c	 cmp	 ebx, 12			; 0000000cH
  00083	7c dd		 jl	 SHORT $LL3@Init@2

; 82   : 
; 83   : 		//UJ 130913, : szKey  
; 84   : 		//char szKey[ccddaabb::KEY_SIZE];//="";
; 85   : 		//for (int i = 0; i < ccddaabb::KEY_SIZE  ; i++)
; 86   : 		//	szKey[i] = (char)( rand()+pid+tick )%256; // 
; 87   : 		m_RC5.Setup( NULL, pid, tick );

  00085	ff 75 fc	 push	 DWORD PTR _tick$[ebp]
  00088	8d 4e 0c	 lea	 ecx, DWORD PTR [esi+12]
  0008b	ff 75 f8	 push	 DWORD PTR _pid$[ebp]
  0008e	6a 00		 push	 0
  00090	e8 00 00 00 00	 call	 ?Setup@ccddaabb@@QAEXPBDHH@Z ; ccddaabb::Setup
  00095	5f		 pop	 edi
  00096	5e		 pop	 esi
  00097	5b		 pop	 ebx

; 88   : 
; 89   : #ifdef _NOTUSE
; 90   : 		m_value        = 0;
; 91   : 		EncryptValueToPool((char*)&m_value);
; 92   : 		Debug();
; 93   : #endif
; 94   : 	}

  00098	c9		 leave
  00099	c3		 ret	 0
?Init@?$CEncrypt@K@@AAEXXZ ENDP				; CEncrypt<unsigned long>::Init
_TEXT	ENDS
PUBLIC	?DecryptValueToPool@?$CEncrypt@K@@QAEXPAK@Z	; CEncrypt<unsigned long>::DecryptValueToPool
; Function compile flags: /Ogsp
;	COMDAT ?DecryptValueToPool@?$CEncrypt@K@@QAEXPAK@Z
_TEXT	SEGMENT
_value$ = 8						; size = 4
?DecryptValueToPool@?$CEncrypt@K@@QAEXPAK@Z PROC	; CEncrypt<unsigned long>::DecryptValueToPool, COMDAT
; _this$ = ecx

; 1256 : 	{

  00000	55		 push	 ebp
  00001	8b ec		 mov	 ebp, esp
  00003	56		 push	 esi

; 1257 : 		m_RC5.DecryptByte( m_MemPool, m_TempMem, 4 );

  00004	8d 71 28	 lea	 esi, DWORD PTR [ecx+40]
  00007	6a 04		 push	 4
  00009	8d 41 1c	 lea	 eax, DWORD PTR [ecx+28]
  0000c	56		 push	 esi
  0000d	50		 push	 eax
  0000e	83 c1 0c	 add	 ecx, 12			; 0000000cH
  00011	e8 00 00 00 00	 call	 ?DecryptByte@ccddaabb@@QBEXPBDPADH@Z ; ccddaabb::DecryptByte

; 1258 : 		*value = *((DWORD*)m_TempMem);

  00016	8b 06		 mov	 eax, DWORD PTR [esi]
  00018	8b 4d 08	 mov	 ecx, DWORD PTR _value$[ebp]
  0001b	89 01		 mov	 DWORD PTR [ecx], eax
  0001d	5e		 pop	 esi

; 1259 : 	}

  0001e	5d		 pop	 ebp
  0001f	c2 04 00	 ret	 4
?DecryptValueToPool@?$CEncrypt@K@@QAEXPAK@Z ENDP	; CEncrypt<unsigned long>::DecryptValueToPool
_TEXT	ENDS
PUBLIC	?EncryptValueToPool@?$CEncrypt@H@@AAEXPBD@Z	; CEncrypt<int>::EncryptValueToPool
; Function compile flags: /Ogsp
;	COMDAT ?EncryptValueToPool@?$CEncrypt@H@@AAEXPBD@Z
_TEXT	SEGMENT
_value$ = 8						; size = 4
?EncryptValueToPool@?$CEncrypt@H@@AAEXPBD@Z PROC	; CEncrypt<int>::EncryptValueToPool, COMDAT
; _this$ = ecx

; 67   : 	{

  00000	55		 push	 ebp
  00001	8b ec		 mov	 ebp, esp

; 68   : 		m_RC5.EncryptByte( value, m_MemPool, max(m_ValueSize, DEFAULT_ENCRYPT) );

  00003	0f b7 41 06	 movzx	 eax, WORD PTR [ecx+6]
  00007	83 f8 04	 cmp	 eax, 4
  0000a	77 03		 ja	 SHORT $LN4@EncryptVal@3
  0000c	6a 04		 push	 4
  0000e	58		 pop	 eax
$LN4@EncryptVal@3:
  0000f	50		 push	 eax
  00010	8d 41 1c	 lea	 eax, DWORD PTR [ecx+28]
  00013	50		 push	 eax
  00014	ff 75 08	 push	 DWORD PTR _value$[ebp]
  00017	83 c1 0c	 add	 ecx, 12			; 0000000cH
  0001a	e8 00 00 00 00	 call	 ?EncryptByte@ccddaabb@@QAEXPBDPADH@Z ; ccddaabb::EncryptByte

; 69   : 		
; 70   : 	}

  0001f	5d		 pop	 ebp
  00020	c2 04 00	 ret	 4
?EncryptValueToPool@?$CEncrypt@H@@AAEXPBD@Z ENDP	; CEncrypt<int>::EncryptValueToPool
_TEXT	ENDS
PUBLIC	?Init@?$CEncrypt@H@@AAEXXZ			; CEncrypt<int>::Init
; Function compile flags: /Ogsp
;	COMDAT ?Init@?$CEncrypt@H@@AAEXXZ
_TEXT	SEGMENT
_pid$ = -8						; size = 4
_tick$ = -4						; size = 4
?Init@?$CEncrypt@H@@AAEXXZ PROC				; CEncrypt<int>::Init, COMDAT
; _this$ = ecx

; 73   : 	{

  00000	55		 push	 ebp
  00001	8b ec		 mov	 ebp, esp
  00003	51		 push	 ecx
  00004	51		 push	 ecx
  00005	53		 push	 ebx
  00006	56		 push	 esi
  00007	57		 push	 edi
  00008	8b f1		 mov	 esi, ecx

; 74   : 		DWORD pid = GetCurrentProcessId();

  0000a	ff 15 00 00 00
	00		 call	 DWORD PTR __imp__GetCurrentProcessId@0
  00010	89 45 f8	 mov	 DWORD PTR _pid$[ebp], eax

; 75   : 		DWORD tick = timeGetTime();

  00013	ff 15 00 00 00
	00		 call	 DWORD PTR __imp__timeGetTime@0

; 76   : 		m_ValueSize    = sizeof(type);
; 77   : 		m_MemPoolPos   = (unsigned short)( rand()+pid+tick )%(MAX_MEM_POOL-m_ValueSize);

  00019	8b 3d 00 00 00
	00		 mov	 edi, DWORD PTR __imp__rand
  0001f	89 45 fc	 mov	 DWORD PTR _tick$[ebp], eax
  00022	6a 04		 push	 4
  00024	58		 pop	 eax
  00025	66 89 46 06	 mov	 WORD PTR [esi+6], ax
  00029	ff d7		 call	 edi
  0002b	03 45 f8	 add	 eax, DWORD PTR _pid$[ebp]
  0002e	0f b7 4e 06	 movzx	 ecx, WORD PTR [esi+6]
  00032	03 45 fc	 add	 eax, DWORD PTR _tick$[ebp]
  00035	6a 0c		 push	 12			; 0000000cH
  00037	0f b7 c0	 movzx	 eax, ax
  0003a	5b		 pop	 ebx
  0003b	99		 cdq
  0003c	2b d9		 sub	 ebx, ecx
  0003e	f7 fb		 idiv	 ebx
  00040	66 89 56 04	 mov	 WORD PTR [esi+4], dx

; 78   : 		m_EncryptSeed  = (char)( rand()+pid+tick )%256;

  00044	ff d7		 call	 edi
  00046	02 45 f8	 add	 al, BYTE PTR _pid$[ebp]
  00049	02 45 fc	 add	 al, BYTE PTR _tick$[ebp]
  0004c	0f be c0	 movsx	 eax, al
  0004f	25 ff 00 00 80	 and	 eax, -2147483393	; 800000ffH
  00054	79 07		 jns	 SHORT $LN8@Init@3
  00056	48		 dec	 eax
  00057	0d 00 ff ff ff	 or	 eax, -256		; ffffff00H
  0005c	40		 inc	 eax
$LN8@Init@3:
  0005d	88 46 08	 mov	 BYTE PTR [esi+8], al

; 79   : 
; 80   : 		for (int i = 0; i < MAX_MEM_POOL ; i++)

  00060	33 db		 xor	 ebx, ebx
$LL3@Init@3:

; 81   : 			m_MemPool[i] = (char)( rand()+pid+tick )%256; // 

  00062	ff d7		 call	 edi
  00064	02 45 f8	 add	 al, BYTE PTR _pid$[ebp]
  00067	02 45 fc	 add	 al, BYTE PTR _tick$[ebp]
  0006a	0f be c0	 movsx	 eax, al
  0006d	25 ff 00 00 80	 and	 eax, -2147483393	; 800000ffH
  00072	79 07		 jns	 SHORT $LN9@Init@3
  00074	48		 dec	 eax
  00075	0d 00 ff ff ff	 or	 eax, -256		; ffffff00H
  0007a	40		 inc	 eax
$LN9@Init@3:
  0007b	88 44 1e 1c	 mov	 BYTE PTR [esi+ebx+28], al
  0007f	43		 inc	 ebx
  00080	83 fb 0c	 cmp	 ebx, 12			; 0000000cH
  00083	7c dd		 jl	 SHORT $LL3@Init@3

; 82   : 
; 83   : 		//UJ 130913, : szKey  
; 84   : 		//char szKey[ccddaabb::KEY_SIZE];//="";
; 85   : 		//for (int i = 0; i < ccddaabb::KEY_SIZE  ; i++)
; 86   : 		//	szKey[i] = (char)( rand()+pid+tick )%256; // 
; 87   : 		m_RC5.Setup( NULL, pid, tick );

  00085	ff 75 fc	 push	 DWORD PTR _tick$[ebp]
  00088	8d 4e 0c	 lea	 ecx, DWORD PTR [esi+12]
  0008b	ff 75 f8	 push	 DWORD PTR _pid$[ebp]
  0008e	6a 00		 push	 0
  00090	e8 00 00 00 00	 call	 ?Setup@ccddaabb@@QAEXPBDHH@Z ; ccddaabb::Setup
  00095	5f		 pop	 edi
  00096	5e		 pop	 esi
  00097	5b		 pop	 ebx

; 88   : 
; 89   : #ifdef _NOTUSE
; 90   : 		m_value        = 0;
; 91   : 		EncryptValueToPool((char*)&m_value);
; 92   : 		Debug();
; 93   : #endif
; 94   : 	}

  00098	c9		 leave
  00099	c3		 ret	 0
?Init@?$CEncrypt@H@@AAEXXZ ENDP				; CEncrypt<int>::Init
_TEXT	ENDS
PUBLIC	?DecryptValueToPool@?$CEncrypt@H@@QAEXPAH@Z	; CEncrypt<int>::DecryptValueToPool
; Function compile flags: /Ogsp
;	COMDAT ?DecryptValueToPool@?$CEncrypt@H@@QAEXPAH@Z
_TEXT	SEGMENT
_value$ = 8						; size = 4
?DecryptValueToPool@?$CEncrypt@H@@QAEXPAH@Z PROC	; CEncrypt<int>::DecryptValueToPool, COMDAT
; _this$ = ecx

; 837  : 	{

  00000	55		 push	 ebp
  00001	8b ec		 mov	 ebp, esp
  00003	56		 push	 esi

; 838  : 		m_RC5.DecryptByte( m_MemPool, m_TempMem, 4 );

  00004	8d 71 28	 lea	 esi, DWORD PTR [ecx+40]
  00007	6a 04		 push	 4
  00009	8d 41 1c	 lea	 eax, DWORD PTR [ecx+28]
  0000c	56		 push	 esi
  0000d	50		 push	 eax
  0000e	83 c1 0c	 add	 ecx, 12			; 0000000cH
  00011	e8 00 00 00 00	 call	 ?DecryptByte@ccddaabb@@QBEXPBDPADH@Z ; ccddaabb::DecryptByte

; 839  : 		*value = *((int*)m_TempMem);

  00016	8b 06		 mov	 eax, DWORD PTR [esi]
  00018	8b 4d 08	 mov	 ecx, DWORD PTR _value$[ebp]
  0001b	89 01		 mov	 DWORD PTR [ecx], eax
  0001d	5e		 pop	 esi

; 840  : 	}

  0001e	5d		 pop	 ebp
  0001f	c2 04 00	 ret	 4
?DecryptValueToPool@?$CEncrypt@H@@QAEXPAH@Z ENDP	; CEncrypt<int>::DecryptValueToPool
_TEXT	ENDS
PUBLIC	?_Myptr@?$basic_string@DU?$char_traits@D@std@@V?$allocator@D@2@@std@@QAEPADXZ ; std::basic_string<char,std::char_traits<char>,std::allocator<char> >::_Myptr
; Function compile flags: /Ogsp
; File c:\program files (x86)\microsoft visual studio 10.0\vc\include\xstring
;	COMDAT ?_Myptr@?$basic_string@DU?$char_traits@D@std@@V?$allocator@D@2@@std@@QAEPADXZ
_TEXT	SEGMENT
?_Myptr@?$basic_string@DU?$char_traits@D@std@@V?$allocator@D@2@@std@@QAEPADXZ PROC ; std::basic_string<char,std::char_traits<char>,std::allocator<char> >::_Myptr, COMDAT
; _this$ = ecx

; 2004 : 		return (this->_BUF_SIZE <= this->_Myres ? this->_Bx._Ptr
; 2005 : 			: this->_Bx._Buf);

  00000	83 79 14 10	 cmp	 DWORD PTR [ecx+20], 16	; 00000010H
  00004	72 03		 jb	 SHORT $LN3@Myptr@2
  00006	8b 01		 mov	 eax, DWORD PTR [ecx]

; 2006 : 		}

  00008	c3		 ret	 0
$LN3@Myptr@2:

; 2004 : 		return (this->_BUF_SIZE <= this->_Myres ? this->_Bx._Ptr
; 2005 : 			: this->_Bx._Buf);

  00009	8b c1		 mov	 eax, ecx

; 2006 : 		}

  0000b	c3		 ret	 0
?_Myptr@?$basic_string@DU?$char_traits@D@std@@V?$allocator@D@2@@std@@QAEPADXZ ENDP ; std::basic_string<char,std::char_traits<char>,std::allocator<char> >::_Myptr
_TEXT	ENDS
PUBLIC	??_C@_0BA@JFNIOLAK@string?5too?5long?$AA@	; `string'
PUBLIC	?_Xlen@?$basic_string@DU?$char_traits@D@std@@V?$allocator@D@2@@std@@QBEXXZ ; std::basic_string<char,std::char_traits<char>,std::allocator<char> >::_Xlen
;	COMDAT ??_C@_0BA@JFNIOLAK@string?5too?5long?$AA@
CONST	SEGMENT
??_C@_0BA@JFNIOLAK@string?5too?5long?$AA@ DB 'string too long', 00H ; `string'
; Function compile flags: /Ogsp
CONST	ENDS
;	COMDAT ?_Xlen@?$basic_string@DU?$char_traits@D@std@@V?$allocator@D@2@@std@@QBEXXZ
_TEXT	SEGMENT
?_Xlen@?$basic_string@DU?$char_traits@D@std@@V?$allocator@D@2@@std@@QBEXXZ PROC ; std::basic_string<char,std::char_traits<char>,std::allocator<char> >::_Xlen, COMDAT
; _this$ = ecx

; 2016 : 		_Xlength_error("string too long");

  00000	68 00 00 00 00	 push	 OFFSET ??_C@_0BA@JFNIOLAK@string?5too?5long?$AA@
  00005	ff 15 00 00 00
	00		 call	 DWORD PTR __imp_?_Xlength_error@std@@YAXPBD@Z
$LN4@Xlen@3:
$LN3@Xlen@3:
  0000b	cc		 int	 3
?_Xlen@?$basic_string@DU?$char_traits@D@std@@V?$allocator@D@2@@std@@QBEXXZ ENDP ; std::basic_string<char,std::char_traits<char>,std::allocator<char> >::_Xlen
_TEXT	ENDS
PUBLIC	??_C@_0BI@CFPLBAOH@invalid?5string?5position?$AA@ ; `string'
PUBLIC	?_Xran@?$basic_string@DU?$char_traits@D@std@@V?$allocator@D@2@@std@@QBEXXZ ; std::basic_string<char,std::char_traits<char>,std::allocator<char> >::_Xran
EXTRN	__imp_?_Xout_of_range@std@@YAXPBD@Z:PROC
;	COMDAT ??_C@_0BI@CFPLBAOH@invalid?5string?5position?$AA@
CONST	SEGMENT
??_C@_0BI@CFPLBAOH@invalid?5string?5position?$AA@ DB 'invalid string posi'
	DB	'tion', 00H					; `string'
; Function compile flags: /Ogsp
CONST	ENDS
;	COMDAT ?_Xran@?$basic_string@DU?$char_traits@D@std@@V?$allocator@D@2@@std@@QBEXXZ
_TEXT	SEGMENT
?_Xran@?$basic_string@DU?$char_traits@D@std@@V?$allocator@D@2@@std@@QBEXXZ PROC ; std::basic_string<char,std::char_traits<char>,std::allocator<char> >::_Xran, COMDAT
; _this$ = ecx

; 2021 : 		_Xout_of_range("invalid string position");

  00000	68 00 00 00 00	 push	 OFFSET ??_C@_0BI@CFPLBAOH@invalid?5string?5position?$AA@
  00005	ff 15 00 00 00
	00		 call	 DWORD PTR __imp_?_Xout_of_range@std@@YAXPBD@Z
$LN4@Xran:
$LN3@Xran:
  0000b	cc		 int	 3
?_Xran@?$basic_string@DU?$char_traits@D@std@@V?$allocator@D@2@@std@@QBEXXZ ENDP ; std::basic_string<char,std::char_traits<char>,std::allocator<char> >::_Xran
_TEXT	ENDS
PUBLIC	?deallocate@?$allocator@D@std@@QAEXPADI@Z	; std::allocator<char>::deallocate
; Function compile flags: /Ogsp
; File c:\program files (x86)\microsoft visual studio 10.0\vc\include\xmemory
;	COMDAT ?deallocate@?$allocator@D@std@@QAEXPADI@Z
_TEXT	SEGMENT
__Ptr$ = 8						; size = 4
___formal$ = 12						; size = 4
?deallocate@?$allocator@D@std@@QAEXPADI@Z PROC		; std::allocator<char>::deallocate, COMDAT
; _this$ = ecx

; 181  : 		{	// deallocate object at _Ptr, ignore size

  00000	55		 push	 ebp
  00001	8b ec		 mov	 ebp, esp

; 182  : 		::operator delete(_Ptr);

  00003	ff 75 08	 push	 DWORD PTR __Ptr$[ebp]
  00006	e8 00 00 00 00	 call	 ??3@YAXPAX@Z		; operator delete
  0000b	59		 pop	 ecx

; 183  : 		}

  0000c	5d		 pop	 ebp
  0000d	c2 08 00	 ret	 8
?deallocate@?$allocator@D@std@@QAEXPADI@Z ENDP		; std::allocator<char>::deallocate
_TEXT	ENDS
PUBLIC	?_Inside@?$basic_string@DU?$char_traits@D@std@@V?$allocator@D@2@@std@@QAE_NPBD@Z ; std::basic_string<char,std::char_traits<char>,std::allocator<char> >::_Inside
; Function compile flags: /Ogsp
; File c:\program files (x86)\microsoft visual studio 10.0\vc\include\xstring
;	COMDAT ?_Inside@?$basic_string@DU?$char_traits@D@std@@V?$allocator@D@2@@std@@QAE_NPBD@Z
_TEXT	SEGMENT
__Ptr$ = 8						; size = 4
?_Inside@?$basic_string@DU?$char_traits@D@std@@V?$allocator@D@2@@std@@QAE_NPBD@Z PROC ; std::basic_string<char,std::char_traits<char>,std::allocator<char> >::_Inside, COMDAT
; _this$ = ecx

; 1973 : 		{	// test if _Ptr points inside string

  00000	55		 push	 ebp
  00001	8b ec		 mov	 ebp, esp

; 1974 : 		if (_Ptr == 0 || _Ptr < _Myptr() || _Myptr() + this->_Mysize <= _Ptr)

  00003	83 7d 08 00	 cmp	 DWORD PTR __Ptr$[ebp], 0
  00007	74 2c		 je	 SHORT $LN2@Inside@3
  00009	8b 51 14	 mov	 edx, DWORD PTR [ecx+20]
  0000c	83 fa 10	 cmp	 edx, 16			; 00000010H
  0000f	72 04		 jb	 SHORT $LN8@Inside@3
  00011	8b 01		 mov	 eax, DWORD PTR [ecx]
  00013	eb 02		 jmp	 SHORT $LN9@Inside@3
$LN8@Inside@3:
  00015	8b c1		 mov	 eax, ecx
$LN9@Inside@3:
  00017	39 45 08	 cmp	 DWORD PTR __Ptr$[ebp], eax
  0001a	72 19		 jb	 SHORT $LN2@Inside@3
  0001c	83 fa 10	 cmp	 edx, 16			; 00000010H
  0001f	72 04		 jb	 SHORT $LN12@Inside@3
  00021	8b 01		 mov	 eax, DWORD PTR [ecx]
  00023	eb 02		 jmp	 SHORT $LN13@Inside@3
$LN12@Inside@3:
  00025	8b c1		 mov	 eax, ecx
$LN13@Inside@3:
  00027	8b 49 10	 mov	 ecx, DWORD PTR [ecx+16]
  0002a	03 c8		 add	 ecx, eax
  0002c	3b 4d 08	 cmp	 ecx, DWORD PTR __Ptr$[ebp]
  0002f	76 04		 jbe	 SHORT $LN2@Inside@3

; 1976 : 		else
; 1977 : 			return (true);

  00031	b0 01		 mov	 al, 1
  00033	eb 02		 jmp	 SHORT $LN1@Inside@3
$LN2@Inside@3:

; 1975 : 			return (false);	// don't ask

  00035	32 c0		 xor	 al, al
$LN1@Inside@3:

; 1978 : 		}

  00037	5d		 pop	 ebp
  00038	c2 04 00	 ret	 4
?_Inside@?$basic_string@DU?$char_traits@D@std@@V?$allocator@D@2@@std@@QAE_NPBD@Z ENDP ; std::basic_string<char,std::char_traits<char>,std::allocator<char> >::_Inside
_TEXT	ENDS
PUBLIC	?max_size@?$allocator@D@std@@QBEIXZ		; std::allocator<char>::max_size
; Function compile flags: /Ogsp
; File c:\program files (x86)\microsoft visual studio 10.0\vc\include\xmemory
;	COMDAT ?max_size@?$allocator@D@std@@QBEIXZ
_TEXT	SEGMENT
?max_size@?$allocator@D@std@@QBEIXZ PROC		; std::allocator<char>::max_size, COMDAT
; _this$ = ecx

; 218  : 		_SIZT _Count = (_SIZT)(-1) / sizeof (_Ty);
; 219  : 		return (0 < _Count ? _Count : 1);

  00000	83 c8 ff	 or	 eax, -1

; 220  : 		}

  00003	c3		 ret	 0
?max_size@?$allocator@D@std@@QBEIXZ ENDP		; std::allocator<char>::max_size
_TEXT	ENDS
PUBLIC	??$_Allocate@D@std@@YAPADIPAD@Z			; std::_Allocate<char>
; Function compile flags: /Ogsp
;	COMDAT ??$_Allocate@D@std@@YAPADIPAD@Z
_TEXT	SEGMENT
$T556889 = -12						; size = 12
$T556893 = 8						; size = 4
__Count$ = 8						; size = 4
___formal$ = 12						; size = 4
??$_Allocate@D@std@@YAPADIPAD@Z PROC			; std::_Allocate<char>, COMDAT

; 30   : 	{	// allocate storage for _Count elements of type _Ty

  00000	55		 push	 ebp
  00001	8b ec		 mov	 ebp, esp

; 31   : 	void *_Ptr = 0;

  00003	33 c0		 xor	 eax, eax
  00005	83 ec 0c	 sub	 esp, 12			; 0000000cH

; 32   : 
; 33   : 	if (_Count <= 0)

  00008	39 45 08	 cmp	 DWORD PTR __Count$[ebp], eax

; 34   : 		_Count = 0;
; 35   : 	else if (((_SIZT)(-1) / sizeof (_Ty) < _Count)

  0000b	76 39		 jbe	 SHORT $LN5@Allocate@3

; 36   : 		|| (_Ptr = ::operator new(_Count * sizeof (_Ty))) == 0)

  0000d	83 7d 08 ff	 cmp	 DWORD PTR __Count$[ebp], -1
  00011	77 0d		 ja	 SHORT $LN1@Allocate@3
  00013	ff 75 08	 push	 DWORD PTR __Count$[ebp]
  00016	e8 00 00 00 00	 call	 ??2@YAPAXI@Z		; operator new
  0001b	59		 pop	 ecx
  0001c	85 c0		 test	 eax, eax

; 38   : 
; 39   : 	return ((_Ty _FARQ *)_Ptr);

  0001e	75 26		 jne	 SHORT $LN5@Allocate@3
$LN1@Allocate@3:

; 37   : 		_THROW_NCEE(bad_alloc, 0);

  00020	83 65 08 00	 and	 DWORD PTR $T556893[ebp], 0
  00024	8d 45 08	 lea	 eax, DWORD PTR $T556893[ebp]
  00027	50		 push	 eax
  00028	8d 4d f4	 lea	 ecx, DWORD PTR $T556889[ebp]
  0002b	ff 15 00 00 00
	00		 call	 DWORD PTR __imp_??0exception@std@@QAE@ABQBD@Z
  00031	68 00 00 00 00	 push	 OFFSET __TI2?AVbad_alloc@std@@
  00036	8d 45 f4	 lea	 eax, DWORD PTR $T556889[ebp]
  00039	50		 push	 eax
  0003a	c7 45 f4 00 00
	00 00		 mov	 DWORD PTR $T556889[ebp], OFFSET ??_7bad_alloc@std@@6B@
  00041	e8 00 00 00 00	 call	 __CxxThrowException@8
$LN10@Allocate@3:
$LN5@Allocate@3:

; 40   : 	}

  00046	c9		 leave
  00047	c3		 ret	 0
$LN9@Allocate@3:
??$_Allocate@D@std@@YAPADIPAD@Z ENDP			; std::_Allocate<char>
_TEXT	ENDS
EXTRN	__imp_??0exception@std@@QAE@ABV01@@Z:PROC
; Function compile flags: /Ogsp
;	COMDAT ??0bad_alloc@std@@QAE@ABV01@@Z
_TEXT	SEGMENT
___that$ = 8						; size = 4
??0bad_alloc@std@@QAE@ABV01@@Z PROC			; std::bad_alloc::bad_alloc, COMDAT
; _this$ = ecx
  00000	55		 push	 ebp
  00001	8b ec		 mov	 ebp, esp
  00003	56		 push	 esi
  00004	ff 75 08	 push	 DWORD PTR ___that$[ebp]
  00007	8b f1		 mov	 esi, ecx
  00009	ff 15 00 00 00
	00		 call	 DWORD PTR __imp_??0exception@std@@QAE@ABV01@@Z
  0000f	c7 06 00 00 00
	00		 mov	 DWORD PTR [esi], OFFSET ??_7bad_alloc@std@@6B@
  00015	8b c6		 mov	 eax, esi
  00017	5e		 pop	 esi
  00018	5d		 pop	 ebp
  00019	c2 04 00	 ret	 4
??0bad_alloc@std@@QAE@ABV01@@Z ENDP			; std::bad_alloc::bad_alloc
_TEXT	ENDS
PUBLIC	??_7ioFireSkill2@@6B@				; ioFireSkill2::`vftable'
PUBLIC	??1ioFireSkill2@@UAE@XZ				; ioFireSkill2::~ioFireSkill2
PUBLIC	??_R4ioFireSkill2@@6B@				; ioFireSkill2::`RTTI Complete Object Locator'
PUBLIC	??_R0?AVioFireSkill2@@@8			; ioFireSkill2 `RTTI Type Descriptor'
PUBLIC	??_R3ioFireSkill2@@8				; ioFireSkill2::`RTTI Class Hierarchy Descriptor'
PUBLIC	??_R2ioFireSkill2@@8				; ioFireSkill2::`RTTI Base Class Array'
PUBLIC	??_R1A@?0A@EA@ioFireSkill2@@8			; ioFireSkill2::`RTTI Base Class Descriptor at (0,-1,0,64)'
PUBLIC	??_R1A@?0A@EA@ioAttackSkill@@8			; ioAttackSkill::`RTTI Base Class Descriptor at (0,-1,0,64)'
PUBLIC	??_R0?AVioAttackSkill@@@8			; ioAttackSkill `RTTI Type Descriptor'
PUBLIC	??_R3ioAttackSkill@@8				; ioAttackSkill::`RTTI Class Hierarchy Descriptor'
PUBLIC	??_R2ioAttackSkill@@8				; ioAttackSkill::`RTTI Base Class Array'
PUBLIC	??_R1A@?0A@EA@ioSkill@@8			; ioSkill::`RTTI Base Class Descriptor at (0,-1,0,64)'
PUBLIC	??_R0?AVioSkill@@@8				; ioSkill `RTTI Type Descriptor'
PUBLIC	??_R3ioSkill@@8					; ioSkill::`RTTI Class Hierarchy Descriptor'
PUBLIC	??_R2ioSkill@@8					; ioSkill::`RTTI Base Class Array'
PUBLIC	?LoadProperty@ioFireSkill2@@UAEXAAVioINILoader@@@Z ; ioFireSkill2::LoadProperty
PUBLIC	?Clone@ioFireSkill2@@UAEPAVioSkill@@XZ		; ioFireSkill2::Clone
PUBLIC	?IsProtected@ioFireSkill2@@UBE_NH@Z		; ioFireSkill2::IsProtected
PUBLIC	?GetDefenseSkillBreakeType@ioSkill@@UBE?AW4DefenseBreakType@@XZ ; ioSkill::GetDefenseSkillBreakeType
PUBLIC	?IsSkillMotionEnd@ioFireSkill2@@UBE_NKPAVioBaseChar@@@Z ; ioFireSkill2::IsSkillMotionEnd
PUBLIC	?GetSkillEndNextJumpAmt@ioSkill@@UBEMXZ		; ioSkill::GetSkillEndNextJumpAmt
PUBLIC	?GetSkillEndNextLandRate@ioSkill@@UBEMXZ	; ioSkill::GetSkillEndNextLandRate
PUBLIC	?GetSkillEndNextJumpMustEnable@ioSkill@@UAE?AW4SkillEndJumpType@@XZ ; ioSkill::GetSkillEndNextJumpMustEnable
PUBLIC	?EnableChangeGrapplingTargetPos@ioSkill@@UBE_NXZ ; ioSkill::EnableChangeGrapplingTargetPos
PUBLIC	?OnSkillStart@ioFireSkill2@@UAE_NPAVioBaseChar@@@Z ; ioFireSkill2::OnSkillStart
PUBLIC	?OnProcessState@ioFireSkill2@@UAEXPAVioBaseChar@@PAVioPlayStage@@@Z ; ioFireSkill2::OnProcessState
PUBLIC	?OnSkillEnd@ioFireSkill2@@UAEXPAVioBaseChar@@@Z	; ioFireSkill2::OnSkillEnd
PUBLIC	?ApplyAttributeToWeapon@ioFireSkill2@@UAEXPAVioWeapon@@PAVioPlayStage@@@Z ; ioFireSkill2::ApplyAttributeToWeapon
PUBLIC	?ApplyExtraSkillInfo@ioFireSkill2@@UAEXPAVioBaseChar@@PAVioPlayStage@@AAVSP2Packet@@@Z ; ioFireSkill2::ApplyExtraSkillInfo
PUBLIC	?IsInvisibleBottomCircle@ioSkill@@UAE_NPAVioBaseChar@@@Z ; ioSkill::IsInvisibleBottomCircle
PUBLIC	?IsCanJumpingSkill@ioSkill@@UBE_NXZ		; ioSkill::IsCanJumpingSkill
PUBLIC	?IsCanJumpingSkillOnBlowWound@ioSkill@@UBE_NXZ	; ioSkill::IsCanJumpingSkillOnBlowWound
PUBLIC	?IsCanDownSkill@ioSkill@@UBE_NXZ		; ioSkill::IsCanDownSkill
PUBLIC	?IsCanBlowWoundSkill@ioSkill@@UBE_NXZ		; ioSkill::IsCanBlowWoundSkill
PUBLIC	?IsCanWoundSkill@ioSkill@@UBE_NXZ		; ioSkill::IsCanWoundSkill
PUBLIC	?IsUseActiveCnt@ioSkill@@UBE_NXZ		; ioSkill::IsUseActiveCnt
PUBLIC	?GetMaxActiveCnt@ioSkill@@UBEHPAVioBaseChar@@@Z	; ioSkill::GetMaxActiveCnt
PUBLIC	?GetCurActiveCnt@ioSkill@@UBEHPAVioBaseChar@@@Z	; ioSkill::GetCurActiveCnt
PUBLIC	?AttackSkillFire@ioFireSkill2@@MAEXPAVioBaseChar@@@Z ; ioFireSkill2::AttackSkillFire
EXTRN	??1ioAttackSkill@@UAE@XZ:PROC			; ioAttackSkill::~ioAttackSkill
EXTRN	___CxxFrameHandler3:PROC
EXTRN	@__security_check_cookie@4:PROC
EXTRN	__EH_epilog3:PROC
EXTRN	__EH_prolog3:PROC
EXTRN	?GetTypeID@ioAttackSkill@@UBEHXZ:PROC		; ioAttackSkill::GetTypeID
EXTRN	?IsCanSwitchSkill@ioSkill@@UBE_NXZ:PROC		; ioSkill::IsCanSwitchSkill
EXTRN	?IsCanSemiSwitchSkill@ioSkill@@UBE_NXZ:PROC	; ioSkill::IsCanSemiSwitchSkill
EXTRN	?IsCanCancelBySkill@ioSkill@@UBE_NPAVioBaseChar@@AAH@Z:PROC ; ioSkill::IsCanCancelBySkill
EXTRN	?IsCanUseZeroHP@ioSkill@@UBE_NPAVioBaseChar@@@Z:PROC ; ioSkill::IsCanUseZeroHP
EXTRN	?IsCanUseSkillWithCrown@ioSkill@@UAE_NPAVioBaseChar@@@Z:PROC ; ioSkill::IsCanUseSkillWithCrown
EXTRN	?IsCanUseBoss@ioSkill@@UBE_NPAVioBaseChar@@@Z:PROC ; ioSkill::IsCanUseBoss
EXTRN	?IsCanUseFootball@ioSkill@@UBE_NXZ:PROC		; ioSkill::IsCanUseFootball
EXTRN	?IsCanUseGangSiMode@ioSkill@@UBE_NXZ:PROC	; ioSkill::IsCanUseGangSiMode
EXTRN	?IsCanUseByWeaponType@ioSkill@@UBE_NPAVioBaseChar@@@Z:PROC ; ioSkill::IsCanUseByWeaponType
EXTRN	?IsCanUseThunderBirdHold@ioSkill@@UBE_NPAVioBaseChar@@@Z:PROC ; ioSkill::IsCanUseThunderBirdHold
EXTRN	?IsCanUseLimitHP@ioSkill@@UBE_NPAVioBaseChar@@@Z:PROC ; ioSkill::IsCanUseLimitHP
EXTRN	?IsCanUseSkill@ioAttackSkill@@UAE_NPAVioBaseChar@@_N@Z:PROC ; ioAttackSkill::IsCanUseSkill
EXTRN	?IsOnOffEnable@ioSkill@@UAE_NXZ:PROC		; ioSkill::IsOnOffEnable
EXTRN	?IsCanDefenseStateSkill@ioSkill@@UAE_NXZ:PROC	; ioSkill::IsCanDefenseStateSkill
EXTRN	?SetDefenseStateSkill@ioSkill@@UAEXPAVioBaseChar@@@Z:PROC ; ioSkill::SetDefenseStateSkill
EXTRN	?HasBuff@ioSkill@@UBE_NH@Z:PROC			; ioSkill::HasBuff
EXTRN	?GetBuffType@ioSkill@@UAEHH@Z:PROC		; ioSkill::GetBuffType
EXTRN	?IsEnableReserve@ioSkill@@UBE_NXZ:PROC		; ioSkill::IsEnableReserve
EXTRN	?IsCharSkipState@ioSkill@@UBE?AW4SkillCharColType@@XZ:PROC ; ioSkill::IsCharSkipState
EXTRN	?IsEntityCollisionSkipState@ioSkill@@UBE_NXZ:PROC ; ioSkill::IsEntityCollisionSkipState
EXTRN	?IsEndState@ioSkill@@UBE_NXZ:PROC		; ioSkill::IsEndState
EXTRN	?IsAttackEndState@ioAttackSkill@@UBE_NXZ:PROC	; ioAttackSkill::IsAttackEndState
EXTRN	?IsJumpState@ioSkill@@UBE_NXZ:PROC		; ioSkill::IsJumpState
EXTRN	?IsDownState@ioSkill@@UBE_NXZ:PROC		; ioSkill::IsDownState
EXTRN	?IsNoDropState@ioSkill@@UBE_NXZ:PROC		; ioSkill::IsNoDropState
EXTRN	?IsCanSendControl@ioSkill@@UBE_NXZ:PROC		; ioSkill::IsCanSendControl
EXTRN	?IsSkipState@ioSkill@@UBE_NXZ:PROC		; ioSkill::IsSkipState
EXTRN	?GetSkillMoveRate@ioSkill@@UBEMXZ:PROC		; ioSkill::GetSkillMoveRate
EXTRN	?SetSkillGrapplingState@ioSkill@@UAE_NPAVioBaseChar@@ABVioHashString@@@Z:PROC ; ioSkill::SetSkillGrapplingState
EXTRN	?GetGrapplingTargetPos@ioSkill@@UAE?AUD3DXVECTOR3@@PAVioBaseChar@@0@Z:PROC ; ioSkill::GetGrapplingTargetPos
EXTRN	?GetGrapplingTargetPos@ioSkill@@UAE?AUD3DXVECTOR3@@PAVioBaseChar@@@Z:PROC ; ioSkill::GetGrapplingTargetPos
EXTRN	?GetSkillWoundGrapplingInfo@ioSkill@@UAE?AUGrapplingSkillWoundedInfo@@XZ:PROC ; ioSkill::GetSkillWoundGrapplingInfo
EXTRN	?SetCreateWeaponDependency@ioSkill@@UAEXPAVioBaseChar@@PAVioPlayStage@@@Z:PROC ; ioSkill::SetCreateWeaponDependency
EXTRN	?SetNextSkillState@ioSkill@@UAEXPAVioBaseChar@@PAVioWeapon@@@Z:PROC ; ioSkill::SetNextSkillState
EXTRN	?OnSkillEndByWounded@ioSkill@@UAEXPAVioBaseChar@@@Z:PROC ; ioSkill::OnSkillEndByWounded
EXTRN	?OnProcessNotUseSkill@ioSkill@@UAEXPAVioBaseChar@@PAVioPlayStage@@@Z:PROC ; ioSkill::OnProcessNotUseSkill
EXTRN	?OnSkillItemRelease@ioSkill@@UAEXPAVioBaseChar@@@Z:PROC ; ioSkill::OnSkillItemRelease
EXTRN	?ApplyEquipSlotSkillExtraInfo@ioSkill@@UAEXPAVioBaseChar@@PAVioPlayStage@@AAVSP2Packet@@@Z:PROC ; ioSkill::ApplyEquipSlotSkillExtraInfo
EXTRN	?ApplyExtraPassiveSkillInfo@ioSkill@@UAEXPAVioBaseChar@@PAVioPlayStage@@AAVSP2Packet@@@Z:PROC ; ioSkill::ApplyExtraPassiveSkillInfo
EXTRN	?StartPreDelayEffect@ioAttackSkill@@UAEXPAVioBaseChar@@@Z:PROC ; ioAttackSkill::StartPreDelayEffect
EXTRN	?EndPreDelayEffect@ioAttackSkill@@UAEXPAVioBaseChar@@@Z:PROC ; ioAttackSkill::EndPreDelayEffect
EXTRN	?IsUseAutoTargetValue@ioAttackSkill@@UAE_NXZ:PROC ; ioAttackSkill::IsUseAutoTargetValue
EXTRN	?IsAutoTargetDownState@ioSkill@@UAE_NXZ:PROC	; ioSkill::IsAutoTargetDownState
EXTRN	?CheckUseBuff@ioSkill@@UAE_NPAVioBaseChar@@@Z:PROC ; ioSkill::CheckUseBuff
EXTRN	?CheckUseActiveCount@ioSkill@@UAE_NXZ:PROC	; ioSkill::CheckUseActiveCount
EXTRN	?CheckAniRotate@ioSkill@@UAEXPAVioBaseChar@@@Z:PROC ; ioSkill::CheckAniRotate
EXTRN	?IsEnableDashCheck@ioSkill@@UAE_NPAVioBaseChar@@@Z:PROC ; ioSkill::IsEnableDashCheck
EXTRN	?IsEnableMultiActive@ioSkill@@UAE_NPAVioBaseChar@@@Z:PROC ; ioSkill::IsEnableMultiActive
EXTRN	?GetAutoTargetValue@ioSkill@@UAEXAAM00@Z:PROC	; ioSkill::GetAutoTargetValue
EXTRN	?GetSkillGravityRate@ioSkill@@UAEMXZ:PROC	; ioSkill::GetSkillGravityRate
EXTRN	?GetSkillMotionName@ioSkill@@UBEABVioHashString@@XZ:PROC ; ioSkill::GetSkillMotionName
EXTRN	?HasSkillMotion@ioSkill@@UBE_NXZ:PROC		; ioSkill::HasSkillMotion
EXTRN	?GetSkillMotionRate@ioSkill@@UBEMXZ:PROC	; ioSkill::GetSkillMotionRate
EXTRN	?IsPreDelayProtect@ioSkill@@UBE_NXZ:PROC	; ioSkill::IsPreDelayProtect
EXTRN	?GetPreDelayAniName@ioSkill@@UBEABVioHashString@@XZ:PROC ; ioSkill::GetPreDelayAniName
EXTRN	?GetPreDelayTime@ioSkill@@UBEKXZ:PROC		; ioSkill::GetPreDelayTime
EXTRN	?GetPreDelayOwnerEffect@ioSkill@@UBEABVioHashString@@XZ:PROC ; ioSkill::GetPreDelayOwnerEffect
EXTRN	?GetPreDelayOtherEffect@ioSkill@@UBEABVioHashString@@XZ:PROC ; ioSkill::GetPreDelayOtherEffect
EXTRN	?SetCancelSkill@ioSkill@@UAEXPAVioBaseChar@@@Z:PROC ; ioSkill::SetCancelSkill
EXTRN	?ClearAirJump@ioSkill@@MAEXXZ:PROC		; ioSkill::ClearAirJump
EXTRN	?SetAirJump@ioSkill@@MAEXPAVioBaseChar@@HM@Z:PROC ; ioSkill::SetAirJump
EXTRN	?CheckAirJump@ioSkill@@MAEXPAVioBaseChar@@@Z:PROC ; ioSkill::CheckAirJump
EXTRN	?UseActiveCount@ioSkill@@UAE_NPAVioBaseChar@@@Z:PROC ; ioSkill::UseActiveCount
EXTRN	?GetMaxActiveCount@ioSkill@@UAEHPAVioBaseChar@@@Z:PROC ; ioSkill::GetMaxActiveCount
EXTRN	?GetCurActiveCount@ioSkill@@UAEHPAVioBaseChar@@@Z:PROC ; ioSkill::GetCurActiveCount
EXTRN	?HideHPGauge@ioSkill@@UAE_NXZ:PROC		; ioSkill::HideHPGauge
EXTRN	?SetInfoByApplyWeapon@ioSkill@@UAEXPAVioBaseChar@@0K_N@Z:PROC ; ioSkill::SetInfoByApplyWeapon
EXTRN	?SetCollisionByApplySkill@ioSkill@@UAEXXZ:PROC	; ioSkill::SetCollisionByApplySkill
EXTRN	?SetChargingRateForWeapon@ioSkill@@UAEXPAVioWeapon@@@Z:PROC ; ioSkill::SetChargingRateForWeapon
EXTRN	?CheckExceptionCamera@ioSkill@@UAE_NXZ:PROC	; ioSkill::CheckExceptionCamera
EXTRN	?GetExceptionCameraPos@ioSkill@@UAE?AUD3DXVECTOR3@@PAVioBaseChar@@@Z:PROC ; ioSkill::GetExceptionCameraPos
EXTRN	?IsFixedExceptionCamera@ioSkill@@UAE_NXZ:PROC	; ioSkill::IsFixedExceptionCamera
EXTRN	??_EioFireSkill2@@UAEPAXI@Z:PROC		; ioFireSkill2::`vector deleting destructor'
EXTRN	?StartPreDelayAnimation@ioAttackSkill@@MAE_NPAVioBaseChar@@@Z:PROC ; ioAttackSkill::StartPreDelayAnimation
EXTRN	?GetAttackTimeRate@ioAttackSkill@@MBEMXZ:PROC	; ioAttackSkill::GetAttackTimeRate
EXTRN	?GetAttackEndTimeRate@ioAttackSkill@@MBEMXZ:PROC ; ioAttackSkill::GetAttackEndTimeRate
EXTRN	?LoadNormalAttribute@ioAttackSkill@@MAEXAAVioINILoader@@@Z:PROC ; ioAttackSkill::LoadNormalAttribute
EXTRN	?LoadDownAttribute@ioAttackSkill@@MAEXAAVioINILoader@@@Z:PROC ; ioAttackSkill::LoadDownAttribute
EXTRN	?LoadJumpAttribute@ioAttackSkill@@MAEXAAVioINILoader@@@Z:PROC ; ioAttackSkill::LoadJumpAttribute
EXTRN	?GetAttribute@ioAttackSkill@@UAEAAUAttackAttribute@@XZ:PROC ; ioAttackSkill::GetAttribute
EXTRN	?GetAttributeConst@ioAttackSkill@@UBEABUAttackAttribute@@XZ:PROC ; ioAttackSkill::GetAttributeConst
EXTRN	?IsCanStateEscape@ioAttackSkill@@UBE_NXZ:PROC	; ioAttackSkill::IsCanStateEscape
EXTRN	?IsCanStateEscapeOnStand@ioAttackSkill@@UBE_NPAVioBaseChar@@@Z:PROC ; ioAttackSkill::IsCanStateEscapeOnStand
EXTRN	?IsCanStateEscapeOnAir@ioAttackSkill@@UBE_NPAVioBaseChar@@@Z:PROC ; ioAttackSkill::IsCanStateEscapeOnAir
EXTRN	?IsCanStateEscapeOnDown@ioAttackSkill@@UBE_NPAVioBaseChar@@@Z:PROC ; ioAttackSkill::IsCanStateEscapeOnDown
;	COMDAT ??_R2ioSkill@@8
; File d:\lost saga for developer\youtube\tutorial\source\src\lsclient\encryptvalue.h
rdata$r	SEGMENT
??_R2ioSkill@@8 DD FLAT:??_R1A@?0A@EA@ioSkill@@8	; ioSkill::`RTTI Base Class Array'
rdata$r	ENDS
;	COMDAT ??_R3ioSkill@@8
rdata$r	SEGMENT
??_R3ioSkill@@8 DD 00H					; ioSkill::`RTTI Class Hierarchy Descriptor'
	DD	00H
	DD	01H
	DD	FLAT:??_R2ioSkill@@8
rdata$r	ENDS
;	COMDAT ??_R0?AVioSkill@@@8
_DATA	SEGMENT
??_R0?AVioSkill@@@8 DD FLAT:??_7type_info@@6B@		; ioSkill `RTTI Type Descriptor'
	DD	00H
	DB	'.?AVioSkill@@', 00H
_DATA	ENDS
;	COMDAT ??_R1A@?0A@EA@ioSkill@@8
rdata$r	SEGMENT
??_R1A@?0A@EA@ioSkill@@8 DD FLAT:??_R0?AVioSkill@@@8	; ioSkill::`RTTI Base Class Descriptor at (0,-1,0,64)'
	DD	00H
	DD	00H
	DD	0ffffffffH
	DD	00H
	DD	040H
	DD	FLAT:??_R3ioSkill@@8
rdata$r	ENDS
;	COMDAT ??_R2ioAttackSkill@@8
rdata$r	SEGMENT
??_R2ioAttackSkill@@8 DD FLAT:??_R1A@?0A@EA@ioAttackSkill@@8 ; ioAttackSkill::`RTTI Base Class Array'
	DD	FLAT:??_R1A@?0A@EA@ioSkill@@8
rdata$r	ENDS
;	COMDAT ??_R3ioAttackSkill@@8
rdata$r	SEGMENT
??_R3ioAttackSkill@@8 DD 00H				; ioAttackSkill::`RTTI Class Hierarchy Descriptor'
	DD	00H
	DD	02H
	DD	FLAT:??_R2ioAttackSkill@@8
rdata$r	ENDS
;	COMDAT ??_R0?AVioAttackSkill@@@8
_DATA	SEGMENT
??_R0?AVioAttackSkill@@@8 DD FLAT:??_7type_info@@6B@	; ioAttackSkill `RTTI Type Descriptor'
	DD	00H
	DB	'.?AVioAttackSkill@@', 00H
_DATA	ENDS
;	COMDAT ??_R1A@?0A@EA@ioAttackSkill@@8
rdata$r	SEGMENT
??_R1A@?0A@EA@ioAttackSkill@@8 DD FLAT:??_R0?AVioAttackSkill@@@8 ; ioAttackSkill::`RTTI Base Class Descriptor at (0,-1,0,64)'
	DD	01H
	DD	00H
	DD	0ffffffffH
	DD	00H
	DD	040H
	DD	FLAT:??_R3ioAttackSkill@@8
rdata$r	ENDS
;	COMDAT ??_R1A@?0A@EA@ioFireSkill2@@8
rdata$r	SEGMENT
??_R1A@?0A@EA@ioFireSkill2@@8 DD FLAT:??_R0?AVioFireSkill2@@@8 ; ioFireSkill2::`RTTI Base Class Descriptor at (0,-1,0,64)'
	DD	02H
	DD	00H
	DD	0ffffffffH
	DD	00H
	DD	040H
	DD	FLAT:??_R3ioFireSkill2@@8
rdata$r	ENDS
;	COMDAT ??_R2ioFireSkill2@@8
rdata$r	SEGMENT
??_R2ioFireSkill2@@8 DD FLAT:??_R1A@?0A@EA@ioFireSkill2@@8 ; ioFireSkill2::`RTTI Base Class Array'
	DD	FLAT:??_R1A@?0A@EA@ioAttackSkill@@8
	DD	FLAT:??_R1A@?0A@EA@ioSkill@@8
rdata$r	ENDS
;	COMDAT ??_R3ioFireSkill2@@8
rdata$r	SEGMENT
??_R3ioFireSkill2@@8 DD 00H				; ioFireSkill2::`RTTI Class Hierarchy Descriptor'
	DD	00H
	DD	03H
	DD	FLAT:??_R2ioFireSkill2@@8
rdata$r	ENDS
;	COMDAT ??_R0?AVioFireSkill2@@@8
_DATA	SEGMENT
??_R0?AVioFireSkill2@@@8 DD FLAT:??_7type_info@@6B@	; ioFireSkill2 `RTTI Type Descriptor'
	DD	00H
	DB	'.?AVioFireSkill2@@', 00H
_DATA	ENDS
;	COMDAT ??_R4ioFireSkill2@@6B@
rdata$r	SEGMENT
??_R4ioFireSkill2@@6B@ DD 00H				; ioFireSkill2::`RTTI Complete Object Locator'
	DD	00H
	DD	00H
	DD	FLAT:??_R0?AVioFireSkill2@@@8
	DD	FLAT:??_R3ioFireSkill2@@8
rdata$r	ENDS
;	COMDAT ??_7ioFireSkill2@@6B@
CONST	SEGMENT
??_7ioFireSkill2@@6B@ DD FLAT:??_R4ioFireSkill2@@6B@	; ioFireSkill2::`vftable'
	DD	FLAT:?LoadProperty@ioFireSkill2@@UAEXAAVioINILoader@@@Z
	DD	FLAT:?Clone@ioFireSkill2@@UAEPAVioSkill@@XZ
	DD	FLAT:?GetTypeID@ioAttackSkill@@UBEHXZ
	DD	FLAT:?IsProtected@ioFireSkill2@@UBE_NH@Z
	DD	FLAT:?IsCanSwitchSkill@ioSkill@@UBE_NXZ
	DD	FLAT:?IsCanSemiSwitchSkill@ioSkill@@UBE_NXZ
	DD	FLAT:?IsCanCancelBySkill@ioSkill@@UBE_NPAVioBaseChar@@AAH@Z
	DD	FLAT:?IsCanUseZeroHP@ioSkill@@UBE_NPAVioBaseChar@@@Z
	DD	FLAT:?IsCanUseSkillWithCrown@ioSkill@@UAE_NPAVioBaseChar@@@Z
	DD	FLAT:?IsCanUseBoss@ioSkill@@UBE_NPAVioBaseChar@@@Z
	DD	FLAT:?IsCanUseFootball@ioSkill@@UBE_NXZ
	DD	FLAT:?IsCanUseGangSiMode@ioSkill@@UBE_NXZ
	DD	FLAT:?IsCanUseByWeaponType@ioSkill@@UBE_NPAVioBaseChar@@@Z
	DD	FLAT:?IsCanUseThunderBirdHold@ioSkill@@UBE_NPAVioBaseChar@@@Z
	DD	FLAT:?IsCanUseLimitHP@ioSkill@@UBE_NPAVioBaseChar@@@Z
	DD	FLAT:?IsCanUseSkill@ioAttackSkill@@UAE_NPAVioBaseChar@@_N@Z
	DD	FLAT:?IsOnOffEnable@ioSkill@@UAE_NXZ
	DD	FLAT:?IsCanDefenseStateSkill@ioSkill@@UAE_NXZ
	DD	FLAT:?SetDefenseStateSkill@ioSkill@@UAEXPAVioBaseChar@@@Z
	DD	FLAT:?GetDefenseSkillBreakeType@ioSkill@@UBE?AW4DefenseBreakType@@XZ
	DD	FLAT:?HasBuff@ioSkill@@UBE_NH@Z
	DD	FLAT:?GetBuffType@ioSkill@@UAEHH@Z
	DD	FLAT:?IsEnableReserve@ioSkill@@UBE_NXZ
	DD	FLAT:?IsSkillMotionEnd@ioFireSkill2@@UBE_NKPAVioBaseChar@@@Z
	DD	FLAT:?IsCharSkipState@ioSkill@@UBE?AW4SkillCharColType@@XZ
	DD	FLAT:?IsEntityCollisionSkipState@ioSkill@@UBE_NXZ
	DD	FLAT:?GetSkillEndNextJumpAmt@ioSkill@@UBEMXZ
	DD	FLAT:?GetSkillEndNextLandRate@ioSkill@@UBEMXZ
	DD	FLAT:?GetSkillEndNextJumpMustEnable@ioSkill@@UAE?AW4SkillEndJumpType@@XZ
	DD	FLAT:?IsEndState@ioSkill@@UBE_NXZ
	DD	FLAT:?IsAttackEndState@ioAttackSkill@@UBE_NXZ
	DD	FLAT:?IsJumpState@ioSkill@@UBE_NXZ
	DD	FLAT:?IsDownState@ioSkill@@UBE_NXZ
	DD	FLAT:?IsNoDropState@ioSkill@@UBE_NXZ
	DD	FLAT:?IsCanSendControl@ioSkill@@UBE_NXZ
	DD	FLAT:?IsSkipState@ioSkill@@UBE_NXZ
	DD	FLAT:?GetSkillMoveRate@ioSkill@@UBEMXZ
	DD	FLAT:?SetSkillGrapplingState@ioSkill@@UAE_NPAVioBaseChar@@ABVioHashString@@@Z
	DD	FLAT:?GetGrapplingTargetPos@ioSkill@@UAE?AUD3DXVECTOR3@@PAVioBaseChar@@0@Z
	DD	FLAT:?GetGrapplingTargetPos@ioSkill@@UAE?AUD3DXVECTOR3@@PAVioBaseChar@@@Z
	DD	FLAT:?EnableChangeGrapplingTargetPos@ioSkill@@UBE_NXZ
	DD	FLAT:?GetSkillWoundGrapplingInfo@ioSkill@@UAE?AUGrapplingSkillWoundedInfo@@XZ
	DD	FLAT:?SetCreateWeaponDependency@ioSkill@@UAEXPAVioBaseChar@@PAVioPlayStage@@@Z
	DD	FLAT:?SetNextSkillState@ioSkill@@UAEXPAVioBaseChar@@PAVioWeapon@@@Z
	DD	FLAT:?OnSkillStart@ioFireSkill2@@UAE_NPAVioBaseChar@@@Z
	DD	FLAT:?OnProcessState@ioFireSkill2@@UAEXPAVioBaseChar@@PAVioPlayStage@@@Z
	DD	FLAT:?OnSkillEndByWounded@ioSkill@@UAEXPAVioBaseChar@@@Z
	DD	FLAT:?OnSkillEnd@ioFireSkill2@@UAEXPAVioBaseChar@@@Z
	DD	FLAT:?OnProcessNotUseSkill@ioSkill@@UAEXPAVioBaseChar@@PAVioPlayStage@@@Z
	DD	FLAT:?OnSkillItemRelease@ioSkill@@UAEXPAVioBaseChar@@@Z
	DD	FLAT:?ApplyAttributeToWeapon@ioFireSkill2@@UAEXPAVioWeapon@@PAVioPlayStage@@@Z
	DD	FLAT:?ApplyExtraSkillInfo@ioFireSkill2@@UAEXPAVioBaseChar@@PAVioPlayStage@@AAVSP2Packet@@@Z
	DD	FLAT:?ApplyEquipSlotSkillExtraInfo@ioSkill@@UAEXPAVioBaseChar@@PAVioPlayStage@@AAVSP2Packet@@@Z
	DD	FLAT:?ApplyExtraPassiveSkillInfo@ioSkill@@UAEXPAVioBaseChar@@PAVioPlayStage@@AAVSP2Packet@@@Z
	DD	FLAT:?StartPreDelayEffect@ioAttackSkill@@UAEXPAVioBaseChar@@@Z
	DD	FLAT:?EndPreDelayEffect@ioAttackSkill@@UAEXPAVioBaseChar@@@Z
	DD	FLAT:?IsUseAutoTargetValue@ioAttackSkill@@UAE_NXZ
	DD	FLAT:?IsAutoTargetDownState@ioSkill@@UAE_NXZ
	DD	FLAT:?CheckUseBuff@ioSkill@@UAE_NPAVioBaseChar@@@Z
	DD	FLAT:?CheckUseItemMesh@ioFireSkill2@@UAE_NXZ
	DD	FLAT:?CheckUseActiveCount@ioSkill@@UAE_NXZ
	DD	FLAT:?CheckAniRotate@ioSkill@@UAEXPAVioBaseChar@@@Z
	DD	FLAT:?IsEnableDashCheck@ioSkill@@UAE_NPAVioBaseChar@@@Z
	DD	FLAT:?IsEnableMultiActive@ioSkill@@UAE_NPAVioBaseChar@@@Z
	DD	FLAT:?IsInvisibleBottomCircle@ioSkill@@UAE_NPAVioBaseChar@@@Z
	DD	FLAT:?GetAutoTargetValue@ioSkill@@UAEXAAM00@Z
	DD	FLAT:?IsCanJumpingSkill@ioSkill@@UBE_NXZ
	DD	FLAT:?IsCanJumpingSkillOnBlowWound@ioSkill@@UBE_NXZ
	DD	FLAT:?IsCanDownSkill@ioSkill@@UBE_NXZ
	DD	FLAT:?IsCanBlowWoundSkill@ioSkill@@UBE_NXZ
	DD	FLAT:?IsCanWoundSkill@ioSkill@@UBE_NXZ
	DD	FLAT:?GetSkillGravityRate@ioSkill@@UAEMXZ
	DD	FLAT:?GetSkillMotionName@ioSkill@@UBEABVioHashString@@XZ
	DD	FLAT:?HasSkillMotion@ioSkill@@UBE_NXZ
	DD	FLAT:?GetSkillMotionRate@ioSkill@@UBEMXZ
	DD	FLAT:?IsPreDelayProtect@ioSkill@@UBE_NXZ
	DD	FLAT:?GetPreDelayAniName@ioSkill@@UBEABVioHashString@@XZ
	DD	FLAT:?GetPreDelayTime@ioSkill@@UBEKXZ
	DD	FLAT:?GetPreDelayOwnerEffect@ioSkill@@UBEABVioHashString@@XZ
	DD	FLAT:?GetPreDelayOtherEffect@ioSkill@@UBEABVioHashString@@XZ
	DD	FLAT:?SetCancelSkill@ioSkill@@UAEXPAVioBaseChar@@@Z
	DD	FLAT:?ClearAirJump@ioSkill@@MAEXXZ
	DD	FLAT:?SetAirJump@ioSkill@@MAEXPAVioBaseChar@@HM@Z
	DD	FLAT:?CheckAirJump@ioSkill@@MAEXPAVioBaseChar@@@Z
	DD	FLAT:?UseActiveCount@ioSkill@@UAE_NPAVioBaseChar@@@Z
	DD	FLAT:?GetMaxActiveCount@ioSkill@@UAEHPAVioBaseChar@@@Z
	DD	FLAT:?GetCurActiveCount@ioSkill@@UAEHPAVioBaseChar@@@Z
	DD	FLAT:?HideHPGauge@ioSkill@@UAE_NXZ
	DD	FLAT:?SetInfoByApplyWeapon@ioSkill@@UAEXPAVioBaseChar@@0K_N@Z
	DD	FLAT:?SetCollisionByApplySkill@ioSkill@@UAEXXZ
	DD	FLAT:?SetChargingRateForWeapon@ioSkill@@UAEXPAVioWeapon@@@Z
	DD	FLAT:?CheckExceptionCamera@ioSkill@@UAE_NXZ
	DD	FLAT:?GetExceptionCameraPos@ioSkill@@UAE?AUD3DXVECTOR3@@PAVioBaseChar@@@Z
	DD	FLAT:?IsFixedExceptionCamera@ioSkill@@UAE_NXZ
	DD	FLAT:?IsUseActiveCnt@ioSkill@@UBE_NXZ
	DD	FLAT:?GetMaxActiveCnt@ioSkill@@UBEHPAVioBaseChar@@@Z
	DD	FLAT:?GetCurActiveCnt@ioSkill@@UBEHPAVioBaseChar@@@Z
	DD	FLAT:??_EioFireSkill2@@UAEPAXI@Z
	DD	FLAT:?StartPreDelayAnimation@ioAttackSkill@@MAE_NPAVioBaseChar@@@Z
	DD	FLAT:?AttackSkillFire@ioFireSkill2@@MAEXPAVioBaseChar@@@Z
	DD	FLAT:?GetAttackTimeRate@ioAttackSkill@@MBEMXZ
	DD	FLAT:?GetAttackEndTimeRate@ioAttackSkill@@MBEMXZ
	DD	FLAT:?LoadNormalAttribute@ioAttackSkill@@MAEXAAVioINILoader@@@Z
	DD	FLAT:?LoadDownAttribute@ioAttackSkill@@MAEXAAVioINILoader@@@Z
	DD	FLAT:?LoadJumpAttribute@ioAttackSkill@@MAEXAAVioINILoader@@@Z
	DD	FLAT:?GetAttribute@ioAttackSkill@@UAEAAUAttackAttribute@@XZ
	DD	FLAT:?GetAttributeConst@ioAttackSkill@@UBEABUAttackAttribute@@XZ
	DD	FLAT:?IsCanStateEscape@ioAttackSkill@@UBE_NXZ
	DD	FLAT:?IsCanStateEscapeOnStand@ioAttackSkill@@UBE_NPAVioBaseChar@@@Z
	DD	FLAT:?IsCanStateEscapeOnAir@ioAttackSkill@@UBE_NPAVioBaseChar@@@Z
	DD	FLAT:?IsCanStateEscapeOnDown@ioAttackSkill@@UBE_NPAVioBaseChar@@@Z
CONST	ENDS
;	COMDAT xdata$x
xdata$x	SEGMENT
__ehfuncinfo$??1ioFireSkill2@@UAE@XZ DD 019930522H
	DD	010H
	DD	FLAT:__unwindtable$??1ioFireSkill2@@UAE@XZ
	DD	2 DUP(00H)
	DD	2 DUP(00H)
	DD	00H
	DD	01H
__unwindtable$??1ioFireSkill2@@UAE@XZ DD 0ffffffffH
	DD	FLAT:__unwindfunclet$??1ioFireSkill2@@UAE@XZ$0
	DD	00H
	DD	FLAT:__unwindfunclet$??1ioFireSkill2@@UAE@XZ$1
	DD	01H
	DD	FLAT:__unwindfunclet$??1ioFireSkill2@@UAE@XZ$2
	DD	02H
	DD	FLAT:__unwindfunclet$??1ioFireSkill2@@UAE@XZ$3
	DD	03H
	DD	FLAT:__unwindfunclet$??1ioFireSkill2@@UAE@XZ$4
	DD	04H
	DD	FLAT:__unwindfunclet$??1ioFireSkill2@@UAE@XZ$5
	DD	05H
	DD	FLAT:__unwindfunclet$??1ioFireSkill2@@UAE@XZ$6
	DD	06H
	DD	FLAT:__unwindfunclet$??1ioFireSkill2@@UAE@XZ$7
	DD	07H
	DD	FLAT:__unwindfunclet$??1ioFireSkill2@@UAE@XZ$8
	DD	08H
	DD	FLAT:__unwindfunclet$??1ioFireSkill2@@UAE@XZ$9
	DD	09H
	DD	FLAT:__unwindfunclet$??1ioFireSkill2@@UAE@XZ$10
	DD	0aH
	DD	FLAT:__unwindfunclet$??1ioFireSkill2@@UAE@XZ$11
	DD	0bH
	DD	FLAT:__unwindfunclet$??1ioFireSkill2@@UAE@XZ$12
	DD	0cH
	DD	FLAT:__unwindfunclet$??1ioFireSkill2@@UAE@XZ$13
	DD	0dH
	DD	FLAT:__unwindfunclet$??1ioFireSkill2@@UAE@XZ$14
	DD	0eH
	DD	FLAT:__unwindfunclet$??1ioFireSkill2@@UAE@XZ$15
; Function compile flags: /Ogsp
; File d:\lost saga for developer\youtube\tutorial\source\src\lsclient\iofireskill2.cpp
xdata$x	ENDS
;	COMDAT ??1ioFireSkill2@@UAE@XZ
_TEXT	SEGMENT
_this$ = -16						; size = 4
__$EHRec$ = -12						; size = 12
??1ioFireSkill2@@UAE@XZ PROC				; ioFireSkill2::~ioFireSkill2, COMDAT
; _this$ = ecx

; 48   : {

  00000	6a 04		 push	 4
  00002	b8 00 00 00 00	 mov	 eax, __ehhandler$??1ioFireSkill2@@UAE@XZ
  00007	e8 00 00 00 00	 call	 __EH_prolog3
  0000c	8b f1		 mov	 esi, ecx
  0000e	89 75 f0	 mov	 DWORD PTR _this$[ebp], esi
  00011	c7 06 00 00 00
	00		 mov	 DWORD PTR [esi], OFFSET ??_7ioFireSkill2@@6B@

; 49   : }

  00017	8b 1d 00 00 00
	00		 mov	 ebx, DWORD PTR __imp_??1ioHashString@@QAE@XZ
  0001d	8d 8e 70 13 00
	00		 lea	 ecx, DWORD PTR [esi+4976]
  00023	c7 45 fc 0f 00
	00 00		 mov	 DWORD PTR __$EHRec$[ebp+8], 15 ; 0000000fH
  0002a	ff d3		 call	 ebx
  0002c	bf 00 00 00 00	 mov	 edi, OFFSET ??_7?$CEncrypt@M@@6B@
  00031	8d 8e 4c 13 00
	00		 lea	 ecx, DWORD PTR [esi+4940]
  00037	c6 45 fc 0e	 mov	 BYTE PTR __$EHRec$[ebp+8], 14 ; 0000000eH
  0003b	89 be 40 13 00
	00		 mov	 DWORD PTR [esi+4928], edi
  00041	e8 00 00 00 00	 call	 ??1ccddaabb@@UAE@XZ	; ccddaabb::~ccddaabb
  00046	8d 8e 1c 13 00
	00		 lea	 ecx, DWORD PTR [esi+4892]
  0004c	c6 45 fc 0d	 mov	 BYTE PTR __$EHRec$[ebp+8], 13 ; 0000000dH
  00050	89 be 10 13 00
	00		 mov	 DWORD PTR [esi+4880], edi
  00056	e8 00 00 00 00	 call	 ??1ccddaabb@@UAE@XZ	; ccddaabb::~ccddaabb
  0005b	8d 8e 00 13 00
	00		 lea	 ecx, DWORD PTR [esi+4864]
  00061	c6 45 fc 0c	 mov	 BYTE PTR __$EHRec$[ebp+8], 12 ; 0000000cH
  00065	ff d3		 call	 ebx
  00067	8d 8e f0 12 00
	00		 lea	 ecx, DWORD PTR [esi+4848]
  0006d	c6 45 fc 0b	 mov	 BYTE PTR __$EHRec$[ebp+8], 11 ; 0000000bH
  00071	ff d3		 call	 ebx
  00073	8d 8e d4 12 00
	00		 lea	 ecx, DWORD PTR [esi+4820]
  00079	c6 45 fc 0a	 mov	 BYTE PTR __$EHRec$[ebp+8], 10 ; 0000000aH
  0007d	ff d3		 call	 ebx
  0007f	8d 8e b0 12 00
	00		 lea	 ecx, DWORD PTR [esi+4784]
  00085	c6 45 fc 09	 mov	 BYTE PTR __$EHRec$[ebp+8], 9
  00089	89 be a4 12 00
	00		 mov	 DWORD PTR [esi+4772], edi
  0008f	e8 00 00 00 00	 call	 ??1ccddaabb@@UAE@XZ	; ccddaabb::~ccddaabb
  00094	8d 8e 80 12 00
	00		 lea	 ecx, DWORD PTR [esi+4736]
  0009a	c6 45 fc 08	 mov	 BYTE PTR __$EHRec$[ebp+8], 8
  0009e	89 be 74 12 00
	00		 mov	 DWORD PTR [esi+4724], edi
  000a4	e8 00 00 00 00	 call	 ??1ccddaabb@@UAE@XZ	; ccddaabb::~ccddaabb
  000a9	8d 8e 50 12 00
	00		 lea	 ecx, DWORD PTR [esi+4688]
  000af	c6 45 fc 07	 mov	 BYTE PTR __$EHRec$[ebp+8], 7
  000b3	89 be 44 12 00
	00		 mov	 DWORD PTR [esi+4676], edi
  000b9	e8 00 00 00 00	 call	 ??1ccddaabb@@UAE@XZ	; ccddaabb::~ccddaabb
  000be	8d 8e 20 12 00
	00		 lea	 ecx, DWORD PTR [esi+4640]
  000c4	c6 45 fc 06	 mov	 BYTE PTR __$EHRec$[ebp+8], 6
  000c8	89 be 14 12 00
	00		 mov	 DWORD PTR [esi+4628], edi
  000ce	e8 00 00 00 00	 call	 ??1ccddaabb@@UAE@XZ	; ccddaabb::~ccddaabb
  000d3	8d 8e f0 11 00
	00		 lea	 ecx, DWORD PTR [esi+4592]
  000d9	c6 45 fc 05	 mov	 BYTE PTR __$EHRec$[ebp+8], 5
  000dd	89 be e4 11 00
	00		 mov	 DWORD PTR [esi+4580], edi
  000e3	e8 00 00 00 00	 call	 ??1ccddaabb@@UAE@XZ	; ccddaabb::~ccddaabb
  000e8	8d 8e c0 11 00
	00		 lea	 ecx, DWORD PTR [esi+4544]
  000ee	c6 45 fc 04	 mov	 BYTE PTR __$EHRec$[ebp+8], 4
  000f2	89 be b4 11 00
	00		 mov	 DWORD PTR [esi+4532], edi
  000f8	e8 00 00 00 00	 call	 ??1ccddaabb@@UAE@XZ	; ccddaabb::~ccddaabb
  000fd	8d 8e 90 11 00
	00		 lea	 ecx, DWORD PTR [esi+4496]
  00103	c6 45 fc 03	 mov	 BYTE PTR __$EHRec$[ebp+8], 3
  00107	89 be 84 11 00
	00		 mov	 DWORD PTR [esi+4484], edi
  0010d	e8 00 00 00 00	 call	 ??1ccddaabb@@UAE@XZ	; ccddaabb::~ccddaabb
  00112	bf 00 00 00 00	 mov	 edi, OFFSET ??_7?$CEncrypt@H@@6B@
  00117	8d 8e 58 11 00
	00		 lea	 ecx, DWORD PTR [esi+4440]
  0011d	c6 45 fc 02	 mov	 BYTE PTR __$EHRec$[ebp+8], 2
  00121	89 be 4c 11 00
	00		 mov	 DWORD PTR [esi+4428], edi
  00127	e8 00 00 00 00	 call	 ??1ccddaabb@@UAE@XZ	; ccddaabb::~ccddaabb
  0012c	8d 8e 28 11 00
	00		 lea	 ecx, DWORD PTR [esi+4392]
  00132	c6 45 fc 01	 mov	 BYTE PTR __$EHRec$[ebp+8], 1
  00136	89 be 1c 11 00
	00		 mov	 DWORD PTR [esi+4380], edi
  0013c	e8 00 00 00 00	 call	 ??1ccddaabb@@UAE@XZ	; ccddaabb::~ccddaabb
  00141	8d 8e f4 10 00
	00		 lea	 ecx, DWORD PTR [esi+4340]
  00147	c6 45 fc 00	 mov	 BYTE PTR __$EHRec$[ebp+8], 0
  0014b	c7 86 e8 10 00
	00 00 00 00 00	 mov	 DWORD PTR [esi+4328], OFFSET ??_7?$CEncrypt@K@@6B@
  00155	e8 00 00 00 00	 call	 ??1ccddaabb@@UAE@XZ	; ccddaabb::~ccddaabb
  0015a	83 4d fc ff	 or	 DWORD PTR __$EHRec$[ebp+8], -1
  0015e	8b ce		 mov	 ecx, esi
  00160	e8 00 00 00 00	 call	 ??1ioAttackSkill@@UAE@XZ ; ioAttackSkill::~ioAttackSkill
  00165	e8 00 00 00 00	 call	 __EH_epilog3
  0016a	c3		 ret	 0
_TEXT	ENDS
;	COMDAT text$x
text$x	SEGMENT
__unwindfunclet$??1ioFireSkill2@@UAE@XZ$0:
  00000	8b 4d f0	 mov	 ecx, DWORD PTR _this$[ebp]
  00003	e9 00 00 00 00	 jmp	 ??1ioAttackSkill@@UAE@XZ ; ioAttackSkill::~ioAttackSkill
__unwindfunclet$??1ioFireSkill2@@UAE@XZ$1:
  00008	8b 4d f0	 mov	 ecx, DWORD PTR _this$[ebp]
  0000b	81 c1 e8 10 00
	00		 add	 ecx, 4328		; 000010e8H
  00011	e9 00 00 00 00	 jmp	 ??1?$CEncrypt@K@@UAE@XZ	; CEncrypt<unsigned long>::~CEncrypt<unsigned long>
__unwindfunclet$??1ioFireSkill2@@UAE@XZ$2:
  00016	8b 4d f0	 mov	 ecx, DWORD PTR _this$[ebp]
  00019	81 c1 1c 11 00
	00		 add	 ecx, 4380		; 0000111cH
  0001f	e9 00 00 00 00	 jmp	 ??1?$CEncrypt@H@@UAE@XZ	; CEncrypt<int>::~CEncrypt<int>
__unwindfunclet$??1ioFireSkill2@@UAE@XZ$3:
  00024	8b 4d f0	 mov	 ecx, DWORD PTR _this$[ebp]
  00027	81 c1 4c 11 00
	00		 add	 ecx, 4428		; 0000114cH
  0002d	e9 00 00 00 00	 jmp	 ??1?$CEncrypt@H@@UAE@XZ	; CEncrypt<int>::~CEncrypt<int>
__unwindfunclet$??1ioFireSkill2@@UAE@XZ$4:
  00032	8b 4d f0	 mov	 ecx, DWORD PTR _this$[ebp]
  00035	81 c1 84 11 00
	00		 add	 ecx, 4484		; 00001184H
  0003b	e9 00 00 00 00	 jmp	 ??1?$CEncrypt@M@@UAE@XZ	; CEncrypt<float>::~CEncrypt<float>
__unwindfunclet$??1ioFireSkill2@@UAE@XZ$5:
  00040	8b 4d f0	 mov	 ecx, DWORD PTR _this$[ebp]
  00043	81 c1 b4 11 00
	00		 add	 ecx, 4532		; 000011b4H
  00049	e9 00 00 00 00	 jmp	 ??1?$CEncrypt@M@@UAE@XZ	; CEncrypt<float>::~CEncrypt<float>
__unwindfunclet$??1ioFireSkill2@@UAE@XZ$6:
  0004e	8b 4d f0	 mov	 ecx, DWORD PTR _this$[ebp]
  00051	81 c1 e4 11 00
	00		 add	 ecx, 4580		; 000011e4H
  00057	e9 00 00 00 00	 jmp	 ??1?$CEncrypt@M@@UAE@XZ	; CEncrypt<float>::~CEncrypt<float>
__unwindfunclet$??1ioFireSkill2@@UAE@XZ$7:
  0005c	8b 4d f0	 mov	 ecx, DWORD PTR _this$[ebp]
  0005f	81 c1 14 12 00
	00		 add	 ecx, 4628		; 00001214H
  00065	e9 00 00 00 00	 jmp	 ??1?$CEncrypt@M@@UAE@XZ	; CEncrypt<float>::~CEncrypt<float>
__unwindfunclet$??1ioFireSkill2@@UAE@XZ$8:
  0006a	8b 4d f0	 mov	 ecx, DWORD PTR _this$[ebp]
  0006d	81 c1 44 12 00
	00		 add	 ecx, 4676		; 00001244H
  00073	e9 00 00 00 00	 jmp	 ??1?$CEncrypt@M@@UAE@XZ	; CEncrypt<float>::~CEncrypt<float>
__unwindfunclet$??1ioFireSkill2@@UAE@XZ$9:
  00078	8b 4d f0	 mov	 ecx, DWORD PTR _this$[ebp]
  0007b	81 c1 74 12 00
	00		 add	 ecx, 4724		; 00001274H
  00081	e9 00 00 00 00	 jmp	 ??1?$CEncrypt@M@@UAE@XZ	; CEncrypt<float>::~CEncrypt<float>
__unwindfunclet$??1ioFireSkill2@@UAE@XZ$10:
  00086	8b 4d f0	 mov	 ecx, DWORD PTR _this$[ebp]
  00089	81 c1 a4 12 00
	00		 add	 ecx, 4772		; 000012a4H
  0008f	e9 00 00 00 00	 jmp	 ??1?$CEncrypt@M@@UAE@XZ	; CEncrypt<float>::~CEncrypt<float>
__unwindfunclet$??1ioFireSkill2@@UAE@XZ$11:
  00094	8b 4d f0	 mov	 ecx, DWORD PTR _this$[ebp]
  00097	81 c1 d4 12 00
	00		 add	 ecx, 4820		; 000012d4H
  0009d	ff 25 00 00 00
	00		 jmp	 DWORD PTR __imp_??1ioHashString@@QAE@XZ
__unwindfunclet$??1ioFireSkill2@@UAE@XZ$12:
  000a3	8b 4d f0	 mov	 ecx, DWORD PTR _this$[ebp]
  000a6	81 c1 f0 12 00
	00		 add	 ecx, 4848		; 000012f0H
  000ac	ff 25 00 00 00
	00		 jmp	 DWORD PTR __imp_??1ioHashString@@QAE@XZ
__unwindfunclet$??1ioFireSkill2@@UAE@XZ$13:
  000b2	8b 4d f0	 mov	 ecx, DWORD PTR _this$[ebp]
  000b5	81 c1 00 13 00
	00		 add	 ecx, 4864		; 00001300H
  000bb	ff 25 00 00 00
	00		 jmp	 DWORD PTR __imp_??1ioHashString@@QAE@XZ
__unwindfunclet$??1ioFireSkill2@@UAE@XZ$14:
  000c1	8b 4d f0	 mov	 ecx, DWORD PTR _this$[ebp]
  000c4	81 c1 10 13 00
	00		 add	 ecx, 4880		; 00001310H
  000ca	e9 00 00 00 00	 jmp	 ??1?$CEncrypt@M@@UAE@XZ	; CEncrypt<float>::~CEncrypt<float>
__unwindfunclet$??1ioFireSkill2@@UAE@XZ$15:
  000cf	8b 4d f0	 mov	 ecx, DWORD PTR _this$[ebp]
  000d2	81 c1 40 13 00
	00		 add	 ecx, 4928		; 00001340H
  000d8	e9 00 00 00 00	 jmp	 ??1?$CEncrypt@M@@UAE@XZ	; CEncrypt<float>::~CEncrypt<float>
__ehhandler$??1ioFireSkill2@@UAE@XZ:
  000dd	8b 54 24 08	 mov	 edx, DWORD PTR [esp+8]
  000e1	8d 42 0c	 lea	 eax, DWORD PTR [edx+12]
  000e4	8b 4a ec	 mov	 ecx, DWORD PTR [edx-20]
  000e7	33 c8		 xor	 ecx, eax
  000e9	e8 00 00 00 00	 call	 @__security_check_cookie@4
  000ee	b8 00 00 00 00	 mov	 eax, OFFSET __ehfuncinfo$??1ioFireSkill2@@UAE@XZ
  000f3	e9 00 00 00 00	 jmp	 ___CxxFrameHandler3
text$x	ENDS
??1ioFireSkill2@@UAE@XZ ENDP				; ioFireSkill2::~ioFireSkill2
; Function compile flags: /Ogsp
; File d:\lost saga for developer\youtube\tutorial\source\src\lsclient\ioskill.h
;	COMDAT ?GetDefenseSkillBreakeType@ioSkill@@UBE?AW4DefenseBreakType@@XZ
_TEXT	SEGMENT
?GetDefenseSkillBreakeType@ioSkill@@UBE?AW4DefenseBreakType@@XZ PROC ; ioSkill::GetDefenseSkillBreakeType, COMDAT
; _this$ = ecx

; 327  : 	virtual DefenseBreakType GetDefenseSkillBreakeType() const { return m_eDefenseSkillBreakType; }

  00000	8b 81 30 0e 00
	00		 mov	 eax, DWORD PTR [ecx+3632]
  00006	c3		 ret	 0
?GetDefenseSkillBreakeType@ioSkill@@UBE?AW4DefenseBreakType@@XZ ENDP ; ioSkill::GetDefenseSkillBreakeType
; Function compile flags: /Ogsp
_TEXT	ENDS
;	COMDAT ?GetSkillEndNextJumpAmt@ioSkill@@UBEMXZ
_TEXT	SEGMENT
?GetSkillEndNextJumpAmt@ioSkill@@UBEMXZ PROC		; ioSkill::GetSkillEndNextJumpAmt, COMDAT
; _this$ = ecx

; 335  : 	virtual float GetSkillEndNextJumpAmt() const { return m_fSkillEndNextJumpAmt; }

  00000	d9 81 4c 05 00
	00		 fld	 DWORD PTR [ecx+1356]
  00006	c3		 ret	 0
?GetSkillEndNextJumpAmt@ioSkill@@UBEMXZ ENDP		; ioSkill::GetSkillEndNextJumpAmt
; Function compile flags: /Ogsp
_TEXT	ENDS
;	COMDAT ?GetSkillEndNextLandRate@ioSkill@@UBEMXZ
_TEXT	SEGMENT
?GetSkillEndNextLandRate@ioSkill@@UBEMXZ PROC		; ioSkill::GetSkillEndNextLandRate, COMDAT
; _this$ = ecx

; 336  : 	virtual float GetSkillEndNextLandRate() const { return m_fSkillEndNextLandRate; }

  00000	d9 81 50 05 00
	00		 fld	 DWORD PTR [ecx+1360]
  00006	c3		 ret	 0
?GetSkillEndNextLandRate@ioSkill@@UBEMXZ ENDP		; ioSkill::GetSkillEndNextLandRate
; Function compile flags: /Ogsp
_TEXT	ENDS
;	COMDAT ?GetSkillEndNextJumpMustEnable@ioSkill@@UAE?AW4SkillEndJumpType@@XZ
_TEXT	SEGMENT
?GetSkillEndNextJumpMustEnable@ioSkill@@UAE?AW4SkillEndJumpType@@XZ PROC ; ioSkill::GetSkillEndNextJumpMustEnable, COMDAT
; _this$ = ecx

; 337  : 	virtual SkillEndJumpType GetSkillEndNextJumpMustEnable(){ return SEJT_DEFAULT; }

  00000	33 c0		 xor	 eax, eax
  00002	c3		 ret	 0
?GetSkillEndNextJumpMustEnable@ioSkill@@UAE?AW4SkillEndJumpType@@XZ ENDP ; ioSkill::GetSkillEndNextJumpMustEnable
; Function compile flags: /Ogsp
_TEXT	ENDS
;	COMDAT ?EnableChangeGrapplingTargetPos@ioSkill@@UBE_NXZ
_TEXT	SEGMENT
?EnableChangeGrapplingTargetPos@ioSkill@@UBE_NXZ PROC	; ioSkill::EnableChangeGrapplingTargetPos, COMDAT
; _this$ = ecx

; 355  : 	virtual bool EnableChangeGrapplingTargetPos() const { return m_bChangeGrapplingTargetPos; }

  00000	8a 81 40 09 00
	00		 mov	 al, BYTE PTR [ecx+2368]
  00006	c3		 ret	 0
?EnableChangeGrapplingTargetPos@ioSkill@@UBE_NXZ ENDP	; ioSkill::EnableChangeGrapplingTargetPos
; Function compile flags: /Ogsp
_TEXT	ENDS
;	COMDAT ?IsInvisibleBottomCircle@ioSkill@@UAE_NPAVioBaseChar@@@Z
_TEXT	SEGMENT
_pChar$ = 8						; size = 4
?IsInvisibleBottomCircle@ioSkill@@UAE_NPAVioBaseChar@@@Z PROC ; ioSkill::IsInvisibleBottomCircle, COMDAT
; _this$ = ecx

; 393  : 	virtual bool IsInvisibleBottomCircle( ioBaseChar *pChar ) { return false; }

  00000	32 c0		 xor	 al, al
  00002	c2 04 00	 ret	 4
?IsInvisibleBottomCircle@ioSkill@@UAE_NPAVioBaseChar@@@Z ENDP ; ioSkill::IsInvisibleBottomCircle
; Function compile flags: /Ogsp
_TEXT	ENDS
;	COMDAT ?IsUseActiveCnt@ioSkill@@UBE_NXZ
_TEXT	SEGMENT
?IsUseActiveCnt@ioSkill@@UBE_NXZ PROC			; ioSkill::IsUseActiveCnt, COMDAT
; _this$ = ecx

; 544  : 	virtual bool IsUseActiveCnt() const { return false; }

  00000	32 c0		 xor	 al, al
  00002	c3		 ret	 0
?IsUseActiveCnt@ioSkill@@UBE_NXZ ENDP			; ioSkill::IsUseActiveCnt
; Function compile flags: /Ogsp
_TEXT	ENDS
;	COMDAT ?GetMaxActiveCnt@ioSkill@@UBEHPAVioBaseChar@@@Z
_TEXT	SEGMENT
_pChar$ = 8						; size = 4
?GetMaxActiveCnt@ioSkill@@UBEHPAVioBaseChar@@@Z PROC	; ioSkill::GetMaxActiveCnt, COMDAT
; _this$ = ecx

; 545  : 	virtual int GetMaxActiveCnt( ioBaseChar *pChar ) const { return 0; }

  00000	33 c0		 xor	 eax, eax
  00002	c2 04 00	 ret	 4
?GetMaxActiveCnt@ioSkill@@UBEHPAVioBaseChar@@@Z ENDP	; ioSkill::GetMaxActiveCnt
; Function compile flags: /Ogsp
_TEXT	ENDS
;	COMDAT ?GetCurActiveCnt@ioSkill@@UBEHPAVioBaseChar@@@Z
_TEXT	SEGMENT
_pChar$ = 8						; size = 4
?GetCurActiveCnt@ioSkill@@UBEHPAVioBaseChar@@@Z PROC	; ioSkill::GetCurActiveCnt, COMDAT
; _this$ = ecx

; 546  : 	virtual int GetCurActiveCnt( ioBaseChar *pChar ) const { return 0; }

  00000	33 c0		 xor	 eax, eax
  00002	c2 04 00	 ret	 4
?GetCurActiveCnt@ioSkill@@UBEHPAVioBaseChar@@@Z ENDP	; ioSkill::GetCurActiveCnt
_TEXT	ENDS
PUBLIC	?DecryptValueToPool@?$CEncrypt@_N@@QAEXPA_N@Z	; CEncrypt<bool>::DecryptValueToPool
; Function compile flags: /Ogsp
; File d:\lost saga for developer\youtube\tutorial\source\src\lsclient\encryptvalue.h
;	COMDAT ?DecryptValueToPool@?$CEncrypt@_N@@QAEXPA_N@Z
_TEXT	SEGMENT
_value$ = 8						; size = 4
?DecryptValueToPool@?$CEncrypt@_N@@QAEXPA_N@Z PROC	; CEncrypt<bool>::DecryptValueToPool, COMDAT
; _this$ = ecx

; 219  : 	{

  00000	55		 push	 ebp
  00001	8b ec		 mov	 ebp, esp
  00003	56		 push	 esi

; 220  : 		m_RC5.DecryptByte( m_MemPool, m_TempMem, 4 );

  00004	8d 71 28	 lea	 esi, DWORD PTR [ecx+40]
  00007	6a 04		 push	 4
  00009	8d 41 1c	 lea	 eax, DWORD PTR [ecx+28]
  0000c	56		 push	 esi
  0000d	50		 push	 eax
  0000e	83 c1 0c	 add	 ecx, 12			; 0000000cH
  00011	e8 00 00 00 00	 call	 ?DecryptByte@ccddaabb@@QBEXPBDPADH@Z ; ccddaabb::DecryptByte

; 221  : 		*value = *((bool*)m_TempMem);

  00016	8a 06		 mov	 al, BYTE PTR [esi]
  00018	8b 4d 08	 mov	 ecx, DWORD PTR _value$[ebp]
  0001b	88 01		 mov	 BYTE PTR [ecx], al
  0001d	5e		 pop	 esi

; 222  : 	}

  0001e	5d		 pop	 ebp
  0001f	c2 04 00	 ret	 4
?DecryptValueToPool@?$CEncrypt@_N@@QAEXPA_N@Z ENDP	; CEncrypt<bool>::DecryptValueToPool
_TEXT	ENDS
EXTRN	?SetTargetMarkerState@ioBaseGUISupport@@QAEXW4MarkerState@ioTargetMarker@@W4TargetedType@@@Z:PROC ; ioBaseGUISupport::SetTargetMarkerState
EXTRN	?RestoreSkillWeaponMesh@ioBaseChar@@QAE_NPAVioSkill@@ABVioHashString@@_N2@Z:PROC ; ioBaseChar::RestoreSkillWeaponMesh
EXTRN	__imp_?IsEmpty@ioHashString@@QBE_NXZ:PROC
EXTRN	?ShowWeaponItemMesh@ioBaseChar@@QAEX_N0@Z:PROC	; ioBaseChar::ShowWeaponItemMesh
EXTRN	?OnSkillEnd@ioAttackSkill@@UAEXPAVioBaseChar@@@Z:PROC ; ioAttackSkill::OnSkillEnd
; Function compile flags: /Ogsp
; File d:\lost saga for developer\youtube\tutorial\source\src\lsclient\iofireskill2.cpp
;	COMDAT ?OnSkillEnd@ioFireSkill2@@UAEXPAVioBaseChar@@@Z
_TEXT	SEGMENT
_pChar$ = 8						; size = 4
?OnSkillEnd@ioFireSkill2@@UAEXPAVioBaseChar@@@Z PROC	; ioFireSkill2::OnSkillEnd, COMDAT
; _this$ = ecx

; 203  : {

  00000	55		 push	 ebp
  00001	8b ec		 mov	 ebp, esp
  00003	53		 push	 ebx
  00004	56		 push	 esi
  00005	57		 push	 edi

; 204  : 	ioAttackSkill::OnSkillEnd( pChar );

  00006	8b 7d 08	 mov	 edi, DWORD PTR _pChar$[ebp]
  00009	57		 push	 edi
  0000a	8b f1		 mov	 esi, ecx
  0000c	e8 00 00 00 00	 call	 ?OnSkillEnd@ioAttackSkill@@UAEXPAVioBaseChar@@@Z ; ioAttackSkill::OnSkillEnd

; 205  : 	
; 206  : 	if( GetOwnerItem() )

  00011	8b 8e a4 02 00
	00		 mov	 ecx, DWORD PTR [esi+676]
  00017	33 db		 xor	 ebx, ebx
  00019	3b cb		 cmp	 ecx, ebx
  0001b	74 08		 je	 SHORT $LN3@OnSkillEnd

; 207  : 		GetOwnerItem()->ClearCurChargeRateForSkill();

  0001d	8b 01		 mov	 eax, DWORD PTR [ecx]
  0001f	ff 90 84 00 00
	00		 call	 DWORD PTR [eax+132]
$LN3@OnSkillEnd:

; 208  : 
; 209  : 	//  
; 210  : 	if( m_bUseItemMesh )

  00025	38 9e 08 0f 00
	00		 cmp	 BYTE PTR [esi+3848], bl
  0002b	74 0a		 je	 SHORT $LN2@OnSkillEnd

; 211  : 	{
; 212  : 		pChar->ShowWeaponItemMesh( true );

  0002d	53		 push	 ebx
  0002e	6a 01		 push	 1
  00030	8b cf		 mov	 ecx, edi
  00032	e8 00 00 00 00	 call	 ?ShowWeaponItemMesh@ioBaseChar@@QAEX_N0@Z ; ioBaseChar::ShowWeaponItemMesh
$LN2@OnSkillEnd:

; 213  : 	}
; 214  : 
; 215  : 	if( !m_HandMesh.IsEmpty() )

  00037	8d 8e f8 0e 00
	00		 lea	 ecx, DWORD PTR [esi+3832]
  0003d	ff 15 00 00 00
	00		 call	 DWORD PTR __imp_?IsEmpty@ioHashString@@QBE_NXZ
  00043	84 c0		 test	 al, al
  00045	75 18		 jne	 SHORT $LN1@OnSkillEnd

; 216  : 	{
; 217  : 		pChar->RestoreSkillWeaponMesh( this, m_HandMesh, m_bVisibleEquipMesh );

  00047	0f b6 86 09 0f
	00 00		 movzx	 eax, BYTE PTR [esi+3849]
  0004e	53		 push	 ebx
  0004f	50		 push	 eax
  00050	8d 86 f8 0e 00
	00		 lea	 eax, DWORD PTR [esi+3832]
  00056	50		 push	 eax
  00057	56		 push	 esi
  00058	8b cf		 mov	 ecx, edi
  0005a	e8 00 00 00 00	 call	 ?RestoreSkillWeaponMesh@ioBaseChar@@QAE_NPAVioSkill@@ABVioHashString@@_N2@Z ; ioBaseChar::RestoreSkillWeaponMesh
$LN1@OnSkillEnd:

; 218  : 	}
; 219  : 
; 220  : 	m_bSetHandMesh = false;
; 221  : 	pChar->SetTargetMarkerState( ioTargetMarker::MS_NONE, TT_OTHER );

  0005f	6a 01		 push	 1
  00061	53		 push	 ebx
  00062	8d 8f cc 01 00
	00		 lea	 ecx, DWORD PTR [edi+460]
  00068	88 9e 0a 0f 00
	00		 mov	 BYTE PTR [esi+3850], bl
  0006e	e8 00 00 00 00	 call	 ?SetTargetMarkerState@ioBaseGUISupport@@QAEXW4MarkerState@ioTargetMarker@@W4TargetedType@@@Z ; ioBaseGUISupport::SetTargetMarkerState
  00073	5f		 pop	 edi
  00074	5e		 pop	 esi
  00075	5b		 pop	 ebx

; 222  : }

  00076	5d		 pop	 ebp
  00077	c2 04 00	 ret	 4
?OnSkillEnd@ioFireSkill2@@UAEXPAVioBaseChar@@@Z ENDP	; ioFireSkill2::OnSkillEnd
_TEXT	ENDS
PUBLIC	__$ArrayPad$
EXTRN	?GetOwner@ioWeapon@@QBEPAVioBaseChar@@XZ:PROC	; ioWeapon::GetOwner
EXTRN	?CheckSylphidMissileWeapon@ioWeaponManager@@QAEXPAVioWeapon@@@Z:PROC ; ioWeaponManager::CheckSylphidMissileWeapon
EXTRN	?GetSingleton@ioWeaponManager@@SAAAV1@XZ:PROC	; ioWeaponManager::GetSingleton
EXTRN	_D3DXVec3Normalize@8:PROC
EXTRN	?ApplyAttributeToWeapon@ioSkill@@UAEXPAVioWeapon@@PAVioPlayStage@@@Z:PROC ; ioSkill::ApplyAttributeToWeapon
EXTRN	___security_cookie:DWORD
; Function compile flags: /Ogsp
;	COMDAT ?ApplyAttributeToWeapon@ioFireSkill2@@UAEXPAVioWeapon@@PAVioPlayStage@@@Z
_TEXT	SEGMENT
_pMissile$ = -20					; size = 4
_vDir$548270 = -16					; size = 12
__$ArrayPad$ = -4					; size = 4
_pWeapon$ = 8						; size = 4
_pStage$ = 12						; size = 4
?ApplyAttributeToWeapon@ioFireSkill2@@UAEXPAVioWeapon@@PAVioPlayStage@@@Z PROC ; ioFireSkill2::ApplyAttributeToWeapon, COMDAT
; _this$ = ecx

; 230  : {

  00000	55		 push	 ebp
  00001	8b ec		 mov	 ebp, esp
  00003	83 ec 14	 sub	 esp, 20			; 00000014H
  00006	a1 00 00 00 00	 mov	 eax, DWORD PTR ___security_cookie
  0000b	33 c5		 xor	 eax, ebp
  0000d	89 45 fc	 mov	 DWORD PTR __$ArrayPad$[ebp], eax
  00010	8b 45 0c	 mov	 eax, DWORD PTR _pStage$[ebp]
  00013	56		 push	 esi
  00014	57		 push	 edi
  00015	8b 7d 08	 mov	 edi, DWORD PTR _pWeapon$[ebp]
  00018	8b f1		 mov	 esi, ecx

; 231  : 	if( !pWeapon ) return;

  0001a	85 ff		 test	 edi, edi
  0001c	0f 84 4c 01 00
	00		 je	 $LN1@ApplyAttri

; 232  : 
; 233  : 	ioSkill::ApplyAttributeToWeapon( pWeapon, pStage );

  00022	53		 push	 ebx
  00023	50		 push	 eax
  00024	57		 push	 edi
  00025	e8 00 00 00 00	 call	 ?ApplyAttributeToWeapon@ioSkill@@UAEXPAVioWeapon@@PAVioPlayStage@@@Z ; ioSkill::ApplyAttributeToWeapon

; 234  : 
; 235  : 	SetChargingRateForWeapon( pWeapon );

  0002a	8b 06		 mov	 eax, DWORD PTR [esi]
  0002c	57		 push	 edi
  0002d	8b ce		 mov	 ecx, esi
  0002f	ff 90 68 01 00
	00		 call	 DWORD PTR [eax+360]

; 236  : 
; 237  : 	ioArrowWeapon *pArrow = ToArrowWeapon( pWeapon );

  00035	57		 push	 edi
  00036	e8 00 00 00 00	 call	 ?ToArrowWeapon@@YAPAVioArrowWeapon@@PAVioWeapon@@@Z ; ToArrowWeapon

; 238  : 	ioMissileWeapon *pMissile = ToMissileWeapon( pWeapon );

  0003b	57		 push	 edi
  0003c	8b d8		 mov	 ebx, eax
  0003e	e8 00 00 00 00	 call	 ?ToMissileWeapon@@YAPAVioMissileWeapon@@PAVioWeapon@@@Z ; ToMissileWeapon

; 239  : 	ioBombMissileWeapon *pBombMissile = ToBombMissileWeapon( pWeapon );

  00043	57		 push	 edi
  00044	89 45 ec	 mov	 DWORD PTR _pMissile$[ebp], eax
  00047	e8 00 00 00 00	 call	 ?ToBombMissileWeapon@@YAPAVioBombMissileWeapon@@PAVioWeapon@@@Z ; ToBombMissileWeapon
  0004c	83 c4 0c	 add	 esp, 12			; 0000000cH

; 240  : 
; 241  : 	if( (pArrow || pMissile || pBombMissile) && m_vTargetPos != ioMath::VEC3_ZERO )

  0004f	85 db		 test	 ebx, ebx
  00051	5b		 pop	 ebx
  00052	75 0e		 jne	 SHORT $LN3@ApplyAttri
  00054	83 7d ec 00	 cmp	 DWORD PTR _pMissile$[ebp], 0
  00058	75 08		 jne	 SHORT $LN3@ApplyAttri
  0005a	85 c0		 test	 eax, eax
  0005c	0f 84 da 00 00
	00		 je	 $LN4@ApplyAttri
$LN3@ApplyAttri:
  00062	8b 0d 00 00 00
	00		 mov	 ecx, DWORD PTR __imp_?VEC3_ZERO@ioMath@@2UD3DXVECTOR3@@A
  00068	f3 0f 10 86 e4
	12 00 00	 movss	 xmm0, DWORD PTR [esi+4836]
  00070	f3 0f 10 09	 movss	 xmm1, DWORD PTR [ecx]
  00074	0f 5a c0	 cvtps2pd xmm0, xmm0
  00077	0f 5a c9	 cvtps2pd xmm1, xmm1
  0007a	66 0f 2e c1	 ucomisd xmm0, xmm1
  0007e	9f		 lahf
  0007f	f6 c4 44	 test	 ah, 68			; 00000044H
  00082	7a 3a		 jp	 SHORT $LN10@ApplyAttri
  00084	f3 0f 10 86 e8
	12 00 00	 movss	 xmm0, DWORD PTR [esi+4840]
  0008c	f3 0f 10 49 04	 movss	 xmm1, DWORD PTR [ecx+4]
  00091	0f 5a c0	 cvtps2pd xmm0, xmm0
  00094	0f 5a c9	 cvtps2pd xmm1, xmm1
  00097	66 0f 2e c1	 ucomisd xmm0, xmm1
  0009b	9f		 lahf
  0009c	f6 c4 44	 test	 ah, 68			; 00000044H
  0009f	7a 1d		 jp	 SHORT $LN10@ApplyAttri
  000a1	f3 0f 10 86 ec
	12 00 00	 movss	 xmm0, DWORD PTR [esi+4844]
  000a9	f3 0f 10 49 08	 movss	 xmm1, DWORD PTR [ecx+8]
  000ae	0f 5a c0	 cvtps2pd xmm0, xmm0
  000b1	0f 5a c9	 cvtps2pd xmm1, xmm1
  000b4	66 0f 2e c1	 ucomisd xmm0, xmm1
  000b8	9f		 lahf
  000b9	f6 c4 44	 test	 ah, 68			; 00000044H
  000bc	7b 7e		 jnp	 SHORT $LN4@ApplyAttri
$LN10@ApplyAttri:

; 242  : 	{
; 243  : 		D3DXVECTOR3 vDir = m_vTargetPos - pWeapon->GetPosition();

  000be	8b 07		 mov	 eax, DWORD PTR [edi]
  000c0	8b cf		 mov	 ecx, edi
  000c2	ff 50 70	 call	 DWORD PTR [eax+112]
  000c5	f3 0f 10 48 04	 movss	 xmm1, DWORD PTR [eax+4]
  000ca	f3 0f 10 50 08	 movss	 xmm2, DWORD PTR [eax+8]
  000cf	f3 0f 10 86 e8
	12 00 00	 movss	 xmm0, DWORD PTR [esi+4840]
  000d7	f3 0f 10 18	 movss	 xmm3, DWORD PTR [eax]
  000db	0f 5a c9	 cvtps2pd xmm1, xmm1
  000de	0f 5a c0	 cvtps2pd xmm0, xmm0
  000e1	f2 0f 5c c1	 subsd	 xmm0, xmm1
  000e5	f3 0f 10 8e ec
	12 00 00	 movss	 xmm1, DWORD PTR [esi+4844]
  000ed	0f 5a d2	 cvtps2pd xmm2, xmm2
  000f0	0f 5a c9	 cvtps2pd xmm1, xmm1
  000f3	f2 0f 5c ca	 subsd	 xmm1, xmm2
  000f7	f3 0f 10 96 e4
	12 00 00	 movss	 xmm2, DWORD PTR [esi+4836]

; 244  : 		D3DXVec3Normalize( &vDir, &vDir );

  000ff	8d 45 f0	 lea	 eax, DWORD PTR _vDir$548270[ebp]
  00102	0f 5a d2	 cvtps2pd xmm2, xmm2
  00105	0f 5a db	 cvtps2pd xmm3, xmm3
  00108	50		 push	 eax
  00109	f2 0f 5c d3	 subsd	 xmm2, xmm3
  0010d	66 0f 5a c0	 cvtpd2ps xmm0, xmm0
  00111	66 0f 5a c9	 cvtpd2ps xmm1, xmm1
  00115	66 0f 5a d2	 cvtpd2ps xmm2, xmm2
  00119	50		 push	 eax
  0011a	f3 0f 11 55 f0	 movss	 DWORD PTR _vDir$548270[ebp], xmm2
  0011f	f3 0f 11 45 f4	 movss	 DWORD PTR _vDir$548270[ebp+4], xmm0
  00124	f3 0f 11 4d f8	 movss	 DWORD PTR _vDir$548270[ebp+8], xmm1
  00129	e8 00 00 00 00	 call	 _D3DXVec3Normalize@8

; 245  : 
; 246  : 		pWeapon->SetMoveDir( vDir );

  0012e	8b 07		 mov	 eax, DWORD PTR [edi]
  00130	8d 4d f0	 lea	 ecx, DWORD PTR _vDir$548270[ebp]
  00133	51		 push	 ecx
  00134	8b cf		 mov	 ecx, edi
  00136	ff 90 b0 00 00
	00		 call	 DWORD PTR [eax+176]
$LN4@ApplyAttri:

; 247  : 	}
; 248  : 
; 249  : 	ioSylphidMissileWeapon *pSylphid = ToSylphidMissileWeapon( pWeapon );

  0013c	57		 push	 edi
  0013d	e8 00 00 00 00	 call	 ?ToSylphidMissileWeapon@@YAPAVioSylphidMissileWeapon@@PAVioWeapon@@@Z ; ToSylphidMissileWeapon
  00142	59		 pop	 ecx

; 250  : 	if( pSylphid )

  00143	85 c0		 test	 eax, eax
  00145	74 0d		 je	 SHORT $LN2@ApplyAttri

; 251  : 	{
; 252  : 		g_WeaponMgr.CheckSylphidMissileWeapon( pWeapon );

  00147	57		 push	 edi
  00148	e8 00 00 00 00	 call	 ?GetSingleton@ioWeaponManager@@SAAAV1@XZ ; ioWeaponManager::GetSingleton
  0014d	8b c8		 mov	 ecx, eax
  0014f	e8 00 00 00 00	 call	 ?CheckSylphidMissileWeapon@ioWeaponManager@@QAEXPAVioWeapon@@@Z ; ioWeaponManager::CheckSylphidMissileWeapon
$LN2@ApplyAttri:

; 253  : 	}
; 254  : 
; 255  : 	ioBaseChar *pChar = pWeapon->GetOwner();

  00154	8b cf		 mov	 ecx, edi
  00156	e8 00 00 00 00	 call	 ?GetOwner@ioWeapon@@QBEPAVioBaseChar@@XZ ; ioWeapon::GetOwner

; 256  : 	if( pChar )

  0015b	85 c0		 test	 eax, eax
  0015d	74 0f		 je	 SHORT $LN1@ApplyAttri

; 257  : 	{
; 258  : 		pChar->SetTargetMarkerState( ioTargetMarker::MS_NONE, TT_OTHER );

  0015f	6a 01		 push	 1
  00161	6a 00		 push	 0
  00163	8d 88 cc 01 00
	00		 lea	 ecx, DWORD PTR [eax+460]
  00169	e8 00 00 00 00	 call	 ?SetTargetMarkerState@ioBaseGUISupport@@QAEXW4MarkerState@ioTargetMarker@@W4TargetedType@@@Z ; ioBaseGUISupport::SetTargetMarkerState
$LN1@ApplyAttri:

; 259  : 	}
; 260  : }

  0016e	8b 4d fc	 mov	 ecx, DWORD PTR __$ArrayPad$[ebp]
  00171	5f		 pop	 edi
  00172	33 cd		 xor	 ecx, ebp
  00174	5e		 pop	 esi
  00175	e8 00 00 00 00	 call	 @__security_check_cookie@4
  0017a	c9		 leave
  0017b	c2 08 00	 ret	 8
?ApplyAttributeToWeapon@ioFireSkill2@@UAEXPAVioWeapon@@PAVioPlayStage@@@Z ENDP ; ioFireSkill2::ApplyAttributeToWeapon
_TEXT	ENDS
EXTRN	__imp_?GetLoopSec@ioFrameTimer@@QBEKXZ:PROC
EXTRN	__imp_?GetSingleton@ioFrameTimer@@SAAAV1@XZ:PROC
EXTRN	?ChangeSkillWeaponMesh@ioBaseChar@@QAE_NPAVioSkill@@ABVioHashString@@_N@Z:PROC ; ioBaseChar::ChangeSkillWeaponMesh
EXTRN	?SetTargetMarkerTarget@ioBaseGUISupport@@QAEXABVioHashString@@_NW4TargetedType@@@Z:PROC ; ioBaseGUISupport::SetTargetMarkerTarget
EXTRN	??5SP2Packet@@QAEAAV0@AAVioHashString@@@Z:PROC	; SP2Packet::operator>>
EXTRN	??5SP2Packet@@QAEAAV0@AAV?$CEncrypt@H@@@Z:PROC	; SP2Packet::operator>>
EXTRN	??5SP2Packet@@QAEAAV0@AAUD3DXVECTOR3@@@Z:PROC	; SP2Packet::operator>>
EXTRN	?SetTargetRotToRotate@ioBaseChar@@QAEXABUD3DXQUATERNION@@_N1@Z:PROC ; ioBaseChar::SetTargetRotToRotate
EXTRN	??5SP2Packet@@QAEAAV0@AAUD3DXQUATERNION@@@Z:PROC ; SP2Packet::operator>>
EXTRN	??5SP2Packet@@QAEAAV0@AAH@Z:PROC		; SP2Packet::operator>>
; Function compile flags: /Ogsp
;	COMDAT ?ApplyExtraSkillInfo@ioFireSkill2@@UAEXPAVioBaseChar@@PAVioPlayStage@@AAVSP2Packet@@@Z
_TEXT	SEGMENT
_qtRot$549587 = -16					; size = 16
_qtRot$549577 = -16					; size = 16
tv297 = 8						; size = 4
_pChar$ = 8						; size = 4
_iType$ = 12						; size = 4
_pStage$ = 12						; size = 4
_iState$549576 = 16					; size = 4
_rkPacket$ = 16						; size = 4
?ApplyExtraSkillInfo@ioFireSkill2@@UAEXPAVioBaseChar@@PAVioPlayStage@@AAVSP2Packet@@@Z PROC ; ioFireSkill2::ApplyExtraSkillInfo, COMDAT
; _this$ = ecx

; 602  : {

  00000	55		 push	 ebp
  00001	8b ec		 mov	 ebp, esp
  00003	83 ec 10	 sub	 esp, 16			; 00000010H
  00006	56		 push	 esi
  00007	57		 push	 edi

; 603  : 	if( !pChar ) return;

  00008	8b 7d 08	 mov	 edi, DWORD PTR _pChar$[ebp]
  0000b	8b f1		 mov	 esi, ecx
  0000d	85 ff		 test	 edi, edi
  0000f	0f 84 8b 01 00
	00		 je	 $LN4@ApplyExtra

; 604  : 	if( !pStage ) return;

  00015	83 7d 0c 00	 cmp	 DWORD PTR _pStage$[ebp], 0
  00019	0f 84 81 01 00
	00		 je	 $LN4@ApplyExtra

; 605  : 
; 606  : 	int iType;
; 607  : 	rkPacket >> iType;

  0001f	53		 push	 ebx
  00020	8b 5d 10	 mov	 ebx, DWORD PTR _rkPacket$[ebp]
  00023	8d 45 0c	 lea	 eax, DWORD PTR _iType$[ebp]
  00026	50		 push	 eax
  00027	8b cb		 mov	 ecx, ebx
  00029	e8 00 00 00 00	 call	 ??5SP2Packet@@QAEAAV0@AAH@Z ; SP2Packet::operator>>

; 608  : 
; 609  : 	switch( iType )

  0002e	8b 45 0c	 mov	 eax, DWORD PTR _iType$[ebp]
  00031	83 e8 00	 sub	 eax, 0
  00034	74 7d		 je	 SHORT $LN10@ApplyExtra
  00036	48		 dec	 eax
  00037	0f 85 62 01 00
	00		 jne	 $LN21@ApplyExtra

; 648  : 					}
; 649  : 				}
; 650  : 				break;
; 651  : 			}
; 652  : 		}
; 653  : 		break;
; 654  : 	case ST_FIRE:
; 655  : 		{
; 656  : 			D3DXQUATERNION qtRot;
; 657  : 			rkPacket >> qtRot;

  0003d	8d 45 f0	 lea	 eax, DWORD PTR _qtRot$549587[ebp]
  00040	50		 push	 eax
  00041	8b cb		 mov	 ecx, ebx
  00043	e8 00 00 00 00	 call	 ??5SP2Packet@@QAEAAV0@AAUD3DXQUATERNION@@@Z ; SP2Packet::operator>>

; 658  : 
; 659  : 			pChar->SetTargetRotToRotate( qtRot, true, false );

  00048	6a 00		 push	 0
  0004a	6a 01		 push	 1
  0004c	8d 45 f0	 lea	 eax, DWORD PTR _qtRot$549587[ebp]
  0004f	50		 push	 eax
  00050	8b cf		 mov	 ecx, edi
  00052	e8 00 00 00 00	 call	 ?SetTargetRotToRotate@ioBaseChar@@QAEXABUD3DXQUATERNION@@_N1@Z ; ioBaseChar::SetTargetRotToRotate

; 660  : 
; 661  : 			rkPacket >> m_vTargetPos;

  00057	8d 86 e4 12 00
	00		 lea	 eax, DWORD PTR [esi+4836]
  0005d	50		 push	 eax
  0005e	8b cb		 mov	 ecx, ebx
  00060	e8 00 00 00 00	 call	 ??5SP2Packet@@QAEAAV0@AAUD3DXVECTOR3@@@Z ; SP2Packet::operator>>

; 662  : 			AttackSkillFire( pChar );

  00065	8b 06		 mov	 eax, DWORD PTR [esi]
  00067	57		 push	 edi
  00068	8b ce		 mov	 ecx, esi
  0006a	ff 90 8c 01 00
	00		 call	 DWORD PTR [eax+396]

; 663  : 
; 664  : 			rkPacket >> m_iCurFireCnt;

  00070	8d 86 4c 11 00
	00		 lea	 eax, DWORD PTR [esi+4428]
  00076	50		 push	 eax
  00077	8b cb		 mov	 ecx, ebx
  00079	e8 00 00 00 00	 call	 ??5SP2Packet@@QAEAAV0@AAV?$CEncrypt@H@@@Z ; SP2Packet::operator>>

; 665  : 			rkPacket >> m_LastTargetName;

  0007e	81 c6 d4 12 00
	00		 add	 esi, 4820		; 000012d4H
  00084	56		 push	 esi
  00085	8b cb		 mov	 ecx, ebx
  00087	e8 00 00 00 00	 call	 ??5SP2Packet@@QAEAAV0@AAVioHashString@@@Z ; SP2Packet::operator>>

; 666  : 
; 667  : 			if( !m_LastTargetName.IsEmpty() )

  0008c	8b ce		 mov	 ecx, esi
  0008e	ff 15 00 00 00
	00		 call	 DWORD PTR __imp_?IsEmpty@ioHashString@@QBE_NXZ

; 668  : 			{
; 669  : 				pChar->SetTargetMarkerTarget( m_LastTargetName, false, TT_OTHER );

  00094	6a 01		 push	 1
  00096	8d 8f cc 01 00
	00		 lea	 ecx, DWORD PTR [edi+460]
  0009c	6a 00		 push	 0
  0009e	84 c0		 test	 al, al
  000a0	0f 85 f4 00 00
	00		 jne	 $LN2@ApplyExtra
  000a6	56		 push	 esi
  000a7	e8 00 00 00 00	 call	 ?SetTargetMarkerTarget@ioBaseGUISupport@@QAEXABVioHashString@@_NW4TargetedType@@@Z ; ioBaseGUISupport::SetTargetMarkerTarget

; 670  : 				pChar->SetTargetMarkerState( ioTargetMarker::MS_AIMED, TT_OTHER );

  000ac	6a 01		 push	 1

; 671  : 			}
; 672  : 			else

  000ae	e9 df 00 00 00	 jmp	 $LN23@ApplyExtra
$LN10@ApplyExtra:

; 610  : 	{
; 611  : 	case ST_STATE:
; 612  : 		{
; 613  : 			int iState;
; 614  : 			rkPacket >> iState;

  000b3	8d 45 10	 lea	 eax, DWORD PTR _iState$549576[ebp]
  000b6	50		 push	 eax
  000b7	8b cb		 mov	 ecx, ebx
  000b9	e8 00 00 00 00	 call	 ??5SP2Packet@@QAEAAV0@AAH@Z ; SP2Packet::operator>>

; 615  : 
; 616  : 			D3DXQUATERNION qtRot;
; 617  : 			rkPacket >> qtRot;

  000be	8d 45 f0	 lea	 eax, DWORD PTR _qtRot$549577[ebp]
  000c1	50		 push	 eax
  000c2	8b cb		 mov	 ecx, ebx
  000c4	e8 00 00 00 00	 call	 ??5SP2Packet@@QAEAAV0@AAUD3DXQUATERNION@@@Z ; SP2Packet::operator>>

; 618  : 
; 619  : 			pChar->SetTargetRotToRotate( qtRot, true, false );

  000c9	6a 00		 push	 0
  000cb	6a 01		 push	 1
  000cd	8d 45 f0	 lea	 eax, DWORD PTR _qtRot$549577[ebp]
  000d0	50		 push	 eax
  000d1	8b cf		 mov	 ecx, edi
  000d3	e8 00 00 00 00	 call	 ?SetTargetRotToRotate@ioBaseChar@@QAEXABUD3DXQUATERNION@@_N1@Z ; ioBaseChar::SetTargetRotToRotate

; 620  : 
; 621  : 			switch( iState )

  000d8	8b 45 10	 mov	 eax, DWORD PTR _iState$549576[ebp]
  000db	48		 dec	 eax
  000dc	0f 85 bd 00 00
	00		 jne	 $LN21@ApplyExtra

; 622  : 			{
; 623  : 			case SS_ACTION:
; 624  : 				{
; 625  : 					rkPacket >> m_vTargetPos;

  000e2	8d 86 e4 12 00
	00		 lea	 eax, DWORD PTR [esi+4836]
  000e8	50		 push	 eax
  000e9	8b cb		 mov	 ecx, ebx
  000eb	e8 00 00 00 00	 call	 ??5SP2Packet@@QAEAAV0@AAUD3DXVECTOR3@@@Z ; SP2Packet::operator>>

; 626  : 					AttackSkillFire( pChar );

  000f0	8b 06		 mov	 eax, DWORD PTR [esi]
  000f2	57		 push	 edi
  000f3	8b ce		 mov	 ecx, esi
  000f5	ff 90 8c 01 00
	00		 call	 DWORD PTR [eax+396]

; 627  : 
; 628  : 					rkPacket >> m_iCurFireCnt;

  000fb	8d 86 4c 11 00
	00		 lea	 eax, DWORD PTR [esi+4428]
  00101	50		 push	 eax
  00102	8b cb		 mov	 ecx, ebx
  00104	e8 00 00 00 00	 call	 ??5SP2Packet@@QAEAAV0@AAV?$CEncrypt@H@@@Z ; SP2Packet::operator>>

; 629  : 					rkPacket >> m_LastTargetName;

  00109	8d 86 d4 12 00
	00		 lea	 eax, DWORD PTR [esi+4820]
  0010f	50		 push	 eax
  00110	8b cb		 mov	 ecx, ebx
  00112	89 45 08	 mov	 DWORD PTR tv297[ebp], eax
  00115	e8 00 00 00 00	 call	 ??5SP2Packet@@QAEAAV0@AAVioHashString@@@Z ; SP2Packet::operator>>

; 630  : 
; 631  : 					if( !m_bSetHandMesh && m_bUseItemMesh && !m_HandMesh.IsEmpty() )

  0011a	80 be 0a 0f 00
	00 00		 cmp	 BYTE PTR [esi+3850], 0
  00121	75 33		 jne	 SHORT $LN6@ApplyExtra
  00123	80 be 08 0f 00
	00 00		 cmp	 BYTE PTR [esi+3848], 0
  0012a	74 2a		 je	 SHORT $LN6@ApplyExtra
  0012c	8d 9e f8 0e 00
	00		 lea	 ebx, DWORD PTR [esi+3832]
  00132	8b cb		 mov	 ecx, ebx
  00134	ff 15 00 00 00
	00		 call	 DWORD PTR __imp_?IsEmpty@ioHashString@@QBE_NXZ
  0013a	84 c0		 test	 al, al
  0013c	75 18		 jne	 SHORT $LN6@ApplyExtra

; 632  : 					{
; 633  : 						pChar->ChangeSkillWeaponMesh( this, m_HandMesh, m_bVisibleEquipMesh );

  0013e	0f b6 86 09 0f
	00 00		 movzx	 eax, BYTE PTR [esi+3849]
  00145	50		 push	 eax
  00146	53		 push	 ebx
  00147	56		 push	 esi
  00148	8b cf		 mov	 ecx, edi
  0014a	e8 00 00 00 00	 call	 ?ChangeSkillWeaponMesh@ioBaseChar@@QAE_NPAVioSkill@@ABVioHashString@@_N@Z ; ioBaseChar::ChangeSkillWeaponMesh

; 634  : 						m_bSetHandMesh = true;

  0014f	c6 86 0a 0f 00
	00 01		 mov	 BYTE PTR [esi+3850], 1
$LN6@ApplyExtra:

; 635  : 					}
; 636  : 
; 637  : 					m_SkillState = SS_ACTION;

  00156	33 db		 xor	 ebx, ebx
  00158	43		 inc	 ebx
  00159	89 9e e4 10 00
	00		 mov	 DWORD PTR [esi+4324], ebx

; 638  : 					m_dwActionStartTime = FRAMEGETTIME();

  0015f	ff 15 00 00 00
	00		 call	 DWORD PTR __imp_?GetSingleton@ioFrameTimer@@SAAAV1@XZ
  00165	8b c8		 mov	 ecx, eax
  00167	ff 15 00 00 00
	00		 call	 DWORD PTR __imp_?GetLoopSec@ioFrameTimer@@QBEKXZ

; 639  : 
; 640  : 					if( !m_LastTargetName.IsEmpty() )

  0016d	8b 4d 08	 mov	 ecx, DWORD PTR tv297[ebp]
  00170	89 86 18 11 00
	00		 mov	 DWORD PTR [esi+4376], eax
  00176	ff 15 00 00 00
	00		 call	 DWORD PTR __imp_?IsEmpty@ioHashString@@QBE_NXZ

; 641  : 					{
; 642  : 						pChar->SetTargetMarkerTarget( m_LastTargetName, false, TT_OTHER );

  0017c	53		 push	 ebx
  0017d	6a 00		 push	 0
  0017f	84 c0		 test	 al, al
  00181	75 11		 jne	 SHORT $LN22@ApplyExtra
  00183	ff 75 08	 push	 DWORD PTR tv297[ebp]
  00186	8d 8f cc 01 00
	00		 lea	 ecx, DWORD PTR [edi+460]
  0018c	e8 00 00 00 00	 call	 ?SetTargetMarkerTarget@ioBaseGUISupport@@QAEXABVioHashString@@_NW4TargetedType@@@Z ; ioBaseGUISupport::SetTargetMarkerTarget

; 643  : 						pChar->SetTargetMarkerState( ioTargetMarker::MS_AIMED, TT_OTHER );

  00191	53		 push	 ebx
$LN23@ApplyExtra:
  00192	6a 03		 push	 3
$LN22@ApplyExtra:

; 644  : 					}
; 645  : 					else
; 646  : 					{
; 647  : 						pChar->SetTargetMarkerState( ioTargetMarker::MS_NONE, TT_OTHER );

  00194	8d 8f cc 01 00
	00		 lea	 ecx, DWORD PTR [edi+460]
$LN2@ApplyExtra:
  0019a	e8 00 00 00 00	 call	 ?SetTargetMarkerState@ioBaseGUISupport@@QAEXW4MarkerState@ioTargetMarker@@W4TargetedType@@@Z ; ioBaseGUISupport::SetTargetMarkerState
$LN21@ApplyExtra:
  0019f	5b		 pop	 ebx
$LN4@ApplyExtra:
  001a0	5f		 pop	 edi
  001a1	5e		 pop	 esi

; 673  : 			{
; 674  : 				pChar->SetTargetMarkerState( ioTargetMarker::MS_NONE, TT_OTHER );
; 675  : 			}
; 676  : 		}
; 677  : 		break;
; 678  : 	}
; 679  : }

  001a2	c9		 leave
  001a3	c2 0c 00	 ret	 12			; 0000000cH
?ApplyExtraSkillInfo@ioFireSkill2@@UAEXPAVioBaseChar@@PAVioPlayStage@@AAVSP2Packet@@@Z ENDP ; ioFireSkill2::ApplyExtraSkillInfo
_TEXT	ENDS
PUBLIC	??H?$CEncrypt@M@@QAEMABM@Z			; CEncrypt<float>::operator+
; Function compile flags: /Ogsp
; File d:\lost saga for developer\youtube\tutorial\source\src\lsclient\encryptvalue.h
;	COMDAT ??H?$CEncrypt@M@@QAEMABM@Z
_TEXT	SEGMENT
_value$ = -4						; size = 4
tv130 = 8						; size = 4
_inValue$ = 8						; size = 4
??H?$CEncrypt@M@@QAEMABM@Z PROC				; CEncrypt<float>::operator+, COMDAT
; _this$ = ecx

; 1675 : 	{	

  00000	55		 push	 ebp
  00001	8b ec		 mov	 ebp, esp
  00003	51		 push	 ecx

; 1676 : 		type value;
; 1677 : 		DecryptValueToPool(&value);

  00004	8d 45 fc	 lea	 eax, DWORD PTR _value$[ebp]
  00007	50		 push	 eax
  00008	e8 00 00 00 00	 call	 ?DecryptValueToPool@?$CEncrypt@M@@QAEXPAM@Z ; CEncrypt<float>::DecryptValueToPool

; 1678 : #ifdef _NOTUSE
; 1679 : 		Debug();
; 1680 : #endif
; 1681 : 		return value + inValue;

  0000d	8b 45 08	 mov	 eax, DWORD PTR _inValue$[ebp]
  00010	d9 00		 fld	 DWORD PTR [eax]
  00012	d8 45 fc	 fadd	 DWORD PTR _value$[ebp]
  00015	d9 5d 08	 fstp	 DWORD PTR tv130[ebp]
  00018	d9 45 08	 fld	 DWORD PTR tv130[ebp]

; 1682 : 	}

  0001b	c9		 leave
  0001c	c2 04 00	 ret	 4
??H?$CEncrypt@M@@QAEMABM@Z ENDP				; CEncrypt<float>::operator+
_TEXT	ENDS
PUBLIC	??9?$CEncrypt@M@@QAE_NABM@Z			; CEncrypt<float>::operator!=
; Function compile flags: /Ogsp
;	COMDAT ??9?$CEncrypt@M@@QAE_NABM@Z
_TEXT	SEGMENT
_value$ = -4						; size = 4
_inValue$ = 8						; size = 4
??9?$CEncrypt@M@@QAE_NABM@Z PROC			; CEncrypt<float>::operator!=, COMDAT
; _this$ = ecx

; 1801 : 	{

  00000	55		 push	 ebp
  00001	8b ec		 mov	 ebp, esp
  00003	51		 push	 ecx

; 1802 : 		type value;
; 1803 : 		DecryptValueToPool(&value);

  00004	8d 45 fc	 lea	 eax, DWORD PTR _value$[ebp]
  00007	50		 push	 eax
  00008	e8 00 00 00 00	 call	 ?DecryptValueToPool@?$CEncrypt@M@@QAEXPAM@Z ; CEncrypt<float>::DecryptValueToPool

; 1804 : #ifdef _NOTUSE
; 1805 : 		Debug();
; 1806 : #endif
; 1807 : 		return (value != inValue);

  0000d	8b 45 08	 mov	 eax, DWORD PTR _inValue$[ebp]
  00010	f3 0f 10 08	 movss	 xmm1, DWORD PTR [eax]
  00014	f3 0f 10 45 fc	 movss	 xmm0, DWORD PTR _value$[ebp]
  00019	0f 5a c0	 cvtps2pd xmm0, xmm0
  0001c	0f 5a c9	 cvtps2pd xmm1, xmm1
  0001f	66 0f 2e c1	 ucomisd xmm0, xmm1
  00023	9f		 lahf
  00024	f6 c4 44	 test	 ah, 68			; 00000044H
  00027	7b 05		 jnp	 SHORT $LN3@operator@4
  00029	33 c0		 xor	 eax, eax
  0002b	40		 inc	 eax
  0002c	eb 02		 jmp	 SHORT $LN4@operator@4
$LN3@operator@4:
  0002e	33 c0		 xor	 eax, eax
$LN4@operator@4:

; 1808 : 	} 		

  00030	c9		 leave
  00031	c2 04 00	 ret	 4
??9?$CEncrypt@M@@QAE_NABM@Z ENDP			; CEncrypt<float>::operator!=
_TEXT	ENDS
PUBLIC	??M?$CEncrypt@H@@QAE_NABH@Z			; CEncrypt<int>::operator<
; Function compile flags: /Ogsp
;	COMDAT ??M?$CEncrypt@H@@QAE_NABH@Z
_TEXT	SEGMENT
_value$ = -4						; size = 4
_inValue$ = 8						; size = 4
??M?$CEncrypt@H@@QAE_NABH@Z PROC			; CEncrypt<int>::operator<, COMDAT
; _this$ = ecx

; 987  : 	{

  00000	55		 push	 ebp
  00001	8b ec		 mov	 ebp, esp
  00003	51		 push	 ecx

; 988  : 		
; 989  : 		type value;
; 990  : 		DecryptValueToPool(&value);

  00004	8d 45 fc	 lea	 eax, DWORD PTR _value$[ebp]
  00007	50		 push	 eax
  00008	e8 00 00 00 00	 call	 ?DecryptValueToPool@?$CEncrypt@H@@QAEXPAH@Z ; CEncrypt<int>::DecryptValueToPool

; 991  : #ifdef _NOTUSE
; 992  : 		Debug();
; 993  : #endif
; 994  : 		return (value < inValue);

  0000d	8b 4d 08	 mov	 ecx, DWORD PTR _inValue$[ebp]
  00010	8b 55 fc	 mov	 edx, DWORD PTR _value$[ebp]
  00013	33 c0		 xor	 eax, eax
  00015	3b 11		 cmp	 edx, DWORD PTR [ecx]
  00017	0f 9c c0	 setl	 al

; 995  : 	} 

  0001a	c9		 leave
  0001b	c2 04 00	 ret	 4
??M?$CEncrypt@H@@QAE_NABH@Z ENDP			; CEncrypt<int>::operator<
_TEXT	ENDS
PUBLIC	??0?$_Vector_iterator@V?$_Vector_val@PAVioBaseChar@@V?$allocator@PAVioBaseChar@@@std@@@std@@@std@@QAE@XZ ; std::_Vector_iterator<std::_Vector_val<ioBaseChar *,std::allocator<ioBaseChar *> > >::_Vector_iterator<std::_Vector_val<ioBaseChar *,std::allocator<ioBaseChar *> > >
; Function compile flags: /Ogsp
; File c:\program files (x86)\microsoft visual studio 10.0\vc\include\vector
;	COMDAT ??0?$_Vector_iterator@V?$_Vector_val@PAVioBaseChar@@V?$allocator@PAVioBaseChar@@@std@@@std@@@std@@QAE@XZ
_TEXT	SEGMENT
??0?$_Vector_iterator@V?$_Vector_val@PAVioBaseChar@@V?$allocator@PAVioBaseChar@@@std@@@std@@@std@@QAE@XZ PROC ; std::_Vector_iterator<std::_Vector_val<ioBaseChar *,std::allocator<ioBaseChar *> > >::_Vector_iterator<std::_Vector_val<ioBaseChar *,std::allocator<ioBaseChar *> > >, COMDAT
; _this$ = ecx

; 298  : 	_Vector_iterator()

  00000	8b c1		 mov	 eax, ecx
  00002	83 20 00	 and	 DWORD PTR [eax], 0

; 299  : 		{	// construct with null vector pointer
; 300  : 		}

  00005	c3		 ret	 0
??0?$_Vector_iterator@V?$_Vector_val@PAVioBaseChar@@V?$allocator@PAVioBaseChar@@@std@@@std@@@std@@QAE@XZ ENDP ; std::_Vector_iterator<std::_Vector_val<ioBaseChar *,std::allocator<ioBaseChar *> > >::_Vector_iterator<std::_Vector_val<ioBaseChar *,std::allocator<ioBaseChar *> > >
_TEXT	ENDS
PUBLIC	??D?$_Vector_iterator@V?$_Vector_val@PAVioBaseChar@@V?$allocator@PAVioBaseChar@@@std@@@std@@@std@@QBEAAPAVioBaseChar@@XZ ; std::_Vector_iterator<std::_Vector_val<ioBaseChar *,std::allocator<ioBaseChar *> > >::operator*
; Function compile flags: /Ogsp
;	COMDAT ??D?$_Vector_iterator@V?$_Vector_val@PAVioBaseChar@@V?$allocator@PAVioBaseChar@@@std@@@std@@@std@@QBEAAPAVioBaseChar@@XZ
_TEXT	SEGMENT
??D?$_Vector_iterator@V?$_Vector_val@PAVioBaseChar@@V?$allocator@PAVioBaseChar@@@std@@@std@@@std@@QBEAAPAVioBaseChar@@XZ PROC ; std::_Vector_iterator<std::_Vector_val<ioBaseChar *,std::allocator<ioBaseChar *> > >::operator*, COMDAT
; _this$ = ecx

; 322  : 		return ((reference)**(_Mybase *)this);

  00000	8b 01		 mov	 eax, DWORD PTR [ecx]

; 323  : 		}

  00002	c3		 ret	 0
??D?$_Vector_iterator@V?$_Vector_val@PAVioBaseChar@@V?$allocator@PAVioBaseChar@@@std@@@std@@@std@@QBEAAPAVioBaseChar@@XZ ENDP ; std::_Vector_iterator<std::_Vector_val<ioBaseChar *,std::allocator<ioBaseChar *> > >::operator*
_TEXT	ENDS
PUBLIC	??E?$_Vector_iterator@V?$_Vector_val@PAVioBaseChar@@V?$allocator@PAVioBaseChar@@@std@@@std@@@std@@QAEAAV01@XZ ; std::_Vector_iterator<std::_Vector_val<ioBaseChar *,std::allocator<ioBaseChar *> > >::operator++
; Function compile flags: /Ogsp
;	COMDAT ??E?$_Vector_iterator@V?$_Vector_val@PAVioBaseChar@@V?$allocator@PAVioBaseChar@@@std@@@std@@@std@@QAEAAV01@XZ
_TEXT	SEGMENT
??E?$_Vector_iterator@V?$_Vector_val@PAVioBaseChar@@V?$allocator@PAVioBaseChar@@@std@@@std@@@std@@QAEAAV01@XZ PROC ; std::_Vector_iterator<std::_Vector_val<ioBaseChar *,std::allocator<ioBaseChar *> > >::operator++, COMDAT
; _this$ = ecx

; 331  : 		{	// preincrement

  00000	8b c1		 mov	 eax, ecx

; 332  : 		++*(_Mybase *)this;

  00002	83 00 04	 add	 DWORD PTR [eax], 4

; 333  : 		return (*this);
; 334  : 		}

  00005	c3		 ret	 0
??E?$_Vector_iterator@V?$_Vector_val@PAVioBaseChar@@V?$allocator@PAVioBaseChar@@@std@@@std@@@std@@QAEAAV01@XZ ENDP ; std::_Vector_iterator<std::_Vector_val<ioBaseChar *,std::allocator<ioBaseChar *> > >::operator++
_TEXT	ENDS
PUBLIC	??D?$_Vector_iterator@V?$_Vector_val@UtagBaseCharDistanceSq@@V?$allocator@UtagBaseCharDistanceSq@@@std@@@std@@@std@@QBEAAUtagBaseCharDistanceSq@@XZ ; std::_Vector_iterator<std::_Vector_val<tagBaseCharDistanceSq,std::allocator<tagBaseCharDistanceSq> > >::operator*
; Function compile flags: /Ogsp
;	COMDAT ??D?$_Vector_iterator@V?$_Vector_val@UtagBaseCharDistanceSq@@V?$allocator@UtagBaseCharDistanceSq@@@std@@@std@@@std@@QBEAAUtagBaseCharDistanceSq@@XZ
_TEXT	SEGMENT
??D?$_Vector_iterator@V?$_Vector_val@UtagBaseCharDistanceSq@@V?$allocator@UtagBaseCharDistanceSq@@@std@@@std@@@std@@QBEAAUtagBaseCharDistanceSq@@XZ PROC ; std::_Vector_iterator<std::_Vector_val<tagBaseCharDistanceSq,std::allocator<tagBaseCharDistanceSq> > >::operator*, COMDAT
; _this$ = ecx

; 322  : 		return ((reference)**(_Mybase *)this);

  00000	8b 01		 mov	 eax, DWORD PTR [ecx]

; 323  : 		}

  00002	c3		 ret	 0
??D?$_Vector_iterator@V?$_Vector_val@UtagBaseCharDistanceSq@@V?$allocator@UtagBaseCharDistanceSq@@@std@@@std@@@std@@QBEAAUtagBaseCharDistanceSq@@XZ ENDP ; std::_Vector_iterator<std::_Vector_val<tagBaseCharDistanceSq,std::allocator<tagBaseCharDistanceSq> > >::operator*
_TEXT	ENDS
PUBLIC	??D?$_Vector_iterator@V?$_Vector_val@PBUAniEventTime@@V?$allocator@PBUAniEventTime@@@std@@@std@@@std@@QBEAAPBUAniEventTime@@XZ ; std::_Vector_iterator<std::_Vector_val<AniEventTime const *,std::allocator<AniEventTime const *> > >::operator*
; Function compile flags: /Ogsp
;	COMDAT ??D?$_Vector_iterator@V?$_Vector_val@PBUAniEventTime@@V?$allocator@PBUAniEventTime@@@std@@@std@@@std@@QBEAAPBUAniEventTime@@XZ
_TEXT	SEGMENT
??D?$_Vector_iterator@V?$_Vector_val@PBUAniEventTime@@V?$allocator@PBUAniEventTime@@@std@@@std@@@std@@QBEAAPBUAniEventTime@@XZ PROC ; std::_Vector_iterator<std::_Vector_val<AniEventTime const *,std::allocator<AniEventTime const *> > >::operator*, COMDAT
; _this$ = ecx

; 322  : 		return ((reference)**(_Mybase *)this);

  00000	8b 01		 mov	 eax, DWORD PTR [ecx]

; 323  : 		}

  00002	c3		 ret	 0
??D?$_Vector_iterator@V?$_Vector_val@PBUAniEventTime@@V?$allocator@PBUAniEventTime@@@std@@@std@@@std@@QBEAAPBUAniEventTime@@XZ ENDP ; std::_Vector_iterator<std::_Vector_val<AniEventTime const *,std::allocator<AniEventTime const *> > >::operator*
_TEXT	ENDS
PUBLIC	??E?$_Vector_iterator@V?$_Vector_val@PBUAniEventTime@@V?$allocator@PBUAniEventTime@@@std@@@std@@@std@@QAEAAV01@XZ ; std::_Vector_iterator<std::_Vector_val<AniEventTime const *,std::allocator<AniEventTime const *> > >::operator++
; Function compile flags: /Ogsp
;	COMDAT ??E?$_Vector_iterator@V?$_Vector_val@PBUAniEventTime@@V?$allocator@PBUAniEventTime@@@std@@@std@@@std@@QAEAAV01@XZ
_TEXT	SEGMENT
??E?$_Vector_iterator@V?$_Vector_val@PBUAniEventTime@@V?$allocator@PBUAniEventTime@@@std@@@std@@@std@@QAEAAV01@XZ PROC ; std::_Vector_iterator<std::_Vector_val<AniEventTime const *,std::allocator<AniEventTime const *> > >::operator++, COMDAT
; _this$ = ecx

; 331  : 		{	// preincrement

  00000	8b c1		 mov	 eax, ecx

; 332  : 		++*(_Mybase *)this;

  00002	83 00 04	 add	 DWORD PTR [eax], 4

; 333  : 		return (*this);
; 334  : 		}

  00005	c3		 ret	 0
??E?$_Vector_iterator@V?$_Vector_val@PBUAniEventTime@@V?$allocator@PBUAniEventTime@@@std@@@std@@@std@@QAEAAV01@XZ ENDP ; std::_Vector_iterator<std::_Vector_val<AniEventTime const *,std::allocator<AniEventTime const *> > >::operator++
_TEXT	ENDS
PUBLIC	??0?$_Vector_val@PAVioBaseChar@@V?$allocator@PAVioBaseChar@@@std@@@std@@QAE@V?$allocator@PAVioBaseChar@@@1@@Z ; std::_Vector_val<ioBaseChar *,std::allocator<ioBaseChar *> >::_Vector_val<ioBaseChar *,std::allocator<ioBaseChar *> >
; Function compile flags: /Ogsp
;	COMDAT ??0?$_Vector_val@PAVioBaseChar@@V?$allocator@PAVioBaseChar@@@std@@@std@@QAE@V?$allocator@PAVioBaseChar@@@1@@Z
_TEXT	SEGMENT
__Al$ = 8						; size = 1
??0?$_Vector_val@PAVioBaseChar@@V?$allocator@PAVioBaseChar@@@std@@@std@@QAE@V?$allocator@PAVioBaseChar@@@1@@Z PROC ; std::_Vector_val<ioBaseChar *,std::allocator<ioBaseChar *> >::_Vector_val<ioBaseChar *,std::allocator<ioBaseChar *> >, COMDAT
; _this$ = ecx

; 426  : 		{	// construct allocator from _Al

  00000	8b c1		 mov	 eax, ecx

; 427  : 		_Myfirst = 0;

  00002	33 c9		 xor	 ecx, ecx
  00004	89 08		 mov	 DWORD PTR [eax], ecx

; 428  : 		_Mylast = 0;

  00006	89 48 04	 mov	 DWORD PTR [eax+4], ecx

; 429  : 		_Myend = 0;

  00009	89 48 08	 mov	 DWORD PTR [eax+8], ecx

; 430  : 		}

  0000c	c2 04 00	 ret	 4
??0?$_Vector_val@PAVioBaseChar@@V?$allocator@PAVioBaseChar@@@std@@@std@@QAE@V?$allocator@PAVioBaseChar@@@1@@Z ENDP ; std::_Vector_val<ioBaseChar *,std::allocator<ioBaseChar *> >::_Vector_val<ioBaseChar *,std::allocator<ioBaseChar *> >
_TEXT	ENDS
PUBLIC	??0?$_Vector_val@UtagBaseCharDistanceSq@@V?$allocator@UtagBaseCharDistanceSq@@@std@@@std@@QAE@V?$allocator@UtagBaseCharDistanceSq@@@1@@Z ; std::_Vector_val<tagBaseCharDistanceSq,std::allocator<tagBaseCharDistanceSq> >::_Vector_val<tagBaseCharDistanceSq,std::allocator<tagBaseCharDistanceSq> >
; Function compile flags: /Ogsp
;	COMDAT ??0?$_Vector_val@UtagBaseCharDistanceSq@@V?$allocator@UtagBaseCharDistanceSq@@@std@@@std@@QAE@V?$allocator@UtagBaseCharDistanceSq@@@1@@Z
_TEXT	SEGMENT
__Al$ = 8						; size = 1
??0?$_Vector_val@UtagBaseCharDistanceSq@@V?$allocator@UtagBaseCharDistanceSq@@@std@@@std@@QAE@V?$allocator@UtagBaseCharDistanceSq@@@1@@Z PROC ; std::_Vector_val<tagBaseCharDistanceSq,std::allocator<tagBaseCharDistanceSq> >::_Vector_val<tagBaseCharDistanceSq,std::allocator<tagBaseCharDistanceSq> >, COMDAT
; _this$ = ecx

; 426  : 		{	// construct allocator from _Al

  00000	8b c1		 mov	 eax, ecx

; 427  : 		_Myfirst = 0;

  00002	33 c9		 xor	 ecx, ecx
  00004	89 08		 mov	 DWORD PTR [eax], ecx

; 428  : 		_Mylast = 0;

  00006	89 48 04	 mov	 DWORD PTR [eax+4], ecx

; 429  : 		_Myend = 0;

  00009	89 48 08	 mov	 DWORD PTR [eax+8], ecx

; 430  : 		}

  0000c	c2 04 00	 ret	 4
??0?$_Vector_val@UtagBaseCharDistanceSq@@V?$allocator@UtagBaseCharDistanceSq@@@std@@@std@@QAE@V?$allocator@UtagBaseCharDistanceSq@@@1@@Z ENDP ; std::_Vector_val<tagBaseCharDistanceSq,std::allocator<tagBaseCharDistanceSq> >::_Vector_val<tagBaseCharDistanceSq,std::allocator<tagBaseCharDistanceSq> >
_TEXT	ENDS
PUBLIC	??0?$_Vector_iterator@V?$_Vector_val@PAVioBaseChar@@V?$allocator@PAVioBaseChar@@@std@@@std@@@std@@QAE@PAPAVioBaseChar@@PBU_Container_base0@1@@Z ; std::_Vector_iterator<std::_Vector_val<ioBaseChar *,std::allocator<ioBaseChar *> > >::_Vector_iterator<std::_Vector_val<ioBaseChar *,std::allocator<ioBaseChar *> > >
; Function compile flags: /Ogsp
;	COMDAT ??0?$_Vector_iterator@V?$_Vector_val@PAVioBaseChar@@V?$allocator@PAVioBaseChar@@@std@@@std@@@std@@QAE@PAPAVioBaseChar@@PBU_Container_base0@1@@Z
_TEXT	SEGMENT
__Parg$ = 8						; size = 4
__Pvector$ = 12						; size = 4
??0?$_Vector_iterator@V?$_Vector_val@PAVioBaseChar@@V?$allocator@PAVioBaseChar@@@std@@@std@@@std@@QAE@PAPAVioBaseChar@@PBU_Container_base0@1@@Z PROC ; std::_Vector_iterator<std::_Vector_val<ioBaseChar *,std::allocator<ioBaseChar *> > >::_Vector_iterator<std::_Vector_val<ioBaseChar *,std::allocator<ioBaseChar *> > >, COMDAT
; _this$ = ecx

; 304  : 		{	// construct with pointer _Parg

  00000	55		 push	 ebp
  00001	8b ec		 mov	 ebp, esp
  00003	8b c1		 mov	 eax, ecx
  00005	8b 4d 08	 mov	 ecx, DWORD PTR __Parg$[ebp]
  00008	89 08		 mov	 DWORD PTR [eax], ecx

; 305  : 		}

  0000a	5d		 pop	 ebp
  0000b	c2 08 00	 ret	 8
??0?$_Vector_iterator@V?$_Vector_val@PAVioBaseChar@@V?$allocator@PAVioBaseChar@@@std@@@std@@@std@@QAE@PAPAVioBaseChar@@PBU_Container_base0@1@@Z ENDP ; std::_Vector_iterator<std::_Vector_val<ioBaseChar *,std::allocator<ioBaseChar *> > >::_Vector_iterator<std::_Vector_val<ioBaseChar *,std::allocator<ioBaseChar *> > >
_TEXT	ENDS
PUBLIC	??8?$_Vector_const_iterator@V?$_Vector_val@PAVioBaseChar@@V?$allocator@PAVioBaseChar@@@std@@@std@@@std@@QBE_NABV01@@Z ; std::_Vector_const_iterator<std::_Vector_val<ioBaseChar *,std::allocator<ioBaseChar *> > >::operator==
; Function compile flags: /Ogsp
;	COMDAT ??8?$_Vector_const_iterator@V?$_Vector_val@PAVioBaseChar@@V?$allocator@PAVioBaseChar@@@std@@@std@@@std@@QBE_NABV01@@Z
_TEXT	SEGMENT
__Right$ = 8						; size = 4
??8?$_Vector_const_iterator@V?$_Vector_val@PAVioBaseChar@@V?$allocator@PAVioBaseChar@@@std@@@std@@@std@@QBE_NABV01@@Z PROC ; std::_Vector_const_iterator<std::_Vector_val<ioBaseChar *,std::allocator<ioBaseChar *> > >::operator==, COMDAT
; _this$ = ecx

; 201  : 		{	// test for iterator equality

  00000	55		 push	 ebp
  00001	8b ec		 mov	 ebp, esp

; 202  : 		_Compat(_Right);
; 203  : 		return (this->_Ptr == _Right._Ptr);

  00003	8b 01		 mov	 eax, DWORD PTR [ecx]
  00005	8b 4d 08	 mov	 ecx, DWORD PTR __Right$[ebp]
  00008	2b 01		 sub	 eax, DWORD PTR [ecx]
  0000a	f7 d8		 neg	 eax
  0000c	1b c0		 sbb	 eax, eax
  0000e	40		 inc	 eax

; 204  : 		}

  0000f	5d		 pop	 ebp
  00010	c2 04 00	 ret	 4
??8?$_Vector_const_iterator@V?$_Vector_val@PAVioBaseChar@@V?$allocator@PAVioBaseChar@@@std@@@std@@@std@@QBE_NABV01@@Z ENDP ; std::_Vector_const_iterator<std::_Vector_val<ioBaseChar *,std::allocator<ioBaseChar *> > >::operator==
_TEXT	ENDS
PUBLIC	??0?$_Vector_iterator@V?$_Vector_val@UtagBaseCharDistanceSq@@V?$allocator@UtagBaseCharDistanceSq@@@std@@@std@@@std@@QAE@PAUtagBaseCharDistanceSq@@PBU_Container_base0@1@@Z ; std::_Vector_iterator<std::_Vector_val<tagBaseCharDistanceSq,std::allocator<tagBaseCharDistanceSq> > >::_Vector_iterator<std::_Vector_val<tagBaseCharDistanceSq,std::allocator<tagBaseCharDistanceSq> > >
; Function compile flags: /Ogsp
;	COMDAT ??0?$_Vector_iterator@V?$_Vector_val@UtagBaseCharDistanceSq@@V?$allocator@UtagBaseCharDistanceSq@@@std@@@std@@@std@@QAE@PAUtagBaseCharDistanceSq@@PBU_Container_base0@1@@Z
_TEXT	SEGMENT
__Parg$ = 8						; size = 4
__Pvector$ = 12						; size = 4
??0?$_Vector_iterator@V?$_Vector_val@UtagBaseCharDistanceSq@@V?$allocator@UtagBaseCharDistanceSq@@@std@@@std@@@std@@QAE@PAUtagBaseCharDistanceSq@@PBU_Container_base0@1@@Z PROC ; std::_Vector_iterator<std::_Vector_val<tagBaseCharDistanceSq,std::allocator<tagBaseCharDistanceSq> > >::_Vector_iterator<std::_Vector_val<tagBaseCharDistanceSq,std::allocator<tagBaseCharDistanceSq> > >, COMDAT
; _this$ = ecx

; 304  : 		{	// construct with pointer _Parg

  00000	55		 push	 ebp
  00001	8b ec		 mov	 ebp, esp
  00003	8b c1		 mov	 eax, ecx
  00005	8b 4d 08	 mov	 ecx, DWORD PTR __Parg$[ebp]
  00008	89 08		 mov	 DWORD PTR [eax], ecx

; 305  : 		}

  0000a	5d		 pop	 ebp
  0000b	c2 08 00	 ret	 8
??0?$_Vector_iterator@V?$_Vector_val@UtagBaseCharDistanceSq@@V?$allocator@UtagBaseCharDistanceSq@@@std@@@std@@@std@@QAE@PAUtagBaseCharDistanceSq@@PBU_Container_base0@1@@Z ENDP ; std::_Vector_iterator<std::_Vector_val<tagBaseCharDistanceSq,std::allocator<tagBaseCharDistanceSq> > >::_Vector_iterator<std::_Vector_val<tagBaseCharDistanceSq,std::allocator<tagBaseCharDistanceSq> > >
_TEXT	ENDS
PUBLIC	??E?$_Vector_iterator@V?$_Vector_val@UtagBaseCharDistanceSq@@V?$allocator@UtagBaseCharDistanceSq@@@std@@@std@@@std@@QAEAAV01@XZ ; std::_Vector_iterator<std::_Vector_val<tagBaseCharDistanceSq,std::allocator<tagBaseCharDistanceSq> > >::operator++
; Function compile flags: /Ogsp
;	COMDAT ??E?$_Vector_iterator@V?$_Vector_val@UtagBaseCharDistanceSq@@V?$allocator@UtagBaseCharDistanceSq@@@std@@@std@@@std@@QAEAAV01@XZ
_TEXT	SEGMENT
??E?$_Vector_iterator@V?$_Vector_val@UtagBaseCharDistanceSq@@V?$allocator@UtagBaseCharDistanceSq@@@std@@@std@@@std@@QAEAAV01@XZ PROC ; std::_Vector_iterator<std::_Vector_val<tagBaseCharDistanceSq,std::allocator<tagBaseCharDistanceSq> > >::operator++, COMDAT
; _this$ = ecx

; 331  : 		{	// preincrement

  00000	8b c1		 mov	 eax, ecx

; 332  : 		++*(_Mybase *)this;

  00002	83 00 20	 add	 DWORD PTR [eax], 32	; 00000020H

; 333  : 		return (*this);
; 334  : 		}

  00005	c3		 ret	 0
??E?$_Vector_iterator@V?$_Vector_val@UtagBaseCharDistanceSq@@V?$allocator@UtagBaseCharDistanceSq@@@std@@@std@@@std@@QAEAAV01@XZ ENDP ; std::_Vector_iterator<std::_Vector_val<tagBaseCharDistanceSq,std::allocator<tagBaseCharDistanceSq> > >::operator++
_TEXT	ENDS
PUBLIC	??8?$_Vector_const_iterator@V?$_Vector_val@UtagBaseCharDistanceSq@@V?$allocator@UtagBaseCharDistanceSq@@@std@@@std@@@std@@QBE_NABV01@@Z ; std::_Vector_const_iterator<std::_Vector_val<tagBaseCharDistanceSq,std::allocator<tagBaseCharDistanceSq> > >::operator==
; Function compile flags: /Ogsp
;	COMDAT ??8?$_Vector_const_iterator@V?$_Vector_val@UtagBaseCharDistanceSq@@V?$allocator@UtagBaseCharDistanceSq@@@std@@@std@@@std@@QBE_NABV01@@Z
_TEXT	SEGMENT
__Right$ = 8						; size = 4
??8?$_Vector_const_iterator@V?$_Vector_val@UtagBaseCharDistanceSq@@V?$allocator@UtagBaseCharDistanceSq@@@std@@@std@@@std@@QBE_NABV01@@Z PROC ; std::_Vector_const_iterator<std::_Vector_val<tagBaseCharDistanceSq,std::allocator<tagBaseCharDistanceSq> > >::operator==, COMDAT
; _this$ = ecx

; 201  : 		{	// test for iterator equality

  00000	55		 push	 ebp
  00001	8b ec		 mov	 ebp, esp

; 202  : 		_Compat(_Right);
; 203  : 		return (this->_Ptr == _Right._Ptr);

  00003	8b 01		 mov	 eax, DWORD PTR [ecx]
  00005	8b 4d 08	 mov	 ecx, DWORD PTR __Right$[ebp]
  00008	2b 01		 sub	 eax, DWORD PTR [ecx]
  0000a	f7 d8		 neg	 eax
  0000c	1b c0		 sbb	 eax, eax
  0000e	40		 inc	 eax

; 204  : 		}

  0000f	5d		 pop	 ebp
  00010	c2 04 00	 ret	 4
??8?$_Vector_const_iterator@V?$_Vector_val@UtagBaseCharDistanceSq@@V?$allocator@UtagBaseCharDistanceSq@@@std@@@std@@@std@@QBE_NABV01@@Z ENDP ; std::_Vector_const_iterator<std::_Vector_val<tagBaseCharDistanceSq,std::allocator<tagBaseCharDistanceSq> > >::operator==
_TEXT	ENDS
PUBLIC	??0?$_Vector_val@PBUAniEventTime@@V?$allocator@PBUAniEventTime@@@std@@@std@@QAE@V?$allocator@PBUAniEventTime@@@1@@Z ; std::_Vector_val<AniEventTime const *,std::allocator<AniEventTime const *> >::_Vector_val<AniEventTime const *,std::allocator<AniEventTime const *> >
; Function compile flags: /Ogsp
;	COMDAT ??0?$_Vector_val@PBUAniEventTime@@V?$allocator@PBUAniEventTime@@@std@@@std@@QAE@V?$allocator@PBUAniEventTime@@@1@@Z
_TEXT	SEGMENT
__Al$ = 8						; size = 1
??0?$_Vector_val@PBUAniEventTime@@V?$allocator@PBUAniEventTime@@@std@@@std@@QAE@V?$allocator@PBUAniEventTime@@@1@@Z PROC ; std::_Vector_val<AniEventTime const *,std::allocator<AniEventTime const *> >::_Vector_val<AniEventTime const *,std::allocator<AniEventTime const *> >, COMDAT
; _this$ = ecx

; 426  : 		{	// construct allocator from _Al

  00000	8b c1		 mov	 eax, ecx

; 427  : 		_Myfirst = 0;

  00002	33 c9		 xor	 ecx, ecx
  00004	89 08		 mov	 DWORD PTR [eax], ecx

; 428  : 		_Mylast = 0;

  00006	89 48 04	 mov	 DWORD PTR [eax+4], ecx

; 429  : 		_Myend = 0;

  00009	89 48 08	 mov	 DWORD PTR [eax+8], ecx

; 430  : 		}

  0000c	c2 04 00	 ret	 4
??0?$_Vector_val@PBUAniEventTime@@V?$allocator@PBUAniEventTime@@@std@@@std@@QAE@V?$allocator@PBUAniEventTime@@@1@@Z ENDP ; std::_Vector_val<AniEventTime const *,std::allocator<AniEventTime const *> >::_Vector_val<AniEventTime const *,std::allocator<AniEventTime const *> >
_TEXT	ENDS
PUBLIC	??0?$_Vector_iterator@V?$_Vector_val@PBUAniEventTime@@V?$allocator@PBUAniEventTime@@@std@@@std@@@std@@QAE@PAPBUAniEventTime@@PBU_Container_base0@1@@Z ; std::_Vector_iterator<std::_Vector_val<AniEventTime const *,std::allocator<AniEventTime const *> > >::_Vector_iterator<std::_Vector_val<AniEventTime const *,std::allocator<AniEventTime const *> > >
; Function compile flags: /Ogsp
;	COMDAT ??0?$_Vector_iterator@V?$_Vector_val@PBUAniEventTime@@V?$allocator@PBUAniEventTime@@@std@@@std@@@std@@QAE@PAPBUAniEventTime@@PBU_Container_base0@1@@Z
_TEXT	SEGMENT
__Parg$ = 8						; size = 4
__Pvector$ = 12						; size = 4
??0?$_Vector_iterator@V?$_Vector_val@PBUAniEventTime@@V?$allocator@PBUAniEventTime@@@std@@@std@@@std@@QAE@PAPBUAniEventTime@@PBU_Container_base0@1@@Z PROC ; std::_Vector_iterator<std::_Vector_val<AniEventTime const *,std::allocator<AniEventTime const *> > >::_Vector_iterator<std::_Vector_val<AniEventTime const *,std::allocator<AniEventTime const *> > >, COMDAT
; _this$ = ecx

; 304  : 		{	// construct with pointer _Parg

  00000	55		 push	 ebp
  00001	8b ec		 mov	 ebp, esp
  00003	8b c1		 mov	 eax, ecx
  00005	8b 4d 08	 mov	 ecx, DWORD PTR __Parg$[ebp]
  00008	89 08		 mov	 DWORD PTR [eax], ecx

; 305  : 		}

  0000a	5d		 pop	 ebp
  0000b	c2 08 00	 ret	 8
??0?$_Vector_iterator@V?$_Vector_val@PBUAniEventTime@@V?$allocator@PBUAniEventTime@@@std@@@std@@@std@@QAE@PAPBUAniEventTime@@PBU_Container_base0@1@@Z ENDP ; std::_Vector_iterator<std::_Vector_val<AniEventTime const *,std::allocator<AniEventTime const *> > >::_Vector_iterator<std::_Vector_val<AniEventTime const *,std::allocator<AniEventTime const *> > >
_TEXT	ENDS
PUBLIC	??8?$_Vector_const_iterator@V?$_Vector_val@PBUAniEventTime@@V?$allocator@PBUAniEventTime@@@std@@@std@@@std@@QBE_NABV01@@Z ; std::_Vector_const_iterator<std::_Vector_val<AniEventTime const *,std::allocator<AniEventTime const *> > >::operator==
; Function compile flags: /Ogsp
;	COMDAT ??8?$_Vector_const_iterator@V?$_Vector_val@PBUAniEventTime@@V?$allocator@PBUAniEventTime@@@std@@@std@@@std@@QBE_NABV01@@Z
_TEXT	SEGMENT
__Right$ = 8						; size = 4
??8?$_Vector_const_iterator@V?$_Vector_val@PBUAniEventTime@@V?$allocator@PBUAniEventTime@@@std@@@std@@@std@@QBE_NABV01@@Z PROC ; std::_Vector_const_iterator<std::_Vector_val<AniEventTime const *,std::allocator<AniEventTime const *> > >::operator==, COMDAT
; _this$ = ecx

; 201  : 		{	// test for iterator equality

  00000	55		 push	 ebp
  00001	8b ec		 mov	 ebp, esp

; 202  : 		_Compat(_Right);
; 203  : 		return (this->_Ptr == _Right._Ptr);

  00003	8b 01		 mov	 eax, DWORD PTR [ecx]
  00005	8b 4d 08	 mov	 ecx, DWORD PTR __Right$[ebp]
  00008	2b 01		 sub	 eax, DWORD PTR [ecx]
  0000a	f7 d8		 neg	 eax
  0000c	1b c0		 sbb	 eax, eax
  0000e	40		 inc	 eax

; 204  : 		}

  0000f	5d		 pop	 ebp
  00010	c2 04 00	 ret	 4
??8?$_Vector_const_iterator@V?$_Vector_val@PBUAniEventTime@@V?$allocator@PBUAniEventTime@@@std@@@std@@@std@@QBE_NABV01@@Z ENDP ; std::_Vector_const_iterator<std::_Vector_val<AniEventTime const *,std::allocator<AniEventTime const *> > >::operator==
_TEXT	ENDS
PUBLIC	?_Make_iter@?$vector@PAVioBaseChar@@V?$allocator@PAVioBaseChar@@@std@@@std@@QBE?AV?$_Vector_iterator@V?$_Vector_val@PAVioBaseChar@@V?$allocator@PAVioBaseChar@@@std@@@std@@@2@V?$_Vector_const_iterator@V?$_Vector_val@PAVioBaseChar@@V?$allocator@PAVioBaseChar@@@std@@@std@@@2@@Z ; std::vector<ioBaseChar *,std::allocator<ioBaseChar *> >::_Make_iter
; Function compile flags: /Ogsp
;	COMDAT ?_Make_iter@?$vector@PAVioBaseChar@@V?$allocator@PAVioBaseChar@@@std@@@std@@QBE?AV?$_Vector_iterator@V?$_Vector_val@PAVioBaseChar@@V?$allocator@PAVioBaseChar@@@std@@@std@@@2@V?$_Vector_const_iterator@V?$_Vector_val@PAVioBaseChar@@V?$allocator@PAVioBaseChar@@@std@@@std@@@2@@Z
_TEXT	SEGMENT
___$ReturnUdt$ = 8					; size = 4
__Where$ = 12						; size = 4
?_Make_iter@?$vector@PAVioBaseChar@@V?$allocator@PAVioBaseChar@@@std@@@std@@QBE?AV?$_Vector_iterator@V?$_Vector_val@PAVioBaseChar@@V?$allocator@PAVioBaseChar@@@std@@@std@@@2@V?$_Vector_const_iterator@V?$_Vector_val@PAVioBaseChar@@V?$allocator@PAVioBaseChar@@@std@@@std@@@2@@Z PROC ; std::vector<ioBaseChar *,std::allocator<ioBaseChar *> >::_Make_iter, COMDAT
; _this$ = ecx

; 801  : 		{	// make iterator from const_iterator

  00000	55		 push	 ebp
  00001	8b ec		 mov	 ebp, esp

; 802  : 		return (iterator(_Where._Ptr, this));

  00003	8b 45 08	 mov	 eax, DWORD PTR ___$ReturnUdt$[ebp]
  00006	8b 4d 0c	 mov	 ecx, DWORD PTR __Where$[ebp]
  00009	89 08		 mov	 DWORD PTR [eax], ecx

; 803  : 		}

  0000b	5d		 pop	 ebp
  0000c	c2 08 00	 ret	 8
?_Make_iter@?$vector@PAVioBaseChar@@V?$allocator@PAVioBaseChar@@@std@@@std@@QBE?AV?$_Vector_iterator@V?$_Vector_val@PAVioBaseChar@@V?$allocator@PAVioBaseChar@@@std@@@std@@@2@V?$_Vector_const_iterator@V?$_Vector_val@PAVioBaseChar@@V?$allocator@PAVioBaseChar@@@std@@@std@@@2@@Z ENDP ; std::vector<ioBaseChar *,std::allocator<ioBaseChar *> >::_Make_iter
_TEXT	ENDS
PUBLIC	?max_size@?$vector@UAniRotateInfo@@V?$allocator@UAniRotateInfo@@@std@@@std@@QBEIXZ ; std::vector<AniRotateInfo,std::allocator<AniRotateInfo> >::max_size
; Function compile flags: /Ogsp
;	COMDAT ?max_size@?$vector@UAniRotateInfo@@V?$allocator@UAniRotateInfo@@@std@@@std@@QBEIXZ
_TEXT	SEGMENT
?max_size@?$vector@UAniRotateInfo@@V?$allocator@UAniRotateInfo@@@std@@@std@@QBEIXZ PROC ; std::vector<AniRotateInfo,std::allocator<AniRotateInfo> >::max_size, COMDAT
; _this$ = ecx

; 884  : 		return (this->_Alval.max_size());

  00000	b8 ff ff ff 1f	 mov	 eax, 536870911		; 1fffffffH

; 885  : 		}

  00005	c3		 ret	 0
?max_size@?$vector@UAniRotateInfo@@V?$allocator@UAniRotateInfo@@@std@@@std@@QBEIXZ ENDP ; std::vector<AniRotateInfo,std::allocator<AniRotateInfo> >::max_size
_TEXT	ENDS
PUBLIC	?_Grow_to@?$vector@UAniRotateInfo@@V?$allocator@UAniRotateInfo@@@std@@@std@@IBEII@Z ; std::vector<AniRotateInfo,std::allocator<AniRotateInfo> >::_Grow_to
; Function compile flags: /Ogsp
;	COMDAT ?_Grow_to@?$vector@UAniRotateInfo@@V?$allocator@UAniRotateInfo@@@std@@@std@@IBEII@Z
_TEXT	SEGMENT
__Count$ = 8						; size = 4
?_Grow_to@?$vector@UAniRotateInfo@@V?$allocator@UAniRotateInfo@@@std@@@std@@IBEII@Z PROC ; std::vector<AniRotateInfo,std::allocator<AniRotateInfo> >::_Grow_to, COMDAT
; _this$ = ecx

; 1274 : 		{	// grow by 50% or at least to _Count

  00000	55		 push	 ebp
  00001	8b ec		 mov	 ebp, esp

; 1275 : 		size_type _Capacity = capacity();

  00003	8b 41 08	 mov	 eax, DWORD PTR [ecx+8]
  00006	2b 01		 sub	 eax, DWORD PTR [ecx]

; 1276 : 
; 1277 : 		_Capacity = max_size() - _Capacity / 2 < _Capacity
; 1278 : 			? 0 : _Capacity + _Capacity / 2;	// try to grow by 50%

  00008	ba ff ff ff 1f	 mov	 edx, 536870911		; 1fffffffH
  0000d	c1 f8 03	 sar	 eax, 3
  00010	8b c8		 mov	 ecx, eax
  00012	d1 e9		 shr	 ecx, 1
  00014	2b d1		 sub	 edx, ecx
  00016	3b d0		 cmp	 edx, eax
  00018	73 04		 jae	 SHORT $LN4@Grow_to
  0001a	33 c0		 xor	 eax, eax
  0001c	eb 02		 jmp	 SHORT $LN5@Grow_to
$LN4@Grow_to:
  0001e	03 c1		 add	 eax, ecx
$LN5@Grow_to:

; 1279 : 		if (_Capacity < _Count)

  00020	3b 45 08	 cmp	 eax, DWORD PTR __Count$[ebp]

; 1280 : 			_Capacity = _Count;

  00023	0f 42 45 08	 cmovb	 eax, DWORD PTR __Count$[ebp]

; 1281 : 		return (_Capacity);
; 1282 : 		}

  00027	5d		 pop	 ebp
  00028	c2 04 00	 ret	 4
?_Grow_to@?$vector@UAniRotateInfo@@V?$allocator@UAniRotateInfo@@@std@@@std@@IBEII@Z ENDP ; std::vector<AniRotateInfo,std::allocator<AniRotateInfo> >::_Grow_to
_TEXT	ENDS
PUBLIC	?max_size@?$vector@UtagBaseCharDistanceSq@@V?$allocator@UtagBaseCharDistanceSq@@@std@@@std@@QBEIXZ ; std::vector<tagBaseCharDistanceSq,std::allocator<tagBaseCharDistanceSq> >::max_size
; Function compile flags: /Ogsp
;	COMDAT ?max_size@?$vector@UtagBaseCharDistanceSq@@V?$allocator@UtagBaseCharDistanceSq@@@std@@@std@@QBEIXZ
_TEXT	SEGMENT
?max_size@?$vector@UtagBaseCharDistanceSq@@V?$allocator@UtagBaseCharDistanceSq@@@std@@@std@@QBEIXZ PROC ; std::vector<tagBaseCharDistanceSq,std::allocator<tagBaseCharDistanceSq> >::max_size, COMDAT
; _this$ = ecx

; 884  : 		return (this->_Alval.max_size());

  00000	b8 ff ff ff 07	 mov	 eax, 134217727		; 07ffffffH

; 885  : 		}

  00005	c3		 ret	 0
?max_size@?$vector@UtagBaseCharDistanceSq@@V?$allocator@UtagBaseCharDistanceSq@@@std@@@std@@QBEIXZ ENDP ; std::vector<tagBaseCharDistanceSq,std::allocator<tagBaseCharDistanceSq> >::max_size
_TEXT	ENDS
PUBLIC	?_Grow_to@?$vector@UtagBaseCharDistanceSq@@V?$allocator@UtagBaseCharDistanceSq@@@std@@@std@@IBEII@Z ; std::vector<tagBaseCharDistanceSq,std::allocator<tagBaseCharDistanceSq> >::_Grow_to
; Function compile flags: /Ogsp
;	COMDAT ?_Grow_to@?$vector@UtagBaseCharDistanceSq@@V?$allocator@UtagBaseCharDistanceSq@@@std@@@std@@IBEII@Z
_TEXT	SEGMENT
__Count$ = 8						; size = 4
?_Grow_to@?$vector@UtagBaseCharDistanceSq@@V?$allocator@UtagBaseCharDistanceSq@@@std@@@std@@IBEII@Z PROC ; std::vector<tagBaseCharDistanceSq,std::allocator<tagBaseCharDistanceSq> >::_Grow_to, COMDAT
; _this$ = ecx

; 1274 : 		{	// grow by 50% or at least to _Count

  00000	55		 push	 ebp
  00001	8b ec		 mov	 ebp, esp

; 1275 : 		size_type _Capacity = capacity();

  00003	8b 41 08	 mov	 eax, DWORD PTR [ecx+8]
  00006	2b 01		 sub	 eax, DWORD PTR [ecx]

; 1276 : 
; 1277 : 		_Capacity = max_size() - _Capacity / 2 < _Capacity
; 1278 : 			? 0 : _Capacity + _Capacity / 2;	// try to grow by 50%

  00008	ba ff ff ff 07	 mov	 edx, 134217727		; 07ffffffH
  0000d	c1 f8 05	 sar	 eax, 5
  00010	8b c8		 mov	 ecx, eax
  00012	d1 e9		 shr	 ecx, 1
  00014	2b d1		 sub	 edx, ecx
  00016	3b d0		 cmp	 edx, eax
  00018	73 04		 jae	 SHORT $LN4@Grow_to@2
  0001a	33 c0		 xor	 eax, eax
  0001c	eb 02		 jmp	 SHORT $LN5@Grow_to@2
$LN4@Grow_to@2:
  0001e	03 c1		 add	 eax, ecx
$LN5@Grow_to@2:

; 1279 : 		if (_Capacity < _Count)

  00020	3b 45 08	 cmp	 eax, DWORD PTR __Count$[ebp]

; 1280 : 			_Capacity = _Count;

  00023	0f 42 45 08	 cmovb	 eax, DWORD PTR __Count$[ebp]

; 1281 : 		return (_Capacity);
; 1282 : 		}

  00027	5d		 pop	 ebp
  00028	c2 04 00	 ret	 4
?_Grow_to@?$vector@UtagBaseCharDistanceSq@@V?$allocator@UtagBaseCharDistanceSq@@@std@@@std@@IBEII@Z ENDP ; std::vector<tagBaseCharDistanceSq,std::allocator<tagBaseCharDistanceSq> >::_Grow_to
_TEXT	ENDS
PUBLIC	??0?$_Vector_iterator@V?$_Vector_val@UAniRotateInfo@@V?$allocator@UAniRotateInfo@@@std@@@std@@@std@@QAE@PAUAniRotateInfo@@PBU_Container_base0@1@@Z ; std::_Vector_iterator<std::_Vector_val<AniRotateInfo,std::allocator<AniRotateInfo> > >::_Vector_iterator<std::_Vector_val<AniRotateInfo,std::allocator<AniRotateInfo> > >
; Function compile flags: /Ogsp
;	COMDAT ??0?$_Vector_iterator@V?$_Vector_val@UAniRotateInfo@@V?$allocator@UAniRotateInfo@@@std@@@std@@@std@@QAE@PAUAniRotateInfo@@PBU_Container_base0@1@@Z
_TEXT	SEGMENT
__Parg$ = 8						; size = 4
__Pvector$ = 12						; size = 4
??0?$_Vector_iterator@V?$_Vector_val@UAniRotateInfo@@V?$allocator@UAniRotateInfo@@@std@@@std@@@std@@QAE@PAUAniRotateInfo@@PBU_Container_base0@1@@Z PROC ; std::_Vector_iterator<std::_Vector_val<AniRotateInfo,std::allocator<AniRotateInfo> > >::_Vector_iterator<std::_Vector_val<AniRotateInfo,std::allocator<AniRotateInfo> > >, COMDAT
; _this$ = ecx

; 304  : 		{	// construct with pointer _Parg

  00000	55		 push	 ebp
  00001	8b ec		 mov	 ebp, esp
  00003	8b c1		 mov	 eax, ecx
  00005	8b 4d 08	 mov	 ecx, DWORD PTR __Parg$[ebp]
  00008	89 08		 mov	 DWORD PTR [eax], ecx

; 305  : 		}

  0000a	5d		 pop	 ebp
  0000b	c2 08 00	 ret	 8
??0?$_Vector_iterator@V?$_Vector_val@UAniRotateInfo@@V?$allocator@UAniRotateInfo@@@std@@@std@@@std@@QAE@PAUAniRotateInfo@@PBU_Container_base0@1@@Z ENDP ; std::_Vector_iterator<std::_Vector_val<AniRotateInfo,std::allocator<AniRotateInfo> > >::_Vector_iterator<std::_Vector_val<AniRotateInfo,std::allocator<AniRotateInfo> > >
_TEXT	ENDS
PUBLIC	?allocate@?$allocator@UAniRotateInfo@@@std@@QAEPAUAniRotateInfo@@I@Z ; std::allocator<AniRotateInfo>::allocate
; Function compile flags: /Ogsp
; File c:\program files (x86)\microsoft visual studio 10.0\vc\include\xmemory
;	COMDAT ?allocate@?$allocator@UAniRotateInfo@@@std@@QAEPAUAniRotateInfo@@I@Z
_TEXT	SEGMENT
__Count$ = 8						; size = 4
?allocate@?$allocator@UAniRotateInfo@@@std@@QAEPAUAniRotateInfo@@I@Z PROC ; std::allocator<AniRotateInfo>::allocate, COMDAT
; _this$ = ecx

; 186  : 		{	// allocate array of _Count elements

  00000	55		 push	 ebp
  00001	8b ec		 mov	 ebp, esp

; 187  : 		return (_Allocate(_Count, (pointer)0));

  00003	6a 00		 push	 0
  00005	ff 75 08	 push	 DWORD PTR __Count$[ebp]
  00008	e8 00 00 00 00	 call	 ??$_Allocate@UAniRotateInfo@@@std@@YAPAUAniRotateInfo@@IPAU1@@Z ; std::_Allocate<AniRotateInfo>
  0000d	59		 pop	 ecx
  0000e	59		 pop	 ecx

; 188  : 		}

  0000f	5d		 pop	 ebp
  00010	c2 04 00	 ret	 4
?allocate@?$allocator@UAniRotateInfo@@@std@@QAEPAUAniRotateInfo@@I@Z ENDP ; std::allocator<AniRotateInfo>::allocate
_TEXT	ENDS
PUBLIC	?allocate@?$allocator@UtagBaseCharDistanceSq@@@std@@QAEPAUtagBaseCharDistanceSq@@I@Z ; std::allocator<tagBaseCharDistanceSq>::allocate
; Function compile flags: /Ogsp
;	COMDAT ?allocate@?$allocator@UtagBaseCharDistanceSq@@@std@@QAEPAUtagBaseCharDistanceSq@@I@Z
_TEXT	SEGMENT
__Count$ = 8						; size = 4
?allocate@?$allocator@UtagBaseCharDistanceSq@@@std@@QAEPAUtagBaseCharDistanceSq@@I@Z PROC ; std::allocator<tagBaseCharDistanceSq>::allocate, COMDAT
; _this$ = ecx

; 186  : 		{	// allocate array of _Count elements

  00000	55		 push	 ebp
  00001	8b ec		 mov	 ebp, esp

; 187  : 		return (_Allocate(_Count, (pointer)0));

  00003	6a 00		 push	 0
  00005	ff 75 08	 push	 DWORD PTR __Count$[ebp]
  00008	e8 00 00 00 00	 call	 ??$_Allocate@UtagBaseCharDistanceSq@@@std@@YAPAUtagBaseCharDistanceSq@@IPAU1@@Z ; std::_Allocate<tagBaseCharDistanceSq>
  0000d	59		 pop	 ecx
  0000e	59		 pop	 ecx

; 188  : 		}

  0000f	5d		 pop	 ebp
  00010	c2 04 00	 ret	 4
?allocate@?$allocator@UtagBaseCharDistanceSq@@@std@@QAEPAUtagBaseCharDistanceSq@@I@Z ENDP ; std::allocator<tagBaseCharDistanceSq>::allocate
_TEXT	ENDS
PUBLIC	??8?$_Vector_const_iterator@V?$_Vector_val@UAniRotateInfo@@V?$allocator@UAniRotateInfo@@@std@@@std@@@std@@QBE_NABV01@@Z ; std::_Vector_const_iterator<std::_Vector_val<AniRotateInfo,std::allocator<AniRotateInfo> > >::operator==
; Function compile flags: /Ogsp
; File c:\program files (x86)\microsoft visual studio 10.0\vc\include\vector
;	COMDAT ??8?$_Vector_const_iterator@V?$_Vector_val@UAniRotateInfo@@V?$allocator@UAniRotateInfo@@@std@@@std@@@std@@QBE_NABV01@@Z
_TEXT	SEGMENT
__Right$ = 8						; size = 4
??8?$_Vector_const_iterator@V?$_Vector_val@UAniRotateInfo@@V?$allocator@UAniRotateInfo@@@std@@@std@@@std@@QBE_NABV01@@Z PROC ; std::_Vector_const_iterator<std::_Vector_val<AniRotateInfo,std::allocator<AniRotateInfo> > >::operator==, COMDAT
; _this$ = ecx

; 201  : 		{	// test for iterator equality

  00000	55		 push	 ebp
  00001	8b ec		 mov	 ebp, esp

; 202  : 		_Compat(_Right);
; 203  : 		return (this->_Ptr == _Right._Ptr);

  00003	8b 01		 mov	 eax, DWORD PTR [ecx]
  00005	8b 4d 08	 mov	 ecx, DWORD PTR __Right$[ebp]
  00008	2b 01		 sub	 eax, DWORD PTR [ecx]
  0000a	f7 d8		 neg	 eax
  0000c	1b c0		 sbb	 eax, eax
  0000e	40		 inc	 eax

; 204  : 		}

  0000f	5d		 pop	 ebp
  00010	c2 04 00	 ret	 4
??8?$_Vector_const_iterator@V?$_Vector_val@UAniRotateInfo@@V?$allocator@UAniRotateInfo@@@std@@@std@@@std@@QBE_NABV01@@Z ENDP ; std::_Vector_const_iterator<std::_Vector_val<AniRotateInfo,std::allocator<AniRotateInfo> > >::operator==
_TEXT	ENDS
PUBLIC	__$ArrayPad$
PUBLIC	??$LoadInt_e@$0BG@@ioINILoader@@QAEHAAY0BG@$$CBDH@Z ; ioINILoader::LoadInt_e<22>
EXTRN	__imp_?LoadInt@ioINILoader@@QAEHPBDH@Z:PROC
; Function compile flags: /Ogsp
; File d:\lost saga for developer\youtube\tutorial\source\src\io3dengine\ioiniloader.h
;	COMDAT ??$LoadInt_e@$0BG@@ioINILoader@@QAEHAAY0BG@$$CBDH@Z
_TEXT	SEGMENT
__k$ = -32						; size = 22
__$ArrayPad$ = -4					; size = 4
_k$ = 8							; size = 4
_i$ = 12						; size = 4
??$LoadInt_e@$0BG@@ioINILoader@@QAEHAAY0BG@$$CBDH@Z PROC ; ioINILoader::LoadInt_e<22>, COMDAT
; _this$ = ecx

; 118  : 	{

  00000	55		 push	 ebp
  00001	8b ec		 mov	 ebp, esp
  00003	83 ec 20	 sub	 esp, 32			; 00000020H
  00006	a1 00 00 00 00	 mov	 eax, DWORD PTR ___security_cookie
  0000b	33 c5		 xor	 eax, ebp
  0000d	89 45 fc	 mov	 DWORD PTR __$ArrayPad$[ebp], eax
  00010	8b 45 08	 mov	 eax, DWORD PTR _k$[ebp]

; 119  : 		_ENCSTR(k, _k);

  00013	8a 10		 mov	 dl, BYTE PTR [eax]
  00015	53		 push	 ebx
  00016	56		 push	 esi
  00017	8b f1		 mov	 esi, ecx
  00019	84 d2		 test	 dl, dl
  0001b	0f 84 15 02 00
	00		 je	 $LN96@LoadInt_e
  00021	80 f2 ed	 xor	 dl, -19			; ffffffedH
  00024	88 55 e0	 mov	 BYTE PTR __k$[ebp], dl
  00027	8a 50 01	 mov	 dl, BYTE PTR [eax+1]
  0002a	84 d2		 test	 dl, dl
  0002c	0f 84 fe 01 00
	00		 je	 $LN95@LoadInt_e
  00032	80 f2 ec	 xor	 dl, -20			; ffffffecH
  00035	88 55 e1	 mov	 BYTE PTR __k$[ebp+1], dl
  00038	8a 50 02	 mov	 dl, BYTE PTR [eax+2]
  0003b	84 d2		 test	 dl, dl
  0003d	0f 84 e7 01 00
	00		 je	 $LN94@LoadInt_e
  00043	b1 eb		 mov	 cl, -21			; ffffffebH
  00045	32 d1		 xor	 dl, cl
  00047	88 55 e2	 mov	 BYTE PTR __k$[ebp+2], dl
  0004a	8a 50 03	 mov	 dl, BYTE PTR [eax+3]
  0004d	84 d2		 test	 dl, dl
  0004f	0f 84 cf 01 00
	00		 je	 $LN93@LoadInt_e
  00055	b3 ea		 mov	 bl, -22			; ffffffeaH
  00057	32 d3		 xor	 dl, bl
  00059	88 55 e3	 mov	 BYTE PTR __k$[ebp+3], dl
  0005c	8a 50 04	 mov	 dl, BYTE PTR [eax+4]
  0005f	84 d2		 test	 dl, dl
  00061	0f 84 b7 01 00
	00		 je	 $LN92@LoadInt_e
  00067	80 f2 ed	 xor	 dl, -19			; ffffffedH
  0006a	88 55 e4	 mov	 BYTE PTR __k$[ebp+4], dl
  0006d	8a 50 05	 mov	 dl, BYTE PTR [eax+5]
  00070	84 d2		 test	 dl, dl
  00072	0f 84 a0 01 00
	00		 je	 $LN91@LoadInt_e
  00078	80 f2 ec	 xor	 dl, -20			; ffffffecH
  0007b	88 55 e5	 mov	 BYTE PTR __k$[ebp+5], dl
  0007e	8a 50 06	 mov	 dl, BYTE PTR [eax+6]
  00081	84 d2		 test	 dl, dl
  00083	0f 84 8a 01 00
	00		 je	 $LN90@LoadInt_e
  00089	32 d1		 xor	 dl, cl
  0008b	88 55 e6	 mov	 BYTE PTR __k$[ebp+6], dl
  0008e	8a 50 07	 mov	 dl, BYTE PTR [eax+7]
  00091	84 d2		 test	 dl, dl
  00093	0f 84 75 01 00
	00		 je	 $LN89@LoadInt_e
  00099	32 d3		 xor	 dl, bl
  0009b	88 55 e7	 mov	 BYTE PTR __k$[ebp+7], dl
  0009e	8a 50 08	 mov	 dl, BYTE PTR [eax+8]
  000a1	84 d2		 test	 dl, dl
  000a3	0f 84 5f 01 00
	00		 je	 $LN88@LoadInt_e
  000a9	80 f2 ed	 xor	 dl, -19			; ffffffedH
  000ac	88 55 e8	 mov	 BYTE PTR __k$[ebp+8], dl
  000af	8a 50 09	 mov	 dl, BYTE PTR [eax+9]
  000b2	84 d2		 test	 dl, dl
  000b4	0f 84 48 01 00
	00		 je	 $LN87@LoadInt_e
  000ba	80 f2 ec	 xor	 dl, -20			; ffffffecH
  000bd	88 55 e9	 mov	 BYTE PTR __k$[ebp+9], dl
  000c0	8a 50 0a	 mov	 dl, BYTE PTR [eax+10]
  000c3	84 d2		 test	 dl, dl
  000c5	0f 84 32 01 00
	00		 je	 $LN86@LoadInt_e
  000cb	32 d1		 xor	 dl, cl
  000cd	88 55 ea	 mov	 BYTE PTR __k$[ebp+10], dl
  000d0	8a 50 0b	 mov	 dl, BYTE PTR [eax+11]
  000d3	84 d2		 test	 dl, dl
  000d5	0f 84 1d 01 00
	00		 je	 $LN85@LoadInt_e
  000db	32 d3		 xor	 dl, bl
  000dd	88 55 eb	 mov	 BYTE PTR __k$[ebp+11], dl
  000e0	8a 50 0c	 mov	 dl, BYTE PTR [eax+12]
  000e3	84 d2		 test	 dl, dl
  000e5	0f 84 07 01 00
	00		 je	 $LN84@LoadInt_e
  000eb	80 f2 ed	 xor	 dl, -19			; ffffffedH
  000ee	88 55 ec	 mov	 BYTE PTR __k$[ebp+12], dl
  000f1	8a 50 0d	 mov	 dl, BYTE PTR [eax+13]
  000f4	84 d2		 test	 dl, dl
  000f6	0f 84 f0 00 00
	00		 je	 $LN83@LoadInt_e
  000fc	80 f2 ec	 xor	 dl, -20			; ffffffecH
  000ff	88 55 ed	 mov	 BYTE PTR __k$[ebp+13], dl
  00102	8a 50 0e	 mov	 dl, BYTE PTR [eax+14]
  00105	84 d2		 test	 dl, dl
  00107	0f 84 da 00 00
	00		 je	 $LN82@LoadInt_e
  0010d	32 d1		 xor	 dl, cl
  0010f	88 55 ee	 mov	 BYTE PTR __k$[ebp+14], dl
  00112	8a 50 0f	 mov	 dl, BYTE PTR [eax+15]
  00115	84 d2		 test	 dl, dl
  00117	0f 84 c5 00 00
	00		 je	 $LN81@LoadInt_e
  0011d	32 d3		 xor	 dl, bl
  0011f	88 55 ef	 mov	 BYTE PTR __k$[ebp+15], dl
  00122	8a 50 10	 mov	 dl, BYTE PTR [eax+16]
  00125	84 d2		 test	 dl, dl
  00127	0f 84 af 00 00
	00		 je	 $LN80@LoadInt_e
  0012d	80 f2 ed	 xor	 dl, -19			; ffffffedH
  00130	88 55 f0	 mov	 BYTE PTR __k$[ebp+16], dl
  00133	8a 50 11	 mov	 dl, BYTE PTR [eax+17]
  00136	84 d2		 test	 dl, dl
  00138	0f 84 98 00 00
	00		 je	 $LN79@LoadInt_e
  0013e	80 f2 ec	 xor	 dl, -20			; ffffffecH
  00141	88 55 f1	 mov	 BYTE PTR __k$[ebp+17], dl
  00144	8a 50 12	 mov	 dl, BYTE PTR [eax+18]
  00147	84 d2		 test	 dl, dl
  00149	0f 84 82 00 00
	00		 je	 $LN78@LoadInt_e
  0014f	32 d1		 xor	 dl, cl
  00151	88 55 f2	 mov	 BYTE PTR __k$[ebp+18], dl
  00154	8a 50 13	 mov	 dl, BYTE PTR [eax+19]
  00157	84 d2		 test	 dl, dl
  00159	74 71		 je	 SHORT $LN77@LoadInt_e
  0015b	32 d3		 xor	 dl, bl
  0015d	88 55 f3	 mov	 BYTE PTR __k$[ebp+19], dl
  00160	8a 50 14	 mov	 dl, BYTE PTR [eax+20]
  00163	84 d2		 test	 dl, dl
  00165	74 5f		 je	 SHORT $LN76@LoadInt_e
  00167	80 f2 ed	 xor	 dl, -19			; ffffffedH
  0016a	80 78 15 00	 cmp	 BYTE PTR [eax+21], 0
  0016e	88 55 f4	 mov	 BYTE PTR __k$[ebp+20], dl
  00171	0f 84 c3 00 00
	00		 je	 $LN1@LoadInt_e
  00177	8a 50 16	 mov	 dl, BYTE PTR [eax+22]
  0017a	84 d2		 test	 dl, dl
  0017c	74 43		 je	 SHORT $LN74@LoadInt_e
  0017e	32 d1		 xor	 dl, cl
  00180	88 55 f6	 mov	 BYTE PTR __k$[ebp+22], dl
  00183	8a 50 17	 mov	 dl, BYTE PTR [eax+23]
  00186	84 d2		 test	 dl, dl
  00188	74 32		 je	 SHORT $LN73@LoadInt_e
  0018a	32 d3		 xor	 dl, bl
  0018c	88 55 f7	 mov	 BYTE PTR __k$[ebp+23], dl
  0018f	8a 50 18	 mov	 dl, BYTE PTR [eax+24]
  00192	84 d2		 test	 dl, dl
  00194	74 20		 je	 SHORT $LN72@LoadInt_e
  00196	8a 40 19	 mov	 al, BYTE PTR [eax+25]
  00199	80 f2 ed	 xor	 dl, -19			; ffffffedH
  0019c	88 55 f8	 mov	 BYTE PTR __k$[ebp+24], dl
  0019f	84 c0		 test	 al, al
  001a1	74 0a		 je	 SHORT $LN71@LoadInt_e
  001a3	34 ec		 xor	 al, -20			; ffffffecH
  001a5	88 45 f9	 mov	 BYTE PTR __k$[ebp+25], al
  001a8	e9 8d 00 00 00	 jmp	 $LN1@LoadInt_e
$LN71@LoadInt_e:
  001ad	c6 45 f9 ec	 mov	 BYTE PTR __k$[ebp+25], -20 ; ffffffecH
  001b1	e9 84 00 00 00	 jmp	 $LN1@LoadInt_e
$LN72@LoadInt_e:
  001b6	c6 45 f8 ed	 mov	 BYTE PTR __k$[ebp+24], -19 ; ffffffedH
  001ba	eb 7e		 jmp	 SHORT $LN1@LoadInt_e
$LN73@LoadInt_e:
  001bc	88 5d f7	 mov	 BYTE PTR __k$[ebp+23], bl
  001bf	eb 79		 jmp	 SHORT $LN1@LoadInt_e
$LN74@LoadInt_e:
  001c1	88 4d f6	 mov	 BYTE PTR __k$[ebp+22], cl
  001c4	eb 74		 jmp	 SHORT $LN1@LoadInt_e
$LN76@LoadInt_e:
  001c6	c6 45 f4 ed	 mov	 BYTE PTR __k$[ebp+20], -19 ; ffffffedH
  001ca	eb 6e		 jmp	 SHORT $LN1@LoadInt_e
$LN77@LoadInt_e:
  001cc	88 5d f3	 mov	 BYTE PTR __k$[ebp+19], bl
  001cf	eb 69		 jmp	 SHORT $LN1@LoadInt_e
$LN78@LoadInt_e:
  001d1	88 4d f2	 mov	 BYTE PTR __k$[ebp+18], cl
  001d4	eb 64		 jmp	 SHORT $LN1@LoadInt_e
$LN79@LoadInt_e:
  001d6	c6 45 f1 ec	 mov	 BYTE PTR __k$[ebp+17], -20 ; ffffffecH
  001da	eb 5e		 jmp	 SHORT $LN1@LoadInt_e
$LN80@LoadInt_e:
  001dc	c6 45 f0 ed	 mov	 BYTE PTR __k$[ebp+16], -19 ; ffffffedH
  001e0	eb 58		 jmp	 SHORT $LN1@LoadInt_e
$LN81@LoadInt_e:
  001e2	88 5d ef	 mov	 BYTE PTR __k$[ebp+15], bl
  001e5	eb 53		 jmp	 SHORT $LN1@LoadInt_e
$LN82@LoadInt_e:
  001e7	88 4d ee	 mov	 BYTE PTR __k$[ebp+14], cl
  001ea	eb 4e		 jmp	 SHORT $LN1@LoadInt_e
$LN83@LoadInt_e:
  001ec	c6 45 ed ec	 mov	 BYTE PTR __k$[ebp+13], -20 ; ffffffecH
  001f0	eb 48		 jmp	 SHORT $LN1@LoadInt_e
$LN84@LoadInt_e:
  001f2	c6 45 ec ed	 mov	 BYTE PTR __k$[ebp+12], -19 ; ffffffedH
  001f6	eb 42		 jmp	 SHORT $LN1@LoadInt_e
$LN85@LoadInt_e:
  001f8	88 5d eb	 mov	 BYTE PTR __k$[ebp+11], bl
  001fb	eb 3d		 jmp	 SHORT $LN1@LoadInt_e
$LN86@LoadInt_e:
  001fd	88 4d ea	 mov	 BYTE PTR __k$[ebp+10], cl
  00200	eb 38		 jmp	 SHORT $LN1@LoadInt_e
$LN87@LoadInt_e:
  00202	c6 45 e9 ec	 mov	 BYTE PTR __k$[ebp+9], -20 ; ffffffecH
  00206	eb 32		 jmp	 SHORT $LN1@LoadInt_e
$LN88@LoadInt_e:
  00208	c6 45 e8 ed	 mov	 BYTE PTR __k$[ebp+8], -19 ; ffffffedH
  0020c	eb 2c		 jmp	 SHORT $LN1@LoadInt_e
$LN89@LoadInt_e:
  0020e	88 5d e7	 mov	 BYTE PTR __k$[ebp+7], bl
  00211	eb 27		 jmp	 SHORT $LN1@LoadInt_e
$LN90@LoadInt_e:
  00213	88 4d e6	 mov	 BYTE PTR __k$[ebp+6], cl
  00216	eb 22		 jmp	 SHORT $LN1@LoadInt_e
$LN91@LoadInt_e:
  00218	c6 45 e5 ec	 mov	 BYTE PTR __k$[ebp+5], -20 ; ffffffecH
  0021c	eb 1c		 jmp	 SHORT $LN1@LoadInt_e
$LN92@LoadInt_e:
  0021e	c6 45 e4 ed	 mov	 BYTE PTR __k$[ebp+4], -19 ; ffffffedH
  00222	eb 16		 jmp	 SHORT $LN1@LoadInt_e
$LN93@LoadInt_e:
  00224	c6 45 e3 ea	 mov	 BYTE PTR __k$[ebp+3], -22 ; ffffffeaH
  00228	eb 10		 jmp	 SHORT $LN1@LoadInt_e
$LN94@LoadInt_e:
  0022a	c6 45 e2 eb	 mov	 BYTE PTR __k$[ebp+2], -21 ; ffffffebH
  0022e	eb 0a		 jmp	 SHORT $LN1@LoadInt_e
$LN95@LoadInt_e:
  00230	c6 45 e1 ec	 mov	 BYTE PTR __k$[ebp+1], -20 ; ffffffecH
  00234	eb 04		 jmp	 SHORT $LN1@LoadInt_e
$LN96@LoadInt_e:
  00236	c6 45 e0 ed	 mov	 BYTE PTR __k$[ebp], -19	; ffffffedH
$LN1@LoadInt_e:
  0023a	6a 05		 push	 5
  0023c	8d 45 e0	 lea	 eax, DWORD PTR __k$[ebp]
  0023f	c6 45 f5 00	 mov	 BYTE PTR __k$[ebp+21], 0
  00243	5a		 pop	 edx
$LL104@LoadInt_e:
  00244	81 30 ed ec eb
	ea		 xor	 DWORD PTR [eax], -353637139 ; eaebecedH
  0024a	83 c0 04	 add	 eax, 4
  0024d	4a		 dec	 edx
  0024e	75 f4		 jne	 SHORT $LL104@LoadInt_e

; 120  : 		return LoadInt(_k, i);

  00250	ff 75 0c	 push	 DWORD PTR _i$[ebp]
  00253	80 75 f4 ed	 xor	 BYTE PTR __k$[ebp+20], -19 ; ffffffedH
  00257	8d 45 e0	 lea	 eax, DWORD PTR __k$[ebp]
  0025a	50		 push	 eax
  0025b	8b ce		 mov	 ecx, esi
  0025d	ff 15 00 00 00
	00		 call	 DWORD PTR __imp_?LoadInt@ioINILoader@@QAEHPBDH@Z

; 121  : 	}

  00263	8b 4d fc	 mov	 ecx, DWORD PTR __$ArrayPad$[ebp]
  00266	5e		 pop	 esi
  00267	33 cd		 xor	 ecx, ebp
  00269	5b		 pop	 ebx
  0026a	e8 00 00 00 00	 call	 @__security_check_cookie@4
  0026f	c9		 leave
  00270	c2 08 00	 ret	 8
??$LoadInt_e@$0BG@@ioINILoader@@QAEHAAY0BG@$$CBDH@Z ENDP ; ioINILoader::LoadInt_e<22>
_TEXT	ENDS
PUBLIC	__$ArrayPad$
PUBLIC	??$LoadInt_e@$0BC@@ioINILoader@@QAEHAAY0BC@$$CBDH@Z ; ioINILoader::LoadInt_e<18>
; Function compile flags: /Ogsp
;	COMDAT ??$LoadInt_e@$0BC@@ioINILoader@@QAEHAAY0BC@$$CBDH@Z
_TEXT	SEGMENT
__k$ = -28						; size = 18
__$ArrayPad$ = -4					; size = 4
_k$ = 8							; size = 4
_i$ = 12						; size = 4
??$LoadInt_e@$0BC@@ioINILoader@@QAEHAAY0BC@$$CBDH@Z PROC ; ioINILoader::LoadInt_e<18>, COMDAT
; _this$ = ecx

; 118  : 	{

  00000	55		 push	 ebp
  00001	8b ec		 mov	 ebp, esp
  00003	83 ec 1c	 sub	 esp, 28			; 0000001cH
  00006	a1 00 00 00 00	 mov	 eax, DWORD PTR ___security_cookie
  0000b	33 c5		 xor	 eax, ebp
  0000d	89 45 fc	 mov	 DWORD PTR __$ArrayPad$[ebp], eax
  00010	8b 45 08	 mov	 eax, DWORD PTR _k$[ebp]

; 119  : 		_ENCSTR(k, _k);

  00013	8a 10		 mov	 dl, BYTE PTR [eax]
  00015	56		 push	 esi
  00016	8b f1		 mov	 esi, ecx
  00018	84 d2		 test	 dl, dl
  0001a	0f 84 be 01 00
	00		 je	 $LN96@LoadInt_e@2
  00020	80 f2 ed	 xor	 dl, -19			; ffffffedH
  00023	88 55 e4	 mov	 BYTE PTR __k$[ebp], dl
  00026	8a 50 01	 mov	 dl, BYTE PTR [eax+1]
  00029	84 d2		 test	 dl, dl
  0002b	0f 84 a7 01 00
	00		 je	 $LN95@LoadInt_e@2
  00031	80 f2 ec	 xor	 dl, -20			; ffffffecH
  00034	88 55 e5	 mov	 BYTE PTR __k$[ebp+1], dl
  00037	8a 50 02	 mov	 dl, BYTE PTR [eax+2]
  0003a	84 d2		 test	 dl, dl
  0003c	0f 84 90 01 00
	00		 je	 $LN94@LoadInt_e@2
  00042	b1 eb		 mov	 cl, -21			; ffffffebH
  00044	32 d1		 xor	 dl, cl
  00046	88 55 e6	 mov	 BYTE PTR __k$[ebp+2], dl
  00049	8a 50 03	 mov	 dl, BYTE PTR [eax+3]
  0004c	84 d2		 test	 dl, dl
  0004e	0f 84 78 01 00
	00		 je	 $LN93@LoadInt_e@2
  00054	80 f2 ea	 xor	 dl, -22			; ffffffeaH
  00057	88 55 e7	 mov	 BYTE PTR __k$[ebp+3], dl
  0005a	8a 50 04	 mov	 dl, BYTE PTR [eax+4]
  0005d	84 d2		 test	 dl, dl
  0005f	0f 84 61 01 00
	00		 je	 $LN92@LoadInt_e@2
  00065	80 f2 ed	 xor	 dl, -19			; ffffffedH
  00068	88 55 e8	 mov	 BYTE PTR __k$[ebp+4], dl
  0006b	8a 50 05	 mov	 dl, BYTE PTR [eax+5]
  0006e	84 d2		 test	 dl, dl
  00070	0f 84 4a 01 00
	00		 je	 $LN91@LoadInt_e@2
  00076	80 f2 ec	 xor	 dl, -20			; ffffffecH
  00079	88 55 e9	 mov	 BYTE PTR __k$[ebp+5], dl
  0007c	8a 50 06	 mov	 dl, BYTE PTR [eax+6]
  0007f	84 d2		 test	 dl, dl
  00081	0f 84 34 01 00
	00		 je	 $LN90@LoadInt_e@2
  00087	32 d1		 xor	 dl, cl
  00089	88 55 ea	 mov	 BYTE PTR __k$[ebp+6], dl
  0008c	8a 50 07	 mov	 dl, BYTE PTR [eax+7]
  0008f	84 d2		 test	 dl, dl
  00091	0f 84 1e 01 00
	00		 je	 $LN89@LoadInt_e@2
  00097	80 f2 ea	 xor	 dl, -22			; ffffffeaH
  0009a	88 55 eb	 mov	 BYTE PTR __k$[ebp+7], dl
  0009d	8a 50 08	 mov	 dl, BYTE PTR [eax+8]
  000a0	84 d2		 test	 dl, dl
  000a2	0f 84 07 01 00
	00		 je	 $LN88@LoadInt_e@2
  000a8	80 f2 ed	 xor	 dl, -19			; ffffffedH
  000ab	88 55 ec	 mov	 BYTE PTR __k$[ebp+8], dl
  000ae	8a 50 09	 mov	 dl, BYTE PTR [eax+9]
  000b1	84 d2		 test	 dl, dl
  000b3	0f 84 f0 00 00
	00		 je	 $LN87@LoadInt_e@2
  000b9	80 f2 ec	 xor	 dl, -20			; ffffffecH
  000bc	88 55 ed	 mov	 BYTE PTR __k$[ebp+9], dl
  000bf	8a 50 0a	 mov	 dl, BYTE PTR [eax+10]
  000c2	84 d2		 test	 dl, dl
  000c4	0f 84 da 00 00
	00		 je	 $LN86@LoadInt_e@2
  000ca	32 d1		 xor	 dl, cl
  000cc	88 55 ee	 mov	 BYTE PTR __k$[ebp+10], dl
  000cf	8a 50 0b	 mov	 dl, BYTE PTR [eax+11]
  000d2	84 d2		 test	 dl, dl
  000d4	0f 84 c4 00 00
	00		 je	 $LN85@LoadInt_e@2
  000da	80 f2 ea	 xor	 dl, -22			; ffffffeaH
  000dd	88 55 ef	 mov	 BYTE PTR __k$[ebp+11], dl
  000e0	8a 50 0c	 mov	 dl, BYTE PTR [eax+12]
  000e3	84 d2		 test	 dl, dl
  000e5	0f 84 ad 00 00
	00		 je	 $LN84@LoadInt_e@2
  000eb	80 f2 ed	 xor	 dl, -19			; ffffffedH
  000ee	88 55 f0	 mov	 BYTE PTR __k$[ebp+12], dl
  000f1	8a 50 0d	 mov	 dl, BYTE PTR [eax+13]
  000f4	84 d2		 test	 dl, dl
  000f6	0f 84 96 00 00
	00		 je	 $LN83@LoadInt_e@2
  000fc	80 f2 ec	 xor	 dl, -20			; ffffffecH
  000ff	88 55 f1	 mov	 BYTE PTR __k$[ebp+13], dl
  00102	8a 50 0e	 mov	 dl, BYTE PTR [eax+14]
  00105	84 d2		 test	 dl, dl
  00107	0f 84 80 00 00
	00		 je	 $LN82@LoadInt_e@2
  0010d	32 d1		 xor	 dl, cl
  0010f	88 55 f2	 mov	 BYTE PTR __k$[ebp+14], dl
  00112	8a 50 0f	 mov	 dl, BYTE PTR [eax+15]
  00115	84 d2		 test	 dl, dl
  00117	74 6e		 je	 SHORT $LN81@LoadInt_e@2
  00119	80 f2 ea	 xor	 dl, -22			; ffffffeaH
  0011c	88 55 f3	 mov	 BYTE PTR __k$[ebp+15], dl
  0011f	8a 50 10	 mov	 dl, BYTE PTR [eax+16]
  00122	84 d2		 test	 dl, dl
  00124	74 5b		 je	 SHORT $LN80@LoadInt_e@2
  00126	80 f2 ed	 xor	 dl, -19			; ffffffedH
  00129	80 78 11 00	 cmp	 BYTE PTR [eax+17], 0
  0012d	88 55 f4	 mov	 BYTE PTR __k$[ebp+16], dl
  00130	0f 84 ac 00 00
	00		 je	 $LN1@LoadInt_e@2
  00136	8a 50 12	 mov	 dl, BYTE PTR [eax+18]
  00139	84 d2		 test	 dl, dl
  0013b	74 3f		 je	 SHORT $LN78@LoadInt_e@2
  0013d	32 d1		 xor	 dl, cl
  0013f	88 55 f6	 mov	 BYTE PTR __k$[ebp+18], dl
  00142	8a 50 13	 mov	 dl, BYTE PTR [eax+19]
  00145	84 d2		 test	 dl, dl
  00147	74 2d		 je	 SHORT $LN77@LoadInt_e@2
  00149	80 f2 ea	 xor	 dl, -22			; ffffffeaH
  0014c	88 55 f7	 mov	 BYTE PTR __k$[ebp+19], dl
  0014f	8a 50 14	 mov	 dl, BYTE PTR [eax+20]
  00152	84 d2		 test	 dl, dl
  00154	74 1a		 je	 SHORT $LN76@LoadInt_e@2
  00156	8a 40 15	 mov	 al, BYTE PTR [eax+21]
  00159	80 f2 ed	 xor	 dl, -19			; ffffffedH
  0015c	88 55 f8	 mov	 BYTE PTR __k$[ebp+20], dl
  0015f	84 c0		 test	 al, al
  00161	74 07		 je	 SHORT $LN75@LoadInt_e@2
  00163	34 ec		 xor	 al, -20			; ffffffecH
  00165	88 45 f9	 mov	 BYTE PTR __k$[ebp+21], al
  00168	eb 78		 jmp	 SHORT $LN1@LoadInt_e@2
$LN75@LoadInt_e@2:
  0016a	c6 45 f9 ec	 mov	 BYTE PTR __k$[ebp+21], -20 ; ffffffecH
  0016e	eb 72		 jmp	 SHORT $LN1@LoadInt_e@2
$LN76@LoadInt_e@2:
  00170	c6 45 f8 ed	 mov	 BYTE PTR __k$[ebp+20], -19 ; ffffffedH
  00174	eb 6c		 jmp	 SHORT $LN1@LoadInt_e@2
$LN77@LoadInt_e@2:
  00176	c6 45 f7 ea	 mov	 BYTE PTR __k$[ebp+19], -22 ; ffffffeaH
  0017a	eb 66		 jmp	 SHORT $LN1@LoadInt_e@2
$LN78@LoadInt_e@2:
  0017c	88 4d f6	 mov	 BYTE PTR __k$[ebp+18], cl
  0017f	eb 61		 jmp	 SHORT $LN1@LoadInt_e@2
$LN80@LoadInt_e@2:
  00181	c6 45 f4 ed	 mov	 BYTE PTR __k$[ebp+16], -19 ; ffffffedH
  00185	eb 5b		 jmp	 SHORT $LN1@LoadInt_e@2
$LN81@LoadInt_e@2:
  00187	c6 45 f3 ea	 mov	 BYTE PTR __k$[ebp+15], -22 ; ffffffeaH
  0018b	eb 55		 jmp	 SHORT $LN1@LoadInt_e@2
$LN82@LoadInt_e@2:
  0018d	88 4d f2	 mov	 BYTE PTR __k$[ebp+14], cl
  00190	eb 50		 jmp	 SHORT $LN1@LoadInt_e@2
$LN83@LoadInt_e@2:
  00192	c6 45 f1 ec	 mov	 BYTE PTR __k$[ebp+13], -20 ; ffffffecH
  00196	eb 4a		 jmp	 SHORT $LN1@LoadInt_e@2
$LN84@LoadInt_e@2:
  00198	c6 45 f0 ed	 mov	 BYTE PTR __k$[ebp+12], -19 ; ffffffedH
  0019c	eb 44		 jmp	 SHORT $LN1@LoadInt_e@2
$LN85@LoadInt_e@2:
  0019e	c6 45 ef ea	 mov	 BYTE PTR __k$[ebp+11], -22 ; ffffffeaH
  001a2	eb 3e		 jmp	 SHORT $LN1@LoadInt_e@2
$LN86@LoadInt_e@2:
  001a4	88 4d ee	 mov	 BYTE PTR __k$[ebp+10], cl
  001a7	eb 39		 jmp	 SHORT $LN1@LoadInt_e@2
$LN87@LoadInt_e@2:
  001a9	c6 45 ed ec	 mov	 BYTE PTR __k$[ebp+9], -20 ; ffffffecH
  001ad	eb 33		 jmp	 SHORT $LN1@LoadInt_e@2
$LN88@LoadInt_e@2:
  001af	c6 45 ec ed	 mov	 BYTE PTR __k$[ebp+8], -19 ; ffffffedH
  001b3	eb 2d		 jmp	 SHORT $LN1@LoadInt_e@2
$LN89@LoadInt_e@2:
  001b5	c6 45 eb ea	 mov	 BYTE PTR __k$[ebp+7], -22 ; ffffffeaH
  001b9	eb 27		 jmp	 SHORT $LN1@LoadInt_e@2
$LN90@LoadInt_e@2:
  001bb	88 4d ea	 mov	 BYTE PTR __k$[ebp+6], cl
  001be	eb 22		 jmp	 SHORT $LN1@LoadInt_e@2
$LN91@LoadInt_e@2:
  001c0	c6 45 e9 ec	 mov	 BYTE PTR __k$[ebp+5], -20 ; ffffffecH
  001c4	eb 1c		 jmp	 SHORT $LN1@LoadInt_e@2
$LN92@LoadInt_e@2:
  001c6	c6 45 e8 ed	 mov	 BYTE PTR __k$[ebp+4], -19 ; ffffffedH
  001ca	eb 16		 jmp	 SHORT $LN1@LoadInt_e@2
$LN93@LoadInt_e@2:
  001cc	c6 45 e7 ea	 mov	 BYTE PTR __k$[ebp+3], -22 ; ffffffeaH
  001d0	eb 10		 jmp	 SHORT $LN1@LoadInt_e@2
$LN94@LoadInt_e@2:
  001d2	c6 45 e6 eb	 mov	 BYTE PTR __k$[ebp+2], -21 ; ffffffebH
  001d6	eb 0a		 jmp	 SHORT $LN1@LoadInt_e@2
$LN95@LoadInt_e@2:
  001d8	c6 45 e5 ec	 mov	 BYTE PTR __k$[ebp+1], -20 ; ffffffecH
  001dc	eb 04		 jmp	 SHORT $LN1@LoadInt_e@2
$LN96@LoadInt_e@2:
  001de	c6 45 e4 ed	 mov	 BYTE PTR __k$[ebp], -19	; ffffffedH
$LN1@LoadInt_e@2:
  001e2	6a 04		 push	 4
  001e4	8d 45 e4	 lea	 eax, DWORD PTR __k$[ebp]
  001e7	c6 45 f5 00	 mov	 BYTE PTR __k$[ebp+17], 0
  001eb	5a		 pop	 edx
$LL104@LoadInt_e@2:
  001ec	81 30 ed ec eb
	ea		 xor	 DWORD PTR [eax], -353637139 ; eaebecedH
  001f2	83 c0 04	 add	 eax, 4
  001f5	4a		 dec	 edx
  001f6	75 f4		 jne	 SHORT $LL104@LoadInt_e@2

; 120  : 		return LoadInt(_k, i);

  001f8	ff 75 0c	 push	 DWORD PTR _i$[ebp]
  001fb	80 75 f4 ed	 xor	 BYTE PTR __k$[ebp+16], -19 ; ffffffedH
  001ff	8d 45 e4	 lea	 eax, DWORD PTR __k$[ebp]
  00202	50		 push	 eax
  00203	8b ce		 mov	 ecx, esi
  00205	ff 15 00 00 00
	00		 call	 DWORD PTR __imp_?LoadInt@ioINILoader@@QAEHPBDH@Z

; 121  : 	}

  0020b	8b 4d fc	 mov	 ecx, DWORD PTR __$ArrayPad$[ebp]
  0020e	33 cd		 xor	 ecx, ebp
  00210	5e		 pop	 esi
  00211	e8 00 00 00 00	 call	 @__security_check_cookie@4
  00216	c9		 leave
  00217	c2 08 00	 ret	 8
??$LoadInt_e@$0BC@@ioINILoader@@QAEHAAY0BC@$$CBDH@Z ENDP ; ioINILoader::LoadInt_e<18>
_TEXT	ENDS
PUBLIC	__$ArrayPad$
PUBLIC	??$LoadInt_e@$0BD@@ioINILoader@@QAEHAAY0BD@$$CBDH@Z ; ioINILoader::LoadInt_e<19>
; Function compile flags: /Ogsp
;	COMDAT ??$LoadInt_e@$0BD@@ioINILoader@@QAEHAAY0BD@$$CBDH@Z
_TEXT	SEGMENT
__k$ = -28						; size = 19
__$ArrayPad$ = -4					; size = 4
_k$ = 8							; size = 4
_i$ = 12						; size = 4
??$LoadInt_e@$0BD@@ioINILoader@@QAEHAAY0BD@$$CBDH@Z PROC ; ioINILoader::LoadInt_e<19>, COMDAT
; _this$ = ecx

; 118  : 	{

  00000	55		 push	 ebp
  00001	8b ec		 mov	 ebp, esp
  00003	83 ec 1c	 sub	 esp, 28			; 0000001cH
  00006	a1 00 00 00 00	 mov	 eax, DWORD PTR ___security_cookie
  0000b	33 c5		 xor	 eax, ebp
  0000d	89 45 fc	 mov	 DWORD PTR __$ArrayPad$[ebp], eax
  00010	8b 45 08	 mov	 eax, DWORD PTR _k$[ebp]

; 119  : 		_ENCSTR(k, _k);

  00013	8a 10		 mov	 dl, BYTE PTR [eax]
  00015	56		 push	 esi
  00016	8b f1		 mov	 esi, ecx
  00018	84 d2		 test	 dl, dl
  0001a	0f 84 cf 01 00
	00		 je	 $LN96@LoadInt_e@3
  00020	80 f2 ed	 xor	 dl, -19			; ffffffedH
  00023	88 55 e4	 mov	 BYTE PTR __k$[ebp], dl
  00026	8a 50 01	 mov	 dl, BYTE PTR [eax+1]
  00029	84 d2		 test	 dl, dl
  0002b	0f 84 b8 01 00
	00		 je	 $LN95@LoadInt_e@3
  00031	b1 ec		 mov	 cl, -20			; ffffffecH
  00033	32 d1		 xor	 dl, cl
  00035	88 55 e5	 mov	 BYTE PTR __k$[ebp+1], dl
  00038	8a 50 02	 mov	 dl, BYTE PTR [eax+2]
  0003b	84 d2		 test	 dl, dl
  0003d	0f 84 a0 01 00
	00		 je	 $LN94@LoadInt_e@3
  00043	80 f2 eb	 xor	 dl, -21			; ffffffebH
  00046	88 55 e6	 mov	 BYTE PTR __k$[ebp+2], dl
  00049	8a 50 03	 mov	 dl, BYTE PTR [eax+3]
  0004c	84 d2		 test	 dl, dl
  0004e	0f 84 89 01 00
	00		 je	 $LN93@LoadInt_e@3
  00054	80 f2 ea	 xor	 dl, -22			; ffffffeaH
  00057	88 55 e7	 mov	 BYTE PTR __k$[ebp+3], dl
  0005a	8a 50 04	 mov	 dl, BYTE PTR [eax+4]
  0005d	84 d2		 test	 dl, dl
  0005f	0f 84 72 01 00
	00		 je	 $LN92@LoadInt_e@3
  00065	80 f2 ed	 xor	 dl, -19			; ffffffedH
  00068	88 55 e8	 mov	 BYTE PTR __k$[ebp+4], dl
  0006b	8a 50 05	 mov	 dl, BYTE PTR [eax+5]
  0006e	84 d2		 test	 dl, dl
  00070	0f 84 5c 01 00
	00		 je	 $LN91@LoadInt_e@3
  00076	32 d1		 xor	 dl, cl
  00078	88 55 e9	 mov	 BYTE PTR __k$[ebp+5], dl
  0007b	8a 50 06	 mov	 dl, BYTE PTR [eax+6]
  0007e	84 d2		 test	 dl, dl
  00080	0f 84 46 01 00
	00		 je	 $LN90@LoadInt_e@3
  00086	80 f2 eb	 xor	 dl, -21			; ffffffebH
  00089	88 55 ea	 mov	 BYTE PTR __k$[ebp+6], dl
  0008c	8a 50 07	 mov	 dl, BYTE PTR [eax+7]
  0008f	84 d2		 test	 dl, dl
  00091	0f 84 2f 01 00
	00		 je	 $LN89@LoadInt_e@3
  00097	80 f2 ea	 xor	 dl, -22			; ffffffeaH
  0009a	88 55 eb	 mov	 BYTE PTR __k$[ebp+7], dl
  0009d	8a 50 08	 mov	 dl, BYTE PTR [eax+8]
  000a0	84 d2		 test	 dl, dl
  000a2	0f 84 18 01 00
	00		 je	 $LN88@LoadInt_e@3
  000a8	80 f2 ed	 xor	 dl, -19			; ffffffedH
  000ab	88 55 ec	 mov	 BYTE PTR __k$[ebp+8], dl
  000ae	8a 50 09	 mov	 dl, BYTE PTR [eax+9]
  000b1	84 d2		 test	 dl, dl
  000b3	0f 84 02 01 00
	00		 je	 $LN87@LoadInt_e@3
  000b9	32 d1		 xor	 dl, cl
  000bb	88 55 ed	 mov	 BYTE PTR __k$[ebp+9], dl
  000be	8a 50 0a	 mov	 dl, BYTE PTR [eax+10]
  000c1	84 d2		 test	 dl, dl
  000c3	0f 84 ec 00 00
	00		 je	 $LN86@LoadInt_e@3
  000c9	80 f2 eb	 xor	 dl, -21			; ffffffebH
  000cc	88 55 ee	 mov	 BYTE PTR __k$[ebp+10], dl
  000cf	8a 50 0b	 mov	 dl, BYTE PTR [eax+11]
  000d2	84 d2		 test	 dl, dl
  000d4	0f 84 d5 00 00
	00		 je	 $LN85@LoadInt_e@3
  000da	80 f2 ea	 xor	 dl, -22			; ffffffeaH
  000dd	88 55 ef	 mov	 BYTE PTR __k$[ebp+11], dl
  000e0	8a 50 0c	 mov	 dl, BYTE PTR [eax+12]
  000e3	84 d2		 test	 dl, dl
  000e5	0f 84 be 00 00
	00		 je	 $LN84@LoadInt_e@3
  000eb	80 f2 ed	 xor	 dl, -19			; ffffffedH
  000ee	88 55 f0	 mov	 BYTE PTR __k$[ebp+12], dl
  000f1	8a 50 0d	 mov	 dl, BYTE PTR [eax+13]
  000f4	84 d2		 test	 dl, dl
  000f6	0f 84 a8 00 00
	00		 je	 $LN83@LoadInt_e@3
  000fc	32 d1		 xor	 dl, cl
  000fe	88 55 f1	 mov	 BYTE PTR __k$[ebp+13], dl
  00101	8a 50 0e	 mov	 dl, BYTE PTR [eax+14]
  00104	84 d2		 test	 dl, dl
  00106	0f 84 92 00 00
	00		 je	 $LN82@LoadInt_e@3
  0010c	80 f2 eb	 xor	 dl, -21			; ffffffebH
  0010f	88 55 f2	 mov	 BYTE PTR __k$[ebp+14], dl
  00112	8a 50 0f	 mov	 dl, BYTE PTR [eax+15]
  00115	84 d2		 test	 dl, dl
  00117	74 7f		 je	 SHORT $LN81@LoadInt_e@3
  00119	80 f2 ea	 xor	 dl, -22			; ffffffeaH
  0011c	88 55 f3	 mov	 BYTE PTR __k$[ebp+15], dl
  0011f	8a 50 10	 mov	 dl, BYTE PTR [eax+16]
  00122	84 d2		 test	 dl, dl
  00124	74 6c		 je	 SHORT $LN80@LoadInt_e@3
  00126	80 f2 ed	 xor	 dl, -19			; ffffffedH
  00129	88 55 f4	 mov	 BYTE PTR __k$[ebp+16], dl
  0012c	8a 50 11	 mov	 dl, BYTE PTR [eax+17]
  0012f	84 d2		 test	 dl, dl
  00131	74 5a		 je	 SHORT $LN79@LoadInt_e@3
  00133	32 d1		 xor	 dl, cl
  00135	80 78 12 00	 cmp	 BYTE PTR [eax+18], 0
  00139	88 55 f5	 mov	 BYTE PTR __k$[ebp+17], dl
  0013c	0f 84 b1 00 00
	00		 je	 $LN1@LoadInt_e@3
  00142	8a 50 13	 mov	 dl, BYTE PTR [eax+19]
  00145	84 d2		 test	 dl, dl
  00147	74 3e		 je	 SHORT $LN77@LoadInt_e@3
  00149	80 f2 ea	 xor	 dl, -22			; ffffffeaH
  0014c	88 55 f7	 mov	 BYTE PTR __k$[ebp+19], dl
  0014f	8a 50 14	 mov	 dl, BYTE PTR [eax+20]
  00152	84 d2		 test	 dl, dl
  00154	74 2b		 je	 SHORT $LN76@LoadInt_e@3
  00156	80 f2 ed	 xor	 dl, -19			; ffffffedH
  00159	88 55 f8	 mov	 BYTE PTR __k$[ebp+20], dl
  0015c	8a 50 15	 mov	 dl, BYTE PTR [eax+21]
  0015f	84 d2		 test	 dl, dl
  00161	74 19		 je	 SHORT $LN75@LoadInt_e@3
  00163	8a 40 16	 mov	 al, BYTE PTR [eax+22]
  00166	32 d1		 xor	 dl, cl
  00168	88 55 f9	 mov	 BYTE PTR __k$[ebp+21], dl
  0016b	84 c0		 test	 al, al
  0016d	74 07		 je	 SHORT $LN74@LoadInt_e@3
  0016f	34 eb		 xor	 al, -21			; ffffffebH
  00171	88 45 fa	 mov	 BYTE PTR __k$[ebp+22], al
  00174	eb 7d		 jmp	 SHORT $LN1@LoadInt_e@3
$LN74@LoadInt_e@3:
  00176	c6 45 fa eb	 mov	 BYTE PTR __k$[ebp+22], -21 ; ffffffebH
  0017a	eb 77		 jmp	 SHORT $LN1@LoadInt_e@3
$LN75@LoadInt_e@3:
  0017c	88 4d f9	 mov	 BYTE PTR __k$[ebp+21], cl
  0017f	eb 72		 jmp	 SHORT $LN1@LoadInt_e@3
$LN76@LoadInt_e@3:
  00181	c6 45 f8 ed	 mov	 BYTE PTR __k$[ebp+20], -19 ; ffffffedH
  00185	eb 6c		 jmp	 SHORT $LN1@LoadInt_e@3
$LN77@LoadInt_e@3:
  00187	c6 45 f7 ea	 mov	 BYTE PTR __k$[ebp+19], -22 ; ffffffeaH
  0018b	eb 66		 jmp	 SHORT $LN1@LoadInt_e@3
$LN79@LoadInt_e@3:
  0018d	88 4d f5	 mov	 BYTE PTR __k$[ebp+17], cl
  00190	eb 61		 jmp	 SHORT $LN1@LoadInt_e@3
$LN80@LoadInt_e@3:
  00192	c6 45 f4 ed	 mov	 BYTE PTR __k$[ebp+16], -19 ; ffffffedH
  00196	eb 5b		 jmp	 SHORT $LN1@LoadInt_e@3
$LN81@LoadInt_e@3:
  00198	c6 45 f3 ea	 mov	 BYTE PTR __k$[ebp+15], -22 ; ffffffeaH
  0019c	eb 55		 jmp	 SHORT $LN1@LoadInt_e@3
$LN82@LoadInt_e@3:
  0019e	c6 45 f2 eb	 mov	 BYTE PTR __k$[ebp+14], -21 ; ffffffebH
  001a2	eb 4f		 jmp	 SHORT $LN1@LoadInt_e@3
$LN83@LoadInt_e@3:
  001a4	88 4d f1	 mov	 BYTE PTR __k$[ebp+13], cl
  001a7	eb 4a		 jmp	 SHORT $LN1@LoadInt_e@3
$LN84@LoadInt_e@3:
  001a9	c6 45 f0 ed	 mov	 BYTE PTR __k$[ebp+12], -19 ; ffffffedH
  001ad	eb 44		 jmp	 SHORT $LN1@LoadInt_e@3
$LN85@LoadInt_e@3:
  001af	c6 45 ef ea	 mov	 BYTE PTR __k$[ebp+11], -22 ; ffffffeaH
  001b3	eb 3e		 jmp	 SHORT $LN1@LoadInt_e@3
$LN86@LoadInt_e@3:
  001b5	c6 45 ee eb	 mov	 BYTE PTR __k$[ebp+10], -21 ; ffffffebH
  001b9	eb 38		 jmp	 SHORT $LN1@LoadInt_e@3
$LN87@LoadInt_e@3:
  001bb	88 4d ed	 mov	 BYTE PTR __k$[ebp+9], cl
  001be	eb 33		 jmp	 SHORT $LN1@LoadInt_e@3
$LN88@LoadInt_e@3:
  001c0	c6 45 ec ed	 mov	 BYTE PTR __k$[ebp+8], -19 ; ffffffedH
  001c4	eb 2d		 jmp	 SHORT $LN1@LoadInt_e@3
$LN89@LoadInt_e@3:
  001c6	c6 45 eb ea	 mov	 BYTE PTR __k$[ebp+7], -22 ; ffffffeaH
  001ca	eb 27		 jmp	 SHORT $LN1@LoadInt_e@3
$LN90@LoadInt_e@3:
  001cc	c6 45 ea eb	 mov	 BYTE PTR __k$[ebp+6], -21 ; ffffffebH
  001d0	eb 21		 jmp	 SHORT $LN1@LoadInt_e@3
$LN91@LoadInt_e@3:
  001d2	88 4d e9	 mov	 BYTE PTR __k$[ebp+5], cl
  001d5	eb 1c		 jmp	 SHORT $LN1@LoadInt_e@3
$LN92@LoadInt_e@3:
  001d7	c6 45 e8 ed	 mov	 BYTE PTR __k$[ebp+4], -19 ; ffffffedH
  001db	eb 16		 jmp	 SHORT $LN1@LoadInt_e@3
$LN93@LoadInt_e@3:
  001dd	c6 45 e7 ea	 mov	 BYTE PTR __k$[ebp+3], -22 ; ffffffeaH
  001e1	eb 10		 jmp	 SHORT $LN1@LoadInt_e@3
$LN94@LoadInt_e@3:
  001e3	c6 45 e6 eb	 mov	 BYTE PTR __k$[ebp+2], -21 ; ffffffebH
  001e7	eb 0a		 jmp	 SHORT $LN1@LoadInt_e@3
$LN95@LoadInt_e@3:
  001e9	c6 45 e5 ec	 mov	 BYTE PTR __k$[ebp+1], -20 ; ffffffecH
  001ed	eb 04		 jmp	 SHORT $LN1@LoadInt_e@3
$LN96@LoadInt_e@3:
  001ef	c6 45 e4 ed	 mov	 BYTE PTR __k$[ebp], -19	; ffffffedH
$LN1@LoadInt_e@3:
  001f3	6a 04		 push	 4
  001f5	8d 45 e4	 lea	 eax, DWORD PTR __k$[ebp]
  001f8	c6 45 f6 00	 mov	 BYTE PTR __k$[ebp+18], 0
  001fc	5a		 pop	 edx
$LL104@LoadInt_e@3:
  001fd	81 30 ed ec eb
	ea		 xor	 DWORD PTR [eax], -353637139 ; eaebecedH
  00203	83 c0 04	 add	 eax, 4
  00206	4a		 dec	 edx
  00207	75 f4		 jne	 SHORT $LL104@LoadInt_e@3
  00209	6a 10		 push	 16			; 00000010H
  0020b	58		 pop	 eax
$LL101@LoadInt_e@3:
  0020c	8b c8		 mov	 ecx, eax
  0020e	81 e1 03 00 00
	80		 and	 ecx, -2147483645	; 80000003H
  00214	79 05		 jns	 SHORT $LN111@LoadInt_e@3
  00216	49		 dec	 ecx
  00217	83 c9 fc	 or	 ecx, -4			; fffffffcH
  0021a	41		 inc	 ecx
$LN111@LoadInt_e@3:
  0021b	b2 ed		 mov	 dl, -19			; ffffffedH
  0021d	2a d1		 sub	 dl, cl
  0021f	30 54 05 e4	 xor	 BYTE PTR __k$[ebp+eax], dl
  00223	40		 inc	 eax
  00224	83 f8 12	 cmp	 eax, 18			; 00000012H
  00227	7c e3		 jl	 SHORT $LL101@LoadInt_e@3

; 120  : 		return LoadInt(_k, i);

  00229	ff 75 0c	 push	 DWORD PTR _i$[ebp]
  0022c	8d 45 e4	 lea	 eax, DWORD PTR __k$[ebp]
  0022f	50		 push	 eax
  00230	8b ce		 mov	 ecx, esi
  00232	ff 15 00 00 00
	00		 call	 DWORD PTR __imp_?LoadInt@ioINILoader@@QAEHPBDH@Z

; 121  : 	}

  00238	8b 4d fc	 mov	 ecx, DWORD PTR __$ArrayPad$[ebp]
  0023b	33 cd		 xor	 ecx, ebp
  0023d	5e		 pop	 esi
  0023e	e8 00 00 00 00	 call	 @__security_check_cookie@4
  00243	c9		 leave
  00244	c2 08 00	 ret	 8
??$LoadInt_e@$0BD@@ioINILoader@@QAEHAAY0BD@$$CBDH@Z ENDP ; ioINILoader::LoadInt_e<19>
_TEXT	ENDS
PUBLIC	__$ArrayPad$
PUBLIC	??$LoadFloat_e@$0N@@ioINILoader@@QAEMAAY0N@$$CBDM@Z ; ioINILoader::LoadFloat_e<13>
EXTRN	__imp_?LoadFloat@ioINILoader@@QAEMPBDM@Z:PROC
; Function compile flags: /Ogsp
;	COMDAT ??$LoadFloat_e@$0N@@ioINILoader@@QAEMAAY0N@$$CBDM@Z
_TEXT	SEGMENT
__k$ = -24						; size = 13
__$ArrayPad$ = -4					; size = 4
_k$ = 8							; size = 4
_f$ = 12						; size = 4
??$LoadFloat_e@$0N@@ioINILoader@@QAEMAAY0N@$$CBDM@Z PROC ; ioINILoader::LoadFloat_e<13>, COMDAT
; _this$ = ecx

; 135  : 	{

  00000	55		 push	 ebp
  00001	8b ec		 mov	 ebp, esp
  00003	83 ec 18	 sub	 esp, 24			; 00000018H
  00006	a1 00 00 00 00	 mov	 eax, DWORD PTR ___security_cookie
  0000b	33 c5		 xor	 eax, ebp
  0000d	89 45 fc	 mov	 DWORD PTR __$ArrayPad$[ebp], eax
  00010	8b 45 08	 mov	 eax, DWORD PTR _k$[ebp]

; 136  : 		_ENCSTR(k, _k);

  00013	8a 10		 mov	 dl, BYTE PTR [eax]
  00015	56		 push	 esi
  00016	8b f1		 mov	 esi, ecx
  00018	84 d2		 test	 dl, dl
  0001a	0f 84 4d 01 00
	00		 je	 $LN96@LoadFloat_
  00020	80 f2 ed	 xor	 dl, -19			; ffffffedH
  00023	88 55 e8	 mov	 BYTE PTR __k$[ebp], dl
  00026	8a 50 01	 mov	 dl, BYTE PTR [eax+1]
  00029	84 d2		 test	 dl, dl
  0002b	0f 84 36 01 00
	00		 je	 $LN95@LoadFloat_
  00031	b1 ec		 mov	 cl, -20			; ffffffecH
  00033	32 d1		 xor	 dl, cl
  00035	88 55 e9	 mov	 BYTE PTR __k$[ebp+1], dl
  00038	8a 50 02	 mov	 dl, BYTE PTR [eax+2]
  0003b	84 d2		 test	 dl, dl
  0003d	0f 84 1e 01 00
	00		 je	 $LN94@LoadFloat_
  00043	80 f2 eb	 xor	 dl, -21			; ffffffebH
  00046	88 55 ea	 mov	 BYTE PTR __k$[ebp+2], dl
  00049	8a 50 03	 mov	 dl, BYTE PTR [eax+3]
  0004c	84 d2		 test	 dl, dl
  0004e	0f 84 07 01 00
	00		 je	 $LN93@LoadFloat_
  00054	80 f2 ea	 xor	 dl, -22			; ffffffeaH
  00057	88 55 eb	 mov	 BYTE PTR __k$[ebp+3], dl
  0005a	8a 50 04	 mov	 dl, BYTE PTR [eax+4]
  0005d	84 d2		 test	 dl, dl
  0005f	0f 84 f0 00 00
	00		 je	 $LN92@LoadFloat_
  00065	80 f2 ed	 xor	 dl, -19			; ffffffedH
  00068	88 55 ec	 mov	 BYTE PTR __k$[ebp+4], dl
  0006b	8a 50 05	 mov	 dl, BYTE PTR [eax+5]
  0006e	84 d2		 test	 dl, dl
  00070	0f 84 da 00 00
	00		 je	 $LN91@LoadFloat_
  00076	32 d1		 xor	 dl, cl
  00078	88 55 ed	 mov	 BYTE PTR __k$[ebp+5], dl
  0007b	8a 50 06	 mov	 dl, BYTE PTR [eax+6]
  0007e	84 d2		 test	 dl, dl
  00080	0f 84 c4 00 00
	00		 je	 $LN90@LoadFloat_
  00086	80 f2 eb	 xor	 dl, -21			; ffffffebH
  00089	88 55 ee	 mov	 BYTE PTR __k$[ebp+6], dl
  0008c	8a 50 07	 mov	 dl, BYTE PTR [eax+7]
  0008f	84 d2		 test	 dl, dl
  00091	0f 84 ad 00 00
	00		 je	 $LN89@LoadFloat_
  00097	80 f2 ea	 xor	 dl, -22			; ffffffeaH
  0009a	88 55 ef	 mov	 BYTE PTR __k$[ebp+7], dl
  0009d	8a 50 08	 mov	 dl, BYTE PTR [eax+8]
  000a0	84 d2		 test	 dl, dl
  000a2	0f 84 96 00 00
	00		 je	 $LN88@LoadFloat_
  000a8	80 f2 ed	 xor	 dl, -19			; ffffffedH
  000ab	88 55 f0	 mov	 BYTE PTR __k$[ebp+8], dl
  000ae	8a 50 09	 mov	 dl, BYTE PTR [eax+9]
  000b1	84 d2		 test	 dl, dl
  000b3	0f 84 80 00 00
	00		 je	 $LN87@LoadFloat_
  000b9	32 d1		 xor	 dl, cl
  000bb	88 55 f1	 mov	 BYTE PTR __k$[ebp+9], dl
  000be	8a 50 0a	 mov	 dl, BYTE PTR [eax+10]
  000c1	84 d2		 test	 dl, dl
  000c3	74 6e		 je	 SHORT $LN86@LoadFloat_
  000c5	80 f2 eb	 xor	 dl, -21			; ffffffebH
  000c8	88 55 f2	 mov	 BYTE PTR __k$[ebp+10], dl
  000cb	8a 50 0b	 mov	 dl, BYTE PTR [eax+11]
  000ce	84 d2		 test	 dl, dl
  000d0	74 5b		 je	 SHORT $LN85@LoadFloat_
  000d2	80 f2 ea	 xor	 dl, -22			; ffffffeaH
  000d5	80 78 0c 00	 cmp	 BYTE PTR [eax+12], 0
  000d9	88 55 f3	 mov	 BYTE PTR __k$[ebp+11], dl
  000dc	0f 84 8f 00 00
	00		 je	 $LN1@LoadFloat_
  000e2	8a 50 0d	 mov	 dl, BYTE PTR [eax+13]
  000e5	84 d2		 test	 dl, dl
  000e7	74 3f		 je	 SHORT $LN83@LoadFloat_
  000e9	32 d1		 xor	 dl, cl
  000eb	88 55 f5	 mov	 BYTE PTR __k$[ebp+13], dl
  000ee	8a 50 0e	 mov	 dl, BYTE PTR [eax+14]
  000f1	84 d2		 test	 dl, dl
  000f3	74 2d		 je	 SHORT $LN82@LoadFloat_
  000f5	80 f2 eb	 xor	 dl, -21			; ffffffebH
  000f8	88 55 f6	 mov	 BYTE PTR __k$[ebp+14], dl
  000fb	8a 50 0f	 mov	 dl, BYTE PTR [eax+15]
  000fe	84 d2		 test	 dl, dl
  00100	74 1a		 je	 SHORT $LN81@LoadFloat_
  00102	8a 40 10	 mov	 al, BYTE PTR [eax+16]
  00105	80 f2 ea	 xor	 dl, -22			; ffffffeaH
  00108	88 55 f7	 mov	 BYTE PTR __k$[ebp+15], dl
  0010b	84 c0		 test	 al, al
  0010d	74 07		 je	 SHORT $LN80@LoadFloat_
  0010f	34 ed		 xor	 al, -19			; ffffffedH
  00111	88 45 f8	 mov	 BYTE PTR __k$[ebp+16], al
  00114	eb 5b		 jmp	 SHORT $LN1@LoadFloat_
$LN80@LoadFloat_:
  00116	c6 45 f8 ed	 mov	 BYTE PTR __k$[ebp+16], -19 ; ffffffedH
  0011a	eb 55		 jmp	 SHORT $LN1@LoadFloat_
$LN81@LoadFloat_:
  0011c	c6 45 f7 ea	 mov	 BYTE PTR __k$[ebp+15], -22 ; ffffffeaH
  00120	eb 4f		 jmp	 SHORT $LN1@LoadFloat_
$LN82@LoadFloat_:
  00122	c6 45 f6 eb	 mov	 BYTE PTR __k$[ebp+14], -21 ; ffffffebH
  00126	eb 49		 jmp	 SHORT $LN1@LoadFloat_
$LN83@LoadFloat_:
  00128	88 4d f5	 mov	 BYTE PTR __k$[ebp+13], cl
  0012b	eb 44		 jmp	 SHORT $LN1@LoadFloat_
$LN85@LoadFloat_:
  0012d	c6 45 f3 ea	 mov	 BYTE PTR __k$[ebp+11], -22 ; ffffffeaH
  00131	eb 3e		 jmp	 SHORT $LN1@LoadFloat_
$LN86@LoadFloat_:
  00133	c6 45 f2 eb	 mov	 BYTE PTR __k$[ebp+10], -21 ; ffffffebH
  00137	eb 38		 jmp	 SHORT $LN1@LoadFloat_
$LN87@LoadFloat_:
  00139	88 4d f1	 mov	 BYTE PTR __k$[ebp+9], cl
  0013c	eb 33		 jmp	 SHORT $LN1@LoadFloat_
$LN88@LoadFloat_:
  0013e	c6 45 f0 ed	 mov	 BYTE PTR __k$[ebp+8], -19 ; ffffffedH
  00142	eb 2d		 jmp	 SHORT $LN1@LoadFloat_
$LN89@LoadFloat_:
  00144	c6 45 ef ea	 mov	 BYTE PTR __k$[ebp+7], -22 ; ffffffeaH
  00148	eb 27		 jmp	 SHORT $LN1@LoadFloat_
$LN90@LoadFloat_:
  0014a	c6 45 ee eb	 mov	 BYTE PTR __k$[ebp+6], -21 ; ffffffebH
  0014e	eb 21		 jmp	 SHORT $LN1@LoadFloat_
$LN91@LoadFloat_:
  00150	88 4d ed	 mov	 BYTE PTR __k$[ebp+5], cl
  00153	eb 1c		 jmp	 SHORT $LN1@LoadFloat_
$LN92@LoadFloat_:
  00155	c6 45 ec ed	 mov	 BYTE PTR __k$[ebp+4], -19 ; ffffffedH
  00159	eb 16		 jmp	 SHORT $LN1@LoadFloat_
$LN93@LoadFloat_:
  0015b	c6 45 eb ea	 mov	 BYTE PTR __k$[ebp+3], -22 ; ffffffeaH
  0015f	eb 10		 jmp	 SHORT $LN1@LoadFloat_
$LN94@LoadFloat_:
  00161	c6 45 ea eb	 mov	 BYTE PTR __k$[ebp+2], -21 ; ffffffebH
  00165	eb 0a		 jmp	 SHORT $LN1@LoadFloat_
$LN95@LoadFloat_:
  00167	c6 45 e9 ec	 mov	 BYTE PTR __k$[ebp+1], -20 ; ffffffecH
  0016b	eb 04		 jmp	 SHORT $LN1@LoadFloat_
$LN96@LoadFloat_:
  0016d	c6 45 e8 ed	 mov	 BYTE PTR __k$[ebp], -19	; ffffffedH
$LN1@LoadFloat_:
  00171	6a 03		 push	 3
  00173	8d 45 e8	 lea	 eax, DWORD PTR __k$[ebp]
  00176	c6 45 f4 00	 mov	 BYTE PTR __k$[ebp+12], 0
  0017a	5a		 pop	 edx
$LL104@LoadFloat_:
  0017b	81 30 ed ec eb
	ea		 xor	 DWORD PTR [eax], -353637139 ; eaebecedH
  00181	83 c0 04	 add	 eax, 4
  00184	4a		 dec	 edx
  00185	75 f4		 jne	 SHORT $LL104@LoadFloat_

; 137  : 		return LoadFloat(_k, f);

  00187	f3 0f 10 45 0c	 movss	 xmm0, DWORD PTR _f$[ebp]
  0018c	51		 push	 ecx
  0018d	8d 45 e8	 lea	 eax, DWORD PTR __k$[ebp]
  00190	f3 0f 11 04 24	 movss	 DWORD PTR [esp], xmm0
  00195	50		 push	 eax
  00196	8b ce		 mov	 ecx, esi
  00198	ff 15 00 00 00
	00		 call	 DWORD PTR __imp_?LoadFloat@ioINILoader@@QAEMPBDM@Z

; 138  : 	}

  0019e	8b 4d fc	 mov	 ecx, DWORD PTR __$ArrayPad$[ebp]
  001a1	33 cd		 xor	 ecx, ebp
  001a3	5e		 pop	 esi
  001a4	e8 00 00 00 00	 call	 @__security_check_cookie@4
  001a9	c9		 leave
  001aa	c2 08 00	 ret	 8
??$LoadFloat_e@$0N@@ioINILoader@@QAEMAAY0N@$$CBDM@Z ENDP ; ioINILoader::LoadFloat_e<13>
_TEXT	ENDS
PUBLIC	__$ArrayPad$
PUBLIC	??$LoadFloat_e@$0O@@ioINILoader@@QAEMAAY0O@$$CBDM@Z ; ioINILoader::LoadFloat_e<14>
; Function compile flags: /Ogsp
;	COMDAT ??$LoadFloat_e@$0O@@ioINILoader@@QAEMAAY0O@$$CBDM@Z
_TEXT	SEGMENT
__k$ = -24						; size = 14
__$ArrayPad$ = -4					; size = 4
_k$ = 8							; size = 4
_f$ = 12						; size = 4
??$LoadFloat_e@$0O@@ioINILoader@@QAEMAAY0O@$$CBDM@Z PROC ; ioINILoader::LoadFloat_e<14>, COMDAT
; _this$ = ecx

; 135  : 	{

  00000	55		 push	 ebp
  00001	8b ec		 mov	 ebp, esp
  00003	83 ec 18	 sub	 esp, 24			; 00000018H
  00006	a1 00 00 00 00	 mov	 eax, DWORD PTR ___security_cookie
  0000b	33 c5		 xor	 eax, ebp
  0000d	89 45 fc	 mov	 DWORD PTR __$ArrayPad$[ebp], eax
  00010	8b 45 08	 mov	 eax, DWORD PTR _k$[ebp]

; 136  : 		_ENCSTR(k, _k);

  00013	8a 10		 mov	 dl, BYTE PTR [eax]
  00015	56		 push	 esi
  00016	8b f1		 mov	 esi, ecx
  00018	84 d2		 test	 dl, dl
  0001a	0f 84 64 01 00
	00		 je	 $LN96@LoadFloat_@2
  00020	80 f2 ed	 xor	 dl, -19			; ffffffedH
  00023	88 55 e8	 mov	 BYTE PTR __k$[ebp], dl
  00026	8a 50 01	 mov	 dl, BYTE PTR [eax+1]
  00029	84 d2		 test	 dl, dl
  0002b	0f 84 4d 01 00
	00		 je	 $LN95@LoadFloat_@2
  00031	80 f2 ec	 xor	 dl, -20			; ffffffecH
  00034	88 55 e9	 mov	 BYTE PTR __k$[ebp+1], dl
  00037	8a 50 02	 mov	 dl, BYTE PTR [eax+2]
  0003a	84 d2		 test	 dl, dl
  0003c	0f 84 36 01 00
	00		 je	 $LN94@LoadFloat_@2
  00042	b1 eb		 mov	 cl, -21			; ffffffebH
  00044	32 d1		 xor	 dl, cl
  00046	88 55 ea	 mov	 BYTE PTR __k$[ebp+2], dl
  00049	8a 50 03	 mov	 dl, BYTE PTR [eax+3]
  0004c	84 d2		 test	 dl, dl
  0004e	0f 84 1e 01 00
	00		 je	 $LN93@LoadFloat_@2
  00054	80 f2 ea	 xor	 dl, -22			; ffffffeaH
  00057	88 55 eb	 mov	 BYTE PTR __k$[ebp+3], dl
  0005a	8a 50 04	 mov	 dl, BYTE PTR [eax+4]
  0005d	84 d2		 test	 dl, dl
  0005f	0f 84 07 01 00
	00		 je	 $LN92@LoadFloat_@2
  00065	80 f2 ed	 xor	 dl, -19			; ffffffedH
  00068	88 55 ec	 mov	 BYTE PTR __k$[ebp+4], dl
  0006b	8a 50 05	 mov	 dl, BYTE PTR [eax+5]
  0006e	84 d2		 test	 dl, dl
  00070	0f 84 f0 00 00
	00		 je	 $LN91@LoadFloat_@2
  00076	80 f2 ec	 xor	 dl, -20			; ffffffecH
  00079	88 55 ed	 mov	 BYTE PTR __k$[ebp+5], dl
  0007c	8a 50 06	 mov	 dl, BYTE PTR [eax+6]
  0007f	84 d2		 test	 dl, dl
  00081	0f 84 da 00 00
	00		 je	 $LN90@LoadFloat_@2
  00087	32 d1		 xor	 dl, cl
  00089	88 55 ee	 mov	 BYTE PTR __k$[ebp+6], dl
  0008c	8a 50 07	 mov	 dl, BYTE PTR [eax+7]
  0008f	84 d2		 test	 dl, dl
  00091	0f 84 c4 00 00
	00		 je	 $LN89@LoadFloat_@2
  00097	80 f2 ea	 xor	 dl, -22			; ffffffeaH
  0009a	88 55 ef	 mov	 BYTE PTR __k$[ebp+7], dl
  0009d	8a 50 08	 mov	 dl, BYTE PTR [eax+8]
  000a0	84 d2		 test	 dl, dl
  000a2	0f 84 ad 00 00
	00		 je	 $LN88@LoadFloat_@2
  000a8	80 f2 ed	 xor	 dl, -19			; ffffffedH
  000ab	88 55 f0	 mov	 BYTE PTR __k$[ebp+8], dl
  000ae	8a 50 09	 mov	 dl, BYTE PTR [eax+9]
  000b1	84 d2		 test	 dl, dl
  000b3	0f 84 96 00 00
	00		 je	 $LN87@LoadFloat_@2
  000b9	80 f2 ec	 xor	 dl, -20			; ffffffecH
  000bc	88 55 f1	 mov	 BYTE PTR __k$[ebp+9], dl
  000bf	8a 50 0a	 mov	 dl, BYTE PTR [eax+10]
  000c2	84 d2		 test	 dl, dl
  000c4	0f 84 80 00 00
	00		 je	 $LN86@LoadFloat_@2
  000ca	32 d1		 xor	 dl, cl
  000cc	88 55 f2	 mov	 BYTE PTR __k$[ebp+10], dl
  000cf	8a 50 0b	 mov	 dl, BYTE PTR [eax+11]
  000d2	84 d2		 test	 dl, dl
  000d4	74 6e		 je	 SHORT $LN85@LoadFloat_@2
  000d6	80 f2 ea	 xor	 dl, -22			; ffffffeaH
  000d9	88 55 f3	 mov	 BYTE PTR __k$[ebp+11], dl
  000dc	8a 50 0c	 mov	 dl, BYTE PTR [eax+12]
  000df	84 d2		 test	 dl, dl
  000e1	74 5b		 je	 SHORT $LN84@LoadFloat_@2
  000e3	80 f2 ed	 xor	 dl, -19			; ffffffedH
  000e6	80 78 0d 00	 cmp	 BYTE PTR [eax+13], 0
  000ea	88 55 f4	 mov	 BYTE PTR __k$[ebp+12], dl
  000ed	0f 84 95 00 00
	00		 je	 $LN1@LoadFloat_@2
  000f3	8a 50 0e	 mov	 dl, BYTE PTR [eax+14]
  000f6	84 d2		 test	 dl, dl
  000f8	74 3f		 je	 SHORT $LN82@LoadFloat_@2
  000fa	32 d1		 xor	 dl, cl
  000fc	88 55 f6	 mov	 BYTE PTR __k$[ebp+14], dl
  000ff	8a 50 0f	 mov	 dl, BYTE PTR [eax+15]
  00102	84 d2		 test	 dl, dl
  00104	74 2d		 je	 SHORT $LN81@LoadFloat_@2
  00106	80 f2 ea	 xor	 dl, -22			; ffffffeaH
  00109	88 55 f7	 mov	 BYTE PTR __k$[ebp+15], dl
  0010c	8a 50 10	 mov	 dl, BYTE PTR [eax+16]
  0010f	84 d2		 test	 dl, dl
  00111	74 1a		 je	 SHORT $LN80@LoadFloat_@2
  00113	8a 40 11	 mov	 al, BYTE PTR [eax+17]
  00116	80 f2 ed	 xor	 dl, -19			; ffffffedH
  00119	88 55 f8	 mov	 BYTE PTR __k$[ebp+16], dl
  0011c	84 c0		 test	 al, al
  0011e	74 07		 je	 SHORT $LN79@LoadFloat_@2
  00120	34 ec		 xor	 al, -20			; ffffffecH
  00122	88 45 f9	 mov	 BYTE PTR __k$[ebp+17], al
  00125	eb 61		 jmp	 SHORT $LN1@LoadFloat_@2
$LN79@LoadFloat_@2:
  00127	c6 45 f9 ec	 mov	 BYTE PTR __k$[ebp+17], -20 ; ffffffecH
  0012b	eb 5b		 jmp	 SHORT $LN1@LoadFloat_@2
$LN80@LoadFloat_@2:
  0012d	c6 45 f8 ed	 mov	 BYTE PTR __k$[ebp+16], -19 ; ffffffedH
  00131	eb 55		 jmp	 SHORT $LN1@LoadFloat_@2
$LN81@LoadFloat_@2:
  00133	c6 45 f7 ea	 mov	 BYTE PTR __k$[ebp+15], -22 ; ffffffeaH
  00137	eb 4f		 jmp	 SHORT $LN1@LoadFloat_@2
$LN82@LoadFloat_@2:
  00139	88 4d f6	 mov	 BYTE PTR __k$[ebp+14], cl
  0013c	eb 4a		 jmp	 SHORT $LN1@LoadFloat_@2
$LN84@LoadFloat_@2:
  0013e	c6 45 f4 ed	 mov	 BYTE PTR __k$[ebp+12], -19 ; ffffffedH
  00142	eb 44		 jmp	 SHORT $LN1@LoadFloat_@2
$LN85@LoadFloat_@2:
  00144	c6 45 f3 ea	 mov	 BYTE PTR __k$[ebp+11], -22 ; ffffffeaH
  00148	eb 3e		 jmp	 SHORT $LN1@LoadFloat_@2
$LN86@LoadFloat_@2:
  0014a	88 4d f2	 mov	 BYTE PTR __k$[ebp+10], cl
  0014d	eb 39		 jmp	 SHORT $LN1@LoadFloat_@2
$LN87@LoadFloat_@2:
  0014f	c6 45 f1 ec	 mov	 BYTE PTR __k$[ebp+9], -20 ; ffffffecH
  00153	eb 33		 jmp	 SHORT $LN1@LoadFloat_@2
$LN88@LoadFloat_@2:
  00155	c6 45 f0 ed	 mov	 BYTE PTR __k$[ebp+8], -19 ; ffffffedH
  00159	eb 2d		 jmp	 SHORT $LN1@LoadFloat_@2
$LN89@LoadFloat_@2:
  0015b	c6 45 ef ea	 mov	 BYTE PTR __k$[ebp+7], -22 ; ffffffeaH
  0015f	eb 27		 jmp	 SHORT $LN1@LoadFloat_@2
$LN90@LoadFloat_@2:
  00161	88 4d ee	 mov	 BYTE PTR __k$[ebp+6], cl
  00164	eb 22		 jmp	 SHORT $LN1@LoadFloat_@2
$LN91@LoadFloat_@2:
  00166	c6 45 ed ec	 mov	 BYTE PTR __k$[ebp+5], -20 ; ffffffecH
  0016a	eb 1c		 jmp	 SHORT $LN1@LoadFloat_@2
$LN92@LoadFloat_@2:
  0016c	c6 45 ec ed	 mov	 BYTE PTR __k$[ebp+4], -19 ; ffffffedH
  00170	eb 16		 jmp	 SHORT $LN1@LoadFloat_@2
$LN93@LoadFloat_@2:
  00172	c6 45 eb ea	 mov	 BYTE PTR __k$[ebp+3], -22 ; ffffffeaH
  00176	eb 10		 jmp	 SHORT $LN1@LoadFloat_@2
$LN94@LoadFloat_@2:
  00178	c6 45 ea eb	 mov	 BYTE PTR __k$[ebp+2], -21 ; ffffffebH
  0017c	eb 0a		 jmp	 SHORT $LN1@LoadFloat_@2
$LN95@LoadFloat_@2:
  0017e	c6 45 e9 ec	 mov	 BYTE PTR __k$[ebp+1], -20 ; ffffffecH
  00182	eb 04		 jmp	 SHORT $LN1@LoadFloat_@2
$LN96@LoadFloat_@2:
  00184	c6 45 e8 ed	 mov	 BYTE PTR __k$[ebp], -19	; ffffffedH
$LN1@LoadFloat_@2:
  00188	6a 03		 push	 3
  0018a	8d 45 e8	 lea	 eax, DWORD PTR __k$[ebp]
  0018d	c6 45 f5 00	 mov	 BYTE PTR __k$[ebp+13], 0
  00191	5a		 pop	 edx
$LL104@LoadFloat_@2:
  00192	81 30 ed ec eb
	ea		 xor	 DWORD PTR [eax], -353637139 ; eaebecedH
  00198	83 c0 04	 add	 eax, 4
  0019b	4a		 dec	 edx
  0019c	75 f4		 jne	 SHORT $LL104@LoadFloat_@2

; 137  : 		return LoadFloat(_k, f);

  0019e	f3 0f 10 45 0c	 movss	 xmm0, DWORD PTR _f$[ebp]
  001a3	80 75 f4 ed	 xor	 BYTE PTR __k$[ebp+12], -19 ; ffffffedH
  001a7	51		 push	 ecx
  001a8	8d 45 e8	 lea	 eax, DWORD PTR __k$[ebp]
  001ab	f3 0f 11 04 24	 movss	 DWORD PTR [esp], xmm0
  001b0	50		 push	 eax
  001b1	8b ce		 mov	 ecx, esi
  001b3	ff 15 00 00 00
	00		 call	 DWORD PTR __imp_?LoadFloat@ioINILoader@@QAEMPBDM@Z

; 138  : 	}

  001b9	8b 4d fc	 mov	 ecx, DWORD PTR __$ArrayPad$[ebp]
  001bc	33 cd		 xor	 ecx, ebp
  001be	5e		 pop	 esi
  001bf	e8 00 00 00 00	 call	 @__security_check_cookie@4
  001c4	c9		 leave
  001c5	c2 08 00	 ret	 8
??$LoadFloat_e@$0O@@ioINILoader@@QAEMAAY0O@$$CBDM@Z ENDP ; ioINILoader::LoadFloat_e<14>
_TEXT	ENDS
PUBLIC	__$ArrayPad$
PUBLIC	??$LoadFloat_e@$0BF@@ioINILoader@@QAEMAAY0BF@$$CBDM@Z ; ioINILoader::LoadFloat_e<21>
; Function compile flags: /Ogsp
;	COMDAT ??$LoadFloat_e@$0BF@@ioINILoader@@QAEMAAY0BF@$$CBDM@Z
_TEXT	SEGMENT
__k$ = -32						; size = 21
__$ArrayPad$ = -4					; size = 4
_k$ = 8							; size = 4
_f$ = 12						; size = 4
??$LoadFloat_e@$0BF@@ioINILoader@@QAEMAAY0BF@$$CBDM@Z PROC ; ioINILoader::LoadFloat_e<21>, COMDAT
; _this$ = ecx

; 135  : 	{

  00000	55		 push	 ebp
  00001	8b ec		 mov	 ebp, esp
  00003	83 ec 20	 sub	 esp, 32			; 00000020H
  00006	a1 00 00 00 00	 mov	 eax, DWORD PTR ___security_cookie
  0000b	33 c5		 xor	 eax, ebp
  0000d	89 45 fc	 mov	 DWORD PTR __$ArrayPad$[ebp], eax
  00010	8b 45 08	 mov	 eax, DWORD PTR _k$[ebp]

; 136  : 		_ENCSTR(k, _k);

  00013	8a 10		 mov	 dl, BYTE PTR [eax]
  00015	53		 push	 ebx
  00016	56		 push	 esi
  00017	8b f1		 mov	 esi, ecx
  00019	84 d2		 test	 dl, dl
  0001b	0f 84 f7 01 00
	00		 je	 $LN96@LoadFloat_@3
  00021	80 f2 ed	 xor	 dl, -19			; ffffffedH
  00024	88 55 e0	 mov	 BYTE PTR __k$[ebp], dl
  00027	8a 50 01	 mov	 dl, BYTE PTR [eax+1]
  0002a	84 d2		 test	 dl, dl
  0002c	0f 84 e0 01 00
	00		 je	 $LN95@LoadFloat_@3
  00032	b1 ec		 mov	 cl, -20			; ffffffecH
  00034	32 d1		 xor	 dl, cl
  00036	88 55 e1	 mov	 BYTE PTR __k$[ebp+1], dl
  00039	8a 50 02	 mov	 dl, BYTE PTR [eax+2]
  0003c	84 d2		 test	 dl, dl
  0003e	0f 84 c8 01 00
	00		 je	 $LN94@LoadFloat_@3
  00044	b3 eb		 mov	 bl, -21			; ffffffebH
  00046	32 d3		 xor	 dl, bl
  00048	88 55 e2	 mov	 BYTE PTR __k$[ebp+2], dl
  0004b	8a 50 03	 mov	 dl, BYTE PTR [eax+3]
  0004e	84 d2		 test	 dl, dl
  00050	0f 84 b0 01 00
	00		 je	 $LN93@LoadFloat_@3
  00056	80 f2 ea	 xor	 dl, -22			; ffffffeaH
  00059	88 55 e3	 mov	 BYTE PTR __k$[ebp+3], dl
  0005c	8a 50 04	 mov	 dl, BYTE PTR [eax+4]
  0005f	84 d2		 test	 dl, dl
  00061	0f 84 99 01 00
	00		 je	 $LN92@LoadFloat_@3
  00067	80 f2 ed	 xor	 dl, -19			; ffffffedH
  0006a	88 55 e4	 mov	 BYTE PTR __k$[ebp+4], dl
  0006d	8a 50 05	 mov	 dl, BYTE PTR [eax+5]
  00070	84 d2		 test	 dl, dl
  00072	0f 84 83 01 00
	00		 je	 $LN91@LoadFloat_@3
  00078	32 d1		 xor	 dl, cl
  0007a	88 55 e5	 mov	 BYTE PTR __k$[ebp+5], dl
  0007d	8a 50 06	 mov	 dl, BYTE PTR [eax+6]
  00080	84 d2		 test	 dl, dl
  00082	0f 84 6e 01 00
	00		 je	 $LN90@LoadFloat_@3
  00088	32 d3		 xor	 dl, bl
  0008a	88 55 e6	 mov	 BYTE PTR __k$[ebp+6], dl
  0008d	8a 50 07	 mov	 dl, BYTE PTR [eax+7]
  00090	84 d2		 test	 dl, dl
  00092	0f 84 58 01 00
	00		 je	 $LN89@LoadFloat_@3
  00098	80 f2 ea	 xor	 dl, -22			; ffffffeaH
  0009b	88 55 e7	 mov	 BYTE PTR __k$[ebp+7], dl
  0009e	8a 50 08	 mov	 dl, BYTE PTR [eax+8]
  000a1	84 d2		 test	 dl, dl
  000a3	0f 84 41 01 00
	00		 je	 $LN88@LoadFloat_@3
  000a9	80 f2 ed	 xor	 dl, -19			; ffffffedH
  000ac	88 55 e8	 mov	 BYTE PTR __k$[ebp+8], dl
  000af	8a 50 09	 mov	 dl, BYTE PTR [eax+9]
  000b2	84 d2		 test	 dl, dl
  000b4	0f 84 2b 01 00
	00		 je	 $LN87@LoadFloat_@3
  000ba	32 d1		 xor	 dl, cl
  000bc	88 55 e9	 mov	 BYTE PTR __k$[ebp+9], dl
  000bf	8a 50 0a	 mov	 dl, BYTE PTR [eax+10]
  000c2	84 d2		 test	 dl, dl
  000c4	0f 84 16 01 00
	00		 je	 $LN86@LoadFloat_@3
  000ca	32 d3		 xor	 dl, bl
  000cc	88 55 ea	 mov	 BYTE PTR __k$[ebp+10], dl
  000cf	8a 50 0b	 mov	 dl, BYTE PTR [eax+11]
  000d2	84 d2		 test	 dl, dl
  000d4	0f 84 00 01 00
	00		 je	 $LN85@LoadFloat_@3
  000da	80 f2 ea	 xor	 dl, -22			; ffffffeaH
  000dd	88 55 eb	 mov	 BYTE PTR __k$[ebp+11], dl
  000e0	8a 50 0c	 mov	 dl, BYTE PTR [eax+12]
  000e3	84 d2		 test	 dl, dl
  000e5	0f 84 e9 00 00
	00		 je	 $LN84@LoadFloat_@3
  000eb	80 f2 ed	 xor	 dl, -19			; ffffffedH
  000ee	88 55 ec	 mov	 BYTE PTR __k$[ebp+12], dl
  000f1	8a 50 0d	 mov	 dl, BYTE PTR [eax+13]
  000f4	84 d2		 test	 dl, dl
  000f6	0f 84 d3 00 00
	00		 je	 $LN83@LoadFloat_@3
  000fc	32 d1		 xor	 dl, cl
  000fe	88 55 ed	 mov	 BYTE PTR __k$[ebp+13], dl
  00101	8a 50 0e	 mov	 dl, BYTE PTR [eax+14]
  00104	84 d2		 test	 dl, dl
  00106	0f 84 be 00 00
	00		 je	 $LN82@LoadFloat_@3
  0010c	32 d3		 xor	 dl, bl
  0010e	88 55 ee	 mov	 BYTE PTR __k$[ebp+14], dl
  00111	8a 50 0f	 mov	 dl, BYTE PTR [eax+15]
  00114	84 d2		 test	 dl, dl
  00116	0f 84 a8 00 00
	00		 je	 $LN81@LoadFloat_@3
  0011c	80 f2 ea	 xor	 dl, -22			; ffffffeaH
  0011f	88 55 ef	 mov	 BYTE PTR __k$[ebp+15], dl
  00122	8a 50 10	 mov	 dl, BYTE PTR [eax+16]
  00125	84 d2		 test	 dl, dl
  00127	0f 84 91 00 00
	00		 je	 $LN80@LoadFloat_@3
  0012d	80 f2 ed	 xor	 dl, -19			; ffffffedH
  00130	88 55 f0	 mov	 BYTE PTR __k$[ebp+16], dl
  00133	8a 50 11	 mov	 dl, BYTE PTR [eax+17]
  00136	84 d2		 test	 dl, dl
  00138	74 7f		 je	 SHORT $LN79@LoadFloat_@3
  0013a	32 d1		 xor	 dl, cl
  0013c	88 55 f1	 mov	 BYTE PTR __k$[ebp+17], dl
  0013f	8a 50 12	 mov	 dl, BYTE PTR [eax+18]
  00142	84 d2		 test	 dl, dl
  00144	74 6e		 je	 SHORT $LN78@LoadFloat_@3
  00146	32 d3		 xor	 dl, bl
  00148	88 55 f2	 mov	 BYTE PTR __k$[ebp+18], dl
  0014b	8a 50 13	 mov	 dl, BYTE PTR [eax+19]
  0014e	84 d2		 test	 dl, dl
  00150	74 5c		 je	 SHORT $LN77@LoadFloat_@3
  00152	80 f2 ea	 xor	 dl, -22			; ffffffeaH
  00155	80 78 14 00	 cmp	 BYTE PTR [eax+20], 0
  00159	88 55 f3	 mov	 BYTE PTR __k$[ebp+19], dl
  0015c	0f 84 ba 00 00
	00		 je	 $LN1@LoadFloat_@3
  00162	8a 50 15	 mov	 dl, BYTE PTR [eax+21]
  00165	84 d2		 test	 dl, dl
  00167	74 40		 je	 SHORT $LN75@LoadFloat_@3
  00169	32 d1		 xor	 dl, cl
  0016b	88 55 f5	 mov	 BYTE PTR __k$[ebp+21], dl
  0016e	8a 50 16	 mov	 dl, BYTE PTR [eax+22]
  00171	84 d2		 test	 dl, dl
  00173	74 2f		 je	 SHORT $LN74@LoadFloat_@3
  00175	32 d3		 xor	 dl, bl
  00177	88 55 f6	 mov	 BYTE PTR __k$[ebp+22], dl
  0017a	8a 50 17	 mov	 dl, BYTE PTR [eax+23]
  0017d	84 d2		 test	 dl, dl
  0017f	74 1d		 je	 SHORT $LN73@LoadFloat_@3
  00181	8a 40 18	 mov	 al, BYTE PTR [eax+24]
  00184	80 f2 ea	 xor	 dl, -22			; ffffffeaH
  00187	88 55 f7	 mov	 BYTE PTR __k$[ebp+23], dl
  0018a	84 c0		 test	 al, al
  0018c	74 0a		 je	 SHORT $LN72@LoadFloat_@3
  0018e	34 ed		 xor	 al, -19			; ffffffedH
  00190	88 45 f8	 mov	 BYTE PTR __k$[ebp+24], al
  00193	e9 84 00 00 00	 jmp	 $LN1@LoadFloat_@3
$LN72@LoadFloat_@3:
  00198	c6 45 f8 ed	 mov	 BYTE PTR __k$[ebp+24], -19 ; ffffffedH
  0019c	eb 7e		 jmp	 SHORT $LN1@LoadFloat_@3
$LN73@LoadFloat_@3:
  0019e	c6 45 f7 ea	 mov	 BYTE PTR __k$[ebp+23], -22 ; ffffffeaH
  001a2	eb 78		 jmp	 SHORT $LN1@LoadFloat_@3
$LN74@LoadFloat_@3:
  001a4	88 5d f6	 mov	 BYTE PTR __k$[ebp+22], bl
  001a7	eb 73		 jmp	 SHORT $LN1@LoadFloat_@3
$LN75@LoadFloat_@3:
  001a9	88 4d f5	 mov	 BYTE PTR __k$[ebp+21], cl
  001ac	eb 6e		 jmp	 SHORT $LN1@LoadFloat_@3
$LN77@LoadFloat_@3:
  001ae	c6 45 f3 ea	 mov	 BYTE PTR __k$[ebp+19], -22 ; ffffffeaH
  001b2	eb 68		 jmp	 SHORT $LN1@LoadFloat_@3
$LN78@LoadFloat_@3:
  001b4	88 5d f2	 mov	 BYTE PTR __k$[ebp+18], bl
  001b7	eb 63		 jmp	 SHORT $LN1@LoadFloat_@3
$LN79@LoadFloat_@3:
  001b9	88 4d f1	 mov	 BYTE PTR __k$[ebp+17], cl
  001bc	eb 5e		 jmp	 SHORT $LN1@LoadFloat_@3
$LN80@LoadFloat_@3:
  001be	c6 45 f0 ed	 mov	 BYTE PTR __k$[ebp+16], -19 ; ffffffedH
  001c2	eb 58		 jmp	 SHORT $LN1@LoadFloat_@3
$LN81@LoadFloat_@3:
  001c4	c6 45 ef ea	 mov	 BYTE PTR __k$[ebp+15], -22 ; ffffffeaH
  001c8	eb 52		 jmp	 SHORT $LN1@LoadFloat_@3
$LN82@LoadFloat_@3:
  001ca	88 5d ee	 mov	 BYTE PTR __k$[ebp+14], bl
  001cd	eb 4d		 jmp	 SHORT $LN1@LoadFloat_@3
$LN83@LoadFloat_@3:
  001cf	88 4d ed	 mov	 BYTE PTR __k$[ebp+13], cl
  001d2	eb 48		 jmp	 SHORT $LN1@LoadFloat_@3
$LN84@LoadFloat_@3:
  001d4	c6 45 ec ed	 mov	 BYTE PTR __k$[ebp+12], -19 ; ffffffedH
  001d8	eb 42		 jmp	 SHORT $LN1@LoadFloat_@3
$LN85@LoadFloat_@3:
  001da	c6 45 eb ea	 mov	 BYTE PTR __k$[ebp+11], -22 ; ffffffeaH
  001de	eb 3c		 jmp	 SHORT $LN1@LoadFloat_@3
$LN86@LoadFloat_@3:
  001e0	88 5d ea	 mov	 BYTE PTR __k$[ebp+10], bl
  001e3	eb 37		 jmp	 SHORT $LN1@LoadFloat_@3
$LN87@LoadFloat_@3:
  001e5	88 4d e9	 mov	 BYTE PTR __k$[ebp+9], cl
  001e8	eb 32		 jmp	 SHORT $LN1@LoadFloat_@3
$LN88@LoadFloat_@3:
  001ea	c6 45 e8 ed	 mov	 BYTE PTR __k$[ebp+8], -19 ; ffffffedH
  001ee	eb 2c		 jmp	 SHORT $LN1@LoadFloat_@3
$LN89@LoadFloat_@3:
  001f0	c6 45 e7 ea	 mov	 BYTE PTR __k$[ebp+7], -22 ; ffffffeaH
  001f4	eb 26		 jmp	 SHORT $LN1@LoadFloat_@3
$LN90@LoadFloat_@3:
  001f6	88 5d e6	 mov	 BYTE PTR __k$[ebp+6], bl
  001f9	eb 21		 jmp	 SHORT $LN1@LoadFloat_@3
$LN91@LoadFloat_@3:
  001fb	88 4d e5	 mov	 BYTE PTR __k$[ebp+5], cl
  001fe	eb 1c		 jmp	 SHORT $LN1@LoadFloat_@3
$LN92@LoadFloat_@3:
  00200	c6 45 e4 ed	 mov	 BYTE PTR __k$[ebp+4], -19 ; ffffffedH
  00204	eb 16		 jmp	 SHORT $LN1@LoadFloat_@3
$LN93@LoadFloat_@3:
  00206	c6 45 e3 ea	 mov	 BYTE PTR __k$[ebp+3], -22 ; ffffffeaH
  0020a	eb 10		 jmp	 SHORT $LN1@LoadFloat_@3
$LN94@LoadFloat_@3:
  0020c	c6 45 e2 eb	 mov	 BYTE PTR __k$[ebp+2], -21 ; ffffffebH
  00210	eb 0a		 jmp	 SHORT $LN1@LoadFloat_@3
$LN95@LoadFloat_@3:
  00212	c6 45 e1 ec	 mov	 BYTE PTR __k$[ebp+1], -20 ; ffffffecH
  00216	eb 04		 jmp	 SHORT $LN1@LoadFloat_@3
$LN96@LoadFloat_@3:
  00218	c6 45 e0 ed	 mov	 BYTE PTR __k$[ebp], -19	; ffffffedH
$LN1@LoadFloat_@3:
  0021c	6a 05		 push	 5
  0021e	8d 45 e0	 lea	 eax, DWORD PTR __k$[ebp]
  00221	c6 45 f4 00	 mov	 BYTE PTR __k$[ebp+20], 0
  00225	5a		 pop	 edx
$LL104@LoadFloat_@3:
  00226	81 30 ed ec eb
	ea		 xor	 DWORD PTR [eax], -353637139 ; eaebecedH
  0022c	83 c0 04	 add	 eax, 4
  0022f	4a		 dec	 edx
  00230	75 f4		 jne	 SHORT $LL104@LoadFloat_@3

; 137  : 		return LoadFloat(_k, f);

  00232	f3 0f 10 45 0c	 movss	 xmm0, DWORD PTR _f$[ebp]
  00237	51		 push	 ecx
  00238	8d 45 e0	 lea	 eax, DWORD PTR __k$[ebp]
  0023b	f3 0f 11 04 24	 movss	 DWORD PTR [esp], xmm0
  00240	50		 push	 eax
  00241	8b ce		 mov	 ecx, esi
  00243	ff 15 00 00 00
	00		 call	 DWORD PTR __imp_?LoadFloat@ioINILoader@@QAEMPBDM@Z

; 138  : 	}

  00249	8b 4d fc	 mov	 ecx, DWORD PTR __$ArrayPad$[ebp]
  0024c	5e		 pop	 esi
  0024d	33 cd		 xor	 ecx, ebp
  0024f	5b		 pop	 ebx
  00250	e8 00 00 00 00	 call	 @__security_check_cookie@4
  00255	c9		 leave
  00256	c2 08 00	 ret	 8
??$LoadFloat_e@$0BF@@ioINILoader@@QAEMAAY0BF@$$CBDM@Z ENDP ; ioINILoader::LoadFloat_e<21>
_TEXT	ENDS
PUBLIC	__$ArrayPad$
PUBLIC	??$LoadFloat_e@$0BB@@ioINILoader@@QAEMAAY0BB@$$CBDM@Z ; ioINILoader::LoadFloat_e<17>
; Function compile flags: /Ogsp
;	COMDAT ??$LoadFloat_e@$0BB@@ioINILoader@@QAEMAAY0BB@$$CBDM@Z
_TEXT	SEGMENT
__k$ = -28						; size = 17
__$ArrayPad$ = -4					; size = 4
_k$ = 8							; size = 4
_f$ = 12						; size = 4
??$LoadFloat_e@$0BB@@ioINILoader@@QAEMAAY0BB@$$CBDM@Z PROC ; ioINILoader::LoadFloat_e<17>, COMDAT
; _this$ = ecx

; 135  : 	{

  00000	55		 push	 ebp
  00001	8b ec		 mov	 ebp, esp
  00003	83 ec 1c	 sub	 esp, 28			; 0000001cH
  00006	a1 00 00 00 00	 mov	 eax, DWORD PTR ___security_cookie
  0000b	33 c5		 xor	 eax, ebp
  0000d	89 45 fc	 mov	 DWORD PTR __$ArrayPad$[ebp], eax
  00010	8b 45 08	 mov	 eax, DWORD PTR _k$[ebp]

; 136  : 		_ENCSTR(k, _k);

  00013	8a 10		 mov	 dl, BYTE PTR [eax]
  00015	56		 push	 esi
  00016	8b f1		 mov	 esi, ecx
  00018	84 d2		 test	 dl, dl
  0001a	0f 84 a7 01 00
	00		 je	 $LN96@LoadFloat_@4
  00020	80 f2 ed	 xor	 dl, -19			; ffffffedH
  00023	88 55 e4	 mov	 BYTE PTR __k$[ebp], dl
  00026	8a 50 01	 mov	 dl, BYTE PTR [eax+1]
  00029	84 d2		 test	 dl, dl
  0002b	0f 84 90 01 00
	00		 je	 $LN95@LoadFloat_@4
  00031	b1 ec		 mov	 cl, -20			; ffffffecH
  00033	32 d1		 xor	 dl, cl
  00035	88 55 e5	 mov	 BYTE PTR __k$[ebp+1], dl
  00038	8a 50 02	 mov	 dl, BYTE PTR [eax+2]
  0003b	84 d2		 test	 dl, dl
  0003d	0f 84 78 01 00
	00		 je	 $LN94@LoadFloat_@4
  00043	80 f2 eb	 xor	 dl, -21			; ffffffebH
  00046	88 55 e6	 mov	 BYTE PTR __k$[ebp+2], dl
  00049	8a 50 03	 mov	 dl, BYTE PTR [eax+3]
  0004c	84 d2		 test	 dl, dl
  0004e	0f 84 61 01 00
	00		 je	 $LN93@LoadFloat_@4
  00054	80 f2 ea	 xor	 dl, -22			; ffffffeaH
  00057	88 55 e7	 mov	 BYTE PTR __k$[ebp+3], dl
  0005a	8a 50 04	 mov	 dl, BYTE PTR [eax+4]
  0005d	84 d2		 test	 dl, dl
  0005f	0f 84 4a 01 00
	00		 je	 $LN92@LoadFloat_@4
  00065	80 f2 ed	 xor	 dl, -19			; ffffffedH
  00068	88 55 e8	 mov	 BYTE PTR __k$[ebp+4], dl
  0006b	8a 50 05	 mov	 dl, BYTE PTR [eax+5]
  0006e	84 d2		 test	 dl, dl
  00070	0f 84 34 01 00
	00		 je	 $LN91@LoadFloat_@4
  00076	32 d1		 xor	 dl, cl
  00078	88 55 e9	 mov	 BYTE PTR __k$[ebp+5], dl
  0007b	8a 50 06	 mov	 dl, BYTE PTR [eax+6]
  0007e	84 d2		 test	 dl, dl
  00080	0f 84 1e 01 00
	00		 je	 $LN90@LoadFloat_@4
  00086	80 f2 eb	 xor	 dl, -21			; ffffffebH
  00089	88 55 ea	 mov	 BYTE PTR __k$[ebp+6], dl
  0008c	8a 50 07	 mov	 dl, BYTE PTR [eax+7]
  0008f	84 d2		 test	 dl, dl
  00091	0f 84 07 01 00
	00		 je	 $LN89@LoadFloat_@4
  00097	80 f2 ea	 xor	 dl, -22			; ffffffeaH
  0009a	88 55 eb	 mov	 BYTE PTR __k$[ebp+7], dl
  0009d	8a 50 08	 mov	 dl, BYTE PTR [eax+8]
  000a0	84 d2		 test	 dl, dl
  000a2	0f 84 f0 00 00
	00		 je	 $LN88@LoadFloat_@4
  000a8	80 f2 ed	 xor	 dl, -19			; ffffffedH
  000ab	88 55 ec	 mov	 BYTE PTR __k$[ebp+8], dl
  000ae	8a 50 09	 mov	 dl, BYTE PTR [eax+9]
  000b1	84 d2		 test	 dl, dl
  000b3	0f 84 da 00 00
	00		 je	 $LN87@LoadFloat_@4
  000b9	32 d1		 xor	 dl, cl
  000bb	88 55 ed	 mov	 BYTE PTR __k$[ebp+9], dl
  000be	8a 50 0a	 mov	 dl, BYTE PTR [eax+10]
  000c1	84 d2		 test	 dl, dl
  000c3	0f 84 c4 00 00
	00		 je	 $LN86@LoadFloat_@4
  000c9	80 f2 eb	 xor	 dl, -21			; ffffffebH
  000cc	88 55 ee	 mov	 BYTE PTR __k$[ebp+10], dl
  000cf	8a 50 0b	 mov	 dl, BYTE PTR [eax+11]
  000d2	84 d2		 test	 dl, dl
  000d4	0f 84 ad 00 00
	00		 je	 $LN85@LoadFloat_@4
  000da	80 f2 ea	 xor	 dl, -22			; ffffffeaH
  000dd	88 55 ef	 mov	 BYTE PTR __k$[ebp+11], dl
  000e0	8a 50 0c	 mov	 dl, BYTE PTR [eax+12]
  000e3	84 d2		 test	 dl, dl
  000e5	0f 84 96 00 00
	00		 je	 $LN84@LoadFloat_@4
  000eb	80 f2 ed	 xor	 dl, -19			; ffffffedH
  000ee	88 55 f0	 mov	 BYTE PTR __k$[ebp+12], dl
  000f1	8a 50 0d	 mov	 dl, BYTE PTR [eax+13]
  000f4	84 d2		 test	 dl, dl
  000f6	0f 84 80 00 00
	00		 je	 $LN83@LoadFloat_@4
  000fc	32 d1		 xor	 dl, cl
  000fe	88 55 f1	 mov	 BYTE PTR __k$[ebp+13], dl
  00101	8a 50 0e	 mov	 dl, BYTE PTR [eax+14]
  00104	84 d2		 test	 dl, dl
  00106	74 6e		 je	 SHORT $LN82@LoadFloat_@4
  00108	80 f2 eb	 xor	 dl, -21			; ffffffebH
  0010b	88 55 f2	 mov	 BYTE PTR __k$[ebp+14], dl
  0010e	8a 50 0f	 mov	 dl, BYTE PTR [eax+15]
  00111	84 d2		 test	 dl, dl
  00113	74 5b		 je	 SHORT $LN81@LoadFloat_@4
  00115	80 f2 ea	 xor	 dl, -22			; ffffffeaH
  00118	80 78 10 00	 cmp	 BYTE PTR [eax+16], 0
  0011c	88 55 f3	 mov	 BYTE PTR __k$[ebp+15], dl
  0011f	0f 84 a6 00 00
	00		 je	 $LN1@LoadFloat_@4
  00125	8a 50 11	 mov	 dl, BYTE PTR [eax+17]
  00128	84 d2		 test	 dl, dl
  0012a	74 3f		 je	 SHORT $LN79@LoadFloat_@4
  0012c	32 d1		 xor	 dl, cl
  0012e	88 55 f5	 mov	 BYTE PTR __k$[ebp+17], dl
  00131	8a 50 12	 mov	 dl, BYTE PTR [eax+18]
  00134	84 d2		 test	 dl, dl
  00136	74 2d		 je	 SHORT $LN78@LoadFloat_@4
  00138	80 f2 eb	 xor	 dl, -21			; ffffffebH
  0013b	88 55 f6	 mov	 BYTE PTR __k$[ebp+18], dl
  0013e	8a 50 13	 mov	 dl, BYTE PTR [eax+19]
  00141	84 d2		 test	 dl, dl
  00143	74 1a		 je	 SHORT $LN77@LoadFloat_@4
  00145	8a 40 14	 mov	 al, BYTE PTR [eax+20]
  00148	80 f2 ea	 xor	 dl, -22			; ffffffeaH
  0014b	88 55 f7	 mov	 BYTE PTR __k$[ebp+19], dl
  0014e	84 c0		 test	 al, al
  00150	74 07		 je	 SHORT $LN76@LoadFloat_@4
  00152	34 ed		 xor	 al, -19			; ffffffedH
  00154	88 45 f8	 mov	 BYTE PTR __k$[ebp+20], al
  00157	eb 72		 jmp	 SHORT $LN1@LoadFloat_@4
$LN76@LoadFloat_@4:
  00159	c6 45 f8 ed	 mov	 BYTE PTR __k$[ebp+20], -19 ; ffffffedH
  0015d	eb 6c		 jmp	 SHORT $LN1@LoadFloat_@4
$LN77@LoadFloat_@4:
  0015f	c6 45 f7 ea	 mov	 BYTE PTR __k$[ebp+19], -22 ; ffffffeaH
  00163	eb 66		 jmp	 SHORT $LN1@LoadFloat_@4
$LN78@LoadFloat_@4:
  00165	c6 45 f6 eb	 mov	 BYTE PTR __k$[ebp+18], -21 ; ffffffebH
  00169	eb 60		 jmp	 SHORT $LN1@LoadFloat_@4
$LN79@LoadFloat_@4:
  0016b	88 4d f5	 mov	 BYTE PTR __k$[ebp+17], cl
  0016e	eb 5b		 jmp	 SHORT $LN1@LoadFloat_@4
$LN81@LoadFloat_@4:
  00170	c6 45 f3 ea	 mov	 BYTE PTR __k$[ebp+15], -22 ; ffffffeaH
  00174	eb 55		 jmp	 SHORT $LN1@LoadFloat_@4
$LN82@LoadFloat_@4:
  00176	c6 45 f2 eb	 mov	 BYTE PTR __k$[ebp+14], -21 ; ffffffebH
  0017a	eb 4f		 jmp	 SHORT $LN1@LoadFloat_@4
$LN83@LoadFloat_@4:
  0017c	88 4d f1	 mov	 BYTE PTR __k$[ebp+13], cl
  0017f	eb 4a		 jmp	 SHORT $LN1@LoadFloat_@4
$LN84@LoadFloat_@4:
  00181	c6 45 f0 ed	 mov	 BYTE PTR __k$[ebp+12], -19 ; ffffffedH
  00185	eb 44		 jmp	 SHORT $LN1@LoadFloat_@4
$LN85@LoadFloat_@4:
  00187	c6 45 ef ea	 mov	 BYTE PTR __k$[ebp+11], -22 ; ffffffeaH
  0018b	eb 3e		 jmp	 SHORT $LN1@LoadFloat_@4
$LN86@LoadFloat_@4:
  0018d	c6 45 ee eb	 mov	 BYTE PTR __k$[ebp+10], -21 ; ffffffebH
  00191	eb 38		 jmp	 SHORT $LN1@LoadFloat_@4
$LN87@LoadFloat_@4:
  00193	88 4d ed	 mov	 BYTE PTR __k$[ebp+9], cl
  00196	eb 33		 jmp	 SHORT $LN1@LoadFloat_@4
$LN88@LoadFloat_@4:
  00198	c6 45 ec ed	 mov	 BYTE PTR __k$[ebp+8], -19 ; ffffffedH
  0019c	eb 2d		 jmp	 SHORT $LN1@LoadFloat_@4
$LN89@LoadFloat_@4:
  0019e	c6 45 eb ea	 mov	 BYTE PTR __k$[ebp+7], -22 ; ffffffeaH
  001a2	eb 27		 jmp	 SHORT $LN1@LoadFloat_@4
$LN90@LoadFloat_@4:
  001a4	c6 45 ea eb	 mov	 BYTE PTR __k$[ebp+6], -21 ; ffffffebH
  001a8	eb 21		 jmp	 SHORT $LN1@LoadFloat_@4
$LN91@LoadFloat_@4:
  001aa	88 4d e9	 mov	 BYTE PTR __k$[ebp+5], cl
  001ad	eb 1c		 jmp	 SHORT $LN1@LoadFloat_@4
$LN92@LoadFloat_@4:
  001af	c6 45 e8 ed	 mov	 BYTE PTR __k$[ebp+4], -19 ; ffffffedH
  001b3	eb 16		 jmp	 SHORT $LN1@LoadFloat_@4
$LN93@LoadFloat_@4:
  001b5	c6 45 e7 ea	 mov	 BYTE PTR __k$[ebp+3], -22 ; ffffffeaH
  001b9	eb 10		 jmp	 SHORT $LN1@LoadFloat_@4
$LN94@LoadFloat_@4:
  001bb	c6 45 e6 eb	 mov	 BYTE PTR __k$[ebp+2], -21 ; ffffffebH
  001bf	eb 0a		 jmp	 SHORT $LN1@LoadFloat_@4
$LN95@LoadFloat_@4:
  001c1	c6 45 e5 ec	 mov	 BYTE PTR __k$[ebp+1], -20 ; ffffffecH
  001c5	eb 04		 jmp	 SHORT $LN1@LoadFloat_@4
$LN96@LoadFloat_@4:
  001c7	c6 45 e4 ed	 mov	 BYTE PTR __k$[ebp], -19	; ffffffedH
$LN1@LoadFloat_@4:
  001cb	6a 04		 push	 4
  001cd	8d 45 e4	 lea	 eax, DWORD PTR __k$[ebp]
  001d0	c6 45 f4 00	 mov	 BYTE PTR __k$[ebp+16], 0
  001d4	5a		 pop	 edx
$LL104@LoadFloat_@4:
  001d5	81 30 ed ec eb
	ea		 xor	 DWORD PTR [eax], -353637139 ; eaebecedH
  001db	83 c0 04	 add	 eax, 4
  001de	4a		 dec	 edx
  001df	75 f4		 jne	 SHORT $LL104@LoadFloat_@4

; 137  : 		return LoadFloat(_k, f);

  001e1	f3 0f 10 45 0c	 movss	 xmm0, DWORD PTR _f$[ebp]
  001e6	51		 push	 ecx
  001e7	8d 45 e4	 lea	 eax, DWORD PTR __k$[ebp]
  001ea	f3 0f 11 04 24	 movss	 DWORD PTR [esp], xmm0
  001ef	50		 push	 eax
  001f0	8b ce		 mov	 ecx, esi
  001f2	ff 15 00 00 00
	00		 call	 DWORD PTR __imp_?LoadFloat@ioINILoader@@QAEMPBDM@Z

; 138  : 	}

  001f8	8b 4d fc	 mov	 ecx, DWORD PTR __$ArrayPad$[ebp]
  001fb	33 cd		 xor	 ecx, ebp
  001fd	5e		 pop	 esi
  001fe	e8 00 00 00 00	 call	 @__security_check_cookie@4
  00203	c9		 leave
  00204	c2 08 00	 ret	 8
??$LoadFloat_e@$0BB@@ioINILoader@@QAEMAAY0BB@$$CBDM@Z ENDP ; ioINILoader::LoadFloat_e<17>
_TEXT	ENDS
PUBLIC	__$ArrayPad$
PUBLIC	??$LoadFloat_e@$0BE@@ioINILoader@@QAEMAAY0BE@$$CBDM@Z ; ioINILoader::LoadFloat_e<20>
; Function compile flags: /Ogsp
;	COMDAT ??$LoadFloat_e@$0BE@@ioINILoader@@QAEMAAY0BE@$$CBDM@Z
_TEXT	SEGMENT
__k$ = -28						; size = 20
__$ArrayPad$ = -4					; size = 4
_k$ = 8							; size = 4
_f$ = 12						; size = 4
??$LoadFloat_e@$0BE@@ioINILoader@@QAEMAAY0BE@$$CBDM@Z PROC ; ioINILoader::LoadFloat_e<20>, COMDAT
; _this$ = ecx

; 135  : 	{

  00000	55		 push	 ebp
  00001	8b ec		 mov	 ebp, esp
  00003	83 ec 1c	 sub	 esp, 28			; 0000001cH
  00006	a1 00 00 00 00	 mov	 eax, DWORD PTR ___security_cookie
  0000b	33 c5		 xor	 eax, ebp
  0000d	89 45 fc	 mov	 DWORD PTR __$ArrayPad$[ebp], eax
  00010	8b 45 08	 mov	 eax, DWORD PTR _k$[ebp]

; 136  : 		_ENCSTR(k, _k);

  00013	8a 10		 mov	 dl, BYTE PTR [eax]
  00015	53		 push	 ebx
  00016	56		 push	 esi
  00017	8b f1		 mov	 esi, ecx
  00019	84 d2		 test	 dl, dl
  0001b	0f 84 dd 01 00
	00		 je	 $LN96@LoadFloat_@5
  00021	80 f2 ed	 xor	 dl, -19			; ffffffedH
  00024	88 55 e4	 mov	 BYTE PTR __k$[ebp], dl
  00027	8a 50 01	 mov	 dl, BYTE PTR [eax+1]
  0002a	84 d2		 test	 dl, dl
  0002c	0f 84 c6 01 00
	00		 je	 $LN95@LoadFloat_@5
  00032	b3 ec		 mov	 bl, -20			; ffffffecH
  00034	32 d3		 xor	 dl, bl
  00036	88 55 e5	 mov	 BYTE PTR __k$[ebp+1], dl
  00039	8a 50 02	 mov	 dl, BYTE PTR [eax+2]
  0003c	84 d2		 test	 dl, dl
  0003e	0f 84 ae 01 00
	00		 je	 $LN94@LoadFloat_@5
  00044	b1 eb		 mov	 cl, -21			; ffffffebH
  00046	32 d1		 xor	 dl, cl
  00048	88 55 e6	 mov	 BYTE PTR __k$[ebp+2], dl
  0004b	8a 50 03	 mov	 dl, BYTE PTR [eax+3]
  0004e	84 d2		 test	 dl, dl
  00050	0f 84 96 01 00
	00		 je	 $LN93@LoadFloat_@5
  00056	80 f2 ea	 xor	 dl, -22			; ffffffeaH
  00059	88 55 e7	 mov	 BYTE PTR __k$[ebp+3], dl
  0005c	8a 50 04	 mov	 dl, BYTE PTR [eax+4]
  0005f	84 d2		 test	 dl, dl
  00061	0f 84 7f 01 00
	00		 je	 $LN92@LoadFloat_@5
  00067	80 f2 ed	 xor	 dl, -19			; ffffffedH
  0006a	88 55 e8	 mov	 BYTE PTR __k$[ebp+4], dl
  0006d	8a 50 05	 mov	 dl, BYTE PTR [eax+5]
  00070	84 d2		 test	 dl, dl
  00072	0f 84 69 01 00
	00		 je	 $LN91@LoadFloat_@5
  00078	32 d3		 xor	 dl, bl
  0007a	88 55 e9	 mov	 BYTE PTR __k$[ebp+5], dl
  0007d	8a 50 06	 mov	 dl, BYTE PTR [eax+6]
  00080	84 d2		 test	 dl, dl
  00082	0f 84 54 01 00
	00		 je	 $LN90@LoadFloat_@5
  00088	32 d1		 xor	 dl, cl
  0008a	88 55 ea	 mov	 BYTE PTR __k$[ebp+6], dl
  0008d	8a 50 07	 mov	 dl, BYTE PTR [eax+7]
  00090	84 d2		 test	 dl, dl
  00092	0f 84 3e 01 00
	00		 je	 $LN89@LoadFloat_@5
  00098	80 f2 ea	 xor	 dl, -22			; ffffffeaH
  0009b	88 55 eb	 mov	 BYTE PTR __k$[ebp+7], dl
  0009e	8a 50 08	 mov	 dl, BYTE PTR [eax+8]
  000a1	84 d2		 test	 dl, dl
  000a3	0f 84 27 01 00
	00		 je	 $LN88@LoadFloat_@5
  000a9	80 f2 ed	 xor	 dl, -19			; ffffffedH
  000ac	88 55 ec	 mov	 BYTE PTR __k$[ebp+8], dl
  000af	8a 50 09	 mov	 dl, BYTE PTR [eax+9]
  000b2	84 d2		 test	 dl, dl
  000b4	0f 84 11 01 00
	00		 je	 $LN87@LoadFloat_@5
  000ba	32 d3		 xor	 dl, bl
  000bc	88 55 ed	 mov	 BYTE PTR __k$[ebp+9], dl
  000bf	8a 50 0a	 mov	 dl, BYTE PTR [eax+10]
  000c2	84 d2		 test	 dl, dl
  000c4	0f 84 fc 00 00
	00		 je	 $LN86@LoadFloat_@5
  000ca	32 d1		 xor	 dl, cl
  000cc	88 55 ee	 mov	 BYTE PTR __k$[ebp+10], dl
  000cf	8a 50 0b	 mov	 dl, BYTE PTR [eax+11]
  000d2	84 d2		 test	 dl, dl
  000d4	0f 84 e6 00 00
	00		 je	 $LN85@LoadFloat_@5
  000da	80 f2 ea	 xor	 dl, -22			; ffffffeaH
  000dd	88 55 ef	 mov	 BYTE PTR __k$[ebp+11], dl
  000e0	8a 50 0c	 mov	 dl, BYTE PTR [eax+12]
  000e3	84 d2		 test	 dl, dl
  000e5	0f 84 cf 00 00
	00		 je	 $LN84@LoadFloat_@5
  000eb	80 f2 ed	 xor	 dl, -19			; ffffffedH
  000ee	88 55 f0	 mov	 BYTE PTR __k$[ebp+12], dl
  000f1	8a 50 0d	 mov	 dl, BYTE PTR [eax+13]
  000f4	84 d2		 test	 dl, dl
  000f6	0f 84 b9 00 00
	00		 je	 $LN83@LoadFloat_@5
  000fc	32 d3		 xor	 dl, bl
  000fe	88 55 f1	 mov	 BYTE PTR __k$[ebp+13], dl
  00101	8a 50 0e	 mov	 dl, BYTE PTR [eax+14]
  00104	84 d2		 test	 dl, dl
  00106	0f 84 a4 00 00
	00		 je	 $LN82@LoadFloat_@5
  0010c	32 d1		 xor	 dl, cl
  0010e	88 55 f2	 mov	 BYTE PTR __k$[ebp+14], dl
  00111	8a 50 0f	 mov	 dl, BYTE PTR [eax+15]
  00114	84 d2		 test	 dl, dl
  00116	0f 84 8e 00 00
	00		 je	 $LN81@LoadFloat_@5
  0011c	80 f2 ea	 xor	 dl, -22			; ffffffeaH
  0011f	88 55 f3	 mov	 BYTE PTR __k$[ebp+15], dl
  00122	8a 50 10	 mov	 dl, BYTE PTR [eax+16]
  00125	84 d2		 test	 dl, dl
  00127	74 7b		 je	 SHORT $LN80@LoadFloat_@5
  00129	80 f2 ed	 xor	 dl, -19			; ffffffedH
  0012c	88 55 f4	 mov	 BYTE PTR __k$[ebp+16], dl
  0012f	8a 50 11	 mov	 dl, BYTE PTR [eax+17]
  00132	84 d2		 test	 dl, dl
  00134	74 69		 je	 SHORT $LN79@LoadFloat_@5
  00136	32 d3		 xor	 dl, bl
  00138	88 55 f5	 mov	 BYTE PTR __k$[ebp+17], dl
  0013b	8a 50 12	 mov	 dl, BYTE PTR [eax+18]
  0013e	84 d2		 test	 dl, dl
  00140	74 58		 je	 SHORT $LN78@LoadFloat_@5
  00142	32 d1		 xor	 dl, cl
  00144	80 78 13 00	 cmp	 BYTE PTR [eax+19], 0
  00148	88 55 f6	 mov	 BYTE PTR __k$[ebp+18], dl
  0014b	0f 84 b1 00 00
	00		 je	 $LN1@LoadFloat_@5
  00151	8a 50 14	 mov	 dl, BYTE PTR [eax+20]
  00154	84 d2		 test	 dl, dl
  00156	74 3c		 je	 SHORT $LN76@LoadFloat_@5
  00158	80 f2 ed	 xor	 dl, -19			; ffffffedH
  0015b	88 55 f8	 mov	 BYTE PTR __k$[ebp+20], dl
  0015e	8a 50 15	 mov	 dl, BYTE PTR [eax+21]
  00161	84 d2		 test	 dl, dl
  00163	74 2a		 je	 SHORT $LN75@LoadFloat_@5
  00165	32 d3		 xor	 dl, bl
  00167	88 55 f9	 mov	 BYTE PTR __k$[ebp+21], dl
  0016a	8a 50 16	 mov	 dl, BYTE PTR [eax+22]
  0016d	84 d2		 test	 dl, dl
  0016f	74 19		 je	 SHORT $LN74@LoadFloat_@5
  00171	8a 40 17	 mov	 al, BYTE PTR [eax+23]
  00174	32 d1		 xor	 dl, cl
  00176	88 55 fa	 mov	 BYTE PTR __k$[ebp+22], dl
  00179	84 c0		 test	 al, al
  0017b	74 07		 je	 SHORT $LN73@LoadFloat_@5
  0017d	34 ea		 xor	 al, -22			; ffffffeaH
  0017f	88 45 fb	 mov	 BYTE PTR __k$[ebp+23], al
  00182	eb 7e		 jmp	 SHORT $LN1@LoadFloat_@5
$LN73@LoadFloat_@5:
  00184	c6 45 fb ea	 mov	 BYTE PTR __k$[ebp+23], -22 ; ffffffeaH
  00188	eb 78		 jmp	 SHORT $LN1@LoadFloat_@5
$LN74@LoadFloat_@5:
  0018a	88 4d fa	 mov	 BYTE PTR __k$[ebp+22], cl
  0018d	eb 73		 jmp	 SHORT $LN1@LoadFloat_@5
$LN75@LoadFloat_@5:
  0018f	88 5d f9	 mov	 BYTE PTR __k$[ebp+21], bl
  00192	eb 6e		 jmp	 SHORT $LN1@LoadFloat_@5
$LN76@LoadFloat_@5:
  00194	c6 45 f8 ed	 mov	 BYTE PTR __k$[ebp+20], -19 ; ffffffedH
  00198	eb 68		 jmp	 SHORT $LN1@LoadFloat_@5
$LN78@LoadFloat_@5:
  0019a	88 4d f6	 mov	 BYTE PTR __k$[ebp+18], cl
  0019d	eb 63		 jmp	 SHORT $LN1@LoadFloat_@5
$LN79@LoadFloat_@5:
  0019f	88 5d f5	 mov	 BYTE PTR __k$[ebp+17], bl
  001a2	eb 5e		 jmp	 SHORT $LN1@LoadFloat_@5
$LN80@LoadFloat_@5:
  001a4	c6 45 f4 ed	 mov	 BYTE PTR __k$[ebp+16], -19 ; ffffffedH
  001a8	eb 58		 jmp	 SHORT $LN1@LoadFloat_@5
$LN81@LoadFloat_@5:
  001aa	c6 45 f3 ea	 mov	 BYTE PTR __k$[ebp+15], -22 ; ffffffeaH
  001ae	eb 52		 jmp	 SHORT $LN1@LoadFloat_@5
$LN82@LoadFloat_@5:
  001b0	88 4d f2	 mov	 BYTE PTR __k$[ebp+14], cl
  001b3	eb 4d		 jmp	 SHORT $LN1@LoadFloat_@5
$LN83@LoadFloat_@5:
  001b5	88 5d f1	 mov	 BYTE PTR __k$[ebp+13], bl
  001b8	eb 48		 jmp	 SHORT $LN1@LoadFloat_@5
$LN84@LoadFloat_@5:
  001ba	c6 45 f0 ed	 mov	 BYTE PTR __k$[ebp+12], -19 ; ffffffedH
  001be	eb 42		 jmp	 SHORT $LN1@LoadFloat_@5
$LN85@LoadFloat_@5:
  001c0	c6 45 ef ea	 mov	 BYTE PTR __k$[ebp+11], -22 ; ffffffeaH
  001c4	eb 3c		 jmp	 SHORT $LN1@LoadFloat_@5
$LN86@LoadFloat_@5:
  001c6	88 4d ee	 mov	 BYTE PTR __k$[ebp+10], cl
  001c9	eb 37		 jmp	 SHORT $LN1@LoadFloat_@5
$LN87@LoadFloat_@5:
  001cb	88 5d ed	 mov	 BYTE PTR __k$[ebp+9], bl
  001ce	eb 32		 jmp	 SHORT $LN1@LoadFloat_@5
$LN88@LoadFloat_@5:
  001d0	c6 45 ec ed	 mov	 BYTE PTR __k$[ebp+8], -19 ; ffffffedH
  001d4	eb 2c		 jmp	 SHORT $LN1@LoadFloat_@5
$LN89@LoadFloat_@5:
  001d6	c6 45 eb ea	 mov	 BYTE PTR __k$[ebp+7], -22 ; ffffffeaH
  001da	eb 26		 jmp	 SHORT $LN1@LoadFloat_@5
$LN90@LoadFloat_@5:
  001dc	88 4d ea	 mov	 BYTE PTR __k$[ebp+6], cl
  001df	eb 21		 jmp	 SHORT $LN1@LoadFloat_@5
$LN91@LoadFloat_@5:
  001e1	88 5d e9	 mov	 BYTE PTR __k$[ebp+5], bl
  001e4	eb 1c		 jmp	 SHORT $LN1@LoadFloat_@5
$LN92@LoadFloat_@5:
  001e6	c6 45 e8 ed	 mov	 BYTE PTR __k$[ebp+4], -19 ; ffffffedH
  001ea	eb 16		 jmp	 SHORT $LN1@LoadFloat_@5
$LN93@LoadFloat_@5:
  001ec	c6 45 e7 ea	 mov	 BYTE PTR __k$[ebp+3], -22 ; ffffffeaH
  001f0	eb 10		 jmp	 SHORT $LN1@LoadFloat_@5
$LN94@LoadFloat_@5:
  001f2	c6 45 e6 eb	 mov	 BYTE PTR __k$[ebp+2], -21 ; ffffffebH
  001f6	eb 0a		 jmp	 SHORT $LN1@LoadFloat_@5
$LN95@LoadFloat_@5:
  001f8	c6 45 e5 ec	 mov	 BYTE PTR __k$[ebp+1], -20 ; ffffffecH
  001fc	eb 04		 jmp	 SHORT $LN1@LoadFloat_@5
$LN96@LoadFloat_@5:
  001fe	c6 45 e4 ed	 mov	 BYTE PTR __k$[ebp], -19	; ffffffedH
$LN1@LoadFloat_@5:
  00202	6a 04		 push	 4
  00204	8d 45 e4	 lea	 eax, DWORD PTR __k$[ebp]
  00207	c6 45 f7 00	 mov	 BYTE PTR __k$[ebp+19], 0
  0020b	5a		 pop	 edx
$LL104@LoadFloat_@5:
  0020c	81 30 ed ec eb
	ea		 xor	 DWORD PTR [eax], -353637139 ; eaebecedH
  00212	83 c0 04	 add	 eax, 4
  00215	4a		 dec	 edx
  00216	75 f4		 jne	 SHORT $LL104@LoadFloat_@5
  00218	6a 10		 push	 16			; 00000010H
  0021a	58		 pop	 eax
$LL101@LoadFloat_@5:
  0021b	8b c8		 mov	 ecx, eax
  0021d	81 e1 03 00 00
	80		 and	 ecx, -2147483645	; 80000003H
  00223	79 05		 jns	 SHORT $LN111@LoadFloat_@5
  00225	49		 dec	 ecx
  00226	83 c9 fc	 or	 ecx, -4			; fffffffcH
  00229	41		 inc	 ecx
$LN111@LoadFloat_@5:
  0022a	b2 ed		 mov	 dl, -19			; ffffffedH
  0022c	2a d1		 sub	 dl, cl
  0022e	30 54 05 e4	 xor	 BYTE PTR __k$[ebp+eax], dl
  00232	40		 inc	 eax
  00233	83 f8 13	 cmp	 eax, 19			; 00000013H
  00236	7c e3		 jl	 SHORT $LL101@LoadFloat_@5

; 137  : 		return LoadFloat(_k, f);

  00238	f3 0f 10 45 0c	 movss	 xmm0, DWORD PTR _f$[ebp]
  0023d	51		 push	 ecx
  0023e	8d 45 e4	 lea	 eax, DWORD PTR __k$[ebp]
  00241	f3 0f 11 04 24	 movss	 DWORD PTR [esp], xmm0
  00246	50		 push	 eax
  00247	8b ce		 mov	 ecx, esi
  00249	ff 15 00 00 00
	00		 call	 DWORD PTR __imp_?LoadFloat@ioINILoader@@QAEMPBDM@Z

; 138  : 	}

  0024f	8b 4d fc	 mov	 ecx, DWORD PTR __$ArrayPad$[ebp]
  00252	5e		 pop	 esi
  00253	33 cd		 xor	 ecx, ebp
  00255	5b		 pop	 ebx
  00256	e8 00 00 00 00	 call	 @__security_check_cookie@4
  0025b	c9		 leave
  0025c	c2 08 00	 ret	 8
??$LoadFloat_e@$0BE@@ioINILoader@@QAEMAAY0BE@$$CBDM@Z ENDP ; ioINILoader::LoadFloat_e<20>
_TEXT	ENDS
PUBLIC	__$ArrayPad$
PUBLIC	??$LoadInt_e@$0N@@ioINILoader@@QAEHAAY0N@$$CBDH@Z ; ioINILoader::LoadInt_e<13>
; Function compile flags: /Ogsp
;	COMDAT ??$LoadInt_e@$0N@@ioINILoader@@QAEHAAY0N@$$CBDH@Z
_TEXT	SEGMENT
__k$ = -24						; size = 13
__$ArrayPad$ = -4					; size = 4
_k$ = 8							; size = 4
_i$ = 12						; size = 4
??$LoadInt_e@$0N@@ioINILoader@@QAEHAAY0N@$$CBDH@Z PROC	; ioINILoader::LoadInt_e<13>, COMDAT
; _this$ = ecx

; 118  : 	{

  00000	55		 push	 ebp
  00001	8b ec		 mov	 ebp, esp
  00003	83 ec 18	 sub	 esp, 24			; 00000018H
  00006	a1 00 00 00 00	 mov	 eax, DWORD PTR ___security_cookie
  0000b	33 c5		 xor	 eax, ebp
  0000d	89 45 fc	 mov	 DWORD PTR __$ArrayPad$[ebp], eax
  00010	8b 45 08	 mov	 eax, DWORD PTR _k$[ebp]

; 119  : 		_ENCSTR(k, _k);

  00013	8a 10		 mov	 dl, BYTE PTR [eax]
  00015	56		 push	 esi
  00016	8b f1		 mov	 esi, ecx
  00018	84 d2		 test	 dl, dl
  0001a	0f 84 4d 01 00
	00		 je	 $LN96@LoadInt_e@4
  00020	80 f2 ed	 xor	 dl, -19			; ffffffedH
  00023	88 55 e8	 mov	 BYTE PTR __k$[ebp], dl
  00026	8a 50 01	 mov	 dl, BYTE PTR [eax+1]
  00029	84 d2		 test	 dl, dl
  0002b	0f 84 36 01 00
	00		 je	 $LN95@LoadInt_e@4
  00031	b1 ec		 mov	 cl, -20			; ffffffecH
  00033	32 d1		 xor	 dl, cl
  00035	88 55 e9	 mov	 BYTE PTR __k$[ebp+1], dl
  00038	8a 50 02	 mov	 dl, BYTE PTR [eax+2]
  0003b	84 d2		 test	 dl, dl
  0003d	0f 84 1e 01 00
	00		 je	 $LN94@LoadInt_e@4
  00043	80 f2 eb	 xor	 dl, -21			; ffffffebH
  00046	88 55 ea	 mov	 BYTE PTR __k$[ebp+2], dl
  00049	8a 50 03	 mov	 dl, BYTE PTR [eax+3]
  0004c	84 d2		 test	 dl, dl
  0004e	0f 84 07 01 00
	00		 je	 $LN93@LoadInt_e@4
  00054	80 f2 ea	 xor	 dl, -22			; ffffffeaH
  00057	88 55 eb	 mov	 BYTE PTR __k$[ebp+3], dl
  0005a	8a 50 04	 mov	 dl, BYTE PTR [eax+4]
  0005d	84 d2		 test	 dl, dl
  0005f	0f 84 f0 00 00
	00		 je	 $LN92@LoadInt_e@4
  00065	80 f2 ed	 xor	 dl, -19			; ffffffedH
  00068	88 55 ec	 mov	 BYTE PTR __k$[ebp+4], dl
  0006b	8a 50 05	 mov	 dl, BYTE PTR [eax+5]
  0006e	84 d2		 test	 dl, dl
  00070	0f 84 da 00 00
	00		 je	 $LN91@LoadInt_e@4
  00076	32 d1		 xor	 dl, cl
  00078	88 55 ed	 mov	 BYTE PTR __k$[ebp+5], dl
  0007b	8a 50 06	 mov	 dl, BYTE PTR [eax+6]
  0007e	84 d2		 test	 dl, dl
  00080	0f 84 c4 00 00
	00		 je	 $LN90@LoadInt_e@4
  00086	80 f2 eb	 xor	 dl, -21			; ffffffebH
  00089	88 55 ee	 mov	 BYTE PTR __k$[ebp+6], dl
  0008c	8a 50 07	 mov	 dl, BYTE PTR [eax+7]
  0008f	84 d2		 test	 dl, dl
  00091	0f 84 ad 00 00
	00		 je	 $LN89@LoadInt_e@4
  00097	80 f2 ea	 xor	 dl, -22			; ffffffeaH
  0009a	88 55 ef	 mov	 BYTE PTR __k$[ebp+7], dl
  0009d	8a 50 08	 mov	 dl, BYTE PTR [eax+8]
  000a0	84 d2		 test	 dl, dl
  000a2	0f 84 96 00 00
	00		 je	 $LN88@LoadInt_e@4
  000a8	80 f2 ed	 xor	 dl, -19			; ffffffedH
  000ab	88 55 f0	 mov	 BYTE PTR __k$[ebp+8], dl
  000ae	8a 50 09	 mov	 dl, BYTE PTR [eax+9]
  000b1	84 d2		 test	 dl, dl
  000b3	0f 84 80 00 00
	00		 je	 $LN87@LoadInt_e@4
  000b9	32 d1		 xor	 dl, cl
  000bb	88 55 f1	 mov	 BYTE PTR __k$[ebp+9], dl
  000be	8a 50 0a	 mov	 dl, BYTE PTR [eax+10]
  000c1	84 d2		 test	 dl, dl
  000c3	74 6e		 je	 SHORT $LN86@LoadInt_e@4
  000c5	80 f2 eb	 xor	 dl, -21			; ffffffebH
  000c8	88 55 f2	 mov	 BYTE PTR __k$[ebp+10], dl
  000cb	8a 50 0b	 mov	 dl, BYTE PTR [eax+11]
  000ce	84 d2		 test	 dl, dl
  000d0	74 5b		 je	 SHORT $LN85@LoadInt_e@4
  000d2	80 f2 ea	 xor	 dl, -22			; ffffffeaH
  000d5	80 78 0c 00	 cmp	 BYTE PTR [eax+12], 0
  000d9	88 55 f3	 mov	 BYTE PTR __k$[ebp+11], dl
  000dc	0f 84 8f 00 00
	00		 je	 $LN1@LoadInt_e@4
  000e2	8a 50 0d	 mov	 dl, BYTE PTR [eax+13]
  000e5	84 d2		 test	 dl, dl
  000e7	74 3f		 je	 SHORT $LN83@LoadInt_e@4
  000e9	32 d1		 xor	 dl, cl
  000eb	88 55 f5	 mov	 BYTE PTR __k$[ebp+13], dl
  000ee	8a 50 0e	 mov	 dl, BYTE PTR [eax+14]
  000f1	84 d2		 test	 dl, dl
  000f3	74 2d		 je	 SHORT $LN82@LoadInt_e@4
  000f5	80 f2 eb	 xor	 dl, -21			; ffffffebH
  000f8	88 55 f6	 mov	 BYTE PTR __k$[ebp+14], dl
  000fb	8a 50 0f	 mov	 dl, BYTE PTR [eax+15]
  000fe	84 d2		 test	 dl, dl
  00100	74 1a		 je	 SHORT $LN81@LoadInt_e@4
  00102	8a 40 10	 mov	 al, BYTE PTR [eax+16]
  00105	80 f2 ea	 xor	 dl, -22			; ffffffeaH
  00108	88 55 f7	 mov	 BYTE PTR __k$[ebp+15], dl
  0010b	84 c0		 test	 al, al
  0010d	74 07		 je	 SHORT $LN80@LoadInt_e@4
  0010f	34 ed		 xor	 al, -19			; ffffffedH
  00111	88 45 f8	 mov	 BYTE PTR __k$[ebp+16], al
  00114	eb 5b		 jmp	 SHORT $LN1@LoadInt_e@4
$LN80@LoadInt_e@4:
  00116	c6 45 f8 ed	 mov	 BYTE PTR __k$[ebp+16], -19 ; ffffffedH
  0011a	eb 55		 jmp	 SHORT $LN1@LoadInt_e@4
$LN81@LoadInt_e@4:
  0011c	c6 45 f7 ea	 mov	 BYTE PTR __k$[ebp+15], -22 ; ffffffeaH
  00120	eb 4f		 jmp	 SHORT $LN1@LoadInt_e@4
$LN82@LoadInt_e@4:
  00122	c6 45 f6 eb	 mov	 BYTE PTR __k$[ebp+14], -21 ; ffffffebH
  00126	eb 49		 jmp	 SHORT $LN1@LoadInt_e@4
$LN83@LoadInt_e@4:
  00128	88 4d f5	 mov	 BYTE PTR __k$[ebp+13], cl
  0012b	eb 44		 jmp	 SHORT $LN1@LoadInt_e@4
$LN85@LoadInt_e@4:
  0012d	c6 45 f3 ea	 mov	 BYTE PTR __k$[ebp+11], -22 ; ffffffeaH
  00131	eb 3e		 jmp	 SHORT $LN1@LoadInt_e@4
$LN86@LoadInt_e@4:
  00133	c6 45 f2 eb	 mov	 BYTE PTR __k$[ebp+10], -21 ; ffffffebH
  00137	eb 38		 jmp	 SHORT $LN1@LoadInt_e@4
$LN87@LoadInt_e@4:
  00139	88 4d f1	 mov	 BYTE PTR __k$[ebp+9], cl
  0013c	eb 33		 jmp	 SHORT $LN1@LoadInt_e@4
$LN88@LoadInt_e@4:
  0013e	c6 45 f0 ed	 mov	 BYTE PTR __k$[ebp+8], -19 ; ffffffedH
  00142	eb 2d		 jmp	 SHORT $LN1@LoadInt_e@4
$LN89@LoadInt_e@4:
  00144	c6 45 ef ea	 mov	 BYTE PTR __k$[ebp+7], -22 ; ffffffeaH
  00148	eb 27		 jmp	 SHORT $LN1@LoadInt_e@4
$LN90@LoadInt_e@4:
  0014a	c6 45 ee eb	 mov	 BYTE PTR __k$[ebp+6], -21 ; ffffffebH
  0014e	eb 21		 jmp	 SHORT $LN1@LoadInt_e@4
$LN91@LoadInt_e@4:
  00150	88 4d ed	 mov	 BYTE PTR __k$[ebp+5], cl
  00153	eb 1c		 jmp	 SHORT $LN1@LoadInt_e@4
$LN92@LoadInt_e@4:
  00155	c6 45 ec ed	 mov	 BYTE PTR __k$[ebp+4], -19 ; ffffffedH
  00159	eb 16		 jmp	 SHORT $LN1@LoadInt_e@4
$LN93@LoadInt_e@4:
  0015b	c6 45 eb ea	 mov	 BYTE PTR __k$[ebp+3], -22 ; ffffffeaH
  0015f	eb 10		 jmp	 SHORT $LN1@LoadInt_e@4
$LN94@LoadInt_e@4:
  00161	c6 45 ea eb	 mov	 BYTE PTR __k$[ebp+2], -21 ; ffffffebH
  00165	eb 0a		 jmp	 SHORT $LN1@LoadInt_e@4
$LN95@LoadInt_e@4:
  00167	c6 45 e9 ec	 mov	 BYTE PTR __k$[ebp+1], -20 ; ffffffecH
  0016b	eb 04		 jmp	 SHORT $LN1@LoadInt_e@4
$LN96@LoadInt_e@4:
  0016d	c6 45 e8 ed	 mov	 BYTE PTR __k$[ebp], -19	; ffffffedH
$LN1@LoadInt_e@4:
  00171	6a 03		 push	 3
  00173	8d 45 e8	 lea	 eax, DWORD PTR __k$[ebp]
  00176	c6 45 f4 00	 mov	 BYTE PTR __k$[ebp+12], 0
  0017a	5a		 pop	 edx
$LL104@LoadInt_e@4:
  0017b	81 30 ed ec eb
	ea		 xor	 DWORD PTR [eax], -353637139 ; eaebecedH
  00181	83 c0 04	 add	 eax, 4
  00184	4a		 dec	 edx
  00185	75 f4		 jne	 SHORT $LL104@LoadInt_e@4

; 120  : 		return LoadInt(_k, i);

  00187	ff 75 0c	 push	 DWORD PTR _i$[ebp]
  0018a	8d 45 e8	 lea	 eax, DWORD PTR __k$[ebp]
  0018d	50		 push	 eax
  0018e	8b ce		 mov	 ecx, esi
  00190	ff 15 00 00 00
	00		 call	 DWORD PTR __imp_?LoadInt@ioINILoader@@QAEHPBDH@Z

; 121  : 	}

  00196	8b 4d fc	 mov	 ecx, DWORD PTR __$ArrayPad$[ebp]
  00199	33 cd		 xor	 ecx, ebp
  0019b	5e		 pop	 esi
  0019c	e8 00 00 00 00	 call	 @__security_check_cookie@4
  001a1	c9		 leave
  001a2	c2 08 00	 ret	 8
??$LoadInt_e@$0N@@ioINILoader@@QAEHAAY0N@$$CBDH@Z ENDP	; ioINILoader::LoadInt_e<13>
_TEXT	ENDS
PUBLIC	_this$GSCopy$
PUBLIC	__$ArrayPad$
PUBLIC	??$LoadString_e@$0M@@ioINILoader@@QAEXAAY0M@$$CBDAAY00$$CBDPADH@Z ; ioINILoader::LoadString_e<12>
EXTRN	__imp_?LoadStringA@ioINILoader@@QAEXPBD0PADH@Z:PROC
; Function compile flags: /Ogsp
;	COMDAT ??$LoadString_e@$0M@@ioINILoader@@QAEXAAY0M@$$CBDAAY00$$CBDPADH@Z
_TEXT	SEGMENT
_this$GSCopy$ = -24					; size = 4
__k$ = -20						; size = 12
__$ArrayPad$ = -4					; size = 4
_k$ = 8							; size = 4
_d$ = 12						; size = 4
_b$ = 16						; size = 4
_i$ = 20						; size = 4
??$LoadString_e@$0M@@ioINILoader@@QAEXAAY0M@$$CBDAAY00$$CBDPADH@Z PROC ; ioINILoader::LoadString_e<12>, COMDAT
; _this$ = ecx

; 161  : 	{

  00000	55		 push	 ebp
  00001	8b ec		 mov	 ebp, esp
  00003	83 ec 18	 sub	 esp, 24			; 00000018H
  00006	a1 00 00 00 00	 mov	 eax, DWORD PTR ___security_cookie
  0000b	33 c5		 xor	 eax, ebp
  0000d	89 45 fc	 mov	 DWORD PTR __$ArrayPad$[ebp], eax
  00010	8b 45 08	 mov	 eax, DWORD PTR _k$[ebp]

; 162  : 		_ENCSTR(k, _k);

  00013	8a 10		 mov	 dl, BYTE PTR [eax]
  00015	56		 push	 esi
  00016	8b 75 0c	 mov	 esi, DWORD PTR _d$[ebp]
  00019	57		 push	 edi
  0001a	8b 7d 10	 mov	 edi, DWORD PTR _b$[ebp]
  0001d	89 4d e8	 mov	 DWORD PTR _this$GSCopy$[ebp], ecx
  00020	84 d2		 test	 dl, dl
  00022	0f 84 32 01 00
	00		 je	 $LN96@LoadString
  00028	80 f2 ed	 xor	 dl, -19			; ffffffedH
  0002b	88 55 ec	 mov	 BYTE PTR __k$[ebp], dl
  0002e	8a 50 01	 mov	 dl, BYTE PTR [eax+1]
  00031	84 d2		 test	 dl, dl
  00033	0f 84 1b 01 00
	00		 je	 $LN95@LoadString
  00039	80 f2 ec	 xor	 dl, -20			; ffffffecH
  0003c	88 55 ed	 mov	 BYTE PTR __k$[ebp+1], dl
  0003f	8a 50 02	 mov	 dl, BYTE PTR [eax+2]
  00042	84 d2		 test	 dl, dl
  00044	0f 84 04 01 00
	00		 je	 $LN94@LoadString
  0004a	b1 eb		 mov	 cl, -21			; ffffffebH
  0004c	32 d1		 xor	 dl, cl
  0004e	88 55 ee	 mov	 BYTE PTR __k$[ebp+2], dl
  00051	8a 50 03	 mov	 dl, BYTE PTR [eax+3]
  00054	84 d2		 test	 dl, dl
  00056	0f 84 ec 00 00
	00		 je	 $LN93@LoadString
  0005c	80 f2 ea	 xor	 dl, -22			; ffffffeaH
  0005f	88 55 ef	 mov	 BYTE PTR __k$[ebp+3], dl
  00062	8a 50 04	 mov	 dl, BYTE PTR [eax+4]
  00065	84 d2		 test	 dl, dl
  00067	0f 84 d5 00 00
	00		 je	 $LN92@LoadString
  0006d	80 f2 ed	 xor	 dl, -19			; ffffffedH
  00070	88 55 f0	 mov	 BYTE PTR __k$[ebp+4], dl
  00073	8a 50 05	 mov	 dl, BYTE PTR [eax+5]
  00076	84 d2		 test	 dl, dl
  00078	0f 84 be 00 00
	00		 je	 $LN91@LoadString
  0007e	80 f2 ec	 xor	 dl, -20			; ffffffecH
  00081	88 55 f1	 mov	 BYTE PTR __k$[ebp+5], dl
  00084	8a 50 06	 mov	 dl, BYTE PTR [eax+6]
  00087	84 d2		 test	 dl, dl
  00089	0f 84 a8 00 00
	00		 je	 $LN90@LoadString
  0008f	32 d1		 xor	 dl, cl
  00091	88 55 f2	 mov	 BYTE PTR __k$[ebp+6], dl
  00094	8a 50 07	 mov	 dl, BYTE PTR [eax+7]
  00097	84 d2		 test	 dl, dl
  00099	0f 84 92 00 00
	00		 je	 $LN89@LoadString
  0009f	80 f2 ea	 xor	 dl, -22			; ffffffeaH
  000a2	88 55 f3	 mov	 BYTE PTR __k$[ebp+7], dl
  000a5	8a 50 08	 mov	 dl, BYTE PTR [eax+8]
  000a8	84 d2		 test	 dl, dl
  000aa	74 7f		 je	 SHORT $LN88@LoadString
  000ac	80 f2 ed	 xor	 dl, -19			; ffffffedH
  000af	88 55 f4	 mov	 BYTE PTR __k$[ebp+8], dl
  000b2	8a 50 09	 mov	 dl, BYTE PTR [eax+9]
  000b5	84 d2		 test	 dl, dl
  000b7	74 6c		 je	 SHORT $LN87@LoadString
  000b9	80 f2 ec	 xor	 dl, -20			; ffffffecH
  000bc	88 55 f5	 mov	 BYTE PTR __k$[ebp+9], dl
  000bf	8a 50 0a	 mov	 dl, BYTE PTR [eax+10]
  000c2	84 d2		 test	 dl, dl
  000c4	74 5a		 je	 SHORT $LN86@LoadString
  000c6	32 d1		 xor	 dl, cl
  000c8	80 78 0b 00	 cmp	 BYTE PTR [eax+11], 0
  000cc	88 55 f6	 mov	 BYTE PTR __k$[ebp+10], dl
  000cf	0f 84 89 00 00
	00		 je	 $LN111@LoadString
  000d5	8a 50 0c	 mov	 dl, BYTE PTR [eax+12]
  000d8	84 d2		 test	 dl, dl
  000da	74 3e		 je	 SHORT $LN84@LoadString
  000dc	80 f2 ed	 xor	 dl, -19			; ffffffedH
  000df	88 55 f8	 mov	 BYTE PTR __k$[ebp+12], dl
  000e2	8a 50 0d	 mov	 dl, BYTE PTR [eax+13]
  000e5	84 d2		 test	 dl, dl
  000e7	74 2b		 je	 SHORT $LN83@LoadString
  000e9	80 f2 ec	 xor	 dl, -20			; ffffffecH
  000ec	88 55 f9	 mov	 BYTE PTR __k$[ebp+13], dl
  000ef	8a 50 0e	 mov	 dl, BYTE PTR [eax+14]
  000f2	84 d2		 test	 dl, dl
  000f4	74 19		 je	 SHORT $LN82@LoadString
  000f6	8a 40 0f	 mov	 al, BYTE PTR [eax+15]
  000f9	32 d1		 xor	 dl, cl
  000fb	88 55 fa	 mov	 BYTE PTR __k$[ebp+14], dl
  000fe	84 c0		 test	 al, al
  00100	74 07		 je	 SHORT $LN81@LoadString
  00102	34 ea		 xor	 al, -22			; ffffffeaH
  00104	88 45 fb	 mov	 BYTE PTR __k$[ebp+15], al
  00107	eb 55		 jmp	 SHORT $LN111@LoadString
$LN81@LoadString:
  00109	c6 45 fb ea	 mov	 BYTE PTR __k$[ebp+15], -22 ; ffffffeaH
  0010d	eb 4f		 jmp	 SHORT $LN111@LoadString
$LN82@LoadString:
  0010f	88 4d fa	 mov	 BYTE PTR __k$[ebp+14], cl
  00112	eb 4a		 jmp	 SHORT $LN111@LoadString
$LN83@LoadString:
  00114	c6 45 f9 ec	 mov	 BYTE PTR __k$[ebp+13], -20 ; ffffffecH
  00118	eb 44		 jmp	 SHORT $LN111@LoadString
$LN84@LoadString:
  0011a	c6 45 f8 ed	 mov	 BYTE PTR __k$[ebp+12], -19 ; ffffffedH
  0011e	eb 3e		 jmp	 SHORT $LN111@LoadString
$LN86@LoadString:
  00120	88 4d f6	 mov	 BYTE PTR __k$[ebp+10], cl
  00123	eb 39		 jmp	 SHORT $LN111@LoadString
$LN87@LoadString:
  00125	c6 45 f5 ec	 mov	 BYTE PTR __k$[ebp+9], -20 ; ffffffecH
  00129	eb 33		 jmp	 SHORT $LN111@LoadString
$LN88@LoadString:
  0012b	c6 45 f4 ed	 mov	 BYTE PTR __k$[ebp+8], -19 ; ffffffedH
  0012f	eb 2d		 jmp	 SHORT $LN111@LoadString
$LN89@LoadString:
  00131	c6 45 f3 ea	 mov	 BYTE PTR __k$[ebp+7], -22 ; ffffffeaH
  00135	eb 27		 jmp	 SHORT $LN111@LoadString
$LN90@LoadString:
  00137	88 4d f2	 mov	 BYTE PTR __k$[ebp+6], cl
  0013a	eb 22		 jmp	 SHORT $LN111@LoadString
$LN91@LoadString:
  0013c	c6 45 f1 ec	 mov	 BYTE PTR __k$[ebp+5], -20 ; ffffffecH
  00140	eb 1c		 jmp	 SHORT $LN111@LoadString
$LN92@LoadString:
  00142	c6 45 f0 ed	 mov	 BYTE PTR __k$[ebp+4], -19 ; ffffffedH
  00146	eb 16		 jmp	 SHORT $LN111@LoadString
$LN93@LoadString:
  00148	c6 45 ef ea	 mov	 BYTE PTR __k$[ebp+3], -22 ; ffffffeaH
  0014c	eb 10		 jmp	 SHORT $LN111@LoadString
$LN94@LoadString:
  0014e	c6 45 ee eb	 mov	 BYTE PTR __k$[ebp+2], -21 ; ffffffebH
  00152	eb 0a		 jmp	 SHORT $LN111@LoadString
$LN95@LoadString:
  00154	c6 45 ed ec	 mov	 BYTE PTR __k$[ebp+1], -20 ; ffffffecH
  00158	eb 04		 jmp	 SHORT $LN111@LoadString
$LN96@LoadString:
  0015a	c6 45 ec ed	 mov	 BYTE PTR __k$[ebp], -19	; ffffffedH
$LN111@LoadString:
  0015e	6a 02		 push	 2
  00160	8d 45 ec	 lea	 eax, DWORD PTR __k$[ebp]
  00163	c6 45 f7 00	 mov	 BYTE PTR __k$[ebp+11], 0
  00167	5a		 pop	 edx
$LL104@LoadString:
  00168	81 30 ed ec eb
	ea		 xor	 DWORD PTR [eax], -353637139 ; eaebecedH
  0016e	83 c0 04	 add	 eax, 4
  00171	4a		 dec	 edx
  00172	75 f4		 jne	 SHORT $LL104@LoadString
  00174	6a 08		 push	 8
  00176	58		 pop	 eax
$LL101@LoadString:
  00177	8b c8		 mov	 ecx, eax
  00179	81 e1 03 00 00
	80		 and	 ecx, -2147483645	; 80000003H
  0017f	79 05		 jns	 SHORT $LN112@LoadString
  00181	49		 dec	 ecx
  00182	83 c9 fc	 or	 ecx, -4			; fffffffcH
  00185	41		 inc	 ecx
$LN112@LoadString:
  00186	b2 ed		 mov	 dl, -19			; ffffffedH
  00188	2a d1		 sub	 dl, cl
  0018a	30 54 05 ec	 xor	 BYTE PTR __k$[ebp+eax], dl
  0018e	40		 inc	 eax
  0018f	83 f8 0b	 cmp	 eax, 11			; 0000000bH
  00192	7c e3		 jl	 SHORT $LL101@LoadString

; 163  : 		LoadString(_k, d, b, i);

  00194	ff 75 14	 push	 DWORD PTR _i$[ebp]
  00197	8b 4d e8	 mov	 ecx, DWORD PTR _this$GSCopy$[ebp]
  0019a	57		 push	 edi
  0019b	56		 push	 esi
  0019c	8d 45 ec	 lea	 eax, DWORD PTR __k$[ebp]
  0019f	50		 push	 eax
  001a0	ff 15 00 00 00
	00		 call	 DWORD PTR __imp_?LoadStringA@ioINILoader@@QAEXPBD0PADH@Z

; 164  : 	}

  001a6	8b 4d fc	 mov	 ecx, DWORD PTR __$ArrayPad$[ebp]
  001a9	5f		 pop	 edi
  001aa	33 cd		 xor	 ecx, ebp
  001ac	5e		 pop	 esi
  001ad	e8 00 00 00 00	 call	 @__security_check_cookie@4
  001b2	c9		 leave
  001b3	c2 10 00	 ret	 16			; 00000010H
??$LoadString_e@$0M@@ioINILoader@@QAEXAAY0M@$$CBDAAY00$$CBDPADH@Z ENDP ; ioINILoader::LoadString_e<12>
_TEXT	ENDS
PUBLIC	_this$GSCopy$
PUBLIC	__$ArrayPad$
PUBLIC	??$LoadString_e@$0O@@ioINILoader@@QAEXAAY0O@$$CBDAAY00$$CBDPADH@Z ; ioINILoader::LoadString_e<14>
; Function compile flags: /Ogsp
;	COMDAT ??$LoadString_e@$0O@@ioINILoader@@QAEXAAY0O@$$CBDAAY00$$CBDPADH@Z
_TEXT	SEGMENT
_this$GSCopy$ = -28					; size = 4
__k$ = -24						; size = 14
__$ArrayPad$ = -4					; size = 4
_k$ = 8							; size = 4
_d$ = 12						; size = 4
_b$ = 16						; size = 4
_i$ = 20						; size = 4
??$LoadString_e@$0O@@ioINILoader@@QAEXAAY0O@$$CBDAAY00$$CBDPADH@Z PROC ; ioINILoader::LoadString_e<14>, COMDAT
; _this$ = ecx

; 161  : 	{

  00000	55		 push	 ebp
  00001	8b ec		 mov	 ebp, esp
  00003	83 ec 1c	 sub	 esp, 28			; 0000001cH
  00006	a1 00 00 00 00	 mov	 eax, DWORD PTR ___security_cookie
  0000b	33 c5		 xor	 eax, ebp
  0000d	89 45 fc	 mov	 DWORD PTR __$ArrayPad$[ebp], eax
  00010	8b 45 08	 mov	 eax, DWORD PTR _k$[ebp]

; 162  : 		_ENCSTR(k, _k);

  00013	8a 10		 mov	 dl, BYTE PTR [eax]
  00015	56		 push	 esi
  00016	8b 75 0c	 mov	 esi, DWORD PTR _d$[ebp]
  00019	57		 push	 edi
  0001a	8b 7d 10	 mov	 edi, DWORD PTR _b$[ebp]
  0001d	89 4d e4	 mov	 DWORD PTR _this$GSCopy$[ebp], ecx
  00020	84 d2		 test	 dl, dl
  00022	0f 84 64 01 00
	00		 je	 $LN96@LoadString@2
  00028	80 f2 ed	 xor	 dl, -19			; ffffffedH
  0002b	88 55 e8	 mov	 BYTE PTR __k$[ebp], dl
  0002e	8a 50 01	 mov	 dl, BYTE PTR [eax+1]
  00031	84 d2		 test	 dl, dl
  00033	0f 84 4d 01 00
	00		 je	 $LN95@LoadString@2
  00039	80 f2 ec	 xor	 dl, -20			; ffffffecH
  0003c	88 55 e9	 mov	 BYTE PTR __k$[ebp+1], dl
  0003f	8a 50 02	 mov	 dl, BYTE PTR [eax+2]
  00042	84 d2		 test	 dl, dl
  00044	0f 84 36 01 00
	00		 je	 $LN94@LoadString@2
  0004a	b1 eb		 mov	 cl, -21			; ffffffebH
  0004c	32 d1		 xor	 dl, cl
  0004e	88 55 ea	 mov	 BYTE PTR __k$[ebp+2], dl
  00051	8a 50 03	 mov	 dl, BYTE PTR [eax+3]
  00054	84 d2		 test	 dl, dl
  00056	0f 84 1e 01 00
	00		 je	 $LN93@LoadString@2
  0005c	80 f2 ea	 xor	 dl, -22			; ffffffeaH
  0005f	88 55 eb	 mov	 BYTE PTR __k$[ebp+3], dl
  00062	8a 50 04	 mov	 dl, BYTE PTR [eax+4]
  00065	84 d2		 test	 dl, dl
  00067	0f 84 07 01 00
	00		 je	 $LN92@LoadString@2
  0006d	80 f2 ed	 xor	 dl, -19			; ffffffedH
  00070	88 55 ec	 mov	 BYTE PTR __k$[ebp+4], dl
  00073	8a 50 05	 mov	 dl, BYTE PTR [eax+5]
  00076	84 d2		 test	 dl, dl
  00078	0f 84 f0 00 00
	00		 je	 $LN91@LoadString@2
  0007e	80 f2 ec	 xor	 dl, -20			; ffffffecH
  00081	88 55 ed	 mov	 BYTE PTR __k$[ebp+5], dl
  00084	8a 50 06	 mov	 dl, BYTE PTR [eax+6]
  00087	84 d2		 test	 dl, dl
  00089	0f 84 da 00 00
	00		 je	 $LN90@LoadString@2
  0008f	32 d1		 xor	 dl, cl
  00091	88 55 ee	 mov	 BYTE PTR __k$[ebp+6], dl
  00094	8a 50 07	 mov	 dl, BYTE PTR [eax+7]
  00097	84 d2		 test	 dl, dl
  00099	0f 84 c4 00 00
	00		 je	 $LN89@LoadString@2
  0009f	80 f2 ea	 xor	 dl, -22			; ffffffeaH
  000a2	88 55 ef	 mov	 BYTE PTR __k$[ebp+7], dl
  000a5	8a 50 08	 mov	 dl, BYTE PTR [eax+8]
  000a8	84 d2		 test	 dl, dl
  000aa	0f 84 ad 00 00
	00		 je	 $LN88@LoadString@2
  000b0	80 f2 ed	 xor	 dl, -19			; ffffffedH
  000b3	88 55 f0	 mov	 BYTE PTR __k$[ebp+8], dl
  000b6	8a 50 09	 mov	 dl, BYTE PTR [eax+9]
  000b9	84 d2		 test	 dl, dl
  000bb	0f 84 96 00 00
	00		 je	 $LN87@LoadString@2
  000c1	80 f2 ec	 xor	 dl, -20			; ffffffecH
  000c4	88 55 f1	 mov	 BYTE PTR __k$[ebp+9], dl
  000c7	8a 50 0a	 mov	 dl, BYTE PTR [eax+10]
  000ca	84 d2		 test	 dl, dl
  000cc	0f 84 80 00 00
	00		 je	 $LN86@LoadString@2
  000d2	32 d1		 xor	 dl, cl
  000d4	88 55 f2	 mov	 BYTE PTR __k$[ebp+10], dl
  000d7	8a 50 0b	 mov	 dl, BYTE PTR [eax+11]
  000da	84 d2		 test	 dl, dl
  000dc	74 6e		 je	 SHORT $LN85@LoadString@2
  000de	80 f2 ea	 xor	 dl, -22			; ffffffeaH
  000e1	88 55 f3	 mov	 BYTE PTR __k$[ebp+11], dl
  000e4	8a 50 0c	 mov	 dl, BYTE PTR [eax+12]
  000e7	84 d2		 test	 dl, dl
  000e9	74 5b		 je	 SHORT $LN84@LoadString@2
  000eb	80 f2 ed	 xor	 dl, -19			; ffffffedH
  000ee	80 78 0d 00	 cmp	 BYTE PTR [eax+13], 0
  000f2	88 55 f4	 mov	 BYTE PTR __k$[ebp+12], dl
  000f5	0f 84 95 00 00
	00		 je	 $LN111@LoadString@2
  000fb	8a 50 0e	 mov	 dl, BYTE PTR [eax+14]
  000fe	84 d2		 test	 dl, dl
  00100	74 3f		 je	 SHORT $LN82@LoadString@2
  00102	32 d1		 xor	 dl, cl
  00104	88 55 f6	 mov	 BYTE PTR __k$[ebp+14], dl
  00107	8a 50 0f	 mov	 dl, BYTE PTR [eax+15]
  0010a	84 d2		 test	 dl, dl
  0010c	74 2d		 je	 SHORT $LN81@LoadString@2
  0010e	80 f2 ea	 xor	 dl, -22			; ffffffeaH
  00111	88 55 f7	 mov	 BYTE PTR __k$[ebp+15], dl
  00114	8a 50 10	 mov	 dl, BYTE PTR [eax+16]
  00117	84 d2		 test	 dl, dl
  00119	74 1a		 je	 SHORT $LN80@LoadString@2
  0011b	8a 40 11	 mov	 al, BYTE PTR [eax+17]
  0011e	80 f2 ed	 xor	 dl, -19			; ffffffedH
  00121	88 55 f8	 mov	 BYTE PTR __k$[ebp+16], dl
  00124	84 c0		 test	 al, al
  00126	74 07		 je	 SHORT $LN79@LoadString@2
  00128	34 ec		 xor	 al, -20			; ffffffecH
  0012a	88 45 f9	 mov	 BYTE PTR __k$[ebp+17], al
  0012d	eb 61		 jmp	 SHORT $LN111@LoadString@2
$LN79@LoadString@2:
  0012f	c6 45 f9 ec	 mov	 BYTE PTR __k$[ebp+17], -20 ; ffffffecH
  00133	eb 5b		 jmp	 SHORT $LN111@LoadString@2
$LN80@LoadString@2:
  00135	c6 45 f8 ed	 mov	 BYTE PTR __k$[ebp+16], -19 ; ffffffedH
  00139	eb 55		 jmp	 SHORT $LN111@LoadString@2
$LN81@LoadString@2:
  0013b	c6 45 f7 ea	 mov	 BYTE PTR __k$[ebp+15], -22 ; ffffffeaH
  0013f	eb 4f		 jmp	 SHORT $LN111@LoadString@2
$LN82@LoadString@2:
  00141	88 4d f6	 mov	 BYTE PTR __k$[ebp+14], cl
  00144	eb 4a		 jmp	 SHORT $LN111@LoadString@2
$LN84@LoadString@2:
  00146	c6 45 f4 ed	 mov	 BYTE PTR __k$[ebp+12], -19 ; ffffffedH
  0014a	eb 44		 jmp	 SHORT $LN111@LoadString@2
$LN85@LoadString@2:
  0014c	c6 45 f3 ea	 mov	 BYTE PTR __k$[ebp+11], -22 ; ffffffeaH
  00150	eb 3e		 jmp	 SHORT $LN111@LoadString@2
$LN86@LoadString@2:
  00152	88 4d f2	 mov	 BYTE PTR __k$[ebp+10], cl
  00155	eb 39		 jmp	 SHORT $LN111@LoadString@2
$LN87@LoadString@2:
  00157	c6 45 f1 ec	 mov	 BYTE PTR __k$[ebp+9], -20 ; ffffffecH
  0015b	eb 33		 jmp	 SHORT $LN111@LoadString@2
$LN88@LoadString@2:
  0015d	c6 45 f0 ed	 mov	 BYTE PTR __k$[ebp+8], -19 ; ffffffedH
  00161	eb 2d		 jmp	 SHORT $LN111@LoadString@2
$LN89@LoadString@2:
  00163	c6 45 ef ea	 mov	 BYTE PTR __k$[ebp+7], -22 ; ffffffeaH
  00167	eb 27		 jmp	 SHORT $LN111@LoadString@2
$LN90@LoadString@2:
  00169	88 4d ee	 mov	 BYTE PTR __k$[ebp+6], cl
  0016c	eb 22		 jmp	 SHORT $LN111@LoadString@2
$LN91@LoadString@2:
  0016e	c6 45 ed ec	 mov	 BYTE PTR __k$[ebp+5], -20 ; ffffffecH
  00172	eb 1c		 jmp	 SHORT $LN111@LoadString@2
$LN92@LoadString@2:
  00174	c6 45 ec ed	 mov	 BYTE PTR __k$[ebp+4], -19 ; ffffffedH
  00178	eb 16		 jmp	 SHORT $LN111@LoadString@2
$LN93@LoadString@2:
  0017a	c6 45 eb ea	 mov	 BYTE PTR __k$[ebp+3], -22 ; ffffffeaH
  0017e	eb 10		 jmp	 SHORT $LN111@LoadString@2
$LN94@LoadString@2:
  00180	c6 45 ea eb	 mov	 BYTE PTR __k$[ebp+2], -21 ; ffffffebH
  00184	eb 0a		 jmp	 SHORT $LN111@LoadString@2
$LN95@LoadString@2:
  00186	c6 45 e9 ec	 mov	 BYTE PTR __k$[ebp+1], -20 ; ffffffecH
  0018a	eb 04		 jmp	 SHORT $LN111@LoadString@2
$LN96@LoadString@2:
  0018c	c6 45 e8 ed	 mov	 BYTE PTR __k$[ebp], -19	; ffffffedH
$LN111@LoadString@2:
  00190	6a 03		 push	 3
  00192	8d 45 e8	 lea	 eax, DWORD PTR __k$[ebp]
  00195	c6 45 f5 00	 mov	 BYTE PTR __k$[ebp+13], 0
  00199	5a		 pop	 edx
$LL104@LoadString@2:
  0019a	81 30 ed ec eb
	ea		 xor	 DWORD PTR [eax], -353637139 ; eaebecedH
  001a0	83 c0 04	 add	 eax, 4
  001a3	4a		 dec	 edx
  001a4	75 f4		 jne	 SHORT $LL104@LoadString@2

; 163  : 		LoadString(_k, d, b, i);

  001a6	ff 75 14	 push	 DWORD PTR _i$[ebp]
  001a9	8b 4d e4	 mov	 ecx, DWORD PTR _this$GSCopy$[ebp]
  001ac	80 75 f4 ed	 xor	 BYTE PTR __k$[ebp+12], -19 ; ffffffedH
  001b0	57		 push	 edi
  001b1	56		 push	 esi
  001b2	8d 45 e8	 lea	 eax, DWORD PTR __k$[ebp]
  001b5	50		 push	 eax
  001b6	ff 15 00 00 00
	00		 call	 DWORD PTR __imp_?LoadStringA@ioINILoader@@QAEXPBD0PADH@Z

; 164  : 	}

  001bc	8b 4d fc	 mov	 ecx, DWORD PTR __$ArrayPad$[ebp]
  001bf	5f		 pop	 edi
  001c0	33 cd		 xor	 ecx, ebp
  001c2	5e		 pop	 esi
  001c3	e8 00 00 00 00	 call	 @__security_check_cookie@4
  001c8	c9		 leave
  001c9	c2 10 00	 ret	 16			; 00000010H
??$LoadString_e@$0O@@ioINILoader@@QAEXAAY0O@$$CBDAAY00$$CBDPADH@Z ENDP ; ioINILoader::LoadString_e<14>
_TEXT	ENDS
PUBLIC	__$ArrayPad$
PUBLIC	??$LoadFloat_e@$0BA@@ioINILoader@@QAEMAAY0BA@$$CBDM@Z ; ioINILoader::LoadFloat_e<16>
; Function compile flags: /Ogsp
;	COMDAT ??$LoadFloat_e@$0BA@@ioINILoader@@QAEMAAY0BA@$$CBDM@Z
_TEXT	SEGMENT
__k$ = -24						; size = 16
__$ArrayPad$ = -4					; size = 4
_k$ = 8							; size = 4
_f$ = 12						; size = 4
??$LoadFloat_e@$0BA@@ioINILoader@@QAEMAAY0BA@$$CBDM@Z PROC ; ioINILoader::LoadFloat_e<16>, COMDAT
; _this$ = ecx

; 135  : 	{

  00000	55		 push	 ebp
  00001	8b ec		 mov	 ebp, esp
  00003	83 ec 18	 sub	 esp, 24			; 00000018H
  00006	a1 00 00 00 00	 mov	 eax, DWORD PTR ___security_cookie
  0000b	33 c5		 xor	 eax, ebp
  0000d	89 45 fc	 mov	 DWORD PTR __$ArrayPad$[ebp], eax
  00010	8b 45 08	 mov	 eax, DWORD PTR _k$[ebp]

; 136  : 		_ENCSTR(k, _k);

  00013	8a 10		 mov	 dl, BYTE PTR [eax]
  00015	56		 push	 esi
  00016	8b f1		 mov	 esi, ecx
  00018	84 d2		 test	 dl, dl
  0001a	0f 84 8c 01 00
	00		 je	 $LN96@LoadFloat_@6
  00020	80 f2 ed	 xor	 dl, -19			; ffffffedH
  00023	88 55 e8	 mov	 BYTE PTR __k$[ebp], dl
  00026	8a 50 01	 mov	 dl, BYTE PTR [eax+1]
  00029	84 d2		 test	 dl, dl
  0002b	0f 84 75 01 00
	00		 je	 $LN95@LoadFloat_@6
  00031	80 f2 ec	 xor	 dl, -20			; ffffffecH
  00034	88 55 e9	 mov	 BYTE PTR __k$[ebp+1], dl
  00037	8a 50 02	 mov	 dl, BYTE PTR [eax+2]
  0003a	84 d2		 test	 dl, dl
  0003c	0f 84 5e 01 00
	00		 je	 $LN94@LoadFloat_@6
  00042	b1 eb		 mov	 cl, -21			; ffffffebH
  00044	32 d1		 xor	 dl, cl
  00046	88 55 ea	 mov	 BYTE PTR __k$[ebp+2], dl
  00049	8a 50 03	 mov	 dl, BYTE PTR [eax+3]
  0004c	84 d2		 test	 dl, dl
  0004e	0f 84 46 01 00
	00		 je	 $LN93@LoadFloat_@6
  00054	80 f2 ea	 xor	 dl, -22			; ffffffeaH
  00057	88 55 eb	 mov	 BYTE PTR __k$[ebp+3], dl
  0005a	8a 50 04	 mov	 dl, BYTE PTR [eax+4]
  0005d	84 d2		 test	 dl, dl
  0005f	0f 84 2f 01 00
	00		 je	 $LN92@LoadFloat_@6
  00065	80 f2 ed	 xor	 dl, -19			; ffffffedH
  00068	88 55 ec	 mov	 BYTE PTR __k$[ebp+4], dl
  0006b	8a 50 05	 mov	 dl, BYTE PTR [eax+5]
  0006e	84 d2		 test	 dl, dl
  00070	0f 84 18 01 00
	00		 je	 $LN91@LoadFloat_@6
  00076	80 f2 ec	 xor	 dl, -20			; ffffffecH
  00079	88 55 ed	 mov	 BYTE PTR __k$[ebp+5], dl
  0007c	8a 50 06	 mov	 dl, BYTE PTR [eax+6]
  0007f	84 d2		 test	 dl, dl
  00081	0f 84 02 01 00
	00		 je	 $LN90@LoadFloat_@6
  00087	32 d1		 xor	 dl, cl
  00089	88 55 ee	 mov	 BYTE PTR __k$[ebp+6], dl
  0008c	8a 50 07	 mov	 dl, BYTE PTR [eax+7]
  0008f	84 d2		 test	 dl, dl
  00091	0f 84 ec 00 00
	00		 je	 $LN89@LoadFloat_@6
  00097	80 f2 ea	 xor	 dl, -22			; ffffffeaH
  0009a	88 55 ef	 mov	 BYTE PTR __k$[ebp+7], dl
  0009d	8a 50 08	 mov	 dl, BYTE PTR [eax+8]
  000a0	84 d2		 test	 dl, dl
  000a2	0f 84 d5 00 00
	00		 je	 $LN88@LoadFloat_@6
  000a8	80 f2 ed	 xor	 dl, -19			; ffffffedH
  000ab	88 55 f0	 mov	 BYTE PTR __k$[ebp+8], dl
  000ae	8a 50 09	 mov	 dl, BYTE PTR [eax+9]
  000b1	84 d2		 test	 dl, dl
  000b3	0f 84 be 00 00
	00		 je	 $LN87@LoadFloat_@6
  000b9	80 f2 ec	 xor	 dl, -20			; ffffffecH
  000bc	88 55 f1	 mov	 BYTE PTR __k$[ebp+9], dl
  000bf	8a 50 0a	 mov	 dl, BYTE PTR [eax+10]
  000c2	84 d2		 test	 dl, dl
  000c4	0f 84 a8 00 00
	00		 je	 $LN86@LoadFloat_@6
  000ca	32 d1		 xor	 dl, cl
  000cc	88 55 f2	 mov	 BYTE PTR __k$[ebp+10], dl
  000cf	8a 50 0b	 mov	 dl, BYTE PTR [eax+11]
  000d2	84 d2		 test	 dl, dl
  000d4	0f 84 92 00 00
	00		 je	 $LN85@LoadFloat_@6
  000da	80 f2 ea	 xor	 dl, -22			; ffffffeaH
  000dd	88 55 f3	 mov	 BYTE PTR __k$[ebp+11], dl
  000e0	8a 50 0c	 mov	 dl, BYTE PTR [eax+12]
  000e3	84 d2		 test	 dl, dl
  000e5	74 7f		 je	 SHORT $LN84@LoadFloat_@6
  000e7	80 f2 ed	 xor	 dl, -19			; ffffffedH
  000ea	88 55 f4	 mov	 BYTE PTR __k$[ebp+12], dl
  000ed	8a 50 0d	 mov	 dl, BYTE PTR [eax+13]
  000f0	84 d2		 test	 dl, dl
  000f2	74 6c		 je	 SHORT $LN83@LoadFloat_@6
  000f4	80 f2 ec	 xor	 dl, -20			; ffffffecH
  000f7	88 55 f5	 mov	 BYTE PTR __k$[ebp+13], dl
  000fa	8a 50 0e	 mov	 dl, BYTE PTR [eax+14]
  000fd	84 d2		 test	 dl, dl
  000ff	74 5a		 je	 SHORT $LN82@LoadFloat_@6
  00101	32 d1		 xor	 dl, cl
  00103	80 78 0f 00	 cmp	 BYTE PTR [eax+15], 0
  00107	88 55 f6	 mov	 BYTE PTR __k$[ebp+14], dl
  0010a	0f 84 a0 00 00
	00		 je	 $LN1@LoadFloat_@6
  00110	8a 50 10	 mov	 dl, BYTE PTR [eax+16]
  00113	84 d2		 test	 dl, dl
  00115	74 3e		 je	 SHORT $LN80@LoadFloat_@6
  00117	80 f2 ed	 xor	 dl, -19			; ffffffedH
  0011a	88 55 f8	 mov	 BYTE PTR __k$[ebp+16], dl
  0011d	8a 50 11	 mov	 dl, BYTE PTR [eax+17]
  00120	84 d2		 test	 dl, dl
  00122	74 2b		 je	 SHORT $LN79@LoadFloat_@6
  00124	80 f2 ec	 xor	 dl, -20			; ffffffecH
  00127	88 55 f9	 mov	 BYTE PTR __k$[ebp+17], dl
  0012a	8a 50 12	 mov	 dl, BYTE PTR [eax+18]
  0012d	84 d2		 test	 dl, dl
  0012f	74 19		 je	 SHORT $LN78@LoadFloat_@6
  00131	8a 40 13	 mov	 al, BYTE PTR [eax+19]
  00134	32 d1		 xor	 dl, cl
  00136	88 55 fa	 mov	 BYTE PTR __k$[ebp+18], dl
  00139	84 c0		 test	 al, al
  0013b	74 07		 je	 SHORT $LN77@LoadFloat_@6
  0013d	34 ea		 xor	 al, -22			; ffffffeaH
  0013f	88 45 fb	 mov	 BYTE PTR __k$[ebp+19], al
  00142	eb 6c		 jmp	 SHORT $LN1@LoadFloat_@6
$LN77@LoadFloat_@6:
  00144	c6 45 fb ea	 mov	 BYTE PTR __k$[ebp+19], -22 ; ffffffeaH
  00148	eb 66		 jmp	 SHORT $LN1@LoadFloat_@6
$LN78@LoadFloat_@6:
  0014a	88 4d fa	 mov	 BYTE PTR __k$[ebp+18], cl
  0014d	eb 61		 jmp	 SHORT $LN1@LoadFloat_@6
$LN79@LoadFloat_@6:
  0014f	c6 45 f9 ec	 mov	 BYTE PTR __k$[ebp+17], -20 ; ffffffecH
  00153	eb 5b		 jmp	 SHORT $LN1@LoadFloat_@6
$LN80@LoadFloat_@6:
  00155	c6 45 f8 ed	 mov	 BYTE PTR __k$[ebp+16], -19 ; ffffffedH
  00159	eb 55		 jmp	 SHORT $LN1@LoadFloat_@6
$LN82@LoadFloat_@6:
  0015b	88 4d f6	 mov	 BYTE PTR __k$[ebp+14], cl
  0015e	eb 50		 jmp	 SHORT $LN1@LoadFloat_@6
$LN83@LoadFloat_@6:
  00160	c6 45 f5 ec	 mov	 BYTE PTR __k$[ebp+13], -20 ; ffffffecH
  00164	eb 4a		 jmp	 SHORT $LN1@LoadFloat_@6
$LN84@LoadFloat_@6:
  00166	c6 45 f4 ed	 mov	 BYTE PTR __k$[ebp+12], -19 ; ffffffedH
  0016a	eb 44		 jmp	 SHORT $LN1@LoadFloat_@6
$LN85@LoadFloat_@6:
  0016c	c6 45 f3 ea	 mov	 BYTE PTR __k$[ebp+11], -22 ; ffffffeaH
  00170	eb 3e		 jmp	 SHORT $LN1@LoadFloat_@6
$LN86@LoadFloat_@6:
  00172	88 4d f2	 mov	 BYTE PTR __k$[ebp+10], cl
  00175	eb 39		 jmp	 SHORT $LN1@LoadFloat_@6
$LN87@LoadFloat_@6:
  00177	c6 45 f1 ec	 mov	 BYTE PTR __k$[ebp+9], -20 ; ffffffecH
  0017b	eb 33		 jmp	 SHORT $LN1@LoadFloat_@6
$LN88@LoadFloat_@6:
  0017d	c6 45 f0 ed	 mov	 BYTE PTR __k$[ebp+8], -19 ; ffffffedH
  00181	eb 2d		 jmp	 SHORT $LN1@LoadFloat_@6
$LN89@LoadFloat_@6:
  00183	c6 45 ef ea	 mov	 BYTE PTR __k$[ebp+7], -22 ; ffffffeaH
  00187	eb 27		 jmp	 SHORT $LN1@LoadFloat_@6
$LN90@LoadFloat_@6:
  00189	88 4d ee	 mov	 BYTE PTR __k$[ebp+6], cl
  0018c	eb 22		 jmp	 SHORT $LN1@LoadFloat_@6
$LN91@LoadFloat_@6:
  0018e	c6 45 ed ec	 mov	 BYTE PTR __k$[ebp+5], -20 ; ffffffecH
  00192	eb 1c		 jmp	 SHORT $LN1@LoadFloat_@6
$LN92@LoadFloat_@6:
  00194	c6 45 ec ed	 mov	 BYTE PTR __k$[ebp+4], -19 ; ffffffedH
  00198	eb 16		 jmp	 SHORT $LN1@LoadFloat_@6
$LN93@LoadFloat_@6:
  0019a	c6 45 eb ea	 mov	 BYTE PTR __k$[ebp+3], -22 ; ffffffeaH
  0019e	eb 10		 jmp	 SHORT $LN1@LoadFloat_@6
$LN94@LoadFloat_@6:
  001a0	c6 45 ea eb	 mov	 BYTE PTR __k$[ebp+2], -21 ; ffffffebH
  001a4	eb 0a		 jmp	 SHORT $LN1@LoadFloat_@6
$LN95@LoadFloat_@6:
  001a6	c6 45 e9 ec	 mov	 BYTE PTR __k$[ebp+1], -20 ; ffffffecH
  001aa	eb 04		 jmp	 SHORT $LN1@LoadFloat_@6
$LN96@LoadFloat_@6:
  001ac	c6 45 e8 ed	 mov	 BYTE PTR __k$[ebp], -19	; ffffffedH
$LN1@LoadFloat_@6:
  001b0	6a 03		 push	 3
  001b2	8d 45 e8	 lea	 eax, DWORD PTR __k$[ebp]
  001b5	c6 45 f7 00	 mov	 BYTE PTR __k$[ebp+15], 0
  001b9	5a		 pop	 edx
$LL104@LoadFloat_@6:
  001ba	81 30 ed ec eb
	ea		 xor	 DWORD PTR [eax], -353637139 ; eaebecedH
  001c0	83 c0 04	 add	 eax, 4
  001c3	4a		 dec	 edx
  001c4	75 f4		 jne	 SHORT $LL104@LoadFloat_@6
  001c6	6a 0c		 push	 12			; 0000000cH
  001c8	58		 pop	 eax
$LL101@LoadFloat_@6:
  001c9	8b c8		 mov	 ecx, eax
  001cb	81 e1 03 00 00
	80		 and	 ecx, -2147483645	; 80000003H
  001d1	79 05		 jns	 SHORT $LN111@LoadFloat_@6
  001d3	49		 dec	 ecx
  001d4	83 c9 fc	 or	 ecx, -4			; fffffffcH
  001d7	41		 inc	 ecx
$LN111@LoadFloat_@6:
  001d8	b2 ed		 mov	 dl, -19			; ffffffedH
  001da	2a d1		 sub	 dl, cl
  001dc	30 54 05 e8	 xor	 BYTE PTR __k$[ebp+eax], dl
  001e0	40		 inc	 eax
  001e1	83 f8 0f	 cmp	 eax, 15			; 0000000fH
  001e4	7c e3		 jl	 SHORT $LL101@LoadFloat_@6

; 137  : 		return LoadFloat(_k, f);

  001e6	f3 0f 10 45 0c	 movss	 xmm0, DWORD PTR _f$[ebp]
  001eb	51		 push	 ecx
  001ec	8d 45 e8	 lea	 eax, DWORD PTR __k$[ebp]
  001ef	f3 0f 11 04 24	 movss	 DWORD PTR [esp], xmm0
  001f4	50		 push	 eax
  001f5	8b ce		 mov	 ecx, esi
  001f7	ff 15 00 00 00
	00		 call	 DWORD PTR __imp_?LoadFloat@ioINILoader@@QAEMPBDM@Z

; 138  : 	}

  001fd	8b 4d fc	 mov	 ecx, DWORD PTR __$ArrayPad$[ebp]
  00200	33 cd		 xor	 ecx, ebp
  00202	5e		 pop	 esi
  00203	e8 00 00 00 00	 call	 @__security_check_cookie@4
  00208	c9		 leave
  00209	c2 08 00	 ret	 8
??$LoadFloat_e@$0BA@@ioINILoader@@QAEMAAY0BA@$$CBDM@Z ENDP ; ioINILoader::LoadFloat_e<16>
_TEXT	ENDS
PUBLIC	_this$GSCopy$
PUBLIC	__$ArrayPad$
PUBLIC	??$LoadString_e@$0N@@ioINILoader@@QAEXAAY0N@$$CBDAAY00$$CBDPADH@Z ; ioINILoader::LoadString_e<13>
; Function compile flags: /Ogsp
;	COMDAT ??$LoadString_e@$0N@@ioINILoader@@QAEXAAY0N@$$CBDAAY00$$CBDPADH@Z
_TEXT	SEGMENT
_this$GSCopy$ = -28					; size = 4
__k$ = -24						; size = 13
__$ArrayPad$ = -4					; size = 4
_k$ = 8							; size = 4
_d$ = 12						; size = 4
_b$ = 16						; size = 4
_i$ = 20						; size = 4
??$LoadString_e@$0N@@ioINILoader@@QAEXAAY0N@$$CBDAAY00$$CBDPADH@Z PROC ; ioINILoader::LoadString_e<13>, COMDAT
; _this$ = ecx

; 161  : 	{

  00000	55		 push	 ebp
  00001	8b ec		 mov	 ebp, esp
  00003	83 ec 1c	 sub	 esp, 28			; 0000001cH
  00006	a1 00 00 00 00	 mov	 eax, DWORD PTR ___security_cookie
  0000b	33 c5		 xor	 eax, ebp
  0000d	89 45 fc	 mov	 DWORD PTR __$ArrayPad$[ebp], eax
  00010	8b 45 08	 mov	 eax, DWORD PTR _k$[ebp]

; 162  : 		_ENCSTR(k, _k);

  00013	8a 10		 mov	 dl, BYTE PTR [eax]
  00015	56		 push	 esi
  00016	8b 75 0c	 mov	 esi, DWORD PTR _d$[ebp]
  00019	57		 push	 edi
  0001a	8b 7d 10	 mov	 edi, DWORD PTR _b$[ebp]
  0001d	89 4d e4	 mov	 DWORD PTR _this$GSCopy$[ebp], ecx
  00020	84 d2		 test	 dl, dl
  00022	0f 84 4d 01 00
	00		 je	 $LN96@LoadString@3
  00028	80 f2 ed	 xor	 dl, -19			; ffffffedH
  0002b	88 55 e8	 mov	 BYTE PTR __k$[ebp], dl
  0002e	8a 50 01	 mov	 dl, BYTE PTR [eax+1]
  00031	84 d2		 test	 dl, dl
  00033	0f 84 36 01 00
	00		 je	 $LN95@LoadString@3
  00039	b1 ec		 mov	 cl, -20			; ffffffecH
  0003b	32 d1		 xor	 dl, cl
  0003d	88 55 e9	 mov	 BYTE PTR __k$[ebp+1], dl
  00040	8a 50 02	 mov	 dl, BYTE PTR [eax+2]
  00043	84 d2		 test	 dl, dl
  00045	0f 84 1e 01 00
	00		 je	 $LN94@LoadString@3
  0004b	80 f2 eb	 xor	 dl, -21			; ffffffebH
  0004e	88 55 ea	 mov	 BYTE PTR __k$[ebp+2], dl
  00051	8a 50 03	 mov	 dl, BYTE PTR [eax+3]
  00054	84 d2		 test	 dl, dl
  00056	0f 84 07 01 00
	00		 je	 $LN93@LoadString@3
  0005c	80 f2 ea	 xor	 dl, -22			; ffffffeaH
  0005f	88 55 eb	 mov	 BYTE PTR __k$[ebp+3], dl
  00062	8a 50 04	 mov	 dl, BYTE PTR [eax+4]
  00065	84 d2		 test	 dl, dl
  00067	0f 84 f0 00 00
	00		 je	 $LN92@LoadString@3
  0006d	80 f2 ed	 xor	 dl, -19			; ffffffedH
  00070	88 55 ec	 mov	 BYTE PTR __k$[ebp+4], dl
  00073	8a 50 05	 mov	 dl, BYTE PTR [eax+5]
  00076	84 d2		 test	 dl, dl
  00078	0f 84 da 00 00
	00		 je	 $LN91@LoadString@3
  0007e	32 d1		 xor	 dl, cl
  00080	88 55 ed	 mov	 BYTE PTR __k$[ebp+5], dl
  00083	8a 50 06	 mov	 dl, BYTE PTR [eax+6]
  00086	84 d2		 test	 dl, dl
  00088	0f 84 c4 00 00
	00		 je	 $LN90@LoadString@3
  0008e	80 f2 eb	 xor	 dl, -21			; ffffffebH
  00091	88 55 ee	 mov	 BYTE PTR __k$[ebp+6], dl
  00094	8a 50 07	 mov	 dl, BYTE PTR [eax+7]
  00097	84 d2		 test	 dl, dl
  00099	0f 84 ad 00 00
	00		 je	 $LN89@LoadString@3
  0009f	80 f2 ea	 xor	 dl, -22			; ffffffeaH
  000a2	88 55 ef	 mov	 BYTE PTR __k$[ebp+7], dl
  000a5	8a 50 08	 mov	 dl, BYTE PTR [eax+8]
  000a8	84 d2		 test	 dl, dl
  000aa	0f 84 96 00 00
	00		 je	 $LN88@LoadString@3
  000b0	80 f2 ed	 xor	 dl, -19			; ffffffedH
  000b3	88 55 f0	 mov	 BYTE PTR __k$[ebp+8], dl
  000b6	8a 50 09	 mov	 dl, BYTE PTR [eax+9]
  000b9	84 d2		 test	 dl, dl
  000bb	0f 84 80 00 00
	00		 je	 $LN87@LoadString@3
  000c1	32 d1		 xor	 dl, cl
  000c3	88 55 f1	 mov	 BYTE PTR __k$[ebp+9], dl
  000c6	8a 50 0a	 mov	 dl, BYTE PTR [eax+10]
  000c9	84 d2		 test	 dl, dl
  000cb	74 6e		 je	 SHORT $LN86@LoadString@3
  000cd	80 f2 eb	 xor	 dl, -21			; ffffffebH
  000d0	88 55 f2	 mov	 BYTE PTR __k$[ebp+10], dl
  000d3	8a 50 0b	 mov	 dl, BYTE PTR [eax+11]
  000d6	84 d2		 test	 dl, dl
  000d8	74 5b		 je	 SHORT $LN85@LoadString@3
  000da	80 f2 ea	 xor	 dl, -22			; ffffffeaH
  000dd	80 78 0c 00	 cmp	 BYTE PTR [eax+12], 0
  000e1	88 55 f3	 mov	 BYTE PTR __k$[ebp+11], dl
  000e4	0f 84 8f 00 00
	00		 je	 $LN111@LoadString@3
  000ea	8a 50 0d	 mov	 dl, BYTE PTR [eax+13]
  000ed	84 d2		 test	 dl, dl
  000ef	74 3f		 je	 SHORT $LN83@LoadString@3
  000f1	32 d1		 xor	 dl, cl
  000f3	88 55 f5	 mov	 BYTE PTR __k$[ebp+13], dl
  000f6	8a 50 0e	 mov	 dl, BYTE PTR [eax+14]
  000f9	84 d2		 test	 dl, dl
  000fb	74 2d		 je	 SHORT $LN82@LoadString@3
  000fd	80 f2 eb	 xor	 dl, -21			; ffffffebH
  00100	88 55 f6	 mov	 BYTE PTR __k$[ebp+14], dl
  00103	8a 50 0f	 mov	 dl, BYTE PTR [eax+15]
  00106	84 d2		 test	 dl, dl
  00108	74 1a		 je	 SHORT $LN81@LoadString@3
  0010a	8a 40 10	 mov	 al, BYTE PTR [eax+16]
  0010d	80 f2 ea	 xor	 dl, -22			; ffffffeaH
  00110	88 55 f7	 mov	 BYTE PTR __k$[ebp+15], dl
  00113	84 c0		 test	 al, al
  00115	74 07		 je	 SHORT $LN80@LoadString@3
  00117	34 ed		 xor	 al, -19			; ffffffedH
  00119	88 45 f8	 mov	 BYTE PTR __k$[ebp+16], al
  0011c	eb 5b		 jmp	 SHORT $LN111@LoadString@3
$LN80@LoadString@3:
  0011e	c6 45 f8 ed	 mov	 BYTE PTR __k$[ebp+16], -19 ; ffffffedH
  00122	eb 55		 jmp	 SHORT $LN111@LoadString@3
$LN81@LoadString@3:
  00124	c6 45 f7 ea	 mov	 BYTE PTR __k$[ebp+15], -22 ; ffffffeaH
  00128	eb 4f		 jmp	 SHORT $LN111@LoadString@3
$LN82@LoadString@3:
  0012a	c6 45 f6 eb	 mov	 BYTE PTR __k$[ebp+14], -21 ; ffffffebH
  0012e	eb 49		 jmp	 SHORT $LN111@LoadString@3
$LN83@LoadString@3:
  00130	88 4d f5	 mov	 BYTE PTR __k$[ebp+13], cl
  00133	eb 44		 jmp	 SHORT $LN111@LoadString@3
$LN85@LoadString@3:
  00135	c6 45 f3 ea	 mov	 BYTE PTR __k$[ebp+11], -22 ; ffffffeaH
  00139	eb 3e		 jmp	 SHORT $LN111@LoadString@3
$LN86@LoadString@3:
  0013b	c6 45 f2 eb	 mov	 BYTE PTR __k$[ebp+10], -21 ; ffffffebH
  0013f	eb 38		 jmp	 SHORT $LN111@LoadString@3
$LN87@LoadString@3:
  00141	88 4d f1	 mov	 BYTE PTR __k$[ebp+9], cl
  00144	eb 33		 jmp	 SHORT $LN111@LoadString@3
$LN88@LoadString@3:
  00146	c6 45 f0 ed	 mov	 BYTE PTR __k$[ebp+8], -19 ; ffffffedH
  0014a	eb 2d		 jmp	 SHORT $LN111@LoadString@3
$LN89@LoadString@3:
  0014c	c6 45 ef ea	 mov	 BYTE PTR __k$[ebp+7], -22 ; ffffffeaH
  00150	eb 27		 jmp	 SHORT $LN111@LoadString@3
$LN90@LoadString@3:
  00152	c6 45 ee eb	 mov	 BYTE PTR __k$[ebp+6], -21 ; ffffffebH
  00156	eb 21		 jmp	 SHORT $LN111@LoadString@3
$LN91@LoadString@3:
  00158	88 4d ed	 mov	 BYTE PTR __k$[ebp+5], cl
  0015b	eb 1c		 jmp	 SHORT $LN111@LoadString@3
$LN92@LoadString@3:
  0015d	c6 45 ec ed	 mov	 BYTE PTR __k$[ebp+4], -19 ; ffffffedH
  00161	eb 16		 jmp	 SHORT $LN111@LoadString@3
$LN93@LoadString@3:
  00163	c6 45 eb ea	 mov	 BYTE PTR __k$[ebp+3], -22 ; ffffffeaH
  00167	eb 10		 jmp	 SHORT $LN111@LoadString@3
$LN94@LoadString@3:
  00169	c6 45 ea eb	 mov	 BYTE PTR __k$[ebp+2], -21 ; ffffffebH
  0016d	eb 0a		 jmp	 SHORT $LN111@LoadString@3
$LN95@LoadString@3:
  0016f	c6 45 e9 ec	 mov	 BYTE PTR __k$[ebp+1], -20 ; ffffffecH
  00173	eb 04		 jmp	 SHORT $LN111@LoadString@3
$LN96@LoadString@3:
  00175	c6 45 e8 ed	 mov	 BYTE PTR __k$[ebp], -19	; ffffffedH
$LN111@LoadString@3:
  00179	6a 03		 push	 3
  0017b	8d 45 e8	 lea	 eax, DWORD PTR __k$[ebp]
  0017e	c6 45 f4 00	 mov	 BYTE PTR __k$[ebp+12], 0
  00182	5a		 pop	 edx
$LL104@LoadString@3:
  00183	81 30 ed ec eb
	ea		 xor	 DWORD PTR [eax], -353637139 ; eaebecedH
  00189	83 c0 04	 add	 eax, 4
  0018c	4a		 dec	 edx
  0018d	75 f4		 jne	 SHORT $LL104@LoadString@3

; 163  : 		LoadString(_k, d, b, i);

  0018f	ff 75 14	 push	 DWORD PTR _i$[ebp]
  00192	8b 4d e4	 mov	 ecx, DWORD PTR _this$GSCopy$[ebp]
  00195	57		 push	 edi
  00196	56		 push	 esi
  00197	8d 45 e8	 lea	 eax, DWORD PTR __k$[ebp]
  0019a	50		 push	 eax
  0019b	ff 15 00 00 00
	00		 call	 DWORD PTR __imp_?LoadStringA@ioINILoader@@QAEXPBD0PADH@Z

; 164  : 	}

  001a1	8b 4d fc	 mov	 ecx, DWORD PTR __$ArrayPad$[ebp]
  001a4	5f		 pop	 edi
  001a5	33 cd		 xor	 ecx, ebp
  001a7	5e		 pop	 esi
  001a8	e8 00 00 00 00	 call	 @__security_check_cookie@4
  001ad	c9		 leave
  001ae	c2 10 00	 ret	 16			; 00000010H
??$LoadString_e@$0N@@ioINILoader@@QAEXAAY0N@$$CBDAAY00$$CBDPADH@Z ENDP ; ioINILoader::LoadString_e<13>
_TEXT	ENDS
PUBLIC	??$GetAnimationEventTime_e@$06@ioEntityGroup@@QAEMHAAY06$$CBD@Z ; ioEntityGroup::GetAnimationEventTime_e<7>
EXTRN	__imp_?GetAnimationEventTime@ioEntityGroup@@QAEMHABVioHashString@@@Z:PROC
EXTRN	__imp_??0ioHashString@@QAE@PBD@Z:PROC
EXTRN	__EH_epilog3_GS:PROC
EXTRN	__EH_prolog3_GS:PROC
;	COMDAT xdata$x
; File d:\lost saga for developer\youtube\tutorial\source\src\lsclient\stringprotect.h
xdata$x	SEGMENT
__unwindtable$??$GetAnimationEventTime_e@$06@ioEntityGroup@@QAEMHAAY06$$CBD@Z DD 0ffffffffH
	DD	FLAT:__unwindfunclet$??$GetAnimationEventTime_e@$06@ioEntityGroup@@QAEMHAAY06$$CBD@Z$0
__ehfuncinfo$??$GetAnimationEventTime_e@$06@ioEntityGroup@@QAEMHAAY06$$CBD@Z DD 019930522H
	DD	01H
	DD	FLAT:__unwindtable$??$GetAnimationEventTime_e@$06@ioEntityGroup@@QAEMHAAY06$$CBD@Z
	DD	2 DUP(00H)
	DD	2 DUP(00H)
	DD	00H
	DD	01H
; Function compile flags: /Ogsp
; File d:\lost saga for developer\youtube\tutorial\source\src\io3dengine\ioentitygroup.h
xdata$x	ENDS
;	COMDAT ??$GetAnimationEventTime_e@$06@ioEntityGroup@@QAEMHAAY06$$CBD@Z
_TEXT	SEGMENT
$T557578 = -48						; size = 16
$T557577 = -32						; size = 4
_szEncEventType$ = -28					; size = 7
__$EHRec$ = -12						; size = 12
_id$ = 8						; size = 4
_szEventType$ = 12					; size = 4
??$GetAnimationEventTime_e@$06@ioEntityGroup@@QAEMHAAY06$$CBD@Z PROC ; ioEntityGroup::GetAnimationEventTime_e<7>, COMDAT
; _this$ = ecx

; 414  : 	{

  00000	6a 24		 push	 36			; 00000024H
  00002	b8 00 00 00 00	 mov	 eax, __ehhandler$??$GetAnimationEventTime_e@$06@ioEntityGroup@@QAEMHAAY06$$CBD@Z
  00007	e8 00 00 00 00	 call	 __EH_prolog3_GS
  0000c	8b 45 0c	 mov	 eax, DWORD PTR _szEventType$[ebp]
  0000f	8b f1		 mov	 esi, ecx

; 415  : 		_ENCSTR(szEventType, szEncEventType);

  00011	8a 08		 mov	 cl, BYTE PTR [eax]
  00013	84 c9		 test	 cl, cl
  00015	0f 84 c0 00 00
	00		 je	 $LN96@GetAnimati
  0001b	80 f1 ed	 xor	 cl, -19			; ffffffedH
  0001e	88 4d e4	 mov	 BYTE PTR _szEncEventType$[ebp], cl
  00021	8a 48 01	 mov	 cl, BYTE PTR [eax+1]
  00024	84 c9		 test	 cl, cl
  00026	0f 84 a9 00 00
	00		 je	 $LN95@GetAnimati
  0002c	80 f1 ec	 xor	 cl, -20			; ffffffecH
  0002f	88 4d e5	 mov	 BYTE PTR _szEncEventType$[ebp+1], cl
  00032	8a 48 02	 mov	 cl, BYTE PTR [eax+2]
  00035	84 c9		 test	 cl, cl
  00037	0f 84 92 00 00
	00		 je	 $LN94@GetAnimati
  0003d	80 f1 eb	 xor	 cl, -21			; ffffffebH
  00040	88 4d e6	 mov	 BYTE PTR _szEncEventType$[ebp+2], cl
  00043	8a 48 03	 mov	 cl, BYTE PTR [eax+3]
  00046	84 c9		 test	 cl, cl
  00048	74 7f		 je	 SHORT $LN93@GetAnimati
  0004a	80 f1 ea	 xor	 cl, -22			; ffffffeaH
  0004d	88 4d e7	 mov	 BYTE PTR _szEncEventType$[ebp+3], cl
  00050	8a 48 04	 mov	 cl, BYTE PTR [eax+4]
  00053	84 c9		 test	 cl, cl
  00055	74 6c		 je	 SHORT $LN92@GetAnimati
  00057	80 f1 ed	 xor	 cl, -19			; ffffffedH
  0005a	88 4d e8	 mov	 BYTE PTR _szEncEventType$[ebp+4], cl
  0005d	8a 48 05	 mov	 cl, BYTE PTR [eax+5]
  00060	84 c9		 test	 cl, cl
  00062	74 59		 je	 SHORT $LN91@GetAnimati
  00064	80 f1 ec	 xor	 cl, -20			; ffffffecH
  00067	80 78 06 00	 cmp	 BYTE PTR [eax+6], 0
  0006b	88 4d e9	 mov	 BYTE PTR _szEncEventType$[ebp+5], cl
  0006e	74 6f		 je	 SHORT $LN1@GetAnimati
  00070	8a 48 07	 mov	 cl, BYTE PTR [eax+7]
  00073	84 c9		 test	 cl, cl
  00075	74 40		 je	 SHORT $LN89@GetAnimati
  00077	80 f1 ea	 xor	 cl, -22			; ffffffeaH
  0007a	88 4d eb	 mov	 BYTE PTR _szEncEventType$[ebp+7], cl
  0007d	8a 48 08	 mov	 cl, BYTE PTR [eax+8]
  00080	84 c9		 test	 cl, cl
  00082	74 2d		 je	 SHORT $LN88@GetAnimati
  00084	80 f1 ed	 xor	 cl, -19			; ffffffedH
  00087	88 4d ec	 mov	 BYTE PTR _szEncEventType$[ebp+8], cl
  0008a	8a 48 09	 mov	 cl, BYTE PTR [eax+9]
  0008d	84 c9		 test	 cl, cl
  0008f	74 1a		 je	 SHORT $LN87@GetAnimati
  00091	8a 40 0a	 mov	 al, BYTE PTR [eax+10]
  00094	80 f1 ec	 xor	 cl, -20			; ffffffecH
  00097	88 4d ed	 mov	 BYTE PTR _szEncEventType$[ebp+9], cl
  0009a	84 c0		 test	 al, al
  0009c	74 07		 je	 SHORT $LN86@GetAnimati
  0009e	34 eb		 xor	 al, -21			; ffffffebH
  000a0	88 45 ee	 mov	 BYTE PTR _szEncEventType$[ebp+10], al
  000a3	eb 3a		 jmp	 SHORT $LN1@GetAnimati
$LN86@GetAnimati:
  000a5	c6 45 ee eb	 mov	 BYTE PTR _szEncEventType$[ebp+10], -21 ; ffffffebH
  000a9	eb 34		 jmp	 SHORT $LN1@GetAnimati
$LN87@GetAnimati:
  000ab	c6 45 ed ec	 mov	 BYTE PTR _szEncEventType$[ebp+9], -20 ; ffffffecH
  000af	eb 2e		 jmp	 SHORT $LN1@GetAnimati
$LN88@GetAnimati:
  000b1	c6 45 ec ed	 mov	 BYTE PTR _szEncEventType$[ebp+8], -19 ; ffffffedH
  000b5	eb 28		 jmp	 SHORT $LN1@GetAnimati
$LN89@GetAnimati:
  000b7	c6 45 eb ea	 mov	 BYTE PTR _szEncEventType$[ebp+7], -22 ; ffffffeaH
  000bb	eb 22		 jmp	 SHORT $LN1@GetAnimati
$LN91@GetAnimati:
  000bd	c6 45 e9 ec	 mov	 BYTE PTR _szEncEventType$[ebp+5], -20 ; ffffffecH
  000c1	eb 1c		 jmp	 SHORT $LN1@GetAnimati
$LN92@GetAnimati:
  000c3	c6 45 e8 ed	 mov	 BYTE PTR _szEncEventType$[ebp+4], -19 ; ffffffedH
  000c7	eb 16		 jmp	 SHORT $LN1@GetAnimati
$LN93@GetAnimati:
  000c9	c6 45 e7 ea	 mov	 BYTE PTR _szEncEventType$[ebp+3], -22 ; ffffffeaH
  000cd	eb 10		 jmp	 SHORT $LN1@GetAnimati
$LN94@GetAnimati:
  000cf	c6 45 e6 eb	 mov	 BYTE PTR _szEncEventType$[ebp+2], -21 ; ffffffebH
  000d3	eb 0a		 jmp	 SHORT $LN1@GetAnimati
$LN95@GetAnimati:
  000d5	c6 45 e5 ec	 mov	 BYTE PTR _szEncEventType$[ebp+1], -20 ; ffffffecH
  000d9	eb 04		 jmp	 SHORT $LN1@GetAnimati
$LN96@GetAnimati:
  000db	c6 45 e4 ed	 mov	 BYTE PTR _szEncEventType$[ebp], -19 ; ffffffedH
$LN1@GetAnimati:
  000df	81 75 e4 ed ec
	eb ea		 xor	 DWORD PTR _szEncEventType$[ebp], -353637139 ; eaebecedH
  000e6	6a 04		 push	 4
  000e8	c6 45 ea 00	 mov	 BYTE PTR _szEncEventType$[ebp+6], 0
  000ec	58		 pop	 eax
$LL102@GetAnimati:
  000ed	8b c8		 mov	 ecx, eax
  000ef	81 e1 03 00 00
	80		 and	 ecx, -2147483645	; 80000003H
  000f5	79 05		 jns	 SHORT $LN113@GetAnimati
  000f7	49		 dec	 ecx
  000f8	83 c9 fc	 or	 ecx, -4			; fffffffcH
  000fb	41		 inc	 ecx
$LN113@GetAnimati:
  000fc	b2 ed		 mov	 dl, -19			; ffffffedH
  000fe	2a d1		 sub	 dl, cl
  00100	30 54 05 e4	 xor	 BYTE PTR _szEncEventType$[ebp+eax], dl
  00104	40		 inc	 eax
  00105	83 f8 06	 cmp	 eax, 6
  00108	7c e3		 jl	 SHORT $LL102@GetAnimati

; 416  : 		return GetAnimationEventTime(id, szEncEventType);

  0010a	8d 45 e4	 lea	 eax, DWORD PTR _szEncEventType$[ebp]
  0010d	50		 push	 eax
  0010e	8d 4d d0	 lea	 ecx, DWORD PTR $T557578[ebp]
  00111	ff 15 00 00 00
	00		 call	 DWORD PTR __imp_??0ioHashString@@QAE@PBD@Z
  00117	83 65 fc 00	 and	 DWORD PTR __$EHRec$[ebp+8], 0
  0011b	8d 45 d0	 lea	 eax, DWORD PTR $T557578[ebp]
  0011e	50		 push	 eax
  0011f	ff 75 08	 push	 DWORD PTR _id$[ebp]
  00122	8b ce		 mov	 ecx, esi
  00124	ff 15 00 00 00
	00		 call	 DWORD PTR __imp_?GetAnimationEventTime@ioEntityGroup@@QAEMHABVioHashString@@@Z
  0012a	d9 5d e0	 fstp	 DWORD PTR $T557577[ebp]
  0012d	83 4d fc ff	 or	 DWORD PTR __$EHRec$[ebp+8], -1
  00131	8d 4d d0	 lea	 ecx, DWORD PTR $T557578[ebp]
  00134	ff 15 00 00 00
	00		 call	 DWORD PTR __imp_??1ioHashString@@QAE@XZ
  0013a	d9 45 e0	 fld	 DWORD PTR $T557577[ebp]

; 417  : 	}

  0013d	e8 00 00 00 00	 call	 __EH_epilog3_GS
  00142	c2 08 00	 ret	 8
_TEXT	ENDS
;	COMDAT text$x
text$x	SEGMENT
__unwindfunclet$??$GetAnimationEventTime_e@$06@ioEntityGroup@@QAEMHAAY06$$CBD@Z$0:
  00000	8d 4d d0	 lea	 ecx, DWORD PTR $T557578[ebp]
  00003	ff 25 00 00 00
	00		 jmp	 DWORD PTR __imp_??1ioHashString@@QAE@XZ
__ehhandler$??$GetAnimationEventTime_e@$06@ioEntityGroup@@QAEMHAAY06$$CBD@Z:
  00009	8b 54 24 08	 mov	 edx, DWORD PTR [esp+8]
  0000d	8d 42 0c	 lea	 eax, DWORD PTR [edx+12]
  00010	8b 4a cc	 mov	 ecx, DWORD PTR [edx-52]
  00013	33 c8		 xor	 ecx, eax
  00015	e8 00 00 00 00	 call	 @__security_check_cookie@4
  0001a	8b 4a fc	 mov	 ecx, DWORD PTR [edx-4]
  0001d	33 c8		 xor	 ecx, eax
  0001f	e8 00 00 00 00	 call	 @__security_check_cookie@4
  00024	b8 00 00 00 00	 mov	 eax, OFFSET __ehfuncinfo$??$GetAnimationEventTime_e@$06@ioEntityGroup@@QAEMHAAY06$$CBD@Z
  00029	e9 00 00 00 00	 jmp	 ___CxxFrameHandler3
text$x	ENDS
??$GetAnimationEventTime_e@$06@ioEntityGroup@@QAEMHAAY06$$CBD@Z ENDP ; ioEntityGroup::GetAnimationEventTime_e<7>
PUBLIC	??$GetAnimationEventTime_e@$0L@@ioEntityGroup@@QAEMHAAY0L@$$CBD@Z ; ioEntityGroup::GetAnimationEventTime_e<11>
;	COMDAT xdata$x
; File d:\lost saga for developer\youtube\tutorial\source\src\lsclient\stringprotect.h
xdata$x	SEGMENT
__unwindtable$??$GetAnimationEventTime_e@$0L@@ioEntityGroup@@QAEMHAAY0L@$$CBD@Z DD 0ffffffffH
	DD	FLAT:__unwindfunclet$??$GetAnimationEventTime_e@$0L@@ioEntityGroup@@QAEMHAAY0L@$$CBD@Z$0
__ehfuncinfo$??$GetAnimationEventTime_e@$0L@@ioEntityGroup@@QAEMHAAY0L@$$CBD@Z DD 019930522H
	DD	01H
	DD	FLAT:__unwindtable$??$GetAnimationEventTime_e@$0L@@ioEntityGroup@@QAEMHAAY0L@$$CBD@Z
	DD	2 DUP(00H)
	DD	2 DUP(00H)
	DD	00H
	DD	01H
; Function compile flags: /Ogsp
; File d:\lost saga for developer\youtube\tutorial\source\src\io3dengine\ioentitygroup.h
xdata$x	ENDS
;	COMDAT ??$GetAnimationEventTime_e@$0L@@ioEntityGroup@@QAEMHAAY0L@$$CBD@Z
_TEXT	SEGMENT
$T557611 = -52						; size = 16
$T557610 = -36						; size = 4
_szEncEventType$ = -32					; size = 11
__$EHRec$ = -12						; size = 12
_id$ = 8						; size = 4
_szEventType$ = 12					; size = 4
??$GetAnimationEventTime_e@$0L@@ioEntityGroup@@QAEMHAAY0L@$$CBD@Z PROC ; ioEntityGroup::GetAnimationEventTime_e<11>, COMDAT
; _this$ = ecx

; 414  : 	{

  00000	6a 28		 push	 40			; 00000028H
  00002	b8 00 00 00 00	 mov	 eax, __ehhandler$??$GetAnimationEventTime_e@$0L@@ioEntityGroup@@QAEMHAAY0L@$$CBD@Z
  00007	e8 00 00 00 00	 call	 __EH_prolog3_GS
  0000c	8b 45 0c	 mov	 eax, DWORD PTR _szEventType$[ebp]
  0000f	8b f1		 mov	 esi, ecx

; 415  : 		_ENCSTR(szEventType, szEncEventType);

  00011	8a 08		 mov	 cl, BYTE PTR [eax]
  00013	84 c9		 test	 cl, cl
  00015	0f 84 1b 01 00
	00		 je	 $LN96@GetAnimati@2
  0001b	b2 ed		 mov	 dl, -19			; ffffffedH
  0001d	32 ca		 xor	 cl, dl
  0001f	88 4d e0	 mov	 BYTE PTR _szEncEventType$[ebp], cl
  00022	8a 48 01	 mov	 cl, BYTE PTR [eax+1]
  00025	84 c9		 test	 cl, cl
  00027	0f 84 03 01 00
	00		 je	 $LN95@GetAnimati@2
  0002d	80 f1 ec	 xor	 cl, -20			; ffffffecH
  00030	88 4d e1	 mov	 BYTE PTR _szEncEventType$[ebp+1], cl
  00033	8a 48 02	 mov	 cl, BYTE PTR [eax+2]
  00036	84 c9		 test	 cl, cl
  00038	0f 84 ec 00 00
	00		 je	 $LN94@GetAnimati@2
  0003e	80 f1 eb	 xor	 cl, -21			; ffffffebH
  00041	88 4d e2	 mov	 BYTE PTR _szEncEventType$[ebp+2], cl
  00044	8a 48 03	 mov	 cl, BYTE PTR [eax+3]
  00047	84 c9		 test	 cl, cl
  00049	0f 84 d5 00 00
	00		 je	 $LN93@GetAnimati@2
  0004f	80 f1 ea	 xor	 cl, -22			; ffffffeaH
  00052	88 4d e3	 mov	 BYTE PTR _szEncEventType$[ebp+3], cl
  00055	8a 48 04	 mov	 cl, BYTE PTR [eax+4]
  00058	84 c9		 test	 cl, cl
  0005a	0f 84 bf 00 00
	00		 je	 $LN92@GetAnimati@2
  00060	32 ca		 xor	 cl, dl
  00062	88 4d e4	 mov	 BYTE PTR _szEncEventType$[ebp+4], cl
  00065	8a 48 05	 mov	 cl, BYTE PTR [eax+5]
  00068	84 c9		 test	 cl, cl
  0006a	0f 84 a9 00 00
	00		 je	 $LN91@GetAnimati@2
  00070	80 f1 ec	 xor	 cl, -20			; ffffffecH
  00073	88 4d e5	 mov	 BYTE PTR _szEncEventType$[ebp+5], cl
  00076	8a 48 06	 mov	 cl, BYTE PTR [eax+6]
  00079	84 c9		 test	 cl, cl
  0007b	0f 84 92 00 00
	00		 je	 $LN90@GetAnimati@2
  00081	80 f1 eb	 xor	 cl, -21			; ffffffebH
  00084	88 4d e6	 mov	 BYTE PTR _szEncEventType$[ebp+6], cl
  00087	8a 48 07	 mov	 cl, BYTE PTR [eax+7]
  0008a	84 c9		 test	 cl, cl
  0008c	74 7f		 je	 SHORT $LN89@GetAnimati@2
  0008e	80 f1 ea	 xor	 cl, -22			; ffffffeaH
  00091	88 4d e7	 mov	 BYTE PTR _szEncEventType$[ebp+7], cl
  00094	8a 48 08	 mov	 cl, BYTE PTR [eax+8]
  00097	84 c9		 test	 cl, cl
  00099	74 6d		 je	 SHORT $LN88@GetAnimati@2
  0009b	32 ca		 xor	 cl, dl
  0009d	88 4d e8	 mov	 BYTE PTR _szEncEventType$[ebp+8], cl
  000a0	8a 48 09	 mov	 cl, BYTE PTR [eax+9]
  000a3	84 c9		 test	 cl, cl
  000a5	74 5b		 je	 SHORT $LN87@GetAnimati@2
  000a7	80 f1 ec	 xor	 cl, -20			; ffffffecH
  000aa	80 78 0a 00	 cmp	 BYTE PTR [eax+10], 0
  000ae	88 4d e9	 mov	 BYTE PTR _szEncEventType$[ebp+9], cl
  000b1	0f 84 83 00 00
	00		 je	 $LN1@GetAnimati@2
  000b7	8a 48 0b	 mov	 cl, BYTE PTR [eax+11]
  000ba	84 c9		 test	 cl, cl
  000bc	74 3e		 je	 SHORT $LN85@GetAnimati@2
  000be	80 f1 ea	 xor	 cl, -22			; ffffffeaH
  000c1	88 4d eb	 mov	 BYTE PTR _szEncEventType$[ebp+11], cl
  000c4	8a 48 0c	 mov	 cl, BYTE PTR [eax+12]
  000c7	84 c9		 test	 cl, cl
  000c9	74 2c		 je	 SHORT $LN84@GetAnimati@2
  000cb	32 ca		 xor	 cl, dl
  000cd	88 4d ec	 mov	 BYTE PTR _szEncEventType$[ebp+12], cl
  000d0	8a 48 0d	 mov	 cl, BYTE PTR [eax+13]
  000d3	84 c9		 test	 cl, cl
  000d5	74 1a		 je	 SHORT $LN83@GetAnimati@2
  000d7	8a 40 0e	 mov	 al, BYTE PTR [eax+14]
  000da	80 f1 ec	 xor	 cl, -20			; ffffffecH
  000dd	88 4d ed	 mov	 BYTE PTR _szEncEventType$[ebp+13], cl
  000e0	84 c0		 test	 al, al
  000e2	74 07		 je	 SHORT $LN82@GetAnimati@2
  000e4	34 eb		 xor	 al, -21			; ffffffebH
  000e6	88 45 ee	 mov	 BYTE PTR _szEncEventType$[ebp+14], al
  000e9	eb 4f		 jmp	 SHORT $LN1@GetAnimati@2
$LN82@GetAnimati@2:
  000eb	c6 45 ee eb	 mov	 BYTE PTR _szEncEventType$[ebp+14], -21 ; ffffffebH
  000ef	eb 49		 jmp	 SHORT $LN1@GetAnimati@2
$LN83@GetAnimati@2:
  000f1	c6 45 ed ec	 mov	 BYTE PTR _szEncEventType$[ebp+13], -20 ; ffffffecH
  000f5	eb 43		 jmp	 SHORT $LN1@GetAnimati@2
$LN84@GetAnimati@2:
  000f7	88 55 ec	 mov	 BYTE PTR _szEncEventType$[ebp+12], dl
  000fa	eb 3e		 jmp	 SHORT $LN1@GetAnimati@2
$LN85@GetAnimati@2:
  000fc	c6 45 eb ea	 mov	 BYTE PTR _szEncEventType$[ebp+11], -22 ; ffffffeaH
  00100	eb 38		 jmp	 SHORT $LN1@GetAnimati@2
$LN87@GetAnimati@2:
  00102	c6 45 e9 ec	 mov	 BYTE PTR _szEncEventType$[ebp+9], -20 ; ffffffecH
  00106	eb 32		 jmp	 SHORT $LN1@GetAnimati@2
$LN88@GetAnimati@2:
  00108	88 55 e8	 mov	 BYTE PTR _szEncEventType$[ebp+8], dl
  0010b	eb 2d		 jmp	 SHORT $LN1@GetAnimati@2
$LN89@GetAnimati@2:
  0010d	c6 45 e7 ea	 mov	 BYTE PTR _szEncEventType$[ebp+7], -22 ; ffffffeaH
  00111	eb 27		 jmp	 SHORT $LN1@GetAnimati@2
$LN90@GetAnimati@2:
  00113	c6 45 e6 eb	 mov	 BYTE PTR _szEncEventType$[ebp+6], -21 ; ffffffebH
  00117	eb 21		 jmp	 SHORT $LN1@GetAnimati@2
$LN91@GetAnimati@2:
  00119	c6 45 e5 ec	 mov	 BYTE PTR _szEncEventType$[ebp+5], -20 ; ffffffecH
  0011d	eb 1b		 jmp	 SHORT $LN1@GetAnimati@2
$LN92@GetAnimati@2:
  0011f	88 55 e4	 mov	 BYTE PTR _szEncEventType$[ebp+4], dl
  00122	eb 16		 jmp	 SHORT $LN1@GetAnimati@2
$LN93@GetAnimati@2:
  00124	c6 45 e3 ea	 mov	 BYTE PTR _szEncEventType$[ebp+3], -22 ; ffffffeaH
  00128	eb 10		 jmp	 SHORT $LN1@GetAnimati@2
$LN94@GetAnimati@2:
  0012a	c6 45 e2 eb	 mov	 BYTE PTR _szEncEventType$[ebp+2], -21 ; ffffffebH
  0012e	eb 0a		 jmp	 SHORT $LN1@GetAnimati@2
$LN95@GetAnimati@2:
  00130	c6 45 e1 ec	 mov	 BYTE PTR _szEncEventType$[ebp+1], -20 ; ffffffecH
  00134	eb 04		 jmp	 SHORT $LN1@GetAnimati@2
$LN96@GetAnimati@2:
  00136	c6 45 e0 ed	 mov	 BYTE PTR _szEncEventType$[ebp], -19 ; ffffffedH
$LN1@GetAnimati@2:
  0013a	6a 02		 push	 2
  0013c	8d 45 e0	 lea	 eax, DWORD PTR _szEncEventType$[ebp]
  0013f	c6 45 ea 00	 mov	 BYTE PTR _szEncEventType$[ebp+10], 0
  00143	59		 pop	 ecx
$LL105@GetAnimati@2:
  00144	81 30 ed ec eb
	ea		 xor	 DWORD PTR [eax], -353637139 ; eaebecedH
  0014a	83 c0 04	 add	 eax, 4
  0014d	49		 dec	 ecx
  0014e	75 f4		 jne	 SHORT $LL105@GetAnimati@2
  00150	6a 08		 push	 8
  00152	58		 pop	 eax
$LL102@GetAnimati@2:
  00153	8b c8		 mov	 ecx, eax
  00155	81 e1 03 00 00
	80		 and	 ecx, -2147483645	; 80000003H
  0015b	79 05		 jns	 SHORT $LN113@GetAnimati@2
  0015d	49		 dec	 ecx
  0015e	83 c9 fc	 or	 ecx, -4			; fffffffcH
  00161	41		 inc	 ecx
$LN113@GetAnimati@2:
  00162	b2 ed		 mov	 dl, -19			; ffffffedH
  00164	2a d1		 sub	 dl, cl
  00166	30 54 05 e0	 xor	 BYTE PTR _szEncEventType$[ebp+eax], dl
  0016a	40		 inc	 eax
  0016b	83 f8 0a	 cmp	 eax, 10			; 0000000aH
  0016e	7c e3		 jl	 SHORT $LL102@GetAnimati@2

; 416  : 		return GetAnimationEventTime(id, szEncEventType);

  00170	8d 45 e0	 lea	 eax, DWORD PTR _szEncEventType$[ebp]
  00173	50		 push	 eax
  00174	8d 4d cc	 lea	 ecx, DWORD PTR $T557611[ebp]
  00177	ff 15 00 00 00
	00		 call	 DWORD PTR __imp_??0ioHashString@@QAE@PBD@Z
  0017d	83 65 fc 00	 and	 DWORD PTR __$EHRec$[ebp+8], 0
  00181	8d 45 cc	 lea	 eax, DWORD PTR $T557611[ebp]
  00184	50		 push	 eax
  00185	ff 75 08	 push	 DWORD PTR _id$[ebp]
  00188	8b ce		 mov	 ecx, esi
  0018a	ff 15 00 00 00
	00		 call	 DWORD PTR __imp_?GetAnimationEventTime@ioEntityGroup@@QAEMHABVioHashString@@@Z
  00190	d9 5d dc	 fstp	 DWORD PTR $T557610[ebp]
  00193	83 4d fc ff	 or	 DWORD PTR __$EHRec$[ebp+8], -1
  00197	8d 4d cc	 lea	 ecx, DWORD PTR $T557611[ebp]
  0019a	ff 15 00 00 00
	00		 call	 DWORD PTR __imp_??1ioHashString@@QAE@XZ
  001a0	d9 45 dc	 fld	 DWORD PTR $T557610[ebp]

; 417  : 	}

  001a3	e8 00 00 00 00	 call	 __EH_epilog3_GS
  001a8	c2 08 00	 ret	 8
_TEXT	ENDS
;	COMDAT text$x
text$x	SEGMENT
__unwindfunclet$??$GetAnimationEventTime_e@$0L@@ioEntityGroup@@QAEMHAAY0L@$$CBD@Z$0:
  00000	8d 4d cc	 lea	 ecx, DWORD PTR $T557611[ebp]
  00003	ff 25 00 00 00
	00		 jmp	 DWORD PTR __imp_??1ioHashString@@QAE@XZ
__ehhandler$??$GetAnimationEventTime_e@$0L@@ioEntityGroup@@QAEMHAAY0L@$$CBD@Z:
  00009	8b 54 24 08	 mov	 edx, DWORD PTR [esp+8]
  0000d	8d 42 0c	 lea	 eax, DWORD PTR [edx+12]
  00010	8b 4a c8	 mov	 ecx, DWORD PTR [edx-56]
  00013	33 c8		 xor	 ecx, eax
  00015	e8 00 00 00 00	 call	 @__security_check_cookie@4
  0001a	8b 4a fc	 mov	 ecx, DWORD PTR [edx-4]
  0001d	33 c8		 xor	 ecx, eax
  0001f	e8 00 00 00 00	 call	 @__security_check_cookie@4
  00024	b8 00 00 00 00	 mov	 eax, OFFSET __ehfuncinfo$??$GetAnimationEventTime_e@$0L@@ioEntityGroup@@QAEMHAAY0L@$$CBD@Z
  00029	e9 00 00 00 00	 jmp	 ___CxxFrameHandler3
text$x	ENDS
??$GetAnimationEventTime_e@$0L@@ioEntityGroup@@QAEMHAAY0L@$$CBD@Z ENDP ; ioEntityGroup::GetAnimationEventTime_e<11>
PUBLIC	??$GetAnimationEventConstPtrList_e@$0L@@ioEntityGroup@@QAEHHAAY0L@$$CBDAAV?$vector@PBUAniEventTime@@V?$allocator@PBUAniEventTime@@@std@@@std@@@Z ; ioEntityGroup::GetAnimationEventConstPtrList_e<11>
EXTRN	__imp_?GetAnimationEventConstPtrList@ioEntityGroup@@QAEHHABVioHashString@@AAV?$vector@PBUAniEventTime@@V?$allocator@PBUAniEventTime@@@std@@@std@@@Z:PROC
;	COMDAT xdata$x
; File d:\lost saga for developer\youtube\tutorial\source\src\lsclient\stringprotect.h
xdata$x	SEGMENT
__unwindtable$??$GetAnimationEventConstPtrList_e@$0L@@ioEntityGroup@@QAEHHAAY0L@$$CBDAAV?$vector@PBUAniEventTime@@V?$allocator@PBUAniEventTime@@@std@@@std@@@Z DD 0ffffffffH
	DD	FLAT:__unwindfunclet$??$GetAnimationEventConstPtrList_e@$0L@@ioEntityGroup@@QAEHHAAY0L@$$CBDAAV?$vector@PBUAniEventTime@@V?$allocator@PBUAniEventTime@@@std@@@std@@@Z$0
__ehfuncinfo$??$GetAnimationEventConstPtrList_e@$0L@@ioEntityGroup@@QAEHHAAY0L@$$CBDAAV?$vector@PBUAniEventTime@@V?$allocator@PBUAniEventTime@@@std@@@std@@@Z DD 019930522H
	DD	01H
	DD	FLAT:__unwindtable$??$GetAnimationEventConstPtrList_e@$0L@@ioEntityGroup@@QAEHHAAY0L@$$CBDAAV?$vector@PBUAniEventTime@@V?$allocator@PBUAniEventTime@@@std@@@std@@@Z
	DD	2 DUP(00H)
	DD	2 DUP(00H)
	DD	00H
	DD	01H
; Function compile flags: /Ogsp
; File d:\lost saga for developer\youtube\tutorial\source\src\io3dengine\ioentitygroup.h
xdata$x	ENDS
;	COMDAT ??$GetAnimationEventConstPtrList_e@$0L@@ioEntityGroup@@QAEHHAAY0L@$$CBDAAV?$vector@PBUAniEventTime@@V?$allocator@PBUAniEventTime@@@std@@@std@@@Z
_TEXT	SEGMENT
$T557642 = -48						; size = 16
_szEncEventType$ = -32					; size = 11
__$EHRec$ = -12						; size = 12
_id$ = 8						; size = 4
_szEventType$ = 12					; size = 4
_vEventList$ = 16					; size = 4
??$GetAnimationEventConstPtrList_e@$0L@@ioEntityGroup@@QAEHHAAY0L@$$CBDAAV?$vector@PBUAniEventTime@@V?$allocator@PBUAniEventTime@@@std@@@std@@@Z PROC ; ioEntityGroup::GetAnimationEventConstPtrList_e<11>, COMDAT
; _this$ = ecx

; 423  : 	{

  00000	6a 24		 push	 36			; 00000024H
  00002	b8 00 00 00 00	 mov	 eax, __ehhandler$??$GetAnimationEventConstPtrList_e@$0L@@ioEntityGroup@@QAEHHAAY0L@$$CBDAAV?$vector@PBUAniEventTime@@V?$allocator@PBUAniEventTime@@@std@@@std@@@Z
  00007	e8 00 00 00 00	 call	 __EH_prolog3_GS
  0000c	8b 45 0c	 mov	 eax, DWORD PTR _szEventType$[ebp]
  0000f	8b 75 10	 mov	 esi, DWORD PTR _vEventList$[ebp]
  00012	8b f9		 mov	 edi, ecx

; 424  : 		_ENCSTR(szEventType, szEncEventType);

  00014	8a 08		 mov	 cl, BYTE PTR [eax]
  00016	84 c9		 test	 cl, cl
  00018	0f 84 1b 01 00
	00		 je	 $LN96@GetAnimati@3
  0001e	b2 ed		 mov	 dl, -19			; ffffffedH
  00020	32 ca		 xor	 cl, dl
  00022	88 4d e0	 mov	 BYTE PTR _szEncEventType$[ebp], cl
  00025	8a 48 01	 mov	 cl, BYTE PTR [eax+1]
  00028	84 c9		 test	 cl, cl
  0002a	0f 84 03 01 00
	00		 je	 $LN95@GetAnimati@3
  00030	80 f1 ec	 xor	 cl, -20			; ffffffecH
  00033	88 4d e1	 mov	 BYTE PTR _szEncEventType$[ebp+1], cl
  00036	8a 48 02	 mov	 cl, BYTE PTR [eax+2]
  00039	84 c9		 test	 cl, cl
  0003b	0f 84 ec 00 00
	00		 je	 $LN94@GetAnimati@3
  00041	80 f1 eb	 xor	 cl, -21			; ffffffebH
  00044	88 4d e2	 mov	 BYTE PTR _szEncEventType$[ebp+2], cl
  00047	8a 48 03	 mov	 cl, BYTE PTR [eax+3]
  0004a	84 c9		 test	 cl, cl
  0004c	0f 84 d5 00 00
	00		 je	 $LN93@GetAnimati@3
  00052	80 f1 ea	 xor	 cl, -22			; ffffffeaH
  00055	88 4d e3	 mov	 BYTE PTR _szEncEventType$[ebp+3], cl
  00058	8a 48 04	 mov	 cl, BYTE PTR [eax+4]
  0005b	84 c9		 test	 cl, cl
  0005d	0f 84 bf 00 00
	00		 je	 $LN92@GetAnimati@3
  00063	32 ca		 xor	 cl, dl
  00065	88 4d e4	 mov	 BYTE PTR _szEncEventType$[ebp+4], cl
  00068	8a 48 05	 mov	 cl, BYTE PTR [eax+5]
  0006b	84 c9		 test	 cl, cl
  0006d	0f 84 a9 00 00
	00		 je	 $LN91@GetAnimati@3
  00073	80 f1 ec	 xor	 cl, -20			; ffffffecH
  00076	88 4d e5	 mov	 BYTE PTR _szEncEventType$[ebp+5], cl
  00079	8a 48 06	 mov	 cl, BYTE PTR [eax+6]
  0007c	84 c9		 test	 cl, cl
  0007e	0f 84 92 00 00
	00		 je	 $LN90@GetAnimati@3
  00084	80 f1 eb	 xor	 cl, -21			; ffffffebH
  00087	88 4d e6	 mov	 BYTE PTR _szEncEventType$[ebp+6], cl
  0008a	8a 48 07	 mov	 cl, BYTE PTR [eax+7]
  0008d	84 c9		 test	 cl, cl
  0008f	74 7f		 je	 SHORT $LN89@GetAnimati@3
  00091	80 f1 ea	 xor	 cl, -22			; ffffffeaH
  00094	88 4d e7	 mov	 BYTE PTR _szEncEventType$[ebp+7], cl
  00097	8a 48 08	 mov	 cl, BYTE PTR [eax+8]
  0009a	84 c9		 test	 cl, cl
  0009c	74 6d		 je	 SHORT $LN88@GetAnimati@3
  0009e	32 ca		 xor	 cl, dl
  000a0	88 4d e8	 mov	 BYTE PTR _szEncEventType$[ebp+8], cl
  000a3	8a 48 09	 mov	 cl, BYTE PTR [eax+9]
  000a6	84 c9		 test	 cl, cl
  000a8	74 5b		 je	 SHORT $LN87@GetAnimati@3
  000aa	80 f1 ec	 xor	 cl, -20			; ffffffecH
  000ad	80 78 0a 00	 cmp	 BYTE PTR [eax+10], 0
  000b1	88 4d e9	 mov	 BYTE PTR _szEncEventType$[ebp+9], cl
  000b4	0f 84 83 00 00
	00		 je	 $LN1@GetAnimati@3
  000ba	8a 48 0b	 mov	 cl, BYTE PTR [eax+11]
  000bd	84 c9		 test	 cl, cl
  000bf	74 3e		 je	 SHORT $LN85@GetAnimati@3
  000c1	80 f1 ea	 xor	 cl, -22			; ffffffeaH
  000c4	88 4d eb	 mov	 BYTE PTR _szEncEventType$[ebp+11], cl
  000c7	8a 48 0c	 mov	 cl, BYTE PTR [eax+12]
  000ca	84 c9		 test	 cl, cl
  000cc	74 2c		 je	 SHORT $LN84@GetAnimati@3
  000ce	32 ca		 xor	 cl, dl
  000d0	88 4d ec	 mov	 BYTE PTR _szEncEventType$[ebp+12], cl
  000d3	8a 48 0d	 mov	 cl, BYTE PTR [eax+13]
  000d6	84 c9		 test	 cl, cl
  000d8	74 1a		 je	 SHORT $LN83@GetAnimati@3
  000da	8a 40 0e	 mov	 al, BYTE PTR [eax+14]
  000dd	80 f1 ec	 xor	 cl, -20			; ffffffecH
  000e0	88 4d ed	 mov	 BYTE PTR _szEncEventType$[ebp+13], cl
  000e3	84 c0		 test	 al, al
  000e5	74 07		 je	 SHORT $LN82@GetAnimati@3
  000e7	34 eb		 xor	 al, -21			; ffffffebH
  000e9	88 45 ee	 mov	 BYTE PTR _szEncEventType$[ebp+14], al
  000ec	eb 4f		 jmp	 SHORT $LN1@GetAnimati@3
$LN82@GetAnimati@3:
  000ee	c6 45 ee eb	 mov	 BYTE PTR _szEncEventType$[ebp+14], -21 ; ffffffebH
  000f2	eb 49		 jmp	 SHORT $LN1@GetAnimati@3
$LN83@GetAnimati@3:
  000f4	c6 45 ed ec	 mov	 BYTE PTR _szEncEventType$[ebp+13], -20 ; ffffffecH
  000f8	eb 43		 jmp	 SHORT $LN1@GetAnimati@3
$LN84@GetAnimati@3:
  000fa	88 55 ec	 mov	 BYTE PTR _szEncEventType$[ebp+12], dl
  000fd	eb 3e		 jmp	 SHORT $LN1@GetAnimati@3
$LN85@GetAnimati@3:
  000ff	c6 45 eb ea	 mov	 BYTE PTR _szEncEventType$[ebp+11], -22 ; ffffffeaH
  00103	eb 38		 jmp	 SHORT $LN1@GetAnimati@3
$LN87@GetAnimati@3:
  00105	c6 45 e9 ec	 mov	 BYTE PTR _szEncEventType$[ebp+9], -20 ; ffffffecH
  00109	eb 32		 jmp	 SHORT $LN1@GetAnimati@3
$LN88@GetAnimati@3:
  0010b	88 55 e8	 mov	 BYTE PTR _szEncEventType$[ebp+8], dl
  0010e	eb 2d		 jmp	 SHORT $LN1@GetAnimati@3
$LN89@GetAnimati@3:
  00110	c6 45 e7 ea	 mov	 BYTE PTR _szEncEventType$[ebp+7], -22 ; ffffffeaH
  00114	eb 27		 jmp	 SHORT $LN1@GetAnimati@3
$LN90@GetAnimati@3:
  00116	c6 45 e6 eb	 mov	 BYTE PTR _szEncEventType$[ebp+6], -21 ; ffffffebH
  0011a	eb 21		 jmp	 SHORT $LN1@GetAnimati@3
$LN91@GetAnimati@3:
  0011c	c6 45 e5 ec	 mov	 BYTE PTR _szEncEventType$[ebp+5], -20 ; ffffffecH
  00120	eb 1b		 jmp	 SHORT $LN1@GetAnimati@3
$LN92@GetAnimati@3:
  00122	88 55 e4	 mov	 BYTE PTR _szEncEventType$[ebp+4], dl
  00125	eb 16		 jmp	 SHORT $LN1@GetAnimati@3
$LN93@GetAnimati@3:
  00127	c6 45 e3 ea	 mov	 BYTE PTR _szEncEventType$[ebp+3], -22 ; ffffffeaH
  0012b	eb 10		 jmp	 SHORT $LN1@GetAnimati@3
$LN94@GetAnimati@3:
  0012d	c6 45 e2 eb	 mov	 BYTE PTR _szEncEventType$[ebp+2], -21 ; ffffffebH
  00131	eb 0a		 jmp	 SHORT $LN1@GetAnimati@3
$LN95@GetAnimati@3:
  00133	c6 45 e1 ec	 mov	 BYTE PTR _szEncEventType$[ebp+1], -20 ; ffffffecH
  00137	eb 04		 jmp	 SHORT $LN1@GetAnimati@3
$LN96@GetAnimati@3:
  00139	c6 45 e0 ed	 mov	 BYTE PTR _szEncEventType$[ebp], -19 ; ffffffedH
$LN1@GetAnimati@3:
  0013d	6a 02		 push	 2
  0013f	8d 45 e0	 lea	 eax, DWORD PTR _szEncEventType$[ebp]
  00142	c6 45 ea 00	 mov	 BYTE PTR _szEncEventType$[ebp+10], 0
  00146	59		 pop	 ecx
$LL105@GetAnimati@3:
  00147	81 30 ed ec eb
	ea		 xor	 DWORD PTR [eax], -353637139 ; eaebecedH
  0014d	83 c0 04	 add	 eax, 4
  00150	49		 dec	 ecx
  00151	75 f4		 jne	 SHORT $LL105@GetAnimati@3
  00153	6a 08		 push	 8
  00155	58		 pop	 eax
$LL102@GetAnimati@3:
  00156	8b c8		 mov	 ecx, eax
  00158	81 e1 03 00 00
	80		 and	 ecx, -2147483645	; 80000003H
  0015e	79 05		 jns	 SHORT $LN113@GetAnimati@3
  00160	49		 dec	 ecx
  00161	83 c9 fc	 or	 ecx, -4			; fffffffcH
  00164	41		 inc	 ecx
$LN113@GetAnimati@3:
  00165	b2 ed		 mov	 dl, -19			; ffffffedH
  00167	2a d1		 sub	 dl, cl
  00169	30 54 05 e0	 xor	 BYTE PTR _szEncEventType$[ebp+eax], dl
  0016d	40		 inc	 eax
  0016e	83 f8 0a	 cmp	 eax, 10			; 0000000aH
  00171	7c e3		 jl	 SHORT $LL102@GetAnimati@3

; 425  : 		return GetAnimationEventConstPtrList(id, szEncEventType, vEventList);

  00173	8d 45 e0	 lea	 eax, DWORD PTR _szEncEventType$[ebp]
  00176	50		 push	 eax
  00177	8d 4d d0	 lea	 ecx, DWORD PTR $T557642[ebp]
  0017a	ff 15 00 00 00
	00		 call	 DWORD PTR __imp_??0ioHashString@@QAE@PBD@Z
  00180	83 65 fc 00	 and	 DWORD PTR __$EHRec$[ebp+8], 0
  00184	56		 push	 esi
  00185	8d 45 d0	 lea	 eax, DWORD PTR $T557642[ebp]
  00188	50		 push	 eax
  00189	ff 75 08	 push	 DWORD PTR _id$[ebp]
  0018c	8b cf		 mov	 ecx, edi
  0018e	ff 15 00 00 00
	00		 call	 DWORD PTR __imp_?GetAnimationEventConstPtrList@ioEntityGroup@@QAEHHABVioHashString@@AAV?$vector@PBUAniEventTime@@V?$allocator@PBUAniEventTime@@@std@@@std@@@Z
  00194	83 4d fc ff	 or	 DWORD PTR __$EHRec$[ebp+8], -1
  00198	8d 4d d0	 lea	 ecx, DWORD PTR $T557642[ebp]
  0019b	8b f0		 mov	 esi, eax
  0019d	ff 15 00 00 00
	00		 call	 DWORD PTR __imp_??1ioHashString@@QAE@XZ
  001a3	8b c6		 mov	 eax, esi

; 426  : 	}

  001a5	e8 00 00 00 00	 call	 __EH_epilog3_GS
  001aa	c2 0c 00	 ret	 12			; 0000000cH
_TEXT	ENDS
;	COMDAT text$x
text$x	SEGMENT
__unwindfunclet$??$GetAnimationEventConstPtrList_e@$0L@@ioEntityGroup@@QAEHHAAY0L@$$CBDAAV?$vector@PBUAniEventTime@@V?$allocator@PBUAniEventTime@@@std@@@std@@@Z$0:
  00000	8d 4d d0	 lea	 ecx, DWORD PTR $T557642[ebp]
  00003	ff 25 00 00 00
	00		 jmp	 DWORD PTR __imp_??1ioHashString@@QAE@XZ
__ehhandler$??$GetAnimationEventConstPtrList_e@$0L@@ioEntityGroup@@QAEHHAAY0L@$$CBDAAV?$vector@PBUAniEventTime@@V?$allocator@PBUAniEventTime@@@std@@@std@@@Z:
  00009	8b 54 24 08	 mov	 edx, DWORD PTR [esp+8]
  0000d	8d 42 0c	 lea	 eax, DWORD PTR [edx+12]
  00010	8b 4a cc	 mov	 ecx, DWORD PTR [edx-52]
  00013	33 c8		 xor	 ecx, eax
  00015	e8 00 00 00 00	 call	 @__security_check_cookie@4
  0001a	8b 4a fc	 mov	 ecx, DWORD PTR [edx-4]
  0001d	33 c8		 xor	 ecx, eax
  0001f	e8 00 00 00 00	 call	 @__security_check_cookie@4
  00024	b8 00 00 00 00	 mov	 eax, OFFSET __ehfuncinfo$??$GetAnimationEventConstPtrList_e@$0L@@ioEntityGroup@@QAEHHAAY0L@$$CBDAAV?$vector@PBUAniEventTime@@V?$allocator@PBUAniEventTime@@@std@@@std@@@Z
  00029	e9 00 00 00 00	 jmp	 ___CxxFrameHandler3
text$x	ENDS
??$GetAnimationEventConstPtrList_e@$0L@@ioEntityGroup@@QAEHHAAY0L@$$CBDAAV?$vector@PBUAniEventTime@@V?$allocator@PBUAniEventTime@@@std@@@std@@@Z ENDP ; ioEntityGroup::GetAnimationEventConstPtrList_e<11>
PUBLIC	??$GetAnimationEventTime_e@$0N@@ioEntityGroup@@QAEMHAAY0N@$$CBD@Z ; ioEntityGroup::GetAnimationEventTime_e<13>
;	COMDAT xdata$x
; File d:\lost saga for developer\youtube\tutorial\source\src\lsclient\stringprotect.h
xdata$x	SEGMENT
__unwindtable$??$GetAnimationEventTime_e@$0N@@ioEntityGroup@@QAEMHAAY0N@$$CBD@Z DD 0ffffffffH
	DD	FLAT:__unwindfunclet$??$GetAnimationEventTime_e@$0N@@ioEntityGroup@@QAEMHAAY0N@$$CBD@Z$0
__ehfuncinfo$??$GetAnimationEventTime_e@$0N@@ioEntityGroup@@QAEMHAAY0N@$$CBD@Z DD 019930522H
	DD	01H
	DD	FLAT:__unwindtable$??$GetAnimationEventTime_e@$0N@@ioEntityGroup@@QAEMHAAY0N@$$CBD@Z
	DD	2 DUP(00H)
	DD	2 DUP(00H)
	DD	00H
	DD	01H
; Function compile flags: /Ogsp
; File d:\lost saga for developer\youtube\tutorial\source\src\io3dengine\ioentitygroup.h
xdata$x	ENDS
;	COMDAT ??$GetAnimationEventTime_e@$0N@@ioEntityGroup@@QAEMHAAY0N@$$CBD@Z
_TEXT	SEGMENT
$T557674 = -56						; size = 16
$T557673 = -40						; size = 4
_szEncEventType$ = -36					; size = 13
__$EHRec$ = -12						; size = 12
_id$ = 8						; size = 4
_szEventType$ = 12					; size = 4
??$GetAnimationEventTime_e@$0N@@ioEntityGroup@@QAEMHAAY0N@$$CBD@Z PROC ; ioEntityGroup::GetAnimationEventTime_e<13>, COMDAT
; _this$ = ecx

; 414  : 	{

  00000	6a 2c		 push	 44			; 0000002cH
  00002	b8 00 00 00 00	 mov	 eax, __ehhandler$??$GetAnimationEventTime_e@$0N@@ioEntityGroup@@QAEMHAAY0N@$$CBD@Z
  00007	e8 00 00 00 00	 call	 __EH_prolog3_GS
  0000c	8b 45 0c	 mov	 eax, DWORD PTR _szEventType$[ebp]
  0000f	8b f1		 mov	 esi, ecx

; 415  : 		_ENCSTR(szEventType, szEncEventType);

  00011	8a 08		 mov	 cl, BYTE PTR [eax]
  00013	84 c9		 test	 cl, cl
  00015	0f 84 49 01 00
	00		 je	 $LN96@GetAnimati@4
  0001b	80 f1 ed	 xor	 cl, -19			; ffffffedH
  0001e	88 4d dc	 mov	 BYTE PTR _szEncEventType$[ebp], cl
  00021	8a 48 01	 mov	 cl, BYTE PTR [eax+1]
  00024	84 c9		 test	 cl, cl
  00026	0f 84 32 01 00
	00		 je	 $LN95@GetAnimati@4
  0002c	80 f1 ec	 xor	 cl, -20			; ffffffecH
  0002f	88 4d dd	 mov	 BYTE PTR _szEncEventType$[ebp+1], cl
  00032	8a 48 02	 mov	 cl, BYTE PTR [eax+2]
  00035	84 c9		 test	 cl, cl
  00037	0f 84 1b 01 00
	00		 je	 $LN94@GetAnimati@4
  0003d	b2 eb		 mov	 dl, -21			; ffffffebH
  0003f	32 ca		 xor	 cl, dl
  00041	88 4d de	 mov	 BYTE PTR _szEncEventType$[ebp+2], cl
  00044	8a 48 03	 mov	 cl, BYTE PTR [eax+3]
  00047	84 c9		 test	 cl, cl
  00049	0f 84 03 01 00
	00		 je	 $LN93@GetAnimati@4
  0004f	80 f1 ea	 xor	 cl, -22			; ffffffeaH
  00052	88 4d df	 mov	 BYTE PTR _szEncEventType$[ebp+3], cl
  00055	8a 48 04	 mov	 cl, BYTE PTR [eax+4]
  00058	84 c9		 test	 cl, cl
  0005a	0f 84 ec 00 00
	00		 je	 $LN92@GetAnimati@4
  00060	80 f1 ed	 xor	 cl, -19			; ffffffedH
  00063	88 4d e0	 mov	 BYTE PTR _szEncEventType$[ebp+4], cl
  00066	8a 48 05	 mov	 cl, BYTE PTR [eax+5]
  00069	84 c9		 test	 cl, cl
  0006b	0f 84 d5 00 00
	00		 je	 $LN91@GetAnimati@4
  00071	80 f1 ec	 xor	 cl, -20			; ffffffecH
  00074	88 4d e1	 mov	 BYTE PTR _szEncEventType$[ebp+5], cl
  00077	8a 48 06	 mov	 cl, BYTE PTR [eax+6]
  0007a	84 c9		 test	 cl, cl
  0007c	0f 84 bf 00 00
	00		 je	 $LN90@GetAnimati@4
  00082	32 ca		 xor	 cl, dl
  00084	88 4d e2	 mov	 BYTE PTR _szEncEventType$[ebp+6], cl
  00087	8a 48 07	 mov	 cl, BYTE PTR [eax+7]
  0008a	84 c9		 test	 cl, cl
  0008c	0f 84 a9 00 00
	00		 je	 $LN89@GetAnimati@4
  00092	80 f1 ea	 xor	 cl, -22			; ffffffeaH
  00095	88 4d e3	 mov	 BYTE PTR _szEncEventType$[ebp+7], cl
  00098	8a 48 08	 mov	 cl, BYTE PTR [eax+8]
  0009b	84 c9		 test	 cl, cl
  0009d	0f 84 92 00 00
	00		 je	 $LN88@GetAnimati@4
  000a3	80 f1 ed	 xor	 cl, -19			; ffffffedH
  000a6	88 4d e4	 mov	 BYTE PTR _szEncEventType$[ebp+8], cl
  000a9	8a 48 09	 mov	 cl, BYTE PTR [eax+9]
  000ac	84 c9		 test	 cl, cl
  000ae	74 7f		 je	 SHORT $LN87@GetAnimati@4
  000b0	80 f1 ec	 xor	 cl, -20			; ffffffecH
  000b3	88 4d e5	 mov	 BYTE PTR _szEncEventType$[ebp+9], cl
  000b6	8a 48 0a	 mov	 cl, BYTE PTR [eax+10]
  000b9	84 c9		 test	 cl, cl
  000bb	74 6d		 je	 SHORT $LN86@GetAnimati@4
  000bd	32 ca		 xor	 cl, dl
  000bf	88 4d e6	 mov	 BYTE PTR _szEncEventType$[ebp+10], cl
  000c2	8a 48 0b	 mov	 cl, BYTE PTR [eax+11]
  000c5	84 c9		 test	 cl, cl
  000c7	74 5b		 je	 SHORT $LN85@GetAnimati@4
  000c9	80 f1 ea	 xor	 cl, -22			; ffffffeaH
  000cc	80 78 0c 00	 cmp	 BYTE PTR [eax+12], 0
  000d0	88 4d e7	 mov	 BYTE PTR _szEncEventType$[ebp+11], cl
  000d3	0f 84 8f 00 00
	00		 je	 $LN1@GetAnimati@4
  000d9	8a 48 0d	 mov	 cl, BYTE PTR [eax+13]
  000dc	84 c9		 test	 cl, cl
  000de	74 3e		 je	 SHORT $LN83@GetAnimati@4
  000e0	80 f1 ec	 xor	 cl, -20			; ffffffecH
  000e3	88 4d e9	 mov	 BYTE PTR _szEncEventType$[ebp+13], cl
  000e6	8a 48 0e	 mov	 cl, BYTE PTR [eax+14]
  000e9	84 c9		 test	 cl, cl
  000eb	74 2c		 je	 SHORT $LN82@GetAnimati@4
  000ed	32 ca		 xor	 cl, dl
  000ef	88 4d ea	 mov	 BYTE PTR _szEncEventType$[ebp+14], cl
  000f2	8a 48 0f	 mov	 cl, BYTE PTR [eax+15]
  000f5	84 c9		 test	 cl, cl
  000f7	74 1a		 je	 SHORT $LN81@GetAnimati@4
  000f9	8a 40 10	 mov	 al, BYTE PTR [eax+16]
  000fc	80 f1 ea	 xor	 cl, -22			; ffffffeaH
  000ff	88 4d eb	 mov	 BYTE PTR _szEncEventType$[ebp+15], cl
  00102	84 c0		 test	 al, al
  00104	74 07		 je	 SHORT $LN80@GetAnimati@4
  00106	34 ed		 xor	 al, -19			; ffffffedH
  00108	88 45 ec	 mov	 BYTE PTR _szEncEventType$[ebp+16], al
  0010b	eb 5b		 jmp	 SHORT $LN1@GetAnimati@4
$LN80@GetAnimati@4:
  0010d	c6 45 ec ed	 mov	 BYTE PTR _szEncEventType$[ebp+16], -19 ; ffffffedH
  00111	eb 55		 jmp	 SHORT $LN1@GetAnimati@4
$LN81@GetAnimati@4:
  00113	c6 45 eb ea	 mov	 BYTE PTR _szEncEventType$[ebp+15], -22 ; ffffffeaH
  00117	eb 4f		 jmp	 SHORT $LN1@GetAnimati@4
$LN82@GetAnimati@4:
  00119	88 55 ea	 mov	 BYTE PTR _szEncEventType$[ebp+14], dl
  0011c	eb 4a		 jmp	 SHORT $LN1@GetAnimati@4
$LN83@GetAnimati@4:
  0011e	c6 45 e9 ec	 mov	 BYTE PTR _szEncEventType$[ebp+13], -20 ; ffffffecH
  00122	eb 44		 jmp	 SHORT $LN1@GetAnimati@4
$LN85@GetAnimati@4:
  00124	c6 45 e7 ea	 mov	 BYTE PTR _szEncEventType$[ebp+11], -22 ; ffffffeaH
  00128	eb 3e		 jmp	 SHORT $LN1@GetAnimati@4
$LN86@GetAnimati@4:
  0012a	88 55 e6	 mov	 BYTE PTR _szEncEventType$[ebp+10], dl
  0012d	eb 39		 jmp	 SHORT $LN1@GetAnimati@4
$LN87@GetAnimati@4:
  0012f	c6 45 e5 ec	 mov	 BYTE PTR _szEncEventType$[ebp+9], -20 ; ffffffecH
  00133	eb 33		 jmp	 SHORT $LN1@GetAnimati@4
$LN88@GetAnimati@4:
  00135	c6 45 e4 ed	 mov	 BYTE PTR _szEncEventType$[ebp+8], -19 ; ffffffedH
  00139	eb 2d		 jmp	 SHORT $LN1@GetAnimati@4
$LN89@GetAnimati@4:
  0013b	c6 45 e3 ea	 mov	 BYTE PTR _szEncEventType$[ebp+7], -22 ; ffffffeaH
  0013f	eb 27		 jmp	 SHORT $LN1@GetAnimati@4
$LN90@GetAnimati@4:
  00141	88 55 e2	 mov	 BYTE PTR _szEncEventType$[ebp+6], dl
  00144	eb 22		 jmp	 SHORT $LN1@GetAnimati@4
$LN91@GetAnimati@4:
  00146	c6 45 e1 ec	 mov	 BYTE PTR _szEncEventType$[ebp+5], -20 ; ffffffecH
  0014a	eb 1c		 jmp	 SHORT $LN1@GetAnimati@4
$LN92@GetAnimati@4:
  0014c	c6 45 e0 ed	 mov	 BYTE PTR _szEncEventType$[ebp+4], -19 ; ffffffedH
  00150	eb 16		 jmp	 SHORT $LN1@GetAnimati@4
$LN93@GetAnimati@4:
  00152	c6 45 df ea	 mov	 BYTE PTR _szEncEventType$[ebp+3], -22 ; ffffffeaH
  00156	eb 10		 jmp	 SHORT $LN1@GetAnimati@4
$LN94@GetAnimati@4:
  00158	c6 45 de eb	 mov	 BYTE PTR _szEncEventType$[ebp+2], -21 ; ffffffebH
  0015c	eb 0a		 jmp	 SHORT $LN1@GetAnimati@4
$LN95@GetAnimati@4:
  0015e	c6 45 dd ec	 mov	 BYTE PTR _szEncEventType$[ebp+1], -20 ; ffffffecH
  00162	eb 04		 jmp	 SHORT $LN1@GetAnimati@4
$LN96@GetAnimati@4:
  00164	c6 45 dc ed	 mov	 BYTE PTR _szEncEventType$[ebp], -19 ; ffffffedH
$LN1@GetAnimati@4:
  00168	6a 03		 push	 3
  0016a	8d 45 dc	 lea	 eax, DWORD PTR _szEncEventType$[ebp]
  0016d	c6 45 e8 00	 mov	 BYTE PTR _szEncEventType$[ebp+12], 0
  00171	59		 pop	 ecx
$LL105@GetAnimati@4:
  00172	81 30 ed ec eb
	ea		 xor	 DWORD PTR [eax], -353637139 ; eaebecedH
  00178	83 c0 04	 add	 eax, 4
  0017b	49		 dec	 ecx
  0017c	75 f4		 jne	 SHORT $LL105@GetAnimati@4

; 416  : 		return GetAnimationEventTime(id, szEncEventType);

  0017e	8d 45 dc	 lea	 eax, DWORD PTR _szEncEventType$[ebp]
  00181	50		 push	 eax
  00182	8d 4d c8	 lea	 ecx, DWORD PTR $T557674[ebp]
  00185	ff 15 00 00 00
	00		 call	 DWORD PTR __imp_??0ioHashString@@QAE@PBD@Z
  0018b	83 65 fc 00	 and	 DWORD PTR __$EHRec$[ebp+8], 0
  0018f	8d 45 c8	 lea	 eax, DWORD PTR $T557674[ebp]
  00192	50		 push	 eax
  00193	ff 75 08	 push	 DWORD PTR _id$[ebp]
  00196	8b ce		 mov	 ecx, esi
  00198	ff 15 00 00 00
	00		 call	 DWORD PTR __imp_?GetAnimationEventTime@ioEntityGroup@@QAEMHABVioHashString@@@Z
  0019e	d9 5d d8	 fstp	 DWORD PTR $T557673[ebp]
  001a1	83 4d fc ff	 or	 DWORD PTR __$EHRec$[ebp+8], -1
  001a5	8d 4d c8	 lea	 ecx, DWORD PTR $T557674[ebp]
  001a8	ff 15 00 00 00
	00		 call	 DWORD PTR __imp_??1ioHashString@@QAE@XZ
  001ae	d9 45 d8	 fld	 DWORD PTR $T557673[ebp]

; 417  : 	}

  001b1	e8 00 00 00 00	 call	 __EH_epilog3_GS
  001b6	c2 08 00	 ret	 8
_TEXT	ENDS
;	COMDAT text$x
text$x	SEGMENT
__unwindfunclet$??$GetAnimationEventTime_e@$0N@@ioEntityGroup@@QAEMHAAY0N@$$CBD@Z$0:
  00000	8d 4d c8	 lea	 ecx, DWORD PTR $T557674[ebp]
  00003	ff 25 00 00 00
	00		 jmp	 DWORD PTR __imp_??1ioHashString@@QAE@XZ
__ehhandler$??$GetAnimationEventTime_e@$0N@@ioEntityGroup@@QAEMHAAY0N@$$CBD@Z:
  00009	8b 54 24 08	 mov	 edx, DWORD PTR [esp+8]
  0000d	8d 42 0c	 lea	 eax, DWORD PTR [edx+12]
  00010	8b 4a c4	 mov	 ecx, DWORD PTR [edx-60]
  00013	33 c8		 xor	 ecx, eax
  00015	e8 00 00 00 00	 call	 @__security_check_cookie@4
  0001a	8b 4a fc	 mov	 ecx, DWORD PTR [edx-4]
  0001d	33 c8		 xor	 ecx, eax
  0001f	e8 00 00 00 00	 call	 @__security_check_cookie@4
  00024	b8 00 00 00 00	 mov	 eax, OFFSET __ehfuncinfo$??$GetAnimationEventTime_e@$0N@@ioEntityGroup@@QAEMHAAY0N@$$CBD@Z
  00029	e9 00 00 00 00	 jmp	 ___CxxFrameHandler3
text$x	ENDS
??$GetAnimationEventTime_e@$0N@@ioEntityGroup@@QAEMHAAY0N@$$CBD@Z ENDP ; ioEntityGroup::GetAnimationEventTime_e<13>
PUBLIC	??$GetAnimationEventTime_e@$0M@@ioEntityGroup@@QAEMHAAY0M@$$CBD@Z ; ioEntityGroup::GetAnimationEventTime_e<12>
;	COMDAT xdata$x
; File d:\lost saga for developer\youtube\tutorial\source\src\lsclient\stringprotect.h
xdata$x	SEGMENT
__unwindtable$??$GetAnimationEventTime_e@$0M@@ioEntityGroup@@QAEMHAAY0M@$$CBD@Z DD 0ffffffffH
	DD	FLAT:__unwindfunclet$??$GetAnimationEventTime_e@$0M@@ioEntityGroup@@QAEMHAAY0M@$$CBD@Z$0
__ehfuncinfo$??$GetAnimationEventTime_e@$0M@@ioEntityGroup@@QAEMHAAY0M@$$CBD@Z DD 019930522H
	DD	01H
	DD	FLAT:__unwindtable$??$GetAnimationEventTime_e@$0M@@ioEntityGroup@@QAEMHAAY0M@$$CBD@Z
	DD	2 DUP(00H)
	DD	2 DUP(00H)
	DD	00H
	DD	01H
; Function compile flags: /Ogsp
; File d:\lost saga for developer\youtube\tutorial\source\src\io3dengine\ioentitygroup.h
xdata$x	ENDS
;	COMDAT ??$GetAnimationEventTime_e@$0M@@ioEntityGroup@@QAEMHAAY0M@$$CBD@Z
_TEXT	SEGMENT
$T557704 = -52						; size = 16
$T557703 = -36						; size = 4
_szEncEventType$ = -32					; size = 12
__$EHRec$ = -12						; size = 12
_id$ = 8						; size = 4
_szEventType$ = 12					; size = 4
??$GetAnimationEventTime_e@$0M@@ioEntityGroup@@QAEMHAAY0M@$$CBD@Z PROC ; ioEntityGroup::GetAnimationEventTime_e<12>, COMDAT
; _this$ = ecx

; 414  : 	{

  00000	6a 28		 push	 40			; 00000028H
  00002	b8 00 00 00 00	 mov	 eax, __ehhandler$??$GetAnimationEventTime_e@$0M@@ioEntityGroup@@QAEMHAAY0M@$$CBD@Z
  00007	e8 00 00 00 00	 call	 __EH_prolog3_GS
  0000c	8b 45 0c	 mov	 eax, DWORD PTR _szEventType$[ebp]
  0000f	8b f1		 mov	 esi, ecx

; 415  : 		_ENCSTR(szEventType, szEncEventType);

  00011	8a 08		 mov	 cl, BYTE PTR [eax]
  00013	84 c9		 test	 cl, cl
  00015	0f 84 36 01 00
	00		 je	 $LN96@GetAnimati@5
  0001b	b2 ed		 mov	 dl, -19			; ffffffedH
  0001d	32 ca		 xor	 cl, dl
  0001f	88 4d e0	 mov	 BYTE PTR _szEncEventType$[ebp], cl
  00022	8a 48 01	 mov	 cl, BYTE PTR [eax+1]
  00025	84 c9		 test	 cl, cl
  00027	0f 84 1e 01 00
	00		 je	 $LN95@GetAnimati@5
  0002d	80 f1 ec	 xor	 cl, -20			; ffffffecH
  00030	88 4d e1	 mov	 BYTE PTR _szEncEventType$[ebp+1], cl
  00033	8a 48 02	 mov	 cl, BYTE PTR [eax+2]
  00036	84 c9		 test	 cl, cl
  00038	0f 84 07 01 00
	00		 je	 $LN94@GetAnimati@5
  0003e	80 f1 eb	 xor	 cl, -21			; ffffffebH
  00041	88 4d e2	 mov	 BYTE PTR _szEncEventType$[ebp+2], cl
  00044	8a 48 03	 mov	 cl, BYTE PTR [eax+3]
  00047	84 c9		 test	 cl, cl
  00049	0f 84 f0 00 00
	00		 je	 $LN93@GetAnimati@5
  0004f	80 f1 ea	 xor	 cl, -22			; ffffffeaH
  00052	88 4d e3	 mov	 BYTE PTR _szEncEventType$[ebp+3], cl
  00055	8a 48 04	 mov	 cl, BYTE PTR [eax+4]
  00058	84 c9		 test	 cl, cl
  0005a	0f 84 da 00 00
	00		 je	 $LN92@GetAnimati@5
  00060	32 ca		 xor	 cl, dl
  00062	88 4d e4	 mov	 BYTE PTR _szEncEventType$[ebp+4], cl
  00065	8a 48 05	 mov	 cl, BYTE PTR [eax+5]
  00068	84 c9		 test	 cl, cl
  0006a	0f 84 c4 00 00
	00		 je	 $LN91@GetAnimati@5
  00070	80 f1 ec	 xor	 cl, -20			; ffffffecH
  00073	88 4d e5	 mov	 BYTE PTR _szEncEventType$[ebp+5], cl
  00076	8a 48 06	 mov	 cl, BYTE PTR [eax+6]
  00079	84 c9		 test	 cl, cl
  0007b	0f 84 ad 00 00
	00		 je	 $LN90@GetAnimati@5
  00081	80 f1 eb	 xor	 cl, -21			; ffffffebH
  00084	88 4d e6	 mov	 BYTE PTR _szEncEventType$[ebp+6], cl
  00087	8a 48 07	 mov	 cl, BYTE PTR [eax+7]
  0008a	84 c9		 test	 cl, cl
  0008c	0f 84 96 00 00
	00		 je	 $LN89@GetAnimati@5
  00092	80 f1 ea	 xor	 cl, -22			; ffffffeaH
  00095	88 4d e7	 mov	 BYTE PTR _szEncEventType$[ebp+7], cl
  00098	8a 48 08	 mov	 cl, BYTE PTR [eax+8]
  0009b	84 c9		 test	 cl, cl
  0009d	0f 84 80 00 00
	00		 je	 $LN88@GetAnimati@5
  000a3	32 ca		 xor	 cl, dl
  000a5	88 4d e8	 mov	 BYTE PTR _szEncEventType$[ebp+8], cl
  000a8	8a 48 09	 mov	 cl, BYTE PTR [eax+9]
  000ab	84 c9		 test	 cl, cl
  000ad	74 6e		 je	 SHORT $LN87@GetAnimati@5
  000af	80 f1 ec	 xor	 cl, -20			; ffffffecH
  000b2	88 4d e9	 mov	 BYTE PTR _szEncEventType$[ebp+9], cl
  000b5	8a 48 0a	 mov	 cl, BYTE PTR [eax+10]
  000b8	84 c9		 test	 cl, cl
  000ba	74 5b		 je	 SHORT $LN86@GetAnimati@5
  000bc	80 f1 eb	 xor	 cl, -21			; ffffffebH
  000bf	80 78 0b 00	 cmp	 BYTE PTR [eax+11], 0
  000c3	88 4d ea	 mov	 BYTE PTR _szEncEventType$[ebp+10], cl
  000c6	0f 84 89 00 00
	00		 je	 $LN1@GetAnimati@5
  000cc	8a 48 0c	 mov	 cl, BYTE PTR [eax+12]
  000cf	84 c9		 test	 cl, cl
  000d1	74 3f		 je	 SHORT $LN84@GetAnimati@5
  000d3	32 ca		 xor	 cl, dl
  000d5	88 4d ec	 mov	 BYTE PTR _szEncEventType$[ebp+12], cl
  000d8	8a 48 0d	 mov	 cl, BYTE PTR [eax+13]
  000db	84 c9		 test	 cl, cl
  000dd	74 2d		 je	 SHORT $LN83@GetAnimati@5
  000df	80 f1 ec	 xor	 cl, -20			; ffffffecH
  000e2	88 4d ed	 mov	 BYTE PTR _szEncEventType$[ebp+13], cl
  000e5	8a 48 0e	 mov	 cl, BYTE PTR [eax+14]
  000e8	84 c9		 test	 cl, cl
  000ea	74 1a		 je	 SHORT $LN82@GetAnimati@5
  000ec	8a 40 0f	 mov	 al, BYTE PTR [eax+15]
  000ef	80 f1 eb	 xor	 cl, -21			; ffffffebH
  000f2	88 4d ee	 mov	 BYTE PTR _szEncEventType$[ebp+14], cl
  000f5	84 c0		 test	 al, al
  000f7	74 07		 je	 SHORT $LN81@GetAnimati@5
  000f9	34 ea		 xor	 al, -22			; ffffffeaH
  000fb	88 45 ef	 mov	 BYTE PTR _szEncEventType$[ebp+15], al
  000fe	eb 55		 jmp	 SHORT $LN1@GetAnimati@5
$LN81@GetAnimati@5:
  00100	c6 45 ef ea	 mov	 BYTE PTR _szEncEventType$[ebp+15], -22 ; ffffffeaH
  00104	eb 4f		 jmp	 SHORT $LN1@GetAnimati@5
$LN82@GetAnimati@5:
  00106	c6 45 ee eb	 mov	 BYTE PTR _szEncEventType$[ebp+14], -21 ; ffffffebH
  0010a	eb 49		 jmp	 SHORT $LN1@GetAnimati@5
$LN83@GetAnimati@5:
  0010c	c6 45 ed ec	 mov	 BYTE PTR _szEncEventType$[ebp+13], -20 ; ffffffecH
  00110	eb 43		 jmp	 SHORT $LN1@GetAnimati@5
$LN84@GetAnimati@5:
  00112	88 55 ec	 mov	 BYTE PTR _szEncEventType$[ebp+12], dl
  00115	eb 3e		 jmp	 SHORT $LN1@GetAnimati@5
$LN86@GetAnimati@5:
  00117	c6 45 ea eb	 mov	 BYTE PTR _szEncEventType$[ebp+10], -21 ; ffffffebH
  0011b	eb 38		 jmp	 SHORT $LN1@GetAnimati@5
$LN87@GetAnimati@5:
  0011d	c6 45 e9 ec	 mov	 BYTE PTR _szEncEventType$[ebp+9], -20 ; ffffffecH
  00121	eb 32		 jmp	 SHORT $LN1@GetAnimati@5
$LN88@GetAnimati@5:
  00123	88 55 e8	 mov	 BYTE PTR _szEncEventType$[ebp+8], dl
  00126	eb 2d		 jmp	 SHORT $LN1@GetAnimati@5
$LN89@GetAnimati@5:
  00128	c6 45 e7 ea	 mov	 BYTE PTR _szEncEventType$[ebp+7], -22 ; ffffffeaH
  0012c	eb 27		 jmp	 SHORT $LN1@GetAnimati@5
$LN90@GetAnimati@5:
  0012e	c6 45 e6 eb	 mov	 BYTE PTR _szEncEventType$[ebp+6], -21 ; ffffffebH
  00132	eb 21		 jmp	 SHORT $LN1@GetAnimati@5
$LN91@GetAnimati@5:
  00134	c6 45 e5 ec	 mov	 BYTE PTR _szEncEventType$[ebp+5], -20 ; ffffffecH
  00138	eb 1b		 jmp	 SHORT $LN1@GetAnimati@5
$LN92@GetAnimati@5:
  0013a	88 55 e4	 mov	 BYTE PTR _szEncEventType$[ebp+4], dl
  0013d	eb 16		 jmp	 SHORT $LN1@GetAnimati@5
$LN93@GetAnimati@5:
  0013f	c6 45 e3 ea	 mov	 BYTE PTR _szEncEventType$[ebp+3], -22 ; ffffffeaH
  00143	eb 10		 jmp	 SHORT $LN1@GetAnimati@5
$LN94@GetAnimati@5:
  00145	c6 45 e2 eb	 mov	 BYTE PTR _szEncEventType$[ebp+2], -21 ; ffffffebH
  00149	eb 0a		 jmp	 SHORT $LN1@GetAnimati@5
$LN95@GetAnimati@5:
  0014b	c6 45 e1 ec	 mov	 BYTE PTR _szEncEventType$[ebp+1], -20 ; ffffffecH
  0014f	eb 04		 jmp	 SHORT $LN1@GetAnimati@5
$LN96@GetAnimati@5:
  00151	c6 45 e0 ed	 mov	 BYTE PTR _szEncEventType$[ebp], -19 ; ffffffedH
$LN1@GetAnimati@5:
  00155	6a 02		 push	 2
  00157	8d 45 e0	 lea	 eax, DWORD PTR _szEncEventType$[ebp]
  0015a	c6 45 eb 00	 mov	 BYTE PTR _szEncEventType$[ebp+11], 0
  0015e	59		 pop	 ecx
$LL105@GetAnimati@5:
  0015f	81 30 ed ec eb
	ea		 xor	 DWORD PTR [eax], -353637139 ; eaebecedH
  00165	83 c0 04	 add	 eax, 4
  00168	49		 dec	 ecx
  00169	75 f4		 jne	 SHORT $LL105@GetAnimati@5
  0016b	6a 08		 push	 8
  0016d	58		 pop	 eax
$LL102@GetAnimati@5:
  0016e	8b c8		 mov	 ecx, eax
  00170	81 e1 03 00 00
	80		 and	 ecx, -2147483645	; 80000003H
  00176	79 05		 jns	 SHORT $LN113@GetAnimati@5
  00178	49		 dec	 ecx
  00179	83 c9 fc	 or	 ecx, -4			; fffffffcH
  0017c	41		 inc	 ecx
$LN113@GetAnimati@5:
  0017d	b2 ed		 mov	 dl, -19			; ffffffedH
  0017f	2a d1		 sub	 dl, cl
  00181	30 54 05 e0	 xor	 BYTE PTR _szEncEventType$[ebp+eax], dl
  00185	40		 inc	 eax
  00186	83 f8 0b	 cmp	 eax, 11			; 0000000bH
  00189	7c e3		 jl	 SHORT $LL102@GetAnimati@5

; 416  : 		return GetAnimationEventTime(id, szEncEventType);

  0018b	8d 45 e0	 lea	 eax, DWORD PTR _szEncEventType$[ebp]
  0018e	50		 push	 eax
  0018f	8d 4d cc	 lea	 ecx, DWORD PTR $T557704[ebp]
  00192	ff 15 00 00 00
	00		 call	 DWORD PTR __imp_??0ioHashString@@QAE@PBD@Z
  00198	83 65 fc 00	 and	 DWORD PTR __$EHRec$[ebp+8], 0
  0019c	8d 45 cc	 lea	 eax, DWORD PTR $T557704[ebp]
  0019f	50		 push	 eax
  001a0	ff 75 08	 push	 DWORD PTR _id$[ebp]
  001a3	8b ce		 mov	 ecx, esi
  001a5	ff 15 00 00 00
	00		 call	 DWORD PTR __imp_?GetAnimationEventTime@ioEntityGroup@@QAEMHABVioHashString@@@Z
  001ab	d9 5d dc	 fstp	 DWORD PTR $T557703[ebp]
  001ae	83 4d fc ff	 or	 DWORD PTR __$EHRec$[ebp+8], -1
  001b2	8d 4d cc	 lea	 ecx, DWORD PTR $T557704[ebp]
  001b5	ff 15 00 00 00
	00		 call	 DWORD PTR __imp_??1ioHashString@@QAE@XZ
  001bb	d9 45 dc	 fld	 DWORD PTR $T557703[ebp]

; 417  : 	}

  001be	e8 00 00 00 00	 call	 __EH_epilog3_GS
  001c3	c2 08 00	 ret	 8
_TEXT	ENDS
;	COMDAT text$x
text$x	SEGMENT
__unwindfunclet$??$GetAnimationEventTime_e@$0M@@ioEntityGroup@@QAEMHAAY0M@$$CBD@Z$0:
  00000	8d 4d cc	 lea	 ecx, DWORD PTR $T557704[ebp]
  00003	ff 25 00 00 00
	00		 jmp	 DWORD PTR __imp_??1ioHashString@@QAE@XZ
__ehhandler$??$GetAnimationEventTime_e@$0M@@ioEntityGroup@@QAEMHAAY0M@$$CBD@Z:
  00009	8b 54 24 08	 mov	 edx, DWORD PTR [esp+8]
  0000d	8d 42 0c	 lea	 eax, DWORD PTR [edx+12]
  00010	8b 4a c8	 mov	 ecx, DWORD PTR [edx-56]
  00013	33 c8		 xor	 ecx, eax
  00015	e8 00 00 00 00	 call	 @__security_check_cookie@4
  0001a	8b 4a fc	 mov	 ecx, DWORD PTR [edx-4]
  0001d	33 c8		 xor	 ecx, eax
  0001f	e8 00 00 00 00	 call	 @__security_check_cookie@4
  00024	b8 00 00 00 00	 mov	 eax, OFFSET __ehfuncinfo$??$GetAnimationEventTime_e@$0M@@ioEntityGroup@@QAEMHAAY0M@$$CBD@Z
  00029	e9 00 00 00 00	 jmp	 ___CxxFrameHandler3
text$x	ENDS
??$GetAnimationEventTime_e@$0M@@ioEntityGroup@@QAEMHAAY0M@$$CBD@Z ENDP ; ioEntityGroup::GetAnimationEventTime_e<12>
PUBLIC	__real@3fd2ee0d320154cb
PUBLIC	__real@41f0000000000000
PUBLIC	??$RADtoDEG@M@@YAMM@Z				; RADtoDEG<float>
;	COMDAT __real@3fd2ee0d320154cb
; File d:\lost saga for developer\youtube\tutorial\source\src\lsclient\veryoftenusedefine.h
CONST	SEGMENT
__real@3fd2ee0d320154cb DQ 03fd2ee0d320154cbr	; 0.29578
CONST	ENDS
;	COMDAT __real@41f0000000000000
CONST	SEGMENT
__real@41f0000000000000 DQ 041f0000000000000r	; 4.29497e+009
; Function compile flags: /Ogsp
CONST	ENDS
;	COMDAT ??$RADtoDEG@M@@YAMM@Z
_TEXT	SEGMENT
tv130 = -4						; size = 4
tv75 = 8						; size = 4
_val$ = 8						; size = 4
??$RADtoDEG@M@@YAMM@Z PROC				; RADtoDEG<float>, COMDAT

; 18   : type  RADtoDEG (type val) {return (type) (val * (return57() + 0.2957795132)); }

  00000	55		 push	 ebp
  00001	8b ec		 mov	 ebp, esp
  00003	51		 push	 ecx
  00004	b8 39 00 00 00	 mov	 eax, 57			; 00000039H
  00009	89 45 fc	 mov	 DWORD PTR tv130[ebp], eax
  0000c	db 45 fc	 fild	 DWORD PTR tv130[ebp]
  0000f	85 c0		 test	 eax, eax
  00011	79 06		 jns	 SHORT $LN5@RADtoDEG
  00013	dc 05 00 00 00
	00		 fadd	 QWORD PTR __real@41f0000000000000
$LN5@RADtoDEG:
  00019	dc 05 00 00 00
	00		 fadd	 QWORD PTR __real@3fd2ee0d320154cb
  0001f	d8 4d 08	 fmul	 DWORD PTR _val$[ebp]
  00022	d9 5d 08	 fstp	 DWORD PTR tv75[ebp]
  00025	d9 45 08	 fld	 DWORD PTR tv75[ebp]
  00028	c9		 leave
  00029	c3		 ret	 0
??$RADtoDEG@M@@YAMM@Z ENDP				; RADtoDEG<float>
_TEXT	ENDS
PUBLIC	??$_Cons_val@V?$allocator@UAniRotateInfo@@@std@@UAniRotateInfo@@AAU3@@std@@YAXAAV?$allocator@UAniRotateInfo@@@0@PAUAniRotateInfo@@AAU2@@Z ; std::_Cons_val<std::allocator<AniRotateInfo>,AniRotateInfo,AniRotateInfo &>
; Function compile flags: /Ogsp
; File c:\program files (x86)\microsoft visual studio 10.0\vc\include\xmemory
;	COMDAT ??$_Cons_val@V?$allocator@UAniRotateInfo@@@std@@UAniRotateInfo@@AAU3@@std@@YAXAAV?$allocator@UAniRotateInfo@@@0@PAUAniRotateInfo@@AAU2@@Z
_TEXT	SEGMENT
__Alval$ = 8						; size = 4
__Pdest$ = 12						; size = 4
__Src$ = 16						; size = 4
??$_Cons_val@V?$allocator@UAniRotateInfo@@@std@@UAniRotateInfo@@AAU3@@std@@YAXAAV?$allocator@UAniRotateInfo@@@0@PAUAniRotateInfo@@AAU2@@Z PROC ; std::_Cons_val<std::allocator<AniRotateInfo>,AniRotateInfo,AniRotateInfo &>, COMDAT

; 279  : 	{	// construct using allocator

  00000	55		 push	 ebp
  00001	8b ec		 mov	 ebp, esp

; 280  : 	_Alval.construct(_Pdest, _STD forward<_Ty2>(_Src));

  00003	8b 45 0c	 mov	 eax, DWORD PTR __Pdest$[ebp]
  00006	85 c0		 test	 eax, eax
  00008	74 0d		 je	 SHORT $LN7@Cons_val
  0000a	8b 4d 10	 mov	 ecx, DWORD PTR __Src$[ebp]
  0000d	8b 11		 mov	 edx, DWORD PTR [ecx]
  0000f	89 10		 mov	 DWORD PTR [eax], edx
  00011	8b 49 04	 mov	 ecx, DWORD PTR [ecx+4]
  00014	89 48 04	 mov	 DWORD PTR [eax+4], ecx
$LN7@Cons_val:

; 281  : 	}

  00017	5d		 pop	 ebp
  00018	c3		 ret	 0
??$_Cons_val@V?$allocator@UAniRotateInfo@@@std@@UAniRotateInfo@@AAU3@@std@@YAXAAV?$allocator@UAniRotateInfo@@@0@PAUAniRotateInfo@@AAU2@@Z ENDP ; std::_Cons_val<std::allocator<AniRotateInfo>,AniRotateInfo,AniRotateInfo &>
_TEXT	ENDS
PUBLIC	??$_Move@PAPAVioBaseChar@@PAPAV1@@std@@YAPAPAVioBaseChar@@PAPAV1@00@Z ; std::_Move<ioBaseChar * *,ioBaseChar * *>
; Function compile flags: /Ogsp
; File c:\program files (x86)\microsoft visual studio 10.0\vc\include\xutility
;	COMDAT ??$_Move@PAPAVioBaseChar@@PAPAV1@@std@@YAPAPAVioBaseChar@@PAPAV1@00@Z
_TEXT	SEGMENT
__Cat$557774 = -4					; size = 1
__First$ = 8						; size = 4
__Last$ = 12						; size = 4
__Dest$ = 16						; size = 4
??$_Move@PAPAVioBaseChar@@PAPAV1@@std@@YAPAPAVioBaseChar@@PAPAV1@00@Z PROC ; std::_Move<ioBaseChar * *,ioBaseChar * *>, COMDAT

; 2533 : 	{	// move [_First, _Last) to [_Dest, ...), unchecked

  00000	55		 push	 ebp
  00001	8b ec		 mov	 ebp, esp
  00003	51		 push	 ecx

; 2534 : 	return (_Move(_First, _Last,
; 2535 : 		_Dest, _Ptr_cat(_First, _Dest)));

  00004	ff 75 fc	 push	 DWORD PTR __Cat$557774[ebp]
  00007	ff 75 10	 push	 DWORD PTR __Dest$[ebp]
  0000a	ff 75 0c	 push	 DWORD PTR __Last$[ebp]
  0000d	ff 75 08	 push	 DWORD PTR __First$[ebp]
  00010	e8 00 00 00 00	 call	 ??$_Move@PAPAVioBaseChar@@PAPAV1@@std@@YAPAPAVioBaseChar@@PAPAV1@00U_Scalar_ptr_iterator_tag@0@@Z ; std::_Move<ioBaseChar * *,ioBaseChar * *>
  00015	83 c4 10	 add	 esp, 16			; 00000010H

; 2536 : 	}

  00018	c9		 leave
  00019	c3		 ret	 0
??$_Move@PAPAVioBaseChar@@PAPAV1@@std@@YAPAPAVioBaseChar@@PAPAV1@00@Z ENDP ; std::_Move<ioBaseChar * *,ioBaseChar * *>
_TEXT	ENDS
PUBLIC	??$_Destroy_range@V?$allocator@PAVioBaseChar@@@std@@@std@@YAXPAPAVioBaseChar@@0AAV?$allocator@PAVioBaseChar@@@0@@Z ; std::_Destroy_range<std::allocator<ioBaseChar *> >
; Function compile flags: /Ogsp
; File c:\program files (x86)\microsoft visual studio 10.0\vc\include\xmemory
;	COMDAT ??$_Destroy_range@V?$allocator@PAVioBaseChar@@@std@@@std@@YAXPAPAVioBaseChar@@0AAV?$allocator@PAVioBaseChar@@@0@@Z
_TEXT	SEGMENT
__First$ = 8						; size = 4
__Last$ = 12						; size = 4
__Al$ = 16						; size = 4
??$_Destroy_range@V?$allocator@PAVioBaseChar@@@std@@@std@@YAXPAPAVioBaseChar@@0AAV?$allocator@PAVioBaseChar@@@0@@Z PROC ; std::_Destroy_range<std::allocator<ioBaseChar *> >, COMDAT

; 88   : 	_Destroy_range(_First, _Last, _Al, _Ptr_cat(_First, _Last));
; 89   : 	}

  00000	c3		 ret	 0
??$_Destroy_range@V?$allocator@PAVioBaseChar@@@std@@@std@@YAXPAPAVioBaseChar@@0AAV?$allocator@PAVioBaseChar@@@0@@Z ENDP ; std::_Destroy_range<std::allocator<ioBaseChar *> >
_TEXT	ENDS
PUBLIC	??$_Destroy_range@V?$allocator@PBUAniEventTime@@@std@@@std@@YAXPAPBUAniEventTime@@0AAV?$allocator@PBUAniEventTime@@@0@@Z ; std::_Destroy_range<std::allocator<AniEventTime const *> >
; Function compile flags: /Ogsp
;	COMDAT ??$_Destroy_range@V?$allocator@PBUAniEventTime@@@std@@@std@@YAXPAPBUAniEventTime@@0AAV?$allocator@PBUAniEventTime@@@0@@Z
_TEXT	SEGMENT
__First$ = 8						; size = 4
__Last$ = 12						; size = 4
__Al$ = 16						; size = 4
??$_Destroy_range@V?$allocator@PBUAniEventTime@@@std@@@std@@YAXPAPBUAniEventTime@@0AAV?$allocator@PBUAniEventTime@@@0@@Z PROC ; std::_Destroy_range<std::allocator<AniEventTime const *> >, COMDAT

; 88   : 	_Destroy_range(_First, _Last, _Al, _Ptr_cat(_First, _Last));
; 89   : 	}

  00000	c3		 ret	 0
??$_Destroy_range@V?$allocator@PBUAniEventTime@@@std@@@std@@YAXPAPBUAniEventTime@@0AAV?$allocator@PBUAniEventTime@@@0@@Z ENDP ; std::_Destroy_range<std::allocator<AniEventTime const *> >
_TEXT	ENDS
PUBLIC	?construct@?$allocator@UAniRotateInfo@@@std@@QAEXPAUAniRotateInfo@@ABU3@@Z ; std::allocator<AniRotateInfo>::construct
; Function compile flags: /Ogsp
;	COMDAT ?construct@?$allocator@UAniRotateInfo@@@std@@QAEXPAUAniRotateInfo@@ABU3@@Z
_TEXT	SEGMENT
__Ptr$ = 8						; size = 4
__Val$ = 12						; size = 4
?construct@?$allocator@UAniRotateInfo@@@std@@QAEXPAUAniRotateInfo@@ABU3@@Z PROC ; std::allocator<AniRotateInfo>::construct, COMDAT
; _this$ = ecx

; 196  : 		{	// construct object at _Ptr with value _Val

  00000	55		 push	 ebp
  00001	8b ec		 mov	 ebp, esp

; 197  : 		_Construct(_Ptr, _Val);

  00003	8b 45 08	 mov	 eax, DWORD PTR __Ptr$[ebp]
  00006	85 c0		 test	 eax, eax
  00008	74 0d		 je	 SHORT $LN5@construct@2
  0000a	8b 4d 0c	 mov	 ecx, DWORD PTR __Val$[ebp]
  0000d	8b 11		 mov	 edx, DWORD PTR [ecx]
  0000f	89 10		 mov	 DWORD PTR [eax], edx
  00011	8b 49 04	 mov	 ecx, DWORD PTR [ecx+4]
  00014	89 48 04	 mov	 DWORD PTR [eax+4], ecx
$LN5@construct@2:

; 198  : 		}

  00017	5d		 pop	 ebp
  00018	c2 08 00	 ret	 8
?construct@?$allocator@UAniRotateInfo@@@std@@QAEXPAUAniRotateInfo@@ABU3@@Z ENDP ; std::allocator<AniRotateInfo>::construct
_TEXT	ENDS
PUBLIC	??G?$_Vector_iterator@V?$_Vector_val@UtagBaseCharDistanceSq@@V?$allocator@UtagBaseCharDistanceSq@@@std@@@std@@@std@@QBEHABV?$_Vector_const_iterator@V?$_Vector_val@UtagBaseCharDistanceSq@@V?$allocator@UtagBaseCharDistanceSq@@@std@@@std@@@1@@Z ; std::_Vector_iterator<std::_Vector_val<tagBaseCharDistanceSq,std::allocator<tagBaseCharDistanceSq> > >::operator-
; Function compile flags: /Ogsp
; File c:\program files (x86)\microsoft visual studio 10.0\vc\include\vector
;	COMDAT ??G?$_Vector_iterator@V?$_Vector_val@UtagBaseCharDistanceSq@@V?$allocator@UtagBaseCharDistanceSq@@@std@@@std@@@std@@QBEHABV?$_Vector_const_iterator@V?$_Vector_val@UtagBaseCharDistanceSq@@V?$allocator@UtagBaseCharDistanceSq@@@std@@@std@@@1@@Z
_TEXT	SEGMENT
__Right$ = 8						; size = 4
??G?$_Vector_iterator@V?$_Vector_val@UtagBaseCharDistanceSq@@V?$allocator@UtagBaseCharDistanceSq@@@std@@@std@@@std@@QBEHABV?$_Vector_const_iterator@V?$_Vector_val@UtagBaseCharDistanceSq@@V?$allocator@UtagBaseCharDistanceSq@@@std@@@std@@@1@@Z PROC ; std::_Vector_iterator<std::_Vector_val<tagBaseCharDistanceSq,std::allocator<tagBaseCharDistanceSq> > >::operator-, COMDAT
; _this$ = ecx

; 380  : 		{	// return difference of iterators

  00000	55		 push	 ebp
  00001	8b ec		 mov	 ebp, esp

; 381  : 		return (*(_Mybase *)this - _Right);

  00003	8b 01		 mov	 eax, DWORD PTR [ecx]
  00005	8b 4d 08	 mov	 ecx, DWORD PTR __Right$[ebp]
  00008	2b 01		 sub	 eax, DWORD PTR [ecx]
  0000a	c1 f8 05	 sar	 eax, 5

; 382  : 		}

  0000d	5d		 pop	 ebp
  0000e	c2 04 00	 ret	 4
??G?$_Vector_iterator@V?$_Vector_val@UtagBaseCharDistanceSq@@V?$allocator@UtagBaseCharDistanceSq@@@std@@@std@@@std@@QBEHABV?$_Vector_const_iterator@V?$_Vector_val@UtagBaseCharDistanceSq@@V?$allocator@UtagBaseCharDistanceSq@@@std@@@std@@@1@@Z ENDP ; std::_Vector_iterator<std::_Vector_val<tagBaseCharDistanceSq,std::allocator<tagBaseCharDistanceSq> > >::operator-
_TEXT	ENDS
PUBLIC	??$_Unchecked@V?$_Vector_val@UtagBaseCharDistanceSq@@V?$allocator@UtagBaseCharDistanceSq@@@std@@@std@@@std@@YAPAUtagBaseCharDistanceSq@@V?$_Vector_iterator@V?$_Vector_val@UtagBaseCharDistanceSq@@V?$allocator@UtagBaseCharDistanceSq@@@std@@@std@@@0@@Z ; std::_Unchecked<std::_Vector_val<tagBaseCharDistanceSq,std::allocator<tagBaseCharDistanceSq> > >
; Function compile flags: /Ogsp
;	COMDAT ??$_Unchecked@V?$_Vector_val@UtagBaseCharDistanceSq@@V?$allocator@UtagBaseCharDistanceSq@@@std@@@std@@@std@@YAPAUtagBaseCharDistanceSq@@V?$_Vector_iterator@V?$_Vector_val@UtagBaseCharDistanceSq@@V?$allocator@UtagBaseCharDistanceSq@@@std@@@std@@@0@@Z
_TEXT	SEGMENT
__Iter$ = 8						; size = 4
??$_Unchecked@V?$_Vector_val@UtagBaseCharDistanceSq@@V?$allocator@UtagBaseCharDistanceSq@@@std@@@std@@@std@@YAPAUtagBaseCharDistanceSq@@V?$_Vector_iterator@V?$_Vector_val@UtagBaseCharDistanceSq@@V?$allocator@UtagBaseCharDistanceSq@@@std@@@std@@@0@@Z PROC ; std::_Unchecked<std::_Vector_val<tagBaseCharDistanceSq,std::allocator<tagBaseCharDistanceSq> > >, COMDAT

; 393  : 	{	// convert to unchecked

  00000	55		 push	 ebp
  00001	8b ec		 mov	 ebp, esp

; 394  : 	return (_Iter._Unchecked());

  00003	8b 45 08	 mov	 eax, DWORD PTR __Iter$[ebp]

; 395  : 	}

  00006	5d		 pop	 ebp
  00007	c3		 ret	 0
??$_Unchecked@V?$_Vector_val@UtagBaseCharDistanceSq@@V?$allocator@UtagBaseCharDistanceSq@@@std@@@std@@@std@@YAPAUtagBaseCharDistanceSq@@V?$_Vector_iterator@V?$_Vector_val@UtagBaseCharDistanceSq@@V?$allocator@UtagBaseCharDistanceSq@@@std@@@std@@@0@@Z ENDP ; std::_Unchecked<std::_Vector_val<tagBaseCharDistanceSq,std::allocator<tagBaseCharDistanceSq> > >
_TEXT	ENDS
PUBLIC	??$construct@AAUtagBaseCharDistanceSq@@@?$allocator@UtagBaseCharDistanceSq@@@std@@QAEXPAUtagBaseCharDistanceSq@@AAU2@@Z ; std::allocator<tagBaseCharDistanceSq>::construct<tagBaseCharDistanceSq &>
;	COMDAT xdata$x
; File c:\program files (x86)\microsoft visual studio 10.0\vc\include\utility
xdata$x	SEGMENT
__unwindtable$??$construct@AAUtagBaseCharDistanceSq@@@?$allocator@UtagBaseCharDistanceSq@@@std@@QAEXPAUtagBaseCharDistanceSq@@AAU2@@Z DD 0ffffffffH
	DD	FLAT:__unwindfunclet$??$construct@AAUtagBaseCharDistanceSq@@@?$allocator@UtagBaseCharDistanceSq@@@std@@QAEXPAUtagBaseCharDistanceSq@@AAU2@@Z$0
__ehfuncinfo$??$construct@AAUtagBaseCharDistanceSq@@@?$allocator@UtagBaseCharDistanceSq@@@std@@QAEXPAUtagBaseCharDistanceSq@@AAU2@@Z DD 019930522H
	DD	01H
	DD	FLAT:__unwindtable$??$construct@AAUtagBaseCharDistanceSq@@@?$allocator@UtagBaseCharDistanceSq@@@std@@QAEXPAUtagBaseCharDistanceSq@@AAU2@@Z
	DD	2 DUP(00H)
	DD	2 DUP(00H)
	DD	00H
	DD	01H
; Function compile flags: /Ogsp
; File c:\program files (x86)\microsoft visual studio 10.0\vc\include\xmemory
xdata$x	ENDS
;	COMDAT ??$construct@AAUtagBaseCharDistanceSq@@@?$allocator@UtagBaseCharDistanceSq@@@std@@QAEXPAUtagBaseCharDistanceSq@@AAU2@@Z
_TEXT	SEGMENT
$T557839 = -16						; size = 4
__$EHRec$ = -12						; size = 12
__Ptr$ = 8						; size = 4
__Val$ = 12						; size = 4
??$construct@AAUtagBaseCharDistanceSq@@@?$allocator@UtagBaseCharDistanceSq@@@std@@QAEXPAUtagBaseCharDistanceSq@@AAU2@@Z PROC ; std::allocator<tagBaseCharDistanceSq>::construct<tagBaseCharDistanceSq &>, COMDAT
; _this$ = ecx

; 206  : 		void construct(pointer _Ptr, _Other&& _Val)

  00000	6a 04		 push	 4
  00002	b8 00 00 00 00	 mov	 eax, __ehhandler$??$construct@AAUtagBaseCharDistanceSq@@@?$allocator@UtagBaseCharDistanceSq@@@std@@QAEXPAUtagBaseCharDistanceSq@@AAU2@@Z
  00007	e8 00 00 00 00	 call	 __EH_prolog3

; 207  : 		{	// construct object at _Ptr with value _Val
; 208  : 		::new ((void _FARQ *)_Ptr) _Ty(_STD forward<_Other>(_Val));

  0000c	8b 4d 08	 mov	 ecx, DWORD PTR __Ptr$[ebp]
  0000f	89 4d f0	 mov	 DWORD PTR $T557839[ebp], ecx
  00012	83 65 fc 00	 and	 DWORD PTR __$EHRec$[ebp+8], 0
  00016	85 c9		 test	 ecx, ecx
  00018	74 08		 je	 SHORT $LN3@construct@3
  0001a	ff 75 0c	 push	 DWORD PTR __Val$[ebp]
  0001d	e8 00 00 00 00	 call	 ??0tagBaseCharDistanceSq@@QAE@ABU0@@Z
$LN3@construct@3:

; 209  : 		}

  00022	e8 00 00 00 00	 call	 __EH_epilog3
  00027	c2 08 00	 ret	 8
_TEXT	ENDS
;	COMDAT text$x
text$x	SEGMENT
__unwindfunclet$??$construct@AAUtagBaseCharDistanceSq@@@?$allocator@UtagBaseCharDistanceSq@@@std@@QAEXPAUtagBaseCharDistanceSq@@AAU2@@Z$0:
  00000	ff 75 08	 push	 DWORD PTR __Ptr$[ebp]
  00003	ff 75 f0	 push	 DWORD PTR $T557839[ebp]
  00006	e8 00 00 00 00	 call	 ??3@YAXPAX0@Z		; operator delete
  0000b	59		 pop	 ecx
  0000c	59		 pop	 ecx
  0000d	c3		 ret	 0
__ehhandler$??$construct@AAUtagBaseCharDistanceSq@@@?$allocator@UtagBaseCharDistanceSq@@@std@@QAEXPAUtagBaseCharDistanceSq@@AAU2@@Z:
  0000e	8b 54 24 08	 mov	 edx, DWORD PTR [esp+8]
  00012	8d 42 0c	 lea	 eax, DWORD PTR [edx+12]
  00015	8b 4a ec	 mov	 ecx, DWORD PTR [edx-20]
  00018	33 c8		 xor	 ecx, eax
  0001a	e8 00 00 00 00	 call	 @__security_check_cookie@4
  0001f	b8 00 00 00 00	 mov	 eax, OFFSET __ehfuncinfo$??$construct@AAUtagBaseCharDistanceSq@@@?$allocator@UtagBaseCharDistanceSq@@@std@@QAEXPAUtagBaseCharDistanceSq@@AAU2@@Z
  00024	e9 00 00 00 00	 jmp	 ___CxxFrameHandler3
text$x	ENDS
??$construct@AAUtagBaseCharDistanceSq@@@?$allocator@UtagBaseCharDistanceSq@@@std@@QAEXPAUtagBaseCharDistanceSq@@AAU2@@Z ENDP ; std::allocator<tagBaseCharDistanceSq>::construct<tagBaseCharDistanceSq &>
PUBLIC	??$_Move@PAUAniRotateInfo@@PAU1@@std@@YAPAUAniRotateInfo@@PAU1@00U_Nonscalar_ptr_iterator_tag@0@@Z ; std::_Move<AniRotateInfo *,AniRotateInfo *>
; Function compile flags: /Ogsp
; File c:\program files (x86)\microsoft visual studio 10.0\vc\include\xutility
;	COMDAT ??$_Move@PAUAniRotateInfo@@PAU1@@std@@YAPAUAniRotateInfo@@PAU1@00U_Nonscalar_ptr_iterator_tag@0@@Z
_TEXT	SEGMENT
__First$ = 8						; size = 4
__Last$ = 12						; size = 4
__Dest$ = 16						; size = 4
___formal$ = 20						; size = 1
??$_Move@PAUAniRotateInfo@@PAU1@@std@@YAPAUAniRotateInfo@@PAU1@00U_Nonscalar_ptr_iterator_tag@0@@Z PROC ; std::_Move<AniRotateInfo *,AniRotateInfo *>, COMDAT

; 2512 : 	{	// move [_First, _Last) to [_Dest, ...), arbitrary iterators

  00000	55		 push	 ebp
  00001	8b ec		 mov	 ebp, esp

; 2513 : 	for (; _First != _Last; ++_Dest, ++_First)

  00003	8b 4d 08	 mov	 ecx, DWORD PTR __First$[ebp]
  00006	8b 45 10	 mov	 eax, DWORD PTR __Dest$[ebp]
$LN11@Move:
  00009	3b 4d 0c	 cmp	 ecx, DWORD PTR __Last$[ebp]
  0000c	74 12		 je	 SHORT $LN1@Move

; 2514 : 		*_Dest = _STD move(*_First);

  0000e	8b 11		 mov	 edx, DWORD PTR [ecx]
  00010	89 10		 mov	 DWORD PTR [eax], edx
  00012	8b 51 04	 mov	 edx, DWORD PTR [ecx+4]
  00015	89 50 04	 mov	 DWORD PTR [eax+4], edx
  00018	83 c0 08	 add	 eax, 8
  0001b	83 c1 08	 add	 ecx, 8
  0001e	eb e9		 jmp	 SHORT $LN11@Move
$LN1@Move:

; 2515 : 	return (_Dest);
; 2516 : 	}

  00020	5d		 pop	 ebp
  00021	c3		 ret	 0
??$_Move@PAUAniRotateInfo@@PAU1@@std@@YAPAUAniRotateInfo@@PAU1@00U_Nonscalar_ptr_iterator_tag@0@@Z ENDP ; std::_Move<AniRotateInfo *,AniRotateInfo *>
_TEXT	ENDS
PUBLIC	??$_Construct@UtagBaseCharDistanceSq@@ABU1@@std@@YAXPAUtagBaseCharDistanceSq@@ABU1@@Z ; std::_Construct<tagBaseCharDistanceSq,tagBaseCharDistanceSq const &>
;	COMDAT xdata$x
; File c:\program files (x86)\microsoft visual studio 10.0\vc\include\utility
xdata$x	SEGMENT
__unwindtable$??$_Construct@UtagBaseCharDistanceSq@@ABU1@@std@@YAXPAUtagBaseCharDistanceSq@@ABU1@@Z DD 0ffffffffH
	DD	FLAT:__unwindfunclet$??$_Construct@UtagBaseCharDistanceSq@@ABU1@@std@@YAXPAUtagBaseCharDistanceSq@@ABU1@@Z$0
__ehfuncinfo$??$_Construct@UtagBaseCharDistanceSq@@ABU1@@std@@YAXPAUtagBaseCharDistanceSq@@ABU1@@Z DD 019930522H
	DD	01H
	DD	FLAT:__unwindtable$??$_Construct@UtagBaseCharDistanceSq@@ABU1@@std@@YAXPAUtagBaseCharDistanceSq@@ABU1@@Z
	DD	2 DUP(00H)
	DD	2 DUP(00H)
	DD	00H
	DD	01H
; Function compile flags: /Ogsp
; File c:\program files (x86)\microsoft visual studio 10.0\vc\include\xmemory
xdata$x	ENDS
;	COMDAT ??$_Construct@UtagBaseCharDistanceSq@@ABU1@@std@@YAXPAUtagBaseCharDistanceSq@@ABU1@@Z
_TEXT	SEGMENT
$T557867 = -16						; size = 4
__$EHRec$ = -12						; size = 12
__Vptr$ = 8						; size = 4
__Ptr$ = 8						; size = 4
__Val$ = 12						; size = 4
??$_Construct@UtagBaseCharDistanceSq@@ABU1@@std@@YAXPAUtagBaseCharDistanceSq@@ABU1@@Z PROC ; std::_Construct<tagBaseCharDistanceSq,tagBaseCharDistanceSq const &>, COMDAT

; 46   : 	{	// construct object at _Ptr with value _Val

  00000	6a 04		 push	 4
  00002	b8 00 00 00 00	 mov	 eax, __ehhandler$??$_Construct@UtagBaseCharDistanceSq@@ABU1@@std@@YAXPAUtagBaseCharDistanceSq@@ABU1@@Z
  00007	e8 00 00 00 00	 call	 __EH_prolog3

; 47   : 	void _FARQ *_Vptr = _Ptr;

  0000c	8b 4d 08	 mov	 ecx, DWORD PTR __Ptr$[ebp]
  0000f	89 4d 08	 mov	 DWORD PTR __Vptr$[ebp], ecx

; 48   : 	::new (_Vptr) _Ty1(_STD forward<_Ty2>(_Val));

  00012	89 4d f0	 mov	 DWORD PTR $T557867[ebp], ecx
  00015	83 65 fc 00	 and	 DWORD PTR __$EHRec$[ebp+8], 0
  00019	85 c9		 test	 ecx, ecx
  0001b	74 08		 je	 SHORT $LN3@Construct@2
  0001d	ff 75 0c	 push	 DWORD PTR __Val$[ebp]
  00020	e8 00 00 00 00	 call	 ??0tagBaseCharDistanceSq@@QAE@ABU0@@Z
$LN3@Construct@2:

; 49   : 	}

  00025	e8 00 00 00 00	 call	 __EH_epilog3
  0002a	c3		 ret	 0
_TEXT	ENDS
;	COMDAT text$x
text$x	SEGMENT
__unwindfunclet$??$_Construct@UtagBaseCharDistanceSq@@ABU1@@std@@YAXPAUtagBaseCharDistanceSq@@ABU1@@Z$0:
  00000	ff 75 08	 push	 DWORD PTR __Vptr$[ebp]
  00003	ff 75 f0	 push	 DWORD PTR $T557867[ebp]
  00006	e8 00 00 00 00	 call	 ??3@YAXPAX0@Z		; operator delete
  0000b	59		 pop	 ecx
  0000c	59		 pop	 ecx
  0000d	c3		 ret	 0
__ehhandler$??$_Construct@UtagBaseCharDistanceSq@@ABU1@@std@@YAXPAUtagBaseCharDistanceSq@@ABU1@@Z:
  0000e	8b 54 24 08	 mov	 edx, DWORD PTR [esp+8]
  00012	8d 42 0c	 lea	 eax, DWORD PTR [edx+12]
  00015	8b 4a ec	 mov	 ecx, DWORD PTR [edx-20]
  00018	33 c8		 xor	 ecx, eax
  0001a	e8 00 00 00 00	 call	 @__security_check_cookie@4
  0001f	b8 00 00 00 00	 mov	 eax, OFFSET __ehfuncinfo$??$_Construct@UtagBaseCharDistanceSq@@ABU1@@std@@YAXPAUtagBaseCharDistanceSq@@ABU1@@Z
  00024	e9 00 00 00 00	 jmp	 ___CxxFrameHandler3
text$x	ENDS
??$_Construct@UtagBaseCharDistanceSq@@ABU1@@std@@YAXPAUtagBaseCharDistanceSq@@ABU1@@Z ENDP ; std::_Construct<tagBaseCharDistanceSq,tagBaseCharDistanceSq const &>
PUBLIC	?destroy@?$allocator@UAniRotateInfo@@@std@@QAEXPAUAniRotateInfo@@@Z ; std::allocator<AniRotateInfo>::destroy
; Function compile flags: /Ogsp
;	COMDAT ?destroy@?$allocator@UAniRotateInfo@@@std@@QAEXPAUAniRotateInfo@@@Z
_TEXT	SEGMENT
__Ptr$ = 8						; size = 4
?destroy@?$allocator@UAniRotateInfo@@@std@@QAEXPAUAniRotateInfo@@@Z PROC ; std::allocator<AniRotateInfo>::destroy, COMDAT
; _this$ = ecx

; 213  : 		_Destroy(_Ptr);
; 214  : 		}

  00000	c2 04 00	 ret	 4
?destroy@?$allocator@UAniRotateInfo@@@std@@QAEXPAUAniRotateInfo@@@Z ENDP ; std::allocator<AniRotateInfo>::destroy
_TEXT	ENDS
PUBLIC	??$?0AAPAUtagBaseCharDistanceSq@@AAPAU0@@?$pair@PAUtagBaseCharDistanceSq@@PAU1@@std@@QAE@AAPAUtagBaseCharDistanceSq@@0@Z ; std::pair<tagBaseCharDistanceSq *,tagBaseCharDistanceSq *>::pair<tagBaseCharDistanceSq *,tagBaseCharDistanceSq *><tagBaseCharDistanceSq * &,tagBaseCharDistanceSq * &>
; Function compile flags: /Ogsp
; File c:\program files (x86)\microsoft visual studio 10.0\vc\include\utility
;	COMDAT ??$?0AAPAUtagBaseCharDistanceSq@@AAPAU0@@?$pair@PAUtagBaseCharDistanceSq@@PAU1@@std@@QAE@AAPAUtagBaseCharDistanceSq@@0@Z
_TEXT	SEGMENT
__Val1$ = 8						; size = 4
__Val2$ = 12						; size = 4
??$?0AAPAUtagBaseCharDistanceSq@@AAPAU0@@?$pair@PAUtagBaseCharDistanceSq@@PAU1@@std@@QAE@AAPAUtagBaseCharDistanceSq@@0@Z PROC ; std::pair<tagBaseCharDistanceSq *,tagBaseCharDistanceSq *>::pair<tagBaseCharDistanceSq *,tagBaseCharDistanceSq *><tagBaseCharDistanceSq * &,tagBaseCharDistanceSq * &>, COMDAT
; _this$ = ecx

; 247  : 		{	// construct from moved values

  00000	55		 push	 ebp
  00001	8b ec		 mov	 ebp, esp
  00003	8b c1		 mov	 eax, ecx
  00005	8b 4d 08	 mov	 ecx, DWORD PTR __Val1$[ebp]
  00008	8b 09		 mov	 ecx, DWORD PTR [ecx]
  0000a	89 08		 mov	 DWORD PTR [eax], ecx
  0000c	8b 4d 0c	 mov	 ecx, DWORD PTR __Val2$[ebp]
  0000f	8b 09		 mov	 ecx, DWORD PTR [ecx]
  00011	89 48 04	 mov	 DWORD PTR [eax+4], ecx

; 248  : 		}

  00014	5d		 pop	 ebp
  00015	c2 08 00	 ret	 8
??$?0AAPAUtagBaseCharDistanceSq@@AAPAU0@@?$pair@PAUtagBaseCharDistanceSq@@PAU1@@std@@QAE@AAPAUtagBaseCharDistanceSq@@0@Z ENDP ; std::pair<tagBaseCharDistanceSq *,tagBaseCharDistanceSq *>::pair<tagBaseCharDistanceSq *,tagBaseCharDistanceSq *><tagBaseCharDistanceSq * &,tagBaseCharDistanceSq * &>
_TEXT	ENDS
PUBLIC	??$_Destroy@UtagBaseCharDistanceSq@@@std@@YAXPAUtagBaseCharDistanceSq@@@Z ; std::_Destroy<tagBaseCharDistanceSq>
; Function compile flags: /Ogsp
; File c:\program files (x86)\microsoft visual studio 10.0\vc\include\xmemory
;	COMDAT ??$_Destroy@UtagBaseCharDistanceSq@@@std@@YAXPAUtagBaseCharDistanceSq@@@Z
_TEXT	SEGMENT
__Ptr$ = 8						; size = 4
??$_Destroy@UtagBaseCharDistanceSq@@@std@@YAXPAUtagBaseCharDistanceSq@@@Z PROC ; std::_Destroy<tagBaseCharDistanceSq>, COMDAT

; 62   : 	{	// destroy object at _Ptr

  00000	55		 push	 ebp
  00001	8b ec		 mov	 ebp, esp

; 63   : 	_Ptr->~_Ty();

  00003	8b 4d 08	 mov	 ecx, DWORD PTR __Ptr$[ebp]

; 64   : 	}

  00006	5d		 pop	 ebp

; 63   : 	_Ptr->~_Ty();

  00007	ff 25 00 00 00
	00		 jmp	 DWORD PTR __imp_??1ioHashString@@QAE@XZ
??$_Destroy@UtagBaseCharDistanceSq@@@std@@YAXPAUtagBaseCharDistanceSq@@@Z ENDP ; std::_Destroy<tagBaseCharDistanceSq>
_TEXT	ENDS
PUBLIC	?construct@?$allocator@UAniRotateInfo@@@std@@QAEXPAUAniRotateInfo@@$$QAU3@@Z ; std::allocator<AniRotateInfo>::construct
; Function compile flags: /Ogsp
;	COMDAT ?construct@?$allocator@UAniRotateInfo@@@std@@QAEXPAUAniRotateInfo@@$$QAU3@@Z
_TEXT	SEGMENT
__Ptr$ = 8						; size = 4
__Val$ = 12						; size = 4
?construct@?$allocator@UAniRotateInfo@@@std@@QAEXPAUAniRotateInfo@@$$QAU3@@Z PROC ; std::allocator<AniRotateInfo>::construct, COMDAT
; _this$ = ecx

; 201  : 		{	// construct object at _Ptr with value _Val

  00000	55		 push	 ebp
  00001	8b ec		 mov	 ebp, esp

; 202  : 		::new ((void _FARQ *)_Ptr) _Ty(_STD forward<_Ty>(_Val));

  00003	8b 45 08	 mov	 eax, DWORD PTR __Ptr$[ebp]
  00006	85 c0		 test	 eax, eax
  00008	74 0d		 je	 SHORT $LN3@construct@4
  0000a	8b 4d 0c	 mov	 ecx, DWORD PTR __Val$[ebp]
  0000d	8b 11		 mov	 edx, DWORD PTR [ecx]
  0000f	89 10		 mov	 DWORD PTR [eax], edx
  00011	8b 49 04	 mov	 ecx, DWORD PTR [ecx+4]
  00014	89 48 04	 mov	 DWORD PTR [eax+4], ecx
$LN3@construct@4:

; 203  : 		}

  00017	5d		 pop	 ebp
  00018	c2 08 00	 ret	 8
?construct@?$allocator@UAniRotateInfo@@@std@@QAEXPAUAniRotateInfo@@$$QAU3@@Z ENDP ; std::allocator<AniRotateInfo>::construct
_TEXT	ENDS
PUBLIC	?construct@?$allocator@UtagBaseCharDistanceSq@@@std@@QAEXPAUtagBaseCharDistanceSq@@$$QAU3@@Z ; std::allocator<tagBaseCharDistanceSq>::construct
;	COMDAT xdata$x
; File c:\program files (x86)\microsoft visual studio 10.0\vc\include\utility
xdata$x	SEGMENT
__unwindtable$?construct@?$allocator@UtagBaseCharDistanceSq@@@std@@QAEXPAUtagBaseCharDistanceSq@@$$QAU3@@Z DD 0ffffffffH
	DD	FLAT:__unwindfunclet$?construct@?$allocator@UtagBaseCharDistanceSq@@@std@@QAEXPAUtagBaseCharDistanceSq@@$$QAU3@@Z$0
__ehfuncinfo$?construct@?$allocator@UtagBaseCharDistanceSq@@@std@@QAEXPAUtagBaseCharDistanceSq@@$$QAU3@@Z DD 019930522H
	DD	01H
	DD	FLAT:__unwindtable$?construct@?$allocator@UtagBaseCharDistanceSq@@@std@@QAEXPAUtagBaseCharDistanceSq@@$$QAU3@@Z
	DD	2 DUP(00H)
	DD	2 DUP(00H)
	DD	00H
	DD	01H
; Function compile flags: /Ogsp
; File c:\program files (x86)\microsoft visual studio 10.0\vc\include\xmemory
xdata$x	ENDS
;	COMDAT ?construct@?$allocator@UtagBaseCharDistanceSq@@@std@@QAEXPAUtagBaseCharDistanceSq@@$$QAU3@@Z
_TEXT	SEGMENT
$T557939 = -16						; size = 4
__$EHRec$ = -12						; size = 12
__Ptr$ = 8						; size = 4
__Val$ = 12						; size = 4
?construct@?$allocator@UtagBaseCharDistanceSq@@@std@@QAEXPAUtagBaseCharDistanceSq@@$$QAU3@@Z PROC ; std::allocator<tagBaseCharDistanceSq>::construct, COMDAT
; _this$ = ecx

; 201  : 		{	// construct object at _Ptr with value _Val

  00000	6a 04		 push	 4
  00002	b8 00 00 00 00	 mov	 eax, __ehhandler$?construct@?$allocator@UtagBaseCharDistanceSq@@@std@@QAEXPAUtagBaseCharDistanceSq@@$$QAU3@@Z
  00007	e8 00 00 00 00	 call	 __EH_prolog3

; 202  : 		::new ((void _FARQ *)_Ptr) _Ty(_STD forward<_Ty>(_Val));

  0000c	8b 4d 08	 mov	 ecx, DWORD PTR __Ptr$[ebp]
  0000f	89 4d f0	 mov	 DWORD PTR $T557939[ebp], ecx
  00012	83 65 fc 00	 and	 DWORD PTR __$EHRec$[ebp+8], 0
  00016	85 c9		 test	 ecx, ecx
  00018	74 08		 je	 SHORT $LN3@construct@5
  0001a	ff 75 0c	 push	 DWORD PTR __Val$[ebp]
  0001d	e8 00 00 00 00	 call	 ??0tagBaseCharDistanceSq@@QAE@ABU0@@Z
$LN3@construct@5:

; 203  : 		}

  00022	e8 00 00 00 00	 call	 __EH_epilog3
  00027	c2 08 00	 ret	 8
_TEXT	ENDS
;	COMDAT text$x
text$x	SEGMENT
__unwindfunclet$?construct@?$allocator@UtagBaseCharDistanceSq@@@std@@QAEXPAUtagBaseCharDistanceSq@@$$QAU3@@Z$0:
  00000	ff 75 08	 push	 DWORD PTR __Ptr$[ebp]
  00003	ff 75 f0	 push	 DWORD PTR $T557939[ebp]
  00006	e8 00 00 00 00	 call	 ??3@YAXPAX0@Z		; operator delete
  0000b	59		 pop	 ecx
  0000c	59		 pop	 ecx
  0000d	c3		 ret	 0
__ehhandler$?construct@?$allocator@UtagBaseCharDistanceSq@@@std@@QAEXPAUtagBaseCharDistanceSq@@$$QAU3@@Z:
  0000e	8b 54 24 08	 mov	 edx, DWORD PTR [esp+8]
  00012	8d 42 0c	 lea	 eax, DWORD PTR [edx+12]
  00015	8b 4a ec	 mov	 ecx, DWORD PTR [edx-20]
  00018	33 c8		 xor	 ecx, eax
  0001a	e8 00 00 00 00	 call	 @__security_check_cookie@4
  0001f	b8 00 00 00 00	 mov	 eax, OFFSET __ehfuncinfo$?construct@?$allocator@UtagBaseCharDistanceSq@@@std@@QAEXPAUtagBaseCharDistanceSq@@$$QAU3@@Z
  00024	e9 00 00 00 00	 jmp	 ___CxxFrameHandler3
text$x	ENDS
?construct@?$allocator@UtagBaseCharDistanceSq@@@std@@QAEXPAUtagBaseCharDistanceSq@@$$QAU3@@Z ENDP ; std::allocator<tagBaseCharDistanceSq>::construct
PUBLIC	??$swap@UtagBaseCharDistanceSq@@@std@@YAXAAUtagBaseCharDistanceSq@@0@Z ; std::swap<tagBaseCharDistanceSq>
;	COMDAT xdata$x
; File d:\lost saga for developer\youtube\tutorial\source\src\lsclient\iofireskill2.cpp
xdata$x	SEGMENT
__unwindtable$??$swap@UtagBaseCharDistanceSq@@@std@@YAXAAUtagBaseCharDistanceSq@@0@Z DD 0ffffffffH
	DD	FLAT:__unwindfunclet$??$swap@UtagBaseCharDistanceSq@@@std@@YAXAAUtagBaseCharDistanceSq@@0@Z$0
__ehfuncinfo$??$swap@UtagBaseCharDistanceSq@@@std@@YAXAAUtagBaseCharDistanceSq@@0@Z DD 019930522H
	DD	01H
	DD	FLAT:__unwindtable$??$swap@UtagBaseCharDistanceSq@@@std@@YAXAAUtagBaseCharDistanceSq@@0@Z
	DD	2 DUP(00H)
	DD	2 DUP(00H)
	DD	00H
	DD	01H
; Function compile flags: /Ogsp
; File c:\program files (x86)\microsoft visual studio 10.0\vc\include\utility
xdata$x	ENDS
;	COMDAT ??$swap@UtagBaseCharDistanceSq@@@std@@YAXAAUtagBaseCharDistanceSq@@0@Z
_TEXT	SEGMENT
__Tmp$ = -48						; size = 32
__$EHRec$ = -12						; size = 12
__Left$ = 8						; size = 4
__Right$ = 12						; size = 4
??$swap@UtagBaseCharDistanceSq@@@std@@YAXAAUtagBaseCharDistanceSq@@0@Z PROC ; std::swap<tagBaseCharDistanceSq>, COMDAT

; 101  : 	{	// exchange values stored at _Left and _Right

  00000	6a 24		 push	 36			; 00000024H
  00002	b8 00 00 00 00	 mov	 eax, __ehhandler$??$swap@UtagBaseCharDistanceSq@@@std@@YAXAAUtagBaseCharDistanceSq@@0@Z
  00007	e8 00 00 00 00	 call	 __EH_prolog3_GS
  0000c	8b 75 08	 mov	 esi, DWORD PTR __Left$[ebp]
  0000f	8b 7d 0c	 mov	 edi, DWORD PTR __Right$[ebp]

; 102  : 	_Ty _Tmp = _Move(_Left);

  00012	56		 push	 esi
  00013	8d 4d d0	 lea	 ecx, DWORD PTR __Tmp$[ebp]
  00016	e8 00 00 00 00	 call	 ??0tagBaseCharDistanceSq@@QAE@ABU0@@Z
  0001b	83 65 fc 00	 and	 DWORD PTR __$EHRec$[ebp+8], 0

; 103  : 	_Left = _Move(_Right);

  0001f	57		 push	 edi
  00020	8b ce		 mov	 ecx, esi
  00022	e8 00 00 00 00	 call	 ??4tagBaseCharDistanceSq@@QAEAAU0@ABU0@@Z

; 104  : 	_Right = _Move(_Tmp);

  00027	8d 45 d0	 lea	 eax, DWORD PTR __Tmp$[ebp]
  0002a	50		 push	 eax
  0002b	8b cf		 mov	 ecx, edi
  0002d	e8 00 00 00 00	 call	 ??4tagBaseCharDistanceSq@@QAEAAU0@ABU0@@Z

; 105  : 	}

  00032	83 4d fc ff	 or	 DWORD PTR __$EHRec$[ebp+8], -1
  00036	8d 4d d0	 lea	 ecx, DWORD PTR __Tmp$[ebp]
  00039	ff 15 00 00 00
	00		 call	 DWORD PTR __imp_??1ioHashString@@QAE@XZ
  0003f	e8 00 00 00 00	 call	 __EH_epilog3_GS
  00044	c3		 ret	 0
_TEXT	ENDS
;	COMDAT text$x
text$x	SEGMENT
__unwindfunclet$??$swap@UtagBaseCharDistanceSq@@@std@@YAXAAUtagBaseCharDistanceSq@@0@Z$0:
  00000	8d 4d d0	 lea	 ecx, DWORD PTR __Tmp$[ebp]
  00003	e9 00 00 00 00	 jmp	 ??1tagBaseCharDistanceSq@@QAE@XZ
__ehhandler$??$swap@UtagBaseCharDistanceSq@@@std@@YAXAAUtagBaseCharDistanceSq@@0@Z:
  00008	8b 54 24 08	 mov	 edx, DWORD PTR [esp+8]
  0000c	8d 42 0c	 lea	 eax, DWORD PTR [edx+12]
  0000f	8b 4a cc	 mov	 ecx, DWORD PTR [edx-52]
  00012	33 c8		 xor	 ecx, eax
  00014	e8 00 00 00 00	 call	 @__security_check_cookie@4
  00019	8b 4a fc	 mov	 ecx, DWORD PTR [edx-4]
  0001c	33 c8		 xor	 ecx, eax
  0001e	e8 00 00 00 00	 call	 @__security_check_cookie@4
  00023	b8 00 00 00 00	 mov	 eax, OFFSET __ehfuncinfo$??$swap@UtagBaseCharDistanceSq@@@std@@YAXAAUtagBaseCharDistanceSq@@0@Z
  00028	e9 00 00 00 00	 jmp	 ___CxxFrameHandler3
text$x	ENDS
??$swap@UtagBaseCharDistanceSq@@@std@@YAXAAUtagBaseCharDistanceSq@@0@Z ENDP ; std::swap<tagBaseCharDistanceSq>
PUBLIC	??$_Push_heap@PAUtagBaseCharDistanceSq@@HU1@VBaseCharDistanceSqSort2@@@std@@YAXPAUtagBaseCharDistanceSq@@HH$$QAU1@VBaseCharDistanceSqSort2@@@Z ; std::_Push_heap<tagBaseCharDistanceSq *,int,tagBaseCharDistanceSq,BaseCharDistanceSqSort2>
; Function compile flags: /Ogsp
; File c:\program files (x86)\microsoft visual studio 10.0\vc\include\algorithm
;	COMDAT ??$_Push_heap@PAUtagBaseCharDistanceSq@@HU1@VBaseCharDistanceSqSort2@@@std@@YAXPAUtagBaseCharDistanceSq@@HH$$QAU1@VBaseCharDistanceSqSort2@@@Z
_TEXT	SEGMENT
__First$ = 8						; size = 4
__Hole$ = 12						; size = 4
__Top$ = 16						; size = 4
__Val$ = 20						; size = 4
__Pred$ = 24						; size = 1
??$_Push_heap@PAUtagBaseCharDistanceSq@@HU1@VBaseCharDistanceSqSort2@@@std@@YAXPAUtagBaseCharDistanceSq@@HH$$QAU1@VBaseCharDistanceSqSort2@@@Z PROC ; std::_Push_heap<tagBaseCharDistanceSq *,int,tagBaseCharDistanceSq,BaseCharDistanceSqSort2>, COMDAT

; 2455 : 	{	// percolate _Hole to _Top or where _Val belongs, using operator<

  00000	55		 push	 ebp
  00001	8b ec		 mov	 ebp, esp

; 2456 : 	for (_Diff _Idx = (_Hole - 1) / 2;

  00003	8b 4d 0c	 mov	 ecx, DWORD PTR __Hole$[ebp]
  00006	8d 41 ff	 lea	 eax, DWORD PTR [ecx-1]
  00009	53		 push	 ebx

; 2457 : 		_Top < _Hole && _DEBUG_LT_PRED(_Pred, *(_First + _Idx), _Val);
; 2458 : 		_Idx = (_Hole - 1) / 2)

  0000a	8b 5d 14	 mov	 ebx, DWORD PTR __Val$[ebp]
  0000d	99		 cdq
  0000e	56		 push	 esi
  0000f	2b c2		 sub	 eax, edx
  00011	8b f0		 mov	 esi, eax
  00013	57		 push	 edi
  00014	8b 7d 08	 mov	 edi, DWORD PTR __First$[ebp]
  00017	d1 fe		 sar	 esi, 1
  00019	eb 34		 jmp	 SHORT $LN16@Push_heap
$LL3@Push_heap:
  0001b	f3 0f 10 4b 10	 movss	 xmm1, DWORD PTR [ebx+16]
  00020	8b c6		 mov	 eax, esi
  00022	c1 e0 05	 shl	 eax, 5
  00025	03 c7		 add	 eax, edi
  00027	f3 0f 10 40 10	 movss	 xmm0, DWORD PTR [eax+16]
  0002c	0f 5a c0	 cvtps2pd xmm0, xmm0
  0002f	0f 5a c9	 cvtps2pd xmm1, xmm1
  00032	66 0f 2f c8	 comisd	 xmm1, xmm0
  00036	76 1c		 jbe	 SHORT $LN6@Push_heap

; 2459 : 		{	// move _Hole up to parent
; 2460 : 		*(_First + _Hole) = _Move(*(_First + _Idx));

  00038	c1 e1 05	 shl	 ecx, 5
  0003b	50		 push	 eax
  0003c	03 cf		 add	 ecx, edi
  0003e	e8 00 00 00 00	 call	 ??4tagBaseCharDistanceSq@@QAEAAU0@ABU0@@Z
  00043	8d 46 ff	 lea	 eax, DWORD PTR [esi-1]
  00046	99		 cdq
  00047	2b c2		 sub	 eax, edx
  00049	d1 f8		 sar	 eax, 1

; 2461 : 		_Hole = _Idx;

  0004b	8b ce		 mov	 ecx, esi
  0004d	8b f0		 mov	 esi, eax
$LN16@Push_heap:

; 2457 : 		_Top < _Hole && _DEBUG_LT_PRED(_Pred, *(_First + _Idx), _Val);
; 2458 : 		_Idx = (_Hole - 1) / 2)

  0004f	39 4d 10	 cmp	 DWORD PTR __Top$[ebp], ecx
  00052	7c c7		 jl	 SHORT $LL3@Push_heap
$LN6@Push_heap:

; 2462 : 		}
; 2463 : 
; 2464 : 	*(_First + _Hole) = _Move(_Val);	// drop _Val into final hole

  00054	c1 e1 05	 shl	 ecx, 5
  00057	53		 push	 ebx
  00058	03 cf		 add	 ecx, edi
  0005a	e8 00 00 00 00	 call	 ??4tagBaseCharDistanceSq@@QAEAAU0@ABU0@@Z
  0005f	5f		 pop	 edi
  00060	5e		 pop	 esi
  00061	5b		 pop	 ebx

; 2465 : 	}

  00062	5d		 pop	 ebp
  00063	c3		 ret	 0
??$_Push_heap@PAUtagBaseCharDistanceSq@@HU1@VBaseCharDistanceSqSort2@@@std@@YAXPAUtagBaseCharDistanceSq@@HH$$QAU1@VBaseCharDistanceSqSort2@@@Z ENDP ; std::_Push_heap<tagBaseCharDistanceSq *,int,tagBaseCharDistanceSq,BaseCharDistanceSqSort2>
_TEXT	ENDS
PUBLIC	??$_Move_backward@PAUtagBaseCharDistanceSq@@PAU1@@std@@YAPAUtagBaseCharDistanceSq@@PAU1@00U_Nonscalar_ptr_iterator_tag@0@@Z ; std::_Move_backward<tagBaseCharDistanceSq *,tagBaseCharDistanceSq *>
; Function compile flags: /Ogsp
; File c:\program files (x86)\microsoft visual studio 10.0\vc\include\xutility
;	COMDAT ??$_Move_backward@PAUtagBaseCharDistanceSq@@PAU1@@std@@YAPAUtagBaseCharDistanceSq@@PAU1@00U_Nonscalar_ptr_iterator_tag@0@@Z
_TEXT	SEGMENT
__First$ = 8						; size = 4
__Last$ = 12						; size = 4
__Dest$ = 16						; size = 4
___formal$ = 20						; size = 1
??$_Move_backward@PAUtagBaseCharDistanceSq@@PAU1@@std@@YAPAUtagBaseCharDistanceSq@@PAU1@00U_Nonscalar_ptr_iterator_tag@0@@Z PROC ; std::_Move_backward<tagBaseCharDistanceSq *,tagBaseCharDistanceSq *>, COMDAT

; 2617 : 	{	// move [_First, _Last) backwards to [..., _Dest), arbitrary iterators

  00000	55		 push	 ebp
  00001	8b ec		 mov	 ebp, esp
  00003	56		 push	 esi

; 2618 : 	while (_First != _Last)

  00004	8b 75 0c	 mov	 esi, DWORD PTR __Last$[ebp]
  00007	39 75 08	 cmp	 DWORD PTR __First$[ebp], esi
  0000a	74 15		 je	 SHORT $LN9@Move_backw
$LL2@Move_backw:

; 2619 : 		*--_Dest = _STD move(*--_Last);

  0000c	83 6d 10 20	 sub	 DWORD PTR __Dest$[ebp], 32 ; 00000020H
  00010	8b 4d 10	 mov	 ecx, DWORD PTR __Dest$[ebp]
  00013	83 ee 20	 sub	 esi, 32			; 00000020H
  00016	56		 push	 esi
  00017	e8 00 00 00 00	 call	 ??4tagBaseCharDistanceSq@@QAEAAU0@ABU0@@Z
  0001c	3b 75 08	 cmp	 esi, DWORD PTR __First$[ebp]
  0001f	75 eb		 jne	 SHORT $LL2@Move_backw
$LN9@Move_backw:

; 2620 : 	return (_Dest);

  00021	8b 45 10	 mov	 eax, DWORD PTR __Dest$[ebp]
  00024	5e		 pop	 esi

; 2621 : 	}

  00025	5d		 pop	 ebp
  00026	c3		 ret	 0
??$_Move_backward@PAUtagBaseCharDistanceSq@@PAU1@@std@@YAPAUtagBaseCharDistanceSq@@PAU1@00U_Nonscalar_ptr_iterator_tag@0@@Z ENDP ; std::_Move_backward<tagBaseCharDistanceSq *,tagBaseCharDistanceSq *>
_TEXT	ENDS
PUBLIC	?c_str@?$basic_string@DU?$char_traits@D@std@@V?$allocator@D@2@@std@@QBEPBDXZ ; std::basic_string<char,std::char_traits<char>,std::allocator<char> >::c_str
; Function compile flags: /Ogsp
; File c:\program files (x86)\microsoft visual studio 10.0\vc\include\xstring
;	COMDAT ?c_str@?$basic_string@DU?$char_traits@D@std@@V?$allocator@D@2@@std@@QBEPBDXZ
_TEXT	SEGMENT
?c_str@?$basic_string@DU?$char_traits@D@std@@V?$allocator@D@2@@std@@QBEPBDXZ PROC ; std::basic_string<char,std::char_traits<char>,std::allocator<char> >::c_str, COMDAT
; _this$ = ecx

; 1497 : 		return (_Myptr());

  00000	83 79 14 10	 cmp	 DWORD PTR [ecx+20], 16	; 00000010H
  00004	72 03		 jb	 SHORT $LN5@c_str
  00006	8b 01		 mov	 eax, DWORD PTR [ecx]

; 1498 : 		}

  00008	c3		 ret	 0

; 1497 : 		return (_Myptr());

$LN5@c_str:
  00009	8b c1		 mov	 eax, ecx

; 1498 : 		}

  0000b	c3		 ret	 0
?c_str@?$basic_string@DU?$char_traits@D@std@@V?$allocator@D@2@@std@@QBEPBDXZ ENDP ; std::basic_string<char,std::char_traits<char>,std::allocator<char> >::c_str
_TEXT	ENDS
PUBLIC	??0?$CEncrypt@M@@QAE@XZ				; CEncrypt<float>::CEncrypt<float>
EXTRN	??0ccddaabb@@QAE@XZ:PROC			; ccddaabb::ccddaabb
;	COMDAT xdata$x
; File d:\lost saga for developer\youtube\tutorial\source\src\lsclient\encryptvalue.h
xdata$x	SEGMENT
__unwindtable$??0?$CEncrypt@M@@QAE@XZ DD 0ffffffffH
	DD	FLAT:__unwindfunclet$??0?$CEncrypt@M@@QAE@XZ$0
__ehfuncinfo$??0?$CEncrypt@M@@QAE@XZ DD 019930522H
	DD	01H
	DD	FLAT:__unwindtable$??0?$CEncrypt@M@@QAE@XZ
	DD	2 DUP(00H)
	DD	2 DUP(00H)
	DD	00H
	DD	01H
; Function compile flags: /Ogsp
xdata$x	ENDS
;	COMDAT ??0?$CEncrypt@M@@QAE@XZ
_TEXT	SEGMENT
_this$ = -16						; size = 4
__$EHRec$ = -12						; size = 12
??0?$CEncrypt@M@@QAE@XZ PROC				; CEncrypt<float>::CEncrypt<float>, COMDAT
; _this$ = ecx

; 109  : 	CEncrypt()

  00000	6a 04		 push	 4
  00002	b8 00 00 00 00	 mov	 eax, __ehhandler$??0?$CEncrypt@M@@QAE@XZ
  00007	e8 00 00 00 00	 call	 __EH_prolog3
  0000c	8b f1		 mov	 esi, ecx
  0000e	89 75 f0	 mov	 DWORD PTR _this$[ebp], esi
  00011	8d 4e 0c	 lea	 ecx, DWORD PTR [esi+12]
  00014	c7 06 00 00 00
	00		 mov	 DWORD PTR [esi], OFFSET ??_7?$CEncrypt@M@@6B@
  0001a	e8 00 00 00 00	 call	 ??0ccddaabb@@QAE@XZ	; ccddaabb::ccddaabb
  0001f	83 65 fc 00	 and	 DWORD PTR __$EHRec$[ebp+8], 0

; 110  : 	{
; 111  : 		Init();

  00023	8b ce		 mov	 ecx, esi
  00025	e8 00 00 00 00	 call	 ?Init@?$CEncrypt@M@@AAEXXZ ; CEncrypt<float>::Init

; 112  : 	}

  0002a	8b c6		 mov	 eax, esi
  0002c	e8 00 00 00 00	 call	 __EH_epilog3
  00031	c3		 ret	 0
_TEXT	ENDS
;	COMDAT text$x
text$x	SEGMENT
__unwindfunclet$??0?$CEncrypt@M@@QAE@XZ$0:
  00000	8b 4d f0	 mov	 ecx, DWORD PTR _this$[ebp]
  00003	83 c1 0c	 add	 ecx, 12			; 0000000cH
  00006	e9 00 00 00 00	 jmp	 ??1ccddaabb@@UAE@XZ	; ccddaabb::~ccddaabb
__ehhandler$??0?$CEncrypt@M@@QAE@XZ:
  0000b	8b 54 24 08	 mov	 edx, DWORD PTR [esp+8]
  0000f	8d 42 0c	 lea	 eax, DWORD PTR [edx+12]
  00012	8b 4a ec	 mov	 ecx, DWORD PTR [edx-20]
  00015	33 c8		 xor	 ecx, eax
  00017	e8 00 00 00 00	 call	 @__security_check_cookie@4
  0001c	b8 00 00 00 00	 mov	 eax, OFFSET __ehfuncinfo$??0?$CEncrypt@M@@QAE@XZ
  00021	e9 00 00 00 00	 jmp	 ___CxxFrameHandler3
text$x	ENDS
??0?$CEncrypt@M@@QAE@XZ ENDP				; CEncrypt<float>::CEncrypt<float>
PUBLIC	??B?$CEncrypt@M@@QAEMXZ				; CEncrypt<float>::operator float
; Function compile flags: /Ogsp
;	COMDAT ??B?$CEncrypt@M@@QAEMXZ
_TEXT	SEGMENT
_value$ = -4						; size = 4
??B?$CEncrypt@M@@QAEMXZ PROC				; CEncrypt<float>::operator float, COMDAT
; _this$ = ecx

; 134  : 	{

  00000	55		 push	 ebp
  00001	8b ec		 mov	 ebp, esp
  00003	51		 push	 ecx

; 135  : 		type value;
; 136  : 		DecryptValueToPool(&value);

  00004	8d 45 fc	 lea	 eax, DWORD PTR _value$[ebp]
  00007	50		 push	 eax
  00008	e8 00 00 00 00	 call	 ?DecryptValueToPool@?$CEncrypt@M@@QAEXPAM@Z ; CEncrypt<float>::DecryptValueToPool

; 137  : 
; 138  : #ifdef _NOTUSE
; 139  : 		Debug();
; 140  : #endif
; 141  : 		return value;

  0000d	d9 45 fc	 fld	 DWORD PTR _value$[ebp]

; 142  : 	}

  00010	c9		 leave
  00011	c3		 ret	 0
??B?$CEncrypt@M@@QAEMXZ ENDP				; CEncrypt<float>::operator float
_TEXT	ENDS
PUBLIC	??B?$CEncrypt@M@@QBEMXZ				; CEncrypt<float>::operator float
; Function compile flags: /Ogsp
;	COMDAT ??B?$CEncrypt@M@@QBEMXZ
_TEXT	SEGMENT
_value$ = -4						; size = 4
??B?$CEncrypt@M@@QBEMXZ PROC				; CEncrypt<float>::operator float, COMDAT
; _this$ = ecx

; 145  : 	{

  00000	55		 push	 ebp
  00001	8b ec		 mov	 ebp, esp
  00003	51		 push	 ecx

; 146  : 		//UJ 130829, const    --start
; 147  : 		type value;
; 148  : 		CEncrypt<type>* pThis = const_cast<CEncrypt<type>*>(this);
; 149  : 		pThis->DecryptValueToPool(&value);

  00004	8d 45 fc	 lea	 eax, DWORD PTR _value$[ebp]
  00007	50		 push	 eax
  00008	e8 00 00 00 00	 call	 ?DecryptValueToPool@?$CEncrypt@M@@QAEXPAM@Z ; CEncrypt<float>::DecryptValueToPool

; 150  : 		//// const DecryptValueToPool     .
; 151  :  		//type value;
; 152  : 		//char szTempMem[MAX_ENCRYPT];
; 153  : 		//m_RC5.DecryptByte( m_MemPool, szTempMem, max(m_ValueSize, DEFAULT_ENCRYPT) );
; 154  : 		//memcpy( &value, szTempMem, m_ValueSize );
; 155  : 		//UJ --end
; 156  : 
; 157  : #ifdef _NOTUSE
; 158  : 		Debug();
; 159  : #endif
; 160  : 		return value;

  0000d	d9 45 fc	 fld	 DWORD PTR _value$[ebp]

; 161  : 	}

  00010	c9		 leave
  00011	c3		 ret	 0
??B?$CEncrypt@M@@QBEMXZ ENDP				; CEncrypt<float>::operator float
_TEXT	ENDS
PUBLIC	??4?$CEncrypt@M@@QAEMM@Z			; CEncrypt<float>::operator=
; Function compile flags: /Ogsp
;	COMDAT ??4?$CEncrypt@M@@QAEMM@Z
_TEXT	SEGMENT
_value$ = 8						; size = 4
_inValue$ = 8						; size = 4
??4?$CEncrypt@M@@QAEMM@Z PROC				; CEncrypt<float>::operator=, COMDAT
; _this$ = ecx

; 1654 : 	{	

  00000	55		 push	 ebp
  00001	8b ec		 mov	 ebp, esp

; 1655 : 		type value = inValue;

  00003	d9 45 08	 fld	 DWORD PTR _inValue$[ebp]

; 1656 : 		EncryptValueToPool((char*)&value);

  00006	8d 45 08	 lea	 eax, DWORD PTR _value$[ebp]
  00009	50		 push	 eax
  0000a	d9 5d 08	 fstp	 DWORD PTR _value$[ebp]
  0000d	e8 00 00 00 00	 call	 ?EncryptValueToPool@?$CEncrypt@M@@AAEXPBD@Z ; CEncrypt<float>::EncryptValueToPool

; 1657 : #ifdef _NOTUSE
; 1658 : 		m_value = inValue;
; 1659 : 		Debug();
; 1660 : #endif
; 1661 : 		return value;

  00012	d9 45 08	 fld	 DWORD PTR _value$[ebp]

; 1662 : 	}

  00015	5d		 pop	 ebp
  00016	c2 04 00	 ret	 4
??4?$CEncrypt@M@@QAEMM@Z ENDP				; CEncrypt<float>::operator=
_TEXT	ENDS
PUBLIC	??0?$CEncrypt@K@@QAE@XZ				; CEncrypt<unsigned long>::CEncrypt<unsigned long>
;	COMDAT xdata$x
xdata$x	SEGMENT
__unwindtable$??0?$CEncrypt@K@@QAE@XZ DD 0ffffffffH
	DD	FLAT:__unwindfunclet$??0?$CEncrypt@K@@QAE@XZ$0
__ehfuncinfo$??0?$CEncrypt@K@@QAE@XZ DD 019930522H
	DD	01H
	DD	FLAT:__unwindtable$??0?$CEncrypt@K@@QAE@XZ
	DD	2 DUP(00H)
	DD	2 DUP(00H)
	DD	00H
	DD	01H
; Function compile flags: /Ogsp
xdata$x	ENDS
;	COMDAT ??0?$CEncrypt@K@@QAE@XZ
_TEXT	SEGMENT
_this$ = -16						; size = 4
__$EHRec$ = -12						; size = 12
??0?$CEncrypt@K@@QAE@XZ PROC				; CEncrypt<unsigned long>::CEncrypt<unsigned long>, COMDAT
; _this$ = ecx

; 109  : 	CEncrypt()

  00000	6a 04		 push	 4
  00002	b8 00 00 00 00	 mov	 eax, __ehhandler$??0?$CEncrypt@K@@QAE@XZ
  00007	e8 00 00 00 00	 call	 __EH_prolog3
  0000c	8b f1		 mov	 esi, ecx
  0000e	89 75 f0	 mov	 DWORD PTR _this$[ebp], esi
  00011	8d 4e 0c	 lea	 ecx, DWORD PTR [esi+12]
  00014	c7 06 00 00 00
	00		 mov	 DWORD PTR [esi], OFFSET ??_7?$CEncrypt@K@@6B@
  0001a	e8 00 00 00 00	 call	 ??0ccddaabb@@QAE@XZ	; ccddaabb::ccddaabb
  0001f	83 65 fc 00	 and	 DWORD PTR __$EHRec$[ebp+8], 0

; 110  : 	{
; 111  : 		Init();

  00023	8b ce		 mov	 ecx, esi
  00025	e8 00 00 00 00	 call	 ?Init@?$CEncrypt@K@@AAEXXZ ; CEncrypt<unsigned long>::Init

; 112  : 	}

  0002a	8b c6		 mov	 eax, esi
  0002c	e8 00 00 00 00	 call	 __EH_epilog3
  00031	c3		 ret	 0
_TEXT	ENDS
;	COMDAT text$x
text$x	SEGMENT
__unwindfunclet$??0?$CEncrypt@K@@QAE@XZ$0:
  00000	8b 4d f0	 mov	 ecx, DWORD PTR _this$[ebp]
  00003	83 c1 0c	 add	 ecx, 12			; 0000000cH
  00006	e9 00 00 00 00	 jmp	 ??1ccddaabb@@UAE@XZ	; ccddaabb::~ccddaabb
__ehhandler$??0?$CEncrypt@K@@QAE@XZ:
  0000b	8b 54 24 08	 mov	 edx, DWORD PTR [esp+8]
  0000f	8d 42 0c	 lea	 eax, DWORD PTR [edx+12]
  00012	8b 4a ec	 mov	 ecx, DWORD PTR [edx-20]
  00015	33 c8		 xor	 ecx, eax
  00017	e8 00 00 00 00	 call	 @__security_check_cookie@4
  0001c	b8 00 00 00 00	 mov	 eax, OFFSET __ehfuncinfo$??0?$CEncrypt@K@@QAE@XZ
  00021	e9 00 00 00 00	 jmp	 ___CxxFrameHandler3
text$x	ENDS
??0?$CEncrypt@K@@QAE@XZ ENDP				; CEncrypt<unsigned long>::CEncrypt<unsigned long>
PUBLIC	??B?$CEncrypt@K@@QBEKXZ				; CEncrypt<unsigned long>::operator unsigned long
; Function compile flags: /Ogsp
;	COMDAT ??B?$CEncrypt@K@@QBEKXZ
_TEXT	SEGMENT
_value$ = -4						; size = 4
??B?$CEncrypt@K@@QBEKXZ PROC				; CEncrypt<unsigned long>::operator unsigned long, COMDAT
; _this$ = ecx

; 145  : 	{

  00000	55		 push	 ebp
  00001	8b ec		 mov	 ebp, esp
  00003	51		 push	 ecx

; 146  : 		//UJ 130829, const    --start
; 147  : 		type value;
; 148  : 		CEncrypt<type>* pThis = const_cast<CEncrypt<type>*>(this);
; 149  : 		pThis->DecryptValueToPool(&value);

  00004	8d 45 fc	 lea	 eax, DWORD PTR _value$[ebp]
  00007	50		 push	 eax
  00008	e8 00 00 00 00	 call	 ?DecryptValueToPool@?$CEncrypt@K@@QAEXPAK@Z ; CEncrypt<unsigned long>::DecryptValueToPool

; 150  : 		//// const DecryptValueToPool     .
; 151  :  		//type value;
; 152  : 		//char szTempMem[MAX_ENCRYPT];
; 153  : 		//m_RC5.DecryptByte( m_MemPool, szTempMem, max(m_ValueSize, DEFAULT_ENCRYPT) );
; 154  : 		//memcpy( &value, szTempMem, m_ValueSize );
; 155  : 		//UJ --end
; 156  : 
; 157  : #ifdef _NOTUSE
; 158  : 		Debug();
; 159  : #endif
; 160  : 		return value;

  0000d	8b 45 fc	 mov	 eax, DWORD PTR _value$[ebp]

; 161  : 	}

  00010	c9		 leave
  00011	c3		 ret	 0
??B?$CEncrypt@K@@QBEKXZ ENDP				; CEncrypt<unsigned long>::operator unsigned long
_TEXT	ENDS
PUBLIC	??4?$CEncrypt@K@@QAEKK@Z			; CEncrypt<unsigned long>::operator=
; Function compile flags: /Ogsp
;	COMDAT ??4?$CEncrypt@K@@QAEKK@Z
_TEXT	SEGMENT
_value$ = 8						; size = 4
_inValue$ = 8						; size = 4
??4?$CEncrypt@K@@QAEKK@Z PROC				; CEncrypt<unsigned long>::operator=, COMDAT
; _this$ = ecx

; 1262 : 	{

  00000	55		 push	 ebp
  00001	8b ec		 mov	 ebp, esp

; 1263 : 		
; 1264 : 		type value = inValue;

  00003	8b 45 08	 mov	 eax, DWORD PTR _inValue$[ebp]
  00006	89 45 08	 mov	 DWORD PTR _value$[ebp], eax

; 1265 : 		EncryptValueToPool((char*)&value);

  00009	8d 45 08	 lea	 eax, DWORD PTR _value$[ebp]
  0000c	50		 push	 eax
  0000d	e8 00 00 00 00	 call	 ?EncryptValueToPool@?$CEncrypt@K@@AAEXPBD@Z ; CEncrypt<unsigned long>::EncryptValueToPool

; 1266 : #ifdef _NOTUSE
; 1267 : 		m_value = inValue;
; 1268 : 		Debug();
; 1269 : #endif
; 1270 : 		return value;

  00012	8b 45 08	 mov	 eax, DWORD PTR _value$[ebp]

; 1271 : 	}

  00015	5d		 pop	 ebp
  00016	c2 04 00	 ret	 4
??4?$CEncrypt@K@@QAEKK@Z ENDP				; CEncrypt<unsigned long>::operator=
_TEXT	ENDS
PUBLIC	??B?$CEncrypt@_N@@QBE_NXZ			; CEncrypt<bool>::operator bool
; Function compile flags: /Ogsp
;	COMDAT ??B?$CEncrypt@_N@@QBE_NXZ
_TEXT	SEGMENT
_value$ = -1						; size = 1
??B?$CEncrypt@_N@@QBE_NXZ PROC				; CEncrypt<bool>::operator bool, COMDAT
; _this$ = ecx

; 145  : 	{

  00000	55		 push	 ebp
  00001	8b ec		 mov	 ebp, esp
  00003	51		 push	 ecx

; 146  : 		//UJ 130829, const    --start
; 147  : 		type value;
; 148  : 		CEncrypt<type>* pThis = const_cast<CEncrypt<type>*>(this);
; 149  : 		pThis->DecryptValueToPool(&value);

  00004	8d 45 ff	 lea	 eax, DWORD PTR _value$[ebp]
  00007	50		 push	 eax
  00008	e8 00 00 00 00	 call	 ?DecryptValueToPool@?$CEncrypt@_N@@QAEXPA_N@Z ; CEncrypt<bool>::DecryptValueToPool

; 150  : 		//// const DecryptValueToPool     .
; 151  :  		//type value;
; 152  : 		//char szTempMem[MAX_ENCRYPT];
; 153  : 		//m_RC5.DecryptByte( m_MemPool, szTempMem, max(m_ValueSize, DEFAULT_ENCRYPT) );
; 154  : 		//memcpy( &value, szTempMem, m_ValueSize );
; 155  : 		//UJ --end
; 156  : 
; 157  : #ifdef _NOTUSE
; 158  : 		Debug();
; 159  : #endif
; 160  : 		return value;

  0000d	8a 45 ff	 mov	 al, BYTE PTR _value$[ebp]

; 161  : 	}

  00010	c9		 leave
  00011	c3		 ret	 0
??B?$CEncrypt@_N@@QBE_NXZ ENDP				; CEncrypt<bool>::operator bool
_TEXT	ENDS
PUBLIC	??0?$CEncrypt@H@@QAE@XZ				; CEncrypt<int>::CEncrypt<int>
;	COMDAT xdata$x
xdata$x	SEGMENT
__unwindtable$??0?$CEncrypt@H@@QAE@XZ DD 0ffffffffH
	DD	FLAT:__unwindfunclet$??0?$CEncrypt@H@@QAE@XZ$0
__ehfuncinfo$??0?$CEncrypt@H@@QAE@XZ DD 019930522H
	DD	01H
	DD	FLAT:__unwindtable$??0?$CEncrypt@H@@QAE@XZ
	DD	2 DUP(00H)
	DD	2 DUP(00H)
	DD	00H
	DD	01H
; Function compile flags: /Ogsp
xdata$x	ENDS
;	COMDAT ??0?$CEncrypt@H@@QAE@XZ
_TEXT	SEGMENT
_this$ = -16						; size = 4
__$EHRec$ = -12						; size = 12
??0?$CEncrypt@H@@QAE@XZ PROC				; CEncrypt<int>::CEncrypt<int>, COMDAT
; _this$ = ecx

; 109  : 	CEncrypt()

  00000	6a 04		 push	 4
  00002	b8 00 00 00 00	 mov	 eax, __ehhandler$??0?$CEncrypt@H@@QAE@XZ
  00007	e8 00 00 00 00	 call	 __EH_prolog3
  0000c	8b f1		 mov	 esi, ecx
  0000e	89 75 f0	 mov	 DWORD PTR _this$[ebp], esi
  00011	8d 4e 0c	 lea	 ecx, DWORD PTR [esi+12]
  00014	c7 06 00 00 00
	00		 mov	 DWORD PTR [esi], OFFSET ??_7?$CEncrypt@H@@6B@
  0001a	e8 00 00 00 00	 call	 ??0ccddaabb@@QAE@XZ	; ccddaabb::ccddaabb
  0001f	83 65 fc 00	 and	 DWORD PTR __$EHRec$[ebp+8], 0

; 110  : 	{
; 111  : 		Init();

  00023	8b ce		 mov	 ecx, esi
  00025	e8 00 00 00 00	 call	 ?Init@?$CEncrypt@H@@AAEXXZ ; CEncrypt<int>::Init

; 112  : 	}

  0002a	8b c6		 mov	 eax, esi
  0002c	e8 00 00 00 00	 call	 __EH_epilog3
  00031	c3		 ret	 0
_TEXT	ENDS
;	COMDAT text$x
text$x	SEGMENT
__unwindfunclet$??0?$CEncrypt@H@@QAE@XZ$0:
  00000	8b 4d f0	 mov	 ecx, DWORD PTR _this$[ebp]
  00003	83 c1 0c	 add	 ecx, 12			; 0000000cH
  00006	e9 00 00 00 00	 jmp	 ??1ccddaabb@@UAE@XZ	; ccddaabb::~ccddaabb
__ehhandler$??0?$CEncrypt@H@@QAE@XZ:
  0000b	8b 54 24 08	 mov	 edx, DWORD PTR [esp+8]
  0000f	8d 42 0c	 lea	 eax, DWORD PTR [edx+12]
  00012	8b 4a ec	 mov	 ecx, DWORD PTR [edx-20]
  00015	33 c8		 xor	 ecx, eax
  00017	e8 00 00 00 00	 call	 @__security_check_cookie@4
  0001c	b8 00 00 00 00	 mov	 eax, OFFSET __ehfuncinfo$??0?$CEncrypt@H@@QAE@XZ
  00021	e9 00 00 00 00	 jmp	 ___CxxFrameHandler3
text$x	ENDS
??0?$CEncrypt@H@@QAE@XZ ENDP				; CEncrypt<int>::CEncrypt<int>
PUBLIC	??B?$CEncrypt@H@@QAEHXZ				; CEncrypt<int>::operator int
; Function compile flags: /Ogsp
;	COMDAT ??B?$CEncrypt@H@@QAEHXZ
_TEXT	SEGMENT
_value$ = -4						; size = 4
??B?$CEncrypt@H@@QAEHXZ PROC				; CEncrypt<int>::operator int, COMDAT
; _this$ = ecx

; 134  : 	{

  00000	55		 push	 ebp
  00001	8b ec		 mov	 ebp, esp
  00003	51		 push	 ecx

; 135  : 		type value;
; 136  : 		DecryptValueToPool(&value);

  00004	8d 45 fc	 lea	 eax, DWORD PTR _value$[ebp]
  00007	50		 push	 eax
  00008	e8 00 00 00 00	 call	 ?DecryptValueToPool@?$CEncrypt@H@@QAEXPAH@Z ; CEncrypt<int>::DecryptValueToPool

; 137  : 
; 138  : #ifdef _NOTUSE
; 139  : 		Debug();
; 140  : #endif
; 141  : 		return value;

  0000d	8b 45 fc	 mov	 eax, DWORD PTR _value$[ebp]

; 142  : 	}

  00010	c9		 leave
  00011	c3		 ret	 0
??B?$CEncrypt@H@@QAEHXZ ENDP				; CEncrypt<int>::operator int
_TEXT	ENDS
PUBLIC	??B?$CEncrypt@H@@QBEHXZ				; CEncrypt<int>::operator int
; Function compile flags: /Ogsp
;	COMDAT ??B?$CEncrypt@H@@QBEHXZ
_TEXT	SEGMENT
_value$ = -4						; size = 4
??B?$CEncrypt@H@@QBEHXZ PROC				; CEncrypt<int>::operator int, COMDAT
; _this$ = ecx

; 145  : 	{

  00000	55		 push	 ebp
  00001	8b ec		 mov	 ebp, esp
  00003	51		 push	 ecx

; 146  : 		//UJ 130829, const    --start
; 147  : 		type value;
; 148  : 		CEncrypt<type>* pThis = const_cast<CEncrypt<type>*>(this);
; 149  : 		pThis->DecryptValueToPool(&value);

  00004	8d 45 fc	 lea	 eax, DWORD PTR _value$[ebp]
  00007	50		 push	 eax
  00008	e8 00 00 00 00	 call	 ?DecryptValueToPool@?$CEncrypt@H@@QAEXPAH@Z ; CEncrypt<int>::DecryptValueToPool

; 150  : 		//// const DecryptValueToPool     .
; 151  :  		//type value;
; 152  : 		//char szTempMem[MAX_ENCRYPT];
; 153  : 		//m_RC5.DecryptByte( m_MemPool, szTempMem, max(m_ValueSize, DEFAULT_ENCRYPT) );
; 154  : 		//memcpy( &value, szTempMem, m_ValueSize );
; 155  : 		//UJ --end
; 156  : 
; 157  : #ifdef _NOTUSE
; 158  : 		Debug();
; 159  : #endif
; 160  : 		return value;

  0000d	8b 45 fc	 mov	 eax, DWORD PTR _value$[ebp]

; 161  : 	}

  00010	c9		 leave
  00011	c3		 ret	 0
??B?$CEncrypt@H@@QBEHXZ ENDP				; CEncrypt<int>::operator int
_TEXT	ENDS
PUBLIC	??E?$CEncrypt@H@@QAEHH@Z			; CEncrypt<int>::operator++
; Function compile flags: /Ogsp
;	COMDAT ??E?$CEncrypt@H@@QAEHH@Z
_TEXT	SEGMENT
_value$ = -4						; size = 4
___formal$ = 8						; size = 4
??E?$CEncrypt@H@@QAEHH@Z PROC				; CEncrypt<int>::operator++, COMDAT
; _this$ = ecx

; 190  : 	{

  00000	55		 push	 ebp
  00001	8b ec		 mov	 ebp, esp
  00003	51		 push	 ecx
  00004	56		 push	 esi

; 191  : 		type value;
; 192  : 		DecryptValueToPool(&value);

  00005	8d 45 fc	 lea	 eax, DWORD PTR _value$[ebp]
  00008	50		 push	 eax
  00009	8b f1		 mov	 esi, ecx
  0000b	e8 00 00 00 00	 call	 ?DecryptValueToPool@?$CEncrypt@H@@QAEXPAH@Z ; CEncrypt<int>::DecryptValueToPool

; 193  : 		++value;

  00010	ff 45 fc	 inc	 DWORD PTR _value$[ebp]

; 194  : 		EncryptValueToPool((char*)&value);

  00013	8d 45 fc	 lea	 eax, DWORD PTR _value$[ebp]
  00016	50		 push	 eax
  00017	8b ce		 mov	 ecx, esi
  00019	e8 00 00 00 00	 call	 ?EncryptValueToPool@?$CEncrypt@H@@AAEXPBD@Z ; CEncrypt<int>::EncryptValueToPool

; 195  : #ifdef _NOTUSE
; 196  : 		++m_value;
; 197  : 		Debug();
; 198  : #endif
; 199  : 		return value;

  0001e	8b 45 fc	 mov	 eax, DWORD PTR _value$[ebp]
  00021	5e		 pop	 esi

; 200  : 	}	

  00022	c9		 leave
  00023	c2 04 00	 ret	 4
??E?$CEncrypt@H@@QAEHH@Z ENDP				; CEncrypt<int>::operator++
_TEXT	ENDS
PUBLIC	??4?$CEncrypt@H@@QAEHH@Z			; CEncrypt<int>::operator=
; Function compile flags: /Ogsp
;	COMDAT ??4?$CEncrypt@H@@QAEHH@Z
_TEXT	SEGMENT
_value$ = 8						; size = 4
_inValue$ = 8						; size = 4
??4?$CEncrypt@H@@QAEHH@Z PROC				; CEncrypt<int>::operator=, COMDAT
; _this$ = ecx

; 843  : 	{

  00000	55		 push	 ebp
  00001	8b ec		 mov	 ebp, esp

; 844  : 		type value = inValue;

  00003	8b 45 08	 mov	 eax, DWORD PTR _inValue$[ebp]
  00006	89 45 08	 mov	 DWORD PTR _value$[ebp], eax

; 845  : 		EncryptValueToPool((char*)&value);

  00009	8d 45 08	 lea	 eax, DWORD PTR _value$[ebp]
  0000c	50		 push	 eax
  0000d	e8 00 00 00 00	 call	 ?EncryptValueToPool@?$CEncrypt@H@@AAEXPBD@Z ; CEncrypt<int>::EncryptValueToPool

; 846  : #ifdef _NOTUSE
; 847  : 		m_value = inValue;
; 848  : 		Debug();
; 849  : #endif
; 850  : 		return value;

  00012	8b 45 08	 mov	 eax, DWORD PTR _value$[ebp]

; 851  : 	}

  00015	5d		 pop	 ebp
  00016	c2 04 00	 ret	 4
??4?$CEncrypt@H@@QAEHH@Z ENDP				; CEncrypt<int>::operator=
_TEXT	ENDS
PUBLIC	??0?$_String_val@DV?$allocator@D@std@@@std@@QAE@V?$allocator@D@1@@Z ; std::_String_val<char,std::allocator<char> >::_String_val<char,std::allocator<char> >
; Function compile flags: /Ogsp
; File c:\program files (x86)\microsoft visual studio 10.0\vc\include\xstring
;	COMDAT ??0?$_String_val@DV?$allocator@D@std@@@std@@QAE@V?$allocator@D@1@@Z
_TEXT	SEGMENT
__Al$ = 8						; size = 1
??0?$_String_val@DV?$allocator@D@std@@@std@@QAE@V?$allocator@D@1@@Z PROC ; std::_String_val<char,std::allocator<char> >::_String_val<char,std::allocator<char> >, COMDAT
; _this$ = ecx

; 454  : 		{	// construct allocator from _Al

  00000	8b c1		 mov	 eax, ecx

; 455  : 		}

  00002	c2 04 00	 ret	 4
??0?$_String_val@DV?$allocator@D@std@@@std@@QAE@V?$allocator@D@1@@Z ENDP ; std::_String_val<char,std::allocator<char> >::_String_val<char,std::allocator<char> >
_TEXT	ENDS
PUBLIC	?_Eos@?$basic_string@DU?$char_traits@D@std@@V?$allocator@D@2@@std@@QAEXI@Z ; std::basic_string<char,std::char_traits<char>,std::allocator<char> >::_Eos
; Function compile flags: /Ogsp
;	COMDAT ?_Eos@?$basic_string@DU?$char_traits@D@std@@V?$allocator@D@2@@std@@QAEXI@Z
_TEXT	SEGMENT
__Newsize$ = 8						; size = 4
?_Eos@?$basic_string@DU?$char_traits@D@std@@V?$allocator@D@2@@std@@QAEXI@Z PROC ; std::basic_string<char,std::char_traits<char>,std::allocator<char> >::_Eos, COMDAT
; _this$ = ecx

; 1953 : 		{	// set new length and null terminator

  00000	55		 push	 ebp
  00001	8b ec		 mov	 ebp, esp

; 1954 : 		_Traits::assign(_Myptr()[this->_Mysize = _Newsize], _Elem());

  00003	83 79 14 10	 cmp	 DWORD PTR [ecx+20], 16	; 00000010H
  00007	8b 45 08	 mov	 eax, DWORD PTR __Newsize$[ebp]
  0000a	89 41 10	 mov	 DWORD PTR [ecx+16], eax
  0000d	72 02		 jb	 SHORT $LN5@Eos
  0000f	8b 09		 mov	 ecx, DWORD PTR [ecx]
$LN5@Eos:
  00011	c6 04 01 00	 mov	 BYTE PTR [ecx+eax], 0

; 1955 : 		}

  00015	5d		 pop	 ebp
  00016	c2 04 00	 ret	 4
?_Eos@?$basic_string@DU?$char_traits@D@std@@V?$allocator@D@2@@std@@QAEXI@Z ENDP ; std::basic_string<char,std::char_traits<char>,std::allocator<char> >::_Eos
_TEXT	ENDS
PUBLIC	?max_size@?$basic_string@DU?$char_traits@D@std@@V?$allocator@D@2@@std@@QBEIXZ ; std::basic_string<char,std::char_traits<char>,std::allocator<char> >::max_size
; Function compile flags: /Ogsp
;	COMDAT ?max_size@?$basic_string@DU?$char_traits@D@std@@V?$allocator@D@2@@std@@QBEIXZ
_TEXT	SEGMENT
?max_size@?$basic_string@DU?$char_traits@D@std@@V?$allocator@D@2@@std@@QBEIXZ PROC ; std::basic_string<char,std::char_traits<char>,std::allocator<char> >::max_size, COMDAT
; _this$ = ecx

; 1517 : 		size_type _Num = this->_Alval.max_size();
; 1518 : 		return (_Num <= 1 ? 1 : _Num - 1);

  00000	6a fe		 push	 -2			; fffffffeH
  00002	58		 pop	 eax

; 1519 : 		}

  00003	c3		 ret	 0
?max_size@?$basic_string@DU?$char_traits@D@std@@V?$allocator@D@2@@std@@QBEIXZ ENDP ; std::basic_string<char,std::char_traits<char>,std::allocator<char> >::max_size
_TEXT	ENDS
PUBLIC	?allocate@?$allocator@D@std@@QAEPADI@Z		; std::allocator<char>::allocate
; Function compile flags: /Ogsp
; File c:\program files (x86)\microsoft visual studio 10.0\vc\include\xmemory
;	COMDAT ?allocate@?$allocator@D@std@@QAEPADI@Z
_TEXT	SEGMENT
__Count$ = 8						; size = 4
?allocate@?$allocator@D@std@@QAEPADI@Z PROC		; std::allocator<char>::allocate, COMDAT
; _this$ = ecx

; 186  : 		{	// allocate array of _Count elements

  00000	55		 push	 ebp
  00001	8b ec		 mov	 ebp, esp

; 187  : 		return (_Allocate(_Count, (pointer)0));

  00003	6a 00		 push	 0
  00005	ff 75 08	 push	 DWORD PTR __Count$[ebp]
  00008	e8 00 00 00 00	 call	 ??$_Allocate@D@std@@YAPADIPAD@Z ; std::_Allocate<char>
  0000d	59		 pop	 ecx
  0000e	59		 pop	 ecx

; 188  : 		}

  0000f	5d		 pop	 ebp
  00010	c2 04 00	 ret	 4
?allocate@?$allocator@D@std@@QAEPADI@Z ENDP		; std::allocator<char>::allocate
_TEXT	ENDS
PUBLIC	?GetExperienceMode@ioBaseChar@@QBE?BKXZ		; ioBaseChar::GetExperienceMode
; Function compile flags: /Ogsp
; File d:\lost saga for developer\youtube\tutorial\source\src\lsclient\iobasechar.h
;	COMDAT ?GetExperienceMode@ioBaseChar@@QBE?BKXZ
_TEXT	SEGMENT
_value$558101 = -4					; size = 4
?GetExperienceMode@ioBaseChar@@QBE?BKXZ PROC		; ioBaseChar::GetExperienceMode, COMDAT
; _this$ = ecx

; 3193 : 	inline const DWORD GetExperienceMode() const { return m_ExperienceMode; }

  00000	55		 push	 ebp
  00001	8b ec		 mov	 ebp, esp
  00003	51		 push	 ecx
  00004	8d 45 fc	 lea	 eax, DWORD PTR _value$558101[ebp]
  00007	50		 push	 eax
  00008	81 c1 94 1d 00
	00		 add	 ecx, 7572		; 00001d94H
  0000e	e8 00 00 00 00	 call	 ?DecryptValueToPool@?$CEncrypt@K@@QAEXPAK@Z ; CEncrypt<unsigned long>::DecryptValueToPool
  00013	8b 45 fc	 mov	 eax, DWORD PTR _value$558101[ebp]
  00016	c9		 leave
  00017	c3		 ret	 0
?GetExperienceMode@ioBaseChar@@QBE?BKXZ ENDP		; ioBaseChar::GetExperienceMode
_TEXT	ENDS
PUBLIC	??0ioFireSkill2@@QAE@XZ				; ioFireSkill2::ioFireSkill2
EXTRN	??0ioAttackSkill@@QAE@XZ:PROC			; ioAttackSkill::ioAttackSkill
;	COMDAT xdata$x
; File d:\lost saga for developer\youtube\tutorial\source\src\lsclient\encryptvalue.h
xdata$x	SEGMENT
__ehfuncinfo$??0ioFireSkill2@@QAE@XZ DD 019930522H
	DD	011H
	DD	FLAT:__unwindtable$??0ioFireSkill2@@QAE@XZ
	DD	2 DUP(00H)
	DD	2 DUP(00H)
	DD	00H
	DD	01H
__unwindtable$??0ioFireSkill2@@QAE@XZ DD 0ffffffffH
	DD	FLAT:__unwindfunclet$??0ioFireSkill2@@QAE@XZ$0
	DD	00H
	DD	FLAT:__unwindfunclet$??0ioFireSkill2@@QAE@XZ$1
	DD	01H
	DD	FLAT:__unwindfunclet$??0ioFireSkill2@@QAE@XZ$2
	DD	02H
	DD	FLAT:__unwindfunclet$??0ioFireSkill2@@QAE@XZ$3
	DD	03H
	DD	FLAT:__unwindfunclet$??0ioFireSkill2@@QAE@XZ$4
	DD	04H
	DD	FLAT:__unwindfunclet$??0ioFireSkill2@@QAE@XZ$5
	DD	05H
	DD	FLAT:__unwindfunclet$??0ioFireSkill2@@QAE@XZ$6
	DD	06H
	DD	FLAT:__unwindfunclet$??0ioFireSkill2@@QAE@XZ$7
	DD	07H
	DD	FLAT:__unwindfunclet$??0ioFireSkill2@@QAE@XZ$8
	DD	08H
	DD	FLAT:__unwindfunclet$??0ioFireSkill2@@QAE@XZ$9
	DD	09H
	DD	FLAT:__unwindfunclet$??0ioFireSkill2@@QAE@XZ$10
	DD	0aH
	DD	FLAT:__unwindfunclet$??0ioFireSkill2@@QAE@XZ$11
	DD	0bH
	DD	FLAT:__unwindfunclet$??0ioFireSkill2@@QAE@XZ$12
	DD	0cH
	DD	FLAT:__unwindfunclet$??0ioFireSkill2@@QAE@XZ$13
	DD	0dH
	DD	FLAT:__unwindfunclet$??0ioFireSkill2@@QAE@XZ$14
	DD	0eH
	DD	FLAT:__unwindfunclet$??0ioFireSkill2@@QAE@XZ$15
	DD	0fH
	DD	FLAT:__unwindfunclet$??0ioFireSkill2@@QAE@XZ$16
; Function compile flags: /Ogsp
; File d:\lost saga for developer\youtube\tutorial\source\src\lsclient\iofireskill2.cpp
xdata$x	ENDS
;	COMDAT ??0ioFireSkill2@@QAE@XZ
_TEXT	SEGMENT
_this$ = -20						; size = 4
_value$558128 = -16					; size = 4
__$EHRec$ = -12						; size = 12
??0ioFireSkill2@@QAE@XZ PROC				; ioFireSkill2::ioFireSkill2, COMDAT
; _this$ = ecx

; 13   : {

  00000	6a 08		 push	 8
  00002	b8 00 00 00 00	 mov	 eax, __ehhandler$??0ioFireSkill2@@QAE@XZ
  00007	e8 00 00 00 00	 call	 __EH_prolog3
  0000c	8b d9		 mov	 ebx, ecx
  0000e	89 5d ec	 mov	 DWORD PTR _this$[ebp], ebx
  00011	e8 00 00 00 00	 call	 ??0ioAttackSkill@@QAE@XZ ; ioAttackSkill::ioAttackSkill
  00016	83 65 fc 00	 and	 DWORD PTR __$EHRec$[ebp+8], 0
  0001a	8d 8b e8 10 00
	00		 lea	 ecx, DWORD PTR [ebx+4328]
  00020	c7 03 00 00 00
	00		 mov	 DWORD PTR [ebx], OFFSET ??_7ioFireSkill2@@6B@
  00026	e8 00 00 00 00	 call	 ??0?$CEncrypt@K@@QAE@XZ	; CEncrypt<unsigned long>::CEncrypt<unsigned long>
  0002b	8d 8b 1c 11 00
	00		 lea	 ecx, DWORD PTR [ebx+4380]
  00031	c6 45 fc 01	 mov	 BYTE PTR __$EHRec$[ebp+8], 1
  00035	e8 00 00 00 00	 call	 ??0?$CEncrypt@H@@QAE@XZ	; CEncrypt<int>::CEncrypt<int>
  0003a	8d 8b 4c 11 00
	00		 lea	 ecx, DWORD PTR [ebx+4428]
  00040	c6 45 fc 02	 mov	 BYTE PTR __$EHRec$[ebp+8], 2
  00044	e8 00 00 00 00	 call	 ??0?$CEncrypt@H@@QAE@XZ	; CEncrypt<int>::CEncrypt<int>
  00049	8d 8b 84 11 00
	00		 lea	 ecx, DWORD PTR [ebx+4484]
  0004f	c6 45 fc 03	 mov	 BYTE PTR __$EHRec$[ebp+8], 3
  00053	e8 00 00 00 00	 call	 ??0?$CEncrypt@M@@QAE@XZ	; CEncrypt<float>::CEncrypt<float>
  00058	8d 8b b4 11 00
	00		 lea	 ecx, DWORD PTR [ebx+4532]
  0005e	c6 45 fc 04	 mov	 BYTE PTR __$EHRec$[ebp+8], 4
  00062	e8 00 00 00 00	 call	 ??0?$CEncrypt@M@@QAE@XZ	; CEncrypt<float>::CEncrypt<float>
  00067	8d 8b e4 11 00
	00		 lea	 ecx, DWORD PTR [ebx+4580]
  0006d	c6 45 fc 05	 mov	 BYTE PTR __$EHRec$[ebp+8], 5
  00071	e8 00 00 00 00	 call	 ??0?$CEncrypt@M@@QAE@XZ	; CEncrypt<float>::CEncrypt<float>
  00076	8d 8b 14 12 00
	00		 lea	 ecx, DWORD PTR [ebx+4628]
  0007c	c6 45 fc 06	 mov	 BYTE PTR __$EHRec$[ebp+8], 6
  00080	e8 00 00 00 00	 call	 ??0?$CEncrypt@M@@QAE@XZ	; CEncrypt<float>::CEncrypt<float>
  00085	8d 8b 44 12 00
	00		 lea	 ecx, DWORD PTR [ebx+4676]
  0008b	c6 45 fc 07	 mov	 BYTE PTR __$EHRec$[ebp+8], 7
  0008f	e8 00 00 00 00	 call	 ??0?$CEncrypt@M@@QAE@XZ	; CEncrypt<float>::CEncrypt<float>
  00094	8d 8b 74 12 00
	00		 lea	 ecx, DWORD PTR [ebx+4724]
  0009a	c6 45 fc 08	 mov	 BYTE PTR __$EHRec$[ebp+8], 8
  0009e	e8 00 00 00 00	 call	 ??0?$CEncrypt@M@@QAE@XZ	; CEncrypt<float>::CEncrypt<float>
  000a3	8d 8b a4 12 00
	00		 lea	 ecx, DWORD PTR [ebx+4772]
  000a9	c6 45 fc 09	 mov	 BYTE PTR __$EHRec$[ebp+8], 9
  000ad	e8 00 00 00 00	 call	 ??0?$CEncrypt@M@@QAE@XZ	; CEncrypt<float>::CEncrypt<float>
  000b2	8b 35 00 00 00
	00		 mov	 esi, DWORD PTR __imp_??0ioHashString@@QAE@XZ
  000b8	8d 8b d4 12 00
	00		 lea	 ecx, DWORD PTR [ebx+4820]
  000be	c6 45 fc 0a	 mov	 BYTE PTR __$EHRec$[ebp+8], 10 ; 0000000aH
  000c2	ff d6		 call	 esi
  000c4	8d 8b f0 12 00
	00		 lea	 ecx, DWORD PTR [ebx+4848]
  000ca	c6 45 fc 0b	 mov	 BYTE PTR __$EHRec$[ebp+8], 11 ; 0000000bH
  000ce	ff d6		 call	 esi
  000d0	8d 8b 00 13 00
	00		 lea	 ecx, DWORD PTR [ebx+4864]
  000d6	c6 45 fc 0c	 mov	 BYTE PTR __$EHRec$[ebp+8], 12 ; 0000000cH
  000da	ff d6		 call	 esi
  000dc	8d 8b 10 13 00
	00		 lea	 ecx, DWORD PTR [ebx+4880]
  000e2	c6 45 fc 0d	 mov	 BYTE PTR __$EHRec$[ebp+8], 13 ; 0000000dH
  000e6	e8 00 00 00 00	 call	 ??0?$CEncrypt@M@@QAE@XZ	; CEncrypt<float>::CEncrypt<float>
  000eb	8d 8b 40 13 00
	00		 lea	 ecx, DWORD PTR [ebx+4928]
  000f1	c6 45 fc 0e	 mov	 BYTE PTR __$EHRec$[ebp+8], 14 ; 0000000eH
  000f5	e8 00 00 00 00	 call	 ??0?$CEncrypt@M@@QAE@XZ	; CEncrypt<float>::CEncrypt<float>
  000fa	8d 8b 70 13 00
	00		 lea	 ecx, DWORD PTR [ebx+4976]
  00100	c6 45 fc 0f	 mov	 BYTE PTR __$EHRec$[ebp+8], 15 ; 0000000fH
  00104	ff d6		 call	 esi

; 14   : 	m_bSetHandMesh = false;
; 15   : 
; 16   : 	m_SkillState = SS_NONE;

  00106	83 a3 e4 10 00
	00 00		 and	 DWORD PTR [ebx+4324], 0

; 17   : 	m_iCurFireCnt = 0;

  0010d	83 65 f0 00	 and	 DWORD PTR _value$558128[ebp], 0
  00111	8d 45 f0	 lea	 eax, DWORD PTR _value$558128[ebp]
  00114	50		 push	 eax
  00115	8d 8b 4c 11 00
	00		 lea	 ecx, DWORD PTR [ebx+4428]
  0011b	c6 45 fc 10	 mov	 BYTE PTR __$EHRec$[ebp+8], 16 ; 00000010H
  0011f	c6 83 0a 0f 00
	00 00		 mov	 BYTE PTR [ebx+3850], 0
  00126	e8 00 00 00 00	 call	 ?EncryptValueToPool@?$CEncrypt@H@@AAEXPBD@Z ; CEncrypt<int>::EncryptValueToPool

; 18   : 	m_vTargetPos = ioMath::VEC3_ZERO;

  0012b	8b 35 00 00 00
	00		 mov	 esi, DWORD PTR __imp_?VEC3_ZERO@ioMath@@2UD3DXVECTOR3@@A
  00131	8d bb e4 12 00
	00		 lea	 edi, DWORD PTR [ebx+4836]
  00137	a5		 movsd
  00138	a5		 movsd
  00139	a5		 movsd

; 19   : }

  0013a	8b c3		 mov	 eax, ebx
  0013c	e8 00 00 00 00	 call	 __EH_epilog3
  00141	c3		 ret	 0
_TEXT	ENDS
;	COMDAT text$x
text$x	SEGMENT
__unwindfunclet$??0ioFireSkill2@@QAE@XZ$0:
  00000	8b 4d ec	 mov	 ecx, DWORD PTR _this$[ebp]
  00003	e9 00 00 00 00	 jmp	 ??1ioAttackSkill@@UAE@XZ ; ioAttackSkill::~ioAttackSkill
__unwindfunclet$??0ioFireSkill2@@QAE@XZ$1:
  00008	8b 4d ec	 mov	 ecx, DWORD PTR _this$[ebp]
  0000b	81 c1 e8 10 00
	00		 add	 ecx, 4328		; 000010e8H
  00011	e9 00 00 00 00	 jmp	 ??1?$CEncrypt@K@@UAE@XZ	; CEncrypt<unsigned long>::~CEncrypt<unsigned long>
__unwindfunclet$??0ioFireSkill2@@QAE@XZ$2:
  00016	8b 4d ec	 mov	 ecx, DWORD PTR _this$[ebp]
  00019	81 c1 1c 11 00
	00		 add	 ecx, 4380		; 0000111cH
  0001f	e9 00 00 00 00	 jmp	 ??1?$CEncrypt@H@@UAE@XZ	; CEncrypt<int>::~CEncrypt<int>
__unwindfunclet$??0ioFireSkill2@@QAE@XZ$3:
  00024	8b 4d ec	 mov	 ecx, DWORD PTR _this$[ebp]
  00027	81 c1 4c 11 00
	00		 add	 ecx, 4428		; 0000114cH
  0002d	e9 00 00 00 00	 jmp	 ??1?$CEncrypt@H@@UAE@XZ	; CEncrypt<int>::~CEncrypt<int>
__unwindfunclet$??0ioFireSkill2@@QAE@XZ$4:
  00032	8b 4d ec	 mov	 ecx, DWORD PTR _this$[ebp]
  00035	81 c1 84 11 00
	00		 add	 ecx, 4484		; 00001184H
  0003b	e9 00 00 00 00	 jmp	 ??1?$CEncrypt@M@@UAE@XZ	; CEncrypt<float>::~CEncrypt<float>
__unwindfunclet$??0ioFireSkill2@@QAE@XZ$5:
  00040	8b 4d ec	 mov	 ecx, DWORD PTR _this$[ebp]
  00043	81 c1 b4 11 00
	00		 add	 ecx, 4532		; 000011b4H
  00049	e9 00 00 00 00	 jmp	 ??1?$CEncrypt@M@@UAE@XZ	; CEncrypt<float>::~CEncrypt<float>
__unwindfunclet$??0ioFireSkill2@@QAE@XZ$6:
  0004e	8b 4d ec	 mov	 ecx, DWORD PTR _this$[ebp]
  00051	81 c1 e4 11 00
	00		 add	 ecx, 4580		; 000011e4H
  00057	e9 00 00 00 00	 jmp	 ??1?$CEncrypt@M@@UAE@XZ	; CEncrypt<float>::~CEncrypt<float>
__unwindfunclet$??0ioFireSkill2@@QAE@XZ$7:
  0005c	8b 4d ec	 mov	 ecx, DWORD PTR _this$[ebp]
  0005f	81 c1 14 12 00
	00		 add	 ecx, 4628		; 00001214H
  00065	e9 00 00 00 00	 jmp	 ??1?$CEncrypt@M@@UAE@XZ	; CEncrypt<float>::~CEncrypt<float>
__unwindfunclet$??0ioFireSkill2@@QAE@XZ$8:
  0006a	8b 4d ec	 mov	 ecx, DWORD PTR _this$[ebp]
  0006d	81 c1 44 12 00
	00		 add	 ecx, 4676		; 00001244H
  00073	e9 00 00 00 00	 jmp	 ??1?$CEncrypt@M@@UAE@XZ	; CEncrypt<float>::~CEncrypt<float>
__unwindfunclet$??0ioFireSkill2@@QAE@XZ$9:
  00078	8b 4d ec	 mov	 ecx, DWORD PTR _this$[ebp]
  0007b	81 c1 74 12 00
	00		 add	 ecx, 4724		; 00001274H
  00081	e9 00 00 00 00	 jmp	 ??1?$CEncrypt@M@@UAE@XZ	; CEncrypt<float>::~CEncrypt<float>
__unwindfunclet$??0ioFireSkill2@@QAE@XZ$10:
  00086	8b 4d ec	 mov	 ecx, DWORD PTR _this$[ebp]
  00089	81 c1 a4 12 00
	00		 add	 ecx, 4772		; 000012a4H
  0008f	e9 00 00 00 00	 jmp	 ??1?$CEncrypt@M@@UAE@XZ	; CEncrypt<float>::~CEncrypt<float>
__unwindfunclet$??0ioFireSkill2@@QAE@XZ$11:
  00094	8b 4d ec	 mov	 ecx, DWORD PTR _this$[ebp]
  00097	81 c1 d4 12 00
	00		 add	 ecx, 4820		; 000012d4H
  0009d	ff 25 00 00 00
	00		 jmp	 DWORD PTR __imp_??1ioHashString@@QAE@XZ
__unwindfunclet$??0ioFireSkill2@@QAE@XZ$12:
  000a3	8b 4d ec	 mov	 ecx, DWORD PTR _this$[ebp]
  000a6	81 c1 f0 12 00
	00		 add	 ecx, 4848		; 000012f0H
  000ac	ff 25 00 00 00
	00		 jmp	 DWORD PTR __imp_??1ioHashString@@QAE@XZ
__unwindfunclet$??0ioFireSkill2@@QAE@XZ$13:
  000b2	8b 4d ec	 mov	 ecx, DWORD PTR _this$[ebp]
  000b5	81 c1 00 13 00
	00		 add	 ecx, 4864		; 00001300H
  000bb	ff 25 00 00 00
	00		 jmp	 DWORD PTR __imp_??1ioHashString@@QAE@XZ
__unwindfunclet$??0ioFireSkill2@@QAE@XZ$14:
  000c1	8b 4d ec	 mov	 ecx, DWORD PTR _this$[ebp]
  000c4	81 c1 10 13 00
	00		 add	 ecx, 4880		; 00001310H
  000ca	e9 00 00 00 00	 jmp	 ??1?$CEncrypt@M@@UAE@XZ	; CEncrypt<float>::~CEncrypt<float>
__unwindfunclet$??0ioFireSkill2@@QAE@XZ$15:
  000cf	8b 4d ec	 mov	 ecx, DWORD PTR _this$[ebp]
  000d2	81 c1 40 13 00
	00		 add	 ecx, 4928		; 00001340H
  000d8	e9 00 00 00 00	 jmp	 ??1?$CEncrypt@M@@UAE@XZ	; CEncrypt<float>::~CEncrypt<float>
__unwindfunclet$??0ioFireSkill2@@QAE@XZ$16:
  000dd	8b 4d ec	 mov	 ecx, DWORD PTR _this$[ebp]
  000e0	81 c1 70 13 00
	00		 add	 ecx, 4976		; 00001370H
  000e6	ff 25 00 00 00
	00		 jmp	 DWORD PTR __imp_??1ioHashString@@QAE@XZ
__ehhandler$??0ioFireSkill2@@QAE@XZ:
  000ec	8b 54 24 08	 mov	 edx, DWORD PTR [esp+8]
  000f0	8d 42 0c	 lea	 eax, DWORD PTR [edx+12]
  000f3	8b 4a e8	 mov	 ecx, DWORD PTR [edx-24]
  000f6	33 c8		 xor	 ecx, eax
  000f8	e8 00 00 00 00	 call	 @__security_check_cookie@4
  000fd	b8 00 00 00 00	 mov	 eax, OFFSET __ehfuncinfo$??0ioFireSkill2@@QAE@XZ
  00102	e9 00 00 00 00	 jmp	 ___CxxFrameHandler3
text$x	ENDS
??0ioFireSkill2@@QAE@XZ ENDP				; ioFireSkill2::ioFireSkill2
; Function compile flags: /Ogsp
;	COMDAT ??_GioFireSkill2@@UAEPAXI@Z
_TEXT	SEGMENT
___flags$ = 8						; size = 4
??_GioFireSkill2@@UAEPAXI@Z PROC			; ioFireSkill2::`scalar deleting destructor', COMDAT
; _this$ = ecx
  00000	55		 push	 ebp
  00001	8b ec		 mov	 ebp, esp
  00003	56		 push	 esi
  00004	8b f1		 mov	 esi, ecx
  00006	e8 00 00 00 00	 call	 ??1ioFireSkill2@@UAE@XZ	; ioFireSkill2::~ioFireSkill2
  0000b	f6 45 08 01	 test	 BYTE PTR ___flags$[ebp], 1
  0000f	74 07		 je	 SHORT $LN1@scalar@6
  00011	56		 push	 esi
  00012	e8 00 00 00 00	 call	 ??3@YAXPAX@Z		; operator delete
  00017	59		 pop	 ecx
$LN1@scalar@6:
  00018	8b c6		 mov	 eax, esi
  0001a	5e		 pop	 esi
  0001b	5d		 pop	 ebp
  0001c	c2 04 00	 ret	 4
??_GioFireSkill2@@UAEPAXI@Z ENDP			; ioFireSkill2::`scalar deleting destructor'
_TEXT	ENDS
PUBLIC	??_C@_00CNPNBAHC@?$AA@				; `string'
PUBLIC	__$ArrayPad$
EXTRN	__imp_??4ioHashString@@QAEAAV0@PBD@Z:PROC
EXTRN	?LoadProperty@ioAttackSkill@@UAEXAAVioINILoader@@@Z:PROC ; ioAttackSkill::LoadProperty
;	COMDAT ??_C@_00CNPNBAHC@?$AA@
; File d:\lost saga for developer\youtube\tutorial\source\src\lsclient\stringprotect.h
CONST	SEGMENT
??_C@_00CNPNBAHC@?$AA@ DB 00H				; `string'
; Function compile flags: /Ogsp
; File d:\lost saga for developer\youtube\tutorial\source\src\lsclient\iofireskill2.cpp
CONST	ENDS
;	COMDAT ?LoadProperty@ioFireSkill2@@UAEXAAVioINILoader@@@Z
_TEXT	SEGMENT
tv14750 = -300						; size = 4
tv14650 = -300						; size = 4
tv14632 = -300						; size = 4
_i$559994 = -300					; size = 4
_value$559334 = -300					; size = 4
$T559179 = -300						; size = 4
_value$559174 = -300					; size = 4
_value$559043 = -300					; size = 4
_value$558913 = -300					; size = 4
_value$558784 = -300					; size = 4
_value$558654 = -300					; size = 4
_value$558524 = -300					; size = 4
tv14741 = -296						; size = 4
tv14723 = -296						; size = 4
tv14682 = -296						; size = 4
tv14646 = -296						; size = 4
tv14642 = -296						; size = 4
tv14628 = -296						; size = 4
tv14624 = -296						; size = 4
_value$560145 = -296					; size = 4
$T560016 = -296						; size = 4
_value$560006 = -296					; size = 4
$T559878 = -296						; size = 4
_value$559619 = -296					; size = 4
_value$559615 = -296					; size = 4
_value$559611 = -296					; size = 4
_value$559606 = -296					; size = 4
_value$559346 = -296					; size = 4
_value$559342 = -296					; size = 4
_value$559476 = -296					; size = 4
$T559330 = -296						; size = 4
_value$559195 = -296					; size = 4
_value$559191 = -296					; size = 4
_value$559325 = -296					; size = 4
_value$559183 = -296					; size = 4
$T559347 = -296						; size = 4
$T559196 = -296						; size = 4
_szBuf$ = -292						; size = 260
__k$560032 = -32					; size = 21
__k$559225 = -32					; size = 20
__k$558931 = -32					; size = 21
__k$558428 = -32					; size = 19
__k$558174 = -32					; size = 22
__k$559894 = -28					; size = 16
__k$559061 = -28					; size = 17
__k$558299 = -28					; size = 18
__k$560175 = -24					; size = 13
__k$559761 = -24					; size = 14
__k$559666 = -24					; size = 12
__k$559506 = -24					; size = 13
__k$559363 = -24					; size = 13
__k$558801 = -24					; size = 14
__k$558671 = -24					; size = 13
__k$558541 = -24					; size = 13
__$ArrayPad$ = -4					; size = 4
_rkLoader$ = 8						; size = 4
?LoadProperty@ioFireSkill2@@UAEXAAVioINILoader@@@Z PROC	; ioFireSkill2::LoadProperty, COMDAT
; _this$ = ecx

; 52   : {

  00000	55		 push	 ebp
  00001	8b ec		 mov	 ebp, esp
  00003	81 ec 2c 01 00
	00		 sub	 esp, 300		; 0000012cH
  00009	a1 00 00 00 00	 mov	 eax, DWORD PTR ___security_cookie
  0000e	33 c5		 xor	 eax, ebp
  00010	89 45 fc	 mov	 DWORD PTR __$ArrayPad$[ebp], eax
  00013	53		 push	 ebx
  00014	56		 push	 esi
  00015	57		 push	 edi
  00016	8b 7d 08	 mov	 edi, DWORD PTR _rkLoader$[ebp]

; 53   : 	ioAttackSkill::LoadProperty( rkLoader );

  00019	57		 push	 edi
  0001a	8b f1		 mov	 esi, ecx
  0001c	e8 00 00 00 00	 call	 ?LoadProperty@ioAttackSkill@@UAEXAAVioINILoader@@@Z ; ioAttackSkill::LoadProperty

; 54   : 
; 55   : 	char szBuf[MAX_PATH];
; 56   : 
; 57   : 	m_TargetColType = (TargetColType)rkLoader.LoadInt_e( "target_collision_type", TCT_SPHERE );

  00021	6a 05		 push	 5
  00023	c7 45 e0 99 8d
	99 8d		 mov	 DWORD PTR __k$558174[ebp], -1919316583 ; 8d998d99H
  0002a	c7 45 e4 88 98
	b4 89		 mov	 DWORD PTR __k$558174[ebp+4], -1984653176 ; 89b49888H
  00031	c7 45 e8 82 80
	87 83		 mov	 DWORD PTR __k$558174[ebp+8], -2088271742 ; 83878082H
  00038	c7 45 ec 9e 85
	84 84		 mov	 DWORD PTR __k$558174[ebp+12], -2071689826 ; 8484859eH
  0003f	c7 45 f0 b2 98
	92 9a		 mov	 DWORD PTR __k$558174[ebp+16], -1701668686 ; 9a9298b2H
  00046	8d 45 e0	 lea	 eax, DWORD PTR __k$558174[ebp]
  00049	33 db		 xor	 ebx, ebx
  0004b	66 c7 45 f4 88
	00		 mov	 WORD PTR __k$558174[ebp+20], 136 ; 00000088H
  00051	59		 pop	 ecx
$LL112@LoadProper:
  00052	81 30 ed ec eb
	ea		 xor	 DWORD PTR [eax], -353637139 ; eaebecedH
  00058	83 c0 04	 add	 eax, 4
  0005b	49		 dec	 ecx
  0005c	75 f4		 jne	 SHORT $LL112@LoadProper
  0005e	80 75 f4 ed	 xor	 BYTE PTR __k$558174[ebp+20], -19 ; ffffffedH
  00062	6a 01		 push	 1
  00064	8d 45 e0	 lea	 eax, DWORD PTR __k$558174[ebp]
  00067	50		 push	 eax
  00068	8b cf		 mov	 ecx, edi
  0006a	ff 15 00 00 00
	00		 call	 DWORD PTR __imp_?LoadInt@ioINILoader@@QAEHPBDH@Z
  00070	6a 04		 push	 4
  00072	89 86 7c 11 00
	00		 mov	 DWORD PTR [esi+4476], eax

; 58   : 	m_TargetWoundType = (TargetWoundType)rkLoader.LoadInt_e( "target_wound_type", TWT_ALL );

  00078	c7 45 e4 99 8d
	99 8d		 mov	 DWORD PTR __k$558299[ebp], -1919316583 ; 8d998d99H
  0007f	c7 45 e8 88 98
	b4 9d		 mov	 DWORD PTR __k$558299[ebp+4], -1649108856 ; 9db49888H
  00086	c7 45 ec 82 99
	85 8e		 mov	 DWORD PTR __k$558299[ebp+8], -1903847038 ; 8e859982H
  0008d	c7 45 f0 b2 98
	92 9a		 mov	 DWORD PTR __k$558299[ebp+12], -1701668686 ; 9a9298b2H
  00094	8d 45 e4	 lea	 eax, DWORD PTR __k$558299[ebp]
  00097	66 c7 45 f4 88
	00		 mov	 WORD PTR __k$558299[ebp+16], 136 ; 00000088H
  0009d	59		 pop	 ecx
$LL218@LoadProper:
  0009e	81 30 ed ec eb
	ea		 xor	 DWORD PTR [eax], -353637139 ; eaebecedH
  000a4	83 c0 04	 add	 eax, 4
  000a7	49		 dec	 ecx
  000a8	75 f4		 jne	 SHORT $LL218@LoadProper
  000aa	80 75 f4 ed	 xor	 BYTE PTR __k$558299[ebp+16], -19 ; ffffffedH
  000ae	6a 01		 push	 1
  000b0	8d 45 e4	 lea	 eax, DWORD PTR __k$558299[ebp]
  000b3	50		 push	 eax
  000b4	8b cf		 mov	 ecx, edi
  000b6	ff 15 00 00 00
	00		 call	 DWORD PTR __imp_?LoadInt@ioINILoader@@QAEHPBDH@Z
  000bc	6a 04		 push	 4
  000be	89 86 80 11 00
	00		 mov	 DWORD PTR [esi+4480], eax

; 59   : 
; 60   : 	m_dwSkillProtectTime = (DWORD)rkLoader.LoadInt_e( "skill_protect_time", 0 );

  000c4	c7 45 e0 9e 87
	82 86		 mov	 DWORD PTR __k$558428[ebp], -2038265954 ; 8682879eH
  000cb	c7 45 e4 81 b3
	9b 98		 mov	 DWORD PTR __k$558428[ebp+4], -1734626431 ; 989bb381H
  000d2	c7 45 e8 82 98
	8e 89		 mov	 DWORD PTR __k$558428[ebp+8], -1987143550 ; 898e9882H
  000d9	c7 45 ec 99 b3
	9f 83		 mov	 DWORD PTR __k$558428[ebp+12], -2086685799 ; 839fb399H
  000e0	66 c7 45 f0 80
	89		 mov	 WORD PTR __k$558428[ebp+16], 35200 ; 00008980H
  000e6	8d 45 e0	 lea	 eax, DWORD PTR __k$558428[ebp]
  000e9	88 5d f2	 mov	 BYTE PTR __k$558428[ebp+18], bl
  000ec	59		 pop	 ecx
$LL324@LoadProper:
  000ed	81 30 ed ec eb
	ea		 xor	 DWORD PTR [eax], -353637139 ; eaebecedH
  000f3	83 c0 04	 add	 eax, 4
  000f6	49		 dec	 ecx
  000f7	75 f4		 jne	 SHORT $LL324@LoadProper
  000f9	6a 10		 push	 16			; 00000010H
  000fb	58		 pop	 eax
$LL321@LoadProper:
  000fc	8b c8		 mov	 ecx, eax
  000fe	81 e1 03 00 00
	80		 and	 ecx, -2147483645	; 80000003H
  00104	79 05		 jns	 SHORT $LN1825@LoadProper
  00106	49		 dec	 ecx
  00107	83 c9 fc	 or	 ecx, -4			; fffffffcH
  0010a	41		 inc	 ecx
$LN1825@LoadProper:
  0010b	b2 ed		 mov	 dl, -19			; ffffffedH
  0010d	2a d1		 sub	 dl, cl
  0010f	30 54 05 e0	 xor	 BYTE PTR __k$558428[ebp+eax], dl
  00113	40		 inc	 eax
  00114	83 f8 12	 cmp	 eax, 18			; 00000012H
  00117	7c e3		 jl	 SHORT $LL321@LoadProper
  00119	53		 push	 ebx
  0011a	8d 45 e0	 lea	 eax, DWORD PTR __k$558428[ebp]
  0011d	50		 push	 eax
  0011e	8b cf		 mov	 ecx, edi
  00120	ff 15 00 00 00
	00		 call	 DWORD PTR __imp_?LoadInt@ioINILoader@@QAEHPBDH@Z
  00126	89 85 d4 fe ff
	ff		 mov	 DWORD PTR _value$558524[ebp], eax
  0012c	8d 85 d4 fe ff
	ff		 lea	 eax, DWORD PTR _value$558524[ebp]
  00132	50		 push	 eax
  00133	8d 8e e8 10 00
	00		 lea	 ecx, DWORD PTR [esi+4328]
  00139	e8 00 00 00 00	 call	 ?EncryptValueToPool@?$CEncrypt@K@@AAEXPBD@Z ; CEncrypt<unsigned long>::EncryptValueToPool
  0013e	6a 03		 push	 3

; 61   : 
; 62   : 	m_fSkillRange = rkLoader.LoadFloat_e( "target_range", 0.0f );

  00140	c7 45 e8 99 8d
	99 8d		 mov	 DWORD PTR __k$558541[ebp], -1919316583 ; 8d998d99H
  00147	c7 45 ec 88 98
	b4 98		 mov	 DWORD PTR __k$558541[ebp+4], -1732994936 ; 98b49888H
  0014e	c7 45 f0 8c 82
	8c 8f		 mov	 DWORD PTR __k$558541[ebp+8], -1886616948 ; 8f8c828cH
  00155	8d 45 e8	 lea	 eax, DWORD PTR __k$558541[ebp]
  00158	88 5d f4	 mov	 BYTE PTR __k$558541[ebp+12], bl
  0015b	59		 pop	 ecx
$LL432@LoadProper:
  0015c	81 30 ed ec eb
	ea		 xor	 DWORD PTR [eax], -353637139 ; eaebecedH
  00162	83 c0 04	 add	 eax, 4
  00165	49		 dec	 ecx
  00166	75 f4		 jne	 SHORT $LL432@LoadProper
  00168	0f 57 c0	 xorps	 xmm0, xmm0
  0016b	51		 push	 ecx
  0016c	8d 45 e8	 lea	 eax, DWORD PTR __k$558541[ebp]
  0016f	f3 0f 11 04 24	 movss	 DWORD PTR [esp], xmm0
  00174	50		 push	 eax
  00175	8b cf		 mov	 ecx, edi
  00177	ff 15 00 00 00
	00		 call	 DWORD PTR __imp_?LoadFloat@ioINILoader@@QAEMPBDM@Z
  0017d	d9 9d d4 fe ff
	ff		 fstp	 DWORD PTR _value$558654[ebp]
  00183	8d 85 d4 fe ff
	ff		 lea	 eax, DWORD PTR _value$558654[ebp]
  00189	50		 push	 eax
  0018a	8d 8e 84 11 00
	00		 lea	 ecx, DWORD PTR [esi+4484]
  00190	e8 00 00 00 00	 call	 ?EncryptValueToPool@?$CEncrypt@M@@AAEXPBD@Z ; CEncrypt<float>::EncryptValueToPool
  00195	6a 03		 push	 3

; 63   : 	m_fSkillAngle = rkLoader.LoadFloat_e( "target_angle", 0.0f );

  00197	c7 45 e8 99 8d
	99 8d		 mov	 DWORD PTR __k$558671[ebp], -1919316583 ; 8d998d99H
  0019e	c7 45 ec 88 98
	b4 8b		 mov	 DWORD PTR __k$558671[ebp+4], -1951098744 ; 8bb49888H
  001a5	c7 45 f0 83 8b
	87 8f		 mov	 DWORD PTR __k$558671[ebp+8], -1886942333 ; 8f878b83H
  001ac	8d 45 e8	 lea	 eax, DWORD PTR __k$558671[ebp]
  001af	88 5d f4	 mov	 BYTE PTR __k$558671[ebp+12], bl
  001b2	59		 pop	 ecx
$LL540@LoadProper:
  001b3	81 30 ed ec eb
	ea		 xor	 DWORD PTR [eax], -353637139 ; eaebecedH
  001b9	83 c0 04	 add	 eax, 4
  001bc	49		 dec	 ecx
  001bd	75 f4		 jne	 SHORT $LL540@LoadProper
  001bf	0f 57 c0	 xorps	 xmm0, xmm0
  001c2	51		 push	 ecx
  001c3	8d 45 e8	 lea	 eax, DWORD PTR __k$558671[ebp]
  001c6	f3 0f 11 04 24	 movss	 DWORD PTR [esp], xmm0
  001cb	50		 push	 eax
  001cc	8b cf		 mov	 ecx, edi
  001ce	ff 15 00 00 00
	00		 call	 DWORD PTR __imp_?LoadFloat@ioINILoader@@QAEMPBDM@Z
  001d4	d9 9d d4 fe ff
	ff		 fstp	 DWORD PTR _value$558784[ebp]
  001da	8d 85 d4 fe ff
	ff		 lea	 eax, DWORD PTR _value$558784[ebp]
  001e0	50		 push	 eax
  001e1	8d 8e b4 11 00
	00		 lea	 ecx, DWORD PTR [esi+4532]
  001e7	e8 00 00 00 00	 call	 ?EncryptValueToPool@?$CEncrypt@M@@AAEXPBD@Z ; CEncrypt<float>::EncryptValueToPool
  001ec	6a 03		 push	 3

; 64   : 	m_fOffSet = rkLoader.LoadFloat_e( "target_offset", 0.0f );

  001ee	c7 45 e8 99 8d
	99 8d		 mov	 DWORD PTR __k$558801[ebp], -1919316583 ; 8d998d99H
  001f5	c7 45 ec 88 98
	b4 85		 mov	 DWORD PTR __k$558801[ebp+4], -2051762040 ; 85b49888H
  001fc	c7 45 f0 8b 8a
	98 8f		 mov	 DWORD PTR __k$558801[ebp+8], -1885828469 ; 8f988a8bH
  00203	8d 45 e8	 lea	 eax, DWORD PTR __k$558801[ebp]
  00206	66 c7 45 f4 99
	00		 mov	 WORD PTR __k$558801[ebp+12], 153 ; 00000099H
  0020c	59		 pop	 ecx
$LL648@LoadProper:
  0020d	81 30 ed ec eb
	ea		 xor	 DWORD PTR [eax], -353637139 ; eaebecedH
  00213	83 c0 04	 add	 eax, 4
  00216	49		 dec	 ecx
  00217	75 f4		 jne	 SHORT $LL648@LoadProper
  00219	0f 57 c0	 xorps	 xmm0, xmm0
  0021c	80 75 f4 ed	 xor	 BYTE PTR __k$558801[ebp+12], -19 ; ffffffedH
  00220	51		 push	 ecx
  00221	8d 45 e8	 lea	 eax, DWORD PTR __k$558801[ebp]
  00224	f3 0f 11 04 24	 movss	 DWORD PTR [esp], xmm0
  00229	50		 push	 eax
  0022a	8b cf		 mov	 ecx, edi
  0022c	ff 15 00 00 00
	00		 call	 DWORD PTR __imp_?LoadFloat@ioINILoader@@QAEMPBDM@Z
  00232	d9 9d d4 fe ff
	ff		 fstp	 DWORD PTR _value$558913[ebp]
  00238	8d 85 d4 fe ff
	ff		 lea	 eax, DWORD PTR _value$558913[ebp]
  0023e	50		 push	 eax
  0023f	8d 8e e4 11 00
	00		 lea	 ecx, DWORD PTR [esi+4580]
  00245	e8 00 00 00 00	 call	 ?EncryptValueToPool@?$CEncrypt@M@@AAEXPBD@Z ; CEncrypt<float>::EncryptValueToPool
  0024a	6a 05		 push	 5

; 65   : 	m_fHeightOffSet = rkLoader.LoadFloat_e( "target_height_offset", 0.0f );

  0024c	c7 45 e0 99 8d
	99 8d		 mov	 DWORD PTR __k$558931[ebp], -1919316583 ; 8d998d99H
  00253	c7 45 e4 88 98
	b4 82		 mov	 DWORD PTR __k$558931[ebp+4], -2102093688 ; 82b49888H
  0025a	c7 45 e8 88 85
	8c 82		 mov	 DWORD PTR __k$558931[ebp+8], -2104719992 ; 828c8588H
  00261	c7 45 ec 99 b3
	84 8c		 mov	 DWORD PTR __k$558931[ebp+12], -1937460327 ; 8c84b399H
  00268	c7 45 f0 8b 9f
	8e 9e		 mov	 DWORD PTR __k$558931[ebp+16], -1634820213 ; 9e8e9f8bH
  0026f	8d 45 e0	 lea	 eax, DWORD PTR __k$558931[ebp]
  00272	88 5d f4	 mov	 BYTE PTR __k$558931[ebp+20], bl
  00275	59		 pop	 ecx
$LL756@LoadProper:
  00276	81 30 ed ec eb
	ea		 xor	 DWORD PTR [eax], -353637139 ; eaebecedH
  0027c	83 c0 04	 add	 eax, 4
  0027f	49		 dec	 ecx
  00280	75 f4		 jne	 SHORT $LL756@LoadProper
  00282	0f 57 c0	 xorps	 xmm0, xmm0
  00285	51		 push	 ecx
  00286	8d 45 e0	 lea	 eax, DWORD PTR __k$558931[ebp]
  00289	f3 0f 11 04 24	 movss	 DWORD PTR [esp], xmm0
  0028e	50		 push	 eax
  0028f	8b cf		 mov	 ecx, edi
  00291	ff 15 00 00 00
	00		 call	 DWORD PTR __imp_?LoadFloat@ioINILoader@@QAEMPBDM@Z
  00297	d9 9d d4 fe ff
	ff		 fstp	 DWORD PTR _value$559043[ebp]
  0029d	8d 85 d4 fe ff
	ff		 lea	 eax, DWORD PTR _value$559043[ebp]
  002a3	50		 push	 eax
  002a4	8d 8e 14 12 00
	00		 lea	 ecx, DWORD PTR [esi+4628]
  002aa	e8 00 00 00 00	 call	 ?EncryptValueToPool@?$CEncrypt@M@@AAEXPBD@Z ; CEncrypt<float>::EncryptValueToPool
  002af	6a 04		 push	 4

; 66   : 
; 67   : 	m_fUpHeight = rkLoader.LoadFloat_e( "target_up_height", 0.0f );

  002b1	c7 45 e4 99 8d
	99 8d		 mov	 DWORD PTR __k$559061[ebp], -1919316583 ; 8d998d99H
  002b8	c7 45 e8 88 98
	b4 9f		 mov	 DWORD PTR __k$559061[ebp+4], -1615554424 ; 9fb49888H
  002bf	c7 45 ec 9d b3
	83 8f		 mov	 DWORD PTR __k$559061[ebp+8], -1887194211 ; 8f83b39dH
  002c6	c7 45 f0 84 8b
	83 9e		 mov	 DWORD PTR __k$559061[ebp+12], -1635546236 ; 9e838b84H
  002cd	8d 45 e4	 lea	 eax, DWORD PTR __k$559061[ebp]
  002d0	88 5d f4	 mov	 BYTE PTR __k$559061[ebp+16], bl
  002d3	59		 pop	 ecx
$LL864@LoadProper:
  002d4	81 30 ed ec eb
	ea		 xor	 DWORD PTR [eax], -353637139 ; eaebecedH
  002da	83 c0 04	 add	 eax, 4
  002dd	49		 dec	 ecx
  002de	75 f4		 jne	 SHORT $LL864@LoadProper
  002e0	0f 57 c0	 xorps	 xmm0, xmm0
  002e3	51		 push	 ecx
  002e4	8d 45 e4	 lea	 eax, DWORD PTR __k$559061[ebp]
  002e7	f3 0f 11 04 24	 movss	 DWORD PTR [esp], xmm0
  002ec	50		 push	 eax
  002ed	8b cf		 mov	 ecx, edi
  002ef	ff 15 00 00 00
	00		 call	 DWORD PTR __imp_?LoadFloat@ioINILoader@@QAEMPBDM@Z
  002f5	d9 9d d4 fe ff
	ff		 fstp	 DWORD PTR _value$559174[ebp]
  002fb	8d 85 d4 fe ff
	ff		 lea	 eax, DWORD PTR _value$559174[ebp]
  00301	8d 8e 44 12 00
	00		 lea	 ecx, DWORD PTR [esi+4676]
  00307	50		 push	 eax
  00308	e8 00 00 00 00	 call	 ?EncryptValueToPool@?$CEncrypt@M@@AAEXPBD@Z ; CEncrypt<float>::EncryptValueToPool

; 68   : 	m_fUpHeight = max( FLOAT1, m_fUpHeight );

  0030d	b8 01 00 00 00	 mov	 eax, 1
  00312	89 85 d4 fe ff
	ff		 mov	 DWORD PTR $T559179[ebp], eax
  00318	8d 85 d8 fe ff
	ff		 lea	 eax, DWORD PTR _value$559183[ebp]
  0031e	50		 push	 eax
  0031f	8d 8e 44 12 00
	00		 lea	 ecx, DWORD PTR [esi+4676]
  00325	e8 00 00 00 00	 call	 ?DecryptValueToPool@?$CEncrypt@M@@QAEXPAM@Z ; CEncrypt<float>::DecryptValueToPool
  0032a	db 85 d4 fe ff
	ff		 fild	 DWORD PTR $T559179[ebp]
  00330	8b 85 d4 fe ff
	ff		 mov	 eax, DWORD PTR $T559179[ebp]
  00336	85 c0		 test	 eax, eax
  00338	79 06		 jns	 SHORT $LN1826@LoadProper
  0033a	d8 05 00 00 00
	00		 fadd	 DWORD PTR __real@4f800000
$LN1826@LoadProper:
  00340	d9 85 d8 fe ff
	ff		 fld	 DWORD PTR _value$559183[ebp]
  00346	d9 c9		 fxch	 ST(1)
  00348	df f1		 fcomip	 ST(1)
  0034a	dd d8		 fstp	 ST(0)
  0034c	76 23		 jbe	 SHORT $LN3@LoadProper
  0034e	b8 01 00 00 00	 mov	 eax, 1
  00353	89 85 d8 fe ff
	ff		 mov	 DWORD PTR tv14741[ebp], eax
  00359	db 85 d8 fe ff
	ff		 fild	 DWORD PTR tv14741[ebp]
  0035f	85 c0		 test	 eax, eax
  00361	79 06		 jns	 SHORT $LN1827@LoadProper
  00363	d8 05 00 00 00
	00		 fadd	 DWORD PTR __real@4f800000
$LN1827@LoadProper:
  00369	d9 9d d8 fe ff
	ff		 fstp	 DWORD PTR $T559196[ebp]
  0036f	eb 12		 jmp	 SHORT $LN1837@LoadProper
$LN3@LoadProper:
  00371	8d 85 d8 fe ff
	ff		 lea	 eax, DWORD PTR _value$559191[ebp]
  00377	50		 push	 eax
  00378	8d 8e 44 12 00
	00		 lea	 ecx, DWORD PTR [esi+4676]
  0037e	e8 00 00 00 00	 call	 ?DecryptValueToPool@?$CEncrypt@M@@QAEXPAM@Z ; CEncrypt<float>::DecryptValueToPool
$LN1837@LoadProper:
  00383	f3 0f 10 85 d8
	fe ff ff	 movss	 xmm0, DWORD PTR _value$559191[ebp]
  0038b	8d 85 d8 fe ff
	ff		 lea	 eax, DWORD PTR _value$559195[ebp]
  00391	50		 push	 eax
  00392	8d 8e 44 12 00
	00		 lea	 ecx, DWORD PTR [esi+4676]
  00398	f3 0f 11 85 d8
	fe ff ff	 movss	 DWORD PTR _value$559195[ebp], xmm0
  003a0	e8 00 00 00 00	 call	 ?EncryptValueToPool@?$CEncrypt@M@@AAEXPBD@Z ; CEncrypt<float>::EncryptValueToPool
  003a5	6a 04		 push	 4

; 69   : 	m_fUnderHeight = rkLoader.LoadFloat_e( "target_under_height", 0.0f );

  003a7	c7 45 e0 99 8d
	99 8d		 mov	 DWORD PTR __k$559225[ebp], -1919316583 ; 8d998d99H
  003ae	c7 45 e4 88 98
	b4 9f		 mov	 DWORD PTR __k$559225[ebp+4], -1615554424 ; 9fb49888H
  003b5	c7 45 e8 83 88
	8e 98		 mov	 DWORD PTR __k$559225[ebp+8], -1735489405 ; 988e8883H
  003bc	c7 45 ec b2 84
	8e 83		 mov	 DWORD PTR __k$559225[ebp+12], -2087811918 ; 838e84b2H
  003c3	8d 45 e0	 lea	 eax, DWORD PTR __k$559225[ebp]
  003c6	c7 45 f0 8a 84
	9f 00		 mov	 DWORD PTR __k$559225[ebp+16], 10454154 ; 009f848aH
  003cd	59		 pop	 ecx
$LL982@LoadProper:
  003ce	81 30 ed ec eb
	ea		 xor	 DWORD PTR [eax], -353637139 ; eaebecedH
  003d4	83 c0 04	 add	 eax, 4
  003d7	49		 dec	 ecx
  003d8	75 f4		 jne	 SHORT $LL982@LoadProper
  003da	6a 10		 push	 16			; 00000010H
  003dc	58		 pop	 eax
$LL979@LoadProper:
  003dd	8b c8		 mov	 ecx, eax
  003df	81 e1 03 00 00
	80		 and	 ecx, -2147483645	; 80000003H
  003e5	79 05		 jns	 SHORT $LN1828@LoadProper
  003e7	49		 dec	 ecx
  003e8	83 c9 fc	 or	 ecx, -4			; fffffffcH
  003eb	41		 inc	 ecx
$LN1828@LoadProper:
  003ec	b2 ed		 mov	 dl, -19			; ffffffedH
  003ee	2a d1		 sub	 dl, cl
  003f0	30 54 05 e0	 xor	 BYTE PTR __k$559225[ebp+eax], dl
  003f4	40		 inc	 eax
  003f5	83 f8 13	 cmp	 eax, 19			; 00000013H
  003f8	7c e3		 jl	 SHORT $LL979@LoadProper
  003fa	0f 57 c0	 xorps	 xmm0, xmm0
  003fd	51		 push	 ecx
  003fe	8d 45 e0	 lea	 eax, DWORD PTR __k$559225[ebp]
  00401	f3 0f 11 04 24	 movss	 DWORD PTR [esp], xmm0
  00406	50		 push	 eax
  00407	8b cf		 mov	 ecx, edi
  00409	ff 15 00 00 00
	00		 call	 DWORD PTR __imp_?LoadFloat@ioINILoader@@QAEMPBDM@Z
  0040f	d9 9d d8 fe ff
	ff		 fstp	 DWORD PTR _value$559325[ebp]
  00415	8d 85 d8 fe ff
	ff		 lea	 eax, DWORD PTR _value$559325[ebp]
  0041b	8d 8e 74 12 00
	00		 lea	 ecx, DWORD PTR [esi+4724]
  00421	50		 push	 eax
  00422	e8 00 00 00 00	 call	 ?EncryptValueToPool@?$CEncrypt@M@@AAEXPBD@Z ; CEncrypt<float>::EncryptValueToPool

; 70   : 	m_fUnderHeight = max( FLOAT1, m_fUnderHeight );

  00427	b8 01 00 00 00	 mov	 eax, 1
  0042c	89 85 d8 fe ff
	ff		 mov	 DWORD PTR $T559330[ebp], eax
  00432	8d 85 d4 fe ff
	ff		 lea	 eax, DWORD PTR _value$559334[ebp]
  00438	50		 push	 eax
  00439	8d 8e 74 12 00
	00		 lea	 ecx, DWORD PTR [esi+4724]
  0043f	e8 00 00 00 00	 call	 ?DecryptValueToPool@?$CEncrypt@M@@QAEXPAM@Z ; CEncrypt<float>::DecryptValueToPool
  00444	db 85 d8 fe ff
	ff		 fild	 DWORD PTR $T559330[ebp]
  0044a	8b 85 d8 fe ff
	ff		 mov	 eax, DWORD PTR $T559330[ebp]
  00450	85 c0		 test	 eax, eax
  00452	79 06		 jns	 SHORT $LN1829@LoadProper
  00454	d8 05 00 00 00
	00		 fadd	 DWORD PTR __real@4f800000
$LN1829@LoadProper:
  0045a	d9 85 d4 fe ff
	ff		 fld	 DWORD PTR _value$559334[ebp]
  00460	d9 c9		 fxch	 ST(1)
  00462	df f1		 fcomip	 ST(1)
  00464	dd d8		 fstp	 ST(0)
  00466	76 23		 jbe	 SHORT $LN5@LoadProper
  00468	b8 01 00 00 00	 mov	 eax, 1
  0046d	89 85 d8 fe ff
	ff		 mov	 DWORD PTR tv14682[ebp], eax
  00473	db 85 d8 fe ff
	ff		 fild	 DWORD PTR tv14682[ebp]
  00479	85 c0		 test	 eax, eax
  0047b	79 06		 jns	 SHORT $LN1830@LoadProper
  0047d	d8 05 00 00 00
	00		 fadd	 DWORD PTR __real@4f800000
$LN1830@LoadProper:
  00483	d9 9d d8 fe ff
	ff		 fstp	 DWORD PTR $T559347[ebp]
  00489	eb 12		 jmp	 SHORT $LN1838@LoadProper
$LN5@LoadProper:
  0048b	8d 85 d8 fe ff
	ff		 lea	 eax, DWORD PTR _value$559342[ebp]
  00491	50		 push	 eax
  00492	8d 8e 74 12 00
	00		 lea	 ecx, DWORD PTR [esi+4724]
  00498	e8 00 00 00 00	 call	 ?DecryptValueToPool@?$CEncrypt@M@@QAEXPAM@Z ; CEncrypt<float>::DecryptValueToPool
$LN1838@LoadProper:
  0049d	f3 0f 10 85 d8
	fe ff ff	 movss	 xmm0, DWORD PTR _value$559342[ebp]
  004a5	8d 85 d8 fe ff
	ff		 lea	 eax, DWORD PTR _value$559346[ebp]
  004ab	50		 push	 eax
  004ac	8d 8e 74 12 00
	00		 lea	 ecx, DWORD PTR [esi+4724]
  004b2	f3 0f 11 85 d8
	fe ff ff	 movss	 DWORD PTR _value$559346[ebp], xmm0
  004ba	e8 00 00 00 00	 call	 ?EncryptValueToPool@?$CEncrypt@M@@AAEXPBD@Z ; CEncrypt<float>::EncryptValueToPool
  004bf	6a 03		 push	 3

; 71   : 	m_fWidth = rkLoader.LoadFloat_e( "target_width", 0.0f );

  004c1	c7 45 e8 99 8d
	99 8d		 mov	 DWORD PTR __k$559363[ebp], -1919316583 ; 8d998d99H
  004c8	c7 45 ec 88 98
	b4 9d		 mov	 DWORD PTR __k$559363[ebp+4], -1649108856 ; 9db49888H
  004cf	c7 45 f0 84 88
	9f 82		 mov	 DWORD PTR __k$559363[ebp+8], -2103474044 ; 829f8884H
  004d6	8d 45 e8	 lea	 eax, DWORD PTR __k$559363[ebp]
  004d9	88 5d f4	 mov	 BYTE PTR __k$559363[ebp+12], bl
  004dc	59		 pop	 ecx
$LL1100@LoadProper:
  004dd	81 30 ed ec eb
	ea		 xor	 DWORD PTR [eax], -353637139 ; eaebecedH
  004e3	83 c0 04	 add	 eax, 4
  004e6	49		 dec	 ecx
  004e7	75 f4		 jne	 SHORT $LL1100@LoadProper
  004e9	0f 57 c0	 xorps	 xmm0, xmm0
  004ec	51		 push	 ecx
  004ed	8d 45 e8	 lea	 eax, DWORD PTR __k$559363[ebp]
  004f0	f3 0f 11 04 24	 movss	 DWORD PTR [esp], xmm0
  004f5	50		 push	 eax
  004f6	8b cf		 mov	 ecx, edi
  004f8	ff 15 00 00 00
	00		 call	 DWORD PTR __imp_?LoadFloat@ioINILoader@@QAEMPBDM@Z
  004fe	d9 9d d8 fe ff
	ff		 fstp	 DWORD PTR _value$559476[ebp]
  00504	8d 85 d8 fe ff
	ff		 lea	 eax, DWORD PTR _value$559476[ebp]
  0050a	50		 push	 eax
  0050b	8d 8e a4 12 00
	00		 lea	 ecx, DWORD PTR [esi+4772]
  00511	e8 00 00 00 00	 call	 ?EncryptValueToPool@?$CEncrypt@M@@AAEXPBD@Z ; CEncrypt<float>::EncryptValueToPool
  00516	6a 03		 push	 3

; 72   : 
; 73   : 	m_iMaxFireCnt = rkLoader.LoadInt_e( "max_fire_cnt", 1 );

  00518	c7 45 e8 80 8d
	93 b5		 mov	 DWORD PTR __k$559506[ebp], -1248621184 ; b5938d80H
  0051f	c7 45 ec 8b 85
	99 8f		 mov	 DWORD PTR __k$559506[ebp+4], -1885764213 ; 8f99858bH
  00526	c7 45 f0 b2 8f
	85 9e		 mov	 DWORD PTR __k$559506[ebp+8], -1635414094 ; 9e858fb2H
  0052d	8d 45 e8	 lea	 eax, DWORD PTR __k$559506[ebp]
  00530	88 5d f4	 mov	 BYTE PTR __k$559506[ebp+12], bl
  00533	59		 pop	 ecx
$LL1208@LoadProper:
  00534	81 30 ed ec eb
	ea		 xor	 DWORD PTR [eax], -353637139 ; eaebecedH
  0053a	83 c0 04	 add	 eax, 4
  0053d	49		 dec	 ecx
  0053e	75 f4		 jne	 SHORT $LL1208@LoadProper
  00540	6a 01		 push	 1
  00542	8d 45 e8	 lea	 eax, DWORD PTR __k$559506[ebp]
  00545	50		 push	 eax
  00546	8b cf		 mov	 ecx, edi
  00548	ff 15 00 00 00
	00		 call	 DWORD PTR __imp_?LoadInt@ioINILoader@@QAEHPBDH@Z
  0054e	89 85 d8 fe ff
	ff		 mov	 DWORD PTR _value$559606[ebp], eax
  00554	8d 85 d8 fe ff
	ff		 lea	 eax, DWORD PTR _value$559606[ebp]
  0055a	8d 8e 1c 11 00
	00		 lea	 ecx, DWORD PTR [esi+4380]
  00560	50		 push	 eax
  00561	e8 00 00 00 00	 call	 ?EncryptValueToPool@?$CEncrypt@H@@AAEXPBD@Z ; CEncrypt<int>::EncryptValueToPool

; 74   : 	m_iMaxFireCnt = max( 1, m_iMaxFireCnt );

  00566	8d 85 d8 fe ff
	ff		 lea	 eax, DWORD PTR _value$559611[ebp]
  0056c	50		 push	 eax
  0056d	8d 8e 1c 11 00
	00		 lea	 ecx, DWORD PTR [esi+4380]
  00573	e8 00 00 00 00	 call	 ?DecryptValueToPool@?$CEncrypt@H@@QAEXPAH@Z ; CEncrypt<int>::DecryptValueToPool
  00578	33 c0		 xor	 eax, eax
  0057a	40		 inc	 eax
  0057b	39 85 d8 fe ff
	ff		 cmp	 DWORD PTR _value$559611[ebp], eax
  00581	7c 18		 jl	 SHORT $LN8@LoadProper
  00583	8d 85 d8 fe ff
	ff		 lea	 eax, DWORD PTR _value$559615[ebp]
  00589	50		 push	 eax
  0058a	8d 8e 1c 11 00
	00		 lea	 ecx, DWORD PTR [esi+4380]
  00590	e8 00 00 00 00	 call	 ?DecryptValueToPool@?$CEncrypt@H@@QAEXPAH@Z ; CEncrypt<int>::DecryptValueToPool
  00595	8b 85 d8 fe ff
	ff		 mov	 eax, DWORD PTR _value$559615[ebp]
$LN8@LoadProper:
  0059b	89 85 d8 fe ff
	ff		 mov	 DWORD PTR _value$559619[ebp], eax
  005a1	8d 85 d8 fe ff
	ff		 lea	 eax, DWORD PTR _value$559619[ebp]
  005a7	50		 push	 eax
  005a8	8d 8e 1c 11 00
	00		 lea	 ecx, DWORD PTR [esi+4380]
  005ae	e8 00 00 00 00	 call	 ?EncryptValueToPool@?$CEncrypt@H@@AAEXPBD@Z ; CEncrypt<int>::EncryptValueToPool
  005b3	6a 02		 push	 2

; 75   : 
; 76   : 	rkLoader.LoadString_e( "fire_up_ani", "", szBuf, MAX_PATH );

  005b5	c7 45 e8 8b 85
	99 8f		 mov	 DWORD PTR __k$559666[ebp], -1885764213 ; 8f99858bH
  005bc	c7 45 ec b2 99
	9b b5		 mov	 DWORD PTR __k$559666[ebp+4], -1248093774 ; b59b99b2H
  005c3	8d 45 e8	 lea	 eax, DWORD PTR __k$559666[ebp]
  005c6	c7 45 f0 8c 82
	82 00		 mov	 DWORD PTR __k$559666[ebp+8], 8553100 ; 0082828cH
  005cd	59		 pop	 ecx
$LL1322@LoadProper:
  005ce	81 30 ed ec eb
	ea		 xor	 DWORD PTR [eax], -353637139 ; eaebecedH
  005d4	83 c0 04	 add	 eax, 4
  005d7	49		 dec	 ecx
  005d8	75 f4		 jne	 SHORT $LL1322@LoadProper
  005da	6a 08		 push	 8
  005dc	58		 pop	 eax
$LL1319@LoadProper:
  005dd	8b c8		 mov	 ecx, eax
  005df	81 e1 03 00 00
	80		 and	 ecx, -2147483645	; 80000003H
  005e5	79 05		 jns	 SHORT $LN1831@LoadProper
  005e7	49		 dec	 ecx
  005e8	83 c9 fc	 or	 ecx, -4			; fffffffcH
  005eb	41		 inc	 ecx
$LN1831@LoadProper:
  005ec	b2 ed		 mov	 dl, -19			; ffffffedH
  005ee	2a d1		 sub	 dl, cl
  005f0	30 54 05 e8	 xor	 BYTE PTR __k$559666[ebp+eax], dl
  005f4	40		 inc	 eax
  005f5	83 f8 0b	 cmp	 eax, 11			; 0000000bH
  005f8	7c e3		 jl	 SHORT $LL1319@LoadProper
  005fa	68 04 01 00 00	 push	 260			; 00000104H
  005ff	8d 85 dc fe ff
	ff		 lea	 eax, DWORD PTR _szBuf$[ebp]
  00605	50		 push	 eax
  00606	68 00 00 00 00	 push	 OFFSET ??_C@_00CNPNBAHC@?$AA@
  0060b	8d 45 e8	 lea	 eax, DWORD PTR __k$559666[ebp]
  0060e	50		 push	 eax
  0060f	8b cf		 mov	 ecx, edi
  00611	ff 15 00 00 00
	00		 call	 DWORD PTR __imp_?LoadStringA@ioINILoader@@QAEXPBD0PADH@Z

; 77   : 	m_FireUpAni = szBuf;

  00617	8d 85 dc fe ff
	ff		 lea	 eax, DWORD PTR _szBuf$[ebp]
  0061d	50		 push	 eax
  0061e	8d 8e f0 12 00
	00		 lea	 ecx, DWORD PTR [esi+4848]
  00624	ff 15 00 00 00
	00		 call	 DWORD PTR __imp_??4ioHashString@@QAEAAV0@PBD@Z
  0062a	6a 03		 push	 3

; 78   : 	rkLoader.LoadString_e( "fire_down_ani", "", szBuf, MAX_PATH );

  0062c	c7 45 e8 8b 85
	99 8f		 mov	 DWORD PTR __k$559761[ebp], -1885764213 ; 8f99858bH
  00633	c7 45 ec b2 88
	84 9d		 mov	 DWORD PTR __k$559761[ebp+4], -1652258638 ; 9d8488b2H
  0063a	c7 45 f0 83 b3
	8a 84		 mov	 DWORD PTR __k$559761[ebp+8], -2071284861 ; 848ab383H
  00641	8d 45 e8	 lea	 eax, DWORD PTR __k$559761[ebp]
  00644	66 c7 45 f4 84
	00		 mov	 WORD PTR __k$559761[ebp+12], 132 ; 00000084H
  0064a	59		 pop	 ecx
$LL1428@LoadProper:
  0064b	81 30 ed ec eb
	ea		 xor	 DWORD PTR [eax], -353637139 ; eaebecedH
  00651	83 c0 04	 add	 eax, 4
  00654	49		 dec	 ecx
  00655	75 f4		 jne	 SHORT $LL1428@LoadProper
  00657	80 75 f4 ed	 xor	 BYTE PTR __k$559761[ebp+12], -19 ; ffffffedH
  0065b	68 04 01 00 00	 push	 260			; 00000104H
  00660	8d 85 dc fe ff
	ff		 lea	 eax, DWORD PTR _szBuf$[ebp]
  00666	50		 push	 eax
  00667	68 00 00 00 00	 push	 OFFSET ??_C@_00CNPNBAHC@?$AA@
  0066c	8d 45 e8	 lea	 eax, DWORD PTR __k$559761[ebp]
  0066f	50		 push	 eax
  00670	8b cf		 mov	 ecx, edi
  00672	ff 15 00 00 00
	00		 call	 DWORD PTR __imp_?LoadStringA@ioINILoader@@QAEXPBD0PADH@Z

; 79   : 	m_FireDownAni = szBuf;

  00678	8d 85 dc fe ff
	ff		 lea	 eax, DWORD PTR _szBuf$[ebp]
  0067e	50		 push	 eax
  0067f	8d 8e 00 13 00
	00		 lea	 ecx, DWORD PTR [esi+4864]
  00685	ff 15 00 00 00
	00		 call	 DWORD PTR __imp_??4ioHashString@@QAEAAV0@PBD@Z

; 80   : 
; 81   : 	m_fTargetAimRate = rkLoader.LoadFloat_e( "target_aim_rate", FLOAT05 );

  0068b	b8 05 00 00 00	 mov	 eax, 5
  00690	8b d0		 mov	 edx, eax
  00692	b8 0a 00 00 00	 mov	 eax, 10			; 0000000aH
  00697	6a 03		 push	 3
  00699	89 85 d8 fe ff
	ff		 mov	 DWORD PTR $T559878[ebp], eax
  0069f	c7 45 e4 99 8d
	99 8d		 mov	 DWORD PTR __k$559894[ebp], -1919316583 ; 8d998d99H
  006a6	c7 45 e8 88 98
	b4 8b		 mov	 DWORD PTR __k$559894[ebp+4], -1951098744 ; 8bb49888H
  006ad	c7 45 ec 84 81
	b4 98		 mov	 DWORD PTR __k$559894[ebp+8], -1733000828 ; 98b48184H
  006b4	8d 4d e4	 lea	 ecx, DWORD PTR __k$559894[ebp]
  006b7	c7 45 f0 8c 98
	8e 00		 mov	 DWORD PTR __k$559894[ebp+12], 9345164 ; 008e988cH
  006be	58		 pop	 eax
$LL1538@LoadProper:
  006bf	81 31 ed ec eb
	ea		 xor	 DWORD PTR [ecx], -353637139 ; eaebecedH
  006c5	83 c1 04	 add	 ecx, 4
  006c8	48		 dec	 eax
  006c9	75 f4		 jne	 SHORT $LL1538@LoadProper
  006cb	c7 85 d4 fe ff
	ff 0c 00 00 00	 mov	 DWORD PTR _i$559994[ebp], 12 ; 0000000cH
$LL1535@LoadProper:
  006d5	8b 85 d4 fe ff
	ff		 mov	 eax, DWORD PTR _i$559994[ebp]
  006db	25 03 00 00 80	 and	 eax, -2147483645	; 80000003H
  006e0	79 05		 jns	 SHORT $LN1832@LoadProper
  006e2	48		 dec	 eax
  006e3	83 c8 fc	 or	 eax, -4			; fffffffcH
  006e6	40		 inc	 eax
$LN1832@LoadProper:
  006e7	b1 ed		 mov	 cl, -19			; ffffffedH
  006e9	2a c8		 sub	 cl, al
  006eb	8b 85 d4 fe ff
	ff		 mov	 eax, DWORD PTR _i$559994[ebp]
  006f1	30 4c 05 e4	 xor	 BYTE PTR __k$559894[ebp+eax], cl
  006f5	ff 85 d4 fe ff
	ff		 inc	 DWORD PTR _i$559994[ebp]
  006fb	83 bd d4 fe ff
	ff 0f		 cmp	 DWORD PTR _i$559994[ebp], 15 ; 0000000fH
  00702	7c d1		 jl	 SHORT $LL1535@LoadProper
  00704	89 95 d4 fe ff
	ff		 mov	 DWORD PTR tv14650[ebp], edx
  0070a	db 85 d4 fe ff
	ff		 fild	 DWORD PTR tv14650[ebp]
  00710	85 d2		 test	 edx, edx
  00712	79 06		 jns	 SHORT $LN1833@LoadProper
  00714	d8 05 00 00 00
	00		 fadd	 DWORD PTR __real@4f800000
$LN1833@LoadProper:
  0071a	8b 85 d8 fe ff
	ff		 mov	 eax, DWORD PTR $T559878[ebp]
  00720	db 85 d8 fe ff
	ff		 fild	 DWORD PTR $T559878[ebp]
  00726	85 c0		 test	 eax, eax
  00728	79 06		 jns	 SHORT $LN1834@LoadProper
  0072a	d8 05 00 00 00
	00		 fadd	 DWORD PTR __real@4f800000
$LN1834@LoadProper:
  00730	de f9		 fdivp	 ST(1), ST(0)
  00732	51		 push	 ecx
  00733	8d 45 e4	 lea	 eax, DWORD PTR __k$559894[ebp]
  00736	8b cf		 mov	 ecx, edi
  00738	d9 9d d8 fe ff
	ff		 fstp	 DWORD PTR tv14642[ebp]
  0073e	d9 85 d8 fe ff
	ff		 fld	 DWORD PTR tv14642[ebp]
  00744	d9 1c 24	 fstp	 DWORD PTR [esp]
  00747	50		 push	 eax
  00748	ff 15 00 00 00
	00		 call	 DWORD PTR __imp_?LoadFloat@ioINILoader@@QAEMPBDM@Z
  0074e	d9 9d d8 fe ff
	ff		 fstp	 DWORD PTR _value$560006[ebp]
  00754	8d 85 d8 fe ff
	ff		 lea	 eax, DWORD PTR _value$560006[ebp]
  0075a	50		 push	 eax
  0075b	8d 8e 10 13 00
	00		 lea	 ecx, DWORD PTR [esi+4880]
  00761	e8 00 00 00 00	 call	 ?EncryptValueToPool@?$CEncrypt@M@@AAEXPBD@Z ; CEncrypt<float>::EncryptValueToPool

; 82   : 	m_fDownTargetAimRate = rkLoader.LoadFloat_e( "down_target_aim_rate", FLOAT05 );

  00766	b8 05 00 00 00	 mov	 eax, 5
  0076b	8b d0		 mov	 edx, eax
  0076d	b8 0a 00 00 00	 mov	 eax, 10			; 0000000aH
  00772	6a 05		 push	 5
  00774	89 85 d8 fe ff
	ff		 mov	 DWORD PTR $T560016[ebp], eax
  0077a	c7 45 e0 89 83
	9c 84		 mov	 DWORD PTR __k$560032[ebp], -2070117495 ; 849c8389H
  00781	c7 45 e4 b2 98
	8a 98		 mov	 DWORD PTR __k$560032[ebp+4], -1735747406 ; 988a98b2H
  00788	c7 45 e8 8a 89
	9f b5		 mov	 DWORD PTR __k$560032[ebp+8], -1247835766 ; b59f898aH
  0078f	c7 45 ec 8c 85
	86 b5		 mov	 DWORD PTR __k$560032[ebp+12], -1249475188 ; b586858cH
  00796	c7 45 f0 9f 8d
	9f 8f		 mov	 DWORD PTR __k$560032[ebp+16], -1885368929 ; 8f9f8d9fH
  0079d	8d 4d e0	 lea	 ecx, DWORD PTR __k$560032[ebp]
  007a0	88 5d f4	 mov	 BYTE PTR __k$560032[ebp+20], bl
  007a3	58		 pop	 eax
$LL1650@LoadProper:
  007a4	81 31 ed ec eb
	ea		 xor	 DWORD PTR [ecx], -353637139 ; eaebecedH
  007aa	83 c1 04	 add	 ecx, 4
  007ad	48		 dec	 eax
  007ae	75 f4		 jne	 SHORT $LL1650@LoadProper
  007b0	89 95 d4 fe ff
	ff		 mov	 DWORD PTR tv14632[ebp], edx
  007b6	db 85 d4 fe ff
	ff		 fild	 DWORD PTR tv14632[ebp]
  007bc	85 d2		 test	 edx, edx
  007be	79 06		 jns	 SHORT $LN1835@LoadProper
  007c0	d8 05 00 00 00
	00		 fadd	 DWORD PTR __real@4f800000
$LN1835@LoadProper:
  007c6	8b 85 d8 fe ff
	ff		 mov	 eax, DWORD PTR $T560016[ebp]
  007cc	db 85 d8 fe ff
	ff		 fild	 DWORD PTR $T560016[ebp]
  007d2	85 c0		 test	 eax, eax
  007d4	79 06		 jns	 SHORT $LN1836@LoadProper
  007d6	d8 05 00 00 00
	00		 fadd	 DWORD PTR __real@4f800000
$LN1836@LoadProper:
  007dc	de f9		 fdivp	 ST(1), ST(0)
  007de	51		 push	 ecx
  007df	8d 45 e0	 lea	 eax, DWORD PTR __k$560032[ebp]
  007e2	8b cf		 mov	 ecx, edi
  007e4	d9 9d d8 fe ff
	ff		 fstp	 DWORD PTR tv14624[ebp]
  007ea	d9 85 d8 fe ff
	ff		 fld	 DWORD PTR tv14624[ebp]
  007f0	d9 1c 24	 fstp	 DWORD PTR [esp]
  007f3	50		 push	 eax
  007f4	ff 15 00 00 00
	00		 call	 DWORD PTR __imp_?LoadFloat@ioINILoader@@QAEMPBDM@Z
  007fa	d9 9d d8 fe ff
	ff		 fstp	 DWORD PTR _value$560145[ebp]
  00800	8d 85 d8 fe ff
	ff		 lea	 eax, DWORD PTR _value$560145[ebp]
  00806	50		 push	 eax
  00807	8d 8e 40 13 00
	00		 lea	 ecx, DWORD PTR [esi+4928]
  0080d	e8 00 00 00 00	 call	 ?EncryptValueToPool@?$CEncrypt@M@@AAEXPBD@Z ; CEncrypt<float>::EncryptValueToPool
  00812	6a 03		 push	 3

; 83   : 
; 84   : 	rkLoader.LoadString_e( "aimed_marker", "", szBuf, MAX_PATH );

  00814	c7 45 e8 8c 85
	86 8f		 mov	 DWORD PTR __k$560175[ebp], -1887009396 ; 8f86858cH
  0081b	c7 45 ec 89 b3
	86 8b		 mov	 DWORD PTR __k$560175[ebp+4], -1954106487 ; 8b86b389H
  00822	c7 45 f0 9f 87
	8e 98		 mov	 DWORD PTR __k$560175[ebp+8], -1735489633 ; 988e879fH
  00829	8d 45 e8	 lea	 eax, DWORD PTR __k$560175[ebp]
  0082c	88 5d f4	 mov	 BYTE PTR __k$560175[ebp+12], bl
  0082f	59		 pop	 ecx
$LL1758@LoadProper:
  00830	81 30 ed ec eb
	ea		 xor	 DWORD PTR [eax], -353637139 ; eaebecedH
  00836	83 c0 04	 add	 eax, 4
  00839	49		 dec	 ecx
  0083a	75 f4		 jne	 SHORT $LL1758@LoadProper
  0083c	68 04 01 00 00	 push	 260			; 00000104H
  00841	8d 85 dc fe ff
	ff		 lea	 eax, DWORD PTR _szBuf$[ebp]
  00847	50		 push	 eax
  00848	68 00 00 00 00	 push	 OFFSET ??_C@_00CNPNBAHC@?$AA@
  0084d	8d 45 e8	 lea	 eax, DWORD PTR __k$560175[ebp]
  00850	50		 push	 eax
  00851	8b cf		 mov	 ecx, edi
  00853	ff 15 00 00 00
	00		 call	 DWORD PTR __imp_?LoadStringA@ioINILoader@@QAEXPBD0PADH@Z

; 85   : 	m_szAimedMarker = szBuf;

  00859	8d 85 dc fe ff
	ff		 lea	 eax, DWORD PTR _szBuf$[ebp]
  0085f	50		 push	 eax
  00860	8d 8e 70 13 00
	00		 lea	 ecx, DWORD PTR [esi+4976]
  00866	ff 15 00 00 00
	00		 call	 DWORD PTR __imp_??4ioHashString@@QAEAAV0@PBD@Z

; 86   : }

  0086c	8b 4d fc	 mov	 ecx, DWORD PTR __$ArrayPad$[ebp]
  0086f	5f		 pop	 edi
  00870	5e		 pop	 esi
  00871	33 cd		 xor	 ecx, ebp
  00873	5b		 pop	 ebx
  00874	e8 00 00 00 00	 call	 @__security_check_cookie@4
  00879	c9		 leave
  0087a	c2 04 00	 ret	 4
?LoadProperty@ioFireSkill2@@UAEXAAVioINILoader@@@Z ENDP	; ioFireSkill2::LoadProperty
_TEXT	ENDS
EXTRN	?SetTargetMarker@ioBaseGUISupport@@QAEXW4MarkerType@ioTargetMarker@@ABVioHashString@@1111W4TargetedType@@@Z:PROC ; ioBaseGUISupport::SetTargetMarker
EXTRN	__imp_?Clear@ioHashString@@QAEXXZ:PROC
EXTRN	?OnSkillStart@ioAttackSkill@@UAE_NPAVioBaseChar@@@Z:PROC ; ioAttackSkill::OnSkillStart
;	COMDAT xdata$x
; File d:\lost saga for developer\youtube\tutorial\source\src\lsclient\encryptvalue.h
xdata$x	SEGMENT
__unwindtable$?OnSkillStart@ioFireSkill2@@UAE_NPAVioBaseChar@@@Z DD 0ffffffffH
	DD	FLAT:__unwindfunclet$?OnSkillStart@ioFireSkill2@@UAE_NPAVioBaseChar@@@Z$0
__ehfuncinfo$?OnSkillStart@ioFireSkill2@@UAE_NPAVioBaseChar@@@Z DD 019930522H
	DD	01H
	DD	FLAT:__unwindtable$?OnSkillStart@ioFireSkill2@@UAE_NPAVioBaseChar@@@Z
	DD	2 DUP(00H)
	DD	2 DUP(00H)
	DD	00H
	DD	01H
; Function compile flags: /Ogsp
; File d:\lost saga for developer\youtube\tutorial\source\src\lsclient\iofireskill2.cpp
xdata$x	ENDS
;	COMDAT ?OnSkillStart@ioFireSkill2@@UAE_NPAVioBaseChar@@@Z
_TEXT	SEGMENT
$T560354 = -32						; size = 16
_value$560359 = -16					; size = 4
__$EHRec$ = -12						; size = 12
_pChar$ = 8						; size = 4
?OnSkillStart@ioFireSkill2@@UAE_NPAVioBaseChar@@@Z PROC	; ioFireSkill2::OnSkillStart, COMDAT
; _this$ = ecx

; 94   : {

  00000	6a 14		 push	 20			; 00000014H
  00002	b8 00 00 00 00	 mov	 eax, __ehhandler$?OnSkillStart@ioFireSkill2@@UAE_NPAVioBaseChar@@@Z
  00007	e8 00 00 00 00	 call	 __EH_prolog3
  0000c	8b d9		 mov	 ebx, ecx

; 95   : 	if( !ioAttackSkill::OnSkillStart( pChar ) )

  0000e	ff 75 08	 push	 DWORD PTR _pChar$[ebp]
  00011	e8 00 00 00 00	 call	 ?OnSkillStart@ioAttackSkill@@UAE_NPAVioBaseChar@@@Z ; ioAttackSkill::OnSkillStart
  00016	84 c0		 test	 al, al
  00018	0f 84 a4 00 00
	00		 je	 $LN3@OnSkillSta
$LN2@OnSkillSta:

; 96   : 		return false;
; 97   : 
; 98   : 	m_bSetHandMesh = false;
; 99   : 
; 100  : 	m_SkillState = SS_NONE;

  0001e	83 a3 e4 10 00
	00 00		 and	 DWORD PTR [ebx+4324], 0

; 101  : 	m_iCurFireCnt = 0;

  00025	83 65 f0 00	 and	 DWORD PTR _value$560359[ebp], 0
  00029	8d 45 f0	 lea	 eax, DWORD PTR _value$560359[ebp]
  0002c	50		 push	 eax
  0002d	8d 8b 4c 11 00
	00		 lea	 ecx, DWORD PTR [ebx+4428]
  00033	c6 83 0a 0f 00
	00 00		 mov	 BYTE PTR [ebx+3850], 0
  0003a	e8 00 00 00 00	 call	 ?EncryptValueToPool@?$CEncrypt@H@@AAEXPBD@Z ; CEncrypt<int>::EncryptValueToPool

; 102  : 	m_vTargetPos = ioMath::VEC3_ZERO;

  0003f	8b 35 00 00 00
	00		 mov	 esi, DWORD PTR __imp_?VEC3_ZERO@ioMath@@2UD3DXVECTOR3@@A
  00045	8d bb e4 12 00
	00		 lea	 edi, DWORD PTR [ebx+4836]
  0004b	a5		 movsd
  0004c	a5		 movsd
  0004d	a5		 movsd

; 103  : 	m_dwActionStartTime = 0;

  0004e	33 ff		 xor	 edi, edi

; 104  : 	m_LastTargetName.Clear();

  00050	8d 8b d4 12 00
	00		 lea	 ecx, DWORD PTR [ebx+4820]
  00056	89 bb 18 11 00
	00		 mov	 DWORD PTR [ebx+4376], edi
  0005c	ff 15 00 00 00
	00		 call	 DWORD PTR __imp_?Clear@ioHashString@@QAEXXZ

; 105  : 
; 106  : 	// set marker
; 107  : 	pChar->SetTargetMarker( ioTargetMarker::MT_OTHER_MARKER,
; 108  : 							m_szAimedMarker,
; 109  : 							m_szAimedMarker,
; 110  : 							m_szAimedMarker,
; 111  : 							m_szAimedMarker,
; 112  : 							"",
; 113  : 							TT_OTHER );

  00062	68 00 00 00 00	 push	 OFFSET ??_C@_00CNPNBAHC@?$AA@
  00067	8d 4d e0	 lea	 ecx, DWORD PTR $T560354[ebp]
  0006a	ff 15 00 00 00
	00		 call	 DWORD PTR __imp_??0ioHashString@@QAE@PBD@Z
  00070	8b 75 08	 mov	 esi, DWORD PTR _pChar$[ebp]
  00073	6a 01		 push	 1
  00075	8d 83 70 13 00
	00		 lea	 eax, DWORD PTR [ebx+4976]
  0007b	8d 4d e0	 lea	 ecx, DWORD PTR $T560354[ebp]
  0007e	51		 push	 ecx
  0007f	50		 push	 eax
  00080	50		 push	 eax
  00081	50		 push	 eax
  00082	50		 push	 eax
  00083	6a 07		 push	 7
  00085	8d 8e cc 01 00
	00		 lea	 ecx, DWORD PTR [esi+460]
  0008b	89 7d fc	 mov	 DWORD PTR __$EHRec$[ebp+8], edi
  0008e	e8 00 00 00 00	 call	 ?SetTargetMarker@ioBaseGUISupport@@QAEXW4MarkerType@ioTargetMarker@@ABVioHashString@@1111W4TargetedType@@@Z ; ioBaseGUISupport::SetTargetMarker
  00093	83 4d fc ff	 or	 DWORD PTR __$EHRec$[ebp+8], -1
  00097	8d 4d e0	 lea	 ecx, DWORD PTR $T560354[ebp]
  0009a	ff 15 00 00 00
	00		 call	 DWORD PTR __imp_??1ioHashString@@QAE@XZ

; 114  : 
; 115  : 	pChar->SetTargetMarkerState( ioTargetMarker::MS_NONE, TT_OTHER );

  000a0	6a 01		 push	 1
  000a2	57		 push	 edi
  000a3	8d 8e cc 01 00
	00		 lea	 ecx, DWORD PTR [esi+460]
  000a9	e8 00 00 00 00	 call	 ?SetTargetMarkerState@ioBaseGUISupport@@QAEXW4MarkerState@ioTargetMarker@@W4TargetedType@@@Z ; ioBaseGUISupport::SetTargetMarkerState

; 116  : 
; 117  : 	//    
; 118  : 	if( m_bUseItemMesh )

  000ae	80 bb 08 0f 00
	00 00		 cmp	 BYTE PTR [ebx+3848], 0
  000b5	74 09		 je	 SHORT $LN1@OnSkillSta

; 119  : 	{
; 120  : 		pChar->ShowWeaponItemMesh( false );

  000b7	57		 push	 edi
  000b8	57		 push	 edi
  000b9	8b ce		 mov	 ecx, esi
  000bb	e8 00 00 00 00	 call	 ?ShowWeaponItemMesh@ioBaseChar@@QAEX_N0@Z ; ioBaseChar::ShowWeaponItemMesh
$LN1@OnSkillSta:

; 121  : 	}
; 122  : 
; 123  : 	return true;

  000c0	b0 01		 mov	 al, 1
$LN3@OnSkillSta:

; 124  : }

  000c2	e8 00 00 00 00	 call	 __EH_epilog3
  000c7	c2 04 00	 ret	 4
_TEXT	ENDS
;	COMDAT text$x
text$x	SEGMENT
__unwindfunclet$?OnSkillStart@ioFireSkill2@@UAE_NPAVioBaseChar@@@Z$0:
  00000	8d 4d e0	 lea	 ecx, DWORD PTR $T560354[ebp]
  00003	ff 25 00 00 00
	00		 jmp	 DWORD PTR __imp_??1ioHashString@@QAE@XZ
__ehhandler$?OnSkillStart@ioFireSkill2@@UAE_NPAVioBaseChar@@@Z:
  00009	8b 54 24 08	 mov	 edx, DWORD PTR [esp+8]
  0000d	8d 42 0c	 lea	 eax, DWORD PTR [edx+12]
  00010	8b 4a dc	 mov	 ecx, DWORD PTR [edx-36]
  00013	33 c8		 xor	 ecx, eax
  00015	e8 00 00 00 00	 call	 @__security_check_cookie@4
  0001a	b8 00 00 00 00	 mov	 eax, OFFSET __ehfuncinfo$?OnSkillStart@ioFireSkill2@@UAE_NPAVioBaseChar@@@Z
  0001f	e9 00 00 00 00	 jmp	 ___CxxFrameHandler3
text$x	ENDS
?OnSkillStart@ioFireSkill2@@UAE_NPAVioBaseChar@@@Z ENDP	; ioFireSkill2::OnSkillStart
; Function compile flags: /Ogsp
;	COMDAT ?IsSkillMotionEnd@ioFireSkill2@@UBE_NKPAVioBaseChar@@@Z
_TEXT	SEGMENT
_value$560377 = -4					; size = 4
_value$560371 = 8					; size = 4
_dwActionStop$ = 8					; size = 4
_pOwner$ = 12						; size = 4
?IsSkillMotionEnd@ioFireSkill2@@UBE_NKPAVioBaseChar@@@Z PROC ; ioFireSkill2::IsSkillMotionEnd, COMDAT
; _this$ = ecx

; 682  : {

  00000	55		 push	 ebp
  00001	8b ec		 mov	 ebp, esp
  00003	51		 push	 ecx
  00004	56		 push	 esi
  00005	8b f1		 mov	 esi, ecx

; 683  : 	DWORD dwCurTime = FRAMEGETTIME();

  00007	ff 15 00 00 00
	00		 call	 DWORD PTR __imp_?GetSingleton@ioFrameTimer@@SAAAV1@XZ
  0000d	8b c8		 mov	 ecx, eax
  0000f	ff 15 00 00 00
	00		 call	 DWORD PTR __imp_?GetLoopSec@ioFrameTimer@@QBEKXZ

; 684  : 
; 685  : 	if( m_dwPreDelayStartTime > 0 )

  00015	83 be 20 02 00
	00 00		 cmp	 DWORD PTR [esi+544], 0

; 686  : 		return false;

  0001c	77 45		 ja	 SHORT $LN3@IsSkillMot

; 687  : 
; 688  : 	switch( m_SkillState )

  0001e	8b 8e e4 10 00
	00		 mov	 ecx, DWORD PTR [esi+4324]
  00024	83 e9 00	 sub	 ecx, 0
  00027	74 3a		 je	 SHORT $LN3@IsSkillMot
  00029	49		 dec	 ecx

; 696  : 		}
; 697  : 		return false;
; 698  : 	}
; 699  : 
; 700  : 	return false;

  0002a	75 37		 jne	 SHORT $LN3@IsSkillMot

; 692  : 	case SS_ACTION:
; 693  : 		if( m_dwMotionEndTime + dwActionStop < dwCurTime && m_iCurFireCnt >= m_iMaxFireCnt )

  0002c	8b 8e d8 02 00
	00		 mov	 ecx, DWORD PTR [esi+728]
  00032	03 4d 08	 add	 ecx, DWORD PTR _dwActionStop$[ebp]
  00035	3b c8		 cmp	 ecx, eax
  00037	73 2a		 jae	 SHORT $LN3@IsSkillMot
  00039	8d 45 08	 lea	 eax, DWORD PTR _value$560371[ebp]
  0003c	50		 push	 eax
  0003d	8d 8e 4c 11 00
	00		 lea	 ecx, DWORD PTR [esi+4428]
  00043	e8 00 00 00 00	 call	 ?DecryptValueToPool@?$CEncrypt@H@@QAEXPAH@Z ; CEncrypt<int>::DecryptValueToPool
  00048	8d 45 fc	 lea	 eax, DWORD PTR _value$560377[ebp]
  0004b	50		 push	 eax
  0004c	8d 8e 1c 11 00
	00		 lea	 ecx, DWORD PTR [esi+4380]
  00052	e8 00 00 00 00	 call	 ?DecryptValueToPool@?$CEncrypt@H@@QAEXPAH@Z ; CEncrypt<int>::DecryptValueToPool
  00057	8b 45 08	 mov	 eax, DWORD PTR _value$560371[ebp]
  0005a	3b 45 fc	 cmp	 eax, DWORD PTR _value$560377[ebp]
  0005d	7c 04		 jl	 SHORT $LN3@IsSkillMot

; 694  : 		{
; 695  : 			return true;

  0005f	b0 01		 mov	 al, 1
  00061	eb 02		 jmp	 SHORT $LN7@IsSkillMot
$LN3@IsSkillMot:

; 689  : 	{
; 690  : 	case SS_NONE:
; 691  : 		return false;

  00063	32 c0		 xor	 al, al
$LN7@IsSkillMot:
  00065	5e		 pop	 esi

; 701  : }

  00066	c9		 leave
  00067	c2 08 00	 ret	 8
?IsSkillMotionEnd@ioFireSkill2@@UBE_NKPAVioBaseChar@@@Z ENDP ; ioFireSkill2::IsSkillMotionEnd
; Function compile flags: /Ogsp
_TEXT	ENDS
;	COMDAT ?IsProtected@ioFireSkill2@@UBE_NH@Z
_TEXT	SEGMENT
_value$560384 = 8					; size = 4
_iDefenseBreakType$ = 8					; size = 4
?IsProtected@ioFireSkill2@@UBE_NH@Z PROC		; ioFireSkill2::IsProtected, COMDAT
; _this$ = ecx

; 704  : {

  00000	55		 push	 ebp
  00001	8b ec		 mov	 ebp, esp
  00003	56		 push	 esi
  00004	8b f1		 mov	 esi, ecx

; 705  : 	if( DBT_NONE != (DefenseBreakType)m_ProtectCancelType )

  00006	8b 86 a4 00 00
	00		 mov	 eax, DWORD PTR [esi+164]
  0000c	85 c0		 test	 eax, eax
  0000e	74 09		 je	 SHORT $LN8@IsProtecte

; 706  : 	{
; 707  : 		if( iDefenseBreakType == m_ProtectCancelType )   //   

  00010	39 45 08	 cmp	 DWORD PTR _iDefenseBreakType$[ebp], eax
  00013	75 04		 jne	 SHORT $LN8@IsProtecte

; 708  : 			return false;

  00015	32 c0		 xor	 al, al
  00017	eb 5b		 jmp	 SHORT $LN2@IsProtecte
$LN8@IsProtecte:
  00019	57		 push	 edi

; 709  : 	}
; 710  : 
; 711  : 	DWORD dwCurTime = FRAMEGETTIME();

  0001a	ff 15 00 00 00
	00		 call	 DWORD PTR __imp_?GetSingleton@ioFrameTimer@@SAAAV1@XZ
  00020	8b c8		 mov	 ecx, eax
  00022	ff 15 00 00 00
	00		 call	 DWORD PTR __imp_?GetLoopSec@ioFrameTimer@@QBEKXZ
  00028	8b f8		 mov	 edi, eax

; 712  : 
; 713  : 	if( IsPreDelayProtect() )

  0002a	8b 06		 mov	 eax, DWORD PTR [esi]
  0002c	8b ce		 mov	 ecx, esi
  0002e	ff 90 2c 01 00
	00		 call	 DWORD PTR [eax+300]
  00034	84 c0		 test	 al, al
  00036	74 09		 je	 SHORT $LN6@IsProtecte

; 714  : 	{
; 715  : 		if( m_dwPreDelayStartTime != 0 )

  00038	83 be 20 02 00
	00 00		 cmp	 DWORD PTR [esi+544], 0

; 716  : 			return true;

  0003f	75 0c		 jne	 SHORT $LN15@IsProtecte
$LN6@IsProtecte:

; 717  : 	}
; 718  : 
; 719  : 	switch( m_SkillState )

  00041	8b 86 e4 10 00
	00		 mov	 eax, DWORD PTR [esi+4324]
  00047	48		 dec	 eax
  00048	74 0b		 je	 SHORT $LN3@IsProtecte
  0004a	48		 dec	 eax
  0004b	74 04		 je	 SHORT $LN1@IsProtecte
$LN15@IsProtecte:

; 727  : 	}
; 728  : 
; 729  : 	return true;

  0004d	b0 01		 mov	 al, 1
  0004f	eb 22		 jmp	 SHORT $LN14@IsProtecte
$LN1@IsProtecte:

; 723  : 			return false;
; 724  : 		return true;
; 725  : 	case SS_END:
; 726  : 		return false;

  00051	32 c0		 xor	 al, al
  00053	eb 1e		 jmp	 SHORT $LN14@IsProtecte
$LN3@IsProtecte:

; 720  : 	{
; 721  : 	case SS_ACTION:
; 722  : 		if( m_dwActionStartTime+m_dwSkillProtectTime < dwCurTime )

  00055	8d 45 08	 lea	 eax, DWORD PTR _value$560384[ebp]
  00058	50		 push	 eax
  00059	8d 8e e8 10 00
	00		 lea	 ecx, DWORD PTR [esi+4328]
  0005f	e8 00 00 00 00	 call	 ?DecryptValueToPool@?$CEncrypt@K@@QAEXPAK@Z ; CEncrypt<unsigned long>::DecryptValueToPool
  00064	8b 86 18 11 00
	00		 mov	 eax, DWORD PTR [esi+4376]
  0006a	03 45 08	 add	 eax, DWORD PTR _value$560384[ebp]
  0006d	3b c7		 cmp	 eax, edi
  0006f	1a c0		 sbb	 al, al
  00071	fe c0		 inc	 al
$LN14@IsProtecte:
  00073	5f		 pop	 edi
$LN2@IsProtecte:
  00074	5e		 pop	 esi

; 730  : }

  00075	5d		 pop	 ebp
  00076	c2 04 00	 ret	 4
?IsProtected@ioFireSkill2@@UBE_NH@Z ENDP		; ioFireSkill2::IsProtected
_TEXT	ENDS
PUBLIC	??0?$CEncrypt@K@@QAE@ABV0@@Z			; CEncrypt<unsigned long>::CEncrypt<unsigned long>
;	COMDAT xdata$x
; File d:\lost saga for developer\youtube\tutorial\source\src\lsclient\encryptvalue.h
xdata$x	SEGMENT
__unwindtable$??0?$CEncrypt@K@@QAE@ABV0@@Z DD 0ffffffffH
	DD	FLAT:__unwindfunclet$??0?$CEncrypt@K@@QAE@ABV0@@Z$0
__ehfuncinfo$??0?$CEncrypt@K@@QAE@ABV0@@Z DD 019930522H
	DD	01H
	DD	FLAT:__unwindtable$??0?$CEncrypt@K@@QAE@ABV0@@Z
	DD	2 DUP(00H)
	DD	2 DUP(00H)
	DD	00H
	DD	01H
; Function compile flags: /Ogsp
xdata$x	ENDS
;	COMDAT ??0?$CEncrypt@K@@QAE@ABV0@@Z
_TEXT	SEGMENT
_this$ = -16						; size = 4
__$EHRec$ = -12						; size = 12
_value$560399 = 8					; size = 4
_value$560394 = 8					; size = 4
_inValue$ = 8						; size = 4
??0?$CEncrypt@K@@QAE@ABV0@@Z PROC			; CEncrypt<unsigned long>::CEncrypt<unsigned long>, COMDAT
; _this$ = ecx

; 120  : 	CEncrypt( const CEncrypt<type> &inValue )   //     

  00000	6a 04		 push	 4
  00002	b8 00 00 00 00	 mov	 eax, __ehhandler$??0?$CEncrypt@K@@QAE@ABV0@@Z
  00007	e8 00 00 00 00	 call	 __EH_prolog3
  0000c	8b f1		 mov	 esi, ecx
  0000e	89 75 f0	 mov	 DWORD PTR _this$[ebp], esi
  00011	8d 4e 0c	 lea	 ecx, DWORD PTR [esi+12]
  00014	c7 06 00 00 00
	00		 mov	 DWORD PTR [esi], OFFSET ??_7?$CEncrypt@K@@6B@
  0001a	e8 00 00 00 00	 call	 ??0ccddaabb@@QAE@XZ	; ccddaabb::ccddaabb
  0001f	83 65 fc 00	 and	 DWORD PTR __$EHRec$[ebp+8], 0

; 121  : 	{
; 122  : 		Init();

  00023	8b ce		 mov	 ecx, esi
  00025	e8 00 00 00 00	 call	 ?Init@?$CEncrypt@K@@AAEXXZ ; CEncrypt<unsigned long>::Init

; 123  : 		*this = inValue;

  0002a	8b 4d 08	 mov	 ecx, DWORD PTR _inValue$[ebp]
  0002d	8d 45 08	 lea	 eax, DWORD PTR _value$560394[ebp]
  00030	50		 push	 eax
  00031	e8 00 00 00 00	 call	 ?DecryptValueToPool@?$CEncrypt@K@@QAEXPAK@Z ; CEncrypt<unsigned long>::DecryptValueToPool
  00036	8b 45 08	 mov	 eax, DWORD PTR _value$560394[ebp]
  00039	89 45 08	 mov	 DWORD PTR _value$560399[ebp], eax
  0003c	8d 45 08	 lea	 eax, DWORD PTR _value$560399[ebp]
  0003f	50		 push	 eax
  00040	8b ce		 mov	 ecx, esi
  00042	e8 00 00 00 00	 call	 ?EncryptValueToPool@?$CEncrypt@K@@AAEXPBD@Z ; CEncrypt<unsigned long>::EncryptValueToPool

; 124  : 	}

  00047	8b c6		 mov	 eax, esi
  00049	e8 00 00 00 00	 call	 __EH_epilog3
  0004e	c2 04 00	 ret	 4
_TEXT	ENDS
;	COMDAT text$x
text$x	SEGMENT
__unwindfunclet$??0?$CEncrypt@K@@QAE@ABV0@@Z$0:
  00000	8b 4d f0	 mov	 ecx, DWORD PTR _this$[ebp]
  00003	83 c1 0c	 add	 ecx, 12			; 0000000cH
  00006	e9 00 00 00 00	 jmp	 ??1ccddaabb@@UAE@XZ	; ccddaabb::~ccddaabb
__ehhandler$??0?$CEncrypt@K@@QAE@ABV0@@Z:
  0000b	8b 54 24 08	 mov	 edx, DWORD PTR [esp+8]
  0000f	8d 42 0c	 lea	 eax, DWORD PTR [edx+12]
  00012	8b 4a ec	 mov	 ecx, DWORD PTR [edx-20]
  00015	33 c8		 xor	 ecx, eax
  00017	e8 00 00 00 00	 call	 @__security_check_cookie@4
  0001c	b8 00 00 00 00	 mov	 eax, OFFSET __ehfuncinfo$??0?$CEncrypt@K@@QAE@ABV0@@Z
  00021	e9 00 00 00 00	 jmp	 ___CxxFrameHandler3
text$x	ENDS
??0?$CEncrypt@K@@QAE@ABV0@@Z ENDP			; CEncrypt<unsigned long>::CEncrypt<unsigned long>
PUBLIC	??0?$CEncrypt@H@@QAE@ABV0@@Z			; CEncrypt<int>::CEncrypt<int>
;	COMDAT xdata$x
xdata$x	SEGMENT
__unwindtable$??0?$CEncrypt@H@@QAE@ABV0@@Z DD 0ffffffffH
	DD	FLAT:__unwindfunclet$??0?$CEncrypt@H@@QAE@ABV0@@Z$0
__ehfuncinfo$??0?$CEncrypt@H@@QAE@ABV0@@Z DD 019930522H
	DD	01H
	DD	FLAT:__unwindtable$??0?$CEncrypt@H@@QAE@ABV0@@Z
	DD	2 DUP(00H)
	DD	2 DUP(00H)
	DD	00H
	DD	01H
; Function compile flags: /Ogsp
xdata$x	ENDS
;	COMDAT ??0?$CEncrypt@H@@QAE@ABV0@@Z
_TEXT	SEGMENT
_this$ = -16						; size = 4
__$EHRec$ = -12						; size = 12
_value$560418 = 8					; size = 4
_value$560413 = 8					; size = 4
_inValue$ = 8						; size = 4
??0?$CEncrypt@H@@QAE@ABV0@@Z PROC			; CEncrypt<int>::CEncrypt<int>, COMDAT
; _this$ = ecx

; 120  : 	CEncrypt( const CEncrypt<type> &inValue )   //     

  00000	6a 04		 push	 4
  00002	b8 00 00 00 00	 mov	 eax, __ehhandler$??0?$CEncrypt@H@@QAE@ABV0@@Z
  00007	e8 00 00 00 00	 call	 __EH_prolog3
  0000c	8b f1		 mov	 esi, ecx
  0000e	89 75 f0	 mov	 DWORD PTR _this$[ebp], esi
  00011	8d 4e 0c	 lea	 ecx, DWORD PTR [esi+12]
  00014	c7 06 00 00 00
	00		 mov	 DWORD PTR [esi], OFFSET ??_7?$CEncrypt@H@@6B@
  0001a	e8 00 00 00 00	 call	 ??0ccddaabb@@QAE@XZ	; ccddaabb::ccddaabb
  0001f	83 65 fc 00	 and	 DWORD PTR __$EHRec$[ebp+8], 0

; 121  : 	{
; 122  : 		Init();

  00023	8b ce		 mov	 ecx, esi
  00025	e8 00 00 00 00	 call	 ?Init@?$CEncrypt@H@@AAEXXZ ; CEncrypt<int>::Init

; 123  : 		*this = inValue;

  0002a	8b 4d 08	 mov	 ecx, DWORD PTR _inValue$[ebp]
  0002d	8d 45 08	 lea	 eax, DWORD PTR _value$560413[ebp]
  00030	50		 push	 eax
  00031	e8 00 00 00 00	 call	 ?DecryptValueToPool@?$CEncrypt@H@@QAEXPAH@Z ; CEncrypt<int>::DecryptValueToPool
  00036	8b 45 08	 mov	 eax, DWORD PTR _value$560413[ebp]
  00039	89 45 08	 mov	 DWORD PTR _value$560418[ebp], eax
  0003c	8d 45 08	 lea	 eax, DWORD PTR _value$560418[ebp]
  0003f	50		 push	 eax
  00040	8b ce		 mov	 ecx, esi
  00042	e8 00 00 00 00	 call	 ?EncryptValueToPool@?$CEncrypt@H@@AAEXPBD@Z ; CEncrypt<int>::EncryptValueToPool

; 124  : 	}

  00047	8b c6		 mov	 eax, esi
  00049	e8 00 00 00 00	 call	 __EH_epilog3
  0004e	c2 04 00	 ret	 4
_TEXT	ENDS
;	COMDAT text$x
text$x	SEGMENT
__unwindfunclet$??0?$CEncrypt@H@@QAE@ABV0@@Z$0:
  00000	8b 4d f0	 mov	 ecx, DWORD PTR _this$[ebp]
  00003	83 c1 0c	 add	 ecx, 12			; 0000000cH
  00006	e9 00 00 00 00	 jmp	 ??1ccddaabb@@UAE@XZ	; ccddaabb::~ccddaabb
__ehhandler$??0?$CEncrypt@H@@QAE@ABV0@@Z:
  0000b	8b 54 24 08	 mov	 edx, DWORD PTR [esp+8]
  0000f	8d 42 0c	 lea	 eax, DWORD PTR [edx+12]
  00012	8b 4a ec	 mov	 ecx, DWORD PTR [edx-20]
  00015	33 c8		 xor	 ecx, eax
  00017	e8 00 00 00 00	 call	 @__security_check_cookie@4
  0001c	b8 00 00 00 00	 mov	 eax, OFFSET __ehfuncinfo$??0?$CEncrypt@H@@QAE@ABV0@@Z
  00021	e9 00 00 00 00	 jmp	 ___CxxFrameHandler3
text$x	ENDS
??0?$CEncrypt@H@@QAE@ABV0@@Z ENDP			; CEncrypt<int>::CEncrypt<int>
PUBLIC	??0?$vector@PAVioBaseChar@@V?$allocator@PAVioBaseChar@@@std@@@std@@QAE@XZ ; std::vector<ioBaseChar *,std::allocator<ioBaseChar *> >::vector<ioBaseChar *,std::allocator<ioBaseChar *> >
; Function compile flags: /Ogsp
; File c:\program files (x86)\microsoft visual studio 10.0\vc\include\vector
;	COMDAT ??0?$vector@PAVioBaseChar@@V?$allocator@PAVioBaseChar@@@std@@@std@@QAE@XZ
_TEXT	SEGMENT
??0?$vector@PAVioBaseChar@@V?$allocator@PAVioBaseChar@@@std@@@std@@QAE@XZ PROC ; std::vector<ioBaseChar *,std::allocator<ioBaseChar *> >::vector<ioBaseChar *,std::allocator<ioBaseChar *> >, COMDAT
; _this$ = ecx

; 507  : 		{	// construct empty vector

  00000	8b c1		 mov	 eax, ecx
  00002	33 c9		 xor	 ecx, ecx
  00004	89 08		 mov	 DWORD PTR [eax], ecx
  00006	89 48 04	 mov	 DWORD PTR [eax+4], ecx
  00009	89 48 08	 mov	 DWORD PTR [eax+8], ecx

; 508  : 		}

  0000c	c3		 ret	 0
??0?$vector@PAVioBaseChar@@V?$allocator@PAVioBaseChar@@@std@@@std@@QAE@XZ ENDP ; std::vector<ioBaseChar *,std::allocator<ioBaseChar *> >::vector<ioBaseChar *,std::allocator<ioBaseChar *> >
_TEXT	ENDS
PUBLIC	?begin@?$vector@PAVioBaseChar@@V?$allocator@PAVioBaseChar@@@std@@@std@@QAE?AV?$_Vector_iterator@V?$_Vector_val@PAVioBaseChar@@V?$allocator@PAVioBaseChar@@@std@@@std@@@2@XZ ; std::vector<ioBaseChar *,std::allocator<ioBaseChar *> >::begin
; Function compile flags: /Ogsp
;	COMDAT ?begin@?$vector@PAVioBaseChar@@V?$allocator@PAVioBaseChar@@@std@@@std@@QAE?AV?$_Vector_iterator@V?$_Vector_val@PAVioBaseChar@@V?$allocator@PAVioBaseChar@@@std@@@std@@@2@XZ
_TEXT	SEGMENT
___$ReturnUdt$ = 8					; size = 4
?begin@?$vector@PAVioBaseChar@@V?$allocator@PAVioBaseChar@@@std@@@std@@QAE?AV?$_Vector_iterator@V?$_Vector_val@PAVioBaseChar@@V?$allocator@PAVioBaseChar@@@std@@@std@@@2@XZ PROC ; std::vector<ioBaseChar *,std::allocator<ioBaseChar *> >::begin, COMDAT
; _this$ = ecx

; 781  : 		{	// return iterator for beginning of mutable sequence

  00000	55		 push	 ebp
  00001	8b ec		 mov	 ebp, esp

; 782  : 		return (iterator(this->_Myfirst, this));

  00003	8b 09		 mov	 ecx, DWORD PTR [ecx]
  00005	8b 45 08	 mov	 eax, DWORD PTR ___$ReturnUdt$[ebp]
  00008	89 08		 mov	 DWORD PTR [eax], ecx

; 783  : 		}

  0000a	5d		 pop	 ebp
  0000b	c2 04 00	 ret	 4
?begin@?$vector@PAVioBaseChar@@V?$allocator@PAVioBaseChar@@@std@@@std@@QAE?AV?$_Vector_iterator@V?$_Vector_val@PAVioBaseChar@@V?$allocator@PAVioBaseChar@@@std@@@std@@@2@XZ ENDP ; std::vector<ioBaseChar *,std::allocator<ioBaseChar *> >::begin
_TEXT	ENDS
PUBLIC	?end@?$vector@PAVioBaseChar@@V?$allocator@PAVioBaseChar@@@std@@@std@@QAE?AV?$_Vector_iterator@V?$_Vector_val@PAVioBaseChar@@V?$allocator@PAVioBaseChar@@@std@@@std@@@2@XZ ; std::vector<ioBaseChar *,std::allocator<ioBaseChar *> >::end
; Function compile flags: /Ogsp
;	COMDAT ?end@?$vector@PAVioBaseChar@@V?$allocator@PAVioBaseChar@@@std@@@std@@QAE?AV?$_Vector_iterator@V?$_Vector_val@PAVioBaseChar@@V?$allocator@PAVioBaseChar@@@std@@@std@@@2@XZ
_TEXT	SEGMENT
___$ReturnUdt$ = 8					; size = 4
?end@?$vector@PAVioBaseChar@@V?$allocator@PAVioBaseChar@@@std@@@std@@QAE?AV?$_Vector_iterator@V?$_Vector_val@PAVioBaseChar@@V?$allocator@PAVioBaseChar@@@std@@@std@@@2@XZ PROC ; std::vector<ioBaseChar *,std::allocator<ioBaseChar *> >::end, COMDAT
; _this$ = ecx

; 791  : 		{	// return iterator for end of mutable sequence

  00000	55		 push	 ebp
  00001	8b ec		 mov	 ebp, esp

; 792  : 		return (iterator(this->_Mylast, this));

  00003	8b 49 04	 mov	 ecx, DWORD PTR [ecx+4]
  00006	8b 45 08	 mov	 eax, DWORD PTR ___$ReturnUdt$[ebp]
  00009	89 08		 mov	 DWORD PTR [eax], ecx

; 793  : 		}

  0000b	5d		 pop	 ebp
  0000c	c2 04 00	 ret	 4
?end@?$vector@PAVioBaseChar@@V?$allocator@PAVioBaseChar@@@std@@@std@@QAE?AV?$_Vector_iterator@V?$_Vector_val@PAVioBaseChar@@V?$allocator@PAVioBaseChar@@@std@@@std@@@2@XZ ENDP ; std::vector<ioBaseChar *,std::allocator<ioBaseChar *> >::end
_TEXT	ENDS
PUBLIC	??0?$vector@UtagBaseCharDistanceSq@@V?$allocator@UtagBaseCharDistanceSq@@@std@@@std@@QAE@XZ ; std::vector<tagBaseCharDistanceSq,std::allocator<tagBaseCharDistanceSq> >::vector<tagBaseCharDistanceSq,std::allocator<tagBaseCharDistanceSq> >
; Function compile flags: /Ogsp
;	COMDAT ??0?$vector@UtagBaseCharDistanceSq@@V?$allocator@UtagBaseCharDistanceSq@@@std@@@std@@QAE@XZ
_TEXT	SEGMENT
??0?$vector@UtagBaseCharDistanceSq@@V?$allocator@UtagBaseCharDistanceSq@@@std@@@std@@QAE@XZ PROC ; std::vector<tagBaseCharDistanceSq,std::allocator<tagBaseCharDistanceSq> >::vector<tagBaseCharDistanceSq,std::allocator<tagBaseCharDistanceSq> >, COMDAT
; _this$ = ecx

; 507  : 		{	// construct empty vector

  00000	8b c1		 mov	 eax, ecx
  00002	33 c9		 xor	 ecx, ecx
  00004	89 08		 mov	 DWORD PTR [eax], ecx
  00006	89 48 04	 mov	 DWORD PTR [eax+4], ecx
  00009	89 48 08	 mov	 DWORD PTR [eax+8], ecx

; 508  : 		}

  0000c	c3		 ret	 0
??0?$vector@UtagBaseCharDistanceSq@@V?$allocator@UtagBaseCharDistanceSq@@@std@@@std@@QAE@XZ ENDP ; std::vector<tagBaseCharDistanceSq,std::allocator<tagBaseCharDistanceSq> >::vector<tagBaseCharDistanceSq,std::allocator<tagBaseCharDistanceSq> >
_TEXT	ENDS
PUBLIC	?begin@?$vector@UtagBaseCharDistanceSq@@V?$allocator@UtagBaseCharDistanceSq@@@std@@@std@@QAE?AV?$_Vector_iterator@V?$_Vector_val@UtagBaseCharDistanceSq@@V?$allocator@UtagBaseCharDistanceSq@@@std@@@std@@@2@XZ ; std::vector<tagBaseCharDistanceSq,std::allocator<tagBaseCharDistanceSq> >::begin
; Function compile flags: /Ogsp
;	COMDAT ?begin@?$vector@UtagBaseCharDistanceSq@@V?$allocator@UtagBaseCharDistanceSq@@@std@@@std@@QAE?AV?$_Vector_iterator@V?$_Vector_val@UtagBaseCharDistanceSq@@V?$allocator@UtagBaseCharDistanceSq@@@std@@@std@@@2@XZ
_TEXT	SEGMENT
___$ReturnUdt$ = 8					; size = 4
?begin@?$vector@UtagBaseCharDistanceSq@@V?$allocator@UtagBaseCharDistanceSq@@@std@@@std@@QAE?AV?$_Vector_iterator@V?$_Vector_val@UtagBaseCharDistanceSq@@V?$allocator@UtagBaseCharDistanceSq@@@std@@@std@@@2@XZ PROC ; std::vector<tagBaseCharDistanceSq,std::allocator<tagBaseCharDistanceSq> >::begin, COMDAT
; _this$ = ecx

; 781  : 		{	// return iterator for beginning of mutable sequence

  00000	55		 push	 ebp
  00001	8b ec		 mov	 ebp, esp

; 782  : 		return (iterator(this->_Myfirst, this));

  00003	8b 09		 mov	 ecx, DWORD PTR [ecx]
  00005	8b 45 08	 mov	 eax, DWORD PTR ___$ReturnUdt$[ebp]
  00008	89 08		 mov	 DWORD PTR [eax], ecx

; 783  : 		}

  0000a	5d		 pop	 ebp
  0000b	c2 04 00	 ret	 4
?begin@?$vector@UtagBaseCharDistanceSq@@V?$allocator@UtagBaseCharDistanceSq@@@std@@@std@@QAE?AV?$_Vector_iterator@V?$_Vector_val@UtagBaseCharDistanceSq@@V?$allocator@UtagBaseCharDistanceSq@@@std@@@std@@@2@XZ ENDP ; std::vector<tagBaseCharDistanceSq,std::allocator<tagBaseCharDistanceSq> >::begin
_TEXT	ENDS
PUBLIC	?end@?$vector@UtagBaseCharDistanceSq@@V?$allocator@UtagBaseCharDistanceSq@@@std@@@std@@QAE?AV?$_Vector_iterator@V?$_Vector_val@UtagBaseCharDistanceSq@@V?$allocator@UtagBaseCharDistanceSq@@@std@@@std@@@2@XZ ; std::vector<tagBaseCharDistanceSq,std::allocator<tagBaseCharDistanceSq> >::end
; Function compile flags: /Ogsp
;	COMDAT ?end@?$vector@UtagBaseCharDistanceSq@@V?$allocator@UtagBaseCharDistanceSq@@@std@@@std@@QAE?AV?$_Vector_iterator@V?$_Vector_val@UtagBaseCharDistanceSq@@V?$allocator@UtagBaseCharDistanceSq@@@std@@@std@@@2@XZ
_TEXT	SEGMENT
___$ReturnUdt$ = 8					; size = 4
?end@?$vector@UtagBaseCharDistanceSq@@V?$allocator@UtagBaseCharDistanceSq@@@std@@@std@@QAE?AV?$_Vector_iterator@V?$_Vector_val@UtagBaseCharDistanceSq@@V?$allocator@UtagBaseCharDistanceSq@@@std@@@std@@@2@XZ PROC ; std::vector<tagBaseCharDistanceSq,std::allocator<tagBaseCharDistanceSq> >::end, COMDAT
; _this$ = ecx

; 791  : 		{	// return iterator for end of mutable sequence

  00000	55		 push	 ebp
  00001	8b ec		 mov	 ebp, esp

; 792  : 		return (iterator(this->_Mylast, this));

  00003	8b 49 04	 mov	 ecx, DWORD PTR [ecx+4]
  00006	8b 45 08	 mov	 eax, DWORD PTR ___$ReturnUdt$[ebp]
  00009	89 08		 mov	 DWORD PTR [eax], ecx

; 793  : 		}

  0000b	5d		 pop	 ebp
  0000c	c2 04 00	 ret	 4
?end@?$vector@UtagBaseCharDistanceSq@@V?$allocator@UtagBaseCharDistanceSq@@@std@@@std@@QAE?AV?$_Vector_iterator@V?$_Vector_val@UtagBaseCharDistanceSq@@V?$allocator@UtagBaseCharDistanceSq@@@std@@@std@@@2@XZ ENDP ; std::vector<tagBaseCharDistanceSq,std::allocator<tagBaseCharDistanceSq> >::end
_TEXT	ENDS
PUBLIC	?front@?$vector@UtagBaseCharDistanceSq@@V?$allocator@UtagBaseCharDistanceSq@@@std@@@std@@QAEAAUtagBaseCharDistanceSq@@XZ ; std::vector<tagBaseCharDistanceSq,std::allocator<tagBaseCharDistanceSq> >::front
; Function compile flags: /Ogsp
;	COMDAT ?front@?$vector@UtagBaseCharDistanceSq@@V?$allocator@UtagBaseCharDistanceSq@@@std@@@std@@QAEAAUtagBaseCharDistanceSq@@XZ
_TEXT	SEGMENT
?front@?$vector@UtagBaseCharDistanceSq@@V?$allocator@UtagBaseCharDistanceSq@@@std@@@std@@QAEAAUtagBaseCharDistanceSq@@XZ PROC ; std::vector<tagBaseCharDistanceSq,std::allocator<tagBaseCharDistanceSq> >::front, COMDAT
; _this$ = ecx

; 957  : 		return (*begin());

  00000	8b 01		 mov	 eax, DWORD PTR [ecx]

; 958  : 		}

  00002	c3		 ret	 0
?front@?$vector@UtagBaseCharDistanceSq@@V?$allocator@UtagBaseCharDistanceSq@@@std@@@std@@QAEAAUtagBaseCharDistanceSq@@XZ ENDP ; std::vector<tagBaseCharDistanceSq,std::allocator<tagBaseCharDistanceSq> >::front
_TEXT	ENDS
PUBLIC	??9?$_Vector_const_iterator@V?$_Vector_val@PAVioBaseChar@@V?$allocator@PAVioBaseChar@@@std@@@std@@@std@@QBE_NABV01@@Z ; std::_Vector_const_iterator<std::_Vector_val<ioBaseChar *,std::allocator<ioBaseChar *> > >::operator!=
; Function compile flags: /Ogsp
;	COMDAT ??9?$_Vector_const_iterator@V?$_Vector_val@PAVioBaseChar@@V?$allocator@PAVioBaseChar@@@std@@@std@@@std@@QBE_NABV01@@Z
_TEXT	SEGMENT
__Right$ = 8						; size = 4
??9?$_Vector_const_iterator@V?$_Vector_val@PAVioBaseChar@@V?$allocator@PAVioBaseChar@@@std@@@std@@@std@@QBE_NABV01@@Z PROC ; std::_Vector_const_iterator<std::_Vector_val<ioBaseChar *,std::allocator<ioBaseChar *> > >::operator!=, COMDAT
; _this$ = ecx

; 207  : 		{	// test for iterator inequality

  00000	55		 push	 ebp
  00001	8b ec		 mov	 ebp, esp

; 208  : 		return (!(*this == _Right));

  00003	8b 01		 mov	 eax, DWORD PTR [ecx]
  00005	8b 55 08	 mov	 edx, DWORD PTR __Right$[ebp]
  00008	33 c9		 xor	 ecx, ecx
  0000a	3b 02		 cmp	 eax, DWORD PTR [edx]
  0000c	0f 95 c0	 setne	 al

; 209  : 		}

  0000f	5d		 pop	 ebp
  00010	c2 04 00	 ret	 4
??9?$_Vector_const_iterator@V?$_Vector_val@PAVioBaseChar@@V?$allocator@PAVioBaseChar@@@std@@@std@@@std@@QBE_NABV01@@Z ENDP ; std::_Vector_const_iterator<std::_Vector_val<ioBaseChar *,std::allocator<ioBaseChar *> > >::operator!=
_TEXT	ENDS
PUBLIC	??E?$_Vector_iterator@V?$_Vector_val@UtagBaseCharDistanceSq@@V?$allocator@UtagBaseCharDistanceSq@@@std@@@std@@@std@@QAE?AV01@H@Z ; std::_Vector_iterator<std::_Vector_val<tagBaseCharDistanceSq,std::allocator<tagBaseCharDistanceSq> > >::operator++
; Function compile flags: /Ogsp
;	COMDAT ??E?$_Vector_iterator@V?$_Vector_val@UtagBaseCharDistanceSq@@V?$allocator@UtagBaseCharDistanceSq@@@std@@@std@@@std@@QAE?AV01@H@Z
_TEXT	SEGMENT
___$ReturnUdt$ = 8					; size = 4
___formal$ = 12						; size = 4
??E?$_Vector_iterator@V?$_Vector_val@UtagBaseCharDistanceSq@@V?$allocator@UtagBaseCharDistanceSq@@@std@@@std@@@std@@QAE?AV01@H@Z PROC ; std::_Vector_iterator<std::_Vector_val<tagBaseCharDistanceSq,std::allocator<tagBaseCharDistanceSq> > >::operator++, COMDAT
; _this$ = ecx

; 337  : 		{	// postincrement

  00000	55		 push	 ebp
  00001	8b ec		 mov	 ebp, esp

; 338  : 		_Myiter _Tmp = *this;

  00003	8b 11		 mov	 edx, DWORD PTR [ecx]
  00005	8b 45 08	 mov	 eax, DWORD PTR ___$ReturnUdt$[ebp]
  00008	89 10		 mov	 DWORD PTR [eax], edx

; 339  : 		++*this;

  0000a	83 c2 20	 add	 edx, 32			; 00000020H
  0000d	89 11		 mov	 DWORD PTR [ecx], edx

; 340  : 		return (_Tmp);
; 341  : 		}

  0000f	5d		 pop	 ebp
  00010	c2 08 00	 ret	 8
??E?$_Vector_iterator@V?$_Vector_val@UtagBaseCharDistanceSq@@V?$allocator@UtagBaseCharDistanceSq@@@std@@@std@@@std@@QAE?AV01@H@Z ENDP ; std::_Vector_iterator<std::_Vector_val<tagBaseCharDistanceSq,std::allocator<tagBaseCharDistanceSq> > >::operator++
_TEXT	ENDS
PUBLIC	??9?$_Vector_const_iterator@V?$_Vector_val@UtagBaseCharDistanceSq@@V?$allocator@UtagBaseCharDistanceSq@@@std@@@std@@@std@@QBE_NABV01@@Z ; std::_Vector_const_iterator<std::_Vector_val<tagBaseCharDistanceSq,std::allocator<tagBaseCharDistanceSq> > >::operator!=
; Function compile flags: /Ogsp
;	COMDAT ??9?$_Vector_const_iterator@V?$_Vector_val@UtagBaseCharDistanceSq@@V?$allocator@UtagBaseCharDistanceSq@@@std@@@std@@@std@@QBE_NABV01@@Z
_TEXT	SEGMENT
__Right$ = 8						; size = 4
??9?$_Vector_const_iterator@V?$_Vector_val@UtagBaseCharDistanceSq@@V?$allocator@UtagBaseCharDistanceSq@@@std@@@std@@@std@@QBE_NABV01@@Z PROC ; std::_Vector_const_iterator<std::_Vector_val<tagBaseCharDistanceSq,std::allocator<tagBaseCharDistanceSq> > >::operator!=, COMDAT
; _this$ = ecx

; 207  : 		{	// test for iterator inequality

  00000	55		 push	 ebp
  00001	8b ec		 mov	 ebp, esp

; 208  : 		return (!(*this == _Right));

  00003	8b 01		 mov	 eax, DWORD PTR [ecx]
  00005	8b 55 08	 mov	 edx, DWORD PTR __Right$[ebp]
  00008	33 c9		 xor	 ecx, ecx
  0000a	3b 02		 cmp	 eax, DWORD PTR [edx]
  0000c	0f 95 c0	 setne	 al

; 209  : 		}

  0000f	5d		 pop	 ebp
  00010	c2 04 00	 ret	 4
??9?$_Vector_const_iterator@V?$_Vector_val@UtagBaseCharDistanceSq@@V?$allocator@UtagBaseCharDistanceSq@@@std@@@std@@@std@@QBE_NABV01@@Z ENDP ; std::_Vector_const_iterator<std::_Vector_val<tagBaseCharDistanceSq,std::allocator<tagBaseCharDistanceSq> > >::operator!=
_TEXT	ENDS
PUBLIC	??0?$vector@PBUAniEventTime@@V?$allocator@PBUAniEventTime@@@std@@@std@@QAE@XZ ; std::vector<AniEventTime const *,std::allocator<AniEventTime const *> >::vector<AniEventTime const *,std::allocator<AniEventTime const *> >
; Function compile flags: /Ogsp
;	COMDAT ??0?$vector@PBUAniEventTime@@V?$allocator@PBUAniEventTime@@@std@@@std@@QAE@XZ
_TEXT	SEGMENT
??0?$vector@PBUAniEventTime@@V?$allocator@PBUAniEventTime@@@std@@@std@@QAE@XZ PROC ; std::vector<AniEventTime const *,std::allocator<AniEventTime const *> >::vector<AniEventTime const *,std::allocator<AniEventTime const *> >, COMDAT
; _this$ = ecx

; 507  : 		{	// construct empty vector

  00000	8b c1		 mov	 eax, ecx
  00002	33 c9		 xor	 ecx, ecx
  00004	89 08		 mov	 DWORD PTR [eax], ecx
  00006	89 48 04	 mov	 DWORD PTR [eax+4], ecx
  00009	89 48 08	 mov	 DWORD PTR [eax+8], ecx

; 508  : 		}

  0000c	c3		 ret	 0
??0?$vector@PBUAniEventTime@@V?$allocator@PBUAniEventTime@@@std@@@std@@QAE@XZ ENDP ; std::vector<AniEventTime const *,std::allocator<AniEventTime const *> >::vector<AniEventTime const *,std::allocator<AniEventTime const *> >
_TEXT	ENDS
PUBLIC	?begin@?$vector@PBUAniEventTime@@V?$allocator@PBUAniEventTime@@@std@@@std@@QAE?AV?$_Vector_iterator@V?$_Vector_val@PBUAniEventTime@@V?$allocator@PBUAniEventTime@@@std@@@std@@@2@XZ ; std::vector<AniEventTime const *,std::allocator<AniEventTime const *> >::begin
; Function compile flags: /Ogsp
;	COMDAT ?begin@?$vector@PBUAniEventTime@@V?$allocator@PBUAniEventTime@@@std@@@std@@QAE?AV?$_Vector_iterator@V?$_Vector_val@PBUAniEventTime@@V?$allocator@PBUAniEventTime@@@std@@@std@@@2@XZ
_TEXT	SEGMENT
___$ReturnUdt$ = 8					; size = 4
?begin@?$vector@PBUAniEventTime@@V?$allocator@PBUAniEventTime@@@std@@@std@@QAE?AV?$_Vector_iterator@V?$_Vector_val@PBUAniEventTime@@V?$allocator@PBUAniEventTime@@@std@@@std@@@2@XZ PROC ; std::vector<AniEventTime const *,std::allocator<AniEventTime const *> >::begin, COMDAT
; _this$ = ecx

; 781  : 		{	// return iterator for beginning of mutable sequence

  00000	55		 push	 ebp
  00001	8b ec		 mov	 ebp, esp

; 782  : 		return (iterator(this->_Myfirst, this));

  00003	8b 09		 mov	 ecx, DWORD PTR [ecx]
  00005	8b 45 08	 mov	 eax, DWORD PTR ___$ReturnUdt$[ebp]
  00008	89 08		 mov	 DWORD PTR [eax], ecx

; 783  : 		}

  0000a	5d		 pop	 ebp
  0000b	c2 04 00	 ret	 4
?begin@?$vector@PBUAniEventTime@@V?$allocator@PBUAniEventTime@@@std@@@std@@QAE?AV?$_Vector_iterator@V?$_Vector_val@PBUAniEventTime@@V?$allocator@PBUAniEventTime@@@std@@@std@@@2@XZ ENDP ; std::vector<AniEventTime const *,std::allocator<AniEventTime const *> >::begin
_TEXT	ENDS
PUBLIC	?end@?$vector@PBUAniEventTime@@V?$allocator@PBUAniEventTime@@@std@@@std@@QAE?AV?$_Vector_iterator@V?$_Vector_val@PBUAniEventTime@@V?$allocator@PBUAniEventTime@@@std@@@std@@@2@XZ ; std::vector<AniEventTime const *,std::allocator<AniEventTime const *> >::end
; Function compile flags: /Ogsp
;	COMDAT ?end@?$vector@PBUAniEventTime@@V?$allocator@PBUAniEventTime@@@std@@@std@@QAE?AV?$_Vector_iterator@V?$_Vector_val@PBUAniEventTime@@V?$allocator@PBUAniEventTime@@@std@@@std@@@2@XZ
_TEXT	SEGMENT
___$ReturnUdt$ = 8					; size = 4
?end@?$vector@PBUAniEventTime@@V?$allocator@PBUAniEventTime@@@std@@@std@@QAE?AV?$_Vector_iterator@V?$_Vector_val@PBUAniEventTime@@V?$allocator@PBUAniEventTime@@@std@@@std@@@2@XZ PROC ; std::vector<AniEventTime const *,std::allocator<AniEventTime const *> >::end, COMDAT
; _this$ = ecx

; 791  : 		{	// return iterator for end of mutable sequence

  00000	55		 push	 ebp
  00001	8b ec		 mov	 ebp, esp

; 792  : 		return (iterator(this->_Mylast, this));

  00003	8b 49 04	 mov	 ecx, DWORD PTR [ecx+4]
  00006	8b 45 08	 mov	 eax, DWORD PTR ___$ReturnUdt$[ebp]
  00009	89 08		 mov	 DWORD PTR [eax], ecx

; 793  : 		}

  0000b	5d		 pop	 ebp
  0000c	c2 04 00	 ret	 4
?end@?$vector@PBUAniEventTime@@V?$allocator@PBUAniEventTime@@@std@@@std@@QAE?AV?$_Vector_iterator@V?$_Vector_val@PBUAniEventTime@@V?$allocator@PBUAniEventTime@@@std@@@std@@@2@XZ ENDP ; std::vector<AniEventTime const *,std::allocator<AniEventTime const *> >::end
_TEXT	ENDS
PUBLIC	??9?$_Vector_const_iterator@V?$_Vector_val@PBUAniEventTime@@V?$allocator@PBUAniEventTime@@@std@@@std@@@std@@QBE_NABV01@@Z ; std::_Vector_const_iterator<std::_Vector_val<AniEventTime const *,std::allocator<AniEventTime const *> > >::operator!=
; Function compile flags: /Ogsp
;	COMDAT ??9?$_Vector_const_iterator@V?$_Vector_val@PBUAniEventTime@@V?$allocator@PBUAniEventTime@@@std@@@std@@@std@@QBE_NABV01@@Z
_TEXT	SEGMENT
__Right$ = 8						; size = 4
??9?$_Vector_const_iterator@V?$_Vector_val@PBUAniEventTime@@V?$allocator@PBUAniEventTime@@@std@@@std@@@std@@QBE_NABV01@@Z PROC ; std::_Vector_const_iterator<std::_Vector_val<AniEventTime const *,std::allocator<AniEventTime const *> > >::operator!=, COMDAT
; _this$ = ecx

; 207  : 		{	// test for iterator inequality

  00000	55		 push	 ebp
  00001	8b ec		 mov	 ebp, esp

; 208  : 		return (!(*this == _Right));

  00003	8b 01		 mov	 eax, DWORD PTR [ecx]
  00005	8b 55 08	 mov	 edx, DWORD PTR __Right$[ebp]
  00008	33 c9		 xor	 ecx, ecx
  0000a	3b 02		 cmp	 eax, DWORD PTR [edx]
  0000c	0f 95 c0	 setne	 al

; 209  : 		}

  0000f	5d		 pop	 ebp
  00010	c2 04 00	 ret	 4
??9?$_Vector_const_iterator@V?$_Vector_val@PBUAniEventTime@@V?$allocator@PBUAniEventTime@@@std@@@std@@@std@@QBE_NABV01@@Z ENDP ; std::_Vector_const_iterator<std::_Vector_val<AniEventTime const *,std::allocator<AniEventTime const *> > >::operator!=
_TEXT	ENDS
PUBLIC	?begin@?$vector@UAniRotateInfo@@V?$allocator@UAniRotateInfo@@@std@@@std@@QAE?AV?$_Vector_iterator@V?$_Vector_val@UAniRotateInfo@@V?$allocator@UAniRotateInfo@@@std@@@std@@@2@XZ ; std::vector<AniRotateInfo,std::allocator<AniRotateInfo> >::begin
; Function compile flags: /Ogsp
;	COMDAT ?begin@?$vector@UAniRotateInfo@@V?$allocator@UAniRotateInfo@@@std@@@std@@QAE?AV?$_Vector_iterator@V?$_Vector_val@UAniRotateInfo@@V?$allocator@UAniRotateInfo@@@std@@@std@@@2@XZ
_TEXT	SEGMENT
___$ReturnUdt$ = 8					; size = 4
?begin@?$vector@UAniRotateInfo@@V?$allocator@UAniRotateInfo@@@std@@@std@@QAE?AV?$_Vector_iterator@V?$_Vector_val@UAniRotateInfo@@V?$allocator@UAniRotateInfo@@@std@@@std@@@2@XZ PROC ; std::vector<AniRotateInfo,std::allocator<AniRotateInfo> >::begin, COMDAT
; _this$ = ecx

; 781  : 		{	// return iterator for beginning of mutable sequence

  00000	55		 push	 ebp
  00001	8b ec		 mov	 ebp, esp

; 782  : 		return (iterator(this->_Myfirst, this));

  00003	8b 09		 mov	 ecx, DWORD PTR [ecx]
  00005	8b 45 08	 mov	 eax, DWORD PTR ___$ReturnUdt$[ebp]
  00008	89 08		 mov	 DWORD PTR [eax], ecx

; 783  : 		}

  0000a	5d		 pop	 ebp
  0000b	c2 04 00	 ret	 4
?begin@?$vector@UAniRotateInfo@@V?$allocator@UAniRotateInfo@@@std@@@std@@QAE?AV?$_Vector_iterator@V?$_Vector_val@UAniRotateInfo@@V?$allocator@UAniRotateInfo@@@std@@@std@@@2@XZ ENDP ; std::vector<AniRotateInfo,std::allocator<AniRotateInfo> >::begin
_TEXT	ENDS
PUBLIC	?end@?$vector@UAniRotateInfo@@V?$allocator@UAniRotateInfo@@@std@@@std@@QAE?AV?$_Vector_iterator@V?$_Vector_val@UAniRotateInfo@@V?$allocator@UAniRotateInfo@@@std@@@std@@@2@XZ ; std::vector<AniRotateInfo,std::allocator<AniRotateInfo> >::end
; Function compile flags: /Ogsp
;	COMDAT ?end@?$vector@UAniRotateInfo@@V?$allocator@UAniRotateInfo@@@std@@@std@@QAE?AV?$_Vector_iterator@V?$_Vector_val@UAniRotateInfo@@V?$allocator@UAniRotateInfo@@@std@@@std@@@2@XZ
_TEXT	SEGMENT
___$ReturnUdt$ = 8					; size = 4
?end@?$vector@UAniRotateInfo@@V?$allocator@UAniRotateInfo@@@std@@@std@@QAE?AV?$_Vector_iterator@V?$_Vector_val@UAniRotateInfo@@V?$allocator@UAniRotateInfo@@@std@@@std@@@2@XZ PROC ; std::vector<AniRotateInfo,std::allocator<AniRotateInfo> >::end, COMDAT
; _this$ = ecx

; 791  : 		{	// return iterator for end of mutable sequence

  00000	55		 push	 ebp
  00001	8b ec		 mov	 ebp, esp

; 792  : 		return (iterator(this->_Mylast, this));

  00003	8b 49 04	 mov	 ecx, DWORD PTR [ecx+4]
  00006	8b 45 08	 mov	 eax, DWORD PTR ___$ReturnUdt$[ebp]
  00009	89 08		 mov	 DWORD PTR [eax], ecx

; 793  : 		}

  0000b	5d		 pop	 ebp
  0000c	c2 04 00	 ret	 4
?end@?$vector@UAniRotateInfo@@V?$allocator@UAniRotateInfo@@@std@@@std@@QAE?AV?$_Vector_iterator@V?$_Vector_val@UAniRotateInfo@@V?$allocator@UAniRotateInfo@@@std@@@std@@@2@XZ ENDP ; std::vector<AniRotateInfo,std::allocator<AniRotateInfo> >::end
_TEXT	ENDS
PUBLIC	?_Destroy@?$vector@PAVioBaseChar@@V?$allocator@PAVioBaseChar@@@std@@@std@@IAEXPAPAVioBaseChar@@0@Z ; std::vector<ioBaseChar *,std::allocator<ioBaseChar *> >::_Destroy
; Function compile flags: /Ogsp
;	COMDAT ?_Destroy@?$vector@PAVioBaseChar@@V?$allocator@PAVioBaseChar@@@std@@@std@@IAEXPAPAVioBaseChar@@0@Z
_TEXT	SEGMENT
__First$ = 8						; size = 4
__Last$ = 12						; size = 4
?_Destroy@?$vector@PAVioBaseChar@@V?$allocator@PAVioBaseChar@@@std@@@std@@IAEXPAPAVioBaseChar@@0@Z PROC ; std::vector<ioBaseChar *,std::allocator<ioBaseChar *> >::_Destroy, COMDAT
; _this$ = ecx

; 1270 : 		_Destroy_range(_First, _Last, this->_Alval);
; 1271 : 		}

  00000	c2 08 00	 ret	 8
?_Destroy@?$vector@PAVioBaseChar@@V?$allocator@PAVioBaseChar@@@std@@@std@@IAEXPAPAVioBaseChar@@0@Z ENDP ; std::vector<ioBaseChar *,std::allocator<ioBaseChar *> >::_Destroy
_TEXT	ENDS
PUBLIC	?_Make_iter@?$vector@UAniRotateInfo@@V?$allocator@UAniRotateInfo@@@std@@@std@@QBE?AV?$_Vector_iterator@V?$_Vector_val@UAniRotateInfo@@V?$allocator@UAniRotateInfo@@@std@@@std@@@2@V?$_Vector_const_iterator@V?$_Vector_val@UAniRotateInfo@@V?$allocator@UAniRotateInfo@@@std@@@std@@@2@@Z ; std::vector<AniRotateInfo,std::allocator<AniRotateInfo> >::_Make_iter
; Function compile flags: /Ogsp
;	COMDAT ?_Make_iter@?$vector@UAniRotateInfo@@V?$allocator@UAniRotateInfo@@@std@@@std@@QBE?AV?$_Vector_iterator@V?$_Vector_val@UAniRotateInfo@@V?$allocator@UAniRotateInfo@@@std@@@std@@@2@V?$_Vector_const_iterator@V?$_Vector_val@UAniRotateInfo@@V?$allocator@UAniRotateInfo@@@std@@@std@@@2@@Z
_TEXT	SEGMENT
___$ReturnUdt$ = 8					; size = 4
__Where$ = 12						; size = 4
?_Make_iter@?$vector@UAniRotateInfo@@V?$allocator@UAniRotateInfo@@@std@@@std@@QBE?AV?$_Vector_iterator@V?$_Vector_val@UAniRotateInfo@@V?$allocator@UAniRotateInfo@@@std@@@std@@@2@V?$_Vector_const_iterator@V?$_Vector_val@UAniRotateInfo@@V?$allocator@UAniRotateInfo@@@std@@@std@@@2@@Z PROC ; std::vector<AniRotateInfo,std::allocator<AniRotateInfo> >::_Make_iter, COMDAT
; _this$ = ecx

; 801  : 		{	// make iterator from const_iterator

  00000	55		 push	 ebp
  00001	8b ec		 mov	 ebp, esp

; 802  : 		return (iterator(_Where._Ptr, this));

  00003	8b 45 08	 mov	 eax, DWORD PTR ___$ReturnUdt$[ebp]
  00006	8b 4d 0c	 mov	 ecx, DWORD PTR __Where$[ebp]
  00009	89 08		 mov	 DWORD PTR [eax], ecx

; 803  : 		}

  0000b	5d		 pop	 ebp
  0000c	c2 08 00	 ret	 8
?_Make_iter@?$vector@UAniRotateInfo@@V?$allocator@UAniRotateInfo@@@std@@@std@@QBE?AV?$_Vector_iterator@V?$_Vector_val@UAniRotateInfo@@V?$allocator@UAniRotateInfo@@@std@@@std@@@2@V?$_Vector_const_iterator@V?$_Vector_val@UAniRotateInfo@@V?$allocator@UAniRotateInfo@@@std@@@std@@@2@@Z ENDP ; std::vector<AniRotateInfo,std::allocator<AniRotateInfo> >::_Make_iter
_TEXT	ENDS
PUBLIC	?_Destroy@?$vector@PBUAniEventTime@@V?$allocator@PBUAniEventTime@@@std@@@std@@IAEXPAPBUAniEventTime@@0@Z ; std::vector<AniEventTime const *,std::allocator<AniEventTime const *> >::_Destroy
; Function compile flags: /Ogsp
;	COMDAT ?_Destroy@?$vector@PBUAniEventTime@@V?$allocator@PBUAniEventTime@@@std@@@std@@IAEXPAPBUAniEventTime@@0@Z
_TEXT	SEGMENT
__First$ = 8						; size = 4
__Last$ = 12						; size = 4
?_Destroy@?$vector@PBUAniEventTime@@V?$allocator@PBUAniEventTime@@@std@@@std@@IAEXPAPBUAniEventTime@@0@Z PROC ; std::vector<AniEventTime const *,std::allocator<AniEventTime const *> >::_Destroy, COMDAT
; _this$ = ecx

; 1270 : 		_Destroy_range(_First, _Last, this->_Alval);
; 1271 : 		}

  00000	c2 08 00	 ret	 8
?_Destroy@?$vector@PBUAniEventTime@@V?$allocator@PBUAniEventTime@@@std@@@std@@IAEXPAPBUAniEventTime@@0@Z ENDP ; std::vector<AniEventTime const *,std::allocator<AniEventTime const *> >::_Destroy
_TEXT	ENDS
PUBLIC	??9?$_Vector_const_iterator@V?$_Vector_val@UAniRotateInfo@@V?$allocator@UAniRotateInfo@@@std@@@std@@@std@@QBE_NABV01@@Z ; std::_Vector_const_iterator<std::_Vector_val<AniRotateInfo,std::allocator<AniRotateInfo> > >::operator!=
; Function compile flags: /Ogsp
;	COMDAT ??9?$_Vector_const_iterator@V?$_Vector_val@UAniRotateInfo@@V?$allocator@UAniRotateInfo@@@std@@@std@@@std@@QBE_NABV01@@Z
_TEXT	SEGMENT
__Right$ = 8						; size = 4
??9?$_Vector_const_iterator@V?$_Vector_val@UAniRotateInfo@@V?$allocator@UAniRotateInfo@@@std@@@std@@@std@@QBE_NABV01@@Z PROC ; std::_Vector_const_iterator<std::_Vector_val<AniRotateInfo,std::allocator<AniRotateInfo> > >::operator!=, COMDAT
; _this$ = ecx

; 207  : 		{	// test for iterator inequality

  00000	55		 push	 ebp
  00001	8b ec		 mov	 ebp, esp

; 208  : 		return (!(*this == _Right));

  00003	8b 01		 mov	 eax, DWORD PTR [ecx]
  00005	8b 55 08	 mov	 edx, DWORD PTR __Right$[ebp]
  00008	33 c9		 xor	 ecx, ecx
  0000a	3b 02		 cmp	 eax, DWORD PTR [edx]
  0000c	0f 95 c0	 setne	 al

; 209  : 		}

  0000f	5d		 pop	 ebp
  00010	c2 04 00	 ret	 4
??9?$_Vector_const_iterator@V?$_Vector_val@UAniRotateInfo@@V?$allocator@UAniRotateInfo@@@std@@@std@@@std@@QBE_NABV01@@Z ENDP ; std::_Vector_const_iterator<std::_Vector_val<AniRotateInfo,std::allocator<AniRotateInfo> > >::operator!=
_TEXT	ENDS
PUBLIC	??$_Cons_val@V?$allocator@UAniRotateInfo@@@std@@UAniRotateInfo@@ABU3@@std@@YAXAAV?$allocator@UAniRotateInfo@@@0@PAUAniRotateInfo@@ABU2@@Z ; std::_Cons_val<std::allocator<AniRotateInfo>,AniRotateInfo,AniRotateInfo const &>
; Function compile flags: /Ogsp
; File c:\program files (x86)\microsoft visual studio 10.0\vc\include\xmemory
;	COMDAT ??$_Cons_val@V?$allocator@UAniRotateInfo@@@std@@UAniRotateInfo@@ABU3@@std@@YAXAAV?$allocator@UAniRotateInfo@@@0@PAUAniRotateInfo@@ABU2@@Z
_TEXT	SEGMENT
__Alval$ = 8						; size = 4
__Pdest$ = 12						; size = 4
__Src$ = 16						; size = 4
??$_Cons_val@V?$allocator@UAniRotateInfo@@@std@@UAniRotateInfo@@ABU3@@std@@YAXAAV?$allocator@UAniRotateInfo@@@0@PAUAniRotateInfo@@ABU2@@Z PROC ; std::_Cons_val<std::allocator<AniRotateInfo>,AniRotateInfo,AniRotateInfo const &>, COMDAT

; 279  : 	{	// construct using allocator

  00000	55		 push	 ebp
  00001	8b ec		 mov	 ebp, esp

; 280  : 	_Alval.construct(_Pdest, _STD forward<_Ty2>(_Src));

  00003	8b 45 0c	 mov	 eax, DWORD PTR __Pdest$[ebp]
  00006	85 c0		 test	 eax, eax
  00008	74 0d		 je	 SHORT $LN9@Cons_val@2
  0000a	8b 4d 10	 mov	 ecx, DWORD PTR __Src$[ebp]
  0000d	8b 11		 mov	 edx, DWORD PTR [ecx]
  0000f	89 10		 mov	 DWORD PTR [eax], edx
  00011	8b 49 04	 mov	 ecx, DWORD PTR [ecx+4]
  00014	89 48 04	 mov	 DWORD PTR [eax+4], ecx
$LN9@Cons_val@2:

; 281  : 	}

  00017	5d		 pop	 ebp
  00018	c3		 ret	 0
??$_Cons_val@V?$allocator@UAniRotateInfo@@@std@@UAniRotateInfo@@ABU3@@std@@YAXAAV?$allocator@UAniRotateInfo@@@0@PAUAniRotateInfo@@ABU2@@Z ENDP ; std::_Cons_val<std::allocator<AniRotateInfo>,AniRotateInfo,AniRotateInfo const &>
_TEXT	ENDS
PUBLIC	??$_Cons_val@V?$allocator@UtagBaseCharDistanceSq@@@std@@UtagBaseCharDistanceSq@@AAU3@@std@@YAXAAV?$allocator@UtagBaseCharDistanceSq@@@0@PAUtagBaseCharDistanceSq@@AAU2@@Z ; std::_Cons_val<std::allocator<tagBaseCharDistanceSq>,tagBaseCharDistanceSq,tagBaseCharDistanceSq &>
;	COMDAT xdata$x
; File c:\program files (x86)\microsoft visual studio 10.0\vc\include\utility
xdata$x	SEGMENT
__unwindtable$??$_Cons_val@V?$allocator@UtagBaseCharDistanceSq@@@std@@UtagBaseCharDistanceSq@@AAU3@@std@@YAXAAV?$allocator@UtagBaseCharDistanceSq@@@0@PAUtagBaseCharDistanceSq@@AAU2@@Z DD 0ffffffffH
	DD	FLAT:__unwindfunclet$??$_Cons_val@V?$allocator@UtagBaseCharDistanceSq@@@std@@UtagBaseCharDistanceSq@@AAU3@@std@@YAXAAV?$allocator@UtagBaseCharDistanceSq@@@0@PAUtagBaseCharDistanceSq@@AAU2@@Z$0
__ehfuncinfo$??$_Cons_val@V?$allocator@UtagBaseCharDistanceSq@@@std@@UtagBaseCharDistanceSq@@AAU3@@std@@YAXAAV?$allocator@UtagBaseCharDistanceSq@@@0@PAUtagBaseCharDistanceSq@@AAU2@@Z DD 019930522H
	DD	01H
	DD	FLAT:__unwindtable$??$_Cons_val@V?$allocator@UtagBaseCharDistanceSq@@@std@@UtagBaseCharDistanceSq@@AAU3@@std@@YAXAAV?$allocator@UtagBaseCharDistanceSq@@@0@PAUtagBaseCharDistanceSq@@AAU2@@Z
	DD	2 DUP(00H)
	DD	2 DUP(00H)
	DD	00H
	DD	01H
; Function compile flags: /Ogsp
; File c:\program files (x86)\microsoft visual studio 10.0\vc\include\xmemory
xdata$x	ENDS
;	COMDAT ??$_Cons_val@V?$allocator@UtagBaseCharDistanceSq@@@std@@UtagBaseCharDistanceSq@@AAU3@@std@@YAXAAV?$allocator@UtagBaseCharDistanceSq@@@0@PAUtagBaseCharDistanceSq@@AAU2@@Z
_TEXT	SEGMENT
$T560825 = -16						; size = 4
__$EHRec$ = -12						; size = 12
__Alval$ = 8						; size = 4
__Pdest$ = 12						; size = 4
__Src$ = 16						; size = 4
??$_Cons_val@V?$allocator@UtagBaseCharDistanceSq@@@std@@UtagBaseCharDistanceSq@@AAU3@@std@@YAXAAV?$allocator@UtagBaseCharDistanceSq@@@0@PAUtagBaseCharDistanceSq@@AAU2@@Z PROC ; std::_Cons_val<std::allocator<tagBaseCharDistanceSq>,tagBaseCharDistanceSq,tagBaseCharDistanceSq &>, COMDAT

; 279  : 	{	// construct using allocator

  00000	6a 04		 push	 4
  00002	b8 00 00 00 00	 mov	 eax, __ehhandler$??$_Cons_val@V?$allocator@UtagBaseCharDistanceSq@@@std@@UtagBaseCharDistanceSq@@AAU3@@std@@YAXAAV?$allocator@UtagBaseCharDistanceSq@@@0@PAUtagBaseCharDistanceSq@@AAU2@@Z
  00007	e8 00 00 00 00	 call	 __EH_prolog3

; 280  : 	_Alval.construct(_Pdest, _STD forward<_Ty2>(_Src));

  0000c	8b 4d 0c	 mov	 ecx, DWORD PTR __Pdest$[ebp]
  0000f	89 4d f0	 mov	 DWORD PTR $T560825[ebp], ecx
  00012	83 65 fc 00	 and	 DWORD PTR __$EHRec$[ebp+8], 0
  00016	85 c9		 test	 ecx, ecx
  00018	74 08		 je	 SHORT $LN7@Cons_val@3
  0001a	ff 75 10	 push	 DWORD PTR __Src$[ebp]
  0001d	e8 00 00 00 00	 call	 ??0tagBaseCharDistanceSq@@QAE@ABU0@@Z
$LN7@Cons_val@3:

; 281  : 	}

  00022	e8 00 00 00 00	 call	 __EH_epilog3
  00027	c3		 ret	 0
_TEXT	ENDS
;	COMDAT text$x
text$x	SEGMENT
__unwindfunclet$??$_Cons_val@V?$allocator@UtagBaseCharDistanceSq@@@std@@UtagBaseCharDistanceSq@@AAU3@@std@@YAXAAV?$allocator@UtagBaseCharDistanceSq@@@0@PAUtagBaseCharDistanceSq@@AAU2@@Z$0:
  00000	ff 75 0c	 push	 DWORD PTR __Pdest$[ebp]
  00003	ff 75 f0	 push	 DWORD PTR $T560825[ebp]
  00006	e8 00 00 00 00	 call	 ??3@YAXPAX0@Z		; operator delete
  0000b	59		 pop	 ecx
  0000c	59		 pop	 ecx
  0000d	c3		 ret	 0
__ehhandler$??$_Cons_val@V?$allocator@UtagBaseCharDistanceSq@@@std@@UtagBaseCharDistanceSq@@AAU3@@std@@YAXAAV?$allocator@UtagBaseCharDistanceSq@@@0@PAUtagBaseCharDistanceSq@@AAU2@@Z:
  0000e	8b 54 24 08	 mov	 edx, DWORD PTR [esp+8]
  00012	8d 42 0c	 lea	 eax, DWORD PTR [edx+12]
  00015	8b 4a ec	 mov	 ecx, DWORD PTR [edx-20]
  00018	33 c8		 xor	 ecx, eax
  0001a	e8 00 00 00 00	 call	 @__security_check_cookie@4
  0001f	b8 00 00 00 00	 mov	 eax, OFFSET __ehfuncinfo$??$_Cons_val@V?$allocator@UtagBaseCharDistanceSq@@@std@@UtagBaseCharDistanceSq@@AAU3@@std@@YAXAAV?$allocator@UtagBaseCharDistanceSq@@@0@PAUtagBaseCharDistanceSq@@AAU2@@Z
  00024	e9 00 00 00 00	 jmp	 ___CxxFrameHandler3
text$x	ENDS
??$_Cons_val@V?$allocator@UtagBaseCharDistanceSq@@@std@@UtagBaseCharDistanceSq@@AAU3@@std@@YAXAAV?$allocator@UtagBaseCharDistanceSq@@@0@PAUtagBaseCharDistanceSq@@AAU2@@Z ENDP ; std::_Cons_val<std::allocator<tagBaseCharDistanceSq>,tagBaseCharDistanceSq,tagBaseCharDistanceSq &>
PUBLIC	??$_Move@PAUAniRotateInfo@@PAU1@@std@@YAPAUAniRotateInfo@@PAU1@00@Z ; std::_Move<AniRotateInfo *,AniRotateInfo *>
; Function compile flags: /Ogsp
; File c:\program files (x86)\microsoft visual studio 10.0\vc\include\xutility
;	COMDAT ??$_Move@PAUAniRotateInfo@@PAU1@@std@@YAPAUAniRotateInfo@@PAU1@00@Z
_TEXT	SEGMENT
__Cat$560845 = -4					; size = 1
__First$ = 8						; size = 4
__Last$ = 12						; size = 4
__Dest$ = 16						; size = 4
??$_Move@PAUAniRotateInfo@@PAU1@@std@@YAPAUAniRotateInfo@@PAU1@00@Z PROC ; std::_Move<AniRotateInfo *,AniRotateInfo *>, COMDAT

; 2533 : 	{	// move [_First, _Last) to [_Dest, ...), unchecked

  00000	55		 push	 ebp
  00001	8b ec		 mov	 ebp, esp
  00003	51		 push	 ecx

; 2534 : 	return (_Move(_First, _Last,
; 2535 : 		_Dest, _Ptr_cat(_First, _Dest)));

  00004	ff 75 fc	 push	 DWORD PTR __Cat$560845[ebp]
  00007	ff 75 10	 push	 DWORD PTR __Dest$[ebp]
  0000a	ff 75 0c	 push	 DWORD PTR __Last$[ebp]
  0000d	ff 75 08	 push	 DWORD PTR __First$[ebp]
  00010	e8 00 00 00 00	 call	 ??$_Move@PAUAniRotateInfo@@PAU1@@std@@YAPAUAniRotateInfo@@PAU1@00U_Nonscalar_ptr_iterator_tag@0@@Z ; std::_Move<AniRotateInfo *,AniRotateInfo *>
  00015	83 c4 10	 add	 esp, 16			; 00000010H

; 2536 : 	}

  00018	c9		 leave
  00019	c3		 ret	 0
??$_Move@PAUAniRotateInfo@@PAU1@@std@@YAPAUAniRotateInfo@@PAU1@00@Z ENDP ; std::_Move<AniRotateInfo *,AniRotateInfo *>
_TEXT	ENDS
PUBLIC	?construct@?$allocator@UtagBaseCharDistanceSq@@@std@@QAEXPAUtagBaseCharDistanceSq@@ABU3@@Z ; std::allocator<tagBaseCharDistanceSq>::construct
; Function compile flags: /Ogsp
; File c:\program files (x86)\microsoft visual studio 10.0\vc\include\xmemory
;	COMDAT ?construct@?$allocator@UtagBaseCharDistanceSq@@@std@@QAEXPAUtagBaseCharDistanceSq@@ABU3@@Z
_TEXT	SEGMENT
__Ptr$ = 8						; size = 4
__Val$ = 12						; size = 4
?construct@?$allocator@UtagBaseCharDistanceSq@@@std@@QAEXPAUtagBaseCharDistanceSq@@ABU3@@Z PROC ; std::allocator<tagBaseCharDistanceSq>::construct, COMDAT
; _this$ = ecx

; 196  : 		{	// construct object at _Ptr with value _Val

  00000	55		 push	 ebp
  00001	8b ec		 mov	 ebp, esp

; 197  : 		_Construct(_Ptr, _Val);

  00003	ff 75 0c	 push	 DWORD PTR __Val$[ebp]
  00006	ff 75 08	 push	 DWORD PTR __Ptr$[ebp]
  00009	e8 00 00 00 00	 call	 ??$_Construct@UtagBaseCharDistanceSq@@ABU1@@std@@YAXPAUtagBaseCharDistanceSq@@ABU1@@Z ; std::_Construct<tagBaseCharDistanceSq,tagBaseCharDistanceSq const &>
  0000e	59		 pop	 ecx
  0000f	59		 pop	 ecx

; 198  : 		}

  00010	5d		 pop	 ebp
  00011	c2 08 00	 ret	 8
?construct@?$allocator@UtagBaseCharDistanceSq@@@std@@QAEXPAUtagBaseCharDistanceSq@@ABU3@@Z ENDP ; std::allocator<tagBaseCharDistanceSq>::construct
_TEXT	ENDS
PUBLIC	??$_Dest_val@V?$allocator@UAniRotateInfo@@@std@@UAniRotateInfo@@@std@@YAXAAV?$allocator@UAniRotateInfo@@@0@PAUAniRotateInfo@@@Z ; std::_Dest_val<std::allocator<AniRotateInfo>,AniRotateInfo>
; Function compile flags: /Ogsp
;	COMDAT ??$_Dest_val@V?$allocator@UAniRotateInfo@@@std@@UAniRotateInfo@@@std@@YAXAAV?$allocator@UAniRotateInfo@@@0@PAUAniRotateInfo@@@Z
_TEXT	SEGMENT
__Alval$ = 8						; size = 4
__Pdest$ = 12						; size = 4
??$_Dest_val@V?$allocator@UAniRotateInfo@@@std@@UAniRotateInfo@@@std@@YAXAAV?$allocator@UAniRotateInfo@@@0@PAUAniRotateInfo@@@Z PROC ; std::_Dest_val<std::allocator<AniRotateInfo>,AniRotateInfo>, COMDAT

; 287  : 	_Alval.destroy(_Pdest);
; 288  : 	}

  00000	c3		 ret	 0
??$_Dest_val@V?$allocator@UAniRotateInfo@@@std@@UAniRotateInfo@@@std@@YAXAAV?$allocator@UAniRotateInfo@@@0@PAUAniRotateInfo@@@Z ENDP ; std::_Dest_val<std::allocator<AniRotateInfo>,AniRotateInfo>
_TEXT	ENDS
PUBLIC	?destroy@?$allocator@UtagBaseCharDistanceSq@@@std@@QAEXPAUtagBaseCharDistanceSq@@@Z ; std::allocator<tagBaseCharDistanceSq>::destroy
; Function compile flags: /Ogsp
;	COMDAT ?destroy@?$allocator@UtagBaseCharDistanceSq@@@std@@QAEXPAUtagBaseCharDistanceSq@@@Z
_TEXT	SEGMENT
__Ptr$ = 8						; size = 4
?destroy@?$allocator@UtagBaseCharDistanceSq@@@std@@QAEXPAUtagBaseCharDistanceSq@@@Z PROC ; std::allocator<tagBaseCharDistanceSq>::destroy, COMDAT
; _this$ = ecx

; 212  : 		{	// destroy object at _Ptr

  00000	55		 push	 ebp
  00001	8b ec		 mov	 ebp, esp

; 213  : 		_Destroy(_Ptr);

  00003	8b 4d 08	 mov	 ecx, DWORD PTR __Ptr$[ebp]
  00006	ff 15 00 00 00
	00		 call	 DWORD PTR __imp_??1ioHashString@@QAE@XZ

; 214  : 		}

  0000c	5d		 pop	 ebp
  0000d	c2 04 00	 ret	 4
?destroy@?$allocator@UtagBaseCharDistanceSq@@@std@@QAEXPAUtagBaseCharDistanceSq@@@Z ENDP ; std::allocator<tagBaseCharDistanceSq>::destroy
_TEXT	ENDS
PUBLIC	??$iter_swap@PAUtagBaseCharDistanceSq@@PAU1@@std@@YAXPAUtagBaseCharDistanceSq@@0@Z ; std::iter_swap<tagBaseCharDistanceSq *,tagBaseCharDistanceSq *>
; Function compile flags: /Ogsp
; File c:\program files (x86)\microsoft visual studio 10.0\vc\include\xutility
;	COMDAT ??$iter_swap@PAUtagBaseCharDistanceSq@@PAU1@@std@@YAXPAUtagBaseCharDistanceSq@@0@Z
_TEXT	SEGMENT
__Left$ = 8						; size = 4
__Right$ = 12						; size = 4
??$iter_swap@PAUtagBaseCharDistanceSq@@PAU1@@std@@YAXPAUtagBaseCharDistanceSq@@0@Z PROC ; std::iter_swap<tagBaseCharDistanceSq *,tagBaseCharDistanceSq *>, COMDAT

; 2133 : 	{	// swap *_Left and *_Right

  00000	55		 push	 ebp
  00001	8b ec		 mov	 ebp, esp

; 2135 : 	}

  00003	5d		 pop	 ebp

; 2134 : 	swap(*_Left, *_Right);

  00004	e9 00 00 00 00	 jmp	 ??$swap@UtagBaseCharDistanceSq@@@std@@YAXAAUtagBaseCharDistanceSq@@0@Z ; std::swap<tagBaseCharDistanceSq>
??$iter_swap@PAUtagBaseCharDistanceSq@@PAU1@@std@@YAXPAUtagBaseCharDistanceSq@@0@Z ENDP ; std::iter_swap<tagBaseCharDistanceSq *,tagBaseCharDistanceSq *>
_TEXT	ENDS
PUBLIC	??$_Cons_val@V?$allocator@UAniRotateInfo@@@std@@UAniRotateInfo@@U3@@std@@YAXAAV?$allocator@UAniRotateInfo@@@0@PAUAniRotateInfo@@$$QAU2@@Z ; std::_Cons_val<std::allocator<AniRotateInfo>,AniRotateInfo,AniRotateInfo>
; Function compile flags: /Ogsp
; File c:\program files (x86)\microsoft visual studio 10.0\vc\include\xmemory
;	COMDAT ??$_Cons_val@V?$allocator@UAniRotateInfo@@@std@@UAniRotateInfo@@U3@@std@@YAXAAV?$allocator@UAniRotateInfo@@@0@PAUAniRotateInfo@@$$QAU2@@Z
_TEXT	SEGMENT
__Alval$ = 8						; size = 4
__Pdest$ = 12						; size = 4
__Src$ = 16						; size = 4
??$_Cons_val@V?$allocator@UAniRotateInfo@@@std@@UAniRotateInfo@@U3@@std@@YAXAAV?$allocator@UAniRotateInfo@@@0@PAUAniRotateInfo@@$$QAU2@@Z PROC ; std::_Cons_val<std::allocator<AniRotateInfo>,AniRotateInfo,AniRotateInfo>, COMDAT

; 279  : 	{	// construct using allocator

  00000	55		 push	 ebp
  00001	8b ec		 mov	 ebp, esp

; 280  : 	_Alval.construct(_Pdest, _STD forward<_Ty2>(_Src));

  00003	8b 45 0c	 mov	 eax, DWORD PTR __Pdest$[ebp]
  00006	85 c0		 test	 eax, eax
  00008	74 0d		 je	 SHORT $LN7@Cons_val@4
  0000a	8b 4d 10	 mov	 ecx, DWORD PTR __Src$[ebp]
  0000d	8b 11		 mov	 edx, DWORD PTR [ecx]
  0000f	89 10		 mov	 DWORD PTR [eax], edx
  00011	8b 49 04	 mov	 ecx, DWORD PTR [ecx+4]
  00014	89 48 04	 mov	 DWORD PTR [eax+4], ecx
$LN7@Cons_val@4:

; 281  : 	}

  00017	5d		 pop	 ebp
  00018	c3		 ret	 0
??$_Cons_val@V?$allocator@UAniRotateInfo@@@std@@UAniRotateInfo@@U3@@std@@YAXAAV?$allocator@UAniRotateInfo@@@0@PAUAniRotateInfo@@$$QAU2@@Z ENDP ; std::_Cons_val<std::allocator<AniRotateInfo>,AniRotateInfo,AniRotateInfo>
_TEXT	ENDS
PUBLIC	??$_Cons_val@V?$allocator@UtagBaseCharDistanceSq@@@std@@UtagBaseCharDistanceSq@@U3@@std@@YAXAAV?$allocator@UtagBaseCharDistanceSq@@@0@PAUtagBaseCharDistanceSq@@$$QAU2@@Z ; std::_Cons_val<std::allocator<tagBaseCharDistanceSq>,tagBaseCharDistanceSq,tagBaseCharDistanceSq>
;	COMDAT xdata$x
; File c:\program files (x86)\microsoft visual studio 10.0\vc\include\utility
xdata$x	SEGMENT
__unwindtable$??$_Cons_val@V?$allocator@UtagBaseCharDistanceSq@@@std@@UtagBaseCharDistanceSq@@U3@@std@@YAXAAV?$allocator@UtagBaseCharDistanceSq@@@0@PAUtagBaseCharDistanceSq@@$$QAU2@@Z DD 0ffffffffH
	DD	FLAT:__unwindfunclet$??$_Cons_val@V?$allocator@UtagBaseCharDistanceSq@@@std@@UtagBaseCharDistanceSq@@U3@@std@@YAXAAV?$allocator@UtagBaseCharDistanceSq@@@0@PAUtagBaseCharDistanceSq@@$$QAU2@@Z$0
__ehfuncinfo$??$_Cons_val@V?$allocator@UtagBaseCharDistanceSq@@@std@@UtagBaseCharDistanceSq@@U3@@std@@YAXAAV?$allocator@UtagBaseCharDistanceSq@@@0@PAUtagBaseCharDistanceSq@@$$QAU2@@Z DD 019930522H
	DD	01H
	DD	FLAT:__unwindtable$??$_Cons_val@V?$allocator@UtagBaseCharDistanceSq@@@std@@UtagBaseCharDistanceSq@@U3@@std@@YAXAAV?$allocator@UtagBaseCharDistanceSq@@@0@PAUtagBaseCharDistanceSq@@$$QAU2@@Z
	DD	2 DUP(00H)
	DD	2 DUP(00H)
	DD	00H
	DD	01H
; Function compile flags: /Ogsp
; File c:\program files (x86)\microsoft visual studio 10.0\vc\include\xmemory
xdata$x	ENDS
;	COMDAT ??$_Cons_val@V?$allocator@UtagBaseCharDistanceSq@@@std@@UtagBaseCharDistanceSq@@U3@@std@@YAXAAV?$allocator@UtagBaseCharDistanceSq@@@0@PAUtagBaseCharDistanceSq@@$$QAU2@@Z
_TEXT	SEGMENT
$T560929 = -16						; size = 4
__$EHRec$ = -12						; size = 12
__Alval$ = 8						; size = 4
__Pdest$ = 12						; size = 4
__Src$ = 16						; size = 4
??$_Cons_val@V?$allocator@UtagBaseCharDistanceSq@@@std@@UtagBaseCharDistanceSq@@U3@@std@@YAXAAV?$allocator@UtagBaseCharDistanceSq@@@0@PAUtagBaseCharDistanceSq@@$$QAU2@@Z PROC ; std::_Cons_val<std::allocator<tagBaseCharDistanceSq>,tagBaseCharDistanceSq,tagBaseCharDistanceSq>, COMDAT

; 279  : 	{	// construct using allocator

  00000	6a 04		 push	 4
  00002	b8 00 00 00 00	 mov	 eax, __ehhandler$??$_Cons_val@V?$allocator@UtagBaseCharDistanceSq@@@std@@UtagBaseCharDistanceSq@@U3@@std@@YAXAAV?$allocator@UtagBaseCharDistanceSq@@@0@PAUtagBaseCharDistanceSq@@$$QAU2@@Z
  00007	e8 00 00 00 00	 call	 __EH_prolog3

; 280  : 	_Alval.construct(_Pdest, _STD forward<_Ty2>(_Src));

  0000c	8b 4d 0c	 mov	 ecx, DWORD PTR __Pdest$[ebp]
  0000f	89 4d f0	 mov	 DWORD PTR $T560929[ebp], ecx
  00012	83 65 fc 00	 and	 DWORD PTR __$EHRec$[ebp+8], 0
  00016	85 c9		 test	 ecx, ecx
  00018	74 08		 je	 SHORT $LN7@Cons_val@5
  0001a	ff 75 10	 push	 DWORD PTR __Src$[ebp]
  0001d	e8 00 00 00 00	 call	 ??0tagBaseCharDistanceSq@@QAE@ABU0@@Z
$LN7@Cons_val@5:

; 281  : 	}

  00022	e8 00 00 00 00	 call	 __EH_epilog3
  00027	c3		 ret	 0
_TEXT	ENDS
;	COMDAT text$x
text$x	SEGMENT
__unwindfunclet$??$_Cons_val@V?$allocator@UtagBaseCharDistanceSq@@@std@@UtagBaseCharDistanceSq@@U3@@std@@YAXAAV?$allocator@UtagBaseCharDistanceSq@@@0@PAUtagBaseCharDistanceSq@@$$QAU2@@Z$0:
  00000	ff 75 0c	 push	 DWORD PTR __Pdest$[ebp]
  00003	ff 75 f0	 push	 DWORD PTR $T560929[ebp]
  00006	e8 00 00 00 00	 call	 ??3@YAXPAX0@Z		; operator delete
  0000b	59		 pop	 ecx
  0000c	59		 pop	 ecx
  0000d	c3		 ret	 0
__ehhandler$??$_Cons_val@V?$allocator@UtagBaseCharDistanceSq@@@std@@UtagBaseCharDistanceSq@@U3@@std@@YAXAAV?$allocator@UtagBaseCharDistanceSq@@@0@PAUtagBaseCharDistanceSq@@$$QAU2@@Z:
  0000e	8b 54 24 08	 mov	 edx, DWORD PTR [esp+8]
  00012	8d 42 0c	 lea	 eax, DWORD PTR [edx+12]
  00015	8b 4a ec	 mov	 ecx, DWORD PTR [edx-20]
  00018	33 c8		 xor	 ecx, eax
  0001a	e8 00 00 00 00	 call	 @__security_check_cookie@4
  0001f	b8 00 00 00 00	 mov	 eax, OFFSET __ehfuncinfo$??$_Cons_val@V?$allocator@UtagBaseCharDistanceSq@@@std@@UtagBaseCharDistanceSq@@U3@@std@@YAXAAV?$allocator@UtagBaseCharDistanceSq@@@0@PAUtagBaseCharDistanceSq@@$$QAU2@@Z
  00024	e9 00 00 00 00	 jmp	 ___CxxFrameHandler3
text$x	ENDS
??$_Cons_val@V?$allocator@UtagBaseCharDistanceSq@@@std@@UtagBaseCharDistanceSq@@U3@@std@@YAXAAV?$allocator@UtagBaseCharDistanceSq@@@0@PAUtagBaseCharDistanceSq@@$$QAU2@@Z ENDP ; std::_Cons_val<std::allocator<tagBaseCharDistanceSq>,tagBaseCharDistanceSq,tagBaseCharDistanceSq>
PUBLIC	??$_Med3@PAUtagBaseCharDistanceSq@@VBaseCharDistanceSqSort2@@@std@@YAXPAUtagBaseCharDistanceSq@@00VBaseCharDistanceSqSort2@@@Z ; std::_Med3<tagBaseCharDistanceSq *,BaseCharDistanceSqSort2>
; Function compile flags: /Ogsp
; File c:\program files (x86)\microsoft visual studio 10.0\vc\include\algorithm
;	COMDAT ??$_Med3@PAUtagBaseCharDistanceSq@@VBaseCharDistanceSqSort2@@@std@@YAXPAUtagBaseCharDistanceSq@@00VBaseCharDistanceSqSort2@@@Z
_TEXT	SEGMENT
__First$ = 8						; size = 4
__Mid$ = 12						; size = 4
__Last$ = 16						; size = 4
__Pred$ = 20						; size = 1
??$_Med3@PAUtagBaseCharDistanceSq@@VBaseCharDistanceSqSort2@@@std@@YAXPAUtagBaseCharDistanceSq@@00VBaseCharDistanceSqSort2@@@Z PROC ; std::_Med3<tagBaseCharDistanceSq *,BaseCharDistanceSqSort2>, COMDAT

; 3683 : 	{	// sort median of three elements to middle

  00000	55		 push	 ebp
  00001	8b ec		 mov	 ebp, esp
  00003	56		 push	 esi

; 3684 : 	if (_DEBUG_LT_PRED(_Pred, *_Mid, *_First))

  00004	8b 75 0c	 mov	 esi, DWORD PTR __Mid$[ebp]
  00007	f3 0f 10 46 10	 movss	 xmm0, DWORD PTR [esi+16]
  0000c	57		 push	 edi
  0000d	8b 7d 08	 mov	 edi, DWORD PTR __First$[ebp]
  00010	f3 0f 10 4f 10	 movss	 xmm1, DWORD PTR [edi+16]
  00015	0f 5a c0	 cvtps2pd xmm0, xmm0
  00018	0f 5a c9	 cvtps2pd xmm1, xmm1
  0001b	66 0f 2f c8	 comisd	 xmm1, xmm0
  0001f	76 09		 jbe	 SHORT $LN9@Med3

; 3685 : 		_STD iter_swap(_Mid, _First);

  00021	57		 push	 edi
  00022	56		 push	 esi
  00023	e8 00 00 00 00	 call	 ??$swap@UtagBaseCharDistanceSq@@@std@@YAXAAUtagBaseCharDistanceSq@@0@Z ; std::swap<tagBaseCharDistanceSq>
  00028	59		 pop	 ecx
  00029	59		 pop	 ecx
$LN9@Med3:

; 3686 : 	if (_DEBUG_LT_PRED(_Pred, *_Last, *_Mid))

  0002a	8b 45 10	 mov	 eax, DWORD PTR __Last$[ebp]
  0002d	f3 0f 10 40 10	 movss	 xmm0, DWORD PTR [eax+16]
  00032	f3 0f 10 4e 10	 movss	 xmm1, DWORD PTR [esi+16]
  00037	0f 5a c0	 cvtps2pd xmm0, xmm0
  0003a	0f 5a c9	 cvtps2pd xmm1, xmm1
  0003d	66 0f 2f c8	 comisd	 xmm1, xmm0
  00041	76 09		 jbe	 SHORT $LN14@Med3

; 3687 : 		_STD iter_swap(_Last, _Mid);

  00043	56		 push	 esi
  00044	50		 push	 eax
  00045	e8 00 00 00 00	 call	 ??$swap@UtagBaseCharDistanceSq@@@std@@YAXAAUtagBaseCharDistanceSq@@0@Z ; std::swap<tagBaseCharDistanceSq>
  0004a	59		 pop	 ecx
  0004b	59		 pop	 ecx
$LN14@Med3:

; 3688 : 	if (_DEBUG_LT_PRED(_Pred, *_Mid, *_First))

  0004c	f3 0f 10 46 10	 movss	 xmm0, DWORD PTR [esi+16]
  00051	f3 0f 10 4f 10	 movss	 xmm1, DWORD PTR [edi+16]
  00056	0f 5a c0	 cvtps2pd xmm0, xmm0
  00059	0f 5a c9	 cvtps2pd xmm1, xmm1
  0005c	66 0f 2f c8	 comisd	 xmm1, xmm0
  00060	76 09		 jbe	 SHORT $LN19@Med3

; 3689 : 		_STD iter_swap(_Mid, _First);

  00062	57		 push	 edi
  00063	56		 push	 esi
  00064	e8 00 00 00 00	 call	 ??$swap@UtagBaseCharDistanceSq@@@std@@YAXAAUtagBaseCharDistanceSq@@0@Z ; std::swap<tagBaseCharDistanceSq>
  00069	59		 pop	 ecx
  0006a	59		 pop	 ecx
$LN19@Med3:
  0006b	5f		 pop	 edi
  0006c	5e		 pop	 esi

; 3690 : 	}

  0006d	5d		 pop	 ebp
  0006e	c3		 ret	 0
??$_Med3@PAUtagBaseCharDistanceSq@@VBaseCharDistanceSqSort2@@@std@@YAXPAUtagBaseCharDistanceSq@@00VBaseCharDistanceSqSort2@@@Z ENDP ; std::_Med3<tagBaseCharDistanceSq *,BaseCharDistanceSqSort2>
_TEXT	ENDS
PUBLIC	??$_Adjust_heap@PAUtagBaseCharDistanceSq@@HU1@VBaseCharDistanceSqSort2@@@std@@YAXPAUtagBaseCharDistanceSq@@HH$$QAU1@VBaseCharDistanceSqSort2@@@Z ; std::_Adjust_heap<tagBaseCharDistanceSq *,int,tagBaseCharDistanceSq,BaseCharDistanceSqSort2>
; Function compile flags: /Ogsp
;	COMDAT ??$_Adjust_heap@PAUtagBaseCharDistanceSq@@HU1@VBaseCharDistanceSqSort2@@@std@@YAXPAUtagBaseCharDistanceSq@@HH$$QAU1@VBaseCharDistanceSqSort2@@@Z
_TEXT	SEGMENT
__First$ = 8						; size = 4
__Top$ = 12						; size = 4
__Hole$ = 12						; size = 4
__Bottom$ = 16						; size = 4
__Val$ = 20						; size = 4
__Pred$ = 24						; size = 1
??$_Adjust_heap@PAUtagBaseCharDistanceSq@@HU1@VBaseCharDistanceSqSort2@@@std@@YAXPAUtagBaseCharDistanceSq@@HH$$QAU1@VBaseCharDistanceSqSort2@@@Z PROC ; std::_Adjust_heap<tagBaseCharDistanceSq *,int,tagBaseCharDistanceSq,BaseCharDistanceSqSort2>, COMDAT

; 2565 : 	{	// percolate _Hole to _Bottom, then push _Val, using _Pred

  00000	55		 push	 ebp
  00001	8b ec		 mov	 ebp, esp

; 2566 : 	_Diff _Top = _Hole;

  00003	8b 4d 0c	 mov	 ecx, DWORD PTR __Hole$[ebp]
  00006	53		 push	 ebx

; 2567 : 	_Diff _Idx = 2 * _Hole + 2;
; 2568 : 
; 2569 : 	for (; _Idx < _Bottom; _Idx = 2 * _Idx + 2)

  00007	8b 5d 10	 mov	 ebx, DWORD PTR __Bottom$[ebp]
  0000a	56		 push	 esi
  0000b	57		 push	 edi
  0000c	8b 7d 08	 mov	 edi, DWORD PTR __First$[ebp]
  0000f	89 4d 0c	 mov	 DWORD PTR __Top$[ebp], ecx
  00012	8d 74 09 02	 lea	 esi, DWORD PTR [ecx+ecx+2]
  00016	eb 36		 jmp	 SHORT $LN20@Adjust_hea
$LL5@Adjust_hea:

; 2570 : 		{	// move _Hole down to larger child
; 2571 : 		if (_DEBUG_LT_PRED(_Pred, *(_First + _Idx), *(_First + (_Idx - 1))))

  00018	8b c6		 mov	 eax, esi
  0001a	c1 e0 05	 shl	 eax, 5
  0001d	f3 0f 10 44 38
	10		 movss	 xmm0, DWORD PTR [eax+edi+16]
  00023	f3 0f 10 4c 38
	f0		 movss	 xmm1, DWORD PTR [eax+edi-16]
  00029	0f 5a c0	 cvtps2pd xmm0, xmm0
  0002c	0f 5a c9	 cvtps2pd xmm1, xmm1
  0002f	66 0f 2f c8	 comisd	 xmm1, xmm0
  00033	76 01		 jbe	 SHORT $LN2@Adjust_hea

; 2572 : 			--_Idx;

  00035	4e		 dec	 esi
$LN2@Adjust_hea:

; 2573 : 		*(_First + _Hole) = _Move(*(_First + _Idx));

  00036	8b c6		 mov	 eax, esi
  00038	c1 e0 05	 shl	 eax, 5
  0003b	03 c7		 add	 eax, edi
  0003d	c1 e1 05	 shl	 ecx, 5
  00040	50		 push	 eax
  00041	03 cf		 add	 ecx, edi
  00043	e8 00 00 00 00	 call	 ??4tagBaseCharDistanceSq@@QAEAAU0@ABU0@@Z

; 2574 : 		_Hole = _Idx;

  00048	8b ce		 mov	 ecx, esi
  0004a	8d 74 36 02	 lea	 esi, DWORD PTR [esi+esi+2]
$LN20@Adjust_hea:

; 2567 : 	_Diff _Idx = 2 * _Hole + 2;
; 2568 : 
; 2569 : 	for (; _Idx < _Bottom; _Idx = 2 * _Idx + 2)

  0004e	3b f3		 cmp	 esi, ebx
  00050	7c c6		 jl	 SHORT $LL5@Adjust_hea

; 2575 : 		}
; 2576 : 
; 2577 : 	if (_Idx == _Bottom)

  00052	75 17		 jne	 SHORT $LN1@Adjust_hea

; 2578 : 		{	// only child at bottom, move _Hole down to it
; 2579 : 		*(_First + _Hole) = _Move(*(_First + (_Bottom - 1)));

  00054	8b c3		 mov	 eax, ebx
  00056	c1 e0 05	 shl	 eax, 5
  00059	8d 44 38 e0	 lea	 eax, DWORD PTR [eax+edi-32]
  0005d	c1 e1 05	 shl	 ecx, 5
  00060	50		 push	 eax
  00061	03 cf		 add	 ecx, edi
  00063	e8 00 00 00 00	 call	 ??4tagBaseCharDistanceSq@@QAEAAU0@ABU0@@Z

; 2580 : 		_Hole = _Bottom - 1;

  00068	8d 4b ff	 lea	 ecx, DWORD PTR [ebx-1]
$LN1@Adjust_hea:

; 2581 : 		}
; 2582 : 	_Push_heap(_First, _Hole, _Top, _Move(_Val), _Pred);

  0006b	ff 75 18	 push	 DWORD PTR __Pred$[ebp]
  0006e	ff 75 14	 push	 DWORD PTR __Val$[ebp]
  00071	ff 75 0c	 push	 DWORD PTR __Top$[ebp]
  00074	51		 push	 ecx
  00075	57		 push	 edi
  00076	e8 00 00 00 00	 call	 ??$_Push_heap@PAUtagBaseCharDistanceSq@@HU1@VBaseCharDistanceSqSort2@@@std@@YAXPAUtagBaseCharDistanceSq@@HH$$QAU1@VBaseCharDistanceSqSort2@@@Z ; std::_Push_heap<tagBaseCharDistanceSq *,int,tagBaseCharDistanceSq,BaseCharDistanceSqSort2>
  0007b	83 c4 14	 add	 esp, 20			; 00000014H
  0007e	5f		 pop	 edi
  0007f	5e		 pop	 esi
  00080	5b		 pop	 ebx

; 2583 : 	}

  00081	5d		 pop	 ebp
  00082	c3		 ret	 0
??$_Adjust_heap@PAUtagBaseCharDistanceSq@@HU1@VBaseCharDistanceSqSort2@@@std@@YAXPAUtagBaseCharDistanceSq@@HH$$QAU1@VBaseCharDistanceSqSort2@@@Z ENDP ; std::_Adjust_heap<tagBaseCharDistanceSq *,int,tagBaseCharDistanceSq,BaseCharDistanceSqSort2>
_TEXT	ENDS
PUBLIC	??$_Move_backward@PAUtagBaseCharDistanceSq@@PAU1@@std@@YAPAUtagBaseCharDistanceSq@@PAU1@00@Z ; std::_Move_backward<tagBaseCharDistanceSq *,tagBaseCharDistanceSq *>
; Function compile flags: /Ogsp
; File c:\program files (x86)\microsoft visual studio 10.0\vc\include\xutility
;	COMDAT ??$_Move_backward@PAUtagBaseCharDistanceSq@@PAU1@@std@@YAPAUtagBaseCharDistanceSq@@PAU1@00@Z
_TEXT	SEGMENT
__Cat$560997 = -4					; size = 1
__First$ = 8						; size = 4
__Last$ = 12						; size = 4
__Dest$ = 16						; size = 4
??$_Move_backward@PAUtagBaseCharDistanceSq@@PAU1@@std@@YAPAUtagBaseCharDistanceSq@@PAU1@00@Z PROC ; std::_Move_backward<tagBaseCharDistanceSq *,tagBaseCharDistanceSq *>, COMDAT

; 2638 : 	{	// move [_First, _Last) backwards to [..., _Dest), unchecked

  00000	55		 push	 ebp
  00001	8b ec		 mov	 ebp, esp
  00003	51		 push	 ecx

; 2639 : 	return (_Move_backward(_First, _Last,
; 2640 : 		_Dest, _Ptr_cat(_First, _Dest)));

  00004	ff 75 fc	 push	 DWORD PTR __Cat$560997[ebp]
  00007	ff 75 10	 push	 DWORD PTR __Dest$[ebp]
  0000a	ff 75 0c	 push	 DWORD PTR __Last$[ebp]
  0000d	ff 75 08	 push	 DWORD PTR __First$[ebp]
  00010	e8 00 00 00 00	 call	 ??$_Move_backward@PAUtagBaseCharDistanceSq@@PAU1@@std@@YAPAUtagBaseCharDistanceSq@@PAU1@00U_Nonscalar_ptr_iterator_tag@0@@Z ; std::_Move_backward<tagBaseCharDistanceSq *,tagBaseCharDistanceSq *>
  00015	83 c4 10	 add	 esp, 16			; 00000010H

; 2641 : 	}

  00018	c9		 leave
  00019	c3		 ret	 0
??$_Move_backward@PAUtagBaseCharDistanceSq@@PAU1@@std@@YAPAUtagBaseCharDistanceSq@@PAU1@00@Z ENDP ; std::_Move_backward<tagBaseCharDistanceSq *,tagBaseCharDistanceSq *>
_TEXT	ENDS
PUBLIC	??$_Pop_heap@PAUtagBaseCharDistanceSq@@HU1@VBaseCharDistanceSqSort2@@@std@@YAXPAUtagBaseCharDistanceSq@@00$$QAU1@VBaseCharDistanceSqSort2@@PAH@Z ; std::_Pop_heap<tagBaseCharDistanceSq *,int,tagBaseCharDistanceSq,BaseCharDistanceSqSort2>
; Function compile flags: /Ogsp
; File c:\program files (x86)\microsoft visual studio 10.0\vc\include\algorithm
;	COMDAT ??$_Pop_heap@PAUtagBaseCharDistanceSq@@HU1@VBaseCharDistanceSqSort2@@@std@@YAXPAUtagBaseCharDistanceSq@@00$$QAU1@VBaseCharDistanceSqSort2@@PAH@Z
_TEXT	SEGMENT
__First$ = 8						; size = 4
__Last$ = 12						; size = 4
__Dest$ = 16						; size = 4
__Val$ = 20						; size = 4
__Pred$ = 24						; size = 1
___formal$ = 28						; size = 4
??$_Pop_heap@PAUtagBaseCharDistanceSq@@HU1@VBaseCharDistanceSqSort2@@@std@@YAXPAUtagBaseCharDistanceSq@@00$$QAU1@VBaseCharDistanceSqSort2@@PAH@Z PROC ; std::_Pop_heap<tagBaseCharDistanceSq *,int,tagBaseCharDistanceSq,BaseCharDistanceSqSort2>, COMDAT

; 2591 : 	{	// pop *_First to *_Dest and reheap, using _Pred

  00000	55		 push	 ebp
  00001	8b ec		 mov	 ebp, esp

; 2592 : 	*_Dest = _Move(*_First);

  00003	ff 75 08	 push	 DWORD PTR __First$[ebp]
  00006	8b 4d 10	 mov	 ecx, DWORD PTR __Dest$[ebp]
  00009	e8 00 00 00 00	 call	 ??4tagBaseCharDistanceSq@@QAEAAU0@ABU0@@Z

; 2593 : 	_Adjust_heap(_First, _Diff(0), _Diff(_Last - _First),
; 2594 : 		_Move(_Val), _Pred);

  0000e	ff 75 18	 push	 DWORD PTR __Pred$[ebp]
  00011	8b 45 0c	 mov	 eax, DWORD PTR __Last$[ebp]
  00014	2b 45 08	 sub	 eax, DWORD PTR __First$[ebp]
  00017	ff 75 14	 push	 DWORD PTR __Val$[ebp]
  0001a	c1 f8 05	 sar	 eax, 5
  0001d	50		 push	 eax
  0001e	6a 00		 push	 0
  00020	ff 75 08	 push	 DWORD PTR __First$[ebp]
  00023	e8 00 00 00 00	 call	 ??$_Adjust_heap@PAUtagBaseCharDistanceSq@@HU1@VBaseCharDistanceSqSort2@@@std@@YAXPAUtagBaseCharDistanceSq@@HH$$QAU1@VBaseCharDistanceSqSort2@@@Z ; std::_Adjust_heap<tagBaseCharDistanceSq *,int,tagBaseCharDistanceSq,BaseCharDistanceSqSort2>
  00028	83 c4 14	 add	 esp, 20			; 00000014H

; 2595 : 	}

  0002b	5d		 pop	 ebp
  0002c	c3		 ret	 0
??$_Pop_heap@PAUtagBaseCharDistanceSq@@HU1@VBaseCharDistanceSqSort2@@@std@@YAXPAUtagBaseCharDistanceSq@@00$$QAU1@VBaseCharDistanceSqSort2@@PAH@Z ENDP ; std::_Pop_heap<tagBaseCharDistanceSq *,int,tagBaseCharDistanceSq,BaseCharDistanceSqSort2>
; Function compile flags: /Ogsp
; File d:\lost saga for developer\youtube\tutorial\source\src\lsclient\ioskill.h
_TEXT	ENDS
;	COMDAT ?IsCanJumpingSkill@ioSkill@@UBE_NXZ
_TEXT	SEGMENT
_value$561010 = -1					; size = 1
?IsCanJumpingSkill@ioSkill@@UBE_NXZ PROC		; ioSkill::IsCanJumpingSkill, COMDAT
; _this$ = ecx

; 431  : 	virtual bool IsCanJumpingSkill() const { return m_bEnableJumpingSkill; }

  00000	55		 push	 ebp
  00001	8b ec		 mov	 ebp, esp
  00003	51		 push	 ecx
  00004	8d 45 ff	 lea	 eax, DWORD PTR _value$561010[ebp]
  00007	50		 push	 eax
  00008	81 c1 9c 03 00
	00		 add	 ecx, 924		; 0000039cH
  0000e	e8 00 00 00 00	 call	 ?DecryptValueToPool@?$CEncrypt@_N@@QAEXPA_N@Z ; CEncrypt<bool>::DecryptValueToPool
  00013	8a 45 ff	 mov	 al, BYTE PTR _value$561010[ebp]
  00016	c9		 leave
  00017	c3		 ret	 0
?IsCanJumpingSkill@ioSkill@@UBE_NXZ ENDP		; ioSkill::IsCanJumpingSkill
; Function compile flags: /Ogsp
_TEXT	ENDS
;	COMDAT ?IsCanJumpingSkillOnBlowWound@ioSkill@@UBE_NXZ
_TEXT	SEGMENT
_value$561017 = -1					; size = 1
?IsCanJumpingSkillOnBlowWound@ioSkill@@UBE_NXZ PROC	; ioSkill::IsCanJumpingSkillOnBlowWound, COMDAT
; _this$ = ecx

; 432  : 	virtual bool IsCanJumpingSkillOnBlowWound() const { return m_bEnableJumpingSkillOnBlowWound; }

  00000	55		 push	 ebp
  00001	8b ec		 mov	 ebp, esp
  00003	51		 push	 ecx
  00004	8d 45 ff	 lea	 eax, DWORD PTR _value$561017[ebp]
  00007	50		 push	 eax
  00008	81 c1 cc 03 00
	00		 add	 ecx, 972		; 000003ccH
  0000e	e8 00 00 00 00	 call	 ?DecryptValueToPool@?$CEncrypt@_N@@QAEXPA_N@Z ; CEncrypt<bool>::DecryptValueToPool
  00013	8a 45 ff	 mov	 al, BYTE PTR _value$561017[ebp]
  00016	c9		 leave
  00017	c3		 ret	 0
?IsCanJumpingSkillOnBlowWound@ioSkill@@UBE_NXZ ENDP	; ioSkill::IsCanJumpingSkillOnBlowWound
; Function compile flags: /Ogsp
_TEXT	ENDS
;	COMDAT ?IsCanDownSkill@ioSkill@@UBE_NXZ
_TEXT	SEGMENT
_value$561024 = -1					; size = 1
?IsCanDownSkill@ioSkill@@UBE_NXZ PROC			; ioSkill::IsCanDownSkill, COMDAT
; _this$ = ecx

; 437  : 	virtual bool IsCanDownSkill() const { return m_bEnableDownSkill; }

  00000	55		 push	 ebp
  00001	8b ec		 mov	 ebp, esp
  00003	51		 push	 ecx
  00004	8d 45 ff	 lea	 eax, DWORD PTR _value$561024[ebp]
  00007	50		 push	 eax
  00008	81 c1 5c 04 00
	00		 add	 ecx, 1116		; 0000045cH
  0000e	e8 00 00 00 00	 call	 ?DecryptValueToPool@?$CEncrypt@_N@@QAEXPA_N@Z ; CEncrypt<bool>::DecryptValueToPool
  00013	8a 45 ff	 mov	 al, BYTE PTR _value$561024[ebp]
  00016	c9		 leave
  00017	c3		 ret	 0
?IsCanDownSkill@ioSkill@@UBE_NXZ ENDP			; ioSkill::IsCanDownSkill
; Function compile flags: /Ogsp
_TEXT	ENDS
;	COMDAT ?IsCanBlowWoundSkill@ioSkill@@UBE_NXZ
_TEXT	SEGMENT
_value$561031 = -1					; size = 1
?IsCanBlowWoundSkill@ioSkill@@UBE_NXZ PROC		; ioSkill::IsCanBlowWoundSkill, COMDAT
; _this$ = ecx

; 440  : 	virtual bool IsCanBlowWoundSkill() const { return m_bEnableBlowWoundSkill; }

  00000	55		 push	 ebp
  00001	8b ec		 mov	 ebp, esp
  00003	51		 push	 ecx
  00004	8d 45 ff	 lea	 eax, DWORD PTR _value$561031[ebp]
  00007	50		 push	 eax
  00008	81 c1 8c 04 00
	00		 add	 ecx, 1164		; 0000048cH
  0000e	e8 00 00 00 00	 call	 ?DecryptValueToPool@?$CEncrypt@_N@@QAEXPA_N@Z ; CEncrypt<bool>::DecryptValueToPool
  00013	8a 45 ff	 mov	 al, BYTE PTR _value$561031[ebp]
  00016	c9		 leave
  00017	c3		 ret	 0
?IsCanBlowWoundSkill@ioSkill@@UBE_NXZ ENDP		; ioSkill::IsCanBlowWoundSkill
; Function compile flags: /Ogsp
_TEXT	ENDS
;	COMDAT ?IsCanWoundSkill@ioSkill@@UBE_NXZ
_TEXT	SEGMENT
_value$561038 = -1					; size = 1
?IsCanWoundSkill@ioSkill@@UBE_NXZ PROC			; ioSkill::IsCanWoundSkill, COMDAT
; _this$ = ecx

; 446  : 	virtual bool IsCanWoundSkill() const { return m_bEnableWoundSkill; }

  00000	55		 push	 ebp
  00001	8b ec		 mov	 ebp, esp
  00003	51		 push	 ecx
  00004	8d 45 ff	 lea	 eax, DWORD PTR _value$561038[ebp]
  00007	50		 push	 eax
  00008	81 c1 54 05 00
	00		 add	 ecx, 1364		; 00000554H
  0000e	e8 00 00 00 00	 call	 ?DecryptValueToPool@?$CEncrypt@_N@@QAEXPA_N@Z ; CEncrypt<bool>::DecryptValueToPool
  00013	8a 45 ff	 mov	 al, BYTE PTR _value$561038[ebp]
  00016	c9		 leave
  00017	c3		 ret	 0
?IsCanWoundSkill@ioSkill@@UBE_NXZ ENDP			; ioSkill::IsCanWoundSkill
_TEXT	ENDS
PUBLIC	??0?$CEncrypt@M@@QAE@ABV0@@Z			; CEncrypt<float>::CEncrypt<float>
;	COMDAT xdata$x
; File d:\lost saga for developer\youtube\tutorial\source\src\lsclient\encryptvalue.h
xdata$x	SEGMENT
__unwindtable$??0?$CEncrypt@M@@QAE@ABV0@@Z DD 0ffffffffH
	DD	FLAT:__unwindfunclet$??0?$CEncrypt@M@@QAE@ABV0@@Z$0
__ehfuncinfo$??0?$CEncrypt@M@@QAE@ABV0@@Z DD 019930522H
	DD	01H
	DD	FLAT:__unwindtable$??0?$CEncrypt@M@@QAE@ABV0@@Z
	DD	2 DUP(00H)
	DD	2 DUP(00H)
	DD	00H
	DD	01H
; Function compile flags: /Ogsp
xdata$x	ENDS
;	COMDAT ??0?$CEncrypt@M@@QAE@ABV0@@Z
_TEXT	SEGMENT
_this$ = -16						; size = 4
__$EHRec$ = -12						; size = 12
_value$561051 = 8					; size = 4
_value$561046 = 8					; size = 4
_inValue$ = 8						; size = 4
??0?$CEncrypt@M@@QAE@ABV0@@Z PROC			; CEncrypt<float>::CEncrypt<float>, COMDAT
; _this$ = ecx

; 120  : 	CEncrypt( const CEncrypt<type> &inValue )   //     

  00000	6a 04		 push	 4
  00002	b8 00 00 00 00	 mov	 eax, __ehhandler$??0?$CEncrypt@M@@QAE@ABV0@@Z
  00007	e8 00 00 00 00	 call	 __EH_prolog3
  0000c	8b f1		 mov	 esi, ecx
  0000e	89 75 f0	 mov	 DWORD PTR _this$[ebp], esi
  00011	8d 4e 0c	 lea	 ecx, DWORD PTR [esi+12]
  00014	c7 06 00 00 00
	00		 mov	 DWORD PTR [esi], OFFSET ??_7?$CEncrypt@M@@6B@
  0001a	e8 00 00 00 00	 call	 ??0ccddaabb@@QAE@XZ	; ccddaabb::ccddaabb
  0001f	83 65 fc 00	 and	 DWORD PTR __$EHRec$[ebp+8], 0

; 121  : 	{
; 122  : 		Init();

  00023	8b ce		 mov	 ecx, esi
  00025	e8 00 00 00 00	 call	 ?Init@?$CEncrypt@M@@AAEXXZ ; CEncrypt<float>::Init

; 123  : 		*this = inValue;

  0002a	8b 4d 08	 mov	 ecx, DWORD PTR _inValue$[ebp]
  0002d	8d 45 08	 lea	 eax, DWORD PTR _value$561046[ebp]
  00030	50		 push	 eax
  00031	e8 00 00 00 00	 call	 ?DecryptValueToPool@?$CEncrypt@M@@QAEXPAM@Z ; CEncrypt<float>::DecryptValueToPool
  00036	f3 0f 10 45 08	 movss	 xmm0, DWORD PTR _value$561046[ebp]
  0003b	8d 45 08	 lea	 eax, DWORD PTR _value$561051[ebp]
  0003e	50		 push	 eax
  0003f	8b ce		 mov	 ecx, esi
  00041	f3 0f 11 45 08	 movss	 DWORD PTR _value$561051[ebp], xmm0
  00046	e8 00 00 00 00	 call	 ?EncryptValueToPool@?$CEncrypt@M@@AAEXPBD@Z ; CEncrypt<float>::EncryptValueToPool

; 124  : 	}

  0004b	8b c6		 mov	 eax, esi
  0004d	e8 00 00 00 00	 call	 __EH_epilog3
  00052	c2 04 00	 ret	 4
_TEXT	ENDS
;	COMDAT text$x
text$x	SEGMENT
__unwindfunclet$??0?$CEncrypt@M@@QAE@ABV0@@Z$0:
  00000	8b 4d f0	 mov	 ecx, DWORD PTR _this$[ebp]
  00003	83 c1 0c	 add	 ecx, 12			; 0000000cH
  00006	e9 00 00 00 00	 jmp	 ??1ccddaabb@@UAE@XZ	; ccddaabb::~ccddaabb
__ehhandler$??0?$CEncrypt@M@@QAE@ABV0@@Z:
  0000b	8b 54 24 08	 mov	 edx, DWORD PTR [esp+8]
  0000f	8d 42 0c	 lea	 eax, DWORD PTR [edx+12]
  00012	8b 4a ec	 mov	 ecx, DWORD PTR [edx-20]
  00015	33 c8		 xor	 ecx, eax
  00017	e8 00 00 00 00	 call	 @__security_check_cookie@4
  0001c	b8 00 00 00 00	 mov	 eax, OFFSET __ehfuncinfo$??0?$CEncrypt@M@@QAE@ABV0@@Z
  00021	e9 00 00 00 00	 jmp	 ___CxxFrameHandler3
text$x	ENDS
??0?$CEncrypt@M@@QAE@ABV0@@Z ENDP			; CEncrypt<float>::CEncrypt<float>
PUBLIC	?_Tidy@?$basic_string@DU?$char_traits@D@std@@V?$allocator@D@2@@std@@QAEX_NI@Z ; std::basic_string<char,std::char_traits<char>,std::allocator<char> >::_Tidy
; Function compile flags: /Ogsp
; File c:\program files (x86)\microsoft visual studio 10.0\vc\include\xstring
;	COMDAT ?_Tidy@?$basic_string@DU?$char_traits@D@std@@V?$allocator@D@2@@std@@QAEX_NI@Z
_TEXT	SEGMENT
__Built$ = 8						; size = 1
__Newsize$ = 12						; size = 4
?_Tidy@?$basic_string@DU?$char_traits@D@std@@V?$allocator@D@2@@std@@QAEX_NI@Z PROC ; std::basic_string<char,std::char_traits<char>,std::allocator<char> >::_Tidy, COMDAT
; _this$ = ecx

; 1988 : 		{	// initialize buffer, deallocating any storage

  00000	55		 push	 ebp
  00001	8b ec		 mov	 ebp, esp

; 1989 : 		if (!_Built)

  00003	80 7d 08 00	 cmp	 BYTE PTR __Built$[ebp], 0
  00007	56		 push	 esi
  00008	57		 push	 edi
  00009	8b 7d 0c	 mov	 edi, DWORD PTR __Newsize$[ebp]
  0000c	8b f1		 mov	 esi, ecx
  0000e	74 20		 je	 SHORT $LN9@Tidy

; 1990 : 			;
; 1991 : 		else if (this->_BUF_SIZE <= this->_Myres)

  00010	83 7e 14 10	 cmp	 DWORD PTR [esi+20], 16	; 00000010H
  00014	72 1a		 jb	 SHORT $LN9@Tidy

; 1992 : 			{	// copy any leftovers to small buffer and deallocate
; 1993 : 			_Elem *_Ptr = this->_Bx._Ptr;

  00016	53		 push	 ebx
  00017	8b 1e		 mov	 ebx, DWORD PTR [esi]

; 1994 : 			if (0 < _Newsize)

  00019	85 ff		 test	 edi, edi
  0001b	74 0b		 je	 SHORT $LN7@Tidy

; 1995 : 				_Traits::copy(this->_Bx._Buf, _Ptr, _Newsize);

  0001d	57		 push	 edi
  0001e	53		 push	 ebx
  0001f	56		 push	 esi
  00020	e8 00 00 00 00	 call	 _memcpy
  00025	83 c4 0c	 add	 esp, 12			; 0000000cH
$LN7@Tidy:

; 1996 : 			this->_Alval.deallocate(_Ptr, this->_Myres + 1);

  00028	53		 push	 ebx
  00029	e8 00 00 00 00	 call	 ??3@YAXPAX@Z		; operator delete
  0002e	59		 pop	 ecx
  0002f	5b		 pop	 ebx
$LN9@Tidy:

; 1997 : 			}
; 1998 : 		this->_Myres = this->_BUF_SIZE - 1;
; 1999 : 		_Eos(_Newsize);

  00030	89 7e 10	 mov	 DWORD PTR [esi+16], edi
  00033	c7 46 14 0f 00
	00 00		 mov	 DWORD PTR [esi+20], 15	; 0000000fH
  0003a	c6 04 37 00	 mov	 BYTE PTR [edi+esi], 0
  0003e	5f		 pop	 edi
  0003f	5e		 pop	 esi

; 2000 : 		}

  00040	5d		 pop	 ebp
  00041	c2 08 00	 ret	 8
?_Tidy@?$basic_string@DU?$char_traits@D@std@@V?$allocator@D@2@@std@@QAEX_NI@Z ENDP ; std::basic_string<char,std::char_traits<char>,std::allocator<char> >::_Tidy
_TEXT	ENDS
PUBLIC	?erase@?$basic_string@DU?$char_traits@D@std@@V?$allocator@D@2@@std@@QAEAAV12@II@Z ; std::basic_string<char,std::char_traits<char>,std::allocator<char> >::erase
; Function compile flags: /Ogsp
;	COMDAT ?erase@?$basic_string@DU?$char_traits@D@std@@V?$allocator@D@2@@std@@QAEAAV12@II@Z
_TEXT	SEGMENT
__Off$ = 8						; size = 4
__Count$ = 12						; size = 4
?erase@?$basic_string@DU?$char_traits@D@std@@V?$allocator@D@2@@std@@QAEAAV12@II@Z PROC ; std::basic_string<char,std::char_traits<char>,std::allocator<char> >::erase, COMDAT
; _this$ = ecx

; 1109 : 		{	// erase elements [_Off, _Off + _Count)

  00000	55		 push	 ebp
  00001	8b ec		 mov	 ebp, esp
  00003	53		 push	 ebx
  00004	56		 push	 esi
  00005	8b f1		 mov	 esi, ecx

; 1110 : 		if (this->_Mysize < _Off)

  00007	8b 46 10	 mov	 eax, DWORD PTR [esi+16]
  0000a	8b 4d 08	 mov	 ecx, DWORD PTR __Off$[ebp]
  0000d	3b c1		 cmp	 eax, ecx
  0000f	73 0b		 jae	 SHORT $LN3@erase

; 1111 : 			_Xran();	// _Off off end

  00011	68 00 00 00 00	 push	 OFFSET ??_C@_0BI@CFPLBAOH@invalid?5string?5position?$AA@
  00016	ff 15 00 00 00
	00		 call	 DWORD PTR __imp_?_Xout_of_range@std@@YAXPBD@Z
$LN28@erase:
$LN3@erase:

; 1112 : 		if (this->_Mysize - _Off < _Count)

  0001c	8b 5d 0c	 mov	 ebx, DWORD PTR __Count$[ebp]
  0001f	2b c1		 sub	 eax, ecx
  00021	3b c3		 cmp	 eax, ebx

; 1113 : 			_Count = this->_Mysize - _Off;	// trim _Count

  00023	0f 42 d8	 cmovb	 ebx, eax

; 1114 : 		if (0 < _Count)

  00026	85 db		 test	 ebx, ebx
  00028	74 47		 je	 SHORT $LN25@erase

; 1115 : 			{	// move elements down
; 1116 : 			_Traits::move(_Myptr() + _Off, _Myptr() + _Off + _Count,
; 1117 : 				this->_Mysize - _Off - _Count);

  0002a	8b 56 14	 mov	 edx, DWORD PTR [esi+20]
  0002d	57		 push	 edi
  0002e	83 fa 10	 cmp	 edx, 16			; 00000010H
  00031	72 04		 jb	 SHORT $LN11@erase
  00033	8b 3e		 mov	 edi, DWORD PTR [esi]
  00035	eb 02		 jmp	 SHORT $LN12@erase
$LN11@erase:
  00037	8b fe		 mov	 edi, esi
$LN12@erase:
  00039	83 fa 10	 cmp	 edx, 16			; 00000010H
  0003c	72 04		 jb	 SHORT $LN15@erase
  0003e	8b 16		 mov	 edx, DWORD PTR [esi]
  00040	eb 02		 jmp	 SHORT $LN16@erase
$LN15@erase:
  00042	8b d6		 mov	 edx, esi
$LN16@erase:
  00044	2b c3		 sub	 eax, ebx
  00046	03 f9		 add	 edi, ecx
  00048	50		 push	 eax
  00049	03 fb		 add	 edi, ebx
  0004b	03 d1		 add	 edx, ecx
  0004d	57		 push	 edi
  0004e	52		 push	 edx
  0004f	ff 15 00 00 00
	00		 call	 DWORD PTR __imp__memmove

; 1118 : 			size_type _Newsize = this->_Mysize - _Count;

  00055	8b 46 10	 mov	 eax, DWORD PTR [esi+16]
  00058	83 c4 0c	 add	 esp, 12			; 0000000cH
  0005b	2b c3		 sub	 eax, ebx

; 1119 : 			_Eos(_Newsize);

  0005d	83 7e 14 10	 cmp	 DWORD PTR [esi+20], 16	; 00000010H
  00061	89 46 10	 mov	 DWORD PTR [esi+16], eax
  00064	5f		 pop	 edi
  00065	72 04		 jb	 SHORT $LN23@erase
  00067	8b 0e		 mov	 ecx, DWORD PTR [esi]
  00069	eb 02		 jmp	 SHORT $LN24@erase
$LN23@erase:
  0006b	8b ce		 mov	 ecx, esi
$LN24@erase:
  0006d	c6 04 01 00	 mov	 BYTE PTR [ecx+eax], 0
$LN25@erase:

; 1120 : 			}
; 1121 : 		return (*this);

  00071	8b c6		 mov	 eax, esi
  00073	5e		 pop	 esi
  00074	5b		 pop	 ebx

; 1122 : 		}

  00075	5d		 pop	 ebp
  00076	c2 08 00	 ret	 8
$LN27@erase:
?erase@?$basic_string@DU?$char_traits@D@std@@V?$allocator@D@2@@std@@QAEAAV12@II@Z ENDP ; std::basic_string<char,std::char_traits<char>,std::allocator<char> >::erase
_TEXT	ENDS
PUBLIC	?_Copy@?$basic_string@DU?$char_traits@D@std@@V?$allocator@D@2@@std@@QAEXII@Z ; std::basic_string<char,std::char_traits<char>,std::allocator<char> >::_Copy
EXTRN	__EH_prolog3_catch:PROC
;	COMDAT xdata$x
; File c:\program files (x86)\microsoft visual studio 10.0\vc\include\iosfwd
xdata$x	SEGMENT
__catchsym$?_Copy@?$basic_string@DU?$char_traits@D@std@@V?$allocator@D@2@@std@@QAEXII@Z$5 DD 040H
	DD	00H
	DD	00H
	DD	FLAT:__catch$?_Copy@?$basic_string@DU?$char_traits@D@std@@V?$allocator@D@2@@std@@QAEXII@Z$0
__catchsym$?_Copy@?$basic_string@DU?$char_traits@D@std@@V?$allocator@D@2@@std@@QAEXII@Z$4 DD 040H
	DD	00H
	DD	00H
	DD	FLAT:__catch$?_Copy@?$basic_string@DU?$char_traits@D@std@@V?$allocator@D@2@@std@@QAEXII@Z$1
__unwindtable$?_Copy@?$basic_string@DU?$char_traits@D@std@@V?$allocator@D@2@@std@@QAEXII@Z DD 0ffffffffH
	DD	00H
	DD	0ffffffffH
	DD	00H
	DD	01H
	DD	00H
	DD	01H
	DD	00H
__ehfuncinfo$?_Copy@?$basic_string@DU?$char_traits@D@std@@V?$allocator@D@2@@std@@QAEXII@Z DD 019930522H
	DD	04H
	DD	FLAT:__unwindtable$?_Copy@?$basic_string@DU?$char_traits@D@std@@V?$allocator@D@2@@std@@QAEXII@Z
	DD	02H
	DD	FLAT:__tryblocktable$?_Copy@?$basic_string@DU?$char_traits@D@std@@V?$allocator@D@2@@std@@QAEXII@Z
	DD	2 DUP(00H)
	DD	00H
	DD	01H
__tryblocktable$?_Copy@?$basic_string@DU?$char_traits@D@std@@V?$allocator@D@2@@std@@QAEXII@Z DD 02H
	DD	02H
	DD	03H
	DD	01H
	DD	FLAT:__catchsym$?_Copy@?$basic_string@DU?$char_traits@D@std@@V?$allocator@D@2@@std@@QAEXII@Z$4
	DD	00H
	DD	00H
	DD	03H
	DD	01H
	DD	FLAT:__catchsym$?_Copy@?$basic_string@DU?$char_traits@D@std@@V?$allocator@D@2@@std@@QAEXII@Z$5
; Function compile flags: /Ogsp
; File c:\program files (x86)\microsoft visual studio 10.0\vc\include\xstring
xdata$x	ENDS
;	COMDAT ?_Copy@?$basic_string@DU?$char_traits@D@std@@V?$allocator@D@2@@std@@QAEXII@Z
_TEXT	SEGMENT
_this$ = -24						; size = 4
tv296 = -20						; size = 4
__Newres$ = -20						; size = 4
__$EHRec$ = -16						; size = 16
__Ptr$ = 8						; size = 4
__Newsize$ = 8						; size = 4
__Oldlen$ = 12						; size = 4
?_Copy@?$basic_string@DU?$char_traits@D@std@@V?$allocator@D@2@@std@@QAEXII@Z PROC ; std::basic_string<char,std::char_traits<char>,std::allocator<char> >::_Copy, COMDAT
; _this$ = ecx

; 1919 : 		{	// copy _Oldlen elements to newly allocated buffer

  00000	6a 0c		 push	 12			; 0000000cH
  00002	b8 00 00 00 00	 mov	 eax, __ehhandler$?_Copy@?$basic_string@DU?$char_traits@D@std@@V?$allocator@D@2@@std@@QAEXII@Z
  00007	e8 00 00 00 00	 call	 __EH_prolog3_catch
  0000c	8b f1		 mov	 esi, ecx
  0000e	89 75 e8	 mov	 DWORD PTR _this$[ebp], esi

; 1920 : 		size_type _Newres = _Newsize | this->_ALLOC_MASK;

  00011	8b 7d 08	 mov	 edi, DWORD PTR __Newsize$[ebp]
  00014	83 cf 0f	 or	 edi, 15			; 0000000fH

; 1921 : 		if (max_size() < _Newres)

  00017	83 ff fe	 cmp	 edi, -2			; fffffffeH
  0001a	76 05		 jbe	 SHORT $LN9@Copy

; 1922 : 			_Newres = _Newsize;	// undo roundup if too big

  0001c	8b 7d 08	 mov	 edi, DWORD PTR __Newsize$[ebp]
  0001f	eb 27		 jmp	 SHORT $LN5@Copy
$LN9@Copy:

; 1923 : 		else if (this->_Myres / 2 <= _Newres / 3)

  00021	33 d2		 xor	 edx, edx
  00023	6a 03		 push	 3
  00025	8b c7		 mov	 eax, edi
  00027	5b		 pop	 ebx
  00028	f7 f3		 div	 ebx
  0002a	8b 4e 14	 mov	 ecx, DWORD PTR [esi+20]
  0002d	89 4d ec	 mov	 DWORD PTR tv296[ebp], ecx
  00030	d1 6d ec	 shr	 DWORD PTR tv296[ebp], 1
  00033	8b 55 ec	 mov	 edx, DWORD PTR tv296[ebp]
  00036	3b d0		 cmp	 edx, eax
  00038	76 0e		 jbe	 SHORT $LN5@Copy

; 1924 : 			;
; 1925 : 		else if (this->_Myres <= max_size() - this->_Myres / 2)

  0003a	6a fe		 push	 -2			; fffffffeH
  0003c	5f		 pop	 edi
  0003d	8b c7		 mov	 eax, edi
  0003f	2b c2		 sub	 eax, edx
  00041	3b c8		 cmp	 ecx, eax
  00043	77 03		 ja	 SHORT $LN5@Copy

; 1926 : 			_Newres = this->_Myres
; 1927 : 				+ this->_Myres / 2;	// grow exponentially if possible

  00045	8d 3c 0a	 lea	 edi, DWORD PTR [edx+ecx]
$LN5@Copy:

; 1928 : 		else
; 1929 : 			_Newres = max_size();	// settle for max_size()
; 1930 : 
; 1931 : 		_Elem *_Ptr;
; 1932 : 		_TRY_BEGIN

  00048	83 65 fc 00	 and	 DWORD PTR __$EHRec$[ebp+12], 0

; 1933 : 			_Ptr = this->_Alval.allocate(_Newres + 1);

  0004c	8d 47 01	 lea	 eax, DWORD PTR [edi+1]
  0004f	6a 00		 push	 0
  00051	50		 push	 eax
  00052	e8 00 00 00 00	 call	 ??$_Allocate@D@std@@YAPADIPAD@Z ; std::_Allocate<char>
  00057	59		 pop	 ecx
  00058	59		 pop	 ecx
  00059	89 45 08	 mov	 DWORD PTR __Ptr$[ebp], eax
  0005c	eb 27		 jmp	 SHORT $LN19@Copy
__catch$?_Copy@?$basic_string@DU?$char_traits@D@std@@V?$allocator@D@2@@std@@QAEXII@Z$0:

; 1934 : 		_CATCH_ALL
; 1935 : 			_Newres = _Newsize;	// allocation failed, undo roundup and retry

  0005e	8b 45 08	 mov	 eax, DWORD PTR __Newsize$[ebp]
  00061	89 65 f0	 mov	 DWORD PTR __$EHRec$[ebp], esp
  00064	89 45 ec	 mov	 DWORD PTR __Newres$[ebp], eax

; 1936 : 			_TRY_BEGIN
; 1937 : 				_Ptr = this->_Alval.allocate(_Newres + 1);

  00067	40		 inc	 eax
  00068	6a 00		 push	 0
  0006a	50		 push	 eax
  0006b	c6 45 fc 02	 mov	 BYTE PTR __$EHRec$[ebp+12], 2
  0006f	e8 00 00 00 00	 call	 ??$_Allocate@D@std@@YAPADIPAD@Z ; std::_Allocate<char>
  00074	59		 pop	 ecx
  00075	89 45 08	 mov	 DWORD PTR __Ptr$[ebp], eax
  00078	59		 pop	 ecx

; 1941 : 			_CATCH_END
; 1942 : 		_CATCH_END

  00079	b8 00 00 00 00	 mov	 eax, $LN63@Copy
  0007e	c3		 ret	 0
$LN63@Copy:
  0007f	8b 75 e8	 mov	 esi, DWORD PTR _this$[ebp]
  00082	8b 7d ec	 mov	 edi, DWORD PTR __Newres$[ebp]
$LN19@Copy:

; 1943 : 
; 1944 : 		if (0 < _Oldlen)

  00085	8b 5d 0c	 mov	 ebx, DWORD PTR __Oldlen$[ebp]
  00088	85 db		 test	 ebx, ebx
  0008a	74 19		 je	 SHORT $LN52@Copy

; 1945 : 			_Traits::copy(_Ptr, _Myptr(), _Oldlen);	// copy existing elements

  0008c	83 7e 14 10	 cmp	 DWORD PTR [esi+20], 16	; 00000010H
  00090	72 04		 jb	 SHORT $LN50@Copy
  00092	8b 06		 mov	 eax, DWORD PTR [esi]
  00094	eb 02		 jmp	 SHORT $LN51@Copy
$LN50@Copy:
  00096	8b c6		 mov	 eax, esi
$LN51@Copy:
  00098	53		 push	 ebx
  00099	50		 push	 eax
  0009a	ff 75 08	 push	 DWORD PTR __Ptr$[ebp]
  0009d	e8 00 00 00 00	 call	 _memcpy
  000a2	83 c4 0c	 add	 esp, 12			; 0000000cH
$LN52@Copy:

; 1946 : 		_Tidy(true);

  000a5	6a 00		 push	 0
  000a7	6a 01		 push	 1
  000a9	8b ce		 mov	 ecx, esi
  000ab	e8 00 00 00 00	 call	 ?_Tidy@?$basic_string@DU?$char_traits@D@std@@V?$allocator@D@2@@std@@QAEX_NI@Z ; std::basic_string<char,std::char_traits<char>,std::allocator<char> >::_Tidy

; 1947 : 		this->_Bx._Ptr = _Ptr;

  000b0	8b 45 08	 mov	 eax, DWORD PTR __Ptr$[ebp]
  000b3	89 06		 mov	 DWORD PTR [esi], eax

; 1948 : 		this->_Myres = _Newres;
; 1949 : 		_Eos(_Oldlen);

  000b5	83 ff 10	 cmp	 edi, 16			; 00000010H
  000b8	89 7e 14	 mov	 DWORD PTR [esi+20], edi
  000bb	89 5e 10	 mov	 DWORD PTR [esi+16], ebx
  000be	0f 42 c6	 cmovb	 eax, esi
  000c1	c6 04 18 00	 mov	 BYTE PTR [eax+ebx], 0

; 1950 : 		}

  000c5	e8 00 00 00 00	 call	 __EH_epilog3
  000ca	c2 08 00	 ret	 8
__catch$?_Copy@?$basic_string@DU?$char_traits@D@std@@V?$allocator@D@2@@std@@QAEXII@Z$1:

; 1938 : 			_CATCH_ALL
; 1939 : 			_Tidy(true);	// failed again, discard storage and reraise

  000cd	8b 4d e8	 mov	 ecx, DWORD PTR _this$[ebp]
  000d0	33 f6		 xor	 esi, esi
  000d2	56		 push	 esi
  000d3	6a 01		 push	 1
  000d5	e8 00 00 00 00	 call	 ?_Tidy@?$basic_string@DU?$char_traits@D@std@@V?$allocator@D@2@@std@@QAEX_NI@Z ; std::basic_string<char,std::char_traits<char>,std::allocator<char> >::_Tidy

; 1940 : 			_RERAISE;

  000da	56		 push	 esi
  000db	56		 push	 esi
  000dc	e8 00 00 00 00	 call	 __CxxThrowException@8
$LN67@Copy:
$LN66@Copy:
  000e1	cc		 int	 3
_TEXT	ENDS
;	COMDAT text$x
text$x	SEGMENT
__ehhandler$?_Copy@?$basic_string@DU?$char_traits@D@std@@V?$allocator@D@2@@std@@QAEXII@Z:
  00000	8b 54 24 08	 mov	 edx, DWORD PTR [esp+8]
  00004	8d 42 0c	 lea	 eax, DWORD PTR [edx+12]
  00007	8b 4a e4	 mov	 ecx, DWORD PTR [edx-28]
  0000a	33 c8		 xor	 ecx, eax
  0000c	e8 00 00 00 00	 call	 @__security_check_cookie@4
  00011	b8 00 00 00 00	 mov	 eax, OFFSET __ehfuncinfo$?_Copy@?$basic_string@DU?$char_traits@D@std@@V?$allocator@D@2@@std@@QAEXII@Z
  00016	e9 00 00 00 00	 jmp	 ___CxxFrameHandler3
text$x	ENDS
?_Copy@?$basic_string@DU?$char_traits@D@std@@V?$allocator@D@2@@std@@QAEXII@Z ENDP ; std::basic_string<char,std::char_traits<char>,std::allocator<char> >::_Copy
PUBLIC	??0ioFireSkill2@@QAE@ABV0@@Z			; ioFireSkill2::ioFireSkill2
EXTRN	??0ioAttackSkill@@QAE@ABV0@@Z:PROC		; ioAttackSkill::ioAttackSkill
;	COMDAT xdata$x
; File d:\lost saga for developer\youtube\tutorial\source\src\lsclient\encryptvalue.h
xdata$x	SEGMENT
__ehfuncinfo$??0ioFireSkill2@@QAE@ABV0@@Z DD 019930522H
	DD	011H
	DD	FLAT:__unwindtable$??0ioFireSkill2@@QAE@ABV0@@Z
	DD	2 DUP(00H)
	DD	2 DUP(00H)
	DD	00H
	DD	01H
__unwindtable$??0ioFireSkill2@@QAE@ABV0@@Z DD 0ffffffffH
	DD	FLAT:__unwindfunclet$??0ioFireSkill2@@QAE@ABV0@@Z$0
	DD	00H
	DD	FLAT:__unwindfunclet$??0ioFireSkill2@@QAE@ABV0@@Z$1
	DD	01H
	DD	FLAT:__unwindfunclet$??0ioFireSkill2@@QAE@ABV0@@Z$2
	DD	02H
	DD	FLAT:__unwindfunclet$??0ioFireSkill2@@QAE@ABV0@@Z$3
	DD	03H
	DD	FLAT:__unwindfunclet$??0ioFireSkill2@@QAE@ABV0@@Z$4
	DD	04H
	DD	FLAT:__unwindfunclet$??0ioFireSkill2@@QAE@ABV0@@Z$5
	DD	05H
	DD	FLAT:__unwindfunclet$??0ioFireSkill2@@QAE@ABV0@@Z$6
	DD	06H
	DD	FLAT:__unwindfunclet$??0ioFireSkill2@@QAE@ABV0@@Z$7
	DD	07H
	DD	FLAT:__unwindfunclet$??0ioFireSkill2@@QAE@ABV0@@Z$8
	DD	08H
	DD	FLAT:__unwindfunclet$??0ioFireSkill2@@QAE@ABV0@@Z$9
	DD	09H
	DD	FLAT:__unwindfunclet$??0ioFireSkill2@@QAE@ABV0@@Z$10
	DD	0aH
	DD	FLAT:__unwindfunclet$??0ioFireSkill2@@QAE@ABV0@@Z$11
	DD	0bH
	DD	FLAT:__unwindfunclet$??0ioFireSkill2@@QAE@ABV0@@Z$12
	DD	0cH
	DD	FLAT:__unwindfunclet$??0ioFireSkill2@@QAE@ABV0@@Z$13
	DD	0dH
	DD	FLAT:__unwindfunclet$??0ioFireSkill2@@QAE@ABV0@@Z$14
	DD	0eH
	DD	FLAT:__unwindfunclet$??0ioFireSkill2@@QAE@ABV0@@Z$15
	DD	0fH
	DD	FLAT:__unwindfunclet$??0ioFireSkill2@@QAE@ABV0@@Z$16
; Function compile flags: /Ogsp
; File d:\lost saga for developer\youtube\tutorial\source\src\lsclient\iofireskill2.cpp
xdata$x	ENDS
;	COMDAT ??0ioFireSkill2@@QAE@ABV0@@Z
_TEXT	SEGMENT
_this$ = -16						; size = 4
__$EHRec$ = -12						; size = 12
_value$561288 = 8					; size = 4
_rhs$ = 8						; size = 4
??0ioFireSkill2@@QAE@ABV0@@Z PROC			; ioFireSkill2::ioFireSkill2, COMDAT
; _this$ = ecx

; 39   : {

  00000	6a 04		 push	 4
  00002	b8 00 00 00 00	 mov	 eax, __ehhandler$??0ioFireSkill2@@QAE@ABV0@@Z
  00007	e8 00 00 00 00	 call	 __EH_prolog3
  0000c	8b d9		 mov	 ebx, ecx
  0000e	89 5d f0	 mov	 DWORD PTR _this$[ebp], ebx
  00011	8b 75 08	 mov	 esi, DWORD PTR _rhs$[ebp]
  00014	56		 push	 esi
  00015	e8 00 00 00 00	 call	 ??0ioAttackSkill@@QAE@ABV0@@Z ; ioAttackSkill::ioAttackSkill
  0001a	83 65 fc 00	 and	 DWORD PTR __$EHRec$[ebp+8], 0
  0001e	8d 86 e8 10 00
	00		 lea	 eax, DWORD PTR [esi+4328]
  00024	50		 push	 eax
  00025	8d 8b e8 10 00
	00		 lea	 ecx, DWORD PTR [ebx+4328]
  0002b	c7 03 00 00 00
	00		 mov	 DWORD PTR [ebx], OFFSET ??_7ioFireSkill2@@6B@
  00031	e8 00 00 00 00	 call	 ??0?$CEncrypt@K@@QAE@ABV0@@Z ; CEncrypt<unsigned long>::CEncrypt<unsigned long>
  00036	8d 86 1c 11 00
	00		 lea	 eax, DWORD PTR [esi+4380]
  0003c	50		 push	 eax
  0003d	8d 8b 1c 11 00
	00		 lea	 ecx, DWORD PTR [ebx+4380]
  00043	c6 45 fc 01	 mov	 BYTE PTR __$EHRec$[ebp+8], 1
  00047	e8 00 00 00 00	 call	 ??0?$CEncrypt@H@@QAE@ABV0@@Z ; CEncrypt<int>::CEncrypt<int>
  0004c	8d 8b 4c 11 00
	00		 lea	 ecx, DWORD PTR [ebx+4428]
  00052	c6 45 fc 02	 mov	 BYTE PTR __$EHRec$[ebp+8], 2
  00056	e8 00 00 00 00	 call	 ??0?$CEncrypt@H@@QAE@XZ	; CEncrypt<int>::CEncrypt<int>
  0005b	8b 86 7c 11 00
	00		 mov	 eax, DWORD PTR [esi+4476]
  00061	89 83 7c 11 00
	00		 mov	 DWORD PTR [ebx+4476], eax
  00067	8b 86 80 11 00
	00		 mov	 eax, DWORD PTR [esi+4480]
  0006d	89 83 80 11 00
	00		 mov	 DWORD PTR [ebx+4480], eax
  00073	8d 86 84 11 00
	00		 lea	 eax, DWORD PTR [esi+4484]
  00079	50		 push	 eax
  0007a	8d 8b 84 11 00
	00		 lea	 ecx, DWORD PTR [ebx+4484]
  00080	c6 45 fc 03	 mov	 BYTE PTR __$EHRec$[ebp+8], 3
  00084	e8 00 00 00 00	 call	 ??0?$CEncrypt@M@@QAE@ABV0@@Z ; CEncrypt<float>::CEncrypt<float>
  00089	8d 86 b4 11 00
	00		 lea	 eax, DWORD PTR [esi+4532]
  0008f	50		 push	 eax
  00090	8d 8b b4 11 00
	00		 lea	 ecx, DWORD PTR [ebx+4532]
  00096	c6 45 fc 04	 mov	 BYTE PTR __$EHRec$[ebp+8], 4
  0009a	e8 00 00 00 00	 call	 ??0?$CEncrypt@M@@QAE@ABV0@@Z ; CEncrypt<float>::CEncrypt<float>
  0009f	8d 86 e4 11 00
	00		 lea	 eax, DWORD PTR [esi+4580]
  000a5	50		 push	 eax
  000a6	8d 8b e4 11 00
	00		 lea	 ecx, DWORD PTR [ebx+4580]
  000ac	c6 45 fc 05	 mov	 BYTE PTR __$EHRec$[ebp+8], 5
  000b0	e8 00 00 00 00	 call	 ??0?$CEncrypt@M@@QAE@ABV0@@Z ; CEncrypt<float>::CEncrypt<float>
  000b5	8d 86 14 12 00
	00		 lea	 eax, DWORD PTR [esi+4628]
  000bb	50		 push	 eax
  000bc	8d 8b 14 12 00
	00		 lea	 ecx, DWORD PTR [ebx+4628]
  000c2	c6 45 fc 06	 mov	 BYTE PTR __$EHRec$[ebp+8], 6
  000c6	e8 00 00 00 00	 call	 ??0?$CEncrypt@M@@QAE@ABV0@@Z ; CEncrypt<float>::CEncrypt<float>
  000cb	8d 86 44 12 00
	00		 lea	 eax, DWORD PTR [esi+4676]
  000d1	50		 push	 eax
  000d2	8d 8b 44 12 00
	00		 lea	 ecx, DWORD PTR [ebx+4676]
  000d8	c6 45 fc 07	 mov	 BYTE PTR __$EHRec$[ebp+8], 7
  000dc	e8 00 00 00 00	 call	 ??0?$CEncrypt@M@@QAE@ABV0@@Z ; CEncrypt<float>::CEncrypt<float>
  000e1	8d 86 74 12 00
	00		 lea	 eax, DWORD PTR [esi+4724]
  000e7	50		 push	 eax
  000e8	8d 8b 74 12 00
	00		 lea	 ecx, DWORD PTR [ebx+4724]
  000ee	c6 45 fc 08	 mov	 BYTE PTR __$EHRec$[ebp+8], 8
  000f2	e8 00 00 00 00	 call	 ??0?$CEncrypt@M@@QAE@ABV0@@Z ; CEncrypt<float>::CEncrypt<float>
  000f7	8d 86 a4 12 00
	00		 lea	 eax, DWORD PTR [esi+4772]
  000fd	50		 push	 eax
  000fe	8d 8b a4 12 00
	00		 lea	 ecx, DWORD PTR [ebx+4772]
  00104	c6 45 fc 09	 mov	 BYTE PTR __$EHRec$[ebp+8], 9
  00108	e8 00 00 00 00	 call	 ??0?$CEncrypt@M@@QAE@ABV0@@Z ; CEncrypt<float>::CEncrypt<float>
  0010d	8d 8b d4 12 00
	00		 lea	 ecx, DWORD PTR [ebx+4820]
  00113	c6 45 fc 0a	 mov	 BYTE PTR __$EHRec$[ebp+8], 10 ; 0000000aH
  00117	ff 15 00 00 00
	00		 call	 DWORD PTR __imp_??0ioHashString@@QAE@XZ
  0011d	8b 3d 00 00 00
	00		 mov	 edi, DWORD PTR __imp_??0ioHashString@@QAE@ABV0@@Z
  00123	8d 86 f0 12 00
	00		 lea	 eax, DWORD PTR [esi+4848]
  00129	50		 push	 eax
  0012a	8d 8b f0 12 00
	00		 lea	 ecx, DWORD PTR [ebx+4848]
  00130	c6 45 fc 0b	 mov	 BYTE PTR __$EHRec$[ebp+8], 11 ; 0000000bH
  00134	ff d7		 call	 edi
  00136	8d 86 00 13 00
	00		 lea	 eax, DWORD PTR [esi+4864]
  0013c	c6 45 fc 0c	 mov	 BYTE PTR __$EHRec$[ebp+8], 12 ; 0000000cH
  00140	50		 push	 eax
  00141	8d 8b 00 13 00
	00		 lea	 ecx, DWORD PTR [ebx+4864]
  00147	ff d7		 call	 edi
  00149	8d 86 10 13 00
	00		 lea	 eax, DWORD PTR [esi+4880]
  0014f	50		 push	 eax
  00150	8d 8b 10 13 00
	00		 lea	 ecx, DWORD PTR [ebx+4880]
  00156	c6 45 fc 0d	 mov	 BYTE PTR __$EHRec$[ebp+8], 13 ; 0000000dH
  0015a	e8 00 00 00 00	 call	 ??0?$CEncrypt@M@@QAE@ABV0@@Z ; CEncrypt<float>::CEncrypt<float>
  0015f	8d 86 40 13 00
	00		 lea	 eax, DWORD PTR [esi+4928]
  00165	50		 push	 eax
  00166	8d 8b 40 13 00
	00		 lea	 ecx, DWORD PTR [ebx+4928]
  0016c	c6 45 fc 0e	 mov	 BYTE PTR __$EHRec$[ebp+8], 14 ; 0000000eH
  00170	e8 00 00 00 00	 call	 ??0?$CEncrypt@M@@QAE@ABV0@@Z ; CEncrypt<float>::CEncrypt<float>
  00175	81 c6 70 13 00
	00		 add	 esi, 4976		; 00001370H
  0017b	56		 push	 esi
  0017c	8d 8b 70 13 00
	00		 lea	 ecx, DWORD PTR [ebx+4976]
  00182	c6 45 fc 0f	 mov	 BYTE PTR __$EHRec$[ebp+8], 15 ; 0000000fH
  00186	ff d7		 call	 edi

; 40   : 	m_bSetHandMesh = false;
; 41   : 
; 42   : 	m_SkillState = SS_NONE;

  00188	83 a3 e4 10 00
	00 00		 and	 DWORD PTR [ebx+4324], 0

; 43   : 	m_iCurFireCnt = 0;

  0018f	83 65 08 00	 and	 DWORD PTR _value$561288[ebp], 0
  00193	8d 45 08	 lea	 eax, DWORD PTR _value$561288[ebp]
  00196	50		 push	 eax
  00197	8d 8b 4c 11 00
	00		 lea	 ecx, DWORD PTR [ebx+4428]
  0019d	c6 45 fc 10	 mov	 BYTE PTR __$EHRec$[ebp+8], 16 ; 00000010H
  001a1	c6 83 0a 0f 00
	00 00		 mov	 BYTE PTR [ebx+3850], 0
  001a8	e8 00 00 00 00	 call	 ?EncryptValueToPool@?$CEncrypt@H@@AAEXPBD@Z ; CEncrypt<int>::EncryptValueToPool

; 44   : 	m_vTargetPos = ioMath::VEC3_ZERO;

  001ad	8b 35 00 00 00
	00		 mov	 esi, DWORD PTR __imp_?VEC3_ZERO@ioMath@@2UD3DXVECTOR3@@A
  001b3	8d bb e4 12 00
	00		 lea	 edi, DWORD PTR [ebx+4836]
  001b9	a5		 movsd
  001ba	a5		 movsd
  001bb	a5		 movsd

; 45   : }

  001bc	8b c3		 mov	 eax, ebx
  001be	e8 00 00 00 00	 call	 __EH_epilog3
  001c3	c2 04 00	 ret	 4
_TEXT	ENDS
;	COMDAT text$x
text$x	SEGMENT
__unwindfunclet$??0ioFireSkill2@@QAE@ABV0@@Z$0:
  00000	8b 4d f0	 mov	 ecx, DWORD PTR _this$[ebp]
  00003	e9 00 00 00 00	 jmp	 ??1ioAttackSkill@@UAE@XZ ; ioAttackSkill::~ioAttackSkill
__unwindfunclet$??0ioFireSkill2@@QAE@ABV0@@Z$1:
  00008	8b 4d f0	 mov	 ecx, DWORD PTR _this$[ebp]
  0000b	81 c1 e8 10 00
	00		 add	 ecx, 4328		; 000010e8H
  00011	e9 00 00 00 00	 jmp	 ??1?$CEncrypt@K@@UAE@XZ	; CEncrypt<unsigned long>::~CEncrypt<unsigned long>
__unwindfunclet$??0ioFireSkill2@@QAE@ABV0@@Z$2:
  00016	8b 4d f0	 mov	 ecx, DWORD PTR _this$[ebp]
  00019	81 c1 1c 11 00
	00		 add	 ecx, 4380		; 0000111cH
  0001f	e9 00 00 00 00	 jmp	 ??1?$CEncrypt@H@@UAE@XZ	; CEncrypt<int>::~CEncrypt<int>
__unwindfunclet$??0ioFireSkill2@@QAE@ABV0@@Z$3:
  00024	8b 4d f0	 mov	 ecx, DWORD PTR _this$[ebp]
  00027	81 c1 4c 11 00
	00		 add	 ecx, 4428		; 0000114cH
  0002d	e9 00 00 00 00	 jmp	 ??1?$CEncrypt@H@@UAE@XZ	; CEncrypt<int>::~CEncrypt<int>
__unwindfunclet$??0ioFireSkill2@@QAE@ABV0@@Z$4:
  00032	8b 4d f0	 mov	 ecx, DWORD PTR _this$[ebp]
  00035	81 c1 84 11 00
	00		 add	 ecx, 4484		; 00001184H
  0003b	e9 00 00 00 00	 jmp	 ??1?$CEncrypt@M@@UAE@XZ	; CEncrypt<float>::~CEncrypt<float>
__unwindfunclet$??0ioFireSkill2@@QAE@ABV0@@Z$5:
  00040	8b 4d f0	 mov	 ecx, DWORD PTR _this$[ebp]
  00043	81 c1 b4 11 00
	00		 add	 ecx, 4532		; 000011b4H
  00049	e9 00 00 00 00	 jmp	 ??1?$CEncrypt@M@@UAE@XZ	; CEncrypt<float>::~CEncrypt<float>
__unwindfunclet$??0ioFireSkill2@@QAE@ABV0@@Z$6:
  0004e	8b 4d f0	 mov	 ecx, DWORD PTR _this$[ebp]
  00051	81 c1 e4 11 00
	00		 add	 ecx, 4580		; 000011e4H
  00057	e9 00 00 00 00	 jmp	 ??1?$CEncrypt@M@@UAE@XZ	; CEncrypt<float>::~CEncrypt<float>
__unwindfunclet$??0ioFireSkill2@@QAE@ABV0@@Z$7:
  0005c	8b 4d f0	 mov	 ecx, DWORD PTR _this$[ebp]
  0005f	81 c1 14 12 00
	00		 add	 ecx, 4628		; 00001214H
  00065	e9 00 00 00 00	 jmp	 ??1?$CEncrypt@M@@UAE@XZ	; CEncrypt<float>::~CEncrypt<float>
__unwindfunclet$??0ioFireSkill2@@QAE@ABV0@@Z$8:
  0006a	8b 4d f0	 mov	 ecx, DWORD PTR _this$[ebp]
  0006d	81 c1 44 12 00
	00		 add	 ecx, 4676		; 00001244H
  00073	e9 00 00 00 00	 jmp	 ??1?$CEncrypt@M@@UAE@XZ	; CEncrypt<float>::~CEncrypt<float>
__unwindfunclet$??0ioFireSkill2@@QAE@ABV0@@Z$9:
  00078	8b 4d f0	 mov	 ecx, DWORD PTR _this$[ebp]
  0007b	81 c1 74 12 00
	00		 add	 ecx, 4724		; 00001274H
  00081	e9 00 00 00 00	 jmp	 ??1?$CEncrypt@M@@UAE@XZ	; CEncrypt<float>::~CEncrypt<float>
__unwindfunclet$??0ioFireSkill2@@QAE@ABV0@@Z$10:
  00086	8b 4d f0	 mov	 ecx, DWORD PTR _this$[ebp]
  00089	81 c1 a4 12 00
	00		 add	 ecx, 4772		; 000012a4H
  0008f	e9 00 00 00 00	 jmp	 ??1?$CEncrypt@M@@UAE@XZ	; CEncrypt<float>::~CEncrypt<float>
__unwindfunclet$??0ioFireSkill2@@QAE@ABV0@@Z$11:
  00094	8b 4d f0	 mov	 ecx, DWORD PTR _this$[ebp]
  00097	81 c1 d4 12 00
	00		 add	 ecx, 4820		; 000012d4H
  0009d	ff 25 00 00 00
	00		 jmp	 DWORD PTR __imp_??1ioHashString@@QAE@XZ
__unwindfunclet$??0ioFireSkill2@@QAE@ABV0@@Z$12:
  000a3	8b 4d f0	 mov	 ecx, DWORD PTR _this$[ebp]
  000a6	81 c1 f0 12 00
	00		 add	 ecx, 4848		; 000012f0H
  000ac	ff 25 00 00 00
	00		 jmp	 DWORD PTR __imp_??1ioHashString@@QAE@XZ
__unwindfunclet$??0ioFireSkill2@@QAE@ABV0@@Z$13:
  000b2	8b 4d f0	 mov	 ecx, DWORD PTR _this$[ebp]
  000b5	81 c1 00 13 00
	00		 add	 ecx, 4864		; 00001300H
  000bb	ff 25 00 00 00
	00		 jmp	 DWORD PTR __imp_??1ioHashString@@QAE@XZ
__unwindfunclet$??0ioFireSkill2@@QAE@ABV0@@Z$14:
  000c1	8b 4d f0	 mov	 ecx, DWORD PTR _this$[ebp]
  000c4	81 c1 10 13 00
	00		 add	 ecx, 4880		; 00001310H
  000ca	e9 00 00 00 00	 jmp	 ??1?$CEncrypt@M@@UAE@XZ	; CEncrypt<float>::~CEncrypt<float>
__unwindfunclet$??0ioFireSkill2@@QAE@ABV0@@Z$15:
  000cf	8b 4d f0	 mov	 ecx, DWORD PTR _this$[ebp]
  000d2	81 c1 40 13 00
	00		 add	 ecx, 4928		; 00001340H
  000d8	e9 00 00 00 00	 jmp	 ??1?$CEncrypt@M@@UAE@XZ	; CEncrypt<float>::~CEncrypt<float>
__unwindfunclet$??0ioFireSkill2@@QAE@ABV0@@Z$16:
  000dd	8b 4d f0	 mov	 ecx, DWORD PTR _this$[ebp]
  000e0	81 c1 70 13 00
	00		 add	 ecx, 4976		; 00001370H
  000e6	ff 25 00 00 00
	00		 jmp	 DWORD PTR __imp_??1ioHashString@@QAE@XZ
__ehhandler$??0ioFireSkill2@@QAE@ABV0@@Z:
  000ec	8b 54 24 08	 mov	 edx, DWORD PTR [esp+8]
  000f0	8d 42 0c	 lea	 eax, DWORD PTR [edx+12]
  000f3	8b 4a ec	 mov	 ecx, DWORD PTR [edx-20]
  000f6	33 c8		 xor	 ecx, eax
  000f8	e8 00 00 00 00	 call	 @__security_check_cookie@4
  000fd	b8 00 00 00 00	 mov	 eax, OFFSET __ehfuncinfo$??0ioFireSkill2@@QAE@ABV0@@Z
  00102	e9 00 00 00 00	 jmp	 ___CxxFrameHandler3
text$x	ENDS
??0ioFireSkill2@@QAE@ABV0@@Z ENDP			; ioFireSkill2::ioFireSkill2
;	COMDAT xdata$x
xdata$x	SEGMENT
__unwindtable$?Clone@ioFireSkill2@@UAEPAVioSkill@@XZ DD 0ffffffffH
	DD	FLAT:__unwindfunclet$?Clone@ioFireSkill2@@UAEPAVioSkill@@XZ$0
__ehfuncinfo$?Clone@ioFireSkill2@@UAEPAVioSkill@@XZ DD 019930522H
	DD	01H
	DD	FLAT:__unwindtable$?Clone@ioFireSkill2@@UAEPAVioSkill@@XZ
	DD	2 DUP(00H)
	DD	2 DUP(00H)
	DD	00H
	DD	01H
; Function compile flags: /Ogsp
xdata$x	ENDS
;	COMDAT ?Clone@ioFireSkill2@@UAEPAVioSkill@@XZ
_TEXT	SEGMENT
$T561298 = -16						; size = 4
__$EHRec$ = -12						; size = 12
?Clone@ioFireSkill2@@UAEPAVioSkill@@XZ PROC		; ioFireSkill2::Clone, COMDAT
; _this$ = ecx

; 89   : {

  00000	6a 04		 push	 4
  00002	b8 00 00 00 00	 mov	 eax, __ehhandler$?Clone@ioFireSkill2@@UAEPAVioSkill@@XZ
  00007	e8 00 00 00 00	 call	 __EH_prolog3
  0000c	8b f1		 mov	 esi, ecx

; 90   : 	return new ioFireSkill2( *this );

  0000e	68 80 13 00 00	 push	 4992			; 00001380H
  00013	e8 00 00 00 00	 call	 ??2@YAPAXI@Z		; operator new
  00018	59		 pop	 ecx
  00019	8b c8		 mov	 ecx, eax
  0001b	89 4d f0	 mov	 DWORD PTR $T561298[ebp], ecx
  0001e	33 c0		 xor	 eax, eax
  00020	89 45 fc	 mov	 DWORD PTR __$EHRec$[ebp+8], eax
  00023	3b c8		 cmp	 ecx, eax
  00025	74 06		 je	 SHORT $LN3@Clone
  00027	56		 push	 esi
  00028	e8 00 00 00 00	 call	 ??0ioFireSkill2@@QAE@ABV0@@Z ; ioFireSkill2::ioFireSkill2
$LN3@Clone:

; 91   : }

  0002d	e8 00 00 00 00	 call	 __EH_epilog3
  00032	c3		 ret	 0
_TEXT	ENDS
;	COMDAT text$x
text$x	SEGMENT
__unwindfunclet$?Clone@ioFireSkill2@@UAEPAVioSkill@@XZ$0:
  00000	ff 75 f0	 push	 DWORD PTR $T561298[ebp]
  00003	e8 00 00 00 00	 call	 ??3@YAXPAX@Z		; operator delete
  00008	59		 pop	 ecx
  00009	c3		 ret	 0
__ehhandler$?Clone@ioFireSkill2@@UAEPAVioSkill@@XZ:
  0000a	8b 54 24 08	 mov	 edx, DWORD PTR [esp+8]
  0000e	8d 42 0c	 lea	 eax, DWORD PTR [edx+12]
  00011	8b 4a ec	 mov	 ecx, DWORD PTR [edx-20]
  00014	33 c8		 xor	 ecx, eax
  00016	e8 00 00 00 00	 call	 @__security_check_cookie@4
  0001b	b8 00 00 00 00	 mov	 eax, OFFSET __ehfuncinfo$?Clone@ioFireSkill2@@UAEPAVioSkill@@XZ
  00020	e9 00 00 00 00	 jmp	 ___CxxFrameHandler3
text$x	ENDS
?Clone@ioFireSkill2@@UAEPAVioSkill@@XZ ENDP		; ioFireSkill2::Clone
PUBLIC	?erase@?$vector@PAVioBaseChar@@V?$allocator@PAVioBaseChar@@@std@@@std@@QAE?AV?$_Vector_iterator@V?$_Vector_val@PAVioBaseChar@@V?$allocator@PAVioBaseChar@@@std@@@std@@@2@V?$_Vector_const_iterator@V?$_Vector_val@PAVioBaseChar@@V?$allocator@PAVioBaseChar@@@std@@@std@@@2@0@Z ; std::vector<ioBaseChar *,std::allocator<ioBaseChar *> >::erase
; Function compile flags: /Ogsp
; File c:\program files (x86)\microsoft visual studio 10.0\vc\include\vector
;	COMDAT ?erase@?$vector@PAVioBaseChar@@V?$allocator@PAVioBaseChar@@@std@@@std@@QAE?AV?$_Vector_iterator@V?$_Vector_val@PAVioBaseChar@@V?$allocator@PAVioBaseChar@@@std@@@std@@@2@V?$_Vector_const_iterator@V?$_Vector_val@PAVioBaseChar@@V?$allocator@PAVioBaseChar@@@std@@@std@@@2@0@Z
_TEXT	SEGMENT
___$ReturnUdt$ = 8					; size = 4
__First_arg$ = 12					; size = 4
__Cat$561383 = 16					; size = 1
__Last_arg$ = 16					; size = 4
?erase@?$vector@PAVioBaseChar@@V?$allocator@PAVioBaseChar@@@std@@@std@@QAE?AV?$_Vector_iterator@V?$_Vector_val@PAVioBaseChar@@V?$allocator@PAVioBaseChar@@@std@@@std@@@2@V?$_Vector_const_iterator@V?$_Vector_val@PAVioBaseChar@@V?$allocator@PAVioBaseChar@@@std@@@std@@@2@0@Z PROC ; std::vector<ioBaseChar *,std::allocator<ioBaseChar *> >::erase, COMDAT
; _this$ = ecx

; 1190 : 		{	// erase [_First, _Last)

  00000	55		 push	 ebp
  00001	8b ec		 mov	 ebp, esp

; 1191 : 		iterator _First = _Make_iter(_First_arg);

  00003	8b 45 0c	 mov	 eax, DWORD PTR __First_arg$[ebp]
  00006	56		 push	 esi
  00007	57		 push	 edi
  00008	8b 7d 08	 mov	 edi, DWORD PTR ___$ReturnUdt$[ebp]
  0000b	8b f1		 mov	 esi, ecx
  0000d	89 07		 mov	 DWORD PTR [edi], eax

; 1192 : 		iterator _Last = _Make_iter(_Last_arg);
; 1193 : 
; 1194 : 		if (_First != _Last)

  0000f	3b 45 10	 cmp	 eax, DWORD PTR __Last_arg$[ebp]
  00012	74 16		 je	 SHORT $LN1@erase@2

; 1195 : 			{	// worth doing, copy down over hole
; 1196 :  #if _ITERATOR_DEBUG_LEVEL == 2
; 1197 : 			if (_Last < _First || _VICONT(_First) != this
; 1198 : 				|| _VIPTR(_First) < this->_Myfirst
; 1199 : 				|| this->_Mylast < _VIPTR(_Last))
; 1200 : 				_DEBUG_ERROR("vector erase iterator outside range");
; 1201 : 			pointer _Ptr = _Move(_VIPTR(_Last), this->_Mylast,
; 1202 : 				_VIPTR(_First));
; 1203 : 			_Orphan_range(_VIPTR(_First), this->_Mylast);
; 1204 : 
; 1205 :  #else /* _ITERATOR_DEBUG_LEVEL == 2 */
; 1206 : 			pointer _Ptr = _Move(_VIPTR(_Last), this->_Mylast,
; 1207 : 				_VIPTR(_First));

  00014	ff 75 10	 push	 DWORD PTR __Cat$561383[ebp]
  00017	8b 4e 04	 mov	 ecx, DWORD PTR [esi+4]
  0001a	50		 push	 eax
  0001b	51		 push	 ecx
  0001c	ff 75 10	 push	 DWORD PTR __Last_arg$[ebp]
  0001f	e8 00 00 00 00	 call	 ??$_Move@PAPAVioBaseChar@@PAPAV1@@std@@YAPAPAVioBaseChar@@PAPAV1@00U_Scalar_ptr_iterator_tag@0@@Z ; std::_Move<ioBaseChar * *,ioBaseChar * *>
  00024	83 c4 10	 add	 esp, 16			; 00000010H

; 1208 :  #endif /* _ITERATOR_DEBUG_LEVEL == 2 */
; 1209 : 
; 1210 : 			_Destroy(_Ptr, this->_Mylast);
; 1211 : 			this->_Mylast = _Ptr;

  00027	89 46 04	 mov	 DWORD PTR [esi+4], eax
$LN1@erase@2:

; 1212 : 			}
; 1213 : 		return (_First);

  0002a	8b c7		 mov	 eax, edi
  0002c	5f		 pop	 edi
  0002d	5e		 pop	 esi

; 1214 : 		}

  0002e	5d		 pop	 ebp
  0002f	c2 0c 00	 ret	 12			; 0000000cH
?erase@?$vector@PAVioBaseChar@@V?$allocator@PAVioBaseChar@@@std@@@std@@QAE?AV?$_Vector_iterator@V?$_Vector_val@PAVioBaseChar@@V?$allocator@PAVioBaseChar@@@std@@@std@@@2@V?$_Vector_const_iterator@V?$_Vector_val@PAVioBaseChar@@V?$allocator@PAVioBaseChar@@@std@@@std@@@2@0@Z ENDP ; std::vector<ioBaseChar *,std::allocator<ioBaseChar *> >::erase
_TEXT	ENDS
PUBLIC	?_Tidy@?$vector@PAVioBaseChar@@V?$allocator@PAVioBaseChar@@@std@@@std@@IAEXXZ ; std::vector<ioBaseChar *,std::allocator<ioBaseChar *> >::_Tidy
EXTRN	__imp_?_Orphan_all@_Container_base0@std@@QAEXXZ:PROC
; Function compile flags: /Ogsp
;	COMDAT ?_Tidy@?$vector@PAVioBaseChar@@V?$allocator@PAVioBaseChar@@@std@@@std@@IAEXXZ
_TEXT	SEGMENT
?_Tidy@?$vector@PAVioBaseChar@@V?$allocator@PAVioBaseChar@@@std@@@std@@IAEXXZ PROC ; std::vector<ioBaseChar *,std::allocator<ioBaseChar *> >::_Tidy, COMDAT
; _this$ = ecx

; 1301 : 		{	// free all storage

  00000	56		 push	 esi
  00001	8b f1		 mov	 esi, ecx

; 1302 : 		if (this->_Myfirst != 0)

  00003	83 3e 00	 cmp	 DWORD PTR [esi], 0
  00006	74 0e		 je	 SHORT $LN12@Tidy@2

; 1303 : 			{	// something to free, destroy and deallocate it
; 1304 : 			this->_Orphan_all();

  00008	ff 15 00 00 00
	00		 call	 DWORD PTR __imp_?_Orphan_all@_Container_base0@std@@QAEXXZ

; 1305 : 			_Destroy(this->_Myfirst, this->_Mylast);
; 1306 : 			this->_Alval.deallocate(this->_Myfirst,
; 1307 : 				this->_Myend - this->_Myfirst);

  0000e	ff 36		 push	 DWORD PTR [esi]
  00010	e8 00 00 00 00	 call	 ??3@YAXPAX@Z		; operator delete
  00015	59		 pop	 ecx
$LN12@Tidy@2:

; 1308 : 			}
; 1309 : 		this->_Myfirst = 0;

  00016	83 26 00	 and	 DWORD PTR [esi], 0

; 1310 : 		this->_Mylast = 0;

  00019	83 66 04 00	 and	 DWORD PTR [esi+4], 0

; 1311 : 		this->_Myend = 0;

  0001d	83 66 08 00	 and	 DWORD PTR [esi+8], 0
  00021	5e		 pop	 esi

; 1312 : 		}

  00022	c3		 ret	 0
?_Tidy@?$vector@PAVioBaseChar@@V?$allocator@PAVioBaseChar@@@std@@@std@@IAEXXZ ENDP ; std::vector<ioBaseChar *,std::allocator<ioBaseChar *> >::_Tidy
_TEXT	ENDS
PUBLIC	?_Tidy@?$vector@PBUAniEventTime@@V?$allocator@PBUAniEventTime@@@std@@@std@@IAEXXZ ; std::vector<AniEventTime const *,std::allocator<AniEventTime const *> >::_Tidy
; Function compile flags: /Ogsp
;	COMDAT ?_Tidy@?$vector@PBUAniEventTime@@V?$allocator@PBUAniEventTime@@@std@@@std@@IAEXXZ
_TEXT	SEGMENT
?_Tidy@?$vector@PBUAniEventTime@@V?$allocator@PBUAniEventTime@@@std@@@std@@IAEXXZ PROC ; std::vector<AniEventTime const *,std::allocator<AniEventTime const *> >::_Tidy, COMDAT
; _this$ = ecx

; 1301 : 		{	// free all storage

  00000	56		 push	 esi
  00001	8b f1		 mov	 esi, ecx

; 1302 : 		if (this->_Myfirst != 0)

  00003	83 3e 00	 cmp	 DWORD PTR [esi], 0
  00006	74 0e		 je	 SHORT $LN12@Tidy@3

; 1303 : 			{	// something to free, destroy and deallocate it
; 1304 : 			this->_Orphan_all();

  00008	ff 15 00 00 00
	00		 call	 DWORD PTR __imp_?_Orphan_all@_Container_base0@std@@QAEXXZ

; 1305 : 			_Destroy(this->_Myfirst, this->_Mylast);
; 1306 : 			this->_Alval.deallocate(this->_Myfirst,
; 1307 : 				this->_Myend - this->_Myfirst);

  0000e	ff 36		 push	 DWORD PTR [esi]
  00010	e8 00 00 00 00	 call	 ??3@YAXPAX@Z		; operator delete
  00015	59		 pop	 ecx
$LN12@Tidy@3:

; 1308 : 			}
; 1309 : 		this->_Myfirst = 0;

  00016	83 26 00	 and	 DWORD PTR [esi], 0

; 1310 : 		this->_Mylast = 0;

  00019	83 66 04 00	 and	 DWORD PTR [esi+4], 0

; 1311 : 		this->_Myend = 0;

  0001d	83 66 08 00	 and	 DWORD PTR [esi+8], 0
  00021	5e		 pop	 esi

; 1312 : 		}

  00022	c3		 ret	 0
?_Tidy@?$vector@PBUAniEventTime@@V?$allocator@PBUAniEventTime@@@std@@@std@@IAEXXZ ENDP ; std::vector<AniEventTime const *,std::allocator<AniEventTime const *> >::_Tidy
_TEXT	ENDS
PUBLIC	??$_Cons_val@V?$allocator@UtagBaseCharDistanceSq@@@std@@UtagBaseCharDistanceSq@@ABU3@@std@@YAXAAV?$allocator@UtagBaseCharDistanceSq@@@0@PAUtagBaseCharDistanceSq@@ABU2@@Z ; std::_Cons_val<std::allocator<tagBaseCharDistanceSq>,tagBaseCharDistanceSq,tagBaseCharDistanceSq const &>
; Function compile flags: /Ogsp
; File c:\program files (x86)\microsoft visual studio 10.0\vc\include\xmemory
;	COMDAT ??$_Cons_val@V?$allocator@UtagBaseCharDistanceSq@@@std@@UtagBaseCharDistanceSq@@ABU3@@std@@YAXAAV?$allocator@UtagBaseCharDistanceSq@@@0@PAUtagBaseCharDistanceSq@@ABU2@@Z
_TEXT	SEGMENT
__Alval$ = 8						; size = 4
__Pdest$ = 12						; size = 4
__Src$ = 16						; size = 4
??$_Cons_val@V?$allocator@UtagBaseCharDistanceSq@@@std@@UtagBaseCharDistanceSq@@ABU3@@std@@YAXAAV?$allocator@UtagBaseCharDistanceSq@@@0@PAUtagBaseCharDistanceSq@@ABU2@@Z PROC ; std::_Cons_val<std::allocator<tagBaseCharDistanceSq>,tagBaseCharDistanceSq,tagBaseCharDistanceSq const &>, COMDAT

; 279  : 	{	// construct using allocator

  00000	55		 push	 ebp
  00001	8b ec		 mov	 ebp, esp

; 280  : 	_Alval.construct(_Pdest, _STD forward<_Ty2>(_Src));

  00003	ff 75 10	 push	 DWORD PTR __Src$[ebp]
  00006	ff 75 0c	 push	 DWORD PTR __Pdest$[ebp]
  00009	e8 00 00 00 00	 call	 ??$_Construct@UtagBaseCharDistanceSq@@ABU1@@std@@YAXPAUtagBaseCharDistanceSq@@ABU1@@Z ; std::_Construct<tagBaseCharDistanceSq,tagBaseCharDistanceSq const &>
  0000e	59		 pop	 ecx
  0000f	59		 pop	 ecx

; 281  : 	}

  00010	5d		 pop	 ebp
  00011	c3		 ret	 0
??$_Cons_val@V?$allocator@UtagBaseCharDistanceSq@@@std@@UtagBaseCharDistanceSq@@ABU3@@std@@YAXAAV?$allocator@UtagBaseCharDistanceSq@@@0@PAUtagBaseCharDistanceSq@@ABU2@@Z ENDP ; std::_Cons_val<std::allocator<tagBaseCharDistanceSq>,tagBaseCharDistanceSq,tagBaseCharDistanceSq const &>
_TEXT	ENDS
PUBLIC	??$_Destroy_range@V?$allocator@UAniRotateInfo@@@std@@@std@@YAXPAUAniRotateInfo@@0AAV?$allocator@UAniRotateInfo@@@0@U_Nonscalar_ptr_iterator_tag@0@@Z ; std::_Destroy_range<std::allocator<AniRotateInfo> >
; Function compile flags: /Ogsp
;	COMDAT ??$_Destroy_range@V?$allocator@UAniRotateInfo@@@std@@@std@@YAXPAUAniRotateInfo@@0AAV?$allocator@UAniRotateInfo@@@0@U_Nonscalar_ptr_iterator_tag@0@@Z
_TEXT	SEGMENT
__First$ = 8						; size = 4
__Last$ = 12						; size = 4
__Al$ = 16						; size = 4
___formal$ = 20						; size = 1
??$_Destroy_range@V?$allocator@UAniRotateInfo@@@std@@@std@@YAXPAUAniRotateInfo@@0AAV?$allocator@UAniRotateInfo@@@0@U_Nonscalar_ptr_iterator_tag@0@@Z PROC ; std::_Destroy_range<std::allocator<AniRotateInfo> >, COMDAT

; 96   : 	for (; _First != _Last; ++_First)
; 97   : 		_Dest_val(_Al, _First);
; 98   : 	}

  00000	c3		 ret	 0
??$_Destroy_range@V?$allocator@UAniRotateInfo@@@std@@@std@@YAXPAUAniRotateInfo@@0AAV?$allocator@UAniRotateInfo@@@0@U_Nonscalar_ptr_iterator_tag@0@@Z ENDP ; std::_Destroy_range<std::allocator<AniRotateInfo> >
_TEXT	ENDS
PUBLIC	??$_Uninit_move@PAUAniRotateInfo@@PAU1@V?$allocator@UAniRotateInfo@@@std@@U1@@std@@YAPAUAniRotateInfo@@PAU1@00AAV?$allocator@UAniRotateInfo@@@0@0U_Nonscalar_ptr_iterator_tag@0@@Z ; std::_Uninit_move<AniRotateInfo *,AniRotateInfo *,std::allocator<AniRotateInfo>,AniRotateInfo>
; Function compile flags: /Ogsp
; File c:\program files (x86)\microsoft visual studio 10.0\vc\include\memory
;	COMDAT ??$_Uninit_move@PAUAniRotateInfo@@PAU1@V?$allocator@UAniRotateInfo@@@std@@U1@@std@@YAPAUAniRotateInfo@@PAU1@00AAV?$allocator@UAniRotateInfo@@@0@0U_Nonscalar_ptr_iterator_tag@0@@Z
_TEXT	SEGMENT
__First$ = 8						; size = 4
__Last$ = 12						; size = 4
__Dest$ = 16						; size = 4
__Al$ = 20						; size = 4
___formal$ = 24						; size = 4
___formal$ = 28						; size = 1
??$_Uninit_move@PAUAniRotateInfo@@PAU1@V?$allocator@UAniRotateInfo@@@std@@U1@@std@@YAPAUAniRotateInfo@@PAU1@00AAV?$allocator@UAniRotateInfo@@@0@0U_Nonscalar_ptr_iterator_tag@0@@Z PROC ; std::_Uninit_move<AniRotateInfo *,AniRotateInfo *,std::allocator<AniRotateInfo>,AniRotateInfo>, COMDAT

; 424  : 	{	// move [_First, _Last) to raw _Dest, using _Al, arbitrary type

  00000	55		 push	 ebp
  00001	8b ec		 mov	 ebp, esp
  00003	56		 push	 esi

; 425  : 	_DEBUG_RANGE(_First, _Last);
; 426  : 	_DEBUG_POINTER(_Dest);
; 427  : 	_FwdIt _Next = _Dest;
; 428  : 
; 429  : 	_TRY_BEGIN
; 430  : 	for (; _First != _Last; ++_Dest, ++_First)

  00004	8b 75 08	 mov	 esi, DWORD PTR __First$[ebp]
  00007	eb 16		 jmp	 SHORT $LN24@Uninit_mov
$LL6@Uninit_mov:

; 431  : 		_Cons_val(_Al, _Dest, (_Valty &&)*_First);

  00009	56		 push	 esi
  0000a	ff 75 10	 push	 DWORD PTR __Dest$[ebp]
  0000d	ff 75 14	 push	 DWORD PTR __Al$[ebp]
  00010	e8 00 00 00 00	 call	 ??$_Cons_val@V?$allocator@UAniRotateInfo@@@std@@UAniRotateInfo@@U3@@std@@YAXAAV?$allocator@UAniRotateInfo@@@0@PAUAniRotateInfo@@$$QAU2@@Z ; std::_Cons_val<std::allocator<AniRotateInfo>,AniRotateInfo,AniRotateInfo>
  00015	83 45 10 08	 add	 DWORD PTR __Dest$[ebp], 8
  00019	83 c4 0c	 add	 esp, 12			; 0000000cH
  0001c	83 c6 08	 add	 esi, 8
$LN24@Uninit_mov:

; 425  : 	_DEBUG_RANGE(_First, _Last);
; 426  : 	_DEBUG_POINTER(_Dest);
; 427  : 	_FwdIt _Next = _Dest;
; 428  : 
; 429  : 	_TRY_BEGIN
; 430  : 	for (; _First != _Last; ++_Dest, ++_First)

  0001f	3b 75 0c	 cmp	 esi, DWORD PTR __Last$[ebp]
  00022	75 e5		 jne	 SHORT $LL6@Uninit_mov

; 432  : 	_CATCH_ALL
; 433  : 	for (; _Next != _Dest; ++_Next)
; 434  : 		_Dest_val(_Al, _Next);
; 435  : 	_RERAISE;
; 436  : 	_CATCH_END
; 437  : 	return (_Dest);

  00024	8b 45 10	 mov	 eax, DWORD PTR __Dest$[ebp]
  00027	5e		 pop	 esi

; 438  : 	}

  00028	5d		 pop	 ebp
  00029	c3		 ret	 0
??$_Uninit_move@PAUAniRotateInfo@@PAU1@V?$allocator@UAniRotateInfo@@@std@@U1@@std@@YAPAUAniRotateInfo@@PAU1@00AAV?$allocator@UAniRotateInfo@@@0@0U_Nonscalar_ptr_iterator_tag@0@@Z ENDP ; std::_Uninit_move<AniRotateInfo *,AniRotateInfo *,std::allocator<AniRotateInfo>,AniRotateInfo>
_TEXT	ENDS
PUBLIC	??$_Dest_val@V?$allocator@UtagBaseCharDistanceSq@@@std@@UtagBaseCharDistanceSq@@@std@@YAXAAV?$allocator@UtagBaseCharDistanceSq@@@0@PAUtagBaseCharDistanceSq@@@Z ; std::_Dest_val<std::allocator<tagBaseCharDistanceSq>,tagBaseCharDistanceSq>
; Function compile flags: /Ogsp
; File c:\program files (x86)\microsoft visual studio 10.0\vc\include\xmemory
;	COMDAT ??$_Dest_val@V?$allocator@UtagBaseCharDistanceSq@@@std@@UtagBaseCharDistanceSq@@@std@@YAXAAV?$allocator@UtagBaseCharDistanceSq@@@0@PAUtagBaseCharDistanceSq@@@Z
_TEXT	SEGMENT
__Alval$ = 8						; size = 4
__Pdest$ = 12						; size = 4
??$_Dest_val@V?$allocator@UtagBaseCharDistanceSq@@@std@@UtagBaseCharDistanceSq@@@std@@YAXAAV?$allocator@UtagBaseCharDistanceSq@@@0@PAUtagBaseCharDistanceSq@@@Z PROC ; std::_Dest_val<std::allocator<tagBaseCharDistanceSq>,tagBaseCharDistanceSq>, COMDAT

; 286  : 	{	// destroy using allocator

  00000	55		 push	 ebp
  00001	8b ec		 mov	 ebp, esp

; 287  : 	_Alval.destroy(_Pdest);

  00003	8b 4d 0c	 mov	 ecx, DWORD PTR __Pdest$[ebp]

; 288  : 	}

  00006	5d		 pop	 ebp

; 287  : 	_Alval.destroy(_Pdest);

  00007	ff 25 00 00 00
	00		 jmp	 DWORD PTR __imp_??1ioHashString@@QAE@XZ
??$_Dest_val@V?$allocator@UtagBaseCharDistanceSq@@@std@@UtagBaseCharDistanceSq@@@std@@YAXAAV?$allocator@UtagBaseCharDistanceSq@@@0@PAUtagBaseCharDistanceSq@@@Z ENDP ; std::_Dest_val<std::allocator<tagBaseCharDistanceSq>,tagBaseCharDistanceSq>
_TEXT	ENDS
PUBLIC	??$_Median@PAUtagBaseCharDistanceSq@@VBaseCharDistanceSqSort2@@@std@@YAXPAUtagBaseCharDistanceSq@@00VBaseCharDistanceSqSort2@@@Z ; std::_Median<tagBaseCharDistanceSq *,BaseCharDistanceSqSort2>
; Function compile flags: /Ogsp
; File c:\program files (x86)\microsoft visual studio 10.0\vc\include\algorithm
;	COMDAT ??$_Median@PAUtagBaseCharDistanceSq@@VBaseCharDistanceSqSort2@@@std@@YAXPAUtagBaseCharDistanceSq@@00VBaseCharDistanceSqSort2@@@Z
_TEXT	SEGMENT
tv200 = 8						; size = 4
__First$ = 8						; size = 4
__Mid$ = 12						; size = 4
tv203 = 16						; size = 4
__Last$ = 16						; size = 4
__Pred$ = 20						; size = 1
??$_Median@PAUtagBaseCharDistanceSq@@VBaseCharDistanceSqSort2@@@std@@YAXPAUtagBaseCharDistanceSq@@00VBaseCharDistanceSqSort2@@@Z PROC ; std::_Median<tagBaseCharDistanceSq *,BaseCharDistanceSqSort2>, COMDAT

; 3695 : 	{	// sort median element to middle

  00000	55		 push	 ebp
  00001	8b ec		 mov	 ebp, esp

; 3696 : 	if (40 < _Last - _First)

  00003	8b 4d 08	 mov	 ecx, DWORD PTR __First$[ebp]
  00006	57		 push	 edi
  00007	8b 7d 10	 mov	 edi, DWORD PTR __Last$[ebp]
  0000a	8b c7		 mov	 eax, edi
  0000c	2b c1		 sub	 eax, ecx
  0000e	c1 f8 05	 sar	 eax, 5
  00011	83 f8 28	 cmp	 eax, 40			; 00000028H
  00014	7e 6a		 jle	 SHORT $LN2@Median

; 3697 : 		{	// median of nine
; 3698 : 		size_t _Step = (_Last - _First + 1) / 8;

  00016	40		 inc	 eax
  00017	99		 cdq
  00018	83 e2 07	 and	 edx, 7
  0001b	53		 push	 ebx
  0001c	03 c2		 add	 eax, edx
  0001e	c1 f8 03	 sar	 eax, 3
  00021	56		 push	 esi

; 3699 : 		_Med3(_First, _First + _Step, _First + 2 * _Step, _Pred);

  00022	ff 75 14	 push	 DWORD PTR __Pred$[ebp]
  00025	8b d8		 mov	 ebx, eax
  00027	8b f0		 mov	 esi, eax
  00029	c1 e3 06	 shl	 ebx, 6
  0002c	8d 14 0b	 lea	 edx, DWORD PTR [ebx+ecx]
  0002f	c1 e6 05	 shl	 esi, 5
  00032	8d 04 0e	 lea	 eax, DWORD PTR [esi+ecx]
  00035	52		 push	 edx
  00036	50		 push	 eax
  00037	51		 push	 ecx
  00038	89 45 08	 mov	 DWORD PTR tv200[ebp], eax
  0003b	e8 00 00 00 00	 call	 ??$_Med3@PAUtagBaseCharDistanceSq@@VBaseCharDistanceSqSort2@@@std@@YAXPAUtagBaseCharDistanceSq@@00VBaseCharDistanceSqSort2@@@Z ; std::_Med3<tagBaseCharDistanceSq *,BaseCharDistanceSqSort2>

; 3700 : 		_Med3(_Mid - _Step, _Mid, _Mid + _Step, _Pred);

  00040	ff 75 14	 push	 DWORD PTR __Pred$[ebp]
  00043	8b 45 0c	 mov	 eax, DWORD PTR __Mid$[ebp]
  00046	8d 0c 06	 lea	 ecx, DWORD PTR [esi+eax]
  00049	51		 push	 ecx
  0004a	50		 push	 eax
  0004b	2b c6		 sub	 eax, esi
  0004d	50		 push	 eax
  0004e	e8 00 00 00 00	 call	 ??$_Med3@PAUtagBaseCharDistanceSq@@VBaseCharDistanceSqSort2@@@std@@YAXPAUtagBaseCharDistanceSq@@00VBaseCharDistanceSqSort2@@@Z ; std::_Med3<tagBaseCharDistanceSq *,BaseCharDistanceSqSort2>

; 3701 : 		_Med3(_Last - 2 * _Step, _Last - _Step, _Last, _Pred);

  00053	ff 75 14	 push	 DWORD PTR __Pred$[ebp]
  00056	89 7d 10	 mov	 DWORD PTR tv203[ebp], edi
  00059	29 75 10	 sub	 DWORD PTR tv203[ebp], esi
  0005c	57		 push	 edi
  0005d	ff 75 10	 push	 DWORD PTR tv203[ebp]
  00060	2b fb		 sub	 edi, ebx
  00062	57		 push	 edi
  00063	e8 00 00 00 00	 call	 ??$_Med3@PAUtagBaseCharDistanceSq@@VBaseCharDistanceSqSort2@@@std@@YAXPAUtagBaseCharDistanceSq@@00VBaseCharDistanceSqSort2@@@Z ; std::_Med3<tagBaseCharDistanceSq *,BaseCharDistanceSqSort2>

; 3702 : 		_Med3(_First + _Step, _Mid, _Last - _Step, _Pred);

  00068	ff 75 14	 push	 DWORD PTR __Pred$[ebp]
  0006b	ff 75 10	 push	 DWORD PTR tv203[ebp]
  0006e	ff 75 0c	 push	 DWORD PTR __Mid$[ebp]
  00071	ff 75 08	 push	 DWORD PTR tv200[ebp]
  00074	e8 00 00 00 00	 call	 ??$_Med3@PAUtagBaseCharDistanceSq@@VBaseCharDistanceSqSort2@@@std@@YAXPAUtagBaseCharDistanceSq@@00VBaseCharDistanceSqSort2@@@Z ; std::_Med3<tagBaseCharDistanceSq *,BaseCharDistanceSqSort2>
  00079	83 c4 40	 add	 esp, 64			; 00000040H
  0007c	5e		 pop	 esi
  0007d	5b		 pop	 ebx

; 3703 : 		}
; 3704 : 	else

  0007e	eb 10		 jmp	 SHORT $LN1@Median
$LN2@Median:

; 3705 : 		_Med3(_First, _Mid, _Last, _Pred);

  00080	ff 75 14	 push	 DWORD PTR __Pred$[ebp]
  00083	57		 push	 edi
  00084	ff 75 0c	 push	 DWORD PTR __Mid$[ebp]
  00087	51		 push	 ecx
  00088	e8 00 00 00 00	 call	 ??$_Med3@PAUtagBaseCharDistanceSq@@VBaseCharDistanceSqSort2@@@std@@YAXPAUtagBaseCharDistanceSq@@00VBaseCharDistanceSqSort2@@@Z ; std::_Med3<tagBaseCharDistanceSq *,BaseCharDistanceSqSort2>
  0008d	83 c4 10	 add	 esp, 16			; 00000010H
$LN1@Median:
  00090	5f		 pop	 edi

; 3706 : 	}

  00091	5d		 pop	 ebp
  00092	c3		 ret	 0
??$_Median@PAUtagBaseCharDistanceSq@@VBaseCharDistanceSqSort2@@@std@@YAXPAUtagBaseCharDistanceSq@@00VBaseCharDistanceSqSort2@@@Z ENDP ; std::_Median<tagBaseCharDistanceSq *,BaseCharDistanceSqSort2>
_TEXT	ENDS
PUBLIC	??$_Make_heap@PAUtagBaseCharDistanceSq@@HU1@VBaseCharDistanceSqSort2@@@std@@YAXPAUtagBaseCharDistanceSq@@0VBaseCharDistanceSqSort2@@PAH0@Z ; std::_Make_heap<tagBaseCharDistanceSq *,int,tagBaseCharDistanceSq,BaseCharDistanceSqSort2>
;	COMDAT xdata$x
; File d:\lost saga for developer\youtube\tutorial\source\src\lsclient\iofireskill2.cpp
xdata$x	SEGMENT
__unwindtable$??$_Make_heap@PAUtagBaseCharDistanceSq@@HU1@VBaseCharDistanceSqSort2@@@std@@YAXPAUtagBaseCharDistanceSq@@0VBaseCharDistanceSqSort2@@PAH0@Z DD 0ffffffffH
	DD	FLAT:__unwindfunclet$??$_Make_heap@PAUtagBaseCharDistanceSq@@HU1@VBaseCharDistanceSqSort2@@@std@@YAXPAUtagBaseCharDistanceSq@@0VBaseCharDistanceSqSort2@@PAH0@Z$0
__ehfuncinfo$??$_Make_heap@PAUtagBaseCharDistanceSq@@HU1@VBaseCharDistanceSqSort2@@@std@@YAXPAUtagBaseCharDistanceSq@@0VBaseCharDistanceSqSort2@@PAH0@Z DD 019930522H
	DD	01H
	DD	FLAT:__unwindtable$??$_Make_heap@PAUtagBaseCharDistanceSq@@HU1@VBaseCharDistanceSqSort2@@@std@@YAXPAUtagBaseCharDistanceSq@@0VBaseCharDistanceSqSort2@@PAH0@Z
	DD	2 DUP(00H)
	DD	2 DUP(00H)
	DD	00H
	DD	01H
; Function compile flags: /Ogsp
; File c:\program files (x86)\microsoft visual studio 10.0\vc\include\algorithm
xdata$x	ENDS
;	COMDAT ??$_Make_heap@PAUtagBaseCharDistanceSq@@HU1@VBaseCharDistanceSqSort2@@@std@@YAXPAUtagBaseCharDistanceSq@@0VBaseCharDistanceSqSort2@@PAH0@Z
_TEXT	SEGMENT
__Bottom$ = -52						; size = 4
__Val$555173 = -48					; size = 32
__$EHRec$ = -12						; size = 12
__First$ = 8						; size = 4
__Last$ = 12						; size = 4
__Pred$ = 16						; size = 1
___formal$ = 20						; size = 4
___formal$ = 24						; size = 4
??$_Make_heap@PAUtagBaseCharDistanceSq@@HU1@VBaseCharDistanceSqSort2@@@std@@YAXPAUtagBaseCharDistanceSq@@0VBaseCharDistanceSqSort2@@PAH0@Z PROC ; std::_Make_heap<tagBaseCharDistanceSq *,int,tagBaseCharDistanceSq,BaseCharDistanceSqSort2>, COMDAT

; 2658 : 	{	// make nontrivial [_First, _Last) into a heap, using _Pred

  00000	6a 28		 push	 40			; 00000028H
  00002	b8 00 00 00 00	 mov	 eax, __ehhandler$??$_Make_heap@PAUtagBaseCharDistanceSq@@HU1@VBaseCharDistanceSqSort2@@@std@@YAXPAUtagBaseCharDistanceSq@@0VBaseCharDistanceSqSort2@@PAH0@Z
  00007	e8 00 00 00 00	 call	 __EH_prolog3_GS
  0000c	8b 5d 08	 mov	 ebx, DWORD PTR __First$[ebp]
  0000f	8b 45 0c	 mov	 eax, DWORD PTR __Last$[ebp]

; 2659 : 	_Diff _Bottom = _Last - _First;

  00012	2b c3		 sub	 eax, ebx
  00014	c1 f8 05	 sar	 eax, 5
  00017	89 45 cc	 mov	 DWORD PTR __Bottom$[ebp], eax

; 2660 : 	for (_Diff _Hole = _Bottom / 2; 0 < _Hole; )

  0001a	99		 cdq
  0001b	2b c2		 sub	 eax, edx
  0001d	8b f0		 mov	 esi, eax
  0001f	d1 fe		 sar	 esi, 1
  00021	85 f6		 test	 esi, esi
  00023	7e 3d		 jle	 SHORT $LN1@Make_heap

; 2661 : 		{	// reheap top half, bottom to top
; 2662 : 		--_Hole;
; 2663 : 		_Ty _Val = _Move(*(_First + _Hole));

  00025	8b fe		 mov	 edi, esi
  00027	c1 e7 05	 shl	 edi, 5
  0002a	03 fb		 add	 edi, ebx
$LL2@Make_heap:
  0002c	83 ef 20	 sub	 edi, 32			; 00000020H
  0002f	57		 push	 edi
  00030	8d 4d d0	 lea	 ecx, DWORD PTR __Val$555173[ebp]
  00033	4e		 dec	 esi
  00034	e8 00 00 00 00	 call	 ??0tagBaseCharDistanceSq@@QAE@ABU0@@Z

; 2664 : 		_Adjust_heap(_First, _Hole, _Bottom,
; 2665 : 			_Move(_Val), _Pred);

  00039	ff 75 10	 push	 DWORD PTR __Pred$[ebp]
  0003c	83 65 fc 00	 and	 DWORD PTR __$EHRec$[ebp+8], 0
  00040	8d 45 d0	 lea	 eax, DWORD PTR __Val$555173[ebp]
  00043	50		 push	 eax
  00044	ff 75 cc	 push	 DWORD PTR __Bottom$[ebp]
  00047	56		 push	 esi
  00048	53		 push	 ebx
  00049	e8 00 00 00 00	 call	 ??$_Adjust_heap@PAUtagBaseCharDistanceSq@@HU1@VBaseCharDistanceSqSort2@@@std@@YAXPAUtagBaseCharDistanceSq@@HH$$QAU1@VBaseCharDistanceSqSort2@@@Z ; std::_Adjust_heap<tagBaseCharDistanceSq *,int,tagBaseCharDistanceSq,BaseCharDistanceSqSort2>

; 2666 : 		}

  0004e	83 4d fc ff	 or	 DWORD PTR __$EHRec$[ebp+8], -1
  00052	83 c4 14	 add	 esp, 20			; 00000014H
  00055	8d 4d d0	 lea	 ecx, DWORD PTR __Val$555173[ebp]
  00058	ff 15 00 00 00
	00		 call	 DWORD PTR __imp_??1ioHashString@@QAE@XZ
  0005e	85 f6		 test	 esi, esi
  00060	7f ca		 jg	 SHORT $LL2@Make_heap
$LN1@Make_heap:

; 2667 : 	}

  00062	e8 00 00 00 00	 call	 __EH_epilog3_GS
  00067	c3		 ret	 0
_TEXT	ENDS
;	COMDAT text$x
text$x	SEGMENT
__unwindfunclet$??$_Make_heap@PAUtagBaseCharDistanceSq@@HU1@VBaseCharDistanceSqSort2@@@std@@YAXPAUtagBaseCharDistanceSq@@0VBaseCharDistanceSqSort2@@PAH0@Z$0:
  00000	8d 4d d0	 lea	 ecx, DWORD PTR __Val$555173[ebp]
  00003	e9 00 00 00 00	 jmp	 ??1tagBaseCharDistanceSq@@QAE@XZ
__ehhandler$??$_Make_heap@PAUtagBaseCharDistanceSq@@HU1@VBaseCharDistanceSqSort2@@@std@@YAXPAUtagBaseCharDistanceSq@@0VBaseCharDistanceSqSort2@@PAH0@Z:
  00008	8b 54 24 08	 mov	 edx, DWORD PTR [esp+8]
  0000c	8d 42 0c	 lea	 eax, DWORD PTR [edx+12]
  0000f	8b 4a c8	 mov	 ecx, DWORD PTR [edx-56]
  00012	33 c8		 xor	 ecx, eax
  00014	e8 00 00 00 00	 call	 @__security_check_cookie@4
  00019	8b 4a fc	 mov	 ecx, DWORD PTR [edx-4]
  0001c	33 c8		 xor	 ecx, eax
  0001e	e8 00 00 00 00	 call	 @__security_check_cookie@4
  00023	b8 00 00 00 00	 mov	 eax, OFFSET __ehfuncinfo$??$_Make_heap@PAUtagBaseCharDistanceSq@@HU1@VBaseCharDistanceSqSort2@@@std@@YAXPAUtagBaseCharDistanceSq@@0VBaseCharDistanceSqSort2@@PAH0@Z
  00028	e9 00 00 00 00	 jmp	 ___CxxFrameHandler3
text$x	ENDS
??$_Make_heap@PAUtagBaseCharDistanceSq@@HU1@VBaseCharDistanceSqSort2@@@std@@YAXPAUtagBaseCharDistanceSq@@0VBaseCharDistanceSqSort2@@PAH0@Z ENDP ; std::_Make_heap<tagBaseCharDistanceSq *,int,tagBaseCharDistanceSq,BaseCharDistanceSqSort2>
PUBLIC	??$_Insertion_sort1@PAUtagBaseCharDistanceSq@@VBaseCharDistanceSqSort2@@U1@@std@@YAXPAUtagBaseCharDistanceSq@@0VBaseCharDistanceSqSort2@@0@Z ; std::_Insertion_sort1<tagBaseCharDistanceSq *,BaseCharDistanceSqSort2,tagBaseCharDistanceSq>
;	COMDAT xdata$x
; File d:\lost saga for developer\youtube\tutorial\source\src\lsclient\iofireskill2.cpp
xdata$x	SEGMENT
__unwindtable$??$_Insertion_sort1@PAUtagBaseCharDistanceSq@@VBaseCharDistanceSqSort2@@U1@@std@@YAXPAUtagBaseCharDistanceSq@@0VBaseCharDistanceSqSort2@@0@Z DD 0ffffffffH
	DD	FLAT:__unwindfunclet$??$_Insertion_sort1@PAUtagBaseCharDistanceSq@@VBaseCharDistanceSqSort2@@U1@@std@@YAXPAUtagBaseCharDistanceSq@@0VBaseCharDistanceSqSort2@@0@Z$0
__ehfuncinfo$??$_Insertion_sort1@PAUtagBaseCharDistanceSq@@VBaseCharDistanceSqSort2@@U1@@std@@YAXPAUtagBaseCharDistanceSq@@0VBaseCharDistanceSqSort2@@0@Z DD 019930522H
	DD	01H
	DD	FLAT:__unwindtable$??$_Insertion_sort1@PAUtagBaseCharDistanceSq@@VBaseCharDistanceSqSort2@@U1@@std@@YAXPAUtagBaseCharDistanceSq@@0VBaseCharDistanceSqSort2@@0@Z
	DD	2 DUP(00H)
	DD	2 DUP(00H)
	DD	00H
	DD	01H
; Function compile flags: /Ogsp
; File c:\program files (x86)\microsoft visual studio 10.0\vc\include\algorithm
xdata$x	ENDS
;	COMDAT ??$_Insertion_sort1@PAUtagBaseCharDistanceSq@@VBaseCharDistanceSqSort2@@U1@@std@@YAXPAUtagBaseCharDistanceSq@@0VBaseCharDistanceSqSort2@@0@Z
_TEXT	SEGMENT
__Cat$561624 = -52					; size = 1
__Next1$555216 = -52					; size = 4
__Val$555217 = -48					; size = 32
__$EHRec$ = -12						; size = 12
__First$ = 8						; size = 4
__Last$ = 12						; size = 4
__Pred$ = 16						; size = 1
___formal$ = 20						; size = 4
??$_Insertion_sort1@PAUtagBaseCharDistanceSq@@VBaseCharDistanceSqSort2@@U1@@std@@YAXPAUtagBaseCharDistanceSq@@0VBaseCharDistanceSqSort2@@0@Z PROC ; std::_Insertion_sort1<tagBaseCharDistanceSq *,BaseCharDistanceSqSort2,tagBaseCharDistanceSq>, COMDAT

; 3650 : 	{	// insertion sort [_First, _Last), using _Pred

  00000	6a 28		 push	 40			; 00000028H
  00002	b8 00 00 00 00	 mov	 eax, __ehhandler$??$_Insertion_sort1@PAUtagBaseCharDistanceSq@@VBaseCharDistanceSqSort2@@U1@@std@@YAXPAUtagBaseCharDistanceSq@@0VBaseCharDistanceSqSort2@@0@Z
  00007	e8 00 00 00 00	 call	 __EH_prolog3_GS
  0000c	8b 7d 08	 mov	 edi, DWORD PTR __First$[ebp]

; 3651 : 	if (_First != _Last)

  0000f	3b 7d 0c	 cmp	 edi, DWORD PTR __Last$[ebp]
  00012	74 5c		 je	 SHORT $LN6@Insertion_

; 3652 : 		for (_BidIt _Next = _First; ++_Next != _Last; )

  00014	8d 77 20	 lea	 esi, DWORD PTR [edi+32]
  00017	eb 52		 jmp	 SHORT $LN39@Insertion_
$LL7@Insertion_:

; 3653 : 			{	// order next element
; 3654 : 			_BidIt _Next1 = _Next;
; 3655 : 			_Ty _Val = _Move(*_Next);

  00019	56		 push	 esi
  0001a	8d 4d d0	 lea	 ecx, DWORD PTR __Val$555217[ebp]
  0001d	89 75 cc	 mov	 DWORD PTR __Next1$555216[ebp], esi
  00020	e8 00 00 00 00	 call	 ??0tagBaseCharDistanceSq@@QAE@ABU0@@Z

; 3656 : 
; 3657 : 			if (_DEBUG_LT_PRED(_Pred, _Val, *_First))

  00025	f3 0f 10 45 e0	 movss	 xmm0, DWORD PTR __Val$555217[ebp+16]
  0002a	f3 0f 10 4f 10	 movss	 xmm1, DWORD PTR [edi+16]
  0002f	83 65 fc 00	 and	 DWORD PTR __$EHRec$[ebp+8], 0
  00033	0f 5a c0	 cvtps2pd xmm0, xmm0
  00036	0f 5a c9	 cvtps2pd xmm1, xmm1
  00039	66 0f 2f c8	 comisd	 xmm1, xmm0
  0003d	76 37		 jbe	 SHORT $LN5@Insertion_

; 3658 : 				{	// found new earliest element, move to front
; 3659 : 				_Move_backward(_First, _Next, ++_Next1);

  0003f	ff 75 cc	 push	 DWORD PTR __Cat$561624[ebp]
  00042	8d 46 20	 lea	 eax, DWORD PTR [esi+32]
  00045	50		 push	 eax
  00046	56		 push	 esi
  00047	57		 push	 edi
  00048	e8 00 00 00 00	 call	 ??$_Move_backward@PAUtagBaseCharDistanceSq@@PAU1@@std@@YAPAUtagBaseCharDistanceSq@@PAU1@00U_Nonscalar_ptr_iterator_tag@0@@Z ; std::_Move_backward<tagBaseCharDistanceSq *,tagBaseCharDistanceSq *>
  0004d	83 c4 10	 add	 esp, 16			; 00000010H

; 3660 : 				*_First = _Move(_Val);

  00050	8b cf		 mov	 ecx, edi
$LN40@Insertion_:

; 3668 : 				*_Next1 = _Move(_Val);	// insert element in hole

  00052	8d 45 d0	 lea	 eax, DWORD PTR __Val$555217[ebp]
  00055	50		 push	 eax
  00056	e8 00 00 00 00	 call	 ??4tagBaseCharDistanceSq@@QAEAAU0@ABU0@@Z

; 3669 : 				}
; 3670 : 			}

  0005b	83 4d fc ff	 or	 DWORD PTR __$EHRec$[ebp+8], -1
  0005f	8d 4d d0	 lea	 ecx, DWORD PTR __Val$555217[ebp]
  00062	ff 15 00 00 00
	00		 call	 DWORD PTR __imp_??1ioHashString@@QAE@XZ
  00068	83 c6 20	 add	 esi, 32			; 00000020H
$LN39@Insertion_:

; 3652 : 		for (_BidIt _Next = _First; ++_Next != _Last; )

  0006b	3b 75 0c	 cmp	 esi, DWORD PTR __Last$[ebp]
  0006e	75 a9		 jne	 SHORT $LL7@Insertion_
$LN6@Insertion_:

; 3671 : 	}

  00070	e8 00 00 00 00	 call	 __EH_epilog3_GS
  00075	c3		 ret	 0
$LN5@Insertion_:

; 3661 : 				}
; 3662 : 			else
; 3663 : 				{	// look for insertion point after first
; 3664 : 				for (_BidIt _First1 = _Next1;

  00076	8b de		 mov	 ebx, esi
$LL3@Insertion_:

; 3665 : 					_DEBUG_LT_PRED(_Pred, _Val, *--_First1);
; 3666 : 					_Next1 = _First1)

  00078	f3 0f 10 45 e0	 movss	 xmm0, DWORD PTR __Val$555217[ebp+16]
  0007d	f3 0f 10 4b f0	 movss	 xmm1, DWORD PTR [ebx-16]

; 3667 : 					*_Next1 = _Move(*_First1);	// move hole down

  00082	8b 4d cc	 mov	 ecx, DWORD PTR __Next1$555216[ebp]
  00085	83 eb 20	 sub	 ebx, 32			; 00000020H
  00088	0f 5a c0	 cvtps2pd xmm0, xmm0
  0008b	0f 5a c9	 cvtps2pd xmm1, xmm1
  0008e	66 0f 2f c8	 comisd	 xmm1, xmm0
  00092	76 be		 jbe	 SHORT $LN40@Insertion_
  00094	53		 push	 ebx
  00095	e8 00 00 00 00	 call	 ??4tagBaseCharDistanceSq@@QAEAAU0@ABU0@@Z
  0009a	89 5d cc	 mov	 DWORD PTR __Next1$555216[ebp], ebx
  0009d	eb d9		 jmp	 SHORT $LL3@Insertion_
_TEXT	ENDS
;	COMDAT text$x
text$x	SEGMENT
__unwindfunclet$??$_Insertion_sort1@PAUtagBaseCharDistanceSq@@VBaseCharDistanceSqSort2@@U1@@std@@YAXPAUtagBaseCharDistanceSq@@0VBaseCharDistanceSqSort2@@0@Z$0:
  00000	8d 4d d0	 lea	 ecx, DWORD PTR __Val$555217[ebp]
  00003	e9 00 00 00 00	 jmp	 ??1tagBaseCharDistanceSq@@QAE@XZ
__ehhandler$??$_Insertion_sort1@PAUtagBaseCharDistanceSq@@VBaseCharDistanceSqSort2@@U1@@std@@YAXPAUtagBaseCharDistanceSq@@0VBaseCharDistanceSqSort2@@0@Z:
  00008	8b 54 24 08	 mov	 edx, DWORD PTR [esp+8]
  0000c	8d 42 0c	 lea	 eax, DWORD PTR [edx+12]
  0000f	8b 4a c8	 mov	 ecx, DWORD PTR [edx-56]
  00012	33 c8		 xor	 ecx, eax
  00014	e8 00 00 00 00	 call	 @__security_check_cookie@4
  00019	8b 4a fc	 mov	 ecx, DWORD PTR [edx-4]
  0001c	33 c8		 xor	 ecx, eax
  0001e	e8 00 00 00 00	 call	 @__security_check_cookie@4
  00023	b8 00 00 00 00	 mov	 eax, OFFSET __ehfuncinfo$??$_Insertion_sort1@PAUtagBaseCharDistanceSq@@VBaseCharDistanceSqSort2@@U1@@std@@YAXPAUtagBaseCharDistanceSq@@0VBaseCharDistanceSqSort2@@0@Z
  00028	e9 00 00 00 00	 jmp	 ___CxxFrameHandler3
text$x	ENDS
??$_Insertion_sort1@PAUtagBaseCharDistanceSq@@VBaseCharDistanceSqSort2@@U1@@std@@YAXPAUtagBaseCharDistanceSq@@0VBaseCharDistanceSqSort2@@0@Z ENDP ; std::_Insertion_sort1<tagBaseCharDistanceSq *,BaseCharDistanceSqSort2,tagBaseCharDistanceSq>
PUBLIC	??$_Pop_heap_0@PAUtagBaseCharDistanceSq@@U1@VBaseCharDistanceSqSort2@@@std@@YAXPAUtagBaseCharDistanceSq@@0VBaseCharDistanceSqSort2@@0@Z ; std::_Pop_heap_0<tagBaseCharDistanceSq *,tagBaseCharDistanceSq,BaseCharDistanceSqSort2>
;	COMDAT xdata$x
; File d:\lost saga for developer\youtube\tutorial\source\src\lsclient\iofireskill2.cpp
xdata$x	SEGMENT
__unwindtable$??$_Pop_heap_0@PAUtagBaseCharDistanceSq@@U1@VBaseCharDistanceSqSort2@@@std@@YAXPAUtagBaseCharDistanceSq@@0VBaseCharDistanceSqSort2@@0@Z DD 0ffffffffH
	DD	FLAT:__unwindfunclet$??$_Pop_heap_0@PAUtagBaseCharDistanceSq@@U1@VBaseCharDistanceSqSort2@@@std@@YAXPAUtagBaseCharDistanceSq@@0VBaseCharDistanceSqSort2@@0@Z$0
__ehfuncinfo$??$_Pop_heap_0@PAUtagBaseCharDistanceSq@@U1@VBaseCharDistanceSqSort2@@@std@@YAXPAUtagBaseCharDistanceSq@@0VBaseCharDistanceSqSort2@@0@Z DD 019930522H
	DD	01H
	DD	FLAT:__unwindtable$??$_Pop_heap_0@PAUtagBaseCharDistanceSq@@U1@VBaseCharDistanceSqSort2@@@std@@YAXPAUtagBaseCharDistanceSq@@0VBaseCharDistanceSqSort2@@0@Z
	DD	2 DUP(00H)
	DD	2 DUP(00H)
	DD	00H
	DD	01H
; Function compile flags: /Ogsp
; File c:\program files (x86)\microsoft visual studio 10.0\vc\include\algorithm
xdata$x	ENDS
;	COMDAT ??$_Pop_heap_0@PAUtagBaseCharDistanceSq@@U1@VBaseCharDistanceSqSort2@@@std@@YAXPAUtagBaseCharDistanceSq@@0VBaseCharDistanceSqSort2@@0@Z
_TEXT	SEGMENT
__Val$ = -48						; size = 32
__$EHRec$ = -12						; size = 12
__First$ = 8						; size = 4
__Last$ = 12						; size = 4
__Pred$ = 16						; size = 1
___formal$ = 20						; size = 4
??$_Pop_heap_0@PAUtagBaseCharDistanceSq@@U1@VBaseCharDistanceSqSort2@@@std@@YAXPAUtagBaseCharDistanceSq@@0VBaseCharDistanceSqSort2@@0@Z PROC ; std::_Pop_heap_0<tagBaseCharDistanceSq *,tagBaseCharDistanceSq,BaseCharDistanceSqSort2>, COMDAT

; 2601 : 	{	// pop *_First to *(_Last - 1) and reheap, using _Pred

  00000	6a 24		 push	 36			; 00000024H
  00002	b8 00 00 00 00	 mov	 eax, __ehhandler$??$_Pop_heap_0@PAUtagBaseCharDistanceSq@@U1@VBaseCharDistanceSqSort2@@@std@@YAXPAUtagBaseCharDistanceSq@@0VBaseCharDistanceSqSort2@@0@Z
  00007	e8 00 00 00 00	 call	 __EH_prolog3_GS
  0000c	8b 75 0c	 mov	 esi, DWORD PTR __Last$[ebp]
  0000f	8b 7d 08	 mov	 edi, DWORD PTR __First$[ebp]

; 2602 : 	_Ty _Val = _Move(*(_Last - 1));

  00012	83 c6 e0	 add	 esi, -32		; ffffffe0H
  00015	56		 push	 esi
  00016	8d 4d d0	 lea	 ecx, DWORD PTR __Val$[ebp]
  00019	e8 00 00 00 00	 call	 ??0tagBaseCharDistanceSq@@QAE@ABU0@@Z
  0001e	83 65 fc 00	 and	 DWORD PTR __$EHRec$[ebp+8], 0

; 2603 : 	_Pop_heap(_First, _Last - 1, _Last - 1,
; 2604 : 		_Move(_Val), _Pred, _Dist_type(_First));

  00022	6a 00		 push	 0
  00024	ff 75 10	 push	 DWORD PTR __Pred$[ebp]
  00027	8d 45 d0	 lea	 eax, DWORD PTR __Val$[ebp]
  0002a	50		 push	 eax
  0002b	56		 push	 esi
  0002c	56		 push	 esi
  0002d	57		 push	 edi
  0002e	e8 00 00 00 00	 call	 ??$_Pop_heap@PAUtagBaseCharDistanceSq@@HU1@VBaseCharDistanceSqSort2@@@std@@YAXPAUtagBaseCharDistanceSq@@00$$QAU1@VBaseCharDistanceSqSort2@@PAH@Z ; std::_Pop_heap<tagBaseCharDistanceSq *,int,tagBaseCharDistanceSq,BaseCharDistanceSqSort2>

; 2605 : 	}

  00033	83 4d fc ff	 or	 DWORD PTR __$EHRec$[ebp+8], -1
  00037	83 c4 18	 add	 esp, 24			; 00000018H
  0003a	8d 4d d0	 lea	 ecx, DWORD PTR __Val$[ebp]
  0003d	ff 15 00 00 00
	00		 call	 DWORD PTR __imp_??1ioHashString@@QAE@XZ
  00043	e8 00 00 00 00	 call	 __EH_epilog3_GS
  00048	c3		 ret	 0
_TEXT	ENDS
;	COMDAT text$x
text$x	SEGMENT
__unwindfunclet$??$_Pop_heap_0@PAUtagBaseCharDistanceSq@@U1@VBaseCharDistanceSqSort2@@@std@@YAXPAUtagBaseCharDistanceSq@@0VBaseCharDistanceSqSort2@@0@Z$0:
  00000	8d 4d d0	 lea	 ecx, DWORD PTR __Val$[ebp]
  00003	e9 00 00 00 00	 jmp	 ??1tagBaseCharDistanceSq@@QAE@XZ
__ehhandler$??$_Pop_heap_0@PAUtagBaseCharDistanceSq@@U1@VBaseCharDistanceSqSort2@@@std@@YAXPAUtagBaseCharDistanceSq@@0VBaseCharDistanceSqSort2@@0@Z:
  00008	8b 54 24 08	 mov	 edx, DWORD PTR [esp+8]
  0000c	8d 42 0c	 lea	 eax, DWORD PTR [edx+12]
  0000f	8b 4a cc	 mov	 ecx, DWORD PTR [edx-52]
  00012	33 c8		 xor	 ecx, eax
  00014	e8 00 00 00 00	 call	 @__security_check_cookie@4
  00019	8b 4a fc	 mov	 ecx, DWORD PTR [edx-4]
  0001c	33 c8		 xor	 ecx, eax
  0001e	e8 00 00 00 00	 call	 @__security_check_cookie@4
  00023	b8 00 00 00 00	 mov	 eax, OFFSET __ehfuncinfo$??$_Pop_heap_0@PAUtagBaseCharDistanceSq@@U1@VBaseCharDistanceSqSort2@@@std@@YAXPAUtagBaseCharDistanceSq@@0VBaseCharDistanceSqSort2@@0@Z
  00028	e9 00 00 00 00	 jmp	 ___CxxFrameHandler3
text$x	ENDS
??$_Pop_heap_0@PAUtagBaseCharDistanceSq@@U1@VBaseCharDistanceSqSort2@@@std@@YAXPAUtagBaseCharDistanceSq@@0VBaseCharDistanceSqSort2@@0@Z ENDP ; std::_Pop_heap_0<tagBaseCharDistanceSq *,tagBaseCharDistanceSq,BaseCharDistanceSqSort2>
PUBLIC	??1?$basic_string@DU?$char_traits@D@std@@V?$allocator@D@2@@std@@QAE@XZ ; std::basic_string<char,std::char_traits<char>,std::allocator<char> >::~basic_string<char,std::char_traits<char>,std::allocator<char> >
; Function compile flags: /Ogsp
; File c:\program files (x86)\microsoft visual studio 10.0\vc\include\xstring
;	COMDAT ??1?$basic_string@DU?$char_traits@D@std@@V?$allocator@D@2@@std@@QAE@XZ
_TEXT	SEGMENT
??1?$basic_string@DU?$char_traits@D@std@@V?$allocator@D@2@@std@@QAE@XZ PROC ; std::basic_string<char,std::char_traits<char>,std::allocator<char> >::~basic_string<char,std::char_traits<char>,std::allocator<char> >, COMDAT
; _this$ = ecx

; 754  : 		_Tidy(true);

  00000	6a 00		 push	 0
  00002	6a 01		 push	 1
  00004	e8 00 00 00 00	 call	 ?_Tidy@?$basic_string@DU?$char_traits@D@std@@V?$allocator@D@2@@std@@QAEX_NI@Z ; std::basic_string<char,std::char_traits<char>,std::allocator<char> >::_Tidy

; 755  : 		}

  00009	c3		 ret	 0
??1?$basic_string@DU?$char_traits@D@std@@V?$allocator@D@2@@std@@QAE@XZ ENDP ; std::basic_string<char,std::char_traits<char>,std::allocator<char> >::~basic_string<char,std::char_traits<char>,std::allocator<char> >
_TEXT	ENDS
PUBLIC	?_Grow@?$basic_string@DU?$char_traits@D@std@@V?$allocator@D@2@@std@@QAE_NI_N@Z ; std::basic_string<char,std::char_traits<char>,std::allocator<char> >::_Grow
; Function compile flags: /Ogsp
;	COMDAT ?_Grow@?$basic_string@DU?$char_traits@D@std@@V?$allocator@D@2@@std@@QAE_NI_N@Z
_TEXT	SEGMENT
__Newsize$ = 8						; size = 4
__Trim$ = 12						; size = 1
?_Grow@?$basic_string@DU?$char_traits@D@std@@V?$allocator@D@2@@std@@QAE_NI_N@Z PROC ; std::basic_string<char,std::char_traits<char>,std::allocator<char> >::_Grow, COMDAT
; _this$ = ecx

; 1959 : 		{	// ensure buffer is big enough, trim to size if _Trim is true

  00000	55		 push	 ebp
  00001	8b ec		 mov	 ebp, esp
  00003	56		 push	 esi

; 1960 : 		if (max_size() < _Newsize)

  00004	8b 75 08	 mov	 esi, DWORD PTR __Newsize$[ebp]
  00007	83 fe fe	 cmp	 esi, -2			; fffffffeH
  0000a	76 0b		 jbe	 SHORT $LN6@Grow

; 1961 : 			_Xlen();	// result too long

  0000c	68 00 00 00 00	 push	 OFFSET ??_C@_0BA@JFNIOLAK@string?5too?5long?$AA@
  00011	ff 15 00 00 00
	00		 call	 DWORD PTR __imp_?_Xlength_error@std@@YAXPBD@Z
$LN31@Grow:
$LN6@Grow:

; 1962 : 		if (this->_Myres < _Newsize)

  00017	8b 41 14	 mov	 eax, DWORD PTR [ecx+20]
  0001a	3b c6		 cmp	 eax, esi
  0001c	73 0b		 jae	 SHORT $LN5@Grow

; 1963 : 			_Copy(_Newsize, this->_Mysize);	// reallocate to grow

  0001e	ff 71 10	 push	 DWORD PTR [ecx+16]
  00021	56		 push	 esi
  00022	e8 00 00 00 00	 call	 ?_Copy@?$basic_string@DU?$char_traits@D@std@@V?$allocator@D@2@@std@@QAEXII@Z ; std::basic_string<char,std::char_traits<char>,std::allocator<char> >::_Copy
  00027	eb 2e		 jmp	 SHORT $LN28@Grow
$LN5@Grow:

; 1964 : 		else if (_Trim && _Newsize < this->_BUF_SIZE)

  00029	33 d2		 xor	 edx, edx
  0002b	38 55 0c	 cmp	 BYTE PTR __Trim$[ebp], dl
  0002e	74 17		 je	 SHORT $LN3@Grow
  00030	83 fe 10	 cmp	 esi, 16			; 00000010H
  00033	73 12		 jae	 SHORT $LN3@Grow

; 1965 : 			_Tidy(true,	// copy and deallocate if trimming to small string
; 1966 : 				_Newsize < this->_Mysize ? _Newsize : this->_Mysize);

  00035	8b 41 10	 mov	 eax, DWORD PTR [ecx+16]
  00038	3b f0		 cmp	 esi, eax
  0003a	0f 42 c6	 cmovb	 eax, esi
  0003d	50		 push	 eax
  0003e	6a 01		 push	 1
  00040	e8 00 00 00 00	 call	 ?_Tidy@?$basic_string@DU?$char_traits@D@std@@V?$allocator@D@2@@std@@QAEX_NI@Z ; std::basic_string<char,std::char_traits<char>,std::allocator<char> >::_Tidy
  00045	eb 10		 jmp	 SHORT $LN28@Grow
$LN3@Grow:

; 1967 : 		else if (_Newsize == 0)

  00047	3b f2		 cmp	 esi, edx
  00049	75 0c		 jne	 SHORT $LN28@Grow

; 1968 : 			_Eos(0);	// new size is zero, just null terminate

  0004b	89 51 10	 mov	 DWORD PTR [ecx+16], edx
  0004e	83 f8 10	 cmp	 eax, 16			; 00000010H
  00051	72 02		 jb	 SHORT $LN26@Grow
  00053	8b 09		 mov	 ecx, DWORD PTR [ecx]
$LN26@Grow:
  00055	88 11		 mov	 BYTE PTR [ecx], dl
$LN28@Grow:

; 1969 : 		return (0 < _Newsize);	// return true only if more work to do

  00057	33 c0		 xor	 eax, eax
  00059	3b c6		 cmp	 eax, esi
  0005b	1b c0		 sbb	 eax, eax
  0005d	f7 d8		 neg	 eax
  0005f	5e		 pop	 esi

; 1970 : 		}

  00060	5d		 pop	 ebp
  00061	c2 08 00	 ret	 8
$LN30@Grow:
?_Grow@?$basic_string@DU?$char_traits@D@std@@V?$allocator@D@2@@std@@QAE_NI_N@Z ENDP ; std::basic_string<char,std::char_traits<char>,std::allocator<char> >::_Grow
_TEXT	ENDS
PUBLIC	??1?$vector@PAVioBaseChar@@V?$allocator@PAVioBaseChar@@@std@@@std@@QAE@XZ ; std::vector<ioBaseChar *,std::allocator<ioBaseChar *> >::~vector<ioBaseChar *,std::allocator<ioBaseChar *> >
; Function compile flags: /Ogsp
; File c:\program files (x86)\microsoft visual studio 10.0\vc\include\vector
;	COMDAT ??1?$vector@PAVioBaseChar@@V?$allocator@PAVioBaseChar@@@std@@@std@@QAE@XZ
_TEXT	SEGMENT
??1?$vector@PAVioBaseChar@@V?$allocator@PAVioBaseChar@@@std@@@std@@QAE@XZ PROC ; std::vector<ioBaseChar *,std::allocator<ioBaseChar *> >::~vector<ioBaseChar *,std::allocator<ioBaseChar *> >, COMDAT
; _this$ = ecx

; 705  : 		_Tidy();

  00000	e9 00 00 00 00	 jmp	 ?_Tidy@?$vector@PAVioBaseChar@@V?$allocator@PAVioBaseChar@@@std@@@std@@IAEXXZ ; std::vector<ioBaseChar *,std::allocator<ioBaseChar *> >::_Tidy
??1?$vector@PAVioBaseChar@@V?$allocator@PAVioBaseChar@@@std@@@std@@QAE@XZ ENDP ; std::vector<ioBaseChar *,std::allocator<ioBaseChar *> >::~vector<ioBaseChar *,std::allocator<ioBaseChar *> >
_TEXT	ENDS
PUBLIC	?clear@?$vector@PAVioBaseChar@@V?$allocator@PAVioBaseChar@@@std@@@std@@QAEXXZ ; std::vector<ioBaseChar *,std::allocator<ioBaseChar *> >::clear
; Function compile flags: /Ogsp
;	COMDAT ?clear@?$vector@PAVioBaseChar@@V?$allocator@PAVioBaseChar@@@std@@@std@@QAEXXZ
_TEXT	SEGMENT
$T561753 = -4						; size = 4
?clear@?$vector@PAVioBaseChar@@V?$allocator@PAVioBaseChar@@@std@@@std@@QAEXXZ PROC ; std::vector<ioBaseChar *,std::allocator<ioBaseChar *> >::clear, COMDAT
; _this$ = ecx

; 1217 : 		{	// erase all

  00000	55		 push	 ebp
  00001	8b ec		 mov	 ebp, esp
  00003	51		 push	 ecx

; 1218 : 		erase(begin(), end());

  00004	8b 41 04	 mov	 eax, DWORD PTR [ecx+4]
  00007	8b 11		 mov	 edx, DWORD PTR [ecx]
  00009	50		 push	 eax
  0000a	52		 push	 edx
  0000b	8d 45 fc	 lea	 eax, DWORD PTR $T561753[ebp]
  0000e	50		 push	 eax
  0000f	e8 00 00 00 00	 call	 ?erase@?$vector@PAVioBaseChar@@V?$allocator@PAVioBaseChar@@@std@@@std@@QAE?AV?$_Vector_iterator@V?$_Vector_val@PAVioBaseChar@@V?$allocator@PAVioBaseChar@@@std@@@std@@@2@V?$_Vector_const_iterator@V?$_Vector_val@PAVioBaseChar@@V?$allocator@PAVioBaseChar@@@std@@@std@@@2@0@Z ; std::vector<ioBaseChar *,std::allocator<ioBaseChar *> >::erase

; 1219 : 		}

  00014	c9		 leave
  00015	c3		 ret	 0
?clear@?$vector@PAVioBaseChar@@V?$allocator@PAVioBaseChar@@@std@@@std@@QAEXXZ ENDP ; std::vector<ioBaseChar *,std::allocator<ioBaseChar *> >::clear
_TEXT	ENDS
PUBLIC	??1?$vector@PBUAniEventTime@@V?$allocator@PBUAniEventTime@@@std@@@std@@QAE@XZ ; std::vector<AniEventTime const *,std::allocator<AniEventTime const *> >::~vector<AniEventTime const *,std::allocator<AniEventTime const *> >
; Function compile flags: /Ogsp
;	COMDAT ??1?$vector@PBUAniEventTime@@V?$allocator@PBUAniEventTime@@@std@@@std@@QAE@XZ
_TEXT	SEGMENT
??1?$vector@PBUAniEventTime@@V?$allocator@PBUAniEventTime@@@std@@@std@@QAE@XZ PROC ; std::vector<AniEventTime const *,std::allocator<AniEventTime const *> >::~vector<AniEventTime const *,std::allocator<AniEventTime const *> >, COMDAT
; _this$ = ecx

; 705  : 		_Tidy();

  00000	e9 00 00 00 00	 jmp	 ?_Tidy@?$vector@PBUAniEventTime@@V?$allocator@PBUAniEventTime@@@std@@@std@@IAEXXZ ; std::vector<AniEventTime const *,std::allocator<AniEventTime const *> >::_Tidy
??1?$vector@PBUAniEventTime@@V?$allocator@PBUAniEventTime@@@std@@@std@@QAE@XZ ENDP ; std::vector<AniEventTime const *,std::allocator<AniEventTime const *> >::~vector<AniEventTime const *,std::allocator<AniEventTime const *> >
_TEXT	ENDS
PUBLIC	??$_Destroy_range@V?$allocator@UAniRotateInfo@@@std@@@std@@YAXPAUAniRotateInfo@@0AAV?$allocator@UAniRotateInfo@@@0@@Z ; std::_Destroy_range<std::allocator<AniRotateInfo> >
; Function compile flags: /Ogsp
; File c:\program files (x86)\microsoft visual studio 10.0\vc\include\xmemory
;	COMDAT ??$_Destroy_range@V?$allocator@UAniRotateInfo@@@std@@@std@@YAXPAUAniRotateInfo@@0AAV?$allocator@UAniRotateInfo@@@0@@Z
_TEXT	SEGMENT
__First$ = 8						; size = 4
__Last$ = 12						; size = 4
__Al$ = 16						; size = 4
??$_Destroy_range@V?$allocator@UAniRotateInfo@@@std@@@std@@YAXPAUAniRotateInfo@@0AAV?$allocator@UAniRotateInfo@@@0@@Z PROC ; std::_Destroy_range<std::allocator<AniRotateInfo> >, COMDAT

; 88   : 	_Destroy_range(_First, _Last, _Al, _Ptr_cat(_First, _Last));
; 89   : 	}

  00000	c3		 ret	 0
??$_Destroy_range@V?$allocator@UAniRotateInfo@@@std@@@std@@YAXPAUAniRotateInfo@@0AAV?$allocator@UAniRotateInfo@@@0@@Z ENDP ; std::_Destroy_range<std::allocator<AniRotateInfo> >
_TEXT	ENDS
PUBLIC	??$_Uninitialized_move@PAUAniRotateInfo@@PAU1@V?$allocator@UAniRotateInfo@@@std@@@std@@YAPAUAniRotateInfo@@PAU1@00AAV?$allocator@UAniRotateInfo@@@0@@Z ; std::_Uninitialized_move<AniRotateInfo *,AniRotateInfo *,std::allocator<AniRotateInfo> >
; Function compile flags: /Ogsp
; File c:\program files (x86)\microsoft visual studio 10.0\vc\include\memory
;	COMDAT ??$_Uninitialized_move@PAUAniRotateInfo@@PAU1@V?$allocator@UAniRotateInfo@@@std@@@std@@YAPAUAniRotateInfo@@PAU1@00AAV?$allocator@UAniRotateInfo@@@0@@Z
_TEXT	SEGMENT
__Cat$561855 = -4					; size = 1
__First$ = 8						; size = 4
__Last$ = 12						; size = 4
__Dest$ = 16						; size = 4
__Al$ = 20						; size = 4
??$_Uninitialized_move@PAUAniRotateInfo@@PAU1@V?$allocator@UAniRotateInfo@@@std@@@std@@YAPAUAniRotateInfo@@PAU1@00AAV?$allocator@UAniRotateInfo@@@0@@Z PROC ; std::_Uninitialized_move<AniRotateInfo *,AniRotateInfo *,std::allocator<AniRotateInfo> >, COMDAT

; 469  : 	{	// move [_First, _Last) to raw _Dest, using _Al

  00000	55		 push	 ebp
  00001	8b ec		 mov	 ebp, esp
  00003	51		 push	 ecx

; 470  : 	return (_Uninit_move(_First, _Last, _Dest, _Al,
; 471  : 		_Val_type(_First), _Ptr_cat(_First, _Dest)));

  00004	ff 75 fc	 push	 DWORD PTR __Cat$561855[ebp]
  00007	6a 00		 push	 0
  00009	ff 75 14	 push	 DWORD PTR __Al$[ebp]
  0000c	ff 75 10	 push	 DWORD PTR __Dest$[ebp]
  0000f	ff 75 0c	 push	 DWORD PTR __Last$[ebp]
  00012	ff 75 08	 push	 DWORD PTR __First$[ebp]
  00015	e8 00 00 00 00	 call	 ??$_Uninit_move@PAUAniRotateInfo@@PAU1@V?$allocator@UAniRotateInfo@@@std@@U1@@std@@YAPAUAniRotateInfo@@PAU1@00AAV?$allocator@UAniRotateInfo@@@0@0U_Nonscalar_ptr_iterator_tag@0@@Z ; std::_Uninit_move<AniRotateInfo *,AniRotateInfo *,std::allocator<AniRotateInfo>,AniRotateInfo>
  0001a	83 c4 18	 add	 esp, 24			; 00000018H

; 472  : 	}

  0001d	c9		 leave
  0001e	c3		 ret	 0
??$_Uninitialized_move@PAUAniRotateInfo@@PAU1@V?$allocator@UAniRotateInfo@@@std@@@std@@YAPAUAniRotateInfo@@PAU1@00AAV?$allocator@UAniRotateInfo@@@0@@Z ENDP ; std::_Uninitialized_move<AniRotateInfo *,AniRotateInfo *,std::allocator<AniRotateInfo> >
_TEXT	ENDS
PUBLIC	??$_Destroy_range@V?$allocator@UtagBaseCharDistanceSq@@@std@@@std@@YAXPAUtagBaseCharDistanceSq@@0AAV?$allocator@UtagBaseCharDistanceSq@@@0@U_Nonscalar_ptr_iterator_tag@0@@Z ; std::_Destroy_range<std::allocator<tagBaseCharDistanceSq> >
; Function compile flags: /Ogsp
; File c:\program files (x86)\microsoft visual studio 10.0\vc\include\xmemory
;	COMDAT ??$_Destroy_range@V?$allocator@UtagBaseCharDistanceSq@@@std@@@std@@YAXPAUtagBaseCharDistanceSq@@0AAV?$allocator@UtagBaseCharDistanceSq@@@0@U_Nonscalar_ptr_iterator_tag@0@@Z
_TEXT	SEGMENT
__First$ = 8						; size = 4
__Last$ = 12						; size = 4
__Al$ = 16						; size = 4
___formal$ = 20						; size = 1
??$_Destroy_range@V?$allocator@UtagBaseCharDistanceSq@@@std@@@std@@YAXPAUtagBaseCharDistanceSq@@0AAV?$allocator@UtagBaseCharDistanceSq@@@0@U_Nonscalar_ptr_iterator_tag@0@@Z PROC ; std::_Destroy_range<std::allocator<tagBaseCharDistanceSq> >, COMDAT

; 95   : 	{	// destroy [_First, _Last), arbitrary type

  00000	55		 push	 ebp
  00001	8b ec		 mov	 ebp, esp
  00003	56		 push	 esi

; 96   : 	for (; _First != _Last; ++_First)

  00004	8b 75 08	 mov	 esi, DWORD PTR __First$[ebp]
  00007	eb 0b		 jmp	 SHORT $LN20@Destroy_ra
$LL3@Destroy_ra:

; 97   : 		_Dest_val(_Al, _First);

  00009	8b ce		 mov	 ecx, esi
  0000b	ff 15 00 00 00
	00		 call	 DWORD PTR __imp_??1ioHashString@@QAE@XZ
  00011	83 c6 20	 add	 esi, 32			; 00000020H
$LN20@Destroy_ra:

; 96   : 	for (; _First != _Last; ++_First)

  00014	3b 75 0c	 cmp	 esi, DWORD PTR __Last$[ebp]
  00017	75 f0		 jne	 SHORT $LL3@Destroy_ra
  00019	5e		 pop	 esi

; 98   : 	}

  0001a	5d		 pop	 ebp
  0001b	c3		 ret	 0
??$_Destroy_range@V?$allocator@UtagBaseCharDistanceSq@@@std@@@std@@YAXPAUtagBaseCharDistanceSq@@0AAV?$allocator@UtagBaseCharDistanceSq@@@0@U_Nonscalar_ptr_iterator_tag@0@@Z ENDP ; std::_Destroy_range<std::allocator<tagBaseCharDistanceSq> >
_TEXT	ENDS
PUBLIC	??$_Unguarded_partition@PAUtagBaseCharDistanceSq@@VBaseCharDistanceSqSort2@@@std@@YA?AU?$pair@PAUtagBaseCharDistanceSq@@PAU1@@0@PAUtagBaseCharDistanceSq@@0VBaseCharDistanceSqSort2@@@Z ; std::_Unguarded_partition<tagBaseCharDistanceSq *,BaseCharDistanceSqSort2>
; Function compile flags: /Ogsp
; File c:\program files (x86)\microsoft visual studio 10.0\vc\include\algorithm
;	COMDAT ??$_Unguarded_partition@PAUtagBaseCharDistanceSq@@VBaseCharDistanceSqSort2@@@std@@YA?AU?$pair@PAUtagBaseCharDistanceSq@@PAU1@@0@PAUtagBaseCharDistanceSq@@0VBaseCharDistanceSqSort2@@@Z
_TEXT	SEGMENT
__Glast$ = -4						; size = 4
___$ReturnUdt$ = 8					; size = 4
__First$ = 12						; size = 4
__Last$ = 16						; size = 4
__Pred$ = 20						; size = 1
??$_Unguarded_partition@PAUtagBaseCharDistanceSq@@VBaseCharDistanceSqSort2@@@std@@YA?AU?$pair@PAUtagBaseCharDistanceSq@@PAU1@@0@PAUtagBaseCharDistanceSq@@0VBaseCharDistanceSqSort2@@@Z PROC ; std::_Unguarded_partition<tagBaseCharDistanceSq *,BaseCharDistanceSqSort2>, COMDAT

; 3712 : 	{	// partition [_First, _Last), using _Pred

  00000	55		 push	 ebp
  00001	8b ec		 mov	 ebp, esp
  00003	51		 push	 ecx

; 3713 : 	_RanIt _Mid = _First + (_Last - _First) / 2;

  00004	8b 4d 10	 mov	 ecx, DWORD PTR __Last$[ebp]
  00007	53		 push	 ebx
  00008	8b 5d 0c	 mov	 ebx, DWORD PTR __First$[ebp]
  0000b	8b c1		 mov	 eax, ecx
  0000d	2b c3		 sub	 eax, ebx
  0000f	56		 push	 esi
  00010	c1 f8 05	 sar	 eax, 5
  00013	99		 cdq
  00014	2b c2		 sub	 eax, edx
  00016	57		 push	 edi

; 3714 : 	_Median(_First, _Mid, _Last - 1, _Pred);

  00017	ff 75 14	 push	 DWORD PTR __Pred$[ebp]
  0001a	8b f0		 mov	 esi, eax
  0001c	d1 fe		 sar	 esi, 1
  0001e	83 c1 e0	 add	 ecx, -32		; ffffffe0H
  00021	c1 e6 05	 shl	 esi, 5
  00024	51		 push	 ecx
  00025	03 f3		 add	 esi, ebx
  00027	56		 push	 esi
  00028	53		 push	 ebx
  00029	e8 00 00 00 00	 call	 ??$_Median@PAUtagBaseCharDistanceSq@@VBaseCharDistanceSqSort2@@@std@@YAXPAUtagBaseCharDistanceSq@@00VBaseCharDistanceSqSort2@@@Z ; std::_Median<tagBaseCharDistanceSq *,BaseCharDistanceSqSort2>
  0002e	83 c4 10	 add	 esp, 16			; 00000010H

; 3715 : 	_RanIt _Pfirst = _Mid;
; 3716 : 	_RanIt _Plast = _Pfirst + 1;

  00031	8d 7e 20	 lea	 edi, DWORD PTR [esi+32]
  00034	eb 25		 jmp	 SHORT $LN100@Unguarded_
$LL27@Unguarded_:

; 3717 : 
; 3718 : 	while (_First < _Pfirst
; 3719 : 		&& !_DEBUG_LT_PRED(_Pred, *(_Pfirst - 1), *_Pfirst)
; 3720 : 		&& !_Pred(*_Pfirst, *(_Pfirst - 1)))

  00036	f3 0f 10 46 f0	 movss	 xmm0, DWORD PTR [esi-16]
  0003b	f3 0f 10 4e 10	 movss	 xmm1, DWORD PTR [esi+16]
  00040	0f 5a d0	 cvtps2pd xmm2, xmm0
  00043	0f 5a d9	 cvtps2pd xmm3, xmm1
  00046	66 0f 2f da	 comisd	 xmm3, xmm2
  0004a	77 13		 ja	 SHORT $LN94@Unguarded_
  0004c	0f 5a c9	 cvtps2pd xmm1, xmm1
  0004f	0f 5a c0	 cvtps2pd xmm0, xmm0
  00052	66 0f 2f c1	 comisd	 xmm0, xmm1
  00056	77 07		 ja	 SHORT $LN94@Unguarded_

; 3721 : 		--_Pfirst;

  00058	83 ee 20	 sub	 esi, 32			; 00000020H
$LN100@Unguarded_:

; 3717 : 
; 3718 : 	while (_First < _Pfirst
; 3719 : 		&& !_DEBUG_LT_PRED(_Pred, *(_Pfirst - 1), *_Pfirst)
; 3720 : 		&& !_Pred(*_Pfirst, *(_Pfirst - 1)))

  0005b	3b de		 cmp	 ebx, esi
  0005d	72 d7		 jb	 SHORT $LL27@Unguarded_
$LN94@Unguarded_:

; 3722 : 	while (_Plast < _Last
; 3723 : 		&& !_DEBUG_LT_PRED(_Pred, *_Plast, *_Pfirst)
; 3724 : 		&& !_Pred(*_Pfirst, *_Plast))

  0005f	3b 7d 10	 cmp	 edi, DWORD PTR __Last$[ebp]
  00062	73 32		 jae	 SHORT $LN96@Unguarded_
  00064	f3 0f 10 4e 10	 movss	 xmm1, DWORD PTR [esi+16]
$LL25@Unguarded_:
  00069	f3 0f 10 47 10	 movss	 xmm0, DWORD PTR [edi+16]
  0006e	0f 57 db	 xorps	 xmm3, xmm3
  00071	0f 5a d0	 cvtps2pd xmm2, xmm0
  00074	f3 0f 5a d9	 cvtss2sd xmm3, xmm1
  00078	66 0f 2f da	 comisd	 xmm3, xmm2
  0007c	77 18		 ja	 SHORT $LN96@Unguarded_
  0007e	0f 57 d2	 xorps	 xmm2, xmm2
  00081	f3 0f 5a d1	 cvtss2sd xmm2, xmm1
  00085	0f 5a c0	 cvtps2pd xmm0, xmm0
  00088	66 0f 2f c2	 comisd	 xmm0, xmm2
  0008c	77 08		 ja	 SHORT $LN96@Unguarded_

; 3725 : 		++_Plast;

  0008e	83 c7 20	 add	 edi, 32			; 00000020H
  00091	3b 7d 10	 cmp	 edi, DWORD PTR __Last$[ebp]
  00094	72 d3		 jb	 SHORT $LL25@Unguarded_
$LN96@Unguarded_:

; 3726 : 
; 3727 : 	_RanIt _Gfirst = _Plast;

  00096	8b df		 mov	 ebx, edi

; 3728 : 	_RanIt _Glast = _Pfirst;

  00098	89 75 fc	 mov	 DWORD PTR __Glast$[ebp], esi

; 3729 : 
; 3730 : 	for (; ; )
; 3731 : 		{	// partition
; 3732 : 		for (; _Gfirst < _Last; ++_Gfirst)

  0009b	eb 33		 jmp	 SHORT $LN102@Unguarded_
$LL21@Unguarded_:

; 3733 : 			if (_DEBUG_LT_PRED(_Pred, *_Pfirst, *_Gfirst))

  0009d	f3 0f 10 46 10	 movss	 xmm0, DWORD PTR [esi+16]
  000a2	f3 0f 10 4b 10	 movss	 xmm1, DWORD PTR [ebx+16]
  000a7	0f 5a d0	 cvtps2pd xmm2, xmm0
  000aa	0f 5a d9	 cvtps2pd xmm3, xmm1
  000ad	66 0f 2f da	 comisd	 xmm3, xmm2
  000b1	77 1a		 ja	 SHORT $LN20@Unguarded_

; 3734 : 				;
; 3735 : 			else if (_Pred(*_Gfirst, *_Pfirst))

  000b3	0f 5a c9	 cvtps2pd xmm1, xmm1
  000b6	0f 5a c0	 cvtps2pd xmm0, xmm0
  000b9	66 0f 2f c1	 comisd	 xmm0, xmm1
  000bd	77 52		 ja	 SHORT $LN97@Unguarded_

; 3736 : 				break;
; 3737 : 			else
; 3738 : 				_STD iter_swap(_Plast++, _Gfirst);

  000bf	8b c7		 mov	 eax, edi
  000c1	53		 push	 ebx
  000c2	83 c7 20	 add	 edi, 32			; 00000020H
  000c5	50		 push	 eax
$LN104@Unguarded_:
  000c6	e8 00 00 00 00	 call	 ??$swap@UtagBaseCharDistanceSq@@@std@@YAXAAUtagBaseCharDistanceSq@@0@Z ; std::swap<tagBaseCharDistanceSq>
  000cb	59		 pop	 ecx
  000cc	59		 pop	 ecx
$LN20@Unguarded_:

; 3729 : 
; 3730 : 	for (; ; )
; 3731 : 		{	// partition
; 3732 : 		for (; _Gfirst < _Last; ++_Gfirst)

  000cd	83 c3 20	 add	 ebx, 32			; 00000020H
$LN102@Unguarded_:
  000d0	3b 5d 10	 cmp	 ebx, DWORD PTR __Last$[ebp]
  000d3	72 c8		 jb	 SHORT $LL21@Unguarded_

; 3739 : 		for (; _First < _Glast; --_Glast)

  000d5	eb 3a		 jmp	 SHORT $LN97@Unguarded_
$LL99@Unguarded_:

; 3740 : 			if (_DEBUG_LT_PRED(_Pred, *(_Glast - 1), *_Pfirst))

  000d7	8b 4d fc	 mov	 ecx, DWORD PTR __Glast$[ebp]
  000da	f3 0f 10 41 f0	 movss	 xmm0, DWORD PTR [ecx-16]
  000df	f3 0f 10 4e 10	 movss	 xmm1, DWORD PTR [esi+16]
  000e4	0f 5a d0	 cvtps2pd xmm2, xmm0
  000e7	0f 5a d9	 cvtps2pd xmm3, xmm1
  000ea	66 0f 2f da	 comisd	 xmm3, xmm2
  000ee	77 1d		 ja	 SHORT $LN13@Unguarded_

; 3741 : 				;
; 3742 : 			else if (_Pred(*_Pfirst, *(_Glast - 1)))

  000f0	0f 5a c9	 cvtps2pd xmm1, xmm1
  000f3	0f 5a c0	 cvtps2pd xmm0, xmm0
  000f6	66 0f 2f c1	 comisd	 xmm0, xmm1
  000fa	77 1d		 ja	 SHORT $LN98@Unguarded_

; 3739 : 		for (; _First < _Glast; --_Glast)

  000fc	8b c1		 mov	 eax, ecx
  000fe	83 c0 e0	 add	 eax, -32		; ffffffe0H

; 3743 : 				break;
; 3744 : 			else
; 3745 : 				_STD iter_swap(--_Pfirst, _Glast - 1);

  00101	83 ee 20	 sub	 esi, 32			; 00000020H
  00104	50		 push	 eax
  00105	56		 push	 esi
  00106	e8 00 00 00 00	 call	 ??$swap@UtagBaseCharDistanceSq@@@std@@YAXAAUtagBaseCharDistanceSq@@0@Z ; std::swap<tagBaseCharDistanceSq>
  0010b	59		 pop	 ecx
  0010c	59		 pop	 ecx
$LN13@Unguarded_:

; 3739 : 		for (; _First < _Glast; --_Glast)

  0010d	83 6d fc 20	 sub	 DWORD PTR __Glast$[ebp], 32 ; 00000020H
$LN97@Unguarded_:
  00111	8b 45 0c	 mov	 eax, DWORD PTR __First$[ebp]
  00114	3b 45 fc	 cmp	 eax, DWORD PTR __Glast$[ebp]
  00117	72 be		 jb	 SHORT $LL99@Unguarded_
$LN98@Unguarded_:

; 3746 : 		if (_Glast == _First && _Gfirst == _Last)

  00119	39 45 fc	 cmp	 DWORD PTR __Glast$[ebp], eax
  0011c	75 1f		 jne	 SHORT $LN6@Unguarded_
  0011e	3b 5d 10	 cmp	 ebx, DWORD PTR __Last$[ebp]
  00121	74 50		 je	 SHORT $LN88@Unguarded_

; 3748 : 
; 3749 : 		if (_Glast == _First)
; 3750 : 			{	// no room at bottom, rotate pivot upward
; 3751 : 			if (_Plast != _Gfirst)

  00123	3b fb		 cmp	 edi, ebx
  00125	74 09		 je	 SHORT $LN70@Unguarded_

; 3752 : 				_STD iter_swap(_Pfirst, _Plast);

  00127	57		 push	 edi
  00128	56		 push	 esi
  00129	e8 00 00 00 00	 call	 ??$swap@UtagBaseCharDistanceSq@@@std@@YAXAAUtagBaseCharDistanceSq@@0@Z ; std::swap<tagBaseCharDistanceSq>
  0012e	59		 pop	 ecx
  0012f	59		 pop	 ecx
$LN70@Unguarded_:

; 3753 : 			++_Plast;
; 3754 : 			_STD iter_swap(_Pfirst++, _Gfirst++);

  00130	53		 push	 ebx
  00131	56		 push	 esi
  00132	83 c7 20	 add	 edi, 32			; 00000020H
  00135	83 c6 20	 add	 esi, 32			; 00000020H
  00138	83 c3 20	 add	 ebx, 32			; 00000020H
  0013b	eb 21		 jmp	 SHORT $LN101@Unguarded_
$LN6@Unguarded_:

; 3755 : 			}
; 3756 : 		else if (_Gfirst == _Last)
; 3757 : 			{	// no room at top, rotate pivot downward
; 3758 : 			if (--_Glast != --_Pfirst)

  0013d	83 6d fc 20	 sub	 DWORD PTR __Glast$[ebp], 32 ; 00000020H
  00141	3b 5d 10	 cmp	 ebx, DWORD PTR __Last$[ebp]
  00144	75 24		 jne	 SHORT $LN3@Unguarded_
  00146	83 ee 20	 sub	 esi, 32			; 00000020H
  00149	39 75 fc	 cmp	 DWORD PTR __Glast$[ebp], esi
  0014c	74 0b		 je	 SHORT $LN74@Unguarded_

; 3759 : 				_STD iter_swap(_Glast, _Pfirst);

  0014e	56		 push	 esi
  0014f	ff 75 fc	 push	 DWORD PTR __Glast$[ebp]
  00152	e8 00 00 00 00	 call	 ??$swap@UtagBaseCharDistanceSq@@@std@@YAXAAUtagBaseCharDistanceSq@@0@Z ; std::swap<tagBaseCharDistanceSq>
  00157	59		 pop	 ecx
  00158	59		 pop	 ecx
$LN74@Unguarded_:

; 3760 : 			_STD iter_swap(_Pfirst, --_Plast);

  00159	83 ef 20	 sub	 edi, 32			; 00000020H
  0015c	57		 push	 edi
  0015d	56		 push	 esi
$LN101@Unguarded_:
  0015e	e8 00 00 00 00	 call	 ??$swap@UtagBaseCharDistanceSq@@@std@@YAXAAUtagBaseCharDistanceSq@@0@Z ; std::swap<tagBaseCharDistanceSq>
  00163	59		 pop	 ecx
  00164	59		 pop	 ecx

; 3761 : 			}
; 3762 : 		else

  00165	e9 66 ff ff ff	 jmp	 $LN102@Unguarded_
$LN3@Unguarded_:

; 3763 : 			_STD iter_swap(_Gfirst++, --_Glast);

  0016a	ff 75 fc	 push	 DWORD PTR __Glast$[ebp]
  0016d	53		 push	 ebx

; 3764 : 		}

  0016e	e9 53 ff ff ff	 jmp	 $LN104@Unguarded_
$LN88@Unguarded_:

; 3747 : 			return (_STD pair<_RanIt, _RanIt>(_Pfirst, _Plast));

  00173	8b 45 08	 mov	 eax, DWORD PTR ___$ReturnUdt$[ebp]
  00176	89 78 04	 mov	 DWORD PTR [eax+4], edi
  00179	5f		 pop	 edi
  0017a	89 30		 mov	 DWORD PTR [eax], esi
  0017c	5e		 pop	 esi
  0017d	5b		 pop	 ebx

; 3765 : 	}

  0017e	c9		 leave
  0017f	c3		 ret	 0
??$_Unguarded_partition@PAUtagBaseCharDistanceSq@@VBaseCharDistanceSqSort2@@@std@@YA?AU?$pair@PAUtagBaseCharDistanceSq@@PAU1@@0@PAUtagBaseCharDistanceSq@@0VBaseCharDistanceSqSort2@@@Z ENDP ; std::_Unguarded_partition<tagBaseCharDistanceSq *,BaseCharDistanceSqSort2>
_TEXT	ENDS
PUBLIC	??$make_heap@PAUtagBaseCharDistanceSq@@VBaseCharDistanceSqSort2@@@std@@YAXPAUtagBaseCharDistanceSq@@0VBaseCharDistanceSqSort2@@@Z ; std::make_heap<tagBaseCharDistanceSq *,BaseCharDistanceSqSort2>
; Function compile flags: /Ogsp
;	COMDAT ??$make_heap@PAUtagBaseCharDistanceSq@@VBaseCharDistanceSqSort2@@@std@@YAXPAUtagBaseCharDistanceSq@@0VBaseCharDistanceSqSort2@@@Z
_TEXT	SEGMENT
__First$ = 8						; size = 4
__Last$ = 12						; size = 4
__Pred$ = 16						; size = 1
??$make_heap@PAUtagBaseCharDistanceSq@@VBaseCharDistanceSqSort2@@@std@@YAXPAUtagBaseCharDistanceSq@@0VBaseCharDistanceSqSort2@@@Z PROC ; std::make_heap<tagBaseCharDistanceSq *,BaseCharDistanceSqSort2>, COMDAT

; 2672 : 	{	// make [_First, _Last) into a heap, using _Pred

  00000	55		 push	 ebp
  00001	8b ec		 mov	 ebp, esp

; 2673 : 	_DEBUG_RANGE(_First, _Last);
; 2674 : 	_DEBUG_POINTER(_Pred);
; 2675 : 	if (1 < _Last - _First)

  00003	8b 45 0c	 mov	 eax, DWORD PTR __Last$[ebp]
  00006	2b 45 08	 sub	 eax, DWORD PTR __First$[ebp]
  00009	83 e0 e0	 and	 eax, -32		; ffffffe0H
  0000c	83 f8 20	 cmp	 eax, 32			; 00000020H
  0000f	7e 15		 jle	 SHORT $LN1@make_heap

; 2676 : 		_Make_heap(_Unchecked(_First), _Unchecked(_Last), _Pred,
; 2677 : 			_Dist_type(_First), _Val_type(_First));

  00011	6a 00		 push	 0
  00013	6a 00		 push	 0
  00015	ff 75 10	 push	 DWORD PTR __Pred$[ebp]
  00018	ff 75 0c	 push	 DWORD PTR __Last$[ebp]
  0001b	ff 75 08	 push	 DWORD PTR __First$[ebp]
  0001e	e8 00 00 00 00	 call	 ??$_Make_heap@PAUtagBaseCharDistanceSq@@HU1@VBaseCharDistanceSqSort2@@@std@@YAXPAUtagBaseCharDistanceSq@@0VBaseCharDistanceSqSort2@@PAH0@Z ; std::_Make_heap<tagBaseCharDistanceSq *,int,tagBaseCharDistanceSq,BaseCharDistanceSqSort2>
  00023	83 c4 14	 add	 esp, 20			; 00000014H
$LN1@make_heap:

; 2678 : 	}

  00026	5d		 pop	 ebp
  00027	c3		 ret	 0
??$make_heap@PAUtagBaseCharDistanceSq@@VBaseCharDistanceSqSort2@@@std@@YAXPAUtagBaseCharDistanceSq@@0VBaseCharDistanceSqSort2@@@Z ENDP ; std::make_heap<tagBaseCharDistanceSq *,BaseCharDistanceSqSort2>
_TEXT	ENDS
PUBLIC	??$_Insertion_sort@PAUtagBaseCharDistanceSq@@VBaseCharDistanceSqSort2@@@std@@YAXPAUtagBaseCharDistanceSq@@0VBaseCharDistanceSqSort2@@@Z ; std::_Insertion_sort<tagBaseCharDistanceSq *,BaseCharDistanceSqSort2>
; Function compile flags: /Ogsp
;	COMDAT ??$_Insertion_sort@PAUtagBaseCharDistanceSq@@VBaseCharDistanceSqSort2@@@std@@YAXPAUtagBaseCharDistanceSq@@0VBaseCharDistanceSqSort2@@@Z
_TEXT	SEGMENT
__First$ = 8						; size = 4
__Last$ = 12						; size = 4
__Pred$ = 16						; size = 1
??$_Insertion_sort@PAUtagBaseCharDistanceSq@@VBaseCharDistanceSqSort2@@@std@@YAXPAUtagBaseCharDistanceSq@@0VBaseCharDistanceSqSort2@@@Z PROC ; std::_Insertion_sort<tagBaseCharDistanceSq *,BaseCharDistanceSqSort2>, COMDAT

; 3676 : 	{	// insertion sort [_First, _Last), using _Pred

  00000	55		 push	 ebp
  00001	8b ec		 mov	 ebp, esp

; 3677 : 	_Insertion_sort1(_First, _Last, _Pred, _Val_type(_First));

  00003	6a 00		 push	 0
  00005	ff 75 10	 push	 DWORD PTR __Pred$[ebp]
  00008	ff 75 0c	 push	 DWORD PTR __Last$[ebp]
  0000b	ff 75 08	 push	 DWORD PTR __First$[ebp]
  0000e	e8 00 00 00 00	 call	 ??$_Insertion_sort1@PAUtagBaseCharDistanceSq@@VBaseCharDistanceSqSort2@@U1@@std@@YAXPAUtagBaseCharDistanceSq@@0VBaseCharDistanceSqSort2@@0@Z ; std::_Insertion_sort1<tagBaseCharDistanceSq *,BaseCharDistanceSqSort2,tagBaseCharDistanceSq>
  00013	83 c4 10	 add	 esp, 16			; 00000010H

; 3678 : 	}

  00016	5d		 pop	 ebp
  00017	c3		 ret	 0
??$_Insertion_sort@PAUtagBaseCharDistanceSq@@VBaseCharDistanceSqSort2@@@std@@YAXPAUtagBaseCharDistanceSq@@0VBaseCharDistanceSqSort2@@@Z ENDP ; std::_Insertion_sort<tagBaseCharDistanceSq *,BaseCharDistanceSqSort2>
_TEXT	ENDS
PUBLIC	??$_Uninit_move@PAUtagBaseCharDistanceSq@@PAU1@V?$allocator@UtagBaseCharDistanceSq@@@std@@U1@@std@@YAPAUtagBaseCharDistanceSq@@PAU1@00AAV?$allocator@UtagBaseCharDistanceSq@@@0@0U_Nonscalar_ptr_iterator_tag@0@@Z ; std::_Uninit_move<tagBaseCharDistanceSq *,tagBaseCharDistanceSq *,std::allocator<tagBaseCharDistanceSq>,tagBaseCharDistanceSq>
;	COMDAT xdata$x
; File d:\lost saga for developer\youtube\tutorial\source\src\lsclient\iofireskill2.cpp
xdata$x	SEGMENT
__catchsym$??$_Uninit_move@PAUtagBaseCharDistanceSq@@PAU1@V?$allocator@UtagBaseCharDistanceSq@@@std@@U1@@std@@YAPAUtagBaseCharDistanceSq@@PAU1@00AAV?$allocator@UtagBaseCharDistanceSq@@@0@0U_Nonscalar_ptr_iterator_tag@0@@Z$3 DD 040H
	DD	00H
	DD	00H
	DD	FLAT:__catch$??$_Uninit_move@PAUtagBaseCharDistanceSq@@PAU1@V?$allocator@UtagBaseCharDistanceSq@@@std@@U1@@std@@YAPAUtagBaseCharDistanceSq@@PAU1@00AAV?$allocator@UtagBaseCharDistanceSq@@@0@0U_Nonscalar_ptr_iterator_tag@0@@Z$0
__unwindtable$??$_Uninit_move@PAUtagBaseCharDistanceSq@@PAU1@V?$allocator@UtagBaseCharDistanceSq@@@std@@U1@@std@@YAPAUtagBaseCharDistanceSq@@PAU1@00AAV?$allocator@UtagBaseCharDistanceSq@@@0@0U_Nonscalar_ptr_iterator_tag@0@@Z DD 0ffffffffH
	DD	00H
	DD	0ffffffffH
	DD	00H
__tryblocktable$??$_Uninit_move@PAUtagBaseCharDistanceSq@@PAU1@V?$allocator@UtagBaseCharDistanceSq@@@std@@U1@@std@@YAPAUtagBaseCharDistanceSq@@PAU1@00AAV?$allocator@UtagBaseCharDistanceSq@@@0@0U_Nonscalar_ptr_iterator_tag@0@@Z DD 00H
	DD	00H
	DD	01H
	DD	01H
	DD	FLAT:__catchsym$??$_Uninit_move@PAUtagBaseCharDistanceSq@@PAU1@V?$allocator@UtagBaseCharDistanceSq@@@std@@U1@@std@@YAPAUtagBaseCharDistanceSq@@PAU1@00AAV?$allocator@UtagBaseCharDistanceSq@@@0@0U_Nonscalar_ptr_iterator_tag@0@@Z$3
__ehfuncinfo$??$_Uninit_move@PAUtagBaseCharDistanceSq@@PAU1@V?$allocator@UtagBaseCharDistanceSq@@@std@@U1@@std@@YAPAUtagBaseCharDistanceSq@@PAU1@00AAV?$allocator@UtagBaseCharDistanceSq@@@0@0U_Nonscalar_ptr_iterator_tag@0@@Z DD 019930522H
	DD	02H
	DD	FLAT:__unwindtable$??$_Uninit_move@PAUtagBaseCharDistanceSq@@PAU1@V?$allocator@UtagBaseCharDistanceSq@@@std@@U1@@std@@YAPAUtagBaseCharDistanceSq@@PAU1@00AAV?$allocator@UtagBaseCharDistanceSq@@@0@0U_Nonscalar_ptr_iterator_tag@0@@Z
	DD	01H
	DD	FLAT:__tryblocktable$??$_Uninit_move@PAUtagBaseCharDistanceSq@@PAU1@V?$allocator@UtagBaseCharDistanceSq@@@std@@U1@@std@@YAPAUtagBaseCharDistanceSq@@PAU1@00AAV?$allocator@UtagBaseCharDistanceSq@@@0@0U_Nonscalar_ptr_iterator_tag@0@@Z
	DD	2 DUP(00H)
	DD	00H
	DD	01H
; Function compile flags: /Ogsp
; File c:\program files (x86)\microsoft visual studio 10.0\vc\include\memory
xdata$x	ENDS
;	COMDAT ??$_Uninit_move@PAUtagBaseCharDistanceSq@@PAU1@V?$allocator@UtagBaseCharDistanceSq@@@std@@U1@@std@@YAPAUtagBaseCharDistanceSq@@PAU1@00AAV?$allocator@UtagBaseCharDistanceSq@@@0@0U_Nonscalar_ptr_iterator_tag@0@@Z
_TEXT	SEGMENT
__Next$ = -20						; size = 4
__$EHRec$ = -16						; size = 16
__First$ = 8						; size = 4
__Last$ = 12						; size = 4
__Dest$ = 16						; size = 4
__Al$ = 20						; size = 4
___formal$ = 24						; size = 4
___formal$ = 28						; size = 1
??$_Uninit_move@PAUtagBaseCharDistanceSq@@PAU1@V?$allocator@UtagBaseCharDistanceSq@@@std@@U1@@std@@YAPAUtagBaseCharDistanceSq@@PAU1@00AAV?$allocator@UtagBaseCharDistanceSq@@@0@0U_Nonscalar_ptr_iterator_tag@0@@Z PROC ; std::_Uninit_move<tagBaseCharDistanceSq *,tagBaseCharDistanceSq *,std::allocator<tagBaseCharDistanceSq>,tagBaseCharDistanceSq>, COMDAT

; 424  : 	{	// move [_First, _Last) to raw _Dest, using _Al, arbitrary type

  00000	6a 08		 push	 8
  00002	b8 00 00 00 00	 mov	 eax, __ehhandler$??$_Uninit_move@PAUtagBaseCharDistanceSq@@PAU1@V?$allocator@UtagBaseCharDistanceSq@@@std@@U1@@std@@YAPAUtagBaseCharDistanceSq@@PAU1@00AAV?$allocator@UtagBaseCharDistanceSq@@@0@0U_Nonscalar_ptr_iterator_tag@0@@Z
  00007	e8 00 00 00 00	 call	 __EH_prolog3_catch

; 425  : 	_DEBUG_RANGE(_First, _Last);
; 426  : 	_DEBUG_POINTER(_Dest);
; 427  : 	_FwdIt _Next = _Dest;

  0000c	8b 45 10	 mov	 eax, DWORD PTR __Dest$[ebp]

; 428  : 
; 429  : 	_TRY_BEGIN

  0000f	83 65 fc 00	 and	 DWORD PTR __$EHRec$[ebp+12], 0
  00013	8b 75 08	 mov	 esi, DWORD PTR __First$[ebp]
  00016	89 45 ec	 mov	 DWORD PTR __Next$[ebp], eax
$LL6@Uninit_mov@2:

; 430  : 	for (; _First != _Last; ++_Dest, ++_First)

  00019	3b 75 0c	 cmp	 esi, DWORD PTR __Last$[ebp]
  0001c	74 36		 je	 SHORT $LN4@Uninit_mov@2

; 431  : 		_Cons_val(_Al, _Dest, (_Valty &&)*_First);

  0001e	56		 push	 esi
  0001f	ff 75 10	 push	 DWORD PTR __Dest$[ebp]
  00022	ff 75 14	 push	 DWORD PTR __Al$[ebp]
  00025	e8 00 00 00 00	 call	 ??$_Cons_val@V?$allocator@UtagBaseCharDistanceSq@@@std@@UtagBaseCharDistanceSq@@U3@@std@@YAXAAV?$allocator@UtagBaseCharDistanceSq@@@0@PAUtagBaseCharDistanceSq@@$$QAU2@@Z ; std::_Cons_val<std::allocator<tagBaseCharDistanceSq>,tagBaseCharDistanceSq,tagBaseCharDistanceSq>
  0002a	83 45 10 20	 add	 DWORD PTR __Dest$[ebp], 32 ; 00000020H
  0002e	83 c4 0c	 add	 esp, 12			; 0000000cH
  00031	83 c6 20	 add	 esi, 32			; 00000020H
  00034	eb e3		 jmp	 SHORT $LL6@Uninit_mov@2
__catch$??$_Uninit_move@PAUtagBaseCharDistanceSq@@PAU1@V?$allocator@UtagBaseCharDistanceSq@@@std@@U1@@std@@YAPAUtagBaseCharDistanceSq@@PAU1@00AAV?$allocator@UtagBaseCharDistanceSq@@@0@0U_Nonscalar_ptr_iterator_tag@0@@Z$0:

; 432  : 	_CATCH_ALL
; 433  : 	for (; _Next != _Dest; ++_Next)

  00036	8b 75 ec	 mov	 esi, DWORD PTR __Next$[ebp]
  00039	eb 0b		 jmp	 SHORT $LN32@Uninit_mov@2
$LL3@Uninit_mov@2:

; 434  : 		_Dest_val(_Al, _Next);

  0003b	8b ce		 mov	 ecx, esi
  0003d	ff 15 00 00 00
	00		 call	 DWORD PTR __imp_??1ioHashString@@QAE@XZ
  00043	83 c6 20	 add	 esi, 32			; 00000020H
$LN32@Uninit_mov@2:

; 432  : 	_CATCH_ALL
; 433  : 	for (; _Next != _Dest; ++_Next)

  00046	3b 75 10	 cmp	 esi, DWORD PTR __Dest$[ebp]
  00049	75 f0		 jne	 SHORT $LL3@Uninit_mov@2

; 435  : 	_RERAISE;

  0004b	6a 00		 push	 0
  0004d	6a 00		 push	 0
  0004f	e8 00 00 00 00	 call	 __CxxThrowException@8
$LN33@Uninit_mov@2:
$LN4@Uninit_mov@2:

; 436  : 	_CATCH_END
; 437  : 	return (_Dest);

  00054	8b 45 10	 mov	 eax, DWORD PTR __Dest$[ebp]

; 438  : 	}

  00057	e8 00 00 00 00	 call	 __EH_epilog3
  0005c	c3		 ret	 0
$LN31@Uninit_mov@2:
_TEXT	ENDS
;	COMDAT text$x
text$x	SEGMENT
__ehhandler$??$_Uninit_move@PAUtagBaseCharDistanceSq@@PAU1@V?$allocator@UtagBaseCharDistanceSq@@@std@@U1@@std@@YAPAUtagBaseCharDistanceSq@@PAU1@00AAV?$allocator@UtagBaseCharDistanceSq@@@0@0U_Nonscalar_ptr_iterator_tag@0@@Z:
  00000	8b 54 24 08	 mov	 edx, DWORD PTR [esp+8]
  00004	8d 42 0c	 lea	 eax, DWORD PTR [edx+12]
  00007	8b 4a e8	 mov	 ecx, DWORD PTR [edx-24]
  0000a	33 c8		 xor	 ecx, eax
  0000c	e8 00 00 00 00	 call	 @__security_check_cookie@4
  00011	b8 00 00 00 00	 mov	 eax, OFFSET __ehfuncinfo$??$_Uninit_move@PAUtagBaseCharDistanceSq@@PAU1@V?$allocator@UtagBaseCharDistanceSq@@@std@@U1@@std@@YAPAUtagBaseCharDistanceSq@@PAU1@00AAV?$allocator@UtagBaseCharDistanceSq@@@0@0U_Nonscalar_ptr_iterator_tag@0@@Z
  00016	e9 00 00 00 00	 jmp	 ___CxxFrameHandler3
text$x	ENDS
??$_Uninit_move@PAUtagBaseCharDistanceSq@@PAU1@V?$allocator@UtagBaseCharDistanceSq@@@std@@U1@@std@@YAPAUtagBaseCharDistanceSq@@PAU1@00AAV?$allocator@UtagBaseCharDistanceSq@@@0@0U_Nonscalar_ptr_iterator_tag@0@@Z ENDP ; std::_Uninit_move<tagBaseCharDistanceSq *,tagBaseCharDistanceSq *,std::allocator<tagBaseCharDistanceSq>,tagBaseCharDistanceSq>
PUBLIC	??$_Pop_heap@PAUtagBaseCharDistanceSq@@VBaseCharDistanceSqSort2@@@std@@YAXPAUtagBaseCharDistanceSq@@0VBaseCharDistanceSqSort2@@@Z ; std::_Pop_heap<tagBaseCharDistanceSq *,BaseCharDistanceSqSort2>
; Function compile flags: /Ogsp
; File c:\program files (x86)\microsoft visual studio 10.0\vc\include\algorithm
;	COMDAT ??$_Pop_heap@PAUtagBaseCharDistanceSq@@VBaseCharDistanceSqSort2@@@std@@YAXPAUtagBaseCharDistanceSq@@0VBaseCharDistanceSqSort2@@@Z
_TEXT	SEGMENT
__First$ = 8						; size = 4
__Last$ = 12						; size = 4
__Pred$ = 16						; size = 1
??$_Pop_heap@PAUtagBaseCharDistanceSq@@VBaseCharDistanceSqSort2@@@std@@YAXPAUtagBaseCharDistanceSq@@0VBaseCharDistanceSqSort2@@@Z PROC ; std::_Pop_heap<tagBaseCharDistanceSq *,BaseCharDistanceSqSort2>, COMDAT

; 2610 : 	{	// pop *_First to *(_Last - 1) and reheap, using _Pred

  00000	55		 push	 ebp
  00001	8b ec		 mov	 ebp, esp

; 2611 : 	_Pop_heap_0(_Unchecked(_First), _Unchecked(_Last), _Pred,
; 2612 : 		_Val_type(_First));

  00003	6a 00		 push	 0
  00005	ff 75 10	 push	 DWORD PTR __Pred$[ebp]
  00008	ff 75 0c	 push	 DWORD PTR __Last$[ebp]
  0000b	ff 75 08	 push	 DWORD PTR __First$[ebp]
  0000e	e8 00 00 00 00	 call	 ??$_Pop_heap_0@PAUtagBaseCharDistanceSq@@U1@VBaseCharDistanceSqSort2@@@std@@YAXPAUtagBaseCharDistanceSq@@0VBaseCharDistanceSqSort2@@0@Z ; std::_Pop_heap_0<tagBaseCharDistanceSq *,tagBaseCharDistanceSq,BaseCharDistanceSqSort2>
  00013	83 c4 10	 add	 esp, 16			; 00000010H

; 2613 : 	}

  00016	5d		 pop	 ebp
  00017	c3		 ret	 0
??$_Pop_heap@PAUtagBaseCharDistanceSq@@VBaseCharDistanceSqSort2@@@std@@YAXPAUtagBaseCharDistanceSq@@0VBaseCharDistanceSqSort2@@@Z ENDP ; std::_Pop_heap<tagBaseCharDistanceSq *,BaseCharDistanceSqSort2>
_TEXT	ENDS
PUBLIC	?assign@?$basic_string@DU?$char_traits@D@std@@V?$allocator@D@2@@std@@QAEAAV12@ABV12@II@Z ; std::basic_string<char,std::char_traits<char>,std::allocator<char> >::assign
; Function compile flags: /Ogsp
; File c:\program files (x86)\microsoft visual studio 10.0\vc\include\xstring
;	COMDAT ?assign@?$basic_string@DU?$char_traits@D@std@@V?$allocator@D@2@@std@@QAEAAV12@ABV12@II@Z
_TEXT	SEGMENT
__Right$ = 8						; size = 4
__Roff$ = 12						; size = 4
__Count$ = 16						; size = 4
?assign@?$basic_string@DU?$char_traits@D@std@@V?$allocator@D@2@@std@@QAEAAV12@ABV12@II@Z PROC ; std::basic_string<char,std::char_traits<char>,std::allocator<char> >::assign, COMDAT
; _this$ = ecx

; 893  : 		{	// assign _Right [_Roff, _Roff + _Count)

  00000	55		 push	 ebp
  00001	8b ec		 mov	 ebp, esp
  00003	53		 push	 ebx

; 894  : 		if (_Right.size() < _Roff)

  00004	8b 5d 08	 mov	 ebx, DWORD PTR __Right$[ebp]
  00007	8b 43 10	 mov	 eax, DWORD PTR [ebx+16]
  0000a	56		 push	 esi
  0000b	8b f1		 mov	 esi, ecx
  0000d	8b 4d 0c	 mov	 ecx, DWORD PTR __Roff$[ebp]
  00010	57		 push	 edi
  00011	3b c1		 cmp	 eax, ecx
  00013	73 0b		 jae	 SHORT $LN5@assign

; 895  : 			_Xran();	// _Roff off end

  00015	68 00 00 00 00	 push	 OFFSET ??_C@_0BI@CFPLBAOH@invalid?5string?5position?$AA@
  0001a	ff 15 00 00 00
	00		 call	 DWORD PTR __imp_?_Xout_of_range@std@@YAXPBD@Z
$LN34@assign:
$LN5@assign:

; 896  : 		size_type _Num = _Right.size() - _Roff;

  00020	2b c1		 sub	 eax, ecx
  00022	8b f8		 mov	 edi, eax

; 897  : 		if (_Count < _Num)

  00024	39 7d 10	 cmp	 DWORD PTR __Count$[ebp], edi

; 898  : 			_Num = _Count;	// trim _Num to size

  00027	0f 42 7d 10	 cmovb	 edi, DWORD PTR __Count$[ebp]

; 899  : 
; 900  : 		if (this == &_Right)

  0002b	3b f3		 cmp	 esi, ebx
  0002d	75 1a		 jne	 SHORT $LN3@assign

; 901  : 			erase((size_type)(_Roff + _Num)), erase(0, _Roff);	// substring

  0002f	03 f9		 add	 edi, ecx
  00031	6a ff		 push	 -1
  00033	57		 push	 edi
  00034	8b ce		 mov	 ecx, esi
  00036	e8 00 00 00 00	 call	 ?erase@?$basic_string@DU?$char_traits@D@std@@V?$allocator@D@2@@std@@QAEAAV12@II@Z ; std::basic_string<char,std::char_traits<char>,std::allocator<char> >::erase
  0003b	ff 75 0c	 push	 DWORD PTR __Roff$[ebp]
  0003e	8b ce		 mov	 ecx, esi
  00040	6a 00		 push	 0
  00042	e8 00 00 00 00	 call	 ?erase@?$basic_string@DU?$char_traits@D@std@@V?$allocator@D@2@@std@@QAEAAV12@II@Z ; std::basic_string<char,std::char_traits<char>,std::allocator<char> >::erase
  00047	eb 47		 jmp	 SHORT $LN31@assign
$LN3@assign:

; 902  : 		else if (_Grow(_Num))

  00049	6a 00		 push	 0
  0004b	57		 push	 edi
  0004c	8b ce		 mov	 ecx, esi
  0004e	e8 00 00 00 00	 call	 ?_Grow@?$basic_string@DU?$char_traits@D@std@@V?$allocator@D@2@@std@@QAE_NI_N@Z ; std::basic_string<char,std::char_traits<char>,std::allocator<char> >::_Grow
  00053	84 c0		 test	 al, al
  00055	74 39		 je	 SHORT $LN31@assign

; 903  : 			{	// make room and assign new stuff
; 904  : 			_Traits::copy(_Myptr(), _Right._Myptr() + _Roff, _Num);

  00057	83 7b 14 10	 cmp	 DWORD PTR [ebx+20], 16	; 00000010H
  0005b	72 04		 jb	 SHORT $LN17@assign
  0005d	8b 03		 mov	 eax, DWORD PTR [ebx]
  0005f	eb 02		 jmp	 SHORT $LN18@assign
$LN17@assign:
  00061	8b c3		 mov	 eax, ebx
$LN18@assign:
  00063	83 7e 14 10	 cmp	 DWORD PTR [esi+20], 16	; 00000010H
  00067	72 04		 jb	 SHORT $LN21@assign
  00069	8b 0e		 mov	 ecx, DWORD PTR [esi]
  0006b	eb 02		 jmp	 SHORT $LN22@assign
$LN21@assign:
  0006d	8b ce		 mov	 ecx, esi
$LN22@assign:
  0006f	03 45 0c	 add	 eax, DWORD PTR __Roff$[ebp]
  00072	57		 push	 edi
  00073	50		 push	 eax
  00074	51		 push	 ecx
  00075	e8 00 00 00 00	 call	 _memcpy
  0007a	83 c4 0c	 add	 esp, 12			; 0000000cH

; 905  : 			_Eos(_Num);

  0007d	83 7e 14 10	 cmp	 DWORD PTR [esi+20], 16	; 00000010H
  00081	89 7e 10	 mov	 DWORD PTR [esi+16], edi
  00084	72 04		 jb	 SHORT $LN29@assign
  00086	8b 06		 mov	 eax, DWORD PTR [esi]
  00088	eb 02		 jmp	 SHORT $LN30@assign
$LN29@assign:
  0008a	8b c6		 mov	 eax, esi
$LN30@assign:
  0008c	c6 04 38 00	 mov	 BYTE PTR [eax+edi], 0
$LN31@assign:

; 906  : 			}
; 907  : 		return (*this);

  00090	5f		 pop	 edi
  00091	8b c6		 mov	 eax, esi
  00093	5e		 pop	 esi
  00094	5b		 pop	 ebx

; 908  : 		}

  00095	5d		 pop	 ebp
  00096	c2 0c 00	 ret	 12			; 0000000cH
$LN33@assign:
?assign@?$basic_string@DU?$char_traits@D@std@@V?$allocator@D@2@@std@@QAEAAV12@ABV12@II@Z ENDP ; std::basic_string<char,std::char_traits<char>,std::allocator<char> >::assign
_TEXT	ENDS
PUBLIC	?assign@?$basic_string@DU?$char_traits@D@std@@V?$allocator@D@2@@std@@QAEAAV12@PBDI@Z ; std::basic_string<char,std::char_traits<char>,std::allocator<char> >::assign
; Function compile flags: /Ogsp
;	COMDAT ?assign@?$basic_string@DU?$char_traits@D@std@@V?$allocator@D@2@@std@@QAEAAV12@PBDI@Z
_TEXT	SEGMENT
__Ptr$ = 8						; size = 4
__Count$ = 12						; size = 4
?assign@?$basic_string@DU?$char_traits@D@std@@V?$allocator@D@2@@std@@QAEAAV12@PBDI@Z PROC ; std::basic_string<char,std::char_traits<char>,std::allocator<char> >::assign, COMDAT
; _this$ = ecx

; 911  : 		{	// assign [_Ptr, _Ptr + _Count)

  00000	55		 push	 ebp
  00001	8b ec		 mov	 ebp, esp
  00003	53		 push	 ebx

; 912  :  #if _ITERATOR_DEBUG_LEVEL == 2
; 913  : 		if (_Count != 0)
; 914  : 			_DEBUG_POINTER(_Ptr);
; 915  :  #endif /* _ITERATOR_DEBUG_LEVEL == 2 */
; 916  : 
; 917  : 		if (_Inside(_Ptr))

  00004	8b 5d 08	 mov	 ebx, DWORD PTR __Ptr$[ebp]
  00007	56		 push	 esi
  00008	53		 push	 ebx
  00009	8b f1		 mov	 esi, ecx
  0000b	e8 00 00 00 00	 call	 ?_Inside@?$basic_string@DU?$char_traits@D@std@@V?$allocator@D@2@@std@@QAE_NPBD@Z ; std::basic_string<char,std::char_traits<char>,std::allocator<char> >::_Inside
  00010	84 c0		 test	 al, al
  00012	74 1c		 je	 SHORT $LN2@assign@2

; 918  : 			return (assign(*this, _Ptr - _Myptr(), _Count));	// substring

  00014	83 7e 14 10	 cmp	 DWORD PTR [esi+20], 16	; 00000010H
  00018	72 04		 jb	 SHORT $LN7@assign@2
  0001a	8b 06		 mov	 eax, DWORD PTR [esi]
  0001c	eb 02		 jmp	 SHORT $LN8@assign@2
$LN7@assign@2:
  0001e	8b c6		 mov	 eax, esi
$LN8@assign@2:
  00020	ff 75 0c	 push	 DWORD PTR __Count$[ebp]
  00023	2b d8		 sub	 ebx, eax
  00025	53		 push	 ebx
  00026	56		 push	 esi
  00027	8b ce		 mov	 ecx, esi
  00029	e8 00 00 00 00	 call	 ?assign@?$basic_string@DU?$char_traits@D@std@@V?$allocator@D@2@@std@@QAEAAV12@ABV12@II@Z ; std::basic_string<char,std::char_traits<char>,std::allocator<char> >::assign
  0002e	eb 3f		 jmp	 SHORT $LN3@assign@2
$LN2@assign@2:
  00030	57		 push	 edi

; 919  : 
; 920  : 		if (_Grow(_Count))

  00031	8b 7d 0c	 mov	 edi, DWORD PTR __Count$[ebp]
  00034	6a 00		 push	 0
  00036	57		 push	 edi
  00037	8b ce		 mov	 ecx, esi
  00039	e8 00 00 00 00	 call	 ?_Grow@?$basic_string@DU?$char_traits@D@std@@V?$allocator@D@2@@std@@QAE_NI_N@Z ; std::basic_string<char,std::char_traits<char>,std::allocator<char> >::_Grow
  0003e	84 c0		 test	 al, al
  00040	74 2a		 je	 SHORT $LN21@assign@2

; 921  : 			{	// make room and assign new stuff
; 922  : 			_Traits::copy(_Myptr(), _Ptr, _Count);

  00042	83 7e 14 10	 cmp	 DWORD PTR [esi+20], 16	; 00000010H
  00046	72 04		 jb	 SHORT $LN11@assign@2
  00048	8b 06		 mov	 eax, DWORD PTR [esi]
  0004a	eb 02		 jmp	 SHORT $LN12@assign@2
$LN11@assign@2:
  0004c	8b c6		 mov	 eax, esi
$LN12@assign@2:
  0004e	57		 push	 edi
  0004f	53		 push	 ebx
  00050	50		 push	 eax
  00051	e8 00 00 00 00	 call	 _memcpy
  00056	83 c4 0c	 add	 esp, 12			; 0000000cH

; 923  : 			_Eos(_Count);

  00059	83 7e 14 10	 cmp	 DWORD PTR [esi+20], 16	; 00000010H
  0005d	89 7e 10	 mov	 DWORD PTR [esi+16], edi
  00060	72 04		 jb	 SHORT $LN19@assign@2
  00062	8b 06		 mov	 eax, DWORD PTR [esi]
  00064	eb 02		 jmp	 SHORT $LN20@assign@2
$LN19@assign@2:
  00066	8b c6		 mov	 eax, esi
$LN20@assign@2:
  00068	c6 04 38 00	 mov	 BYTE PTR [eax+edi], 0
$LN21@assign@2:

; 924  : 			}
; 925  : 		return (*this);

  0006c	8b c6		 mov	 eax, esi
  0006e	5f		 pop	 edi
$LN3@assign@2:
  0006f	5e		 pop	 esi
  00070	5b		 pop	 ebx

; 926  : 		}

  00071	5d		 pop	 ebp
  00072	c2 08 00	 ret	 8
?assign@?$basic_string@DU?$char_traits@D@std@@V?$allocator@D@2@@std@@QAEAAV12@PBDI@Z ENDP ; std::basic_string<char,std::char_traits<char>,std::allocator<char> >::assign
_TEXT	ENDS
PUBLIC	?_Destroy@?$vector@UAniRotateInfo@@V?$allocator@UAniRotateInfo@@@std@@@std@@IAEXPAUAniRotateInfo@@0@Z ; std::vector<AniRotateInfo,std::allocator<AniRotateInfo> >::_Destroy
; Function compile flags: /Ogsp
; File c:\program files (x86)\microsoft visual studio 10.0\vc\include\vector
;	COMDAT ?_Destroy@?$vector@UAniRotateInfo@@V?$allocator@UAniRotateInfo@@@std@@@std@@IAEXPAUAniRotateInfo@@0@Z
_TEXT	SEGMENT
__First$ = 8						; size = 4
__Last$ = 12						; size = 4
?_Destroy@?$vector@UAniRotateInfo@@V?$allocator@UAniRotateInfo@@@std@@@std@@IAEXPAUAniRotateInfo@@0@Z PROC ; std::vector<AniRotateInfo,std::allocator<AniRotateInfo> >::_Destroy, COMDAT
; _this$ = ecx

; 1270 : 		_Destroy_range(_First, _Last, this->_Alval);
; 1271 : 		}

  00000	c2 08 00	 ret	 8
?_Destroy@?$vector@UAniRotateInfo@@V?$allocator@UAniRotateInfo@@@std@@@std@@IAEXPAUAniRotateInfo@@0@Z ENDP ; std::vector<AniRotateInfo,std::allocator<AniRotateInfo> >::_Destroy
_TEXT	ENDS
PUBLIC	??$_Umove@PAUAniRotateInfo@@@?$vector@UAniRotateInfo@@V?$allocator@UAniRotateInfo@@@std@@@std@@IAEPAUAniRotateInfo@@PAU2@00@Z ; std::vector<AniRotateInfo,std::allocator<AniRotateInfo> >::_Umove<AniRotateInfo *>
; Function compile flags: /Ogsp
;	COMDAT ??$_Umove@PAUAniRotateInfo@@@?$vector@UAniRotateInfo@@V?$allocator@UAniRotateInfo@@@std@@@std@@IAEPAUAniRotateInfo@@PAU2@00@Z
_TEXT	SEGMENT
__First$ = 8						; size = 4
__Last$ = 12						; size = 4
__Ptr$ = 16						; size = 4
??$_Umove@PAUAniRotateInfo@@@?$vector@UAniRotateInfo@@V?$allocator@UAniRotateInfo@@@std@@@std@@IAEPAUAniRotateInfo@@PAU2@00@Z PROC ; std::vector<AniRotateInfo,std::allocator<AniRotateInfo> >::_Umove<AniRotateInfo *>, COMDAT
; _this$ = ecx

; 1322 : 		pointer _Umove(_Iter _First, _Iter _Last, pointer _Ptr)

  00000	55		 push	 ebp
  00001	8b ec		 mov	 ebp, esp

; 1323 : 		{	// move initializing [_First, _Last), using allocator
; 1324 : 		return (_Uninitialized_move(_First, _Last,
; 1325 : 			_Ptr, this->_Alval));

  00003	83 c1 0c	 add	 ecx, 12			; 0000000cH
  00006	51		 push	 ecx
  00007	ff 75 10	 push	 DWORD PTR __Ptr$[ebp]
  0000a	ff 75 0c	 push	 DWORD PTR __Last$[ebp]
  0000d	ff 75 08	 push	 DWORD PTR __First$[ebp]
  00010	e8 00 00 00 00	 call	 ??$_Uninitialized_move@PAUAniRotateInfo@@PAU1@V?$allocator@UAniRotateInfo@@@std@@@std@@YAPAUAniRotateInfo@@PAU1@00AAV?$allocator@UAniRotateInfo@@@0@@Z ; std::_Uninitialized_move<AniRotateInfo *,AniRotateInfo *,std::allocator<AniRotateInfo> >
  00015	83 c4 10	 add	 esp, 16			; 00000010H

; 1326 : 		}

  00018	5d		 pop	 ebp
  00019	c2 0c 00	 ret	 12			; 0000000cH
??$_Umove@PAUAniRotateInfo@@@?$vector@UAniRotateInfo@@V?$allocator@UAniRotateInfo@@@std@@@std@@IAEPAUAniRotateInfo@@PAU2@00@Z ENDP ; std::vector<AniRotateInfo,std::allocator<AniRotateInfo> >::_Umove<AniRotateInfo *>
_TEXT	ENDS
PUBLIC	??$_Destroy_range@V?$allocator@UtagBaseCharDistanceSq@@@std@@@std@@YAXPAUtagBaseCharDistanceSq@@0AAV?$allocator@UtagBaseCharDistanceSq@@@0@@Z ; std::_Destroy_range<std::allocator<tagBaseCharDistanceSq> >
; Function compile flags: /Ogsp
; File c:\program files (x86)\microsoft visual studio 10.0\vc\include\xmemory
;	COMDAT ??$_Destroy_range@V?$allocator@UtagBaseCharDistanceSq@@@std@@@std@@YAXPAUtagBaseCharDistanceSq@@0AAV?$allocator@UtagBaseCharDistanceSq@@@0@@Z
_TEXT	SEGMENT
__First$ = 8						; size = 4
__Last$ = 12						; size = 4
__Al$ = 16						; size = 4
??$_Destroy_range@V?$allocator@UtagBaseCharDistanceSq@@@std@@@std@@YAXPAUtagBaseCharDistanceSq@@0AAV?$allocator@UtagBaseCharDistanceSq@@@0@@Z PROC ; std::_Destroy_range<std::allocator<tagBaseCharDistanceSq> >, COMDAT

; 87   : 	{	// destroy [_First, _Last)

  00000	55		 push	 ebp
  00001	8b ec		 mov	 ebp, esp
  00003	56		 push	 esi

; 88   : 	_Destroy_range(_First, _Last, _Al, _Ptr_cat(_First, _Last));

  00004	8b 75 08	 mov	 esi, DWORD PTR __First$[ebp]
  00007	eb 0b		 jmp	 SHORT $LN24@Destroy_ra@2
$LL7@Destroy_ra@2:
  00009	8b ce		 mov	 ecx, esi
  0000b	ff 15 00 00 00
	00		 call	 DWORD PTR __imp_??1ioHashString@@QAE@XZ
  00011	83 c6 20	 add	 esi, 32			; 00000020H
$LN24@Destroy_ra@2:
  00014	3b 75 0c	 cmp	 esi, DWORD PTR __Last$[ebp]
  00017	75 f0		 jne	 SHORT $LL7@Destroy_ra@2
  00019	5e		 pop	 esi

; 89   : 	}

  0001a	5d		 pop	 ebp
  0001b	c3		 ret	 0
??$_Destroy_range@V?$allocator@UtagBaseCharDistanceSq@@@std@@@std@@YAXPAUtagBaseCharDistanceSq@@0AAV?$allocator@UtagBaseCharDistanceSq@@@0@@Z ENDP ; std::_Destroy_range<std::allocator<tagBaseCharDistanceSq> >
_TEXT	ENDS
PUBLIC	??$_Uninitialized_move@PAUtagBaseCharDistanceSq@@PAU1@V?$allocator@UtagBaseCharDistanceSq@@@std@@@std@@YAPAUtagBaseCharDistanceSq@@PAU1@00AAV?$allocator@UtagBaseCharDistanceSq@@@0@@Z ; std::_Uninitialized_move<tagBaseCharDistanceSq *,tagBaseCharDistanceSq *,std::allocator<tagBaseCharDistanceSq> >
; Function compile flags: /Ogsp
; File c:\program files (x86)\microsoft visual studio 10.0\vc\include\memory
;	COMDAT ??$_Uninitialized_move@PAUtagBaseCharDistanceSq@@PAU1@V?$allocator@UtagBaseCharDistanceSq@@@std@@@std@@YAPAUtagBaseCharDistanceSq@@PAU1@00AAV?$allocator@UtagBaseCharDistanceSq@@@0@@Z
_TEXT	SEGMENT
__Cat$562353 = -4					; size = 1
__First$ = 8						; size = 4
__Last$ = 12						; size = 4
__Dest$ = 16						; size = 4
__Al$ = 20						; size = 4
??$_Uninitialized_move@PAUtagBaseCharDistanceSq@@PAU1@V?$allocator@UtagBaseCharDistanceSq@@@std@@@std@@YAPAUtagBaseCharDistanceSq@@PAU1@00AAV?$allocator@UtagBaseCharDistanceSq@@@0@@Z PROC ; std::_Uninitialized_move<tagBaseCharDistanceSq *,tagBaseCharDistanceSq *,std::allocator<tagBaseCharDistanceSq> >, COMDAT

; 469  : 	{	// move [_First, _Last) to raw _Dest, using _Al

  00000	55		 push	 ebp
  00001	8b ec		 mov	 ebp, esp
  00003	51		 push	 ecx

; 470  : 	return (_Uninit_move(_First, _Last, _Dest, _Al,
; 471  : 		_Val_type(_First), _Ptr_cat(_First, _Dest)));

  00004	ff 75 fc	 push	 DWORD PTR __Cat$562353[ebp]
  00007	6a 00		 push	 0
  00009	ff 75 14	 push	 DWORD PTR __Al$[ebp]
  0000c	ff 75 10	 push	 DWORD PTR __Dest$[ebp]
  0000f	ff 75 0c	 push	 DWORD PTR __Last$[ebp]
  00012	ff 75 08	 push	 DWORD PTR __First$[ebp]
  00015	e8 00 00 00 00	 call	 ??$_Uninit_move@PAUtagBaseCharDistanceSq@@PAU1@V?$allocator@UtagBaseCharDistanceSq@@@std@@U1@@std@@YAPAUtagBaseCharDistanceSq@@PAU1@00AAV?$allocator@UtagBaseCharDistanceSq@@@0@0U_Nonscalar_ptr_iterator_tag@0@@Z ; std::_Uninit_move<tagBaseCharDistanceSq *,tagBaseCharDistanceSq *,std::allocator<tagBaseCharDistanceSq>,tagBaseCharDistanceSq>
  0001a	83 c4 18	 add	 esp, 24			; 00000018H

; 472  : 	}

  0001d	c9		 leave
  0001e	c3		 ret	 0
??$_Uninitialized_move@PAUtagBaseCharDistanceSq@@PAU1@V?$allocator@UtagBaseCharDistanceSq@@@std@@@std@@YAPAUtagBaseCharDistanceSq@@PAU1@00AAV?$allocator@UtagBaseCharDistanceSq@@@0@@Z ENDP ; std::_Uninitialized_move<tagBaseCharDistanceSq *,tagBaseCharDistanceSq *,std::allocator<tagBaseCharDistanceSq> >
_TEXT	ENDS
PUBLIC	??$_Sort_heap@PAUtagBaseCharDistanceSq@@VBaseCharDistanceSqSort2@@@std@@YAXPAUtagBaseCharDistanceSq@@0VBaseCharDistanceSqSort2@@@Z ; std::_Sort_heap<tagBaseCharDistanceSq *,BaseCharDistanceSqSort2>
; Function compile flags: /Ogsp
; File c:\program files (x86)\microsoft visual studio 10.0\vc\include\algorithm
;	COMDAT ??$_Sort_heap@PAUtagBaseCharDistanceSq@@VBaseCharDistanceSqSort2@@@std@@YAXPAUtagBaseCharDistanceSq@@0VBaseCharDistanceSqSort2@@@Z
_TEXT	SEGMENT
__First$ = 8						; size = 4
__Last$ = 12						; size = 4
__Pred$ = 16						; size = 1
??$_Sort_heap@PAUtagBaseCharDistanceSq@@VBaseCharDistanceSqSort2@@@std@@YAXPAUtagBaseCharDistanceSq@@0VBaseCharDistanceSqSort2@@@Z PROC ; std::_Sort_heap<tagBaseCharDistanceSq *,BaseCharDistanceSqSort2>, COMDAT

; 2700 : 	{	// order heap by repeatedly popping, using _Pred

  00000	55		 push	 ebp
  00001	8b ec		 mov	 ebp, esp

; 2701 : 	for (; 1 < _Last - _First; --_Last)

  00003	8b 45 0c	 mov	 eax, DWORD PTR __Last$[ebp]
  00006	2b 45 08	 sub	 eax, DWORD PTR __First$[ebp]
  00009	8b c8		 mov	 ecx, eax
  0000b	83 e1 e0	 and	 ecx, -32		; ffffffe0H
  0000e	83 f9 20	 cmp	 ecx, 32			; 00000020H
  00011	7e 28		 jle	 SHORT $LN1@Sort_heap
  00013	57		 push	 edi
  00014	8b f8		 mov	 edi, eax
$LL3@Sort_heap:

; 2702 : 		_Pop_heap(_First, _Last, _Pred);

  00016	6a 00		 push	 0
  00018	ff 75 10	 push	 DWORD PTR __Pred$[ebp]
  0001b	ff 75 0c	 push	 DWORD PTR __Last$[ebp]
  0001e	ff 75 08	 push	 DWORD PTR __First$[ebp]
  00021	e8 00 00 00 00	 call	 ??$_Pop_heap_0@PAUtagBaseCharDistanceSq@@U1@VBaseCharDistanceSqSort2@@@std@@YAXPAUtagBaseCharDistanceSq@@0VBaseCharDistanceSqSort2@@0@Z ; std::_Pop_heap_0<tagBaseCharDistanceSq *,tagBaseCharDistanceSq,BaseCharDistanceSqSort2>
  00026	83 6d 0c 20	 sub	 DWORD PTR __Last$[ebp], 32 ; 00000020H
  0002a	83 ef 20	 sub	 edi, 32			; 00000020H
  0002d	8b c7		 mov	 eax, edi
  0002f	83 e0 e0	 and	 eax, -32		; ffffffe0H
  00032	83 c4 10	 add	 esp, 16			; 00000010H
  00035	83 f8 20	 cmp	 eax, 32			; 00000020H
  00038	7f dc		 jg	 SHORT $LL3@Sort_heap
  0003a	5f		 pop	 edi
$LN1@Sort_heap:

; 2703 : 	}

  0003b	5d		 pop	 ebp
  0003c	c3		 ret	 0
??$_Sort_heap@PAUtagBaseCharDistanceSq@@VBaseCharDistanceSqSort2@@@std@@YAXPAUtagBaseCharDistanceSq@@0VBaseCharDistanceSqSort2@@@Z ENDP ; std::_Sort_heap<tagBaseCharDistanceSq *,BaseCharDistanceSqSort2>
_TEXT	ENDS
PUBLIC	?assign@?$basic_string@DU?$char_traits@D@std@@V?$allocator@D@2@@std@@QAEAAV12@PBD@Z ; std::basic_string<char,std::char_traits<char>,std::allocator<char> >::assign
; Function compile flags: /Ogsp
; File c:\program files (x86)\microsoft visual studio 10.0\vc\include\xstring
;	COMDAT ?assign@?$basic_string@DU?$char_traits@D@std@@V?$allocator@D@2@@std@@QAEAAV12@PBD@Z
_TEXT	SEGMENT
__Ptr$ = 8						; size = 4
?assign@?$basic_string@DU?$char_traits@D@std@@V?$allocator@D@2@@std@@QAEAAV12@PBD@Z PROC ; std::basic_string<char,std::char_traits<char>,std::allocator<char> >::assign, COMDAT
; _this$ = ecx

; 929  : 		{	// assign [_Ptr, <null>)

  00000	55		 push	 ebp
  00001	8b ec		 mov	 ebp, esp

; 930  : 		_DEBUG_POINTER(_Ptr);
; 931  : 		return (assign(_Ptr, _Traits::length(_Ptr)));

  00003	8b 45 08	 mov	 eax, DWORD PTR __Ptr$[ebp]
  00006	8d 50 01	 lea	 edx, DWORD PTR [eax+1]
  00009	53		 push	 ebx
$LL5@assign@3:
  0000a	8a 18		 mov	 bl, BYTE PTR [eax]
  0000c	40		 inc	 eax
  0000d	84 db		 test	 bl, bl
  0000f	75 f9		 jne	 SHORT $LL5@assign@3
  00011	2b c2		 sub	 eax, edx
  00013	50		 push	 eax
  00014	ff 75 08	 push	 DWORD PTR __Ptr$[ebp]
  00017	e8 00 00 00 00	 call	 ?assign@?$basic_string@DU?$char_traits@D@std@@V?$allocator@D@2@@std@@QAEAAV12@PBDI@Z ; std::basic_string<char,std::char_traits<char>,std::allocator<char> >::assign
  0001c	5b		 pop	 ebx

; 932  : 		}

  0001d	5d		 pop	 ebp
  0001e	c2 04 00	 ret	 4
?assign@?$basic_string@DU?$char_traits@D@std@@V?$allocator@D@2@@std@@QAEAAV12@PBD@Z ENDP ; std::basic_string<char,std::char_traits<char>,std::allocator<char> >::assign
_TEXT	ENDS
PUBLIC	?erase@?$vector@UAniRotateInfo@@V?$allocator@UAniRotateInfo@@@std@@@std@@QAE?AV?$_Vector_iterator@V?$_Vector_val@UAniRotateInfo@@V?$allocator@UAniRotateInfo@@@std@@@std@@@2@V?$_Vector_const_iterator@V?$_Vector_val@UAniRotateInfo@@V?$allocator@UAniRotateInfo@@@std@@@std@@@2@0@Z ; std::vector<AniRotateInfo,std::allocator<AniRotateInfo> >::erase
; Function compile flags: /Ogsp
; File c:\program files (x86)\microsoft visual studio 10.0\vc\include\vector
;	COMDAT ?erase@?$vector@UAniRotateInfo@@V?$allocator@UAniRotateInfo@@@std@@@std@@QAE?AV?$_Vector_iterator@V?$_Vector_val@UAniRotateInfo@@V?$allocator@UAniRotateInfo@@@std@@@std@@@2@V?$_Vector_const_iterator@V?$_Vector_val@UAniRotateInfo@@V?$allocator@UAniRotateInfo@@@std@@@std@@@2@0@Z
_TEXT	SEGMENT
___$ReturnUdt$ = 8					; size = 4
__First_arg$ = 12					; size = 4
__Cat$562460 = 16					; size = 1
__Last_arg$ = 16					; size = 4
?erase@?$vector@UAniRotateInfo@@V?$allocator@UAniRotateInfo@@@std@@@std@@QAE?AV?$_Vector_iterator@V?$_Vector_val@UAniRotateInfo@@V?$allocator@UAniRotateInfo@@@std@@@std@@@2@V?$_Vector_const_iterator@V?$_Vector_val@UAniRotateInfo@@V?$allocator@UAniRotateInfo@@@std@@@std@@@2@0@Z PROC ; std::vector<AniRotateInfo,std::allocator<AniRotateInfo> >::erase, COMDAT
; _this$ = ecx

; 1190 : 		{	// erase [_First, _Last)

  00000	55		 push	 ebp
  00001	8b ec		 mov	 ebp, esp

; 1191 : 		iterator _First = _Make_iter(_First_arg);

  00003	8b 45 0c	 mov	 eax, DWORD PTR __First_arg$[ebp]
  00006	56		 push	 esi
  00007	57		 push	 edi
  00008	8b 7d 08	 mov	 edi, DWORD PTR ___$ReturnUdt$[ebp]
  0000b	8b f1		 mov	 esi, ecx
  0000d	89 07		 mov	 DWORD PTR [edi], eax

; 1192 : 		iterator _Last = _Make_iter(_Last_arg);
; 1193 : 
; 1194 : 		if (_First != _Last)

  0000f	3b 45 10	 cmp	 eax, DWORD PTR __Last_arg$[ebp]
  00012	74 16		 je	 SHORT $LN1@erase@3

; 1195 : 			{	// worth doing, copy down over hole
; 1196 :  #if _ITERATOR_DEBUG_LEVEL == 2
; 1197 : 			if (_Last < _First || _VICONT(_First) != this
; 1198 : 				|| _VIPTR(_First) < this->_Myfirst
; 1199 : 				|| this->_Mylast < _VIPTR(_Last))
; 1200 : 				_DEBUG_ERROR("vector erase iterator outside range");
; 1201 : 			pointer _Ptr = _Move(_VIPTR(_Last), this->_Mylast,
; 1202 : 				_VIPTR(_First));
; 1203 : 			_Orphan_range(_VIPTR(_First), this->_Mylast);
; 1204 : 
; 1205 :  #else /* _ITERATOR_DEBUG_LEVEL == 2 */
; 1206 : 			pointer _Ptr = _Move(_VIPTR(_Last), this->_Mylast,
; 1207 : 				_VIPTR(_First));

  00014	ff 75 10	 push	 DWORD PTR __Cat$562460[ebp]
  00017	8b 4e 04	 mov	 ecx, DWORD PTR [esi+4]
  0001a	50		 push	 eax
  0001b	51		 push	 ecx
  0001c	ff 75 10	 push	 DWORD PTR __Last_arg$[ebp]
  0001f	e8 00 00 00 00	 call	 ??$_Move@PAUAniRotateInfo@@PAU1@@std@@YAPAUAniRotateInfo@@PAU1@00U_Nonscalar_ptr_iterator_tag@0@@Z ; std::_Move<AniRotateInfo *,AniRotateInfo *>
  00024	83 c4 10	 add	 esp, 16			; 00000010H

; 1208 :  #endif /* _ITERATOR_DEBUG_LEVEL == 2 */
; 1209 : 
; 1210 : 			_Destroy(_Ptr, this->_Mylast);
; 1211 : 			this->_Mylast = _Ptr;

  00027	89 46 04	 mov	 DWORD PTR [esi+4], eax
$LN1@erase@3:

; 1212 : 			}
; 1213 : 		return (_First);

  0002a	8b c7		 mov	 eax, edi
  0002c	5f		 pop	 edi
  0002d	5e		 pop	 esi

; 1214 : 		}

  0002e	5d		 pop	 ebp
  0002f	c2 0c 00	 ret	 12			; 0000000cH
?erase@?$vector@UAniRotateInfo@@V?$allocator@UAniRotateInfo@@@std@@@std@@QAE?AV?$_Vector_iterator@V?$_Vector_val@UAniRotateInfo@@V?$allocator@UAniRotateInfo@@@std@@@std@@@2@V?$_Vector_const_iterator@V?$_Vector_val@UAniRotateInfo@@V?$allocator@UAniRotateInfo@@@std@@@std@@@2@0@Z ENDP ; std::vector<AniRotateInfo,std::allocator<AniRotateInfo> >::erase
_TEXT	ENDS
PUBLIC	?reserve@?$vector@UAniRotateInfo@@V?$allocator@UAniRotateInfo@@@std@@@std@@QAEXI@Z ; std::vector<AniRotateInfo,std::allocator<AniRotateInfo> >::reserve
;	COMDAT xdata$x
; File c:\program files (x86)\microsoft visual studio 10.0\vc\include\xmemory
xdata$x	SEGMENT
__catchsym$?reserve@?$vector@UAniRotateInfo@@V?$allocator@UAniRotateInfo@@@std@@@std@@QAEXI@Z$2 DD 040H
	DD	00H
	DD	00H
	DD	FLAT:__catch$?reserve@?$vector@UAniRotateInfo@@V?$allocator@UAniRotateInfo@@@std@@@std@@QAEXI@Z$0
__unwindtable$?reserve@?$vector@UAniRotateInfo@@V?$allocator@UAniRotateInfo@@@std@@@std@@QAEXI@Z DD 0ffffffffH
	DD	00H
	DD	0ffffffffH
	DD	00H
__tryblocktable$?reserve@?$vector@UAniRotateInfo@@V?$allocator@UAniRotateInfo@@@std@@@std@@QAEXI@Z DD 00H
	DD	00H
	DD	01H
	DD	01H
	DD	FLAT:__catchsym$?reserve@?$vector@UAniRotateInfo@@V?$allocator@UAniRotateInfo@@@std@@@std@@QAEXI@Z$2
__ehfuncinfo$?reserve@?$vector@UAniRotateInfo@@V?$allocator@UAniRotateInfo@@@std@@@std@@QAEXI@Z DD 019930522H
	DD	02H
	DD	FLAT:__unwindtable$?reserve@?$vector@UAniRotateInfo@@V?$allocator@UAniRotateInfo@@@std@@@std@@QAEXI@Z
	DD	01H
	DD	FLAT:__tryblocktable$?reserve@?$vector@UAniRotateInfo@@V?$allocator@UAniRotateInfo@@@std@@@std@@QAEXI@Z
	DD	2 DUP(00H)
	DD	00H
	DD	01H
; Function compile flags: /Ogsp
; File c:\program files (x86)\microsoft visual studio 10.0\vc\include\vector
xdata$x	ENDS
;	COMDAT ?reserve@?$vector@UAniRotateInfo@@V?$allocator@UAniRotateInfo@@@std@@@std@@QAEXI@Z
_TEXT	SEGMENT
__Ptr$550306 = -20					; size = 4
__$EHRec$ = -16						; size = 16
__Count$ = 8						; size = 4
?reserve@?$vector@UAniRotateInfo@@V?$allocator@UAniRotateInfo@@@std@@@std@@QAEXI@Z PROC ; std::vector<AniRotateInfo,std::allocator<AniRotateInfo> >::reserve, COMDAT
; _this$ = ecx

; 746  : 		{	// determine new minimum length of allocated storage

  00000	6a 08		 push	 8
  00002	b8 00 00 00 00	 mov	 eax, __ehhandler$?reserve@?$vector@UAniRotateInfo@@V?$allocator@UAniRotateInfo@@@std@@@std@@QAEXI@Z
  00007	e8 00 00 00 00	 call	 __EH_prolog3_catch
  0000c	8b f1		 mov	 esi, ecx

; 747  : 		if (max_size() < _Count)

  0000e	81 7d 08 ff ff
	ff 1f		 cmp	 DWORD PTR __Count$[ebp], 536870911 ; 1fffffffH
  00015	76 0b		 jbe	 SHORT $LN5@reserve

; 748  : 			_Xlen();	// result too long

  00017	68 00 00 00 00	 push	 OFFSET ??_C@_0BD@OLBABOEK@vector?$DMT?$DO?5too?5long?$AA@
  0001c	ff 15 00 00 00
	00		 call	 DWORD PTR __imp_?_Xlength_error@std@@YAXPBD@Z
$LN56@reserve:
$LN5@reserve:

; 749  : 		else if (capacity() < _Count)

  00022	8b 46 08	 mov	 eax, DWORD PTR [esi+8]
  00025	2b 06		 sub	 eax, DWORD PTR [esi]
  00027	c1 f8 03	 sar	 eax, 3
  0002a	3b 45 08	 cmp	 eax, DWORD PTR __Count$[ebp]
  0002d	73 65		 jae	 SHORT $LN3@reserve

; 750  : 			{	// not enough room, reallocate
; 751  : 			pointer _Ptr = this->_Alval.allocate(_Count);

  0002f	6a 00		 push	 0
  00031	ff 75 08	 push	 DWORD PTR __Count$[ebp]
  00034	e8 00 00 00 00	 call	 ??$_Allocate@UAniRotateInfo@@@std@@YAPAUAniRotateInfo@@IPAU1@@Z ; std::_Allocate<AniRotateInfo>

; 752  : 
; 753  : 			_TRY_BEGIN
; 754  : 			_Umove(this->_Myfirst, this->_Mylast, _Ptr);

  00039	8b 0e		 mov	 ecx, DWORD PTR [esi]
  0003b	83 65 fc 00	 and	 DWORD PTR __$EHRec$[ebp+12], 0
  0003f	8b d8		 mov	 ebx, eax
  00041	8b 46 04	 mov	 eax, DWORD PTR [esi+4]
  00044	8d 56 0c	 lea	 edx, DWORD PTR [esi+12]
  00047	52		 push	 edx
  00048	53		 push	 ebx
  00049	50		 push	 eax
  0004a	51		 push	 ecx
  0004b	89 5d ec	 mov	 DWORD PTR __Ptr$550306[ebp], ebx
  0004e	e8 00 00 00 00	 call	 ??$_Uninitialized_move@PAUAniRotateInfo@@PAU1@V?$allocator@UAniRotateInfo@@@std@@@std@@YAPAUAniRotateInfo@@PAU1@00AAV?$allocator@UAniRotateInfo@@@0@@Z ; std::_Uninitialized_move<AniRotateInfo *,AniRotateInfo *,std::allocator<AniRotateInfo> >

; 758  : 			_CATCH_END
; 759  : 
; 760  : 			size_type _Size = size();

  00053	8b 4e 04	 mov	 ecx, DWORD PTR [esi+4]
  00056	8b 06		 mov	 eax, DWORD PTR [esi]
  00058	83 4d fc ff	 or	 DWORD PTR __$EHRec$[ebp+12], -1
  0005c	8b f9		 mov	 edi, ecx
  0005e	2b f8		 sub	 edi, eax
  00060	83 c4 18	 add	 esp, 24			; 00000018H
  00063	c1 ff 03	 sar	 edi, 3
  00066	85 c0		 test	 eax, eax
  00068	74 11		 je	 SHORT $LN48@reserve

; 761  : 			if (this->_Myfirst != 0)

  0006a	eb 03		 jmp	 SHORT $LN55@reserve

; 762  : 				{	// destroy and deallocate old array
; 763  : 				_Destroy(this->_Myfirst, this->_Mylast);

$LL39@reserve:
  0006c	83 c0 08	 add	 eax, 8
$LN55@reserve:
  0006f	3b c1		 cmp	 eax, ecx
  00071	75 f9		 jne	 SHORT $LL39@reserve

; 764  : 				this->_Alval.deallocate(this->_Myfirst,
; 765  : 					this->_Myend - this->_Myfirst);

  00073	ff 36		 push	 DWORD PTR [esi]
  00075	e8 00 00 00 00	 call	 ??3@YAXPAX@Z		; operator delete
  0007a	59		 pop	 ecx
$LN48@reserve:

; 766  : 				}
; 767  : 
; 768  : 			this->_Orphan_all();

  0007b	8b ce		 mov	 ecx, esi
  0007d	ff 15 00 00 00
	00		 call	 DWORD PTR __imp_?_Orphan_all@_Container_base0@std@@QAEXXZ

; 769  : 			this->_Myend = _Ptr + _Count;

  00083	8b 45 08	 mov	 eax, DWORD PTR __Count$[ebp]
  00086	8d 04 c3	 lea	 eax, DWORD PTR [ebx+eax*8]
  00089	89 46 08	 mov	 DWORD PTR [esi+8], eax

; 770  : 			this->_Mylast = _Ptr + _Size;

  0008c	8d 04 fb	 lea	 eax, DWORD PTR [ebx+edi*8]
  0008f	89 46 04	 mov	 DWORD PTR [esi+4], eax

; 771  : 			this->_Myfirst = _Ptr;

  00092	89 1e		 mov	 DWORD PTR [esi], ebx
$LN3@reserve:

; 772  : 			}
; 773  : 		}

  00094	e8 00 00 00 00	 call	 __EH_epilog3
  00099	c2 04 00	 ret	 4
__catch$?reserve@?$vector@UAniRotateInfo@@V?$allocator@UAniRotateInfo@@@std@@@std@@QAEXI@Z$0:

; 755  : 			_CATCH_ALL
; 756  : 			this->_Alval.deallocate(_Ptr, _Count);

  0009c	ff 75 ec	 push	 DWORD PTR __Ptr$550306[ebp]
  0009f	e8 00 00 00 00	 call	 ??3@YAXPAX@Z		; operator delete
  000a4	59		 pop	 ecx

; 757  : 			_RERAISE;

  000a5	6a 00		 push	 0
  000a7	6a 00		 push	 0
  000a9	e8 00 00 00 00	 call	 __CxxThrowException@8
$LN57@reserve:
$LN54@reserve:
  000ae	cc		 int	 3
_TEXT	ENDS
;	COMDAT text$x
text$x	SEGMENT
__ehhandler$?reserve@?$vector@UAniRotateInfo@@V?$allocator@UAniRotateInfo@@@std@@@std@@QAEXI@Z:
  00000	8b 54 24 08	 mov	 edx, DWORD PTR [esp+8]
  00004	8d 42 0c	 lea	 eax, DWORD PTR [edx+12]
  00007	8b 4a e8	 mov	 ecx, DWORD PTR [edx-24]
  0000a	33 c8		 xor	 ecx, eax
  0000c	e8 00 00 00 00	 call	 @__security_check_cookie@4
  00011	b8 00 00 00 00	 mov	 eax, OFFSET __ehfuncinfo$?reserve@?$vector@UAniRotateInfo@@V?$allocator@UAniRotateInfo@@@std@@@std@@QAEXI@Z
  00016	e9 00 00 00 00	 jmp	 ___CxxFrameHandler3
text$x	ENDS
?reserve@?$vector@UAniRotateInfo@@V?$allocator@UAniRotateInfo@@@std@@@std@@QAEXI@Z ENDP ; std::vector<AniRotateInfo,std::allocator<AniRotateInfo> >::reserve
PUBLIC	?_Destroy@?$vector@UtagBaseCharDistanceSq@@V?$allocator@UtagBaseCharDistanceSq@@@std@@@std@@IAEXPAUtagBaseCharDistanceSq@@0@Z ; std::vector<tagBaseCharDistanceSq,std::allocator<tagBaseCharDistanceSq> >::_Destroy
; Function compile flags: /Ogsp
;	COMDAT ?_Destroy@?$vector@UtagBaseCharDistanceSq@@V?$allocator@UtagBaseCharDistanceSq@@@std@@@std@@IAEXPAUtagBaseCharDistanceSq@@0@Z
_TEXT	SEGMENT
__First$ = 8						; size = 4
__Last$ = 12						; size = 4
?_Destroy@?$vector@UtagBaseCharDistanceSq@@V?$allocator@UtagBaseCharDistanceSq@@@std@@@std@@IAEXPAUtagBaseCharDistanceSq@@0@Z PROC ; std::vector<tagBaseCharDistanceSq,std::allocator<tagBaseCharDistanceSq> >::_Destroy, COMDAT
; _this$ = ecx

; 1269 : 		{	// destroy [_First, _Last) using allocator

  00000	55		 push	 ebp
  00001	8b ec		 mov	 ebp, esp
  00003	56		 push	 esi

; 1270 : 		_Destroy_range(_First, _Last, this->_Alval);

  00004	8b 75 08	 mov	 esi, DWORD PTR __First$[ebp]
  00007	eb 0b		 jmp	 SHORT $LN26@Destroy
$LL9@Destroy:
  00009	8b ce		 mov	 ecx, esi
  0000b	ff 15 00 00 00
	00		 call	 DWORD PTR __imp_??1ioHashString@@QAE@XZ
  00011	83 c6 20	 add	 esi, 32			; 00000020H
$LN26@Destroy:
  00014	3b 75 0c	 cmp	 esi, DWORD PTR __Last$[ebp]
  00017	75 f0		 jne	 SHORT $LL9@Destroy
  00019	5e		 pop	 esi

; 1271 : 		}

  0001a	5d		 pop	 ebp
  0001b	c2 08 00	 ret	 8
?_Destroy@?$vector@UtagBaseCharDistanceSq@@V?$allocator@UtagBaseCharDistanceSq@@@std@@@std@@IAEXPAUtagBaseCharDistanceSq@@0@Z ENDP ; std::vector<tagBaseCharDistanceSq,std::allocator<tagBaseCharDistanceSq> >::_Destroy
_TEXT	ENDS
PUBLIC	??$_Umove@PAUtagBaseCharDistanceSq@@@?$vector@UtagBaseCharDistanceSq@@V?$allocator@UtagBaseCharDistanceSq@@@std@@@std@@IAEPAUtagBaseCharDistanceSq@@PAU2@00@Z ; std::vector<tagBaseCharDistanceSq,std::allocator<tagBaseCharDistanceSq> >::_Umove<tagBaseCharDistanceSq *>
; Function compile flags: /Ogsp
;	COMDAT ??$_Umove@PAUtagBaseCharDistanceSq@@@?$vector@UtagBaseCharDistanceSq@@V?$allocator@UtagBaseCharDistanceSq@@@std@@@std@@IAEPAUtagBaseCharDistanceSq@@PAU2@00@Z
_TEXT	SEGMENT
__First$ = 8						; size = 4
__Last$ = 12						; size = 4
__Ptr$ = 16						; size = 4
??$_Umove@PAUtagBaseCharDistanceSq@@@?$vector@UtagBaseCharDistanceSq@@V?$allocator@UtagBaseCharDistanceSq@@@std@@@std@@IAEPAUtagBaseCharDistanceSq@@PAU2@00@Z PROC ; std::vector<tagBaseCharDistanceSq,std::allocator<tagBaseCharDistanceSq> >::_Umove<tagBaseCharDistanceSq *>, COMDAT
; _this$ = ecx

; 1322 : 		pointer _Umove(_Iter _First, _Iter _Last, pointer _Ptr)

  00000	55		 push	 ebp
  00001	8b ec		 mov	 ebp, esp

; 1323 : 		{	// move initializing [_First, _Last), using allocator
; 1324 : 		return (_Uninitialized_move(_First, _Last,
; 1325 : 			_Ptr, this->_Alval));

  00003	83 c1 0c	 add	 ecx, 12			; 0000000cH
  00006	51		 push	 ecx
  00007	ff 75 10	 push	 DWORD PTR __Ptr$[ebp]
  0000a	ff 75 0c	 push	 DWORD PTR __Last$[ebp]
  0000d	ff 75 08	 push	 DWORD PTR __First$[ebp]
  00010	e8 00 00 00 00	 call	 ??$_Uninitialized_move@PAUtagBaseCharDistanceSq@@PAU1@V?$allocator@UtagBaseCharDistanceSq@@@std@@@std@@YAPAUtagBaseCharDistanceSq@@PAU1@00AAV?$allocator@UtagBaseCharDistanceSq@@@0@@Z ; std::_Uninitialized_move<tagBaseCharDistanceSq *,tagBaseCharDistanceSq *,std::allocator<tagBaseCharDistanceSq> >
  00015	83 c4 10	 add	 esp, 16			; 00000010H

; 1326 : 		}

  00018	5d		 pop	 ebp
  00019	c2 0c 00	 ret	 12			; 0000000cH
??$_Umove@PAUtagBaseCharDistanceSq@@@?$vector@UtagBaseCharDistanceSq@@V?$allocator@UtagBaseCharDistanceSq@@@std@@@std@@IAEPAUtagBaseCharDistanceSq@@PAU2@00@Z ENDP ; std::vector<tagBaseCharDistanceSq,std::allocator<tagBaseCharDistanceSq> >::_Umove<tagBaseCharDistanceSq *>
_TEXT	ENDS
PUBLIC	??$sort_heap@PAUtagBaseCharDistanceSq@@VBaseCharDistanceSqSort2@@@std@@YAXPAUtagBaseCharDistanceSq@@0VBaseCharDistanceSqSort2@@@Z ; std::sort_heap<tagBaseCharDistanceSq *,BaseCharDistanceSqSort2>
; Function compile flags: /Ogsp
; File c:\program files (x86)\microsoft visual studio 10.0\vc\include\algorithm
;	COMDAT ??$sort_heap@PAUtagBaseCharDistanceSq@@VBaseCharDistanceSqSort2@@@std@@YAXPAUtagBaseCharDistanceSq@@0VBaseCharDistanceSqSort2@@@Z
_TEXT	SEGMENT
__First$ = 8						; size = 4
__Last$ = 12						; size = 4
__Pred$ = 16						; size = 1
??$sort_heap@PAUtagBaseCharDistanceSq@@VBaseCharDistanceSqSort2@@@std@@YAXPAUtagBaseCharDistanceSq@@0VBaseCharDistanceSqSort2@@@Z PROC ; std::sort_heap<tagBaseCharDistanceSq *,BaseCharDistanceSqSort2>, COMDAT

; 2708 : 	{	// order heap by repeatedly popping, using _Pred

  00000	55		 push	 ebp
  00001	8b ec		 mov	 ebp, esp

; 2709 : 	_DEBUG_RANGE(_First, _Last);
; 2710 : 	_DEBUG_POINTER(_Pred);
; 2711 : 	_DEBUG_HEAP_PRED(_First, _Last, _Pred);
; 2712 : 	_Sort_heap(_Unchecked(_First), _Unchecked(_Last), _Pred);

  00003	ff 75 10	 push	 DWORD PTR __Pred$[ebp]
  00006	ff 75 0c	 push	 DWORD PTR __Last$[ebp]
  00009	ff 75 08	 push	 DWORD PTR __First$[ebp]
  0000c	e8 00 00 00 00	 call	 ??$_Sort_heap@PAUtagBaseCharDistanceSq@@VBaseCharDistanceSqSort2@@@std@@YAXPAUtagBaseCharDistanceSq@@0VBaseCharDistanceSqSort2@@@Z ; std::_Sort_heap<tagBaseCharDistanceSq *,BaseCharDistanceSqSort2>
  00011	83 c4 0c	 add	 esp, 12			; 0000000cH

; 2713 : 	}

  00014	5d		 pop	 ebp
  00015	c3		 ret	 0
??$sort_heap@PAUtagBaseCharDistanceSq@@VBaseCharDistanceSqSort2@@@std@@YAXPAUtagBaseCharDistanceSq@@0VBaseCharDistanceSqSort2@@@Z ENDP ; std::sort_heap<tagBaseCharDistanceSq *,BaseCharDistanceSqSort2>
_TEXT	ENDS
PUBLIC	??0?$basic_string@DU?$char_traits@D@std@@V?$allocator@D@2@@std@@QAE@PBD@Z ; std::basic_string<char,std::char_traits<char>,std::allocator<char> >::basic_string<char,std::char_traits<char>,std::allocator<char> >
; Function compile flags: /Ogsp
; File c:\program files (x86)\microsoft visual studio 10.0\vc\include\xstring
;	COMDAT ??0?$basic_string@DU?$char_traits@D@std@@V?$allocator@D@2@@std@@QAE@PBD@Z
_TEXT	SEGMENT
__Ptr$ = 8						; size = 4
??0?$basic_string@DU?$char_traits@D@std@@V?$allocator@D@2@@std@@QAE@PBD@Z PROC ; std::basic_string<char,std::char_traits<char>,std::allocator<char> >::basic_string<char,std::char_traits<char>,std::allocator<char> >, COMDAT
; _this$ = ecx

; 592  : 		{	// construct from [_Ptr, <null>)

  00000	55		 push	 ebp
  00001	8b ec		 mov	 ebp, esp
  00003	56		 push	 esi

; 593  : 		_Tidy();
; 594  : 		assign(_Ptr);

  00004	ff 75 08	 push	 DWORD PTR __Ptr$[ebp]
  00007	8b f1		 mov	 esi, ecx
  00009	83 66 10 00	 and	 DWORD PTR [esi+16], 0
  0000d	c7 46 14 0f 00
	00 00		 mov	 DWORD PTR [esi+20], 15	; 0000000fH
  00014	c6 06 00	 mov	 BYTE PTR [esi], 0
  00017	e8 00 00 00 00	 call	 ?assign@?$basic_string@DU?$char_traits@D@std@@V?$allocator@D@2@@std@@QAEAAV12@PBD@Z ; std::basic_string<char,std::char_traits<char>,std::allocator<char> >::assign

; 595  : 		}

  0001c	8b c6		 mov	 eax, esi
  0001e	5e		 pop	 esi
  0001f	5d		 pop	 ebp
  00020	c2 04 00	 ret	 4
??0?$basic_string@DU?$char_traits@D@std@@V?$allocator@D@2@@std@@QAE@PBD@Z ENDP ; std::basic_string<char,std::char_traits<char>,std::allocator<char> >::basic_string<char,std::char_traits<char>,std::allocator<char> >
_TEXT	ENDS
PUBLIC	?clear@?$vector@UAniRotateInfo@@V?$allocator@UAniRotateInfo@@@std@@@std@@QAEXXZ ; std::vector<AniRotateInfo,std::allocator<AniRotateInfo> >::clear
; Function compile flags: /Ogsp
; File c:\program files (x86)\microsoft visual studio 10.0\vc\include\vector
;	COMDAT ?clear@?$vector@UAniRotateInfo@@V?$allocator@UAniRotateInfo@@@std@@@std@@QAEXXZ
_TEXT	SEGMENT
$T562844 = -4						; size = 4
?clear@?$vector@UAniRotateInfo@@V?$allocator@UAniRotateInfo@@@std@@@std@@QAEXXZ PROC ; std::vector<AniRotateInfo,std::allocator<AniRotateInfo> >::clear, COMDAT
; _this$ = ecx

; 1217 : 		{	// erase all

  00000	55		 push	 ebp
  00001	8b ec		 mov	 ebp, esp
  00003	51		 push	 ecx

; 1218 : 		erase(begin(), end());

  00004	8b 41 04	 mov	 eax, DWORD PTR [ecx+4]
  00007	8b 11		 mov	 edx, DWORD PTR [ecx]
  00009	50		 push	 eax
  0000a	52		 push	 edx
  0000b	8d 45 fc	 lea	 eax, DWORD PTR $T562844[ebp]
  0000e	50		 push	 eax
  0000f	e8 00 00 00 00	 call	 ?erase@?$vector@UAniRotateInfo@@V?$allocator@UAniRotateInfo@@@std@@@std@@QAE?AV?$_Vector_iterator@V?$_Vector_val@UAniRotateInfo@@V?$allocator@UAniRotateInfo@@@std@@@std@@@2@V?$_Vector_const_iterator@V?$_Vector_val@UAniRotateInfo@@V?$allocator@UAniRotateInfo@@@std@@@std@@@2@0@Z ; std::vector<AniRotateInfo,std::allocator<AniRotateInfo> >::erase

; 1219 : 		}

  00014	c9		 leave
  00015	c3		 ret	 0
?clear@?$vector@UAniRotateInfo@@V?$allocator@UAniRotateInfo@@@std@@@std@@QAEXXZ ENDP ; std::vector<AniRotateInfo,std::allocator<AniRotateInfo> >::clear
_TEXT	ENDS
PUBLIC	?_Reserve@?$vector@UAniRotateInfo@@V?$allocator@UAniRotateInfo@@@std@@@std@@IAEXI@Z ; std::vector<AniRotateInfo,std::allocator<AniRotateInfo> >::_Reserve
; Function compile flags: /Ogsp
;	COMDAT ?_Reserve@?$vector@UAniRotateInfo@@V?$allocator@UAniRotateInfo@@@std@@@std@@IAEXI@Z
_TEXT	SEGMENT
__Count$ = 8						; size = 4
?_Reserve@?$vector@UAniRotateInfo@@V?$allocator@UAniRotateInfo@@@std@@@std@@IAEXI@Z PROC ; std::vector<AniRotateInfo,std::allocator<AniRotateInfo> >::_Reserve, COMDAT
; _this$ = ecx

; 1290 : 		{	// ensure room for _Count new elements, grow exponentially

  00000	55		 push	 ebp
  00001	8b ec		 mov	 ebp, esp
  00003	56		 push	 esi
  00004	8b f1		 mov	 esi, ecx

; 1291 : 		size_type _Size = size();

  00006	8b 0e		 mov	 ecx, DWORD PTR [esi]
  00008	8b 46 04	 mov	 eax, DWORD PTR [esi+4]
  0000b	2b c1		 sub	 eax, ecx

; 1292 : 		if (max_size() - _Count < _Size)

  0000d	ba ff ff ff 1f	 mov	 edx, 536870911		; 1fffffffH
  00012	2b 55 08	 sub	 edx, DWORD PTR __Count$[ebp]
  00015	c1 f8 03	 sar	 eax, 3
  00018	3b d0		 cmp	 edx, eax
  0001a	73 0b		 jae	 SHORT $LN4@Reserve

; 1293 : 			_Xlen();

  0001c	68 00 00 00 00	 push	 OFFSET ??_C@_0BD@OLBABOEK@vector?$DMT?$DO?5too?5long?$AA@
  00021	ff 15 00 00 00
	00		 call	 DWORD PTR __imp_?_Xlength_error@std@@YAXPBD@Z
$LN21@Reserve:
$LN4@Reserve:

; 1294 : 		else if ((_Size += _Count) <= capacity())

  00027	8b 56 08	 mov	 edx, DWORD PTR [esi+8]
  0002a	03 45 08	 add	 eax, DWORD PTR __Count$[ebp]
  0002d	2b d1		 sub	 edx, ecx
  0002f	c1 fa 03	 sar	 edx, 3
  00032	3b c2		 cmp	 eax, edx
  00034	76 10		 jbe	 SHORT $LN1@Reserve

; 1295 : 			;
; 1296 : 		else
; 1297 : 			reserve(_Grow_to(_Size));

  00036	50		 push	 eax
  00037	8b ce		 mov	 ecx, esi
  00039	e8 00 00 00 00	 call	 ?_Grow_to@?$vector@UAniRotateInfo@@V?$allocator@UAniRotateInfo@@@std@@@std@@IBEII@Z ; std::vector<AniRotateInfo,std::allocator<AniRotateInfo> >::_Grow_to
  0003e	50		 push	 eax
  0003f	8b ce		 mov	 ecx, esi
  00041	e8 00 00 00 00	 call	 ?reserve@?$vector@UAniRotateInfo@@V?$allocator@UAniRotateInfo@@@std@@@std@@QAEXI@Z ; std::vector<AniRotateInfo,std::allocator<AniRotateInfo> >::reserve
$LN1@Reserve:
  00046	5e		 pop	 esi

; 1298 : 		}

  00047	5d		 pop	 ebp
  00048	c2 04 00	 ret	 4
$LN20@Reserve:
?_Reserve@?$vector@UAniRotateInfo@@V?$allocator@UAniRotateInfo@@@std@@@std@@IAEXI@Z ENDP ; std::vector<AniRotateInfo,std::allocator<AniRotateInfo> >::_Reserve
_TEXT	ENDS
PUBLIC	?_Tidy@?$vector@UtagBaseCharDistanceSq@@V?$allocator@UtagBaseCharDistanceSq@@@std@@@std@@IAEXXZ ; std::vector<tagBaseCharDistanceSq,std::allocator<tagBaseCharDistanceSq> >::_Tidy
; Function compile flags: /Ogsp
;	COMDAT ?_Tidy@?$vector@UtagBaseCharDistanceSq@@V?$allocator@UtagBaseCharDistanceSq@@@std@@@std@@IAEXXZ
_TEXT	SEGMENT
?_Tidy@?$vector@UtagBaseCharDistanceSq@@V?$allocator@UtagBaseCharDistanceSq@@@std@@@std@@IAEXXZ PROC ; std::vector<tagBaseCharDistanceSq,std::allocator<tagBaseCharDistanceSq> >::_Tidy, COMDAT
; _this$ = ecx

; 1301 : 		{	// free all storage

  00000	56		 push	 esi
  00001	8b f1		 mov	 esi, ecx

; 1302 : 		if (this->_Myfirst != 0)

  00003	83 3e 00	 cmp	 DWORD PTR [esi], 0
  00006	74 28		 je	 SHORT $LN27@Tidy@4

; 1303 : 			{	// something to free, destroy and deallocate it
; 1304 : 			this->_Orphan_all();

  00008	53		 push	 ebx
  00009	57		 push	 edi
  0000a	ff 15 00 00 00
	00		 call	 DWORD PTR __imp_?_Orphan_all@_Container_base0@std@@QAEXXZ

; 1305 : 			_Destroy(this->_Myfirst, this->_Mylast);

  00010	8b 5e 04	 mov	 ebx, DWORD PTR [esi+4]
  00013	8b 3e		 mov	 edi, DWORD PTR [esi]
  00015	eb 0b		 jmp	 SHORT $LN31@Tidy@4
$LL12@Tidy@4:
  00017	8b cf		 mov	 ecx, edi
  00019	ff 15 00 00 00
	00		 call	 DWORD PTR __imp_??1ioHashString@@QAE@XZ
  0001f	83 c7 20	 add	 edi, 32			; 00000020H
$LN31@Tidy@4:
  00022	3b fb		 cmp	 edi, ebx
  00024	75 f1		 jne	 SHORT $LL12@Tidy@4

; 1306 : 			this->_Alval.deallocate(this->_Myfirst,
; 1307 : 				this->_Myend - this->_Myfirst);

  00026	ff 36		 push	 DWORD PTR [esi]
  00028	e8 00 00 00 00	 call	 ??3@YAXPAX@Z		; operator delete
  0002d	59		 pop	 ecx
  0002e	5f		 pop	 edi
  0002f	5b		 pop	 ebx
$LN27@Tidy@4:

; 1308 : 			}
; 1309 : 		this->_Myfirst = 0;

  00030	33 c0		 xor	 eax, eax
  00032	89 06		 mov	 DWORD PTR [esi], eax

; 1310 : 		this->_Mylast = 0;

  00034	89 46 04	 mov	 DWORD PTR [esi+4], eax

; 1311 : 		this->_Myend = 0;

  00037	89 46 08	 mov	 DWORD PTR [esi+8], eax
  0003a	5e		 pop	 esi

; 1312 : 		}

  0003b	c3		 ret	 0
?_Tidy@?$vector@UtagBaseCharDistanceSq@@V?$allocator@UtagBaseCharDistanceSq@@@std@@@std@@IAEXXZ ENDP ; std::vector<tagBaseCharDistanceSq,std::allocator<tagBaseCharDistanceSq> >::_Tidy
_TEXT	ENDS
PUBLIC	?reserve@?$vector@UtagBaseCharDistanceSq@@V?$allocator@UtagBaseCharDistanceSq@@@std@@@std@@QAEXI@Z ; std::vector<tagBaseCharDistanceSq,std::allocator<tagBaseCharDistanceSq> >::reserve
;	COMDAT xdata$x
; File c:\program files (x86)\microsoft visual studio 10.0\vc\include\xmemory
xdata$x	SEGMENT
__catchsym$?reserve@?$vector@UtagBaseCharDistanceSq@@V?$allocator@UtagBaseCharDistanceSq@@@std@@@std@@QAEXI@Z$3 DD 040H
	DD	00H
	DD	00H
	DD	FLAT:__catch$?reserve@?$vector@UtagBaseCharDistanceSq@@V?$allocator@UtagBaseCharDistanceSq@@@std@@@std@@QAEXI@Z$0
__unwindtable$?reserve@?$vector@UtagBaseCharDistanceSq@@V?$allocator@UtagBaseCharDistanceSq@@@std@@@std@@QAEXI@Z DD 0ffffffffH
	DD	00H
	DD	0ffffffffH
	DD	00H
__tryblocktable$?reserve@?$vector@UtagBaseCharDistanceSq@@V?$allocator@UtagBaseCharDistanceSq@@@std@@@std@@QAEXI@Z DD 00H
	DD	00H
	DD	01H
	DD	01H
	DD	FLAT:__catchsym$?reserve@?$vector@UtagBaseCharDistanceSq@@V?$allocator@UtagBaseCharDistanceSq@@@std@@@std@@QAEXI@Z$3
__ehfuncinfo$?reserve@?$vector@UtagBaseCharDistanceSq@@V?$allocator@UtagBaseCharDistanceSq@@@std@@@std@@QAEXI@Z DD 019930522H
	DD	02H
	DD	FLAT:__unwindtable$?reserve@?$vector@UtagBaseCharDistanceSq@@V?$allocator@UtagBaseCharDistanceSq@@@std@@@std@@QAEXI@Z
	DD	01H
	DD	FLAT:__tryblocktable$?reserve@?$vector@UtagBaseCharDistanceSq@@V?$allocator@UtagBaseCharDistanceSq@@@std@@@std@@QAEXI@Z
	DD	2 DUP(00H)
	DD	00H
	DD	01H
; Function compile flags: /Ogsp
; File c:\program files (x86)\microsoft visual studio 10.0\vc\include\vector
xdata$x	ENDS
;	COMDAT ?reserve@?$vector@UtagBaseCharDistanceSq@@V?$allocator@UtagBaseCharDistanceSq@@@std@@@std@@QAEXI@Z
_TEXT	SEGMENT
tv300 = -24						; size = 4
__Ptr$550356 = -20					; size = 4
__$EHRec$ = -16						; size = 16
$T563156 = 8						; size = 4
__Count$ = 8						; size = 4
?reserve@?$vector@UtagBaseCharDistanceSq@@V?$allocator@UtagBaseCharDistanceSq@@@std@@@std@@QAEXI@Z PROC ; std::vector<tagBaseCharDistanceSq,std::allocator<tagBaseCharDistanceSq> >::reserve, COMDAT
; _this$ = ecx

; 746  : 		{	// determine new minimum length of allocated storage

  00000	6a 0c		 push	 12			; 0000000cH
  00002	b8 00 00 00 00	 mov	 eax, __ehhandler$?reserve@?$vector@UtagBaseCharDistanceSq@@V?$allocator@UtagBaseCharDistanceSq@@@std@@@std@@QAEXI@Z
  00007	e8 00 00 00 00	 call	 __EH_prolog3_catch
  0000c	8b f1		 mov	 esi, ecx

; 747  : 		if (max_size() < _Count)

  0000e	8b 5d 08	 mov	 ebx, DWORD PTR __Count$[ebp]
  00011	81 fb ff ff ff
	07		 cmp	 ebx, 134217727		; 07ffffffH
  00017	76 0b		 jbe	 SHORT $LN5@reserve@2

; 748  : 			_Xlen();	// result too long

  00019	68 00 00 00 00	 push	 OFFSET ??_C@_0BD@OLBABOEK@vector?$DMT?$DO?5too?5long?$AA@
  0001e	ff 15 00 00 00
	00		 call	 DWORD PTR __imp_?_Xlength_error@std@@YAXPBD@Z
$LN62@reserve@2:
$LN5@reserve@2:

; 749  : 		else if (capacity() < _Count)

  00024	8b 46 08	 mov	 eax, DWORD PTR [esi+8]
  00027	2b 06		 sub	 eax, DWORD PTR [esi]
  00029	c1 f8 05	 sar	 eax, 5
  0002c	3b c3		 cmp	 eax, ebx
  0002e	73 7a		 jae	 SHORT $LN3@reserve@2

; 750  : 			{	// not enough room, reallocate
; 751  : 			pointer _Ptr = this->_Alval.allocate(_Count);

  00030	6a 00		 push	 0
  00032	53		 push	 ebx
  00033	e8 00 00 00 00	 call	 ??$_Allocate@UtagBaseCharDistanceSq@@@std@@YAPAUtagBaseCharDistanceSq@@IPAU1@@Z ; std::_Allocate<tagBaseCharDistanceSq>

; 752  : 
; 753  : 			_TRY_BEGIN
; 754  : 			_Umove(this->_Myfirst, this->_Mylast, _Ptr);

  00038	8b 0e		 mov	 ecx, DWORD PTR [esi]
  0003a	83 65 fc 00	 and	 DWORD PTR __$EHRec$[ebp+12], 0
  0003e	8d 56 0c	 lea	 edx, DWORD PTR [esi+12]
  00041	52		 push	 edx
  00042	89 45 ec	 mov	 DWORD PTR __Ptr$550356[ebp], eax
  00045	ff 75 ec	 push	 DWORD PTR __Ptr$550356[ebp]
  00048	8b 46 04	 mov	 eax, DWORD PTR [esi+4]
  0004b	50		 push	 eax
  0004c	51		 push	 ecx
  0004d	e8 00 00 00 00	 call	 ??$_Uninitialized_move@PAUtagBaseCharDistanceSq@@PAU1@V?$allocator@UtagBaseCharDistanceSq@@@std@@@std@@YAPAUtagBaseCharDistanceSq@@PAU1@00AAV?$allocator@UtagBaseCharDistanceSq@@@0@@Z ; std::_Uninitialized_move<tagBaseCharDistanceSq *,tagBaseCharDistanceSq *,std::allocator<tagBaseCharDistanceSq> >

; 758  : 			_CATCH_END
; 759  : 
; 760  : 			size_type _Size = size();

  00052	8b 4e 04	 mov	 ecx, DWORD PTR [esi+4]
  00055	8b 06		 mov	 eax, DWORD PTR [esi]
  00057	83 4d fc ff	 or	 DWORD PTR __$EHRec$[ebp+12], -1
  0005b	8b f9		 mov	 edi, ecx
  0005d	83 c4 18	 add	 esp, 24			; 00000018H
  00060	2b f8		 sub	 edi, eax
  00062	89 4d e8	 mov	 DWORD PTR tv300[ebp], ecx
  00065	85 c0		 test	 eax, eax
  00067	74 24		 je	 SHORT $LN54@reserve@2

; 761  : 			if (this->_Myfirst != 0)
; 762  : 				{	// destroy and deallocate old array
; 763  : 				_Destroy(this->_Myfirst, this->_Mylast);

  00069	89 45 08	 mov	 DWORD PTR $T563156[ebp], eax
  0006c	3b c1		 cmp	 eax, ecx
  0006e	74 15		 je	 SHORT $LN37@reserve@2
$LN39@reserve@2:
  00070	8b 4d 08	 mov	 ecx, DWORD PTR $T563156[ebp]
  00073	ff 15 00 00 00
	00		 call	 DWORD PTR __imp_??1ioHashString@@QAE@XZ
  00079	83 45 08 20	 add	 DWORD PTR $T563156[ebp], 32 ; 00000020H
  0007d	8b 45 08	 mov	 eax, DWORD PTR $T563156[ebp]
  00080	3b 45 e8	 cmp	 eax, DWORD PTR tv300[ebp]
  00083	75 eb		 jne	 SHORT $LN39@reserve@2
$LN37@reserve@2:

; 764  : 				this->_Alval.deallocate(this->_Myfirst,
; 765  : 					this->_Myend - this->_Myfirst);

  00085	ff 36		 push	 DWORD PTR [esi]
  00087	e8 00 00 00 00	 call	 ??3@YAXPAX@Z		; operator delete
  0008c	59		 pop	 ecx
$LN54@reserve@2:

; 766  : 				}
; 767  : 
; 768  : 			this->_Orphan_all();

  0008d	8b ce		 mov	 ecx, esi
  0008f	ff 15 00 00 00
	00		 call	 DWORD PTR __imp_?_Orphan_all@_Container_base0@std@@QAEXXZ

; 769  : 			this->_Myend = _Ptr + _Count;

  00095	8b 45 ec	 mov	 eax, DWORD PTR __Ptr$550356[ebp]
  00098	c1 e3 05	 shl	 ebx, 5
  0009b	03 d8		 add	 ebx, eax

; 770  : 			this->_Mylast = _Ptr + _Size;

  0009d	83 e7 e0	 and	 edi, -32		; ffffffe0H
  000a0	03 f8		 add	 edi, eax
  000a2	89 5e 08	 mov	 DWORD PTR [esi+8], ebx
  000a5	89 7e 04	 mov	 DWORD PTR [esi+4], edi

; 771  : 			this->_Myfirst = _Ptr;

  000a8	89 06		 mov	 DWORD PTR [esi], eax
$LN3@reserve@2:

; 772  : 			}
; 773  : 		}

  000aa	e8 00 00 00 00	 call	 __EH_epilog3
  000af	c2 04 00	 ret	 4
__catch$?reserve@?$vector@UtagBaseCharDistanceSq@@V?$allocator@UtagBaseCharDistanceSq@@@std@@@std@@QAEXI@Z$0:

; 755  : 			_CATCH_ALL
; 756  : 			this->_Alval.deallocate(_Ptr, _Count);

  000b2	ff 75 ec	 push	 DWORD PTR __Ptr$550356[ebp]
  000b5	e8 00 00 00 00	 call	 ??3@YAXPAX@Z		; operator delete
  000ba	59		 pop	 ecx

; 757  : 			_RERAISE;

  000bb	6a 00		 push	 0
  000bd	6a 00		 push	 0
  000bf	e8 00 00 00 00	 call	 __CxxThrowException@8
$LN63@reserve@2:
$LN61@reserve@2:
  000c4	cc		 int	 3
_TEXT	ENDS
;	COMDAT text$x
text$x	SEGMENT
__ehhandler$?reserve@?$vector@UtagBaseCharDistanceSq@@V?$allocator@UtagBaseCharDistanceSq@@@std@@@std@@QAEXI@Z:
  00000	8b 54 24 08	 mov	 edx, DWORD PTR [esp+8]
  00004	8d 42 0c	 lea	 eax, DWORD PTR [edx+12]
  00007	8b 4a e4	 mov	 ecx, DWORD PTR [edx-28]
  0000a	33 c8		 xor	 ecx, eax
  0000c	e8 00 00 00 00	 call	 @__security_check_cookie@4
  00011	b8 00 00 00 00	 mov	 eax, OFFSET __ehfuncinfo$?reserve@?$vector@UtagBaseCharDistanceSq@@V?$allocator@UtagBaseCharDistanceSq@@@std@@@std@@QAEXI@Z
  00016	e9 00 00 00 00	 jmp	 ___CxxFrameHandler3
text$x	ENDS
?reserve@?$vector@UtagBaseCharDistanceSq@@V?$allocator@UtagBaseCharDistanceSq@@@std@@@std@@QAEXI@Z ENDP ; std::vector<tagBaseCharDistanceSq,std::allocator<tagBaseCharDistanceSq> >::reserve
PUBLIC	??$_Sort@PAUtagBaseCharDistanceSq@@HVBaseCharDistanceSqSort2@@@std@@YAXPAUtagBaseCharDistanceSq@@0HVBaseCharDistanceSqSort2@@@Z ; std::_Sort<tagBaseCharDistanceSq *,int,BaseCharDistanceSqSort2>
; Function compile flags: /Ogsp
; File c:\program files (x86)\microsoft visual studio 10.0\vc\include\algorithm
;	COMDAT ??$_Sort@PAUtagBaseCharDistanceSq@@HVBaseCharDistanceSqSort2@@@std@@YAXPAUtagBaseCharDistanceSq@@0HVBaseCharDistanceSqSort2@@@Z
_TEXT	SEGMENT
__Mid$554614 = -8					; size = 8
__First$ = 8						; size = 4
__Last$ = 12						; size = 4
__Ideal$ = 16						; size = 4
__Pred$ = 20						; size = 1
??$_Sort@PAUtagBaseCharDistanceSq@@HVBaseCharDistanceSqSort2@@@std@@YAXPAUtagBaseCharDistanceSq@@0HVBaseCharDistanceSqSort2@@@Z PROC ; std::_Sort<tagBaseCharDistanceSq *,int,BaseCharDistanceSqSort2>, COMDAT

; 3771 : 	{	// order [_First, _Last), using _Pred

  00000	55		 push	 ebp
  00001	8b ec		 mov	 ebp, esp
  00003	51		 push	 ecx
  00004	51		 push	 ecx
  00005	53		 push	 ebx

; 3772 : 	_Diff _Count;
; 3773 : 	for (; _ISORT_MAX < (_Count = _Last - _First) && 0 < _Ideal; )

  00006	8b 5d 08	 mov	 ebx, DWORD PTR __First$[ebp]
  00009	57		 push	 edi
  0000a	8b 7d 0c	 mov	 edi, DWORD PTR __Last$[ebp]
  0000d	8b c7		 mov	 eax, edi
  0000f	2b c3		 sub	 eax, ebx
  00011	c1 f8 05	 sar	 eax, 5
  00014	83 f8 20	 cmp	 eax, 32			; 00000020H
  00017	0f 8e 89 00 00
	00		 jle	 $LN22@Sort
  0001d	56		 push	 esi
  0001e	8b 75 10	 mov	 esi, DWORD PTR __Ideal$[ebp]
$LL7@Sort:
  00021	85 f6		 test	 esi, esi
  00023	7e 62		 jle	 SHORT $LN6@Sort

; 3774 : 		{	// divide and conquer by quicksort
; 3775 : 		_STD pair<_RanIt, _RanIt> _Mid =
; 3776 : 			_Unguarded_partition(_First, _Last, _Pred);

  00025	ff 75 14	 push	 DWORD PTR __Pred$[ebp]
  00028	8d 45 f8	 lea	 eax, DWORD PTR __Mid$554614[ebp]
  0002b	57		 push	 edi
  0002c	53		 push	 ebx
  0002d	50		 push	 eax
  0002e	e8 00 00 00 00	 call	 ??$_Unguarded_partition@PAUtagBaseCharDistanceSq@@VBaseCharDistanceSqSort2@@@std@@YA?AU?$pair@PAUtagBaseCharDistanceSq@@PAU1@@0@PAUtagBaseCharDistanceSq@@0VBaseCharDistanceSqSort2@@@Z ; std::_Unguarded_partition<tagBaseCharDistanceSq *,BaseCharDistanceSqSort2>

; 3777 : 		_Ideal /= 2, _Ideal += _Ideal / 2;	// allow 1.5 log2(N) divisions
; 3778 : 
; 3779 : 		if (_Mid.first - _First < _Last - _Mid.second)

  00033	8b 4d f8	 mov	 ecx, DWORD PTR __Mid$554614[ebp]
  00036	8b c6		 mov	 eax, esi
  00038	99		 cdq
  00039	2b c2		 sub	 eax, edx
  0003b	d1 f8		 sar	 eax, 1
  0003d	8b f0		 mov	 esi, eax
  0003f	99		 cdq
  00040	2b c2		 sub	 eax, edx
  00042	d1 f8		 sar	 eax, 1
  00044	03 f0		 add	 esi, eax
  00046	8b c7		 mov	 eax, edi
  00048	2b 45 fc	 sub	 eax, DWORD PTR __Mid$554614[ebp+4]
  0004b	83 c4 10	 add	 esp, 16			; 00000010H

; 3780 : 			{	// loop on second half
; 3781 : 			_Sort(_First, _Mid.first, _Ideal, _Pred);

  0004e	ff 75 14	 push	 DWORD PTR __Pred$[ebp]
  00051	2b cb		 sub	 ecx, ebx
  00053	83 e0 e0	 and	 eax, -32		; ffffffe0H
  00056	83 e1 e0	 and	 ecx, -32		; ffffffe0H
  00059	56		 push	 esi
  0005a	3b c8		 cmp	 ecx, eax
  0005c	7d 0e		 jge	 SHORT $LN5@Sort
  0005e	ff 75 f8	 push	 DWORD PTR __Mid$554614[ebp]
  00061	53		 push	 ebx
  00062	e8 00 00 00 00	 call	 ??$_Sort@PAUtagBaseCharDistanceSq@@HVBaseCharDistanceSqSort2@@@std@@YAXPAUtagBaseCharDistanceSq@@0HVBaseCharDistanceSqSort2@@@Z ; std::_Sort<tagBaseCharDistanceSq *,int,BaseCharDistanceSqSort2>

; 3782 : 			_First = _Mid.second;

  00067	8b 5d fc	 mov	 ebx, DWORD PTR __Mid$554614[ebp+4]

; 3783 : 			}
; 3784 : 		else

  0006a	eb 0c		 jmp	 SHORT $LN23@Sort
$LN5@Sort:

; 3785 : 			{	// loop on first half
; 3786 : 			_Sort(_Mid.second, _Last, _Ideal, _Pred);

  0006c	57		 push	 edi
  0006d	ff 75 fc	 push	 DWORD PTR __Mid$554614[ebp+4]
  00070	e8 00 00 00 00	 call	 ??$_Sort@PAUtagBaseCharDistanceSq@@HVBaseCharDistanceSqSort2@@@std@@YAXPAUtagBaseCharDistanceSq@@0HVBaseCharDistanceSqSort2@@@Z ; std::_Sort<tagBaseCharDistanceSq *,int,BaseCharDistanceSqSort2>

; 3787 : 			_Last = _Mid.first;

  00075	8b 7d f8	 mov	 edi, DWORD PTR __Mid$554614[ebp]
$LN23@Sort:

; 3772 : 	_Diff _Count;
; 3773 : 	for (; _ISORT_MAX < (_Count = _Last - _First) && 0 < _Ideal; )

  00078	8b c7		 mov	 eax, edi
  0007a	2b c3		 sub	 eax, ebx
  0007c	c1 f8 05	 sar	 eax, 5

; 3785 : 			{	// loop on first half
; 3786 : 			_Sort(_Mid.second, _Last, _Ideal, _Pred);

  0007f	83 c4 10	 add	 esp, 16			; 00000010H
  00082	83 f8 20	 cmp	 eax, 32			; 00000020H
  00085	7f 9a		 jg	 SHORT $LL7@Sort
$LN6@Sort:
  00087	5e		 pop	 esi

; 3788 : 			}
; 3789 : 		}
; 3790 : 
; 3791 : 	if (_ISORT_MAX < _Count)

  00088	83 f8 20	 cmp	 eax, 32			; 00000020H
  0008b	7e 19		 jle	 SHORT $LN22@Sort

; 3792 : 		{	// heap sort if too many divisions
; 3793 : 		_STD make_heap(_First, _Last, _Pred);

  0008d	ff 75 14	 push	 DWORD PTR __Pred$[ebp]
  00090	57		 push	 edi
  00091	53		 push	 ebx
  00092	e8 00 00 00 00	 call	 ??$make_heap@PAUtagBaseCharDistanceSq@@VBaseCharDistanceSqSort2@@@std@@YAXPAUtagBaseCharDistanceSq@@0VBaseCharDistanceSqSort2@@@Z ; std::make_heap<tagBaseCharDistanceSq *,BaseCharDistanceSqSort2>

; 3794 : 		_STD sort_heap(_First, _Last, _Pred);

  00097	ff 75 14	 push	 DWORD PTR __Pred$[ebp]
  0009a	57		 push	 edi
  0009b	53		 push	 ebx
  0009c	e8 00 00 00 00	 call	 ??$_Sort_heap@PAUtagBaseCharDistanceSq@@VBaseCharDistanceSqSort2@@@std@@YAXPAUtagBaseCharDistanceSq@@0VBaseCharDistanceSqSort2@@@Z ; std::_Sort_heap<tagBaseCharDistanceSq *,BaseCharDistanceSqSort2>
  000a1	83 c4 18	 add	 esp, 24			; 00000018H
  000a4	eb 14		 jmp	 SHORT $LN16@Sort
$LN22@Sort:

; 3795 : 		}
; 3796 : 	else if (1 < _Count)

  000a6	83 f8 01	 cmp	 eax, 1
  000a9	7e 0f		 jle	 SHORT $LN16@Sort

; 3797 : 		_Insertion_sort(_First, _Last, _Pred);	// small

  000ab	6a 00		 push	 0
  000ad	ff 75 14	 push	 DWORD PTR __Pred$[ebp]
  000b0	57		 push	 edi
  000b1	53		 push	 ebx
  000b2	e8 00 00 00 00	 call	 ??$_Insertion_sort1@PAUtagBaseCharDistanceSq@@VBaseCharDistanceSqSort2@@U1@@std@@YAXPAUtagBaseCharDistanceSq@@0VBaseCharDistanceSqSort2@@0@Z ; std::_Insertion_sort1<tagBaseCharDistanceSq *,BaseCharDistanceSqSort2,tagBaseCharDistanceSq>
  000b7	83 c4 10	 add	 esp, 16			; 00000010H
$LN16@Sort:
  000ba	5f		 pop	 edi
  000bb	5b		 pop	 ebx

; 3798 : 	}

  000bc	c9		 leave
  000bd	c3		 ret	 0
??$_Sort@PAUtagBaseCharDistanceSq@@HVBaseCharDistanceSqSort2@@@std@@YAXPAUtagBaseCharDistanceSq@@0HVBaseCharDistanceSqSort2@@@Z ENDP ; std::_Sort<tagBaseCharDistanceSq *,int,BaseCharDistanceSqSort2>
_TEXT	ENDS
PUBLIC	?push_back@?$vector@UAniRotateInfo@@V?$allocator@UAniRotateInfo@@@std@@@std@@QAEXABUAniRotateInfo@@@Z ; std::vector<AniRotateInfo,std::allocator<AniRotateInfo> >::push_back
; Function compile flags: /Ogsp
; File c:\program files (x86)\microsoft visual studio 10.0\vc\include\vector
;	COMDAT ?push_back@?$vector@UAniRotateInfo@@V?$allocator@UAniRotateInfo@@@std@@@std@@QAEXABUAniRotateInfo@@@Z
_TEXT	SEGMENT
__Val$ = 8						; size = 4
?push_back@?$vector@UAniRotateInfo@@V?$allocator@UAniRotateInfo@@@std@@@std@@QAEXABUAniRotateInfo@@@Z PROC ; std::vector<AniRotateInfo,std::allocator<AniRotateInfo> >::push_back, COMDAT
; _this$ = ecx

; 976  : 		{	// insert element at end

  00000	55		 push	 ebp
  00001	8b ec		 mov	 ebp, esp
  00003	56		 push	 esi
  00004	8b f1		 mov	 esi, ecx

; 977  : 		if (_Inside(_STD addressof(_Val)))

  00006	8b 46 04	 mov	 eax, DWORD PTR [esi+4]
  00009	57		 push	 edi
  0000a	8b 7d 08	 mov	 edi, DWORD PTR __Val$[ebp]
  0000d	3b f8		 cmp	 edi, eax
  0000f	73 2d		 jae	 SHORT $LN4@push_back
  00011	8b 0e		 mov	 ecx, DWORD PTR [esi]
  00013	3b cf		 cmp	 ecx, edi
  00015	77 27		 ja	 SHORT $LN4@push_back

; 978  : 			{	// push back an element
; 979  : 			size_type _Idx = _STD addressof(_Val) - this->_Myfirst;

  00017	2b f9		 sub	 edi, ecx
  00019	c1 ff 03	 sar	 edi, 3

; 980  : 			if (this->_Mylast == this->_Myend)

  0001c	3b 46 08	 cmp	 eax, DWORD PTR [esi+8]
  0001f	75 09		 jne	 SHORT $LN3@push_back

; 981  : 				_Reserve(1);

  00021	6a 01		 push	 1
  00023	8b ce		 mov	 ecx, esi
  00025	e8 00 00 00 00	 call	 ?_Reserve@?$vector@UAniRotateInfo@@V?$allocator@UAniRotateInfo@@@std@@@std@@IAEXI@Z ; std::vector<AniRotateInfo,std::allocator<AniRotateInfo> >::_Reserve
$LN3@push_back:

; 982  : 			_Orphan_range(this->_Mylast, this->_Mylast);
; 983  : 			_Cons_val(this->_Alval,
; 984  : 				this->_Mylast,
; 985  : 				this->_Myfirst[_Idx]);

  0002a	8b 06		 mov	 eax, DWORD PTR [esi]
  0002c	8d 04 f8	 lea	 eax, DWORD PTR [eax+edi*8]
  0002f	50		 push	 eax
  00030	ff 76 04	 push	 DWORD PTR [esi+4]
  00033	8d 46 0c	 lea	 eax, DWORD PTR [esi+12]
  00036	50		 push	 eax
  00037	e8 00 00 00 00	 call	 ??$_Cons_val@V?$allocator@UAniRotateInfo@@@std@@UAniRotateInfo@@AAU3@@std@@YAXAAV?$allocator@UAniRotateInfo@@@0@PAUAniRotateInfo@@AAU2@@Z ; std::_Cons_val<std::allocator<AniRotateInfo>,AniRotateInfo,AniRotateInfo &>

; 986  : 			++this->_Mylast;
; 987  : 			}
; 988  : 		else

  0003c	eb 1b		 jmp	 SHORT $LN20@push_back
$LN4@push_back:

; 989  : 			{	// push back a non-element
; 990  : 			if (this->_Mylast == this->_Myend)

  0003e	3b 46 08	 cmp	 eax, DWORD PTR [esi+8]
  00041	75 09		 jne	 SHORT $LN1@push_back

; 991  : 				_Reserve(1);

  00043	6a 01		 push	 1
  00045	8b ce		 mov	 ecx, esi
  00047	e8 00 00 00 00	 call	 ?_Reserve@?$vector@UAniRotateInfo@@V?$allocator@UAniRotateInfo@@@std@@@std@@IAEXI@Z ; std::vector<AniRotateInfo,std::allocator<AniRotateInfo> >::_Reserve
$LN1@push_back:

; 992  : 			_Orphan_range(this->_Mylast, this->_Mylast);
; 993  : 			_Cons_val(this->_Alval,
; 994  : 				this->_Mylast,
; 995  : 				_Val);

  0004c	57		 push	 edi
  0004d	ff 76 04	 push	 DWORD PTR [esi+4]
  00050	8d 46 0c	 lea	 eax, DWORD PTR [esi+12]
  00053	50		 push	 eax
  00054	e8 00 00 00 00	 call	 ??$_Cons_val@V?$allocator@UAniRotateInfo@@@std@@UAniRotateInfo@@ABU3@@std@@YAXAAV?$allocator@UAniRotateInfo@@@0@PAUAniRotateInfo@@ABU2@@Z ; std::_Cons_val<std::allocator<AniRotateInfo>,AniRotateInfo,AniRotateInfo const &>
$LN20@push_back:
  00059	83 c4 0c	 add	 esp, 12			; 0000000cH

; 996  : 			++this->_Mylast;

  0005c	83 46 04 08	 add	 DWORD PTR [esi+4], 8
  00060	5f		 pop	 edi
  00061	5e		 pop	 esi

; 997  : 			}
; 998  : 		}

  00062	5d		 pop	 ebp
  00063	c2 04 00	 ret	 4
?push_back@?$vector@UAniRotateInfo@@V?$allocator@UAniRotateInfo@@@std@@@std@@QAEXABUAniRotateInfo@@@Z ENDP ; std::vector<AniRotateInfo,std::allocator<AniRotateInfo> >::push_back
_TEXT	ENDS
PUBLIC	??1?$vector@UtagBaseCharDistanceSq@@V?$allocator@UtagBaseCharDistanceSq@@@std@@@std@@QAE@XZ ; std::vector<tagBaseCharDistanceSq,std::allocator<tagBaseCharDistanceSq> >::~vector<tagBaseCharDistanceSq,std::allocator<tagBaseCharDistanceSq> >
; Function compile flags: /Ogsp
;	COMDAT ??1?$vector@UtagBaseCharDistanceSq@@V?$allocator@UtagBaseCharDistanceSq@@@std@@@std@@QAE@XZ
_TEXT	SEGMENT
??1?$vector@UtagBaseCharDistanceSq@@V?$allocator@UtagBaseCharDistanceSq@@@std@@@std@@QAE@XZ PROC ; std::vector<tagBaseCharDistanceSq,std::allocator<tagBaseCharDistanceSq> >::~vector<tagBaseCharDistanceSq,std::allocator<tagBaseCharDistanceSq> >, COMDAT
; _this$ = ecx

; 705  : 		_Tidy();

  00000	e9 00 00 00 00	 jmp	 ?_Tidy@?$vector@UtagBaseCharDistanceSq@@V?$allocator@UtagBaseCharDistanceSq@@@std@@@std@@IAEXXZ ; std::vector<tagBaseCharDistanceSq,std::allocator<tagBaseCharDistanceSq> >::_Tidy
??1?$vector@UtagBaseCharDistanceSq@@V?$allocator@UtagBaseCharDistanceSq@@@std@@@std@@QAE@XZ ENDP ; std::vector<tagBaseCharDistanceSq,std::allocator<tagBaseCharDistanceSq> >::~vector<tagBaseCharDistanceSq,std::allocator<tagBaseCharDistanceSq> >
_TEXT	ENDS
PUBLIC	?_Reserve@?$vector@UtagBaseCharDistanceSq@@V?$allocator@UtagBaseCharDistanceSq@@@std@@@std@@IAEXI@Z ; std::vector<tagBaseCharDistanceSq,std::allocator<tagBaseCharDistanceSq> >::_Reserve
; Function compile flags: /Ogsp
;	COMDAT ?_Reserve@?$vector@UtagBaseCharDistanceSq@@V?$allocator@UtagBaseCharDistanceSq@@@std@@@std@@IAEXI@Z
_TEXT	SEGMENT
__Count$ = 8						; size = 4
?_Reserve@?$vector@UtagBaseCharDistanceSq@@V?$allocator@UtagBaseCharDistanceSq@@@std@@@std@@IAEXI@Z PROC ; std::vector<tagBaseCharDistanceSq,std::allocator<tagBaseCharDistanceSq> >::_Reserve, COMDAT
; _this$ = ecx

; 1290 : 		{	// ensure room for _Count new elements, grow exponentially

  00000	55		 push	 ebp
  00001	8b ec		 mov	 ebp, esp
  00003	56		 push	 esi
  00004	8b f1		 mov	 esi, ecx

; 1291 : 		size_type _Size = size();

  00006	8b 0e		 mov	 ecx, DWORD PTR [esi]
  00008	8b 46 04	 mov	 eax, DWORD PTR [esi+4]
  0000b	2b c1		 sub	 eax, ecx

; 1292 : 		if (max_size() - _Count < _Size)

  0000d	ba ff ff ff 07	 mov	 edx, 134217727		; 07ffffffH
  00012	2b 55 08	 sub	 edx, DWORD PTR __Count$[ebp]
  00015	c1 f8 05	 sar	 eax, 5
  00018	3b d0		 cmp	 edx, eax
  0001a	73 0b		 jae	 SHORT $LN4@Reserve@2

; 1293 : 			_Xlen();

  0001c	68 00 00 00 00	 push	 OFFSET ??_C@_0BD@OLBABOEK@vector?$DMT?$DO?5too?5long?$AA@
  00021	ff 15 00 00 00
	00		 call	 DWORD PTR __imp_?_Xlength_error@std@@YAXPBD@Z
$LN21@Reserve@2:
$LN4@Reserve@2:

; 1294 : 		else if ((_Size += _Count) <= capacity())

  00027	8b 56 08	 mov	 edx, DWORD PTR [esi+8]
  0002a	03 45 08	 add	 eax, DWORD PTR __Count$[ebp]
  0002d	2b d1		 sub	 edx, ecx
  0002f	c1 fa 05	 sar	 edx, 5
  00032	3b c2		 cmp	 eax, edx
  00034	76 10		 jbe	 SHORT $LN1@Reserve@2

; 1295 : 			;
; 1296 : 		else
; 1297 : 			reserve(_Grow_to(_Size));

  00036	50		 push	 eax
  00037	8b ce		 mov	 ecx, esi
  00039	e8 00 00 00 00	 call	 ?_Grow_to@?$vector@UtagBaseCharDistanceSq@@V?$allocator@UtagBaseCharDistanceSq@@@std@@@std@@IBEII@Z ; std::vector<tagBaseCharDistanceSq,std::allocator<tagBaseCharDistanceSq> >::_Grow_to
  0003e	50		 push	 eax
  0003f	8b ce		 mov	 ecx, esi
  00041	e8 00 00 00 00	 call	 ?reserve@?$vector@UtagBaseCharDistanceSq@@V?$allocator@UtagBaseCharDistanceSq@@@std@@@std@@QAEXI@Z ; std::vector<tagBaseCharDistanceSq,std::allocator<tagBaseCharDistanceSq> >::reserve
$LN1@Reserve@2:
  00046	5e		 pop	 esi

; 1298 : 		}

  00047	5d		 pop	 ebp
  00048	c2 04 00	 ret	 4
$LN20@Reserve@2:
?_Reserve@?$vector@UtagBaseCharDistanceSq@@V?$allocator@UtagBaseCharDistanceSq@@@std@@@std@@IAEXI@Z ENDP ; std::vector<tagBaseCharDistanceSq,std::allocator<tagBaseCharDistanceSq> >::_Reserve
_TEXT	ENDS
PUBLIC	??$sort@V?$_Vector_iterator@V?$_Vector_val@UtagBaseCharDistanceSq@@V?$allocator@UtagBaseCharDistanceSq@@@std@@@std@@@std@@VBaseCharDistanceSqSort2@@@std@@YAXV?$_Vector_iterator@V?$_Vector_val@UtagBaseCharDistanceSq@@V?$allocator@UtagBaseCharDistanceSq@@@std@@@std@@@0@0VBaseCharDistanceSqSort2@@@Z ; std::sort<std::_Vector_iterator<std::_Vector_val<tagBaseCharDistanceSq,std::allocator<tagBaseCharDistanceSq> > >,BaseCharDistanceSqSort2>
; Function compile flags: /Ogsp
; File c:\program files (x86)\microsoft visual studio 10.0\vc\include\algorithm
;	COMDAT ??$sort@V?$_Vector_iterator@V?$_Vector_val@UtagBaseCharDistanceSq@@V?$allocator@UtagBaseCharDistanceSq@@@std@@@std@@@std@@VBaseCharDistanceSqSort2@@@std@@YAXV?$_Vector_iterator@V?$_Vector_val@UtagBaseCharDistanceSq@@V?$allocator@UtagBaseCharDistanceSq@@@std@@@std@@@0@0VBaseCharDistanceSqSort2@@@Z
_TEXT	SEGMENT
__First$ = 8						; size = 4
__Last$ = 12						; size = 4
__Pred$ = 16						; size = 1
??$sort@V?$_Vector_iterator@V?$_Vector_val@UtagBaseCharDistanceSq@@V?$allocator@UtagBaseCharDistanceSq@@@std@@@std@@@std@@VBaseCharDistanceSqSort2@@@std@@YAXV?$_Vector_iterator@V?$_Vector_val@UtagBaseCharDistanceSq@@V?$allocator@UtagBaseCharDistanceSq@@@std@@@std@@@0@0VBaseCharDistanceSqSort2@@@Z PROC ; std::sort<std::_Vector_iterator<std::_Vector_val<tagBaseCharDistanceSq,std::allocator<tagBaseCharDistanceSq> > >,BaseCharDistanceSqSort2>, COMDAT

; 3803 : 	{	// order [_First, _Last), using _Pred

  00000	55		 push	 ebp
  00001	8b ec		 mov	 ebp, esp

; 3804 : 	_DEBUG_RANGE(_First, _Last);
; 3805 : 	_DEBUG_POINTER(_Pred);
; 3806 : 	_Sort(_Unchecked(_First), _Unchecked(_Last), _Last - _First, _Pred);

  00003	8b 45 0c	 mov	 eax, DWORD PTR __Last$[ebp]
  00006	ff 75 10	 push	 DWORD PTR __Pred$[ebp]
  00009	2b 45 08	 sub	 eax, DWORD PTR __First$[ebp]
  0000c	c1 f8 05	 sar	 eax, 5
  0000f	50		 push	 eax
  00010	ff 75 0c	 push	 DWORD PTR __Last$[ebp]
  00013	ff 75 08	 push	 DWORD PTR __First$[ebp]
  00016	e8 00 00 00 00	 call	 ??$_Sort@PAUtagBaseCharDistanceSq@@HVBaseCharDistanceSqSort2@@@std@@YAXPAUtagBaseCharDistanceSq@@0HVBaseCharDistanceSqSort2@@@Z ; std::_Sort<tagBaseCharDistanceSq *,int,BaseCharDistanceSqSort2>
  0001b	83 c4 10	 add	 esp, 16			; 00000010H

; 3807 : 	}

  0001e	5d		 pop	 ebp
  0001f	c3		 ret	 0
??$sort@V?$_Vector_iterator@V?$_Vector_val@UtagBaseCharDistanceSq@@V?$allocator@UtagBaseCharDistanceSq@@@std@@@std@@@std@@VBaseCharDistanceSqSort2@@@std@@YAXV?$_Vector_iterator@V?$_Vector_val@UtagBaseCharDistanceSq@@V?$allocator@UtagBaseCharDistanceSq@@@std@@@std@@@0@0VBaseCharDistanceSqSort2@@@Z ENDP ; std::sort<std::_Vector_iterator<std::_Vector_val<tagBaseCharDistanceSq,std::allocator<tagBaseCharDistanceSq> > >,BaseCharDistanceSqSort2>
_TEXT	ENDS
PUBLIC	__real@3f800000
PUBLIC	__real@4055400000000000
PUBLIC	__real@42aa0000
PUBLIC	??_C@_01CLKCMJKC@?5?$AA@			; `string'
PUBLIC	__real@00000000
PUBLIC	_pChar$GSCopy$
EXTRN	?ReduceNeedGaugeBySkill@ioBaseChar@@QAEMPAVioSkill@@M@Z:PROC ; ioBaseChar::ReduceNeedGaugeBySkill
EXTRN	?GetNeedGauge@ioSkill@@QAEMABVioHashString@@@Z:PROC ; ioSkill::GetNeedGauge
EXTRN	?SetReservedSliding@ioBaseChar@@QAEXABV?$vector@UForceInfo@@V?$allocator@UForceInfo@@@std@@@std@@HMKM_N@Z:PROC ; ioBaseChar::SetReservedSliding
EXTRN	__imp_?SetActionAni@ioEntityGroup@@QAE_NHMMMMMM_N0@Z:PROC
EXTRN	?GetMidPositionByRate@ioGameEntity@@QBE?AUD3DXVECTOR3@@M@Z:PROC ; ioGameEntity::GetMidPositionByRate
EXTRN	?CheckCharColSkipSkillTime@ioBaseChar@@QAEXHMK@Z:PROC ; ioBaseChar::CheckCharColSkipSkillTime
EXTRN	__imp_?ParseFloat@ioStringConverter@@SAMPBD@Z:PROC
EXTRN	__imp_?Split@ioStringConverter@@SAABV?$vector@V?$basic_string@DU?$char_traits@D@std@@V?$allocator@D@2@@std@@V?$allocator@V?$basic_string@DU?$char_traits@D@std@@V?$allocator@D@2@@std@@@2@@std@@ABV?$basic_string@DU?$char_traits@D@std@@V?$allocator@D@2@@3@0H@Z:PROC
EXTRN	__imp_?c_str@ioHashString@@QBEPBDXZ:PROC
EXTRN	?SetExtraAniJump@ioSkill@@IAEXPAVioBaseChar@@HM@Z:PROC ; ioSkill::SetExtraAniJump
EXTRN	__imp_?GetAnimationFullTime@ioEntityGroup@@QAEMH@Z:PROC
EXTRN	__imp_?ClearAllActionAni@ioEntityGroup@@QAEXM_N@Z:PROC
EXTRN	__imp_?ClearAllLoopAni@ioEntityGroup@@QAEXM_N@Z:PROC
EXTRN	?RefreshFireTimeListWithBase@ioBaseChar@@QAEXKHABV?$vector@UWeaponInfo@@V?$allocator@UWeaponInfo@@@std@@@std@@W4FireTimeType@@MK_N@Z:PROC ; ioBaseChar::RefreshFireTimeListWithBase
EXTRN	?AttachEffect@ioBaseChar@@QAEPAVioEffect@@ABVioHashString@@PAVioEntityEvent@@_N@Z:PROC ; ioBaseChar::AttachEffect
EXTRN	__imp_?GetAnimationIdx@ioEntityGroup@@QAEHABVioHashString@@@Z:PROC
EXTRN	__ftol2:PROC
;	COMDAT __real@3f800000
; File c:\program files (x86)\microsoft visual studio 10.0\vc\include\vector
CONST	SEGMENT
__real@3f800000 DD 03f800000r			; 1
CONST	ENDS
;	COMDAT __real@4055400000000000
CONST	SEGMENT
__real@4055400000000000 DQ 04055400000000000r	; 85
CONST	ENDS
;	COMDAT __real@42aa0000
CONST	SEGMENT
__real@42aa0000 DD 042aa0000r			; 85
CONST	ENDS
;	COMDAT ??_C@_01CLKCMJKC@?5?$AA@
CONST	SEGMENT
??_C@_01CLKCMJKC@?5?$AA@ DB ' ', 00H			; `string'
CONST	ENDS
;	COMDAT __real@00000000
CONST	SEGMENT
__real@00000000 DD 000000000r			; 0
CONST	ENDS
;	COMDAT xdata$x
xdata$x	SEGMENT
__ehfuncinfo$?AttackSkillFire@ioFireSkill2@@MAEXPAVioBaseChar@@@Z DD 019930522H
	DD	08H
	DD	FLAT:__unwindtable$?AttackSkillFire@ioFireSkill2@@MAEXPAVioBaseChar@@@Z
	DD	2 DUP(00H)
	DD	2 DUP(00H)
	DD	00H
	DD	01H
__unwindtable$?AttackSkillFire@ioFireSkill2@@MAEXPAVioBaseChar@@@Z DD 0ffffffffH
	DD	FLAT:__unwindfunclet$?AttackSkillFire@ioFireSkill2@@MAEXPAVioBaseChar@@@Z$3
	DD	0ffffffffH
	DD	FLAT:__unwindfunclet$?AttackSkillFire@ioFireSkill2@@MAEXPAVioBaseChar@@@Z$4
	DD	0ffffffffH
	DD	FLAT:__unwindfunclet$?AttackSkillFire@ioFireSkill2@@MAEXPAVioBaseChar@@@Z$0
	DD	02H
	DD	FLAT:__unwindfunclet$?AttackSkillFire@ioFireSkill2@@MAEXPAVioBaseChar@@@Z$5
	DD	02H
	DD	FLAT:__unwindfunclet$?AttackSkillFire@ioFireSkill2@@MAEXPAVioBaseChar@@@Z$1
	DD	04H
	DD	FLAT:__unwindfunclet$?AttackSkillFire@ioFireSkill2@@MAEXPAVioBaseChar@@@Z$2
	DD	02H
	DD	FLAT:__unwindfunclet$?AttackSkillFire@ioFireSkill2@@MAEXPAVioBaseChar@@@Z$6
	DD	02H
	DD	FLAT:__unwindfunclet$?AttackSkillFire@ioFireSkill2@@MAEXPAVioBaseChar@@@Z$7
; Function compile flags: /Ogsp
; File d:\lost saga for developer\youtube\tutorial\source\src\lsclient\iofireskill2.cpp
xdata$x	ENDS
;	COMDAT ?AttackSkillFire@ioFireSkill2@@MAEXPAVioBaseChar@@@Z
_TEXT	SEGMENT
_dwCurTime$ = -164					; size = 4
_pChar$GSCopy$ = -160					; size = 4
_value$563380 = -156					; size = 4
tv574 = -156						; size = 4
_dwFireStartTime$ = -156				; size = 4
_dwPreDelay$ = -152					; size = 4
_vAniRotateList$ = -148					; size = 16
_pGrp$ = -132						; size = 4
_iAniID$ = -128						; size = 4
_fTimeRate$ = -124					; size = 4
$T563531 = -120						; size = 4
$T563401 = -120						; size = 4
_fAngle$549495 = -120					; size = 4
_iter_r$ = -120						; size = 4
_fAttackEnd$ = -120					; size = 4
tv6154 = -116						; size = 4
tv6149 = -116						; size = 4
tv6137 = -116						; size = 4
tv6123 = -116						; size = 4
tv6109 = -116						; size = 4
tv6066 = -116						; size = 4
tv6054 = -116						; size = 4
tv6032 = -116						; size = 4
tv6030 = -116						; size = 4
tv6027 = -116						; size = 4
tv6025 = -116						; size = 4
tv6023 = -116						; size = 4
tv6021 = -116						; size = 4
tv6005 = -116						; size = 4
tv6001 = -116						; size = 4
tv5997 = -116						; size = 4
tv5967 = -116						; size = 4
tv5957 = -116						; size = 4
tv5952 = -116						; size = 4
tv5943 = -116						; size = 4
tv5938 = -116						; size = 4
tv5929 = -116						; size = 4
tv5922 = -116						; size = 4
tv5896 = -116						; size = 4
tv5894 = -116						; size = 4
tv5891 = -116						; size = 4
tv5889 = -116						; size = 4
tv5887 = -116						; size = 4
tv5885 = -116						; size = 4
tv5208 = -116						; size = 4
$T564405 = -116						; size = 4
$T564242 = -116						; size = 4
$T563703 = -116						; size = 4
_vParam$549469 = -116					; size = 4
$T549471 = -112						; size = 28
$T564407 = -100						; size = 16
$T564243 = -100						; size = 16
$T563766 = -100						; size = 16
$T563532 = -100						; size = 16
$T563402 = -100						; size = 16
$T549470 = -84						; size = 28
_szEncEventType$564301 = -76				; size = 13
_szEncEventType$564371 = -72				; size = 12
_szEncEventType$563779 = -72				; size = 11
$T549492 = -68						; size = 12
_vXZDir$549494 = -56					; size = 12
_vDir$549491 = -44					; size = 12
_szEncEventType$563545 = -32				; size = 11
_szEncEventType$563415 = -28				; size = 7
_kInfo$549465 = -28					; size = 8
__$EHRec$ = -12						; size = 12
_pChar$ = 8						; size = 4
?AttackSkillFire@ioFireSkill2@@MAEXPAVioBaseChar@@@Z PROC ; ioFireSkill2::AttackSkillFire, COMDAT
; _this$ = ecx

; 400  : {

  00000	68 98 00 00 00	 push	 152			; 00000098H
  00005	b8 00 00 00 00	 mov	 eax, __ehhandler$?AttackSkillFire@ioFireSkill2@@MAEXPAVioBaseChar@@@Z
  0000a	e8 00 00 00 00	 call	 __EH_prolog3_GS
  0000f	8b 7d 08	 mov	 edi, DWORD PTR _pChar$[ebp]

; 401  : 	ioEntityGroup *pGrp = pChar->GetGroup();

  00012	8b 5f 04	 mov	 ebx, DWORD PTR [edi+4]
  00015	8b f1		 mov	 esi, ecx

; 402  : 	int iAniID = pGrp->GetAnimationIdx( GetAttribute().m_AttackAnimation );

  00017	8b 06		 mov	 eax, DWORD PTR [esi]

; 470  : 
; 471  : 		++iter_r;

  00019	89 bd 60 ff ff
	ff		 mov	 DWORD PTR _pChar$GSCopy$[ebp], edi
  0001f	89 9d 7c ff ff
	ff		 mov	 DWORD PTR _pGrp$[ebp], ebx
  00025	ff 90 a4 01 00
	00		 call	 DWORD PTR [eax+420]
  0002b	50		 push	 eax
  0002c	8b cb		 mov	 ecx, ebx
  0002e	ff 15 00 00 00
	00		 call	 DWORD PTR __imp_?GetAnimationIdx@ioEntityGroup@@QAEHABVioHashString@@@Z
  00034	89 45 80	 mov	 DWORD PTR _iAniID$[ebp], eax
  00037	83 f8 ff	 cmp	 eax, -1
  0003a	0f 84 dc 0a 00
	00		 je	 $LN773@AttackSkil

; 403  : 	if( iAniID == -1 )	return;
; 404  : 
; 405  : 	pChar->AttachEffect( m_SkillEffectName );

  00040	6a 01		 push	 1
  00042	6a 00		 push	 0
  00044	8d 86 b8 01 00
	00		 lea	 eax, DWORD PTR [esi+440]
  0004a	50		 push	 eax
  0004b	8b cf		 mov	 ecx, edi
  0004d	e8 00 00 00 00	 call	 ?AttachEffect@ioBaseChar@@QAEPAVioEffect@@ABVioHashString@@PAVioEntityEvent@@_N@Z ; ioBaseChar::AttachEffect

; 406  : 
; 407  : 	float fTimeRate  = GetAttackTimeRate();

  00052	8b 06		 mov	 eax, DWORD PTR [esi]
  00054	8b ce		 mov	 ecx, esi
  00056	ff 90 90 01 00
	00		 call	 DWORD PTR [eax+400]
  0005c	d9 5d 84	 fstp	 DWORD PTR _fTimeRate$[ebp]

; 408  : 	DWORD dwPreDelay = GetAttribute().m_dwPreDelay;

  0005f	8b 06		 mov	 eax, DWORD PTR [esi]
  00061	8b ce		 mov	 ecx, esi
  00063	ff 90 a4 01 00
	00		 call	 DWORD PTR [eax+420]
  00069	8b 40 48	 mov	 eax, DWORD PTR [eax+72]

; 409  : 
; 410  : 	pChar->RefreshFireTimeListWithBase( m_dwWeaponBaseIndex,
; 411  : 										iAniID,
; 412  : 										GetAttribute().m_vWeaponInfoList,
; 413  : 										FTT_SKILL_ATTACK,
; 414  : 										fTimeRate,
; 415  : 										dwPreDelay );

  0006c	f3 0f 10 45 84	 movss	 xmm0, DWORD PTR _fTimeRate$[ebp]
  00071	6a 00		 push	 0
  00073	50		 push	 eax
  00074	51		 push	 ecx
  00075	89 85 68 ff ff
	ff		 mov	 DWORD PTR _dwPreDelay$[ebp], eax
  0007b	8b 06		 mov	 eax, DWORD PTR [esi]
  0007d	f3 0f 11 04 24	 movss	 DWORD PTR [esp], xmm0
  00082	6a 04		 push	 4
  00084	8b ce		 mov	 ecx, esi
  00086	ff 90 a4 01 00
	00		 call	 DWORD PTR [eax+420]
  0008c	83 c0 28	 add	 eax, 40			; 00000028H
  0008f	50		 push	 eax
  00090	ff 75 80	 push	 DWORD PTR _iAniID$[ebp]
  00093	8b cf		 mov	 ecx, edi
  00095	ff 76 78	 push	 DWORD PTR [esi+120]
  00098	e8 00 00 00 00	 call	 ?RefreshFireTimeListWithBase@ioBaseChar@@QAEXKHABV?$vector@UWeaponInfo@@V?$allocator@UWeaponInfo@@@std@@@std@@W4FireTimeType@@MK_N@Z ; ioBaseChar::RefreshFireTimeListWithBase

; 416  : 
; 417  : 	pGrp->ClearAllLoopAni( FLOAT100, true );

  0009d	b8 64 00 00 00	 mov	 eax, 100		; 00000064H
  000a2	89 45 8c	 mov	 DWORD PTR tv6154[ebp], eax
  000a5	db 45 8c	 fild	 DWORD PTR tv6154[ebp]
  000a8	6a 01		 push	 1
  000aa	85 c0		 test	 eax, eax
  000ac	79 06		 jns	 SHORT $LN803@AttackSkil
  000ae	d8 05 00 00 00
	00		 fadd	 DWORD PTR __real@4f800000
$LN803@AttackSkil:
  000b4	51		 push	 ecx
  000b5	8b cb		 mov	 ecx, ebx
  000b7	d9 1c 24	 fstp	 DWORD PTR [esp]
  000ba	ff 15 00 00 00
	00		 call	 DWORD PTR __imp_?ClearAllLoopAni@ioEntityGroup@@QAEXM_N@Z

; 418  : 	pGrp->ClearAllActionAni( FLOAT100, true );

  000c0	b8 64 00 00 00	 mov	 eax, 100		; 00000064H
  000c5	89 45 8c	 mov	 DWORD PTR tv6149[ebp], eax
  000c8	db 45 8c	 fild	 DWORD PTR tv6149[ebp]
  000cb	6a 01		 push	 1
  000cd	85 c0		 test	 eax, eax
  000cf	79 06		 jns	 SHORT $LN804@AttackSkil
  000d1	d8 05 00 00 00
	00		 fadd	 DWORD PTR __real@4f800000
$LN804@AttackSkil:
  000d7	51		 push	 ecx
  000d8	8b cb		 mov	 ecx, ebx
  000da	d9 1c 24	 fstp	 DWORD PTR [esp]
  000dd	ff 15 00 00 00
	00		 call	 DWORD PTR __imp_?ClearAllActionAni@ioEntityGroup@@QAEXM_N@Z

; 419  : 
; 420  : 	m_dwMotionStartTime = m_dwMotionEndTime = FRAMEGETTIME();

  000e3	8b 1d 00 00 00
	00		 mov	 ebx, DWORD PTR __imp_?GetSingleton@ioFrameTimer@@SAAAV1@XZ
  000e9	ff d3		 call	 ebx
  000eb	8b c8		 mov	 ecx, eax
  000ed	ff 15 00 00 00
	00		 call	 DWORD PTR __imp_?GetLoopSec@ioFrameTimer@@QBEKXZ
  000f3	89 86 d8 02 00
	00		 mov	 DWORD PTR [esi+728], eax
  000f9	89 85 64 ff ff
	ff		 mov	 DWORD PTR _value$563380[ebp], eax
  000ff	8d 85 64 ff ff
	ff		 lea	 eax, DWORD PTR _value$563380[ebp]
  00105	50		 push	 eax
  00106	8d 8e a8 02 00
	00		 lea	 ecx, DWORD PTR [esi+680]
  0010c	e8 00 00 00 00	 call	 ?EncryptValueToPool@?$CEncrypt@K@@AAEXPBD@Z ; CEncrypt<unsigned long>::EncryptValueToPool

; 421  : 	m_dwMotionEndTime += pGrp->GetAnimationFullTime( iAniID ) * fTimeRate;

  00111	ff 75 80	 push	 DWORD PTR _iAniID$[ebp]
  00114	8b 8d 7c ff ff
	ff		 mov	 ecx, DWORD PTR _pGrp$[ebp]
  0011a	ff 15 00 00 00
	00		 call	 DWORD PTR __imp_?GetAnimationFullTime@ioEntityGroup@@QAEMH@Z
  00120	d8 4d 84	 fmul	 DWORD PTR _fTimeRate$[ebp]
  00123	8b 86 d8 02 00
	00		 mov	 eax, DWORD PTR [esi+728]
  00129	db 86 d8 02 00
	00		 fild	 DWORD PTR [esi+728]
  0012f	85 c0		 test	 eax, eax
  00131	79 06		 jns	 SHORT $LN805@AttackSkil
  00133	dc 05 00 00 00
	00		 fadd	 QWORD PTR __real@41f0000000000000
$LN805@AttackSkil:
  00139	de c1		 faddp	 ST(1), ST(0)
  0013b	e8 00 00 00 00	 call	 __ftol2
  00140	89 86 d8 02 00
	00		 mov	 DWORD PTR [esi+728], eax

; 422  : 	m_dwMotionEndTime += dwPreDelay + GetAttribute().m_dwEndDelay;

  00146	8b 06		 mov	 eax, DWORD PTR [esi]
  00148	8b ce		 mov	 ecx, esi
  0014a	ff 90 a4 01 00
	00		 call	 DWORD PTR [eax+420]
  00150	8b 40 4c	 mov	 eax, DWORD PTR [eax+76]
  00153	03 85 68 ff ff
	ff		 add	 eax, DWORD PTR _dwPreDelay$[ebp]
  00159	01 86 d8 02 00
	00		 add	 DWORD PTR [esi+728], eax

; 423  : 
; 424  : 	DWORD dwCurTime = FRAMEGETTIME();

  0015f	ff d3		 call	 ebx
  00161	8b c8		 mov	 ecx, eax
  00163	ff 15 00 00 00
	00		 call	 DWORD PTR __imp_?GetLoopSec@ioFrameTimer@@QBEKXZ

; 425  : 	DWORD dwFireStartTime;
; 426  : 	dwFireStartTime = m_dwFireMotionEndTime = dwCurTime;

  00169	8d 9e 24 02 00
	00		 lea	 ebx, DWORD PTR [esi+548]
  0016f	89 85 5c ff ff
	ff		 mov	 DWORD PTR _dwCurTime$[ebp], eax
  00175	89 03		 mov	 DWORD PTR [ebx], eax

; 427  : 
; 428  : 	dwFireStartTime += dwPreDelay;

  00177	03 85 68 ff ff
	ff		 add	 eax, DWORD PTR _dwPreDelay$[ebp]

; 429  : 	dwFireStartTime += pGrp->GetAnimationEventTime_e( iAniID, "fire_s" ) * fTimeRate;

  0017d	6a 04		 push	 4
  0017f	89 85 64 ff ff
	ff		 mov	 DWORD PTR _dwFireStartTime$[ebp], eax
  00185	c7 45 e4 8b 85
	99 8f		 mov	 DWORD PTR _szEncEventType$563415[ebp], -1885764213 ; 8f99858bH
  0018c	81 75 e4 ed ec
	eb ea		 xor	 DWORD PTR _szEncEventType$563415[ebp], -353637139 ; eaebecedH
  00193	66 c7 45 e8 b2
	9f		 mov	 WORD PTR _szEncEventType$563415[ebp+4], 40882 ; 00009fb2H
  00199	c6 45 ea 00	 mov	 BYTE PTR _szEncEventType$563415[ebp+6], 0
  0019d	58		 pop	 eax
$LL145@AttackSkil:
  0019e	8b c8		 mov	 ecx, eax
  001a0	81 e1 03 00 00
	80		 and	 ecx, -2147483645	; 80000003H
  001a6	79 05		 jns	 SHORT $LN806@AttackSkil
  001a8	49		 dec	 ecx
  001a9	83 c9 fc	 or	 ecx, -4			; fffffffcH
  001ac	41		 inc	 ecx
$LN806@AttackSkil:
  001ad	b2 ed		 mov	 dl, -19			; ffffffedH
  001af	2a d1		 sub	 dl, cl
  001b1	30 54 05 e4	 xor	 BYTE PTR _szEncEventType$563415[ebp+eax], dl
  001b5	40		 inc	 eax
  001b6	83 f8 06	 cmp	 eax, 6
  001b9	7c e3		 jl	 SHORT $LL145@AttackSkil
  001bb	8d 45 e4	 lea	 eax, DWORD PTR _szEncEventType$563415[ebp]
  001be	50		 push	 eax
  001bf	8d 4d 9c	 lea	 ecx, DWORD PTR $T563402[ebp]
  001c2	ff 15 00 00 00
	00		 call	 DWORD PTR __imp_??0ioHashString@@QAE@PBD@Z
  001c8	8b 8d 7c ff ff
	ff		 mov	 ecx, DWORD PTR _pGrp$[ebp]
  001ce	83 65 fc 00	 and	 DWORD PTR __$EHRec$[ebp+8], 0
  001d2	8d 45 9c	 lea	 eax, DWORD PTR $T563402[ebp]
  001d5	50		 push	 eax
  001d6	ff 75 80	 push	 DWORD PTR _iAniID$[ebp]
  001d9	ff 15 00 00 00
	00		 call	 DWORD PTR __imp_?GetAnimationEventTime@ioEntityGroup@@QAEMHABVioHashString@@@Z
  001df	d9 5d 88	 fstp	 DWORD PTR $T563401[ebp]
  001e2	83 4d fc ff	 or	 DWORD PTR __$EHRec$[ebp+8], -1
  001e6	8d 4d 9c	 lea	 ecx, DWORD PTR $T563402[ebp]
  001e9	ff 15 00 00 00
	00		 call	 DWORD PTR __imp_??1ioHashString@@QAE@XZ
  001ef	d9 45 88	 fld	 DWORD PTR $T563401[ebp]
  001f2	8b 85 64 ff ff
	ff		 mov	 eax, DWORD PTR _dwFireStartTime$[ebp]
  001f8	d8 4d 84	 fmul	 DWORD PTR _fTimeRate$[ebp]
  001fb	db 85 64 ff ff
	ff		 fild	 DWORD PTR _dwFireStartTime$[ebp]
  00201	85 c0		 test	 eax, eax
  00203	79 06		 jns	 SHORT $LN807@AttackSkil
  00205	dc 05 00 00 00
	00		 fadd	 QWORD PTR __real@41f0000000000000
$LN807@AttackSkil:
  0020b	de c1		 faddp	 ST(1), ST(0)
  0020d	e8 00 00 00 00	 call	 __ftol2
  00212	6a 02		 push	 2
  00214	89 85 64 ff ff
	ff		 mov	 DWORD PTR _dwFireStartTime$[ebp], eax

; 430  : 
; 431  : 	float fAttackEnd = pGrp->GetAnimationEventTime_e( iAniID, "attack_end" ) * fTimeRate;

  0021a	c7 45 e0 8c 98
	9f 8b		 mov	 DWORD PTR _szEncEventType$563545[ebp], -1952474996 ; 8b9f988cH
  00221	c7 45 e4 8e 87
	b4 8f		 mov	 DWORD PTR _szEncEventType$563545[ebp+4], -1883994226 ; 8fb4878eH
  00228	66 c7 45 e8 83
	88		 mov	 WORD PTR _szEncEventType$563545[ebp+8], 34947 ; 00008883H
  0022e	8d 45 e0	 lea	 eax, DWORD PTR _szEncEventType$563545[ebp]
  00231	c6 45 ea 00	 mov	 BYTE PTR _szEncEventType$563545[ebp+10], 0
  00235	59		 pop	 ecx
$LL255@AttackSkil:
  00236	81 30 ed ec eb
	ea		 xor	 DWORD PTR [eax], -353637139 ; eaebecedH
  0023c	83 c0 04	 add	 eax, 4
  0023f	49		 dec	 ecx
  00240	75 f4		 jne	 SHORT $LL255@AttackSkil
  00242	6a 08		 push	 8
  00244	58		 pop	 eax
$LL252@AttackSkil:
  00245	8b c8		 mov	 ecx, eax
  00247	81 e1 03 00 00
	80		 and	 ecx, -2147483645	; 80000003H
  0024d	79 05		 jns	 SHORT $LN808@AttackSkil
  0024f	49		 dec	 ecx
  00250	83 c9 fc	 or	 ecx, -4			; fffffffcH
  00253	41		 inc	 ecx
$LN808@AttackSkil:
  00254	b2 ed		 mov	 dl, -19			; ffffffedH
  00256	2a d1		 sub	 dl, cl
  00258	30 54 05 e0	 xor	 BYTE PTR _szEncEventType$563545[ebp+eax], dl
  0025c	40		 inc	 eax
  0025d	83 f8 0a	 cmp	 eax, 10			; 0000000aH
  00260	7c e3		 jl	 SHORT $LL252@AttackSkil
  00262	8d 45 e0	 lea	 eax, DWORD PTR _szEncEventType$563545[ebp]
  00265	50		 push	 eax
  00266	8d 4d 9c	 lea	 ecx, DWORD PTR $T563532[ebp]
  00269	ff 15 00 00 00
	00		 call	 DWORD PTR __imp_??0ioHashString@@QAE@PBD@Z
  0026f	8b 8d 7c ff ff
	ff		 mov	 ecx, DWORD PTR _pGrp$[ebp]
  00275	8d 45 9c	 lea	 eax, DWORD PTR $T563532[ebp]
  00278	50		 push	 eax
  00279	ff 75 80	 push	 DWORD PTR _iAniID$[ebp]
  0027c	c7 45 fc 01 00
	00 00		 mov	 DWORD PTR __$EHRec$[ebp+8], 1
  00283	ff 15 00 00 00
	00		 call	 DWORD PTR __imp_?GetAnimationEventTime@ioEntityGroup@@QAEMHABVioHashString@@@Z
  00289	d9 5d 88	 fstp	 DWORD PTR $T563531[ebp]
  0028c	83 4d fc ff	 or	 DWORD PTR __$EHRec$[ebp+8], -1
  00290	8d 4d 9c	 lea	 ecx, DWORD PTR $T563532[ebp]
  00293	ff 15 00 00 00
	00		 call	 DWORD PTR __imp_??1ioHashString@@QAE@XZ
  00299	f3 0f 10 45 88	 movss	 xmm0, DWORD PTR $T563531[ebp]
  0029e	f3 0f 10 4d 84	 movss	 xmm1, DWORD PTR _fTimeRate$[ebp]
  002a3	0f 5a c0	 cvtps2pd xmm0, xmm0
  002a6	0f 5a c9	 cvtps2pd xmm1, xmm1
  002a9	f2 0f 59 c1	 mulsd	 xmm0, xmm1
  002ad	66 0f 5a c0	 cvtpd2ps xmm0, xmm0

; 432  : 	if( fAttackEnd > 0.0f )

  002b1	0f 2f 05 00 00
	00 00		 comiss	 xmm0, DWORD PTR __real@00000000
  002b8	f3 0f 11 45 88	 movss	 DWORD PTR _fAttackEnd$[ebp], xmm0
  002bd	76 26		 jbe	 SHORT $LN17@AttackSkil

; 433  : 		m_dwAttackEndTime = dwCurTime + fAttackEnd;

  002bf	8b 85 5c ff ff
	ff		 mov	 eax, DWORD PTR _dwCurTime$[ebp]
  002c5	db 85 5c ff ff
	ff		 fild	 DWORD PTR _dwCurTime$[ebp]
  002cb	85 c0		 test	 eax, eax
  002cd	79 06		 jns	 SHORT $LN809@AttackSkil
  002cf	d8 05 00 00 00
	00		 fadd	 DWORD PTR __real@4f800000
$LN809@AttackSkil:
  002d5	d8 45 88	 fadd	 DWORD PTR _fAttackEnd$[ebp]
  002d8	e8 00 00 00 00	 call	 __ftol2
  002dd	89 86 50 10 00
	00		 mov	 DWORD PTR [esi+4176], eax

; 434  : 	else

  002e3	eb 07		 jmp	 SHORT $LN16@AttackSkil
$LN17@AttackSkil:

; 435  : 		m_dwAttackEndTime = 0;

  002e5	83 a6 50 10 00
	00 00		 and	 DWORD PTR [esi+4176], 0
$LN16@AttackSkil:

; 436  : 
; 437  : 	//
; 438  : 	SetExtraAniJump( pChar, iAniID, fTimeRate );

  002ec	f3 0f 10 45 84	 movss	 xmm0, DWORD PTR _fTimeRate$[ebp]
  002f1	51		 push	 ecx
  002f2	f3 0f 11 04 24	 movss	 DWORD PTR [esp], xmm0
  002f7	ff 75 80	 push	 DWORD PTR _iAniID$[ebp]
  002fa	8b ce		 mov	 ecx, esi
  002fc	ff b5 60 ff ff
	ff		 push	 DWORD PTR _pChar$GSCopy$[ebp]
  00302	e8 00 00 00 00	 call	 ?SetExtraAniJump@ioSkill@@IAEXPAVioBaseChar@@HM@Z ; ioSkill::SetExtraAniJump

; 439  : 
; 440  : 	//
; 441  : 	m_dwAniRotateTime = 0;

  00307	83 a6 2c 07 00
	00 00		 and	 DWORD PTR [esi+1836], 0

; 442  : 	m_fAniRotateAngle = 0.0f;

  0030e	0f 57 c0	 xorps	 xmm0, xmm0

; 443  : 	m_vAniRotateInfoList.clear();

  00311	8d 8e 18 07 00
	00		 lea	 ecx, DWORD PTR [esi+1816]
  00317	f3 0f 11 86 30
	07 00 00	 movss	 DWORD PTR [esi+1840], xmm0
  0031f	8b 41 04	 mov	 eax, DWORD PTR [ecx+4]
  00322	8b 11		 mov	 edx, DWORD PTR [ecx]
  00324	50		 push	 eax
  00325	52		 push	 edx
  00326	8d 45 8c	 lea	 eax, DWORD PTR $T563703[ebp]
  00329	50		 push	 eax
  0032a	e8 00 00 00 00	 call	 ?erase@?$vector@UAniRotateInfo@@V?$allocator@UAniRotateInfo@@@std@@@std@@QAE?AV?$_Vector_iterator@V?$_Vector_val@UAniRotateInfo@@V?$allocator@UAniRotateInfo@@@std@@@std@@@2@V?$_Vector_const_iterator@V?$_Vector_val@UAniRotateInfo@@V?$allocator@UAniRotateInfo@@@std@@@std@@@2@0@Z ; std::vector<AniRotateInfo,std::allocator<AniRotateInfo> >::erase

; 444  : 
; 445  : 	AniEventConstPtrList vAniRotateList;

  0032f	33 c0		 xor	 eax, eax
  00331	89 85 6c ff ff
	ff		 mov	 DWORD PTR _vAniRotateList$[ebp], eax
  00337	89 85 70 ff ff
	ff		 mov	 DWORD PTR _vAniRotateList$[ebp+4], eax
  0033d	89 85 74 ff ff
	ff		 mov	 DWORD PTR _vAniRotateList$[ebp+8], eax
  00343	6a 02		 push	 2
  00345	59		 pop	 ecx
  00346	89 4d fc	 mov	 DWORD PTR __$EHRec$[ebp+8], ecx

; 446  : 	pGrp->GetAnimationEventConstPtrList_e( iAniID, "ani_rotate", vAniRotateList );

  00349	c7 45 b8 8c 82
	82 b5		 mov	 DWORD PTR _szEncEventType$563779[ebp], -1249738100 ; b582828cH
  00350	c7 45 bc 9f 83
	9f 8b		 mov	 DWORD PTR _szEncEventType$563779[ebp+4], -1952480353 ; 8b9f839fH
  00357	66 c7 45 c0 99
	89		 mov	 WORD PTR _szEncEventType$563779[ebp+8], 35225 ; 00008999H
  0035d	8d 45 b8	 lea	 eax, DWORD PTR _szEncEventType$563779[ebp]
  00360	c6 45 c2 00	 mov	 BYTE PTR _szEncEventType$563779[ebp+10], 0
$LL388@AttackSkil:
  00364	81 30 ed ec eb
	ea		 xor	 DWORD PTR [eax], -353637139 ; eaebecedH
  0036a	83 c0 04	 add	 eax, 4
  0036d	49		 dec	 ecx
  0036e	75 f4		 jne	 SHORT $LL388@AttackSkil
  00370	6a 08		 push	 8
  00372	58		 pop	 eax
$LL385@AttackSkil:
  00373	8b c8		 mov	 ecx, eax
  00375	81 e1 03 00 00
	80		 and	 ecx, -2147483645	; 80000003H
  0037b	79 05		 jns	 SHORT $LN810@AttackSkil
  0037d	49		 dec	 ecx
  0037e	83 c9 fc	 or	 ecx, -4			; fffffffcH
  00381	41		 inc	 ecx
$LN810@AttackSkil:
  00382	b2 ed		 mov	 dl, -19			; ffffffedH
  00384	2a d1		 sub	 dl, cl
  00386	30 54 05 b8	 xor	 BYTE PTR _szEncEventType$563779[ebp+eax], dl
  0038a	40		 inc	 eax
  0038b	83 f8 0a	 cmp	 eax, 10			; 0000000aH
  0038e	7c e3		 jl	 SHORT $LL385@AttackSkil
  00390	8d 45 b8	 lea	 eax, DWORD PTR _szEncEventType$563779[ebp]
  00393	50		 push	 eax
  00394	8d 4d 9c	 lea	 ecx, DWORD PTR $T563766[ebp]
  00397	ff 15 00 00 00
	00		 call	 DWORD PTR __imp_??0ioHashString@@QAE@PBD@Z
  0039d	8b 8d 7c ff ff
	ff		 mov	 ecx, DWORD PTR _pGrp$[ebp]
  003a3	8d 85 6c ff ff
	ff		 lea	 eax, DWORD PTR _vAniRotateList$[ebp]
  003a9	50		 push	 eax
  003aa	8d 45 9c	 lea	 eax, DWORD PTR $T563766[ebp]
  003ad	50		 push	 eax
  003ae	ff 75 80	 push	 DWORD PTR _iAniID$[ebp]
  003b1	c6 45 fc 03	 mov	 BYTE PTR __$EHRec$[ebp+8], 3
  003b5	ff 15 00 00 00
	00		 call	 DWORD PTR __imp_?GetAnimationEventConstPtrList@ioEntityGroup@@QAEHHABVioHashString@@AAV?$vector@PBUAniEventTime@@V?$allocator@PBUAniEventTime@@@std@@@std@@@Z
  003bb	8d 4d 9c	 lea	 ecx, DWORD PTR $T563766[ebp]
  003be	c6 45 fc 02	 mov	 BYTE PTR __$EHRec$[ebp+8], 2
  003c2	ff 15 00 00 00
	00		 call	 DWORD PTR __imp_??1ioHashString@@QAE@XZ

; 447  : 
; 448  : 	AniEventConstPtrList::iterator iter_r = vAniRotateList.begin();

  003c8	8b 85 6c ff ff
	ff		 mov	 eax, DWORD PTR _vAniRotateList$[ebp]
  003ce	89 45 88	 mov	 DWORD PTR _iter_r$[ebp], eax
  003d1	e9 01 01 00 00	 jmp	 $LN832@AttackSkil
$LN15@AttackSkil:

; 450  : 	{
; 451  : 		AniRotateInfo kInfo;
; 452  : 
; 453  : 		kInfo.m_dwTime = (*iter_r)->fEventTime * fTimeRate;

  003d6	8b 45 88	 mov	 eax, DWORD PTR _iter_r$[ebp]
  003d9	8b 00		 mov	 eax, DWORD PTR [eax]
  003db	d9 00		 fld	 DWORD PTR [eax]
  003dd	0f 57 c0	 xorps	 xmm0, xmm0
  003e0	d8 4d 84	 fmul	 DWORD PTR _fTimeRate$[ebp]
  003e3	f3 0f 11 45 e8	 movss	 DWORD PTR _kInfo$549465[ebp+4], xmm0
  003e8	e8 00 00 00 00	 call	 __ftol2

; 454  : 
; 455  : 		if( kInfo.m_dwTime > 0 )

  003ed	85 c0		 test	 eax, eax
  003ef	74 0b		 je	 SHORT $LN13@AttackSkil

; 456  : 			kInfo.m_dwTime += dwCurTime;

  003f1	03 85 5c ff ff
	ff		 add	 eax, DWORD PTR _dwCurTime$[ebp]
  003f7	89 45 e4	 mov	 DWORD PTR _kInfo$549465[ebp], eax

; 457  : 		else

  003fa	eb 04		 jmp	 SHORT $LN12@AttackSkil
$LN13@AttackSkil:

; 458  : 			kInfo.m_dwTime = 0;

  003fc	83 65 e4 00	 and	 DWORD PTR _kInfo$549465[ebp], 0
$LN12@AttackSkil:

; 459  : 
; 460  : 		if( !(*iter_r)->szSubInfo.IsEmpty() )

  00400	8b 45 88	 mov	 eax, DWORD PTR _iter_r$[ebp]
  00403	8b 08		 mov	 ecx, DWORD PTR [eax]
  00405	8d 49 14	 lea	 ecx, DWORD PTR [ecx+20]
  00408	ff 15 00 00 00
	00		 call	 DWORD PTR __imp_?IsEmpty@ioHashString@@QBE_NXZ
  0040e	84 c0		 test	 al, al
  00410	0f 85 ab 00 00
	00		 jne	 $LN10@AttackSkil

; 461  : 		{
; 462  : 			const StringVector &vParam = ioStringConverter::Split( (*iter_r)->szSubInfo.c_str(), " " );

  00416	83 65 bc 00	 and	 DWORD PTR $T549470[ebp+16], 0
  0041a	6a 01		 push	 1
  0041c	68 00 00 00 00	 push	 OFFSET ??_C@_01CLKCMJKC@?5?$AA@
  00421	8d 4d ac	 lea	 ecx, DWORD PTR $T549470[ebp]
  00424	c7 45 c0 0f 00
	00 00		 mov	 DWORD PTR $T549470[ebp+20], 15 ; 0000000fH
  0042b	88 45 ac	 mov	 BYTE PTR $T549470[ebp], al
  0042e	e8 00 00 00 00	 call	 ?assign@?$basic_string@DU?$char_traits@D@std@@V?$allocator@D@2@@std@@QAEAAV12@PBDI@Z ; std::basic_string<char,std::char_traits<char>,std::allocator<char> >::assign
  00433	8b 45 88	 mov	 eax, DWORD PTR _iter_r$[ebp]
  00436	8b 08		 mov	 ecx, DWORD PTR [eax]
  00438	83 c1 14	 add	 ecx, 20			; 00000014H
  0043b	c6 45 fc 04	 mov	 BYTE PTR __$EHRec$[ebp+8], 4
  0043f	ff 15 00 00 00
	00		 call	 DWORD PTR __imp_?c_str@ioHashString@@QBEPBDXZ
  00445	83 65 a0 00	 and	 DWORD PTR $T549471[ebp+16], 0
  00449	50		 push	 eax
  0044a	8d 4d 90	 lea	 ecx, DWORD PTR $T549471[ebp]
  0044d	c7 45 a4 0f 00
	00 00		 mov	 DWORD PTR $T549471[ebp+20], 15 ; 0000000fH
  00454	c6 45 90 00	 mov	 BYTE PTR $T549471[ebp], 0
  00458	e8 00 00 00 00	 call	 ?assign@?$basic_string@DU?$char_traits@D@std@@V?$allocator@D@2@@std@@QAEAAV12@PBD@Z ; std::basic_string<char,std::char_traits<char>,std::allocator<char> >::assign
  0045d	6a 00		 push	 0
  0045f	8d 45 ac	 lea	 eax, DWORD PTR $T549470[ebp]
  00462	50		 push	 eax
  00463	8d 45 90	 lea	 eax, DWORD PTR $T549471[ebp]
  00466	50		 push	 eax
  00467	c6 45 fc 05	 mov	 BYTE PTR __$EHRec$[ebp+8], 5
  0046b	ff 15 00 00 00
	00		 call	 DWORD PTR __imp_?Split@ioStringConverter@@SAABV?$vector@V?$basic_string@DU?$char_traits@D@std@@V?$allocator@D@2@@std@@V?$allocator@V?$basic_string@DU?$char_traits@D@std@@V?$allocator@D@2@@std@@@2@@std@@ABV?$basic_string@DU?$char_traits@D@std@@V?$allocator@D@2@@3@0H@Z
  00471	83 c4 0c	 add	 esp, 12			; 0000000cH
  00474	6a 00		 push	 0
  00476	6a 01		 push	 1
  00478	8d 4d 90	 lea	 ecx, DWORD PTR $T549471[ebp]
  0047b	89 45 8c	 mov	 DWORD PTR _vParam$549469[ebp], eax
  0047e	e8 00 00 00 00	 call	 ?_Tidy@?$basic_string@DU?$char_traits@D@std@@V?$allocator@D@2@@std@@QAEX_NI@Z ; std::basic_string<char,std::char_traits<char>,std::allocator<char> >::_Tidy
  00483	6a 00		 push	 0
  00485	6a 01		 push	 1
  00487	8d 4d ac	 lea	 ecx, DWORD PTR $T549470[ebp]
  0048a	c6 45 fc 02	 mov	 BYTE PTR __$EHRec$[ebp+8], 2
  0048e	e8 00 00 00 00	 call	 ?_Tidy@?$basic_string@DU?$char_traits@D@std@@V?$allocator@D@2@@std@@QAEX_NI@Z ; std::basic_string<char,std::char_traits<char>,std::allocator<char> >::_Tidy

; 463  : 			if( vParam.size() == 1 )

  00493	8b 45 8c	 mov	 eax, DWORD PTR _vParam$549469[ebp]
  00496	8b 08		 mov	 ecx, DWORD PTR [eax]
  00498	8b 40 04	 mov	 eax, DWORD PTR [eax+4]
  0049b	2b c1		 sub	 eax, ecx
  0049d	6a 1c		 push	 28			; 0000001cH
  0049f	89 4d 8c	 mov	 DWORD PTR tv5208[ebp], ecx
  004a2	99		 cdq
  004a3	59		 pop	 ecx
  004a4	f7 f9		 idiv	 ecx
  004a6	83 f8 01	 cmp	 eax, 1
  004a9	75 16		 jne	 SHORT $LN10@AttackSkil

; 464  : 			{
; 465  : 				kInfo.m_fAngle = ioStringConverter::ParseFloat( vParam[0].c_str() );

  004ab	8b 45 8c	 mov	 eax, DWORD PTR tv5208[ebp]
  004ae	83 78 14 10	 cmp	 DWORD PTR [eax+20], 16	; 00000010H
  004b2	72 02		 jb	 SHORT $LN499@AttackSkil
  004b4	8b 00		 mov	 eax, DWORD PTR [eax]
$LN499@AttackSkil:
  004b6	50		 push	 eax
  004b7	ff 15 00 00 00
	00		 call	 DWORD PTR __imp_?ParseFloat@ioStringConverter@@SAMPBD@Z
  004bd	d9 5d e8	 fstp	 DWORD PTR _kInfo$549465[ebp+4]
  004c0	59		 pop	 ecx
$LN10@AttackSkil:

; 466  : 			}
; 467  : 		}
; 468  : 
; 469  : 		m_vAniRotateInfoList.push_back(kInfo);

  004c1	8d 45 e4	 lea	 eax, DWORD PTR _kInfo$549465[ebp]
  004c4	50		 push	 eax
  004c5	8d 8e 18 07 00
	00		 lea	 ecx, DWORD PTR [esi+1816]
  004cb	e8 00 00 00 00	 call	 ?push_back@?$vector@UAniRotateInfo@@V?$allocator@UAniRotateInfo@@@std@@@std@@QAEXABUAniRotateInfo@@@Z ; std::vector<AniRotateInfo,std::allocator<AniRotateInfo> >::push_back

; 470  : 
; 471  : 		++iter_r;

  004d0	83 45 88 04	 add	 DWORD PTR _iter_r$[ebp], 4
  004d4	8b 45 88	 mov	 eax, DWORD PTR _iter_r$[ebp]
$LN832@AttackSkil:

; 449  : 	while( iter_r != vAniRotateList.end() )

  004d7	3b 85 70 ff ff
	ff		 cmp	 eax, DWORD PTR _vAniRotateList$[ebp+4]
  004dd	0f 85 f3 fe ff
	ff		 jne	 $LN15@AttackSkil

; 472  : 	}
; 473  : 
; 474  : 	if( !m_vAniRotateInfoList.empty() )

  004e3	8b 8e 18 07 00
	00		 mov	 ecx, DWORD PTR [esi+1816]
  004e9	3b 8e 1c 07 00
	00		 cmp	 ecx, DWORD PTR [esi+1820]
  004ef	74 1e		 je	 SHORT $LN9@AttackSkil

; 475  : 	{
; 476  : 		m_iCurAniRotate = 0;
; 477  : 		m_dwAniRotateTime = m_vAniRotateInfoList[m_iCurAniRotate].m_dwTime;

  004f1	8b 86 18 07 00
	00		 mov	 eax, DWORD PTR [esi+1816]
  004f7	83 a6 28 07 00
	00 00		 and	 DWORD PTR [esi+1832], 0
  004fe	8b 08		 mov	 ecx, DWORD PTR [eax]
  00500	89 8e 2c 07 00
	00		 mov	 DWORD PTR [esi+1836], ecx

; 478  : 		m_fAniRotateAngle = m_vAniRotateInfoList[m_iCurAniRotate].m_fAngle;

  00506	d9 40 04	 fld	 DWORD PTR [eax+4]
  00509	d9 9e 30 07 00
	00		 fstp	 DWORD PTR [esi+1840]
$LN9@AttackSkil:

; 479  : 	}
; 480  : 	//
; 481  : 
; 482  : 	// Col Skip
; 483  : 	pChar->CheckCharColSkipSkillTime( iAniID, fTimeRate, dwPreDelay );

  0050f	ff b5 68 ff ff
	ff		 push	 DWORD PTR _dwPreDelay$[ebp]
  00515	f3 0f 10 45 84	 movss	 xmm0, DWORD PTR _fTimeRate$[ebp]
  0051a	51		 push	 ecx
  0051b	8b 8d 60 ff ff
	ff		 mov	 ecx, DWORD PTR _pChar$GSCopy$[ebp]
  00521	f3 0f 11 04 24	 movss	 DWORD PTR [esp], xmm0
  00526	ff 75 80	 push	 DWORD PTR _iAniID$[ebp]
  00529	e8 00 00 00 00	 call	 ?CheckCharColSkipSkillTime@ioBaseChar@@QAEXHMK@Z ; ioBaseChar::CheckCharColSkipSkillTime

; 484  : 
; 485  : 	m_dwFireMotionEndTime += dwPreDelay;

  0052e	8b 85 68 ff ff
	ff		 mov	 eax, DWORD PTR _dwPreDelay$[ebp]
  00534	01 03		 add	 DWORD PTR [ebx], eax
  00536	6a 03		 push	 3

; 486  : 	m_dwFireMotionEndTime += pGrp->GetAnimationEventTime_e( iAniID, "firemotion_e" ) * fTimeRate;

  00538	c7 45 b4 8b 85
	99 8f		 mov	 DWORD PTR _szEncEventType$564301[ebp], -1885764213 ; 8f99858bH
  0053f	c7 45 b8 80 83
	9f 83		 mov	 DWORD PTR _szEncEventType$564301[ebp+4], -2086698112 ; 839f8380H
  00546	c7 45 bc 82 82
	b4 8f		 mov	 DWORD PTR _szEncEventType$564301[ebp+8], -1883995518 ; 8fb48282H
  0054d	8d 45 b4	 lea	 eax, DWORD PTR _szEncEventType$564301[ebp]
  00550	c6 45 c0 00	 mov	 BYTE PTR _szEncEventType$564301[ebp+12], 0
  00554	59		 pop	 ecx
$LL615@AttackSkil:
  00555	81 30 ed ec eb
	ea		 xor	 DWORD PTR [eax], -353637139 ; eaebecedH
  0055b	83 c0 04	 add	 eax, 4
  0055e	49		 dec	 ecx
  0055f	75 f4		 jne	 SHORT $LL615@AttackSkil
  00561	8d 45 b4	 lea	 eax, DWORD PTR _szEncEventType$564301[ebp]
  00564	50		 push	 eax
  00565	8d 4d 9c	 lea	 ecx, DWORD PTR $T564243[ebp]
  00568	ff 15 00 00 00
	00		 call	 DWORD PTR __imp_??0ioHashString@@QAE@PBD@Z
  0056e	8b 8d 7c ff ff
	ff		 mov	 ecx, DWORD PTR _pGrp$[ebp]
  00574	8d 45 9c	 lea	 eax, DWORD PTR $T564243[ebp]
  00577	50		 push	 eax
  00578	ff 75 80	 push	 DWORD PTR _iAniID$[ebp]
  0057b	c6 45 fc 06	 mov	 BYTE PTR __$EHRec$[ebp+8], 6
  0057f	ff 15 00 00 00
	00		 call	 DWORD PTR __imp_?GetAnimationEventTime@ioEntityGroup@@QAEMHABVioHashString@@@Z
  00585	d9 5d 8c	 fstp	 DWORD PTR $T564242[ebp]
  00588	8d 4d 9c	 lea	 ecx, DWORD PTR $T564243[ebp]
  0058b	c6 45 fc 02	 mov	 BYTE PTR __$EHRec$[ebp+8], 2
  0058f	ff 15 00 00 00
	00		 call	 DWORD PTR __imp_??1ioHashString@@QAE@XZ
  00595	d9 45 8c	 fld	 DWORD PTR $T564242[ebp]
  00598	8b 03		 mov	 eax, DWORD PTR [ebx]
  0059a	d8 4d 84	 fmul	 DWORD PTR _fTimeRate$[ebp]
  0059d	db 03		 fild	 DWORD PTR [ebx]
  0059f	85 c0		 test	 eax, eax
  005a1	79 06		 jns	 SHORT $LN811@AttackSkil
  005a3	dc 05 00 00 00
	00		 fadd	 QWORD PTR __real@41f0000000000000
$LN811@AttackSkil:
  005a9	de c1		 faddp	 ST(1), ST(0)
  005ab	e8 00 00 00 00	 call	 __ftol2
  005b0	89 03		 mov	 DWORD PTR [ebx], eax

; 487  : 
; 488  : 	m_dwEnableReserveTime = dwCurTime;

  005b2	8b 85 5c ff ff
	ff		 mov	 eax, DWORD PTR _dwCurTime$[ebp]
  005b8	6a 02		 push	 2
  005ba	89 86 dc 02 00
	00		 mov	 DWORD PTR [esi+732], eax

; 489  : 	m_dwEnableReserveTime += pGrp->GetAnimationEventTime_e( iAniID, "key_reserve" ) * fTimeRate;

  005c0	c7 45 b8 86 89
	92 b5		 mov	 DWORD PTR _szEncEventType$564371[ebp], -1248687738 ; b5928986H
  005c7	c7 45 bc 9f 89
	98 8f		 mov	 DWORD PTR _szEncEventType$564371[ebp+4], -1885828705 ; 8f98899fH
  005ce	8d 45 b8	 lea	 eax, DWORD PTR _szEncEventType$564371[ebp]
  005d1	c7 45 c0 9f 9a
	8e 00		 mov	 DWORD PTR _szEncEventType$564371[ebp+8], 9345695 ; 008e9a9fH
  005d8	59		 pop	 ecx
$LL722@AttackSkil:
  005d9	81 30 ed ec eb
	ea		 xor	 DWORD PTR [eax], -353637139 ; eaebecedH
  005df	83 c0 04	 add	 eax, 4
  005e2	49		 dec	 ecx
  005e3	75 f4		 jne	 SHORT $LL722@AttackSkil
  005e5	6a 08		 push	 8
  005e7	58		 pop	 eax
$LL719@AttackSkil:
  005e8	8b c8		 mov	 ecx, eax
  005ea	81 e1 03 00 00
	80		 and	 ecx, -2147483645	; 80000003H
  005f0	79 05		 jns	 SHORT $LN812@AttackSkil
  005f2	49		 dec	 ecx
  005f3	83 c9 fc	 or	 ecx, -4			; fffffffcH
  005f6	41		 inc	 ecx
$LN812@AttackSkil:
  005f7	b2 ed		 mov	 dl, -19			; ffffffedH
  005f9	2a d1		 sub	 dl, cl
  005fb	30 54 05 b8	 xor	 BYTE PTR _szEncEventType$564371[ebp+eax], dl
  005ff	40		 inc	 eax
  00600	83 f8 0b	 cmp	 eax, 11			; 0000000bH
  00603	7c e3		 jl	 SHORT $LL719@AttackSkil
  00605	8d 45 b8	 lea	 eax, DWORD PTR _szEncEventType$564371[ebp]
  00608	50		 push	 eax
  00609	8d 4d 9c	 lea	 ecx, DWORD PTR $T564407[ebp]
  0060c	ff 15 00 00 00
	00		 call	 DWORD PTR __imp_??0ioHashString@@QAE@PBD@Z
  00612	8b 8d 7c ff ff
	ff		 mov	 ecx, DWORD PTR _pGrp$[ebp]
  00618	8d 45 9c	 lea	 eax, DWORD PTR $T564407[ebp]
  0061b	50		 push	 eax
  0061c	ff 75 80	 push	 DWORD PTR _iAniID$[ebp]
  0061f	c6 45 fc 07	 mov	 BYTE PTR __$EHRec$[ebp+8], 7
  00623	ff 15 00 00 00
	00		 call	 DWORD PTR __imp_?GetAnimationEventTime@ioEntityGroup@@QAEMHABVioHashString@@@Z
  00629	d9 5d 8c	 fstp	 DWORD PTR $T564405[ebp]
  0062c	8d 4d 9c	 lea	 ecx, DWORD PTR $T564407[ebp]
  0062f	c6 45 fc 02	 mov	 BYTE PTR __$EHRec$[ebp+8], 2
  00633	ff 15 00 00 00
	00		 call	 DWORD PTR __imp_??1ioHashString@@QAE@XZ
  00639	d9 45 8c	 fld	 DWORD PTR $T564405[ebp]
  0063c	8b 86 dc 02 00
	00		 mov	 eax, DWORD PTR [esi+732]
  00642	d8 4d 84	 fmul	 DWORD PTR _fTimeRate$[ebp]
  00645	db 86 dc 02 00
	00		 fild	 DWORD PTR [esi+732]
  0064b	85 c0		 test	 eax, eax
  0064d	79 06		 jns	 SHORT $LN813@AttackSkil
  0064f	dc 05 00 00 00
	00		 fadd	 QWORD PTR __real@41f0000000000000
$LN813@AttackSkil:
  00655	de c1		 faddp	 ST(1), ST(0)
  00657	e8 00 00 00 00	 call	 __ftol2
  0065c	89 86 dc 02 00
	00		 mov	 DWORD PTR [esi+732], eax

; 490  : 
; 491  : 	if( dwFireStartTime >= m_dwFireMotionEndTime )

  00662	8b 85 64 ff ff
	ff		 mov	 eax, DWORD PTR _dwFireStartTime$[ebp]
  00668	3b 03		 cmp	 eax, DWORD PTR [ebx]
  0066a	72 08		 jb	 SHORT $LN8@AttackSkil

; 492  : 	{
; 493  : 		m_dwFireMotionEndTime = m_dwMotionEndTime;

  0066c	8b 86 d8 02 00
	00		 mov	 eax, DWORD PTR [esi+728]
  00672	89 03		 mov	 DWORD PTR [ebx], eax
$LN8@AttackSkil:

; 494  : 	}
; 495  : 
; 496  : 	if( m_vTargetPos == ioMath::VEC3_ZERO )

  00674	8b 0d 00 00 00
	00		 mov	 ecx, DWORD PTR __imp_?VEC3_ZERO@ioMath@@2UD3DXVECTOR3@@A
  0067a	f3 0f 10 86 e4
	12 00 00	 movss	 xmm0, DWORD PTR [esi+4836]
  00682	f3 0f 10 09	 movss	 xmm1, DWORD PTR [ecx]
  00686	0f 5a c0	 cvtps2pd xmm0, xmm0
  00689	0f 5a c9	 cvtps2pd xmm1, xmm1
  0068c	66 0f 2e c1	 ucomisd xmm0, xmm1
  00690	9f		 lahf
  00691	b3 44		 mov	 bl, 68			; 00000044H
  00693	84 e3		 test	 ah, bl
  00695	0f 8a d4 00 00
	00		 jp	 $LN7@AttackSkil
  0069b	f3 0f 10 86 e8
	12 00 00	 movss	 xmm0, DWORD PTR [esi+4840]
  006a3	f3 0f 10 49 04	 movss	 xmm1, DWORD PTR [ecx+4]
  006a8	0f 5a c0	 cvtps2pd xmm0, xmm0
  006ab	0f 5a c9	 cvtps2pd xmm1, xmm1
  006ae	66 0f 2e c1	 ucomisd xmm0, xmm1
  006b2	9f		 lahf
  006b3	84 e3		 test	 ah, bl
  006b5	0f 8a b4 00 00
	00		 jp	 $LN7@AttackSkil
  006bb	f3 0f 10 86 ec
	12 00 00	 movss	 xmm0, DWORD PTR [esi+4844]
  006c3	f3 0f 10 49 08	 movss	 xmm1, DWORD PTR [ecx+8]
  006c8	0f 5a c0	 cvtps2pd xmm0, xmm0
  006cb	0f 5a c9	 cvtps2pd xmm1, xmm1
  006ce	66 0f 2e c1	 ucomisd xmm0, xmm1
  006d2	9f		 lahf
  006d3	84 e3		 test	 ah, bl
  006d5	0f 8a 94 00 00
	00		 jp	 $LN7@AttackSkil

; 497  : 	{
; 498  : 		pGrp->SetActionAni( iAniID, FLOAT100, FLOAT100, FLOAT1, FLOAT1/fTimeRate, 0.0f, dwPreDelay, true );

  006db	b8 01 00 00 00	 mov	 eax, 1
  006e0	8b c8		 mov	 ecx, eax
  006e2	b8 01 00 00 00	 mov	 eax, 1
  006e7	8b d0		 mov	 edx, eax
  006e9	b8 64 00 00 00	 mov	 eax, 100		; 00000064H
  006ee	8b f8		 mov	 edi, eax
  006f0	b8 64 00 00 00	 mov	 eax, 100		; 00000064H
  006f5	db 85 68 ff ff
	ff		 fild	 DWORD PTR _dwPreDelay$[ebp]
  006fb	8b 9d 68 ff ff
	ff		 mov	 ebx, DWORD PTR _dwPreDelay$[ebp]
  00701	6a 01		 push	 1
  00703	6a 01		 push	 1
  00705	85 db		 test	 ebx, ebx
  00707	79 06		 jns	 SHORT $LN814@AttackSkil
  00709	d8 05 00 00 00
	00		 fadd	 DWORD PTR __real@4f800000
$LN814@AttackSkil:
  0070f	0f 57 c0	 xorps	 xmm0, xmm0
  00712	83 ec 18	 sub	 esp, 24			; 00000018H
  00715	d9 5c 24 14	 fstp	 DWORD PTR [esp+20]
  00719	89 4d 8c	 mov	 DWORD PTR tv6030[ebp], ecx
  0071c	db 45 8c	 fild	 DWORD PTR tv6030[ebp]
  0071f	f3 0f 11 44 24
	10		 movss	 DWORD PTR [esp+16], xmm0
  00725	85 c9		 test	 ecx, ecx
  00727	79 06		 jns	 SHORT $LN815@AttackSkil
  00729	d8 05 00 00 00
	00		 fadd	 DWORD PTR __real@4f800000
$LN815@AttackSkil:
  0072f	d8 75 84	 fdiv	 DWORD PTR _fTimeRate$[ebp]
  00732	d9 5d 8c	 fstp	 DWORD PTR tv6027[ebp]
  00735	d9 45 8c	 fld	 DWORD PTR tv6027[ebp]
  00738	d9 5c 24 0c	 fstp	 DWORD PTR [esp+12]
  0073c	89 55 8c	 mov	 DWORD PTR tv6025[ebp], edx
  0073f	db 45 8c	 fild	 DWORD PTR tv6025[ebp]
  00742	85 d2		 test	 edx, edx
  00744	79 06		 jns	 SHORT $LN816@AttackSkil
  00746	d8 05 00 00 00
	00		 fadd	 DWORD PTR __real@4f800000
$LN816@AttackSkil:
  0074c	d9 5c 24 08	 fstp	 DWORD PTR [esp+8]
  00750	89 7d 8c	 mov	 DWORD PTR tv6023[ebp], edi
  00753	db 45 8c	 fild	 DWORD PTR tv6023[ebp]
  00756	85 ff		 test	 edi, edi
  00758	79 06		 jns	 SHORT $LN817@AttackSkil
  0075a	d8 05 00 00 00
	00		 fadd	 DWORD PTR __real@4f800000
$LN817@AttackSkil:
  00760	d9 5c 24 04	 fstp	 DWORD PTR [esp+4]
  00764	89 45 8c	 mov	 DWORD PTR tv6021[ebp], eax
  00767	db 45 8c	 fild	 DWORD PTR tv6021[ebp]

; 499  : 	}
; 500  : 	else

  0076a	e9 e2 02 00 00	 jmp	 $LN834@AttackSkil
$LN7@AttackSkil:

; 501  : 	{
; 502  : 		D3DXVECTOR3 vDir = m_vTargetPos - pChar->GetMidPositionByRate();

  0076f	b8 05 00 00 00	 mov	 eax, 5
  00774	8b c8		 mov	 ecx, eax
  00776	b8 0a 00 00 00	 mov	 eax, 10			; 0000000aH
  0077b	89 4d 8c	 mov	 DWORD PTR tv6005[ebp], ecx
  0077e	db 45 8c	 fild	 DWORD PTR tv6005[ebp]
  00781	85 c9		 test	 ecx, ecx
  00783	79 06		 jns	 SHORT $LN819@AttackSkil
  00785	d8 05 00 00 00
	00		 fadd	 DWORD PTR __real@4f800000
$LN819@AttackSkil:
  0078b	89 45 8c	 mov	 DWORD PTR tv6001[ebp], eax
  0078e	db 45 8c	 fild	 DWORD PTR tv6001[ebp]
  00791	85 c0		 test	 eax, eax
  00793	79 06		 jns	 SHORT $LN820@AttackSkil
  00795	d8 05 00 00 00
	00		 fadd	 DWORD PTR __real@4f800000
$LN820@AttackSkil:
  0079b	de f9		 fdivp	 ST(1), ST(0)
  0079d	51		 push	 ecx
  0079e	8b 8d 60 ff ff
	ff		 mov	 ecx, DWORD PTR _pChar$GSCopy$[ebp]
  007a4	8d 45 bc	 lea	 eax, DWORD PTR $T549492[ebp]
  007a7	d9 5d 8c	 fstp	 DWORD PTR tv5997[ebp]
  007aa	d9 45 8c	 fld	 DWORD PTR tv5997[ebp]
  007ad	d9 1c 24	 fstp	 DWORD PTR [esp]
  007b0	50		 push	 eax
  007b1	e8 00 00 00 00	 call	 ?GetMidPositionByRate@ioGameEntity@@QBE?AUD3DXVECTOR3@@M@Z ; ioGameEntity::GetMidPositionByRate
  007b6	f3 0f 10 08	 movss	 xmm1, DWORD PTR [eax]
  007ba	f3 0f 10 50 04	 movss	 xmm2, DWORD PTR [eax+4]
  007bf	f3 0f 10 86 e4
	12 00 00	 movss	 xmm0, DWORD PTR [esi+4836]
  007c7	f3 0f 10 58 08	 movss	 xmm3, DWORD PTR [eax+8]
  007cc	0f 5a c9	 cvtps2pd xmm1, xmm1
  007cf	0f 5a c0	 cvtps2pd xmm0, xmm0
  007d2	f2 0f 5c c1	 subsd	 xmm0, xmm1
  007d6	f3 0f 10 8e e8
	12 00 00	 movss	 xmm1, DWORD PTR [esi+4840]
  007de	0f 5a d2	 cvtps2pd xmm2, xmm2
  007e1	0f 5a c9	 cvtps2pd xmm1, xmm1
  007e4	f2 0f 5c ca	 subsd	 xmm1, xmm2
  007e8	f3 0f 10 96 ec
	12 00 00	 movss	 xmm2, DWORD PTR [esi+4844]

; 503  : 		D3DXVec3Normalize( &vDir, &vDir );

  007f0	8d 45 d4	 lea	 eax, DWORD PTR _vDir$549491[ebp]
  007f3	0f 5a d2	 cvtps2pd xmm2, xmm2
  007f6	0f 5a db	 cvtps2pd xmm3, xmm3
  007f9	50		 push	 eax
  007fa	f2 0f 5c d3	 subsd	 xmm2, xmm3
  007fe	66 0f 5a c0	 cvtpd2ps xmm0, xmm0
  00802	66 0f 5a c9	 cvtpd2ps xmm1, xmm1
  00806	66 0f 5a d2	 cvtpd2ps xmm2, xmm2
  0080a	50		 push	 eax
  0080b	f3 0f 11 45 d4	 movss	 DWORD PTR _vDir$549491[ebp], xmm0
  00810	f3 0f 11 4d d8	 movss	 DWORD PTR _vDir$549491[ebp+4], xmm1
  00815	f3 0f 11 55 dc	 movss	 DWORD PTR _vDir$549491[ebp+8], xmm2
  0081a	e8 00 00 00 00	 call	 _D3DXVec3Normalize@8

; 504  : 
; 505  : 		D3DXVECTOR3 vXZDir( vDir.x, 0.0f, vDir.z );

  0081f	f3 0f 10 45 d4	 movss	 xmm0, DWORD PTR _vDir$549491[ebp]

; 506  : 		D3DXVec3Normalize( &vXZDir, &vXZDir );

  00824	8d 45 c8	 lea	 eax, DWORD PTR _vXZDir$549494[ebp]
  00827	f3 0f 11 45 c8	 movss	 DWORD PTR _vXZDir$549494[ebp], xmm0
  0082c	0f 57 c0	 xorps	 xmm0, xmm0
  0082f	50		 push	 eax
  00830	f3 0f 11 45 cc	 movss	 DWORD PTR _vXZDir$549494[ebp+4], xmm0
  00835	f3 0f 10 45 dc	 movss	 xmm0, DWORD PTR _vDir$549491[ebp+8]
  0083a	50		 push	 eax
  0083b	f3 0f 11 45 d0	 movss	 DWORD PTR _vXZDir$549494[ebp+8], xmm0
  00840	e8 00 00 00 00	 call	 _D3DXVec3Normalize@8

; 507  : 
; 508  : 		float fAngle = D3DXVec3Dot( &vXZDir, &vDir );

  00845	f3 0f 10 45 cc	 movss	 xmm0, DWORD PTR _vXZDir$549494[ebp+4]
  0084a	f3 0f 10 4d d8	 movss	 xmm1, DWORD PTR _vDir$549491[ebp+4]
  0084f	f3 0f 10 55 d4	 movss	 xmm2, DWORD PTR _vDir$549491[ebp]
  00854	0f 5a c9	 cvtps2pd xmm1, xmm1
  00857	0f 5a c0	 cvtps2pd xmm0, xmm0
  0085a	f2 0f 59 c1	 mulsd	 xmm0, xmm1
  0085e	f3 0f 10 4d c8	 movss	 xmm1, DWORD PTR _vXZDir$549494[ebp]
  00863	0f 5a c9	 cvtps2pd xmm1, xmm1
  00866	0f 5a d2	 cvtps2pd xmm2, xmm2
  00869	f2 0f 59 ca	 mulsd	 xmm1, xmm2
  0086d	f3 0f 10 55 dc	 movss	 xmm2, DWORD PTR _vDir$549491[ebp+8]
  00872	f2 0f 58 c1	 addsd	 xmm0, xmm1
  00876	f3 0f 10 4d d0	 movss	 xmm1, DWORD PTR _vXZDir$549494[ebp+8]
  0087b	0f 5a c9	 cvtps2pd xmm1, xmm1
  0087e	0f 5a d2	 cvtps2pd xmm2, xmm2
  00881	f2 0f 59 ca	 mulsd	 xmm1, xmm2
  00885	f2 0f 58 c1	 addsd	 xmm0, xmm1
  00889	66 0f 5a c0	 cvtpd2ps xmm0, xmm0
  0088d	f3 0f 11 45 88	 movss	 DWORD PTR _fAngle$549495[ebp], xmm0

; 509  : 		fAngle = max( -FLOAT1, min( fAngle, FLOAT1 ) );

  00892	b8 01 00 00 00	 mov	 eax, 1
  00897	d9 45 88	 fld	 DWORD PTR _fAngle$549495[ebp]
  0089a	89 45 8c	 mov	 DWORD PTR tv5967[ebp], eax
  0089d	db 45 8c	 fild	 DWORD PTR tv5967[ebp]
  008a0	85 c0		 test	 eax, eax
  008a2	79 06		 jns	 SHORT $LN821@AttackSkil
  008a4	d8 05 00 00 00
	00		 fadd	 DWORD PTR __real@4f800000
$LN821@AttackSkil:
  008aa	df f1		 fcomip	 ST(1)
  008ac	dd d8		 fstp	 ST(0)
  008ae	76 0a		 jbe	 SHORT $LN21@AttackSkil
  008b0	f3 0f 11 85 64
	ff ff ff	 movss	 DWORD PTR tv574[ebp], xmm0
  008b8	eb 1b		 jmp	 SHORT $LN22@AttackSkil
$LN21@AttackSkil:
  008ba	b8 01 00 00 00	 mov	 eax, 1
  008bf	89 45 8c	 mov	 DWORD PTR tv5957[ebp], eax
  008c2	db 45 8c	 fild	 DWORD PTR tv5957[ebp]
  008c5	85 c0		 test	 eax, eax
  008c7	79 06		 jns	 SHORT $LN822@AttackSkil
  008c9	d8 05 00 00 00
	00		 fadd	 DWORD PTR __real@4f800000
$LN822@AttackSkil:
  008cf	d9 9d 64 ff ff
	ff		 fstp	 DWORD PTR tv574[ebp]
$LN22@AttackSkil:
  008d5	b8 01 00 00 00	 mov	 eax, 1
  008da	89 45 8c	 mov	 DWORD PTR tv5952[ebp], eax
  008dd	db 45 8c	 fild	 DWORD PTR tv5952[ebp]
  008e0	85 c0		 test	 eax, eax
  008e2	79 06		 jns	 SHORT $LN823@AttackSkil
  008e4	d8 05 00 00 00
	00		 fadd	 DWORD PTR __real@4f800000
$LN823@AttackSkil:
  008ea	d9 e0		 fchs
  008ec	d9 85 64 ff ff
	ff		 fld	 DWORD PTR tv574[ebp]
  008f2	d9 c9		 fxch	 ST(1)
  008f4	df f1		 fcomip	 ST(1)
  008f6	dd d8		 fstp	 ST(0)
  008f8	76 19		 jbe	 SHORT $LN25@AttackSkil
  008fa	b8 01 00 00 00	 mov	 eax, 1
  008ff	89 45 8c	 mov	 DWORD PTR tv5943[ebp], eax
  00902	db 45 8c	 fild	 DWORD PTR tv5943[ebp]
  00905	85 c0		 test	 eax, eax
  00907	79 06		 jns	 SHORT $LN824@AttackSkil
  00909	d8 05 00 00 00
	00		 fadd	 DWORD PTR __real@4f800000
$LN824@AttackSkil:
  0090f	d9 e0		 fchs
  00911	eb 33		 jmp	 SHORT $LN826@AttackSkil
$LN25@AttackSkil:
  00913	b8 01 00 00 00	 mov	 eax, 1
  00918	d9 45 88	 fld	 DWORD PTR _fAngle$549495[ebp]
  0091b	89 45 8c	 mov	 DWORD PTR tv5938[ebp], eax
  0091e	db 45 8c	 fild	 DWORD PTR tv5938[ebp]
  00921	85 c0		 test	 eax, eax
  00923	79 06		 jns	 SHORT $LN825@AttackSkil
  00925	d8 05 00 00 00
	00		 fadd	 DWORD PTR __real@4f800000
$LN825@AttackSkil:
  0092b	df f1		 fcomip	 ST(1)
  0092d	dd d8		 fstp	 ST(0)
  0092f	77 18		 ja	 SHORT $LN24@AttackSkil
  00931	b8 01 00 00 00	 mov	 eax, 1
  00936	89 45 8c	 mov	 DWORD PTR tv5929[ebp], eax
  00939	db 45 8c	 fild	 DWORD PTR tv5929[ebp]
  0093c	85 c0		 test	 eax, eax
  0093e	79 06		 jns	 SHORT $LN826@AttackSkil
  00940	d8 05 00 00 00
	00		 fadd	 DWORD PTR __real@4f800000
$LN826@AttackSkil:
  00946	d9 5d 88	 fstp	 DWORD PTR _fAngle$549495[ebp]
$LN24@AttackSkil:

; 510  : 		fAngle = acosf( fAngle );
; 511  : 		fAngle = RADtoDEG( fAngle );

  00949	d9 45 88	 fld	 DWORD PTR _fAngle$549495[ebp]
  0094c	e8 00 00 00 00	 call	 __CIacos
  00951	d9 5d 8c	 fstp	 DWORD PTR tv5922[ebp]
  00954	d9 45 8c	 fld	 DWORD PTR tv5922[ebp]
  00957	51		 push	 ecx
  00958	d9 1c 24	 fstp	 DWORD PTR [esp]
  0095b	e8 00 00 00 00	 call	 ??$RADtoDEG@M@@YAMM@Z	; RADtoDEG<float>

; 512  : 		fAngle = max( 0.0f, min( fAngle, 85.0f ) );

  00960	f3 0f 10 05 00
	00 00 00	 movss	 xmm0, DWORD PTR __real@42aa0000
  00968	d9 5d 88	 fstp	 DWORD PTR _fAngle$549495[ebp]
  0096b	d9 45 88	 fld	 DWORD PTR _fAngle$549495[ebp]
  0096e	f3 0f 10 4d 88	 movss	 xmm1, DWORD PTR _fAngle$549495[ebp]
  00973	d9 05 00 00 00
	00		 fld	 DWORD PTR __real@42aa0000
  00979	59		 pop	 ecx
  0097a	df f1		 fcomip	 ST(1)
  0097c	dd d8		 fstp	 ST(0)
  0097e	76 05		 jbe	 SHORT $LN27@AttackSkil
  00980	0f 28 d1	 movaps	 xmm2, xmm1
  00983	eb 03		 jmp	 SHORT $LN28@AttackSkil
$LN27@AttackSkil:
  00985	0f 28 d0	 movaps	 xmm2, xmm0
$LN28@AttackSkil:
  00988	0f 57 db	 xorps	 xmm3, xmm3
  0098b	f3 0f 5a d2	 cvtss2sd xmm2, xmm2
  0098f	66 0f 2f da	 comisd	 xmm3, xmm2
  00993	76 05		 jbe	 SHORT $LN31@AttackSkil
  00995	0f 57 c9	 xorps	 xmm1, xmm1
  00998	eb 08		 jmp	 SHORT $LN30@AttackSkil
$LN31@AttackSkil:
  0099a	0f 2f c1	 comiss	 xmm0, xmm1
  0099d	77 03		 ja	 SHORT $LN30@AttackSkil
  0099f	0f 28 c8	 movaps	 xmm1, xmm0
$LN30@AttackSkil:

; 513  : 
; 514  : 		float fWeight = fAngle / 85.0f;
; 515  : 		if( vDir.y == 0.0f )

  009a2	0f 57 d2	 xorps	 xmm2, xmm2
  009a5	0f 5a c1	 cvtps2pd xmm0, xmm1
  009a8	f3 0f 10 4d d8	 movss	 xmm1, DWORD PTR _vDir$549491[ebp+4]
  009ad	f2 0f 5e 05 00
	00 00 00	 divsd	 xmm0, QWORD PTR __real@4055400000000000
  009b5	0f 2e ca	 ucomiss xmm1, xmm2
  009b8	9f		 lahf
  009b9	66 0f 5a c0	 cvtpd2ps xmm0, xmm0
  009bd	84 e3		 test	 ah, bl
  009bf	0f 8a aa 00 00
	00		 jp	 $LN5@AttackSkil

; 516  : 			pGrp->SetActionAni( iAniID, FLOAT100, FLOAT100, FLOAT1, FLOAT1/fTimeRate, 0.0f, dwPreDelay, true );

  009c5	b8 01 00 00 00	 mov	 eax, 1
  009ca	8b c8		 mov	 ecx, eax
  009cc	b8 01 00 00 00	 mov	 eax, 1
  009d1	8b d0		 mov	 edx, eax
  009d3	b8 64 00 00 00	 mov	 eax, 100		; 00000064H
  009d8	8b f8		 mov	 edi, eax
  009da	b8 64 00 00 00	 mov	 eax, 100		; 00000064H
  009df	db 85 68 ff ff
	ff		 fild	 DWORD PTR _dwPreDelay$[ebp]
  009e5	8b 9d 68 ff ff
	ff		 mov	 ebx, DWORD PTR _dwPreDelay$[ebp]
  009eb	6a 01		 push	 1
  009ed	6a 01		 push	 1
  009ef	85 db		 test	 ebx, ebx
  009f1	79 06		 jns	 SHORT $LN827@AttackSkil
  009f3	d8 05 00 00 00
	00		 fadd	 DWORD PTR __real@4f800000
$LN827@AttackSkil:
  009f9	83 ec 18	 sub	 esp, 24			; 00000018H
  009fc	d9 5c 24 14	 fstp	 DWORD PTR [esp+20]
  00a00	89 4d 8c	 mov	 DWORD PTR tv5894[ebp], ecx
  00a03	db 45 8c	 fild	 DWORD PTR tv5894[ebp]
  00a06	f3 0f 11 54 24
	10		 movss	 DWORD PTR [esp+16], xmm2
  00a0c	85 c9		 test	 ecx, ecx
  00a0e	79 06		 jns	 SHORT $LN828@AttackSkil
  00a10	d8 05 00 00 00
	00		 fadd	 DWORD PTR __real@4f800000
$LN828@AttackSkil:
  00a16	d8 75 84	 fdiv	 DWORD PTR _fTimeRate$[ebp]
  00a19	d9 5d 8c	 fstp	 DWORD PTR tv5891[ebp]
  00a1c	d9 45 8c	 fld	 DWORD PTR tv5891[ebp]
  00a1f	d9 5c 24 0c	 fstp	 DWORD PTR [esp+12]
  00a23	89 55 8c	 mov	 DWORD PTR tv5889[ebp], edx
  00a26	db 45 8c	 fild	 DWORD PTR tv5889[ebp]
  00a29	85 d2		 test	 edx, edx
  00a2b	79 06		 jns	 SHORT $LN829@AttackSkil
  00a2d	d8 05 00 00 00
	00		 fadd	 DWORD PTR __real@4f800000
$LN829@AttackSkil:
  00a33	d9 5c 24 08	 fstp	 DWORD PTR [esp+8]
  00a37	89 7d 8c	 mov	 DWORD PTR tv5887[ebp], edi
  00a3a	db 45 8c	 fild	 DWORD PTR tv5887[ebp]
  00a3d	85 ff		 test	 edi, edi
  00a3f	79 06		 jns	 SHORT $LN830@AttackSkil
  00a41	d8 05 00 00 00
	00		 fadd	 DWORD PTR __real@4f800000
$LN830@AttackSkil:
  00a47	d9 5c 24 04	 fstp	 DWORD PTR [esp+4]
  00a4b	89 45 8c	 mov	 DWORD PTR tv5885[ebp], eax
  00a4e	db 45 8c	 fild	 DWORD PTR tv5885[ebp]
$LN834@AttackSkil:
  00a51	85 c0		 test	 eax, eax
  00a53	79 06		 jns	 SHORT $LN831@AttackSkil
  00a55	d8 05 00 00 00
	00		 fadd	 DWORD PTR __real@4f800000
$LN831@AttackSkil:
  00a5b	8b 8d 7c ff ff
	ff		 mov	 ecx, DWORD PTR _pGrp$[ebp]
  00a61	d9 1c 24	 fstp	 DWORD PTR [esp]
  00a64	ff 75 80	 push	 DWORD PTR _iAniID$[ebp]
  00a67	ff 15 00 00 00
	00		 call	 DWORD PTR __imp_?SetActionAni@ioEntityGroup@@QAE_NHMMMMMM_N0@Z
  00a6d	eb 33		 jmp	 SHORT $LN2@AttackSkil
$LN5@AttackSkil:

; 517  : 		else if( vDir.y > 0.0f )
; 518  : 			AimedFireToUp( pGrp, fWeight, fTimeRate, dwPreDelay, true );

  00a6f	6a 01		 push	 1
  00a71	ff b5 68 ff ff
	ff		 push	 DWORD PTR _dwPreDelay$[ebp]
  00a77	0f 2f ca	 comiss	 xmm1, xmm2
  00a7a	f3 0f 10 4d 84	 movss	 xmm1, DWORD PTR _fTimeRate$[ebp]
  00a7f	51		 push	 ecx
  00a80	51		 push	 ecx
  00a81	f3 0f 11 4c 24
	04		 movss	 DWORD PTR [esp+4], xmm1
  00a87	f3 0f 11 04 24	 movss	 DWORD PTR [esp], xmm0
  00a8c	ff b5 7c ff ff
	ff		 push	 DWORD PTR _pGrp$[ebp]
  00a92	8b ce		 mov	 ecx, esi
  00a94	76 07		 jbe	 SHORT $LN3@AttackSkil
  00a96	e8 00 00 00 00	 call	 ?AimedFireToUp@ioFireSkill2@@IAEXPAVioEntityGroup@@MMK_N@Z ; ioFireSkill2::AimedFireToUp

; 519  : 		else

  00a9b	eb 05		 jmp	 SHORT $LN2@AttackSkil
$LN3@AttackSkil:

; 520  : 			AimedFireToDown( pGrp, fWeight, fTimeRate, dwPreDelay, true );

  00a9d	e8 00 00 00 00	 call	 ?AimedFireToDown@ioFireSkill2@@IAEXPAVioEntityGroup@@MMK_N@Z ; ioFireSkill2::AimedFireToDown
$LN2@AttackSkil:

; 521  : 	}
; 522  : 
; 523  : 	pChar->SetReservedSliding( GetAttribute().m_vForceInfoList, iAniID, fTimeRate, dwPreDelay );

  00aa2	f3 0f 10 05 00
	00 00 00	 movss	 xmm0, DWORD PTR __real@3f800000
  00aaa	8b 06		 mov	 eax, DWORD PTR [esi]
  00aac	6a 01		 push	 1
  00aae	51		 push	 ecx
  00aaf	f3 0f 11 04 24	 movss	 DWORD PTR [esp], xmm0
  00ab4	ff b5 68 ff ff
	ff		 push	 DWORD PTR _dwPreDelay$[ebp]
  00aba	f3 0f 10 45 84	 movss	 xmm0, DWORD PTR _fTimeRate$[ebp]
  00abf	51		 push	 ecx
  00ac0	f3 0f 11 04 24	 movss	 DWORD PTR [esp], xmm0
  00ac5	ff 75 80	 push	 DWORD PTR _iAniID$[ebp]
  00ac8	8b ce		 mov	 ecx, esi
  00aca	ff 90 a4 01 00
	00		 call	 DWORD PTR [eax+420]
  00ad0	8b bd 60 ff ff
	ff		 mov	 edi, DWORD PTR _pChar$GSCopy$[ebp]
  00ad6	83 c0 38	 add	 eax, 56			; 00000038H
  00ad9	50		 push	 eax
  00ada	8b cf		 mov	 ecx, edi
  00adc	e8 00 00 00 00	 call	 ?SetReservedSliding@ioBaseChar@@QAEXABV?$vector@UForceInfo@@V?$allocator@UForceInfo@@@std@@@std@@HMKM_N@Z ; ioBaseChar::SetReservedSliding

; 524  : 
; 525  : 	if( !m_bReduceGauge )

  00ae1	80 be 50 03 00
	00 00		 cmp	 BYTE PTR [esi+848], 0
  00ae8	75 23		 jne	 SHORT $LN1@AttackSkil

; 526  : 	{
; 527  : 		pChar->ReduceNeedGaugeBySkill( this, GetNeedGauge(pChar->GetCharName()) );

  00aea	8d 87 d4 02 00
	00		 lea	 eax, DWORD PTR [edi+724]
  00af0	50		 push	 eax
  00af1	8b ce		 mov	 ecx, esi
  00af3	e8 00 00 00 00	 call	 ?GetNeedGauge@ioSkill@@QAEMABVioHashString@@@Z ; ioSkill::GetNeedGauge
  00af8	51		 push	 ecx
  00af9	d9 1c 24	 fstp	 DWORD PTR [esp]
  00afc	56		 push	 esi
  00afd	8b cf		 mov	 ecx, edi
  00aff	e8 00 00 00 00	 call	 ?ReduceNeedGaugeBySkill@ioBaseChar@@QAEMPAVioSkill@@M@Z ; ioBaseChar::ReduceNeedGaugeBySkill
  00b04	dd d8		 fstp	 ST(0)

; 528  : 		m_bReduceGauge = true;

  00b06	c6 86 50 03 00
	00 01		 mov	 BYTE PTR [esi+848], 1
$LN1@AttackSkil:

; 529  : 	}
; 530  : }

  00b0d	83 4d fc ff	 or	 DWORD PTR __$EHRec$[ebp+8], -1
  00b11	8d 8d 6c ff ff
	ff		 lea	 ecx, DWORD PTR _vAniRotateList$[ebp]
  00b17	e8 00 00 00 00	 call	 ?_Tidy@?$vector@PBUAniEventTime@@V?$allocator@PBUAniEventTime@@@std@@@std@@IAEXXZ ; std::vector<AniEventTime const *,std::allocator<AniEventTime const *> >::_Tidy
$LN773@AttackSkil:
  00b1c	e8 00 00 00 00	 call	 __EH_epilog3_GS
  00b21	c2 04 00	 ret	 4
_TEXT	ENDS
;	COMDAT text$x
text$x	SEGMENT
__unwindfunclet$?AttackSkillFire@ioFireSkill2@@MAEXPAVioBaseChar@@@Z$3:
  00000	8d 4d 9c	 lea	 ecx, DWORD PTR $T563402[ebp]
  00003	ff 25 00 00 00
	00		 jmp	 DWORD PTR __imp_??1ioHashString@@QAE@XZ
__unwindfunclet$?AttackSkillFire@ioFireSkill2@@MAEXPAVioBaseChar@@@Z$4:
  00009	8d 4d 9c	 lea	 ecx, DWORD PTR $T563532[ebp]
  0000c	ff 25 00 00 00
	00		 jmp	 DWORD PTR __imp_??1ioHashString@@QAE@XZ
__unwindfunclet$?AttackSkillFire@ioFireSkill2@@MAEXPAVioBaseChar@@@Z$0:
  00012	8d 8d 6c ff ff
	ff		 lea	 ecx, DWORD PTR _vAniRotateList$[ebp]
  00018	e9 00 00 00 00	 jmp	 ??1?$vector@PBUAniEventTime@@V?$allocator@PBUAniEventTime@@@std@@@std@@QAE@XZ ; std::vector<AniEventTime const *,std::allocator<AniEventTime const *> >::~vector<AniEventTime const *,std::allocator<AniEventTime const *> >
__unwindfunclet$?AttackSkillFire@ioFireSkill2@@MAEXPAVioBaseChar@@@Z$5:
  0001d	8d 4d 9c	 lea	 ecx, DWORD PTR $T563766[ebp]
  00020	ff 25 00 00 00
	00		 jmp	 DWORD PTR __imp_??1ioHashString@@QAE@XZ
__unwindfunclet$?AttackSkillFire@ioFireSkill2@@MAEXPAVioBaseChar@@@Z$1:
  00026	8d 4d ac	 lea	 ecx, DWORD PTR $T549470[ebp]
  00029	e9 00 00 00 00	 jmp	 ??1?$basic_string@DU?$char_traits@D@std@@V?$allocator@D@2@@std@@QAE@XZ ; std::basic_string<char,std::char_traits<char>,std::allocator<char> >::~basic_string<char,std::char_traits<char>,std::allocator<char> >
__unwindfunclet$?AttackSkillFire@ioFireSkill2@@MAEXPAVioBaseChar@@@Z$2:
  0002e	8d 4d 90	 lea	 ecx, DWORD PTR $T549471[ebp]
  00031	e9 00 00 00 00	 jmp	 ??1?$basic_string@DU?$char_traits@D@std@@V?$allocator@D@2@@std@@QAE@XZ ; std::basic_string<char,std::char_traits<char>,std::allocator<char> >::~basic_string<char,std::char_traits<char>,std::allocator<char> >
__unwindfunclet$?AttackSkillFire@ioFireSkill2@@MAEXPAVioBaseChar@@@Z$6:
  00036	8d 4d 9c	 lea	 ecx, DWORD PTR $T564243[ebp]
  00039	ff 25 00 00 00
	00		 jmp	 DWORD PTR __imp_??1ioHashString@@QAE@XZ
__unwindfunclet$?AttackSkillFire@ioFireSkill2@@MAEXPAVioBaseChar@@@Z$7:
  0003f	8d 4d 9c	 lea	 ecx, DWORD PTR $T564407[ebp]
  00042	ff 25 00 00 00
	00		 jmp	 DWORD PTR __imp_??1ioHashString@@QAE@XZ
__ehhandler$?AttackSkillFire@ioFireSkill2@@MAEXPAVioBaseChar@@@Z:
  00048	8b 54 24 08	 mov	 edx, DWORD PTR [esp+8]
  0004c	8d 42 0c	 lea	 eax, DWORD PTR [edx+12]
  0004f	8b 8a 58 ff ff
	ff		 mov	 ecx, DWORD PTR [edx-168]
  00055	33 c8		 xor	 ecx, eax
  00057	e8 00 00 00 00	 call	 @__security_check_cookie@4
  0005c	8b 4a fc	 mov	 ecx, DWORD PTR [edx-4]
  0005f	33 c8		 xor	 ecx, eax
  00061	e8 00 00 00 00	 call	 @__security_check_cookie@4
  00066	b8 00 00 00 00	 mov	 eax, OFFSET __ehfuncinfo$?AttackSkillFire@ioFireSkill2@@MAEXPAVioBaseChar@@@Z
  0006b	e9 00 00 00 00	 jmp	 ___CxxFrameHandler3
text$x	ENDS
?AttackSkillFire@ioFireSkill2@@MAEXPAVioBaseChar@@@Z ENDP ; ioFireSkill2::AttackSkillFire
PUBLIC	?push_back@?$vector@UtagBaseCharDistanceSq@@V?$allocator@UtagBaseCharDistanceSq@@@std@@@std@@QAEXABUtagBaseCharDistanceSq@@@Z ; std::vector<tagBaseCharDistanceSq,std::allocator<tagBaseCharDistanceSq> >::push_back
; Function compile flags: /Ogsp
; File c:\program files (x86)\microsoft visual studio 10.0\vc\include\vector
;	COMDAT ?push_back@?$vector@UtagBaseCharDistanceSq@@V?$allocator@UtagBaseCharDistanceSq@@@std@@@std@@QAEXABUtagBaseCharDistanceSq@@@Z
_TEXT	SEGMENT
__Val$ = 8						; size = 4
?push_back@?$vector@UtagBaseCharDistanceSq@@V?$allocator@UtagBaseCharDistanceSq@@@std@@@std@@QAEXABUtagBaseCharDistanceSq@@@Z PROC ; std::vector<tagBaseCharDistanceSq,std::allocator<tagBaseCharDistanceSq> >::push_back, COMDAT
; _this$ = ecx

; 976  : 		{	// insert element at end

  00000	55		 push	 ebp
  00001	8b ec		 mov	 ebp, esp
  00003	56		 push	 esi
  00004	8b f1		 mov	 esi, ecx

; 977  : 		if (_Inside(_STD addressof(_Val)))

  00006	8b 46 04	 mov	 eax, DWORD PTR [esi+4]
  00009	57		 push	 edi
  0000a	8b 7d 08	 mov	 edi, DWORD PTR __Val$[ebp]
  0000d	3b f8		 cmp	 edi, eax
  0000f	73 2d		 jae	 SHORT $LN4@push_back@2
  00011	8b 0e		 mov	 ecx, DWORD PTR [esi]
  00013	3b cf		 cmp	 ecx, edi
  00015	77 27		 ja	 SHORT $LN4@push_back@2

; 978  : 			{	// push back an element
; 979  : 			size_type _Idx = _STD addressof(_Val) - this->_Myfirst;

  00017	2b f9		 sub	 edi, ecx

; 980  : 			if (this->_Mylast == this->_Myend)

  00019	3b 46 08	 cmp	 eax, DWORD PTR [esi+8]
  0001c	75 09		 jne	 SHORT $LN3@push_back@2

; 981  : 				_Reserve(1);

  0001e	6a 01		 push	 1
  00020	8b ce		 mov	 ecx, esi
  00022	e8 00 00 00 00	 call	 ?_Reserve@?$vector@UtagBaseCharDistanceSq@@V?$allocator@UtagBaseCharDistanceSq@@@std@@@std@@IAEXI@Z ; std::vector<tagBaseCharDistanceSq,std::allocator<tagBaseCharDistanceSq> >::_Reserve
$LN3@push_back@2:

; 982  : 			_Orphan_range(this->_Mylast, this->_Mylast);
; 983  : 			_Cons_val(this->_Alval,
; 984  : 				this->_Mylast,
; 985  : 				this->_Myfirst[_Idx]);

  00027	83 e7 e0	 and	 edi, -32		; ffffffe0H
  0002a	03 3e		 add	 edi, DWORD PTR [esi]
  0002c	8d 46 0c	 lea	 eax, DWORD PTR [esi+12]
  0002f	57		 push	 edi
  00030	ff 76 04	 push	 DWORD PTR [esi+4]
  00033	50		 push	 eax
  00034	e8 00 00 00 00	 call	 ??$_Cons_val@V?$allocator@UtagBaseCharDistanceSq@@@std@@UtagBaseCharDistanceSq@@AAU3@@std@@YAXAAV?$allocator@UtagBaseCharDistanceSq@@@0@PAUtagBaseCharDistanceSq@@AAU2@@Z ; std::_Cons_val<std::allocator<tagBaseCharDistanceSq>,tagBaseCharDistanceSq,tagBaseCharDistanceSq &>
  00039	83 c4 0c	 add	 esp, 12			; 0000000cH

; 986  : 			++this->_Mylast;
; 987  : 			}
; 988  : 		else

  0003c	eb 19		 jmp	 SHORT $LN26@push_back@2
$LN4@push_back@2:

; 989  : 			{	// push back a non-element
; 990  : 			if (this->_Mylast == this->_Myend)

  0003e	3b 46 08	 cmp	 eax, DWORD PTR [esi+8]
  00041	75 09		 jne	 SHORT $LN1@push_back@2

; 991  : 				_Reserve(1);

  00043	6a 01		 push	 1
  00045	8b ce		 mov	 ecx, esi
  00047	e8 00 00 00 00	 call	 ?_Reserve@?$vector@UtagBaseCharDistanceSq@@V?$allocator@UtagBaseCharDistanceSq@@@std@@@std@@IAEXI@Z ; std::vector<tagBaseCharDistanceSq,std::allocator<tagBaseCharDistanceSq> >::_Reserve
$LN1@push_back@2:

; 992  : 			_Orphan_range(this->_Mylast, this->_Mylast);
; 993  : 			_Cons_val(this->_Alval,
; 994  : 				this->_Mylast,
; 995  : 				_Val);

  0004c	57		 push	 edi
  0004d	ff 76 04	 push	 DWORD PTR [esi+4]
  00050	e8 00 00 00 00	 call	 ??$_Construct@UtagBaseCharDistanceSq@@ABU1@@std@@YAXPAUtagBaseCharDistanceSq@@ABU1@@Z ; std::_Construct<tagBaseCharDistanceSq,tagBaseCharDistanceSq const &>
  00055	59		 pop	 ecx
  00056	59		 pop	 ecx
$LN26@push_back@2:

; 996  : 			++this->_Mylast;

  00057	83 46 04 20	 add	 DWORD PTR [esi+4], 32	; 00000020H
  0005b	5f		 pop	 edi
  0005c	5e		 pop	 esi

; 997  : 			}
; 998  : 		}

  0005d	5d		 pop	 ebp
  0005e	c2 04 00	 ret	 4
?push_back@?$vector@UtagBaseCharDistanceSq@@V?$allocator@UtagBaseCharDistanceSq@@@std@@@std@@QAEXABUtagBaseCharDistanceSq@@@Z ENDP ; std::vector<tagBaseCharDistanceSq,std::allocator<tagBaseCharDistanceSq> >::push_back
_TEXT	ENDS
PUBLIC	__real@0000000000000000
PUBLIC	_pStage$GSCopy$
PUBLIC	_pChar$GSCopy$
PUBLIC	?CheckNextTarget@ioFireSkill2@@IAEXPAVioBaseChar@@PAVioPlayStage@@@Z ; ioFireSkill2::CheckNextTarget
EXTRN	?SetTargetRotToTargetPos@ioBaseChar@@QAEXABUD3DXVECTOR3@@_N1@Z:PROC ; ioBaseChar::SetTargetRotToTargetPos
EXTRN	?GetBaseChar@ioPlayStage@@QAEPAVioBaseChar@@ABVioHashString@@@Z:PROC ; ioPlayStage::GetBaseChar
EXTRN	__imp_??9ioHashString@@QBE_NABV0@@Z:PROC
EXTRN	?CheckTargetWoundType@ioBaseChar@@QAE_NW4TargetWoundType@@@Z:PROC ; ioBaseChar::CheckTargetWoundType
EXTRN	?IsEnableTarget@ioBaseChar@@QAE_N_N0@Z:PROC	; ioBaseChar::IsEnableTarget
EXTRN	?IsSystemState@ioBaseChar@@QAE_NXZ:PROC		; ioBaseChar::IsSystemState
EXTRN	?GetTargetCharListBySphere@ioBaseChar@@QAEXABUD3DXVECTOR3@@MMAAV?$vector@PAVioBaseChar@@V?$allocator@PAVioBaseChar@@@std@@@std@@@Z:PROC ; ioBaseChar::GetTargetCharListBySphere
EXTRN	?GetTargetCharListByCylinder@ioBaseChar@@QAEXABUD3DXVECTOR3@@MMMMAAV?$vector@PAVioBaseChar@@V?$allocator@PAVioBaseChar@@@std@@@std@@@Z:PROC ; ioBaseChar::GetTargetCharListByCylinder
EXTRN	?GetTargetCharListByBox@ioBaseChar@@QAEXABUD3DXVECTOR3@@MMMMAAV?$vector@PAVioBaseChar@@V?$allocator@PAVioBaseChar@@@std@@@std@@@Z:PROC ; ioBaseChar::GetTargetCharListByBox
EXTRN	__imp_??D@YA?AUD3DXVECTOR3@@ABUD3DXQUATERNION@@ABU0@@Z:PROC
;	COMDAT __real@0000000000000000
CONST	SEGMENT
__real@0000000000000000 DQ 00000000000000000r	; 0
CONST	ENDS
;	COMDAT xdata$x
xdata$x	SEGMENT
__unwindtable$?CheckNextTarget@ioFireSkill2@@IAEXPAVioBaseChar@@PAVioPlayStage@@@Z DD 0ffffffffH
	DD	FLAT:__unwindfunclet$?CheckNextTarget@ioFireSkill2@@IAEXPAVioBaseChar@@PAVioPlayStage@@@Z$0
	DD	00H
	DD	FLAT:__unwindfunclet$?CheckNextTarget@ioFireSkill2@@IAEXPAVioBaseChar@@PAVioPlayStage@@@Z$1
	DD	01H
	DD	FLAT:__unwindfunclet$?CheckNextTarget@ioFireSkill2@@IAEXPAVioBaseChar@@PAVioPlayStage@@@Z$2
	DD	01H
	DD	FLAT:__unwindfunclet$?CheckNextTarget@ioFireSkill2@@IAEXPAVioBaseChar@@PAVioPlayStage@@@Z$3
__ehfuncinfo$?CheckNextTarget@ioFireSkill2@@IAEXPAVioBaseChar@@PAVioPlayStage@@@Z DD 019930522H
	DD	04H
	DD	FLAT:__unwindtable$?CheckNextTarget@ioFireSkill2@@IAEXPAVioBaseChar@@PAVioPlayStage@@@Z
	DD	2 DUP(00H)
	DD	2 DUP(00H)
	DD	00H
	DD	01H
; Function compile flags: /Ogsp
; File d:\lost saga for developer\youtube\tutorial\source\src\lsclient\iofireskill2.cpp
xdata$x	ENDS
;	COMDAT ?CheckNextTarget@ioFireSkill2@@IAEXPAVioBaseChar@@PAVioPlayStage@@@Z
_TEXT	SEGMENT
_pChar$GSCopy$ = -140					; size = 4
_vNewCharList$ = -136					; size = 16
_vTargetList$ = -120					; size = 16
$T564708 = -104						; size = 1
_pStage$GSCopy$ = -104					; size = 4
_value$565318 = -104					; size = 4
_value$565323 = -104					; size = 4
_value$564905 = -100					; size = 4
$T564877 = -100						; size = 4
_value$564819 = -100					; size = 4
_value$564810 = -100					; size = 4
tv1801 = -96						; size = 4
tv1780 = -96						; size = 4
tv1776 = -96						; size = 4
tv1772 = -96						; size = 4
_value$564910 = -96					; size = 4
_value$564876 = -96					; size = 4
$T564881 = -96						; size = 4
$T564837 = -96						; size = 4
_value$564824 = -96					; size = 4
tv1862 = -92						; size = 4
tv1858 = -92						; size = 4
tv1846 = -92						; size = 4
tv1809 = -92						; size = 4
tv1805 = -92						; size = 4
$T564988 = -92						; size = 4
_value$564926 = -92					; size = 4
$T564893 = -92						; size = 4
_value$564889 = -92					; size = 4
_value$564900 = -92					; size = 4
_value$564814 = -92					; size = 4
_value$564805 = -92					; size = 4
_fDistanceSq$548786 = -92				; size = 4
tv1854 = -88						; size = 4
_value$565336 = -88					; size = 4
_value$564915 = -88					; size = 4
$T564885 = -88						; size = 4
$T564865 = -88						; size = 4
_value$564872 = -88					; size = 4
_value$564841 = -88					; size = 4
_value$564829 = -88					; size = 4
_value$564786 = -88					; size = 4
_iter$ = -88						; size = 4
$T564704 = -88						; size = 4
_kTarget$548787 = -84					; size = 32
_szCurTarget$548926 = -68				; size = 16
$T548959 = -52						; size = 12
$T548607 = -52						; size = 12
_vSightDir$ = -40					; size = 12
_vPos$ = -28						; size = 12
__$EHRec$ = -12						; size = 12
_pChar$ = 8						; size = 4
_pStage$ = 12						; size = 4
?CheckNextTarget@ioFireSkill2@@IAEXPAVioBaseChar@@PAVioPlayStage@@@Z PROC ; ioFireSkill2::CheckNextTarget, COMDAT
; _this$ = ecx

; 263  : {

  00000	68 80 00 00 00	 push	 128			; 00000080H
  00005	b8 00 00 00 00	 mov	 eax, __ehhandler$?CheckNextTarget@ioFireSkill2@@IAEXPAVioBaseChar@@PAVioPlayStage@@@Z
  0000a	e8 00 00 00 00	 call	 __EH_prolog3_GS
  0000f	8b 75 08	 mov	 esi, DWORD PTR _pChar$[ebp]
  00012	8b d9		 mov	 ebx, ecx
  00014	8b 4d 0c	 mov	 ecx, DWORD PTR _pStage$[ebp]

; 264  : 	if( !pChar ) return;

  00017	33 c0		 xor	 eax, eax

; 393  : 	}
; 394  : 
; 395  : 	AttackSkillFire( pChar );

  00019	89 b5 74 ff ff
	ff		 mov	 DWORD PTR _pChar$GSCopy$[ebp], esi
  0001f	89 4d 98	 mov	 DWORD PTR _pStage$GSCopy$[ebp], ecx
  00022	3b f0		 cmp	 esi, eax
  00024	0f 84 36 08 00
	00		 je	 $LN272@CheckNextT

; 265  : 	if( !pStage ) return;

  0002a	3b c8		 cmp	 ecx, eax
  0002c	0f 84 2e 08 00
	00		 je	 $LN272@CheckNextT

; 266  : 
; 267  : 	BaseCharList vTargetList;

  00032	89 45 88	 mov	 DWORD PTR _vTargetList$[ebp], eax
  00035	89 45 8c	 mov	 DWORD PTR _vTargetList$[ebp+4], eax
  00038	89 45 90	 mov	 DWORD PTR _vTargetList$[ebp+8], eax
  0003b	89 45 fc	 mov	 DWORD PTR __$EHRec$[ebp+8], eax

; 268  : 	BaseCharDistanceSqList vNewCharList;

  0003e	89 85 78 ff ff
	ff		 mov	 DWORD PTR _vNewCharList$[ebp], eax
  00044	89 85 7c ff ff
	ff		 mov	 DWORD PTR _vNewCharList$[ebp+4], eax
  0004a	89 45 80	 mov	 DWORD PTR _vNewCharList$[ebp+8], eax
  0004d	c6 45 fc 01	 mov	 BYTE PTR __$EHRec$[ebp+8], 1

; 269  : 
; 270  : 	D3DXVECTOR3 vPos = pChar->GetMidPositionByRate();

  00051	b8 05 00 00 00	 mov	 eax, 5
  00056	8b c8		 mov	 ecx, eax
  00058	b8 0a 00 00 00	 mov	 eax, 10			; 0000000aH
  0005d	89 4d a4	 mov	 DWORD PTR tv1862[ebp], ecx
  00060	db 45 a4	 fild	 DWORD PTR tv1862[ebp]
  00063	85 c9		 test	 ecx, ecx
  00065	79 06		 jns	 SHORT $LN285@CheckNextT
  00067	d8 05 00 00 00
	00		 fadd	 DWORD PTR __real@4f800000
$LN285@CheckNextT:
  0006d	89 45 a4	 mov	 DWORD PTR tv1858[ebp], eax
  00070	db 45 a4	 fild	 DWORD PTR tv1858[ebp]
  00073	85 c0		 test	 eax, eax
  00075	79 06		 jns	 SHORT $LN286@CheckNextT
  00077	d8 05 00 00 00
	00		 fadd	 DWORD PTR __real@4f800000
$LN286@CheckNextT:
  0007d	de f9		 fdivp	 ST(1), ST(0)
  0007f	51		 push	 ecx
  00080	8d 45 e4	 lea	 eax, DWORD PTR _vPos$[ebp]
  00083	8b ce		 mov	 ecx, esi
  00085	d9 5d a8	 fstp	 DWORD PTR tv1854[ebp]
  00088	d9 45 a8	 fld	 DWORD PTR tv1854[ebp]
  0008b	d9 1c 24	 fstp	 DWORD PTR [esp]
  0008e	50		 push	 eax
  0008f	e8 00 00 00 00	 call	 ?GetMidPositionByRate@ioGameEntity@@QBE?AUD3DXVECTOR3@@M@Z ; ioGameEntity::GetMidPositionByRate

; 271  : 	D3DXVECTOR3 vSightDir = pChar->GetTargetRot() * D3DXVECTOR3( 0.0f, 0.0f, -FLOAT1 );

  00094	b8 01 00 00 00	 mov	 eax, 1
  00099	0f 57 c0	 xorps	 xmm0, xmm0
  0009c	89 45 a4	 mov	 DWORD PTR tv1846[ebp], eax
  0009f	db 45 a4	 fild	 DWORD PTR tv1846[ebp]
  000a2	f3 0f 11 45 cc	 movss	 DWORD PTR $T548607[ebp], xmm0
  000a7	f3 0f 11 45 d0	 movss	 DWORD PTR $T548607[ebp+4], xmm0
  000ac	85 c0		 test	 eax, eax
  000ae	79 06		 jns	 SHORT $LN287@CheckNextT
  000b0	d8 05 00 00 00
	00		 fadd	 DWORD PTR __real@4f800000
$LN287@CheckNextT:
  000b6	8d 45 cc	 lea	 eax, DWORD PTR $T548607[ebp]
  000b9	d9 e0		 fchs
  000bb	50		 push	 eax
  000bc	d9 5d d4	 fstp	 DWORD PTR $T548607[ebp+8]
  000bf	8d 86 a4 06 00
	00		 lea	 eax, DWORD PTR [esi+1700]
  000c5	50		 push	 eax
  000c6	8d 45 d8	 lea	 eax, DWORD PTR _vSightDir$[ebp]
  000c9	50		 push	 eax
  000ca	ff 15 00 00 00
	00		 call	 DWORD PTR __imp_??D@YA?AUD3DXVECTOR3@@ABUD3DXQUATERNION@@ABU0@@Z
  000d0	83 c4 0c	 add	 esp, 12			; 0000000cH

; 272  : 	D3DXVec3Normalize( &vSightDir, &vSightDir );

  000d3	8d 45 d8	 lea	 eax, DWORD PTR _vSightDir$[ebp]
  000d6	50		 push	 eax
  000d7	50		 push	 eax
  000d8	e8 00 00 00 00	 call	 _D3DXVec3Normalize@8

; 273  : 
; 274  : 	if( m_fOffSet != 0.0f )

  000dd	0f 57 c0	 xorps	 xmm0, xmm0
  000e0	8d 45 a8	 lea	 eax, DWORD PTR $T564704[ebp]
  000e3	50		 push	 eax
  000e4	8d 8b e4 11 00
	00		 lea	 ecx, DWORD PTR [ebx+4580]
  000ea	f3 0f 11 45 a8	 movss	 DWORD PTR $T564704[ebp], xmm0
  000ef	e8 00 00 00 00	 call	 ??9?$CEncrypt@M@@QAE_NABM@Z ; CEncrypt<float>::operator!=
  000f4	84 c0		 test	 al, al
  000f6	0f 84 a5 00 00
	00		 je	 $LN71@CheckNextT

; 275  : 		vPos += vSightDir * m_fOffSet;

  000fc	8d 45 a8	 lea	 eax, DWORD PTR _value$564786[ebp]
  000ff	50		 push	 eax
  00100	8d 8b e4 11 00
	00		 lea	 ecx, DWORD PTR [ebx+4580]
  00106	e8 00 00 00 00	 call	 ?DecryptValueToPool@?$CEncrypt@M@@QAEXPAM@Z ; CEncrypt<float>::DecryptValueToPool
  0010b	f3 0f 10 4d a8	 movss	 xmm1, DWORD PTR _value$564786[ebp]
  00110	f3 0f 10 45 d8	 movss	 xmm0, DWORD PTR _vSightDir$[ebp]
  00115	f3 0f 10 55 a8	 movss	 xmm2, DWORD PTR _value$564786[ebp]
  0011a	f3 0f 10 5d a8	 movss	 xmm3, DWORD PTR _value$564786[ebp]
  0011f	0f 5a c0	 cvtps2pd xmm0, xmm0
  00122	0f 5a c9	 cvtps2pd xmm1, xmm1
  00125	f2 0f 59 c1	 mulsd	 xmm0, xmm1
  00129	f3 0f 10 4d dc	 movss	 xmm1, DWORD PTR _vSightDir$[ebp+4]
  0012e	66 0f 5a c0	 cvtpd2ps xmm0, xmm0
  00132	0f 5a c9	 cvtps2pd xmm1, xmm1
  00135	0f 5a d2	 cvtps2pd xmm2, xmm2
  00138	f2 0f 59 ca	 mulsd	 xmm1, xmm2
  0013c	f3 0f 10 55 e0	 movss	 xmm2, DWORD PTR _vSightDir$[ebp+8]
  00141	f3 0f 5a c0	 cvtss2sd xmm0, xmm0
  00145	0f 5a db	 cvtps2pd xmm3, xmm3
  00148	0f 5a d2	 cvtps2pd xmm2, xmm2
  0014b	f2 0f 59 d3	 mulsd	 xmm2, xmm3
  0014f	f3 0f 10 5d e4	 movss	 xmm3, DWORD PTR _vPos$[ebp]
  00154	0f 5a db	 cvtps2pd xmm3, xmm3
  00157	f2 0f 58 c3	 addsd	 xmm0, xmm3
  0015b	66 0f 5a c0	 cvtpd2ps xmm0, xmm0
  0015f	f3 0f 11 45 e4	 movss	 DWORD PTR _vPos$[ebp], xmm0
  00164	f3 0f 10 45 e8	 movss	 xmm0, DWORD PTR _vPos$[ebp+4]
  00169	0f 5a c0	 cvtps2pd xmm0, xmm0
  0016c	66 0f 5a c9	 cvtpd2ps xmm1, xmm1
  00170	f3 0f 5a c9	 cvtss2sd xmm1, xmm1
  00174	f2 0f 58 c1	 addsd	 xmm0, xmm1
  00178	66 0f 5a c0	 cvtpd2ps xmm0, xmm0
  0017c	f3 0f 11 45 e8	 movss	 DWORD PTR _vPos$[ebp+4], xmm0
  00181	f3 0f 10 45 ec	 movss	 xmm0, DWORD PTR _vPos$[ebp+8]
  00186	66 0f 5a d2	 cvtpd2ps xmm2, xmm2
  0018a	0f 5a c0	 cvtps2pd xmm0, xmm0
  0018d	0f 57 c9	 xorps	 xmm1, xmm1
  00190	f3 0f 5a ca	 cvtss2sd xmm1, xmm2
  00194	f2 0f 58 c1	 addsd	 xmm0, xmm1
  00198	66 0f 5a c0	 cvtpd2ps xmm0, xmm0
  0019c	f3 0f 11 45 ec	 movss	 DWORD PTR _vPos$[ebp+8], xmm0
$LN71@CheckNextT:

; 276  : 
; 277  : 	//    
; 278  : 	switch( m_TargetColType )

  001a1	8b 83 7c 11 00
	00		 mov	 eax, DWORD PTR [ebx+4476]
  001a7	48		 dec	 eax
  001a8	0f 84 eb 02 00
	00		 je	 $LN27@CheckNextT
  001ae	48		 dec	 eax
  001af	0f 84 69 02 00
	00		 je	 $LN26@CheckNextT
  001b5	48		 dec	 eax
  001b6	0f 85 21 03 00
	00		 jne	 $LN28@CheckNextT

; 286  : 	case TCT_BOX:
; 287  : 		//  center vPos       .
; 288  : 		// /2.0f  * FLOAT05 
; 289  : 		vPos += vSightDir * m_fSkillRange * FLOAT05; 

  001bc	b8 05 00 00 00	 mov	 eax, 5
  001c1	8b f8		 mov	 edi, eax
  001c3	b8 0a 00 00 00	 mov	 eax, 10			; 0000000aH
  001c8	89 45 a0	 mov	 DWORD PTR $T564837[ebp], eax
  001cb	8d 45 a8	 lea	 eax, DWORD PTR _value$564841[ebp]
  001ce	8d 8b 84 11 00
	00		 lea	 ecx, DWORD PTR [ebx+4484]
  001d4	50		 push	 eax
  001d5	e8 00 00 00 00	 call	 ?DecryptValueToPool@?$CEncrypt@M@@QAEXPAM@Z ; CEncrypt<float>::DecryptValueToPool
  001da	f3 0f 10 45 a8	 movss	 xmm0, DWORD PTR _value$564841[ebp]
  001df	f3 0f 10 4d d8	 movss	 xmm1, DWORD PTR _vSightDir$[ebp]
  001e4	f3 0f 10 55 a8	 movss	 xmm2, DWORD PTR _value$564841[ebp]
  001e9	f3 0f 10 5d a8	 movss	 xmm3, DWORD PTR _value$564841[ebp]
  001ee	0f 5a c9	 cvtps2pd xmm1, xmm1
  001f1	0f 5a c0	 cvtps2pd xmm0, xmm0
  001f4	f2 0f 59 c1	 mulsd	 xmm0, xmm1
  001f8	f3 0f 10 4d dc	 movss	 xmm1, DWORD PTR _vSightDir$[ebp+4]
  001fd	0f 5a d2	 cvtps2pd xmm2, xmm2
  00200	0f 5a c9	 cvtps2pd xmm1, xmm1
  00203	f2 0f 59 ca	 mulsd	 xmm1, xmm2
  00207	f3 0f 10 55 e0	 movss	 xmm2, DWORD PTR _vSightDir$[ebp+8]
  0020c	0f 5a d2	 cvtps2pd xmm2, xmm2
  0020f	0f 5a db	 cvtps2pd xmm3, xmm3
  00212	f2 0f 59 d3	 mulsd	 xmm2, xmm3
  00216	89 7d a4	 mov	 DWORD PTR tv1809[ebp], edi
  00219	db 45 a4	 fild	 DWORD PTR tv1809[ebp]
  0021c	f2 0f 5a c0	 cvtsd2ss xmm0, xmm0
  00220	66 0f 5a c9	 cvtpd2ps xmm1, xmm1
  00224	66 0f 5a d2	 cvtpd2ps xmm2, xmm2
  00228	85 ff		 test	 edi, edi
  0022a	79 06		 jns	 SHORT $LN288@CheckNextT
  0022c	d8 05 00 00 00
	00		 fadd	 DWORD PTR __real@4f800000
$LN288@CheckNextT:
  00232	8b 45 a0	 mov	 eax, DWORD PTR $T564837[ebp]
  00235	db 45 a0	 fild	 DWORD PTR $T564837[ebp]
  00238	85 c0		 test	 eax, eax
  0023a	79 06		 jns	 SHORT $LN289@CheckNextT
  0023c	d8 05 00 00 00
	00		 fadd	 DWORD PTR __real@4f800000
$LN289@CheckNextT:
  00242	de f9		 fdivp	 ST(1), ST(0)
  00244	f3 0f 5a c0	 cvtss2sd xmm0, xmm0
  00248	f3 0f 5a c9	 cvtss2sd xmm1, xmm1
  0024c	f3 0f 5a d2	 cvtss2sd xmm2, xmm2

; 290  : 		// /2.0f  * FLOAT05 
; 291  : 		D3DXVECTOR3 vOffset( 0.0f, ( ( m_fUpHeight + m_fUnderHeight ) * FLOAT05 ) - m_fUpHeight, 0.0f );

  00250	8d 45 a8	 lea	 eax, DWORD PTR _value$564872[ebp]
  00253	8d 8b 74 12 00
	00		 lea	 ecx, DWORD PTR [ebx+4724]
  00259	50		 push	 eax
  0025a	d9 5d a0	 fstp	 DWORD PTR tv1801[ebp]
  0025d	d9 45 a0	 fld	 DWORD PTR tv1801[ebp]
  00260	d9 5d a8	 fstp	 DWORD PTR $T564865[ebp]
  00263	f3 0f 10 5d a8	 movss	 xmm3, DWORD PTR $T564865[ebp]
  00268	0f 5a db	 cvtps2pd xmm3, xmm3
  0026b	f2 0f 59 c3	 mulsd	 xmm0, xmm3
  0026f	f3 0f 10 5d a8	 movss	 xmm3, DWORD PTR $T564865[ebp]
  00274	f2 0f 5a c0	 cvtsd2ss xmm0, xmm0
  00278	0f 5a db	 cvtps2pd xmm3, xmm3
  0027b	f2 0f 59 cb	 mulsd	 xmm1, xmm3
  0027f	f3 0f 10 5d a8	 movss	 xmm3, DWORD PTR $T564865[ebp]
  00284	f3 0f 5a c0	 cvtss2sd xmm0, xmm0
  00288	0f 5a db	 cvtps2pd xmm3, xmm3
  0028b	f2 0f 59 d3	 mulsd	 xmm2, xmm3
  0028f	f3 0f 10 5d e4	 movss	 xmm3, DWORD PTR _vPos$[ebp]
  00294	0f 5a db	 cvtps2pd xmm3, xmm3
  00297	f2 0f 58 c3	 addsd	 xmm0, xmm3
  0029b	f2 0f 5a c0	 cvtsd2ss xmm0, xmm0
  0029f	f3 0f 11 45 e4	 movss	 DWORD PTR _vPos$[ebp], xmm0
  002a4	f3 0f 10 45 e8	 movss	 xmm0, DWORD PTR _vPos$[ebp+4]
  002a9	0f 5a c0	 cvtps2pd xmm0, xmm0
  002ac	66 0f 5a c9	 cvtpd2ps xmm1, xmm1
  002b0	f3 0f 5a c9	 cvtss2sd xmm1, xmm1
  002b4	f2 0f 58 c1	 addsd	 xmm0, xmm1
  002b8	66 0f 5a c0	 cvtpd2ps xmm0, xmm0
  002bc	f3 0f 11 45 e8	 movss	 DWORD PTR _vPos$[ebp+4], xmm0
  002c1	f3 0f 10 45 ec	 movss	 xmm0, DWORD PTR _vPos$[ebp+8]
  002c6	66 0f 5a d2	 cvtpd2ps xmm2, xmm2
  002ca	0f 5a c0	 cvtps2pd xmm0, xmm0
  002cd	0f 57 c9	 xorps	 xmm1, xmm1
  002d0	f3 0f 5a ca	 cvtss2sd xmm1, xmm2
  002d4	f2 0f 58 c1	 addsd	 xmm0, xmm1
  002d8	66 0f 5a c0	 cvtpd2ps xmm0, xmm0
  002dc	f3 0f 11 45 ec	 movss	 DWORD PTR _vPos$[ebp+8], xmm0
  002e1	e8 00 00 00 00	 call	 ?DecryptValueToPool@?$CEncrypt@M@@QAEXPAM@Z ; CEncrypt<float>::DecryptValueToPool
  002e6	8d 45 a0	 lea	 eax, DWORD PTR _value$564876[ebp]
  002e9	50		 push	 eax
  002ea	8d 8b 44 12 00
	00		 lea	 ecx, DWORD PTR [ebx+4676]
  002f0	e8 00 00 00 00	 call	 ?DecryptValueToPool@?$CEncrypt@M@@QAEXPAM@Z ; CEncrypt<float>::DecryptValueToPool
  002f5	d9 45 a0	 fld	 DWORD PTR _value$564876[ebp]
  002f8	d8 45 a8	 fadd	 DWORD PTR _value$564872[ebp]
  002fb	d9 5d 9c	 fstp	 DWORD PTR $T564877[ebp]
  002fe	b8 05 00 00 00	 mov	 eax, 5
  00303	89 45 a0	 mov	 DWORD PTR $T564881[ebp], eax
  00306	b8 0a 00 00 00	 mov	 eax, 10			; 0000000aH
  0030b	89 45 a8	 mov	 DWORD PTR $T564885[ebp], eax
  0030e	8d 45 a4	 lea	 eax, DWORD PTR _value$564889[ebp]
  00311	50		 push	 eax
  00312	8d 8b 44 12 00
	00		 lea	 ecx, DWORD PTR [ebx+4676]
  00318	e8 00 00 00 00	 call	 ?DecryptValueToPool@?$CEncrypt@M@@QAEXPAM@Z ; CEncrypt<float>::DecryptValueToPool
  0031d	db 45 a0	 fild	 DWORD PTR $T564881[ebp]
  00320	8b 45 a0	 mov	 eax, DWORD PTR $T564881[ebp]
  00323	85 c0		 test	 eax, eax
  00325	79 06		 jns	 SHORT $LN290@CheckNextT
  00327	d8 05 00 00 00
	00		 fadd	 DWORD PTR __real@4f800000
$LN290@CheckNextT:
  0032d	8b 45 a8	 mov	 eax, DWORD PTR $T564885[ebp]
  00330	db 45 a8	 fild	 DWORD PTR $T564885[ebp]
  00333	85 c0		 test	 eax, eax
  00335	79 06		 jns	 SHORT $LN291@CheckNextT
  00337	d8 05 00 00 00
	00		 fadd	 DWORD PTR __real@4f800000
$LN291@CheckNextT:
  0033d	de f9		 fdivp	 ST(1), ST(0)

; 292  : 		vPos -= vOffset;

  0033f	f3 0f 10 45 e4	 movss	 xmm0, DWORD PTR _vPos$[ebp]
  00344	0f 5a c8	 cvtps2pd xmm1, xmm0
  00347	f2 0f 5c 0d 00
	00 00 00	 subsd	 xmm1, QWORD PTR __real@0000000000000000
  0034f	66 0f 5a c9	 cvtpd2ps xmm1, xmm1
  00353	f3 0f 11 4d e4	 movss	 DWORD PTR _vPos$[ebp], xmm1
  00358	f3 0f 10 4d e8	 movss	 xmm1, DWORD PTR _vPos$[ebp+4]
  0035d	0f 5a c9	 cvtps2pd xmm1, xmm1

; 293  : 		pChar->GetTargetCharListByBox( vPos, m_fSkillRange, m_fWidth, m_fUpHeight, m_fUnderHeight, vTargetList );

  00360	8d 45 a4	 lea	 eax, DWORD PTR _value$564900[ebp]
  00363	0f 57 c0	 xorps	 xmm0, xmm0
  00366	50		 push	 eax
  00367	8d 8b 74 12 00
	00		 lea	 ecx, DWORD PTR [ebx+4724]
  0036d	d9 5d a0	 fstp	 DWORD PTR tv1772[ebp]
  00370	d9 45 a0	 fld	 DWORD PTR tv1772[ebp]
  00373	d8 4d 9c	 fmul	 DWORD PTR $T564877[ebp]
  00376	d8 65 a4	 fsub	 DWORD PTR _value$564889[ebp]
  00379	d9 5d a4	 fstp	 DWORD PTR $T564893[ebp]
  0037c	f3 0f 10 55 a4	 movss	 xmm2, DWORD PTR $T564893[ebp]
  00381	0f 5a d2	 cvtps2pd xmm2, xmm2
  00384	f2 0f 5c ca	 subsd	 xmm1, xmm2
  00388	66 0f 5a c9	 cvtpd2ps xmm1, xmm1
  0038c	f3 0f 11 4d e8	 movss	 DWORD PTR _vPos$[ebp+4], xmm1
  00391	f3 0f 10 4d ec	 movss	 xmm1, DWORD PTR _vPos$[ebp+8]
  00396	0f 5a c9	 cvtps2pd xmm1, xmm1
  00399	f2 0f 5c 0d 00
	00 00 00	 subsd	 xmm1, QWORD PTR __real@0000000000000000
  003a1	66 0f 5a c1	 cvtpd2ps xmm0, xmm1
  003a5	f3 0f 11 45 ec	 movss	 DWORD PTR _vPos$[ebp+8], xmm0
  003aa	e8 00 00 00 00	 call	 ?DecryptValueToPool@?$CEncrypt@M@@QAEXPAM@Z ; CEncrypt<float>::DecryptValueToPool
  003af	8d 45 9c	 lea	 eax, DWORD PTR _value$564905[ebp]
  003b2	50		 push	 eax
  003b3	8d 8b 44 12 00
	00		 lea	 ecx, DWORD PTR [ebx+4676]
  003b9	e8 00 00 00 00	 call	 ?DecryptValueToPool@?$CEncrypt@M@@QAEXPAM@Z ; CEncrypt<float>::DecryptValueToPool
  003be	8d 45 a0	 lea	 eax, DWORD PTR _value$564910[ebp]
  003c1	50		 push	 eax
  003c2	8d 8b a4 12 00
	00		 lea	 ecx, DWORD PTR [ebx+4772]
  003c8	e8 00 00 00 00	 call	 ?DecryptValueToPool@?$CEncrypt@M@@QAEXPAM@Z ; CEncrypt<float>::DecryptValueToPool
  003cd	8d 45 a8	 lea	 eax, DWORD PTR _value$564915[ebp]
  003d0	50		 push	 eax
  003d1	8d 8b 84 11 00
	00		 lea	 ecx, DWORD PTR [ebx+4484]
  003d7	e8 00 00 00 00	 call	 ?DecryptValueToPool@?$CEncrypt@M@@QAEXPAM@Z ; CEncrypt<float>::DecryptValueToPool
  003dc	f3 0f 10 45 a4	 movss	 xmm0, DWORD PTR _value$564900[ebp]
  003e1	8d 45 88	 lea	 eax, DWORD PTR _vTargetList$[ebp]
  003e4	50		 push	 eax
  003e5	83 ec 10	 sub	 esp, 16			; 00000010H
  003e8	f3 0f 11 44 24
	0c		 movss	 DWORD PTR [esp+12], xmm0
  003ee	f3 0f 10 45 9c	 movss	 xmm0, DWORD PTR _value$564905[ebp]
  003f3	f3 0f 11 44 24
	08		 movss	 DWORD PTR [esp+8], xmm0
  003f9	f3 0f 10 45 a0	 movss	 xmm0, DWORD PTR _value$564910[ebp]
  003fe	f3 0f 11 44 24
	04		 movss	 DWORD PTR [esp+4], xmm0
  00404	f3 0f 10 45 a8	 movss	 xmm0, DWORD PTR _value$564915[ebp]
  00409	8d 45 e4	 lea	 eax, DWORD PTR _vPos$[ebp]
  0040c	f3 0f 11 04 24	 movss	 DWORD PTR [esp], xmm0
  00411	50		 push	 eax
  00412	8b ce		 mov	 ecx, esi
  00414	e8 00 00 00 00	 call	 ?GetTargetCharListByBox@ioBaseChar@@QAEXABUD3DXVECTOR3@@MMMMAAV?$vector@PAVioBaseChar@@V?$allocator@PAVioBaseChar@@@std@@@std@@@Z ; ioBaseChar::GetTargetCharListByBox

; 294  : 		break;

  00419	e9 bf 00 00 00	 jmp	 $LN28@CheckNextT
$LN26@CheckNextT:

; 282  : 		break;
; 283  : 	case TCT_CYLINDER:
; 284  : 		pChar->GetTargetCharListByCylinder( vPos, m_fSkillRange, m_fSkillAngle, m_fUpHeight, m_fUnderHeight, vTargetList );

  0041e	8d 45 a4	 lea	 eax, DWORD PTR _value$564814[ebp]
  00421	50		 push	 eax
  00422	8d 8b 74 12 00
	00		 lea	 ecx, DWORD PTR [ebx+4724]
  00428	e8 00 00 00 00	 call	 ?DecryptValueToPool@?$CEncrypt@M@@QAEXPAM@Z ; CEncrypt<float>::DecryptValueToPool
  0042d	8d 45 9c	 lea	 eax, DWORD PTR _value$564819[ebp]
  00430	50		 push	 eax
  00431	8d 8b 44 12 00
	00		 lea	 ecx, DWORD PTR [ebx+4676]
  00437	e8 00 00 00 00	 call	 ?DecryptValueToPool@?$CEncrypt@M@@QAEXPAM@Z ; CEncrypt<float>::DecryptValueToPool
  0043c	8d 45 a0	 lea	 eax, DWORD PTR _value$564824[ebp]
  0043f	50		 push	 eax
  00440	8d 8b b4 11 00
	00		 lea	 ecx, DWORD PTR [ebx+4532]
  00446	e8 00 00 00 00	 call	 ?DecryptValueToPool@?$CEncrypt@M@@QAEXPAM@Z ; CEncrypt<float>::DecryptValueToPool
  0044b	8d 45 a8	 lea	 eax, DWORD PTR _value$564829[ebp]
  0044e	50		 push	 eax
  0044f	8d 8b 84 11 00
	00		 lea	 ecx, DWORD PTR [ebx+4484]
  00455	e8 00 00 00 00	 call	 ?DecryptValueToPool@?$CEncrypt@M@@QAEXPAM@Z ; CEncrypt<float>::DecryptValueToPool
  0045a	f3 0f 10 45 a4	 movss	 xmm0, DWORD PTR _value$564814[ebp]
  0045f	8d 45 88	 lea	 eax, DWORD PTR _vTargetList$[ebp]
  00462	50		 push	 eax
  00463	83 ec 10	 sub	 esp, 16			; 00000010H
  00466	f3 0f 11 44 24
	0c		 movss	 DWORD PTR [esp+12], xmm0
  0046c	f3 0f 10 45 9c	 movss	 xmm0, DWORD PTR _value$564819[ebp]
  00471	f3 0f 11 44 24
	08		 movss	 DWORD PTR [esp+8], xmm0
  00477	f3 0f 10 45 a0	 movss	 xmm0, DWORD PTR _value$564824[ebp]
  0047c	f3 0f 11 44 24
	04		 movss	 DWORD PTR [esp+4], xmm0
  00482	f3 0f 10 45 a8	 movss	 xmm0, DWORD PTR _value$564829[ebp]
  00487	8d 45 e4	 lea	 eax, DWORD PTR _vPos$[ebp]
  0048a	f3 0f 11 04 24	 movss	 DWORD PTR [esp], xmm0
  0048f	50		 push	 eax
  00490	8b ce		 mov	 ecx, esi
  00492	e8 00 00 00 00	 call	 ?GetTargetCharListByCylinder@ioBaseChar@@QAEXABUD3DXVECTOR3@@MMMMAAV?$vector@PAVioBaseChar@@V?$allocator@PAVioBaseChar@@@std@@@std@@@Z ; ioBaseChar::GetTargetCharListByCylinder

; 285  : 		break;

  00497	eb 44		 jmp	 SHORT $LN28@CheckNextT
$LN27@CheckNextT:

; 279  : 	{
; 280  : 	case TCT_SPHERE:
; 281  : 		pChar->GetTargetCharListBySphere( vPos, m_fSkillRange, m_fSkillAngle, vTargetList );

  00499	8d 45 a4	 lea	 eax, DWORD PTR _value$564805[ebp]
  0049c	50		 push	 eax
  0049d	8d 8b b4 11 00
	00		 lea	 ecx, DWORD PTR [ebx+4532]
  004a3	e8 00 00 00 00	 call	 ?DecryptValueToPool@?$CEncrypt@M@@QAEXPAM@Z ; CEncrypt<float>::DecryptValueToPool
  004a8	8d 45 9c	 lea	 eax, DWORD PTR _value$564810[ebp]
  004ab	50		 push	 eax
  004ac	8d 8b 84 11 00
	00		 lea	 ecx, DWORD PTR [ebx+4484]
  004b2	e8 00 00 00 00	 call	 ?DecryptValueToPool@?$CEncrypt@M@@QAEXPAM@Z ; CEncrypt<float>::DecryptValueToPool
  004b7	f3 0f 10 45 a4	 movss	 xmm0, DWORD PTR _value$564805[ebp]
  004bc	8d 45 88	 lea	 eax, DWORD PTR _vTargetList$[ebp]
  004bf	50		 push	 eax
  004c0	51		 push	 ecx
  004c1	51		 push	 ecx
  004c2	f3 0f 11 44 24
	04		 movss	 DWORD PTR [esp+4], xmm0
  004c8	f3 0f 10 45 9c	 movss	 xmm0, DWORD PTR _value$564810[ebp]
  004cd	8d 45 e4	 lea	 eax, DWORD PTR _vPos$[ebp]
  004d0	f3 0f 11 04 24	 movss	 DWORD PTR [esp], xmm0
  004d5	50		 push	 eax
  004d6	8b ce		 mov	 ecx, esi
  004d8	e8 00 00 00 00	 call	 ?GetTargetCharListBySphere@ioBaseChar@@QAEXABUD3DXVECTOR3@@MMAAV?$vector@PAVioBaseChar@@V?$allocator@PAVioBaseChar@@@std@@@std@@@Z ; ioBaseChar::GetTargetCharListBySphere
$LN28@CheckNextT:

; 295  : 	}
; 296  : 
; 297  : 	if( pChar->GetExperienceMode() == EMS_EXPERIENCE )

  004dd	8d 45 a4	 lea	 eax, DWORD PTR _value$564926[ebp]
  004e0	8d 8e 94 1d 00
	00		 lea	 ecx, DWORD PTR [esi+7572]
  004e6	50		 push	 eax
  004e7	e8 00 00 00 00	 call	 ?DecryptValueToPool@?$CEncrypt@K@@QAEXPAK@Z ; CEncrypt<unsigned long>::DecryptValueToPool
  004ec	83 7d a4 02	 cmp	 DWORD PTR _value$564926[ebp], 2
  004f0	75 12		 jne	 SHORT $LN127@CheckNextT

; 298  : 		vTargetList.clear();

  004f2	ff 75 8c	 push	 DWORD PTR _vTargetList$[ebp+4]
  004f5	8d 45 a4	 lea	 eax, DWORD PTR $T564988[ebp]
  004f8	ff 75 88	 push	 DWORD PTR _vTargetList$[ebp]
  004fb	8d 4d 88	 lea	 ecx, DWORD PTR _vTargetList$[ebp]
  004fe	50		 push	 eax
  004ff	e8 00 00 00 00	 call	 ?erase@?$vector@PAVioBaseChar@@V?$allocator@PAVioBaseChar@@@std@@@std@@QAE?AV?$_Vector_iterator@V?$_Vector_val@PAVioBaseChar@@V?$allocator@PAVioBaseChar@@@std@@@std@@@2@V?$_Vector_const_iterator@V?$_Vector_val@PAVioBaseChar@@V?$allocator@PAVioBaseChar@@@std@@@std@@@2@0@Z ; std::vector<ioBaseChar *,std::allocator<ioBaseChar *> >::erase
$LN127@CheckNextT:

; 299  : 
; 300  : 	BaseCharList::iterator iter;
; 301  : 	for( iter = vTargetList.begin(); iter != vTargetList.end(); ++iter )

  00504	8b 45 88	 mov	 eax, DWORD PTR _vTargetList$[ebp]
  00507	e9 1b 01 00 00	 jmp	 $LN292@CheckNextT
$LL159@CheckNextT:

; 302  : 	{
; 303  : 		ioBaseChar *pTarget = (*iter);

  0050c	8b 38		 mov	 edi, DWORD PTR [eax]

; 304  : 
; 305  : 		if( !pTarget )

  0050e	85 ff		 test	 edi, edi
  00510	0f 84 0b 01 00
	00		 je	 $LN22@CheckNextT

; 306  : 			continue;
; 307  : 
; 308  : 		if( pTarget == pChar )

  00516	3b fe		 cmp	 edi, esi
  00518	0f 84 03 01 00
	00		 je	 $LN22@CheckNextT

; 309  : 			continue;
; 310  : 
; 311  : 
; 312  : 		if( pTarget->IsSystemState() )

  0051e	8b cf		 mov	 ecx, edi
  00520	e8 00 00 00 00	 call	 ?IsSystemState@ioBaseChar@@QAE_NXZ ; ioBaseChar::IsSystemState
  00525	84 c0		 test	 al, al
  00527	0f 85 f4 00 00
	00		 jne	 $LN22@CheckNextT

; 313  : 			continue;
; 314  : 		
; 315  : 		if( !pTarget->IsEnableTarget() ) 	

  0052d	6a 01		 push	 1
  0052f	6a 01		 push	 1
  00531	8b cf		 mov	 ecx, edi
  00533	e8 00 00 00 00	 call	 ?IsEnableTarget@ioBaseChar@@QAE_N_N0@Z ; ioBaseChar::IsEnableTarget
  00538	84 c0		 test	 al, al
  0053a	0f 84 e1 00 00
	00		 je	 $LN22@CheckNextT

; 316  : 			continue;
; 317  : 
; 318  : 		if( !pTarget->CheckTargetWoundType(m_TargetWoundType) )

  00540	ff b3 80 11 00
	00		 push	 DWORD PTR [ebx+4480]
  00546	8b cf		 mov	 ecx, edi
  00548	e8 00 00 00 00	 call	 ?CheckTargetWoundType@ioBaseChar@@QAE_NW4TargetWoundType@@@Z ; ioBaseChar::CheckTargetWoundType
  0054d	84 c0		 test	 al, al
  0054f	0f 84 cc 00 00
	00		 je	 $LN22@CheckNextT

; 319  : 			continue;
; 320  : 
; 321  : 		D3DXVECTOR3 vDiff = pTarget->GetWorldPosition() - pChar->GetWorldPosition();

  00555	8b 06		 mov	 eax, DWORD PTR [esi]
  00557	8b ce		 mov	 ecx, esi
  00559	ff 50 70	 call	 DWORD PTR [eax+112]
  0055c	8b f0		 mov	 esi, eax
  0055e	8b 07		 mov	 eax, DWORD PTR [edi]
  00560	8b cf		 mov	 ecx, edi
  00562	ff 50 70	 call	 DWORD PTR [eax+112]
  00565	f3 0f 10 00	 movss	 xmm0, DWORD PTR [eax]
  00569	f3 0f 10 0e	 movss	 xmm1, DWORD PTR [esi]
  0056d	f3 0f 10 56 04	 movss	 xmm2, DWORD PTR [esi+4]
  00572	f3 0f 10 5e 08	 movss	 xmm3, DWORD PTR [esi+8]
  00577	0f 5a c0	 cvtps2pd xmm0, xmm0
  0057a	0f 5a c9	 cvtps2pd xmm1, xmm1
  0057d	f2 0f 5c c1	 subsd	 xmm0, xmm1
  00581	0f 57 c9	 xorps	 xmm1, xmm1
  00584	66 0f 5a c8	 cvtpd2ps xmm1, xmm0
  00588	f3 0f 10 40 04	 movss	 xmm0, DWORD PTR [eax+4]
  0058d	0f 5a d2	 cvtps2pd xmm2, xmm2
  00590	0f 5a c0	 cvtps2pd xmm0, xmm0
  00593	f2 0f 5c c2	 subsd	 xmm0, xmm2
  00597	f3 0f 10 50 08	 movss	 xmm2, DWORD PTR [eax+8]
  0059c	0f 5a d2	 cvtps2pd xmm2, xmm2
  0059f	66 0f 5a c0	 cvtpd2ps xmm0, xmm0
  005a3	0f 5a db	 cvtps2pd xmm3, xmm3
  005a6	f2 0f 5c d3	 subsd	 xmm2, xmm3

; 322  : 		float fDistanceSq = D3DXVec3LengthSq( &vDiff );

  005aa	f3 0f 5a c0	 cvtss2sd xmm0, xmm0
  005ae	0f 5a c9	 cvtps2pd xmm1, xmm1
  005b1	66 0f 5a d2	 cvtpd2ps xmm2, xmm2
  005b5	f2 0f 59 c0	 mulsd	 xmm0, xmm0
  005b9	f2 0f 59 c9	 mulsd	 xmm1, xmm1
  005bd	f2 0f 58 c8	 addsd	 xmm1, xmm0
  005c1	f3 0f 5a d2	 cvtss2sd xmm2, xmm2
  005c5	f2 0f 59 d2	 mulsd	 xmm2, xmm2
  005c9	f2 0f 58 ca	 addsd	 xmm1, xmm2
  005cd	0f 57 c0	 xorps	 xmm0, xmm0
  005d0	66 0f 5a c1	 cvtpd2ps xmm0, xmm1

; 323  : 
; 324  : 		BaseCharDistanceSq kTarget;

  005d4	8d 4d ac	 lea	 ecx, DWORD PTR _kTarget$548787[ebp]
  005d7	f3 0f 11 45 a4	 movss	 DWORD PTR _fDistanceSq$548786[ebp], xmm0
  005dc	e8 00 00 00 00	 call	 ??0tagBaseCharDistanceSq@@QAE@XZ ; tagBaseCharDistanceSq::tagBaseCharDistanceSq

; 325  : 		kTarget.m_Name = pTarget->GetCharName();

  005e1	81 c7 d4 02 00
	00		 add	 edi, 724		; 000002d4H
  005e7	57		 push	 edi
  005e8	8d 4d ac	 lea	 ecx, DWORD PTR _kTarget$548787[ebp]
  005eb	c6 45 fc 02	 mov	 BYTE PTR __$EHRec$[ebp+8], 2
  005ef	ff 15 00 00 00
	00		 call	 DWORD PTR __imp_??4ioHashString@@QAEAAV0@ABV0@@Z

; 326  : 		kTarget.m_fDistanceSq = fDistanceSq;

  005f5	f3 0f 10 45 a4	 movss	 xmm0, DWORD PTR _fDistanceSq$548786[ebp]

; 327  : 
; 328  : 		vNewCharList.push_back( kTarget );

  005fa	8d 45 ac	 lea	 eax, DWORD PTR _kTarget$548787[ebp]
  005fd	50		 push	 eax
  005fe	8d 8d 78 ff ff
	ff		 lea	 ecx, DWORD PTR _vNewCharList$[ebp]
  00604	f3 0f 11 45 bc	 movss	 DWORD PTR _kTarget$548787[ebp+16], xmm0
  00609	e8 00 00 00 00	 call	 ?push_back@?$vector@UtagBaseCharDistanceSq@@V?$allocator@UtagBaseCharDistanceSq@@@std@@@std@@QAEXABUtagBaseCharDistanceSq@@@Z ; std::vector<tagBaseCharDistanceSq,std::allocator<tagBaseCharDistanceSq> >::push_back

; 329  : 	}

  0060e	8d 4d ac	 lea	 ecx, DWORD PTR _kTarget$548787[ebp]
  00611	c6 45 fc 01	 mov	 BYTE PTR __$EHRec$[ebp+8], 1
  00615	ff 15 00 00 00
	00		 call	 DWORD PTR __imp_??1ioHashString@@QAE@XZ
  0061b	8b b5 74 ff ff
	ff		 mov	 esi, DWORD PTR _pChar$GSCopy$[ebp]
$LN22@CheckNextT:

; 299  : 
; 300  : 	BaseCharList::iterator iter;
; 301  : 	for( iter = vTargetList.begin(); iter != vTargetList.end(); ++iter )

  00621	8b 45 a8	 mov	 eax, DWORD PTR _iter$[ebp]
  00624	83 c0 04	 add	 eax, 4
$LN292@CheckNextT:
  00627	89 45 a8	 mov	 DWORD PTR _iter$[ebp], eax
  0062a	3b 45 8c	 cmp	 eax, DWORD PTR _vTargetList$[ebp+4]
  0062d	0f 85 d9 fe ff
	ff		 jne	 $LL159@CheckNextT

; 330  : 
; 331  : 	if( vNewCharList.empty() )

  00633	8b 85 78 ff ff
	ff		 mov	 eax, DWORD PTR _vNewCharList$[ebp]
  00639	3b 85 7c ff ff
	ff		 cmp	 eax, DWORD PTR _vNewCharList$[ebp+4]
  0063f	75 20		 jne	 SHORT $LN15@CheckNextT

; 332  : 	{
; 333  : 		m_vTargetPos = ioMath::VEC3_ZERO;

  00641	8b 35 00 00 00
	00		 mov	 esi, DWORD PTR __imp_?VEC3_ZERO@ioMath@@2UD3DXVECTOR3@@A
  00647	8d bb e4 12 00
	00		 lea	 edi, DWORD PTR [ebx+4836]
  0064d	a5		 movsd
  0064e	a5		 movsd

; 334  : 		m_LastTargetName.Clear();

  0064f	8d 8b d4 12 00
	00		 lea	 ecx, DWORD PTR [ebx+4820]
  00655	a5		 movsd
  00656	ff 15 00 00 00
	00		 call	 DWORD PTR __imp_?Clear@ioHashString@@QAEXXZ

; 335  : 	}
; 336  : 	else

  0065c	e9 06 01 00 00	 jmp	 $LN14@CheckNextT
$LN15@CheckNextT:

; 337  : 	{
; 338  : 		std::sort( vNewCharList.begin(), vNewCharList.end(), BaseCharDistanceSqSort2() );

  00661	ff 75 98	 push	 DWORD PTR $T564708[ebp]
  00664	ff b5 7c ff ff
	ff		 push	 DWORD PTR _vNewCharList$[ebp+4]
  0066a	50		 push	 eax
  0066b	e8 00 00 00 00	 call	 ??$sort@V?$_Vector_iterator@V?$_Vector_val@UtagBaseCharDistanceSq@@V?$allocator@UtagBaseCharDistanceSq@@@std@@@std@@@std@@VBaseCharDistanceSqSort2@@@std@@YAXV?$_Vector_iterator@V?$_Vector_val@UtagBaseCharDistanceSq@@V?$allocator@UtagBaseCharDistanceSq@@@std@@@std@@@0@0VBaseCharDistanceSqSort2@@@Z ; std::sort<std::_Vector_iterator<std::_Vector_val<tagBaseCharDistanceSq,std::allocator<tagBaseCharDistanceSq> > >,BaseCharDistanceSqSort2>
  00670	83 c4 0c	 add	 esp, 12			; 0000000cH

; 339  : 
; 340  : 		ioHashString szCurTarget;

  00673	8d 4d bc	 lea	 ecx, DWORD PTR _szCurTarget$548926[ebp]
  00676	ff 15 00 00 00
	00		 call	 DWORD PTR __imp_??0ioHashString@@QAE@XZ

; 341  : 		if( m_LastTargetName.IsEmpty() )

  0067c	8d bb d4 12 00
	00		 lea	 edi, DWORD PTR [ebx+4820]
  00682	8b cf		 mov	 ecx, edi
  00684	c6 45 fc 03	 mov	 BYTE PTR __$EHRec$[ebp+8], 3
  00688	ff 15 00 00 00
	00		 call	 DWORD PTR __imp_?IsEmpty@ioHashString@@QBE_NXZ
  0068e	84 c0		 test	 al, al
  00690	74 08		 je	 SHORT $LN13@CheckNextT

; 342  : 		{
; 343  : 			szCurTarget = vNewCharList.front().m_Name;

  00692	ff b5 78 ff ff
	ff		 push	 DWORD PTR _vNewCharList$[ebp]

; 344  : 		}
; 345  : 		else

  00698	eb 3a		 jmp	 SHORT $LN293@CheckNextT
$LN13@CheckNextT:

; 346  : 		{
; 347  : 			BaseCharDistanceSqList::iterator new_iter = vNewCharList.begin();

  0069a	8b b5 78 ff ff
	ff		 mov	 esi, DWORD PTR _vNewCharList$[ebp]
  006a0	eb 10		 jmp	 SHORT $LN294@CheckNextT
$LL11@CheckNextT:

; 349  : 			{
; 350  : 				if( (*new_iter).m_Name != m_LastTargetName )

  006a2	57		 push	 edi
  006a3	8b ce		 mov	 ecx, esi
  006a5	ff 15 00 00 00
	00		 call	 DWORD PTR __imp_??9ioHashString@@QBE_NABV0@@Z
  006ab	84 c0		 test	 al, al
  006ad	75 0d		 jne	 SHORT $LN278@CheckNextT

; 353  : 					break;
; 354  : 				}
; 355  : 
; 356  : 				new_iter++;

  006af	83 c6 20	 add	 esi, 32			; 00000020H
$LN294@CheckNextT:

; 348  : 			while( new_iter != vNewCharList.end() )

  006b2	3b b5 7c ff ff
	ff		 cmp	 esi, DWORD PTR _vNewCharList$[ebp+4]
  006b8	75 e8		 jne	 SHORT $LL11@CheckNextT

; 349  : 			{
; 350  : 				if( (*new_iter).m_Name != m_LastTargetName )

  006ba	eb 0a		 jmp	 SHORT $LN10@CheckNextT
$LN278@CheckNextT:

; 351  : 				{
; 352  : 					szCurTarget = (*new_iter).m_Name;

  006bc	56		 push	 esi
  006bd	8d 4d bc	 lea	 ecx, DWORD PTR _szCurTarget$548926[ebp]
  006c0	ff 15 00 00 00
	00		 call	 DWORD PTR __imp_??4ioHashString@@QAEAAV0@ABV0@@Z
$LN10@CheckNextT:

; 357  : 			}
; 358  : 
; 359  : 			if( szCurTarget.IsEmpty() )

  006c6	8d 4d bc	 lea	 ecx, DWORD PTR _szCurTarget$548926[ebp]
  006c9	ff 15 00 00 00
	00		 call	 DWORD PTR __imp_?IsEmpty@ioHashString@@QBE_NXZ
  006cf	84 c0		 test	 al, al
  006d1	74 0a		 je	 SHORT $LN8@CheckNextT

; 360  : 				szCurTarget = m_LastTargetName;

  006d3	57		 push	 edi
$LN293@CheckNextT:
  006d4	8d 4d bc	 lea	 ecx, DWORD PTR _szCurTarget$548926[ebp]
  006d7	ff 15 00 00 00
	00		 call	 DWORD PTR __imp_??4ioHashString@@QAEAAV0@ABV0@@Z
$LN8@CheckNextT:

; 361  : 		}
; 362  : 
; 363  : 		ioBaseChar *pTarget = pStage->GetBaseChar( szCurTarget );

  006dd	8b 4d 98	 mov	 ecx, DWORD PTR _pStage$GSCopy$[ebp]
  006e0	8d 45 bc	 lea	 eax, DWORD PTR _szCurTarget$548926[ebp]
  006e3	50		 push	 eax
  006e4	e8 00 00 00 00	 call	 ?GetBaseChar@ioPlayStage@@QAEPAVioBaseChar@@ABVioHashString@@@Z ; ioPlayStage::GetBaseChar
  006e9	8b f0		 mov	 esi, eax

; 364  : 		if( pTarget )

  006eb	85 f6		 test	 esi, esi
  006ed	74 50		 je	 SHORT $LN7@CheckNextT

; 365  : 		{
; 366  : 			m_LastTargetName = szCurTarget;

  006ef	8d 45 bc	 lea	 eax, DWORD PTR _szCurTarget$548926[ebp]
  006f2	50		 push	 eax
  006f3	8b cf		 mov	 ecx, edi
  006f5	ff 15 00 00 00
	00		 call	 DWORD PTR __imp_??4ioHashString@@QAEAAV0@ABV0@@Z

; 367  : 
; 368  : 			if( CheckDownAimState( pTarget ) )

  006fb	56		 push	 esi
  006fc	8b cb		 mov	 ecx, ebx
  006fe	e8 00 00 00 00	 call	 ?CheckDownAimState@ioFireSkill2@@IAE_NPAVioBaseChar@@@Z ; ioFireSkill2::CheckDownAimState
  00703	84 c0		 test	 al, al

; 369  : 				m_vTargetPos = pTarget->GetMidPositionByRate(m_fDownTargetAimRate);

  00705	8d 45 98	 lea	 eax, DWORD PTR _value$565318[ebp]
  00708	50		 push	 eax
  00709	8d 8b 40 13 00
	00		 lea	 ecx, DWORD PTR [ebx+4928]
  0070f	75 06		 jne	 SHORT $LN295@CheckNextT

; 370  : 			else
; 371  : 				m_vTargetPos = pTarget->GetMidPositionByRate(m_fTargetAimRate);

  00711	8d 8b 10 13 00
	00		 lea	 ecx, DWORD PTR [ebx+4880]
$LN295@CheckNextT:
  00717	e8 00 00 00 00	 call	 ?DecryptValueToPool@?$CEncrypt@M@@QAEXPAM@Z ; CEncrypt<float>::DecryptValueToPool
  0071c	f3 0f 10 45 98	 movss	 xmm0, DWORD PTR _value$565323[ebp]
  00721	51		 push	 ecx
  00722	8d 45 cc	 lea	 eax, DWORD PTR $T548959[ebp]
  00725	f3 0f 11 04 24	 movss	 DWORD PTR [esp], xmm0
  0072a	50		 push	 eax
  0072b	8b ce		 mov	 ecx, esi
  0072d	e8 00 00 00 00	 call	 ?GetMidPositionByRate@ioGameEntity@@QBE?AUD3DXVECTOR3@@M@Z ; ioGameEntity::GetMidPositionByRate
  00732	8d bb e4 12 00
	00		 lea	 edi, DWORD PTR [ebx+4836]
  00738	8b f0		 mov	 esi, eax
  0073a	a5		 movsd
  0073b	a5		 movsd
  0073c	a5		 movsd

; 372  : 		}
; 373  : 		else

  0073d	eb 1b		 jmp	 SHORT $LN4@CheckNextT
$LN7@CheckNextT:

; 374  : 		{
; 375  : 			m_vTargetPos = ioMath::VEC3_ZERO;

  0073f	8b 35 00 00 00
	00		 mov	 esi, DWORD PTR __imp_?VEC3_ZERO@ioMath@@2UD3DXVECTOR3@@A
  00745	8d bb e4 12 00
	00		 lea	 edi, DWORD PTR [ebx+4836]
  0074b	a5		 movsd
  0074c	a5		 movsd

; 376  : 			m_LastTargetName.Clear();

  0074d	8d 8b d4 12 00
	00		 lea	 ecx, DWORD PTR [ebx+4820]
  00753	a5		 movsd
  00754	ff 15 00 00 00
	00		 call	 DWORD PTR __imp_?Clear@ioHashString@@QAEXXZ
$LN4@CheckNextT:

; 377  : 		}
; 378  : 	}

  0075a	8d 4d bc	 lea	 ecx, DWORD PTR _szCurTarget$548926[ebp]
  0075d	c6 45 fc 01	 mov	 BYTE PTR __$EHRec$[ebp+8], 1
  00761	ff 15 00 00 00
	00		 call	 DWORD PTR __imp_??1ioHashString@@QAE@XZ
$LN14@CheckNextT:

; 379  : 
; 380  : 	if( !m_LastTargetName.IsEmpty() )

  00767	8d bb d4 12 00
	00		 lea	 edi, DWORD PTR [ebx+4820]
  0076d	8b cf		 mov	 ecx, edi
  0076f	ff 15 00 00 00
	00		 call	 DWORD PTR __imp_?IsEmpty@ioHashString@@QBE_NXZ

; 381  : 	{
; 382  : 		pChar->SetTargetMarkerTarget( m_LastTargetName, false, TT_OTHER );

  00775	6a 01		 push	 1
  00777	6a 00		 push	 0
  00779	84 c0		 test	 al, al
  0077b	75 1e		 jne	 SHORT $LN3@CheckNextT
  0077d	8b b5 74 ff ff
	ff		 mov	 esi, DWORD PTR _pChar$GSCopy$[ebp]
  00783	57		 push	 edi
  00784	8d 8e cc 01 00
	00		 lea	 ecx, DWORD PTR [esi+460]
  0078a	e8 00 00 00 00	 call	 ?SetTargetMarkerTarget@ioBaseGUISupport@@QAEXABVioHashString@@_NW4TargetedType@@@Z ; ioBaseGUISupport::SetTargetMarkerTarget

; 383  : 		pChar->SetTargetMarkerState( ioTargetMarker::MS_AIMED, TT_OTHER );

  0078f	6a 01		 push	 1
  00791	6a 03		 push	 3
  00793	8d 8e cc 01 00
	00		 lea	 ecx, DWORD PTR [esi+460]

; 384  : 	}
; 385  : 	else

  00799	eb 0c		 jmp	 SHORT $LN296@CheckNextT
$LN3@CheckNextT:

; 386  : 	{
; 387  : 		pChar->SetTargetMarkerState( ioTargetMarker::MS_NONE, TT_OTHER );

  0079b	8b 8d 74 ff ff
	ff		 mov	 ecx, DWORD PTR _pChar$GSCopy$[ebp]
  007a1	81 c1 cc 01 00
	00		 add	 ecx, 460		; 000001ccH
$LN296@CheckNextT:
  007a7	e8 00 00 00 00	 call	 ?SetTargetMarkerState@ioBaseGUISupport@@QAEXW4MarkerState@ioTargetMarker@@W4TargetedType@@@Z ; ioBaseGUISupport::SetTargetMarkerState

; 388  : 	}
; 389  : 
; 390  : 	if( m_vTargetPos != ioMath::VEC3_ZERO )

  007ac	8b 0d 00 00 00
	00		 mov	 ecx, DWORD PTR __imp_?VEC3_ZERO@ioMath@@2UD3DXVECTOR3@@A
  007b2	f3 0f 10 09	 movss	 xmm1, DWORD PTR [ecx]
  007b6	8d 93 e4 12 00
	00		 lea	 edx, DWORD PTR [ebx+4836]
  007bc	f3 0f 10 02	 movss	 xmm0, DWORD PTR [edx]
  007c0	0f 5a c0	 cvtps2pd xmm0, xmm0
  007c3	0f 5a c9	 cvtps2pd xmm1, xmm1
  007c6	66 0f 2e c1	 ucomisd xmm0, xmm1
  007ca	9f		 lahf
  007cb	f6 c4 44	 test	 ah, 68			; 00000044H
  007ce	7a 34		 jp	 SHORT $LN264@CheckNextT
  007d0	f3 0f 10 42 04	 movss	 xmm0, DWORD PTR [edx+4]
  007d5	f3 0f 10 49 04	 movss	 xmm1, DWORD PTR [ecx+4]
  007da	0f 5a c0	 cvtps2pd xmm0, xmm0
  007dd	0f 5a c9	 cvtps2pd xmm1, xmm1
  007e0	66 0f 2e c1	 ucomisd xmm0, xmm1
  007e4	9f		 lahf
  007e5	f6 c4 44	 test	 ah, 68			; 00000044H
  007e8	7a 1a		 jp	 SHORT $LN264@CheckNextT
  007ea	f3 0f 10 42 08	 movss	 xmm0, DWORD PTR [edx+8]
  007ef	f3 0f 10 49 08	 movss	 xmm1, DWORD PTR [ecx+8]
  007f4	0f 5a c0	 cvtps2pd xmm0, xmm0
  007f7	0f 5a c9	 cvtps2pd xmm1, xmm1
  007fa	66 0f 2e c1	 ucomisd xmm0, xmm1
  007fe	9f		 lahf
  007ff	f6 c4 44	 test	 ah, 68			; 00000044H
  00802	7b 10		 jnp	 SHORT $LN1@CheckNextT
$LN264@CheckNextT:

; 391  : 	{
; 392  : 		pChar->SetTargetRotToTargetPos( m_vTargetPos, true );

  00804	8b 8d 74 ff ff
	ff		 mov	 ecx, DWORD PTR _pChar$GSCopy$[ebp]
  0080a	6a 00		 push	 0
  0080c	6a 01		 push	 1
  0080e	52		 push	 edx
  0080f	e8 00 00 00 00	 call	 ?SetTargetRotToTargetPos@ioBaseChar@@QAEXABUD3DXVECTOR3@@_N1@Z ; ioBaseChar::SetTargetRotToTargetPos
$LN1@CheckNextT:

; 393  : 	}
; 394  : 
; 395  : 	AttackSkillFire( pChar );

  00814	ff b5 74 ff ff
	ff		 push	 DWORD PTR _pChar$GSCopy$[ebp]
  0081a	8b 03		 mov	 eax, DWORD PTR [ebx]
  0081c	8b cb		 mov	 ecx, ebx
  0081e	ff 90 8c 01 00
	00		 call	 DWORD PTR [eax+396]

; 396  : 	m_iCurFireCnt++;

  00824	8d 45 a8	 lea	 eax, DWORD PTR _value$565336[ebp]
  00827	50		 push	 eax
  00828	8d 8b 4c 11 00
	00		 lea	 ecx, DWORD PTR [ebx+4428]
  0082e	e8 00 00 00 00	 call	 ?DecryptValueToPool@?$CEncrypt@H@@QAEXPAH@Z ; CEncrypt<int>::DecryptValueToPool
  00833	ff 45 a8	 inc	 DWORD PTR _value$565336[ebp]
  00836	8d 45 a8	 lea	 eax, DWORD PTR _value$565336[ebp]
  00839	50		 push	 eax
  0083a	8d 8b 4c 11 00
	00		 lea	 ecx, DWORD PTR [ebx+4428]
  00840	e8 00 00 00 00	 call	 ?EncryptValueToPool@?$CEncrypt@H@@AAEXPBD@Z ; CEncrypt<int>::EncryptValueToPool

; 397  : }

  00845	8d 8d 78 ff ff
	ff		 lea	 ecx, DWORD PTR _vNewCharList$[ebp]
  0084b	c6 45 fc 00	 mov	 BYTE PTR __$EHRec$[ebp+8], 0
  0084f	e8 00 00 00 00	 call	 ?_Tidy@?$vector@UtagBaseCharDistanceSq@@V?$allocator@UtagBaseCharDistanceSq@@@std@@@std@@IAEXXZ ; std::vector<tagBaseCharDistanceSq,std::allocator<tagBaseCharDistanceSq> >::_Tidy
  00854	83 4d fc ff	 or	 DWORD PTR __$EHRec$[ebp+8], -1
  00858	8d 4d 88	 lea	 ecx, DWORD PTR _vTargetList$[ebp]
  0085b	e8 00 00 00 00	 call	 ?_Tidy@?$vector@PAVioBaseChar@@V?$allocator@PAVioBaseChar@@@std@@@std@@IAEXXZ ; std::vector<ioBaseChar *,std::allocator<ioBaseChar *> >::_Tidy
$LN272@CheckNextT:
  00860	e8 00 00 00 00	 call	 __EH_epilog3_GS
  00865	c2 08 00	 ret	 8
_TEXT	ENDS
;	COMDAT text$x
text$x	SEGMENT
__unwindfunclet$?CheckNextTarget@ioFireSkill2@@IAEXPAVioBaseChar@@PAVioPlayStage@@@Z$0:
  00000	8d 4d 88	 lea	 ecx, DWORD PTR _vTargetList$[ebp]
  00003	e9 00 00 00 00	 jmp	 ??1?$vector@PAVioBaseChar@@V?$allocator@PAVioBaseChar@@@std@@@std@@QAE@XZ ; std::vector<ioBaseChar *,std::allocator<ioBaseChar *> >::~vector<ioBaseChar *,std::allocator<ioBaseChar *> >
__unwindfunclet$?CheckNextTarget@ioFireSkill2@@IAEXPAVioBaseChar@@PAVioPlayStage@@@Z$1:
  00008	8d 8d 78 ff ff
	ff		 lea	 ecx, DWORD PTR _vNewCharList$[ebp]
  0000e	e9 00 00 00 00	 jmp	 ??1?$vector@UtagBaseCharDistanceSq@@V?$allocator@UtagBaseCharDistanceSq@@@std@@@std@@QAE@XZ ; std::vector<tagBaseCharDistanceSq,std::allocator<tagBaseCharDistanceSq> >::~vector<tagBaseCharDistanceSq,std::allocator<tagBaseCharDistanceSq> >
__unwindfunclet$?CheckNextTarget@ioFireSkill2@@IAEXPAVioBaseChar@@PAVioPlayStage@@@Z$2:
  00013	8d 4d ac	 lea	 ecx, DWORD PTR _kTarget$548787[ebp]
  00016	e9 00 00 00 00	 jmp	 ??1tagBaseCharDistanceSq@@QAE@XZ
__unwindfunclet$?CheckNextTarget@ioFireSkill2@@IAEXPAVioBaseChar@@PAVioPlayStage@@@Z$3:
  0001b	8d 4d bc	 lea	 ecx, DWORD PTR _szCurTarget$548926[ebp]
  0001e	ff 25 00 00 00
	00		 jmp	 DWORD PTR __imp_??1ioHashString@@QAE@XZ
__ehhandler$?CheckNextTarget@ioFireSkill2@@IAEXPAVioBaseChar@@PAVioPlayStage@@@Z:
  00024	8b 54 24 08	 mov	 edx, DWORD PTR [esp+8]
  00028	8d 42 0c	 lea	 eax, DWORD PTR [edx+12]
  0002b	8b 8a 70 ff ff
	ff		 mov	 ecx, DWORD PTR [edx-144]
  00031	33 c8		 xor	 ecx, eax
  00033	e8 00 00 00 00	 call	 @__security_check_cookie@4
  00038	8b 4a fc	 mov	 ecx, DWORD PTR [edx-4]
  0003b	33 c8		 xor	 ecx, eax
  0003d	e8 00 00 00 00	 call	 @__security_check_cookie@4
  00042	b8 00 00 00 00	 mov	 eax, OFFSET __ehfuncinfo$?CheckNextTarget@ioFireSkill2@@IAEXPAVioBaseChar@@PAVioPlayStage@@@Z
  00047	e9 00 00 00 00	 jmp	 ___CxxFrameHandler3
text$x	ENDS
?CheckNextTarget@ioFireSkill2@@IAEXPAVioBaseChar@@PAVioPlayStage@@@Z ENDP ; ioFireSkill2::CheckNextTarget
PUBLIC	__$ArrayPad$
PUBLIC	?SetSkillActionState@ioFireSkill2@@IAEXPAVioBaseChar@@PAVioPlayStage@@@Z ; ioFireSkill2::SetSkillActionState
EXTRN	??1SP2Packet@@UAE@XZ:PROC			; SP2Packet::~SP2Packet
EXTRN	?SendToAllPlayingUser@P2PNetwork@@YAXAAVSP2Packet@@PAVioBaseChar@@@Z:PROC ; P2PNetwork::SendToAllPlayingUser
EXTRN	??6SP2Packet@@QAEAAV0@AAV?$CEncrypt@H@@@Z:PROC	; SP2Packet::operator<<
EXTRN	??6SP2Packet@@QAEAAV0@ABUD3DXVECTOR3@@@Z:PROC	; SP2Packet::operator<<
EXTRN	??6SP2Packet@@QAEAAV0@ABUD3DXQUATERNION@@@Z:PROC ; SP2Packet::operator<<
EXTRN	??6SP2Packet@@QAEAAV0@H@Z:PROC			; SP2Packet::operator<<
EXTRN	??6SP2Packet@@QAEAAV0@ABVioHashString@@@Z:PROC	; SP2Packet::operator<<
EXTRN	??0SP2Packet@@QAE@K@Z:PROC			; SP2Packet::SP2Packet
EXTRN	__chkstk:PROC
;	COMDAT xdata$x
; File d:\lost saga for developer\youtube\tutorial\source\src\lsclient\iobasechar.h
xdata$x	SEGMENT
__unwindtable$?SetSkillActionState@ioFireSkill2@@IAEXPAVioBaseChar@@PAVioPlayStage@@@Z DD 0ffffffffH
	DD	FLAT:__unwindfunclet$?SetSkillActionState@ioFireSkill2@@IAEXPAVioBaseChar@@PAVioPlayStage@@@Z$0
__ehfuncinfo$?SetSkillActionState@ioFireSkill2@@IAEXPAVioBaseChar@@PAVioPlayStage@@@Z DD 019930522H
	DD	01H
	DD	FLAT:__unwindtable$?SetSkillActionState@ioFireSkill2@@IAEXPAVioBaseChar@@PAVioPlayStage@@@Z
	DD	2 DUP(00H)
	DD	2 DUP(00H)
	DD	00H
	DD	01H
; Function compile flags: /Ogsp
; File d:\lost saga for developer\youtube\tutorial\source\src\lsclient\iofireskill2.cpp
xdata$x	ENDS
;	COMDAT ?SetSkillActionState@ioFireSkill2@@IAEXPAVioBaseChar@@PAVioPlayStage@@@Z
_TEXT	SEGMENT
_value$565390 = -32816					; size = 4
_dwCurTime$ = -32812					; size = 4
_kPacket$548228 = -32808				; size = 32792
__$ArrayPad$ = -16					; size = 4
__$EHRec$ = -12						; size = 12
_pChar$ = 8						; size = 4
_pStage$ = 12						; size = 4
?SetSkillActionState@ioFireSkill2@@IAEXPAVioBaseChar@@PAVioPlayStage@@@Z PROC ; ioFireSkill2::SetSkillActionState, COMDAT
; _this$ = ecx

; 127  : {

  00000	55		 push	 ebp
  00001	8b ec		 mov	 ebp, esp
  00003	6a ff		 push	 -1
  00005	68 00 00 00 00	 push	 __ehhandler$?SetSkillActionState@ioFireSkill2@@IAEXPAVioBaseChar@@PAVioPlayStage@@@Z
  0000a	64 a1 00 00 00
	00		 mov	 eax, DWORD PTR fs:0
  00010	50		 push	 eax
  00011	b8 24 80 00 00	 mov	 eax, 32804		; 00008024H
  00016	e8 00 00 00 00	 call	 __chkstk
  0001b	a1 00 00 00 00	 mov	 eax, DWORD PTR ___security_cookie
  00020	33 c5		 xor	 eax, ebp
  00022	89 45 f0	 mov	 DWORD PTR __$ArrayPad$[ebp], eax
  00025	53		 push	 ebx
  00026	56		 push	 esi
  00027	57		 push	 edi
  00028	50		 push	 eax
  00029	8d 45 f4	 lea	 eax, DWORD PTR __$EHRec$[ebp]
  0002c	64 a3 00 00 00
	00		 mov	 DWORD PTR fs:0, eax
  00032	8b 7d 08	 mov	 edi, DWORD PTR _pChar$[ebp]
  00035	8b 5d 0c	 mov	 ebx, DWORD PTR _pStage$[ebp]
  00038	8b f1		 mov	 esi, ecx

; 128  : 	DWORD dwCurTime = FRAMEGETTIME();

  0003a	ff 15 00 00 00
	00		 call	 DWORD PTR __imp_?GetSingleton@ioFrameTimer@@SAAAV1@XZ
  00040	8b c8		 mov	 ecx, eax
  00042	ff 15 00 00 00
	00		 call	 DWORD PTR __imp_?GetLoopSec@ioFrameTimer@@QBEKXZ

; 129  : 	
; 130  : 	m_iCurFireCnt = 0;

  00048	83 a5 d0 7f ff
	ff 00		 and	 DWORD PTR _value$565390[ebp], 0
  0004f	89 85 d4 7f ff
	ff		 mov	 DWORD PTR _dwCurTime$[ebp], eax
  00055	8d 85 d0 7f ff
	ff		 lea	 eax, DWORD PTR _value$565390[ebp]
  0005b	8d 8e 4c 11 00
	00		 lea	 ecx, DWORD PTR [esi+4428]
  00061	50		 push	 eax
  00062	e8 00 00 00 00	 call	 ?EncryptValueToPool@?$CEncrypt@H@@AAEXPBD@Z ; CEncrypt<int>::EncryptValueToPool

; 131  : 	CheckNextTarget( pChar, pStage );

  00067	53		 push	 ebx
  00068	57		 push	 edi
  00069	8b ce		 mov	 ecx, esi
  0006b	e8 00 00 00 00	 call	 ?CheckNextTarget@ioFireSkill2@@IAEXPAVioBaseChar@@PAVioPlayStage@@@Z ; ioFireSkill2::CheckNextTarget

; 132  : 
; 133  : 	if( !m_bSetHandMesh && m_bUseItemMesh && !m_HandMesh.IsEmpty() )

  00070	80 be 0a 0f 00
	00 00		 cmp	 BYTE PTR [esi+3850], 0
  00077	75 33		 jne	 SHORT $LN2@SetSkillAc
  00079	80 be 08 0f 00
	00 00		 cmp	 BYTE PTR [esi+3848], 0
  00080	74 2a		 je	 SHORT $LN2@SetSkillAc
  00082	8d 9e f8 0e 00
	00		 lea	 ebx, DWORD PTR [esi+3832]
  00088	8b cb		 mov	 ecx, ebx
  0008a	ff 15 00 00 00
	00		 call	 DWORD PTR __imp_?IsEmpty@ioHashString@@QBE_NXZ
  00090	84 c0		 test	 al, al
  00092	75 18		 jne	 SHORT $LN2@SetSkillAc

; 134  : 	{
; 135  : 		pChar->ChangeSkillWeaponMesh( this, m_HandMesh, m_bVisibleEquipMesh );

  00094	0f b6 86 09 0f
	00 00		 movzx	 eax, BYTE PTR [esi+3849]
  0009b	50		 push	 eax
  0009c	53		 push	 ebx
  0009d	56		 push	 esi
  0009e	8b cf		 mov	 ecx, edi
  000a0	e8 00 00 00 00	 call	 ?ChangeSkillWeaponMesh@ioBaseChar@@QAE_NPAVioSkill@@ABVioHashString@@_N@Z ; ioBaseChar::ChangeSkillWeaponMesh

; 136  : 		m_bSetHandMesh = true;

  000a5	c6 86 0a 0f 00
	00 01		 mov	 BYTE PTR [esi+3850], 1
$LN2@SetSkillAc:

; 137  : 	}
; 138  : 
; 139  : 	m_SkillState = SS_ACTION;
; 140  : 	m_dwActionStartTime = dwCurTime;

  000ac	8b 85 d4 7f ff
	ff		 mov	 eax, DWORD PTR _dwCurTime$[ebp]
  000b2	c7 86 e4 10 00
	00 01 00 00 00	 mov	 DWORD PTR [esi+4324], 1
  000bc	89 86 18 11 00
	00		 mov	 DWORD PTR [esi+4376], eax

; 141  : 
; 142  : 	if( pChar->IsNeedSendNetwork() )

  000c2	8b 07		 mov	 eax, DWORD PTR [edi]
  000c4	8b cf		 mov	 ecx, edi
  000c6	ff 90 04 01 00
	00		 call	 DWORD PTR [eax+260]
  000cc	84 c0		 test	 al, al
  000ce	0f 84 b9 00 00
	00		 je	 $LN1@SetSkillAc

; 143  : 	{
; 144  : 		SP2Packet kPacket( CUPK_SKILL_EXTRA_INFO );

  000d4	68 39 41 00 00	 push	 16697			; 00004139H
  000d9	8d 8d d8 7f ff
	ff		 lea	 ecx, DWORD PTR _kPacket$548228[ebp]
  000df	e8 00 00 00 00	 call	 ??0SP2Packet@@QAE@K@Z	; SP2Packet::SP2Packet

; 145  : 		kPacket << pChar->GetCharName();

  000e4	8d 87 d4 02 00
	00		 lea	 eax, DWORD PTR [edi+724]
  000ea	33 db		 xor	 ebx, ebx
  000ec	50		 push	 eax
  000ed	8d 8d d8 7f ff
	ff		 lea	 ecx, DWORD PTR _kPacket$548228[ebp]
  000f3	89 5d fc	 mov	 DWORD PTR __$EHRec$[ebp+8], ebx
  000f6	e8 00 00 00 00	 call	 ??6SP2Packet@@QAEAAV0@ABVioHashString@@@Z ; SP2Packet::operator<<

; 146  : 		kPacket << GetName();

  000fb	8d 46 24	 lea	 eax, DWORD PTR [esi+36]
  000fe	50		 push	 eax
  000ff	8d 8d d8 7f ff
	ff		 lea	 ecx, DWORD PTR _kPacket$548228[ebp]
  00105	e8 00 00 00 00	 call	 ??6SP2Packet@@QAEAAV0@ABVioHashString@@@Z ; SP2Packet::operator<<

; 147  : 		kPacket << ST_STATE;

  0010a	53		 push	 ebx
  0010b	8d 8d d8 7f ff
	ff		 lea	 ecx, DWORD PTR _kPacket$548228[ebp]
  00111	e8 00 00 00 00	 call	 ??6SP2Packet@@QAEAAV0@H@Z ; SP2Packet::operator<<

; 148  : 		kPacket << m_SkillState;

  00116	ff b6 e4 10 00
	00		 push	 DWORD PTR [esi+4324]
  0011c	8d 8d d8 7f ff
	ff		 lea	 ecx, DWORD PTR _kPacket$548228[ebp]
  00122	e8 00 00 00 00	 call	 ??6SP2Packet@@QAEAAV0@H@Z ; SP2Packet::operator<<

; 149  : 		kPacket << pChar->GetTargetRot();

  00127	81 c7 a4 06 00
	00		 add	 edi, 1700		; 000006a4H
  0012d	57		 push	 edi
  0012e	8d 8d d8 7f ff
	ff		 lea	 ecx, DWORD PTR _kPacket$548228[ebp]
  00134	e8 00 00 00 00	 call	 ??6SP2Packet@@QAEAAV0@ABUD3DXQUATERNION@@@Z ; SP2Packet::operator<<

; 150  : 		kPacket << m_vTargetPos;

  00139	8d 86 e4 12 00
	00		 lea	 eax, DWORD PTR [esi+4836]
  0013f	50		 push	 eax
  00140	8d 8d d8 7f ff
	ff		 lea	 ecx, DWORD PTR _kPacket$548228[ebp]
  00146	e8 00 00 00 00	 call	 ??6SP2Packet@@QAEAAV0@ABUD3DXVECTOR3@@@Z ; SP2Packet::operator<<

; 151  : 		kPacket << m_iCurFireCnt;

  0014b	8d 86 4c 11 00
	00		 lea	 eax, DWORD PTR [esi+4428]
  00151	50		 push	 eax
  00152	8d 8d d8 7f ff
	ff		 lea	 ecx, DWORD PTR _kPacket$548228[ebp]
  00158	e8 00 00 00 00	 call	 ??6SP2Packet@@QAEAAV0@AAV?$CEncrypt@H@@@Z ; SP2Packet::operator<<

; 152  : 		kPacket << m_LastTargetName;

  0015d	81 c6 d4 12 00
	00		 add	 esi, 4820		; 000012d4H
  00163	56		 push	 esi
  00164	8d 8d d8 7f ff
	ff		 lea	 ecx, DWORD PTR _kPacket$548228[ebp]
  0016a	e8 00 00 00 00	 call	 ??6SP2Packet@@QAEAAV0@ABVioHashString@@@Z ; SP2Packet::operator<<

; 153  : 		P2PNetwork::SendToAllPlayingUser( kPacket );

  0016f	8d 85 d8 7f ff
	ff		 lea	 eax, DWORD PTR _kPacket$548228[ebp]
  00175	53		 push	 ebx
  00176	50		 push	 eax
  00177	e8 00 00 00 00	 call	 ?SendToAllPlayingUser@P2PNetwork@@YAXAAVSP2Packet@@PAVioBaseChar@@@Z ; P2PNetwork::SendToAllPlayingUser

; 154  : 	}

  0017c	83 4d fc ff	 or	 DWORD PTR __$EHRec$[ebp+8], -1
  00180	59		 pop	 ecx
  00181	59		 pop	 ecx
  00182	8d 8d d8 7f ff
	ff		 lea	 ecx, DWORD PTR _kPacket$548228[ebp]
  00188	e8 00 00 00 00	 call	 ??1SP2Packet@@UAE@XZ	; SP2Packet::~SP2Packet
$LN1@SetSkillAc:

; 155  : }

  0018d	8b 4d f4	 mov	 ecx, DWORD PTR __$EHRec$[ebp]
  00190	64 89 0d 00 00
	00 00		 mov	 DWORD PTR fs:0, ecx
  00197	59		 pop	 ecx
  00198	5f		 pop	 edi
  00199	5e		 pop	 esi
  0019a	5b		 pop	 ebx
  0019b	8b 4d f0	 mov	 ecx, DWORD PTR __$ArrayPad$[ebp]
  0019e	33 cd		 xor	 ecx, ebp
  001a0	e8 00 00 00 00	 call	 @__security_check_cookie@4
  001a5	c9		 leave
  001a6	c2 08 00	 ret	 8
_TEXT	ENDS
;	COMDAT text$x
text$x	SEGMENT
__unwindfunclet$?SetSkillActionState@ioFireSkill2@@IAEXPAVioBaseChar@@PAVioPlayStage@@@Z$0:
  00000	8d 8d d8 7f ff
	ff		 lea	 ecx, DWORD PTR _kPacket$548228[ebp]
  00006	e9 00 00 00 00	 jmp	 ??1SP2Packet@@UAE@XZ	; SP2Packet::~SP2Packet
__ehhandler$?SetSkillActionState@ioFireSkill2@@IAEXPAVioBaseChar@@PAVioPlayStage@@@Z:
  0000b	8b 54 24 08	 mov	 edx, DWORD PTR [esp+8]
  0000f	8d 42 0c	 lea	 eax, DWORD PTR [edx+12]
  00012	8b 8a cc 7f ff
	ff		 mov	 ecx, DWORD PTR [edx-32820]
  00018	33 c8		 xor	 ecx, eax
  0001a	e8 00 00 00 00	 call	 @__security_check_cookie@4
  0001f	8b 4a fc	 mov	 ecx, DWORD PTR [edx-4]
  00022	33 c8		 xor	 ecx, eax
  00024	e8 00 00 00 00	 call	 @__security_check_cookie@4
  00029	b8 00 00 00 00	 mov	 eax, OFFSET __ehfuncinfo$?SetSkillActionState@ioFireSkill2@@IAEXPAVioBaseChar@@PAVioPlayStage@@@Z
  0002e	e9 00 00 00 00	 jmp	 ___CxxFrameHandler3
text$x	ENDS
?SetSkillActionState@ioFireSkill2@@IAEXPAVioBaseChar@@PAVioPlayStage@@@Z ENDP ; ioFireSkill2::SetSkillActionState
PUBLIC	_pStage$GSCopy$
PUBLIC	__$ArrayPad$
;	COMDAT xdata$x
; File d:\lost saga for developer\youtube\tutorial\source\src\lsclient\iobasechar.h
xdata$x	SEGMENT
__unwindtable$?OnProcessState@ioFireSkill2@@UAEXPAVioBaseChar@@PAVioPlayStage@@@Z DD 0ffffffffH
	DD	FLAT:__unwindfunclet$?OnProcessState@ioFireSkill2@@UAEXPAVioBaseChar@@PAVioPlayStage@@@Z$0
__ehfuncinfo$?OnProcessState@ioFireSkill2@@UAEXPAVioBaseChar@@PAVioPlayStage@@@Z DD 019930522H
	DD	01H
	DD	FLAT:__unwindtable$?OnProcessState@ioFireSkill2@@UAEXPAVioBaseChar@@PAVioPlayStage@@@Z
	DD	2 DUP(00H)
	DD	2 DUP(00H)
	DD	00H
	DD	01H
; Function compile flags: /Ogsp
; File d:\lost saga for developer\youtube\tutorial\source\src\lsclient\iofireskill2.cpp
xdata$x	ENDS
;	COMDAT ?OnProcessState@ioFireSkill2@@UAEXPAVioBaseChar@@PAVioPlayStage@@@Z
_TEXT	SEGMENT
_value$565418 = -32820					; size = 4
_value$565422 = -32816					; size = 4
_pStage$GSCopy$ = -32812				; size = 4
_kPacket$548248 = -32808				; size = 32792
__$ArrayPad$ = -16					; size = 4
__$EHRec$ = -12						; size = 12
_pChar$ = 8						; size = 4
_pStage$ = 12						; size = 4
?OnProcessState@ioFireSkill2@@UAEXPAVioBaseChar@@PAVioPlayStage@@@Z PROC ; ioFireSkill2::OnProcessState, COMDAT
; _this$ = ecx

; 158  : {

  00000	55		 push	 ebp
  00001	8b ec		 mov	 ebp, esp
  00003	6a ff		 push	 -1
  00005	68 00 00 00 00	 push	 __ehhandler$?OnProcessState@ioFireSkill2@@UAEXPAVioBaseChar@@PAVioPlayStage@@@Z
  0000a	64 a1 00 00 00
	00		 mov	 eax, DWORD PTR fs:0
  00010	50		 push	 eax
  00011	b8 28 80 00 00	 mov	 eax, 32808		; 00008028H
  00016	e8 00 00 00 00	 call	 __chkstk
  0001b	a1 00 00 00 00	 mov	 eax, DWORD PTR ___security_cookie
  00020	33 c5		 xor	 eax, ebp
  00022	89 45 f0	 mov	 DWORD PTR __$ArrayPad$[ebp], eax
  00025	53		 push	 ebx
  00026	56		 push	 esi
  00027	57		 push	 edi
  00028	50		 push	 eax
  00029	8d 45 f4	 lea	 eax, DWORD PTR __$EHRec$[ebp]
  0002c	64 a3 00 00 00
	00		 mov	 DWORD PTR fs:0, eax
  00032	8b 7d 08	 mov	 edi, DWORD PTR _pChar$[ebp]
  00035	8b 45 0c	 mov	 eax, DWORD PTR _pStage$[ebp]
  00038	8b f1		 mov	 esi, ecx

; 166  : 	{
; 167  : 	case SS_NONE:
; 168  : 		if( m_dwPreDelayStartTime + dwPreDelay < dwCurTime )

  0003a	89 85 d4 7f ff
	ff		 mov	 DWORD PTR _pStage$GSCopy$[ebp], eax
  00040	85 ff		 test	 edi, edi
  00042	0f 84 77 01 00
	00		 je	 $LN5@OnProcessS

; 159  : 	if( !pChar )
; 160  : 		return;
; 161  : 
; 162  : 	DWORD dwCurTime = FRAMEGETTIME();

  00048	ff 15 00 00 00
	00		 call	 DWORD PTR __imp_?GetSingleton@ioFrameTimer@@SAAAV1@XZ
  0004e	8b c8		 mov	 ecx, eax
  00050	ff 15 00 00 00
	00		 call	 DWORD PTR __imp_?GetLoopSec@ioFrameTimer@@QBEKXZ
  00056	8b d8		 mov	 ebx, eax

; 163  : 	DWORD dwPreDelay = GetPreDelayTime();

  00058	8b 06		 mov	 eax, DWORD PTR [esi]
  0005a	8b ce		 mov	 ecx, esi
  0005c	ff 90 34 01 00
	00		 call	 DWORD PTR [eax+308]

; 164  : 
; 165  : 	switch( m_SkillState )

  00062	8b 8e e4 10 00
	00		 mov	 ecx, DWORD PTR [esi+4324]
  00068	83 e9 00	 sub	 ecx, 0
  0006b	0f 84 22 01 00
	00		 je	 $LN6@OnProcessS
  00071	49		 dec	 ecx
  00072	0f 85 47 01 00
	00		 jne	 $LN5@OnProcessS

; 174  : 		}
; 175  : 		break;
; 176  : 	case SS_ACTION:
; 177  : 		if( pChar->IsNeedProcess() )

  00078	8b 07		 mov	 eax, DWORD PTR [edi]
  0007a	8b cf		 mov	 ecx, edi
  0007c	ff 90 00 01 00
	00		 call	 DWORD PTR [eax+256]
  00082	84 c0		 test	 al, al
  00084	0f 84 35 01 00
	00		 je	 $LN5@OnProcessS

; 178  : 		{
; 179  : 			if( m_dwMotionEndTime < dwCurTime && m_iCurFireCnt < m_iMaxFireCnt )

  0008a	39 9e d8 02 00
	00		 cmp	 DWORD PTR [esi+728], ebx
  00090	0f 83 29 01 00
	00		 jae	 $LN5@OnProcessS
  00096	8d 85 cc 7f ff
	ff		 lea	 eax, DWORD PTR _value$565418[ebp]
  0009c	50		 push	 eax
  0009d	8d 8e 1c 11 00
	00		 lea	 ecx, DWORD PTR [esi+4380]
  000a3	e8 00 00 00 00	 call	 ?DecryptValueToPool@?$CEncrypt@H@@QAEXPAH@Z ; CEncrypt<int>::DecryptValueToPool
  000a8	8d 85 d0 7f ff
	ff		 lea	 eax, DWORD PTR _value$565422[ebp]
  000ae	8d 9e 4c 11 00
	00		 lea	 ebx, DWORD PTR [esi+4428]
  000b4	50		 push	 eax
  000b5	8b cb		 mov	 ecx, ebx
  000b7	e8 00 00 00 00	 call	 ?DecryptValueToPool@?$CEncrypt@H@@QAEXPAH@Z ; CEncrypt<int>::DecryptValueToPool
  000bc	8b 85 d0 7f ff
	ff		 mov	 eax, DWORD PTR _value$565422[ebp]
  000c2	3b 85 cc 7f ff
	ff		 cmp	 eax, DWORD PTR _value$565418[ebp]
  000c8	0f 8d f1 00 00
	00		 jge	 $LN5@OnProcessS

; 180  : 			{
; 181  : 				CheckNextTarget( pChar, pStage );

  000ce	ff b5 d4 7f ff
	ff		 push	 DWORD PTR _pStage$GSCopy$[ebp]
  000d4	8b ce		 mov	 ecx, esi
  000d6	57		 push	 edi
  000d7	e8 00 00 00 00	 call	 ?CheckNextTarget@ioFireSkill2@@IAEXPAVioBaseChar@@PAVioPlayStage@@@Z ; ioFireSkill2::CheckNextTarget

; 182  : 
; 183  : 				if( pChar->IsNeedSendNetwork() )

  000dc	8b 07		 mov	 eax, DWORD PTR [edi]
  000de	8b cf		 mov	 ecx, edi
  000e0	ff 90 04 01 00
	00		 call	 DWORD PTR [eax+260]
  000e6	84 c0		 test	 al, al
  000e8	0f 84 d1 00 00
	00		 je	 $LN5@OnProcessS

; 184  : 				{
; 185  : 					SP2Packet kPacket( CUPK_SKILL_EXTRA_INFO );

  000ee	68 39 41 00 00	 push	 16697			; 00004139H
  000f3	8d 8d d8 7f ff
	ff		 lea	 ecx, DWORD PTR _kPacket$548248[ebp]
  000f9	e8 00 00 00 00	 call	 ??0SP2Packet@@QAE@K@Z	; SP2Packet::SP2Packet
  000fe	83 65 fc 00	 and	 DWORD PTR __$EHRec$[ebp+8], 0

; 186  : 					kPacket << pChar->GetCharName();

  00102	8d 87 d4 02 00
	00		 lea	 eax, DWORD PTR [edi+724]
  00108	50		 push	 eax
  00109	8d 8d d8 7f ff
	ff		 lea	 ecx, DWORD PTR _kPacket$548248[ebp]
  0010f	e8 00 00 00 00	 call	 ??6SP2Packet@@QAEAAV0@ABVioHashString@@@Z ; SP2Packet::operator<<

; 187  : 					kPacket << GetName();

  00114	8d 46 24	 lea	 eax, DWORD PTR [esi+36]
  00117	50		 push	 eax
  00118	8d 8d d8 7f ff
	ff		 lea	 ecx, DWORD PTR _kPacket$548248[ebp]
  0011e	e8 00 00 00 00	 call	 ??6SP2Packet@@QAEAAV0@ABVioHashString@@@Z ; SP2Packet::operator<<

; 188  : 					kPacket << ST_FIRE;

  00123	6a 01		 push	 1
  00125	8d 8d d8 7f ff
	ff		 lea	 ecx, DWORD PTR _kPacket$548248[ebp]
  0012b	e8 00 00 00 00	 call	 ??6SP2Packet@@QAEAAV0@H@Z ; SP2Packet::operator<<

; 189  : 					kPacket << pChar->GetTargetRot();

  00130	81 c7 a4 06 00
	00		 add	 edi, 1700		; 000006a4H
  00136	57		 push	 edi
  00137	8d 8d d8 7f ff
	ff		 lea	 ecx, DWORD PTR _kPacket$548248[ebp]
  0013d	e8 00 00 00 00	 call	 ??6SP2Packet@@QAEAAV0@ABUD3DXQUATERNION@@@Z ; SP2Packet::operator<<

; 190  : 					kPacket << m_vTargetPos;

  00142	8d 86 e4 12 00
	00		 lea	 eax, DWORD PTR [esi+4836]
  00148	50		 push	 eax
  00149	8d 8d d8 7f ff
	ff		 lea	 ecx, DWORD PTR _kPacket$548248[ebp]
  0014f	e8 00 00 00 00	 call	 ??6SP2Packet@@QAEAAV0@ABUD3DXVECTOR3@@@Z ; SP2Packet::operator<<

; 191  : 					kPacket << m_iCurFireCnt;

  00154	53		 push	 ebx
  00155	8d 8d d8 7f ff
	ff		 lea	 ecx, DWORD PTR _kPacket$548248[ebp]
  0015b	e8 00 00 00 00	 call	 ??6SP2Packet@@QAEAAV0@AAV?$CEncrypt@H@@@Z ; SP2Packet::operator<<

; 192  : 					kPacket << m_LastTargetName;

  00160	81 c6 d4 12 00
	00		 add	 esi, 4820		; 000012d4H
  00166	56		 push	 esi
  00167	8d 8d d8 7f ff
	ff		 lea	 ecx, DWORD PTR _kPacket$548248[ebp]
  0016d	e8 00 00 00 00	 call	 ??6SP2Packet@@QAEAAV0@ABVioHashString@@@Z ; SP2Packet::operator<<

; 193  : 					P2PNetwork::SendToAllPlayingUser( kPacket );

  00172	8d 85 d8 7f ff
	ff		 lea	 eax, DWORD PTR _kPacket$548248[ebp]
  00178	6a 00		 push	 0
  0017a	50		 push	 eax
  0017b	e8 00 00 00 00	 call	 ?SendToAllPlayingUser@P2PNetwork@@YAXAAVSP2Packet@@PAVioBaseChar@@@Z ; P2PNetwork::SendToAllPlayingUser

; 194  : 				}

  00180	83 4d fc ff	 or	 DWORD PTR __$EHRec$[ebp+8], -1
  00184	59		 pop	 ecx
  00185	59		 pop	 ecx
  00186	8d 8d d8 7f ff
	ff		 lea	 ecx, DWORD PTR _kPacket$548248[ebp]
  0018c	e8 00 00 00 00	 call	 ??1SP2Packet@@UAE@XZ	; SP2Packet::~SP2Packet

; 195  : 				return;

  00191	eb 2c		 jmp	 SHORT $LN5@OnProcessS
$LN6@OnProcessS:

; 166  : 	{
; 167  : 	case SS_NONE:
; 168  : 		if( m_dwPreDelayStartTime + dwPreDelay < dwCurTime )

  00193	8b 96 20 02 00
	00		 mov	 edx, DWORD PTR [esi+544]
  00199	03 d0		 add	 edx, eax
  0019b	3b d3		 cmp	 edx, ebx
  0019d	73 20		 jae	 SHORT $LN5@OnProcessS

; 169  : 		{
; 170  : 			m_dwPreDelayStartTime = 0;
; 171  : 
; 172  : 			SetSkillActionState( pChar, pStage );

  0019f	ff b5 d4 7f ff
	ff		 push	 DWORD PTR _pStage$GSCopy$[ebp]
  001a5	83 a6 20 02 00
	00 00		 and	 DWORD PTR [esi+544], 0
  001ac	57		 push	 edi
  001ad	8b ce		 mov	 ecx, esi
  001af	e8 00 00 00 00	 call	 ?SetSkillActionState@ioFireSkill2@@IAEXPAVioBaseChar@@PAVioPlayStage@@@Z ; ioFireSkill2::SetSkillActionState

; 173  : 			EndPreDelayEffect( pChar );

  001b4	8b 06		 mov	 eax, DWORD PTR [esi]
  001b6	57		 push	 edi
  001b7	8b ce		 mov	 ecx, esi
  001b9	ff 90 dc 00 00
	00		 call	 DWORD PTR [eax+220]
$LN5@OnProcessS:

; 196  : 			}
; 197  : 		}
; 198  : 		break;
; 199  : 	}
; 200  : }

  001bf	8b 4d f4	 mov	 ecx, DWORD PTR __$EHRec$[ebp]
  001c2	64 89 0d 00 00
	00 00		 mov	 DWORD PTR fs:0, ecx
  001c9	59		 pop	 ecx
  001ca	5f		 pop	 edi
  001cb	5e		 pop	 esi
  001cc	5b		 pop	 ebx
  001cd	8b 4d f0	 mov	 ecx, DWORD PTR __$ArrayPad$[ebp]
  001d0	33 cd		 xor	 ecx, ebp
  001d2	e8 00 00 00 00	 call	 @__security_check_cookie@4
  001d7	c9		 leave
  001d8	c2 08 00	 ret	 8
_TEXT	ENDS
;	COMDAT text$x
text$x	SEGMENT
__unwindfunclet$?OnProcessState@ioFireSkill2@@UAEXPAVioBaseChar@@PAVioPlayStage@@@Z$0:
  00000	8d 8d d8 7f ff
	ff		 lea	 ecx, DWORD PTR _kPacket$548248[ebp]
  00006	e9 00 00 00 00	 jmp	 ??1SP2Packet@@UAE@XZ	; SP2Packet::~SP2Packet
__ehhandler$?OnProcessState@ioFireSkill2@@UAEXPAVioBaseChar@@PAVioPlayStage@@@Z:
  0000b	8b 54 24 08	 mov	 edx, DWORD PTR [esp+8]
  0000f	8d 42 0c	 lea	 eax, DWORD PTR [edx+12]
  00012	8b 8a c8 7f ff
	ff		 mov	 ecx, DWORD PTR [edx-32824]
  00018	33 c8		 xor	 ecx, eax
  0001a	e8 00 00 00 00	 call	 @__security_check_cookie@4
  0001f	8b 4a fc	 mov	 ecx, DWORD PTR [edx-4]
  00022	33 c8		 xor	 ecx, eax
  00024	e8 00 00 00 00	 call	 @__security_check_cookie@4
  00029	b8 00 00 00 00	 mov	 eax, OFFSET __ehfuncinfo$?OnProcessState@ioFireSkill2@@UAEXPAVioBaseChar@@PAVioPlayStage@@@Z
  0002e	e9 00 00 00 00	 jmp	 ___CxxFrameHandler3
text$x	ENDS
?OnProcessState@ioFireSkill2@@UAEXPAVioBaseChar@@PAVioPlayStage@@@Z ENDP ; ioFireSkill2::OnProcessState
END
