; Listing generated by Microsoft (R) Optimizing Compiler Version 16.00.30319.01 

	TITLE	D:\Lost Saga For Developer\Youtube\Tutorial\Source\src\LSClient\ioFieldRewardItem.cpp
	.686P
	.XMM
	include listing.inc
	.model	flat

INCLUDELIB MSVCRT
INCLUDELIB OLDNAMES

PUBLIC	?_EEM_DS@?$deque@UD3DXVECTOR3@@V?$allocator@UD3DXVECTOR3@@@std@@@std@@2HB ; std::deque<D3DXVECTOR3,std::allocator<D3DXVECTOR3> >::_EEM_DS
;	COMDAT ?_EEM_DS@?$deque@UD3DXVECTOR3@@V?$allocator@UD3DXVECTOR3@@@std@@@std@@2HB
CONST	SEGMENT
?_EEM_DS@?$deque@UD3DXVECTOR3@@V?$allocator@UD3DXVECTOR3@@@std@@@std@@2HB DD 01H ; std::deque<D3DXVECTOR3,std::allocator<D3DXVECTOR3> >::_EEM_DS
CONST	ENDS
PUBLIC	?return1@@YAIXZ					; return1
; Function compile flags: /Ogsp
; File d:\lost saga for developer\youtube\tutorial\source\src\lsclient\stdafx.h
;	COMDAT ?return1@@YAIXZ
_TEXT	SEGMENT
?return1@@YAIXZ PROC					; return1, COMDAT

; 17   : 	__forceinline unsigned int return1() { __asm mov eax, 1 };

  00000	b8 01 00 00 00	 mov	 eax, 1
  00005	c3		 ret	 0
?return1@@YAIXZ ENDP					; return1
_TEXT	ENDS
PUBLIC	?return5@@YAIXZ					; return5
; Function compile flags: /Ogsp
;	COMDAT ?return5@@YAIXZ
_TEXT	SEGMENT
?return5@@YAIXZ PROC					; return5, COMDAT

; 18   : 	__forceinline unsigned int return5() { __asm mov eax, 5 };

  00000	b8 05 00 00 00	 mov	 eax, 5
  00005	c3		 ret	 0
?return5@@YAIXZ ENDP					; return5
_TEXT	ENDS
PUBLIC	?return10@@YAIXZ				; return10
; Function compile flags: /Ogsp
;	COMDAT ?return10@@YAIXZ
_TEXT	SEGMENT
?return10@@YAIXZ PROC					; return10, COMDAT

; 21   : 	__forceinline unsigned int return10() { __asm mov eax, 10 };

  00000	b8 0a 00 00 00	 mov	 eax, 10			; 0000000aH
  00005	c3		 ret	 0
?return10@@YAIXZ ENDP					; return10
_TEXT	ENDS
PUBLIC	?return1000@@YAIXZ				; return1000
; Function compile flags: /Ogsp
;	COMDAT ?return1000@@YAIXZ
_TEXT	SEGMENT
?return1000@@YAIXZ PROC					; return1000, COMDAT

; 29   : 	__forceinline unsigned int return1000() { __asm mov eax, 1000 };

  00000	b8 e8 03 00 00	 mov	 eax, 1000		; 000003e8H
  00005	c3		 ret	 0
?return1000@@YAIXZ ENDP					; return1000
_TEXT	ENDS
PUBLIC	?UpdateAfter@ioFieldRewardItem@@UAEXM@Z		; ioFieldRewardItem::UpdateAfter
EXTRN	?UpdateAfter@ioGameEntity@@UAEXM@Z:PROC		; ioGameEntity::UpdateAfter
EXTRN	__imp_?GetEffect@ioEffectFactory@@QAEPAVioEffect@@K@Z:PROC
EXTRN	__imp_?GetSingleton@ioEffectFactory@@SAAAV1@XZ:PROC
EXTRN	__fltused:DWORD
; Function compile flags: /Ogsp
; File d:\lost saga for developer\youtube\tutorial\source\src\lsclient\iofieldrewarditem.cpp
;	COMDAT ?UpdateAfter@ioFieldRewardItem@@UAEXM@Z
_TEXT	SEGMENT
_fFrameGap$ = 8						; size = 4
?UpdateAfter@ioFieldRewardItem@@UAEXM@Z PROC		; ioFieldRewardItem::UpdateAfter, COMDAT
; _this$ = ecx

; 71   : {

  00000	55		 push	 ebp
  00001	8b ec		 mov	 ebp, esp
  00003	53		 push	 ebx
  00004	56		 push	 esi
  00005	57		 push	 edi

; 72   : 	ioEffect *pItemEffect = g_EffectFactory.GetEffect( m_ItemEffect );

  00006	8b 3d 00 00 00
	00		 mov	 edi, DWORD PTR __imp_?GetSingleton@ioEffectFactory@@SAAAV1@XZ
  0000c	8b f1		 mov	 esi, ecx
  0000e	ff b6 cc 01 00
	00		 push	 DWORD PTR [esi+460]
  00014	ff d7		 call	 edi
  00016	8b 1d 00 00 00
	00		 mov	 ebx, DWORD PTR __imp_?GetEffect@ioEffectFactory@@QAEPAVioEffect@@K@Z
  0001c	8b c8		 mov	 ecx, eax
  0001e	ff d3		 call	 ebx

; 73   : 	if( pItemEffect )

  00020	85 c0		 test	 eax, eax
  00022	74 13		 je	 SHORT $LN4@UpdateAfte

; 74   : 		pItemEffect->Update( fFrameGap );

  00024	f3 0f 10 45 08	 movss	 xmm0, DWORD PTR _fFrameGap$[ebp]
  00029	8d 48 14	 lea	 ecx, DWORD PTR [eax+20]
  0002c	8b 01		 mov	 eax, DWORD PTR [ecx]
  0002e	51		 push	 ecx
  0002f	f3 0f 11 04 24	 movss	 DWORD PTR [esp], xmm0
  00034	ff 50 40	 call	 DWORD PTR [eax+64]
$LN4@UpdateAfte:

; 75   : 
; 76   : 	ioEffect *pPickEnableEffect = g_EffectFactory.GetEffect( m_PickEnableEffect );

  00037	ff b6 d0 01 00
	00		 push	 DWORD PTR [esi+464]
  0003d	ff d7		 call	 edi
  0003f	8b c8		 mov	 ecx, eax
  00041	ff d3		 call	 ebx

; 77   : 	if( pPickEnableEffect )

  00043	85 c0		 test	 eax, eax
  00045	74 13		 je	 SHORT $LN3@UpdateAfte

; 78   : 		pPickEnableEffect->Update( fFrameGap );

  00047	f3 0f 10 45 08	 movss	 xmm0, DWORD PTR _fFrameGap$[ebp]
  0004c	8d 48 14	 lea	 ecx, DWORD PTR [eax+20]
  0004f	8b 01		 mov	 eax, DWORD PTR [ecx]
  00051	51		 push	 ecx
  00052	f3 0f 11 04 24	 movss	 DWORD PTR [esp], xmm0
  00057	ff 50 40	 call	 DWORD PTR [eax+64]
$LN3@UpdateAfte:

; 79   : 
; 80   : 	ioEffect *pDropEffect = g_EffectFactory.GetEffect( m_CreateDropEffect );

  0005a	ff b6 d4 01 00
	00		 push	 DWORD PTR [esi+468]
  00060	ff d7		 call	 edi
  00062	8b c8		 mov	 ecx, eax
  00064	ff d3		 call	 ebx

; 81   : 	if( pDropEffect )

  00066	85 c0		 test	 eax, eax
  00068	74 13		 je	 SHORT $LN2@UpdateAfte

; 82   : 		pDropEffect->Update( fFrameGap );

  0006a	f3 0f 10 45 08	 movss	 xmm0, DWORD PTR _fFrameGap$[ebp]
  0006f	8d 48 14	 lea	 ecx, DWORD PTR [eax+20]
  00072	8b 01		 mov	 eax, DWORD PTR [ecx]
  00074	51		 push	 ecx
  00075	f3 0f 11 04 24	 movss	 DWORD PTR [esp], xmm0
  0007a	ff 50 40	 call	 DWORD PTR [eax+64]
$LN2@UpdateAfte:

; 83   : 
; 84   : 
; 85   : 	if( m_pGroup )

  0007d	83 7e 04 00	 cmp	 DWORD PTR [esi+4], 0
  00081	74 13		 je	 SHORT $LN1@UpdateAfte

; 86   : 	{
; 87   : 		m_pGroup->Update( fFrameGap );

  00083	8b 4e 04	 mov	 ecx, DWORD PTR [esi+4]
  00086	f3 0f 10 45 08	 movss	 xmm0, DWORD PTR _fFrameGap$[ebp]
  0008b	8b 01		 mov	 eax, DWORD PTR [ecx]
  0008d	51		 push	 ecx
  0008e	f3 0f 11 04 24	 movss	 DWORD PTR [esp], xmm0
  00093	ff 50 40	 call	 DWORD PTR [eax+64]
$LN1@UpdateAfte:

; 88   : 	}
; 89   : 
; 90   : 	ioGameEntity::UpdateAfter( fFrameGap );

  00096	f3 0f 10 45 08	 movss	 xmm0, DWORD PTR _fFrameGap$[ebp]
  0009b	51		 push	 ecx
  0009c	8b ce		 mov	 ecx, esi
  0009e	f3 0f 11 04 24	 movss	 DWORD PTR [esp], xmm0
  000a3	e8 00 00 00 00	 call	 ?UpdateAfter@ioGameEntity@@UAEXM@Z ; ioGameEntity::UpdateAfter
  000a8	5f		 pop	 edi
  000a9	5e		 pop	 esi
  000aa	5b		 pop	 ebx

; 91   : }

  000ab	5d		 pop	 ebp
  000ac	c2 04 00	 ret	 4
?UpdateAfter@ioFieldRewardItem@@UAEXM@Z ENDP		; ioFieldRewardItem::UpdateAfter
_TEXT	ENDS
PUBLIC	?IsNeedCheckMapCollision@ioFieldRewardItem@@UBE_NXZ ; ioFieldRewardItem::IsNeedCheckMapCollision
; Function compile flags: /Ogsp
;	COMDAT ?IsNeedCheckMapCollision@ioFieldRewardItem@@UBE_NXZ
_TEXT	SEGMENT
?IsNeedCheckMapCollision@ioFieldRewardItem@@UBE_NXZ PROC ; ioFieldRewardItem::IsNeedCheckMapCollision, COMDAT
; _this$ = ecx

; 95   : 	return true;

  00000	b0 01		 mov	 al, 1

; 96   : }

  00002	c3		 ret	 0
?IsNeedCheckMapCollision@ioFieldRewardItem@@UBE_NXZ ENDP ; ioFieldRewardItem::IsNeedCheckMapCollision
_TEXT	ENDS
PUBLIC	?UpdateBottomHeight@ioFieldRewardItem@@MBEXXZ	; ioFieldRewardItem::UpdateBottomHeight
EXTRN	?GetMapHeight@ioPlayMode@@QBEMMMPBVioGameEntity@@_N@Z:PROC ; ioPlayMode::GetMapHeight
; Function compile flags: /Ogsp
;	COMDAT ?UpdateBottomHeight@ioFieldRewardItem@@MBEXXZ
_TEXT	SEGMENT
_vCurPos$ = -12						; size = 12
?UpdateBottomHeight@ioFieldRewardItem@@MBEXXZ PROC	; ioFieldRewardItem::UpdateBottomHeight, COMDAT
; _this$ = ecx

; 117  : {

  00000	55		 push	 ebp
  00001	8b ec		 mov	 ebp, esp
  00003	83 ec 0c	 sub	 esp, 12			; 0000000cH
  00006	53		 push	 ebx
  00007	56		 push	 esi
  00008	8b d9		 mov	 ebx, ecx

; 118  : 	D3DXVECTOR3 vCurPos = GetWorldPosition();

  0000a	8b 03		 mov	 eax, DWORD PTR [ebx]
  0000c	57		 push	 edi
  0000d	ff 50 70	 call	 DWORD PTR [eax+112]
  00010	8b f0		 mov	 esi, eax
  00012	8d 7d f4	 lea	 edi, DWORD PTR _vCurPos$[ebp]
  00015	a5		 movsd

; 119  : 	m_fCurBottomHeight = m_pModeParent->GetMapHeight( vCurPos.x, vCurPos.z, this );

  00016	6a 01		 push	 1
  00018	a5		 movsd
  00019	53		 push	 ebx
  0001a	51		 push	 ecx
  0001b	51		 push	 ecx
  0001c	8b 8b 8c 00 00
	00		 mov	 ecx, DWORD PTR [ebx+140]
  00022	a5		 movsd
  00023	f3 0f 10 45 fc	 movss	 xmm0, DWORD PTR _vCurPos$[ebp+8]
  00028	f3 0f 11 44 24
	04		 movss	 DWORD PTR [esp+4], xmm0
  0002e	f3 0f 10 45 f4	 movss	 xmm0, DWORD PTR _vCurPos$[ebp]
  00033	f3 0f 11 04 24	 movss	 DWORD PTR [esp], xmm0
  00038	e8 00 00 00 00	 call	 ?GetMapHeight@ioPlayMode@@QBEMMMPBVioGameEntity@@_N@Z ; ioPlayMode::GetMapHeight
  0003d	d9 9b 84 00 00
	00		 fstp	 DWORD PTR [ebx+132]
  00043	5f		 pop	 edi
  00044	5e		 pop	 esi
  00045	5b		 pop	 ebx

; 120  : }

  00046	c9		 leave
  00047	c3		 ret	 0
?UpdateBottomHeight@ioFieldRewardItem@@MBEXXZ ENDP	; ioFieldRewardItem::UpdateBottomHeight
_TEXT	ENDS
PUBLIC	?ApplyWeapon@ioFieldRewardItem@@UAE?AW4ApplyWeaponExp@@PAVioWeapon@@@Z ; ioFieldRewardItem::ApplyWeapon
; Function compile flags: /Ogsp
;	COMDAT ?ApplyWeapon@ioFieldRewardItem@@UAE?AW4ApplyWeaponExp@@PAVioWeapon@@@Z
_TEXT	SEGMENT
_pWeapon$ = 8						; size = 4
?ApplyWeapon@ioFieldRewardItem@@UAE?AW4ApplyWeaponExp@@PAVioWeapon@@@Z PROC ; ioFieldRewardItem::ApplyWeapon, COMDAT
; _this$ = ecx

; 124  : 	return AWE_NO_EXPLOSION;

  00000	33 c0		 xor	 eax, eax

; 125  : }

  00002	c2 04 00	 ret	 4
?ApplyWeapon@ioFieldRewardItem@@UAE?AW4ApplyWeaponExp@@PAVioWeapon@@@Z ENDP ; ioFieldRewardItem::ApplyWeapon
_TEXT	ENDS
PUBLIC	?IsCollisionAvailableWeapon@ioFieldRewardItem@@UAE_NPAVioWeapon@@@Z ; ioFieldRewardItem::IsCollisionAvailableWeapon
; Function compile flags: /Ogsp
;	COMDAT ?IsCollisionAvailableWeapon@ioFieldRewardItem@@UAE_NPAVioWeapon@@@Z
_TEXT	SEGMENT
_pWeapon$ = 8						; size = 4
?IsCollisionAvailableWeapon@ioFieldRewardItem@@UAE_NPAVioWeapon@@@Z PROC ; ioFieldRewardItem::IsCollisionAvailableWeapon, COMDAT
; _this$ = ecx

; 129  : 	return false;

  00000	32 c0		 xor	 al, al

; 130  : }

  00002	c2 04 00	 ret	 4
?IsCollisionAvailableWeapon@ioFieldRewardItem@@UAE_NPAVioWeapon@@@Z ENDP ; ioFieldRewardItem::IsCollisionAvailableWeapon
_TEXT	ENDS
PUBLIC	?IsWoundedCollision@ioFieldRewardItem@@UBE_NABVioOrientBox@@PAUD3DXVECTOR3@@@Z ; ioFieldRewardItem::IsWoundedCollision
; Function compile flags: /Ogsp
;	COMDAT ?IsWoundedCollision@ioFieldRewardItem@@UBE_NABVioOrientBox@@PAUD3DXVECTOR3@@@Z
_TEXT	SEGMENT
_rkAttackBox$ = 8					; size = 4
_pColPoint$ = 12					; size = 4
?IsWoundedCollision@ioFieldRewardItem@@UBE_NABVioOrientBox@@PAUD3DXVECTOR3@@@Z PROC ; ioFieldRewardItem::IsWoundedCollision, COMDAT
; _this$ = ecx

; 134  : 	return false;

  00000	32 c0		 xor	 al, al

; 135  : }

  00002	c2 08 00	 ret	 8
?IsWoundedCollision@ioFieldRewardItem@@UBE_NABVioOrientBox@@PAUD3DXVECTOR3@@@Z ENDP ; ioFieldRewardItem::IsWoundedCollision
_TEXT	ENDS
PUBLIC	?GetSubType@ioFieldRewardItem@@UBE?AW4PlaySubType@ioPlayEntity@@XZ ; ioFieldRewardItem::GetSubType
; Function compile flags: /Ogsp
;	COMDAT ?GetSubType@ioFieldRewardItem@@UBE?AW4PlaySubType@ioPlayEntity@@XZ
_TEXT	SEGMENT
?GetSubType@ioFieldRewardItem@@UBE?AW4PlaySubType@ioPlayEntity@@XZ PROC ; ioFieldRewardItem::GetSubType, COMDAT
; _this$ = ecx

; 139  : 	return PST_FIELD_REWARD_ITEM;

  00000	6a 0c		 push	 12			; 0000000cH
  00002	58		 pop	 eax

; 140  : }

  00003	c3		 ret	 0
?GetSubType@ioFieldRewardItem@@UBE?AW4PlaySubType@ioPlayEntity@@XZ ENDP ; ioFieldRewardItem::GetSubType
_TEXT	ENDS
PUBLIC	?GetArmorType@ioFieldRewardItem@@UBE?AW4ArmorType@@XZ ; ioFieldRewardItem::GetArmorType
; Function compile flags: /Ogsp
;	COMDAT ?GetArmorType@ioFieldRewardItem@@UBE?AW4ArmorType@@XZ
_TEXT	SEGMENT
?GetArmorType@ioFieldRewardItem@@UBE?AW4ArmorType@@XZ PROC ; ioFieldRewardItem::GetArmorType, COMDAT
; _this$ = ecx

; 144  : 	return AT_UNARMOR;

  00000	33 c0		 xor	 eax, eax

; 145  : }

  00002	c3		 ret	 0
?GetArmorType@ioFieldRewardItem@@UBE?AW4ArmorType@@XZ ENDP ; ioFieldRewardItem::GetArmorType
_TEXT	ENDS
PUBLIC	?GetWorldEventReceiver@ioFieldRewardItem@@UAEPAVioWorldEventReceiver@@XZ ; ioFieldRewardItem::GetWorldEventReceiver
; Function compile flags: /Ogsp
;	COMDAT ?GetWorldEventReceiver@ioFieldRewardItem@@UAEPAVioWorldEventReceiver@@XZ
_TEXT	SEGMENT
?GetWorldEventReceiver@ioFieldRewardItem@@UAEPAVioWorldEventReceiver@@XZ PROC ; ioFieldRewardItem::GetWorldEventReceiver, COMDAT
; _this$ = ecx

; 149  : 	return dynamic_cast<ioWorldEventReceiver*>(this);

  00000	85 c9		 test	 ecx, ecx
  00002	74 07		 je	 SHORT $LN3@GetWorldEv
  00004	8d 81 c8 01 00
	00		 lea	 eax, DWORD PTR [ecx+456]

; 150  : }

  0000a	c3		 ret	 0
$LN3@GetWorldEv:

; 149  : 	return dynamic_cast<ioWorldEventReceiver*>(this);

  0000b	33 c0		 xor	 eax, eax

; 150  : }

  0000d	c3		 ret	 0
?GetWorldEventReceiver@ioFieldRewardItem@@UAEPAVioWorldEventReceiver@@XZ ENDP ; ioFieldRewardItem::GetWorldEventReceiver
_TEXT	ENDS
PUBLIC	?OnFireZoneDamage@ioFieldRewardItem@@UAEXMABVioHashString@@@Z ; ioFieldRewardItem::OnFireZoneDamage
; Function compile flags: /Ogsp
;	COMDAT ?OnFireZoneDamage@ioFieldRewardItem@@UAEXMABVioHashString@@@Z
_TEXT	SEGMENT
_fDamage$ = 8						; size = 4
_szBuff$ = 12						; size = 4
?OnFireZoneDamage@ioFieldRewardItem@@UAEXMABVioHashString@@@Z PROC ; ioFieldRewardItem::OnFireZoneDamage, COMDAT
; _this$ = ecx

; 159  : 	// No Damage..
; 160  : }

  00000	c2 08 00	 ret	 8
?OnFireZoneDamage@ioFieldRewardItem@@UAEXMABVioHashString@@@Z ENDP ; ioFieldRewardItem::OnFireZoneDamage
_TEXT	ENDS
PUBLIC	?OnPoisonZoneDamage@ioFieldRewardItem@@UAEXXZ	; ioFieldRewardItem::OnPoisonZoneDamage
; Function compile flags: /Ogsp
;	COMDAT ?OnPoisonZoneDamage@ioFieldRewardItem@@UAEXXZ
_TEXT	SEGMENT
?OnPoisonZoneDamage@ioFieldRewardItem@@UAEXXZ PROC	; ioFieldRewardItem::OnPoisonZoneDamage, COMDAT
; _this$ = ecx

; 164  : }

  00000	c3		 ret	 0
?OnPoisonZoneDamage@ioFieldRewardItem@@UAEXXZ ENDP	; ioFieldRewardItem::OnPoisonZoneDamage
_TEXT	ENDS
PUBLIC	?ProcessHidding@ioFieldRewardItem@@IAEXXZ	; ioFieldRewardItem::ProcessHidding
EXTRN	__imp_?IsLive@ioEffect@@QBE_NXZ:PROC
; Function compile flags: /Ogsp
;	COMDAT ?ProcessHidding@ioFieldRewardItem@@IAEXXZ
_TEXT	SEGMENT
_pPickEnableEffect$ = -8				; size = 4
_pItemEffect$ = -4					; size = 4
?ProcessHidding@ioFieldRewardItem@@IAEXXZ PROC		; ioFieldRewardItem::ProcessHidding, COMDAT
; _this$ = ecx

; 295  : {

  00000	55		 push	 ebp
  00001	8b ec		 mov	 ebp, esp
  00003	51		 push	 ecx
  00004	51		 push	 ecx
  00005	53		 push	 ebx
  00006	8b d9		 mov	 ebx, ecx

; 296  : 	if( m_iCurAlphaRate != 0 )	return;

  00008	83 7b 08 00	 cmp	 DWORD PTR [ebx+8], 0
  0000c	75 78		 jne	 SHORT $LN5@ProcessHid

; 297  : 
; 298  : 	ioEffect *pItemEffect = g_EffectFactory.GetEffect( m_ItemEffect );

  0000e	56		 push	 esi
  0000f	8b 35 00 00 00
	00		 mov	 esi, DWORD PTR __imp_?GetSingleton@ioEffectFactory@@SAAAV1@XZ
  00015	57		 push	 edi
  00016	ff b3 cc 01 00
	00		 push	 DWORD PTR [ebx+460]
  0001c	ff d6		 call	 esi
  0001e	8b 3d 00 00 00
	00		 mov	 edi, DWORD PTR __imp_?GetEffect@ioEffectFactory@@QAEPAVioEffect@@K@Z
  00024	8b c8		 mov	 ecx, eax
  00026	ff d7		 call	 edi

; 299  : 	ioEffect *pPickEnableEffect = g_EffectFactory.GetEffect( m_PickEnableEffect );

  00028	ff b3 d0 01 00
	00		 push	 DWORD PTR [ebx+464]
  0002e	89 45 fc	 mov	 DWORD PTR _pItemEffect$[ebp], eax
  00031	ff d6		 call	 esi
  00033	8b c8		 mov	 ecx, eax
  00035	ff d7		 call	 edi

; 300  : 	ioEffect *pDropEffect = g_EffectFactory.GetEffect( m_CreateDropEffect );

  00037	ff b3 d4 01 00
	00		 push	 DWORD PTR [ebx+468]
  0003d	89 45 f8	 mov	 DWORD PTR _pPickEnableEffect$[ebp], eax
  00040	ff d6		 call	 esi
  00042	8b c8		 mov	 ecx, eax
  00044	ff d7		 call	 edi

; 301  : 
; 302  : 	if( pItemEffect && pItemEffect->IsLive() )

  00046	8b 4d fc	 mov	 ecx, DWORD PTR _pItemEffect$[ebp]
  00049	8b f0		 mov	 esi, eax
  0004b	85 c9		 test	 ecx, ecx
  0004d	74 0a		 je	 SHORT $LN3@ProcessHid
  0004f	ff 15 00 00 00
	00		 call	 DWORD PTR __imp_?IsLive@ioEffect@@QBE_NXZ
  00055	84 c0		 test	 al, al
  00057	75 2b		 jne	 SHORT $LN7@ProcessHid
$LN3@ProcessHid:

; 303  : 		return;
; 304  : 	if( pPickEnableEffect && pPickEnableEffect->IsLive() )

  00059	8b 4d f8	 mov	 ecx, DWORD PTR _pPickEnableEffect$[ebp]
  0005c	85 c9		 test	 ecx, ecx
  0005e	74 0a		 je	 SHORT $LN2@ProcessHid
  00060	ff 15 00 00 00
	00		 call	 DWORD PTR __imp_?IsLive@ioEffect@@QBE_NXZ
  00066	84 c0		 test	 al, al
  00068	75 1a		 jne	 SHORT $LN7@ProcessHid
$LN2@ProcessHid:

; 305  : 		return;
; 306  : 	if( pDropEffect && pDropEffect->IsLive() )

  0006a	85 f6		 test	 esi, esi
  0006c	74 0c		 je	 SHORT $LN1@ProcessHid
  0006e	8b ce		 mov	 ecx, esi
  00070	ff 15 00 00 00
	00		 call	 DWORD PTR __imp_?IsLive@ioEffect@@QBE_NXZ
  00076	84 c0		 test	 al, al
  00078	75 0a		 jne	 SHORT $LN7@ProcessHid
$LN1@ProcessHid:

; 307  : 		return;
; 308  : 
; 309  : 	m_ItemState = FIS_DESTROY;

  0007a	c7 83 d8 01 00
	00 03 00 00 00	 mov	 DWORD PTR [ebx+472], 3
$LN7@ProcessHid:
  00084	5f		 pop	 edi
  00085	5e		 pop	 esi
$LN5@ProcessHid:
  00086	5b		 pop	 ebx

; 310  : }

  00087	c9		 leave
  00088	c3		 ret	 0
?ProcessHidding@ioFieldRewardItem@@IAEXXZ ENDP		; ioFieldRewardItem::ProcessHidding
_TEXT	ENDS
PUBLIC	?DestroyItemEffect@ioFieldRewardItem@@QAEXXZ	; ioFieldRewardItem::DestroyItemEffect
EXTRN	__imp_?DestroyEffect@ioEffectFactory@@QAEXPAVioEffect@@@Z:PROC
; Function compile flags: /Ogsp
;	COMDAT ?DestroyItemEffect@ioFieldRewardItem@@QAEXXZ
_TEXT	SEGMENT
?DestroyItemEffect@ioFieldRewardItem@@QAEXXZ PROC	; ioFieldRewardItem::DestroyItemEffect, COMDAT
; _this$ = ecx

; 434  : {

  00000	53		 push	 ebx
  00001	56		 push	 esi
  00002	57		 push	 edi

; 435  : 	ioEffect *pItemEffect = g_EffectFactory.GetEffect( m_ItemEffect );

  00003	8b 3d 00 00 00
	00		 mov	 edi, DWORD PTR __imp_?GetSingleton@ioEffectFactory@@SAAAV1@XZ
  00009	8b f1		 mov	 esi, ecx
  0000b	ff b6 cc 01 00
	00		 push	 DWORD PTR [esi+460]
  00011	ff d7		 call	 edi
  00013	8b c8		 mov	 ecx, eax
  00015	ff 15 00 00 00
	00		 call	 DWORD PTR __imp_?GetEffect@ioEffectFactory@@QAEPAVioEffect@@K@Z
  0001b	8b d8		 mov	 ebx, eax

; 436  : 
; 437  : 	if( pItemEffect )

  0001d	85 db		 test	 ebx, ebx
  0001f	74 28		 je	 SHORT $LN1@DestroyIte

; 438  : 	{
; 439  : 		m_pGroup->GetParentSceneNode()->DetachObject( pItemEffect );

  00021	8b 4e 04	 mov	 ecx, DWORD PTR [esi+4]
  00024	8b 01		 mov	 eax, DWORD PTR [ecx]
  00026	ff 50 34	 call	 DWORD PTR [eax+52]
  00029	8b 10		 mov	 edx, DWORD PTR [eax]
  0002b	8d 4b 14	 lea	 ecx, DWORD PTR [ebx+20]
  0002e	51		 push	 ecx
  0002f	8b c8		 mov	 ecx, eax
  00031	ff 92 b8 00 00
	00		 call	 DWORD PTR [edx+184]

; 440  : 		g_EffectFactory.DestroyEffect( pItemEffect );

  00037	53		 push	 ebx
  00038	ff d7		 call	 edi
  0003a	8b c8		 mov	 ecx, eax
  0003c	ff 15 00 00 00
	00		 call	 DWORD PTR __imp_?DestroyEffect@ioEffectFactory@@QAEXPAVioEffect@@@Z

; 441  : 		pItemEffect = NULL;
; 442  : 		m_ItemEffect = -1;

  00042	83 8e cc 01 00
	00 ff		 or	 DWORD PTR [esi+460], -1
$LN1@DestroyIte:

; 443  : 	}
; 444  : }

  00049	5f		 pop	 edi
  0004a	5e		 pop	 esi
  0004b	5b		 pop	 ebx
  0004c	c3		 ret	 0
?DestroyItemEffect@ioFieldRewardItem@@QAEXXZ ENDP	; ioFieldRewardItem::DestroyItemEffect
_TEXT	ENDS
PUBLIC	?DestroyDropEffect@ioFieldRewardItem@@QAEXXZ	; ioFieldRewardItem::DestroyDropEffect
; Function compile flags: /Ogsp
;	COMDAT ?DestroyDropEffect@ioFieldRewardItem@@QAEXXZ
_TEXT	SEGMENT
?DestroyDropEffect@ioFieldRewardItem@@QAEXXZ PROC	; ioFieldRewardItem::DestroyDropEffect, COMDAT
; _this$ = ecx

; 447  : {

  00000	53		 push	 ebx
  00001	56		 push	 esi
  00002	57		 push	 edi

; 448  : 	ioEffect *pDropEffect = g_EffectFactory.GetEffect( m_CreateDropEffect );

  00003	8b 3d 00 00 00
	00		 mov	 edi, DWORD PTR __imp_?GetSingleton@ioEffectFactory@@SAAAV1@XZ
  00009	8b f1		 mov	 esi, ecx
  0000b	ff b6 d4 01 00
	00		 push	 DWORD PTR [esi+468]
  00011	ff d7		 call	 edi
  00013	8b c8		 mov	 ecx, eax
  00015	ff 15 00 00 00
	00		 call	 DWORD PTR __imp_?GetEffect@ioEffectFactory@@QAEPAVioEffect@@K@Z
  0001b	8b d8		 mov	 ebx, eax

; 449  : 
; 450  : 	if( pDropEffect )

  0001d	85 db		 test	 ebx, ebx
  0001f	74 28		 je	 SHORT $LN1@DestroyDro

; 451  : 	{
; 452  : 		m_pGroup->GetParentSceneNode()->DetachObject( pDropEffect );

  00021	8b 4e 04	 mov	 ecx, DWORD PTR [esi+4]
  00024	8b 01		 mov	 eax, DWORD PTR [ecx]
  00026	ff 50 34	 call	 DWORD PTR [eax+52]
  00029	8b 10		 mov	 edx, DWORD PTR [eax]
  0002b	8d 4b 14	 lea	 ecx, DWORD PTR [ebx+20]
  0002e	51		 push	 ecx
  0002f	8b c8		 mov	 ecx, eax
  00031	ff 92 b8 00 00
	00		 call	 DWORD PTR [edx+184]

; 453  : 		g_EffectFactory.DestroyEffect( pDropEffect );

  00037	53		 push	 ebx
  00038	ff d7		 call	 edi
  0003a	8b c8		 mov	 ecx, eax
  0003c	ff 15 00 00 00
	00		 call	 DWORD PTR __imp_?DestroyEffect@ioEffectFactory@@QAEXPAVioEffect@@@Z

; 454  : 		pDropEffect = NULL;
; 455  : 		m_CreateDropEffect = -1;

  00042	83 8e d4 01 00
	00 ff		 or	 DWORD PTR [esi+468], -1
$LN1@DestroyDro:

; 456  : 	}
; 457  : }

  00049	5f		 pop	 edi
  0004a	5e		 pop	 esi
  0004b	5b		 pop	 ebx
  0004c	c3		 ret	 0
?DestroyDropEffect@ioFieldRewardItem@@QAEXXZ ENDP	; ioFieldRewardItem::DestroyDropEffect
_TEXT	ENDS
PUBLIC	?DestroyPickEnableEffect@ioFieldRewardItem@@QAEXXZ ; ioFieldRewardItem::DestroyPickEnableEffect
; Function compile flags: /Ogsp
;	COMDAT ?DestroyPickEnableEffect@ioFieldRewardItem@@QAEXXZ
_TEXT	SEGMENT
?DestroyPickEnableEffect@ioFieldRewardItem@@QAEXXZ PROC	; ioFieldRewardItem::DestroyPickEnableEffect, COMDAT
; _this$ = ecx

; 460  : {

  00000	53		 push	 ebx
  00001	56		 push	 esi
  00002	57		 push	 edi

; 461  : 	ioEffect *pPickEnableEffect = g_EffectFactory.GetEffect( m_PickEnableEffect );

  00003	8b 3d 00 00 00
	00		 mov	 edi, DWORD PTR __imp_?GetSingleton@ioEffectFactory@@SAAAV1@XZ
  00009	8b f1		 mov	 esi, ecx
  0000b	ff b6 d0 01 00
	00		 push	 DWORD PTR [esi+464]
  00011	ff d7		 call	 edi
  00013	8b c8		 mov	 ecx, eax
  00015	ff 15 00 00 00
	00		 call	 DWORD PTR __imp_?GetEffect@ioEffectFactory@@QAEPAVioEffect@@K@Z
  0001b	8b d8		 mov	 ebx, eax

; 462  : 
; 463  : 	if( pPickEnableEffect )

  0001d	85 db		 test	 ebx, ebx
  0001f	74 28		 je	 SHORT $LN1@DestroyPic

; 464  : 	{
; 465  : 		m_pGroup->GetParentSceneNode()->DetachObject( pPickEnableEffect );

  00021	8b 4e 04	 mov	 ecx, DWORD PTR [esi+4]
  00024	8b 01		 mov	 eax, DWORD PTR [ecx]
  00026	ff 50 34	 call	 DWORD PTR [eax+52]
  00029	8b 10		 mov	 edx, DWORD PTR [eax]
  0002b	8d 4b 14	 lea	 ecx, DWORD PTR [ebx+20]
  0002e	51		 push	 ecx
  0002f	8b c8		 mov	 ecx, eax
  00031	ff 92 b8 00 00
	00		 call	 DWORD PTR [edx+184]

; 466  : 		g_EffectFactory.DestroyEffect( pPickEnableEffect );

  00037	53		 push	 ebx
  00038	ff d7		 call	 edi
  0003a	8b c8		 mov	 ecx, eax
  0003c	ff 15 00 00 00
	00		 call	 DWORD PTR __imp_?DestroyEffect@ioEffectFactory@@QAEXPAVioEffect@@@Z

; 467  : 		pPickEnableEffect = NULL;
; 468  : 		m_PickEnableEffect = -1;

  00042	83 8e d0 01 00
	00 ff		 or	 DWORD PTR [esi+464], -1
$LN1@DestroyPic:

; 469  : 	}
; 470  : }

  00049	5f		 pop	 edi
  0004a	5e		 pop	 esi
  0004b	5b		 pop	 ebx
  0004c	c3		 ret	 0
?DestroyPickEnableEffect@ioFieldRewardItem@@QAEXXZ ENDP	; ioFieldRewardItem::DestroyPickEnableEffect
_TEXT	ENDS
PUBLIC	?ReserveHiding@ioFieldRewardItem@@QAEXXZ	; ioFieldRewardItem::ReserveHiding
; Function compile flags: /Ogsp
;	COMDAT ?ReserveHiding@ioFieldRewardItem@@QAEXXZ
_TEXT	SEGMENT
?ReserveHiding@ioFieldRewardItem@@QAEXXZ PROC		; ioFieldRewardItem::ReserveHiding, COMDAT
; _this$ = ecx

; 474  : 	m_ReserveNext = RN_HIDE;

  00000	c7 81 dc 01 00
	00 03 00 00 00	 mov	 DWORD PTR [ecx+476], 3

; 475  : }

  0000a	c3		 ret	 0
?ReserveHiding@ioFieldRewardItem@@QAEXXZ ENDP		; ioFieldRewardItem::ReserveHiding
_TEXT	ENDS
PUBLIC	?ReserveDropHiding@ioFieldRewardItem@@QAEXXZ	; ioFieldRewardItem::ReserveDropHiding
; Function compile flags: /Ogsp
;	COMDAT ?ReserveDropHiding@ioFieldRewardItem@@QAEXXZ
_TEXT	SEGMENT
?ReserveDropHiding@ioFieldRewardItem@@QAEXXZ PROC	; ioFieldRewardItem::ReserveDropHiding, COMDAT
; _this$ = ecx

; 479  : 	m_ReserveNext = RN_DROP_HIDE;

  00000	c7 81 dc 01 00
	00 02 00 00 00	 mov	 DWORD PTR [ecx+476], 2

; 480  : }

  0000a	c3		 ret	 0
?ReserveDropHiding@ioFieldRewardItem@@QAEXXZ ENDP	; ioFieldRewardItem::ReserveDropHiding
_TEXT	ENDS
PUBLIC	?SetDestroy@ioFieldRewardItem@@QAEXXZ		; ioFieldRewardItem::SetDestroy
; Function compile flags: /Ogsp
;	COMDAT ?SetDestroy@ioFieldRewardItem@@QAEXXZ
_TEXT	SEGMENT
?SetDestroy@ioFieldRewardItem@@QAEXXZ PROC		; ioFieldRewardItem::SetDestroy, COMDAT
; _this$ = ecx

; 484  : 	m_ItemState = FIS_DESTROY;

  00000	c7 81 d8 01 00
	00 03 00 00 00	 mov	 DWORD PTR [ecx+472], 3

; 485  : }

  0000a	c3		 ret	 0
?SetDestroy@ioFieldRewardItem@@QAEXXZ ENDP		; ioFieldRewardItem::SetDestroy
_TEXT	ENDS
PUBLIC	__real@453b8000
PUBLIC	__real@44480000
PUBLIC	?SetDropState@ioFieldRewardItem@@QAEXABUD3DXVECTOR3@@@Z ; ioFieldRewardItem::SetDropState
EXTRN	__imp_?GetLoopSec@ioFrameTimer@@QBEKXZ:PROC
EXTRN	__imp_?GetSingleton@ioFrameTimer@@SAAAV1@XZ:PROC
;	COMDAT __real@453b8000
CONST	SEGMENT
__real@453b8000 DD 0453b8000r			; 3000
CONST	ENDS
;	COMDAT __real@44480000
CONST	SEGMENT
__real@44480000 DD 044480000r			; 800
; Function compile flags: /Ogsp
CONST	ENDS
;	COMDAT ?SetDropState@ioFieldRewardItem@@QAEXABUD3DXVECTOR3@@@Z
_TEXT	SEGMENT
_vStartPos$ = 8						; size = 4
?SetDropState@ioFieldRewardItem@@QAEXABUD3DXVECTOR3@@@Z PROC ; ioFieldRewardItem::SetDropState, COMDAT
; _this$ = ecx

; 488  : {

  00000	55		 push	 ebp
  00001	8b ec		 mov	 ebp, esp
  00003	56		 push	 esi
  00004	8b f1		 mov	 esi, ecx

; 489  : 	if( m_ItemState == FIS_DROP || m_ItemState == FIS_HIDE || m_ItemState == FIS_DESTROY )

  00006	8b 86 d8 01 00
	00		 mov	 eax, DWORD PTR [esi+472]
  0000c	83 f8 01	 cmp	 eax, 1
  0000f	74 5e		 je	 SHORT $LN1@SetDropSta
  00011	83 f8 02	 cmp	 eax, 2
  00014	74 59		 je	 SHORT $LN1@SetDropSta
  00016	83 f8 03	 cmp	 eax, 3
  00019	74 54		 je	 SHORT $LN1@SetDropSta

; 490  : 		return;
; 491  : 
; 492  : 	SetWorldPosition( vStartPos );

  0001b	ff 75 08	 push	 DWORD PTR _vStartPos$[ebp]
  0001e	8b 06		 mov	 eax, DWORD PTR [esi]
  00020	ff 50 44	 call	 DWORD PTR [eax+68]

; 493  : 
; 494  : 	m_ItemState = FIS_DROP;
; 495  : 	m_fDropPower = 800.0f;

  00023	f3 0f 10 05 00
	00 00 00	 movss	 xmm0, DWORD PTR __real@44480000
  0002b	f3 0f 11 86 ec
	01 00 00	 movss	 DWORD PTR [esi+492], xmm0

; 496  : 	m_fDropFriction = 3000.0f;

  00033	f3 0f 10 05 00
	00 00 00	 movss	 xmm0, DWORD PTR __real@453b8000
  0003b	c7 86 d8 01 00
	00 01 00 00 00	 mov	 DWORD PTR [esi+472], 1
  00045	f3 0f 11 86 f0
	01 00 00	 movss	 DWORD PTR [esi+496], xmm0

; 497  : 
; 498  : 	m_dwDropTime = FRAMEGETTIME();

  0004d	ff 15 00 00 00
	00		 call	 DWORD PTR __imp_?GetSingleton@ioFrameTimer@@SAAAV1@XZ
  00053	8b c8		 mov	 ecx, eax
  00055	ff 15 00 00 00
	00		 call	 DWORD PTR __imp_?GetLoopSec@ioFrameTimer@@QBEKXZ

; 499  : 
; 500  : 	DestroyItemEffect();

  0005b	8b ce		 mov	 ecx, esi
  0005d	89 86 00 02 00
	00		 mov	 DWORD PTR [esi+512], eax
  00063	e8 00 00 00 00	 call	 ?DestroyItemEffect@ioFieldRewardItem@@QAEXXZ ; ioFieldRewardItem::DestroyItemEffect

; 501  : 	DestroyPickEnableEffect();

  00068	8b ce		 mov	 ecx, esi
  0006a	e8 00 00 00 00	 call	 ?DestroyPickEnableEffect@ioFieldRewardItem@@QAEXXZ ; ioFieldRewardItem::DestroyPickEnableEffect
$LN1@SetDropSta:
  0006f	5e		 pop	 esi

; 502  : }

  00070	5d		 pop	 ebp
  00071	c2 04 00	 ret	 4
?SetDropState@ioFieldRewardItem@@QAEXABUD3DXVECTOR3@@@Z ENDP ; ioFieldRewardItem::SetDropState
_TEXT	ENDS
PUBLIC	?SetMoveDropState@ioFieldRewardItem@@QAEXABUD3DXVECTOR3@@0M@Z ; ioFieldRewardItem::SetMoveDropState
; Function compile flags: /Ogsp
;	COMDAT ?SetMoveDropState@ioFieldRewardItem@@QAEXABUD3DXVECTOR3@@0M@Z
_TEXT	SEGMENT
_vStartPos$ = 8						; size = 4
_vTargetPos$ = 12					; size = 4
_fMoveSpeed$ = 16					; size = 4
?SetMoveDropState@ioFieldRewardItem@@QAEXABUD3DXVECTOR3@@0M@Z PROC ; ioFieldRewardItem::SetMoveDropState, COMDAT
; _this$ = ecx

; 505  : {

  00000	55		 push	 ebp
  00001	8b ec		 mov	 ebp, esp
  00003	53		 push	 ebx
  00004	8b d9		 mov	 ebx, ecx

; 506  : 	if( m_ItemState == FIS_DROP || m_ItemState == FIS_HIDE || m_ItemState == FIS_DESTROY )

  00006	8b 83 d8 01 00
	00		 mov	 eax, DWORD PTR [ebx+472]
  0000c	83 f8 01	 cmp	 eax, 1
  0000f	74 5b		 je	 SHORT $LN1@SetMoveDro
  00011	83 f8 02	 cmp	 eax, 2
  00014	74 56		 je	 SHORT $LN1@SetMoveDro
  00016	83 f8 03	 cmp	 eax, 3
  00019	74 51		 je	 SHORT $LN1@SetMoveDro

; 507  : 		return;
; 508  : 
; 509  : 	m_vTargetPos = vTargetPos;
; 510  : 	m_fMoveSpeed = fMoveSpeed;

  0001b	f3 0f 10 45 10	 movss	 xmm0, DWORD PTR _fMoveSpeed$[ebp]

; 511  : 
; 512  : 	SetWorldPosition( vStartPos );

  00020	8b 03		 mov	 eax, DWORD PTR [ebx]
  00022	56		 push	 esi
  00023	8b 75 0c	 mov	 esi, DWORD PTR _vTargetPos$[ebp]
  00026	57		 push	 edi
  00027	ff 75 08	 push	 DWORD PTR _vStartPos$[ebp]
  0002a	8d bb 18 02 00
	00		 lea	 edi, DWORD PTR [ebx+536]
  00030	a5		 movsd
  00031	a5		 movsd
  00032	a5		 movsd
  00033	f3 0f 11 83 14
	02 00 00	 movss	 DWORD PTR [ebx+532], xmm0
  0003b	ff 50 44	 call	 DWORD PTR [eax+68]

; 513  : 
; 514  : 	m_ItemState = FIS_MOVE;

  0003e	c7 83 d8 01 00
	00 04 00 00 00	 mov	 DWORD PTR [ebx+472], 4

; 515  : 	m_dwDropTime = FRAMEGETTIME();

  00048	ff 15 00 00 00
	00		 call	 DWORD PTR __imp_?GetSingleton@ioFrameTimer@@SAAAV1@XZ
  0004e	8b c8		 mov	 ecx, eax
  00050	ff 15 00 00 00
	00		 call	 DWORD PTR __imp_?GetLoopSec@ioFrameTimer@@QBEKXZ

; 516  : 
; 517  : 	DestroyItemEffect();

  00056	8b cb		 mov	 ecx, ebx
  00058	89 83 00 02 00
	00		 mov	 DWORD PTR [ebx+512], eax
  0005e	e8 00 00 00 00	 call	 ?DestroyItemEffect@ioFieldRewardItem@@QAEXXZ ; ioFieldRewardItem::DestroyItemEffect

; 518  : 	DestroyPickEnableEffect();

  00063	8b cb		 mov	 ecx, ebx
  00065	e8 00 00 00 00	 call	 ?DestroyPickEnableEffect@ioFieldRewardItem@@QAEXXZ ; ioFieldRewardItem::DestroyPickEnableEffect
  0006a	5f		 pop	 edi
  0006b	5e		 pop	 esi
$LN1@SetMoveDro:
  0006c	5b		 pop	 ebx

; 519  : }

  0006d	5d		 pop	 ebp
  0006e	c2 0c 00	 ret	 12			; 0000000cH
?SetMoveDropState@ioFieldRewardItem@@QAEXABUD3DXVECTOR3@@0M@Z ENDP ; ioFieldRewardItem::SetMoveDropState
_TEXT	ENDS
PUBLIC	?IsNeedDestroy@ioFieldRewardItem@@QBE_NXZ	; ioFieldRewardItem::IsNeedDestroy
; Function compile flags: /Ogsp
;	COMDAT ?IsNeedDestroy@ioFieldRewardItem@@QBE_NXZ
_TEXT	SEGMENT
?IsNeedDestroy@ioFieldRewardItem@@QBE_NXZ PROC		; ioFieldRewardItem::IsNeedDestroy, COMDAT
; _this$ = ecx

; 523  : 	if( m_ItemState == FIS_DESTROY )

  00000	83 b9 d8 01 00
	00 03		 cmp	 DWORD PTR [ecx+472], 3
  00007	0f 94 c0	 sete	 al

; 524  : 		return true;
; 525  : 
; 526  : 	return false;
; 527  : }

  0000a	c3		 ret	 0
?IsNeedDestroy@ioFieldRewardItem@@QBE_NXZ ENDP		; ioFieldRewardItem::IsNeedDestroy
_TEXT	ENDS
PUBLIC	?IsCanPicked@ioFieldRewardItem@@QBE_NXZ		; ioFieldRewardItem::IsCanPicked
; Function compile flags: /Ogsp
;	COMDAT ?IsCanPicked@ioFieldRewardItem@@QBE_NXZ
_TEXT	SEGMENT
?IsCanPicked@ioFieldRewardItem@@QBE_NXZ PROC		; ioFieldRewardItem::IsCanPicked, COMDAT
; _this$ = ecx

; 531  : 	if( m_ItemState != FIS_NORMAL )	return false;

  00000	83 b9 d8 01 00
	00 00		 cmp	 DWORD PTR [ecx+472], 0
  00007	74 03		 je	 SHORT $LN2@IsCanPicke
  00009	32 c0		 xor	 al, al

; 533  : 
; 534  : 	return true;
; 535  : }

  0000b	c3		 ret	 0
$LN2@IsCanPicke:

; 532  : 	if( m_ReserveNext != RN_NONE )	return false;

  0000c	83 b9 dc 01 00
	00 00		 cmp	 DWORD PTR [ecx+476], 0
  00013	0f 94 c0	 sete	 al

; 533  : 
; 534  : 	return true;
; 535  : }

  00016	c3		 ret	 0
?IsCanPicked@ioFieldRewardItem@@QBE_NXZ ENDP		; ioFieldRewardItem::IsCanPicked
_TEXT	ENDS
PUBLIC	?IsDropping@ioFieldRewardItem@@QBE_NXZ		; ioFieldRewardItem::IsDropping
; Function compile flags: /Ogsp
;	COMDAT ?IsDropping@ioFieldRewardItem@@QBE_NXZ
_TEXT	SEGMENT
?IsDropping@ioFieldRewardItem@@QBE_NXZ PROC		; ioFieldRewardItem::IsDropping, COMDAT
; _this$ = ecx

; 539  : 	if( m_ItemState == FIS_DROP )

  00000	83 b9 d8 01 00
	00 01		 cmp	 DWORD PTR [ecx+472], 1
  00007	0f 94 c0	 sete	 al

; 540  : 		return true;
; 541  : 
; 542  : 	return false;
; 543  : }

  0000a	c3		 ret	 0
?IsDropping@ioFieldRewardItem@@QBE_NXZ ENDP		; ioFieldRewardItem::IsDropping
_TEXT	ENDS
PUBLIC	__real@00000000
PUBLIC	__$ArrayPad$
PUBLIC	?SetWorldPositionByServerSide@ioFieldRewardItem@@QAEXABUD3DXVECTOR3@@@Z ; ioFieldRewardItem::SetWorldPositionByServerSide
EXTRN	__imp_?GetExtents@ioOrientBox@@QBEMH@Z:PROC
EXTRN	?GetCollisionBox@ioGameEntity@@QBEABVioOrientBox@@XZ:PROC ; ioGameEntity::GetCollisionBox
EXTRN	___security_cookie:DWORD
EXTRN	@__security_check_cookie@4:PROC
;	COMDAT __real@00000000
CONST	SEGMENT
__real@00000000 DD 000000000r			; 0
; Function compile flags: /Ogsp
CONST	ENDS
;	COMDAT ?SetWorldPositionByServerSide@ioFieldRewardItem@@QAEXABUD3DXVECTOR3@@@Z
_TEXT	SEGMENT
_vNewPos$ = -16						; size = 12
__$ArrayPad$ = -4					; size = 4
_vPos$ = 8						; size = 4
?SetWorldPositionByServerSide@ioFieldRewardItem@@QAEXABUD3DXVECTOR3@@@Z PROC ; ioFieldRewardItem::SetWorldPositionByServerSide, COMDAT
; _this$ = ecx

; 576  : {

  00000	55		 push	 ebp
  00001	8b ec		 mov	 ebp, esp
  00003	83 ec 10	 sub	 esp, 16			; 00000010H
  00006	a1 00 00 00 00	 mov	 eax, DWORD PTR ___security_cookie
  0000b	33 c5		 xor	 eax, ebp
  0000d	89 45 fc	 mov	 DWORD PTR __$ArrayPad$[ebp], eax
  00010	53		 push	 ebx
  00011	56		 push	 esi
  00012	57		 push	 edi
  00013	8b d9		 mov	 ebx, ecx
  00015	8b 4d 08	 mov	 ecx, DWORD PTR _vPos$[ebp]

; 577  : 	D3DXVECTOR3 vNewPos = vPos;
; 578  : 
; 579  : 	if( vPos.y == 0.0f )

  00018	f3 0f 10 41 04	 movss	 xmm0, DWORD PTR [ecx+4]
  0001d	0f 2e 05 00 00
	00 00		 ucomiss xmm0, DWORD PTR __real@00000000
  00024	8b f1		 mov	 esi, ecx
  00026	8d 7d f0	 lea	 edi, DWORD PTR _vNewPos$[ebp]
  00029	a5		 movsd
  0002a	a5		 movsd
  0002b	9f		 lahf
  0002c	a5		 movsd
  0002d	f6 c4 44	 test	 ah, 68			; 00000044H
  00030	7a 27		 jp	 SHORT $LN1@SetWorldPo

; 580  : 	{
; 581  : 		vNewPos.y = m_pModeParent->GetMapHeight( vPos.x, vPos.z, this, false );

  00032	f3 0f 10 41 08	 movss	 xmm0, DWORD PTR [ecx+8]
  00037	6a 00		 push	 0
  00039	53		 push	 ebx
  0003a	51		 push	 ecx
  0003b	51		 push	 ecx
  0003c	f3 0f 11 44 24
	04		 movss	 DWORD PTR [esp+4], xmm0
  00042	f3 0f 10 01	 movss	 xmm0, DWORD PTR [ecx]
  00046	8b 8b 8c 00 00
	00		 mov	 ecx, DWORD PTR [ebx+140]
  0004c	f3 0f 11 04 24	 movss	 DWORD PTR [esp], xmm0
  00051	e8 00 00 00 00	 call	 ?GetMapHeight@ioPlayMode@@QBEMMMPBVioGameEntity@@_N@Z ; ioPlayMode::GetMapHeight
  00056	d9 5d f4	 fstp	 DWORD PTR _vNewPos$[ebp+4]
$LN1@SetWorldPo:

; 582  : 	}
; 583  : 
; 584  : 	vNewPos.y += GetCollisionBox().GetExtents(1);

  00059	6a 01		 push	 1
  0005b	8b cb		 mov	 ecx, ebx
  0005d	e8 00 00 00 00	 call	 ?GetCollisionBox@ioGameEntity@@QBEABVioOrientBox@@XZ ; ioGameEntity::GetCollisionBox
  00062	8b c8		 mov	 ecx, eax
  00064	ff 15 00 00 00
	00		 call	 DWORD PTR __imp_?GetExtents@ioOrientBox@@QBEMH@Z
  0006a	d8 45 f4	 fadd	 DWORD PTR _vNewPos$[ebp+4]

; 585  : 	SetWorldPosition( vNewPos );

  0006d	8b 03		 mov	 eax, DWORD PTR [ebx]
  0006f	8d 4d f0	 lea	 ecx, DWORD PTR _vNewPos$[ebp]
  00072	51		 push	 ecx
  00073	d9 5d f4	 fstp	 DWORD PTR _vNewPos$[ebp+4]
  00076	8b cb		 mov	 ecx, ebx
  00078	ff 50 44	 call	 DWORD PTR [eax+68]

; 586  : }

  0007b	8b 4d fc	 mov	 ecx, DWORD PTR __$ArrayPad$[ebp]
  0007e	5f		 pop	 edi
  0007f	5e		 pop	 esi
  00080	33 cd		 xor	 ecx, ebp
  00082	5b		 pop	 ebx
  00083	e8 00 00 00 00	 call	 @__security_check_cookie@4
  00088	c9		 leave
  00089	c2 04 00	 ret	 4
?SetWorldPositionByServerSide@ioFieldRewardItem@@QAEXABUD3DXVECTOR3@@@Z ENDP ; ioFieldRewardItem::SetWorldPositionByServerSide
_TEXT	ENDS
PUBLIC	??_C@_0M@FLGEAKNG@UIIconPack1?$AA@		; `string'
PUBLIC	??_C@_0P@GKLCGBIL@item_icon_back?$AA@		; `string'
PUBLIC	__real@4f800000
PUBLIC	?LoadResource@ioFieldRewardItem@@QAEXXZ		; ioFieldRewardItem::LoadResource
EXTRN	__imp_??1ioHashString@@QAE@XZ:PROC
EXTRN	__imp_?CreateImage@ioUIImageSetManager@@QAEPAVioUIRenderImage@@ABVioHashString@@0_N@Z:PROC
EXTRN	__imp_??0ioHashString@@QAE@PBD@Z:PROC
EXTRN	__imp_?CreateImageByFullName@ioUIImageSetManager@@QAEPAVioUIRenderImage@@ABVioHashString@@_N@Z:PROC
EXTRN	__imp_?GetSingleton@ioUIImageSetManager@@SAAAV1@XZ:PROC
EXTRN	?GetIconName@ioFieldRewardItemMgr@@QAEABVioHashString@@K@Z:PROC ; ioFieldRewardItemMgr::GetIconName
EXTRN	?GetSingleton@ioFieldRewardItemMgr@@SAAAV1@XZ:PROC ; ioFieldRewardItemMgr::GetSingleton
EXTRN	___CxxFrameHandler3:PROC
EXTRN	__EH_epilog3:PROC
EXTRN	__EH_prolog3:PROC
;	COMDAT ??_C@_0M@FLGEAKNG@UIIconPack1?$AA@
; File d:\lost saga for developer\youtube\tutorial\source\src\lsclient\stdafx.h
CONST	SEGMENT
??_C@_0M@FLGEAKNG@UIIconPack1?$AA@ DB 'UIIconPack1', 00H ; `string'
CONST	ENDS
;	COMDAT ??_C@_0P@GKLCGBIL@item_icon_back?$AA@
CONST	SEGMENT
??_C@_0P@GKLCGBIL@item_icon_back?$AA@ DB 'item_icon_back', 00H ; `string'
CONST	ENDS
;	COMDAT __real@4f800000
CONST	SEGMENT
__real@4f800000 DD 04f800000r			; 4.29497e+009
CONST	ENDS
;	COMDAT xdata$x
xdata$x	SEGMENT
__unwindtable$?LoadResource@ioFieldRewardItem@@QAEXXZ DD 0ffffffffH
	DD	FLAT:__unwindfunclet$?LoadResource@ioFieldRewardItem@@QAEXXZ$0
	DD	00H
	DD	FLAT:__unwindfunclet$?LoadResource@ioFieldRewardItem@@QAEXXZ$1
__ehfuncinfo$?LoadResource@ioFieldRewardItem@@QAEXXZ DD 019930522H
	DD	02H
	DD	FLAT:__unwindtable$?LoadResource@ioFieldRewardItem@@QAEXXZ
	DD	2 DUP(00H)
	DD	2 DUP(00H)
	DD	00H
	DD	01H
; Function compile flags: /Ogsp
; File d:\lost saga for developer\youtube\tutorial\source\src\lsclient\iofieldrewarditem.cpp
xdata$x	ENDS
;	COMDAT ?LoadResource@ioFieldRewardItem@@QAEXXZ
_TEXT	SEGMENT
$T531335 = -48						; size = 16
$T531336 = -32						; size = 16
tv271 = -16						; size = 4
tv267 = -16						; size = 4
tv263 = -16						; size = 4
tv253 = -16						; size = 4
tv249 = -16						; size = 4
tv245 = -16						; size = 4
__$EHRec$ = -12						; size = 12
?LoadResource@ioFieldRewardItem@@QAEXXZ PROC		; ioFieldRewardItem::LoadResource, COMDAT
; _this$ = ecx

; 589  : {

  00000	6a 24		 push	 36			; 00000024H
  00002	b8 00 00 00 00	 mov	 eax, __ehhandler$?LoadResource@ioFieldRewardItem@@QAEXXZ
  00007	e8 00 00 00 00	 call	 __EH_prolog3
  0000c	8b f1		 mov	 esi, ecx

; 590  : 	SAFEDELETE( m_pItemIcon );

  0000e	8b 8e f4 01 00
	00		 mov	 ecx, DWORD PTR [esi+500]
  00014	33 ff		 xor	 edi, edi
  00016	3b cf		 cmp	 ecx, edi
  00018	74 0d		 je	 SHORT $LN4@LoadResour
  0001a	8b 01		 mov	 eax, DWORD PTR [ecx]
  0001c	6a 01		 push	 1
  0001e	ff 50 40	 call	 DWORD PTR [eax+64]
  00021	89 be f4 01 00
	00		 mov	 DWORD PTR [esi+500], edi
$LN4@LoadResour:

; 591  : 	SAFEDELETE( m_pItemBack );

  00027	8b 8e f8 01 00
	00		 mov	 ecx, DWORD PTR [esi+504]
  0002d	3b cf		 cmp	 ecx, edi
  0002f	74 0d		 je	 SHORT $LN3@LoadResour
  00031	8b 01		 mov	 eax, DWORD PTR [ecx]
  00033	6a 01		 push	 1
  00035	ff 50 40	 call	 DWORD PTR [eax+64]
  00038	89 be f8 01 00
	00		 mov	 DWORD PTR [esi+504], edi
$LN3@LoadResour:

; 592  : 
; 593  : 	m_pItemIcon = g_UIImageSetMgr.CreateImageByFullName( g_FieldRewardItemMgr.GetIconName( m_iFieldRewardResourceIndex ) );	// 보상 아이콘

  0003e	57		 push	 edi
  0003f	ff b6 3c 02 00
	00		 push	 DWORD PTR [esi+572]
  00045	e8 00 00 00 00	 call	 ?GetSingleton@ioFieldRewardItemMgr@@SAAAV1@XZ ; ioFieldRewardItemMgr::GetSingleton
  0004a	8b c8		 mov	 ecx, eax
  0004c	e8 00 00 00 00	 call	 ?GetIconName@ioFieldRewardItemMgr@@QAEABVioHashString@@K@Z ; ioFieldRewardItemMgr::GetIconName
  00051	8b 1d 00 00 00
	00		 mov	 ebx, DWORD PTR __imp_?GetSingleton@ioUIImageSetManager@@SAAAV1@XZ
  00057	50		 push	 eax
  00058	ff d3		 call	 ebx
  0005a	8b c8		 mov	 ecx, eax
  0005c	ff 15 00 00 00
	00		 call	 DWORD PTR __imp_?CreateImageByFullName@ioUIImageSetManager@@QAEPAVioUIRenderImage@@ABVioHashString@@_N@Z
  00062	89 86 f4 01 00
	00		 mov	 DWORD PTR [esi+500], eax

; 594  : 	if( m_pItemIcon )

  00068	3b c7		 cmp	 eax, edi
  0006a	74 43		 je	 SHORT $LN2@LoadResour

; 595  : 	{
; 596  : 		m_pItemIcon->SetScale( FLOAT05 );

  0006c	b8 05 00 00 00	 mov	 eax, 5
  00071	8b d0		 mov	 edx, eax
  00073	b8 0a 00 00 00	 mov	 eax, 10			; 0000000aH
  00078	8b 8e f4 01 00
	00		 mov	 ecx, DWORD PTR [esi+500]
  0007e	8b 39		 mov	 edi, DWORD PTR [ecx]
  00080	89 55 f0	 mov	 DWORD PTR tv271[ebp], edx
  00083	db 45 f0	 fild	 DWORD PTR tv271[ebp]
  00086	85 d2		 test	 edx, edx
  00088	79 06		 jns	 SHORT $LN23@LoadResour
  0008a	d8 05 00 00 00
	00		 fadd	 DWORD PTR __real@4f800000
$LN23@LoadResour:
  00090	89 45 f0	 mov	 DWORD PTR tv267[ebp], eax
  00093	db 45 f0	 fild	 DWORD PTR tv267[ebp]
  00096	85 c0		 test	 eax, eax
  00098	79 06		 jns	 SHORT $LN24@LoadResour
  0009a	d8 05 00 00 00
	00		 fadd	 DWORD PTR __real@4f800000
$LN24@LoadResour:
  000a0	de f9		 fdivp	 ST(1), ST(0)
  000a2	51		 push	 ecx
  000a3	d9 5d f0	 fstp	 DWORD PTR tv263[ebp]
  000a6	d9 45 f0	 fld	 DWORD PTR tv263[ebp]
  000a9	d9 1c 24	 fstp	 DWORD PTR [esp]
  000ac	ff 57 1c	 call	 DWORD PTR [edi+28]
$LN2@LoadResour:

; 597  : 	}
; 598  : 
; 599  : 	m_pItemBack = g_UIImageSetMgr.CreateImage( "UIIconPack1", "item_icon_back" );

  000af	8b 3d 00 00 00
	00		 mov	 edi, DWORD PTR __imp_??0ioHashString@@QAE@PBD@Z
  000b5	68 00 00 00 00	 push	 OFFSET ??_C@_0P@GKLCGBIL@item_icon_back?$AA@
  000ba	8d 4d d0	 lea	 ecx, DWORD PTR $T531335[ebp]
  000bd	ff d7		 call	 edi
  000bf	83 65 fc 00	 and	 DWORD PTR __$EHRec$[ebp+8], 0
  000c3	68 00 00 00 00	 push	 OFFSET ??_C@_0M@FLGEAKNG@UIIconPack1?$AA@
  000c8	8d 4d e0	 lea	 ecx, DWORD PTR $T531336[ebp]
  000cb	ff d7		 call	 edi
  000cd	6a 00		 push	 0
  000cf	8d 45 d0	 lea	 eax, DWORD PTR $T531335[ebp]
  000d2	50		 push	 eax
  000d3	8d 45 e0	 lea	 eax, DWORD PTR $T531336[ebp]
  000d6	50		 push	 eax
  000d7	c6 45 fc 01	 mov	 BYTE PTR __$EHRec$[ebp+8], 1
  000db	ff d3		 call	 ebx
  000dd	8b c8		 mov	 ecx, eax
  000df	ff 15 00 00 00
	00		 call	 DWORD PTR __imp_?CreateImage@ioUIImageSetManager@@QAEPAVioUIRenderImage@@ABVioHashString@@0_N@Z
  000e5	8b 3d 00 00 00
	00		 mov	 edi, DWORD PTR __imp_??1ioHashString@@QAE@XZ
  000eb	8d 4d e0	 lea	 ecx, DWORD PTR $T531336[ebp]
  000ee	89 86 f8 01 00
	00		 mov	 DWORD PTR [esi+504], eax
  000f4	c6 45 fc 00	 mov	 BYTE PTR __$EHRec$[ebp+8], 0
  000f8	ff d7		 call	 edi
  000fa	83 4d fc ff	 or	 DWORD PTR __$EHRec$[ebp+8], -1
  000fe	8d 4d d0	 lea	 ecx, DWORD PTR $T531335[ebp]
  00101	ff d7		 call	 edi

; 600  : 	if( m_pItemBack )

  00103	83 be f8 01 00
	00 00		 cmp	 DWORD PTR [esi+504], 0
  0010a	74 43		 je	 SHORT $LN1@LoadResour

; 601  : 	{
; 602  : 		m_pItemBack->SetScale( FLOAT05 );

  0010c	b8 05 00 00 00	 mov	 eax, 5
  00111	8b d0		 mov	 edx, eax
  00113	b8 0a 00 00 00	 mov	 eax, 10			; 0000000aH
  00118	8b 8e f8 01 00
	00		 mov	 ecx, DWORD PTR [esi+504]
  0011e	8b 31		 mov	 esi, DWORD PTR [ecx]
  00120	89 55 f0	 mov	 DWORD PTR tv253[ebp], edx
  00123	db 45 f0	 fild	 DWORD PTR tv253[ebp]
  00126	85 d2		 test	 edx, edx
  00128	79 06		 jns	 SHORT $LN25@LoadResour
  0012a	d8 05 00 00 00
	00		 fadd	 DWORD PTR __real@4f800000
$LN25@LoadResour:
  00130	89 45 f0	 mov	 DWORD PTR tv249[ebp], eax
  00133	db 45 f0	 fild	 DWORD PTR tv249[ebp]
  00136	85 c0		 test	 eax, eax
  00138	79 06		 jns	 SHORT $LN26@LoadResour
  0013a	d8 05 00 00 00
	00		 fadd	 DWORD PTR __real@4f800000
$LN26@LoadResour:
  00140	de f9		 fdivp	 ST(1), ST(0)
  00142	51		 push	 ecx
  00143	d9 5d f0	 fstp	 DWORD PTR tv245[ebp]
  00146	d9 45 f0	 fld	 DWORD PTR tv245[ebp]
  00149	d9 1c 24	 fstp	 DWORD PTR [esp]
  0014c	ff 56 1c	 call	 DWORD PTR [esi+28]
$LN1@LoadResour:

; 603  : 	}
; 604  : }

  0014f	e8 00 00 00 00	 call	 __EH_epilog3
  00154	c3		 ret	 0
_TEXT	ENDS
;	COMDAT text$x
text$x	SEGMENT
__unwindfunclet$?LoadResource@ioFieldRewardItem@@QAEXXZ$0:
  00000	8d 4d d0	 lea	 ecx, DWORD PTR $T531335[ebp]
  00003	ff 25 00 00 00
	00		 jmp	 DWORD PTR __imp_??1ioHashString@@QAE@XZ
__unwindfunclet$?LoadResource@ioFieldRewardItem@@QAEXXZ$1:
  00009	8d 4d e0	 lea	 ecx, DWORD PTR $T531336[ebp]
  0000c	ff 25 00 00 00
	00		 jmp	 DWORD PTR __imp_??1ioHashString@@QAE@XZ
__ehhandler$?LoadResource@ioFieldRewardItem@@QAEXXZ:
  00012	8b 54 24 08	 mov	 edx, DWORD PTR [esp+8]
  00016	8d 42 0c	 lea	 eax, DWORD PTR [edx+12]
  00019	8b 4a cc	 mov	 ecx, DWORD PTR [edx-52]
  0001c	33 c8		 xor	 ecx, eax
  0001e	e8 00 00 00 00	 call	 @__security_check_cookie@4
  00023	b8 00 00 00 00	 mov	 eax, OFFSET __ehfuncinfo$?LoadResource@ioFieldRewardItem@@QAEXXZ
  00028	e9 00 00 00 00	 jmp	 ___CxxFrameHandler3
text$x	ENDS
?LoadResource@ioFieldRewardItem@@QAEXXZ ENDP		; ioFieldRewardItem::LoadResource
PUBLIC	__real@403a000000000000
PUBLIC	?RenderItemIcon@ioFieldRewardItem@@QAEXMMM@Z	; ioFieldRewardItem::RenderItemIcon
;	COMDAT __real@403a000000000000
CONST	SEGMENT
__real@403a000000000000 DQ 0403a000000000000r	; 26
; Function compile flags: /Ogsp
CONST	ENDS
;	COMDAT ?RenderItemIcon@ioFieldRewardItem@@QAEXMMM@Z
_TEXT	SEGMENT
_fXPos$ = 8						; size = 4
_fYPos$ = 12						; size = 4
_fScale$ = 16						; size = 4
?RenderItemIcon@ioFieldRewardItem@@QAEXMMM@Z PROC	; ioFieldRewardItem::RenderItemIcon, COMDAT
; _this$ = ecx

; 607  : {

  00000	55		 push	 ebp
  00001	8b ec		 mov	 ebp, esp

; 608  : 	fXPos = (float)(int)fXPos;

  00003	f3 0f 2c 45 08	 cvttss2si eax, DWORD PTR _fXPos$[ebp]

; 609  : 	fYPos = (float)(int)fYPos;
; 610  : 	
; 611  : 	if( m_pItemBack )

  00008	f2 0f 10 05 00
	00 00 00	 movsd	 xmm0, QWORD PTR __real@403a000000000000
  00010	56		 push	 esi
  00011	57		 push	 edi
  00012	0f 57 c9	 xorps	 xmm1, xmm1
  00015	f3 0f 2a c8	 cvtsi2ss xmm1, eax
  00019	f3 0f 2c 45 0c	 cvttss2si eax, DWORD PTR _fYPos$[ebp]
  0001e	8b f9		 mov	 edi, ecx
  00020	33 f6		 xor	 esi, esi
  00022	0f 57 d2	 xorps	 xmm2, xmm2
  00025	f3 0f 2a d0	 cvtsi2ss xmm2, eax
  00029	f3 0f 11 4d 08	 movss	 DWORD PTR _fXPos$[ebp], xmm1
  0002e	f3 0f 11 55 0c	 movss	 DWORD PTR _fYPos$[ebp], xmm2
  00033	39 b7 f8 01 00
	00		 cmp	 DWORD PTR [edi+504], esi
  00039	74 3e		 je	 SHORT $LN2@RenderItem

; 612  : 	{
; 613  : 		m_pItemBack->Render( fXPos - 26.0f, fYPos - 26.0f );

  0003b	8b 87 f8 01 00
	00		 mov	 eax, DWORD PTR [edi+504]
  00041	8b 10		 mov	 edx, DWORD PTR [eax]
  00043	56		 push	 esi
  00044	56		 push	 esi
  00045	56		 push	 esi
  00046	56		 push	 esi
  00047	51		 push	 ecx
  00048	0f 5a d2	 cvtps2pd xmm2, xmm2
  0004b	f2 0f 5c d0	 subsd	 xmm2, xmm0
  0004f	51		 push	 ecx
  00050	0f 5a c9	 cvtps2pd xmm1, xmm1
  00053	f2 0f 5c c8	 subsd	 xmm1, xmm0
  00057	66 0f 5a d2	 cvtpd2ps xmm2, xmm2
  0005b	0f 57 c0	 xorps	 xmm0, xmm0
  0005e	f3 0f 11 54 24
	04		 movss	 DWORD PTR [esp+4], xmm2
  00064	66 0f 5a c1	 cvtpd2ps xmm0, xmm1
  00068	8b c8		 mov	 ecx, eax
  0006a	f3 0f 11 04 24	 movss	 DWORD PTR [esp], xmm0
  0006f	ff 12		 call	 DWORD PTR [edx]
  00071	f2 0f 10 05 00
	00 00 00	 movsd	 xmm0, QWORD PTR __real@403a000000000000
$LN2@RenderItem:

; 614  : 	}
; 615  : 
; 616  : 	if( m_pItemIcon )

  00079	39 b7 f4 01 00
	00		 cmp	 DWORD PTR [edi+500], esi
  0007f	74 40		 je	 SHORT $LN1@RenderItem

; 617  : 	{
; 618  : 		m_pItemIcon->Render( fXPos - 26.0f, fYPos - 26.0f );

  00081	f3 0f 10 4d 0c	 movss	 xmm1, DWORD PTR _fYPos$[ebp]
  00086	8b 87 f4 01 00
	00		 mov	 eax, DWORD PTR [edi+500]
  0008c	8b 10		 mov	 edx, DWORD PTR [eax]
  0008e	56		 push	 esi
  0008f	56		 push	 esi
  00090	56		 push	 esi
  00091	56		 push	 esi
  00092	0f 5a c9	 cvtps2pd xmm1, xmm1
  00095	f2 0f 5c c8	 subsd	 xmm1, xmm0
  00099	51		 push	 ecx
  0009a	f2 0f 5a c9	 cvtsd2ss xmm1, xmm1
  0009e	51		 push	 ecx
  0009f	f3 0f 11 4c 24
	04		 movss	 DWORD PTR [esp+4], xmm1
  000a5	f3 0f 10 4d 08	 movss	 xmm1, DWORD PTR _fXPos$[ebp]
  000aa	0f 5a c9	 cvtps2pd xmm1, xmm1
  000ad	f2 0f 5c c8	 subsd	 xmm1, xmm0
  000b1	0f 57 c0	 xorps	 xmm0, xmm0
  000b4	f2 0f 5a c1	 cvtsd2ss xmm0, xmm1
  000b8	8b c8		 mov	 ecx, eax
  000ba	f3 0f 11 04 24	 movss	 DWORD PTR [esp], xmm0
  000bf	ff 12		 call	 DWORD PTR [edx]
$LN1@RenderItem:
  000c1	5f		 pop	 edi
  000c2	5e		 pop	 esi

; 619  : 	}
; 620  : }

  000c3	5d		 pop	 ebp
  000c4	c2 0c 00	 ret	 12			; 0000000cH
?RenderItemIcon@ioFieldRewardItem@@QAEXMMM@Z ENDP	; ioFieldRewardItem::RenderItemIcon
_TEXT	ENDS
PUBLIC	??0D3DXVECTOR3@@QAE@XZ				; D3DXVECTOR3::D3DXVECTOR3
; Function compile flags: /Ogsp
; File c:\program files (x86)\microsoft directx sdk (june 2010)\include\d3dx9math.h
;	COMDAT ??0D3DXVECTOR3@@QAE@XZ
_TEXT	SEGMENT
??0D3DXVECTOR3@@QAE@XZ PROC				; D3DXVECTOR3::D3DXVECTOR3, COMDAT
; _this$ = ecx

; 165  :     D3DXVECTOR3() {};

  00000	8b c1		 mov	 eax, ecx
  00002	c3		 ret	 0
??0D3DXVECTOR3@@QAE@XZ ENDP				; D3DXVECTOR3::D3DXVECTOR3
_TEXT	ENDS
PUBLIC	??0D3DXVECTOR3@@QAE@MMM@Z			; D3DXVECTOR3::D3DXVECTOR3
; Function compile flags: /Ogsp
; File c:\program files (x86)\microsoft directx sdk (june 2010)\include\d3dx9math.inl
;	COMDAT ??0D3DXVECTOR3@@QAE@MMM@Z
_TEXT	SEGMENT
_fx$ = 8						; size = 4
_fy$ = 12						; size = 4
_fz$ = 16						; size = 4
??0D3DXVECTOR3@@QAE@MMM@Z PROC				; D3DXVECTOR3::D3DXVECTOR3, COMDAT
; _this$ = ecx

; 303  : {

  00000	55		 push	 ebp
  00001	8b ec		 mov	 ebp, esp

; 304  :     x = fx;

  00003	f3 0f 10 45 08	 movss	 xmm0, DWORD PTR _fx$[ebp]
  00008	8b c1		 mov	 eax, ecx
  0000a	f3 0f 11 00	 movss	 DWORD PTR [eax], xmm0

; 305  :     y = fy;

  0000e	f3 0f 10 45 0c	 movss	 xmm0, DWORD PTR _fy$[ebp]
  00013	f3 0f 11 40 04	 movss	 DWORD PTR [eax+4], xmm0

; 306  :     z = fz;

  00018	f3 0f 10 45 10	 movss	 xmm0, DWORD PTR _fz$[ebp]
  0001d	f3 0f 11 40 08	 movss	 DWORD PTR [eax+8], xmm0

; 307  : }

  00022	5d		 pop	 ebp
  00023	c2 0c 00	 ret	 12			; 0000000cH
??0D3DXVECTOR3@@QAE@MMM@Z ENDP				; D3DXVECTOR3::D3DXVECTOR3
_TEXT	ENDS
PUBLIC	??HD3DXVECTOR3@@QBE?AU0@ABU0@@Z			; D3DXVECTOR3::operator+
; Function compile flags: /Ogsp
;	COMDAT ??HD3DXVECTOR3@@QBE?AU0@ABU0@@Z
_TEXT	SEGMENT
___$ReturnUdt$ = 8					; size = 4
_v$ = 12						; size = 4
??HD3DXVECTOR3@@QBE?AU0@ABU0@@Z PROC			; D3DXVECTOR3::operator+, COMDAT
; _this$ = ecx

; 380  : {

  00000	55		 push	 ebp
  00001	8b ec		 mov	 ebp, esp

; 381  :     return D3DXVECTOR3(x + v.x, y + v.y, z + v.z);

  00003	8b 55 0c	 mov	 edx, DWORD PTR _v$[ebp]
  00006	f3 0f 10 02	 movss	 xmm0, DWORD PTR [edx]
  0000a	f3 0f 10 09	 movss	 xmm1, DWORD PTR [ecx]
  0000e	8b 45 08	 mov	 eax, DWORD PTR ___$ReturnUdt$[ebp]
  00011	0f 5a c0	 cvtps2pd xmm0, xmm0
  00014	0f 5a c9	 cvtps2pd xmm1, xmm1
  00017	f2 0f 58 c1	 addsd	 xmm0, xmm1
  0001b	f3 0f 10 49 04	 movss	 xmm1, DWORD PTR [ecx+4]
  00020	66 0f 5a c0	 cvtpd2ps xmm0, xmm0
  00024	f3 0f 11 00	 movss	 DWORD PTR [eax], xmm0
  00028	f3 0f 10 42 04	 movss	 xmm0, DWORD PTR [edx+4]
  0002d	0f 5a c0	 cvtps2pd xmm0, xmm0
  00030	0f 5a c9	 cvtps2pd xmm1, xmm1
  00033	f2 0f 58 c1	 addsd	 xmm0, xmm1
  00037	f3 0f 10 49 08	 movss	 xmm1, DWORD PTR [ecx+8]
  0003c	66 0f 5a c0	 cvtpd2ps xmm0, xmm0
  00040	f3 0f 11 40 04	 movss	 DWORD PTR [eax+4], xmm0
  00045	f3 0f 10 42 08	 movss	 xmm0, DWORD PTR [edx+8]
  0004a	0f 5a c0	 cvtps2pd xmm0, xmm0
  0004d	0f 5a c9	 cvtps2pd xmm1, xmm1
  00050	f2 0f 58 c1	 addsd	 xmm0, xmm1
  00054	66 0f 5a c0	 cvtpd2ps xmm0, xmm0
  00058	f3 0f 11 40 08	 movss	 DWORD PTR [eax+8], xmm0

; 382  : }

  0005d	5d		 pop	 ebp
  0005e	c2 08 00	 ret	 8
??HD3DXVECTOR3@@QBE?AU0@ABU0@@Z ENDP			; D3DXVECTOR3::operator+
_TEXT	ENDS
PUBLIC	??GD3DXVECTOR3@@QBE?AU0@ABU0@@Z			; D3DXVECTOR3::operator-
; Function compile flags: /Ogsp
;	COMDAT ??GD3DXVECTOR3@@QBE?AU0@ABU0@@Z
_TEXT	SEGMENT
___$ReturnUdt$ = 8					; size = 4
_v$ = 12						; size = 4
??GD3DXVECTOR3@@QBE?AU0@ABU0@@Z PROC			; D3DXVECTOR3::operator-, COMDAT
; _this$ = ecx

; 386  : {

  00000	55		 push	 ebp
  00001	8b ec		 mov	 ebp, esp

; 387  :     return D3DXVECTOR3(x - v.x, y - v.y, z - v.z);

  00003	8b 55 0c	 mov	 edx, DWORD PTR _v$[ebp]
  00006	f3 0f 10 01	 movss	 xmm0, DWORD PTR [ecx]
  0000a	f3 0f 10 0a	 movss	 xmm1, DWORD PTR [edx]
  0000e	8b 45 08	 mov	 eax, DWORD PTR ___$ReturnUdt$[ebp]
  00011	0f 5a c0	 cvtps2pd xmm0, xmm0
  00014	0f 5a c9	 cvtps2pd xmm1, xmm1
  00017	f2 0f 5c c1	 subsd	 xmm0, xmm1
  0001b	f3 0f 10 4a 04	 movss	 xmm1, DWORD PTR [edx+4]
  00020	66 0f 5a c0	 cvtpd2ps xmm0, xmm0
  00024	f3 0f 11 00	 movss	 DWORD PTR [eax], xmm0
  00028	f3 0f 10 41 04	 movss	 xmm0, DWORD PTR [ecx+4]
  0002d	0f 5a c0	 cvtps2pd xmm0, xmm0
  00030	0f 5a c9	 cvtps2pd xmm1, xmm1
  00033	f2 0f 5c c1	 subsd	 xmm0, xmm1
  00037	f3 0f 10 4a 08	 movss	 xmm1, DWORD PTR [edx+8]
  0003c	66 0f 5a c0	 cvtpd2ps xmm0, xmm0
  00040	f3 0f 11 40 04	 movss	 DWORD PTR [eax+4], xmm0
  00045	f3 0f 10 41 08	 movss	 xmm0, DWORD PTR [ecx+8]
  0004a	0f 5a c0	 cvtps2pd xmm0, xmm0
  0004d	0f 5a c9	 cvtps2pd xmm1, xmm1
  00050	f2 0f 5c c1	 subsd	 xmm0, xmm1
  00054	66 0f 5a c0	 cvtpd2ps xmm0, xmm0
  00058	f3 0f 11 40 08	 movss	 DWORD PTR [eax+8], xmm0

; 388  : }

  0005d	5d		 pop	 ebp
  0005e	c2 08 00	 ret	 8
??GD3DXVECTOR3@@QBE?AU0@ABU0@@Z ENDP			; D3DXVECTOR3::operator-
_TEXT	ENDS
PUBLIC	??DD3DXVECTOR3@@QBE?AU0@M@Z			; D3DXVECTOR3::operator*
; Function compile flags: /Ogsp
;	COMDAT ??DD3DXVECTOR3@@QBE?AU0@M@Z
_TEXT	SEGMENT
___$ReturnUdt$ = 8					; size = 4
_f$ = 12						; size = 4
??DD3DXVECTOR3@@QBE?AU0@M@Z PROC			; D3DXVECTOR3::operator*, COMDAT
; _this$ = ecx

; 392  : {

  00000	55		 push	 ebp
  00001	8b ec		 mov	 ebp, esp

; 393  :     return D3DXVECTOR3(x * f, y * f, z * f);

  00003	f3 0f 10 4d 0c	 movss	 xmm1, DWORD PTR _f$[ebp]
  00008	f3 0f 10 01	 movss	 xmm0, DWORD PTR [ecx]
  0000c	8b 45 08	 mov	 eax, DWORD PTR ___$ReturnUdt$[ebp]
  0000f	0f 5a c0	 cvtps2pd xmm0, xmm0
  00012	0f 5a c9	 cvtps2pd xmm1, xmm1
  00015	f2 0f 59 c1	 mulsd	 xmm0, xmm1
  00019	f3 0f 10 4d 0c	 movss	 xmm1, DWORD PTR _f$[ebp]
  0001e	66 0f 5a c0	 cvtpd2ps xmm0, xmm0
  00022	f3 0f 11 00	 movss	 DWORD PTR [eax], xmm0
  00026	f3 0f 10 41 04	 movss	 xmm0, DWORD PTR [ecx+4]
  0002b	0f 5a c0	 cvtps2pd xmm0, xmm0
  0002e	0f 5a c9	 cvtps2pd xmm1, xmm1
  00031	f2 0f 59 c1	 mulsd	 xmm0, xmm1
  00035	f3 0f 10 4d 0c	 movss	 xmm1, DWORD PTR _f$[ebp]
  0003a	66 0f 5a c0	 cvtpd2ps xmm0, xmm0
  0003e	f3 0f 11 40 04	 movss	 DWORD PTR [eax+4], xmm0
  00043	f3 0f 10 41 08	 movss	 xmm0, DWORD PTR [ecx+8]
  00048	0f 5a c0	 cvtps2pd xmm0, xmm0
  0004b	0f 5a c9	 cvtps2pd xmm1, xmm1
  0004e	f2 0f 59 c1	 mulsd	 xmm0, xmm1
  00052	66 0f 5a c0	 cvtpd2ps xmm0, xmm0
  00056	f3 0f 11 40 08	 movss	 DWORD PTR [eax+8], xmm0

; 394  : }

  0005b	5d		 pop	 ebp
  0005c	c2 08 00	 ret	 8
??DD3DXVECTOR3@@QBE?AU0@M@Z ENDP			; D3DXVECTOR3::operator*
_TEXT	ENDS
PUBLIC	??0D3DXQUATERNION@@QAE@MMMM@Z			; D3DXQUATERNION::D3DXQUATERNION
; Function compile flags: /Ogsp
;	COMDAT ??0D3DXQUATERNION@@QAE@MMMM@Z
_TEXT	SEGMENT
_fx$ = 8						; size = 4
_fy$ = 12						; size = 4
_fz$ = 16						; size = 4
_fw$ = 20						; size = 4
??0D3DXQUATERNION@@QAE@MMMM@Z PROC			; D3DXQUATERNION::D3DXQUATERNION, COMDAT
; _this$ = ecx

; 1080 : {

  00000	55		 push	 ebp
  00001	8b ec		 mov	 ebp, esp

; 1081 :     x = fx;

  00003	f3 0f 10 45 08	 movss	 xmm0, DWORD PTR _fx$[ebp]
  00008	8b c1		 mov	 eax, ecx
  0000a	f3 0f 11 00	 movss	 DWORD PTR [eax], xmm0

; 1082 :     y = fy;

  0000e	f3 0f 10 45 0c	 movss	 xmm0, DWORD PTR _fy$[ebp]
  00013	f3 0f 11 40 04	 movss	 DWORD PTR [eax+4], xmm0

; 1083 :     z = fz;

  00018	f3 0f 10 45 10	 movss	 xmm0, DWORD PTR _fz$[ebp]
  0001d	f3 0f 11 40 08	 movss	 DWORD PTR [eax+8], xmm0

; 1084 :     w = fw;

  00022	f3 0f 10 45 14	 movss	 xmm0, DWORD PTR _fw$[ebp]
  00027	f3 0f 11 40 0c	 movss	 DWORD PTR [eax+12], xmm0

; 1085 : }

  0002c	5d		 pop	 ebp
  0002d	c2 10 00	 ret	 16			; 00000010H
??0D3DXQUATERNION@@QAE@MMMM@Z ENDP			; D3DXQUATERNION::D3DXQUATERNION
_TEXT	ENDS
PUBLIC	?NeedUpdateBound@ioGameEntity@@QAEXXZ		; ioGameEntity::NeedUpdateBound
; Function compile flags: /Ogsp
; File d:\lost saga for developer\youtube\tutorial\source\src\lsclient\iogameentity.h
;	COMDAT ?NeedUpdateBound@ioGameEntity@@QAEXXZ
_TEXT	SEGMENT
?NeedUpdateBound@ioGameEntity@@QAEXXZ PROC		; ioGameEntity::NeedUpdateBound, COMDAT
; _this$ = ecx

; 132  : 	inline void NeedUpdateBound() { m_bNeedUpdateBound = true; }

  00000	c6 81 88 00 00
	00 01		 mov	 BYTE PTR [ecx+136], 1
  00007	c3		 ret	 0
?NeedUpdateBound@ioGameEntity@@QAEXXZ ENDP		; ioGameEntity::NeedUpdateBound
_TEXT	ENDS
PUBLIC	??_R0?AVioGameEntity@@@8			; ioGameEntity `RTTI Type Descriptor'
PUBLIC	??_R0?AVioPlayEntity@@@8			; ioPlayEntity `RTTI Type Descriptor'
PUBLIC	?ToPlayEntity@@YAPAVioPlayEntity@@PAVioGameEntity@@@Z ; ToPlayEntity
EXTRN	___RTDynamicCast:PROC
EXTRN	??_7type_info@@6B@:QWORD			; type_info::`vftable'
;	COMDAT ??_R0?AVioGameEntity@@@8
; File d:\lost saga for developer\youtube\tutorial\source\src\lsclient\ioplayentity.h
_DATA	SEGMENT
??_R0?AVioGameEntity@@@8 DD FLAT:??_7type_info@@6B@	; ioGameEntity `RTTI Type Descriptor'
	DD	00H
	DB	'.?AVioGameEntity@@', 00H
_DATA	ENDS
;	COMDAT ??_R0?AVioPlayEntity@@@8
_DATA	SEGMENT
??_R0?AVioPlayEntity@@@8 DD FLAT:??_7type_info@@6B@	; ioPlayEntity `RTTI Type Descriptor'
	DD	00H
	DB	'.?AVioPlayEntity@@', 00H
; Function compile flags: /Ogsp
_DATA	ENDS
;	COMDAT ?ToPlayEntity@@YAPAVioPlayEntity@@PAVioGameEntity@@@Z
_TEXT	SEGMENT
_pObj$ = 8						; size = 4
?ToPlayEntity@@YAPAVioPlayEntity@@PAVioGameEntity@@@Z PROC ; ToPlayEntity, COMDAT

; 121  : {

  00000	55		 push	 ebp
  00001	8b ec		 mov	 ebp, esp
  00003	56		 push	 esi

; 122  : 	if( !pObj || pObj->GetTypeID() != ioGameEntity::GET_PLAY_ENTITY )

  00004	8b 75 08	 mov	 esi, DWORD PTR _pObj$[ebp]
  00007	85 f6		 test	 esi, esi
  00009	74 25		 je	 SHORT $LN1@ToPlayEnti
  0000b	8b 06		 mov	 eax, DWORD PTR [esi]
  0000d	8b ce		 mov	 ecx, esi
  0000f	ff 50 10	 call	 DWORD PTR [eax+16]
  00012	83 f8 01	 cmp	 eax, 1
  00015	75 19		 jne	 SHORT $LN1@ToPlayEnti

; 124  : 
; 125  : 	return dynamic_cast< ioPlayEntity* >( pObj );

  00017	6a 00		 push	 0
  00019	68 00 00 00 00	 push	 OFFSET ??_R0?AVioPlayEntity@@@8
  0001e	68 00 00 00 00	 push	 OFFSET ??_R0?AVioGameEntity@@@8
  00023	6a 00		 push	 0
  00025	56		 push	 esi
  00026	e8 00 00 00 00	 call	 ___RTDynamicCast
  0002b	83 c4 14	 add	 esp, 20			; 00000014H
  0002e	eb 02		 jmp	 SHORT $LN3@ToPlayEnti
$LN1@ToPlayEnti:

; 123  : 		return NULL;

  00030	33 c0		 xor	 eax, eax
$LN3@ToPlayEnti:
  00032	5e		 pop	 esi

; 126  : }

  00033	5d		 pop	 ebp
  00034	c3		 ret	 0
?ToPlayEntity@@YAPAVioPlayEntity@@PAVioGameEntity@@@Z ENDP ; ToPlayEntity
_TEXT	ENDS
PUBLIC	??_7ioWorldEventReceiver@@6B@			; ioWorldEventReceiver::`vftable'
PUBLIC	??0ioWorldEventReceiver@@QAE@XZ			; ioWorldEventReceiver::ioWorldEventReceiver
PUBLIC	??_R4ioWorldEventReceiver@@6B@			; ioWorldEventReceiver::`RTTI Complete Object Locator'
PUBLIC	??_R0?AVioWorldEventReceiver@@@8		; ioWorldEventReceiver `RTTI Type Descriptor'
PUBLIC	??_R3ioWorldEventReceiver@@8			; ioWorldEventReceiver::`RTTI Class Hierarchy Descriptor'
PUBLIC	??_R2ioWorldEventReceiver@@8			; ioWorldEventReceiver::`RTTI Base Class Array'
PUBLIC	??_R1A@?0A@EA@ioWorldEventReceiver@@8		; ioWorldEventReceiver::`RTTI Base Class Descriptor at (0,-1,0,64)'
EXTRN	__purecall:PROC
EXTRN	??_EioWorldEventReceiver@@UAEPAXI@Z:PROC	; ioWorldEventReceiver::`vector deleting destructor'
;	COMDAT ??_R1A@?0A@EA@ioWorldEventReceiver@@8
; File d:\lost saga for developer\youtube\tutorial\source\src\lsclient\ioworldeventreceiver.h
rdata$r	SEGMENT
??_R1A@?0A@EA@ioWorldEventReceiver@@8 DD FLAT:??_R0?AVioWorldEventReceiver@@@8 ; ioWorldEventReceiver::`RTTI Base Class Descriptor at (0,-1,0,64)'
	DD	00H
	DD	00H
	DD	0ffffffffH
	DD	00H
	DD	040H
	DD	FLAT:??_R3ioWorldEventReceiver@@8
rdata$r	ENDS
;	COMDAT ??_R2ioWorldEventReceiver@@8
rdata$r	SEGMENT
??_R2ioWorldEventReceiver@@8 DD FLAT:??_R1A@?0A@EA@ioWorldEventReceiver@@8 ; ioWorldEventReceiver::`RTTI Base Class Array'
rdata$r	ENDS
;	COMDAT ??_R3ioWorldEventReceiver@@8
rdata$r	SEGMENT
??_R3ioWorldEventReceiver@@8 DD 00H			; ioWorldEventReceiver::`RTTI Class Hierarchy Descriptor'
	DD	00H
	DD	01H
	DD	FLAT:??_R2ioWorldEventReceiver@@8
rdata$r	ENDS
;	COMDAT ??_R0?AVioWorldEventReceiver@@@8
_DATA	SEGMENT
??_R0?AVioWorldEventReceiver@@@8 DD FLAT:??_7type_info@@6B@ ; ioWorldEventReceiver `RTTI Type Descriptor'
	DD	00H
	DB	'.?AVioWorldEventReceiver@@', 00H
_DATA	ENDS
;	COMDAT ??_R4ioWorldEventReceiver@@6B@
rdata$r	SEGMENT
??_R4ioWorldEventReceiver@@6B@ DD 00H			; ioWorldEventReceiver::`RTTI Complete Object Locator'
	DD	00H
	DD	00H
	DD	FLAT:??_R0?AVioWorldEventReceiver@@@8
	DD	FLAT:??_R3ioWorldEventReceiver@@8
rdata$r	ENDS
;	COMDAT ??_7ioWorldEventReceiver@@6B@
CONST	SEGMENT
??_7ioWorldEventReceiver@@6B@ DD FLAT:??_R4ioWorldEventReceiver@@6B@ ; ioWorldEventReceiver::`vftable'
	DD	FLAT:__purecall
	DD	FLAT:__purecall
	DD	FLAT:__purecall
	DD	FLAT:??_EioWorldEventReceiver@@UAEPAXI@Z
; Function compile flags: /Ogsp
CONST	ENDS
;	COMDAT ??0ioWorldEventReceiver@@QAE@XZ
_TEXT	SEGMENT
??0ioWorldEventReceiver@@QAE@XZ PROC			; ioWorldEventReceiver::ioWorldEventReceiver, COMDAT
; _this$ = ecx

; 11   : 	ioWorldEventReceiver(){}

  00000	8b c1		 mov	 eax, ecx
  00002	c7 00 00 00 00
	00		 mov	 DWORD PTR [eax], OFFSET ??_7ioWorldEventReceiver@@6B@
  00008	c3		 ret	 0
??0ioWorldEventReceiver@@QAE@XZ ENDP			; ioWorldEventReceiver::ioWorldEventReceiver
_TEXT	ENDS
PUBLIC	??1ioWorldEventReceiver@@UAE@XZ			; ioWorldEventReceiver::~ioWorldEventReceiver
; Function compile flags: /Ogsp
;	COMDAT ??1ioWorldEventReceiver@@UAE@XZ
_TEXT	SEGMENT
??1ioWorldEventReceiver@@UAE@XZ PROC			; ioWorldEventReceiver::~ioWorldEventReceiver, COMDAT
; _this$ = ecx

; 12   : 	virtual ~ioWorldEventReceiver(){}

  00000	c7 01 00 00 00
	00		 mov	 DWORD PTR [ecx], OFFSET ??_7ioWorldEventReceiver@@6B@
  00006	c3		 ret	 0
??1ioWorldEventReceiver@@UAE@XZ ENDP			; ioWorldEventReceiver::~ioWorldEventReceiver
_TEXT	ENDS
EXTRN	??3@YAXPAX@Z:PROC				; operator delete
; Function compile flags: /Ogsp
;	COMDAT ??_GioWorldEventReceiver@@UAEPAXI@Z
_TEXT	SEGMENT
___flags$ = 8						; size = 4
??_GioWorldEventReceiver@@UAEPAXI@Z PROC		; ioWorldEventReceiver::`scalar deleting destructor', COMDAT
; _this$ = ecx
  00000	55		 push	 ebp
  00001	8b ec		 mov	 ebp, esp
  00003	f6 45 08 01	 test	 BYTE PTR ___flags$[ebp], 1
  00007	56		 push	 esi
  00008	8b f1		 mov	 esi, ecx
  0000a	c7 06 00 00 00
	00		 mov	 DWORD PTR [esi], OFFSET ??_7ioWorldEventReceiver@@6B@
  00010	74 07		 je	 SHORT $LN1@scalar
  00012	56		 push	 esi
  00013	e8 00 00 00 00	 call	 ??3@YAXPAX@Z		; operator delete
  00018	59		 pop	 ecx
$LN1@scalar:
  00019	8b c6		 mov	 eax, esi
  0001b	5e		 pop	 esi
  0001c	5d		 pop	 ebp
  0001d	c2 04 00	 ret	 4
??_GioWorldEventReceiver@@UAEPAXI@Z ENDP		; ioWorldEventReceiver::`scalar deleting destructor'
_TEXT	ENDS
PUBLIC	?GetOwnerCharName@ioFieldRewardItem@@QBEABVioHashString@@XZ ; ioFieldRewardItem::GetOwnerCharName
; Function compile flags: /Ogsp
; File d:\lost saga for developer\youtube\tutorial\source\src\lsclient\iofieldrewarditem.h
;	COMDAT ?GetOwnerCharName@ioFieldRewardItem@@QBEABVioHashString@@XZ
_TEXT	SEGMENT
?GetOwnerCharName@ioFieldRewardItem@@QBEABVioHashString@@XZ PROC ; ioFieldRewardItem::GetOwnerCharName, COMDAT
; _this$ = ecx

; 150  : 	inline const ioHashString &GetOwnerCharName() const { return m_szOwnerName; }

  00000	8d 81 28 02 00
	00		 lea	 eax, DWORD PTR [ecx+552]
  00006	c3		 ret	 0
?GetOwnerCharName@ioFieldRewardItem@@QBEABVioHashString@@XZ ENDP ; ioFieldRewardItem::GetOwnerCharName
_TEXT	ENDS
PUBLIC	?GetPublicID@ioMyInfo@@QBEABVioHashString@@XZ	; ioMyInfo::GetPublicID
; Function compile flags: /Ogsp
; File d:\lost saga for developer\youtube\tutorial\source\src\lsclient\iomyinfo.h
;	COMDAT ?GetPublicID@ioMyInfo@@QBEABVioHashString@@XZ
_TEXT	SEGMENT
?GetPublicID@ioMyInfo@@QBEABVioHashString@@XZ PROC	; ioMyInfo::GetPublicID, COMDAT
; _this$ = ecx

; 517  : 	const ioHashString& GetPublicID() const { return m_user_data.m_public_id; }    

  00000	8d 41 1c	 lea	 eax, DWORD PTR [ecx+28]
  00003	c3		 ret	 0
?GetPublicID@ioMyInfo@@QBEABVioHashString@@XZ ENDP	; ioMyInfo::GetPublicID
_TEXT	ENDS
PUBLIC	?GetCreator@ioPlayMode@@QBEPAVioPlayStage@@XZ	; ioPlayMode::GetCreator
; Function compile flags: /Ogsp
; File d:\lost saga for developer\youtube\tutorial\source\src\lsclient\ioplaymode.h
;	COMDAT ?GetCreator@ioPlayMode@@QBEPAVioPlayStage@@XZ
_TEXT	SEGMENT
?GetCreator@ioPlayMode@@QBEPAVioPlayStage@@XZ PROC	; ioPlayMode::GetCreator, COMDAT
; _this$ = ecx

; 631  : 	inline ioPlayStage* GetCreator() const { return m_pCreator; }

  00000	8b 41 34	 mov	 eax, DWORD PTR [ecx+52]
  00003	c3		 ret	 0
?GetCreator@ioPlayMode@@QBEPAVioPlayStage@@XZ ENDP	; ioPlayMode::GetCreator
_TEXT	ENDS
PUBLIC	??_R0?AVioBaseChar@@@8				; ioBaseChar `RTTI Type Descriptor'
PUBLIC	?ToBaseChar@@YAPAVioBaseChar@@PAVioGameEntity@@@Z ; ToBaseChar
;	COMDAT ??_R0?AVioBaseChar@@@8
; File d:\lost saga for developer\youtube\tutorial\source\src\lsclient\iobasechar.h
_DATA	SEGMENT
??_R0?AVioBaseChar@@@8 DD FLAT:??_7type_info@@6B@	; ioBaseChar `RTTI Type Descriptor'
	DD	00H
	DB	'.?AVioBaseChar@@', 00H
; Function compile flags: /Ogsp
_DATA	ENDS
;	COMDAT ?ToBaseChar@@YAPAVioBaseChar@@PAVioGameEntity@@@Z
_TEXT	SEGMENT
_pObj$ = 8						; size = 4
?ToBaseChar@@YAPAVioBaseChar@@PAVioGameEntity@@@Z PROC	; ToBaseChar, COMDAT

; 4326 : {

  00000	55		 push	 ebp
  00001	8b ec		 mov	 ebp, esp
  00003	56		 push	 esi

; 4327 : 	ioPlayEntity *pPlay = ToPlayEntity( pObj );

  00004	ff 75 08	 push	 DWORD PTR _pObj$[ebp]
  00007	e8 00 00 00 00	 call	 ?ToPlayEntity@@YAPAVioPlayEntity@@PAVioGameEntity@@@Z ; ToPlayEntity
  0000c	8b f0		 mov	 esi, eax
  0000e	59		 pop	 ecx

; 4328 : 	if( !pPlay || pPlay->GetSubType() != ioPlayEntity::PST_CHAR )

  0000f	85 f6		 test	 esi, esi
  00011	74 25		 je	 SHORT $LN1@ToBaseChar
  00013	8b 06		 mov	 eax, DWORD PTR [esi]
  00015	8b ce		 mov	 ecx, esi
  00017	ff 90 a4 00 00
	00		 call	 DWORD PTR [eax+164]
  0001d	85 c0		 test	 eax, eax
  0001f	75 17		 jne	 SHORT $LN1@ToBaseChar

; 4330 : 
; 4331 : 	return dynamic_cast< ioBaseChar* >( pPlay );

  00021	50		 push	 eax
  00022	68 00 00 00 00	 push	 OFFSET ??_R0?AVioBaseChar@@@8
  00027	68 00 00 00 00	 push	 OFFSET ??_R0?AVioPlayEntity@@@8
  0002c	50		 push	 eax
  0002d	56		 push	 esi
  0002e	e8 00 00 00 00	 call	 ___RTDynamicCast
  00033	83 c4 14	 add	 esp, 20			; 00000014H
  00036	eb 02		 jmp	 SHORT $LN3@ToBaseChar
$LN1@ToBaseChar:

; 4329 : 		return NULL;

  00038	33 c0		 xor	 eax, eax
$LN3@ToBaseChar:
  0003a	5e		 pop	 esi

; 4332 : }

  0003b	5d		 pop	 ebp
  0003c	c3		 ret	 0
?ToBaseChar@@YAPAVioBaseChar@@PAVioGameEntity@@@Z ENDP	; ToBaseChar
_TEXT	ENDS
PUBLIC	__real@43160000
PUBLIC	__real@43960000
PUBLIC	??_7ioFieldRewardItem@@6BioWorldEventReceiver@@@ ; ioFieldRewardItem::`vftable'
PUBLIC	??_7ioFieldRewardItem@@6BioPlayEntity@@@	; ioFieldRewardItem::`vftable'
PUBLIC	??0ioFieldRewardItem@@QAE@PAVioEntityGroup@@PAVioPlayMode@@HH@Z ; ioFieldRewardItem::ioFieldRewardItem
PUBLIC	??_R4ioFieldRewardItem@@6BioPlayEntity@@@	; ioFieldRewardItem::`RTTI Complete Object Locator'
PUBLIC	??_R0?AVioFieldRewardItem@@@8			; ioFieldRewardItem `RTTI Type Descriptor'
PUBLIC	??_R3ioFieldRewardItem@@8			; ioFieldRewardItem::`RTTI Class Hierarchy Descriptor'
PUBLIC	??_R2ioFieldRewardItem@@8			; ioFieldRewardItem::`RTTI Base Class Array'
PUBLIC	??_R1A@?0A@EA@ioFieldRewardItem@@8		; ioFieldRewardItem::`RTTI Base Class Descriptor at (0,-1,0,64)'
PUBLIC	??_R1A@?0A@EA@ioPlayEntity@@8			; ioPlayEntity::`RTTI Base Class Descriptor at (0,-1,0,64)'
PUBLIC	??_R3ioPlayEntity@@8				; ioPlayEntity::`RTTI Class Hierarchy Descriptor'
PUBLIC	??_R2ioPlayEntity@@8				; ioPlayEntity::`RTTI Base Class Array'
PUBLIC	??_R1A@?0A@EA@ioGameEntity@@8			; ioGameEntity::`RTTI Base Class Descriptor at (0,-1,0,64)'
PUBLIC	??_R3ioGameEntity@@8				; ioGameEntity::`RTTI Class Hierarchy Descriptor'
PUBLIC	??_R2ioGameEntity@@8				; ioGameEntity::`RTTI Base Class Array'
PUBLIC	??_R1A@?0A@EA@ioEntityEvent@@8			; ioEntityEvent::`RTTI Base Class Descriptor at (0,-1,0,64)'
PUBLIC	??_R0?AVioEntityEvent@@@8			; ioEntityEvent `RTTI Type Descriptor'
PUBLIC	??_R3ioEntityEvent@@8				; ioEntityEvent::`RTTI Class Hierarchy Descriptor'
PUBLIC	??_R2ioEntityEvent@@8				; ioEntityEvent::`RTTI Base Class Array'
PUBLIC	??_R1BMI@?0A@EA@ioWorldEventReceiver@@8		; ioWorldEventReceiver::`RTTI Base Class Descriptor at (456,-1,0,64)'
PUBLIC	?Update@ioFieldRewardItem@@UAEXMKK@Z		; ioFieldRewardItem::Update
PUBLIC	?UpdateBound@ioFieldRewardItem@@MBEXXZ		; ioFieldRewardItem::UpdateBound
PUBLIC	?NeedUpdateBottomHeight@ioGameEntity@@UAEXXZ	; ioGameEntity::NeedUpdateBottomHeight
PUBLIC	?TranslateByConveyer@ioFieldRewardItem@@UAEXABUD3DXVECTOR3@@@Z ; ioFieldRewardItem::TranslateByConveyer
PUBLIC	?TranslateByWorldEntity@ioFieldRewardItem@@UAEXABUD3DXVECTOR3@@@Z ; ioFieldRewardItem::TranslateByWorldEntity
PUBLIC	?DontMoveCollisionPushingTranslate@ioFieldRewardItem@@UAEXPAVioGameEntity@@ABUD3DXVECTOR3@@@Z ; ioFieldRewardItem::DontMoveCollisionPushingTranslate
PUBLIC	?SetTeam@ioPlayEntity@@UAEXW4TeamType@@@Z	; ioPlayEntity::SetTeam
PUBLIC	??_R4ioFieldRewardItem@@6BioWorldEventReceiver@@@ ; ioFieldRewardItem::`RTTI Complete Object Locator'
PUBLIC	?OnTelepotation@ioFieldRewardItem@@UAEXABUD3DXVECTOR3@@@Z ; ioFieldRewardItem::OnTelepotation
PUBLIC	??_EioFieldRewardItem@@WBMI@AEPAXI@Z		; [thunk]:ioFieldRewardItem::`vector deleting destructor'
EXTRN	??1ioPlayEntity@@UAE@XZ:PROC			; ioPlayEntity::~ioPlayEntity
EXTRN	__imp_??0ioHashString@@QAE@XZ:PROC
EXTRN	??0ioPlayEntity@@QAE@PAVioEntityGroup@@PAVioPlayMode@@@Z:PROC ; ioPlayEntity::ioPlayEntity
EXTRN	?AddEntityEvent@ioEntityEvent@@UAEXPAVioEntity@@@Z:PROC ; ioEntityEvent::AddEntityEvent
EXTRN	??_EioFieldRewardItem@@UAEPAXI@Z:PROC		; ioFieldRewardItem::`vector deleting destructor'
EXTRN	?GetTypeID@ioPlayEntity@@UBEHXZ:PROC		; ioPlayEntity::GetTypeID
EXTRN	?IsMountAvailable@ioGameEntity@@UBE_NXZ:PROC	; ioGameEntity::IsMountAvailable
EXTRN	?IsMountingAvailable@ioGameEntity@@UBE_NXZ:PROC	; ioGameEntity::IsMountingAvailable
EXTRN	?IsNowMountEnable@ioGameEntity@@UBE_NXZ:PROC	; ioGameEntity::IsNowMountEnable
EXTRN	?IsAllWeaponDefence@ioGameEntity@@UBE_NXZ:PROC	; ioGameEntity::IsAllWeaponDefence
EXTRN	?HasEntity@ioGameEntity@@UAE_NABVioHashString@@@Z:PROC ; ioGameEntity::HasEntity
EXTRN	?AddEntity@ioGameEntity@@UAEPAVioEntity@@ABVioHashString@@@Z:PROC ; ioGameEntity::AddEntity
EXTRN	?DestroyEntity@ioGameEntity@@UAE_NABVioHashString@@@Z:PROC ; ioGameEntity::DestroyEntity
EXTRN	?GetEntity@ioGameEntity@@UAEPAVioEntity@@ABVioHashString@@@Z:PROC ; ioGameEntity::GetEntity
EXTRN	?SetWorldPosition@ioGameEntity@@UAEXABUD3DXVECTOR3@@@Z:PROC ; ioGameEntity::SetWorldPosition
EXTRN	?SetWorldOrientation@ioGameEntity@@UAEXABUD3DXQUATERNION@@@Z:PROC ; ioGameEntity::SetWorldOrientation
EXTRN	?SetWorldScale@ioGameEntity@@UAEXABUD3DXVECTOR3@@@Z:PROC ; ioGameEntity::SetWorldScale
EXTRN	?Translate@ioGameEntity@@UAEXABUD3DXVECTOR3@@@Z:PROC ; ioGameEntity::Translate
EXTRN	?MapCollisionPushingTranslate@ioGameEntity@@UAEXABUD3DXVECTOR3@@@Z:PROC ; ioGameEntity::MapCollisionPushingTranslate
EXTRN	?Rotate@ioGameEntity@@UAEXABUD3DXVECTOR3@@MW4TransformSpace@ioNode@@@Z:PROC ; ioGameEntity::Rotate
EXTRN	?Scale@ioGameEntity@@UAEXMMM@Z:PROC		; ioGameEntity::Scale
EXTRN	?Scale@ioGameEntity@@UAEXABUD3DXVECTOR3@@@Z:PROC ; ioGameEntity::Scale
EXTRN	?GetWorldPosition@ioGameEntity@@UBEABUD3DXVECTOR3@@XZ:PROC ; ioGameEntity::GetWorldPosition
EXTRN	?GetWorldOrientation@ioGameEntity@@UBEABUD3DXQUATERNION@@XZ:PROC ; ioGameEntity::GetWorldOrientation
EXTRN	?GetWorldScale@ioGameEntity@@UBEABUD3DXVECTOR3@@XZ:PROC ; ioGameEntity::GetWorldScale
EXTRN	?IsCollisionAvailableRange@ioPlayEntity@@UAE_NPAVioWeapon@@@Z:PROC ; ioPlayEntity::IsCollisionAvailableRange
EXTRN	?IsEntityCollisionSkipState@ioPlayEntity@@UBE_NPAVioGameEntity@@@Z:PROC ; ioPlayEntity::IsEntityCollisionSkipState
EXTRN	?IsCharCollisionSkipState@ioPlayEntity@@UBE_NW4TeamType@@H@Z:PROC ; ioPlayEntity::IsCharCollisionSkipState
EXTRN	?GetAttackCollisionBox@ioPlayEntity@@UAE?AVioOrientBox@@W4AniCollisionType@@_N@Z:PROC ; ioPlayEntity::GetAttackCollisionBox
EXTRN	?CheckSphereDistance@ioPlayEntity@@UBE_NABUD3DXVECTOR3@@MAAM@Z:PROC ; ioPlayEntity::CheckSphereDistance
EXTRN	?CheckSpherePoint@ioPlayEntity@@UBE_NABUD3DXVECTOR3@@MAAU2@@Z:PROC ; ioPlayEntity::CheckSpherePoint
EXTRN	?CheckCylinderPoint@ioPlayEntity@@UBE_NABVioCylinder@@ABUD3DXVECTOR3@@AAU3@@Z:PROC ; ioPlayEntity::CheckCylinderPoint
EXTRN	?DontMoveEntityLevel@ioPlayEntity@@UBEHXZ:PROC	; ioPlayEntity::DontMoveEntityLevel
EXTRN	?NotifyDontMoveCollisionPushingSkip@ioPlayEntity@@UAEXPAVioGameEntity@@@Z:PROC ; ioPlayEntity::NotifyDontMoveCollisionPushingSkip
EXTRN	?LoadProperty@ioPlayEntity@@UAEXAAVioINILoader@@@Z:PROC ; ioPlayEntity::LoadProperty
EXTRN	?Revival@ioPlayEntity@@UAEXXZ:PROC		; ioPlayEntity::Revival
EXTRN	?UpdateGauge@ioPlayEntity@@UAEXXZ:PROC		; ioPlayEntity::UpdateGauge
EXTRN	?RenderGauge@ioPlayEntity@@UAEXXZ:PROC		; ioPlayEntity::RenderGauge
EXTRN	?FillMaxHP@ioPlayEntity@@UAEXXZ:PROC		; ioPlayEntity::FillMaxHP
EXTRN	?ProcessRecovery@ioPlayEntity@@MAEXXZ:PROC	; ioPlayEntity::ProcessRecovery
EXTRN	?AddHeadDamageInfo@ioPlayEntity@@UAEXH_N@Z:PROC	; ioPlayEntity::AddHeadDamageInfo
EXTRN	?RenderHeadInfoList@ioPlayEntity@@UAEXHH@Z:PROC	; ioPlayEntity::RenderHeadInfoList
EXTRN	?UpdateHeadInfoList@ioPlayEntity@@MAEXK@Z:PROC	; ioPlayEntity::UpdateHeadInfoList
;	COMDAT ??_R4ioFieldRewardItem@@6BioWorldEventReceiver@@@
; File c:\program files (x86)\microsoft directx sdk (june 2010)\include\d3dx9math.h
rdata$r	SEGMENT
??_R4ioFieldRewardItem@@6BioWorldEventReceiver@@@ DD 00H ; ioFieldRewardItem::`RTTI Complete Object Locator'
	DD	01c8H
	DD	00H
	DD	FLAT:??_R0?AVioFieldRewardItem@@@8
	DD	FLAT:??_R3ioFieldRewardItem@@8
rdata$r	ENDS
;	COMDAT ??_R1BMI@?0A@EA@ioWorldEventReceiver@@8
rdata$r	SEGMENT
??_R1BMI@?0A@EA@ioWorldEventReceiver@@8 DD FLAT:??_R0?AVioWorldEventReceiver@@@8 ; ioWorldEventReceiver::`RTTI Base Class Descriptor at (456,-1,0,64)'
	DD	00H
	DD	01c8H
	DD	0ffffffffH
	DD	00H
	DD	040H
	DD	FLAT:??_R3ioWorldEventReceiver@@8
rdata$r	ENDS
;	COMDAT ??_R2ioEntityEvent@@8
rdata$r	SEGMENT
??_R2ioEntityEvent@@8 DD FLAT:??_R1A@?0A@EA@ioEntityEvent@@8 ; ioEntityEvent::`RTTI Base Class Array'
rdata$r	ENDS
;	COMDAT ??_R3ioEntityEvent@@8
rdata$r	SEGMENT
??_R3ioEntityEvent@@8 DD 00H				; ioEntityEvent::`RTTI Class Hierarchy Descriptor'
	DD	00H
	DD	01H
	DD	FLAT:??_R2ioEntityEvent@@8
rdata$r	ENDS
;	COMDAT ??_R0?AVioEntityEvent@@@8
_DATA	SEGMENT
??_R0?AVioEntityEvent@@@8 DD FLAT:??_7type_info@@6B@	; ioEntityEvent `RTTI Type Descriptor'
	DD	00H
	DB	'.?AVioEntityEvent@@', 00H
_DATA	ENDS
;	COMDAT ??_R1A@?0A@EA@ioEntityEvent@@8
rdata$r	SEGMENT
??_R1A@?0A@EA@ioEntityEvent@@8 DD FLAT:??_R0?AVioEntityEvent@@@8 ; ioEntityEvent::`RTTI Base Class Descriptor at (0,-1,0,64)'
	DD	00H
	DD	00H
	DD	0ffffffffH
	DD	00H
	DD	040H
	DD	FLAT:??_R3ioEntityEvent@@8
rdata$r	ENDS
;	COMDAT ??_R2ioGameEntity@@8
rdata$r	SEGMENT
??_R2ioGameEntity@@8 DD FLAT:??_R1A@?0A@EA@ioGameEntity@@8 ; ioGameEntity::`RTTI Base Class Array'
	DD	FLAT:??_R1A@?0A@EA@ioEntityEvent@@8
rdata$r	ENDS
;	COMDAT ??_R3ioGameEntity@@8
rdata$r	SEGMENT
??_R3ioGameEntity@@8 DD 00H				; ioGameEntity::`RTTI Class Hierarchy Descriptor'
	DD	00H
	DD	02H
	DD	FLAT:??_R2ioGameEntity@@8
rdata$r	ENDS
;	COMDAT ??_R1A@?0A@EA@ioGameEntity@@8
rdata$r	SEGMENT
??_R1A@?0A@EA@ioGameEntity@@8 DD FLAT:??_R0?AVioGameEntity@@@8 ; ioGameEntity::`RTTI Base Class Descriptor at (0,-1,0,64)'
	DD	01H
	DD	00H
	DD	0ffffffffH
	DD	00H
	DD	040H
	DD	FLAT:??_R3ioGameEntity@@8
rdata$r	ENDS
;	COMDAT ??_R2ioPlayEntity@@8
rdata$r	SEGMENT
??_R2ioPlayEntity@@8 DD FLAT:??_R1A@?0A@EA@ioPlayEntity@@8 ; ioPlayEntity::`RTTI Base Class Array'
	DD	FLAT:??_R1A@?0A@EA@ioGameEntity@@8
	DD	FLAT:??_R1A@?0A@EA@ioEntityEvent@@8
rdata$r	ENDS
;	COMDAT ??_R3ioPlayEntity@@8
rdata$r	SEGMENT
??_R3ioPlayEntity@@8 DD 00H				; ioPlayEntity::`RTTI Class Hierarchy Descriptor'
	DD	00H
	DD	03H
	DD	FLAT:??_R2ioPlayEntity@@8
rdata$r	ENDS
;	COMDAT ??_R1A@?0A@EA@ioPlayEntity@@8
rdata$r	SEGMENT
??_R1A@?0A@EA@ioPlayEntity@@8 DD FLAT:??_R0?AVioPlayEntity@@@8 ; ioPlayEntity::`RTTI Base Class Descriptor at (0,-1,0,64)'
	DD	02H
	DD	00H
	DD	0ffffffffH
	DD	00H
	DD	040H
	DD	FLAT:??_R3ioPlayEntity@@8
rdata$r	ENDS
;	COMDAT ??_R1A@?0A@EA@ioFieldRewardItem@@8
rdata$r	SEGMENT
??_R1A@?0A@EA@ioFieldRewardItem@@8 DD FLAT:??_R0?AVioFieldRewardItem@@@8 ; ioFieldRewardItem::`RTTI Base Class Descriptor at (0,-1,0,64)'
	DD	04H
	DD	00H
	DD	0ffffffffH
	DD	00H
	DD	040H
	DD	FLAT:??_R3ioFieldRewardItem@@8
rdata$r	ENDS
;	COMDAT ??_R2ioFieldRewardItem@@8
rdata$r	SEGMENT
??_R2ioFieldRewardItem@@8 DD FLAT:??_R1A@?0A@EA@ioFieldRewardItem@@8 ; ioFieldRewardItem::`RTTI Base Class Array'
	DD	FLAT:??_R1A@?0A@EA@ioPlayEntity@@8
	DD	FLAT:??_R1A@?0A@EA@ioGameEntity@@8
	DD	FLAT:??_R1A@?0A@EA@ioEntityEvent@@8
	DD	FLAT:??_R1BMI@?0A@EA@ioWorldEventReceiver@@8
rdata$r	ENDS
;	COMDAT ??_R3ioFieldRewardItem@@8
rdata$r	SEGMENT
??_R3ioFieldRewardItem@@8 DD 00H			; ioFieldRewardItem::`RTTI Class Hierarchy Descriptor'
	DD	01H
	DD	05H
	DD	FLAT:??_R2ioFieldRewardItem@@8
rdata$r	ENDS
;	COMDAT ??_R0?AVioFieldRewardItem@@@8
_DATA	SEGMENT
??_R0?AVioFieldRewardItem@@@8 DD FLAT:??_7type_info@@6B@ ; ioFieldRewardItem `RTTI Type Descriptor'
	DD	00H
	DB	'.?AVioFieldRewardItem@@', 00H
_DATA	ENDS
;	COMDAT ??_R4ioFieldRewardItem@@6BioPlayEntity@@@
rdata$r	SEGMENT
??_R4ioFieldRewardItem@@6BioPlayEntity@@@ DD 00H	; ioFieldRewardItem::`RTTI Complete Object Locator'
	DD	00H
	DD	00H
	DD	FLAT:??_R0?AVioFieldRewardItem@@@8
	DD	FLAT:??_R3ioFieldRewardItem@@8
rdata$r	ENDS
;	COMDAT __real@43160000
CONST	SEGMENT
__real@43160000 DD 043160000r			; 150
CONST	ENDS
;	COMDAT __real@43960000
CONST	SEGMENT
__real@43960000 DD 043960000r			; 300
CONST	ENDS
;	COMDAT ??_7ioFieldRewardItem@@6BioWorldEventReceiver@@@
CONST	SEGMENT
??_7ioFieldRewardItem@@6BioWorldEventReceiver@@@ DD FLAT:??_R4ioFieldRewardItem@@6BioWorldEventReceiver@@@ ; ioFieldRewardItem::`vftable'
	DD	FLAT:?OnTelepotation@ioFieldRewardItem@@UAEXABUD3DXVECTOR3@@@Z
	DD	FLAT:?OnFireZoneDamage@ioFieldRewardItem@@UAEXMABVioHashString@@@Z
	DD	FLAT:?OnPoisonZoneDamage@ioFieldRewardItem@@UAEXXZ
	DD	FLAT:??_EioFieldRewardItem@@WBMI@AEPAXI@Z
CONST	ENDS
;	COMDAT ??_7ioFieldRewardItem@@6BioPlayEntity@@@
CONST	SEGMENT
??_7ioFieldRewardItem@@6BioPlayEntity@@@ DD FLAT:??_R4ioFieldRewardItem@@6BioPlayEntity@@@ ; ioFieldRewardItem::`vftable'
	DD	FLAT:?AddEntityEvent@ioEntityEvent@@UAEXPAVioEntity@@@Z
	DD	FLAT:??_EioFieldRewardItem@@UAEPAXI@Z
	DD	FLAT:?Update@ioFieldRewardItem@@UAEXMKK@Z
	DD	FLAT:?UpdateAfter@ioFieldRewardItem@@UAEXM@Z
	DD	FLAT:?GetTypeID@ioPlayEntity@@UBEHXZ
	DD	FLAT:?IsNeedCheckMapCollision@ioFieldRewardItem@@UBE_NXZ
	DD	FLAT:?IsMountAvailable@ioGameEntity@@UBE_NXZ
	DD	FLAT:?IsMountingAvailable@ioGameEntity@@UBE_NXZ
	DD	FLAT:?IsNowMountEnable@ioGameEntity@@UBE_NXZ
	DD	FLAT:?IsAllWeaponDefence@ioGameEntity@@UBE_NXZ
	DD	FLAT:?HasEntity@ioGameEntity@@UAE_NABVioHashString@@@Z
	DD	FLAT:?AddEntity@ioGameEntity@@UAEPAVioEntity@@ABVioHashString@@@Z
	DD	FLAT:?DestroyEntity@ioGameEntity@@UAE_NABVioHashString@@@Z
	DD	FLAT:?GetEntity@ioGameEntity@@UAEPAVioEntity@@ABVioHashString@@@Z
	DD	FLAT:?UpdateBound@ioFieldRewardItem@@MBEXXZ
	DD	FLAT:?UpdateBottomHeight@ioFieldRewardItem@@MBEXXZ
	DD	FLAT:?NeedUpdateBottomHeight@ioGameEntity@@UAEXXZ
	DD	FLAT:?SetWorldPosition@ioGameEntity@@UAEXABUD3DXVECTOR3@@@Z
	DD	FLAT:?SetWorldOrientation@ioGameEntity@@UAEXABUD3DXQUATERNION@@@Z
	DD	FLAT:?SetWorldScale@ioGameEntity@@UAEXABUD3DXVECTOR3@@@Z
	DD	FLAT:?Translate@ioGameEntity@@UAEXABUD3DXVECTOR3@@@Z
	DD	FLAT:?TranslateByConveyer@ioFieldRewardItem@@UAEXABUD3DXVECTOR3@@@Z
	DD	FLAT:?TranslateByWorldEntity@ioFieldRewardItem@@UAEXABUD3DXVECTOR3@@@Z
	DD	FLAT:?MapCollisionPushingTranslate@ioGameEntity@@UAEXABUD3DXVECTOR3@@@Z
	DD	FLAT:?DontMoveCollisionPushingTranslate@ioFieldRewardItem@@UAEXPAVioGameEntity@@ABUD3DXVECTOR3@@@Z
	DD	FLAT:?Rotate@ioGameEntity@@UAEXABUD3DXVECTOR3@@MW4TransformSpace@ioNode@@@Z
	DD	FLAT:?Scale@ioGameEntity@@UAEXMMM@Z
	DD	FLAT:?Scale@ioGameEntity@@UAEXABUD3DXVECTOR3@@@Z
	DD	FLAT:?GetWorldPosition@ioGameEntity@@UBEABUD3DXVECTOR3@@XZ
	DD	FLAT:?GetWorldOrientation@ioGameEntity@@UBEABUD3DXQUATERNION@@XZ
	DD	FLAT:?GetWorldScale@ioGameEntity@@UBEABUD3DXVECTOR3@@XZ
	DD	FLAT:?ApplyWeapon@ioFieldRewardItem@@UAE?AW4ApplyWeaponExp@@PAVioWeapon@@@Z
	DD	FLAT:?IsCollisionAvailableWeapon@ioFieldRewardItem@@UAE_NPAVioWeapon@@@Z
	DD	FLAT:?IsCollisionAvailableRange@ioPlayEntity@@UAE_NPAVioWeapon@@@Z
	DD	FLAT:?IsEntityCollisionSkipState@ioPlayEntity@@UBE_NPAVioGameEntity@@@Z
	DD	FLAT:?IsCharCollisionSkipState@ioPlayEntity@@UBE_NW4TeamType@@H@Z
	DD	FLAT:?IsWoundedCollision@ioFieldRewardItem@@UBE_NABVioOrientBox@@PAUD3DXVECTOR3@@@Z
	DD	FLAT:?GetAttackCollisionBox@ioPlayEntity@@UAE?AVioOrientBox@@W4AniCollisionType@@_N@Z
	DD	FLAT:?CheckSphereDistance@ioPlayEntity@@UBE_NABUD3DXVECTOR3@@MAAM@Z
	DD	FLAT:?CheckSpherePoint@ioPlayEntity@@UBE_NABUD3DXVECTOR3@@MAAU2@@Z
	DD	FLAT:?CheckCylinderPoint@ioPlayEntity@@UBE_NABVioCylinder@@ABUD3DXVECTOR3@@AAU3@@Z
	DD	FLAT:?GetSubType@ioFieldRewardItem@@UBE?AW4PlaySubType@ioPlayEntity@@XZ
	DD	FLAT:?GetArmorType@ioFieldRewardItem@@UBE?AW4ArmorType@@XZ
	DD	FLAT:?DontMoveEntityLevel@ioPlayEntity@@UBEHXZ
	DD	FLAT:?NotifyDontMoveCollisionPushingSkip@ioPlayEntity@@UAEXPAVioGameEntity@@@Z
	DD	FLAT:?LoadProperty@ioPlayEntity@@UAEXAAVioINILoader@@@Z
	DD	FLAT:?GetWorldEventReceiver@ioFieldRewardItem@@UAEPAVioWorldEventReceiver@@XZ
	DD	FLAT:?Revival@ioPlayEntity@@UAEXXZ
	DD	FLAT:?UpdateGauge@ioPlayEntity@@UAEXXZ
	DD	FLAT:?RenderGauge@ioPlayEntity@@UAEXXZ
	DD	FLAT:?FillMaxHP@ioPlayEntity@@UAEXXZ
	DD	FLAT:?ProcessRecovery@ioPlayEntity@@MAEXXZ
	DD	FLAT:?AddHeadDamageInfo@ioPlayEntity@@UAEXH_N@Z
	DD	FLAT:?RenderHeadInfoList@ioPlayEntity@@UAEXHH@Z
	DD	FLAT:?UpdateHeadInfoList@ioPlayEntity@@MAEXK@Z
	DD	FLAT:?SetTeam@ioPlayEntity@@UAEXW4TeamType@@@Z
CONST	ENDS
;	COMDAT xdata$x
xdata$x	SEGMENT
__unwindtable$??0ioFieldRewardItem@@QAE@PAVioEntityGroup@@PAVioPlayMode@@HH@Z DD 0ffffffffH
	DD	FLAT:__unwindfunclet$??0ioFieldRewardItem@@QAE@PAVioEntityGroup@@PAVioPlayMode@@HH@Z$0
	DD	00H
	DD	FLAT:__unwindfunclet$??0ioFieldRewardItem@@QAE@PAVioEntityGroup@@PAVioPlayMode@@HH@Z$1
	DD	01H
	DD	FLAT:__unwindfunclet$??0ioFieldRewardItem@@QAE@PAVioEntityGroup@@PAVioPlayMode@@HH@Z$2
__ehfuncinfo$??0ioFieldRewardItem@@QAE@PAVioEntityGroup@@PAVioPlayMode@@HH@Z DD 019930522H
	DD	03H
	DD	FLAT:__unwindtable$??0ioFieldRewardItem@@QAE@PAVioEntityGroup@@PAVioPlayMode@@HH@Z
	DD	2 DUP(00H)
	DD	2 DUP(00H)
	DD	00H
	DD	01H
; Function compile flags: /Ogsp
; File d:\lost saga for developer\youtube\tutorial\source\src\lsclient\iofieldrewarditem.cpp
xdata$x	ENDS
;	COMDAT ??0ioFieldRewardItem@@QAE@PAVioEntityGroup@@PAVioPlayMode@@HH@Z
_TEXT	SEGMENT
_this$ = -16						; size = 4
__$EHRec$ = -12						; size = 12
_pGrp$ = 8						; size = 4
_pMode$ = 12						; size = 4
_iFieldRewardUniqueIndex$ = 16				; size = 4
_iFieldRewardResourceIndex$ = 20			; size = 4
??0ioFieldRewardItem@@QAE@PAVioEntityGroup@@PAVioPlayMode@@HH@Z PROC ; ioFieldRewardItem::ioFieldRewardItem, COMDAT
; _this$ = ecx

; 11   : {

  00000	6a 04		 push	 4
  00002	b8 00 00 00 00	 mov	 eax, __ehhandler$??0ioFieldRewardItem@@QAE@PAVioEntityGroup@@PAVioPlayMode@@HH@Z
  00007	e8 00 00 00 00	 call	 __EH_prolog3
  0000c	8b f1		 mov	 esi, ecx
  0000e	89 75 f0	 mov	 DWORD PTR _this$[ebp], esi
  00011	ff 75 0c	 push	 DWORD PTR _pMode$[ebp]
  00014	ff 75 08	 push	 DWORD PTR _pGrp$[ebp]
  00017	e8 00 00 00 00	 call	 ??0ioPlayEntity@@QAE@PAVioEntityGroup@@PAVioPlayMode@@@Z ; ioPlayEntity::ioPlayEntity
  0001c	33 db		 xor	 ebx, ebx
  0001e	89 5d fc	 mov	 DWORD PTR __$EHRec$[ebp+8], ebx
  00021	c7 86 c8 01 00
	00 00 00 00 00	 mov	 DWORD PTR [esi+456], OFFSET ??_7ioWorldEventReceiver@@6B@
  0002b	8d 8e 28 02 00
	00		 lea	 ecx, DWORD PTR [esi+552]
  00031	c6 45 fc 01	 mov	 BYTE PTR __$EHRec$[ebp+8], 1
  00035	c7 06 00 00 00
	00		 mov	 DWORD PTR [esi], OFFSET ??_7ioFieldRewardItem@@6BioPlayEntity@@@
  0003b	c7 86 c8 01 00
	00 00 00 00 00	 mov	 DWORD PTR [esi+456], OFFSET ??_7ioFieldRewardItem@@6BioWorldEventReceiver@@@
  00045	ff 15 00 00 00
	00		 call	 DWORD PTR __imp_??0ioHashString@@QAE@XZ

; 12   : 	m_ItemEffect = -1;
; 13   : 	m_PickEnableEffect = -1;
; 14   : 	m_CreateDropEffect = -1;
; 15   : 
; 16   : 	m_ItemState = FIS_NORMAL;
; 17   : 	m_ReserveNext = RN_NONE;
; 18   : 
; 19   : 	m_fDropPower = 300.0f;

  0004b	f3 0f 10 05 00
	00 00 00	 movss	 xmm0, DWORD PTR __real@43960000

; 20   : 	m_fDropFriction = 150.0f;
; 21   : 
; 22   : 	m_pItemIcon = NULL;
; 23   : 	m_pItemBack = NULL;
; 24   : 	
; 25   : 	m_bOwnerCharOver = false;
; 26   : 
; 27   : 	m_vPrePos.x = 0.0f;
; 28   : 	m_vPrePos.y = 0.0f;
; 29   : 	m_vPrePos.z = 0.0f;
; 30   : 	m_dwDropTime = 0;
; 31   : 
; 32   : 	m_fMoveSpeed = 0.0f;
; 33   : 	m_bDroppingEndHide = false;
; 34   : 
; 35   : 	m_iFieldRewardUniqueIndex   = iFieldRewardUniqueIndex;

  00053	8b 45 10	 mov	 eax, DWORD PTR _iFieldRewardUniqueIndex$[ebp]
  00056	83 8e cc 01 00
	00 ff		 or	 DWORD PTR [esi+460], -1
  0005d	83 8e d0 01 00
	00 ff		 or	 DWORD PTR [esi+464], -1
  00064	83 8e d4 01 00
	00 ff		 or	 DWORD PTR [esi+468], -1
  0006b	f3 0f 11 86 ec
	01 00 00	 movss	 DWORD PTR [esi+492], xmm0
  00073	f3 0f 10 05 00
	00 00 00	 movss	 xmm0, DWORD PTR __real@43160000
  0007b	89 86 38 02 00
	00		 mov	 DWORD PTR [esi+568], eax

; 36   : 	m_iFieldRewardResourceIndex = iFieldRewardResourceIndex;

  00081	8b 45 14	 mov	 eax, DWORD PTR _iFieldRewardResourceIndex$[ebp]
  00084	f3 0f 11 86 f0
	01 00 00	 movss	 DWORD PTR [esi+496], xmm0
  0008c	0f 57 c0	 xorps	 xmm0, xmm0
  0008f	c6 45 fc 02	 mov	 BYTE PTR __$EHRec$[ebp+8], 2
  00093	89 9e d8 01 00
	00		 mov	 DWORD PTR [esi+472], ebx
  00099	89 9e dc 01 00
	00		 mov	 DWORD PTR [esi+476], ebx
  0009f	89 9e f4 01 00
	00		 mov	 DWORD PTR [esi+500], ebx
  000a5	89 9e f8 01 00
	00		 mov	 DWORD PTR [esi+504], ebx
  000ab	88 9e fc 01 00
	00		 mov	 BYTE PTR [esi+508], bl
  000b1	f3 0f 11 86 04
	02 00 00	 movss	 DWORD PTR [esi+516], xmm0
  000b9	f3 0f 11 86 08
	02 00 00	 movss	 DWORD PTR [esi+520], xmm0
  000c1	f3 0f 11 86 0c
	02 00 00	 movss	 DWORD PTR [esi+524], xmm0
  000c9	89 9e 00 02 00
	00		 mov	 DWORD PTR [esi+512], ebx
  000cf	f3 0f 11 86 14
	02 00 00	 movss	 DWORD PTR [esi+532], xmm0
  000d7	88 9e 24 02 00
	00		 mov	 BYTE PTR [esi+548], bl
  000dd	89 86 3c 02 00
	00		 mov	 DWORD PTR [esi+572], eax

; 37   : 
; 38   : 	m_dwCreateTime = FRAMEGETTIME();

  000e3	ff 15 00 00 00
	00		 call	 DWORD PTR __imp_?GetSingleton@ioFrameTimer@@SAAAV1@XZ
  000e9	8b c8		 mov	 ecx, eax
  000eb	ff 15 00 00 00
	00		 call	 DWORD PTR __imp_?GetLoopSec@ioFrameTimer@@QBEKXZ
  000f1	89 86 10 02 00
	00		 mov	 DWORD PTR [esi+528], eax

; 39   : }

  000f7	8b c6		 mov	 eax, esi
  000f9	e8 00 00 00 00	 call	 __EH_epilog3
  000fe	c2 10 00	 ret	 16			; 00000010H
_TEXT	ENDS
;	COMDAT text$x
text$x	SEGMENT
__unwindfunclet$??0ioFieldRewardItem@@QAE@PAVioEntityGroup@@PAVioPlayMode@@HH@Z$0:
  00000	8b 4d f0	 mov	 ecx, DWORD PTR _this$[ebp]
  00003	e9 00 00 00 00	 jmp	 ??1ioPlayEntity@@UAE@XZ	; ioPlayEntity::~ioPlayEntity
__unwindfunclet$??0ioFieldRewardItem@@QAE@PAVioEntityGroup@@PAVioPlayMode@@HH@Z$1:
  00008	8b 4d f0	 mov	 ecx, DWORD PTR _this$[ebp]
  0000b	81 c1 c8 01 00
	00		 add	 ecx, 456		; 000001c8H
  00011	e9 00 00 00 00	 jmp	 ??1ioWorldEventReceiver@@UAE@XZ ; ioWorldEventReceiver::~ioWorldEventReceiver
__unwindfunclet$??0ioFieldRewardItem@@QAE@PAVioEntityGroup@@PAVioPlayMode@@HH@Z$2:
  00016	8b 4d f0	 mov	 ecx, DWORD PTR _this$[ebp]
  00019	81 c1 28 02 00
	00		 add	 ecx, 552		; 00000228H
  0001f	ff 25 00 00 00
	00		 jmp	 DWORD PTR __imp_??1ioHashString@@QAE@XZ
__ehhandler$??0ioFieldRewardItem@@QAE@PAVioEntityGroup@@PAVioPlayMode@@HH@Z:
  00025	8b 54 24 08	 mov	 edx, DWORD PTR [esp+8]
  00029	8d 42 0c	 lea	 eax, DWORD PTR [edx+12]
  0002c	8b 4a ec	 mov	 ecx, DWORD PTR [edx-20]
  0002f	33 c8		 xor	 ecx, eax
  00031	e8 00 00 00 00	 call	 @__security_check_cookie@4
  00036	b8 00 00 00 00	 mov	 eax, OFFSET __ehfuncinfo$??0ioFieldRewardItem@@QAE@PAVioEntityGroup@@PAVioPlayMode@@HH@Z
  0003b	e9 00 00 00 00	 jmp	 ___CxxFrameHandler3
text$x	ENDS
??0ioFieldRewardItem@@QAE@PAVioEntityGroup@@PAVioPlayMode@@HH@Z ENDP ; ioFieldRewardItem::ioFieldRewardItem
; Function compile flags: /Odsp
;	COMDAT ??_EioFieldRewardItem@@WBMI@AEPAXI@Z
_TEXT	SEGMENT
??_EioFieldRewardItem@@WBMI@AEPAXI@Z PROC		; [thunk]:ioFieldRewardItem::`vector deleting destructor', COMDAT
  00000	81 e9 c8 01 00
	00		 sub	 ecx, 456		; 000001c8H
  00006	e9 00 00 00 00	 jmp	 ??_EioFieldRewardItem@@UAEPAXI@Z
??_EioFieldRewardItem@@WBMI@AEPAXI@Z ENDP		; [thunk]:ioFieldRewardItem::`vector deleting destructor'
; Function compile flags: /Ogsp
; File d:\lost saga for developer\youtube\tutorial\source\src\lsclient\iogameentity.h
_TEXT	ENDS
;	COMDAT ?NeedUpdateBottomHeight@ioGameEntity@@UAEXXZ
_TEXT	SEGMENT
?NeedUpdateBottomHeight@ioGameEntity@@UAEXXZ PROC	; ioGameEntity::NeedUpdateBottomHeight, COMDAT
; _this$ = ecx

; 133  : 	virtual void NeedUpdateBottomHeight() { m_bNeedUpdateBottomHeight = true; }

  00000	c6 81 89 00 00
	00 01		 mov	 BYTE PTR [ecx+137], 1
  00007	c3		 ret	 0
?NeedUpdateBottomHeight@ioGameEntity@@UAEXXZ ENDP	; ioGameEntity::NeedUpdateBottomHeight
_TEXT	ENDS
PUBLIC	?EncryptValueToPool@?$CEncrypt@W4TeamType@@@@AAEXPBD@Z ; CEncrypt<enum TeamType>::EncryptValueToPool
EXTRN	?EncryptByte@ccddaabb@@QAEXPBDPADH@Z:PROC	; ccddaabb::EncryptByte
; Function compile flags: /Ogsp
; File d:\lost saga for developer\youtube\tutorial\source\src\lsclient\encryptvalue.h
;	COMDAT ?EncryptValueToPool@?$CEncrypt@W4TeamType@@@@AAEXPBD@Z
_TEXT	SEGMENT
_value$ = 8						; size = 4
?EncryptValueToPool@?$CEncrypt@W4TeamType@@@@AAEXPBD@Z PROC ; CEncrypt<enum TeamType>::EncryptValueToPool, COMDAT
; _this$ = ecx

; 67   : 	{

  00000	55		 push	 ebp
  00001	8b ec		 mov	 ebp, esp

; 68   : 		m_RC5.EncryptByte( value, m_MemPool, max(m_ValueSize, DEFAULT_ENCRYPT) );

  00003	0f b7 41 06	 movzx	 eax, WORD PTR [ecx+6]
  00007	83 f8 04	 cmp	 eax, 4
  0000a	77 03		 ja	 SHORT $LN4@EncryptVal
  0000c	6a 04		 push	 4
  0000e	58		 pop	 eax
$LN4@EncryptVal:
  0000f	50		 push	 eax
  00010	8d 41 1c	 lea	 eax, DWORD PTR [ecx+28]
  00013	50		 push	 eax
  00014	ff 75 08	 push	 DWORD PTR _value$[ebp]
  00017	83 c1 0c	 add	 ecx, 12			; 0000000cH
  0001a	e8 00 00 00 00	 call	 ?EncryptByte@ccddaabb@@QAEXPBDPADH@Z ; ccddaabb::EncryptByte

; 69   : 		
; 70   : 	}

  0001f	5d		 pop	 ebp
  00020	c2 04 00	 ret	 4
?EncryptValueToPool@?$CEncrypt@W4TeamType@@@@AAEXPBD@Z ENDP ; CEncrypt<enum TeamType>::EncryptValueToPool
_TEXT	ENDS
PUBLIC	??1ioFieldRewardItem@@UAE@XZ			; ioFieldRewardItem::~ioFieldRewardItem
;	COMDAT xdata$x
; File d:\lost saga for developer\youtube\tutorial\source\src\lsclient\ioworldeventreceiver.h
xdata$x	SEGMENT
__unwindtable$??1ioFieldRewardItem@@UAE@XZ DD 0ffffffffH
	DD	FLAT:__unwindfunclet$??1ioFieldRewardItem@@UAE@XZ$0
	DD	00H
	DD	FLAT:__unwindfunclet$??1ioFieldRewardItem@@UAE@XZ$1
	DD	01H
	DD	FLAT:__unwindfunclet$??1ioFieldRewardItem@@UAE@XZ$2
__ehfuncinfo$??1ioFieldRewardItem@@UAE@XZ DD 019930522H
	DD	03H
	DD	FLAT:__unwindtable$??1ioFieldRewardItem@@UAE@XZ
	DD	2 DUP(00H)
	DD	2 DUP(00H)
	DD	00H
	DD	01H
; Function compile flags: /Ogsp
; File d:\lost saga for developer\youtube\tutorial\source\src\lsclient\iofieldrewarditem.cpp
xdata$x	ENDS
;	COMDAT ??1ioFieldRewardItem@@UAE@XZ
_TEXT	SEGMENT
_this$ = -16						; size = 4
__$EHRec$ = -12						; size = 12
??1ioFieldRewardItem@@UAE@XZ PROC			; ioFieldRewardItem::~ioFieldRewardItem, COMDAT
; _this$ = ecx

; 42   : {

  00000	6a 04		 push	 4
  00002	b8 00 00 00 00	 mov	 eax, __ehhandler$??1ioFieldRewardItem@@UAE@XZ
  00007	e8 00 00 00 00	 call	 __EH_prolog3
  0000c	8b f1		 mov	 esi, ecx
  0000e	89 75 f0	 mov	 DWORD PTR _this$[ebp], esi
  00011	c7 06 00 00 00
	00		 mov	 DWORD PTR [esi], OFFSET ??_7ioFieldRewardItem@@6BioPlayEntity@@@
  00017	c7 86 c8 01 00
	00 00 00 00 00	 mov	 DWORD PTR [esi+456], OFFSET ??_7ioFieldRewardItem@@6BioWorldEventReceiver@@@
  00021	c7 45 fc 02 00
	00 00		 mov	 DWORD PTR __$EHRec$[ebp+8], 2

; 43   : 	DestroyItemEffect();

  00028	e8 00 00 00 00	 call	 ?DestroyItemEffect@ioFieldRewardItem@@QAEXXZ ; ioFieldRewardItem::DestroyItemEffect

; 44   : 	DestroyDropEffect();

  0002d	8b ce		 mov	 ecx, esi
  0002f	e8 00 00 00 00	 call	 ?DestroyDropEffect@ioFieldRewardItem@@QAEXXZ ; ioFieldRewardItem::DestroyDropEffect

; 45   : 	DestroyPickEnableEffect();

  00034	8b ce		 mov	 ecx, esi
  00036	e8 00 00 00 00	 call	 ?DestroyPickEnableEffect@ioFieldRewardItem@@QAEXXZ ; ioFieldRewardItem::DestroyPickEnableEffect

; 46   : 
; 47   : 	SAFEDELETE( m_pItemIcon );

  0003b	8b 8e f4 01 00
	00		 mov	 ecx, DWORD PTR [esi+500]
  00041	85 c9		 test	 ecx, ecx
  00043	74 0e		 je	 SHORT $LN2@ioFieldRew
  00045	8b 01		 mov	 eax, DWORD PTR [ecx]
  00047	6a 01		 push	 1
  00049	ff 50 40	 call	 DWORD PTR [eax+64]
  0004c	83 a6 f4 01 00
	00 00		 and	 DWORD PTR [esi+500], 0
$LN2@ioFieldRew:

; 48   : 	SAFEDELETE( m_pItemBack );

  00053	8b 8e f8 01 00
	00		 mov	 ecx, DWORD PTR [esi+504]
  00059	85 c9		 test	 ecx, ecx
  0005b	74 0e		 je	 SHORT $LN1@ioFieldRew
  0005d	8b 01		 mov	 eax, DWORD PTR [ecx]
  0005f	6a 01		 push	 1
  00061	ff 50 40	 call	 DWORD PTR [eax+64]
  00064	83 a6 f8 01 00
	00 00		 and	 DWORD PTR [esi+504], 0
$LN1@ioFieldRew:

; 49   : }

  0006b	8d 8e 28 02 00
	00		 lea	 ecx, DWORD PTR [esi+552]
  00071	c6 45 fc 01	 mov	 BYTE PTR __$EHRec$[ebp+8], 1
  00075	ff 15 00 00 00
	00		 call	 DWORD PTR __imp_??1ioHashString@@QAE@XZ
  0007b	83 4d fc ff	 or	 DWORD PTR __$EHRec$[ebp+8], -1
  0007f	8b ce		 mov	 ecx, esi
  00081	c7 86 c8 01 00
	00 00 00 00 00	 mov	 DWORD PTR [esi+456], OFFSET ??_7ioWorldEventReceiver@@6B@
  0008b	e8 00 00 00 00	 call	 ??1ioPlayEntity@@UAE@XZ	; ioPlayEntity::~ioPlayEntity
  00090	e8 00 00 00 00	 call	 __EH_epilog3
  00095	c3		 ret	 0
_TEXT	ENDS
;	COMDAT text$x
text$x	SEGMENT
__unwindfunclet$??1ioFieldRewardItem@@UAE@XZ$0:
  00000	8b 4d f0	 mov	 ecx, DWORD PTR _this$[ebp]
  00003	e9 00 00 00 00	 jmp	 ??1ioPlayEntity@@UAE@XZ	; ioPlayEntity::~ioPlayEntity
__unwindfunclet$??1ioFieldRewardItem@@UAE@XZ$1:
  00008	8b 4d f0	 mov	 ecx, DWORD PTR _this$[ebp]
  0000b	81 c1 c8 01 00
	00		 add	 ecx, 456		; 000001c8H
  00011	e9 00 00 00 00	 jmp	 ??1ioWorldEventReceiver@@UAE@XZ ; ioWorldEventReceiver::~ioWorldEventReceiver
__unwindfunclet$??1ioFieldRewardItem@@UAE@XZ$2:
  00016	8b 4d f0	 mov	 ecx, DWORD PTR _this$[ebp]
  00019	81 c1 28 02 00
	00		 add	 ecx, 552		; 00000228H
  0001f	ff 25 00 00 00
	00		 jmp	 DWORD PTR __imp_??1ioHashString@@QAE@XZ
__ehhandler$??1ioFieldRewardItem@@UAE@XZ:
  00025	8b 54 24 08	 mov	 edx, DWORD PTR [esp+8]
  00029	8d 42 0c	 lea	 eax, DWORD PTR [edx+12]
  0002c	8b 4a ec	 mov	 ecx, DWORD PTR [edx-20]
  0002f	33 c8		 xor	 ecx, eax
  00031	e8 00 00 00 00	 call	 @__security_check_cookie@4
  00036	b8 00 00 00 00	 mov	 eax, OFFSET __ehfuncinfo$??1ioFieldRewardItem@@UAE@XZ
  0003b	e9 00 00 00 00	 jmp	 ___CxxFrameHandler3
text$x	ENDS
??1ioFieldRewardItem@@UAE@XZ ENDP			; ioFieldRewardItem::~ioFieldRewardItem
; Function compile flags: /Ogsp
;	COMDAT ?DontMoveCollisionPushingTranslate@ioFieldRewardItem@@UAEXPAVioGameEntity@@ABUD3DXVECTOR3@@@Z
_TEXT	SEGMENT
_pPusher$ = 8						; size = 4
_vMoveAmt$ = 12						; size = 4
?DontMoveCollisionPushingTranslate@ioFieldRewardItem@@UAEXPAVioGameEntity@@ABUD3DXVECTOR3@@@Z PROC ; ioFieldRewardItem::DontMoveCollisionPushingTranslate, COMDAT
; _this$ = ecx

; 99   : {

  00000	55		 push	 ebp
  00001	8b ec		 mov	 ebp, esp
  00003	56		 push	 esi

; 100  : 	if( !ToBaseChar( pPusher ) )

  00004	ff 75 08	 push	 DWORD PTR _pPusher$[ebp]
  00007	8b f1		 mov	 esi, ecx
  00009	e8 00 00 00 00	 call	 ?ToBaseChar@@YAPAVioBaseChar@@PAVioGameEntity@@@Z ; ToBaseChar
  0000e	59		 pop	 ecx
  0000f	85 c0		 test	 eax, eax
  00011	75 0a		 jne	 SHORT $LN1@DontMoveCo

; 101  : 	{
; 102  : 		Translate( vMoveAmt );

  00013	ff 75 0c	 push	 DWORD PTR _vMoveAmt$[ebp]
  00016	8b 06		 mov	 eax, DWORD PTR [esi]
  00018	8b ce		 mov	 ecx, esi
  0001a	ff 50 50	 call	 DWORD PTR [eax+80]
$LN1@DontMoveCo:
  0001d	5e		 pop	 esi

; 103  : 	}
; 104  : }

  0001e	5d		 pop	 ebp
  0001f	c2 08 00	 ret	 8
?DontMoveCollisionPushingTranslate@ioFieldRewardItem@@UAEXPAVioGameEntity@@ABUD3DXVECTOR3@@@Z ENDP ; ioFieldRewardItem::DontMoveCollisionPushingTranslate
_TEXT	ENDS
EXTRN	__imp_?SetByOrientBox@ioAxisAlignBox@@QAEXABVioOrientBox@@@Z:PROC
EXTRN	__imp_?Transform@ioOrientBox@@QAEXABUD3DXVECTOR3@@0ABUD3DXQUATERNION@@@Z:PROC
; Function compile flags: /Ogsp
;	COMDAT ?UpdateBound@ioFieldRewardItem@@MBEXXZ
_TEXT	SEGMENT
$T531499 = -20						; size = 16
tv169 = -4						; size = 4
?UpdateBound@ioFieldRewardItem@@MBEXXZ PROC		; ioFieldRewardItem::UpdateBound, COMDAT
; _this$ = ecx

; 107  : {

  00000	55		 push	 ebp
  00001	8b ec		 mov	 ebp, esp
  00003	83 ec 14	 sub	 esp, 20			; 00000014H
  00006	53		 push	 ebx
  00007	56		 push	 esi
  00008	57		 push	 edi
  00009	8b d9		 mov	 ebx, ecx

; 108  : 	m_WorldColBox = GetCollisionBox();

  0000b	e8 00 00 00 00	 call	 ?GetCollisionBox@ioGameEntity@@QBEABVioOrientBox@@XZ ; ioGameEntity::GetCollisionBox
  00010	6a 11		 push	 17			; 00000011H
  00012	8d 7b 10	 lea	 edi, DWORD PTR [ebx+16]
  00015	59		 pop	 ecx
  00016	8b f0		 mov	 esi, eax
  00018	f3 a5		 rep movsd

; 109  : 	m_WorldColBox.Transform( GetWorldPosition(),
; 110  : 							 GetWorldScale(),
; 111  : 							 D3DXQUATERNION( 0.0f, 0.0f, 0.0f, FLOAT1 ) );

  0001a	b8 01 00 00 00	 mov	 eax, 1
  0001f	0f 57 c0	 xorps	 xmm0, xmm0
  00022	89 45 fc	 mov	 DWORD PTR tv169[ebp], eax
  00025	db 45 fc	 fild	 DWORD PTR tv169[ebp]
  00028	f3 0f 11 45 ec	 movss	 DWORD PTR $T531499[ebp], xmm0
  0002d	f3 0f 11 45 f0	 movss	 DWORD PTR $T531499[ebp+4], xmm0
  00032	f3 0f 11 45 f4	 movss	 DWORD PTR $T531499[ebp+8], xmm0
  00037	85 c0		 test	 eax, eax
  00039	79 06		 jns	 SHORT $LN7@UpdateBoun
  0003b	d8 05 00 00 00
	00		 fadd	 DWORD PTR __real@4f800000
$LN7@UpdateBoun:
  00041	8d 45 ec	 lea	 eax, DWORD PTR $T531499[ebp]
  00044	d9 5d f8	 fstp	 DWORD PTR $T531499[ebp+12]
  00047	50		 push	 eax
  00048	8b 03		 mov	 eax, DWORD PTR [ebx]
  0004a	8b cb		 mov	 ecx, ebx
  0004c	ff 50 78	 call	 DWORD PTR [eax+120]
  0004f	50		 push	 eax
  00050	8b 03		 mov	 eax, DWORD PTR [ebx]
  00052	8b cb		 mov	 ecx, ebx
  00054	ff 50 70	 call	 DWORD PTR [eax+112]
  00057	8d 73 10	 lea	 esi, DWORD PTR [ebx+16]
  0005a	50		 push	 eax
  0005b	8b ce		 mov	 ecx, esi
  0005d	ff 15 00 00 00
	00		 call	 DWORD PTR __imp_?Transform@ioOrientBox@@QAEXABUD3DXVECTOR3@@0ABUD3DXQUATERNION@@@Z

; 112  : 
; 113  : 	m_WorldAxisBox.SetByOrientBox( m_WorldColBox );

  00063	56		 push	 esi
  00064	8d 4b 54	 lea	 ecx, DWORD PTR [ebx+84]
  00067	ff 15 00 00 00
	00		 call	 DWORD PTR __imp_?SetByOrientBox@ioAxisAlignBox@@QAEXABVioOrientBox@@@Z
  0006d	5f		 pop	 edi
  0006e	5e		 pop	 esi
  0006f	5b		 pop	 ebx

; 114  : }

  00070	c9		 leave
  00071	c3		 ret	 0
?UpdateBound@ioFieldRewardItem@@MBEXXZ ENDP		; ioFieldRewardItem::UpdateBound
; Function compile flags: /Ogsp
_TEXT	ENDS
;	COMDAT ?OnTelepotation@ioFieldRewardItem@@UAEXABUD3DXVECTOR3@@@Z
_TEXT	SEGMENT
_vTargetPos$ = 8					; size = 4
?OnTelepotation@ioFieldRewardItem@@UAEXABUD3DXVECTOR3@@@Z PROC ; ioFieldRewardItem::OnTelepotation, COMDAT
; _this$ = ecx

; 153  : {

  00000	55		 push	 ebp
  00001	8b ec		 mov	 ebp, esp

; 154  : 	SetDropState( vTargetPos );

  00003	81 c1 38 fe ff
	ff		 add	 ecx, -456		; fffffe38H

; 155  : }

  00009	5d		 pop	 ebp

; 154  : 	SetDropState( vTargetPos );

  0000a	e9 00 00 00 00	 jmp	 ?SetDropState@ioFieldRewardItem@@QAEXABUD3DXVECTOR3@@@Z ; ioFieldRewardItem::SetDropState
?OnTelepotation@ioFieldRewardItem@@UAEXABUD3DXVECTOR3@@@Z ENDP ; ioFieldRewardItem::OnTelepotation
_TEXT	ENDS
PUBLIC	?GetCreator@ioFieldRewardItem@@IBEPAVioPlayStage@@XZ ; ioFieldRewardItem::GetCreator
; Function compile flags: /Ogsp
;	COMDAT ?GetCreator@ioFieldRewardItem@@IBEPAVioPlayStage@@XZ
_TEXT	SEGMENT
?GetCreator@ioFieldRewardItem@@IBEPAVioPlayStage@@XZ PROC ; ioFieldRewardItem::GetCreator, COMDAT
; _this$ = ecx

; 168  : 	return m_pModeParent->GetCreator();

  00000	8b 81 8c 00 00
	00		 mov	 eax, DWORD PTR [ecx+140]
  00006	8b 40 34	 mov	 eax, DWORD PTR [eax+52]

; 169  : }

  00009	c3		 ret	 0
?GetCreator@ioFieldRewardItem@@IBEPAVioPlayStage@@XZ ENDP ; ioFieldRewardItem::GetCreator
_TEXT	ENDS
PUBLIC	??_C@_0BL@OCFAHBHK@sp2_default_field_item?4txt?$AA@ ; `string'
PUBLIC	?CreateItemEffect@ioFieldRewardItem@@QAEXXZ	; ioFieldRewardItem::CreateItemEffect
EXTRN	__imp_?GetUniqueID@ioMovableObject@@QBEKXZ:PROC
EXTRN	__imp_?CreateEffect@ioEffectFactory@@QAEPAVioEffect@@ABVioHashString@@@Z:PROC
EXTRN	__imp_??8ioHashString@@QBE_NABV0@@Z:PROC
EXTRN	?GetSingleton@ioMyInfo@@SAAAV1@XZ:PROC		; ioMyInfo::GetSingleton
EXTRN	__imp_?IsEmpty@ioHashString@@QBE_NXZ:PROC
;	COMDAT ??_C@_0BL@OCFAHBHK@sp2_default_field_item?4txt?$AA@
; File d:\lost saga for developer\youtube\tutorial\source\src\lsclient\iofieldrewarditem.h
CONST	SEGMENT
??_C@_0BL@OCFAHBHK@sp2_default_field_item?4txt?$AA@ DB 'sp2_default_field'
	DB	'_item.txt', 00H				; `string'
CONST	ENDS
;	COMDAT xdata$x
xdata$x	SEGMENT
__unwindtable$?CreateItemEffect@ioFieldRewardItem@@QAEXXZ DD 0ffffffffH
	DD	FLAT:__unwindfunclet$?CreateItemEffect@ioFieldRewardItem@@QAEXXZ$0
__ehfuncinfo$?CreateItemEffect@ioFieldRewardItem@@QAEXXZ DD 019930522H
	DD	01H
	DD	FLAT:__unwindtable$?CreateItemEffect@ioFieldRewardItem@@QAEXXZ
	DD	2 DUP(00H)
	DD	2 DUP(00H)
	DD	00H
	DD	01H
; Function compile flags: /Ogsp
; File d:\lost saga for developer\youtube\tutorial\source\src\lsclient\iofieldrewarditem.cpp
xdata$x	ENDS
;	COMDAT ?CreateItemEffect@ioFieldRewardItem@@QAEXXZ
_TEXT	SEGMENT
$T531521 = -28						; size = 16
__$EHRec$ = -12						; size = 12
?CreateItemEffect@ioFieldRewardItem@@QAEXXZ PROC	; ioFieldRewardItem::CreateItemEffect, COMDAT
; _this$ = ecx

; 391  : {

  00000	6a 10		 push	 16			; 00000010H
  00002	b8 00 00 00 00	 mov	 eax, __ehhandler$?CreateItemEffect@ioFieldRewardItem@@QAEXXZ
  00007	e8 00 00 00 00	 call	 __EH_prolog3
  0000c	8b f1		 mov	 esi, ecx

; 392  : 	DestroyItemEffect();

  0000e	e8 00 00 00 00	 call	 ?DestroyItemEffect@ioFieldRewardItem@@QAEXXZ ; ioFieldRewardItem::DestroyItemEffect

; 393  : 	DestroyPickEnableEffect();

  00013	8b ce		 mov	 ecx, esi
  00015	e8 00 00 00 00	 call	 ?DestroyPickEnableEffect@ioFieldRewardItem@@QAEXXZ ; ioFieldRewardItem::DestroyPickEnableEffect

; 394  : 
; 395  : 	// 획득 가능할 경우에만 표시
; 396  : 	if( GetOwnerCharName().IsEmpty() || GetOwnerCharName() == g_MyInfo.GetPublicID() )

  0001a	8d 8e 28 02 00
	00		 lea	 ecx, DWORD PTR [esi+552]
  00020	ff 15 00 00 00
	00		 call	 DWORD PTR __imp_?IsEmpty@ioHashString@@QBE_NXZ
  00026	84 c0		 test	 al, al
  00028	75 19		 jne	 SHORT $LN2@CreateItem
  0002a	e8 00 00 00 00	 call	 ?GetSingleton@ioMyInfo@@SAAAV1@XZ ; ioMyInfo::GetSingleton
  0002f	83 c0 1c	 add	 eax, 28			; 0000001cH
  00032	50		 push	 eax
  00033	8d 8e 28 02 00
	00		 lea	 ecx, DWORD PTR [esi+552]
  00039	ff 15 00 00 00
	00		 call	 DWORD PTR __imp_??8ioHashString@@QBE_NABV0@@Z
  0003f	84 c0		 test	 al, al
  00041	74 5b		 je	 SHORT $LN1@CreateItem
$LN2@CreateItem:

; 397  : 	{
; 398  : 		ioEffect *pItemEffect = g_EffectFactory.CreateEffect( "sp2_default_field_item.txt" );

  00043	68 00 00 00 00	 push	 OFFSET ??_C@_0BL@OCFAHBHK@sp2_default_field_item?4txt?$AA@
  00048	8d 4d e4	 lea	 ecx, DWORD PTR $T531521[ebp]
  0004b	ff 15 00 00 00
	00		 call	 DWORD PTR __imp_??0ioHashString@@QAE@PBD@Z
  00051	83 65 fc 00	 and	 DWORD PTR __$EHRec$[ebp+8], 0
  00055	8d 45 e4	 lea	 eax, DWORD PTR $T531521[ebp]
  00058	50		 push	 eax
  00059	ff 15 00 00 00
	00		 call	 DWORD PTR __imp_?GetSingleton@ioEffectFactory@@SAAAV1@XZ
  0005f	8b c8		 mov	 ecx, eax
  00061	ff 15 00 00 00
	00		 call	 DWORD PTR __imp_?CreateEffect@ioEffectFactory@@QAEPAVioEffect@@ABVioHashString@@@Z
  00067	83 4d fc ff	 or	 DWORD PTR __$EHRec$[ebp+8], -1
  0006b	8d 4d e4	 lea	 ecx, DWORD PTR $T531521[ebp]
  0006e	8b f8		 mov	 edi, eax
  00070	ff 15 00 00 00
	00		 call	 DWORD PTR __imp_??1ioHashString@@QAE@XZ

; 399  : 		if( pItemEffect )

  00076	85 ff		 test	 edi, edi
  00078	74 24		 je	 SHORT $LN1@CreateItem

; 400  : 		{
; 401  : 			m_pGroup->GetParentSceneNode()->AttachObject( pItemEffect );

  0007a	8b 4e 04	 mov	 ecx, DWORD PTR [esi+4]
  0007d	8b 01		 mov	 eax, DWORD PTR [ecx]
  0007f	83 c7 14	 add	 edi, 20			; 00000014H
  00082	ff 50 34	 call	 DWORD PTR [eax+52]
  00085	8b 10		 mov	 edx, DWORD PTR [eax]
  00087	57		 push	 edi
  00088	8b c8		 mov	 ecx, eax
  0008a	ff 92 ac 00 00
	00		 call	 DWORD PTR [edx+172]

; 402  : 			m_ItemEffect = pItemEffect->GetUniqueID();

  00090	8b cf		 mov	 ecx, edi
  00092	ff 15 00 00 00
	00		 call	 DWORD PTR __imp_?GetUniqueID@ioMovableObject@@QBEKXZ
  00098	89 86 cc 01 00
	00		 mov	 DWORD PTR [esi+460], eax
$LN1@CreateItem:

; 403  : 		}
; 404  : 	}
; 405  : }

  0009e	e8 00 00 00 00	 call	 __EH_epilog3
  000a3	c3		 ret	 0
_TEXT	ENDS
;	COMDAT text$x
text$x	SEGMENT
__unwindfunclet$?CreateItemEffect@ioFieldRewardItem@@QAEXXZ$0:
  00000	8d 4d e4	 lea	 ecx, DWORD PTR $T531521[ebp]
  00003	ff 25 00 00 00
	00		 jmp	 DWORD PTR __imp_??1ioHashString@@QAE@XZ
__ehhandler$?CreateItemEffect@ioFieldRewardItem@@QAEXXZ:
  00009	8b 54 24 08	 mov	 edx, DWORD PTR [esp+8]
  0000d	8d 42 0c	 lea	 eax, DWORD PTR [edx+12]
  00010	8b 4a e0	 mov	 ecx, DWORD PTR [edx-32]
  00013	33 c8		 xor	 ecx, eax
  00015	e8 00 00 00 00	 call	 @__security_check_cookie@4
  0001a	b8 00 00 00 00	 mov	 eax, OFFSET __ehfuncinfo$?CreateItemEffect@ioFieldRewardItem@@QAEXXZ
  0001f	e9 00 00 00 00	 jmp	 ___CxxFrameHandler3
text$x	ENDS
?CreateItemEffect@ioFieldRewardItem@@QAEXXZ ENDP	; ioFieldRewardItem::CreateItemEffect
PUBLIC	?CreateDropEffect@ioFieldRewardItem@@QAEXXZ	; ioFieldRewardItem::CreateDropEffect
; Function compile flags: /Ogsp
;	COMDAT ?CreateDropEffect@ioFieldRewardItem@@QAEXXZ
_TEXT	SEGMENT
?CreateDropEffect@ioFieldRewardItem@@QAEXXZ PROC	; ioFieldRewardItem::CreateDropEffect, COMDAT
; _this$ = ecx

; 408  : {

  00000	56		 push	 esi
  00001	8b f1		 mov	 esi, ecx

; 409  : 	DestroyItemEffect();

  00003	e8 00 00 00 00	 call	 ?DestroyItemEffect@ioFieldRewardItem@@QAEXXZ ; ioFieldRewardItem::DestroyItemEffect

; 410  : 	DestroyDropEffect();

  00008	8b ce		 mov	 ecx, esi
  0000a	e8 00 00 00 00	 call	 ?DestroyDropEffect@ioFieldRewardItem@@QAEXXZ ; ioFieldRewardItem::DestroyDropEffect

; 411  : 	DestroyPickEnableEffect();

  0000f	8b ce		 mov	 ecx, esi
  00011	5e		 pop	 esi
  00012	e9 00 00 00 00	 jmp	 ?DestroyPickEnableEffect@ioFieldRewardItem@@QAEXXZ ; ioFieldRewardItem::DestroyPickEnableEffect
?CreateDropEffect@ioFieldRewardItem@@QAEXXZ ENDP	; ioFieldRewardItem::CreateDropEffect
_TEXT	ENDS
PUBLIC	??_C@_0CA@EONPLIHF@sp2_default_field_item_over?4txt?$AA@ ; `string'
PUBLIC	?CreatePickEnableEffect@ioFieldRewardItem@@QAEXXZ ; ioFieldRewardItem::CreatePickEnableEffect
;	COMDAT ??_C@_0CA@EONPLIHF@sp2_default_field_item_over?4txt?$AA@
; File d:\lost saga for developer\youtube\tutorial\source\src\lsclient\iofieldrewarditem.h
CONST	SEGMENT
??_C@_0CA@EONPLIHF@sp2_default_field_item_over?4txt?$AA@ DB 'sp2_default_'
	DB	'field_item_over.txt', 00H			; `string'
CONST	ENDS
;	COMDAT xdata$x
xdata$x	SEGMENT
__unwindtable$?CreatePickEnableEffect@ioFieldRewardItem@@QAEXXZ DD 0ffffffffH
	DD	FLAT:__unwindfunclet$?CreatePickEnableEffect@ioFieldRewardItem@@QAEXXZ$0
__ehfuncinfo$?CreatePickEnableEffect@ioFieldRewardItem@@QAEXXZ DD 019930522H
	DD	01H
	DD	FLAT:__unwindtable$?CreatePickEnableEffect@ioFieldRewardItem@@QAEXXZ
	DD	2 DUP(00H)
	DD	2 DUP(00H)
	DD	00H
	DD	01H
; Function compile flags: /Ogsp
; File d:\lost saga for developer\youtube\tutorial\source\src\lsclient\iofieldrewarditem.cpp
xdata$x	ENDS
;	COMDAT ?CreatePickEnableEffect@ioFieldRewardItem@@QAEXXZ
_TEXT	SEGMENT
$T531548 = -28						; size = 16
__$EHRec$ = -12						; size = 12
?CreatePickEnableEffect@ioFieldRewardItem@@QAEXXZ PROC	; ioFieldRewardItem::CreatePickEnableEffect, COMDAT
; _this$ = ecx

; 417  : {

  00000	6a 10		 push	 16			; 00000010H
  00002	b8 00 00 00 00	 mov	 eax, __ehhandler$?CreatePickEnableEffect@ioFieldRewardItem@@QAEXXZ
  00007	e8 00 00 00 00	 call	 __EH_prolog3
  0000c	8b f1		 mov	 esi, ecx

; 418  : 	DestroyItemEffect();

  0000e	e8 00 00 00 00	 call	 ?DestroyItemEffect@ioFieldRewardItem@@QAEXXZ ; ioFieldRewardItem::DestroyItemEffect

; 419  : 	DestroyPickEnableEffect();

  00013	8b ce		 mov	 ecx, esi
  00015	e8 00 00 00 00	 call	 ?DestroyPickEnableEffect@ioFieldRewardItem@@QAEXXZ ; ioFieldRewardItem::DestroyPickEnableEffect

; 420  : 
; 421  : 	// 획득 가능할 경우에만 표시
; 422  : 	if( GetOwnerCharName().IsEmpty() || GetOwnerCharName() == g_MyInfo.GetPublicID() )

  0001a	8d 8e 28 02 00
	00		 lea	 ecx, DWORD PTR [esi+552]
  00020	ff 15 00 00 00
	00		 call	 DWORD PTR __imp_?IsEmpty@ioHashString@@QBE_NXZ
  00026	84 c0		 test	 al, al
  00028	75 19		 jne	 SHORT $LN2@CreatePick
  0002a	e8 00 00 00 00	 call	 ?GetSingleton@ioMyInfo@@SAAAV1@XZ ; ioMyInfo::GetSingleton
  0002f	83 c0 1c	 add	 eax, 28			; 0000001cH
  00032	50		 push	 eax
  00033	8d 8e 28 02 00
	00		 lea	 ecx, DWORD PTR [esi+552]
  00039	ff 15 00 00 00
	00		 call	 DWORD PTR __imp_??8ioHashString@@QBE_NABV0@@Z
  0003f	84 c0		 test	 al, al
  00041	74 5b		 je	 SHORT $LN1@CreatePick
$LN2@CreatePick:

; 423  : 	{
; 424  : 		ioEffect *pPickEnableEffect = g_EffectFactory.CreateEffect( "sp2_default_field_item_over.txt" );

  00043	68 00 00 00 00	 push	 OFFSET ??_C@_0CA@EONPLIHF@sp2_default_field_item_over?4txt?$AA@
  00048	8d 4d e4	 lea	 ecx, DWORD PTR $T531548[ebp]
  0004b	ff 15 00 00 00
	00		 call	 DWORD PTR __imp_??0ioHashString@@QAE@PBD@Z
  00051	83 65 fc 00	 and	 DWORD PTR __$EHRec$[ebp+8], 0
  00055	8d 45 e4	 lea	 eax, DWORD PTR $T531548[ebp]
  00058	50		 push	 eax
  00059	ff 15 00 00 00
	00		 call	 DWORD PTR __imp_?GetSingleton@ioEffectFactory@@SAAAV1@XZ
  0005f	8b c8		 mov	 ecx, eax
  00061	ff 15 00 00 00
	00		 call	 DWORD PTR __imp_?CreateEffect@ioEffectFactory@@QAEPAVioEffect@@ABVioHashString@@@Z
  00067	83 4d fc ff	 or	 DWORD PTR __$EHRec$[ebp+8], -1
  0006b	8d 4d e4	 lea	 ecx, DWORD PTR $T531548[ebp]
  0006e	8b f8		 mov	 edi, eax
  00070	ff 15 00 00 00
	00		 call	 DWORD PTR __imp_??1ioHashString@@QAE@XZ

; 425  : 		if( pPickEnableEffect )

  00076	85 ff		 test	 edi, edi
  00078	74 24		 je	 SHORT $LN1@CreatePick

; 426  : 		{
; 427  : 			m_pGroup->GetParentSceneNode()->AttachObject( pPickEnableEffect );

  0007a	8b 4e 04	 mov	 ecx, DWORD PTR [esi+4]
  0007d	8b 01		 mov	 eax, DWORD PTR [ecx]
  0007f	83 c7 14	 add	 edi, 20			; 00000014H
  00082	ff 50 34	 call	 DWORD PTR [eax+52]
  00085	8b 10		 mov	 edx, DWORD PTR [eax]
  00087	57		 push	 edi
  00088	8b c8		 mov	 ecx, eax
  0008a	ff 92 ac 00 00
	00		 call	 DWORD PTR [edx+172]

; 428  : 			m_PickEnableEffect = pPickEnableEffect->GetUniqueID();

  00090	8b cf		 mov	 ecx, edi
  00092	ff 15 00 00 00
	00		 call	 DWORD PTR __imp_?GetUniqueID@ioMovableObject@@QBEKXZ
  00098	89 86 d0 01 00
	00		 mov	 DWORD PTR [esi+464], eax
$LN1@CreatePick:

; 429  : 		}
; 430  : 	}
; 431  : }

  0009e	e8 00 00 00 00	 call	 __EH_epilog3
  000a3	c3		 ret	 0
_TEXT	ENDS
;	COMDAT text$x
text$x	SEGMENT
__unwindfunclet$?CreatePickEnableEffect@ioFieldRewardItem@@QAEXXZ$0:
  00000	8d 4d e4	 lea	 ecx, DWORD PTR $T531548[ebp]
  00003	ff 25 00 00 00
	00		 jmp	 DWORD PTR __imp_??1ioHashString@@QAE@XZ
__ehhandler$?CreatePickEnableEffect@ioFieldRewardItem@@QAEXXZ:
  00009	8b 54 24 08	 mov	 edx, DWORD PTR [esp+8]
  0000d	8d 42 0c	 lea	 eax, DWORD PTR [edx+12]
  00010	8b 4a e0	 mov	 ecx, DWORD PTR [edx-32]
  00013	33 c8		 xor	 ecx, eax
  00015	e8 00 00 00 00	 call	 @__security_check_cookie@4
  0001a	b8 00 00 00 00	 mov	 eax, OFFSET __ehfuncinfo$?CreatePickEnableEffect@ioFieldRewardItem@@QAEXXZ
  0001f	e9 00 00 00 00	 jmp	 ___CxxFrameHandler3
text$x	ENDS
?CreatePickEnableEffect@ioFieldRewardItem@@QAEXXZ ENDP	; ioFieldRewardItem::CreatePickEnableEffect
PUBLIC	?SetOwnerCharName@ioFieldRewardItem@@QAEXABVioHashString@@@Z ; ioFieldRewardItem::SetOwnerCharName
EXTRN	__imp_??4ioHashString@@QAEAAV0@ABV0@@Z:PROC
; Function compile flags: /Ogsp
;	COMDAT ?SetOwnerCharName@ioFieldRewardItem@@QAEXABVioHashString@@@Z
_TEXT	SEGMENT
_rkOwnerName$ = 8					; size = 4
?SetOwnerCharName@ioFieldRewardItem@@QAEXABVioHashString@@@Z PROC ; ioFieldRewardItem::SetOwnerCharName, COMDAT
; _this$ = ecx

; 546  : {

  00000	55		 push	 ebp
  00001	8b ec		 mov	 ebp, esp
  00003	56		 push	 esi

; 547  : 	m_szOwnerName = rkOwnerName;

  00004	ff 75 08	 push	 DWORD PTR _rkOwnerName$[ebp]
  00007	8b f1		 mov	 esi, ecx
  00009	8d 8e 28 02 00
	00		 lea	 ecx, DWORD PTR [esi+552]
  0000f	ff 15 00 00 00
	00		 call	 DWORD PTR __imp_??4ioHashString@@QAEAAV0@ABV0@@Z

; 548  : 	if( m_bOwnerCharOver )

  00015	80 be fc 01 00
	00 00		 cmp	 BYTE PTR [esi+508], 0

; 549  : 	{
; 550  : 		CreatePickEnableEffect();

  0001c	8b ce		 mov	 ecx, esi
  0001e	74 07		 je	 SHORT $LN2@SetOwnerCh
  00020	e8 00 00 00 00	 call	 ?CreatePickEnableEffect@ioFieldRewardItem@@QAEXXZ ; ioFieldRewardItem::CreatePickEnableEffect

; 551  : 	}
; 552  : 	else

  00025	eb 05		 jmp	 SHORT $LN1@SetOwnerCh
$LN2@SetOwnerCh:

; 553  : 	{
; 554  : 		CreateItemEffect();

  00027	e8 00 00 00 00	 call	 ?CreateItemEffect@ioFieldRewardItem@@QAEXXZ ; ioFieldRewardItem::CreateItemEffect
$LN1@SetOwnerCh:
  0002c	5e		 pop	 esi

; 555  : 	}
; 556  : }

  0002d	5d		 pop	 ebp
  0002e	c2 04 00	 ret	 4
?SetOwnerCharName@ioFieldRewardItem@@QAEXABVioHashString@@@Z ENDP ; ioFieldRewardItem::SetOwnerCharName
_TEXT	ENDS
PUBLIC	?SetOwnerCharOver@ioFieldRewardItem@@QAEX_N@Z	; ioFieldRewardItem::SetOwnerCharOver
; Function compile flags: /Ogsp
;	COMDAT ?SetOwnerCharOver@ioFieldRewardItem@@QAEX_N@Z
_TEXT	SEGMENT
_bOver$ = 8						; size = 1
?SetOwnerCharOver@ioFieldRewardItem@@QAEX_N@Z PROC	; ioFieldRewardItem::SetOwnerCharOver, COMDAT
; _this$ = ecx

; 559  : {

  00000	55		 push	 ebp
  00001	8b ec		 mov	 ebp, esp

; 560  : 	if( m_bOwnerCharOver != bOver )

  00003	8a 55 08	 mov	 dl, BYTE PTR _bOver$[ebp]
  00006	38 91 fc 01 00
	00		 cmp	 BYTE PTR [ecx+508], dl
  0000c	74 16		 je	 SHORT $LN1@SetOwnerCh@2

; 561  : 	{
; 562  : 		m_bOwnerCharOver = bOver;

  0000e	88 91 fc 01 00
	00		 mov	 BYTE PTR [ecx+508], dl

; 563  : 
; 564  : 		if( m_bOwnerCharOver )

  00014	84 d2		 test	 dl, dl
  00016	74 07		 je	 SHORT $LN2@SetOwnerCh@2

; 565  : 		{
; 566  : 			CreatePickEnableEffect();

  00018	e8 00 00 00 00	 call	 ?CreatePickEnableEffect@ioFieldRewardItem@@QAEXXZ ; ioFieldRewardItem::CreatePickEnableEffect

; 567  : 		}
; 568  : 		else

  0001d	eb 05		 jmp	 SHORT $LN1@SetOwnerCh@2
$LN2@SetOwnerCh@2:

; 569  : 		{
; 570  : 			CreateItemEffect();

  0001f	e8 00 00 00 00	 call	 ?CreateItemEffect@ioFieldRewardItem@@QAEXXZ ; ioFieldRewardItem::CreateItemEffect
$LN1@SetOwnerCh@2:

; 571  : 		}
; 572  : 	}
; 573  : }

  00024	5d		 pop	 ebp
  00025	c2 04 00	 ret	 4
?SetOwnerCharOver@ioFieldRewardItem@@QAEX_N@Z ENDP	; ioFieldRewardItem::SetOwnerCharOver
_TEXT	ENDS
EXTRN	__imp_?TranslateParticle@ioEffect@@QAEXABUD3DXVECTOR3@@@Z:PROC
; Function compile flags: /Ogsp
;	COMDAT ?TranslateByWorldEntity@ioFieldRewardItem@@UAEXABUD3DXVECTOR3@@@Z
_TEXT	SEGMENT
_pPickEnableEffect$ = -8				; size = 4
_pItemEffect$ = -4					; size = 4
_vMove$ = 8						; size = 4
?TranslateByWorldEntity@ioFieldRewardItem@@UAEXABUD3DXVECTOR3@@@Z PROC ; ioFieldRewardItem::TranslateByWorldEntity, COMDAT
; _this$ = ecx

; 623  : {

  00000	55		 push	 ebp
  00001	8b ec		 mov	 ebp, esp
  00003	51		 push	 ecx
  00004	51		 push	 ecx
  00005	53		 push	 ebx
  00006	56		 push	 esi
  00007	8b f1		 mov	 esi, ecx

; 624  : 	m_pGroup->GetParentNode()->Translate( vMove );

  00009	8b 4e 04	 mov	 ecx, DWORD PTR [esi+4]
  0000c	8b 01		 mov	 eax, DWORD PTR [ecx]
  0000e	57		 push	 edi
  0000f	ff 50 30	 call	 DWORD PTR [eax+48]
  00012	8b 10		 mov	 edx, DWORD PTR [eax]
  00014	6a 01		 push	 1
  00016	ff 75 08	 push	 DWORD PTR _vMove$[ebp]
  00019	8b c8		 mov	 ecx, eax
  0001b	ff 52 3c	 call	 DWORD PTR [edx+60]

; 625  : 	NeedUpdateBound();
; 626  : 	NeedUpdateBottomHeight();

  0001e	8b 06		 mov	 eax, DWORD PTR [esi]
  00020	8b ce		 mov	 ecx, esi
  00022	c6 86 88 00 00
	00 01		 mov	 BYTE PTR [esi+136], 1
  00029	ff 50 40	 call	 DWORD PTR [eax+64]

; 627  : 
; 628  : 	ioEffect *pItemEffect = g_EffectFactory.GetEffect( m_ItemEffect );

  0002c	ff b6 cc 01 00
	00		 push	 DWORD PTR [esi+460]
  00032	8b 3d 00 00 00
	00		 mov	 edi, DWORD PTR __imp_?GetSingleton@ioEffectFactory@@SAAAV1@XZ
  00038	ff d7		 call	 edi
  0003a	8b 1d 00 00 00
	00		 mov	 ebx, DWORD PTR __imp_?GetEffect@ioEffectFactory@@QAEPAVioEffect@@K@Z
  00040	8b c8		 mov	 ecx, eax
  00042	ff d3		 call	 ebx

; 629  : 	ioEffect *pPickEnableEffect = g_EffectFactory.GetEffect( m_PickEnableEffect );

  00044	ff b6 d0 01 00
	00		 push	 DWORD PTR [esi+464]
  0004a	89 45 fc	 mov	 DWORD PTR _pItemEffect$[ebp], eax
  0004d	ff d7		 call	 edi
  0004f	8b c8		 mov	 ecx, eax
  00051	ff d3		 call	 ebx

; 630  : 	ioEffect *pDropEffect = g_EffectFactory.GetEffect( m_CreateDropEffect );

  00053	ff b6 d4 01 00
	00		 push	 DWORD PTR [esi+468]
  00059	89 45 f8	 mov	 DWORD PTR _pPickEnableEffect$[ebp], eax
  0005c	ff d7		 call	 edi
  0005e	8b c8		 mov	 ecx, eax
  00060	ff d3		 call	 ebx

; 631  : 
; 632  : 	if( pItemEffect )

  00062	8b 4d fc	 mov	 ecx, DWORD PTR _pItemEffect$[ebp]
  00065	8b 35 00 00 00
	00		 mov	 esi, DWORD PTR __imp_?TranslateParticle@ioEffect@@QAEXABUD3DXVECTOR3@@@Z
  0006b	8b f8		 mov	 edi, eax
  0006d	85 c9		 test	 ecx, ecx
  0006f	74 05		 je	 SHORT $LN8@TranslateB

; 633  : 		pItemEffect->TranslateParticle( vMove );

  00071	ff 75 08	 push	 DWORD PTR _vMove$[ebp]
  00074	ff d6		 call	 esi
$LN8@TranslateB:

; 634  : 
; 635  : 	if( pPickEnableEffect )

  00076	8b 4d f8	 mov	 ecx, DWORD PTR _pPickEnableEffect$[ebp]
  00079	85 c9		 test	 ecx, ecx
  0007b	74 05		 je	 SHORT $LN9@TranslateB

; 636  : 		pPickEnableEffect->TranslateParticle( vMove );

  0007d	ff 75 08	 push	 DWORD PTR _vMove$[ebp]
  00080	ff d6		 call	 esi
$LN9@TranslateB:

; 637  : 
; 638  : 	if( pDropEffect )

  00082	85 ff		 test	 edi, edi
  00084	74 07		 je	 SHORT $LN1@TranslateB

; 639  : 		pDropEffect->TranslateParticle( vMove );

  00086	ff 75 08	 push	 DWORD PTR _vMove$[ebp]
  00089	8b cf		 mov	 ecx, edi
  0008b	ff d6		 call	 esi
$LN1@TranslateB:
  0008d	5f		 pop	 edi
  0008e	5e		 pop	 esi
  0008f	5b		 pop	 ebx

; 640  : }

  00090	c9		 leave
  00091	c2 04 00	 ret	 4
?TranslateByWorldEntity@ioFieldRewardItem@@UAEXABUD3DXVECTOR3@@@Z ENDP ; ioFieldRewardItem::TranslateByWorldEntity
; Function compile flags: /Ogsp
_TEXT	ENDS
;	COMDAT ?TranslateByConveyer@ioFieldRewardItem@@UAEXABUD3DXVECTOR3@@@Z
_TEXT	SEGMENT
_pPickEnableEffect$ = -8				; size = 4
_pItemEffect$ = -4					; size = 4
_vMove$ = 8						; size = 4
?TranslateByConveyer@ioFieldRewardItem@@UAEXABUD3DXVECTOR3@@@Z PROC ; ioFieldRewardItem::TranslateByConveyer, COMDAT
; _this$ = ecx

; 643  : {

  00000	55		 push	 ebp
  00001	8b ec		 mov	 ebp, esp
  00003	51		 push	 ecx
  00004	51		 push	 ecx
  00005	53		 push	 ebx
  00006	56		 push	 esi
  00007	8b f1		 mov	 esi, ecx

; 644  : 	m_pGroup->GetParentNode()->Translate( vMove );

  00009	8b 4e 04	 mov	 ecx, DWORD PTR [esi+4]
  0000c	8b 01		 mov	 eax, DWORD PTR [ecx]
  0000e	57		 push	 edi
  0000f	ff 50 30	 call	 DWORD PTR [eax+48]
  00012	8b 10		 mov	 edx, DWORD PTR [eax]
  00014	6a 01		 push	 1
  00016	ff 75 08	 push	 DWORD PTR _vMove$[ebp]
  00019	8b c8		 mov	 ecx, eax
  0001b	ff 52 3c	 call	 DWORD PTR [edx+60]

; 645  : 	NeedUpdateBound();
; 646  : 	NeedUpdateBottomHeight();

  0001e	8b 06		 mov	 eax, DWORD PTR [esi]
  00020	8b ce		 mov	 ecx, esi
  00022	c6 86 88 00 00
	00 01		 mov	 BYTE PTR [esi+136], 1
  00029	ff 50 40	 call	 DWORD PTR [eax+64]

; 647  : 
; 648  : 	ioEffect *pItemEffect = g_EffectFactory.GetEffect( m_ItemEffect );

  0002c	ff b6 cc 01 00
	00		 push	 DWORD PTR [esi+460]
  00032	8b 3d 00 00 00
	00		 mov	 edi, DWORD PTR __imp_?GetSingleton@ioEffectFactory@@SAAAV1@XZ
  00038	ff d7		 call	 edi
  0003a	8b 1d 00 00 00
	00		 mov	 ebx, DWORD PTR __imp_?GetEffect@ioEffectFactory@@QAEPAVioEffect@@K@Z
  00040	8b c8		 mov	 ecx, eax
  00042	ff d3		 call	 ebx

; 649  : 	ioEffect *pPickEnableEffect = g_EffectFactory.GetEffect( m_PickEnableEffect );

  00044	ff b6 d0 01 00
	00		 push	 DWORD PTR [esi+464]
  0004a	89 45 fc	 mov	 DWORD PTR _pItemEffect$[ebp], eax
  0004d	ff d7		 call	 edi
  0004f	8b c8		 mov	 ecx, eax
  00051	ff d3		 call	 ebx

; 650  : 	ioEffect *pDropEffect = g_EffectFactory.GetEffect( m_CreateDropEffect );

  00053	ff b6 d4 01 00
	00		 push	 DWORD PTR [esi+468]
  00059	89 45 f8	 mov	 DWORD PTR _pPickEnableEffect$[ebp], eax
  0005c	ff d7		 call	 edi
  0005e	8b c8		 mov	 ecx, eax
  00060	ff d3		 call	 ebx

; 651  : 
; 652  : 	if( pItemEffect )

  00062	8b 4d fc	 mov	 ecx, DWORD PTR _pItemEffect$[ebp]
  00065	8b 35 00 00 00
	00		 mov	 esi, DWORD PTR __imp_?TranslateParticle@ioEffect@@QAEXABUD3DXVECTOR3@@@Z
  0006b	8b f8		 mov	 edi, eax
  0006d	85 c9		 test	 ecx, ecx
  0006f	74 05		 je	 SHORT $LN8@TranslateB@2

; 653  : 		pItemEffect->TranslateParticle( vMove );

  00071	ff 75 08	 push	 DWORD PTR _vMove$[ebp]
  00074	ff d6		 call	 esi
$LN8@TranslateB@2:

; 654  : 
; 655  : 	if( pPickEnableEffect )

  00076	8b 4d f8	 mov	 ecx, DWORD PTR _pPickEnableEffect$[ebp]
  00079	85 c9		 test	 ecx, ecx
  0007b	74 05		 je	 SHORT $LN9@TranslateB@2

; 656  : 		pPickEnableEffect->TranslateParticle( vMove );

  0007d	ff 75 08	 push	 DWORD PTR _vMove$[ebp]
  00080	ff d6		 call	 esi
$LN9@TranslateB@2:

; 657  : 
; 658  : 	if( pDropEffect )

  00082	85 ff		 test	 edi, edi
  00084	74 07		 je	 SHORT $LN1@TranslateB@2

; 659  : 		pDropEffect->TranslateParticle( vMove );

  00086	ff 75 08	 push	 DWORD PTR _vMove$[ebp]
  00089	8b cf		 mov	 ecx, edi
  0008b	ff d6		 call	 esi
$LN1@TranslateB@2:
  0008d	5f		 pop	 edi
  0008e	5e		 pop	 esi
  0008f	5b		 pop	 ebx

; 660  : }

  00090	c9		 leave
  00091	c2 04 00	 ret	 4
?TranslateByConveyer@ioFieldRewardItem@@UAEXABUD3DXVECTOR3@@@Z ENDP ; ioFieldRewardItem::TranslateByConveyer
_TEXT	ENDS
PUBLIC	__$ArrayPad$
PUBLIC	?CheckEnableMove@ioFieldRewardItem@@IAE_NXZ	; ioFieldRewardItem::CheckEnableMove
EXTRN	?CheckCollisionLine@ioPlayStage@@QAE_NABUD3DXVECTOR3@@0_N@Z:PROC ; ioPlayStage::CheckCollisionLine
; Function compile flags: /Ogsp
;	COMDAT ?CheckEnableMove@ioFieldRewardItem@@IAE_NXZ
_TEXT	SEGMENT
_pStage$ = -20						; size = 4
_vPos$ = -16						; size = 12
__$ArrayPad$ = -4					; size = 4
?CheckEnableMove@ioFieldRewardItem@@IAE_NXZ PROC	; ioFieldRewardItem::CheckEnableMove, COMDAT
; _this$ = ecx

; 663  : {

  00000	55		 push	 ebp
  00001	8b ec		 mov	 ebp, esp
  00003	83 ec 14	 sub	 esp, 20			; 00000014H
  00006	a1 00 00 00 00	 mov	 eax, DWORD PTR ___security_cookie
  0000b	33 c5		 xor	 eax, ebp
  0000d	89 45 fc	 mov	 DWORD PTR __$ArrayPad$[ebp], eax
  00010	53		 push	 ebx
  00011	8b d9		 mov	 ebx, ecx

; 664  : 	ioPlayStage *pStage = GetCreator();

  00013	8b 83 8c 00 00
	00		 mov	 eax, DWORD PTR [ebx+140]
  00019	8b 40 34	 mov	 eax, DWORD PTR [eax+52]
  0001c	89 45 ec	 mov	 DWORD PTR _pStage$[ebp], eax

; 665  : 	if( !pStage ) return false;

  0001f	85 c0		 test	 eax, eax
  00021	75 04		 jne	 SHORT $LN1@CheckEnabl
  00023	32 c0		 xor	 al, al
  00025	eb 26		 jmp	 SHORT $LN2@CheckEnabl
$LN1@CheckEnabl:

; 666  : 
; 667  : 	// Position Check
; 668  : 	D3DXVECTOR3 vPos = GetWorldPosition();

  00027	8b 03		 mov	 eax, DWORD PTR [ebx]
  00029	56		 push	 esi
  0002a	57		 push	 edi
  0002b	ff 50 70	 call	 DWORD PTR [eax+112]

; 669  : 	bool bCheck = pStage->CheckCollisionLine( vPos, m_vTargetPos );

  0002e	8b 4d ec	 mov	 ecx, DWORD PTR _pStage$[ebp]
  00031	8b f0		 mov	 esi, eax
  00033	8d 7d f0	 lea	 edi, DWORD PTR _vPos$[ebp]
  00036	a5		 movsd
  00037	6a 01		 push	 1
  00039	a5		 movsd
  0003a	81 c3 18 02 00
	00		 add	 ebx, 536		; 00000218H
  00040	53		 push	 ebx
  00041	8d 45 f0	 lea	 eax, DWORD PTR _vPos$[ebp]
  00044	50		 push	 eax
  00045	a5		 movsd
  00046	e8 00 00 00 00	 call	 ?CheckCollisionLine@ioPlayStage@@QAE_NABUD3DXVECTOR3@@0_N@Z ; ioPlayStage::CheckCollisionLine
  0004b	5f		 pop	 edi
  0004c	5e		 pop	 esi
$LN2@CheckEnabl:

; 670  : 
; 671  : 	return bCheck;
; 672  : }

  0004d	8b 4d fc	 mov	 ecx, DWORD PTR __$ArrayPad$[ebp]
  00050	33 cd		 xor	 ecx, ebp
  00052	5b		 pop	 ebx
  00053	e8 00 00 00 00	 call	 @__security_check_cookie@4
  00058	c9		 leave
  00059	c3		 ret	 0
?CheckEnableMove@ioFieldRewardItem@@IAE_NXZ ENDP	; ioFieldRewardItem::CheckEnableMove
_TEXT	ENDS
PUBLIC	??4?$CEncrypt@W4TeamType@@@@QAE?AW4TeamType@@W41@@Z ; CEncrypt<enum TeamType>::operator=
; Function compile flags: /Ogsp
; File d:\lost saga for developer\youtube\tutorial\source\src\lsclient\encryptvalue.h
;	COMDAT ??4?$CEncrypt@W4TeamType@@@@QAE?AW4TeamType@@W41@@Z
_TEXT	SEGMENT
_value$ = 8						; size = 4
_inValue$ = 8						; size = 4
??4?$CEncrypt@W4TeamType@@@@QAE?AW4TeamType@@W41@@Z PROC ; CEncrypt<enum TeamType>::operator=, COMDAT
; _this$ = ecx

; 2965 : 	{

  00000	55		 push	 ebp
  00001	8b ec		 mov	 ebp, esp

; 2966 : 		type value = inValue;

  00003	8b 45 08	 mov	 eax, DWORD PTR _inValue$[ebp]
  00006	89 45 08	 mov	 DWORD PTR _value$[ebp], eax

; 2967 : 		EncryptValueToPool((char*)&value);

  00009	8d 45 08	 lea	 eax, DWORD PTR _value$[ebp]
  0000c	50		 push	 eax
  0000d	e8 00 00 00 00	 call	 ?EncryptValueToPool@?$CEncrypt@W4TeamType@@@@AAEXPBD@Z ; CEncrypt<enum TeamType>::EncryptValueToPool

; 2968 : #ifdef _NOTUSE
; 2969 : 		m_value = inValue;
; 2970 : 		Debug();
; 2971 : #endif
; 2972 : 		return value;

  00012	8b 45 08	 mov	 eax, DWORD PTR _value$[ebp]

; 2973 : 	}

  00015	5d		 pop	 ebp
  00016	c2 04 00	 ret	 4
??4?$CEncrypt@W4TeamType@@@@QAE?AW4TeamType@@W41@@Z ENDP ; CEncrypt<enum TeamType>::operator=
; Function compile flags: /Ogsp
_TEXT	ENDS
;	COMDAT ??_GioFieldRewardItem@@UAEPAXI@Z
_TEXT	SEGMENT
___flags$ = 8						; size = 4
??_GioFieldRewardItem@@UAEPAXI@Z PROC			; ioFieldRewardItem::`scalar deleting destructor', COMDAT
; _this$ = ecx
  00000	55		 push	 ebp
  00001	8b ec		 mov	 ebp, esp
  00003	56		 push	 esi
  00004	8b f1		 mov	 esi, ecx
  00006	e8 00 00 00 00	 call	 ??1ioFieldRewardItem@@UAE@XZ ; ioFieldRewardItem::~ioFieldRewardItem
  0000b	f6 45 08 01	 test	 BYTE PTR ___flags$[ebp], 1
  0000f	74 07		 je	 SHORT $LN1@scalar@2
  00011	56		 push	 esi
  00012	e8 00 00 00 00	 call	 ??3@YAXPAX@Z		; operator delete
  00017	59		 pop	 ecx
$LN1@scalar@2:
  00018	8b c6		 mov	 eax, esi
  0001a	5e		 pop	 esi
  0001b	5d		 pop	 ebp
  0001c	c2 04 00	 ret	 4
??_GioFieldRewardItem@@UAEPAXI@Z ENDP			; ioFieldRewardItem::`scalar deleting destructor'
_TEXT	ENDS
PUBLIC	__real@4034000000000000
PUBLIC	__$ArrayPad$
PUBLIC	?ProcessNormal@ioFieldRewardItem@@IAEXXZ	; ioFieldRewardItem::ProcessNormal
EXTRN	?GetBottomHeight@ioGameEntity@@QBEMXZ:PROC	; ioGameEntity::GetBottomHeight
EXTRN	__imp_?EndEffectForce@ioEffect@@QAEXXZ:PROC
EXTRN	?SetTargetAlphaRate@ioGameEntity@@QAEXH@Z:PROC	; ioGameEntity::SetTargetAlphaRate
;	COMDAT __real@4034000000000000
; File d:\lost saga for developer\youtube\tutorial\source\src\lsclient\iofieldrewarditem.cpp
CONST	SEGMENT
__real@4034000000000000 DQ 04034000000000000r	; 20
; Function compile flags: /Ogsp
CONST	ENDS
;	COMDAT ?ProcessNormal@ioFieldRewardItem@@IAEXXZ
_TEXT	SEGMENT
tv86 = -28						; size = 8
_pPickEnableEffect$ = -24				; size = 4
_fRealHeight$ = -20					; size = 4
_pItemEffect$ = -20					; size = 4
_vCurPos$ = -16						; size = 12
__$ArrayPad$ = -4					; size = 4
?ProcessNormal@ioFieldRewardItem@@IAEXXZ PROC		; ioFieldRewardItem::ProcessNormal, COMDAT
; _this$ = ecx

; 172  : {

  00000	55		 push	 ebp
  00001	8b ec		 mov	 ebp, esp
  00003	83 ec 1c	 sub	 esp, 28			; 0000001cH
  00006	a1 00 00 00 00	 mov	 eax, DWORD PTR ___security_cookie
  0000b	33 c5		 xor	 eax, ebp
  0000d	89 45 fc	 mov	 DWORD PTR __$ArrayPad$[ebp], eax
  00010	53		 push	 ebx
  00011	56		 push	 esi

; 173  : 	ioEffect *pItemEffect = g_EffectFactory.GetEffect( m_ItemEffect );

  00012	8b 35 00 00 00
	00		 mov	 esi, DWORD PTR __imp_?GetSingleton@ioEffectFactory@@SAAAV1@XZ
  00018	8b d9		 mov	 ebx, ecx
  0001a	57		 push	 edi
  0001b	ff b3 cc 01 00
	00		 push	 DWORD PTR [ebx+460]
  00021	ff d6		 call	 esi
  00023	8b 3d 00 00 00
	00		 mov	 edi, DWORD PTR __imp_?GetEffect@ioEffectFactory@@QAEPAVioEffect@@K@Z
  00029	8b c8		 mov	 ecx, eax
  0002b	ff d7		 call	 edi

; 174  : 	ioEffect *pPickEnableEffect = g_EffectFactory.GetEffect( m_PickEnableEffect );

  0002d	ff b3 d0 01 00
	00		 push	 DWORD PTR [ebx+464]
  00033	89 45 ec	 mov	 DWORD PTR _pItemEffect$[ebp], eax
  00036	ff d6		 call	 esi
  00038	8b c8		 mov	 ecx, eax
  0003a	ff d7		 call	 edi

; 175  : 	ioEffect *pDropEffect = g_EffectFactory.GetEffect( m_CreateDropEffect );

  0003c	ff b3 d4 01 00
	00		 push	 DWORD PTR [ebx+468]
  00042	89 45 e8	 mov	 DWORD PTR _pPickEnableEffect$[ebp], eax
  00045	ff d6		 call	 esi
  00047	8b c8		 mov	 ecx, eax
  00049	ff d7		 call	 edi
  0004b	8b f8		 mov	 edi, eax

; 176  : 
; 177  : 	switch( m_ReserveNext )

  0004d	8b 83 dc 01 00
	00		 mov	 eax, DWORD PTR [ebx+476]
  00053	48		 dec	 eax
  00054	74 4c		 je	 SHORT $LN8@ProcessNor
  00056	48		 dec	 eax
  00057	74 3d		 je	 SHORT $LN7@ProcessNor
  00059	48		 dec	 eax
  0005a	75 69		 jne	 SHORT $LN9@ProcessNor

; 189  : 	case RN_HIDE:
; 190  : 		m_ItemState = FIS_HIDE;
; 191  : 		m_ReserveNext = RN_NONE;

  0005c	21 83 dc 01 00
	00		 and	 DWORD PTR [ebx+476], eax

; 192  : 
; 193  : 		SetTargetAlphaRate( 0 );

  00062	50		 push	 eax
  00063	8b cb		 mov	 ecx, ebx
  00065	c7 83 d8 01 00
	00 02 00 00 00	 mov	 DWORD PTR [ebx+472], 2
  0006f	e8 00 00 00 00	 call	 ?SetTargetAlphaRate@ioGameEntity@@QAEXH@Z ; ioGameEntity::SetTargetAlphaRate

; 194  : 
; 195  : 		if( pItemEffect )

  00074	8b 4d ec	 mov	 ecx, DWORD PTR _pItemEffect$[ebp]
  00077	8b 35 00 00 00
	00		 mov	 esi, DWORD PTR __imp_?EndEffectForce@ioEffect@@QAEXXZ
  0007d	85 c9		 test	 ecx, ecx
  0007f	74 02		 je	 SHORT $LN5@ProcessNor

; 196  : 			pItemEffect->EndEffectForce();

  00081	ff d6		 call	 esi
$LN5@ProcessNor:

; 197  : 
; 198  : 		if( pPickEnableEffect )

  00083	8b 4d e8	 mov	 ecx, DWORD PTR _pPickEnableEffect$[ebp]
  00086	85 c9		 test	 ecx, ecx
  00088	74 02		 je	 SHORT $LN4@ProcessNor

; 199  : 			pPickEnableEffect->EndEffectForce();

  0008a	ff d6		 call	 esi
$LN4@ProcessNor:

; 200  : 
; 201  : 		if( pDropEffect )

  0008c	85 ff		 test	 edi, edi
  0008e	74 35		 je	 SHORT $LN9@ProcessNor

; 202  : 			pDropEffect->EndEffectForce();

  00090	8b cf		 mov	 ecx, edi
  00092	ff d6		 call	 esi

; 203  : 
; 204  : 		break;

  00094	eb 2f		 jmp	 SHORT $LN9@ProcessNor
$LN7@ProcessNor:

; 184  : 		break;
; 185  : 	case RN_DROP_HIDE:
; 186  : 		// FIS_DROP -> FIS_NORMAL -> 'FIS_HIDE' -> FIS_DESTROY
; 187  : 		ReserveHiding();

  00096	c7 83 dc 01 00
	00 03 00 00 00	 mov	 DWORD PTR [ebx+476], 3

; 188  : 		break;

  000a0	eb 23		 jmp	 SHORT $LN9@ProcessNor
$LN8@ProcessNor:

; 178  : 	{
; 179  : 	case RN_REPOSITION:
; 180  : 		SetWorldPositionByServerSide( m_vReservePos );

  000a2	8d 83 e0 01 00
	00		 lea	 eax, DWORD PTR [ebx+480]
  000a8	50		 push	 eax
  000a9	8b cb		 mov	 ecx, ebx
  000ab	e8 00 00 00 00	 call	 ?SetWorldPositionByServerSide@ioFieldRewardItem@@QAEXABUD3DXVECTOR3@@@Z ; ioFieldRewardItem::SetWorldPositionByServerSide

; 181  : 		CreateDropEffect();

  000b0	8b cb		 mov	 ecx, ebx
  000b2	e8 00 00 00 00	 call	 ?CreateDropEffect@ioFieldRewardItem@@QAEXXZ ; ioFieldRewardItem::CreateDropEffect

; 182  : 		CreateItemEffect();

  000b7	8b cb		 mov	 ecx, ebx
  000b9	e8 00 00 00 00	 call	 ?CreateItemEffect@ioFieldRewardItem@@QAEXXZ ; ioFieldRewardItem::CreateItemEffect

; 183  : 		m_ReserveNext = RN_NONE;

  000be	83 a3 dc 01 00
	00 00		 and	 DWORD PTR [ebx+476], 0
$LN9@ProcessNor:

; 205  : 	}
; 206  : 
; 207  : 	D3DXVECTOR3 vCurPos = GetWorldPosition();

  000c5	8b 03		 mov	 eax, DWORD PTR [ebx]
  000c7	8b cb		 mov	 ecx, ebx
  000c9	ff 50 70	 call	 DWORD PTR [eax+112]
  000cc	8b f0		 mov	 esi, eax
  000ce	8d 7d f0	 lea	 edi, DWORD PTR _vCurPos$[ebp]
  000d1	a5		 movsd
  000d2	a5		 movsd

; 208  : 	float fRealHeight = GetBottomHeight() + GetCollisionBox().GetExtents(1);

  000d3	6a 01		 push	 1
  000d5	8b cb		 mov	 ecx, ebx
  000d7	a5		 movsd
  000d8	e8 00 00 00 00	 call	 ?GetCollisionBox@ioGameEntity@@QBEABVioOrientBox@@XZ ; ioGameEntity::GetCollisionBox
  000dd	8b c8		 mov	 ecx, eax
  000df	ff 15 00 00 00
	00		 call	 DWORD PTR __imp_?GetExtents@ioOrientBox@@QBEMH@Z
  000e5	8b cb		 mov	 ecx, ebx
  000e7	dd 5d e4	 fstp	 QWORD PTR tv86[ebp]
  000ea	e8 00 00 00 00	 call	 ?GetBottomHeight@ioGameEntity@@QBEMXZ ; ioGameEntity::GetBottomHeight
  000ef	dc 45 e4	 fadd	 QWORD PTR tv86[ebp]
  000f2	d9 5d ec	 fstp	 DWORD PTR _fRealHeight$[ebp]

; 209  : 
; 210  : 	if( vCurPos.y - fRealHeight > 20.0f )

  000f5	d9 45 f4	 fld	 DWORD PTR _vCurPos$[ebp+4]
  000f8	d8 65 ec	 fsub	 DWORD PTR _fRealHeight$[ebp]
  000fb	dd 05 00 00 00
	00		 fld	 QWORD PTR __real@4034000000000000
  00101	d9 c9		 fxch	 ST(1)
  00103	df f1		 fcomip	 ST(1)
  00105	dd d8		 fstp	 ST(0)
  00107	76 0d		 jbe	 SHORT $LN2@ProcessNor

; 211  : 	{
; 212  : 		SetDropState( vCurPos );

  00109	8d 45 f0	 lea	 eax, DWORD PTR _vCurPos$[ebp]
  0010c	50		 push	 eax
  0010d	8b cb		 mov	 ecx, ebx
  0010f	e8 00 00 00 00	 call	 ?SetDropState@ioFieldRewardItem@@QAEXABUD3DXVECTOR3@@@Z ; ioFieldRewardItem::SetDropState

; 213  : 	}
; 214  : 	else

  00114	eb 21		 jmp	 SHORT $LN1@ProcessNor
$LN2@ProcessNor:

; 215  : 	{
; 216  : 		vCurPos.y = fRealHeight;

  00116	f3 0f 10 45 ec	 movss	 xmm0, DWORD PTR _fRealHeight$[ebp]

; 217  : 		SetWorldPosition( vCurPos );

  0011b	8b 03		 mov	 eax, DWORD PTR [ebx]
  0011d	8d 4d f0	 lea	 ecx, DWORD PTR _vCurPos$[ebp]
  00120	51		 push	 ecx
  00121	8b cb		 mov	 ecx, ebx
  00123	f3 0f 11 45 f4	 movss	 DWORD PTR _vCurPos$[ebp+4], xmm0
  00128	ff 50 44	 call	 DWORD PTR [eax+68]

; 218  : 		m_vPrePos = vCurPos;

  0012b	8d bb 04 02 00
	00		 lea	 edi, DWORD PTR [ebx+516]
  00131	8d 75 f0	 lea	 esi, DWORD PTR _vCurPos$[ebp]
  00134	a5		 movsd
  00135	a5		 movsd
  00136	a5		 movsd
$LN1@ProcessNor:

; 219  : 	}
; 220  : }

  00137	8b 4d fc	 mov	 ecx, DWORD PTR __$ArrayPad$[ebp]
  0013a	5f		 pop	 edi
  0013b	5e		 pop	 esi
  0013c	33 cd		 xor	 ecx, ebp
  0013e	5b		 pop	 ebx
  0013f	e8 00 00 00 00	 call	 @__security_check_cookie@4
  00144	c9		 leave
  00145	c3		 ret	 0
?ProcessNormal@ioFieldRewardItem@@IAEXXZ ENDP		; ioFieldRewardItem::ProcessNormal
_TEXT	ENDS
PUBLIC	__real@408c200000000000
PUBLIC	__$ArrayPad$
PUBLIC	?ProcessDropping@ioFieldRewardItem@@IAEXM@Z	; ioFieldRewardItem::ProcessDropping
EXTRN	__imp_?QUAT_IDENTITY@ioMath@@2UD3DXQUATERNION@@A:BYTE
;	COMDAT __real@408c200000000000
CONST	SEGMENT
__real@408c200000000000 DQ 0408c200000000000r	; 900
; Function compile flags: /Ogsp
CONST	ENDS
;	COMDAT ?ProcessDropping@ioFieldRewardItem@@IAEXM@Z
_TEXT	SEGMENT
tv289 = -40						; size = 8
tv82 = -40						; size = 8
_pPickEnableEffect$ = -36				; size = 4
_fMapHeight$ = -32					; size = 4
_pItemEffect$ = -32					; size = 4
_vCurPos$530581 = -28					; size = 12
_vPos$ = -16						; size = 12
__$ArrayPad$ = -4					; size = 4
_fTimePerSec$ = 8					; size = 4
?ProcessDropping@ioFieldRewardItem@@IAEXM@Z PROC	; ioFieldRewardItem::ProcessDropping, COMDAT
; _this$ = ecx

; 223  : {

  00000	55		 push	 ebp
  00001	8b ec		 mov	 ebp, esp
  00003	83 ec 28	 sub	 esp, 40			; 00000028H
  00006	a1 00 00 00 00	 mov	 eax, DWORD PTR ___security_cookie
  0000b	33 c5		 xor	 eax, ebp
  0000d	89 45 fc	 mov	 DWORD PTR __$ArrayPad$[ebp], eax
  00010	53		 push	 ebx
  00011	56		 push	 esi

; 224  : 	ioEffect *pItemEffect = g_EffectFactory.GetEffect( m_ItemEffect );

  00012	8b 35 00 00 00
	00		 mov	 esi, DWORD PTR __imp_?GetSingleton@ioEffectFactory@@SAAAV1@XZ
  00018	8b d9		 mov	 ebx, ecx
  0001a	57		 push	 edi
  0001b	ff b3 cc 01 00
	00		 push	 DWORD PTR [ebx+460]
  00021	ff d6		 call	 esi
  00023	8b 3d 00 00 00
	00		 mov	 edi, DWORD PTR __imp_?GetEffect@ioEffectFactory@@QAEPAVioEffect@@K@Z
  00029	8b c8		 mov	 ecx, eax
  0002b	ff d7		 call	 edi

; 225  : 	ioEffect *pPickEnableEffect = g_EffectFactory.GetEffect( m_PickEnableEffect );

  0002d	ff b3 d0 01 00
	00		 push	 DWORD PTR [ebx+464]
  00033	89 45 e0	 mov	 DWORD PTR _pItemEffect$[ebp], eax
  00036	ff d6		 call	 esi
  00038	8b c8		 mov	 ecx, eax
  0003a	ff d7		 call	 edi

; 226  : 	ioEffect *pDropEffect = g_EffectFactory.GetEffect( m_CreateDropEffect );

  0003c	ff b3 d4 01 00
	00		 push	 DWORD PTR [ebx+468]
  00042	89 45 dc	 mov	 DWORD PTR _pPickEnableEffect$[ebp], eax
  00045	ff d6		 call	 esi
  00047	8b c8		 mov	 ecx, eax
  00049	ff d7		 call	 edi

; 227  : 
; 228  : 	switch( m_ReserveNext )

  0004b	83 bb dc 01 00
	00 03		 cmp	 DWORD PTR [ebx+476], 3
  00052	8b f8		 mov	 edi, eax

; 251  : 		return;
; 252  : 	}
; 253  : 
; 254  : 	D3DXVECTOR3 vPos = GetWorldPosition();

  00054	8b cb		 mov	 ecx, ebx
  00056	0f 84 47 01 00
	00		 je	 $LN11@ProcessDro
  0005c	8b 03		 mov	 eax, DWORD PTR [ebx]
  0005e	ff 50 70	 call	 DWORD PTR [eax+112]

; 255  : 	vPos.y += m_fDropPower * fTimePerSec;

  00061	f3 0f 10 83 ec
	01 00 00	 movss	 xmm0, DWORD PTR [ebx+492]
  00069	f3 0f 10 55 08	 movss	 xmm2, DWORD PTR _fTimePerSec$[ebp]

; 256  : 	m_fDropPower -= m_fDropFriction * fTimePerSec;
; 257  : 
; 258  : 	m_pGroup->GetParentNode()->PitchX( fTimePerSec * 900.0f );

  0006e	8b 4b 04	 mov	 ecx, DWORD PTR [ebx+4]
  00071	8b f0		 mov	 esi, eax
  00073	8d 7d f0	 lea	 edi, DWORD PTR _vPos$[ebp]
  00076	a5		 movsd
  00077	a5		 movsd
  00078	0f 5a c8	 cvtps2pd xmm1, xmm0
  0007b	0f 5a d2	 cvtps2pd xmm2, xmm2
  0007e	f2 0f 59 ca	 mulsd	 xmm1, xmm2
  00082	a5		 movsd
  00083	f3 0f 10 55 f4	 movss	 xmm2, DWORD PTR _vPos$[ebp+4]
  00088	0f 5a d2	 cvtps2pd xmm2, xmm2
  0008b	f2 0f 58 ca	 addsd	 xmm1, xmm2
  0008f	f3 0f 10 55 08	 movss	 xmm2, DWORD PTR _fTimePerSec$[ebp]
  00094	66 0f 5a c9	 cvtpd2ps xmm1, xmm1
  00098	f3 0f 11 4d f4	 movss	 DWORD PTR _vPos$[ebp+4], xmm1
  0009d	f3 0f 10 8b f0
	01 00 00	 movss	 xmm1, DWORD PTR [ebx+496]
  000a5	0f 5a c0	 cvtps2pd xmm0, xmm0
  000a8	0f 5a c9	 cvtps2pd xmm1, xmm1
  000ab	0f 5a d2	 cvtps2pd xmm2, xmm2
  000ae	f2 0f 59 ca	 mulsd	 xmm1, xmm2
  000b2	f2 0f 5c c1	 subsd	 xmm0, xmm1
  000b6	66 0f 5a c0	 cvtpd2ps xmm0, xmm0
  000ba	f3 0f 11 83 ec
	01 00 00	 movss	 DWORD PTR [ebx+492], xmm0
  000c2	8b 01		 mov	 eax, DWORD PTR [ecx]
  000c4	ff 50 30	 call	 DWORD PTR [eax+48]
  000c7	f3 0f 10 45 08	 movss	 xmm0, DWORD PTR _fTimePerSec$[ebp]
  000cc	8b 10		 mov	 edx, DWORD PTR [eax]
  000ce	6a 01		 push	 1
  000d0	0f 5a c0	 cvtps2pd xmm0, xmm0
  000d3	f2 0f 59 05 00
	00 00 00	 mulsd	 xmm0, QWORD PTR __real@408c200000000000
  000db	51		 push	 ecx
  000dc	f2 0f 5a c0	 cvtsd2ss xmm0, xmm0
  000e0	8b c8		 mov	 ecx, eax
  000e2	f3 0f 11 04 24	 movss	 DWORD PTR [esp], xmm0
  000e7	ff 52 44	 call	 DWORD PTR [edx+68]

; 259  : 
; 260  : 	float fMapHeight = GetBottomHeight() + GetCollisionBox().GetExtents(1);

  000ea	6a 01		 push	 1
  000ec	8b cb		 mov	 ecx, ebx
  000ee	e8 00 00 00 00	 call	 ?GetCollisionBox@ioGameEntity@@QBEABVioOrientBox@@XZ ; ioGameEntity::GetCollisionBox
  000f3	8b c8		 mov	 ecx, eax
  000f5	ff 15 00 00 00
	00		 call	 DWORD PTR __imp_?GetExtents@ioOrientBox@@QBEMH@Z
  000fb	dd 5d d8	 fstp	 QWORD PTR tv289[ebp]
  000fe	8b cb		 mov	 ecx, ebx
  00100	e8 00 00 00 00	 call	 ?GetBottomHeight@ioGameEntity@@QBEMXZ ; ioGameEntity::GetBottomHeight
  00105	dc 45 d8	 fadd	 QWORD PTR tv289[ebp]
  00108	d9 5d e0	 fstp	 DWORD PTR _fMapHeight$[ebp]

; 261  : 
; 262  : 	if( fMapHeight < 0.0f )

  0010b	d9 45 e0	 fld	 DWORD PTR _fMapHeight$[ebp]
  0010e	d9 ee		 fldz
  00110	df f1		 fcomip	 ST(1)
  00112	dd d8		 fstp	 ST(0)
  00114	76 05		 jbe	 SHORT $LN18@ProcessDro

; 263  : 		fMapHeight = 0.0f;

  00116	0f 57 c0	 xorps	 xmm0, xmm0
  00119	eb 05		 jmp	 SHORT $LN7@ProcessDro
$LN18@ProcessDro:
  0011b	f3 0f 10 45 e0	 movss	 xmm0, DWORD PTR _fMapHeight$[ebp]
$LN7@ProcessDro:

; 264  : 
; 265  : 	if( fMapHeight > vPos.y )

  00120	f3 0f 10 55 f4	 movss	 xmm2, DWORD PTR _vPos$[ebp+4]
  00125	0f 5a c8	 cvtps2pd xmm1, xmm0
  00128	0f 5a d2	 cvtps2pd xmm2, xmm2
  0012b	66 0f 2f ca	 comisd	 xmm1, xmm2
  0012f	76 41		 jbe	 SHORT $LN19@ProcessDro

; 266  : 	{
; 267  : 		vPos.y = fMapHeight;
; 268  : 		SetWorldOrientation( ioMath::QUAT_IDENTITY );

  00131	ff 35 00 00 00
	00		 push	 DWORD PTR __imp_?QUAT_IDENTITY@ioMath@@2UD3DXQUATERNION@@A
  00137	8b 03		 mov	 eax, DWORD PTR [ebx]
  00139	8b cb		 mov	 ecx, ebx
  0013b	f3 0f 11 45 f4	 movss	 DWORD PTR _vPos$[ebp+4], xmm0
  00140	ff 50 48	 call	 DWORD PTR [eax+72]

; 269  : 
; 270  : 		if( m_iCurAlphaRate != 0 )

  00143	33 c0		 xor	 eax, eax
  00145	39 43 08	 cmp	 DWORD PTR [ebx+8], eax
  00148	74 1e		 je	 SHORT $LN5@ProcessDro

; 271  : 		{
; 272  : 			m_ItemState = FIS_NORMAL;

  0014a	89 83 d8 01 00
	00		 mov	 DWORD PTR [ebx+472], eax

; 273  : 			if( m_ReserveNext == RN_NONE )

  00150	39 83 dc 01 00
	00		 cmp	 DWORD PTR [ebx+476], eax
  00156	75 1a		 jne	 SHORT $LN19@ProcessDro

; 274  : 			{
; 275  : 				CreateDropEffect();

  00158	8b cb		 mov	 ecx, ebx
  0015a	e8 00 00 00 00	 call	 ?CreateDropEffect@ioFieldRewardItem@@QAEXXZ ; ioFieldRewardItem::CreateDropEffect

; 276  : 				CreateItemEffect();

  0015f	8b cb		 mov	 ecx, ebx
  00161	e8 00 00 00 00	 call	 ?CreateItemEffect@ioFieldRewardItem@@QAEXXZ ; ioFieldRewardItem::CreateItemEffect

; 277  : 			}
; 278  : 		}
; 279  : 		else

  00166	eb 0a		 jmp	 SHORT $LN19@ProcessDro
$LN5@ProcessDro:

; 280  : 		{
; 281  : 			m_ItemState = FIS_HIDE;

  00168	c7 83 d8 01 00
	00 02 00 00 00	 mov	 DWORD PTR [ebx+472], 2
$LN19@ProcessDro:

; 282  : 		}
; 283  : 	}
; 284  : 
; 285  : 	SetWorldPosition( vPos );

  00172	8b 03		 mov	 eax, DWORD PTR [ebx]
  00174	8d 4d f0	 lea	 ecx, DWORD PTR _vPos$[ebp]
  00177	51		 push	 ecx
  00178	8b cb		 mov	 ecx, ebx
  0017a	ff 50 44	 call	 DWORD PTR [eax+68]

; 286  : 
; 287  : 	if( m_bDroppingEndHide )

  0017d	80 bb 24 02 00
	00 00		 cmp	 BYTE PTR [ebx+548], 0
  00184	0f 84 98 00 00
	00		 je	 $LN16@ProcessDro

; 288  : 	{
; 289  : 		if( m_ItemState == FIS_NORMAL )

  0018a	83 bb d8 01 00
	00 00		 cmp	 DWORD PTR [ebx+472], 0
  00191	0f 85 8b 00 00
	00		 jne	 $LN16@ProcessDro

; 290  : 			ReserveHiding();

  00197	c7 83 dc 01 00
	00 03 00 00 00	 mov	 DWORD PTR [ebx+476], 3
  001a1	eb 7f		 jmp	 SHORT $LN16@ProcessDro
$LN11@ProcessDro:

; 229  : 	{
; 230  : 	case RN_HIDE:
; 231  : 		m_ItemState = FIS_HIDE;
; 232  : 		m_ReserveNext = RN_NONE;

  001a3	83 a3 dc 01 00
	00 00		 and	 DWORD PTR [ebx+476], 0

; 233  : 
; 234  : 		SetTargetAlphaRate( 0 );

  001aa	6a 00		 push	 0
  001ac	c7 83 d8 01 00
	00 02 00 00 00	 mov	 DWORD PTR [ebx+472], 2
  001b6	e8 00 00 00 00	 call	 ?SetTargetAlphaRate@ioGameEntity@@QAEXH@Z ; ioGameEntity::SetTargetAlphaRate

; 235  : 
; 236  : 		if( pItemEffect )

  001bb	8b 4d e0	 mov	 ecx, DWORD PTR _pItemEffect$[ebp]
  001be	8b 35 00 00 00
	00		 mov	 esi, DWORD PTR __imp_?EndEffectForce@ioEffect@@QAEXXZ
  001c4	85 c9		 test	 ecx, ecx
  001c6	74 02		 je	 SHORT $LN10@ProcessDro

; 237  : 			pItemEffect->EndEffectForce();

  001c8	ff d6		 call	 esi
$LN10@ProcessDro:

; 238  : 
; 239  : 		if( pPickEnableEffect )

  001ca	8b 4d dc	 mov	 ecx, DWORD PTR _pPickEnableEffect$[ebp]
  001cd	85 c9		 test	 ecx, ecx
  001cf	74 02		 je	 SHORT $LN9@ProcessDro

; 240  : 			pPickEnableEffect->EndEffectForce();

  001d1	ff d6		 call	 esi
$LN9@ProcessDro:

; 241  : 
; 242  : 		if( pDropEffect )

  001d3	85 ff		 test	 edi, edi
  001d5	74 04		 je	 SHORT $LN8@ProcessDro

; 243  : 			pDropEffect->EndEffectForce();

  001d7	8b cf		 mov	 ecx, edi
  001d9	ff d6		 call	 esi
$LN8@ProcessDro:

; 244  : 
; 245  : 		D3DXVECTOR3 vCurPos = GetWorldPosition();

  001db	8b 03		 mov	 eax, DWORD PTR [ebx]
  001dd	8b cb		 mov	 ecx, ebx
  001df	ff 50 70	 call	 DWORD PTR [eax+112]
  001e2	8b f0		 mov	 esi, eax
  001e4	8d 7d e4	 lea	 edi, DWORD PTR _vCurPos$530581[ebp]
  001e7	a5		 movsd
  001e8	a5		 movsd

; 246  : 		float fRealHeight = GetBottomHeight() + GetCollisionBox().GetExtents(1);

  001e9	6a 01		 push	 1
  001eb	8b cb		 mov	 ecx, ebx
  001ed	a5		 movsd
  001ee	e8 00 00 00 00	 call	 ?GetCollisionBox@ioGameEntity@@QBEABVioOrientBox@@XZ ; ioGameEntity::GetCollisionBox
  001f3	8b c8		 mov	 ecx, eax
  001f5	ff 15 00 00 00
	00		 call	 DWORD PTR __imp_?GetExtents@ioOrientBox@@QBEMH@Z
  001fb	8b cb		 mov	 ecx, ebx
  001fd	dd 5d d8	 fstp	 QWORD PTR tv82[ebp]
  00200	e8 00 00 00 00	 call	 ?GetBottomHeight@ioGameEntity@@QBEMXZ ; ioGameEntity::GetBottomHeight
  00205	dc 45 d8	 fadd	 QWORD PTR tv82[ebp]

; 247  : 
; 248  : 		vCurPos.y = fRealHeight;
; 249  : 		SetWorldPosition( vCurPos );

  00208	8b 03		 mov	 eax, DWORD PTR [ebx]
  0020a	8d 4d e4	 lea	 ecx, DWORD PTR _vCurPos$530581[ebp]
  0020d	51		 push	 ecx
  0020e	d9 5d e8	 fstp	 DWORD PTR _vCurPos$530581[ebp+4]
  00211	8b cb		 mov	 ecx, ebx
  00213	ff 50 44	 call	 DWORD PTR [eax+68]

; 250  : 		m_vPrePos = vCurPos;

  00216	8d bb 04 02 00
	00		 lea	 edi, DWORD PTR [ebx+516]
  0021c	8d 75 e4	 lea	 esi, DWORD PTR _vCurPos$530581[ebp]
  0021f	a5		 movsd
  00220	a5		 movsd
  00221	a5		 movsd

; 290  : 			ReserveHiding();

$LN16@ProcessDro:

; 291  : 	}
; 292  : }

  00222	8b 4d fc	 mov	 ecx, DWORD PTR __$ArrayPad$[ebp]
  00225	5f		 pop	 edi
  00226	5e		 pop	 esi
  00227	33 cd		 xor	 ecx, ebp
  00229	5b		 pop	 ebx
  0022a	e8 00 00 00 00	 call	 @__security_check_cookie@4
  0022f	c9		 leave
  00230	c2 04 00	 ret	 4
?ProcessDropping@ioFieldRewardItem@@IAEXM@Z ENDP	; ioFieldRewardItem::ProcessDropping
_TEXT	ENDS
PUBLIC	__$ArrayPad$
PUBLIC	?ProcessMoving@ioFieldRewardItem@@IAEXM@Z	; ioFieldRewardItem::ProcessMoving
EXTRN	_D3DXVec3Normalize@8:PROC
; Function compile flags: /Ogsp
;	COMDAT ?ProcessMoving@ioFieldRewardItem@@IAEXM@Z
_TEXT	SEGMENT
_pPickEnableEffect$ = -60				; size = 4
$T530626 = -56						; size = 12
tv232 = -52						; size = 8
tv82 = -52						; size = 8
tv660 = -48						; size = 4
_pDropEffect$ = -48					; size = 4
_fMapHeight$ = -44					; size = 4
_pItemEffect$ = -44					; size = 4
_vCurPos$530617 = -40					; size = 12
_vDir$ = -28						; size = 12
_vPos$ = -16						; size = 12
__$ArrayPad$ = -4					; size = 4
_fTimePerSec$ = 8					; size = 4
?ProcessMoving@ioFieldRewardItem@@IAEXM@Z PROC		; ioFieldRewardItem::ProcessMoving, COMDAT
; _this$ = ecx

; 313  : {

  00000	55		 push	 ebp
  00001	8b ec		 mov	 ebp, esp
  00003	83 ec 3c	 sub	 esp, 60			; 0000003cH
  00006	a1 00 00 00 00	 mov	 eax, DWORD PTR ___security_cookie
  0000b	33 c5		 xor	 eax, ebp
  0000d	89 45 fc	 mov	 DWORD PTR __$ArrayPad$[ebp], eax
  00010	53		 push	 ebx
  00011	56		 push	 esi

; 314  : 	ioEffect *pItemEffect = g_EffectFactory.GetEffect( m_ItemEffect );

  00012	8b 35 00 00 00
	00		 mov	 esi, DWORD PTR __imp_?GetSingleton@ioEffectFactory@@SAAAV1@XZ
  00018	8b d9		 mov	 ebx, ecx
  0001a	57		 push	 edi
  0001b	ff b3 cc 01 00
	00		 push	 DWORD PTR [ebx+460]
  00021	ff d6		 call	 esi
  00023	8b 3d 00 00 00
	00		 mov	 edi, DWORD PTR __imp_?GetEffect@ioEffectFactory@@QAEPAVioEffect@@K@Z
  00029	8b c8		 mov	 ecx, eax
  0002b	ff d7		 call	 edi

; 315  : 	ioEffect *pPickEnableEffect = g_EffectFactory.GetEffect( m_PickEnableEffect );

  0002d	ff b3 d0 01 00
	00		 push	 DWORD PTR [ebx+464]
  00033	89 45 d4	 mov	 DWORD PTR _pItemEffect$[ebp], eax
  00036	ff d6		 call	 esi
  00038	8b c8		 mov	 ecx, eax
  0003a	ff d7		 call	 edi

; 316  : 	ioEffect *pDropEffect = g_EffectFactory.GetEffect( m_CreateDropEffect );

  0003c	ff b3 d4 01 00
	00		 push	 DWORD PTR [ebx+468]
  00042	89 45 c4	 mov	 DWORD PTR _pPickEnableEffect$[ebp], eax
  00045	ff d6		 call	 esi
  00047	8b c8		 mov	 ecx, eax
  00049	ff d7		 call	 edi

; 317  : 
; 318  : 	switch( m_ReserveNext )

  0004b	83 bb dc 01 00
	00 03		 cmp	 DWORD PTR [ebx+476], 3
  00052	89 45 d0	 mov	 DWORD PTR _pDropEffect$[ebp], eax

; 341  : 		return;
; 342  : 	}
; 343  : 
; 344  : 	if( !CheckEnableMove() )

  00055	8b cb		 mov	 ecx, ebx
  00057	0f 84 30 02 00
	00		 je	 $LN10@ProcessMov
  0005d	e8 00 00 00 00	 call	 ?CheckEnableMove@ioFieldRewardItem@@IAE_NXZ ; ioFieldRewardItem::CheckEnableMove
  00062	84 c0		 test	 al, al
  00064	75 35		 jne	 SHORT $LN6@ProcessMov

; 345  : 	{
; 346  : 		m_ItemState = FIS_DROP;
; 347  : 		m_fDropPower = 0.0f;

  00066	0f 57 c0	 xorps	 xmm0, xmm0
  00069	c7 83 d8 01 00
	00 01 00 00 00	 mov	 DWORD PTR [ebx+472], 1
  00073	f3 0f 11 83 ec
	01 00 00	 movss	 DWORD PTR [ebx+492], xmm0

; 348  : 		m_fDropFriction = FLOAT1000;

  0007b	b8 e8 03 00 00	 mov	 eax, 1000		; 000003e8H
  00080	89 45 d0	 mov	 DWORD PTR tv660[ebp], eax
  00083	db 45 d0	 fild	 DWORD PTR tv660[ebp]
  00086	85 c0		 test	 eax, eax
  00088	79 06		 jns	 SHORT $LN30@ProcessMov
  0008a	d8 05 00 00 00
	00		 fadd	 DWORD PTR __real@4f800000
$LN30@ProcessMov:
  00090	d9 9b f0 01 00
	00		 fstp	 DWORD PTR [ebx+496]

; 349  : 
; 350  : 		return;

  00096	e9 72 02 00 00	 jmp	 $LN13@ProcessMov
$LN6@ProcessMov:

; 351  : 	}
; 352  : 
; 353  : 	D3DXVECTOR3 vPos = GetWorldPosition();

  0009b	8b 03		 mov	 eax, DWORD PTR [ebx]
  0009d	8b cb		 mov	 ecx, ebx
  0009f	ff 50 70	 call	 DWORD PTR [eax+112]

; 354  : 	D3DXVECTOR3 vDir = m_vTargetPos - vPos;

  000a2	f3 0f 10 83 18
	02 00 00	 movss	 xmm0, DWORD PTR [ebx+536]
  000aa	8b f0		 mov	 esi, eax
  000ac	8d 7d f0	 lea	 edi, DWORD PTR _vPos$[ebp]
  000af	a5		 movsd
  000b0	a5		 movsd
  000b1	0f 5a c0	 cvtps2pd xmm0, xmm0
  000b4	a5		 movsd
  000b5	f3 0f 10 4d f0	 movss	 xmm1, DWORD PTR _vPos$[ebp]
  000ba	0f 5a c9	 cvtps2pd xmm1, xmm1
  000bd	f2 0f 5c c1	 subsd	 xmm0, xmm1
  000c1	f3 0f 10 4d f4	 movss	 xmm1, DWORD PTR _vPos$[ebp+4]
  000c6	66 0f 5a c0	 cvtpd2ps xmm0, xmm0
  000ca	f3 0f 11 45 e4	 movss	 DWORD PTR _vDir$[ebp], xmm0
  000cf	f3 0f 10 83 1c
	02 00 00	 movss	 xmm0, DWORD PTR [ebx+540]
  000d7	0f 5a c0	 cvtps2pd xmm0, xmm0
  000da	0f 5a c9	 cvtps2pd xmm1, xmm1
  000dd	f2 0f 5c c1	 subsd	 xmm0, xmm1
  000e1	f3 0f 10 4d f8	 movss	 xmm1, DWORD PTR _vPos$[ebp+8]
  000e6	66 0f 5a c0	 cvtpd2ps xmm0, xmm0
  000ea	f3 0f 11 45 e8	 movss	 DWORD PTR _vDir$[ebp+4], xmm0
  000ef	f3 0f 10 83 20
	02 00 00	 movss	 xmm0, DWORD PTR [ebx+544]

; 355  : 	D3DXVec3Normalize( &vDir, &vDir );

  000f7	8d 45 e4	 lea	 eax, DWORD PTR _vDir$[ebp]
  000fa	0f 5a c0	 cvtps2pd xmm0, xmm0
  000fd	0f 5a c9	 cvtps2pd xmm1, xmm1
  00100	50		 push	 eax
  00101	f2 0f 5c c1	 subsd	 xmm0, xmm1
  00105	66 0f 5a c0	 cvtpd2ps xmm0, xmm0
  00109	50		 push	 eax
  0010a	f3 0f 11 45 ec	 movss	 DWORD PTR _vDir$[ebp+8], xmm0
  0010f	e8 00 00 00 00	 call	 _D3DXVec3Normalize@8

; 356  : 
; 357  : 	float fCurSpeed = m_fMoveSpeed * fTimePerSec;

  00114	f3 0f 10 83 14
	02 00 00	 movss	 xmm0, DWORD PTR [ebx+532]
  0011c	f3 0f 10 4d 08	 movss	 xmm1, DWORD PTR _fTimePerSec$[ebp]
  00121	0f 5a c9	 cvtps2pd xmm1, xmm1
  00124	0f 5a c0	 cvtps2pd xmm0, xmm0
  00127	f2 0f 59 c1	 mulsd	 xmm0, xmm1

; 358  : 	vPos = vPos + vDir * fCurSpeed;

  0012b	f3 0f 10 4d e4	 movss	 xmm1, DWORD PTR _vDir$[ebp]
  00130	0f 5a c9	 cvtps2pd xmm1, xmm1
  00133	66 0f 5a c0	 cvtpd2ps xmm0, xmm0
  00137	0f 57 d2	 xorps	 xmm2, xmm2
  0013a	f3 0f 5a d0	 cvtss2sd xmm2, xmm0
  0013e	f2 0f 59 ca	 mulsd	 xmm1, xmm2
  00142	f3 0f 10 55 e8	 movss	 xmm2, DWORD PTR _vDir$[ebp+4]
  00147	0f 57 db	 xorps	 xmm3, xmm3
  0014a	f3 0f 5a d8	 cvtss2sd xmm3, xmm0
  0014e	0f 5a d2	 cvtps2pd xmm2, xmm2
  00151	f2 0f 59 d3	 mulsd	 xmm2, xmm3
  00155	f3 0f 10 5d ec	 movss	 xmm3, DWORD PTR _vDir$[ebp+8]
  0015a	f3 0f 5a c0	 cvtss2sd xmm0, xmm0
  0015e	66 0f 5a c9	 cvtpd2ps xmm1, xmm1
  00162	0f 5a db	 cvtps2pd xmm3, xmm3
  00165	f2 0f 59 d8	 mulsd	 xmm3, xmm0
  00169	f3 0f 5a c9	 cvtss2sd xmm1, xmm1
  0016d	0f 57 c0	 xorps	 xmm0, xmm0
  00170	66 0f 5a c3	 cvtpd2ps xmm0, xmm3
  00174	f3 0f 10 5d f0	 movss	 xmm3, DWORD PTR _vPos$[ebp]
  00179	0f 5a db	 cvtps2pd xmm3, xmm3
  0017c	f2 0f 58 cb	 addsd	 xmm1, xmm3
  00180	66 0f 5a c9	 cvtpd2ps xmm1, xmm1
  00184	f3 0f 11 4d c8	 movss	 DWORD PTR $T530626[ebp], xmm1
  00189	0f 57 c9	 xorps	 xmm1, xmm1
  0018c	66 0f 5a d2	 cvtpd2ps xmm2, xmm2
  00190	f3 0f 5a ca	 cvtss2sd xmm1, xmm2
  00194	f3 0f 10 55 f4	 movss	 xmm2, DWORD PTR _vPos$[ebp+4]
  00199	0f 5a d2	 cvtps2pd xmm2, xmm2
  0019c	f2 0f 58 ca	 addsd	 xmm1, xmm2
  001a0	66 0f 5a c9	 cvtpd2ps xmm1, xmm1
  001a4	f3 0f 11 4d cc	 movss	 DWORD PTR $T530626[ebp+4], xmm1
  001a9	f3 0f 10 4d f8	 movss	 xmm1, DWORD PTR _vPos$[ebp+8]
  001ae	0f 5a c0	 cvtps2pd xmm0, xmm0
  001b1	0f 5a c9	 cvtps2pd xmm1, xmm1
  001b4	f2 0f 58 c1	 addsd	 xmm0, xmm1
  001b8	66 0f 5a c0	 cvtpd2ps xmm0, xmm0
  001bc	f3 0f 11 45 d0	 movss	 DWORD PTR $T530626[ebp+8], xmm0
  001c1	8d 75 c8	 lea	 esi, DWORD PTR $T530626[ebp]
  001c4	8d 7d f0	 lea	 edi, DWORD PTR _vPos$[ebp]
  001c7	a5		 movsd
  001c8	a5		 movsd
  001c9	a5		 movsd

; 359  : 
; 360  : 	m_pGroup->GetParentNode()->PitchX( fTimePerSec * 900.0f );

  001ca	8b 4b 04	 mov	 ecx, DWORD PTR [ebx+4]
  001cd	8b 01		 mov	 eax, DWORD PTR [ecx]
  001cf	ff 50 30	 call	 DWORD PTR [eax+48]
  001d2	f3 0f 10 45 08	 movss	 xmm0, DWORD PTR _fTimePerSec$[ebp]
  001d7	8b 10		 mov	 edx, DWORD PTR [eax]
  001d9	6a 01		 push	 1
  001db	0f 5a c0	 cvtps2pd xmm0, xmm0
  001de	f2 0f 59 05 00
	00 00 00	 mulsd	 xmm0, QWORD PTR __real@408c200000000000
  001e6	51		 push	 ecx
  001e7	f2 0f 5a c0	 cvtsd2ss xmm0, xmm0
  001eb	8b c8		 mov	 ecx, eax
  001ed	f3 0f 11 04 24	 movss	 DWORD PTR [esp], xmm0
  001f2	ff 52 44	 call	 DWORD PTR [edx+68]

; 361  : 
; 362  : 	float fMapHeight = GetBottomHeight() + GetCollisionBox().GetExtents(1);

  001f5	6a 01		 push	 1
  001f7	8b cb		 mov	 ecx, ebx
  001f9	e8 00 00 00 00	 call	 ?GetCollisionBox@ioGameEntity@@QBEABVioOrientBox@@XZ ; ioGameEntity::GetCollisionBox
  001fe	8b c8		 mov	 ecx, eax
  00200	ff 15 00 00 00
	00		 call	 DWORD PTR __imp_?GetExtents@ioOrientBox@@QBEMH@Z
  00206	dd 5d cc	 fstp	 QWORD PTR tv232[ebp]
  00209	8b cb		 mov	 ecx, ebx
  0020b	e8 00 00 00 00	 call	 ?GetBottomHeight@ioGameEntity@@QBEMXZ ; ioGameEntity::GetBottomHeight
  00210	dc 45 cc	 fadd	 QWORD PTR tv232[ebp]
  00213	d9 5d d4	 fstp	 DWORD PTR _fMapHeight$[ebp]

; 363  : 
; 364  : 	if( fMapHeight < 0.0f )

  00216	d9 45 d4	 fld	 DWORD PTR _fMapHeight$[ebp]
  00219	d9 ee		 fldz
  0021b	df f1		 fcomip	 ST(1)
  0021d	dd d8		 fstp	 ST(0)
  0021f	76 05		 jbe	 SHORT $LN29@ProcessMov

; 365  : 		fMapHeight = 0.0f;

  00221	0f 57 c0	 xorps	 xmm0, xmm0
  00224	eb 05		 jmp	 SHORT $LN5@ProcessMov
$LN29@ProcessMov:
  00226	f3 0f 10 45 d4	 movss	 xmm0, DWORD PTR _fMapHeight$[ebp]
$LN5@ProcessMov:

; 366  : 
; 367  : 	if( fMapHeight > vPos.y )

  0022b	f3 0f 10 55 f4	 movss	 xmm2, DWORD PTR _vPos$[ebp+4]
  00230	0f 5a c8	 cvtps2pd xmm1, xmm0
  00233	0f 5a d2	 cvtps2pd xmm2, xmm2
  00236	66 0f 2f ca	 comisd	 xmm1, xmm2
  0023a	76 41		 jbe	 SHORT $LN1@ProcessMov

; 368  : 	{
; 369  : 		vPos.y = fMapHeight;
; 370  : 		SetWorldOrientation( ioMath::QUAT_IDENTITY );

  0023c	ff 35 00 00 00
	00		 push	 DWORD PTR __imp_?QUAT_IDENTITY@ioMath@@2UD3DXQUATERNION@@A
  00242	8b 03		 mov	 eax, DWORD PTR [ebx]
  00244	8b cb		 mov	 ecx, ebx
  00246	f3 0f 11 45 f4	 movss	 DWORD PTR _vPos$[ebp+4], xmm0
  0024b	ff 50 48	 call	 DWORD PTR [eax+72]

; 371  : 
; 372  : 		if( m_iCurAlphaRate != 0 )

  0024e	33 ff		 xor	 edi, edi
  00250	39 7b 08	 cmp	 DWORD PTR [ebx+8], edi
  00253	74 1e		 je	 SHORT $LN3@ProcessMov

; 373  : 		{
; 374  : 			m_ItemState = FIS_NORMAL;

  00255	89 bb d8 01 00
	00		 mov	 DWORD PTR [ebx+472], edi

; 375  : 			if( m_ReserveNext == RN_NONE )

  0025b	39 bb dc 01 00
	00		 cmp	 DWORD PTR [ebx+476], edi
  00261	75 1a		 jne	 SHORT $LN1@ProcessMov

; 376  : 			{
; 377  : 				CreateDropEffect();

  00263	8b cb		 mov	 ecx, ebx
  00265	e8 00 00 00 00	 call	 ?CreateDropEffect@ioFieldRewardItem@@QAEXXZ ; ioFieldRewardItem::CreateDropEffect

; 378  : 				CreateItemEffect();

  0026a	8b cb		 mov	 ecx, ebx
  0026c	e8 00 00 00 00	 call	 ?CreateItemEffect@ioFieldRewardItem@@QAEXXZ ; ioFieldRewardItem::CreateItemEffect

; 379  : 			}
; 380  : 		}
; 381  : 		else

  00271	eb 0a		 jmp	 SHORT $LN1@ProcessMov
$LN3@ProcessMov:

; 382  : 		{
; 383  : 			m_ItemState = FIS_HIDE;

  00273	c7 83 d8 01 00
	00 02 00 00 00	 mov	 DWORD PTR [ebx+472], 2
$LN1@ProcessMov:

; 384  : 		}
; 385  : 	}
; 386  : 
; 387  : 	SetWorldPosition( vPos );

  0027d	8b 03		 mov	 eax, DWORD PTR [ebx]
  0027f	8d 4d f0	 lea	 ecx, DWORD PTR _vPos$[ebp]
  00282	51		 push	 ecx
  00283	8b cb		 mov	 ecx, ebx
  00285	ff 50 44	 call	 DWORD PTR [eax+68]
  00288	e9 80 00 00 00	 jmp	 $LN13@ProcessMov
$LN10@ProcessMov:

; 319  : 	{
; 320  : 	case RN_HIDE:
; 321  : 		m_ItemState = FIS_HIDE;
; 322  : 		m_ReserveNext = RN_NONE;

  0028d	33 ff		 xor	 edi, edi

; 323  : 
; 324  : 		SetTargetAlphaRate( 0 );

  0028f	57		 push	 edi
  00290	c7 83 d8 01 00
	00 02 00 00 00	 mov	 DWORD PTR [ebx+472], 2
  0029a	89 bb dc 01 00
	00		 mov	 DWORD PTR [ebx+476], edi
  002a0	e8 00 00 00 00	 call	 ?SetTargetAlphaRate@ioGameEntity@@QAEXH@Z ; ioGameEntity::SetTargetAlphaRate

; 325  : 
; 326  : 		if( pItemEffect )

  002a5	8b 4d d4	 mov	 ecx, DWORD PTR _pItemEffect$[ebp]
  002a8	8b 35 00 00 00
	00		 mov	 esi, DWORD PTR __imp_?EndEffectForce@ioEffect@@QAEXXZ
  002ae	3b cf		 cmp	 ecx, edi
  002b0	74 02		 je	 SHORT $LN9@ProcessMov

; 327  : 			pItemEffect->EndEffectForce();

  002b2	ff d6		 call	 esi
$LN9@ProcessMov:

; 328  : 
; 329  : 		if( pPickEnableEffect )

  002b4	8b 4d c4	 mov	 ecx, DWORD PTR _pPickEnableEffect$[ebp]
  002b7	3b cf		 cmp	 ecx, edi
  002b9	74 02		 je	 SHORT $LN8@ProcessMov

; 330  : 			pPickEnableEffect->EndEffectForce();

  002bb	ff d6		 call	 esi
$LN8@ProcessMov:

; 331  : 
; 332  : 		if( pDropEffect )

  002bd	8b 4d d0	 mov	 ecx, DWORD PTR _pDropEffect$[ebp]
  002c0	3b cf		 cmp	 ecx, edi
  002c2	74 02		 je	 SHORT $LN7@ProcessMov

; 333  : 			pDropEffect->EndEffectForce();

  002c4	ff d6		 call	 esi
$LN7@ProcessMov:

; 334  : 
; 335  : 		D3DXVECTOR3 vCurPos = GetWorldPosition();

  002c6	8b 03		 mov	 eax, DWORD PTR [ebx]
  002c8	8b cb		 mov	 ecx, ebx
  002ca	ff 50 70	 call	 DWORD PTR [eax+112]
  002cd	8b f0		 mov	 esi, eax
  002cf	8d 7d d8	 lea	 edi, DWORD PTR _vCurPos$530617[ebp]
  002d2	a5		 movsd
  002d3	a5		 movsd

; 336  : 		float fRealHeight = GetBottomHeight() + GetCollisionBox().GetExtents(1);

  002d4	6a 01		 push	 1
  002d6	8b cb		 mov	 ecx, ebx
  002d8	a5		 movsd
  002d9	e8 00 00 00 00	 call	 ?GetCollisionBox@ioGameEntity@@QBEABVioOrientBox@@XZ ; ioGameEntity::GetCollisionBox
  002de	8b c8		 mov	 ecx, eax
  002e0	ff 15 00 00 00
	00		 call	 DWORD PTR __imp_?GetExtents@ioOrientBox@@QBEMH@Z
  002e6	8b cb		 mov	 ecx, ebx
  002e8	dd 5d cc	 fstp	 QWORD PTR tv82[ebp]
  002eb	e8 00 00 00 00	 call	 ?GetBottomHeight@ioGameEntity@@QBEMXZ ; ioGameEntity::GetBottomHeight
  002f0	dc 45 cc	 fadd	 QWORD PTR tv82[ebp]

; 337  : 
; 338  : 		vCurPos.y = fRealHeight;
; 339  : 		SetWorldPosition( vCurPos );

  002f3	8b 03		 mov	 eax, DWORD PTR [ebx]
  002f5	8d 4d d8	 lea	 ecx, DWORD PTR _vCurPos$530617[ebp]
  002f8	51		 push	 ecx
  002f9	d9 5d dc	 fstp	 DWORD PTR _vCurPos$530617[ebp+4]
  002fc	8b cb		 mov	 ecx, ebx
  002fe	ff 50 44	 call	 DWORD PTR [eax+68]

; 340  : 		m_vPrePos = vCurPos;

  00301	8d bb 04 02 00
	00		 lea	 edi, DWORD PTR [ebx+516]
  00307	8d 75 d8	 lea	 esi, DWORD PTR _vCurPos$530617[ebp]
  0030a	a5		 movsd
  0030b	a5		 movsd
  0030c	a5		 movsd
$LN13@ProcessMov:

; 388  : }

  0030d	8b 4d fc	 mov	 ecx, DWORD PTR __$ArrayPad$[ebp]
  00310	5f		 pop	 edi
  00311	5e		 pop	 esi
  00312	33 cd		 xor	 ecx, ebp
  00314	5b		 pop	 ebx
  00315	e8 00 00 00 00	 call	 @__security_check_cookie@4
  0031a	c9		 leave
  0031b	c2 04 00	 ret	 4
?ProcessMoving@ioFieldRewardItem@@IAEXM@Z ENDP		; ioFieldRewardItem::ProcessMoving
; Function compile flags: /Ogsp
; File d:\lost saga for developer\youtube\tutorial\source\src\lsclient\ioplayentity.h
_TEXT	ENDS
;	COMDAT ?SetTeam@ioPlayEntity@@UAEXW4TeamType@@@Z
_TEXT	SEGMENT
_value$531672 = 8					; size = 4
_eType$ = 8						; size = 4
?SetTeam@ioPlayEntity@@UAEXW4TeamType@@@Z PROC		; ioPlayEntity::SetTeam, COMDAT
; _this$ = ecx

; 106  : 	virtual void SetTeam( TeamType eType ) { m_TeamType = eType; }

  00000	55		 push	 ebp
  00001	8b ec		 mov	 ebp, esp
  00003	8b 45 08	 mov	 eax, DWORD PTR _eType$[ebp]
  00006	89 45 08	 mov	 DWORD PTR _value$531672[ebp], eax
  00009	8d 45 08	 lea	 eax, DWORD PTR _value$531672[ebp]
  0000c	50		 push	 eax
  0000d	81 c1 90 00 00
	00		 add	 ecx, 144		; 00000090H
  00013	e8 00 00 00 00	 call	 ?EncryptValueToPool@?$CEncrypt@W4TeamType@@@@AAEXPBD@Z ; CEncrypt<enum TeamType>::EncryptValueToPool
  00018	5d		 pop	 ebp
  00019	c2 04 00	 ret	 4
?SetTeam@ioPlayEntity@@UAEXW4TeamType@@@Z ENDP		; ioPlayEntity::SetTeam
; Function compile flags: /Ogsp
; File d:\lost saga for developer\youtube\tutorial\source\src\lsclient\iofieldrewarditem.cpp
_TEXT	ENDS
;	COMDAT ?Update@ioFieldRewardItem@@UAEXMKK@Z
_TEXT	SEGMENT
_fTimePerSec$ = 8					; size = 4
_dwPreTime$ = 12					; size = 4
_dwCurTime$ = 16					; size = 4
?Update@ioFieldRewardItem@@UAEXMKK@Z PROC		; ioFieldRewardItem::Update, COMDAT
; _this$ = ecx

; 52   : {

  00000	55		 push	 ebp
  00001	8b ec		 mov	 ebp, esp

; 53   : 	switch( m_ItemState )

  00003	8b 81 d8 01 00
	00		 mov	 eax, DWORD PTR [ecx+472]
  00009	83 e8 00	 sub	 eax, 0
  0000c	74 35		 je	 SHORT $LN4@Update
  0000e	48		 dec	 eax
  0000f	74 20		 je	 SHORT $LN3@Update
  00011	48		 dec	 eax
  00012	74 16		 je	 SHORT $LN2@Update
  00014	48		 dec	 eax
  00015	48		 dec	 eax
  00016	75 30		 jne	 SHORT $LN5@Update

; 64   : 	case FIS_MOVE:
; 65   : 		ProcessMoving( fTimePerSec );

  00018	f3 0f 10 45 08	 movss	 xmm0, DWORD PTR _fTimePerSec$[ebp]
  0001d	51		 push	 ecx
  0001e	f3 0f 11 04 24	 movss	 DWORD PTR [esp], xmm0
  00023	e8 00 00 00 00	 call	 ?ProcessMoving@ioFieldRewardItem@@IAEXM@Z ; ioFieldRewardItem::ProcessMoving

; 66   : 		break;

  00028	eb 1e		 jmp	 SHORT $LN5@Update
$LN2@Update:

; 61   : 	case FIS_HIDE:
; 62   : 		ProcessHidding();

  0002a	e8 00 00 00 00	 call	 ?ProcessHidding@ioFieldRewardItem@@IAEXXZ ; ioFieldRewardItem::ProcessHidding

; 63   : 		break;

  0002f	eb 17		 jmp	 SHORT $LN5@Update
$LN3@Update:

; 57   : 		break;
; 58   : 	case FIS_DROP:
; 59   : 		ProcessDropping( fTimePerSec );

  00031	f3 0f 10 45 08	 movss	 xmm0, DWORD PTR _fTimePerSec$[ebp]
  00036	51		 push	 ecx
  00037	f3 0f 11 04 24	 movss	 DWORD PTR [esp], xmm0
  0003c	e8 00 00 00 00	 call	 ?ProcessDropping@ioFieldRewardItem@@IAEXM@Z ; ioFieldRewardItem::ProcessDropping

; 60   : 		break;

  00041	eb 05		 jmp	 SHORT $LN5@Update
$LN4@Update:

; 54   : 	{
; 55   : 	case FIS_NORMAL:
; 56   : 		ProcessNormal();

  00043	e8 00 00 00 00	 call	 ?ProcessNormal@ioFieldRewardItem@@IAEXXZ ; ioFieldRewardItem::ProcessNormal
$LN5@Update:

; 67   : 	}
; 68   : }

  00048	5d		 pop	 ebp
  00049	c2 0c 00	 ret	 12			; 0000000cH
?Update@ioFieldRewardItem@@UAEXMKK@Z ENDP		; ioFieldRewardItem::Update
_TEXT	ENDS
END
