; Listing generated by Microsoft (R) Optimizing Compiler Version 16.00.30319.01 

	TITLE	D:\Lost Saga For Developer\Youtube\Tutorial\Source\src\LSClient\ioFightClubMode.cpp
	.686P
	.XMM
	include listing.inc
	.model	flat

INCLUDELIB MSVCRT
INCLUDELIB OLDNAMES

PUBLIC	?_EEM_DS@?$deque@UD3DXVECTOR3@@V?$allocator@UD3DXVECTOR3@@@std@@@std@@2HB ; std::deque<D3DXVECTOR3,std::allocator<D3DXVECTOR3> >::_EEM_DS
;	COMDAT ?_EEM_DS@?$deque@UD3DXVECTOR3@@V?$allocator@UD3DXVECTOR3@@@std@@@std@@2HB
CONST	SEGMENT
?_EEM_DS@?$deque@UD3DXVECTOR3@@V?$allocator@UD3DXVECTOR3@@@std@@@std@@2HB DD 01H ; std::deque<D3DXVECTOR3,std::allocator<D3DXVECTOR3> >::_EEM_DS
CONST	ENDS
PUBLIC	?return1@@YAIXZ					; return1
; Function compile flags: /Ogsp
; File d:\lost saga for developer\youtube\tutorial\source\src\lsclient\stdafx.h
;	COMDAT ?return1@@YAIXZ
_TEXT	SEGMENT
?return1@@YAIXZ PROC					; return1, COMDAT

; 17   : 	__forceinline unsigned int return1() { __asm mov eax, 1 };

  00000	b8 01 00 00 00	 mov	 eax, 1
  00005	c3		 ret	 0
?return1@@YAIXZ ENDP					; return1
_TEXT	ENDS
PUBLIC	?return5@@YAIXZ					; return5
; Function compile flags: /Ogsp
;	COMDAT ?return5@@YAIXZ
_TEXT	SEGMENT
?return5@@YAIXZ PROC					; return5, COMDAT

; 18   : 	__forceinline unsigned int return5() { __asm mov eax, 5 };

  00000	b8 05 00 00 00	 mov	 eax, 5
  00005	c3		 ret	 0
?return5@@YAIXZ ENDP					; return5
_TEXT	ENDS
PUBLIC	?return10@@YAIXZ				; return10
; Function compile flags: /Ogsp
;	COMDAT ?return10@@YAIXZ
_TEXT	SEGMENT
?return10@@YAIXZ PROC					; return10, COMDAT

; 21   : 	__forceinline unsigned int return10() { __asm mov eax, 10 };

  00000	b8 0a 00 00 00	 mov	 eax, 10			; 0000000aH
  00005	c3		 ret	 0
?return10@@YAIXZ ENDP					; return10
_TEXT	ENDS
PUBLIC	?return100@@YAIXZ				; return100
; Function compile flags: /Ogsp
;	COMDAT ?return100@@YAIXZ
_TEXT	SEGMENT
?return100@@YAIXZ PROC					; return100, COMDAT

; 25   : 	__forceinline unsigned int return100() { __asm mov eax, 100 };

  00000	b8 64 00 00 00	 mov	 eax, 100		; 00000064H
  00005	c3		 ret	 0
?return100@@YAIXZ ENDP					; return100
_TEXT	ENDS
PUBLIC	?return1000@@YAIXZ				; return1000
; Function compile flags: /Ogsp
;	COMDAT ?return1000@@YAIXZ
_TEXT	SEGMENT
?return1000@@YAIXZ PROC					; return1000, COMDAT

; 29   : 	__forceinline unsigned int return1000() { __asm mov eax, 1000 };

  00000	b8 e8 03 00 00	 mov	 eax, 1000		; 000003e8H
  00005	c3		 ret	 0
?return1000@@YAIXZ ENDP					; return1000
_TEXT	ENDS
PUBLIC	?IsOwnerChar@ioBaseChar@@QBE_NXZ		; ioBaseChar::IsOwnerChar
; Function compile flags: /Ogsp
; File d:\lost saga for developer\youtube\tutorial\source\src\lsclient\iobasechar.h
;	COMDAT ?IsOwnerChar@ioBaseChar@@QBE_NXZ
_TEXT	SEGMENT
?IsOwnerChar@ioBaseChar@@QBE_NXZ PROC			; ioBaseChar::IsOwnerChar, COMDAT
; _this$ = ecx

; 1467 : 	inline bool IsOwnerChar() const { return m_bOwnerChar; }

  00000	8a 81 84 13 00
	00		 mov	 al, BYTE PTR [ecx+4996]
  00006	c3		 ret	 0
?IsOwnerChar@ioBaseChar@@QBE_NXZ ENDP			; ioBaseChar::IsOwnerChar
_TEXT	ENDS
PUBLIC	?IsCatchMode@ioBaseChar@@QBE_NXZ		; ioBaseChar::IsCatchMode
; Function compile flags: /Ogsp
;	COMDAT ?IsCatchMode@ioBaseChar@@QBE_NXZ
_TEXT	SEGMENT
?IsCatchMode@ioBaseChar@@QBE_NXZ PROC			; ioBaseChar::IsCatchMode, COMDAT
; _this$ = ecx

; 2131 : 	inline bool IsCatchMode() const { return m_bCatchState; }

  00000	8a 81 78 23 00
	00		 mov	 al, BYTE PTR [ecx+9080]
  00006	c3		 ret	 0
?IsCatchMode@ioBaseChar@@QBE_NXZ ENDP			; ioBaseChar::IsCatchMode
_TEXT	ENDS
PUBLIC	?GetState@ioBaseChar@@QBE?AW4CharState@@XZ	; ioBaseChar::GetState
; Function compile flags: /Ogsp
;	COMDAT ?GetState@ioBaseChar@@QBE?AW4CharState@@XZ
_TEXT	SEGMENT
?GetState@ioBaseChar@@QBE?AW4CharState@@XZ PROC		; ioBaseChar::GetState, COMDAT
; _this$ = ecx

; 2156 : 	inline CharState GetState() const { return m_CharState; }	

  00000	8a 81 10 03 00
	00		 mov	 al, BYTE PTR [ecx+784]
  00006	c3		 ret	 0
?GetState@ioBaseChar@@QBE?AW4CharState@@XZ ENDP		; ioBaseChar::GetState
_TEXT	ENDS
PUBLIC	?GetLevel@ioBaseChar@@QBEHXZ			; ioBaseChar::GetLevel
; Function compile flags: /Ogsp
;	COMDAT ?GetLevel@ioBaseChar@@QBEHXZ
_TEXT	SEGMENT
?GetLevel@ioBaseChar@@QBEHXZ PROC			; ioBaseChar::GetLevel, COMDAT
; _this$ = ecx

; 2592 : 	inline int GetLevel() const { return m_iLevel; }

  00000	8b 81 cc 02 00
	00		 mov	 eax, DWORD PTR [ecx+716]
  00006	c3		 ret	 0
?GetLevel@ioBaseChar@@QBEHXZ ENDP			; ioBaseChar::GetLevel
_TEXT	ENDS
PUBLIC	?GetCharName@ioBaseChar@@QBEABVioHashString@@XZ	; ioBaseChar::GetCharName
; Function compile flags: /Ogsp
;	COMDAT ?GetCharName@ioBaseChar@@QBEABVioHashString@@XZ
_TEXT	SEGMENT
?GetCharName@ioBaseChar@@QBEABVioHashString@@XZ PROC	; ioBaseChar::GetCharName, COMDAT
; _this$ = ecx

; 2594 : 	inline const ioHashString& GetCharName() const { return m_Name; }

  00000	8d 81 d4 02 00
	00		 lea	 eax, DWORD PTR [ecx+724]
  00006	c3		 ret	 0
?GetCharName@ioBaseChar@@QBEABVioHashString@@XZ ENDP	; ioBaseChar::GetCharName
_TEXT	ENDS
PUBLIC	??_7bad_alloc@std@@6B@				; std::bad_alloc::`vftable'
PUBLIC	??0bad_alloc@std@@QAE@PBD@Z			; std::bad_alloc::bad_alloc
PUBLIC	??_R4bad_alloc@std@@6B@				; std::bad_alloc::`RTTI Complete Object Locator'
PUBLIC	??_R0?AVbad_alloc@std@@@8			; std::bad_alloc `RTTI Type Descriptor'
PUBLIC	??_R3bad_alloc@std@@8				; std::bad_alloc::`RTTI Class Hierarchy Descriptor'
PUBLIC	??_R2bad_alloc@std@@8				; std::bad_alloc::`RTTI Base Class Array'
PUBLIC	??_R1A@?0A@EA@bad_alloc@std@@8			; std::bad_alloc::`RTTI Base Class Descriptor at (0,-1,0,64)'
PUBLIC	??_R1A@?0A@EA@exception@std@@8			; std::exception::`RTTI Base Class Descriptor at (0,-1,0,64)'
PUBLIC	??_R0?AVexception@std@@@8			; std::exception `RTTI Type Descriptor'
PUBLIC	??_R3exception@std@@8				; std::exception::`RTTI Class Hierarchy Descriptor'
PUBLIC	??_R2exception@std@@8				; std::exception::`RTTI Base Class Array'
EXTRN	__imp_??0exception@std@@QAE@ABQBD@Z:PROC
EXTRN	??_7type_info@@6B@:QWORD			; type_info::`vftable'
EXTRN	??_Ebad_alloc@std@@UAEPAXI@Z:PROC		; std::bad_alloc::`vector deleting destructor'
EXTRN	?what@exception@std@@UBEPBDXZ:PROC		; std::exception::what
;	COMDAT ??_R2exception@std@@8
; File c:\program files (x86)\microsoft visual studio 10.0\vc\include\exception
rdata$r	SEGMENT
??_R2exception@std@@8 DD FLAT:??_R1A@?0A@EA@exception@std@@8 ; std::exception::`RTTI Base Class Array'
rdata$r	ENDS
;	COMDAT ??_R3exception@std@@8
rdata$r	SEGMENT
??_R3exception@std@@8 DD 00H				; std::exception::`RTTI Class Hierarchy Descriptor'
	DD	00H
	DD	01H
	DD	FLAT:??_R2exception@std@@8
rdata$r	ENDS
;	COMDAT ??_R0?AVexception@std@@@8
_DATA	SEGMENT
??_R0?AVexception@std@@@8 DD FLAT:??_7type_info@@6B@	; std::exception `RTTI Type Descriptor'
	DD	00H
	DB	'.?AVexception@std@@', 00H
_DATA	ENDS
;	COMDAT ??_R1A@?0A@EA@exception@std@@8
rdata$r	SEGMENT
??_R1A@?0A@EA@exception@std@@8 DD FLAT:??_R0?AVexception@std@@@8 ; std::exception::`RTTI Base Class Descriptor at (0,-1,0,64)'
	DD	00H
	DD	00H
	DD	0ffffffffH
	DD	00H
	DD	040H
	DD	FLAT:??_R3exception@std@@8
rdata$r	ENDS
;	COMDAT ??_R1A@?0A@EA@bad_alloc@std@@8
rdata$r	SEGMENT
??_R1A@?0A@EA@bad_alloc@std@@8 DD FLAT:??_R0?AVbad_alloc@std@@@8 ; std::bad_alloc::`RTTI Base Class Descriptor at (0,-1,0,64)'
	DD	01H
	DD	00H
	DD	0ffffffffH
	DD	00H
	DD	040H
	DD	FLAT:??_R3bad_alloc@std@@8
rdata$r	ENDS
;	COMDAT ??_R2bad_alloc@std@@8
rdata$r	SEGMENT
??_R2bad_alloc@std@@8 DD FLAT:??_R1A@?0A@EA@bad_alloc@std@@8 ; std::bad_alloc::`RTTI Base Class Array'
	DD	FLAT:??_R1A@?0A@EA@exception@std@@8
rdata$r	ENDS
;	COMDAT ??_R3bad_alloc@std@@8
rdata$r	SEGMENT
??_R3bad_alloc@std@@8 DD 00H				; std::bad_alloc::`RTTI Class Hierarchy Descriptor'
	DD	00H
	DD	02H
	DD	FLAT:??_R2bad_alloc@std@@8
rdata$r	ENDS
;	COMDAT ??_R0?AVbad_alloc@std@@@8
_DATA	SEGMENT
??_R0?AVbad_alloc@std@@@8 DD FLAT:??_7type_info@@6B@	; std::bad_alloc `RTTI Type Descriptor'
	DD	00H
	DB	'.?AVbad_alloc@std@@', 00H
_DATA	ENDS
;	COMDAT ??_R4bad_alloc@std@@6B@
rdata$r	SEGMENT
??_R4bad_alloc@std@@6B@ DD 00H				; std::bad_alloc::`RTTI Complete Object Locator'
	DD	00H
	DD	00H
	DD	FLAT:??_R0?AVbad_alloc@std@@@8
	DD	FLAT:??_R3bad_alloc@std@@8
rdata$r	ENDS
;	COMDAT ??_7bad_alloc@std@@6B@
CONST	SEGMENT
??_7bad_alloc@std@@6B@ DD FLAT:??_R4bad_alloc@std@@6B@	; std::bad_alloc::`vftable'
	DD	FLAT:??_Ebad_alloc@std@@UAEPAXI@Z
	DD	FLAT:?what@exception@std@@UBEPBDXZ
; Function compile flags: /Ogsp
CONST	ENDS
;	COMDAT ??0bad_alloc@std@@QAE@PBD@Z
_TEXT	SEGMENT
__Message$ = 8						; size = 4
??0bad_alloc@std@@QAE@PBD@Z PROC			; std::bad_alloc::bad_alloc, COMDAT
; _this$ = ecx

; 345  : 		{	// construct from message string

  00000	55		 push	 ebp
  00001	8b ec		 mov	 ebp, esp
  00003	56		 push	 esi
  00004	8d 45 08	 lea	 eax, DWORD PTR __Message$[ebp]
  00007	50		 push	 eax
  00008	8b f1		 mov	 esi, ecx
  0000a	ff 15 00 00 00
	00		 call	 DWORD PTR __imp_??0exception@std@@QAE@ABQBD@Z
  00010	c7 06 00 00 00
	00		 mov	 DWORD PTR [esi], OFFSET ??_7bad_alloc@std@@6B@

; 346  : 		}

  00016	8b c6		 mov	 eax, esi
  00018	5e		 pop	 esi
  00019	5d		 pop	 ebp
  0001a	c2 04 00	 ret	 4
??0bad_alloc@std@@QAE@PBD@Z ENDP			; std::bad_alloc::bad_alloc
_TEXT	ENDS
PUBLIC	??1bad_alloc@std@@UAE@XZ			; std::bad_alloc::~bad_alloc
EXTRN	__imp_??1exception@std@@UAE@XZ:PROC
; Function compile flags: /Ogsp
;	COMDAT ??1bad_alloc@std@@UAE@XZ
_TEXT	SEGMENT
??1bad_alloc@std@@UAE@XZ PROC				; std::bad_alloc::~bad_alloc, COMDAT
; _this$ = ecx

; 354  : 		{	// destroy the object

  00000	c7 01 00 00 00
	00		 mov	 DWORD PTR [ecx], OFFSET ??_7bad_alloc@std@@6B@

; 355  : 		}

  00006	ff 25 00 00 00
	00		 jmp	 DWORD PTR __imp_??1exception@std@@UAE@XZ
??1bad_alloc@std@@UAE@XZ ENDP				; std::bad_alloc::~bad_alloc
_TEXT	ENDS
EXTRN	??3@YAXPAX@Z:PROC				; operator delete
; Function compile flags: /Ogsp
;	COMDAT ??_Gbad_alloc@std@@UAEPAXI@Z
_TEXT	SEGMENT
___flags$ = 8						; size = 4
??_Gbad_alloc@std@@UAEPAXI@Z PROC			; std::bad_alloc::`scalar deleting destructor', COMDAT
; _this$ = ecx
  00000	55		 push	 ebp
  00001	8b ec		 mov	 ebp, esp
  00003	56		 push	 esi
  00004	8b f1		 mov	 esi, ecx
  00006	c7 06 00 00 00
	00		 mov	 DWORD PTR [esi], OFFSET ??_7bad_alloc@std@@6B@
  0000c	ff 15 00 00 00
	00		 call	 DWORD PTR __imp_??1exception@std@@UAE@XZ
  00012	f6 45 08 01	 test	 BYTE PTR ___flags$[ebp], 1
  00016	74 07		 je	 SHORT $LN1@scalar
  00018	56		 push	 esi
  00019	e8 00 00 00 00	 call	 ??3@YAXPAX@Z		; operator delete
  0001e	59		 pop	 ecx
$LN1@scalar:
  0001f	8b c6		 mov	 eax, esi
  00021	5e		 pop	 esi
  00022	5d		 pop	 ebp
  00023	c2 04 00	 ret	 4
??_Gbad_alloc@std@@UAEPAXI@Z ENDP			; std::bad_alloc::`scalar deleting destructor'
_TEXT	ENDS
PUBLIC	??2@YAPAXIPAX@Z					; operator new
; Function compile flags: /Ogsp
; File c:\program files (x86)\microsoft visual studio 10.0\vc\include\new
;	COMDAT ??2@YAPAXIPAX@Z
_TEXT	SEGMENT
___formal$ = 8						; size = 4
__Where$ = 12						; size = 4
??2@YAPAXIPAX@Z PROC					; operator new, COMDAT

; 56   : 	{	// construct array with placement at _Where

  00000	55		 push	 ebp
  00001	8b ec		 mov	 ebp, esp

; 57   : 	return (_Where);

  00003	8b 45 0c	 mov	 eax, DWORD PTR __Where$[ebp]

; 58   : 	}

  00006	5d		 pop	 ebp
  00007	c3		 ret	 0
??2@YAPAXIPAX@Z ENDP					; operator new
_TEXT	ENDS
PUBLIC	?GetLastAttackerSkillName@ioBaseChar@@QBEABVioHashString@@XZ ; ioBaseChar::GetLastAttackerSkillName
; Function compile flags: /Ogsp
; File d:\lost saga for developer\youtube\tutorial\source\src\lsclient\iobasechar.h
;	COMDAT ?GetLastAttackerSkillName@ioBaseChar@@QBEABVioHashString@@XZ
_TEXT	SEGMENT
?GetLastAttackerSkillName@ioBaseChar@@QBEABVioHashString@@XZ PROC ; ioBaseChar::GetLastAttackerSkillName, COMDAT
; _this$ = ecx

; 2771 : 	inline const ioHashString& GetLastAttackerSkillName() const { return m_LastAttackerSkillName; }

  00000	8d 81 bc 13 00
	00		 lea	 eax, DWORD PTR [ecx+5052]
  00006	c3		 ret	 0
?GetLastAttackerSkillName@ioBaseChar@@QBEABVioHashString@@XZ ENDP ; ioBaseChar::GetLastAttackerSkillName
_TEXT	ENDS
PUBLIC	??3@YAXPAX0@Z					; operator delete
; Function compile flags: /Ogsp
; File c:\program files (x86)\microsoft visual studio 10.0\vc\include\new
;	COMDAT ??3@YAXPAX0@Z
_TEXT	SEGMENT
___formal$ = 8						; size = 4
___formal$ = 12						; size = 4
??3@YAXPAX0@Z PROC					; operator delete, COMDAT

; 62   : 	}

  00000	c3		 ret	 0
??3@YAXPAX0@Z ENDP					; operator delete
_TEXT	ENDS
PUBLIC	?GetLastAttackerItemCode@ioBaseChar@@QBE?BKXZ	; ioBaseChar::GetLastAttackerItemCode
; Function compile flags: /Ogsp
; File d:\lost saga for developer\youtube\tutorial\source\src\lsclient\iobasechar.h
;	COMDAT ?GetLastAttackerItemCode@ioBaseChar@@QBE?BKXZ
_TEXT	SEGMENT
?GetLastAttackerItemCode@ioBaseChar@@QBE?BKXZ PROC	; ioBaseChar::GetLastAttackerItemCode, COMDAT
; _this$ = ecx

; 2773 : 	inline const DWORD GetLastAttackerItemCode() const { return m_dwLastAttackerItemCode; }

  00000	8b 81 d0 13 00
	00		 mov	 eax, DWORD PTR [ecx+5072]
  00006	c3		 ret	 0
?GetLastAttackerItemCode@ioBaseChar@@QBE?BKXZ ENDP	; ioBaseChar::GetLastAttackerItemCode
_TEXT	ENDS
PUBLIC	?GetSelectCharArray@ioBaseChar@@QBEHXZ		; ioBaseChar::GetSelectCharArray
; Function compile flags: /Ogsp
;	COMDAT ?GetSelectCharArray@ioBaseChar@@QBEHXZ
_TEXT	SEGMENT
?GetSelectCharArray@ioBaseChar@@QBEHXZ PROC		; ioBaseChar::GetSelectCharArray, COMDAT
; _this$ = ecx

; 2851 : 	int  GetSelectCharArray() const { return m_iSelectCharArray; }

  00000	8b 81 24 03 00
	00		 mov	 eax, DWORD PTR [ecx+804]
  00006	c3		 ret	 0
?GetSelectCharArray@ioBaseChar@@QBEHXZ ENDP		; ioBaseChar::GetSelectCharArray
_TEXT	ENDS
PUBLIC	?_Adopt@_Iterator_base0@std@@QAEXPBX@Z		; std::_Iterator_base0::_Adopt
; Function compile flags: /Ogsp
; File c:\program files (x86)\microsoft visual studio 10.0\vc\include\xutility
;	COMDAT ?_Adopt@_Iterator_base0@std@@QAEXPBX@Z
_TEXT	SEGMENT
___formal$ = 8						; size = 4
?_Adopt@_Iterator_base0@std@@QAEXPBX@Z PROC		; std::_Iterator_base0::_Adopt, COMDAT
; _this$ = ecx

; 49   : 		}

  00000	c2 04 00	 ret	 4
?_Adopt@_Iterator_base0@std@@QAEXPBX@Z ENDP		; std::_Iterator_base0::_Adopt
_TEXT	ENDS
PUBLIC	?GetChampionUserName@FightClubTimeGaugeWnd@@QAEABVioHashString@@XZ ; FightClubTimeGaugeWnd::GetChampionUserName
; Function compile flags: /Ogsp
; File d:\lost saga for developer\youtube\tutorial\source\src\lsclient\gui\fightclubwnd.h
;	COMDAT ?GetChampionUserName@FightClubTimeGaugeWnd@@QAEABVioHashString@@XZ
_TEXT	SEGMENT
?GetChampionUserName@FightClubTimeGaugeWnd@@QAEABVioHashString@@XZ PROC ; FightClubTimeGaugeWnd::GetChampionUserName, COMDAT
; _this$ = ecx

; 369  : 	const ioHashString &GetChampionUserName(){ return m_szLeftUserName; }

  00000	8d 81 dc 02 00
	00		 lea	 eax, DWORD PTR [ecx+732]
  00006	c3		 ret	 0
?GetChampionUserName@FightClubTimeGaugeWnd@@QAEABVioHashString@@XZ ENDP ; FightClubTimeGaugeWnd::GetChampionUserName
_TEXT	ENDS
PUBLIC	?GetChallengerUserName@FightClubTimeGaugeWnd@@QAEABVioHashString@@XZ ; FightClubTimeGaugeWnd::GetChallengerUserName
; Function compile flags: /Ogsp
;	COMDAT ?GetChallengerUserName@FightClubTimeGaugeWnd@@QAEABVioHashString@@XZ
_TEXT	SEGMENT
?GetChallengerUserName@FightClubTimeGaugeWnd@@QAEABVioHashString@@XZ PROC ; FightClubTimeGaugeWnd::GetChallengerUserName, COMDAT
; _this$ = ecx

; 370  : 	const ioHashString &GetChallengerUserName(){ return m_szRightUserName; }

  00000	8d 81 04 03 00
	00		 lea	 eax, DWORD PTR [ecx+772]
  00006	c3		 ret	 0
?GetChallengerUserName@FightClubTimeGaugeWnd@@QAEABVioHashString@@XZ ENDP ; FightClubTimeGaugeWnd::GetChallengerUserName
_TEXT	ENDS
PUBLIC	??_C@_0CF@JLGDFPLJ@XML?1fightclubfightnpccontinuewnd@ ; `string'
PUBLIC	??_C@_0BM@KAKJBJPN@XML?1tutorialkeyboardwnd?4xml?$AA@ ; `string'
PUBLIC	??_C@_0BP@EAJKKCEJ@XML?1fightclubchallengerwnd?4xml?$AA@ ; `string'
PUBLIC	??_C@_0BN@LDBBIKMN@XML?1fightclubroundendwnd?4xml?$AA@ ; `string'
PUBLIC	??_C@_0BK@OCCDCGJH@XML?1fightclubreadywnd?4xml?$AA@ ; `string'
PUBLIC	??_R0?AVFightClubReadyWnd@@@8			; FightClubReadyWnd `RTTI Type Descriptor'
PUBLIC	??_C@_0BO@POFDFDJK@XML?1fightclubtimegaugewnd?4xml?$AA@ ; `string'
PUBLIC	??_R0?AVioWnd@@@8				; ioWnd `RTTI Type Descriptor'
PUBLIC	??_R0?AVFightClubTimeGaugeWnd@@@8		; FightClubTimeGaugeWnd `RTTI Type Descriptor'
PUBLIC	??_C@_0BO@PLOOKJDM@XML?1AccessorySkillListWnd?4xml?$AA@ ; `string'
PUBLIC	??_C@_0BF@DNJEBPMC@XML?1SkillListWnd?4xml?$AA@	; `string'
PUBLIC	?LoadModeResource@ioFightClubMode@@MAEXAAVioINILoader@@@Z ; ioFightClubMode::LoadModeResource
EXTRN	?LoadModeResource@ioPlayMode@@MAEXAAVioINILoader@@@Z:PROC ; ioPlayMode::LoadModeResource
EXTRN	?SetPlayStage@FightClubReadyWnd@@QAEXPAVioPlayStage@@@Z:PROC ; FightClubReadyWnd::SetPlayStage
EXTRN	?SetPlayStage@FightClubTimeGaugeWnd@@QAEXPAVioPlayStage@@@Z:PROC ; FightClubTimeGaugeWnd::SetPlayStage
EXTRN	__imp_?AddWnd@ioGUIManager@@QAEPAVioWnd@@PBD@Z:PROC
EXTRN	?GetSingleton@ioSP2GUIManager@@SAAAV1@XZ:PROC	; ioSP2GUIManager::GetSingleton
EXTRN	?SetCenterKillInfoWnd@ioModeUIController@@QAEXPAVioWnd@@@Z:PROC ; ioModeUIController::SetCenterKillInfoWnd
EXTRN	?SetKOMsgWnd@ioModeUIController@@QAEXPAVioWnd@@@Z:PROC ; ioModeUIController::SetKOMsgWnd
EXTRN	?GetSingleton@ioModeUIController@@SAAAV1@XZ:PROC ; ioModeUIController::GetSingleton
EXTRN	___RTDynamicCast:PROC
;	COMDAT ??_C@_0CF@JLGDFPLJ@XML?1fightclubfightnpccontinuewnd@
; File d:\lost saga for developer\youtube\tutorial\source\src\lsclient\iofightclubmode.cpp
CONST	SEGMENT
??_C@_0CF@JLGDFPLJ@XML?1fightclubfightnpccontinuewnd@ DB 'XML/fightclubfi'
	DB	'ghtnpccontinuewnd.xml', 00H			; `string'
CONST	ENDS
;	COMDAT ??_C@_0BM@KAKJBJPN@XML?1tutorialkeyboardwnd?4xml?$AA@
CONST	SEGMENT
??_C@_0BM@KAKJBJPN@XML?1tutorialkeyboardwnd?4xml?$AA@ DB 'XML/tutorialkey'
	DB	'boardwnd.xml', 00H				; `string'
CONST	ENDS
;	COMDAT ??_C@_0BP@EAJKKCEJ@XML?1fightclubchallengerwnd?4xml?$AA@
CONST	SEGMENT
??_C@_0BP@EAJKKCEJ@XML?1fightclubchallengerwnd?4xml?$AA@ DB 'XML/fightclu'
	DB	'bchallengerwnd.xml', 00H			; `string'
CONST	ENDS
;	COMDAT ??_C@_0BN@LDBBIKMN@XML?1fightclubroundendwnd?4xml?$AA@
CONST	SEGMENT
??_C@_0BN@LDBBIKMN@XML?1fightclubroundendwnd?4xml?$AA@ DB 'XML/fightclubr'
	DB	'oundendwnd.xml', 00H			; `string'
CONST	ENDS
;	COMDAT ??_C@_0BK@OCCDCGJH@XML?1fightclubreadywnd?4xml?$AA@
CONST	SEGMENT
??_C@_0BK@OCCDCGJH@XML?1fightclubreadywnd?4xml?$AA@ DB 'XML/fightclubread'
	DB	'ywnd.xml', 00H				; `string'
CONST	ENDS
;	COMDAT ??_R0?AVFightClubReadyWnd@@@8
_DATA	SEGMENT
??_R0?AVFightClubReadyWnd@@@8 DD FLAT:??_7type_info@@6B@ ; FightClubReadyWnd `RTTI Type Descriptor'
	DD	00H
	DB	'.?AVFightClubReadyWnd@@', 00H
_DATA	ENDS
;	COMDAT ??_C@_0BO@POFDFDJK@XML?1fightclubtimegaugewnd?4xml?$AA@
CONST	SEGMENT
??_C@_0BO@POFDFDJK@XML?1fightclubtimegaugewnd?4xml?$AA@ DB 'XML/fightclub'
	DB	'timegaugewnd.xml', 00H			; `string'
CONST	ENDS
;	COMDAT ??_R0?AVioWnd@@@8
_DATA	SEGMENT
??_R0?AVioWnd@@@8 DD FLAT:??_7type_info@@6B@		; ioWnd `RTTI Type Descriptor'
	DD	00H
	DB	'.?AVioWnd@@', 00H
_DATA	ENDS
;	COMDAT ??_R0?AVFightClubTimeGaugeWnd@@@8
_DATA	SEGMENT
??_R0?AVFightClubTimeGaugeWnd@@@8 DD FLAT:??_7type_info@@6B@ ; FightClubTimeGaugeWnd `RTTI Type Descriptor'
	DD	00H
	DB	'.?AVFightClubTimeGaugeWnd@@', 00H
_DATA	ENDS
;	COMDAT ??_C@_0BO@PLOOKJDM@XML?1AccessorySkillListWnd?4xml?$AA@
CONST	SEGMENT
??_C@_0BO@PLOOKJDM@XML?1AccessorySkillListWnd?4xml?$AA@ DB 'XML/Accessory'
	DB	'SkillListWnd.xml', 00H			; `string'
CONST	ENDS
;	COMDAT ??_C@_0BF@DNJEBPMC@XML?1SkillListWnd?4xml?$AA@
CONST	SEGMENT
??_C@_0BF@DNJEBPMC@XML?1SkillListWnd?4xml?$AA@ DB 'XML/SkillListWnd.xml', 00H ; `string'
; Function compile flags: /Ogsp
CONST	ENDS
;	COMDAT ?LoadModeResource@ioFightClubMode@@MAEXAAVioINILoader@@@Z
_TEXT	SEGMENT
_this$ = -4						; size = 4
_rkLoader$ = 8						; size = 4
?LoadModeResource@ioFightClubMode@@MAEXAAVioINILoader@@@Z PROC ; ioFightClubMode::LoadModeResource, COMDAT
; _this$ = ecx

; 68   : {

  00000	55		 push	 ebp
  00001	8b ec		 mov	 ebp, esp
  00003	51		 push	 ecx
  00004	53		 push	 ebx
  00005	56		 push	 esi
  00006	57		 push	 edi

; 69   : //	g_ModeUIController.SetKOMsgWnd( g_GUIMgr.AddWnd( "XML/kochatmsgwnd.xml") );
; 70   : 	g_ModeUIController.SetKOMsgWnd( NULL );

  00007	33 db		 xor	 ebx, ebx
  00009	53		 push	 ebx
  0000a	89 4d fc	 mov	 DWORD PTR _this$[ebp], ecx
  0000d	e8 00 00 00 00	 call	 ?GetSingleton@ioModeUIController@@SAAAV1@XZ ; ioModeUIController::GetSingleton
  00012	8b c8		 mov	 ecx, eax
  00014	e8 00 00 00 00	 call	 ?SetKOMsgWnd@ioModeUIController@@QAEXPAVioWnd@@@Z ; ioModeUIController::SetKOMsgWnd

; 71   : 	g_ModeUIController.SetCenterKillInfoWnd( NULL );

  00019	53		 push	 ebx
  0001a	e8 00 00 00 00	 call	 ?GetSingleton@ioModeUIController@@SAAAV1@XZ ; ioModeUIController::GetSingleton
  0001f	8b c8		 mov	 ecx, eax
  00021	e8 00 00 00 00	 call	 ?SetCenterKillInfoWnd@ioModeUIController@@QAEXPAVioWnd@@@Z ; ioModeUIController::SetCenterKillInfoWnd

; 72   : 	g_GUIMgr.AddWnd( "XML/SkillListWnd.xml" );

  00026	68 00 00 00 00	 push	 OFFSET ??_C@_0BF@DNJEBPMC@XML?1SkillListWnd?4xml?$AA@
  0002b	e8 00 00 00 00	 call	 ?GetSingleton@ioSP2GUIManager@@SAAAV1@XZ ; ioSP2GUIManager::GetSingleton
  00030	8b 35 00 00 00
	00		 mov	 esi, DWORD PTR __imp_?AddWnd@ioGUIManager@@QAEPAVioWnd@@PBD@Z
  00036	8b c8		 mov	 ecx, eax
  00038	ff d6		 call	 esi

; 73   : 	g_GUIMgr.AddWnd( "XML/AccessorySkillListWnd.xml" );

  0003a	68 00 00 00 00	 push	 OFFSET ??_C@_0BO@PLOOKJDM@XML?1AccessorySkillListWnd?4xml?$AA@
  0003f	e8 00 00 00 00	 call	 ?GetSingleton@ioSP2GUIManager@@SAAAV1@XZ ; ioSP2GUIManager::GetSingleton
  00044	8b c8		 mov	 ecx, eax
  00046	ff d6		 call	 esi

; 74   : 
; 75   : 	FightClubTimeGaugeWnd *pFightClubTimeGauge = dynamic_cast< FightClubTimeGaugeWnd * >( g_GUIMgr.AddWnd( "XML/fightclubtimegaugewnd.xml" ) );

  00048	53		 push	 ebx
  00049	68 00 00 00 00	 push	 OFFSET ??_R0?AVFightClubTimeGaugeWnd@@@8
  0004e	bf 00 00 00 00	 mov	 edi, OFFSET ??_R0?AVioWnd@@@8
  00053	57		 push	 edi
  00054	53		 push	 ebx
  00055	68 00 00 00 00	 push	 OFFSET ??_C@_0BO@POFDFDJK@XML?1fightclubtimegaugewnd?4xml?$AA@
  0005a	e8 00 00 00 00	 call	 ?GetSingleton@ioSP2GUIManager@@SAAAV1@XZ ; ioSP2GUIManager::GetSingleton
  0005f	8b c8		 mov	 ecx, eax
  00061	ff d6		 call	 esi
  00063	50		 push	 eax
  00064	e8 00 00 00 00	 call	 ___RTDynamicCast
  00069	83 c4 14	 add	 esp, 20			; 00000014H

; 76   : 	if( pFightClubTimeGauge )

  0006c	3b c3		 cmp	 eax, ebx
  0006e	74 0d		 je	 SHORT $LN2@LoadModeRe

; 77   : 	{
; 78   : 		pFightClubTimeGauge->SetPlayStage( m_pCreator );

  00070	8b 4d fc	 mov	 ecx, DWORD PTR _this$[ebp]
  00073	ff 71 34	 push	 DWORD PTR [ecx+52]
  00076	8b c8		 mov	 ecx, eax
  00078	e8 00 00 00 00	 call	 ?SetPlayStage@FightClubTimeGaugeWnd@@QAEXPAVioPlayStage@@@Z ; FightClubTimeGaugeWnd::SetPlayStage
$LN2@LoadModeRe:

; 79   : 	}
; 80   : 
; 81   : 	FightClubReadyWnd *pFightClubReadyWnd = dynamic_cast< FightClubReadyWnd * >( g_GUIMgr.AddWnd( "XML/fightclubreadywnd.xml" ) );

  0007d	53		 push	 ebx
  0007e	68 00 00 00 00	 push	 OFFSET ??_R0?AVFightClubReadyWnd@@@8
  00083	57		 push	 edi
  00084	53		 push	 ebx
  00085	68 00 00 00 00	 push	 OFFSET ??_C@_0BK@OCCDCGJH@XML?1fightclubreadywnd?4xml?$AA@
  0008a	e8 00 00 00 00	 call	 ?GetSingleton@ioSP2GUIManager@@SAAAV1@XZ ; ioSP2GUIManager::GetSingleton
  0008f	8b c8		 mov	 ecx, eax
  00091	ff d6		 call	 esi
  00093	50		 push	 eax
  00094	e8 00 00 00 00	 call	 ___RTDynamicCast
  00099	83 c4 14	 add	 esp, 20			; 00000014H

; 82   : 	if( pFightClubReadyWnd )

  0009c	3b c3		 cmp	 eax, ebx
  0009e	74 0d		 je	 SHORT $LN5@LoadModeRe

; 83   : 	{
; 84   : 		pFightClubReadyWnd->SetPlayStage( m_pCreator );

  000a0	8b 4d fc	 mov	 ecx, DWORD PTR _this$[ebp]
  000a3	ff 71 34	 push	 DWORD PTR [ecx+52]
  000a6	8b c8		 mov	 ecx, eax
  000a8	e8 00 00 00 00	 call	 ?SetPlayStage@FightClubReadyWnd@@QAEXPAVioPlayStage@@@Z ; FightClubReadyWnd::SetPlayStage
$LN5@LoadModeRe:

; 85   : 	}
; 86   : 
; 87   : 	g_GUIMgr.AddWnd( "XML/fightclubroundendwnd.xml" );

  000ad	68 00 00 00 00	 push	 OFFSET ??_C@_0BN@LDBBIKMN@XML?1fightclubroundendwnd?4xml?$AA@
  000b2	e8 00 00 00 00	 call	 ?GetSingleton@ioSP2GUIManager@@SAAAV1@XZ ; ioSP2GUIManager::GetSingleton
  000b7	8b c8		 mov	 ecx, eax
  000b9	ff d6		 call	 esi

; 88   : 	g_GUIMgr.AddWnd( "XML/fightclubchallengerwnd.xml" );

  000bb	68 00 00 00 00	 push	 OFFSET ??_C@_0BP@EAJKKCEJ@XML?1fightclubchallengerwnd?4xml?$AA@
  000c0	e8 00 00 00 00	 call	 ?GetSingleton@ioSP2GUIManager@@SAAAV1@XZ ; ioSP2GUIManager::GetSingleton
  000c5	8b c8		 mov	 ecx, eax
  000c7	ff d6		 call	 esi

; 89   : 	g_GUIMgr.AddWnd( "XML/tutorialkeyboardwnd.xml" );

  000c9	68 00 00 00 00	 push	 OFFSET ??_C@_0BM@KAKJBJPN@XML?1tutorialkeyboardwnd?4xml?$AA@
  000ce	e8 00 00 00 00	 call	 ?GetSingleton@ioSP2GUIManager@@SAAAV1@XZ ; ioSP2GUIManager::GetSingleton
  000d3	8b c8		 mov	 ecx, eax
  000d5	ff d6		 call	 esi

; 90   : 	g_GUIMgr.AddWnd( "XML/fightclubfightnpccontinuewnd.xml" );

  000d7	68 00 00 00 00	 push	 OFFSET ??_C@_0CF@JLGDFPLJ@XML?1fightclubfightnpccontinuewnd@
  000dc	e8 00 00 00 00	 call	 ?GetSingleton@ioSP2GUIManager@@SAAAV1@XZ ; ioSP2GUIManager::GetSingleton
  000e1	8b c8		 mov	 ecx, eax
  000e3	ff d6		 call	 esi

; 91   : 
; 92   : 	ioPlayMode::LoadModeResource( rkLoader );

  000e5	ff 75 08	 push	 DWORD PTR _rkLoader$[ebp]
  000e8	8b 4d fc	 mov	 ecx, DWORD PTR _this$[ebp]
  000eb	e8 00 00 00 00	 call	 ?LoadModeResource@ioPlayMode@@MAEXAAVioINILoader@@@Z ; ioPlayMode::LoadModeResource
  000f0	5f		 pop	 edi
  000f1	5e		 pop	 esi
  000f2	5b		 pop	 ebx

; 93   : }

  000f3	c9		 leave
  000f4	c2 04 00	 ret	 4
?LoadModeResource@ioFightClubMode@@MAEXAAVioINILoader@@@Z ENDP ; ioFightClubMode::LoadModeResource
_TEXT	ENDS
PUBLIC	?LoadContribute@ioFightClubMode@@MAEXXZ		; ioFightClubMode::LoadContribute
EXTRN	?LoadContribute@ioPlayMode@@MAEXXZ:PROC		; ioPlayMode::LoadContribute
; Function compile flags: /Ogsp
;	COMDAT ?LoadContribute@ioFightClubMode@@MAEXXZ
_TEXT	SEGMENT
?LoadContribute@ioFightClubMode@@MAEXXZ PROC		; ioFightClubMode::LoadContribute, COMDAT
; _this$ = ecx

; 134  : 	ioPlayMode::LoadContribute();

  00000	e9 00 00 00 00	 jmp	 ?LoadContribute@ioPlayMode@@MAEXXZ ; ioPlayMode::LoadContribute
?LoadContribute@ioFightClubMode@@MAEXXZ ENDP		; ioFightClubMode::LoadContribute
_TEXT	ENDS
PUBLIC	?SetModeState@ioFightClubMode@@MAEXW4ModeState@ioPlayMode@@@Z ; ioFightClubMode::SetModeState
EXTRN	?SetModeState@ioPlayMode@@MAEXW4ModeState@1@@Z:PROC ; ioPlayMode::SetModeState
; Function compile flags: /Ogsp
;	COMDAT ?SetModeState@ioFightClubMode@@MAEXW4ModeState@ioPlayMode@@@Z
_TEXT	SEGMENT
_eState$ = 8						; size = 4
?SetModeState@ioFightClubMode@@MAEXW4ModeState@ioPlayMode@@@Z PROC ; ioFightClubMode::SetModeState, COMDAT
; _this$ = ecx

; 374  : {

  00000	55		 push	 ebp
  00001	8b ec		 mov	 ebp, esp

; 376  : }

  00003	5d		 pop	 ebp

; 375  : 	ioPlayMode::SetModeState( eState );

  00004	e9 00 00 00 00	 jmp	 ?SetModeState@ioPlayMode@@MAEXW4ModeState@1@@Z ; ioPlayMode::SetModeState
?SetModeState@ioFightClubMode@@MAEXW4ModeState@ioPlayMode@@@Z ENDP ; ioFightClubMode::SetModeState
_TEXT	ENDS
PUBLIC	?ProcessReadyState@ioFightClubMode@@IAEXXZ	; ioFightClubMode::ProcessReadyState
EXTRN	__imp_?GetLoopSec@ioFrameTimer@@QBEKXZ:PROC
EXTRN	__imp_?GetSingleton@ioFrameTimer@@SAAAV1@XZ:PROC
EXTRN	?IsNetworkPlaying@P2PNetwork@@YA_NXZ:PROC	; P2PNetwork::IsNetworkPlaying
; Function compile flags: /Ogsp
;	COMDAT ?ProcessReadyState@ioFightClubMode@@IAEXXZ
_TEXT	SEGMENT
?ProcessReadyState@ioFightClubMode@@IAEXXZ PROC		; ioFightClubMode::ProcessReadyState, COMDAT
; _this$ = ecx

; 408  : {

  00000	56		 push	 esi
  00001	8b f1		 mov	 esi, ecx

; 409  : 	if( P2PNetwork::IsNetworkPlaying() )	return;

  00003	e8 00 00 00 00	 call	 ?IsNetworkPlaying@P2PNetwork@@YA_NXZ ; P2PNetwork::IsNetworkPlaying
  00008	84 c0		 test	 al, al
  0000a	75 2a		 jne	 SHORT $LN3@ProcessRea

; 410  : 	if( m_dwReadyStartTime + 4000 > FRAMEGETTIME() ) return;

  0000c	ff 15 00 00 00
	00		 call	 DWORD PTR __imp_?GetSingleton@ioFrameTimer@@SAAAV1@XZ
  00012	8b c8		 mov	 ecx, eax
  00014	ff 15 00 00 00
	00		 call	 DWORD PTR __imp_?GetLoopSec@ioFrameTimer@@QBEKXZ
  0001a	8b 8e 08 02 00
	00		 mov	 ecx, DWORD PTR [esi+520]
  00020	81 c1 a0 0f 00
	00		 add	 ecx, 4000		; 00000fa0H
  00026	3b c8		 cmp	 ecx, eax
  00028	77 0c		 ja	 SHORT $LN3@ProcessRea

; 411  : 
; 412  : 	SetModeState( MS_PLAY );

  0002a	8b 06		 mov	 eax, DWORD PTR [esi]
  0002c	6a 01		 push	 1
  0002e	8b ce		 mov	 ecx, esi
  00030	ff 90 ac 01 00
	00		 call	 DWORD PTR [eax+428]
$LN3@ProcessRea:
  00036	5e		 pop	 esi

; 413  : }

  00037	c3		 ret	 0
?ProcessReadyState@ioFightClubMode@@IAEXXZ ENDP		; ioFightClubMode::ProcessReadyState
_TEXT	ENDS
PUBLIC	?ProcessRevival@ioFightClubMode@@IAEXXZ		; ioFightClubMode::ProcessRevival
; Function compile flags: /Ogsp
;	COMDAT ?ProcessRevival@ioFightClubMode@@IAEXXZ
_TEXT	SEGMENT
?ProcessRevival@ioFightClubMode@@IAEXXZ PROC		; ioFightClubMode::ProcessRevival, COMDAT
; _this$ = ecx

; 575  : }

  00000	c3		 ret	 0
?ProcessRevival@ioFightClubMode@@IAEXXZ ENDP		; ioFightClubMode::ProcessRevival
_TEXT	ENDS
PUBLIC	?UpdateMiniMapSpotPoint@ioFightClubMode@@MAEXXZ	; ioFightClubMode::UpdateMiniMapSpotPoint
; Function compile flags: /Ogsp
;	COMDAT ?UpdateMiniMapSpotPoint@ioFightClubMode@@MAEXXZ
_TEXT	SEGMENT
?UpdateMiniMapSpotPoint@ioFightClubMode@@MAEXXZ PROC	; ioFightClubMode::UpdateMiniMapSpotPoint, COMDAT
; _this$ = ecx

; 579  : }

  00000	c3		 ret	 0
?UpdateMiniMapSpotPoint@ioFightClubMode@@MAEXXZ ENDP	; ioFightClubMode::UpdateMiniMapSpotPoint
_TEXT	ENDS
PUBLIC	??1RoundInfo@@QAE@XZ				; RoundInfo::~RoundInfo
EXTRN	__imp_??1ioHashString@@QAE@XZ:PROC
EXTRN	___CxxFrameHandler3:PROC
EXTRN	@__security_check_cookie@4:PROC
EXTRN	__EH_epilog3:PROC
EXTRN	__EH_prolog3:PROC
;	COMDAT xdata$x
xdata$x	SEGMENT
__unwindtable$??1RoundInfo@@QAE@XZ DD 0ffffffffH
	DD	FLAT:__unwindfunclet$??1RoundInfo@@QAE@XZ$0
__ehfuncinfo$??1RoundInfo@@QAE@XZ DD 019930522H
	DD	01H
	DD	FLAT:__unwindtable$??1RoundInfo@@QAE@XZ
	DD	2 DUP(00H)
	DD	2 DUP(00H)
	DD	00H
	DD	01H
; Function compile flags: /Ogsp
xdata$x	ENDS
;	COMDAT ??1RoundInfo@@QAE@XZ
_TEXT	SEGMENT
_this$ = -16						; size = 4
__$EHRec$ = -12						; size = 12
??1RoundInfo@@QAE@XZ PROC				; RoundInfo::~RoundInfo, COMDAT
; _this$ = ecx
  00000	6a 04		 push	 4
  00002	b8 00 00 00 00	 mov	 eax, __ehhandler$??1RoundInfo@@QAE@XZ
  00007	e8 00 00 00 00	 call	 __EH_prolog3
  0000c	8b f9		 mov	 edi, ecx
  0000e	89 7d f0	 mov	 DWORD PTR _this$[ebp], edi
  00011	8b 35 00 00 00
	00		 mov	 esi, DWORD PTR __imp_??1ioHashString@@QAE@XZ
  00017	83 65 fc 00	 and	 DWORD PTR __$EHRec$[ebp+8], 0
  0001b	8d 4f 1c	 lea	 ecx, DWORD PTR [edi+28]
  0001e	ff d6		 call	 esi
  00020	83 4d fc ff	 or	 DWORD PTR __$EHRec$[ebp+8], -1
  00024	8b cf		 mov	 ecx, edi
  00026	ff d6		 call	 esi
  00028	e8 00 00 00 00	 call	 __EH_epilog3
  0002d	c3		 ret	 0
_TEXT	ENDS
;	COMDAT text$x
text$x	SEGMENT
__unwindfunclet$??1RoundInfo@@QAE@XZ$0:
  00000	8b 4d f0	 mov	 ecx, DWORD PTR _this$[ebp]
  00003	ff 25 00 00 00
	00		 jmp	 DWORD PTR __imp_??1ioHashString@@QAE@XZ
__ehhandler$??1RoundInfo@@QAE@XZ:
  00009	8b 54 24 08	 mov	 edx, DWORD PTR [esp+8]
  0000d	8d 42 0c	 lea	 eax, DWORD PTR [edx+12]
  00010	8b 4a ec	 mov	 ecx, DWORD PTR [edx-20]
  00013	33 c8		 xor	 ecx, eax
  00015	e8 00 00 00 00	 call	 @__security_check_cookie@4
  0001a	b8 00 00 00 00	 mov	 eax, OFFSET __ehfuncinfo$??1RoundInfo@@QAE@XZ
  0001f	e9 00 00 00 00	 jmp	 ___CxxFrameHandler3
text$x	ENDS
??1RoundInfo@@QAE@XZ ENDP				; RoundInfo::~RoundInfo
PUBLIC	?UpdateTimeScoreWnd@ioFightClubMode@@IAEXXZ	; ioFightClubMode::UpdateTimeScoreWnd
EXTRN	?UpdateTime@FightClubTimeGaugeWnd@@QAEXHH@Z:PROC ; FightClubTimeGaugeWnd::UpdateTime
EXTRN	__imp_?FindWnd@ioGUIManager@@QAEPAVioWnd@@K@Z:PROC
; Function compile flags: /Ogsp
;	COMDAT ?UpdateTimeScoreWnd@ioFightClubMode@@IAEXXZ
_TEXT	SEGMENT
?UpdateTimeScoreWnd@ioFightClubMode@@IAEXXZ PROC	; ioFightClubMode::UpdateTimeScoreWnd, COMDAT
; _this$ = ecx

; 821  : {

  00000	53		 push	 ebx
  00001	56		 push	 esi
  00002	57		 push	 edi

; 822  : 	FightClubTimeGaugeWnd *pTimeGauge = dynamic_cast< FightClubTimeGaugeWnd * >( g_GUIMgr.FindWnd( FIGHTCLUB_TIME_GAUGE_WND ) );

  00003	33 db		 xor	 ebx, ebx
  00005	53		 push	 ebx
  00006	68 00 00 00 00	 push	 OFFSET ??_R0?AVFightClubTimeGaugeWnd@@@8
  0000b	68 00 00 00 00	 push	 OFFSET ??_R0?AVioWnd@@@8
  00010	53		 push	 ebx
  00011	68 d1 13 00 00	 push	 5073			; 000013d1H
  00016	8b f1		 mov	 esi, ecx
  00018	e8 00 00 00 00	 call	 ?GetSingleton@ioSP2GUIManager@@SAAAV1@XZ ; ioSP2GUIManager::GetSingleton
  0001d	8b c8		 mov	 ecx, eax
  0001f	ff 15 00 00 00
	00		 call	 DWORD PTR __imp_?FindWnd@ioGUIManager@@QAEPAVioWnd@@K@Z
  00025	50		 push	 eax
  00026	e8 00 00 00 00	 call	 ___RTDynamicCast
  0002b	8b f8		 mov	 edi, eax
  0002d	83 c4 14	 add	 esp, 20			; 00000014H

; 823  : 	if( pTimeGauge == NULL ) return;

  00030	3b fb		 cmp	 edi, ebx
  00032	74 50		 je	 SHORT $LN6@UpdateTime

; 824  : 
; 825  : 	DWORD dwTimeGap = 0;
; 826  : 	switch( m_ModeState )

  00034	8b 46 38	 mov	 eax, DWORD PTR [esi+56]
  00037	2b c3		 sub	 eax, ebx
  00039	74 3a		 je	 SHORT $LN5@UpdateTime
  0003b	48		 dec	 eax
  0003c	74 0e		 je	 SHORT $LN4@UpdateTime
  0003e	83 e8 03	 sub	 eax, 3
  00041	75 41		 jne	 SHORT $LN6@UpdateTime

; 838  : 		{
; 839  : 			pTimeGauge->UpdateTime( 0, m_dwRoundDuration );
; 840  : 		}
; 841  : 		break;
; 842  : 	case MS_RESULT:
; 843  : 		pTimeGauge->UpdateTime( 0, m_dwRoundDuration );

  00043	ff b6 04 02 00
	00		 push	 DWORD PTR [esi+516]
$LN3@UpdateTime:
  00049	53		 push	 ebx

; 844  : 		break;

  0004a	eb 31		 jmp	 SHORT $LN11@UpdateTime
$LN4@UpdateTime:

; 830  : 		break;
; 831  : 	case MS_PLAY:
; 832  : 		dwTimeGap = FRAMEGETTIME() - m_dwPlayStartTime;

  0004c	ff 15 00 00 00
	00		 call	 DWORD PTR __imp_?GetSingleton@ioFrameTimer@@SAAAV1@XZ
  00052	8b c8		 mov	 ecx, eax
  00054	ff 15 00 00 00
	00		 call	 DWORD PTR __imp_?GetLoopSec@ioFrameTimer@@QBEKXZ
  0005a	2b 86 0c 02 00
	00		 sub	 eax, DWORD PTR [esi+524]

; 833  : 		if( m_dwCurRoundDuration > dwTimeGap )

  00060	8b 8e 98 02 00
	00		 mov	 ecx, DWORD PTR [esi+664]

; 834  : 		{
; 835  : 			pTimeGauge->UpdateTime( m_dwCurRoundDuration - dwTimeGap, m_dwRoundDuration );

  00066	ff b6 04 02 00
	00		 push	 DWORD PTR [esi+516]
  0006c	3b c8		 cmp	 ecx, eax
  0006e	76 d9		 jbe	 SHORT $LN3@UpdateTime
  00070	2b c8		 sub	 ecx, eax
  00072	51		 push	 ecx

; 836  : 		}
; 837  : 		else

  00073	eb 08		 jmp	 SHORT $LN11@UpdateTime
$LN5@UpdateTime:

; 827  : 	{
; 828  : 	case MS_READY:
; 829  : 		pTimeGauge->UpdateTime( m_dwRoundDuration, m_dwRoundDuration );

  00075	8b b6 04 02 00
	00		 mov	 esi, DWORD PTR [esi+516]
  0007b	56		 push	 esi
  0007c	56		 push	 esi
$LN11@UpdateTime:
  0007d	8b cf		 mov	 ecx, edi
  0007f	e8 00 00 00 00	 call	 ?UpdateTime@FightClubTimeGaugeWnd@@QAEXHH@Z ; FightClubTimeGaugeWnd::UpdateTime
$LN6@UpdateTime:

; 845  : 	}
; 846  : }

  00084	5f		 pop	 edi
  00085	5e		 pop	 esi
  00086	5b		 pop	 ebx
  00087	c3		 ret	 0
?UpdateTimeScoreWnd@ioFightClubMode@@IAEXXZ ENDP	; ioFightClubMode::UpdateTimeScoreWnd
_TEXT	ENDS
PUBLIC	?GetRoundInfo@ioFightClubMode@@MAE_NHAAURoundInfo@@@Z ; ioFightClubMode::GetRoundInfo
EXTRN	?GetRoundInfo@ioPlayMode@@MAE_NHAAURoundInfo@@@Z:PROC ; ioPlayMode::GetRoundInfo
; Function compile flags: /Ogsp
;	COMDAT ?GetRoundInfo@ioFightClubMode@@MAE_NHAAURoundInfo@@@Z
_TEXT	SEGMENT
_iIndex$ = 8						; size = 4
_rkInfo$ = 12						; size = 4
?GetRoundInfo@ioFightClubMode@@MAE_NHAAURoundInfo@@@Z PROC ; ioFightClubMode::GetRoundInfo, COMDAT
; _this$ = ecx

; 849  : {

  00000	55		 push	 ebp
  00001	8b ec		 mov	 ebp, esp
  00003	56		 push	 esi

; 850  : 	if( ioPlayMode::GetRoundInfo( iIndex, rkInfo ) )

  00004	8b 75 0c	 mov	 esi, DWORD PTR _rkInfo$[ebp]
  00007	57		 push	 edi
  00008	56		 push	 esi
  00009	ff 75 08	 push	 DWORD PTR _iIndex$[ebp]
  0000c	8b f9		 mov	 edi, ecx
  0000e	e8 00 00 00 00	 call	 ?GetRoundInfo@ioPlayMode@@MAE_NHAAURoundInfo@@@Z ; ioPlayMode::GetRoundInfo
  00013	84 c0		 test	 al, al
  00015	74 48		 je	 SHORT $LN3@GetRoundIn

; 851  : 	{
; 852  : 		FightClubRecord *pRecord = (FightClubRecord*)FindModeRecord( iIndex );

  00017	ff 75 08	 push	 DWORD PTR _iIndex$[ebp]
  0001a	8b 07		 mov	 eax, DWORD PTR [edi]
  0001c	8b cf		 mov	 ecx, edi
  0001e	ff 90 a4 00 00
	00		 call	 DWORD PTR [eax+164]

; 853  : 		if( !pRecord )	return false;

  00024	85 c0		 test	 eax, eax
  00026	74 37		 je	 SHORT $LN3@GetRoundIn

; 854  : 		if( !pRecord->pChar ) return false;

  00028	83 78 14 00	 cmp	 DWORD PTR [eax+20], 0
  0002c	74 31		 je	 SHORT $LN3@GetRoundIn

; 855  : 
; 856  : 		rkInfo.m_iContribute = pRecord->Contribute.m_iContribute;

  0002e	8b 88 a8 00 00
	00		 mov	 ecx, DWORD PTR [eax+168]
  00034	89 4e 14	 mov	 DWORD PTR [esi+20], ecx

; 857  : 		rkInfo.m_iContributePer = pRecord->Contribute.m_iPrevContributePer;

  00037	8b 88 ac 00 00
	00		 mov	 ecx, DWORD PTR [eax+172]
  0003d	89 4e 18	 mov	 DWORD PTR [esi+24], ecx

; 858  : 		
; 859  : 		rkInfo.m_iFightWin      = pRecord->iFightWin;

  00040	8b 88 d4 00 00
	00		 mov	 ecx, DWORD PTR [eax+212]
  00046	89 4e 68	 mov	 DWORD PTR [esi+104], ecx

; 860  : 		rkInfo.m_iFightLose     = pRecord->iFightLose;

  00049	8b 88 d8 00 00
	00		 mov	 ecx, DWORD PTR [eax+216]
  0004f	89 4e 6c	 mov	 DWORD PTR [esi+108], ecx

; 861  : 		rkInfo.m_iFightVictory  = pRecord->iFightVictories;

  00052	8b 80 dc 00 00
	00		 mov	 eax, DWORD PTR [eax+220]
  00058	89 46 70	 mov	 DWORD PTR [esi+112], eax

; 862  : 		return true;

  0005b	b0 01		 mov	 al, 1
  0005d	eb 02		 jmp	 SHORT $LN4@GetRoundIn
$LN3@GetRoundIn:

; 863  : 	}
; 864  : 	return false;

  0005f	32 c0		 xor	 al, al
$LN4@GetRoundIn:
  00061	5f		 pop	 edi
  00062	5e		 pop	 esi

; 865  : }

  00063	5d		 pop	 ebp
  00064	c2 08 00	 ret	 8
?GetRoundInfo@ioFightClubMode@@MAE_NHAAURoundInfo@@@Z ENDP ; ioFightClubMode::GetRoundInfo
_TEXT	ENDS
PUBLIC	?GetResultInfo@ioFightClubMode@@MAE_NHAAUResultInfo@@@Z ; ioFightClubMode::GetResultInfo
EXTRN	?GetResultInfo@ioPlayMode@@MAE_NHAAUResultInfo@@@Z:PROC ; ioPlayMode::GetResultInfo
; Function compile flags: /Ogsp
;	COMDAT ?GetResultInfo@ioFightClubMode@@MAE_NHAAUResultInfo@@@Z
_TEXT	SEGMENT
_iIndex$ = 8						; size = 4
_rkInfo$ = 12						; size = 4
?GetResultInfo@ioFightClubMode@@MAE_NHAAUResultInfo@@@Z PROC ; ioFightClubMode::GetResultInfo, COMDAT
; _this$ = ecx

; 868  : {

  00000	55		 push	 ebp
  00001	8b ec		 mov	 ebp, esp
  00003	56		 push	 esi
  00004	57		 push	 edi

; 869  : 	if( ioPlayMode::GetResultInfo( iIndex, rkInfo ) )

  00005	8b 7d 0c	 mov	 edi, DWORD PTR _rkInfo$[ebp]
  00008	57		 push	 edi
  00009	ff 75 08	 push	 DWORD PTR _iIndex$[ebp]
  0000c	8b f1		 mov	 esi, ecx
  0000e	e8 00 00 00 00	 call	 ?GetResultInfo@ioPlayMode@@MAE_NHAAUResultInfo@@@Z ; ioPlayMode::GetResultInfo
  00013	84 c0		 test	 al, al
  00015	74 2d		 je	 SHORT $LN3@GetResultI

; 870  : 	{
; 871  : 		FightClubRecord *pRecord = (FightClubRecord*)FindModeRecord( iIndex );

  00017	ff 75 08	 push	 DWORD PTR _iIndex$[ebp]
  0001a	8b 06		 mov	 eax, DWORD PTR [esi]
  0001c	8b ce		 mov	 ecx, esi
  0001e	ff 90 a4 00 00
	00		 call	 DWORD PTR [eax+164]

; 872  : 		if( !pRecord )	return false;

  00024	85 c0		 test	 eax, eax
  00026	74 1c		 je	 SHORT $LN3@GetResultI

; 873  : 		if( !pRecord->pChar ) return false;

  00028	83 78 14 00	 cmp	 DWORD PTR [eax+20], 0
  0002c	74 16		 je	 SHORT $LN3@GetResultI

; 874  : 
; 875  : 		rkInfo.m_iContribute = pRecord->Contribute.m_iContribute;

  0002e	8b 88 a8 00 00
	00		 mov	 ecx, DWORD PTR [eax+168]
  00034	89 4f 14	 mov	 DWORD PTR [edi+20], ecx

; 876  : 		rkInfo.m_iContributePer = pRecord->Contribute.m_iPrevContributePer;

  00037	8b 80 ac 00 00
	00		 mov	 eax, DWORD PTR [eax+172]
  0003d	89 47 18	 mov	 DWORD PTR [edi+24], eax

; 877  : 		return true;

  00040	b0 01		 mov	 al, 1
  00042	eb 02		 jmp	 SHORT $LN4@GetResultI
$LN3@GetResultI:

; 878  : 	}
; 879  : 	return false;

  00044	32 c0		 xor	 al, al
$LN4@GetResultI:
  00046	5f		 pop	 edi
  00047	5e		 pop	 esi

; 880  : }

  00048	5d		 pop	 ebp
  00049	c2 08 00	 ret	 8
?GetResultInfo@ioFightClubMode@@MAE_NHAAUResultInfo@@@Z ENDP ; ioFightClubMode::GetResultInfo
_TEXT	ENDS
PUBLIC	?GetFinalInfo@ioFightClubMode@@MAE_NHAAUFinalInfo@@@Z ; ioFightClubMode::GetFinalInfo
EXTRN	?GetFinalInfo@ioPlayMode@@MAE_NHAAUFinalInfo@@@Z:PROC ; ioPlayMode::GetFinalInfo
; Function compile flags: /Ogsp
;	COMDAT ?GetFinalInfo@ioFightClubMode@@MAE_NHAAUFinalInfo@@@Z
_TEXT	SEGMENT
_iIndex$ = 8						; size = 4
_rkInfo$ = 12						; size = 4
?GetFinalInfo@ioFightClubMode@@MAE_NHAAUFinalInfo@@@Z PROC ; ioFightClubMode::GetFinalInfo, COMDAT
; _this$ = ecx

; 883  : {

  00000	55		 push	 ebp
  00001	8b ec		 mov	 ebp, esp
  00003	56		 push	 esi
  00004	57		 push	 edi

; 884  : 	if( ioPlayMode::GetFinalInfo( iIndex, rkInfo ) )

  00005	8b 7d 0c	 mov	 edi, DWORD PTR _rkInfo$[ebp]
  00008	57		 push	 edi
  00009	ff 75 08	 push	 DWORD PTR _iIndex$[ebp]
  0000c	8b f1		 mov	 esi, ecx
  0000e	e8 00 00 00 00	 call	 ?GetFinalInfo@ioPlayMode@@MAE_NHAAUFinalInfo@@@Z ; ioPlayMode::GetFinalInfo
  00013	84 c0		 test	 al, al
  00015	74 2d		 je	 SHORT $LN3@GetFinalIn

; 885  : 	{
; 886  : 		FightClubRecord *pRecord = (FightClubRecord*)FindModeRecord( iIndex );

  00017	ff 75 08	 push	 DWORD PTR _iIndex$[ebp]
  0001a	8b 06		 mov	 eax, DWORD PTR [esi]
  0001c	8b ce		 mov	 ecx, esi
  0001e	ff 90 a4 00 00
	00		 call	 DWORD PTR [eax+164]

; 887  : 		if( !pRecord )	return false;

  00024	85 c0		 test	 eax, eax
  00026	74 1c		 je	 SHORT $LN3@GetFinalIn

; 888  : 		if( !pRecord->pChar ) return false;

  00028	83 78 14 00	 cmp	 DWORD PTR [eax+20], 0
  0002c	74 16		 je	 SHORT $LN3@GetFinalIn

; 889  : 
; 890  : 		rkInfo.m_iContribute = pRecord->Contribute.m_iContribute;

  0002e	8b 88 a8 00 00
	00		 mov	 ecx, DWORD PTR [eax+168]
  00034	89 4f 14	 mov	 DWORD PTR [edi+20], ecx

; 891  : 		rkInfo.m_iContributePer = pRecord->Contribute.m_iPrevContributePer;

  00037	8b 80 ac 00 00
	00		 mov	 eax, DWORD PTR [eax+172]
  0003d	89 47 18	 mov	 DWORD PTR [edi+24], eax

; 892  : 		return true;

  00040	b0 01		 mov	 al, 1
  00042	eb 02		 jmp	 SHORT $LN4@GetFinalIn
$LN3@GetFinalIn:

; 893  : 	}
; 894  : 	return false;

  00044	32 c0		 xor	 al, al
$LN4@GetFinalIn:
  00046	5f		 pop	 edi
  00047	5e		 pop	 esi

; 895  : }

  00048	5d		 pop	 ebp
  00049	c2 08 00	 ret	 8
?GetFinalInfo@ioFightClubMode@@MAE_NHAAUFinalInfo@@@Z ENDP ; ioFightClubMode::GetFinalInfo
_TEXT	ENDS
PUBLIC	?SetRoundEndMotion@ioFightClubMode@@MAEXXZ	; ioFightClubMode::SetRoundEndMotion
; Function compile flags: /Ogsp
;	COMDAT ?SetRoundEndMotion@ioFightClubMode@@MAEXXZ
_TEXT	SEGMENT
?SetRoundEndMotion@ioFightClubMode@@MAEXXZ PROC		; ioFightClubMode::SetRoundEndMotion, COMDAT
; _this$ = ecx

; 899  : 	// 사용 안함
; 900  : }

  00000	c3		 ret	 0
?SetRoundEndMotion@ioFightClubMode@@MAEXXZ ENDP		; ioFightClubMode::SetRoundEndMotion
_TEXT	ENDS
PUBLIC	?SetRoundEndVictories@ioFightClubMode@@MAEXXZ	; ioFightClubMode::SetRoundEndVictories
; Function compile flags: /Ogsp
;	COMDAT ?SetRoundEndVictories@ioFightClubMode@@MAEXXZ
_TEXT	SEGMENT
?SetRoundEndVictories@ioFightClubMode@@MAEXXZ PROC	; ioFightClubMode::SetRoundEndVictories, COMDAT
; _this$ = ecx

; 904  : 	// 사용 안함
; 905  : }

  00000	c3		 ret	 0
?SetRoundEndVictories@ioFightClubMode@@MAEXXZ ENDP	; ioFightClubMode::SetRoundEndVictories
_TEXT	ENDS
PUBLIC	?SetResultScoreWnd@ioFightClubMode@@MAEXXZ	; ioFightClubMode::SetResultScoreWnd
; Function compile flags: /Ogsp
;	COMDAT ?SetResultScoreWnd@ioFightClubMode@@MAEXXZ
_TEXT	SEGMENT
?SetResultScoreWnd@ioFightClubMode@@MAEXXZ PROC		; ioFightClubMode::SetResultScoreWnd, COMDAT
; _this$ = ecx

; 909  : 	// 중간 결과가 존재하지 않는다.
; 910  : }

  00000	c3		 ret	 0
?SetResultScoreWnd@ioFightClubMode@@MAEXXZ ENDP		; ioFightClubMode::SetResultScoreWnd
_TEXT	ENDS
PUBLIC	?SetTotalScoreWnd@ioFightClubMode@@MAEXAAV?$vector@HV?$allocator@H@std@@@std@@0MMQAM@Z ; ioFightClubMode::SetTotalScoreWnd
; Function compile flags: /Ogsp
;	COMDAT ?SetTotalScoreWnd@ioFightClubMode@@MAEXAAV?$vector@HV?$allocator@H@std@@@std@@0MMQAM@Z
_TEXT	SEGMENT
_rvClassTypeList$ = 8					; size = 4
_rvClassPointList$ = 12					; size = 4
_fBlueGuildTeamBonus$ = 16				; size = 4
_fRedGuildTeamBonus$ = 20				; size = 4
_fBonusArray$ = 24					; size = 4
?SetTotalScoreWnd@ioFightClubMode@@MAEXAAV?$vector@HV?$allocator@H@std@@@std@@0MMQAM@Z PROC ; ioFightClubMode::SetTotalScoreWnd, COMDAT
; _this$ = ecx

; 918  : 	// 사용하지 않음
; 919  : }

  00000	c2 14 00	 ret	 20			; 00000014H
?SetTotalScoreWnd@ioFightClubMode@@MAEXAAV?$vector@HV?$allocator@H@std@@@std@@0MMQAM@Z ENDP ; ioFightClubMode::SetTotalScoreWnd
_TEXT	ENDS
PUBLIC	?SetResultBriefingWnd@ioFightClubMode@@MAEXXZ	; ioFightClubMode::SetResultBriefingWnd
; Function compile flags: /Ogsp
;	COMDAT ?SetResultBriefingWnd@ioFightClubMode@@MAEXXZ
_TEXT	SEGMENT
?SetResultBriefingWnd@ioFightClubMode@@MAEXXZ PROC	; ioFightClubMode::SetResultBriefingWnd, COMDAT
; _this$ = ecx

; 923  : 	// 없음
; 924  : }

  00000	c3		 ret	 0
?SetResultBriefingWnd@ioFightClubMode@@MAEXXZ ENDP	; ioFightClubMode::SetResultBriefingWnd
_TEXT	ENDS
PUBLIC	?SetTotalResultBriefingWnd@ioFightClubMode@@MAEXXZ ; ioFightClubMode::SetTotalResultBriefingWnd
; Function compile flags: /Ogsp
;	COMDAT ?SetTotalResultBriefingWnd@ioFightClubMode@@MAEXXZ
_TEXT	SEGMENT
?SetTotalResultBriefingWnd@ioFightClubMode@@MAEXXZ PROC	; ioFightClubMode::SetTotalResultBriefingWnd, COMDAT
; _this$ = ecx

; 928  : 	// 사용하지 않음
; 929  : }

  00000	c3		 ret	 0
?SetTotalResultBriefingWnd@ioFightClubMode@@MAEXXZ ENDP	; ioFightClubMode::SetTotalResultBriefingWnd
_TEXT	ENDS
PUBLIC	?RenderPreGUI@ioFightClubMode@@UAEXXZ		; ioFightClubMode::RenderPreGUI
; Function compile flags: /Ogsp
;	COMDAT ?RenderPreGUI@ioFightClubMode@@UAEXXZ
_TEXT	SEGMENT
?RenderPreGUI@ioFightClubMode@@UAEXXZ PROC		; ioFightClubMode::RenderPreGUI, COMDAT
; _this$ = ecx

; 933  : 	if( m_ModeState == MS_PLAY )

  00000	83 79 38 01	 cmp	 DWORD PTR [ecx+56], 1
  00004	75 08		 jne	 SHORT $LN1@RenderPreG

; 934  : 	{
; 935  : 		RenderPushEnableCursor();

  00006	8b 01		 mov	 eax, DWORD PTR [ecx]
  00008	ff a0 44 01 00
	00		 jmp	 DWORD PTR [eax+324]
$LN1@RenderPreG:

; 936  : 	}
; 937  : }

  0000e	c3		 ret	 0
?RenderPreGUI@ioFightClubMode@@UAEXXZ ENDP		; ioFightClubMode::RenderPreGUI
_TEXT	ENDS
PUBLIC	?ProcessUDPPacket@ioFightClubMode@@UAE_NAAVSP2Packet@@@Z ; ioFightClubMode::ProcessUDPPacket
EXTRN	?ProcessUDPPacket@ioPlayMode@@UAE_NAAVSP2Packet@@@Z:PROC ; ioPlayMode::ProcessUDPPacket
; Function compile flags: /Ogsp
;	COMDAT ?ProcessUDPPacket@ioFightClubMode@@UAE_NAAVSP2Packet@@@Z
_TEXT	SEGMENT
_rkPacket$ = 8						; size = 4
?ProcessUDPPacket@ioFightClubMode@@UAE_NAAVSP2Packet@@@Z PROC ; ioFightClubMode::ProcessUDPPacket, COMDAT
; _this$ = ecx

; 1179 : {

  00000	55		 push	 ebp
  00001	8b ec		 mov	 ebp, esp

; 1180 : 	if( ioPlayMode::ProcessUDPPacket( rkPacket ) )

  00003	ff 75 08	 push	 DWORD PTR _rkPacket$[ebp]
  00006	e8 00 00 00 00	 call	 ?ProcessUDPPacket@ioPlayMode@@UAE_NAAVSP2Packet@@@Z ; ioPlayMode::ProcessUDPPacket
  0000b	84 c0		 test	 al, al
  0000d	0f 95 c0	 setne	 al

; 1181 : 		return true;
; 1182 : 
; 1183 : 	return false;
; 1184 : }

  00010	5d		 pop	 ebp
  00011	c2 04 00	 ret	 4
?ProcessUDPPacket@ioFightClubMode@@UAE_NAAVSP2Packet@@@Z ENDP ; ioFightClubMode::ProcessUDPPacket
_TEXT	ENDS
PUBLIC	?OnRoundStart@ioFightClubMode@@MAEXAAVSP2Packet@@@Z ; ioFightClubMode::OnRoundStart
EXTRN	?OnRoundStart@ioPlayMode@@MAEXAAVSP2Packet@@@Z:PROC ; ioPlayMode::OnRoundStart
; Function compile flags: /Ogsp
;	COMDAT ?OnRoundStart@ioFightClubMode@@MAEXAAVSP2Packet@@@Z
_TEXT	SEGMENT
_rkPacket$ = 8						; size = 4
?OnRoundStart@ioFightClubMode@@MAEXAAVSP2Packet@@@Z PROC ; ioFightClubMode::OnRoundStart, COMDAT
; _this$ = ecx

; 1432 : {

  00000	55		 push	 ebp
  00001	8b ec		 mov	 ebp, esp

; 1434 : }

  00003	5d		 pop	 ebp

; 1433 : 	ioPlayMode::OnRoundStart( rkPacket );

  00004	e9 00 00 00 00	 jmp	 ?OnRoundStart@ioPlayMode@@MAEXAAVSP2Packet@@@Z ; ioPlayMode::OnRoundStart
?OnRoundStart@ioFightClubMode@@MAEXAAVSP2Packet@@@Z ENDP ; ioFightClubMode::OnRoundStart
_TEXT	ENDS
PUBLIC	?OnRoundJoinObserver@ioFightClubMode@@MAEXAAVSP2Packet@@@Z ; ioFightClubMode::OnRoundJoinObserver
EXTRN	?OnRoundJoinObserver@ioPlayMode@@MAEXAAVSP2Packet@@@Z:PROC ; ioPlayMode::OnRoundJoinObserver
; Function compile flags: /Ogsp
;	COMDAT ?OnRoundJoinObserver@ioFightClubMode@@MAEXAAVSP2Packet@@@Z
_TEXT	SEGMENT
_rkPacket$ = 8						; size = 4
?OnRoundJoinObserver@ioFightClubMode@@MAEXAAVSP2Packet@@@Z PROC ; ioFightClubMode::OnRoundJoinObserver, COMDAT
; _this$ = ecx

; 1697 : {

  00000	55		 push	 ebp
  00001	8b ec		 mov	 ebp, esp

; 1699 : }

  00003	5d		 pop	 ebp

; 1698 : 	ioPlayMode::OnRoundJoinObserver( rkPacket );

  00004	e9 00 00 00 00	 jmp	 ?OnRoundJoinObserver@ioPlayMode@@MAEXAAVSP2Packet@@@Z ; ioPlayMode::OnRoundJoinObserver
?OnRoundJoinObserver@ioFightClubMode@@MAEXAAVSP2Packet@@@Z ENDP ; ioFightClubMode::OnRoundJoinObserver
_TEXT	ENDS
PUBLIC	?OnFinalRoundResult@ioFightClubMode@@MAEXAAVSP2Packet@@@Z ; ioFightClubMode::OnFinalRoundResult
; Function compile flags: /Ogsp
;	COMDAT ?OnFinalRoundResult@ioFightClubMode@@MAEXAAVSP2Packet@@@Z
_TEXT	SEGMENT
_rkPacket$ = 8						; size = 4
?OnFinalRoundResult@ioFightClubMode@@MAEXAAVSP2Packet@@@Z PROC ; ioFightClubMode::OnFinalRoundResult, COMDAT
; _this$ = ecx

; 1703 : 	// 사용하지 않음. 
; 1704 : }

  00000	c2 04 00	 ret	 4
?OnFinalRoundResult@ioFightClubMode@@MAEXAAVSP2Packet@@@Z ENDP ; ioFightClubMode::OnFinalRoundResult
_TEXT	ENDS
PUBLIC	?GetRoundWinCnt@ioFightClubMode@@UAEHW4TeamType@@@Z ; ioFightClubMode::GetRoundWinCnt
; Function compile flags: /Ogsp
;	COMDAT ?GetRoundWinCnt@ioFightClubMode@@UAEHW4TeamType@@@Z
_TEXT	SEGMENT
_eTeamType$ = 8						; size = 4
?GetRoundWinCnt@ioFightClubMode@@UAEHW4TeamType@@@Z PROC ; ioFightClubMode::GetRoundWinCnt, COMDAT
; _this$ = ecx

; 1708 : 	return 0;

  00000	33 c0		 xor	 eax, eax

; 1709 : }

  00002	c2 04 00	 ret	 4
?GetRoundWinCnt@ioFightClubMode@@UAEHW4TeamType@@@Z ENDP ; ioFightClubMode::GetRoundWinCnt
_TEXT	ENDS
PUBLIC	?CheckRoundEnd@ioFightClubMode@@IAEXXZ		; ioFightClubMode::CheckRoundEnd
; Function compile flags: /Ogsp
;	COMDAT ?CheckRoundEnd@ioFightClubMode@@IAEXXZ
_TEXT	SEGMENT
?CheckRoundEnd@ioFightClubMode@@IAEXXZ PROC		; ioFightClubMode::CheckRoundEnd, COMDAT
; _this$ = ecx

; 1713 : }

  00000	c3		 ret	 0
?CheckRoundEnd@ioFightClubMode@@IAEXXZ ENDP		; ioFightClubMode::CheckRoundEnd
_TEXT	ENDS
PUBLIC	??1ContributeInfo@@QAE@XZ			; ContributeInfo::~ContributeInfo
; Function compile flags: /Ogsp
;	COMDAT ??1ContributeInfo@@QAE@XZ
_TEXT	SEGMENT
??1ContributeInfo@@QAE@XZ PROC				; ContributeInfo::~ContributeInfo, COMDAT
; _this$ = ecx
  00000	83 c1 0c	 add	 ecx, 12			; 0000000cH
  00003	ff 25 00 00 00
	00		 jmp	 DWORD PTR __imp_??1ioHashString@@QAE@XZ
??1ContributeInfo@@QAE@XZ ENDP				; ContributeInfo::~ContributeInfo
_TEXT	ENDS
PUBLIC	?ShowEndScoreWnd@ioFightClubMode@@MAEX_N@Z	; ioFightClubMode::ShowEndScoreWnd
; Function compile flags: /Ogsp
;	COMDAT ?ShowEndScoreWnd@ioFightClubMode@@MAEX_N@Z
_TEXT	SEGMENT
_bShow$ = 8						; size = 1
?ShowEndScoreWnd@ioFightClubMode@@MAEX_N@Z PROC		; ioFightClubMode::ShowEndScoreWnd, COMDAT
; _this$ = ecx

; 2274 : }

  00000	c2 04 00	 ret	 4
?ShowEndScoreWnd@ioFightClubMode@@MAEX_N@Z ENDP		; ioFightClubMode::ShowEndScoreWnd
_TEXT	ENDS
PUBLIC	?ItemEquipAfterUIProcess@ioFightClubMode@@UAEXPAVioBaseChar@@H@Z ; ioFightClubMode::ItemEquipAfterUIProcess
EXTRN	?SetHelmChange@FightClubTimeGaugeWnd@@QAEXPAVioBaseChar@@@Z:PROC ; FightClubTimeGaugeWnd::SetHelmChange
; Function compile flags: /Ogsp
;	COMDAT ?ItemEquipAfterUIProcess@ioFightClubMode@@UAEXPAVioBaseChar@@H@Z
_TEXT	SEGMENT
_pChar$ = 8						; size = 4
_iItemType$ = 12					; size = 4
?ItemEquipAfterUIProcess@ioFightClubMode@@UAEXPAVioBaseChar@@H@Z PROC ; ioFightClubMode::ItemEquipAfterUIProcess, COMDAT
; _this$ = ecx

; 2423 : {

  00000	55		 push	 ebp
  00001	8b ec		 mov	 ebp, esp

; 2424 : 	if( iItemType != ioItem::IT_HELMET )

  00003	83 7d 0c 03	 cmp	 DWORD PTR _iItemType$[ebp], 3
  00007	75 37		 jne	 SHORT $LN1@ItemEquipA

; 2425 : 		return;
; 2426 : 
; 2427 : 	FightClubTimeGaugeWnd *pTimeGauge = dynamic_cast< FightClubTimeGaugeWnd * >( g_GUIMgr.FindWnd( FIGHTCLUB_TIME_GAUGE_WND ) );

  00009	6a 00		 push	 0
  0000b	68 00 00 00 00	 push	 OFFSET ??_R0?AVFightClubTimeGaugeWnd@@@8
  00010	68 00 00 00 00	 push	 OFFSET ??_R0?AVioWnd@@@8
  00015	6a 00		 push	 0
  00017	68 d1 13 00 00	 push	 5073			; 000013d1H
  0001c	e8 00 00 00 00	 call	 ?GetSingleton@ioSP2GUIManager@@SAAAV1@XZ ; ioSP2GUIManager::GetSingleton
  00021	8b c8		 mov	 ecx, eax
  00023	ff 15 00 00 00
	00		 call	 DWORD PTR __imp_?FindWnd@ioGUIManager@@QAEPAVioWnd@@K@Z
  00029	50		 push	 eax
  0002a	e8 00 00 00 00	 call	 ___RTDynamicCast
  0002f	83 c4 14	 add	 esp, 20			; 00000014H

; 2428 : 	if( pTimeGauge )

  00032	85 c0		 test	 eax, eax
  00034	74 0a		 je	 SHORT $LN1@ItemEquipA

; 2429 : 	{
; 2430 : 		pTimeGauge->SetHelmChange( pChar );

  00036	ff 75 08	 push	 DWORD PTR _pChar$[ebp]
  00039	8b c8		 mov	 ecx, eax
  0003b	e8 00 00 00 00	 call	 ?SetHelmChange@FightClubTimeGaugeWnd@@QAEXPAVioBaseChar@@@Z ; FightClubTimeGaugeWnd::SetHelmChange
$LN1@ItemEquipA:

; 2431 : 	}
; 2432 : }

  00040	5d		 pop	 ebp
  00041	c2 08 00	 ret	 8
?ItemEquipAfterUIProcess@ioFightClubMode@@UAEXPAVioBaseChar@@H@Z ENDP ; ioFightClubMode::ItemEquipAfterUIProcess
_TEXT	ENDS
PUBLIC	?ItemReleaseAfterUIProcess@ioFightClubMode@@UAEXPAVioBaseChar@@H@Z ; ioFightClubMode::ItemReleaseAfterUIProcess
; Function compile flags: /Ogsp
;	COMDAT ?ItemReleaseAfterUIProcess@ioFightClubMode@@UAEXPAVioBaseChar@@H@Z
_TEXT	SEGMENT
_pChar$ = 8						; size = 4
_iItemType$ = 12					; size = 4
?ItemReleaseAfterUIProcess@ioFightClubMode@@UAEXPAVioBaseChar@@H@Z PROC ; ioFightClubMode::ItemReleaseAfterUIProcess, COMDAT
; _this$ = ecx

; 2435 : {

  00000	55		 push	 ebp
  00001	8b ec		 mov	 ebp, esp

; 2436 : 	if( iItemType != ioItem::IT_HELMET )

  00003	83 7d 0c 03	 cmp	 DWORD PTR _iItemType$[ebp], 3
  00007	75 37		 jne	 SHORT $LN1@ItemReleas

; 2437 : 		return;
; 2438 : 
; 2439 : 	FightClubTimeGaugeWnd *pTimeGauge = dynamic_cast< FightClubTimeGaugeWnd * >( g_GUIMgr.FindWnd( FIGHTCLUB_TIME_GAUGE_WND ) );

  00009	6a 00		 push	 0
  0000b	68 00 00 00 00	 push	 OFFSET ??_R0?AVFightClubTimeGaugeWnd@@@8
  00010	68 00 00 00 00	 push	 OFFSET ??_R0?AVioWnd@@@8
  00015	6a 00		 push	 0
  00017	68 d1 13 00 00	 push	 5073			; 000013d1H
  0001c	e8 00 00 00 00	 call	 ?GetSingleton@ioSP2GUIManager@@SAAAV1@XZ ; ioSP2GUIManager::GetSingleton
  00021	8b c8		 mov	 ecx, eax
  00023	ff 15 00 00 00
	00		 call	 DWORD PTR __imp_?FindWnd@ioGUIManager@@QAEPAVioWnd@@K@Z
  00029	50		 push	 eax
  0002a	e8 00 00 00 00	 call	 ___RTDynamicCast
  0002f	83 c4 14	 add	 esp, 20			; 00000014H

; 2440 : 	if( pTimeGauge )

  00032	85 c0		 test	 eax, eax
  00034	74 0a		 je	 SHORT $LN1@ItemReleas

; 2441 : 	{
; 2442 : 		pTimeGauge->SetHelmChange( pChar );

  00036	ff 75 08	 push	 DWORD PTR _pChar$[ebp]
  00039	8b c8		 mov	 ecx, eax
  0003b	e8 00 00 00 00	 call	 ?SetHelmChange@FightClubTimeGaugeWnd@@QAEXPAVioBaseChar@@@Z ; FightClubTimeGaugeWnd::SetHelmChange
$LN1@ItemReleas:

; 2443 : 	}
; 2444 : 
; 2445 : }

  00040	5d		 pop	 ebp
  00041	c2 08 00	 ret	 8
?ItemReleaseAfterUIProcess@ioFightClubMode@@UAEXPAVioBaseChar@@H@Z ENDP ; ioFightClubMode::ItemReleaseAfterUIProcess
_TEXT	ENDS
PUBLIC	?ItemEntityChangeAfterUIProcess@ioFightClubMode@@UAEXPAVioBaseChar@@H@Z ; ioFightClubMode::ItemEntityChangeAfterUIProcess
; Function compile flags: /Ogsp
;	COMDAT ?ItemEntityChangeAfterUIProcess@ioFightClubMode@@UAEXPAVioBaseChar@@H@Z
_TEXT	SEGMENT
_pChar$ = 8						; size = 4
_iItemType$ = 12					; size = 4
?ItemEntityChangeAfterUIProcess@ioFightClubMode@@UAEXPAVioBaseChar@@H@Z PROC ; ioFightClubMode::ItemEntityChangeAfterUIProcess, COMDAT
; _this$ = ecx

; 2448 : {

  00000	55		 push	 ebp
  00001	8b ec		 mov	 ebp, esp

; 2449 : 	if( iItemType != ioItem::IT_HELMET )

  00003	83 7d 0c 03	 cmp	 DWORD PTR _iItemType$[ebp], 3
  00007	75 37		 jne	 SHORT $LN1@ItemEntity

; 2450 : 		return;
; 2451 : 
; 2452 : 	FightClubTimeGaugeWnd *pTimeGauge = dynamic_cast< FightClubTimeGaugeWnd * >( g_GUIMgr.FindWnd( FIGHTCLUB_TIME_GAUGE_WND ) );

  00009	6a 00		 push	 0
  0000b	68 00 00 00 00	 push	 OFFSET ??_R0?AVFightClubTimeGaugeWnd@@@8
  00010	68 00 00 00 00	 push	 OFFSET ??_R0?AVioWnd@@@8
  00015	6a 00		 push	 0
  00017	68 d1 13 00 00	 push	 5073			; 000013d1H
  0001c	e8 00 00 00 00	 call	 ?GetSingleton@ioSP2GUIManager@@SAAAV1@XZ ; ioSP2GUIManager::GetSingleton
  00021	8b c8		 mov	 ecx, eax
  00023	ff 15 00 00 00
	00		 call	 DWORD PTR __imp_?FindWnd@ioGUIManager@@QAEPAVioWnd@@K@Z
  00029	50		 push	 eax
  0002a	e8 00 00 00 00	 call	 ___RTDynamicCast
  0002f	83 c4 14	 add	 esp, 20			; 00000014H

; 2453 : 	if( pTimeGauge )

  00032	85 c0		 test	 eax, eax
  00034	74 0a		 je	 SHORT $LN1@ItemEntity

; 2454 : 	{
; 2455 : 		pTimeGauge->SetHelmChange( pChar );

  00036	ff 75 08	 push	 DWORD PTR _pChar$[ebp]
  00039	8b c8		 mov	 ecx, eax
  0003b	e8 00 00 00 00	 call	 ?SetHelmChange@FightClubTimeGaugeWnd@@QAEXPAVioBaseChar@@@Z ; FightClubTimeGaugeWnd::SetHelmChange
$LN1@ItemEntity:

; 2456 : 	}
; 2457 : }

  00040	5d		 pop	 ebp
  00041	c2 08 00	 ret	 8
?ItemEntityChangeAfterUIProcess@ioFightClubMode@@UAEXPAVioBaseChar@@H@Z ENDP ; ioFightClubMode::ItemEntityChangeAfterUIProcess
_TEXT	ENDS
PUBLIC	??0D3DXVECTOR3@@QAE@XZ				; D3DXVECTOR3::D3DXVECTOR3
; Function compile flags: /Ogsp
; File c:\program files (x86)\microsoft directx sdk (june 2010)\include\d3dx9math.h
;	COMDAT ??0D3DXVECTOR3@@QAE@XZ
_TEXT	SEGMENT
??0D3DXVECTOR3@@QAE@XZ PROC				; D3DXVECTOR3::D3DXVECTOR3, COMDAT
; _this$ = ecx

; 165  :     D3DXVECTOR3() {};

  00000	8b c1		 mov	 eax, ecx
  00002	c3		 ret	 0
??0D3DXVECTOR3@@QAE@XZ ENDP				; D3DXVECTOR3::D3DXVECTOR3
_TEXT	ENDS
PUBLIC	?GetChampionName@ioFightClubMode@@QAEABVioHashString@@XZ ; ioFightClubMode::GetChampionName
EXTRN	?GetOwnerName@ioPlayMode@@QAEABVioHashString@@XZ:PROC ; ioPlayMode::GetOwnerName
; Function compile flags: /Ogsp
; File d:\lost saga for developer\youtube\tutorial\source\src\lsclient\iofightclubmode.cpp
;	COMDAT ?GetChampionName@ioFightClubMode@@QAEABVioHashString@@XZ
_TEXT	SEGMENT
?GetChampionName@ioFightClubMode@@QAEABVioHashString@@XZ PROC ; ioFightClubMode::GetChampionName, COMDAT
; _this$ = ecx

; 2460 : {

  00000	56		 push	 esi

; 2461 : 	FightClubTimeGaugeWnd *pTimeGauge = dynamic_cast< FightClubTimeGaugeWnd * >( g_GUIMgr.FindWnd( FIGHTCLUB_TIME_GAUGE_WND ) );

  00001	6a 00		 push	 0
  00003	68 00 00 00 00	 push	 OFFSET ??_R0?AVFightClubTimeGaugeWnd@@@8
  00008	68 00 00 00 00	 push	 OFFSET ??_R0?AVioWnd@@@8
  0000d	6a 00		 push	 0
  0000f	68 d1 13 00 00	 push	 5073			; 000013d1H
  00014	8b f1		 mov	 esi, ecx
  00016	e8 00 00 00 00	 call	 ?GetSingleton@ioSP2GUIManager@@SAAAV1@XZ ; ioSP2GUIManager::GetSingleton
  0001b	8b c8		 mov	 ecx, eax
  0001d	ff 15 00 00 00
	00		 call	 DWORD PTR __imp_?FindWnd@ioGUIManager@@QAEPAVioWnd@@K@Z
  00023	50		 push	 eax
  00024	e8 00 00 00 00	 call	 ___RTDynamicCast
  00029	83 c4 14	 add	 esp, 20			; 00000014H

; 2462 : 	if( pTimeGauge )

  0002c	85 c0		 test	 eax, eax
  0002e	74 07		 je	 SHORT $LN1@GetChampio

; 2463 : 	{
; 2464 : 		return pTimeGauge->GetChampionUserName();

  00030	05 dc 02 00 00	 add	 eax, 732		; 000002dcH
  00035	5e		 pop	 esi

; 2467 : }

  00036	c3		 ret	 0
$LN1@GetChampio:

; 2465 : 	}
; 2466 : 	return GetOwnerName();

  00037	8b ce		 mov	 ecx, esi
  00039	5e		 pop	 esi
  0003a	e9 00 00 00 00	 jmp	 ?GetOwnerName@ioPlayMode@@QAEABVioHashString@@XZ ; ioPlayMode::GetOwnerName
?GetChampionName@ioFightClubMode@@QAEABVioHashString@@XZ ENDP ; ioFightClubMode::GetChampionName
_TEXT	ENDS
PUBLIC	?GetChallengerName@ioFightClubMode@@QAEABVioHashString@@XZ ; ioFightClubMode::GetChallengerName
; Function compile flags: /Ogsp
;	COMDAT ?GetChallengerName@ioFightClubMode@@QAEABVioHashString@@XZ
_TEXT	SEGMENT
?GetChallengerName@ioFightClubMode@@QAEABVioHashString@@XZ PROC ; ioFightClubMode::GetChallengerName, COMDAT
; _this$ = ecx

; 2470 : {

  00000	56		 push	 esi

; 2471 : 	FightClubTimeGaugeWnd *pTimeGauge = dynamic_cast< FightClubTimeGaugeWnd * >( g_GUIMgr.FindWnd( FIGHTCLUB_TIME_GAUGE_WND ) );

  00001	6a 00		 push	 0
  00003	68 00 00 00 00	 push	 OFFSET ??_R0?AVFightClubTimeGaugeWnd@@@8
  00008	68 00 00 00 00	 push	 OFFSET ??_R0?AVioWnd@@@8
  0000d	6a 00		 push	 0
  0000f	68 d1 13 00 00	 push	 5073			; 000013d1H
  00014	8b f1		 mov	 esi, ecx
  00016	e8 00 00 00 00	 call	 ?GetSingleton@ioSP2GUIManager@@SAAAV1@XZ ; ioSP2GUIManager::GetSingleton
  0001b	8b c8		 mov	 ecx, eax
  0001d	ff 15 00 00 00
	00		 call	 DWORD PTR __imp_?FindWnd@ioGUIManager@@QAEPAVioWnd@@K@Z
  00023	50		 push	 eax
  00024	e8 00 00 00 00	 call	 ___RTDynamicCast
  00029	83 c4 14	 add	 esp, 20			; 00000014H

; 2472 : 	if( pTimeGauge )

  0002c	85 c0		 test	 eax, eax
  0002e	74 07		 je	 SHORT $LN1@GetChallen

; 2473 : 	{
; 2474 : 		return pTimeGauge->GetChallengerUserName();

  00030	05 04 03 00 00	 add	 eax, 772		; 00000304H
  00035	5e		 pop	 esi

; 2477 : }

  00036	c3		 ret	 0
$LN1@GetChallen:

; 2475 : 	}
; 2476 : 	return GetOwnerName();

  00037	8b ce		 mov	 ecx, esi
  00039	5e		 pop	 esi
  0003a	e9 00 00 00 00	 jmp	 ?GetOwnerName@ioPlayMode@@QAEABVioHashString@@XZ ; ioPlayMode::GetOwnerName
?GetChallengerName@ioFightClubMode@@QAEABVioHashString@@XZ ENDP ; ioFightClubMode::GetChallengerName
_TEXT	ENDS
PUBLIC	??0D3DXQUATERNION@@QAE@XZ			; D3DXQUATERNION::D3DXQUATERNION
; Function compile flags: /Ogsp
; File c:\program files (x86)\microsoft directx sdk (june 2010)\include\d3dx9math.h
;	COMDAT ??0D3DXQUATERNION@@QAE@XZ
_TEXT	SEGMENT
??0D3DXQUATERNION@@QAE@XZ PROC				; D3DXQUATERNION::D3DXQUATERNION, COMDAT
; _this$ = ecx

; 429  :     D3DXQUATERNION() {}

  00000	8b c1		 mov	 eax, ecx
  00002	c3		 ret	 0
??0D3DXQUATERNION@@QAE@XZ ENDP				; D3DXQUATERNION::D3DXQUATERNION
_TEXT	ENDS
PUBLIC	??0D3DXVECTOR3@@QAE@MMM@Z			; D3DXVECTOR3::D3DXVECTOR3
EXTRN	__fltused:DWORD
; Function compile flags: /Ogsp
; File c:\program files (x86)\microsoft directx sdk (june 2010)\include\d3dx9math.inl
;	COMDAT ??0D3DXVECTOR3@@QAE@MMM@Z
_TEXT	SEGMENT
_fx$ = 8						; size = 4
_fy$ = 12						; size = 4
_fz$ = 16						; size = 4
??0D3DXVECTOR3@@QAE@MMM@Z PROC				; D3DXVECTOR3::D3DXVECTOR3, COMDAT
; _this$ = ecx

; 303  : {

  00000	55		 push	 ebp
  00001	8b ec		 mov	 ebp, esp

; 304  :     x = fx;

  00003	f3 0f 10 45 08	 movss	 xmm0, DWORD PTR _fx$[ebp]
  00008	8b c1		 mov	 eax, ecx
  0000a	f3 0f 11 00	 movss	 DWORD PTR [eax], xmm0

; 305  :     y = fy;

  0000e	f3 0f 10 45 0c	 movss	 xmm0, DWORD PTR _fy$[ebp]
  00013	f3 0f 11 40 04	 movss	 DWORD PTR [eax+4], xmm0

; 306  :     z = fz;

  00018	f3 0f 10 45 10	 movss	 xmm0, DWORD PTR _fz$[ebp]
  0001d	f3 0f 11 40 08	 movss	 DWORD PTR [eax+8], xmm0

; 307  : }

  00022	5d		 pop	 ebp
  00023	c2 0c 00	 ret	 12			; 0000000cH
??0D3DXVECTOR3@@QAE@MMM@Z ENDP				; D3DXVECTOR3::D3DXVECTOR3
_TEXT	ENDS
PUBLIC	??YD3DXVECTOR3@@QAEAAU0@ABU0@@Z			; D3DXVECTOR3::operator+=
; Function compile flags: /Ogsp
;	COMDAT ??YD3DXVECTOR3@@QAEAAU0@ABU0@@Z
_TEXT	SEGMENT
_v$ = 8							; size = 4
??YD3DXVECTOR3@@QAEAAU0@ABU0@@Z PROC			; D3DXVECTOR3::operator+=, COMDAT
; _this$ = ecx

; 327  : {

  00000	55		 push	 ebp
  00001	8b ec		 mov	 ebp, esp
  00003	8b c1		 mov	 eax, ecx

; 328  :     x += v.x;

  00005	8b 4d 08	 mov	 ecx, DWORD PTR _v$[ebp]
  00008	f3 0f 10 01	 movss	 xmm0, DWORD PTR [ecx]
  0000c	f3 0f 10 08	 movss	 xmm1, DWORD PTR [eax]
  00010	0f 5a c0	 cvtps2pd xmm0, xmm0
  00013	0f 5a c9	 cvtps2pd xmm1, xmm1
  00016	f2 0f 58 c1	 addsd	 xmm0, xmm1

; 329  :     y += v.y;

  0001a	f3 0f 10 48 04	 movss	 xmm1, DWORD PTR [eax+4]
  0001f	66 0f 5a c0	 cvtpd2ps xmm0, xmm0
  00023	f3 0f 11 00	 movss	 DWORD PTR [eax], xmm0
  00027	f3 0f 10 41 04	 movss	 xmm0, DWORD PTR [ecx+4]
  0002c	0f 5a c0	 cvtps2pd xmm0, xmm0
  0002f	0f 5a c9	 cvtps2pd xmm1, xmm1
  00032	f2 0f 58 c1	 addsd	 xmm0, xmm1

; 330  :     z += v.z;

  00036	f3 0f 10 48 08	 movss	 xmm1, DWORD PTR [eax+8]
  0003b	66 0f 5a c0	 cvtpd2ps xmm0, xmm0
  0003f	f3 0f 11 40 04	 movss	 DWORD PTR [eax+4], xmm0
  00044	f3 0f 10 41 08	 movss	 xmm0, DWORD PTR [ecx+8]
  00049	0f 5a c0	 cvtps2pd xmm0, xmm0
  0004c	0f 5a c9	 cvtps2pd xmm1, xmm1
  0004f	f2 0f 58 c1	 addsd	 xmm0, xmm1
  00053	66 0f 5a c0	 cvtpd2ps xmm0, xmm0
  00057	f3 0f 11 40 08	 movss	 DWORD PTR [eax+8], xmm0

; 331  :     return *this;
; 332  : }

  0005c	5d		 pop	 ebp
  0005d	c2 04 00	 ret	 4
??YD3DXVECTOR3@@QAEAAU0@ABU0@@Z ENDP			; D3DXVECTOR3::operator+=
_TEXT	ENDS
PUBLIC	?OnFightClubResult@ioFightClubMode@@IAEXAAVSP2Packet@@@Z ; ioFightClubMode::OnFightClubResult
; Function compile flags: /Ogsp
; File d:\lost saga for developer\youtube\tutorial\source\src\lsclient\iofightclubmode.cpp
;	COMDAT ?OnFightClubResult@ioFightClubMode@@IAEXAAVSP2Packet@@@Z
_TEXT	SEGMENT
_rkPacket$ = 8						; size = 4
?OnFightClubResult@ioFightClubMode@@IAEXAAVSP2Packet@@@Z PROC ; ioFightClubMode::OnFightClubResult, COMDAT
; _this$ = ecx

; 2759 : 	//FightClubTimeGaugeWnd *pTimeGauge  = dynamic_cast< FightClubTimeGaugeWnd * >( g_GUIMgr.FindWnd( FIGHTCLUB_TIME_GAUGE_WND ) );
; 2760 : 	//FightClubRoundEndWnd *pRoundResult = dynamic_cast< FightClubRoundEndWnd * >( g_GUIMgr.FindWnd( FIGHTCLUB_ROUND_END_WND ) );
; 2761 : 	//if( pTimeGauge == NULL || pRoundResult == NULL )
; 2762 : 	//	 return;
; 2763 : 
; 2764 : 	//int i = 0;
; 2765 : 	//DWORD dwResultTime;
; 2766 : 	//rkPacket >> dwResultTime;
; 2767 : 
; 2768 : 	//bool bChampionWin;
; 2769 : 	//bool bMeChampion = false;
; 2770 : 	//__int64 iChampMoney;
; 2771 : 	//ioHashString kChampionName;
; 2772 : 	//int iChampionVictories, iChampExp, iChampPeso, iChampGradeLevel;
; 2773 : 	//rkPacket >> kChampionName >> iChampionVictories >> bChampionWin >> iChampExp >> iChampPeso >> iChampGradeLevel >> iChampMoney;
; 2774 : 
; 2775 : 	//if( kChampionName == g_MyInfo.GetPublicID() )
; 2776 : 	//	bMeChampion = true;
; 2777 : 
; 2778 : 	//int iChampClassList;
; 2779 : 	//rkPacket >> iChampClassList;
; 2780 : 	//for(i = 0;i < iChampClassList;i++)
; 2781 : 	//{
; 2782 : 	//	int iClassType, iClassExp;
; 2783 : 	//	rkPacket >> iClassType >> iClassExp;
; 2784 : 	//	if( iClassType == 0 ) continue;
; 2785 : 	//	if( bMeChampion == false ) continue;
; 2786 : 	//	
; 2787 : 	//	g_MyInfo.AddClassExp( iClassType, iClassExp );
; 2788 : 	//	float fGradeExp = g_MyInfo.GetSoldierExpBonusByGradeExp( iClassType, iClassExp );
; 2789 : 	//	g_MyInfo.AddGradeExp( fGradeExp );
; 2790 : 
; 2791 : 	//	pRoundResult->SetPlayClassType( iClassType );
; 2792 : 	//}
; 2793 : 	//
; 2794 : 	//float fChampBonusArray[ioPlayMode::BA_MAX];
; 2795 : 	//for (i = 0; i < ioPlayMode::BA_MAX; i++)
; 2796 : 	//	rkPacket >> fChampBonusArray[i];
; 2797 : 
; 2798 : 	//if( bMeChampion )
; 2799 : 	//	g_MyInfo.SetMoney( iChampMoney );
; 2800 : 	//
; 2801 : 	//bool bChallengerWin;
; 2802 : 	//bool bMeChallenger = false;
; 2803 : 	//__int64 iChallengerMoney;
; 2804 : 	//ioHashString kChallengerName;
; 2805 : 	//IntVec vChallengerClassTypeList;
; 2806 : 	//IntVec vChallengerClassPointList;
; 2807 : 	//int iChallengerVictories, iChallengerExp, iChallengerPeso, iChallengerGradeLevel;
; 2808 : 	//rkPacket >> kChallengerName >> iChallengerVictories >> bChallengerWin >> iChallengerExp >> iChallengerPeso >> iChallengerGradeLevel >> iChallengerMoney;
; 2809 : 
; 2810 : 	//if( kChallengerName == g_MyInfo.GetPublicID() )
; 2811 : 	//	bMeChallenger = true;
; 2812 : 
; 2813 : 	//int iChallengerClassList;
; 2814 : 	//rkPacket >> iChallengerClassList;
; 2815 : 	//for(i = 0;i < iChallengerClassList;i++)
; 2816 : 	//{
; 2817 : 	//	int iClassType, iClassExp;
; 2818 : 	//	rkPacket >> iClassType >> iClassExp;
; 2819 : 	//	if( iClassType == 0 ) continue;
; 2820 : 	//	if( bMeChallenger == false ) continue;
; 2821 : 	//	
; 2822 : 	//	g_MyInfo.AddClassExp( iClassType, iClassExp );
; 2823 : 	//	float fGradeExp = g_MyInfo.GetSoldierExpBonusByGradeExp( iClassType, iClassExp );
; 2824 : 	//	g_MyInfo.AddGradeExp( fGradeExp );
; 2825 : 
; 2826 : 	//	pRoundResult->SetPlayClassType( iClassType );
; 2827 : 	//}
; 2828 : 
; 2829 : 	//float fChallBonusArray[ioPlayMode::BA_MAX];
; 2830 : 	//for (i = 0; i < ioPlayMode::BA_MAX; i++)
; 2831 : 	//	rkPacket >> fChallBonusArray[i];
; 2832 : 
; 2833 : 	//if( bMeChallenger )
; 2834 : 	//	g_MyInfo.SetMoney( iChallengerMoney );
; 2835 : 
; 2836 : 	//// 결과 UI 반영
; 2837 : 	//pRoundResult->SetRoundResult( dwResultTime, 
; 2838 : 	//							  kChampionName, iChampExp, iChampPeso, iChampionVictories, bChampionWin, fChampBonusArray,
; 2839 : 	//							  kChallengerName, iChallengerExp, iChallengerPeso, iChallengerVictories, bChallengerWin, fChallBonusArray,
; 2840 : 	//							  pTimeGauge->GetMeSeqCount() );
; 2841 : 
; 2842 : 	//if( bChampionWin )
; 2843 : 	//{
; 2844 : 	//	// 승자
; 2845 : 	//	ioBaseChar *pChamp = m_pCreator->GetBaseChar( kChampionName );
; 2846 : 	//	if( pChamp )
; 2847 : 	//	{
; 2848 : 	//		pChamp->StartNoInputDelayTime( 10000 );
; 2849 : 
; 2850 : 	//		pChamp->SetRoundEndMotion( RM_WIN );		
; 2851 : 
; 2852 : 	//		pChamp->SetLevel( iChampGradeLevel );
; 2853 : 
; 2854 : 	//		FightClubRecord *pChampRecord = FindRecordCharName( kChampionName );
; 2855 : 	//		if( pChampRecord )
; 2856 : 	//		{
; 2857 : 	//			pChampRecord->iFightWin++;
; 2858 : 	//			pChampRecord->iFightSeqLoseCount = 0;
; 2859 : 	//		}
; 2860 : 	//	}
; 2861 : 
; 2862 : 	//	// 패자
; 2863 : 	//	ioBaseChar *pChallenger = m_pCreator->GetBaseChar( kChallengerName );
; 2864 : 	//	if( pChallenger )
; 2865 : 	//	{
; 2866 : 	//		pChallenger->StartNoInputDelayTime( 10000 );
; 2867 : 
; 2868 : 	//		if( pChallenger->GetState() != CS_DIE )
; 2869 : 	//			pChallenger->SetRoundEndMotion( RM_LOSE );		
; 2870 : 	//		
; 2871 : 	//		pChallenger->SetLevel( iChallengerGradeLevel );
; 2872 : 
; 2873 : 	//		FightClubRecord *pChallRecord = FindRecordCharName( kChallengerName );
; 2874 : 	//		if( pChallRecord )
; 2875 : 	//		{
; 2876 : 	//			pChallRecord->iFightLose++;
; 2877 : 	//			pChallRecord->iFightSeqLoseCount++;
; 2878 : 
; 2879 : 	//			if( pChallenger->IsOwnerChar() )
; 2880 : 	//			{
; 2881 : 	//				if( pChallRecord->iFightSeqLoseCount > m_iAbuseLoseCount )
; 2882 : 	//				{
; 2883 : 	//					// 매크로 뷰
; 2884 : 	//					pChallRecord->iFightSeqLoseCount = 0;
; 2885 : 	//					
; 2886 : 	//					if( g_BattleRoomMgr.IsBattleRoom() )
; 2887 : 	//					{
; 2888 : 	//						g_MyInfo.SetBattleLockType( BattleLockProblemWnd::LT_MACRO_EXTENSION );
; 2889 : 	//					}
; 2890 : 	//				}
; 2891 : 	//			}
; 2892 : 	//		}
; 2893 : 	//	}		
; 2894 : 	//}
; 2895 : 	//else if( bChallengerWin )
; 2896 : 	//{
; 2897 : 	//	// 승자
; 2898 : 	//	ioBaseChar *pChallenger = m_pCreator->GetBaseChar( kChallengerName );
; 2899 : 	//	if( pChallenger )
; 2900 : 	//	{	
; 2901 : 	//		pChallenger->StartNoInputDelayTime( 10000 );
; 2902 : 
; 2903 : 	//		pChallenger->SetRoundEndMotion( RM_WIN );	
; 2904 : 
; 2905 : 	//		pChallenger->SetLevel( iChallengerGradeLevel );
; 2906 : 
; 2907 : 	//		FightClubRecord *pChallRecord = FindRecordCharName( kChallengerName );
; 2908 : 	//		if( pChallRecord )
; 2909 : 	//		{
; 2910 : 	//			pChallRecord->iFightWin++;
; 2911 : 	//			pChallRecord->iFightSeqLoseCount = 0;
; 2912 : 	//		}
; 2913 : 	//	}
; 2914 : 
; 2915 : 	//	// 패자
; 2916 : 	//	ioBaseChar *pChamp = m_pCreator->GetBaseChar( kChampionName );
; 2917 : 	//	if( pChamp )
; 2918 : 	//	{
; 2919 : 	//		pChamp->StartNoInputDelayTime( 10000 );
; 2920 : 
; 2921 : 	//		if( pChamp->GetState() != CS_DIE )
; 2922 : 	//			pChamp->SetRoundEndMotion( RM_LOSE );		
; 2923 : 
; 2924 : 	//		pChamp->SetLevel( iChampGradeLevel );
; 2925 : 
; 2926 : 	//		FightClubRecord *pChampRecord = FindRecordCharName( kChampionName );
; 2927 : 	//		if( pChampRecord )
; 2928 : 	//		{
; 2929 : 	//			pChampRecord->iFightLose++;
; 2930 : 	//			pChampRecord->iFightSeqLoseCount++;
; 2931 : 
; 2932 : 	//			if( pChamp->IsOwnerChar() )
; 2933 : 	//			{
; 2934 : 	//				if( pChampRecord->iFightSeqLoseCount > m_iAbuseLoseCount )
; 2935 : 	//				{
; 2936 : 	//					// 매크로 뷰
; 2937 : 	//					pChampRecord->iFightSeqLoseCount = 0;
; 2938 : 
; 2939 : 	//					if( g_BattleRoomMgr.IsBattleRoom() )
; 2940 : 	//					{
; 2941 : 	//						g_MyInfo.SetBattleLockType( BattleLockProblemWnd::LT_MACRO_EXTENSION );
; 2942 : 	//					}
; 2943 : 	//				}
; 2944 : 	//			}
; 2945 : 	//		}
; 2946 : 	//	}		
; 2947 : 	//}
; 2948 : 	//ContributeRoundAllPercent( 0, 0 );	
; 2949 : 	//SetBlindMode( true, false );
; 2950 : }

  00000	c2 04 00	 ret	 4
?OnFightClubResult@ioFightClubMode@@IAEXAAVSP2Packet@@@Z ENDP ; ioFightClubMode::OnFightClubResult
_TEXT	ENDS
PUBLIC	??GD3DXVECTOR3@@QBE?AU0@ABU0@@Z			; D3DXVECTOR3::operator-
; Function compile flags: /Ogsp
; File c:\program files (x86)\microsoft directx sdk (june 2010)\include\d3dx9math.inl
;	COMDAT ??GD3DXVECTOR3@@QBE?AU0@ABU0@@Z
_TEXT	SEGMENT
___$ReturnUdt$ = 8					; size = 4
_v$ = 12						; size = 4
??GD3DXVECTOR3@@QBE?AU0@ABU0@@Z PROC			; D3DXVECTOR3::operator-, COMDAT
; _this$ = ecx

; 386  : {

  00000	55		 push	 ebp
  00001	8b ec		 mov	 ebp, esp

; 387  :     return D3DXVECTOR3(x - v.x, y - v.y, z - v.z);

  00003	8b 55 0c	 mov	 edx, DWORD PTR _v$[ebp]
  00006	f3 0f 10 01	 movss	 xmm0, DWORD PTR [ecx]
  0000a	f3 0f 10 0a	 movss	 xmm1, DWORD PTR [edx]
  0000e	8b 45 08	 mov	 eax, DWORD PTR ___$ReturnUdt$[ebp]
  00011	0f 5a c0	 cvtps2pd xmm0, xmm0
  00014	0f 5a c9	 cvtps2pd xmm1, xmm1
  00017	f2 0f 5c c1	 subsd	 xmm0, xmm1
  0001b	f3 0f 10 4a 04	 movss	 xmm1, DWORD PTR [edx+4]
  00020	66 0f 5a c0	 cvtpd2ps xmm0, xmm0
  00024	f3 0f 11 00	 movss	 DWORD PTR [eax], xmm0
  00028	f3 0f 10 41 04	 movss	 xmm0, DWORD PTR [ecx+4]
  0002d	0f 5a c0	 cvtps2pd xmm0, xmm0
  00030	0f 5a c9	 cvtps2pd xmm1, xmm1
  00033	f2 0f 5c c1	 subsd	 xmm0, xmm1
  00037	f3 0f 10 4a 08	 movss	 xmm1, DWORD PTR [edx+8]
  0003c	66 0f 5a c0	 cvtpd2ps xmm0, xmm0
  00040	f3 0f 11 40 04	 movss	 DWORD PTR [eax+4], xmm0
  00045	f3 0f 10 41 08	 movss	 xmm0, DWORD PTR [ecx+8]
  0004a	0f 5a c0	 cvtps2pd xmm0, xmm0
  0004d	0f 5a c9	 cvtps2pd xmm1, xmm1
  00050	f2 0f 5c c1	 subsd	 xmm0, xmm1
  00054	66 0f 5a c0	 cvtpd2ps xmm0, xmm0
  00058	f3 0f 11 40 08	 movss	 DWORD PTR [eax+8], xmm0

; 388  : }

  0005d	5d		 pop	 ebp
  0005e	c2 08 00	 ret	 8
??GD3DXVECTOR3@@QBE?AU0@ABU0@@Z ENDP			; D3DXVECTOR3::operator-
_TEXT	ENDS
PUBLIC	??DD3DXVECTOR3@@QBE?AU0@M@Z			; D3DXVECTOR3::operator*
; Function compile flags: /Ogsp
;	COMDAT ??DD3DXVECTOR3@@QBE?AU0@M@Z
_TEXT	SEGMENT
___$ReturnUdt$ = 8					; size = 4
_f$ = 12						; size = 4
??DD3DXVECTOR3@@QBE?AU0@M@Z PROC			; D3DXVECTOR3::operator*, COMDAT
; _this$ = ecx

; 392  : {

  00000	55		 push	 ebp
  00001	8b ec		 mov	 ebp, esp

; 393  :     return D3DXVECTOR3(x * f, y * f, z * f);

  00003	f3 0f 10 4d 0c	 movss	 xmm1, DWORD PTR _f$[ebp]
  00008	f3 0f 10 01	 movss	 xmm0, DWORD PTR [ecx]
  0000c	8b 45 08	 mov	 eax, DWORD PTR ___$ReturnUdt$[ebp]
  0000f	0f 5a c0	 cvtps2pd xmm0, xmm0
  00012	0f 5a c9	 cvtps2pd xmm1, xmm1
  00015	f2 0f 59 c1	 mulsd	 xmm0, xmm1
  00019	f3 0f 10 4d 0c	 movss	 xmm1, DWORD PTR _f$[ebp]
  0001e	66 0f 5a c0	 cvtpd2ps xmm0, xmm0
  00022	f3 0f 11 00	 movss	 DWORD PTR [eax], xmm0
  00026	f3 0f 10 41 04	 movss	 xmm0, DWORD PTR [ecx+4]
  0002b	0f 5a c0	 cvtps2pd xmm0, xmm0
  0002e	0f 5a c9	 cvtps2pd xmm1, xmm1
  00031	f2 0f 59 c1	 mulsd	 xmm0, xmm1
  00035	f3 0f 10 4d 0c	 movss	 xmm1, DWORD PTR _f$[ebp]
  0003a	66 0f 5a c0	 cvtpd2ps xmm0, xmm0
  0003e	f3 0f 11 40 04	 movss	 DWORD PTR [eax+4], xmm0
  00043	f3 0f 10 41 08	 movss	 xmm0, DWORD PTR [ecx+8]
  00048	0f 5a c0	 cvtps2pd xmm0, xmm0
  0004b	0f 5a c9	 cvtps2pd xmm1, xmm1
  0004e	f2 0f 59 c1	 mulsd	 xmm0, xmm1
  00052	66 0f 5a c0	 cvtpd2ps xmm0, xmm0
  00056	f3 0f 11 40 08	 movss	 DWORD PTR [eax+8], xmm0

; 394  : }

  0005b	5d		 pop	 ebp
  0005c	c2 08 00	 ret	 8
??DD3DXVECTOR3@@QBE?AU0@M@Z ENDP			; D3DXVECTOR3::operator*
_TEXT	ENDS
PUBLIC	??8D3DXVECTOR3@@QBEHABU0@@Z			; D3DXVECTOR3::operator==
; Function compile flags: /Ogsp
;	COMDAT ??8D3DXVECTOR3@@QBEHABU0@@Z
_TEXT	SEGMENT
_v$ = 8							; size = 4
??8D3DXVECTOR3@@QBEHABU0@@Z PROC			; D3DXVECTOR3::operator==, COMDAT
; _this$ = ecx

; 413  : {

  00000	55		 push	 ebp
  00001	8b ec		 mov	 ebp, esp

; 414  :     return x == v.x && y == v.y && z == v.z;

  00003	8b 55 08	 mov	 edx, DWORD PTR _v$[ebp]
  00006	f3 0f 10 01	 movss	 xmm0, DWORD PTR [ecx]
  0000a	f3 0f 10 0a	 movss	 xmm1, DWORD PTR [edx]
  0000e	0f 5a c0	 cvtps2pd xmm0, xmm0
  00011	0f 5a c9	 cvtps2pd xmm1, xmm1
  00014	66 0f 2e c1	 ucomisd xmm0, xmm1
  00018	9f		 lahf
  00019	f6 c4 44	 test	 ah, 68			; 00000044H
  0001c	7a 39		 jp	 SHORT $LN3@operator
  0001e	f3 0f 10 41 04	 movss	 xmm0, DWORD PTR [ecx+4]
  00023	f3 0f 10 4a 04	 movss	 xmm1, DWORD PTR [edx+4]
  00028	0f 5a c0	 cvtps2pd xmm0, xmm0
  0002b	0f 5a c9	 cvtps2pd xmm1, xmm1
  0002e	66 0f 2e c1	 ucomisd xmm0, xmm1
  00032	9f		 lahf
  00033	f6 c4 44	 test	 ah, 68			; 00000044H
  00036	7a 1f		 jp	 SHORT $LN3@operator
  00038	f3 0f 10 41 08	 movss	 xmm0, DWORD PTR [ecx+8]
  0003d	f3 0f 10 4a 08	 movss	 xmm1, DWORD PTR [edx+8]
  00042	0f 5a c0	 cvtps2pd xmm0, xmm0
  00045	0f 5a c9	 cvtps2pd xmm1, xmm1
  00048	66 0f 2e c1	 ucomisd xmm0, xmm1
  0004c	9f		 lahf
  0004d	f6 c4 44	 test	 ah, 68			; 00000044H
  00050	7a 05		 jp	 SHORT $LN3@operator
  00052	33 c0		 xor	 eax, eax
  00054	40		 inc	 eax
  00055	eb 02		 jmp	 SHORT $LN4@operator
$LN3@operator:
  00057	33 c0		 xor	 eax, eax
$LN4@operator:

; 415  : }

  00059	5d		 pop	 ebp
  0005a	c2 04 00	 ret	 4
??8D3DXVECTOR3@@QBEHABU0@@Z ENDP			; D3DXVECTOR3::operator==
_TEXT	ENDS
PUBLIC	??1FightNPCRecord@@QAE@XZ			; FightNPCRecord::~FightNPCRecord
;	COMDAT xdata$x
xdata$x	SEGMENT
__unwindtable$??1FightNPCRecord@@QAE@XZ DD 0ffffffffH
	DD	FLAT:__unwindfunclet$??1FightNPCRecord@@QAE@XZ$0
__ehfuncinfo$??1FightNPCRecord@@QAE@XZ DD 019930522H
	DD	01H
	DD	FLAT:__unwindtable$??1FightNPCRecord@@QAE@XZ
	DD	2 DUP(00H)
	DD	2 DUP(00H)
	DD	00H
	DD	01H
; Function compile flags: /Ogsp
xdata$x	ENDS
;	COMDAT ??1FightNPCRecord@@QAE@XZ
_TEXT	SEGMENT
_this$ = -16						; size = 4
__$EHRec$ = -12						; size = 12
??1FightNPCRecord@@QAE@XZ PROC				; FightNPCRecord::~FightNPCRecord, COMDAT
; _this$ = ecx
  00000	6a 04		 push	 4
  00002	b8 00 00 00 00	 mov	 eax, __ehhandler$??1FightNPCRecord@@QAE@XZ
  00007	e8 00 00 00 00	 call	 __EH_prolog3
  0000c	8b f9		 mov	 edi, ecx
  0000e	89 7d f0	 mov	 DWORD PTR _this$[ebp], edi
  00011	8b 35 00 00 00
	00		 mov	 esi, DWORD PTR __imp_??1ioHashString@@QAE@XZ
  00017	83 65 fc 00	 and	 DWORD PTR __$EHRec$[ebp+8], 0
  0001b	8d 4f 18	 lea	 ecx, DWORD PTR [edi+24]
  0001e	ff d6		 call	 esi
  00020	83 4d fc ff	 or	 DWORD PTR __$EHRec$[ebp+8], -1
  00024	8d 4f 08	 lea	 ecx, DWORD PTR [edi+8]
  00027	ff d6		 call	 esi
  00029	e8 00 00 00 00	 call	 __EH_epilog3
  0002e	c3		 ret	 0
_TEXT	ENDS
;	COMDAT text$x
text$x	SEGMENT
__unwindfunclet$??1FightNPCRecord@@QAE@XZ$0:
  00000	8b 4d f0	 mov	 ecx, DWORD PTR _this$[ebp]
  00003	83 c1 08	 add	 ecx, 8
  00006	ff 25 00 00 00
	00		 jmp	 DWORD PTR __imp_??1ioHashString@@QAE@XZ
__ehhandler$??1FightNPCRecord@@QAE@XZ:
  0000c	8b 54 24 08	 mov	 edx, DWORD PTR [esp+8]
  00010	8d 42 0c	 lea	 eax, DWORD PTR [edx+12]
  00013	8b 4a ec	 mov	 ecx, DWORD PTR [edx-20]
  00016	33 c8		 xor	 ecx, eax
  00018	e8 00 00 00 00	 call	 @__security_check_cookie@4
  0001d	b8 00 00 00 00	 mov	 eax, OFFSET __ehfuncinfo$??1FightNPCRecord@@QAE@XZ
  00022	e9 00 00 00 00	 jmp	 ___CxxFrameHandler3
text$x	ENDS
??1FightNPCRecord@@QAE@XZ ENDP				; FightNPCRecord::~FightNPCRecord
PUBLIC	??_R0?AVFightClubChallengerWnd@@@8		; FightClubChallengerWnd `RTTI Type Descriptor'
PUBLIC	?OnFightClubNewChallenger@ioFightClubMode@@IAEXAAVSP2Packet@@@Z ; ioFightClubMode::OnFightClubNewChallenger
EXTRN	?StartScreenBlind@ioPlayStage@@QAEXW4ScreenBlindType@@PBUScreenBlindTime@@_N@Z:PROC ; ioPlayStage::StartScreenBlind
EXTRN	__imp_?HideWnd@ioGUIManager@@QAEXK_N@Z:PROC
EXTRN	?SetChallenger@FightClubChallengerWnd@@QAEXXZ:PROC ; FightClubChallengerWnd::SetChallenger
EXTRN	??5SP2Packet@@QAEAAV0@AAVioHashString@@@Z:PROC	; SP2Packet::operator>>
;	COMDAT ??_R0?AVFightClubChallengerWnd@@@8
; File d:\lost saga for developer\youtube\tutorial\source\src\lsclient\iofightclubmode.cpp
_DATA	SEGMENT
??_R0?AVFightClubChallengerWnd@@@8 DD FLAT:??_7type_info@@6B@ ; FightClubChallengerWnd `RTTI Type Descriptor'
	DD	00H
	DB	'.?AVFightClubChallengerWnd@@', 00H
; Function compile flags: /Ogsp
_DATA	ENDS
;	COMDAT ?OnFightClubNewChallenger@ioFightClubMode@@IAEXAAVSP2Packet@@@Z
_TEXT	SEGMENT
_rkPacket$ = 8						; size = 4
?OnFightClubNewChallenger@ioFightClubMode@@IAEXAAVSP2Packet@@@Z PROC ; ioFightClubMode::OnFightClubNewChallenger, COMDAT
; _this$ = ecx

; 3329 : {

  00000	55		 push	 ebp
  00001	8b ec		 mov	 ebp, esp
  00003	56		 push	 esi
  00004	8b f1		 mov	 esi, ecx

; 3330 : 	rkPacket >> m_NewChallengerName;

  00006	8b 4d 08	 mov	 ecx, DWORD PTR _rkPacket$[ebp]
  00009	57		 push	 edi
  0000a	8d 86 a4 05 00
	00		 lea	 eax, DWORD PTR [esi+1444]
  00010	50		 push	 eax
  00011	e8 00 00 00 00	 call	 ??5SP2Packet@@QAEAAV0@AAVioHashString@@@Z ; SP2Packet::operator>>

; 3331 : 
; 3332 : 	FightClubChallengerWnd *pChallengerWnd = dynamic_cast< FightClubChallengerWnd * >( g_GUIMgr.FindWnd( FIGHTCLUB_CHALLENGER_WND ) );

  00016	33 ff		 xor	 edi, edi
  00018	57		 push	 edi
  00019	68 00 00 00 00	 push	 OFFSET ??_R0?AVFightClubChallengerWnd@@@8
  0001e	68 00 00 00 00	 push	 OFFSET ??_R0?AVioWnd@@@8
  00023	57		 push	 edi
  00024	68 d5 13 00 00	 push	 5077			; 000013d5H
  00029	e8 00 00 00 00	 call	 ?GetSingleton@ioSP2GUIManager@@SAAAV1@XZ ; ioSP2GUIManager::GetSingleton
  0002e	8b c8		 mov	 ecx, eax
  00030	ff 15 00 00 00
	00		 call	 DWORD PTR __imp_?FindWnd@ioGUIManager@@QAEPAVioWnd@@K@Z
  00036	50		 push	 eax
  00037	e8 00 00 00 00	 call	 ___RTDynamicCast
  0003c	83 c4 14	 add	 esp, 20			; 00000014H

; 3333 : 	if( pChallengerWnd )

  0003f	3b c7		 cmp	 eax, edi
  00041	74 07		 je	 SHORT $LN1@OnFightClu

; 3334 : 	{
; 3335 : 		pChallengerWnd->SetChallenger();

  00043	8b c8		 mov	 ecx, eax
  00045	e8 00 00 00 00	 call	 ?SetChallenger@FightClubChallengerWnd@@QAEXXZ ; FightClubChallengerWnd::SetChallenger
$LN1@OnFightClu:

; 3336 : 	}
; 3337 : 
; 3338 : 	g_GUIMgr.HideWnd( FIGHTCLUB_TIME_GAUGE_WND );

  0004a	57		 push	 edi
  0004b	68 d1 13 00 00	 push	 5073			; 000013d1H
  00050	e8 00 00 00 00	 call	 ?GetSingleton@ioSP2GUIManager@@SAAAV1@XZ ; ioSP2GUIManager::GetSingleton
  00055	8b c8		 mov	 ecx, eax
  00057	ff 15 00 00 00
	00		 call	 DWORD PTR __imp_?HideWnd@ioGUIManager@@QAEXK_N@Z

; 3339 : 
; 3340 : 	SetModeState( MS_NEW_CHALLENGER );

  0005d	8b 06		 mov	 eax, DWORD PTR [esi]
  0005f	6a 02		 push	 2
  00061	8b ce		 mov	 ecx, esi
  00063	ff 90 ac 01 00
	00		 call	 DWORD PTR [eax+428]

; 3341 : 	
; 3342 : 	m_dwNewChallengerTime = FRAMEGETTIME();

  00069	ff 15 00 00 00
	00		 call	 DWORD PTR __imp_?GetSingleton@ioFrameTimer@@SAAAV1@XZ
  0006f	8b c8		 mov	 ecx, eax
  00071	ff 15 00 00 00
	00		 call	 DWORD PTR __imp_?GetLoopSec@ioFrameTimer@@QBEKXZ

; 3343 : 	m_pCreator->StartScreenBlind( SBT_FIXED_BLIND, NULL, 0 );

  00077	8b 4e 34	 mov	 ecx, DWORD PTR [esi+52]
  0007a	57		 push	 edi
  0007b	57		 push	 edi
  0007c	6a 07		 push	 7
  0007e	89 86 e4 05 00
	00		 mov	 DWORD PTR [esi+1508], eax
  00084	e8 00 00 00 00	 call	 ?StartScreenBlind@ioPlayStage@@QAEXW4ScreenBlindType@@PBUScreenBlindTime@@_N@Z ; ioPlayStage::StartScreenBlind
  00089	5f		 pop	 edi
  0008a	5e		 pop	 esi

; 3344 : }

  0008b	5d		 pop	 ebp
  0008c	c2 04 00	 ret	 4
?OnFightClubNewChallenger@ioFightClubMode@@IAEXAAVSP2Packet@@@Z ENDP ; ioFightClubMode::OnFightClubNewChallenger
_TEXT	ENDS
PUBLIC	??_R0?AVFightClubFightNPCContinueWnd@@@8	; FightClubFightNPCContinueWnd `RTTI Type Descriptor'
PUBLIC	?OnFightClubContinue@ioFightClubMode@@IAEXAAVSP2Packet@@@Z ; ioFightClubMode::OnFightClubContinue
EXTRN	?SetContinue@FightClubFightNPCContinueWnd@@QAEXHABVioHashString@@@Z:PROC ; FightClubFightNPCContinueWnd::SetContinue
;	COMDAT ??_R0?AVFightClubFightNPCContinueWnd@@@8
_DATA	SEGMENT
??_R0?AVFightClubFightNPCContinueWnd@@@8 DD FLAT:??_7type_info@@6B@ ; FightClubFightNPCContinueWnd `RTTI Type Descriptor'
	DD	00H
	DB	'.?AVFightClubFightNPCContinueWnd@@', 00H
; Function compile flags: /Ogsp
_DATA	ENDS
;	COMDAT ?OnFightClubContinue@ioFightClubMode@@IAEXAAVSP2Packet@@@Z
_TEXT	SEGMENT
_rkPacket$ = 8						; size = 4
?OnFightClubContinue@ioFightClubMode@@IAEXAAVSP2Packet@@@Z PROC ; ioFightClubMode::OnFightClubContinue, COMDAT
; _this$ = ecx

; 3347 : {

  00000	53		 push	 ebx
  00001	56		 push	 esi
  00002	57		 push	 edi

; 3348 : 	g_GUIMgr.HideWnd( FIGHTCLUB_TIME_GAUGE_WND );

  00003	33 db		 xor	 ebx, ebx
  00005	53		 push	 ebx
  00006	68 d1 13 00 00	 push	 5073			; 000013d1H
  0000b	8b f1		 mov	 esi, ecx
  0000d	e8 00 00 00 00	 call	 ?GetSingleton@ioSP2GUIManager@@SAAAV1@XZ ; ioSP2GUIManager::GetSingleton
  00012	8b 3d 00 00 00
	00		 mov	 edi, DWORD PTR __imp_?HideWnd@ioGUIManager@@QAEXK_N@Z
  00018	8b c8		 mov	 ecx, eax
  0001a	ff d7		 call	 edi

; 3349 : 	g_GUIMgr.HideWnd( FIGHTCLUB_ROUND_END_WND );

  0001c	53		 push	 ebx
  0001d	68 d3 13 00 00	 push	 5075			; 000013d3H
  00022	e8 00 00 00 00	 call	 ?GetSingleton@ioSP2GUIManager@@SAAAV1@XZ ; ioSP2GUIManager::GetSingleton
  00027	8b c8		 mov	 ecx, eax
  00029	ff d7		 call	 edi

; 3350 : 
; 3351 : 	SetModeState( MS_NPC_CONTINUE );

  0002b	8b 06		 mov	 eax, DWORD PTR [esi]
  0002d	6a 03		 push	 3
  0002f	8b ce		 mov	 ecx, esi
  00031	ff 90 ac 01 00
	00		 call	 DWORD PTR [eax+428]

; 3352 : 
; 3353 : 	// 시간 체크할 UI 처리...
; 3354 : 	FightClubFightNPCContinueWnd *pContinueWnd = dynamic_cast< FightClubFightNPCContinueWnd * >( g_GUIMgr.FindWnd( FIGHTCLUB_CONTINUE_WND ) );

  00037	53		 push	 ebx
  00038	68 00 00 00 00	 push	 OFFSET ??_R0?AVFightClubFightNPCContinueWnd@@@8
  0003d	68 00 00 00 00	 push	 OFFSET ??_R0?AVioWnd@@@8
  00042	53		 push	 ebx
  00043	68 d6 13 00 00	 push	 5078			; 000013d6H
  00048	e8 00 00 00 00	 call	 ?GetSingleton@ioSP2GUIManager@@SAAAV1@XZ ; ioSP2GUIManager::GetSingleton
  0004d	8b c8		 mov	 ecx, eax
  0004f	ff 15 00 00 00
	00		 call	 DWORD PTR __imp_?FindWnd@ioGUIManager@@QAEPAVioWnd@@K@Z
  00055	50		 push	 eax
  00056	e8 00 00 00 00	 call	 ___RTDynamicCast
  0005b	8b f8		 mov	 edi, eax
  0005d	83 c4 14	 add	 esp, 20			; 00000014H

; 3355 : 	if( pContinueWnd )

  00060	3b fb		 cmp	 edi, ebx
  00062	74 21		 je	 SHORT $LN1@OnFightClu@2

; 3356 : 	{
; 3357 : 		pContinueWnd->SetContinue( m_iCurFightNPCStage, GetChampionName() );

  00064	8b ce		 mov	 ecx, esi
  00066	e8 00 00 00 00	 call	 ?GetChampionName@ioFightClubMode@@QAEABVioHashString@@XZ ; ioFightClubMode::GetChampionName
  0006b	50		 push	 eax
  0006c	ff b6 90 05 00
	00		 push	 DWORD PTR [esi+1424]
  00072	8b cf		 mov	 ecx, edi
  00074	e8 00 00 00 00	 call	 ?SetContinue@FightClubFightNPCContinueWnd@@QAEXHABVioHashString@@@Z ; FightClubFightNPCContinueWnd::SetContinue

; 3358 : 
; 3359 : 		m_pCreator->StartScreenBlind( SBT_FIXED_BLIND, NULL, 0 );

  00079	8b 4e 34	 mov	 ecx, DWORD PTR [esi+52]
  0007c	53		 push	 ebx
  0007d	53		 push	 ebx
  0007e	6a 07		 push	 7
  00080	e8 00 00 00 00	 call	 ?StartScreenBlind@ioPlayStage@@QAEXW4ScreenBlindType@@PBUScreenBlindTime@@_N@Z ; ioPlayStage::StartScreenBlind
$LN1@OnFightClu@2:

; 3360 : 	}
; 3361 : }

  00085	5f		 pop	 edi
  00086	5e		 pop	 esi
  00087	5b		 pop	 ebx
  00088	c2 04 00	 ret	 4
?OnFightClubContinue@ioFightClubMode@@IAEXAAVSP2Packet@@@Z ENDP ; ioFightClubMode::OnFightClubContinue
_TEXT	ENDS
PUBLIC	?ProcessFightNPCContinue@ioFightClubMode@@IAEXXZ ; ioFightClubMode::ProcessFightNPCContinue
; Function compile flags: /Ogsp
;	COMDAT ?ProcessFightNPCContinue@ioFightClubMode@@IAEXXZ
_TEXT	SEGMENT
?ProcessFightNPCContinue@ioFightClubMode@@IAEXXZ PROC	; ioFightClubMode::ProcessFightNPCContinue, COMDAT
; _this$ = ecx

; 3377 : }

  00000	c3		 ret	 0
?ProcessFightNPCContinue@ioFightClubMode@@IAEXXZ ENDP	; ioFightClubMode::ProcessFightNPCContinue
_TEXT	ENDS
PUBLIC	??A?$vector@VioHashString@@V?$allocator@VioHashString@@@std@@@std@@QAEAAVioHashString@@I@Z ; std::vector<ioHashString,std::allocator<ioHashString> >::operator[]
; Function compile flags: /Ogsp
; File c:\program files (x86)\microsoft visual studio 10.0\vc\include\vector
;	COMDAT ??A?$vector@VioHashString@@V?$allocator@VioHashString@@@std@@@std@@QAEAAVioHashString@@I@Z
_TEXT	SEGMENT
__Pos$ = 8						; size = 4
??A?$vector@VioHashString@@V?$allocator@VioHashString@@@std@@@std@@QAEAAVioHashString@@I@Z PROC ; std::vector<ioHashString,std::allocator<ioHashString> >::operator[], COMDAT
; _this$ = ecx

; 928  : 		{	// subscript mutable sequence

  00000	55		 push	 ebp
  00001	8b ec		 mov	 ebp, esp

; 929  :  #if _ITERATOR_DEBUG_LEVEL == 2
; 930  : 		if (size() <= _Pos)
; 931  : 			{	// report error
; 932  : 			_DEBUG_ERROR("vector subscript out of range");
; 933  : 			_SCL_SECURE_OUT_OF_RANGE;
; 934  : 			}
; 935  : 
; 936  :  #elif _ITERATOR_DEBUG_LEVEL == 1
; 937  : 		_SCL_SECURE_VALIDATE_RANGE(_Pos < size());
; 938  :  #endif /* _ITERATOR_DEBUG_LEVEL */
; 939  : 
; 940  : 		return (*(this->_Myfirst + _Pos));

  00003	8b 45 08	 mov	 eax, DWORD PTR __Pos$[ebp]
  00006	c1 e0 04	 shl	 eax, 4
  00009	03 01		 add	 eax, DWORD PTR [ecx]

; 941  : 		}

  0000b	5d		 pop	 ebp
  0000c	c2 04 00	 ret	 4
??A?$vector@VioHashString@@V?$allocator@VioHashString@@@std@@@std@@QAEAAVioHashString@@I@Z ENDP ; std::vector<ioHashString,std::allocator<ioHashString> >::operator[]
_TEXT	ENDS
PUBLIC	?size@?$vector@UD3DXVECTOR3@@V?$allocator@UD3DXVECTOR3@@@std@@@std@@QBEIXZ ; std::vector<D3DXVECTOR3,std::allocator<D3DXVECTOR3> >::size
; Function compile flags: /Ogsp
;	COMDAT ?size@?$vector@UD3DXVECTOR3@@V?$allocator@UD3DXVECTOR3@@@std@@@std@@QBEIXZ
_TEXT	SEGMENT
?size@?$vector@UD3DXVECTOR3@@V?$allocator@UD3DXVECTOR3@@@std@@@std@@QBEIXZ PROC ; std::vector<D3DXVECTOR3,std::allocator<D3DXVECTOR3> >::size, COMDAT
; _this$ = ecx

; 879  : 		return (this->_Mylast - this->_Myfirst);

  00000	8b 41 04	 mov	 eax, DWORD PTR [ecx+4]
  00003	2b 01		 sub	 eax, DWORD PTR [ecx]
  00005	6a 0c		 push	 12			; 0000000cH
  00007	99		 cdq
  00008	59		 pop	 ecx
  00009	f7 f9		 idiv	 ecx

; 880  : 		}

  0000b	c3		 ret	 0
?size@?$vector@UD3DXVECTOR3@@V?$allocator@UD3DXVECTOR3@@@std@@@std@@QBEIXZ ENDP ; std::vector<D3DXVECTOR3,std::allocator<D3DXVECTOR3> >::size
_TEXT	ENDS
PUBLIC	?empty@?$vector@UD3DXVECTOR3@@V?$allocator@UD3DXVECTOR3@@@std@@@std@@QBE_NXZ ; std::vector<D3DXVECTOR3,std::allocator<D3DXVECTOR3> >::empty
; Function compile flags: /Ogsp
;	COMDAT ?empty@?$vector@UD3DXVECTOR3@@V?$allocator@UD3DXVECTOR3@@@std@@@std@@QBE_NXZ
_TEXT	SEGMENT
?empty@?$vector@UD3DXVECTOR3@@V?$allocator@UD3DXVECTOR3@@@std@@@std@@QBE_NXZ PROC ; std::vector<D3DXVECTOR3,std::allocator<D3DXVECTOR3> >::empty, COMDAT
; _this$ = ecx

; 889  : 		return (this->_Myfirst == this->_Mylast);

  00000	8b 01		 mov	 eax, DWORD PTR [ecx]
  00002	2b 41 04	 sub	 eax, DWORD PTR [ecx+4]
  00005	f7 d8		 neg	 eax
  00007	1b c0		 sbb	 eax, eax
  00009	40		 inc	 eax

; 890  : 		}

  0000a	c3		 ret	 0
?empty@?$vector@UD3DXVECTOR3@@V?$allocator@UD3DXVECTOR3@@@std@@@std@@QBE_NXZ ENDP ; std::vector<D3DXVECTOR3,std::allocator<D3DXVECTOR3> >::empty
_TEXT	ENDS
PUBLIC	??A?$vector@UD3DXVECTOR3@@V?$allocator@UD3DXVECTOR3@@@std@@@std@@QAEAAUD3DXVECTOR3@@I@Z ; std::vector<D3DXVECTOR3,std::allocator<D3DXVECTOR3> >::operator[]
; Function compile flags: /Ogsp
;	COMDAT ??A?$vector@UD3DXVECTOR3@@V?$allocator@UD3DXVECTOR3@@@std@@@std@@QAEAAUD3DXVECTOR3@@I@Z
_TEXT	SEGMENT
__Pos$ = 8						; size = 4
??A?$vector@UD3DXVECTOR3@@V?$allocator@UD3DXVECTOR3@@@std@@@std@@QAEAAUD3DXVECTOR3@@I@Z PROC ; std::vector<D3DXVECTOR3,std::allocator<D3DXVECTOR3> >::operator[], COMDAT
; _this$ = ecx

; 928  : 		{	// subscript mutable sequence

  00000	55		 push	 ebp
  00001	8b ec		 mov	 ebp, esp

; 929  :  #if _ITERATOR_DEBUG_LEVEL == 2
; 930  : 		if (size() <= _Pos)
; 931  : 			{	// report error
; 932  : 			_DEBUG_ERROR("vector subscript out of range");
; 933  : 			_SCL_SECURE_OUT_OF_RANGE;
; 934  : 			}
; 935  : 
; 936  :  #elif _ITERATOR_DEBUG_LEVEL == 1
; 937  : 		_SCL_SECURE_VALIDATE_RANGE(_Pos < size());
; 938  :  #endif /* _ITERATOR_DEBUG_LEVEL */
; 939  : 
; 940  : 		return (*(this->_Myfirst + _Pos));

  00003	8b 45 08	 mov	 eax, DWORD PTR __Pos$[ebp]
  00006	6b c0 0c	 imul	 eax, 12			; 0000000cH
  00009	03 01		 add	 eax, DWORD PTR [ecx]

; 941  : 		}

  0000b	5d		 pop	 ebp
  0000c	c2 04 00	 ret	 4
??A?$vector@UD3DXVECTOR3@@V?$allocator@UD3DXVECTOR3@@@std@@@std@@QAEAAUD3DXVECTOR3@@I@Z ENDP ; std::vector<D3DXVECTOR3,std::allocator<D3DXVECTOR3> >::operator[]
_TEXT	ENDS
PUBLIC	?size@?$vector@URoundInfo@@V?$allocator@URoundInfo@@@std@@@std@@QBEIXZ ; std::vector<RoundInfo,std::allocator<RoundInfo> >::size
; Function compile flags: /Ogsp
;	COMDAT ?size@?$vector@URoundInfo@@V?$allocator@URoundInfo@@@std@@@std@@QBEIXZ
_TEXT	SEGMENT
?size@?$vector@URoundInfo@@V?$allocator@URoundInfo@@@std@@@std@@QBEIXZ PROC ; std::vector<RoundInfo,std::allocator<RoundInfo> >::size, COMDAT
; _this$ = ecx

; 879  : 		return (this->_Mylast - this->_Myfirst);

  00000	8b 41 04	 mov	 eax, DWORD PTR [ecx+4]
  00003	2b 01		 sub	 eax, DWORD PTR [ecx]
  00005	c1 f8 07	 sar	 eax, 7

; 880  : 		}

  00008	c3		 ret	 0
?size@?$vector@URoundInfo@@V?$allocator@URoundInfo@@@std@@@std@@QBEIXZ ENDP ; std::vector<RoundInfo,std::allocator<RoundInfo> >::size
_TEXT	ENDS
PUBLIC	??A?$vector@URoundInfo@@V?$allocator@URoundInfo@@@std@@@std@@QAEAAURoundInfo@@I@Z ; std::vector<RoundInfo,std::allocator<RoundInfo> >::operator[]
; Function compile flags: /Ogsp
;	COMDAT ??A?$vector@URoundInfo@@V?$allocator@URoundInfo@@@std@@@std@@QAEAAURoundInfo@@I@Z
_TEXT	SEGMENT
__Pos$ = 8						; size = 4
??A?$vector@URoundInfo@@V?$allocator@URoundInfo@@@std@@@std@@QAEAAURoundInfo@@I@Z PROC ; std::vector<RoundInfo,std::allocator<RoundInfo> >::operator[], COMDAT
; _this$ = ecx

; 928  : 		{	// subscript mutable sequence

  00000	55		 push	 ebp
  00001	8b ec		 mov	 ebp, esp

; 929  :  #if _ITERATOR_DEBUG_LEVEL == 2
; 930  : 		if (size() <= _Pos)
; 931  : 			{	// report error
; 932  : 			_DEBUG_ERROR("vector subscript out of range");
; 933  : 			_SCL_SECURE_OUT_OF_RANGE;
; 934  : 			}
; 935  : 
; 936  :  #elif _ITERATOR_DEBUG_LEVEL == 1
; 937  : 		_SCL_SECURE_VALIDATE_RANGE(_Pos < size());
; 938  :  #endif /* _ITERATOR_DEBUG_LEVEL */
; 939  : 
; 940  : 		return (*(this->_Myfirst + _Pos));

  00003	8b 45 08	 mov	 eax, DWORD PTR __Pos$[ebp]
  00006	c1 e0 07	 shl	 eax, 7
  00009	03 01		 add	 eax, DWORD PTR [ecx]

; 941  : 		}

  0000b	5d		 pop	 ebp
  0000c	c2 04 00	 ret	 4
??A?$vector@URoundInfo@@V?$allocator@URoundInfo@@@std@@@std@@QAEAAURoundInfo@@I@Z ENDP ; std::vector<RoundInfo,std::allocator<RoundInfo> >::operator[]
_TEXT	ENDS
PUBLIC	?size@?$vector@UFightClubRecord@@V?$allocator@UFightClubRecord@@@std@@@std@@QBEIXZ ; std::vector<FightClubRecord,std::allocator<FightClubRecord> >::size
; Function compile flags: /Ogsp
;	COMDAT ?size@?$vector@UFightClubRecord@@V?$allocator@UFightClubRecord@@@std@@@std@@QBEIXZ
_TEXT	SEGMENT
?size@?$vector@UFightClubRecord@@V?$allocator@UFightClubRecord@@@std@@@std@@QBEIXZ PROC ; std::vector<FightClubRecord,std::allocator<FightClubRecord> >::size, COMDAT
; _this$ = ecx

; 879  : 		return (this->_Mylast - this->_Myfirst);

  00000	8b 41 04	 mov	 eax, DWORD PTR [ecx+4]
  00003	2b 01		 sub	 eax, DWORD PTR [ecx]
  00005	b9 e8 00 00 00	 mov	 ecx, 232		; 000000e8H
  0000a	99		 cdq
  0000b	f7 f9		 idiv	 ecx

; 880  : 		}

  0000d	c3		 ret	 0
?size@?$vector@UFightClubRecord@@V?$allocator@UFightClubRecord@@@std@@@std@@QBEIXZ ENDP ; std::vector<FightClubRecord,std::allocator<FightClubRecord> >::size
_TEXT	ENDS
PUBLIC	??A?$vector@UFightClubRecord@@V?$allocator@UFightClubRecord@@@std@@@std@@QAEAAUFightClubRecord@@I@Z ; std::vector<FightClubRecord,std::allocator<FightClubRecord> >::operator[]
; Function compile flags: /Ogsp
;	COMDAT ??A?$vector@UFightClubRecord@@V?$allocator@UFightClubRecord@@@std@@@std@@QAEAAUFightClubRecord@@I@Z
_TEXT	SEGMENT
__Pos$ = 8						; size = 4
??A?$vector@UFightClubRecord@@V?$allocator@UFightClubRecord@@@std@@@std@@QAEAAUFightClubRecord@@I@Z PROC ; std::vector<FightClubRecord,std::allocator<FightClubRecord> >::operator[], COMDAT
; _this$ = ecx

; 928  : 		{	// subscript mutable sequence

  00000	55		 push	 ebp
  00001	8b ec		 mov	 ebp, esp

; 929  :  #if _ITERATOR_DEBUG_LEVEL == 2
; 930  : 		if (size() <= _Pos)
; 931  : 			{	// report error
; 932  : 			_DEBUG_ERROR("vector subscript out of range");
; 933  : 			_SCL_SECURE_OUT_OF_RANGE;
; 934  : 			}
; 935  : 
; 936  :  #elif _ITERATOR_DEBUG_LEVEL == 1
; 937  : 		_SCL_SECURE_VALIDATE_RANGE(_Pos < size());
; 938  :  #endif /* _ITERATOR_DEBUG_LEVEL */
; 939  : 
; 940  : 		return (*(this->_Myfirst + _Pos));

  00003	8b 45 08	 mov	 eax, DWORD PTR __Pos$[ebp]
  00006	69 c0 e8 00 00
	00		 imul	 eax, 232		; 000000e8H
  0000c	03 01		 add	 eax, DWORD PTR [ecx]

; 941  : 		}

  0000e	5d		 pop	 ebp
  0000f	c2 04 00	 ret	 4
??A?$vector@UFightClubRecord@@V?$allocator@UFightClubRecord@@@std@@@std@@QAEAAUFightClubRecord@@I@Z ENDP ; std::vector<FightClubRecord,std::allocator<FightClubRecord> >::operator[]
_TEXT	ENDS
PUBLIC	?size@?$vector@UFightNPCRecord@@V?$allocator@UFightNPCRecord@@@std@@@std@@QBEIXZ ; std::vector<FightNPCRecord,std::allocator<FightNPCRecord> >::size
; Function compile flags: /Ogsp
;	COMDAT ?size@?$vector@UFightNPCRecord@@V?$allocator@UFightNPCRecord@@@std@@@std@@QBEIXZ
_TEXT	SEGMENT
?size@?$vector@UFightNPCRecord@@V?$allocator@UFightNPCRecord@@@std@@@std@@QBEIXZ PROC ; std::vector<FightNPCRecord,std::allocator<FightNPCRecord> >::size, COMDAT
; _this$ = ecx

; 879  : 		return (this->_Mylast - this->_Myfirst);

  00000	8b 41 04	 mov	 eax, DWORD PTR [ecx+4]
  00003	2b 01		 sub	 eax, DWORD PTR [ecx]
  00005	6a 2c		 push	 44			; 0000002cH
  00007	99		 cdq
  00008	59		 pop	 ecx
  00009	f7 f9		 idiv	 ecx

; 880  : 		}

  0000b	c3		 ret	 0
?size@?$vector@UFightNPCRecord@@V?$allocator@UFightNPCRecord@@@std@@@std@@QBEIXZ ENDP ; std::vector<FightNPCRecord,std::allocator<FightNPCRecord> >::size
_TEXT	ENDS
PUBLIC	?empty@?$vector@UFightNPCRecord@@V?$allocator@UFightNPCRecord@@@std@@@std@@QBE_NXZ ; std::vector<FightNPCRecord,std::allocator<FightNPCRecord> >::empty
; Function compile flags: /Ogsp
;	COMDAT ?empty@?$vector@UFightNPCRecord@@V?$allocator@UFightNPCRecord@@@std@@@std@@QBE_NXZ
_TEXT	SEGMENT
?empty@?$vector@UFightNPCRecord@@V?$allocator@UFightNPCRecord@@@std@@@std@@QBE_NXZ PROC ; std::vector<FightNPCRecord,std::allocator<FightNPCRecord> >::empty, COMDAT
; _this$ = ecx

; 889  : 		return (this->_Myfirst == this->_Mylast);

  00000	8b 01		 mov	 eax, DWORD PTR [ecx]
  00002	2b 41 04	 sub	 eax, DWORD PTR [ecx+4]
  00005	f7 d8		 neg	 eax
  00007	1b c0		 sbb	 eax, eax
  00009	40		 inc	 eax

; 890  : 		}

  0000a	c3		 ret	 0
?empty@?$vector@UFightNPCRecord@@V?$allocator@UFightNPCRecord@@@std@@@std@@QBE_NXZ ENDP ; std::vector<FightNPCRecord,std::allocator<FightNPCRecord> >::empty
_TEXT	ENDS
PUBLIC	??A?$vector@UFightNPCRecord@@V?$allocator@UFightNPCRecord@@@std@@@std@@QAEAAUFightNPCRecord@@I@Z ; std::vector<FightNPCRecord,std::allocator<FightNPCRecord> >::operator[]
; Function compile flags: /Ogsp
;	COMDAT ??A?$vector@UFightNPCRecord@@V?$allocator@UFightNPCRecord@@@std@@@std@@QAEAAUFightNPCRecord@@I@Z
_TEXT	SEGMENT
__Pos$ = 8						; size = 4
??A?$vector@UFightNPCRecord@@V?$allocator@UFightNPCRecord@@@std@@@std@@QAEAAUFightNPCRecord@@I@Z PROC ; std::vector<FightNPCRecord,std::allocator<FightNPCRecord> >::operator[], COMDAT
; _this$ = ecx

; 928  : 		{	// subscript mutable sequence

  00000	55		 push	 ebp
  00001	8b ec		 mov	 ebp, esp

; 929  :  #if _ITERATOR_DEBUG_LEVEL == 2
; 930  : 		if (size() <= _Pos)
; 931  : 			{	// report error
; 932  : 			_DEBUG_ERROR("vector subscript out of range");
; 933  : 			_SCL_SECURE_OUT_OF_RANGE;
; 934  : 			}
; 935  : 
; 936  :  #elif _ITERATOR_DEBUG_LEVEL == 1
; 937  : 		_SCL_SECURE_VALIDATE_RANGE(_Pos < size());
; 938  :  #endif /* _ITERATOR_DEBUG_LEVEL */
; 939  : 
; 940  : 		return (*(this->_Myfirst + _Pos));

  00003	8b 45 08	 mov	 eax, DWORD PTR __Pos$[ebp]
  00006	6b c0 2c	 imul	 eax, 44			; 0000002cH
  00009	03 01		 add	 eax, DWORD PTR [ecx]

; 941  : 		}

  0000b	5d		 pop	 ebp
  0000c	c2 04 00	 ret	 4
??A?$vector@UFightNPCRecord@@V?$allocator@UFightNPCRecord@@@std@@@std@@QAEAAUFightNPCRecord@@I@Z ENDP ; std::vector<FightNPCRecord,std::allocator<FightNPCRecord> >::operator[]
_TEXT	ENDS
PUBLIC	?GetSingleton@?$Singleton@VMathManager@@@@SAAAVMathManager@@XZ ; Singleton<MathManager>::GetSingleton
EXTRN	?ms_Singleton@?$Singleton@VMathManager@@@@1PAVMathManager@@A:DWORD ; Singleton<MathManager>::ms_Singleton
; Function compile flags: /Ogsp
; File d:\lost saga for developer\youtube\tutorial\source\src\io3dengine\iosingleton.h
;	COMDAT ?GetSingleton@?$Singleton@VMathManager@@@@SAAAVMathManager@@XZ
_TEXT	SEGMENT
?GetSingleton@?$Singleton@VMathManager@@@@SAAAVMathManager@@XZ PROC ; Singleton<MathManager>::GetSingleton, COMDAT

; 42   : 		assert( ms_Singleton );
; 43   : 		return (*ms_Singleton);

  00000	a1 00 00 00 00	 mov	 eax, DWORD PTR ?ms_Singleton@?$Singleton@VMathManager@@@@1PAVMathManager@@A ; Singleton<MathManager>::ms_Singleton

; 44   : 	}

  00005	c3		 ret	 0
?GetSingleton@?$Singleton@VMathManager@@@@SAAAVMathManager@@XZ ENDP ; Singleton<MathManager>::GetSingleton
_TEXT	ENDS
PUBLIC	?size@?$vector@UContributeInfo@@V?$allocator@UContributeInfo@@@std@@@std@@QBEIXZ ; std::vector<ContributeInfo,std::allocator<ContributeInfo> >::size
; Function compile flags: /Ogsp
; File c:\program files (x86)\microsoft visual studio 10.0\vc\include\vector
;	COMDAT ?size@?$vector@UContributeInfo@@V?$allocator@UContributeInfo@@@std@@@std@@QBEIXZ
_TEXT	SEGMENT
?size@?$vector@UContributeInfo@@V?$allocator@UContributeInfo@@@std@@@std@@QBEIXZ PROC ; std::vector<ContributeInfo,std::allocator<ContributeInfo> >::size, COMDAT
; _this$ = ecx

; 879  : 		return (this->_Mylast - this->_Myfirst);

  00000	8b 41 04	 mov	 eax, DWORD PTR [ecx+4]
  00003	2b 01		 sub	 eax, DWORD PTR [ecx]
  00005	c1 f8 05	 sar	 eax, 5

; 880  : 		}

  00008	c3		 ret	 0
?size@?$vector@UContributeInfo@@V?$allocator@UContributeInfo@@@std@@@std@@QBEIXZ ENDP ; std::vector<ContributeInfo,std::allocator<ContributeInfo> >::size
_TEXT	ENDS
PUBLIC	??A?$vector@UContributeInfo@@V?$allocator@UContributeInfo@@@std@@@std@@QAEAAUContributeInfo@@I@Z ; std::vector<ContributeInfo,std::allocator<ContributeInfo> >::operator[]
; Function compile flags: /Ogsp
;	COMDAT ??A?$vector@UContributeInfo@@V?$allocator@UContributeInfo@@@std@@@std@@QAEAAUContributeInfo@@I@Z
_TEXT	SEGMENT
__Pos$ = 8						; size = 4
??A?$vector@UContributeInfo@@V?$allocator@UContributeInfo@@@std@@@std@@QAEAAUContributeInfo@@I@Z PROC ; std::vector<ContributeInfo,std::allocator<ContributeInfo> >::operator[], COMDAT
; _this$ = ecx

; 928  : 		{	// subscript mutable sequence

  00000	55		 push	 ebp
  00001	8b ec		 mov	 ebp, esp

; 929  :  #if _ITERATOR_DEBUG_LEVEL == 2
; 930  : 		if (size() <= _Pos)
; 931  : 			{	// report error
; 932  : 			_DEBUG_ERROR("vector subscript out of range");
; 933  : 			_SCL_SECURE_OUT_OF_RANGE;
; 934  : 			}
; 935  : 
; 936  :  #elif _ITERATOR_DEBUG_LEVEL == 1
; 937  : 		_SCL_SECURE_VALIDATE_RANGE(_Pos < size());
; 938  :  #endif /* _ITERATOR_DEBUG_LEVEL */
; 939  : 
; 940  : 		return (*(this->_Myfirst + _Pos));

  00003	8b 45 08	 mov	 eax, DWORD PTR __Pos$[ebp]
  00006	c1 e0 05	 shl	 eax, 5
  00009	03 01		 add	 eax, DWORD PTR [ecx]

; 941  : 		}

  0000b	5d		 pop	 ebp
  0000c	c2 04 00	 ret	 4
??A?$vector@UContributeInfo@@V?$allocator@UContributeInfo@@@std@@@std@@QAEAAUContributeInfo@@I@Z ENDP ; std::vector<ContributeInfo,std::allocator<ContributeInfo> >::operator[]
_TEXT	ENDS
PUBLIC	?capacity@?$vector@UD3DXVECTOR3@@V?$allocator@UD3DXVECTOR3@@@std@@@std@@QBEIXZ ; std::vector<D3DXVECTOR3,std::allocator<D3DXVECTOR3> >::capacity
; Function compile flags: /Ogsp
;	COMDAT ?capacity@?$vector@UD3DXVECTOR3@@V?$allocator@UD3DXVECTOR3@@@std@@@std@@QBEIXZ
_TEXT	SEGMENT
?capacity@?$vector@UD3DXVECTOR3@@V?$allocator@UD3DXVECTOR3@@@std@@@std@@QBEIXZ PROC ; std::vector<D3DXVECTOR3,std::allocator<D3DXVECTOR3> >::capacity, COMDAT
; _this$ = ecx

; 777  : 		return (this->_Myend - this->_Myfirst);

  00000	8b 41 08	 mov	 eax, DWORD PTR [ecx+8]
  00003	2b 01		 sub	 eax, DWORD PTR [ecx]
  00005	6a 0c		 push	 12			; 0000000cH
  00007	99		 cdq
  00008	59		 pop	 ecx
  00009	f7 f9		 idiv	 ecx

; 778  : 		}

  0000b	c3		 ret	 0
?capacity@?$vector@UD3DXVECTOR3@@V?$allocator@UD3DXVECTOR3@@@std@@@std@@QBEIXZ ENDP ; std::vector<D3DXVECTOR3,std::allocator<D3DXVECTOR3> >::capacity
_TEXT	ENDS
PUBLIC	?D3DXVec3LengthSq@@YAMPBUD3DXVECTOR3@@@Z	; D3DXVec3LengthSq
; Function compile flags: /Ogsp
; File c:\program files (x86)\microsoft directx sdk (june 2010)\include\d3dx9math.inl
;	COMDAT ?D3DXVec3LengthSq@@YAMPBUD3DXVECTOR3@@@Z
_TEXT	SEGMENT
tv165 = 8						; size = 4
_pV$ = 8						; size = 4
?D3DXVec3LengthSq@@YAMPBUD3DXVECTOR3@@@Z PROC		; D3DXVec3LengthSq, COMDAT

; 1725 : {

  00000	55		 push	 ebp
  00001	8b ec		 mov	 ebp, esp

; 1726 : #ifdef D3DX_DEBUG
; 1727 :     if(!pV)
; 1728 :         return 0.0f;
; 1729 : #endif
; 1730 : 
; 1731 :     return pV->x * pV->x + pV->y * pV->y + pV->z * pV->z;

  00003	8b 45 08	 mov	 eax, DWORD PTR _pV$[ebp]
  00006	d9 40 04	 fld	 DWORD PTR [eax+4]
  00009	d9 00		 fld	 DWORD PTR [eax]
  0000b	d9 40 08	 fld	 DWORD PTR [eax+8]
  0000e	d9 c1		 fld	 ST(1)
  00010	de ca		 fmulp	 ST(2), ST(0)
  00012	d9 c2		 fld	 ST(2)
  00014	de cb		 fmulp	 ST(3), ST(0)
  00016	d9 c9		 fxch	 ST(1)
  00018	de c2		 faddp	 ST(2), ST(0)
  0001a	d9 c0		 fld	 ST(0)
  0001c	de c9		 fmulp	 ST(1), ST(0)
  0001e	de c1		 faddp	 ST(1), ST(0)
  00020	d9 5d 08	 fstp	 DWORD PTR tv165[ebp]
  00023	d9 45 08	 fld	 DWORD PTR tv165[ebp]

; 1732 : }

  00026	5d		 pop	 ebp
  00027	c3		 ret	 0
?D3DXVec3LengthSq@@YAMPBUD3DXVECTOR3@@@Z ENDP		; D3DXVec3LengthSq
_TEXT	ENDS
PUBLIC	?_Inside@?$vector@UD3DXVECTOR3@@V?$allocator@UD3DXVECTOR3@@@std@@@std@@IBE_NPBUD3DXVECTOR3@@@Z ; std::vector<D3DXVECTOR3,std::allocator<D3DXVECTOR3> >::_Inside
; Function compile flags: /Ogsp
; File c:\program files (x86)\microsoft visual studio 10.0\vc\include\vector
;	COMDAT ?_Inside@?$vector@UD3DXVECTOR3@@V?$allocator@UD3DXVECTOR3@@@std@@@std@@IBE_NPBUD3DXVECTOR3@@@Z
_TEXT	SEGMENT
__Ptr$ = 8						; size = 4
?_Inside@?$vector@UD3DXVECTOR3@@V?$allocator@UD3DXVECTOR3@@@std@@@std@@IBE_NPBUD3DXVECTOR3@@@Z PROC ; std::vector<D3DXVECTOR3,std::allocator<D3DXVECTOR3> >::_Inside, COMDAT
; _this$ = ecx

; 1285 : 		{	// test if _Ptr points inside vector

  00000	55		 push	 ebp
  00001	8b ec		 mov	 ebp, esp

; 1286 : 		return (_Ptr < this->_Mylast && this->_Myfirst <= _Ptr);

  00003	8b 45 08	 mov	 eax, DWORD PTR __Ptr$[ebp]
  00006	3b 41 04	 cmp	 eax, DWORD PTR [ecx+4]
  00009	73 09		 jae	 SHORT $LN3@Inside
  0000b	39 01		 cmp	 DWORD PTR [ecx], eax
  0000d	77 05		 ja	 SHORT $LN3@Inside
  0000f	33 c0		 xor	 eax, eax
  00011	40		 inc	 eax
  00012	eb 02		 jmp	 SHORT $LN4@Inside
$LN3@Inside:
  00014	33 c0		 xor	 eax, eax
$LN4@Inside:

; 1287 : 		}

  00016	5d		 pop	 ebp
  00017	c2 04 00	 ret	 4
?_Inside@?$vector@UD3DXVECTOR3@@V?$allocator@UD3DXVECTOR3@@@std@@@std@@IBE_NPBUD3DXVECTOR3@@@Z ENDP ; std::vector<D3DXVECTOR3,std::allocator<D3DXVECTOR3> >::_Inside
_TEXT	ENDS
PUBLIC	??_C@_0BD@OLBABOEK@vector?$DMT?$DO?5too?5long?$AA@ ; `string'
PUBLIC	?_Xlen@?$vector@UD3DXVECTOR3@@V?$allocator@UD3DXVECTOR3@@@std@@@std@@IBEXXZ ; std::vector<D3DXVECTOR3,std::allocator<D3DXVECTOR3> >::_Xlen
EXTRN	__imp_?_Xlength_error@std@@YAXPBD@Z:PROC
;	COMDAT ??_C@_0BD@OLBABOEK@vector?$DMT?$DO?5too?5long?$AA@
CONST	SEGMENT
??_C@_0BD@OLBABOEK@vector?$DMT?$DO?5too?5long?$AA@ DB 'vector<T> too long'
	DB	00H						; `string'
; Function compile flags: /Ogsp
CONST	ENDS
;	COMDAT ?_Xlen@?$vector@UD3DXVECTOR3@@V?$allocator@UD3DXVECTOR3@@@std@@@std@@IBEXXZ
_TEXT	SEGMENT
?_Xlen@?$vector@UD3DXVECTOR3@@V?$allocator@UD3DXVECTOR3@@@std@@@std@@IBEXXZ PROC ; std::vector<D3DXVECTOR3,std::allocator<D3DXVECTOR3> >::_Xlen, COMDAT
; _this$ = ecx

; 1427 : 		_Xlength_error("vector<T> too long");

  00000	68 00 00 00 00	 push	 OFFSET ??_C@_0BD@OLBABOEK@vector?$DMT?$DO?5too?5long?$AA@
  00005	ff 15 00 00 00
	00		 call	 DWORD PTR __imp_?_Xlength_error@std@@YAXPBD@Z
$LN4@Xlen:
$LN3@Xlen:
  0000b	cc		 int	 3
?_Xlen@?$vector@UD3DXVECTOR3@@V?$allocator@UD3DXVECTOR3@@@std@@@std@@IBEXXZ ENDP ; std::vector<D3DXVECTOR3,std::allocator<D3DXVECTOR3> >::_Xlen
_TEXT	ENDS
PUBLIC	?_Orphan_range@?$vector@UD3DXVECTOR3@@V?$allocator@UD3DXVECTOR3@@@std@@@std@@IBEXPAUD3DXVECTOR3@@0@Z ; std::vector<D3DXVECTOR3,std::allocator<D3DXVECTOR3> >::_Orphan_range
; Function compile flags: /Ogsp
;	COMDAT ?_Orphan_range@?$vector@UD3DXVECTOR3@@V?$allocator@UD3DXVECTOR3@@@std@@@std@@IBEXPAUD3DXVECTOR3@@0@Z
_TEXT	SEGMENT
___formal$ = 8						; size = 4
___formal$ = 12						; size = 4
?_Orphan_range@?$vector@UD3DXVECTOR3@@V?$allocator@UD3DXVECTOR3@@@std@@@std@@IBEXPAUD3DXVECTOR3@@0@Z PROC ; std::vector<D3DXVECTOR3,std::allocator<D3DXVECTOR3> >::_Orphan_range, COMDAT
; _this$ = ecx

; 1454 : 		}

  00000	c2 08 00	 ret	 8
?_Orphan_range@?$vector@UD3DXVECTOR3@@V?$allocator@UD3DXVECTOR3@@@std@@@std@@IBEXPAUD3DXVECTOR3@@0@Z ENDP ; std::vector<D3DXVECTOR3,std::allocator<D3DXVECTOR3> >::_Orphan_range
_TEXT	ENDS
PUBLIC	??1?$_Vector_val@UD3DXVECTOR3@@V?$allocator@UD3DXVECTOR3@@@std@@@std@@QAE@XZ ; std::_Vector_val<D3DXVECTOR3,std::allocator<D3DXVECTOR3> >::~_Vector_val<D3DXVECTOR3,std::allocator<D3DXVECTOR3> >
; Function compile flags: /Ogsp
;	COMDAT ??1?$_Vector_val@UD3DXVECTOR3@@V?$allocator@UD3DXVECTOR3@@@std@@@std@@QAE@XZ
_TEXT	SEGMENT
??1?$_Vector_val@UD3DXVECTOR3@@V?$allocator@UD3DXVECTOR3@@@std@@@std@@QAE@XZ PROC ; std::_Vector_val<D3DXVECTOR3,std::allocator<D3DXVECTOR3> >::~_Vector_val<D3DXVECTOR3,std::allocator<D3DXVECTOR3> >, COMDAT
; _this$ = ecx

; 434  : 		}

  00000	c3		 ret	 0
??1?$_Vector_val@UD3DXVECTOR3@@V?$allocator@UD3DXVECTOR3@@@std@@@std@@QAE@XZ ENDP ; std::_Vector_val<D3DXVECTOR3,std::allocator<D3DXVECTOR3> >::~_Vector_val<D3DXVECTOR3,std::allocator<D3DXVECTOR3> >
_TEXT	ENDS
PUBLIC	??0?$allocator@UD3DXVECTOR3@@@std@@QAE@XZ	; std::allocator<D3DXVECTOR3>::allocator<D3DXVECTOR3>
; Function compile flags: /Ogsp
; File c:\program files (x86)\microsoft visual studio 10.0\vc\include\xmemory
;	COMDAT ??0?$allocator@UD3DXVECTOR3@@@std@@QAE@XZ
_TEXT	SEGMENT
??0?$allocator@UD3DXVECTOR3@@@std@@QAE@XZ PROC		; std::allocator<D3DXVECTOR3>::allocator<D3DXVECTOR3>, COMDAT
; _this$ = ecx

; 161  : 	_ALLOCATOR() _THROW0()

  00000	8b c1		 mov	 eax, ecx

; 162  : 		{	// construct default allocator (do nothing)
; 163  : 		}

  00002	c3		 ret	 0
??0?$allocator@UD3DXVECTOR3@@@std@@QAE@XZ ENDP		; std::allocator<D3DXVECTOR3>::allocator<D3DXVECTOR3>
_TEXT	ENDS
PUBLIC	?deallocate@?$allocator@UD3DXVECTOR3@@@std@@QAEXPAUD3DXVECTOR3@@I@Z ; std::allocator<D3DXVECTOR3>::deallocate
; Function compile flags: /Ogsp
;	COMDAT ?deallocate@?$allocator@UD3DXVECTOR3@@@std@@QAEXPAUD3DXVECTOR3@@I@Z
_TEXT	SEGMENT
__Ptr$ = 8						; size = 4
___formal$ = 12						; size = 4
?deallocate@?$allocator@UD3DXVECTOR3@@@std@@QAEXPAUD3DXVECTOR3@@I@Z PROC ; std::allocator<D3DXVECTOR3>::deallocate, COMDAT
; _this$ = ecx

; 181  : 		{	// deallocate object at _Ptr, ignore size

  00000	55		 push	 ebp
  00001	8b ec		 mov	 ebp, esp

; 182  : 		::operator delete(_Ptr);

  00003	ff 75 08	 push	 DWORD PTR __Ptr$[ebp]
  00006	e8 00 00 00 00	 call	 ??3@YAXPAX@Z		; operator delete
  0000b	59		 pop	 ecx

; 183  : 		}

  0000c	5d		 pop	 ebp
  0000d	c2 08 00	 ret	 8
?deallocate@?$allocator@UD3DXVECTOR3@@@std@@QAEXPAUD3DXVECTOR3@@I@Z ENDP ; std::allocator<D3DXVECTOR3>::deallocate
_TEXT	ENDS
PUBLIC	?_Inside@?$vector@HV?$allocator@H@std@@@std@@IBE_NPBH@Z ; std::vector<int,std::allocator<int> >::_Inside
; Function compile flags: /Ogsp
; File c:\program files (x86)\microsoft visual studio 10.0\vc\include\vector
;	COMDAT ?_Inside@?$vector@HV?$allocator@H@std@@@std@@IBE_NPBH@Z
_TEXT	SEGMENT
__Ptr$ = 8						; size = 4
?_Inside@?$vector@HV?$allocator@H@std@@@std@@IBE_NPBH@Z PROC ; std::vector<int,std::allocator<int> >::_Inside, COMDAT
; _this$ = ecx

; 1285 : 		{	// test if _Ptr points inside vector

  00000	55		 push	 ebp
  00001	8b ec		 mov	 ebp, esp

; 1286 : 		return (_Ptr < this->_Mylast && this->_Myfirst <= _Ptr);

  00003	8b 45 08	 mov	 eax, DWORD PTR __Ptr$[ebp]
  00006	3b 41 04	 cmp	 eax, DWORD PTR [ecx+4]
  00009	73 09		 jae	 SHORT $LN3@Inside@2
  0000b	39 01		 cmp	 DWORD PTR [ecx], eax
  0000d	77 05		 ja	 SHORT $LN3@Inside@2
  0000f	33 c0		 xor	 eax, eax
  00011	40		 inc	 eax
  00012	eb 02		 jmp	 SHORT $LN4@Inside@2
$LN3@Inside@2:
  00014	33 c0		 xor	 eax, eax
$LN4@Inside@2:

; 1287 : 		}

  00016	5d		 pop	 ebp
  00017	c2 04 00	 ret	 4
?_Inside@?$vector@HV?$allocator@H@std@@@std@@IBE_NPBH@Z ENDP ; std::vector<int,std::allocator<int> >::_Inside
_TEXT	ENDS
PUBLIC	?_Orphan_range@?$vector@HV?$allocator@H@std@@@std@@IBEXPAH0@Z ; std::vector<int,std::allocator<int> >::_Orphan_range
; Function compile flags: /Ogsp
;	COMDAT ?_Orphan_range@?$vector@HV?$allocator@H@std@@@std@@IBEXPAH0@Z
_TEXT	SEGMENT
___formal$ = 8						; size = 4
___formal$ = 12						; size = 4
?_Orphan_range@?$vector@HV?$allocator@H@std@@@std@@IBEXPAH0@Z PROC ; std::vector<int,std::allocator<int> >::_Orphan_range, COMDAT
; _this$ = ecx

; 1454 : 		}

  00000	c2 08 00	 ret	 8
?_Orphan_range@?$vector@HV?$allocator@H@std@@@std@@IBEXPAH0@Z ENDP ; std::vector<int,std::allocator<int> >::_Orphan_range
_TEXT	ENDS
PUBLIC	?capacity@?$vector@URoundInfo@@V?$allocator@URoundInfo@@@std@@@std@@QBEIXZ ; std::vector<RoundInfo,std::allocator<RoundInfo> >::capacity
; Function compile flags: /Ogsp
;	COMDAT ?capacity@?$vector@URoundInfo@@V?$allocator@URoundInfo@@@std@@@std@@QBEIXZ
_TEXT	SEGMENT
?capacity@?$vector@URoundInfo@@V?$allocator@URoundInfo@@@std@@@std@@QBEIXZ PROC ; std::vector<RoundInfo,std::allocator<RoundInfo> >::capacity, COMDAT
; _this$ = ecx

; 777  : 		return (this->_Myend - this->_Myfirst);

  00000	8b 41 08	 mov	 eax, DWORD PTR [ecx+8]
  00003	2b 01		 sub	 eax, DWORD PTR [ecx]
  00005	c1 f8 07	 sar	 eax, 7

; 778  : 		}

  00008	c3		 ret	 0
?capacity@?$vector@URoundInfo@@V?$allocator@URoundInfo@@@std@@@std@@QBEIXZ ENDP ; std::vector<RoundInfo,std::allocator<RoundInfo> >::capacity
_TEXT	ENDS
PUBLIC	?_Inside@?$vector@URoundInfo@@V?$allocator@URoundInfo@@@std@@@std@@IBE_NPBURoundInfo@@@Z ; std::vector<RoundInfo,std::allocator<RoundInfo> >::_Inside
; Function compile flags: /Ogsp
;	COMDAT ?_Inside@?$vector@URoundInfo@@V?$allocator@URoundInfo@@@std@@@std@@IBE_NPBURoundInfo@@@Z
_TEXT	SEGMENT
__Ptr$ = 8						; size = 4
?_Inside@?$vector@URoundInfo@@V?$allocator@URoundInfo@@@std@@@std@@IBE_NPBURoundInfo@@@Z PROC ; std::vector<RoundInfo,std::allocator<RoundInfo> >::_Inside, COMDAT
; _this$ = ecx

; 1285 : 		{	// test if _Ptr points inside vector

  00000	55		 push	 ebp
  00001	8b ec		 mov	 ebp, esp

; 1286 : 		return (_Ptr < this->_Mylast && this->_Myfirst <= _Ptr);

  00003	8b 45 08	 mov	 eax, DWORD PTR __Ptr$[ebp]
  00006	3b 41 04	 cmp	 eax, DWORD PTR [ecx+4]
  00009	73 09		 jae	 SHORT $LN3@Inside@3
  0000b	39 01		 cmp	 DWORD PTR [ecx], eax
  0000d	77 05		 ja	 SHORT $LN3@Inside@3
  0000f	33 c0		 xor	 eax, eax
  00011	40		 inc	 eax
  00012	eb 02		 jmp	 SHORT $LN4@Inside@3
$LN3@Inside@3:
  00014	33 c0		 xor	 eax, eax
$LN4@Inside@3:

; 1287 : 		}

  00016	5d		 pop	 ebp
  00017	c2 04 00	 ret	 4
?_Inside@?$vector@URoundInfo@@V?$allocator@URoundInfo@@@std@@@std@@IBE_NPBURoundInfo@@@Z ENDP ; std::vector<RoundInfo,std::allocator<RoundInfo> >::_Inside
_TEXT	ENDS
PUBLIC	?_Xlen@?$vector@URoundInfo@@V?$allocator@URoundInfo@@@std@@@std@@IBEXXZ ; std::vector<RoundInfo,std::allocator<RoundInfo> >::_Xlen
; Function compile flags: /Ogsp
;	COMDAT ?_Xlen@?$vector@URoundInfo@@V?$allocator@URoundInfo@@@std@@@std@@IBEXXZ
_TEXT	SEGMENT
?_Xlen@?$vector@URoundInfo@@V?$allocator@URoundInfo@@@std@@@std@@IBEXXZ PROC ; std::vector<RoundInfo,std::allocator<RoundInfo> >::_Xlen, COMDAT
; _this$ = ecx

; 1427 : 		_Xlength_error("vector<T> too long");

  00000	68 00 00 00 00	 push	 OFFSET ??_C@_0BD@OLBABOEK@vector?$DMT?$DO?5too?5long?$AA@
  00005	ff 15 00 00 00
	00		 call	 DWORD PTR __imp_?_Xlength_error@std@@YAXPBD@Z
$LN4@Xlen@2:
$LN3@Xlen@2:
  0000b	cc		 int	 3
?_Xlen@?$vector@URoundInfo@@V?$allocator@URoundInfo@@@std@@@std@@IBEXXZ ENDP ; std::vector<RoundInfo,std::allocator<RoundInfo> >::_Xlen
_TEXT	ENDS
PUBLIC	?_Orphan_range@?$vector@URoundInfo@@V?$allocator@URoundInfo@@@std@@@std@@IBEXPAURoundInfo@@0@Z ; std::vector<RoundInfo,std::allocator<RoundInfo> >::_Orphan_range
; Function compile flags: /Ogsp
;	COMDAT ?_Orphan_range@?$vector@URoundInfo@@V?$allocator@URoundInfo@@@std@@@std@@IBEXPAURoundInfo@@0@Z
_TEXT	SEGMENT
___formal$ = 8						; size = 4
___formal$ = 12						; size = 4
?_Orphan_range@?$vector@URoundInfo@@V?$allocator@URoundInfo@@@std@@@std@@IBEXPAURoundInfo@@0@Z PROC ; std::vector<RoundInfo,std::allocator<RoundInfo> >::_Orphan_range, COMDAT
; _this$ = ecx

; 1454 : 		}

  00000	c2 08 00	 ret	 8
?_Orphan_range@?$vector@URoundInfo@@V?$allocator@URoundInfo@@@std@@@std@@IBEXPAURoundInfo@@0@Z ENDP ; std::vector<RoundInfo,std::allocator<RoundInfo> >::_Orphan_range
_TEXT	ENDS
PUBLIC	?deallocate@?$allocator@URoundInfo@@@std@@QAEXPAURoundInfo@@I@Z ; std::allocator<RoundInfo>::deallocate
; Function compile flags: /Ogsp
; File c:\program files (x86)\microsoft visual studio 10.0\vc\include\xmemory
;	COMDAT ?deallocate@?$allocator@URoundInfo@@@std@@QAEXPAURoundInfo@@I@Z
_TEXT	SEGMENT
__Ptr$ = 8						; size = 4
___formal$ = 12						; size = 4
?deallocate@?$allocator@URoundInfo@@@std@@QAEXPAURoundInfo@@I@Z PROC ; std::allocator<RoundInfo>::deallocate, COMDAT
; _this$ = ecx

; 181  : 		{	// deallocate object at _Ptr, ignore size

  00000	55		 push	 ebp
  00001	8b ec		 mov	 ebp, esp

; 182  : 		::operator delete(_Ptr);

  00003	ff 75 08	 push	 DWORD PTR __Ptr$[ebp]
  00006	e8 00 00 00 00	 call	 ??3@YAXPAX@Z		; operator delete
  0000b	59		 pop	 ecx

; 183  : 		}

  0000c	5d		 pop	 ebp
  0000d	c2 08 00	 ret	 8
?deallocate@?$allocator@URoundInfo@@@std@@QAEXPAURoundInfo@@I@Z ENDP ; std::allocator<RoundInfo>::deallocate
_TEXT	ENDS
PUBLIC	?EncryptValueToPool@?$CEncrypt@W4ModeType@@@@AAEXPBD@Z ; CEncrypt<enum ModeType>::EncryptValueToPool
EXTRN	?EncryptByte@ccddaabb@@QAEXPBDPADH@Z:PROC	; ccddaabb::EncryptByte
; Function compile flags: /Ogsp
; File d:\lost saga for developer\youtube\tutorial\source\src\lsclient\encryptvalue.h
;	COMDAT ?EncryptValueToPool@?$CEncrypt@W4ModeType@@@@AAEXPBD@Z
_TEXT	SEGMENT
_value$ = 8						; size = 4
?EncryptValueToPool@?$CEncrypt@W4ModeType@@@@AAEXPBD@Z PROC ; CEncrypt<enum ModeType>::EncryptValueToPool, COMDAT
; _this$ = ecx

; 67   : 	{

  00000	55		 push	 ebp
  00001	8b ec		 mov	 ebp, esp

; 68   : 		m_RC5.EncryptByte( value, m_MemPool, max(m_ValueSize, DEFAULT_ENCRYPT) );

  00003	0f b7 41 06	 movzx	 eax, WORD PTR [ecx+6]
  00007	83 f8 04	 cmp	 eax, 4
  0000a	77 03		 ja	 SHORT $LN4@EncryptVal
  0000c	6a 04		 push	 4
  0000e	58		 pop	 eax
$LN4@EncryptVal:
  0000f	50		 push	 eax
  00010	8d 41 1c	 lea	 eax, DWORD PTR [ecx+28]
  00013	50		 push	 eax
  00014	ff 75 08	 push	 DWORD PTR _value$[ebp]
  00017	83 c1 0c	 add	 ecx, 12			; 0000000cH
  0001a	e8 00 00 00 00	 call	 ?EncryptByte@ccddaabb@@QAEXPBDPADH@Z ; ccddaabb::EncryptByte

; 69   : 		
; 70   : 	}

  0001f	5d		 pop	 ebp
  00020	c2 04 00	 ret	 4
?EncryptValueToPool@?$CEncrypt@W4ModeType@@@@AAEXPBD@Z ENDP ; CEncrypt<enum ModeType>::EncryptValueToPool
_TEXT	ENDS
PUBLIC	?capacity@?$vector@UFightClubRecord@@V?$allocator@UFightClubRecord@@@std@@@std@@QBEIXZ ; std::vector<FightClubRecord,std::allocator<FightClubRecord> >::capacity
; Function compile flags: /Ogsp
; File c:\program files (x86)\microsoft visual studio 10.0\vc\include\vector
;	COMDAT ?capacity@?$vector@UFightClubRecord@@V?$allocator@UFightClubRecord@@@std@@@std@@QBEIXZ
_TEXT	SEGMENT
?capacity@?$vector@UFightClubRecord@@V?$allocator@UFightClubRecord@@@std@@@std@@QBEIXZ PROC ; std::vector<FightClubRecord,std::allocator<FightClubRecord> >::capacity, COMDAT
; _this$ = ecx

; 777  : 		return (this->_Myend - this->_Myfirst);

  00000	8b 41 08	 mov	 eax, DWORD PTR [ecx+8]
  00003	2b 01		 sub	 eax, DWORD PTR [ecx]
  00005	b9 e8 00 00 00	 mov	 ecx, 232		; 000000e8H
  0000a	99		 cdq
  0000b	f7 f9		 idiv	 ecx

; 778  : 		}

  0000d	c3		 ret	 0
?capacity@?$vector@UFightClubRecord@@V?$allocator@UFightClubRecord@@@std@@@std@@QBEIXZ ENDP ; std::vector<FightClubRecord,std::allocator<FightClubRecord> >::capacity
_TEXT	ENDS
PUBLIC	?_Inside@?$vector@UFightClubRecord@@V?$allocator@UFightClubRecord@@@std@@@std@@IBE_NPBUFightClubRecord@@@Z ; std::vector<FightClubRecord,std::allocator<FightClubRecord> >::_Inside
; Function compile flags: /Ogsp
;	COMDAT ?_Inside@?$vector@UFightClubRecord@@V?$allocator@UFightClubRecord@@@std@@@std@@IBE_NPBUFightClubRecord@@@Z
_TEXT	SEGMENT
__Ptr$ = 8						; size = 4
?_Inside@?$vector@UFightClubRecord@@V?$allocator@UFightClubRecord@@@std@@@std@@IBE_NPBUFightClubRecord@@@Z PROC ; std::vector<FightClubRecord,std::allocator<FightClubRecord> >::_Inside, COMDAT
; _this$ = ecx

; 1285 : 		{	// test if _Ptr points inside vector

  00000	55		 push	 ebp
  00001	8b ec		 mov	 ebp, esp

; 1286 : 		return (_Ptr < this->_Mylast && this->_Myfirst <= _Ptr);

  00003	8b 45 08	 mov	 eax, DWORD PTR __Ptr$[ebp]
  00006	3b 41 04	 cmp	 eax, DWORD PTR [ecx+4]
  00009	73 09		 jae	 SHORT $LN3@Inside@4
  0000b	39 01		 cmp	 DWORD PTR [ecx], eax
  0000d	77 05		 ja	 SHORT $LN3@Inside@4
  0000f	33 c0		 xor	 eax, eax
  00011	40		 inc	 eax
  00012	eb 02		 jmp	 SHORT $LN4@Inside@4
$LN3@Inside@4:
  00014	33 c0		 xor	 eax, eax
$LN4@Inside@4:

; 1287 : 		}

  00016	5d		 pop	 ebp
  00017	c2 04 00	 ret	 4
?_Inside@?$vector@UFightClubRecord@@V?$allocator@UFightClubRecord@@@std@@@std@@IBE_NPBUFightClubRecord@@@Z ENDP ; std::vector<FightClubRecord,std::allocator<FightClubRecord> >::_Inside
_TEXT	ENDS
PUBLIC	?_Xlen@?$vector@UFightClubRecord@@V?$allocator@UFightClubRecord@@@std@@@std@@IBEXXZ ; std::vector<FightClubRecord,std::allocator<FightClubRecord> >::_Xlen
; Function compile flags: /Ogsp
;	COMDAT ?_Xlen@?$vector@UFightClubRecord@@V?$allocator@UFightClubRecord@@@std@@@std@@IBEXXZ
_TEXT	SEGMENT
?_Xlen@?$vector@UFightClubRecord@@V?$allocator@UFightClubRecord@@@std@@@std@@IBEXXZ PROC ; std::vector<FightClubRecord,std::allocator<FightClubRecord> >::_Xlen, COMDAT
; _this$ = ecx

; 1427 : 		_Xlength_error("vector<T> too long");

  00000	68 00 00 00 00	 push	 OFFSET ??_C@_0BD@OLBABOEK@vector?$DMT?$DO?5too?5long?$AA@
  00005	ff 15 00 00 00
	00		 call	 DWORD PTR __imp_?_Xlength_error@std@@YAXPBD@Z
$LN4@Xlen@3:
$LN3@Xlen@3:
  0000b	cc		 int	 3
?_Xlen@?$vector@UFightClubRecord@@V?$allocator@UFightClubRecord@@@std@@@std@@IBEXXZ ENDP ; std::vector<FightClubRecord,std::allocator<FightClubRecord> >::_Xlen
_TEXT	ENDS
PUBLIC	?_Orphan_range@?$vector@UFightClubRecord@@V?$allocator@UFightClubRecord@@@std@@@std@@IBEXPAUFightClubRecord@@0@Z ; std::vector<FightClubRecord,std::allocator<FightClubRecord> >::_Orphan_range
; Function compile flags: /Ogsp
;	COMDAT ?_Orphan_range@?$vector@UFightClubRecord@@V?$allocator@UFightClubRecord@@@std@@@std@@IBEXPAUFightClubRecord@@0@Z
_TEXT	SEGMENT
___formal$ = 8						; size = 4
___formal$ = 12						; size = 4
?_Orphan_range@?$vector@UFightClubRecord@@V?$allocator@UFightClubRecord@@@std@@@std@@IBEXPAUFightClubRecord@@0@Z PROC ; std::vector<FightClubRecord,std::allocator<FightClubRecord> >::_Orphan_range, COMDAT
; _this$ = ecx

; 1454 : 		}

  00000	c2 08 00	 ret	 8
?_Orphan_range@?$vector@UFightClubRecord@@V?$allocator@UFightClubRecord@@@std@@@std@@IBEXPAUFightClubRecord@@0@Z ENDP ; std::vector<FightClubRecord,std::allocator<FightClubRecord> >::_Orphan_range
_TEXT	ENDS
PUBLIC	??1?$_Vector_val@UFightClubRecord@@V?$allocator@UFightClubRecord@@@std@@@std@@QAE@XZ ; std::_Vector_val<FightClubRecord,std::allocator<FightClubRecord> >::~_Vector_val<FightClubRecord,std::allocator<FightClubRecord> >
; Function compile flags: /Ogsp
;	COMDAT ??1?$_Vector_val@UFightClubRecord@@V?$allocator@UFightClubRecord@@@std@@@std@@QAE@XZ
_TEXT	SEGMENT
??1?$_Vector_val@UFightClubRecord@@V?$allocator@UFightClubRecord@@@std@@@std@@QAE@XZ PROC ; std::_Vector_val<FightClubRecord,std::allocator<FightClubRecord> >::~_Vector_val<FightClubRecord,std::allocator<FightClubRecord> >, COMDAT
; _this$ = ecx

; 434  : 		}

  00000	c3		 ret	 0
??1?$_Vector_val@UFightClubRecord@@V?$allocator@UFightClubRecord@@@std@@@std@@QAE@XZ ENDP ; std::_Vector_val<FightClubRecord,std::allocator<FightClubRecord> >::~_Vector_val<FightClubRecord,std::allocator<FightClubRecord> >
_TEXT	ENDS
PUBLIC	??0?$allocator@UFightClubRecord@@@std@@QAE@XZ	; std::allocator<FightClubRecord>::allocator<FightClubRecord>
; Function compile flags: /Ogsp
; File c:\program files (x86)\microsoft visual studio 10.0\vc\include\xmemory
;	COMDAT ??0?$allocator@UFightClubRecord@@@std@@QAE@XZ
_TEXT	SEGMENT
??0?$allocator@UFightClubRecord@@@std@@QAE@XZ PROC	; std::allocator<FightClubRecord>::allocator<FightClubRecord>, COMDAT
; _this$ = ecx

; 161  : 	_ALLOCATOR() _THROW0()

  00000	8b c1		 mov	 eax, ecx

; 162  : 		{	// construct default allocator (do nothing)
; 163  : 		}

  00002	c3		 ret	 0
??0?$allocator@UFightClubRecord@@@std@@QAE@XZ ENDP	; std::allocator<FightClubRecord>::allocator<FightClubRecord>
_TEXT	ENDS
PUBLIC	?deallocate@?$allocator@UFightClubRecord@@@std@@QAEXPAUFightClubRecord@@I@Z ; std::allocator<FightClubRecord>::deallocate
; Function compile flags: /Ogsp
;	COMDAT ?deallocate@?$allocator@UFightClubRecord@@@std@@QAEXPAUFightClubRecord@@I@Z
_TEXT	SEGMENT
__Ptr$ = 8						; size = 4
___formal$ = 12						; size = 4
?deallocate@?$allocator@UFightClubRecord@@@std@@QAEXPAUFightClubRecord@@I@Z PROC ; std::allocator<FightClubRecord>::deallocate, COMDAT
; _this$ = ecx

; 181  : 		{	// deallocate object at _Ptr, ignore size

  00000	55		 push	 ebp
  00001	8b ec		 mov	 ebp, esp

; 182  : 		::operator delete(_Ptr);

  00003	ff 75 08	 push	 DWORD PTR __Ptr$[ebp]
  00006	e8 00 00 00 00	 call	 ??3@YAXPAX@Z		; operator delete
  0000b	59		 pop	 ecx

; 183  : 		}

  0000c	5d		 pop	 ebp
  0000d	c2 08 00	 ret	 8
?deallocate@?$allocator@UFightClubRecord@@@std@@QAEXPAUFightClubRecord@@I@Z ENDP ; std::allocator<FightClubRecord>::deallocate
_TEXT	ENDS
PUBLIC	?capacity@?$vector@UFightNPCRecord@@V?$allocator@UFightNPCRecord@@@std@@@std@@QBEIXZ ; std::vector<FightNPCRecord,std::allocator<FightNPCRecord> >::capacity
; Function compile flags: /Ogsp
; File c:\program files (x86)\microsoft visual studio 10.0\vc\include\vector
;	COMDAT ?capacity@?$vector@UFightNPCRecord@@V?$allocator@UFightNPCRecord@@@std@@@std@@QBEIXZ
_TEXT	SEGMENT
?capacity@?$vector@UFightNPCRecord@@V?$allocator@UFightNPCRecord@@@std@@@std@@QBEIXZ PROC ; std::vector<FightNPCRecord,std::allocator<FightNPCRecord> >::capacity, COMDAT
; _this$ = ecx

; 777  : 		return (this->_Myend - this->_Myfirst);

  00000	8b 41 08	 mov	 eax, DWORD PTR [ecx+8]
  00003	2b 01		 sub	 eax, DWORD PTR [ecx]
  00005	6a 2c		 push	 44			; 0000002cH
  00007	99		 cdq
  00008	59		 pop	 ecx
  00009	f7 f9		 idiv	 ecx

; 778  : 		}

  0000b	c3		 ret	 0
?capacity@?$vector@UFightNPCRecord@@V?$allocator@UFightNPCRecord@@@std@@@std@@QBEIXZ ENDP ; std::vector<FightNPCRecord,std::allocator<FightNPCRecord> >::capacity
_TEXT	ENDS
PUBLIC	?_Inside@?$vector@UFightNPCRecord@@V?$allocator@UFightNPCRecord@@@std@@@std@@IBE_NPBUFightNPCRecord@@@Z ; std::vector<FightNPCRecord,std::allocator<FightNPCRecord> >::_Inside
; Function compile flags: /Ogsp
;	COMDAT ?_Inside@?$vector@UFightNPCRecord@@V?$allocator@UFightNPCRecord@@@std@@@std@@IBE_NPBUFightNPCRecord@@@Z
_TEXT	SEGMENT
__Ptr$ = 8						; size = 4
?_Inside@?$vector@UFightNPCRecord@@V?$allocator@UFightNPCRecord@@@std@@@std@@IBE_NPBUFightNPCRecord@@@Z PROC ; std::vector<FightNPCRecord,std::allocator<FightNPCRecord> >::_Inside, COMDAT
; _this$ = ecx

; 1285 : 		{	// test if _Ptr points inside vector

  00000	55		 push	 ebp
  00001	8b ec		 mov	 ebp, esp

; 1286 : 		return (_Ptr < this->_Mylast && this->_Myfirst <= _Ptr);

  00003	8b 45 08	 mov	 eax, DWORD PTR __Ptr$[ebp]
  00006	3b 41 04	 cmp	 eax, DWORD PTR [ecx+4]
  00009	73 09		 jae	 SHORT $LN3@Inside@5
  0000b	39 01		 cmp	 DWORD PTR [ecx], eax
  0000d	77 05		 ja	 SHORT $LN3@Inside@5
  0000f	33 c0		 xor	 eax, eax
  00011	40		 inc	 eax
  00012	eb 02		 jmp	 SHORT $LN4@Inside@5
$LN3@Inside@5:
  00014	33 c0		 xor	 eax, eax
$LN4@Inside@5:

; 1287 : 		}

  00016	5d		 pop	 ebp
  00017	c2 04 00	 ret	 4
?_Inside@?$vector@UFightNPCRecord@@V?$allocator@UFightNPCRecord@@@std@@@std@@IBE_NPBUFightNPCRecord@@@Z ENDP ; std::vector<FightNPCRecord,std::allocator<FightNPCRecord> >::_Inside
_TEXT	ENDS
PUBLIC	?_Xlen@?$vector@UFightNPCRecord@@V?$allocator@UFightNPCRecord@@@std@@@std@@IBEXXZ ; std::vector<FightNPCRecord,std::allocator<FightNPCRecord> >::_Xlen
; Function compile flags: /Ogsp
;	COMDAT ?_Xlen@?$vector@UFightNPCRecord@@V?$allocator@UFightNPCRecord@@@std@@@std@@IBEXXZ
_TEXT	SEGMENT
?_Xlen@?$vector@UFightNPCRecord@@V?$allocator@UFightNPCRecord@@@std@@@std@@IBEXXZ PROC ; std::vector<FightNPCRecord,std::allocator<FightNPCRecord> >::_Xlen, COMDAT
; _this$ = ecx

; 1427 : 		_Xlength_error("vector<T> too long");

  00000	68 00 00 00 00	 push	 OFFSET ??_C@_0BD@OLBABOEK@vector?$DMT?$DO?5too?5long?$AA@
  00005	ff 15 00 00 00
	00		 call	 DWORD PTR __imp_?_Xlength_error@std@@YAXPBD@Z
$LN4@Xlen@4:
$LN3@Xlen@4:
  0000b	cc		 int	 3
?_Xlen@?$vector@UFightNPCRecord@@V?$allocator@UFightNPCRecord@@@std@@@std@@IBEXXZ ENDP ; std::vector<FightNPCRecord,std::allocator<FightNPCRecord> >::_Xlen
_TEXT	ENDS
PUBLIC	?_Orphan_range@?$vector@UFightNPCRecord@@V?$allocator@UFightNPCRecord@@@std@@@std@@IBEXPAUFightNPCRecord@@0@Z ; std::vector<FightNPCRecord,std::allocator<FightNPCRecord> >::_Orphan_range
; Function compile flags: /Ogsp
;	COMDAT ?_Orphan_range@?$vector@UFightNPCRecord@@V?$allocator@UFightNPCRecord@@@std@@@std@@IBEXPAUFightNPCRecord@@0@Z
_TEXT	SEGMENT
___formal$ = 8						; size = 4
___formal$ = 12						; size = 4
?_Orphan_range@?$vector@UFightNPCRecord@@V?$allocator@UFightNPCRecord@@@std@@@std@@IBEXPAUFightNPCRecord@@0@Z PROC ; std::vector<FightNPCRecord,std::allocator<FightNPCRecord> >::_Orphan_range, COMDAT
; _this$ = ecx

; 1454 : 		}

  00000	c2 08 00	 ret	 8
?_Orphan_range@?$vector@UFightNPCRecord@@V?$allocator@UFightNPCRecord@@@std@@@std@@IBEXPAUFightNPCRecord@@0@Z ENDP ; std::vector<FightNPCRecord,std::allocator<FightNPCRecord> >::_Orphan_range
_TEXT	ENDS
PUBLIC	??1?$_Vector_val@UFightNPCRecord@@V?$allocator@UFightNPCRecord@@@std@@@std@@QAE@XZ ; std::_Vector_val<FightNPCRecord,std::allocator<FightNPCRecord> >::~_Vector_val<FightNPCRecord,std::allocator<FightNPCRecord> >
; Function compile flags: /Ogsp
;	COMDAT ??1?$_Vector_val@UFightNPCRecord@@V?$allocator@UFightNPCRecord@@@std@@@std@@QAE@XZ
_TEXT	SEGMENT
??1?$_Vector_val@UFightNPCRecord@@V?$allocator@UFightNPCRecord@@@std@@@std@@QAE@XZ PROC ; std::_Vector_val<FightNPCRecord,std::allocator<FightNPCRecord> >::~_Vector_val<FightNPCRecord,std::allocator<FightNPCRecord> >, COMDAT
; _this$ = ecx

; 434  : 		}

  00000	c3		 ret	 0
??1?$_Vector_val@UFightNPCRecord@@V?$allocator@UFightNPCRecord@@@std@@@std@@QAE@XZ ENDP ; std::_Vector_val<FightNPCRecord,std::allocator<FightNPCRecord> >::~_Vector_val<FightNPCRecord,std::allocator<FightNPCRecord> >
_TEXT	ENDS
PUBLIC	??0?$allocator@UFightNPCRecord@@@std@@QAE@XZ	; std::allocator<FightNPCRecord>::allocator<FightNPCRecord>
; Function compile flags: /Ogsp
; File c:\program files (x86)\microsoft visual studio 10.0\vc\include\xmemory
;	COMDAT ??0?$allocator@UFightNPCRecord@@@std@@QAE@XZ
_TEXT	SEGMENT
??0?$allocator@UFightNPCRecord@@@std@@QAE@XZ PROC	; std::allocator<FightNPCRecord>::allocator<FightNPCRecord>, COMDAT
; _this$ = ecx

; 161  : 	_ALLOCATOR() _THROW0()

  00000	8b c1		 mov	 eax, ecx

; 162  : 		{	// construct default allocator (do nothing)
; 163  : 		}

  00002	c3		 ret	 0
??0?$allocator@UFightNPCRecord@@@std@@QAE@XZ ENDP	; std::allocator<FightNPCRecord>::allocator<FightNPCRecord>
_TEXT	ENDS
PUBLIC	?deallocate@?$allocator@UFightNPCRecord@@@std@@QAEXPAUFightNPCRecord@@I@Z ; std::allocator<FightNPCRecord>::deallocate
; Function compile flags: /Ogsp
;	COMDAT ?deallocate@?$allocator@UFightNPCRecord@@@std@@QAEXPAUFightNPCRecord@@I@Z
_TEXT	SEGMENT
__Ptr$ = 8						; size = 4
___formal$ = 12						; size = 4
?deallocate@?$allocator@UFightNPCRecord@@@std@@QAEXPAUFightNPCRecord@@I@Z PROC ; std::allocator<FightNPCRecord>::deallocate, COMDAT
; _this$ = ecx

; 181  : 		{	// deallocate object at _Ptr, ignore size

  00000	55		 push	 ebp
  00001	8b ec		 mov	 ebp, esp

; 182  : 		::operator delete(_Ptr);

  00003	ff 75 08	 push	 DWORD PTR __Ptr$[ebp]
  00006	e8 00 00 00 00	 call	 ??3@YAXPAX@Z		; operator delete
  0000b	59		 pop	 ecx

; 183  : 		}

  0000c	5d		 pop	 ebp
  0000d	c2 08 00	 ret	 8
?deallocate@?$allocator@UFightNPCRecord@@@std@@QAEXPAUFightNPCRecord@@I@Z ENDP ; std::allocator<FightNPCRecord>::deallocate
_TEXT	ENDS
PUBLIC	?capacity@?$vector@UPositionDistanceSq@@V?$allocator@UPositionDistanceSq@@@std@@@std@@QBEIXZ ; std::vector<PositionDistanceSq,std::allocator<PositionDistanceSq> >::capacity
; Function compile flags: /Ogsp
; File c:\program files (x86)\microsoft visual studio 10.0\vc\include\vector
;	COMDAT ?capacity@?$vector@UPositionDistanceSq@@V?$allocator@UPositionDistanceSq@@@std@@@std@@QBEIXZ
_TEXT	SEGMENT
?capacity@?$vector@UPositionDistanceSq@@V?$allocator@UPositionDistanceSq@@@std@@@std@@QBEIXZ PROC ; std::vector<PositionDistanceSq,std::allocator<PositionDistanceSq> >::capacity, COMDAT
; _this$ = ecx

; 777  : 		return (this->_Myend - this->_Myfirst);

  00000	8b 41 08	 mov	 eax, DWORD PTR [ecx+8]
  00003	2b 01		 sub	 eax, DWORD PTR [ecx]
  00005	c1 f8 03	 sar	 eax, 3

; 778  : 		}

  00008	c3		 ret	 0
?capacity@?$vector@UPositionDistanceSq@@V?$allocator@UPositionDistanceSq@@@std@@@std@@QBEIXZ ENDP ; std::vector<PositionDistanceSq,std::allocator<PositionDistanceSq> >::capacity
_TEXT	ENDS
PUBLIC	?size@?$vector@UPositionDistanceSq@@V?$allocator@UPositionDistanceSq@@@std@@@std@@QBEIXZ ; std::vector<PositionDistanceSq,std::allocator<PositionDistanceSq> >::size
; Function compile flags: /Ogsp
;	COMDAT ?size@?$vector@UPositionDistanceSq@@V?$allocator@UPositionDistanceSq@@@std@@@std@@QBEIXZ
_TEXT	SEGMENT
?size@?$vector@UPositionDistanceSq@@V?$allocator@UPositionDistanceSq@@@std@@@std@@QBEIXZ PROC ; std::vector<PositionDistanceSq,std::allocator<PositionDistanceSq> >::size, COMDAT
; _this$ = ecx

; 879  : 		return (this->_Mylast - this->_Myfirst);

  00000	8b 41 04	 mov	 eax, DWORD PTR [ecx+4]
  00003	2b 01		 sub	 eax, DWORD PTR [ecx]
  00005	c1 f8 03	 sar	 eax, 3

; 880  : 		}

  00008	c3		 ret	 0
?size@?$vector@UPositionDistanceSq@@V?$allocator@UPositionDistanceSq@@@std@@@std@@QBEIXZ ENDP ; std::vector<PositionDistanceSq,std::allocator<PositionDistanceSq> >::size
_TEXT	ENDS
PUBLIC	?_Inside@?$vector@UPositionDistanceSq@@V?$allocator@UPositionDistanceSq@@@std@@@std@@IBE_NPBUPositionDistanceSq@@@Z ; std::vector<PositionDistanceSq,std::allocator<PositionDistanceSq> >::_Inside
; Function compile flags: /Ogsp
;	COMDAT ?_Inside@?$vector@UPositionDistanceSq@@V?$allocator@UPositionDistanceSq@@@std@@@std@@IBE_NPBUPositionDistanceSq@@@Z
_TEXT	SEGMENT
__Ptr$ = 8						; size = 4
?_Inside@?$vector@UPositionDistanceSq@@V?$allocator@UPositionDistanceSq@@@std@@@std@@IBE_NPBUPositionDistanceSq@@@Z PROC ; std::vector<PositionDistanceSq,std::allocator<PositionDistanceSq> >::_Inside, COMDAT
; _this$ = ecx

; 1285 : 		{	// test if _Ptr points inside vector

  00000	55		 push	 ebp
  00001	8b ec		 mov	 ebp, esp

; 1286 : 		return (_Ptr < this->_Mylast && this->_Myfirst <= _Ptr);

  00003	8b 45 08	 mov	 eax, DWORD PTR __Ptr$[ebp]
  00006	3b 41 04	 cmp	 eax, DWORD PTR [ecx+4]
  00009	73 09		 jae	 SHORT $LN3@Inside@6
  0000b	39 01		 cmp	 DWORD PTR [ecx], eax
  0000d	77 05		 ja	 SHORT $LN3@Inside@6
  0000f	33 c0		 xor	 eax, eax
  00011	40		 inc	 eax
  00012	eb 02		 jmp	 SHORT $LN4@Inside@6
$LN3@Inside@6:
  00014	33 c0		 xor	 eax, eax
$LN4@Inside@6:

; 1287 : 		}

  00016	5d		 pop	 ebp
  00017	c2 04 00	 ret	 4
?_Inside@?$vector@UPositionDistanceSq@@V?$allocator@UPositionDistanceSq@@@std@@@std@@IBE_NPBUPositionDistanceSq@@@Z ENDP ; std::vector<PositionDistanceSq,std::allocator<PositionDistanceSq> >::_Inside
_TEXT	ENDS
PUBLIC	?_Xlen@?$vector@UPositionDistanceSq@@V?$allocator@UPositionDistanceSq@@@std@@@std@@IBEXXZ ; std::vector<PositionDistanceSq,std::allocator<PositionDistanceSq> >::_Xlen
; Function compile flags: /Ogsp
;	COMDAT ?_Xlen@?$vector@UPositionDistanceSq@@V?$allocator@UPositionDistanceSq@@@std@@@std@@IBEXXZ
_TEXT	SEGMENT
?_Xlen@?$vector@UPositionDistanceSq@@V?$allocator@UPositionDistanceSq@@@std@@@std@@IBEXXZ PROC ; std::vector<PositionDistanceSq,std::allocator<PositionDistanceSq> >::_Xlen, COMDAT
; _this$ = ecx

; 1427 : 		_Xlength_error("vector<T> too long");

  00000	68 00 00 00 00	 push	 OFFSET ??_C@_0BD@OLBABOEK@vector?$DMT?$DO?5too?5long?$AA@
  00005	ff 15 00 00 00
	00		 call	 DWORD PTR __imp_?_Xlength_error@std@@YAXPBD@Z
$LN4@Xlen@5:
$LN3@Xlen@5:
  0000b	cc		 int	 3
?_Xlen@?$vector@UPositionDistanceSq@@V?$allocator@UPositionDistanceSq@@@std@@@std@@IBEXXZ ENDP ; std::vector<PositionDistanceSq,std::allocator<PositionDistanceSq> >::_Xlen
_TEXT	ENDS
PUBLIC	?_Orphan_range@?$vector@UPositionDistanceSq@@V?$allocator@UPositionDistanceSq@@@std@@@std@@IBEXPAUPositionDistanceSq@@0@Z ; std::vector<PositionDistanceSq,std::allocator<PositionDistanceSq> >::_Orphan_range
; Function compile flags: /Ogsp
;	COMDAT ?_Orphan_range@?$vector@UPositionDistanceSq@@V?$allocator@UPositionDistanceSq@@@std@@@std@@IBEXPAUPositionDistanceSq@@0@Z
_TEXT	SEGMENT
___formal$ = 8						; size = 4
___formal$ = 12						; size = 4
?_Orphan_range@?$vector@UPositionDistanceSq@@V?$allocator@UPositionDistanceSq@@@std@@@std@@IBEXPAUPositionDistanceSq@@0@Z PROC ; std::vector<PositionDistanceSq,std::allocator<PositionDistanceSq> >::_Orphan_range, COMDAT
; _this$ = ecx

; 1454 : 		}

  00000	c2 08 00	 ret	 8
?_Orphan_range@?$vector@UPositionDistanceSq@@V?$allocator@UPositionDistanceSq@@@std@@@std@@IBEXPAUPositionDistanceSq@@0@Z ENDP ; std::vector<PositionDistanceSq,std::allocator<PositionDistanceSq> >::_Orphan_range
_TEXT	ENDS
PUBLIC	?deallocate@?$allocator@UPositionDistanceSq@@@std@@QAEXPAUPositionDistanceSq@@I@Z ; std::allocator<PositionDistanceSq>::deallocate
; Function compile flags: /Ogsp
; File c:\program files (x86)\microsoft visual studio 10.0\vc\include\xmemory
;	COMDAT ?deallocate@?$allocator@UPositionDistanceSq@@@std@@QAEXPAUPositionDistanceSq@@I@Z
_TEXT	SEGMENT
__Ptr$ = 8						; size = 4
___formal$ = 12						; size = 4
?deallocate@?$allocator@UPositionDistanceSq@@@std@@QAEXPAUPositionDistanceSq@@I@Z PROC ; std::allocator<PositionDistanceSq>::deallocate, COMDAT
; _this$ = ecx

; 181  : 		{	// deallocate object at _Ptr, ignore size

  00000	55		 push	 ebp
  00001	8b ec		 mov	 ebp, esp

; 182  : 		::operator delete(_Ptr);

  00003	ff 75 08	 push	 DWORD PTR __Ptr$[ebp]
  00006	e8 00 00 00 00	 call	 ??3@YAXPAX@Z		; operator delete
  0000b	59		 pop	 ecx

; 183  : 		}

  0000c	5d		 pop	 ebp
  0000d	c2 08 00	 ret	 8
?deallocate@?$allocator@UPositionDistanceSq@@@std@@QAEXPAUPositionDistanceSq@@I@Z ENDP ; std::allocator<PositionDistanceSq>::deallocate
_TEXT	ENDS
PUBLIC	?_Inside@?$vector@UContributeInfo@@V?$allocator@UContributeInfo@@@std@@@std@@IBE_NPBUContributeInfo@@@Z ; std::vector<ContributeInfo,std::allocator<ContributeInfo> >::_Inside
; Function compile flags: /Ogsp
; File c:\program files (x86)\microsoft visual studio 10.0\vc\include\vector
;	COMDAT ?_Inside@?$vector@UContributeInfo@@V?$allocator@UContributeInfo@@@std@@@std@@IBE_NPBUContributeInfo@@@Z
_TEXT	SEGMENT
__Ptr$ = 8						; size = 4
?_Inside@?$vector@UContributeInfo@@V?$allocator@UContributeInfo@@@std@@@std@@IBE_NPBUContributeInfo@@@Z PROC ; std::vector<ContributeInfo,std::allocator<ContributeInfo> >::_Inside, COMDAT
; _this$ = ecx

; 1285 : 		{	// test if _Ptr points inside vector

  00000	55		 push	 ebp
  00001	8b ec		 mov	 ebp, esp

; 1286 : 		return (_Ptr < this->_Mylast && this->_Myfirst <= _Ptr);

  00003	8b 45 08	 mov	 eax, DWORD PTR __Ptr$[ebp]
  00006	3b 41 04	 cmp	 eax, DWORD PTR [ecx+4]
  00009	73 09		 jae	 SHORT $LN3@Inside@7
  0000b	39 01		 cmp	 DWORD PTR [ecx], eax
  0000d	77 05		 ja	 SHORT $LN3@Inside@7
  0000f	33 c0		 xor	 eax, eax
  00011	40		 inc	 eax
  00012	eb 02		 jmp	 SHORT $LN4@Inside@7
$LN3@Inside@7:
  00014	33 c0		 xor	 eax, eax
$LN4@Inside@7:

; 1287 : 		}

  00016	5d		 pop	 ebp
  00017	c2 04 00	 ret	 4
?_Inside@?$vector@UContributeInfo@@V?$allocator@UContributeInfo@@@std@@@std@@IBE_NPBUContributeInfo@@@Z ENDP ; std::vector<ContributeInfo,std::allocator<ContributeInfo> >::_Inside
_TEXT	ENDS
PUBLIC	?_Orphan_range@?$vector@UContributeInfo@@V?$allocator@UContributeInfo@@@std@@@std@@IBEXPAUContributeInfo@@0@Z ; std::vector<ContributeInfo,std::allocator<ContributeInfo> >::_Orphan_range
; Function compile flags: /Ogsp
;	COMDAT ?_Orphan_range@?$vector@UContributeInfo@@V?$allocator@UContributeInfo@@@std@@@std@@IBEXPAUContributeInfo@@0@Z
_TEXT	SEGMENT
___formal$ = 8						; size = 4
___formal$ = 12						; size = 4
?_Orphan_range@?$vector@UContributeInfo@@V?$allocator@UContributeInfo@@@std@@@std@@IBEXPAUContributeInfo@@0@Z PROC ; std::vector<ContributeInfo,std::allocator<ContributeInfo> >::_Orphan_range, COMDAT
; _this$ = ecx

; 1454 : 		}

  00000	c2 08 00	 ret	 8
?_Orphan_range@?$vector@UContributeInfo@@V?$allocator@UContributeInfo@@@std@@@std@@IBEXPAUContributeInfo@@0@Z ENDP ; std::vector<ContributeInfo,std::allocator<ContributeInfo> >::_Orphan_range
_TEXT	ENDS
PUBLIC	??1?$_Vector_val@UContributeInfo@@V?$allocator@UContributeInfo@@@std@@@std@@QAE@XZ ; std::_Vector_val<ContributeInfo,std::allocator<ContributeInfo> >::~_Vector_val<ContributeInfo,std::allocator<ContributeInfo> >
; Function compile flags: /Ogsp
;	COMDAT ??1?$_Vector_val@UContributeInfo@@V?$allocator@UContributeInfo@@@std@@@std@@QAE@XZ
_TEXT	SEGMENT
??1?$_Vector_val@UContributeInfo@@V?$allocator@UContributeInfo@@@std@@@std@@QAE@XZ PROC ; std::_Vector_val<ContributeInfo,std::allocator<ContributeInfo> >::~_Vector_val<ContributeInfo,std::allocator<ContributeInfo> >, COMDAT
; _this$ = ecx

; 434  : 		}

  00000	c3		 ret	 0
??1?$_Vector_val@UContributeInfo@@V?$allocator@UContributeInfo@@@std@@@std@@QAE@XZ ENDP ; std::_Vector_val<ContributeInfo,std::allocator<ContributeInfo> >::~_Vector_val<ContributeInfo,std::allocator<ContributeInfo> >
_TEXT	ENDS
PUBLIC	??0?$allocator@UContributeInfo@@@std@@QAE@XZ	; std::allocator<ContributeInfo>::allocator<ContributeInfo>
; Function compile flags: /Ogsp
; File c:\program files (x86)\microsoft visual studio 10.0\vc\include\xmemory
;	COMDAT ??0?$allocator@UContributeInfo@@@std@@QAE@XZ
_TEXT	SEGMENT
??0?$allocator@UContributeInfo@@@std@@QAE@XZ PROC	; std::allocator<ContributeInfo>::allocator<ContributeInfo>, COMDAT
; _this$ = ecx

; 161  : 	_ALLOCATOR() _THROW0()

  00000	8b c1		 mov	 eax, ecx

; 162  : 		{	// construct default allocator (do nothing)
; 163  : 		}

  00002	c3		 ret	 0
??0?$allocator@UContributeInfo@@@std@@QAE@XZ ENDP	; std::allocator<ContributeInfo>::allocator<ContributeInfo>
_TEXT	ENDS
PUBLIC	??0?$_Vector_const_iterator@V?$_Vector_val@URoundInfo@@V?$allocator@URoundInfo@@@std@@@std@@@std@@QAE@XZ ; std::_Vector_const_iterator<std::_Vector_val<RoundInfo,std::allocator<RoundInfo> > >::_Vector_const_iterator<std::_Vector_val<RoundInfo,std::allocator<RoundInfo> > >
; Function compile flags: /Ogsp
; File c:\program files (x86)\microsoft visual studio 10.0\vc\include\vector
;	COMDAT ??0?$_Vector_const_iterator@V?$_Vector_val@URoundInfo@@V?$allocator@URoundInfo@@@std@@@std@@@std@@QAE@XZ
_TEXT	SEGMENT
??0?$_Vector_const_iterator@V?$_Vector_val@URoundInfo@@V?$allocator@URoundInfo@@@std@@@std@@@std@@QAE@XZ PROC ; std::_Vector_const_iterator<std::_Vector_val<RoundInfo,std::allocator<RoundInfo> > >::_Vector_const_iterator<std::_Vector_val<RoundInfo,std::allocator<RoundInfo> > >, COMDAT
; _this$ = ecx

; 40   : 		{	// construct with null pointer

  00000	8b c1		 mov	 eax, ecx
  00002	83 20 00	 and	 DWORD PTR [eax], 0

; 41   : 		}

  00005	c3		 ret	 0
??0?$_Vector_const_iterator@V?$_Vector_val@URoundInfo@@V?$allocator@URoundInfo@@@std@@@std@@@std@@QAE@XZ ENDP ; std::_Vector_const_iterator<std::_Vector_val<RoundInfo,std::allocator<RoundInfo> > >::_Vector_const_iterator<std::_Vector_val<RoundInfo,std::allocator<RoundInfo> > >
_TEXT	ENDS
PUBLIC	??E?$_Vector_const_iterator@V?$_Vector_val@URoundInfo@@V?$allocator@URoundInfo@@@std@@@std@@@std@@QAEAAV01@XZ ; std::_Vector_const_iterator<std::_Vector_val<RoundInfo,std::allocator<RoundInfo> > >::operator++
; Function compile flags: /Ogsp
;	COMDAT ??E?$_Vector_const_iterator@V?$_Vector_val@URoundInfo@@V?$allocator@URoundInfo@@@std@@@std@@@std@@QAEAAV01@XZ
_TEXT	SEGMENT
??E?$_Vector_const_iterator@V?$_Vector_val@URoundInfo@@V?$allocator@URoundInfo@@@std@@@std@@@std@@QAEAAV01@XZ PROC ; std::_Vector_const_iterator<std::_Vector_val<RoundInfo,std::allocator<RoundInfo> > >::operator++, COMDAT
; _this$ = ecx

; 93   : 		{	// preincrement

  00000	8b c1		 mov	 eax, ecx

; 94   :  #if _ITERATOR_DEBUG_LEVEL == 2
; 95   : 		if (this->_Getcont() == 0
; 96   : 			|| this->_Ptr == 0
; 97   : 			|| ((_Myvec *)this->_Getcont())->_Mylast <= this->_Ptr)
; 98   : 			{	// report error
; 99   : 			_DEBUG_ERROR("vector iterator not incrementable");
; 100  : 			_SCL_SECURE_OUT_OF_RANGE;
; 101  : 			}
; 102  : 
; 103  :  #elif _ITERATOR_DEBUG_LEVEL == 1
; 104  : 		_SCL_SECURE_VALIDATE(this->_Getcont() != 0);
; 105  : 		_SCL_SECURE_VALIDATE_RANGE(
; 106  : 			this->_Ptr != 0
; 107  : 			&& this->_Ptr < ((_Myvec *)this->_Getcont())->_Mylast);
; 108  :  #endif /* _ITERATOR_DEBUG_LEVEL */
; 109  : 
; 110  : 		++this->_Ptr;

  00002	83 28 80	 sub	 DWORD PTR [eax], -128	; ffffff80H

; 111  : 		return (*this);
; 112  : 		}

  00005	c3		 ret	 0
??E?$_Vector_const_iterator@V?$_Vector_val@URoundInfo@@V?$allocator@URoundInfo@@@std@@@std@@@std@@QAEAAV01@XZ ENDP ; std::_Vector_const_iterator<std::_Vector_val<RoundInfo,std::allocator<RoundInfo> > >::operator++
_TEXT	ENDS
PUBLIC	??0?$allocator@UD3DXVECTOR3@@@std@@QAE@ABV01@@Z	; std::allocator<D3DXVECTOR3>::allocator<D3DXVECTOR3>
; Function compile flags: /Ogsp
; File c:\program files (x86)\microsoft visual studio 10.0\vc\include\xmemory
;	COMDAT ??0?$allocator@UD3DXVECTOR3@@@std@@QAE@ABV01@@Z
_TEXT	SEGMENT
___formal$ = 8						; size = 4
??0?$allocator@UD3DXVECTOR3@@@std@@QAE@ABV01@@Z PROC	; std::allocator<D3DXVECTOR3>::allocator<D3DXVECTOR3>, COMDAT
; _this$ = ecx

; 165  : 	_ALLOCATOR(const _ALLOCATOR<_Ty>&) _THROW0()

  00000	8b c1		 mov	 eax, ecx

; 166  : 		{	// construct by copying (do nothing)
; 167  : 		}

  00002	c2 04 00	 ret	 4
??0?$allocator@UD3DXVECTOR3@@@std@@QAE@ABV01@@Z ENDP	; std::allocator<D3DXVECTOR3>::allocator<D3DXVECTOR3>
_TEXT	ENDS
PUBLIC	?max_size@?$allocator@UD3DXVECTOR3@@@std@@QBEIXZ ; std::allocator<D3DXVECTOR3>::max_size
; Function compile flags: /Ogsp
;	COMDAT ?max_size@?$allocator@UD3DXVECTOR3@@@std@@QBEIXZ
_TEXT	SEGMENT
?max_size@?$allocator@UD3DXVECTOR3@@@std@@QBEIXZ PROC	; std::allocator<D3DXVECTOR3>::max_size, COMDAT
; _this$ = ecx

; 218  : 		_SIZT _Count = (_SIZT)(-1) / sizeof (_Ty);
; 219  : 		return (0 < _Count ? _Count : 1);

  00000	b8 55 55 55 15	 mov	 eax, 357913941		; 15555555H

; 220  : 		}

  00005	c3		 ret	 0
?max_size@?$allocator@UD3DXVECTOR3@@@std@@QBEIXZ ENDP	; std::allocator<D3DXVECTOR3>::max_size
_TEXT	ENDS
PUBLIC	?max_size@?$allocator@URoundInfo@@@std@@QBEIXZ	; std::allocator<RoundInfo>::max_size
; Function compile flags: /Ogsp
;	COMDAT ?max_size@?$allocator@URoundInfo@@@std@@QBEIXZ
_TEXT	SEGMENT
?max_size@?$allocator@URoundInfo@@@std@@QBEIXZ PROC	; std::allocator<RoundInfo>::max_size, COMDAT
; _this$ = ecx

; 218  : 		_SIZT _Count = (_SIZT)(-1) / sizeof (_Ty);
; 219  : 		return (0 < _Count ? _Count : 1);

  00000	b8 ff ff ff 01	 mov	 eax, 33554431		; 01ffffffH

; 220  : 		}

  00005	c3		 ret	 0
?max_size@?$allocator@URoundInfo@@@std@@QBEIXZ ENDP	; std::allocator<RoundInfo>::max_size
_TEXT	ENDS
PUBLIC	??0?$allocator@UFightClubRecord@@@std@@QAE@ABV01@@Z ; std::allocator<FightClubRecord>::allocator<FightClubRecord>
; Function compile flags: /Ogsp
;	COMDAT ??0?$allocator@UFightClubRecord@@@std@@QAE@ABV01@@Z
_TEXT	SEGMENT
___formal$ = 8						; size = 4
??0?$allocator@UFightClubRecord@@@std@@QAE@ABV01@@Z PROC ; std::allocator<FightClubRecord>::allocator<FightClubRecord>, COMDAT
; _this$ = ecx

; 165  : 	_ALLOCATOR(const _ALLOCATOR<_Ty>&) _THROW0()

  00000	8b c1		 mov	 eax, ecx

; 166  : 		{	// construct by copying (do nothing)
; 167  : 		}

  00002	c2 04 00	 ret	 4
??0?$allocator@UFightClubRecord@@@std@@QAE@ABV01@@Z ENDP ; std::allocator<FightClubRecord>::allocator<FightClubRecord>
_TEXT	ENDS
PUBLIC	?max_size@?$allocator@UFightClubRecord@@@std@@QBEIXZ ; std::allocator<FightClubRecord>::max_size
; Function compile flags: /Ogsp
;	COMDAT ?max_size@?$allocator@UFightClubRecord@@@std@@QBEIXZ
_TEXT	SEGMENT
?max_size@?$allocator@UFightClubRecord@@@std@@QBEIXZ PROC ; std::allocator<FightClubRecord>::max_size, COMDAT
; _this$ = ecx

; 218  : 		_SIZT _Count = (_SIZT)(-1) / sizeof (_Ty);
; 219  : 		return (0 < _Count ? _Count : 1);

  00000	b8 96 7b 1a 01	 mov	 eax, 18512790		; 011a7b96H

; 220  : 		}

  00005	c3		 ret	 0
?max_size@?$allocator@UFightClubRecord@@@std@@QBEIXZ ENDP ; std::allocator<FightClubRecord>::max_size
_TEXT	ENDS
PUBLIC	??0?$allocator@UFightNPCRecord@@@std@@QAE@ABV01@@Z ; std::allocator<FightNPCRecord>::allocator<FightNPCRecord>
; Function compile flags: /Ogsp
;	COMDAT ??0?$allocator@UFightNPCRecord@@@std@@QAE@ABV01@@Z
_TEXT	SEGMENT
___formal$ = 8						; size = 4
??0?$allocator@UFightNPCRecord@@@std@@QAE@ABV01@@Z PROC	; std::allocator<FightNPCRecord>::allocator<FightNPCRecord>, COMDAT
; _this$ = ecx

; 165  : 	_ALLOCATOR(const _ALLOCATOR<_Ty>&) _THROW0()

  00000	8b c1		 mov	 eax, ecx

; 166  : 		{	// construct by copying (do nothing)
; 167  : 		}

  00002	c2 04 00	 ret	 4
??0?$allocator@UFightNPCRecord@@@std@@QAE@ABV01@@Z ENDP	; std::allocator<FightNPCRecord>::allocator<FightNPCRecord>
_TEXT	ENDS
PUBLIC	?max_size@?$allocator@UFightNPCRecord@@@std@@QBEIXZ ; std::allocator<FightNPCRecord>::max_size
; Function compile flags: /Ogsp
;	COMDAT ?max_size@?$allocator@UFightNPCRecord@@@std@@QBEIXZ
_TEXT	SEGMENT
?max_size@?$allocator@UFightNPCRecord@@@std@@QBEIXZ PROC ; std::allocator<FightNPCRecord>::max_size, COMDAT
; _this$ = ecx

; 218  : 		_SIZT _Count = (_SIZT)(-1) / sizeof (_Ty);
; 219  : 		return (0 < _Count ? _Count : 1);

  00000	b8 5d 74 d1 05	 mov	 eax, 97612893		; 05d1745dH

; 220  : 		}

  00005	c3		 ret	 0
?max_size@?$allocator@UFightNPCRecord@@@std@@QBEIXZ ENDP ; std::allocator<FightNPCRecord>::max_size
_TEXT	ENDS
PUBLIC	?max_size@?$allocator@UPositionDistanceSq@@@std@@QBEIXZ ; std::allocator<PositionDistanceSq>::max_size
; Function compile flags: /Ogsp
;	COMDAT ?max_size@?$allocator@UPositionDistanceSq@@@std@@QBEIXZ
_TEXT	SEGMENT
?max_size@?$allocator@UPositionDistanceSq@@@std@@QBEIXZ PROC ; std::allocator<PositionDistanceSq>::max_size, COMDAT
; _this$ = ecx

; 218  : 		_SIZT _Count = (_SIZT)(-1) / sizeof (_Ty);
; 219  : 		return (0 < _Count ? _Count : 1);

  00000	b8 ff ff ff 1f	 mov	 eax, 536870911		; 1fffffffH

; 220  : 		}

  00005	c3		 ret	 0
?max_size@?$allocator@UPositionDistanceSq@@@std@@QBEIXZ ENDP ; std::allocator<PositionDistanceSq>::max_size
_TEXT	ENDS
PUBLIC	??0?$_Vector_const_iterator@V?$_Vector_val@UPositionDistanceSq@@V?$allocator@UPositionDistanceSq@@@std@@@std@@@std@@QAE@PAUPositionDistanceSq@@PBU_Container_base0@1@@Z ; std::_Vector_const_iterator<std::_Vector_val<PositionDistanceSq,std::allocator<PositionDistanceSq> > >::_Vector_const_iterator<std::_Vector_val<PositionDistanceSq,std::allocator<PositionDistanceSq> > >
; Function compile flags: /Ogsp
; File c:\program files (x86)\microsoft visual studio 10.0\vc\include\vector
;	COMDAT ??0?$_Vector_const_iterator@V?$_Vector_val@UPositionDistanceSq@@V?$allocator@UPositionDistanceSq@@@std@@@std@@@std@@QAE@PAUPositionDistanceSq@@PBU_Container_base0@1@@Z
_TEXT	SEGMENT
__Parg$ = 8						; size = 4
__Pvector$ = 12						; size = 4
??0?$_Vector_const_iterator@V?$_Vector_val@UPositionDistanceSq@@V?$allocator@UPositionDistanceSq@@@std@@@std@@@std@@QAE@PAUPositionDistanceSq@@PBU_Container_base0@1@@Z PROC ; std::_Vector_const_iterator<std::_Vector_val<PositionDistanceSq,std::allocator<PositionDistanceSq> > >::_Vector_const_iterator<std::_Vector_val<PositionDistanceSq,std::allocator<PositionDistanceSq> > >, COMDAT
; _this$ = ecx

; 45   : 		{	// construct with pointer _Parg

  00000	55		 push	 ebp
  00001	8b ec		 mov	 ebp, esp
  00003	8b c1		 mov	 eax, ecx
  00005	8b 4d 08	 mov	 ecx, DWORD PTR __Parg$[ebp]
  00008	89 08		 mov	 DWORD PTR [eax], ecx

; 46   : 		this->_Adopt(_Pvector);
; 47   : 		}

  0000a	5d		 pop	 ebp
  0000b	c2 08 00	 ret	 8
??0?$_Vector_const_iterator@V?$_Vector_val@UPositionDistanceSq@@V?$allocator@UPositionDistanceSq@@@std@@@std@@@std@@QAE@PAUPositionDistanceSq@@PBU_Container_base0@1@@Z ENDP ; std::_Vector_const_iterator<std::_Vector_val<PositionDistanceSq,std::allocator<PositionDistanceSq> > >::_Vector_const_iterator<std::_Vector_val<PositionDistanceSq,std::allocator<PositionDistanceSq> > >
_TEXT	ENDS
PUBLIC	??0?$_Vector_const_iterator@V?$_Vector_val@UFightClubRecord@@V?$allocator@UFightClubRecord@@@std@@@std@@@std@@QAE@PAUFightClubRecord@@PBU_Container_base0@1@@Z ; std::_Vector_const_iterator<std::_Vector_val<FightClubRecord,std::allocator<FightClubRecord> > >::_Vector_const_iterator<std::_Vector_val<FightClubRecord,std::allocator<FightClubRecord> > >
; Function compile flags: /Ogsp
;	COMDAT ??0?$_Vector_const_iterator@V?$_Vector_val@UFightClubRecord@@V?$allocator@UFightClubRecord@@@std@@@std@@@std@@QAE@PAUFightClubRecord@@PBU_Container_base0@1@@Z
_TEXT	SEGMENT
__Parg$ = 8						; size = 4
__Pvector$ = 12						; size = 4
??0?$_Vector_const_iterator@V?$_Vector_val@UFightClubRecord@@V?$allocator@UFightClubRecord@@@std@@@std@@@std@@QAE@PAUFightClubRecord@@PBU_Container_base0@1@@Z PROC ; std::_Vector_const_iterator<std::_Vector_val<FightClubRecord,std::allocator<FightClubRecord> > >::_Vector_const_iterator<std::_Vector_val<FightClubRecord,std::allocator<FightClubRecord> > >, COMDAT
; _this$ = ecx

; 45   : 		{	// construct with pointer _Parg

  00000	55		 push	 ebp
  00001	8b ec		 mov	 ebp, esp
  00003	8b c1		 mov	 eax, ecx
  00005	8b 4d 08	 mov	 ecx, DWORD PTR __Parg$[ebp]
  00008	89 08		 mov	 DWORD PTR [eax], ecx

; 46   : 		this->_Adopt(_Pvector);
; 47   : 		}

  0000a	5d		 pop	 ebp
  0000b	c2 08 00	 ret	 8
??0?$_Vector_const_iterator@V?$_Vector_val@UFightClubRecord@@V?$allocator@UFightClubRecord@@@std@@@std@@@std@@QAE@PAUFightClubRecord@@PBU_Container_base0@1@@Z ENDP ; std::_Vector_const_iterator<std::_Vector_val<FightClubRecord,std::allocator<FightClubRecord> > >::_Vector_const_iterator<std::_Vector_val<FightClubRecord,std::allocator<FightClubRecord> > >
_TEXT	ENDS
PUBLIC	??Y?$_Vector_const_iterator@V?$_Vector_val@UFightClubRecord@@V?$allocator@UFightClubRecord@@@std@@@std@@@std@@QAEAAV01@H@Z ; std::_Vector_const_iterator<std::_Vector_val<FightClubRecord,std::allocator<FightClubRecord> > >::operator+=
; Function compile flags: /Ogsp
;	COMDAT ??Y?$_Vector_const_iterator@V?$_Vector_val@UFightClubRecord@@V?$allocator@UFightClubRecord@@@std@@@std@@@std@@QAEAAV01@H@Z
_TEXT	SEGMENT
__Off$ = 8						; size = 4
??Y?$_Vector_const_iterator@V?$_Vector_val@UFightClubRecord@@V?$allocator@UFightClubRecord@@@std@@@std@@@std@@QAEAAV01@H@Z PROC ; std::_Vector_const_iterator<std::_Vector_val<FightClubRecord,std::allocator<FightClubRecord> > >::operator+=, COMDAT
; _this$ = ecx

; 151  : 		{	// increment by integer

  00000	55		 push	 ebp
  00001	8b ec		 mov	 ebp, esp
  00003	8b c1		 mov	 eax, ecx

; 152  :  #if _ITERATOR_DEBUG_LEVEL == 2
; 153  : 		if (this->_Getcont() == 0
; 154  : 			|| this->_Ptr + _Off < ((_Myvec *)this->_Getcont())->_Myfirst
; 155  : 			|| ((_Myvec *)this->_Getcont())->_Mylast < this->_Ptr + _Off)
; 156  : 			{	// report error
; 157  : 			_DEBUG_ERROR("vector iterator + offset out of range");
; 158  : 			_SCL_SECURE_OUT_OF_RANGE;
; 159  : 			}
; 160  : 
; 161  :  #elif _ITERATOR_DEBUG_LEVEL == 1
; 162  : 		_SCL_SECURE_VALIDATE(this->_Getcont() != 0);
; 163  : 		_SCL_SECURE_VALIDATE_RANGE(
; 164  : 			((_Myvec *)this->_Getcont())->_Myfirst <= this->_Ptr + _Off
; 165  : 			&& this->_Ptr + _Off <= ((_Myvec *)this->_Getcont())->_Mylast);
; 166  :  #endif /* _ITERATOR_DEBUG_LEVEL */
; 167  : 
; 168  : 		_Ptr += _Off;

  00005	8b 4d 08	 mov	 ecx, DWORD PTR __Off$[ebp]
  00008	69 c9 e8 00 00
	00		 imul	 ecx, 232		; 000000e8H
  0000e	01 08		 add	 DWORD PTR [eax], ecx

; 169  : 		return (*this);
; 170  : 		}

  00010	5d		 pop	 ebp
  00011	c2 04 00	 ret	 4
??Y?$_Vector_const_iterator@V?$_Vector_val@UFightClubRecord@@V?$allocator@UFightClubRecord@@@std@@@std@@@std@@QAEAAV01@H@Z ENDP ; std::_Vector_const_iterator<std::_Vector_val<FightClubRecord,std::allocator<FightClubRecord> > >::operator+=
_TEXT	ENDS
PUBLIC	?capacity@?$vector@UContributeInfo@@V?$allocator@UContributeInfo@@@std@@@std@@QBEIXZ ; std::vector<ContributeInfo,std::allocator<ContributeInfo> >::capacity
; Function compile flags: /Ogsp
;	COMDAT ?capacity@?$vector@UContributeInfo@@V?$allocator@UContributeInfo@@@std@@@std@@QBEIXZ
_TEXT	SEGMENT
?capacity@?$vector@UContributeInfo@@V?$allocator@UContributeInfo@@@std@@@std@@QBEIXZ PROC ; std::vector<ContributeInfo,std::allocator<ContributeInfo> >::capacity, COMDAT
; _this$ = ecx

; 777  : 		return (this->_Myend - this->_Myfirst);

  00000	8b 41 08	 mov	 eax, DWORD PTR [ecx+8]
  00003	2b 01		 sub	 eax, DWORD PTR [ecx]
  00005	c1 f8 05	 sar	 eax, 5

; 778  : 		}

  00008	c3		 ret	 0
?capacity@?$vector@UContributeInfo@@V?$allocator@UContributeInfo@@@std@@@std@@QBEIXZ ENDP ; std::vector<ContributeInfo,std::allocator<ContributeInfo> >::capacity
_TEXT	ENDS
PUBLIC	?_Xlen@?$vector@UContributeInfo@@V?$allocator@UContributeInfo@@@std@@@std@@IBEXXZ ; std::vector<ContributeInfo,std::allocator<ContributeInfo> >::_Xlen
; Function compile flags: /Ogsp
;	COMDAT ?_Xlen@?$vector@UContributeInfo@@V?$allocator@UContributeInfo@@@std@@@std@@IBEXXZ
_TEXT	SEGMENT
?_Xlen@?$vector@UContributeInfo@@V?$allocator@UContributeInfo@@@std@@@std@@IBEXXZ PROC ; std::vector<ContributeInfo,std::allocator<ContributeInfo> >::_Xlen, COMDAT
; _this$ = ecx

; 1427 : 		_Xlength_error("vector<T> too long");

  00000	68 00 00 00 00	 push	 OFFSET ??_C@_0BD@OLBABOEK@vector?$DMT?$DO?5too?5long?$AA@
  00005	ff 15 00 00 00
	00		 call	 DWORD PTR __imp_?_Xlength_error@std@@YAXPBD@Z
$LN4@Xlen@6:
$LN3@Xlen@6:
  0000b	cc		 int	 3
?_Xlen@?$vector@UContributeInfo@@V?$allocator@UContributeInfo@@@std@@@std@@IBEXXZ ENDP ; std::vector<ContributeInfo,std::allocator<ContributeInfo> >::_Xlen
_TEXT	ENDS
PUBLIC	??0?$allocator@UContributeInfo@@@std@@QAE@ABV01@@Z ; std::allocator<ContributeInfo>::allocator<ContributeInfo>
; Function compile flags: /Ogsp
; File c:\program files (x86)\microsoft visual studio 10.0\vc\include\xmemory
;	COMDAT ??0?$allocator@UContributeInfo@@@std@@QAE@ABV01@@Z
_TEXT	SEGMENT
___formal$ = 8						; size = 4
??0?$allocator@UContributeInfo@@@std@@QAE@ABV01@@Z PROC	; std::allocator<ContributeInfo>::allocator<ContributeInfo>, COMDAT
; _this$ = ecx

; 165  : 	_ALLOCATOR(const _ALLOCATOR<_Ty>&) _THROW0()

  00000	8b c1		 mov	 eax, ecx

; 166  : 		{	// construct by copying (do nothing)
; 167  : 		}

  00002	c2 04 00	 ret	 4
??0?$allocator@UContributeInfo@@@std@@QAE@ABV01@@Z ENDP	; std::allocator<ContributeInfo>::allocator<ContributeInfo>
_TEXT	ENDS
PUBLIC	?deallocate@?$allocator@UContributeInfo@@@std@@QAEXPAUContributeInfo@@I@Z ; std::allocator<ContributeInfo>::deallocate
; Function compile flags: /Ogsp
;	COMDAT ?deallocate@?$allocator@UContributeInfo@@@std@@QAEXPAUContributeInfo@@I@Z
_TEXT	SEGMENT
__Ptr$ = 8						; size = 4
___formal$ = 12						; size = 4
?deallocate@?$allocator@UContributeInfo@@@std@@QAEXPAUContributeInfo@@I@Z PROC ; std::allocator<ContributeInfo>::deallocate, COMDAT
; _this$ = ecx

; 181  : 		{	// deallocate object at _Ptr, ignore size

  00000	55		 push	 ebp
  00001	8b ec		 mov	 ebp, esp

; 182  : 		::operator delete(_Ptr);

  00003	ff 75 08	 push	 DWORD PTR __Ptr$[ebp]
  00006	e8 00 00 00 00	 call	 ??3@YAXPAX@Z		; operator delete
  0000b	59		 pop	 ecx

; 183  : 		}

  0000c	5d		 pop	 ebp
  0000d	c2 08 00	 ret	 8
?deallocate@?$allocator@UContributeInfo@@@std@@QAEXPAUContributeInfo@@I@Z ENDP ; std::allocator<ContributeInfo>::deallocate
_TEXT	ENDS
PUBLIC	??0?$_Vector_const_iterator@V?$_Vector_val@UContributeInfo@@V?$allocator@UContributeInfo@@@std@@@std@@@std@@QAE@PAUContributeInfo@@PBU_Container_base0@1@@Z ; std::_Vector_const_iterator<std::_Vector_val<ContributeInfo,std::allocator<ContributeInfo> > >::_Vector_const_iterator<std::_Vector_val<ContributeInfo,std::allocator<ContributeInfo> > >
; Function compile flags: /Ogsp
; File c:\program files (x86)\microsoft visual studio 10.0\vc\include\vector
;	COMDAT ??0?$_Vector_const_iterator@V?$_Vector_val@UContributeInfo@@V?$allocator@UContributeInfo@@@std@@@std@@@std@@QAE@PAUContributeInfo@@PBU_Container_base0@1@@Z
_TEXT	SEGMENT
__Parg$ = 8						; size = 4
__Pvector$ = 12						; size = 4
??0?$_Vector_const_iterator@V?$_Vector_val@UContributeInfo@@V?$allocator@UContributeInfo@@@std@@@std@@@std@@QAE@PAUContributeInfo@@PBU_Container_base0@1@@Z PROC ; std::_Vector_const_iterator<std::_Vector_val<ContributeInfo,std::allocator<ContributeInfo> > >::_Vector_const_iterator<std::_Vector_val<ContributeInfo,std::allocator<ContributeInfo> > >, COMDAT
; _this$ = ecx

; 45   : 		{	// construct with pointer _Parg

  00000	55		 push	 ebp
  00001	8b ec		 mov	 ebp, esp
  00003	8b c1		 mov	 eax, ecx
  00005	8b 4d 08	 mov	 ecx, DWORD PTR __Parg$[ebp]
  00008	89 08		 mov	 DWORD PTR [eax], ecx

; 46   : 		this->_Adopt(_Pvector);
; 47   : 		}

  0000a	5d		 pop	 ebp
  0000b	c2 08 00	 ret	 8
??0?$_Vector_const_iterator@V?$_Vector_val@UContributeInfo@@V?$allocator@UContributeInfo@@@std@@@std@@@std@@QAE@PAUContributeInfo@@PBU_Container_base0@1@@Z ENDP ; std::_Vector_const_iterator<std::_Vector_val<ContributeInfo,std::allocator<ContributeInfo> > >::_Vector_const_iterator<std::_Vector_val<ContributeInfo,std::allocator<ContributeInfo> > >
_TEXT	ENDS
PUBLIC	??0?$_Vector_const_iterator@V?$_Vector_val@URoundInfo@@V?$allocator@URoundInfo@@@std@@@std@@@std@@QAE@PAURoundInfo@@PBU_Container_base0@1@@Z ; std::_Vector_const_iterator<std::_Vector_val<RoundInfo,std::allocator<RoundInfo> > >::_Vector_const_iterator<std::_Vector_val<RoundInfo,std::allocator<RoundInfo> > >
; Function compile flags: /Ogsp
;	COMDAT ??0?$_Vector_const_iterator@V?$_Vector_val@URoundInfo@@V?$allocator@URoundInfo@@@std@@@std@@@std@@QAE@PAURoundInfo@@PBU_Container_base0@1@@Z
_TEXT	SEGMENT
__Parg$ = 8						; size = 4
__Pvector$ = 12						; size = 4
??0?$_Vector_const_iterator@V?$_Vector_val@URoundInfo@@V?$allocator@URoundInfo@@@std@@@std@@@std@@QAE@PAURoundInfo@@PBU_Container_base0@1@@Z PROC ; std::_Vector_const_iterator<std::_Vector_val<RoundInfo,std::allocator<RoundInfo> > >::_Vector_const_iterator<std::_Vector_val<RoundInfo,std::allocator<RoundInfo> > >, COMDAT
; _this$ = ecx

; 45   : 		{	// construct with pointer _Parg

  00000	55		 push	 ebp
  00001	8b ec		 mov	 ebp, esp
  00003	8b c1		 mov	 eax, ecx
  00005	8b 4d 08	 mov	 ecx, DWORD PTR __Parg$[ebp]
  00008	89 08		 mov	 DWORD PTR [eax], ecx

; 46   : 		this->_Adopt(_Pvector);
; 47   : 		}

  0000a	5d		 pop	 ebp
  0000b	c2 08 00	 ret	 8
??0?$_Vector_const_iterator@V?$_Vector_val@URoundInfo@@V?$allocator@URoundInfo@@@std@@@std@@@std@@QAE@PAURoundInfo@@PBU_Container_base0@1@@Z ENDP ; std::_Vector_const_iterator<std::_Vector_val<RoundInfo,std::allocator<RoundInfo> > >::_Vector_const_iterator<std::_Vector_val<RoundInfo,std::allocator<RoundInfo> > >
_TEXT	ENDS
PUBLIC	??D?$_Vector_const_iterator@V?$_Vector_val@URoundInfo@@V?$allocator@URoundInfo@@@std@@@std@@@std@@QBEABURoundInfo@@XZ ; std::_Vector_const_iterator<std::_Vector_val<RoundInfo,std::allocator<RoundInfo> > >::operator*
; Function compile flags: /Ogsp
;	COMDAT ??D?$_Vector_const_iterator@V?$_Vector_val@URoundInfo@@V?$allocator@URoundInfo@@@std@@@std@@@std@@QBEABURoundInfo@@XZ
_TEXT	SEGMENT
??D?$_Vector_const_iterator@V?$_Vector_val@URoundInfo@@V?$allocator@URoundInfo@@@std@@@std@@@std@@QBEABURoundInfo@@XZ PROC ; std::_Vector_const_iterator<std::_Vector_val<RoundInfo,std::allocator<RoundInfo> > >::operator*, COMDAT
; _this$ = ecx

; 64   :  #if _ITERATOR_DEBUG_LEVEL == 2
; 65   : 		if (this->_Getcont() == 0
; 66   : 			|| this->_Ptr == 0
; 67   : 			|| this->_Ptr < ((_Myvec *)this->_Getcont())->_Myfirst
; 68   : 			|| ((_Myvec *)this->_Getcont())->_Mylast <= this->_Ptr)
; 69   : 			{	// report error
; 70   : 			_DEBUG_ERROR("vector iterator not dereferencable");
; 71   : 			_SCL_SECURE_OUT_OF_RANGE;
; 72   : 			}
; 73   : 
; 74   :  #elif _ITERATOR_DEBUG_LEVEL == 1
; 75   : 		_SCL_SECURE_VALIDATE(this->_Getcont() != 0);
; 76   : 		_SCL_SECURE_VALIDATE_RANGE(
; 77   : 			this->_Ptr != 0
; 78   : 			&& ((_Myvec *)this->_Getcont())->_Myfirst <= this->_Ptr
; 79   : 			&& this->_Ptr < ((_Myvec *)this->_Getcont())->_Mylast);
; 80   :  #endif /* _ITERATOR_DEBUG_LEVEL */
; 81   : 
; 82   : 		__analysis_assume(this->_Ptr != 0);
; 83   : 
; 84   : 		return (*this->_Ptr);

  00000	8b 01		 mov	 eax, DWORD PTR [ecx]

; 85   : 		}

  00002	c3		 ret	 0
??D?$_Vector_const_iterator@V?$_Vector_val@URoundInfo@@V?$allocator@URoundInfo@@@std@@@std@@@std@@QBEABURoundInfo@@XZ ENDP ; std::_Vector_const_iterator<std::_Vector_val<RoundInfo,std::allocator<RoundInfo> > >::operator*
_TEXT	ENDS
PUBLIC	?_Compat@?$_Vector_const_iterator@V?$_Vector_val@URoundInfo@@V?$allocator@URoundInfo@@@std@@@std@@@std@@QBEXABV12@@Z ; std::_Vector_const_iterator<std::_Vector_val<RoundInfo,std::allocator<RoundInfo> > >::_Compat
; Function compile flags: /Ogsp
;	COMDAT ?_Compat@?$_Vector_const_iterator@V?$_Vector_val@URoundInfo@@V?$allocator@URoundInfo@@@std@@@std@@@std@@QBEXABV12@@Z
_TEXT	SEGMENT
___formal$ = 8						; size = 4
?_Compat@?$_Vector_const_iterator@V?$_Vector_val@URoundInfo@@V?$allocator@URoundInfo@@@std@@@std@@@std@@QBEXABV12@@Z PROC ; std::_Vector_const_iterator<std::_Vector_val<RoundInfo,std::allocator<RoundInfo> > >::_Compat, COMDAT
; _this$ = ecx

; 253  : 		}

  00000	c2 04 00	 ret	 4
?_Compat@?$_Vector_const_iterator@V?$_Vector_val@URoundInfo@@V?$allocator@URoundInfo@@@std@@@std@@@std@@QBEXABV12@@Z ENDP ; std::_Vector_const_iterator<std::_Vector_val<RoundInfo,std::allocator<RoundInfo> > >::_Compat
_TEXT	ENDS
PUBLIC	?max_size@?$allocator@UContributeInfo@@@std@@QBEIXZ ; std::allocator<ContributeInfo>::max_size
; Function compile flags: /Ogsp
; File c:\program files (x86)\microsoft visual studio 10.0\vc\include\xmemory
;	COMDAT ?max_size@?$allocator@UContributeInfo@@@std@@QBEIXZ
_TEXT	SEGMENT
?max_size@?$allocator@UContributeInfo@@@std@@QBEIXZ PROC ; std::allocator<ContributeInfo>::max_size, COMDAT
; _this$ = ecx

; 218  : 		_SIZT _Count = (_SIZT)(-1) / sizeof (_Ty);
; 219  : 		return (0 < _Count ? _Count : 1);

  00000	b8 ff ff ff 07	 mov	 eax, 134217727		; 07ffffffH

; 220  : 		}

  00005	c3		 ret	 0
?max_size@?$allocator@UContributeInfo@@@std@@QBEIXZ ENDP ; std::allocator<ContributeInfo>::max_size
_TEXT	ENDS
PUBLIC	??0?$_Vector_const_iterator@V?$_Vector_val@UD3DXVECTOR3@@V?$allocator@UD3DXVECTOR3@@@std@@@std@@@std@@QAE@PAUD3DXVECTOR3@@PBU_Container_base0@1@@Z ; std::_Vector_const_iterator<std::_Vector_val<D3DXVECTOR3,std::allocator<D3DXVECTOR3> > >::_Vector_const_iterator<std::_Vector_val<D3DXVECTOR3,std::allocator<D3DXVECTOR3> > >
; Function compile flags: /Ogsp
; File c:\program files (x86)\microsoft visual studio 10.0\vc\include\vector
;	COMDAT ??0?$_Vector_const_iterator@V?$_Vector_val@UD3DXVECTOR3@@V?$allocator@UD3DXVECTOR3@@@std@@@std@@@std@@QAE@PAUD3DXVECTOR3@@PBU_Container_base0@1@@Z
_TEXT	SEGMENT
__Parg$ = 8						; size = 4
__Pvector$ = 12						; size = 4
??0?$_Vector_const_iterator@V?$_Vector_val@UD3DXVECTOR3@@V?$allocator@UD3DXVECTOR3@@@std@@@std@@@std@@QAE@PAUD3DXVECTOR3@@PBU_Container_base0@1@@Z PROC ; std::_Vector_const_iterator<std::_Vector_val<D3DXVECTOR3,std::allocator<D3DXVECTOR3> > >::_Vector_const_iterator<std::_Vector_val<D3DXVECTOR3,std::allocator<D3DXVECTOR3> > >, COMDAT
; _this$ = ecx

; 45   : 		{	// construct with pointer _Parg

  00000	55		 push	 ebp
  00001	8b ec		 mov	 ebp, esp
  00003	8b c1		 mov	 eax, ecx
  00005	8b 4d 08	 mov	 ecx, DWORD PTR __Parg$[ebp]
  00008	89 08		 mov	 DWORD PTR [eax], ecx

; 46   : 		this->_Adopt(_Pvector);
; 47   : 		}

  0000a	5d		 pop	 ebp
  0000b	c2 08 00	 ret	 8
??0?$_Vector_const_iterator@V?$_Vector_val@UD3DXVECTOR3@@V?$allocator@UD3DXVECTOR3@@@std@@@std@@@std@@QAE@PAUD3DXVECTOR3@@PBU_Container_base0@1@@Z ENDP ; std::_Vector_const_iterator<std::_Vector_val<D3DXVECTOR3,std::allocator<D3DXVECTOR3> > >::_Vector_const_iterator<std::_Vector_val<D3DXVECTOR3,std::allocator<D3DXVECTOR3> > >
_TEXT	ENDS
PUBLIC	??0?$_Vector_const_iterator@V?$_Vector_val@UFightNPCRecord@@V?$allocator@UFightNPCRecord@@@std@@@std@@@std@@QAE@PAUFightNPCRecord@@PBU_Container_base0@1@@Z ; std::_Vector_const_iterator<std::_Vector_val<FightNPCRecord,std::allocator<FightNPCRecord> > >::_Vector_const_iterator<std::_Vector_val<FightNPCRecord,std::allocator<FightNPCRecord> > >
; Function compile flags: /Ogsp
;	COMDAT ??0?$_Vector_const_iterator@V?$_Vector_val@UFightNPCRecord@@V?$allocator@UFightNPCRecord@@@std@@@std@@@std@@QAE@PAUFightNPCRecord@@PBU_Container_base0@1@@Z
_TEXT	SEGMENT
__Parg$ = 8						; size = 4
__Pvector$ = 12						; size = 4
??0?$_Vector_const_iterator@V?$_Vector_val@UFightNPCRecord@@V?$allocator@UFightNPCRecord@@@std@@@std@@@std@@QAE@PAUFightNPCRecord@@PBU_Container_base0@1@@Z PROC ; std::_Vector_const_iterator<std::_Vector_val<FightNPCRecord,std::allocator<FightNPCRecord> > >::_Vector_const_iterator<std::_Vector_val<FightNPCRecord,std::allocator<FightNPCRecord> > >, COMDAT
; _this$ = ecx

; 45   : 		{	// construct with pointer _Parg

  00000	55		 push	 ebp
  00001	8b ec		 mov	 ebp, esp
  00003	8b c1		 mov	 eax, ecx
  00005	8b 4d 08	 mov	 ecx, DWORD PTR __Parg$[ebp]
  00008	89 08		 mov	 DWORD PTR [eax], ecx

; 46   : 		this->_Adopt(_Pvector);
; 47   : 		}

  0000a	5d		 pop	 ebp
  0000b	c2 08 00	 ret	 8
??0?$_Vector_const_iterator@V?$_Vector_val@UFightNPCRecord@@V?$allocator@UFightNPCRecord@@@std@@@std@@@std@@QAE@PAUFightNPCRecord@@PBU_Container_base0@1@@Z ENDP ; std::_Vector_const_iterator<std::_Vector_val<FightNPCRecord,std::allocator<FightNPCRecord> > >::_Vector_const_iterator<std::_Vector_val<FightNPCRecord,std::allocator<FightNPCRecord> > >
_TEXT	ENDS
PUBLIC	?_Compat@?$_Vector_const_iterator@V?$_Vector_val@UPositionDistanceSq@@V?$allocator@UPositionDistanceSq@@@std@@@std@@@std@@QBEXABV12@@Z ; std::_Vector_const_iterator<std::_Vector_val<PositionDistanceSq,std::allocator<PositionDistanceSq> > >::_Compat
; Function compile flags: /Ogsp
;	COMDAT ?_Compat@?$_Vector_const_iterator@V?$_Vector_val@UPositionDistanceSq@@V?$allocator@UPositionDistanceSq@@@std@@@std@@@std@@QBEXABV12@@Z
_TEXT	SEGMENT
___formal$ = 8						; size = 4
?_Compat@?$_Vector_const_iterator@V?$_Vector_val@UPositionDistanceSq@@V?$allocator@UPositionDistanceSq@@@std@@@std@@@std@@QBEXABV12@@Z PROC ; std::_Vector_const_iterator<std::_Vector_val<PositionDistanceSq,std::allocator<PositionDistanceSq> > >::_Compat, COMDAT
; _this$ = ecx

; 253  : 		}

  00000	c2 04 00	 ret	 4
?_Compat@?$_Vector_const_iterator@V?$_Vector_val@UPositionDistanceSq@@V?$allocator@UPositionDistanceSq@@@std@@@std@@@std@@QBEXABV12@@Z ENDP ; std::_Vector_const_iterator<std::_Vector_val<PositionDistanceSq,std::allocator<PositionDistanceSq> > >::_Compat
_TEXT	ENDS
PUBLIC	?_Compat@?$_Vector_const_iterator@V?$_Vector_val@UContributeInfo@@V?$allocator@UContributeInfo@@@std@@@std@@@std@@QBEXABV12@@Z ; std::_Vector_const_iterator<std::_Vector_val<ContributeInfo,std::allocator<ContributeInfo> > >::_Compat
; Function compile flags: /Ogsp
;	COMDAT ?_Compat@?$_Vector_const_iterator@V?$_Vector_val@UContributeInfo@@V?$allocator@UContributeInfo@@@std@@@std@@@std@@QBEXABV12@@Z
_TEXT	SEGMENT
___formal$ = 8						; size = 4
?_Compat@?$_Vector_const_iterator@V?$_Vector_val@UContributeInfo@@V?$allocator@UContributeInfo@@@std@@@std@@@std@@QBEXABV12@@Z PROC ; std::_Vector_const_iterator<std::_Vector_val<ContributeInfo,std::allocator<ContributeInfo> > >::_Compat, COMDAT
; _this$ = ecx

; 253  : 		}

  00000	c2 04 00	 ret	 4
?_Compat@?$_Vector_const_iterator@V?$_Vector_val@UContributeInfo@@V?$allocator@UContributeInfo@@@std@@@std@@@std@@QBEXABV12@@Z ENDP ; std::_Vector_const_iterator<std::_Vector_val<ContributeInfo,std::allocator<ContributeInfo> > >::_Compat
_TEXT	ENDS
PUBLIC	?_Compat@?$_Vector_const_iterator@V?$_Vector_val@UD3DXVECTOR3@@V?$allocator@UD3DXVECTOR3@@@std@@@std@@@std@@QBEXABV12@@Z ; std::_Vector_const_iterator<std::_Vector_val<D3DXVECTOR3,std::allocator<D3DXVECTOR3> > >::_Compat
; Function compile flags: /Ogsp
;	COMDAT ?_Compat@?$_Vector_const_iterator@V?$_Vector_val@UD3DXVECTOR3@@V?$allocator@UD3DXVECTOR3@@@std@@@std@@@std@@QBEXABV12@@Z
_TEXT	SEGMENT
___formal$ = 8						; size = 4
?_Compat@?$_Vector_const_iterator@V?$_Vector_val@UD3DXVECTOR3@@V?$allocator@UD3DXVECTOR3@@@std@@@std@@@std@@QBEXABV12@@Z PROC ; std::_Vector_const_iterator<std::_Vector_val<D3DXVECTOR3,std::allocator<D3DXVECTOR3> > >::_Compat, COMDAT
; _this$ = ecx

; 253  : 		}

  00000	c2 04 00	 ret	 4
?_Compat@?$_Vector_const_iterator@V?$_Vector_val@UD3DXVECTOR3@@V?$allocator@UD3DXVECTOR3@@@std@@@std@@@std@@QBEXABV12@@Z ENDP ; std::_Vector_const_iterator<std::_Vector_val<D3DXVECTOR3,std::allocator<D3DXVECTOR3> > >::_Compat
_TEXT	ENDS
PUBLIC	?_Compat@?$_Vector_const_iterator@V?$_Vector_val@UFightNPCRecord@@V?$allocator@UFightNPCRecord@@@std@@@std@@@std@@QBEXABV12@@Z ; std::_Vector_const_iterator<std::_Vector_val<FightNPCRecord,std::allocator<FightNPCRecord> > >::_Compat
; Function compile flags: /Ogsp
;	COMDAT ?_Compat@?$_Vector_const_iterator@V?$_Vector_val@UFightNPCRecord@@V?$allocator@UFightNPCRecord@@@std@@@std@@@std@@QBEXABV12@@Z
_TEXT	SEGMENT
___formal$ = 8						; size = 4
?_Compat@?$_Vector_const_iterator@V?$_Vector_val@UFightNPCRecord@@V?$allocator@UFightNPCRecord@@@std@@@std@@@std@@QBEXABV12@@Z PROC ; std::_Vector_const_iterator<std::_Vector_val<FightNPCRecord,std::allocator<FightNPCRecord> > >::_Compat, COMDAT
; _this$ = ecx

; 253  : 		}

  00000	c2 04 00	 ret	 4
?_Compat@?$_Vector_const_iterator@V?$_Vector_val@UFightNPCRecord@@V?$allocator@UFightNPCRecord@@@std@@@std@@@std@@QBEXABV12@@Z ENDP ; std::_Vector_const_iterator<std::_Vector_val<FightNPCRecord,std::allocator<FightNPCRecord> > >::_Compat
_TEXT	ENDS
PUBLIC	??$addressof@$$CBUD3DXVECTOR3@@@std@@YAPBUD3DXVECTOR3@@ABU1@@Z ; std::addressof<D3DXVECTOR3 const >
; Function compile flags: /Ogsp
; File c:\program files (x86)\microsoft visual studio 10.0\vc\include\xmemory
;	COMDAT ??$addressof@$$CBUD3DXVECTOR3@@@std@@YAPBUD3DXVECTOR3@@ABU1@@Z
_TEXT	SEGMENT
__Val$ = 8						; size = 4
??$addressof@$$CBUD3DXVECTOR3@@@std@@YAPBUD3DXVECTOR3@@ABU1@@Z PROC ; std::addressof<D3DXVECTOR3 const >, COMDAT

; 110  : 	{	// return address of _Val

  00000	55		 push	 ebp
  00001	8b ec		 mov	 ebp, esp

; 111  : 	return ((_Ty *) &(char&)_Val);

  00003	8b 45 08	 mov	 eax, DWORD PTR __Val$[ebp]

; 112  : 	}

  00006	5d		 pop	 ebp
  00007	c3		 ret	 0
??$addressof@$$CBUD3DXVECTOR3@@@std@@YAPBUD3DXVECTOR3@@ABU1@@Z ENDP ; std::addressof<D3DXVECTOR3 const >
_TEXT	ENDS
PUBLIC	??$addressof@$$CBH@std@@YAPBHABH@Z		; std::addressof<int const >
; Function compile flags: /Ogsp
;	COMDAT ??$addressof@$$CBH@std@@YAPBHABH@Z
_TEXT	SEGMENT
__Val$ = 8						; size = 4
??$addressof@$$CBH@std@@YAPBHABH@Z PROC			; std::addressof<int const >, COMDAT

; 110  : 	{	// return address of _Val

  00000	55		 push	 ebp
  00001	8b ec		 mov	 ebp, esp

; 111  : 	return ((_Ty *) &(char&)_Val);

  00003	8b 45 08	 mov	 eax, DWORD PTR __Val$[ebp]

; 112  : 	}

  00006	5d		 pop	 ebp
  00007	c3		 ret	 0
??$addressof@$$CBH@std@@YAPBHABH@Z ENDP			; std::addressof<int const >
_TEXT	ENDS
PUBLIC	??$addressof@$$CBURoundInfo@@@std@@YAPBURoundInfo@@ABU1@@Z ; std::addressof<RoundInfo const >
; Function compile flags: /Ogsp
;	COMDAT ??$addressof@$$CBURoundInfo@@@std@@YAPBURoundInfo@@ABU1@@Z
_TEXT	SEGMENT
__Val$ = 8						; size = 4
??$addressof@$$CBURoundInfo@@@std@@YAPBURoundInfo@@ABU1@@Z PROC ; std::addressof<RoundInfo const >, COMDAT

; 110  : 	{	// return address of _Val

  00000	55		 push	 ebp
  00001	8b ec		 mov	 ebp, esp

; 111  : 	return ((_Ty *) &(char&)_Val);

  00003	8b 45 08	 mov	 eax, DWORD PTR __Val$[ebp]

; 112  : 	}

  00006	5d		 pop	 ebp
  00007	c3		 ret	 0
??$addressof@$$CBURoundInfo@@@std@@YAPBURoundInfo@@ABU1@@Z ENDP ; std::addressof<RoundInfo const >
_TEXT	ENDS
PUBLIC	??$addressof@$$CBUFightClubRecord@@@std@@YAPBUFightClubRecord@@ABU1@@Z ; std::addressof<FightClubRecord const >
; Function compile flags: /Ogsp
;	COMDAT ??$addressof@$$CBUFightClubRecord@@@std@@YAPBUFightClubRecord@@ABU1@@Z
_TEXT	SEGMENT
__Val$ = 8						; size = 4
??$addressof@$$CBUFightClubRecord@@@std@@YAPBUFightClubRecord@@ABU1@@Z PROC ; std::addressof<FightClubRecord const >, COMDAT

; 110  : 	{	// return address of _Val

  00000	55		 push	 ebp
  00001	8b ec		 mov	 ebp, esp

; 111  : 	return ((_Ty *) &(char&)_Val);

  00003	8b 45 08	 mov	 eax, DWORD PTR __Val$[ebp]

; 112  : 	}

  00006	5d		 pop	 ebp
  00007	c3		 ret	 0
??$addressof@$$CBUFightClubRecord@@@std@@YAPBUFightClubRecord@@ABU1@@Z ENDP ; std::addressof<FightClubRecord const >
_TEXT	ENDS
PUBLIC	??$addressof@$$CBUFightNPCRecord@@@std@@YAPBUFightNPCRecord@@ABU1@@Z ; std::addressof<FightNPCRecord const >
; Function compile flags: /Ogsp
;	COMDAT ??$addressof@$$CBUFightNPCRecord@@@std@@YAPBUFightNPCRecord@@ABU1@@Z
_TEXT	SEGMENT
__Val$ = 8						; size = 4
??$addressof@$$CBUFightNPCRecord@@@std@@YAPBUFightNPCRecord@@ABU1@@Z PROC ; std::addressof<FightNPCRecord const >, COMDAT

; 110  : 	{	// return address of _Val

  00000	55		 push	 ebp
  00001	8b ec		 mov	 ebp, esp

; 111  : 	return ((_Ty *) &(char&)_Val);

  00003	8b 45 08	 mov	 eax, DWORD PTR __Val$[ebp]

; 112  : 	}

  00006	5d		 pop	 ebp
  00007	c3		 ret	 0
??$addressof@$$CBUFightNPCRecord@@@std@@YAPBUFightNPCRecord@@ABU1@@Z ENDP ; std::addressof<FightNPCRecord const >
_TEXT	ENDS
PUBLIC	??$addressof@$$CBUPositionDistanceSq@@@std@@YAPBUPositionDistanceSq@@ABU1@@Z ; std::addressof<PositionDistanceSq const >
; Function compile flags: /Ogsp
;	COMDAT ??$addressof@$$CBUPositionDistanceSq@@@std@@YAPBUPositionDistanceSq@@ABU1@@Z
_TEXT	SEGMENT
__Val$ = 8						; size = 4
??$addressof@$$CBUPositionDistanceSq@@@std@@YAPBUPositionDistanceSq@@ABU1@@Z PROC ; std::addressof<PositionDistanceSq const >, COMDAT

; 110  : 	{	// return address of _Val

  00000	55		 push	 ebp
  00001	8b ec		 mov	 ebp, esp

; 111  : 	return ((_Ty *) &(char&)_Val);

  00003	8b 45 08	 mov	 eax, DWORD PTR __Val$[ebp]

; 112  : 	}

  00006	5d		 pop	 ebp
  00007	c3		 ret	 0
??$addressof@$$CBUPositionDistanceSq@@@std@@YAPBUPositionDistanceSq@@ABU1@@Z ENDP ; std::addressof<PositionDistanceSq const >
_TEXT	ENDS
PUBLIC	??$addressof@$$CBUContributeInfo@@@std@@YAPBUContributeInfo@@ABU1@@Z ; std::addressof<ContributeInfo const >
; Function compile flags: /Ogsp
;	COMDAT ??$addressof@$$CBUContributeInfo@@@std@@YAPBUContributeInfo@@ABU1@@Z
_TEXT	SEGMENT
__Val$ = 8						; size = 4
??$addressof@$$CBUContributeInfo@@@std@@YAPBUContributeInfo@@ABU1@@Z PROC ; std::addressof<ContributeInfo const >, COMDAT

; 110  : 	{	// return address of _Val

  00000	55		 push	 ebp
  00001	8b ec		 mov	 ebp, esp

; 111  : 	return ((_Ty *) &(char&)_Val);

  00003	8b 45 08	 mov	 eax, DWORD PTR __Val$[ebp]

; 112  : 	}

  00006	5d		 pop	 ebp
  00007	c3		 ret	 0
??$addressof@$$CBUContributeInfo@@@std@@YAPBUContributeInfo@@ABU1@@Z ENDP ; std::addressof<ContributeInfo const >
_TEXT	ENDS
PUBLIC	__TI2?AVbad_alloc@std@@
PUBLIC	??$_Allocate@UD3DXVECTOR3@@@std@@YAPAUD3DXVECTOR3@@IPAU1@@Z ; std::_Allocate<D3DXVECTOR3>
PUBLIC	__CTA2?AVbad_alloc@std@@
PUBLIC	__CT??_R0?AVbad_alloc@std@@@8??0bad_alloc@std@@QAE@ABV01@@Z12
PUBLIC	??0bad_alloc@std@@QAE@ABV01@@Z			; std::bad_alloc::bad_alloc
PUBLIC	__CT??_R0?AVexception@std@@@8??0exception@std@@QAE@ABV01@@Z12
EXTRN	??2@YAPAXI@Z:PROC				; operator new
EXTRN	__CxxThrowException@8:PROC
EXTRN	??0exception@std@@QAE@ABV01@@Z:PROC		; std::exception::exception
;	COMDAT __CT??_R0?AVexception@std@@@8??0exception@std@@QAE@ABV01@@Z12
; File c:\program files (x86)\microsoft visual studio 10.0\vc\include\exception
xdata$x	SEGMENT
__CT??_R0?AVexception@std@@@8??0exception@std@@QAE@ABV01@@Z12 DD 00H
	DD	FLAT:??_R0?AVexception@std@@@8
	DD	00H
	DD	0ffffffffH
	ORG $+4
	DD	0cH
	DD	FLAT:??0exception@std@@QAE@ABV01@@Z
xdata$x	ENDS
;	COMDAT __CT??_R0?AVbad_alloc@std@@@8??0bad_alloc@std@@QAE@ABV01@@Z12
xdata$x	SEGMENT
__CT??_R0?AVbad_alloc@std@@@8??0bad_alloc@std@@QAE@ABV01@@Z12 DD 00H
	DD	FLAT:??_R0?AVbad_alloc@std@@@8
	DD	00H
	DD	0ffffffffH
	ORG $+4
	DD	0cH
	DD	FLAT:??0bad_alloc@std@@QAE@ABV01@@Z
xdata$x	ENDS
;	COMDAT __CTA2?AVbad_alloc@std@@
xdata$x	SEGMENT
__CTA2?AVbad_alloc@std@@ DD 02H
	DD	FLAT:__CT??_R0?AVbad_alloc@std@@@8??0bad_alloc@std@@QAE@ABV01@@Z12
	DD	FLAT:__CT??_R0?AVexception@std@@@8??0exception@std@@QAE@ABV01@@Z12
xdata$x	ENDS
;	COMDAT __TI2?AVbad_alloc@std@@
xdata$x	SEGMENT
__TI2?AVbad_alloc@std@@ DD 00H
	DD	FLAT:??1bad_alloc@std@@UAE@XZ
	DD	00H
	DD	FLAT:__CTA2?AVbad_alloc@std@@
; Function compile flags: /Ogsp
; File c:\program files (x86)\microsoft visual studio 10.0\vc\include\xmemory
xdata$x	ENDS
;	COMDAT ??$_Allocate@UD3DXVECTOR3@@@std@@YAPAUD3DXVECTOR3@@IPAU1@@Z
_TEXT	SEGMENT
$T560304 = -12						; size = 12
$T560309 = 8						; size = 4
__Count$ = 8						; size = 4
___formal$ = 12						; size = 4
??$_Allocate@UD3DXVECTOR3@@@std@@YAPAUD3DXVECTOR3@@IPAU1@@Z PROC ; std::_Allocate<D3DXVECTOR3>, COMDAT

; 30   : 	{	// allocate storage for _Count elements of type _Ty

  00000	55		 push	 ebp
  00001	8b ec		 mov	 ebp, esp

; 31   : 	void *_Ptr = 0;
; 32   : 
; 33   : 	if (_Count <= 0)

  00003	8b 4d 08	 mov	 ecx, DWORD PTR __Count$[ebp]
  00006	83 ec 0c	 sub	 esp, 12			; 0000000cH
  00009	33 c0		 xor	 eax, eax
  0000b	85 c9		 test	 ecx, ecx

; 34   : 		_Count = 0;
; 35   : 	else if (((_SIZT)(-1) / sizeof (_Ty) < _Count)

  0000d	74 3c		 je	 SHORT $LN5@Allocate

; 36   : 		|| (_Ptr = ::operator new(_Count * sizeof (_Ty))) == 0)

  0000f	81 f9 55 55 55
	15		 cmp	 ecx, 357913941		; 15555555H
  00015	77 0e		 ja	 SHORT $LN1@Allocate
  00017	6b c9 0c	 imul	 ecx, 12			; 0000000cH
  0001a	51		 push	 ecx
  0001b	e8 00 00 00 00	 call	 ??2@YAPAXI@Z		; operator new
  00020	59		 pop	 ecx
  00021	85 c0		 test	 eax, eax

; 38   : 
; 39   : 	return ((_Ty _FARQ *)_Ptr);

  00023	75 26		 jne	 SHORT $LN5@Allocate
$LN1@Allocate:

; 37   : 		_THROW_NCEE(bad_alloc, 0);

  00025	83 65 08 00	 and	 DWORD PTR $T560309[ebp], 0
  00029	8d 45 08	 lea	 eax, DWORD PTR $T560309[ebp]
  0002c	50		 push	 eax
  0002d	8d 4d f4	 lea	 ecx, DWORD PTR $T560304[ebp]
  00030	ff 15 00 00 00
	00		 call	 DWORD PTR __imp_??0exception@std@@QAE@ABQBD@Z
  00036	68 00 00 00 00	 push	 OFFSET __TI2?AVbad_alloc@std@@
  0003b	8d 45 f4	 lea	 eax, DWORD PTR $T560304[ebp]
  0003e	50		 push	 eax
  0003f	c7 45 f4 00 00
	00 00		 mov	 DWORD PTR $T560304[ebp], OFFSET ??_7bad_alloc@std@@6B@
  00046	e8 00 00 00 00	 call	 __CxxThrowException@8
$LN10@Allocate:
$LN5@Allocate:

; 40   : 	}

  0004b	c9		 leave
  0004c	c3		 ret	 0
$LN9@Allocate:
??$_Allocate@UD3DXVECTOR3@@@std@@YAPAUD3DXVECTOR3@@IPAU1@@Z ENDP ; std::_Allocate<D3DXVECTOR3>
_TEXT	ENDS
PUBLIC	??$_Allocate@URoundInfo@@@std@@YAPAURoundInfo@@IPAU1@@Z ; std::_Allocate<RoundInfo>
; Function compile flags: /Ogsp
;	COMDAT ??$_Allocate@URoundInfo@@@std@@YAPAURoundInfo@@IPAU1@@Z
_TEXT	SEGMENT
$T560314 = -12						; size = 12
$T560318 = 8						; size = 4
__Count$ = 8						; size = 4
___formal$ = 12						; size = 4
??$_Allocate@URoundInfo@@@std@@YAPAURoundInfo@@IPAU1@@Z PROC ; std::_Allocate<RoundInfo>, COMDAT

; 30   : 	{	// allocate storage for _Count elements of type _Ty

  00000	55		 push	 ebp
  00001	8b ec		 mov	 ebp, esp

; 31   : 	void *_Ptr = 0;
; 32   : 
; 33   : 	if (_Count <= 0)

  00003	8b 4d 08	 mov	 ecx, DWORD PTR __Count$[ebp]
  00006	83 ec 0c	 sub	 esp, 12			; 0000000cH
  00009	33 c0		 xor	 eax, eax
  0000b	85 c9		 test	 ecx, ecx

; 34   : 		_Count = 0;
; 35   : 	else if (((_SIZT)(-1) / sizeof (_Ty) < _Count)

  0000d	74 3c		 je	 SHORT $LN5@Allocate@2

; 36   : 		|| (_Ptr = ::operator new(_Count * sizeof (_Ty))) == 0)

  0000f	81 f9 ff ff ff
	01		 cmp	 ecx, 33554431		; 01ffffffH
  00015	77 0e		 ja	 SHORT $LN1@Allocate@2
  00017	c1 e1 07	 shl	 ecx, 7
  0001a	51		 push	 ecx
  0001b	e8 00 00 00 00	 call	 ??2@YAPAXI@Z		; operator new
  00020	59		 pop	 ecx
  00021	85 c0		 test	 eax, eax

; 38   : 
; 39   : 	return ((_Ty _FARQ *)_Ptr);

  00023	75 26		 jne	 SHORT $LN5@Allocate@2
$LN1@Allocate@2:

; 37   : 		_THROW_NCEE(bad_alloc, 0);

  00025	83 65 08 00	 and	 DWORD PTR $T560318[ebp], 0
  00029	8d 45 08	 lea	 eax, DWORD PTR $T560318[ebp]
  0002c	50		 push	 eax
  0002d	8d 4d f4	 lea	 ecx, DWORD PTR $T560314[ebp]
  00030	ff 15 00 00 00
	00		 call	 DWORD PTR __imp_??0exception@std@@QAE@ABQBD@Z
  00036	68 00 00 00 00	 push	 OFFSET __TI2?AVbad_alloc@std@@
  0003b	8d 45 f4	 lea	 eax, DWORD PTR $T560314[ebp]
  0003e	50		 push	 eax
  0003f	c7 45 f4 00 00
	00 00		 mov	 DWORD PTR $T560314[ebp], OFFSET ??_7bad_alloc@std@@6B@
  00046	e8 00 00 00 00	 call	 __CxxThrowException@8
$LN10@Allocate@2:
$LN5@Allocate@2:

; 40   : 	}

  0004b	c9		 leave
  0004c	c3		 ret	 0
$LN9@Allocate@2:
??$_Allocate@URoundInfo@@@std@@YAPAURoundInfo@@IPAU1@@Z ENDP ; std::_Allocate<RoundInfo>
_TEXT	ENDS
PUBLIC	??$_Allocate@UFightClubRecord@@@std@@YAPAUFightClubRecord@@IPAU1@@Z ; std::_Allocate<FightClubRecord>
; Function compile flags: /Ogsp
;	COMDAT ??$_Allocate@UFightClubRecord@@@std@@YAPAUFightClubRecord@@IPAU1@@Z
_TEXT	SEGMENT
$T560323 = -12						; size = 12
$T560327 = 8						; size = 4
__Count$ = 8						; size = 4
___formal$ = 12						; size = 4
??$_Allocate@UFightClubRecord@@@std@@YAPAUFightClubRecord@@IPAU1@@Z PROC ; std::_Allocate<FightClubRecord>, COMDAT

; 30   : 	{	// allocate storage for _Count elements of type _Ty

  00000	55		 push	 ebp
  00001	8b ec		 mov	 ebp, esp

; 31   : 	void *_Ptr = 0;
; 32   : 
; 33   : 	if (_Count <= 0)

  00003	8b 4d 08	 mov	 ecx, DWORD PTR __Count$[ebp]
  00006	83 ec 0c	 sub	 esp, 12			; 0000000cH
  00009	33 c0		 xor	 eax, eax
  0000b	85 c9		 test	 ecx, ecx

; 34   : 		_Count = 0;
; 35   : 	else if (((_SIZT)(-1) / sizeof (_Ty) < _Count)

  0000d	74 3f		 je	 SHORT $LN5@Allocate@3

; 36   : 		|| (_Ptr = ::operator new(_Count * sizeof (_Ty))) == 0)

  0000f	81 f9 96 7b 1a
	01		 cmp	 ecx, 18512790		; 011a7b96H
  00015	77 11		 ja	 SHORT $LN1@Allocate@3
  00017	69 c9 e8 00 00
	00		 imul	 ecx, 232		; 000000e8H
  0001d	51		 push	 ecx
  0001e	e8 00 00 00 00	 call	 ??2@YAPAXI@Z		; operator new
  00023	59		 pop	 ecx
  00024	85 c0		 test	 eax, eax

; 38   : 
; 39   : 	return ((_Ty _FARQ *)_Ptr);

  00026	75 26		 jne	 SHORT $LN5@Allocate@3
$LN1@Allocate@3:

; 37   : 		_THROW_NCEE(bad_alloc, 0);

  00028	83 65 08 00	 and	 DWORD PTR $T560327[ebp], 0
  0002c	8d 45 08	 lea	 eax, DWORD PTR $T560327[ebp]
  0002f	50		 push	 eax
  00030	8d 4d f4	 lea	 ecx, DWORD PTR $T560323[ebp]
  00033	ff 15 00 00 00
	00		 call	 DWORD PTR __imp_??0exception@std@@QAE@ABQBD@Z
  00039	68 00 00 00 00	 push	 OFFSET __TI2?AVbad_alloc@std@@
  0003e	8d 45 f4	 lea	 eax, DWORD PTR $T560323[ebp]
  00041	50		 push	 eax
  00042	c7 45 f4 00 00
	00 00		 mov	 DWORD PTR $T560323[ebp], OFFSET ??_7bad_alloc@std@@6B@
  00049	e8 00 00 00 00	 call	 __CxxThrowException@8
$LN10@Allocate@3:
$LN5@Allocate@3:

; 40   : 	}

  0004e	c9		 leave
  0004f	c3		 ret	 0
$LN9@Allocate@3:
??$_Allocate@UFightClubRecord@@@std@@YAPAUFightClubRecord@@IPAU1@@Z ENDP ; std::_Allocate<FightClubRecord>
_TEXT	ENDS
PUBLIC	??$_Allocate@UFightNPCRecord@@@std@@YAPAUFightNPCRecord@@IPAU1@@Z ; std::_Allocate<FightNPCRecord>
; Function compile flags: /Ogsp
;	COMDAT ??$_Allocate@UFightNPCRecord@@@std@@YAPAUFightNPCRecord@@IPAU1@@Z
_TEXT	SEGMENT
$T560332 = -12						; size = 12
$T560336 = 8						; size = 4
__Count$ = 8						; size = 4
___formal$ = 12						; size = 4
??$_Allocate@UFightNPCRecord@@@std@@YAPAUFightNPCRecord@@IPAU1@@Z PROC ; std::_Allocate<FightNPCRecord>, COMDAT

; 30   : 	{	// allocate storage for _Count elements of type _Ty

  00000	55		 push	 ebp
  00001	8b ec		 mov	 ebp, esp

; 31   : 	void *_Ptr = 0;
; 32   : 
; 33   : 	if (_Count <= 0)

  00003	8b 4d 08	 mov	 ecx, DWORD PTR __Count$[ebp]
  00006	83 ec 0c	 sub	 esp, 12			; 0000000cH
  00009	33 c0		 xor	 eax, eax
  0000b	85 c9		 test	 ecx, ecx

; 34   : 		_Count = 0;
; 35   : 	else if (((_SIZT)(-1) / sizeof (_Ty) < _Count)

  0000d	74 3c		 je	 SHORT $LN5@Allocate@4

; 36   : 		|| (_Ptr = ::operator new(_Count * sizeof (_Ty))) == 0)

  0000f	81 f9 5d 74 d1
	05		 cmp	 ecx, 97612893		; 05d1745dH
  00015	77 0e		 ja	 SHORT $LN1@Allocate@4
  00017	6b c9 2c	 imul	 ecx, 44			; 0000002cH
  0001a	51		 push	 ecx
  0001b	e8 00 00 00 00	 call	 ??2@YAPAXI@Z		; operator new
  00020	59		 pop	 ecx
  00021	85 c0		 test	 eax, eax

; 38   : 
; 39   : 	return ((_Ty _FARQ *)_Ptr);

  00023	75 26		 jne	 SHORT $LN5@Allocate@4
$LN1@Allocate@4:

; 37   : 		_THROW_NCEE(bad_alloc, 0);

  00025	83 65 08 00	 and	 DWORD PTR $T560336[ebp], 0
  00029	8d 45 08	 lea	 eax, DWORD PTR $T560336[ebp]
  0002c	50		 push	 eax
  0002d	8d 4d f4	 lea	 ecx, DWORD PTR $T560332[ebp]
  00030	ff 15 00 00 00
	00		 call	 DWORD PTR __imp_??0exception@std@@QAE@ABQBD@Z
  00036	68 00 00 00 00	 push	 OFFSET __TI2?AVbad_alloc@std@@
  0003b	8d 45 f4	 lea	 eax, DWORD PTR $T560332[ebp]
  0003e	50		 push	 eax
  0003f	c7 45 f4 00 00
	00 00		 mov	 DWORD PTR $T560332[ebp], OFFSET ??_7bad_alloc@std@@6B@
  00046	e8 00 00 00 00	 call	 __CxxThrowException@8
$LN10@Allocate@4:
$LN5@Allocate@4:

; 40   : 	}

  0004b	c9		 leave
  0004c	c3		 ret	 0
$LN9@Allocate@4:
??$_Allocate@UFightNPCRecord@@@std@@YAPAUFightNPCRecord@@IPAU1@@Z ENDP ; std::_Allocate<FightNPCRecord>
_TEXT	ENDS
PUBLIC	??$_Allocate@UPositionDistanceSq@@@std@@YAPAUPositionDistanceSq@@IPAU1@@Z ; std::_Allocate<PositionDistanceSq>
; Function compile flags: /Ogsp
;	COMDAT ??$_Allocate@UPositionDistanceSq@@@std@@YAPAUPositionDistanceSq@@IPAU1@@Z
_TEXT	SEGMENT
$T560341 = -12						; size = 12
$T560345 = 8						; size = 4
__Count$ = 8						; size = 4
___formal$ = 12						; size = 4
??$_Allocate@UPositionDistanceSq@@@std@@YAPAUPositionDistanceSq@@IPAU1@@Z PROC ; std::_Allocate<PositionDistanceSq>, COMDAT

; 30   : 	{	// allocate storage for _Count elements of type _Ty

  00000	55		 push	 ebp
  00001	8b ec		 mov	 ebp, esp

; 31   : 	void *_Ptr = 0;
; 32   : 
; 33   : 	if (_Count <= 0)

  00003	8b 4d 08	 mov	 ecx, DWORD PTR __Count$[ebp]
  00006	83 ec 0c	 sub	 esp, 12			; 0000000cH
  00009	33 c0		 xor	 eax, eax
  0000b	85 c9		 test	 ecx, ecx

; 34   : 		_Count = 0;
; 35   : 	else if (((_SIZT)(-1) / sizeof (_Ty) < _Count)

  0000d	74 3e		 je	 SHORT $LN5@Allocate@5

; 36   : 		|| (_Ptr = ::operator new(_Count * sizeof (_Ty))) == 0)

  0000f	81 f9 ff ff ff
	1f		 cmp	 ecx, 536870911		; 1fffffffH
  00015	77 10		 ja	 SHORT $LN1@Allocate@5
  00017	8b c1		 mov	 eax, ecx
  00019	c1 e0 03	 shl	 eax, 3
  0001c	50		 push	 eax
  0001d	e8 00 00 00 00	 call	 ??2@YAPAXI@Z		; operator new
  00022	59		 pop	 ecx
  00023	85 c0		 test	 eax, eax

; 38   : 
; 39   : 	return ((_Ty _FARQ *)_Ptr);

  00025	75 26		 jne	 SHORT $LN5@Allocate@5
$LN1@Allocate@5:

; 37   : 		_THROW_NCEE(bad_alloc, 0);

  00027	83 65 08 00	 and	 DWORD PTR $T560345[ebp], 0
  0002b	8d 45 08	 lea	 eax, DWORD PTR $T560345[ebp]
  0002e	50		 push	 eax
  0002f	8d 4d f4	 lea	 ecx, DWORD PTR $T560341[ebp]
  00032	ff 15 00 00 00
	00		 call	 DWORD PTR __imp_??0exception@std@@QAE@ABQBD@Z
  00038	68 00 00 00 00	 push	 OFFSET __TI2?AVbad_alloc@std@@
  0003d	8d 45 f4	 lea	 eax, DWORD PTR $T560341[ebp]
  00040	50		 push	 eax
  00041	c7 45 f4 00 00
	00 00		 mov	 DWORD PTR $T560341[ebp], OFFSET ??_7bad_alloc@std@@6B@
  00048	e8 00 00 00 00	 call	 __CxxThrowException@8
$LN10@Allocate@5:
$LN5@Allocate@5:

; 40   : 	}

  0004d	c9		 leave
  0004e	c3		 ret	 0
$LN9@Allocate@5:
??$_Allocate@UPositionDistanceSq@@@std@@YAPAUPositionDistanceSq@@IPAU1@@Z ENDP ; std::_Allocate<PositionDistanceSq>
_TEXT	ENDS
PUBLIC	??$_Allocate@UContributeInfo@@@std@@YAPAUContributeInfo@@IPAU1@@Z ; std::_Allocate<ContributeInfo>
; Function compile flags: /Ogsp
;	COMDAT ??$_Allocate@UContributeInfo@@@std@@YAPAUContributeInfo@@IPAU1@@Z
_TEXT	SEGMENT
$T560350 = -12						; size = 12
$T560354 = 8						; size = 4
__Count$ = 8						; size = 4
___formal$ = 12						; size = 4
??$_Allocate@UContributeInfo@@@std@@YAPAUContributeInfo@@IPAU1@@Z PROC ; std::_Allocate<ContributeInfo>, COMDAT

; 30   : 	{	// allocate storage for _Count elements of type _Ty

  00000	55		 push	 ebp
  00001	8b ec		 mov	 ebp, esp

; 31   : 	void *_Ptr = 0;
; 32   : 
; 33   : 	if (_Count <= 0)

  00003	8b 4d 08	 mov	 ecx, DWORD PTR __Count$[ebp]
  00006	83 ec 0c	 sub	 esp, 12			; 0000000cH
  00009	33 c0		 xor	 eax, eax
  0000b	85 c9		 test	 ecx, ecx

; 34   : 		_Count = 0;
; 35   : 	else if (((_SIZT)(-1) / sizeof (_Ty) < _Count)

  0000d	74 3c		 je	 SHORT $LN5@Allocate@6

; 36   : 		|| (_Ptr = ::operator new(_Count * sizeof (_Ty))) == 0)

  0000f	81 f9 ff ff ff
	07		 cmp	 ecx, 134217727		; 07ffffffH
  00015	77 0e		 ja	 SHORT $LN1@Allocate@6
  00017	c1 e1 05	 shl	 ecx, 5
  0001a	51		 push	 ecx
  0001b	e8 00 00 00 00	 call	 ??2@YAPAXI@Z		; operator new
  00020	59		 pop	 ecx
  00021	85 c0		 test	 eax, eax

; 38   : 
; 39   : 	return ((_Ty _FARQ *)_Ptr);

  00023	75 26		 jne	 SHORT $LN5@Allocate@6
$LN1@Allocate@6:

; 37   : 		_THROW_NCEE(bad_alloc, 0);

  00025	83 65 08 00	 and	 DWORD PTR $T560354[ebp], 0
  00029	8d 45 08	 lea	 eax, DWORD PTR $T560354[ebp]
  0002c	50		 push	 eax
  0002d	8d 4d f4	 lea	 ecx, DWORD PTR $T560350[ebp]
  00030	ff 15 00 00 00
	00		 call	 DWORD PTR __imp_??0exception@std@@QAE@ABQBD@Z
  00036	68 00 00 00 00	 push	 OFFSET __TI2?AVbad_alloc@std@@
  0003b	8d 45 f4	 lea	 eax, DWORD PTR $T560350[ebp]
  0003e	50		 push	 eax
  0003f	c7 45 f4 00 00
	00 00		 mov	 DWORD PTR $T560350[ebp], OFFSET ??_7bad_alloc@std@@6B@
  00046	e8 00 00 00 00	 call	 __CxxThrowException@8
$LN10@Allocate@6:
$LN5@Allocate@6:

; 40   : 	}

  0004b	c9		 leave
  0004c	c3		 ret	 0
$LN9@Allocate@6:
??$_Allocate@UContributeInfo@@@std@@YAPAUContributeInfo@@IPAU1@@Z ENDP ; std::_Allocate<ContributeInfo>
_TEXT	ENDS
PUBLIC	??R?$less@H@std@@QBE_NABH0@Z			; std::less<int>::operator()
; Function compile flags: /Ogsp
; File c:\program files (x86)\microsoft visual studio 10.0\vc\include\xfunctional
;	COMDAT ??R?$less@H@std@@QBE_NABH0@Z
_TEXT	SEGMENT
__Left$ = 8						; size = 4
__Right$ = 12						; size = 4
??R?$less@H@std@@QBE_NABH0@Z PROC			; std::less<int>::operator(), COMDAT
; _this$ = ecx

; 124  : 		{	// apply operator< to operands

  00000	55		 push	 ebp
  00001	8b ec		 mov	 ebp, esp

; 125  : 		return (_Left < _Right);

  00003	8b 45 08	 mov	 eax, DWORD PTR __Left$[ebp]
  00006	8b 00		 mov	 eax, DWORD PTR [eax]
  00008	8b 55 0c	 mov	 edx, DWORD PTR __Right$[ebp]
  0000b	33 c9		 xor	 ecx, ecx
  0000d	3b 02		 cmp	 eax, DWORD PTR [edx]
  0000f	0f 9c c0	 setl	 al

; 126  : 		}

  00012	5d		 pop	 ebp
  00013	c2 08 00	 ret	 8
??R?$less@H@std@@QBE_NABH0@Z ENDP			; std::less<int>::operator()
_TEXT	ENDS
PUBLIC	??G?$_Vector_const_iterator@V?$_Vector_val@UPositionDistanceSq@@V?$allocator@UPositionDistanceSq@@@std@@@std@@@std@@QBEHABV01@@Z ; std::_Vector_const_iterator<std::_Vector_val<PositionDistanceSq,std::allocator<PositionDistanceSq> > >::operator-
; Function compile flags: /Ogsp
; File c:\program files (x86)\microsoft visual studio 10.0\vc\include\vector
;	COMDAT ??G?$_Vector_const_iterator@V?$_Vector_val@UPositionDistanceSq@@V?$allocator@UPositionDistanceSq@@@std@@@std@@@std@@QBEHABV01@@Z
_TEXT	SEGMENT
__Right$ = 8						; size = 4
??G?$_Vector_const_iterator@V?$_Vector_val@UPositionDistanceSq@@V?$allocator@UPositionDistanceSq@@@std@@@std@@@std@@QBEHABV01@@Z PROC ; std::_Vector_const_iterator<std::_Vector_val<PositionDistanceSq,std::allocator<PositionDistanceSq> > >::operator-, COMDAT
; _this$ = ecx

; 190  : 		{	// return difference of iterators

  00000	55		 push	 ebp
  00001	8b ec		 mov	 ebp, esp

; 191  : 		_Compat(_Right);
; 192  : 		return (this->_Ptr - _Right._Ptr);

  00003	8b 01		 mov	 eax, DWORD PTR [ecx]
  00005	8b 4d 08	 mov	 ecx, DWORD PTR __Right$[ebp]
  00008	2b 01		 sub	 eax, DWORD PTR [ecx]
  0000a	c1 f8 03	 sar	 eax, 3

; 193  : 		}

  0000d	5d		 pop	 ebp
  0000e	c2 04 00	 ret	 4
??G?$_Vector_const_iterator@V?$_Vector_val@UPositionDistanceSq@@V?$allocator@UPositionDistanceSq@@@std@@@std@@@std@@QBEHABV01@@Z ENDP ; std::_Vector_const_iterator<std::_Vector_val<PositionDistanceSq,std::allocator<PositionDistanceSq> > >::operator-
_TEXT	ENDS
PUBLIC	??G?$_Vector_const_iterator@V?$_Vector_val@UContributeInfo@@V?$allocator@UContributeInfo@@@std@@@std@@@std@@QBEHABV01@@Z ; std::_Vector_const_iterator<std::_Vector_val<ContributeInfo,std::allocator<ContributeInfo> > >::operator-
; Function compile flags: /Ogsp
;	COMDAT ??G?$_Vector_const_iterator@V?$_Vector_val@UContributeInfo@@V?$allocator@UContributeInfo@@@std@@@std@@@std@@QBEHABV01@@Z
_TEXT	SEGMENT
__Right$ = 8						; size = 4
??G?$_Vector_const_iterator@V?$_Vector_val@UContributeInfo@@V?$allocator@UContributeInfo@@@std@@@std@@@std@@QBEHABV01@@Z PROC ; std::_Vector_const_iterator<std::_Vector_val<ContributeInfo,std::allocator<ContributeInfo> > >::operator-, COMDAT
; _this$ = ecx

; 190  : 		{	// return difference of iterators

  00000	55		 push	 ebp
  00001	8b ec		 mov	 ebp, esp

; 191  : 		_Compat(_Right);
; 192  : 		return (this->_Ptr - _Right._Ptr);

  00003	8b 01		 mov	 eax, DWORD PTR [ecx]
  00005	8b 4d 08	 mov	 ecx, DWORD PTR __Right$[ebp]
  00008	2b 01		 sub	 eax, DWORD PTR [ecx]
  0000a	c1 f8 05	 sar	 eax, 5

; 193  : 		}

  0000d	5d		 pop	 ebp
  0000e	c2 04 00	 ret	 4
??G?$_Vector_const_iterator@V?$_Vector_val@UContributeInfo@@V?$allocator@UContributeInfo@@@std@@@std@@@std@@QBEHABV01@@Z ENDP ; std::_Vector_const_iterator<std::_Vector_val<ContributeInfo,std::allocator<ContributeInfo> > >::operator-
_TEXT	ENDS
PUBLIC	??G?$_Vector_const_iterator@V?$_Vector_val@URoundInfo@@V?$allocator@URoundInfo@@@std@@@std@@@std@@QBEHABV01@@Z ; std::_Vector_const_iterator<std::_Vector_val<RoundInfo,std::allocator<RoundInfo> > >::operator-
; Function compile flags: /Ogsp
;	COMDAT ??G?$_Vector_const_iterator@V?$_Vector_val@URoundInfo@@V?$allocator@URoundInfo@@@std@@@std@@@std@@QBEHABV01@@Z
_TEXT	SEGMENT
__Right$ = 8						; size = 4
??G?$_Vector_const_iterator@V?$_Vector_val@URoundInfo@@V?$allocator@URoundInfo@@@std@@@std@@@std@@QBEHABV01@@Z PROC ; std::_Vector_const_iterator<std::_Vector_val<RoundInfo,std::allocator<RoundInfo> > >::operator-, COMDAT
; _this$ = ecx

; 190  : 		{	// return difference of iterators

  00000	55		 push	 ebp
  00001	8b ec		 mov	 ebp, esp

; 191  : 		_Compat(_Right);
; 192  : 		return (this->_Ptr - _Right._Ptr);

  00003	8b 01		 mov	 eax, DWORD PTR [ecx]
  00005	8b 4d 08	 mov	 ecx, DWORD PTR __Right$[ebp]
  00008	2b 01		 sub	 eax, DWORD PTR [ecx]
  0000a	c1 f8 07	 sar	 eax, 7

; 193  : 		}

  0000d	5d		 pop	 ebp
  0000e	c2 04 00	 ret	 4
??G?$_Vector_const_iterator@V?$_Vector_val@URoundInfo@@V?$allocator@URoundInfo@@@std@@@std@@@std@@QBEHABV01@@Z ENDP ; std::_Vector_const_iterator<std::_Vector_val<RoundInfo,std::allocator<RoundInfo> > >::operator-
_TEXT	ENDS
PUBLIC	?max_size@?$allocator@U?$pair@$$CBHH@std@@@std@@QBEIXZ ; std::allocator<std::pair<int const ,int> >::max_size
; Function compile flags: /Ogsp
; File c:\program files (x86)\microsoft visual studio 10.0\vc\include\xmemory
;	COMDAT ?max_size@?$allocator@U?$pair@$$CBHH@std@@@std@@QBEIXZ
_TEXT	SEGMENT
?max_size@?$allocator@U?$pair@$$CBHH@std@@@std@@QBEIXZ PROC ; std::allocator<std::pair<int const ,int> >::max_size, COMDAT
; _this$ = ecx

; 218  : 		_SIZT _Count = (_SIZT)(-1) / sizeof (_Ty);
; 219  : 		return (0 < _Count ? _Count : 1);

  00000	b8 ff ff ff 1f	 mov	 eax, 536870911		; 1fffffffH

; 220  : 		}

  00005	c3		 ret	 0
?max_size@?$allocator@U?$pair@$$CBHH@std@@@std@@QBEIXZ ENDP ; std::allocator<std::pair<int const ,int> >::max_size
_TEXT	ENDS
PUBLIC	??$forward@U?$pair@$$CBHH@std@@@std@@YA$$QAU?$pair@$$CBHH@0@AAU10@@Z ; std::forward<std::pair<int const ,int> >
; Function compile flags: /Ogsp
; File c:\program files (x86)\microsoft visual studio 10.0\vc\include\utility
;	COMDAT ??$forward@U?$pair@$$CBHH@std@@@std@@YA$$QAU?$pair@$$CBHH@0@AAU10@@Z
_TEXT	SEGMENT
__Arg$ = 8						; size = 4
??$forward@U?$pair@$$CBHH@std@@@std@@YA$$QAU?$pair@$$CBHH@0@AAU10@@Z PROC ; std::forward<std::pair<int const ,int> >, COMDAT

; 78   : 	{	// forward _Arg, given explicitly specified type parameter

  00000	55		 push	 ebp
  00001	8b ec		 mov	 ebp, esp

; 79   : 	return ((_Ty&&)_Arg);

  00003	8b 45 08	 mov	 eax, DWORD PTR __Arg$[ebp]

; 80   : 	}

  00006	5d		 pop	 ebp
  00007	c3		 ret	 0
??$forward@U?$pair@$$CBHH@std@@@std@@YA$$QAU?$pair@$$CBHH@0@AAU10@@Z ENDP ; std::forward<std::pair<int const ,int> >
_TEXT	ENDS
PUBLIC	??$forward@AAUD3DXVECTOR3@@@std@@YAAAUD3DXVECTOR3@@AAU1@@Z ; std::forward<D3DXVECTOR3 &>
; Function compile flags: /Ogsp
;	COMDAT ??$forward@AAUD3DXVECTOR3@@@std@@YAAAUD3DXVECTOR3@@AAU1@@Z
_TEXT	SEGMENT
__Arg$ = 8						; size = 4
??$forward@AAUD3DXVECTOR3@@@std@@YAAAUD3DXVECTOR3@@AAU1@@Z PROC ; std::forward<D3DXVECTOR3 &>, COMDAT

; 78   : 	{	// forward _Arg, given explicitly specified type parameter

  00000	55		 push	 ebp
  00001	8b ec		 mov	 ebp, esp

; 79   : 	return ((_Ty&&)_Arg);

  00003	8b 45 08	 mov	 eax, DWORD PTR __Arg$[ebp]

; 80   : 	}

  00006	5d		 pop	 ebp
  00007	c3		 ret	 0
??$forward@AAUD3DXVECTOR3@@@std@@YAAAUD3DXVECTOR3@@AAU1@@Z ENDP ; std::forward<D3DXVECTOR3 &>
_TEXT	ENDS
PUBLIC	??$construct@AAUD3DXVECTOR3@@@?$allocator@UD3DXVECTOR3@@@std@@QAEXPAUD3DXVECTOR3@@AAU2@@Z ; std::allocator<D3DXVECTOR3>::construct<D3DXVECTOR3 &>
; Function compile flags: /Ogsp
; File c:\program files (x86)\microsoft visual studio 10.0\vc\include\xmemory
;	COMDAT ??$construct@AAUD3DXVECTOR3@@@?$allocator@UD3DXVECTOR3@@@std@@QAEXPAUD3DXVECTOR3@@AAU2@@Z
_TEXT	SEGMENT
__Ptr$ = 8						; size = 4
__Val$ = 12						; size = 4
??$construct@AAUD3DXVECTOR3@@@?$allocator@UD3DXVECTOR3@@@std@@QAEXPAUD3DXVECTOR3@@AAU2@@Z PROC ; std::allocator<D3DXVECTOR3>::construct<D3DXVECTOR3 &>, COMDAT
; _this$ = ecx

; 206  : 		void construct(pointer _Ptr, _Other&& _Val)

  00000	55		 push	 ebp
  00001	8b ec		 mov	 ebp, esp
  00003	57		 push	 edi

; 207  : 		{	// construct object at _Ptr with value _Val
; 208  : 		::new ((void _FARQ *)_Ptr) _Ty(_STD forward<_Other>(_Val));

  00004	8b 7d 08	 mov	 edi, DWORD PTR __Ptr$[ebp]
  00007	85 ff		 test	 edi, edi
  00009	74 08		 je	 SHORT $LN3@construct
  0000b	56		 push	 esi
  0000c	8b 75 0c	 mov	 esi, DWORD PTR __Val$[ebp]
  0000f	a5		 movsd
  00010	a5		 movsd
  00011	a5		 movsd
  00012	5e		 pop	 esi
$LN3@construct:
  00013	5f		 pop	 edi

; 209  : 		}

  00014	5d		 pop	 ebp
  00015	c2 08 00	 ret	 8
??$construct@AAUD3DXVECTOR3@@@?$allocator@UD3DXVECTOR3@@@std@@QAEXPAUD3DXVECTOR3@@AAU2@@Z ENDP ; std::allocator<D3DXVECTOR3>::construct<D3DXVECTOR3 &>
_TEXT	ENDS
PUBLIC	??$forward@ABUD3DXVECTOR3@@@std@@YAABUD3DXVECTOR3@@ABU1@@Z ; std::forward<D3DXVECTOR3 const &>
; Function compile flags: /Ogsp
; File c:\program files (x86)\microsoft visual studio 10.0\vc\include\utility
;	COMDAT ??$forward@ABUD3DXVECTOR3@@@std@@YAABUD3DXVECTOR3@@ABU1@@Z
_TEXT	SEGMENT
__Arg$ = 8						; size = 4
??$forward@ABUD3DXVECTOR3@@@std@@YAABUD3DXVECTOR3@@ABU1@@Z PROC ; std::forward<D3DXVECTOR3 const &>, COMDAT

; 78   : 	{	// forward _Arg, given explicitly specified type parameter

  00000	55		 push	 ebp
  00001	8b ec		 mov	 ebp, esp

; 79   : 	return ((_Ty&&)_Arg);

  00003	8b 45 08	 mov	 eax, DWORD PTR __Arg$[ebp]

; 80   : 	}

  00006	5d		 pop	 ebp
  00007	c3		 ret	 0
??$forward@ABUD3DXVECTOR3@@@std@@YAABUD3DXVECTOR3@@ABU1@@Z ENDP ; std::forward<D3DXVECTOR3 const &>
_TEXT	ENDS
PUBLIC	??$forward@ABH@std@@YAABHABH@Z			; std::forward<int const &>
; Function compile flags: /Ogsp
;	COMDAT ??$forward@ABH@std@@YAABHABH@Z
_TEXT	SEGMENT
__Arg$ = 8						; size = 4
??$forward@ABH@std@@YAABHABH@Z PROC			; std::forward<int const &>, COMDAT

; 78   : 	{	// forward _Arg, given explicitly specified type parameter

  00000	55		 push	 ebp
  00001	8b ec		 mov	 ebp, esp

; 79   : 	return ((_Ty&&)_Arg);

  00003	8b 45 08	 mov	 eax, DWORD PTR __Arg$[ebp]

; 80   : 	}

  00006	5d		 pop	 ebp
  00007	c3		 ret	 0
??$forward@ABH@std@@YAABHABH@Z ENDP			; std::forward<int const &>
_TEXT	ENDS
PUBLIC	??$forward@AAURoundInfo@@@std@@YAAAURoundInfo@@AAU1@@Z ; std::forward<RoundInfo &>
; Function compile flags: /Ogsp
;	COMDAT ??$forward@AAURoundInfo@@@std@@YAAAURoundInfo@@AAU1@@Z
_TEXT	SEGMENT
__Arg$ = 8						; size = 4
??$forward@AAURoundInfo@@@std@@YAAAURoundInfo@@AAU1@@Z PROC ; std::forward<RoundInfo &>, COMDAT

; 78   : 	{	// forward _Arg, given explicitly specified type parameter

  00000	55		 push	 ebp
  00001	8b ec		 mov	 ebp, esp

; 79   : 	return ((_Ty&&)_Arg);

  00003	8b 45 08	 mov	 eax, DWORD PTR __Arg$[ebp]

; 80   : 	}

  00006	5d		 pop	 ebp
  00007	c3		 ret	 0
??$forward@AAURoundInfo@@@std@@YAAAURoundInfo@@AAU1@@Z ENDP ; std::forward<RoundInfo &>
_TEXT	ENDS
PUBLIC	??$forward@ABURoundInfo@@@std@@YAABURoundInfo@@ABU1@@Z ; std::forward<RoundInfo const &>
; Function compile flags: /Ogsp
;	COMDAT ??$forward@ABURoundInfo@@@std@@YAABURoundInfo@@ABU1@@Z
_TEXT	SEGMENT
__Arg$ = 8						; size = 4
??$forward@ABURoundInfo@@@std@@YAABURoundInfo@@ABU1@@Z PROC ; std::forward<RoundInfo const &>, COMDAT

; 78   : 	{	// forward _Arg, given explicitly specified type parameter

  00000	55		 push	 ebp
  00001	8b ec		 mov	 ebp, esp

; 79   : 	return ((_Ty&&)_Arg);

  00003	8b 45 08	 mov	 eax, DWORD PTR __Arg$[ebp]

; 80   : 	}

  00006	5d		 pop	 ebp
  00007	c3		 ret	 0
??$forward@ABURoundInfo@@@std@@YAABURoundInfo@@ABU1@@Z ENDP ; std::forward<RoundInfo const &>
_TEXT	ENDS
PUBLIC	??$forward@AAUFightClubRecord@@@std@@YAAAUFightClubRecord@@AAU1@@Z ; std::forward<FightClubRecord &>
; Function compile flags: /Ogsp
;	COMDAT ??$forward@AAUFightClubRecord@@@std@@YAAAUFightClubRecord@@AAU1@@Z
_TEXT	SEGMENT
__Arg$ = 8						; size = 4
??$forward@AAUFightClubRecord@@@std@@YAAAUFightClubRecord@@AAU1@@Z PROC ; std::forward<FightClubRecord &>, COMDAT

; 78   : 	{	// forward _Arg, given explicitly specified type parameter

  00000	55		 push	 ebp
  00001	8b ec		 mov	 ebp, esp

; 79   : 	return ((_Ty&&)_Arg);

  00003	8b 45 08	 mov	 eax, DWORD PTR __Arg$[ebp]

; 80   : 	}

  00006	5d		 pop	 ebp
  00007	c3		 ret	 0
??$forward@AAUFightClubRecord@@@std@@YAAAUFightClubRecord@@AAU1@@Z ENDP ; std::forward<FightClubRecord &>
_TEXT	ENDS
PUBLIC	??$forward@ABUFightClubRecord@@@std@@YAABUFightClubRecord@@ABU1@@Z ; std::forward<FightClubRecord const &>
; Function compile flags: /Ogsp
;	COMDAT ??$forward@ABUFightClubRecord@@@std@@YAABUFightClubRecord@@ABU1@@Z
_TEXT	SEGMENT
__Arg$ = 8						; size = 4
??$forward@ABUFightClubRecord@@@std@@YAABUFightClubRecord@@ABU1@@Z PROC ; std::forward<FightClubRecord const &>, COMDAT

; 78   : 	{	// forward _Arg, given explicitly specified type parameter

  00000	55		 push	 ebp
  00001	8b ec		 mov	 ebp, esp

; 79   : 	return ((_Ty&&)_Arg);

  00003	8b 45 08	 mov	 eax, DWORD PTR __Arg$[ebp]

; 80   : 	}

  00006	5d		 pop	 ebp
  00007	c3		 ret	 0
??$forward@ABUFightClubRecord@@@std@@YAABUFightClubRecord@@ABU1@@Z ENDP ; std::forward<FightClubRecord const &>
_TEXT	ENDS
PUBLIC	??$_Ptr_cat@UFightClubRecord@@U1@@std@@YA?AU_Nonscalar_ptr_iterator_tag@0@PAUFightClubRecord@@0@Z ; std::_Ptr_cat<FightClubRecord,FightClubRecord>
; Function compile flags: /Ogsp
; File c:\program files (x86)\microsoft visual studio 10.0\vc\include\xutility
;	COMDAT ??$_Ptr_cat@UFightClubRecord@@U1@@std@@YA?AU_Nonscalar_ptr_iterator_tag@0@PAUFightClubRecord@@0@Z
_TEXT	SEGMENT
__Cat$ = -1						; size = 1
___formal$ = 8						; size = 4
___formal$ = 12						; size = 4
??$_Ptr_cat@UFightClubRecord@@U1@@std@@YA?AU_Nonscalar_ptr_iterator_tag@0@PAUFightClubRecord@@0@Z PROC ; std::_Ptr_cat<FightClubRecord,FightClubRecord>, COMDAT

; 516  : 	{	// return pointer category from pointers

  00000	55		 push	 ebp
  00001	8b ec		 mov	 ebp, esp
  00003	51		 push	 ecx

; 517  : 	typename _Ptr_cat_helper<_Elem1, _Elem2>::_Type _Cat;
; 518  : 	return (_Cat);

  00004	8a 45 ff	 mov	 al, BYTE PTR __Cat$[ebp]

; 519  : 	}

  00007	c9		 leave
  00008	c3		 ret	 0
??$_Ptr_cat@UFightClubRecord@@U1@@std@@YA?AU_Nonscalar_ptr_iterator_tag@0@PAUFightClubRecord@@0@Z ENDP ; std::_Ptr_cat<FightClubRecord,FightClubRecord>
_TEXT	ENDS
PUBLIC	??$forward@AAUFightNPCRecord@@@std@@YAAAUFightNPCRecord@@AAU1@@Z ; std::forward<FightNPCRecord &>
; Function compile flags: /Ogsp
; File c:\program files (x86)\microsoft visual studio 10.0\vc\include\utility
;	COMDAT ??$forward@AAUFightNPCRecord@@@std@@YAAAUFightNPCRecord@@AAU1@@Z
_TEXT	SEGMENT
__Arg$ = 8						; size = 4
??$forward@AAUFightNPCRecord@@@std@@YAAAUFightNPCRecord@@AAU1@@Z PROC ; std::forward<FightNPCRecord &>, COMDAT

; 78   : 	{	// forward _Arg, given explicitly specified type parameter

  00000	55		 push	 ebp
  00001	8b ec		 mov	 ebp, esp

; 79   : 	return ((_Ty&&)_Arg);

  00003	8b 45 08	 mov	 eax, DWORD PTR __Arg$[ebp]

; 80   : 	}

  00006	5d		 pop	 ebp
  00007	c3		 ret	 0
??$forward@AAUFightNPCRecord@@@std@@YAAAUFightNPCRecord@@AAU1@@Z ENDP ; std::forward<FightNPCRecord &>
_TEXT	ENDS
PUBLIC	??$forward@ABUFightNPCRecord@@@std@@YAABUFightNPCRecord@@ABU1@@Z ; std::forward<FightNPCRecord const &>
; Function compile flags: /Ogsp
;	COMDAT ??$forward@ABUFightNPCRecord@@@std@@YAABUFightNPCRecord@@ABU1@@Z
_TEXT	SEGMENT
__Arg$ = 8						; size = 4
??$forward@ABUFightNPCRecord@@@std@@YAABUFightNPCRecord@@ABU1@@Z PROC ; std::forward<FightNPCRecord const &>, COMDAT

; 78   : 	{	// forward _Arg, given explicitly specified type parameter

  00000	55		 push	 ebp
  00001	8b ec		 mov	 ebp, esp

; 79   : 	return ((_Ty&&)_Arg);

  00003	8b 45 08	 mov	 eax, DWORD PTR __Arg$[ebp]

; 80   : 	}

  00006	5d		 pop	 ebp
  00007	c3		 ret	 0
??$forward@ABUFightNPCRecord@@@std@@YAABUFightNPCRecord@@ABU1@@Z ENDP ; std::forward<FightNPCRecord const &>
_TEXT	ENDS
PUBLIC	??$forward@AAUPositionDistanceSq@@@std@@YAAAUPositionDistanceSq@@AAU1@@Z ; std::forward<PositionDistanceSq &>
; Function compile flags: /Ogsp
;	COMDAT ??$forward@AAUPositionDistanceSq@@@std@@YAAAUPositionDistanceSq@@AAU1@@Z
_TEXT	SEGMENT
__Arg$ = 8						; size = 4
??$forward@AAUPositionDistanceSq@@@std@@YAAAUPositionDistanceSq@@AAU1@@Z PROC ; std::forward<PositionDistanceSq &>, COMDAT

; 78   : 	{	// forward _Arg, given explicitly specified type parameter

  00000	55		 push	 ebp
  00001	8b ec		 mov	 ebp, esp

; 79   : 	return ((_Ty&&)_Arg);

  00003	8b 45 08	 mov	 eax, DWORD PTR __Arg$[ebp]

; 80   : 	}

  00006	5d		 pop	 ebp
  00007	c3		 ret	 0
??$forward@AAUPositionDistanceSq@@@std@@YAAAUPositionDistanceSq@@AAU1@@Z ENDP ; std::forward<PositionDistanceSq &>
_TEXT	ENDS
PUBLIC	??$construct@AAUPositionDistanceSq@@@?$allocator@UPositionDistanceSq@@@std@@QAEXPAUPositionDistanceSq@@AAU2@@Z ; std::allocator<PositionDistanceSq>::construct<PositionDistanceSq &>
; Function compile flags: /Ogsp
; File c:\program files (x86)\microsoft visual studio 10.0\vc\include\xmemory
;	COMDAT ??$construct@AAUPositionDistanceSq@@@?$allocator@UPositionDistanceSq@@@std@@QAEXPAUPositionDistanceSq@@AAU2@@Z
_TEXT	SEGMENT
__Ptr$ = 8						; size = 4
__Val$ = 12						; size = 4
??$construct@AAUPositionDistanceSq@@@?$allocator@UPositionDistanceSq@@@std@@QAEXPAUPositionDistanceSq@@AAU2@@Z PROC ; std::allocator<PositionDistanceSq>::construct<PositionDistanceSq &>, COMDAT
; _this$ = ecx

; 206  : 		void construct(pointer _Ptr, _Other&& _Val)

  00000	55		 push	 ebp
  00001	8b ec		 mov	 ebp, esp

; 207  : 		{	// construct object at _Ptr with value _Val
; 208  : 		::new ((void _FARQ *)_Ptr) _Ty(_STD forward<_Other>(_Val));

  00003	8b 45 08	 mov	 eax, DWORD PTR __Ptr$[ebp]
  00006	85 c0		 test	 eax, eax
  00008	74 0d		 je	 SHORT $LN3@construct@2
  0000a	8b 4d 0c	 mov	 ecx, DWORD PTR __Val$[ebp]
  0000d	8b 11		 mov	 edx, DWORD PTR [ecx]
  0000f	89 10		 mov	 DWORD PTR [eax], edx
  00011	8b 49 04	 mov	 ecx, DWORD PTR [ecx+4]
  00014	89 48 04	 mov	 DWORD PTR [eax+4], ecx
$LN3@construct@2:

; 209  : 		}

  00017	5d		 pop	 ebp
  00018	c2 08 00	 ret	 8
??$construct@AAUPositionDistanceSq@@@?$allocator@UPositionDistanceSq@@@std@@QAEXPAUPositionDistanceSq@@AAU2@@Z ENDP ; std::allocator<PositionDistanceSq>::construct<PositionDistanceSq &>
_TEXT	ENDS
PUBLIC	??$forward@ABUPositionDistanceSq@@@std@@YAABUPositionDistanceSq@@ABU1@@Z ; std::forward<PositionDistanceSq const &>
; Function compile flags: /Ogsp
; File c:\program files (x86)\microsoft visual studio 10.0\vc\include\utility
;	COMDAT ??$forward@ABUPositionDistanceSq@@@std@@YAABUPositionDistanceSq@@ABU1@@Z
_TEXT	SEGMENT
__Arg$ = 8						; size = 4
??$forward@ABUPositionDistanceSq@@@std@@YAABUPositionDistanceSq@@ABU1@@Z PROC ; std::forward<PositionDistanceSq const &>, COMDAT

; 78   : 	{	// forward _Arg, given explicitly specified type parameter

  00000	55		 push	 ebp
  00001	8b ec		 mov	 ebp, esp

; 79   : 	return ((_Ty&&)_Arg);

  00003	8b 45 08	 mov	 eax, DWORD PTR __Arg$[ebp]

; 80   : 	}

  00006	5d		 pop	 ebp
  00007	c3		 ret	 0
??$forward@ABUPositionDistanceSq@@@std@@YAABUPositionDistanceSq@@ABU1@@Z ENDP ; std::forward<PositionDistanceSq const &>
_TEXT	ENDS
PUBLIC	??$forward@AAUContributeInfo@@@std@@YAAAUContributeInfo@@AAU1@@Z ; std::forward<ContributeInfo &>
; Function compile flags: /Ogsp
;	COMDAT ??$forward@AAUContributeInfo@@@std@@YAAAUContributeInfo@@AAU1@@Z
_TEXT	SEGMENT
__Arg$ = 8						; size = 4
??$forward@AAUContributeInfo@@@std@@YAAAUContributeInfo@@AAU1@@Z PROC ; std::forward<ContributeInfo &>, COMDAT

; 78   : 	{	// forward _Arg, given explicitly specified type parameter

  00000	55		 push	 ebp
  00001	8b ec		 mov	 ebp, esp

; 79   : 	return ((_Ty&&)_Arg);

  00003	8b 45 08	 mov	 eax, DWORD PTR __Arg$[ebp]

; 80   : 	}

  00006	5d		 pop	 ebp
  00007	c3		 ret	 0
??$forward@AAUContributeInfo@@@std@@YAAAUContributeInfo@@AAU1@@Z ENDP ; std::forward<ContributeInfo &>
_TEXT	ENDS
PUBLIC	??$forward@ABUContributeInfo@@@std@@YAABUContributeInfo@@ABU1@@Z ; std::forward<ContributeInfo const &>
; Function compile flags: /Ogsp
;	COMDAT ??$forward@ABUContributeInfo@@@std@@YAABUContributeInfo@@ABU1@@Z
_TEXT	SEGMENT
__Arg$ = 8						; size = 4
??$forward@ABUContributeInfo@@@std@@YAABUContributeInfo@@ABU1@@Z PROC ; std::forward<ContributeInfo const &>, COMDAT

; 78   : 	{	// forward _Arg, given explicitly specified type parameter

  00000	55		 push	 ebp
  00001	8b ec		 mov	 ebp, esp

; 79   : 	return ((_Ty&&)_Arg);

  00003	8b 45 08	 mov	 eax, DWORD PTR __Arg$[ebp]

; 80   : 	}

  00006	5d		 pop	 ebp
  00007	c3		 ret	 0
??$forward@ABUContributeInfo@@@std@@YAABUContributeInfo@@ABU1@@Z ENDP ; std::forward<ContributeInfo const &>
_TEXT	ENDS
PUBLIC	??$_Ptr_cat@UD3DXVECTOR3@@U1@@std@@YA?AU_Nonscalar_ptr_iterator_tag@0@PAUD3DXVECTOR3@@0@Z ; std::_Ptr_cat<D3DXVECTOR3,D3DXVECTOR3>
; Function compile flags: /Ogsp
; File c:\program files (x86)\microsoft visual studio 10.0\vc\include\xutility
;	COMDAT ??$_Ptr_cat@UD3DXVECTOR3@@U1@@std@@YA?AU_Nonscalar_ptr_iterator_tag@0@PAUD3DXVECTOR3@@0@Z
_TEXT	SEGMENT
__Cat$ = -1						; size = 1
___formal$ = 8						; size = 4
___formal$ = 12						; size = 4
??$_Ptr_cat@UD3DXVECTOR3@@U1@@std@@YA?AU_Nonscalar_ptr_iterator_tag@0@PAUD3DXVECTOR3@@0@Z PROC ; std::_Ptr_cat<D3DXVECTOR3,D3DXVECTOR3>, COMDAT

; 516  : 	{	// return pointer category from pointers

  00000	55		 push	 ebp
  00001	8b ec		 mov	 ebp, esp
  00003	51		 push	 ecx

; 517  : 	typename _Ptr_cat_helper<_Elem1, _Elem2>::_Type _Cat;
; 518  : 	return (_Cat);

  00004	8a 45 ff	 mov	 al, BYTE PTR __Cat$[ebp]

; 519  : 	}

  00007	c9		 leave
  00008	c3		 ret	 0
??$_Ptr_cat@UD3DXVECTOR3@@U1@@std@@YA?AU_Nonscalar_ptr_iterator_tag@0@PAUD3DXVECTOR3@@0@Z ENDP ; std::_Ptr_cat<D3DXVECTOR3,D3DXVECTOR3>
_TEXT	ENDS
PUBLIC	??$_Ptr_cat@URoundInfo@@U1@@std@@YA?AU_Nonscalar_ptr_iterator_tag@0@PAURoundInfo@@0@Z ; std::_Ptr_cat<RoundInfo,RoundInfo>
; Function compile flags: /Ogsp
;	COMDAT ??$_Ptr_cat@URoundInfo@@U1@@std@@YA?AU_Nonscalar_ptr_iterator_tag@0@PAURoundInfo@@0@Z
_TEXT	SEGMENT
__Cat$ = -1						; size = 1
___formal$ = 8						; size = 4
___formal$ = 12						; size = 4
??$_Ptr_cat@URoundInfo@@U1@@std@@YA?AU_Nonscalar_ptr_iterator_tag@0@PAURoundInfo@@0@Z PROC ; std::_Ptr_cat<RoundInfo,RoundInfo>, COMDAT

; 516  : 	{	// return pointer category from pointers

  00000	55		 push	 ebp
  00001	8b ec		 mov	 ebp, esp
  00003	51		 push	 ecx

; 517  : 	typename _Ptr_cat_helper<_Elem1, _Elem2>::_Type _Cat;
; 518  : 	return (_Cat);

  00004	8a 45 ff	 mov	 al, BYTE PTR __Cat$[ebp]

; 519  : 	}

  00007	c9		 leave
  00008	c3		 ret	 0
??$_Ptr_cat@URoundInfo@@U1@@std@@YA?AU_Nonscalar_ptr_iterator_tag@0@PAURoundInfo@@0@Z ENDP ; std::_Ptr_cat<RoundInfo,RoundInfo>
_TEXT	ENDS
PUBLIC	??$_Ptr_cat@UFightNPCRecord@@U1@@std@@YA?AU_Nonscalar_ptr_iterator_tag@0@PAUFightNPCRecord@@0@Z ; std::_Ptr_cat<FightNPCRecord,FightNPCRecord>
; Function compile flags: /Ogsp
;	COMDAT ??$_Ptr_cat@UFightNPCRecord@@U1@@std@@YA?AU_Nonscalar_ptr_iterator_tag@0@PAUFightNPCRecord@@0@Z
_TEXT	SEGMENT
__Cat$ = -1						; size = 1
___formal$ = 8						; size = 4
___formal$ = 12						; size = 4
??$_Ptr_cat@UFightNPCRecord@@U1@@std@@YA?AU_Nonscalar_ptr_iterator_tag@0@PAUFightNPCRecord@@0@Z PROC ; std::_Ptr_cat<FightNPCRecord,FightNPCRecord>, COMDAT

; 516  : 	{	// return pointer category from pointers

  00000	55		 push	 ebp
  00001	8b ec		 mov	 ebp, esp
  00003	51		 push	 ecx

; 517  : 	typename _Ptr_cat_helper<_Elem1, _Elem2>::_Type _Cat;
; 518  : 	return (_Cat);

  00004	8a 45 ff	 mov	 al, BYTE PTR __Cat$[ebp]

; 519  : 	}

  00007	c9		 leave
  00008	c3		 ret	 0
??$_Ptr_cat@UFightNPCRecord@@U1@@std@@YA?AU_Nonscalar_ptr_iterator_tag@0@PAUFightNPCRecord@@0@Z ENDP ; std::_Ptr_cat<FightNPCRecord,FightNPCRecord>
_TEXT	ENDS
PUBLIC	??$_Ptr_cat@UPositionDistanceSq@@U1@@std@@YA?AU_Nonscalar_ptr_iterator_tag@0@PAUPositionDistanceSq@@0@Z ; std::_Ptr_cat<PositionDistanceSq,PositionDistanceSq>
; Function compile flags: /Ogsp
;	COMDAT ??$_Ptr_cat@UPositionDistanceSq@@U1@@std@@YA?AU_Nonscalar_ptr_iterator_tag@0@PAUPositionDistanceSq@@0@Z
_TEXT	SEGMENT
__Cat$ = -1						; size = 1
___formal$ = 8						; size = 4
___formal$ = 12						; size = 4
??$_Ptr_cat@UPositionDistanceSq@@U1@@std@@YA?AU_Nonscalar_ptr_iterator_tag@0@PAUPositionDistanceSq@@0@Z PROC ; std::_Ptr_cat<PositionDistanceSq,PositionDistanceSq>, COMDAT

; 516  : 	{	// return pointer category from pointers

  00000	55		 push	 ebp
  00001	8b ec		 mov	 ebp, esp
  00003	51		 push	 ecx

; 517  : 	typename _Ptr_cat_helper<_Elem1, _Elem2>::_Type _Cat;
; 518  : 	return (_Cat);

  00004	8a 45 ff	 mov	 al, BYTE PTR __Cat$[ebp]

; 519  : 	}

  00007	c9		 leave
  00008	c3		 ret	 0
??$_Ptr_cat@UPositionDistanceSq@@U1@@std@@YA?AU_Nonscalar_ptr_iterator_tag@0@PAUPositionDistanceSq@@0@Z ENDP ; std::_Ptr_cat<PositionDistanceSq,PositionDistanceSq>
_TEXT	ENDS
PUBLIC	??$_Ptr_cat@UContributeInfo@@U1@@std@@YA?AU_Nonscalar_ptr_iterator_tag@0@PAUContributeInfo@@0@Z ; std::_Ptr_cat<ContributeInfo,ContributeInfo>
; Function compile flags: /Ogsp
;	COMDAT ??$_Ptr_cat@UContributeInfo@@U1@@std@@YA?AU_Nonscalar_ptr_iterator_tag@0@PAUContributeInfo@@0@Z
_TEXT	SEGMENT
__Cat$ = -1						; size = 1
___formal$ = 8						; size = 4
___formal$ = 12						; size = 4
??$_Ptr_cat@UContributeInfo@@U1@@std@@YA?AU_Nonscalar_ptr_iterator_tag@0@PAUContributeInfo@@0@Z PROC ; std::_Ptr_cat<ContributeInfo,ContributeInfo>, COMDAT

; 516  : 	{	// return pointer category from pointers

  00000	55		 push	 ebp
  00001	8b ec		 mov	 ebp, esp
  00003	51		 push	 ecx

; 517  : 	typename _Ptr_cat_helper<_Elem1, _Elem2>::_Type _Cat;
; 518  : 	return (_Cat);

  00004	8a 45 ff	 mov	 al, BYTE PTR __Cat$[ebp]

; 519  : 	}

  00007	c9		 leave
  00008	c3		 ret	 0
??$_Ptr_cat@UContributeInfo@@U1@@std@@YA?AU_Nonscalar_ptr_iterator_tag@0@PAUContributeInfo@@0@Z ENDP ; std::_Ptr_cat<ContributeInfo,ContributeInfo>
_TEXT	ENDS
PUBLIC	??$_Construct@HABH@std@@YAXPAHABH@Z		; std::_Construct<int,int const &>
; Function compile flags: /Ogsp
; File c:\program files (x86)\microsoft visual studio 10.0\vc\include\xmemory
;	COMDAT ??$_Construct@HABH@std@@YAXPAHABH@Z
_TEXT	SEGMENT
__Ptr$ = 8						; size = 4
__Val$ = 12						; size = 4
??$_Construct@HABH@std@@YAXPAHABH@Z PROC		; std::_Construct<int,int const &>, COMDAT

; 46   : 	{	// construct object at _Ptr with value _Val

  00000	55		 push	 ebp
  00001	8b ec		 mov	 ebp, esp

; 47   : 	void _FARQ *_Vptr = _Ptr;
; 48   : 	::new (_Vptr) _Ty1(_STD forward<_Ty2>(_Val));

  00003	8b 45 08	 mov	 eax, DWORD PTR __Ptr$[ebp]
  00006	85 c0		 test	 eax, eax
  00008	74 07		 je	 SHORT $LN3@Construct
  0000a	8b 4d 0c	 mov	 ecx, DWORD PTR __Val$[ebp]
  0000d	8b 09		 mov	 ecx, DWORD PTR [ecx]
  0000f	89 08		 mov	 DWORD PTR [eax], ecx
$LN3@Construct:

; 49   : 	}

  00011	5d		 pop	 ebp
  00012	c3		 ret	 0
??$_Construct@HABH@std@@YAXPAHABH@Z ENDP		; std::_Construct<int,int const &>
_TEXT	ENDS
PUBLIC	??$_Construct@UD3DXVECTOR3@@ABU1@@std@@YAXPAUD3DXVECTOR3@@ABU1@@Z ; std::_Construct<D3DXVECTOR3,D3DXVECTOR3 const &>
; Function compile flags: /Ogsp
;	COMDAT ??$_Construct@UD3DXVECTOR3@@ABU1@@std@@YAXPAUD3DXVECTOR3@@ABU1@@Z
_TEXT	SEGMENT
__Ptr$ = 8						; size = 4
__Val$ = 12						; size = 4
??$_Construct@UD3DXVECTOR3@@ABU1@@std@@YAXPAUD3DXVECTOR3@@ABU1@@Z PROC ; std::_Construct<D3DXVECTOR3,D3DXVECTOR3 const &>, COMDAT

; 46   : 	{	// construct object at _Ptr with value _Val

  00000	55		 push	 ebp
  00001	8b ec		 mov	 ebp, esp
  00003	57		 push	 edi

; 47   : 	void _FARQ *_Vptr = _Ptr;
; 48   : 	::new (_Vptr) _Ty1(_STD forward<_Ty2>(_Val));

  00004	8b 7d 08	 mov	 edi, DWORD PTR __Ptr$[ebp]
  00007	85 ff		 test	 edi, edi
  00009	74 08		 je	 SHORT $LN3@Construct@2
  0000b	56		 push	 esi
  0000c	8b 75 0c	 mov	 esi, DWORD PTR __Val$[ebp]
  0000f	a5		 movsd
  00010	a5		 movsd
  00011	a5		 movsd
  00012	5e		 pop	 esi
$LN3@Construct@2:
  00013	5f		 pop	 edi

; 49   : 	}

  00014	5d		 pop	 ebp
  00015	c3		 ret	 0
??$_Construct@UD3DXVECTOR3@@ABU1@@std@@YAXPAUD3DXVECTOR3@@ABU1@@Z ENDP ; std::_Construct<D3DXVECTOR3,D3DXVECTOR3 const &>
_TEXT	ENDS
PUBLIC	??$_Kfn@$$CBHH@?$_Tmap_traits@HHU?$less@H@std@@V?$allocator@U?$pair@$$CBHH@std@@@2@$0A@@std@@SAABHABU?$pair@$$CBHH@1@@Z ; std::_Tmap_traits<int,int,std::less<int>,std::allocator<std::pair<int const ,int> >,0>::_Kfn<int const ,int>
; Function compile flags: /Ogsp
; File c:\program files (x86)\microsoft visual studio 10.0\vc\include\map
;	COMDAT ??$_Kfn@$$CBHH@?$_Tmap_traits@HHU?$less@H@std@@V?$allocator@U?$pair@$$CBHH@std@@@2@$0A@@std@@SAABHABU?$pair@$$CBHH@1@@Z
_TEXT	SEGMENT
__Val$ = 8						; size = 4
??$_Kfn@$$CBHH@?$_Tmap_traits@HHU?$less@H@std@@V?$allocator@U?$pair@$$CBHH@std@@@2@$0A@@std@@SAABHABU?$pair@$$CBHH@1@@Z PROC ; std::_Tmap_traits<int,int,std::less<int>,std::allocator<std::pair<int const ,int> >,0>::_Kfn<int const ,int>, COMDAT

; 66   : 		static const _Kty& _Kfn(const _STD pair<_Ty1, _Ty2>& _Val)

  00000	55		 push	 ebp
  00001	8b ec		 mov	 ebp, esp

; 67   : 		{	// extract key from element value
; 68   : 		return (_Val.first);

  00003	8b 45 08	 mov	 eax, DWORD PTR __Val$[ebp]

; 69   : 		}

  00006	5d		 pop	 ebp
  00007	c3		 ret	 0
??$_Kfn@$$CBHH@?$_Tmap_traits@HHU?$less@H@std@@V?$allocator@U?$pair@$$CBHH@std@@@2@$0A@@std@@SAABHABU?$pair@$$CBHH@1@@Z ENDP ; std::_Tmap_traits<int,int,std::less<int>,std::allocator<std::pair<int const ,int> >,0>::_Kfn<int const ,int>
_TEXT	ENDS
PUBLIC	??$_Construct@UPositionDistanceSq@@ABU1@@std@@YAXPAUPositionDistanceSq@@ABU1@@Z ; std::_Construct<PositionDistanceSq,PositionDistanceSq const &>
; Function compile flags: /Ogsp
; File c:\program files (x86)\microsoft visual studio 10.0\vc\include\xmemory
;	COMDAT ??$_Construct@UPositionDistanceSq@@ABU1@@std@@YAXPAUPositionDistanceSq@@ABU1@@Z
_TEXT	SEGMENT
__Ptr$ = 8						; size = 4
__Val$ = 12						; size = 4
??$_Construct@UPositionDistanceSq@@ABU1@@std@@YAXPAUPositionDistanceSq@@ABU1@@Z PROC ; std::_Construct<PositionDistanceSq,PositionDistanceSq const &>, COMDAT

; 46   : 	{	// construct object at _Ptr with value _Val

  00000	55		 push	 ebp
  00001	8b ec		 mov	 ebp, esp

; 47   : 	void _FARQ *_Vptr = _Ptr;
; 48   : 	::new (_Vptr) _Ty1(_STD forward<_Ty2>(_Val));

  00003	8b 45 08	 mov	 eax, DWORD PTR __Ptr$[ebp]
  00006	85 c0		 test	 eax, eax
  00008	74 0d		 je	 SHORT $LN3@Construct@3
  0000a	8b 4d 0c	 mov	 ecx, DWORD PTR __Val$[ebp]
  0000d	8b 11		 mov	 edx, DWORD PTR [ecx]
  0000f	89 10		 mov	 DWORD PTR [eax], edx
  00011	8b 49 04	 mov	 ecx, DWORD PTR [ecx+4]
  00014	89 48 04	 mov	 DWORD PTR [eax+4], ecx
$LN3@Construct@3:

; 49   : 	}

  00017	5d		 pop	 ebp
  00018	c3		 ret	 0
??$_Construct@UPositionDistanceSq@@ABU1@@std@@YAXPAUPositionDistanceSq@@ABU1@@Z ENDP ; std::_Construct<PositionDistanceSq,PositionDistanceSq const &>
_TEXT	ENDS
PUBLIC	??$move@AAV?$_Tree_iterator@V?$_Tree_val@V?$_Tmap_traits@HHU?$less@H@std@@V?$allocator@U?$pair@$$CBHH@std@@@2@$0A@@std@@@std@@@std@@@std@@YA$$QAV?$_Tree_iterator@V?$_Tree_val@V?$_Tmap_traits@HHU?$less@H@std@@V?$allocator@U?$pair@$$CBHH@std@@@2@$0A@@std@@@std@@@0@AAV10@@Z ; std::move<std::_Tree_iterator<std::_Tree_val<std::_Tmap_traits<int,int,std::less<int>,std::allocator<std::pair<int const ,int> >,0> > > &>
; Function compile flags: /Ogsp
; File c:\program files (x86)\microsoft visual studio 10.0\vc\include\utility
;	COMDAT ??$move@AAV?$_Tree_iterator@V?$_Tree_val@V?$_Tmap_traits@HHU?$less@H@std@@V?$allocator@U?$pair@$$CBHH@std@@@2@$0A@@std@@@std@@@std@@@std@@YA$$QAV?$_Tree_iterator@V?$_Tree_val@V?$_Tmap_traits@HHU?$less@H@std@@V?$allocator@U?$pair@$$CBHH@std@@@2@$0A@@std@@@std@@@0@AAV10@@Z
_TEXT	SEGMENT
__Arg$ = 8						; size = 4
??$move@AAV?$_Tree_iterator@V?$_Tree_val@V?$_Tmap_traits@HHU?$less@H@std@@V?$allocator@U?$pair@$$CBHH@std@@@2@$0A@@std@@@std@@@std@@@std@@YA$$QAV?$_Tree_iterator@V?$_Tree_val@V?$_Tmap_traits@HHU?$less@H@std@@V?$allocator@U?$pair@$$CBHH@std@@@2@$0A@@std@@@std@@@0@AAV10@@Z PROC ; std::move<std::_Tree_iterator<std::_Tree_val<std::_Tmap_traits<int,int,std::less<int>,std::allocator<std::pair<int const ,int> >,0> > > &>, COMDAT

; 86   : 	{	// forward _Arg as movable

  00000	55		 push	 ebp
  00001	8b ec		 mov	 ebp, esp

; 87   : 	return ((typename tr1::_Remove_reference<_Ty>::_Type&&)_Arg);

  00003	8b 45 08	 mov	 eax, DWORD PTR __Arg$[ebp]

; 88   : 	}

  00006	5d		 pop	 ebp
  00007	c3		 ret	 0
??$move@AAV?$_Tree_iterator@V?$_Tree_val@V?$_Tmap_traits@HHU?$less@H@std@@V?$allocator@U?$pair@$$CBHH@std@@@2@$0A@@std@@@std@@@std@@@std@@YA$$QAV?$_Tree_iterator@V?$_Tree_val@V?$_Tmap_traits@HHU?$less@H@std@@V?$allocator@U?$pair@$$CBHH@std@@@2@$0A@@std@@@std@@@0@AAV10@@Z ENDP ; std::move<std::_Tree_iterator<std::_Tree_val<std::_Tmap_traits<int,int,std::less<int>,std::allocator<std::pair<int const ,int> >,0> > > &>
_TEXT	ENDS
PUBLIC	??0RoundInfo@@QAE@ABU0@@Z			; RoundInfo::RoundInfo
EXTRN	__imp_??0ioHashString@@QAE@ABV0@@Z:PROC
;	COMDAT xdata$x
xdata$x	SEGMENT
__unwindtable$??0RoundInfo@@QAE@ABU0@@Z DD 0ffffffffH
	DD	FLAT:__unwindfunclet$??0RoundInfo@@QAE@ABU0@@Z$0
__ehfuncinfo$??0RoundInfo@@QAE@ABU0@@Z DD 019930522H
	DD	01H
	DD	FLAT:__unwindtable$??0RoundInfo@@QAE@ABU0@@Z
	DD	2 DUP(00H)
	DD	2 DUP(00H)
	DD	00H
	DD	01H
; Function compile flags: /Ogsp
xdata$x	ENDS
;	COMDAT ??0RoundInfo@@QAE@ABU0@@Z
_TEXT	SEGMENT
_this$ = -16						; size = 4
__$EHRec$ = -12						; size = 12
___that$ = 8						; size = 4
??0RoundInfo@@QAE@ABU0@@Z PROC				; RoundInfo::RoundInfo, COMDAT
; _this$ = ecx
  00000	6a 04		 push	 4
  00002	b8 00 00 00 00	 mov	 eax, __ehhandler$??0RoundInfo@@QAE@ABU0@@Z
  00007	e8 00 00 00 00	 call	 __EH_prolog3
  0000c	8b f1		 mov	 esi, ecx
  0000e	89 75 f0	 mov	 DWORD PTR _this$[ebp], esi
  00011	8b 7d 08	 mov	 edi, DWORD PTR ___that$[ebp]
  00014	8b 1d 00 00 00
	00		 mov	 ebx, DWORD PTR __imp_??0ioHashString@@QAE@ABV0@@Z
  0001a	57		 push	 edi
  0001b	ff d3		 call	 ebx
  0001d	8b 47 10	 mov	 eax, DWORD PTR [edi+16]
  00020	83 65 fc 00	 and	 DWORD PTR __$EHRec$[ebp+8], 0
  00024	89 46 10	 mov	 DWORD PTR [esi+16], eax
  00027	8b 47 14	 mov	 eax, DWORD PTR [edi+20]
  0002a	89 46 14	 mov	 DWORD PTR [esi+20], eax
  0002d	8b 47 18	 mov	 eax, DWORD PTR [edi+24]
  00030	89 46 18	 mov	 DWORD PTR [esi+24], eax
  00033	8d 47 1c	 lea	 eax, DWORD PTR [edi+28]
  00036	50		 push	 eax
  00037	8d 4e 1c	 lea	 ecx, DWORD PTR [esi+28]
  0003a	ff d3		 call	 ebx
  0003c	8b 47 2c	 mov	 eax, DWORD PTR [edi+44]
  0003f	89 46 2c	 mov	 DWORD PTR [esi+44], eax
  00042	8b 47 30	 mov	 eax, DWORD PTR [edi+48]
  00045	89 46 30	 mov	 DWORD PTR [esi+48], eax
  00048	8b 47 34	 mov	 eax, DWORD PTR [edi+52]
  0004b	89 46 34	 mov	 DWORD PTR [esi+52], eax
  0004e	8b 47 38	 mov	 eax, DWORD PTR [edi+56]
  00051	89 46 38	 mov	 DWORD PTR [esi+56], eax
  00054	8b 47 3c	 mov	 eax, DWORD PTR [edi+60]
  00057	89 46 3c	 mov	 DWORD PTR [esi+60], eax
  0005a	8b 47 40	 mov	 eax, DWORD PTR [edi+64]
  0005d	89 46 40	 mov	 DWORD PTR [esi+64], eax
  00060	8b 47 44	 mov	 eax, DWORD PTR [edi+68]
  00063	89 46 44	 mov	 DWORD PTR [esi+68], eax
  00066	8b 47 48	 mov	 eax, DWORD PTR [edi+72]
  00069	89 46 48	 mov	 DWORD PTR [esi+72], eax
  0006c	8b 47 4c	 mov	 eax, DWORD PTR [edi+76]
  0006f	89 46 4c	 mov	 DWORD PTR [esi+76], eax
  00072	8b 47 50	 mov	 eax, DWORD PTR [edi+80]
  00075	89 46 50	 mov	 DWORD PTR [esi+80], eax
  00078	8a 47 54	 mov	 al, BYTE PTR [edi+84]
  0007b	88 46 54	 mov	 BYTE PTR [esi+84], al
  0007e	8a 47 55	 mov	 al, BYTE PTR [edi+85]
  00081	88 46 55	 mov	 BYTE PTR [esi+85], al
  00084	8a 47 56	 mov	 al, BYTE PTR [edi+86]
  00087	88 46 56	 mov	 BYTE PTR [esi+86], al
  0008a	8a 47 57	 mov	 al, BYTE PTR [edi+87]
  0008d	88 46 57	 mov	 BYTE PTR [esi+87], al
  00090	8b 47 58	 mov	 eax, DWORD PTR [edi+88]
  00093	89 46 58	 mov	 DWORD PTR [esi+88], eax
  00096	8b 47 5c	 mov	 eax, DWORD PTR [edi+92]
  00099	89 46 5c	 mov	 DWORD PTR [esi+92], eax
  0009c	8b 47 60	 mov	 eax, DWORD PTR [edi+96]
  0009f	89 46 60	 mov	 DWORD PTR [esi+96], eax
  000a2	8b 47 64	 mov	 eax, DWORD PTR [edi+100]
  000a5	89 46 64	 mov	 DWORD PTR [esi+100], eax
  000a8	8b 47 68	 mov	 eax, DWORD PTR [edi+104]
  000ab	89 46 68	 mov	 DWORD PTR [esi+104], eax
  000ae	8b 47 6c	 mov	 eax, DWORD PTR [edi+108]
  000b1	89 46 6c	 mov	 DWORD PTR [esi+108], eax
  000b4	8b 47 70	 mov	 eax, DWORD PTR [edi+112]
  000b7	89 46 70	 mov	 DWORD PTR [esi+112], eax
  000ba	8b 47 74	 mov	 eax, DWORD PTR [edi+116]
  000bd	89 46 74	 mov	 DWORD PTR [esi+116], eax
  000c0	8a 47 78	 mov	 al, BYTE PTR [edi+120]
  000c3	88 46 78	 mov	 BYTE PTR [esi+120], al
  000c6	8a 47 79	 mov	 al, BYTE PTR [edi+121]
  000c9	88 46 79	 mov	 BYTE PTR [esi+121], al
  000cc	8b 47 7c	 mov	 eax, DWORD PTR [edi+124]
  000cf	89 46 7c	 mov	 DWORD PTR [esi+124], eax
  000d2	8b c6		 mov	 eax, esi
  000d4	e8 00 00 00 00	 call	 __EH_epilog3
  000d9	c2 04 00	 ret	 4
_TEXT	ENDS
;	COMDAT text$x
text$x	SEGMENT
__unwindfunclet$??0RoundInfo@@QAE@ABU0@@Z$0:
  00000	8b 4d f0	 mov	 ecx, DWORD PTR _this$[ebp]
  00003	ff 25 00 00 00
	00		 jmp	 DWORD PTR __imp_??1ioHashString@@QAE@XZ
__ehhandler$??0RoundInfo@@QAE@ABU0@@Z:
  00009	8b 54 24 08	 mov	 edx, DWORD PTR [esp+8]
  0000d	8d 42 0c	 lea	 eax, DWORD PTR [edx+12]
  00010	8b 4a ec	 mov	 ecx, DWORD PTR [edx-20]
  00013	33 c8		 xor	 ecx, eax
  00015	e8 00 00 00 00	 call	 @__security_check_cookie@4
  0001a	b8 00 00 00 00	 mov	 eax, OFFSET __ehfuncinfo$??0RoundInfo@@QAE@ABU0@@Z
  0001f	e9 00 00 00 00	 jmp	 ___CxxFrameHandler3
text$x	ENDS
??0RoundInfo@@QAE@ABU0@@Z ENDP				; RoundInfo::RoundInfo
PUBLIC	??0FightNPCRecord@@QAE@ABU0@@Z			; FightNPCRecord::FightNPCRecord
;	COMDAT xdata$x
xdata$x	SEGMENT
__unwindtable$??0FightNPCRecord@@QAE@ABU0@@Z DD 0ffffffffH
	DD	FLAT:__unwindfunclet$??0FightNPCRecord@@QAE@ABU0@@Z$0
__ehfuncinfo$??0FightNPCRecord@@QAE@ABU0@@Z DD 019930522H
	DD	01H
	DD	FLAT:__unwindtable$??0FightNPCRecord@@QAE@ABU0@@Z
	DD	2 DUP(00H)
	DD	2 DUP(00H)
	DD	00H
	DD	01H
; Function compile flags: /Ogsp
xdata$x	ENDS
;	COMDAT ??0FightNPCRecord@@QAE@ABU0@@Z
_TEXT	SEGMENT
_this$ = -16						; size = 4
__$EHRec$ = -12						; size = 12
___that$ = 8						; size = 4
??0FightNPCRecord@@QAE@ABU0@@Z PROC			; FightNPCRecord::FightNPCRecord, COMDAT
; _this$ = ecx
  00000	6a 04		 push	 4
  00002	b8 00 00 00 00	 mov	 eax, __ehhandler$??0FightNPCRecord@@QAE@ABU0@@Z
  00007	e8 00 00 00 00	 call	 __EH_prolog3
  0000c	8b f1		 mov	 esi, ecx
  0000e	89 75 f0	 mov	 DWORD PTR _this$[ebp], esi
  00011	8b 7d 08	 mov	 edi, DWORD PTR ___that$[ebp]
  00014	8b 07		 mov	 eax, DWORD PTR [edi]
  00016	8b 1d 00 00 00
	00		 mov	 ebx, DWORD PTR __imp_??0ioHashString@@QAE@ABV0@@Z
  0001c	89 06		 mov	 DWORD PTR [esi], eax
  0001e	8b 47 04	 mov	 eax, DWORD PTR [edi+4]
  00021	89 46 04	 mov	 DWORD PTR [esi+4], eax
  00024	8d 47 08	 lea	 eax, DWORD PTR [edi+8]
  00027	50		 push	 eax
  00028	8d 4e 08	 lea	 ecx, DWORD PTR [esi+8]
  0002b	ff d3		 call	 ebx
  0002d	83 65 fc 00	 and	 DWORD PTR __$EHRec$[ebp+8], 0
  00031	8d 47 18	 lea	 eax, DWORD PTR [edi+24]
  00034	50		 push	 eax
  00035	8d 4e 18	 lea	 ecx, DWORD PTR [esi+24]
  00038	ff d3		 call	 ebx
  0003a	8b 47 28	 mov	 eax, DWORD PTR [edi+40]
  0003d	89 46 28	 mov	 DWORD PTR [esi+40], eax
  00040	8b c6		 mov	 eax, esi
  00042	e8 00 00 00 00	 call	 __EH_epilog3
  00047	c2 04 00	 ret	 4
_TEXT	ENDS
;	COMDAT text$x
text$x	SEGMENT
__unwindfunclet$??0FightNPCRecord@@QAE@ABU0@@Z$0:
  00000	8b 4d f0	 mov	 ecx, DWORD PTR _this$[ebp]
  00003	83 c1 08	 add	 ecx, 8
  00006	ff 25 00 00 00
	00		 jmp	 DWORD PTR __imp_??1ioHashString@@QAE@XZ
__ehhandler$??0FightNPCRecord@@QAE@ABU0@@Z:
  0000c	8b 54 24 08	 mov	 edx, DWORD PTR [esp+8]
  00010	8d 42 0c	 lea	 eax, DWORD PTR [edx+12]
  00013	8b 4a ec	 mov	 ecx, DWORD PTR [edx-20]
  00016	33 c8		 xor	 ecx, eax
  00018	e8 00 00 00 00	 call	 @__security_check_cookie@4
  0001d	b8 00 00 00 00	 mov	 eax, OFFSET __ehfuncinfo$??0FightNPCRecord@@QAE@ABU0@@Z
  00022	e9 00 00 00 00	 jmp	 ___CxxFrameHandler3
text$x	ENDS
??0FightNPCRecord@@QAE@ABU0@@Z ENDP			; FightNPCRecord::FightNPCRecord
PUBLIC	??0ContributeInfo@@QAE@ABU0@@Z			; ContributeInfo::ContributeInfo
; Function compile flags: /Ogsp
;	COMDAT ??0ContributeInfo@@QAE@ABU0@@Z
_TEXT	SEGMENT
___that$ = 8						; size = 4
??0ContributeInfo@@QAE@ABU0@@Z PROC			; ContributeInfo::ContributeInfo, COMDAT
; _this$ = ecx
  00000	55		 push	 ebp
  00001	8b ec		 mov	 ebp, esp
  00003	56		 push	 esi
  00004	57		 push	 edi
  00005	8b 7d 08	 mov	 edi, DWORD PTR ___that$[ebp]
  00008	8b 07		 mov	 eax, DWORD PTR [edi]
  0000a	8b f1		 mov	 esi, ecx
  0000c	89 06		 mov	 DWORD PTR [esi], eax
  0000e	8b 47 04	 mov	 eax, DWORD PTR [edi+4]
  00011	89 46 04	 mov	 DWORD PTR [esi+4], eax
  00014	8b 47 08	 mov	 eax, DWORD PTR [edi+8]
  00017	89 46 08	 mov	 DWORD PTR [esi+8], eax
  0001a	8d 47 0c	 lea	 eax, DWORD PTR [edi+12]
  0001d	50		 push	 eax
  0001e	8d 4e 0c	 lea	 ecx, DWORD PTR [esi+12]
  00021	ff 15 00 00 00
	00		 call	 DWORD PTR __imp_??0ioHashString@@QAE@ABV0@@Z
  00027	8b 47 1c	 mov	 eax, DWORD PTR [edi+28]
  0002a	89 46 1c	 mov	 DWORD PTR [esi+28], eax
  0002d	5f		 pop	 edi
  0002e	8b c6		 mov	 eax, esi
  00030	5e		 pop	 esi
  00031	5d		 pop	 ebp
  00032	c2 04 00	 ret	 4
??0ContributeInfo@@QAE@ABU0@@Z ENDP			; ContributeInfo::ContributeInfo
_TEXT	ENDS
PUBLIC	??4RoundInfo@@QAEAAU0@ABU0@@Z			; RoundInfo::operator=
EXTRN	__imp_??4ioHashString@@QAEAAV0@ABV0@@Z:PROC
; Function compile flags: /Ogsp
;	COMDAT ??4RoundInfo@@QAEAAU0@ABU0@@Z
_TEXT	SEGMENT
___that$ = 8						; size = 4
??4RoundInfo@@QAEAAU0@ABU0@@Z PROC			; RoundInfo::operator=, COMDAT
; _this$ = ecx
  00000	55		 push	 ebp
  00001	8b ec		 mov	 ebp, esp
  00003	53		 push	 ebx
  00004	8b 1d 00 00 00
	00		 mov	 ebx, DWORD PTR __imp_??4ioHashString@@QAEAAV0@ABV0@@Z
  0000a	56		 push	 esi
  0000b	57		 push	 edi
  0000c	8b 7d 08	 mov	 edi, DWORD PTR ___that$[ebp]
  0000f	57		 push	 edi
  00010	8b f1		 mov	 esi, ecx
  00012	ff d3		 call	 ebx
  00014	8b 47 10	 mov	 eax, DWORD PTR [edi+16]
  00017	89 46 10	 mov	 DWORD PTR [esi+16], eax
  0001a	8b 47 14	 mov	 eax, DWORD PTR [edi+20]
  0001d	89 46 14	 mov	 DWORD PTR [esi+20], eax
  00020	8b 47 18	 mov	 eax, DWORD PTR [edi+24]
  00023	89 46 18	 mov	 DWORD PTR [esi+24], eax
  00026	8d 47 1c	 lea	 eax, DWORD PTR [edi+28]
  00029	50		 push	 eax
  0002a	8d 4e 1c	 lea	 ecx, DWORD PTR [esi+28]
  0002d	ff d3		 call	 ebx
  0002f	8b 47 2c	 mov	 eax, DWORD PTR [edi+44]
  00032	89 46 2c	 mov	 DWORD PTR [esi+44], eax
  00035	8b 47 30	 mov	 eax, DWORD PTR [edi+48]
  00038	89 46 30	 mov	 DWORD PTR [esi+48], eax
  0003b	8b 47 34	 mov	 eax, DWORD PTR [edi+52]
  0003e	89 46 34	 mov	 DWORD PTR [esi+52], eax
  00041	8b 47 38	 mov	 eax, DWORD PTR [edi+56]
  00044	89 46 38	 mov	 DWORD PTR [esi+56], eax
  00047	8b 47 3c	 mov	 eax, DWORD PTR [edi+60]
  0004a	89 46 3c	 mov	 DWORD PTR [esi+60], eax
  0004d	8b 47 40	 mov	 eax, DWORD PTR [edi+64]
  00050	89 46 40	 mov	 DWORD PTR [esi+64], eax
  00053	8b 47 44	 mov	 eax, DWORD PTR [edi+68]
  00056	89 46 44	 mov	 DWORD PTR [esi+68], eax
  00059	8b 47 48	 mov	 eax, DWORD PTR [edi+72]
  0005c	89 46 48	 mov	 DWORD PTR [esi+72], eax
  0005f	8b 47 4c	 mov	 eax, DWORD PTR [edi+76]
  00062	89 46 4c	 mov	 DWORD PTR [esi+76], eax
  00065	8b 47 50	 mov	 eax, DWORD PTR [edi+80]
  00068	89 46 50	 mov	 DWORD PTR [esi+80], eax
  0006b	8a 47 54	 mov	 al, BYTE PTR [edi+84]
  0006e	88 46 54	 mov	 BYTE PTR [esi+84], al
  00071	8a 47 55	 mov	 al, BYTE PTR [edi+85]
  00074	88 46 55	 mov	 BYTE PTR [esi+85], al
  00077	8a 47 56	 mov	 al, BYTE PTR [edi+86]
  0007a	88 46 56	 mov	 BYTE PTR [esi+86], al
  0007d	8a 47 57	 mov	 al, BYTE PTR [edi+87]
  00080	88 46 57	 mov	 BYTE PTR [esi+87], al
  00083	8b 47 58	 mov	 eax, DWORD PTR [edi+88]
  00086	89 46 58	 mov	 DWORD PTR [esi+88], eax
  00089	8b 47 5c	 mov	 eax, DWORD PTR [edi+92]
  0008c	89 46 5c	 mov	 DWORD PTR [esi+92], eax
  0008f	8b 47 60	 mov	 eax, DWORD PTR [edi+96]
  00092	89 46 60	 mov	 DWORD PTR [esi+96], eax
  00095	8b 47 64	 mov	 eax, DWORD PTR [edi+100]
  00098	89 46 64	 mov	 DWORD PTR [esi+100], eax
  0009b	8b 47 68	 mov	 eax, DWORD PTR [edi+104]
  0009e	89 46 68	 mov	 DWORD PTR [esi+104], eax
  000a1	8b 47 6c	 mov	 eax, DWORD PTR [edi+108]
  000a4	89 46 6c	 mov	 DWORD PTR [esi+108], eax
  000a7	8b 47 70	 mov	 eax, DWORD PTR [edi+112]
  000aa	89 46 70	 mov	 DWORD PTR [esi+112], eax
  000ad	8b 47 74	 mov	 eax, DWORD PTR [edi+116]
  000b0	89 46 74	 mov	 DWORD PTR [esi+116], eax
  000b3	8a 47 78	 mov	 al, BYTE PTR [edi+120]
  000b6	88 46 78	 mov	 BYTE PTR [esi+120], al
  000b9	8a 47 79	 mov	 al, BYTE PTR [edi+121]
  000bc	88 46 79	 mov	 BYTE PTR [esi+121], al
  000bf	8b 47 7c	 mov	 eax, DWORD PTR [edi+124]
  000c2	89 46 7c	 mov	 DWORD PTR [esi+124], eax
  000c5	5f		 pop	 edi
  000c6	8b c6		 mov	 eax, esi
  000c8	5e		 pop	 esi
  000c9	5b		 pop	 ebx
  000ca	5d		 pop	 ebp
  000cb	c2 04 00	 ret	 4
??4RoundInfo@@QAEAAU0@ABU0@@Z ENDP			; RoundInfo::operator=
_TEXT	ENDS
PUBLIC	??4FightNPCRecord@@QAEAAU0@ABU0@@Z		; FightNPCRecord::operator=
; Function compile flags: /Ogsp
;	COMDAT ??4FightNPCRecord@@QAEAAU0@ABU0@@Z
_TEXT	SEGMENT
___that$ = 8						; size = 4
??4FightNPCRecord@@QAEAAU0@ABU0@@Z PROC			; FightNPCRecord::operator=, COMDAT
; _this$ = ecx
  00000	55		 push	 ebp
  00001	8b ec		 mov	 ebp, esp
  00003	53		 push	 ebx
  00004	8b 1d 00 00 00
	00		 mov	 ebx, DWORD PTR __imp_??4ioHashString@@QAEAAV0@ABV0@@Z
  0000a	56		 push	 esi
  0000b	57		 push	 edi
  0000c	8b 7d 08	 mov	 edi, DWORD PTR ___that$[ebp]
  0000f	8b 07		 mov	 eax, DWORD PTR [edi]
  00011	8b f1		 mov	 esi, ecx
  00013	89 06		 mov	 DWORD PTR [esi], eax
  00015	8b 47 04	 mov	 eax, DWORD PTR [edi+4]
  00018	89 46 04	 mov	 DWORD PTR [esi+4], eax
  0001b	8d 47 08	 lea	 eax, DWORD PTR [edi+8]
  0001e	50		 push	 eax
  0001f	8d 4e 08	 lea	 ecx, DWORD PTR [esi+8]
  00022	ff d3		 call	 ebx
  00024	8d 47 18	 lea	 eax, DWORD PTR [edi+24]
  00027	50		 push	 eax
  00028	8d 4e 18	 lea	 ecx, DWORD PTR [esi+24]
  0002b	ff d3		 call	 ebx
  0002d	8b 47 28	 mov	 eax, DWORD PTR [edi+40]
  00030	89 46 28	 mov	 DWORD PTR [esi+40], eax
  00033	5f		 pop	 edi
  00034	8b c6		 mov	 eax, esi
  00036	5e		 pop	 esi
  00037	5b		 pop	 ebx
  00038	5d		 pop	 ebp
  00039	c2 04 00	 ret	 4
??4FightNPCRecord@@QAEAAU0@ABU0@@Z ENDP			; FightNPCRecord::operator=
_TEXT	ENDS
PUBLIC	??4ContributeInfo@@QAEAAU0@ABU0@@Z		; ContributeInfo::operator=
; Function compile flags: /Ogsp
;	COMDAT ??4ContributeInfo@@QAEAAU0@ABU0@@Z
_TEXT	SEGMENT
___that$ = 8						; size = 4
??4ContributeInfo@@QAEAAU0@ABU0@@Z PROC			; ContributeInfo::operator=, COMDAT
; _this$ = ecx
  00000	55		 push	 ebp
  00001	8b ec		 mov	 ebp, esp
  00003	56		 push	 esi
  00004	57		 push	 edi
  00005	8b 7d 08	 mov	 edi, DWORD PTR ___that$[ebp]
  00008	8b 07		 mov	 eax, DWORD PTR [edi]
  0000a	8b f1		 mov	 esi, ecx
  0000c	89 06		 mov	 DWORD PTR [esi], eax
  0000e	8b 47 04	 mov	 eax, DWORD PTR [edi+4]
  00011	89 46 04	 mov	 DWORD PTR [esi+4], eax
  00014	8b 47 08	 mov	 eax, DWORD PTR [edi+8]
  00017	89 46 08	 mov	 DWORD PTR [esi+8], eax
  0001a	8d 47 0c	 lea	 eax, DWORD PTR [edi+12]
  0001d	50		 push	 eax
  0001e	8d 4e 0c	 lea	 ecx, DWORD PTR [esi+12]
  00021	ff 15 00 00 00
	00		 call	 DWORD PTR __imp_??4ioHashString@@QAEAAV0@ABV0@@Z
  00027	8b 47 1c	 mov	 eax, DWORD PTR [edi+28]
  0002a	89 46 1c	 mov	 DWORD PTR [esi+28], eax
  0002d	5f		 pop	 edi
  0002e	8b c6		 mov	 eax, esi
  00030	5e		 pop	 esi
  00031	5d		 pop	 ebp
  00032	c2 04 00	 ret	 4
??4ContributeInfo@@QAEAAU0@ABU0@@Z ENDP			; ContributeInfo::operator=
_TEXT	ENDS
PUBLIC	??_7ModeContribute@@6B@				; ModeContribute::`vftable'
PUBLIC	??0ModeContribute@@QAE@ABU0@@Z			; ModeContribute::ModeContribute
PUBLIC	??_R4ModeContribute@@6B@			; ModeContribute::`RTTI Complete Object Locator'
PUBLIC	??_R0?AUModeContribute@@@8			; ModeContribute `RTTI Type Descriptor'
PUBLIC	??_R3ModeContribute@@8				; ModeContribute::`RTTI Class Hierarchy Descriptor'
PUBLIC	??_R2ModeContribute@@8				; ModeContribute::`RTTI Base Class Array'
PUBLIC	??_R1A@?0A@EA@ModeContribute@@8			; ModeContribute::`RTTI Base Class Descriptor at (0,-1,0,64)'
PUBLIC	?InitValues@ModeContribute@@UAEXXZ		; ModeContribute::InitValues
;	COMDAT ??_R1A@?0A@EA@ModeContribute@@8
rdata$r	SEGMENT
??_R1A@?0A@EA@ModeContribute@@8 DD FLAT:??_R0?AUModeContribute@@@8 ; ModeContribute::`RTTI Base Class Descriptor at (0,-1,0,64)'
	DD	00H
	DD	00H
	DD	0ffffffffH
	DD	00H
	DD	040H
	DD	FLAT:??_R3ModeContribute@@8
rdata$r	ENDS
;	COMDAT ??_R2ModeContribute@@8
rdata$r	SEGMENT
??_R2ModeContribute@@8 DD FLAT:??_R1A@?0A@EA@ModeContribute@@8 ; ModeContribute::`RTTI Base Class Array'
rdata$r	ENDS
;	COMDAT ??_R3ModeContribute@@8
rdata$r	SEGMENT
??_R3ModeContribute@@8 DD 00H				; ModeContribute::`RTTI Class Hierarchy Descriptor'
	DD	00H
	DD	01H
	DD	FLAT:??_R2ModeContribute@@8
rdata$r	ENDS
;	COMDAT ??_R0?AUModeContribute@@@8
_DATA	SEGMENT
??_R0?AUModeContribute@@@8 DD FLAT:??_7type_info@@6B@	; ModeContribute `RTTI Type Descriptor'
	DD	00H
	DB	'.?AUModeContribute@@', 00H
_DATA	ENDS
;	COMDAT ??_R4ModeContribute@@6B@
rdata$r	SEGMENT
??_R4ModeContribute@@6B@ DD 00H				; ModeContribute::`RTTI Complete Object Locator'
	DD	00H
	DD	00H
	DD	FLAT:??_R0?AUModeContribute@@@8
	DD	FLAT:??_R3ModeContribute@@8
rdata$r	ENDS
;	COMDAT ??_7ModeContribute@@6B@
CONST	SEGMENT
??_7ModeContribute@@6B@ DD FLAT:??_R4ModeContribute@@6B@ ; ModeContribute::`vftable'
	DD	FLAT:?InitValues@ModeContribute@@UAEXXZ
; Function compile flags: /Ogsp
CONST	ENDS
;	COMDAT ??0ModeContribute@@QAE@ABU0@@Z
_TEXT	SEGMENT
___that$ = 8						; size = 4
??0ModeContribute@@QAE@ABU0@@Z PROC			; ModeContribute::ModeContribute, COMDAT
; _this$ = ecx
  00000	55		 push	 ebp
  00001	8b ec		 mov	 ebp, esp
  00003	8b c1		 mov	 eax, ecx
  00005	8b 4d 08	 mov	 ecx, DWORD PTR ___that$[ebp]
  00008	c7 00 00 00 00
	00		 mov	 DWORD PTR [eax], OFFSET ??_7ModeContribute@@6B@
  0000e	8a 51 04	 mov	 dl, BYTE PTR [ecx+4]
  00011	88 50 04	 mov	 BYTE PTR [eax+4], dl
  00014	8b 51 08	 mov	 edx, DWORD PTR [ecx+8]
  00017	89 50 08	 mov	 DWORD PTR [eax+8], edx
  0001a	8b 51 0c	 mov	 edx, DWORD PTR [ecx+12]
  0001d	89 50 0c	 mov	 DWORD PTR [eax+12], edx
  00020	8b 51 10	 mov	 edx, DWORD PTR [ecx+16]
  00023	89 50 10	 mov	 DWORD PTR [eax+16], edx
  00026	8b 51 14	 mov	 edx, DWORD PTR [ecx+20]
  00029	89 50 14	 mov	 DWORD PTR [eax+20], edx
  0002c	8b 51 18	 mov	 edx, DWORD PTR [ecx+24]
  0002f	89 50 18	 mov	 DWORD PTR [eax+24], edx
  00032	8b 49 1c	 mov	 ecx, DWORD PTR [ecx+28]
  00035	89 48 1c	 mov	 DWORD PTR [eax+28], ecx
  00038	5d		 pop	 ebp
  00039	c2 04 00	 ret	 4
??0ModeContribute@@QAE@ABU0@@Z ENDP			; ModeContribute::ModeContribute
_TEXT	ENDS
PUBLIC	??4ModeContribute@@QAEAAU0@ABU0@@Z		; ModeContribute::operator=
; Function compile flags: /Ogsp
;	COMDAT ??4ModeContribute@@QAEAAU0@ABU0@@Z
_TEXT	SEGMENT
___that$ = 8						; size = 4
??4ModeContribute@@QAEAAU0@ABU0@@Z PROC			; ModeContribute::operator=, COMDAT
; _this$ = ecx
  00000	55		 push	 ebp
  00001	8b ec		 mov	 ebp, esp
  00003	8b c1		 mov	 eax, ecx
  00005	8b 4d 08	 mov	 ecx, DWORD PTR ___that$[ebp]
  00008	8a 51 04	 mov	 dl, BYTE PTR [ecx+4]
  0000b	88 50 04	 mov	 BYTE PTR [eax+4], dl
  0000e	8b 51 08	 mov	 edx, DWORD PTR [ecx+8]
  00011	89 50 08	 mov	 DWORD PTR [eax+8], edx
  00014	8b 51 0c	 mov	 edx, DWORD PTR [ecx+12]
  00017	89 50 0c	 mov	 DWORD PTR [eax+12], edx
  0001a	8b 51 10	 mov	 edx, DWORD PTR [ecx+16]
  0001d	89 50 10	 mov	 DWORD PTR [eax+16], edx
  00020	8b 51 14	 mov	 edx, DWORD PTR [ecx+20]
  00023	89 50 14	 mov	 DWORD PTR [eax+20], edx
  00026	8b 51 18	 mov	 edx, DWORD PTR [ecx+24]
  00029	89 50 18	 mov	 DWORD PTR [eax+24], edx
  0002c	8b 49 1c	 mov	 ecx, DWORD PTR [ecx+28]
  0002f	89 48 1c	 mov	 DWORD PTR [eax+28], ecx
  00032	5d		 pop	 ebp
  00033	c2 04 00	 ret	 4
??4ModeContribute@@QAEAAU0@ABU0@@Z ENDP			; ModeContribute::operator=
_TEXT	ENDS
PUBLIC	?_Unchecked@?$_Vector_iterator@V?$_Vector_val@UPositionDistanceSq@@V?$allocator@UPositionDistanceSq@@@std@@@std@@@std@@QBEPAUPositionDistanceSq@@XZ ; std::_Vector_iterator<std::_Vector_val<PositionDistanceSq,std::allocator<PositionDistanceSq> > >::_Unchecked
; Function compile flags: /Ogsp
; File c:\program files (x86)\microsoft visual studio 10.0\vc\include\vector
;	COMDAT ?_Unchecked@?$_Vector_iterator@V?$_Vector_val@UPositionDistanceSq@@V?$allocator@UPositionDistanceSq@@@std@@@std@@@std@@QBEPAUPositionDistanceSq@@XZ
_TEXT	SEGMENT
?_Unchecked@?$_Vector_iterator@V?$_Vector_val@UPositionDistanceSq@@V?$allocator@UPositionDistanceSq@@@std@@@std@@@std@@QBEPAUPositionDistanceSq@@XZ PROC ; std::_Vector_iterator<std::_Vector_val<PositionDistanceSq,std::allocator<PositionDistanceSq> > >::_Unchecked, COMDAT
; _this$ = ecx

; 317  : 		return (_Unchecked_type(this->_Ptr));

  00000	8b 01		 mov	 eax, DWORD PTR [ecx]

; 318  : 		}

  00002	c3		 ret	 0
?_Unchecked@?$_Vector_iterator@V?$_Vector_val@UPositionDistanceSq@@V?$allocator@UPositionDistanceSq@@@std@@@std@@@std@@QBEPAUPositionDistanceSq@@XZ ENDP ; std::_Vector_iterator<std::_Vector_val<PositionDistanceSq,std::allocator<PositionDistanceSq> > >::_Unchecked
_TEXT	ENDS
PUBLIC	?_Unchecked@?$_Vector_iterator@V?$_Vector_val@UContributeInfo@@V?$allocator@UContributeInfo@@@std@@@std@@@std@@QBEPAUContributeInfo@@XZ ; std::_Vector_iterator<std::_Vector_val<ContributeInfo,std::allocator<ContributeInfo> > >::_Unchecked
; Function compile flags: /Ogsp
;	COMDAT ?_Unchecked@?$_Vector_iterator@V?$_Vector_val@UContributeInfo@@V?$allocator@UContributeInfo@@@std@@@std@@@std@@QBEPAUContributeInfo@@XZ
_TEXT	SEGMENT
?_Unchecked@?$_Vector_iterator@V?$_Vector_val@UContributeInfo@@V?$allocator@UContributeInfo@@@std@@@std@@@std@@QBEPAUContributeInfo@@XZ PROC ; std::_Vector_iterator<std::_Vector_val<ContributeInfo,std::allocator<ContributeInfo> > >::_Unchecked, COMDAT
; _this$ = ecx

; 317  : 		return (_Unchecked_type(this->_Ptr));

  00000	8b 01		 mov	 eax, DWORD PTR [ecx]

; 318  : 		}

  00002	c3		 ret	 0
?_Unchecked@?$_Vector_iterator@V?$_Vector_val@UContributeInfo@@V?$allocator@UContributeInfo@@@std@@@std@@@std@@QBEPAUContributeInfo@@XZ ENDP ; std::_Vector_iterator<std::_Vector_val<ContributeInfo,std::allocator<ContributeInfo> > >::_Unchecked
_TEXT	ENDS
PUBLIC	?_Unchecked@?$_Vector_iterator@V?$_Vector_val@URoundInfo@@V?$allocator@URoundInfo@@@std@@@std@@@std@@QBEPAURoundInfo@@XZ ; std::_Vector_iterator<std::_Vector_val<RoundInfo,std::allocator<RoundInfo> > >::_Unchecked
; Function compile flags: /Ogsp
;	COMDAT ?_Unchecked@?$_Vector_iterator@V?$_Vector_val@URoundInfo@@V?$allocator@URoundInfo@@@std@@@std@@@std@@QBEPAURoundInfo@@XZ
_TEXT	SEGMENT
?_Unchecked@?$_Vector_iterator@V?$_Vector_val@URoundInfo@@V?$allocator@URoundInfo@@@std@@@std@@@std@@QBEPAURoundInfo@@XZ PROC ; std::_Vector_iterator<std::_Vector_val<RoundInfo,std::allocator<RoundInfo> > >::_Unchecked, COMDAT
; _this$ = ecx

; 317  : 		return (_Unchecked_type(this->_Ptr));

  00000	8b 01		 mov	 eax, DWORD PTR [ecx]

; 318  : 		}

  00002	c3		 ret	 0
?_Unchecked@?$_Vector_iterator@V?$_Vector_val@URoundInfo@@V?$allocator@URoundInfo@@@std@@@std@@@std@@QBEPAURoundInfo@@XZ ENDP ; std::_Vector_iterator<std::_Vector_val<RoundInfo,std::allocator<RoundInfo> > >::_Unchecked
_TEXT	ENDS
PUBLIC	?key_comp@?$_Tree@V?$_Tmap_traits@HHU?$less@H@std@@V?$allocator@U?$pair@$$CBHH@std@@@2@$0A@@std@@@std@@QBE?AU?$less@H@2@XZ ; std::_Tree<std::_Tmap_traits<int,int,std::less<int>,std::allocator<std::pair<int const ,int> >,0> >::key_comp
; Function compile flags: /Ogsp
; File c:\program files (x86)\microsoft visual studio 10.0\vc\include\xtree
;	COMDAT ?key_comp@?$_Tree@V?$_Tmap_traits@HHU?$less@H@std@@V?$allocator@U?$pair@$$CBHH@std@@@2@$0A@@std@@@std@@QBE?AU?$less@H@2@XZ
_TEXT	SEGMENT
___$ReturnUdt$ = 8					; size = 4
?key_comp@?$_Tree@V?$_Tmap_traits@HHU?$less@H@std@@V?$allocator@U?$pair@$$CBHH@std@@@2@$0A@@std@@@std@@QBE?AU?$less@H@2@XZ PROC ; std::_Tree<std::_Tmap_traits<int,int,std::less<int>,std::allocator<std::pair<int const ,int> >,0> >::key_comp, COMDAT
; _this$ = ecx

; 888  : 		{	// return object for comparing keys

  00000	55		 push	 ebp
  00001	8b ec		 mov	 ebp, esp

; 889  : 		return (this->comp);

  00003	8b 45 08	 mov	 eax, DWORD PTR ___$ReturnUdt$[ebp]

; 890  : 		}

  00006	5d		 pop	 ebp
  00007	c2 04 00	 ret	 4
