; Listing generated by Microsoft (R) Optimizing Compiler Version 16.00.30319.01 

	TITLE	D:\Lost Saga For Developer\Youtube\Tutorial\Source\src\LSClient\ioFlyBuff.cpp
	.686P
	.XMM
	include listing.inc
	.model	flat

INCLUDELIB MSVCRT
INCLUDELIB OLDNAMES

PUBLIC	?return100@@YAIXZ				; return100
; Function compile flags: /Ogsp
; File d:\lost saga for developer\youtube\tutorial\source\src\lsclient\stdafx.h
;	COMDAT ?return100@@YAIXZ
_TEXT	SEGMENT
?return100@@YAIXZ PROC					; return100, COMDAT

; 25   : 	__forceinline unsigned int return100() { __asm mov eax, 100 };

  00000	b8 64 00 00 00	 mov	 eax, 100		; 00000064H
  00005	c3		 ret	 0
?return100@@YAIXZ ENDP					; return100
_TEXT	ENDS
PUBLIC	?IsCatchMode@ioBaseChar@@QBE_NXZ		; ioBaseChar::IsCatchMode
; Function compile flags: /Ogsp
; File d:\lost saga for developer\youtube\tutorial\source\src\lsclient\iobasechar.h
;	COMDAT ?IsCatchMode@ioBaseChar@@QBE_NXZ
_TEXT	SEGMENT
?IsCatchMode@ioBaseChar@@QBE_NXZ PROC			; ioBaseChar::IsCatchMode, COMDAT
; _this$ = ecx

; 2131 : 	inline bool IsCatchMode() const { return m_bCatchState; }

  00000	8a 81 78 23 00
	00		 mov	 al, BYTE PTR [ecx+9080]
  00006	c3		 ret	 0
?IsCatchMode@ioBaseChar@@QBE_NXZ ENDP			; ioBaseChar::IsCatchMode
_TEXT	ENDS
PUBLIC	?GetState@ioBaseChar@@QBE?AW4CharState@@XZ	; ioBaseChar::GetState
; Function compile flags: /Ogsp
;	COMDAT ?GetState@ioBaseChar@@QBE?AW4CharState@@XZ
_TEXT	SEGMENT
?GetState@ioBaseChar@@QBE?AW4CharState@@XZ PROC		; ioBaseChar::GetState, COMDAT
; _this$ = ecx

; 2156 : 	inline CharState GetState() const { return m_CharState; }	

  00000	8a 81 10 03 00
	00		 mov	 al, BYTE PTR [ecx+784]
  00006	c3		 ret	 0
?GetState@ioBaseChar@@QBE?AW4CharState@@XZ ENDP		; ioBaseChar::GetState
_TEXT	ENDS
PUBLIC	?GetCharName@ioBaseChar@@QBEABVioHashString@@XZ	; ioBaseChar::GetCharName
; Function compile flags: /Ogsp
;	COMDAT ?GetCharName@ioBaseChar@@QBEABVioHashString@@XZ
_TEXT	SEGMENT
?GetCharName@ioBaseChar@@QBEABVioHashString@@XZ PROC	; ioBaseChar::GetCharName, COMDAT
; _this$ = ecx

; 2594 : 	inline const ioHashString& GetCharName() const { return m_Name; }

  00000	8d 81 d4 02 00
	00		 lea	 eax, DWORD PTR [ecx+724]
  00006	c3		 ret	 0
?GetCharName@ioBaseChar@@QBEABVioHashString@@XZ ENDP	; ioBaseChar::GetCharName
_TEXT	ENDS
PUBLIC	?GetTargetRot@ioBaseChar@@QBEABUD3DXQUATERNION@@XZ ; ioBaseChar::GetTargetRot
; Function compile flags: /Ogsp
;	COMDAT ?GetTargetRot@ioBaseChar@@QBEABUD3DXQUATERNION@@XZ
_TEXT	SEGMENT
?GetTargetRot@ioBaseChar@@QBEABUD3DXQUATERNION@@XZ PROC	; ioBaseChar::GetTargetRot, COMDAT
; _this$ = ecx

; 2599 : 	inline const D3DXQUATERNION& GetTargetRot() const { return m_qtTargetRot; }

  00000	8d 81 a4 06 00
	00		 lea	 eax, DWORD PTR [ecx+1700]
  00006	c3		 ret	 0
?GetTargetRot@ioBaseChar@@QBEABUD3DXQUATERNION@@XZ ENDP	; ioBaseChar::GetTargetRot
_TEXT	ENDS
PUBLIC	?SetCurJumpPowerAmt@ioBaseChar@@QAEXM@Z		; ioBaseChar::SetCurJumpPowerAmt
EXTRN	__fltused:DWORD
; Function compile flags: /Ogsp
;	COMDAT ?SetCurJumpPowerAmt@ioBaseChar@@QAEXM@Z
_TEXT	SEGMENT
_fAmt$ = 8						; size = 4
?SetCurJumpPowerAmt@ioBaseChar@@QAEXM@Z PROC		; ioBaseChar::SetCurJumpPowerAmt, COMDAT
; _this$ = ecx

; 2628 : 	inline void SetCurJumpPowerAmt( float fAmt ) { m_fCurJumpPowerAmt = fAmt; }

  00000	55		 push	 ebp
  00001	8b ec		 mov	 ebp, esp
  00003	f3 0f 10 45 08	 movss	 xmm0, DWORD PTR _fAmt$[ebp]
  00008	f3 0f 11 81 90
	0e 00 00	 movss	 DWORD PTR [ecx+3728], xmm0
  00010	5d		 pop	 ebp
  00011	c2 04 00	 ret	 4
?SetCurJumpPowerAmt@ioBaseChar@@QAEXM@Z ENDP		; ioBaseChar::SetCurJumpPowerAmt
_TEXT	ENDS
PUBLIC	?IsSetBoost@ioBaseChar@@QBE_NXZ			; ioBaseChar::IsSetBoost
; Function compile flags: /Ogsp
;	COMDAT ?IsSetBoost@ioBaseChar@@QBE_NXZ
_TEXT	SEGMENT
?IsSetBoost@ioBaseChar@@QBE_NXZ PROC			; ioBaseChar::IsSetBoost, COMDAT
; _this$ = ecx

; 3089 : 	inline bool IsSetBoost() const { return m_bSetBoost; }

  00000	8a 81 8e 1c 00
	00		 mov	 al, BYTE PTR [ecx+7310]
  00006	c3		 ret	 0
?IsSetBoost@ioBaseChar@@QBE_NXZ ENDP			; ioBaseChar::IsSetBoost
_TEXT	ENDS
PUBLIC	?SetBoostState@ioBaseChar@@QAEX_N@Z		; ioBaseChar::SetBoostState
; Function compile flags: /Ogsp
;	COMDAT ?SetBoostState@ioBaseChar@@QAEX_N@Z
_TEXT	SEGMENT
_bUseBoost$ = 8						; size = 1
?SetBoostState@ioBaseChar@@QAEX_N@Z PROC		; ioBaseChar::SetBoostState, COMDAT
; _this$ = ecx

; 3090 : 	inline void SetBoostState( bool bUseBoost ) { m_bSetBoost = bUseBoost; }

  00000	55		 push	 ebp
  00001	8b ec		 mov	 ebp, esp
  00003	8a 45 08	 mov	 al, BYTE PTR _bUseBoost$[ebp]
  00006	88 81 8e 1c 00
	00		 mov	 BYTE PTR [ecx+7310], al
  0000c	5d		 pop	 ebp
  0000d	c2 04 00	 ret	 4
?SetBoostState@ioBaseChar@@QAEX_N@Z ENDP		; ioBaseChar::SetBoostState
_TEXT	ENDS
PUBLIC	?EndBuff@ioFlyBuff@@UAEXXZ			; ioFlyBuff::EndBuff
EXTRN	?EndBuff@ioBuff@@UAEXXZ:PROC			; ioBuff::EndBuff
EXTRN	?EndEffect@ioBaseChar@@QAEXABVioHashString@@_N1@Z:PROC ; ioBaseChar::EndEffect
EXTRN	?SetInvisibleState@ioBaseChar@@QAEX_N0@Z:PROC	; ioBaseChar::SetInvisibleState
EXTRN	?SetFallState@ioBaseChar@@QAEX_N@Z:PROC		; ioBaseChar::SetFallState
EXTRN	?SetState@ioBaseChar@@QAEXH_N@Z:PROC		; ioBaseChar::SetState
EXTRN	?SetSKillEndJumpState@ioBaseChar@@QAEXM_N0000@Z:PROC ; ioBaseChar::SetSKillEndJumpState
EXTRN	?SetCurMoveSpeed@ioBaseChar@@QAEXM@Z:PROC	; ioBaseChar::SetCurMoveSpeed
; Function compile flags: /Ogsp
; File d:\lost saga for developer\youtube\tutorial\source\src\lsclient\ioflybuff.cpp
;	COMDAT ?EndBuff@ioFlyBuff@@UAEXXZ
_TEXT	SEGMENT
_bGrace$ = -4						; size = 1
?EndBuff@ioFlyBuff@@UAEXXZ PROC				; ioFlyBuff::EndBuff, COMDAT
; _this$ = ecx

; 374  : {

  00000	55		 push	 ebp
  00001	8b ec		 mov	 ebp, esp
  00003	51		 push	 ecx
  00004	53		 push	 ebx
  00005	56		 push	 esi
  00006	8b f1		 mov	 esi, ecx

; 375  : 	if( m_pOwner->GetState() == CS_FLY )

  00008	8b 8e 74 02 00
	00		 mov	 ecx, DWORD PTR [esi+628]
  0000e	33 db		 xor	 ebx, ebx
  00010	80 b9 10 03 00
	00 14		 cmp	 BYTE PTR [ecx+784], 20	; 00000014H
  00017	57		 push	 edi
  00018	75 60		 jne	 SHORT $LN3@EndBuff

; 376  : 	{
; 377  : 		if( m_bEnableEndJump )

  0001a	38 9e a8 0a 00
	00		 cmp	 BYTE PTR [esi+2728], bl
  00020	74 3d		 je	 SHORT $LN5@EndBuff

; 378  : 		{
; 379  : 			if( m_bInitCurSpeed )

  00022	38 9e b1 0a 00
	00		 cmp	 BYTE PTR [esi+2737], bl
  00028	74 0e		 je	 SHORT $LN4@EndBuff

; 380  : 				m_pOwner->SetCurMoveSpeed( 0.0f );

  0002a	0f 57 c0	 xorps	 xmm0, xmm0
  0002d	51		 push	 ecx
  0002e	f3 0f 11 04 24	 movss	 DWORD PTR [esp], xmm0
  00033	e8 00 00 00 00	 call	 ?SetCurMoveSpeed@ioBaseChar@@QAEXM@Z ; ioBaseChar::SetCurMoveSpeed
$LN4@EndBuff:

; 381  : 
; 382  : 			m_pOwner->SetSKillEndJumpState( m_fEndJumpPower, false, false, false, m_bMustEndJump );

  00038	0f b6 86 b0 0a
	00 00		 movzx	 eax, BYTE PTR [esi+2736]
  0003f	f3 0f 10 86 ac
	0a 00 00	 movss	 xmm0, DWORD PTR [esi+2732]
  00047	53		 push	 ebx
  00048	50		 push	 eax
  00049	53		 push	 ebx
  0004a	53		 push	 ebx
  0004b	53		 push	 ebx
  0004c	51		 push	 ecx
  0004d	8b 8e 74 02 00
	00		 mov	 ecx, DWORD PTR [esi+628]
  00053	f3 0f 11 04 24	 movss	 DWORD PTR [esp], xmm0
  00058	e8 00 00 00 00	 call	 ?SetSKillEndJumpState@ioBaseChar@@QAEXM_N0000@Z ; ioBaseChar::SetSKillEndJumpState

; 383  : 		}
; 384  : 		else

  0005d	eb 1b		 jmp	 SHORT $LN3@EndBuff
$LN5@EndBuff:

; 385  : 		{
; 386  : 			m_pOwner->SetState( CS_DELAY, m_bSendDelayNetWork );

  0005f	0f b6 86 f9 08
	00 00		 movzx	 eax, BYTE PTR [esi+2297]
  00066	50		 push	 eax
  00067	53		 push	 ebx
  00068	e8 00 00 00 00	 call	 ?SetState@ioBaseChar@@QAEXH_N@Z ; ioBaseChar::SetState

; 387  : 			m_pOwner->SetFallState( true );

  0006d	8b 8e 74 02 00
	00		 mov	 ecx, DWORD PTR [esi+628]
  00073	6a 01		 push	 1
  00075	e8 00 00 00 00	 call	 ?SetFallState@ioBaseChar@@QAEX_N@Z ; ioBaseChar::SetFallState
$LN3@EndBuff:

; 388  : 		}
; 389  : 	}
; 390  : 
; 391  : 	if( m_FlyMoveType == FMT_BIRD )

  0007a	83 be 0c 0a 00
	00 01		 cmp	 DWORD PTR [esi+2572], 1
  00081	75 0d		 jne	 SHORT $LN2@EndBuff

; 392  : 		m_pOwner->SetInvisibleState( false );

  00083	8b 8e 74 02 00
	00		 mov	 ecx, DWORD PTR [esi+628]
  00089	53		 push	 ebx
  0008a	53		 push	 ebx
  0008b	e8 00 00 00 00	 call	 ?SetInvisibleState@ioBaseChar@@QAEX_N0@Z ; ioBaseChar::SetInvisibleState
$LN2@EndBuff:

; 393  : 
; 394  : 	bool bGrace = false;

  00090	88 5d fc	 mov	 BYTE PTR _bGrace$[ebp], bl

; 395  : 	if( m_FlyMoveType == FMT_NORMAL )

  00093	39 9e 0c 0a 00
	00		 cmp	 DWORD PTR [esi+2572], ebx
  00099	75 04		 jne	 SHORT $LN1@EndBuff

; 396  : 		bGrace = true;

  0009b	c6 45 fc 01	 mov	 BYTE PTR _bGrace$[ebp], 1
$LN1@EndBuff:

; 397  : 
; 398  : 	m_pOwner->EndEffect( m_FlyDelayEffect, bGrace );

  0009f	8b 7d fc	 mov	 edi, DWORD PTR _bGrace$[ebp]
  000a2	8b 8e 74 02 00
	00		 mov	 ecx, DWORD PTR [esi+628]
  000a8	6a 01		 push	 1
  000aa	57		 push	 edi
  000ab	8d 86 a0 09 00
	00		 lea	 eax, DWORD PTR [esi+2464]
  000b1	50		 push	 eax
  000b2	e8 00 00 00 00	 call	 ?EndEffect@ioBaseChar@@QAEXABVioHashString@@_N1@Z ; ioBaseChar::EndEffect

; 399  : 	m_pOwner->EndEffect( m_FlyMoveEffect, bGrace );

  000b7	8b 8e 74 02 00
	00		 mov	 ecx, DWORD PTR [esi+628]
  000bd	6a 01		 push	 1
  000bf	57		 push	 edi
  000c0	8d 86 c0 09 00
	00		 lea	 eax, DWORD PTR [esi+2496]
  000c6	50		 push	 eax
  000c7	e8 00 00 00 00	 call	 ?EndEffect@ioBaseChar@@QAEXABVioHashString@@_N1@Z ; ioBaseChar::EndEffect

; 400  : 	m_pOwner->EndEffect( m_FlyBoostEffect, bGrace );

  000cc	8b 8e 74 02 00
	00		 mov	 ecx, DWORD PTR [esi+628]
  000d2	6a 01		 push	 1
  000d4	57		 push	 edi
  000d5	8d 86 e0 09 00
	00		 lea	 eax, DWORD PTR [esi+2528]
  000db	50		 push	 eax
  000dc	e8 00 00 00 00	 call	 ?EndEffect@ioBaseChar@@QAEXABVioHashString@@_N1@Z ; ioBaseChar::EndEffect

; 401  : 	m_pOwner->EndEffect( m_FlyExtraEffect, bGrace );

  000e1	8b 8e 74 02 00
	00		 mov	 ecx, DWORD PTR [esi+628]
  000e7	6a 01		 push	 1
  000e9	57		 push	 edi
  000ea	8d 86 f0 09 00
	00		 lea	 eax, DWORD PTR [esi+2544]
  000f0	50		 push	 eax
  000f1	e8 00 00 00 00	 call	 ?EndEffect@ioBaseChar@@QAEXABVioHashString@@_N1@Z ; ioBaseChar::EndEffect

; 402  : 
; 403  : 	ioBuff::EndBuff();

  000f6	8b ce		 mov	 ecx, esi
  000f8	e8 00 00 00 00	 call	 ?EndBuff@ioBuff@@UAEXXZ	; ioBuff::EndBuff
  000fd	5f		 pop	 edi
  000fe	5e		 pop	 esi
  000ff	5b		 pop	 ebx

; 404  : }

  00100	c9		 leave
  00101	c3		 ret	 0
?EndBuff@ioFlyBuff@@UAEXXZ ENDP				; ioFlyBuff::EndBuff
_TEXT	ENDS
PUBLIC	??0D3DXVECTOR3@@QAE@MMM@Z			; D3DXVECTOR3::D3DXVECTOR3
; Function compile flags: /Ogsp
; File c:\program files (x86)\microsoft directx sdk (june 2010)\include\d3dx9math.inl
;	COMDAT ??0D3DXVECTOR3@@QAE@MMM@Z
_TEXT	SEGMENT
_fx$ = 8						; size = 4
_fy$ = 12						; size = 4
_fz$ = 16						; size = 4
??0D3DXVECTOR3@@QAE@MMM@Z PROC				; D3DXVECTOR3::D3DXVECTOR3, COMDAT
; _this$ = ecx

; 303  : {

  00000	55		 push	 ebp
  00001	8b ec		 mov	 ebp, esp

; 304  :     x = fx;

  00003	f3 0f 10 45 08	 movss	 xmm0, DWORD PTR _fx$[ebp]
  00008	8b c1		 mov	 eax, ecx
  0000a	f3 0f 11 00	 movss	 DWORD PTR [eax], xmm0

; 305  :     y = fy;

  0000e	f3 0f 10 45 0c	 movss	 xmm0, DWORD PTR _fy$[ebp]
  00013	f3 0f 11 40 04	 movss	 DWORD PTR [eax+4], xmm0

; 306  :     z = fz;

  00018	f3 0f 10 45 10	 movss	 xmm0, DWORD PTR _fz$[ebp]
  0001d	f3 0f 11 40 08	 movss	 DWORD PTR [eax+8], xmm0

; 307  : }

  00022	5d		 pop	 ebp
  00023	c2 0c 00	 ret	 12			; 0000000cH
??0D3DXVECTOR3@@QAE@MMM@Z ENDP				; D3DXVECTOR3::D3DXVECTOR3
_TEXT	ENDS
PUBLIC	??HD3DXVECTOR3@@QBE?AU0@ABU0@@Z			; D3DXVECTOR3::operator+
; Function compile flags: /Ogsp
;	COMDAT ??HD3DXVECTOR3@@QBE?AU0@ABU0@@Z
_TEXT	SEGMENT
___$ReturnUdt$ = 8					; size = 4
_v$ = 12						; size = 4
??HD3DXVECTOR3@@QBE?AU0@ABU0@@Z PROC			; D3DXVECTOR3::operator+, COMDAT
; _this$ = ecx

; 380  : {

  00000	55		 push	 ebp
  00001	8b ec		 mov	 ebp, esp

; 381  :     return D3DXVECTOR3(x + v.x, y + v.y, z + v.z);

  00003	8b 55 0c	 mov	 edx, DWORD PTR _v$[ebp]
  00006	f3 0f 10 02	 movss	 xmm0, DWORD PTR [edx]
  0000a	f3 0f 10 09	 movss	 xmm1, DWORD PTR [ecx]
  0000e	8b 45 08	 mov	 eax, DWORD PTR ___$ReturnUdt$[ebp]
  00011	0f 5a c0	 cvtps2pd xmm0, xmm0
  00014	0f 5a c9	 cvtps2pd xmm1, xmm1
  00017	f2 0f 58 c1	 addsd	 xmm0, xmm1
  0001b	f3 0f 10 49 04	 movss	 xmm1, DWORD PTR [ecx+4]
  00020	66 0f 5a c0	 cvtpd2ps xmm0, xmm0
  00024	f3 0f 11 00	 movss	 DWORD PTR [eax], xmm0
  00028	f3 0f 10 42 04	 movss	 xmm0, DWORD PTR [edx+4]
  0002d	0f 5a c0	 cvtps2pd xmm0, xmm0
  00030	0f 5a c9	 cvtps2pd xmm1, xmm1
  00033	f2 0f 58 c1	 addsd	 xmm0, xmm1
  00037	f3 0f 10 49 08	 movss	 xmm1, DWORD PTR [ecx+8]
  0003c	66 0f 5a c0	 cvtpd2ps xmm0, xmm0
  00040	f3 0f 11 40 04	 movss	 DWORD PTR [eax+4], xmm0
  00045	f3 0f 10 42 08	 movss	 xmm0, DWORD PTR [edx+8]
  0004a	0f 5a c0	 cvtps2pd xmm0, xmm0
  0004d	0f 5a c9	 cvtps2pd xmm1, xmm1
  00050	f2 0f 58 c1	 addsd	 xmm0, xmm1
  00054	66 0f 5a c0	 cvtpd2ps xmm0, xmm0
  00058	f3 0f 11 40 08	 movss	 DWORD PTR [eax+8], xmm0

; 382  : }

  0005d	5d		 pop	 ebp
  0005e	c2 08 00	 ret	 8
??HD3DXVECTOR3@@QBE?AU0@ABU0@@Z ENDP			; D3DXVECTOR3::operator+
_TEXT	ENDS
PUBLIC	??DD3DXVECTOR3@@QBE?AU0@M@Z			; D3DXVECTOR3::operator*
; Function compile flags: /Ogsp
;	COMDAT ??DD3DXVECTOR3@@QBE?AU0@M@Z
_TEXT	SEGMENT
___$ReturnUdt$ = 8					; size = 4
_f$ = 12						; size = 4
??DD3DXVECTOR3@@QBE?AU0@M@Z PROC			; D3DXVECTOR3::operator*, COMDAT
; _this$ = ecx

; 392  : {

  00000	55		 push	 ebp
  00001	8b ec		 mov	 ebp, esp

; 393  :     return D3DXVECTOR3(x * f, y * f, z * f);

  00003	f3 0f 10 4d 0c	 movss	 xmm1, DWORD PTR _f$[ebp]
  00008	f3 0f 10 01	 movss	 xmm0, DWORD PTR [ecx]
  0000c	8b 45 08	 mov	 eax, DWORD PTR ___$ReturnUdt$[ebp]
  0000f	0f 5a c0	 cvtps2pd xmm0, xmm0
  00012	0f 5a c9	 cvtps2pd xmm1, xmm1
  00015	f2 0f 59 c1	 mulsd	 xmm0, xmm1
  00019	f3 0f 10 4d 0c	 movss	 xmm1, DWORD PTR _f$[ebp]
  0001e	66 0f 5a c0	 cvtpd2ps xmm0, xmm0
  00022	f3 0f 11 00	 movss	 DWORD PTR [eax], xmm0
  00026	f3 0f 10 41 04	 movss	 xmm0, DWORD PTR [ecx+4]
  0002b	0f 5a c0	 cvtps2pd xmm0, xmm0
  0002e	0f 5a c9	 cvtps2pd xmm1, xmm1
  00031	f2 0f 59 c1	 mulsd	 xmm0, xmm1
  00035	f3 0f 10 4d 0c	 movss	 xmm1, DWORD PTR _f$[ebp]
  0003a	66 0f 5a c0	 cvtpd2ps xmm0, xmm0
  0003e	f3 0f 11 40 04	 movss	 DWORD PTR [eax+4], xmm0
  00043	f3 0f 10 41 08	 movss	 xmm0, DWORD PTR [ecx+8]
  00048	0f 5a c0	 cvtps2pd xmm0, xmm0
  0004b	0f 5a c9	 cvtps2pd xmm1, xmm1
  0004e	f2 0f 59 c1	 mulsd	 xmm0, xmm1
  00052	66 0f 5a c0	 cvtpd2ps xmm0, xmm0
  00056	f3 0f 11 40 08	 movss	 DWORD PTR [eax+8], xmm0

; 394  : }

  0005b	5d		 pop	 ebp
  0005c	c2 08 00	 ret	 8
??DD3DXVECTOR3@@QBE?AU0@M@Z ENDP			; D3DXVECTOR3::operator*
_TEXT	ENDS
PUBLIC	?_DECSTR@@YAXPADH@Z				; _DECSTR
; Function compile flags: /Ogsp
; File d:\lost saga for developer\youtube\tutorial\source\src\lsclient\stringprotect.h
;	COMDAT ?_DECSTR@@YAXPADH@Z
_TEXT	SEGMENT
_s$ = 8							; size = 4
_l$ = 12						; size = 4
?_DECSTR@@YAXPADH@Z PROC				; _DECSTR, COMDAT

; 40   : __forceinline void _DECSTR(char* s, int l){int i=0,l4=(l-1)/4,*p=(int*)s;s[l-1]=0;for(;i<l4;++i)*(p++)^=0xEAEBECED;for(i=l4*4;i<l-1;++i)s[i]^=0xED-i%4;}

  00000	55		 push	 ebp
  00001	8b ec		 mov	 ebp, esp
  00003	8b 4d 0c	 mov	 ecx, DWORD PTR _l$[ebp]
  00006	56		 push	 esi
  00007	8b 75 08	 mov	 esi, DWORD PTR _s$[ebp]
  0000a	57		 push	 edi
  0000b	8d 79 ff	 lea	 edi, DWORD PTR [ecx-1]
  0000e	8b c7		 mov	 eax, edi
  00010	99		 cdq
  00011	83 e2 03	 and	 edx, 3
  00014	03 c2		 add	 eax, edx
  00016	c1 f8 02	 sar	 eax, 2
  00019	8b d6		 mov	 edx, esi
  0001b	c6 44 0e ff 00	 mov	 BYTE PTR [esi+ecx-1], 0
  00020	85 c0		 test	 eax, eax
  00022	7e 0e		 jle	 SHORT $LN4@DECSTR
  00024	8b c8		 mov	 ecx, eax
$LL6@DECSTR:
  00026	81 32 ed ec eb
	ea		 xor	 DWORD PTR [edx], -353637139 ; eaebecedH
  0002c	83 c2 04	 add	 edx, 4
  0002f	49		 dec	 ecx
  00030	75 f4		 jne	 SHORT $LL6@DECSTR
$LN4@DECSTR:
  00032	c1 e0 02	 shl	 eax, 2
  00035	eb 17		 jmp	 SHORT $LN14@DECSTR
$LL3@DECSTR:
  00037	8b c8		 mov	 ecx, eax
  00039	81 e1 03 00 00
	80		 and	 ecx, -2147483645	; 80000003H
  0003f	79 05		 jns	 SHORT $LN13@DECSTR
  00041	49		 dec	 ecx
  00042	83 c9 fc	 or	 ecx, -4			; fffffffcH
  00045	41		 inc	 ecx
$LN13@DECSTR:
  00046	b2 ed		 mov	 dl, -19			; ffffffedH
  00048	2a d1		 sub	 dl, cl
  0004a	30 14 30	 xor	 BYTE PTR [eax+esi], dl
  0004d	40		 inc	 eax
$LN14@DECSTR:
  0004e	3b c7		 cmp	 eax, edi
  00050	7c e5		 jl	 SHORT $LL3@DECSTR
  00052	5f		 pop	 edi
  00053	5e		 pop	 esi
  00054	5d		 pop	 ebp
  00055	c3		 ret	 0
?_DECSTR@@YAXPADH@Z ENDP				; _DECSTR
_TEXT	ENDS
PUBLIC	?GetGroup@ioGameEntity@@QBEPAVioEntityGroup@@XZ	; ioGameEntity::GetGroup
; Function compile flags: /Ogsp
; File d:\lost saga for developer\youtube\tutorial\source\src\lsclient\iogameentity.h
;	COMDAT ?GetGroup@ioGameEntity@@QBEPAVioEntityGroup@@XZ
_TEXT	SEGMENT
?GetGroup@ioGameEntity@@QBEPAVioEntityGroup@@XZ PROC	; ioGameEntity::GetGroup, COMDAT
; _this$ = ecx

; 166  : 	inline ioEntityGroup* GetGroup() const { return m_pGroup; }

  00000	8b 41 04	 mov	 eax, DWORD PTR [ecx+4]
  00003	c3		 ret	 0
?GetGroup@ioGameEntity@@QBEPAVioEntityGroup@@XZ ENDP	; ioGameEntity::GetGroup
_TEXT	ENDS
PUBLIC	?GetName@ioBuff@@QBEABVioHashString@@XZ		; ioBuff::GetName
; Function compile flags: /Ogsp
; File d:\lost saga for developer\youtube\tutorial\source\src\lsclient\iobuff.h
;	COMDAT ?GetName@ioBuff@@QBEABVioHashString@@XZ
_TEXT	SEGMENT
?GetName@ioBuff@@QBEABVioHashString@@XZ PROC		; ioBuff::GetName, COMDAT
; _this$ = ecx

; 440  : 	inline const ioHashString& GetName() const { return m_Name; }

  00000	8d 81 34 02 00
	00		 lea	 eax, DWORD PTR [ecx+564]
  00006	c3		 ret	 0
?GetName@ioBuff@@QBEABVioHashString@@XZ ENDP		; ioBuff::GetName
_TEXT	ENDS
PUBLIC	??_7?$CEncrypt@_N@@6B@				; CEncrypt<bool>::`vftable'
PUBLIC	??1?$CEncrypt@_N@@UAE@XZ			; CEncrypt<bool>::~CEncrypt<bool>
PUBLIC	??_R4?$CEncrypt@_N@@6B@				; CEncrypt<bool>::`RTTI Complete Object Locator'
PUBLIC	??_R0?AV?$CEncrypt@_N@@@8			; CEncrypt<bool> `RTTI Type Descriptor'
PUBLIC	??_R3?$CEncrypt@_N@@8				; CEncrypt<bool>::`RTTI Class Hierarchy Descriptor'
PUBLIC	??_R2?$CEncrypt@_N@@8				; CEncrypt<bool>::`RTTI Base Class Array'
PUBLIC	??_R1A@?0A@EA@?$CEncrypt@_N@@8			; CEncrypt<bool>::`RTTI Base Class Descriptor at (0,-1,0,64)'
EXTRN	??1ccddaabb@@UAE@XZ:PROC			; ccddaabb::~ccddaabb
EXTRN	??_7type_info@@6B@:QWORD			; type_info::`vftable'
EXTRN	??_E?$CEncrypt@_N@@UAEPAXI@Z:PROC		; CEncrypt<bool>::`vector deleting destructor'
;	COMDAT ??_R1A@?0A@EA@?$CEncrypt@_N@@8
; File d:\lost saga for developer\youtube\tutorial\source\src\lsclient\encryptvalue.h
rdata$r	SEGMENT
??_R1A@?0A@EA@?$CEncrypt@_N@@8 DD FLAT:??_R0?AV?$CEncrypt@_N@@@8 ; CEncrypt<bool>::`RTTI Base Class Descriptor at (0,-1,0,64)'
	DD	00H
	DD	00H
	DD	0ffffffffH
	DD	00H
	DD	040H
	DD	FLAT:??_R3?$CEncrypt@_N@@8
rdata$r	ENDS
;	COMDAT ??_R2?$CEncrypt@_N@@8
rdata$r	SEGMENT
??_R2?$CEncrypt@_N@@8 DD FLAT:??_R1A@?0A@EA@?$CEncrypt@_N@@8 ; CEncrypt<bool>::`RTTI Base Class Array'
rdata$r	ENDS
;	COMDAT ??_R3?$CEncrypt@_N@@8
rdata$r	SEGMENT
??_R3?$CEncrypt@_N@@8 DD 00H				; CEncrypt<bool>::`RTTI Class Hierarchy Descriptor'
	DD	00H
	DD	01H
	DD	FLAT:??_R2?$CEncrypt@_N@@8
rdata$r	ENDS
;	COMDAT ??_R0?AV?$CEncrypt@_N@@@8
_DATA	SEGMENT
??_R0?AV?$CEncrypt@_N@@@8 DD FLAT:??_7type_info@@6B@	; CEncrypt<bool> `RTTI Type Descriptor'
	DD	00H
	DB	'.?AV?$CEncrypt@_N@@', 00H
_DATA	ENDS
;	COMDAT ??_R4?$CEncrypt@_N@@6B@
rdata$r	SEGMENT
??_R4?$CEncrypt@_N@@6B@ DD 00H				; CEncrypt<bool>::`RTTI Complete Object Locator'
	DD	00H
	DD	00H
	DD	FLAT:??_R0?AV?$CEncrypt@_N@@@8
	DD	FLAT:??_R3?$CEncrypt@_N@@8
rdata$r	ENDS
;	COMDAT ??_7?$CEncrypt@_N@@6B@
CONST	SEGMENT
??_7?$CEncrypt@_N@@6B@ DD FLAT:??_R4?$CEncrypt@_N@@6B@	; CEncrypt<bool>::`vftable'
	DD	FLAT:??_E?$CEncrypt@_N@@UAEPAXI@Z
; Function compile flags: /Ogsp
CONST	ENDS
;	COMDAT ??1?$CEncrypt@_N@@UAE@XZ
_TEXT	SEGMENT
??1?$CEncrypt@_N@@UAE@XZ PROC				; CEncrypt<bool>::~CEncrypt<bool>, COMDAT
; _this$ = ecx

; 127  : 	{

  00000	c7 01 00 00 00
	00		 mov	 DWORD PTR [ecx], OFFSET ??_7?$CEncrypt@_N@@6B@

; 128  : 	}

  00006	83 c1 0c	 add	 ecx, 12			; 0000000cH
  00009	e9 00 00 00 00	 jmp	 ??1ccddaabb@@UAE@XZ	; ccddaabb::~ccddaabb
??1?$CEncrypt@_N@@UAE@XZ ENDP				; CEncrypt<bool>::~CEncrypt<bool>
_TEXT	ENDS
EXTRN	??3@YAXPAX@Z:PROC				; operator delete
; Function compile flags: /Ogsp
;	COMDAT ??_G?$CEncrypt@_N@@UAEPAXI@Z
_TEXT	SEGMENT
___flags$ = 8						; size = 4
??_G?$CEncrypt@_N@@UAEPAXI@Z PROC			; CEncrypt<bool>::`scalar deleting destructor', COMDAT
; _this$ = ecx
  00000	55		 push	 ebp
  00001	8b ec		 mov	 ebp, esp
  00003	56		 push	 esi
  00004	8b f1		 mov	 esi, ecx
  00006	8d 4e 0c	 lea	 ecx, DWORD PTR [esi+12]
  00009	c7 06 00 00 00
	00		 mov	 DWORD PTR [esi], OFFSET ??_7?$CEncrypt@_N@@6B@
  0000f	e8 00 00 00 00	 call	 ??1ccddaabb@@UAE@XZ	; ccddaabb::~ccddaabb
  00014	f6 45 08 01	 test	 BYTE PTR ___flags$[ebp], 1
  00018	74 07		 je	 SHORT $LN1@scalar
  0001a	56		 push	 esi
  0001b	e8 00 00 00 00	 call	 ??3@YAXPAX@Z		; operator delete
  00020	59		 pop	 ecx
$LN1@scalar:
  00021	8b c6		 mov	 eax, esi
  00023	5e		 pop	 esi
  00024	5d		 pop	 ebp
  00025	c2 04 00	 ret	 4
??_G?$CEncrypt@_N@@UAEPAXI@Z ENDP			; CEncrypt<bool>::`scalar deleting destructor'
_TEXT	ENDS
PUBLIC	?EncryptValueToPool@?$CEncrypt@M@@AAEXPBD@Z	; CEncrypt<float>::EncryptValueToPool
EXTRN	?EncryptByte@ccddaabb@@QAEXPBDPADH@Z:PROC	; ccddaabb::EncryptByte
; Function compile flags: /Ogsp
;	COMDAT ?EncryptValueToPool@?$CEncrypt@M@@AAEXPBD@Z
_TEXT	SEGMENT
_value$ = 8						; size = 4
?EncryptValueToPool@?$CEncrypt@M@@AAEXPBD@Z PROC	; CEncrypt<float>::EncryptValueToPool, COMDAT
; _this$ = ecx

; 67   : 	{

  00000	55		 push	 ebp
  00001	8b ec		 mov	 ebp, esp

; 68   : 		m_RC5.EncryptByte( value, m_MemPool, max(m_ValueSize, DEFAULT_ENCRYPT) );

  00003	0f b7 41 06	 movzx	 eax, WORD PTR [ecx+6]
  00007	83 f8 04	 cmp	 eax, 4
  0000a	77 03		 ja	 SHORT $LN4@EncryptVal
  0000c	6a 04		 push	 4
  0000e	58		 pop	 eax
$LN4@EncryptVal:
  0000f	50		 push	 eax
  00010	8d 41 1c	 lea	 eax, DWORD PTR [ecx+28]
  00013	50		 push	 eax
  00014	ff 75 08	 push	 DWORD PTR _value$[ebp]
  00017	83 c1 0c	 add	 ecx, 12			; 0000000cH
  0001a	e8 00 00 00 00	 call	 ?EncryptByte@ccddaabb@@QAEXPBDPADH@Z ; ccddaabb::EncryptByte

; 69   : 		
; 70   : 	}

  0001f	5d		 pop	 ebp
  00020	c2 04 00	 ret	 4
?EncryptValueToPool@?$CEncrypt@M@@AAEXPBD@Z ENDP	; CEncrypt<float>::EncryptValueToPool
_TEXT	ENDS
PUBLIC	?EncryptValueToPool@?$CEncrypt@_N@@AAEXPBD@Z	; CEncrypt<bool>::EncryptValueToPool
; Function compile flags: /Ogsp
;	COMDAT ?EncryptValueToPool@?$CEncrypt@_N@@AAEXPBD@Z
_TEXT	SEGMENT
_value$ = 8						; size = 4
?EncryptValueToPool@?$CEncrypt@_N@@AAEXPBD@Z PROC	; CEncrypt<bool>::EncryptValueToPool, COMDAT
; _this$ = ecx

; 67   : 	{

  00000	55		 push	 ebp
  00001	8b ec		 mov	 ebp, esp

; 68   : 		m_RC5.EncryptByte( value, m_MemPool, max(m_ValueSize, DEFAULT_ENCRYPT) );

  00003	0f b7 41 06	 movzx	 eax, WORD PTR [ecx+6]
  00007	83 f8 04	 cmp	 eax, 4
  0000a	77 03		 ja	 SHORT $LN4@EncryptVal@2
  0000c	6a 04		 push	 4
  0000e	58		 pop	 eax
$LN4@EncryptVal@2:
  0000f	50		 push	 eax
  00010	8d 41 1c	 lea	 eax, DWORD PTR [ecx+28]
  00013	50		 push	 eax
  00014	ff 75 08	 push	 DWORD PTR _value$[ebp]
  00017	83 c1 0c	 add	 ecx, 12			; 0000000cH
  0001a	e8 00 00 00 00	 call	 ?EncryptByte@ccddaabb@@QAEXPBDPADH@Z ; ccddaabb::EncryptByte

; 69   : 		
; 70   : 	}

  0001f	5d		 pop	 ebp
  00020	c2 04 00	 ret	 4
?EncryptValueToPool@?$CEncrypt@_N@@AAEXPBD@Z ENDP	; CEncrypt<bool>::EncryptValueToPool
_TEXT	ENDS
PUBLIC	?Init@?$CEncrypt@_N@@AAEXXZ			; CEncrypt<bool>::Init
EXTRN	?Setup@ccddaabb@@QAEXPBDHH@Z:PROC		; ccddaabb::Setup
EXTRN	__imp__rand:PROC
EXTRN	__imp__timeGetTime@0:PROC
EXTRN	__imp__GetCurrentProcessId@0:PROC
; Function compile flags: /Ogsp
;	COMDAT ?Init@?$CEncrypt@_N@@AAEXXZ
_TEXT	SEGMENT
_pid$ = -8						; size = 4
_tick$ = -4						; size = 4
?Init@?$CEncrypt@_N@@AAEXXZ PROC			; CEncrypt<bool>::Init, COMDAT
; _this$ = ecx

; 73   : 	{

  00000	55		 push	 ebp
  00001	8b ec		 mov	 ebp, esp
  00003	51		 push	 ecx
  00004	51		 push	 ecx
  00005	53		 push	 ebx
  00006	56		 push	 esi
  00007	57		 push	 edi
  00008	8b f1		 mov	 esi, ecx

; 74   : 		DWORD pid = GetCurrentProcessId();

  0000a	ff 15 00 00 00
	00		 call	 DWORD PTR __imp__GetCurrentProcessId@0
  00010	89 45 f8	 mov	 DWORD PTR _pid$[ebp], eax

; 75   : 		DWORD tick = timeGetTime();

  00013	ff 15 00 00 00
	00		 call	 DWORD PTR __imp__timeGetTime@0

; 76   : 		m_ValueSize    = sizeof(type);
; 77   : 		m_MemPoolPos   = (unsigned short)( rand()+pid+tick )%(MAX_MEM_POOL-m_ValueSize);

  00019	8b 3d 00 00 00
	00		 mov	 edi, DWORD PTR __imp__rand
  0001f	89 45 fc	 mov	 DWORD PTR _tick$[ebp], eax
  00022	33 c0		 xor	 eax, eax
  00024	40		 inc	 eax
  00025	66 89 46 06	 mov	 WORD PTR [esi+6], ax
  00029	ff d7		 call	 edi
  0002b	03 45 f8	 add	 eax, DWORD PTR _pid$[ebp]
  0002e	0f b7 4e 06	 movzx	 ecx, WORD PTR [esi+6]
  00032	03 45 fc	 add	 eax, DWORD PTR _tick$[ebp]
  00035	6a 0c		 push	 12			; 0000000cH
  00037	0f b7 c0	 movzx	 eax, ax
  0003a	5b		 pop	 ebx
  0003b	99		 cdq
  0003c	2b d9		 sub	 ebx, ecx
  0003e	f7 fb		 idiv	 ebx
  00040	66 89 56 04	 mov	 WORD PTR [esi+4], dx

; 78   : 		m_EncryptSeed  = (char)( rand()+pid+tick )%256;

  00044	ff d7		 call	 edi
  00046	02 45 f8	 add	 al, BYTE PTR _pid$[ebp]
  00049	02 45 fc	 add	 al, BYTE PTR _tick$[ebp]
  0004c	0f be c0	 movsx	 eax, al
  0004f	25 ff 00 00 80	 and	 eax, -2147483393	; 800000ffH
  00054	79 07		 jns	 SHORT $LN8@Init
  00056	48		 dec	 eax
  00057	0d 00 ff ff ff	 or	 eax, -256		; ffffff00H
  0005c	40		 inc	 eax
$LN8@Init:
  0005d	88 46 08	 mov	 BYTE PTR [esi+8], al

; 79   : 
; 80   : 		for (int i = 0; i < MAX_MEM_POOL ; i++)

  00060	33 db		 xor	 ebx, ebx
$LL3@Init:

; 81   : 			m_MemPool[i] = (char)( rand()+pid+tick )%256; // 더미

  00062	ff d7		 call	 edi
  00064	02 45 f8	 add	 al, BYTE PTR _pid$[ebp]
  00067	02 45 fc	 add	 al, BYTE PTR _tick$[ebp]
  0006a	0f be c0	 movsx	 eax, al
  0006d	25 ff 00 00 80	 and	 eax, -2147483393	; 800000ffH
  00072	79 07		 jns	 SHORT $LN9@Init
  00074	48		 dec	 eax
  00075	0d 00 ff ff ff	 or	 eax, -256		; ffffff00H
  0007a	40		 inc	 eax
$LN9@Init:
  0007b	88 44 1e 1c	 mov	 BYTE PTR [esi+ebx+28], al
  0007f	43		 inc	 ebx
  00080	83 fb 0c	 cmp	 ebx, 12			; 0000000cH
  00083	7c dd		 jl	 SHORT $LL3@Init

; 82   : 
; 83   : 		//UJ 130913, 최적화: szKey 사용안하도록 간략화
; 84   : 		//char szKey[ccddaabb::KEY_SIZE];//="";
; 85   : 		//for (int i = 0; i < ccddaabb::KEY_SIZE  ; i++)
; 86   : 		//	szKey[i] = (char)( rand()+pid+tick )%256; // 더미
; 87   : 		m_RC5.Setup( NULL, pid, tick );

  00085	ff 75 fc	 push	 DWORD PTR _tick$[ebp]
  00088	8d 4e 0c	 lea	 ecx, DWORD PTR [esi+12]
  0008b	ff 75 f8	 push	 DWORD PTR _pid$[ebp]
  0008e	6a 00		 push	 0
  00090	e8 00 00 00 00	 call	 ?Setup@ccddaabb@@QAEXPBDHH@Z ; ccddaabb::Setup
  00095	5f		 pop	 edi
  00096	5e		 pop	 esi
  00097	5b		 pop	 ebx

; 88   : 
; 89   : #ifdef _NOTUSE
; 90   : 		m_value        = 0;
; 91   : 		EncryptValueToPool((char*)&m_value);
; 92   : 		Debug();
; 93   : #endif
; 94   : 	}

  00098	c9		 leave
  00099	c3		 ret	 0
?Init@?$CEncrypt@_N@@AAEXXZ ENDP			; CEncrypt<bool>::Init
_TEXT	ENDS
PUBLIC	?DecryptValueToPool@?$CEncrypt@_N@@QAEXPA_N@Z	; CEncrypt<bool>::DecryptValueToPool
EXTRN	?DecryptByte@ccddaabb@@QBEXPBDPADH@Z:PROC	; ccddaabb::DecryptByte
; Function compile flags: /Ogsp
;	COMDAT ?DecryptValueToPool@?$CEncrypt@_N@@QAEXPA_N@Z
_TEXT	SEGMENT
_value$ = 8						; size = 4
?DecryptValueToPool@?$CEncrypt@_N@@QAEXPA_N@Z PROC	; CEncrypt<bool>::DecryptValueToPool, COMDAT
; _this$ = ecx

; 219  : 	{

  00000	55		 push	 ebp
  00001	8b ec		 mov	 ebp, esp
  00003	56		 push	 esi

; 220  : 		m_RC5.DecryptByte( m_MemPool, m_TempMem, 4 );

  00004	8d 71 28	 lea	 esi, DWORD PTR [ecx+40]
  00007	6a 04		 push	 4
  00009	8d 41 1c	 lea	 eax, DWORD PTR [ecx+28]
  0000c	56		 push	 esi
  0000d	50		 push	 eax
  0000e	83 c1 0c	 add	 ecx, 12			; 0000000cH
  00011	e8 00 00 00 00	 call	 ?DecryptByte@ccddaabb@@QBEXPBDPADH@Z ; ccddaabb::DecryptByte

; 221  : 		*value = *((bool*)m_TempMem);

  00016	8a 06		 mov	 al, BYTE PTR [esi]
  00018	8b 4d 08	 mov	 ecx, DWORD PTR _value$[ebp]
  0001b	88 01		 mov	 BYTE PTR [ecx], al
  0001d	5e		 pop	 esi

; 222  : 	}

  0001e	5d		 pop	 ebp
  0001f	c2 04 00	 ret	 4
?DecryptValueToPool@?$CEncrypt@_N@@QAEXPA_N@Z ENDP	; CEncrypt<bool>::DecryptValueToPool
_TEXT	ENDS
PUBLIC	??_7ioFlyBuff@@6B@				; ioFlyBuff::`vftable'
PUBLIC	??1ioFlyBuff@@UAE@XZ				; ioFlyBuff::~ioFlyBuff
PUBLIC	??_R4ioFlyBuff@@6B@				; ioFlyBuff::`RTTI Complete Object Locator'
PUBLIC	??_R0?AVioFlyBuff@@@8				; ioFlyBuff `RTTI Type Descriptor'
PUBLIC	??_R3ioFlyBuff@@8				; ioFlyBuff::`RTTI Class Hierarchy Descriptor'
PUBLIC	??_R2ioFlyBuff@@8				; ioFlyBuff::`RTTI Base Class Array'
PUBLIC	??_R1A@?0A@EA@ioFlyBuff@@8			; ioFlyBuff::`RTTI Base Class Descriptor at (0,-1,0,64)'
PUBLIC	??_R1A@?0A@EA@ioBuff@@8				; ioBuff::`RTTI Base Class Descriptor at (0,-1,0,64)'
PUBLIC	??_R0?AVioBuff@@@8				; ioBuff `RTTI Type Descriptor'
PUBLIC	??_R3ioBuff@@8					; ioBuff::`RTTI Class Hierarchy Descriptor'
PUBLIC	??_R2ioBuff@@8					; ioBuff::`RTTI Base Class Array'
PUBLIC	?LoadProperty@ioFlyBuff@@UAEXAAVioINILoader@@@Z	; ioFlyBuff::LoadProperty
PUBLIC	?Clone@ioFlyBuff@@UAEPAVioBuff@@XZ		; ioFlyBuff::Clone
PUBLIC	?StartBuff@ioFlyBuff@@UAEXPAVioBaseChar@@@Z	; ioFlyBuff::StartBuff
PUBLIC	?ApplyStartBuff@ioFlyBuff@@UAE_NPAVioBaseChar@@KK@Z ; ioFlyBuff::ApplyStartBuff
PUBLIC	?ProcessBuff@ioFlyBuff@@UAEXM@Z			; ioFlyBuff::ProcessBuff
PUBLIC	?ApplyExtraBuffInfo@ioFlyBuff@@UAEXAAVSP2Packet@@@Z ; ioFlyBuff::ApplyExtraBuffInfo
PUBLIC	?IsWaitSelfRemove@ioBuff@@UAE_NXZ		; ioBuff::IsWaitSelfRemove
EXTRN	??1ioBuff@@UAE@XZ:PROC				; ioBuff::~ioBuff
EXTRN	__imp_??1ioHashString@@QAE@XZ:PROC
EXTRN	___CxxFrameHandler3:PROC
EXTRN	@__security_check_cookie@4:PROC
EXTRN	__EH_epilog3:PROC
EXTRN	__EH_prolog3:PROC
EXTRN	?StartBuffWithAniTime@ioBuff@@UAEXPAVioBaseChar@@K@Z:PROC ; ioBuff::StartBuffWithAniTime
EXTRN	?CancelBuff@ioBuff@@UAEXXZ:PROC			; ioBuff::CancelBuff
EXTRN	?GetBuffInfo@ioBuff@@UAEXAAVSP2Packet@@@Z:PROC	; ioBuff::GetBuffInfo
EXTRN	?ApplyBuffInfo@ioBuff@@UAEXAAVSP2Packet@@@Z:PROC ; ioBuff::ApplyBuffInfo
EXTRN	?AccumulateBuff@ioBuff@@UAEXXZ:PROC		; ioBuff::AccumulateBuff
EXTRN	?IsLiveButStopped@ioBuff@@UBE_NXZ:PROC		; ioBuff::IsLiveButStopped
EXTRN	?IsCanJumpAttack@ioBuff@@UBE_NXZ:PROC		; ioBuff::IsCanJumpAttack
EXTRN	?SetAction@ioBuff@@MAEXXZ:PROC			; ioBuff::SetAction
EXTRN	?ProcessDelay@ioBuff@@MAEXM@Z:PROC		; ioBuff::ProcessDelay
EXTRN	?SetExtraDurationByGrowth@ioBuff@@UAEXM@Z:PROC	; ioBuff::SetExtraDurationByGrowth
EXTRN	?SetWeaponIndex@ioBuff@@UAEXK@Z:PROC		; ioBuff::SetWeaponIndex
EXTRN	?OnReduceGauge@ioBuff@@UBE_NXZ:PROC		; ioBuff::OnReduceGauge
EXTRN	?IsCharCollisionSkip@ioBuff@@UBE_NXZ:PROC	; ioBuff::IsCharCollisionSkip
EXTRN	?IsCollisionAvailableWeapon@ioBuff@@UBE_NXZ:PROC ; ioBuff::IsCollisionAvailableWeapon
EXTRN	?IsProtected@ioBuff@@UBE_NXZ:PROC		; ioBuff::IsProtected
EXTRN	?UseActiveCount@ioBuff@@UBE_NXZ:PROC		; ioBuff::UseActiveCount
EXTRN	?CheckActiveCount@ioBuff@@UAEXXZ:PROC		; ioBuff::CheckActiveCount
EXTRN	?CheckRemoveEquipSkillBuff@ioBuff@@UAEX_N@Z:PROC ; ioBuff::CheckRemoveEquipSkillBuff
EXTRN	?SetBuffGrapplingState@ioBuff@@UAE_NPAVioBaseChar@@ABVioHashString@@@Z:PROC ; ioBuff::SetBuffGrapplingState
EXTRN	?GetGrapplingTargetPos@ioBuff@@UAE?AUD3DXVECTOR3@@PAVioBaseChar@@@Z:PROC ; ioBuff::GetGrapplingTargetPos
EXTRN	??_EioFlyBuff@@UAEPAXI@Z:PROC			; ioFlyBuff::`vector deleting destructor'
;	COMDAT ??_R2ioBuff@@8
rdata$r	SEGMENT
??_R2ioBuff@@8 DD FLAT:??_R1A@?0A@EA@ioBuff@@8		; ioBuff::`RTTI Base Class Array'
rdata$r	ENDS
;	COMDAT ??_R3ioBuff@@8
rdata$r	SEGMENT
??_R3ioBuff@@8 DD 00H					; ioBuff::`RTTI Class Hierarchy Descriptor'
	DD	00H
	DD	01H
	DD	FLAT:??_R2ioBuff@@8
rdata$r	ENDS
;	COMDAT ??_R0?AVioBuff@@@8
_DATA	SEGMENT
??_R0?AVioBuff@@@8 DD FLAT:??_7type_info@@6B@		; ioBuff `RTTI Type Descriptor'
	DD	00H
	DB	'.?AVioBuff@@', 00H
_DATA	ENDS
;	COMDAT ??_R1A@?0A@EA@ioBuff@@8
rdata$r	SEGMENT
??_R1A@?0A@EA@ioBuff@@8 DD FLAT:??_R0?AVioBuff@@@8	; ioBuff::`RTTI Base Class Descriptor at (0,-1,0,64)'
	DD	00H
	DD	00H
	DD	0ffffffffH
	DD	00H
	DD	040H
	DD	FLAT:??_R3ioBuff@@8
rdata$r	ENDS
;	COMDAT ??_R1A@?0A@EA@ioFlyBuff@@8
rdata$r	SEGMENT
??_R1A@?0A@EA@ioFlyBuff@@8 DD FLAT:??_R0?AVioFlyBuff@@@8 ; ioFlyBuff::`RTTI Base Class Descriptor at (0,-1,0,64)'
	DD	01H
	DD	00H
	DD	0ffffffffH
	DD	00H
	DD	040H
	DD	FLAT:??_R3ioFlyBuff@@8
rdata$r	ENDS
;	COMDAT ??_R2ioFlyBuff@@8
rdata$r	SEGMENT
??_R2ioFlyBuff@@8 DD FLAT:??_R1A@?0A@EA@ioFlyBuff@@8	; ioFlyBuff::`RTTI Base Class Array'
	DD	FLAT:??_R1A@?0A@EA@ioBuff@@8
rdata$r	ENDS
;	COMDAT ??_R3ioFlyBuff@@8
rdata$r	SEGMENT
??_R3ioFlyBuff@@8 DD 00H				; ioFlyBuff::`RTTI Class Hierarchy Descriptor'
	DD	00H
	DD	02H
	DD	FLAT:??_R2ioFlyBuff@@8
rdata$r	ENDS
;	COMDAT ??_R0?AVioFlyBuff@@@8
_DATA	SEGMENT
??_R0?AVioFlyBuff@@@8 DD FLAT:??_7type_info@@6B@	; ioFlyBuff `RTTI Type Descriptor'
	DD	00H
	DB	'.?AVioFlyBuff@@', 00H
_DATA	ENDS
;	COMDAT ??_R4ioFlyBuff@@6B@
rdata$r	SEGMENT
??_R4ioFlyBuff@@6B@ DD 00H				; ioFlyBuff::`RTTI Complete Object Locator'
	DD	00H
	DD	00H
	DD	FLAT:??_R0?AVioFlyBuff@@@8
	DD	FLAT:??_R3ioFlyBuff@@8
rdata$r	ENDS
;	COMDAT ??_7ioFlyBuff@@6B@
CONST	SEGMENT
??_7ioFlyBuff@@6B@ DD FLAT:??_R4ioFlyBuff@@6B@		; ioFlyBuff::`vftable'
	DD	FLAT:?LoadProperty@ioFlyBuff@@UAEXAAVioINILoader@@@Z
	DD	FLAT:?Clone@ioFlyBuff@@UAEPAVioBuff@@XZ
	DD	FLAT:?StartBuff@ioFlyBuff@@UAEXPAVioBaseChar@@@Z
	DD	FLAT:?StartBuffWithAniTime@ioBuff@@UAEXPAVioBaseChar@@K@Z
	DD	FLAT:?ApplyStartBuff@ioFlyBuff@@UAE_NPAVioBaseChar@@KK@Z
	DD	FLAT:?ProcessBuff@ioFlyBuff@@UAEXM@Z
	DD	FLAT:?EndBuff@ioFlyBuff@@UAEXXZ
	DD	FLAT:?CancelBuff@ioBuff@@UAEXXZ
	DD	FLAT:?GetBuffInfo@ioBuff@@UAEXAAVSP2Packet@@@Z
	DD	FLAT:?ApplyBuffInfo@ioBuff@@UAEXAAVSP2Packet@@@Z
	DD	FLAT:?AccumulateBuff@ioBuff@@UAEXXZ
	DD	FLAT:?IsLiveButStopped@ioBuff@@UBE_NXZ
	DD	FLAT:?IsCanJumpAttack@ioBuff@@UBE_NXZ
	DD	FLAT:?SetAction@ioBuff@@MAEXXZ
	DD	FLAT:?ProcessDelay@ioBuff@@MAEXM@Z
	DD	FLAT:?SetExtraDurationByGrowth@ioBuff@@UAEXM@Z
	DD	FLAT:?SetWeaponIndex@ioBuff@@UAEXK@Z
	DD	FLAT:?OnReduceGauge@ioBuff@@UBE_NXZ
	DD	FLAT:?IsCharCollisionSkip@ioBuff@@UBE_NXZ
	DD	FLAT:?IsCollisionAvailableWeapon@ioBuff@@UBE_NXZ
	DD	FLAT:?IsProtected@ioBuff@@UBE_NXZ
	DD	FLAT:?UseActiveCount@ioBuff@@UBE_NXZ
	DD	FLAT:?CheckActiveCount@ioBuff@@UAEXXZ
	DD	FLAT:?CheckRemoveEquipSkillBuff@ioBuff@@UAEX_N@Z
	DD	FLAT:?ApplyExtraBuffInfo@ioFlyBuff@@UAEXAAVSP2Packet@@@Z
	DD	FLAT:?SetBuffGrapplingState@ioBuff@@UAE_NPAVioBaseChar@@ABVioHashString@@@Z
	DD	FLAT:?GetGrapplingTargetPos@ioBuff@@UAE?AUD3DXVECTOR3@@PAVioBaseChar@@@Z
	DD	FLAT:?IsWaitSelfRemove@ioBuff@@UAE_NXZ
	DD	FLAT:??_EioFlyBuff@@UAEPAXI@Z
CONST	ENDS
;	COMDAT xdata$x
xdata$x	SEGMENT
__ehfuncinfo$??1ioFlyBuff@@UAE@XZ DD 019930522H
	DD	0bH
	DD	FLAT:__unwindtable$??1ioFlyBuff@@UAE@XZ
	DD	2 DUP(00H)
	DD	2 DUP(00H)
	DD	00H
	DD	01H
__unwindtable$??1ioFlyBuff@@UAE@XZ DD 0ffffffffH
	DD	FLAT:__unwindfunclet$??1ioFlyBuff@@UAE@XZ$0
	DD	00H
	DD	FLAT:__unwindfunclet$??1ioFlyBuff@@UAE@XZ$1
	DD	01H
	DD	FLAT:__unwindfunclet$??1ioFlyBuff@@UAE@XZ$2
	DD	02H
	DD	FLAT:__unwindfunclet$??1ioFlyBuff@@UAE@XZ$3
	DD	03H
	DD	FLAT:__unwindfunclet$??1ioFlyBuff@@UAE@XZ$4
	DD	04H
	DD	FLAT:__unwindfunclet$??1ioFlyBuff@@UAE@XZ$5
	DD	05H
	DD	FLAT:__unwindfunclet$??1ioFlyBuff@@UAE@XZ$6
	DD	06H
	DD	FLAT:__unwindfunclet$??1ioFlyBuff@@UAE@XZ$7
	DD	07H
	DD	FLAT:__unwindfunclet$??1ioFlyBuff@@UAE@XZ$8
	DD	08H
	DD	FLAT:__unwindfunclet$??1ioFlyBuff@@UAE@XZ$9
	DD	09H
	DD	FLAT:__unwindfunclet$??1ioFlyBuff@@UAE@XZ$10
; Function compile flags: /Ogsp
; File d:\lost saga for developer\youtube\tutorial\source\src\lsclient\ioflybuff.cpp
xdata$x	ENDS
;	COMDAT ??1ioFlyBuff@@UAE@XZ
_TEXT	SEGMENT
_this$ = -16						; size = 4
__$EHRec$ = -12						; size = 12
??1ioFlyBuff@@UAE@XZ PROC				; ioFlyBuff::~ioFlyBuff, COMDAT
; _this$ = ecx

; 64   : {

  00000	6a 04		 push	 4
  00002	b8 00 00 00 00	 mov	 eax, __ehhandler$??1ioFlyBuff@@UAE@XZ
  00007	e8 00 00 00 00	 call	 __EH_prolog3
  0000c	8b f1		 mov	 esi, ecx
  0000e	89 75 f0	 mov	 DWORD PTR _this$[ebp], esi
  00011	c7 06 00 00 00
	00		 mov	 DWORD PTR [esi], OFFSET ??_7ioFlyBuff@@6B@

; 65   : }

  00017	8b 3d 00 00 00
	00		 mov	 edi, DWORD PTR __imp_??1ioHashString@@QAE@XZ
  0001d	8d 8e 90 0a 00
	00		 lea	 ecx, DWORD PTR [esi+2704]
  00023	c7 45 fc 0a 00
	00 00		 mov	 DWORD PTR __$EHRec$[ebp+8], 10 ; 0000000aH
  0002a	ff d7		 call	 edi
  0002c	8d 8e 7c 0a 00
	00		 lea	 ecx, DWORD PTR [esi+2684]
  00032	c6 45 fc 09	 mov	 BYTE PTR __$EHRec$[ebp+8], 9
  00036	ff d7		 call	 edi
  00038	bb 00 00 00 00	 mov	 ebx, OFFSET ??_7?$CEncrypt@_N@@6B@
  0003d	8d 8e 54 0a 00
	00		 lea	 ecx, DWORD PTR [esi+2644]
  00043	c6 45 fc 08	 mov	 BYTE PTR __$EHRec$[ebp+8], 8
  00047	89 9e 48 0a 00
	00		 mov	 DWORD PTR [esi+2632], ebx
  0004d	e8 00 00 00 00	 call	 ??1ccddaabb@@UAE@XZ	; ccddaabb::~ccddaabb
  00052	8d 8e 24 0a 00
	00		 lea	 ecx, DWORD PTR [esi+2596]
  00058	c6 45 fc 07	 mov	 BYTE PTR __$EHRec$[ebp+8], 7
  0005c	89 9e 18 0a 00
	00		 mov	 DWORD PTR [esi+2584], ebx
  00062	e8 00 00 00 00	 call	 ??1ccddaabb@@UAE@XZ	; ccddaabb::~ccddaabb
  00067	8d 8e f0 09 00
	00		 lea	 ecx, DWORD PTR [esi+2544]
  0006d	c6 45 fc 06	 mov	 BYTE PTR __$EHRec$[ebp+8], 6
  00071	ff d7		 call	 edi
  00073	8d 8e e0 09 00
	00		 lea	 ecx, DWORD PTR [esi+2528]
  00079	c6 45 fc 05	 mov	 BYTE PTR __$EHRec$[ebp+8], 5
  0007d	ff d7		 call	 edi
  0007f	8d 8e d0 09 00
	00		 lea	 ecx, DWORD PTR [esi+2512]
  00085	c6 45 fc 04	 mov	 BYTE PTR __$EHRec$[ebp+8], 4
  00089	ff d7		 call	 edi
  0008b	8d 8e c0 09 00
	00		 lea	 ecx, DWORD PTR [esi+2496]
  00091	c6 45 fc 03	 mov	 BYTE PTR __$EHRec$[ebp+8], 3
  00095	ff d7		 call	 edi
  00097	8d 8e b0 09 00
	00		 lea	 ecx, DWORD PTR [esi+2480]
  0009d	c6 45 fc 02	 mov	 BYTE PTR __$EHRec$[ebp+8], 2
  000a1	ff d7		 call	 edi
  000a3	8d 8e a0 09 00
	00		 lea	 ecx, DWORD PTR [esi+2464]
  000a9	c6 45 fc 01	 mov	 BYTE PTR __$EHRec$[ebp+8], 1
  000ad	ff d7		 call	 edi
  000af	8d 8e 90 09 00
	00		 lea	 ecx, DWORD PTR [esi+2448]
  000b5	c6 45 fc 00	 mov	 BYTE PTR __$EHRec$[ebp+8], 0
  000b9	ff d7		 call	 edi
  000bb	83 4d fc ff	 or	 DWORD PTR __$EHRec$[ebp+8], -1
  000bf	8b ce		 mov	 ecx, esi
  000c1	e8 00 00 00 00	 call	 ??1ioBuff@@UAE@XZ	; ioBuff::~ioBuff
  000c6	e8 00 00 00 00	 call	 __EH_epilog3
  000cb	c3		 ret	 0
_TEXT	ENDS
;	COMDAT text$x
text$x	SEGMENT
__unwindfunclet$??1ioFlyBuff@@UAE@XZ$0:
  00000	8b 4d f0	 mov	 ecx, DWORD PTR _this$[ebp]
  00003	e9 00 00 00 00	 jmp	 ??1ioBuff@@UAE@XZ	; ioBuff::~ioBuff
__unwindfunclet$??1ioFlyBuff@@UAE@XZ$1:
  00008	8b 4d f0	 mov	 ecx, DWORD PTR _this$[ebp]
  0000b	81 c1 90 09 00
	00		 add	 ecx, 2448		; 00000990H
  00011	ff 25 00 00 00
	00		 jmp	 DWORD PTR __imp_??1ioHashString@@QAE@XZ
__unwindfunclet$??1ioFlyBuff@@UAE@XZ$2:
  00017	8b 4d f0	 mov	 ecx, DWORD PTR _this$[ebp]
  0001a	81 c1 a0 09 00
	00		 add	 ecx, 2464		; 000009a0H
  00020	ff 25 00 00 00
	00		 jmp	 DWORD PTR __imp_??1ioHashString@@QAE@XZ
__unwindfunclet$??1ioFlyBuff@@UAE@XZ$3:
  00026	8b 4d f0	 mov	 ecx, DWORD PTR _this$[ebp]
  00029	81 c1 b0 09 00
	00		 add	 ecx, 2480		; 000009b0H
  0002f	ff 25 00 00 00
	00		 jmp	 DWORD PTR __imp_??1ioHashString@@QAE@XZ
__unwindfunclet$??1ioFlyBuff@@UAE@XZ$4:
  00035	8b 4d f0	 mov	 ecx, DWORD PTR _this$[ebp]
  00038	81 c1 c0 09 00
	00		 add	 ecx, 2496		; 000009c0H
  0003e	ff 25 00 00 00
	00		 jmp	 DWORD PTR __imp_??1ioHashString@@QAE@XZ
__unwindfunclet$??1ioFlyBuff@@UAE@XZ$5:
  00044	8b 4d f0	 mov	 ecx, DWORD PTR _this$[ebp]
  00047	81 c1 d0 09 00
	00		 add	 ecx, 2512		; 000009d0H
  0004d	ff 25 00 00 00
	00		 jmp	 DWORD PTR __imp_??1ioHashString@@QAE@XZ
__unwindfunclet$??1ioFlyBuff@@UAE@XZ$6:
  00053	8b 4d f0	 mov	 ecx, DWORD PTR _this$[ebp]
  00056	81 c1 e0 09 00
	00		 add	 ecx, 2528		; 000009e0H
  0005c	ff 25 00 00 00
	00		 jmp	 DWORD PTR __imp_??1ioHashString@@QAE@XZ
__unwindfunclet$??1ioFlyBuff@@UAE@XZ$7:
  00062	8b 4d f0	 mov	 ecx, DWORD PTR _this$[ebp]
  00065	81 c1 f0 09 00
	00		 add	 ecx, 2544		; 000009f0H
  0006b	ff 25 00 00 00
	00		 jmp	 DWORD PTR __imp_??1ioHashString@@QAE@XZ
__unwindfunclet$??1ioFlyBuff@@UAE@XZ$8:
  00071	8b 4d f0	 mov	 ecx, DWORD PTR _this$[ebp]
  00074	81 c1 18 0a 00
	00		 add	 ecx, 2584		; 00000a18H
  0007a	e9 00 00 00 00	 jmp	 ??1?$CEncrypt@_N@@UAE@XZ ; CEncrypt<bool>::~CEncrypt<bool>
__unwindfunclet$??1ioFlyBuff@@UAE@XZ$9:
  0007f	8b 4d f0	 mov	 ecx, DWORD PTR _this$[ebp]
  00082	81 c1 48 0a 00
	00		 add	 ecx, 2632		; 00000a48H
  00088	e9 00 00 00 00	 jmp	 ??1?$CEncrypt@_N@@UAE@XZ ; CEncrypt<bool>::~CEncrypt<bool>
__unwindfunclet$??1ioFlyBuff@@UAE@XZ$10:
  0008d	8b 4d f0	 mov	 ecx, DWORD PTR _this$[ebp]
  00090	81 c1 7c 0a 00
	00		 add	 ecx, 2684		; 00000a7cH
  00096	ff 25 00 00 00
	00		 jmp	 DWORD PTR __imp_??1ioHashString@@QAE@XZ
__ehhandler$??1ioFlyBuff@@UAE@XZ:
  0009c	8b 54 24 08	 mov	 edx, DWORD PTR [esp+8]
  000a0	8d 42 0c	 lea	 eax, DWORD PTR [edx+12]
  000a3	8b 4a ec	 mov	 ecx, DWORD PTR [edx-20]
  000a6	33 c8		 xor	 ecx, eax
  000a8	e8 00 00 00 00	 call	 @__security_check_cookie@4
  000ad	b8 00 00 00 00	 mov	 eax, OFFSET __ehfuncinfo$??1ioFlyBuff@@UAE@XZ
  000b2	e9 00 00 00 00	 jmp	 ___CxxFrameHandler3
text$x	ENDS
??1ioFlyBuff@@UAE@XZ ENDP				; ioFlyBuff::~ioFlyBuff
; Function compile flags: /Ogsp
; File d:\lost saga for developer\youtube\tutorial\source\src\lsclient\iobuff.h
;	COMDAT ?IsWaitSelfRemove@ioBuff@@UAE_NXZ
_TEXT	SEGMENT
?IsWaitSelfRemove@ioBuff@@UAE_NXZ PROC			; ioBuff::IsWaitSelfRemove, COMDAT
; _this$ = ecx

; 519  : 	virtual bool IsWaitSelfRemove() { return m_bWaitSelfRemove; }

  00000	8a 81 65 09 00
	00		 mov	 al, BYTE PTR [ecx+2405]
  00006	c3		 ret	 0
?IsWaitSelfRemove@ioBuff@@UAE_NXZ ENDP			; ioBuff::IsWaitSelfRemove
_TEXT	ENDS
PUBLIC	??_C@_00CNPNBAHC@?$AA@				; `string'
PUBLIC	__real@41f0000000000000
PUBLIC	__real@3f800000
PUBLIC	__real@3ff0000000000000
PUBLIC	__real@42c80000
PUBLIC	__real@bf800000
PUBLIC	?AreaWeaponFire@ioFlyBuff@@IAEXXZ		; ioFlyBuff::AreaWeaponFire
EXTRN	?CreateAreaWeapon@ioAreaWeaponManager@@QAEPAVioAreaWeapon@@ABVioHashString@@000ABUD3DXVECTOR3@@ABUD3DXQUATERNION@@H@Z:PROC ; ioAreaWeaponManager::CreateAreaWeapon
EXTRN	?GetSingleton@ioAreaWeaponManager@@SAAAV1@XZ:PROC ; ioAreaWeaponManager::GetSingleton
EXTRN	__imp_??0ioHashString@@QAE@PBD@Z:PROC
EXTRN	__imp_?GetAnimationFullTime@ioEntityGroup@@QAEMH@Z:PROC
EXTRN	__imp_?SetActionAni@ioEntityGroup@@QAE_NHMMMMMM_N0@Z:PROC
EXTRN	__imp_?ClearAllLoopAni@ioEntityGroup@@QAEXM_N@Z:PROC
EXTRN	__imp_?ClearAllActionAni@ioEntityGroup@@QAEXM_N@Z:PROC
EXTRN	__imp_?GetAnimationIdx@ioEntityGroup@@QAEHABVioHashString@@@Z:PROC
EXTRN	__imp_??D@YA?AUD3DXVECTOR3@@ABUD3DXQUATERNION@@ABU0@@Z:PROC
EXTRN	__imp_?GetLoopSec@ioFrameTimer@@QBEKXZ:PROC
EXTRN	__imp_?GetSingleton@ioFrameTimer@@SAAAV1@XZ:PROC
EXTRN	__EH_epilog3_GS:PROC
EXTRN	__EH_prolog3_GS:PROC
EXTRN	__ftol2:PROC
;	COMDAT ??_C@_00CNPNBAHC@?$AA@
; File d:\lost saga for developer\youtube\tutorial\source\src\lsclient\iobasechar.h
CONST	SEGMENT
??_C@_00CNPNBAHC@?$AA@ DB 00H				; `string'
CONST	ENDS
;	COMDAT __real@41f0000000000000
CONST	SEGMENT
__real@41f0000000000000 DQ 041f0000000000000r	; 4.29497e+009
CONST	ENDS
;	COMDAT __real@3f800000
CONST	SEGMENT
__real@3f800000 DD 03f800000r			; 1
CONST	ENDS
;	COMDAT __real@3ff0000000000000
CONST	SEGMENT
__real@3ff0000000000000 DQ 03ff0000000000000r	; 1
CONST	ENDS
;	COMDAT __real@42c80000
CONST	SEGMENT
__real@42c80000 DD 042c80000r			; 100
CONST	ENDS
;	COMDAT __real@bf800000
CONST	SEGMENT
__real@bf800000 DD 0bf800000r			; -1
CONST	ENDS
;	COMDAT xdata$x
xdata$x	SEGMENT
__unwindtable$?AreaWeaponFire@ioFlyBuff@@IAEXXZ DD 0ffffffffH
	DD	FLAT:__unwindfunclet$?AreaWeaponFire@ioFlyBuff@@IAEXXZ$0
	DD	00H
	DD	FLAT:__unwindfunclet$?AreaWeaponFire@ioFlyBuff@@IAEXXZ$1
__ehfuncinfo$?AreaWeaponFire@ioFlyBuff@@IAEXXZ DD 019930522H
	DD	02H
	DD	FLAT:__unwindtable$?AreaWeaponFire@ioFlyBuff@@IAEXXZ
	DD	2 DUP(00H)
	DD	2 DUP(00H)
	DD	00H
	DD	01H
; Function compile flags: /Ogsp
; File d:\lost saga for developer\youtube\tutorial\source\src\lsclient\ioflybuff.cpp
xdata$x	ENDS
;	COMDAT ?AreaWeaponFire@ioFlyBuff@@IAEXXZ
_TEXT	SEGMENT
$T527629 = -96						; size = 16
$T527630 = -80						; size = 16
tv441 = -64						; size = 4
$T527650 = -64						; size = 4
$T527652 = -60						; size = 4
_dwCurTime$ = -60					; size = 4
$T527651 = -56						; size = 4
_iAniID$ = -56						; size = 4
$T524043 = -52						; size = 12
_vLookVec$ = -40					; size = 12
$T524037 = -28						; size = 12
__$EHRec$ = -12						; size = 12
?AreaWeaponFire@ioFlyBuff@@IAEXXZ PROC			; ioFlyBuff::AreaWeaponFire, COMDAT
; _this$ = ecx

; 343  : {

  00000	6a 54		 push	 84			; 00000054H
  00002	b8 00 00 00 00	 mov	 eax, __ehhandler$?AreaWeaponFire@ioFlyBuff@@IAEXXZ
  00007	e8 00 00 00 00	 call	 __EH_prolog3_GS
  0000c	8b f1		 mov	 esi, ecx

; 344  : 	DWORD dwCurTime = FRAMEGETTIME();

  0000e	ff 15 00 00 00
	00		 call	 DWORD PTR __imp_?GetSingleton@ioFrameTimer@@SAAAV1@XZ
  00014	8b c8		 mov	 ecx, eax
  00016	ff 15 00 00 00
	00		 call	 DWORD PTR __imp_?GetLoopSec@ioFrameTimer@@QBEKXZ
  0001c	89 45 c4	 mov	 DWORD PTR _dwCurTime$[ebp], eax

; 345  : 
; 346  : 	ioEntityGroup *pGrp = m_pOwner->GetGroup();

  0001f	8b 86 74 02 00
	00		 mov	 eax, DWORD PTR [esi+628]
  00025	8b 58 04	 mov	 ebx, DWORD PTR [eax+4]

; 347  : 	if( !pGrp )

  00028	85 db		 test	 ebx, ebx
  0002a	0f 84 3e 02 00
	00		 je	 $LN3@AreaWeapon

; 348  : 		return;
; 349  : 
; 350  : 	D3DXVECTOR3 vLookVec = m_pOwner->GetTargetRot() * D3DXVECTOR3( 0.0f, 0.0f, -1.0f );

  00030	0f 57 c0	 xorps	 xmm0, xmm0
  00033	8d 4d e4	 lea	 ecx, DWORD PTR $T524037[ebp]
  00036	51		 push	 ecx
  00037	05 a4 06 00 00	 add	 eax, 1700		; 000006a4H
  0003c	50		 push	 eax
  0003d	8d 45 d8	 lea	 eax, DWORD PTR _vLookVec$[ebp]
  00040	f3 0f 11 45 e4	 movss	 DWORD PTR $T524037[ebp], xmm0
  00045	f3 0f 11 45 e8	 movss	 DWORD PTR $T524037[ebp+4], xmm0
  0004a	f3 0f 10 05 00
	00 00 00	 movss	 xmm0, DWORD PTR __real@bf800000
  00052	50		 push	 eax
  00053	f3 0f 11 45 ec	 movss	 DWORD PTR $T524037[ebp+8], xmm0
  00058	ff 15 00 00 00
	00		 call	 DWORD PTR __imp_??D@YA?AUD3DXVECTOR3@@ABUD3DXQUATERNION@@ABU0@@Z
  0005e	83 c4 0c	 add	 esp, 12			; 0000000cH

; 351  : 	int iAniID = pGrp->GetAnimationIdx( m_stAttackAni );

  00061	8d 86 90 0a 00
	00		 lea	 eax, DWORD PTR [esi+2704]
  00067	50		 push	 eax
  00068	8b cb		 mov	 ecx, ebx
  0006a	ff 15 00 00 00
	00		 call	 DWORD PTR __imp_?GetAnimationIdx@ioEntityGroup@@QAEHABVioHashString@@@Z
  00070	89 45 c8	 mov	 DWORD PTR _iAniID$[ebp], eax

; 352  : 	if ( iAniID == -1 )

  00073	83 f8 ff	 cmp	 eax, -1
  00076	0f 84 f2 01 00
	00		 je	 $LN3@AreaWeapon

; 353  : 		return;
; 354  : 
; 355  : 	pGrp->ClearAllActionAni( 100.0f, true );

  0007c	f3 0f 10 05 00
	00 00 00	 movss	 xmm0, DWORD PTR __real@42c80000
  00084	6a 01		 push	 1
  00086	51		 push	 ecx
  00087	8b cb		 mov	 ecx, ebx
  00089	f3 0f 11 04 24	 movss	 DWORD PTR [esp], xmm0
  0008e	ff 15 00 00 00
	00		 call	 DWORD PTR __imp_?ClearAllActionAni@ioEntityGroup@@QAEXM_N@Z

; 356  : 	pGrp->ClearAllLoopAni( 100.0f, true );

  00094	f3 0f 10 05 00
	00 00 00	 movss	 xmm0, DWORD PTR __real@42c80000
  0009c	6a 01		 push	 1
  0009e	51		 push	 ecx
  0009f	8b cb		 mov	 ecx, ebx
  000a1	f3 0f 11 04 24	 movss	 DWORD PTR [esp], xmm0
  000a6	ff 15 00 00 00
	00		 call	 DWORD PTR __imp_?ClearAllLoopAni@ioEntityGroup@@QAEXM_N@Z

; 357  : 	pGrp->SetActionAni( iAniID, 100.0f, 100.0f, 1.0f, 1.0f/m_fAttackAniRate );

  000ac	0f 57 c0	 xorps	 xmm0, xmm0
  000af	f2 0f 10 0d 00
	00 00 00	 movsd	 xmm1, QWORD PTR __real@3ff0000000000000
  000b7	6a 01		 push	 1
  000b9	6a 00		 push	 0
  000bb	83 ec 18	 sub	 esp, 24			; 00000018H
  000be	f3 0f 11 44 24
	14		 movss	 DWORD PTR [esp+20], xmm0
  000c4	f3 0f 11 44 24
	10		 movss	 DWORD PTR [esp+16], xmm0
  000ca	f3 0f 10 86 a0
	0a 00 00	 movss	 xmm0, DWORD PTR [esi+2720]
  000d2	0f 5a c0	 cvtps2pd xmm0, xmm0
  000d5	f2 0f 5e c8	 divsd	 xmm1, xmm0
  000d9	0f 57 c0	 xorps	 xmm0, xmm0
  000dc	66 0f 5a c1	 cvtpd2ps xmm0, xmm1
  000e0	f3 0f 11 44 24
	0c		 movss	 DWORD PTR [esp+12], xmm0
  000e6	f3 0f 10 05 00
	00 00 00	 movss	 xmm0, DWORD PTR __real@3f800000
  000ee	f3 0f 11 44 24
	08		 movss	 DWORD PTR [esp+8], xmm0
  000f4	f3 0f 10 05 00
	00 00 00	 movss	 xmm0, DWORD PTR __real@42c80000
  000fc	f3 0f 11 44 24
	04		 movss	 DWORD PTR [esp+4], xmm0
  00102	f3 0f 11 04 24	 movss	 DWORD PTR [esp], xmm0
  00107	ff 75 c8	 push	 DWORD PTR _iAniID$[ebp]
  0010a	8b cb		 mov	 ecx, ebx
  0010c	ff 15 00 00 00
	00		 call	 DWORD PTR __imp_?SetActionAni@ioEntityGroup@@QAE_NHMMMMMM_N0@Z

; 358  : 
; 359  : 	m_dwAttackMotionEndTime = dwCurTime;

  00112	8b 45 c4	 mov	 eax, DWORD PTR _dwCurTime$[ebp]

; 360  : 	m_dwAttackMotionEndTime += pGrp->GetAnimationFullTime(iAniID) * m_fAttackAniRate;

  00115	ff 75 c8	 push	 DWORD PTR _iAniID$[ebp]
  00118	8b cb		 mov	 ecx, ebx
  0011a	89 86 a4 0a 00
	00		 mov	 DWORD PTR [esi+2724], eax
  00120	ff 15 00 00 00
	00		 call	 DWORD PTR __imp_?GetAnimationFullTime@ioEntityGroup@@QAEMH@Z
  00126	d8 8e a0 0a 00
	00		 fmul	 DWORD PTR [esi+2720]
  0012c	8b 86 a4 0a 00
	00		 mov	 eax, DWORD PTR [esi+2724]
  00132	db 86 a4 0a 00
	00		 fild	 DWORD PTR [esi+2724]
  00138	85 c0		 test	 eax, eax
  0013a	79 06		 jns	 SHORT $LN26@AreaWeapon
  0013c	dc 05 00 00 00
	00		 fadd	 QWORD PTR __real@41f0000000000000
$LN26@AreaWeapon:
  00142	de c1		 faddp	 ST(1), ST(0)
  00144	e8 00 00 00 00	 call	 __ftol2

; 361  : 
; 362  : 	ioAreaWeapon *pArea = g_AreaWeaponMgr.CreateAreaWeapon( m_pOwner->GetCharName(),
; 363  : 		"",
; 364  : 		"",
; 365  : 		m_stAreaWeaponName,
; 366  : 		m_pOwner->GetWorldPosition() + vLookVec*m_fAreaWeaponOffset,
; 367  : 		m_pOwner->GetTargetRot(),
; 368  : 		ioAreaWeapon::CT_NORMAL );

  00149	8b 3d 00 00 00
	00		 mov	 edi, DWORD PTR __imp_??0ioHashString@@QAE@PBD@Z
  0014f	bb 00 00 00 00	 mov	 ebx, OFFSET ??_C@_00CNPNBAHC@?$AA@
  00154	53		 push	 ebx
  00155	8d 4d a0	 lea	 ecx, DWORD PTR $T527629[ebp]
  00158	89 86 a4 0a 00
	00		 mov	 DWORD PTR [esi+2724], eax
  0015e	ff d7		 call	 edi
  00160	83 65 fc 00	 and	 DWORD PTR __$EHRec$[ebp+8], 0
  00164	53		 push	 ebx
  00165	8d 4d b0	 lea	 ecx, DWORD PTR $T527630[ebp]
  00168	ff d7		 call	 edi
  0016a	f3 0f 10 86 8c
	0a 00 00	 movss	 xmm0, DWORD PTR [esi+2700]
  00172	f3 0f 10 4d d8	 movss	 xmm1, DWORD PTR _vLookVec$[ebp]
  00177	8b 8e 74 02 00
	00		 mov	 ecx, DWORD PTR [esi+628]
  0017d	8b 01		 mov	 eax, DWORD PTR [ecx]
  0017f	0f 5a c9	 cvtps2pd xmm1, xmm1
  00182	0f 5a d0	 cvtps2pd xmm2, xmm0
  00185	f2 0f 59 ca	 mulsd	 xmm1, xmm2
  00189	66 0f 5a c9	 cvtpd2ps xmm1, xmm1
  0018d	f3 0f 11 4d c4	 movss	 DWORD PTR $T527652[ebp], xmm1
  00192	f3 0f 10 4d dc	 movss	 xmm1, DWORD PTR _vLookVec$[ebp+4]
  00197	0f 5a c9	 cvtps2pd xmm1, xmm1
  0019a	0f 5a d0	 cvtps2pd xmm2, xmm0
  0019d	f2 0f 59 ca	 mulsd	 xmm1, xmm2
  001a1	66 0f 5a c9	 cvtpd2ps xmm1, xmm1
  001a5	f3 0f 11 4d c8	 movss	 DWORD PTR $T527651[ebp], xmm1
  001aa	f3 0f 10 4d e0	 movss	 xmm1, DWORD PTR _vLookVec$[ebp+8]
  001af	0f 5a c0	 cvtps2pd xmm0, xmm0
  001b2	0f 5a c9	 cvtps2pd xmm1, xmm1
  001b5	f2 0f 59 c8	 mulsd	 xmm1, xmm0
  001b9	0f 57 c0	 xorps	 xmm0, xmm0
  001bc	66 0f 5a c1	 cvtpd2ps xmm0, xmm1
  001c0	c6 45 fc 01	 mov	 BYTE PTR __$EHRec$[ebp+8], 1
  001c4	8d b9 a4 06 00
	00		 lea	 edi, DWORD PTR [ecx+1700]
  001ca	f3 0f 11 45 c0	 movss	 DWORD PTR $T527650[ebp], xmm0
  001cf	ff 50 70	 call	 DWORD PTR [eax+112]
  001d2	f3 0f 10 00	 movss	 xmm0, DWORD PTR [eax]
  001d6	f3 0f 10 4d c4	 movss	 xmm1, DWORD PTR $T527652[ebp]
  001db	f3 0f 10 55 c8	 movss	 xmm2, DWORD PTR $T527651[ebp]
  001e0	f3 0f 10 5d c0	 movss	 xmm3, DWORD PTR $T527650[ebp]
  001e5	0f 5a c9	 cvtps2pd xmm1, xmm1
  001e8	0f 5a c0	 cvtps2pd xmm0, xmm0
  001eb	f2 0f 58 c1	 addsd	 xmm0, xmm1
  001ef	f3 0f 10 48 04	 movss	 xmm1, DWORD PTR [eax+4]
  001f4	0f 5a d2	 cvtps2pd xmm2, xmm2
  001f7	6a 00		 push	 0
  001f9	0f 5a c9	 cvtps2pd xmm1, xmm1
  001fc	f2 0f 58 ca	 addsd	 xmm1, xmm2
  00200	f3 0f 10 50 08	 movss	 xmm2, DWORD PTR [eax+8]
  00205	8b 86 74 02 00
	00		 mov	 eax, DWORD PTR [esi+628]
  0020b	57		 push	 edi
  0020c	8d 4d cc	 lea	 ecx, DWORD PTR $T524043[ebp]
  0020f	51		 push	 ecx
  00210	81 c6 7c 0a 00
	00		 add	 esi, 2684		; 00000a7cH
  00216	56		 push	 esi
  00217	8d 4d a0	 lea	 ecx, DWORD PTR $T527629[ebp]
  0021a	51		 push	 ecx
  0021b	8d 4d b0	 lea	 ecx, DWORD PTR $T527630[ebp]
  0021e	0f 5a d2	 cvtps2pd xmm2, xmm2
  00221	0f 5a db	 cvtps2pd xmm3, xmm3
  00224	05 d4 02 00 00	 add	 eax, 724		; 000002d4H
  00229	51		 push	 ecx
  0022a	f2 0f 58 d3	 addsd	 xmm2, xmm3
  0022e	66 0f 5a c0	 cvtpd2ps xmm0, xmm0
  00232	66 0f 5a c9	 cvtpd2ps xmm1, xmm1
  00236	66 0f 5a d2	 cvtpd2ps xmm2, xmm2
  0023a	50		 push	 eax
  0023b	f3 0f 11 45 cc	 movss	 DWORD PTR $T524043[ebp], xmm0
  00240	f3 0f 11 4d d0	 movss	 DWORD PTR $T524043[ebp+4], xmm1
  00245	f3 0f 11 55 d4	 movss	 DWORD PTR $T524043[ebp+8], xmm2
  0024a	e8 00 00 00 00	 call	 ?GetSingleton@ioAreaWeaponManager@@SAAAV1@XZ ; ioAreaWeaponManager::GetSingleton
  0024f	8b c8		 mov	 ecx, eax
  00251	e8 00 00 00 00	 call	 ?CreateAreaWeapon@ioAreaWeaponManager@@QAEPAVioAreaWeapon@@ABVioHashString@@000ABUD3DXVECTOR3@@ABUD3DXQUATERNION@@H@Z ; ioAreaWeaponManager::CreateAreaWeapon
  00256	8b 35 00 00 00
	00		 mov	 esi, DWORD PTR __imp_??1ioHashString@@QAE@XZ
  0025c	8d 4d b0	 lea	 ecx, DWORD PTR $T527630[ebp]
  0025f	c6 45 fc 00	 mov	 BYTE PTR __$EHRec$[ebp+8], 0
  00263	ff d6		 call	 esi
  00265	83 4d fc ff	 or	 DWORD PTR __$EHRec$[ebp+8], -1
  00269	8d 4d a0	 lea	 ecx, DWORD PTR $T527629[ebp]
  0026c	ff d6		 call	 esi
$LN3@AreaWeapon:

; 369  : }

  0026e	e8 00 00 00 00	 call	 __EH_epilog3_GS
  00273	c3		 ret	 0
_TEXT	ENDS
;	COMDAT text$x
text$x	SEGMENT
__unwindfunclet$?AreaWeaponFire@ioFlyBuff@@IAEXXZ$0:
  00000	8d 4d a0	 lea	 ecx, DWORD PTR $T527629[ebp]
  00003	ff 25 00 00 00
	00		 jmp	 DWORD PTR __imp_??1ioHashString@@QAE@XZ
__unwindfunclet$?AreaWeaponFire@ioFlyBuff@@IAEXXZ$1:
  00009	8d 4d b0	 lea	 ecx, DWORD PTR $T527630[ebp]
  0000c	ff 25 00 00 00
	00		 jmp	 DWORD PTR __imp_??1ioHashString@@QAE@XZ
__ehhandler$?AreaWeaponFire@ioFlyBuff@@IAEXXZ:
  00012	8b 54 24 08	 mov	 edx, DWORD PTR [esp+8]
  00016	8d 42 0c	 lea	 eax, DWORD PTR [edx+12]
  00019	8b 4a 9c	 mov	 ecx, DWORD PTR [edx-100]
  0001c	33 c8		 xor	 ecx, eax
  0001e	e8 00 00 00 00	 call	 @__security_check_cookie@4
  00023	8b 4a fc	 mov	 ecx, DWORD PTR [edx-4]
  00026	33 c8		 xor	 ecx, eax
  00028	e8 00 00 00 00	 call	 @__security_check_cookie@4
  0002d	b8 00 00 00 00	 mov	 eax, OFFSET __ehfuncinfo$?AreaWeaponFire@ioFlyBuff@@IAEXXZ
  00032	e9 00 00 00 00	 jmp	 ___CxxFrameHandler3
text$x	ENDS
?AreaWeaponFire@ioFlyBuff@@IAEXXZ ENDP			; ioFlyBuff::AreaWeaponFire
PUBLIC	__real@4f800000
PUBLIC	?SetFlyBoostState@ioFlyBuff@@IAEXXZ		; ioFlyBuff::SetFlyBoostState
EXTRN	?AttachEffect@ioBaseChar@@QAEPAVioEffect@@ABVioHashString@@PAVioEntityEvent@@_N@Z:PROC ; ioBaseChar::AttachEffect
EXTRN	__imp_?SetLoopAni@ioEntityGroup@@QAE_NABVioHashString@@MMMM@Z:PROC
EXTRN	__imp_?IsEmpty@ioHashString@@QBE_NXZ:PROC
;	COMDAT __real@4f800000
; File d:\lost saga for developer\youtube\tutorial\source\src\lsclient\iobasechar.h
CONST	SEGMENT
__real@4f800000 DD 04f800000r			; 4.29497e+009
; Function compile flags: /Ogsp
; File d:\lost saga for developer\youtube\tutorial\source\src\lsclient\ioflybuff.cpp
CONST	ENDS
;	COMDAT ?SetFlyBoostState@ioFlyBuff@@IAEXXZ
_TEXT	SEGMENT
tv225 = -4						; size = 4
tv220 = -4						; size = 4
tv215 = -4						; size = 4
_bDependence$524067 = -4				; size = 1
_bGrace$524065 = -4					; size = 1
?SetFlyBoostState@ioFlyBuff@@IAEXXZ PROC		; ioFlyBuff::SetFlyBoostState, COMDAT
; _this$ = ecx

; 407  : {

  00000	55		 push	 ebp
  00001	8b ec		 mov	 ebp, esp
  00003	51		 push	 ecx
  00004	56		 push	 esi
  00005	8b f1		 mov	 esi, ecx

; 408  : 	if( m_dwFlyBoostEndTime == 0 )

  00007	83 be 00 0a 00
	00 00		 cmp	 DWORD PTR [esi+2560], 0
  0000e	0f 85 11 01 00
	00		 jne	 $LN4@SetFlyBoos

; 409  : 	{
; 410  : 		ioEntityGroup *pGrp = m_pOwner->GetGroup();

  00014	8b 86 74 02 00
	00		 mov	 eax, DWORD PTR [esi+628]
  0001a	53		 push	 ebx

; 411  : 		if( !m_FlyBoostAnimation.IsEmpty() )

  0001b	8d 9e d0 09 00
	00		 lea	 ebx, DWORD PTR [esi+2512]
  00021	57		 push	 edi
  00022	8b 78 04	 mov	 edi, DWORD PTR [eax+4]
  00025	8b cb		 mov	 ecx, ebx
  00027	ff 15 00 00 00
	00		 call	 DWORD PTR __imp_?IsEmpty@ioHashString@@QBE_NXZ
  0002d	84 c0		 test	 al, al
  0002f	0f 85 87 00 00
	00		 jne	 $LN3@SetFlyBoos

; 412  : 		{
; 413  : 			pGrp->ClearAllLoopAni( FLOAT100, true );

  00035	b8 64 00 00 00	 mov	 eax, 100		; 00000064H
  0003a	89 45 fc	 mov	 DWORD PTR tv225[ebp], eax
  0003d	db 45 fc	 fild	 DWORD PTR tv225[ebp]
  00040	6a 01		 push	 1
  00042	85 c0		 test	 eax, eax
  00044	79 06		 jns	 SHORT $LN17@SetFlyBoos
  00046	d8 05 00 00 00
	00		 fadd	 DWORD PTR __real@4f800000
$LN17@SetFlyBoos:
  0004c	51		 push	 ecx
  0004d	8b cf		 mov	 ecx, edi
  0004f	d9 1c 24	 fstp	 DWORD PTR [esp]
  00052	ff 15 00 00 00
	00		 call	 DWORD PTR __imp_?ClearAllLoopAni@ioEntityGroup@@QAEXM_N@Z

; 414  : 			pGrp->ClearAllActionAni( FLOAT100, true );

  00058	b8 64 00 00 00	 mov	 eax, 100		; 00000064H
  0005d	89 45 fc	 mov	 DWORD PTR tv220[ebp], eax
  00060	db 45 fc	 fild	 DWORD PTR tv220[ebp]
  00063	6a 01		 push	 1
  00065	85 c0		 test	 eax, eax
  00067	79 06		 jns	 SHORT $LN18@SetFlyBoos
  00069	d8 05 00 00 00
	00		 fadd	 DWORD PTR __real@4f800000
$LN18@SetFlyBoos:
  0006f	51		 push	 ecx
  00070	8b cf		 mov	 ecx, edi
  00072	d9 1c 24	 fstp	 DWORD PTR [esp]
  00075	ff 15 00 00 00
	00		 call	 DWORD PTR __imp_?ClearAllActionAni@ioEntityGroup@@QAEXM_N@Z

; 415  : 			pGrp->SetLoopAni( m_FlyBoostAnimation, FLOAT100 );

  0007b	b8 64 00 00 00	 mov	 eax, 100		; 00000064H
  00080	0f 57 c0	 xorps	 xmm0, xmm0
  00083	83 ec 10	 sub	 esp, 16			; 00000010H
  00086	f3 0f 11 44 24
	0c		 movss	 DWORD PTR [esp+12], xmm0
  0008c	f3 0f 10 05 00
	00 00 00	 movss	 xmm0, DWORD PTR __real@3f800000
  00094	89 45 fc	 mov	 DWORD PTR tv215[ebp], eax
  00097	db 45 fc	 fild	 DWORD PTR tv215[ebp]
  0009a	f3 0f 11 44 24
	08		 movss	 DWORD PTR [esp+8], xmm0
  000a0	f3 0f 11 44 24
	04		 movss	 DWORD PTR [esp+4], xmm0
  000a6	85 c0		 test	 eax, eax
  000a8	79 06		 jns	 SHORT $LN19@SetFlyBoos
  000aa	d8 05 00 00 00
	00		 fadd	 DWORD PTR __real@4f800000
$LN19@SetFlyBoos:
  000b0	d9 1c 24	 fstp	 DWORD PTR [esp]
  000b3	53		 push	 ebx
  000b4	8b cf		 mov	 ecx, edi
  000b6	ff 15 00 00 00
	00		 call	 DWORD PTR __imp_?SetLoopAni@ioEntityGroup@@QAE_NABVioHashString@@MMMM@Z
$LN3@SetFlyBoos:

; 416  : 		}
; 417  : 
; 418  : 		bool bGrace = false;
; 419  : 		if( m_FlyMoveType == FMT_NORMAL )

  000bc	83 be 0c 0a 00
	00 00		 cmp	 DWORD PTR [esi+2572], 0
  000c3	5f		 pop	 edi
  000c4	c6 45 fc 00	 mov	 BYTE PTR _bGrace$524065[ebp], 0
  000c8	5b		 pop	 ebx
  000c9	75 04		 jne	 SHORT $LN2@SetFlyBoos

; 420  : 			bGrace = true;

  000cb	c6 45 fc 01	 mov	 BYTE PTR _bGrace$524065[ebp], 1
$LN2@SetFlyBoos:

; 421  : 
; 422  : 		m_pOwner->EndEffect( m_FlyDelayEffect, bGrace );

  000cf	8b 8e 74 02 00
	00		 mov	 ecx, DWORD PTR [esi+628]
  000d5	6a 01		 push	 1
  000d7	ff 75 fc	 push	 DWORD PTR _bGrace$524065[ebp]
  000da	8d 86 a0 09 00
	00		 lea	 eax, DWORD PTR [esi+2464]
  000e0	50		 push	 eax
  000e1	e8 00 00 00 00	 call	 ?EndEffect@ioBaseChar@@QAEXABVioHashString@@_N1@Z ; ioBaseChar::EndEffect

; 423  : 		m_pOwner->EndEffect( m_FlyMoveEffect, bGrace );

  000e6	8b 8e 74 02 00
	00		 mov	 ecx, DWORD PTR [esi+628]
  000ec	6a 01		 push	 1
  000ee	ff 75 fc	 push	 DWORD PTR _bGrace$524065[ebp]
  000f1	8d 86 c0 09 00
	00		 lea	 eax, DWORD PTR [esi+2496]
  000f7	50		 push	 eax
  000f8	e8 00 00 00 00	 call	 ?EndEffect@ioBaseChar@@QAEXABVioHashString@@_N1@Z ; ioBaseChar::EndEffect

; 424  : 
; 425  : 		bool bDependence = true;
; 426  : 		if( m_FlyMoveType == FMT_BIRD )

  000fd	83 be 0c 0a 00
	00 01		 cmp	 DWORD PTR [esi+2572], 1
  00104	c6 45 fc 01	 mov	 BYTE PTR _bDependence$524067[ebp], 1
  00108	75 04		 jne	 SHORT $LN1@SetFlyBoos

; 427  : 			bDependence = false;

  0010a	c6 45 fc 00	 mov	 BYTE PTR _bDependence$524067[ebp], 0
$LN1@SetFlyBoos:

; 428  : 
; 429  : 		m_pOwner->AttachEffect( m_FlyBoostEffect, NULL, bDependence );

  0010e	ff 75 fc	 push	 DWORD PTR _bDependence$524067[ebp]
  00111	8b 8e 74 02 00
	00		 mov	 ecx, DWORD PTR [esi+628]
  00117	6a 00		 push	 0
  00119	8d 86 e0 09 00
	00		 lea	 eax, DWORD PTR [esi+2528]
  0011f	50		 push	 eax
  00120	e8 00 00 00 00	 call	 ?AttachEffect@ioBaseChar@@QAEPAVioEffect@@ABVioHashString@@PAVioEntityEvent@@_N@Z ; ioBaseChar::AttachEffect
$LN4@SetFlyBoos:

; 430  : 	}
; 431  : 
; 432  : 	m_pOwner->SetBoostState( false );

  00125	8b 86 74 02 00
	00		 mov	 eax, DWORD PTR [esi+628]
  0012b	c6 80 8e 1c 00
	00 00		 mov	 BYTE PTR [eax+7310], 0

; 433  : 
; 434  : 	m_dwFlyBoostEndTime = FRAMEGETTIME() + m_dwFlyBoostDuration;

  00132	ff 15 00 00 00
	00		 call	 DWORD PTR __imp_?GetSingleton@ioFrameTimer@@SAAAV1@XZ
  00138	8b c8		 mov	 ecx, eax
  0013a	ff 15 00 00 00
	00		 call	 DWORD PTR __imp_?GetLoopSec@ioFrameTimer@@QBEKXZ
  00140	03 86 04 0a 00
	00		 add	 eax, DWORD PTR [esi+2564]
  00146	89 86 00 0a 00
	00		 mov	 DWORD PTR [esi+2560], eax
  0014c	5e		 pop	 esi

; 435  : }

  0014d	c9		 leave
  0014e	c3		 ret	 0
?SetFlyBoostState@ioFlyBuff@@IAEXXZ ENDP		; ioFlyBuff::SetFlyBoostState
_TEXT	ENDS
PUBLIC	?SetFlyDelayState@ioFlyBuff@@IAEXXZ		; ioFlyBuff::SetFlyDelayState
; Function compile flags: /Ogsp
;	COMDAT ?SetFlyDelayState@ioFlyBuff@@IAEXXZ
_TEXT	SEGMENT
tv223 = -4						; size = 4
tv218 = -4						; size = 4
tv213 = -4						; size = 4
_bDependence$ = -4					; size = 1
_bGrace$ = -4						; size = 1
?SetFlyDelayState@ioFlyBuff@@IAEXXZ PROC		; ioFlyBuff::SetFlyDelayState, COMDAT
; _this$ = ecx

; 438  : {

  00000	55		 push	 ebp
  00001	8b ec		 mov	 ebp, esp
  00003	51		 push	 ecx
  00004	56		 push	 esi
  00005	8b f1		 mov	 esi, ecx

; 439  : 	ioEntityGroup *pGrp = m_pOwner->GetGroup();

  00007	8b 86 74 02 00
	00		 mov	 eax, DWORD PTR [esi+628]
  0000d	57		 push	 edi
  0000e	8b 78 04	 mov	 edi, DWORD PTR [eax+4]

; 440  : 	if( m_FlyDelayAnimation.IsEmpty() ) return;

  00011	8d 8e 90 09 00
	00		 lea	 ecx, DWORD PTR [esi+2448]
  00017	ff 15 00 00 00
	00		 call	 DWORD PTR __imp_?IsEmpty@ioHashString@@QBE_NXZ
  0001d	84 c0		 test	 al, al
  0001f	0f 85 22 01 00
	00		 jne	 $LN6@SetFlyDela

; 441  : 
; 442  : 	if( m_dwFlyBoostEndTime == 0 || !m_FlyBoostAnimation.IsEmpty() )

  00025	83 be 00 0a 00
	00 00		 cmp	 DWORD PTR [esi+2560], 0
  0002c	74 14		 je	 SHORT $LN3@SetFlyDela
  0002e	8d 8e d0 09 00
	00		 lea	 ecx, DWORD PTR [esi+2512]
  00034	ff 15 00 00 00
	00		 call	 DWORD PTR __imp_?IsEmpty@ioHashString@@QBE_NXZ
  0003a	84 c0		 test	 al, al
  0003c	0f 85 8d 00 00
	00		 jne	 $LN4@SetFlyDela
$LN3@SetFlyDela:

; 443  : 	{
; 444  : 		pGrp->ClearAllLoopAni( FLOAT100, true );

  00042	b8 64 00 00 00	 mov	 eax, 100		; 00000064H
  00047	89 45 fc	 mov	 DWORD PTR tv223[ebp], eax
  0004a	db 45 fc	 fild	 DWORD PTR tv223[ebp]
  0004d	6a 01		 push	 1
  0004f	85 c0		 test	 eax, eax
  00051	79 06		 jns	 SHORT $LN16@SetFlyDela
  00053	d8 05 00 00 00
	00		 fadd	 DWORD PTR __real@4f800000
$LN16@SetFlyDela:
  00059	51		 push	 ecx
  0005a	8b cf		 mov	 ecx, edi
  0005c	d9 1c 24	 fstp	 DWORD PTR [esp]
  0005f	ff 15 00 00 00
	00		 call	 DWORD PTR __imp_?ClearAllLoopAni@ioEntityGroup@@QAEXM_N@Z

; 445  : 		pGrp->ClearAllActionAni( FLOAT100, true );

  00065	b8 64 00 00 00	 mov	 eax, 100		; 00000064H
  0006a	89 45 fc	 mov	 DWORD PTR tv218[ebp], eax
  0006d	db 45 fc	 fild	 DWORD PTR tv218[ebp]
  00070	6a 01		 push	 1
  00072	85 c0		 test	 eax, eax
  00074	79 06		 jns	 SHORT $LN17@SetFlyDela
  00076	d8 05 00 00 00
	00		 fadd	 DWORD PTR __real@4f800000
$LN17@SetFlyDela:
  0007c	51		 push	 ecx
  0007d	8b cf		 mov	 ecx, edi
  0007f	d9 1c 24	 fstp	 DWORD PTR [esp]
  00082	ff 15 00 00 00
	00		 call	 DWORD PTR __imp_?ClearAllActionAni@ioEntityGroup@@QAEXM_N@Z

; 446  : 		pGrp->SetLoopAni( m_FlyDelayAnimation, FLOAT100 );

  00088	b8 64 00 00 00	 mov	 eax, 100		; 00000064H
  0008d	0f 57 c0	 xorps	 xmm0, xmm0
  00090	83 ec 10	 sub	 esp, 16			; 00000010H
  00093	f3 0f 11 44 24
	0c		 movss	 DWORD PTR [esp+12], xmm0
  00099	f3 0f 10 05 00
	00 00 00	 movss	 xmm0, DWORD PTR __real@3f800000
  000a1	89 45 fc	 mov	 DWORD PTR tv213[ebp], eax
  000a4	db 45 fc	 fild	 DWORD PTR tv213[ebp]
  000a7	f3 0f 11 44 24
	08		 movss	 DWORD PTR [esp+8], xmm0
  000ad	f3 0f 11 44 24
	04		 movss	 DWORD PTR [esp+4], xmm0
  000b3	85 c0		 test	 eax, eax
  000b5	79 06		 jns	 SHORT $LN18@SetFlyDela
  000b7	d8 05 00 00 00
	00		 fadd	 DWORD PTR __real@4f800000
$LN18@SetFlyDela:
  000bd	8d 86 90 09 00
	00		 lea	 eax, DWORD PTR [esi+2448]
  000c3	d9 1c 24	 fstp	 DWORD PTR [esp]
  000c6	50		 push	 eax
  000c7	8b cf		 mov	 ecx, edi
  000c9	ff 15 00 00 00
	00		 call	 DWORD PTR __imp_?SetLoopAni@ioEntityGroup@@QAE_NABVioHashString@@MMMM@Z
$LN4@SetFlyDela:

; 447  : 	}
; 448  : 
; 449  : 	m_dwFlyBoostEndTime = 0;
; 450  : 	m_fPreMoveSpeed = 0.0f;

  000cf	0f 57 c0	 xorps	 xmm0, xmm0
  000d2	33 ff		 xor	 edi, edi
  000d4	89 be 00 0a 00
	00		 mov	 DWORD PTR [esi+2560], edi
  000da	f3 0f 11 86 10
	0a 00 00	 movss	 DWORD PTR [esi+2576], xmm0

; 451  : 
; 452  : 	bool bGrace = false;

  000e2	c6 45 fc 00	 mov	 BYTE PTR _bGrace$[ebp], 0

; 453  : 	if( m_FlyMoveType == FMT_NORMAL )

  000e6	39 be 0c 0a 00
	00		 cmp	 DWORD PTR [esi+2572], edi
  000ec	75 04		 jne	 SHORT $LN2@SetFlyDela

; 454  : 		bGrace = true;

  000ee	c6 45 fc 01	 mov	 BYTE PTR _bGrace$[ebp], 1
$LN2@SetFlyDela:

; 455  : 
; 456  : 	m_pOwner->EndEffect( m_FlyBoostEffect, bGrace );

  000f2	8b 8e 74 02 00
	00		 mov	 ecx, DWORD PTR [esi+628]
  000f8	6a 01		 push	 1
  000fa	ff 75 fc	 push	 DWORD PTR _bGrace$[ebp]
  000fd	8d 86 e0 09 00
	00		 lea	 eax, DWORD PTR [esi+2528]
  00103	50		 push	 eax
  00104	e8 00 00 00 00	 call	 ?EndEffect@ioBaseChar@@QAEXABVioHashString@@_N1@Z ; ioBaseChar::EndEffect

; 457  : 	m_pOwner->EndEffect( m_FlyMoveEffect, bGrace );

  00109	8b 8e 74 02 00
	00		 mov	 ecx, DWORD PTR [esi+628]
  0010f	6a 01		 push	 1
  00111	ff 75 fc	 push	 DWORD PTR _bGrace$[ebp]
  00114	8d 86 c0 09 00
	00		 lea	 eax, DWORD PTR [esi+2496]
  0011a	50		 push	 eax
  0011b	e8 00 00 00 00	 call	 ?EndEffect@ioBaseChar@@QAEXABVioHashString@@_N1@Z ; ioBaseChar::EndEffect

; 458  : 
; 459  : 	bool bDependence = true;
; 460  : 	if( m_FlyMoveType == FMT_BIRD )

  00120	83 be 0c 0a 00
	00 01		 cmp	 DWORD PTR [esi+2572], 1
  00127	c6 45 fc 01	 mov	 BYTE PTR _bDependence$[ebp], 1
  0012b	75 04		 jne	 SHORT $LN1@SetFlyDela

; 461  : 		bDependence = false;

  0012d	c6 45 fc 00	 mov	 BYTE PTR _bDependence$[ebp], 0
$LN1@SetFlyDela:

; 462  : 	
; 463  : 	m_pOwner->AttachEffect( m_FlyDelayEffect, NULL, bDependence );

  00131	ff 75 fc	 push	 DWORD PTR _bDependence$[ebp]
  00134	8b 8e 74 02 00
	00		 mov	 ecx, DWORD PTR [esi+628]
  0013a	57		 push	 edi
  0013b	8d 86 a0 09 00
	00		 lea	 eax, DWORD PTR [esi+2464]
  00141	50		 push	 eax
  00142	e8 00 00 00 00	 call	 ?AttachEffect@ioBaseChar@@QAEPAVioEffect@@ABVioHashString@@PAVioEntityEvent@@_N@Z ; ioBaseChar::AttachEffect
$LN6@SetFlyDela:
  00147	5f		 pop	 edi
  00148	5e		 pop	 esi

; 464  : }

  00149	c9		 leave
  0014a	c3		 ret	 0
?SetFlyDelayState@ioFlyBuff@@IAEXXZ ENDP		; ioFlyBuff::SetFlyDelayState
_TEXT	ENDS
PUBLIC	?SetFlyMoveState@ioFlyBuff@@IAEXXZ		; ioFlyBuff::SetFlyMoveState
EXTRN	?GetCurSpeed@ioBaseChar@@QAEMXZ:PROC		; ioBaseChar::GetCurSpeed
; Function compile flags: /Ogsp
;	COMDAT ?SetFlyMoveState@ioFlyBuff@@IAEXXZ
_TEXT	SEGMENT
tv223 = -4						; size = 4
tv218 = -4						; size = 4
tv213 = -4						; size = 4
_bDependence$ = -4					; size = 1
_bGrace$ = -4						; size = 1
?SetFlyMoveState@ioFlyBuff@@IAEXXZ PROC			; ioFlyBuff::SetFlyMoveState, COMDAT
; _this$ = ecx

; 467  : {

  00000	55		 push	 ebp
  00001	8b ec		 mov	 ebp, esp
  00003	51		 push	 ecx
  00004	56		 push	 esi
  00005	8b f1		 mov	 esi, ecx

; 468  : 	ioEntityGroup *pGrp = m_pOwner->GetGroup();

  00007	8b 86 74 02 00
	00		 mov	 eax, DWORD PTR [esi+628]
  0000d	57		 push	 edi
  0000e	8b 78 04	 mov	 edi, DWORD PTR [eax+4]

; 469  : 	if( m_FlyMoveAnimation.IsEmpty() ) return;

  00011	8d 8e b0 09 00
	00		 lea	 ecx, DWORD PTR [esi+2480]
  00017	ff 15 00 00 00
	00		 call	 DWORD PTR __imp_?IsEmpty@ioHashString@@QBE_NXZ
  0001d	84 c0		 test	 al, al
  0001f	0f 85 28 01 00
	00		 jne	 $LN6@SetFlyMove

; 470  : 
; 471  : 	if( m_dwFlyBoostEndTime == 0 || !m_FlyBoostAnimation.IsEmpty() )

  00025	83 be 00 0a 00
	00 00		 cmp	 DWORD PTR [esi+2560], 0
  0002c	74 14		 je	 SHORT $LN3@SetFlyMove
  0002e	8d 8e d0 09 00
	00		 lea	 ecx, DWORD PTR [esi+2512]
  00034	ff 15 00 00 00
	00		 call	 DWORD PTR __imp_?IsEmpty@ioHashString@@QBE_NXZ
  0003a	84 c0		 test	 al, al
  0003c	0f 85 8d 00 00
	00		 jne	 $LN4@SetFlyMove
$LN3@SetFlyMove:

; 472  : 	{
; 473  : 		pGrp->ClearAllLoopAni( FLOAT100, true );

  00042	b8 64 00 00 00	 mov	 eax, 100		; 00000064H
  00047	89 45 fc	 mov	 DWORD PTR tv223[ebp], eax
  0004a	db 45 fc	 fild	 DWORD PTR tv223[ebp]
  0004d	6a 01		 push	 1
  0004f	85 c0		 test	 eax, eax
  00051	79 06		 jns	 SHORT $LN16@SetFlyMove
  00053	d8 05 00 00 00
	00		 fadd	 DWORD PTR __real@4f800000
$LN16@SetFlyMove:
  00059	51		 push	 ecx
  0005a	8b cf		 mov	 ecx, edi
  0005c	d9 1c 24	 fstp	 DWORD PTR [esp]
  0005f	ff 15 00 00 00
	00		 call	 DWORD PTR __imp_?ClearAllLoopAni@ioEntityGroup@@QAEXM_N@Z

; 474  : 		pGrp->ClearAllActionAni( FLOAT100, true );

  00065	b8 64 00 00 00	 mov	 eax, 100		; 00000064H
  0006a	89 45 fc	 mov	 DWORD PTR tv218[ebp], eax
  0006d	db 45 fc	 fild	 DWORD PTR tv218[ebp]
  00070	6a 01		 push	 1
  00072	85 c0		 test	 eax, eax
  00074	79 06		 jns	 SHORT $LN17@SetFlyMove
  00076	d8 05 00 00 00
	00		 fadd	 DWORD PTR __real@4f800000
$LN17@SetFlyMove:
  0007c	51		 push	 ecx
  0007d	8b cf		 mov	 ecx, edi
  0007f	d9 1c 24	 fstp	 DWORD PTR [esp]
  00082	ff 15 00 00 00
	00		 call	 DWORD PTR __imp_?ClearAllActionAni@ioEntityGroup@@QAEXM_N@Z

; 475  : 		pGrp->SetLoopAni( m_FlyMoveAnimation, FLOAT100 );

  00088	b8 64 00 00 00	 mov	 eax, 100		; 00000064H
  0008d	0f 57 c0	 xorps	 xmm0, xmm0
  00090	83 ec 10	 sub	 esp, 16			; 00000010H
  00093	f3 0f 11 44 24
	0c		 movss	 DWORD PTR [esp+12], xmm0
  00099	f3 0f 10 05 00
	00 00 00	 movss	 xmm0, DWORD PTR __real@3f800000
  000a1	89 45 fc	 mov	 DWORD PTR tv213[ebp], eax
  000a4	db 45 fc	 fild	 DWORD PTR tv213[ebp]
  000a7	f3 0f 11 44 24
	08		 movss	 DWORD PTR [esp+8], xmm0
  000ad	f3 0f 11 44 24
	04		 movss	 DWORD PTR [esp+4], xmm0
  000b3	85 c0		 test	 eax, eax
  000b5	79 06		 jns	 SHORT $LN18@SetFlyMove
  000b7	d8 05 00 00 00
	00		 fadd	 DWORD PTR __real@4f800000
$LN18@SetFlyMove:
  000bd	8d 86 b0 09 00
	00		 lea	 eax, DWORD PTR [esi+2480]
  000c3	d9 1c 24	 fstp	 DWORD PTR [esp]
  000c6	50		 push	 eax
  000c7	8b cf		 mov	 ecx, edi
  000c9	ff 15 00 00 00
	00		 call	 DWORD PTR __imp_?SetLoopAni@ioEntityGroup@@QAE_NABVioHashString@@MMMM@Z
$LN4@SetFlyMove:

; 476  : 	}
; 477  : 
; 478  : 	m_dwFlyBoostEndTime = 0;
; 479  : 	m_fPreMoveSpeed = m_pOwner->GetCurSpeed();

  000cf	8b 8e 74 02 00
	00		 mov	 ecx, DWORD PTR [esi+628]
  000d5	33 ff		 xor	 edi, edi
  000d7	89 be 00 0a 00
	00		 mov	 DWORD PTR [esi+2560], edi
  000dd	e8 00 00 00 00	 call	 ?GetCurSpeed@ioBaseChar@@QAEMXZ ; ioBaseChar::GetCurSpeed
  000e2	d9 9e 10 0a 00
	00		 fstp	 DWORD PTR [esi+2576]

; 480  : 
; 481  : 	bool bGrace = false;

  000e8	c6 45 fc 00	 mov	 BYTE PTR _bGrace$[ebp], 0

; 482  : 	if( m_FlyMoveType == FMT_NORMAL )

  000ec	39 be 0c 0a 00
	00		 cmp	 DWORD PTR [esi+2572], edi
  000f2	75 04		 jne	 SHORT $LN2@SetFlyMove

; 483  : 		bGrace = true;

  000f4	c6 45 fc 01	 mov	 BYTE PTR _bGrace$[ebp], 1
$LN2@SetFlyMove:

; 484  : 
; 485  : 	m_pOwner->EndEffect( m_FlyBoostEffect, bGrace );

  000f8	8b 8e 74 02 00
	00		 mov	 ecx, DWORD PTR [esi+628]
  000fe	6a 01		 push	 1
  00100	ff 75 fc	 push	 DWORD PTR _bGrace$[ebp]
  00103	8d 86 e0 09 00
	00		 lea	 eax, DWORD PTR [esi+2528]
  00109	50		 push	 eax
  0010a	e8 00 00 00 00	 call	 ?EndEffect@ioBaseChar@@QAEXABVioHashString@@_N1@Z ; ioBaseChar::EndEffect

; 486  : 	m_pOwner->EndEffect( m_FlyDelayEffect, bGrace );

  0010f	8b 8e 74 02 00
	00		 mov	 ecx, DWORD PTR [esi+628]
  00115	6a 01		 push	 1
  00117	ff 75 fc	 push	 DWORD PTR _bGrace$[ebp]
  0011a	8d 86 a0 09 00
	00		 lea	 eax, DWORD PTR [esi+2464]
  00120	50		 push	 eax
  00121	e8 00 00 00 00	 call	 ?EndEffect@ioBaseChar@@QAEXABVioHashString@@_N1@Z ; ioBaseChar::EndEffect

; 487  : 
; 488  : 	bool bDependence = true;
; 489  : 	if( m_FlyMoveType == FMT_BIRD )

  00126	83 be 0c 0a 00
	00 01		 cmp	 DWORD PTR [esi+2572], 1
  0012d	c6 45 fc 01	 mov	 BYTE PTR _bDependence$[ebp], 1
  00131	75 04		 jne	 SHORT $LN1@SetFlyMove

; 490  : 		bDependence = false;

  00133	c6 45 fc 00	 mov	 BYTE PTR _bDependence$[ebp], 0
$LN1@SetFlyMove:

; 491  : 
; 492  : 	m_pOwner->AttachEffect( m_FlyMoveEffect, NULL, bDependence );

  00137	ff 75 fc	 push	 DWORD PTR _bDependence$[ebp]
  0013a	8b 8e 74 02 00
	00		 mov	 ecx, DWORD PTR [esi+628]
  00140	57		 push	 edi
  00141	8d 86 c0 09 00
	00		 lea	 eax, DWORD PTR [esi+2496]
  00147	50		 push	 eax
  00148	e8 00 00 00 00	 call	 ?AttachEffect@ioBaseChar@@QAEPAVioEffect@@ABVioHashString@@PAVioEntityEvent@@_N@Z ; ioBaseChar::AttachEffect
$LN6@SetFlyMove:
  0014d	5f		 pop	 edi
  0014e	5e		 pop	 esi

; 493  : }

  0014f	c9		 leave
  00150	c3		 ret	 0
?SetFlyMoveState@ioFlyBuff@@IAEXXZ ENDP			; ioFlyBuff::SetFlyMoveState
_TEXT	ENDS
EXTRN	?SetReserveEndBuff@ioBuff@@QAEXXZ:PROC		; ioBuff::SetReserveEndBuff
EXTRN	??5SP2Packet@@QAEAAV0@AAH@Z:PROC		; SP2Packet::operator>>
EXTRN	?GetBaseChar@ioBaseChar@@QAEPAV1@ABVioHashString@@@Z:PROC ; ioBaseChar::GetBaseChar
EXTRN	?GetOwner@ioBuff@@QAEPAVioBaseChar@@XZ:PROC	; ioBuff::GetOwner
; Function compile flags: /Ogsp
;	COMDAT ?ApplyExtraBuffInfo@ioFlyBuff@@UAEXAAVSP2Packet@@@Z
_TEXT	SEGMENT
_iState$ = -4						; size = 4
_rkPacket$ = 8						; size = 4
?ApplyExtraBuffInfo@ioFlyBuff@@UAEXAAVSP2Packet@@@Z PROC ; ioFlyBuff::ApplyExtraBuffInfo, COMDAT
; _this$ = ecx

; 497  : {

  00000	55		 push	 ebp
  00001	8b ec		 mov	 ebp, esp
  00003	51		 push	 ecx
  00004	56		 push	 esi
  00005	8b f1		 mov	 esi, ecx

; 498  : 	ioBaseChar *pOwner = GetOwner();

  00007	e8 00 00 00 00	 call	 ?GetOwner@ioBuff@@QAEPAVioBaseChar@@XZ ; ioBuff::GetOwner

; 499  : 	if( !pOwner )

  0000c	85 c0		 test	 eax, eax
  0000e	74 38		 je	 SHORT $LN1@ApplyExtra

; 500  : 		return;
; 501  : 
; 502  : 	ioBaseChar *pCreator = pOwner->GetBaseChar( m_CreateChar );

  00010	8d 8e 88 02 00
	00		 lea	 ecx, DWORD PTR [esi+648]
  00016	51		 push	 ecx
  00017	8b c8		 mov	 ecx, eax
  00019	e8 00 00 00 00	 call	 ?GetBaseChar@ioBaseChar@@QAEPAV1@ABVioHashString@@@Z ; ioBaseChar::GetBaseChar

; 503  : 	if( !pCreator )

  0001e	85 c0		 test	 eax, eax
  00020	74 26		 je	 SHORT $LN1@ApplyExtra

; 504  : 		return;
; 505  : 
; 506  : 	int iState;
; 507  : 	rkPacket >> iState;

  00022	8b 4d 08	 mov	 ecx, DWORD PTR _rkPacket$[ebp]
  00025	8d 45 fc	 lea	 eax, DWORD PTR _iState$[ebp]
  00028	50		 push	 eax
  00029	e8 00 00 00 00	 call	 ??5SP2Packet@@QAEAAV0@AAH@Z ; SP2Packet::operator>>

; 508  : 	
; 509  : 	if( (BuffState)iState == BS_DIE )

  0002e	83 7d fc 01	 cmp	 DWORD PTR _iState$[ebp], 1
  00032	75 07		 jne	 SHORT $LN2@ApplyExtra

; 510  : 		SetReserveEndBuff();

  00034	8b ce		 mov	 ecx, esi
  00036	e8 00 00 00 00	 call	 ?SetReserveEndBuff@ioBuff@@QAEXXZ ; ioBuff::SetReserveEndBuff
$LN2@ApplyExtra:

; 511  : 
; 512  : 	if( (BuffState)iState == BS_ATTACK )

  0003b	83 7d fc 02	 cmp	 DWORD PTR _iState$[ebp], 2
  0003f	75 07		 jne	 SHORT $LN1@ApplyExtra

; 513  : 		AreaWeaponFire();

  00041	8b ce		 mov	 ecx, esi
  00043	e8 00 00 00 00	 call	 ?AreaWeaponFire@ioFlyBuff@@IAEXXZ ; ioFlyBuff::AreaWeaponFire
$LN1@ApplyExtra:
  00048	5e		 pop	 esi

; 514  : }

  00049	c9		 leave
  0004a	c2 04 00	 ret	 4
?ApplyExtraBuffInfo@ioFlyBuff@@UAEXAAVSP2Packet@@@Z ENDP ; ioFlyBuff::ApplyExtraBuffInfo
_TEXT	ENDS
PUBLIC	__$ArrayPad$
PUBLIC	??$LoadFloat_e@$0BF@@ioINILoader@@QAEMAAY0BF@$$CBDM@Z ; ioINILoader::LoadFloat_e<21>
EXTRN	__imp_?LoadFloat@ioINILoader@@QAEMPBDM@Z:PROC
EXTRN	___security_cookie:DWORD
; Function compile flags: /Ogsp
; File d:\lost saga for developer\youtube\tutorial\source\src\io3dengine\ioiniloader.h
;	COMDAT ??$LoadFloat_e@$0BF@@ioINILoader@@QAEMAAY0BF@$$CBDM@Z
_TEXT	SEGMENT
__k$ = -32						; size = 21
__$ArrayPad$ = -4					; size = 4
_k$ = 8							; size = 4
_f$ = 12						; size = 4
??$LoadFloat_e@$0BF@@ioINILoader@@QAEMAAY0BF@$$CBDM@Z PROC ; ioINILoader::LoadFloat_e<21>, COMDAT
; _this$ = ecx

; 135  : 	{

  00000	55		 push	 ebp
  00001	8b ec		 mov	 ebp, esp
  00003	83 ec 20	 sub	 esp, 32			; 00000020H
  00006	a1 00 00 00 00	 mov	 eax, DWORD PTR ___security_cookie
  0000b	33 c5		 xor	 eax, ebp
  0000d	89 45 fc	 mov	 DWORD PTR __$ArrayPad$[ebp], eax
  00010	8b 45 08	 mov	 eax, DWORD PTR _k$[ebp]

; 136  : 		_ENCSTR(k, _k);

  00013	8a 10		 mov	 dl, BYTE PTR [eax]
  00015	53		 push	 ebx
  00016	56		 push	 esi
  00017	8b f1		 mov	 esi, ecx
  00019	84 d2		 test	 dl, dl
  0001b	0f 84 f7 01 00
	00		 je	 $LN96@LoadFloat_
  00021	80 f2 ed	 xor	 dl, -19			; ffffffedH
  00024	88 55 e0	 mov	 BYTE PTR __k$[ebp], dl
  00027	8a 50 01	 mov	 dl, BYTE PTR [eax+1]
  0002a	84 d2		 test	 dl, dl
  0002c	0f 84 e0 01 00
	00		 je	 $LN95@LoadFloat_
  00032	b1 ec		 mov	 cl, -20			; ffffffecH
  00034	32 d1		 xor	 dl, cl
  00036	88 55 e1	 mov	 BYTE PTR __k$[ebp+1], dl
  00039	8a 50 02	 mov	 dl, BYTE PTR [eax+2]
  0003c	84 d2		 test	 dl, dl
  0003e	0f 84 c8 01 00
	00		 je	 $LN94@LoadFloat_
  00044	b3 eb		 mov	 bl, -21			; ffffffebH
  00046	32 d3		 xor	 dl, bl
  00048	88 55 e2	 mov	 BYTE PTR __k$[ebp+2], dl
  0004b	8a 50 03	 mov	 dl, BYTE PTR [eax+3]
  0004e	84 d2		 test	 dl, dl
  00050	0f 84 b0 01 00
	00		 je	 $LN93@LoadFloat_
  00056	80 f2 ea	 xor	 dl, -22			; ffffffeaH
  00059	88 55 e3	 mov	 BYTE PTR __k$[ebp+3], dl
  0005c	8a 50 04	 mov	 dl, BYTE PTR [eax+4]
  0005f	84 d2		 test	 dl, dl
  00061	0f 84 99 01 00
	00		 je	 $LN92@LoadFloat_
  00067	80 f2 ed	 xor	 dl, -19			; ffffffedH
  0006a	88 55 e4	 mov	 BYTE PTR __k$[ebp+4], dl
  0006d	8a 50 05	 mov	 dl, BYTE PTR [eax+5]
  00070	84 d2		 test	 dl, dl
  00072	0f 84 83 01 00
	00		 je	 $LN91@LoadFloat_
  00078	32 d1		 xor	 dl, cl
  0007a	88 55 e5	 mov	 BYTE PTR __k$[ebp+5], dl
  0007d	8a 50 06	 mov	 dl, BYTE PTR [eax+6]
  00080	84 d2		 test	 dl, dl
  00082	0f 84 6e 01 00
	00		 je	 $LN90@LoadFloat_
  00088	32 d3		 xor	 dl, bl
  0008a	88 55 e6	 mov	 BYTE PTR __k$[ebp+6], dl
  0008d	8a 50 07	 mov	 dl, BYTE PTR [eax+7]
  00090	84 d2		 test	 dl, dl
  00092	0f 84 58 01 00
	00		 je	 $LN89@LoadFloat_
  00098	80 f2 ea	 xor	 dl, -22			; ffffffeaH
  0009b	88 55 e7	 mov	 BYTE PTR __k$[ebp+7], dl
  0009e	8a 50 08	 mov	 dl, BYTE PTR [eax+8]
  000a1	84 d2		 test	 dl, dl
  000a3	0f 84 41 01 00
	00		 je	 $LN88@LoadFloat_
  000a9	80 f2 ed	 xor	 dl, -19			; ffffffedH
  000ac	88 55 e8	 mov	 BYTE PTR __k$[ebp+8], dl
  000af	8a 50 09	 mov	 dl, BYTE PTR [eax+9]
  000b2	84 d2		 test	 dl, dl
  000b4	0f 84 2b 01 00
	00		 je	 $LN87@LoadFloat_
  000ba	32 d1		 xor	 dl, cl
  000bc	88 55 e9	 mov	 BYTE PTR __k$[ebp+9], dl
  000bf	8a 50 0a	 mov	 dl, BYTE PTR [eax+10]
  000c2	84 d2		 test	 dl, dl
  000c4	0f 84 16 01 00
	00		 je	 $LN86@LoadFloat_
  000ca	32 d3		 xor	 dl, bl
  000cc	88 55 ea	 mov	 BYTE PTR __k$[ebp+10], dl
  000cf	8a 50 0b	 mov	 dl, BYTE PTR [eax+11]
  000d2	84 d2		 test	 dl, dl
  000d4	0f 84 00 01 00
	00		 je	 $LN85@LoadFloat_
  000da	80 f2 ea	 xor	 dl, -22			; ffffffeaH
  000dd	88 55 eb	 mov	 BYTE PTR __k$[ebp+11], dl
  000e0	8a 50 0c	 mov	 dl, BYTE PTR [eax+12]
  000e3	84 d2		 test	 dl, dl
  000e5	0f 84 e9 00 00
	00		 je	 $LN84@LoadFloat_
  000eb	80 f2 ed	 xor	 dl, -19			; ffffffedH
  000ee	88 55 ec	 mov	 BYTE PTR __k$[ebp+12], dl
  000f1	8a 50 0d	 mov	 dl, BYTE PTR [eax+13]
  000f4	84 d2		 test	 dl, dl
  000f6	0f 84 d3 00 00
	00		 je	 $LN83@LoadFloat_
  000fc	32 d1		 xor	 dl, cl
  000fe	88 55 ed	 mov	 BYTE PTR __k$[ebp+13], dl
  00101	8a 50 0e	 mov	 dl, BYTE PTR [eax+14]
  00104	84 d2		 test	 dl, dl
  00106	0f 84 be 00 00
	00		 je	 $LN82@LoadFloat_
  0010c	32 d3		 xor	 dl, bl
  0010e	88 55 ee	 mov	 BYTE PTR __k$[ebp+14], dl
  00111	8a 50 0f	 mov	 dl, BYTE PTR [eax+15]
  00114	84 d2		 test	 dl, dl
  00116	0f 84 a8 00 00
	00		 je	 $LN81@LoadFloat_
  0011c	80 f2 ea	 xor	 dl, -22			; ffffffeaH
  0011f	88 55 ef	 mov	 BYTE PTR __k$[ebp+15], dl
  00122	8a 50 10	 mov	 dl, BYTE PTR [eax+16]
  00125	84 d2		 test	 dl, dl
  00127	0f 84 91 00 00
	00		 je	 $LN80@LoadFloat_
  0012d	80 f2 ed	 xor	 dl, -19			; ffffffedH
  00130	88 55 f0	 mov	 BYTE PTR __k$[ebp+16], dl
  00133	8a 50 11	 mov	 dl, BYTE PTR [eax+17]
  00136	84 d2		 test	 dl, dl
  00138	74 7f		 je	 SHORT $LN79@LoadFloat_
  0013a	32 d1		 xor	 dl, cl
  0013c	88 55 f1	 mov	 BYTE PTR __k$[ebp+17], dl
  0013f	8a 50 12	 mov	 dl, BYTE PTR [eax+18]
  00142	84 d2		 test	 dl, dl
  00144	74 6e		 je	 SHORT $LN78@LoadFloat_
  00146	32 d3		 xor	 dl, bl
  00148	88 55 f2	 mov	 BYTE PTR __k$[ebp+18], dl
  0014b	8a 50 13	 mov	 dl, BYTE PTR [eax+19]
  0014e	84 d2		 test	 dl, dl
  00150	74 5c		 je	 SHORT $LN77@LoadFloat_
  00152	80 f2 ea	 xor	 dl, -22			; ffffffeaH
  00155	80 78 14 00	 cmp	 BYTE PTR [eax+20], 0
  00159	88 55 f3	 mov	 BYTE PTR __k$[ebp+19], dl
  0015c	0f 84 ba 00 00
	00		 je	 $LN1@LoadFloat_
  00162	8a 50 15	 mov	 dl, BYTE PTR [eax+21]
  00165	84 d2		 test	 dl, dl
  00167	74 40		 je	 SHORT $LN75@LoadFloat_
  00169	32 d1		 xor	 dl, cl
  0016b	88 55 f5	 mov	 BYTE PTR __k$[ebp+21], dl
  0016e	8a 50 16	 mov	 dl, BYTE PTR [eax+22]
  00171	84 d2		 test	 dl, dl
  00173	74 2f		 je	 SHORT $LN74@LoadFloat_
  00175	32 d3		 xor	 dl, bl
  00177	88 55 f6	 mov	 BYTE PTR __k$[ebp+22], dl
  0017a	8a 50 17	 mov	 dl, BYTE PTR [eax+23]
  0017d	84 d2		 test	 dl, dl
  0017f	74 1d		 je	 SHORT $LN73@LoadFloat_
  00181	8a 40 18	 mov	 al, BYTE PTR [eax+24]
  00184	80 f2 ea	 xor	 dl, -22			; ffffffeaH
  00187	88 55 f7	 mov	 BYTE PTR __k$[ebp+23], dl
  0018a	84 c0		 test	 al, al
  0018c	74 0a		 je	 SHORT $LN72@LoadFloat_
  0018e	34 ed		 xor	 al, -19			; ffffffedH
  00190	88 45 f8	 mov	 BYTE PTR __k$[ebp+24], al
  00193	e9 84 00 00 00	 jmp	 $LN1@LoadFloat_
$LN72@LoadFloat_:
  00198	c6 45 f8 ed	 mov	 BYTE PTR __k$[ebp+24], -19 ; ffffffedH
  0019c	eb 7e		 jmp	 SHORT $LN1@LoadFloat_
$LN73@LoadFloat_:
  0019e	c6 45 f7 ea	 mov	 BYTE PTR __k$[ebp+23], -22 ; ffffffeaH
  001a2	eb 78		 jmp	 SHORT $LN1@LoadFloat_
$LN74@LoadFloat_:
  001a4	88 5d f6	 mov	 BYTE PTR __k$[ebp+22], bl
  001a7	eb 73		 jmp	 SHORT $LN1@LoadFloat_
$LN75@LoadFloat_:
  001a9	88 4d f5	 mov	 BYTE PTR __k$[ebp+21], cl
  001ac	eb 6e		 jmp	 SHORT $LN1@LoadFloat_
$LN77@LoadFloat_:
  001ae	c6 45 f3 ea	 mov	 BYTE PTR __k$[ebp+19], -22 ; ffffffeaH
  001b2	eb 68		 jmp	 SHORT $LN1@LoadFloat_
$LN78@LoadFloat_:
  001b4	88 5d f2	 mov	 BYTE PTR __k$[ebp+18], bl
  001b7	eb 63		 jmp	 SHORT $LN1@LoadFloat_
$LN79@LoadFloat_:
  001b9	88 4d f1	 mov	 BYTE PTR __k$[ebp+17], cl
  001bc	eb 5e		 jmp	 SHORT $LN1@LoadFloat_
$LN80@LoadFloat_:
  001be	c6 45 f0 ed	 mov	 BYTE PTR __k$[ebp+16], -19 ; ffffffedH
  001c2	eb 58		 jmp	 SHORT $LN1@LoadFloat_
$LN81@LoadFloat_:
  001c4	c6 45 ef ea	 mov	 BYTE PTR __k$[ebp+15], -22 ; ffffffeaH
  001c8	eb 52		 jmp	 SHORT $LN1@LoadFloat_
$LN82@LoadFloat_:
  001ca	88 5d ee	 mov	 BYTE PTR __k$[ebp+14], bl
  001cd	eb 4d		 jmp	 SHORT $LN1@LoadFloat_
$LN83@LoadFloat_:
  001cf	88 4d ed	 mov	 BYTE PTR __k$[ebp+13], cl
  001d2	eb 48		 jmp	 SHORT $LN1@LoadFloat_
$LN84@LoadFloat_:
  001d4	c6 45 ec ed	 mov	 BYTE PTR __k$[ebp+12], -19 ; ffffffedH
  001d8	eb 42		 jmp	 SHORT $LN1@LoadFloat_
$LN85@LoadFloat_:
  001da	c6 45 eb ea	 mov	 BYTE PTR __k$[ebp+11], -22 ; ffffffeaH
  001de	eb 3c		 jmp	 SHORT $LN1@LoadFloat_
$LN86@LoadFloat_:
  001e0	88 5d ea	 mov	 BYTE PTR __k$[ebp+10], bl
  001e3	eb 37		 jmp	 SHORT $LN1@LoadFloat_
$LN87@LoadFloat_:
  001e5	88 4d e9	 mov	 BYTE PTR __k$[ebp+9], cl
  001e8	eb 32		 jmp	 SHORT $LN1@LoadFloat_
$LN88@LoadFloat_:
  001ea	c6 45 e8 ed	 mov	 BYTE PTR __k$[ebp+8], -19 ; ffffffedH
  001ee	eb 2c		 jmp	 SHORT $LN1@LoadFloat_
$LN89@LoadFloat_:
  001f0	c6 45 e7 ea	 mov	 BYTE PTR __k$[ebp+7], -22 ; ffffffeaH
  001f4	eb 26		 jmp	 SHORT $LN1@LoadFloat_
$LN90@LoadFloat_:
  001f6	88 5d e6	 mov	 BYTE PTR __k$[ebp+6], bl
  001f9	eb 21		 jmp	 SHORT $LN1@LoadFloat_
$LN91@LoadFloat_:
  001fb	88 4d e5	 mov	 BYTE PTR __k$[ebp+5], cl
  001fe	eb 1c		 jmp	 SHORT $LN1@LoadFloat_
$LN92@LoadFloat_:
  00200	c6 45 e4 ed	 mov	 BYTE PTR __k$[ebp+4], -19 ; ffffffedH
  00204	eb 16		 jmp	 SHORT $LN1@LoadFloat_
$LN93@LoadFloat_:
  00206	c6 45 e3 ea	 mov	 BYTE PTR __k$[ebp+3], -22 ; ffffffeaH
  0020a	eb 10		 jmp	 SHORT $LN1@LoadFloat_
$LN94@LoadFloat_:
  0020c	c6 45 e2 eb	 mov	 BYTE PTR __k$[ebp+2], -21 ; ffffffebH
  00210	eb 0a		 jmp	 SHORT $LN1@LoadFloat_
$LN95@LoadFloat_:
  00212	c6 45 e1 ec	 mov	 BYTE PTR __k$[ebp+1], -20 ; ffffffecH
  00216	eb 04		 jmp	 SHORT $LN1@LoadFloat_
$LN96@LoadFloat_:
  00218	c6 45 e0 ed	 mov	 BYTE PTR __k$[ebp], -19	; ffffffedH
$LN1@LoadFloat_:
  0021c	6a 05		 push	 5
  0021e	8d 45 e0	 lea	 eax, DWORD PTR __k$[ebp]
  00221	c6 45 f4 00	 mov	 BYTE PTR __k$[ebp+20], 0
  00225	5a		 pop	 edx
$LL104@LoadFloat_:
  00226	81 30 ed ec eb
	ea		 xor	 DWORD PTR [eax], -353637139 ; eaebecedH
  0022c	83 c0 04	 add	 eax, 4
  0022f	4a		 dec	 edx
  00230	75 f4		 jne	 SHORT $LL104@LoadFloat_

; 137  : 		return LoadFloat(_k, f);

  00232	f3 0f 10 45 0c	 movss	 xmm0, DWORD PTR _f$[ebp]
  00237	51		 push	 ecx
  00238	8d 45 e0	 lea	 eax, DWORD PTR __k$[ebp]
  0023b	f3 0f 11 04 24	 movss	 DWORD PTR [esp], xmm0
  00240	50		 push	 eax
  00241	8b ce		 mov	 ecx, esi
  00243	ff 15 00 00 00
	00		 call	 DWORD PTR __imp_?LoadFloat@ioINILoader@@QAEMPBDM@Z

; 138  : 	}

  00249	8b 4d fc	 mov	 ecx, DWORD PTR __$ArrayPad$[ebp]
  0024c	5e		 pop	 esi
  0024d	33 cd		 xor	 ecx, ebp
  0024f	5b		 pop	 ebx
  00250	e8 00 00 00 00	 call	 @__security_check_cookie@4
  00255	c9		 leave
  00256	c2 08 00	 ret	 8
??$LoadFloat_e@$0BF@@ioINILoader@@QAEMAAY0BF@$$CBDM@Z ENDP ; ioINILoader::LoadFloat_e<21>
_TEXT	ENDS
PUBLIC	__$ArrayPad$
PUBLIC	??$LoadFloat_e@$0P@@ioINILoader@@QAEMAAY0P@$$CBDM@Z ; ioINILoader::LoadFloat_e<15>
; Function compile flags: /Ogsp
;	COMDAT ??$LoadFloat_e@$0P@@ioINILoader@@QAEMAAY0P@$$CBDM@Z
_TEXT	SEGMENT
__k$ = -24						; size = 15
__$ArrayPad$ = -4					; size = 4
_k$ = 8							; size = 4
_f$ = 12						; size = 4
??$LoadFloat_e@$0P@@ioINILoader@@QAEMAAY0P@$$CBDM@Z PROC ; ioINILoader::LoadFloat_e<15>, COMDAT
; _this$ = ecx

; 135  : 	{

  00000	55		 push	 ebp
  00001	8b ec		 mov	 ebp, esp
  00003	83 ec 18	 sub	 esp, 24			; 00000018H
  00006	a1 00 00 00 00	 mov	 eax, DWORD PTR ___security_cookie
  0000b	33 c5		 xor	 eax, ebp
  0000d	89 45 fc	 mov	 DWORD PTR __$ArrayPad$[ebp], eax
  00010	8b 45 08	 mov	 eax, DWORD PTR _k$[ebp]

; 136  : 		_ENCSTR(k, _k);

  00013	8a 10		 mov	 dl, BYTE PTR [eax]
  00015	56		 push	 esi
  00016	8b f1		 mov	 esi, ecx
  00018	84 d2		 test	 dl, dl
  0001a	0f 84 75 01 00
	00		 je	 $LN96@LoadFloat_@2
  00020	80 f2 ed	 xor	 dl, -19			; ffffffedH
  00023	88 55 e8	 mov	 BYTE PTR __k$[ebp], dl
  00026	8a 50 01	 mov	 dl, BYTE PTR [eax+1]
  00029	84 d2		 test	 dl, dl
  0002b	0f 84 5e 01 00
	00		 je	 $LN95@LoadFloat_@2
  00031	b1 ec		 mov	 cl, -20			; ffffffecH
  00033	32 d1		 xor	 dl, cl
  00035	88 55 e9	 mov	 BYTE PTR __k$[ebp+1], dl
  00038	8a 50 02	 mov	 dl, BYTE PTR [eax+2]
  0003b	84 d2		 test	 dl, dl
  0003d	0f 84 46 01 00
	00		 je	 $LN94@LoadFloat_@2
  00043	80 f2 eb	 xor	 dl, -21			; ffffffebH
  00046	88 55 ea	 mov	 BYTE PTR __k$[ebp+2], dl
  00049	8a 50 03	 mov	 dl, BYTE PTR [eax+3]
  0004c	84 d2		 test	 dl, dl
  0004e	0f 84 2f 01 00
	00		 je	 $LN93@LoadFloat_@2
  00054	80 f2 ea	 xor	 dl, -22			; ffffffeaH
  00057	88 55 eb	 mov	 BYTE PTR __k$[ebp+3], dl
  0005a	8a 50 04	 mov	 dl, BYTE PTR [eax+4]
  0005d	84 d2		 test	 dl, dl
  0005f	0f 84 18 01 00
	00		 je	 $LN92@LoadFloat_@2
  00065	80 f2 ed	 xor	 dl, -19			; ffffffedH
  00068	88 55 ec	 mov	 BYTE PTR __k$[ebp+4], dl
  0006b	8a 50 05	 mov	 dl, BYTE PTR [eax+5]
  0006e	84 d2		 test	 dl, dl
  00070	0f 84 02 01 00
	00		 je	 $LN91@LoadFloat_@2
  00076	32 d1		 xor	 dl, cl
  00078	88 55 ed	 mov	 BYTE PTR __k$[ebp+5], dl
  0007b	8a 50 06	 mov	 dl, BYTE PTR [eax+6]
  0007e	84 d2		 test	 dl, dl
  00080	0f 84 ec 00 00
	00		 je	 $LN90@LoadFloat_@2
  00086	80 f2 eb	 xor	 dl, -21			; ffffffebH
  00089	88 55 ee	 mov	 BYTE PTR __k$[ebp+6], dl
  0008c	8a 50 07	 mov	 dl, BYTE PTR [eax+7]
  0008f	84 d2		 test	 dl, dl
  00091	0f 84 d5 00 00
	00		 je	 $LN89@LoadFloat_@2
  00097	80 f2 ea	 xor	 dl, -22			; ffffffeaH
  0009a	88 55 ef	 mov	 BYTE PTR __k$[ebp+7], dl
  0009d	8a 50 08	 mov	 dl, BYTE PTR [eax+8]
  000a0	84 d2		 test	 dl, dl
  000a2	0f 84 be 00 00
	00		 je	 $LN88@LoadFloat_@2
  000a8	80 f2 ed	 xor	 dl, -19			; ffffffedH
  000ab	88 55 f0	 mov	 BYTE PTR __k$[ebp+8], dl
  000ae	8a 50 09	 mov	 dl, BYTE PTR [eax+9]
  000b1	84 d2		 test	 dl, dl
  000b3	0f 84 a8 00 00
	00		 je	 $LN87@LoadFloat_@2
  000b9	32 d1		 xor	 dl, cl
  000bb	88 55 f1	 mov	 BYTE PTR __k$[ebp+9], dl
  000be	8a 50 0a	 mov	 dl, BYTE PTR [eax+10]
  000c1	84 d2		 test	 dl, dl
  000c3	0f 84 92 00 00
	00		 je	 $LN86@LoadFloat_@2
  000c9	80 f2 eb	 xor	 dl, -21			; ffffffebH
  000cc	88 55 f2	 mov	 BYTE PTR __k$[ebp+10], dl
  000cf	8a 50 0b	 mov	 dl, BYTE PTR [eax+11]
  000d2	84 d2		 test	 dl, dl
  000d4	74 7f		 je	 SHORT $LN85@LoadFloat_@2
  000d6	80 f2 ea	 xor	 dl, -22			; ffffffeaH
  000d9	88 55 f3	 mov	 BYTE PTR __k$[ebp+11], dl
  000dc	8a 50 0c	 mov	 dl, BYTE PTR [eax+12]
  000df	84 d2		 test	 dl, dl
  000e1	74 6c		 je	 SHORT $LN84@LoadFloat_@2
  000e3	80 f2 ed	 xor	 dl, -19			; ffffffedH
  000e6	88 55 f4	 mov	 BYTE PTR __k$[ebp+12], dl
  000e9	8a 50 0d	 mov	 dl, BYTE PTR [eax+13]
  000ec	84 d2		 test	 dl, dl
  000ee	74 5a		 je	 SHORT $LN83@LoadFloat_@2
  000f0	32 d1		 xor	 dl, cl
  000f2	80 78 0e 00	 cmp	 BYTE PTR [eax+14], 0
  000f6	88 55 f5	 mov	 BYTE PTR __k$[ebp+13], dl
  000f9	0f 84 9a 00 00
	00		 je	 $LN1@LoadFloat_@2
  000ff	8a 50 0f	 mov	 dl, BYTE PTR [eax+15]
  00102	84 d2		 test	 dl, dl
  00104	74 3e		 je	 SHORT $LN81@LoadFloat_@2
  00106	80 f2 ea	 xor	 dl, -22			; ffffffeaH
  00109	88 55 f7	 mov	 BYTE PTR __k$[ebp+15], dl
  0010c	8a 50 10	 mov	 dl, BYTE PTR [eax+16]
  0010f	84 d2		 test	 dl, dl
  00111	74 2b		 je	 SHORT $LN80@LoadFloat_@2
  00113	80 f2 ed	 xor	 dl, -19			; ffffffedH
  00116	88 55 f8	 mov	 BYTE PTR __k$[ebp+16], dl
  00119	8a 50 11	 mov	 dl, BYTE PTR [eax+17]
  0011c	84 d2		 test	 dl, dl
  0011e	74 19		 je	 SHORT $LN79@LoadFloat_@2
  00120	8a 40 12	 mov	 al, BYTE PTR [eax+18]
  00123	32 d1		 xor	 dl, cl
  00125	88 55 f9	 mov	 BYTE PTR __k$[ebp+17], dl
  00128	84 c0		 test	 al, al
  0012a	74 07		 je	 SHORT $LN78@LoadFloat_@2
  0012c	34 eb		 xor	 al, -21			; ffffffebH
  0012e	88 45 fa	 mov	 BYTE PTR __k$[ebp+18], al
  00131	eb 66		 jmp	 SHORT $LN1@LoadFloat_@2
$LN78@LoadFloat_@2:
  00133	c6 45 fa eb	 mov	 BYTE PTR __k$[ebp+18], -21 ; ffffffebH
  00137	eb 60		 jmp	 SHORT $LN1@LoadFloat_@2
$LN79@LoadFloat_@2:
  00139	88 4d f9	 mov	 BYTE PTR __k$[ebp+17], cl
  0013c	eb 5b		 jmp	 SHORT $LN1@LoadFloat_@2
$LN80@LoadFloat_@2:
  0013e	c6 45 f8 ed	 mov	 BYTE PTR __k$[ebp+16], -19 ; ffffffedH
  00142	eb 55		 jmp	 SHORT $LN1@LoadFloat_@2
$LN81@LoadFloat_@2:
  00144	c6 45 f7 ea	 mov	 BYTE PTR __k$[ebp+15], -22 ; ffffffeaH
  00148	eb 4f		 jmp	 SHORT $LN1@LoadFloat_@2
$LN83@LoadFloat_@2:
  0014a	88 4d f5	 mov	 BYTE PTR __k$[ebp+13], cl
  0014d	eb 4a		 jmp	 SHORT $LN1@LoadFloat_@2
$LN84@LoadFloat_@2:
  0014f	c6 45 f4 ed	 mov	 BYTE PTR __k$[ebp+12], -19 ; ffffffedH
  00153	eb 44		 jmp	 SHORT $LN1@LoadFloat_@2
$LN85@LoadFloat_@2:
  00155	c6 45 f3 ea	 mov	 BYTE PTR __k$[ebp+11], -22 ; ffffffeaH
  00159	eb 3e		 jmp	 SHORT $LN1@LoadFloat_@2
$LN86@LoadFloat_@2:
  0015b	c6 45 f2 eb	 mov	 BYTE PTR __k$[ebp+10], -21 ; ffffffebH
  0015f	eb 38		 jmp	 SHORT $LN1@LoadFloat_@2
$LN87@LoadFloat_@2:
  00161	88 4d f1	 mov	 BYTE PTR __k$[ebp+9], cl
  00164	eb 33		 jmp	 SHORT $LN1@LoadFloat_@2
$LN88@LoadFloat_@2:
  00166	c6 45 f0 ed	 mov	 BYTE PTR __k$[ebp+8], -19 ; ffffffedH
  0016a	eb 2d		 jmp	 SHORT $LN1@LoadFloat_@2
$LN89@LoadFloat_@2:
  0016c	c6 45 ef ea	 mov	 BYTE PTR __k$[ebp+7], -22 ; ffffffeaH
  00170	eb 27		 jmp	 SHORT $LN1@LoadFloat_@2
$LN90@LoadFloat_@2:
  00172	c6 45 ee eb	 mov	 BYTE PTR __k$[ebp+6], -21 ; ffffffebH
  00176	eb 21		 jmp	 SHORT $LN1@LoadFloat_@2
$LN91@LoadFloat_@2:
  00178	88 4d ed	 mov	 BYTE PTR __k$[ebp+5], cl
  0017b	eb 1c		 jmp	 SHORT $LN1@LoadFloat_@2
$LN92@LoadFloat_@2:
  0017d	c6 45 ec ed	 mov	 BYTE PTR __k$[ebp+4], -19 ; ffffffedH
  00181	eb 16		 jmp	 SHORT $LN1@LoadFloat_@2
$LN93@LoadFloat_@2:
  00183	c6 45 eb ea	 mov	 BYTE PTR __k$[ebp+3], -22 ; ffffffeaH
  00187	eb 10		 jmp	 SHORT $LN1@LoadFloat_@2
$LN94@LoadFloat_@2:
  00189	c6 45 ea eb	 mov	 BYTE PTR __k$[ebp+2], -21 ; ffffffebH
  0018d	eb 0a		 jmp	 SHORT $LN1@LoadFloat_@2
$LN95@LoadFloat_@2:
  0018f	c6 45 e9 ec	 mov	 BYTE PTR __k$[ebp+1], -20 ; ffffffecH
  00193	eb 04		 jmp	 SHORT $LN1@LoadFloat_@2
$LN96@LoadFloat_@2:
  00195	c6 45 e8 ed	 mov	 BYTE PTR __k$[ebp], -19	; ffffffedH
$LN1@LoadFloat_@2:
  00199	6a 03		 push	 3
  0019b	8d 45 e8	 lea	 eax, DWORD PTR __k$[ebp]
  0019e	c6 45 f6 00	 mov	 BYTE PTR __k$[ebp+14], 0
  001a2	5a		 pop	 edx
$LL104@LoadFloat_@2:
  001a3	81 30 ed ec eb
	ea		 xor	 DWORD PTR [eax], -353637139 ; eaebecedH
  001a9	83 c0 04	 add	 eax, 4
  001ac	4a		 dec	 edx
  001ad	75 f4		 jne	 SHORT $LL104@LoadFloat_@2
  001af	6a 0c		 push	 12			; 0000000cH
  001b1	58		 pop	 eax
$LL101@LoadFloat_@2:
  001b2	8b c8		 mov	 ecx, eax
  001b4	81 e1 03 00 00
	80		 and	 ecx, -2147483645	; 80000003H
  001ba	79 05		 jns	 SHORT $LN111@LoadFloat_@2
  001bc	49		 dec	 ecx
  001bd	83 c9 fc	 or	 ecx, -4			; fffffffcH
  001c0	41		 inc	 ecx
$LN111@LoadFloat_@2:
  001c1	b2 ed		 mov	 dl, -19			; ffffffedH
  001c3	2a d1		 sub	 dl, cl
  001c5	30 54 05 e8	 xor	 BYTE PTR __k$[ebp+eax], dl
  001c9	40		 inc	 eax
  001ca	83 f8 0e	 cmp	 eax, 14			; 0000000eH
  001cd	7c e3		 jl	 SHORT $LL101@LoadFloat_@2

; 137  : 		return LoadFloat(_k, f);

  001cf	f3 0f 10 45 0c	 movss	 xmm0, DWORD PTR _f$[ebp]
  001d4	51		 push	 ecx
  001d5	8d 45 e8	 lea	 eax, DWORD PTR __k$[ebp]
  001d8	f3 0f 11 04 24	 movss	 DWORD PTR [esp], xmm0
  001dd	50		 push	 eax
  001de	8b ce		 mov	 ecx, esi
  001e0	ff 15 00 00 00
	00		 call	 DWORD PTR __imp_?LoadFloat@ioINILoader@@QAEMPBDM@Z

; 138  : 	}

  001e6	8b 4d fc	 mov	 ecx, DWORD PTR __$ArrayPad$[ebp]
  001e9	33 cd		 xor	 ecx, ebp
  001eb	5e		 pop	 esi
  001ec	e8 00 00 00 00	 call	 @__security_check_cookie@4
  001f1	c9		 leave
  001f2	c2 08 00	 ret	 8
??$LoadFloat_e@$0P@@ioINILoader@@QAEMAAY0P@$$CBDM@Z ENDP ; ioINILoader::LoadFloat_e<15>
_TEXT	ENDS
PUBLIC	__$ArrayPad$
PUBLIC	??$LoadFloat_e@$0BB@@ioINILoader@@QAEMAAY0BB@$$CBDM@Z ; ioINILoader::LoadFloat_e<17>
; Function compile flags: /Ogsp
;	COMDAT ??$LoadFloat_e@$0BB@@ioINILoader@@QAEMAAY0BB@$$CBDM@Z
_TEXT	SEGMENT
__k$ = -28						; size = 17
__$ArrayPad$ = -4					; size = 4
_k$ = 8							; size = 4
_f$ = 12						; size = 4
??$LoadFloat_e@$0BB@@ioINILoader@@QAEMAAY0BB@$$CBDM@Z PROC ; ioINILoader::LoadFloat_e<17>, COMDAT
; _this$ = ecx

; 135  : 	{

  00000	55		 push	 ebp
  00001	8b ec		 mov	 ebp, esp
  00003	83 ec 1c	 sub	 esp, 28			; 0000001cH
  00006	a1 00 00 00 00	 mov	 eax, DWORD PTR ___security_cookie
  0000b	33 c5		 xor	 eax, ebp
  0000d	89 45 fc	 mov	 DWORD PTR __$ArrayPad$[ebp], eax
  00010	8b 45 08	 mov	 eax, DWORD PTR _k$[ebp]

; 136  : 		_ENCSTR(k, _k);

  00013	8a 10		 mov	 dl, BYTE PTR [eax]
  00015	56		 push	 esi
  00016	8b f1		 mov	 esi, ecx
  00018	84 d2		 test	 dl, dl
  0001a	0f 84 a7 01 00
	00		 je	 $LN96@LoadFloat_@3
  00020	80 f2 ed	 xor	 dl, -19			; ffffffedH
  00023	88 55 e4	 mov	 BYTE PTR __k$[ebp], dl
  00026	8a 50 01	 mov	 dl, BYTE PTR [eax+1]
  00029	84 d2		 test	 dl, dl
  0002b	0f 84 90 01 00
	00		 je	 $LN95@LoadFloat_@3
  00031	b1 ec		 mov	 cl, -20			; ffffffecH
  00033	32 d1		 xor	 dl, cl
  00035	88 55 e5	 mov	 BYTE PTR __k$[ebp+1], dl
  00038	8a 50 02	 mov	 dl, BYTE PTR [eax+2]
  0003b	84 d2		 test	 dl, dl
  0003d	0f 84 78 01 00
	00		 je	 $LN94@LoadFloat_@3
  00043	80 f2 eb	 xor	 dl, -21			; ffffffebH
  00046	88 55 e6	 mov	 BYTE PTR __k$[ebp+2], dl
  00049	8a 50 03	 mov	 dl, BYTE PTR [eax+3]
  0004c	84 d2		 test	 dl, dl
  0004e	0f 84 61 01 00
	00		 je	 $LN93@LoadFloat_@3
  00054	80 f2 ea	 xor	 dl, -22			; ffffffeaH
  00057	88 55 e7	 mov	 BYTE PTR __k$[ebp+3], dl
  0005a	8a 50 04	 mov	 dl, BYTE PTR [eax+4]
  0005d	84 d2		 test	 dl, dl
  0005f	0f 84 4a 01 00
	00		 je	 $LN92@LoadFloat_@3
  00065	80 f2 ed	 xor	 dl, -19			; ffffffedH
  00068	88 55 e8	 mov	 BYTE PTR __k$[ebp+4], dl
  0006b	8a 50 05	 mov	 dl, BYTE PTR [eax+5]
  0006e	84 d2		 test	 dl, dl
  00070	0f 84 34 01 00
	00		 je	 $LN91@LoadFloat_@3
  00076	32 d1		 xor	 dl, cl
  00078	88 55 e9	 mov	 BYTE PTR __k$[ebp+5], dl
  0007b	8a 50 06	 mov	 dl, BYTE PTR [eax+6]
  0007e	84 d2		 test	 dl, dl
  00080	0f 84 1e 01 00
	00		 je	 $LN90@LoadFloat_@3
  00086	80 f2 eb	 xor	 dl, -21			; ffffffebH
  00089	88 55 ea	 mov	 BYTE PTR __k$[ebp+6], dl
  0008c	8a 50 07	 mov	 dl, BYTE PTR [eax+7]
  0008f	84 d2		 test	 dl, dl
  00091	0f 84 07 01 00
	00		 je	 $LN89@LoadFloat_@3
  00097	80 f2 ea	 xor	 dl, -22			; ffffffeaH
  0009a	88 55 eb	 mov	 BYTE PTR __k$[ebp+7], dl
  0009d	8a 50 08	 mov	 dl, BYTE PTR [eax+8]
  000a0	84 d2		 test	 dl, dl
  000a2	0f 84 f0 00 00
	00		 je	 $LN88@LoadFloat_@3
  000a8	80 f2 ed	 xor	 dl, -19			; ffffffedH
  000ab	88 55 ec	 mov	 BYTE PTR __k$[ebp+8], dl
  000ae	8a 50 09	 mov	 dl, BYTE PTR [eax+9]
  000b1	84 d2		 test	 dl, dl
  000b3	0f 84 da 00 00
	00		 je	 $LN87@LoadFloat_@3
  000b9	32 d1		 xor	 dl, cl
  000bb	88 55 ed	 mov	 BYTE PTR __k$[ebp+9], dl
  000be	8a 50 0a	 mov	 dl, BYTE PTR [eax+10]
  000c1	84 d2		 test	 dl, dl
  000c3	0f 84 c4 00 00
	00		 je	 $LN86@LoadFloat_@3
  000c9	80 f2 eb	 xor	 dl, -21			; ffffffebH
  000cc	88 55 ee	 mov	 BYTE PTR __k$[ebp+10], dl
  000cf	8a 50 0b	 mov	 dl, BYTE PTR [eax+11]
  000d2	84 d2		 test	 dl, dl
  000d4	0f 84 ad 00 00
	00		 je	 $LN85@LoadFloat_@3
  000da	80 f2 ea	 xor	 dl, -22			; ffffffeaH
  000dd	88 55 ef	 mov	 BYTE PTR __k$[ebp+11], dl
  000e0	8a 50 0c	 mov	 dl, BYTE PTR [eax+12]
  000e3	84 d2		 test	 dl, dl
  000e5	0f 84 96 00 00
	00		 je	 $LN84@LoadFloat_@3
  000eb	80 f2 ed	 xor	 dl, -19			; ffffffedH
  000ee	88 55 f0	 mov	 BYTE PTR __k$[ebp+12], dl
  000f1	8a 50 0d	 mov	 dl, BYTE PTR [eax+13]
  000f4	84 d2		 test	 dl, dl
  000f6	0f 84 80 00 00
	00		 je	 $LN83@LoadFloat_@3
  000fc	32 d1		 xor	 dl, cl
  000fe	88 55 f1	 mov	 BYTE PTR __k$[ebp+13], dl
  00101	8a 50 0e	 mov	 dl, BYTE PTR [eax+14]
  00104	84 d2		 test	 dl, dl
  00106	74 6e		 je	 SHORT $LN82@LoadFloat_@3
  00108	80 f2 eb	 xor	 dl, -21			; ffffffebH
  0010b	88 55 f2	 mov	 BYTE PTR __k$[ebp+14], dl
  0010e	8a 50 0f	 mov	 dl, BYTE PTR [eax+15]
  00111	84 d2		 test	 dl, dl
  00113	74 5b		 je	 SHORT $LN81@LoadFloat_@3
  00115	80 f2 ea	 xor	 dl, -22			; ffffffeaH
  00118	80 78 10 00	 cmp	 BYTE PTR [eax+16], 0
  0011c	88 55 f3	 mov	 BYTE PTR __k$[ebp+15], dl
  0011f	0f 84 a6 00 00
	00		 je	 $LN1@LoadFloat_@3
  00125	8a 50 11	 mov	 dl, BYTE PTR [eax+17]
  00128	84 d2		 test	 dl, dl
  0012a	74 3f		 je	 SHORT $LN79@LoadFloat_@3
  0012c	32 d1		 xor	 dl, cl
  0012e	88 55 f5	 mov	 BYTE PTR __k$[ebp+17], dl
  00131	8a 50 12	 mov	 dl, BYTE PTR [eax+18]
  00134	84 d2		 test	 dl, dl
  00136	74 2d		 je	 SHORT $LN78@LoadFloat_@3
  00138	80 f2 eb	 xor	 dl, -21			; ffffffebH
  0013b	88 55 f6	 mov	 BYTE PTR __k$[ebp+18], dl
  0013e	8a 50 13	 mov	 dl, BYTE PTR [eax+19]
  00141	84 d2		 test	 dl, dl
  00143	74 1a		 je	 SHORT $LN77@LoadFloat_@3
  00145	8a 40 14	 mov	 al, BYTE PTR [eax+20]
  00148	80 f2 ea	 xor	 dl, -22			; ffffffeaH
  0014b	88 55 f7	 mov	 BYTE PTR __k$[ebp+19], dl
  0014e	84 c0		 test	 al, al
  00150	74 07		 je	 SHORT $LN76@LoadFloat_@3
  00152	34 ed		 xor	 al, -19			; ffffffedH
  00154	88 45 f8	 mov	 BYTE PTR __k$[ebp+20], al
  00157	eb 72		 jmp	 SHORT $LN1@LoadFloat_@3
$LN76@LoadFloat_@3:
  00159	c6 45 f8 ed	 mov	 BYTE PTR __k$[ebp+20], -19 ; ffffffedH
  0015d	eb 6c		 jmp	 SHORT $LN1@LoadFloat_@3
$LN77@LoadFloat_@3:
  0015f	c6 45 f7 ea	 mov	 BYTE PTR __k$[ebp+19], -22 ; ffffffeaH
  00163	eb 66		 jmp	 SHORT $LN1@LoadFloat_@3
$LN78@LoadFloat_@3:
  00165	c6 45 f6 eb	 mov	 BYTE PTR __k$[ebp+18], -21 ; ffffffebH
  00169	eb 60		 jmp	 SHORT $LN1@LoadFloat_@3
$LN79@LoadFloat_@3:
  0016b	88 4d f5	 mov	 BYTE PTR __k$[ebp+17], cl
  0016e	eb 5b		 jmp	 SHORT $LN1@LoadFloat_@3
$LN81@LoadFloat_@3:
  00170	c6 45 f3 ea	 mov	 BYTE PTR __k$[ebp+15], -22 ; ffffffeaH
  00174	eb 55		 jmp	 SHORT $LN1@LoadFloat_@3
$LN82@LoadFloat_@3:
  00176	c6 45 f2 eb	 mov	 BYTE PTR __k$[ebp+14], -21 ; ffffffebH
  0017a	eb 4f		 jmp	 SHORT $LN1@LoadFloat_@3
$LN83@LoadFloat_@3:
  0017c	88 4d f1	 mov	 BYTE PTR __k$[ebp+13], cl
  0017f	eb 4a		 jmp	 SHORT $LN1@LoadFloat_@3
$LN84@LoadFloat_@3:
  00181	c6 45 f0 ed	 mov	 BYTE PTR __k$[ebp+12], -19 ; ffffffedH
  00185	eb 44		 jmp	 SHORT $LN1@LoadFloat_@3
$LN85@LoadFloat_@3:
  00187	c6 45 ef ea	 mov	 BYTE PTR __k$[ebp+11], -22 ; ffffffeaH
  0018b	eb 3e		 jmp	 SHORT $LN1@LoadFloat_@3
$LN86@LoadFloat_@3:
  0018d	c6 45 ee eb	 mov	 BYTE PTR __k$[ebp+10], -21 ; ffffffebH
  00191	eb 38		 jmp	 SHORT $LN1@LoadFloat_@3
$LN87@LoadFloat_@3:
  00193	88 4d ed	 mov	 BYTE PTR __k$[ebp+9], cl
  00196	eb 33		 jmp	 SHORT $LN1@LoadFloat_@3
$LN88@LoadFloat_@3:
  00198	c6 45 ec ed	 mov	 BYTE PTR __k$[ebp+8], -19 ; ffffffedH
  0019c	eb 2d		 jmp	 SHORT $LN1@LoadFloat_@3
$LN89@LoadFloat_@3:
  0019e	c6 45 eb ea	 mov	 BYTE PTR __k$[ebp+7], -22 ; ffffffeaH
  001a2	eb 27		 jmp	 SHORT $LN1@LoadFloat_@3
$LN90@LoadFloat_@3:
  001a4	c6 45 ea eb	 mov	 BYTE PTR __k$[ebp+6], -21 ; ffffffebH
  001a8	eb 21		 jmp	 SHORT $LN1@LoadFloat_@3
$LN91@LoadFloat_@3:
  001aa	88 4d e9	 mov	 BYTE PTR __k$[ebp+5], cl
  001ad	eb 1c		 jmp	 SHORT $LN1@LoadFloat_@3
$LN92@LoadFloat_@3:
  001af	c6 45 e8 ed	 mov	 BYTE PTR __k$[ebp+4], -19 ; ffffffedH
  001b3	eb 16		 jmp	 SHORT $LN1@LoadFloat_@3
$LN93@LoadFloat_@3:
  001b5	c6 45 e7 ea	 mov	 BYTE PTR __k$[ebp+3], -22 ; ffffffeaH
  001b9	eb 10		 jmp	 SHORT $LN1@LoadFloat_@3
$LN94@LoadFloat_@3:
  001bb	c6 45 e6 eb	 mov	 BYTE PTR __k$[ebp+2], -21 ; ffffffebH
  001bf	eb 0a		 jmp	 SHORT $LN1@LoadFloat_@3
$LN95@LoadFloat_@3:
  001c1	c6 45 e5 ec	 mov	 BYTE PTR __k$[ebp+1], -20 ; ffffffecH
  001c5	eb 04		 jmp	 SHORT $LN1@LoadFloat_@3
$LN96@LoadFloat_@3:
  001c7	c6 45 e4 ed	 mov	 BYTE PTR __k$[ebp], -19	; ffffffedH
$LN1@LoadFloat_@3:
  001cb	6a 04		 push	 4
  001cd	8d 45 e4	 lea	 eax, DWORD PTR __k$[ebp]
  001d0	c6 45 f4 00	 mov	 BYTE PTR __k$[ebp+16], 0
  001d4	5a		 pop	 edx
$LL104@LoadFloat_@3:
  001d5	81 30 ed ec eb
	ea		 xor	 DWORD PTR [eax], -353637139 ; eaebecedH
  001db	83 c0 04	 add	 eax, 4
  001de	4a		 dec	 edx
  001df	75 f4		 jne	 SHORT $LL104@LoadFloat_@3

; 137  : 		return LoadFloat(_k, f);

  001e1	f3 0f 10 45 0c	 movss	 xmm0, DWORD PTR _f$[ebp]
  001e6	51		 push	 ecx
  001e7	8d 45 e4	 lea	 eax, DWORD PTR __k$[ebp]
  001ea	f3 0f 11 04 24	 movss	 DWORD PTR [esp], xmm0
  001ef	50		 push	 eax
  001f0	8b ce		 mov	 ecx, esi
  001f2	ff 15 00 00 00
	00		 call	 DWORD PTR __imp_?LoadFloat@ioINILoader@@QAEMPBDM@Z

; 138  : 	}

  001f8	8b 4d fc	 mov	 ecx, DWORD PTR __$ArrayPad$[ebp]
  001fb	33 cd		 xor	 ecx, ebp
  001fd	5e		 pop	 esi
  001fe	e8 00 00 00 00	 call	 @__security_check_cookie@4
  00203	c9		 leave
  00204	c2 08 00	 ret	 8
??$LoadFloat_e@$0BB@@ioINILoader@@QAEMAAY0BB@$$CBDM@Z ENDP ; ioINILoader::LoadFloat_e<17>
_TEXT	ENDS
PUBLIC	__$ArrayPad$
PUBLIC	??$LoadFloat_e@$0BA@@ioINILoader@@QAEMAAY0BA@$$CBDM@Z ; ioINILoader::LoadFloat_e<16>
; Function compile flags: /Ogsp
;	COMDAT ??$LoadFloat_e@$0BA@@ioINILoader@@QAEMAAY0BA@$$CBDM@Z
_TEXT	SEGMENT
__k$ = -24						; size = 16
__$ArrayPad$ = -4					; size = 4
_k$ = 8							; size = 4
_f$ = 12						; size = 4
??$LoadFloat_e@$0BA@@ioINILoader@@QAEMAAY0BA@$$CBDM@Z PROC ; ioINILoader::LoadFloat_e<16>, COMDAT
; _this$ = ecx

; 135  : 	{

  00000	55		 push	 ebp
  00001	8b ec		 mov	 ebp, esp
  00003	83 ec 18	 sub	 esp, 24			; 00000018H
  00006	a1 00 00 00 00	 mov	 eax, DWORD PTR ___security_cookie
  0000b	33 c5		 xor	 eax, ebp
  0000d	89 45 fc	 mov	 DWORD PTR __$ArrayPad$[ebp], eax
  00010	8b 45 08	 mov	 eax, DWORD PTR _k$[ebp]

; 136  : 		_ENCSTR(k, _k);

  00013	8a 10		 mov	 dl, BYTE PTR [eax]
  00015	56		 push	 esi
  00016	8b f1		 mov	 esi, ecx
  00018	84 d2		 test	 dl, dl
  0001a	0f 84 8c 01 00
	00		 je	 $LN96@LoadFloat_@4
  00020	80 f2 ed	 xor	 dl, -19			; ffffffedH
  00023	88 55 e8	 mov	 BYTE PTR __k$[ebp], dl
  00026	8a 50 01	 mov	 dl, BYTE PTR [eax+1]
  00029	84 d2		 test	 dl, dl
  0002b	0f 84 75 01 00
	00		 je	 $LN95@LoadFloat_@4
  00031	80 f2 ec	 xor	 dl, -20			; ffffffecH
  00034	88 55 e9	 mov	 BYTE PTR __k$[ebp+1], dl
  00037	8a 50 02	 mov	 dl, BYTE PTR [eax+2]
  0003a	84 d2		 test	 dl, dl
  0003c	0f 84 5e 01 00
	00		 je	 $LN94@LoadFloat_@4
  00042	b1 eb		 mov	 cl, -21			; ffffffebH
  00044	32 d1		 xor	 dl, cl
  00046	88 55 ea	 mov	 BYTE PTR __k$[ebp+2], dl
  00049	8a 50 03	 mov	 dl, BYTE PTR [eax+3]
  0004c	84 d2		 test	 dl, dl
  0004e	0f 84 46 01 00
	00		 je	 $LN93@LoadFloat_@4
  00054	80 f2 ea	 xor	 dl, -22			; ffffffeaH
  00057	88 55 eb	 mov	 BYTE PTR __k$[ebp+3], dl
  0005a	8a 50 04	 mov	 dl, BYTE PTR [eax+4]
  0005d	84 d2		 test	 dl, dl
  0005f	0f 84 2f 01 00
	00		 je	 $LN92@LoadFloat_@4
  00065	80 f2 ed	 xor	 dl, -19			; ffffffedH
  00068	88 55 ec	 mov	 BYTE PTR __k$[ebp+4], dl
  0006b	8a 50 05	 mov	 dl, BYTE PTR [eax+5]
  0006e	84 d2		 test	 dl, dl
  00070	0f 84 18 01 00
	00		 je	 $LN91@LoadFloat_@4
  00076	80 f2 ec	 xor	 dl, -20			; ffffffecH
  00079	88 55 ed	 mov	 BYTE PTR __k$[ebp+5], dl
  0007c	8a 50 06	 mov	 dl, BYTE PTR [eax+6]
  0007f	84 d2		 test	 dl, dl
  00081	0f 84 02 01 00
	00		 je	 $LN90@LoadFloat_@4
  00087	32 d1		 xor	 dl, cl
  00089	88 55 ee	 mov	 BYTE PTR __k$[ebp+6], dl
  0008c	8a 50 07	 mov	 dl, BYTE PTR [eax+7]
  0008f	84 d2		 test	 dl, dl
  00091	0f 84 ec 00 00
	00		 je	 $LN89@LoadFloat_@4
  00097	80 f2 ea	 xor	 dl, -22			; ffffffeaH
  0009a	88 55 ef	 mov	 BYTE PTR __k$[ebp+7], dl
  0009d	8a 50 08	 mov	 dl, BYTE PTR [eax+8]
  000a0	84 d2		 test	 dl, dl
  000a2	0f 84 d5 00 00
	00		 je	 $LN88@LoadFloat_@4
  000a8	80 f2 ed	 xor	 dl, -19			; ffffffedH
  000ab	88 55 f0	 mov	 BYTE PTR __k$[ebp+8], dl
  000ae	8a 50 09	 mov	 dl, BYTE PTR [eax+9]
  000b1	84 d2		 test	 dl, dl
  000b3	0f 84 be 00 00
	00		 je	 $LN87@LoadFloat_@4
  000b9	80 f2 ec	 xor	 dl, -20			; ffffffecH
  000bc	88 55 f1	 mov	 BYTE PTR __k$[ebp+9], dl
  000bf	8a 50 0a	 mov	 dl, BYTE PTR [eax+10]
  000c2	84 d2		 test	 dl, dl
  000c4	0f 84 a8 00 00
	00		 je	 $LN86@LoadFloat_@4
  000ca	32 d1		 xor	 dl, cl
  000cc	88 55 f2	 mov	 BYTE PTR __k$[ebp+10], dl
  000cf	8a 50 0b	 mov	 dl, BYTE PTR [eax+11]
  000d2	84 d2		 test	 dl, dl
  000d4	0f 84 92 00 00
	00		 je	 $LN85@LoadFloat_@4
  000da	80 f2 ea	 xor	 dl, -22			; ffffffeaH
  000dd	88 55 f3	 mov	 BYTE PTR __k$[ebp+11], dl
  000e0	8a 50 0c	 mov	 dl, BYTE PTR [eax+12]
  000e3	84 d2		 test	 dl, dl
  000e5	74 7f		 je	 SHORT $LN84@LoadFloat_@4
  000e7	80 f2 ed	 xor	 dl, -19			; ffffffedH
  000ea	88 55 f4	 mov	 BYTE PTR __k$[ebp+12], dl
  000ed	8a 50 0d	 mov	 dl, BYTE PTR [eax+13]
  000f0	84 d2		 test	 dl, dl
  000f2	74 6c		 je	 SHORT $LN83@LoadFloat_@4
  000f4	80 f2 ec	 xor	 dl, -20			; ffffffecH
  000f7	88 55 f5	 mov	 BYTE PTR __k$[ebp+13], dl
  000fa	8a 50 0e	 mov	 dl, BYTE PTR [eax+14]
  000fd	84 d2		 test	 dl, dl
  000ff	74 5a		 je	 SHORT $LN82@LoadFloat_@4
  00101	32 d1		 xor	 dl, cl
  00103	80 78 0f 00	 cmp	 BYTE PTR [eax+15], 0
  00107	88 55 f6	 mov	 BYTE PTR __k$[ebp+14], dl
  0010a	0f 84 a0 00 00
	00		 je	 $LN1@LoadFloat_@4
  00110	8a 50 10	 mov	 dl, BYTE PTR [eax+16]
  00113	84 d2		 test	 dl, dl
  00115	74 3e		 je	 SHORT $LN80@LoadFloat_@4
  00117	80 f2 ed	 xor	 dl, -19			; ffffffedH
  0011a	88 55 f8	 mov	 BYTE PTR __k$[ebp+16], dl
  0011d	8a 50 11	 mov	 dl, BYTE PTR [eax+17]
  00120	84 d2		 test	 dl, dl
  00122	74 2b		 je	 SHORT $LN79@LoadFloat_@4
  00124	80 f2 ec	 xor	 dl, -20			; ffffffecH
  00127	88 55 f9	 mov	 BYTE PTR __k$[ebp+17], dl
  0012a	8a 50 12	 mov	 dl, BYTE PTR [eax+18]
  0012d	84 d2		 test	 dl, dl
  0012f	74 19		 je	 SHORT $LN78@LoadFloat_@4
  00131	8a 40 13	 mov	 al, BYTE PTR [eax+19]
  00134	32 d1		 xor	 dl, cl
  00136	88 55 fa	 mov	 BYTE PTR __k$[ebp+18], dl
  00139	84 c0		 test	 al, al
  0013b	74 07		 je	 SHORT $LN77@LoadFloat_@4
  0013d	34 ea		 xor	 al, -22			; ffffffeaH
  0013f	88 45 fb	 mov	 BYTE PTR __k$[ebp+19], al
  00142	eb 6c		 jmp	 SHORT $LN1@LoadFloat_@4
$LN77@LoadFloat_@4:
  00144	c6 45 fb ea	 mov	 BYTE PTR __k$[ebp+19], -22 ; ffffffeaH
  00148	eb 66		 jmp	 SHORT $LN1@LoadFloat_@4
$LN78@LoadFloat_@4:
  0014a	88 4d fa	 mov	 BYTE PTR __k$[ebp+18], cl
  0014d	eb 61		 jmp	 SHORT $LN1@LoadFloat_@4
$LN79@LoadFloat_@4:
  0014f	c6 45 f9 ec	 mov	 BYTE PTR __k$[ebp+17], -20 ; ffffffecH
  00153	eb 5b		 jmp	 SHORT $LN1@LoadFloat_@4
$LN80@LoadFloat_@4:
  00155	c6 45 f8 ed	 mov	 BYTE PTR __k$[ebp+16], -19 ; ffffffedH
  00159	eb 55		 jmp	 SHORT $LN1@LoadFloat_@4
$LN82@LoadFloat_@4:
  0015b	88 4d f6	 mov	 BYTE PTR __k$[ebp+14], cl
  0015e	eb 50		 jmp	 SHORT $LN1@LoadFloat_@4
$LN83@LoadFloat_@4:
  00160	c6 45 f5 ec	 mov	 BYTE PTR __k$[ebp+13], -20 ; ffffffecH
  00164	eb 4a		 jmp	 SHORT $LN1@LoadFloat_@4
$LN84@LoadFloat_@4:
  00166	c6 45 f4 ed	 mov	 BYTE PTR __k$[ebp+12], -19 ; ffffffedH
  0016a	eb 44		 jmp	 SHORT $LN1@LoadFloat_@4
$LN85@LoadFloat_@4:
  0016c	c6 45 f3 ea	 mov	 BYTE PTR __k$[ebp+11], -22 ; ffffffeaH
  00170	eb 3e		 jmp	 SHORT $LN1@LoadFloat_@4
$LN86@LoadFloat_@4:
  00172	88 4d f2	 mov	 BYTE PTR __k$[ebp+10], cl
  00175	eb 39		 jmp	 SHORT $LN1@LoadFloat_@4
$LN87@LoadFloat_@4:
  00177	c6 45 f1 ec	 mov	 BYTE PTR __k$[ebp+9], -20 ; ffffffecH
  0017b	eb 33		 jmp	 SHORT $LN1@LoadFloat_@4
$LN88@LoadFloat_@4:
  0017d	c6 45 f0 ed	 mov	 BYTE PTR __k$[ebp+8], -19 ; ffffffedH
  00181	eb 2d		 jmp	 SHORT $LN1@LoadFloat_@4
$LN89@LoadFloat_@4:
  00183	c6 45 ef ea	 mov	 BYTE PTR __k$[ebp+7], -22 ; ffffffeaH
  00187	eb 27		 jmp	 SHORT $LN1@LoadFloat_@4
$LN90@LoadFloat_@4:
  00189	88 4d ee	 mov	 BYTE PTR __k$[ebp+6], cl
  0018c	eb 22		 jmp	 SHORT $LN1@LoadFloat_@4
$LN91@LoadFloat_@4:
  0018e	c6 45 ed ec	 mov	 BYTE PTR __k$[ebp+5], -20 ; ffffffecH
  00192	eb 1c		 jmp	 SHORT $LN1@LoadFloat_@4
$LN92@LoadFloat_@4:
  00194	c6 45 ec ed	 mov	 BYTE PTR __k$[ebp+4], -19 ; ffffffedH
  00198	eb 16		 jmp	 SHORT $LN1@LoadFloat_@4
$LN93@LoadFloat_@4:
  0019a	c6 45 eb ea	 mov	 BYTE PTR __k$[ebp+3], -22 ; ffffffeaH
  0019e	eb 10		 jmp	 SHORT $LN1@LoadFloat_@4
$LN94@LoadFloat_@4:
  001a0	c6 45 ea eb	 mov	 BYTE PTR __k$[ebp+2], -21 ; ffffffebH
  001a4	eb 0a		 jmp	 SHORT $LN1@LoadFloat_@4
$LN95@LoadFloat_@4:
  001a6	c6 45 e9 ec	 mov	 BYTE PTR __k$[ebp+1], -20 ; ffffffecH
  001aa	eb 04		 jmp	 SHORT $LN1@LoadFloat_@4
$LN96@LoadFloat_@4:
  001ac	c6 45 e8 ed	 mov	 BYTE PTR __k$[ebp], -19	; ffffffedH
$LN1@LoadFloat_@4:
  001b0	6a 03		 push	 3
  001b2	8d 45 e8	 lea	 eax, DWORD PTR __k$[ebp]
  001b5	c6 45 f7 00	 mov	 BYTE PTR __k$[ebp+15], 0
  001b9	5a		 pop	 edx
$LL104@LoadFloat_@4:
  001ba	81 30 ed ec eb
	ea		 xor	 DWORD PTR [eax], -353637139 ; eaebecedH
  001c0	83 c0 04	 add	 eax, 4
  001c3	4a		 dec	 edx
  001c4	75 f4		 jne	 SHORT $LL104@LoadFloat_@4
  001c6	6a 0c		 push	 12			; 0000000cH
  001c8	58		 pop	 eax
$LL101@LoadFloat_@4:
  001c9	8b c8		 mov	 ecx, eax
  001cb	81 e1 03 00 00
	80		 and	 ecx, -2147483645	; 80000003H
  001d1	79 05		 jns	 SHORT $LN111@LoadFloat_@4
  001d3	49		 dec	 ecx
  001d4	83 c9 fc	 or	 ecx, -4			; fffffffcH
  001d7	41		 inc	 ecx
$LN111@LoadFloat_@4:
  001d8	b2 ed		 mov	 dl, -19			; ffffffedH
  001da	2a d1		 sub	 dl, cl
  001dc	30 54 05 e8	 xor	 BYTE PTR __k$[ebp+eax], dl
  001e0	40		 inc	 eax
  001e1	83 f8 0f	 cmp	 eax, 15			; 0000000fH
  001e4	7c e3		 jl	 SHORT $LL101@LoadFloat_@4

; 137  : 		return LoadFloat(_k, f);

  001e6	f3 0f 10 45 0c	 movss	 xmm0, DWORD PTR _f$[ebp]
  001eb	51		 push	 ecx
  001ec	8d 45 e8	 lea	 eax, DWORD PTR __k$[ebp]
  001ef	f3 0f 11 04 24	 movss	 DWORD PTR [esp], xmm0
  001f4	50		 push	 eax
  001f5	8b ce		 mov	 ecx, esi
  001f7	ff 15 00 00 00
	00		 call	 DWORD PTR __imp_?LoadFloat@ioINILoader@@QAEMPBDM@Z

; 138  : 	}

  001fd	8b 4d fc	 mov	 ecx, DWORD PTR __$ArrayPad$[ebp]
  00200	33 cd		 xor	 ecx, ebp
  00202	5e		 pop	 esi
  00203	e8 00 00 00 00	 call	 @__security_check_cookie@4
  00208	c9		 leave
  00209	c2 08 00	 ret	 8
??$LoadFloat_e@$0BA@@ioINILoader@@QAEMAAY0BA@$$CBDM@Z ENDP ; ioINILoader::LoadFloat_e<16>
_TEXT	ENDS
PUBLIC	__$ArrayPad$
PUBLIC	??$LoadInt_e@$0N@@ioINILoader@@QAEHAAY0N@$$CBDH@Z ; ioINILoader::LoadInt_e<13>
EXTRN	__imp_?LoadInt@ioINILoader@@QAEHPBDH@Z:PROC
; Function compile flags: /Ogsp
;	COMDAT ??$LoadInt_e@$0N@@ioINILoader@@QAEHAAY0N@$$CBDH@Z
_TEXT	SEGMENT
__k$ = -24						; size = 13
__$ArrayPad$ = -4					; size = 4
_k$ = 8							; size = 4
_i$ = 12						; size = 4
??$LoadInt_e@$0N@@ioINILoader@@QAEHAAY0N@$$CBDH@Z PROC	; ioINILoader::LoadInt_e<13>, COMDAT
; _this$ = ecx

; 118  : 	{

  00000	55		 push	 ebp
  00001	8b ec		 mov	 ebp, esp
  00003	83 ec 18	 sub	 esp, 24			; 00000018H
  00006	a1 00 00 00 00	 mov	 eax, DWORD PTR ___security_cookie
  0000b	33 c5		 xor	 eax, ebp
  0000d	89 45 fc	 mov	 DWORD PTR __$ArrayPad$[ebp], eax
  00010	8b 45 08	 mov	 eax, DWORD PTR _k$[ebp]

; 119  : 		_ENCSTR(k, _k);

  00013	8a 10		 mov	 dl, BYTE PTR [eax]
  00015	56		 push	 esi
  00016	8b f1		 mov	 esi, ecx
  00018	84 d2		 test	 dl, dl
  0001a	0f 84 4d 01 00
	00		 je	 $LN96@LoadInt_e
  00020	80 f2 ed	 xor	 dl, -19			; ffffffedH
  00023	88 55 e8	 mov	 BYTE PTR __k$[ebp], dl
  00026	8a 50 01	 mov	 dl, BYTE PTR [eax+1]
  00029	84 d2		 test	 dl, dl
  0002b	0f 84 36 01 00
	00		 je	 $LN95@LoadInt_e
  00031	b1 ec		 mov	 cl, -20			; ffffffecH
  00033	32 d1		 xor	 dl, cl
  00035	88 55 e9	 mov	 BYTE PTR __k$[ebp+1], dl
  00038	8a 50 02	 mov	 dl, BYTE PTR [eax+2]
  0003b	84 d2		 test	 dl, dl
  0003d	0f 84 1e 01 00
	00		 je	 $LN94@LoadInt_e
  00043	80 f2 eb	 xor	 dl, -21			; ffffffebH
  00046	88 55 ea	 mov	 BYTE PTR __k$[ebp+2], dl
  00049	8a 50 03	 mov	 dl, BYTE PTR [eax+3]
  0004c	84 d2		 test	 dl, dl
  0004e	0f 84 07 01 00
	00		 je	 $LN93@LoadInt_e
  00054	80 f2 ea	 xor	 dl, -22			; ffffffeaH
  00057	88 55 eb	 mov	 BYTE PTR __k$[ebp+3], dl
  0005a	8a 50 04	 mov	 dl, BYTE PTR [eax+4]
  0005d	84 d2		 test	 dl, dl
  0005f	0f 84 f0 00 00
	00		 je	 $LN92@LoadInt_e
  00065	80 f2 ed	 xor	 dl, -19			; ffffffedH
  00068	88 55 ec	 mov	 BYTE PTR __k$[ebp+4], dl
  0006b	8a 50 05	 mov	 dl, BYTE PTR [eax+5]
  0006e	84 d2		 test	 dl, dl
  00070	0f 84 da 00 00
	00		 je	 $LN91@LoadInt_e
  00076	32 d1		 xor	 dl, cl
  00078	88 55 ed	 mov	 BYTE PTR __k$[ebp+5], dl
  0007b	8a 50 06	 mov	 dl, BYTE PTR [eax+6]
  0007e	84 d2		 test	 dl, dl
  00080	0f 84 c4 00 00
	00		 je	 $LN90@LoadInt_e
  00086	80 f2 eb	 xor	 dl, -21			; ffffffebH
  00089	88 55 ee	 mov	 BYTE PTR __k$[ebp+6], dl
  0008c	8a 50 07	 mov	 dl, BYTE PTR [eax+7]
  0008f	84 d2		 test	 dl, dl
  00091	0f 84 ad 00 00
	00		 je	 $LN89@LoadInt_e
  00097	80 f2 ea	 xor	 dl, -22			; ffffffeaH
  0009a	88 55 ef	 mov	 BYTE PTR __k$[ebp+7], dl
  0009d	8a 50 08	 mov	 dl, BYTE PTR [eax+8]
  000a0	84 d2		 test	 dl, dl
  000a2	0f 84 96 00 00
	00		 je	 $LN88@LoadInt_e
  000a8	80 f2 ed	 xor	 dl, -19			; ffffffedH
  000ab	88 55 f0	 mov	 BYTE PTR __k$[ebp+8], dl
  000ae	8a 50 09	 mov	 dl, BYTE PTR [eax+9]
  000b1	84 d2		 test	 dl, dl
  000b3	0f 84 80 00 00
	00		 je	 $LN87@LoadInt_e
  000b9	32 d1		 xor	 dl, cl
  000bb	88 55 f1	 mov	 BYTE PTR __k$[ebp+9], dl
  000be	8a 50 0a	 mov	 dl, BYTE PTR [eax+10]
  000c1	84 d2		 test	 dl, dl
  000c3	74 6e		 je	 SHORT $LN86@LoadInt_e
  000c5	80 f2 eb	 xor	 dl, -21			; ffffffebH
  000c8	88 55 f2	 mov	 BYTE PTR __k$[ebp+10], dl
  000cb	8a 50 0b	 mov	 dl, BYTE PTR [eax+11]
  000ce	84 d2		 test	 dl, dl
  000d0	74 5b		 je	 SHORT $LN85@LoadInt_e
  000d2	80 f2 ea	 xor	 dl, -22			; ffffffeaH
  000d5	80 78 0c 00	 cmp	 BYTE PTR [eax+12], 0
  000d9	88 55 f3	 mov	 BYTE PTR __k$[ebp+11], dl
  000dc	0f 84 8f 00 00
	00		 je	 $LN1@LoadInt_e
  000e2	8a 50 0d	 mov	 dl, BYTE PTR [eax+13]
  000e5	84 d2		 test	 dl, dl
  000e7	74 3f		 je	 SHORT $LN83@LoadInt_e
  000e9	32 d1		 xor	 dl, cl
  000eb	88 55 f5	 mov	 BYTE PTR __k$[ebp+13], dl
  000ee	8a 50 0e	 mov	 dl, BYTE PTR [eax+14]
  000f1	84 d2		 test	 dl, dl
  000f3	74 2d		 je	 SHORT $LN82@LoadInt_e
  000f5	80 f2 eb	 xor	 dl, -21			; ffffffebH
  000f8	88 55 f6	 mov	 BYTE PTR __k$[ebp+14], dl
  000fb	8a 50 0f	 mov	 dl, BYTE PTR [eax+15]
  000fe	84 d2		 test	 dl, dl
  00100	74 1a		 je	 SHORT $LN81@LoadInt_e
  00102	8a 40 10	 mov	 al, BYTE PTR [eax+16]
  00105	80 f2 ea	 xor	 dl, -22			; ffffffeaH
  00108	88 55 f7	 mov	 BYTE PTR __k$[ebp+15], dl
  0010b	84 c0		 test	 al, al
  0010d	74 07		 je	 SHORT $LN80@LoadInt_e
  0010f	34 ed		 xor	 al, -19			; ffffffedH
  00111	88 45 f8	 mov	 BYTE PTR __k$[ebp+16], al
  00114	eb 5b		 jmp	 SHORT $LN1@LoadInt_e
$LN80@LoadInt_e:
  00116	c6 45 f8 ed	 mov	 BYTE PTR __k$[ebp+16], -19 ; ffffffedH
  0011a	eb 55		 jmp	 SHORT $LN1@LoadInt_e
$LN81@LoadInt_e:
  0011c	c6 45 f7 ea	 mov	 BYTE PTR __k$[ebp+15], -22 ; ffffffeaH
  00120	eb 4f		 jmp	 SHORT $LN1@LoadInt_e
$LN82@LoadInt_e:
  00122	c6 45 f6 eb	 mov	 BYTE PTR __k$[ebp+14], -21 ; ffffffebH
  00126	eb 49		 jmp	 SHORT $LN1@LoadInt_e
$LN83@LoadInt_e:
  00128	88 4d f5	 mov	 BYTE PTR __k$[ebp+13], cl
  0012b	eb 44		 jmp	 SHORT $LN1@LoadInt_e
$LN85@LoadInt_e:
  0012d	c6 45 f3 ea	 mov	 BYTE PTR __k$[ebp+11], -22 ; ffffffeaH
  00131	eb 3e		 jmp	 SHORT $LN1@LoadInt_e
$LN86@LoadInt_e:
  00133	c6 45 f2 eb	 mov	 BYTE PTR __k$[ebp+10], -21 ; ffffffebH
  00137	eb 38		 jmp	 SHORT $LN1@LoadInt_e
$LN87@LoadInt_e:
  00139	88 4d f1	 mov	 BYTE PTR __k$[ebp+9], cl
  0013c	eb 33		 jmp	 SHORT $LN1@LoadInt_e
$LN88@LoadInt_e:
  0013e	c6 45 f0 ed	 mov	 BYTE PTR __k$[ebp+8], -19 ; ffffffedH
  00142	eb 2d		 jmp	 SHORT $LN1@LoadInt_e
$LN89@LoadInt_e:
  00144	c6 45 ef ea	 mov	 BYTE PTR __k$[ebp+7], -22 ; ffffffeaH
  00148	eb 27		 jmp	 SHORT $LN1@LoadInt_e
$LN90@LoadInt_e:
  0014a	c6 45 ee eb	 mov	 BYTE PTR __k$[ebp+6], -21 ; ffffffebH
  0014e	eb 21		 jmp	 SHORT $LN1@LoadInt_e
$LN91@LoadInt_e:
  00150	88 4d ed	 mov	 BYTE PTR __k$[ebp+5], cl
  00153	eb 1c		 jmp	 SHORT $LN1@LoadInt_e
$LN92@LoadInt_e:
  00155	c6 45 ec ed	 mov	 BYTE PTR __k$[ebp+4], -19 ; ffffffedH
  00159	eb 16		 jmp	 SHORT $LN1@LoadInt_e
$LN93@LoadInt_e:
  0015b	c6 45 eb ea	 mov	 BYTE PTR __k$[ebp+3], -22 ; ffffffeaH
  0015f	eb 10		 jmp	 SHORT $LN1@LoadInt_e
$LN94@LoadInt_e:
  00161	c6 45 ea eb	 mov	 BYTE PTR __k$[ebp+2], -21 ; ffffffebH
  00165	eb 0a		 jmp	 SHORT $LN1@LoadInt_e
$LN95@LoadInt_e:
  00167	c6 45 e9 ec	 mov	 BYTE PTR __k$[ebp+1], -20 ; ffffffecH
  0016b	eb 04		 jmp	 SHORT $LN1@LoadInt_e
$LN96@LoadInt_e:
  0016d	c6 45 e8 ed	 mov	 BYTE PTR __k$[ebp], -19	; ffffffedH
$LN1@LoadInt_e:
  00171	6a 03		 push	 3
  00173	8d 45 e8	 lea	 eax, DWORD PTR __k$[ebp]
  00176	c6 45 f4 00	 mov	 BYTE PTR __k$[ebp+12], 0
  0017a	5a		 pop	 edx
$LL104@LoadInt_e:
  0017b	81 30 ed ec eb
	ea		 xor	 DWORD PTR [eax], -353637139 ; eaebecedH
  00181	83 c0 04	 add	 eax, 4
  00184	4a		 dec	 edx
  00185	75 f4		 jne	 SHORT $LL104@LoadInt_e

; 120  : 		return LoadInt(_k, i);

  00187	ff 75 0c	 push	 DWORD PTR _i$[ebp]
  0018a	8d 45 e8	 lea	 eax, DWORD PTR __k$[ebp]
  0018d	50		 push	 eax
  0018e	8b ce		 mov	 ecx, esi
  00190	ff 15 00 00 00
	00		 call	 DWORD PTR __imp_?LoadInt@ioINILoader@@QAEHPBDH@Z

; 121  : 	}

  00196	8b 4d fc	 mov	 ecx, DWORD PTR __$ArrayPad$[ebp]
  00199	33 cd		 xor	 ecx, ebp
  0019b	5e		 pop	 esi
  0019c	e8 00 00 00 00	 call	 @__security_check_cookie@4
  001a1	c9		 leave
  001a2	c2 08 00	 ret	 8
??$LoadInt_e@$0N@@ioINILoader@@QAEHAAY0N@$$CBDH@Z ENDP	; ioINILoader::LoadInt_e<13>
_TEXT	ENDS
PUBLIC	__$ArrayPad$
PUBLIC	??$LoadBool_e@$0BA@@ioINILoader@@QAE_NAAY0BA@$$CBD_N@Z ; ioINILoader::LoadBool_e<16>
EXTRN	__imp_?LoadBool@ioINILoader@@QAE_NPBD_N@Z:PROC
; Function compile flags: /Ogsp
;	COMDAT ??$LoadBool_e@$0BA@@ioINILoader@@QAE_NAAY0BA@$$CBD_N@Z
_TEXT	SEGMENT
__k$ = -24						; size = 16
__$ArrayPad$ = -4					; size = 4
_k$ = 8							; size = 4
_b$ = 12						; size = 1
??$LoadBool_e@$0BA@@ioINILoader@@QAE_NAAY0BA@$$CBD_N@Z PROC ; ioINILoader::LoadBool_e<16>, COMDAT
; _this$ = ecx

; 101  : 	{

  00000	55		 push	 ebp
  00001	8b ec		 mov	 ebp, esp
  00003	83 ec 18	 sub	 esp, 24			; 00000018H
  00006	a1 00 00 00 00	 mov	 eax, DWORD PTR ___security_cookie
  0000b	33 c5		 xor	 eax, ebp
  0000d	89 45 fc	 mov	 DWORD PTR __$ArrayPad$[ebp], eax
  00010	8b 45 08	 mov	 eax, DWORD PTR _k$[ebp]

; 102  : 		_ENCSTR(k, _k);

  00013	8a 10		 mov	 dl, BYTE PTR [eax]
  00015	56		 push	 esi
  00016	8b f1		 mov	 esi, ecx
  00018	84 d2		 test	 dl, dl
  0001a	0f 84 8c 01 00
	00		 je	 $LN96@LoadBool_e
  00020	80 f2 ed	 xor	 dl, -19			; ffffffedH
  00023	88 55 e8	 mov	 BYTE PTR __k$[ebp], dl
  00026	8a 50 01	 mov	 dl, BYTE PTR [eax+1]
  00029	84 d2		 test	 dl, dl
  0002b	0f 84 75 01 00
	00		 je	 $LN95@LoadBool_e
  00031	80 f2 ec	 xor	 dl, -20			; ffffffecH
  00034	88 55 e9	 mov	 BYTE PTR __k$[ebp+1], dl
  00037	8a 50 02	 mov	 dl, BYTE PTR [eax+2]
  0003a	84 d2		 test	 dl, dl
  0003c	0f 84 5e 01 00
	00		 je	 $LN94@LoadBool_e
  00042	b1 eb		 mov	 cl, -21			; ffffffebH
  00044	32 d1		 xor	 dl, cl
  00046	88 55 ea	 mov	 BYTE PTR __k$[ebp+2], dl
  00049	8a 50 03	 mov	 dl, BYTE PTR [eax+3]
  0004c	84 d2		 test	 dl, dl
  0004e	0f 84 46 01 00
	00		 je	 $LN93@LoadBool_e
  00054	80 f2 ea	 xor	 dl, -22			; ffffffeaH
  00057	88 55 eb	 mov	 BYTE PTR __k$[ebp+3], dl
  0005a	8a 50 04	 mov	 dl, BYTE PTR [eax+4]
  0005d	84 d2		 test	 dl, dl
  0005f	0f 84 2f 01 00
	00		 je	 $LN92@LoadBool_e
  00065	80 f2 ed	 xor	 dl, -19			; ffffffedH
  00068	88 55 ec	 mov	 BYTE PTR __k$[ebp+4], dl
  0006b	8a 50 05	 mov	 dl, BYTE PTR [eax+5]
  0006e	84 d2		 test	 dl, dl
  00070	0f 84 18 01 00
	00		 je	 $LN91@LoadBool_e
  00076	80 f2 ec	 xor	 dl, -20			; ffffffecH
  00079	88 55 ed	 mov	 BYTE PTR __k$[ebp+5], dl
  0007c	8a 50 06	 mov	 dl, BYTE PTR [eax+6]
  0007f	84 d2		 test	 dl, dl
  00081	0f 84 02 01 00
	00		 je	 $LN90@LoadBool_e
  00087	32 d1		 xor	 dl, cl
  00089	88 55 ee	 mov	 BYTE PTR __k$[ebp+6], dl
  0008c	8a 50 07	 mov	 dl, BYTE PTR [eax+7]
  0008f	84 d2		 test	 dl, dl
  00091	0f 84 ec 00 00
	00		 je	 $LN89@LoadBool_e
  00097	80 f2 ea	 xor	 dl, -22			; ffffffeaH
  0009a	88 55 ef	 mov	 BYTE PTR __k$[ebp+7], dl
  0009d	8a 50 08	 mov	 dl, BYTE PTR [eax+8]
  000a0	84 d2		 test	 dl, dl
  000a2	0f 84 d5 00 00
	00		 je	 $LN88@LoadBool_e
  000a8	80 f2 ed	 xor	 dl, -19			; ffffffedH
  000ab	88 55 f0	 mov	 BYTE PTR __k$[ebp+8], dl
  000ae	8a 50 09	 mov	 dl, BYTE PTR [eax+9]
  000b1	84 d2		 test	 dl, dl
  000b3	0f 84 be 00 00
	00		 je	 $LN87@LoadBool_e
  000b9	80 f2 ec	 xor	 dl, -20			; ffffffecH
  000bc	88 55 f1	 mov	 BYTE PTR __k$[ebp+9], dl
  000bf	8a 50 0a	 mov	 dl, BYTE PTR [eax+10]
  000c2	84 d2		 test	 dl, dl
  000c4	0f 84 a8 00 00
	00		 je	 $LN86@LoadBool_e
  000ca	32 d1		 xor	 dl, cl
  000cc	88 55 f2	 mov	 BYTE PTR __k$[ebp+10], dl
  000cf	8a 50 0b	 mov	 dl, BYTE PTR [eax+11]
  000d2	84 d2		 test	 dl, dl
  000d4	0f 84 92 00 00
	00		 je	 $LN85@LoadBool_e
  000da	80 f2 ea	 xor	 dl, -22			; ffffffeaH
  000dd	88 55 f3	 mov	 BYTE PTR __k$[ebp+11], dl
  000e0	8a 50 0c	 mov	 dl, BYTE PTR [eax+12]
  000e3	84 d2		 test	 dl, dl
  000e5	74 7f		 je	 SHORT $LN84@LoadBool_e
  000e7	80 f2 ed	 xor	 dl, -19			; ffffffedH
  000ea	88 55 f4	 mov	 BYTE PTR __k$[ebp+12], dl
  000ed	8a 50 0d	 mov	 dl, BYTE PTR [eax+13]
  000f0	84 d2		 test	 dl, dl
  000f2	74 6c		 je	 SHORT $LN83@LoadBool_e
  000f4	80 f2 ec	 xor	 dl, -20			; ffffffecH
  000f7	88 55 f5	 mov	 BYTE PTR __k$[ebp+13], dl
  000fa	8a 50 0e	 mov	 dl, BYTE PTR [eax+14]
  000fd	84 d2		 test	 dl, dl
  000ff	74 5a		 je	 SHORT $LN82@LoadBool_e
  00101	32 d1		 xor	 dl, cl
  00103	80 78 0f 00	 cmp	 BYTE PTR [eax+15], 0
  00107	88 55 f6	 mov	 BYTE PTR __k$[ebp+14], dl
  0010a	0f 84 a0 00 00
	00		 je	 $LN1@LoadBool_e
  00110	8a 50 10	 mov	 dl, BYTE PTR [eax+16]
  00113	84 d2		 test	 dl, dl
  00115	74 3e		 je	 SHORT $LN80@LoadBool_e
  00117	80 f2 ed	 xor	 dl, -19			; ffffffedH
  0011a	88 55 f8	 mov	 BYTE PTR __k$[ebp+16], dl
  0011d	8a 50 11	 mov	 dl, BYTE PTR [eax+17]
  00120	84 d2		 test	 dl, dl
  00122	74 2b		 je	 SHORT $LN79@LoadBool_e
  00124	80 f2 ec	 xor	 dl, -20			; ffffffecH
  00127	88 55 f9	 mov	 BYTE PTR __k$[ebp+17], dl
  0012a	8a 50 12	 mov	 dl, BYTE PTR [eax+18]
  0012d	84 d2		 test	 dl, dl
  0012f	74 19		 je	 SHORT $LN78@LoadBool_e
  00131	8a 40 13	 mov	 al, BYTE PTR [eax+19]
  00134	32 d1		 xor	 dl, cl
  00136	88 55 fa	 mov	 BYTE PTR __k$[ebp+18], dl
  00139	84 c0		 test	 al, al
  0013b	74 07		 je	 SHORT $LN77@LoadBool_e
  0013d	34 ea		 xor	 al, -22			; ffffffeaH
  0013f	88 45 fb	 mov	 BYTE PTR __k$[ebp+19], al
  00142	eb 6c		 jmp	 SHORT $LN1@LoadBool_e
$LN77@LoadBool_e:
  00144	c6 45 fb ea	 mov	 BYTE PTR __k$[ebp+19], -22 ; ffffffeaH
  00148	eb 66		 jmp	 SHORT $LN1@LoadBool_e
$LN78@LoadBool_e:
  0014a	88 4d fa	 mov	 BYTE PTR __k$[ebp+18], cl
  0014d	eb 61		 jmp	 SHORT $LN1@LoadBool_e
$LN79@LoadBool_e:
  0014f	c6 45 f9 ec	 mov	 BYTE PTR __k$[ebp+17], -20 ; ffffffecH
  00153	eb 5b		 jmp	 SHORT $LN1@LoadBool_e
$LN80@LoadBool_e:
  00155	c6 45 f8 ed	 mov	 BYTE PTR __k$[ebp+16], -19 ; ffffffedH
  00159	eb 55		 jmp	 SHORT $LN1@LoadBool_e
$LN82@LoadBool_e:
  0015b	88 4d f6	 mov	 BYTE PTR __k$[ebp+14], cl
  0015e	eb 50		 jmp	 SHORT $LN1@LoadBool_e
$LN83@LoadBool_e:
  00160	c6 45 f5 ec	 mov	 BYTE PTR __k$[ebp+13], -20 ; ffffffecH
  00164	eb 4a		 jmp	 SHORT $LN1@LoadBool_e
$LN84@LoadBool_e:
  00166	c6 45 f4 ed	 mov	 BYTE PTR __k$[ebp+12], -19 ; ffffffedH
  0016a	eb 44		 jmp	 SHORT $LN1@LoadBool_e
$LN85@LoadBool_e:
  0016c	c6 45 f3 ea	 mov	 BYTE PTR __k$[ebp+11], -22 ; ffffffeaH
  00170	eb 3e		 jmp	 SHORT $LN1@LoadBool_e
$LN86@LoadBool_e:
  00172	88 4d f2	 mov	 BYTE PTR __k$[ebp+10], cl
  00175	eb 39		 jmp	 SHORT $LN1@LoadBool_e
$LN87@LoadBool_e:
  00177	c6 45 f1 ec	 mov	 BYTE PTR __k$[ebp+9], -20 ; ffffffecH
  0017b	eb 33		 jmp	 SHORT $LN1@LoadBool_e
$LN88@LoadBool_e:
  0017d	c6 45 f0 ed	 mov	 BYTE PTR __k$[ebp+8], -19 ; ffffffedH
  00181	eb 2d		 jmp	 SHORT $LN1@LoadBool_e
$LN89@LoadBool_e:
  00183	c6 45 ef ea	 mov	 BYTE PTR __k$[ebp+7], -22 ; ffffffeaH
  00187	eb 27		 jmp	 SHORT $LN1@LoadBool_e
$LN90@LoadBool_e:
  00189	88 4d ee	 mov	 BYTE PTR __k$[ebp+6], cl
  0018c	eb 22		 jmp	 SHORT $LN1@LoadBool_e
$LN91@LoadBool_e:
  0018e	c6 45 ed ec	 mov	 BYTE PTR __k$[ebp+5], -20 ; ffffffecH
  00192	eb 1c		 jmp	 SHORT $LN1@LoadBool_e
$LN92@LoadBool_e:
  00194	c6 45 ec ed	 mov	 BYTE PTR __k$[ebp+4], -19 ; ffffffedH
  00198	eb 16		 jmp	 SHORT $LN1@LoadBool_e
$LN93@LoadBool_e:
  0019a	c6 45 eb ea	 mov	 BYTE PTR __k$[ebp+3], -22 ; ffffffeaH
  0019e	eb 10		 jmp	 SHORT $LN1@LoadBool_e
$LN94@LoadBool_e:
  001a0	c6 45 ea eb	 mov	 BYTE PTR __k$[ebp+2], -21 ; ffffffebH
  001a4	eb 0a		 jmp	 SHORT $LN1@LoadBool_e
$LN95@LoadBool_e:
  001a6	c6 45 e9 ec	 mov	 BYTE PTR __k$[ebp+1], -20 ; ffffffecH
  001aa	eb 04		 jmp	 SHORT $LN1@LoadBool_e
$LN96@LoadBool_e:
  001ac	c6 45 e8 ed	 mov	 BYTE PTR __k$[ebp], -19	; ffffffedH
$LN1@LoadBool_e:
  001b0	6a 03		 push	 3
  001b2	8d 45 e8	 lea	 eax, DWORD PTR __k$[ebp]
  001b5	c6 45 f7 00	 mov	 BYTE PTR __k$[ebp+15], 0
  001b9	5a		 pop	 edx
$LL104@LoadBool_e:
  001ba	81 30 ed ec eb
	ea		 xor	 DWORD PTR [eax], -353637139 ; eaebecedH
  001c0	83 c0 04	 add	 eax, 4
  001c3	4a		 dec	 edx
  001c4	75 f4		 jne	 SHORT $LL104@LoadBool_e
  001c6	6a 0c		 push	 12			; 0000000cH
  001c8	58		 pop	 eax
$LL101@LoadBool_e:
  001c9	8b c8		 mov	 ecx, eax
  001cb	81 e1 03 00 00
	80		 and	 ecx, -2147483645	; 80000003H
  001d1	79 05		 jns	 SHORT $LN111@LoadBool_e
  001d3	49		 dec	 ecx
  001d4	83 c9 fc	 or	 ecx, -4			; fffffffcH
  001d7	41		 inc	 ecx
$LN111@LoadBool_e:
  001d8	b2 ed		 mov	 dl, -19			; ffffffedH
  001da	2a d1		 sub	 dl, cl
  001dc	30 54 05 e8	 xor	 BYTE PTR __k$[ebp+eax], dl
  001e0	40		 inc	 eax
  001e1	83 f8 0f	 cmp	 eax, 15			; 0000000fH
  001e4	7c e3		 jl	 SHORT $LL101@LoadBool_e

; 103  : 		return LoadBool(_k, b);

  001e6	ff 75 0c	 push	 DWORD PTR _b$[ebp]
  001e9	8d 45 e8	 lea	 eax, DWORD PTR __k$[ebp]
  001ec	50		 push	 eax
  001ed	8b ce		 mov	 ecx, esi
  001ef	ff 15 00 00 00
	00		 call	 DWORD PTR __imp_?LoadBool@ioINILoader@@QAE_NPBD_N@Z

; 104  : 	}

  001f5	8b 4d fc	 mov	 ecx, DWORD PTR __$ArrayPad$[ebp]
  001f8	33 cd		 xor	 ecx, ebp
  001fa	5e		 pop	 esi
  001fb	e8 00 00 00 00	 call	 @__security_check_cookie@4
  00200	c9		 leave
  00201	c2 08 00	 ret	 8
??$LoadBool_e@$0BA@@ioINILoader@@QAE_NAAY0BA@$$CBD_N@Z ENDP ; ioINILoader::LoadBool_e<16>
_TEXT	ENDS
PUBLIC	__$ArrayPad$
PUBLIC	??$LoadBool_e@$0O@@ioINILoader@@QAE_NAAY0O@$$CBD_N@Z ; ioINILoader::LoadBool_e<14>
; Function compile flags: /Ogsp
;	COMDAT ??$LoadBool_e@$0O@@ioINILoader@@QAE_NAAY0O@$$CBD_N@Z
_TEXT	SEGMENT
__k$ = -24						; size = 14
__$ArrayPad$ = -4					; size = 4
_k$ = 8							; size = 4
_b$ = 12						; size = 1
??$LoadBool_e@$0O@@ioINILoader@@QAE_NAAY0O@$$CBD_N@Z PROC ; ioINILoader::LoadBool_e<14>, COMDAT
; _this$ = ecx

; 101  : 	{

  00000	55		 push	 ebp
  00001	8b ec		 mov	 ebp, esp
  00003	83 ec 18	 sub	 esp, 24			; 00000018H
  00006	a1 00 00 00 00	 mov	 eax, DWORD PTR ___security_cookie
  0000b	33 c5		 xor	 eax, ebp
  0000d	89 45 fc	 mov	 DWORD PTR __$ArrayPad$[ebp], eax
  00010	8b 45 08	 mov	 eax, DWORD PTR _k$[ebp]

; 102  : 		_ENCSTR(k, _k);

  00013	8a 10		 mov	 dl, BYTE PTR [eax]
  00015	56		 push	 esi
  00016	8b f1		 mov	 esi, ecx
  00018	84 d2		 test	 dl, dl
  0001a	0f 84 64 01 00
	00		 je	 $LN96@LoadBool_e@2
  00020	80 f2 ed	 xor	 dl, -19			; ffffffedH
  00023	88 55 e8	 mov	 BYTE PTR __k$[ebp], dl
  00026	8a 50 01	 mov	 dl, BYTE PTR [eax+1]
  00029	84 d2		 test	 dl, dl
  0002b	0f 84 4d 01 00
	00		 je	 $LN95@LoadBool_e@2
  00031	80 f2 ec	 xor	 dl, -20			; ffffffecH
  00034	88 55 e9	 mov	 BYTE PTR __k$[ebp+1], dl
  00037	8a 50 02	 mov	 dl, BYTE PTR [eax+2]
  0003a	84 d2		 test	 dl, dl
  0003c	0f 84 36 01 00
	00		 je	 $LN94@LoadBool_e@2
  00042	b1 eb		 mov	 cl, -21			; ffffffebH
  00044	32 d1		 xor	 dl, cl
  00046	88 55 ea	 mov	 BYTE PTR __k$[ebp+2], dl
  00049	8a 50 03	 mov	 dl, BYTE PTR [eax+3]
  0004c	84 d2		 test	 dl, dl
  0004e	0f 84 1e 01 00
	00		 je	 $LN93@LoadBool_e@2
  00054	80 f2 ea	 xor	 dl, -22			; ffffffeaH
  00057	88 55 eb	 mov	 BYTE PTR __k$[ebp+3], dl
  0005a	8a 50 04	 mov	 dl, BYTE PTR [eax+4]
  0005d	84 d2		 test	 dl, dl
  0005f	0f 84 07 01 00
	00		 je	 $LN92@LoadBool_e@2
  00065	80 f2 ed	 xor	 dl, -19			; ffffffedH
  00068	88 55 ec	 mov	 BYTE PTR __k$[ebp+4], dl
  0006b	8a 50 05	 mov	 dl, BYTE PTR [eax+5]
  0006e	84 d2		 test	 dl, dl
  00070	0f 84 f0 00 00
	00		 je	 $LN91@LoadBool_e@2
  00076	80 f2 ec	 xor	 dl, -20			; ffffffecH
  00079	88 55 ed	 mov	 BYTE PTR __k$[ebp+5], dl
  0007c	8a 50 06	 mov	 dl, BYTE PTR [eax+6]
  0007f	84 d2		 test	 dl, dl
  00081	0f 84 da 00 00
	00		 je	 $LN90@LoadBool_e@2
  00087	32 d1		 xor	 dl, cl
  00089	88 55 ee	 mov	 BYTE PTR __k$[ebp+6], dl
  0008c	8a 50 07	 mov	 dl, BYTE PTR [eax+7]
  0008f	84 d2		 test	 dl, dl
  00091	0f 84 c4 00 00
	00		 je	 $LN89@LoadBool_e@2
  00097	80 f2 ea	 xor	 dl, -22			; ffffffeaH
  0009a	88 55 ef	 mov	 BYTE PTR __k$[ebp+7], dl
  0009d	8a 50 08	 mov	 dl, BYTE PTR [eax+8]
  000a0	84 d2		 test	 dl, dl
  000a2	0f 84 ad 00 00
	00		 je	 $LN88@LoadBool_e@2
  000a8	80 f2 ed	 xor	 dl, -19			; ffffffedH
  000ab	88 55 f0	 mov	 BYTE PTR __k$[ebp+8], dl
  000ae	8a 50 09	 mov	 dl, BYTE PTR [eax+9]
  000b1	84 d2		 test	 dl, dl
  000b3	0f 84 96 00 00
	00		 je	 $LN87@LoadBool_e@2
  000b9	80 f2 ec	 xor	 dl, -20			; ffffffecH
  000bc	88 55 f1	 mov	 BYTE PTR __k$[ebp+9], dl
  000bf	8a 50 0a	 mov	 dl, BYTE PTR [eax+10]
  000c2	84 d2		 test	 dl, dl
  000c4	0f 84 80 00 00
	00		 je	 $LN86@LoadBool_e@2
  000ca	32 d1		 xor	 dl, cl
  000cc	88 55 f2	 mov	 BYTE PTR __k$[ebp+10], dl
  000cf	8a 50 0b	 mov	 dl, BYTE PTR [eax+11]
  000d2	84 d2		 test	 dl, dl
  000d4	74 6e		 je	 SHORT $LN85@LoadBool_e@2
  000d6	80 f2 ea	 xor	 dl, -22			; ffffffeaH
  000d9	88 55 f3	 mov	 BYTE PTR __k$[ebp+11], dl
  000dc	8a 50 0c	 mov	 dl, BYTE PTR [eax+12]
  000df	84 d2		 test	 dl, dl
  000e1	74 5b		 je	 SHORT $LN84@LoadBool_e@2
  000e3	80 f2 ed	 xor	 dl, -19			; ffffffedH
  000e6	80 78 0d 00	 cmp	 BYTE PTR [eax+13], 0
  000ea	88 55 f4	 mov	 BYTE PTR __k$[ebp+12], dl
  000ed	0f 84 95 00 00
	00		 je	 $LN1@LoadBool_e@2
  000f3	8a 50 0e	 mov	 dl, BYTE PTR [eax+14]
  000f6	84 d2		 test	 dl, dl
  000f8	74 3f		 je	 SHORT $LN82@LoadBool_e@2
  000fa	32 d1		 xor	 dl, cl
  000fc	88 55 f6	 mov	 BYTE PTR __k$[ebp+14], dl
  000ff	8a 50 0f	 mov	 dl, BYTE PTR [eax+15]
  00102	84 d2		 test	 dl, dl
  00104	74 2d		 je	 SHORT $LN81@LoadBool_e@2
  00106	80 f2 ea	 xor	 dl, -22			; ffffffeaH
  00109	88 55 f7	 mov	 BYTE PTR __k$[ebp+15], dl
  0010c	8a 50 10	 mov	 dl, BYTE PTR [eax+16]
  0010f	84 d2		 test	 dl, dl
  00111	74 1a		 je	 SHORT $LN80@LoadBool_e@2
  00113	8a 40 11	 mov	 al, BYTE PTR [eax+17]
  00116	80 f2 ed	 xor	 dl, -19			; ffffffedH
  00119	88 55 f8	 mov	 BYTE PTR __k$[ebp+16], dl
  0011c	84 c0		 test	 al, al
  0011e	74 07		 je	 SHORT $LN79@LoadBool_e@2
  00120	34 ec		 xor	 al, -20			; ffffffecH
  00122	88 45 f9	 mov	 BYTE PTR __k$[ebp+17], al
  00125	eb 61		 jmp	 SHORT $LN1@LoadBool_e@2
$LN79@LoadBool_e@2:
  00127	c6 45 f9 ec	 mov	 BYTE PTR __k$[ebp+17], -20 ; ffffffecH
  0012b	eb 5b		 jmp	 SHORT $LN1@LoadBool_e@2
$LN80@LoadBool_e@2:
  0012d	c6 45 f8 ed	 mov	 BYTE PTR __k$[ebp+16], -19 ; ffffffedH
  00131	eb 55		 jmp	 SHORT $LN1@LoadBool_e@2
$LN81@LoadBool_e@2:
  00133	c6 45 f7 ea	 mov	 BYTE PTR __k$[ebp+15], -22 ; ffffffeaH
  00137	eb 4f		 jmp	 SHORT $LN1@LoadBool_e@2
$LN82@LoadBool_e@2:
  00139	88 4d f6	 mov	 BYTE PTR __k$[ebp+14], cl
  0013c	eb 4a		 jmp	 SHORT $LN1@LoadBool_e@2
$LN84@LoadBool_e@2:
  0013e	c6 45 f4 ed	 mov	 BYTE PTR __k$[ebp+12], -19 ; ffffffedH
  00142	eb 44		 jmp	 SHORT $LN1@LoadBool_e@2
$LN85@LoadBool_e@2:
  00144	c6 45 f3 ea	 mov	 BYTE PTR __k$[ebp+11], -22 ; ffffffeaH
  00148	eb 3e		 jmp	 SHORT $LN1@LoadBool_e@2
$LN86@LoadBool_e@2:
  0014a	88 4d f2	 mov	 BYTE PTR __k$[ebp+10], cl
  0014d	eb 39		 jmp	 SHORT $LN1@LoadBool_e@2
$LN87@LoadBool_e@2:
  0014f	c6 45 f1 ec	 mov	 BYTE PTR __k$[ebp+9], -20 ; ffffffecH
  00153	eb 33		 jmp	 SHORT $LN1@LoadBool_e@2
$LN88@LoadBool_e@2:
  00155	c6 45 f0 ed	 mov	 BYTE PTR __k$[ebp+8], -19 ; ffffffedH
  00159	eb 2d		 jmp	 SHORT $LN1@LoadBool_e@2
$LN89@LoadBool_e@2:
  0015b	c6 45 ef ea	 mov	 BYTE PTR __k$[ebp+7], -22 ; ffffffeaH
  0015f	eb 27		 jmp	 SHORT $LN1@LoadBool_e@2
$LN90@LoadBool_e@2:
  00161	88 4d ee	 mov	 BYTE PTR __k$[ebp+6], cl
  00164	eb 22		 jmp	 SHORT $LN1@LoadBool_e@2
$LN91@LoadBool_e@2:
  00166	c6 45 ed ec	 mov	 BYTE PTR __k$[ebp+5], -20 ; ffffffecH
  0016a	eb 1c		 jmp	 SHORT $LN1@LoadBool_e@2
$LN92@LoadBool_e@2:
  0016c	c6 45 ec ed	 mov	 BYTE PTR __k$[ebp+4], -19 ; ffffffedH
  00170	eb 16		 jmp	 SHORT $LN1@LoadBool_e@2
$LN93@LoadBool_e@2:
  00172	c6 45 eb ea	 mov	 BYTE PTR __k$[ebp+3], -22 ; ffffffeaH
  00176	eb 10		 jmp	 SHORT $LN1@LoadBool_e@2
$LN94@LoadBool_e@2:
  00178	c6 45 ea eb	 mov	 BYTE PTR __k$[ebp+2], -21 ; ffffffebH
  0017c	eb 0a		 jmp	 SHORT $LN1@LoadBool_e@2
$LN95@LoadBool_e@2:
  0017e	c6 45 e9 ec	 mov	 BYTE PTR __k$[ebp+1], -20 ; ffffffecH
  00182	eb 04		 jmp	 SHORT $LN1@LoadBool_e@2
$LN96@LoadBool_e@2:
  00184	c6 45 e8 ed	 mov	 BYTE PTR __k$[ebp], -19	; ffffffedH
$LN1@LoadBool_e@2:
  00188	6a 03		 push	 3
  0018a	8d 45 e8	 lea	 eax, DWORD PTR __k$[ebp]
  0018d	c6 45 f5 00	 mov	 BYTE PTR __k$[ebp+13], 0
  00191	5a		 pop	 edx
$LL104@LoadBool_e@2:
  00192	81 30 ed ec eb
	ea		 xor	 DWORD PTR [eax], -353637139 ; eaebecedH
  00198	83 c0 04	 add	 eax, 4
  0019b	4a		 dec	 edx
  0019c	75 f4		 jne	 SHORT $LL104@LoadBool_e@2

; 103  : 		return LoadBool(_k, b);

  0019e	ff 75 0c	 push	 DWORD PTR _b$[ebp]
  001a1	80 75 f4 ed	 xor	 BYTE PTR __k$[ebp+12], -19 ; ffffffedH
  001a5	8d 45 e8	 lea	 eax, DWORD PTR __k$[ebp]
  001a8	50		 push	 eax
  001a9	8b ce		 mov	 ecx, esi
  001ab	ff 15 00 00 00
	00		 call	 DWORD PTR __imp_?LoadBool@ioINILoader@@QAE_NPBD_N@Z

; 104  : 	}

  001b1	8b 4d fc	 mov	 ecx, DWORD PTR __$ArrayPad$[ebp]
  001b4	33 cd		 xor	 ecx, ebp
  001b6	5e		 pop	 esi
  001b7	e8 00 00 00 00	 call	 @__security_check_cookie@4
  001bc	c9		 leave
  001bd	c2 08 00	 ret	 8
??$LoadBool_e@$0O@@ioINILoader@@QAE_NAAY0O@$$CBD_N@Z ENDP ; ioINILoader::LoadBool_e<14>
_TEXT	ENDS
PUBLIC	__$ArrayPad$
PUBLIC	??$LoadBool_e@$0P@@ioINILoader@@QAE_NAAY0P@$$CBD_N@Z ; ioINILoader::LoadBool_e<15>
; Function compile flags: /Ogsp
;	COMDAT ??$LoadBool_e@$0P@@ioINILoader@@QAE_NAAY0P@$$CBD_N@Z
_TEXT	SEGMENT
__k$ = -24						; size = 15
__$ArrayPad$ = -4					; size = 4
_k$ = 8							; size = 4
_b$ = 12						; size = 1
??$LoadBool_e@$0P@@ioINILoader@@QAE_NAAY0P@$$CBD_N@Z PROC ; ioINILoader::LoadBool_e<15>, COMDAT
; _this$ = ecx

; 101  : 	{

  00000	55		 push	 ebp
  00001	8b ec		 mov	 ebp, esp
  00003	83 ec 18	 sub	 esp, 24			; 00000018H
  00006	a1 00 00 00 00	 mov	 eax, DWORD PTR ___security_cookie
  0000b	33 c5		 xor	 eax, ebp
  0000d	89 45 fc	 mov	 DWORD PTR __$ArrayPad$[ebp], eax
  00010	8b 45 08	 mov	 eax, DWORD PTR _k$[ebp]

; 102  : 		_ENCSTR(k, _k);

  00013	8a 10		 mov	 dl, BYTE PTR [eax]
  00015	56		 push	 esi
  00016	8b f1		 mov	 esi, ecx
  00018	84 d2		 test	 dl, dl
  0001a	0f 84 75 01 00
	00		 je	 $LN96@LoadBool_e@3
  00020	80 f2 ed	 xor	 dl, -19			; ffffffedH
  00023	88 55 e8	 mov	 BYTE PTR __k$[ebp], dl
  00026	8a 50 01	 mov	 dl, BYTE PTR [eax+1]
  00029	84 d2		 test	 dl, dl
  0002b	0f 84 5e 01 00
	00		 je	 $LN95@LoadBool_e@3
  00031	b1 ec		 mov	 cl, -20			; ffffffecH
  00033	32 d1		 xor	 dl, cl
  00035	88 55 e9	 mov	 BYTE PTR __k$[ebp+1], dl
  00038	8a 50 02	 mov	 dl, BYTE PTR [eax+2]
  0003b	84 d2		 test	 dl, dl
  0003d	0f 84 46 01 00
	00		 je	 $LN94@LoadBool_e@3
  00043	80 f2 eb	 xor	 dl, -21			; ffffffebH
  00046	88 55 ea	 mov	 BYTE PTR __k$[ebp+2], dl
  00049	8a 50 03	 mov	 dl, BYTE PTR [eax+3]
  0004c	84 d2		 test	 dl, dl
  0004e	0f 84 2f 01 00
	00		 je	 $LN93@LoadBool_e@3
  00054	80 f2 ea	 xor	 dl, -22			; ffffffeaH
  00057	88 55 eb	 mov	 BYTE PTR __k$[ebp+3], dl
  0005a	8a 50 04	 mov	 dl, BYTE PTR [eax+4]
  0005d	84 d2		 test	 dl, dl
  0005f	0f 84 18 01 00
	00		 je	 $LN92@LoadBool_e@3
  00065	80 f2 ed	 xor	 dl, -19			; ffffffedH
  00068	88 55 ec	 mov	 BYTE PTR __k$[ebp+4], dl
  0006b	8a 50 05	 mov	 dl, BYTE PTR [eax+5]
  0006e	84 d2		 test	 dl, dl
  00070	0f 84 02 01 00
	00		 je	 $LN91@LoadBool_e@3
  00076	32 d1		 xor	 dl, cl
  00078	88 55 ed	 mov	 BYTE PTR __k$[ebp+5], dl
  0007b	8a 50 06	 mov	 dl, BYTE PTR [eax+6]
  0007e	84 d2		 test	 dl, dl
  00080	0f 84 ec 00 00
	00		 je	 $LN90@LoadBool_e@3
  00086	80 f2 eb	 xor	 dl, -21			; ffffffebH
  00089	88 55 ee	 mov	 BYTE PTR __k$[ebp+6], dl
  0008c	8a 50 07	 mov	 dl, BYTE PTR [eax+7]
  0008f	84 d2		 test	 dl, dl
  00091	0f 84 d5 00 00
	00		 je	 $LN89@LoadBool_e@3
  00097	80 f2 ea	 xor	 dl, -22			; ffffffeaH
  0009a	88 55 ef	 mov	 BYTE PTR __k$[ebp+7], dl
  0009d	8a 50 08	 mov	 dl, BYTE PTR [eax+8]
  000a0	84 d2		 test	 dl, dl
  000a2	0f 84 be 00 00
	00		 je	 $LN88@LoadBool_e@3
  000a8	80 f2 ed	 xor	 dl, -19			; ffffffedH
  000ab	88 55 f0	 mov	 BYTE PTR __k$[ebp+8], dl
  000ae	8a 50 09	 mov	 dl, BYTE PTR [eax+9]
  000b1	84 d2		 test	 dl, dl
  000b3	0f 84 a8 00 00
	00		 je	 $LN87@LoadBool_e@3
  000b9	32 d1		 xor	 dl, cl
  000bb	88 55 f1	 mov	 BYTE PTR __k$[ebp+9], dl
  000be	8a 50 0a	 mov	 dl, BYTE PTR [eax+10]
  000c1	84 d2		 test	 dl, dl
  000c3	0f 84 92 00 00
	00		 je	 $LN86@LoadBool_e@3
  000c9	80 f2 eb	 xor	 dl, -21			; ffffffebH
  000cc	88 55 f2	 mov	 BYTE PTR __k$[ebp+10], dl
  000cf	8a 50 0b	 mov	 dl, BYTE PTR [eax+11]
  000d2	84 d2		 test	 dl, dl
  000d4	74 7f		 je	 SHORT $LN85@LoadBool_e@3
  000d6	80 f2 ea	 xor	 dl, -22			; ffffffeaH
  000d9	88 55 f3	 mov	 BYTE PTR __k$[ebp+11], dl
  000dc	8a 50 0c	 mov	 dl, BYTE PTR [eax+12]
  000df	84 d2		 test	 dl, dl
  000e1	74 6c		 je	 SHORT $LN84@LoadBool_e@3
  000e3	80 f2 ed	 xor	 dl, -19			; ffffffedH
  000e6	88 55 f4	 mov	 BYTE PTR __k$[ebp+12], dl
  000e9	8a 50 0d	 mov	 dl, BYTE PTR [eax+13]
  000ec	84 d2		 test	 dl, dl
  000ee	74 5a		 je	 SHORT $LN83@LoadBool_e@3
  000f0	32 d1		 xor	 dl, cl
  000f2	80 78 0e 00	 cmp	 BYTE PTR [eax+14], 0
  000f6	88 55 f5	 mov	 BYTE PTR __k$[ebp+13], dl
  000f9	0f 84 9a 00 00
	00		 je	 $LN1@LoadBool_e@3
  000ff	8a 50 0f	 mov	 dl, BYTE PTR [eax+15]
  00102	84 d2		 test	 dl, dl
  00104	74 3e		 je	 SHORT $LN81@LoadBool_e@3
  00106	80 f2 ea	 xor	 dl, -22			; ffffffeaH
  00109	88 55 f7	 mov	 BYTE PTR __k$[ebp+15], dl
  0010c	8a 50 10	 mov	 dl, BYTE PTR [eax+16]
  0010f	84 d2		 test	 dl, dl
  00111	74 2b		 je	 SHORT $LN80@LoadBool_e@3
  00113	80 f2 ed	 xor	 dl, -19			; ffffffedH
  00116	88 55 f8	 mov	 BYTE PTR __k$[ebp+16], dl
  00119	8a 50 11	 mov	 dl, BYTE PTR [eax+17]
  0011c	84 d2		 test	 dl, dl
  0011e	74 19		 je	 SHORT $LN79@LoadBool_e@3
  00120	8a 40 12	 mov	 al, BYTE PTR [eax+18]
  00123	32 d1		 xor	 dl, cl
  00125	88 55 f9	 mov	 BYTE PTR __k$[ebp+17], dl
  00128	84 c0		 test	 al, al
  0012a	74 07		 je	 SHORT $LN78@LoadBool_e@3
  0012c	34 eb		 xor	 al, -21			; ffffffebH
  0012e	88 45 fa	 mov	 BYTE PTR __k$[ebp+18], al
  00131	eb 66		 jmp	 SHORT $LN1@LoadBool_e@3
$LN78@LoadBool_e@3:
  00133	c6 45 fa eb	 mov	 BYTE PTR __k$[ebp+18], -21 ; ffffffebH
  00137	eb 60		 jmp	 SHORT $LN1@LoadBool_e@3
$LN79@LoadBool_e@3:
  00139	88 4d f9	 mov	 BYTE PTR __k$[ebp+17], cl
  0013c	eb 5b		 jmp	 SHORT $LN1@LoadBool_e@3
$LN80@LoadBool_e@3:
  0013e	c6 45 f8 ed	 mov	 BYTE PTR __k$[ebp+16], -19 ; ffffffedH
  00142	eb 55		 jmp	 SHORT $LN1@LoadBool_e@3
$LN81@LoadBool_e@3:
  00144	c6 45 f7 ea	 mov	 BYTE PTR __k$[ebp+15], -22 ; ffffffeaH
  00148	eb 4f		 jmp	 SHORT $LN1@LoadBool_e@3
$LN83@LoadBool_e@3:
  0014a	88 4d f5	 mov	 BYTE PTR __k$[ebp+13], cl
  0014d	eb 4a		 jmp	 SHORT $LN1@LoadBool_e@3
$LN84@LoadBool_e@3:
  0014f	c6 45 f4 ed	 mov	 BYTE PTR __k$[ebp+12], -19 ; ffffffedH
  00153	eb 44		 jmp	 SHORT $LN1@LoadBool_e@3
$LN85@LoadBool_e@3:
  00155	c6 45 f3 ea	 mov	 BYTE PTR __k$[ebp+11], -22 ; ffffffeaH
  00159	eb 3e		 jmp	 SHORT $LN1@LoadBool_e@3
$LN86@LoadBool_e@3:
  0015b	c6 45 f2 eb	 mov	 BYTE PTR __k$[ebp+10], -21 ; ffffffebH
  0015f	eb 38		 jmp	 SHORT $LN1@LoadBool_e@3
$LN87@LoadBool_e@3:
  00161	88 4d f1	 mov	 BYTE PTR __k$[ebp+9], cl
  00164	eb 33		 jmp	 SHORT $LN1@LoadBool_e@3
$LN88@LoadBool_e@3:
  00166	c6 45 f0 ed	 mov	 BYTE PTR __k$[ebp+8], -19 ; ffffffedH
  0016a	eb 2d		 jmp	 SHORT $LN1@LoadBool_e@3
$LN89@LoadBool_e@3:
  0016c	c6 45 ef ea	 mov	 BYTE PTR __k$[ebp+7], -22 ; ffffffeaH
  00170	eb 27		 jmp	 SHORT $LN1@LoadBool_e@3
$LN90@LoadBool_e@3:
  00172	c6 45 ee eb	 mov	 BYTE PTR __k$[ebp+6], -21 ; ffffffebH
  00176	eb 21		 jmp	 SHORT $LN1@LoadBool_e@3
$LN91@LoadBool_e@3:
  00178	88 4d ed	 mov	 BYTE PTR __k$[ebp+5], cl
  0017b	eb 1c		 jmp	 SHORT $LN1@LoadBool_e@3
$LN92@LoadBool_e@3:
  0017d	c6 45 ec ed	 mov	 BYTE PTR __k$[ebp+4], -19 ; ffffffedH
  00181	eb 16		 jmp	 SHORT $LN1@LoadBool_e@3
$LN93@LoadBool_e@3:
  00183	c6 45 eb ea	 mov	 BYTE PTR __k$[ebp+3], -22 ; ffffffeaH
  00187	eb 10		 jmp	 SHORT $LN1@LoadBool_e@3
$LN94@LoadBool_e@3:
  00189	c6 45 ea eb	 mov	 BYTE PTR __k$[ebp+2], -21 ; ffffffebH
  0018d	eb 0a		 jmp	 SHORT $LN1@LoadBool_e@3
$LN95@LoadBool_e@3:
  0018f	c6 45 e9 ec	 mov	 BYTE PTR __k$[ebp+1], -20 ; ffffffecH
  00193	eb 04		 jmp	 SHORT $LN1@LoadBool_e@3
$LN96@LoadBool_e@3:
  00195	c6 45 e8 ed	 mov	 BYTE PTR __k$[ebp], -19	; ffffffedH
$LN1@LoadBool_e@3:
  00199	6a 03		 push	 3
  0019b	8d 45 e8	 lea	 eax, DWORD PTR __k$[ebp]
  0019e	c6 45 f6 00	 mov	 BYTE PTR __k$[ebp+14], 0
  001a2	5a		 pop	 edx
$LL104@LoadBool_e@3:
  001a3	81 30 ed ec eb
	ea		 xor	 DWORD PTR [eax], -353637139 ; eaebecedH
  001a9	83 c0 04	 add	 eax, 4
  001ac	4a		 dec	 edx
  001ad	75 f4		 jne	 SHORT $LL104@LoadBool_e@3
  001af	6a 0c		 push	 12			; 0000000cH
  001b1	58		 pop	 eax
$LL101@LoadBool_e@3:
  001b2	8b c8		 mov	 ecx, eax
  001b4	81 e1 03 00 00
	80		 and	 ecx, -2147483645	; 80000003H
  001ba	79 05		 jns	 SHORT $LN111@LoadBool_e@3
  001bc	49		 dec	 ecx
  001bd	83 c9 fc	 or	 ecx, -4			; fffffffcH
  001c0	41		 inc	 ecx
$LN111@LoadBool_e@3:
  001c1	b2 ed		 mov	 dl, -19			; ffffffedH
  001c3	2a d1		 sub	 dl, cl
  001c5	30 54 05 e8	 xor	 BYTE PTR __k$[ebp+eax], dl
  001c9	40		 inc	 eax
  001ca	83 f8 0e	 cmp	 eax, 14			; 0000000eH
  001cd	7c e3		 jl	 SHORT $LL101@LoadBool_e@3

; 103  : 		return LoadBool(_k, b);

  001cf	ff 75 0c	 push	 DWORD PTR _b$[ebp]
  001d2	8d 45 e8	 lea	 eax, DWORD PTR __k$[ebp]
  001d5	50		 push	 eax
  001d6	8b ce		 mov	 ecx, esi
  001d8	ff 15 00 00 00
	00		 call	 DWORD PTR __imp_?LoadBool@ioINILoader@@QAE_NPBD_N@Z

; 104  : 	}

  001de	8b 4d fc	 mov	 ecx, DWORD PTR __$ArrayPad$[ebp]
  001e1	33 cd		 xor	 ecx, ebp
  001e3	5e		 pop	 esi
  001e4	e8 00 00 00 00	 call	 @__security_check_cookie@4
  001e9	c9		 leave
  001ea	c2 08 00	 ret	 8
??$LoadBool_e@$0P@@ioINILoader@@QAE_NAAY0P@$$CBD_N@Z ENDP ; ioINILoader::LoadBool_e<15>
_TEXT	ENDS
PUBLIC	__$ArrayPad$
PUBLIC	??$LoadBool_e@$0BB@@ioINILoader@@QAE_NAAY0BB@$$CBD_N@Z ; ioINILoader::LoadBool_e<17>
; Function compile flags: /Ogsp
;	COMDAT ??$LoadBool_e@$0BB@@ioINILoader@@QAE_NAAY0BB@$$CBD_N@Z
_TEXT	SEGMENT
__k$ = -28						; size = 17
__$ArrayPad$ = -4					; size = 4
_k$ = 8							; size = 4
_b$ = 12						; size = 1
??$LoadBool_e@$0BB@@ioINILoader@@QAE_NAAY0BB@$$CBD_N@Z PROC ; ioINILoader::LoadBool_e<17>, COMDAT
; _this$ = ecx

; 101  : 	{

  00000	55		 push	 ebp
  00001	8b ec		 mov	 ebp, esp
  00003	83 ec 1c	 sub	 esp, 28			; 0000001cH
  00006	a1 00 00 00 00	 mov	 eax, DWORD PTR ___security_cookie
  0000b	33 c5		 xor	 eax, ebp
  0000d	89 45 fc	 mov	 DWORD PTR __$ArrayPad$[ebp], eax
  00010	8b 45 08	 mov	 eax, DWORD PTR _k$[ebp]

; 102  : 		_ENCSTR(k, _k);

  00013	8a 10		 mov	 dl, BYTE PTR [eax]
  00015	56		 push	 esi
  00016	8b f1		 mov	 esi, ecx
  00018	84 d2		 test	 dl, dl
  0001a	0f 84 a7 01 00
	00		 je	 $LN96@LoadBool_e@4
  00020	80 f2 ed	 xor	 dl, -19			; ffffffedH
  00023	88 55 e4	 mov	 BYTE PTR __k$[ebp], dl
  00026	8a 50 01	 mov	 dl, BYTE PTR [eax+1]
  00029	84 d2		 test	 dl, dl
  0002b	0f 84 90 01 00
	00		 je	 $LN95@LoadBool_e@4
  00031	b1 ec		 mov	 cl, -20			; ffffffecH
  00033	32 d1		 xor	 dl, cl
  00035	88 55 e5	 mov	 BYTE PTR __k$[ebp+1], dl
  00038	8a 50 02	 mov	 dl, BYTE PTR [eax+2]
  0003b	84 d2		 test	 dl, dl
  0003d	0f 84 78 01 00
	00		 je	 $LN94@LoadBool_e@4
  00043	80 f2 eb	 xor	 dl, -21			; ffffffebH
  00046	88 55 e6	 mov	 BYTE PTR __k$[ebp+2], dl
  00049	8a 50 03	 mov	 dl, BYTE PTR [eax+3]
  0004c	84 d2		 test	 dl, dl
  0004e	0f 84 61 01 00
	00		 je	 $LN93@LoadBool_e@4
  00054	80 f2 ea	 xor	 dl, -22			; ffffffeaH
  00057	88 55 e7	 mov	 BYTE PTR __k$[ebp+3], dl
  0005a	8a 50 04	 mov	 dl, BYTE PTR [eax+4]
  0005d	84 d2		 test	 dl, dl
  0005f	0f 84 4a 01 00
	00		 je	 $LN92@LoadBool_e@4
  00065	80 f2 ed	 xor	 dl, -19			; ffffffedH
  00068	88 55 e8	 mov	 BYTE PTR __k$[ebp+4], dl
  0006b	8a 50 05	 mov	 dl, BYTE PTR [eax+5]
  0006e	84 d2		 test	 dl, dl
  00070	0f 84 34 01 00
	00		 je	 $LN91@LoadBool_e@4
  00076	32 d1		 xor	 dl, cl
  00078	88 55 e9	 mov	 BYTE PTR __k$[ebp+5], dl
  0007b	8a 50 06	 mov	 dl, BYTE PTR [eax+6]
  0007e	84 d2		 test	 dl, dl
  00080	0f 84 1e 01 00
	00		 je	 $LN90@LoadBool_e@4
  00086	80 f2 eb	 xor	 dl, -21			; ffffffebH
  00089	88 55 ea	 mov	 BYTE PTR __k$[ebp+6], dl
  0008c	8a 50 07	 mov	 dl, BYTE PTR [eax+7]
  0008f	84 d2		 test	 dl, dl
  00091	0f 84 07 01 00
	00		 je	 $LN89@LoadBool_e@4
  00097	80 f2 ea	 xor	 dl, -22			; ffffffeaH
  0009a	88 55 eb	 mov	 BYTE PTR __k$[ebp+7], dl
  0009d	8a 50 08	 mov	 dl, BYTE PTR [eax+8]
  000a0	84 d2		 test	 dl, dl
  000a2	0f 84 f0 00 00
	00		 je	 $LN88@LoadBool_e@4
  000a8	80 f2 ed	 xor	 dl, -19			; ffffffedH
  000ab	88 55 ec	 mov	 BYTE PTR __k$[ebp+8], dl
  000ae	8a 50 09	 mov	 dl, BYTE PTR [eax+9]
  000b1	84 d2		 test	 dl, dl
  000b3	0f 84 da 00 00
	00		 je	 $LN87@LoadBool_e@4
  000b9	32 d1		 xor	 dl, cl
  000bb	88 55 ed	 mov	 BYTE PTR __k$[ebp+9], dl
  000be	8a 50 0a	 mov	 dl, BYTE PTR [eax+10]
  000c1	84 d2		 test	 dl, dl
  000c3	0f 84 c4 00 00
	00		 je	 $LN86@LoadBool_e@4
  000c9	80 f2 eb	 xor	 dl, -21			; ffffffebH
  000cc	88 55 ee	 mov	 BYTE PTR __k$[ebp+10], dl
  000cf	8a 50 0b	 mov	 dl, BYTE PTR [eax+11]
  000d2	84 d2		 test	 dl, dl
  000d4	0f 84 ad 00 00
	00		 je	 $LN85@LoadBool_e@4
  000da	80 f2 ea	 xor	 dl, -22			; ffffffeaH
  000dd	88 55 ef	 mov	 BYTE PTR __k$[ebp+11], dl
  000e0	8a 50 0c	 mov	 dl, BYTE PTR [eax+12]
  000e3	84 d2		 test	 dl, dl
  000e5	0f 84 96 00 00
	00		 je	 $LN84@LoadBool_e@4
  000eb	80 f2 ed	 xor	 dl, -19			; ffffffedH
  000ee	88 55 f0	 mov	 BYTE PTR __k$[ebp+12], dl
  000f1	8a 50 0d	 mov	 dl, BYTE PTR [eax+13]
  000f4	84 d2		 test	 dl, dl
  000f6	0f 84 80 00 00
	00		 je	 $LN83@LoadBool_e@4
  000fc	32 d1		 xor	 dl, cl
  000fe	88 55 f1	 mov	 BYTE PTR __k$[ebp+13], dl
  00101	8a 50 0e	 mov	 dl, BYTE PTR [eax+14]
  00104	84 d2		 test	 dl, dl
  00106	74 6e		 je	 SHORT $LN82@LoadBool_e@4
  00108	80 f2 eb	 xor	 dl, -21			; ffffffebH
  0010b	88 55 f2	 mov	 BYTE PTR __k$[ebp+14], dl
  0010e	8a 50 0f	 mov	 dl, BYTE PTR [eax+15]
  00111	84 d2		 test	 dl, dl
  00113	74 5b		 je	 SHORT $LN81@LoadBool_e@4
  00115	80 f2 ea	 xor	 dl, -22			; ffffffeaH
  00118	80 78 10 00	 cmp	 BYTE PTR [eax+16], 0
  0011c	88 55 f3	 mov	 BYTE PTR __k$[ebp+15], dl
  0011f	0f 84 a6 00 00
	00		 je	 $LN1@LoadBool_e@4
  00125	8a 50 11	 mov	 dl, BYTE PTR [eax+17]
  00128	84 d2		 test	 dl, dl
  0012a	74 3f		 je	 SHORT $LN79@LoadBool_e@4
  0012c	32 d1		 xor	 dl, cl
  0012e	88 55 f5	 mov	 BYTE PTR __k$[ebp+17], dl
  00131	8a 50 12	 mov	 dl, BYTE PTR [eax+18]
  00134	84 d2		 test	 dl, dl
  00136	74 2d		 je	 SHORT $LN78@LoadBool_e@4
  00138	80 f2 eb	 xor	 dl, -21			; ffffffebH
  0013b	88 55 f6	 mov	 BYTE PTR __k$[ebp+18], dl
  0013e	8a 50 13	 mov	 dl, BYTE PTR [eax+19]
  00141	84 d2		 test	 dl, dl
  00143	74 1a		 je	 SHORT $LN77@LoadBool_e@4
  00145	8a 40 14	 mov	 al, BYTE PTR [eax+20]
  00148	80 f2 ea	 xor	 dl, -22			; ffffffeaH
  0014b	88 55 f7	 mov	 BYTE PTR __k$[ebp+19], dl
  0014e	84 c0		 test	 al, al
  00150	74 07		 je	 SHORT $LN76@LoadBool_e@4
  00152	34 ed		 xor	 al, -19			; ffffffedH
  00154	88 45 f8	 mov	 BYTE PTR __k$[ebp+20], al
  00157	eb 72		 jmp	 SHORT $LN1@LoadBool_e@4
$LN76@LoadBool_e@4:
  00159	c6 45 f8 ed	 mov	 BYTE PTR __k$[ebp+20], -19 ; ffffffedH
  0015d	eb 6c		 jmp	 SHORT $LN1@LoadBool_e@4
$LN77@LoadBool_e@4:
  0015f	c6 45 f7 ea	 mov	 BYTE PTR __k$[ebp+19], -22 ; ffffffeaH
  00163	eb 66		 jmp	 SHORT $LN1@LoadBool_e@4
$LN78@LoadBool_e@4:
  00165	c6 45 f6 eb	 mov	 BYTE PTR __k$[ebp+18], -21 ; ffffffebH
  00169	eb 60		 jmp	 SHORT $LN1@LoadBool_e@4
$LN79@LoadBool_e@4:
  0016b	88 4d f5	 mov	 BYTE PTR __k$[ebp+17], cl
  0016e	eb 5b		 jmp	 SHORT $LN1@LoadBool_e@4
$LN81@LoadBool_e@4:
  00170	c6 45 f3 ea	 mov	 BYTE PTR __k$[ebp+15], -22 ; ffffffeaH
  00174	eb 55		 jmp	 SHORT $LN1@LoadBool_e@4
$LN82@LoadBool_e@4:
  00176	c6 45 f2 eb	 mov	 BYTE PTR __k$[ebp+14], -21 ; ffffffebH
  0017a	eb 4f		 jmp	 SHORT $LN1@LoadBool_e@4
$LN83@LoadBool_e@4:
  0017c	88 4d f1	 mov	 BYTE PTR __k$[ebp+13], cl
  0017f	eb 4a		 jmp	 SHORT $LN1@LoadBool_e@4
$LN84@LoadBool_e@4:
  00181	c6 45 f0 ed	 mov	 BYTE PTR __k$[ebp+12], -19 ; ffffffedH
  00185	eb 44		 jmp	 SHORT $LN1@LoadBool_e@4
$LN85@LoadBool_e@4:
  00187	c6 45 ef ea	 mov	 BYTE PTR __k$[ebp+11], -22 ; ffffffeaH
  0018b	eb 3e		 jmp	 SHORT $LN1@LoadBool_e@4
$LN86@LoadBool_e@4:
  0018d	c6 45 ee eb	 mov	 BYTE PTR __k$[ebp+10], -21 ; ffffffebH
  00191	eb 38		 jmp	 SHORT $LN1@LoadBool_e@4
$LN87@LoadBool_e@4:
  00193	88 4d ed	 mov	 BYTE PTR __k$[ebp+9], cl
  00196	eb 33		 jmp	 SHORT $LN1@LoadBool_e@4
$LN88@LoadBool_e@4:
  00198	c6 45 ec ed	 mov	 BYTE PTR __k$[ebp+8], -19 ; ffffffedH
  0019c	eb 2d		 jmp	 SHORT $LN1@LoadBool_e@4
$LN89@LoadBool_e@4:
  0019e	c6 45 eb ea	 mov	 BYTE PTR __k$[ebp+7], -22 ; ffffffeaH
  001a2	eb 27		 jmp	 SHORT $LN1@LoadBool_e@4
$LN90@LoadBool_e@4:
  001a4	c6 45 ea eb	 mov	 BYTE PTR __k$[ebp+6], -21 ; ffffffebH
  001a8	eb 21		 jmp	 SHORT $LN1@LoadBool_e@4
$LN91@LoadBool_e@4:
  001aa	88 4d e9	 mov	 BYTE PTR __k$[ebp+5], cl
  001ad	eb 1c		 jmp	 SHORT $LN1@LoadBool_e@4
$LN92@LoadBool_e@4:
  001af	c6 45 e8 ed	 mov	 BYTE PTR __k$[ebp+4], -19 ; ffffffedH
  001b3	eb 16		 jmp	 SHORT $LN1@LoadBool_e@4
$LN93@LoadBool_e@4:
  001b5	c6 45 e7 ea	 mov	 BYTE PTR __k$[ebp+3], -22 ; ffffffeaH
  001b9	eb 10		 jmp	 SHORT $LN1@LoadBool_e@4
$LN94@LoadBool_e@4:
  001bb	c6 45 e6 eb	 mov	 BYTE PTR __k$[ebp+2], -21 ; ffffffebH
  001bf	eb 0a		 jmp	 SHORT $LN1@LoadBool_e@4
$LN95@LoadBool_e@4:
  001c1	c6 45 e5 ec	 mov	 BYTE PTR __k$[ebp+1], -20 ; ffffffecH
  001c5	eb 04		 jmp	 SHORT $LN1@LoadBool_e@4
$LN96@LoadBool_e@4:
  001c7	c6 45 e4 ed	 mov	 BYTE PTR __k$[ebp], -19	; ffffffedH
$LN1@LoadBool_e@4:
  001cb	6a 04		 push	 4
  001cd	8d 45 e4	 lea	 eax, DWORD PTR __k$[ebp]
  001d0	c6 45 f4 00	 mov	 BYTE PTR __k$[ebp+16], 0
  001d4	5a		 pop	 edx
$LL104@LoadBool_e@4:
  001d5	81 30 ed ec eb
	ea		 xor	 DWORD PTR [eax], -353637139 ; eaebecedH
  001db	83 c0 04	 add	 eax, 4
  001de	4a		 dec	 edx
  001df	75 f4		 jne	 SHORT $LL104@LoadBool_e@4

; 103  : 		return LoadBool(_k, b);

  001e1	ff 75 0c	 push	 DWORD PTR _b$[ebp]
  001e4	8d 45 e4	 lea	 eax, DWORD PTR __k$[ebp]
  001e7	50		 push	 eax
  001e8	8b ce		 mov	 ecx, esi
  001ea	ff 15 00 00 00
	00		 call	 DWORD PTR __imp_?LoadBool@ioINILoader@@QAE_NPBD_N@Z

; 104  : 	}

  001f0	8b 4d fc	 mov	 ecx, DWORD PTR __$ArrayPad$[ebp]
  001f3	33 cd		 xor	 ecx, ebp
  001f5	5e		 pop	 esi
  001f6	e8 00 00 00 00	 call	 @__security_check_cookie@4
  001fb	c9		 leave
  001fc	c2 08 00	 ret	 8
??$LoadBool_e@$0BB@@ioINILoader@@QAE_NAAY0BB@$$CBD_N@Z ENDP ; ioINILoader::LoadBool_e<17>
_TEXT	ENDS
PUBLIC	_this$GSCopy$
PUBLIC	__$ArrayPad$
PUBLIC	??$LoadString_e@$0BE@@ioINILoader@@QAEXAAY0BE@$$CBDAAY00$$CBDPADH@Z ; ioINILoader::LoadString_e<20>
EXTRN	__imp_?LoadStringA@ioINILoader@@QAEXPBD0PADH@Z:PROC
; Function compile flags: /Ogsp
;	COMDAT ??$LoadString_e@$0BE@@ioINILoader@@QAEXAAY0BE@$$CBDAAY00$$CBDPADH@Z
_TEXT	SEGMENT
_this$GSCopy$ = -32					; size = 4
__k$ = -28						; size = 20
__$ArrayPad$ = -4					; size = 4
_k$ = 8							; size = 4
_d$ = 12						; size = 4
_b$ = 16						; size = 4
_i$ = 20						; size = 4
??$LoadString_e@$0BE@@ioINILoader@@QAEXAAY0BE@$$CBDAAY00$$CBDPADH@Z PROC ; ioINILoader::LoadString_e<20>, COMDAT
; _this$ = ecx

; 161  : 	{

  00000	55		 push	 ebp
  00001	8b ec		 mov	 ebp, esp
  00003	83 ec 20	 sub	 esp, 32			; 00000020H
  00006	a1 00 00 00 00	 mov	 eax, DWORD PTR ___security_cookie
  0000b	33 c5		 xor	 eax, ebp
  0000d	89 45 fc	 mov	 DWORD PTR __$ArrayPad$[ebp], eax
  00010	8b 45 08	 mov	 eax, DWORD PTR _k$[ebp]

; 162  : 		_ENCSTR(k, _k);

  00013	8a 10		 mov	 dl, BYTE PTR [eax]
  00015	53		 push	 ebx
  00016	56		 push	 esi
  00017	8b 75 0c	 mov	 esi, DWORD PTR _d$[ebp]
  0001a	57		 push	 edi
  0001b	8b 7d 10	 mov	 edi, DWORD PTR _b$[ebp]
  0001e	89 4d e0	 mov	 DWORD PTR _this$GSCopy$[ebp], ecx
  00021	84 d2		 test	 dl, dl
  00023	0f 84 dd 01 00
	00		 je	 $LN96@LoadString
  00029	80 f2 ed	 xor	 dl, -19			; ffffffedH
  0002c	88 55 e4	 mov	 BYTE PTR __k$[ebp], dl
  0002f	8a 50 01	 mov	 dl, BYTE PTR [eax+1]
  00032	84 d2		 test	 dl, dl
  00034	0f 84 c6 01 00
	00		 je	 $LN95@LoadString
  0003a	b3 ec		 mov	 bl, -20			; ffffffecH
  0003c	32 d3		 xor	 dl, bl
  0003e	88 55 e5	 mov	 BYTE PTR __k$[ebp+1], dl
  00041	8a 50 02	 mov	 dl, BYTE PTR [eax+2]
  00044	84 d2		 test	 dl, dl
  00046	0f 84 ae 01 00
	00		 je	 $LN94@LoadString
  0004c	b1 eb		 mov	 cl, -21			; ffffffebH
  0004e	32 d1		 xor	 dl, cl
  00050	88 55 e6	 mov	 BYTE PTR __k$[ebp+2], dl
  00053	8a 50 03	 mov	 dl, BYTE PTR [eax+3]
  00056	84 d2		 test	 dl, dl
  00058	0f 84 96 01 00
	00		 je	 $LN93@LoadString
  0005e	80 f2 ea	 xor	 dl, -22			; ffffffeaH
  00061	88 55 e7	 mov	 BYTE PTR __k$[ebp+3], dl
  00064	8a 50 04	 mov	 dl, BYTE PTR [eax+4]
  00067	84 d2		 test	 dl, dl
  00069	0f 84 7f 01 00
	00		 je	 $LN92@LoadString
  0006f	80 f2 ed	 xor	 dl, -19			; ffffffedH
  00072	88 55 e8	 mov	 BYTE PTR __k$[ebp+4], dl
  00075	8a 50 05	 mov	 dl, BYTE PTR [eax+5]
  00078	84 d2		 test	 dl, dl
  0007a	0f 84 69 01 00
	00		 je	 $LN91@LoadString
  00080	32 d3		 xor	 dl, bl
  00082	88 55 e9	 mov	 BYTE PTR __k$[ebp+5], dl
  00085	8a 50 06	 mov	 dl, BYTE PTR [eax+6]
  00088	84 d2		 test	 dl, dl
  0008a	0f 84 54 01 00
	00		 je	 $LN90@LoadString
  00090	32 d1		 xor	 dl, cl
  00092	88 55 ea	 mov	 BYTE PTR __k$[ebp+6], dl
  00095	8a 50 07	 mov	 dl, BYTE PTR [eax+7]
  00098	84 d2		 test	 dl, dl
  0009a	0f 84 3e 01 00
	00		 je	 $LN89@LoadString
  000a0	80 f2 ea	 xor	 dl, -22			; ffffffeaH
  000a3	88 55 eb	 mov	 BYTE PTR __k$[ebp+7], dl
  000a6	8a 50 08	 mov	 dl, BYTE PTR [eax+8]
  000a9	84 d2		 test	 dl, dl
  000ab	0f 84 27 01 00
	00		 je	 $LN88@LoadString
  000b1	80 f2 ed	 xor	 dl, -19			; ffffffedH
  000b4	88 55 ec	 mov	 BYTE PTR __k$[ebp+8], dl
  000b7	8a 50 09	 mov	 dl, BYTE PTR [eax+9]
  000ba	84 d2		 test	 dl, dl
  000bc	0f 84 11 01 00
	00		 je	 $LN87@LoadString
  000c2	32 d3		 xor	 dl, bl
  000c4	88 55 ed	 mov	 BYTE PTR __k$[ebp+9], dl
  000c7	8a 50 0a	 mov	 dl, BYTE PTR [eax+10]
  000ca	84 d2		 test	 dl, dl
  000cc	0f 84 fc 00 00
	00		 je	 $LN86@LoadString
  000d2	32 d1		 xor	 dl, cl
  000d4	88 55 ee	 mov	 BYTE PTR __k$[ebp+10], dl
  000d7	8a 50 0b	 mov	 dl, BYTE PTR [eax+11]
  000da	84 d2		 test	 dl, dl
  000dc	0f 84 e6 00 00
	00		 je	 $LN85@LoadString
  000e2	80 f2 ea	 xor	 dl, -22			; ffffffeaH
  000e5	88 55 ef	 mov	 BYTE PTR __k$[ebp+11], dl
  000e8	8a 50 0c	 mov	 dl, BYTE PTR [eax+12]
  000eb	84 d2		 test	 dl, dl
  000ed	0f 84 cf 00 00
	00		 je	 $LN84@LoadString
  000f3	80 f2 ed	 xor	 dl, -19			; ffffffedH
  000f6	88 55 f0	 mov	 BYTE PTR __k$[ebp+12], dl
  000f9	8a 50 0d	 mov	 dl, BYTE PTR [eax+13]
  000fc	84 d2		 test	 dl, dl
  000fe	0f 84 b9 00 00
	00		 je	 $LN83@LoadString
  00104	32 d3		 xor	 dl, bl
  00106	88 55 f1	 mov	 BYTE PTR __k$[ebp+13], dl
  00109	8a 50 0e	 mov	 dl, BYTE PTR [eax+14]
  0010c	84 d2		 test	 dl, dl
  0010e	0f 84 a4 00 00
	00		 je	 $LN82@LoadString
  00114	32 d1		 xor	 dl, cl
  00116	88 55 f2	 mov	 BYTE PTR __k$[ebp+14], dl
  00119	8a 50 0f	 mov	 dl, BYTE PTR [eax+15]
  0011c	84 d2		 test	 dl, dl
  0011e	0f 84 8e 00 00
	00		 je	 $LN81@LoadString
  00124	80 f2 ea	 xor	 dl, -22			; ffffffeaH
  00127	88 55 f3	 mov	 BYTE PTR __k$[ebp+15], dl
  0012a	8a 50 10	 mov	 dl, BYTE PTR [eax+16]
  0012d	84 d2		 test	 dl, dl
  0012f	74 7b		 je	 SHORT $LN80@LoadString
  00131	80 f2 ed	 xor	 dl, -19			; ffffffedH
  00134	88 55 f4	 mov	 BYTE PTR __k$[ebp+16], dl
  00137	8a 50 11	 mov	 dl, BYTE PTR [eax+17]
  0013a	84 d2		 test	 dl, dl
  0013c	74 69		 je	 SHORT $LN79@LoadString
  0013e	32 d3		 xor	 dl, bl
  00140	88 55 f5	 mov	 BYTE PTR __k$[ebp+17], dl
  00143	8a 50 12	 mov	 dl, BYTE PTR [eax+18]
  00146	84 d2		 test	 dl, dl
  00148	74 58		 je	 SHORT $LN78@LoadString
  0014a	32 d1		 xor	 dl, cl
  0014c	80 78 13 00	 cmp	 BYTE PTR [eax+19], 0
  00150	88 55 f6	 mov	 BYTE PTR __k$[ebp+18], dl
  00153	0f 84 b1 00 00
	00		 je	 $LN111@LoadString
  00159	8a 50 14	 mov	 dl, BYTE PTR [eax+20]
  0015c	84 d2		 test	 dl, dl
  0015e	74 3c		 je	 SHORT $LN76@LoadString
  00160	80 f2 ed	 xor	 dl, -19			; ffffffedH
  00163	88 55 f8	 mov	 BYTE PTR __k$[ebp+20], dl
  00166	8a 50 15	 mov	 dl, BYTE PTR [eax+21]
  00169	84 d2		 test	 dl, dl
  0016b	74 2a		 je	 SHORT $LN75@LoadString
  0016d	32 d3		 xor	 dl, bl
  0016f	88 55 f9	 mov	 BYTE PTR __k$[ebp+21], dl
  00172	8a 50 16	 mov	 dl, BYTE PTR [eax+22]
  00175	84 d2		 test	 dl, dl
  00177	74 19		 je	 SHORT $LN74@LoadString
  00179	8a 40 17	 mov	 al, BYTE PTR [eax+23]
  0017c	32 d1		 xor	 dl, cl
  0017e	88 55 fa	 mov	 BYTE PTR __k$[ebp+22], dl
  00181	84 c0		 test	 al, al
  00183	74 07		 je	 SHORT $LN73@LoadString
  00185	34 ea		 xor	 al, -22			; ffffffeaH
  00187	88 45 fb	 mov	 BYTE PTR __k$[ebp+23], al
  0018a	eb 7e		 jmp	 SHORT $LN111@LoadString
$LN73@LoadString:
  0018c	c6 45 fb ea	 mov	 BYTE PTR __k$[ebp+23], -22 ; ffffffeaH
  00190	eb 78		 jmp	 SHORT $LN111@LoadString
$LN74@LoadString:
  00192	88 4d fa	 mov	 BYTE PTR __k$[ebp+22], cl
  00195	eb 73		 jmp	 SHORT $LN111@LoadString
$LN75@LoadString:
  00197	88 5d f9	 mov	 BYTE PTR __k$[ebp+21], bl
  0019a	eb 6e		 jmp	 SHORT $LN111@LoadString
$LN76@LoadString:
  0019c	c6 45 f8 ed	 mov	 BYTE PTR __k$[ebp+20], -19 ; ffffffedH
  001a0	eb 68		 jmp	 SHORT $LN111@LoadString
$LN78@LoadString:
  001a2	88 4d f6	 mov	 BYTE PTR __k$[ebp+18], cl
  001a5	eb 63		 jmp	 SHORT $LN111@LoadString
$LN79@LoadString:
  001a7	88 5d f5	 mov	 BYTE PTR __k$[ebp+17], bl
  001aa	eb 5e		 jmp	 SHORT $LN111@LoadString
$LN80@LoadString:
  001ac	c6 45 f4 ed	 mov	 BYTE PTR __k$[ebp+16], -19 ; ffffffedH
  001b0	eb 58		 jmp	 SHORT $LN111@LoadString
$LN81@LoadString:
  001b2	c6 45 f3 ea	 mov	 BYTE PTR __k$[ebp+15], -22 ; ffffffeaH
  001b6	eb 52		 jmp	 SHORT $LN111@LoadString
$LN82@LoadString:
  001b8	88 4d f2	 mov	 BYTE PTR __k$[ebp+14], cl
  001bb	eb 4d		 jmp	 SHORT $LN111@LoadString
$LN83@LoadString:
  001bd	88 5d f1	 mov	 BYTE PTR __k$[ebp+13], bl
  001c0	eb 48		 jmp	 SHORT $LN111@LoadString
$LN84@LoadString:
  001c2	c6 45 f0 ed	 mov	 BYTE PTR __k$[ebp+12], -19 ; ffffffedH
  001c6	eb 42		 jmp	 SHORT $LN111@LoadString
$LN85@LoadString:
  001c8	c6 45 ef ea	 mov	 BYTE PTR __k$[ebp+11], -22 ; ffffffeaH
  001cc	eb 3c		 jmp	 SHORT $LN111@LoadString
$LN86@LoadString:
  001ce	88 4d ee	 mov	 BYTE PTR __k$[ebp+10], cl
  001d1	eb 37		 jmp	 SHORT $LN111@LoadString
$LN87@LoadString:
  001d3	88 5d ed	 mov	 BYTE PTR __k$[ebp+9], bl
  001d6	eb 32		 jmp	 SHORT $LN111@LoadString
$LN88@LoadString:
  001d8	c6 45 ec ed	 mov	 BYTE PTR __k$[ebp+8], -19 ; ffffffedH
  001dc	eb 2c		 jmp	 SHORT $LN111@LoadString
$LN89@LoadString:
  001de	c6 45 eb ea	 mov	 BYTE PTR __k$[ebp+7], -22 ; ffffffeaH
  001e2	eb 26		 jmp	 SHORT $LN111@LoadString
$LN90@LoadString:
  001e4	88 4d ea	 mov	 BYTE PTR __k$[ebp+6], cl
  001e7	eb 21		 jmp	 SHORT $LN111@LoadString
$LN91@LoadString:
  001e9	88 5d e9	 mov	 BYTE PTR __k$[ebp+5], bl
  001ec	eb 1c		 jmp	 SHORT $LN111@LoadString
$LN92@LoadString:
  001ee	c6 45 e8 ed	 mov	 BYTE PTR __k$[ebp+4], -19 ; ffffffedH
  001f2	eb 16		 jmp	 SHORT $LN111@LoadString
$LN93@LoadString:
  001f4	c6 45 e7 ea	 mov	 BYTE PTR __k$[ebp+3], -22 ; ffffffeaH
  001f8	eb 10		 jmp	 SHORT $LN111@LoadString
$LN94@LoadString:
  001fa	c6 45 e6 eb	 mov	 BYTE PTR __k$[ebp+2], -21 ; ffffffebH
  001fe	eb 0a		 jmp	 SHORT $LN111@LoadString
$LN95@LoadString:
  00200	c6 45 e5 ec	 mov	 BYTE PTR __k$[ebp+1], -20 ; ffffffecH
  00204	eb 04		 jmp	 SHORT $LN111@LoadString
$LN96@LoadString:
  00206	c6 45 e4 ed	 mov	 BYTE PTR __k$[ebp], -19	; ffffffedH
$LN111@LoadString:
  0020a	6a 04		 push	 4
  0020c	8d 45 e4	 lea	 eax, DWORD PTR __k$[ebp]
  0020f	c6 45 f7 00	 mov	 BYTE PTR __k$[ebp+19], 0
  00213	5a		 pop	 edx
$LL104@LoadString:
  00214	81 30 ed ec eb
	ea		 xor	 DWORD PTR [eax], -353637139 ; eaebecedH
  0021a	83 c0 04	 add	 eax, 4
  0021d	4a		 dec	 edx
  0021e	75 f4		 jne	 SHORT $LL104@LoadString
  00220	6a 10		 push	 16			; 00000010H
  00222	58		 pop	 eax
$LL101@LoadString:
  00223	8b c8		 mov	 ecx, eax
  00225	81 e1 03 00 00
	80		 and	 ecx, -2147483645	; 80000003H
  0022b	79 05		 jns	 SHORT $LN112@LoadString
  0022d	49		 dec	 ecx
  0022e	83 c9 fc	 or	 ecx, -4			; fffffffcH
  00231	41		 inc	 ecx
$LN112@LoadString:
  00232	b2 ed		 mov	 dl, -19			; ffffffedH
  00234	2a d1		 sub	 dl, cl
  00236	30 54 05 e4	 xor	 BYTE PTR __k$[ebp+eax], dl
  0023a	40		 inc	 eax
  0023b	83 f8 13	 cmp	 eax, 19			; 00000013H
  0023e	7c e3		 jl	 SHORT $LL101@LoadString

; 163  : 		LoadString(_k, d, b, i);

  00240	ff 75 14	 push	 DWORD PTR _i$[ebp]
  00243	8b 4d e0	 mov	 ecx, DWORD PTR _this$GSCopy$[ebp]
  00246	57		 push	 edi
  00247	56		 push	 esi
  00248	8d 45 e4	 lea	 eax, DWORD PTR __k$[ebp]
  0024b	50		 push	 eax
  0024c	ff 15 00 00 00
	00		 call	 DWORD PTR __imp_?LoadStringA@ioINILoader@@QAEXPBD0PADH@Z

; 164  : 	}

  00252	8b 4d fc	 mov	 ecx, DWORD PTR __$ArrayPad$[ebp]
  00255	5f		 pop	 edi
  00256	5e		 pop	 esi
  00257	33 cd		 xor	 ecx, ebp
  00259	5b		 pop	 ebx
  0025a	e8 00 00 00 00	 call	 @__security_check_cookie@4
  0025f	c9		 leave
  00260	c2 10 00	 ret	 16			; 00000010H
??$LoadString_e@$0BE@@ioINILoader@@QAEXAAY0BE@$$CBDAAY00$$CBDPADH@Z ENDP ; ioINILoader::LoadString_e<20>
_TEXT	ENDS
PUBLIC	_this$GSCopy$
PUBLIC	__$ArrayPad$
PUBLIC	??$LoadString_e@$0BB@@ioINILoader@@QAEXAAY0BB@$$CBDAAY00$$CBDPADH@Z ; ioINILoader::LoadString_e<17>
; Function compile flags: /Ogsp
;	COMDAT ??$LoadString_e@$0BB@@ioINILoader@@QAEXAAY0BB@$$CBDAAY00$$CBDPADH@Z
_TEXT	SEGMENT
_this$GSCopy$ = -32					; size = 4
__k$ = -28						; size = 17
__$ArrayPad$ = -4					; size = 4
_k$ = 8							; size = 4
_d$ = 12						; size = 4
_b$ = 16						; size = 4
_i$ = 20						; size = 4
??$LoadString_e@$0BB@@ioINILoader@@QAEXAAY0BB@$$CBDAAY00$$CBDPADH@Z PROC ; ioINILoader::LoadString_e<17>, COMDAT
; _this$ = ecx

; 161  : 	{

  00000	55		 push	 ebp
  00001	8b ec		 mov	 ebp, esp
  00003	83 ec 20	 sub	 esp, 32			; 00000020H
  00006	a1 00 00 00 00	 mov	 eax, DWORD PTR ___security_cookie
  0000b	33 c5		 xor	 eax, ebp
  0000d	89 45 fc	 mov	 DWORD PTR __$ArrayPad$[ebp], eax
  00010	8b 45 08	 mov	 eax, DWORD PTR _k$[ebp]

; 162  : 		_ENCSTR(k, _k);

  00013	8a 10		 mov	 dl, BYTE PTR [eax]
  00015	56		 push	 esi
  00016	8b 75 0c	 mov	 esi, DWORD PTR _d$[ebp]
  00019	57		 push	 edi
  0001a	8b 7d 10	 mov	 edi, DWORD PTR _b$[ebp]
  0001d	89 4d e0	 mov	 DWORD PTR _this$GSCopy$[ebp], ecx
  00020	84 d2		 test	 dl, dl
  00022	0f 84 a7 01 00
	00		 je	 $LN96@LoadString@2
  00028	80 f2 ed	 xor	 dl, -19			; ffffffedH
  0002b	88 55 e4	 mov	 BYTE PTR __k$[ebp], dl
  0002e	8a 50 01	 mov	 dl, BYTE PTR [eax+1]
  00031	84 d2		 test	 dl, dl
  00033	0f 84 90 01 00
	00		 je	 $LN95@LoadString@2
  00039	b1 ec		 mov	 cl, -20			; ffffffecH
  0003b	32 d1		 xor	 dl, cl
  0003d	88 55 e5	 mov	 BYTE PTR __k$[ebp+1], dl
  00040	8a 50 02	 mov	 dl, BYTE PTR [eax+2]
  00043	84 d2		 test	 dl, dl
  00045	0f 84 78 01 00
	00		 je	 $LN94@LoadString@2
  0004b	80 f2 eb	 xor	 dl, -21			; ffffffebH
  0004e	88 55 e6	 mov	 BYTE PTR __k$[ebp+2], dl
  00051	8a 50 03	 mov	 dl, BYTE PTR [eax+3]
  00054	84 d2		 test	 dl, dl
  00056	0f 84 61 01 00
	00		 je	 $LN93@LoadString@2
  0005c	80 f2 ea	 xor	 dl, -22			; ffffffeaH
  0005f	88 55 e7	 mov	 BYTE PTR __k$[ebp+3], dl
  00062	8a 50 04	 mov	 dl, BYTE PTR [eax+4]
  00065	84 d2		 test	 dl, dl
  00067	0f 84 4a 01 00
	00		 je	 $LN92@LoadString@2
  0006d	80 f2 ed	 xor	 dl, -19			; ffffffedH
  00070	88 55 e8	 mov	 BYTE PTR __k$[ebp+4], dl
  00073	8a 50 05	 mov	 dl, BYTE PTR [eax+5]
  00076	84 d2		 test	 dl, dl
  00078	0f 84 34 01 00
	00		 je	 $LN91@LoadString@2
  0007e	32 d1		 xor	 dl, cl
  00080	88 55 e9	 mov	 BYTE PTR __k$[ebp+5], dl
  00083	8a 50 06	 mov	 dl, BYTE PTR [eax+6]
  00086	84 d2		 test	 dl, dl
  00088	0f 84 1e 01 00
	00		 je	 $LN90@LoadString@2
  0008e	80 f2 eb	 xor	 dl, -21			; ffffffebH
  00091	88 55 ea	 mov	 BYTE PTR __k$[ebp+6], dl
  00094	8a 50 07	 mov	 dl, BYTE PTR [eax+7]
  00097	84 d2		 test	 dl, dl
  00099	0f 84 07 01 00
	00		 je	 $LN89@LoadString@2
  0009f	80 f2 ea	 xor	 dl, -22			; ffffffeaH
  000a2	88 55 eb	 mov	 BYTE PTR __k$[ebp+7], dl
  000a5	8a 50 08	 mov	 dl, BYTE PTR [eax+8]
  000a8	84 d2		 test	 dl, dl
  000aa	0f 84 f0 00 00
	00		 je	 $LN88@LoadString@2
  000b0	80 f2 ed	 xor	 dl, -19			; ffffffedH
  000b3	88 55 ec	 mov	 BYTE PTR __k$[ebp+8], dl
  000b6	8a 50 09	 mov	 dl, BYTE PTR [eax+9]
  000b9	84 d2		 test	 dl, dl
  000bb	0f 84 da 00 00
	00		 je	 $LN87@LoadString@2
  000c1	32 d1		 xor	 dl, cl
  000c3	88 55 ed	 mov	 BYTE PTR __k$[ebp+9], dl
  000c6	8a 50 0a	 mov	 dl, BYTE PTR [eax+10]
  000c9	84 d2		 test	 dl, dl
  000cb	0f 84 c4 00 00
	00		 je	 $LN86@LoadString@2
  000d1	80 f2 eb	 xor	 dl, -21			; ffffffebH
  000d4	88 55 ee	 mov	 BYTE PTR __k$[ebp+10], dl
  000d7	8a 50 0b	 mov	 dl, BYTE PTR [eax+11]
  000da	84 d2		 test	 dl, dl
  000dc	0f 84 ad 00 00
	00		 je	 $LN85@LoadString@2
  000e2	80 f2 ea	 xor	 dl, -22			; ffffffeaH
  000e5	88 55 ef	 mov	 BYTE PTR __k$[ebp+11], dl
  000e8	8a 50 0c	 mov	 dl, BYTE PTR [eax+12]
  000eb	84 d2		 test	 dl, dl
  000ed	0f 84 96 00 00
	00		 je	 $LN84@LoadString@2
  000f3	80 f2 ed	 xor	 dl, -19			; ffffffedH
  000f6	88 55 f0	 mov	 BYTE PTR __k$[ebp+12], dl
  000f9	8a 50 0d	 mov	 dl, BYTE PTR [eax+13]
  000fc	84 d2		 test	 dl, dl
  000fe	0f 84 80 00 00
	00		 je	 $LN83@LoadString@2
  00104	32 d1		 xor	 dl, cl
  00106	88 55 f1	 mov	 BYTE PTR __k$[ebp+13], dl
  00109	8a 50 0e	 mov	 dl, BYTE PTR [eax+14]
  0010c	84 d2		 test	 dl, dl
  0010e	74 6e		 je	 SHORT $LN82@LoadString@2
  00110	80 f2 eb	 xor	 dl, -21			; ffffffebH
  00113	88 55 f2	 mov	 BYTE PTR __k$[ebp+14], dl
  00116	8a 50 0f	 mov	 dl, BYTE PTR [eax+15]
  00119	84 d2		 test	 dl, dl
  0011b	74 5b		 je	 SHORT $LN81@LoadString@2
  0011d	80 f2 ea	 xor	 dl, -22			; ffffffeaH
  00120	80 78 10 00	 cmp	 BYTE PTR [eax+16], 0
  00124	88 55 f3	 mov	 BYTE PTR __k$[ebp+15], dl
  00127	0f 84 a6 00 00
	00		 je	 $LN111@LoadString@2
  0012d	8a 50 11	 mov	 dl, BYTE PTR [eax+17]
  00130	84 d2		 test	 dl, dl
  00132	74 3f		 je	 SHORT $LN79@LoadString@2
  00134	32 d1		 xor	 dl, cl
  00136	88 55 f5	 mov	 BYTE PTR __k$[ebp+17], dl
  00139	8a 50 12	 mov	 dl, BYTE PTR [eax+18]
  0013c	84 d2		 test	 dl, dl
  0013e	74 2d		 je	 SHORT $LN78@LoadString@2
  00140	80 f2 eb	 xor	 dl, -21			; ffffffebH
  00143	88 55 f6	 mov	 BYTE PTR __k$[ebp+18], dl
  00146	8a 50 13	 mov	 dl, BYTE PTR [eax+19]
  00149	84 d2		 test	 dl, dl
  0014b	74 1a		 je	 SHORT $LN77@LoadString@2
  0014d	8a 40 14	 mov	 al, BYTE PTR [eax+20]
  00150	80 f2 ea	 xor	 dl, -22			; ffffffeaH
  00153	88 55 f7	 mov	 BYTE PTR __k$[ebp+19], dl
  00156	84 c0		 test	 al, al
  00158	74 07		 je	 SHORT $LN76@LoadString@2
  0015a	34 ed		 xor	 al, -19			; ffffffedH
  0015c	88 45 f8	 mov	 BYTE PTR __k$[ebp+20], al
  0015f	eb 72		 jmp	 SHORT $LN111@LoadString@2
$LN76@LoadString@2:
  00161	c6 45 f8 ed	 mov	 BYTE PTR __k$[ebp+20], -19 ; ffffffedH
  00165	eb 6c		 jmp	 SHORT $LN111@LoadString@2
$LN77@LoadString@2:
  00167	c6 45 f7 ea	 mov	 BYTE PTR __k$[ebp+19], -22 ; ffffffeaH
  0016b	eb 66		 jmp	 SHORT $LN111@LoadString@2
$LN78@LoadString@2:
  0016d	c6 45 f6 eb	 mov	 BYTE PTR __k$[ebp+18], -21 ; ffffffebH
  00171	eb 60		 jmp	 SHORT $LN111@LoadString@2
$LN79@LoadString@2:
  00173	88 4d f5	 mov	 BYTE PTR __k$[ebp+17], cl
  00176	eb 5b		 jmp	 SHORT $LN111@LoadString@2
$LN81@LoadString@2:
  00178	c6 45 f3 ea	 mov	 BYTE PTR __k$[ebp+15], -22 ; ffffffeaH
  0017c	eb 55		 jmp	 SHORT $LN111@LoadString@2
$LN82@LoadString@2:
  0017e	c6 45 f2 eb	 mov	 BYTE PTR __k$[ebp+14], -21 ; ffffffebH
  00182	eb 4f		 jmp	 SHORT $LN111@LoadString@2
$LN83@LoadString@2:
  00184	88 4d f1	 mov	 BYTE PTR __k$[ebp+13], cl
  00187	eb 4a		 jmp	 SHORT $LN111@LoadString@2
$LN84@LoadString@2:
  00189	c6 45 f0 ed	 mov	 BYTE PTR __k$[ebp+12], -19 ; ffffffedH
  0018d	eb 44		 jmp	 SHORT $LN111@LoadString@2
$LN85@LoadString@2:
  0018f	c6 45 ef ea	 mov	 BYTE PTR __k$[ebp+11], -22 ; ffffffeaH
  00193	eb 3e		 jmp	 SHORT $LN111@LoadString@2
$LN86@LoadString@2:
  00195	c6 45 ee eb	 mov	 BYTE PTR __k$[ebp+10], -21 ; ffffffebH
  00199	eb 38		 jmp	 SHORT $LN111@LoadString@2
$LN87@LoadString@2:
  0019b	88 4d ed	 mov	 BYTE PTR __k$[ebp+9], cl
  0019e	eb 33		 jmp	 SHORT $LN111@LoadString@2
$LN88@LoadString@2:
  001a0	c6 45 ec ed	 mov	 BYTE PTR __k$[ebp+8], -19 ; ffffffedH
  001a4	eb 2d		 jmp	 SHORT $LN111@LoadString@2
$LN89@LoadString@2:
  001a6	c6 45 eb ea	 mov	 BYTE PTR __k$[ebp+7], -22 ; ffffffeaH
  001aa	eb 27		 jmp	 SHORT $LN111@LoadString@2
$LN90@LoadString@2:
  001ac	c6 45 ea eb	 mov	 BYTE PTR __k$[ebp+6], -21 ; ffffffebH
  001b0	eb 21		 jmp	 SHORT $LN111@LoadString@2
$LN91@LoadString@2:
  001b2	88 4d e9	 mov	 BYTE PTR __k$[ebp+5], cl
  001b5	eb 1c		 jmp	 SHORT $LN111@LoadString@2
$LN92@LoadString@2:
  001b7	c6 45 e8 ed	 mov	 BYTE PTR __k$[ebp+4], -19 ; ffffffedH
  001bb	eb 16		 jmp	 SHORT $LN111@LoadString@2
$LN93@LoadString@2:
  001bd	c6 45 e7 ea	 mov	 BYTE PTR __k$[ebp+3], -22 ; ffffffeaH
  001c1	eb 10		 jmp	 SHORT $LN111@LoadString@2
$LN94@LoadString@2:
  001c3	c6 45 e6 eb	 mov	 BYTE PTR __k$[ebp+2], -21 ; ffffffebH
  001c7	eb 0a		 jmp	 SHORT $LN111@LoadString@2
$LN95@LoadString@2:
  001c9	c6 45 e5 ec	 mov	 BYTE PTR __k$[ebp+1], -20 ; ffffffecH
  001cd	eb 04		 jmp	 SHORT $LN111@LoadString@2
$LN96@LoadString@2:
  001cf	c6 45 e4 ed	 mov	 BYTE PTR __k$[ebp], -19	; ffffffedH
$LN111@LoadString@2:
  001d3	6a 04		 push	 4
  001d5	8d 45 e4	 lea	 eax, DWORD PTR __k$[ebp]
  001d8	c6 45 f4 00	 mov	 BYTE PTR __k$[ebp+16], 0
  001dc	5a		 pop	 edx
$LL104@LoadString@2:
  001dd	81 30 ed ec eb
	ea		 xor	 DWORD PTR [eax], -353637139 ; eaebecedH
  001e3	83 c0 04	 add	 eax, 4
  001e6	4a		 dec	 edx
  001e7	75 f4		 jne	 SHORT $LL104@LoadString@2

; 163  : 		LoadString(_k, d, b, i);

  001e9	ff 75 14	 push	 DWORD PTR _i$[ebp]
  001ec	8b 4d e0	 mov	 ecx, DWORD PTR _this$GSCopy$[ebp]
  001ef	57		 push	 edi
  001f0	56		 push	 esi
  001f1	8d 45 e4	 lea	 eax, DWORD PTR __k$[ebp]
  001f4	50		 push	 eax
  001f5	ff 15 00 00 00
	00		 call	 DWORD PTR __imp_?LoadStringA@ioINILoader@@QAEXPBD0PADH@Z

; 164  : 	}

  001fb	8b 4d fc	 mov	 ecx, DWORD PTR __$ArrayPad$[ebp]
  001fe	5f		 pop	 edi
  001ff	33 cd		 xor	 ecx, ebp
  00201	5e		 pop	 esi
  00202	e8 00 00 00 00	 call	 @__security_check_cookie@4
  00207	c9		 leave
  00208	c2 10 00	 ret	 16			; 00000010H
??$LoadString_e@$0BB@@ioINILoader@@QAEXAAY0BB@$$CBDAAY00$$CBDPADH@Z ENDP ; ioINILoader::LoadString_e<17>
_TEXT	ENDS
PUBLIC	_this$GSCopy$
PUBLIC	__$ArrayPad$
PUBLIC	??$LoadString_e@$0BD@@ioINILoader@@QAEXAAY0BD@$$CBDAAY00$$CBDPADH@Z ; ioINILoader::LoadString_e<19>
; Function compile flags: /Ogsp
;	COMDAT ??$LoadString_e@$0BD@@ioINILoader@@QAEXAAY0BD@$$CBDAAY00$$CBDPADH@Z
_TEXT	SEGMENT
_this$GSCopy$ = -32					; size = 4
__k$ = -28						; size = 19
__$ArrayPad$ = -4					; size = 4
_k$ = 8							; size = 4
_d$ = 12						; size = 4
_b$ = 16						; size = 4
_i$ = 20						; size = 4
??$LoadString_e@$0BD@@ioINILoader@@QAEXAAY0BD@$$CBDAAY00$$CBDPADH@Z PROC ; ioINILoader::LoadString_e<19>, COMDAT
; _this$ = ecx

; 161  : 	{

  00000	55		 push	 ebp
  00001	8b ec		 mov	 ebp, esp
  00003	83 ec 20	 sub	 esp, 32			; 00000020H
  00006	a1 00 00 00 00	 mov	 eax, DWORD PTR ___security_cookie
  0000b	33 c5		 xor	 eax, ebp
  0000d	89 45 fc	 mov	 DWORD PTR __$ArrayPad$[ebp], eax
  00010	8b 45 08	 mov	 eax, DWORD PTR _k$[ebp]

; 162  : 		_ENCSTR(k, _k);

  00013	8a 10		 mov	 dl, BYTE PTR [eax]
  00015	56		 push	 esi
  00016	8b 75 0c	 mov	 esi, DWORD PTR _d$[ebp]
  00019	57		 push	 edi
  0001a	8b 7d 10	 mov	 edi, DWORD PTR _b$[ebp]
  0001d	89 4d e0	 mov	 DWORD PTR _this$GSCopy$[ebp], ecx
  00020	84 d2		 test	 dl, dl
  00022	0f 84 cf 01 00
	00		 je	 $LN96@LoadString@3
  00028	80 f2 ed	 xor	 dl, -19			; ffffffedH
  0002b	88 55 e4	 mov	 BYTE PTR __k$[ebp], dl
  0002e	8a 50 01	 mov	 dl, BYTE PTR [eax+1]
  00031	84 d2		 test	 dl, dl
  00033	0f 84 b8 01 00
	00		 je	 $LN95@LoadString@3
  00039	b1 ec		 mov	 cl, -20			; ffffffecH
  0003b	32 d1		 xor	 dl, cl
  0003d	88 55 e5	 mov	 BYTE PTR __k$[ebp+1], dl
  00040	8a 50 02	 mov	 dl, BYTE PTR [eax+2]
  00043	84 d2		 test	 dl, dl
  00045	0f 84 a0 01 00
	00		 je	 $LN94@LoadString@3
  0004b	80 f2 eb	 xor	 dl, -21			; ffffffebH
  0004e	88 55 e6	 mov	 BYTE PTR __k$[ebp+2], dl
  00051	8a 50 03	 mov	 dl, BYTE PTR [eax+3]
  00054	84 d2		 test	 dl, dl
  00056	0f 84 89 01 00
	00		 je	 $LN93@LoadString@3
  0005c	80 f2 ea	 xor	 dl, -22			; ffffffeaH
  0005f	88 55 e7	 mov	 BYTE PTR __k$[ebp+3], dl
  00062	8a 50 04	 mov	 dl, BYTE PTR [eax+4]
  00065	84 d2		 test	 dl, dl
  00067	0f 84 72 01 00
	00		 je	 $LN92@LoadString@3
  0006d	80 f2 ed	 xor	 dl, -19			; ffffffedH
  00070	88 55 e8	 mov	 BYTE PTR __k$[ebp+4], dl
  00073	8a 50 05	 mov	 dl, BYTE PTR [eax+5]
  00076	84 d2		 test	 dl, dl
  00078	0f 84 5c 01 00
	00		 je	 $LN91@LoadString@3
  0007e	32 d1		 xor	 dl, cl
  00080	88 55 e9	 mov	 BYTE PTR __k$[ebp+5], dl
  00083	8a 50 06	 mov	 dl, BYTE PTR [eax+6]
  00086	84 d2		 test	 dl, dl
  00088	0f 84 46 01 00
	00		 je	 $LN90@LoadString@3
  0008e	80 f2 eb	 xor	 dl, -21			; ffffffebH
  00091	88 55 ea	 mov	 BYTE PTR __k$[ebp+6], dl
  00094	8a 50 07	 mov	 dl, BYTE PTR [eax+7]
  00097	84 d2		 test	 dl, dl
  00099	0f 84 2f 01 00
	00		 je	 $LN89@LoadString@3
  0009f	80 f2 ea	 xor	 dl, -22			; ffffffeaH
  000a2	88 55 eb	 mov	 BYTE PTR __k$[ebp+7], dl
  000a5	8a 50 08	 mov	 dl, BYTE PTR [eax+8]
  000a8	84 d2		 test	 dl, dl
  000aa	0f 84 18 01 00
	00		 je	 $LN88@LoadString@3
  000b0	80 f2 ed	 xor	 dl, -19			; ffffffedH
  000b3	88 55 ec	 mov	 BYTE PTR __k$[ebp+8], dl
  000b6	8a 50 09	 mov	 dl, BYTE PTR [eax+9]
  000b9	84 d2		 test	 dl, dl
  000bb	0f 84 02 01 00
	00		 je	 $LN87@LoadString@3
  000c1	32 d1		 xor	 dl, cl
  000c3	88 55 ed	 mov	 BYTE PTR __k$[ebp+9], dl
  000c6	8a 50 0a	 mov	 dl, BYTE PTR [eax+10]
  000c9	84 d2		 test	 dl, dl
  000cb	0f 84 ec 00 00
	00		 je	 $LN86@LoadString@3
  000d1	80 f2 eb	 xor	 dl, -21			; ffffffebH
  000d4	88 55 ee	 mov	 BYTE PTR __k$[ebp+10], dl
  000d7	8a 50 0b	 mov	 dl, BYTE PTR [eax+11]
  000da	84 d2		 test	 dl, dl
  000dc	0f 84 d5 00 00
	00		 je	 $LN85@LoadString@3
  000e2	80 f2 ea	 xor	 dl, -22			; ffffffeaH
  000e5	88 55 ef	 mov	 BYTE PTR __k$[ebp+11], dl
  000e8	8a 50 0c	 mov	 dl, BYTE PTR [eax+12]
  000eb	84 d2		 test	 dl, dl
  000ed	0f 84 be 00 00
	00		 je	 $LN84@LoadString@3
  000f3	80 f2 ed	 xor	 dl, -19			; ffffffedH
  000f6	88 55 f0	 mov	 BYTE PTR __k$[ebp+12], dl
  000f9	8a 50 0d	 mov	 dl, BYTE PTR [eax+13]
  000fc	84 d2		 test	 dl, dl
  000fe	0f 84 a8 00 00
	00		 je	 $LN83@LoadString@3
  00104	32 d1		 xor	 dl, cl
  00106	88 55 f1	 mov	 BYTE PTR __k$[ebp+13], dl
  00109	8a 50 0e	 mov	 dl, BYTE PTR [eax+14]
  0010c	84 d2		 test	 dl, dl
  0010e	0f 84 92 00 00
	00		 je	 $LN82@LoadString@3
  00114	80 f2 eb	 xor	 dl, -21			; ffffffebH
  00117	88 55 f2	 mov	 BYTE PTR __k$[ebp+14], dl
  0011a	8a 50 0f	 mov	 dl, BYTE PTR [eax+15]
  0011d	84 d2		 test	 dl, dl
  0011f	74 7f		 je	 SHORT $LN81@LoadString@3
  00121	80 f2 ea	 xor	 dl, -22			; ffffffeaH
  00124	88 55 f3	 mov	 BYTE PTR __k$[ebp+15], dl
  00127	8a 50 10	 mov	 dl, BYTE PTR [eax+16]
  0012a	84 d2		 test	 dl, dl
  0012c	74 6c		 je	 SHORT $LN80@LoadString@3
  0012e	80 f2 ed	 xor	 dl, -19			; ffffffedH
  00131	88 55 f4	 mov	 BYTE PTR __k$[ebp+16], dl
  00134	8a 50 11	 mov	 dl, BYTE PTR [eax+17]
  00137	84 d2		 test	 dl, dl
  00139	74 5a		 je	 SHORT $LN79@LoadString@3
  0013b	32 d1		 xor	 dl, cl
  0013d	80 78 12 00	 cmp	 BYTE PTR [eax+18], 0
  00141	88 55 f5	 mov	 BYTE PTR __k$[ebp+17], dl
  00144	0f 84 b1 00 00
	00		 je	 $LN111@LoadString@3
  0014a	8a 50 13	 mov	 dl, BYTE PTR [eax+19]
  0014d	84 d2		 test	 dl, dl
  0014f	74 3e		 je	 SHORT $LN77@LoadString@3
  00151	80 f2 ea	 xor	 dl, -22			; ffffffeaH
  00154	88 55 f7	 mov	 BYTE PTR __k$[ebp+19], dl
  00157	8a 50 14	 mov	 dl, BYTE PTR [eax+20]
  0015a	84 d2		 test	 dl, dl
  0015c	74 2b		 je	 SHORT $LN76@LoadString@3
  0015e	80 f2 ed	 xor	 dl, -19			; ffffffedH
  00161	88 55 f8	 mov	 BYTE PTR __k$[ebp+20], dl
  00164	8a 50 15	 mov	 dl, BYTE PTR [eax+21]
  00167	84 d2		 test	 dl, dl
  00169	74 19		 je	 SHORT $LN75@LoadString@3
  0016b	8a 40 16	 mov	 al, BYTE PTR [eax+22]
  0016e	32 d1		 xor	 dl, cl
  00170	88 55 f9	 mov	 BYTE PTR __k$[ebp+21], dl
  00173	84 c0		 test	 al, al
  00175	74 07		 je	 SHORT $LN74@LoadString@3
  00177	34 eb		 xor	 al, -21			; ffffffebH
  00179	88 45 fa	 mov	 BYTE PTR __k$[ebp+22], al
  0017c	eb 7d		 jmp	 SHORT $LN111@LoadString@3
$LN74@LoadString@3:
  0017e	c6 45 fa eb	 mov	 BYTE PTR __k$[ebp+22], -21 ; ffffffebH
  00182	eb 77		 jmp	 SHORT $LN111@LoadString@3
$LN75@LoadString@3:
  00184	88 4d f9	 mov	 BYTE PTR __k$[ebp+21], cl
  00187	eb 72		 jmp	 SHORT $LN111@LoadString@3
$LN76@LoadString@3:
  00189	c6 45 f8 ed	 mov	 BYTE PTR __k$[ebp+20], -19 ; ffffffedH
  0018d	eb 6c		 jmp	 SHORT $LN111@LoadString@3
$LN77@LoadString@3:
  0018f	c6 45 f7 ea	 mov	 BYTE PTR __k$[ebp+19], -22 ; ffffffeaH
  00193	eb 66		 jmp	 SHORT $LN111@LoadString@3
$LN79@LoadString@3:
  00195	88 4d f5	 mov	 BYTE PTR __k$[ebp+17], cl
  00198	eb 61		 jmp	 SHORT $LN111@LoadString@3
$LN80@LoadString@3:
  0019a	c6 45 f4 ed	 mov	 BYTE PTR __k$[ebp+16], -19 ; ffffffedH
  0019e	eb 5b		 jmp	 SHORT $LN111@LoadString@3
$LN81@LoadString@3:
  001a0	c6 45 f3 ea	 mov	 BYTE PTR __k$[ebp+15], -22 ; ffffffeaH
  001a4	eb 55		 jmp	 SHORT $LN111@LoadString@3
$LN82@LoadString@3:
  001a6	c6 45 f2 eb	 mov	 BYTE PTR __k$[ebp+14], -21 ; ffffffebH
  001aa	eb 4f		 jmp	 SHORT $LN111@LoadString@3
$LN83@LoadString@3:
  001ac	88 4d f1	 mov	 BYTE PTR __k$[ebp+13], cl
  001af	eb 4a		 jmp	 SHORT $LN111@LoadString@3
$LN84@LoadString@3:
  001b1	c6 45 f0 ed	 mov	 BYTE PTR __k$[ebp+12], -19 ; ffffffedH
  001b5	eb 44		 jmp	 SHORT $LN111@LoadString@3
$LN85@LoadString@3:
  001b7	c6 45 ef ea	 mov	 BYTE PTR __k$[ebp+11], -22 ; ffffffeaH
  001bb	eb 3e		 jmp	 SHORT $LN111@LoadString@3
$LN86@LoadString@3:
  001bd	c6 45 ee eb	 mov	 BYTE PTR __k$[ebp+10], -21 ; ffffffebH
  001c1	eb 38		 jmp	 SHORT $LN111@LoadString@3
$LN87@LoadString@3:
  001c3	88 4d ed	 mov	 BYTE PTR __k$[ebp+9], cl
  001c6	eb 33		 jmp	 SHORT $LN111@LoadString@3
$LN88@LoadString@3:
  001c8	c6 45 ec ed	 mov	 BYTE PTR __k$[ebp+8], -19 ; ffffffedH
  001cc	eb 2d		 jmp	 SHORT $LN111@LoadString@3
$LN89@LoadString@3:
  001ce	c6 45 eb ea	 mov	 BYTE PTR __k$[ebp+7], -22 ; ffffffeaH
  001d2	eb 27		 jmp	 SHORT $LN111@LoadString@3
$LN90@LoadString@3:
  001d4	c6 45 ea eb	 mov	 BYTE PTR __k$[ebp+6], -21 ; ffffffebH
  001d8	eb 21		 jmp	 SHORT $LN111@LoadString@3
$LN91@LoadString@3:
  001da	88 4d e9	 mov	 BYTE PTR __k$[ebp+5], cl
  001dd	eb 1c		 jmp	 SHORT $LN111@LoadString@3
$LN92@LoadString@3:
  001df	c6 45 e8 ed	 mov	 BYTE PTR __k$[ebp+4], -19 ; ffffffedH
  001e3	eb 16		 jmp	 SHORT $LN111@LoadString@3
$LN93@LoadString@3:
  001e5	c6 45 e7 ea	 mov	 BYTE PTR __k$[ebp+3], -22 ; ffffffeaH
  001e9	eb 10		 jmp	 SHORT $LN111@LoadString@3
$LN94@LoadString@3:
  001eb	c6 45 e6 eb	 mov	 BYTE PTR __k$[ebp+2], -21 ; ffffffebH
  001ef	eb 0a		 jmp	 SHORT $LN111@LoadString@3
$LN95@LoadString@3:
  001f1	c6 45 e5 ec	 mov	 BYTE PTR __k$[ebp+1], -20 ; ffffffecH
  001f5	eb 04		 jmp	 SHORT $LN111@LoadString@3
$LN96@LoadString@3:
  001f7	c6 45 e4 ed	 mov	 BYTE PTR __k$[ebp], -19	; ffffffedH
$LN111@LoadString@3:
  001fb	6a 04		 push	 4
  001fd	8d 45 e4	 lea	 eax, DWORD PTR __k$[ebp]
  00200	c6 45 f6 00	 mov	 BYTE PTR __k$[ebp+18], 0
  00204	5a		 pop	 edx
$LL104@LoadString@3:
  00205	81 30 ed ec eb
	ea		 xor	 DWORD PTR [eax], -353637139 ; eaebecedH
  0020b	83 c0 04	 add	 eax, 4
  0020e	4a		 dec	 edx
  0020f	75 f4		 jne	 SHORT $LL104@LoadString@3
  00211	6a 10		 push	 16			; 00000010H
  00213	58		 pop	 eax
$LL101@LoadString@3:
  00214	8b c8		 mov	 ecx, eax
  00216	81 e1 03 00 00
	80		 and	 ecx, -2147483645	; 80000003H
  0021c	79 05		 jns	 SHORT $LN112@LoadString@3
  0021e	49		 dec	 ecx
  0021f	83 c9 fc	 or	 ecx, -4			; fffffffcH
  00222	41		 inc	 ecx
$LN112@LoadString@3:
  00223	b2 ed		 mov	 dl, -19			; ffffffedH
  00225	2a d1		 sub	 dl, cl
  00227	30 54 05 e4	 xor	 BYTE PTR __k$[ebp+eax], dl
  0022b	40		 inc	 eax
  0022c	83 f8 12	 cmp	 eax, 18			; 00000012H
  0022f	7c e3		 jl	 SHORT $LL101@LoadString@3

; 163  : 		LoadString(_k, d, b, i);

  00231	ff 75 14	 push	 DWORD PTR _i$[ebp]
  00234	8b 4d e0	 mov	 ecx, DWORD PTR _this$GSCopy$[ebp]
  00237	57		 push	 edi
  00238	56		 push	 esi
  00239	8d 45 e4	 lea	 eax, DWORD PTR __k$[ebp]
  0023c	50		 push	 eax
  0023d	ff 15 00 00 00
	00		 call	 DWORD PTR __imp_?LoadStringA@ioINILoader@@QAEXPBD0PADH@Z

; 164  : 	}

  00243	8b 4d fc	 mov	 ecx, DWORD PTR __$ArrayPad$[ebp]
  00246	5f		 pop	 edi
  00247	33 cd		 xor	 ecx, ebp
  00249	5e		 pop	 esi
  0024a	e8 00 00 00 00	 call	 @__security_check_cookie@4
  0024f	c9		 leave
  00250	c2 10 00	 ret	 16			; 00000010H
??$LoadString_e@$0BD@@ioINILoader@@QAEXAAY0BD@$$CBDAAY00$$CBDPADH@Z ENDP ; ioINILoader::LoadString_e<19>
_TEXT	ENDS
PUBLIC	_this$GSCopy$
PUBLIC	__$ArrayPad$
PUBLIC	??$LoadString_e@$0BA@@ioINILoader@@QAEXAAY0BA@$$CBDAAY00$$CBDPADH@Z ; ioINILoader::LoadString_e<16>
; Function compile flags: /Ogsp
;	COMDAT ??$LoadString_e@$0BA@@ioINILoader@@QAEXAAY0BA@$$CBDAAY00$$CBDPADH@Z
_TEXT	SEGMENT
_this$GSCopy$ = -28					; size = 4
__k$ = -24						; size = 16
__$ArrayPad$ = -4					; size = 4
_k$ = 8							; size = 4
_d$ = 12						; size = 4
_b$ = 16						; size = 4
_i$ = 20						; size = 4
??$LoadString_e@$0BA@@ioINILoader@@QAEXAAY0BA@$$CBDAAY00$$CBDPADH@Z PROC ; ioINILoader::LoadString_e<16>, COMDAT
; _this$ = ecx

; 161  : 	{

  00000	55		 push	 ebp
  00001	8b ec		 mov	 ebp, esp
  00003	83 ec 1c	 sub	 esp, 28			; 0000001cH
  00006	a1 00 00 00 00	 mov	 eax, DWORD PTR ___security_cookie
  0000b	33 c5		 xor	 eax, ebp
  0000d	89 45 fc	 mov	 DWORD PTR __$ArrayPad$[ebp], eax
  00010	8b 45 08	 mov	 eax, DWORD PTR _k$[ebp]

; 162  : 		_ENCSTR(k, _k);

  00013	8a 10		 mov	 dl, BYTE PTR [eax]
  00015	56		 push	 esi
  00016	8b 75 0c	 mov	 esi, DWORD PTR _d$[ebp]
  00019	57		 push	 edi
  0001a	8b 7d 10	 mov	 edi, DWORD PTR _b$[ebp]
  0001d	89 4d e4	 mov	 DWORD PTR _this$GSCopy$[ebp], ecx
  00020	84 d2		 test	 dl, dl
  00022	0f 84 8c 01 00
	00		 je	 $LN96@LoadString@4
  00028	80 f2 ed	 xor	 dl, -19			; ffffffedH
  0002b	88 55 e8	 mov	 BYTE PTR __k$[ebp], dl
  0002e	8a 50 01	 mov	 dl, BYTE PTR [eax+1]
  00031	84 d2		 test	 dl, dl
  00033	0f 84 75 01 00
	00		 je	 $LN95@LoadString@4
  00039	80 f2 ec	 xor	 dl, -20			; ffffffecH
  0003c	88 55 e9	 mov	 BYTE PTR __k$[ebp+1], dl
  0003f	8a 50 02	 mov	 dl, BYTE PTR [eax+2]
  00042	84 d2		 test	 dl, dl
  00044	0f 84 5e 01 00
	00		 je	 $LN94@LoadString@4
  0004a	b1 eb		 mov	 cl, -21			; ffffffebH
  0004c	32 d1		 xor	 dl, cl
  0004e	88 55 ea	 mov	 BYTE PTR __k$[ebp+2], dl
  00051	8a 50 03	 mov	 dl, BYTE PTR [eax+3]
  00054	84 d2		 test	 dl, dl
  00056	0f 84 46 01 00
	00		 je	 $LN93@LoadString@4
  0005c	80 f2 ea	 xor	 dl, -22			; ffffffeaH
  0005f	88 55 eb	 mov	 BYTE PTR __k$[ebp+3], dl
  00062	8a 50 04	 mov	 dl, BYTE PTR [eax+4]
  00065	84 d2		 test	 dl, dl
  00067	0f 84 2f 01 00
	00		 je	 $LN92@LoadString@4
  0006d	80 f2 ed	 xor	 dl, -19			; ffffffedH
  00070	88 55 ec	 mov	 BYTE PTR __k$[ebp+4], dl
  00073	8a 50 05	 mov	 dl, BYTE PTR [eax+5]
  00076	84 d2		 test	 dl, dl
  00078	0f 84 18 01 00
	00		 je	 $LN91@LoadString@4
  0007e	80 f2 ec	 xor	 dl, -20			; ffffffecH
  00081	88 55 ed	 mov	 BYTE PTR __k$[ebp+5], dl
  00084	8a 50 06	 mov	 dl, BYTE PTR [eax+6]
  00087	84 d2		 test	 dl, dl
  00089	0f 84 02 01 00
	00		 je	 $LN90@LoadString@4
  0008f	32 d1		 xor	 dl, cl
  00091	88 55 ee	 mov	 BYTE PTR __k$[ebp+6], dl
  00094	8a 50 07	 mov	 dl, BYTE PTR [eax+7]
  00097	84 d2		 test	 dl, dl
  00099	0f 84 ec 00 00
	00		 je	 $LN89@LoadString@4
  0009f	80 f2 ea	 xor	 dl, -22			; ffffffeaH
  000a2	88 55 ef	 mov	 BYTE PTR __k$[ebp+7], dl
  000a5	8a 50 08	 mov	 dl, BYTE PTR [eax+8]
  000a8	84 d2		 test	 dl, dl
  000aa	0f 84 d5 00 00
	00		 je	 $LN88@LoadString@4
  000b0	80 f2 ed	 xor	 dl, -19			; ffffffedH
  000b3	88 55 f0	 mov	 BYTE PTR __k$[ebp+8], dl
  000b6	8a 50 09	 mov	 dl, BYTE PTR [eax+9]
  000b9	84 d2		 test	 dl, dl
  000bb	0f 84 be 00 00
	00		 je	 $LN87@LoadString@4
  000c1	80 f2 ec	 xor	 dl, -20			; ffffffecH
  000c4	88 55 f1	 mov	 BYTE PTR __k$[ebp+9], dl
  000c7	8a 50 0a	 mov	 dl, BYTE PTR [eax+10]
  000ca	84 d2		 test	 dl, dl
  000cc	0f 84 a8 00 00
	00		 je	 $LN86@LoadString@4
  000d2	32 d1		 xor	 dl, cl
  000d4	88 55 f2	 mov	 BYTE PTR __k$[ebp+10], dl
  000d7	8a 50 0b	 mov	 dl, BYTE PTR [eax+11]
  000da	84 d2		 test	 dl, dl
  000dc	0f 84 92 00 00
	00		 je	 $LN85@LoadString@4
  000e2	80 f2 ea	 xor	 dl, -22			; ffffffeaH
  000e5	88 55 f3	 mov	 BYTE PTR __k$[ebp+11], dl
  000e8	8a 50 0c	 mov	 dl, BYTE PTR [eax+12]
  000eb	84 d2		 test	 dl, dl
  000ed	74 7f		 je	 SHORT $LN84@LoadString@4
  000ef	80 f2 ed	 xor	 dl, -19			; ffffffedH
  000f2	88 55 f4	 mov	 BYTE PTR __k$[ebp+12], dl
  000f5	8a 50 0d	 mov	 dl, BYTE PTR [eax+13]
  000f8	84 d2		 test	 dl, dl
  000fa	74 6c		 je	 SHORT $LN83@LoadString@4
  000fc	80 f2 ec	 xor	 dl, -20			; ffffffecH
  000ff	88 55 f5	 mov	 BYTE PTR __k$[ebp+13], dl
  00102	8a 50 0e	 mov	 dl, BYTE PTR [eax+14]
  00105	84 d2		 test	 dl, dl
  00107	74 5a		 je	 SHORT $LN82@LoadString@4
  00109	32 d1		 xor	 dl, cl
  0010b	80 78 0f 00	 cmp	 BYTE PTR [eax+15], 0
  0010f	88 55 f6	 mov	 BYTE PTR __k$[ebp+14], dl
  00112	0f 84 a0 00 00
	00		 je	 $LN111@LoadString@4
  00118	8a 50 10	 mov	 dl, BYTE PTR [eax+16]
  0011b	84 d2		 test	 dl, dl
  0011d	74 3e		 je	 SHORT $LN80@LoadString@4
  0011f	80 f2 ed	 xor	 dl, -19			; ffffffedH
  00122	88 55 f8	 mov	 BYTE PTR __k$[ebp+16], dl
  00125	8a 50 11	 mov	 dl, BYTE PTR [eax+17]
  00128	84 d2		 test	 dl, dl
  0012a	74 2b		 je	 SHORT $LN79@LoadString@4
  0012c	80 f2 ec	 xor	 dl, -20			; ffffffecH
  0012f	88 55 f9	 mov	 BYTE PTR __k$[ebp+17], dl
  00132	8a 50 12	 mov	 dl, BYTE PTR [eax+18]
  00135	84 d2		 test	 dl, dl
  00137	74 19		 je	 SHORT $LN78@LoadString@4
  00139	8a 40 13	 mov	 al, BYTE PTR [eax+19]
  0013c	32 d1		 xor	 dl, cl
  0013e	88 55 fa	 mov	 BYTE PTR __k$[ebp+18], dl
  00141	84 c0		 test	 al, al
  00143	74 07		 je	 SHORT $LN77@LoadString@4
  00145	34 ea		 xor	 al, -22			; ffffffeaH
  00147	88 45 fb	 mov	 BYTE PTR __k$[ebp+19], al
  0014a	eb 6c		 jmp	 SHORT $LN111@LoadString@4
$LN77@LoadString@4:
  0014c	c6 45 fb ea	 mov	 BYTE PTR __k$[ebp+19], -22 ; ffffffeaH
  00150	eb 66		 jmp	 SHORT $LN111@LoadString@4
$LN78@LoadString@4:
  00152	88 4d fa	 mov	 BYTE PTR __k$[ebp+18], cl
  00155	eb 61		 jmp	 SHORT $LN111@LoadString@4
$LN79@LoadString@4:
  00157	c6 45 f9 ec	 mov	 BYTE PTR __k$[ebp+17], -20 ; ffffffecH
  0015b	eb 5b		 jmp	 SHORT $LN111@LoadString@4
$LN80@LoadString@4:
  0015d	c6 45 f8 ed	 mov	 BYTE PTR __k$[ebp+16], -19 ; ffffffedH
  00161	eb 55		 jmp	 SHORT $LN111@LoadString@4
$LN82@LoadString@4:
  00163	88 4d f6	 mov	 BYTE PTR __k$[ebp+14], cl
  00166	eb 50		 jmp	 SHORT $LN111@LoadString@4
$LN83@LoadString@4:
  00168	c6 45 f5 ec	 mov	 BYTE PTR __k$[ebp+13], -20 ; ffffffecH
  0016c	eb 4a		 jmp	 SHORT $LN111@LoadString@4
$LN84@LoadString@4:
  0016e	c6 45 f4 ed	 mov	 BYTE PTR __k$[ebp+12], -19 ; ffffffedH
  00172	eb 44		 jmp	 SHORT $LN111@LoadString@4
$LN85@LoadString@4:
  00174	c6 45 f3 ea	 mov	 BYTE PTR __k$[ebp+11], -22 ; ffffffeaH
  00178	eb 3e		 jmp	 SHORT $LN111@LoadString@4
$LN86@LoadString@4:
  0017a	88 4d f2	 mov	 BYTE PTR __k$[ebp+10], cl
  0017d	eb 39		 jmp	 SHORT $LN111@LoadString@4
$LN87@LoadString@4:
  0017f	c6 45 f1 ec	 mov	 BYTE PTR __k$[ebp+9], -20 ; ffffffecH
  00183	eb 33		 jmp	 SHORT $LN111@LoadString@4
$LN88@LoadString@4:
  00185	c6 45 f0 ed	 mov	 BYTE PTR __k$[ebp+8], -19 ; ffffffedH
  00189	eb 2d		 jmp	 SHORT $LN111@LoadString@4
$LN89@LoadString@4:
  0018b	c6 45 ef ea	 mov	 BYTE PTR __k$[ebp+7], -22 ; ffffffeaH
  0018f	eb 27		 jmp	 SHORT $LN111@LoadString@4
$LN90@LoadString@4:
  00191	88 4d ee	 mov	 BYTE PTR __k$[ebp+6], cl
  00194	eb 22		 jmp	 SHORT $LN111@LoadString@4
$LN91@LoadString@4:
  00196	c6 45 ed ec	 mov	 BYTE PTR __k$[ebp+5], -20 ; ffffffecH
  0019a	eb 1c		 jmp	 SHORT $LN111@LoadString@4
$LN92@LoadString@4:
  0019c	c6 45 ec ed	 mov	 BYTE PTR __k$[ebp+4], -19 ; ffffffedH
  001a0	eb 16		 jmp	 SHORT $LN111@LoadString@4
$LN93@LoadString@4:
  001a2	c6 45 eb ea	 mov	 BYTE PTR __k$[ebp+3], -22 ; ffffffeaH
  001a6	eb 10		 jmp	 SHORT $LN111@LoadString@4
$LN94@LoadString@4:
  001a8	c6 45 ea eb	 mov	 BYTE PTR __k$[ebp+2], -21 ; ffffffebH
  001ac	eb 0a		 jmp	 SHORT $LN111@LoadString@4
$LN95@LoadString@4:
  001ae	c6 45 e9 ec	 mov	 BYTE PTR __k$[ebp+1], -20 ; ffffffecH
  001b2	eb 04		 jmp	 SHORT $LN111@LoadString@4
$LN96@LoadString@4:
  001b4	c6 45 e8 ed	 mov	 BYTE PTR __k$[ebp], -19	; ffffffedH
$LN111@LoadString@4:
  001b8	6a 03		 push	 3
  001ba	8d 45 e8	 lea	 eax, DWORD PTR __k$[ebp]
  001bd	c6 45 f7 00	 mov	 BYTE PTR __k$[ebp+15], 0
  001c1	5a		 pop	 edx
$LL104@LoadString@4:
  001c2	81 30 ed ec eb
	ea		 xor	 DWORD PTR [eax], -353637139 ; eaebecedH
  001c8	83 c0 04	 add	 eax, 4
  001cb	4a		 dec	 edx
  001cc	75 f4		 jne	 SHORT $LL104@LoadString@4
  001ce	6a 0c		 push	 12			; 0000000cH
  001d0	58		 pop	 eax
$LL101@LoadString@4:
  001d1	8b c8		 mov	 ecx, eax
  001d3	81 e1 03 00 00
	80		 and	 ecx, -2147483645	; 80000003H
  001d9	79 05		 jns	 SHORT $LN112@LoadString@4
  001db	49		 dec	 ecx
  001dc	83 c9 fc	 or	 ecx, -4			; fffffffcH
  001df	41		 inc	 ecx
$LN112@LoadString@4:
  001e0	b2 ed		 mov	 dl, -19			; ffffffedH
  001e2	2a d1		 sub	 dl, cl
  001e4	30 54 05 e8	 xor	 BYTE PTR __k$[ebp+eax], dl
  001e8	40		 inc	 eax
  001e9	83 f8 0f	 cmp	 eax, 15			; 0000000fH
  001ec	7c e3		 jl	 SHORT $LL101@LoadString@4

; 163  : 		LoadString(_k, d, b, i);

  001ee	ff 75 14	 push	 DWORD PTR _i$[ebp]
  001f1	8b 4d e4	 mov	 ecx, DWORD PTR _this$GSCopy$[ebp]
  001f4	57		 push	 edi
  001f5	56		 push	 esi
  001f6	8d 45 e8	 lea	 eax, DWORD PTR __k$[ebp]
  001f9	50		 push	 eax
  001fa	ff 15 00 00 00
	00		 call	 DWORD PTR __imp_?LoadStringA@ioINILoader@@QAEXPBD0PADH@Z

; 164  : 	}

  00200	8b 4d fc	 mov	 ecx, DWORD PTR __$ArrayPad$[ebp]
  00203	5f		 pop	 edi
  00204	33 cd		 xor	 ecx, ebp
  00206	5e		 pop	 esi
  00207	e8 00 00 00 00	 call	 @__security_check_cookie@4
  0020c	c9		 leave
  0020d	c2 10 00	 ret	 16			; 00000010H
??$LoadString_e@$0BA@@ioINILoader@@QAEXAAY0BA@$$CBDAAY00$$CBDPADH@Z ENDP ; ioINILoader::LoadString_e<16>
_TEXT	ENDS
PUBLIC	__$ArrayPad$
PUBLIC	??$LoadInt_e@$0BD@@ioINILoader@@QAEHAAY0BD@$$CBDH@Z ; ioINILoader::LoadInt_e<19>
; Function compile flags: /Ogsp
;	COMDAT ??$LoadInt_e@$0BD@@ioINILoader@@QAEHAAY0BD@$$CBDH@Z
_TEXT	SEGMENT
__k$ = -28						; size = 19
__$ArrayPad$ = -4					; size = 4
_k$ = 8							; size = 4
_i$ = 12						; size = 4
??$LoadInt_e@$0BD@@ioINILoader@@QAEHAAY0BD@$$CBDH@Z PROC ; ioINILoader::LoadInt_e<19>, COMDAT
; _this$ = ecx

; 118  : 	{

  00000	55		 push	 ebp
  00001	8b ec		 mov	 ebp, esp
  00003	83 ec 1c	 sub	 esp, 28			; 0000001cH
  00006	a1 00 00 00 00	 mov	 eax, DWORD PTR ___security_cookie
  0000b	33 c5		 xor	 eax, ebp
  0000d	89 45 fc	 mov	 DWORD PTR __$ArrayPad$[ebp], eax
  00010	8b 45 08	 mov	 eax, DWORD PTR _k$[ebp]

; 119  : 		_ENCSTR(k, _k);

  00013	8a 10		 mov	 dl, BYTE PTR [eax]
  00015	56		 push	 esi
  00016	8b f1		 mov	 esi, ecx
  00018	84 d2		 test	 dl, dl
  0001a	0f 84 cf 01 00
	00		 je	 $LN96@LoadInt_e@2
  00020	80 f2 ed	 xor	 dl, -19			; ffffffedH
  00023	88 55 e4	 mov	 BYTE PTR __k$[ebp], dl
  00026	8a 50 01	 mov	 dl, BYTE PTR [eax+1]
  00029	84 d2		 test	 dl, dl
  0002b	0f 84 b8 01 00
	00		 je	 $LN95@LoadInt_e@2
  00031	b1 ec		 mov	 cl, -20			; ffffffecH
  00033	32 d1		 xor	 dl, cl
  00035	88 55 e5	 mov	 BYTE PTR __k$[ebp+1], dl
  00038	8a 50 02	 mov	 dl, BYTE PTR [eax+2]
  0003b	84 d2		 test	 dl, dl
  0003d	0f 84 a0 01 00
	00		 je	 $LN94@LoadInt_e@2
  00043	80 f2 eb	 xor	 dl, -21			; ffffffebH
  00046	88 55 e6	 mov	 BYTE PTR __k$[ebp+2], dl
  00049	8a 50 03	 mov	 dl, BYTE PTR [eax+3]
  0004c	84 d2		 test	 dl, dl
  0004e	0f 84 89 01 00
	00		 je	 $LN93@LoadInt_e@2
  00054	80 f2 ea	 xor	 dl, -22			; ffffffeaH
  00057	88 55 e7	 mov	 BYTE PTR __k$[ebp+3], dl
  0005a	8a 50 04	 mov	 dl, BYTE PTR [eax+4]
  0005d	84 d2		 test	 dl, dl
  0005f	0f 84 72 01 00
	00		 je	 $LN92@LoadInt_e@2
  00065	80 f2 ed	 xor	 dl, -19			; ffffffedH
  00068	88 55 e8	 mov	 BYTE PTR __k$[ebp+4], dl
  0006b	8a 50 05	 mov	 dl, BYTE PTR [eax+5]
  0006e	84 d2		 test	 dl, dl
  00070	0f 84 5c 01 00
	00		 je	 $LN91@LoadInt_e@2
  00076	32 d1		 xor	 dl, cl
  00078	88 55 e9	 mov	 BYTE PTR __k$[ebp+5], dl
  0007b	8a 50 06	 mov	 dl, BYTE PTR [eax+6]
  0007e	84 d2		 test	 dl, dl
  00080	0f 84 46 01 00
	00		 je	 $LN90@LoadInt_e@2
  00086	80 f2 eb	 xor	 dl, -21			; ffffffebH
  00089	88 55 ea	 mov	 BYTE PTR __k$[ebp+6], dl
  0008c	8a 50 07	 mov	 dl, BYTE PTR [eax+7]
  0008f	84 d2		 test	 dl, dl
  00091	0f 84 2f 01 00
	00		 je	 $LN89@LoadInt_e@2
  00097	80 f2 ea	 xor	 dl, -22			; ffffffeaH
  0009a	88 55 eb	 mov	 BYTE PTR __k$[ebp+7], dl
  0009d	8a 50 08	 mov	 dl, BYTE PTR [eax+8]
  000a0	84 d2		 test	 dl, dl
  000a2	0f 84 18 01 00
	00		 je	 $LN88@LoadInt_e@2
  000a8	80 f2 ed	 xor	 dl, -19			; ffffffedH
  000ab	88 55 ec	 mov	 BYTE PTR __k$[ebp+8], dl
  000ae	8a 50 09	 mov	 dl, BYTE PTR [eax+9]
  000b1	84 d2		 test	 dl, dl
  000b3	0f 84 02 01 00
	00		 je	 $LN87@LoadInt_e@2
  000b9	32 d1		 xor	 dl, cl
  000bb	88 55 ed	 mov	 BYTE PTR __k$[ebp+9], dl
  000be	8a 50 0a	 mov	 dl, BYTE PTR [eax+10]
  000c1	84 d2		 test	 dl, dl
  000c3	0f 84 ec 00 00
	00		 je	 $LN86@LoadInt_e@2
  000c9	80 f2 eb	 xor	 dl, -21			; ffffffebH
  000cc	88 55 ee	 mov	 BYTE PTR __k$[ebp+10], dl
  000cf	8a 50 0b	 mov	 dl, BYTE PTR [eax+11]
  000d2	84 d2		 test	 dl, dl
  000d4	0f 84 d5 00 00
	00		 je	 $LN85@LoadInt_e@2
  000da	80 f2 ea	 xor	 dl, -22			; ffffffeaH
  000dd	88 55 ef	 mov	 BYTE PTR __k$[ebp+11], dl
  000e0	8a 50 0c	 mov	 dl, BYTE PTR [eax+12]
  000e3	84 d2		 test	 dl, dl
  000e5	0f 84 be 00 00
	00		 je	 $LN84@LoadInt_e@2
  000eb	80 f2 ed	 xor	 dl, -19			; ffffffedH
  000ee	88 55 f0	 mov	 BYTE PTR __k$[ebp+12], dl
  000f1	8a 50 0d	 mov	 dl, BYTE PTR [eax+13]
  000f4	84 d2		 test	 dl, dl
  000f6	0f 84 a8 00 00
	00		 je	 $LN83@LoadInt_e@2
  000fc	32 d1		 xor	 dl, cl
  000fe	88 55 f1	 mov	 BYTE PTR __k$[ebp+13], dl
  00101	8a 50 0e	 mov	 dl, BYTE PTR [eax+14]
  00104	84 d2		 test	 dl, dl
  00106	0f 84 92 00 00
	00		 je	 $LN82@LoadInt_e@2
  0010c	80 f2 eb	 xor	 dl, -21			; ffffffebH
  0010f	88 55 f2	 mov	 BYTE PTR __k$[ebp+14], dl
  00112	8a 50 0f	 mov	 dl, BYTE PTR [eax+15]
  00115	84 d2		 test	 dl, dl
  00117	74 7f		 je	 SHORT $LN81@LoadInt_e@2
  00119	80 f2 ea	 xor	 dl, -22			; ffffffeaH
  0011c	88 55 f3	 mov	 BYTE PTR __k$[ebp+15], dl
  0011f	8a 50 10	 mov	 dl, BYTE PTR [eax+16]
  00122	84 d2		 test	 dl, dl
  00124	74 6c		 je	 SHORT $LN80@LoadInt_e@2
  00126	80 f2 ed	 xor	 dl, -19			; ffffffedH
  00129	88 55 f4	 mov	 BYTE PTR __k$[ebp+16], dl
  0012c	8a 50 11	 mov	 dl, BYTE PTR [eax+17]
  0012f	84 d2		 test	 dl, dl
  00131	74 5a		 je	 SHORT $LN79@LoadInt_e@2
  00133	32 d1		 xor	 dl, cl
  00135	80 78 12 00	 cmp	 BYTE PTR [eax+18], 0
  00139	88 55 f5	 mov	 BYTE PTR __k$[ebp+17], dl
  0013c	0f 84 b1 00 00
	00		 je	 $LN1@LoadInt_e@2
  00142	8a 50 13	 mov	 dl, BYTE PTR [eax+19]
  00145	84 d2		 test	 dl, dl
  00147	74 3e		 je	 SHORT $LN77@LoadInt_e@2
  00149	80 f2 ea	 xor	 dl, -22			; ffffffeaH
  0014c	88 55 f7	 mov	 BYTE PTR __k$[ebp+19], dl
  0014f	8a 50 14	 mov	 dl, BYTE PTR [eax+20]
  00152	84 d2		 test	 dl, dl
  00154	74 2b		 je	 SHORT $LN76@LoadInt_e@2
  00156	80 f2 ed	 xor	 dl, -19			; ffffffedH
  00159	88 55 f8	 mov	 BYTE PTR __k$[ebp+20], dl
  0015c	8a 50 15	 mov	 dl, BYTE PTR [eax+21]
  0015f	84 d2		 test	 dl, dl
  00161	74 19		 je	 SHORT $LN75@LoadInt_e@2
  00163	8a 40 16	 mov	 al, BYTE PTR [eax+22]
  00166	32 d1		 xor	 dl, cl
  00168	88 55 f9	 mov	 BYTE PTR __k$[ebp+21], dl
  0016b	84 c0		 test	 al, al
  0016d	74 07		 je	 SHORT $LN74@LoadInt_e@2
  0016f	34 eb		 xor	 al, -21			; ffffffebH
  00171	88 45 fa	 mov	 BYTE PTR __k$[ebp+22], al
  00174	eb 7d		 jmp	 SHORT $LN1@LoadInt_e@2
$LN74@LoadInt_e@2:
  00176	c6 45 fa eb	 mov	 BYTE PTR __k$[ebp+22], -21 ; ffffffebH
  0017a	eb 77		 jmp	 SHORT $LN1@LoadInt_e@2
$LN75@LoadInt_e@2:
  0017c	88 4d f9	 mov	 BYTE PTR __k$[ebp+21], cl
  0017f	eb 72		 jmp	 SHORT $LN1@LoadInt_e@2
$LN76@LoadInt_e@2:
  00181	c6 45 f8 ed	 mov	 BYTE PTR __k$[ebp+20], -19 ; ffffffedH
  00185	eb 6c		 jmp	 SHORT $LN1@LoadInt_e@2
$LN77@LoadInt_e@2:
  00187	c6 45 f7 ea	 mov	 BYTE PTR __k$[ebp+19], -22 ; ffffffeaH
  0018b	eb 66		 jmp	 SHORT $LN1@LoadInt_e@2
$LN79@LoadInt_e@2:
  0018d	88 4d f5	 mov	 BYTE PTR __k$[ebp+17], cl
  00190	eb 61		 jmp	 SHORT $LN1@LoadInt_e@2
$LN80@LoadInt_e@2:
  00192	c6 45 f4 ed	 mov	 BYTE PTR __k$[ebp+16], -19 ; ffffffedH
  00196	eb 5b		 jmp	 SHORT $LN1@LoadInt_e@2
$LN81@LoadInt_e@2:
  00198	c6 45 f3 ea	 mov	 BYTE PTR __k$[ebp+15], -22 ; ffffffeaH
  0019c	eb 55		 jmp	 SHORT $LN1@LoadInt_e@2
$LN82@LoadInt_e@2:
  0019e	c6 45 f2 eb	 mov	 BYTE PTR __k$[ebp+14], -21 ; ffffffebH
  001a2	eb 4f		 jmp	 SHORT $LN1@LoadInt_e@2
$LN83@LoadInt_e@2:
  001a4	88 4d f1	 mov	 BYTE PTR __k$[ebp+13], cl
  001a7	eb 4a		 jmp	 SHORT $LN1@LoadInt_e@2
$LN84@LoadInt_e@2:
  001a9	c6 45 f0 ed	 mov	 BYTE PTR __k$[ebp+12], -19 ; ffffffedH
  001ad	eb 44		 jmp	 SHORT $LN1@LoadInt_e@2
$LN85@LoadInt_e@2:
  001af	c6 45 ef ea	 mov	 BYTE PTR __k$[ebp+11], -22 ; ffffffeaH
  001b3	eb 3e		 jmp	 SHORT $LN1@LoadInt_e@2
$LN86@LoadInt_e@2:
  001b5	c6 45 ee eb	 mov	 BYTE PTR __k$[ebp+10], -21 ; ffffffebH
  001b9	eb 38		 jmp	 SHORT $LN1@LoadInt_e@2
$LN87@LoadInt_e@2:
  001bb	88 4d ed	 mov	 BYTE PTR __k$[ebp+9], cl
  001be	eb 33		 jmp	 SHORT $LN1@LoadInt_e@2
$LN88@LoadInt_e@2:
  001c0	c6 45 ec ed	 mov	 BYTE PTR __k$[ebp+8], -19 ; ffffffedH
  001c4	eb 2d		 jmp	 SHORT $LN1@LoadInt_e@2
$LN89@LoadInt_e@2:
  001c6	c6 45 eb ea	 mov	 BYTE PTR __k$[ebp+7], -22 ; ffffffeaH
  001ca	eb 27		 jmp	 SHORT $LN1@LoadInt_e@2
$LN90@LoadInt_e@2:
  001cc	c6 45 ea eb	 mov	 BYTE PTR __k$[ebp+6], -21 ; ffffffebH
  001d0	eb 21		 jmp	 SHORT $LN1@LoadInt_e@2
$LN91@LoadInt_e@2:
  001d2	88 4d e9	 mov	 BYTE PTR __k$[ebp+5], cl
  001d5	eb 1c		 jmp	 SHORT $LN1@LoadInt_e@2
$LN92@LoadInt_e@2:
  001d7	c6 45 e8 ed	 mov	 BYTE PTR __k$[ebp+4], -19 ; ffffffedH
  001db	eb 16		 jmp	 SHORT $LN1@LoadInt_e@2
$LN93@LoadInt_e@2:
  001dd	c6 45 e7 ea	 mov	 BYTE PTR __k$[ebp+3], -22 ; ffffffeaH
  001e1	eb 10		 jmp	 SHORT $LN1@LoadInt_e@2
$LN94@LoadInt_e@2:
  001e3	c6 45 e6 eb	 mov	 BYTE PTR __k$[ebp+2], -21 ; ffffffebH
  001e7	eb 0a		 jmp	 SHORT $LN1@LoadInt_e@2
$LN95@LoadInt_e@2:
  001e9	c6 45 e5 ec	 mov	 BYTE PTR __k$[ebp+1], -20 ; ffffffecH
  001ed	eb 04		 jmp	 SHORT $LN1@LoadInt_e@2
$LN96@LoadInt_e@2:
  001ef	c6 45 e4 ed	 mov	 BYTE PTR __k$[ebp], -19	; ffffffedH
$LN1@LoadInt_e@2:
  001f3	6a 04		 push	 4
  001f5	8d 45 e4	 lea	 eax, DWORD PTR __k$[ebp]
  001f8	c6 45 f6 00	 mov	 BYTE PTR __k$[ebp+18], 0
  001fc	5a		 pop	 edx
$LL104@LoadInt_e@2:
  001fd	81 30 ed ec eb
	ea		 xor	 DWORD PTR [eax], -353637139 ; eaebecedH
  00203	83 c0 04	 add	 eax, 4
  00206	4a		 dec	 edx
  00207	75 f4		 jne	 SHORT $LL104@LoadInt_e@2
  00209	6a 10		 push	 16			; 00000010H
  0020b	58		 pop	 eax
$LL101@LoadInt_e@2:
  0020c	8b c8		 mov	 ecx, eax
  0020e	81 e1 03 00 00
	80		 and	 ecx, -2147483645	; 80000003H
  00214	79 05		 jns	 SHORT $LN111@LoadInt_e@2
  00216	49		 dec	 ecx
  00217	83 c9 fc	 or	 ecx, -4			; fffffffcH
  0021a	41		 inc	 ecx
$LN111@LoadInt_e@2:
  0021b	b2 ed		 mov	 dl, -19			; ffffffedH
  0021d	2a d1		 sub	 dl, cl
  0021f	30 54 05 e4	 xor	 BYTE PTR __k$[ebp+eax], dl
  00223	40		 inc	 eax
  00224	83 f8 12	 cmp	 eax, 18			; 00000012H
  00227	7c e3		 jl	 SHORT $LL101@LoadInt_e@2

; 120  : 		return LoadInt(_k, i);

  00229	ff 75 0c	 push	 DWORD PTR _i$[ebp]
  0022c	8d 45 e4	 lea	 eax, DWORD PTR __k$[ebp]
  0022f	50		 push	 eax
  00230	8b ce		 mov	 ecx, esi
  00232	ff 15 00 00 00
	00		 call	 DWORD PTR __imp_?LoadInt@ioINILoader@@QAEHPBDH@Z

; 121  : 	}

  00238	8b 4d fc	 mov	 ecx, DWORD PTR __$ArrayPad$[ebp]
  0023b	33 cd		 xor	 ecx, ebp
  0023d	5e		 pop	 esi
  0023e	e8 00 00 00 00	 call	 @__security_check_cookie@4
  00243	c9		 leave
  00244	c2 08 00	 ret	 8
??$LoadInt_e@$0BD@@ioINILoader@@QAEHAAY0BD@$$CBDH@Z ENDP ; ioINILoader::LoadInt_e<19>
_TEXT	ENDS
PUBLIC	__$ArrayPad$
PUBLIC	??$LoadInt_e@$0O@@ioINILoader@@QAEHAAY0O@$$CBDH@Z ; ioINILoader::LoadInt_e<14>
; Function compile flags: /Ogsp
;	COMDAT ??$LoadInt_e@$0O@@ioINILoader@@QAEHAAY0O@$$CBDH@Z
_TEXT	SEGMENT
__k$ = -24						; size = 14
__$ArrayPad$ = -4					; size = 4
_k$ = 8							; size = 4
_i$ = 12						; size = 4
??$LoadInt_e@$0O@@ioINILoader@@QAEHAAY0O@$$CBDH@Z PROC	; ioINILoader::LoadInt_e<14>, COMDAT
; _this$ = ecx

; 118  : 	{

  00000	55		 push	 ebp
  00001	8b ec		 mov	 ebp, esp
  00003	83 ec 18	 sub	 esp, 24			; 00000018H
  00006	a1 00 00 00 00	 mov	 eax, DWORD PTR ___security_cookie
  0000b	33 c5		 xor	 eax, ebp
  0000d	89 45 fc	 mov	 DWORD PTR __$ArrayPad$[ebp], eax
  00010	8b 45 08	 mov	 eax, DWORD PTR _k$[ebp]

; 119  : 		_ENCSTR(k, _k);

  00013	8a 10		 mov	 dl, BYTE PTR [eax]
  00015	56		 push	 esi
  00016	8b f1		 mov	 esi, ecx
  00018	84 d2		 test	 dl, dl
  0001a	0f 84 64 01 00
	00		 je	 $LN96@LoadInt_e@3
  00020	80 f2 ed	 xor	 dl, -19			; ffffffedH
  00023	88 55 e8	 mov	 BYTE PTR __k$[ebp], dl
  00026	8a 50 01	 mov	 dl, BYTE PTR [eax+1]
  00029	84 d2		 test	 dl, dl
  0002b	0f 84 4d 01 00
	00		 je	 $LN95@LoadInt_e@3
  00031	80 f2 ec	 xor	 dl, -20			; ffffffecH
  00034	88 55 e9	 mov	 BYTE PTR __k$[ebp+1], dl
  00037	8a 50 02	 mov	 dl, BYTE PTR [eax+2]
  0003a	84 d2		 test	 dl, dl
  0003c	0f 84 36 01 00
	00		 je	 $LN94@LoadInt_e@3
  00042	b1 eb		 mov	 cl, -21			; ffffffebH
  00044	32 d1		 xor	 dl, cl
  00046	88 55 ea	 mov	 BYTE PTR __k$[ebp+2], dl
  00049	8a 50 03	 mov	 dl, BYTE PTR [eax+3]
  0004c	84 d2		 test	 dl, dl
  0004e	0f 84 1e 01 00
	00		 je	 $LN93@LoadInt_e@3
  00054	80 f2 ea	 xor	 dl, -22			; ffffffeaH
  00057	88 55 eb	 mov	 BYTE PTR __k$[ebp+3], dl
  0005a	8a 50 04	 mov	 dl, BYTE PTR [eax+4]
  0005d	84 d2		 test	 dl, dl
  0005f	0f 84 07 01 00
	00		 je	 $LN92@LoadInt_e@3
  00065	80 f2 ed	 xor	 dl, -19			; ffffffedH
  00068	88 55 ec	 mov	 BYTE PTR __k$[ebp+4], dl
  0006b	8a 50 05	 mov	 dl, BYTE PTR [eax+5]
  0006e	84 d2		 test	 dl, dl
  00070	0f 84 f0 00 00
	00		 je	 $LN91@LoadInt_e@3
  00076	80 f2 ec	 xor	 dl, -20			; ffffffecH
  00079	88 55 ed	 mov	 BYTE PTR __k$[ebp+5], dl
  0007c	8a 50 06	 mov	 dl, BYTE PTR [eax+6]
  0007f	84 d2		 test	 dl, dl
  00081	0f 84 da 00 00
	00		 je	 $LN90@LoadInt_e@3
  00087	32 d1		 xor	 dl, cl
  00089	88 55 ee	 mov	 BYTE PTR __k$[ebp+6], dl
  0008c	8a 50 07	 mov	 dl, BYTE PTR [eax+7]
  0008f	84 d2		 test	 dl, dl
  00091	0f 84 c4 00 00
	00		 je	 $LN89@LoadInt_e@3
  00097	80 f2 ea	 xor	 dl, -22			; ffffffeaH
  0009a	88 55 ef	 mov	 BYTE PTR __k$[ebp+7], dl
  0009d	8a 50 08	 mov	 dl, BYTE PTR [eax+8]
  000a0	84 d2		 test	 dl, dl
  000a2	0f 84 ad 00 00
	00		 je	 $LN88@LoadInt_e@3
  000a8	80 f2 ed	 xor	 dl, -19			; ffffffedH
  000ab	88 55 f0	 mov	 BYTE PTR __k$[ebp+8], dl
  000ae	8a 50 09	 mov	 dl, BYTE PTR [eax+9]
  000b1	84 d2		 test	 dl, dl
  000b3	0f 84 96 00 00
	00		 je	 $LN87@LoadInt_e@3
  000b9	80 f2 ec	 xor	 dl, -20			; ffffffecH
  000bc	88 55 f1	 mov	 BYTE PTR __k$[ebp+9], dl
  000bf	8a 50 0a	 mov	 dl, BYTE PTR [eax+10]
  000c2	84 d2		 test	 dl, dl
  000c4	0f 84 80 00 00
	00		 je	 $LN86@LoadInt_e@3
  000ca	32 d1		 xor	 dl, cl
  000cc	88 55 f2	 mov	 BYTE PTR __k$[ebp+10], dl
  000cf	8a 50 0b	 mov	 dl, BYTE PTR [eax+11]
  000d2	84 d2		 test	 dl, dl
  000d4	74 6e		 je	 SHORT $LN85@LoadInt_e@3
  000d6	80 f2 ea	 xor	 dl, -22			; ffffffeaH
  000d9	88 55 f3	 mov	 BYTE PTR __k$[ebp+11], dl
  000dc	8a 50 0c	 mov	 dl, BYTE PTR [eax+12]
  000df	84 d2		 test	 dl, dl
  000e1	74 5b		 je	 SHORT $LN84@LoadInt_e@3
  000e3	80 f2 ed	 xor	 dl, -19			; ffffffedH
  000e6	80 78 0d 00	 cmp	 BYTE PTR [eax+13], 0
  000ea	88 55 f4	 mov	 BYTE PTR __k$[ebp+12], dl
  000ed	0f 84 95 00 00
	00		 je	 $LN1@LoadInt_e@3
  000f3	8a 50 0e	 mov	 dl, BYTE PTR [eax+14]
  000f6	84 d2		 test	 dl, dl
  000f8	74 3f		 je	 SHORT $LN82@LoadInt_e@3
  000fa	32 d1		 xor	 dl, cl
  000fc	88 55 f6	 mov	 BYTE PTR __k$[ebp+14], dl
  000ff	8a 50 0f	 mov	 dl, BYTE PTR [eax+15]
  00102	84 d2		 test	 dl, dl
  00104	74 2d		 je	 SHORT $LN81@LoadInt_e@3
  00106	80 f2 ea	 xor	 dl, -22			; ffffffeaH
  00109	88 55 f7	 mov	 BYTE PTR __k$[ebp+15], dl
  0010c	8a 50 10	 mov	 dl, BYTE PTR [eax+16]
  0010f	84 d2		 test	 dl, dl
  00111	74 1a		 je	 SHORT $LN80@LoadInt_e@3
  00113	8a 40 11	 mov	 al, BYTE PTR [eax+17]
  00116	80 f2 ed	 xor	 dl, -19			; ffffffedH
  00119	88 55 f8	 mov	 BYTE PTR __k$[ebp+16], dl
  0011c	84 c0		 test	 al, al
  0011e	74 07		 je	 SHORT $LN79@LoadInt_e@3
  00120	34 ec		 xor	 al, -20			; ffffffecH
  00122	88 45 f9	 mov	 BYTE PTR __k$[ebp+17], al
  00125	eb 61		 jmp	 SHORT $LN1@LoadInt_e@3
$LN79@LoadInt_e@3:
  00127	c6 45 f9 ec	 mov	 BYTE PTR __k$[ebp+17], -20 ; ffffffecH
  0012b	eb 5b		 jmp	 SHORT $LN1@LoadInt_e@3
$LN80@LoadInt_e@3:
  0012d	c6 45 f8 ed	 mov	 BYTE PTR __k$[ebp+16], -19 ; ffffffedH
  00131	eb 55		 jmp	 SHORT $LN1@LoadInt_e@3
$LN81@LoadInt_e@3:
  00133	c6 45 f7 ea	 mov	 BYTE PTR __k$[ebp+15], -22 ; ffffffeaH
  00137	eb 4f		 jmp	 SHORT $LN1@LoadInt_e@3
$LN82@LoadInt_e@3:
  00139	88 4d f6	 mov	 BYTE PTR __k$[ebp+14], cl
  0013c	eb 4a		 jmp	 SHORT $LN1@LoadInt_e@3
$LN84@LoadInt_e@3:
  0013e	c6 45 f4 ed	 mov	 BYTE PTR __k$[ebp+12], -19 ; ffffffedH
  00142	eb 44		 jmp	 SHORT $LN1@LoadInt_e@3
$LN85@LoadInt_e@3:
  00144	c6 45 f3 ea	 mov	 BYTE PTR __k$[ebp+11], -22 ; ffffffeaH
  00148	eb 3e		 jmp	 SHORT $LN1@LoadInt_e@3
$LN86@LoadInt_e@3:
  0014a	88 4d f2	 mov	 BYTE PTR __k$[ebp+10], cl
  0014d	eb 39		 jmp	 SHORT $LN1@LoadInt_e@3
$LN87@LoadInt_e@3:
  0014f	c6 45 f1 ec	 mov	 BYTE PTR __k$[ebp+9], -20 ; ffffffecH
  00153	eb 33		 jmp	 SHORT $LN1@LoadInt_e@3
$LN88@LoadInt_e@3:
  00155	c6 45 f0 ed	 mov	 BYTE PTR __k$[ebp+8], -19 ; ffffffedH
  00159	eb 2d		 jmp	 SHORT $LN1@LoadInt_e@3
$LN89@LoadInt_e@3:
  0015b	c6 45 ef ea	 mov	 BYTE PTR __k$[ebp+7], -22 ; ffffffeaH
  0015f	eb 27		 jmp	 SHORT $LN1@LoadInt_e@3
$LN90@LoadInt_e@3:
  00161	88 4d ee	 mov	 BYTE PTR __k$[ebp+6], cl
  00164	eb 22		 jmp	 SHORT $LN1@LoadInt_e@3
$LN91@LoadInt_e@3:
  00166	c6 45 ed ec	 mov	 BYTE PTR __k$[ebp+5], -20 ; ffffffecH
  0016a	eb 1c		 jmp	 SHORT $LN1@LoadInt_e@3
$LN92@LoadInt_e@3:
  0016c	c6 45 ec ed	 mov	 BYTE PTR __k$[ebp+4], -19 ; ffffffedH
  00170	eb 16		 jmp	 SHORT $LN1@LoadInt_e@3
$LN93@LoadInt_e@3:
  00172	c6 45 eb ea	 mov	 BYTE PTR __k$[ebp+3], -22 ; ffffffeaH
  00176	eb 10		 jmp	 SHORT $LN1@LoadInt_e@3
$LN94@LoadInt_e@3:
  00178	c6 45 ea eb	 mov	 BYTE PTR __k$[ebp+2], -21 ; ffffffebH
  0017c	eb 0a		 jmp	 SHORT $LN1@LoadInt_e@3
$LN95@LoadInt_e@3:
  0017e	c6 45 e9 ec	 mov	 BYTE PTR __k$[ebp+1], -20 ; ffffffecH
  00182	eb 04		 jmp	 SHORT $LN1@LoadInt_e@3
$LN96@LoadInt_e@3:
  00184	c6 45 e8 ed	 mov	 BYTE PTR __k$[ebp], -19	; ffffffedH
$LN1@LoadInt_e@3:
  00188	6a 03		 push	 3
  0018a	8d 45 e8	 lea	 eax, DWORD PTR __k$[ebp]
  0018d	c6 45 f5 00	 mov	 BYTE PTR __k$[ebp+13], 0
  00191	5a		 pop	 edx
$LL104@LoadInt_e@3:
  00192	81 30 ed ec eb
	ea		 xor	 DWORD PTR [eax], -353637139 ; eaebecedH
  00198	83 c0 04	 add	 eax, 4
  0019b	4a		 dec	 edx
  0019c	75 f4		 jne	 SHORT $LL104@LoadInt_e@3

; 120  : 		return LoadInt(_k, i);

  0019e	ff 75 0c	 push	 DWORD PTR _i$[ebp]
  001a1	80 75 f4 ed	 xor	 BYTE PTR __k$[ebp+12], -19 ; ffffffedH
  001a5	8d 45 e8	 lea	 eax, DWORD PTR __k$[ebp]
  001a8	50		 push	 eax
  001a9	8b ce		 mov	 ecx, esi
  001ab	ff 15 00 00 00
	00		 call	 DWORD PTR __imp_?LoadInt@ioINILoader@@QAEHPBDH@Z

; 121  : 	}

  001b1	8b 4d fc	 mov	 ecx, DWORD PTR __$ArrayPad$[ebp]
  001b4	33 cd		 xor	 ecx, ebp
  001b6	5e		 pop	 esi
  001b7	e8 00 00 00 00	 call	 @__security_check_cookie@4
  001bc	c9		 leave
  001bd	c2 08 00	 ret	 8
??$LoadInt_e@$0O@@ioINILoader@@QAEHAAY0O@$$CBDH@Z ENDP	; ioINILoader::LoadInt_e<14>
_TEXT	ENDS
PUBLIC	__$ArrayPad$
PUBLIC	??$LoadInt_e@$0BB@@ioINILoader@@QAEHAAY0BB@$$CBDH@Z ; ioINILoader::LoadInt_e<17>
; Function compile flags: /Ogsp
;	COMDAT ??$LoadInt_e@$0BB@@ioINILoader@@QAEHAAY0BB@$$CBDH@Z
_TEXT	SEGMENT
__k$ = -28						; size = 17
__$ArrayPad$ = -4					; size = 4
_k$ = 8							; size = 4
_i$ = 12						; size = 4
??$LoadInt_e@$0BB@@ioINILoader@@QAEHAAY0BB@$$CBDH@Z PROC ; ioINILoader::LoadInt_e<17>, COMDAT
; _this$ = ecx

; 118  : 	{

  00000	55		 push	 ebp
  00001	8b ec		 mov	 ebp, esp
  00003	83 ec 1c	 sub	 esp, 28			; 0000001cH
  00006	a1 00 00 00 00	 mov	 eax, DWORD PTR ___security_cookie
  0000b	33 c5		 xor	 eax, ebp
  0000d	89 45 fc	 mov	 DWORD PTR __$ArrayPad$[ebp], eax
  00010	8b 45 08	 mov	 eax, DWORD PTR _k$[ebp]

; 119  : 		_ENCSTR(k, _k);

  00013	8a 10		 mov	 dl, BYTE PTR [eax]
  00015	56		 push	 esi
  00016	8b f1		 mov	 esi, ecx
  00018	84 d2		 test	 dl, dl
  0001a	0f 84 a7 01 00
	00		 je	 $LN96@LoadInt_e@4
  00020	80 f2 ed	 xor	 dl, -19			; ffffffedH
  00023	88 55 e4	 mov	 BYTE PTR __k$[ebp], dl
  00026	8a 50 01	 mov	 dl, BYTE PTR [eax+1]
  00029	84 d2		 test	 dl, dl
  0002b	0f 84 90 01 00
	00		 je	 $LN95@LoadInt_e@4
  00031	b1 ec		 mov	 cl, -20			; ffffffecH
  00033	32 d1		 xor	 dl, cl
  00035	88 55 e5	 mov	 BYTE PTR __k$[ebp+1], dl
  00038	8a 50 02	 mov	 dl, BYTE PTR [eax+2]
  0003b	84 d2		 test	 dl, dl
  0003d	0f 84 78 01 00
	00		 je	 $LN94@LoadInt_e@4
  00043	80 f2 eb	 xor	 dl, -21			; ffffffebH
  00046	88 55 e6	 mov	 BYTE PTR __k$[ebp+2], dl
  00049	8a 50 03	 mov	 dl, BYTE PTR [eax+3]
  0004c	84 d2		 test	 dl, dl
  0004e	0f 84 61 01 00
	00		 je	 $LN93@LoadInt_e@4
  00054	80 f2 ea	 xor	 dl, -22			; ffffffeaH
  00057	88 55 e7	 mov	 BYTE PTR __k$[ebp+3], dl
  0005a	8a 50 04	 mov	 dl, BYTE PTR [eax+4]
  0005d	84 d2		 test	 dl, dl
  0005f	0f 84 4a 01 00
	00		 je	 $LN92@LoadInt_e@4
  00065	80 f2 ed	 xor	 dl, -19			; ffffffedH
  00068	88 55 e8	 mov	 BYTE PTR __k$[ebp+4], dl
  0006b	8a 50 05	 mov	 dl, BYTE PTR [eax+5]
  0006e	84 d2		 test	 dl, dl
  00070	0f 84 34 01 00
	00		 je	 $LN91@LoadInt_e@4
  00076	32 d1		 xor	 dl, cl
  00078	88 55 e9	 mov	 BYTE PTR __k$[ebp+5], dl
  0007b	8a 50 06	 mov	 dl, BYTE PTR [eax+6]
  0007e	84 d2		 test	 dl, dl
  00080	0f 84 1e 01 00
	00		 je	 $LN90@LoadInt_e@4
  00086	80 f2 eb	 xor	 dl, -21			; ffffffebH
  00089	88 55 ea	 mov	 BYTE PTR __k$[ebp+6], dl
  0008c	8a 50 07	 mov	 dl, BYTE PTR [eax+7]
  0008f	84 d2		 test	 dl, dl
  00091	0f 84 07 01 00
	00		 je	 $LN89@LoadInt_e@4
  00097	80 f2 ea	 xor	 dl, -22			; ffffffeaH
  0009a	88 55 eb	 mov	 BYTE PTR __k$[ebp+7], dl
  0009d	8a 50 08	 mov	 dl, BYTE PTR [eax+8]
  000a0	84 d2		 test	 dl, dl
  000a2	0f 84 f0 00 00
	00		 je	 $LN88@LoadInt_e@4
  000a8	80 f2 ed	 xor	 dl, -19			; ffffffedH
  000ab	88 55 ec	 mov	 BYTE PTR __k$[ebp+8], dl
  000ae	8a 50 09	 mov	 dl, BYTE PTR [eax+9]
  000b1	84 d2		 test	 dl, dl
  000b3	0f 84 da 00 00
	00		 je	 $LN87@LoadInt_e@4
  000b9	32 d1		 xor	 dl, cl
  000bb	88 55 ed	 mov	 BYTE PTR __k$[ebp+9], dl
  000be	8a 50 0a	 mov	 dl, BYTE PTR [eax+10]
  000c1	84 d2		 test	 dl, dl
  000c3	0f 84 c4 00 00
	00		 je	 $LN86@LoadInt_e@4
  000c9	80 f2 eb	 xor	 dl, -21			; ffffffebH
  000cc	88 55 ee	 mov	 BYTE PTR __k$[ebp+10], dl
  000cf	8a 50 0b	 mov	 dl, BYTE PTR [eax+11]
  000d2	84 d2		 test	 dl, dl
  000d4	0f 84 ad 00 00
	00		 je	 $LN85@LoadInt_e@4
  000da	80 f2 ea	 xor	 dl, -22			; ffffffeaH
  000dd	88 55 ef	 mov	 BYTE PTR __k$[ebp+11], dl
  000e0	8a 50 0c	 mov	 dl, BYTE PTR [eax+12]
  000e3	84 d2		 test	 dl, dl
  000e5	0f 84 96 00 00
	00		 je	 $LN84@LoadInt_e@4
  000eb	80 f2 ed	 xor	 dl, -19			; ffffffedH
  000ee	88 55 f0	 mov	 BYTE PTR __k$[ebp+12], dl
  000f1	8a 50 0d	 mov	 dl, BYTE PTR [eax+13]
  000f4	84 d2		 test	 dl, dl
  000f6	0f 84 80 00 00
	00		 je	 $LN83@LoadInt_e@4
  000fc	32 d1		 xor	 dl, cl
  000fe	88 55 f1	 mov	 BYTE PTR __k$[ebp+13], dl
  00101	8a 50 0e	 mov	 dl, BYTE PTR [eax+14]
  00104	84 d2		 test	 dl, dl
  00106	74 6e		 je	 SHORT $LN82@LoadInt_e@4
  00108	80 f2 eb	 xor	 dl, -21			; ffffffebH
  0010b	88 55 f2	 mov	 BYTE PTR __k$[ebp+14], dl
  0010e	8a 50 0f	 mov	 dl, BYTE PTR [eax+15]
  00111	84 d2		 test	 dl, dl
  00113	74 5b		 je	 SHORT $LN81@LoadInt_e@4
  00115	80 f2 ea	 xor	 dl, -22			; ffffffeaH
  00118	80 78 10 00	 cmp	 BYTE PTR [eax+16], 0
  0011c	88 55 f3	 mov	 BYTE PTR __k$[ebp+15], dl
  0011f	0f 84 a6 00 00
	00		 je	 $LN1@LoadInt_e@4
  00125	8a 50 11	 mov	 dl, BYTE PTR [eax+17]
  00128	84 d2		 test	 dl, dl
  0012a	74 3f		 je	 SHORT $LN79@LoadInt_e@4
  0012c	32 d1		 xor	 dl, cl
  0012e	88 55 f5	 mov	 BYTE PTR __k$[ebp+17], dl
  00131	8a 50 12	 mov	 dl, BYTE PTR [eax+18]
  00134	84 d2		 test	 dl, dl
  00136	74 2d		 je	 SHORT $LN78@LoadInt_e@4
  00138	80 f2 eb	 xor	 dl, -21			; ffffffebH
  0013b	88 55 f6	 mov	 BYTE PTR __k$[ebp+18], dl
  0013e	8a 50 13	 mov	 dl, BYTE PTR [eax+19]
  00141	84 d2		 test	 dl, dl
  00143	74 1a		 je	 SHORT $LN77@LoadInt_e@4
  00145	8a 40 14	 mov	 al, BYTE PTR [eax+20]
  00148	80 f2 ea	 xor	 dl, -22			; ffffffeaH
  0014b	88 55 f7	 mov	 BYTE PTR __k$[ebp+19], dl
  0014e	84 c0		 test	 al, al
  00150	74 07		 je	 SHORT $LN76@LoadInt_e@4
  00152	34 ed		 xor	 al, -19			; ffffffedH
  00154	88 45 f8	 mov	 BYTE PTR __k$[ebp+20], al
  00157	eb 72		 jmp	 SHORT $LN1@LoadInt_e@4
$LN76@LoadInt_e@4:
  00159	c6 45 f8 ed	 mov	 BYTE PTR __k$[ebp+20], -19 ; ffffffedH
  0015d	eb 6c		 jmp	 SHORT $LN1@LoadInt_e@4
$LN77@LoadInt_e@4:
  0015f	c6 45 f7 ea	 mov	 BYTE PTR __k$[ebp+19], -22 ; ffffffeaH
  00163	eb 66		 jmp	 SHORT $LN1@LoadInt_e@4
$LN78@LoadInt_e@4:
  00165	c6 45 f6 eb	 mov	 BYTE PTR __k$[ebp+18], -21 ; ffffffebH
  00169	eb 60		 jmp	 SHORT $LN1@LoadInt_e@4
$LN79@LoadInt_e@4:
  0016b	88 4d f5	 mov	 BYTE PTR __k$[ebp+17], cl
  0016e	eb 5b		 jmp	 SHORT $LN1@LoadInt_e@4
$LN81@LoadInt_e@4:
  00170	c6 45 f3 ea	 mov	 BYTE PTR __k$[ebp+15], -22 ; ffffffeaH
  00174	eb 55		 jmp	 SHORT $LN1@LoadInt_e@4
$LN82@LoadInt_e@4:
  00176	c6 45 f2 eb	 mov	 BYTE PTR __k$[ebp+14], -21 ; ffffffebH
  0017a	eb 4f		 jmp	 SHORT $LN1@LoadInt_e@4
$LN83@LoadInt_e@4:
  0017c	88 4d f1	 mov	 BYTE PTR __k$[ebp+13], cl
  0017f	eb 4a		 jmp	 SHORT $LN1@LoadInt_e@4
$LN84@LoadInt_e@4:
  00181	c6 45 f0 ed	 mov	 BYTE PTR __k$[ebp+12], -19 ; ffffffedH
  00185	eb 44		 jmp	 SHORT $LN1@LoadInt_e@4
$LN85@LoadInt_e@4:
  00187	c6 45 ef ea	 mov	 BYTE PTR __k$[ebp+11], -22 ; ffffffeaH
  0018b	eb 3e		 jmp	 SHORT $LN1@LoadInt_e@4
$LN86@LoadInt_e@4:
  0018d	c6 45 ee eb	 mov	 BYTE PTR __k$[ebp+10], -21 ; ffffffebH
  00191	eb 38		 jmp	 SHORT $LN1@LoadInt_e@4
$LN87@LoadInt_e@4:
  00193	88 4d ed	 mov	 BYTE PTR __k$[ebp+9], cl
  00196	eb 33		 jmp	 SHORT $LN1@LoadInt_e@4
$LN88@LoadInt_e@4:
  00198	c6 45 ec ed	 mov	 BYTE PTR __k$[ebp+8], -19 ; ffffffedH
  0019c	eb 2d		 jmp	 SHORT $LN1@LoadInt_e@4
$LN89@LoadInt_e@4:
  0019e	c6 45 eb ea	 mov	 BYTE PTR __k$[ebp+7], -22 ; ffffffeaH
  001a2	eb 27		 jmp	 SHORT $LN1@LoadInt_e@4
$LN90@LoadInt_e@4:
  001a4	c6 45 ea eb	 mov	 BYTE PTR __k$[ebp+6], -21 ; ffffffebH
  001a8	eb 21		 jmp	 SHORT $LN1@LoadInt_e@4
$LN91@LoadInt_e@4:
  001aa	88 4d e9	 mov	 BYTE PTR __k$[ebp+5], cl
  001ad	eb 1c		 jmp	 SHORT $LN1@LoadInt_e@4
$LN92@LoadInt_e@4:
  001af	c6 45 e8 ed	 mov	 BYTE PTR __k$[ebp+4], -19 ; ffffffedH
  001b3	eb 16		 jmp	 SHORT $LN1@LoadInt_e@4
$LN93@LoadInt_e@4:
  001b5	c6 45 e7 ea	 mov	 BYTE PTR __k$[ebp+3], -22 ; ffffffeaH
  001b9	eb 10		 jmp	 SHORT $LN1@LoadInt_e@4
$LN94@LoadInt_e@4:
  001bb	c6 45 e6 eb	 mov	 BYTE PTR __k$[ebp+2], -21 ; ffffffebH
  001bf	eb 0a		 jmp	 SHORT $LN1@LoadInt_e@4
$LN95@LoadInt_e@4:
  001c1	c6 45 e5 ec	 mov	 BYTE PTR __k$[ebp+1], -20 ; ffffffecH
  001c5	eb 04		 jmp	 SHORT $LN1@LoadInt_e@4
$LN96@LoadInt_e@4:
  001c7	c6 45 e4 ed	 mov	 BYTE PTR __k$[ebp], -19	; ffffffedH
$LN1@LoadInt_e@4:
  001cb	6a 04		 push	 4
  001cd	8d 45 e4	 lea	 eax, DWORD PTR __k$[ebp]
  001d0	c6 45 f4 00	 mov	 BYTE PTR __k$[ebp+16], 0
  001d4	5a		 pop	 edx
$LL104@LoadInt_e@4:
  001d5	81 30 ed ec eb
	ea		 xor	 DWORD PTR [eax], -353637139 ; eaebecedH
  001db	83 c0 04	 add	 eax, 4
  001de	4a		 dec	 edx
  001df	75 f4		 jne	 SHORT $LL104@LoadInt_e@4

; 120  : 		return LoadInt(_k, i);

  001e1	ff 75 0c	 push	 DWORD PTR _i$[ebp]
  001e4	8d 45 e4	 lea	 eax, DWORD PTR __k$[ebp]
  001e7	50		 push	 eax
  001e8	8b ce		 mov	 ecx, esi
  001ea	ff 15 00 00 00
	00		 call	 DWORD PTR __imp_?LoadInt@ioINILoader@@QAEHPBDH@Z

; 121  : 	}

  001f0	8b 4d fc	 mov	 ecx, DWORD PTR __$ArrayPad$[ebp]
  001f3	33 cd		 xor	 ecx, ebp
  001f5	5e		 pop	 esi
  001f6	e8 00 00 00 00	 call	 @__security_check_cookie@4
  001fb	c9		 leave
  001fc	c2 08 00	 ret	 8
??$LoadInt_e@$0BB@@ioINILoader@@QAEHAAY0BB@$$CBDH@Z ENDP ; ioINILoader::LoadInt_e<17>
_TEXT	ENDS
PUBLIC	__$ArrayPad$
PUBLIC	??$LoadBool_e@$0BD@@ioINILoader@@QAE_NAAY0BD@$$CBD_N@Z ; ioINILoader::LoadBool_e<19>
; Function compile flags: /Ogsp
;	COMDAT ??$LoadBool_e@$0BD@@ioINILoader@@QAE_NAAY0BD@$$CBD_N@Z
_TEXT	SEGMENT
__k$ = -28						; size = 19
__$ArrayPad$ = -4					; size = 4
_k$ = 8							; size = 4
_b$ = 12						; size = 1
??$LoadBool_e@$0BD@@ioINILoader@@QAE_NAAY0BD@$$CBD_N@Z PROC ; ioINILoader::LoadBool_e<19>, COMDAT
; _this$ = ecx

; 101  : 	{

  00000	55		 push	 ebp
  00001	8b ec		 mov	 ebp, esp
  00003	83 ec 1c	 sub	 esp, 28			; 0000001cH
  00006	a1 00 00 00 00	 mov	 eax, DWORD PTR ___security_cookie
  0000b	33 c5		 xor	 eax, ebp
  0000d	89 45 fc	 mov	 DWORD PTR __$ArrayPad$[ebp], eax
  00010	8b 45 08	 mov	 eax, DWORD PTR _k$[ebp]

; 102  : 		_ENCSTR(k, _k);

  00013	8a 10		 mov	 dl, BYTE PTR [eax]
  00015	56		 push	 esi
  00016	8b f1		 mov	 esi, ecx
  00018	84 d2		 test	 dl, dl
  0001a	0f 84 cf 01 00
	00		 je	 $LN96@LoadBool_e@5
  00020	80 f2 ed	 xor	 dl, -19			; ffffffedH
  00023	88 55 e4	 mov	 BYTE PTR __k$[ebp], dl
  00026	8a 50 01	 mov	 dl, BYTE PTR [eax+1]
  00029	84 d2		 test	 dl, dl
  0002b	0f 84 b8 01 00
	00		 je	 $LN95@LoadBool_e@5
  00031	b1 ec		 mov	 cl, -20			; ffffffecH
  00033	32 d1		 xor	 dl, cl
  00035	88 55 e5	 mov	 BYTE PTR __k$[ebp+1], dl
  00038	8a 50 02	 mov	 dl, BYTE PTR [eax+2]
  0003b	84 d2		 test	 dl, dl
  0003d	0f 84 a0 01 00
	00		 je	 $LN94@LoadBool_e@5
  00043	80 f2 eb	 xor	 dl, -21			; ffffffebH
  00046	88 55 e6	 mov	 BYTE PTR __k$[ebp+2], dl
  00049	8a 50 03	 mov	 dl, BYTE PTR [eax+3]
  0004c	84 d2		 test	 dl, dl
  0004e	0f 84 89 01 00
	00		 je	 $LN93@LoadBool_e@5
  00054	80 f2 ea	 xor	 dl, -22			; ffffffeaH
  00057	88 55 e7	 mov	 BYTE PTR __k$[ebp+3], dl
  0005a	8a 50 04	 mov	 dl, BYTE PTR [eax+4]
  0005d	84 d2		 test	 dl, dl
  0005f	0f 84 72 01 00
	00		 je	 $LN92@LoadBool_e@5
  00065	80 f2 ed	 xor	 dl, -19			; ffffffedH
  00068	88 55 e8	 mov	 BYTE PTR __k$[ebp+4], dl
  0006b	8a 50 05	 mov	 dl, BYTE PTR [eax+5]
  0006e	84 d2		 test	 dl, dl
  00070	0f 84 5c 01 00
	00		 je	 $LN91@LoadBool_e@5
  00076	32 d1		 xor	 dl, cl
  00078	88 55 e9	 mov	 BYTE PTR __k$[ebp+5], dl
  0007b	8a 50 06	 mov	 dl, BYTE PTR [eax+6]
  0007e	84 d2		 test	 dl, dl
  00080	0f 84 46 01 00
	00		 je	 $LN90@LoadBool_e@5
  00086	80 f2 eb	 xor	 dl, -21			; ffffffebH
  00089	88 55 ea	 mov	 BYTE PTR __k$[ebp+6], dl
  0008c	8a 50 07	 mov	 dl, BYTE PTR [eax+7]
  0008f	84 d2		 test	 dl, dl
  00091	0f 84 2f 01 00
	00		 je	 $LN89@LoadBool_e@5
  00097	80 f2 ea	 xor	 dl, -22			; ffffffeaH
  0009a	88 55 eb	 mov	 BYTE PTR __k$[ebp+7], dl
  0009d	8a 50 08	 mov	 dl, BYTE PTR [eax+8]
  000a0	84 d2		 test	 dl, dl
  000a2	0f 84 18 01 00
	00		 je	 $LN88@LoadBool_e@5
  000a8	80 f2 ed	 xor	 dl, -19			; ffffffedH
  000ab	88 55 ec	 mov	 BYTE PTR __k$[ebp+8], dl
  000ae	8a 50 09	 mov	 dl, BYTE PTR [eax+9]
  000b1	84 d2		 test	 dl, dl
  000b3	0f 84 02 01 00
	00		 je	 $LN87@LoadBool_e@5
  000b9	32 d1		 xor	 dl, cl
  000bb	88 55 ed	 mov	 BYTE PTR __k$[ebp+9], dl
  000be	8a 50 0a	 mov	 dl, BYTE PTR [eax+10]
  000c1	84 d2		 test	 dl, dl
  000c3	0f 84 ec 00 00
	00		 je	 $LN86@LoadBool_e@5
  000c9	80 f2 eb	 xor	 dl, -21			; ffffffebH
  000cc	88 55 ee	 mov	 BYTE PTR __k$[ebp+10], dl
  000cf	8a 50 0b	 mov	 dl, BYTE PTR [eax+11]
  000d2	84 d2		 test	 dl, dl
  000d4	0f 84 d5 00 00
	00		 je	 $LN85@LoadBool_e@5
  000da	80 f2 ea	 xor	 dl, -22			; ffffffeaH
  000dd	88 55 ef	 mov	 BYTE PTR __k$[ebp+11], dl
  000e0	8a 50 0c	 mov	 dl, BYTE PTR [eax+12]
  000e3	84 d2		 test	 dl, dl
  000e5	0f 84 be 00 00
	00		 je	 $LN84@LoadBool_e@5
  000eb	80 f2 ed	 xor	 dl, -19			; ffffffedH
  000ee	88 55 f0	 mov	 BYTE PTR __k$[ebp+12], dl
  000f1	8a 50 0d	 mov	 dl, BYTE PTR [eax+13]
  000f4	84 d2		 test	 dl, dl
  000f6	0f 84 a8 00 00
	00		 je	 $LN83@LoadBool_e@5
  000fc	32 d1		 xor	 dl, cl
  000fe	88 55 f1	 mov	 BYTE PTR __k$[ebp+13], dl
  00101	8a 50 0e	 mov	 dl, BYTE PTR [eax+14]
  00104	84 d2		 test	 dl, dl
  00106	0f 84 92 00 00
	00		 je	 $LN82@LoadBool_e@5
  0010c	80 f2 eb	 xor	 dl, -21			; ffffffebH
  0010f	88 55 f2	 mov	 BYTE PTR __k$[ebp+14], dl
  00112	8a 50 0f	 mov	 dl, BYTE PTR [eax+15]
  00115	84 d2		 test	 dl, dl
  00117	74 7f		 je	 SHORT $LN81@LoadBool_e@5
  00119	80 f2 ea	 xor	 dl, -22			; ffffffeaH
  0011c	88 55 f3	 mov	 BYTE PTR __k$[ebp+15], dl
  0011f	8a 50 10	 mov	 dl, BYTE PTR [eax+16]
  00122	84 d2		 test	 dl, dl
  00124	74 6c		 je	 SHORT $LN80@LoadBool_e@5
  00126	80 f2 ed	 xor	 dl, -19			; ffffffedH
  00129	88 55 f4	 mov	 BYTE PTR __k$[ebp+16], dl
  0012c	8a 50 11	 mov	 dl, BYTE PTR [eax+17]
  0012f	84 d2		 test	 dl, dl
  00131	74 5a		 je	 SHORT $LN79@LoadBool_e@5
  00133	32 d1		 xor	 dl, cl
  00135	80 78 12 00	 cmp	 BYTE PTR [eax+18], 0
  00139	88 55 f5	 mov	 BYTE PTR __k$[ebp+17], dl
  0013c	0f 84 b1 00 00
	00		 je	 $LN1@LoadBool_e@5
  00142	8a 50 13	 mov	 dl, BYTE PTR [eax+19]
  00145	84 d2		 test	 dl, dl
  00147	74 3e		 je	 SHORT $LN77@LoadBool_e@5
  00149	80 f2 ea	 xor	 dl, -22			; ffffffeaH
  0014c	88 55 f7	 mov	 BYTE PTR __k$[ebp+19], dl
  0014f	8a 50 14	 mov	 dl, BYTE PTR [eax+20]
  00152	84 d2		 test	 dl, dl
  00154	74 2b		 je	 SHORT $LN76@LoadBool_e@5
  00156	80 f2 ed	 xor	 dl, -19			; ffffffedH
  00159	88 55 f8	 mov	 BYTE PTR __k$[ebp+20], dl
  0015c	8a 50 15	 mov	 dl, BYTE PTR [eax+21]
  0015f	84 d2		 test	 dl, dl
  00161	74 19		 je	 SHORT $LN75@LoadBool_e@5
  00163	8a 40 16	 mov	 al, BYTE PTR [eax+22]
  00166	32 d1		 xor	 dl, cl
  00168	88 55 f9	 mov	 BYTE PTR __k$[ebp+21], dl
  0016b	84 c0		 test	 al, al
  0016d	74 07		 je	 SHORT $LN74@LoadBool_e@5
  0016f	34 eb		 xor	 al, -21			; ffffffebH
  00171	88 45 fa	 mov	 BYTE PTR __k$[ebp+22], al
  00174	eb 7d		 jmp	 SHORT $LN1@LoadBool_e@5
$LN74@LoadBool_e@5:
  00176	c6 45 fa eb	 mov	 BYTE PTR __k$[ebp+22], -21 ; ffffffebH
  0017a	eb 77		 jmp	 SHORT $LN1@LoadBool_e@5
$LN75@LoadBool_e@5:
  0017c	88 4d f9	 mov	 BYTE PTR __k$[ebp+21], cl
  0017f	eb 72		 jmp	 SHORT $LN1@LoadBool_e@5
$LN76@LoadBool_e@5:
  00181	c6 45 f8 ed	 mov	 BYTE PTR __k$[ebp+20], -19 ; ffffffedH
  00185	eb 6c		 jmp	 SHORT $LN1@LoadBool_e@5
$LN77@LoadBool_e@5:
  00187	c6 45 f7 ea	 mov	 BYTE PTR __k$[ebp+19], -22 ; ffffffeaH
  0018b	eb 66		 jmp	 SHORT $LN1@LoadBool_e@5
$LN79@LoadBool_e@5:
  0018d	88 4d f5	 mov	 BYTE PTR __k$[ebp+17], cl
  00190	eb 61		 jmp	 SHORT $LN1@LoadBool_e@5
$LN80@LoadBool_e@5:
  00192	c6 45 f4 ed	 mov	 BYTE PTR __k$[ebp+16], -19 ; ffffffedH
  00196	eb 5b		 jmp	 SHORT $LN1@LoadBool_e@5
$LN81@LoadBool_e@5:
  00198	c6 45 f3 ea	 mov	 BYTE PTR __k$[ebp+15], -22 ; ffffffeaH
  0019c	eb 55		 jmp	 SHORT $LN1@LoadBool_e@5
$LN82@LoadBool_e@5:
  0019e	c6 45 f2 eb	 mov	 BYTE PTR __k$[ebp+14], -21 ; ffffffebH
  001a2	eb 4f		 jmp	 SHORT $LN1@LoadBool_e@5
$LN83@LoadBool_e@5:
  001a4	88 4d f1	 mov	 BYTE PTR __k$[ebp+13], cl
  001a7	eb 4a		 jmp	 SHORT $LN1@LoadBool_e@5
$LN84@LoadBool_e@5:
  001a9	c6 45 f0 ed	 mov	 BYTE PTR __k$[ebp+12], -19 ; ffffffedH
  001ad	eb 44		 jmp	 SHORT $LN1@LoadBool_e@5
$LN85@LoadBool_e@5:
  001af	c6 45 ef ea	 mov	 BYTE PTR __k$[ebp+11], -22 ; ffffffeaH
  001b3	eb 3e		 jmp	 SHORT $LN1@LoadBool_e@5
$LN86@LoadBool_e@5:
  001b5	c6 45 ee eb	 mov	 BYTE PTR __k$[ebp+10], -21 ; ffffffebH
  001b9	eb 38		 jmp	 SHORT $LN1@LoadBool_e@5
$LN87@LoadBool_e@5:
  001bb	88 4d ed	 mov	 BYTE PTR __k$[ebp+9], cl
  001be	eb 33		 jmp	 SHORT $LN1@LoadBool_e@5
$LN88@LoadBool_e@5:
  001c0	c6 45 ec ed	 mov	 BYTE PTR __k$[ebp+8], -19 ; ffffffedH
  001c4	eb 2d		 jmp	 SHORT $LN1@LoadBool_e@5
$LN89@LoadBool_e@5:
  001c6	c6 45 eb ea	 mov	 BYTE PTR __k$[ebp+7], -22 ; ffffffeaH
  001ca	eb 27		 jmp	 SHORT $LN1@LoadBool_e@5
$LN90@LoadBool_e@5:
  001cc	c6 45 ea eb	 mov	 BYTE PTR __k$[ebp+6], -21 ; ffffffebH
  001d0	eb 21		 jmp	 SHORT $LN1@LoadBool_e@5
$LN91@LoadBool_e@5:
  001d2	88 4d e9	 mov	 BYTE PTR __k$[ebp+5], cl
  001d5	eb 1c		 jmp	 SHORT $LN1@LoadBool_e@5
$LN92@LoadBool_e@5:
  001d7	c6 45 e8 ed	 mov	 BYTE PTR __k$[ebp+4], -19 ; ffffffedH
  001db	eb 16		 jmp	 SHORT $LN1@LoadBool_e@5
$LN93@LoadBool_e@5:
  001dd	c6 45 e7 ea	 mov	 BYTE PTR __k$[ebp+3], -22 ; ffffffeaH
  001e1	eb 10		 jmp	 SHORT $LN1@LoadBool_e@5
$LN94@LoadBool_e@5:
  001e3	c6 45 e6 eb	 mov	 BYTE PTR __k$[ebp+2], -21 ; ffffffebH
  001e7	eb 0a		 jmp	 SHORT $LN1@LoadBool_e@5
$LN95@LoadBool_e@5:
  001e9	c6 45 e5 ec	 mov	 BYTE PTR __k$[ebp+1], -20 ; ffffffecH
  001ed	eb 04		 jmp	 SHORT $LN1@LoadBool_e@5
$LN96@LoadBool_e@5:
  001ef	c6 45 e4 ed	 mov	 BYTE PTR __k$[ebp], -19	; ffffffedH
$LN1@LoadBool_e@5:
  001f3	6a 04		 push	 4
  001f5	8d 45 e4	 lea	 eax, DWORD PTR __k$[ebp]
  001f8	c6 45 f6 00	 mov	 BYTE PTR __k$[ebp+18], 0
  001fc	5a		 pop	 edx
$LL104@LoadBool_e@5:
  001fd	81 30 ed ec eb
	ea		 xor	 DWORD PTR [eax], -353637139 ; eaebecedH
  00203	83 c0 04	 add	 eax, 4
  00206	4a		 dec	 edx
  00207	75 f4		 jne	 SHORT $LL104@LoadBool_e@5
  00209	6a 10		 push	 16			; 00000010H
  0020b	58		 pop	 eax
$LL101@LoadBool_e@5:
  0020c	8b c8		 mov	 ecx, eax
  0020e	81 e1 03 00 00
	80		 and	 ecx, -2147483645	; 80000003H
  00214	79 05		 jns	 SHORT $LN111@LoadBool_e@5
  00216	49		 dec	 ecx
  00217	83 c9 fc	 or	 ecx, -4			; fffffffcH
  0021a	41		 inc	 ecx
$LN111@LoadBool_e@5:
  0021b	b2 ed		 mov	 dl, -19			; ffffffedH
  0021d	2a d1		 sub	 dl, cl
  0021f	30 54 05 e4	 xor	 BYTE PTR __k$[ebp+eax], dl
  00223	40		 inc	 eax
  00224	83 f8 12	 cmp	 eax, 18			; 00000012H
  00227	7c e3		 jl	 SHORT $LL101@LoadBool_e@5

; 103  : 		return LoadBool(_k, b);

  00229	ff 75 0c	 push	 DWORD PTR _b$[ebp]
  0022c	8d 45 e4	 lea	 eax, DWORD PTR __k$[ebp]
  0022f	50		 push	 eax
  00230	8b ce		 mov	 ecx, esi
  00232	ff 15 00 00 00
	00		 call	 DWORD PTR __imp_?LoadBool@ioINILoader@@QAE_NPBD_N@Z

; 104  : 	}

  00238	8b 4d fc	 mov	 ecx, DWORD PTR __$ArrayPad$[ebp]
  0023b	33 cd		 xor	 ecx, ebp
  0023d	5e		 pop	 esi
  0023e	e8 00 00 00 00	 call	 @__security_check_cookie@4
  00243	c9		 leave
  00244	c2 08 00	 ret	 8
??$LoadBool_e@$0BD@@ioINILoader@@QAE_NAAY0BD@$$CBD_N@Z ENDP ; ioINILoader::LoadBool_e<19>
_TEXT	ENDS
PUBLIC	__$ArrayPad$
PUBLIC	??$LoadFloat_e@$0BD@@ioINILoader@@QAEMAAY0BD@$$CBDM@Z ; ioINILoader::LoadFloat_e<19>
; Function compile flags: /Ogsp
;	COMDAT ??$LoadFloat_e@$0BD@@ioINILoader@@QAEMAAY0BD@$$CBDM@Z
_TEXT	SEGMENT
__k$ = -28						; size = 19
__$ArrayPad$ = -4					; size = 4
_k$ = 8							; size = 4
_f$ = 12						; size = 4
??$LoadFloat_e@$0BD@@ioINILoader@@QAEMAAY0BD@$$CBDM@Z PROC ; ioINILoader::LoadFloat_e<19>, COMDAT
; _this$ = ecx

; 135  : 	{

  00000	55		 push	 ebp
  00001	8b ec		 mov	 ebp, esp
  00003	83 ec 1c	 sub	 esp, 28			; 0000001cH
  00006	a1 00 00 00 00	 mov	 eax, DWORD PTR ___security_cookie
  0000b	33 c5		 xor	 eax, ebp
  0000d	89 45 fc	 mov	 DWORD PTR __$ArrayPad$[ebp], eax
  00010	8b 45 08	 mov	 eax, DWORD PTR _k$[ebp]

; 136  : 		_ENCSTR(k, _k);

  00013	8a 10		 mov	 dl, BYTE PTR [eax]
  00015	56		 push	 esi
  00016	8b f1		 mov	 esi, ecx
  00018	84 d2		 test	 dl, dl
  0001a	0f 84 cf 01 00
	00		 je	 $LN96@LoadFloat_@5
  00020	80 f2 ed	 xor	 dl, -19			; ffffffedH
  00023	88 55 e4	 mov	 BYTE PTR __k$[ebp], dl
  00026	8a 50 01	 mov	 dl, BYTE PTR [eax+1]
  00029	84 d2		 test	 dl, dl
  0002b	0f 84 b8 01 00
	00		 je	 $LN95@LoadFloat_@5
  00031	b1 ec		 mov	 cl, -20			; ffffffecH
  00033	32 d1		 xor	 dl, cl
  00035	88 55 e5	 mov	 BYTE PTR __k$[ebp+1], dl
  00038	8a 50 02	 mov	 dl, BYTE PTR [eax+2]
  0003b	84 d2		 test	 dl, dl
  0003d	0f 84 a0 01 00
	00		 je	 $LN94@LoadFloat_@5
  00043	80 f2 eb	 xor	 dl, -21			; ffffffebH
  00046	88 55 e6	 mov	 BYTE PTR __k$[ebp+2], dl
  00049	8a 50 03	 mov	 dl, BYTE PTR [eax+3]
  0004c	84 d2		 test	 dl, dl
  0004e	0f 84 89 01 00
	00		 je	 $LN93@LoadFloat_@5
  00054	80 f2 ea	 xor	 dl, -22			; ffffffeaH
  00057	88 55 e7	 mov	 BYTE PTR __k$[ebp+3], dl
  0005a	8a 50 04	 mov	 dl, BYTE PTR [eax+4]
  0005d	84 d2		 test	 dl, dl
  0005f	0f 84 72 01 00
	00		 je	 $LN92@LoadFloat_@5
  00065	80 f2 ed	 xor	 dl, -19			; ffffffedH
  00068	88 55 e8	 mov	 BYTE PTR __k$[ebp+4], dl
  0006b	8a 50 05	 mov	 dl, BYTE PTR [eax+5]
  0006e	84 d2		 test	 dl, dl
  00070	0f 84 5c 01 00
	00		 je	 $LN91@LoadFloat_@5
  00076	32 d1		 xor	 dl, cl
  00078	88 55 e9	 mov	 BYTE PTR __k$[ebp+5], dl
  0007b	8a 50 06	 mov	 dl, BYTE PTR [eax+6]
  0007e	84 d2		 test	 dl, dl
  00080	0f 84 46 01 00
	00		 je	 $LN90@LoadFloat_@5
  00086	80 f2 eb	 xor	 dl, -21			; ffffffebH
  00089	88 55 ea	 mov	 BYTE PTR __k$[ebp+6], dl
  0008c	8a 50 07	 mov	 dl, BYTE PTR [eax+7]
  0008f	84 d2		 test	 dl, dl
  00091	0f 84 2f 01 00
	00		 je	 $LN89@LoadFloat_@5
  00097	80 f2 ea	 xor	 dl, -22			; ffffffeaH
  0009a	88 55 eb	 mov	 BYTE PTR __k$[ebp+7], dl
  0009d	8a 50 08	 mov	 dl, BYTE PTR [eax+8]
  000a0	84 d2		 test	 dl, dl
  000a2	0f 84 18 01 00
	00		 je	 $LN88@LoadFloat_@5
  000a8	80 f2 ed	 xor	 dl, -19			; ffffffedH
  000ab	88 55 ec	 mov	 BYTE PTR __k$[ebp+8], dl
  000ae	8a 50 09	 mov	 dl, BYTE PTR [eax+9]
  000b1	84 d2		 test	 dl, dl
  000b3	0f 84 02 01 00
	00		 je	 $LN87@LoadFloat_@5
  000b9	32 d1		 xor	 dl, cl
  000bb	88 55 ed	 mov	 BYTE PTR __k$[ebp+9], dl
  000be	8a 50 0a	 mov	 dl, BYTE PTR [eax+10]
  000c1	84 d2		 test	 dl, dl
  000c3	0f 84 ec 00 00
	00		 je	 $LN86@LoadFloat_@5
  000c9	80 f2 eb	 xor	 dl, -21			; ffffffebH
  000cc	88 55 ee	 mov	 BYTE PTR __k$[ebp+10], dl
  000cf	8a 50 0b	 mov	 dl, BYTE PTR [eax+11]
  000d2	84 d2		 test	 dl, dl
  000d4	0f 84 d5 00 00
	00		 je	 $LN85@LoadFloat_@5
  000da	80 f2 ea	 xor	 dl, -22			; ffffffeaH
  000dd	88 55 ef	 mov	 BYTE PTR __k$[ebp+11], dl
  000e0	8a 50 0c	 mov	 dl, BYTE PTR [eax+12]
  000e3	84 d2		 test	 dl, dl
  000e5	0f 84 be 00 00
	00		 je	 $LN84@LoadFloat_@5
  000eb	80 f2 ed	 xor	 dl, -19			; ffffffedH
  000ee	88 55 f0	 mov	 BYTE PTR __k$[ebp+12], dl
  000f1	8a 50 0d	 mov	 dl, BYTE PTR [eax+13]
  000f4	84 d2		 test	 dl, dl
  000f6	0f 84 a8 00 00
	00		 je	 $LN83@LoadFloat_@5
  000fc	32 d1		 xor	 dl, cl
  000fe	88 55 f1	 mov	 BYTE PTR __k$[ebp+13], dl
  00101	8a 50 0e	 mov	 dl, BYTE PTR [eax+14]
  00104	84 d2		 test	 dl, dl
  00106	0f 84 92 00 00
	00		 je	 $LN82@LoadFloat_@5
  0010c	80 f2 eb	 xor	 dl, -21			; ffffffebH
  0010f	88 55 f2	 mov	 BYTE PTR __k$[ebp+14], dl
  00112	8a 50 0f	 mov	 dl, BYTE PTR [eax+15]
  00115	84 d2		 test	 dl, dl
  00117	74 7f		 je	 SHORT $LN81@LoadFloat_@5
  00119	80 f2 ea	 xor	 dl, -22			; ffffffeaH
  0011c	88 55 f3	 mov	 BYTE PTR __k$[ebp+15], dl
  0011f	8a 50 10	 mov	 dl, BYTE PTR [eax+16]
  00122	84 d2		 test	 dl, dl
  00124	74 6c		 je	 SHORT $LN80@LoadFloat_@5
  00126	80 f2 ed	 xor	 dl, -19			; ffffffedH
  00129	88 55 f4	 mov	 BYTE PTR __k$[ebp+16], dl
  0012c	8a 50 11	 mov	 dl, BYTE PTR [eax+17]
  0012f	84 d2		 test	 dl, dl
  00131	74 5a		 je	 SHORT $LN79@LoadFloat_@5
  00133	32 d1		 xor	 dl, cl
  00135	80 78 12 00	 cmp	 BYTE PTR [eax+18], 0
  00139	88 55 f5	 mov	 BYTE PTR __k$[ebp+17], dl
  0013c	0f 84 b1 00 00
	00		 je	 $LN1@LoadFloat_@5
  00142	8a 50 13	 mov	 dl, BYTE PTR [eax+19]
  00145	84 d2		 test	 dl, dl
  00147	74 3e		 je	 SHORT $LN77@LoadFloat_@5
  00149	80 f2 ea	 xor	 dl, -22			; ffffffeaH
  0014c	88 55 f7	 mov	 BYTE PTR __k$[ebp+19], dl
  0014f	8a 50 14	 mov	 dl, BYTE PTR [eax+20]
  00152	84 d2		 test	 dl, dl
  00154	74 2b		 je	 SHORT $LN76@LoadFloat_@5
  00156	80 f2 ed	 xor	 dl, -19			; ffffffedH
  00159	88 55 f8	 mov	 BYTE PTR __k$[ebp+20], dl
  0015c	8a 50 15	 mov	 dl, BYTE PTR [eax+21]
  0015f	84 d2		 test	 dl, dl
  00161	74 19		 je	 SHORT $LN75@LoadFloat_@5
  00163	8a 40 16	 mov	 al, BYTE PTR [eax+22]
  00166	32 d1		 xor	 dl, cl
  00168	88 55 f9	 mov	 BYTE PTR __k$[ebp+21], dl
  0016b	84 c0		 test	 al, al
  0016d	74 07		 je	 SHORT $LN74@LoadFloat_@5
  0016f	34 eb		 xor	 al, -21			; ffffffebH
  00171	88 45 fa	 mov	 BYTE PTR __k$[ebp+22], al
  00174	eb 7d		 jmp	 SHORT $LN1@LoadFloat_@5
$LN74@LoadFloat_@5:
  00176	c6 45 fa eb	 mov	 BYTE PTR __k$[ebp+22], -21 ; ffffffebH
  0017a	eb 77		 jmp	 SHORT $LN1@LoadFloat_@5
$LN75@LoadFloat_@5:
  0017c	88 4d f9	 mov	 BYTE PTR __k$[ebp+21], cl
  0017f	eb 72		 jmp	 SHORT $LN1@LoadFloat_@5
$LN76@LoadFloat_@5:
  00181	c6 45 f8 ed	 mov	 BYTE PTR __k$[ebp+20], -19 ; ffffffedH
  00185	eb 6c		 jmp	 SHORT $LN1@LoadFloat_@5
$LN77@LoadFloat_@5:
  00187	c6 45 f7 ea	 mov	 BYTE PTR __k$[ebp+19], -22 ; ffffffeaH
  0018b	eb 66		 jmp	 SHORT $LN1@LoadFloat_@5
$LN79@LoadFloat_@5:
  0018d	88 4d f5	 mov	 BYTE PTR __k$[ebp+17], cl
  00190	eb 61		 jmp	 SHORT $LN1@LoadFloat_@5
$LN80@LoadFloat_@5:
  00192	c6 45 f4 ed	 mov	 BYTE PTR __k$[ebp+16], -19 ; ffffffedH
  00196	eb 5b		 jmp	 SHORT $LN1@LoadFloat_@5
$LN81@LoadFloat_@5:
  00198	c6 45 f3 ea	 mov	 BYTE PTR __k$[ebp+15], -22 ; ffffffeaH
  0019c	eb 55		 jmp	 SHORT $LN1@LoadFloat_@5
$LN82@LoadFloat_@5:
  0019e	c6 45 f2 eb	 mov	 BYTE PTR __k$[ebp+14], -21 ; ffffffebH
  001a2	eb 4f		 jmp	 SHORT $LN1@LoadFloat_@5
$LN83@LoadFloat_@5:
  001a4	88 4d f1	 mov	 BYTE PTR __k$[ebp+13], cl
  001a7	eb 4a		 jmp	 SHORT $LN1@LoadFloat_@5
$LN84@LoadFloat_@5:
  001a9	c6 45 f0 ed	 mov	 BYTE PTR __k$[ebp+12], -19 ; ffffffedH
  001ad	eb 44		 jmp	 SHORT $LN1@LoadFloat_@5
$LN85@LoadFloat_@5:
  001af	c6 45 ef ea	 mov	 BYTE PTR __k$[ebp+11], -22 ; ffffffeaH
  001b3	eb 3e		 jmp	 SHORT $LN1@LoadFloat_@5
$LN86@LoadFloat_@5:
  001b5	c6 45 ee eb	 mov	 BYTE PTR __k$[ebp+10], -21 ; ffffffebH
  001b9	eb 38		 jmp	 SHORT $LN1@LoadFloat_@5
$LN87@LoadFloat_@5:
  001bb	88 4d ed	 mov	 BYTE PTR __k$[ebp+9], cl
  001be	eb 33		 jmp	 SHORT $LN1@LoadFloat_@5
$LN88@LoadFloat_@5:
  001c0	c6 45 ec ed	 mov	 BYTE PTR __k$[ebp+8], -19 ; ffffffedH
  001c4	eb 2d		 jmp	 SHORT $LN1@LoadFloat_@5
$LN89@LoadFloat_@5:
  001c6	c6 45 eb ea	 mov	 BYTE PTR __k$[ebp+7], -22 ; ffffffeaH
  001ca	eb 27		 jmp	 SHORT $LN1@LoadFloat_@5
$LN90@LoadFloat_@5:
  001cc	c6 45 ea eb	 mov	 BYTE PTR __k$[ebp+6], -21 ; ffffffebH
  001d0	eb 21		 jmp	 SHORT $LN1@LoadFloat_@5
$LN91@LoadFloat_@5:
  001d2	88 4d e9	 mov	 BYTE PTR __k$[ebp+5], cl
  001d5	eb 1c		 jmp	 SHORT $LN1@LoadFloat_@5
$LN92@LoadFloat_@5:
  001d7	c6 45 e8 ed	 mov	 BYTE PTR __k$[ebp+4], -19 ; ffffffedH
  001db	eb 16		 jmp	 SHORT $LN1@LoadFloat_@5
$LN93@LoadFloat_@5:
  001dd	c6 45 e7 ea	 mov	 BYTE PTR __k$[ebp+3], -22 ; ffffffeaH
  001e1	eb 10		 jmp	 SHORT $LN1@LoadFloat_@5
$LN94@LoadFloat_@5:
  001e3	c6 45 e6 eb	 mov	 BYTE PTR __k$[ebp+2], -21 ; ffffffebH
  001e7	eb 0a		 jmp	 SHORT $LN1@LoadFloat_@5
$LN95@LoadFloat_@5:
  001e9	c6 45 e5 ec	 mov	 BYTE PTR __k$[ebp+1], -20 ; ffffffecH
  001ed	eb 04		 jmp	 SHORT $LN1@LoadFloat_@5
$LN96@LoadFloat_@5:
  001ef	c6 45 e4 ed	 mov	 BYTE PTR __k$[ebp], -19	; ffffffedH
$LN1@LoadFloat_@5:
  001f3	6a 04		 push	 4
  001f5	8d 45 e4	 lea	 eax, DWORD PTR __k$[ebp]
  001f8	c6 45 f6 00	 mov	 BYTE PTR __k$[ebp+18], 0
  001fc	5a		 pop	 edx
$LL104@LoadFloat_@5:
  001fd	81 30 ed ec eb
	ea		 xor	 DWORD PTR [eax], -353637139 ; eaebecedH
  00203	83 c0 04	 add	 eax, 4
  00206	4a		 dec	 edx
  00207	75 f4		 jne	 SHORT $LL104@LoadFloat_@5
  00209	6a 10		 push	 16			; 00000010H
  0020b	58		 pop	 eax
$LL101@LoadFloat_@5:
  0020c	8b c8		 mov	 ecx, eax
  0020e	81 e1 03 00 00
	80		 and	 ecx, -2147483645	; 80000003H
  00214	79 05		 jns	 SHORT $LN111@LoadFloat_@5
  00216	49		 dec	 ecx
  00217	83 c9 fc	 or	 ecx, -4			; fffffffcH
  0021a	41		 inc	 ecx
$LN111@LoadFloat_@5:
  0021b	b2 ed		 mov	 dl, -19			; ffffffedH
  0021d	2a d1		 sub	 dl, cl
  0021f	30 54 05 e4	 xor	 BYTE PTR __k$[ebp+eax], dl
  00223	40		 inc	 eax
  00224	83 f8 12	 cmp	 eax, 18			; 00000012H
  00227	7c e3		 jl	 SHORT $LL101@LoadFloat_@5

; 137  : 		return LoadFloat(_k, f);

  00229	f3 0f 10 45 0c	 movss	 xmm0, DWORD PTR _f$[ebp]
  0022e	51		 push	 ecx
  0022f	8d 45 e4	 lea	 eax, DWORD PTR __k$[ebp]
  00232	f3 0f 11 04 24	 movss	 DWORD PTR [esp], xmm0
  00237	50		 push	 eax
  00238	8b ce		 mov	 ecx, esi
  0023a	ff 15 00 00 00
	00		 call	 DWORD PTR __imp_?LoadFloat@ioINILoader@@QAEMPBDM@Z

; 138  : 	}

  00240	8b 4d fc	 mov	 ecx, DWORD PTR __$ArrayPad$[ebp]
  00243	33 cd		 xor	 ecx, ebp
  00245	5e		 pop	 esi
  00246	e8 00 00 00 00	 call	 @__security_check_cookie@4
  0024b	c9		 leave
  0024c	c2 08 00	 ret	 8
??$LoadFloat_e@$0BD@@ioINILoader@@QAEMAAY0BD@$$CBDM@Z ENDP ; ioINILoader::LoadFloat_e<19>
_TEXT	ENDS
PUBLIC	_this$GSCopy$
PUBLIC	__$ArrayPad$
PUBLIC	??$LoadString_e@$0BC@@ioINILoader@@QAEXAAY0BC@$$CBDAAY00$$CBDPADH@Z ; ioINILoader::LoadString_e<18>
; Function compile flags: /Ogsp
;	COMDAT ??$LoadString_e@$0BC@@ioINILoader@@QAEXAAY0BC@$$CBDAAY00$$CBDPADH@Z
_TEXT	SEGMENT
_this$GSCopy$ = -32					; size = 4
__k$ = -28						; size = 18
__$ArrayPad$ = -4					; size = 4
_k$ = 8							; size = 4
_d$ = 12						; size = 4
_b$ = 16						; size = 4
_i$ = 20						; size = 4
??$LoadString_e@$0BC@@ioINILoader@@QAEXAAY0BC@$$CBDAAY00$$CBDPADH@Z PROC ; ioINILoader::LoadString_e<18>, COMDAT
; _this$ = ecx

; 161  : 	{

  00000	55		 push	 ebp
  00001	8b ec		 mov	 ebp, esp
  00003	83 ec 20	 sub	 esp, 32			; 00000020H
  00006	a1 00 00 00 00	 mov	 eax, DWORD PTR ___security_cookie
  0000b	33 c5		 xor	 eax, ebp
  0000d	89 45 fc	 mov	 DWORD PTR __$ArrayPad$[ebp], eax
  00010	8b 45 08	 mov	 eax, DWORD PTR _k$[ebp]

; 162  : 		_ENCSTR(k, _k);

  00013	8a 10		 mov	 dl, BYTE PTR [eax]
  00015	56		 push	 esi
  00016	8b 75 0c	 mov	 esi, DWORD PTR _d$[ebp]
  00019	57		 push	 edi
  0001a	8b 7d 10	 mov	 edi, DWORD PTR _b$[ebp]
  0001d	89 4d e0	 mov	 DWORD PTR _this$GSCopy$[ebp], ecx
  00020	84 d2		 test	 dl, dl
  00022	0f 84 be 01 00
	00		 je	 $LN96@LoadString@5
  00028	80 f2 ed	 xor	 dl, -19			; ffffffedH
  0002b	88 55 e4	 mov	 BYTE PTR __k$[ebp], dl
  0002e	8a 50 01	 mov	 dl, BYTE PTR [eax+1]
  00031	84 d2		 test	 dl, dl
  00033	0f 84 a7 01 00
	00		 je	 $LN95@LoadString@5
  00039	80 f2 ec	 xor	 dl, -20			; ffffffecH
  0003c	88 55 e5	 mov	 BYTE PTR __k$[ebp+1], dl
  0003f	8a 50 02	 mov	 dl, BYTE PTR [eax+2]
  00042	84 d2		 test	 dl, dl
  00044	0f 84 90 01 00
	00		 je	 $LN94@LoadString@5
  0004a	b1 eb		 mov	 cl, -21			; ffffffebH
  0004c	32 d1		 xor	 dl, cl
  0004e	88 55 e6	 mov	 BYTE PTR __k$[ebp+2], dl
  00051	8a 50 03	 mov	 dl, BYTE PTR [eax+3]
  00054	84 d2		 test	 dl, dl
  00056	0f 84 78 01 00
	00		 je	 $LN93@LoadString@5
  0005c	80 f2 ea	 xor	 dl, -22			; ffffffeaH
  0005f	88 55 e7	 mov	 BYTE PTR __k$[ebp+3], dl
  00062	8a 50 04	 mov	 dl, BYTE PTR [eax+4]
  00065	84 d2		 test	 dl, dl
  00067	0f 84 61 01 00
	00		 je	 $LN92@LoadString@5
  0006d	80 f2 ed	 xor	 dl, -19			; ffffffedH
  00070	88 55 e8	 mov	 BYTE PTR __k$[ebp+4], dl
  00073	8a 50 05	 mov	 dl, BYTE PTR [eax+5]
  00076	84 d2		 test	 dl, dl
  00078	0f 84 4a 01 00
	00		 je	 $LN91@LoadString@5
  0007e	80 f2 ec	 xor	 dl, -20			; ffffffecH
  00081	88 55 e9	 mov	 BYTE PTR __k$[ebp+5], dl
  00084	8a 50 06	 mov	 dl, BYTE PTR [eax+6]
  00087	84 d2		 test	 dl, dl
  00089	0f 84 34 01 00
	00		 je	 $LN90@LoadString@5
  0008f	32 d1		 xor	 dl, cl
  00091	88 55 ea	 mov	 BYTE PTR __k$[ebp+6], dl
  00094	8a 50 07	 mov	 dl, BYTE PTR [eax+7]
  00097	84 d2		 test	 dl, dl
  00099	0f 84 1e 01 00
	00		 je	 $LN89@LoadString@5
  0009f	80 f2 ea	 xor	 dl, -22			; ffffffeaH
  000a2	88 55 eb	 mov	 BYTE PTR __k$[ebp+7], dl
  000a5	8a 50 08	 mov	 dl, BYTE PTR [eax+8]
  000a8	84 d2		 test	 dl, dl
  000aa	0f 84 07 01 00
	00		 je	 $LN88@LoadString@5
  000b0	80 f2 ed	 xor	 dl, -19			; ffffffedH
  000b3	88 55 ec	 mov	 BYTE PTR __k$[ebp+8], dl
  000b6	8a 50 09	 mov	 dl, BYTE PTR [eax+9]
  000b9	84 d2		 test	 dl, dl
  000bb	0f 84 f0 00 00
	00		 je	 $LN87@LoadString@5
  000c1	80 f2 ec	 xor	 dl, -20			; ffffffecH
  000c4	88 55 ed	 mov	 BYTE PTR __k$[ebp+9], dl
  000c7	8a 50 0a	 mov	 dl, BYTE PTR [eax+10]
  000ca	84 d2		 test	 dl, dl
  000cc	0f 84 da 00 00
	00		 je	 $LN86@LoadString@5
  000d2	32 d1		 xor	 dl, cl
  000d4	88 55 ee	 mov	 BYTE PTR __k$[ebp+10], dl
  000d7	8a 50 0b	 mov	 dl, BYTE PTR [eax+11]
  000da	84 d2		 test	 dl, dl
  000dc	0f 84 c4 00 00
	00		 je	 $LN85@LoadString@5
  000e2	80 f2 ea	 xor	 dl, -22			; ffffffeaH
  000e5	88 55 ef	 mov	 BYTE PTR __k$[ebp+11], dl
  000e8	8a 50 0c	 mov	 dl, BYTE PTR [eax+12]
  000eb	84 d2		 test	 dl, dl
  000ed	0f 84 ad 00 00
	00		 je	 $LN84@LoadString@5
  000f3	80 f2 ed	 xor	 dl, -19			; ffffffedH
  000f6	88 55 f0	 mov	 BYTE PTR __k$[ebp+12], dl
  000f9	8a 50 0d	 mov	 dl, BYTE PTR [eax+13]
  000fc	84 d2		 test	 dl, dl
  000fe	0f 84 96 00 00
	00		 je	 $LN83@LoadString@5
  00104	80 f2 ec	 xor	 dl, -20			; ffffffecH
  00107	88 55 f1	 mov	 BYTE PTR __k$[ebp+13], dl
  0010a	8a 50 0e	 mov	 dl, BYTE PTR [eax+14]
  0010d	84 d2		 test	 dl, dl
  0010f	0f 84 80 00 00
	00		 je	 $LN82@LoadString@5
  00115	32 d1		 xor	 dl, cl
  00117	88 55 f2	 mov	 BYTE PTR __k$[ebp+14], dl
  0011a	8a 50 0f	 mov	 dl, BYTE PTR [eax+15]
  0011d	84 d2		 test	 dl, dl
  0011f	74 6e		 je	 SHORT $LN81@LoadString@5
  00121	80 f2 ea	 xor	 dl, -22			; ffffffeaH
  00124	88 55 f3	 mov	 BYTE PTR __k$[ebp+15], dl
  00127	8a 50 10	 mov	 dl, BYTE PTR [eax+16]
  0012a	84 d2		 test	 dl, dl
  0012c	74 5b		 je	 SHORT $LN80@LoadString@5
  0012e	80 f2 ed	 xor	 dl, -19			; ffffffedH
  00131	80 78 11 00	 cmp	 BYTE PTR [eax+17], 0
  00135	88 55 f4	 mov	 BYTE PTR __k$[ebp+16], dl
  00138	0f 84 ac 00 00
	00		 je	 $LN111@LoadString@5
  0013e	8a 50 12	 mov	 dl, BYTE PTR [eax+18]
  00141	84 d2		 test	 dl, dl
  00143	74 3f		 je	 SHORT $LN78@LoadString@5
  00145	32 d1		 xor	 dl, cl
  00147	88 55 f6	 mov	 BYTE PTR __k$[ebp+18], dl
  0014a	8a 50 13	 mov	 dl, BYTE PTR [eax+19]
  0014d	84 d2		 test	 dl, dl
  0014f	74 2d		 je	 SHORT $LN77@LoadString@5
  00151	80 f2 ea	 xor	 dl, -22			; ffffffeaH
  00154	88 55 f7	 mov	 BYTE PTR __k$[ebp+19], dl
  00157	8a 50 14	 mov	 dl, BYTE PTR [eax+20]
  0015a	84 d2		 test	 dl, dl
  0015c	74 1a		 je	 SHORT $LN76@LoadString@5
  0015e	8a 40 15	 mov	 al, BYTE PTR [eax+21]
  00161	80 f2 ed	 xor	 dl, -19			; ffffffedH
  00164	88 55 f8	 mov	 BYTE PTR __k$[ebp+20], dl
  00167	84 c0		 test	 al, al
  00169	74 07		 je	 SHORT $LN75@LoadString@5
  0016b	34 ec		 xor	 al, -20			; ffffffecH
  0016d	88 45 f9	 mov	 BYTE PTR __k$[ebp+21], al
  00170	eb 78		 jmp	 SHORT $LN111@LoadString@5
$LN75@LoadString@5:
  00172	c6 45 f9 ec	 mov	 BYTE PTR __k$[ebp+21], -20 ; ffffffecH
  00176	eb 72		 jmp	 SHORT $LN111@LoadString@5
$LN76@LoadString@5:
  00178	c6 45 f8 ed	 mov	 BYTE PTR __k$[ebp+20], -19 ; ffffffedH
  0017c	eb 6c		 jmp	 SHORT $LN111@LoadString@5
$LN77@LoadString@5:
  0017e	c6 45 f7 ea	 mov	 BYTE PTR __k$[ebp+19], -22 ; ffffffeaH
  00182	eb 66		 jmp	 SHORT $LN111@LoadString@5
$LN78@LoadString@5:
  00184	88 4d f6	 mov	 BYTE PTR __k$[ebp+18], cl
  00187	eb 61		 jmp	 SHORT $LN111@LoadString@5
$LN80@LoadString@5:
  00189	c6 45 f4 ed	 mov	 BYTE PTR __k$[ebp+16], -19 ; ffffffedH
  0018d	eb 5b		 jmp	 SHORT $LN111@LoadString@5
$LN81@LoadString@5:
  0018f	c6 45 f3 ea	 mov	 BYTE PTR __k$[ebp+15], -22 ; ffffffeaH
  00193	eb 55		 jmp	 SHORT $LN111@LoadString@5
$LN82@LoadString@5:
  00195	88 4d f2	 mov	 BYTE PTR __k$[ebp+14], cl
  00198	eb 50		 jmp	 SHORT $LN111@LoadString@5
$LN83@LoadString@5:
  0019a	c6 45 f1 ec	 mov	 BYTE PTR __k$[ebp+13], -20 ; ffffffecH
  0019e	eb 4a		 jmp	 SHORT $LN111@LoadString@5
$LN84@LoadString@5:
  001a0	c6 45 f0 ed	 mov	 BYTE PTR __k$[ebp+12], -19 ; ffffffedH
  001a4	eb 44		 jmp	 SHORT $LN111@LoadString@5
$LN85@LoadString@5:
  001a6	c6 45 ef ea	 mov	 BYTE PTR __k$[ebp+11], -22 ; ffffffeaH
  001aa	eb 3e		 jmp	 SHORT $LN111@LoadString@5
$LN86@LoadString@5:
  001ac	88 4d ee	 mov	 BYTE PTR __k$[ebp+10], cl
  001af	eb 39		 jmp	 SHORT $LN111@LoadString@5
$LN87@LoadString@5:
  001b1	c6 45 ed ec	 mov	 BYTE PTR __k$[ebp+9], -20 ; ffffffecH
  001b5	eb 33		 jmp	 SHORT $LN111@LoadString@5
$LN88@LoadString@5:
  001b7	c6 45 ec ed	 mov	 BYTE PTR __k$[ebp+8], -19 ; ffffffedH
  001bb	eb 2d		 jmp	 SHORT $LN111@LoadString@5
$LN89@LoadString@5:
  001bd	c6 45 eb ea	 mov	 BYTE PTR __k$[ebp+7], -22 ; ffffffeaH
  001c1	eb 27		 jmp	 SHORT $LN111@LoadString@5
$LN90@LoadString@5:
  001c3	88 4d ea	 mov	 BYTE PTR __k$[ebp+6], cl
  001c6	eb 22		 jmp	 SHORT $LN111@LoadString@5
$LN91@LoadString@5:
  001c8	c6 45 e9 ec	 mov	 BYTE PTR __k$[ebp+5], -20 ; ffffffecH
  001cc	eb 1c		 jmp	 SHORT $LN111@LoadString@5
$LN92@LoadString@5:
  001ce	c6 45 e8 ed	 mov	 BYTE PTR __k$[ebp+4], -19 ; ffffffedH
  001d2	eb 16		 jmp	 SHORT $LN111@LoadString@5
$LN93@LoadString@5:
  001d4	c6 45 e7 ea	 mov	 BYTE PTR __k$[ebp+3], -22 ; ffffffeaH
  001d8	eb 10		 jmp	 SHORT $LN111@LoadString@5
$LN94@LoadString@5:
  001da	c6 45 e6 eb	 mov	 BYTE PTR __k$[ebp+2], -21 ; ffffffebH
  001de	eb 0a		 jmp	 SHORT $LN111@LoadString@5
$LN95@LoadString@5:
  001e0	c6 45 e5 ec	 mov	 BYTE PTR __k$[ebp+1], -20 ; ffffffecH
  001e4	eb 04		 jmp	 SHORT $LN111@LoadString@5
$LN96@LoadString@5:
  001e6	c6 45 e4 ed	 mov	 BYTE PTR __k$[ebp], -19	; ffffffedH
$LN111@LoadString@5:
  001ea	6a 04		 push	 4
  001ec	8d 45 e4	 lea	 eax, DWORD PTR __k$[ebp]
  001ef	c6 45 f5 00	 mov	 BYTE PTR __k$[ebp+17], 0
  001f3	5a		 pop	 edx
$LL104@LoadString@5:
  001f4	81 30 ed ec eb
	ea		 xor	 DWORD PTR [eax], -353637139 ; eaebecedH
  001fa	83 c0 04	 add	 eax, 4
  001fd	4a		 dec	 edx
  001fe	75 f4		 jne	 SHORT $LL104@LoadString@5

; 163  : 		LoadString(_k, d, b, i);

  00200	ff 75 14	 push	 DWORD PTR _i$[ebp]
  00203	8b 4d e0	 mov	 ecx, DWORD PTR _this$GSCopy$[ebp]
  00206	80 75 f4 ed	 xor	 BYTE PTR __k$[ebp+16], -19 ; ffffffedH
  0020a	57		 push	 edi
  0020b	56		 push	 esi
  0020c	8d 45 e4	 lea	 eax, DWORD PTR __k$[ebp]
  0020f	50		 push	 eax
  00210	ff 15 00 00 00
	00		 call	 DWORD PTR __imp_?LoadStringA@ioINILoader@@QAEXPBD0PADH@Z

; 164  : 	}

  00216	8b 4d fc	 mov	 ecx, DWORD PTR __$ArrayPad$[ebp]
  00219	5f		 pop	 edi
  0021a	33 cd		 xor	 ecx, ebp
  0021c	5e		 pop	 esi
  0021d	e8 00 00 00 00	 call	 @__security_check_cookie@4
  00222	c9		 leave
  00223	c2 10 00	 ret	 16			; 00000010H
??$LoadString_e@$0BC@@ioINILoader@@QAEXAAY0BC@$$CBDAAY00$$CBDPADH@Z ENDP ; ioINILoader::LoadString_e<18>
_TEXT	ENDS
PUBLIC	__$ArrayPad$
PUBLIC	??$LoadFloat_e@$0BH@@ioINILoader@@QAEMAAY0BH@$$CBDM@Z ; ioINILoader::LoadFloat_e<23>
; Function compile flags: /Ogsp
;	COMDAT ??$LoadFloat_e@$0BH@@ioINILoader@@QAEMAAY0BH@$$CBDM@Z
_TEXT	SEGMENT
__k$ = -32						; size = 23
__$ArrayPad$ = -4					; size = 4
_k$ = 8							; size = 4
_f$ = 12						; size = 4
??$LoadFloat_e@$0BH@@ioINILoader@@QAEMAAY0BH@$$CBDM@Z PROC ; ioINILoader::LoadFloat_e<23>, COMDAT
; _this$ = ecx

; 135  : 	{

  00000	55		 push	 ebp
  00001	8b ec		 mov	 ebp, esp
  00003	83 ec 20	 sub	 esp, 32			; 00000020H
  00006	a1 00 00 00 00	 mov	 eax, DWORD PTR ___security_cookie
  0000b	33 c5		 xor	 eax, ebp
  0000d	89 45 fc	 mov	 DWORD PTR __$ArrayPad$[ebp], eax
  00010	8b 45 08	 mov	 eax, DWORD PTR _k$[ebp]

; 136  : 		_ENCSTR(k, _k);

  00013	8a 10		 mov	 dl, BYTE PTR [eax]
  00015	53		 push	 ebx
  00016	56		 push	 esi
  00017	8b f1		 mov	 esi, ecx
  00019	84 d2		 test	 dl, dl
  0001b	0f 84 2d 02 00
	00		 je	 $LN96@LoadFloat_@6
  00021	80 f2 ed	 xor	 dl, -19			; ffffffedH
  00024	88 55 e0	 mov	 BYTE PTR __k$[ebp], dl
  00027	8a 50 01	 mov	 dl, BYTE PTR [eax+1]
  0002a	84 d2		 test	 dl, dl
  0002c	0f 84 16 02 00
	00		 je	 $LN95@LoadFloat_@6
  00032	b1 ec		 mov	 cl, -20			; ffffffecH
  00034	32 d1		 xor	 dl, cl
  00036	88 55 e1	 mov	 BYTE PTR __k$[ebp+1], dl
  00039	8a 50 02	 mov	 dl, BYTE PTR [eax+2]
  0003c	84 d2		 test	 dl, dl
  0003e	0f 84 fe 01 00
	00		 je	 $LN94@LoadFloat_@6
  00044	80 f2 eb	 xor	 dl, -21			; ffffffebH
  00047	88 55 e2	 mov	 BYTE PTR __k$[ebp+2], dl
  0004a	8a 50 03	 mov	 dl, BYTE PTR [eax+3]
  0004d	84 d2		 test	 dl, dl
  0004f	0f 84 e7 01 00
	00		 je	 $LN93@LoadFloat_@6
  00055	b3 ea		 mov	 bl, -22			; ffffffeaH
  00057	32 d3		 xor	 dl, bl
  00059	88 55 e3	 mov	 BYTE PTR __k$[ebp+3], dl
  0005c	8a 50 04	 mov	 dl, BYTE PTR [eax+4]
  0005f	84 d2		 test	 dl, dl
  00061	0f 84 cf 01 00
	00		 je	 $LN92@LoadFloat_@6
  00067	80 f2 ed	 xor	 dl, -19			; ffffffedH
  0006a	88 55 e4	 mov	 BYTE PTR __k$[ebp+4], dl
  0006d	8a 50 05	 mov	 dl, BYTE PTR [eax+5]
  00070	84 d2		 test	 dl, dl
  00072	0f 84 b9 01 00
	00		 je	 $LN91@LoadFloat_@6
  00078	32 d1		 xor	 dl, cl
  0007a	88 55 e5	 mov	 BYTE PTR __k$[ebp+5], dl
  0007d	8a 50 06	 mov	 dl, BYTE PTR [eax+6]
  00080	84 d2		 test	 dl, dl
  00082	0f 84 a3 01 00
	00		 je	 $LN90@LoadFloat_@6
  00088	80 f2 eb	 xor	 dl, -21			; ffffffebH
  0008b	88 55 e6	 mov	 BYTE PTR __k$[ebp+6], dl
  0008e	8a 50 07	 mov	 dl, BYTE PTR [eax+7]
  00091	84 d2		 test	 dl, dl
  00093	0f 84 8d 01 00
	00		 je	 $LN89@LoadFloat_@6
  00099	32 d3		 xor	 dl, bl
  0009b	88 55 e7	 mov	 BYTE PTR __k$[ebp+7], dl
  0009e	8a 50 08	 mov	 dl, BYTE PTR [eax+8]
  000a1	84 d2		 test	 dl, dl
  000a3	0f 84 77 01 00
	00		 je	 $LN88@LoadFloat_@6
  000a9	80 f2 ed	 xor	 dl, -19			; ffffffedH
  000ac	88 55 e8	 mov	 BYTE PTR __k$[ebp+8], dl
  000af	8a 50 09	 mov	 dl, BYTE PTR [eax+9]
  000b2	84 d2		 test	 dl, dl
  000b4	0f 84 61 01 00
	00		 je	 $LN87@LoadFloat_@6
  000ba	32 d1		 xor	 dl, cl
  000bc	88 55 e9	 mov	 BYTE PTR __k$[ebp+9], dl
  000bf	8a 50 0a	 mov	 dl, BYTE PTR [eax+10]
  000c2	84 d2		 test	 dl, dl
  000c4	0f 84 4b 01 00
	00		 je	 $LN86@LoadFloat_@6
  000ca	80 f2 eb	 xor	 dl, -21			; ffffffebH
  000cd	88 55 ea	 mov	 BYTE PTR __k$[ebp+10], dl
  000d0	8a 50 0b	 mov	 dl, BYTE PTR [eax+11]
  000d3	84 d2		 test	 dl, dl
  000d5	0f 84 35 01 00
	00		 je	 $LN85@LoadFloat_@6
  000db	32 d3		 xor	 dl, bl
  000dd	88 55 eb	 mov	 BYTE PTR __k$[ebp+11], dl
  000e0	8a 50 0c	 mov	 dl, BYTE PTR [eax+12]
  000e3	84 d2		 test	 dl, dl
  000e5	0f 84 1f 01 00
	00		 je	 $LN84@LoadFloat_@6
  000eb	80 f2 ed	 xor	 dl, -19			; ffffffedH
  000ee	88 55 ec	 mov	 BYTE PTR __k$[ebp+12], dl
  000f1	8a 50 0d	 mov	 dl, BYTE PTR [eax+13]
  000f4	84 d2		 test	 dl, dl
  000f6	0f 84 09 01 00
	00		 je	 $LN83@LoadFloat_@6
  000fc	32 d1		 xor	 dl, cl
  000fe	88 55 ed	 mov	 BYTE PTR __k$[ebp+13], dl
  00101	8a 50 0e	 mov	 dl, BYTE PTR [eax+14]
  00104	84 d2		 test	 dl, dl
  00106	0f 84 f3 00 00
	00		 je	 $LN82@LoadFloat_@6
  0010c	80 f2 eb	 xor	 dl, -21			; ffffffebH
  0010f	88 55 ee	 mov	 BYTE PTR __k$[ebp+14], dl
  00112	8a 50 0f	 mov	 dl, BYTE PTR [eax+15]
  00115	84 d2		 test	 dl, dl
  00117	0f 84 dd 00 00
	00		 je	 $LN81@LoadFloat_@6
  0011d	32 d3		 xor	 dl, bl
  0011f	88 55 ef	 mov	 BYTE PTR __k$[ebp+15], dl
  00122	8a 50 10	 mov	 dl, BYTE PTR [eax+16]
  00125	84 d2		 test	 dl, dl
  00127	0f 84 c7 00 00
	00		 je	 $LN80@LoadFloat_@6
  0012d	80 f2 ed	 xor	 dl, -19			; ffffffedH
  00130	88 55 f0	 mov	 BYTE PTR __k$[ebp+16], dl
  00133	8a 50 11	 mov	 dl, BYTE PTR [eax+17]
  00136	84 d2		 test	 dl, dl
  00138	0f 84 b1 00 00
	00		 je	 $LN79@LoadFloat_@6
  0013e	32 d1		 xor	 dl, cl
  00140	88 55 f1	 mov	 BYTE PTR __k$[ebp+17], dl
  00143	8a 50 12	 mov	 dl, BYTE PTR [eax+18]
  00146	84 d2		 test	 dl, dl
  00148	0f 84 9b 00 00
	00		 je	 $LN78@LoadFloat_@6
  0014e	80 f2 eb	 xor	 dl, -21			; ffffffebH
  00151	88 55 f2	 mov	 BYTE PTR __k$[ebp+18], dl
  00154	8a 50 13	 mov	 dl, BYTE PTR [eax+19]
  00157	84 d2		 test	 dl, dl
  00159	0f 84 85 00 00
	00		 je	 $LN77@LoadFloat_@6
  0015f	32 d3		 xor	 dl, bl
  00161	88 55 f3	 mov	 BYTE PTR __k$[ebp+19], dl
  00164	8a 50 14	 mov	 dl, BYTE PTR [eax+20]
  00167	84 d2		 test	 dl, dl
  00169	74 73		 je	 SHORT $LN76@LoadFloat_@6
  0016b	80 f2 ed	 xor	 dl, -19			; ffffffedH
  0016e	88 55 f4	 mov	 BYTE PTR __k$[ebp+20], dl
  00171	8a 50 15	 mov	 dl, BYTE PTR [eax+21]
  00174	84 d2		 test	 dl, dl
  00176	74 61		 je	 SHORT $LN75@LoadFloat_@6
  00178	32 d1		 xor	 dl, cl
  0017a	80 78 16 00	 cmp	 BYTE PTR [eax+22], 0
  0017e	88 55 f5	 mov	 BYTE PTR __k$[ebp+21], dl
  00181	0f 84 cb 00 00
	00		 je	 $LN1@LoadFloat_@6
  00187	8a 50 17	 mov	 dl, BYTE PTR [eax+23]
  0018a	84 d2		 test	 dl, dl
  0018c	74 46		 je	 SHORT $LN73@LoadFloat_@6
  0018e	32 d3		 xor	 dl, bl
  00190	88 55 f7	 mov	 BYTE PTR __k$[ebp+23], dl
  00193	8a 50 18	 mov	 dl, BYTE PTR [eax+24]
  00196	84 d2		 test	 dl, dl
  00198	74 34		 je	 SHORT $LN72@LoadFloat_@6
  0019a	80 f2 ed	 xor	 dl, -19			; ffffffedH
  0019d	88 55 f8	 mov	 BYTE PTR __k$[ebp+24], dl
  001a0	8a 50 19	 mov	 dl, BYTE PTR [eax+25]
  001a3	84 d2		 test	 dl, dl
  001a5	74 1f		 je	 SHORT $LN71@LoadFloat_@6
  001a7	8a 40 1a	 mov	 al, BYTE PTR [eax+26]
  001aa	32 d1		 xor	 dl, cl
  001ac	88 55 f9	 mov	 BYTE PTR __k$[ebp+25], dl
  001af	84 c0		 test	 al, al
  001b1	74 0a		 je	 SHORT $LN70@LoadFloat_@6
  001b3	34 eb		 xor	 al, -21			; ffffffebH
  001b5	88 45 fa	 mov	 BYTE PTR __k$[ebp+26], al
  001b8	e9 95 00 00 00	 jmp	 $LN1@LoadFloat_@6
$LN70@LoadFloat_@6:
  001bd	c6 45 fa eb	 mov	 BYTE PTR __k$[ebp+26], -21 ; ffffffebH
  001c1	e9 8c 00 00 00	 jmp	 $LN1@LoadFloat_@6
$LN71@LoadFloat_@6:
  001c6	88 4d f9	 mov	 BYTE PTR __k$[ebp+25], cl
  001c9	e9 84 00 00 00	 jmp	 $LN1@LoadFloat_@6
$LN72@LoadFloat_@6:
  001ce	c6 45 f8 ed	 mov	 BYTE PTR __k$[ebp+24], -19 ; ffffffedH
  001d2	eb 7e		 jmp	 SHORT $LN1@LoadFloat_@6
$LN73@LoadFloat_@6:
  001d4	88 5d f7	 mov	 BYTE PTR __k$[ebp+23], bl
  001d7	eb 79		 jmp	 SHORT $LN1@LoadFloat_@6
$LN75@LoadFloat_@6:
  001d9	88 4d f5	 mov	 BYTE PTR __k$[ebp+21], cl
  001dc	eb 74		 jmp	 SHORT $LN1@LoadFloat_@6
$LN76@LoadFloat_@6:
  001de	c6 45 f4 ed	 mov	 BYTE PTR __k$[ebp+20], -19 ; ffffffedH
  001e2	eb 6e		 jmp	 SHORT $LN1@LoadFloat_@6
$LN77@LoadFloat_@6:
  001e4	88 5d f3	 mov	 BYTE PTR __k$[ebp+19], bl
  001e7	eb 69		 jmp	 SHORT $LN1@LoadFloat_@6
$LN78@LoadFloat_@6:
  001e9	c6 45 f2 eb	 mov	 BYTE PTR __k$[ebp+18], -21 ; ffffffebH
  001ed	eb 63		 jmp	 SHORT $LN1@LoadFloat_@6
$LN79@LoadFloat_@6:
  001ef	88 4d f1	 mov	 BYTE PTR __k$[ebp+17], cl
  001f2	eb 5e		 jmp	 SHORT $LN1@LoadFloat_@6
$LN80@LoadFloat_@6:
  001f4	c6 45 f0 ed	 mov	 BYTE PTR __k$[ebp+16], -19 ; ffffffedH
  001f8	eb 58		 jmp	 SHORT $LN1@LoadFloat_@6
$LN81@LoadFloat_@6:
  001fa	88 5d ef	 mov	 BYTE PTR __k$[ebp+15], bl
  001fd	eb 53		 jmp	 SHORT $LN1@LoadFloat_@6
$LN82@LoadFloat_@6:
  001ff	c6 45 ee eb	 mov	 BYTE PTR __k$[ebp+14], -21 ; ffffffebH
  00203	eb 4d		 jmp	 SHORT $LN1@LoadFloat_@6
$LN83@LoadFloat_@6:
  00205	88 4d ed	 mov	 BYTE PTR __k$[ebp+13], cl
  00208	eb 48		 jmp	 SHORT $LN1@LoadFloat_@6
$LN84@LoadFloat_@6:
  0020a	c6 45 ec ed	 mov	 BYTE PTR __k$[ebp+12], -19 ; ffffffedH
  0020e	eb 42		 jmp	 SHORT $LN1@LoadFloat_@6
$LN85@LoadFloat_@6:
  00210	88 5d eb	 mov	 BYTE PTR __k$[ebp+11], bl
  00213	eb 3d		 jmp	 SHORT $LN1@LoadFloat_@6
$LN86@LoadFloat_@6:
  00215	c6 45 ea eb	 mov	 BYTE PTR __k$[ebp+10], -21 ; ffffffebH
  00219	eb 37		 jmp	 SHORT $LN1@LoadFloat_@6
$LN87@LoadFloat_@6:
  0021b	88 4d e9	 mov	 BYTE PTR __k$[ebp+9], cl
  0021e	eb 32		 jmp	 SHORT $LN1@LoadFloat_@6
$LN88@LoadFloat_@6:
  00220	c6 45 e8 ed	 mov	 BYTE PTR __k$[ebp+8], -19 ; ffffffedH
  00224	eb 2c		 jmp	 SHORT $LN1@LoadFloat_@6
$LN89@LoadFloat_@6:
  00226	88 5d e7	 mov	 BYTE PTR __k$[ebp+7], bl
  00229	eb 27		 jmp	 SHORT $LN1@LoadFloat_@6
$LN90@LoadFloat_@6:
  0022b	c6 45 e6 eb	 mov	 BYTE PTR __k$[ebp+6], -21 ; ffffffebH
  0022f	eb 21		 jmp	 SHORT $LN1@LoadFloat_@6
$LN91@LoadFloat_@6:
  00231	88 4d e5	 mov	 BYTE PTR __k$[ebp+5], cl
  00234	eb 1c		 jmp	 SHORT $LN1@LoadFloat_@6
$LN92@LoadFloat_@6:
  00236	c6 45 e4 ed	 mov	 BYTE PTR __k$[ebp+4], -19 ; ffffffedH
  0023a	eb 16		 jmp	 SHORT $LN1@LoadFloat_@6
$LN93@LoadFloat_@6:
  0023c	c6 45 e3 ea	 mov	 BYTE PTR __k$[ebp+3], -22 ; ffffffeaH
  00240	eb 10		 jmp	 SHORT $LN1@LoadFloat_@6
$LN94@LoadFloat_@6:
  00242	c6 45 e2 eb	 mov	 BYTE PTR __k$[ebp+2], -21 ; ffffffebH
  00246	eb 0a		 jmp	 SHORT $LN1@LoadFloat_@6
$LN95@LoadFloat_@6:
  00248	c6 45 e1 ec	 mov	 BYTE PTR __k$[ebp+1], -20 ; ffffffecH
  0024c	eb 04		 jmp	 SHORT $LN1@LoadFloat_@6
$LN96@LoadFloat_@6:
  0024e	c6 45 e0 ed	 mov	 BYTE PTR __k$[ebp], -19	; ffffffedH
$LN1@LoadFloat_@6:
  00252	6a 05		 push	 5
  00254	8d 45 e0	 lea	 eax, DWORD PTR __k$[ebp]
  00257	c6 45 f6 00	 mov	 BYTE PTR __k$[ebp+22], 0
  0025b	5a		 pop	 edx
$LL104@LoadFloat_@6:
  0025c	81 30 ed ec eb
	ea		 xor	 DWORD PTR [eax], -353637139 ; eaebecedH
  00262	83 c0 04	 add	 eax, 4
  00265	4a		 dec	 edx
  00266	75 f4		 jne	 SHORT $LL104@LoadFloat_@6
  00268	6a 14		 push	 20			; 00000014H
  0026a	58		 pop	 eax
$LL101@LoadFloat_@6:
  0026b	8b c8		 mov	 ecx, eax
  0026d	81 e1 03 00 00
	80		 and	 ecx, -2147483645	; 80000003H
  00273	79 05		 jns	 SHORT $LN111@LoadFloat_@6
  00275	49		 dec	 ecx
  00276	83 c9 fc	 or	 ecx, -4			; fffffffcH
  00279	41		 inc	 ecx
$LN111@LoadFloat_@6:
  0027a	b2 ed		 mov	 dl, -19			; ffffffedH
  0027c	2a d1		 sub	 dl, cl
  0027e	30 54 05 e0	 xor	 BYTE PTR __k$[ebp+eax], dl
  00282	40		 inc	 eax
  00283	83 f8 16	 cmp	 eax, 22			; 00000016H
  00286	7c e3		 jl	 SHORT $LL101@LoadFloat_@6

; 137  : 		return LoadFloat(_k, f);

  00288	f3 0f 10 45 0c	 movss	 xmm0, DWORD PTR _f$[ebp]
  0028d	51		 push	 ecx
  0028e	8d 45 e0	 lea	 eax, DWORD PTR __k$[ebp]
  00291	f3 0f 11 04 24	 movss	 DWORD PTR [esp], xmm0
  00296	50		 push	 eax
  00297	8b ce		 mov	 ecx, esi
  00299	ff 15 00 00 00
	00		 call	 DWORD PTR __imp_?LoadFloat@ioINILoader@@QAEMPBDM@Z

; 138  : 	}

  0029f	8b 4d fc	 mov	 ecx, DWORD PTR __$ArrayPad$[ebp]
  002a2	5e		 pop	 esi
  002a3	33 cd		 xor	 ecx, ebp
  002a5	5b		 pop	 ebx
  002a6	e8 00 00 00 00	 call	 @__security_check_cookie@4
  002ab	c9		 leave
  002ac	c2 08 00	 ret	 8
??$LoadFloat_e@$0BH@@ioINILoader@@QAEMAAY0BH@$$CBDM@Z ENDP ; ioINILoader::LoadFloat_e<23>
_TEXT	ENDS
PUBLIC	??4?$CEncrypt@M@@QAEMM@Z			; CEncrypt<float>::operator=
; Function compile flags: /Ogsp
; File d:\lost saga for developer\youtube\tutorial\source\src\lsclient\encryptvalue.h
;	COMDAT ??4?$CEncrypt@M@@QAEMM@Z
_TEXT	SEGMENT
_value$ = 8						; size = 4
_inValue$ = 8						; size = 4
??4?$CEncrypt@M@@QAEMM@Z PROC				; CEncrypt<float>::operator=, COMDAT
; _this$ = ecx

; 1654 : 	{	

  00000	55		 push	 ebp
  00001	8b ec		 mov	 ebp, esp

; 1655 : 		type value = inValue;

  00003	d9 45 08	 fld	 DWORD PTR _inValue$[ebp]

; 1656 : 		EncryptValueToPool((char*)&value);

  00006	8d 45 08	 lea	 eax, DWORD PTR _value$[ebp]
  00009	50		 push	 eax
  0000a	d9 5d 08	 fstp	 DWORD PTR _value$[ebp]
  0000d	e8 00 00 00 00	 call	 ?EncryptValueToPool@?$CEncrypt@M@@AAEXPBD@Z ; CEncrypt<float>::EncryptValueToPool

; 1657 : #ifdef _NOTUSE
; 1658 : 		m_value = inValue;
; 1659 : 		Debug();
; 1660 : #endif
; 1661 : 		return value;

  00012	d9 45 08	 fld	 DWORD PTR _value$[ebp]

; 1662 : 	}

  00015	5d		 pop	 ebp
  00016	c2 04 00	 ret	 4
??4?$CEncrypt@M@@QAEMM@Z ENDP				; CEncrypt<float>::operator=
_TEXT	ENDS
PUBLIC	??0?$CEncrypt@_N@@QAE@XZ			; CEncrypt<bool>::CEncrypt<bool>
EXTRN	??0ccddaabb@@QAE@XZ:PROC			; ccddaabb::ccddaabb
;	COMDAT xdata$x
xdata$x	SEGMENT
__unwindtable$??0?$CEncrypt@_N@@QAE@XZ DD 0ffffffffH
	DD	FLAT:__unwindfunclet$??0?$CEncrypt@_N@@QAE@XZ$0
__ehfuncinfo$??0?$CEncrypt@_N@@QAE@XZ DD 019930522H
	DD	01H
	DD	FLAT:__unwindtable$??0?$CEncrypt@_N@@QAE@XZ
	DD	2 DUP(00H)
	DD	2 DUP(00H)
	DD	00H
	DD	01H
; Function compile flags: /Ogsp
xdata$x	ENDS
;	COMDAT ??0?$CEncrypt@_N@@QAE@XZ
_TEXT	SEGMENT
_this$ = -16						; size = 4
__$EHRec$ = -12						; size = 12
??0?$CEncrypt@_N@@QAE@XZ PROC				; CEncrypt<bool>::CEncrypt<bool>, COMDAT
; _this$ = ecx

; 109  : 	CEncrypt()

  00000	6a 04		 push	 4
  00002	b8 00 00 00 00	 mov	 eax, __ehhandler$??0?$CEncrypt@_N@@QAE@XZ
  00007	e8 00 00 00 00	 call	 __EH_prolog3
  0000c	8b f1		 mov	 esi, ecx
  0000e	89 75 f0	 mov	 DWORD PTR _this$[ebp], esi
  00011	8d 4e 0c	 lea	 ecx, DWORD PTR [esi+12]
  00014	c7 06 00 00 00
	00		 mov	 DWORD PTR [esi], OFFSET ??_7?$CEncrypt@_N@@6B@
  0001a	e8 00 00 00 00	 call	 ??0ccddaabb@@QAE@XZ	; ccddaabb::ccddaabb
  0001f	83 65 fc 00	 and	 DWORD PTR __$EHRec$[ebp+8], 0

; 110  : 	{
; 111  : 		Init();

  00023	8b ce		 mov	 ecx, esi
  00025	e8 00 00 00 00	 call	 ?Init@?$CEncrypt@_N@@AAEXXZ ; CEncrypt<bool>::Init

; 112  : 	}

  0002a	8b c6		 mov	 eax, esi
  0002c	e8 00 00 00 00	 call	 __EH_epilog3
  00031	c3		 ret	 0
_TEXT	ENDS
;	COMDAT text$x
text$x	SEGMENT
__unwindfunclet$??0?$CEncrypt@_N@@QAE@XZ$0:
  00000	8b 4d f0	 mov	 ecx, DWORD PTR _this$[ebp]
  00003	83 c1 0c	 add	 ecx, 12			; 0000000cH
  00006	e9 00 00 00 00	 jmp	 ??1ccddaabb@@UAE@XZ	; ccddaabb::~ccddaabb
__ehhandler$??0?$CEncrypt@_N@@QAE@XZ:
  0000b	8b 54 24 08	 mov	 edx, DWORD PTR [esp+8]
  0000f	8d 42 0c	 lea	 eax, DWORD PTR [edx+12]
  00012	8b 4a ec	 mov	 ecx, DWORD PTR [edx-20]
  00015	33 c8		 xor	 ecx, eax
  00017	e8 00 00 00 00	 call	 @__security_check_cookie@4
  0001c	b8 00 00 00 00	 mov	 eax, OFFSET __ehfuncinfo$??0?$CEncrypt@_N@@QAE@XZ
  00021	e9 00 00 00 00	 jmp	 ___CxxFrameHandler3
text$x	ENDS
??0?$CEncrypt@_N@@QAE@XZ ENDP				; CEncrypt<bool>::CEncrypt<bool>
PUBLIC	??B?$CEncrypt@_N@@QAE_NXZ			; CEncrypt<bool>::operator bool
; Function compile flags: /Ogsp
;	COMDAT ??B?$CEncrypt@_N@@QAE_NXZ
_TEXT	SEGMENT
_value$ = -1						; size = 1
??B?$CEncrypt@_N@@QAE_NXZ PROC				; CEncrypt<bool>::operator bool, COMDAT
; _this$ = ecx

; 134  : 	{

  00000	55		 push	 ebp
  00001	8b ec		 mov	 ebp, esp
  00003	51		 push	 ecx

; 135  : 		type value;
; 136  : 		DecryptValueToPool(&value);

  00004	8d 45 ff	 lea	 eax, DWORD PTR _value$[ebp]
  00007	50		 push	 eax
  00008	e8 00 00 00 00	 call	 ?DecryptValueToPool@?$CEncrypt@_N@@QAEXPA_N@Z ; CEncrypt<bool>::DecryptValueToPool

; 137  : 
; 138  : #ifdef _NOTUSE
; 139  : 		Debug();
; 140  : #endif
; 141  : 		return value;

  0000d	8a 45 ff	 mov	 al, BYTE PTR _value$[ebp]

; 142  : 	}

  00010	c9		 leave
  00011	c3		 ret	 0
??B?$CEncrypt@_N@@QAE_NXZ ENDP				; CEncrypt<bool>::operator bool
_TEXT	ENDS
PUBLIC	??B?$CEncrypt@_N@@QBE_NXZ			; CEncrypt<bool>::operator bool
; Function compile flags: /Ogsp
;	COMDAT ??B?$CEncrypt@_N@@QBE_NXZ
_TEXT	SEGMENT
_value$ = -1						; size = 1
??B?$CEncrypt@_N@@QBE_NXZ PROC				; CEncrypt<bool>::operator bool, COMDAT
; _this$ = ecx

; 145  : 	{

  00000	55		 push	 ebp
  00001	8b ec		 mov	 ebp, esp
  00003	51		 push	 ecx

; 146  : 		//UJ 130829, const도 똑같이 하면 된다 --start
; 147  : 		type value;
; 148  : 		CEncrypt<type>* pThis = const_cast<CEncrypt<type>*>(this);
; 149  : 		pThis->DecryptValueToPool(&value);

  00004	8d 45 ff	 lea	 eax, DWORD PTR _value$[ebp]
  00007	50		 push	 eax
  00008	e8 00 00 00 00	 call	 ?DecryptValueToPool@?$CEncrypt@_N@@QAEXPA_N@Z ; CEncrypt<bool>::DecryptValueToPool

; 150  : 		//// const에서 DecryptValueToPool 사용할 수 없으므로 아래와 같이함.
; 151  :  		//type value;
; 152  : 		//char szTempMem[MAX_ENCRYPT];
; 153  : 		//m_RC5.DecryptByte( m_MemPool, szTempMem, max(m_ValueSize, DEFAULT_ENCRYPT) );
; 154  : 		//memcpy( &value, szTempMem, m_ValueSize );
; 155  : 		//UJ --end
; 156  : 
; 157  : #ifdef _NOTUSE
; 158  : 		Debug();
; 159  : #endif
; 160  : 		return value;

  0000d	8a 45 ff	 mov	 al, BYTE PTR _value$[ebp]

; 161  : 	}

  00010	c9		 leave
  00011	c3		 ret	 0
??B?$CEncrypt@_N@@QBE_NXZ ENDP				; CEncrypt<bool>::operator bool
_TEXT	ENDS
PUBLIC	??4?$CEncrypt@_N@@QAE_N_N@Z			; CEncrypt<bool>::operator=
; Function compile flags: /Ogsp
;	COMDAT ??4?$CEncrypt@_N@@QAE_N_N@Z
_TEXT	SEGMENT
_inValue$ = 8						; size = 1
_value$ = 11						; size = 1
??4?$CEncrypt@_N@@QAE_N_N@Z PROC			; CEncrypt<bool>::operator=, COMDAT
; _this$ = ecx

; 225  : 	{

  00000	55		 push	 ebp
  00001	8b ec		 mov	 ebp, esp

; 226  : 		type value = inValue;

  00003	8a 45 08	 mov	 al, BYTE PTR _inValue$[ebp]
  00006	88 45 0b	 mov	 BYTE PTR _value$[ebp], al

; 227  : 		EncryptValueToPool((char*)&value);

  00009	8d 45 0b	 lea	 eax, DWORD PTR _value$[ebp]
  0000c	50		 push	 eax
  0000d	e8 00 00 00 00	 call	 ?EncryptValueToPool@?$CEncrypt@_N@@AAEXPBD@Z ; CEncrypt<bool>::EncryptValueToPool

; 228  : #ifdef _NOTUSE
; 229  : 		m_value = inValue;
; 230  : 		Debug();
; 231  : #endif
; 232  : 		return value;

  00012	8a 45 0b	 mov	 al, BYTE PTR _value$[ebp]

; 233  : 	}

  00015	5d		 pop	 ebp
  00016	c2 04 00	 ret	 4
??4?$CEncrypt@_N@@QAE_N_N@Z ENDP			; CEncrypt<bool>::operator=
_TEXT	ENDS
PUBLIC	?SetGravityAmt@ioBaseChar@@QAEXM@Z		; ioBaseChar::SetGravityAmt
; Function compile flags: /Ogsp
; File d:\lost saga for developer\youtube\tutorial\source\src\lsclient\iobasechar.h
;	COMDAT ?SetGravityAmt@ioBaseChar@@QAEXM@Z
_TEXT	SEGMENT
_value$528231 = 8					; size = 4
_fAmt$ = 8						; size = 4
?SetGravityAmt@ioBaseChar@@QAEXM@Z PROC			; ioBaseChar::SetGravityAmt, COMDAT
; _this$ = ecx

; 2631 : 	inline void SetGravityAmt( float fAmt ) { m_fGravityAmt = fAmt; }

  00000	55		 push	 ebp
  00001	8b ec		 mov	 ebp, esp
  00003	f3 0f 10 45 08	 movss	 xmm0, DWORD PTR _fAmt$[ebp]
  00008	8d 45 08	 lea	 eax, DWORD PTR _value$528231[ebp]
  0000b	50		 push	 eax
  0000c	81 c1 e8 0b 00
	00		 add	 ecx, 3048		; 00000be8H
  00012	f3 0f 11 45 08	 movss	 DWORD PTR _value$528231[ebp], xmm0
  00017	e8 00 00 00 00	 call	 ?EncryptValueToPool@?$CEncrypt@M@@AAEXPBD@Z ; CEncrypt<float>::EncryptValueToPool
  0001c	5d		 pop	 ebp
  0001d	c2 04 00	 ret	 4
?SetGravityAmt@ioBaseChar@@QAEXM@Z ENDP			; ioBaseChar::SetGravityAmt
_TEXT	ENDS
PUBLIC	??0ioFlyBuff@@QAE@XZ				; ioFlyBuff::ioFlyBuff
EXTRN	__imp_??0ioHashString@@QAE@XZ:PROC
EXTRN	??0ioBuff@@QAE@XZ:PROC				; ioBuff::ioBuff
;	COMDAT xdata$x
; File d:\lost saga for developer\youtube\tutorial\source\src\lsclient\ioflybuff.cpp
xdata$x	SEGMENT
__ehfuncinfo$??0ioFlyBuff@@QAE@XZ DD 019930522H
	DD	0bH
	DD	FLAT:__unwindtable$??0ioFlyBuff@@QAE@XZ
	DD	2 DUP(00H)
	DD	2 DUP(00H)
	DD	00H
	DD	01H
__unwindtable$??0ioFlyBuff@@QAE@XZ DD 0ffffffffH
	DD	FLAT:__unwindfunclet$??0ioFlyBuff@@QAE@XZ$0
	DD	00H
	DD	FLAT:__unwindfunclet$??0ioFlyBuff@@QAE@XZ$1
	DD	01H
	DD	FLAT:__unwindfunclet$??0ioFlyBuff@@QAE@XZ$2
	DD	02H
	DD	FLAT:__unwindfunclet$??0ioFlyBuff@@QAE@XZ$3
	DD	03H
	DD	FLAT:__unwindfunclet$??0ioFlyBuff@@QAE@XZ$4
	DD	04H
	DD	FLAT:__unwindfunclet$??0ioFlyBuff@@QAE@XZ$5
	DD	05H
	DD	FLAT:__unwindfunclet$??0ioFlyBuff@@QAE@XZ$6
	DD	06H
	DD	FLAT:__unwindfunclet$??0ioFlyBuff@@QAE@XZ$7
	DD	07H
	DD	FLAT:__unwindfunclet$??0ioFlyBuff@@QAE@XZ$8
	DD	08H
	DD	FLAT:__unwindfunclet$??0ioFlyBuff@@QAE@XZ$9
	DD	09H
	DD	FLAT:__unwindfunclet$??0ioFlyBuff@@QAE@XZ$10
; Function compile flags: /Ogsp
xdata$x	ENDS
;	COMDAT ??0ioFlyBuff@@QAE@XZ
_TEXT	SEGMENT
_this$ = -16						; size = 4
__$EHRec$ = -12						; size = 12
??0ioFlyBuff@@QAE@XZ PROC				; ioFlyBuff::ioFlyBuff, COMDAT
; _this$ = ecx

; 10   : {

  00000	6a 04		 push	 4
  00002	b8 00 00 00 00	 mov	 eax, __ehhandler$??0ioFlyBuff@@QAE@XZ
  00007	e8 00 00 00 00	 call	 __EH_prolog3
  0000c	8b f1		 mov	 esi, ecx
  0000e	89 75 f0	 mov	 DWORD PTR _this$[ebp], esi
  00011	e8 00 00 00 00	 call	 ??0ioBuff@@QAE@XZ	; ioBuff::ioBuff
  00016	8b 3d 00 00 00
	00		 mov	 edi, DWORD PTR __imp_??0ioHashString@@QAE@XZ
  0001c	83 65 fc 00	 and	 DWORD PTR __$EHRec$[ebp+8], 0
  00020	8d 8e 90 09 00
	00		 lea	 ecx, DWORD PTR [esi+2448]
  00026	c7 06 00 00 00
	00		 mov	 DWORD PTR [esi], OFFSET ??_7ioFlyBuff@@6B@
  0002c	ff d7		 call	 edi
  0002e	8d 8e a0 09 00
	00		 lea	 ecx, DWORD PTR [esi+2464]
  00034	c6 45 fc 01	 mov	 BYTE PTR __$EHRec$[ebp+8], 1
  00038	ff d7		 call	 edi
  0003a	8d 8e b0 09 00
	00		 lea	 ecx, DWORD PTR [esi+2480]
  00040	c6 45 fc 02	 mov	 BYTE PTR __$EHRec$[ebp+8], 2
  00044	ff d7		 call	 edi
  00046	8d 8e c0 09 00
	00		 lea	 ecx, DWORD PTR [esi+2496]
  0004c	c6 45 fc 03	 mov	 BYTE PTR __$EHRec$[ebp+8], 3
  00050	ff d7		 call	 edi
  00052	8d 8e d0 09 00
	00		 lea	 ecx, DWORD PTR [esi+2512]
  00058	c6 45 fc 04	 mov	 BYTE PTR __$EHRec$[ebp+8], 4
  0005c	ff d7		 call	 edi
  0005e	8d 8e e0 09 00
	00		 lea	 ecx, DWORD PTR [esi+2528]
  00064	c6 45 fc 05	 mov	 BYTE PTR __$EHRec$[ebp+8], 5
  00068	ff d7		 call	 edi
  0006a	8d 8e f0 09 00
	00		 lea	 ecx, DWORD PTR [esi+2544]
  00070	c6 45 fc 06	 mov	 BYTE PTR __$EHRec$[ebp+8], 6
  00074	ff d7		 call	 edi
  00076	8d 8e 18 0a 00
	00		 lea	 ecx, DWORD PTR [esi+2584]
  0007c	c6 45 fc 07	 mov	 BYTE PTR __$EHRec$[ebp+8], 7
  00080	e8 00 00 00 00	 call	 ??0?$CEncrypt@_N@@QAE@XZ ; CEncrypt<bool>::CEncrypt<bool>
  00085	8d 8e 48 0a 00
	00		 lea	 ecx, DWORD PTR [esi+2632]
  0008b	c6 45 fc 08	 mov	 BYTE PTR __$EHRec$[ebp+8], 8
  0008f	e8 00 00 00 00	 call	 ??0?$CEncrypt@_N@@QAE@XZ ; CEncrypt<bool>::CEncrypt<bool>
  00094	8d 8e 7c 0a 00
	00		 lea	 ecx, DWORD PTR [esi+2684]
  0009a	c6 45 fc 09	 mov	 BYTE PTR __$EHRec$[ebp+8], 9
  0009e	ff d7		 call	 edi
  000a0	8d 8e 90 0a 00
	00		 lea	 ecx, DWORD PTR [esi+2704]
  000a6	c6 45 fc 0a	 mov	 BYTE PTR __$EHRec$[ebp+8], 10 ; 0000000aH
  000aa	ff d7		 call	 edi

; 11   : 	m_dwPreCheckTime = 0;

  000ac	83 a6 8c 09 00
	00 00		 and	 DWORD PTR [esi+2444], 0

; 12   : 	m_dwFlyBoostEndTime = 0;

  000b3	83 a6 00 0a 00
	00 00		 and	 DWORD PTR [esi+2560], 0

; 13   : 	m_bSetFlyState = false;
; 14   : 
; 15   : 	m_fPreMoveSpeed = 0.0f;

  000ba	0f 57 c0	 xorps	 xmm0, xmm0

; 16   : 
; 17   : 	m_dwCurEffectID = -1;

  000bd	83 8e 14 0a 00
	00 ff		 or	 DWORD PTR [esi+2580], -1
  000c4	c6 86 08 0a 00
	00 00		 mov	 BYTE PTR [esi+2568], 0
  000cb	f3 0f 11 86 10
	0a 00 00	 movss	 DWORD PTR [esi+2576], xmm0

; 18   : }

  000d3	8b c6		 mov	 eax, esi
  000d5	e8 00 00 00 00	 call	 __EH_epilog3
  000da	c3		 ret	 0
_TEXT	ENDS
;	COMDAT text$x
text$x	SEGMENT
__unwindfunclet$??0ioFlyBuff@@QAE@XZ$0:
  00000	8b 4d f0	 mov	 ecx, DWORD PTR _this$[ebp]
  00003	e9 00 00 00 00	 jmp	 ??1ioBuff@@UAE@XZ	; ioBuff::~ioBuff
__unwindfunclet$??0ioFlyBuff@@QAE@XZ$1:
  00008	8b 4d f0	 mov	 ecx, DWORD PTR _this$[ebp]
  0000b	81 c1 90 09 00
	00		 add	 ecx, 2448		; 00000990H
  00011	ff 25 00 00 00
	00		 jmp	 DWORD PTR __imp_??1ioHashString@@QAE@XZ
__unwindfunclet$??0ioFlyBuff@@QAE@XZ$2:
  00017	8b 4d f0	 mov	 ecx, DWORD PTR _this$[ebp]
  0001a	81 c1 a0 09 00
	00		 add	 ecx, 2464		; 000009a0H
  00020	ff 25 00 00 00
	00		 jmp	 DWORD PTR __imp_??1ioHashString@@QAE@XZ
__unwindfunclet$??0ioFlyBuff@@QAE@XZ$3:
  00026	8b 4d f0	 mov	 ecx, DWORD PTR _this$[ebp]
  00029	81 c1 b0 09 00
	00		 add	 ecx, 2480		; 000009b0H
  0002f	ff 25 00 00 00
	00		 jmp	 DWORD PTR __imp_??1ioHashString@@QAE@XZ
__unwindfunclet$??0ioFlyBuff@@QAE@XZ$4:
  00035	8b 4d f0	 mov	 ecx, DWORD PTR _this$[ebp]
  00038	81 c1 c0 09 00
	00		 add	 ecx, 2496		; 000009c0H
  0003e	ff 25 00 00 00
	00		 jmp	 DWORD PTR __imp_??1ioHashString@@QAE@XZ
__unwindfunclet$??0ioFlyBuff@@QAE@XZ$5:
  00044	8b 4d f0	 mov	 ecx, DWORD PTR _this$[ebp]
  00047	81 c1 d0 09 00
	00		 add	 ecx, 2512		; 000009d0H
  0004d	ff 25 00 00 00
	00		 jmp	 DWORD PTR __imp_??1ioHashString@@QAE@XZ
__unwindfunclet$??0ioFlyBuff@@QAE@XZ$6:
  00053	8b 4d f0	 mov	 ecx, DWORD PTR _this$[ebp]
  00056	81 c1 e0 09 00
	00		 add	 ecx, 2528		; 000009e0H
  0005c	ff 25 00 00 00
	00		 jmp	 DWORD PTR __imp_??1ioHashString@@QAE@XZ
__unwindfunclet$??0ioFlyBuff@@QAE@XZ$7:
  00062	8b 4d f0	 mov	 ecx, DWORD PTR _this$[ebp]
  00065	81 c1 f0 09 00
	00		 add	 ecx, 2544		; 000009f0H
  0006b	ff 25 00 00 00
	00		 jmp	 DWORD PTR __imp_??1ioHashString@@QAE@XZ
__unwindfunclet$??0ioFlyBuff@@QAE@XZ$8:
  00071	8b 4d f0	 mov	 ecx, DWORD PTR _this$[ebp]
  00074	81 c1 18 0a 00
	00		 add	 ecx, 2584		; 00000a18H
  0007a	e9 00 00 00 00	 jmp	 ??1?$CEncrypt@_N@@UAE@XZ ; CEncrypt<bool>::~CEncrypt<bool>
__unwindfunclet$??0ioFlyBuff@@QAE@XZ$9:
  0007f	8b 4d f0	 mov	 ecx, DWORD PTR _this$[ebp]
  00082	81 c1 48 0a 00
	00		 add	 ecx, 2632		; 00000a48H
  00088	e9 00 00 00 00	 jmp	 ??1?$CEncrypt@_N@@UAE@XZ ; CEncrypt<bool>::~CEncrypt<bool>
__unwindfunclet$??0ioFlyBuff@@QAE@XZ$10:
  0008d	8b 4d f0	 mov	 ecx, DWORD PTR _this$[ebp]
  00090	81 c1 7c 0a 00
	00		 add	 ecx, 2684		; 00000a7cH
  00096	ff 25 00 00 00
	00		 jmp	 DWORD PTR __imp_??1ioHashString@@QAE@XZ
__ehhandler$??0ioFlyBuff@@QAE@XZ:
  0009c	8b 54 24 08	 mov	 edx, DWORD PTR [esp+8]
  000a0	8d 42 0c	 lea	 eax, DWORD PTR [edx+12]
  000a3	8b 4a ec	 mov	 ecx, DWORD PTR [edx-20]
  000a6	33 c8		 xor	 ecx, eax
  000a8	e8 00 00 00 00	 call	 @__security_check_cookie@4
  000ad	b8 00 00 00 00	 mov	 eax, OFFSET __ehfuncinfo$??0ioFlyBuff@@QAE@XZ
  000b2	e9 00 00 00 00	 jmp	 ___CxxFrameHandler3
text$x	ENDS
??0ioFlyBuff@@QAE@XZ ENDP				; ioFlyBuff::ioFlyBuff
; Function compile flags: /Ogsp
;	COMDAT ??_GioFlyBuff@@UAEPAXI@Z
_TEXT	SEGMENT
___flags$ = 8						; size = 4
??_GioFlyBuff@@UAEPAXI@Z PROC				; ioFlyBuff::`scalar deleting destructor', COMDAT
; _this$ = ecx
  00000	55		 push	 ebp
  00001	8b ec		 mov	 ebp, esp
  00003	56		 push	 esi
  00004	8b f1		 mov	 esi, ecx
  00006	e8 00 00 00 00	 call	 ??1ioFlyBuff@@UAE@XZ	; ioFlyBuff::~ioFlyBuff
  0000b	f6 45 08 01	 test	 BYTE PTR ___flags$[ebp], 1
  0000f	74 07		 je	 SHORT $LN1@scalar@2
  00011	56		 push	 esi
  00012	e8 00 00 00 00	 call	 ??3@YAXPAX@Z		; operator delete
  00017	59		 pop	 ecx
$LN1@scalar@2:
  00018	8b c6		 mov	 eax, esi
  0001a	5e		 pop	 esi
  0001b	5d		 pop	 ebp
  0001c	c2 04 00	 ret	 4
??_GioFlyBuff@@UAEPAXI@Z ENDP				; ioFlyBuff::`scalar deleting destructor'
_TEXT	ENDS
PUBLIC	__real@3dcccccd
PUBLIC	_rkLoader$GSCopy$
PUBLIC	__$ArrayPad$
EXTRN	__imp_??4ioHashString@@QAEAAV0@PBD@Z:PROC
EXTRN	?LoadProperty@ioBuff@@UAEXAAVioINILoader@@@Z:PROC ; ioBuff::LoadProperty
;	COMDAT __real@3dcccccd
; File d:\lost saga for developer\youtube\tutorial\source\src\lsclient\stringprotect.h
CONST	SEGMENT
__real@3dcccccd DD 03dcccccdr			; 0.1
; Function compile flags: /Ogsp
; File d:\lost saga for developer\youtube\tutorial\source\src\lsclient\ioflybuff.cpp
CONST	ENDS
;	COMDAT ?LoadProperty@ioFlyBuff@@UAEXAAVioINILoader@@@Z
_TEXT	SEGMENT
_rkLoader$GSCopy$ = -924				; size = 4
_szBuf$ = -920						; size = 260
__k$529023 = -660					; size = 13
__k$530536 = -640					; size = 17
__k$528536 = -616					; size = 17
__k$530398 = -592					; size = 17
__k$531398 = -568					; size = 17
__k$529648 = -544					; size = 17
__k$530898 = -520					; size = 17
__k$529898 = -496					; size = 17
__k$528322 = -472					; size = 21
__k$528410 = -444					; size = 15
__k$530273 = -424					; size = 20
__k$529586 = -400					; size = 15
__k$529773 = -380					; size = 20
__k$529148 = -356					; size = 16
__k$531536 = -336					; size = 19
__k$528773 = -312					; size = 15
__k$531148 = -292					; size = 19
__k$529398 = -268					; size = 14
__k$531023 = -248					; size = 19
__k$528898 = -224					; size = 16
__k$530661 = -204					; size = 19
__k$529273 = -180					; size = 15
__k$530023 = -160					; size = 19
__k$528648 = -136					; size = 15
__k$531661 = -116					; size = 18
__k$530862 = -92					; size = 14
__k$531273 = -72					; size = 16
__k$531786 = -52					; size = 23
__k$530148 = -24					; size = 16
__$ArrayPad$ = -4					; size = 4
_rkLoader$ = 8						; size = 4
?LoadProperty@ioFlyBuff@@UAEXAAVioINILoader@@@Z PROC	; ioFlyBuff::LoadProperty, COMDAT
; _this$ = ecx

; 68   : {

  00000	55		 push	 ebp
  00001	8b ec		 mov	 ebp, esp
  00003	81 ec 9c 03 00
	00		 sub	 esp, 924		; 0000039cH
  00009	a1 00 00 00 00	 mov	 eax, DWORD PTR ___security_cookie
  0000e	33 c5		 xor	 eax, ebp
  00010	89 45 fc	 mov	 DWORD PTR __$ArrayPad$[ebp], eax
  00013	53		 push	 ebx
  00014	56		 push	 esi
  00015	57		 push	 edi
  00016	8b 7d 08	 mov	 edi, DWORD PTR _rkLoader$[ebp]

; 69   : 	ioBuff::LoadProperty( rkLoader );

  00019	57		 push	 edi
  0001a	8b f1		 mov	 esi, ecx

; 121  : 
; 122  : 	rkLoader.LoadString_e( "attack_motion_ani", "", szBuf, MAX_PATH );

  0001c	89 bd 64 fc ff
	ff		 mov	 DWORD PTR _rkLoader$GSCopy$[ebp], edi
  00022	e8 00 00 00 00	 call	 ?LoadProperty@ioBuff@@UAEXAAVioINILoader@@@Z ; ioBuff::LoadProperty
  00027	6a 05		 push	 5
  00029	c7 85 28 fe ff
	ff 8b 80 92 b5	 mov	 DWORD PTR __k$528322[ebp], -1248690037 ; b592808bH
  00033	c7 85 2c fe ff
	ff 9e 98 8a 98	 mov	 DWORD PTR __k$528322[ebp+4], -1735747426 ; 988a989eH
  0003d	c7 85 30 fe ff
	ff 99 b3 81 9f	 mov	 DWORD PTR __k$528322[ebp+8], -1618889831 ; 9f81b399H
  00047	c7 85 34 fe ff
	ff 80 9c b4 9a	 mov	 DWORD PTR __k$528322[ebp+12], -1699439488 ; 9ab49c80H
  00051	c7 85 38 fe ff
	ff 82 9b 8e 98	 mov	 DWORD PTR __k$528322[ebp+16], -1735484542 ; 988e9b82H
  0005b	8d 85 28 fe ff
	ff		 lea	 eax, DWORD PTR __k$528322[ebp]
  00061	c6 85 3c fe ff
	ff 00		 mov	 BYTE PTR __k$528322[ebp+20], 0
  00068	59		 pop	 ecx
  00069	bb ed ec eb ea	 mov	 ebx, -353637139		; eaebecedH
$LL106@LoadProper:

; 70   : 
; 71   : 	m_fFlyStartJumpPower = rkLoader.LoadFloat_e( "fly_start_jump_power", 0.0f );

  0006e	31 18		 xor	 DWORD PTR [eax], ebx
  00070	83 c0 04	 add	 eax, 4
  00073	49		 dec	 ecx
  00074	75 f8		 jne	 SHORT $LL106@LoadProper
  00076	0f 57 c0	 xorps	 xmm0, xmm0
  00079	51		 push	 ecx
  0007a	8d 85 28 fe ff
	ff		 lea	 eax, DWORD PTR __k$528322[ebp]
  00080	f3 0f 11 04 24	 movss	 DWORD PTR [esp], xmm0
  00085	50		 push	 eax
  00086	8b cf		 mov	 ecx, edi
  00088	ff 15 00 00 00
	00		 call	 DWORD PTR __imp_?LoadFloat@ioINILoader@@QAEMPBDM@Z
  0008e	d9 9e 6c 09 00
	00		 fstp	 DWORD PTR [esi+2412]
  00094	6a 03		 push	 3

; 72   : 	m_fFlyJumpPower = rkLoader.LoadFloat_e( "fly_jump_power", 0.0f );

  00096	c7 85 44 fe ff
	ff 8b 80 92 b5	 mov	 DWORD PTR __k$528410[ebp], -1248690037 ; b592808bH
  000a0	c7 85 48 fe ff
	ff 87 99 86 9a	 mov	 DWORD PTR __k$528410[ebp+4], -1702454905 ; 9a869987H
  000aa	c7 85 4c fe ff
	ff b2 9c 84 9d	 mov	 DWORD PTR __k$528410[ebp+8], -1652253518 ; 9d849cb2H
  000b4	66 c7 85 50 fe
	ff ff 88 9e	 mov	 WORD PTR __k$528410[ebp+12], 40584 ; 00009e88H
  000bd	8d 85 44 fe ff
	ff		 lea	 eax, DWORD PTR __k$528410[ebp]
  000c3	c6 85 52 fe ff
	ff 00		 mov	 BYTE PTR __k$528410[ebp+14], 0
  000ca	59		 pop	 ecx
$LL212@LoadProper:
  000cb	31 18		 xor	 DWORD PTR [eax], ebx
  000cd	83 c0 04	 add	 eax, 4
  000d0	49		 dec	 ecx
  000d1	75 f8		 jne	 SHORT $LL212@LoadProper
  000d3	6a 0c		 push	 12			; 0000000cH
  000d5	5f		 pop	 edi
$LL209@LoadProper:
  000d6	8b c7		 mov	 eax, edi
  000d8	25 03 00 00 80	 and	 eax, -2147483645	; 80000003H
  000dd	79 05		 jns	 SHORT $LN3193@LoadProper
  000df	48		 dec	 eax
  000e0	83 c8 fc	 or	 eax, -4			; fffffffcH
  000e3	40		 inc	 eax
$LN3193@LoadProper:
  000e4	b1 ed		 mov	 cl, -19			; ffffffedH
  000e6	2a c8		 sub	 cl, al
  000e8	30 8c 3d 44 fe
	ff ff		 xor	 BYTE PTR __k$528410[ebp+edi], cl
  000ef	47		 inc	 edi
  000f0	83 ff 0e	 cmp	 edi, 14			; 0000000eH
  000f3	7c e1		 jl	 SHORT $LL209@LoadProper
  000f5	0f 57 c0	 xorps	 xmm0, xmm0
  000f8	51		 push	 ecx
  000f9	8b 8d 64 fc ff
	ff		 mov	 ecx, DWORD PTR _rkLoader$GSCopy$[ebp]
  000ff	8d 85 44 fe ff
	ff		 lea	 eax, DWORD PTR __k$528410[ebp]
  00105	f3 0f 11 04 24	 movss	 DWORD PTR [esp], xmm0
  0010a	50		 push	 eax
  0010b	ff 15 00 00 00
	00		 call	 DWORD PTR __imp_?LoadFloat@ioINILoader@@QAEMPBDM@Z
  00111	d9 9e 70 09 00
	00		 fstp	 DWORD PTR [esi+2416]
  00117	6a 04		 push	 4

; 73   : 	m_fFlyFrictionAmt = rkLoader.LoadFloat_e( "fly_friction_amt", 0.0f );

  00119	c7 85 98 fd ff
	ff 8b 80 92 b5	 mov	 DWORD PTR __k$528536[ebp], -1248690037 ; b592808bH
  00123	c7 85 9c fd ff
	ff 8b 9e 82 89	 mov	 DWORD PTR __k$528536[ebp+4], -1987928437 ; 89829e8bH
  0012d	c7 85 a0 fd ff
	ff 99 85 84 84	 mov	 DWORD PTR __k$528536[ebp+8], -2071689831 ; 84848599H
  00137	c7 85 a4 fd ff
	ff b2 8d 86 9e	 mov	 DWORD PTR __k$528536[ebp+12], -1635349070 ; 9e868db2H
  00141	8d 85 98 fd ff
	ff		 lea	 eax, DWORD PTR __k$528536[ebp]
  00147	c6 85 a8 fd ff
	ff 00		 mov	 BYTE PTR __k$528536[ebp+16], 0
  0014e	59		 pop	 ecx
$LL318@LoadProper:
  0014f	31 18		 xor	 DWORD PTR [eax], ebx
  00151	83 c0 04	 add	 eax, 4
  00154	49		 dec	 ecx
  00155	75 f8		 jne	 SHORT $LL318@LoadProper
  00157	0f 57 c0	 xorps	 xmm0, xmm0
  0015a	51		 push	 ecx
  0015b	8b 8d 64 fc ff
	ff		 mov	 ecx, DWORD PTR _rkLoader$GSCopy$[ebp]
  00161	8d 85 98 fd ff
	ff		 lea	 eax, DWORD PTR __k$528536[ebp]
  00167	f3 0f 11 04 24	 movss	 DWORD PTR [esp], xmm0
  0016c	50		 push	 eax
  0016d	ff 15 00 00 00
	00		 call	 DWORD PTR __imp_?LoadFloat@ioINILoader@@QAEMPBDM@Z
  00173	d9 9e 78 09 00
	00		 fstp	 DWORD PTR [esi+2424]
  00179	6a 03		 push	 3

; 74   : 	m_fFlyMoveSpeed = rkLoader.LoadFloat_e( "fly_move_speed", 0.0f );

  0017b	c7 85 78 ff ff
	ff 8b 80 92 b5	 mov	 DWORD PTR __k$528648[ebp], -1248690037 ; b592808bH
  00185	c7 85 7c ff ff
	ff 80 83 9d 8f	 mov	 DWORD PTR __k$528648[ebp+4], -1885502592 ; 8f9d8380H
  0018f	c7 45 80 b2 9f
	9b 8f		 mov	 DWORD PTR __k$528648[ebp+8], -1885626446 ; 8f9b9fb2H
  00196	66 c7 45 84 88
	88		 mov	 WORD PTR __k$528648[ebp+12], 34952 ; 00008888H
  0019c	8d 85 78 ff ff
	ff		 lea	 eax, DWORD PTR __k$528648[ebp]
  001a2	c6 45 86 00	 mov	 BYTE PTR __k$528648[ebp+14], 0
  001a6	59		 pop	 ecx
$LL424@LoadProper:
  001a7	31 18		 xor	 DWORD PTR [eax], ebx
  001a9	83 c0 04	 add	 eax, 4
  001ac	49		 dec	 ecx
  001ad	75 f8		 jne	 SHORT $LL424@LoadProper
  001af	6a 0c		 push	 12			; 0000000cH
  001b1	5f		 pop	 edi
$LL421@LoadProper:
  001b2	8b c7		 mov	 eax, edi
  001b4	25 03 00 00 80	 and	 eax, -2147483645	; 80000003H
  001b9	79 05		 jns	 SHORT $LN3194@LoadProper
  001bb	48		 dec	 eax
  001bc	83 c8 fc	 or	 eax, -4			; fffffffcH
  001bf	40		 inc	 eax
$LN3194@LoadProper:
  001c0	b1 ed		 mov	 cl, -19			; ffffffedH
  001c2	2a c8		 sub	 cl, al
  001c4	30 8c 3d 78 ff
	ff ff		 xor	 BYTE PTR __k$528648[ebp+edi], cl
  001cb	47		 inc	 edi
  001cc	83 ff 0e	 cmp	 edi, 14			; 0000000eH
  001cf	7c e1		 jl	 SHORT $LL421@LoadProper
  001d1	0f 57 c0	 xorps	 xmm0, xmm0
  001d4	51		 push	 ecx
  001d5	8b 8d 64 fc ff
	ff		 mov	 ecx, DWORD PTR _rkLoader$GSCopy$[ebp]
  001db	8d 85 78 ff ff
	ff		 lea	 eax, DWORD PTR __k$528648[ebp]
  001e1	f3 0f 11 04 24	 movss	 DWORD PTR [esp], xmm0
  001e6	50		 push	 eax
  001e7	ff 15 00 00 00
	00		 call	 DWORD PTR __imp_?LoadFloat@ioINILoader@@QAEMPBDM@Z
  001ed	d9 9e 74 09 00
	00		 fstp	 DWORD PTR [esi+2420]
  001f3	6a 03		 push	 3

; 75   : 	m_fFlyOffHeight = rkLoader.LoadFloat_e( "fly_off_height", 0.0f );

  001f5	c7 85 c8 fe ff
	ff 8b 80 92 b5	 mov	 DWORD PTR __k$528773[ebp], -1248690037 ; b592808bH
  001ff	c7 85 cc fe ff
	ff 82 8a 8d b5	 mov	 DWORD PTR __k$528773[ebp+4], -1249015166 ; b58d8a82H
  00209	c7 85 d0 fe ff
	ff 85 89 82 8d	 mov	 DWORD PTR __k$528773[ebp+8], -1920824955 ; 8d828985H
  00213	66 c7 85 d4 fe
	ff ff 85 98	 mov	 WORD PTR __k$528773[ebp+12], 39045 ; 00009885H
  0021c	8d 85 c8 fe ff
	ff		 lea	 eax, DWORD PTR __k$528773[ebp]
  00222	c6 85 d6 fe ff
	ff 00		 mov	 BYTE PTR __k$528773[ebp+14], 0
  00229	59		 pop	 ecx
$LL530@LoadProper:
  0022a	31 18		 xor	 DWORD PTR [eax], ebx
  0022c	83 c0 04	 add	 eax, 4
  0022f	49		 dec	 ecx
  00230	75 f8		 jne	 SHORT $LL530@LoadProper
  00232	6a 0c		 push	 12			; 0000000cH
  00234	5f		 pop	 edi
$LL527@LoadProper:
  00235	8b c7		 mov	 eax, edi
  00237	25 03 00 00 80	 and	 eax, -2147483645	; 80000003H
  0023c	79 05		 jns	 SHORT $LN3195@LoadProper
  0023e	48		 dec	 eax
  0023f	83 c8 fc	 or	 eax, -4			; fffffffcH
  00242	40		 inc	 eax
$LN3195@LoadProper:
  00243	b1 ed		 mov	 cl, -19			; ffffffedH
  00245	2a c8		 sub	 cl, al
  00247	30 8c 3d c8 fe
	ff ff		 xor	 BYTE PTR __k$528773[ebp+edi], cl
  0024e	47		 inc	 edi
  0024f	83 ff 0e	 cmp	 edi, 14			; 0000000eH
  00252	7c e1		 jl	 SHORT $LL527@LoadProper
  00254	0f 57 c0	 xorps	 xmm0, xmm0
  00257	51		 push	 ecx
  00258	8b 8d 64 fc ff
	ff		 mov	 ecx, DWORD PTR _rkLoader$GSCopy$[ebp]
  0025e	8d 85 c8 fe ff
	ff		 lea	 eax, DWORD PTR __k$528773[ebp]
  00264	f3 0f 11 04 24	 movss	 DWORD PTR [esp], xmm0
  00269	50		 push	 eax
  0026a	ff 15 00 00 00
	00		 call	 DWORD PTR __imp_?LoadFloat@ioINILoader@@QAEMPBDM@Z
  00270	d9 9e 7c 09 00
	00		 fstp	 DWORD PTR [esi+2428]
  00276	6a 03		 push	 3

; 76   : 	m_fFlyGravityAmt = rkLoader.LoadFloat_e( "fly_gravity_amt", 0.0f );

  00278	c7 85 20 ff ff
	ff 8b 80 92 b5	 mov	 DWORD PTR __k$528898[ebp], -1248690037 ; b592808bH
  00282	c7 85 24 ff ff
	ff 8a 9e 8a 9c	 mov	 DWORD PTR __k$528898[ebp+4], -1668637046 ; 9c8a9e8aH
  0028c	c7 85 28 ff ff
	ff 84 98 92 b5	 mov	 DWORD PTR __k$528898[ebp+8], -1248683900 ; b5929884H
  00296	8d 85 20 ff ff
	ff		 lea	 eax, DWORD PTR __k$528898[ebp]
  0029c	c7 85 2c ff ff
	ff 8c 81 9f 00	 mov	 DWORD PTR __k$528898[ebp+12], 10453388 ; 009f818cH
  002a6	59		 pop	 ecx
$LL636@LoadProper:
  002a7	31 18		 xor	 DWORD PTR [eax], ebx
  002a9	83 c0 04	 add	 eax, 4
  002ac	49		 dec	 ecx
  002ad	75 f8		 jne	 SHORT $LL636@LoadProper
  002af	6a 0c		 push	 12			; 0000000cH
  002b1	5f		 pop	 edi
$LL633@LoadProper:
  002b2	8b c7		 mov	 eax, edi
  002b4	25 03 00 00 80	 and	 eax, -2147483645	; 80000003H
  002b9	79 05		 jns	 SHORT $LN3196@LoadProper
  002bb	48		 dec	 eax
  002bc	83 c8 fc	 or	 eax, -4			; fffffffcH
  002bf	40		 inc	 eax
$LN3196@LoadProper:
  002c0	b1 ed		 mov	 cl, -19			; ffffffedH
  002c2	2a c8		 sub	 cl, al
  002c4	30 8c 3d 20 ff
	ff ff		 xor	 BYTE PTR __k$528898[ebp+edi], cl
  002cb	47		 inc	 edi
  002cc	83 ff 0f	 cmp	 edi, 15			; 0000000fH
  002cf	7c e1		 jl	 SHORT $LL633@LoadProper
  002d1	0f 57 c0	 xorps	 xmm0, xmm0
  002d4	51		 push	 ecx
  002d5	8b 8d 64 fc ff
	ff		 mov	 ecx, DWORD PTR _rkLoader$GSCopy$[ebp]
  002db	8d 85 20 ff ff
	ff		 lea	 eax, DWORD PTR __k$528898[ebp]
  002e1	f3 0f 11 04 24	 movss	 DWORD PTR [esp], xmm0
  002e6	50		 push	 eax
  002e7	ff 15 00 00 00
	00		 call	 DWORD PTR __imp_?LoadFloat@ioINILoader@@QAEMPBDM@Z
  002ed	d9 9e 80 09 00
	00		 fstp	 DWORD PTR [esi+2432]
  002f3	6a 03		 push	 3

; 77   : 	m_dwFlyOffTime = rkLoader.LoadInt_e( "fly_off_time", 0 );

  002f5	c7 85 6c fd ff
	ff 8b 80 92 b5	 mov	 DWORD PTR __k$529023[ebp], -1248690037 ; b592808bH
  002ff	c7 85 70 fd ff
	ff 82 8a 8d b5	 mov	 DWORD PTR __k$529023[ebp+4], -1249015166 ; b58d8a82H
  00309	c7 85 74 fd ff
	ff 99 85 86 8f	 mov	 DWORD PTR __k$529023[ebp+8], -1887009383 ; 8f868599H
  00313	8d 85 6c fd ff
	ff		 lea	 eax, DWORD PTR __k$529023[ebp]
  00319	c6 85 78 fd ff
	ff 00		 mov	 BYTE PTR __k$529023[ebp+12], 0
  00320	59		 pop	 ecx
$LL742@LoadProper:
  00321	31 18		 xor	 DWORD PTR [eax], ebx
  00323	83 c0 04	 add	 eax, 4
  00326	49		 dec	 ecx
  00327	75 f8		 jne	 SHORT $LL742@LoadProper
  00329	51		 push	 ecx
  0032a	8b 8d 64 fc ff
	ff		 mov	 ecx, DWORD PTR _rkLoader$GSCopy$[ebp]
  00330	8d 85 6c fd ff
	ff		 lea	 eax, DWORD PTR __k$529023[ebp]
  00336	50		 push	 eax
  00337	ff 15 00 00 00
	00		 call	 DWORD PTR __imp_?LoadInt@ioINILoader@@QAEHPBDH@Z
  0033d	89 86 88 09 00
	00		 mov	 DWORD PTR [esi+2440], eax
  00343	6a 03		 push	 3

; 78   : 
; 79   : 	m_bEnableEndJump = rkLoader.LoadBool_e( "enable_end_jump", false );

  00345	c7 85 9c fe ff
	ff 88 82 8a 88	 mov	 DWORD PTR __k$529148[ebp], -2004188536 ; 888a8288H
  0034f	c7 85 a0 fe ff
	ff 81 89 b4 8f	 mov	 DWORD PTR __k$529148[ebp+4], -1883993727 ; 8fb48981H
  00359	c7 85 a4 fe ff
	ff 83 88 b4 80	 mov	 DWORD PTR __k$529148[ebp+8], -2135652221 ; 80b48883H
  00363	8d 85 9c fe ff
	ff		 lea	 eax, DWORD PTR __k$529148[ebp]
  00369	c7 85 a8 fe ff
	ff 98 81 9b 00	 mov	 DWORD PTR __k$529148[ebp+12], 10191256 ; 009b8198H
  00373	59		 pop	 ecx
$LL848@LoadProper:
  00374	31 18		 xor	 DWORD PTR [eax], ebx
  00376	83 c0 04	 add	 eax, 4
  00379	49		 dec	 ecx
  0037a	75 f8		 jne	 SHORT $LL848@LoadProper
  0037c	6a 0c		 push	 12			; 0000000cH
  0037e	5f		 pop	 edi
$LL845@LoadProper:
  0037f	8b c7		 mov	 eax, edi
  00381	25 03 00 00 80	 and	 eax, -2147483645	; 80000003H
  00386	79 05		 jns	 SHORT $LN3197@LoadProper
  00388	48		 dec	 eax
  00389	83 c8 fc	 or	 eax, -4			; fffffffcH
  0038c	40		 inc	 eax
$LN3197@LoadProper:
  0038d	b1 ed		 mov	 cl, -19			; ffffffedH
  0038f	2a c8		 sub	 cl, al
  00391	30 8c 3d 9c fe
	ff ff		 xor	 BYTE PTR __k$529148[ebp+edi], cl
  00398	47		 inc	 edi
  00399	83 ff 0f	 cmp	 edi, 15			; 0000000fH
  0039c	7c e1		 jl	 SHORT $LL845@LoadProper
  0039e	8b 8d 64 fc ff
	ff		 mov	 ecx, DWORD PTR _rkLoader$GSCopy$[ebp]
  003a4	8b 3d 00 00 00
	00		 mov	 edi, DWORD PTR __imp_?LoadBool@ioINILoader@@QAE_NPBD_N@Z
  003aa	6a 00		 push	 0
  003ac	8d 85 9c fe ff
	ff		 lea	 eax, DWORD PTR __k$529148[ebp]
  003b2	50		 push	 eax
  003b3	ff d7		 call	 edi
  003b5	88 86 a8 0a 00
	00		 mov	 BYTE PTR [esi+2728], al
  003bb	6a 03		 push	 3

; 80   : 	m_fEndJumpPower = rkLoader.LoadFloat_e( "end_jump_power", 0.1f );

  003bd	c7 85 4c ff ff
	ff 88 82 8f b5	 mov	 DWORD PTR __k$529273[ebp], -1248886136 ; b58f8288H
  003c7	c7 85 50 ff ff
	ff 87 99 86 9a	 mov	 DWORD PTR __k$529273[ebp+4], -1702454905 ; 9a869987H
  003d1	c7 85 54 ff ff
	ff b2 9c 84 9d	 mov	 DWORD PTR __k$529273[ebp+8], -1652253518 ; 9d849cb2H
  003db	66 c7 85 58 ff
	ff ff 88 9e	 mov	 WORD PTR __k$529273[ebp+12], 40584 ; 00009e88H
  003e4	8d 85 4c ff ff
	ff		 lea	 eax, DWORD PTR __k$529273[ebp]
  003ea	c6 85 5a ff ff
	ff 00		 mov	 BYTE PTR __k$529273[ebp+14], 0
  003f1	59		 pop	 ecx
$LL954@LoadProper:
  003f2	31 18		 xor	 DWORD PTR [eax], ebx
  003f4	83 c0 04	 add	 eax, 4
  003f7	49		 dec	 ecx
  003f8	75 f8		 jne	 SHORT $LL954@LoadProper
  003fa	6a 0c		 push	 12			; 0000000cH
  003fc	58		 pop	 eax
$LL951@LoadProper:
  003fd	8b c8		 mov	 ecx, eax
  003ff	81 e1 03 00 00
	80		 and	 ecx, -2147483645	; 80000003H
  00405	79 05		 jns	 SHORT $LN3198@LoadProper
  00407	49		 dec	 ecx
  00408	83 c9 fc	 or	 ecx, -4			; fffffffcH
  0040b	41		 inc	 ecx
$LN3198@LoadProper:
  0040c	b2 ed		 mov	 dl, -19			; ffffffedH
  0040e	2a d1		 sub	 dl, cl
  00410	30 94 05 4c ff
	ff ff		 xor	 BYTE PTR __k$529273[ebp+eax], dl
  00417	40		 inc	 eax
  00418	83 f8 0e	 cmp	 eax, 14			; 0000000eH
  0041b	7c e0		 jl	 SHORT $LL951@LoadProper
  0041d	f3 0f 10 05 00
	00 00 00	 movss	 xmm0, DWORD PTR __real@3dcccccd
  00425	51		 push	 ecx
  00426	8b 8d 64 fc ff
	ff		 mov	 ecx, DWORD PTR _rkLoader$GSCopy$[ebp]
  0042c	8d 85 4c ff ff
	ff		 lea	 eax, DWORD PTR __k$529273[ebp]
  00432	f3 0f 11 04 24	 movss	 DWORD PTR [esp], xmm0
  00437	50		 push	 eax
  00438	ff 15 00 00 00
	00		 call	 DWORD PTR __imp_?LoadFloat@ioINILoader@@QAEMPBDM@Z
  0043e	d9 9e ac 0a 00
	00		 fstp	 DWORD PTR [esi+2732]
  00444	6a 03		 push	 3

; 81   : 	m_bMustEndJump = rkLoader.LoadBool_e( "end_jump_must", false );

  00446	c7 85 f4 fe ff
	ff 88 82 8f b5	 mov	 DWORD PTR __k$529398[ebp], -1248886136 ; b58f8288H
  00450	c7 85 f8 fe ff
	ff 87 99 86 9a	 mov	 DWORD PTR __k$529398[ebp+4], -1702454905 ; 9a869987H
  0045a	c7 85 fc fe ff
	ff b2 81 9e 99	 mov	 DWORD PTR __k$529398[ebp+8], -1717665358 ; 999e81b2H
  00464	8d 85 f4 fe ff
	ff		 lea	 eax, DWORD PTR __k$529398[ebp]
  0046a	66 c7 85 00 ff
	ff ff 99 00	 mov	 WORD PTR __k$529398[ebp+12], 153 ; 00000099H
  00473	59		 pop	 ecx
$LL1060@LoadProper:
  00474	31 18		 xor	 DWORD PTR [eax], ebx
  00476	83 c0 04	 add	 eax, 4
  00479	49		 dec	 ecx
  0047a	75 f8		 jne	 SHORT $LL1060@LoadProper
  0047c	80 b5 00 ff ff
	ff ed		 xor	 BYTE PTR __k$529398[ebp+12], -19 ; ffffffedH
  00483	51		 push	 ecx
  00484	8b 8d 64 fc ff
	ff		 mov	 ecx, DWORD PTR _rkLoader$GSCopy$[ebp]
  0048a	8d 85 f4 fe ff
	ff		 lea	 eax, DWORD PTR __k$529398[ebp]
  00490	50		 push	 eax
  00491	ff d7		 call	 edi
  00493	88 86 b0 0a 00
	00		 mov	 BYTE PTR [esi+2736], al
  00499	6a 03		 push	 3

; 82   : 	m_bInitCurSpeed = rkLoader.LoadBool_e( "end_speed_init", false );

  0049b	c7 85 70 fe ff
	ff 88 82 8f b5	 mov	 DWORD PTR __k$529586[ebp], -1248886136 ; b58f8288H
  004a5	c7 85 74 fe ff
	ff 9e 9c 8e 8f	 mov	 DWORD PTR __k$529586[ebp+4], -1886479202 ; 8f8e9c9eH
  004af	c7 85 78 fe ff
	ff 89 b3 82 84	 mov	 DWORD PTR __k$529586[ebp+8], -2071809143 ; 8482b389H
  004b9	66 c7 85 7c fe
	ff ff 84 98	 mov	 WORD PTR __k$529586[ebp+12], 39044 ; 00009884H
  004c2	8d 85 70 fe ff
	ff		 lea	 eax, DWORD PTR __k$529586[ebp]
  004c8	c6 85 7e fe ff
	ff 00		 mov	 BYTE PTR __k$529586[ebp+14], 0
  004cf	59		 pop	 ecx
$LL1166@LoadProper:
  004d0	31 18		 xor	 DWORD PTR [eax], ebx
  004d2	83 c0 04	 add	 eax, 4
  004d5	49		 dec	 ecx
  004d6	75 f8		 jne	 SHORT $LL1166@LoadProper
  004d8	6a 0c		 push	 12			; 0000000cH
  004da	58		 pop	 eax
$LL1163@LoadProper:
  004db	8b c8		 mov	 ecx, eax
  004dd	81 e1 03 00 00
	80		 and	 ecx, -2147483645	; 80000003H
  004e3	79 05		 jns	 SHORT $LN3199@LoadProper
  004e5	49		 dec	 ecx
  004e6	83 c9 fc	 or	 ecx, -4			; fffffffcH
  004e9	41		 inc	 ecx
$LN3199@LoadProper:
  004ea	b2 ed		 mov	 dl, -19			; ffffffedH
  004ec	2a d1		 sub	 dl, cl
  004ee	30 94 05 70 fe
	ff ff		 xor	 BYTE PTR __k$529586[ebp+eax], dl
  004f5	40		 inc	 eax
  004f6	83 f8 0e	 cmp	 eax, 14			; 0000000eH
  004f9	7c e0		 jl	 SHORT $LL1163@LoadProper
  004fb	8b 8d 64 fc ff
	ff		 mov	 ecx, DWORD PTR _rkLoader$GSCopy$[ebp]
  00501	6a 00		 push	 0
  00503	8d 85 70 fe ff
	ff		 lea	 eax, DWORD PTR __k$529586[ebp]
  00509	50		 push	 eax
  0050a	ff d7		 call	 edi
  0050c	88 86 b1 0a 00
	00		 mov	 BYTE PTR [esi+2737], al
  00512	6a 04		 push	 4

; 83   : 	m_bIsCanStopByKeyInput = rkLoader.LoadBool_e( "end_by_key_input", false );

  00514	c7 85 e0 fd ff
	ff 88 82 8f b5	 mov	 DWORD PTR __k$529648[ebp], -1248886136 ; b58f8288H
  0051e	c7 85 e4 fd ff
	ff 8f 95 b4 81	 mov	 DWORD PTR __k$529648[ebp+4], -2118871665 ; 81b4958fH
  00528	c7 85 e8 fd ff
	ff 88 95 b4 83	 mov	 DWORD PTR __k$529648[ebp+8], -2085317240 ; 83b49588H
  00532	c7 85 ec fd ff
	ff 83 9c 9e 9e	 mov	 DWORD PTR __k$529648[ebp+12], -1633772413 ; 9e9e9c83H
  0053c	8d 85 e0 fd ff
	ff		 lea	 eax, DWORD PTR __k$529648[ebp]
  00542	c6 85 f0 fd ff
	ff 00		 mov	 BYTE PTR __k$529648[ebp+16], 0
  00549	59		 pop	 ecx
$LL1272@LoadProper:
  0054a	31 18		 xor	 DWORD PTR [eax], ebx
  0054c	83 c0 04	 add	 eax, 4
  0054f	49		 dec	 ecx
  00550	75 f8		 jne	 SHORT $LL1272@LoadProper
  00552	51		 push	 ecx
  00553	8b 8d 64 fc ff
	ff		 mov	 ecx, DWORD PTR _rkLoader$GSCopy$[ebp]
  00559	8d 85 e0 fd ff
	ff		 lea	 eax, DWORD PTR __k$529648[ebp]
  0055f	50		 push	 eax
  00560	ff d7		 call	 edi
  00562	88 86 b2 0a 00
	00		 mov	 BYTE PTR [esi+2738], al
  00568	6a 04		 push	 4

; 84   : 
; 85   : 	char szBuf[MAX_PATH];
; 86   : 	
; 87   : 	rkLoader.LoadString_e( "fly_delay_animation", "", szBuf, MAX_PATH );

  0056a	c7 85 84 fe ff
	ff 8b 80 92 b5	 mov	 DWORD PTR __k$529773[ebp], -1248690037 ; b592808bH
  00574	c7 85 88 fe ff
	ff 89 89 87 8b	 mov	 DWORD PTR __k$529773[ebp+4], -1954051703 ; 8b878989H
  0057e	c7 85 8c fe ff
	ff 94 b3 8a 84	 mov	 DWORD PTR __k$529773[ebp+8], -2071284844 ; 848ab394H
  00588	c7 85 90 fe ff
	ff 84 81 8a 9e	 mov	 DWORD PTR __k$529773[ebp+12], -1635090044 ; 9e8a8184H
  00592	8d 85 84 fe ff
	ff		 lea	 eax, DWORD PTR __k$529773[ebp]
  00598	c7 85 94 fe ff
	ff 84 83 85 00	 mov	 DWORD PTR __k$529773[ebp+16], 8749956 ; 00858384H
  005a2	59		 pop	 ecx
$LL1378@LoadProper:
  005a3	31 18		 xor	 DWORD PTR [eax], ebx
  005a5	83 c0 04	 add	 eax, 4
  005a8	49		 dec	 ecx
  005a9	75 f8		 jne	 SHORT $LL1378@LoadProper
  005ab	6a 10		 push	 16			; 00000010H
  005ad	58		 pop	 eax
$LL1375@LoadProper:
  005ae	8b c8		 mov	 ecx, eax
  005b0	81 e1 03 00 00
	80		 and	 ecx, -2147483645	; 80000003H
  005b6	79 05		 jns	 SHORT $LN3200@LoadProper
  005b8	49		 dec	 ecx
  005b9	83 c9 fc	 or	 ecx, -4			; fffffffcH
  005bc	41		 inc	 ecx
$LN3200@LoadProper:
  005bd	b2 ed		 mov	 dl, -19			; ffffffedH
  005bf	2a d1		 sub	 dl, cl
  005c1	30 94 05 84 fe
	ff ff		 xor	 BYTE PTR __k$529773[ebp+eax], dl
  005c8	40		 inc	 eax
  005c9	83 f8 13	 cmp	 eax, 19			; 00000013H
  005cc	7c e0		 jl	 SHORT $LL1375@LoadProper
  005ce	8b 8d 64 fc ff
	ff		 mov	 ecx, DWORD PTR _rkLoader$GSCopy$[ebp]
  005d4	8b 3d 00 00 00
	00		 mov	 edi, DWORD PTR __imp_?LoadStringA@ioINILoader@@QAEXPBD0PADH@Z
  005da	68 04 01 00 00	 push	 260			; 00000104H
  005df	8d 85 68 fc ff
	ff		 lea	 eax, DWORD PTR _szBuf$[ebp]
  005e5	50		 push	 eax
  005e6	68 00 00 00 00	 push	 OFFSET ??_C@_00CNPNBAHC@?$AA@
  005eb	8d 85 84 fe ff
	ff		 lea	 eax, DWORD PTR __k$529773[ebp]
  005f1	50		 push	 eax
  005f2	ff d7		 call	 edi

; 88   : 	m_FlyDelayAnimation = szBuf;

  005f4	8b 1d 00 00 00
	00		 mov	 ebx, DWORD PTR __imp_??4ioHashString@@QAEAAV0@PBD@Z
  005fa	8d 85 68 fc ff
	ff		 lea	 eax, DWORD PTR _szBuf$[ebp]
  00600	50		 push	 eax
  00601	8d 8e 90 09 00
	00		 lea	 ecx, DWORD PTR [esi+2448]
  00607	ff d3		 call	 ebx
  00609	6a 04		 push	 4

; 89   : 	rkLoader.LoadString_e( "fly_delay_effect", "", szBuf, MAX_PATH );

  0060b	c7 85 10 fe ff
	ff 8b 80 92 b5	 mov	 DWORD PTR __k$529898[ebp], -1248690037 ; b592808bH
  00615	c7 85 14 fe ff
	ff 89 89 87 8b	 mov	 DWORD PTR __k$529898[ebp+4], -1954051703 ; 8b878989H
  0061f	c7 85 18 fe ff
	ff 94 b3 8e 8c	 mov	 DWORD PTR __k$529898[ebp+8], -1936804972 ; 8c8eb394H
  00629	c7 85 1c fe ff
	ff 8b 89 88 9e	 mov	 DWORD PTR __k$529898[ebp+12], -1635219061 ; 9e88898bH
  00633	8d 85 10 fe ff
	ff		 lea	 eax, DWORD PTR __k$529898[ebp]
  00639	c6 85 20 fe ff
	ff 00		 mov	 BYTE PTR __k$529898[ebp+16], 0
  00640	59		 pop	 ecx
$LL1484@LoadProper:
  00641	81 30 ed ec eb
	ea		 xor	 DWORD PTR [eax], -353637139 ; eaebecedH
  00647	83 c0 04	 add	 eax, 4
  0064a	49		 dec	 ecx
  0064b	75 f4		 jne	 SHORT $LL1484@LoadProper
  0064d	8b 8d 64 fc ff
	ff		 mov	 ecx, DWORD PTR _rkLoader$GSCopy$[ebp]
  00653	68 04 01 00 00	 push	 260			; 00000104H
  00658	8d 85 68 fc ff
	ff		 lea	 eax, DWORD PTR _szBuf$[ebp]
  0065e	50		 push	 eax
  0065f	68 00 00 00 00	 push	 OFFSET ??_C@_00CNPNBAHC@?$AA@
  00664	8d 85 10 fe ff
	ff		 lea	 eax, DWORD PTR __k$529898[ebp]
  0066a	50		 push	 eax
  0066b	ff d7		 call	 edi

; 90   : 	m_FlyDelayEffect = szBuf;

  0066d	8d 85 68 fc ff
	ff		 lea	 eax, DWORD PTR _szBuf$[ebp]
  00673	50		 push	 eax
  00674	8d 8e a0 09 00
	00		 lea	 ecx, DWORD PTR [esi+2464]
  0067a	ff d3		 call	 ebx
  0067c	6a 04		 push	 4

; 91   : 
; 92   : 	rkLoader.LoadString_e( "fly_move_animation", "", szBuf, MAX_PATH );

  0067e	c7 85 60 ff ff
	ff 8b 80 92 b5	 mov	 DWORD PTR __k$530023[ebp], -1248690037 ; b592808bH
  00688	c7 85 64 ff ff
	ff 80 83 9d 8f	 mov	 DWORD PTR __k$530023[ebp+4], -1885502592 ; 8f9d8380H
  00692	c7 85 68 ff ff
	ff b2 8d 85 83	 mov	 DWORD PTR __k$530023[ebp+8], -2088399438 ; 83858db2H
  0069c	c7 85 6c ff ff
	ff 80 8d 9f 83	 mov	 DWORD PTR __k$530023[ebp+12], -2086695552 ; 839f8d80H
  006a6	66 c7 85 70 ff
	ff ff 82 82	 mov	 WORD PTR __k$530023[ebp+16], 33410 ; 00008282H
  006af	8d 85 60 ff ff
	ff		 lea	 eax, DWORD PTR __k$530023[ebp]
  006b5	c6 85 72 ff ff
	ff 00		 mov	 BYTE PTR __k$530023[ebp+18], 0
  006bc	59		 pop	 ecx
$LL1590@LoadProper:
  006bd	81 30 ed ec eb
	ea		 xor	 DWORD PTR [eax], -353637139 ; eaebecedH
  006c3	83 c0 04	 add	 eax, 4
  006c6	49		 dec	 ecx
  006c7	75 f4		 jne	 SHORT $LL1590@LoadProper
  006c9	6a 10		 push	 16			; 00000010H
  006cb	58		 pop	 eax
$LL1587@LoadProper:
  006cc	8b c8		 mov	 ecx, eax
  006ce	81 e1 03 00 00
	80		 and	 ecx, -2147483645	; 80000003H
  006d4	79 05		 jns	 SHORT $LN3201@LoadProper
  006d6	49		 dec	 ecx
  006d7	83 c9 fc	 or	 ecx, -4			; fffffffcH
  006da	41		 inc	 ecx
$LN3201@LoadProper:
  006db	b2 ed		 mov	 dl, -19			; ffffffedH
  006dd	2a d1		 sub	 dl, cl
  006df	30 94 05 60 ff
	ff ff		 xor	 BYTE PTR __k$530023[ebp+eax], dl
  006e6	40		 inc	 eax
  006e7	83 f8 12	 cmp	 eax, 18			; 00000012H
  006ea	7c e0		 jl	 SHORT $LL1587@LoadProper
  006ec	8b 8d 64 fc ff
	ff		 mov	 ecx, DWORD PTR _rkLoader$GSCopy$[ebp]
  006f2	68 04 01 00 00	 push	 260			; 00000104H
  006f7	8d 85 68 fc ff
	ff		 lea	 eax, DWORD PTR _szBuf$[ebp]
  006fd	50		 push	 eax
  006fe	68 00 00 00 00	 push	 OFFSET ??_C@_00CNPNBAHC@?$AA@
  00703	8d 85 60 ff ff
	ff		 lea	 eax, DWORD PTR __k$530023[ebp]
  00709	50		 push	 eax
  0070a	ff d7		 call	 edi

; 93   : 	m_FlyMoveAnimation = szBuf;

  0070c	8d 85 68 fc ff
	ff		 lea	 eax, DWORD PTR _szBuf$[ebp]
  00712	50		 push	 eax
  00713	8d 8e b0 09 00
	00		 lea	 ecx, DWORD PTR [esi+2480]
  00719	ff d3		 call	 ebx
  0071b	6a 03		 push	 3

; 94   : 	rkLoader.LoadString_e( "fly_move_effect", "", szBuf, MAX_PATH );

  0071d	c7 45 e8 8b 80
	92 b5		 mov	 DWORD PTR __k$530148[ebp], -1248690037 ; b592808bH
  00724	c7 45 ec 80 83
	9d 8f		 mov	 DWORD PTR __k$530148[ebp+4], -1885502592 ; 8f9d8380H
  0072b	c7 45 f0 b2 89
	8d 8c		 mov	 DWORD PTR __k$530148[ebp+8], -1936881230 ; 8c8d89b2H
  00732	8d 45 e8	 lea	 eax, DWORD PTR __k$530148[ebp]
  00735	c7 45 f4 88 8f
	9f 00		 mov	 DWORD PTR __k$530148[ebp+12], 10456968 ; 009f8f88H
  0073c	59		 pop	 ecx
$LL1696@LoadProper:
  0073d	81 30 ed ec eb
	ea		 xor	 DWORD PTR [eax], -353637139 ; eaebecedH
  00743	83 c0 04	 add	 eax, 4
  00746	49		 dec	 ecx
  00747	75 f4		 jne	 SHORT $LL1696@LoadProper
  00749	6a 0c		 push	 12			; 0000000cH
  0074b	58		 pop	 eax
$LL1693@LoadProper:
  0074c	8b c8		 mov	 ecx, eax
  0074e	81 e1 03 00 00
	80		 and	 ecx, -2147483645	; 80000003H
  00754	79 05		 jns	 SHORT $LN3202@LoadProper
  00756	49		 dec	 ecx
  00757	83 c9 fc	 or	 ecx, -4			; fffffffcH
  0075a	41		 inc	 ecx
$LN3202@LoadProper:
  0075b	b2 ed		 mov	 dl, -19			; ffffffedH
  0075d	2a d1		 sub	 dl, cl
  0075f	30 54 05 e8	 xor	 BYTE PTR __k$530148[ebp+eax], dl
  00763	40		 inc	 eax
  00764	83 f8 0f	 cmp	 eax, 15			; 0000000fH
  00767	7c e3		 jl	 SHORT $LL1693@LoadProper
  00769	8b 8d 64 fc ff
	ff		 mov	 ecx, DWORD PTR _rkLoader$GSCopy$[ebp]
  0076f	68 04 01 00 00	 push	 260			; 00000104H
  00774	8d 85 68 fc ff
	ff		 lea	 eax, DWORD PTR _szBuf$[ebp]
  0077a	50		 push	 eax
  0077b	68 00 00 00 00	 push	 OFFSET ??_C@_00CNPNBAHC@?$AA@
  00780	8d 45 e8	 lea	 eax, DWORD PTR __k$530148[ebp]
  00783	50		 push	 eax
  00784	ff d7		 call	 edi

; 95   : 	m_FlyMoveEffect = szBuf;

  00786	8d 85 68 fc ff
	ff		 lea	 eax, DWORD PTR _szBuf$[ebp]
  0078c	50		 push	 eax
  0078d	8d 8e c0 09 00
	00		 lea	 ecx, DWORD PTR [esi+2496]
  00793	ff d3		 call	 ebx
  00795	6a 04		 push	 4

; 96   : 
; 97   : 	rkLoader.LoadString_e( "fly_boost_animation", "", szBuf, MAX_PATH );

  00797	c7 85 58 fe ff
	ff 8b 80 92 b5	 mov	 DWORD PTR __k$530273[ebp], -1248690037 ; b592808bH
  007a1	c7 85 5c fe ff
	ff 8f 83 84 99	 mov	 DWORD PTR __k$530273[ebp+4], -1719368817 ; 9984838fH
  007ab	c7 85 60 fe ff
	ff 99 b3 8a 84	 mov	 DWORD PTR __k$530273[ebp+8], -2071284839 ; 848ab399H
  007b5	c7 85 64 fe ff
	ff 84 81 8a 9e	 mov	 DWORD PTR __k$530273[ebp+12], -1635090044 ; 9e8a8184H
  007bf	8d 85 58 fe ff
	ff		 lea	 eax, DWORD PTR __k$530273[ebp]
  007c5	c7 85 68 fe ff
	ff 84 83 85 00	 mov	 DWORD PTR __k$530273[ebp+16], 8749956 ; 00858384H
  007cf	59		 pop	 ecx
$LL1802@LoadProper:
  007d0	81 30 ed ec eb
	ea		 xor	 DWORD PTR [eax], -353637139 ; eaebecedH
  007d6	83 c0 04	 add	 eax, 4
  007d9	49		 dec	 ecx
  007da	75 f4		 jne	 SHORT $LL1802@LoadProper
  007dc	6a 10		 push	 16			; 00000010H
  007de	58		 pop	 eax
$LL1799@LoadProper:
  007df	8b c8		 mov	 ecx, eax
  007e1	81 e1 03 00 00
	80		 and	 ecx, -2147483645	; 80000003H
  007e7	79 05		 jns	 SHORT $LN3203@LoadProper
  007e9	49		 dec	 ecx
  007ea	83 c9 fc	 or	 ecx, -4			; fffffffcH
  007ed	41		 inc	 ecx
$LN3203@LoadProper:
  007ee	b2 ed		 mov	 dl, -19			; ffffffedH
  007f0	2a d1		 sub	 dl, cl
  007f2	30 94 05 58 fe
	ff ff		 xor	 BYTE PTR __k$530273[ebp+eax], dl
  007f9	40		 inc	 eax
  007fa	83 f8 13	 cmp	 eax, 19			; 00000013H
  007fd	7c e0		 jl	 SHORT $LL1799@LoadProper
  007ff	8b 8d 64 fc ff
	ff		 mov	 ecx, DWORD PTR _rkLoader$GSCopy$[ebp]
  00805	68 04 01 00 00	 push	 260			; 00000104H
  0080a	8d 85 68 fc ff
	ff		 lea	 eax, DWORD PTR _szBuf$[ebp]
  00810	50		 push	 eax
  00811	68 00 00 00 00	 push	 OFFSET ??_C@_00CNPNBAHC@?$AA@
  00816	8d 85 58 fe ff
	ff		 lea	 eax, DWORD PTR __k$530273[ebp]
  0081c	50		 push	 eax
  0081d	ff d7		 call	 edi

; 98   : 	m_FlyBoostAnimation = szBuf;

  0081f	8d 85 68 fc ff
	ff		 lea	 eax, DWORD PTR _szBuf$[ebp]
  00825	50		 push	 eax
  00826	8d 8e d0 09 00
	00		 lea	 ecx, DWORD PTR [esi+2512]
  0082c	ff d3		 call	 ebx
  0082e	6a 04		 push	 4

; 99   : 	rkLoader.LoadString_e( "fly_boost_effect", "", szBuf, MAX_PATH );

  00830	c7 85 b0 fd ff
	ff 8b 80 92 b5	 mov	 DWORD PTR __k$530398[ebp], -1248690037 ; b592808bH
  0083a	c7 85 b4 fd ff
	ff 8f 83 84 99	 mov	 DWORD PTR __k$530398[ebp+4], -1719368817 ; 9984838fH
  00844	c7 85 b8 fd ff
	ff 99 b3 8e 8c	 mov	 DWORD PTR __k$530398[ebp+8], -1936804967 ; 8c8eb399H
  0084e	c7 85 bc fd ff
	ff 8b 89 88 9e	 mov	 DWORD PTR __k$530398[ebp+12], -1635219061 ; 9e88898bH
  00858	8d 85 b0 fd ff
	ff		 lea	 eax, DWORD PTR __k$530398[ebp]
  0085e	c6 85 c0 fd ff
	ff 00		 mov	 BYTE PTR __k$530398[ebp+16], 0
  00865	59		 pop	 ecx
$LL1908@LoadProper:
  00866	81 30 ed ec eb
	ea		 xor	 DWORD PTR [eax], -353637139 ; eaebecedH
  0086c	83 c0 04	 add	 eax, 4
  0086f	49		 dec	 ecx
  00870	75 f4		 jne	 SHORT $LL1908@LoadProper
  00872	8b 8d 64 fc ff
	ff		 mov	 ecx, DWORD PTR _rkLoader$GSCopy$[ebp]
  00878	68 04 01 00 00	 push	 260			; 00000104H
  0087d	8d 85 68 fc ff
	ff		 lea	 eax, DWORD PTR _szBuf$[ebp]
  00883	50		 push	 eax
  00884	68 00 00 00 00	 push	 OFFSET ??_C@_00CNPNBAHC@?$AA@
  00889	8d 85 b0 fd ff
	ff		 lea	 eax, DWORD PTR __k$530398[ebp]
  0088f	50		 push	 eax
  00890	ff d7		 call	 edi

; 100  : 	m_FlyBoostEffect = szBuf;

  00892	8d 85 68 fc ff
	ff		 lea	 eax, DWORD PTR _szBuf$[ebp]
  00898	50		 push	 eax
  00899	8d 8e e0 09 00
	00		 lea	 ecx, DWORD PTR [esi+2528]
  0089f	ff d3		 call	 ebx
  008a1	6a 04		 push	 4

; 101  : 
; 102  : 	rkLoader.LoadString_e( "fly_extra_effect", "", szBuf, MAX_PATH );

  008a3	c7 85 80 fd ff
	ff 8b 80 92 b5	 mov	 DWORD PTR __k$530536[ebp], -1248690037 ; b592808bH
  008ad	c7 85 84 fd ff
	ff 88 94 9f 98	 mov	 DWORD PTR __k$530536[ebp+4], -1734372216 ; 989f9488H
  008b7	c7 85 88 fd ff
	ff 8c b3 8e 8c	 mov	 DWORD PTR __k$530536[ebp+8], -1936804980 ; 8c8eb38cH
  008c1	c7 85 8c fd ff
	ff 8b 89 88 9e	 mov	 DWORD PTR __k$530536[ebp+12], -1635219061 ; 9e88898bH
  008cb	8d 85 80 fd ff
	ff		 lea	 eax, DWORD PTR __k$530536[ebp]
  008d1	c6 85 90 fd ff
	ff 00		 mov	 BYTE PTR __k$530536[ebp+16], 0
  008d8	59		 pop	 ecx
$LL2014@LoadProper:
  008d9	81 30 ed ec eb
	ea		 xor	 DWORD PTR [eax], -353637139 ; eaebecedH
  008df	83 c0 04	 add	 eax, 4
  008e2	49		 dec	 ecx
  008e3	75 f4		 jne	 SHORT $LL2014@LoadProper
  008e5	8b 8d 64 fc ff
	ff		 mov	 ecx, DWORD PTR _rkLoader$GSCopy$[ebp]
  008eb	68 04 01 00 00	 push	 260			; 00000104H
  008f0	8d 85 68 fc ff
	ff		 lea	 eax, DWORD PTR _szBuf$[ebp]
  008f6	50		 push	 eax
  008f7	68 00 00 00 00	 push	 OFFSET ??_C@_00CNPNBAHC@?$AA@
  008fc	8d 85 80 fd ff
	ff		 lea	 eax, DWORD PTR __k$530536[ebp]
  00902	50		 push	 eax
  00903	ff d7		 call	 edi

; 103  : 	m_FlyExtraEffect = szBuf;

  00905	8d 85 68 fc ff
	ff		 lea	 eax, DWORD PTR _szBuf$[ebp]
  0090b	50		 push	 eax
  0090c	8d 8e f0 09 00
	00		 lea	 ecx, DWORD PTR [esi+2544]
  00912	ff d3		 call	 ebx
  00914	6a 04		 push	 4

; 104  : 
; 105  : 	m_dwFlyBoostDuration = rkLoader.LoadInt_e( "fly_boost_duration", 0 );

  00916	c7 85 34 ff ff
	ff 8b 80 92 b5	 mov	 DWORD PTR __k$530661[ebp], -1248690037 ; b592808bH
  00920	c7 85 38 ff ff
	ff 8f 83 84 99	 mov	 DWORD PTR __k$530661[ebp+4], -1719368817 ; 9984838fH
  0092a	c7 85 3c ff ff
	ff 99 b3 8f 9f	 mov	 DWORD PTR __k$530661[ebp+8], -1617972327 ; 9f8fb399H
  00934	c7 85 40 ff ff
	ff 9f 8d 9f 83	 mov	 DWORD PTR __k$530661[ebp+12], -2086695521 ; 839f8d9fH
  0093e	66 c7 85 44 ff
	ff ff 82 82	 mov	 WORD PTR __k$530661[ebp+16], 33410 ; 00008282H
  00947	8d 85 34 ff ff
	ff		 lea	 eax, DWORD PTR __k$530661[ebp]
  0094d	c6 85 46 ff ff
	ff 00		 mov	 BYTE PTR __k$530661[ebp+18], 0
  00954	59		 pop	 ecx
$LL2120@LoadProper:
  00955	81 30 ed ec eb
	ea		 xor	 DWORD PTR [eax], -353637139 ; eaebecedH
  0095b	83 c0 04	 add	 eax, 4
  0095e	49		 dec	 ecx
  0095f	75 f4		 jne	 SHORT $LL2120@LoadProper
  00961	6a 10		 push	 16			; 00000010H
  00963	58		 pop	 eax
$LL2117@LoadProper:
  00964	8b c8		 mov	 ecx, eax
  00966	81 e1 03 00 00
	80		 and	 ecx, -2147483645	; 80000003H
  0096c	79 05		 jns	 SHORT $LN3204@LoadProper
  0096e	49		 dec	 ecx
  0096f	83 c9 fc	 or	 ecx, -4			; fffffffcH
  00972	41		 inc	 ecx
$LN3204@LoadProper:
  00973	b2 ed		 mov	 dl, -19			; ffffffedH
  00975	2a d1		 sub	 dl, cl
  00977	30 94 05 34 ff
	ff ff		 xor	 BYTE PTR __k$530661[ebp+eax], dl
  0097e	40		 inc	 eax
  0097f	83 f8 12	 cmp	 eax, 18			; 00000012H
  00982	7c e0		 jl	 SHORT $LL2117@LoadProper
  00984	8b 8d 64 fc ff
	ff		 mov	 ecx, DWORD PTR _rkLoader$GSCopy$[ebp]
  0098a	6a 00		 push	 0
  0098c	8d 85 34 ff ff
	ff		 lea	 eax, DWORD PTR __k$530661[ebp]
  00992	50		 push	 eax
  00993	ff 15 00 00 00
	00		 call	 DWORD PTR __imp_?LoadInt@ioINILoader@@QAEHPBDH@Z
  00999	89 86 04 0a 00
	00		 mov	 DWORD PTR [esi+2564], eax
  0099f	6a 03		 push	 3

; 106  : 
; 107  : 	m_FlyMoveType = (FlyMoveType)rkLoader.LoadInt_e( "fly_move_type", FMT_NORMAL );

  009a1	c7 45 a4 8b 80
	92 b5		 mov	 DWORD PTR __k$530862[ebp], -1248690037 ; b592808bH
  009a8	c7 45 a8 80 83
	9d 8f		 mov	 DWORD PTR __k$530862[ebp+4], -1885502592 ; 8f9d8380H
  009af	c7 45 ac b2 98
	92 9a		 mov	 DWORD PTR __k$530862[ebp+8], -1701668686 ; 9a9298b2H
  009b6	8d 45 a4	 lea	 eax, DWORD PTR __k$530862[ebp]
  009b9	66 c7 45 b0 88
	00		 mov	 WORD PTR __k$530862[ebp+12], 136 ; 00000088H
  009bf	59		 pop	 ecx
$LL2226@LoadProper:
  009c0	81 30 ed ec eb
	ea		 xor	 DWORD PTR [eax], -353637139 ; eaebecedH
  009c6	83 c0 04	 add	 eax, 4
  009c9	49		 dec	 ecx
  009ca	75 f4		 jne	 SHORT $LL2226@LoadProper
  009cc	80 75 b0 ed	 xor	 BYTE PTR __k$530862[ebp+12], -19 ; ffffffedH
  009d0	51		 push	 ecx
  009d1	8b 8d 64 fc ff
	ff		 mov	 ecx, DWORD PTR _rkLoader$GSCopy$[ebp]
  009d7	8d 45 a4	 lea	 eax, DWORD PTR __k$530862[ebp]
  009da	50		 push	 eax
  009db	ff 15 00 00 00
	00		 call	 DWORD PTR __imp_?LoadInt@ioINILoader@@QAEHPBDH@Z
  009e1	89 86 0c 0a 00
	00		 mov	 DWORD PTR [esi+2572], eax
  009e7	6a 04		 push	 4

; 108  : 
; 109  : 	m_dwFlyRotateTime = rkLoader.LoadInt_e( "fly_rotate_speed", 0 );

  009e9	c7 85 f8 fd ff
	ff 8b 80 92 b5	 mov	 DWORD PTR __k$530898[ebp], -1248690037 ; b592808bH
  009f3	c7 85 fc fd ff
	ff 9f 83 9f 8b	 mov	 DWORD PTR __k$530898[ebp+4], -1952480353 ; 8b9f839fH
  009fd	c7 85 00 fe ff
	ff 99 89 b4 99	 mov	 DWORD PTR __k$530898[ebp+8], -1716221543 ; 99b48999H
  00a07	c7 85 04 fe ff
	ff 9d 89 8e 8e	 mov	 DWORD PTR __k$530898[ebp+12], -1903261283 ; 8e8e899dH
  00a11	8d 85 f8 fd ff
	ff		 lea	 eax, DWORD PTR __k$530898[ebp]
  00a17	c6 85 08 fe ff
	ff 00		 mov	 BYTE PTR __k$530898[ebp+16], 0
  00a1e	59		 pop	 ecx
$LL2332@LoadProper:
  00a1f	81 30 ed ec eb
	ea		 xor	 DWORD PTR [eax], -353637139 ; eaebecedH
  00a25	83 c0 04	 add	 eax, 4
  00a28	49		 dec	 ecx
  00a29	75 f4		 jne	 SHORT $LL2332@LoadProper
  00a2b	51		 push	 ecx
  00a2c	8b 8d 64 fc ff
	ff		 mov	 ecx, DWORD PTR _rkLoader$GSCopy$[ebp]
  00a32	8d 85 f8 fd ff
	ff		 lea	 eax, DWORD PTR __k$530898[ebp]
  00a38	50		 push	 eax
  00a39	ff 15 00 00 00
	00		 call	 DWORD PTR __imp_?LoadInt@ioINILoader@@QAEHPBDH@Z
  00a3f	89 86 84 09 00
	00		 mov	 DWORD PTR [esi+2436], eax
  00a45	6a 04		 push	 4

; 110  : 
; 111  : 	m_bUseNoSkillState = rkLoader.LoadBool_e( "use_no_skill_state", false );

  00a47	c7 85 08 ff ff
	ff 98 9f 8e b5	 mov	 DWORD PTR __k$531023[ebp], -1248944232 ; b58e9f98H
  00a51	c7 85 0c ff ff
	ff 83 83 b4 99	 mov	 DWORD PTR __k$531023[ebp+4], -1716223101 ; 99b48383H
  00a5b	c7 85 10 ff ff
	ff 86 85 87 86	 mov	 DWORD PTR __k$531023[ebp+8], -2037938810 ; 86878586H
  00a65	c7 85 14 ff ff
	ff b2 9f 9f 8b	 mov	 DWORD PTR __k$531023[ebp+12], -1952473166 ; 8b9f9fb2H
  00a6f	66 c7 85 18 ff
	ff ff 99 89	 mov	 WORD PTR __k$531023[ebp+16], 35225 ; 00008999H
  00a78	8d 85 08 ff ff
	ff		 lea	 eax, DWORD PTR __k$531023[ebp]
  00a7e	c6 85 1a ff ff
	ff 00		 mov	 BYTE PTR __k$531023[ebp+18], 0
  00a85	59		 pop	 ecx
$LL2438@LoadProper:
  00a86	81 30 ed ec eb
	ea		 xor	 DWORD PTR [eax], -353637139 ; eaebecedH
  00a8c	83 c0 04	 add	 eax, 4
  00a8f	49		 dec	 ecx
  00a90	75 f4		 jne	 SHORT $LL2438@LoadProper
  00a92	6a 10		 push	 16			; 00000010H
  00a94	58		 pop	 eax
$LL2435@LoadProper:
  00a95	8b c8		 mov	 ecx, eax
  00a97	81 e1 03 00 00
	80		 and	 ecx, -2147483645	; 80000003H
  00a9d	79 05		 jns	 SHORT $LN3205@LoadProper
  00a9f	49		 dec	 ecx
  00aa0	83 c9 fc	 or	 ecx, -4			; fffffffcH
  00aa3	41		 inc	 ecx
$LN3205@LoadProper:
  00aa4	b2 ed		 mov	 dl, -19			; ffffffedH
  00aa6	2a d1		 sub	 dl, cl
  00aa8	30 94 05 08 ff
	ff ff		 xor	 BYTE PTR __k$531023[ebp+eax], dl
  00aaf	40		 inc	 eax
  00ab0	83 f8 12	 cmp	 eax, 18			; 00000012H
  00ab3	7c e0		 jl	 SHORT $LL2435@LoadProper
  00ab5	8b 8d 64 fc ff
	ff		 mov	 ecx, DWORD PTR _rkLoader$GSCopy$[ebp]
  00abb	6a 00		 push	 0
  00abd	8d 85 08 ff ff
	ff		 lea	 eax, DWORD PTR __k$531023[ebp]
  00ac3	50		 push	 eax
  00ac4	ff 15 00 00 00
	00		 call	 DWORD PTR __imp_?LoadBool@ioINILoader@@QAE_NPBD_N@Z
  00aca	0f b6 c0	 movzx	 eax, al
  00acd	50		 push	 eax
  00ace	8d 8e 18 0a 00
	00		 lea	 ecx, DWORD PTR [esi+2584]
  00ad4	e8 00 00 00 00	 call	 ??4?$CEncrypt@_N@@QAE_N_N@Z ; CEncrypt<bool>::operator=
  00ad9	6a 04		 push	 4

; 112  : 
; 113  : 	m_bEscapeCatchState = rkLoader.LoadBool_e( "escape_catch_state", false );

  00adb	c7 85 dc fe ff
	ff 88 9f 88 8b	 mov	 DWORD PTR __k$531148[ebp], -1953980536 ; 8b889f88H
  00ae5	c7 85 e0 fe ff
	ff 9d 89 b4 89	 mov	 DWORD PTR __k$531148[ebp+4], -1984656995 ; 89b4899dH
  00aef	c7 85 e4 fe ff
	ff 8c 98 88 82	 mov	 DWORD PTR __k$531148[ebp+8], -2104977268 ; 8288988cH
  00af9	c7 85 e8 fe ff
	ff b2 9f 9f 8b	 mov	 DWORD PTR __k$531148[ebp+12], -1952473166 ; 8b9f9fb2H
  00b03	66 c7 85 ec fe
	ff ff 99 89	 mov	 WORD PTR __k$531148[ebp+16], 35225 ; 00008999H
  00b0c	8d 85 dc fe ff
	ff		 lea	 eax, DWORD PTR __k$531148[ebp]
  00b12	c6 85 ee fe ff
	ff 00		 mov	 BYTE PTR __k$531148[ebp+18], 0
  00b19	59		 pop	 ecx
$LL2544@LoadProper:
  00b1a	81 30 ed ec eb
	ea		 xor	 DWORD PTR [eax], -353637139 ; eaebecedH
  00b20	83 c0 04	 add	 eax, 4
  00b23	49		 dec	 ecx
  00b24	75 f4		 jne	 SHORT $LL2544@LoadProper
  00b26	6a 10		 push	 16			; 00000010H
  00b28	58		 pop	 eax
$LL2541@LoadProper:
  00b29	8b c8		 mov	 ecx, eax
  00b2b	81 e1 03 00 00
	80		 and	 ecx, -2147483645	; 80000003H
  00b31	79 05		 jns	 SHORT $LN3206@LoadProper
  00b33	49		 dec	 ecx
  00b34	83 c9 fc	 or	 ecx, -4			; fffffffcH
  00b37	41		 inc	 ecx
$LN3206@LoadProper:
  00b38	b2 ed		 mov	 dl, -19			; ffffffedH
  00b3a	2a d1		 sub	 dl, cl
  00b3c	30 94 05 dc fe
	ff ff		 xor	 BYTE PTR __k$531148[ebp+eax], dl
  00b43	40		 inc	 eax
  00b44	83 f8 12	 cmp	 eax, 18			; 00000012H
  00b47	7c e0		 jl	 SHORT $LL2541@LoadProper
  00b49	8b 8d 64 fc ff
	ff		 mov	 ecx, DWORD PTR _rkLoader$GSCopy$[ebp]
  00b4f	6a 00		 push	 0
  00b51	8d 85 dc fe ff
	ff		 lea	 eax, DWORD PTR __k$531148[ebp]
  00b57	50		 push	 eax
  00b58	ff 15 00 00 00
	00		 call	 DWORD PTR __imp_?LoadBool@ioINILoader@@QAE_NPBD_N@Z
  00b5e	0f b6 c0	 movzx	 eax, al
  00b61	50		 push	 eax
  00b62	8d 8e 48 0a 00
	00		 lea	 ecx, DWORD PTR [esi+2632]
  00b68	e8 00 00 00 00	 call	 ??4?$CEncrypt@_N@@QAE_N_N@Z ; CEncrypt<bool>::operator=
  00b6d	6a 03		 push	 3

; 114  : 
; 115  : 	//////////////////////////////////////////////////////////////////////////
; 116  : 	m_bUseFireAttack = rkLoader.LoadBool_e( "use_fire_attack", false );

  00b6f	c7 45 b8 98 9f
	8e b5		 mov	 DWORD PTR __k$531273[ebp], -1248944232 ; b58e9f98H
  00b76	c7 45 bc 8b 85
	99 8f		 mov	 DWORD PTR __k$531273[ebp+4], -1885764213 ; 8f99858bH
  00b7d	c7 45 c0 b2 8d
	9f 9e		 mov	 DWORD PTR __k$531273[ebp+8], -1633710670 ; 9e9f8db2H
  00b84	8d 45 b8	 lea	 eax, DWORD PTR __k$531273[ebp]
  00b87	c7 45 c4 8c 8f
	80 00		 mov	 DWORD PTR __k$531273[ebp+12], 8425356 ; 00808f8cH
  00b8e	59		 pop	 ecx
$LL2650@LoadProper:
  00b8f	81 30 ed ec eb
	ea		 xor	 DWORD PTR [eax], -353637139 ; eaebecedH
  00b95	83 c0 04	 add	 eax, 4
  00b98	49		 dec	 ecx
  00b99	75 f4		 jne	 SHORT $LL2650@LoadProper
  00b9b	6a 0c		 push	 12			; 0000000cH
  00b9d	58		 pop	 eax
$LL2647@LoadProper:
  00b9e	8b c8		 mov	 ecx, eax
  00ba0	81 e1 03 00 00
	80		 and	 ecx, -2147483645	; 80000003H
  00ba6	79 05		 jns	 SHORT $LN3207@LoadProper
  00ba8	49		 dec	 ecx
  00ba9	83 c9 fc	 or	 ecx, -4			; fffffffcH
  00bac	41		 inc	 ecx
$LN3207@LoadProper:
  00bad	b2 ed		 mov	 dl, -19			; ffffffedH
  00baf	2a d1		 sub	 dl, cl
  00bb1	30 54 05 b8	 xor	 BYTE PTR __k$531273[ebp+eax], dl
  00bb5	40		 inc	 eax
  00bb6	83 f8 0f	 cmp	 eax, 15			; 0000000fH
  00bb9	7c e3		 jl	 SHORT $LL2647@LoadProper
  00bbb	8b 8d 64 fc ff
	ff		 mov	 ecx, DWORD PTR _rkLoader$GSCopy$[ebp]
  00bc1	6a 00		 push	 0
  00bc3	8d 45 b8	 lea	 eax, DWORD PTR __k$531273[ebp]
  00bc6	50		 push	 eax
  00bc7	ff 15 00 00 00
	00		 call	 DWORD PTR __imp_?LoadBool@ioINILoader@@QAE_NPBD_N@Z
  00bcd	88 86 78 0a 00
	00		 mov	 BYTE PTR [esi+2680], al
  00bd3	6a 04		 push	 4

; 117  : 	
; 118  : 	rkLoader.LoadString_e( "area_weapon_name", "", szBuf, MAX_PATH );

  00bd5	c7 85 c8 fd ff
	ff 8c 9e 8e 8b	 mov	 DWORD PTR __k$531398[ebp], -1953587572 ; 8b8e9e8cH
  00bdf	c7 85 cc fd ff
	ff b2 9b 8e 8b	 mov	 DWORD PTR __k$531398[ebp+4], -1953588302 ; 8b8e9bb2H
  00be9	c7 85 d0 fd ff
	ff 9d 83 85 b5	 mov	 DWORD PTR __k$531398[ebp+8], -1249541219 ; b585839dH
  00bf3	c7 85 d4 fd ff
	ff 83 8d 86 8f	 mov	 DWORD PTR __k$531398[ebp+12], -1887007357 ; 8f868d83H
  00bfd	8d 85 c8 fd ff
	ff		 lea	 eax, DWORD PTR __k$531398[ebp]
  00c03	c6 85 d8 fd ff
	ff 00		 mov	 BYTE PTR __k$531398[ebp+16], 0
  00c0a	59		 pop	 ecx
$LL2756@LoadProper:
  00c0b	81 30 ed ec eb
	ea		 xor	 DWORD PTR [eax], -353637139 ; eaebecedH
  00c11	83 c0 04	 add	 eax, 4
  00c14	49		 dec	 ecx
  00c15	75 f4		 jne	 SHORT $LL2756@LoadProper
  00c17	8b 8d 64 fc ff
	ff		 mov	 ecx, DWORD PTR _rkLoader$GSCopy$[ebp]
  00c1d	68 04 01 00 00	 push	 260			; 00000104H
  00c22	8d 85 68 fc ff
	ff		 lea	 eax, DWORD PTR _szBuf$[ebp]
  00c28	50		 push	 eax
  00c29	68 00 00 00 00	 push	 OFFSET ??_C@_00CNPNBAHC@?$AA@
  00c2e	8d 85 c8 fd ff
	ff		 lea	 eax, DWORD PTR __k$531398[ebp]
  00c34	50		 push	 eax
  00c35	ff d7		 call	 edi

; 119  : 	m_stAreaWeaponName = szBuf;

  00c37	8d 85 68 fc ff
	ff		 lea	 eax, DWORD PTR _szBuf$[ebp]
  00c3d	50		 push	 eax
  00c3e	8d 8e 7c 0a 00
	00		 lea	 ecx, DWORD PTR [esi+2684]
  00c44	ff d3		 call	 ebx
  00c46	6a 04		 push	 4

; 120  : 	m_fAreaWeaponOffset = rkLoader.LoadFloat_e( "area_weapon_offset", 0.f );

  00c48	c7 85 b0 fe ff
	ff 8c 9e 8e 8b	 mov	 DWORD PTR __k$531536[ebp], -1953587572 ; 8b8e9e8cH
  00c52	c7 85 b4 fe ff
	ff b2 9b 8e 8b	 mov	 DWORD PTR __k$531536[ebp+4], -1953588302 ; 8b8e9bb2H
  00c5c	c7 85 b8 fe ff
	ff 9d 83 85 b5	 mov	 DWORD PTR __k$531536[ebp+8], -1249541219 ; b585839dH
  00c66	c7 85 bc fe ff
	ff 82 8a 8d 99	 mov	 DWORD PTR __k$531536[ebp+12], -1718777214 ; 998d8a82H
  00c70	66 c7 85 c0 fe
	ff ff 88 98	 mov	 WORD PTR __k$531536[ebp+16], 39048 ; 00009888H
  00c79	8d 85 b0 fe ff
	ff		 lea	 eax, DWORD PTR __k$531536[ebp]
  00c7f	c6 85 c2 fe ff
	ff 00		 mov	 BYTE PTR __k$531536[ebp+18], 0
  00c86	59		 pop	 ecx
$LL2862@LoadProper:
  00c87	81 30 ed ec eb
	ea		 xor	 DWORD PTR [eax], -353637139 ; eaebecedH
  00c8d	83 c0 04	 add	 eax, 4
  00c90	49		 dec	 ecx
  00c91	75 f4		 jne	 SHORT $LL2862@LoadProper
  00c93	6a 10		 push	 16			; 00000010H
  00c95	58		 pop	 eax
$LL2859@LoadProper:
  00c96	8b c8		 mov	 ecx, eax
  00c98	81 e1 03 00 00
	80		 and	 ecx, -2147483645	; 80000003H
  00c9e	79 05		 jns	 SHORT $LN3208@LoadProper
  00ca0	49		 dec	 ecx
  00ca1	83 c9 fc	 or	 ecx, -4			; fffffffcH
  00ca4	41		 inc	 ecx
$LN3208@LoadProper:
  00ca5	b2 ed		 mov	 dl, -19			; ffffffedH
  00ca7	2a d1		 sub	 dl, cl
  00ca9	30 94 05 b0 fe
	ff ff		 xor	 BYTE PTR __k$531536[ebp+eax], dl
  00cb0	40		 inc	 eax
  00cb1	83 f8 12	 cmp	 eax, 18			; 00000012H
  00cb4	7c e0		 jl	 SHORT $LL2859@LoadProper
  00cb6	0f 57 c0	 xorps	 xmm0, xmm0
  00cb9	51		 push	 ecx
  00cba	8b 8d 64 fc ff
	ff		 mov	 ecx, DWORD PTR _rkLoader$GSCopy$[ebp]
  00cc0	8d 85 b0 fe ff
	ff		 lea	 eax, DWORD PTR __k$531536[ebp]
  00cc6	f3 0f 11 04 24	 movss	 DWORD PTR [esp], xmm0
  00ccb	50		 push	 eax
  00ccc	ff 15 00 00 00
	00		 call	 DWORD PTR __imp_?LoadFloat@ioINILoader@@QAEMPBDM@Z
  00cd2	d9 9e 8c 0a 00
	00		 fstp	 DWORD PTR [esi+2700]
  00cd8	6a 04		 push	 4

; 121  : 
; 122  : 	rkLoader.LoadString_e( "attack_motion_ani", "", szBuf, MAX_PATH );

  00cda	c7 45 8c 8c 98
	9f 8b		 mov	 DWORD PTR __k$531661[ebp], -1952474996 ; 8b9f988cH
  00ce1	c7 45 90 8e 87
	b4 87		 mov	 DWORD PTR __k$531661[ebp+4], -2018211954 ; 87b4878eH
  00ce8	c7 45 94 82 98
	82 85		 mov	 DWORD PTR __k$531661[ebp+8], -2055038846 ; 85829882H
  00cef	c7 45 98 83 b3
	8a 84		 mov	 DWORD PTR __k$531661[ebp+12], -2071284861 ; 848ab383H
  00cf6	8d 45 8c	 lea	 eax, DWORD PTR __k$531661[ebp]
  00cf9	66 c7 45 9c 84
	00		 mov	 WORD PTR __k$531661[ebp+16], 132 ; 00000084H
  00cff	59		 pop	 ecx
$LL2968@LoadProper:
  00d00	81 30 ed ec eb
	ea		 xor	 DWORD PTR [eax], -353637139 ; eaebecedH
  00d06	83 c0 04	 add	 eax, 4
  00d09	49		 dec	 ecx
  00d0a	75 f4		 jne	 SHORT $LL2968@LoadProper
  00d0c	8b 8d 64 fc ff
	ff		 mov	 ecx, DWORD PTR _rkLoader$GSCopy$[ebp]
  00d12	80 75 9c ed	 xor	 BYTE PTR __k$531661[ebp+16], -19 ; ffffffedH
  00d16	68 04 01 00 00	 push	 260			; 00000104H
  00d1b	8d 85 68 fc ff
	ff		 lea	 eax, DWORD PTR _szBuf$[ebp]
  00d21	50		 push	 eax
  00d22	68 00 00 00 00	 push	 OFFSET ??_C@_00CNPNBAHC@?$AA@
  00d27	8d 45 8c	 lea	 eax, DWORD PTR __k$531661[ebp]
  00d2a	50		 push	 eax
  00d2b	ff d7		 call	 edi

; 123  : 	m_stAttackAni = szBuf;

  00d2d	8d 85 68 fc ff
	ff		 lea	 eax, DWORD PTR _szBuf$[ebp]
  00d33	50		 push	 eax
  00d34	8d 8e 90 0a 00
	00		 lea	 ecx, DWORD PTR [esi+2704]
  00d3a	ff d3		 call	 ebx
  00d3c	6a 05		 push	 5

; 124  : 	m_fAttackAniRate = rkLoader.LoadFloat_e( "attack_motion_ani_rate", 1.0f );

  00d3e	c7 45 cc 8c 98
	9f 8b		 mov	 DWORD PTR __k$531786[ebp], -1952474996 ; 8b9f988cH
  00d45	c7 45 d0 8e 87
	b4 87		 mov	 DWORD PTR __k$531786[ebp+4], -2018211954 ; 87b4878eH
  00d4c	c7 45 d4 82 98
	82 85		 mov	 DWORD PTR __k$531786[ebp+8], -2055038846 ; 85829882H
  00d53	c7 45 d8 83 b3
	8a 84		 mov	 DWORD PTR __k$531786[ebp+12], -2071284861 ; 848ab383H
  00d5a	c7 45 dc 84 b3
	99 8b		 mov	 DWORD PTR __k$531786[ebp+16], -1952861308 ; 8b99b384H
  00d61	66 c7 45 e0 99
	89		 mov	 WORD PTR __k$531786[ebp+20], 35225 ; 00008999H
  00d67	8d 45 cc	 lea	 eax, DWORD PTR __k$531786[ebp]
  00d6a	c6 45 e2 00	 mov	 BYTE PTR __k$531786[ebp+22], 0
  00d6e	59		 pop	 ecx
$LL3074@LoadProper:
  00d6f	81 30 ed ec eb
	ea		 xor	 DWORD PTR [eax], -353637139 ; eaebecedH
  00d75	83 c0 04	 add	 eax, 4
  00d78	49		 dec	 ecx
  00d79	75 f4		 jne	 SHORT $LL3074@LoadProper
  00d7b	6a 14		 push	 20			; 00000014H
  00d7d	58		 pop	 eax
$LL3071@LoadProper:
  00d7e	8b c8		 mov	 ecx, eax
  00d80	81 e1 03 00 00
	80		 and	 ecx, -2147483645	; 80000003H
  00d86	79 05		 jns	 SHORT $LN3209@LoadProper
  00d88	49		 dec	 ecx
  00d89	83 c9 fc	 or	 ecx, -4			; fffffffcH
  00d8c	41		 inc	 ecx
$LN3209@LoadProper:
  00d8d	b2 ed		 mov	 dl, -19			; ffffffedH
  00d8f	2a d1		 sub	 dl, cl
  00d91	30 54 05 cc	 xor	 BYTE PTR __k$531786[ebp+eax], dl
  00d95	40		 inc	 eax
  00d96	83 f8 16	 cmp	 eax, 22			; 00000016H
  00d99	7c e3		 jl	 SHORT $LL3071@LoadProper
  00d9b	f3 0f 10 05 00
	00 00 00	 movss	 xmm0, DWORD PTR __real@3f800000
  00da3	51		 push	 ecx
  00da4	8b 8d 64 fc ff
	ff		 mov	 ecx, DWORD PTR _rkLoader$GSCopy$[ebp]
  00daa	8d 45 cc	 lea	 eax, DWORD PTR __k$531786[ebp]
  00dad	f3 0f 11 04 24	 movss	 DWORD PTR [esp], xmm0
  00db2	50		 push	 eax
  00db3	ff 15 00 00 00
	00		 call	 DWORD PTR __imp_?LoadFloat@ioINILoader@@QAEMPBDM@Z
  00db9	d9 9e a0 0a 00
	00		 fstp	 DWORD PTR [esi+2720]

; 125  : 	//////////////////////////////////////////////////////////////////////////
; 126  : }

  00dbf	8b 4d fc	 mov	 ecx, DWORD PTR __$ArrayPad$[ebp]
  00dc2	5f		 pop	 edi
  00dc3	5e		 pop	 esi
  00dc4	33 cd		 xor	 ecx, ebp
  00dc6	5b		 pop	 ebx
  00dc7	e8 00 00 00 00	 call	 @__security_check_cookie@4
  00dcc	c9		 leave
  00dcd	c2 04 00	 ret	 4
?LoadProperty@ioFlyBuff@@UAEXAAVioINILoader@@@Z ENDP	; ioFlyBuff::LoadProperty
_TEXT	ENDS
EXTRN	?SetFlyStateValue@ioBaseChar@@QAEXABVioHashString@@MMMMKMKW4FlyMoveType@@@Z:PROC ; ioBaseChar::SetFlyStateValue
EXTRN	?SetEscapeCatchState@ioBaseChar@@QAEXXZ:PROC	; ioBaseChar::SetEscapeCatchState
EXTRN	?StartBuff@ioBuff@@UAEXPAVioBaseChar@@@Z:PROC	; ioBuff::StartBuff
; Function compile flags: /Ogsp
;	COMDAT ?StartBuff@ioFlyBuff@@UAEXPAVioBaseChar@@@Z
_TEXT	SEGMENT
_pOwner$ = 8						; size = 4
_value$532025 = 11					; size = 1
?StartBuff@ioFlyBuff@@UAEXPAVioBaseChar@@@Z PROC	; ioFlyBuff::StartBuff, COMDAT
; _this$ = ecx

; 134  : {

  00000	55		 push	 ebp
  00001	8b ec		 mov	 ebp, esp
  00003	53		 push	 ebx
  00004	56		 push	 esi
  00005	57		 push	 edi

; 135  : 	ioBuff::StartBuff( pOwner );

  00006	8b 7d 08	 mov	 edi, DWORD PTR _pOwner$[ebp]
  00009	57		 push	 edi
  0000a	8b f1		 mov	 esi, ecx
  0000c	e8 00 00 00 00	 call	 ?StartBuff@ioBuff@@UAEXPAVioBaseChar@@@Z ; ioBuff::StartBuff

; 136  : 
; 137  : 	if( m_bEscapeCatchState && pOwner && pOwner->IsCatchMode() )

  00011	8d 45 0b	 lea	 eax, DWORD PTR _value$532025[ebp]
  00014	50		 push	 eax
  00015	8d 8e 48 0a 00
	00		 lea	 ecx, DWORD PTR [esi+2632]
  0001b	e8 00 00 00 00	 call	 ?DecryptValueToPool@?$CEncrypt@_N@@QAEXPA_N@Z ; CEncrypt<bool>::DecryptValueToPool
  00020	33 db		 xor	 ebx, ebx
  00022	38 5d 0b	 cmp	 BYTE PTR _value$532025[ebp], bl
  00025	74 13		 je	 SHORT $LN2@StartBuff
  00027	3b fb		 cmp	 edi, ebx
  00029	74 0f		 je	 SHORT $LN2@StartBuff
  0002b	38 9f 78 23 00
	00		 cmp	 BYTE PTR [edi+9080], bl
  00031	74 07		 je	 SHORT $LN2@StartBuff

; 138  : 	{
; 139  : 		pOwner->SetEscapeCatchState();

  00033	8b cf		 mov	 ecx, edi
  00035	e8 00 00 00 00	 call	 ?SetEscapeCatchState@ioBaseChar@@QAEXXZ ; ioBaseChar::SetEscapeCatchState
$LN2@StartBuff:

; 140  : 	}
; 141  : 
; 142  : 	m_bSetFlyState = false;
; 143  : 	m_dwFlyBoostEndTime = 0;
; 144  : 	m_pOwner->SetFlyStateValue( m_Name,
; 145  : 								m_fFlyStartJumpPower, m_fFlyMoveSpeed,
; 146  : 								m_fFlyFrictionAmt, m_fFlyGravityAmt,
; 147  : 								m_dwFlyRotateTime,
; 148  : 								m_fFlyOffHeight,
; 149  : 								m_dwFlyOffTime,
; 150  : 								m_FlyMoveType );

  0003a	ff b6 0c 0a 00
	00		 push	 DWORD PTR [esi+2572]
  00040	f3 0f 10 86 7c
	09 00 00	 movss	 xmm0, DWORD PTR [esi+2428]
  00048	ff b6 88 09 00
	00		 push	 DWORD PTR [esi+2440]
  0004e	8d 86 34 02 00
	00		 lea	 eax, DWORD PTR [esi+564]
  00054	51		 push	 ecx
  00055	8b 8e 74 02 00
	00		 mov	 ecx, DWORD PTR [esi+628]
  0005b	f3 0f 11 04 24	 movss	 DWORD PTR [esp], xmm0
  00060	ff b6 84 09 00
	00		 push	 DWORD PTR [esi+2436]
  00066	f3 0f 10 86 80
	09 00 00	 movss	 xmm0, DWORD PTR [esi+2432]
  0006e	83 ec 10	 sub	 esp, 16			; 00000010H
  00071	f3 0f 11 44 24
	0c		 movss	 DWORD PTR [esp+12], xmm0
  00077	f3 0f 10 86 78
	09 00 00	 movss	 xmm0, DWORD PTR [esi+2424]
  0007f	f3 0f 11 44 24
	08		 movss	 DWORD PTR [esp+8], xmm0
  00085	f3 0f 10 86 74
	09 00 00	 movss	 xmm0, DWORD PTR [esi+2420]
  0008d	f3 0f 11 44 24
	04		 movss	 DWORD PTR [esp+4], xmm0
  00093	f3 0f 10 86 6c
	09 00 00	 movss	 xmm0, DWORD PTR [esi+2412]
  0009b	f3 0f 11 04 24	 movss	 DWORD PTR [esp], xmm0
  000a0	50		 push	 eax
  000a1	88 9e 08 0a 00
	00		 mov	 BYTE PTR [esi+2568], bl
  000a7	89 9e 00 0a 00
	00		 mov	 DWORD PTR [esi+2560], ebx
  000ad	e8 00 00 00 00	 call	 ?SetFlyStateValue@ioBaseChar@@QAEXABVioHashString@@MMMMKMKW4FlyMoveType@@@Z ; ioBaseChar::SetFlyStateValue

; 151  : 
; 152  : 	if( m_FlyMoveType != FMT_BIRD )

  000b2	83 be 0c 0a 00
	00 01		 cmp	 DWORD PTR [esi+2572], 1
  000b9	74 15		 je	 SHORT $LN1@StartBuff

; 153  : 	{
; 154  : 		m_pOwner->AttachEffect( m_FlyBoostEffect, NULL );

  000bb	8b 8e 74 02 00
	00		 mov	 ecx, DWORD PTR [esi+628]
  000c1	6a 01		 push	 1
  000c3	53		 push	 ebx
  000c4	8d 86 e0 09 00
	00		 lea	 eax, DWORD PTR [esi+2528]
  000ca	50		 push	 eax
  000cb	e8 00 00 00 00	 call	 ?AttachEffect@ioBaseChar@@QAEPAVioEffect@@ABVioHashString@@PAVioEntityEvent@@_N@Z ; ioBaseChar::AttachEffect
$LN1@StartBuff:

; 155  : 	}
; 156  : 
; 157  : 	m_dwPreCheckTime = 0;
; 158  : 	m_fPreMoveSpeed = 0.0f;

  000d0	0f 57 c0	 xorps	 xmm0, xmm0
  000d3	5f		 pop	 edi
  000d4	89 9e 8c 09 00
	00		 mov	 DWORD PTR [esi+2444], ebx
  000da	f3 0f 11 86 10
	0a 00 00	 movss	 DWORD PTR [esi+2576], xmm0
  000e2	5e		 pop	 esi
  000e3	5b		 pop	 ebx

; 159  : }

  000e4	5d		 pop	 ebp
  000e5	c2 04 00	 ret	 4
?StartBuff@ioFlyBuff@@UAEXPAVioBaseChar@@@Z ENDP	; ioFlyBuff::StartBuff
_TEXT	ENDS
EXTRN	?ApplyStartBuff@ioBuff@@UAE_NPAVioBaseChar@@KK@Z:PROC ; ioBuff::ApplyStartBuff
; Function compile flags: /Ogsp
;	COMDAT ?ApplyStartBuff@ioFlyBuff@@UAE_NPAVioBaseChar@@KK@Z
_TEXT	SEGMENT
_pOwner$ = 8						; size = 4
_dwGlobalTime$ = 12					; size = 4
_dwGapTime$ = 16					; size = 4
_value$532035 = 19					; size = 1
?ApplyStartBuff@ioFlyBuff@@UAE_NPAVioBaseChar@@KK@Z PROC ; ioFlyBuff::ApplyStartBuff, COMDAT
; _this$ = ecx

; 162  : {

  00000	55		 push	 ebp
  00001	8b ec		 mov	 ebp, esp
  00003	56		 push	 esi
  00004	57		 push	 edi

; 163  : 	if( !ioBuff::ApplyStartBuff( pOwner, dwGlobalTime, dwGapTime ) )

  00005	ff 75 10	 push	 DWORD PTR _dwGapTime$[ebp]
  00008	8b 7d 08	 mov	 edi, DWORD PTR _pOwner$[ebp]
  0000b	ff 75 0c	 push	 DWORD PTR _dwGlobalTime$[ebp]
  0000e	8b f1		 mov	 esi, ecx
  00010	57		 push	 edi
  00011	e8 00 00 00 00	 call	 ?ApplyStartBuff@ioBuff@@UAE_NPAVioBaseChar@@KK@Z ; ioBuff::ApplyStartBuff
  00016	84 c0		 test	 al, al
  00018	0f 84 d4 00 00
	00		 je	 $LN4@ApplyStart
$LN3@ApplyStart:
  0001e	53		 push	 ebx

; 164  : 		return false;
; 165  : 
; 166  : 	if( m_bEscapeCatchState && pOwner && pOwner->IsCatchMode() )

  0001f	8d 45 13	 lea	 eax, DWORD PTR _value$532035[ebp]
  00022	50		 push	 eax
  00023	8d 8e 48 0a 00
	00		 lea	 ecx, DWORD PTR [esi+2632]
  00029	e8 00 00 00 00	 call	 ?DecryptValueToPool@?$CEncrypt@_N@@QAEXPA_N@Z ; CEncrypt<bool>::DecryptValueToPool
  0002e	33 db		 xor	 ebx, ebx
  00030	38 5d 13	 cmp	 BYTE PTR _value$532035[ebp], bl
  00033	74 13		 je	 SHORT $LN2@ApplyStart
  00035	3b fb		 cmp	 edi, ebx
  00037	74 0f		 je	 SHORT $LN2@ApplyStart
  00039	38 9f 78 23 00
	00		 cmp	 BYTE PTR [edi+9080], bl
  0003f	74 07		 je	 SHORT $LN2@ApplyStart

; 167  : 	{
; 168  : 		pOwner->SetEscapeCatchState();

  00041	8b cf		 mov	 ecx, edi
  00043	e8 00 00 00 00	 call	 ?SetEscapeCatchState@ioBaseChar@@QAEXXZ ; ioBaseChar::SetEscapeCatchState
$LN2@ApplyStart:

; 169  : 	}
; 170  : 
; 171  : 	m_bSetFlyState = false;
; 172  : 	m_dwFlyBoostEndTime = 0;
; 173  : 	m_pOwner->SetFlyStateValue( m_Name,
; 174  : 								m_fFlyStartJumpPower, m_fFlyMoveSpeed,
; 175  : 								m_fFlyFrictionAmt, m_fFlyGravityAmt,
; 176  : 								m_dwFlyRotateTime,
; 177  : 								m_fFlyOffHeight,
; 178  : 								m_dwFlyOffTime,
; 179  : 								m_FlyMoveType );

  00048	ff b6 0c 0a 00
	00		 push	 DWORD PTR [esi+2572]
  0004e	f3 0f 10 86 7c
	09 00 00	 movss	 xmm0, DWORD PTR [esi+2428]
  00056	ff b6 88 09 00
	00		 push	 DWORD PTR [esi+2440]
  0005c	8d 86 34 02 00
	00		 lea	 eax, DWORD PTR [esi+564]
  00062	51		 push	 ecx
  00063	8b 8e 74 02 00
	00		 mov	 ecx, DWORD PTR [esi+628]
  00069	f3 0f 11 04 24	 movss	 DWORD PTR [esp], xmm0
  0006e	ff b6 84 09 00
	00		 push	 DWORD PTR [esi+2436]
  00074	f3 0f 10 86 80
	09 00 00	 movss	 xmm0, DWORD PTR [esi+2432]
  0007c	83 ec 10	 sub	 esp, 16			; 00000010H
  0007f	f3 0f 11 44 24
	0c		 movss	 DWORD PTR [esp+12], xmm0
  00085	f3 0f 10 86 78
	09 00 00	 movss	 xmm0, DWORD PTR [esi+2424]
  0008d	f3 0f 11 44 24
	08		 movss	 DWORD PTR [esp+8], xmm0
  00093	f3 0f 10 86 74
	09 00 00	 movss	 xmm0, DWORD PTR [esi+2420]
  0009b	f3 0f 11 44 24
	04		 movss	 DWORD PTR [esp+4], xmm0
  000a1	f3 0f 10 86 6c
	09 00 00	 movss	 xmm0, DWORD PTR [esi+2412]
  000a9	f3 0f 11 04 24	 movss	 DWORD PTR [esp], xmm0
  000ae	50		 push	 eax
  000af	88 9e 08 0a 00
	00		 mov	 BYTE PTR [esi+2568], bl
  000b5	89 9e 00 0a 00
	00		 mov	 DWORD PTR [esi+2560], ebx
  000bb	e8 00 00 00 00	 call	 ?SetFlyStateValue@ioBaseChar@@QAEXABVioHashString@@MMMMKMKW4FlyMoveType@@@Z ; ioBaseChar::SetFlyStateValue

; 180  : 
; 181  : 	if( m_FlyMoveType != FMT_BIRD )

  000c0	83 be 0c 0a 00
	00 01		 cmp	 DWORD PTR [esi+2572], 1
  000c7	74 15		 je	 SHORT $LN1@ApplyStart

; 182  : 	{
; 183  : 		m_pOwner->AttachEffect( m_FlyBoostEffect, NULL );

  000c9	8b 8e 74 02 00
	00		 mov	 ecx, DWORD PTR [esi+628]
  000cf	6a 01		 push	 1
  000d1	53		 push	 ebx
  000d2	8d 86 e0 09 00
	00		 lea	 eax, DWORD PTR [esi+2528]
  000d8	50		 push	 eax
  000d9	e8 00 00 00 00	 call	 ?AttachEffect@ioBaseChar@@QAEPAVioEffect@@ABVioHashString@@PAVioEntityEvent@@_N@Z ; ioBaseChar::AttachEffect
$LN1@ApplyStart:

; 184  : 	}
; 185  : 	
; 186  : 	m_dwPreCheckTime = 0;
; 187  : 	m_fPreMoveSpeed = 0.0f;

  000de	0f 57 c0	 xorps	 xmm0, xmm0
  000e1	89 9e 8c 09 00
	00		 mov	 DWORD PTR [esi+2444], ebx
  000e7	f3 0f 11 86 10
	0a 00 00	 movss	 DWORD PTR [esi+2576], xmm0

; 188  : 	return true;

  000ef	b0 01		 mov	 al, 1
  000f1	5b		 pop	 ebx
$LN4@ApplyStart:
  000f2	5f		 pop	 edi
  000f3	5e		 pop	 esi

; 189  : }

  000f4	5d		 pop	 ebp
  000f5	c2 0c 00	 ret	 12			; 0000000cH
?ApplyStartBuff@ioFlyBuff@@UAE_NPAVioBaseChar@@KK@Z ENDP ; ioFlyBuff::ApplyStartBuff
_TEXT	ENDS
PUBLIC	__real@00000000
PUBLIC	__$ArrayPad$
EXTRN	?CheckUseBuffSkill@ioBaseChar@@QAEXABVioHashString@@_N@Z:PROC ; ioBaseChar::CheckUseBuffSkill
EXTRN	?GetMaxSpeed@ioBaseChar@@QBEM_N@Z:PROC		; ioBaseChar::GetMaxSpeed
EXTRN	?SetJumpPower@ioBaseChar@@QAEXM@Z:PROC		; ioBaseChar::SetJumpPower
EXTRN	??1SP2Packet@@UAE@XZ:PROC			; SP2Packet::~SP2Packet
EXTRN	?SendToAllPlayingUser@P2PNetwork@@YAXAAVSP2Packet@@PAVioBaseChar@@@Z:PROC ; P2PNetwork::SendToAllPlayingUser
EXTRN	??6SP2Packet@@QAEAAV0@H@Z:PROC			; SP2Packet::operator<<
EXTRN	??6SP2Packet@@QAEAAV0@ABVioHashString@@@Z:PROC	; SP2Packet::operator<<
EXTRN	??0SP2Packet@@QAE@K@Z:PROC			; SP2Packet::SP2Packet
EXTRN	?IsAttackKey@ioBaseChar@@QBE_NXZ:PROC		; ioBaseChar::IsAttackKey
EXTRN	?CheckCallingAreaWeapon@ioBuff@@IAEXXZ:PROC	; ioBuff::CheckCallingAreaWeapon
EXTRN	?CheckCallingProcess@ioBuff@@IAEXXZ:PROC	; ioBuff::CheckCallingProcess
EXTRN	?CheckSwitchType@ioBuff@@IAE_NM@Z:PROC		; ioBuff::CheckSwitchType
EXTRN	?ProcessBuff@ioBuff@@UAEXM@Z:PROC		; ioBuff::ProcessBuff
EXTRN	__chkstk:PROC
;	COMDAT __real@00000000
; File d:\lost saga for developer\youtube\tutorial\source\src\lsclient\iobasechar.h
CONST	SEGMENT
__real@00000000 DD 000000000r			; 0
CONST	ENDS
;	COMDAT xdata$x
xdata$x	SEGMENT
__unwindtable$?ProcessBuff@ioFlyBuff@@UAEXM@Z DD 0ffffffffH
	DD	FLAT:__unwindfunclet$?ProcessBuff@ioFlyBuff@@UAEXM@Z$0
	DD	0ffffffffH
	DD	FLAT:__unwindfunclet$?ProcessBuff@ioFlyBuff@@UAEXM@Z$1
__ehfuncinfo$?ProcessBuff@ioFlyBuff@@UAEXM@Z DD 019930522H
	DD	02H
	DD	FLAT:__unwindtable$?ProcessBuff@ioFlyBuff@@UAEXM@Z
	DD	2 DUP(00H)
	DD	2 DUP(00H)
	DD	00H
	DD	01H
; Function compile flags: /Ogsp
; File d:\lost saga for developer\youtube\tutorial\source\src\lsclient\ioflybuff.cpp
xdata$x	ENDS
;	COMDAT ?ProcessBuff@ioFlyBuff@@UAEXM@Z
_TEXT	SEGMENT
_value$532081 = -32816					; size = 4
_dwCurTime$523991 = -32816				; size = 4
_value$532090 = -32809					; size = 1
_kPacket$523999 = -32808				; size = 32792
_kPacket$523994 = -32808				; size = 32792
__$ArrayPad$ = -16					; size = 4
__$EHRec$ = -12						; size = 12
_fTimePerSec$ = 8					; size = 4
?ProcessBuff@ioFlyBuff@@UAEXM@Z PROC			; ioFlyBuff::ProcessBuff, COMDAT
; _this$ = ecx

; 192  : {

  00000	55		 push	 ebp
  00001	8b ec		 mov	 ebp, esp
  00003	6a ff		 push	 -1
  00005	68 00 00 00 00	 push	 __ehhandler$?ProcessBuff@ioFlyBuff@@UAEXM@Z
  0000a	64 a1 00 00 00
	00		 mov	 eax, DWORD PTR fs:0
  00010	50		 push	 eax
  00011	b8 24 80 00 00	 mov	 eax, 32804		; 00008024H
  00016	e8 00 00 00 00	 call	 __chkstk
  0001b	a1 00 00 00 00	 mov	 eax, DWORD PTR ___security_cookie
  00020	33 c5		 xor	 eax, ebp
  00022	89 45 f0	 mov	 DWORD PTR __$ArrayPad$[ebp], eax
  00025	53		 push	 ebx
  00026	56		 push	 esi
  00027	57		 push	 edi
  00028	50		 push	 eax
  00029	8d 45 f4	 lea	 eax, DWORD PTR __$EHRec$[ebp]
  0002c	64 a3 00 00 00
	00		 mov	 DWORD PTR fs:0, eax
  00032	8b f1		 mov	 esi, ecx

; 193  : 	switch( m_iOperationType )

  00034	8b 86 d0 03 00
	00		 mov	 eax, DWORD PTR [esi+976]
  0003a	33 ff		 xor	 edi, edi
  0003c	2b c7		 sub	 eax, edi
  0003e	74 3c		 je	 SHORT $LN31@ProcessBuf
  00040	48		 dec	 eax
  00041	74 06		 je	 SHORT $LN32@ProcessBuf
  00043	48		 dec	 eax
  00044	74 15		 je	 SHORT $LN34@ProcessBuf
  00046	48		 dec	 eax
  00047	75 38		 jne	 SHORT $LN35@ProcessBuf
$LN32@ProcessBuf:

; 204  : 	case OT_DELAY:
; 205  : 	case OT_ACTIVE:
; 206  : 		ioBuff::ProcessBuff( fTimePerSec );

  00049	f3 0f 10 45 08	 movss	 xmm0, DWORD PTR _fTimePerSec$[ebp]
  0004e	51		 push	 ecx
  0004f	f3 0f 11 04 24	 movss	 DWORD PTR [esp], xmm0
  00054	e8 00 00 00 00	 call	 ?ProcessBuff@ioBuff@@UAEXM@Z ; ioBuff::ProcessBuff

; 207  : 		break;

  00059	eb 26		 jmp	 SHORT $LN35@ProcessBuf
$LN34@ProcessBuf:

; 194  : 	{
; 195  : 	case OT_SWITCH:
; 196  : 		if( !CheckSwitchType( fTimePerSec ) )

  0005b	f3 0f 10 45 08	 movss	 xmm0, DWORD PTR _fTimePerSec$[ebp]
  00060	51		 push	 ecx
  00061	f3 0f 11 04 24	 movss	 DWORD PTR [esp], xmm0
  00066	e8 00 00 00 00	 call	 ?CheckSwitchType@ioBuff@@IAE_NM@Z ; ioBuff::CheckSwitchType

; 197  : 		{
; 198  : 			SetReserveEndBuff();

  0006b	8b ce		 mov	 ecx, esi
  0006d	84 c0		 test	 al, al

; 199  : 			return;

  0006f	0f 84 ff 03 00
	00		 je	 $LN74@ProcessBuf

; 200  : 		}
; 201  : 
; 202  : 		CheckCallingProcess();

  00075	e8 00 00 00 00	 call	 ?CheckCallingProcess@ioBuff@@IAEXXZ ; ioBuff::CheckCallingProcess

; 203  : 		break;

  0007a	eb 05		 jmp	 SHORT $LN35@ProcessBuf
$LN31@ProcessBuf:

; 208  : 	case OT_PASSIVE:
; 209  : 		CheckCallingAreaWeapon();

  0007c	e8 00 00 00 00	 call	 ?CheckCallingAreaWeapon@ioBuff@@IAEXXZ ; ioBuff::CheckCallingAreaWeapon
$LN35@ProcessBuf:

; 210  : 		break;
; 211  : 	}
; 212  : 
; 213  : 
; 214  : 
; 215  : 	if( m_bSetFlyState )

  00081	80 be 08 0a 00
	00 00		 cmp	 BYTE PTR [esi+2568], 0
  00088	0f 84 1a 03 00
	00		 je	 $LN30@ProcessBuf

; 216  : 	{
; 217  : 		DWORD dwCurTime = FRAMEGETTIME();

  0008e	ff 15 00 00 00
	00		 call	 DWORD PTR __imp_?GetSingleton@ioFrameTimer@@SAAAV1@XZ
  00094	8b c8		 mov	 ecx, eax
  00096	ff 15 00 00 00
	00		 call	 DWORD PTR __imp_?GetLoopSec@ioFrameTimer@@QBEKXZ

; 218  : 
; 219  : 		if( m_pOwner->GetState() != CS_FLY )

  0009c	8b 8e 74 02 00
	00		 mov	 ecx, DWORD PTR [esi+628]
  000a2	80 b9 10 03 00
	00 14		 cmp	 BYTE PTR [ecx+784], 20	; 00000014H
  000a9	89 85 d0 7f ff
	ff		 mov	 DWORD PTR _dwCurTime$523991[ebp], eax

; 220  : 		{
; 221  : 			m_pOwner->CheckUseBuffSkill( m_Name, false );
; 222  : 			SetReserveEndBuff();
; 223  : 			return;

  000af	0f 85 b0 03 00
	00		 jne	 $LN75@ProcessBuf

; 224  : 		}
; 225  : 
; 226  : 		if( m_bIsCanStopByKeyInput && m_pOwner->IsNeedProcess() && m_pOwner->IsAttackKey() )

  000b5	80 be b2 0a 00
	00 00		 cmp	 BYTE PTR [esi+2738], 0
  000bc	0f 84 92 00 00
	00		 je	 $LN28@ProcessBuf
  000c2	8b 01		 mov	 eax, DWORD PTR [ecx]
  000c4	ff 90 00 01 00
	00		 call	 DWORD PTR [eax+256]
  000ca	84 c0		 test	 al, al
  000cc	0f 84 82 00 00
	00		 je	 $LN28@ProcessBuf
  000d2	8b 8e 74 02 00
	00		 mov	 ecx, DWORD PTR [esi+628]
  000d8	e8 00 00 00 00	 call	 ?IsAttackKey@ioBaseChar@@QBE_NXZ ; ioBaseChar::IsAttackKey
  000dd	84 c0		 test	 al, al
  000df	74 73		 je	 SHORT $LN28@ProcessBuf

; 227  : 		{
; 228  : 			SP2Packet kPacket( CUPK_APPLY_EXTRA_BUFF_INFO );

  000e1	68 45 42 00 00	 push	 16965			; 00004245H
  000e6	8d 8d d8 7f ff
	ff		 lea	 ecx, DWORD PTR _kPacket$523994[ebp]
  000ec	e8 00 00 00 00	 call	 ??0SP2Packet@@QAE@K@Z	; SP2Packet::SP2Packet

; 229  : 			kPacket << m_pOwner->GetCharName();

  000f1	8b 86 74 02 00
	00		 mov	 eax, DWORD PTR [esi+628]
  000f7	05 d4 02 00 00	 add	 eax, 724		; 000002d4H
  000fc	50		 push	 eax
  000fd	8d 8d d8 7f ff
	ff		 lea	 ecx, DWORD PTR _kPacket$523994[ebp]
  00103	89 7d fc	 mov	 DWORD PTR __$EHRec$[ebp+8], edi
  00106	e8 00 00 00 00	 call	 ??6SP2Packet@@QAEAAV0@ABVioHashString@@@Z ; SP2Packet::operator<<

; 230  : 			kPacket << GetName();

  0010b	8d 86 34 02 00
	00		 lea	 eax, DWORD PTR [esi+564]
  00111	50		 push	 eax
  00112	8d 8d d8 7f ff
	ff		 lea	 ecx, DWORD PTR _kPacket$523994[ebp]
  00118	e8 00 00 00 00	 call	 ??6SP2Packet@@QAEAAV0@ABVioHashString@@@Z ; SP2Packet::operator<<

; 231  : 			kPacket << (int)(BS_DIE);

  0011d	6a 01		 push	 1
  0011f	8d 8d d8 7f ff
	ff		 lea	 ecx, DWORD PTR _kPacket$523994[ebp]
  00125	e8 00 00 00 00	 call	 ??6SP2Packet@@QAEAAV0@H@Z ; SP2Packet::operator<<

; 232  : 			P2PNetwork::SendToAllPlayingUser( kPacket );

  0012a	8d 85 d8 7f ff
	ff		 lea	 eax, DWORD PTR _kPacket$523994[ebp]
  00130	57		 push	 edi
  00131	50		 push	 eax
  00132	e8 00 00 00 00	 call	 ?SendToAllPlayingUser@P2PNetwork@@YAXAAVSP2Packet@@PAVioBaseChar@@@Z ; P2PNetwork::SendToAllPlayingUser
  00137	59		 pop	 ecx
  00138	59		 pop	 ecx

; 233  : 
; 234  : 			SetReserveEndBuff();

  00139	8b ce		 mov	 ecx, esi
  0013b	e8 00 00 00 00	 call	 ?SetReserveEndBuff@ioBuff@@QAEXXZ ; ioBuff::SetReserveEndBuff

; 235  : 			return;

  00140	83 4d fc ff	 or	 DWORD PTR __$EHRec$[ebp+8], -1
  00144	8d 8d d8 7f ff
	ff		 lea	 ecx, DWORD PTR _kPacket$523994[ebp]
  0014a	e8 00 00 00 00	 call	 ??1SP2Packet@@UAE@XZ	; SP2Packet::~SP2Packet
  0014f	e9 25 03 00 00	 jmp	 $LN1@ProcessBuf
$LN28@ProcessBuf:

; 236  : 		}
; 237  : 
; 238  : 		ioEntityGroup *pGrp = m_pOwner->GetGroup();

  00154	8b 8e 74 02 00
	00		 mov	 ecx, DWORD PTR [esi+628]
  0015a	8b 79 04	 mov	 edi, DWORD PTR [ecx+4]

; 239  : 		if( !pGrp )

  0015d	85 ff		 test	 edi, edi
  0015f	0f 84 14 03 00
	00		 je	 $LN1@ProcessBuf

; 240  : 			return;
; 241  : 		//¼­CIAC≫o¶§ Aß°¡
; 242  : 		if( m_bUseFireAttack && m_pOwner->IsNeedProcess() && m_pOwner->IsAttackKey() && m_dwAttackMotionEndTime < dwCurTime )

  00165	33 db		 xor	 ebx, ebx
  00167	43		 inc	 ebx
  00168	80 be 78 0a 00
	00 00		 cmp	 BYTE PTR [esi+2680], 0
  0016f	0f 84 35 01 00
	00		 je	 $LN24@ProcessBuf
  00175	8b 01		 mov	 eax, DWORD PTR [ecx]
  00177	ff 90 00 01 00
	00		 call	 DWORD PTR [eax+256]
  0017d	84 c0		 test	 al, al
  0017f	0f 84 95 00 00
	00		 je	 $LN26@ProcessBuf
  00185	8b 8e 74 02 00
	00		 mov	 ecx, DWORD PTR [esi+628]
  0018b	e8 00 00 00 00	 call	 ?IsAttackKey@ioBaseChar@@QBE_NXZ ; ioBaseChar::IsAttackKey
  00190	84 c0		 test	 al, al
  00192	0f 84 82 00 00
	00		 je	 $LN26@ProcessBuf
  00198	8b 86 a4 0a 00
	00		 mov	 eax, DWORD PTR [esi+2724]
  0019e	3b 85 d0 7f ff
	ff		 cmp	 eax, DWORD PTR _dwCurTime$523991[ebp]
  001a4	73 74		 jae	 SHORT $LN26@ProcessBuf

; 243  : 		{
; 244  : 			AreaWeaponFire();

  001a6	8b ce		 mov	 ecx, esi
  001a8	e8 00 00 00 00	 call	 ?AreaWeaponFire@ioFlyBuff@@IAEXXZ ; ioFlyBuff::AreaWeaponFire

; 245  : 
; 246  : 			SP2Packet kPacket( CUPK_APPLY_EXTRA_BUFF_INFO );

  001ad	68 45 42 00 00	 push	 16965			; 00004245H
  001b2	8d 8d d8 7f ff
	ff		 lea	 ecx, DWORD PTR _kPacket$523999[ebp]
  001b8	e8 00 00 00 00	 call	 ??0SP2Packet@@QAE@K@Z	; SP2Packet::SP2Packet

; 247  : 			kPacket << m_pOwner->GetCharName();

  001bd	8b 86 74 02 00
	00		 mov	 eax, DWORD PTR [esi+628]
  001c3	05 d4 02 00 00	 add	 eax, 724		; 000002d4H
  001c8	50		 push	 eax
  001c9	8d 8d d8 7f ff
	ff		 lea	 ecx, DWORD PTR _kPacket$523999[ebp]
  001cf	89 5d fc	 mov	 DWORD PTR __$EHRec$[ebp+8], ebx
  001d2	e8 00 00 00 00	 call	 ??6SP2Packet@@QAEAAV0@ABVioHashString@@@Z ; SP2Packet::operator<<

; 248  : 			kPacket << GetName();

  001d7	8d 86 34 02 00
	00		 lea	 eax, DWORD PTR [esi+564]
  001dd	50		 push	 eax
  001de	8d 8d d8 7f ff
	ff		 lea	 ecx, DWORD PTR _kPacket$523999[ebp]
  001e4	e8 00 00 00 00	 call	 ??6SP2Packet@@QAEAAV0@ABVioHashString@@@Z ; SP2Packet::operator<<

; 249  : 			kPacket << (int)(BS_ATTACK);

  001e9	6a 02		 push	 2
  001eb	8d 8d d8 7f ff
	ff		 lea	 ecx, DWORD PTR _kPacket$523999[ebp]
  001f1	e8 00 00 00 00	 call	 ??6SP2Packet@@QAEAAV0@H@Z ; SP2Packet::operator<<

; 250  : 			P2PNetwork::SendToAllPlayingUser( kPacket );

  001f6	8d 85 d8 7f ff
	ff		 lea	 eax, DWORD PTR _kPacket$523999[ebp]
  001fc	6a 00		 push	 0
  001fe	50		 push	 eax
  001ff	e8 00 00 00 00	 call	 ?SendToAllPlayingUser@P2PNetwork@@YAXAAVSP2Packet@@PAVioBaseChar@@@Z ; P2PNetwork::SendToAllPlayingUser

; 251  : 		}

  00204	83 4d fc ff	 or	 DWORD PTR __$EHRec$[ebp+8], -1
  00208	59		 pop	 ecx
  00209	59		 pop	 ecx
  0020a	8d 8d d8 7f ff
	ff		 lea	 ecx, DWORD PTR _kPacket$523999[ebp]
  00210	e8 00 00 00 00	 call	 ??1SP2Packet@@UAE@XZ	; SP2Packet::~SP2Packet
  00215	e9 90 00 00 00	 jmp	 $LN24@ProcessBuf
$LN26@ProcessBuf:

; 252  : 		else if( m_bUseFireAttack && m_dwAttackMotionEndTime && m_dwAttackMotionEndTime < dwCurTime )

  0021a	80 be 78 0a 00
	00 00		 cmp	 BYTE PTR [esi+2680], 0
  00221	0f 84 83 00 00
	00		 je	 $LN24@ProcessBuf
  00227	8b 86 a4 0a 00
	00		 mov	 eax, DWORD PTR [esi+2724]
  0022d	85 c0		 test	 eax, eax
  0022f	74 79		 je	 SHORT $LN24@ProcessBuf
  00231	3b 85 d0 7f ff
	ff		 cmp	 eax, DWORD PTR _dwCurTime$523991[ebp]
  00237	73 71		 jae	 SHORT $LN24@ProcessBuf

; 253  : 		{
; 254  : 			pGrp->ClearAllActionAni( 100.0f, true );

  00239	f3 0f 10 05 00
	00 00 00	 movss	 xmm0, DWORD PTR __real@42c80000
  00241	53		 push	 ebx
  00242	51		 push	 ecx
  00243	8b cf		 mov	 ecx, edi
  00245	f3 0f 11 04 24	 movss	 DWORD PTR [esp], xmm0
  0024a	ff 15 00 00 00
	00		 call	 DWORD PTR __imp_?ClearAllActionAni@ioEntityGroup@@QAEXM_N@Z

; 255  : 			pGrp->ClearAllLoopAni( 100.0f, true );

  00250	f3 0f 10 05 00
	00 00 00	 movss	 xmm0, DWORD PTR __real@42c80000
  00258	53		 push	 ebx
  00259	51		 push	 ecx
  0025a	8b cf		 mov	 ecx, edi
  0025c	f3 0f 11 04 24	 movss	 DWORD PTR [esp], xmm0
  00261	ff 15 00 00 00
	00		 call	 DWORD PTR __imp_?ClearAllLoopAni@ioEntityGroup@@QAEXM_N@Z

; 256  : 			pGrp->SetLoopAni( m_FlyMoveAnimation, 100.0f );

  00267	0f 57 c0	 xorps	 xmm0, xmm0
  0026a	83 ec 10	 sub	 esp, 16			; 00000010H
  0026d	f3 0f 11 44 24
	0c		 movss	 DWORD PTR [esp+12], xmm0
  00273	f3 0f 10 05 00
	00 00 00	 movss	 xmm0, DWORD PTR __real@3f800000
  0027b	f3 0f 11 44 24
	08		 movss	 DWORD PTR [esp+8], xmm0
  00281	f3 0f 11 44 24
	04		 movss	 DWORD PTR [esp+4], xmm0
  00287	f3 0f 10 05 00
	00 00 00	 movss	 xmm0, DWORD PTR __real@42c80000
  0028f	8d 86 b0 09 00
	00		 lea	 eax, DWORD PTR [esi+2480]
  00295	f3 0f 11 04 24	 movss	 DWORD PTR [esp], xmm0
  0029a	50		 push	 eax
  0029b	8b cf		 mov	 ecx, edi
  0029d	ff 15 00 00 00
	00		 call	 DWORD PTR __imp_?SetLoopAni@ioEntityGroup@@QAE_NABVioHashString@@MMMM@Z

; 257  : 
; 258  : 			m_dwAttackMotionEndTime = 0;

  002a3	83 a6 a4 0a 00
	00 00		 and	 DWORD PTR [esi+2724], 0
$LN24@ProcessBuf:

; 259  : 		}
; 260  : 
; 261  : 		if( m_dwFlyBoostEndTime != 0 && m_dwFlyBoostEndTime < FRAMEGETTIME() )

  002aa	83 be 00 0a 00
	00 00		 cmp	 DWORD PTR [esi+2560], 0
  002b1	74 4e		 je	 SHORT $LN23@ProcessBuf
  002b3	ff 15 00 00 00
	00		 call	 DWORD PTR __imp_?GetSingleton@ioFrameTimer@@SAAAV1@XZ
  002b9	8b c8		 mov	 ecx, eax
  002bb	ff 15 00 00 00
	00		 call	 DWORD PTR __imp_?GetLoopSec@ioFrameTimer@@QBEKXZ
  002c1	39 86 00 0a 00
	00		 cmp	 DWORD PTR [esi+2560], eax
  002c7	73 38		 jae	 SHORT $LN23@ProcessBuf

; 262  : 		{
; 263  : 			switch( m_FlyMoveType )

  002c9	8b 86 0c 0a 00
	00		 mov	 eax, DWORD PTR [esi+2572]
  002cf	85 c0		 test	 eax, eax
  002d1	0f 84 76 01 00
	00		 je	 $LN3@ProcessBuf
  002d7	48		 dec	 eax
  002d8	83 f8 02	 cmp	 eax, 2
  002db	0f 87 98 01 00
	00		 ja	 $LN1@ProcessBuf

; 264  : 			{
; 265  : 			case FMT_NORMAL:
; 266  : 				SetFlyDelayState();
; 267  : 				break;
; 268  : 			case FMT_BIRD:
; 269  : 			case FMT_DIRECT:
; 270  : 			case FMT_ROTATE:
; 271  : 				{
; 272  : 					if( m_pOwner->GetCurSpeed() > 0.0f )

  002e1	8b 8e 74 02 00
	00		 mov	 ecx, DWORD PTR [esi+628]
  002e7	e8 00 00 00 00	 call	 ?GetCurSpeed@ioBaseChar@@QAEMXZ ; ioBaseChar::GetCurSpeed
  002ec	d9 ee		 fldz
  002ee	d9 c9		 fxch	 ST(1)

; 273  : 					{
; 274  : 						SetFlyMoveState();

  002f0	8b ce		 mov	 ecx, esi
  002f2	df f1		 fcomip	 ST(1)
  002f4	dd d8		 fstp	 ST(0)
  002f6	0f 86 53 01 00
	00		 jbe	 $LN18@ProcessBuf

; 275  : 					}
; 276  : 					else

  002fc	e9 9d 00 00 00	 jmp	 $LN79@ProcessBuf
$LN23@ProcessBuf:

; 277  : 					{
; 278  : 						SetFlyDelayState();
; 279  : 					}
; 280  : 				}
; 281  : 				break;
; 282  : 			}
; 283  : 		}
; 284  : 		else if( m_pOwner->IsSetBoost() )

  00301	8b 8e 74 02 00
	00		 mov	 ecx, DWORD PTR [esi+628]
  00307	80 b9 8e 1c 00
	00 00		 cmp	 BYTE PTR [ecx+7310], 0
  0030e	74 60		 je	 SHORT $LN15@ProcessBuf

; 285  : 		{
; 286  : 			switch( m_FlyMoveType )

  00310	8b 86 0c 0a 00
	00		 mov	 eax, DWORD PTR [esi+2572]
  00316	83 c0 fe	 add	 eax, -2			; fffffffeH
  00319	3b c3		 cmp	 eax, ebx
  0031b	77 34		 ja	 SHORT $LN11@ProcessBuf

; 287  : 			{
; 288  : 			case FMT_DIRECT:
; 289  : 			case FMT_ROTATE:
; 290  : 				m_pOwner->SetCurJumpPowerAmt( 0.0f );

  0031d	0f 57 c0	 xorps	 xmm0, xmm0
  00320	f3 0f 11 81 90
	0e 00 00	 movss	 DWORD PTR [ecx+3728], xmm0

; 291  : 				m_pOwner->SetGravityAmt( 0.0f );

  00328	8b 8e 74 02 00
	00		 mov	 ecx, DWORD PTR [esi+628]
  0032e	8d 85 d0 7f ff
	ff		 lea	 eax, DWORD PTR _value$532081[ebp]
  00334	50		 push	 eax
  00335	81 c1 e8 0b 00
	00		 add	 ecx, 3048		; 00000be8H
  0033b	f3 0f 11 85 d0
	7f ff ff	 movss	 DWORD PTR _value$532081[ebp], xmm0
  00343	e8 00 00 00 00	 call	 ?EncryptValueToPool@?$CEncrypt@M@@AAEXPBD@Z ; CEncrypt<float>::EncryptValueToPool

; 292  : 
; 293  : 				m_pOwner->SetJumpPower( m_fFlyJumpPower );

  00348	51		 push	 ecx
  00349	8b 8e 74 02 00
	00		 mov	 ecx, DWORD PTR [esi+628]

; 294  : 				break;

  0034f	eb 01		 jmp	 SHORT $LN77@ProcessBuf
$LN11@ProcessBuf:

; 295  : 			default:
; 296  : 				m_pOwner->SetJumpPower( m_fFlyJumpPower );

  00351	51		 push	 ecx
$LN77@ProcessBuf:
  00352	f3 0f 10 86 70
	09 00 00	 movss	 xmm0, DWORD PTR [esi+2416]
  0035a	f3 0f 11 04 24	 movss	 DWORD PTR [esp], xmm0
  0035f	e8 00 00 00 00	 call	 ?SetJumpPower@ioBaseChar@@QAEXM@Z ; ioBaseChar::SetJumpPower

; 297  : 				break;
; 298  : 			}
; 299  : 
; 300  : 			SetFlyBoostState();

  00364	8b ce		 mov	 ecx, esi
  00366	e8 00 00 00 00	 call	 ?SetFlyBoostState@ioFlyBuff@@IAEXXZ ; ioFlyBuff::SetFlyBoostState
  0036b	e9 09 01 00 00	 jmp	 $LN1@ProcessBuf
$LN15@ProcessBuf:

; 301  : 		}
; 302  : 		else if( m_fPreMoveSpeed == 0.0f && m_pOwner->GetCurSpeed() > 0.0f )

  00370	f3 0f 10 86 10
	0a 00 00	 movss	 xmm0, DWORD PTR [esi+2576]
  00378	0f 2e 05 00 00
	00 00		 ucomiss xmm0, DWORD PTR __real@00000000
  0037f	9f		 lahf
  00380	f6 c4 44	 test	 ah, 68			; 00000044H
  00383	0f 8a f0 00 00
	00		 jp	 $LN1@ProcessBuf
  00389	e8 00 00 00 00	 call	 ?GetCurSpeed@ioBaseChar@@QAEMXZ ; ioBaseChar::GetCurSpeed
  0038e	d9 ee		 fldz
  00390	d9 c9		 fxch	 ST(1)
  00392	df f1		 fcomip	 ST(1)
  00394	dd d8		 fstp	 ST(0)
  00396	0f 86 dd 00 00
	00		 jbe	 $LN1@ProcessBuf

; 303  : 		{
; 304  : 			SetFlyMoveState();

  0039c	8b ce		 mov	 ecx, esi
$LN79@ProcessBuf:
  0039e	e8 00 00 00 00	 call	 ?SetFlyMoveState@ioFlyBuff@@IAEXXZ ; ioFlyBuff::SetFlyMoveState

; 305  : 		}
; 306  : 	}

  003a3	e9 d1 00 00 00	 jmp	 $LN1@ProcessBuf
$LN30@ProcessBuf:

; 307  : 	else if( m_pOwner->GetState() == CS_FLY )

  003a8	8b 8e 74 02 00
	00		 mov	 ecx, DWORD PTR [esi+628]
  003ae	80 b9 10 03 00
	00 14		 cmp	 BYTE PTR [ecx+784], 20	; 00000014H
  003b5	75 17		 jne	 SHORT $LN7@ProcessBuf

; 308  : 	{
; 309  : 		m_bSetFlyState = true;

  003b7	33 db		 xor	 ebx, ebx
  003b9	43		 inc	 ebx
  003ba	88 9e 08 0a 00
	00		 mov	 BYTE PTR [esi+2568], bl

; 310  : 		if( m_FlyMoveType == FMT_BIRD )

  003c0	39 9e 0c 0a 00
	00		 cmp	 DWORD PTR [esi+2572], ebx
  003c6	0f 85 81 00 00
	00		 jne	 $LN3@ProcessBuf

; 311  : 		{
; 312  : 			m_pOwner->SetInvisibleState( true );
; 313  : 			m_pOwner->AttachEffect( m_FlyExtraEffect, NULL, false );
; 314  : 			m_pOwner->SetCurMoveSpeed( m_pOwner->GetMaxSpeed() );
; 315  : 		}
; 316  : 
; 317  : 		SetFlyDelayState();

  003cc	eb 49		 jmp	 SHORT $LN80@ProcessBuf
$LN7@ProcessBuf:

; 318  : 	}
; 319  : 	else if ( m_bUseNoSkillState && m_pOwner->GetState() != CS_FLY )

  003ce	8d 85 d7 7f ff
	ff		 lea	 eax, DWORD PTR _value$532090[ebp]
  003d4	50		 push	 eax
  003d5	8d 8e 18 0a 00
	00		 lea	 ecx, DWORD PTR [esi+2584]
  003db	e8 00 00 00 00	 call	 ?DecryptValueToPool@?$CEncrypt@_N@@QAEXPA_N@Z ; CEncrypt<bool>::DecryptValueToPool
  003e0	80 bd d7 7f ff
	ff 00		 cmp	 BYTE PTR _value$532090[ebp], 0
  003e7	74 6d		 je	 SHORT $LN4@ProcessBuf
  003e9	8b 8e 74 02 00
	00		 mov	 ecx, DWORD PTR [esi+628]
  003ef	80 b9 10 03 00
	00 14		 cmp	 BYTE PTR [ecx+784], 20	; 00000014H
  003f6	74 5e		 je	 SHORT $LN4@ProcessBuf

; 320  : 	{
; 321  : 		m_bSetFlyState = true;

  003f8	33 db		 xor	 ebx, ebx
  003fa	43		 inc	 ebx

; 322  : 		m_pOwner->SetState( CS_FLY );

  003fb	53		 push	 ebx
  003fc	6a 14		 push	 20			; 00000014H
  003fe	88 9e 08 0a 00
	00		 mov	 BYTE PTR [esi+2568], bl
  00404	e8 00 00 00 00	 call	 ?SetState@ioBaseChar@@QAEXH_N@Z ; ioBaseChar::SetState

; 323  : 		if( m_FlyMoveType == FMT_BIRD )

  00409	39 9e 0c 0a 00
	00		 cmp	 DWORD PTR [esi+2572], ebx
  0040f	75 3c		 jne	 SHORT $LN3@ProcessBuf

; 324  : 		{
; 325  : 			m_pOwner->SetInvisibleState( true );

  00411	8b 8e 74 02 00
	00		 mov	 ecx, DWORD PTR [esi+628]
$LN80@ProcessBuf:
  00417	57		 push	 edi
  00418	53		 push	 ebx
  00419	e8 00 00 00 00	 call	 ?SetInvisibleState@ioBaseChar@@QAEX_N0@Z ; ioBaseChar::SetInvisibleState

; 326  : 			m_pOwner->AttachEffect( m_FlyExtraEffect, NULL, false );

  0041e	8b 8e 74 02 00
	00		 mov	 ecx, DWORD PTR [esi+628]
  00424	57		 push	 edi
  00425	57		 push	 edi
  00426	8d 86 f0 09 00
	00		 lea	 eax, DWORD PTR [esi+2544]
  0042c	50		 push	 eax
  0042d	e8 00 00 00 00	 call	 ?AttachEffect@ioBaseChar@@QAEPAVioEffect@@ABVioHashString@@PAVioEntityEvent@@_N@Z ; ioBaseChar::AttachEffect

; 327  : 			m_pOwner->SetCurMoveSpeed( m_pOwner->GetMaxSpeed() );

  00432	8b 8e 74 02 00
	00		 mov	 ecx, DWORD PTR [esi+628]
  00438	53		 push	 ebx
  00439	e8 00 00 00 00	 call	 ?GetMaxSpeed@ioBaseChar@@QBEM_N@Z ; ioBaseChar::GetMaxSpeed
  0043e	51		 push	 ecx
  0043f	8b 8e 74 02 00
	00		 mov	 ecx, DWORD PTR [esi+628]
  00445	d9 1c 24	 fstp	 DWORD PTR [esp]
  00448	e8 00 00 00 00	 call	 ?SetCurMoveSpeed@ioBaseChar@@QAEXM@Z ; ioBaseChar::SetCurMoveSpeed
$LN3@ProcessBuf:

; 328  : 		}
; 329  : 		
; 330  : 		SetFlyDelayState();

  0044d	8b ce		 mov	 ecx, esi
$LN18@ProcessBuf:
  0044f	e8 00 00 00 00	 call	 ?SetFlyDelayState@ioFlyBuff@@IAEXXZ ; ioFlyBuff::SetFlyDelayState
  00454	eb 23		 jmp	 SHORT $LN1@ProcessBuf
$LN4@ProcessBuf:

; 331  : 
; 332  : 	}
; 333  : 	else if( m_pOwner->GetState() != CS_USING_SKILL )

  00456	8b 8e 74 02 00
	00		 mov	 ecx, DWORD PTR [esi+628]
  0045c	80 b9 10 03 00
	00 07		 cmp	 BYTE PTR [ecx+784], 7
  00463	74 14		 je	 SHORT $LN1@ProcessBuf
$LN75@ProcessBuf:

; 334  : 	{
; 335  : 		m_pOwner->CheckUseBuffSkill( m_Name, false );

  00465	57		 push	 edi
  00466	8d 86 34 02 00
	00		 lea	 eax, DWORD PTR [esi+564]
  0046c	50		 push	 eax
  0046d	e8 00 00 00 00	 call	 ?CheckUseBuffSkill@ioBaseChar@@QAEXABVioHashString@@_N@Z ; ioBaseChar::CheckUseBuffSkill

; 336  : 		SetReserveEndBuff();

  00472	8b ce		 mov	 ecx, esi
$LN74@ProcessBuf:
  00474	e8 00 00 00 00	 call	 ?SetReserveEndBuff@ioBuff@@QAEXXZ ; ioBuff::SetReserveEndBuff
$LN1@ProcessBuf:

; 337  : 		return;
; 338  : 	}
; 339  : }

  00479	8b 4d f4	 mov	 ecx, DWORD PTR __$EHRec$[ebp]
  0047c	64 89 0d 00 00
	00 00		 mov	 DWORD PTR fs:0, ecx
  00483	59		 pop	 ecx
  00484	5f		 pop	 edi
  00485	5e		 pop	 esi
  00486	5b		 pop	 ebx
  00487	8b 4d f0	 mov	 ecx, DWORD PTR __$ArrayPad$[ebp]
  0048a	33 cd		 xor	 ecx, ebp
  0048c	e8 00 00 00 00	 call	 @__security_check_cookie@4
  00491	c9		 leave
  00492	c2 04 00	 ret	 4
_TEXT	ENDS
;	COMDAT text$x
text$x	SEGMENT
__unwindfunclet$?ProcessBuff@ioFlyBuff@@UAEXM@Z$0:
  00000	8d 8d d8 7f ff
	ff		 lea	 ecx, DWORD PTR _kPacket$523994[ebp]
  00006	e9 00 00 00 00	 jmp	 ??1SP2Packet@@UAE@XZ	; SP2Packet::~SP2Packet
__unwindfunclet$?ProcessBuff@ioFlyBuff@@UAEXM@Z$1:
  0000b	8d 8d d8 7f ff
	ff		 lea	 ecx, DWORD PTR _kPacket$523999[ebp]
  00011	e9 00 00 00 00	 jmp	 ??1SP2Packet@@UAE@XZ	; SP2Packet::~SP2Packet
__ehhandler$?ProcessBuff@ioFlyBuff@@UAEXM@Z:
  00016	8b 54 24 08	 mov	 edx, DWORD PTR [esp+8]
  0001a	8d 42 0c	 lea	 eax, DWORD PTR [edx+12]
  0001d	8b 8a cc 7f ff
	ff		 mov	 ecx, DWORD PTR [edx-32820]
  00023	33 c8		 xor	 ecx, eax
  00025	e8 00 00 00 00	 call	 @__security_check_cookie@4
  0002a	8b 4a fc	 mov	 ecx, DWORD PTR [edx-4]
  0002d	33 c8		 xor	 ecx, eax
  0002f	e8 00 00 00 00	 call	 @__security_check_cookie@4
  00034	b8 00 00 00 00	 mov	 eax, OFFSET __ehfuncinfo$?ProcessBuff@ioFlyBuff@@UAEXM@Z
  00039	e9 00 00 00 00	 jmp	 ___CxxFrameHandler3
text$x	ENDS
?ProcessBuff@ioFlyBuff@@UAEXM@Z ENDP			; ioFlyBuff::ProcessBuff
PUBLIC	??0?$CEncrypt@_N@@QAE@ABV0@@Z			; CEncrypt<bool>::CEncrypt<bool>
;	COMDAT xdata$x
; File d:\lost saga for developer\youtube\tutorial\source\src\lsclient\encryptvalue.h
xdata$x	SEGMENT
__unwindtable$??0?$CEncrypt@_N@@QAE@ABV0@@Z DD 0ffffffffH
	DD	FLAT:__unwindfunclet$??0?$CEncrypt@_N@@QAE@ABV0@@Z$0
__ehfuncinfo$??0?$CEncrypt@_N@@QAE@ABV0@@Z DD 019930522H
	DD	01H
	DD	FLAT:__unwindtable$??0?$CEncrypt@_N@@QAE@ABV0@@Z
	DD	2 DUP(00H)
	DD	2 DUP(00H)
	DD	00H
	DD	01H
; Function compile flags: /Ogsp
xdata$x	ENDS
;	COMDAT ??0?$CEncrypt@_N@@QAE@ABV0@@Z
_TEXT	SEGMENT
_this$ = -16						; size = 4
__$EHRec$ = -12						; size = 12
_inValue$ = 8						; size = 4
_value$532129 = 11					; size = 1
_value$532124 = 11					; size = 1
??0?$CEncrypt@_N@@QAE@ABV0@@Z PROC			; CEncrypt<bool>::CEncrypt<bool>, COMDAT
; _this$ = ecx

; 120  : 	CEncrypt( const CEncrypt<type> &inValue )   // 선언과 동시에 값을 대입하기 위해서

  00000	6a 04		 push	 4
  00002	b8 00 00 00 00	 mov	 eax, __ehhandler$??0?$CEncrypt@_N@@QAE@ABV0@@Z
  00007	e8 00 00 00 00	 call	 __EH_prolog3
  0000c	8b f1		 mov	 esi, ecx
  0000e	89 75 f0	 mov	 DWORD PTR _this$[ebp], esi
  00011	8d 4e 0c	 lea	 ecx, DWORD PTR [esi+12]
  00014	c7 06 00 00 00
	00		 mov	 DWORD PTR [esi], OFFSET ??_7?$CEncrypt@_N@@6B@
  0001a	e8 00 00 00 00	 call	 ??0ccddaabb@@QAE@XZ	; ccddaabb::ccddaabb
  0001f	83 65 fc 00	 and	 DWORD PTR __$EHRec$[ebp+8], 0

; 121  : 	{
; 122  : 		Init();

  00023	8b ce		 mov	 ecx, esi
  00025	e8 00 00 00 00	 call	 ?Init@?$CEncrypt@_N@@AAEXXZ ; CEncrypt<bool>::Init

; 123  : 		*this = inValue;

  0002a	8b 4d 08	 mov	 ecx, DWORD PTR _inValue$[ebp]
  0002d	8d 45 0b	 lea	 eax, DWORD PTR _value$532124[ebp]
  00030	50		 push	 eax
  00031	e8 00 00 00 00	 call	 ?DecryptValueToPool@?$CEncrypt@_N@@QAEXPA_N@Z ; CEncrypt<bool>::DecryptValueToPool
  00036	8a 45 0b	 mov	 al, BYTE PTR _value$532124[ebp]
  00039	88 45 0b	 mov	 BYTE PTR _value$532129[ebp], al
  0003c	8d 45 0b	 lea	 eax, DWORD PTR _value$532129[ebp]
  0003f	50		 push	 eax
  00040	8b ce		 mov	 ecx, esi
  00042	e8 00 00 00 00	 call	 ?EncryptValueToPool@?$CEncrypt@_N@@AAEXPBD@Z ; CEncrypt<bool>::EncryptValueToPool

; 124  : 	}

  00047	8b c6		 mov	 eax, esi
  00049	e8 00 00 00 00	 call	 __EH_epilog3
  0004e	c2 04 00	 ret	 4
_TEXT	ENDS
;	COMDAT text$x
text$x	SEGMENT
__unwindfunclet$??0?$CEncrypt@_N@@QAE@ABV0@@Z$0:
  00000	8b 4d f0	 mov	 ecx, DWORD PTR _this$[ebp]
  00003	83 c1 0c	 add	 ecx, 12			; 0000000cH
  00006	e9 00 00 00 00	 jmp	 ??1ccddaabb@@UAE@XZ	; ccddaabb::~ccddaabb
__ehhandler$??0?$CEncrypt@_N@@QAE@ABV0@@Z:
  0000b	8b 54 24 08	 mov	 edx, DWORD PTR [esp+8]
  0000f	8d 42 0c	 lea	 eax, DWORD PTR [edx+12]
  00012	8b 4a ec	 mov	 ecx, DWORD PTR [edx-20]
  00015	33 c8		 xor	 ecx, eax
  00017	e8 00 00 00 00	 call	 @__security_check_cookie@4
  0001c	b8 00 00 00 00	 mov	 eax, OFFSET __ehfuncinfo$??0?$CEncrypt@_N@@QAE@ABV0@@Z
  00021	e9 00 00 00 00	 jmp	 ___CxxFrameHandler3
text$x	ENDS
??0?$CEncrypt@_N@@QAE@ABV0@@Z ENDP			; CEncrypt<bool>::CEncrypt<bool>
PUBLIC	??0ioFlyBuff@@QAE@ABV0@@Z			; ioFlyBuff::ioFlyBuff
EXTRN	__imp_??0ioHashString@@QAE@ABV0@@Z:PROC
EXTRN	??0ioBuff@@QAE@ABV0@@Z:PROC			; ioBuff::ioBuff
;	COMDAT xdata$x
; File d:\lost saga for developer\youtube\tutorial\source\src\lsclient\ioflybuff.cpp
xdata$x	SEGMENT
__ehfuncinfo$??0ioFlyBuff@@QAE@ABV0@@Z DD 019930522H
	DD	0bH
	DD	FLAT:__unwindtable$??0ioFlyBuff@@QAE@ABV0@@Z
	DD	2 DUP(00H)
	DD	2 DUP(00H)
	DD	00H
	DD	01H
__unwindtable$??0ioFlyBuff@@QAE@ABV0@@Z DD 0ffffffffH
	DD	FLAT:__unwindfunclet$??0ioFlyBuff@@QAE@ABV0@@Z$0
	DD	00H
	DD	FLAT:__unwindfunclet$??0ioFlyBuff@@QAE@ABV0@@Z$1
	DD	01H
	DD	FLAT:__unwindfunclet$??0ioFlyBuff@@QAE@ABV0@@Z$2
	DD	02H
	DD	FLAT:__unwindfunclet$??0ioFlyBuff@@QAE@ABV0@@Z$3
	DD	03H
	DD	FLAT:__unwindfunclet$??0ioFlyBuff@@QAE@ABV0@@Z$4
	DD	04H
	DD	FLAT:__unwindfunclet$??0ioFlyBuff@@QAE@ABV0@@Z$5
	DD	05H
	DD	FLAT:__unwindfunclet$??0ioFlyBuff@@QAE@ABV0@@Z$6
	DD	06H
	DD	FLAT:__unwindfunclet$??0ioFlyBuff@@QAE@ABV0@@Z$7
	DD	07H
	DD	FLAT:__unwindfunclet$??0ioFlyBuff@@QAE@ABV0@@Z$8
	DD	08H
	DD	FLAT:__unwindfunclet$??0ioFlyBuff@@QAE@ABV0@@Z$9
	DD	09H
	DD	FLAT:__unwindfunclet$??0ioFlyBuff@@QAE@ABV0@@Z$10
; Function compile flags: /Ogsp
xdata$x	ENDS
;	COMDAT ??0ioFlyBuff@@QAE@ABV0@@Z
_TEXT	SEGMENT
_this$ = -16						; size = 4
__$EHRec$ = -12						; size = 12
_rhs$ = 8						; size = 4
??0ioFlyBuff@@QAE@ABV0@@Z PROC				; ioFlyBuff::ioFlyBuff, COMDAT
; _this$ = ecx

; 51   : {

  00000	6a 04		 push	 4
  00002	b8 00 00 00 00	 mov	 eax, __ehhandler$??0ioFlyBuff@@QAE@ABV0@@Z
  00007	e8 00 00 00 00	 call	 __EH_prolog3
  0000c	8b f1		 mov	 esi, ecx
  0000e	89 75 f0	 mov	 DWORD PTR _this$[ebp], esi
  00011	8b 7d 08	 mov	 edi, DWORD PTR _rhs$[ebp]
  00014	57		 push	 edi
  00015	e8 00 00 00 00	 call	 ??0ioBuff@@QAE@ABV0@@Z	; ioBuff::ioBuff
  0001a	c7 06 00 00 00
	00		 mov	 DWORD PTR [esi], OFFSET ??_7ioFlyBuff@@6B@
  00020	d9 87 6c 09 00
	00		 fld	 DWORD PTR [edi+2412]
  00026	d9 9e 6c 09 00
	00		 fstp	 DWORD PTR [esi+2412]
  0002c	8b 1d 00 00 00
	00		 mov	 ebx, DWORD PTR __imp_??0ioHashString@@QAE@ABV0@@Z
  00032	d9 87 70 09 00
	00		 fld	 DWORD PTR [edi+2416]
  00038	83 65 fc 00	 and	 DWORD PTR __$EHRec$[ebp+8], 0
  0003c	d9 9e 70 09 00
	00		 fstp	 DWORD PTR [esi+2416]
  00042	8d 8e 90 09 00
	00		 lea	 ecx, DWORD PTR [esi+2448]
  00048	d9 87 74 09 00
	00		 fld	 DWORD PTR [edi+2420]
  0004e	d9 9e 74 09 00
	00		 fstp	 DWORD PTR [esi+2420]
  00054	d9 87 78 09 00
	00		 fld	 DWORD PTR [edi+2424]
  0005a	d9 9e 78 09 00
	00		 fstp	 DWORD PTR [esi+2424]
  00060	d9 87 7c 09 00
	00		 fld	 DWORD PTR [edi+2428]
  00066	d9 9e 7c 09 00
	00		 fstp	 DWORD PTR [esi+2428]
  0006c	d9 87 80 09 00
	00		 fld	 DWORD PTR [edi+2432]
  00072	d9 9e 80 09 00
	00		 fstp	 DWORD PTR [esi+2432]
  00078	8b 87 84 09 00
	00		 mov	 eax, DWORD PTR [edi+2436]
  0007e	89 86 84 09 00
	00		 mov	 DWORD PTR [esi+2436], eax
  00084	8b 87 88 09 00
	00		 mov	 eax, DWORD PTR [edi+2440]
  0008a	89 86 88 09 00
	00		 mov	 DWORD PTR [esi+2440], eax
  00090	8d 87 90 09 00
	00		 lea	 eax, DWORD PTR [edi+2448]
  00096	50		 push	 eax
  00097	ff d3		 call	 ebx
  00099	8d 87 a0 09 00
	00		 lea	 eax, DWORD PTR [edi+2464]
  0009f	50		 push	 eax
  000a0	8d 8e a0 09 00
	00		 lea	 ecx, DWORD PTR [esi+2464]
  000a6	c6 45 fc 01	 mov	 BYTE PTR __$EHRec$[ebp+8], 1
  000aa	ff d3		 call	 ebx
  000ac	8d 87 b0 09 00
	00		 lea	 eax, DWORD PTR [edi+2480]
  000b2	50		 push	 eax
  000b3	8d 8e b0 09 00
	00		 lea	 ecx, DWORD PTR [esi+2480]
  000b9	c6 45 fc 02	 mov	 BYTE PTR __$EHRec$[ebp+8], 2
  000bd	ff d3		 call	 ebx
  000bf	8d 87 c0 09 00
	00		 lea	 eax, DWORD PTR [edi+2496]
  000c5	50		 push	 eax
  000c6	8d 8e c0 09 00
	00		 lea	 ecx, DWORD PTR [esi+2496]
  000cc	c6 45 fc 03	 mov	 BYTE PTR __$EHRec$[ebp+8], 3
  000d0	ff d3		 call	 ebx
  000d2	8d 87 d0 09 00
	00		 lea	 eax, DWORD PTR [edi+2512]
  000d8	50		 push	 eax
  000d9	8d 8e d0 09 00
	00		 lea	 ecx, DWORD PTR [esi+2512]
  000df	c6 45 fc 04	 mov	 BYTE PTR __$EHRec$[ebp+8], 4
  000e3	ff d3		 call	 ebx
  000e5	8d 87 e0 09 00
	00		 lea	 eax, DWORD PTR [edi+2528]
  000eb	50		 push	 eax
  000ec	8d 8e e0 09 00
	00		 lea	 ecx, DWORD PTR [esi+2528]
  000f2	c6 45 fc 05	 mov	 BYTE PTR __$EHRec$[ebp+8], 5
  000f6	ff d3		 call	 ebx
  000f8	8d 87 f0 09 00
	00		 lea	 eax, DWORD PTR [edi+2544]
  000fe	50		 push	 eax
  000ff	8d 8e f0 09 00
	00		 lea	 ecx, DWORD PTR [esi+2544]
  00105	c6 45 fc 06	 mov	 BYTE PTR __$EHRec$[ebp+8], 6
  00109	ff d3		 call	 ebx
  0010b	8b 87 04 0a 00
	00		 mov	 eax, DWORD PTR [edi+2564]
  00111	89 86 04 0a 00
	00		 mov	 DWORD PTR [esi+2564], eax
  00117	8b 87 0c 0a 00
	00		 mov	 eax, DWORD PTR [edi+2572]
  0011d	89 86 0c 0a 00
	00		 mov	 DWORD PTR [esi+2572], eax
  00123	8d 87 18 0a 00
	00		 lea	 eax, DWORD PTR [edi+2584]
  00129	50		 push	 eax
  0012a	8d 8e 18 0a 00
	00		 lea	 ecx, DWORD PTR [esi+2584]
  00130	c6 45 fc 07	 mov	 BYTE PTR __$EHRec$[ebp+8], 7
  00134	e8 00 00 00 00	 call	 ??0?$CEncrypt@_N@@QAE@ABV0@@Z ; CEncrypt<bool>::CEncrypt<bool>
  00139	8d 87 48 0a 00
	00		 lea	 eax, DWORD PTR [edi+2632]
  0013f	50		 push	 eax
  00140	8d 8e 48 0a 00
	00		 lea	 ecx, DWORD PTR [esi+2632]
  00146	c6 45 fc 08	 mov	 BYTE PTR __$EHRec$[ebp+8], 8
  0014a	e8 00 00 00 00	 call	 ??0?$CEncrypt@_N@@QAE@ABV0@@Z ; CEncrypt<bool>::CEncrypt<bool>
  0014f	c6 45 fc 09	 mov	 BYTE PTR __$EHRec$[ebp+8], 9
  00153	8a 87 78 0a 00
	00		 mov	 al, BYTE PTR [edi+2680]
  00159	88 86 78 0a 00
	00		 mov	 BYTE PTR [esi+2680], al
  0015f	8d 87 7c 0a 00
	00		 lea	 eax, DWORD PTR [edi+2684]
  00165	50		 push	 eax
  00166	8d 8e 7c 0a 00
	00		 lea	 ecx, DWORD PTR [esi+2684]
  0016c	ff d3		 call	 ebx
  0016e	d9 87 8c 0a 00
	00		 fld	 DWORD PTR [edi+2700]
  00174	8d 87 90 0a 00
	00		 lea	 eax, DWORD PTR [edi+2704]
  0017a	d9 9e 8c 0a 00
	00		 fstp	 DWORD PTR [esi+2700]
  00180	50		 push	 eax
  00181	8d 8e 90 0a 00
	00		 lea	 ecx, DWORD PTR [esi+2704]
  00187	c6 45 fc 0a	 mov	 BYTE PTR __$EHRec$[ebp+8], 10 ; 0000000aH
  0018b	ff d3		 call	 ebx
  0018d	d9 87 a0 0a 00
	00		 fld	 DWORD PTR [edi+2720]

; 52   : 	m_dwPreCheckTime = 0;
; 53   : 	m_dwFlyBoostEndTime = 0;
; 54   : 	m_bSetFlyState = false;
; 55   : 
; 56   : 	m_fPreMoveSpeed = 0.0f;

  00193	0f 57 c0	 xorps	 xmm0, xmm0
  00196	d9 9e a0 0a 00
	00		 fstp	 DWORD PTR [esi+2720]
  0019c	8a 87 a8 0a 00
	00		 mov	 al, BYTE PTR [edi+2728]
  001a2	88 86 a8 0a 00
	00		 mov	 BYTE PTR [esi+2728], al
  001a8	d9 87 ac 0a 00
	00		 fld	 DWORD PTR [edi+2732]
  001ae	d9 9e ac 0a 00
	00		 fstp	 DWORD PTR [esi+2732]
  001b4	8a 87 b0 0a 00
	00		 mov	 al, BYTE PTR [edi+2736]
  001ba	88 86 b0 0a 00
	00		 mov	 BYTE PTR [esi+2736], al
  001c0	8a 87 b1 0a 00
	00		 mov	 al, BYTE PTR [edi+2737]
  001c6	88 86 b1 0a 00
	00		 mov	 BYTE PTR [esi+2737], al
  001cc	8a 87 b2 0a 00
	00		 mov	 al, BYTE PTR [edi+2738]
  001d2	88 86 b2 0a 00
	00		 mov	 BYTE PTR [esi+2738], al
  001d8	33 c0		 xor	 eax, eax

; 57   : 
; 58   : 	m_dwCurEffectID = -1;

  001da	83 8e 14 0a 00
	00 ff		 or	 DWORD PTR [esi+2580], -1
  001e1	89 86 8c 09 00
	00		 mov	 DWORD PTR [esi+2444], eax
  001e7	89 86 00 0a 00
	00		 mov	 DWORD PTR [esi+2560], eax
  001ed	88 86 08 0a 00
	00		 mov	 BYTE PTR [esi+2568], al

; 59   : 
; 60   : 	m_dwAttackMotionEndTime = 0;

  001f3	89 86 a4 0a 00
	00		 mov	 DWORD PTR [esi+2724], eax
  001f9	f3 0f 11 86 10
	0a 00 00	 movss	 DWORD PTR [esi+2576], xmm0

; 61   : }

  00201	8b c6		 mov	 eax, esi
  00203	e8 00 00 00 00	 call	 __EH_epilog3
  00208	c2 04 00	 ret	 4
_TEXT	ENDS
;	COMDAT text$x
text$x	SEGMENT
__unwindfunclet$??0ioFlyBuff@@QAE@ABV0@@Z$0:
  00000	8b 4d f0	 mov	 ecx, DWORD PTR _this$[ebp]
  00003	e9 00 00 00 00	 jmp	 ??1ioBuff@@UAE@XZ	; ioBuff::~ioBuff
__unwindfunclet$??0ioFlyBuff@@QAE@ABV0@@Z$1:
  00008	8b 4d f0	 mov	 ecx, DWORD PTR _this$[ebp]
  0000b	81 c1 90 09 00
	00		 add	 ecx, 2448		; 00000990H
  00011	ff 25 00 00 00
	00		 jmp	 DWORD PTR __imp_??1ioHashString@@QAE@XZ
__unwindfunclet$??0ioFlyBuff@@QAE@ABV0@@Z$2:
  00017	8b 4d f0	 mov	 ecx, DWORD PTR _this$[ebp]
  0001a	81 c1 a0 09 00
	00		 add	 ecx, 2464		; 000009a0H
  00020	ff 25 00 00 00
	00		 jmp	 DWORD PTR __imp_??1ioHashString@@QAE@XZ
__unwindfunclet$??0ioFlyBuff@@QAE@ABV0@@Z$3:
  00026	8b 4d f0	 mov	 ecx, DWORD PTR _this$[ebp]
  00029	81 c1 b0 09 00
	00		 add	 ecx, 2480		; 000009b0H
  0002f	ff 25 00 00 00
	00		 jmp	 DWORD PTR __imp_??1ioHashString@@QAE@XZ
__unwindfunclet$??0ioFlyBuff@@QAE@ABV0@@Z$4:
  00035	8b 4d f0	 mov	 ecx, DWORD PTR _this$[ebp]
  00038	81 c1 c0 09 00
	00		 add	 ecx, 2496		; 000009c0H
  0003e	ff 25 00 00 00
	00		 jmp	 DWORD PTR __imp_??1ioHashString@@QAE@XZ
__unwindfunclet$??0ioFlyBuff@@QAE@ABV0@@Z$5:
  00044	8b 4d f0	 mov	 ecx, DWORD PTR _this$[ebp]
  00047	81 c1 d0 09 00
	00		 add	 ecx, 2512		; 000009d0H
  0004d	ff 25 00 00 00
	00		 jmp	 DWORD PTR __imp_??1ioHashString@@QAE@XZ
__unwindfunclet$??0ioFlyBuff@@QAE@ABV0@@Z$6:
  00053	8b 4d f0	 mov	 ecx, DWORD PTR _this$[ebp]
  00056	81 c1 e0 09 00
	00		 add	 ecx, 2528		; 000009e0H
  0005c	ff 25 00 00 00
	00		 jmp	 DWORD PTR __imp_??1ioHashString@@QAE@XZ
__unwindfunclet$??0ioFlyBuff@@QAE@ABV0@@Z$7:
  00062	8b 4d f0	 mov	 ecx, DWORD PTR _this$[ebp]
  00065	81 c1 f0 09 00
	00		 add	 ecx, 2544		; 000009f0H
  0006b	ff 25 00 00 00
	00		 jmp	 DWORD PTR __imp_??1ioHashString@@QAE@XZ
__unwindfunclet$??0ioFlyBuff@@QAE@ABV0@@Z$8:
  00071	8b 4d f0	 mov	 ecx, DWORD PTR _this$[ebp]
  00074	81 c1 18 0a 00
	00		 add	 ecx, 2584		; 00000a18H
  0007a	e9 00 00 00 00	 jmp	 ??1?$CEncrypt@_N@@UAE@XZ ; CEncrypt<bool>::~CEncrypt<bool>
__unwindfunclet$??0ioFlyBuff@@QAE@ABV0@@Z$9:
  0007f	8b 4d f0	 mov	 ecx, DWORD PTR _this$[ebp]
  00082	81 c1 48 0a 00
	00		 add	 ecx, 2632		; 00000a48H
  00088	e9 00 00 00 00	 jmp	 ??1?$CEncrypt@_N@@UAE@XZ ; CEncrypt<bool>::~CEncrypt<bool>
__unwindfunclet$??0ioFlyBuff@@QAE@ABV0@@Z$10:
  0008d	8b 4d f0	 mov	 ecx, DWORD PTR _this$[ebp]
  00090	81 c1 7c 0a 00
	00		 add	 ecx, 2684		; 00000a7cH
  00096	ff 25 00 00 00
	00		 jmp	 DWORD PTR __imp_??1ioHashString@@QAE@XZ
__ehhandler$??0ioFlyBuff@@QAE@ABV0@@Z:
  0009c	8b 54 24 08	 mov	 edx, DWORD PTR [esp+8]
  000a0	8d 42 0c	 lea	 eax, DWORD PTR [edx+12]
  000a3	8b 4a ec	 mov	 ecx, DWORD PTR [edx-20]
  000a6	33 c8		 xor	 ecx, eax
  000a8	e8 00 00 00 00	 call	 @__security_check_cookie@4
  000ad	b8 00 00 00 00	 mov	 eax, OFFSET __ehfuncinfo$??0ioFlyBuff@@QAE@ABV0@@Z
  000b2	e9 00 00 00 00	 jmp	 ___CxxFrameHandler3
text$x	ENDS
??0ioFlyBuff@@QAE@ABV0@@Z ENDP				; ioFlyBuff::ioFlyBuff
EXTRN	??2@YAPAXI@Z:PROC				; operator new
;	COMDAT xdata$x
xdata$x	SEGMENT
__unwindtable$?Clone@ioFlyBuff@@UAEPAVioBuff@@XZ DD 0ffffffffH
	DD	FLAT:__unwindfunclet$?Clone@ioFlyBuff@@UAEPAVioBuff@@XZ$0
__ehfuncinfo$?Clone@ioFlyBuff@@UAEPAVioBuff@@XZ DD 019930522H
	DD	01H
	DD	FLAT:__unwindtable$?Clone@ioFlyBuff@@UAEPAVioBuff@@XZ
	DD	2 DUP(00H)
	DD	2 DUP(00H)
	DD	00H
	DD	01H
; Function compile flags: /Ogsp
xdata$x	ENDS
;	COMDAT ?Clone@ioFlyBuff@@UAEPAVioBuff@@XZ
_TEXT	SEGMENT
$T532160 = -16						; size = 4
__$EHRec$ = -12						; size = 12
?Clone@ioFlyBuff@@UAEPAVioBuff@@XZ PROC			; ioFlyBuff::Clone, COMDAT
; _this$ = ecx

; 129  : {

  00000	6a 04		 push	 4
  00002	b8 00 00 00 00	 mov	 eax, __ehhandler$?Clone@ioFlyBuff@@UAEPAVioBuff@@XZ
  00007	e8 00 00 00 00	 call	 __EH_prolog3
  0000c	8b f1		 mov	 esi, ecx

; 130  : 	return new ioFlyBuff( *this );

  0000e	68 b4 0a 00 00	 push	 2740			; 00000ab4H
  00013	e8 00 00 00 00	 call	 ??2@YAPAXI@Z		; operator new
  00018	59		 pop	 ecx
  00019	8b c8		 mov	 ecx, eax
  0001b	89 4d f0	 mov	 DWORD PTR $T532160[ebp], ecx
  0001e	33 c0		 xor	 eax, eax
  00020	89 45 fc	 mov	 DWORD PTR __$EHRec$[ebp+8], eax
  00023	3b c8		 cmp	 ecx, eax
  00025	74 06		 je	 SHORT $LN3@Clone
  00027	56		 push	 esi
  00028	e8 00 00 00 00	 call	 ??0ioFlyBuff@@QAE@ABV0@@Z ; ioFlyBuff::ioFlyBuff
$LN3@Clone:

; 131  : }

  0002d	e8 00 00 00 00	 call	 __EH_epilog3
  00032	c3		 ret	 0
_TEXT	ENDS
;	COMDAT text$x
text$x	SEGMENT
__unwindfunclet$?Clone@ioFlyBuff@@UAEPAVioBuff@@XZ$0:
  00000	ff 75 f0	 push	 DWORD PTR $T532160[ebp]
  00003	e8 00 00 00 00	 call	 ??3@YAXPAX@Z		; operator delete
  00008	59		 pop	 ecx
  00009	c3		 ret	 0
__ehhandler$?Clone@ioFlyBuff@@UAEPAVioBuff@@XZ:
  0000a	8b 54 24 08	 mov	 edx, DWORD PTR [esp+8]
  0000e	8d 42 0c	 lea	 eax, DWORD PTR [edx+12]
  00011	8b 4a ec	 mov	 ecx, DWORD PTR [edx-20]
  00014	33 c8		 xor	 ecx, eax
  00016	e8 00 00 00 00	 call	 @__security_check_cookie@4
  0001b	b8 00 00 00 00	 mov	 eax, OFFSET __ehfuncinfo$?Clone@ioFlyBuff@@UAEPAVioBuff@@XZ
  00020	e9 00 00 00 00	 jmp	 ___CxxFrameHandler3
text$x	ENDS
?Clone@ioFlyBuff@@UAEPAVioBuff@@XZ ENDP			; ioFlyBuff::Clone
END
