; Listing generated by Microsoft (R) Optimizing Compiler Version 16.00.30319.01 

	TITLE	D:\Lost Saga For Developer\Youtube\Tutorial\Source\src\LSClient\ioFlameWeapon.cpp
	.686P
	.XMM
	include listing.inc
	.model	flat

INCLUDELIB MSVCRT
INCLUDELIB OLDNAMES

PUBLIC	?_EEM_DS@?$deque@UD3DXVECTOR3@@V?$allocator@UD3DXVECTOR3@@@std@@@std@@2HB ; std::deque<D3DXVECTOR3,std::allocator<D3DXVECTOR3> >::_EEM_DS
PUBLIC	?m_ActionStopType@ioFlameWeapon@@2W4ActionStopType@@A ; ioFlameWeapon::m_ActionStopType
PUBLIC	?m_DieActionStopType@ioFlameWeapon@@2W4ActionStopType@@A ; ioFlameWeapon::m_DieActionStopType
_BSS	SEGMENT
?m_ActionStopType@ioFlameWeapon@@2W4ActionStopType@@A DD 01H DUP (?) ; ioFlameWeapon::m_ActionStopType
?m_DieActionStopType@ioFlameWeapon@@2W4ActionStopType@@A DD 01H DUP (?) ; ioFlameWeapon::m_DieActionStopType
_BSS	ENDS
;	COMDAT ?_EEM_DS@?$deque@UD3DXVECTOR3@@V?$allocator@UD3DXVECTOR3@@@std@@@std@@2HB
CONST	SEGMENT
?_EEM_DS@?$deque@UD3DXVECTOR3@@V?$allocator@UD3DXVECTOR3@@@std@@@std@@2HB DD 01H ; std::deque<D3DXVECTOR3,std::allocator<D3DXVECTOR3> >::_EEM_DS
CONST	ENDS
PUBLIC	?return1@@YAIXZ					; return1
; Function compile flags: /Ogsp
; File d:\lost saga for developer\youtube\tutorial\source\src\lsclient\stdafx.h
;	COMDAT ?return1@@YAIXZ
_TEXT	SEGMENT
?return1@@YAIXZ PROC					; return1, COMDAT

; 17   : 	__forceinline unsigned int return1() { __asm mov eax, 1 };

  00000	b8 01 00 00 00	 mov	 eax, 1
  00005	c3		 ret	 0
?return1@@YAIXZ ENDP					; return1
_TEXT	ENDS
PUBLIC	?return1000@@YAIXZ				; return1000
; Function compile flags: /Ogsp
;	COMDAT ?return1000@@YAIXZ
_TEXT	SEGMENT
?return1000@@YAIXZ PROC					; return1000, COMDAT

; 29   : 	__forceinline unsigned int return1000() { __asm mov eax, 1000 };

  00000	b8 e8 03 00 00	 mov	 eax, 1000		; 000003e8H
  00005	c3		 ret	 0
?return1000@@YAIXZ ENDP					; return1000
_TEXT	ENDS
PUBLIC	?GetCharName@ioBaseChar@@QBEABVioHashString@@XZ	; ioBaseChar::GetCharName
; Function compile flags: /Ogsp
; File d:\lost saga for developer\youtube\tutorial\source\src\lsclient\iobasechar.h
;	COMDAT ?GetCharName@ioBaseChar@@QBEABVioHashString@@XZ
_TEXT	SEGMENT
?GetCharName@ioBaseChar@@QBEABVioHashString@@XZ PROC	; ioBaseChar::GetCharName, COMDAT
; _this$ = ecx

; 2594 : 	inline const ioHashString& GetCharName() const { return m_Name; }

  00000	8d 81 d4 02 00
	00		 lea	 eax, DWORD PTR [ecx+724]
  00006	c3		 ret	 0
?GetCharName@ioBaseChar@@QBEABVioHashString@@XZ ENDP	; ioBaseChar::GetCharName
_TEXT	ENDS
PUBLIC	?GetCreator@ioBaseChar@@QAEPAVioPlayStage@@XZ	; ioBaseChar::GetCreator
; Function compile flags: /Ogsp
;	COMDAT ?GetCreator@ioBaseChar@@QAEPAVioPlayStage@@XZ
_TEXT	SEGMENT
?GetCreator@ioBaseChar@@QAEPAVioPlayStage@@XZ PROC	; ioBaseChar::GetCreator, COMDAT
; _this$ = ecx

; 4013 : 	inline ioPlayStage* GetCreator() { return m_pCreator; }

  00000	8b 81 44 03 00
	00		 mov	 eax, DWORD PTR [ecx+836]
  00006	c3		 ret	 0
?GetCreator@ioBaseChar@@QAEPAVioPlayStage@@XZ ENDP	; ioBaseChar::GetCreator
_TEXT	ENDS
PUBLIC	??_C@_0DI@DPLNAFDJ@ioNuclearWeapon?3?3?$HOioNuclearWeapo@ ; `string'
PUBLIC	??_7ioFlameWeapon@@6B@				; ioFlameWeapon::`vftable'
PUBLIC	??1ioFlameWeapon@@UAE@XZ			; ioFlameWeapon::~ioFlameWeapon
PUBLIC	??_R4ioFlameWeapon@@6B@				; ioFlameWeapon::`RTTI Complete Object Locator'
PUBLIC	??_R0?AVioFlameWeapon@@@8			; ioFlameWeapon `RTTI Type Descriptor'
PUBLIC	??_R3ioFlameWeapon@@8				; ioFlameWeapon::`RTTI Class Hierarchy Descriptor'
PUBLIC	??_R2ioFlameWeapon@@8				; ioFlameWeapon::`RTTI Base Class Array'
PUBLIC	??_R1A@?0A@EA@ioFlameWeapon@@8			; ioFlameWeapon::`RTTI Base Class Descriptor at (0,-1,0,64)'
PUBLIC	??_R1A@?0A@EA@ioWeapon@@8			; ioWeapon::`RTTI Base Class Descriptor at (0,-1,0,64)'
PUBLIC	??_R0?AVioWeapon@@@8				; ioWeapon `RTTI Type Descriptor'
PUBLIC	??_R3ioWeapon@@8				; ioWeapon::`RTTI Class Hierarchy Descriptor'
PUBLIC	??_R2ioWeapon@@8				; ioWeapon::`RTTI Base Class Array'
PUBLIC	?SetWeaponDead@ioFlameWeapon@@UAEXXZ		; ioFlameWeapon::SetWeaponDead
PUBLIC	?GetCollisionEnableTime@ioFlameWeapon@@UBEKXZ	; ioFlameWeapon::GetCollisionEnableTime
PUBLIC	?InitResource@ioFlameWeapon@@UAE_NXZ		; ioFlameWeapon::InitResource
PUBLIC	?DestroyResource@ioFlameWeapon@@UAEXPAVioPlayStage@@@Z ; ioFlameWeapon::DestroyResource
PUBLIC	?LoadProperty@ioFlameWeapon@@UAEXAAVioINILoader@@@Z ; ioFlameWeapon::LoadProperty
PUBLIC	?SetStartPosition@ioFlameWeapon@@UAEXABUD3DXVECTOR3@@PAVioPlayStage@@@Z ; ioFlameWeapon::SetStartPosition
PUBLIC	?Process@ioFlameWeapon@@UAEXMPAVioPlayStage@@@Z	; ioFlameWeapon::Process
PUBLIC	?IsCollision@ioFlameWeapon@@UAE_NPAVioPlayEntity@@_N@Z ; ioFlameWeapon::IsCollision
PUBLIC	?CheckPreCollision@ioFlameWeapon@@UAEXPAVioPlayEntity@@PAVioPlayStage@@@Z ; ioFlameWeapon::CheckPreCollision
PUBLIC	?GetLocalAttackBox@ioFlameWeapon@@UBEABVioOrientBox@@XZ ; ioFlameWeapon::GetLocalAttackBox
PUBLIC	?GetType@ioFlameWeapon@@UBE?AW4WeaponType@ioWeapon@@XZ ; ioFlameWeapon::GetType
PUBLIC	?GetActionStopType@ioFlameWeapon@@UBE?AW4ActionStopType@@XZ ; ioFlameWeapon::GetActionStopType
PUBLIC	?GetDieActionStopType@ioFlameWeapon@@UBE?AW4ActionStopType@@XZ ; ioFlameWeapon::GetDieActionStopType
PUBLIC	?UpdateWorldAttackBox@ioFlameWeapon@@MAEXM_N@Z	; ioFlameWeapon::UpdateWorldAttackBox
EXTRN	??1ioWeapon@@UAE@XZ:PROC			; ioWeapon::~ioWeapon
EXTRN	__imp_??1ioOrientBox@@QAE@XZ:PROC
EXTRN	__imp_??1ioHashString@@QAE@XZ:PROC
EXTRN	__imp_?PrintTimeAndLog@CLog@@QAAXHPADZZ:PROC
EXTRN	__imp_?LOG@@3VCLog@@A:BYTE
EXTRN	___CxxFrameHandler3:PROC
EXTRN	@__security_check_cookie@4:PROC
EXTRN	__EH_epilog3:PROC
EXTRN	__EH_prolog3:PROC
EXTRN	??_7type_info@@6B@:QWORD			; type_info::`vftable'
EXTRN	?IsAlreadyCollisioned@ioWeapon@@UAE_NPAVioPlayEntity@@@Z:PROC ; ioWeapon::IsAlreadyCollisioned
EXTRN	?AddCollisionEntity@ioWeapon@@UAEXPAVioPlayEntity@@@Z:PROC ; ioWeapon::AddCollisionEntity
EXTRN	?SetOwnerDamageRate@ioWeapon@@UAEXM@Z:PROC	; ioWeapon::SetOwnerDamageRate
EXTRN	?SetOwnerChargeDamageRate@ioWeapon@@UAEXM@Z:PROC ; ioWeapon::SetOwnerChargeDamageRate
EXTRN	?SetOwnerChargeForceRate@ioWeapon@@UAEXM@Z:PROC	; ioWeapon::SetOwnerChargeForceRate
EXTRN	?SetOwnerChargeRangeRate@ioWeapon@@UAEXM@Z:PROC	; ioWeapon::SetOwnerChargeRangeRate
EXTRN	?SetOwnerChargeSpeedRate@ioWeapon@@UAEXM@Z:PROC	; ioWeapon::SetOwnerChargeSpeedRate
EXTRN	?SetOwnerChargeBlowRate@ioWeapon@@UAEXM@Z:PROC	; ioWeapon::SetOwnerChargeBlowRate
EXTRN	?SetOwnerChargeFloatRate@ioWeapon@@UAEXM@Z:PROC	; ioWeapon::SetOwnerChargeFloatRate
EXTRN	?SetOwnerChargeScaleRate@ioWeapon@@UAEXM@Z:PROC	; ioWeapon::SetOwnerChargeScaleRate
EXTRN	?SetOwnerChargeExplosionRate@ioWeapon@@UAEXM@Z:PROC ; ioWeapon::SetOwnerChargeExplosionRate
EXTRN	?SetOwnerChargeWoundedTimeRate@ioWeapon@@UAEXM@Z:PROC ; ioWeapon::SetOwnerChargeWoundedTimeRate
EXTRN	?SetOwnerChargeLiveTimeRate@ioWeapon@@UAEXM@Z:PROC ; ioWeapon::SetOwnerChargeLiveTimeRate
EXTRN	?SetOwnerChargeBuffLiveTimeRate@ioWeapon@@UAEXM@Z:PROC ; ioWeapon::SetOwnerChargeBuffLiveTimeRate
EXTRN	?SetWeaponIndex@ioWeapon@@UAEXK@Z:PROC		; ioWeapon::SetWeaponIndex
EXTRN	?SetGrapplingTargetName@ioWeapon@@UAEXABVioHashString@@@Z:PROC ; ioWeapon::SetGrapplingTargetName
EXTRN	?SetCreateItem@ioWeapon@@UAEXABVioHashString@@@Z:PROC ; ioWeapon::SetCreateItem
EXTRN	?SetTeam@ioWeapon@@UAEXPAVioPlayStage@@W4TeamType@@@Z:PROC ; ioWeapon::SetTeam
EXTRN	?CallReserveAreaWeapon@ioWeapon@@UAEXXZ:PROC	; ioWeapon::CallReserveAreaWeapon
EXTRN	?PlayExplosionSound@ioWeapon@@UAEXXZ:PROC	; ioWeapon::PlayExplosionSound
EXTRN	?PlayWoundedSound@ioWeapon@@UAEXPAVioPlayEntity@@@Z:PROC ; ioWeapon::PlayWoundedSound
EXTRN	?PlayDefensedSound@ioWeapon@@UAEXPAVioPlayEntity@@@Z:PROC ; ioWeapon::PlayDefensedSound
EXTRN	?PlayLoopSound@ioWeapon@@UAEXXZ:PROC		; ioWeapon::PlayLoopSound
EXTRN	?StopLoopSound@ioWeapon@@UAEXXZ:PROC		; ioWeapon::StopLoopSound
EXTRN	?GetTargetAirBuffList@ioWeapon@@UBEABV?$vector@UBuffInfoStruct@@V?$allocator@UBuffInfoStruct@@@std@@@std@@XZ:PROC ; ioWeapon::GetTargetAirBuffList
EXTRN	?GetTargetBuffList@ioWeapon@@UBEABV?$vector@UBuffInfoStruct@@V?$allocator@UBuffInfoStruct@@@std@@@std@@XZ:PROC ; ioWeapon::GetTargetBuffList
EXTRN	?GetTargetDownBuffList@ioWeapon@@UBEABV?$vector@UBuffInfoStruct@@V?$allocator@UBuffInfoStruct@@@std@@@std@@XZ:PROC ; ioWeapon::GetTargetDownBuffList
EXTRN	?GetPosition@ioWeapon@@UBEABUD3DXVECTOR3@@XZ:PROC ; ioWeapon::GetPosition
EXTRN	?GetBlowType@ioWeapon@@UBE?AW4BlowTargetType@@XZ:PROC ; ioWeapon::GetBlowType
EXTRN	?GetPushPower@ioWeapon@@UBEMM@Z:PROC		; ioWeapon::GetPushPower
EXTRN	?GetBlowPower@ioWeapon@@UBEMM@Z:PROC		; ioWeapon::GetBlowPower
EXTRN	?GetAirPushPower@ioWeapon@@UBEMM@Z:PROC		; ioWeapon::GetAirPushPower
EXTRN	?GetAirBlowPower@ioWeapon@@UBEMM@Z:PROC		; ioWeapon::GetAirBlowPower
EXTRN	?GetDefensePushPower@ioWeapon@@UBEMM@Z:PROC	; ioWeapon::GetDefensePushPower
EXTRN	?SetSylphid@ioWeapon@@UAEHXZ:PROC		; ioWeapon::SetSylphid
EXTRN	?ApplyExtraReserveWeaponByWeaponInfo@ioWeapon@@UAEXPAV1@@Z:PROC ; ioWeapon::ApplyExtraReserveWeaponByWeaponInfo
EXTRN	?SetResistanceAttr@ioWeapon@@UAEXH@Z:PROC	; ioWeapon::SetResistanceAttr
EXTRN	?SetStartCollisionBox@ioWeapon@@UAEXXZ:PROC	; ioWeapon::SetStartCollisionBox
EXTRN	?SetLiveTime@ioWeapon@@UAEXK@Z:PROC		; ioWeapon::SetLiveTime
EXTRN	?SetMoveDir@ioWeapon@@UAEXABUD3DXVECTOR3@@@Z:PROC ; ioWeapon::SetMoveDir
EXTRN	?SetMoveSpeed@ioWeapon@@UAEXM@Z:PROC		; ioWeapon::SetMoveSpeed
EXTRN	?SetFloatPower@ioWeapon@@UAEXM@Z:PROC		; ioWeapon::SetFloatPower
EXTRN	?TestMapCollision@ioWeapon@@UAE_NPAVioOpcodeShape@@PAVioPlayStage@@PBUD3DXMATRIX@@@Z:PROC ; ioWeapon::TestMapCollision
EXTRN	?CheckStructAndDummy@ioWeapon@@UAEXPAVioPlayEntity@@PAVioPlayStage@@@Z:PROC ; ioWeapon::CheckStructAndDummy
EXTRN	?GetDamage@ioWeapon@@UAEMPAVioPlayEntity@@@Z:PROC ; ioWeapon::GetDamage
EXTRN	?GetBaseDamage@ioWeapon@@UAEMPAVioPlayEntity@@@Z:PROC ; ioWeapon::GetBaseDamage
EXTRN	?GetPushAngle@ioWeapon@@UBEMXZ:PROC		; ioWeapon::GetPushAngle
EXTRN	?IsResistanceMagic@ioWeapon@@UAEHPAVioBaseChar@@@Z:PROC ; ioWeapon::IsResistanceMagic
EXTRN	?IsResistanceBomb@ioWeapon@@UAEHPAVioBaseChar@@@Z:PROC ; ioWeapon::IsResistanceBomb
EXTRN	?IsCanMineExplosion@ioWeapon@@UAE_NXZ:PROC	; ioWeapon::IsCanMineExplosion
EXTRN	?CheckGrapplingState@ioWeapon@@UAE?AW4GrapplingType@@XZ:PROC ; ioWeapon::CheckGrapplingState
EXTRN	?CheckCurAttribute@ioWeapon@@UAEXPBVioPlayEntity@@@Z:PROC ; ioWeapon::CheckCurAttribute
EXTRN	?CheckItemNotDrop@ioWeapon@@UAE_NPAVioBaseChar@@@Z:PROC ; ioWeapon::CheckItemNotDrop
EXTRN	?GetWorldAttackBoxList@ioWeapon@@UAEXAAV?$vector@VioOrientBox@@V?$allocator@VioOrientBox@@@std@@@std@@@Z:PROC ; ioWeapon::GetWorldAttackBoxList
EXTRN	?GetAttackDir@ioWeapon@@UBE?AUD3DXVECTOR3@@PBVioPlayEntity@@@Z:PROC ; ioWeapon::GetAttackDir
EXTRN	?GetLiveTime@ioWeapon@@UAEKXZ:PROC		; ioWeapon::GetLiveTime
EXTRN	?GetMoveDir@ioWeapon@@UAE?AUD3DXVECTOR3@@XZ:PROC ; ioWeapon::GetMoveDir
EXTRN	?CheckWeaponCollision@ioWeapon@@UAEXXZ:PROC	; ioWeapon::CheckWeaponCollision
EXTRN	?GetRefreshDuration@ioWeapon@@UAEKXZ:PROC	; ioWeapon::GetRefreshDuration
EXTRN	?GetIgnoreDuration@ioWeapon@@UAEKXZ:PROC	; ioWeapon::GetIgnoreDuration
EXTRN	?GetIgnoreTimeTypeDuration@ioWeapon@@UAEKXZ:PROC ; ioWeapon::GetIgnoreTimeTypeDuration
EXTRN	?GetIgnoreTimeType@ioWeapon@@UAEKXZ:PROC	; ioWeapon::GetIgnoreTimeType
EXTRN	?ApplyWeaponSync@ioWeapon@@UAEXAAVSP2Packet@@PAVioPlayStage@@@Z:PROC ; ioWeapon::ApplyWeaponSync
EXTRN	?IsSkillDependency@ioWeapon@@UAE_NABVioHashString@@@Z:PROC ; ioWeapon::IsSkillDependency
EXTRN	?SetSkillDependencyAction@ioWeapon@@UAEXXZ:PROC	; ioWeapon::SetSkillDependencyAction
EXTRN	?GetAttribute@ioWeapon@@MBEPBUWeaponAttribute@@XZ:PROC ; ioWeapon::GetAttribute
EXTRN	?CalcFinalDamage@ioWeapon@@MAEMXZ:PROC		; ioWeapon::CalcFinalDamage
EXTRN	?CalcFinalBoundDamage@ioWeapon@@MAEMXZ:PROC	; ioWeapon::CalcFinalBoundDamage
EXTRN	?CheckPiercing@ioWeapon@@MAE_N_N@Z:PROC		; ioWeapon::CheckPiercing
EXTRN	?ClearCollisionList@ioWeapon@@MAEXXZ:PROC	; ioWeapon::ClearCollisionList
EXTRN	?CheckCreateWeaponList@ioWeapon@@MAEXXZ:PROC	; ioWeapon::CheckCreateWeaponList
EXTRN	?CreateCollisionAreaWeapon@ioWeapon@@MAEXXZ:PROC ; ioWeapon::CreateCollisionAreaWeapon
EXTRN	?SetMapCollision@ioWeapon@@UAEXXZ:PROC		; ioWeapon::SetMapCollision
EXTRN	?IsIgnoreMapCollision@ioWeapon@@UBE_NXZ:PROC	; ioWeapon::IsIgnoreMapCollision
EXTRN	?IsIgnoreTestMapCollision@ioWeapon@@UBE_NXZ:PROC ; ioWeapon::IsIgnoreTestMapCollision
EXTRN	?IsIgnoreMapCollisionEffect@ioWeapon@@UBE_NXZ:PROC ; ioWeapon::IsIgnoreMapCollisionEffect
EXTRN	?AddEffectEvent@ioWeapon@@MAEXPAVioEffect@@@Z:PROC ; ioWeapon::AddEffectEvent
EXTRN	??_EioFlameWeapon@@UAEPAXI@Z:PROC		; ioFlameWeapon::`vector deleting destructor'
;	COMDAT ??_R2ioWeapon@@8
; File d:\lost saga for developer\youtube\tutorial\source\src\lsclient\ioflameweapon.cpp
rdata$r	SEGMENT
??_R2ioWeapon@@8 DD FLAT:??_R1A@?0A@EA@ioWeapon@@8	; ioWeapon::`RTTI Base Class Array'
rdata$r	ENDS
;	COMDAT ??_R3ioWeapon@@8
rdata$r	SEGMENT
??_R3ioWeapon@@8 DD 00H					; ioWeapon::`RTTI Class Hierarchy Descriptor'
	DD	00H
	DD	01H
	DD	FLAT:??_R2ioWeapon@@8
rdata$r	ENDS
;	COMDAT ??_R0?AVioWeapon@@@8
_DATA	SEGMENT
??_R0?AVioWeapon@@@8 DD FLAT:??_7type_info@@6B@		; ioWeapon `RTTI Type Descriptor'
	DD	00H
	DB	'.?AVioWeapon@@', 00H
_DATA	ENDS
;	COMDAT ??_R1A@?0A@EA@ioWeapon@@8
rdata$r	SEGMENT
??_R1A@?0A@EA@ioWeapon@@8 DD FLAT:??_R0?AVioWeapon@@@8	; ioWeapon::`RTTI Base Class Descriptor at (0,-1,0,64)'
	DD	00H
	DD	00H
	DD	0ffffffffH
	DD	00H
	DD	040H
	DD	FLAT:??_R3ioWeapon@@8
rdata$r	ENDS
;	COMDAT ??_R1A@?0A@EA@ioFlameWeapon@@8
rdata$r	SEGMENT
??_R1A@?0A@EA@ioFlameWeapon@@8 DD FLAT:??_R0?AVioFlameWeapon@@@8 ; ioFlameWeapon::`RTTI Base Class Descriptor at (0,-1,0,64)'
	DD	01H
	DD	00H
	DD	0ffffffffH
	DD	00H
	DD	040H
	DD	FLAT:??_R3ioFlameWeapon@@8
rdata$r	ENDS
;	COMDAT ??_R2ioFlameWeapon@@8
rdata$r	SEGMENT
??_R2ioFlameWeapon@@8 DD FLAT:??_R1A@?0A@EA@ioFlameWeapon@@8 ; ioFlameWeapon::`RTTI Base Class Array'
	DD	FLAT:??_R1A@?0A@EA@ioWeapon@@8
rdata$r	ENDS
;	COMDAT ??_R3ioFlameWeapon@@8
rdata$r	SEGMENT
??_R3ioFlameWeapon@@8 DD 00H				; ioFlameWeapon::`RTTI Class Hierarchy Descriptor'
	DD	00H
	DD	02H
	DD	FLAT:??_R2ioFlameWeapon@@8
rdata$r	ENDS
;	COMDAT ??_R0?AVioFlameWeapon@@@8
_DATA	SEGMENT
??_R0?AVioFlameWeapon@@@8 DD FLAT:??_7type_info@@6B@	; ioFlameWeapon `RTTI Type Descriptor'
	DD	00H
	DB	'.?AVioFlameWeapon@@', 00H
_DATA	ENDS
;	COMDAT ??_R4ioFlameWeapon@@6B@
rdata$r	SEGMENT
??_R4ioFlameWeapon@@6B@ DD 00H				; ioFlameWeapon::`RTTI Complete Object Locator'
	DD	00H
	DD	00H
	DD	FLAT:??_R0?AVioFlameWeapon@@@8
	DD	FLAT:??_R3ioFlameWeapon@@8
rdata$r	ENDS
;	COMDAT ??_C@_0DI@DPLNAFDJ@ioNuclearWeapon?3?3?$HOioNuclearWeapo@
CONST	SEGMENT
??_C@_0DI@DPLNAFDJ@ioNuclearWeapon?3?3?$HOioNuclearWeapo@ DB 'ioNuclearWe'
	DB	'apon::~ioNuclearWeapon - UnReleased Resource', 00H ; `string'
CONST	ENDS
;	COMDAT ??_7ioFlameWeapon@@6B@
CONST	SEGMENT
??_7ioFlameWeapon@@6B@ DD FLAT:??_R4ioFlameWeapon@@6B@	; ioFlameWeapon::`vftable'
	DD	FLAT:?IsAlreadyCollisioned@ioWeapon@@UAE_NPAVioPlayEntity@@@Z
	DD	FLAT:?AddCollisionEntity@ioWeapon@@UAEXPAVioPlayEntity@@@Z
	DD	FLAT:?SetOwnerDamageRate@ioWeapon@@UAEXM@Z
	DD	FLAT:?SetOwnerChargeDamageRate@ioWeapon@@UAEXM@Z
	DD	FLAT:?SetOwnerChargeForceRate@ioWeapon@@UAEXM@Z
	DD	FLAT:?SetOwnerChargeRangeRate@ioWeapon@@UAEXM@Z
	DD	FLAT:?SetOwnerChargeSpeedRate@ioWeapon@@UAEXM@Z
	DD	FLAT:?SetOwnerChargeBlowRate@ioWeapon@@UAEXM@Z
	DD	FLAT:?SetOwnerChargeFloatRate@ioWeapon@@UAEXM@Z
	DD	FLAT:?SetOwnerChargeScaleRate@ioWeapon@@UAEXM@Z
	DD	FLAT:?SetOwnerChargeExplosionRate@ioWeapon@@UAEXM@Z
	DD	FLAT:?SetOwnerChargeWoundedTimeRate@ioWeapon@@UAEXM@Z
	DD	FLAT:?SetOwnerChargeLiveTimeRate@ioWeapon@@UAEXM@Z
	DD	FLAT:?SetOwnerChargeBuffLiveTimeRate@ioWeapon@@UAEXM@Z
	DD	FLAT:?SetWeaponIndex@ioWeapon@@UAEXK@Z
	DD	FLAT:?SetGrapplingTargetName@ioWeapon@@UAEXABVioHashString@@@Z
	DD	FLAT:?SetCreateItem@ioWeapon@@UAEXABVioHashString@@@Z
	DD	FLAT:?SetTeam@ioWeapon@@UAEXPAVioPlayStage@@W4TeamType@@@Z
	DD	FLAT:?CallReserveAreaWeapon@ioWeapon@@UAEXXZ
	DD	FLAT:?SetWeaponDead@ioFlameWeapon@@UAEXXZ
	DD	FLAT:?PlayExplosionSound@ioWeapon@@UAEXXZ
	DD	FLAT:?PlayWoundedSound@ioWeapon@@UAEXPAVioPlayEntity@@@Z
	DD	FLAT:?PlayDefensedSound@ioWeapon@@UAEXPAVioPlayEntity@@@Z
	DD	FLAT:?PlayLoopSound@ioWeapon@@UAEXXZ
	DD	FLAT:?StopLoopSound@ioWeapon@@UAEXXZ
	DD	FLAT:?GetTargetAirBuffList@ioWeapon@@UBEABV?$vector@UBuffInfoStruct@@V?$allocator@UBuffInfoStruct@@@std@@@std@@XZ
	DD	FLAT:?GetTargetBuffList@ioWeapon@@UBEABV?$vector@UBuffInfoStruct@@V?$allocator@UBuffInfoStruct@@@std@@@std@@XZ
	DD	FLAT:?GetTargetDownBuffList@ioWeapon@@UBEABV?$vector@UBuffInfoStruct@@V?$allocator@UBuffInfoStruct@@@std@@@std@@XZ
	DD	FLAT:?GetPosition@ioWeapon@@UBEABUD3DXVECTOR3@@XZ
	DD	FLAT:?GetBlowType@ioWeapon@@UBE?AW4BlowTargetType@@XZ
	DD	FLAT:?GetPushPower@ioWeapon@@UBEMM@Z
	DD	FLAT:?GetBlowPower@ioWeapon@@UBEMM@Z
	DD	FLAT:?GetAirPushPower@ioWeapon@@UBEMM@Z
	DD	FLAT:?GetAirBlowPower@ioWeapon@@UBEMM@Z
	DD	FLAT:?GetDefensePushPower@ioWeapon@@UBEMM@Z
	DD	FLAT:?GetCollisionEnableTime@ioFlameWeapon@@UBEKXZ
	DD	FLAT:?SetSylphid@ioWeapon@@UAEHXZ
	DD	FLAT:?ApplyExtraReserveWeaponByWeaponInfo@ioWeapon@@UAEXPAV1@@Z
	DD	FLAT:?InitResource@ioFlameWeapon@@UAE_NXZ
	DD	FLAT:?DestroyResource@ioFlameWeapon@@UAEXPAVioPlayStage@@@Z
	DD	FLAT:?LoadProperty@ioFlameWeapon@@UAEXAAVioINILoader@@@Z
	DD	FLAT:?SetResistanceAttr@ioWeapon@@UAEXH@Z
	DD	FLAT:?SetStartCollisionBox@ioWeapon@@UAEXXZ
	DD	FLAT:?SetLiveTime@ioWeapon@@UAEXK@Z
	DD	FLAT:?SetMoveDir@ioWeapon@@UAEXABUD3DXVECTOR3@@@Z
	DD	FLAT:?SetMoveSpeed@ioWeapon@@UAEXM@Z
	DD	FLAT:?SetFloatPower@ioWeapon@@UAEXM@Z
	DD	FLAT:?SetStartPosition@ioFlameWeapon@@UAEXABUD3DXVECTOR3@@PAVioPlayStage@@@Z
	DD	FLAT:?Process@ioFlameWeapon@@UAEXMPAVioPlayStage@@@Z
	DD	FLAT:?IsCollision@ioFlameWeapon@@UAE_NPAVioPlayEntity@@_N@Z
	DD	FLAT:?TestMapCollision@ioWeapon@@UAE_NPAVioOpcodeShape@@PAVioPlayStage@@PBUD3DXMATRIX@@@Z
	DD	FLAT:?CheckPreCollision@ioFlameWeapon@@UAEXPAVioPlayEntity@@PAVioPlayStage@@@Z
	DD	FLAT:?CheckStructAndDummy@ioWeapon@@UAEXPAVioPlayEntity@@PAVioPlayStage@@@Z
	DD	FLAT:?GetDamage@ioWeapon@@UAEMPAVioPlayEntity@@@Z
	DD	FLAT:?GetBaseDamage@ioWeapon@@UAEMPAVioPlayEntity@@@Z
	DD	FLAT:?GetPushAngle@ioWeapon@@UBEMXZ
	DD	FLAT:?IsResistanceMagic@ioWeapon@@UAEHPAVioBaseChar@@@Z
	DD	FLAT:?IsResistanceBomb@ioWeapon@@UAEHPAVioBaseChar@@@Z
	DD	FLAT:?IsCanMineExplosion@ioWeapon@@UAE_NXZ
	DD	FLAT:?CheckGrapplingState@ioWeapon@@UAE?AW4GrapplingType@@XZ
	DD	FLAT:?CheckCurAttribute@ioWeapon@@UAEXPBVioPlayEntity@@@Z
	DD	FLAT:?CheckItemNotDrop@ioWeapon@@UAE_NPAVioBaseChar@@@Z
	DD	FLAT:?GetWorldAttackBoxList@ioWeapon@@UAEXAAV?$vector@VioOrientBox@@V?$allocator@VioOrientBox@@@std@@@std@@@Z
	DD	FLAT:?GetAttackDir@ioWeapon@@UBE?AUD3DXVECTOR3@@PBVioPlayEntity@@@Z
	DD	FLAT:?GetLocalAttackBox@ioFlameWeapon@@UBEABVioOrientBox@@XZ
	DD	FLAT:?GetLiveTime@ioWeapon@@UAEKXZ
	DD	FLAT:?GetMoveDir@ioWeapon@@UAE?AUD3DXVECTOR3@@XZ
	DD	FLAT:?CheckWeaponCollision@ioWeapon@@UAEXXZ
	DD	FLAT:?GetType@ioFlameWeapon@@UBE?AW4WeaponType@ioWeapon@@XZ
	DD	FLAT:?GetActionStopType@ioFlameWeapon@@UBE?AW4ActionStopType@@XZ
	DD	FLAT:?GetDieActionStopType@ioFlameWeapon@@UBE?AW4ActionStopType@@XZ
	DD	FLAT:?GetRefreshDuration@ioWeapon@@UAEKXZ
	DD	FLAT:?GetIgnoreDuration@ioWeapon@@UAEKXZ
	DD	FLAT:?GetIgnoreTimeTypeDuration@ioWeapon@@UAEKXZ
	DD	FLAT:?GetIgnoreTimeType@ioWeapon@@UAEKXZ
	DD	FLAT:?ApplyWeaponSync@ioWeapon@@UAEXAAVSP2Packet@@PAVioPlayStage@@@Z
	DD	FLAT:?IsSkillDependency@ioWeapon@@UAE_NABVioHashString@@@Z
	DD	FLAT:?SetSkillDependencyAction@ioWeapon@@UAEXXZ
	DD	FLAT:?UpdateWorldAttackBox@ioFlameWeapon@@MAEXM_N@Z
	DD	FLAT:?GetAttribute@ioWeapon@@MBEPBUWeaponAttribute@@XZ
	DD	FLAT:?CalcFinalDamage@ioWeapon@@MAEMXZ
	DD	FLAT:?CalcFinalBoundDamage@ioWeapon@@MAEMXZ
	DD	FLAT:?CheckPiercing@ioWeapon@@MAE_N_N@Z
	DD	FLAT:?ClearCollisionList@ioWeapon@@MAEXXZ
	DD	FLAT:?CheckCreateWeaponList@ioWeapon@@MAEXXZ
	DD	FLAT:?CreateCollisionAreaWeapon@ioWeapon@@MAEXXZ
	DD	FLAT:?SetMapCollision@ioWeapon@@UAEXXZ
	DD	FLAT:?IsIgnoreMapCollision@ioWeapon@@UBE_NXZ
	DD	FLAT:?IsIgnoreTestMapCollision@ioWeapon@@UBE_NXZ
	DD	FLAT:?IsIgnoreMapCollisionEffect@ioWeapon@@UBE_NXZ
	DD	FLAT:?AddEffectEvent@ioWeapon@@MAEXPAVioEffect@@@Z
	DD	FLAT:??_EioFlameWeapon@@UAEPAXI@Z
CONST	ENDS
;	COMDAT xdata$x
xdata$x	SEGMENT
__ehfuncinfo$??1ioFlameWeapon@@UAE@XZ DD 019930522H
	DD	05H
	DD	FLAT:__unwindtable$??1ioFlameWeapon@@UAE@XZ
	DD	2 DUP(00H)
	DD	2 DUP(00H)
	DD	00H
	DD	01H
__unwindtable$??1ioFlameWeapon@@UAE@XZ DD 0ffffffffH
	DD	FLAT:__unwindfunclet$??1ioFlameWeapon@@UAE@XZ$0
	DD	00H
	DD	FLAT:__unwindfunclet$??1ioFlameWeapon@@UAE@XZ$1
	DD	01H
	DD	FLAT:__unwindfunclet$??1ioFlameWeapon@@UAE@XZ$2
	DD	02H
	DD	FLAT:__unwindfunclet$??1ioFlameWeapon@@UAE@XZ$3
	DD	03H
	DD	FLAT:__unwindfunclet$??1ioFlameWeapon@@UAE@XZ$4
; Function compile flags: /Ogsp
xdata$x	ENDS
;	COMDAT ??1ioFlameWeapon@@UAE@XZ
_TEXT	SEGMENT
_this$ = -16						; size = 4
__$EHRec$ = -12						; size = 12
??1ioFlameWeapon@@UAE@XZ PROC				; ioFlameWeapon::~ioFlameWeapon, COMDAT
; _this$ = ecx

; 31   : {

  00000	6a 04		 push	 4
  00002	b8 00 00 00 00	 mov	 eax, __ehhandler$??1ioFlameWeapon@@UAE@XZ
  00007	e8 00 00 00 00	 call	 __EH_prolog3
  0000c	8b f1		 mov	 esi, ecx
  0000e	89 75 f0	 mov	 DWORD PTR _this$[ebp], esi
  00011	c7 06 00 00 00
	00		 mov	 DWORD PTR [esi], OFFSET ??_7ioFlameWeapon@@6B@

; 32   : 	if( m_pMeteor )

  00017	83 be 98 08 00
	00 00		 cmp	 DWORD PTR [esi+2200], 0
  0001e	c7 45 fc 04 00
	00 00		 mov	 DWORD PTR __$EHRec$[ebp+8], 4
  00025	74 16		 je	 SHORT $LN1@ioFlameWea

; 33   : 	{
; 34   : 		LOG.PrintTimeAndLog( 0, "ioNuclearWeapon::~ioNuclearWeapon - UnReleased Resource" );

  00027	68 00 00 00 00	 push	 OFFSET ??_C@_0DI@DPLNAFDJ@ioNuclearWeapon?3?3?$HOioNuclearWeapo@
  0002c	6a 00		 push	 0
  0002e	ff 35 00 00 00
	00		 push	 DWORD PTR __imp_?LOG@@3VCLog@@A
  00034	ff 15 00 00 00
	00		 call	 DWORD PTR __imp_?PrintTimeAndLog@CLog@@QAAXHPADZZ
  0003a	83 c4 0c	 add	 esp, 12			; 0000000cH
$LN1@ioFlameWea:

; 35   : 	}
; 36   : }

  0003d	8b 3d 00 00 00
	00		 mov	 edi, DWORD PTR __imp_??1ioHashString@@QAE@XZ
  00043	8d 8e 14 09 00
	00		 lea	 ecx, DWORD PTR [esi+2324]
  00049	c6 45 fc 03	 mov	 BYTE PTR __$EHRec$[ebp+8], 3
  0004d	ff d7		 call	 edi
  0004f	8d 8e 04 09 00
	00		 lea	 ecx, DWORD PTR [esi+2308]
  00055	c6 45 fc 02	 mov	 BYTE PTR __$EHRec$[ebp+8], 2
  00059	ff d7		 call	 edi
  0005b	8d 8e ac 08 00
	00		 lea	 ecx, DWORD PTR [esi+2220]
  00061	c6 45 fc 01	 mov	 BYTE PTR __$EHRec$[ebp+8], 1
  00065	ff 15 00 00 00
	00		 call	 DWORD PTR __imp_??1ioOrientBox@@QAE@XZ
  0006b	8d 8e 9c 08 00
	00		 lea	 ecx, DWORD PTR [esi+2204]
  00071	c6 45 fc 00	 mov	 BYTE PTR __$EHRec$[ebp+8], 0
  00075	ff d7		 call	 edi
  00077	83 4d fc ff	 or	 DWORD PTR __$EHRec$[ebp+8], -1
  0007b	8b ce		 mov	 ecx, esi
  0007d	e8 00 00 00 00	 call	 ??1ioWeapon@@UAE@XZ	; ioWeapon::~ioWeapon
  00082	e8 00 00 00 00	 call	 __EH_epilog3
  00087	c3		 ret	 0
_TEXT	ENDS
;	COMDAT text$x
text$x	SEGMENT
__unwindfunclet$??1ioFlameWeapon@@UAE@XZ$0:
  00000	8b 4d f0	 mov	 ecx, DWORD PTR _this$[ebp]
  00003	e9 00 00 00 00	 jmp	 ??1ioWeapon@@UAE@XZ	; ioWeapon::~ioWeapon
__unwindfunclet$??1ioFlameWeapon@@UAE@XZ$1:
  00008	8b 4d f0	 mov	 ecx, DWORD PTR _this$[ebp]
  0000b	81 c1 9c 08 00
	00		 add	 ecx, 2204		; 0000089cH
  00011	ff 25 00 00 00
	00		 jmp	 DWORD PTR __imp_??1ioHashString@@QAE@XZ
__unwindfunclet$??1ioFlameWeapon@@UAE@XZ$2:
  00017	8b 4d f0	 mov	 ecx, DWORD PTR _this$[ebp]
  0001a	81 c1 ac 08 00
	00		 add	 ecx, 2220		; 000008acH
  00020	ff 25 00 00 00
	00		 jmp	 DWORD PTR __imp_??1ioOrientBox@@QAE@XZ
__unwindfunclet$??1ioFlameWeapon@@UAE@XZ$3:
  00026	8b 4d f0	 mov	 ecx, DWORD PTR _this$[ebp]
  00029	81 c1 04 09 00
	00		 add	 ecx, 2308		; 00000904H
  0002f	ff 25 00 00 00
	00		 jmp	 DWORD PTR __imp_??1ioHashString@@QAE@XZ
__unwindfunclet$??1ioFlameWeapon@@UAE@XZ$4:
  00035	8b 4d f0	 mov	 ecx, DWORD PTR _this$[ebp]
  00038	81 c1 14 09 00
	00		 add	 ecx, 2324		; 00000914H
  0003e	ff 25 00 00 00
	00		 jmp	 DWORD PTR __imp_??1ioHashString@@QAE@XZ
__ehhandler$??1ioFlameWeapon@@UAE@XZ:
  00044	8b 54 24 08	 mov	 edx, DWORD PTR [esp+8]
  00048	8d 42 0c	 lea	 eax, DWORD PTR [edx+12]
  0004b	8b 4a ec	 mov	 ecx, DWORD PTR [edx-20]
  0004e	33 c8		 xor	 ecx, eax
  00050	e8 00 00 00 00	 call	 @__security_check_cookie@4
  00055	b8 00 00 00 00	 mov	 eax, OFFSET __ehfuncinfo$??1ioFlameWeapon@@UAE@XZ
  0005a	e9 00 00 00 00	 jmp	 ___CxxFrameHandler3
text$x	ENDS
??1ioFlameWeapon@@UAE@XZ ENDP				; ioFlameWeapon::~ioFlameWeapon
PUBLIC	?SetExplosionRange@ioFlameWeapon@@QAEXM@Z	; ioFlameWeapon::SetExplosionRange
EXTRN	__fltused:DWORD
; Function compile flags: /Ogsp
;	COMDAT ?SetExplosionRange@ioFlameWeapon@@QAEXM@Z
_TEXT	SEGMENT
_fRange$ = 8						; size = 4
?SetExplosionRange@ioFlameWeapon@@QAEXM@Z PROC		; ioFlameWeapon::SetExplosionRange, COMDAT
; _this$ = ecx

; 67   : {

  00000	55		 push	 ebp
  00001	8b ec		 mov	 ebp, esp

; 68   : 	m_fExplosionRange = fRange;

  00003	f3 0f 10 45 08	 movss	 xmm0, DWORD PTR _fRange$[ebp]
  00008	f3 0f 11 81 fc
	08 00 00	 movss	 DWORD PTR [ecx+2300], xmm0

; 69   : }

  00010	5d		 pop	 ebp
  00011	c2 04 00	 ret	 4
?SetExplosionRange@ioFlameWeapon@@QAEXM@Z ENDP		; ioFlameWeapon::SetExplosionRange
_TEXT	ENDS
PUBLIC	?Explosion@ioFlameWeapon@@QAEXPAVioPlayStage@@@Z ; ioFlameWeapon::Explosion
EXTRN	?CreateMapEffect@ioPlayStage@@QAEPAVioMapEffect@@ABVioHashString@@ABUD3DXVECTOR3@@1@Z:PROC ; ioPlayStage::CreateMapEffect
EXTRN	?GetScale@ioWeapon@@QBEABUD3DXVECTOR3@@XZ:PROC	; ioWeapon::GetScale
EXTRN	__imp_?IsEmpty@ioHashString@@QBE_NXZ:PROC
EXTRN	__imp_?SetExtents@ioOrientBox@@QAEXHM@Z:PROC
; Function compile flags: /Ogsp
;	COMDAT ?Explosion@ioFlameWeapon@@QAEXPAVioPlayStage@@@Z
_TEXT	SEGMENT
_fHalfRange$ = -4					; size = 4
_pStage$ = 8						; size = 4
?Explosion@ioFlameWeapon@@QAEXPAVioPlayStage@@@Z PROC	; ioFlameWeapon::Explosion, COMDAT
; _this$ = ecx

; 135  : {

  00000	55		 push	 ebp
  00001	8b ec		 mov	 ebp, esp
  00003	51		 push	 ecx
  00004	56		 push	 esi
  00005	8b f1		 mov	 esi, ecx

; 136  : 	if( m_FlameState == FS_EXPLOSION )

  00007	33 c9		 xor	 ecx, ecx
  00009	41		 inc	 ecx
  0000a	39 8e 94 08 00
	00		 cmp	 DWORD PTR [esi+2196], ecx
  00010	0f 84 a4 00 00
	00		 je	 $LN1@Explosion

; 137  : 		return;
; 138  : 
; 139  : 	m_FlameState = FS_EXPLOSION;
; 140  : 
; 141  : 	float fHalfRange = m_fExplosionRange;

  00016	f3 0f 10 86 fc
	08 00 00	 movss	 xmm0, DWORD PTR [esi+2300]
  0001e	53		 push	 ebx
  0001f	57		 push	 edi

; 142  : 
; 143  : 	m_LocalAttackBox.SetExtents( 0, fHalfRange );

  00020	8b 3d 00 00 00
	00		 mov	 edi, DWORD PTR __imp_?SetExtents@ioOrientBox@@QAEXHM@Z
  00026	51		 push	 ecx
  00027	89 8e 94 08 00
	00		 mov	 DWORD PTR [esi+2196], ecx
  0002d	f3 0f 11 04 24	 movss	 DWORD PTR [esp], xmm0
  00032	6a 00		 push	 0
  00034	8d 8e ac 08 00
	00		 lea	 ecx, DWORD PTR [esi+2220]
  0003a	f3 0f 11 45 fc	 movss	 DWORD PTR _fHalfRange$[ebp], xmm0
  0003f	ff d7		 call	 edi

; 144  : 	m_LocalAttackBox.SetExtents( 1, fHalfRange );

  00041	f3 0f 10 45 fc	 movss	 xmm0, DWORD PTR _fHalfRange$[ebp]
  00046	51		 push	 ecx
  00047	f3 0f 11 04 24	 movss	 DWORD PTR [esp], xmm0
  0004c	6a 01		 push	 1
  0004e	8d 8e ac 08 00
	00		 lea	 ecx, DWORD PTR [esi+2220]
  00054	ff d7		 call	 edi

; 145  : 	m_LocalAttackBox.SetExtents( 2, fHalfRange );

  00056	f3 0f 10 45 fc	 movss	 xmm0, DWORD PTR _fHalfRange$[ebp]
  0005b	51		 push	 ecx
  0005c	f3 0f 11 04 24	 movss	 DWORD PTR [esp], xmm0
  00061	6a 02		 push	 2
  00063	8d 8e ac 08 00
	00		 lea	 ecx, DWORD PTR [esi+2220]
  00069	ff d7		 call	 edi

; 146  : 	UpdateWorldAttackBox( 0.0f, false );

  0006b	0f 57 c0	 xorps	 xmm0, xmm0
  0006e	8b 06		 mov	 eax, DWORD PTR [esi]
  00070	6a 00		 push	 0
  00072	51		 push	 ecx
  00073	8b ce		 mov	 ecx, esi
  00075	f3 0f 11 04 24	 movss	 DWORD PTR [esp], xmm0
  0007a	ff 90 38 01 00
	00		 call	 DWORD PTR [eax+312]

; 147  : 	
; 148  : 	if( !m_BoomEffect.IsEmpty() && pStage )

  00080	8d be 9c 08 00
	00		 lea	 edi, DWORD PTR [esi+2204]
  00086	8b cf		 mov	 ecx, edi
  00088	ff 15 00 00 00
	00		 call	 DWORD PTR __imp_?IsEmpty@ioHashString@@QBE_NXZ
  0008e	84 c0		 test	 al, al
  00090	75 26		 jne	 SHORT $LN5@Explosion
  00092	83 7d 08 00	 cmp	 DWORD PTR _pStage$[ebp], 0
  00096	74 20		 je	 SHORT $LN5@Explosion

; 149  : 	{
; 150  : 		pStage->CreateMapEffect( m_BoomEffect,
; 151  : 								 GetPosition(),
; 152  : 								 GetScale() );

  00098	8b ce		 mov	 ecx, esi
  0009a	e8 00 00 00 00	 call	 ?GetScale@ioWeapon@@QBEABUD3DXVECTOR3@@XZ ; ioWeapon::GetScale
  0009f	50		 push	 eax
  000a0	8b 06		 mov	 eax, DWORD PTR [esi]
  000a2	8b ce		 mov	 ecx, esi
  000a4	ff 50 70	 call	 DWORD PTR [eax+112]
  000a7	8b 4d 08	 mov	 ecx, DWORD PTR _pStage$[ebp]
  000aa	50		 push	 eax
  000ab	57		 push	 edi
  000ac	e8 00 00 00 00	 call	 ?CreateMapEffect@ioPlayStage@@QAEPAVioMapEffect@@ABVioHashString@@ABUD3DXVECTOR3@@1@Z ; ioPlayStage::CreateMapEffect

; 153  : 
; 154  : 		ioWeapon::PlayExplosionSound();

  000b1	8b ce		 mov	 ecx, esi
  000b3	e8 00 00 00 00	 call	 ?PlayExplosionSound@ioWeapon@@UAEXXZ ; ioWeapon::PlayExplosionSound
$LN5@Explosion:
  000b8	5f		 pop	 edi
  000b9	5b		 pop	 ebx
$LN1@Explosion:
  000ba	5e		 pop	 esi

; 155  : 	}
; 156  : }

  000bb	c9		 leave
  000bc	c2 04 00	 ret	 4
?Explosion@ioFlameWeapon@@QAEXPAVioPlayStage@@@Z ENDP	; ioFlameWeapon::Explosion
_TEXT	ENDS
PUBLIC	?IsFalling@ioFlameWeapon@@QBE_NXZ		; ioFlameWeapon::IsFalling
; Function compile flags: /Ogsp
;	COMDAT ?IsFalling@ioFlameWeapon@@QBE_NXZ
_TEXT	SEGMENT
?IsFalling@ioFlameWeapon@@QBE_NXZ PROC			; ioFlameWeapon::IsFalling, COMDAT
; _this$ = ecx

; 160  : 	if( m_FlameState == FS_FALL )

  00000	83 b9 94 08 00
	00 00		 cmp	 DWORD PTR [ecx+2196], 0
  00007	0f 94 c0	 sete	 al

; 161  : 		return true;
; 162  : 
; 163  : 	return false;
; 164  : }

  0000a	c3		 ret	 0
?IsFalling@ioFlameWeapon@@QBE_NXZ ENDP			; ioFlameWeapon::IsFalling
_TEXT	ENDS
EXTRN	__imp_?DestroyEffect@ioEffectFactory@@QAEXPAVioEffect@@@Z:PROC
EXTRN	__imp_?GetSingleton@ioEffectFactory@@SAAAV1@XZ:PROC
; Function compile flags: /Ogsp
;	COMDAT ?DestroyResource@ioFlameWeapon@@UAEXPAVioPlayStage@@@Z
_TEXT	SEGMENT
_pStage$ = 8						; size = 4
?DestroyResource@ioFlameWeapon@@UAEXPAVioPlayStage@@@Z PROC ; ioFlameWeapon::DestroyResource, COMDAT
; _this$ = ecx

; 167  : {

  00000	56		 push	 esi

; 168  : 	if( m_pMeteor )

  00001	8d b1 98 08 00
	00		 lea	 esi, DWORD PTR [ecx+2200]
  00007	8b 06		 mov	 eax, DWORD PTR [esi]
  00009	85 c0		 test	 eax, eax
  0000b	74 12		 je	 SHORT $LN1@DestroyRes

; 169  : 	{
; 170  : 		g_EffectFactory.DestroyEffect( m_pMeteor );

  0000d	50		 push	 eax
  0000e	ff 15 00 00 00
	00		 call	 DWORD PTR __imp_?GetSingleton@ioEffectFactory@@SAAAV1@XZ
  00014	8b c8		 mov	 ecx, eax
  00016	ff 15 00 00 00
	00		 call	 DWORD PTR __imp_?DestroyEffect@ioEffectFactory@@QAEXPAVioEffect@@@Z

; 171  : 		m_pMeteor = NULL;

  0001c	83 26 00	 and	 DWORD PTR [esi], 0
$LN1@DestroyRes:
  0001f	5e		 pop	 esi

; 172  : 	}
; 173  : }

  00020	c2 04 00	 ret	 4
?DestroyResource@ioFlameWeapon@@UAEXPAVioPlayStage@@@Z ENDP ; ioFlameWeapon::DestroyResource
_TEXT	ENDS
EXTRN	?GetLocalAttackBox@ioWeapon@@UBEABVioOrientBox@@XZ:PROC ; ioWeapon::GetLocalAttackBox
EXTRN	__imp_?GetCollisionBox@ioEffect@@QBEABVioOrientBox@@XZ:PROC
; Function compile flags: /Ogsp
;	COMDAT ?GetLocalAttackBox@ioFlameWeapon@@UBEABVioOrientBox@@XZ
_TEXT	SEGMENT
?GetLocalAttackBox@ioFlameWeapon@@UBEABVioOrientBox@@XZ PROC ; ioFlameWeapon::GetLocalAttackBox, COMDAT
; _this$ = ecx

; 177  : 	if( m_pMeteor )

  00000	8b 81 98 08 00
	00		 mov	 eax, DWORD PTR [ecx+2200]
  00006	85 c0		 test	 eax, eax
  00008	74 18		 je	 SHORT $LN1@GetLocalAt

; 178  : 	{
; 179  : 		if( IsFalling() )

  0000a	83 b9 94 08 00
	00 00		 cmp	 DWORD PTR [ecx+2196], 0
  00011	75 08		 jne	 SHORT $LN2@GetLocalAt

; 180  : 			return m_pMeteor->GetCollisionBox();

  00013	8b c8		 mov	 ecx, eax
  00015	ff 25 00 00 00
	00		 jmp	 DWORD PTR __imp_?GetCollisionBox@ioEffect@@QBEABVioOrientBox@@XZ
$LN2@GetLocalAt:

; 181  : 		else
; 182  : 			return m_LocalAttackBox;

  0001b	8d 81 ac 08 00
	00		 lea	 eax, DWORD PTR [ecx+2220]

; 186  : }

  00021	c3		 ret	 0
$LN1@GetLocalAt:

; 183  : 	}
; 184  : 
; 185  : 	return ioWeapon::GetLocalAttackBox();

  00022	e9 00 00 00 00	 jmp	 ?GetLocalAttackBox@ioWeapon@@UBEABVioOrientBox@@XZ ; ioWeapon::GetLocalAttackBox
?GetLocalAttackBox@ioFlameWeapon@@UBEABVioOrientBox@@XZ ENDP ; ioFlameWeapon::GetLocalAttackBox
; Function compile flags: /Ogsp
_TEXT	ENDS
;	COMDAT ?GetType@ioFlameWeapon@@UBE?AW4WeaponType@ioWeapon@@XZ
_TEXT	SEGMENT
?GetType@ioFlameWeapon@@UBE?AW4WeaponType@ioWeapon@@XZ PROC ; ioFlameWeapon::GetType, COMDAT
; _this$ = ecx

; 190  : 	return WT_FLAME;

  00000	6a 07		 push	 7
  00002	58		 pop	 eax

; 191  : }

  00003	c3		 ret	 0
?GetType@ioFlameWeapon@@UBE?AW4WeaponType@ioWeapon@@XZ ENDP ; ioFlameWeapon::GetType
; Function compile flags: /Ogsp
_TEXT	ENDS
;	COMDAT ?GetActionStopType@ioFlameWeapon@@UBE?AW4ActionStopType@@XZ
_TEXT	SEGMENT
?GetActionStopType@ioFlameWeapon@@UBE?AW4ActionStopType@@XZ PROC ; ioFlameWeapon::GetActionStopType, COMDAT
; _this$ = ecx

; 195  : 	return m_ActionStopType;

  00000	a1 00 00 00 00	 mov	 eax, DWORD PTR ?m_ActionStopType@ioFlameWeapon@@2W4ActionStopType@@A ; ioFlameWeapon::m_ActionStopType

; 196  : }

  00005	c3		 ret	 0
?GetActionStopType@ioFlameWeapon@@UBE?AW4ActionStopType@@XZ ENDP ; ioFlameWeapon::GetActionStopType
; Function compile flags: /Ogsp
_TEXT	ENDS
;	COMDAT ?GetDieActionStopType@ioFlameWeapon@@UBE?AW4ActionStopType@@XZ
_TEXT	SEGMENT
?GetDieActionStopType@ioFlameWeapon@@UBE?AW4ActionStopType@@XZ PROC ; ioFlameWeapon::GetDieActionStopType, COMDAT
; _this$ = ecx

; 200  : 	return m_DieActionStopType;

  00000	a1 00 00 00 00	 mov	 eax, DWORD PTR ?m_DieActionStopType@ioFlameWeapon@@2W4ActionStopType@@A ; ioFlameWeapon::m_DieActionStopType

; 201  : }

  00005	c3		 ret	 0
?GetDieActionStopType@ioFlameWeapon@@UBE?AW4ActionStopType@@XZ ENDP ; ioFlameWeapon::GetDieActionStopType
_TEXT	ENDS
PUBLIC	?GetMoveSpeed@ioFlameWeapon@@QAEMXZ		; ioFlameWeapon::GetMoveSpeed
; Function compile flags: /Ogsp
;	COMDAT ?GetMoveSpeed@ioFlameWeapon@@QAEMXZ
_TEXT	SEGMENT
?GetMoveSpeed@ioFlameWeapon@@QAEMXZ PROC		; ioFlameWeapon::GetMoveSpeed, COMDAT
; _this$ = ecx

; 205  : 	return GetAttribute()->m_fMoveSpeed;

  00000	8b 01		 mov	 eax, DWORD PTR [ecx]
  00002	ff 90 3c 01 00
	00		 call	 DWORD PTR [eax+316]
  00008	d9 80 98 01 00
	00		 fld	 DWORD PTR [eax+408]

; 206  : }

  0000e	c3		 ret	 0
?GetMoveSpeed@ioFlameWeapon@@QAEMXZ ENDP		; ioFlameWeapon::GetMoveSpeed
_TEXT	ENDS
PUBLIC	__real@00000000
PUBLIC	__real@4f800000
PUBLIC	_pEntity$GSCopy$
PUBLIC	__$ArrayPad$
EXTRN	__imp_?GetCenter@ioOrientBox@@QBEABUD3DXVECTOR3@@XZ:PROC
EXTRN	?GetWorldAttackBox@ioWeapon@@QBEABVioOrientBox@@_N@Z:PROC ; ioWeapon::GetWorldAttackBox
EXTRN	___security_cookie:DWORD
;	COMDAT __real@00000000
; File d:\lost saga for developer\youtube\tutorial\source\src\lsclient\stdafx.h
CONST	SEGMENT
__real@00000000 DD 000000000r			; 0
CONST	ENDS
;	COMDAT __real@4f800000
CONST	SEGMENT
__real@4f800000 DD 04f800000r			; 4.29497e+009
; Function compile flags: /Ogsp
; File d:\lost saga for developer\youtube\tutorial\source\src\lsclient\ioflameweapon.cpp
CONST	ENDS
;	COMDAT ?IsCollision@ioFlameWeapon@@UAE_NPAVioPlayEntity@@_N@Z
_TEXT	SEGMENT
_pEntity$GSCopy$ = -24					; size = 4
tv183 = -20						; size = 4
_fTargetDist$ = -20					; size = 4
_vCenter$ = -16						; size = 12
__$ArrayPad$ = -4					; size = 4
_pEntity$ = 8						; size = 4
_bMapCollision$ = 12					; size = 1
?IsCollision@ioFlameWeapon@@UAE_NPAVioPlayEntity@@_N@Z PROC ; ioFlameWeapon::IsCollision, COMDAT
; _this$ = ecx

; 233  : {

  00000	55		 push	 ebp
  00001	8b ec		 mov	 ebp, esp
  00003	83 ec 18	 sub	 esp, 24			; 00000018H
  00006	a1 00 00 00 00	 mov	 eax, DWORD PTR ___security_cookie
  0000b	33 c5		 xor	 eax, ebp
  0000d	89 45 fc	 mov	 DWORD PTR __$ArrayPad$[ebp], eax
  00010	8b 45 08	 mov	 eax, DWORD PTR _pEntity$[ebp]
  00013	53		 push	 ebx
  00014	8b d9		 mov	 ebx, ecx

; 234  : 	if( m_FlameState != FS_EXPLOSION )

  00016	83 bb 94 08 00
	00 01		 cmp	 DWORD PTR [ebx+2196], 1

; 241  : 
; 242  : 	if( COMPARE( fTargetDist, 0.0f, m_fExplosionRange ) )

  0001d	89 45 e8	 mov	 DWORD PTR _pEntity$GSCopy$[ebp], eax
  00020	0f 85 80 00 00
	00		 jne	 $LN1@IsCollisio

; 235  : 		return false;
; 236  : 
; 237  : 	float fTargetDist = -FLOAT1;

  00026	56		 push	 esi
  00027	57		 push	 edi
  00028	b8 01 00 00 00	 mov	 eax, 1
  0002d	89 45 ec	 mov	 DWORD PTR tv183[ebp], eax
  00030	db 45 ec	 fild	 DWORD PTR tv183[ebp]
  00033	85 c0		 test	 eax, eax
  00035	79 06		 jns	 SHORT $LN8@IsCollisio
  00037	d8 05 00 00 00
	00		 fadd	 DWORD PTR __real@4f800000
$LN8@IsCollisio:
  0003d	d9 e0		 fchs

; 238  : 	D3DXVECTOR3 vCenter = GetWorldAttackBox().GetCenter();

  0003f	6a 00		 push	 0
  00041	d9 5d ec	 fstp	 DWORD PTR _fTargetDist$[ebp]
  00044	e8 00 00 00 00	 call	 ?GetWorldAttackBox@ioWeapon@@QBEABVioOrientBox@@_N@Z ; ioWeapon::GetWorldAttackBox
  00049	8b c8		 mov	 ecx, eax
  0004b	ff 15 00 00 00
	00		 call	 DWORD PTR __imp_?GetCenter@ioOrientBox@@QBEABUD3DXVECTOR3@@XZ

; 239  : 	if( !pEntity->CheckSphereDistance( vCenter, m_fExplosionRange, fTargetDist ) )

  00051	8b 4d e8	 mov	 ecx, DWORD PTR _pEntity$GSCopy$[ebp]
  00054	f3 0f 10 83 fc
	08 00 00	 movss	 xmm0, DWORD PTR [ebx+2300]
  0005c	8b f0		 mov	 esi, eax
  0005e	8b 01		 mov	 eax, DWORD PTR [ecx]
  00060	8d 7d f0	 lea	 edi, DWORD PTR _vCenter$[ebp]
  00063	a5		 movsd
  00064	8d 55 ec	 lea	 edx, DWORD PTR _fTargetDist$[ebp]
  00067	52		 push	 edx
  00068	a5		 movsd
  00069	51		 push	 ecx
  0006a	8d 55 f0	 lea	 edx, DWORD PTR _vCenter$[ebp]
  0006d	f3 0f 11 04 24	 movss	 DWORD PTR [esp], xmm0
  00072	52		 push	 edx
  00073	a5		 movsd
  00074	ff 90 98 00 00
	00		 call	 DWORD PTR [eax+152]
  0007a	5f		 pop	 edi
  0007b	5e		 pop	 esi
  0007c	84 c0		 test	 al, al

; 240  : 		return false;

  0007e	74 26		 je	 SHORT $LN1@IsCollisio

; 241  : 
; 242  : 	if( COMPARE( fTargetDist, 0.0f, m_fExplosionRange ) )

  00080	f3 0f 10 45 ec	 movss	 xmm0, DWORD PTR _fTargetDist$[ebp]
  00085	0f 2f 05 00 00
	00 00		 comiss	 xmm0, DWORD PTR __real@00000000
  0008c	72 18		 jb	 SHORT $LN1@IsCollisio
  0008e	f3 0f 10 8b fc
	08 00 00	 movss	 xmm1, DWORD PTR [ebx+2300]
  00096	0f 5a c0	 cvtps2pd xmm0, xmm0
  00099	0f 5a c9	 cvtps2pd xmm1, xmm1
  0009c	66 0f 2f c8	 comisd	 xmm1, xmm0
  000a0	76 04		 jbe	 SHORT $LN1@IsCollisio

; 243  : 		return true;

  000a2	b0 01		 mov	 al, 1
  000a4	eb 02		 jmp	 SHORT $LN4@IsCollisio
$LN1@IsCollisio:

; 244  : 
; 245  : 	return false;

  000a6	32 c0		 xor	 al, al
$LN4@IsCollisio:

; 246  : }

  000a8	8b 4d fc	 mov	 ecx, DWORD PTR __$ArrayPad$[ebp]
  000ab	33 cd		 xor	 ecx, ebp
  000ad	5b		 pop	 ebx
  000ae	e8 00 00 00 00	 call	 @__security_check_cookie@4
  000b3	c9		 leave
  000b4	c2 08 00	 ret	 8
?IsCollision@ioFlameWeapon@@UAE_NPAVioPlayEntity@@_N@Z ENDP ; ioFlameWeapon::IsCollision
; Function compile flags: /Ogsp
_TEXT	ENDS
;	COMDAT ?GetCollisionEnableTime@ioFlameWeapon@@UBEKXZ
_TEXT	SEGMENT
?GetCollisionEnableTime@ioFlameWeapon@@UBEKXZ PROC	; ioFlameWeapon::GetCollisionEnableTime, COMDAT
; _this$ = ecx

; 288  : {

  00000	56		 push	 esi
  00001	8b f1		 mov	 esi, ecx

; 289  : 	if( m_FlameState == FS_EXPLOSION )

  00003	83 be 94 08 00
	00 01		 cmp	 DWORD PTR [esi+2196], 1
  0000a	75 08		 jne	 SHORT $LN1@GetCollisi

; 290  : 		return m_dwCreatedTime;

  0000c	8b 86 d4 04 00
	00		 mov	 eax, DWORD PTR [esi+1236]
  00012	5e		 pop	 esi

; 293  : }

  00013	c3		 ret	 0
$LN1@GetCollisi:

; 291  : 
; 292  : 	return m_dwCreatedTime + GetAttribute()->m_dwCollisionDelay;

  00014	8b 06		 mov	 eax, DWORD PTR [esi]
  00016	ff 90 3c 01 00
	00		 call	 DWORD PTR [eax+316]
  0001c	8b 80 c4 01 00
	00		 mov	 eax, DWORD PTR [eax+452]
  00022	03 86 d4 04 00
	00		 add	 eax, DWORD PTR [esi+1236]
  00028	5e		 pop	 esi

; 293  : }

  00029	c3		 ret	 0
?GetCollisionEnableTime@ioFlameWeapon@@UBEKXZ ENDP	; ioFlameWeapon::GetCollisionEnableTime
_TEXT	ENDS
PUBLIC	?DeleteCircleMapEffect@ioFlameWeapon@@IAEXXZ	; ioFlameWeapon::DeleteCircleMapEffect
EXTRN	?EndEffectForce@ioMapEffect@@QAEXXZ:PROC	; ioMapEffect::EndEffectForce
EXTRN	?FindMapEffect@ioPlayStage@@QAEPAVioMapEffect@@K@Z:PROC ; ioPlayStage::FindMapEffect
EXTRN	?GetOwner@ioWeapon@@QBEPAVioBaseChar@@XZ:PROC	; ioWeapon::GetOwner
; Function compile flags: /Ogsp
;	COMDAT ?DeleteCircleMapEffect@ioFlameWeapon@@IAEXXZ
_TEXT	SEGMENT
?DeleteCircleMapEffect@ioFlameWeapon@@IAEXXZ PROC	; ioFlameWeapon::DeleteCircleMapEffect, COMDAT
; _this$ = ecx

; 336  : {

  00000	56		 push	 esi
  00001	8b f1		 mov	 esi, ecx

; 337  : 	if ( m_CircleMapEffectID == -1 )

  00003	83 be 24 09 00
	00 ff		 cmp	 DWORD PTR [esi+2340], -1
  0000a	74 30		 je	 SHORT $LN1@DeleteCirc

; 338  : 		return;
; 339  : 
; 340  : 	ioBaseChar *pOwner = GetOwner();

  0000c	e8 00 00 00 00	 call	 ?GetOwner@ioWeapon@@QBEPAVioBaseChar@@XZ ; ioWeapon::GetOwner

; 341  : 	if( !pOwner ) 

  00011	85 c0		 test	 eax, eax
  00013	74 27		 je	 SHORT $LN1@DeleteCirc

; 342  : 		return;
; 343  : 	ioPlayStage *pStage = pOwner->GetCreator();

  00015	8b 88 44 03 00
	00		 mov	 ecx, DWORD PTR [eax+836]

; 344  : 	if ( !pStage )

  0001b	85 c9		 test	 ecx, ecx
  0001d	74 1d		 je	 SHORT $LN1@DeleteCirc

; 345  : 		return;
; 346  : 
; 347  : 	ioMapEffect *pMapEffect = pStage->FindMapEffect( m_CircleMapEffectID );

  0001f	ff b6 24 09 00
	00		 push	 DWORD PTR [esi+2340]
  00025	e8 00 00 00 00	 call	 ?FindMapEffect@ioPlayStage@@QAEPAVioMapEffect@@K@Z ; ioPlayStage::FindMapEffect

; 348  : 	if( pMapEffect )

  0002a	85 c0		 test	 eax, eax
  0002c	74 0e		 je	 SHORT $LN1@DeleteCirc

; 349  : 	{
; 350  : 		pMapEffect->EndEffectForce();

  0002e	8b c8		 mov	 ecx, eax
  00030	e8 00 00 00 00	 call	 ?EndEffectForce@ioMapEffect@@QAEXXZ ; ioMapEffect::EndEffectForce

; 351  : 		m_CircleMapEffectID = -1;

  00035	83 8e 24 09 00
	00 ff		 or	 DWORD PTR [esi+2340], -1
$LN1@DeleteCirc:
  0003c	5e		 pop	 esi

; 352  : 	}
; 353  : }

  0003d	c3		 ret	 0
?DeleteCircleMapEffect@ioFlameWeapon@@IAEXXZ ENDP	; ioFlameWeapon::DeleteCircleMapEffect
_TEXT	ENDS
EXTRN	?SetWeaponDead@ioWeapon@@UAEXXZ:PROC		; ioWeapon::SetWeaponDead
; Function compile flags: /Ogsp
;	COMDAT ?SetWeaponDead@ioFlameWeapon@@UAEXXZ
_TEXT	SEGMENT
?SetWeaponDead@ioFlameWeapon@@UAEXXZ PROC		; ioFlameWeapon::SetWeaponDead, COMDAT
; _this$ = ecx

; 356  : {

  00000	56		 push	 esi
  00001	8b f1		 mov	 esi, ecx

; 357  : 	ioWeapon::SetWeaponDead();

  00003	e8 00 00 00 00	 call	 ?SetWeaponDead@ioWeapon@@UAEXXZ ; ioWeapon::SetWeaponDead

; 358  : 	DeleteCircleMapEffect();

  00008	8b ce		 mov	 ecx, esi
  0000a	5e		 pop	 esi
  0000b	e9 00 00 00 00	 jmp	 ?DeleteCircleMapEffect@ioFlameWeapon@@IAEXXZ ; ioFlameWeapon::DeleteCircleMapEffect
?SetWeaponDead@ioFlameWeapon@@UAEXXZ ENDP		; ioFlameWeapon::SetWeaponDead
_TEXT	ENDS
PUBLIC	??0D3DXVECTOR3@@QAE@XZ				; D3DXVECTOR3::D3DXVECTOR3
; Function compile flags: /Ogsp
; File c:\program files (x86)\microsoft directx sdk (june 2010)\include\d3dx9math.h
;	COMDAT ??0D3DXVECTOR3@@QAE@XZ
_TEXT	SEGMENT
??0D3DXVECTOR3@@QAE@XZ PROC				; D3DXVECTOR3::D3DXVECTOR3, COMDAT
; _this$ = ecx

; 165  :     D3DXVECTOR3() {};

  00000	8b c1		 mov	 eax, ecx
  00002	c3		 ret	 0
??0D3DXVECTOR3@@QAE@XZ ENDP				; D3DXVECTOR3::D3DXVECTOR3
_TEXT	ENDS
PUBLIC	??0D3DXVECTOR3@@QAE@MMM@Z			; D3DXVECTOR3::D3DXVECTOR3
; Function compile flags: /Ogsp
; File c:\program files (x86)\microsoft directx sdk (june 2010)\include\d3dx9math.inl
;	COMDAT ??0D3DXVECTOR3@@QAE@MMM@Z
_TEXT	SEGMENT
_fx$ = 8						; size = 4
_fy$ = 12						; size = 4
_fz$ = 16						; size = 4
??0D3DXVECTOR3@@QAE@MMM@Z PROC				; D3DXVECTOR3::D3DXVECTOR3, COMDAT
; _this$ = ecx

; 303  : {

  00000	55		 push	 ebp
  00001	8b ec		 mov	 ebp, esp

; 304  :     x = fx;

  00003	f3 0f 10 45 08	 movss	 xmm0, DWORD PTR _fx$[ebp]
  00008	8b c1		 mov	 eax, ecx
  0000a	f3 0f 11 00	 movss	 DWORD PTR [eax], xmm0

; 305  :     y = fy;

  0000e	f3 0f 10 45 0c	 movss	 xmm0, DWORD PTR _fy$[ebp]
  00013	f3 0f 11 40 04	 movss	 DWORD PTR [eax+4], xmm0

; 306  :     z = fz;

  00018	f3 0f 10 45 10	 movss	 xmm0, DWORD PTR _fz$[ebp]
  0001d	f3 0f 11 40 08	 movss	 DWORD PTR [eax+8], xmm0

; 307  : }

  00022	5d		 pop	 ebp
  00023	c2 0c 00	 ret	 12			; 0000000cH
??0D3DXVECTOR3@@QAE@MMM@Z ENDP				; D3DXVECTOR3::D3DXVECTOR3
_TEXT	ENDS
PUBLIC	??DD3DXVECTOR3@@QBE?AU0@M@Z			; D3DXVECTOR3::operator*
; Function compile flags: /Ogsp
;	COMDAT ??DD3DXVECTOR3@@QBE?AU0@M@Z
_TEXT	SEGMENT
___$ReturnUdt$ = 8					; size = 4
_f$ = 12						; size = 4
??DD3DXVECTOR3@@QBE?AU0@M@Z PROC			; D3DXVECTOR3::operator*, COMDAT
; _this$ = ecx

; 392  : {

  00000	55		 push	 ebp
  00001	8b ec		 mov	 ebp, esp

; 393  :     return D3DXVECTOR3(x * f, y * f, z * f);

  00003	f3 0f 10 4d 0c	 movss	 xmm1, DWORD PTR _f$[ebp]
  00008	f3 0f 10 01	 movss	 xmm0, DWORD PTR [ecx]
  0000c	8b 45 08	 mov	 eax, DWORD PTR ___$ReturnUdt$[ebp]
  0000f	0f 5a c0	 cvtps2pd xmm0, xmm0
  00012	0f 5a c9	 cvtps2pd xmm1, xmm1
  00015	f2 0f 59 c1	 mulsd	 xmm0, xmm1
  00019	f3 0f 10 4d 0c	 movss	 xmm1, DWORD PTR _f$[ebp]
  0001e	66 0f 5a c0	 cvtpd2ps xmm0, xmm0
  00022	f3 0f 11 00	 movss	 DWORD PTR [eax], xmm0
  00026	f3 0f 10 41 04	 movss	 xmm0, DWORD PTR [ecx+4]
  0002b	0f 5a c0	 cvtps2pd xmm0, xmm0
  0002e	0f 5a c9	 cvtps2pd xmm1, xmm1
  00031	f2 0f 59 c1	 mulsd	 xmm0, xmm1
  00035	f3 0f 10 4d 0c	 movss	 xmm1, DWORD PTR _f$[ebp]
  0003a	66 0f 5a c0	 cvtpd2ps xmm0, xmm0
  0003e	f3 0f 11 40 04	 movss	 DWORD PTR [eax+4], xmm0
  00043	f3 0f 10 41 08	 movss	 xmm0, DWORD PTR [ecx+8]
  00048	0f 5a c0	 cvtps2pd xmm0, xmm0
  0004b	0f 5a c9	 cvtps2pd xmm1, xmm1
  0004e	f2 0f 59 c1	 mulsd	 xmm0, xmm1
  00052	66 0f 5a c0	 cvtpd2ps xmm0, xmm0
  00056	f3 0f 11 40 08	 movss	 DWORD PTR [eax+8], xmm0

; 394  : }

  0005b	5d		 pop	 ebp
  0005c	c2 08 00	 ret	 8
??DD3DXVECTOR3@@QBE?AU0@M@Z ENDP			; D3DXVECTOR3::operator*
_TEXT	ENDS
PUBLIC	??0D3DXQUATERNION@@QAE@MMMM@Z			; D3DXQUATERNION::D3DXQUATERNION
; Function compile flags: /Ogsp
;	COMDAT ??0D3DXQUATERNION@@QAE@MMMM@Z
_TEXT	SEGMENT
_fx$ = 8						; size = 4
_fy$ = 12						; size = 4
_fz$ = 16						; size = 4
_fw$ = 20						; size = 4
??0D3DXQUATERNION@@QAE@MMMM@Z PROC			; D3DXQUATERNION::D3DXQUATERNION, COMDAT
; _this$ = ecx

; 1080 : {

  00000	55		 push	 ebp
  00001	8b ec		 mov	 ebp, esp

; 1081 :     x = fx;

  00003	f3 0f 10 45 08	 movss	 xmm0, DWORD PTR _fx$[ebp]
  00008	8b c1		 mov	 eax, ecx
  0000a	f3 0f 11 00	 movss	 DWORD PTR [eax], xmm0

; 1082 :     y = fy;

  0000e	f3 0f 10 45 0c	 movss	 xmm0, DWORD PTR _fy$[ebp]
  00013	f3 0f 11 40 04	 movss	 DWORD PTR [eax+4], xmm0

; 1083 :     z = fz;

  00018	f3 0f 10 45 10	 movss	 xmm0, DWORD PTR _fz$[ebp]
  0001d	f3 0f 11 40 08	 movss	 DWORD PTR [eax+8], xmm0

; 1084 :     w = fw;

  00022	f3 0f 10 45 14	 movss	 xmm0, DWORD PTR _fw$[ebp]
  00027	f3 0f 11 40 0c	 movss	 DWORD PTR [eax+12], xmm0

; 1085 : }

  0002c	5d		 pop	 ebp
  0002d	c2 10 00	 ret	 16			; 00000010H
??0D3DXQUATERNION@@QAE@MMMM@Z ENDP			; D3DXQUATERNION::D3DXQUATERNION
_TEXT	ENDS
PUBLIC	?_DECSTR@@YAXPADH@Z				; _DECSTR
; Function compile flags: /Ogsp
; File d:\lost saga for developer\youtube\tutorial\source\src\lsclient\stringprotect.h
;	COMDAT ?_DECSTR@@YAXPADH@Z
_TEXT	SEGMENT
_s$ = 8							; size = 4
_l$ = 12						; size = 4
?_DECSTR@@YAXPADH@Z PROC				; _DECSTR, COMDAT

; 40   : __forceinline void _DECSTR(char* s, int l){int i=0,l4=(l-1)/4,*p=(int*)s;s[l-1]=0;for(;i<l4;++i)*(p++)^=0xEAEBECED;for(i=l4*4;i<l-1;++i)s[i]^=0xED-i%4;}

  00000	55		 push	 ebp
  00001	8b ec		 mov	 ebp, esp
  00003	8b 4d 0c	 mov	 ecx, DWORD PTR _l$[ebp]
  00006	56		 push	 esi
  00007	8b 75 08	 mov	 esi, DWORD PTR _s$[ebp]
  0000a	57		 push	 edi
  0000b	8d 79 ff	 lea	 edi, DWORD PTR [ecx-1]
  0000e	8b c7		 mov	 eax, edi
  00010	99		 cdq
  00011	83 e2 03	 and	 edx, 3
  00014	03 c2		 add	 eax, edx
  00016	c1 f8 02	 sar	 eax, 2
  00019	8b d6		 mov	 edx, esi
  0001b	c6 44 0e ff 00	 mov	 BYTE PTR [esi+ecx-1], 0
  00020	85 c0		 test	 eax, eax
  00022	7e 0e		 jle	 SHORT $LN4@DECSTR
  00024	8b c8		 mov	 ecx, eax
$LL6@DECSTR:
  00026	81 32 ed ec eb
	ea		 xor	 DWORD PTR [edx], -353637139 ; eaebecedH
  0002c	83 c2 04	 add	 edx, 4
  0002f	49		 dec	 ecx
  00030	75 f4		 jne	 SHORT $LL6@DECSTR
$LN4@DECSTR:
  00032	c1 e0 02	 shl	 eax, 2
  00035	eb 17		 jmp	 SHORT $LN14@DECSTR
$LL3@DECSTR:
  00037	8b c8		 mov	 ecx, eax
  00039	81 e1 03 00 00
	80		 and	 ecx, -2147483645	; 80000003H
  0003f	79 05		 jns	 SHORT $LN13@DECSTR
  00041	49		 dec	 ecx
  00042	83 c9 fc	 or	 ecx, -4			; fffffffcH
  00045	41		 inc	 ecx
$LN13@DECSTR:
  00046	b2 ed		 mov	 dl, -19			; ffffffedH
  00048	2a d1		 sub	 dl, cl
  0004a	30 14 30	 xor	 BYTE PTR [eax+esi], dl
  0004d	40		 inc	 eax
$LN14@DECSTR:
  0004e	3b c7		 cmp	 eax, edi
  00050	7c e5		 jl	 SHORT $LL3@DECSTR
  00052	5f		 pop	 edi
  00053	5e		 pop	 esi
  00054	5d		 pop	 ebp
  00055	c3		 ret	 0
?_DECSTR@@YAXPADH@Z ENDP				; _DECSTR
_TEXT	ENDS
PUBLIC	??_R0?AVioGameEntity@@@8			; ioGameEntity `RTTI Type Descriptor'
PUBLIC	??_R0?AVioPlayEntity@@@8			; ioPlayEntity `RTTI Type Descriptor'
PUBLIC	?ToPlayEntity@@YAPAVioPlayEntity@@PAVioGameEntity@@@Z ; ToPlayEntity
EXTRN	___RTDynamicCast:PROC
;	COMDAT ??_R0?AVioGameEntity@@@8
; File d:\lost saga for developer\youtube\tutorial\source\src\lsclient\ioplayentity.h
_DATA	SEGMENT
??_R0?AVioGameEntity@@@8 DD FLAT:??_7type_info@@6B@	; ioGameEntity `RTTI Type Descriptor'
	DD	00H
	DB	'.?AVioGameEntity@@', 00H
_DATA	ENDS
;	COMDAT ??_R0?AVioPlayEntity@@@8
_DATA	SEGMENT
??_R0?AVioPlayEntity@@@8 DD FLAT:??_7type_info@@6B@	; ioPlayEntity `RTTI Type Descriptor'
	DD	00H
	DB	'.?AVioPlayEntity@@', 00H
; Function compile flags: /Ogsp
_DATA	ENDS
;	COMDAT ?ToPlayEntity@@YAPAVioPlayEntity@@PAVioGameEntity@@@Z
_TEXT	SEGMENT
_pObj$ = 8						; size = 4
?ToPlayEntity@@YAPAVioPlayEntity@@PAVioGameEntity@@@Z PROC ; ToPlayEntity, COMDAT

; 121  : {

  00000	55		 push	 ebp
  00001	8b ec		 mov	 ebp, esp
  00003	56		 push	 esi

; 122  : 	if( !pObj || pObj->GetTypeID() != ioGameEntity::GET_PLAY_ENTITY )

  00004	8b 75 08	 mov	 esi, DWORD PTR _pObj$[ebp]
  00007	85 f6		 test	 esi, esi
  00009	74 25		 je	 SHORT $LN1@ToPlayEnti
  0000b	8b 06		 mov	 eax, DWORD PTR [esi]
  0000d	8b ce		 mov	 ecx, esi
  0000f	ff 50 10	 call	 DWORD PTR [eax+16]
  00012	83 f8 01	 cmp	 eax, 1
  00015	75 19		 jne	 SHORT $LN1@ToPlayEnti

; 124  : 
; 125  : 	return dynamic_cast< ioPlayEntity* >( pObj );

  00017	6a 00		 push	 0
  00019	68 00 00 00 00	 push	 OFFSET ??_R0?AVioPlayEntity@@@8
  0001e	68 00 00 00 00	 push	 OFFSET ??_R0?AVioGameEntity@@@8
  00023	6a 00		 push	 0
  00025	56		 push	 esi
  00026	e8 00 00 00 00	 call	 ___RTDynamicCast
  0002b	83 c4 14	 add	 esp, 20			; 00000014H
  0002e	eb 02		 jmp	 SHORT $LN3@ToPlayEnti
$LN1@ToPlayEnti:

; 123  : 		return NULL;

  00030	33 c0		 xor	 eax, eax
$LN3@ToPlayEnti:
  00032	5e		 pop	 esi

; 126  : }

  00033	5d		 pop	 ebp
  00034	c3		 ret	 0
?ToPlayEntity@@YAPAVioPlayEntity@@PAVioGameEntity@@@Z ENDP ; ToPlayEntity
_TEXT	ENDS
PUBLIC	??_R0?AVioDummyChar@@@8				; ioDummyChar `RTTI Type Descriptor'
PUBLIC	?ToDummyChar@@YAPAVioDummyChar@@PAVioGameEntity@@@Z ; ToDummyChar
;	COMDAT ??_R0?AVioDummyChar@@@8
; File d:\lost saga for developer\youtube\tutorial\source\src\lsclient\iodummychar.h
_DATA	SEGMENT
??_R0?AVioDummyChar@@@8 DD FLAT:??_7type_info@@6B@	; ioDummyChar `RTTI Type Descriptor'
	DD	00H
	DB	'.?AVioDummyChar@@', 00H
; Function compile flags: /Ogsp
_DATA	ENDS
;	COMDAT ?ToDummyChar@@YAPAVioDummyChar@@PAVioGameEntity@@@Z
_TEXT	SEGMENT
_pObj$ = 8						; size = 4
?ToDummyChar@@YAPAVioDummyChar@@PAVioGameEntity@@@Z PROC ; ToDummyChar, COMDAT

; 758  : {

  00000	55		 push	 ebp
  00001	8b ec		 mov	 ebp, esp
  00003	56		 push	 esi

; 759  : 	ioPlayEntity *pPlay = ToPlayEntity( pObj );

  00004	ff 75 08	 push	 DWORD PTR _pObj$[ebp]
  00007	e8 00 00 00 00	 call	 ?ToPlayEntity@@YAPAVioPlayEntity@@PAVioGameEntity@@@Z ; ToPlayEntity
  0000c	8b f0		 mov	 esi, eax
  0000e	59		 pop	 ecx

; 760  : 	if( !pPlay || pPlay->GetSubType() != ioPlayEntity::PST_DUMMY_CHAR )

  0000f	85 f6		 test	 esi, esi
  00011	74 28		 je	 SHORT $LN1@ToDummyCha
  00013	8b 06		 mov	 eax, DWORD PTR [esi]
  00015	8b ce		 mov	 ecx, esi
  00017	ff 90 a4 00 00
	00		 call	 DWORD PTR [eax+164]
  0001d	83 f8 0a	 cmp	 eax, 10			; 0000000aH
  00020	75 19		 jne	 SHORT $LN1@ToDummyCha

; 762  : 
; 763  : 	return dynamic_cast< ioDummyChar* >( pPlay );

  00022	6a 00		 push	 0
  00024	68 00 00 00 00	 push	 OFFSET ??_R0?AVioDummyChar@@@8
  00029	68 00 00 00 00	 push	 OFFSET ??_R0?AVioPlayEntity@@@8
  0002e	6a 00		 push	 0
  00030	56		 push	 esi
  00031	e8 00 00 00 00	 call	 ___RTDynamicCast
  00036	83 c4 14	 add	 esp, 20			; 00000014H
  00039	eb 02		 jmp	 SHORT $LN3@ToDummyCha
$LN1@ToDummyCha:

; 761  : 		return NULL;

  0003b	33 c0		 xor	 eax, eax
$LN3@ToDummyCha:
  0003d	5e		 pop	 esi

; 764  : }

  0003e	5d		 pop	 ebp
  0003f	c3		 ret	 0
?ToDummyChar@@YAPAVioDummyChar@@PAVioGameEntity@@@Z ENDP ; ToDummyChar
_TEXT	ENDS
PUBLIC	?IsLive@ioWeapon@@QBE_NXZ			; ioWeapon::IsLive
; Function compile flags: /Ogsp
; File d:\lost saga for developer\youtube\tutorial\source\src\lsclient\ioweapon.h
;	COMDAT ?IsLive@ioWeapon@@QBE_NXZ
_TEXT	SEGMENT
?IsLive@ioWeapon@@QBE_NXZ PROC				; ioWeapon::IsLive, COMDAT
; _this$ = ecx

; 533  : 	inline bool IsLive() const { return m_bLive; }

  00000	8a 81 82 05 00
	00		 mov	 al, BYTE PTR [ecx+1410]
  00006	c3		 ret	 0
?IsLive@ioWeapon@@QBE_NXZ ENDP				; ioWeapon::IsLive
_TEXT	ENDS
PUBLIC	?GetOwnerName@ioWeapon@@QBEABVioHashString@@XZ	; ioWeapon::GetOwnerName
; Function compile flags: /Ogsp
;	COMDAT ?GetOwnerName@ioWeapon@@QBEABVioHashString@@XZ
_TEXT	SEGMENT
?GetOwnerName@ioWeapon@@QBEABVioHashString@@XZ PROC	; ioWeapon::GetOwnerName, COMDAT
; _this$ = ecx

; 636  : 	inline const ioHashString& GetOwnerName() const { return m_OwnerName; }

  00000	8d 41 10	 lea	 eax, DWORD PTR [ecx+16]
  00003	c3		 ret	 0
?GetOwnerName@ioWeapon@@QBEABVioHashString@@XZ ENDP	; ioWeapon::GetOwnerName
_TEXT	ENDS
PUBLIC	?GetParentSceneNode@ioWeapon@@QBEPAVioSceneNode@@XZ ; ioWeapon::GetParentSceneNode
; Function compile flags: /Ogsp
;	COMDAT ?GetParentSceneNode@ioWeapon@@QBEPAVioSceneNode@@XZ
_TEXT	SEGMENT
?GetParentSceneNode@ioWeapon@@QBEPAVioSceneNode@@XZ PROC ; ioWeapon::GetParentSceneNode, COMDAT
; _this$ = ecx

; 797  : 	ioSceneNode* GetParentSceneNode() const { return m_pSceneNode; }

  00000	8b 41 04	 mov	 eax, DWORD PTR [ecx+4]
  00003	c3		 ret	 0
?GetParentSceneNode@ioWeapon@@QBEPAVioSceneNode@@XZ ENDP ; ioWeapon::GetParentSceneNode
_TEXT	ENDS
PUBLIC	??_R0?AVioWallZone@@@8				; ioWallZone `RTTI Type Descriptor'
PUBLIC	?ToWallZone@@YAPAVioWallZone@@PAVioGameEntity@@@Z ; ToWallZone
;	COMDAT ??_R0?AVioWallZone@@@8
; File d:\lost saga for developer\youtube\tutorial\source\src\lsclient\iowallzone.h
_DATA	SEGMENT
??_R0?AVioWallZone@@@8 DD FLAT:??_7type_info@@6B@	; ioWallZone `RTTI Type Descriptor'
	DD	00H
	DB	'.?AVioWallZone@@', 00H
; Function compile flags: /Ogsp
_DATA	ENDS
;	COMDAT ?ToWallZone@@YAPAVioWallZone@@PAVioGameEntity@@@Z
_TEXT	SEGMENT
_pObj$ = 8						; size = 4
?ToWallZone@@YAPAVioWallZone@@PAVioGameEntity@@@Z PROC	; ToWallZone, COMDAT

; 50   : {

  00000	55		 push	 ebp
  00001	8b ec		 mov	 ebp, esp
  00003	56		 push	 esi

; 51   : 	ioPlayEntity *pPlay = ToPlayEntity( pObj );

  00004	ff 75 08	 push	 DWORD PTR _pObj$[ebp]
  00007	e8 00 00 00 00	 call	 ?ToPlayEntity@@YAPAVioPlayEntity@@PAVioGameEntity@@@Z ; ToPlayEntity
  0000c	8b f0		 mov	 esi, eax
  0000e	59		 pop	 ecx

; 52   : 	if( !pPlay || pPlay->GetSubType() != ioPlayEntity::PST_WALL_ZONE )

  0000f	85 f6		 test	 esi, esi
  00011	74 28		 je	 SHORT $LN1@ToWallZone
  00013	8b 06		 mov	 eax, DWORD PTR [esi]
  00015	8b ce		 mov	 ecx, esi
  00017	ff 90 a4 00 00
	00		 call	 DWORD PTR [eax+164]
  0001d	83 f8 0b	 cmp	 eax, 11			; 0000000bH
  00020	75 19		 jne	 SHORT $LN1@ToWallZone

; 54   : 
; 55   : 	return dynamic_cast< ioWallZone* >( pPlay );

  00022	6a 00		 push	 0
  00024	68 00 00 00 00	 push	 OFFSET ??_R0?AVioWallZone@@@8
  00029	68 00 00 00 00	 push	 OFFSET ??_R0?AVioPlayEntity@@@8
  0002e	6a 00		 push	 0
  00030	56		 push	 esi
  00031	e8 00 00 00 00	 call	 ___RTDynamicCast
  00036	83 c4 14	 add	 esp, 20			; 00000014H
  00039	eb 02		 jmp	 SHORT $LN3@ToWallZone
$LN1@ToWallZone:

; 53   : 		return NULL;

  0003b	33 c0		 xor	 eax, eax
$LN3@ToWallZone:
  0003d	5e		 pop	 esi

; 56   : }

  0003e	5d		 pop	 ebp
  0003f	c3		 ret	 0
?ToWallZone@@YAPAVioWallZone@@PAVioGameEntity@@@Z ENDP	; ToWallZone
_TEXT	ENDS
PUBLIC	??_R0?AVioSymbolStruct@@@8			; ioSymbolStruct `RTTI Type Descriptor'
PUBLIC	?ToSymbolStruct@@YAPAVioSymbolStruct@@PAVioGameEntity@@@Z ; ToSymbolStruct
;	COMDAT ??_R0?AVioSymbolStruct@@@8
; File d:\lost saga for developer\youtube\tutorial\source\src\lsclient\iosymbolstruct.h
_DATA	SEGMENT
??_R0?AVioSymbolStruct@@@8 DD FLAT:??_7type_info@@6B@	; ioSymbolStruct `RTTI Type Descriptor'
	DD	00H
	DB	'.?AVioSymbolStruct@@', 00H
; Function compile flags: /Ogsp
_DATA	ENDS
;	COMDAT ?ToSymbolStruct@@YAPAVioSymbolStruct@@PAVioGameEntity@@@Z
_TEXT	SEGMENT
_pObj$ = 8						; size = 4
?ToSymbolStruct@@YAPAVioSymbolStruct@@PAVioGameEntity@@@Z PROC ; ToSymbolStruct, COMDAT

; 171  : {

  00000	55		 push	 ebp
  00001	8b ec		 mov	 ebp, esp
  00003	56		 push	 esi

; 172  : 	ioPlayEntity *pPlay = ToPlayEntity( pObj );

  00004	ff 75 08	 push	 DWORD PTR _pObj$[ebp]
  00007	e8 00 00 00 00	 call	 ?ToPlayEntity@@YAPAVioPlayEntity@@PAVioGameEntity@@@Z ; ToPlayEntity
  0000c	8b f0		 mov	 esi, eax
  0000e	59		 pop	 ecx

; 173  : 	if( !pPlay || pPlay->GetSubType() != ioPlayEntity::PST_SYMBOL )

  0000f	85 f6		 test	 esi, esi
  00011	74 28		 je	 SHORT $LN1@ToSymbolSt
  00013	8b 06		 mov	 eax, DWORD PTR [esi]
  00015	8b ce		 mov	 ecx, esi
  00017	ff 90 a4 00 00
	00		 call	 DWORD PTR [eax+164]
  0001d	83 f8 01	 cmp	 eax, 1
  00020	75 19		 jne	 SHORT $LN1@ToSymbolSt

; 175  : 
; 176  : 	return dynamic_cast< ioSymbolStruct* >( pPlay );

  00022	6a 00		 push	 0
  00024	68 00 00 00 00	 push	 OFFSET ??_R0?AVioSymbolStruct@@@8
  00029	68 00 00 00 00	 push	 OFFSET ??_R0?AVioPlayEntity@@@8
  0002e	6a 00		 push	 0
  00030	56		 push	 esi
  00031	e8 00 00 00 00	 call	 ___RTDynamicCast
  00036	83 c4 14	 add	 esp, 20			; 00000014H
  00039	eb 02		 jmp	 SHORT $LN3@ToSymbolSt
$LN1@ToSymbolSt:

; 174  : 		return NULL;

  0003b	33 c0		 xor	 eax, eax
$LN3@ToSymbolSt:
  0003d	5e		 pop	 esi

; 177  : }

  0003e	5d		 pop	 ebp
  0003f	c3		 ret	 0
?ToSymbolStruct@@YAPAVioSymbolStruct@@PAVioGameEntity@@@Z ENDP ; ToSymbolStruct
_TEXT	ENDS
PUBLIC	??_R0?AVioBall@@@8				; ioBall `RTTI Type Descriptor'
PUBLIC	?ToBallStruct@@YAPAVioBall@@PAVioGameEntity@@@Z	; ToBallStruct
;	COMDAT ??_R0?AVioBall@@@8
; File d:\lost saga for developer\youtube\tutorial\source\src\lsclient\ioball.h
_DATA	SEGMENT
??_R0?AVioBall@@@8 DD FLAT:??_7type_info@@6B@		; ioBall `RTTI Type Descriptor'
	DD	00H
	DB	'.?AVioBall@@', 00H
; Function compile flags: /Ogsp
_DATA	ENDS
;	COMDAT ?ToBallStruct@@YAPAVioBall@@PAVioGameEntity@@@Z
_TEXT	SEGMENT
_pObj$ = 8						; size = 4
?ToBallStruct@@YAPAVioBall@@PAVioGameEntity@@@Z PROC	; ToBallStruct, COMDAT

; 252  : {

  00000	55		 push	 ebp
  00001	8b ec		 mov	 ebp, esp
  00003	56		 push	 esi

; 253  : 	ioPlayEntity *pPlay = ToPlayEntity( pObj );

  00004	ff 75 08	 push	 DWORD PTR _pObj$[ebp]
  00007	e8 00 00 00 00	 call	 ?ToPlayEntity@@YAPAVioPlayEntity@@PAVioGameEntity@@@Z ; ToPlayEntity
  0000c	8b f0		 mov	 esi, eax
  0000e	59		 pop	 ecx

; 254  : 	if( !pPlay || pPlay->GetSubType() != ioPlayEntity::PST_BALL )

  0000f	85 f6		 test	 esi, esi
  00011	74 28		 je	 SHORT $LN1@ToBallStru
  00013	8b 06		 mov	 eax, DWORD PTR [esi]
  00015	8b ce		 mov	 ecx, esi
  00017	ff 90 a4 00 00
	00		 call	 DWORD PTR [eax+164]
  0001d	83 f8 08	 cmp	 eax, 8
  00020	75 19		 jne	 SHORT $LN1@ToBallStru

; 256  : 
; 257  : 	return dynamic_cast< ioBall* >( pPlay );

  00022	6a 00		 push	 0
  00024	68 00 00 00 00	 push	 OFFSET ??_R0?AVioBall@@@8
  00029	68 00 00 00 00	 push	 OFFSET ??_R0?AVioPlayEntity@@@8
  0002e	6a 00		 push	 0
  00030	56		 push	 esi
  00031	e8 00 00 00 00	 call	 ___RTDynamicCast
  00036	83 c4 14	 add	 esp, 20			; 00000014H
  00039	eb 02		 jmp	 SHORT $LN3@ToBallStru
$LN1@ToBallStru:

; 255  : 		return NULL;

  0003b	33 c0		 xor	 eax, eax
$LN3@ToBallStru:
  0003d	5e		 pop	 esi

; 258  : }

  0003e	5d		 pop	 ebp
  0003f	c3		 ret	 0
?ToBallStruct@@YAPAVioBall@@PAVioGameEntity@@@Z ENDP	; ToBallStruct
_TEXT	ENDS
PUBLIC	??_R0?AVioPushStruct@@@8			; ioPushStruct `RTTI Type Descriptor'
PUBLIC	?ToPushStruct@@YAPAVioPushStruct@@PAVioGameEntity@@@Z ; ToPushStruct
;	COMDAT ??_R0?AVioPushStruct@@@8
; File d:\lost saga for developer\youtube\tutorial\source\src\lsclient\iopushstruct.h
_DATA	SEGMENT
??_R0?AVioPushStruct@@@8 DD FLAT:??_7type_info@@6B@	; ioPushStruct `RTTI Type Descriptor'
	DD	00H
	DB	'.?AVioPushStruct@@', 00H
; Function compile flags: /Ogsp
_DATA	ENDS
;	COMDAT ?ToPushStruct@@YAPAVioPushStruct@@PAVioGameEntity@@@Z
_TEXT	SEGMENT
_pObj$ = 8						; size = 4
?ToPushStruct@@YAPAVioPushStruct@@PAVioGameEntity@@@Z PROC ; ToPushStruct, COMDAT

; 440  : {

  00000	55		 push	 ebp
  00001	8b ec		 mov	 ebp, esp
  00003	56		 push	 esi

; 441  : 	ioPlayEntity *pPlay = ToPlayEntity( pObj );

  00004	ff 75 08	 push	 DWORD PTR _pObj$[ebp]
  00007	e8 00 00 00 00	 call	 ?ToPlayEntity@@YAPAVioPlayEntity@@PAVioGameEntity@@@Z ; ToPlayEntity
  0000c	8b f0		 mov	 esi, eax
  0000e	59		 pop	 ecx

; 442  : 	if( !pPlay || pPlay->GetSubType() != ioPlayEntity::PST_PUSHSTRUCT )

  0000f	85 f6		 test	 esi, esi
  00011	74 28		 je	 SHORT $LN1@ToPushStru
  00013	8b 06		 mov	 eax, DWORD PTR [esi]
  00015	8b ce		 mov	 ecx, esi
  00017	ff 90 a4 00 00
	00		 call	 DWORD PTR [eax+164]
  0001d	83 f8 02	 cmp	 eax, 2
  00020	75 19		 jne	 SHORT $LN1@ToPushStru

; 444  : 
; 445  : 	return dynamic_cast< ioPushStruct* >( pPlay );

  00022	6a 00		 push	 0
  00024	68 00 00 00 00	 push	 OFFSET ??_R0?AVioPushStruct@@@8
  00029	68 00 00 00 00	 push	 OFFSET ??_R0?AVioPlayEntity@@@8
  0002e	6a 00		 push	 0
  00030	56		 push	 esi
  00031	e8 00 00 00 00	 call	 ___RTDynamicCast
  00036	83 c4 14	 add	 esp, 20			; 00000014H
  00039	eb 02		 jmp	 SHORT $LN3@ToPushStru
$LN1@ToPushStru:

; 443  : 		return NULL;

  0003b	33 c0		 xor	 eax, eax
$LN3@ToPushStru:
  0003d	5e		 pop	 esi

; 446  : }

  0003e	5d		 pop	 ebp
  0003f	c3		 ret	 0
?ToPushStruct@@YAPAVioPushStruct@@PAVioGameEntity@@@Z ENDP ; ToPushStruct
_TEXT	ENDS
PUBLIC	?DecryptValueToPool@?$CEncrypt@W4TeamType@@@@QAEXPAW4TeamType@@@Z ; CEncrypt<enum TeamType>::DecryptValueToPool
EXTRN	?DecryptByte@ccddaabb@@QBEXPBDPADH@Z:PROC	; ccddaabb::DecryptByte
; Function compile flags: /Ogsp
; File d:\lost saga for developer\youtube\tutorial\source\src\lsclient\encryptvalue.h
;	COMDAT ?DecryptValueToPool@?$CEncrypt@W4TeamType@@@@QAEXPAW4TeamType@@@Z
_TEXT	SEGMENT
_value$ = 8						; size = 4
?DecryptValueToPool@?$CEncrypt@W4TeamType@@@@QAEXPAW4TeamType@@@Z PROC ; CEncrypt<enum TeamType>::DecryptValueToPool, COMDAT
; _this$ = ecx

; 2959 : 	{

  00000	55		 push	 ebp
  00001	8b ec		 mov	 ebp, esp
  00003	56		 push	 esi

; 2960 : 		m_RC5.DecryptByte( m_MemPool, m_TempMem, sizeof(TeamType) );

  00004	8d 71 28	 lea	 esi, DWORD PTR [ecx+40]
  00007	6a 04		 push	 4
  00009	8d 41 1c	 lea	 eax, DWORD PTR [ecx+28]
  0000c	56		 push	 esi
  0000d	50		 push	 eax
  0000e	83 c1 0c	 add	 ecx, 12			; 0000000cH
  00011	e8 00 00 00 00	 call	 ?DecryptByte@ccddaabb@@QBEXPBDPADH@Z ; ccddaabb::DecryptByte

; 2961 : 		*value = *((TeamType*)m_TempMem);

  00016	8b 06		 mov	 eax, DWORD PTR [esi]
  00018	8b 4d 08	 mov	 ecx, DWORD PTR _value$[ebp]
  0001b	89 01		 mov	 DWORD PTR [ecx], eax
  0001d	5e		 pop	 esi

; 2962 : 	}

  0001e	5d		 pop	 ebp
  0001f	c2 04 00	 ret	 4
?DecryptValueToPool@?$CEncrypt@W4TeamType@@@@QAEXPAW4TeamType@@@Z ENDP ; CEncrypt<enum TeamType>::DecryptValueToPool
_TEXT	ENDS
PUBLIC	??_R0?AVioBaseChar@@@8				; ioBaseChar `RTTI Type Descriptor'
PUBLIC	?ToBaseChar@@YAPAVioBaseChar@@PAVioGameEntity@@@Z ; ToBaseChar
;	COMDAT ??_R0?AVioBaseChar@@@8
; File d:\lost saga for developer\youtube\tutorial\source\src\lsclient\iobasechar.h
_DATA	SEGMENT
??_R0?AVioBaseChar@@@8 DD FLAT:??_7type_info@@6B@	; ioBaseChar `RTTI Type Descriptor'
	DD	00H
	DB	'.?AVioBaseChar@@', 00H
; Function compile flags: /Ogsp
_DATA	ENDS
;	COMDAT ?ToBaseChar@@YAPAVioBaseChar@@PAVioGameEntity@@@Z
_TEXT	SEGMENT
_pObj$ = 8						; size = 4
?ToBaseChar@@YAPAVioBaseChar@@PAVioGameEntity@@@Z PROC	; ToBaseChar, COMDAT

; 4326 : {

  00000	55		 push	 ebp
  00001	8b ec		 mov	 ebp, esp
  00003	56		 push	 esi

; 4327 : 	ioPlayEntity *pPlay = ToPlayEntity( pObj );

  00004	ff 75 08	 push	 DWORD PTR _pObj$[ebp]
  00007	e8 00 00 00 00	 call	 ?ToPlayEntity@@YAPAVioPlayEntity@@PAVioGameEntity@@@Z ; ToPlayEntity
  0000c	8b f0		 mov	 esi, eax
  0000e	59		 pop	 ecx

; 4328 : 	if( !pPlay || pPlay->GetSubType() != ioPlayEntity::PST_CHAR )

  0000f	85 f6		 test	 esi, esi
  00011	74 25		 je	 SHORT $LN1@ToBaseChar
  00013	8b 06		 mov	 eax, DWORD PTR [esi]
  00015	8b ce		 mov	 ecx, esi
  00017	ff 90 a4 00 00
	00		 call	 DWORD PTR [eax+164]
  0001d	85 c0		 test	 eax, eax
  0001f	75 17		 jne	 SHORT $LN1@ToBaseChar

; 4330 : 
; 4331 : 	return dynamic_cast< ioBaseChar* >( pPlay );

  00021	50		 push	 eax
  00022	68 00 00 00 00	 push	 OFFSET ??_R0?AVioBaseChar@@@8
  00027	68 00 00 00 00	 push	 OFFSET ??_R0?AVioPlayEntity@@@8
  0002c	50		 push	 eax
  0002d	56		 push	 esi
  0002e	e8 00 00 00 00	 call	 ___RTDynamicCast
  00033	83 c4 14	 add	 esp, 20			; 00000014H
  00036	eb 02		 jmp	 SHORT $LN3@ToBaseChar
$LN1@ToBaseChar:

; 4329 : 		return NULL;

  00038	33 c0		 xor	 eax, eax
$LN3@ToBaseChar:
  0003a	5e		 pop	 esi

; 4332 : }

  0003b	5d		 pop	 ebp
  0003c	c3		 ret	 0
?ToBaseChar@@YAPAVioBaseChar@@PAVioGameEntity@@@Z ENDP	; ToBaseChar
_TEXT	ENDS
PUBLIC	??0ioFlameWeapon@@QAE@PAVioBaseChar@@PBUWeaponAttribute@@@Z ; ioFlameWeapon::ioFlameWeapon
EXTRN	__imp_?Clear@ioHashString@@QAEXXZ:PROC
EXTRN	?SetPeculiarity@ioWeapon@@QAEXK@Z:PROC		; ioWeapon::SetPeculiarity
EXTRN	__imp_??0ioOrientBox@@QAE@XZ:PROC
EXTRN	__imp_??0ioHashString@@QAE@XZ:PROC
EXTRN	??0ioWeapon@@QAE@PAVioBaseChar@@PBUWeaponAttribute@@@Z:PROC ; ioWeapon::ioWeapon
;	COMDAT xdata$x
; File c:\program files (x86)\microsoft directx sdk (june 2010)\include\d3dx9math.h
xdata$x	SEGMENT
__ehfuncinfo$??0ioFlameWeapon@@QAE@PAVioBaseChar@@PBUWeaponAttribute@@@Z DD 019930522H
	DD	05H
	DD	FLAT:__unwindtable$??0ioFlameWeapon@@QAE@PAVioBaseChar@@PBUWeaponAttribute@@@Z
	DD	2 DUP(00H)
	DD	2 DUP(00H)
	DD	00H
	DD	01H
__unwindtable$??0ioFlameWeapon@@QAE@PAVioBaseChar@@PBUWeaponAttribute@@@Z DD 0ffffffffH
	DD	FLAT:__unwindfunclet$??0ioFlameWeapon@@QAE@PAVioBaseChar@@PBUWeaponAttribute@@@Z$0
	DD	00H
	DD	FLAT:__unwindfunclet$??0ioFlameWeapon@@QAE@PAVioBaseChar@@PBUWeaponAttribute@@@Z$1
	DD	01H
	DD	FLAT:__unwindfunclet$??0ioFlameWeapon@@QAE@PAVioBaseChar@@PBUWeaponAttribute@@@Z$2
	DD	02H
	DD	FLAT:__unwindfunclet$??0ioFlameWeapon@@QAE@PAVioBaseChar@@PBUWeaponAttribute@@@Z$3
	DD	03H
	DD	FLAT:__unwindfunclet$??0ioFlameWeapon@@QAE@PAVioBaseChar@@PBUWeaponAttribute@@@Z$4
; Function compile flags: /Ogsp
; File d:\lost saga for developer\youtube\tutorial\source\src\lsclient\ioflameweapon.cpp
xdata$x	ENDS
;	COMDAT ??0ioFlameWeapon@@QAE@PAVioBaseChar@@PBUWeaponAttribute@@@Z
_TEXT	SEGMENT
_this$ = -16						; size = 4
__$EHRec$ = -12						; size = 12
_pOwner$ = 8						; size = 4
_pAttr$ = 12						; size = 4
??0ioFlameWeapon@@QAE@PAVioBaseChar@@PBUWeaponAttribute@@@Z PROC ; ioFlameWeapon::ioFlameWeapon, COMDAT
; _this$ = ecx

; 15   : {

  00000	6a 04		 push	 4
  00002	b8 00 00 00 00	 mov	 eax, __ehhandler$??0ioFlameWeapon@@QAE@PAVioBaseChar@@PBUWeaponAttribute@@@Z
  00007	e8 00 00 00 00	 call	 __EH_prolog3
  0000c	8b f1		 mov	 esi, ecx
  0000e	89 75 f0	 mov	 DWORD PTR _this$[ebp], esi
  00011	ff 75 0c	 push	 DWORD PTR _pAttr$[ebp]
  00014	ff 75 08	 push	 DWORD PTR _pOwner$[ebp]
  00017	e8 00 00 00 00	 call	 ??0ioWeapon@@QAE@PAVioBaseChar@@PBUWeaponAttribute@@@Z ; ioWeapon::ioWeapon
  0001c	8b 3d 00 00 00
	00		 mov	 edi, DWORD PTR __imp_??0ioHashString@@QAE@XZ
  00022	83 65 fc 00	 and	 DWORD PTR __$EHRec$[ebp+8], 0
  00026	8d 8e 9c 08 00
	00		 lea	 ecx, DWORD PTR [esi+2204]
  0002c	c7 06 00 00 00
	00		 mov	 DWORD PTR [esi], OFFSET ??_7ioFlameWeapon@@6B@
  00032	ff d7		 call	 edi
  00034	8d 8e ac 08 00
	00		 lea	 ecx, DWORD PTR [esi+2220]
  0003a	c6 45 fc 01	 mov	 BYTE PTR __$EHRec$[ebp+8], 1
  0003e	ff 15 00 00 00
	00		 call	 DWORD PTR __imp_??0ioOrientBox@@QAE@XZ
  00044	8d 8e 04 09 00
	00		 lea	 ecx, DWORD PTR [esi+2308]
  0004a	c6 45 fc 02	 mov	 BYTE PTR __$EHRec$[ebp+8], 2
  0004e	ff d7		 call	 edi
  00050	8d 8e 14 09 00
	00		 lea	 ecx, DWORD PTR [esi+2324]
  00056	c6 45 fc 03	 mov	 BYTE PTR __$EHRec$[ebp+8], 3
  0005a	ff d7		 call	 edi

; 16   : 	SetPeculiarity( WP_ATTACK_OWNER |
; 17   : 					WP_MINE_EXPLOSION );

  0005c	6a 14		 push	 20			; 00000014H
  0005e	8b ce		 mov	 ecx, esi
  00060	c6 45 fc 04	 mov	 BYTE PTR __$EHRec$[ebp+8], 4
  00064	e8 00 00 00 00	 call	 ?SetPeculiarity@ioWeapon@@QAEXK@Z ; ioWeapon::SetPeculiarity

; 18   : 
; 19   : 	m_pMeteor = NULL;
; 20   : 	m_FlameState = FS_FALL;
; 21   : 
; 22   : 	m_bResistance = false;
; 23   : 
; 24   : 	m_szBlueEffect.Clear();

  00069	8b 3d 00 00 00
	00		 mov	 edi, DWORD PTR __imp_?Clear@ioHashString@@QAEXXZ
  0006f	83 a6 98 08 00
	00 00		 and	 DWORD PTR [esi+2200], 0
  00076	83 a6 94 08 00
	00 00		 and	 DWORD PTR [esi+2196], 0
  0007d	8d 8e 14 09 00
	00		 lea	 ecx, DWORD PTR [esi+2324]
  00083	c6 86 3c 06 00
	00 00		 mov	 BYTE PTR [esi+1596], 0
  0008a	ff d7		 call	 edi

; 25   : 	m_szRedEffect.Clear();

  0008c	8d 8e 04 09 00
	00		 lea	 ecx, DWORD PTR [esi+2308]
  00092	ff d7		 call	 edi

; 26   : 
; 27   : 	m_CircleMapEffectID = -1;

  00094	83 8e 24 09 00
	00 ff		 or	 DWORD PTR [esi+2340], -1

; 28   : }

  0009b	8b c6		 mov	 eax, esi
  0009d	e8 00 00 00 00	 call	 __EH_epilog3
  000a2	c2 08 00	 ret	 8
_TEXT	ENDS
;	COMDAT text$x
text$x	SEGMENT
__unwindfunclet$??0ioFlameWeapon@@QAE@PAVioBaseChar@@PBUWeaponAttribute@@@Z$0:
  00000	8b 4d f0	 mov	 ecx, DWORD PTR _this$[ebp]
  00003	e9 00 00 00 00	 jmp	 ??1ioWeapon@@UAE@XZ	; ioWeapon::~ioWeapon
__unwindfunclet$??0ioFlameWeapon@@QAE@PAVioBaseChar@@PBUWeaponAttribute@@@Z$1:
  00008	8b 4d f0	 mov	 ecx, DWORD PTR _this$[ebp]
  0000b	81 c1 9c 08 00
	00		 add	 ecx, 2204		; 0000089cH
  00011	ff 25 00 00 00
	00		 jmp	 DWORD PTR __imp_??1ioHashString@@QAE@XZ
__unwindfunclet$??0ioFlameWeapon@@QAE@PAVioBaseChar@@PBUWeaponAttribute@@@Z$2:
  00017	8b 4d f0	 mov	 ecx, DWORD PTR _this$[ebp]
  0001a	81 c1 ac 08 00
	00		 add	 ecx, 2220		; 000008acH
  00020	ff 25 00 00 00
	00		 jmp	 DWORD PTR __imp_??1ioOrientBox@@QAE@XZ
__unwindfunclet$??0ioFlameWeapon@@QAE@PAVioBaseChar@@PBUWeaponAttribute@@@Z$3:
  00026	8b 4d f0	 mov	 ecx, DWORD PTR _this$[ebp]
  00029	81 c1 04 09 00
	00		 add	 ecx, 2308		; 00000904H
  0002f	ff 25 00 00 00
	00		 jmp	 DWORD PTR __imp_??1ioHashString@@QAE@XZ
__unwindfunclet$??0ioFlameWeapon@@QAE@PAVioBaseChar@@PBUWeaponAttribute@@@Z$4:
  00035	8b 4d f0	 mov	 ecx, DWORD PTR _this$[ebp]
  00038	81 c1 14 09 00
	00		 add	 ecx, 2324		; 00000914H
  0003e	ff 25 00 00 00
	00		 jmp	 DWORD PTR __imp_??1ioHashString@@QAE@XZ
__ehhandler$??0ioFlameWeapon@@QAE@PAVioBaseChar@@PBUWeaponAttribute@@@Z:
  00044	8b 54 24 08	 mov	 edx, DWORD PTR [esp+8]
  00048	8d 42 0c	 lea	 eax, DWORD PTR [edx+12]
  0004b	8b 4a ec	 mov	 ecx, DWORD PTR [edx-20]
  0004e	33 c8		 xor	 ecx, eax
  00050	e8 00 00 00 00	 call	 @__security_check_cookie@4
  00055	b8 00 00 00 00	 mov	 eax, OFFSET __ehfuncinfo$??0ioFlameWeapon@@QAE@PAVioBaseChar@@PBUWeaponAttribute@@@Z
  0005a	e9 00 00 00 00	 jmp	 ___CxxFrameHandler3
text$x	ENDS
??0ioFlameWeapon@@QAE@PAVioBaseChar@@PBUWeaponAttribute@@@Z ENDP ; ioFlameWeapon::ioFlameWeapon
EXTRN	??3@YAXPAX@Z:PROC				; operator delete
; Function compile flags: /Ogsp
;	COMDAT ??_GioFlameWeapon@@UAEPAXI@Z
_TEXT	SEGMENT
___flags$ = 8						; size = 4
??_GioFlameWeapon@@UAEPAXI@Z PROC			; ioFlameWeapon::`scalar deleting destructor', COMDAT
; _this$ = ecx
  00000	55		 push	 ebp
  00001	8b ec		 mov	 ebp, esp
  00003	56		 push	 esi
  00004	8b f1		 mov	 esi, ecx
  00006	e8 00 00 00 00	 call	 ??1ioFlameWeapon@@UAE@XZ ; ioFlameWeapon::~ioFlameWeapon
  0000b	f6 45 08 01	 test	 BYTE PTR ___flags$[ebp], 1
  0000f	74 07		 je	 SHORT $LN1@scalar
  00011	56		 push	 esi
  00012	e8 00 00 00 00	 call	 ??3@YAXPAX@Z		; operator delete
  00017	59		 pop	 ecx
$LN1@scalar:
  00018	8b c6		 mov	 eax, esi
  0001a	5e		 pop	 esi
  0001b	5d		 pop	 ebp
  0001c	c2 04 00	 ret	 4
??_GioFlameWeapon@@UAEPAXI@Z ENDP			; ioFlameWeapon::`scalar deleting destructor'
_TEXT	ENDS
PUBLIC	?CreateMeteor@ioFlameWeapon@@IAE_NABVioHashString@@@Z ; ioFlameWeapon::CreateMeteor
EXTRN	__imp_?CreateEffect@ioEffectFactory@@QAEPAVioEffect@@ABVioHashString@@@Z:PROC
; Function compile flags: /Ogsp
;	COMDAT ?CreateMeteor@ioFlameWeapon@@IAE_NABVioHashString@@@Z
_TEXT	SEGMENT
tv208 = 8						; size = 4
tv206 = 8						; size = 4
tv204 = 8						; size = 4
_szFileName$ = 8					; size = 4
?CreateMeteor@ioFlameWeapon@@IAE_NABVioHashString@@@Z PROC ; ioFlameWeapon::CreateMeteor, COMDAT
; _this$ = ecx

; 72   : {

  00000	55		 push	 ebp
  00001	8b ec		 mov	 ebp, esp
  00003	56		 push	 esi

; 73   : 	m_pMeteor = g_EffectFactory.CreateEffect( szFileName );

  00004	ff 75 08	 push	 DWORD PTR _szFileName$[ebp]
  00007	8b f1		 mov	 esi, ecx
  00009	ff 15 00 00 00
	00		 call	 DWORD PTR __imp_?GetSingleton@ioEffectFactory@@SAAAV1@XZ
  0000f	8b c8		 mov	 ecx, eax
  00011	ff 15 00 00 00
	00		 call	 DWORD PTR __imp_?CreateEffect@ioEffectFactory@@QAEPAVioEffect@@ABVioHashString@@@Z
  00017	89 86 98 08 00
	00		 mov	 DWORD PTR [esi+2200], eax

; 74   : 	if( !m_pMeteor )

  0001d	85 c0		 test	 eax, eax
  0001f	75 04		 jne	 SHORT $LN1@CreateMete

; 75   : 		return false;

  00021	32 c0		 xor	 al, al
  00023	eb 7e		 jmp	 SHORT $LN2@CreateMete
$LN1@CreateMete:

; 76   : 
; 77   : 	GetParentSceneNode()->AttachObject( m_pMeteor );

  00025	8b 4e 04	 mov	 ecx, DWORD PTR [esi+4]
  00028	8b 11		 mov	 edx, DWORD PTR [ecx]
  0002a	53		 push	 ebx
  0002b	57		 push	 edi
  0002c	83 c0 14	 add	 eax, 20			; 00000014H
  0002f	50		 push	 eax
  00030	ff 92 ac 00 00
	00		 call	 DWORD PTR [edx+172]

; 78   : 	GetParentSceneNode()->SetScale( FLOAT1, FLOAT1, FLOAT1 );

  00036	8b 4e 04	 mov	 ecx, DWORD PTR [esi+4]
  00039	b8 01 00 00 00	 mov	 eax, 1
  0003e	8b d0		 mov	 edx, eax
  00040	b8 01 00 00 00	 mov	 eax, 1
  00045	8b f8		 mov	 edi, eax
  00047	b8 01 00 00 00	 mov	 eax, 1
  0004c	8b 19		 mov	 ebx, DWORD PTR [ecx]
  0004e	89 55 08	 mov	 DWORD PTR tv208[ebp], edx
  00051	db 45 08	 fild	 DWORD PTR tv208[ebp]
  00054	85 d2		 test	 edx, edx
  00056	79 06		 jns	 SHORT $LN16@CreateMete
  00058	d8 05 00 00 00
	00		 fadd	 DWORD PTR __real@4f800000
$LN16@CreateMete:
  0005e	83 ec 0c	 sub	 esp, 12			; 0000000cH
  00061	89 7d 08	 mov	 DWORD PTR tv206[ebp], edi
  00064	d9 5c 24 08	 fstp	 DWORD PTR [esp+8]
  00068	db 45 08	 fild	 DWORD PTR tv206[ebp]
  0006b	85 ff		 test	 edi, edi
  0006d	79 06		 jns	 SHORT $LN17@CreateMete
  0006f	d8 05 00 00 00
	00		 fadd	 DWORD PTR __real@4f800000
$LN17@CreateMete:
  00075	89 45 08	 mov	 DWORD PTR tv204[ebp], eax
  00078	d9 5c 24 04	 fstp	 DWORD PTR [esp+4]
  0007c	db 45 08	 fild	 DWORD PTR tv204[ebp]
  0007f	85 c0		 test	 eax, eax
  00081	79 06		 jns	 SHORT $LN18@CreateMete
  00083	d8 05 00 00 00
	00		 fadd	 DWORD PTR __real@4f800000
$LN18@CreateMete:
  00089	d9 1c 24	 fstp	 DWORD PTR [esp]
  0008c	ff 53 1c	 call	 DWORD PTR [ebx+28]

; 79   : 
; 80   : 	AddEffectEvent( m_pMeteor );

  0008f	ff b6 98 08 00
	00		 push	 DWORD PTR [esi+2200]
  00095	8b 06		 mov	 eax, DWORD PTR [esi]
  00097	8b ce		 mov	 ecx, esi
  00099	ff 90 68 01 00
	00		 call	 DWORD PTR [eax+360]
  0009f	5f		 pop	 edi

; 81   : 	return true;

  000a0	b0 01		 mov	 al, 1
  000a2	5b		 pop	 ebx
$LN2@CreateMete:
  000a3	5e		 pop	 esi

; 82   : }

  000a4	5d		 pop	 ebp
  000a5	c2 04 00	 ret	 4
?CreateMeteor@ioFlameWeapon@@IAE_NABVioHashString@@@Z ENDP ; ioFlameWeapon::CreateMeteor
_TEXT	ENDS
PUBLIC	_this$GSCopy$
PUBLIC	__$ArrayPad$
EXTRN	?SetPosition@ioWeapon@@QAEXABUD3DXVECTOR3@@@Z:PROC ; ioWeapon::SetPosition
; Function compile flags: /Ogsp
;	COMDAT ?SetStartPosition@ioFlameWeapon@@UAEXABUD3DXVECTOR3@@PAVioPlayStage@@@Z
_TEXT	SEGMENT
_this$GSCopy$ = -20					; size = 4
_vNewPos$530618 = -16					; size = 12
__$ArrayPad$ = -4					; size = 4
_vPos$ = 8						; size = 4
_pStage$ = 12						; size = 4
?SetStartPosition@ioFlameWeapon@@UAEXABUD3DXVECTOR3@@PAVioPlayStage@@@Z PROC ; ioFlameWeapon::SetStartPosition, COMDAT
; _this$ = ecx

; 85   : {

  00000	55		 push	 ebp
  00001	8b ec		 mov	 ebp, esp
  00003	83 ec 14	 sub	 esp, 20			; 00000014H
  00006	a1 00 00 00 00	 mov	 eax, DWORD PTR ___security_cookie
  0000b	33 c5		 xor	 eax, ebp
  0000d	89 45 fc	 mov	 DWORD PTR __$ArrayPad$[ebp], eax
  00010	53		 push	 ebx
  00011	8b 5d 08	 mov	 ebx, DWORD PTR _vPos$[ebp]
  00014	56		 push	 esi
  00015	57		 push	 edi

; 86   : 	m_vStartPos = vPos;

  00016	8d 81 f0 08 00
	00		 lea	 eax, DWORD PTR [ecx+2288]
  0001c	8b f8		 mov	 edi, eax
  0001e	8b f3		 mov	 esi, ebx
  00020	a5		 movsd
  00021	a5		 movsd

; 87   : 	SetPosition( m_vStartPos );

  00022	50		 push	 eax

; 88   : 
; 89   : 	if( m_pMeteor )
; 90   : 	{
; 91   : 		D3DXVECTOR3 vNewPos( vPos.x, vPos.y+m_fStartHeight, vPos.z );

  00023	89 4d ec	 mov	 DWORD PTR _this$GSCopy$[ebp], ecx
  00026	a5		 movsd
  00027	e8 00 00 00 00	 call	 ?SetPosition@ioWeapon@@QAEXABUD3DXVECTOR3@@@Z ; ioWeapon::SetPosition
  0002c	8b 4d ec	 mov	 ecx, DWORD PTR _this$GSCopy$[ebp]
  0002f	8b 81 98 08 00
	00		 mov	 eax, DWORD PTR [ecx+2200]
  00035	85 c0		 test	 eax, eax
  00037	74 46		 je	 SHORT $LN1@SetStartPo
  00039	f3 0f 10 03	 movss	 xmm0, DWORD PTR [ebx]
  0003d	f3 0f 10 4b 04	 movss	 xmm1, DWORD PTR [ebx+4]
  00042	f3 0f 11 45 f0	 movss	 DWORD PTR _vNewPos$530618[ebp], xmm0
  00047	f3 0f 10 81 00
	09 00 00	 movss	 xmm0, DWORD PTR [ecx+2304]
  0004f	0f 5a c0	 cvtps2pd xmm0, xmm0
  00052	0f 5a c9	 cvtps2pd xmm1, xmm1
  00055	f2 0f 58 c1	 addsd	 xmm0, xmm1
  00059	66 0f 5a c0	 cvtpd2ps xmm0, xmm0
  0005d	f3 0f 11 45 f4	 movss	 DWORD PTR _vNewPos$530618[ebp+4], xmm0
  00062	f3 0f 10 43 08	 movss	 xmm0, DWORD PTR [ebx+8]

; 92   : 		m_pMeteor->GetParentSceneNode()->SetPosition( vNewPos );

  00067	8d 48 14	 lea	 ecx, DWORD PTR [eax+20]
  0006a	f3 0f 11 45 f8	 movss	 DWORD PTR _vNewPos$530618[ebp+8], xmm0
  0006f	8b 01		 mov	 eax, DWORD PTR [ecx]
  00071	ff 50 34	 call	 DWORD PTR [eax+52]
  00074	8b 10		 mov	 edx, DWORD PTR [eax]
  00076	8d 4d f0	 lea	 ecx, DWORD PTR _vNewPos$530618[ebp]
  00079	51		 push	 ecx
  0007a	8b c8		 mov	 ecx, eax
  0007c	ff 52 14	 call	 DWORD PTR [edx+20]
$LN1@SetStartPo:

; 93   : 	}
; 94   : }

  0007f	8b 4d fc	 mov	 ecx, DWORD PTR __$ArrayPad$[ebp]
  00082	5f		 pop	 edi
  00083	5e		 pop	 esi
  00084	33 cd		 xor	 ecx, ebp
  00086	5b		 pop	 ebx
  00087	e8 00 00 00 00	 call	 @__security_check_cookie@4
  0008c	c9		 leave
  0008d	c2 08 00	 ret	 8
?SetStartPosition@ioFlameWeapon@@UAEXABUD3DXVECTOR3@@PAVioPlayStage@@@Z ENDP ; ioFlameWeapon::SetStartPosition
_TEXT	ENDS
EXTRN	__imp_?Transform@ioOrientBox@@QAEXABUD3DXVECTOR3@@0ABUD3DXQUATERNION@@@Z:PROC
EXTRN	__imp_?UNIT_ALL@ioMath@@2UD3DXVECTOR3@@A:BYTE
EXTRN	?GetOrientation@ioWeapon@@QBEABUD3DXQUATERNION@@XZ:PROC ; ioWeapon::GetOrientation
EXTRN	__imp_?IsNull@ioOrientBox@@QBE_NXZ:PROC
EXTRN	__imp_?GetExtents@ioOrientBox@@QBEMH@Z:PROC
EXTRN	__imp_?SetNull@ioOrientBox@@QAEXXZ:PROC
; Function compile flags: /Ogsp
;	COMDAT ?UpdateWorldAttackBox@ioFlameWeapon@@MAEXM_N@Z
_TEXT	SEGMENT
tv304 = -8						; size = 4
tv310 = -4						; size = 4
tv294 = -4						; size = 4
_fTimePerSec$ = 8					; size = 4
tv298 = 12						; size = 4
_fMapCollisionRate$ = 12				; size = 4
_bSetNull$ = 12						; size = 1
?UpdateWorldAttackBox@ioFlameWeapon@@MAEXM_N@Z PROC	; ioFlameWeapon::UpdateWorldAttackBox, COMDAT
; _this$ = ecx

; 209  : {

  00000	55		 push	 ebp
  00001	8b ec		 mov	 ebp, esp
  00003	51		 push	 ecx
  00004	51		 push	 ecx
  00005	53		 push	 ebx
  00006	8b d9		 mov	 ebx, ecx

; 210  : 	if( !IsLive() && bSetNull )

  00008	80 bb 82 05 00
	00 00		 cmp	 BYTE PTR [ebx+1410], 0
  0000f	56		 push	 esi
  00010	75 21		 jne	 SHORT $LN2@UpdateWorl
  00012	80 7d 0c 00	 cmp	 BYTE PTR _bSetNull$[ebp], 0
  00016	74 1b		 je	 SHORT $LN2@UpdateWorl

; 211  : 	{
; 212  : 		m_WorldAttackBox.SetNull();

  00018	8b 35 00 00 00
	00		 mov	 esi, DWORD PTR __imp_?SetNull@ioOrientBox@@QAEXXZ
  0001e	8d 8b e8 04 00
	00		 lea	 ecx, DWORD PTR [ebx+1256]
  00024	ff d6		 call	 esi

; 213  : 		m_WorldAttackBoxForMap.SetNull();

  00026	8d 8b 2c 05 00
	00		 lea	 ecx, DWORD PTR [ebx+1324]
  0002c	ff d6		 call	 esi

; 214  : 		return;

  0002e	e9 f8 00 00 00	 jmp	 $LN1@UpdateWorl
$LN2@UpdateWorl:

; 215  : 	}
; 216  : 
; 217  : 	m_WorldAttackBox = GetLocalAttackBox();

  00033	8b 03		 mov	 eax, DWORD PTR [ebx]
  00035	57		 push	 edi
  00036	ff 90 00 01 00
	00		 call	 DWORD PTR [eax+256]
  0003c	6a 11		 push	 17			; 00000011H
  0003e	59		 pop	 ecx
  0003f	8b f0		 mov	 esi, eax
  00041	8d bb e8 04 00
	00		 lea	 edi, DWORD PTR [ebx+1256]
  00047	f3 a5		 rep movsd

; 218  : 	m_WorldAttackBoxForMap = m_WorldAttackBox;

  00049	6a 11		 push	 17			; 00000011H
  0004b	8b f0		 mov	 esi, eax

; 219  : 
; 220  : 	float fMapCollisionRate = GetAttribute()->m_fMapCollisionBoxRate;

  0004d	8b 03		 mov	 eax, DWORD PTR [ebx]
  0004f	59		 pop	 ecx
  00050	8d bb 2c 05 00
	00		 lea	 edi, DWORD PTR [ebx+1324]
  00056	f3 a5		 rep movsd
  00058	8b cb		 mov	 ecx, ebx
  0005a	ff 90 3c 01 00
	00		 call	 DWORD PTR [eax+316]

; 221  : 	m_WorldAttackBoxForMap.SetExtents( 0, m_WorldAttackBox.GetExtents(0)*fMapCollisionRate );

  00060	6a 00		 push	 0
  00062	d9 80 a8 01 00
	00		 fld	 DWORD PTR [eax+424]
  00068	8d 8b e8 04 00
	00		 lea	 ecx, DWORD PTR [ebx+1256]
  0006e	d9 5d 0c	 fstp	 DWORD PTR _fMapCollisionRate$[ebp]
  00071	ff 15 00 00 00
	00		 call	 DWORD PTR __imp_?GetExtents@ioOrientBox@@QBEMH@Z
  00077	d8 4d 0c	 fmul	 DWORD PTR _fMapCollisionRate$[ebp]
  0007a	8b 35 00 00 00
	00		 mov	 esi, DWORD PTR __imp_?SetExtents@ioOrientBox@@QAEXHM@Z
  00080	51		 push	 ecx
  00081	8d 8b 2c 05 00
	00		 lea	 ecx, DWORD PTR [ebx+1324]
  00087	d9 5d fc	 fstp	 DWORD PTR tv310[ebp]
  0008a	d9 45 fc	 fld	 DWORD PTR tv310[ebp]
  0008d	89 4d fc	 mov	 DWORD PTR tv294[ebp], ecx
  00090	d9 1c 24	 fstp	 DWORD PTR [esp]
  00093	6a 00		 push	 0
  00095	ff d6		 call	 esi

; 222  : 	m_WorldAttackBoxForMap.SetExtents( 1, m_WorldAttackBox.GetExtents(1)*fMapCollisionRate );

  00097	6a 01		 push	 1
  00099	8d 8b e8 04 00
	00		 lea	 ecx, DWORD PTR [ebx+1256]
  0009f	ff 15 00 00 00
	00		 call	 DWORD PTR __imp_?GetExtents@ioOrientBox@@QBEMH@Z
  000a5	d8 4d 0c	 fmul	 DWORD PTR _fMapCollisionRate$[ebp]
  000a8	51		 push	 ecx
  000a9	8b 4d fc	 mov	 ecx, DWORD PTR tv294[ebp]
  000ac	d9 5d f8	 fstp	 DWORD PTR tv304[ebp]
  000af	d9 45 f8	 fld	 DWORD PTR tv304[ebp]
  000b2	d9 1c 24	 fstp	 DWORD PTR [esp]
  000b5	6a 01		 push	 1
  000b7	ff d6		 call	 esi

; 223  : 	m_WorldAttackBoxForMap.SetExtents( 2, m_WorldAttackBox.GetExtents(2)*fMapCollisionRate );

  000b9	6a 02		 push	 2
  000bb	8d 8b e8 04 00
	00		 lea	 ecx, DWORD PTR [ebx+1256]
  000c1	ff 15 00 00 00
	00		 call	 DWORD PTR __imp_?GetExtents@ioOrientBox@@QBEMH@Z
  000c7	d8 4d 0c	 fmul	 DWORD PTR _fMapCollisionRate$[ebp]
  000ca	51		 push	 ecx
  000cb	8b 4d fc	 mov	 ecx, DWORD PTR tv294[ebp]
  000ce	d9 5d 0c	 fstp	 DWORD PTR tv298[ebp]
  000d1	d9 45 0c	 fld	 DWORD PTR tv298[ebp]
  000d4	d9 1c 24	 fstp	 DWORD PTR [esp]
  000d7	6a 02		 push	 2
  000d9	ff d6		 call	 esi

; 224  : 
; 225  : 	if( !m_WorldAttackBox.IsNull() )

  000db	8d 8b e8 04 00
	00		 lea	 ecx, DWORD PTR [ebx+1256]
  000e1	ff 15 00 00 00
	00		 call	 DWORD PTR __imp_?IsNull@ioOrientBox@@QBE_NXZ
  000e7	84 c0		 test	 al, al
  000e9	75 3f		 jne	 SHORT $LN7@UpdateWorl

; 226  : 	{
; 227  : 		m_WorldAttackBox.Transform( GetPosition(), ioMath::UNIT_ALL, GetOrientation() );

  000eb	8b cb		 mov	 ecx, ebx
  000ed	e8 00 00 00 00	 call	 ?GetOrientation@ioWeapon@@QBEABUD3DXQUATERNION@@XZ ; ioWeapon::GetOrientation
  000f2	50		 push	 eax
  000f3	ff 35 00 00 00
	00		 push	 DWORD PTR __imp_?UNIT_ALL@ioMath@@2UD3DXVECTOR3@@A
  000f9	8b 03		 mov	 eax, DWORD PTR [ebx]
  000fb	8b cb		 mov	 ecx, ebx
  000fd	ff 50 70	 call	 DWORD PTR [eax+112]
  00100	8b 35 00 00 00
	00		 mov	 esi, DWORD PTR __imp_?Transform@ioOrientBox@@QAEXABUD3DXVECTOR3@@0ABUD3DXQUATERNION@@@Z
  00106	50		 push	 eax
  00107	8d 8b e8 04 00
	00		 lea	 ecx, DWORD PTR [ebx+1256]
  0010d	ff d6		 call	 esi

; 228  : 		m_WorldAttackBoxForMap.Transform( GetPosition(), ioMath::UNIT_ALL, GetOrientation() );

  0010f	8b cb		 mov	 ecx, ebx
  00111	e8 00 00 00 00	 call	 ?GetOrientation@ioWeapon@@QBEABUD3DXQUATERNION@@XZ ; ioWeapon::GetOrientation
  00116	50		 push	 eax
  00117	ff 35 00 00 00
	00		 push	 DWORD PTR __imp_?UNIT_ALL@ioMath@@2UD3DXVECTOR3@@A
  0011d	8b 03		 mov	 eax, DWORD PTR [ebx]
  0011f	8b cb		 mov	 ecx, ebx
  00121	ff 50 70	 call	 DWORD PTR [eax+112]
  00124	8b 4d fc	 mov	 ecx, DWORD PTR tv294[ebp]
  00127	50		 push	 eax
  00128	ff d6		 call	 esi
$LN7@UpdateWorl:
  0012a	5f		 pop	 edi
$LN1@UpdateWorl:
  0012b	5e		 pop	 esi
  0012c	5b		 pop	 ebx

; 229  : 	}
; 230  : }

  0012d	c9		 leave
  0012e	c2 08 00	 ret	 8
?UpdateWorldAttackBox@ioFlameWeapon@@MAEXM_N@Z ENDP	; ioFlameWeapon::UpdateWorldAttackBox
_TEXT	ENDS
PUBLIC	__$ArrayPad$
PUBLIC	??$LoadFloat_e@$0BA@@ioINILoader@@QAEMAAY0BA@$$CBDM@Z ; ioINILoader::LoadFloat_e<16>
EXTRN	__imp_?LoadFloat@ioINILoader@@QAEMPBDM@Z:PROC
; Function compile flags: /Ogsp
; File d:\lost saga for developer\youtube\tutorial\source\src\io3dengine\ioiniloader.h
;	COMDAT ??$LoadFloat_e@$0BA@@ioINILoader@@QAEMAAY0BA@$$CBDM@Z
_TEXT	SEGMENT
__k$ = -24						; size = 16
__$ArrayPad$ = -4					; size = 4
_k$ = 8							; size = 4
_f$ = 12						; size = 4
??$LoadFloat_e@$0BA@@ioINILoader@@QAEMAAY0BA@$$CBDM@Z PROC ; ioINILoader::LoadFloat_e<16>, COMDAT
; _this$ = ecx

; 135  : 	{

  00000	55		 push	 ebp
  00001	8b ec		 mov	 ebp, esp
  00003	83 ec 18	 sub	 esp, 24			; 00000018H
  00006	a1 00 00 00 00	 mov	 eax, DWORD PTR ___security_cookie
  0000b	33 c5		 xor	 eax, ebp
  0000d	89 45 fc	 mov	 DWORD PTR __$ArrayPad$[ebp], eax
  00010	8b 45 08	 mov	 eax, DWORD PTR _k$[ebp]

; 136  : 		_ENCSTR(k, _k);

  00013	8a 10		 mov	 dl, BYTE PTR [eax]
  00015	56		 push	 esi
  00016	8b f1		 mov	 esi, ecx
  00018	84 d2		 test	 dl, dl
  0001a	0f 84 8c 01 00
	00		 je	 $LN96@LoadFloat_
  00020	80 f2 ed	 xor	 dl, -19			; ffffffedH
  00023	88 55 e8	 mov	 BYTE PTR __k$[ebp], dl
  00026	8a 50 01	 mov	 dl, BYTE PTR [eax+1]
  00029	84 d2		 test	 dl, dl
  0002b	0f 84 75 01 00
	00		 je	 $LN95@LoadFloat_
  00031	80 f2 ec	 xor	 dl, -20			; ffffffecH
  00034	88 55 e9	 mov	 BYTE PTR __k$[ebp+1], dl
  00037	8a 50 02	 mov	 dl, BYTE PTR [eax+2]
  0003a	84 d2		 test	 dl, dl
  0003c	0f 84 5e 01 00
	00		 je	 $LN94@LoadFloat_
  00042	b1 eb		 mov	 cl, -21			; ffffffebH
  00044	32 d1		 xor	 dl, cl
  00046	88 55 ea	 mov	 BYTE PTR __k$[ebp+2], dl
  00049	8a 50 03	 mov	 dl, BYTE PTR [eax+3]
  0004c	84 d2		 test	 dl, dl
  0004e	0f 84 46 01 00
	00		 je	 $LN93@LoadFloat_
  00054	80 f2 ea	 xor	 dl, -22			; ffffffeaH
  00057	88 55 eb	 mov	 BYTE PTR __k$[ebp+3], dl
  0005a	8a 50 04	 mov	 dl, BYTE PTR [eax+4]
  0005d	84 d2		 test	 dl, dl
  0005f	0f 84 2f 01 00
	00		 je	 $LN92@LoadFloat_
  00065	80 f2 ed	 xor	 dl, -19			; ffffffedH
  00068	88 55 ec	 mov	 BYTE PTR __k$[ebp+4], dl
  0006b	8a 50 05	 mov	 dl, BYTE PTR [eax+5]
  0006e	84 d2		 test	 dl, dl
  00070	0f 84 18 01 00
	00		 je	 $LN91@LoadFloat_
  00076	80 f2 ec	 xor	 dl, -20			; ffffffecH
  00079	88 55 ed	 mov	 BYTE PTR __k$[ebp+5], dl
  0007c	8a 50 06	 mov	 dl, BYTE PTR [eax+6]
  0007f	84 d2		 test	 dl, dl
  00081	0f 84 02 01 00
	00		 je	 $LN90@LoadFloat_
  00087	32 d1		 xor	 dl, cl
  00089	88 55 ee	 mov	 BYTE PTR __k$[ebp+6], dl
  0008c	8a 50 07	 mov	 dl, BYTE PTR [eax+7]
  0008f	84 d2		 test	 dl, dl
  00091	0f 84 ec 00 00
	00		 je	 $LN89@LoadFloat_
  00097	80 f2 ea	 xor	 dl, -22			; ffffffeaH
  0009a	88 55 ef	 mov	 BYTE PTR __k$[ebp+7], dl
  0009d	8a 50 08	 mov	 dl, BYTE PTR [eax+8]
  000a0	84 d2		 test	 dl, dl
  000a2	0f 84 d5 00 00
	00		 je	 $LN88@LoadFloat_
  000a8	80 f2 ed	 xor	 dl, -19			; ffffffedH
  000ab	88 55 f0	 mov	 BYTE PTR __k$[ebp+8], dl
  000ae	8a 50 09	 mov	 dl, BYTE PTR [eax+9]
  000b1	84 d2		 test	 dl, dl
  000b3	0f 84 be 00 00
	00		 je	 $LN87@LoadFloat_
  000b9	80 f2 ec	 xor	 dl, -20			; ffffffecH
  000bc	88 55 f1	 mov	 BYTE PTR __k$[ebp+9], dl
  000bf	8a 50 0a	 mov	 dl, BYTE PTR [eax+10]
  000c2	84 d2		 test	 dl, dl
  000c4	0f 84 a8 00 00
	00		 je	 $LN86@LoadFloat_
  000ca	32 d1		 xor	 dl, cl
  000cc	88 55 f2	 mov	 BYTE PTR __k$[ebp+10], dl
  000cf	8a 50 0b	 mov	 dl, BYTE PTR [eax+11]
  000d2	84 d2		 test	 dl, dl
  000d4	0f 84 92 00 00
	00		 je	 $LN85@LoadFloat_
  000da	80 f2 ea	 xor	 dl, -22			; ffffffeaH
  000dd	88 55 f3	 mov	 BYTE PTR __k$[ebp+11], dl
  000e0	8a 50 0c	 mov	 dl, BYTE PTR [eax+12]
  000e3	84 d2		 test	 dl, dl
  000e5	74 7f		 je	 SHORT $LN84@LoadFloat_
  000e7	80 f2 ed	 xor	 dl, -19			; ffffffedH
  000ea	88 55 f4	 mov	 BYTE PTR __k$[ebp+12], dl
  000ed	8a 50 0d	 mov	 dl, BYTE PTR [eax+13]
  000f0	84 d2		 test	 dl, dl
  000f2	74 6c		 je	 SHORT $LN83@LoadFloat_
  000f4	80 f2 ec	 xor	 dl, -20			; ffffffecH
  000f7	88 55 f5	 mov	 BYTE PTR __k$[ebp+13], dl
  000fa	8a 50 0e	 mov	 dl, BYTE PTR [eax+14]
  000fd	84 d2		 test	 dl, dl
  000ff	74 5a		 je	 SHORT $LN82@LoadFloat_
  00101	32 d1		 xor	 dl, cl
  00103	80 78 0f 00	 cmp	 BYTE PTR [eax+15], 0
  00107	88 55 f6	 mov	 BYTE PTR __k$[ebp+14], dl
  0010a	0f 84 a0 00 00
	00		 je	 $LN1@LoadFloat_
  00110	8a 50 10	 mov	 dl, BYTE PTR [eax+16]
  00113	84 d2		 test	 dl, dl
  00115	74 3e		 je	 SHORT $LN80@LoadFloat_
  00117	80 f2 ed	 xor	 dl, -19			; ffffffedH
  0011a	88 55 f8	 mov	 BYTE PTR __k$[ebp+16], dl
  0011d	8a 50 11	 mov	 dl, BYTE PTR [eax+17]
  00120	84 d2		 test	 dl, dl
  00122	74 2b		 je	 SHORT $LN79@LoadFloat_
  00124	80 f2 ec	 xor	 dl, -20			; ffffffecH
  00127	88 55 f9	 mov	 BYTE PTR __k$[ebp+17], dl
  0012a	8a 50 12	 mov	 dl, BYTE PTR [eax+18]
  0012d	84 d2		 test	 dl, dl
  0012f	74 19		 je	 SHORT $LN78@LoadFloat_
  00131	8a 40 13	 mov	 al, BYTE PTR [eax+19]
  00134	32 d1		 xor	 dl, cl
  00136	88 55 fa	 mov	 BYTE PTR __k$[ebp+18], dl
  00139	84 c0		 test	 al, al
  0013b	74 07		 je	 SHORT $LN77@LoadFloat_
  0013d	34 ea		 xor	 al, -22			; ffffffeaH
  0013f	88 45 fb	 mov	 BYTE PTR __k$[ebp+19], al
  00142	eb 6c		 jmp	 SHORT $LN1@LoadFloat_
$LN77@LoadFloat_:
  00144	c6 45 fb ea	 mov	 BYTE PTR __k$[ebp+19], -22 ; ffffffeaH
  00148	eb 66		 jmp	 SHORT $LN1@LoadFloat_
$LN78@LoadFloat_:
  0014a	88 4d fa	 mov	 BYTE PTR __k$[ebp+18], cl
  0014d	eb 61		 jmp	 SHORT $LN1@LoadFloat_
$LN79@LoadFloat_:
  0014f	c6 45 f9 ec	 mov	 BYTE PTR __k$[ebp+17], -20 ; ffffffecH
  00153	eb 5b		 jmp	 SHORT $LN1@LoadFloat_
$LN80@LoadFloat_:
  00155	c6 45 f8 ed	 mov	 BYTE PTR __k$[ebp+16], -19 ; ffffffedH
  00159	eb 55		 jmp	 SHORT $LN1@LoadFloat_
$LN82@LoadFloat_:
  0015b	88 4d f6	 mov	 BYTE PTR __k$[ebp+14], cl
  0015e	eb 50		 jmp	 SHORT $LN1@LoadFloat_
$LN83@LoadFloat_:
  00160	c6 45 f5 ec	 mov	 BYTE PTR __k$[ebp+13], -20 ; ffffffecH
  00164	eb 4a		 jmp	 SHORT $LN1@LoadFloat_
$LN84@LoadFloat_:
  00166	c6 45 f4 ed	 mov	 BYTE PTR __k$[ebp+12], -19 ; ffffffedH
  0016a	eb 44		 jmp	 SHORT $LN1@LoadFloat_
$LN85@LoadFloat_:
  0016c	c6 45 f3 ea	 mov	 BYTE PTR __k$[ebp+11], -22 ; ffffffeaH
  00170	eb 3e		 jmp	 SHORT $LN1@LoadFloat_
$LN86@LoadFloat_:
  00172	88 4d f2	 mov	 BYTE PTR __k$[ebp+10], cl
  00175	eb 39		 jmp	 SHORT $LN1@LoadFloat_
$LN87@LoadFloat_:
  00177	c6 45 f1 ec	 mov	 BYTE PTR __k$[ebp+9], -20 ; ffffffecH
  0017b	eb 33		 jmp	 SHORT $LN1@LoadFloat_
$LN88@LoadFloat_:
  0017d	c6 45 f0 ed	 mov	 BYTE PTR __k$[ebp+8], -19 ; ffffffedH
  00181	eb 2d		 jmp	 SHORT $LN1@LoadFloat_
$LN89@LoadFloat_:
  00183	c6 45 ef ea	 mov	 BYTE PTR __k$[ebp+7], -22 ; ffffffeaH
  00187	eb 27		 jmp	 SHORT $LN1@LoadFloat_
$LN90@LoadFloat_:
  00189	88 4d ee	 mov	 BYTE PTR __k$[ebp+6], cl
  0018c	eb 22		 jmp	 SHORT $LN1@LoadFloat_
$LN91@LoadFloat_:
  0018e	c6 45 ed ec	 mov	 BYTE PTR __k$[ebp+5], -20 ; ffffffecH
  00192	eb 1c		 jmp	 SHORT $LN1@LoadFloat_
$LN92@LoadFloat_:
  00194	c6 45 ec ed	 mov	 BYTE PTR __k$[ebp+4], -19 ; ffffffedH
  00198	eb 16		 jmp	 SHORT $LN1@LoadFloat_
$LN93@LoadFloat_:
  0019a	c6 45 eb ea	 mov	 BYTE PTR __k$[ebp+3], -22 ; ffffffeaH
  0019e	eb 10		 jmp	 SHORT $LN1@LoadFloat_
$LN94@LoadFloat_:
  001a0	c6 45 ea eb	 mov	 BYTE PTR __k$[ebp+2], -21 ; ffffffebH
  001a4	eb 0a		 jmp	 SHORT $LN1@LoadFloat_
$LN95@LoadFloat_:
  001a6	c6 45 e9 ec	 mov	 BYTE PTR __k$[ebp+1], -20 ; ffffffecH
  001aa	eb 04		 jmp	 SHORT $LN1@LoadFloat_
$LN96@LoadFloat_:
  001ac	c6 45 e8 ed	 mov	 BYTE PTR __k$[ebp], -19	; ffffffedH
$LN1@LoadFloat_:
  001b0	6a 03		 push	 3
  001b2	8d 45 e8	 lea	 eax, DWORD PTR __k$[ebp]
  001b5	c6 45 f7 00	 mov	 BYTE PTR __k$[ebp+15], 0
  001b9	5a		 pop	 edx
$LL104@LoadFloat_:
  001ba	81 30 ed ec eb
	ea		 xor	 DWORD PTR [eax], -353637139 ; eaebecedH
  001c0	83 c0 04	 add	 eax, 4
  001c3	4a		 dec	 edx
  001c4	75 f4		 jne	 SHORT $LL104@LoadFloat_
  001c6	6a 0c		 push	 12			; 0000000cH
  001c8	58		 pop	 eax
$LL101@LoadFloat_:
  001c9	8b c8		 mov	 ecx, eax
  001cb	81 e1 03 00 00
	80		 and	 ecx, -2147483645	; 80000003H
  001d1	79 05		 jns	 SHORT $LN111@LoadFloat_
  001d3	49		 dec	 ecx
  001d4	83 c9 fc	 or	 ecx, -4			; fffffffcH
  001d7	41		 inc	 ecx
$LN111@LoadFloat_:
  001d8	b2 ed		 mov	 dl, -19			; ffffffedH
  001da	2a d1		 sub	 dl, cl
  001dc	30 54 05 e8	 xor	 BYTE PTR __k$[ebp+eax], dl
  001e0	40		 inc	 eax
  001e1	83 f8 0f	 cmp	 eax, 15			; 0000000fH
  001e4	7c e3		 jl	 SHORT $LL101@LoadFloat_

; 137  : 		return LoadFloat(_k, f);

  001e6	f3 0f 10 45 0c	 movss	 xmm0, DWORD PTR _f$[ebp]
  001eb	51		 push	 ecx
  001ec	8d 45 e8	 lea	 eax, DWORD PTR __k$[ebp]
  001ef	f3 0f 11 04 24	 movss	 DWORD PTR [esp], xmm0
  001f4	50		 push	 eax
  001f5	8b ce		 mov	 ecx, esi
  001f7	ff 15 00 00 00
	00		 call	 DWORD PTR __imp_?LoadFloat@ioINILoader@@QAEMPBDM@Z

; 138  : 	}

  001fd	8b 4d fc	 mov	 ecx, DWORD PTR __$ArrayPad$[ebp]
  00200	33 cd		 xor	 ecx, ebp
  00202	5e		 pop	 esi
  00203	e8 00 00 00 00	 call	 @__security_check_cookie@4
  00208	c9		 leave
  00209	c2 08 00	 ret	 8
??$LoadFloat_e@$0BA@@ioINILoader@@QAEMAAY0BA@$$CBDM@Z ENDP ; ioINILoader::LoadFloat_e<16>
_TEXT	ENDS
PUBLIC	__$ArrayPad$
PUBLIC	??$LoadFloat_e@$0N@@ioINILoader@@QAEMAAY0N@$$CBDM@Z ; ioINILoader::LoadFloat_e<13>
; Function compile flags: /Ogsp
;	COMDAT ??$LoadFloat_e@$0N@@ioINILoader@@QAEMAAY0N@$$CBDM@Z
_TEXT	SEGMENT
__k$ = -24						; size = 13
__$ArrayPad$ = -4					; size = 4
_k$ = 8							; size = 4
_f$ = 12						; size = 4
??$LoadFloat_e@$0N@@ioINILoader@@QAEMAAY0N@$$CBDM@Z PROC ; ioINILoader::LoadFloat_e<13>, COMDAT
; _this$ = ecx

; 135  : 	{

  00000	55		 push	 ebp
  00001	8b ec		 mov	 ebp, esp
  00003	83 ec 18	 sub	 esp, 24			; 00000018H
  00006	a1 00 00 00 00	 mov	 eax, DWORD PTR ___security_cookie
  0000b	33 c5		 xor	 eax, ebp
  0000d	89 45 fc	 mov	 DWORD PTR __$ArrayPad$[ebp], eax
  00010	8b 45 08	 mov	 eax, DWORD PTR _k$[ebp]

; 136  : 		_ENCSTR(k, _k);

  00013	8a 10		 mov	 dl, BYTE PTR [eax]
  00015	56		 push	 esi
  00016	8b f1		 mov	 esi, ecx
  00018	84 d2		 test	 dl, dl
  0001a	0f 84 4d 01 00
	00		 je	 $LN96@LoadFloat_@2
  00020	80 f2 ed	 xor	 dl, -19			; ffffffedH
  00023	88 55 e8	 mov	 BYTE PTR __k$[ebp], dl
  00026	8a 50 01	 mov	 dl, BYTE PTR [eax+1]
  00029	84 d2		 test	 dl, dl
  0002b	0f 84 36 01 00
	00		 je	 $LN95@LoadFloat_@2
  00031	b1 ec		 mov	 cl, -20			; ffffffecH
  00033	32 d1		 xor	 dl, cl
  00035	88 55 e9	 mov	 BYTE PTR __k$[ebp+1], dl
  00038	8a 50 02	 mov	 dl, BYTE PTR [eax+2]
  0003b	84 d2		 test	 dl, dl
  0003d	0f 84 1e 01 00
	00		 je	 $LN94@LoadFloat_@2
  00043	80 f2 eb	 xor	 dl, -21			; ffffffebH
  00046	88 55 ea	 mov	 BYTE PTR __k$[ebp+2], dl
  00049	8a 50 03	 mov	 dl, BYTE PTR [eax+3]
  0004c	84 d2		 test	 dl, dl
  0004e	0f 84 07 01 00
	00		 je	 $LN93@LoadFloat_@2
  00054	80 f2 ea	 xor	 dl, -22			; ffffffeaH
  00057	88 55 eb	 mov	 BYTE PTR __k$[ebp+3], dl
  0005a	8a 50 04	 mov	 dl, BYTE PTR [eax+4]
  0005d	84 d2		 test	 dl, dl
  0005f	0f 84 f0 00 00
	00		 je	 $LN92@LoadFloat_@2
  00065	80 f2 ed	 xor	 dl, -19			; ffffffedH
  00068	88 55 ec	 mov	 BYTE PTR __k$[ebp+4], dl
  0006b	8a 50 05	 mov	 dl, BYTE PTR [eax+5]
  0006e	84 d2		 test	 dl, dl
  00070	0f 84 da 00 00
	00		 je	 $LN91@LoadFloat_@2
  00076	32 d1		 xor	 dl, cl
  00078	88 55 ed	 mov	 BYTE PTR __k$[ebp+5], dl
  0007b	8a 50 06	 mov	 dl, BYTE PTR [eax+6]
  0007e	84 d2		 test	 dl, dl
  00080	0f 84 c4 00 00
	00		 je	 $LN90@LoadFloat_@2
  00086	80 f2 eb	 xor	 dl, -21			; ffffffebH
  00089	88 55 ee	 mov	 BYTE PTR __k$[ebp+6], dl
  0008c	8a 50 07	 mov	 dl, BYTE PTR [eax+7]
  0008f	84 d2		 test	 dl, dl
  00091	0f 84 ad 00 00
	00		 je	 $LN89@LoadFloat_@2
  00097	80 f2 ea	 xor	 dl, -22			; ffffffeaH
  0009a	88 55 ef	 mov	 BYTE PTR __k$[ebp+7], dl
  0009d	8a 50 08	 mov	 dl, BYTE PTR [eax+8]
  000a0	84 d2		 test	 dl, dl
  000a2	0f 84 96 00 00
	00		 je	 $LN88@LoadFloat_@2
  000a8	80 f2 ed	 xor	 dl, -19			; ffffffedH
  000ab	88 55 f0	 mov	 BYTE PTR __k$[ebp+8], dl
  000ae	8a 50 09	 mov	 dl, BYTE PTR [eax+9]
  000b1	84 d2		 test	 dl, dl
  000b3	0f 84 80 00 00
	00		 je	 $LN87@LoadFloat_@2
  000b9	32 d1		 xor	 dl, cl
  000bb	88 55 f1	 mov	 BYTE PTR __k$[ebp+9], dl
  000be	8a 50 0a	 mov	 dl, BYTE PTR [eax+10]
  000c1	84 d2		 test	 dl, dl
  000c3	74 6e		 je	 SHORT $LN86@LoadFloat_@2
  000c5	80 f2 eb	 xor	 dl, -21			; ffffffebH
  000c8	88 55 f2	 mov	 BYTE PTR __k$[ebp+10], dl
  000cb	8a 50 0b	 mov	 dl, BYTE PTR [eax+11]
  000ce	84 d2		 test	 dl, dl
  000d0	74 5b		 je	 SHORT $LN85@LoadFloat_@2
  000d2	80 f2 ea	 xor	 dl, -22			; ffffffeaH
  000d5	80 78 0c 00	 cmp	 BYTE PTR [eax+12], 0
  000d9	88 55 f3	 mov	 BYTE PTR __k$[ebp+11], dl
  000dc	0f 84 8f 00 00
	00		 je	 $LN1@LoadFloat_@2
  000e2	8a 50 0d	 mov	 dl, BYTE PTR [eax+13]
  000e5	84 d2		 test	 dl, dl
  000e7	74 3f		 je	 SHORT $LN83@LoadFloat_@2
  000e9	32 d1		 xor	 dl, cl
  000eb	88 55 f5	 mov	 BYTE PTR __k$[ebp+13], dl
  000ee	8a 50 0e	 mov	 dl, BYTE PTR [eax+14]
  000f1	84 d2		 test	 dl, dl
  000f3	74 2d		 je	 SHORT $LN82@LoadFloat_@2
  000f5	80 f2 eb	 xor	 dl, -21			; ffffffebH
  000f8	88 55 f6	 mov	 BYTE PTR __k$[ebp+14], dl
  000fb	8a 50 0f	 mov	 dl, BYTE PTR [eax+15]
  000fe	84 d2		 test	 dl, dl
  00100	74 1a		 je	 SHORT $LN81@LoadFloat_@2
  00102	8a 40 10	 mov	 al, BYTE PTR [eax+16]
  00105	80 f2 ea	 xor	 dl, -22			; ffffffeaH
  00108	88 55 f7	 mov	 BYTE PTR __k$[ebp+15], dl
  0010b	84 c0		 test	 al, al
  0010d	74 07		 je	 SHORT $LN80@LoadFloat_@2
  0010f	34 ed		 xor	 al, -19			; ffffffedH
  00111	88 45 f8	 mov	 BYTE PTR __k$[ebp+16], al
  00114	eb 5b		 jmp	 SHORT $LN1@LoadFloat_@2
$LN80@LoadFloat_@2:
  00116	c6 45 f8 ed	 mov	 BYTE PTR __k$[ebp+16], -19 ; ffffffedH
  0011a	eb 55		 jmp	 SHORT $LN1@LoadFloat_@2
$LN81@LoadFloat_@2:
  0011c	c6 45 f7 ea	 mov	 BYTE PTR __k$[ebp+15], -22 ; ffffffeaH
  00120	eb 4f		 jmp	 SHORT $LN1@LoadFloat_@2
$LN82@LoadFloat_@2:
  00122	c6 45 f6 eb	 mov	 BYTE PTR __k$[ebp+14], -21 ; ffffffebH
  00126	eb 49		 jmp	 SHORT $LN1@LoadFloat_@2
$LN83@LoadFloat_@2:
  00128	88 4d f5	 mov	 BYTE PTR __k$[ebp+13], cl
  0012b	eb 44		 jmp	 SHORT $LN1@LoadFloat_@2
$LN85@LoadFloat_@2:
  0012d	c6 45 f3 ea	 mov	 BYTE PTR __k$[ebp+11], -22 ; ffffffeaH
  00131	eb 3e		 jmp	 SHORT $LN1@LoadFloat_@2
$LN86@LoadFloat_@2:
  00133	c6 45 f2 eb	 mov	 BYTE PTR __k$[ebp+10], -21 ; ffffffebH
  00137	eb 38		 jmp	 SHORT $LN1@LoadFloat_@2
$LN87@LoadFloat_@2:
  00139	88 4d f1	 mov	 BYTE PTR __k$[ebp+9], cl
  0013c	eb 33		 jmp	 SHORT $LN1@LoadFloat_@2
$LN88@LoadFloat_@2:
  0013e	c6 45 f0 ed	 mov	 BYTE PTR __k$[ebp+8], -19 ; ffffffedH
  00142	eb 2d		 jmp	 SHORT $LN1@LoadFloat_@2
$LN89@LoadFloat_@2:
  00144	c6 45 ef ea	 mov	 BYTE PTR __k$[ebp+7], -22 ; ffffffeaH
  00148	eb 27		 jmp	 SHORT $LN1@LoadFloat_@2
$LN90@LoadFloat_@2:
  0014a	c6 45 ee eb	 mov	 BYTE PTR __k$[ebp+6], -21 ; ffffffebH
  0014e	eb 21		 jmp	 SHORT $LN1@LoadFloat_@2
$LN91@LoadFloat_@2:
  00150	88 4d ed	 mov	 BYTE PTR __k$[ebp+5], cl
  00153	eb 1c		 jmp	 SHORT $LN1@LoadFloat_@2
$LN92@LoadFloat_@2:
  00155	c6 45 ec ed	 mov	 BYTE PTR __k$[ebp+4], -19 ; ffffffedH
  00159	eb 16		 jmp	 SHORT $LN1@LoadFloat_@2
$LN93@LoadFloat_@2:
  0015b	c6 45 eb ea	 mov	 BYTE PTR __k$[ebp+3], -22 ; ffffffeaH
  0015f	eb 10		 jmp	 SHORT $LN1@LoadFloat_@2
$LN94@LoadFloat_@2:
  00161	c6 45 ea eb	 mov	 BYTE PTR __k$[ebp+2], -21 ; ffffffebH
  00165	eb 0a		 jmp	 SHORT $LN1@LoadFloat_@2
$LN95@LoadFloat_@2:
  00167	c6 45 e9 ec	 mov	 BYTE PTR __k$[ebp+1], -20 ; ffffffecH
  0016b	eb 04		 jmp	 SHORT $LN1@LoadFloat_@2
$LN96@LoadFloat_@2:
  0016d	c6 45 e8 ed	 mov	 BYTE PTR __k$[ebp], -19	; ffffffedH
$LN1@LoadFloat_@2:
  00171	6a 03		 push	 3
  00173	8d 45 e8	 lea	 eax, DWORD PTR __k$[ebp]
  00176	c6 45 f4 00	 mov	 BYTE PTR __k$[ebp+12], 0
  0017a	5a		 pop	 edx
$LL104@LoadFloat_@2:
  0017b	81 30 ed ec eb
	ea		 xor	 DWORD PTR [eax], -353637139 ; eaebecedH
  00181	83 c0 04	 add	 eax, 4
  00184	4a		 dec	 edx
  00185	75 f4		 jne	 SHORT $LL104@LoadFloat_@2

; 137  : 		return LoadFloat(_k, f);

  00187	f3 0f 10 45 0c	 movss	 xmm0, DWORD PTR _f$[ebp]
  0018c	51		 push	 ecx
  0018d	8d 45 e8	 lea	 eax, DWORD PTR __k$[ebp]
  00190	f3 0f 11 04 24	 movss	 DWORD PTR [esp], xmm0
  00195	50		 push	 eax
  00196	8b ce		 mov	 ecx, esi
  00198	ff 15 00 00 00
	00		 call	 DWORD PTR __imp_?LoadFloat@ioINILoader@@QAEMPBDM@Z

; 138  : 	}

  0019e	8b 4d fc	 mov	 ecx, DWORD PTR __$ArrayPad$[ebp]
  001a1	33 cd		 xor	 ecx, ebp
  001a3	5e		 pop	 esi
  001a4	e8 00 00 00 00	 call	 @__security_check_cookie@4
  001a9	c9		 leave
  001aa	c2 08 00	 ret	 8
??$LoadFloat_e@$0N@@ioINILoader@@QAEMAAY0N@$$CBDM@Z ENDP ; ioINILoader::LoadFloat_e<13>
_TEXT	ENDS
PUBLIC	_this$GSCopy$
PUBLIC	__$ArrayPad$
PUBLIC	??$LoadString_e@$0M@@ioINILoader@@QAEXAAY0M@$$CBDAAY00$$CBDPADH@Z ; ioINILoader::LoadString_e<12>
EXTRN	__imp_?LoadStringA@ioINILoader@@QAEXPBD0PADH@Z:PROC
; Function compile flags: /Ogsp
;	COMDAT ??$LoadString_e@$0M@@ioINILoader@@QAEXAAY0M@$$CBDAAY00$$CBDPADH@Z
_TEXT	SEGMENT
_this$GSCopy$ = -24					; size = 4
__k$ = -20						; size = 12
__$ArrayPad$ = -4					; size = 4
_k$ = 8							; size = 4
_d$ = 12						; size = 4
_b$ = 16						; size = 4
_i$ = 20						; size = 4
??$LoadString_e@$0M@@ioINILoader@@QAEXAAY0M@$$CBDAAY00$$CBDPADH@Z PROC ; ioINILoader::LoadString_e<12>, COMDAT
; _this$ = ecx

; 161  : 	{

  00000	55		 push	 ebp
  00001	8b ec		 mov	 ebp, esp
  00003	83 ec 18	 sub	 esp, 24			; 00000018H
  00006	a1 00 00 00 00	 mov	 eax, DWORD PTR ___security_cookie
  0000b	33 c5		 xor	 eax, ebp
  0000d	89 45 fc	 mov	 DWORD PTR __$ArrayPad$[ebp], eax
  00010	8b 45 08	 mov	 eax, DWORD PTR _k$[ebp]

; 162  : 		_ENCSTR(k, _k);

  00013	8a 10		 mov	 dl, BYTE PTR [eax]
  00015	56		 push	 esi
  00016	8b 75 0c	 mov	 esi, DWORD PTR _d$[ebp]
  00019	57		 push	 edi
  0001a	8b 7d 10	 mov	 edi, DWORD PTR _b$[ebp]
  0001d	89 4d e8	 mov	 DWORD PTR _this$GSCopy$[ebp], ecx
  00020	84 d2		 test	 dl, dl
  00022	0f 84 32 01 00
	00		 je	 $LN96@LoadString
  00028	80 f2 ed	 xor	 dl, -19			; ffffffedH
  0002b	88 55 ec	 mov	 BYTE PTR __k$[ebp], dl
  0002e	8a 50 01	 mov	 dl, BYTE PTR [eax+1]
  00031	84 d2		 test	 dl, dl
  00033	0f 84 1b 01 00
	00		 je	 $LN95@LoadString
  00039	80 f2 ec	 xor	 dl, -20			; ffffffecH
  0003c	88 55 ed	 mov	 BYTE PTR __k$[ebp+1], dl
  0003f	8a 50 02	 mov	 dl, BYTE PTR [eax+2]
  00042	84 d2		 test	 dl, dl
  00044	0f 84 04 01 00
	00		 je	 $LN94@LoadString
  0004a	b1 eb		 mov	 cl, -21			; ffffffebH
  0004c	32 d1		 xor	 dl, cl
  0004e	88 55 ee	 mov	 BYTE PTR __k$[ebp+2], dl
  00051	8a 50 03	 mov	 dl, BYTE PTR [eax+3]
  00054	84 d2		 test	 dl, dl
  00056	0f 84 ec 00 00
	00		 je	 $LN93@LoadString
  0005c	80 f2 ea	 xor	 dl, -22			; ffffffeaH
  0005f	88 55 ef	 mov	 BYTE PTR __k$[ebp+3], dl
  00062	8a 50 04	 mov	 dl, BYTE PTR [eax+4]
  00065	84 d2		 test	 dl, dl
  00067	0f 84 d5 00 00
	00		 je	 $LN92@LoadString
  0006d	80 f2 ed	 xor	 dl, -19			; ffffffedH
  00070	88 55 f0	 mov	 BYTE PTR __k$[ebp+4], dl
  00073	8a 50 05	 mov	 dl, BYTE PTR [eax+5]
  00076	84 d2		 test	 dl, dl
  00078	0f 84 be 00 00
	00		 je	 $LN91@LoadString
  0007e	80 f2 ec	 xor	 dl, -20			; ffffffecH
  00081	88 55 f1	 mov	 BYTE PTR __k$[ebp+5], dl
  00084	8a 50 06	 mov	 dl, BYTE PTR [eax+6]
  00087	84 d2		 test	 dl, dl
  00089	0f 84 a8 00 00
	00		 je	 $LN90@LoadString
  0008f	32 d1		 xor	 dl, cl
  00091	88 55 f2	 mov	 BYTE PTR __k$[ebp+6], dl
  00094	8a 50 07	 mov	 dl, BYTE PTR [eax+7]
  00097	84 d2		 test	 dl, dl
  00099	0f 84 92 00 00
	00		 je	 $LN89@LoadString
  0009f	80 f2 ea	 xor	 dl, -22			; ffffffeaH
  000a2	88 55 f3	 mov	 BYTE PTR __k$[ebp+7], dl
  000a5	8a 50 08	 mov	 dl, BYTE PTR [eax+8]
  000a8	84 d2		 test	 dl, dl
  000aa	74 7f		 je	 SHORT $LN88@LoadString
  000ac	80 f2 ed	 xor	 dl, -19			; ffffffedH
  000af	88 55 f4	 mov	 BYTE PTR __k$[ebp+8], dl
  000b2	8a 50 09	 mov	 dl, BYTE PTR [eax+9]
  000b5	84 d2		 test	 dl, dl
  000b7	74 6c		 je	 SHORT $LN87@LoadString
  000b9	80 f2 ec	 xor	 dl, -20			; ffffffecH
  000bc	88 55 f5	 mov	 BYTE PTR __k$[ebp+9], dl
  000bf	8a 50 0a	 mov	 dl, BYTE PTR [eax+10]
  000c2	84 d2		 test	 dl, dl
  000c4	74 5a		 je	 SHORT $LN86@LoadString
  000c6	32 d1		 xor	 dl, cl
  000c8	80 78 0b 00	 cmp	 BYTE PTR [eax+11], 0
  000cc	88 55 f6	 mov	 BYTE PTR __k$[ebp+10], dl
  000cf	0f 84 89 00 00
	00		 je	 $LN111@LoadString
  000d5	8a 50 0c	 mov	 dl, BYTE PTR [eax+12]
  000d8	84 d2		 test	 dl, dl
  000da	74 3e		 je	 SHORT $LN84@LoadString
  000dc	80 f2 ed	 xor	 dl, -19			; ffffffedH
  000df	88 55 f8	 mov	 BYTE PTR __k$[ebp+12], dl
  000e2	8a 50 0d	 mov	 dl, BYTE PTR [eax+13]
  000e5	84 d2		 test	 dl, dl
  000e7	74 2b		 je	 SHORT $LN83@LoadString
  000e9	80 f2 ec	 xor	 dl, -20			; ffffffecH
  000ec	88 55 f9	 mov	 BYTE PTR __k$[ebp+13], dl
  000ef	8a 50 0e	 mov	 dl, BYTE PTR [eax+14]
  000f2	84 d2		 test	 dl, dl
  000f4	74 19		 je	 SHORT $LN82@LoadString
  000f6	8a 40 0f	 mov	 al, BYTE PTR [eax+15]
  000f9	32 d1		 xor	 dl, cl
  000fb	88 55 fa	 mov	 BYTE PTR __k$[ebp+14], dl
  000fe	84 c0		 test	 al, al
  00100	74 07		 je	 SHORT $LN81@LoadString
  00102	34 ea		 xor	 al, -22			; ffffffeaH
  00104	88 45 fb	 mov	 BYTE PTR __k$[ebp+15], al
  00107	eb 55		 jmp	 SHORT $LN111@LoadString
$LN81@LoadString:
  00109	c6 45 fb ea	 mov	 BYTE PTR __k$[ebp+15], -22 ; ffffffeaH
  0010d	eb 4f		 jmp	 SHORT $LN111@LoadString
$LN82@LoadString:
  0010f	88 4d fa	 mov	 BYTE PTR __k$[ebp+14], cl
  00112	eb 4a		 jmp	 SHORT $LN111@LoadString
$LN83@LoadString:
  00114	c6 45 f9 ec	 mov	 BYTE PTR __k$[ebp+13], -20 ; ffffffecH
  00118	eb 44		 jmp	 SHORT $LN111@LoadString
$LN84@LoadString:
  0011a	c6 45 f8 ed	 mov	 BYTE PTR __k$[ebp+12], -19 ; ffffffedH
  0011e	eb 3e		 jmp	 SHORT $LN111@LoadString
$LN86@LoadString:
  00120	88 4d f6	 mov	 BYTE PTR __k$[ebp+10], cl
  00123	eb 39		 jmp	 SHORT $LN111@LoadString
$LN87@LoadString:
  00125	c6 45 f5 ec	 mov	 BYTE PTR __k$[ebp+9], -20 ; ffffffecH
  00129	eb 33		 jmp	 SHORT $LN111@LoadString
$LN88@LoadString:
  0012b	c6 45 f4 ed	 mov	 BYTE PTR __k$[ebp+8], -19 ; ffffffedH
  0012f	eb 2d		 jmp	 SHORT $LN111@LoadString
$LN89@LoadString:
  00131	c6 45 f3 ea	 mov	 BYTE PTR __k$[ebp+7], -22 ; ffffffeaH
  00135	eb 27		 jmp	 SHORT $LN111@LoadString
$LN90@LoadString:
  00137	88 4d f2	 mov	 BYTE PTR __k$[ebp+6], cl
  0013a	eb 22		 jmp	 SHORT $LN111@LoadString
$LN91@LoadString:
  0013c	c6 45 f1 ec	 mov	 BYTE PTR __k$[ebp+5], -20 ; ffffffecH
  00140	eb 1c		 jmp	 SHORT $LN111@LoadString
$LN92@LoadString:
  00142	c6 45 f0 ed	 mov	 BYTE PTR __k$[ebp+4], -19 ; ffffffedH
  00146	eb 16		 jmp	 SHORT $LN111@LoadString
$LN93@LoadString:
  00148	c6 45 ef ea	 mov	 BYTE PTR __k$[ebp+3], -22 ; ffffffeaH
  0014c	eb 10		 jmp	 SHORT $LN111@LoadString
$LN94@LoadString:
  0014e	c6 45 ee eb	 mov	 BYTE PTR __k$[ebp+2], -21 ; ffffffebH
  00152	eb 0a		 jmp	 SHORT $LN111@LoadString
$LN95@LoadString:
  00154	c6 45 ed ec	 mov	 BYTE PTR __k$[ebp+1], -20 ; ffffffecH
  00158	eb 04		 jmp	 SHORT $LN111@LoadString
$LN96@LoadString:
  0015a	c6 45 ec ed	 mov	 BYTE PTR __k$[ebp], -19	; ffffffedH
$LN111@LoadString:
  0015e	6a 02		 push	 2
  00160	8d 45 ec	 lea	 eax, DWORD PTR __k$[ebp]
  00163	c6 45 f7 00	 mov	 BYTE PTR __k$[ebp+11], 0
  00167	5a		 pop	 edx
$LL104@LoadString:
  00168	81 30 ed ec eb
	ea		 xor	 DWORD PTR [eax], -353637139 ; eaebecedH
  0016e	83 c0 04	 add	 eax, 4
  00171	4a		 dec	 edx
  00172	75 f4		 jne	 SHORT $LL104@LoadString
  00174	6a 08		 push	 8
  00176	58		 pop	 eax
$LL101@LoadString:
  00177	8b c8		 mov	 ecx, eax
  00179	81 e1 03 00 00
	80		 and	 ecx, -2147483645	; 80000003H
  0017f	79 05		 jns	 SHORT $LN112@LoadString
  00181	49		 dec	 ecx
  00182	83 c9 fc	 or	 ecx, -4			; fffffffcH
  00185	41		 inc	 ecx
$LN112@LoadString:
  00186	b2 ed		 mov	 dl, -19			; ffffffedH
  00188	2a d1		 sub	 dl, cl
  0018a	30 54 05 ec	 xor	 BYTE PTR __k$[ebp+eax], dl
  0018e	40		 inc	 eax
  0018f	83 f8 0b	 cmp	 eax, 11			; 0000000bH
  00192	7c e3		 jl	 SHORT $LL101@LoadString

; 163  : 		LoadString(_k, d, b, i);

  00194	ff 75 14	 push	 DWORD PTR _i$[ebp]
  00197	8b 4d e8	 mov	 ecx, DWORD PTR _this$GSCopy$[ebp]
  0019a	57		 push	 edi
  0019b	56		 push	 esi
  0019c	8d 45 ec	 lea	 eax, DWORD PTR __k$[ebp]
  0019f	50		 push	 eax
  001a0	ff 15 00 00 00
	00		 call	 DWORD PTR __imp_?LoadStringA@ioINILoader@@QAEXPBD0PADH@Z

; 164  : 	}

  001a6	8b 4d fc	 mov	 ecx, DWORD PTR __$ArrayPad$[ebp]
  001a9	5f		 pop	 edi
  001aa	33 cd		 xor	 ecx, ebp
  001ac	5e		 pop	 esi
  001ad	e8 00 00 00 00	 call	 @__security_check_cookie@4
  001b2	c9		 leave
  001b3	c2 10 00	 ret	 16			; 00000010H
??$LoadString_e@$0M@@ioINILoader@@QAEXAAY0M@$$CBDAAY00$$CBDPADH@Z ENDP ; ioINILoader::LoadString_e<12>
_TEXT	ENDS
PUBLIC	_this$GSCopy$
PUBLIC	__$ArrayPad$
PUBLIC	??$LoadString_e@$0BA@@ioINILoader@@QAEXAAY0BA@$$CBDAAY00$$CBDPADH@Z ; ioINILoader::LoadString_e<16>
; Function compile flags: /Ogsp
;	COMDAT ??$LoadString_e@$0BA@@ioINILoader@@QAEXAAY0BA@$$CBDAAY00$$CBDPADH@Z
_TEXT	SEGMENT
_this$GSCopy$ = -28					; size = 4
__k$ = -24						; size = 16
__$ArrayPad$ = -4					; size = 4
_k$ = 8							; size = 4
_d$ = 12						; size = 4
_b$ = 16						; size = 4
_i$ = 20						; size = 4
??$LoadString_e@$0BA@@ioINILoader@@QAEXAAY0BA@$$CBDAAY00$$CBDPADH@Z PROC ; ioINILoader::LoadString_e<16>, COMDAT
; _this$ = ecx

; 161  : 	{

  00000	55		 push	 ebp
  00001	8b ec		 mov	 ebp, esp
  00003	83 ec 1c	 sub	 esp, 28			; 0000001cH
  00006	a1 00 00 00 00	 mov	 eax, DWORD PTR ___security_cookie
  0000b	33 c5		 xor	 eax, ebp
  0000d	89 45 fc	 mov	 DWORD PTR __$ArrayPad$[ebp], eax
  00010	8b 45 08	 mov	 eax, DWORD PTR _k$[ebp]

; 162  : 		_ENCSTR(k, _k);

  00013	8a 10		 mov	 dl, BYTE PTR [eax]
  00015	56		 push	 esi
  00016	8b 75 0c	 mov	 esi, DWORD PTR _d$[ebp]
  00019	57		 push	 edi
  0001a	8b 7d 10	 mov	 edi, DWORD PTR _b$[ebp]
  0001d	89 4d e4	 mov	 DWORD PTR _this$GSCopy$[ebp], ecx
  00020	84 d2		 test	 dl, dl
  00022	0f 84 8c 01 00
	00		 je	 $LN96@LoadString@2
  00028	80 f2 ed	 xor	 dl, -19			; ffffffedH
  0002b	88 55 e8	 mov	 BYTE PTR __k$[ebp], dl
  0002e	8a 50 01	 mov	 dl, BYTE PTR [eax+1]
  00031	84 d2		 test	 dl, dl
  00033	0f 84 75 01 00
	00		 je	 $LN95@LoadString@2
  00039	80 f2 ec	 xor	 dl, -20			; ffffffecH
  0003c	88 55 e9	 mov	 BYTE PTR __k$[ebp+1], dl
  0003f	8a 50 02	 mov	 dl, BYTE PTR [eax+2]
  00042	84 d2		 test	 dl, dl
  00044	0f 84 5e 01 00
	00		 je	 $LN94@LoadString@2
  0004a	b1 eb		 mov	 cl, -21			; ffffffebH
  0004c	32 d1		 xor	 dl, cl
  0004e	88 55 ea	 mov	 BYTE PTR __k$[ebp+2], dl
  00051	8a 50 03	 mov	 dl, BYTE PTR [eax+3]
  00054	84 d2		 test	 dl, dl
  00056	0f 84 46 01 00
	00		 je	 $LN93@LoadString@2
  0005c	80 f2 ea	 xor	 dl, -22			; ffffffeaH
  0005f	88 55 eb	 mov	 BYTE PTR __k$[ebp+3], dl
  00062	8a 50 04	 mov	 dl, BYTE PTR [eax+4]
  00065	84 d2		 test	 dl, dl
  00067	0f 84 2f 01 00
	00		 je	 $LN92@LoadString@2
  0006d	80 f2 ed	 xor	 dl, -19			; ffffffedH
  00070	88 55 ec	 mov	 BYTE PTR __k$[ebp+4], dl
  00073	8a 50 05	 mov	 dl, BYTE PTR [eax+5]
  00076	84 d2		 test	 dl, dl
  00078	0f 84 18 01 00
	00		 je	 $LN91@LoadString@2
  0007e	80 f2 ec	 xor	 dl, -20			; ffffffecH
  00081	88 55 ed	 mov	 BYTE PTR __k$[ebp+5], dl
  00084	8a 50 06	 mov	 dl, BYTE PTR [eax+6]
  00087	84 d2		 test	 dl, dl
  00089	0f 84 02 01 00
	00		 je	 $LN90@LoadString@2
  0008f	32 d1		 xor	 dl, cl
  00091	88 55 ee	 mov	 BYTE PTR __k$[ebp+6], dl
  00094	8a 50 07	 mov	 dl, BYTE PTR [eax+7]
  00097	84 d2		 test	 dl, dl
  00099	0f 84 ec 00 00
	00		 je	 $LN89@LoadString@2
  0009f	80 f2 ea	 xor	 dl, -22			; ffffffeaH
  000a2	88 55 ef	 mov	 BYTE PTR __k$[ebp+7], dl
  000a5	8a 50 08	 mov	 dl, BYTE PTR [eax+8]
  000a8	84 d2		 test	 dl, dl
  000aa	0f 84 d5 00 00
	00		 je	 $LN88@LoadString@2
  000b0	80 f2 ed	 xor	 dl, -19			; ffffffedH
  000b3	88 55 f0	 mov	 BYTE PTR __k$[ebp+8], dl
  000b6	8a 50 09	 mov	 dl, BYTE PTR [eax+9]
  000b9	84 d2		 test	 dl, dl
  000bb	0f 84 be 00 00
	00		 je	 $LN87@LoadString@2
  000c1	80 f2 ec	 xor	 dl, -20			; ffffffecH
  000c4	88 55 f1	 mov	 BYTE PTR __k$[ebp+9], dl
  000c7	8a 50 0a	 mov	 dl, BYTE PTR [eax+10]
  000ca	84 d2		 test	 dl, dl
  000cc	0f 84 a8 00 00
	00		 je	 $LN86@LoadString@2
  000d2	32 d1		 xor	 dl, cl
  000d4	88 55 f2	 mov	 BYTE PTR __k$[ebp+10], dl
  000d7	8a 50 0b	 mov	 dl, BYTE PTR [eax+11]
  000da	84 d2		 test	 dl, dl
  000dc	0f 84 92 00 00
	00		 je	 $LN85@LoadString@2
  000e2	80 f2 ea	 xor	 dl, -22			; ffffffeaH
  000e5	88 55 f3	 mov	 BYTE PTR __k$[ebp+11], dl
  000e8	8a 50 0c	 mov	 dl, BYTE PTR [eax+12]
  000eb	84 d2		 test	 dl, dl
  000ed	74 7f		 je	 SHORT $LN84@LoadString@2
  000ef	80 f2 ed	 xor	 dl, -19			; ffffffedH
  000f2	88 55 f4	 mov	 BYTE PTR __k$[ebp+12], dl
  000f5	8a 50 0d	 mov	 dl, BYTE PTR [eax+13]
  000f8	84 d2		 test	 dl, dl
  000fa	74 6c		 je	 SHORT $LN83@LoadString@2
  000fc	80 f2 ec	 xor	 dl, -20			; ffffffecH
  000ff	88 55 f5	 mov	 BYTE PTR __k$[ebp+13], dl
  00102	8a 50 0e	 mov	 dl, BYTE PTR [eax+14]
  00105	84 d2		 test	 dl, dl
  00107	74 5a		 je	 SHORT $LN82@LoadString@2
  00109	32 d1		 xor	 dl, cl
  0010b	80 78 0f 00	 cmp	 BYTE PTR [eax+15], 0
  0010f	88 55 f6	 mov	 BYTE PTR __k$[ebp+14], dl
  00112	0f 84 a0 00 00
	00		 je	 $LN111@LoadString@2
  00118	8a 50 10	 mov	 dl, BYTE PTR [eax+16]
  0011b	84 d2		 test	 dl, dl
  0011d	74 3e		 je	 SHORT $LN80@LoadString@2
  0011f	80 f2 ed	 xor	 dl, -19			; ffffffedH
  00122	88 55 f8	 mov	 BYTE PTR __k$[ebp+16], dl
  00125	8a 50 11	 mov	 dl, BYTE PTR [eax+17]
  00128	84 d2		 test	 dl, dl
  0012a	74 2b		 je	 SHORT $LN79@LoadString@2
  0012c	80 f2 ec	 xor	 dl, -20			; ffffffecH
  0012f	88 55 f9	 mov	 BYTE PTR __k$[ebp+17], dl
  00132	8a 50 12	 mov	 dl, BYTE PTR [eax+18]
  00135	84 d2		 test	 dl, dl
  00137	74 19		 je	 SHORT $LN78@LoadString@2
  00139	8a 40 13	 mov	 al, BYTE PTR [eax+19]
  0013c	32 d1		 xor	 dl, cl
  0013e	88 55 fa	 mov	 BYTE PTR __k$[ebp+18], dl
  00141	84 c0		 test	 al, al
  00143	74 07		 je	 SHORT $LN77@LoadString@2
  00145	34 ea		 xor	 al, -22			; ffffffeaH
  00147	88 45 fb	 mov	 BYTE PTR __k$[ebp+19], al
  0014a	eb 6c		 jmp	 SHORT $LN111@LoadString@2
$LN77@LoadString@2:
  0014c	c6 45 fb ea	 mov	 BYTE PTR __k$[ebp+19], -22 ; ffffffeaH
  00150	eb 66		 jmp	 SHORT $LN111@LoadString@2
$LN78@LoadString@2:
  00152	88 4d fa	 mov	 BYTE PTR __k$[ebp+18], cl
  00155	eb 61		 jmp	 SHORT $LN111@LoadString@2
$LN79@LoadString@2:
  00157	c6 45 f9 ec	 mov	 BYTE PTR __k$[ebp+17], -20 ; ffffffecH
  0015b	eb 5b		 jmp	 SHORT $LN111@LoadString@2
$LN80@LoadString@2:
  0015d	c6 45 f8 ed	 mov	 BYTE PTR __k$[ebp+16], -19 ; ffffffedH
  00161	eb 55		 jmp	 SHORT $LN111@LoadString@2
$LN82@LoadString@2:
  00163	88 4d f6	 mov	 BYTE PTR __k$[ebp+14], cl
  00166	eb 50		 jmp	 SHORT $LN111@LoadString@2
$LN83@LoadString@2:
  00168	c6 45 f5 ec	 mov	 BYTE PTR __k$[ebp+13], -20 ; ffffffecH
  0016c	eb 4a		 jmp	 SHORT $LN111@LoadString@2
$LN84@LoadString@2:
  0016e	c6 45 f4 ed	 mov	 BYTE PTR __k$[ebp+12], -19 ; ffffffedH
  00172	eb 44		 jmp	 SHORT $LN111@LoadString@2
$LN85@LoadString@2:
  00174	c6 45 f3 ea	 mov	 BYTE PTR __k$[ebp+11], -22 ; ffffffeaH
  00178	eb 3e		 jmp	 SHORT $LN111@LoadString@2
$LN86@LoadString@2:
  0017a	88 4d f2	 mov	 BYTE PTR __k$[ebp+10], cl
  0017d	eb 39		 jmp	 SHORT $LN111@LoadString@2
$LN87@LoadString@2:
  0017f	c6 45 f1 ec	 mov	 BYTE PTR __k$[ebp+9], -20 ; ffffffecH
  00183	eb 33		 jmp	 SHORT $LN111@LoadString@2
$LN88@LoadString@2:
  00185	c6 45 f0 ed	 mov	 BYTE PTR __k$[ebp+8], -19 ; ffffffedH
  00189	eb 2d		 jmp	 SHORT $LN111@LoadString@2
$LN89@LoadString@2:
  0018b	c6 45 ef ea	 mov	 BYTE PTR __k$[ebp+7], -22 ; ffffffeaH
  0018f	eb 27		 jmp	 SHORT $LN111@LoadString@2
$LN90@LoadString@2:
  00191	88 4d ee	 mov	 BYTE PTR __k$[ebp+6], cl
  00194	eb 22		 jmp	 SHORT $LN111@LoadString@2
$LN91@LoadString@2:
  00196	c6 45 ed ec	 mov	 BYTE PTR __k$[ebp+5], -20 ; ffffffecH
  0019a	eb 1c		 jmp	 SHORT $LN111@LoadString@2
$LN92@LoadString@2:
  0019c	c6 45 ec ed	 mov	 BYTE PTR __k$[ebp+4], -19 ; ffffffedH
  001a0	eb 16		 jmp	 SHORT $LN111@LoadString@2
$LN93@LoadString@2:
  001a2	c6 45 eb ea	 mov	 BYTE PTR __k$[ebp+3], -22 ; ffffffeaH
  001a6	eb 10		 jmp	 SHORT $LN111@LoadString@2
$LN94@LoadString@2:
  001a8	c6 45 ea eb	 mov	 BYTE PTR __k$[ebp+2], -21 ; ffffffebH
  001ac	eb 0a		 jmp	 SHORT $LN111@LoadString@2
$LN95@LoadString@2:
  001ae	c6 45 e9 ec	 mov	 BYTE PTR __k$[ebp+1], -20 ; ffffffecH
  001b2	eb 04		 jmp	 SHORT $LN111@LoadString@2
$LN96@LoadString@2:
  001b4	c6 45 e8 ed	 mov	 BYTE PTR __k$[ebp], -19	; ffffffedH
$LN111@LoadString@2:
  001b8	6a 03		 push	 3
  001ba	8d 45 e8	 lea	 eax, DWORD PTR __k$[ebp]
  001bd	c6 45 f7 00	 mov	 BYTE PTR __k$[ebp+15], 0
  001c1	5a		 pop	 edx
$LL104@LoadString@2:
  001c2	81 30 ed ec eb
	ea		 xor	 DWORD PTR [eax], -353637139 ; eaebecedH
  001c8	83 c0 04	 add	 eax, 4
  001cb	4a		 dec	 edx
  001cc	75 f4		 jne	 SHORT $LL104@LoadString@2
  001ce	6a 0c		 push	 12			; 0000000cH
  001d0	58		 pop	 eax
$LL101@LoadString@2:
  001d1	8b c8		 mov	 ecx, eax
  001d3	81 e1 03 00 00
	80		 and	 ecx, -2147483645	; 80000003H
  001d9	79 05		 jns	 SHORT $LN112@LoadString@2
  001db	49		 dec	 ecx
  001dc	83 c9 fc	 or	 ecx, -4			; fffffffcH
  001df	41		 inc	 ecx
$LN112@LoadString@2:
  001e0	b2 ed		 mov	 dl, -19			; ffffffedH
  001e2	2a d1		 sub	 dl, cl
  001e4	30 54 05 e8	 xor	 BYTE PTR __k$[ebp+eax], dl
  001e8	40		 inc	 eax
  001e9	83 f8 0f	 cmp	 eax, 15			; 0000000fH
  001ec	7c e3		 jl	 SHORT $LL101@LoadString@2

; 163  : 		LoadString(_k, d, b, i);

  001ee	ff 75 14	 push	 DWORD PTR _i$[ebp]
  001f1	8b 4d e4	 mov	 ecx, DWORD PTR _this$GSCopy$[ebp]
  001f4	57		 push	 edi
  001f5	56		 push	 esi
  001f6	8d 45 e8	 lea	 eax, DWORD PTR __k$[ebp]
  001f9	50		 push	 eax
  001fa	ff 15 00 00 00
	00		 call	 DWORD PTR __imp_?LoadStringA@ioINILoader@@QAEXPBD0PADH@Z

; 164  : 	}

  00200	8b 4d fc	 mov	 ecx, DWORD PTR __$ArrayPad$[ebp]
  00203	5f		 pop	 edi
  00204	33 cd		 xor	 ecx, ebp
  00206	5e		 pop	 esi
  00207	e8 00 00 00 00	 call	 @__security_check_cookie@4
  0020c	c9		 leave
  0020d	c2 10 00	 ret	 16			; 00000010H
??$LoadString_e@$0BA@@ioINILoader@@QAEXAAY0BA@$$CBDAAY00$$CBDPADH@Z ENDP ; ioINILoader::LoadString_e<16>
_TEXT	ENDS
PUBLIC	_this$GSCopy$
PUBLIC	__$ArrayPad$
PUBLIC	??$LoadString_e@$0BB@@ioINILoader@@QAEXAAY0BB@$$CBDAAY00$$CBDPADH@Z ; ioINILoader::LoadString_e<17>
; Function compile flags: /Ogsp
;	COMDAT ??$LoadString_e@$0BB@@ioINILoader@@QAEXAAY0BB@$$CBDAAY00$$CBDPADH@Z
_TEXT	SEGMENT
_this$GSCopy$ = -32					; size = 4
__k$ = -28						; size = 17
__$ArrayPad$ = -4					; size = 4
_k$ = 8							; size = 4
_d$ = 12						; size = 4
_b$ = 16						; size = 4
_i$ = 20						; size = 4
??$LoadString_e@$0BB@@ioINILoader@@QAEXAAY0BB@$$CBDAAY00$$CBDPADH@Z PROC ; ioINILoader::LoadString_e<17>, COMDAT
; _this$ = ecx

; 161  : 	{

  00000	55		 push	 ebp
  00001	8b ec		 mov	 ebp, esp
  00003	83 ec 20	 sub	 esp, 32			; 00000020H
  00006	a1 00 00 00 00	 mov	 eax, DWORD PTR ___security_cookie
  0000b	33 c5		 xor	 eax, ebp
  0000d	89 45 fc	 mov	 DWORD PTR __$ArrayPad$[ebp], eax
  00010	8b 45 08	 mov	 eax, DWORD PTR _k$[ebp]

; 162  : 		_ENCSTR(k, _k);

  00013	8a 10		 mov	 dl, BYTE PTR [eax]
  00015	56		 push	 esi
  00016	8b 75 0c	 mov	 esi, DWORD PTR _d$[ebp]
  00019	57		 push	 edi
  0001a	8b 7d 10	 mov	 edi, DWORD PTR _b$[ebp]
  0001d	89 4d e0	 mov	 DWORD PTR _this$GSCopy$[ebp], ecx
  00020	84 d2		 test	 dl, dl
  00022	0f 84 a7 01 00
	00		 je	 $LN96@LoadString@3
  00028	80 f2 ed	 xor	 dl, -19			; ffffffedH
  0002b	88 55 e4	 mov	 BYTE PTR __k$[ebp], dl
  0002e	8a 50 01	 mov	 dl, BYTE PTR [eax+1]
  00031	84 d2		 test	 dl, dl
  00033	0f 84 90 01 00
	00		 je	 $LN95@LoadString@3
  00039	b1 ec		 mov	 cl, -20			; ffffffecH
  0003b	32 d1		 xor	 dl, cl
  0003d	88 55 e5	 mov	 BYTE PTR __k$[ebp+1], dl
  00040	8a 50 02	 mov	 dl, BYTE PTR [eax+2]
  00043	84 d2		 test	 dl, dl
  00045	0f 84 78 01 00
	00		 je	 $LN94@LoadString@3
  0004b	80 f2 eb	 xor	 dl, -21			; ffffffebH
  0004e	88 55 e6	 mov	 BYTE PTR __k$[ebp+2], dl
  00051	8a 50 03	 mov	 dl, BYTE PTR [eax+3]
  00054	84 d2		 test	 dl, dl
  00056	0f 84 61 01 00
	00		 je	 $LN93@LoadString@3
  0005c	80 f2 ea	 xor	 dl, -22			; ffffffeaH
  0005f	88 55 e7	 mov	 BYTE PTR __k$[ebp+3], dl
  00062	8a 50 04	 mov	 dl, BYTE PTR [eax+4]
  00065	84 d2		 test	 dl, dl
  00067	0f 84 4a 01 00
	00		 je	 $LN92@LoadString@3
  0006d	80 f2 ed	 xor	 dl, -19			; ffffffedH
  00070	88 55 e8	 mov	 BYTE PTR __k$[ebp+4], dl
  00073	8a 50 05	 mov	 dl, BYTE PTR [eax+5]
  00076	84 d2		 test	 dl, dl
  00078	0f 84 34 01 00
	00		 je	 $LN91@LoadString@3
  0007e	32 d1		 xor	 dl, cl
  00080	88 55 e9	 mov	 BYTE PTR __k$[ebp+5], dl
  00083	8a 50 06	 mov	 dl, BYTE PTR [eax+6]
  00086	84 d2		 test	 dl, dl
  00088	0f 84 1e 01 00
	00		 je	 $LN90@LoadString@3
  0008e	80 f2 eb	 xor	 dl, -21			; ffffffebH
  00091	88 55 ea	 mov	 BYTE PTR __k$[ebp+6], dl
  00094	8a 50 07	 mov	 dl, BYTE PTR [eax+7]
  00097	84 d2		 test	 dl, dl
  00099	0f 84 07 01 00
	00		 je	 $LN89@LoadString@3
  0009f	80 f2 ea	 xor	 dl, -22			; ffffffeaH
  000a2	88 55 eb	 mov	 BYTE PTR __k$[ebp+7], dl
  000a5	8a 50 08	 mov	 dl, BYTE PTR [eax+8]
  000a8	84 d2		 test	 dl, dl
  000aa	0f 84 f0 00 00
	00		 je	 $LN88@LoadString@3
  000b0	80 f2 ed	 xor	 dl, -19			; ffffffedH
  000b3	88 55 ec	 mov	 BYTE PTR __k$[ebp+8], dl
  000b6	8a 50 09	 mov	 dl, BYTE PTR [eax+9]
  000b9	84 d2		 test	 dl, dl
  000bb	0f 84 da 00 00
	00		 je	 $LN87@LoadString@3
  000c1	32 d1		 xor	 dl, cl
  000c3	88 55 ed	 mov	 BYTE PTR __k$[ebp+9], dl
  000c6	8a 50 0a	 mov	 dl, BYTE PTR [eax+10]
  000c9	84 d2		 test	 dl, dl
  000cb	0f 84 c4 00 00
	00		 je	 $LN86@LoadString@3
  000d1	80 f2 eb	 xor	 dl, -21			; ffffffebH
  000d4	88 55 ee	 mov	 BYTE PTR __k$[ebp+10], dl
  000d7	8a 50 0b	 mov	 dl, BYTE PTR [eax+11]
  000da	84 d2		 test	 dl, dl
  000dc	0f 84 ad 00 00
	00		 je	 $LN85@LoadString@3
  000e2	80 f2 ea	 xor	 dl, -22			; ffffffeaH
  000e5	88 55 ef	 mov	 BYTE PTR __k$[ebp+11], dl
  000e8	8a 50 0c	 mov	 dl, BYTE PTR [eax+12]
  000eb	84 d2		 test	 dl, dl
  000ed	0f 84 96 00 00
	00		 je	 $LN84@LoadString@3
  000f3	80 f2 ed	 xor	 dl, -19			; ffffffedH
  000f6	88 55 f0	 mov	 BYTE PTR __k$[ebp+12], dl
  000f9	8a 50 0d	 mov	 dl, BYTE PTR [eax+13]
  000fc	84 d2		 test	 dl, dl
  000fe	0f 84 80 00 00
	00		 je	 $LN83@LoadString@3
  00104	32 d1		 xor	 dl, cl
  00106	88 55 f1	 mov	 BYTE PTR __k$[ebp+13], dl
  00109	8a 50 0e	 mov	 dl, BYTE PTR [eax+14]
  0010c	84 d2		 test	 dl, dl
  0010e	74 6e		 je	 SHORT $LN82@LoadString@3
  00110	80 f2 eb	 xor	 dl, -21			; ffffffebH
  00113	88 55 f2	 mov	 BYTE PTR __k$[ebp+14], dl
  00116	8a 50 0f	 mov	 dl, BYTE PTR [eax+15]
  00119	84 d2		 test	 dl, dl
  0011b	74 5b		 je	 SHORT $LN81@LoadString@3
  0011d	80 f2 ea	 xor	 dl, -22			; ffffffeaH
  00120	80 78 10 00	 cmp	 BYTE PTR [eax+16], 0
  00124	88 55 f3	 mov	 BYTE PTR __k$[ebp+15], dl
  00127	0f 84 a6 00 00
	00		 je	 $LN111@LoadString@3
  0012d	8a 50 11	 mov	 dl, BYTE PTR [eax+17]
  00130	84 d2		 test	 dl, dl
  00132	74 3f		 je	 SHORT $LN79@LoadString@3
  00134	32 d1		 xor	 dl, cl
  00136	88 55 f5	 mov	 BYTE PTR __k$[ebp+17], dl
  00139	8a 50 12	 mov	 dl, BYTE PTR [eax+18]
  0013c	84 d2		 test	 dl, dl
  0013e	74 2d		 je	 SHORT $LN78@LoadString@3
  00140	80 f2 eb	 xor	 dl, -21			; ffffffebH
  00143	88 55 f6	 mov	 BYTE PTR __k$[ebp+18], dl
  00146	8a 50 13	 mov	 dl, BYTE PTR [eax+19]
  00149	84 d2		 test	 dl, dl
  0014b	74 1a		 je	 SHORT $LN77@LoadString@3
  0014d	8a 40 14	 mov	 al, BYTE PTR [eax+20]
  00150	80 f2 ea	 xor	 dl, -22			; ffffffeaH
  00153	88 55 f7	 mov	 BYTE PTR __k$[ebp+19], dl
  00156	84 c0		 test	 al, al
  00158	74 07		 je	 SHORT $LN76@LoadString@3
  0015a	34 ed		 xor	 al, -19			; ffffffedH
  0015c	88 45 f8	 mov	 BYTE PTR __k$[ebp+20], al
  0015f	eb 72		 jmp	 SHORT $LN111@LoadString@3
$LN76@LoadString@3:
  00161	c6 45 f8 ed	 mov	 BYTE PTR __k$[ebp+20], -19 ; ffffffedH
  00165	eb 6c		 jmp	 SHORT $LN111@LoadString@3
$LN77@LoadString@3:
  00167	c6 45 f7 ea	 mov	 BYTE PTR __k$[ebp+19], -22 ; ffffffeaH
  0016b	eb 66		 jmp	 SHORT $LN111@LoadString@3
$LN78@LoadString@3:
  0016d	c6 45 f6 eb	 mov	 BYTE PTR __k$[ebp+18], -21 ; ffffffebH
  00171	eb 60		 jmp	 SHORT $LN111@LoadString@3
$LN79@LoadString@3:
  00173	88 4d f5	 mov	 BYTE PTR __k$[ebp+17], cl
  00176	eb 5b		 jmp	 SHORT $LN111@LoadString@3
$LN81@LoadString@3:
  00178	c6 45 f3 ea	 mov	 BYTE PTR __k$[ebp+15], -22 ; ffffffeaH
  0017c	eb 55		 jmp	 SHORT $LN111@LoadString@3
$LN82@LoadString@3:
  0017e	c6 45 f2 eb	 mov	 BYTE PTR __k$[ebp+14], -21 ; ffffffebH
  00182	eb 4f		 jmp	 SHORT $LN111@LoadString@3
$LN83@LoadString@3:
  00184	88 4d f1	 mov	 BYTE PTR __k$[ebp+13], cl
  00187	eb 4a		 jmp	 SHORT $LN111@LoadString@3
$LN84@LoadString@3:
  00189	c6 45 f0 ed	 mov	 BYTE PTR __k$[ebp+12], -19 ; ffffffedH
  0018d	eb 44		 jmp	 SHORT $LN111@LoadString@3
$LN85@LoadString@3:
  0018f	c6 45 ef ea	 mov	 BYTE PTR __k$[ebp+11], -22 ; ffffffeaH
  00193	eb 3e		 jmp	 SHORT $LN111@LoadString@3
$LN86@LoadString@3:
  00195	c6 45 ee eb	 mov	 BYTE PTR __k$[ebp+10], -21 ; ffffffebH
  00199	eb 38		 jmp	 SHORT $LN111@LoadString@3
$LN87@LoadString@3:
  0019b	88 4d ed	 mov	 BYTE PTR __k$[ebp+9], cl
  0019e	eb 33		 jmp	 SHORT $LN111@LoadString@3
$LN88@LoadString@3:
  001a0	c6 45 ec ed	 mov	 BYTE PTR __k$[ebp+8], -19 ; ffffffedH
  001a4	eb 2d		 jmp	 SHORT $LN111@LoadString@3
$LN89@LoadString@3:
  001a6	c6 45 eb ea	 mov	 BYTE PTR __k$[ebp+7], -22 ; ffffffeaH
  001aa	eb 27		 jmp	 SHORT $LN111@LoadString@3
$LN90@LoadString@3:
  001ac	c6 45 ea eb	 mov	 BYTE PTR __k$[ebp+6], -21 ; ffffffebH
  001b0	eb 21		 jmp	 SHORT $LN111@LoadString@3
$LN91@LoadString@3:
  001b2	88 4d e9	 mov	 BYTE PTR __k$[ebp+5], cl
  001b5	eb 1c		 jmp	 SHORT $LN111@LoadString@3
$LN92@LoadString@3:
  001b7	c6 45 e8 ed	 mov	 BYTE PTR __k$[ebp+4], -19 ; ffffffedH
  001bb	eb 16		 jmp	 SHORT $LN111@LoadString@3
$LN93@LoadString@3:
  001bd	c6 45 e7 ea	 mov	 BYTE PTR __k$[ebp+3], -22 ; ffffffeaH
  001c1	eb 10		 jmp	 SHORT $LN111@LoadString@3
$LN94@LoadString@3:
  001c3	c6 45 e6 eb	 mov	 BYTE PTR __k$[ebp+2], -21 ; ffffffebH
  001c7	eb 0a		 jmp	 SHORT $LN111@LoadString@3
$LN95@LoadString@3:
  001c9	c6 45 e5 ec	 mov	 BYTE PTR __k$[ebp+1], -20 ; ffffffecH
  001cd	eb 04		 jmp	 SHORT $LN111@LoadString@3
$LN96@LoadString@3:
  001cf	c6 45 e4 ed	 mov	 BYTE PTR __k$[ebp], -19	; ffffffedH
$LN111@LoadString@3:
  001d3	6a 04		 push	 4
  001d5	8d 45 e4	 lea	 eax, DWORD PTR __k$[ebp]
  001d8	c6 45 f4 00	 mov	 BYTE PTR __k$[ebp+16], 0
  001dc	5a		 pop	 edx
$LL104@LoadString@3:
  001dd	81 30 ed ec eb
	ea		 xor	 DWORD PTR [eax], -353637139 ; eaebecedH
  001e3	83 c0 04	 add	 eax, 4
  001e6	4a		 dec	 edx
  001e7	75 f4		 jne	 SHORT $LL104@LoadString@3

; 163  : 		LoadString(_k, d, b, i);

  001e9	ff 75 14	 push	 DWORD PTR _i$[ebp]
  001ec	8b 4d e0	 mov	 ecx, DWORD PTR _this$GSCopy$[ebp]
  001ef	57		 push	 edi
  001f0	56		 push	 esi
  001f1	8d 45 e4	 lea	 eax, DWORD PTR __k$[ebp]
  001f4	50		 push	 eax
  001f5	ff 15 00 00 00
	00		 call	 DWORD PTR __imp_?LoadStringA@ioINILoader@@QAEXPBD0PADH@Z

; 164  : 	}

  001fb	8b 4d fc	 mov	 ecx, DWORD PTR __$ArrayPad$[ebp]
  001fe	5f		 pop	 edi
  001ff	33 cd		 xor	 ecx, ebp
  00201	5e		 pop	 esi
  00202	e8 00 00 00 00	 call	 @__security_check_cookie@4
  00207	c9		 leave
  00208	c2 10 00	 ret	 16			; 00000010H
??$LoadString_e@$0BB@@ioINILoader@@QAEXAAY0BB@$$CBDAAY00$$CBDPADH@Z ENDP ; ioINILoader::LoadString_e<17>
_TEXT	ENDS
PUBLIC	??B?$CEncrypt@W4TeamType@@@@QBE?AW4TeamType@@XZ	; CEncrypt<enum TeamType>::operator enum TeamType
; Function compile flags: /Ogsp
; File d:\lost saga for developer\youtube\tutorial\source\src\lsclient\encryptvalue.h
;	COMDAT ??B?$CEncrypt@W4TeamType@@@@QBE?AW4TeamType@@XZ
_TEXT	SEGMENT
_value$ = -4						; size = 4
??B?$CEncrypt@W4TeamType@@@@QBE?AW4TeamType@@XZ PROC	; CEncrypt<enum TeamType>::operator enum TeamType, COMDAT
; _this$ = ecx

; 145  : 	{

  00000	55		 push	 ebp
  00001	8b ec		 mov	 ebp, esp
  00003	51		 push	 ecx

; 146  : 		//UJ 130829, const    --start
; 147  : 		type value;
; 148  : 		CEncrypt<type>* pThis = const_cast<CEncrypt<type>*>(this);
; 149  : 		pThis->DecryptValueToPool(&value);

  00004	8d 45 fc	 lea	 eax, DWORD PTR _value$[ebp]
  00007	50		 push	 eax
  00008	e8 00 00 00 00	 call	 ?DecryptValueToPool@?$CEncrypt@W4TeamType@@@@QAEXPAW4TeamType@@@Z ; CEncrypt<enum TeamType>::DecryptValueToPool

; 150  : 		//// const DecryptValueToPool     .
; 151  :  		//type value;
; 152  : 		//char szTempMem[MAX_ENCRYPT];
; 153  : 		//m_RC5.DecryptByte( m_MemPool, szTempMem, max(m_ValueSize, DEFAULT_ENCRYPT) );
; 154  : 		//memcpy( &value, szTempMem, m_ValueSize );
; 155  : 		//UJ --end
; 156  : 
; 157  : #ifdef _NOTUSE
; 158  : 		Debug();
; 159  : #endif
; 160  : 		return value;

  0000d	8b 45 fc	 mov	 eax, DWORD PTR _value$[ebp]

; 161  : 	}

  00010	c9		 leave
  00011	c3		 ret	 0
??B?$CEncrypt@W4TeamType@@@@QBE?AW4TeamType@@XZ ENDP	; CEncrypt<enum TeamType>::operator enum TeamType
_TEXT	ENDS
EXTRN	?InitResource@ioWeapon@@UAE_NXZ:PROC		; ioWeapon::InitResource
; Function compile flags: /Ogsp
; File d:\lost saga for developer\youtube\tutorial\source\src\lsclient\ioflameweapon.cpp
;	COMDAT ?InitResource@ioFlameWeapon@@UAE_NXZ
_TEXT	SEGMENT
?InitResource@ioFlameWeapon@@UAE_NXZ PROC		; ioFlameWeapon::InitResource, COMDAT
; _this$ = ecx

; 39   : {

  00000	56		 push	 esi
  00001	8b f1		 mov	 esi, ecx

; 40   : 	if( ioWeapon::InitResource() )

  00003	e8 00 00 00 00	 call	 ?InitResource@ioWeapon@@UAE_NXZ ; ioWeapon::InitResource
  00008	84 c0		 test	 al, al
  0000a	74 25		 je	 SHORT $LN1@InitResour

; 41   : 	{
; 42   : 		DestroyResource();

  0000c	8b 06		 mov	 eax, DWORD PTR [esi]
  0000e	6a 00		 push	 0
  00010	8b ce		 mov	 ecx, esi
  00012	ff 90 9c 00 00
	00		 call	 DWORD PTR [eax+156]

; 43   : 		return CreateMeteor( GetAttribute()->m_WeaponEffect );

  00018	8b 06		 mov	 eax, DWORD PTR [esi]
  0001a	8b ce		 mov	 ecx, esi
  0001c	ff 90 3c 01 00
	00		 call	 DWORD PTR [eax+316]
  00022	05 34 01 00 00	 add	 eax, 308		; 00000134H
  00027	50		 push	 eax
  00028	8b ce		 mov	 ecx, esi
  0002a	e8 00 00 00 00	 call	 ?CreateMeteor@ioFlameWeapon@@IAE_NABVioHashString@@@Z ; ioFlameWeapon::CreateMeteor
  0002f	5e		 pop	 esi

; 47   : }

  00030	c3		 ret	 0
$LN1@InitResour:

; 44   : 	}
; 45   : 
; 46   : 	return false;

  00031	32 c0		 xor	 al, al
  00033	5e		 pop	 esi

; 47   : }

  00034	c3		 ret	 0
?InitResource@ioFlameWeapon@@UAE_NXZ ENDP		; ioFlameWeapon::InitResource
_TEXT	ENDS
PUBLIC	??_C@_00CNPNBAHC@?$AA@				; `string'
PUBLIC	_rkLoader$GSCopy$
PUBLIC	__$ArrayPad$
EXTRN	__imp_??4ioHashString@@QAEAAV0@PBD@Z:PROC
EXTRN	?LoadProperty@ioWeapon@@UAEXAAVioINILoader@@@Z:PROC ; ioWeapon::LoadProperty
EXTRN	_memset:PROC
;	COMDAT ??_C@_00CNPNBAHC@?$AA@
; File d:\lost saga for developer\youtube\tutorial\source\src\lsclient\stringprotect.h
CONST	SEGMENT
??_C@_00CNPNBAHC@?$AA@ DB 00H				; `string'
; Function compile flags: /Ogsp
; File d:\lost saga for developer\youtube\tutorial\source\src\lsclient\ioflameweapon.cpp
CONST	ENDS
;	COMDAT ?LoadProperty@ioFlameWeapon@@UAEXAAVioINILoader@@@Z
_TEXT	SEGMENT
_rkLoader$GSCopy$ = -292				; size = 4
_szBuf$ = -288						; size = 260
__k$532758 = -28					; size = 17
__k$532655 = -28					; size = 16
__k$532258 = -28					; size = 16
__k$532521 = -24					; size = 12
__k$532383 = -24					; size = 13
__$ArrayPad$ = -4					; size = 4
_rkLoader$ = 8						; size = 4
?LoadProperty@ioFlameWeapon@@UAEXAAVioINILoader@@@Z PROC ; ioFlameWeapon::LoadProperty, COMDAT
; _this$ = ecx

; 50   : {

  00000	55		 push	 ebp
  00001	8b ec		 mov	 ebp, esp
  00003	81 ec 24 01 00
	00		 sub	 esp, 292		; 00000124H
  00009	a1 00 00 00 00	 mov	 eax, DWORD PTR ___security_cookie
  0000e	33 c5		 xor	 eax, ebp
  00010	89 45 fc	 mov	 DWORD PTR __$ArrayPad$[ebp], eax
  00013	53		 push	 ebx
  00014	56		 push	 esi
  00015	57		 push	 edi
  00016	8b 7d 08	 mov	 edi, DWORD PTR _rkLoader$[ebp]

; 51   : 	ioWeapon::LoadProperty( rkLoader );

  00019	57		 push	 edi
  0001a	8b f1		 mov	 esi, ecx

; 62   : 	rkLoader.LoadString_e( "blue_team_circle", "", szBuf, MAX_PATH );

  0001c	89 bd dc fe ff
	ff		 mov	 DWORD PTR _rkLoader$GSCopy$[ebp], edi
  00022	e8 00 00 00 00	 call	 ?LoadProperty@ioWeapon@@UAEXAAVioINILoader@@@Z ; ioWeapon::LoadProperty
  00027	6a 03		 push	 3
  00029	c7 45 e4 88 94
	9b 86		 mov	 DWORD PTR __k$532258[ebp], -2036624248 ; 869b9488H
  00030	c7 45 e8 82 9f
	82 85		 mov	 DWORD PTR __k$532258[ebp+4], -2055037054 ; 85829f82H
  00037	c7 45 ec 83 b3
	99 8b		 mov	 DWORD PTR __k$532258[ebp+8], -1952861309 ; 8b99b383H
  0003e	8d 45 e4	 lea	 eax, DWORD PTR __k$532258[ebp]
  00041	c7 45 f0 83 8b
	8e 00		 mov	 DWORD PTR __k$532258[ebp+12], 9341827 ; 008e8b83H
  00048	59		 pop	 ecx
$LL106@LoadProper:

; 52   : 
; 53   : 	m_fExplosionRange = rkLoader.LoadFloat_e( "explosion_range", 0.0f );

  00049	81 30 ed ec eb
	ea		 xor	 DWORD PTR [eax], -353637139 ; eaebecedH
  0004f	83 c0 04	 add	 eax, 4
  00052	49		 dec	 ecx
  00053	75 f4		 jne	 SHORT $LL106@LoadProper
  00055	6a 0c		 push	 12			; 0000000cH
  00057	58		 pop	 eax
$LL103@LoadProper:
  00058	8b c8		 mov	 ecx, eax
  0005a	81 e1 03 00 00
	80		 and	 ecx, -2147483645	; 80000003H
  00060	79 05		 jns	 SHORT $LN553@LoadProper
  00062	49		 dec	 ecx
  00063	83 c9 fc	 or	 ecx, -4			; fffffffcH
  00066	41		 inc	 ecx
$LN553@LoadProper:
  00067	b2 ed		 mov	 dl, -19			; ffffffedH
  00069	2a d1		 sub	 dl, cl
  0006b	30 54 05 e4	 xor	 BYTE PTR __k$532258[ebp+eax], dl
  0006f	40		 inc	 eax
  00070	83 f8 0f	 cmp	 eax, 15			; 0000000fH
  00073	7c e3		 jl	 SHORT $LL103@LoadProper
  00075	0f 57 c0	 xorps	 xmm0, xmm0
  00078	51		 push	 ecx
  00079	8d 45 e4	 lea	 eax, DWORD PTR __k$532258[ebp]
  0007c	f3 0f 11 04 24	 movss	 DWORD PTR [esp], xmm0
  00081	50		 push	 eax
  00082	8b cf		 mov	 ecx, edi
  00084	ff 15 00 00 00
	00		 call	 DWORD PTR __imp_?LoadFloat@ioINILoader@@QAEMPBDM@Z
  0008a	d9 9e fc 08 00
	00		 fstp	 DWORD PTR [esi+2300]
  00090	6a 03		 push	 3

; 54   : 	m_fStartHeight = rkLoader.LoadFloat_e( "start_height", 0.0f );

  00092	c7 45 e8 9e 98
	8a 98		 mov	 DWORD PTR __k$532383[ebp], -1735747426 ; 988a989eH
  00099	c7 45 ec 99 b3
	83 8f		 mov	 DWORD PTR __k$532383[ebp+4], -1887194215 ; 8f83b399H
  000a0	c7 45 f0 84 8b
	83 9e		 mov	 DWORD PTR __k$532383[ebp+8], -1635546236 ; 9e838b84H
  000a7	8d 45 e8	 lea	 eax, DWORD PTR __k$532383[ebp]
  000aa	c6 45 f4 00	 mov	 BYTE PTR __k$532383[ebp+12], 0
  000ae	59		 pop	 ecx
$LL212@LoadProper:
  000af	81 30 ed ec eb
	ea		 xor	 DWORD PTR [eax], -353637139 ; eaebecedH
  000b5	83 c0 04	 add	 eax, 4
  000b8	49		 dec	 ecx
  000b9	75 f4		 jne	 SHORT $LL212@LoadProper
  000bb	0f 57 c0	 xorps	 xmm0, xmm0
  000be	51		 push	 ecx
  000bf	8d 45 e8	 lea	 eax, DWORD PTR __k$532383[ebp]
  000c2	f3 0f 11 04 24	 movss	 DWORD PTR [esp], xmm0
  000c7	50		 push	 eax
  000c8	8b cf		 mov	 ecx, edi
  000ca	ff 15 00 00 00
	00		 call	 DWORD PTR __imp_?LoadFloat@ioINILoader@@QAEMPBDM@Z
  000d0	d9 9e 00 09 00
	00		 fstp	 DWORD PTR [esi+2304]

; 55   : 
; 56   : 	char szBuf[MAX_PATH] = "";

  000d6	68 03 01 00 00	 push	 259			; 00000103H
  000db	8d 85 e1 fe ff
	ff		 lea	 eax, DWORD PTR _szBuf$[ebp+1]
  000e1	6a 00		 push	 0
  000e3	50		 push	 eax
  000e4	c6 85 e0 fe ff
	ff 00		 mov	 BYTE PTR _szBuf$[ebp], 0
  000eb	e8 00 00 00 00	 call	 _memset
  000f0	83 c4 0c	 add	 esp, 12			; 0000000cH
  000f3	6a 02		 push	 2

; 57   : 	rkLoader.LoadString_e( "boom_effect", "", szBuf, MAX_PATH );

  000f5	c7 45 e8 8f 83
	84 87		 mov	 DWORD PTR __k$532521[ebp], -2021358705 ; 8784838fH
  000fc	c7 45 ec b2 89
	8d 8c		 mov	 DWORD PTR __k$532521[ebp+4], -1936881230 ; 8c8d89b2H
  00103	8d 45 e8	 lea	 eax, DWORD PTR __k$532521[ebp]
  00106	c7 45 f0 88 8f
	9f 00		 mov	 DWORD PTR __k$532521[ebp+8], 10456968 ; 009f8f88H
  0010d	59		 pop	 ecx
$LL318@LoadProper:
  0010e	81 30 ed ec eb
	ea		 xor	 DWORD PTR [eax], -353637139 ; eaebecedH
  00114	83 c0 04	 add	 eax, 4
  00117	49		 dec	 ecx
  00118	75 f4		 jne	 SHORT $LL318@LoadProper
  0011a	6a 08		 push	 8
  0011c	58		 pop	 eax
$LL315@LoadProper:
  0011d	8b c8		 mov	 ecx, eax
  0011f	81 e1 03 00 00
	80		 and	 ecx, -2147483645	; 80000003H
  00125	79 05		 jns	 SHORT $LN554@LoadProper
  00127	49		 dec	 ecx
  00128	83 c9 fc	 or	 ecx, -4			; fffffffcH
  0012b	41		 inc	 ecx
$LN554@LoadProper:
  0012c	b2 ed		 mov	 dl, -19			; ffffffedH
  0012e	2a d1		 sub	 dl, cl
  00130	30 54 05 e8	 xor	 BYTE PTR __k$532521[ebp+eax], dl
  00134	40		 inc	 eax
  00135	83 f8 0b	 cmp	 eax, 11			; 0000000bH
  00138	7c e3		 jl	 SHORT $LL315@LoadProper
  0013a	68 04 01 00 00	 push	 260			; 00000104H
  0013f	8d 85 e0 fe ff
	ff		 lea	 eax, DWORD PTR _szBuf$[ebp]
  00145	50		 push	 eax
  00146	68 00 00 00 00	 push	 OFFSET ??_C@_00CNPNBAHC@?$AA@
  0014b	8d 45 e8	 lea	 eax, DWORD PTR __k$532521[ebp]
  0014e	8b cf		 mov	 ecx, edi
  00150	8b 3d 00 00 00
	00		 mov	 edi, DWORD PTR __imp_?LoadStringA@ioINILoader@@QAEXPBD0PADH@Z
  00156	50		 push	 eax
  00157	ff d7		 call	 edi

; 58   : 	m_BoomEffect = szBuf;

  00159	8b 1d 00 00 00
	00		 mov	 ebx, DWORD PTR __imp_??4ioHashString@@QAEAAV0@PBD@Z
  0015f	8d 85 e0 fe ff
	ff		 lea	 eax, DWORD PTR _szBuf$[ebp]
  00165	50		 push	 eax
  00166	8d 8e 9c 08 00
	00		 lea	 ecx, DWORD PTR [esi+2204]
  0016c	ff d3		 call	 ebx
  0016e	6a 03		 push	 3

; 59   : 
; 60   : 	rkLoader.LoadString_e( "red_team_circle", "", szBuf, MAX_PATH );

  00170	c7 45 e4 9f 89
	8f b5		 mov	 DWORD PTR __k$532655[ebp], -1248884321 ; b58f899fH
  00177	c7 45 e8 99 89
	8a 87		 mov	 DWORD PTR __k$532655[ebp+4], -2020963943 ; 878a8999H
  0017e	c7 45 ec b2 8f
	82 98		 mov	 DWORD PTR __k$532655[ebp+8], -1736273998 ; 98828fb2H
  00185	8d 45 e4	 lea	 eax, DWORD PTR __k$532655[ebp]
  00188	c7 45 f0 8e 80
	8e 00		 mov	 DWORD PTR __k$532655[ebp+12], 9339022 ; 008e808eH
  0018f	59		 pop	 ecx
$LL424@LoadProper:
  00190	81 30 ed ec eb
	ea		 xor	 DWORD PTR [eax], -353637139 ; eaebecedH
  00196	83 c0 04	 add	 eax, 4
  00199	49		 dec	 ecx
  0019a	75 f4		 jne	 SHORT $LL424@LoadProper
  0019c	6a 0c		 push	 12			; 0000000cH
  0019e	58		 pop	 eax
$LL421@LoadProper:
  0019f	8b c8		 mov	 ecx, eax
  001a1	81 e1 03 00 00
	80		 and	 ecx, -2147483645	; 80000003H
  001a7	79 05		 jns	 SHORT $LN555@LoadProper
  001a9	49		 dec	 ecx
  001aa	83 c9 fc	 or	 ecx, -4			; fffffffcH
  001ad	41		 inc	 ecx
$LN555@LoadProper:
  001ae	b2 ed		 mov	 dl, -19			; ffffffedH
  001b0	2a d1		 sub	 dl, cl
  001b2	30 54 05 e4	 xor	 BYTE PTR __k$532655[ebp+eax], dl
  001b6	40		 inc	 eax
  001b7	83 f8 0f	 cmp	 eax, 15			; 0000000fH
  001ba	7c e3		 jl	 SHORT $LL421@LoadProper
  001bc	8b 8d dc fe ff
	ff		 mov	 ecx, DWORD PTR _rkLoader$GSCopy$[ebp]
  001c2	68 04 01 00 00	 push	 260			; 00000104H
  001c7	8d 85 e0 fe ff
	ff		 lea	 eax, DWORD PTR _szBuf$[ebp]
  001cd	50		 push	 eax
  001ce	68 00 00 00 00	 push	 OFFSET ??_C@_00CNPNBAHC@?$AA@
  001d3	8d 45 e4	 lea	 eax, DWORD PTR __k$532655[ebp]
  001d6	50		 push	 eax
  001d7	ff d7		 call	 edi

; 61   : 	m_szRedEffect = szBuf;

  001d9	8d 85 e0 fe ff
	ff		 lea	 eax, DWORD PTR _szBuf$[ebp]
  001df	50		 push	 eax
  001e0	8d 8e 04 09 00
	00		 lea	 ecx, DWORD PTR [esi+2308]
  001e6	ff d3		 call	 ebx
  001e8	6a 04		 push	 4

; 62   : 	rkLoader.LoadString_e( "blue_team_circle", "", szBuf, MAX_PATH );

  001ea	c7 45 e4 8f 80
	9e 8f		 mov	 DWORD PTR __k$532758[ebp], -1885437809 ; 8f9e808fH
  001f1	c7 45 e8 b2 98
	8e 8b		 mov	 DWORD PTR __k$532758[ebp+4], -1953589070 ; 8b8e98b2H
  001f8	c7 45 ec 80 b3
	88 83		 mov	 DWORD PTR __k$532758[ebp+8], -2088193152 ; 8388b380H
  001ff	c7 45 f0 9f 8f
	87 8f		 mov	 DWORD PTR __k$532758[ebp+12], -1886941281 ; 8f878f9fH
  00206	8d 45 e4	 lea	 eax, DWORD PTR __k$532758[ebp]
  00209	c6 45 f4 00	 mov	 BYTE PTR __k$532758[ebp+16], 0
  0020d	59		 pop	 ecx
$LL530@LoadProper:
  0020e	81 30 ed ec eb
	ea		 xor	 DWORD PTR [eax], -353637139 ; eaebecedH
  00214	83 c0 04	 add	 eax, 4
  00217	49		 dec	 ecx
  00218	75 f4		 jne	 SHORT $LL530@LoadProper
  0021a	8b 8d dc fe ff
	ff		 mov	 ecx, DWORD PTR _rkLoader$GSCopy$[ebp]
  00220	68 04 01 00 00	 push	 260			; 00000104H
  00225	8d 85 e0 fe ff
	ff		 lea	 eax, DWORD PTR _szBuf$[ebp]
  0022b	50		 push	 eax
  0022c	68 00 00 00 00	 push	 OFFSET ??_C@_00CNPNBAHC@?$AA@
  00231	8d 45 e4	 lea	 eax, DWORD PTR __k$532758[ebp]
  00234	50		 push	 eax
  00235	ff d7		 call	 edi

; 63   : 	m_szBlueEffect = szBuf;

  00237	8d 85 e0 fe ff
	ff		 lea	 eax, DWORD PTR _szBuf$[ebp]
  0023d	50		 push	 eax
  0023e	8d 8e 14 09 00
	00		 lea	 ecx, DWORD PTR [esi+2324]
  00244	ff d3		 call	 ebx

; 64   : }

  00246	8b 4d fc	 mov	 ecx, DWORD PTR __$ArrayPad$[ebp]
  00249	5f		 pop	 edi
  0024a	5e		 pop	 esi
  0024b	33 cd		 xor	 ecx, ebp
  0024d	5b		 pop	 ebx
  0024e	e8 00 00 00 00	 call	 @__security_check_cookie@4
  00253	c9		 leave
  00254	c2 04 00	 ret	 4
?LoadProperty@ioFlameWeapon@@UAEXAAVioINILoader@@@Z ENDP ; ioFlameWeapon::LoadProperty
_TEXT	ENDS
PUBLIC	?GetTeam@ioPlayEntity@@QBE?AW4TeamType@@XZ	; ioPlayEntity::GetTeam
; Function compile flags: /Ogsp
; File d:\lost saga for developer\youtube\tutorial\source\src\lsclient\ioplayentity.h
;	COMDAT ?GetTeam@ioPlayEntity@@QBE?AW4TeamType@@XZ
_TEXT	SEGMENT
_value$532899 = -4					; size = 4
?GetTeam@ioPlayEntity@@QBE?AW4TeamType@@XZ PROC		; ioPlayEntity::GetTeam, COMDAT
; _this$ = ecx

; 107  : 	inline TeamType GetTeam() const { return m_TeamType; }

  00000	55		 push	 ebp
  00001	8b ec		 mov	 ebp, esp
  00003	51		 push	 ecx
  00004	8d 45 fc	 lea	 eax, DWORD PTR _value$532899[ebp]
  00007	50		 push	 eax
  00008	81 c1 90 00 00
	00		 add	 ecx, 144		; 00000090H
  0000e	e8 00 00 00 00	 call	 ?DecryptValueToPool@?$CEncrypt@W4TeamType@@@@QAEXPAW4TeamType@@@Z ; CEncrypt<enum TeamType>::DecryptValueToPool
  00013	8b 45 fc	 mov	 eax, DWORD PTR _value$532899[ebp]
  00016	c9		 leave
  00017	c3		 ret	 0
?GetTeam@ioPlayEntity@@QBE?AW4TeamType@@XZ ENDP		; ioPlayEntity::GetTeam
_TEXT	ENDS
PUBLIC	?GetTeam@ioWeapon@@QBE?AW4TeamType@@XZ		; ioWeapon::GetTeam
; Function compile flags: /Ogsp
; File d:\lost saga for developer\youtube\tutorial\source\src\lsclient\ioweapon.h
;	COMDAT ?GetTeam@ioWeapon@@QBE?AW4TeamType@@XZ
_TEXT	SEGMENT
_value$532906 = -4					; size = 4
?GetTeam@ioWeapon@@QBE?AW4TeamType@@XZ PROC		; ioWeapon::GetTeam, COMDAT
; _this$ = ecx

; 534  : 	inline TeamType GetTeam() const { return m_TeamType; }

  00000	55		 push	 ebp
  00001	8b ec		 mov	 ebp, esp
  00003	51		 push	 ecx
  00004	8d 45 fc	 lea	 eax, DWORD PTR _value$532906[ebp]
  00007	50		 push	 eax
  00008	83 c1 30	 add	 ecx, 48			; 00000030H
  0000b	e8 00 00 00 00	 call	 ?DecryptValueToPool@?$CEncrypt@W4TeamType@@@@QAEXPAW4TeamType@@@Z ; CEncrypt<enum TeamType>::DecryptValueToPool
  00010	8b 45 fc	 mov	 eax, DWORD PTR _value$532906[ebp]
  00013	c9		 leave
  00014	c3		 ret	 0
?GetTeam@ioWeapon@@QBE?AW4TeamType@@XZ ENDP		; ioWeapon::GetTeam
_TEXT	ENDS
EXTRN	?AddWeaponExplosionEffect@ioPlayStage@@QAEXPAVioPlayEntity@@PAVioWeapon@@W4ApplyWeaponExp@@@Z:PROC ; ioPlayStage::AddWeaponExplosionEffect
EXTRN	?GetPiercingType@ioWeapon@@QBE?AW4CharPiercingType@@XZ:PROC ; ioWeapon::GetPiercingType
EXTRN	__imp_??8ioHashString@@QBE_NABV0@@Z:PROC
; Function compile flags: /Ogsp
; File d:\lost saga for developer\youtube\tutorial\source\src\lsclient\ioflameweapon.cpp
;	COMDAT ?CheckPreCollision@ioFlameWeapon@@UAEXPAVioPlayEntity@@PAVioPlayStage@@@Z
_TEXT	SEGMENT
_value$532932 = -4					; size = 4
_value$532919 = 8					; size = 4
_pTarget$ = 8						; size = 4
_pStage$ = 12						; size = 4
?CheckPreCollision@ioFlameWeapon@@UAEXPAVioPlayEntity@@PAVioPlayStage@@@Z PROC ; ioFlameWeapon::CheckPreCollision, COMDAT
; _this$ = ecx

; 249  : {

  00000	55		 push	 ebp
  00001	8b ec		 mov	 ebp, esp
  00003	51		 push	 ecx
  00004	57		 push	 edi
  00005	8b f9		 mov	 edi, ecx

; 250  : 	if( m_FlameState != FS_FALL )

  00007	33 c0		 xor	 eax, eax
  00009	39 87 94 08 00
	00		 cmp	 DWORD PTR [edi+2196], eax
  0000f	0f 85 d9 00 00
	00		 jne	 $LN11@CheckPreCo

; 251  : 		return;
; 252  : 
; 253  : 	bool bCollision = false;
; 254  : 	if( pTarget->IsWoundedCollision( GetWorldAttackBox() ) )

  00015	53		 push	 ebx
  00016	56		 push	 esi
  00017	8b 75 08	 mov	 esi, DWORD PTR _pTarget$[ebp]
  0001a	8b 1e		 mov	 ebx, DWORD PTR [esi]
  0001c	50		 push	 eax
  0001d	50		 push	 eax
  0001e	e8 00 00 00 00	 call	 ?GetWorldAttackBox@ioWeapon@@QBEABVioOrientBox@@_N@Z ; ioWeapon::GetWorldAttackBox
  00023	50		 push	 eax
  00024	8b ce		 mov	 ecx, esi
  00026	ff 93 90 00 00
	00		 call	 DWORD PTR [ebx+144]
  0002c	84 c0		 test	 al, al
  0002e	0f 84 b8 00 00
	00		 je	 $LN26@CheckPreCo

; 255  : 	{
; 256  : 		ioBaseChar *pChar = ToBaseChar( pTarget );

  00034	56		 push	 esi
  00035	e8 00 00 00 00	 call	 ?ToBaseChar@@YAPAVioBaseChar@@PAVioGameEntity@@@Z ; ToBaseChar
  0003a	8b d8		 mov	 ebx, eax
  0003c	59		 pop	 ecx

; 257  : 		if( pChar )

  0003d	85 db		 test	 ebx, ebx
  0003f	74 37		 je	 SHORT $LN8@CheckPreCo

; 258  : 		{
; 259  : 			if( GetTeam() != pTarget->GetTeam() )

  00041	8d 45 08	 lea	 eax, DWORD PTR _value$532919[ebp]
  00044	50		 push	 eax
  00045	8d 4f 30	 lea	 ecx, DWORD PTR [edi+48]
  00048	e8 00 00 00 00	 call	 ?DecryptValueToPool@?$CEncrypt@W4TeamType@@@@QAEXPAW4TeamType@@@Z ; CEncrypt<enum TeamType>::DecryptValueToPool
  0004d	8d 45 fc	 lea	 eax, DWORD PTR _value$532932[ebp]
  00050	50		 push	 eax
  00051	8d 8e 90 00 00
	00		 lea	 ecx, DWORD PTR [esi+144]
  00057	e8 00 00 00 00	 call	 ?DecryptValueToPool@?$CEncrypt@W4TeamType@@@@QAEXPAW4TeamType@@@Z ; CEncrypt<enum TeamType>::DecryptValueToPool
  0005c	8b 45 08	 mov	 eax, DWORD PTR _value$532919[ebp]
  0005f	3b 45 fc	 cmp	 eax, DWORD PTR _value$532932[ebp]

; 260  : 				bCollision = true;
; 261  : 			else if( pChar->GetCharName() == GetOwnerName() )

  00062	75 14		 jne	 SHORT $LN8@CheckPreCo
  00064	8d 47 10	 lea	 eax, DWORD PTR [edi+16]
  00067	50		 push	 eax
  00068	8d 8b d4 02 00
	00		 lea	 ecx, DWORD PTR [ebx+724]
  0006e	ff 15 00 00 00
	00		 call	 DWORD PTR __imp_??8ioHashString@@QBE_NABV0@@Z
  00074	84 c0		 test	 al, al
  00076	74 74		 je	 SHORT $LN26@CheckPreCo
$LN8@CheckPreCo:

; 262  : 				bCollision = true;
; 263  : 		}
; 264  : 		else
; 265  : 			bCollision = true;
; 266  : 	}
; 267  : 
; 268  : 	if( !bCollision )
; 269  : 		return;
; 270  : 
; 271  : 	if( ToSymbolStruct(pTarget) || ToPushStruct(pTarget) || ToBallStruct(pTarget) ||
; 272  : 		ToDummyChar(pTarget) || ToWallZone(pTarget) ||
; 273  : 		GetPiercingType() == CPT_NONE )

  00078	56		 push	 esi
  00079	e8 00 00 00 00	 call	 ?ToSymbolStruct@@YAPAVioSymbolStruct@@PAVioGameEntity@@@Z ; ToSymbolStruct
  0007e	59		 pop	 ecx
  0007f	85 c0		 test	 eax, eax
  00081	75 5f		 jne	 SHORT $LN1@CheckPreCo
  00083	56		 push	 esi
  00084	e8 00 00 00 00	 call	 ?ToPushStruct@@YAPAVioPushStruct@@PAVioGameEntity@@@Z ; ToPushStruct
  00089	59		 pop	 ecx
  0008a	85 c0		 test	 eax, eax
  0008c	75 54		 jne	 SHORT $LN1@CheckPreCo
  0008e	56		 push	 esi
  0008f	e8 00 00 00 00	 call	 ?ToBallStruct@@YAPAVioBall@@PAVioGameEntity@@@Z ; ToBallStruct
  00094	59		 pop	 ecx
  00095	85 c0		 test	 eax, eax
  00097	75 49		 jne	 SHORT $LN1@CheckPreCo
  00099	56		 push	 esi
  0009a	e8 00 00 00 00	 call	 ?ToDummyChar@@YAPAVioDummyChar@@PAVioGameEntity@@@Z ; ToDummyChar
  0009f	59		 pop	 ecx
  000a0	85 c0		 test	 eax, eax
  000a2	75 3e		 jne	 SHORT $LN1@CheckPreCo
  000a4	56		 push	 esi
  000a5	e8 00 00 00 00	 call	 ?ToWallZone@@YAPAVioWallZone@@PAVioGameEntity@@@Z ; ToWallZone
  000aa	59		 pop	 ecx
  000ab	85 c0		 test	 eax, eax
  000ad	75 33		 jne	 SHORT $LN1@CheckPreCo
  000af	8b cf		 mov	 ecx, edi
  000b1	e8 00 00 00 00	 call	 ?GetPiercingType@ioWeapon@@QBE?AW4CharPiercingType@@XZ ; ioWeapon::GetPiercingType
  000b6	85 c0		 test	 eax, eax
  000b8	74 28		 je	 SHORT $LN1@CheckPreCo

; 276  : 		return;
; 277  : 	}
; 278  : 
; 279  : 	CheckCurAttribute( pTarget );

  000ba	8b 07		 mov	 eax, DWORD PTR [edi]
  000bc	56		 push	 esi
  000bd	8b cf		 mov	 ecx, edi
  000bf	ff 90 f0 00 00
	00		 call	 DWORD PTR [eax+240]

; 280  : 
; 281  : 	ApplyWeaponExp eExplosionType = pTarget->ApplyWeapon( this );

  000c5	8b 06		 mov	 eax, DWORD PTR [esi]
  000c7	57		 push	 edi
  000c8	8b ce		 mov	 ecx, esi
  000ca	ff 50 7c	 call	 DWORD PTR [eax+124]

; 282  : 	pStage->AddWeaponExplosionEffect( pTarget, this, eExplosionType );

  000cd	8b 4d 0c	 mov	 ecx, DWORD PTR _pStage$[ebp]
  000d0	50		 push	 eax
  000d1	57		 push	 edi
  000d2	56		 push	 esi
  000d3	e8 00 00 00 00	 call	 ?AddWeaponExplosionEffect@ioPlayStage@@QAEXPAVioPlayEntity@@PAVioWeapon@@W4ApplyWeaponExp@@@Z ; ioPlayStage::AddWeaponExplosionEffect

; 283  : 
; 284  : 	AddCollisionEntity( pTarget );

  000d8	8b 07		 mov	 eax, DWORD PTR [edi]
  000da	56		 push	 esi
  000db	8b cf		 mov	 ecx, edi
  000dd	ff 50 04	 call	 DWORD PTR [eax+4]
  000e0	eb 0a		 jmp	 SHORT $LN26@CheckPreCo
$LN1@CheckPreCo:

; 274  : 	{
; 275  : 		Explosion( pStage );

  000e2	ff 75 0c	 push	 DWORD PTR _pStage$[ebp]
  000e5	8b cf		 mov	 ecx, edi
  000e7	e8 00 00 00 00	 call	 ?Explosion@ioFlameWeapon@@QAEXPAVioPlayStage@@@Z ; ioFlameWeapon::Explosion
$LN26@CheckPreCo:
  000ec	5e		 pop	 esi
  000ed	5b		 pop	 ebx
$LN11@CheckPreCo:
  000ee	5f		 pop	 edi

; 285  : }

  000ef	c9		 leave
  000f0	c2 08 00	 ret	 8
?CheckPreCollision@ioFlameWeapon@@UAEXPAVioPlayEntity@@PAVioPlayStage@@@Z ENDP ; ioFlameWeapon::CheckPreCollision
_TEXT	ENDS
PUBLIC	__real@3f800000
PUBLIC	_this$GSCopy$
PUBLIC	__$ArrayPad$
PUBLIC	?CreateCircleMapEffect@ioFlameWeapon@@IAEXXZ	; ioFlameWeapon::CreateCircleMapEffect
EXTRN	?GetUniqueID@ioMapEffect@@QBEKXZ:PROC		; ioMapEffect::GetUniqueID
EXTRN	?CreateMapEffectBySkill@ioBaseChar@@QAEPAVioMapEffect@@ABVioHashString@@ABUD3DXVECTOR3@@AAU4@@Z:PROC ; ioBaseChar::CreateMapEffectBySkill
EXTRN	?GetSingleConvertTeam@ioBaseChar@@QAE?AW4TeamType@@XZ:PROC ; ioBaseChar::GetSingleConvertTeam
EXTRN	?GetMapHeight@ioPlayStage@@QAEMMMPBVioGameEntity@@_NM1@Z:PROC ; ioPlayStage::GetMapHeight
;	COMDAT __real@3f800000
; File c:\program files (x86)\microsoft directx sdk (june 2010)\include\d3dx9math.inl
CONST	SEGMENT
__real@3f800000 DD 03f800000r			; 1
; Function compile flags: /Ogsp
; File d:\lost saga for developer\youtube\tutorial\source\src\lsclient\ioflameweapon.cpp
CONST	ENDS
;	COMDAT ?CreateCircleMapEffect@ioFlameWeapon@@IAEXXZ
_TEXT	SEGMENT
$T532950 = -72						; size = 12
$T532948 = -60						; size = 12
$T532949 = -48						; size = 12
$T532947 = -36						; size = 12
_this$GSCopy$ = -24					; size = 4
_value$532963 = -20					; size = 4
_value$532978 = -20					; size = 4
_fHeight$ = -20						; size = 4
_vCirclePos$ = -16					; size = 12
__$ArrayPad$ = -4					; size = 4
?CreateCircleMapEffect@ioFlameWeapon@@IAEXXZ PROC	; ioFlameWeapon::CreateCircleMapEffect, COMDAT
; _this$ = ecx

; 296  : {

  00000	55		 push	 ebp
  00001	8b ec		 mov	 ebp, esp
  00003	83 ec 48	 sub	 esp, 72			; 00000048H
  00006	a1 00 00 00 00	 mov	 eax, DWORD PTR ___security_cookie
  0000b	33 c5		 xor	 eax, ebp
  0000d	89 45 fc	 mov	 DWORD PTR __$ArrayPad$[ebp], eax
  00010	56		 push	 esi
  00011	8b f1		 mov	 esi, ecx

; 297  : 	if ( m_CircleMapEffectID != -1 )

  00013	83 be 24 09 00
	00 ff		 cmp	 DWORD PTR [esi+2340], -1

; 328  : 			pMapEffect = pOwner->CreateMapEffectBySkill( m_szRedEffect, vCirclePos );

  0001a	89 75 e8	 mov	 DWORD PTR _this$GSCopy$[ebp], esi
  0001d	0f 85 80 01 00
	00		 jne	 $LN11@CreateCirc

; 298  : 		return;
; 299  : 
; 300  : 	if ( m_szBlueEffect.IsEmpty() || m_szRedEffect.IsEmpty() )

  00023	8d 8e 14 09 00
	00		 lea	 ecx, DWORD PTR [esi+2324]
  00029	ff 15 00 00 00
	00		 call	 DWORD PTR __imp_?IsEmpty@ioHashString@@QBE_NXZ
  0002f	84 c0		 test	 al, al
  00031	0f 85 6c 01 00
	00		 jne	 $LN11@CreateCirc
  00037	8d 8e 04 09 00
	00		 lea	 ecx, DWORD PTR [esi+2308]
  0003d	ff 15 00 00 00
	00		 call	 DWORD PTR __imp_?IsEmpty@ioHashString@@QBE_NXZ
  00043	84 c0		 test	 al, al
  00045	0f 85 58 01 00
	00		 jne	 $LN11@CreateCirc

; 301  : 		return;
; 302  : 
; 303  : 	ioBaseChar *pOwner = GetOwner();

  0004b	53		 push	 ebx
  0004c	8b ce		 mov	 ecx, esi
  0004e	e8 00 00 00 00	 call	 ?GetOwner@ioWeapon@@QBEPAVioBaseChar@@XZ ; ioWeapon::GetOwner
  00053	8b d8		 mov	 ebx, eax

; 304  : 	if( !pOwner ) return;

  00055	85 db		 test	 ebx, ebx
  00057	0f 84 45 01 00
	00		 je	 $LN34@CreateCirc

; 305  : 
; 306  : 	ioPlayStage *pStage = pOwner->GetCreator();

  0005d	8b 8b 44 03 00
	00		 mov	 ecx, DWORD PTR [ebx+836]

; 307  : 	if ( !pStage )

  00063	85 c9		 test	 ecx, ecx
  00065	0f 84 37 01 00
	00		 je	 $LN34@CreateCirc

; 308  : 		return;
; 309  : 
; 310  : 	D3DXVECTOR3 vCirclePos = m_vStartPos;
; 311  : 	float fHeight = pStage->GetMapHeight( vCirclePos.x, vCirclePos.z );

  0006b	0f 57 c0	 xorps	 xmm0, xmm0
  0006e	57		 push	 edi
  0006f	6a 00		 push	 0
  00071	81 c6 f0 08 00
	00		 add	 esi, 2288		; 000008f0H
  00077	51		 push	 ecx
  00078	f3 0f 11 04 24	 movss	 DWORD PTR [esp], xmm0
  0007d	8d 7d f0	 lea	 edi, DWORD PTR _vCirclePos$[ebp]
  00080	a5		 movsd
  00081	6a 01		 push	 1
  00083	a5		 movsd
  00084	6a 00		 push	 0
  00086	51		 push	 ecx
  00087	a5		 movsd
  00088	f3 0f 10 45 f8	 movss	 xmm0, DWORD PTR _vCirclePos$[ebp+8]
  0008d	51		 push	 ecx
  0008e	f3 0f 11 44 24
	04		 movss	 DWORD PTR [esp+4], xmm0
  00094	f3 0f 10 45 f0	 movss	 xmm0, DWORD PTR _vCirclePos$[ebp]
  00099	f3 0f 11 04 24	 movss	 DWORD PTR [esp], xmm0
  0009e	e8 00 00 00 00	 call	 ?GetMapHeight@ioPlayStage@@QAEMMMPBVioGameEntity@@_NM1@Z ; ioPlayStage::GetMapHeight
  000a3	d9 5d ec	 fstp	 DWORD PTR _fHeight$[ebp]

; 312  : 
; 313  : 	if ( fHeight <= 0.0f )

  000a6	d9 45 ec	 fld	 DWORD PTR _fHeight$[ebp]
  000a9	5f		 pop	 edi
  000aa	d9 ee		 fldz
  000ac	df f1		 fcomip	 ST(1)
  000ae	dd d8		 fstp	 ST(0)
  000b0	0f 83 ec 00 00
	00		 jae	 $LN34@CreateCirc

; 314  : 		return;
; 315  : 
; 316  : 	vCirclePos.y = fHeight;

  000b6	f3 0f 10 45 ec	 movss	 xmm0, DWORD PTR _fHeight$[ebp]

; 317  : 
; 318  : 	ioMapEffect *pMapEffect = NULL;
; 319  : 	if( pOwner->GetTeam() == TEAM_RED )

  000bb	8d 45 ec	 lea	 eax, DWORD PTR _value$532963[ebp]
  000be	50		 push	 eax
  000bf	8d 8b 90 00 00
	00		 lea	 ecx, DWORD PTR [ebx+144]
  000c5	f3 0f 11 45 f4	 movss	 DWORD PTR _vCirclePos$[ebp+4], xmm0
  000ca	e8 00 00 00 00	 call	 ?DecryptValueToPool@?$CEncrypt@W4TeamType@@@@QAEXPAW4TeamType@@@Z ; CEncrypt<enum TeamType>::DecryptValueToPool
  000cf	83 7d ec 01	 cmp	 DWORD PTR _value$532963[ebp], 1
  000d3	75 1f		 jne	 SHORT $LN7@CreateCirc

; 320  : 		pMapEffect = pOwner->CreateMapEffectBySkill( m_szRedEffect, vCirclePos );

  000d5	f3 0f 10 05 00
	00 00 00	 movss	 xmm0, DWORD PTR __real@3f800000
  000dd	f3 0f 11 45 dc	 movss	 DWORD PTR $T532947[ebp], xmm0
  000e2	f3 0f 11 45 e0	 movss	 DWORD PTR $T532947[ebp+4], xmm0
  000e7	f3 0f 11 45 e4	 movss	 DWORD PTR $T532947[ebp+8], xmm0
  000ec	8d 45 dc	 lea	 eax, DWORD PTR $T532947[ebp]
  000ef	e9 85 00 00 00	 jmp	 $LN35@CreateCirc
$LN7@CreateCirc:

; 321  : 	else if( pOwner->GetTeam() == TEAM_BLUE )

  000f4	8d 45 ec	 lea	 eax, DWORD PTR _value$532978[ebp]
  000f7	50		 push	 eax
  000f8	8d 8b 90 00 00
	00		 lea	 ecx, DWORD PTR [ebx+144]
  000fe	e8 00 00 00 00	 call	 ?DecryptValueToPool@?$CEncrypt@W4TeamType@@@@QAEXPAW4TeamType@@@Z ; CEncrypt<enum TeamType>::DecryptValueToPool
  00103	83 7d ec 02	 cmp	 DWORD PTR _value$532978[ebp], 2

; 322  : 		pMapEffect = pOwner->CreateMapEffectBySkill( m_szBlueEffect, vCirclePos );

  00107	8b cb		 mov	 ecx, ebx
  00109	75 29		 jne	 SHORT $LN5@CreateCirc
  0010b	f3 0f 10 05 00
	00 00 00	 movss	 xmm0, DWORD PTR __real@3f800000
  00113	8d 45 c4	 lea	 eax, DWORD PTR $T532948[ebp]
  00116	50		 push	 eax
  00117	8d 45 f0	 lea	 eax, DWORD PTR _vCirclePos$[ebp]
  0011a	50		 push	 eax
  0011b	8b 45 e8	 mov	 eax, DWORD PTR _this$GSCopy$[ebp]
  0011e	f3 0f 11 45 c4	 movss	 DWORD PTR $T532948[ebp], xmm0
  00123	f3 0f 11 45 c8	 movss	 DWORD PTR $T532948[ebp+4], xmm0
  00128	f3 0f 11 45 cc	 movss	 DWORD PTR $T532948[ebp+8], xmm0
  0012d	05 14 09 00 00	 add	 eax, 2324		; 00000914H

; 323  : 	else

  00132	eb 54		 jmp	 SHORT $LN36@CreateCirc
$LN5@CreateCirc:

; 324  : 	{
; 325  : 		if( pOwner->GetSingleConvertTeam() == TEAM_BLUE )

  00134	e8 00 00 00 00	 call	 ?GetSingleConvertTeam@ioBaseChar@@QAE?AW4TeamType@@XZ ; ioBaseChar::GetSingleConvertTeam

; 326  : 			pMapEffect = pOwner->CreateMapEffectBySkill( m_szBlueEffect, vCirclePos );

  00139	f3 0f 10 05 00
	00 00 00	 movss	 xmm0, DWORD PTR __real@3f800000
  00141	83 f8 02	 cmp	 eax, 2
  00144	75 21		 jne	 SHORT $LN3@CreateCirc
  00146	8d 45 d0	 lea	 eax, DWORD PTR $T532949[ebp]
  00149	50		 push	 eax
  0014a	8d 45 f0	 lea	 eax, DWORD PTR _vCirclePos$[ebp]
  0014d	50		 push	 eax
  0014e	8b 45 e8	 mov	 eax, DWORD PTR _this$GSCopy$[ebp]
  00151	f3 0f 11 45 d0	 movss	 DWORD PTR $T532949[ebp], xmm0
  00156	f3 0f 11 45 d4	 movss	 DWORD PTR $T532949[ebp+4], xmm0
  0015b	f3 0f 11 45 d8	 movss	 DWORD PTR $T532949[ebp+8], xmm0
  00160	05 14 09 00 00	 add	 eax, 2324		; 00000914H

; 327  : 		else

  00165	eb 1f		 jmp	 SHORT $LN37@CreateCirc
$LN3@CreateCirc:

; 328  : 			pMapEffect = pOwner->CreateMapEffectBySkill( m_szRedEffect, vCirclePos );

  00167	f3 0f 11 45 b8	 movss	 DWORD PTR $T532950[ebp], xmm0
  0016c	f3 0f 11 45 bc	 movss	 DWORD PTR $T532950[ebp+4], xmm0
  00171	f3 0f 11 45 c0	 movss	 DWORD PTR $T532950[ebp+8], xmm0
  00176	8d 45 b8	 lea	 eax, DWORD PTR $T532950[ebp]
$LN35@CreateCirc:
  00179	50		 push	 eax
  0017a	8d 45 f0	 lea	 eax, DWORD PTR _vCirclePos$[ebp]
  0017d	50		 push	 eax
  0017e	8b 45 e8	 mov	 eax, DWORD PTR _this$GSCopy$[ebp]
  00181	05 04 09 00 00	 add	 eax, 2308		; 00000904H
$LN37@CreateCirc:
  00186	8b cb		 mov	 ecx, ebx
$LN36@CreateCirc:
  00188	50		 push	 eax
  00189	e8 00 00 00 00	 call	 ?CreateMapEffectBySkill@ioBaseChar@@QAEPAVioMapEffect@@ABVioHashString@@ABUD3DXVECTOR3@@AAU4@@Z ; ioBaseChar::CreateMapEffectBySkill

; 329  : 	}
; 330  : 
; 331  : 	if( pMapEffect )

  0018e	85 c0		 test	 eax, eax
  00190	74 10		 je	 SHORT $LN34@CreateCirc

; 332  : 		m_CircleMapEffectID = pMapEffect->GetUniqueID();

  00192	8b c8		 mov	 ecx, eax
  00194	e8 00 00 00 00	 call	 ?GetUniqueID@ioMapEffect@@QBEKXZ ; ioMapEffect::GetUniqueID
  00199	8b 4d e8	 mov	 ecx, DWORD PTR _this$GSCopy$[ebp]
  0019c	89 81 24 09 00
	00		 mov	 DWORD PTR [ecx+2340], eax
$LN34@CreateCirc:
  001a2	5b		 pop	 ebx
$LN11@CreateCirc:

; 333  : }

  001a3	8b 4d fc	 mov	 ecx, DWORD PTR __$ArrayPad$[ebp]
  001a6	33 cd		 xor	 ecx, ebp
  001a8	5e		 pop	 esi
  001a9	e8 00 00 00 00	 call	 @__security_check_cookie@4
  001ae	c9		 leave
  001af	c3		 ret	 0
?CreateCircleMapEffect@ioFlameWeapon@@IAEXXZ ENDP	; ioFlameWeapon::CreateCircleMapEffect
_TEXT	ENDS
PUBLIC	__real@0000000000000000
PUBLIC	_pStage$GSCopy$
PUBLIC	__$ArrayPad$
PUBLIC	?OnFalling@ioFlameWeapon@@IAEXMPAVioPlayStage@@@Z ; ioFlameWeapon::OnFalling
EXTRN	?SetOrientation@ioWeapon@@QAEXABUD3DXQUATERNION@@@Z:PROC ; ioWeapon::SetOrientation
;	COMDAT __real@0000000000000000
; File c:\program files (x86)\microsoft directx sdk (june 2010)\include\d3dx9math.inl
CONST	SEGMENT
__real@0000000000000000 DQ 00000000000000000r	; 0
; Function compile flags: /Ogsp
; File d:\lost saga for developer\youtube\tutorial\source\src\lsclient\ioflameweapon.cpp
CONST	ENDS
;	COMDAT ?OnFalling@ioFlameWeapon@@IAEXMPAVioPlayStage@@@Z
_TEXT	SEGMENT
$T533000 = -56						; size = 16
$T530637 = -52						; size = 12
_pStage$GSCopy$ = -40					; size = 4
tv408 = -36						; size = 4
tv397 = -36						; size = 4
tv360 = -36						; size = 4
tv394 = -32						; size = 4
_fMapHeight$ = -32					; size = 4
_fMoveDist$ = -32					; size = 4
$T530638 = -28						; size = 12
_vPos$ = -16						; size = 12
__$ArrayPad$ = -4					; size = 4
_fTimePerSec$ = 8					; size = 4
_pStage$ = 12						; size = 4
?OnFalling@ioFlameWeapon@@IAEXMPAVioPlayStage@@@Z PROC	; ioFlameWeapon::OnFalling, COMDAT
; _this$ = ecx

; 110  : {

  00000	55		 push	 ebp
  00001	8b ec		 mov	 ebp, esp
  00003	83 ec 38	 sub	 esp, 56			; 00000038H
  00006	a1 00 00 00 00	 mov	 eax, DWORD PTR ___security_cookie
  0000b	33 c5		 xor	 eax, ebp
  0000d	89 45 fc	 mov	 DWORD PTR __$ArrayPad$[ebp], eax
  00010	8b 45 0c	 mov	 eax, DWORD PTR _pStage$[ebp]
  00013	53		 push	 ebx
  00014	8b d9		 mov	 ebx, ecx

; 125  : 	{
; 126  : 		vPos.y = fMapHeight;

  00016	89 45 d8	 mov	 DWORD PTR _pStage$GSCopy$[ebp], eax
  00019	e8 00 00 00 00	 call	 ?CreateCircleMapEffect@ioFlameWeapon@@IAEXXZ ; ioFlameWeapon::CreateCircleMapEffect
  0001e	8b cb		 mov	 ecx, ebx
  00020	e8 00 00 00 00	 call	 ?GetMoveSpeed@ioFlameWeapon@@QAEMXZ ; ioFlameWeapon::GetMoveSpeed
  00025	d8 4d 08	 fmul	 DWORD PTR _fTimePerSec$[ebp]
  00028	8b 4b 04	 mov	 ecx, DWORD PTR [ebx+4]
  0002b	d9 5d e0	 fstp	 DWORD PTR _fMoveDist$[ebp]

; 111  : 	CreateCircleMapEffect();
; 112  : 	float fMoveDist = GetMoveSpeed() * fTimePerSec;
; 113  : 	GetParentSceneNode()->Translate( D3DXVECTOR3( 0.0f, -FLOAT1, 0.0f ) * fMoveDist );

  0002e	b8 01 00 00 00	 mov	 eax, 1

; 125  : 	{
; 126  : 		vPos.y = fMapHeight;

  00033	89 45 dc	 mov	 DWORD PTR tv408[ebp], eax
  00036	db 45 dc	 fild	 DWORD PTR tv408[ebp]
  00039	85 c0		 test	 eax, eax
  0003b	79 06		 jns	 SHORT $LN21@OnFalling

; 111  : 	CreateCircleMapEffect();
; 112  : 	float fMoveDist = GetMoveSpeed() * fTimePerSec;
; 113  : 	GetParentSceneNode()->Translate( D3DXVECTOR3( 0.0f, -FLOAT1, 0.0f ) * fMoveDist );

  0003d	d8 05 00 00 00
	00		 fadd	 DWORD PTR __real@4f800000
$LN21@OnFalling:
  00043	f3 0f 10 45 e0	 movss	 xmm0, DWORD PTR _fMoveDist$[ebp]
  00048	d9 e0		 fchs
  0004a	d9 5d d0	 fstp	 DWORD PTR $T530637[ebp+4]
  0004d	0f 5a c0	 cvtps2pd xmm0, xmm0
  00050	d9 45 d0	 fld	 DWORD PTR $T530637[ebp+4]
  00053	f2 0f 59 05 00
	00 00 00	 mulsd	 xmm0, QWORD PTR __real@0000000000000000
  0005b	d8 4d e0	 fmul	 DWORD PTR _fMoveDist$[ebp]
  0005e	66 0f 5a c0	 cvtpd2ps xmm0, xmm0
  00062	6a 01		 push	 1
  00064	8d 55 e4	 lea	 edx, DWORD PTR $T530638[ebp]
  00067	d9 5d e8	 fstp	 DWORD PTR $T530638[ebp+4]
  0006a	f3 0f 11 45 e4	 movss	 DWORD PTR $T530638[ebp], xmm0
  0006f	f3 0f 11 45 ec	 movss	 DWORD PTR $T530638[ebp+8], xmm0
  00074	8b 01		 mov	 eax, DWORD PTR [ecx]
  00076	52		 push	 edx
  00077	ff 50 3c	 call	 DWORD PTR [eax+60]

; 114  : 
; 115  : 	if( m_pMeteor )

  0007a	8d 8b 98 08 00
	00		 lea	 ecx, DWORD PTR [ebx+2200]
  00080	83 39 00	 cmp	 DWORD PTR [ecx], 0
  00083	74 2c		 je	 SHORT $LN2@OnFalling

; 116  : 	{
; 117  : 		m_pMeteor->Update( fTimePerSec * FLOAT1000 );

  00085	b8 e8 03 00 00	 mov	 eax, 1000		; 000003e8H
  0008a	8b 09		 mov	 ecx, DWORD PTR [ecx]
  0008c	83 c1 14	 add	 ecx, 20			; 00000014H
  0008f	8b 11		 mov	 edx, DWORD PTR [ecx]
  00091	89 45 dc	 mov	 DWORD PTR tv397[ebp], eax
  00094	db 45 dc	 fild	 DWORD PTR tv397[ebp]
  00097	85 c0		 test	 eax, eax
  00099	79 06		 jns	 SHORT $LN22@OnFalling
  0009b	d8 05 00 00 00
	00		 fadd	 DWORD PTR __real@4f800000
$LN22@OnFalling:
  000a1	d8 4d 08	 fmul	 DWORD PTR _fTimePerSec$[ebp]
  000a4	51		 push	 ecx
  000a5	d9 5d e0	 fstp	 DWORD PTR tv394[ebp]
  000a8	d9 45 e0	 fld	 DWORD PTR tv394[ebp]
  000ab	d9 1c 24	 fstp	 DWORD PTR [esp]
  000ae	ff 52 40	 call	 DWORD PTR [edx+64]
$LN2@OnFalling:

; 118  : 	}
; 119  : 
; 120  : 	UpdateWorldAttackBox( fTimePerSec, false );

  000b1	f3 0f 10 45 08	 movss	 xmm0, DWORD PTR _fTimePerSec$[ebp]
  000b6	8b 03		 mov	 eax, DWORD PTR [ebx]
  000b8	56		 push	 esi
  000b9	57		 push	 edi
  000ba	6a 00		 push	 0
  000bc	51		 push	 ecx
  000bd	8b cb		 mov	 ecx, ebx
  000bf	f3 0f 11 04 24	 movss	 DWORD PTR [esp], xmm0
  000c4	ff 90 38 01 00
	00		 call	 DWORD PTR [eax+312]

; 121  : 
; 122  : 	D3DXVECTOR3 vPos = GetPosition();

  000ca	8b 03		 mov	 eax, DWORD PTR [ebx]
  000cc	8b cb		 mov	 ecx, ebx
  000ce	ff 50 70	 call	 DWORD PTR [eax+112]

; 123  : 	float fMapHeight = pStage->GetMapHeight( vPos.x, vPos.z );

  000d1	0f 57 c0	 xorps	 xmm0, xmm0
  000d4	6a 00		 push	 0
  000d6	51		 push	 ecx
  000d7	f3 0f 11 04 24	 movss	 DWORD PTR [esp], xmm0
  000dc	8b f0		 mov	 esi, eax
  000de	8d 7d f0	 lea	 edi, DWORD PTR _vPos$[ebp]
  000e1	a5		 movsd
  000e2	6a 01		 push	 1
  000e4	a5		 movsd
  000e5	6a 00		 push	 0
  000e7	51		 push	 ecx
  000e8	51		 push	 ecx
  000e9	8b 4d d8	 mov	 ecx, DWORD PTR _pStage$GSCopy$[ebp]
  000ec	a5		 movsd
  000ed	f3 0f 10 45 f8	 movss	 xmm0, DWORD PTR _vPos$[ebp+8]
  000f2	f3 0f 11 44 24
	04		 movss	 DWORD PTR [esp+4], xmm0
  000f8	f3 0f 10 45 f0	 movss	 xmm0, DWORD PTR _vPos$[ebp]
  000fd	f3 0f 11 04 24	 movss	 DWORD PTR [esp], xmm0
  00102	e8 00 00 00 00	 call	 ?GetMapHeight@ioPlayStage@@QAEMMMPBVioGameEntity@@_NM1@Z ; ioPlayStage::GetMapHeight
  00107	d9 5d e0	 fstp	 DWORD PTR _fMapHeight$[ebp]

; 124  : 	if( vPos.y < fMapHeight )

  0010a	d9 45 f4	 fld	 DWORD PTR _vPos$[ebp+4]
  0010d	5f		 pop	 edi
  0010e	d9 45 e0	 fld	 DWORD PTR _fMapHeight$[ebp]
  00111	5e		 pop	 esi
  00112	df f1		 fcomip	 ST(1)
  00114	dd d8		 fstp	 ST(0)
  00116	76 54		 jbe	 SHORT $LN1@OnFalling

; 125  : 	{
; 126  : 		vPos.y = fMapHeight;

  00118	f3 0f 10 45 e0	 movss	 xmm0, DWORD PTR _fMapHeight$[ebp]

; 127  : 		SetPosition( vPos );

  0011d	8d 45 f0	 lea	 eax, DWORD PTR _vPos$[ebp]
  00120	50		 push	 eax
  00121	8b cb		 mov	 ecx, ebx
  00123	f3 0f 11 45 f4	 movss	 DWORD PTR _vPos$[ebp+4], xmm0
  00128	e8 00 00 00 00	 call	 ?SetPosition@ioWeapon@@QAEXABUD3DXVECTOR3@@@Z ; ioWeapon::SetPosition

; 128  : 		SetOrientation( D3DXQUATERNION( 0.0f, 0.0f, 0.0f, FLOAT1 ) );

  0012d	b8 01 00 00 00	 mov	 eax, 1
  00132	0f 57 c0	 xorps	 xmm0, xmm0
  00135	89 45 dc	 mov	 DWORD PTR tv360[ebp], eax
  00138	db 45 dc	 fild	 DWORD PTR tv360[ebp]
  0013b	f3 0f 11 45 c8	 movss	 DWORD PTR $T533000[ebp], xmm0
  00140	f3 0f 11 45 cc	 movss	 DWORD PTR $T533000[ebp+4], xmm0
  00145	f3 0f 11 45 d0	 movss	 DWORD PTR $T533000[ebp+8], xmm0
  0014a	85 c0		 test	 eax, eax
  0014c	79 06		 jns	 SHORT $LN23@OnFalling
  0014e	d8 05 00 00 00
	00		 fadd	 DWORD PTR __real@4f800000
$LN23@OnFalling:
  00154	8d 45 c8	 lea	 eax, DWORD PTR $T533000[ebp]
  00157	d9 5d d4	 fstp	 DWORD PTR $T533000[ebp+12]
  0015a	50		 push	 eax
  0015b	8b cb		 mov	 ecx, ebx
  0015d	e8 00 00 00 00	 call	 ?SetOrientation@ioWeapon@@QAEXABUD3DXQUATERNION@@@Z ; ioWeapon::SetOrientation

; 129  : 
; 130  : 		Explosion( pStage );

  00162	ff 75 d8	 push	 DWORD PTR _pStage$GSCopy$[ebp]
  00165	8b cb		 mov	 ecx, ebx
  00167	e8 00 00 00 00	 call	 ?Explosion@ioFlameWeapon@@QAEXPAVioPlayStage@@@Z ; ioFlameWeapon::Explosion
$LN1@OnFalling:

; 131  : 	}
; 132  : }

  0016c	8b 4d fc	 mov	 ecx, DWORD PTR __$ArrayPad$[ebp]
  0016f	33 cd		 xor	 ecx, ebp
  00171	5b		 pop	 ebx
  00172	e8 00 00 00 00	 call	 @__security_check_cookie@4
  00177	c9		 leave
  00178	c2 08 00	 ret	 8
?OnFalling@ioFlameWeapon@@IAEXMPAVioPlayStage@@@Z ENDP	; ioFlameWeapon::OnFalling
; Function compile flags: /Ogsp
_TEXT	ENDS
;	COMDAT ?Process@ioFlameWeapon@@UAEXMPAVioPlayStage@@@Z
_TEXT	SEGMENT
_fTimePerSec$ = 8					; size = 4
_pStage$ = 12						; size = 4
?Process@ioFlameWeapon@@UAEXMPAVioPlayStage@@@Z PROC	; ioFlameWeapon::Process, COMDAT
; _this$ = ecx

; 97   : {

  00000	55		 push	 ebp
  00001	8b ec		 mov	 ebp, esp

; 98   : 	switch( m_FlameState )

  00003	8b 81 94 08 00
	00		 mov	 eax, DWORD PTR [ecx+2196]
  00009	83 e8 00	 sub	 eax, 0
  0000c	74 0a		 je	 SHORT $LN2@Process
  0000e	48		 dec	 eax
  0000f	75 1a		 jne	 SHORT $LN3@Process

; 102  : 		break;
; 103  : 	case FS_EXPLOSION:
; 104  : 		SetWeaponDead();

  00011	8b 01		 mov	 eax, DWORD PTR [ecx]
  00013	ff 50 4c	 call	 DWORD PTR [eax+76]

; 105  : 		break;

  00016	eb 13		 jmp	 SHORT $LN3@Process
$LN2@Process:

; 99   : 	{
; 100  : 	case FS_FALL:
; 101  : 		OnFalling( fTimePerSec, pStage );

  00018	ff 75 0c	 push	 DWORD PTR _pStage$[ebp]
  0001b	f3 0f 10 45 08	 movss	 xmm0, DWORD PTR _fTimePerSec$[ebp]
  00020	51		 push	 ecx
  00021	f3 0f 11 04 24	 movss	 DWORD PTR [esp], xmm0
  00026	e8 00 00 00 00	 call	 ?OnFalling@ioFlameWeapon@@IAEXMPAVioPlayStage@@@Z ; ioFlameWeapon::OnFalling
$LN3@Process:

; 106  : 	}
; 107  : }

  0002b	5d		 pop	 ebp
  0002c	c2 08 00	 ret	 8
?Process@ioFlameWeapon@@UAEXMPAVioPlayStage@@@Z ENDP	; ioFlameWeapon::Process
_TEXT	ENDS
END
