; Listing generated by Microsoft (R) Optimizing Compiler Version 16.00.30319.01 

	TITLE	D:\Lost Saga For Developer\Youtube\Tutorial\Source\src\LSClient\ioFormalAttackGrp.cpp
	.686P
	.XMM
	include listing.inc
	.model	flat

INCLUDELIB MSVCRT
INCLUDELIB OLDNAMES

PUBLIC	?return1@@YAIXZ					; return1
; Function compile flags: /Ogsp
; File d:\lost saga for developer\youtube\tutorial\source\src\lsclient\stdafx.h
;	COMDAT ?return1@@YAIXZ
_TEXT	SEGMENT
?return1@@YAIXZ PROC					; return1, COMDAT

; 17   : 	__forceinline unsigned int return1() { __asm mov eax, 1 };

  00000	b8 01 00 00 00	 mov	 eax, 1
  00005	c3		 ret	 0
?return1@@YAIXZ ENDP					; return1
_TEXT	ENDS
PUBLIC	??_7bad_alloc@std@@6B@				; std::bad_alloc::`vftable'
PUBLIC	??0bad_alloc@std@@QAE@PBD@Z			; std::bad_alloc::bad_alloc
PUBLIC	??_R4bad_alloc@std@@6B@				; std::bad_alloc::`RTTI Complete Object Locator'
PUBLIC	??_R0?AVbad_alloc@std@@@8			; std::bad_alloc `RTTI Type Descriptor'
PUBLIC	??_R3bad_alloc@std@@8				; std::bad_alloc::`RTTI Class Hierarchy Descriptor'
PUBLIC	??_R2bad_alloc@std@@8				; std::bad_alloc::`RTTI Base Class Array'
PUBLIC	??_R1A@?0A@EA@bad_alloc@std@@8			; std::bad_alloc::`RTTI Base Class Descriptor at (0,-1,0,64)'
PUBLIC	??_R1A@?0A@EA@exception@std@@8			; std::exception::`RTTI Base Class Descriptor at (0,-1,0,64)'
PUBLIC	??_R0?AVexception@std@@@8			; std::exception `RTTI Type Descriptor'
PUBLIC	??_R3exception@std@@8				; std::exception::`RTTI Class Hierarchy Descriptor'
PUBLIC	??_R2exception@std@@8				; std::exception::`RTTI Base Class Array'
EXTRN	__imp_??0exception@std@@QAE@ABQBD@Z:PROC
EXTRN	??_7type_info@@6B@:QWORD			; type_info::`vftable'
EXTRN	??_Ebad_alloc@std@@UAEPAXI@Z:PROC		; std::bad_alloc::`vector deleting destructor'
EXTRN	?what@exception@std@@UBEPBDXZ:PROC		; std::exception::what
;	COMDAT ??_R2exception@std@@8
; File c:\program files (x86)\microsoft visual studio 10.0\vc\include\exception
rdata$r	SEGMENT
??_R2exception@std@@8 DD FLAT:??_R1A@?0A@EA@exception@std@@8 ; std::exception::`RTTI Base Class Array'
rdata$r	ENDS
;	COMDAT ??_R3exception@std@@8
rdata$r	SEGMENT
??_R3exception@std@@8 DD 00H				; std::exception::`RTTI Class Hierarchy Descriptor'
	DD	00H
	DD	01H
	DD	FLAT:??_R2exception@std@@8
rdata$r	ENDS
;	COMDAT ??_R0?AVexception@std@@@8
_DATA	SEGMENT
??_R0?AVexception@std@@@8 DD FLAT:??_7type_info@@6B@	; std::exception `RTTI Type Descriptor'
	DD	00H
	DB	'.?AVexception@std@@', 00H
_DATA	ENDS
;	COMDAT ??_R1A@?0A@EA@exception@std@@8
rdata$r	SEGMENT
??_R1A@?0A@EA@exception@std@@8 DD FLAT:??_R0?AVexception@std@@@8 ; std::exception::`RTTI Base Class Descriptor at (0,-1,0,64)'
	DD	00H
	DD	00H
	DD	0ffffffffH
	DD	00H
	DD	040H
	DD	FLAT:??_R3exception@std@@8
rdata$r	ENDS
;	COMDAT ??_R1A@?0A@EA@bad_alloc@std@@8
rdata$r	SEGMENT
??_R1A@?0A@EA@bad_alloc@std@@8 DD FLAT:??_R0?AVbad_alloc@std@@@8 ; std::bad_alloc::`RTTI Base Class Descriptor at (0,-1,0,64)'
	DD	01H
	DD	00H
	DD	0ffffffffH
	DD	00H
	DD	040H
	DD	FLAT:??_R3bad_alloc@std@@8
rdata$r	ENDS
;	COMDAT ??_R2bad_alloc@std@@8
rdata$r	SEGMENT
??_R2bad_alloc@std@@8 DD FLAT:??_R1A@?0A@EA@bad_alloc@std@@8 ; std::bad_alloc::`RTTI Base Class Array'
	DD	FLAT:??_R1A@?0A@EA@exception@std@@8
rdata$r	ENDS
;	COMDAT ??_R3bad_alloc@std@@8
rdata$r	SEGMENT
??_R3bad_alloc@std@@8 DD 00H				; std::bad_alloc::`RTTI Class Hierarchy Descriptor'
	DD	00H
	DD	02H
	DD	FLAT:??_R2bad_alloc@std@@8
rdata$r	ENDS
;	COMDAT ??_R0?AVbad_alloc@std@@@8
_DATA	SEGMENT
??_R0?AVbad_alloc@std@@@8 DD FLAT:??_7type_info@@6B@	; std::bad_alloc `RTTI Type Descriptor'
	DD	00H
	DB	'.?AVbad_alloc@std@@', 00H
_DATA	ENDS
;	COMDAT ??_R4bad_alloc@std@@6B@
rdata$r	SEGMENT
??_R4bad_alloc@std@@6B@ DD 00H				; std::bad_alloc::`RTTI Complete Object Locator'
	DD	00H
	DD	00H
	DD	FLAT:??_R0?AVbad_alloc@std@@@8
	DD	FLAT:??_R3bad_alloc@std@@8
rdata$r	ENDS
;	COMDAT ??_7bad_alloc@std@@6B@
CONST	SEGMENT
??_7bad_alloc@std@@6B@ DD FLAT:??_R4bad_alloc@std@@6B@	; std::bad_alloc::`vftable'
	DD	FLAT:??_Ebad_alloc@std@@UAEPAXI@Z
	DD	FLAT:?what@exception@std@@UBEPBDXZ
; Function compile flags: /Ogsp
CONST	ENDS
;	COMDAT ??0bad_alloc@std@@QAE@PBD@Z
_TEXT	SEGMENT
__Message$ = 8						; size = 4
??0bad_alloc@std@@QAE@PBD@Z PROC			; std::bad_alloc::bad_alloc, COMDAT
; _this$ = ecx

; 345  : 		{	// construct from message string

  00000	55		 push	 ebp
  00001	8b ec		 mov	 ebp, esp
  00003	56		 push	 esi
  00004	8d 45 08	 lea	 eax, DWORD PTR __Message$[ebp]
  00007	50		 push	 eax
  00008	8b f1		 mov	 esi, ecx
  0000a	ff 15 00 00 00
	00		 call	 DWORD PTR __imp_??0exception@std@@QAE@ABQBD@Z
  00010	c7 06 00 00 00
	00		 mov	 DWORD PTR [esi], OFFSET ??_7bad_alloc@std@@6B@

; 346  : 		}

  00016	8b c6		 mov	 eax, esi
  00018	5e		 pop	 esi
  00019	5d		 pop	 ebp
  0001a	c2 04 00	 ret	 4
??0bad_alloc@std@@QAE@PBD@Z ENDP			; std::bad_alloc::bad_alloc
_TEXT	ENDS
PUBLIC	??1bad_alloc@std@@UAE@XZ			; std::bad_alloc::~bad_alloc
EXTRN	__imp_??1exception@std@@UAE@XZ:PROC
; Function compile flags: /Ogsp
;	COMDAT ??1bad_alloc@std@@UAE@XZ
_TEXT	SEGMENT
??1bad_alloc@std@@UAE@XZ PROC				; std::bad_alloc::~bad_alloc, COMDAT
; _this$ = ecx

; 354  : 		{	// destroy the object

  00000	c7 01 00 00 00
	00		 mov	 DWORD PTR [ecx], OFFSET ??_7bad_alloc@std@@6B@

; 355  : 		}

  00006	ff 25 00 00 00
	00		 jmp	 DWORD PTR __imp_??1exception@std@@UAE@XZ
??1bad_alloc@std@@UAE@XZ ENDP				; std::bad_alloc::~bad_alloc
_TEXT	ENDS
EXTRN	??3@YAXPAX@Z:PROC				; operator delete
; Function compile flags: /Ogsp
;	COMDAT ??_Gbad_alloc@std@@UAEPAXI@Z
_TEXT	SEGMENT
___flags$ = 8						; size = 4
??_Gbad_alloc@std@@UAEPAXI@Z PROC			; std::bad_alloc::`scalar deleting destructor', COMDAT
; _this$ = ecx
  00000	55		 push	 ebp
  00001	8b ec		 mov	 ebp, esp
  00003	56		 push	 esi
  00004	8b f1		 mov	 esi, ecx
  00006	c7 06 00 00 00
	00		 mov	 DWORD PTR [esi], OFFSET ??_7bad_alloc@std@@6B@
  0000c	ff 15 00 00 00
	00		 call	 DWORD PTR __imp_??1exception@std@@UAE@XZ
  00012	f6 45 08 01	 test	 BYTE PTR ___flags$[ebp], 1
  00016	74 07		 je	 SHORT $LN1@scalar
  00018	56		 push	 esi
  00019	e8 00 00 00 00	 call	 ??3@YAXPAX@Z		; operator delete
  0001e	59		 pop	 ecx
$LN1@scalar:
  0001f	8b c6		 mov	 eax, esi
  00021	5e		 pop	 esi
  00022	5d		 pop	 ebp
  00023	c2 04 00	 ret	 4
??_Gbad_alloc@std@@UAEPAXI@Z ENDP			; std::bad_alloc::`scalar deleting destructor'
_TEXT	ENDS
PUBLIC	??2@YAPAXIPAX@Z					; operator new
; Function compile flags: /Ogsp
; File c:\program files (x86)\microsoft visual studio 10.0\vc\include\new
;	COMDAT ??2@YAPAXIPAX@Z
_TEXT	SEGMENT
___formal$ = 8						; size = 4
__Where$ = 12						; size = 4
??2@YAPAXIPAX@Z PROC					; operator new, COMDAT

; 56   : 	{	// construct array with placement at _Where

  00000	55		 push	 ebp
  00001	8b ec		 mov	 ebp, esp

; 57   : 	return (_Where);

  00003	8b 45 0c	 mov	 eax, DWORD PTR __Where$[ebp]

; 58   : 	}

  00006	5d		 pop	 ebp
  00007	c3		 ret	 0
??2@YAPAXIPAX@Z ENDP					; operator new
_TEXT	ENDS
PUBLIC	??3@YAXPAX0@Z					; operator delete
; Function compile flags: /Ogsp
;	COMDAT ??3@YAXPAX0@Z
_TEXT	SEGMENT
___formal$ = 8						; size = 4
___formal$ = 12						; size = 4
??3@YAXPAX0@Z PROC					; operator delete, COMDAT

; 62   : 	}

  00000	c3		 ret	 0
??3@YAXPAX0@Z ENDP					; operator delete
_TEXT	ENDS
PUBLIC	?_Adopt@_Iterator_base0@std@@QAEXPBX@Z		; std::_Iterator_base0::_Adopt
; Function compile flags: /Ogsp
; File c:\program files (x86)\microsoft visual studio 10.0\vc\include\xutility
;	COMDAT ?_Adopt@_Iterator_base0@std@@QAEXPBX@Z
_TEXT	SEGMENT
___formal$ = 8						; size = 4
?_Adopt@_Iterator_base0@std@@QAEXPBX@Z PROC		; std::_Iterator_base0::_Adopt, COMDAT
; _this$ = ecx

; 49   : 		}

  00000	c2 04 00	 ret	 4
?_Adopt@_Iterator_base0@std@@QAEXPBX@Z ENDP		; std::_Iterator_base0::_Adopt
_TEXT	ENDS
PUBLIC	??_C@_04DCMADPCF@?4ani?$AA@			; `string'
PUBLIC	_rkAniName$GSCopy$
PUBLIC	?PrepareLoadingAnimation@ioFormalAttackGrp@@QAEXABVioHashString@@@Z ; ioFormalAttackGrp::PrepareLoadingAnimation
EXTRN	__imp_??1ioHashString@@QAE@XZ:PROC
EXTRN	?ConvertTailNameAndFileCheck@Help@@YA?AVioHashString@@ABV2@_N@Z:PROC ; Help::ConvertTailNameAndFileCheck
EXTRN	__imp_?GetSingleton@ioAnimationManager@@SAAAV1@XZ:PROC
EXTRN	__imp___splitpath:PROC
EXTRN	__imp_?c_str@ioHashString@@QBEPBDXZ:PROC
EXTRN	__imp_?IsEmpty@ioHashString@@QBE_NXZ:PROC
EXTRN	___CxxFrameHandler3:PROC
EXTRN	@__security_check_cookie@4:PROC
EXTRN	__EH_epilog3_GS:PROC
EXTRN	__EH_prolog3_GS:PROC
EXTRN	_memset:PROC
;	COMDAT ??_C@_04DCMADPCF@?4ani?$AA@
; File d:\lost saga for developer\youtube\tutorial\source\src\lsclient\ioformalattackgrp.cpp
CONST	SEGMENT
??_C@_04DCMADPCF@?4ani?$AA@ DB '.ani', 00H		; `string'
CONST	ENDS
;	COMDAT xdata$x
xdata$x	SEGMENT
__unwindtable$?PrepareLoadingAnimation@ioFormalAttackGrp@@QAEXABVioHashString@@@Z DD 0ffffffffH
	DD	FLAT:__unwindfunclet$?PrepareLoadingAnimation@ioFormalAttackGrp@@QAEXABVioHashString@@@Z$0
__ehfuncinfo$?PrepareLoadingAnimation@ioFormalAttackGrp@@QAEXABVioHashString@@@Z DD 019930522H
	DD	01H
	DD	FLAT:__unwindtable$?PrepareLoadingAnimation@ioFormalAttackGrp@@QAEXABVioHashString@@@Z
	DD	2 DUP(00H)
	DD	2 DUP(00H)
	DD	00H
	DD	01H
; Function compile flags: /Ogsp
xdata$x	ENDS
;	COMDAT ?PrepareLoadingAnimation@ioFormalAttackGrp@@QAEXABVioHashString@@@Z
_TEXT	SEGMENT
_kFemaleAniName$ = -296					; size = 16
_rkAniName$GSCopy$ = -280				; size = 4
_szExt$ = -276						; size = 260
__$EHRec$ = -12						; size = 12
_rkAniName$ = 8						; size = 4
?PrepareLoadingAnimation@ioFormalAttackGrp@@QAEXABVioHashString@@@Z PROC ; ioFormalAttackGrp::PrepareLoadingAnimation, COMDAT
; _this$ = ecx

; 614  : {

  00000	68 1c 01 00 00	 push	 284			; 0000011cH
  00005	b8 00 00 00 00	 mov	 eax, __ehhandler$?PrepareLoadingAnimation@ioFormalAttackGrp@@QAEXABVioHashString@@@Z
  0000a	e8 00 00 00 00	 call	 __EH_prolog3_GS
  0000f	8b 75 08	 mov	 esi, DWORD PTR _rkAniName$[ebp]

; 615  : 	if( rkAniName.IsEmpty() ) return;

  00012	8b ce		 mov	 ecx, esi

; 620  : 		return;
; 621  : 
; 622  : 	g_AnimationMgr.PrepareLoading( rkAniName, true );

  00014	89 b5 e8 fe ff
	ff		 mov	 DWORD PTR _rkAniName$GSCopy$[ebp], esi
  0001a	ff 15 00 00 00
	00		 call	 DWORD PTR __imp_?IsEmpty@ioHashString@@QBE_NXZ
  00020	84 c0		 test	 al, al
  00022	0f 85 b8 00 00
	00		 jne	 $LN4@PrepareLoa

; 616  : 
; 617  : 	char szExt[MAX_PATH] = "";

  00028	33 db		 xor	 ebx, ebx
  0002a	68 03 01 00 00	 push	 259			; 00000103H
  0002f	8d 85 ed fe ff
	ff		 lea	 eax, DWORD PTR _szExt$[ebp+1]
  00035	53		 push	 ebx
  00036	50		 push	 eax
  00037	88 9d ec fe ff
	ff		 mov	 BYTE PTR _szExt$[ebp], bl
  0003d	e8 00 00 00 00	 call	 _memset
  00042	83 c4 0c	 add	 esp, 12			; 0000000cH

; 618  : 	_splitpath( rkAniName.c_str(), NULL, NULL, NULL, szExt );

  00045	8d 85 ec fe ff
	ff		 lea	 eax, DWORD PTR _szExt$[ebp]
  0004b	50		 push	 eax
  0004c	53		 push	 ebx
  0004d	53		 push	 ebx
  0004e	53		 push	 ebx
  0004f	8b ce		 mov	 ecx, esi
  00051	ff 15 00 00 00
	00		 call	 DWORD PTR __imp_?c_str@ioHashString@@QBEPBDXZ
  00057	50		 push	 eax
  00058	ff 15 00 00 00
	00		 call	 DWORD PTR __imp___splitpath
  0005e	83 c4 14	 add	 esp, 20			; 00000014H

; 619  : 	if( strcmp( szExt, ".ani" ) != 0 )

  00061	6a 05		 push	 5
  00063	bf 00 00 00 00	 mov	 edi, OFFSET ??_C@_04DCMADPCF@?4ani?$AA@
  00068	8d b5 ec fe ff
	ff		 lea	 esi, DWORD PTR _szExt$[ebp]
  0006e	59		 pop	 ecx
  0006f	33 c0		 xor	 eax, eax
  00071	f3 a6		 repe cmpsb
  00073	74 05		 je	 SHORT $LN7@PrepareLoa
  00075	1b c0		 sbb	 eax, eax
  00077	83 d8 ff	 sbb	 eax, -1
$LN7@PrepareLoa:
  0007a	3b c3		 cmp	 eax, ebx
  0007c	75 62		 jne	 SHORT $LN4@PrepareLoa

; 620  : 		return;
; 621  : 
; 622  : 	g_AnimationMgr.PrepareLoading( rkAniName, true );

  0007e	8b 35 00 00 00
	00		 mov	 esi, DWORD PTR __imp_?GetSingleton@ioAnimationManager@@SAAAV1@XZ
  00084	ff d6		 call	 esi
  00086	8b 10		 mov	 edx, DWORD PTR [eax]
  00088	6a 01		 push	 1
  0008a	ff b5 e8 fe ff
	ff		 push	 DWORD PTR _rkAniName$GSCopy$[ebp]
  00090	8b c8		 mov	 ecx, eax
  00092	ff 52 08	 call	 DWORD PTR [edx+8]

; 623  : 
; 624  : 	// 여성 애니가 따로 존재하면 포함
; 625  : 	ioHashString kFemaleAniName = Help::ConvertTailNameAndFileCheck( rkAniName, false );

  00095	53		 push	 ebx
  00096	ff b5 e8 fe ff
	ff		 push	 DWORD PTR _rkAniName$GSCopy$[ebp]
  0009c	8d 85 d8 fe ff
	ff		 lea	 eax, DWORD PTR _kFemaleAniName$[ebp]
  000a2	50		 push	 eax
  000a3	e8 00 00 00 00	 call	 ?ConvertTailNameAndFileCheck@Help@@YA?AVioHashString@@ABV2@_N@Z ; Help::ConvertTailNameAndFileCheck
  000a8	83 c4 0c	 add	 esp, 12			; 0000000cH

; 626  : 	if( !kFemaleAniName.IsEmpty() )

  000ab	8d 8d d8 fe ff
	ff		 lea	 ecx, DWORD PTR _kFemaleAniName$[ebp]
  000b1	89 5d fc	 mov	 DWORD PTR __$EHRec$[ebp+8], ebx
  000b4	ff 15 00 00 00
	00		 call	 DWORD PTR __imp_?IsEmpty@ioHashString@@QBE_NXZ
  000ba	84 c0		 test	 al, al
  000bc	75 12		 jne	 SHORT $LN1@PrepareLoa

; 627  : 	{
; 628  : 		g_AnimationMgr.PrepareLoading( kFemaleAniName, true );

  000be	ff d6		 call	 esi
  000c0	8b 10		 mov	 edx, DWORD PTR [eax]
  000c2	6a 01		 push	 1
  000c4	8d 8d d8 fe ff
	ff		 lea	 ecx, DWORD PTR _kFemaleAniName$[ebp]
  000ca	51		 push	 ecx
  000cb	8b c8		 mov	 ecx, eax
  000cd	ff 52 08	 call	 DWORD PTR [edx+8]
$LN1@PrepareLoa:

; 629  : 	}
; 630  : }

  000d0	83 4d fc ff	 or	 DWORD PTR __$EHRec$[ebp+8], -1
  000d4	8d 8d d8 fe ff
	ff		 lea	 ecx, DWORD PTR _kFemaleAniName$[ebp]
  000da	ff 15 00 00 00
	00		 call	 DWORD PTR __imp_??1ioHashString@@QAE@XZ
$LN4@PrepareLoa:
  000e0	e8 00 00 00 00	 call	 __EH_epilog3_GS
  000e5	c2 04 00	 ret	 4
_TEXT	ENDS
;	COMDAT text$x
text$x	SEGMENT
__unwindfunclet$?PrepareLoadingAnimation@ioFormalAttackGrp@@QAEXABVioHashString@@@Z$0:
  00000	8d 8d d8 fe ff
	ff		 lea	 ecx, DWORD PTR _kFemaleAniName$[ebp]
  00006	ff 25 00 00 00
	00		 jmp	 DWORD PTR __imp_??1ioHashString@@QAE@XZ
__ehhandler$?PrepareLoadingAnimation@ioFormalAttackGrp@@QAEXABVioHashString@@@Z:
  0000c	8b 54 24 08	 mov	 edx, DWORD PTR [esp+8]
  00010	8d 42 0c	 lea	 eax, DWORD PTR [edx+12]
  00013	8b 8a d4 fe ff
	ff		 mov	 ecx, DWORD PTR [edx-300]
  00019	33 c8		 xor	 ecx, eax
  0001b	e8 00 00 00 00	 call	 @__security_check_cookie@4
  00020	8b 4a fc	 mov	 ecx, DWORD PTR [edx-4]
  00023	33 c8		 xor	 ecx, eax
  00025	e8 00 00 00 00	 call	 @__security_check_cookie@4
  0002a	b8 00 00 00 00	 mov	 eax, OFFSET __ehfuncinfo$?PrepareLoadingAnimation@ioFormalAttackGrp@@QAEXABVioHashString@@@Z
  0002f	e9 00 00 00 00	 jmp	 ___CxxFrameHandler3
text$x	ENDS
?PrepareLoadingAnimation@ioFormalAttackGrp@@QAEXABVioHashString@@@Z ENDP ; ioFormalAttackGrp::PrepareLoadingAnimation
PUBLIC	?size@?$vector@UAttackAttribute@@V?$allocator@UAttackAttribute@@@std@@@std@@QBEIXZ ; std::vector<AttackAttribute,std::allocator<AttackAttribute> >::size
; Function compile flags: /Ogsp
; File c:\program files (x86)\microsoft visual studio 10.0\vc\include\vector
;	COMDAT ?size@?$vector@UAttackAttribute@@V?$allocator@UAttackAttribute@@@std@@@std@@QBEIXZ
_TEXT	SEGMENT
?size@?$vector@UAttackAttribute@@V?$allocator@UAttackAttribute@@@std@@@std@@QBEIXZ PROC ; std::vector<AttackAttribute,std::allocator<AttackAttribute> >::size, COMDAT
; _this$ = ecx

; 879  : 		return (this->_Mylast - this->_Myfirst);

  00000	8b 41 04	 mov	 eax, DWORD PTR [ecx+4]
  00003	2b 01		 sub	 eax, DWORD PTR [ecx]
  00005	6a 50		 push	 80			; 00000050H
  00007	99		 cdq
  00008	59		 pop	 ecx
  00009	f7 f9		 idiv	 ecx

; 880  : 		}

  0000b	c3		 ret	 0
?size@?$vector@UAttackAttribute@@V?$allocator@UAttackAttribute@@@std@@@std@@QBEIXZ ENDP ; std::vector<AttackAttribute,std::allocator<AttackAttribute> >::size
_TEXT	ENDS
PUBLIC	??A?$vector@UAttackAttribute@@V?$allocator@UAttackAttribute@@@std@@@std@@QBEABUAttackAttribute@@I@Z ; std::vector<AttackAttribute,std::allocator<AttackAttribute> >::operator[]
; Function compile flags: /Ogsp
;	COMDAT ??A?$vector@UAttackAttribute@@V?$allocator@UAttackAttribute@@@std@@@std@@QBEABUAttackAttribute@@I@Z
_TEXT	SEGMENT
__Pos$ = 8						; size = 4
??A?$vector@UAttackAttribute@@V?$allocator@UAttackAttribute@@@std@@@std@@QBEABUAttackAttribute@@I@Z PROC ; std::vector<AttackAttribute,std::allocator<AttackAttribute> >::operator[], COMDAT
; _this$ = ecx

; 912  : 		{	// subscript nonmutable sequence

  00000	55		 push	 ebp
  00001	8b ec		 mov	 ebp, esp

; 913  :  #if _ITERATOR_DEBUG_LEVEL == 2
; 914  : 		if (size() <= _Pos)
; 915  : 			{	// report error
; 916  : 			_DEBUG_ERROR("vector subscript out of range");
; 917  : 			_SCL_SECURE_OUT_OF_RANGE;
; 918  : 			}
; 919  : 
; 920  :  #elif _ITERATOR_DEBUG_LEVEL == 1
; 921  : 		_SCL_SECURE_VALIDATE_RANGE(_Pos < size());
; 922  :  #endif /* _ITERATOR_DEBUG_LEVEL */
; 923  : 
; 924  : 		return (*(this->_Myfirst + _Pos));

  00003	8b 45 08	 mov	 eax, DWORD PTR __Pos$[ebp]
  00006	6b c0 50	 imul	 eax, 80			; 00000050H
  00009	03 01		 add	 eax, DWORD PTR [ecx]

; 925  : 		}

  0000b	5d		 pop	 ebp
  0000c	c2 04 00	 ret	 4
??A?$vector@UAttackAttribute@@V?$allocator@UAttackAttribute@@@std@@@std@@QBEABUAttackAttribute@@I@Z ENDP ; std::vector<AttackAttribute,std::allocator<AttackAttribute> >::operator[]
_TEXT	ENDS
PUBLIC	?_Inside@?$vector@UAttackAttribute@@V?$allocator@UAttackAttribute@@@std@@@std@@IBE_NPBUAttackAttribute@@@Z ; std::vector<AttackAttribute,std::allocator<AttackAttribute> >::_Inside
; Function compile flags: /Ogsp
;	COMDAT ?_Inside@?$vector@UAttackAttribute@@V?$allocator@UAttackAttribute@@@std@@@std@@IBE_NPBUAttackAttribute@@@Z
_TEXT	SEGMENT
__Ptr$ = 8						; size = 4
?_Inside@?$vector@UAttackAttribute@@V?$allocator@UAttackAttribute@@@std@@@std@@IBE_NPBUAttackAttribute@@@Z PROC ; std::vector<AttackAttribute,std::allocator<AttackAttribute> >::_Inside, COMDAT
; _this$ = ecx

; 1285 : 		{	// test if _Ptr points inside vector

  00000	55		 push	 ebp
  00001	8b ec		 mov	 ebp, esp

; 1286 : 		return (_Ptr < this->_Mylast && this->_Myfirst <= _Ptr);

  00003	8b 45 08	 mov	 eax, DWORD PTR __Ptr$[ebp]
  00006	3b 41 04	 cmp	 eax, DWORD PTR [ecx+4]
  00009	73 09		 jae	 SHORT $LN3@Inside
  0000b	39 01		 cmp	 DWORD PTR [ecx], eax
  0000d	77 05		 ja	 SHORT $LN3@Inside
  0000f	33 c0		 xor	 eax, eax
  00011	40		 inc	 eax
  00012	eb 02		 jmp	 SHORT $LN4@Inside
$LN3@Inside:
  00014	33 c0		 xor	 eax, eax
$LN4@Inside:

; 1287 : 		}

  00016	5d		 pop	 ebp
  00017	c2 04 00	 ret	 4
?_Inside@?$vector@UAttackAttribute@@V?$allocator@UAttackAttribute@@@std@@@std@@IBE_NPBUAttackAttribute@@@Z ENDP ; std::vector<AttackAttribute,std::allocator<AttackAttribute> >::_Inside
_TEXT	ENDS
PUBLIC	?_Orphan_range@?$vector@UAttackAttribute@@V?$allocator@UAttackAttribute@@@std@@@std@@IBEXPAUAttackAttribute@@0@Z ; std::vector<AttackAttribute,std::allocator<AttackAttribute> >::_Orphan_range
; Function compile flags: /Ogsp
;	COMDAT ?_Orphan_range@?$vector@UAttackAttribute@@V?$allocator@UAttackAttribute@@@std@@@std@@IBEXPAUAttackAttribute@@0@Z
_TEXT	SEGMENT
___formal$ = 8						; size = 4
___formal$ = 12						; size = 4
?_Orphan_range@?$vector@UAttackAttribute@@V?$allocator@UAttackAttribute@@@std@@@std@@IBEXPAUAttackAttribute@@0@Z PROC ; std::vector<AttackAttribute,std::allocator<AttackAttribute> >::_Orphan_range, COMDAT
; _this$ = ecx

; 1454 : 		}

  00000	c2 08 00	 ret	 8
?_Orphan_range@?$vector@UAttackAttribute@@V?$allocator@UAttackAttribute@@@std@@@std@@IBEXPAUAttackAttribute@@0@Z ENDP ; std::vector<AttackAttribute,std::allocator<AttackAttribute> >::_Orphan_range
_TEXT	ENDS
PUBLIC	?capacity@?$vector@UAttackAttribute@@V?$allocator@UAttackAttribute@@@std@@@std@@QBEIXZ ; std::vector<AttackAttribute,std::allocator<AttackAttribute> >::capacity
; Function compile flags: /Ogsp
;	COMDAT ?capacity@?$vector@UAttackAttribute@@V?$allocator@UAttackAttribute@@@std@@@std@@QBEIXZ
_TEXT	SEGMENT
?capacity@?$vector@UAttackAttribute@@V?$allocator@UAttackAttribute@@@std@@@std@@QBEIXZ PROC ; std::vector<AttackAttribute,std::allocator<AttackAttribute> >::capacity, COMDAT
; _this$ = ecx

; 777  : 		return (this->_Myend - this->_Myfirst);

  00000	8b 41 08	 mov	 eax, DWORD PTR [ecx+8]
  00003	2b 01		 sub	 eax, DWORD PTR [ecx]
  00005	6a 50		 push	 80			; 00000050H
  00007	99		 cdq
  00008	59		 pop	 ecx
  00009	f7 f9		 idiv	 ecx

; 778  : 		}

  0000b	c3		 ret	 0
?capacity@?$vector@UAttackAttribute@@V?$allocator@UAttackAttribute@@@std@@@std@@QBEIXZ ENDP ; std::vector<AttackAttribute,std::allocator<AttackAttribute> >::capacity
_TEXT	ENDS
PUBLIC	??_C@_0BD@OLBABOEK@vector?$DMT?$DO?5too?5long?$AA@ ; `string'
PUBLIC	?_Xlen@?$vector@UAttackAttribute@@V?$allocator@UAttackAttribute@@@std@@@std@@IBEXXZ ; std::vector<AttackAttribute,std::allocator<AttackAttribute> >::_Xlen
EXTRN	__imp_?_Xlength_error@std@@YAXPBD@Z:PROC
;	COMDAT ??_C@_0BD@OLBABOEK@vector?$DMT?$DO?5too?5long?$AA@
CONST	SEGMENT
??_C@_0BD@OLBABOEK@vector?$DMT?$DO?5too?5long?$AA@ DB 'vector<T> too long'
	DB	00H						; `string'
; Function compile flags: /Ogsp
CONST	ENDS
;	COMDAT ?_Xlen@?$vector@UAttackAttribute@@V?$allocator@UAttackAttribute@@@std@@@std@@IBEXXZ
_TEXT	SEGMENT
?_Xlen@?$vector@UAttackAttribute@@V?$allocator@UAttackAttribute@@@std@@@std@@IBEXXZ PROC ; std::vector<AttackAttribute,std::allocator<AttackAttribute> >::_Xlen, COMDAT
; _this$ = ecx

; 1427 : 		_Xlength_error("vector<T> too long");

  00000	68 00 00 00 00	 push	 OFFSET ??_C@_0BD@OLBABOEK@vector?$DMT?$DO?5too?5long?$AA@
  00005	ff 15 00 00 00
	00		 call	 DWORD PTR __imp_?_Xlength_error@std@@YAXPBD@Z
$LN4@Xlen:
$LN3@Xlen:
  0000b	cc		 int	 3
?_Xlen@?$vector@UAttackAttribute@@V?$allocator@UAttackAttribute@@@std@@@std@@IBEXXZ ENDP ; std::vector<AttackAttribute,std::allocator<AttackAttribute> >::_Xlen
_TEXT	ENDS
PUBLIC	?max_size@?$allocator@UAttackAttribute@@@std@@QBEIXZ ; std::allocator<AttackAttribute>::max_size
; Function compile flags: /Ogsp
; File c:\program files (x86)\microsoft visual studio 10.0\vc\include\xmemory
;	COMDAT ?max_size@?$allocator@UAttackAttribute@@@std@@QBEIXZ
_TEXT	SEGMENT
?max_size@?$allocator@UAttackAttribute@@@std@@QBEIXZ PROC ; std::allocator<AttackAttribute>::max_size, COMDAT
; _this$ = ecx

; 218  : 		_SIZT _Count = (_SIZT)(-1) / sizeof (_Ty);
; 219  : 		return (0 < _Count ? _Count : 1);

  00000	b8 33 33 33 03	 mov	 eax, 53687091		; 03333333H

; 220  : 		}

  00005	c3		 ret	 0
?max_size@?$allocator@UAttackAttribute@@@std@@QBEIXZ ENDP ; std::allocator<AttackAttribute>::max_size
_TEXT	ENDS
PUBLIC	??$addressof@$$CBUAttackAttribute@@@std@@YAPBUAttackAttribute@@ABU1@@Z ; std::addressof<AttackAttribute const >
; Function compile flags: /Ogsp
;	COMDAT ??$addressof@$$CBUAttackAttribute@@@std@@YAPBUAttackAttribute@@ABU1@@Z
_TEXT	SEGMENT
__Val$ = 8						; size = 4
??$addressof@$$CBUAttackAttribute@@@std@@YAPBUAttackAttribute@@ABU1@@Z PROC ; std::addressof<AttackAttribute const >, COMDAT

; 110  : 	{	// return address of _Val

  00000	55		 push	 ebp
  00001	8b ec		 mov	 ebp, esp

; 111  : 	return ((_Ty *) &(char&)_Val);

  00003	8b 45 08	 mov	 eax, DWORD PTR __Val$[ebp]

; 112  : 	}

  00006	5d		 pop	 ebp
  00007	c3		 ret	 0
??$addressof@$$CBUAttackAttribute@@@std@@YAPBUAttackAttribute@@ABU1@@Z ENDP ; std::addressof<AttackAttribute const >
_TEXT	ENDS
PUBLIC	__TI2?AVbad_alloc@std@@
PUBLIC	??$_Allocate@UAttackAttribute@@@std@@YAPAUAttackAttribute@@IPAU1@@Z ; std::_Allocate<AttackAttribute>
PUBLIC	__CTA2?AVbad_alloc@std@@
PUBLIC	__CT??_R0?AVbad_alloc@std@@@8??0bad_alloc@std@@QAE@ABV01@@Z12
PUBLIC	??0bad_alloc@std@@QAE@ABV01@@Z			; std::bad_alloc::bad_alloc
PUBLIC	__CT??_R0?AVexception@std@@@8??0exception@std@@QAE@ABV01@@Z12
EXTRN	??2@YAPAXI@Z:PROC				; operator new
EXTRN	__CxxThrowException@8:PROC
EXTRN	??0exception@std@@QAE@ABV01@@Z:PROC		; std::exception::exception
;	COMDAT __CT??_R0?AVexception@std@@@8??0exception@std@@QAE@ABV01@@Z12
; File c:\program files (x86)\microsoft visual studio 10.0\vc\include\exception
xdata$x	SEGMENT
__CT??_R0?AVexception@std@@@8??0exception@std@@QAE@ABV01@@Z12 DD 00H
	DD	FLAT:??_R0?AVexception@std@@@8
	DD	00H
	DD	0ffffffffH
	ORG $+4
	DD	0cH
	DD	FLAT:??0exception@std@@QAE@ABV01@@Z
xdata$x	ENDS
;	COMDAT __CT??_R0?AVbad_alloc@std@@@8??0bad_alloc@std@@QAE@ABV01@@Z12
xdata$x	SEGMENT
__CT??_R0?AVbad_alloc@std@@@8??0bad_alloc@std@@QAE@ABV01@@Z12 DD 00H
	DD	FLAT:??_R0?AVbad_alloc@std@@@8
	DD	00H
	DD	0ffffffffH
	ORG $+4
	DD	0cH
	DD	FLAT:??0bad_alloc@std@@QAE@ABV01@@Z
xdata$x	ENDS
;	COMDAT __CTA2?AVbad_alloc@std@@
xdata$x	SEGMENT
__CTA2?AVbad_alloc@std@@ DD 02H
	DD	FLAT:__CT??_R0?AVbad_alloc@std@@@8??0bad_alloc@std@@QAE@ABV01@@Z12
	DD	FLAT:__CT??_R0?AVexception@std@@@8??0exception@std@@QAE@ABV01@@Z12
xdata$x	ENDS
;	COMDAT __TI2?AVbad_alloc@std@@
xdata$x	SEGMENT
__TI2?AVbad_alloc@std@@ DD 00H
	DD	FLAT:??1bad_alloc@std@@UAE@XZ
	DD	00H
	DD	FLAT:__CTA2?AVbad_alloc@std@@
; Function compile flags: /Ogsp
; File c:\program files (x86)\microsoft visual studio 10.0\vc\include\xmemory
xdata$x	ENDS
;	COMDAT ??$_Allocate@UAttackAttribute@@@std@@YAPAUAttackAttribute@@IPAU1@@Z
_TEXT	SEGMENT
$T511031 = -12						; size = 12
$T511036 = 8						; size = 4
__Count$ = 8						; size = 4
___formal$ = 12						; size = 4
??$_Allocate@UAttackAttribute@@@std@@YAPAUAttackAttribute@@IPAU1@@Z PROC ; std::_Allocate<AttackAttribute>, COMDAT

; 30   : 	{	// allocate storage for _Count elements of type _Ty

  00000	55		 push	 ebp
  00001	8b ec		 mov	 ebp, esp

; 31   : 	void *_Ptr = 0;
; 32   : 
; 33   : 	if (_Count <= 0)

  00003	8b 4d 08	 mov	 ecx, DWORD PTR __Count$[ebp]
  00006	83 ec 0c	 sub	 esp, 12			; 0000000cH
  00009	33 c0		 xor	 eax, eax
  0000b	85 c9		 test	 ecx, ecx

; 34   : 		_Count = 0;
; 35   : 	else if (((_SIZT)(-1) / sizeof (_Ty) < _Count)

  0000d	74 3c		 je	 SHORT $LN5@Allocate

; 36   : 		|| (_Ptr = ::operator new(_Count * sizeof (_Ty))) == 0)

  0000f	81 f9 33 33 33
	03		 cmp	 ecx, 53687091		; 03333333H
  00015	77 0e		 ja	 SHORT $LN1@Allocate
  00017	6b c9 50	 imul	 ecx, 80			; 00000050H
  0001a	51		 push	 ecx
  0001b	e8 00 00 00 00	 call	 ??2@YAPAXI@Z		; operator new
  00020	59		 pop	 ecx
  00021	85 c0		 test	 eax, eax

; 38   : 
; 39   : 	return ((_Ty _FARQ *)_Ptr);

  00023	75 26		 jne	 SHORT $LN5@Allocate
$LN1@Allocate:

; 37   : 		_THROW_NCEE(bad_alloc, 0);

  00025	83 65 08 00	 and	 DWORD PTR $T511036[ebp], 0
  00029	8d 45 08	 lea	 eax, DWORD PTR $T511036[ebp]
  0002c	50		 push	 eax
  0002d	8d 4d f4	 lea	 ecx, DWORD PTR $T511031[ebp]
  00030	ff 15 00 00 00
	00		 call	 DWORD PTR __imp_??0exception@std@@QAE@ABQBD@Z
  00036	68 00 00 00 00	 push	 OFFSET __TI2?AVbad_alloc@std@@
  0003b	8d 45 f4	 lea	 eax, DWORD PTR $T511031[ebp]
  0003e	50		 push	 eax
  0003f	c7 45 f4 00 00
	00 00		 mov	 DWORD PTR $T511031[ebp], OFFSET ??_7bad_alloc@std@@6B@
  00046	e8 00 00 00 00	 call	 __CxxThrowException@8
$LN10@Allocate:
$LN5@Allocate:

; 40   : 	}

  0004b	c9		 leave
  0004c	c3		 ret	 0
$LN9@Allocate:
??$_Allocate@UAttackAttribute@@@std@@YAPAUAttackAttribute@@IPAU1@@Z ENDP ; std::_Allocate<AttackAttribute>
_TEXT	ENDS
PUBLIC	??$forward@AAUAttackAttribute@@@std@@YAAAUAttackAttribute@@AAU1@@Z ; std::forward<AttackAttribute &>
; Function compile flags: /Ogsp
; File c:\program files (x86)\microsoft visual studio 10.0\vc\include\utility
;	COMDAT ??$forward@AAUAttackAttribute@@@std@@YAAAUAttackAttribute@@AAU1@@Z
_TEXT	SEGMENT
__Arg$ = 8						; size = 4
??$forward@AAUAttackAttribute@@@std@@YAAAUAttackAttribute@@AAU1@@Z PROC ; std::forward<AttackAttribute &>, COMDAT

; 78   : 	{	// forward _Arg, given explicitly specified type parameter

  00000	55		 push	 ebp
  00001	8b ec		 mov	 ebp, esp

; 79   : 	return ((_Ty&&)_Arg);

  00003	8b 45 08	 mov	 eax, DWORD PTR __Arg$[ebp]

; 80   : 	}

  00006	5d		 pop	 ebp
  00007	c3		 ret	 0
??$forward@AAUAttackAttribute@@@std@@YAAAUAttackAttribute@@AAU1@@Z ENDP ; std::forward<AttackAttribute &>
_TEXT	ENDS
PUBLIC	??$forward@ABUAttackAttribute@@@std@@YAABUAttackAttribute@@ABU1@@Z ; std::forward<AttackAttribute const &>
; Function compile flags: /Ogsp
;	COMDAT ??$forward@ABUAttackAttribute@@@std@@YAABUAttackAttribute@@ABU1@@Z
_TEXT	SEGMENT
__Arg$ = 8						; size = 4
??$forward@ABUAttackAttribute@@@std@@YAABUAttackAttribute@@ABU1@@Z PROC ; std::forward<AttackAttribute const &>, COMDAT

; 78   : 	{	// forward _Arg, given explicitly specified type parameter

  00000	55		 push	 ebp
  00001	8b ec		 mov	 ebp, esp

; 79   : 	return ((_Ty&&)_Arg);

  00003	8b 45 08	 mov	 eax, DWORD PTR __Arg$[ebp]

; 80   : 	}

  00006	5d		 pop	 ebp
  00007	c3		 ret	 0
??$forward@ABUAttackAttribute@@@std@@YAABUAttackAttribute@@ABU1@@Z ENDP ; std::forward<AttackAttribute const &>
_TEXT	ENDS
PUBLIC	??$_Val_type@PAUAttackAttribute@@@std@@YAPAUAttackAttribute@@PAU1@@Z ; std::_Val_type<AttackAttribute *>
; Function compile flags: /Ogsp
; File c:\program files (x86)\microsoft visual studio 10.0\vc\include\xutility
;	COMDAT ??$_Val_type@PAUAttackAttribute@@@std@@YAPAUAttackAttribute@@PAU1@@Z
_TEXT	SEGMENT
___formal$ = 8						; size = 4
??$_Val_type@PAUAttackAttribute@@@std@@YAPAUAttackAttribute@@PAU1@@Z PROC ; std::_Val_type<AttackAttribute *>, COMDAT

; 790  : 	return (0);

  00000	33 c0		 xor	 eax, eax

; 791  : 	}

  00002	c3		 ret	 0
??$_Val_type@PAUAttackAttribute@@@std@@YAPAUAttackAttribute@@PAU1@@Z ENDP ; std::_Val_type<AttackAttribute *>
_TEXT	ENDS
PUBLIC	??$forward@UAttackAttribute@@@std@@YA$$QAUAttackAttribute@@AAU1@@Z ; std::forward<AttackAttribute>
; Function compile flags: /Ogsp
; File c:\program files (x86)\microsoft visual studio 10.0\vc\include\utility
;	COMDAT ??$forward@UAttackAttribute@@@std@@YA$$QAUAttackAttribute@@AAU1@@Z
_TEXT	SEGMENT
__Arg$ = 8						; size = 4
??$forward@UAttackAttribute@@@std@@YA$$QAUAttackAttribute@@AAU1@@Z PROC ; std::forward<AttackAttribute>, COMDAT

; 78   : 	{	// forward _Arg, given explicitly specified type parameter

  00000	55		 push	 ebp
  00001	8b ec		 mov	 ebp, esp

; 79   : 	return ((_Ty&&)_Arg);

  00003	8b 45 08	 mov	 eax, DWORD PTR __Arg$[ebp]

; 80   : 	}

  00006	5d		 pop	 ebp
  00007	c3		 ret	 0
??$forward@UAttackAttribute@@@std@@YA$$QAUAttackAttribute@@AAU1@@Z ENDP ; std::forward<AttackAttribute>
_TEXT	ENDS
PUBLIC	??$_Ptr_cat@V?$_Vector_const_iterator@V?$_Vector_val@UWeaponInfo@@V?$allocator@UWeaponInfo@@@std@@@std@@@std@@PAUWeaponInfo@@@std@@YA?AU_Nonscalar_ptr_iterator_tag@0@AAV?$_Vector_const_iterator@V?$_Vector_val@UWeaponInfo@@V?$allocator@UWeaponInfo@@@std@@@std@@@0@AAPAUWeaponInfo@@@Z ; std::_Ptr_cat<std::_Vector_const_iterator<std::_Vector_val<WeaponInfo,std::allocator<WeaponInfo> > >,WeaponInfo *>
; Function compile flags: /Ogsp
; File c:\program files (x86)\microsoft visual studio 10.0\vc\include\xutility
;	COMDAT ??$_Ptr_cat@V?$_Vector_const_iterator@V?$_Vector_val@UWeaponInfo@@V?$allocator@UWeaponInfo@@@std@@@std@@@std@@PAUWeaponInfo@@@std@@YA?AU_Nonscalar_ptr_iterator_tag@0@AAV?$_Vector_const_iterator@V?$_Vector_val@UWeaponInfo@@V?$allocator@UWeaponInfo@@@std@@@std@@@0@AAPAUWeaponInfo@@@Z
_TEXT	SEGMENT
__Cat$ = -1						; size = 1
___formal$ = 8						; size = 4
___formal$ = 12						; size = 4
??$_Ptr_cat@V?$_Vector_const_iterator@V?$_Vector_val@UWeaponInfo@@V?$allocator@UWeaponInfo@@@std@@@std@@@std@@PAUWeaponInfo@@@std@@YA?AU_Nonscalar_ptr_iterator_tag@0@AAV?$_Vector_const_iterator@V?$_Vector_val@UWeaponInfo@@V?$allocator@UWeaponInfo@@@std@@@std@@@0@AAPAUWeaponInfo@@@Z PROC ; std::_Ptr_cat<std::_Vector_const_iterator<std::_Vector_val<WeaponInfo,std::allocator<WeaponInfo> > >,WeaponInfo *>, COMDAT

; 485  : 	{	// return pointer category from arbitrary arguments

  00000	55		 push	 ebp
  00001	8b ec		 mov	 ebp, esp
  00003	51		 push	 ecx

; 486  : 	_Nonscalar_ptr_iterator_tag _Cat;
; 487  : 	return (_Cat);

  00004	8a 45 ff	 mov	 al, BYTE PTR __Cat$[ebp]

; 488  : 	}

  00007	c9		 leave
  00008	c3		 ret	 0
??$_Ptr_cat@V?$_Vector_const_iterator@V?$_Vector_val@UWeaponInfo@@V?$allocator@UWeaponInfo@@@std@@@std@@@std@@PAUWeaponInfo@@@std@@YA?AU_Nonscalar_ptr_iterator_tag@0@AAV?$_Vector_const_iterator@V?$_Vector_val@UWeaponInfo@@V?$allocator@UWeaponInfo@@@std@@@std@@@0@AAPAUWeaponInfo@@@Z ENDP ; std::_Ptr_cat<std::_Vector_const_iterator<std::_Vector_val<WeaponInfo,std::allocator<WeaponInfo> > >,WeaponInfo *>
_TEXT	ENDS
PUBLIC	??$_Ptr_cat@V?$_Vector_const_iterator@V?$_Vector_val@UForceInfo@@V?$allocator@UForceInfo@@@std@@@std@@@std@@PAUForceInfo@@@std@@YA?AU_Nonscalar_ptr_iterator_tag@0@AAV?$_Vector_const_iterator@V?$_Vector_val@UForceInfo@@V?$allocator@UForceInfo@@@std@@@std@@@0@AAPAUForceInfo@@@Z ; std::_Ptr_cat<std::_Vector_const_iterator<std::_Vector_val<ForceInfo,std::allocator<ForceInfo> > >,ForceInfo *>
; Function compile flags: /Ogsp
;	COMDAT ??$_Ptr_cat@V?$_Vector_const_iterator@V?$_Vector_val@UForceInfo@@V?$allocator@UForceInfo@@@std@@@std@@@std@@PAUForceInfo@@@std@@YA?AU_Nonscalar_ptr_iterator_tag@0@AAV?$_Vector_const_iterator@V?$_Vector_val@UForceInfo@@V?$allocator@UForceInfo@@@std@@@std@@@0@AAPAUForceInfo@@@Z
_TEXT	SEGMENT
__Cat$ = -1						; size = 1
___formal$ = 8						; size = 4
___formal$ = 12						; size = 4
??$_Ptr_cat@V?$_Vector_const_iterator@V?$_Vector_val@UForceInfo@@V?$allocator@UForceInfo@@@std@@@std@@@std@@PAUForceInfo@@@std@@YA?AU_Nonscalar_ptr_iterator_tag@0@AAV?$_Vector_const_iterator@V?$_Vector_val@UForceInfo@@V?$allocator@UForceInfo@@@std@@@std@@@0@AAPAUForceInfo@@@Z PROC ; std::_Ptr_cat<std::_Vector_const_iterator<std::_Vector_val<ForceInfo,std::allocator<ForceInfo> > >,ForceInfo *>, COMDAT

; 485  : 	{	// return pointer category from arbitrary arguments

  00000	55		 push	 ebp
  00001	8b ec		 mov	 ebp, esp
  00003	51		 push	 ecx

; 486  : 	_Nonscalar_ptr_iterator_tag _Cat;
; 487  : 	return (_Cat);

  00004	8a 45 ff	 mov	 al, BYTE PTR __Cat$[ebp]

; 488  : 	}

  00007	c9		 leave
  00008	c3		 ret	 0
??$_Ptr_cat@V?$_Vector_const_iterator@V?$_Vector_val@UForceInfo@@V?$allocator@UForceInfo@@@std@@@std@@@std@@PAUForceInfo@@@std@@YA?AU_Nonscalar_ptr_iterator_tag@0@AAV?$_Vector_const_iterator@V?$_Vector_val@UForceInfo@@V?$allocator@UForceInfo@@@std@@@std@@@0@AAPAUForceInfo@@@Z ENDP ; std::_Ptr_cat<std::_Vector_const_iterator<std::_Vector_val<ForceInfo,std::allocator<ForceInfo> > >,ForceInfo *>
_TEXT	ENDS
PUBLIC	??D?$_Vector_const_iterator@V?$_Vector_val@UWeaponInfo@@V?$allocator@UWeaponInfo@@@std@@@std@@@std@@QBEABUWeaponInfo@@XZ ; std::_Vector_const_iterator<std::_Vector_val<WeaponInfo,std::allocator<WeaponInfo> > >::operator*
; Function compile flags: /Ogsp
; File c:\program files (x86)\microsoft visual studio 10.0\vc\include\vector
;	COMDAT ??D?$_Vector_const_iterator@V?$_Vector_val@UWeaponInfo@@V?$allocator@UWeaponInfo@@@std@@@std@@@std@@QBEABUWeaponInfo@@XZ
_TEXT	SEGMENT
??D?$_Vector_const_iterator@V?$_Vector_val@UWeaponInfo@@V?$allocator@UWeaponInfo@@@std@@@std@@@std@@QBEABUWeaponInfo@@XZ PROC ; std::_Vector_const_iterator<std::_Vector_val<WeaponInfo,std::allocator<WeaponInfo> > >::operator*, COMDAT
; _this$ = ecx

; 64   :  #if _ITERATOR_DEBUG_LEVEL == 2
; 65   : 		if (this->_Getcont() == 0
; 66   : 			|| this->_Ptr == 0
; 67   : 			|| this->_Ptr < ((_Myvec *)this->_Getcont())->_Myfirst
; 68   : 			|| ((_Myvec *)this->_Getcont())->_Mylast <= this->_Ptr)
; 69   : 			{	// report error
; 70   : 			_DEBUG_ERROR("vector iterator not dereferencable");
; 71   : 			_SCL_SECURE_OUT_OF_RANGE;
; 72   : 			}
; 73   : 
; 74   :  #elif _ITERATOR_DEBUG_LEVEL == 1
; 75   : 		_SCL_SECURE_VALIDATE(this->_Getcont() != 0);
; 76   : 		_SCL_SECURE_VALIDATE_RANGE(
; 77   : 			this->_Ptr != 0
; 78   : 			&& ((_Myvec *)this->_Getcont())->_Myfirst <= this->_Ptr
; 79   : 			&& this->_Ptr < ((_Myvec *)this->_Getcont())->_Mylast);
; 80   :  #endif /* _ITERATOR_DEBUG_LEVEL */
; 81   : 
; 82   : 		__analysis_assume(this->_Ptr != 0);
; 83   : 
; 84   : 		return (*this->_Ptr);

  00000	8b 01		 mov	 eax, DWORD PTR [ecx]

; 85   : 		}

  00002	c3		 ret	 0
??D?$_Vector_const_iterator@V?$_Vector_val@UWeaponInfo@@V?$allocator@UWeaponInfo@@@std@@@std@@@std@@QBEABUWeaponInfo@@XZ ENDP ; std::_Vector_const_iterator<std::_Vector_val<WeaponInfo,std::allocator<WeaponInfo> > >::operator*
_TEXT	ENDS
PUBLIC	??E?$_Vector_const_iterator@V?$_Vector_val@UWeaponInfo@@V?$allocator@UWeaponInfo@@@std@@@std@@@std@@QAEAAV01@XZ ; std::_Vector_const_iterator<std::_Vector_val<WeaponInfo,std::allocator<WeaponInfo> > >::operator++
; Function compile flags: /Ogsp
;	COMDAT ??E?$_Vector_const_iterator@V?$_Vector_val@UWeaponInfo@@V?$allocator@UWeaponInfo@@@std@@@std@@@std@@QAEAAV01@XZ
_TEXT	SEGMENT
??E?$_Vector_const_iterator@V?$_Vector_val@UWeaponInfo@@V?$allocator@UWeaponInfo@@@std@@@std@@@std@@QAEAAV01@XZ PROC ; std::_Vector_const_iterator<std::_Vector_val<WeaponInfo,std::allocator<WeaponInfo> > >::operator++, COMDAT
; _this$ = ecx

; 93   : 		{	// preincrement

  00000	8b c1		 mov	 eax, ecx

; 94   :  #if _ITERATOR_DEBUG_LEVEL == 2
; 95   : 		if (this->_Getcont() == 0
; 96   : 			|| this->_Ptr == 0
; 97   : 			|| ((_Myvec *)this->_Getcont())->_Mylast <= this->_Ptr)
; 98   : 			{	// report error
; 99   : 			_DEBUG_ERROR("vector iterator not incrementable");
; 100  : 			_SCL_SECURE_OUT_OF_RANGE;
; 101  : 			}
; 102  : 
; 103  :  #elif _ITERATOR_DEBUG_LEVEL == 1
; 104  : 		_SCL_SECURE_VALIDATE(this->_Getcont() != 0);
; 105  : 		_SCL_SECURE_VALIDATE_RANGE(
; 106  : 			this->_Ptr != 0
; 107  : 			&& this->_Ptr < ((_Myvec *)this->_Getcont())->_Mylast);
; 108  :  #endif /* _ITERATOR_DEBUG_LEVEL */
; 109  : 
; 110  : 		++this->_Ptr;

  00002	83 00 28	 add	 DWORD PTR [eax], 40	; 00000028H

; 111  : 		return (*this);
; 112  : 		}

  00005	c3		 ret	 0
??E?$_Vector_const_iterator@V?$_Vector_val@UWeaponInfo@@V?$allocator@UWeaponInfo@@@std@@@std@@@std@@QAEAAV01@XZ ENDP ; std::_Vector_const_iterator<std::_Vector_val<WeaponInfo,std::allocator<WeaponInfo> > >::operator++
_TEXT	ENDS
PUBLIC	??D?$_Vector_const_iterator@V?$_Vector_val@UForceInfo@@V?$allocator@UForceInfo@@@std@@@std@@@std@@QBEABUForceInfo@@XZ ; std::_Vector_const_iterator<std::_Vector_val<ForceInfo,std::allocator<ForceInfo> > >::operator*
; Function compile flags: /Ogsp
;	COMDAT ??D?$_Vector_const_iterator@V?$_Vector_val@UForceInfo@@V?$allocator@UForceInfo@@@std@@@std@@@std@@QBEABUForceInfo@@XZ
_TEXT	SEGMENT
??D?$_Vector_const_iterator@V?$_Vector_val@UForceInfo@@V?$allocator@UForceInfo@@@std@@@std@@@std@@QBEABUForceInfo@@XZ PROC ; std::_Vector_const_iterator<std::_Vector_val<ForceInfo,std::allocator<ForceInfo> > >::operator*, COMDAT
; _this$ = ecx

; 64   :  #if _ITERATOR_DEBUG_LEVEL == 2
; 65   : 		if (this->_Getcont() == 0
; 66   : 			|| this->_Ptr == 0
; 67   : 			|| this->_Ptr < ((_Myvec *)this->_Getcont())->_Myfirst
; 68   : 			|| ((_Myvec *)this->_Getcont())->_Mylast <= this->_Ptr)
; 69   : 			{	// report error
; 70   : 			_DEBUG_ERROR("vector iterator not dereferencable");
; 71   : 			_SCL_SECURE_OUT_OF_RANGE;
; 72   : 			}
; 73   : 
; 74   :  #elif _ITERATOR_DEBUG_LEVEL == 1
; 75   : 		_SCL_SECURE_VALIDATE(this->_Getcont() != 0);
; 76   : 		_SCL_SECURE_VALIDATE_RANGE(
; 77   : 			this->_Ptr != 0
; 78   : 			&& ((_Myvec *)this->_Getcont())->_Myfirst <= this->_Ptr
; 79   : 			&& this->_Ptr < ((_Myvec *)this->_Getcont())->_Mylast);
; 80   :  #endif /* _ITERATOR_DEBUG_LEVEL */
; 81   : 
; 82   : 		__analysis_assume(this->_Ptr != 0);
; 83   : 
; 84   : 		return (*this->_Ptr);

  00000	8b 01		 mov	 eax, DWORD PTR [ecx]

; 85   : 		}

  00002	c3		 ret	 0
??D?$_Vector_const_iterator@V?$_Vector_val@UForceInfo@@V?$allocator@UForceInfo@@@std@@@std@@@std@@QBEABUForceInfo@@XZ ENDP ; std::_Vector_const_iterator<std::_Vector_val<ForceInfo,std::allocator<ForceInfo> > >::operator*
_TEXT	ENDS
PUBLIC	??E?$_Vector_const_iterator@V?$_Vector_val@UForceInfo@@V?$allocator@UForceInfo@@@std@@@std@@@std@@QAEAAV01@XZ ; std::_Vector_const_iterator<std::_Vector_val<ForceInfo,std::allocator<ForceInfo> > >::operator++
; Function compile flags: /Ogsp
;	COMDAT ??E?$_Vector_const_iterator@V?$_Vector_val@UForceInfo@@V?$allocator@UForceInfo@@@std@@@std@@@std@@QAEAAV01@XZ
_TEXT	SEGMENT
??E?$_Vector_const_iterator@V?$_Vector_val@UForceInfo@@V?$allocator@UForceInfo@@@std@@@std@@@std@@QAEAAV01@XZ PROC ; std::_Vector_const_iterator<std::_Vector_val<ForceInfo,std::allocator<ForceInfo> > >::operator++, COMDAT
; _this$ = ecx

; 93   : 		{	// preincrement

  00000	8b c1		 mov	 eax, ecx

; 94   :  #if _ITERATOR_DEBUG_LEVEL == 2
; 95   : 		if (this->_Getcont() == 0
; 96   : 			|| this->_Ptr == 0
; 97   : 			|| ((_Myvec *)this->_Getcont())->_Mylast <= this->_Ptr)
; 98   : 			{	// report error
; 99   : 			_DEBUG_ERROR("vector iterator not incrementable");
; 100  : 			_SCL_SECURE_OUT_OF_RANGE;
; 101  : 			}
; 102  : 
; 103  :  #elif _ITERATOR_DEBUG_LEVEL == 1
; 104  : 		_SCL_SECURE_VALIDATE(this->_Getcont() != 0);
; 105  : 		_SCL_SECURE_VALIDATE_RANGE(
; 106  : 			this->_Ptr != 0
; 107  : 			&& this->_Ptr < ((_Myvec *)this->_Getcont())->_Mylast);
; 108  :  #endif /* _ITERATOR_DEBUG_LEVEL */
; 109  : 
; 110  : 		++this->_Ptr;

  00002	83 00 0c	 add	 DWORD PTR [eax], 12	; 0000000cH

; 111  : 		return (*this);
; 112  : 		}

  00005	c3		 ret	 0
??E?$_Vector_const_iterator@V?$_Vector_val@UForceInfo@@V?$allocator@UForceInfo@@@std@@@std@@@std@@QAEAAV01@XZ ENDP ; std::_Vector_const_iterator<std::_Vector_val<ForceInfo,std::allocator<ForceInfo> > >::operator++
_TEXT	ENDS
PUBLIC	??$forward@ABUWeaponInfo@@@std@@YAABUWeaponInfo@@ABU1@@Z ; std::forward<WeaponInfo const &>
; Function compile flags: /Ogsp
; File c:\program files (x86)\microsoft visual studio 10.0\vc\include\utility
;	COMDAT ??$forward@ABUWeaponInfo@@@std@@YAABUWeaponInfo@@ABU1@@Z
_TEXT	SEGMENT
__Arg$ = 8						; size = 4
??$forward@ABUWeaponInfo@@@std@@YAABUWeaponInfo@@ABU1@@Z PROC ; std::forward<WeaponInfo const &>, COMDAT

; 78   : 	{	// forward _Arg, given explicitly specified type parameter

  00000	55		 push	 ebp
  00001	8b ec		 mov	 ebp, esp

; 79   : 	return ((_Ty&&)_Arg);

  00003	8b 45 08	 mov	 eax, DWORD PTR __Arg$[ebp]

; 80   : 	}

  00006	5d		 pop	 ebp
  00007	c3		 ret	 0
??$forward@ABUWeaponInfo@@@std@@YAABUWeaponInfo@@ABU1@@Z ENDP ; std::forward<WeaponInfo const &>
_TEXT	ENDS
PUBLIC	??$forward@ABUForceInfo@@@std@@YAABUForceInfo@@ABU1@@Z ; std::forward<ForceInfo const &>
; Function compile flags: /Ogsp
;	COMDAT ??$forward@ABUForceInfo@@@std@@YAABUForceInfo@@ABU1@@Z
_TEXT	SEGMENT
__Arg$ = 8						; size = 4
??$forward@ABUForceInfo@@@std@@YAABUForceInfo@@ABU1@@Z PROC ; std::forward<ForceInfo const &>, COMDAT

; 78   : 	{	// forward _Arg, given explicitly specified type parameter

  00000	55		 push	 ebp
  00001	8b ec		 mov	 ebp, esp

; 79   : 	return ((_Ty&&)_Arg);

  00003	8b 45 08	 mov	 eax, DWORD PTR __Arg$[ebp]

; 80   : 	}

  00006	5d		 pop	 ebp
  00007	c3		 ret	 0
??$forward@ABUForceInfo@@@std@@YAABUForceInfo@@ABU1@@Z ENDP ; std::forward<ForceInfo const &>
_TEXT	ENDS
PUBLIC	??$_Construct@UForceInfo@@ABU1@@std@@YAXPAUForceInfo@@ABU1@@Z ; std::_Construct<ForceInfo,ForceInfo const &>
; Function compile flags: /Ogsp
; File c:\program files (x86)\microsoft visual studio 10.0\vc\include\xmemory
;	COMDAT ??$_Construct@UForceInfo@@ABU1@@std@@YAXPAUForceInfo@@ABU1@@Z
_TEXT	SEGMENT
__Ptr$ = 8						; size = 4
__Val$ = 12						; size = 4
??$_Construct@UForceInfo@@ABU1@@std@@YAXPAUForceInfo@@ABU1@@Z PROC ; std::_Construct<ForceInfo,ForceInfo const &>, COMDAT

; 46   : 	{	// construct object at _Ptr with value _Val

  00000	55		 push	 ebp
  00001	8b ec		 mov	 ebp, esp
  00003	57		 push	 edi

; 47   : 	void _FARQ *_Vptr = _Ptr;
; 48   : 	::new (_Vptr) _Ty1(_STD forward<_Ty2>(_Val));

  00004	8b 7d 08	 mov	 edi, DWORD PTR __Ptr$[ebp]
  00007	85 ff		 test	 edi, edi
  00009	74 08		 je	 SHORT $LN3@Construct
  0000b	56		 push	 esi
  0000c	8b 75 0c	 mov	 esi, DWORD PTR __Val$[ebp]
  0000f	a5		 movsd
  00010	a5		 movsd
  00011	a5		 movsd
  00012	5e		 pop	 esi
$LN3@Construct:
  00013	5f		 pop	 edi

; 49   : 	}

  00014	5d		 pop	 ebp
  00015	c3		 ret	 0
??$_Construct@UForceInfo@@ABU1@@std@@YAXPAUForceInfo@@ABU1@@Z ENDP ; std::_Construct<ForceInfo,ForceInfo const &>
_TEXT	ENDS
PUBLIC	?_DECSTR@@YAXPADH@Z				; _DECSTR
; Function compile flags: /Ogsp
; File d:\lost saga for developer\youtube\tutorial\source\src\lsclient\stringprotect.h
;	COMDAT ?_DECSTR@@YAXPADH@Z
_TEXT	SEGMENT
_s$ = 8							; size = 4
_l$ = 12						; size = 4
?_DECSTR@@YAXPADH@Z PROC				; _DECSTR, COMDAT

; 40   : __forceinline void _DECSTR(char* s, int l){int i=0,l4=(l-1)/4,*p=(int*)s;s[l-1]=0;for(;i<l4;++i)*(p++)^=0xEAEBECED;for(i=l4*4;i<l-1;++i)s[i]^=0xED-i%4;}

  00000	55		 push	 ebp
  00001	8b ec		 mov	 ebp, esp
  00003	8b 4d 0c	 mov	 ecx, DWORD PTR _l$[ebp]
  00006	56		 push	 esi
  00007	8b 75 08	 mov	 esi, DWORD PTR _s$[ebp]
  0000a	57		 push	 edi
  0000b	8d 79 ff	 lea	 edi, DWORD PTR [ecx-1]
  0000e	8b c7		 mov	 eax, edi
  00010	99		 cdq
  00011	83 e2 03	 and	 edx, 3
  00014	03 c2		 add	 eax, edx
  00016	c1 f8 02	 sar	 eax, 2
  00019	8b d6		 mov	 edx, esi
  0001b	c6 44 0e ff 00	 mov	 BYTE PTR [esi+ecx-1], 0
  00020	85 c0		 test	 eax, eax
  00022	7e 0e		 jle	 SHORT $LN4@DECSTR
  00024	8b c8		 mov	 ecx, eax
$LL6@DECSTR:
  00026	81 32 ed ec eb
	ea		 xor	 DWORD PTR [edx], -353637139 ; eaebecedH
  0002c	83 c2 04	 add	 edx, 4
  0002f	49		 dec	 ecx
  00030	75 f4		 jne	 SHORT $LL6@DECSTR
$LN4@DECSTR:
  00032	c1 e0 02	 shl	 eax, 2
  00035	eb 17		 jmp	 SHORT $LN14@DECSTR
$LL3@DECSTR:
  00037	8b c8		 mov	 ecx, eax
  00039	81 e1 03 00 00
	80		 and	 ecx, -2147483645	; 80000003H
  0003f	79 05		 jns	 SHORT $LN13@DECSTR
  00041	49		 dec	 ecx
  00042	83 c9 fc	 or	 ecx, -4			; fffffffcH
  00045	41		 inc	 ecx
$LN13@DECSTR:
  00046	b2 ed		 mov	 dl, -19			; ffffffedH
  00048	2a d1		 sub	 dl, cl
  0004a	30 14 30	 xor	 BYTE PTR [eax+esi], dl
  0004d	40		 inc	 eax
$LN14@DECSTR:
  0004e	3b c7		 cmp	 eax, edi
  00050	7c e5		 jl	 SHORT $LL3@DECSTR
  00052	5f		 pop	 edi
  00053	5e		 pop	 esi
  00054	5d		 pop	 ebp
  00055	c3		 ret	 0
?_DECSTR@@YAXPADH@Z ENDP				; _DECSTR
_TEXT	ENDS
PUBLIC	??1WeaponInfo@@QAE@XZ				; WeaponInfo::~WeaponInfo
; Function compile flags: /Ogsp
;	COMDAT ??1WeaponInfo@@QAE@XZ
_TEXT	SEGMENT
??1WeaponInfo@@QAE@XZ PROC				; WeaponInfo::~WeaponInfo, COMDAT
; _this$ = ecx
  00000	83 c1 08	 add	 ecx, 8
  00003	ff 25 00 00 00
	00		 jmp	 DWORD PTR __imp_??1ioHashString@@QAE@XZ
??1WeaponInfo@@QAE@XZ ENDP				; WeaponInfo::~WeaponInfo
_TEXT	ENDS
PUBLIC	??1?$_Vector_val@UWeaponInfo@@V?$allocator@UWeaponInfo@@@std@@@std@@QAE@XZ ; std::_Vector_val<WeaponInfo,std::allocator<WeaponInfo> >::~_Vector_val<WeaponInfo,std::allocator<WeaponInfo> >
; Function compile flags: /Ogsp
; File c:\program files (x86)\microsoft visual studio 10.0\vc\include\vector
;	COMDAT ??1?$_Vector_val@UWeaponInfo@@V?$allocator@UWeaponInfo@@@std@@@std@@QAE@XZ
_TEXT	SEGMENT
??1?$_Vector_val@UWeaponInfo@@V?$allocator@UWeaponInfo@@@std@@@std@@QAE@XZ PROC ; std::_Vector_val<WeaponInfo,std::allocator<WeaponInfo> >::~_Vector_val<WeaponInfo,std::allocator<WeaponInfo> >, COMDAT
; _this$ = ecx

; 434  : 		}

  00000	c3		 ret	 0
??1?$_Vector_val@UWeaponInfo@@V?$allocator@UWeaponInfo@@@std@@@std@@QAE@XZ ENDP ; std::_Vector_val<WeaponInfo,std::allocator<WeaponInfo> >::~_Vector_val<WeaponInfo,std::allocator<WeaponInfo> >
_TEXT	ENDS
PUBLIC	??0?$allocator@UWeaponInfo@@@std@@QAE@XZ	; std::allocator<WeaponInfo>::allocator<WeaponInfo>
; Function compile flags: /Ogsp
; File c:\program files (x86)\microsoft visual studio 10.0\vc\include\xmemory
;	COMDAT ??0?$allocator@UWeaponInfo@@@std@@QAE@XZ
_TEXT	SEGMENT
??0?$allocator@UWeaponInfo@@@std@@QAE@XZ PROC		; std::allocator<WeaponInfo>::allocator<WeaponInfo>, COMDAT
; _this$ = ecx

; 161  : 	_ALLOCATOR() _THROW0()

  00000	8b c1		 mov	 eax, ecx

; 162  : 		{	// construct default allocator (do nothing)
; 163  : 		}

  00002	c3		 ret	 0
??0?$allocator@UWeaponInfo@@@std@@QAE@XZ ENDP		; std::allocator<WeaponInfo>::allocator<WeaponInfo>
_TEXT	ENDS
PUBLIC	??1?$_Vector_val@UForceInfo@@V?$allocator@UForceInfo@@@std@@@std@@QAE@XZ ; std::_Vector_val<ForceInfo,std::allocator<ForceInfo> >::~_Vector_val<ForceInfo,std::allocator<ForceInfo> >
; Function compile flags: /Ogsp
; File c:\program files (x86)\microsoft visual studio 10.0\vc\include\vector
;	COMDAT ??1?$_Vector_val@UForceInfo@@V?$allocator@UForceInfo@@@std@@@std@@QAE@XZ
_TEXT	SEGMENT
??1?$_Vector_val@UForceInfo@@V?$allocator@UForceInfo@@@std@@@std@@QAE@XZ PROC ; std::_Vector_val<ForceInfo,std::allocator<ForceInfo> >::~_Vector_val<ForceInfo,std::allocator<ForceInfo> >, COMDAT
; _this$ = ecx

; 434  : 		}

  00000	c3		 ret	 0
??1?$_Vector_val@UForceInfo@@V?$allocator@UForceInfo@@@std@@@std@@QAE@XZ ENDP ; std::_Vector_val<ForceInfo,std::allocator<ForceInfo> >::~_Vector_val<ForceInfo,std::allocator<ForceInfo> >
_TEXT	ENDS
PUBLIC	??0?$allocator@UForceInfo@@@std@@QAE@XZ		; std::allocator<ForceInfo>::allocator<ForceInfo>
; Function compile flags: /Ogsp
; File c:\program files (x86)\microsoft visual studio 10.0\vc\include\xmemory
;	COMDAT ??0?$allocator@UForceInfo@@@std@@QAE@XZ
_TEXT	SEGMENT
??0?$allocator@UForceInfo@@@std@@QAE@XZ PROC		; std::allocator<ForceInfo>::allocator<ForceInfo>, COMDAT
; _this$ = ecx

; 161  : 	_ALLOCATOR() _THROW0()

  00000	8b c1		 mov	 eax, ecx

; 162  : 		{	// construct default allocator (do nothing)
; 163  : 		}

  00002	c3		 ret	 0
??0?$allocator@UForceInfo@@@std@@QAE@XZ ENDP		; std::allocator<ForceInfo>::allocator<ForceInfo>
_TEXT	ENDS
PUBLIC	??1?$_Vector_val@UAttackAttribute@@V?$allocator@UAttackAttribute@@@std@@@std@@QAE@XZ ; std::_Vector_val<AttackAttribute,std::allocator<AttackAttribute> >::~_Vector_val<AttackAttribute,std::allocator<AttackAttribute> >
; Function compile flags: /Ogsp
; File c:\program files (x86)\microsoft visual studio 10.0\vc\include\vector
;	COMDAT ??1?$_Vector_val@UAttackAttribute@@V?$allocator@UAttackAttribute@@@std@@@std@@QAE@XZ
_TEXT	SEGMENT
??1?$_Vector_val@UAttackAttribute@@V?$allocator@UAttackAttribute@@@std@@@std@@QAE@XZ PROC ; std::_Vector_val<AttackAttribute,std::allocator<AttackAttribute> >::~_Vector_val<AttackAttribute,std::allocator<AttackAttribute> >, COMDAT
; _this$ = ecx

; 434  : 		}

  00000	c3		 ret	 0
??1?$_Vector_val@UAttackAttribute@@V?$allocator@UAttackAttribute@@@std@@@std@@QAE@XZ ENDP ; std::_Vector_val<AttackAttribute,std::allocator<AttackAttribute> >::~_Vector_val<AttackAttribute,std::allocator<AttackAttribute> >
_TEXT	ENDS
PUBLIC	??0?$allocator@UAttackAttribute@@@std@@QAE@XZ	; std::allocator<AttackAttribute>::allocator<AttackAttribute>
; Function compile flags: /Ogsp
; File c:\program files (x86)\microsoft visual studio 10.0\vc\include\xmemory
;	COMDAT ??0?$allocator@UAttackAttribute@@@std@@QAE@XZ
_TEXT	SEGMENT
??0?$allocator@UAttackAttribute@@@std@@QAE@XZ PROC	; std::allocator<AttackAttribute>::allocator<AttackAttribute>, COMDAT
; _this$ = ecx

; 161  : 	_ALLOCATOR() _THROW0()

  00000	8b c1		 mov	 eax, ecx

; 162  : 		{	// construct default allocator (do nothing)
; 163  : 		}

  00002	c3		 ret	 0
??0?$allocator@UAttackAttribute@@@std@@QAE@XZ ENDP	; std::allocator<AttackAttribute>::allocator<AttackAttribute>
_TEXT	ENDS
PUBLIC	??0?$allocator@UWeaponInfo@@@std@@QAE@ABV01@@Z	; std::allocator<WeaponInfo>::allocator<WeaponInfo>
; Function compile flags: /Ogsp
;	COMDAT ??0?$allocator@UWeaponInfo@@@std@@QAE@ABV01@@Z
_TEXT	SEGMENT
___formal$ = 8						; size = 4
??0?$allocator@UWeaponInfo@@@std@@QAE@ABV01@@Z PROC	; std::allocator<WeaponInfo>::allocator<WeaponInfo>, COMDAT
; _this$ = ecx

; 165  : 	_ALLOCATOR(const _ALLOCATOR<_Ty>&) _THROW0()

  00000	8b c1		 mov	 eax, ecx

; 166  : 		{	// construct by copying (do nothing)
; 167  : 		}

  00002	c2 04 00	 ret	 4
??0?$allocator@UWeaponInfo@@@std@@QAE@ABV01@@Z ENDP	; std::allocator<WeaponInfo>::allocator<WeaponInfo>
_TEXT	ENDS
PUBLIC	?deallocate@?$allocator@UWeaponInfo@@@std@@QAEXPAUWeaponInfo@@I@Z ; std::allocator<WeaponInfo>::deallocate
; Function compile flags: /Ogsp
;	COMDAT ?deallocate@?$allocator@UWeaponInfo@@@std@@QAEXPAUWeaponInfo@@I@Z
_TEXT	SEGMENT
__Ptr$ = 8						; size = 4
___formal$ = 12						; size = 4
?deallocate@?$allocator@UWeaponInfo@@@std@@QAEXPAUWeaponInfo@@I@Z PROC ; std::allocator<WeaponInfo>::deallocate, COMDAT
; _this$ = ecx

; 181  : 		{	// deallocate object at _Ptr, ignore size

  00000	55		 push	 ebp
  00001	8b ec		 mov	 ebp, esp

; 182  : 		::operator delete(_Ptr);

  00003	ff 75 08	 push	 DWORD PTR __Ptr$[ebp]
  00006	e8 00 00 00 00	 call	 ??3@YAXPAX@Z		; operator delete
  0000b	59		 pop	 ecx

; 183  : 		}

  0000c	5d		 pop	 ebp
  0000d	c2 08 00	 ret	 8
?deallocate@?$allocator@UWeaponInfo@@@std@@QAEXPAUWeaponInfo@@I@Z ENDP ; std::allocator<WeaponInfo>::deallocate
_TEXT	ENDS
PUBLIC	??0?$allocator@UForceInfo@@@std@@QAE@ABV01@@Z	; std::allocator<ForceInfo>::allocator<ForceInfo>
; Function compile flags: /Ogsp
;	COMDAT ??0?$allocator@UForceInfo@@@std@@QAE@ABV01@@Z
_TEXT	SEGMENT
___formal$ = 8						; size = 4
??0?$allocator@UForceInfo@@@std@@QAE@ABV01@@Z PROC	; std::allocator<ForceInfo>::allocator<ForceInfo>, COMDAT
; _this$ = ecx

; 165  : 	_ALLOCATOR(const _ALLOCATOR<_Ty>&) _THROW0()

  00000	8b c1		 mov	 eax, ecx

; 166  : 		{	// construct by copying (do nothing)
; 167  : 		}

  00002	c2 04 00	 ret	 4
??0?$allocator@UForceInfo@@@std@@QAE@ABV01@@Z ENDP	; std::allocator<ForceInfo>::allocator<ForceInfo>
_TEXT	ENDS
PUBLIC	?deallocate@?$allocator@UForceInfo@@@std@@QAEXPAUForceInfo@@I@Z ; std::allocator<ForceInfo>::deallocate
; Function compile flags: /Ogsp
;	COMDAT ?deallocate@?$allocator@UForceInfo@@@std@@QAEXPAUForceInfo@@I@Z
_TEXT	SEGMENT
__Ptr$ = 8						; size = 4
___formal$ = 12						; size = 4
?deallocate@?$allocator@UForceInfo@@@std@@QAEXPAUForceInfo@@I@Z PROC ; std::allocator<ForceInfo>::deallocate, COMDAT
; _this$ = ecx

; 181  : 		{	// deallocate object at _Ptr, ignore size

  00000	55		 push	 ebp
  00001	8b ec		 mov	 ebp, esp

; 182  : 		::operator delete(_Ptr);

  00003	ff 75 08	 push	 DWORD PTR __Ptr$[ebp]
  00006	e8 00 00 00 00	 call	 ??3@YAXPAX@Z		; operator delete
  0000b	59		 pop	 ecx

; 183  : 		}

  0000c	5d		 pop	 ebp
  0000d	c2 08 00	 ret	 8
?deallocate@?$allocator@UForceInfo@@@std@@QAEXPAUForceInfo@@I@Z ENDP ; std::allocator<ForceInfo>::deallocate
_TEXT	ENDS
PUBLIC	??0?$allocator@UAttackAttribute@@@std@@QAE@ABV01@@Z ; std::allocator<AttackAttribute>::allocator<AttackAttribute>
; Function compile flags: /Ogsp
;	COMDAT ??0?$allocator@UAttackAttribute@@@std@@QAE@ABV01@@Z
_TEXT	SEGMENT
___formal$ = 8						; size = 4
??0?$allocator@UAttackAttribute@@@std@@QAE@ABV01@@Z PROC ; std::allocator<AttackAttribute>::allocator<AttackAttribute>, COMDAT
; _this$ = ecx

; 165  : 	_ALLOCATOR(const _ALLOCATOR<_Ty>&) _THROW0()

  00000	8b c1		 mov	 eax, ecx

; 166  : 		{	// construct by copying (do nothing)
; 167  : 		}

  00002	c2 04 00	 ret	 4
??0?$allocator@UAttackAttribute@@@std@@QAE@ABV01@@Z ENDP ; std::allocator<AttackAttribute>::allocator<AttackAttribute>
_TEXT	ENDS
PUBLIC	?deallocate@?$allocator@UAttackAttribute@@@std@@QAEXPAUAttackAttribute@@I@Z ; std::allocator<AttackAttribute>::deallocate
; Function compile flags: /Ogsp
;	COMDAT ?deallocate@?$allocator@UAttackAttribute@@@std@@QAEXPAUAttackAttribute@@I@Z
_TEXT	SEGMENT
__Ptr$ = 8						; size = 4
___formal$ = 12						; size = 4
?deallocate@?$allocator@UAttackAttribute@@@std@@QAEXPAUAttackAttribute@@I@Z PROC ; std::allocator<AttackAttribute>::deallocate, COMDAT
; _this$ = ecx

; 181  : 		{	// deallocate object at _Ptr, ignore size

  00000	55		 push	 ebp
  00001	8b ec		 mov	 ebp, esp

; 182  : 		::operator delete(_Ptr);

  00003	ff 75 08	 push	 DWORD PTR __Ptr$[ebp]
  00006	e8 00 00 00 00	 call	 ??3@YAXPAX@Z		; operator delete
  0000b	59		 pop	 ecx

; 183  : 		}

  0000c	5d		 pop	 ebp
  0000d	c2 08 00	 ret	 8
?deallocate@?$allocator@UAttackAttribute@@@std@@QAEXPAUAttackAttribute@@I@Z ENDP ; std::allocator<AttackAttribute>::deallocate
_TEXT	ENDS
PUBLIC	??0?$_Vector_const_iterator@V?$_Vector_val@UAttackAttribute@@V?$allocator@UAttackAttribute@@@std@@@std@@@std@@QAE@PAUAttackAttribute@@PBU_Container_base0@1@@Z ; std::_Vector_const_iterator<std::_Vector_val<AttackAttribute,std::allocator<AttackAttribute> > >::_Vector_const_iterator<std::_Vector_val<AttackAttribute,std::allocator<AttackAttribute> > >
; Function compile flags: /Ogsp
; File c:\program files (x86)\microsoft visual studio 10.0\vc\include\vector
;	COMDAT ??0?$_Vector_const_iterator@V?$_Vector_val@UAttackAttribute@@V?$allocator@UAttackAttribute@@@std@@@std@@@std@@QAE@PAUAttackAttribute@@PBU_Container_base0@1@@Z
_TEXT	SEGMENT
__Parg$ = 8						; size = 4
__Pvector$ = 12						; size = 4
??0?$_Vector_const_iterator@V?$_Vector_val@UAttackAttribute@@V?$allocator@UAttackAttribute@@@std@@@std@@@std@@QAE@PAUAttackAttribute@@PBU_Container_base0@1@@Z PROC ; std::_Vector_const_iterator<std::_Vector_val<AttackAttribute,std::allocator<AttackAttribute> > >::_Vector_const_iterator<std::_Vector_val<AttackAttribute,std::allocator<AttackAttribute> > >, COMDAT
; _this$ = ecx

; 45   : 		{	// construct with pointer _Parg

  00000	55		 push	 ebp
  00001	8b ec		 mov	 ebp, esp
  00003	8b c1		 mov	 eax, ecx
  00005	8b 4d 08	 mov	 ecx, DWORD PTR __Parg$[ebp]
  00008	89 08		 mov	 DWORD PTR [eax], ecx

; 46   : 		this->_Adopt(_Pvector);
; 47   : 		}

  0000a	5d		 pop	 ebp
  0000b	c2 08 00	 ret	 8
??0?$_Vector_const_iterator@V?$_Vector_val@UAttackAttribute@@V?$allocator@UAttackAttribute@@@std@@@std@@@std@@QAE@PAUAttackAttribute@@PBU_Container_base0@1@@Z ENDP ; std::_Vector_const_iterator<std::_Vector_val<AttackAttribute,std::allocator<AttackAttribute> > >::_Vector_const_iterator<std::_Vector_val<AttackAttribute,std::allocator<AttackAttribute> > >
_TEXT	ENDS
PUBLIC	?_Compat@?$_Vector_const_iterator@V?$_Vector_val@UAttackAttribute@@V?$allocator@UAttackAttribute@@@std@@@std@@@std@@QBEXABV12@@Z ; std::_Vector_const_iterator<std::_Vector_val<AttackAttribute,std::allocator<AttackAttribute> > >::_Compat
; Function compile flags: /Ogsp
;	COMDAT ?_Compat@?$_Vector_const_iterator@V?$_Vector_val@UAttackAttribute@@V?$allocator@UAttackAttribute@@@std@@@std@@@std@@QBEXABV12@@Z
_TEXT	SEGMENT
___formal$ = 8						; size = 4
?_Compat@?$_Vector_const_iterator@V?$_Vector_val@UAttackAttribute@@V?$allocator@UAttackAttribute@@@std@@@std@@@std@@QBEXABV12@@Z PROC ; std::_Vector_const_iterator<std::_Vector_val<AttackAttribute,std::allocator<AttackAttribute> > >::_Compat, COMDAT
; _this$ = ecx

; 253  : 		}

  00000	c2 04 00	 ret	 4
?_Compat@?$_Vector_const_iterator@V?$_Vector_val@UAttackAttribute@@V?$allocator@UAttackAttribute@@@std@@@std@@@std@@QBEXABV12@@Z ENDP ; std::_Vector_const_iterator<std::_Vector_val<AttackAttribute,std::allocator<AttackAttribute> > >::_Compat
_TEXT	ENDS
EXTRN	__imp_??0exception@std@@QAE@ABV01@@Z:PROC
; Function compile flags: /Ogsp
;	COMDAT ??0bad_alloc@std@@QAE@ABV01@@Z
_TEXT	SEGMENT
___that$ = 8						; size = 4
??0bad_alloc@std@@QAE@ABV01@@Z PROC			; std::bad_alloc::bad_alloc, COMDAT
; _this$ = ecx
  00000	55		 push	 ebp
  00001	8b ec		 mov	 ebp, esp
  00003	56		 push	 esi
  00004	ff 75 08	 push	 DWORD PTR ___that$[ebp]
  00007	8b f1		 mov	 esi, ecx
  00009	ff 15 00 00 00
	00		 call	 DWORD PTR __imp_??0exception@std@@QAE@ABV01@@Z
  0000f	c7 06 00 00 00
	00		 mov	 DWORD PTR [esi], OFFSET ??_7bad_alloc@std@@6B@
  00015	8b c6		 mov	 eax, esi
  00017	5e		 pop	 esi
  00018	5d		 pop	 ebp
  00019	c2 04 00	 ret	 4
??0bad_alloc@std@@QAE@ABV01@@Z ENDP			; std::bad_alloc::bad_alloc
_TEXT	ENDS
PUBLIC	??$_Ptr_cat@UAttackAttribute@@U1@@std@@YA?AU_Nonscalar_ptr_iterator_tag@0@PAUAttackAttribute@@0@Z ; std::_Ptr_cat<AttackAttribute,AttackAttribute>
; Function compile flags: /Ogsp
; File c:\program files (x86)\microsoft visual studio 10.0\vc\include\xutility
;	COMDAT ??$_Ptr_cat@UAttackAttribute@@U1@@std@@YA?AU_Nonscalar_ptr_iterator_tag@0@PAUAttackAttribute@@0@Z
_TEXT	SEGMENT
__Cat$ = -1						; size = 1
___formal$ = 8						; size = 4
___formal$ = 12						; size = 4
??$_Ptr_cat@UAttackAttribute@@U1@@std@@YA?AU_Nonscalar_ptr_iterator_tag@0@PAUAttackAttribute@@0@Z PROC ; std::_Ptr_cat<AttackAttribute,AttackAttribute>, COMDAT

; 516  : 	{	// return pointer category from pointers

  00000	55		 push	 ebp
  00001	8b ec		 mov	 ebp, esp
  00003	51		 push	 ecx

; 517  : 	typename _Ptr_cat_helper<_Elem1, _Elem2>::_Type _Cat;
; 518  : 	return (_Cat);

  00004	8a 45 ff	 mov	 al, BYTE PTR __Cat$[ebp]

; 519  : 	}

  00007	c9		 leave
  00008	c3		 ret	 0
??$_Ptr_cat@UAttackAttribute@@U1@@std@@YA?AU_Nonscalar_ptr_iterator_tag@0@PAUAttackAttribute@@0@Z ENDP ; std::_Ptr_cat<AttackAttribute,AttackAttribute>
_TEXT	ENDS
PUBLIC	??$_Ptr_cat@UWeaponInfo@@U1@@std@@YA?AU_Nonscalar_ptr_iterator_tag@0@PAUWeaponInfo@@0@Z ; std::_Ptr_cat<WeaponInfo,WeaponInfo>
; Function compile flags: /Ogsp
;	COMDAT ??$_Ptr_cat@UWeaponInfo@@U1@@std@@YA?AU_Nonscalar_ptr_iterator_tag@0@PAUWeaponInfo@@0@Z
_TEXT	SEGMENT
__Cat$ = -1						; size = 1
___formal$ = 8						; size = 4
___formal$ = 12						; size = 4
??$_Ptr_cat@UWeaponInfo@@U1@@std@@YA?AU_Nonscalar_ptr_iterator_tag@0@PAUWeaponInfo@@0@Z PROC ; std::_Ptr_cat<WeaponInfo,WeaponInfo>, COMDAT

; 516  : 	{	// return pointer category from pointers

  00000	55		 push	 ebp
  00001	8b ec		 mov	 ebp, esp
  00003	51		 push	 ecx

; 517  : 	typename _Ptr_cat_helper<_Elem1, _Elem2>::_Type _Cat;
; 518  : 	return (_Cat);

  00004	8a 45 ff	 mov	 al, BYTE PTR __Cat$[ebp]

; 519  : 	}

  00007	c9		 leave
  00008	c3		 ret	 0
??$_Ptr_cat@UWeaponInfo@@U1@@std@@YA?AU_Nonscalar_ptr_iterator_tag@0@PAUWeaponInfo@@0@Z ENDP ; std::_Ptr_cat<WeaponInfo,WeaponInfo>
_TEXT	ENDS
PUBLIC	??$_Ptr_cat@UForceInfo@@U1@@std@@YA?AU_Nonscalar_ptr_iterator_tag@0@PAUForceInfo@@0@Z ; std::_Ptr_cat<ForceInfo,ForceInfo>
; Function compile flags: /Ogsp
;	COMDAT ??$_Ptr_cat@UForceInfo@@U1@@std@@YA?AU_Nonscalar_ptr_iterator_tag@0@PAUForceInfo@@0@Z
_TEXT	SEGMENT
__Cat$ = -1						; size = 1
___formal$ = 8						; size = 4
___formal$ = 12						; size = 4
??$_Ptr_cat@UForceInfo@@U1@@std@@YA?AU_Nonscalar_ptr_iterator_tag@0@PAUForceInfo@@0@Z PROC ; std::_Ptr_cat<ForceInfo,ForceInfo>, COMDAT

; 516  : 	{	// return pointer category from pointers

  00000	55		 push	 ebp
  00001	8b ec		 mov	 ebp, esp
  00003	51		 push	 ecx

; 517  : 	typename _Ptr_cat_helper<_Elem1, _Elem2>::_Type _Cat;
; 518  : 	return (_Cat);

  00004	8a 45 ff	 mov	 al, BYTE PTR __Cat$[ebp]

; 519  : 	}

  00007	c9		 leave
  00008	c3		 ret	 0
??$_Ptr_cat@UForceInfo@@U1@@std@@YA?AU_Nonscalar_ptr_iterator_tag@0@PAUForceInfo@@0@Z ENDP ; std::_Ptr_cat<ForceInfo,ForceInfo>
_TEXT	ENDS
PUBLIC	?capacity@?$vector@UWeaponInfo@@V?$allocator@UWeaponInfo@@@std@@@std@@QBEIXZ ; std::vector<WeaponInfo,std::allocator<WeaponInfo> >::capacity
; Function compile flags: /Ogsp
; File c:\program files (x86)\microsoft visual studio 10.0\vc\include\vector
;	COMDAT ?capacity@?$vector@UWeaponInfo@@V?$allocator@UWeaponInfo@@@std@@@std@@QBEIXZ
_TEXT	SEGMENT
?capacity@?$vector@UWeaponInfo@@V?$allocator@UWeaponInfo@@@std@@@std@@QBEIXZ PROC ; std::vector<WeaponInfo,std::allocator<WeaponInfo> >::capacity, COMDAT
; _this$ = ecx

; 777  : 		return (this->_Myend - this->_Myfirst);

  00000	8b 41 08	 mov	 eax, DWORD PTR [ecx+8]
  00003	2b 01		 sub	 eax, DWORD PTR [ecx]
  00005	6a 28		 push	 40			; 00000028H
  00007	99		 cdq
  00008	59		 pop	 ecx
  00009	f7 f9		 idiv	 ecx

; 778  : 		}

  0000b	c3		 ret	 0
?capacity@?$vector@UWeaponInfo@@V?$allocator@UWeaponInfo@@@std@@@std@@QBEIXZ ENDP ; std::vector<WeaponInfo,std::allocator<WeaponInfo> >::capacity
_TEXT	ENDS
PUBLIC	?size@?$vector@UWeaponInfo@@V?$allocator@UWeaponInfo@@@std@@@std@@QBEIXZ ; std::vector<WeaponInfo,std::allocator<WeaponInfo> >::size
; Function compile flags: /Ogsp
;	COMDAT ?size@?$vector@UWeaponInfo@@V?$allocator@UWeaponInfo@@@std@@@std@@QBEIXZ
_TEXT	SEGMENT
?size@?$vector@UWeaponInfo@@V?$allocator@UWeaponInfo@@@std@@@std@@QBEIXZ PROC ; std::vector<WeaponInfo,std::allocator<WeaponInfo> >::size, COMDAT
; _this$ = ecx

; 879  : 		return (this->_Mylast - this->_Myfirst);

  00000	8b 41 04	 mov	 eax, DWORD PTR [ecx+4]
  00003	2b 01		 sub	 eax, DWORD PTR [ecx]
  00005	6a 28		 push	 40			; 00000028H
  00007	99		 cdq
  00008	59		 pop	 ecx
  00009	f7 f9		 idiv	 ecx

; 880  : 		}

  0000b	c3		 ret	 0
?size@?$vector@UWeaponInfo@@V?$allocator@UWeaponInfo@@@std@@@std@@QBEIXZ ENDP ; std::vector<WeaponInfo,std::allocator<WeaponInfo> >::size
_TEXT	ENDS
PUBLIC	?capacity@?$vector@UForceInfo@@V?$allocator@UForceInfo@@@std@@@std@@QBEIXZ ; std::vector<ForceInfo,std::allocator<ForceInfo> >::capacity
; Function compile flags: /Ogsp
;	COMDAT ?capacity@?$vector@UForceInfo@@V?$allocator@UForceInfo@@@std@@@std@@QBEIXZ
_TEXT	SEGMENT
?capacity@?$vector@UForceInfo@@V?$allocator@UForceInfo@@@std@@@std@@QBEIXZ PROC ; std::vector<ForceInfo,std::allocator<ForceInfo> >::capacity, COMDAT
; _this$ = ecx

; 777  : 		return (this->_Myend - this->_Myfirst);

  00000	8b 41 08	 mov	 eax, DWORD PTR [ecx+8]
  00003	2b 01		 sub	 eax, DWORD PTR [ecx]
  00005	6a 0c		 push	 12			; 0000000cH
  00007	99		 cdq
  00008	59		 pop	 ecx
  00009	f7 f9		 idiv	 ecx

; 778  : 		}

  0000b	c3		 ret	 0
?capacity@?$vector@UForceInfo@@V?$allocator@UForceInfo@@@std@@@std@@QBEIXZ ENDP ; std::vector<ForceInfo,std::allocator<ForceInfo> >::capacity
_TEXT	ENDS
PUBLIC	?size@?$vector@UForceInfo@@V?$allocator@UForceInfo@@@std@@@std@@QBEIXZ ; std::vector<ForceInfo,std::allocator<ForceInfo> >::size
; Function compile flags: /Ogsp
;	COMDAT ?size@?$vector@UForceInfo@@V?$allocator@UForceInfo@@@std@@@std@@QBEIXZ
_TEXT	SEGMENT
?size@?$vector@UForceInfo@@V?$allocator@UForceInfo@@@std@@@std@@QBEIXZ PROC ; std::vector<ForceInfo,std::allocator<ForceInfo> >::size, COMDAT
; _this$ = ecx

; 879  : 		return (this->_Mylast - this->_Myfirst);

  00000	8b 41 04	 mov	 eax, DWORD PTR [ecx+4]
  00003	2b 01		 sub	 eax, DWORD PTR [ecx]
  00005	6a 0c		 push	 12			; 0000000cH
  00007	99		 cdq
  00008	59		 pop	 ecx
  00009	f7 f9		 idiv	 ecx

; 880  : 		}

  0000b	c3		 ret	 0
?size@?$vector@UForceInfo@@V?$allocator@UForceInfo@@@std@@@std@@QBEIXZ ENDP ; std::vector<ForceInfo,std::allocator<ForceInfo> >::size
_TEXT	ENDS
PUBLIC	?_Xlen@?$vector@UWeaponInfo@@V?$allocator@UWeaponInfo@@@std@@@std@@IBEXXZ ; std::vector<WeaponInfo,std::allocator<WeaponInfo> >::_Xlen
; Function compile flags: /Ogsp
;	COMDAT ?_Xlen@?$vector@UWeaponInfo@@V?$allocator@UWeaponInfo@@@std@@@std@@IBEXXZ
_TEXT	SEGMENT
?_Xlen@?$vector@UWeaponInfo@@V?$allocator@UWeaponInfo@@@std@@@std@@IBEXXZ PROC ; std::vector<WeaponInfo,std::allocator<WeaponInfo> >::_Xlen, COMDAT
; _this$ = ecx

; 1427 : 		_Xlength_error("vector<T> too long");

  00000	68 00 00 00 00	 push	 OFFSET ??_C@_0BD@OLBABOEK@vector?$DMT?$DO?5too?5long?$AA@
  00005	ff 15 00 00 00
	00		 call	 DWORD PTR __imp_?_Xlength_error@std@@YAXPBD@Z
$LN4@Xlen@2:
$LN3@Xlen@2:
  0000b	cc		 int	 3
?_Xlen@?$vector@UWeaponInfo@@V?$allocator@UWeaponInfo@@@std@@@std@@IBEXXZ ENDP ; std::vector<WeaponInfo,std::allocator<WeaponInfo> >::_Xlen
_TEXT	ENDS
PUBLIC	?_Xlen@?$vector@UForceInfo@@V?$allocator@UForceInfo@@@std@@@std@@IBEXXZ ; std::vector<ForceInfo,std::allocator<ForceInfo> >::_Xlen
; Function compile flags: /Ogsp
;	COMDAT ?_Xlen@?$vector@UForceInfo@@V?$allocator@UForceInfo@@@std@@@std@@IBEXXZ
_TEXT	SEGMENT
?_Xlen@?$vector@UForceInfo@@V?$allocator@UForceInfo@@@std@@@std@@IBEXXZ PROC ; std::vector<ForceInfo,std::allocator<ForceInfo> >::_Xlen, COMDAT
; _this$ = ecx

; 1427 : 		_Xlength_error("vector<T> too long");

  00000	68 00 00 00 00	 push	 OFFSET ??_C@_0BD@OLBABOEK@vector?$DMT?$DO?5too?5long?$AA@
  00005	ff 15 00 00 00
	00		 call	 DWORD PTR __imp_?_Xlength_error@std@@YAXPBD@Z
$LN4@Xlen@3:
$LN3@Xlen@3:
  0000b	cc		 int	 3
?_Xlen@?$vector@UForceInfo@@V?$allocator@UForceInfo@@@std@@@std@@IBEXXZ ENDP ; std::vector<ForceInfo,std::allocator<ForceInfo> >::_Xlen
_TEXT	ENDS
PUBLIC	?max_size@?$allocator@UWeaponInfo@@@std@@QBEIXZ	; std::allocator<WeaponInfo>::max_size
; Function compile flags: /Ogsp
; File c:\program files (x86)\microsoft visual studio 10.0\vc\include\xmemory
;	COMDAT ?max_size@?$allocator@UWeaponInfo@@@std@@QBEIXZ
_TEXT	SEGMENT
?max_size@?$allocator@UWeaponInfo@@@std@@QBEIXZ PROC	; std::allocator<WeaponInfo>::max_size, COMDAT
; _this$ = ecx

; 218  : 		_SIZT _Count = (_SIZT)(-1) / sizeof (_Ty);
; 219  : 		return (0 < _Count ? _Count : 1);

  00000	b8 66 66 66 06	 mov	 eax, 107374182		; 06666666H

; 220  : 		}

  00005	c3		 ret	 0
?max_size@?$allocator@UWeaponInfo@@@std@@QBEIXZ ENDP	; std::allocator<WeaponInfo>::max_size
_TEXT	ENDS
PUBLIC	?max_size@?$allocator@UForceInfo@@@std@@QBEIXZ	; std::allocator<ForceInfo>::max_size
; Function compile flags: /Ogsp
;	COMDAT ?max_size@?$allocator@UForceInfo@@@std@@QBEIXZ
_TEXT	SEGMENT
?max_size@?$allocator@UForceInfo@@@std@@QBEIXZ PROC	; std::allocator<ForceInfo>::max_size, COMDAT
; _this$ = ecx

; 218  : 		_SIZT _Count = (_SIZT)(-1) / sizeof (_Ty);
; 219  : 		return (0 < _Count ? _Count : 1);

  00000	b8 55 55 55 15	 mov	 eax, 357913941		; 15555555H

; 220  : 		}

  00005	c3		 ret	 0
?max_size@?$allocator@UForceInfo@@@std@@QBEIXZ ENDP	; std::allocator<ForceInfo>::max_size
_TEXT	ENDS
PUBLIC	??0?$_Vector_const_iterator@V?$_Vector_val@UWeaponInfo@@V?$allocator@UWeaponInfo@@@std@@@std@@@std@@QAE@PAUWeaponInfo@@PBU_Container_base0@1@@Z ; std::_Vector_const_iterator<std::_Vector_val<WeaponInfo,std::allocator<WeaponInfo> > >::_Vector_const_iterator<std::_Vector_val<WeaponInfo,std::allocator<WeaponInfo> > >
; Function compile flags: /Ogsp
; File c:\program files (x86)\microsoft visual studio 10.0\vc\include\vector
;	COMDAT ??0?$_Vector_const_iterator@V?$_Vector_val@UWeaponInfo@@V?$allocator@UWeaponInfo@@@std@@@std@@@std@@QAE@PAUWeaponInfo@@PBU_Container_base0@1@@Z
_TEXT	SEGMENT
__Parg$ = 8						; size = 4
__Pvector$ = 12						; size = 4
??0?$_Vector_const_iterator@V?$_Vector_val@UWeaponInfo@@V?$allocator@UWeaponInfo@@@std@@@std@@@std@@QAE@PAUWeaponInfo@@PBU_Container_base0@1@@Z PROC ; std::_Vector_const_iterator<std::_Vector_val<WeaponInfo,std::allocator<WeaponInfo> > >::_Vector_const_iterator<std::_Vector_val<WeaponInfo,std::allocator<WeaponInfo> > >, COMDAT
; _this$ = ecx

; 45   : 		{	// construct with pointer _Parg

  00000	55		 push	 ebp
  00001	8b ec		 mov	 ebp, esp
  00003	8b c1		 mov	 eax, ecx
  00005	8b 4d 08	 mov	 ecx, DWORD PTR __Parg$[ebp]
  00008	89 08		 mov	 DWORD PTR [eax], ecx

; 46   : 		this->_Adopt(_Pvector);
; 47   : 		}

  0000a	5d		 pop	 ebp
  0000b	c2 08 00	 ret	 8
??0?$_Vector_const_iterator@V?$_Vector_val@UWeaponInfo@@V?$allocator@UWeaponInfo@@@std@@@std@@@std@@QAE@PAUWeaponInfo@@PBU_Container_base0@1@@Z ENDP ; std::_Vector_const_iterator<std::_Vector_val<WeaponInfo,std::allocator<WeaponInfo> > >::_Vector_const_iterator<std::_Vector_val<WeaponInfo,std::allocator<WeaponInfo> > >
_TEXT	ENDS
PUBLIC	??0?$_Vector_const_iterator@V?$_Vector_val@UForceInfo@@V?$allocator@UForceInfo@@@std@@@std@@@std@@QAE@PAUForceInfo@@PBU_Container_base0@1@@Z ; std::_Vector_const_iterator<std::_Vector_val<ForceInfo,std::allocator<ForceInfo> > >::_Vector_const_iterator<std::_Vector_val<ForceInfo,std::allocator<ForceInfo> > >
; Function compile flags: /Ogsp
;	COMDAT ??0?$_Vector_const_iterator@V?$_Vector_val@UForceInfo@@V?$allocator@UForceInfo@@@std@@@std@@@std@@QAE@PAUForceInfo@@PBU_Container_base0@1@@Z
_TEXT	SEGMENT
__Parg$ = 8						; size = 4
__Pvector$ = 12						; size = 4
??0?$_Vector_const_iterator@V?$_Vector_val@UForceInfo@@V?$allocator@UForceInfo@@@std@@@std@@@std@@QAE@PAUForceInfo@@PBU_Container_base0@1@@Z PROC ; std::_Vector_const_iterator<std::_Vector_val<ForceInfo,std::allocator<ForceInfo> > >::_Vector_const_iterator<std::_Vector_val<ForceInfo,std::allocator<ForceInfo> > >, COMDAT
; _this$ = ecx

; 45   : 		{	// construct with pointer _Parg

  00000	55		 push	 ebp
  00001	8b ec		 mov	 ebp, esp
  00003	8b c1		 mov	 eax, ecx
  00005	8b 4d 08	 mov	 ecx, DWORD PTR __Parg$[ebp]
  00008	89 08		 mov	 DWORD PTR [eax], ecx

; 46   : 		this->_Adopt(_Pvector);
; 47   : 		}

  0000a	5d		 pop	 ebp
  0000b	c2 08 00	 ret	 8
??0?$_Vector_const_iterator@V?$_Vector_val@UForceInfo@@V?$allocator@UForceInfo@@@std@@@std@@@std@@QAE@PAUForceInfo@@PBU_Container_base0@1@@Z ENDP ; std::_Vector_const_iterator<std::_Vector_val<ForceInfo,std::allocator<ForceInfo> > >::_Vector_const_iterator<std::_Vector_val<ForceInfo,std::allocator<ForceInfo> > >
_TEXT	ENDS
PUBLIC	?_Compat@?$_Vector_const_iterator@V?$_Vector_val@UWeaponInfo@@V?$allocator@UWeaponInfo@@@std@@@std@@@std@@QBEXABV12@@Z ; std::_Vector_const_iterator<std::_Vector_val<WeaponInfo,std::allocator<WeaponInfo> > >::_Compat
; Function compile flags: /Ogsp
;	COMDAT ?_Compat@?$_Vector_const_iterator@V?$_Vector_val@UWeaponInfo@@V?$allocator@UWeaponInfo@@@std@@@std@@@std@@QBEXABV12@@Z
_TEXT	SEGMENT
___formal$ = 8						; size = 4
?_Compat@?$_Vector_const_iterator@V?$_Vector_val@UWeaponInfo@@V?$allocator@UWeaponInfo@@@std@@@std@@@std@@QBEXABV12@@Z PROC ; std::_Vector_const_iterator<std::_Vector_val<WeaponInfo,std::allocator<WeaponInfo> > >::_Compat, COMDAT
; _this$ = ecx

; 253  : 		}

  00000	c2 04 00	 ret	 4
?_Compat@?$_Vector_const_iterator@V?$_Vector_val@UWeaponInfo@@V?$allocator@UWeaponInfo@@@std@@@std@@@std@@QBEXABV12@@Z ENDP ; std::_Vector_const_iterator<std::_Vector_val<WeaponInfo,std::allocator<WeaponInfo> > >::_Compat
_TEXT	ENDS
PUBLIC	?_Compat@?$_Vector_const_iterator@V?$_Vector_val@UForceInfo@@V?$allocator@UForceInfo@@@std@@@std@@@std@@QBEXABV12@@Z ; std::_Vector_const_iterator<std::_Vector_val<ForceInfo,std::allocator<ForceInfo> > >::_Compat
; Function compile flags: /Ogsp
;	COMDAT ?_Compat@?$_Vector_const_iterator@V?$_Vector_val@UForceInfo@@V?$allocator@UForceInfo@@@std@@@std@@@std@@QBEXABV12@@Z
_TEXT	SEGMENT
___formal$ = 8						; size = 4
?_Compat@?$_Vector_const_iterator@V?$_Vector_val@UForceInfo@@V?$allocator@UForceInfo@@@std@@@std@@@std@@QBEXABV12@@Z PROC ; std::_Vector_const_iterator<std::_Vector_val<ForceInfo,std::allocator<ForceInfo> > >::_Compat, COMDAT
; _this$ = ecx

; 253  : 		}

  00000	c2 04 00	 ret	 4
?_Compat@?$_Vector_const_iterator@V?$_Vector_val@UForceInfo@@V?$allocator@UForceInfo@@@std@@@std@@@std@@QBEXABV12@@Z ENDP ; std::_Vector_const_iterator<std::_Vector_val<ForceInfo,std::allocator<ForceInfo> > >::_Compat
_TEXT	ENDS
PUBLIC	??$move@AAUAttackAttribute@@@std@@YA$$QAUAttackAttribute@@AAU1@@Z ; std::move<AttackAttribute &>
; Function compile flags: /Ogsp
; File c:\program files (x86)\microsoft visual studio 10.0\vc\include\utility
;	COMDAT ??$move@AAUAttackAttribute@@@std@@YA$$QAUAttackAttribute@@AAU1@@Z
_TEXT	SEGMENT
__Arg$ = 8						; size = 4
??$move@AAUAttackAttribute@@@std@@YA$$QAUAttackAttribute@@AAU1@@Z PROC ; std::move<AttackAttribute &>, COMDAT

; 86   : 	{	// forward _Arg as movable

  00000	55		 push	 ebp
  00001	8b ec		 mov	 ebp, esp

; 87   : 	return ((typename tr1::_Remove_reference<_Ty>::_Type&&)_Arg);

  00003	8b 45 08	 mov	 eax, DWORD PTR __Arg$[ebp]

; 88   : 	}

  00006	5d		 pop	 ebp
  00007	c3		 ret	 0
??$move@AAUAttackAttribute@@@std@@YA$$QAUAttackAttribute@@AAU1@@Z ENDP ; std::move<AttackAttribute &>
_TEXT	ENDS
PUBLIC	??$_Allocate@UWeaponInfo@@@std@@YAPAUWeaponInfo@@IPAU1@@Z ; std::_Allocate<WeaponInfo>
; Function compile flags: /Ogsp
; File c:\program files (x86)\microsoft visual studio 10.0\vc\include\xmemory
;	COMDAT ??$_Allocate@UWeaponInfo@@@std@@YAPAUWeaponInfo@@IPAU1@@Z
_TEXT	SEGMENT
$T511195 = -12						; size = 12
$T511199 = 8						; size = 4
__Count$ = 8						; size = 4
___formal$ = 12						; size = 4
??$_Allocate@UWeaponInfo@@@std@@YAPAUWeaponInfo@@IPAU1@@Z PROC ; std::_Allocate<WeaponInfo>, COMDAT

; 30   : 	{	// allocate storage for _Count elements of type _Ty

  00000	55		 push	 ebp
  00001	8b ec		 mov	 ebp, esp

; 31   : 	void *_Ptr = 0;
; 32   : 
; 33   : 	if (_Count <= 0)

  00003	8b 4d 08	 mov	 ecx, DWORD PTR __Count$[ebp]
  00006	83 ec 0c	 sub	 esp, 12			; 0000000cH
  00009	33 c0		 xor	 eax, eax
  0000b	85 c9		 test	 ecx, ecx

; 34   : 		_Count = 0;
; 35   : 	else if (((_SIZT)(-1) / sizeof (_Ty) < _Count)

  0000d	74 3c		 je	 SHORT $LN5@Allocate@2

; 36   : 		|| (_Ptr = ::operator new(_Count * sizeof (_Ty))) == 0)

  0000f	81 f9 66 66 66
	06		 cmp	 ecx, 107374182		; 06666666H
  00015	77 0e		 ja	 SHORT $LN1@Allocate@2
  00017	6b c9 28	 imul	 ecx, 40			; 00000028H
  0001a	51		 push	 ecx
  0001b	e8 00 00 00 00	 call	 ??2@YAPAXI@Z		; operator new
  00020	59		 pop	 ecx
  00021	85 c0		 test	 eax, eax

; 38   : 
; 39   : 	return ((_Ty _FARQ *)_Ptr);

  00023	75 26		 jne	 SHORT $LN5@Allocate@2
$LN1@Allocate@2:

; 37   : 		_THROW_NCEE(bad_alloc, 0);

  00025	83 65 08 00	 and	 DWORD PTR $T511199[ebp], 0
  00029	8d 45 08	 lea	 eax, DWORD PTR $T511199[ebp]
  0002c	50		 push	 eax
  0002d	8d 4d f4	 lea	 ecx, DWORD PTR $T511195[ebp]
  00030	ff 15 00 00 00
	00		 call	 DWORD PTR __imp_??0exception@std@@QAE@ABQBD@Z
  00036	68 00 00 00 00	 push	 OFFSET __TI2?AVbad_alloc@std@@
  0003b	8d 45 f4	 lea	 eax, DWORD PTR $T511195[ebp]
  0003e	50		 push	 eax
  0003f	c7 45 f4 00 00
	00 00		 mov	 DWORD PTR $T511195[ebp], OFFSET ??_7bad_alloc@std@@6B@
  00046	e8 00 00 00 00	 call	 __CxxThrowException@8
$LN10@Allocate@2:
$LN5@Allocate@2:

; 40   : 	}

  0004b	c9		 leave
  0004c	c3		 ret	 0
$LN9@Allocate@2:
??$_Allocate@UWeaponInfo@@@std@@YAPAUWeaponInfo@@IPAU1@@Z ENDP ; std::_Allocate<WeaponInfo>
_TEXT	ENDS
PUBLIC	??$_Allocate@UForceInfo@@@std@@YAPAUForceInfo@@IPAU1@@Z ; std::_Allocate<ForceInfo>
; Function compile flags: /Ogsp
;	COMDAT ??$_Allocate@UForceInfo@@@std@@YAPAUForceInfo@@IPAU1@@Z
_TEXT	SEGMENT
$T511204 = -12						; size = 12
$T511208 = 8						; size = 4
__Count$ = 8						; size = 4
___formal$ = 12						; size = 4
??$_Allocate@UForceInfo@@@std@@YAPAUForceInfo@@IPAU1@@Z PROC ; std::_Allocate<ForceInfo>, COMDAT

; 30   : 	{	// allocate storage for _Count elements of type _Ty

  00000	55		 push	 ebp
  00001	8b ec		 mov	 ebp, esp

; 31   : 	void *_Ptr = 0;
; 32   : 
; 33   : 	if (_Count <= 0)

  00003	8b 4d 08	 mov	 ecx, DWORD PTR __Count$[ebp]
  00006	83 ec 0c	 sub	 esp, 12			; 0000000cH
  00009	33 c0		 xor	 eax, eax
  0000b	85 c9		 test	 ecx, ecx

; 34   : 		_Count = 0;
; 35   : 	else if (((_SIZT)(-1) / sizeof (_Ty) < _Count)

  0000d	74 3c		 je	 SHORT $LN5@Allocate@3

; 36   : 		|| (_Ptr = ::operator new(_Count * sizeof (_Ty))) == 0)

  0000f	81 f9 55 55 55
	15		 cmp	 ecx, 357913941		; 15555555H
  00015	77 0e		 ja	 SHORT $LN1@Allocate@3
  00017	6b c9 0c	 imul	 ecx, 12			; 0000000cH
  0001a	51		 push	 ecx
  0001b	e8 00 00 00 00	 call	 ??2@YAPAXI@Z		; operator new
  00020	59		 pop	 ecx
  00021	85 c0		 test	 eax, eax

; 38   : 
; 39   : 	return ((_Ty _FARQ *)_Ptr);

  00023	75 26		 jne	 SHORT $LN5@Allocate@3
$LN1@Allocate@3:

; 37   : 		_THROW_NCEE(bad_alloc, 0);

  00025	83 65 08 00	 and	 DWORD PTR $T511208[ebp], 0
  00029	8d 45 08	 lea	 eax, DWORD PTR $T511208[ebp]
  0002c	50		 push	 eax
  0002d	8d 4d f4	 lea	 ecx, DWORD PTR $T511204[ebp]
  00030	ff 15 00 00 00
	00		 call	 DWORD PTR __imp_??0exception@std@@QAE@ABQBD@Z
  00036	68 00 00 00 00	 push	 OFFSET __TI2?AVbad_alloc@std@@
  0003b	8d 45 f4	 lea	 eax, DWORD PTR $T511204[ebp]
  0003e	50		 push	 eax
  0003f	c7 45 f4 00 00
	00 00		 mov	 DWORD PTR $T511204[ebp], OFFSET ??_7bad_alloc@std@@6B@
  00046	e8 00 00 00 00	 call	 __CxxThrowException@8
$LN10@Allocate@3:
$LN5@Allocate@3:

; 40   : 	}

  0004b	c9		 leave
  0004c	c3		 ret	 0
$LN9@Allocate@3:
??$_Allocate@UForceInfo@@@std@@YAPAUForceInfo@@IPAU1@@Z ENDP ; std::_Allocate<ForceInfo>
_TEXT	ENDS
PUBLIC	??$_Copy_impl@PAUForceInfo@@PAU1@@std@@YAPAUForceInfo@@PAU1@00U_Nonscalar_ptr_iterator_tag@0@@Z ; std::_Copy_impl<ForceInfo *,ForceInfo *>
; Function compile flags: /Ogsp
; File c:\program files (x86)\microsoft visual studio 10.0\vc\include\xutility
;	COMDAT ??$_Copy_impl@PAUForceInfo@@PAU1@@std@@YAPAUForceInfo@@PAU1@00U_Nonscalar_ptr_iterator_tag@0@@Z
_TEXT	SEGMENT
__First$ = 8						; size = 4
__Last$ = 12						; size = 4
__Dest$ = 16						; size = 4
___formal$ = 20						; size = 1
??$_Copy_impl@PAUForceInfo@@PAU1@@std@@YAPAUForceInfo@@PAU1@00U_Nonscalar_ptr_iterator_tag@0@@Z PROC ; std::_Copy_impl<ForceInfo *,ForceInfo *>, COMDAT

; 2142 : 	{	// copy [_First, _Last) to [_Dest, ...), arbitrary iterators

  00000	55		 push	 ebp
  00001	8b ec		 mov	 ebp, esp

; 2143 : 	for (; _First != _Last; ++_Dest, ++_First)

  00003	8b 45 08	 mov	 eax, DWORD PTR __First$[ebp]
  00006	3b 45 0c	 cmp	 eax, DWORD PTR __Last$[ebp]
  00009	74 18		 je	 SHORT $LN8@Copy_impl
  0000b	56		 push	 esi
  0000c	57		 push	 edi
$LL3@Copy_impl:

; 2144 : 		*_Dest = *_First;

  0000d	8b 7d 10	 mov	 edi, DWORD PTR __Dest$[ebp]
  00010	83 45 10 0c	 add	 DWORD PTR __Dest$[ebp], 12 ; 0000000cH
  00014	8b f0		 mov	 esi, eax
  00016	a5		 movsd
  00017	a5		 movsd
  00018	83 c0 0c	 add	 eax, 12			; 0000000cH
  0001b	a5		 movsd
  0001c	3b 45 0c	 cmp	 eax, DWORD PTR __Last$[ebp]
  0001f	75 ec		 jne	 SHORT $LL3@Copy_impl
  00021	5f		 pop	 edi
  00022	5e		 pop	 esi
$LN8@Copy_impl:

; 2145 : 	return (_Dest);

  00023	8b 45 10	 mov	 eax, DWORD PTR __Dest$[ebp]

; 2146 : 	}

  00026	5d		 pop	 ebp
  00027	c3		 ret	 0
??$_Copy_impl@PAUForceInfo@@PAU1@@std@@YAPAUForceInfo@@PAU1@00U_Nonscalar_ptr_iterator_tag@0@@Z ENDP ; std::_Copy_impl<ForceInfo *,ForceInfo *>
_TEXT	ENDS
PUBLIC	??$_Destroy@UForceInfo@@@std@@YAXPAUForceInfo@@@Z ; std::_Destroy<ForceInfo>
; Function compile flags: /Ogsp
; File c:\program files (x86)\microsoft visual studio 10.0\vc\include\xmemory
;	COMDAT ??$_Destroy@UForceInfo@@@std@@YAXPAUForceInfo@@@Z
_TEXT	SEGMENT
__Ptr$ = 8						; size = 4
??$_Destroy@UForceInfo@@@std@@YAXPAUForceInfo@@@Z PROC	; std::_Destroy<ForceInfo>, COMDAT

; 63   : 	_Ptr->~_Ty();
; 64   : 	}

  00000	c3		 ret	 0
??$_Destroy@UForceInfo@@@std@@YAXPAUForceInfo@@@Z ENDP	; std::_Destroy<ForceInfo>
_TEXT	ENDS
PUBLIC	??4WeaponInfo@@QAEAAU0@ABU0@@Z			; WeaponInfo::operator=
EXTRN	__imp_??4ioHashString@@QAEAAV0@ABV0@@Z:PROC
; Function compile flags: /Ogsp
;	COMDAT ??4WeaponInfo@@QAEAAU0@ABU0@@Z
_TEXT	SEGMENT
___that$ = 8						; size = 4
??4WeaponInfo@@QAEAAU0@ABU0@@Z PROC			; WeaponInfo::operator=, COMDAT
; _this$ = ecx
  00000	55		 push	 ebp
  00001	8b ec		 mov	 ebp, esp
  00003	56		 push	 esi
  00004	57		 push	 edi
  00005	8b 7d 08	 mov	 edi, DWORD PTR ___that$[ebp]
  00008	8b 07		 mov	 eax, DWORD PTR [edi]
  0000a	8b f1		 mov	 esi, ecx
  0000c	89 06		 mov	 DWORD PTR [esi], eax
  0000e	8b 47 04	 mov	 eax, DWORD PTR [edi+4]
  00011	89 46 04	 mov	 DWORD PTR [esi+4], eax
  00014	8d 47 08	 lea	 eax, DWORD PTR [edi+8]
  00017	50		 push	 eax
  00018	8d 4e 08	 lea	 ecx, DWORD PTR [esi+8]
  0001b	ff 15 00 00 00
	00		 call	 DWORD PTR __imp_??4ioHashString@@QAEAAV0@ABV0@@Z
  00021	8b 47 18	 mov	 eax, DWORD PTR [edi+24]
  00024	89 46 18	 mov	 DWORD PTR [esi+24], eax
  00027	8b 47 1c	 mov	 eax, DWORD PTR [edi+28]
  0002a	89 46 1c	 mov	 DWORD PTR [esi+28], eax
  0002d	8a 47 20	 mov	 al, BYTE PTR [edi+32]
  00030	88 46 20	 mov	 BYTE PTR [esi+32], al
  00033	8b 47 24	 mov	 eax, DWORD PTR [edi+36]
  00036	89 46 24	 mov	 DWORD PTR [esi+36], eax
  00039	5f		 pop	 edi
  0003a	8b c6		 mov	 eax, esi
  0003c	5e		 pop	 esi
  0003d	5d		 pop	 ebp
  0003e	c2 04 00	 ret	 4
??4WeaponInfo@@QAEAAU0@ABU0@@Z ENDP			; WeaponInfo::operator=
_TEXT	ENDS
PUBLIC	??_GWeaponInfo@@QAEPAXI@Z			; WeaponInfo::`scalar deleting destructor'
; Function compile flags: /Ogsp
;	COMDAT ??_GWeaponInfo@@QAEPAXI@Z
_TEXT	SEGMENT
___flags$ = 8						; size = 4
??_GWeaponInfo@@QAEPAXI@Z PROC				; WeaponInfo::`scalar deleting destructor', COMDAT
; _this$ = ecx
  00000	55		 push	 ebp
  00001	8b ec		 mov	 ebp, esp
  00003	56		 push	 esi
  00004	8b f1		 mov	 esi, ecx
  00006	8d 4e 08	 lea	 ecx, DWORD PTR [esi+8]
  00009	ff 15 00 00 00
	00		 call	 DWORD PTR __imp_??1ioHashString@@QAE@XZ
  0000f	f6 45 08 01	 test	 BYTE PTR ___flags$[ebp], 1
  00013	74 07		 je	 SHORT $LN1@scalar@2
  00015	56		 push	 esi
  00016	e8 00 00 00 00	 call	 ??3@YAXPAX@Z		; operator delete
  0001b	59		 pop	 ecx
$LN1@scalar@2:
  0001c	8b c6		 mov	 eax, esi
  0001e	5e		 pop	 esi
  0001f	5d		 pop	 ebp
  00020	c2 04 00	 ret	 4
??_GWeaponInfo@@QAEPAXI@Z ENDP				; WeaponInfo::`scalar deleting destructor'
_TEXT	ENDS
PUBLIC	??$move@AAUWeaponInfo@@@std@@YA$$QAUWeaponInfo@@AAU1@@Z ; std::move<WeaponInfo &>
; Function compile flags: /Ogsp
; File c:\program files (x86)\microsoft visual studio 10.0\vc\include\utility
;	COMDAT ??$move@AAUWeaponInfo@@@std@@YA$$QAUWeaponInfo@@AAU1@@Z
_TEXT	SEGMENT
__Arg$ = 8						; size = 4
??$move@AAUWeaponInfo@@@std@@YA$$QAUWeaponInfo@@AAU1@@Z PROC ; std::move<WeaponInfo &>, COMDAT

; 86   : 	{	// forward _Arg as movable

  00000	55		 push	 ebp
  00001	8b ec		 mov	 ebp, esp

; 87   : 	return ((typename tr1::_Remove_reference<_Ty>::_Type&&)_Arg);

  00003	8b 45 08	 mov	 eax, DWORD PTR __Arg$[ebp]

; 88   : 	}

  00006	5d		 pop	 ebp
  00007	c3		 ret	 0
??$move@AAUWeaponInfo@@@std@@YA$$QAUWeaponInfo@@AAU1@@Z ENDP ; std::move<WeaponInfo &>
_TEXT	ENDS
PUBLIC	??$move@AAUForceInfo@@@std@@YA$$QAUForceInfo@@AAU1@@Z ; std::move<ForceInfo &>
; Function compile flags: /Ogsp
;	COMDAT ??$move@AAUForceInfo@@@std@@YA$$QAUForceInfo@@AAU1@@Z
_TEXT	SEGMENT
__Arg$ = 8						; size = 4
??$move@AAUForceInfo@@@std@@YA$$QAUForceInfo@@AAU1@@Z PROC ; std::move<ForceInfo &>, COMDAT

; 86   : 	{	// forward _Arg as movable

  00000	55		 push	 ebp
  00001	8b ec		 mov	 ebp, esp

; 87   : 	return ((typename tr1::_Remove_reference<_Ty>::_Type&&)_Arg);

  00003	8b 45 08	 mov	 eax, DWORD PTR __Arg$[ebp]

; 88   : 	}

  00006	5d		 pop	 ebp
  00007	c3		 ret	 0
??$move@AAUForceInfo@@@std@@YA$$QAUForceInfo@@AAU1@@Z ENDP ; std::move<ForceInfo &>
_TEXT	ENDS
PUBLIC	??$forward@AAUWeaponInfo@@@std@@YAAAUWeaponInfo@@AAU1@@Z ; std::forward<WeaponInfo &>
; Function compile flags: /Ogsp
;	COMDAT ??$forward@AAUWeaponInfo@@@std@@YAAAUWeaponInfo@@AAU1@@Z
_TEXT	SEGMENT
__Arg$ = 8						; size = 4
??$forward@AAUWeaponInfo@@@std@@YAAAUWeaponInfo@@AAU1@@Z PROC ; std::forward<WeaponInfo &>, COMDAT

; 78   : 	{	// forward _Arg, given explicitly specified type parameter

  00000	55		 push	 ebp
  00001	8b ec		 mov	 ebp, esp

; 79   : 	return ((_Ty&&)_Arg);

  00003	8b 45 08	 mov	 eax, DWORD PTR __Arg$[ebp]

; 80   : 	}

  00006	5d		 pop	 ebp
  00007	c3		 ret	 0
??$forward@AAUWeaponInfo@@@std@@YAAAUWeaponInfo@@AAU1@@Z ENDP ; std::forward<WeaponInfo &>
_TEXT	ENDS
PUBLIC	??$forward@AAUForceInfo@@@std@@YAAAUForceInfo@@AAU1@@Z ; std::forward<ForceInfo &>
; Function compile flags: /Ogsp
;	COMDAT ??$forward@AAUForceInfo@@@std@@YAAAUForceInfo@@AAU1@@Z
_TEXT	SEGMENT
__Arg$ = 8						; size = 4
??$forward@AAUForceInfo@@@std@@YAAAUForceInfo@@AAU1@@Z PROC ; std::forward<ForceInfo &>, COMDAT

; 78   : 	{	// forward _Arg, given explicitly specified type parameter

  00000	55		 push	 ebp
  00001	8b ec		 mov	 ebp, esp

; 79   : 	return ((_Ty&&)_Arg);

  00003	8b 45 08	 mov	 eax, DWORD PTR __Arg$[ebp]

; 80   : 	}

  00006	5d		 pop	 ebp
  00007	c3		 ret	 0
??$forward@AAUForceInfo@@@std@@YAAAUForceInfo@@AAU1@@Z ENDP ; std::forward<ForceInfo &>
_TEXT	ENDS
PUBLIC	??$construct@AAUForceInfo@@@?$allocator@UForceInfo@@@std@@QAEXPAUForceInfo@@AAU2@@Z ; std::allocator<ForceInfo>::construct<ForceInfo &>
; Function compile flags: /Ogsp
; File c:\program files (x86)\microsoft visual studio 10.0\vc\include\xmemory
;	COMDAT ??$construct@AAUForceInfo@@@?$allocator@UForceInfo@@@std@@QAEXPAUForceInfo@@AAU2@@Z
_TEXT	SEGMENT
__Ptr$ = 8						; size = 4
__Val$ = 12						; size = 4
??$construct@AAUForceInfo@@@?$allocator@UForceInfo@@@std@@QAEXPAUForceInfo@@AAU2@@Z PROC ; std::allocator<ForceInfo>::construct<ForceInfo &>, COMDAT
; _this$ = ecx

; 206  : 		void construct(pointer _Ptr, _Other&& _Val)

  00000	55		 push	 ebp
  00001	8b ec		 mov	 ebp, esp
  00003	57		 push	 edi

; 207  : 		{	// construct object at _Ptr with value _Val
; 208  : 		::new ((void _FARQ *)_Ptr) _Ty(_STD forward<_Other>(_Val));

  00004	8b 7d 08	 mov	 edi, DWORD PTR __Ptr$[ebp]
  00007	85 ff		 test	 edi, edi
  00009	74 08		 je	 SHORT $LN3@construct
  0000b	56		 push	 esi
  0000c	8b 75 0c	 mov	 esi, DWORD PTR __Val$[ebp]
  0000f	a5		 movsd
  00010	a5		 movsd
  00011	a5		 movsd
  00012	5e		 pop	 esi
$LN3@construct:
  00013	5f		 pop	 edi

; 209  : 		}

  00014	5d		 pop	 ebp
  00015	c2 08 00	 ret	 8
??$construct@AAUForceInfo@@@?$allocator@UForceInfo@@@std@@QAEXPAUForceInfo@@AAU2@@Z ENDP ; std::allocator<ForceInfo>::construct<ForceInfo &>
_TEXT	ENDS
PUBLIC	??0WeaponInfo@@QAE@ABU0@@Z			; WeaponInfo::WeaponInfo
EXTRN	__imp_??0ioHashString@@QAE@ABV0@@Z:PROC
; Function compile flags: /Ogsp
;	COMDAT ??0WeaponInfo@@QAE@ABU0@@Z
_TEXT	SEGMENT
___that$ = 8						; size = 4
??0WeaponInfo@@QAE@ABU0@@Z PROC				; WeaponInfo::WeaponInfo, COMDAT
; _this$ = ecx
  00000	55		 push	 ebp
  00001	8b ec		 mov	 ebp, esp
  00003	56		 push	 esi
  00004	57		 push	 edi
  00005	8b 7d 08	 mov	 edi, DWORD PTR ___that$[ebp]
  00008	8b 07		 mov	 eax, DWORD PTR [edi]
  0000a	8b f1		 mov	 esi, ecx
  0000c	89 06		 mov	 DWORD PTR [esi], eax
  0000e	8b 47 04	 mov	 eax, DWORD PTR [edi+4]
  00011	89 46 04	 mov	 DWORD PTR [esi+4], eax
  00014	8d 47 08	 lea	 eax, DWORD PTR [edi+8]
  00017	50		 push	 eax
  00018	8d 4e 08	 lea	 ecx, DWORD PTR [esi+8]
  0001b	ff 15 00 00 00
	00		 call	 DWORD PTR __imp_??0ioHashString@@QAE@ABV0@@Z
  00021	8b 47 18	 mov	 eax, DWORD PTR [edi+24]
  00024	89 46 18	 mov	 DWORD PTR [esi+24], eax
  00027	8b 47 1c	 mov	 eax, DWORD PTR [edi+28]
  0002a	89 46 1c	 mov	 DWORD PTR [esi+28], eax
  0002d	8a 47 20	 mov	 al, BYTE PTR [edi+32]
  00030	88 46 20	 mov	 BYTE PTR [esi+32], al
  00033	8b 47 24	 mov	 eax, DWORD PTR [edi+36]
  00036	89 46 24	 mov	 DWORD PTR [esi+36], eax
  00039	5f		 pop	 edi
  0003a	8b c6		 mov	 eax, esi
  0003c	5e		 pop	 esi
  0003d	5d		 pop	 ebp
  0003e	c2 04 00	 ret	 4
??0WeaponInfo@@QAE@ABU0@@Z ENDP				; WeaponInfo::WeaponInfo
_TEXT	ENDS
PUBLIC	?GetNormalMaxCombo@ioFormalAttackGrp@@QBEHXZ	; ioFormalAttackGrp::GetNormalMaxCombo
; Function compile flags: /Ogsp
; File d:\lost saga for developer\youtube\tutorial\source\src\lsclient\ioformalattackgrp.cpp
;	COMDAT ?GetNormalMaxCombo@ioFormalAttackGrp@@QBEHXZ
_TEXT	SEGMENT
?GetNormalMaxCombo@ioFormalAttackGrp@@QBEHXZ PROC	; ioFormalAttackGrp::GetNormalMaxCombo, COMDAT
; _this$ = ecx

; 492  : 	return m_NormalAttackList.size();

  00000	8b 41 04	 mov	 eax, DWORD PTR [ecx+4]
  00003	2b 01		 sub	 eax, DWORD PTR [ecx]
  00005	6a 50		 push	 80			; 00000050H
  00007	99		 cdq
  00008	59		 pop	 ecx
  00009	f7 f9		 idiv	 ecx

; 493  : }

  0000b	c3		 ret	 0
?GetNormalMaxCombo@ioFormalAttackGrp@@QBEHXZ ENDP	; ioFormalAttackGrp::GetNormalMaxCombo
_TEXT	ENDS
PUBLIC	?GetExtraDashAttackMax@ioFormalAttackGrp@@QBEHXZ ; ioFormalAttackGrp::GetExtraDashAttackMax
; Function compile flags: /Ogsp
;	COMDAT ?GetExtraDashAttackMax@ioFormalAttackGrp@@QBEHXZ
_TEXT	SEGMENT
?GetExtraDashAttackMax@ioFormalAttackGrp@@QBEHXZ PROC	; ioFormalAttackGrp::GetExtraDashAttackMax, COMDAT
; _this$ = ecx

; 497  : 	return m_ExtraDashAttackList.size();

  00000	8b 81 44 02 00
	00		 mov	 eax, DWORD PTR [ecx+580]
  00006	2b 81 40 02 00
	00		 sub	 eax, DWORD PTR [ecx+576]
  0000c	6a 50		 push	 80			; 00000050H
  0000e	99		 cdq
  0000f	59		 pop	 ecx
  00010	f7 f9		 idiv	 ecx

; 498  : }

  00012	c3		 ret	 0
?GetExtraDashAttackMax@ioFormalAttackGrp@@QBEHXZ ENDP	; ioFormalAttackGrp::GetExtraDashAttackMax
_TEXT	ENDS
PUBLIC	?GetExtraOtherDashAttackMax@ioFormalAttackGrp@@QBEHXZ ; ioFormalAttackGrp::GetExtraOtherDashAttackMax
; Function compile flags: /Ogsp
;	COMDAT ?GetExtraOtherDashAttackMax@ioFormalAttackGrp@@QBEHXZ
_TEXT	SEGMENT
?GetExtraOtherDashAttackMax@ioFormalAttackGrp@@QBEHXZ PROC ; ioFormalAttackGrp::GetExtraOtherDashAttackMax, COMDAT
; _this$ = ecx

; 502  : 	return m_ExtraOtherDashAttackList.size();

  00000	8b 81 54 02 00
	00		 mov	 eax, DWORD PTR [ecx+596]
  00006	2b 81 50 02 00
	00		 sub	 eax, DWORD PTR [ecx+592]
  0000c	6a 50		 push	 80			; 00000050H
  0000e	99		 cdq
  0000f	59		 pop	 ecx
  00010	f7 f9		 idiv	 ecx

; 503  : }

  00012	c3		 ret	 0
?GetExtraOtherDashAttackMax@ioFormalAttackGrp@@QBEHXZ ENDP ; ioFormalAttackGrp::GetExtraOtherDashAttackMax
_TEXT	ENDS
PUBLIC	?max_size@?$vector@UAttackAttribute@@V?$allocator@UAttackAttribute@@@std@@@std@@QBEIXZ ; std::vector<AttackAttribute,std::allocator<AttackAttribute> >::max_size
; Function compile flags: /Ogsp
; File c:\program files (x86)\microsoft visual studio 10.0\vc\include\vector
;	COMDAT ?max_size@?$vector@UAttackAttribute@@V?$allocator@UAttackAttribute@@@std@@@std@@QBEIXZ
_TEXT	SEGMENT
?max_size@?$vector@UAttackAttribute@@V?$allocator@UAttackAttribute@@@std@@@std@@QBEIXZ PROC ; std::vector<AttackAttribute,std::allocator<AttackAttribute> >::max_size, COMDAT
; _this$ = ecx

; 884  : 		return (this->_Alval.max_size());

  00000	b8 33 33 33 03	 mov	 eax, 53687091		; 03333333H

; 885  : 		}

  00005	c3		 ret	 0
?max_size@?$vector@UAttackAttribute@@V?$allocator@UAttackAttribute@@@std@@@std@@QBEIXZ ENDP ; std::vector<AttackAttribute,std::allocator<AttackAttribute> >::max_size
_TEXT	ENDS
PUBLIC	?_Grow_to@?$vector@UAttackAttribute@@V?$allocator@UAttackAttribute@@@std@@@std@@IBEII@Z ; std::vector<AttackAttribute,std::allocator<AttackAttribute> >::_Grow_to
; Function compile flags: /Ogsp
;	COMDAT ?_Grow_to@?$vector@UAttackAttribute@@V?$allocator@UAttackAttribute@@@std@@@std@@IBEII@Z
_TEXT	SEGMENT
__Count$ = 8						; size = 4
?_Grow_to@?$vector@UAttackAttribute@@V?$allocator@UAttackAttribute@@@std@@@std@@IBEII@Z PROC ; std::vector<AttackAttribute,std::allocator<AttackAttribute> >::_Grow_to, COMDAT
; _this$ = ecx

; 1274 : 		{	// grow by 50% or at least to _Count

  00000	55		 push	 ebp
  00001	8b ec		 mov	 ebp, esp

; 1275 : 		size_type _Capacity = capacity();

  00003	8b 41 08	 mov	 eax, DWORD PTR [ecx+8]
  00006	2b 01		 sub	 eax, DWORD PTR [ecx]
  00008	6a 50		 push	 80			; 00000050H
  0000a	99		 cdq
  0000b	59		 pop	 ecx
  0000c	f7 f9		 idiv	 ecx

; 1276 : 
; 1277 : 		_Capacity = max_size() - _Capacity / 2 < _Capacity
; 1278 : 			? 0 : _Capacity + _Capacity / 2;	// try to grow by 50%

  0000e	ba 33 33 33 03	 mov	 edx, 53687091		; 03333333H
  00013	8b c8		 mov	 ecx, eax
  00015	d1 e9		 shr	 ecx, 1
  00017	2b d1		 sub	 edx, ecx
  00019	3b d0		 cmp	 edx, eax
  0001b	73 04		 jae	 SHORT $LN4@Grow_to
  0001d	33 c0		 xor	 eax, eax
  0001f	eb 02		 jmp	 SHORT $LN5@Grow_to
$LN4@Grow_to:
  00021	03 c1		 add	 eax, ecx
$LN5@Grow_to:

; 1279 : 		if (_Capacity < _Count)

  00023	3b 45 08	 cmp	 eax, DWORD PTR __Count$[ebp]

; 1280 : 			_Capacity = _Count;

  00026	0f 42 45 08	 cmovb	 eax, DWORD PTR __Count$[ebp]

; 1281 : 		return (_Capacity);
; 1282 : 		}

  0002a	5d		 pop	 ebp
  0002b	c2 04 00	 ret	 4
?_Grow_to@?$vector@UAttackAttribute@@V?$allocator@UAttackAttribute@@@std@@@std@@IBEII@Z ENDP ; std::vector<AttackAttribute,std::allocator<AttackAttribute> >::_Grow_to
_TEXT	ENDS
PUBLIC	?allocate@?$allocator@UAttackAttribute@@@std@@QAEPAUAttackAttribute@@I@Z ; std::allocator<AttackAttribute>::allocate
; Function compile flags: /Ogsp
; File c:\program files (x86)\microsoft visual studio 10.0\vc\include\xmemory
;	COMDAT ?allocate@?$allocator@UAttackAttribute@@@std@@QAEPAUAttackAttribute@@I@Z
_TEXT	SEGMENT
__Count$ = 8						; size = 4
?allocate@?$allocator@UAttackAttribute@@@std@@QAEPAUAttackAttribute@@I@Z PROC ; std::allocator<AttackAttribute>::allocate, COMDAT
; _this$ = ecx

; 186  : 		{	// allocate array of _Count elements

  00000	55		 push	 ebp
  00001	8b ec		 mov	 ebp, esp

; 187  : 		return (_Allocate(_Count, (pointer)0));

  00003	6a 00		 push	 0
  00005	ff 75 08	 push	 DWORD PTR __Count$[ebp]
  00008	e8 00 00 00 00	 call	 ??$_Allocate@UAttackAttribute@@@std@@YAPAUAttackAttribute@@IPAU1@@Z ; std::_Allocate<AttackAttribute>
  0000d	59		 pop	 ecx
  0000e	59		 pop	 ecx

; 188  : 		}

  0000f	5d		 pop	 ebp
  00010	c2 04 00	 ret	 4
?allocate@?$allocator@UAttackAttribute@@@std@@QAEPAUAttackAttribute@@I@Z ENDP ; std::allocator<AttackAttribute>::allocate
_TEXT	ENDS
PUBLIC	__$ArrayPad$
PUBLIC	??$LoadInt_e@$09@ioINILoader@@QAEHAAY09$$CBDH@Z	; ioINILoader::LoadInt_e<10>
EXTRN	__imp_?LoadInt@ioINILoader@@QAEHPBDH@Z:PROC
EXTRN	___security_cookie:DWORD
; Function compile flags: /Ogsp
; File d:\lost saga for developer\youtube\tutorial\source\src\io3dengine\ioiniloader.h
;	COMDAT ??$LoadInt_e@$09@ioINILoader@@QAEHAAY09$$CBDH@Z
_TEXT	SEGMENT
__k$ = -20						; size = 10
__$ArrayPad$ = -4					; size = 4
_k$ = 8							; size = 4
_i$ = 12						; size = 4
??$LoadInt_e@$09@ioINILoader@@QAEHAAY09$$CBDH@Z PROC	; ioINILoader::LoadInt_e<10>, COMDAT
; _this$ = ecx

; 118  : 	{

  00000	55		 push	 ebp
  00001	8b ec		 mov	 ebp, esp
  00003	83 ec 14	 sub	 esp, 20			; 00000014H
  00006	a1 00 00 00 00	 mov	 eax, DWORD PTR ___security_cookie
  0000b	33 c5		 xor	 eax, ebp
  0000d	89 45 fc	 mov	 DWORD PTR __$ArrayPad$[ebp], eax
  00010	8b 45 08	 mov	 eax, DWORD PTR _k$[ebp]

; 119  : 		_ENCSTR(k, _k);

  00013	8a 10		 mov	 dl, BYTE PTR [eax]
  00015	84 d2		 test	 dl, dl
  00017	0f 84 0d 01 00
	00		 je	 $LN96@LoadInt_e
  0001d	80 f2 ed	 xor	 dl, -19			; ffffffedH
  00020	88 55 ec	 mov	 BYTE PTR __k$[ebp], dl
  00023	8a 50 01	 mov	 dl, BYTE PTR [eax+1]
  00026	84 d2		 test	 dl, dl
  00028	0f 84 f6 00 00
	00		 je	 $LN95@LoadInt_e
  0002e	80 f2 ec	 xor	 dl, -20			; ffffffecH
  00031	88 55 ed	 mov	 BYTE PTR __k$[ebp+1], dl
  00034	8a 50 02	 mov	 dl, BYTE PTR [eax+2]
  00037	84 d2		 test	 dl, dl
  00039	0f 84 df 00 00
	00		 je	 $LN94@LoadInt_e
  0003f	80 f2 eb	 xor	 dl, -21			; ffffffebH
  00042	88 55 ee	 mov	 BYTE PTR __k$[ebp+2], dl
  00045	8a 50 03	 mov	 dl, BYTE PTR [eax+3]
  00048	84 d2		 test	 dl, dl
  0004a	0f 84 c8 00 00
	00		 je	 $LN93@LoadInt_e
  00050	80 f2 ea	 xor	 dl, -22			; ffffffeaH
  00053	88 55 ef	 mov	 BYTE PTR __k$[ebp+3], dl
  00056	8a 50 04	 mov	 dl, BYTE PTR [eax+4]
  00059	84 d2		 test	 dl, dl
  0005b	0f 84 b1 00 00
	00		 je	 $LN92@LoadInt_e
  00061	80 f2 ed	 xor	 dl, -19			; ffffffedH
  00064	88 55 f0	 mov	 BYTE PTR __k$[ebp+4], dl
  00067	8a 50 05	 mov	 dl, BYTE PTR [eax+5]
  0006a	84 d2		 test	 dl, dl
  0006c	0f 84 9a 00 00
	00		 je	 $LN91@LoadInt_e
  00072	80 f2 ec	 xor	 dl, -20			; ffffffecH
  00075	88 55 f1	 mov	 BYTE PTR __k$[ebp+5], dl
  00078	8a 50 06	 mov	 dl, BYTE PTR [eax+6]
  0007b	84 d2		 test	 dl, dl
  0007d	0f 84 83 00 00
	00		 je	 $LN90@LoadInt_e
  00083	80 f2 eb	 xor	 dl, -21			; ffffffebH
  00086	88 55 f2	 mov	 BYTE PTR __k$[ebp+6], dl
  00089	8a 50 07	 mov	 dl, BYTE PTR [eax+7]
  0008c	84 d2		 test	 dl, dl
  0008e	74 70		 je	 SHORT $LN89@LoadInt_e
  00090	80 f2 ea	 xor	 dl, -22			; ffffffeaH
  00093	88 55 f3	 mov	 BYTE PTR __k$[ebp+7], dl
  00096	8a 50 08	 mov	 dl, BYTE PTR [eax+8]
  00099	84 d2		 test	 dl, dl
  0009b	74 5d		 je	 SHORT $LN88@LoadInt_e
  0009d	80 f2 ed	 xor	 dl, -19			; ffffffedH
  000a0	80 78 09 00	 cmp	 BYTE PTR [eax+9], 0
  000a4	88 55 f4	 mov	 BYTE PTR __k$[ebp+8], dl
  000a7	0f 84 81 00 00
	00		 je	 $LN1@LoadInt_e
  000ad	8a 50 0a	 mov	 dl, BYTE PTR [eax+10]
  000b0	84 d2		 test	 dl, dl
  000b2	74 40		 je	 SHORT $LN86@LoadInt_e
  000b4	80 f2 eb	 xor	 dl, -21			; ffffffebH
  000b7	88 55 f6	 mov	 BYTE PTR __k$[ebp+10], dl
  000ba	8a 50 0b	 mov	 dl, BYTE PTR [eax+11]
  000bd	84 d2		 test	 dl, dl
  000bf	74 2d		 je	 SHORT $LN85@LoadInt_e
  000c1	80 f2 ea	 xor	 dl, -22			; ffffffeaH
  000c4	88 55 f7	 mov	 BYTE PTR __k$[ebp+11], dl
  000c7	8a 50 0c	 mov	 dl, BYTE PTR [eax+12]
  000ca	84 d2		 test	 dl, dl
  000cc	74 1a		 je	 SHORT $LN84@LoadInt_e
  000ce	8a 40 0d	 mov	 al, BYTE PTR [eax+13]
  000d1	80 f2 ed	 xor	 dl, -19			; ffffffedH
  000d4	88 55 f8	 mov	 BYTE PTR __k$[ebp+12], dl
  000d7	84 c0		 test	 al, al
  000d9	74 07		 je	 SHORT $LN83@LoadInt_e
  000db	34 ec		 xor	 al, -20			; ffffffecH
  000dd	88 45 f9	 mov	 BYTE PTR __k$[ebp+13], al
  000e0	eb 4c		 jmp	 SHORT $LN1@LoadInt_e
$LN83@LoadInt_e:
  000e2	c6 45 f9 ec	 mov	 BYTE PTR __k$[ebp+13], -20 ; ffffffecH
  000e6	eb 46		 jmp	 SHORT $LN1@LoadInt_e
$LN84@LoadInt_e:
  000e8	c6 45 f8 ed	 mov	 BYTE PTR __k$[ebp+12], -19 ; ffffffedH
  000ec	eb 40		 jmp	 SHORT $LN1@LoadInt_e
$LN85@LoadInt_e:
  000ee	c6 45 f7 ea	 mov	 BYTE PTR __k$[ebp+11], -22 ; ffffffeaH
  000f2	eb 3a		 jmp	 SHORT $LN1@LoadInt_e
$LN86@LoadInt_e:
  000f4	c6 45 f6 eb	 mov	 BYTE PTR __k$[ebp+10], -21 ; ffffffebH
  000f8	eb 34		 jmp	 SHORT $LN1@LoadInt_e
$LN88@LoadInt_e:
  000fa	c6 45 f4 ed	 mov	 BYTE PTR __k$[ebp+8], -19 ; ffffffedH
  000fe	eb 2e		 jmp	 SHORT $LN1@LoadInt_e
$LN89@LoadInt_e:
  00100	c6 45 f3 ea	 mov	 BYTE PTR __k$[ebp+7], -22 ; ffffffeaH
  00104	eb 28		 jmp	 SHORT $LN1@LoadInt_e
$LN90@LoadInt_e:
  00106	c6 45 f2 eb	 mov	 BYTE PTR __k$[ebp+6], -21 ; ffffffebH
  0010a	eb 22		 jmp	 SHORT $LN1@LoadInt_e
$LN91@LoadInt_e:
  0010c	c6 45 f1 ec	 mov	 BYTE PTR __k$[ebp+5], -20 ; ffffffecH
  00110	eb 1c		 jmp	 SHORT $LN1@LoadInt_e
$LN92@LoadInt_e:
  00112	c6 45 f0 ed	 mov	 BYTE PTR __k$[ebp+4], -19 ; ffffffedH
  00116	eb 16		 jmp	 SHORT $LN1@LoadInt_e
$LN93@LoadInt_e:
  00118	c6 45 ef ea	 mov	 BYTE PTR __k$[ebp+3], -22 ; ffffffeaH
  0011c	eb 10		 jmp	 SHORT $LN1@LoadInt_e
$LN94@LoadInt_e:
  0011e	c6 45 ee eb	 mov	 BYTE PTR __k$[ebp+2], -21 ; ffffffebH
  00122	eb 0a		 jmp	 SHORT $LN1@LoadInt_e
$LN95@LoadInt_e:
  00124	c6 45 ed ec	 mov	 BYTE PTR __k$[ebp+1], -20 ; ffffffecH
  00128	eb 04		 jmp	 SHORT $LN1@LoadInt_e
$LN96@LoadInt_e:
  0012a	c6 45 ec ed	 mov	 BYTE PTR __k$[ebp], -19	; ffffffedH
$LN1@LoadInt_e:
  0012e	6a 02		 push	 2
  00130	8d 45 ec	 lea	 eax, DWORD PTR __k$[ebp]
  00133	c6 45 f5 00	 mov	 BYTE PTR __k$[ebp+9], 0
  00137	5a		 pop	 edx
$LL104@LoadInt_e:
  00138	81 30 ed ec eb
	ea		 xor	 DWORD PTR [eax], -353637139 ; eaebecedH
  0013e	83 c0 04	 add	 eax, 4
  00141	4a		 dec	 edx
  00142	75 f4		 jne	 SHORT $LL104@LoadInt_e

; 120  : 		return LoadInt(_k, i);

  00144	ff 75 0c	 push	 DWORD PTR _i$[ebp]
  00147	80 75 f4 ed	 xor	 BYTE PTR __k$[ebp+8], -19 ; ffffffedH
  0014b	8d 45 ec	 lea	 eax, DWORD PTR __k$[ebp]
  0014e	50		 push	 eax
  0014f	ff 15 00 00 00
	00		 call	 DWORD PTR __imp_?LoadInt@ioINILoader@@QAEHPBDH@Z

; 121  : 	}

  00155	8b 4d fc	 mov	 ecx, DWORD PTR __$ArrayPad$[ebp]
  00158	33 cd		 xor	 ecx, ebp
  0015a	e8 00 00 00 00	 call	 @__security_check_cookie@4
  0015f	c9		 leave
  00160	c2 08 00	 ret	 8
??$LoadInt_e@$09@ioINILoader@@QAEHAAY09$$CBDH@Z ENDP	; ioINILoader::LoadInt_e<10>
_TEXT	ENDS
PUBLIC	__$ArrayPad$
PUBLIC	??$LoadAttackAttribute_e@$0P@@@YAXAAY0P@$$CBDAAUAttackAttribute@@AAVioINILoader@@@Z ; LoadAttackAttribute_e<15>
EXTRN	?LoadAttackAttribute@@YAXPBDAAUAttackAttribute@@AAVioINILoader@@@Z:PROC ; LoadAttackAttribute
; Function compile flags: /Ogsp
; File d:\lost saga for developer\youtube\tutorial\source\src\lsclient\ioattackattribute.h
;	COMDAT ??$LoadAttackAttribute_e@$0P@@@YAXAAY0P@$$CBDAAUAttackAttribute@@AAVioINILoader@@@Z
_TEXT	SEGMENT
_szEncAttack$ = -24					; size = 15
__$ArrayPad$ = -4					; size = 4
_szAttack$ = 8						; size = 4
_rkAttribute$ = 12					; size = 4
_rkLoader$ = 16						; size = 4
??$LoadAttackAttribute_e@$0P@@@YAXAAY0P@$$CBDAAUAttackAttribute@@AAVioINILoader@@@Z PROC ; LoadAttackAttribute_e<15>, COMDAT

; 131  : {

  00000	55		 push	 ebp
  00001	8b ec		 mov	 ebp, esp
  00003	83 ec 18	 sub	 esp, 24			; 00000018H
  00006	a1 00 00 00 00	 mov	 eax, DWORD PTR ___security_cookie
  0000b	33 c5		 xor	 eax, ebp
  0000d	89 45 fc	 mov	 DWORD PTR __$ArrayPad$[ebp], eax
  00010	8b 45 08	 mov	 eax, DWORD PTR _szAttack$[ebp]

; 132  : 	_ENCSTR(szAttack, szEncAttack);

  00013	8a 08		 mov	 cl, BYTE PTR [eax]
  00015	56		 push	 esi
  00016	8b 75 0c	 mov	 esi, DWORD PTR _rkAttribute$[ebp]
  00019	57		 push	 edi
  0001a	8b 7d 10	 mov	 edi, DWORD PTR _rkLoader$[ebp]
  0001d	84 c9		 test	 cl, cl
  0001f	0f 84 7b 01 00
	00		 je	 $LN96@LoadAttack
  00025	80 f1 ed	 xor	 cl, -19			; ffffffedH
  00028	88 4d e8	 mov	 BYTE PTR _szEncAttack$[ebp], cl
  0002b	8a 48 01	 mov	 cl, BYTE PTR [eax+1]
  0002e	84 c9		 test	 cl, cl
  00030	0f 84 64 01 00
	00		 je	 $LN95@LoadAttack
  00036	80 f1 ec	 xor	 cl, -20			; ffffffecH
  00039	88 4d e9	 mov	 BYTE PTR _szEncAttack$[ebp+1], cl
  0003c	8a 48 02	 mov	 cl, BYTE PTR [eax+2]
  0003f	84 c9		 test	 cl, cl
  00041	0f 84 4d 01 00
	00		 je	 $LN94@LoadAttack
  00047	80 f1 eb	 xor	 cl, -21			; ffffffebH
  0004a	88 4d ea	 mov	 BYTE PTR _szEncAttack$[ebp+2], cl
  0004d	8a 48 03	 mov	 cl, BYTE PTR [eax+3]
  00050	84 c9		 test	 cl, cl
  00052	0f 84 36 01 00
	00		 je	 $LN93@LoadAttack
  00058	b2 ea		 mov	 dl, -22			; ffffffeaH
  0005a	32 ca		 xor	 cl, dl
  0005c	88 4d eb	 mov	 BYTE PTR _szEncAttack$[ebp+3], cl
  0005f	8a 48 04	 mov	 cl, BYTE PTR [eax+4]
  00062	84 c9		 test	 cl, cl
  00064	0f 84 1e 01 00
	00		 je	 $LN92@LoadAttack
  0006a	80 f1 ed	 xor	 cl, -19			; ffffffedH
  0006d	88 4d ec	 mov	 BYTE PTR _szEncAttack$[ebp+4], cl
  00070	8a 48 05	 mov	 cl, BYTE PTR [eax+5]
  00073	84 c9		 test	 cl, cl
  00075	0f 84 07 01 00
	00		 je	 $LN91@LoadAttack
  0007b	80 f1 ec	 xor	 cl, -20			; ffffffecH
  0007e	88 4d ed	 mov	 BYTE PTR _szEncAttack$[ebp+5], cl
  00081	8a 48 06	 mov	 cl, BYTE PTR [eax+6]
  00084	84 c9		 test	 cl, cl
  00086	0f 84 f0 00 00
	00		 je	 $LN90@LoadAttack
  0008c	80 f1 eb	 xor	 cl, -21			; ffffffebH
  0008f	88 4d ee	 mov	 BYTE PTR _szEncAttack$[ebp+6], cl
  00092	8a 48 07	 mov	 cl, BYTE PTR [eax+7]
  00095	84 c9		 test	 cl, cl
  00097	0f 84 da 00 00
	00		 je	 $LN89@LoadAttack
  0009d	32 ca		 xor	 cl, dl
  0009f	88 4d ef	 mov	 BYTE PTR _szEncAttack$[ebp+7], cl
  000a2	8a 48 08	 mov	 cl, BYTE PTR [eax+8]
  000a5	84 c9		 test	 cl, cl
  000a7	0f 84 c4 00 00
	00		 je	 $LN88@LoadAttack
  000ad	80 f1 ed	 xor	 cl, -19			; ffffffedH
  000b0	88 4d f0	 mov	 BYTE PTR _szEncAttack$[ebp+8], cl
  000b3	8a 48 09	 mov	 cl, BYTE PTR [eax+9]
  000b6	84 c9		 test	 cl, cl
  000b8	0f 84 ad 00 00
	00		 je	 $LN87@LoadAttack
  000be	80 f1 ec	 xor	 cl, -20			; ffffffecH
  000c1	88 4d f1	 mov	 BYTE PTR _szEncAttack$[ebp+9], cl
  000c4	8a 48 0a	 mov	 cl, BYTE PTR [eax+10]
  000c7	84 c9		 test	 cl, cl
  000c9	0f 84 96 00 00
	00		 je	 $LN86@LoadAttack
  000cf	80 f1 eb	 xor	 cl, -21			; ffffffebH
  000d2	88 4d f2	 mov	 BYTE PTR _szEncAttack$[ebp+10], cl
  000d5	8a 48 0b	 mov	 cl, BYTE PTR [eax+11]
  000d8	84 c9		 test	 cl, cl
  000da	0f 84 80 00 00
	00		 je	 $LN85@LoadAttack
  000e0	32 ca		 xor	 cl, dl
  000e2	88 4d f3	 mov	 BYTE PTR _szEncAttack$[ebp+11], cl
  000e5	8a 48 0c	 mov	 cl, BYTE PTR [eax+12]
  000e8	84 c9		 test	 cl, cl
  000ea	74 6e		 je	 SHORT $LN84@LoadAttack
  000ec	80 f1 ed	 xor	 cl, -19			; ffffffedH
  000ef	88 4d f4	 mov	 BYTE PTR _szEncAttack$[ebp+12], cl
  000f2	8a 48 0d	 mov	 cl, BYTE PTR [eax+13]
  000f5	84 c9		 test	 cl, cl
  000f7	74 5b		 je	 SHORT $LN83@LoadAttack
  000f9	80 f1 ec	 xor	 cl, -20			; ffffffecH
  000fc	80 78 0e 00	 cmp	 BYTE PTR [eax+14], 0
  00100	88 4d f5	 mov	 BYTE PTR _szEncAttack$[ebp+13], cl
  00103	0f 84 9b 00 00
	00		 je	 $LN1@LoadAttack
  00109	8a 48 0f	 mov	 cl, BYTE PTR [eax+15]
  0010c	84 c9		 test	 cl, cl
  0010e	74 3f		 je	 SHORT $LN81@LoadAttack
  00110	32 ca		 xor	 cl, dl
  00112	88 4d f7	 mov	 BYTE PTR _szEncAttack$[ebp+15], cl
  00115	8a 48 10	 mov	 cl, BYTE PTR [eax+16]
  00118	84 c9		 test	 cl, cl
  0011a	74 2d		 je	 SHORT $LN80@LoadAttack
  0011c	80 f1 ed	 xor	 cl, -19			; ffffffedH
  0011f	88 4d f8	 mov	 BYTE PTR _szEncAttack$[ebp+16], cl
  00122	8a 48 11	 mov	 cl, BYTE PTR [eax+17]
  00125	84 c9		 test	 cl, cl
  00127	74 1a		 je	 SHORT $LN79@LoadAttack
  00129	8a 40 12	 mov	 al, BYTE PTR [eax+18]
  0012c	80 f1 ec	 xor	 cl, -20			; ffffffecH
  0012f	88 4d f9	 mov	 BYTE PTR _szEncAttack$[ebp+17], cl
  00132	84 c0		 test	 al, al
  00134	74 07		 je	 SHORT $LN78@LoadAttack
  00136	34 eb		 xor	 al, -21			; ffffffebH
  00138	88 45 fa	 mov	 BYTE PTR _szEncAttack$[ebp+18], al
  0013b	eb 67		 jmp	 SHORT $LN1@LoadAttack
$LN78@LoadAttack:
  0013d	c6 45 fa eb	 mov	 BYTE PTR _szEncAttack$[ebp+18], -21 ; ffffffebH
  00141	eb 61		 jmp	 SHORT $LN1@LoadAttack
$LN79@LoadAttack:
  00143	c6 45 f9 ec	 mov	 BYTE PTR _szEncAttack$[ebp+17], -20 ; ffffffecH
  00147	eb 5b		 jmp	 SHORT $LN1@LoadAttack
$LN80@LoadAttack:
  00149	c6 45 f8 ed	 mov	 BYTE PTR _szEncAttack$[ebp+16], -19 ; ffffffedH
  0014d	eb 55		 jmp	 SHORT $LN1@LoadAttack
$LN81@LoadAttack:
  0014f	88 55 f7	 mov	 BYTE PTR _szEncAttack$[ebp+15], dl
  00152	eb 50		 jmp	 SHORT $LN1@LoadAttack
$LN83@LoadAttack:
  00154	c6 45 f5 ec	 mov	 BYTE PTR _szEncAttack$[ebp+13], -20 ; ffffffecH
  00158	eb 4a		 jmp	 SHORT $LN1@LoadAttack
$LN84@LoadAttack:
  0015a	c6 45 f4 ed	 mov	 BYTE PTR _szEncAttack$[ebp+12], -19 ; ffffffedH
  0015e	eb 44		 jmp	 SHORT $LN1@LoadAttack
$LN85@LoadAttack:
  00160	88 55 f3	 mov	 BYTE PTR _szEncAttack$[ebp+11], dl
  00163	eb 3f		 jmp	 SHORT $LN1@LoadAttack
$LN86@LoadAttack:
  00165	c6 45 f2 eb	 mov	 BYTE PTR _szEncAttack$[ebp+10], -21 ; ffffffebH
  00169	eb 39		 jmp	 SHORT $LN1@LoadAttack
$LN87@LoadAttack:
  0016b	c6 45 f1 ec	 mov	 BYTE PTR _szEncAttack$[ebp+9], -20 ; ffffffecH
  0016f	eb 33		 jmp	 SHORT $LN1@LoadAttack
$LN88@LoadAttack:
  00171	c6 45 f0 ed	 mov	 BYTE PTR _szEncAttack$[ebp+8], -19 ; ffffffedH
  00175	eb 2d		 jmp	 SHORT $LN1@LoadAttack
$LN89@LoadAttack:
  00177	88 55 ef	 mov	 BYTE PTR _szEncAttack$[ebp+7], dl
  0017a	eb 28		 jmp	 SHORT $LN1@LoadAttack
$LN90@LoadAttack:
  0017c	c6 45 ee eb	 mov	 BYTE PTR _szEncAttack$[ebp+6], -21 ; ffffffebH
  00180	eb 22		 jmp	 SHORT $LN1@LoadAttack
$LN91@LoadAttack:
  00182	c6 45 ed ec	 mov	 BYTE PTR _szEncAttack$[ebp+5], -20 ; ffffffecH
  00186	eb 1c		 jmp	 SHORT $LN1@LoadAttack
$LN92@LoadAttack:
  00188	c6 45 ec ed	 mov	 BYTE PTR _szEncAttack$[ebp+4], -19 ; ffffffedH
  0018c	eb 16		 jmp	 SHORT $LN1@LoadAttack
$LN93@LoadAttack:
  0018e	c6 45 eb ea	 mov	 BYTE PTR _szEncAttack$[ebp+3], -22 ; ffffffeaH
  00192	eb 10		 jmp	 SHORT $LN1@LoadAttack
$LN94@LoadAttack:
  00194	c6 45 ea eb	 mov	 BYTE PTR _szEncAttack$[ebp+2], -21 ; ffffffebH
  00198	eb 0a		 jmp	 SHORT $LN1@LoadAttack
$LN95@LoadAttack:
  0019a	c6 45 e9 ec	 mov	 BYTE PTR _szEncAttack$[ebp+1], -20 ; ffffffecH
  0019e	eb 04		 jmp	 SHORT $LN1@LoadAttack
$LN96@LoadAttack:
  001a0	c6 45 e8 ed	 mov	 BYTE PTR _szEncAttack$[ebp], -19 ; ffffffedH
$LN1@LoadAttack:
  001a4	6a 03		 push	 3
  001a6	8d 45 e8	 lea	 eax, DWORD PTR _szEncAttack$[ebp]
  001a9	c6 45 f6 00	 mov	 BYTE PTR _szEncAttack$[ebp+14], 0
  001ad	59		 pop	 ecx
$LL104@LoadAttack:
  001ae	81 30 ed ec eb
	ea		 xor	 DWORD PTR [eax], -353637139 ; eaebecedH
  001b4	83 c0 04	 add	 eax, 4
  001b7	49		 dec	 ecx
  001b8	75 f4		 jne	 SHORT $LL104@LoadAttack
  001ba	6a 0c		 push	 12			; 0000000cH
  001bc	58		 pop	 eax
$LL101@LoadAttack:
  001bd	8b c8		 mov	 ecx, eax
  001bf	81 e1 03 00 00
	80		 and	 ecx, -2147483645	; 80000003H
  001c5	79 05		 jns	 SHORT $LN111@LoadAttack
  001c7	49		 dec	 ecx
  001c8	83 c9 fc	 or	 ecx, -4			; fffffffcH
  001cb	41		 inc	 ecx
$LN111@LoadAttack:
  001cc	b2 ed		 mov	 dl, -19			; ffffffedH
  001ce	2a d1		 sub	 dl, cl
  001d0	30 54 05 e8	 xor	 BYTE PTR _szEncAttack$[ebp+eax], dl
  001d4	40		 inc	 eax
  001d5	83 f8 0e	 cmp	 eax, 14			; 0000000eH
  001d8	7c e3		 jl	 SHORT $LL101@LoadAttack

; 133  : 	LoadAttackAttribute(szEncAttack, rkAttribute, rkLoader);

  001da	57		 push	 edi
  001db	8d 45 e8	 lea	 eax, DWORD PTR _szEncAttack$[ebp]
  001de	56		 push	 esi
  001df	50		 push	 eax
  001e0	e8 00 00 00 00	 call	 ?LoadAttackAttribute@@YAXPBDAAUAttackAttribute@@AAVioINILoader@@@Z ; LoadAttackAttribute

; 134  : }

  001e5	8b 4d fc	 mov	 ecx, DWORD PTR __$ArrayPad$[ebp]
  001e8	83 c4 0c	 add	 esp, 12			; 0000000cH
  001eb	5f		 pop	 edi
  001ec	33 cd		 xor	 ecx, ebp
  001ee	5e		 pop	 esi
  001ef	e8 00 00 00 00	 call	 @__security_check_cookie@4
  001f4	c9		 leave
  001f5	c3		 ret	 0
??$LoadAttackAttribute_e@$0P@@@YAXAAY0P@$$CBDAAUAttackAttribute@@AAVioINILoader@@@Z ENDP ; LoadAttackAttribute_e<15>
_TEXT	ENDS
PUBLIC	__$ArrayPad$
PUBLIC	??$LoadAttackAttribute_e@$0M@@@YAXAAY0M@$$CBDAAUAttackAttribute@@AAVioINILoader@@@Z ; LoadAttackAttribute_e<12>
; Function compile flags: /Ogsp
;	COMDAT ??$LoadAttackAttribute_e@$0M@@@YAXAAY0M@$$CBDAAUAttackAttribute@@AAVioINILoader@@@Z
_TEXT	SEGMENT
_szEncAttack$ = -20					; size = 12
__$ArrayPad$ = -4					; size = 4
_szAttack$ = 8						; size = 4
_rkAttribute$ = 12					; size = 4
_rkLoader$ = 16						; size = 4
??$LoadAttackAttribute_e@$0M@@@YAXAAY0M@$$CBDAAUAttackAttribute@@AAVioINILoader@@@Z PROC ; LoadAttackAttribute_e<12>, COMDAT

; 131  : {

  00000	55		 push	 ebp
  00001	8b ec		 mov	 ebp, esp
  00003	83 ec 14	 sub	 esp, 20			; 00000014H
  00006	a1 00 00 00 00	 mov	 eax, DWORD PTR ___security_cookie
  0000b	33 c5		 xor	 eax, ebp
  0000d	89 45 fc	 mov	 DWORD PTR __$ArrayPad$[ebp], eax
  00010	8b 45 08	 mov	 eax, DWORD PTR _szAttack$[ebp]

; 132  : 	_ENCSTR(szAttack, szEncAttack);

  00013	8a 08		 mov	 cl, BYTE PTR [eax]
  00015	56		 push	 esi
  00016	8b 75 0c	 mov	 esi, DWORD PTR _rkAttribute$[ebp]
  00019	57		 push	 edi
  0001a	8b 7d 10	 mov	 edi, DWORD PTR _rkLoader$[ebp]
  0001d	84 c9		 test	 cl, cl
  0001f	0f 84 32 01 00
	00		 je	 $LN96@LoadAttack@2
  00025	80 f1 ed	 xor	 cl, -19			; ffffffedH
  00028	88 4d ec	 mov	 BYTE PTR _szEncAttack$[ebp], cl
  0002b	8a 48 01	 mov	 cl, BYTE PTR [eax+1]
  0002e	84 c9		 test	 cl, cl
  00030	0f 84 1b 01 00
	00		 je	 $LN95@LoadAttack@2
  00036	b2 ec		 mov	 dl, -20			; ffffffecH
  00038	32 ca		 xor	 cl, dl
  0003a	88 4d ed	 mov	 BYTE PTR _szEncAttack$[ebp+1], cl
  0003d	8a 48 02	 mov	 cl, BYTE PTR [eax+2]
  00040	84 c9		 test	 cl, cl
  00042	0f 84 03 01 00
	00		 je	 $LN94@LoadAttack@2
  00048	80 f1 eb	 xor	 cl, -21			; ffffffebH
  0004b	88 4d ee	 mov	 BYTE PTR _szEncAttack$[ebp+2], cl
  0004e	8a 48 03	 mov	 cl, BYTE PTR [eax+3]
  00051	84 c9		 test	 cl, cl
  00053	0f 84 ec 00 00
	00		 je	 $LN93@LoadAttack@2
  00059	80 f1 ea	 xor	 cl, -22			; ffffffeaH
  0005c	88 4d ef	 mov	 BYTE PTR _szEncAttack$[ebp+3], cl
  0005f	8a 48 04	 mov	 cl, BYTE PTR [eax+4]
  00062	84 c9		 test	 cl, cl
  00064	0f 84 d5 00 00
	00		 je	 $LN92@LoadAttack@2
  0006a	80 f1 ed	 xor	 cl, -19			; ffffffedH
  0006d	88 4d f0	 mov	 BYTE PTR _szEncAttack$[ebp+4], cl
  00070	8a 48 05	 mov	 cl, BYTE PTR [eax+5]
  00073	84 c9		 test	 cl, cl
  00075	0f 84 bf 00 00
	00		 je	 $LN91@LoadAttack@2
  0007b	32 ca		 xor	 cl, dl
  0007d	88 4d f1	 mov	 BYTE PTR _szEncAttack$[ebp+5], cl
  00080	8a 48 06	 mov	 cl, BYTE PTR [eax+6]
  00083	84 c9		 test	 cl, cl
  00085	0f 84 a9 00 00
	00		 je	 $LN90@LoadAttack@2
  0008b	80 f1 eb	 xor	 cl, -21			; ffffffebH
  0008e	88 4d f2	 mov	 BYTE PTR _szEncAttack$[ebp+6], cl
  00091	8a 48 07	 mov	 cl, BYTE PTR [eax+7]
  00094	84 c9		 test	 cl, cl
  00096	0f 84 92 00 00
	00		 je	 $LN89@LoadAttack@2
  0009c	80 f1 ea	 xor	 cl, -22			; ffffffeaH
  0009f	88 4d f3	 mov	 BYTE PTR _szEncAttack$[ebp+7], cl
  000a2	8a 48 08	 mov	 cl, BYTE PTR [eax+8]
  000a5	84 c9		 test	 cl, cl
  000a7	74 7f		 je	 SHORT $LN88@LoadAttack@2
  000a9	80 f1 ed	 xor	 cl, -19			; ffffffedH
  000ac	88 4d f4	 mov	 BYTE PTR _szEncAttack$[ebp+8], cl
  000af	8a 48 09	 mov	 cl, BYTE PTR [eax+9]
  000b2	84 c9		 test	 cl, cl
  000b4	74 6d		 je	 SHORT $LN87@LoadAttack@2
  000b6	32 ca		 xor	 cl, dl
  000b8	88 4d f5	 mov	 BYTE PTR _szEncAttack$[ebp+9], cl
  000bb	8a 48 0a	 mov	 cl, BYTE PTR [eax+10]
  000be	84 c9		 test	 cl, cl
  000c0	74 5b		 je	 SHORT $LN86@LoadAttack@2
  000c2	80 f1 eb	 xor	 cl, -21			; ffffffebH
  000c5	80 78 0b 00	 cmp	 BYTE PTR [eax+11], 0
  000c9	88 4d f6	 mov	 BYTE PTR _szEncAttack$[ebp+10], cl
  000cc	0f 84 89 00 00
	00		 je	 $LN1@LoadAttack@2
  000d2	8a 48 0c	 mov	 cl, BYTE PTR [eax+12]
  000d5	84 c9		 test	 cl, cl
  000d7	74 3e		 je	 SHORT $LN84@LoadAttack@2
  000d9	80 f1 ed	 xor	 cl, -19			; ffffffedH
  000dc	88 4d f8	 mov	 BYTE PTR _szEncAttack$[ebp+12], cl
  000df	8a 48 0d	 mov	 cl, BYTE PTR [eax+13]
  000e2	84 c9		 test	 cl, cl
  000e4	74 2c		 je	 SHORT $LN83@LoadAttack@2
  000e6	32 ca		 xor	 cl, dl
  000e8	88 4d f9	 mov	 BYTE PTR _szEncAttack$[ebp+13], cl
  000eb	8a 48 0e	 mov	 cl, BYTE PTR [eax+14]
  000ee	84 c9		 test	 cl, cl
  000f0	74 1a		 je	 SHORT $LN82@LoadAttack@2
  000f2	8a 40 0f	 mov	 al, BYTE PTR [eax+15]
  000f5	80 f1 eb	 xor	 cl, -21			; ffffffebH
  000f8	88 4d fa	 mov	 BYTE PTR _szEncAttack$[ebp+14], cl
  000fb	84 c0		 test	 al, al
  000fd	74 07		 je	 SHORT $LN81@LoadAttack@2
  000ff	34 ea		 xor	 al, -22			; ffffffeaH
  00101	88 45 fb	 mov	 BYTE PTR _szEncAttack$[ebp+15], al
  00104	eb 55		 jmp	 SHORT $LN1@LoadAttack@2
$LN81@LoadAttack@2:
  00106	c6 45 fb ea	 mov	 BYTE PTR _szEncAttack$[ebp+15], -22 ; ffffffeaH
  0010a	eb 4f		 jmp	 SHORT $LN1@LoadAttack@2
$LN82@LoadAttack@2:
  0010c	c6 45 fa eb	 mov	 BYTE PTR _szEncAttack$[ebp+14], -21 ; ffffffebH
  00110	eb 49		 jmp	 SHORT $LN1@LoadAttack@2
$LN83@LoadAttack@2:
  00112	88 55 f9	 mov	 BYTE PTR _szEncAttack$[ebp+13], dl
  00115	eb 44		 jmp	 SHORT $LN1@LoadAttack@2
$LN84@LoadAttack@2:
  00117	c6 45 f8 ed	 mov	 BYTE PTR _szEncAttack$[ebp+12], -19 ; ffffffedH
  0011b	eb 3e		 jmp	 SHORT $LN1@LoadAttack@2
$LN86@LoadAttack@2:
  0011d	c6 45 f6 eb	 mov	 BYTE PTR _szEncAttack$[ebp+10], -21 ; ffffffebH
  00121	eb 38		 jmp	 SHORT $LN1@LoadAttack@2
$LN87@LoadAttack@2:
  00123	88 55 f5	 mov	 BYTE PTR _szEncAttack$[ebp+9], dl
  00126	eb 33		 jmp	 SHORT $LN1@LoadAttack@2
$LN88@LoadAttack@2:
  00128	c6 45 f4 ed	 mov	 BYTE PTR _szEncAttack$[ebp+8], -19 ; ffffffedH
  0012c	eb 2d		 jmp	 SHORT $LN1@LoadAttack@2
$LN89@LoadAttack@2:
  0012e	c6 45 f3 ea	 mov	 BYTE PTR _szEncAttack$[ebp+7], -22 ; ffffffeaH
  00132	eb 27		 jmp	 SHORT $LN1@LoadAttack@2
$LN90@LoadAttack@2:
  00134	c6 45 f2 eb	 mov	 BYTE PTR _szEncAttack$[ebp+6], -21 ; ffffffebH
  00138	eb 21		 jmp	 SHORT $LN1@LoadAttack@2
$LN91@LoadAttack@2:
  0013a	88 55 f1	 mov	 BYTE PTR _szEncAttack$[ebp+5], dl
  0013d	eb 1c		 jmp	 SHORT $LN1@LoadAttack@2
$LN92@LoadAttack@2:
  0013f	c6 45 f0 ed	 mov	 BYTE PTR _szEncAttack$[ebp+4], -19 ; ffffffedH
  00143	eb 16		 jmp	 SHORT $LN1@LoadAttack@2
$LN93@LoadAttack@2:
  00145	c6 45 ef ea	 mov	 BYTE PTR _szEncAttack$[ebp+3], -22 ; ffffffeaH
  00149	eb 10		 jmp	 SHORT $LN1@LoadAttack@2
$LN94@LoadAttack@2:
  0014b	c6 45 ee eb	 mov	 BYTE PTR _szEncAttack$[ebp+2], -21 ; ffffffebH
  0014f	eb 0a		 jmp	 SHORT $LN1@LoadAttack@2
$LN95@LoadAttack@2:
  00151	c6 45 ed ec	 mov	 BYTE PTR _szEncAttack$[ebp+1], -20 ; ffffffecH
  00155	eb 04		 jmp	 SHORT $LN1@LoadAttack@2
$LN96@LoadAttack@2:
  00157	c6 45 ec ed	 mov	 BYTE PTR _szEncAttack$[ebp], -19 ; ffffffedH
$LN1@LoadAttack@2:
  0015b	6a 02		 push	 2
  0015d	8d 45 ec	 lea	 eax, DWORD PTR _szEncAttack$[ebp]
  00160	c6 45 f7 00	 mov	 BYTE PTR _szEncAttack$[ebp+11], 0
  00164	59		 pop	 ecx
$LL104@LoadAttack@2:
  00165	81 30 ed ec eb
	ea		 xor	 DWORD PTR [eax], -353637139 ; eaebecedH
  0016b	83 c0 04	 add	 eax, 4
  0016e	49		 dec	 ecx
  0016f	75 f4		 jne	 SHORT $LL104@LoadAttack@2
  00171	6a 08		 push	 8
  00173	58		 pop	 eax
$LL101@LoadAttack@2:
  00174	8b c8		 mov	 ecx, eax
  00176	81 e1 03 00 00
	80		 and	 ecx, -2147483645	; 80000003H
  0017c	79 05		 jns	 SHORT $LN111@LoadAttack@2
  0017e	49		 dec	 ecx
  0017f	83 c9 fc	 or	 ecx, -4			; fffffffcH
  00182	41		 inc	 ecx
$LN111@LoadAttack@2:
  00183	b2 ed		 mov	 dl, -19			; ffffffedH
  00185	2a d1		 sub	 dl, cl
  00187	30 54 05 ec	 xor	 BYTE PTR _szEncAttack$[ebp+eax], dl
  0018b	40		 inc	 eax
  0018c	83 f8 0b	 cmp	 eax, 11			; 0000000bH
  0018f	7c e3		 jl	 SHORT $LL101@LoadAttack@2

; 133  : 	LoadAttackAttribute(szEncAttack, rkAttribute, rkLoader);

  00191	57		 push	 edi
  00192	8d 45 ec	 lea	 eax, DWORD PTR _szEncAttack$[ebp]
  00195	56		 push	 esi
  00196	50		 push	 eax
  00197	e8 00 00 00 00	 call	 ?LoadAttackAttribute@@YAXPBDAAUAttackAttribute@@AAVioINILoader@@@Z ; LoadAttackAttribute

; 134  : }

  0019c	8b 4d fc	 mov	 ecx, DWORD PTR __$ArrayPad$[ebp]
  0019f	83 c4 0c	 add	 esp, 12			; 0000000cH
  001a2	5f		 pop	 edi
  001a3	33 cd		 xor	 ecx, ebp
  001a5	5e		 pop	 esi
  001a6	e8 00 00 00 00	 call	 @__security_check_cookie@4
  001ab	c9		 leave
  001ac	c3		 ret	 0
??$LoadAttackAttribute_e@$0M@@@YAXAAY0M@$$CBDAAUAttackAttribute@@AAVioINILoader@@@Z ENDP ; LoadAttackAttribute_e<12>
_TEXT	ENDS
PUBLIC	__$ArrayPad$
PUBLIC	??$LoadInt_e@$0BD@@ioINILoader@@QAEHAAY0BD@$$CBDH@Z ; ioINILoader::LoadInt_e<19>
; Function compile flags: /Ogsp
; File d:\lost saga for developer\youtube\tutorial\source\src\io3dengine\ioiniloader.h
;	COMDAT ??$LoadInt_e@$0BD@@ioINILoader@@QAEHAAY0BD@$$CBDH@Z
_TEXT	SEGMENT
__k$ = -28						; size = 19
__$ArrayPad$ = -4					; size = 4
_k$ = 8							; size = 4
_i$ = 12						; size = 4
??$LoadInt_e@$0BD@@ioINILoader@@QAEHAAY0BD@$$CBDH@Z PROC ; ioINILoader::LoadInt_e<19>, COMDAT
; _this$ = ecx

; 118  : 	{

  00000	55		 push	 ebp
  00001	8b ec		 mov	 ebp, esp
  00003	83 ec 1c	 sub	 esp, 28			; 0000001cH
  00006	a1 00 00 00 00	 mov	 eax, DWORD PTR ___security_cookie
  0000b	33 c5		 xor	 eax, ebp
  0000d	89 45 fc	 mov	 DWORD PTR __$ArrayPad$[ebp], eax
  00010	8b 45 08	 mov	 eax, DWORD PTR _k$[ebp]

; 119  : 		_ENCSTR(k, _k);

  00013	8a 10		 mov	 dl, BYTE PTR [eax]
  00015	56		 push	 esi
  00016	8b f1		 mov	 esi, ecx
  00018	84 d2		 test	 dl, dl
  0001a	0f 84 cf 01 00
	00		 je	 $LN96@LoadInt_e@2
  00020	80 f2 ed	 xor	 dl, -19			; ffffffedH
  00023	88 55 e4	 mov	 BYTE PTR __k$[ebp], dl
  00026	8a 50 01	 mov	 dl, BYTE PTR [eax+1]
  00029	84 d2		 test	 dl, dl
  0002b	0f 84 b8 01 00
	00		 je	 $LN95@LoadInt_e@2
  00031	b1 ec		 mov	 cl, -20			; ffffffecH
  00033	32 d1		 xor	 dl, cl
  00035	88 55 e5	 mov	 BYTE PTR __k$[ebp+1], dl
  00038	8a 50 02	 mov	 dl, BYTE PTR [eax+2]
  0003b	84 d2		 test	 dl, dl
  0003d	0f 84 a0 01 00
	00		 je	 $LN94@LoadInt_e@2
  00043	80 f2 eb	 xor	 dl, -21			; ffffffebH
  00046	88 55 e6	 mov	 BYTE PTR __k$[ebp+2], dl
  00049	8a 50 03	 mov	 dl, BYTE PTR [eax+3]
  0004c	84 d2		 test	 dl, dl
  0004e	0f 84 89 01 00
	00		 je	 $LN93@LoadInt_e@2
  00054	80 f2 ea	 xor	 dl, -22			; ffffffeaH
  00057	88 55 e7	 mov	 BYTE PTR __k$[ebp+3], dl
  0005a	8a 50 04	 mov	 dl, BYTE PTR [eax+4]
  0005d	84 d2		 test	 dl, dl
  0005f	0f 84 72 01 00
	00		 je	 $LN92@LoadInt_e@2
  00065	80 f2 ed	 xor	 dl, -19			; ffffffedH
  00068	88 55 e8	 mov	 BYTE PTR __k$[ebp+4], dl
  0006b	8a 50 05	 mov	 dl, BYTE PTR [eax+5]
  0006e	84 d2		 test	 dl, dl
  00070	0f 84 5c 01 00
	00		 je	 $LN91@LoadInt_e@2
  00076	32 d1		 xor	 dl, cl
  00078	88 55 e9	 mov	 BYTE PTR __k$[ebp+5], dl
  0007b	8a 50 06	 mov	 dl, BYTE PTR [eax+6]
  0007e	84 d2		 test	 dl, dl
  00080	0f 84 46 01 00
	00		 je	 $LN90@LoadInt_e@2
  00086	80 f2 eb	 xor	 dl, -21			; ffffffebH
  00089	88 55 ea	 mov	 BYTE PTR __k$[ebp+6], dl
  0008c	8a 50 07	 mov	 dl, BYTE PTR [eax+7]
  0008f	84 d2		 test	 dl, dl
  00091	0f 84 2f 01 00
	00		 je	 $LN89@LoadInt_e@2
  00097	80 f2 ea	 xor	 dl, -22			; ffffffeaH
  0009a	88 55 eb	 mov	 BYTE PTR __k$[ebp+7], dl
  0009d	8a 50 08	 mov	 dl, BYTE PTR [eax+8]
  000a0	84 d2		 test	 dl, dl
  000a2	0f 84 18 01 00
	00		 je	 $LN88@LoadInt_e@2
  000a8	80 f2 ed	 xor	 dl, -19			; ffffffedH
  000ab	88 55 ec	 mov	 BYTE PTR __k$[ebp+8], dl
  000ae	8a 50 09	 mov	 dl, BYTE PTR [eax+9]
  000b1	84 d2		 test	 dl, dl
  000b3	0f 84 02 01 00
	00		 je	 $LN87@LoadInt_e@2
  000b9	32 d1		 xor	 dl, cl
  000bb	88 55 ed	 mov	 BYTE PTR __k$[ebp+9], dl
  000be	8a 50 0a	 mov	 dl, BYTE PTR [eax+10]
  000c1	84 d2		 test	 dl, dl
  000c3	0f 84 ec 00 00
	00		 je	 $LN86@LoadInt_e@2
  000c9	80 f2 eb	 xor	 dl, -21			; ffffffebH
  000cc	88 55 ee	 mov	 BYTE PTR __k$[ebp+10], dl
  000cf	8a 50 0b	 mov	 dl, BYTE PTR [eax+11]
  000d2	84 d2		 test	 dl, dl
  000d4	0f 84 d5 00 00
	00		 je	 $LN85@LoadInt_e@2
  000da	80 f2 ea	 xor	 dl, -22			; ffffffeaH
  000dd	88 55 ef	 mov	 BYTE PTR __k$[ebp+11], dl
  000e0	8a 50 0c	 mov	 dl, BYTE PTR [eax+12]
  000e3	84 d2		 test	 dl, dl
  000e5	0f 84 be 00 00
	00		 je	 $LN84@LoadInt_e@2
  000eb	80 f2 ed	 xor	 dl, -19			; ffffffedH
  000ee	88 55 f0	 mov	 BYTE PTR __k$[ebp+12], dl
  000f1	8a 50 0d	 mov	 dl, BYTE PTR [eax+13]
  000f4	84 d2		 test	 dl, dl
  000f6	0f 84 a8 00 00
	00		 je	 $LN83@LoadInt_e@2
  000fc	32 d1		 xor	 dl, cl
  000fe	88 55 f1	 mov	 BYTE PTR __k$[ebp+13], dl
  00101	8a 50 0e	 mov	 dl, BYTE PTR [eax+14]
  00104	84 d2		 test	 dl, dl
  00106	0f 84 92 00 00
	00		 je	 $LN82@LoadInt_e@2
  0010c	80 f2 eb	 xor	 dl, -21			; ffffffebH
  0010f	88 55 f2	 mov	 BYTE PTR __k$[ebp+14], dl
  00112	8a 50 0f	 mov	 dl, BYTE PTR [eax+15]
  00115	84 d2		 test	 dl, dl
  00117	74 7f		 je	 SHORT $LN81@LoadInt_e@2
  00119	80 f2 ea	 xor	 dl, -22			; ffffffeaH
  0011c	88 55 f3	 mov	 BYTE PTR __k$[ebp+15], dl
  0011f	8a 50 10	 mov	 dl, BYTE PTR [eax+16]
  00122	84 d2		 test	 dl, dl
  00124	74 6c		 je	 SHORT $LN80@LoadInt_e@2
  00126	80 f2 ed	 xor	 dl, -19			; ffffffedH
  00129	88 55 f4	 mov	 BYTE PTR __k$[ebp+16], dl
  0012c	8a 50 11	 mov	 dl, BYTE PTR [eax+17]
  0012f	84 d2		 test	 dl, dl
  00131	74 5a		 je	 SHORT $LN79@LoadInt_e@2
  00133	32 d1		 xor	 dl, cl
  00135	80 78 12 00	 cmp	 BYTE PTR [eax+18], 0
  00139	88 55 f5	 mov	 BYTE PTR __k$[ebp+17], dl
  0013c	0f 84 b1 00 00
	00		 je	 $LN1@LoadInt_e@2
  00142	8a 50 13	 mov	 dl, BYTE PTR [eax+19]
  00145	84 d2		 test	 dl, dl
  00147	74 3e		 je	 SHORT $LN77@LoadInt_e@2
  00149	80 f2 ea	 xor	 dl, -22			; ffffffeaH
  0014c	88 55 f7	 mov	 BYTE PTR __k$[ebp+19], dl
  0014f	8a 50 14	 mov	 dl, BYTE PTR [eax+20]
  00152	84 d2		 test	 dl, dl
  00154	74 2b		 je	 SHORT $LN76@LoadInt_e@2
  00156	80 f2 ed	 xor	 dl, -19			; ffffffedH
  00159	88 55 f8	 mov	 BYTE PTR __k$[ebp+20], dl
  0015c	8a 50 15	 mov	 dl, BYTE PTR [eax+21]
  0015f	84 d2		 test	 dl, dl
  00161	74 19		 je	 SHORT $LN75@LoadInt_e@2
  00163	8a 40 16	 mov	 al, BYTE PTR [eax+22]
  00166	32 d1		 xor	 dl, cl
  00168	88 55 f9	 mov	 BYTE PTR __k$[ebp+21], dl
  0016b	84 c0		 test	 al, al
  0016d	74 07		 je	 SHORT $LN74@LoadInt_e@2
  0016f	34 eb		 xor	 al, -21			; ffffffebH
  00171	88 45 fa	 mov	 BYTE PTR __k$[ebp+22], al
  00174	eb 7d		 jmp	 SHORT $LN1@LoadInt_e@2
$LN74@LoadInt_e@2:
  00176	c6 45 fa eb	 mov	 BYTE PTR __k$[ebp+22], -21 ; ffffffebH
  0017a	eb 77		 jmp	 SHORT $LN1@LoadInt_e@2
$LN75@LoadInt_e@2:
  0017c	88 4d f9	 mov	 BYTE PTR __k$[ebp+21], cl
  0017f	eb 72		 jmp	 SHORT $LN1@LoadInt_e@2
$LN76@LoadInt_e@2:
  00181	c6 45 f8 ed	 mov	 BYTE PTR __k$[ebp+20], -19 ; ffffffedH
  00185	eb 6c		 jmp	 SHORT $LN1@LoadInt_e@2
$LN77@LoadInt_e@2:
  00187	c6 45 f7 ea	 mov	 BYTE PTR __k$[ebp+19], -22 ; ffffffeaH
  0018b	eb 66		 jmp	 SHORT $LN1@LoadInt_e@2
$LN79@LoadInt_e@2:
  0018d	88 4d f5	 mov	 BYTE PTR __k$[ebp+17], cl
  00190	eb 61		 jmp	 SHORT $LN1@LoadInt_e@2
$LN80@LoadInt_e@2:
  00192	c6 45 f4 ed	 mov	 BYTE PTR __k$[ebp+16], -19 ; ffffffedH
  00196	eb 5b		 jmp	 SHORT $LN1@LoadInt_e@2
$LN81@LoadInt_e@2:
  00198	c6 45 f3 ea	 mov	 BYTE PTR __k$[ebp+15], -22 ; ffffffeaH
  0019c	eb 55		 jmp	 SHORT $LN1@LoadInt_e@2
$LN82@LoadInt_e@2:
  0019e	c6 45 f2 eb	 mov	 BYTE PTR __k$[ebp+14], -21 ; ffffffebH
  001a2	eb 4f		 jmp	 SHORT $LN1@LoadInt_e@2
$LN83@LoadInt_e@2:
  001a4	88 4d f1	 mov	 BYTE PTR __k$[ebp+13], cl
  001a7	eb 4a		 jmp	 SHORT $LN1@LoadInt_e@2
$LN84@LoadInt_e@2:
  001a9	c6 45 f0 ed	 mov	 BYTE PTR __k$[ebp+12], -19 ; ffffffedH
  001ad	eb 44		 jmp	 SHORT $LN1@LoadInt_e@2
$LN85@LoadInt_e@2:
  001af	c6 45 ef ea	 mov	 BYTE PTR __k$[ebp+11], -22 ; ffffffeaH
  001b3	eb 3e		 jmp	 SHORT $LN1@LoadInt_e@2
$LN86@LoadInt_e@2:
  001b5	c6 45 ee eb	 mov	 BYTE PTR __k$[ebp+10], -21 ; ffffffebH
  001b9	eb 38		 jmp	 SHORT $LN1@LoadInt_e@2
$LN87@LoadInt_e@2:
  001bb	88 4d ed	 mov	 BYTE PTR __k$[ebp+9], cl
  001be	eb 33		 jmp	 SHORT $LN1@LoadInt_e@2
$LN88@LoadInt_e@2:
  001c0	c6 45 ec ed	 mov	 BYTE PTR __k$[ebp+8], -19 ; ffffffedH
  001c4	eb 2d		 jmp	 SHORT $LN1@LoadInt_e@2
$LN89@LoadInt_e@2:
  001c6	c6 45 eb ea	 mov	 BYTE PTR __k$[ebp+7], -22 ; ffffffeaH
  001ca	eb 27		 jmp	 SHORT $LN1@LoadInt_e@2
$LN90@LoadInt_e@2:
  001cc	c6 45 ea eb	 mov	 BYTE PTR __k$[ebp+6], -21 ; ffffffebH
  001d0	eb 21		 jmp	 SHORT $LN1@LoadInt_e@2
$LN91@LoadInt_e@2:
  001d2	88 4d e9	 mov	 BYTE PTR __k$[ebp+5], cl
  001d5	eb 1c		 jmp	 SHORT $LN1@LoadInt_e@2
$LN92@LoadInt_e@2:
  001d7	c6 45 e8 ed	 mov	 BYTE PTR __k$[ebp+4], -19 ; ffffffedH
  001db	eb 16		 jmp	 SHORT $LN1@LoadInt_e@2
$LN93@LoadInt_e@2:
  001dd	c6 45 e7 ea	 mov	 BYTE PTR __k$[ebp+3], -22 ; ffffffeaH
  001e1	eb 10		 jmp	 SHORT $LN1@LoadInt_e@2
$LN94@LoadInt_e@2:
  001e3	c6 45 e6 eb	 mov	 BYTE PTR __k$[ebp+2], -21 ; ffffffebH
  001e7	eb 0a		 jmp	 SHORT $LN1@LoadInt_e@2
$LN95@LoadInt_e@2:
  001e9	c6 45 e5 ec	 mov	 BYTE PTR __k$[ebp+1], -20 ; ffffffecH
  001ed	eb 04		 jmp	 SHORT $LN1@LoadInt_e@2
$LN96@LoadInt_e@2:
  001ef	c6 45 e4 ed	 mov	 BYTE PTR __k$[ebp], -19	; ffffffedH
$LN1@LoadInt_e@2:
  001f3	6a 04		 push	 4
  001f5	8d 45 e4	 lea	 eax, DWORD PTR __k$[ebp]
  001f8	c6 45 f6 00	 mov	 BYTE PTR __k$[ebp+18], 0
  001fc	5a		 pop	 edx
$LL104@LoadInt_e@2:
  001fd	81 30 ed ec eb
	ea		 xor	 DWORD PTR [eax], -353637139 ; eaebecedH
  00203	83 c0 04	 add	 eax, 4
  00206	4a		 dec	 edx
  00207	75 f4		 jne	 SHORT $LL104@LoadInt_e@2
  00209	6a 10		 push	 16			; 00000010H
  0020b	58		 pop	 eax
$LL101@LoadInt_e@2:
  0020c	8b c8		 mov	 ecx, eax
  0020e	81 e1 03 00 00
	80		 and	 ecx, -2147483645	; 80000003H
  00214	79 05		 jns	 SHORT $LN111@LoadInt_e@2
  00216	49		 dec	 ecx
  00217	83 c9 fc	 or	 ecx, -4			; fffffffcH
  0021a	41		 inc	 ecx
$LN111@LoadInt_e@2:
  0021b	b2 ed		 mov	 dl, -19			; ffffffedH
  0021d	2a d1		 sub	 dl, cl
  0021f	30 54 05 e4	 xor	 BYTE PTR __k$[ebp+eax], dl
  00223	40		 inc	 eax
  00224	83 f8 12	 cmp	 eax, 18			; 00000012H
  00227	7c e3		 jl	 SHORT $LL101@LoadInt_e@2

; 120  : 		return LoadInt(_k, i);

  00229	ff 75 0c	 push	 DWORD PTR _i$[ebp]
  0022c	8d 45 e4	 lea	 eax, DWORD PTR __k$[ebp]
  0022f	50		 push	 eax
  00230	8b ce		 mov	 ecx, esi
  00232	ff 15 00 00 00
	00		 call	 DWORD PTR __imp_?LoadInt@ioINILoader@@QAEHPBDH@Z

; 121  : 	}

  00238	8b 4d fc	 mov	 ecx, DWORD PTR __$ArrayPad$[ebp]
  0023b	33 cd		 xor	 ecx, ebp
  0023d	5e		 pop	 esi
  0023e	e8 00 00 00 00	 call	 @__security_check_cookie@4
  00243	c9		 leave
  00244	c2 08 00	 ret	 8
??$LoadInt_e@$0BD@@ioINILoader@@QAEHAAY0BD@$$CBDH@Z ENDP ; ioINILoader::LoadInt_e<19>
_TEXT	ENDS
PUBLIC	__$ArrayPad$
PUBLIC	??$LoadInt_e@$0BJ@@ioINILoader@@QAEHAAY0BJ@$$CBDH@Z ; ioINILoader::LoadInt_e<25>
; Function compile flags: /Ogsp
;	COMDAT ??$LoadInt_e@$0BJ@@ioINILoader@@QAEHAAY0BJ@$$CBDH@Z
_TEXT	SEGMENT
__k$ = -36						; size = 25
__$ArrayPad$ = -4					; size = 4
_k$ = 8							; size = 4
_i$ = 12						; size = 4
??$LoadInt_e@$0BJ@@ioINILoader@@QAEHAAY0BJ@$$CBDH@Z PROC ; ioINILoader::LoadInt_e<25>, COMDAT
; _this$ = ecx

; 118  : 	{

  00000	55		 push	 ebp
  00001	8b ec		 mov	 ebp, esp
  00003	83 ec 24	 sub	 esp, 36			; 00000024H
  00006	a1 00 00 00 00	 mov	 eax, DWORD PTR ___security_cookie
  0000b	33 c5		 xor	 eax, ebp
  0000d	89 45 fc	 mov	 DWORD PTR __$ArrayPad$[ebp], eax
  00010	8b 45 08	 mov	 eax, DWORD PTR _k$[ebp]

; 119  : 		_ENCSTR(k, _k);

  00013	8a 10		 mov	 dl, BYTE PTR [eax]
  00015	53		 push	 ebx
  00016	56		 push	 esi
  00017	8b f1		 mov	 esi, ecx
  00019	84 d2		 test	 dl, dl
  0001b	0f 84 5f 02 00
	00		 je	 $LN96@LoadInt_e@3
  00021	80 f2 ed	 xor	 dl, -19			; ffffffedH
  00024	88 55 dc	 mov	 BYTE PTR __k$[ebp], dl
  00027	8a 50 01	 mov	 dl, BYTE PTR [eax+1]
  0002a	84 d2		 test	 dl, dl
  0002c	0f 84 48 02 00
	00		 je	 $LN95@LoadInt_e@3
  00032	b1 ec		 mov	 cl, -20			; ffffffecH
  00034	32 d1		 xor	 dl, cl
  00036	88 55 dd	 mov	 BYTE PTR __k$[ebp+1], dl
  00039	8a 50 02	 mov	 dl, BYTE PTR [eax+2]
  0003c	84 d2		 test	 dl, dl
  0003e	0f 84 30 02 00
	00		 je	 $LN94@LoadInt_e@3
  00044	b3 eb		 mov	 bl, -21			; ffffffebH
  00046	32 d3		 xor	 dl, bl
  00048	88 55 de	 mov	 BYTE PTR __k$[ebp+2], dl
  0004b	8a 50 03	 mov	 dl, BYTE PTR [eax+3]
  0004e	84 d2		 test	 dl, dl
  00050	0f 84 18 02 00
	00		 je	 $LN93@LoadInt_e@3
  00056	80 f2 ea	 xor	 dl, -22			; ffffffeaH
  00059	88 55 df	 mov	 BYTE PTR __k$[ebp+3], dl
  0005c	8a 50 04	 mov	 dl, BYTE PTR [eax+4]
  0005f	84 d2		 test	 dl, dl
  00061	0f 84 01 02 00
	00		 je	 $LN92@LoadInt_e@3
  00067	80 f2 ed	 xor	 dl, -19			; ffffffedH
  0006a	88 55 e0	 mov	 BYTE PTR __k$[ebp+4], dl
  0006d	8a 50 05	 mov	 dl, BYTE PTR [eax+5]
  00070	84 d2		 test	 dl, dl
  00072	0f 84 eb 01 00
	00		 je	 $LN91@LoadInt_e@3
  00078	32 d1		 xor	 dl, cl
  0007a	88 55 e1	 mov	 BYTE PTR __k$[ebp+5], dl
  0007d	8a 50 06	 mov	 dl, BYTE PTR [eax+6]
  00080	84 d2		 test	 dl, dl
  00082	0f 84 d6 01 00
	00		 je	 $LN90@LoadInt_e@3
  00088	32 d3		 xor	 dl, bl
  0008a	88 55 e2	 mov	 BYTE PTR __k$[ebp+6], dl
  0008d	8a 50 07	 mov	 dl, BYTE PTR [eax+7]
  00090	84 d2		 test	 dl, dl
  00092	0f 84 c0 01 00
	00		 je	 $LN89@LoadInt_e@3
  00098	80 f2 ea	 xor	 dl, -22			; ffffffeaH
  0009b	88 55 e3	 mov	 BYTE PTR __k$[ebp+7], dl
  0009e	8a 50 08	 mov	 dl, BYTE PTR [eax+8]
  000a1	84 d2		 test	 dl, dl
  000a3	0f 84 a9 01 00
	00		 je	 $LN88@LoadInt_e@3
  000a9	80 f2 ed	 xor	 dl, -19			; ffffffedH
  000ac	88 55 e4	 mov	 BYTE PTR __k$[ebp+8], dl
  000af	8a 50 09	 mov	 dl, BYTE PTR [eax+9]
  000b2	84 d2		 test	 dl, dl
  000b4	0f 84 93 01 00
	00		 je	 $LN87@LoadInt_e@3
  000ba	32 d1		 xor	 dl, cl
  000bc	88 55 e5	 mov	 BYTE PTR __k$[ebp+9], dl
  000bf	8a 50 0a	 mov	 dl, BYTE PTR [eax+10]
  000c2	84 d2		 test	 dl, dl
  000c4	0f 84 7e 01 00
	00		 je	 $LN86@LoadInt_e@3
  000ca	32 d3		 xor	 dl, bl
  000cc	88 55 e6	 mov	 BYTE PTR __k$[ebp+10], dl
  000cf	8a 50 0b	 mov	 dl, BYTE PTR [eax+11]
  000d2	84 d2		 test	 dl, dl
  000d4	0f 84 68 01 00
	00		 je	 $LN85@LoadInt_e@3
  000da	80 f2 ea	 xor	 dl, -22			; ffffffeaH
  000dd	88 55 e7	 mov	 BYTE PTR __k$[ebp+11], dl
  000e0	8a 50 0c	 mov	 dl, BYTE PTR [eax+12]
  000e3	84 d2		 test	 dl, dl
  000e5	0f 84 51 01 00
	00		 je	 $LN84@LoadInt_e@3
  000eb	80 f2 ed	 xor	 dl, -19			; ffffffedH
  000ee	88 55 e8	 mov	 BYTE PTR __k$[ebp+12], dl
  000f1	8a 50 0d	 mov	 dl, BYTE PTR [eax+13]
  000f4	84 d2		 test	 dl, dl
  000f6	0f 84 3b 01 00
	00		 je	 $LN83@LoadInt_e@3
  000fc	32 d1		 xor	 dl, cl
  000fe	88 55 e9	 mov	 BYTE PTR __k$[ebp+13], dl
  00101	8a 50 0e	 mov	 dl, BYTE PTR [eax+14]
  00104	84 d2		 test	 dl, dl
  00106	0f 84 26 01 00
	00		 je	 $LN82@LoadInt_e@3
  0010c	32 d3		 xor	 dl, bl
  0010e	88 55 ea	 mov	 BYTE PTR __k$[ebp+14], dl
  00111	8a 50 0f	 mov	 dl, BYTE PTR [eax+15]
  00114	84 d2		 test	 dl, dl
  00116	0f 84 10 01 00
	00		 je	 $LN81@LoadInt_e@3
  0011c	80 f2 ea	 xor	 dl, -22			; ffffffeaH
  0011f	88 55 eb	 mov	 BYTE PTR __k$[ebp+15], dl
  00122	8a 50 10	 mov	 dl, BYTE PTR [eax+16]
  00125	84 d2		 test	 dl, dl
  00127	0f 84 f9 00 00
	00		 je	 $LN80@LoadInt_e@3
  0012d	80 f2 ed	 xor	 dl, -19			; ffffffedH
  00130	88 55 ec	 mov	 BYTE PTR __k$[ebp+16], dl
  00133	8a 50 11	 mov	 dl, BYTE PTR [eax+17]
  00136	84 d2		 test	 dl, dl
  00138	0f 84 e3 00 00
	00		 je	 $LN79@LoadInt_e@3
  0013e	32 d1		 xor	 dl, cl
  00140	88 55 ed	 mov	 BYTE PTR __k$[ebp+17], dl
  00143	8a 50 12	 mov	 dl, BYTE PTR [eax+18]
  00146	84 d2		 test	 dl, dl
  00148	0f 84 ce 00 00
	00		 je	 $LN78@LoadInt_e@3
  0014e	32 d3		 xor	 dl, bl
  00150	88 55 ee	 mov	 BYTE PTR __k$[ebp+18], dl
  00153	8a 50 13	 mov	 dl, BYTE PTR [eax+19]
  00156	84 d2		 test	 dl, dl
  00158	0f 84 b8 00 00
	00		 je	 $LN77@LoadInt_e@3
  0015e	80 f2 ea	 xor	 dl, -22			; ffffffeaH
  00161	88 55 ef	 mov	 BYTE PTR __k$[ebp+19], dl
  00164	8a 50 14	 mov	 dl, BYTE PTR [eax+20]
  00167	84 d2		 test	 dl, dl
  00169	0f 84 a1 00 00
	00		 je	 $LN76@LoadInt_e@3
  0016f	80 f2 ed	 xor	 dl, -19			; ffffffedH
  00172	88 55 f0	 mov	 BYTE PTR __k$[ebp+20], dl
  00175	8a 50 15	 mov	 dl, BYTE PTR [eax+21]
  00178	84 d2		 test	 dl, dl
  0017a	0f 84 8b 00 00
	00		 je	 $LN75@LoadInt_e@3
  00180	32 d1		 xor	 dl, cl
  00182	88 55 f1	 mov	 BYTE PTR __k$[ebp+21], dl
  00185	8a 50 16	 mov	 dl, BYTE PTR [eax+22]
  00188	84 d2		 test	 dl, dl
  0018a	74 7a		 je	 SHORT $LN74@LoadInt_e@3
  0018c	32 d3		 xor	 dl, bl
  0018e	88 55 f2	 mov	 BYTE PTR __k$[ebp+22], dl
  00191	8a 50 17	 mov	 dl, BYTE PTR [eax+23]
  00194	84 d2		 test	 dl, dl
  00196	74 68		 je	 SHORT $LN73@LoadInt_e@3
  00198	80 f2 ea	 xor	 dl, -22			; ffffffeaH
  0019b	80 78 18 00	 cmp	 BYTE PTR [eax+24], 0
  0019f	88 55 f3	 mov	 BYTE PTR __k$[ebp+23], dl
  001a2	0f 84 dc 00 00
	00		 je	 $LN1@LoadInt_e@3
  001a8	8a 50 19	 mov	 dl, BYTE PTR [eax+25]
  001ab	84 d2		 test	 dl, dl
  001ad	74 49		 je	 SHORT $LN71@LoadInt_e@3
  001af	32 d1		 xor	 dl, cl
  001b1	88 55 f5	 mov	 BYTE PTR __k$[ebp+25], dl
  001b4	8a 50 1a	 mov	 dl, BYTE PTR [eax+26]
  001b7	84 d2		 test	 dl, dl
  001b9	74 35		 je	 SHORT $LN70@LoadInt_e@3
  001bb	32 d3		 xor	 dl, bl
  001bd	88 55 f6	 mov	 BYTE PTR __k$[ebp+26], dl
  001c0	8a 50 1b	 mov	 dl, BYTE PTR [eax+27]
  001c3	84 d2		 test	 dl, dl
  001c5	74 20		 je	 SHORT $LN69@LoadInt_e@3
  001c7	8a 40 1c	 mov	 al, BYTE PTR [eax+28]
  001ca	80 f2 ea	 xor	 dl, -22			; ffffffeaH
  001cd	88 55 f7	 mov	 BYTE PTR __k$[ebp+27], dl
  001d0	84 c0		 test	 al, al
  001d2	74 0a		 je	 SHORT $LN68@LoadInt_e@3
  001d4	34 ed		 xor	 al, -19			; ffffffedH
  001d6	88 45 f8	 mov	 BYTE PTR __k$[ebp+28], al
  001d9	e9 a6 00 00 00	 jmp	 $LN1@LoadInt_e@3
$LN68@LoadInt_e@3:
  001de	c6 45 f8 ed	 mov	 BYTE PTR __k$[ebp+28], -19 ; ffffffedH
  001e2	e9 9d 00 00 00	 jmp	 $LN1@LoadInt_e@3
$LN69@LoadInt_e@3:
  001e7	c6 45 f7 ea	 mov	 BYTE PTR __k$[ebp+27], -22 ; ffffffeaH
  001eb	e9 94 00 00 00	 jmp	 $LN1@LoadInt_e@3
$LN70@LoadInt_e@3:
  001f0	88 5d f6	 mov	 BYTE PTR __k$[ebp+26], bl
  001f3	e9 8c 00 00 00	 jmp	 $LN1@LoadInt_e@3
$LN71@LoadInt_e@3:
  001f8	88 4d f5	 mov	 BYTE PTR __k$[ebp+25], cl
  001fb	e9 84 00 00 00	 jmp	 $LN1@LoadInt_e@3
$LN73@LoadInt_e@3:
  00200	c6 45 f3 ea	 mov	 BYTE PTR __k$[ebp+23], -22 ; ffffffeaH
  00204	eb 7e		 jmp	 SHORT $LN1@LoadInt_e@3
$LN74@LoadInt_e@3:
  00206	88 5d f2	 mov	 BYTE PTR __k$[ebp+22], bl
  00209	eb 79		 jmp	 SHORT $LN1@LoadInt_e@3
$LN75@LoadInt_e@3:
  0020b	88 4d f1	 mov	 BYTE PTR __k$[ebp+21], cl
  0020e	eb 74		 jmp	 SHORT $LN1@LoadInt_e@3
$LN76@LoadInt_e@3:
  00210	c6 45 f0 ed	 mov	 BYTE PTR __k$[ebp+20], -19 ; ffffffedH
  00214	eb 6e		 jmp	 SHORT $LN1@LoadInt_e@3
$LN77@LoadInt_e@3:
  00216	c6 45 ef ea	 mov	 BYTE PTR __k$[ebp+19], -22 ; ffffffeaH
  0021a	eb 68		 jmp	 SHORT $LN1@LoadInt_e@3
$LN78@LoadInt_e@3:
  0021c	88 5d ee	 mov	 BYTE PTR __k$[ebp+18], bl
  0021f	eb 63		 jmp	 SHORT $LN1@LoadInt_e@3
$LN79@LoadInt_e@3:
  00221	88 4d ed	 mov	 BYTE PTR __k$[ebp+17], cl
  00224	eb 5e		 jmp	 SHORT $LN1@LoadInt_e@3
$LN80@LoadInt_e@3:
  00226	c6 45 ec ed	 mov	 BYTE PTR __k$[ebp+16], -19 ; ffffffedH
  0022a	eb 58		 jmp	 SHORT $LN1@LoadInt_e@3
$LN81@LoadInt_e@3:
  0022c	c6 45 eb ea	 mov	 BYTE PTR __k$[ebp+15], -22 ; ffffffeaH
  00230	eb 52		 jmp	 SHORT $LN1@LoadInt_e@3
$LN82@LoadInt_e@3:
  00232	88 5d ea	 mov	 BYTE PTR __k$[ebp+14], bl
  00235	eb 4d		 jmp	 SHORT $LN1@LoadInt_e@3
$LN83@LoadInt_e@3:
  00237	88 4d e9	 mov	 BYTE PTR __k$[ebp+13], cl
  0023a	eb 48		 jmp	 SHORT $LN1@LoadInt_e@3
$LN84@LoadInt_e@3:
  0023c	c6 45 e8 ed	 mov	 BYTE PTR __k$[ebp+12], -19 ; ffffffedH
  00240	eb 42		 jmp	 SHORT $LN1@LoadInt_e@3
$LN85@LoadInt_e@3:
  00242	c6 45 e7 ea	 mov	 BYTE PTR __k$[ebp+11], -22 ; ffffffeaH
  00246	eb 3c		 jmp	 SHORT $LN1@LoadInt_e@3
$LN86@LoadInt_e@3:
  00248	88 5d e6	 mov	 BYTE PTR __k$[ebp+10], bl
  0024b	eb 37		 jmp	 SHORT $LN1@LoadInt_e@3
$LN87@LoadInt_e@3:
  0024d	88 4d e5	 mov	 BYTE PTR __k$[ebp+9], cl
  00250	eb 32		 jmp	 SHORT $LN1@LoadInt_e@3
$LN88@LoadInt_e@3:
  00252	c6 45 e4 ed	 mov	 BYTE PTR __k$[ebp+8], -19 ; ffffffedH
  00256	eb 2c		 jmp	 SHORT $LN1@LoadInt_e@3
$LN89@LoadInt_e@3:
  00258	c6 45 e3 ea	 mov	 BYTE PTR __k$[ebp+7], -22 ; ffffffeaH
  0025c	eb 26		 jmp	 SHORT $LN1@LoadInt_e@3
$LN90@LoadInt_e@3:
  0025e	88 5d e2	 mov	 BYTE PTR __k$[ebp+6], bl
  00261	eb 21		 jmp	 SHORT $LN1@LoadInt_e@3
$LN91@LoadInt_e@3:
  00263	88 4d e1	 mov	 BYTE PTR __k$[ebp+5], cl
  00266	eb 1c		 jmp	 SHORT $LN1@LoadInt_e@3
$LN92@LoadInt_e@3:
  00268	c6 45 e0 ed	 mov	 BYTE PTR __k$[ebp+4], -19 ; ffffffedH
  0026c	eb 16		 jmp	 SHORT $LN1@LoadInt_e@3
$LN93@LoadInt_e@3:
  0026e	c6 45 df ea	 mov	 BYTE PTR __k$[ebp+3], -22 ; ffffffeaH
  00272	eb 10		 jmp	 SHORT $LN1@LoadInt_e@3
$LN94@LoadInt_e@3:
  00274	c6 45 de eb	 mov	 BYTE PTR __k$[ebp+2], -21 ; ffffffebH
  00278	eb 0a		 jmp	 SHORT $LN1@LoadInt_e@3
$LN95@LoadInt_e@3:
  0027a	c6 45 dd ec	 mov	 BYTE PTR __k$[ebp+1], -20 ; ffffffecH
  0027e	eb 04		 jmp	 SHORT $LN1@LoadInt_e@3
$LN96@LoadInt_e@3:
  00280	c6 45 dc ed	 mov	 BYTE PTR __k$[ebp], -19	; ffffffedH
$LN1@LoadInt_e@3:
  00284	6a 06		 push	 6
  00286	8d 45 dc	 lea	 eax, DWORD PTR __k$[ebp]
  00289	c6 45 f4 00	 mov	 BYTE PTR __k$[ebp+24], 0
  0028d	5a		 pop	 edx
$LL104@LoadInt_e@3:
  0028e	81 30 ed ec eb
	ea		 xor	 DWORD PTR [eax], -353637139 ; eaebecedH
  00294	83 c0 04	 add	 eax, 4
  00297	4a		 dec	 edx
  00298	75 f4		 jne	 SHORT $LL104@LoadInt_e@3

; 120  : 		return LoadInt(_k, i);

  0029a	ff 75 0c	 push	 DWORD PTR _i$[ebp]
  0029d	8d 45 dc	 lea	 eax, DWORD PTR __k$[ebp]
  002a0	50		 push	 eax
  002a1	8b ce		 mov	 ecx, esi
  002a3	ff 15 00 00 00
	00		 call	 DWORD PTR __imp_?LoadInt@ioINILoader@@QAEHPBDH@Z

; 121  : 	}

  002a9	8b 4d fc	 mov	 ecx, DWORD PTR __$ArrayPad$[ebp]
  002ac	5e		 pop	 esi
  002ad	33 cd		 xor	 ecx, ebp
  002af	5b		 pop	 ebx
  002b0	e8 00 00 00 00	 call	 @__security_check_cookie@4
  002b5	c9		 leave
  002b6	c2 08 00	 ret	 8
??$LoadInt_e@$0BJ@@ioINILoader@@QAEHAAY0BJ@$$CBDH@Z ENDP ; ioINILoader::LoadInt_e<25>
_TEXT	ENDS
PUBLIC	__$ArrayPad$
PUBLIC	??$LoadAttackAttribute_e@$0BD@@@YAXAAY0BD@$$CBDAAUAttackAttribute@@AAVioINILoader@@@Z ; LoadAttackAttribute_e<19>
; Function compile flags: /Ogsp
; File d:\lost saga for developer\youtube\tutorial\source\src\lsclient\ioattackattribute.h
;	COMDAT ??$LoadAttackAttribute_e@$0BD@@@YAXAAY0BD@$$CBDAAUAttackAttribute@@AAVioINILoader@@@Z
_TEXT	SEGMENT
_szEncAttack$ = -28					; size = 19
__$ArrayPad$ = -4					; size = 4
_szAttack$ = 8						; size = 4
_rkAttribute$ = 12					; size = 4
_rkLoader$ = 16						; size = 4
??$LoadAttackAttribute_e@$0BD@@@YAXAAY0BD@$$CBDAAUAttackAttribute@@AAVioINILoader@@@Z PROC ; LoadAttackAttribute_e<19>, COMDAT

; 131  : {

  00000	55		 push	 ebp
  00001	8b ec		 mov	 ebp, esp
  00003	83 ec 1c	 sub	 esp, 28			; 0000001cH
  00006	a1 00 00 00 00	 mov	 eax, DWORD PTR ___security_cookie
  0000b	33 c5		 xor	 eax, ebp
  0000d	89 45 fc	 mov	 DWORD PTR __$ArrayPad$[ebp], eax
  00010	8b 45 08	 mov	 eax, DWORD PTR _szAttack$[ebp]

; 132  : 	_ENCSTR(szAttack, szEncAttack);

  00013	8a 08		 mov	 cl, BYTE PTR [eax]
  00015	53		 push	 ebx
  00016	56		 push	 esi
  00017	8b 75 0c	 mov	 esi, DWORD PTR _rkAttribute$[ebp]
  0001a	57		 push	 edi
  0001b	8b 7d 10	 mov	 edi, DWORD PTR _rkLoader$[ebp]
  0001e	84 c9		 test	 cl, cl
  00020	0f 84 c8 01 00
	00		 je	 $LN96@LoadAttack@3
  00026	80 f1 ed	 xor	 cl, -19			; ffffffedH
  00029	88 4d e4	 mov	 BYTE PTR _szEncAttack$[ebp], cl
  0002c	8a 48 01	 mov	 cl, BYTE PTR [eax+1]
  0002f	84 c9		 test	 cl, cl
  00031	0f 84 b1 01 00
	00		 je	 $LN95@LoadAttack@3
  00037	b3 ec		 mov	 bl, -20			; ffffffecH
  00039	32 cb		 xor	 cl, bl
  0003b	88 4d e5	 mov	 BYTE PTR _szEncAttack$[ebp+1], cl
  0003e	8a 48 02	 mov	 cl, BYTE PTR [eax+2]
  00041	84 c9		 test	 cl, cl
  00043	0f 84 99 01 00
	00		 je	 $LN94@LoadAttack@3
  00049	80 f1 eb	 xor	 cl, -21			; ffffffebH
  0004c	88 4d e6	 mov	 BYTE PTR _szEncAttack$[ebp+2], cl
  0004f	8a 48 03	 mov	 cl, BYTE PTR [eax+3]
  00052	84 c9		 test	 cl, cl
  00054	0f 84 82 01 00
	00		 je	 $LN93@LoadAttack@3
  0005a	b2 ea		 mov	 dl, -22			; ffffffeaH
  0005c	32 ca		 xor	 cl, dl
  0005e	88 4d e7	 mov	 BYTE PTR _szEncAttack$[ebp+3], cl
  00061	8a 48 04	 mov	 cl, BYTE PTR [eax+4]
  00064	84 c9		 test	 cl, cl
  00066	0f 84 6a 01 00
	00		 je	 $LN92@LoadAttack@3
  0006c	80 f1 ed	 xor	 cl, -19			; ffffffedH
  0006f	88 4d e8	 mov	 BYTE PTR _szEncAttack$[ebp+4], cl
  00072	8a 48 05	 mov	 cl, BYTE PTR [eax+5]
  00075	84 c9		 test	 cl, cl
  00077	0f 84 54 01 00
	00		 je	 $LN91@LoadAttack@3
  0007d	32 cb		 xor	 cl, bl
  0007f	88 4d e9	 mov	 BYTE PTR _szEncAttack$[ebp+5], cl
  00082	8a 48 06	 mov	 cl, BYTE PTR [eax+6]
  00085	84 c9		 test	 cl, cl
  00087	0f 84 3e 01 00
	00		 je	 $LN90@LoadAttack@3
  0008d	80 f1 eb	 xor	 cl, -21			; ffffffebH
  00090	88 4d ea	 mov	 BYTE PTR _szEncAttack$[ebp+6], cl
  00093	8a 48 07	 mov	 cl, BYTE PTR [eax+7]
  00096	84 c9		 test	 cl, cl
  00098	0f 84 28 01 00
	00		 je	 $LN89@LoadAttack@3
  0009e	32 ca		 xor	 cl, dl
  000a0	88 4d eb	 mov	 BYTE PTR _szEncAttack$[ebp+7], cl
  000a3	8a 48 08	 mov	 cl, BYTE PTR [eax+8]
  000a6	84 c9		 test	 cl, cl
  000a8	0f 84 12 01 00
	00		 je	 $LN88@LoadAttack@3
  000ae	80 f1 ed	 xor	 cl, -19			; ffffffedH
  000b1	88 4d ec	 mov	 BYTE PTR _szEncAttack$[ebp+8], cl
  000b4	8a 48 09	 mov	 cl, BYTE PTR [eax+9]
  000b7	84 c9		 test	 cl, cl
  000b9	0f 84 fc 00 00
	00		 je	 $LN87@LoadAttack@3
  000bf	32 cb		 xor	 cl, bl
  000c1	88 4d ed	 mov	 BYTE PTR _szEncAttack$[ebp+9], cl
  000c4	8a 48 0a	 mov	 cl, BYTE PTR [eax+10]
  000c7	84 c9		 test	 cl, cl
  000c9	0f 84 e6 00 00
	00		 je	 $LN86@LoadAttack@3
  000cf	80 f1 eb	 xor	 cl, -21			; ffffffebH
  000d2	88 4d ee	 mov	 BYTE PTR _szEncAttack$[ebp+10], cl
  000d5	8a 48 0b	 mov	 cl, BYTE PTR [eax+11]
  000d8	84 c9		 test	 cl, cl
  000da	0f 84 d0 00 00
	00		 je	 $LN85@LoadAttack@3
  000e0	32 ca		 xor	 cl, dl
  000e2	88 4d ef	 mov	 BYTE PTR _szEncAttack$[ebp+11], cl
  000e5	8a 48 0c	 mov	 cl, BYTE PTR [eax+12]
  000e8	84 c9		 test	 cl, cl
  000ea	0f 84 ba 00 00
	00		 je	 $LN84@LoadAttack@3
  000f0	80 f1 ed	 xor	 cl, -19			; ffffffedH
  000f3	88 4d f0	 mov	 BYTE PTR _szEncAttack$[ebp+12], cl
  000f6	8a 48 0d	 mov	 cl, BYTE PTR [eax+13]
  000f9	84 c9		 test	 cl, cl
  000fb	0f 84 a4 00 00
	00		 je	 $LN83@LoadAttack@3
  00101	32 cb		 xor	 cl, bl
  00103	88 4d f1	 mov	 BYTE PTR _szEncAttack$[ebp+13], cl
  00106	8a 48 0e	 mov	 cl, BYTE PTR [eax+14]
  00109	84 c9		 test	 cl, cl
  0010b	0f 84 8e 00 00
	00		 je	 $LN82@LoadAttack@3
  00111	80 f1 eb	 xor	 cl, -21			; ffffffebH
  00114	88 4d f2	 mov	 BYTE PTR _szEncAttack$[ebp+14], cl
  00117	8a 48 0f	 mov	 cl, BYTE PTR [eax+15]
  0011a	84 c9		 test	 cl, cl
  0011c	74 7c		 je	 SHORT $LN81@LoadAttack@3
  0011e	32 ca		 xor	 cl, dl
  00120	88 4d f3	 mov	 BYTE PTR _szEncAttack$[ebp+15], cl
  00123	8a 48 10	 mov	 cl, BYTE PTR [eax+16]
  00126	84 c9		 test	 cl, cl
  00128	74 6a		 je	 SHORT $LN80@LoadAttack@3
  0012a	80 f1 ed	 xor	 cl, -19			; ffffffedH
  0012d	88 4d f4	 mov	 BYTE PTR _szEncAttack$[ebp+16], cl
  00130	8a 48 11	 mov	 cl, BYTE PTR [eax+17]
  00133	84 c9		 test	 cl, cl
  00135	74 58		 je	 SHORT $LN79@LoadAttack@3
  00137	32 cb		 xor	 cl, bl
  00139	80 78 12 00	 cmp	 BYTE PTR [eax+18], 0
  0013d	88 4d f5	 mov	 BYTE PTR _szEncAttack$[ebp+17], cl
  00140	0f 84 ac 00 00
	00		 je	 $LN1@LoadAttack@3
  00146	8a 48 13	 mov	 cl, BYTE PTR [eax+19]
  00149	84 c9		 test	 cl, cl
  0014b	74 3d		 je	 SHORT $LN77@LoadAttack@3
  0014d	32 ca		 xor	 cl, dl
  0014f	88 4d f7	 mov	 BYTE PTR _szEncAttack$[ebp+19], cl
  00152	8a 48 14	 mov	 cl, BYTE PTR [eax+20]
  00155	84 c9		 test	 cl, cl
  00157	74 2b		 je	 SHORT $LN76@LoadAttack@3
  00159	80 f1 ed	 xor	 cl, -19			; ffffffedH
  0015c	88 4d f8	 mov	 BYTE PTR _szEncAttack$[ebp+20], cl
  0015f	8a 48 15	 mov	 cl, BYTE PTR [eax+21]
  00162	84 c9		 test	 cl, cl
  00164	74 19		 je	 SHORT $LN75@LoadAttack@3
  00166	8a 40 16	 mov	 al, BYTE PTR [eax+22]
  00169	32 cb		 xor	 cl, bl
  0016b	88 4d f9	 mov	 BYTE PTR _szEncAttack$[ebp+21], cl
  0016e	84 c0		 test	 al, al
  00170	74 07		 je	 SHORT $LN74@LoadAttack@3
  00172	34 eb		 xor	 al, -21			; ffffffebH
  00174	88 45 fa	 mov	 BYTE PTR _szEncAttack$[ebp+22], al
  00177	eb 79		 jmp	 SHORT $LN1@LoadAttack@3
$LN74@LoadAttack@3:
  00179	c6 45 fa eb	 mov	 BYTE PTR _szEncAttack$[ebp+22], -21 ; ffffffebH
  0017d	eb 73		 jmp	 SHORT $LN1@LoadAttack@3
$LN75@LoadAttack@3:
  0017f	88 5d f9	 mov	 BYTE PTR _szEncAttack$[ebp+21], bl
  00182	eb 6e		 jmp	 SHORT $LN1@LoadAttack@3
$LN76@LoadAttack@3:
  00184	c6 45 f8 ed	 mov	 BYTE PTR _szEncAttack$[ebp+20], -19 ; ffffffedH
  00188	eb 68		 jmp	 SHORT $LN1@LoadAttack@3
$LN77@LoadAttack@3:
  0018a	88 55 f7	 mov	 BYTE PTR _szEncAttack$[ebp+19], dl
  0018d	eb 63		 jmp	 SHORT $LN1@LoadAttack@3
$LN79@LoadAttack@3:
  0018f	88 5d f5	 mov	 BYTE PTR _szEncAttack$[ebp+17], bl
  00192	eb 5e		 jmp	 SHORT $LN1@LoadAttack@3
$LN80@LoadAttack@3:
  00194	c6 45 f4 ed	 mov	 BYTE PTR _szEncAttack$[ebp+16], -19 ; ffffffedH
  00198	eb 58		 jmp	 SHORT $LN1@LoadAttack@3
$LN81@LoadAttack@3:
  0019a	88 55 f3	 mov	 BYTE PTR _szEncAttack$[ebp+15], dl
  0019d	eb 53		 jmp	 SHORT $LN1@LoadAttack@3
$LN82@LoadAttack@3:
  0019f	c6 45 f2 eb	 mov	 BYTE PTR _szEncAttack$[ebp+14], -21 ; ffffffebH
  001a3	eb 4d		 jmp	 SHORT $LN1@LoadAttack@3
$LN83@LoadAttack@3:
  001a5	88 5d f1	 mov	 BYTE PTR _szEncAttack$[ebp+13], bl
  001a8	eb 48		 jmp	 SHORT $LN1@LoadAttack@3
$LN84@LoadAttack@3:
  001aa	c6 45 f0 ed	 mov	 BYTE PTR _szEncAttack$[ebp+12], -19 ; ffffffedH
  001ae	eb 42		 jmp	 SHORT $LN1@LoadAttack@3
$LN85@LoadAttack@3:
  001b0	88 55 ef	 mov	 BYTE PTR _szEncAttack$[ebp+11], dl
  001b3	eb 3d		 jmp	 SHORT $LN1@LoadAttack@3
$LN86@LoadAttack@3:
  001b5	c6 45 ee eb	 mov	 BYTE PTR _szEncAttack$[ebp+10], -21 ; ffffffebH
  001b9	eb 37		 jmp	 SHORT $LN1@LoadAttack@3
$LN87@LoadAttack@3:
  001bb	88 5d ed	 mov	 BYTE PTR _szEncAttack$[ebp+9], bl
  001be	eb 32		 jmp	 SHORT $LN1@LoadAttack@3
$LN88@LoadAttack@3:
  001c0	c6 45 ec ed	 mov	 BYTE PTR _szEncAttack$[ebp+8], -19 ; ffffffedH
  001c4	eb 2c		 jmp	 SHORT $LN1@LoadAttack@3
$LN89@LoadAttack@3:
  001c6	88 55 eb	 mov	 BYTE PTR _szEncAttack$[ebp+7], dl
  001c9	eb 27		 jmp	 SHORT $LN1@LoadAttack@3
$LN90@LoadAttack@3:
  001cb	c6 45 ea eb	 mov	 BYTE PTR _szEncAttack$[ebp+6], -21 ; ffffffebH
  001cf	eb 21		 jmp	 SHORT $LN1@LoadAttack@3
$LN91@LoadAttack@3:
  001d1	88 5d e9	 mov	 BYTE PTR _szEncAttack$[ebp+5], bl
  001d4	eb 1c		 jmp	 SHORT $LN1@LoadAttack@3
$LN92@LoadAttack@3:
  001d6	c6 45 e8 ed	 mov	 BYTE PTR _szEncAttack$[ebp+4], -19 ; ffffffedH
  001da	eb 16		 jmp	 SHORT $LN1@LoadAttack@3
$LN93@LoadAttack@3:
  001dc	c6 45 e7 ea	 mov	 BYTE PTR _szEncAttack$[ebp+3], -22 ; ffffffeaH
  001e0	eb 10		 jmp	 SHORT $LN1@LoadAttack@3
$LN94@LoadAttack@3:
  001e2	c6 45 e6 eb	 mov	 BYTE PTR _szEncAttack$[ebp+2], -21 ; ffffffebH
  001e6	eb 0a		 jmp	 SHORT $LN1@LoadAttack@3
$LN95@LoadAttack@3:
  001e8	c6 45 e5 ec	 mov	 BYTE PTR _szEncAttack$[ebp+1], -20 ; ffffffecH
  001ec	eb 04		 jmp	 SHORT $LN1@LoadAttack@3
$LN96@LoadAttack@3:
  001ee	c6 45 e4 ed	 mov	 BYTE PTR _szEncAttack$[ebp], -19 ; ffffffedH
$LN1@LoadAttack@3:
  001f2	6a 04		 push	 4
  001f4	8d 45 e4	 lea	 eax, DWORD PTR _szEncAttack$[ebp]
  001f7	c6 45 f6 00	 mov	 BYTE PTR _szEncAttack$[ebp+18], 0
  001fb	59		 pop	 ecx
$LL104@LoadAttack@3:
  001fc	81 30 ed ec eb
	ea		 xor	 DWORD PTR [eax], -353637139 ; eaebecedH
  00202	83 c0 04	 add	 eax, 4
  00205	49		 dec	 ecx
  00206	75 f4		 jne	 SHORT $LL104@LoadAttack@3
  00208	6a 10		 push	 16			; 00000010H
  0020a	58		 pop	 eax
$LL101@LoadAttack@3:
  0020b	8b c8		 mov	 ecx, eax
  0020d	81 e1 03 00 00
	80		 and	 ecx, -2147483645	; 80000003H
  00213	79 05		 jns	 SHORT $LN111@LoadAttack@3
  00215	49		 dec	 ecx
  00216	83 c9 fc	 or	 ecx, -4			; fffffffcH
  00219	41		 inc	 ecx
$LN111@LoadAttack@3:
  0021a	b2 ed		 mov	 dl, -19			; ffffffedH
  0021c	2a d1		 sub	 dl, cl
  0021e	30 54 05 e4	 xor	 BYTE PTR _szEncAttack$[ebp+eax], dl
  00222	40		 inc	 eax
  00223	83 f8 12	 cmp	 eax, 18			; 00000012H
  00226	7c e3		 jl	 SHORT $LL101@LoadAttack@3

; 133  : 	LoadAttackAttribute(szEncAttack, rkAttribute, rkLoader);

  00228	57		 push	 edi
  00229	8d 45 e4	 lea	 eax, DWORD PTR _szEncAttack$[ebp]
  0022c	56		 push	 esi
  0022d	50		 push	 eax
  0022e	e8 00 00 00 00	 call	 ?LoadAttackAttribute@@YAXPBDAAUAttackAttribute@@AAVioINILoader@@@Z ; LoadAttackAttribute

; 134  : }

  00233	8b 4d fc	 mov	 ecx, DWORD PTR __$ArrayPad$[ebp]
  00236	83 c4 0c	 add	 esp, 12			; 0000000cH
  00239	5f		 pop	 edi
  0023a	5e		 pop	 esi
  0023b	33 cd		 xor	 ecx, ebp
  0023d	5b		 pop	 ebx
  0023e	e8 00 00 00 00	 call	 @__security_check_cookie@4
  00243	c9		 leave
  00244	c3		 ret	 0
??$LoadAttackAttribute_e@$0BD@@@YAXAAY0BD@$$CBDAAUAttackAttribute@@AAVioINILoader@@@Z ENDP ; LoadAttackAttribute_e<19>
_TEXT	ENDS
PUBLIC	__$ArrayPad$
PUBLIC	??$LoadAttackAttribute_e@$0BB@@@YAXAAY0BB@$$CBDAAUAttackAttribute@@AAVioINILoader@@@Z ; LoadAttackAttribute_e<17>
; Function compile flags: /Ogsp
;	COMDAT ??$LoadAttackAttribute_e@$0BB@@@YAXAAY0BB@$$CBDAAUAttackAttribute@@AAVioINILoader@@@Z
_TEXT	SEGMENT
_szEncAttack$ = -28					; size = 17
__$ArrayPad$ = -4					; size = 4
_szAttack$ = 8						; size = 4
_rkAttribute$ = 12					; size = 4
_rkLoader$ = 16						; size = 4
??$LoadAttackAttribute_e@$0BB@@@YAXAAY0BB@$$CBDAAUAttackAttribute@@AAVioINILoader@@@Z PROC ; LoadAttackAttribute_e<17>, COMDAT

; 131  : {

  00000	55		 push	 ebp
  00001	8b ec		 mov	 ebp, esp
  00003	83 ec 1c	 sub	 esp, 28			; 0000001cH
  00006	a1 00 00 00 00	 mov	 eax, DWORD PTR ___security_cookie
  0000b	33 c5		 xor	 eax, ebp
  0000d	89 45 fc	 mov	 DWORD PTR __$ArrayPad$[ebp], eax
  00010	8b 45 08	 mov	 eax, DWORD PTR _szAttack$[ebp]

; 132  : 	_ENCSTR(szAttack, szEncAttack);

  00013	8a 08		 mov	 cl, BYTE PTR [eax]
  00015	56		 push	 esi
  00016	8b 75 0c	 mov	 esi, DWORD PTR _rkAttribute$[ebp]
  00019	57		 push	 edi
  0001a	8b 7d 10	 mov	 edi, DWORD PTR _rkLoader$[ebp]
  0001d	84 c9		 test	 cl, cl
  0001f	0f 84 a3 01 00
	00		 je	 $LN96@LoadAttack@4
  00025	80 f1 ed	 xor	 cl, -19			; ffffffedH
  00028	88 4d e4	 mov	 BYTE PTR _szEncAttack$[ebp], cl
  0002b	8a 48 01	 mov	 cl, BYTE PTR [eax+1]
  0002e	84 c9		 test	 cl, cl
  00030	0f 84 8c 01 00
	00		 je	 $LN95@LoadAttack@4
  00036	80 f1 ec	 xor	 cl, -20			; ffffffecH
  00039	88 4d e5	 mov	 BYTE PTR _szEncAttack$[ebp+1], cl
  0003c	8a 48 02	 mov	 cl, BYTE PTR [eax+2]
  0003f	84 c9		 test	 cl, cl
  00041	0f 84 75 01 00
	00		 je	 $LN94@LoadAttack@4
  00047	b2 eb		 mov	 dl, -21			; ffffffebH
  00049	32 ca		 xor	 cl, dl
  0004b	88 4d e6	 mov	 BYTE PTR _szEncAttack$[ebp+2], cl
  0004e	8a 48 03	 mov	 cl, BYTE PTR [eax+3]
  00051	84 c9		 test	 cl, cl
  00053	0f 84 5d 01 00
	00		 je	 $LN93@LoadAttack@4
  00059	80 f1 ea	 xor	 cl, -22			; ffffffeaH
  0005c	88 4d e7	 mov	 BYTE PTR _szEncAttack$[ebp+3], cl
  0005f	8a 48 04	 mov	 cl, BYTE PTR [eax+4]
  00062	84 c9		 test	 cl, cl
  00064	0f 84 46 01 00
	00		 je	 $LN92@LoadAttack@4
  0006a	80 f1 ed	 xor	 cl, -19			; ffffffedH
  0006d	88 4d e8	 mov	 BYTE PTR _szEncAttack$[ebp+4], cl
  00070	8a 48 05	 mov	 cl, BYTE PTR [eax+5]
  00073	84 c9		 test	 cl, cl
  00075	0f 84 2f 01 00
	00		 je	 $LN91@LoadAttack@4
  0007b	80 f1 ec	 xor	 cl, -20			; ffffffecH
  0007e	88 4d e9	 mov	 BYTE PTR _szEncAttack$[ebp+5], cl
  00081	8a 48 06	 mov	 cl, BYTE PTR [eax+6]
  00084	84 c9		 test	 cl, cl
  00086	0f 84 19 01 00
	00		 je	 $LN90@LoadAttack@4
  0008c	32 ca		 xor	 cl, dl
  0008e	88 4d ea	 mov	 BYTE PTR _szEncAttack$[ebp+6], cl
  00091	8a 48 07	 mov	 cl, BYTE PTR [eax+7]
  00094	84 c9		 test	 cl, cl
  00096	0f 84 03 01 00
	00		 je	 $LN89@LoadAttack@4
  0009c	80 f1 ea	 xor	 cl, -22			; ffffffeaH
  0009f	88 4d eb	 mov	 BYTE PTR _szEncAttack$[ebp+7], cl
  000a2	8a 48 08	 mov	 cl, BYTE PTR [eax+8]
  000a5	84 c9		 test	 cl, cl
  000a7	0f 84 ec 00 00
	00		 je	 $LN88@LoadAttack@4
  000ad	80 f1 ed	 xor	 cl, -19			; ffffffedH
  000b0	88 4d ec	 mov	 BYTE PTR _szEncAttack$[ebp+8], cl
  000b3	8a 48 09	 mov	 cl, BYTE PTR [eax+9]
  000b6	84 c9		 test	 cl, cl
  000b8	0f 84 d5 00 00
	00		 je	 $LN87@LoadAttack@4
  000be	80 f1 ec	 xor	 cl, -20			; ffffffecH
  000c1	88 4d ed	 mov	 BYTE PTR _szEncAttack$[ebp+9], cl
  000c4	8a 48 0a	 mov	 cl, BYTE PTR [eax+10]
  000c7	84 c9		 test	 cl, cl
  000c9	0f 84 bf 00 00
	00		 je	 $LN86@LoadAttack@4
  000cf	32 ca		 xor	 cl, dl
  000d1	88 4d ee	 mov	 BYTE PTR _szEncAttack$[ebp+10], cl
  000d4	8a 48 0b	 mov	 cl, BYTE PTR [eax+11]
  000d7	84 c9		 test	 cl, cl
  000d9	0f 84 a9 00 00
	00		 je	 $LN85@LoadAttack@4
  000df	80 f1 ea	 xor	 cl, -22			; ffffffeaH
  000e2	88 4d ef	 mov	 BYTE PTR _szEncAttack$[ebp+11], cl
  000e5	8a 48 0c	 mov	 cl, BYTE PTR [eax+12]
  000e8	84 c9		 test	 cl, cl
  000ea	0f 84 92 00 00
	00		 je	 $LN84@LoadAttack@4
  000f0	80 f1 ed	 xor	 cl, -19			; ffffffedH
  000f3	88 4d f0	 mov	 BYTE PTR _szEncAttack$[ebp+12], cl
  000f6	8a 48 0d	 mov	 cl, BYTE PTR [eax+13]
  000f9	84 c9		 test	 cl, cl
  000fb	74 7f		 je	 SHORT $LN83@LoadAttack@4
  000fd	80 f1 ec	 xor	 cl, -20			; ffffffecH
  00100	88 4d f1	 mov	 BYTE PTR _szEncAttack$[ebp+13], cl
  00103	8a 48 0e	 mov	 cl, BYTE PTR [eax+14]
  00106	84 c9		 test	 cl, cl
  00108	74 6d		 je	 SHORT $LN82@LoadAttack@4
  0010a	32 ca		 xor	 cl, dl
  0010c	88 4d f2	 mov	 BYTE PTR _szEncAttack$[ebp+14], cl
  0010f	8a 48 0f	 mov	 cl, BYTE PTR [eax+15]
  00112	84 c9		 test	 cl, cl
  00114	74 5b		 je	 SHORT $LN81@LoadAttack@4
  00116	80 f1 ea	 xor	 cl, -22			; ffffffeaH
  00119	80 78 10 00	 cmp	 BYTE PTR [eax+16], 0
  0011d	88 4d f3	 mov	 BYTE PTR _szEncAttack$[ebp+15], cl
  00120	0f 84 a6 00 00
	00		 je	 $LN1@LoadAttack@4
  00126	8a 48 11	 mov	 cl, BYTE PTR [eax+17]
  00129	84 c9		 test	 cl, cl
  0012b	74 3e		 je	 SHORT $LN79@LoadAttack@4
  0012d	80 f1 ec	 xor	 cl, -20			; ffffffecH
  00130	88 4d f5	 mov	 BYTE PTR _szEncAttack$[ebp+17], cl
  00133	8a 48 12	 mov	 cl, BYTE PTR [eax+18]
  00136	84 c9		 test	 cl, cl
  00138	74 2c		 je	 SHORT $LN78@LoadAttack@4
  0013a	32 ca		 xor	 cl, dl
  0013c	88 4d f6	 mov	 BYTE PTR _szEncAttack$[ebp+18], cl
  0013f	8a 48 13	 mov	 cl, BYTE PTR [eax+19]
  00142	84 c9		 test	 cl, cl
  00144	74 1a		 je	 SHORT $LN77@LoadAttack@4
  00146	8a 40 14	 mov	 al, BYTE PTR [eax+20]
  00149	80 f1 ea	 xor	 cl, -22			; ffffffeaH
  0014c	88 4d f7	 mov	 BYTE PTR _szEncAttack$[ebp+19], cl
  0014f	84 c0		 test	 al, al
  00151	74 07		 je	 SHORT $LN76@LoadAttack@4
  00153	34 ed		 xor	 al, -19			; ffffffedH
  00155	88 45 f8	 mov	 BYTE PTR _szEncAttack$[ebp+20], al
  00158	eb 72		 jmp	 SHORT $LN1@LoadAttack@4
$LN76@LoadAttack@4:
  0015a	c6 45 f8 ed	 mov	 BYTE PTR _szEncAttack$[ebp+20], -19 ; ffffffedH
  0015e	eb 6c		 jmp	 SHORT $LN1@LoadAttack@4
$LN77@LoadAttack@4:
  00160	c6 45 f7 ea	 mov	 BYTE PTR _szEncAttack$[ebp+19], -22 ; ffffffeaH
  00164	eb 66		 jmp	 SHORT $LN1@LoadAttack@4
$LN78@LoadAttack@4:
  00166	88 55 f6	 mov	 BYTE PTR _szEncAttack$[ebp+18], dl
  00169	eb 61		 jmp	 SHORT $LN1@LoadAttack@4
$LN79@LoadAttack@4:
  0016b	c6 45 f5 ec	 mov	 BYTE PTR _szEncAttack$[ebp+17], -20 ; ffffffecH
  0016f	eb 5b		 jmp	 SHORT $LN1@LoadAttack@4
$LN81@LoadAttack@4:
  00171	c6 45 f3 ea	 mov	 BYTE PTR _szEncAttack$[ebp+15], -22 ; ffffffeaH
  00175	eb 55		 jmp	 SHORT $LN1@LoadAttack@4
$LN82@LoadAttack@4:
  00177	88 55 f2	 mov	 BYTE PTR _szEncAttack$[ebp+14], dl
  0017a	eb 50		 jmp	 SHORT $LN1@LoadAttack@4
$LN83@LoadAttack@4:
  0017c	c6 45 f1 ec	 mov	 BYTE PTR _szEncAttack$[ebp+13], -20 ; ffffffecH
  00180	eb 4a		 jmp	 SHORT $LN1@LoadAttack@4
$LN84@LoadAttack@4:
  00182	c6 45 f0 ed	 mov	 BYTE PTR _szEncAttack$[ebp+12], -19 ; ffffffedH
  00186	eb 44		 jmp	 SHORT $LN1@LoadAttack@4
$LN85@LoadAttack@4:
  00188	c6 45 ef ea	 mov	 BYTE PTR _szEncAttack$[ebp+11], -22 ; ffffffeaH
  0018c	eb 3e		 jmp	 SHORT $LN1@LoadAttack@4
$LN86@LoadAttack@4:
  0018e	88 55 ee	 mov	 BYTE PTR _szEncAttack$[ebp+10], dl
  00191	eb 39		 jmp	 SHORT $LN1@LoadAttack@4
$LN87@LoadAttack@4:
  00193	c6 45 ed ec	 mov	 BYTE PTR _szEncAttack$[ebp+9], -20 ; ffffffecH
  00197	eb 33		 jmp	 SHORT $LN1@LoadAttack@4
$LN88@LoadAttack@4:
  00199	c6 45 ec ed	 mov	 BYTE PTR _szEncAttack$[ebp+8], -19 ; ffffffedH
  0019d	eb 2d		 jmp	 SHORT $LN1@LoadAttack@4
$LN89@LoadAttack@4:
  0019f	c6 45 eb ea	 mov	 BYTE PTR _szEncAttack$[ebp+7], -22 ; ffffffeaH
  001a3	eb 27		 jmp	 SHORT $LN1@LoadAttack@4
$LN90@LoadAttack@4:
  001a5	88 55 ea	 mov	 BYTE PTR _szEncAttack$[ebp+6], dl
  001a8	eb 22		 jmp	 SHORT $LN1@LoadAttack@4
$LN91@LoadAttack@4:
  001aa	c6 45 e9 ec	 mov	 BYTE PTR _szEncAttack$[ebp+5], -20 ; ffffffecH
  001ae	eb 1c		 jmp	 SHORT $LN1@LoadAttack@4
$LN92@LoadAttack@4:
  001b0	c6 45 e8 ed	 mov	 BYTE PTR _szEncAttack$[ebp+4], -19 ; ffffffedH
  001b4	eb 16		 jmp	 SHORT $LN1@LoadAttack@4
$LN93@LoadAttack@4:
  001b6	c6 45 e7 ea	 mov	 BYTE PTR _szEncAttack$[ebp+3], -22 ; ffffffeaH
  001ba	eb 10		 jmp	 SHORT $LN1@LoadAttack@4
$LN94@LoadAttack@4:
  001bc	c6 45 e6 eb	 mov	 BYTE PTR _szEncAttack$[ebp+2], -21 ; ffffffebH
  001c0	eb 0a		 jmp	 SHORT $LN1@LoadAttack@4
$LN95@LoadAttack@4:
  001c2	c6 45 e5 ec	 mov	 BYTE PTR _szEncAttack$[ebp+1], -20 ; ffffffecH
  001c6	eb 04		 jmp	 SHORT $LN1@LoadAttack@4
$LN96@LoadAttack@4:
  001c8	c6 45 e4 ed	 mov	 BYTE PTR _szEncAttack$[ebp], -19 ; ffffffedH
$LN1@LoadAttack@4:
  001cc	6a 04		 push	 4
  001ce	8d 45 e4	 lea	 eax, DWORD PTR _szEncAttack$[ebp]
  001d1	c6 45 f4 00	 mov	 BYTE PTR _szEncAttack$[ebp+16], 0
  001d5	59		 pop	 ecx
$LL104@LoadAttack@4:
  001d6	81 30 ed ec eb
	ea		 xor	 DWORD PTR [eax], -353637139 ; eaebecedH
  001dc	83 c0 04	 add	 eax, 4
  001df	49		 dec	 ecx
  001e0	75 f4		 jne	 SHORT $LL104@LoadAttack@4

; 133  : 	LoadAttackAttribute(szEncAttack, rkAttribute, rkLoader);

  001e2	57		 push	 edi
  001e3	8d 45 e4	 lea	 eax, DWORD PTR _szEncAttack$[ebp]
  001e6	56		 push	 esi
  001e7	50		 push	 eax
  001e8	e8 00 00 00 00	 call	 ?LoadAttackAttribute@@YAXPBDAAUAttackAttribute@@AAVioINILoader@@@Z ; LoadAttackAttribute

; 134  : }

  001ed	8b 4d fc	 mov	 ecx, DWORD PTR __$ArrayPad$[ebp]
  001f0	83 c4 0c	 add	 esp, 12			; 0000000cH
  001f3	5f		 pop	 edi
  001f4	33 cd		 xor	 ecx, ebp
  001f6	5e		 pop	 esi
  001f7	e8 00 00 00 00	 call	 @__security_check_cookie@4
  001fc	c9		 leave
  001fd	c3		 ret	 0
??$LoadAttackAttribute_e@$0BB@@@YAXAAY0BB@$$CBDAAUAttackAttribute@@AAVioINILoader@@@Z ENDP ; LoadAttackAttribute_e<17>
_TEXT	ENDS
PUBLIC	__$ArrayPad$
PUBLIC	??$LoadAttackAttribute_e@$0BI@@@YAXAAY0BI@$$CBDAAUAttackAttribute@@AAVioINILoader@@@Z ; LoadAttackAttribute_e<24>
; Function compile flags: /Ogsp
;	COMDAT ??$LoadAttackAttribute_e@$0BI@@@YAXAAY0BI@$$CBDAAUAttackAttribute@@AAVioINILoader@@@Z
_TEXT	SEGMENT
_szEncAttack$ = -32					; size = 24
__$ArrayPad$ = -4					; size = 4
_szAttack$ = 8						; size = 4
_rkAttribute$ = 12					; size = 4
_rkLoader$ = 16						; size = 4
??$LoadAttackAttribute_e@$0BI@@@YAXAAY0BI@$$CBDAAUAttackAttribute@@AAVioINILoader@@@Z PROC ; LoadAttackAttribute_e<24>, COMDAT

; 131  : {

  00000	55		 push	 ebp
  00001	8b ec		 mov	 ebp, esp
  00003	83 ec 20	 sub	 esp, 32			; 00000020H
  00006	a1 00 00 00 00	 mov	 eax, DWORD PTR ___security_cookie
  0000b	33 c5		 xor	 eax, ebp
  0000d	89 45 fc	 mov	 DWORD PTR __$ArrayPad$[ebp], eax
  00010	8b 45 08	 mov	 eax, DWORD PTR _szAttack$[ebp]

; 132  : 	_ENCSTR(szAttack, szEncAttack);

  00013	8a 08		 mov	 cl, BYTE PTR [eax]
  00015	53		 push	 ebx
  00016	56		 push	 esi
  00017	8b 75 0c	 mov	 esi, DWORD PTR _rkAttribute$[ebp]
  0001a	57		 push	 edi
  0001b	8b 7d 10	 mov	 edi, DWORD PTR _rkLoader$[ebp]
  0001e	84 c9		 test	 cl, cl
  00020	0f 84 45 02 00
	00		 je	 $LN96@LoadAttack@5
  00026	80 f1 ed	 xor	 cl, -19			; ffffffedH
  00029	88 4d e0	 mov	 BYTE PTR _szEncAttack$[ebp], cl
  0002c	8a 48 01	 mov	 cl, BYTE PTR [eax+1]
  0002f	84 c9		 test	 cl, cl
  00031	0f 84 2e 02 00
	00		 je	 $LN95@LoadAttack@5
  00037	b2 ec		 mov	 dl, -20			; ffffffecH
  00039	32 ca		 xor	 cl, dl
  0003b	88 4d e1	 mov	 BYTE PTR _szEncAttack$[ebp+1], cl
  0003e	8a 48 02	 mov	 cl, BYTE PTR [eax+2]
  00041	84 c9		 test	 cl, cl
  00043	0f 84 16 02 00
	00		 je	 $LN94@LoadAttack@5
  00049	b3 eb		 mov	 bl, -21			; ffffffebH
  0004b	32 cb		 xor	 cl, bl
  0004d	88 4d e2	 mov	 BYTE PTR _szEncAttack$[ebp+2], cl
  00050	8a 48 03	 mov	 cl, BYTE PTR [eax+3]
  00053	84 c9		 test	 cl, cl
  00055	0f 84 fe 01 00
	00		 je	 $LN93@LoadAttack@5
  0005b	80 f1 ea	 xor	 cl, -22			; ffffffeaH
  0005e	88 4d e3	 mov	 BYTE PTR _szEncAttack$[ebp+3], cl
  00061	8a 48 04	 mov	 cl, BYTE PTR [eax+4]
  00064	84 c9		 test	 cl, cl
  00066	0f 84 e7 01 00
	00		 je	 $LN92@LoadAttack@5
  0006c	80 f1 ed	 xor	 cl, -19			; ffffffedH
  0006f	88 4d e4	 mov	 BYTE PTR _szEncAttack$[ebp+4], cl
  00072	8a 48 05	 mov	 cl, BYTE PTR [eax+5]
  00075	84 c9		 test	 cl, cl
  00077	0f 84 d1 01 00
	00		 je	 $LN91@LoadAttack@5
  0007d	32 ca		 xor	 cl, dl
  0007f	88 4d e5	 mov	 BYTE PTR _szEncAttack$[ebp+5], cl
  00082	8a 48 06	 mov	 cl, BYTE PTR [eax+6]
  00085	84 c9		 test	 cl, cl
  00087	0f 84 bc 01 00
	00		 je	 $LN90@LoadAttack@5
  0008d	32 cb		 xor	 cl, bl
  0008f	88 4d e6	 mov	 BYTE PTR _szEncAttack$[ebp+6], cl
  00092	8a 48 07	 mov	 cl, BYTE PTR [eax+7]
  00095	84 c9		 test	 cl, cl
  00097	0f 84 a6 01 00
	00		 je	 $LN89@LoadAttack@5
  0009d	80 f1 ea	 xor	 cl, -22			; ffffffeaH
  000a0	88 4d e7	 mov	 BYTE PTR _szEncAttack$[ebp+7], cl
  000a3	8a 48 08	 mov	 cl, BYTE PTR [eax+8]
  000a6	84 c9		 test	 cl, cl
  000a8	0f 84 8f 01 00
	00		 je	 $LN88@LoadAttack@5
  000ae	80 f1 ed	 xor	 cl, -19			; ffffffedH
  000b1	88 4d e8	 mov	 BYTE PTR _szEncAttack$[ebp+8], cl
  000b4	8a 48 09	 mov	 cl, BYTE PTR [eax+9]
  000b7	84 c9		 test	 cl, cl
  000b9	0f 84 79 01 00
	00		 je	 $LN87@LoadAttack@5
  000bf	32 ca		 xor	 cl, dl
  000c1	88 4d e9	 mov	 BYTE PTR _szEncAttack$[ebp+9], cl
  000c4	8a 48 0a	 mov	 cl, BYTE PTR [eax+10]
  000c7	84 c9		 test	 cl, cl
  000c9	0f 84 64 01 00
	00		 je	 $LN86@LoadAttack@5
  000cf	32 cb		 xor	 cl, bl
  000d1	88 4d ea	 mov	 BYTE PTR _szEncAttack$[ebp+10], cl
  000d4	8a 48 0b	 mov	 cl, BYTE PTR [eax+11]
  000d7	84 c9		 test	 cl, cl
  000d9	0f 84 4e 01 00
	00		 je	 $LN85@LoadAttack@5
  000df	80 f1 ea	 xor	 cl, -22			; ffffffeaH
  000e2	88 4d eb	 mov	 BYTE PTR _szEncAttack$[ebp+11], cl
  000e5	8a 48 0c	 mov	 cl, BYTE PTR [eax+12]
  000e8	84 c9		 test	 cl, cl
  000ea	0f 84 37 01 00
	00		 je	 $LN84@LoadAttack@5
  000f0	80 f1 ed	 xor	 cl, -19			; ffffffedH
  000f3	88 4d ec	 mov	 BYTE PTR _szEncAttack$[ebp+12], cl
  000f6	8a 48 0d	 mov	 cl, BYTE PTR [eax+13]
  000f9	84 c9		 test	 cl, cl
  000fb	0f 84 21 01 00
	00		 je	 $LN83@LoadAttack@5
  00101	32 ca		 xor	 cl, dl
  00103	88 4d ed	 mov	 BYTE PTR _szEncAttack$[ebp+13], cl
  00106	8a 48 0e	 mov	 cl, BYTE PTR [eax+14]
  00109	84 c9		 test	 cl, cl
  0010b	0f 84 0c 01 00
	00		 je	 $LN82@LoadAttack@5
  00111	32 cb		 xor	 cl, bl
  00113	88 4d ee	 mov	 BYTE PTR _szEncAttack$[ebp+14], cl
  00116	8a 48 0f	 mov	 cl, BYTE PTR [eax+15]
  00119	84 c9		 test	 cl, cl
  0011b	0f 84 f6 00 00
	00		 je	 $LN81@LoadAttack@5
  00121	80 f1 ea	 xor	 cl, -22			; ffffffeaH
  00124	88 4d ef	 mov	 BYTE PTR _szEncAttack$[ebp+15], cl
  00127	8a 48 10	 mov	 cl, BYTE PTR [eax+16]
  0012a	84 c9		 test	 cl, cl
  0012c	0f 84 df 00 00
	00		 je	 $LN80@LoadAttack@5
  00132	80 f1 ed	 xor	 cl, -19			; ffffffedH
  00135	88 4d f0	 mov	 BYTE PTR _szEncAttack$[ebp+16], cl
  00138	8a 48 11	 mov	 cl, BYTE PTR [eax+17]
  0013b	84 c9		 test	 cl, cl
  0013d	0f 84 c9 00 00
	00		 je	 $LN79@LoadAttack@5
  00143	32 ca		 xor	 cl, dl
  00145	88 4d f1	 mov	 BYTE PTR _szEncAttack$[ebp+17], cl
  00148	8a 48 12	 mov	 cl, BYTE PTR [eax+18]
  0014b	84 c9		 test	 cl, cl
  0014d	0f 84 b4 00 00
	00		 je	 $LN78@LoadAttack@5
  00153	32 cb		 xor	 cl, bl
  00155	88 4d f2	 mov	 BYTE PTR _szEncAttack$[ebp+18], cl
  00158	8a 48 13	 mov	 cl, BYTE PTR [eax+19]
  0015b	84 c9		 test	 cl, cl
  0015d	0f 84 9e 00 00
	00		 je	 $LN77@LoadAttack@5
  00163	80 f1 ea	 xor	 cl, -22			; ffffffeaH
  00166	88 4d f3	 mov	 BYTE PTR _szEncAttack$[ebp+19], cl
  00169	8a 48 14	 mov	 cl, BYTE PTR [eax+20]
  0016c	84 c9		 test	 cl, cl
  0016e	0f 84 87 00 00
	00		 je	 $LN76@LoadAttack@5
  00174	80 f1 ed	 xor	 cl, -19			; ffffffedH
  00177	88 4d f4	 mov	 BYTE PTR _szEncAttack$[ebp+20], cl
  0017a	8a 48 15	 mov	 cl, BYTE PTR [eax+21]
  0017d	84 c9		 test	 cl, cl
  0017f	74 75		 je	 SHORT $LN75@LoadAttack@5
  00181	32 ca		 xor	 cl, dl
  00183	88 4d f5	 mov	 BYTE PTR _szEncAttack$[ebp+21], cl
  00186	8a 48 16	 mov	 cl, BYTE PTR [eax+22]
  00189	84 c9		 test	 cl, cl
  0018b	74 64		 je	 SHORT $LN74@LoadAttack@5
  0018d	32 cb		 xor	 cl, bl
  0018f	80 78 17 00	 cmp	 BYTE PTR [eax+23], 0
  00193	88 4d f6	 mov	 BYTE PTR _szEncAttack$[ebp+22], cl
  00196	0f 84 d3 00 00
	00		 je	 $LN1@LoadAttack@5
  0019c	8a 48 18	 mov	 cl, BYTE PTR [eax+24]
  0019f	84 c9		 test	 cl, cl
  001a1	74 48		 je	 SHORT $LN72@LoadAttack@5
  001a3	80 f1 ed	 xor	 cl, -19			; ffffffedH
  001a6	88 4d f8	 mov	 BYTE PTR _szEncAttack$[ebp+24], cl
  001a9	8a 48 19	 mov	 cl, BYTE PTR [eax+25]
  001ac	84 c9		 test	 cl, cl
  001ae	74 33		 je	 SHORT $LN71@LoadAttack@5
  001b0	32 ca		 xor	 cl, dl
  001b2	88 4d f9	 mov	 BYTE PTR _szEncAttack$[ebp+25], cl
  001b5	8a 48 1a	 mov	 cl, BYTE PTR [eax+26]
  001b8	84 c9		 test	 cl, cl
  001ba	74 1f		 je	 SHORT $LN70@LoadAttack@5
  001bc	8a 40 1b	 mov	 al, BYTE PTR [eax+27]
  001bf	32 cb		 xor	 cl, bl
  001c1	88 4d fa	 mov	 BYTE PTR _szEncAttack$[ebp+26], cl
  001c4	84 c0		 test	 al, al
  001c6	74 0a		 je	 SHORT $LN69@LoadAttack@5
  001c8	34 ea		 xor	 al, -22			; ffffffeaH
  001ca	88 45 fb	 mov	 BYTE PTR _szEncAttack$[ebp+27], al
  001cd	e9 9d 00 00 00	 jmp	 $LN1@LoadAttack@5
$LN69@LoadAttack@5:
  001d2	c6 45 fb ea	 mov	 BYTE PTR _szEncAttack$[ebp+27], -22 ; ffffffeaH
  001d6	e9 94 00 00 00	 jmp	 $LN1@LoadAttack@5
$LN70@LoadAttack@5:
  001db	88 5d fa	 mov	 BYTE PTR _szEncAttack$[ebp+26], bl
  001de	e9 8c 00 00 00	 jmp	 $LN1@LoadAttack@5
$LN71@LoadAttack@5:
  001e3	88 55 f9	 mov	 BYTE PTR _szEncAttack$[ebp+25], dl
  001e6	e9 84 00 00 00	 jmp	 $LN1@LoadAttack@5
$LN72@LoadAttack@5:
  001eb	c6 45 f8 ed	 mov	 BYTE PTR _szEncAttack$[ebp+24], -19 ; ffffffedH
  001ef	eb 7e		 jmp	 SHORT $LN1@LoadAttack@5
$LN74@LoadAttack@5:
  001f1	88 5d f6	 mov	 BYTE PTR _szEncAttack$[ebp+22], bl
  001f4	eb 79		 jmp	 SHORT $LN1@LoadAttack@5
$LN75@LoadAttack@5:
  001f6	88 55 f5	 mov	 BYTE PTR _szEncAttack$[ebp+21], dl
  001f9	eb 74		 jmp	 SHORT $LN1@LoadAttack@5
$LN76@LoadAttack@5:
  001fb	c6 45 f4 ed	 mov	 BYTE PTR _szEncAttack$[ebp+20], -19 ; ffffffedH
  001ff	eb 6e		 jmp	 SHORT $LN1@LoadAttack@5
$LN77@LoadAttack@5:
  00201	c6 45 f3 ea	 mov	 BYTE PTR _szEncAttack$[ebp+19], -22 ; ffffffeaH
  00205	eb 68		 jmp	 SHORT $LN1@LoadAttack@5
$LN78@LoadAttack@5:
  00207	88 5d f2	 mov	 BYTE PTR _szEncAttack$[ebp+18], bl
  0020a	eb 63		 jmp	 SHORT $LN1@LoadAttack@5
$LN79@LoadAttack@5:
  0020c	88 55 f1	 mov	 BYTE PTR _szEncAttack$[ebp+17], dl
  0020f	eb 5e		 jmp	 SHORT $LN1@LoadAttack@5
$LN80@LoadAttack@5:
  00211	c6 45 f0 ed	 mov	 BYTE PTR _szEncAttack$[ebp+16], -19 ; ffffffedH
  00215	eb 58		 jmp	 SHORT $LN1@LoadAttack@5
$LN81@LoadAttack@5:
  00217	c6 45 ef ea	 mov	 BYTE PTR _szEncAttack$[ebp+15], -22 ; ffffffeaH
  0021b	eb 52		 jmp	 SHORT $LN1@LoadAttack@5
$LN82@LoadAttack@5:
  0021d	88 5d ee	 mov	 BYTE PTR _szEncAttack$[ebp+14], bl
  00220	eb 4d		 jmp	 SHORT $LN1@LoadAttack@5
$LN83@LoadAttack@5:
  00222	88 55 ed	 mov	 BYTE PTR _szEncAttack$[ebp+13], dl
  00225	eb 48		 jmp	 SHORT $LN1@LoadAttack@5
$LN84@LoadAttack@5:
  00227	c6 45 ec ed	 mov	 BYTE PTR _szEncAttack$[ebp+12], -19 ; ffffffedH
  0022b	eb 42		 jmp	 SHORT $LN1@LoadAttack@5
$LN85@LoadAttack@5:
  0022d	c6 45 eb ea	 mov	 BYTE PTR _szEncAttack$[ebp+11], -22 ; ffffffeaH
  00231	eb 3c		 jmp	 SHORT $LN1@LoadAttack@5
$LN86@LoadAttack@5:
  00233	88 5d ea	 mov	 BYTE PTR _szEncAttack$[ebp+10], bl
  00236	eb 37		 jmp	 SHORT $LN1@LoadAttack@5
$LN87@LoadAttack@5:
  00238	88 55 e9	 mov	 BYTE PTR _szEncAttack$[ebp+9], dl
  0023b	eb 32		 jmp	 SHORT $LN1@LoadAttack@5
$LN88@LoadAttack@5:
  0023d	c6 45 e8 ed	 mov	 BYTE PTR _szEncAttack$[ebp+8], -19 ; ffffffedH
  00241	eb 2c		 jmp	 SHORT $LN1@LoadAttack@5
$LN89@LoadAttack@5:
  00243	c6 45 e7 ea	 mov	 BYTE PTR _szEncAttack$[ebp+7], -22 ; ffffffeaH
  00247	eb 26		 jmp	 SHORT $LN1@LoadAttack@5
$LN90@LoadAttack@5:
  00249	88 5d e6	 mov	 BYTE PTR _szEncAttack$[ebp+6], bl
  0024c	eb 21		 jmp	 SHORT $LN1@LoadAttack@5
$LN91@LoadAttack@5:
  0024e	88 55 e5	 mov	 BYTE PTR _szEncAttack$[ebp+5], dl
  00251	eb 1c		 jmp	 SHORT $LN1@LoadAttack@5
$LN92@LoadAttack@5:
  00253	c6 45 e4 ed	 mov	 BYTE PTR _szEncAttack$[ebp+4], -19 ; ffffffedH
  00257	eb 16		 jmp	 SHORT $LN1@LoadAttack@5
$LN93@LoadAttack@5:
  00259	c6 45 e3 ea	 mov	 BYTE PTR _szEncAttack$[ebp+3], -22 ; ffffffeaH
  0025d	eb 10		 jmp	 SHORT $LN1@LoadAttack@5
$LN94@LoadAttack@5:
  0025f	c6 45 e2 eb	 mov	 BYTE PTR _szEncAttack$[ebp+2], -21 ; ffffffebH
  00263	eb 0a		 jmp	 SHORT $LN1@LoadAttack@5
$LN95@LoadAttack@5:
  00265	c6 45 e1 ec	 mov	 BYTE PTR _szEncAttack$[ebp+1], -20 ; ffffffecH
  00269	eb 04		 jmp	 SHORT $LN1@LoadAttack@5
$LN96@LoadAttack@5:
  0026b	c6 45 e0 ed	 mov	 BYTE PTR _szEncAttack$[ebp], -19 ; ffffffedH
$LN1@LoadAttack@5:
  0026f	6a 05		 push	 5
  00271	8d 45 e0	 lea	 eax, DWORD PTR _szEncAttack$[ebp]
  00274	c6 45 f7 00	 mov	 BYTE PTR _szEncAttack$[ebp+23], 0
  00278	59		 pop	 ecx
$LL104@LoadAttack@5:
  00279	81 30 ed ec eb
	ea		 xor	 DWORD PTR [eax], -353637139 ; eaebecedH
  0027f	83 c0 04	 add	 eax, 4
  00282	49		 dec	 ecx
  00283	75 f4		 jne	 SHORT $LL104@LoadAttack@5
  00285	6a 14		 push	 20			; 00000014H
  00287	58		 pop	 eax
$LL101@LoadAttack@5:
  00288	8b c8		 mov	 ecx, eax
  0028a	81 e1 03 00 00
	80		 and	 ecx, -2147483645	; 80000003H
  00290	79 05		 jns	 SHORT $LN111@LoadAttack@5
  00292	49		 dec	 ecx
  00293	83 c9 fc	 or	 ecx, -4			; fffffffcH
  00296	41		 inc	 ecx
$LN111@LoadAttack@5:
  00297	b2 ed		 mov	 dl, -19			; ffffffedH
  00299	2a d1		 sub	 dl, cl
  0029b	30 54 05 e0	 xor	 BYTE PTR _szEncAttack$[ebp+eax], dl
  0029f	40		 inc	 eax
  002a0	83 f8 17	 cmp	 eax, 23			; 00000017H
  002a3	7c e3		 jl	 SHORT $LL101@LoadAttack@5

; 133  : 	LoadAttackAttribute(szEncAttack, rkAttribute, rkLoader);

  002a5	57		 push	 edi
  002a6	8d 45 e0	 lea	 eax, DWORD PTR _szEncAttack$[ebp]
  002a9	56		 push	 esi
  002aa	50		 push	 eax
  002ab	e8 00 00 00 00	 call	 ?LoadAttackAttribute@@YAXPBDAAUAttackAttribute@@AAVioINILoader@@@Z ; LoadAttackAttribute

; 134  : }

  002b0	8b 4d fc	 mov	 ecx, DWORD PTR __$ArrayPad$[ebp]
  002b3	83 c4 0c	 add	 esp, 12			; 0000000cH
  002b6	5f		 pop	 edi
  002b7	5e		 pop	 esi
  002b8	33 cd		 xor	 ecx, ebp
  002ba	5b		 pop	 ebx
  002bb	e8 00 00 00 00	 call	 @__security_check_cookie@4
  002c0	c9		 leave
  002c1	c3		 ret	 0
??$LoadAttackAttribute_e@$0BI@@@YAXAAY0BI@$$CBDAAUAttackAttribute@@AAVioINILoader@@@Z ENDP ; LoadAttackAttribute_e<24>
_TEXT	ENDS
PUBLIC	__$ArrayPad$
PUBLIC	??$LoadInt_e@$0P@@ioINILoader@@QAEHAAY0P@$$CBDH@Z ; ioINILoader::LoadInt_e<15>
; Function compile flags: /Ogsp
; File d:\lost saga for developer\youtube\tutorial\source\src\io3dengine\ioiniloader.h
;	COMDAT ??$LoadInt_e@$0P@@ioINILoader@@QAEHAAY0P@$$CBDH@Z
_TEXT	SEGMENT
__k$ = -24						; size = 15
__$ArrayPad$ = -4					; size = 4
_k$ = 8							; size = 4
_i$ = 12						; size = 4
??$LoadInt_e@$0P@@ioINILoader@@QAEHAAY0P@$$CBDH@Z PROC	; ioINILoader::LoadInt_e<15>, COMDAT
; _this$ = ecx

; 118  : 	{

  00000	55		 push	 ebp
  00001	8b ec		 mov	 ebp, esp
  00003	83 ec 18	 sub	 esp, 24			; 00000018H
  00006	a1 00 00 00 00	 mov	 eax, DWORD PTR ___security_cookie
  0000b	33 c5		 xor	 eax, ebp
  0000d	89 45 fc	 mov	 DWORD PTR __$ArrayPad$[ebp], eax
  00010	8b 45 08	 mov	 eax, DWORD PTR _k$[ebp]

; 119  : 		_ENCSTR(k, _k);

  00013	8a 10		 mov	 dl, BYTE PTR [eax]
  00015	56		 push	 esi
  00016	8b f1		 mov	 esi, ecx
  00018	84 d2		 test	 dl, dl
  0001a	0f 84 75 01 00
	00		 je	 $LN96@LoadInt_e@4
  00020	80 f2 ed	 xor	 dl, -19			; ffffffedH
  00023	88 55 e8	 mov	 BYTE PTR __k$[ebp], dl
  00026	8a 50 01	 mov	 dl, BYTE PTR [eax+1]
  00029	84 d2		 test	 dl, dl
  0002b	0f 84 5e 01 00
	00		 je	 $LN95@LoadInt_e@4
  00031	b1 ec		 mov	 cl, -20			; ffffffecH
  00033	32 d1		 xor	 dl, cl
  00035	88 55 e9	 mov	 BYTE PTR __k$[ebp+1], dl
  00038	8a 50 02	 mov	 dl, BYTE PTR [eax+2]
  0003b	84 d2		 test	 dl, dl
  0003d	0f 84 46 01 00
	00		 je	 $LN94@LoadInt_e@4
  00043	80 f2 eb	 xor	 dl, -21			; ffffffebH
  00046	88 55 ea	 mov	 BYTE PTR __k$[ebp+2], dl
  00049	8a 50 03	 mov	 dl, BYTE PTR [eax+3]
  0004c	84 d2		 test	 dl, dl
  0004e	0f 84 2f 01 00
	00		 je	 $LN93@LoadInt_e@4
  00054	80 f2 ea	 xor	 dl, -22			; ffffffeaH
  00057	88 55 eb	 mov	 BYTE PTR __k$[ebp+3], dl
  0005a	8a 50 04	 mov	 dl, BYTE PTR [eax+4]
  0005d	84 d2		 test	 dl, dl
  0005f	0f 84 18 01 00
	00		 je	 $LN92@LoadInt_e@4
  00065	80 f2 ed	 xor	 dl, -19			; ffffffedH
  00068	88 55 ec	 mov	 BYTE PTR __k$[ebp+4], dl
  0006b	8a 50 05	 mov	 dl, BYTE PTR [eax+5]
  0006e	84 d2		 test	 dl, dl
  00070	0f 84 02 01 00
	00		 je	 $LN91@LoadInt_e@4
  00076	32 d1		 xor	 dl, cl
  00078	88 55 ed	 mov	 BYTE PTR __k$[ebp+5], dl
  0007b	8a 50 06	 mov	 dl, BYTE PTR [eax+6]
  0007e	84 d2		 test	 dl, dl
  00080	0f 84 ec 00 00
	00		 je	 $LN90@LoadInt_e@4
  00086	80 f2 eb	 xor	 dl, -21			; ffffffebH
  00089	88 55 ee	 mov	 BYTE PTR __k$[ebp+6], dl
  0008c	8a 50 07	 mov	 dl, BYTE PTR [eax+7]
  0008f	84 d2		 test	 dl, dl
  00091	0f 84 d5 00 00
	00		 je	 $LN89@LoadInt_e@4
  00097	80 f2 ea	 xor	 dl, -22			; ffffffeaH
  0009a	88 55 ef	 mov	 BYTE PTR __k$[ebp+7], dl
  0009d	8a 50 08	 mov	 dl, BYTE PTR [eax+8]
  000a0	84 d2		 test	 dl, dl
  000a2	0f 84 be 00 00
	00		 je	 $LN88@LoadInt_e@4
  000a8	80 f2 ed	 xor	 dl, -19			; ffffffedH
  000ab	88 55 f0	 mov	 BYTE PTR __k$[ebp+8], dl
  000ae	8a 50 09	 mov	 dl, BYTE PTR [eax+9]
  000b1	84 d2		 test	 dl, dl
  000b3	0f 84 a8 00 00
	00		 je	 $LN87@LoadInt_e@4
  000b9	32 d1		 xor	 dl, cl
  000bb	88 55 f1	 mov	 BYTE PTR __k$[ebp+9], dl
  000be	8a 50 0a	 mov	 dl, BYTE PTR [eax+10]
  000c1	84 d2		 test	 dl, dl
  000c3	0f 84 92 00 00
	00		 je	 $LN86@LoadInt_e@4
  000c9	80 f2 eb	 xor	 dl, -21			; ffffffebH
  000cc	88 55 f2	 mov	 BYTE PTR __k$[ebp+10], dl
  000cf	8a 50 0b	 mov	 dl, BYTE PTR [eax+11]
  000d2	84 d2		 test	 dl, dl
  000d4	74 7f		 je	 SHORT $LN85@LoadInt_e@4
  000d6	80 f2 ea	 xor	 dl, -22			; ffffffeaH
  000d9	88 55 f3	 mov	 BYTE PTR __k$[ebp+11], dl
  000dc	8a 50 0c	 mov	 dl, BYTE PTR [eax+12]
  000df	84 d2		 test	 dl, dl
  000e1	74 6c		 je	 SHORT $LN84@LoadInt_e@4
  000e3	80 f2 ed	 xor	 dl, -19			; ffffffedH
  000e6	88 55 f4	 mov	 BYTE PTR __k$[ebp+12], dl
  000e9	8a 50 0d	 mov	 dl, BYTE PTR [eax+13]
  000ec	84 d2		 test	 dl, dl
  000ee	74 5a		 je	 SHORT $LN83@LoadInt_e@4
  000f0	32 d1		 xor	 dl, cl
  000f2	80 78 0e 00	 cmp	 BYTE PTR [eax+14], 0
  000f6	88 55 f5	 mov	 BYTE PTR __k$[ebp+13], dl
  000f9	0f 84 9a 00 00
	00		 je	 $LN1@LoadInt_e@4
  000ff	8a 50 0f	 mov	 dl, BYTE PTR [eax+15]
  00102	84 d2		 test	 dl, dl
  00104	74 3e		 je	 SHORT $LN81@LoadInt_e@4
  00106	80 f2 ea	 xor	 dl, -22			; ffffffeaH
  00109	88 55 f7	 mov	 BYTE PTR __k$[ebp+15], dl
  0010c	8a 50 10	 mov	 dl, BYTE PTR [eax+16]
  0010f	84 d2		 test	 dl, dl
  00111	74 2b		 je	 SHORT $LN80@LoadInt_e@4
  00113	80 f2 ed	 xor	 dl, -19			; ffffffedH
  00116	88 55 f8	 mov	 BYTE PTR __k$[ebp+16], dl
  00119	8a 50 11	 mov	 dl, BYTE PTR [eax+17]
  0011c	84 d2		 test	 dl, dl
  0011e	74 19		 je	 SHORT $LN79@LoadInt_e@4
  00120	8a 40 12	 mov	 al, BYTE PTR [eax+18]
  00123	32 d1		 xor	 dl, cl
  00125	88 55 f9	 mov	 BYTE PTR __k$[ebp+17], dl
  00128	84 c0		 test	 al, al
  0012a	74 07		 je	 SHORT $LN78@LoadInt_e@4
  0012c	34 eb		 xor	 al, -21			; ffffffebH
  0012e	88 45 fa	 mov	 BYTE PTR __k$[ebp+18], al
  00131	eb 66		 jmp	 SHORT $LN1@LoadInt_e@4
$LN78@LoadInt_e@4:
  00133	c6 45 fa eb	 mov	 BYTE PTR __k$[ebp+18], -21 ; ffffffebH
  00137	eb 60		 jmp	 SHORT $LN1@LoadInt_e@4
$LN79@LoadInt_e@4:
  00139	88 4d f9	 mov	 BYTE PTR __k$[ebp+17], cl
  0013c	eb 5b		 jmp	 SHORT $LN1@LoadInt_e@4
$LN80@LoadInt_e@4:
  0013e	c6 45 f8 ed	 mov	 BYTE PTR __k$[ebp+16], -19 ; ffffffedH
  00142	eb 55		 jmp	 SHORT $LN1@LoadInt_e@4
$LN81@LoadInt_e@4:
  00144	c6 45 f7 ea	 mov	 BYTE PTR __k$[ebp+15], -22 ; ffffffeaH
  00148	eb 4f		 jmp	 SHORT $LN1@LoadInt_e@4
$LN83@LoadInt_e@4:
  0014a	88 4d f5	 mov	 BYTE PTR __k$[ebp+13], cl
  0014d	eb 4a		 jmp	 SHORT $LN1@LoadInt_e@4
$LN84@LoadInt_e@4:
  0014f	c6 45 f4 ed	 mov	 BYTE PTR __k$[ebp+12], -19 ; ffffffedH
  00153	eb 44		 jmp	 SHORT $LN1@LoadInt_e@4
$LN85@LoadInt_e@4:
  00155	c6 45 f3 ea	 mov	 BYTE PTR __k$[ebp+11], -22 ; ffffffeaH
  00159	eb 3e		 jmp	 SHORT $LN1@LoadInt_e@4
$LN86@LoadInt_e@4:
  0015b	c6 45 f2 eb	 mov	 BYTE PTR __k$[ebp+10], -21 ; ffffffebH
  0015f	eb 38		 jmp	 SHORT $LN1@LoadInt_e@4
$LN87@LoadInt_e@4:
  00161	88 4d f1	 mov	 BYTE PTR __k$[ebp+9], cl
  00164	eb 33		 jmp	 SHORT $LN1@LoadInt_e@4
$LN88@LoadInt_e@4:
  00166	c6 45 f0 ed	 mov	 BYTE PTR __k$[ebp+8], -19 ; ffffffedH
  0016a	eb 2d		 jmp	 SHORT $LN1@LoadInt_e@4
$LN89@LoadInt_e@4:
  0016c	c6 45 ef ea	 mov	 BYTE PTR __k$[ebp+7], -22 ; ffffffeaH
  00170	eb 27		 jmp	 SHORT $LN1@LoadInt_e@4
$LN90@LoadInt_e@4:
  00172	c6 45 ee eb	 mov	 BYTE PTR __k$[ebp+6], -21 ; ffffffebH
  00176	eb 21		 jmp	 SHORT $LN1@LoadInt_e@4
$LN91@LoadInt_e@4:
  00178	88 4d ed	 mov	 BYTE PTR __k$[ebp+5], cl
  0017b	eb 1c		 jmp	 SHORT $LN1@LoadInt_e@4
$LN92@LoadInt_e@4:
  0017d	c6 45 ec ed	 mov	 BYTE PTR __k$[ebp+4], -19 ; ffffffedH
  00181	eb 16		 jmp	 SHORT $LN1@LoadInt_e@4
$LN93@LoadInt_e@4:
  00183	c6 45 eb ea	 mov	 BYTE PTR __k$[ebp+3], -22 ; ffffffeaH
  00187	eb 10		 jmp	 SHORT $LN1@LoadInt_e@4
$LN94@LoadInt_e@4:
  00189	c6 45 ea eb	 mov	 BYTE PTR __k$[ebp+2], -21 ; ffffffebH
  0018d	eb 0a		 jmp	 SHORT $LN1@LoadInt_e@4
$LN95@LoadInt_e@4:
  0018f	c6 45 e9 ec	 mov	 BYTE PTR __k$[ebp+1], -20 ; ffffffecH
  00193	eb 04		 jmp	 SHORT $LN1@LoadInt_e@4
$LN96@LoadInt_e@4:
  00195	c6 45 e8 ed	 mov	 BYTE PTR __k$[ebp], -19	; ffffffedH
$LN1@LoadInt_e@4:
  00199	6a 03		 push	 3
  0019b	8d 45 e8	 lea	 eax, DWORD PTR __k$[ebp]
  0019e	c6 45 f6 00	 mov	 BYTE PTR __k$[ebp+14], 0
  001a2	5a		 pop	 edx
$LL104@LoadInt_e@4:
  001a3	81 30 ed ec eb
	ea		 xor	 DWORD PTR [eax], -353637139 ; eaebecedH
  001a9	83 c0 04	 add	 eax, 4
  001ac	4a		 dec	 edx
  001ad	75 f4		 jne	 SHORT $LL104@LoadInt_e@4
  001af	6a 0c		 push	 12			; 0000000cH
  001b1	58		 pop	 eax
$LL101@LoadInt_e@4:
  001b2	8b c8		 mov	 ecx, eax
  001b4	81 e1 03 00 00
	80		 and	 ecx, -2147483645	; 80000003H
  001ba	79 05		 jns	 SHORT $LN111@LoadInt_e@4
  001bc	49		 dec	 ecx
  001bd	83 c9 fc	 or	 ecx, -4			; fffffffcH
  001c0	41		 inc	 ecx
$LN111@LoadInt_e@4:
  001c1	b2 ed		 mov	 dl, -19			; ffffffedH
  001c3	2a d1		 sub	 dl, cl
  001c5	30 54 05 e8	 xor	 BYTE PTR __k$[ebp+eax], dl
  001c9	40		 inc	 eax
  001ca	83 f8 0e	 cmp	 eax, 14			; 0000000eH
  001cd	7c e3		 jl	 SHORT $LL101@LoadInt_e@4

; 120  : 		return LoadInt(_k, i);

  001cf	ff 75 0c	 push	 DWORD PTR _i$[ebp]
  001d2	8d 45 e8	 lea	 eax, DWORD PTR __k$[ebp]
  001d5	50		 push	 eax
  001d6	8b ce		 mov	 ecx, esi
  001d8	ff 15 00 00 00
	00		 call	 DWORD PTR __imp_?LoadInt@ioINILoader@@QAEHPBDH@Z

; 121  : 	}

  001de	8b 4d fc	 mov	 ecx, DWORD PTR __$ArrayPad$[ebp]
  001e1	33 cd		 xor	 ecx, ebp
  001e3	5e		 pop	 esi
  001e4	e8 00 00 00 00	 call	 @__security_check_cookie@4
  001e9	c9		 leave
  001ea	c2 08 00	 ret	 8
??$LoadInt_e@$0P@@ioINILoader@@QAEHAAY0P@$$CBDH@Z ENDP	; ioINILoader::LoadInt_e<15>
_TEXT	ENDS
PUBLIC	__$ArrayPad$
PUBLIC	??$LoadInt_e@$0BI@@ioINILoader@@QAEHAAY0BI@$$CBDH@Z ; ioINILoader::LoadInt_e<24>
; Function compile flags: /Ogsp
;	COMDAT ??$LoadInt_e@$0BI@@ioINILoader@@QAEHAAY0BI@$$CBDH@Z
_TEXT	SEGMENT
__k$ = -32						; size = 24
__$ArrayPad$ = -4					; size = 4
_k$ = 8							; size = 4
_i$ = 12						; size = 4
??$LoadInt_e@$0BI@@ioINILoader@@QAEHAAY0BI@$$CBDH@Z PROC ; ioINILoader::LoadInt_e<24>, COMDAT
; _this$ = ecx

; 118  : 	{

  00000	55		 push	 ebp
  00001	8b ec		 mov	 ebp, esp
  00003	83 ec 20	 sub	 esp, 32			; 00000020H
  00006	a1 00 00 00 00	 mov	 eax, DWORD PTR ___security_cookie
  0000b	33 c5		 xor	 eax, ebp
  0000d	89 45 fc	 mov	 DWORD PTR __$ArrayPad$[ebp], eax
  00010	8b 45 08	 mov	 eax, DWORD PTR _k$[ebp]

; 119  : 		_ENCSTR(k, _k);

  00013	8a 10		 mov	 dl, BYTE PTR [eax]
  00015	53		 push	 ebx
  00016	56		 push	 esi
  00017	8b f1		 mov	 esi, ecx
  00019	84 d2		 test	 dl, dl
  0001b	0f 84 45 02 00
	00		 je	 $LN96@LoadInt_e@5
  00021	80 f2 ed	 xor	 dl, -19			; ffffffedH
  00024	88 55 e0	 mov	 BYTE PTR __k$[ebp], dl
  00027	8a 50 01	 mov	 dl, BYTE PTR [eax+1]
  0002a	84 d2		 test	 dl, dl
  0002c	0f 84 2e 02 00
	00		 je	 $LN95@LoadInt_e@5
  00032	b3 ec		 mov	 bl, -20			; ffffffecH
  00034	32 d3		 xor	 dl, bl
  00036	88 55 e1	 mov	 BYTE PTR __k$[ebp+1], dl
  00039	8a 50 02	 mov	 dl, BYTE PTR [eax+2]
  0003c	84 d2		 test	 dl, dl
  0003e	0f 84 16 02 00
	00		 je	 $LN94@LoadInt_e@5
  00044	b1 eb		 mov	 cl, -21			; ffffffebH
  00046	32 d1		 xor	 dl, cl
  00048	88 55 e2	 mov	 BYTE PTR __k$[ebp+2], dl
  0004b	8a 50 03	 mov	 dl, BYTE PTR [eax+3]
  0004e	84 d2		 test	 dl, dl
  00050	0f 84 fe 01 00
	00		 je	 $LN93@LoadInt_e@5
  00056	80 f2 ea	 xor	 dl, -22			; ffffffeaH
  00059	88 55 e3	 mov	 BYTE PTR __k$[ebp+3], dl
  0005c	8a 50 04	 mov	 dl, BYTE PTR [eax+4]
  0005f	84 d2		 test	 dl, dl
  00061	0f 84 e7 01 00
	00		 je	 $LN92@LoadInt_e@5
  00067	80 f2 ed	 xor	 dl, -19			; ffffffedH
  0006a	88 55 e4	 mov	 BYTE PTR __k$[ebp+4], dl
  0006d	8a 50 05	 mov	 dl, BYTE PTR [eax+5]
  00070	84 d2		 test	 dl, dl
  00072	0f 84 d1 01 00
	00		 je	 $LN91@LoadInt_e@5
  00078	32 d3		 xor	 dl, bl
  0007a	88 55 e5	 mov	 BYTE PTR __k$[ebp+5], dl
  0007d	8a 50 06	 mov	 dl, BYTE PTR [eax+6]
  00080	84 d2		 test	 dl, dl
  00082	0f 84 bc 01 00
	00		 je	 $LN90@LoadInt_e@5
  00088	32 d1		 xor	 dl, cl
  0008a	88 55 e6	 mov	 BYTE PTR __k$[ebp+6], dl
  0008d	8a 50 07	 mov	 dl, BYTE PTR [eax+7]
  00090	84 d2		 test	 dl, dl
  00092	0f 84 a6 01 00
	00		 je	 $LN89@LoadInt_e@5
  00098	80 f2 ea	 xor	 dl, -22			; ffffffeaH
  0009b	88 55 e7	 mov	 BYTE PTR __k$[ebp+7], dl
  0009e	8a 50 08	 mov	 dl, BYTE PTR [eax+8]
  000a1	84 d2		 test	 dl, dl
  000a3	0f 84 8f 01 00
	00		 je	 $LN88@LoadInt_e@5
  000a9	80 f2 ed	 xor	 dl, -19			; ffffffedH
  000ac	88 55 e8	 mov	 BYTE PTR __k$[ebp+8], dl
  000af	8a 50 09	 mov	 dl, BYTE PTR [eax+9]
  000b2	84 d2		 test	 dl, dl
  000b4	0f 84 79 01 00
	00		 je	 $LN87@LoadInt_e@5
  000ba	32 d3		 xor	 dl, bl
  000bc	88 55 e9	 mov	 BYTE PTR __k$[ebp+9], dl
  000bf	8a 50 0a	 mov	 dl, BYTE PTR [eax+10]
  000c2	84 d2		 test	 dl, dl
  000c4	0f 84 64 01 00
	00		 je	 $LN86@LoadInt_e@5
  000ca	32 d1		 xor	 dl, cl
  000cc	88 55 ea	 mov	 BYTE PTR __k$[ebp+10], dl
  000cf	8a 50 0b	 mov	 dl, BYTE PTR [eax+11]
  000d2	84 d2		 test	 dl, dl
  000d4	0f 84 4e 01 00
	00		 je	 $LN85@LoadInt_e@5
  000da	80 f2 ea	 xor	 dl, -22			; ffffffeaH
  000dd	88 55 eb	 mov	 BYTE PTR __k$[ebp+11], dl
  000e0	8a 50 0c	 mov	 dl, BYTE PTR [eax+12]
  000e3	84 d2		 test	 dl, dl
  000e5	0f 84 37 01 00
	00		 je	 $LN84@LoadInt_e@5
  000eb	80 f2 ed	 xor	 dl, -19			; ffffffedH
  000ee	88 55 ec	 mov	 BYTE PTR __k$[ebp+12], dl
  000f1	8a 50 0d	 mov	 dl, BYTE PTR [eax+13]
  000f4	84 d2		 test	 dl, dl
  000f6	0f 84 21 01 00
	00		 je	 $LN83@LoadInt_e@5
  000fc	32 d3		 xor	 dl, bl
  000fe	88 55 ed	 mov	 BYTE PTR __k$[ebp+13], dl
  00101	8a 50 0e	 mov	 dl, BYTE PTR [eax+14]
  00104	84 d2		 test	 dl, dl
  00106	0f 84 0c 01 00
	00		 je	 $LN82@LoadInt_e@5
  0010c	32 d1		 xor	 dl, cl
  0010e	88 55 ee	 mov	 BYTE PTR __k$[ebp+14], dl
  00111	8a 50 0f	 mov	 dl, BYTE PTR [eax+15]
  00114	84 d2		 test	 dl, dl
  00116	0f 84 f6 00 00
	00		 je	 $LN81@LoadInt_e@5
  0011c	80 f2 ea	 xor	 dl, -22			; ffffffeaH
  0011f	88 55 ef	 mov	 BYTE PTR __k$[ebp+15], dl
  00122	8a 50 10	 mov	 dl, BYTE PTR [eax+16]
  00125	84 d2		 test	 dl, dl
  00127	0f 84 df 00 00
	00		 je	 $LN80@LoadInt_e@5
  0012d	80 f2 ed	 xor	 dl, -19			; ffffffedH
  00130	88 55 f0	 mov	 BYTE PTR __k$[ebp+16], dl
  00133	8a 50 11	 mov	 dl, BYTE PTR [eax+17]
  00136	84 d2		 test	 dl, dl
  00138	0f 84 c9 00 00
	00		 je	 $LN79@LoadInt_e@5
  0013e	32 d3		 xor	 dl, bl
  00140	88 55 f1	 mov	 BYTE PTR __k$[ebp+17], dl
  00143	8a 50 12	 mov	 dl, BYTE PTR [eax+18]
  00146	84 d2		 test	 dl, dl
  00148	0f 84 b4 00 00
	00		 je	 $LN78@LoadInt_e@5
  0014e	32 d1		 xor	 dl, cl
  00150	88 55 f2	 mov	 BYTE PTR __k$[ebp+18], dl
  00153	8a 50 13	 mov	 dl, BYTE PTR [eax+19]
  00156	84 d2		 test	 dl, dl
  00158	0f 84 9e 00 00
	00		 je	 $LN77@LoadInt_e@5
  0015e	80 f2 ea	 xor	 dl, -22			; ffffffeaH
  00161	88 55 f3	 mov	 BYTE PTR __k$[ebp+19], dl
  00164	8a 50 14	 mov	 dl, BYTE PTR [eax+20]
  00167	84 d2		 test	 dl, dl
  00169	0f 84 87 00 00
	00		 je	 $LN76@LoadInt_e@5
  0016f	80 f2 ed	 xor	 dl, -19			; ffffffedH
  00172	88 55 f4	 mov	 BYTE PTR __k$[ebp+20], dl
  00175	8a 50 15	 mov	 dl, BYTE PTR [eax+21]
  00178	84 d2		 test	 dl, dl
  0017a	74 75		 je	 SHORT $LN75@LoadInt_e@5
  0017c	32 d3		 xor	 dl, bl
  0017e	88 55 f5	 mov	 BYTE PTR __k$[ebp+21], dl
  00181	8a 50 16	 mov	 dl, BYTE PTR [eax+22]
  00184	84 d2		 test	 dl, dl
  00186	74 64		 je	 SHORT $LN74@LoadInt_e@5
  00188	32 d1		 xor	 dl, cl
  0018a	80 78 17 00	 cmp	 BYTE PTR [eax+23], 0
  0018e	88 55 f6	 mov	 BYTE PTR __k$[ebp+22], dl
  00191	0f 84 d3 00 00
	00		 je	 $LN1@LoadInt_e@5
  00197	8a 50 18	 mov	 dl, BYTE PTR [eax+24]
  0019a	84 d2		 test	 dl, dl
  0019c	74 48		 je	 SHORT $LN72@LoadInt_e@5
  0019e	80 f2 ed	 xor	 dl, -19			; ffffffedH
  001a1	88 55 f8	 mov	 BYTE PTR __k$[ebp+24], dl
  001a4	8a 50 19	 mov	 dl, BYTE PTR [eax+25]
  001a7	84 d2		 test	 dl, dl
  001a9	74 33		 je	 SHORT $LN71@LoadInt_e@5
  001ab	32 d3		 xor	 dl, bl
  001ad	88 55 f9	 mov	 BYTE PTR __k$[ebp+25], dl
  001b0	8a 50 1a	 mov	 dl, BYTE PTR [eax+26]
  001b3	84 d2		 test	 dl, dl
  001b5	74 1f		 je	 SHORT $LN70@LoadInt_e@5
  001b7	8a 40 1b	 mov	 al, BYTE PTR [eax+27]
  001ba	32 d1		 xor	 dl, cl
  001bc	88 55 fa	 mov	 BYTE PTR __k$[ebp+26], dl
  001bf	84 c0		 test	 al, al
  001c1	74 0a		 je	 SHORT $LN69@LoadInt_e@5
  001c3	34 ea		 xor	 al, -22			; ffffffeaH
  001c5	88 45 fb	 mov	 BYTE PTR __k$[ebp+27], al
  001c8	e9 9d 00 00 00	 jmp	 $LN1@LoadInt_e@5
$LN69@LoadInt_e@5:
  001cd	c6 45 fb ea	 mov	 BYTE PTR __k$[ebp+27], -22 ; ffffffeaH
  001d1	e9 94 00 00 00	 jmp	 $LN1@LoadInt_e@5
$LN70@LoadInt_e@5:
  001d6	88 4d fa	 mov	 BYTE PTR __k$[ebp+26], cl
  001d9	e9 8c 00 00 00	 jmp	 $LN1@LoadInt_e@5
$LN71@LoadInt_e@5:
  001de	88 5d f9	 mov	 BYTE PTR __k$[ebp+25], bl
  001e1	e9 84 00 00 00	 jmp	 $LN1@LoadInt_e@5
$LN72@LoadInt_e@5:
  001e6	c6 45 f8 ed	 mov	 BYTE PTR __k$[ebp+24], -19 ; ffffffedH
  001ea	eb 7e		 jmp	 SHORT $LN1@LoadInt_e@5
$LN74@LoadInt_e@5:
  001ec	88 4d f6	 mov	 BYTE PTR __k$[ebp+22], cl
  001ef	eb 79		 jmp	 SHORT $LN1@LoadInt_e@5
$LN75@LoadInt_e@5:
  001f1	88 5d f5	 mov	 BYTE PTR __k$[ebp+21], bl
  001f4	eb 74		 jmp	 SHORT $LN1@LoadInt_e@5
$LN76@LoadInt_e@5:
  001f6	c6 45 f4 ed	 mov	 BYTE PTR __k$[ebp+20], -19 ; ffffffedH
  001fa	eb 6e		 jmp	 SHORT $LN1@LoadInt_e@5
$LN77@LoadInt_e@5:
  001fc	c6 45 f3 ea	 mov	 BYTE PTR __k$[ebp+19], -22 ; ffffffeaH
  00200	eb 68		 jmp	 SHORT $LN1@LoadInt_e@5
$LN78@LoadInt_e@5:
  00202	88 4d f2	 mov	 BYTE PTR __k$[ebp+18], cl
  00205	eb 63		 jmp	 SHORT $LN1@LoadInt_e@5
$LN79@LoadInt_e@5:
  00207	88 5d f1	 mov	 BYTE PTR __k$[ebp+17], bl
  0020a	eb 5e		 jmp	 SHORT $LN1@LoadInt_e@5
$LN80@LoadInt_e@5:
  0020c	c6 45 f0 ed	 mov	 BYTE PTR __k$[ebp+16], -19 ; ffffffedH
  00210	eb 58		 jmp	 SHORT $LN1@LoadInt_e@5
$LN81@LoadInt_e@5:
  00212	c6 45 ef ea	 mov	 BYTE PTR __k$[ebp+15], -22 ; ffffffeaH
  00216	eb 52		 jmp	 SHORT $LN1@LoadInt_e@5
$LN82@LoadInt_e@5:
  00218	88 4d ee	 mov	 BYTE PTR __k$[ebp+14], cl
  0021b	eb 4d		 jmp	 SHORT $LN1@LoadInt_e@5
$LN83@LoadInt_e@5:
  0021d	88 5d ed	 mov	 BYTE PTR __k$[ebp+13], bl
  00220	eb 48		 jmp	 SHORT $LN1@LoadInt_e@5
$LN84@LoadInt_e@5:
  00222	c6 45 ec ed	 mov	 BYTE PTR __k$[ebp+12], -19 ; ffffffedH
  00226	eb 42		 jmp	 SHORT $LN1@LoadInt_e@5
$LN85@LoadInt_e@5:
  00228	c6 45 eb ea	 mov	 BYTE PTR __k$[ebp+11], -22 ; ffffffeaH
  0022c	eb 3c		 jmp	 SHORT $LN1@LoadInt_e@5
$LN86@LoadInt_e@5:
  0022e	88 4d ea	 mov	 BYTE PTR __k$[ebp+10], cl
  00231	eb 37		 jmp	 SHORT $LN1@LoadInt_e@5
$LN87@LoadInt_e@5:
  00233	88 5d e9	 mov	 BYTE PTR __k$[ebp+9], bl
  00236	eb 32		 jmp	 SHORT $LN1@LoadInt_e@5
$LN88@LoadInt_e@5:
  00238	c6 45 e8 ed	 mov	 BYTE PTR __k$[ebp+8], -19 ; ffffffedH
  0023c	eb 2c		 jmp	 SHORT $LN1@LoadInt_e@5
$LN89@LoadInt_e@5:
  0023e	c6 45 e7 ea	 mov	 BYTE PTR __k$[ebp+7], -22 ; ffffffeaH
  00242	eb 26		 jmp	 SHORT $LN1@LoadInt_e@5
$LN90@LoadInt_e@5:
  00244	88 4d e6	 mov	 BYTE PTR __k$[ebp+6], cl
  00247	eb 21		 jmp	 SHORT $LN1@LoadInt_e@5
$LN91@LoadInt_e@5:
  00249	88 5d e5	 mov	 BYTE PTR __k$[ebp+5], bl
  0024c	eb 1c		 jmp	 SHORT $LN1@LoadInt_e@5
$LN92@LoadInt_e@5:
  0024e	c6 45 e4 ed	 mov	 BYTE PTR __k$[ebp+4], -19 ; ffffffedH
  00252	eb 16		 jmp	 SHORT $LN1@LoadInt_e@5
$LN93@LoadInt_e@5:
  00254	c6 45 e3 ea	 mov	 BYTE PTR __k$[ebp+3], -22 ; ffffffeaH
  00258	eb 10		 jmp	 SHORT $LN1@LoadInt_e@5
$LN94@LoadInt_e@5:
  0025a	c6 45 e2 eb	 mov	 BYTE PTR __k$[ebp+2], -21 ; ffffffebH
  0025e	eb 0a		 jmp	 SHORT $LN1@LoadInt_e@5
$LN95@LoadInt_e@5:
  00260	c6 45 e1 ec	 mov	 BYTE PTR __k$[ebp+1], -20 ; ffffffecH
  00264	eb 04		 jmp	 SHORT $LN1@LoadInt_e@5
$LN96@LoadInt_e@5:
  00266	c6 45 e0 ed	 mov	 BYTE PTR __k$[ebp], -19	; ffffffedH
$LN1@LoadInt_e@5:
  0026a	6a 05		 push	 5
  0026c	8d 45 e0	 lea	 eax, DWORD PTR __k$[ebp]
  0026f	c6 45 f7 00	 mov	 BYTE PTR __k$[ebp+23], 0
  00273	5a		 pop	 edx
$LL104@LoadInt_e@5:
  00274	81 30 ed ec eb
	ea		 xor	 DWORD PTR [eax], -353637139 ; eaebecedH
  0027a	83 c0 04	 add	 eax, 4
  0027d	4a		 dec	 edx
  0027e	75 f4		 jne	 SHORT $LL104@LoadInt_e@5
  00280	6a 14		 push	 20			; 00000014H
  00282	58		 pop	 eax
$LL101@LoadInt_e@5:
  00283	8b c8		 mov	 ecx, eax
  00285	81 e1 03 00 00
	80		 and	 ecx, -2147483645	; 80000003H
  0028b	79 05		 jns	 SHORT $LN111@LoadInt_e@5
  0028d	49		 dec	 ecx
  0028e	83 c9 fc	 or	 ecx, -4			; fffffffcH
  00291	41		 inc	 ecx
$LN111@LoadInt_e@5:
  00292	b2 ed		 mov	 dl, -19			; ffffffedH
  00294	2a d1		 sub	 dl, cl
  00296	30 54 05 e0	 xor	 BYTE PTR __k$[ebp+eax], dl
  0029a	40		 inc	 eax
  0029b	83 f8 17	 cmp	 eax, 23			; 00000017H
  0029e	7c e3		 jl	 SHORT $LL101@LoadInt_e@5

; 120  : 		return LoadInt(_k, i);

  002a0	ff 75 0c	 push	 DWORD PTR _i$[ebp]
  002a3	8d 45 e0	 lea	 eax, DWORD PTR __k$[ebp]
  002a6	50		 push	 eax
  002a7	8b ce		 mov	 ecx, esi
  002a9	ff 15 00 00 00
	00		 call	 DWORD PTR __imp_?LoadInt@ioINILoader@@QAEHPBDH@Z

; 121  : 	}

  002af	8b 4d fc	 mov	 ecx, DWORD PTR __$ArrayPad$[ebp]
  002b2	5e		 pop	 esi
  002b3	33 cd		 xor	 ecx, ebp
  002b5	5b		 pop	 ebx
  002b6	e8 00 00 00 00	 call	 @__security_check_cookie@4
  002bb	c9		 leave
  002bc	c2 08 00	 ret	 8
??$LoadInt_e@$0BI@@ioINILoader@@QAEHAAY0BI@$$CBDH@Z ENDP ; ioINILoader::LoadInt_e<24>
_TEXT	ENDS
PUBLIC	__$ArrayPad$
PUBLIC	??$LoadInt_e@$0BO@@ioINILoader@@QAEHAAY0BO@$$CBDH@Z ; ioINILoader::LoadInt_e<30>
; Function compile flags: /Ogsp
;	COMDAT ??$LoadInt_e@$0BO@@ioINILoader@@QAEHAAY0BO@$$CBDH@Z
_TEXT	SEGMENT
__k$ = -40						; size = 30
__$ArrayPad$ = -4					; size = 4
_k$ = 8							; size = 4
_i$ = 12						; size = 4
??$LoadInt_e@$0BO@@ioINILoader@@QAEHAAY0BO@$$CBDH@Z PROC ; ioINILoader::LoadInt_e<30>, COMDAT
; _this$ = ecx

; 118  : 	{

  00000	55		 push	 ebp
  00001	8b ec		 mov	 ebp, esp
  00003	83 ec 28	 sub	 esp, 40			; 00000028H
  00006	a1 00 00 00 00	 mov	 eax, DWORD PTR ___security_cookie
  0000b	33 c5		 xor	 eax, ebp
  0000d	89 45 fc	 mov	 DWORD PTR __$ArrayPad$[ebp], eax
  00010	8b 45 08	 mov	 eax, DWORD PTR _k$[ebp]

; 119  : 		_ENCSTR(k, _k);

  00013	8a 10		 mov	 dl, BYTE PTR [eax]
  00015	53		 push	 ebx
  00016	56		 push	 esi
  00017	8b f1		 mov	 esi, ecx
  00019	84 d2		 test	 dl, dl
  0001b	0f 84 dd 02 00
	00		 je	 $LN96@LoadInt_e@6
  00021	80 f2 ed	 xor	 dl, -19			; ffffffedH
  00024	88 55 d8	 mov	 BYTE PTR __k$[ebp], dl
  00027	8a 50 01	 mov	 dl, BYTE PTR [eax+1]
  0002a	84 d2		 test	 dl, dl
  0002c	0f 84 c6 02 00
	00		 je	 $LN95@LoadInt_e@6
  00032	80 f2 ec	 xor	 dl, -20			; ffffffecH
  00035	88 55 d9	 mov	 BYTE PTR __k$[ebp+1], dl
  00038	8a 50 02	 mov	 dl, BYTE PTR [eax+2]
  0003b	84 d2		 test	 dl, dl
  0003d	0f 84 af 02 00
	00		 je	 $LN94@LoadInt_e@6
  00043	b1 eb		 mov	 cl, -21			; ffffffebH
  00045	32 d1		 xor	 dl, cl
  00047	88 55 da	 mov	 BYTE PTR __k$[ebp+2], dl
  0004a	8a 50 03	 mov	 dl, BYTE PTR [eax+3]
  0004d	84 d2		 test	 dl, dl
  0004f	0f 84 97 02 00
	00		 je	 $LN93@LoadInt_e@6
  00055	b3 ea		 mov	 bl, -22			; ffffffeaH
  00057	32 d3		 xor	 dl, bl
  00059	88 55 db	 mov	 BYTE PTR __k$[ebp+3], dl
  0005c	8a 50 04	 mov	 dl, BYTE PTR [eax+4]
  0005f	84 d2		 test	 dl, dl
  00061	0f 84 7f 02 00
	00		 je	 $LN92@LoadInt_e@6
  00067	80 f2 ed	 xor	 dl, -19			; ffffffedH
  0006a	88 55 dc	 mov	 BYTE PTR __k$[ebp+4], dl
  0006d	8a 50 05	 mov	 dl, BYTE PTR [eax+5]
  00070	84 d2		 test	 dl, dl
  00072	0f 84 68 02 00
	00		 je	 $LN91@LoadInt_e@6
  00078	80 f2 ec	 xor	 dl, -20			; ffffffecH
  0007b	88 55 dd	 mov	 BYTE PTR __k$[ebp+5], dl
  0007e	8a 50 06	 mov	 dl, BYTE PTR [eax+6]
  00081	84 d2		 test	 dl, dl
  00083	0f 84 52 02 00
	00		 je	 $LN90@LoadInt_e@6
  00089	32 d1		 xor	 dl, cl
  0008b	88 55 de	 mov	 BYTE PTR __k$[ebp+6], dl
  0008e	8a 50 07	 mov	 dl, BYTE PTR [eax+7]
  00091	84 d2		 test	 dl, dl
  00093	0f 84 3d 02 00
	00		 je	 $LN89@LoadInt_e@6
  00099	32 d3		 xor	 dl, bl
  0009b	88 55 df	 mov	 BYTE PTR __k$[ebp+7], dl
  0009e	8a 50 08	 mov	 dl, BYTE PTR [eax+8]
  000a1	84 d2		 test	 dl, dl
  000a3	0f 84 27 02 00
	00		 je	 $LN88@LoadInt_e@6
  000a9	80 f2 ed	 xor	 dl, -19			; ffffffedH
  000ac	88 55 e0	 mov	 BYTE PTR __k$[ebp+8], dl
  000af	8a 50 09	 mov	 dl, BYTE PTR [eax+9]
  000b2	84 d2		 test	 dl, dl
  000b4	0f 84 10 02 00
	00		 je	 $LN87@LoadInt_e@6
  000ba	80 f2 ec	 xor	 dl, -20			; ffffffecH
  000bd	88 55 e1	 mov	 BYTE PTR __k$[ebp+9], dl
  000c0	8a 50 0a	 mov	 dl, BYTE PTR [eax+10]
  000c3	84 d2		 test	 dl, dl
  000c5	0f 84 fa 01 00
	00		 je	 $LN86@LoadInt_e@6
  000cb	32 d1		 xor	 dl, cl
  000cd	88 55 e2	 mov	 BYTE PTR __k$[ebp+10], dl
  000d0	8a 50 0b	 mov	 dl, BYTE PTR [eax+11]
  000d3	84 d2		 test	 dl, dl
  000d5	0f 84 e5 01 00
	00		 je	 $LN85@LoadInt_e@6
  000db	32 d3		 xor	 dl, bl
  000dd	88 55 e3	 mov	 BYTE PTR __k$[ebp+11], dl
  000e0	8a 50 0c	 mov	 dl, BYTE PTR [eax+12]
  000e3	84 d2		 test	 dl, dl
  000e5	0f 84 cf 01 00
	00		 je	 $LN84@LoadInt_e@6
  000eb	80 f2 ed	 xor	 dl, -19			; ffffffedH
  000ee	88 55 e4	 mov	 BYTE PTR __k$[ebp+12], dl
  000f1	8a 50 0d	 mov	 dl, BYTE PTR [eax+13]
  000f4	84 d2		 test	 dl, dl
  000f6	0f 84 b8 01 00
	00		 je	 $LN83@LoadInt_e@6
  000fc	80 f2 ec	 xor	 dl, -20			; ffffffecH
  000ff	88 55 e5	 mov	 BYTE PTR __k$[ebp+13], dl
  00102	8a 50 0e	 mov	 dl, BYTE PTR [eax+14]
  00105	84 d2		 test	 dl, dl
  00107	0f 84 a2 01 00
	00		 je	 $LN82@LoadInt_e@6
  0010d	32 d1		 xor	 dl, cl
  0010f	88 55 e6	 mov	 BYTE PTR __k$[ebp+14], dl
  00112	8a 50 0f	 mov	 dl, BYTE PTR [eax+15]
  00115	84 d2		 test	 dl, dl
  00117	0f 84 8d 01 00
	00		 je	 $LN81@LoadInt_e@6
  0011d	32 d3		 xor	 dl, bl
  0011f	88 55 e7	 mov	 BYTE PTR __k$[ebp+15], dl
  00122	8a 50 10	 mov	 dl, BYTE PTR [eax+16]
  00125	84 d2		 test	 dl, dl
  00127	0f 84 77 01 00
	00		 je	 $LN80@LoadInt_e@6
  0012d	80 f2 ed	 xor	 dl, -19			; ffffffedH
  00130	88 55 e8	 mov	 BYTE PTR __k$[ebp+16], dl
  00133	8a 50 11	 mov	 dl, BYTE PTR [eax+17]
  00136	84 d2		 test	 dl, dl
  00138	0f 84 60 01 00
	00		 je	 $LN79@LoadInt_e@6
  0013e	80 f2 ec	 xor	 dl, -20			; ffffffecH
  00141	88 55 e9	 mov	 BYTE PTR __k$[ebp+17], dl
  00144	8a 50 12	 mov	 dl, BYTE PTR [eax+18]
  00147	84 d2		 test	 dl, dl
  00149	0f 84 4a 01 00
	00		 je	 $LN78@LoadInt_e@6
  0014f	32 d1		 xor	 dl, cl
  00151	88 55 ea	 mov	 BYTE PTR __k$[ebp+18], dl
  00154	8a 50 13	 mov	 dl, BYTE PTR [eax+19]
  00157	84 d2		 test	 dl, dl
  00159	0f 84 35 01 00
	00		 je	 $LN77@LoadInt_e@6
  0015f	32 d3		 xor	 dl, bl
  00161	88 55 eb	 mov	 BYTE PTR __k$[ebp+19], dl
  00164	8a 50 14	 mov	 dl, BYTE PTR [eax+20]
  00167	84 d2		 test	 dl, dl
  00169	0f 84 1f 01 00
	00		 je	 $LN76@LoadInt_e@6
  0016f	80 f2 ed	 xor	 dl, -19			; ffffffedH
  00172	88 55 ec	 mov	 BYTE PTR __k$[ebp+20], dl
  00175	8a 50 15	 mov	 dl, BYTE PTR [eax+21]
  00178	84 d2		 test	 dl, dl
  0017a	0f 84 08 01 00
	00		 je	 $LN75@LoadInt_e@6
  00180	80 f2 ec	 xor	 dl, -20			; ffffffecH
  00183	88 55 ed	 mov	 BYTE PTR __k$[ebp+21], dl
  00186	8a 50 16	 mov	 dl, BYTE PTR [eax+22]
  00189	84 d2		 test	 dl, dl
  0018b	0f 84 f2 00 00
	00		 je	 $LN74@LoadInt_e@6
  00191	32 d1		 xor	 dl, cl
  00193	88 55 ee	 mov	 BYTE PTR __k$[ebp+22], dl
  00196	8a 50 17	 mov	 dl, BYTE PTR [eax+23]
  00199	84 d2		 test	 dl, dl
  0019b	0f 84 dd 00 00
	00		 je	 $LN73@LoadInt_e@6
  001a1	32 d3		 xor	 dl, bl
  001a3	88 55 ef	 mov	 BYTE PTR __k$[ebp+23], dl
  001a6	8a 50 18	 mov	 dl, BYTE PTR [eax+24]
  001a9	84 d2		 test	 dl, dl
  001ab	0f 84 c4 00 00
	00		 je	 $LN72@LoadInt_e@6
  001b1	80 f2 ed	 xor	 dl, -19			; ffffffedH
  001b4	88 55 f0	 mov	 BYTE PTR __k$[ebp+24], dl
  001b7	8a 50 19	 mov	 dl, BYTE PTR [eax+25]
  001ba	84 d2		 test	 dl, dl
  001bc	0f 84 aa 00 00
	00		 je	 $LN71@LoadInt_e@6
  001c2	80 f2 ec	 xor	 dl, -20			; ffffffecH
  001c5	88 55 f1	 mov	 BYTE PTR __k$[ebp+25], dl
  001c8	8a 50 1a	 mov	 dl, BYTE PTR [eax+26]
  001cb	84 d2		 test	 dl, dl
  001cd	0f 84 91 00 00
	00		 je	 $LN70@LoadInt_e@6
  001d3	32 d1		 xor	 dl, cl
  001d5	88 55 f2	 mov	 BYTE PTR __k$[ebp+26], dl
  001d8	8a 50 1b	 mov	 dl, BYTE PTR [eax+27]
  001db	84 d2		 test	 dl, dl
  001dd	74 7d		 je	 SHORT $LN69@LoadInt_e@6
  001df	32 d3		 xor	 dl, bl
  001e1	88 55 f3	 mov	 BYTE PTR __k$[ebp+27], dl
  001e4	8a 50 1c	 mov	 dl, BYTE PTR [eax+28]
  001e7	84 d2		 test	 dl, dl
  001e9	74 68		 je	 SHORT $LN68@LoadInt_e@6
  001eb	80 f2 ed	 xor	 dl, -19			; ffffffedH
  001ee	80 78 1d 00	 cmp	 BYTE PTR [eax+29], 0
  001f2	88 55 f4	 mov	 BYTE PTR __k$[ebp+28], dl
  001f5	0f 84 07 01 00
	00		 je	 $LN1@LoadInt_e@6
  001fb	8a 50 1e	 mov	 dl, BYTE PTR [eax+30]
  001fe	84 d2		 test	 dl, dl
  00200	74 49		 je	 SHORT $LN66@LoadInt_e@6
  00202	32 d1		 xor	 dl, cl
  00204	88 55 f6	 mov	 BYTE PTR __k$[ebp+30], dl
  00207	8a 50 1f	 mov	 dl, BYTE PTR [eax+31]
  0020a	84 d2		 test	 dl, dl
  0020c	74 35		 je	 SHORT $LN65@LoadInt_e@6
  0020e	32 d3		 xor	 dl, bl
  00210	88 55 f7	 mov	 BYTE PTR __k$[ebp+31], dl
  00213	8a 50 20	 mov	 dl, BYTE PTR [eax+32]
  00216	84 d2		 test	 dl, dl
  00218	74 20		 je	 SHORT $LN64@LoadInt_e@6
  0021a	8a 40 21	 mov	 al, BYTE PTR [eax+33]
  0021d	80 f2 ed	 xor	 dl, -19			; ffffffedH
  00220	88 55 f8	 mov	 BYTE PTR __k$[ebp+32], dl
  00223	84 c0		 test	 al, al
  00225	74 0a		 je	 SHORT $LN63@LoadInt_e@6
  00227	34 ec		 xor	 al, -20			; ffffffecH
  00229	88 45 f9	 mov	 BYTE PTR __k$[ebp+33], al
  0022c	e9 d1 00 00 00	 jmp	 $LN1@LoadInt_e@6
$LN63@LoadInt_e@6:
  00231	c6 45 f9 ec	 mov	 BYTE PTR __k$[ebp+33], -20 ; ffffffecH
  00235	e9 c8 00 00 00	 jmp	 $LN1@LoadInt_e@6
$LN64@LoadInt_e@6:
  0023a	c6 45 f8 ed	 mov	 BYTE PTR __k$[ebp+32], -19 ; ffffffedH
  0023e	e9 bf 00 00 00	 jmp	 $LN1@LoadInt_e@6
$LN65@LoadInt_e@6:
  00243	88 5d f7	 mov	 BYTE PTR __k$[ebp+31], bl
  00246	e9 b7 00 00 00	 jmp	 $LN1@LoadInt_e@6
$LN66@LoadInt_e@6:
  0024b	88 4d f6	 mov	 BYTE PTR __k$[ebp+30], cl
  0024e	e9 af 00 00 00	 jmp	 $LN1@LoadInt_e@6
$LN68@LoadInt_e@6:
  00253	c6 45 f4 ed	 mov	 BYTE PTR __k$[ebp+28], -19 ; ffffffedH
  00257	e9 a6 00 00 00	 jmp	 $LN1@LoadInt_e@6
$LN69@LoadInt_e@6:
  0025c	88 5d f3	 mov	 BYTE PTR __k$[ebp+27], bl
  0025f	e9 9e 00 00 00	 jmp	 $LN1@LoadInt_e@6
$LN70@LoadInt_e@6:
  00264	88 4d f2	 mov	 BYTE PTR __k$[ebp+26], cl
  00267	e9 96 00 00 00	 jmp	 $LN1@LoadInt_e@6
$LN71@LoadInt_e@6:
  0026c	c6 45 f1 ec	 mov	 BYTE PTR __k$[ebp+25], -20 ; ffffffecH
  00270	e9 8d 00 00 00	 jmp	 $LN1@LoadInt_e@6
$LN72@LoadInt_e@6:
  00275	c6 45 f0 ed	 mov	 BYTE PTR __k$[ebp+24], -19 ; ffffffedH
  00279	e9 84 00 00 00	 jmp	 $LN1@LoadInt_e@6
$LN73@LoadInt_e@6:
  0027e	88 5d ef	 mov	 BYTE PTR __k$[ebp+23], bl
  00281	eb 7f		 jmp	 SHORT $LN1@LoadInt_e@6
$LN74@LoadInt_e@6:
  00283	88 4d ee	 mov	 BYTE PTR __k$[ebp+22], cl
  00286	eb 7a		 jmp	 SHORT $LN1@LoadInt_e@6
$LN75@LoadInt_e@6:
  00288	c6 45 ed ec	 mov	 BYTE PTR __k$[ebp+21], -20 ; ffffffecH
  0028c	eb 74		 jmp	 SHORT $LN1@LoadInt_e@6
$LN76@LoadInt_e@6:
  0028e	c6 45 ec ed	 mov	 BYTE PTR __k$[ebp+20], -19 ; ffffffedH
  00292	eb 6e		 jmp	 SHORT $LN1@LoadInt_e@6
$LN77@LoadInt_e@6:
  00294	88 5d eb	 mov	 BYTE PTR __k$[ebp+19], bl
  00297	eb 69		 jmp	 SHORT $LN1@LoadInt_e@6
$LN78@LoadInt_e@6:
  00299	88 4d ea	 mov	 BYTE PTR __k$[ebp+18], cl
  0029c	eb 64		 jmp	 SHORT $LN1@LoadInt_e@6
$LN79@LoadInt_e@6:
  0029e	c6 45 e9 ec	 mov	 BYTE PTR __k$[ebp+17], -20 ; ffffffecH
  002a2	eb 5e		 jmp	 SHORT $LN1@LoadInt_e@6
$LN80@LoadInt_e@6:
  002a4	c6 45 e8 ed	 mov	 BYTE PTR __k$[ebp+16], -19 ; ffffffedH
  002a8	eb 58		 jmp	 SHORT $LN1@LoadInt_e@6
$LN81@LoadInt_e@6:
  002aa	88 5d e7	 mov	 BYTE PTR __k$[ebp+15], bl
  002ad	eb 53		 jmp	 SHORT $LN1@LoadInt_e@6
$LN82@LoadInt_e@6:
  002af	88 4d e6	 mov	 BYTE PTR __k$[ebp+14], cl
  002b2	eb 4e		 jmp	 SHORT $LN1@LoadInt_e@6
$LN83@LoadInt_e@6:
  002b4	c6 45 e5 ec	 mov	 BYTE PTR __k$[ebp+13], -20 ; ffffffecH
  002b8	eb 48		 jmp	 SHORT $LN1@LoadInt_e@6
$LN84@LoadInt_e@6:
  002ba	c6 45 e4 ed	 mov	 BYTE PTR __k$[ebp+12], -19 ; ffffffedH
  002be	eb 42		 jmp	 SHORT $LN1@LoadInt_e@6
$LN85@LoadInt_e@6:
  002c0	88 5d e3	 mov	 BYTE PTR __k$[ebp+11], bl
  002c3	eb 3d		 jmp	 SHORT $LN1@LoadInt_e@6
$LN86@LoadInt_e@6:
  002c5	88 4d e2	 mov	 BYTE PTR __k$[ebp+10], cl
  002c8	eb 38		 jmp	 SHORT $LN1@LoadInt_e@6
$LN87@LoadInt_e@6:
  002ca	c6 45 e1 ec	 mov	 BYTE PTR __k$[ebp+9], -20 ; ffffffecH
  002ce	eb 32		 jmp	 SHORT $LN1@LoadInt_e@6
$LN88@LoadInt_e@6:
  002d0	c6 45 e0 ed	 mov	 BYTE PTR __k$[ebp+8], -19 ; ffffffedH
  002d4	eb 2c		 jmp	 SHORT $LN1@LoadInt_e@6
$LN89@LoadInt_e@6:
  002d6	88 5d df	 mov	 BYTE PTR __k$[ebp+7], bl
  002d9	eb 27		 jmp	 SHORT $LN1@LoadInt_e@6
$LN90@LoadInt_e@6:
  002db	88 4d de	 mov	 BYTE PTR __k$[ebp+6], cl
  002de	eb 22		 jmp	 SHORT $LN1@LoadInt_e@6
$LN91@LoadInt_e@6:
  002e0	c6 45 dd ec	 mov	 BYTE PTR __k$[ebp+5], -20 ; ffffffecH
  002e4	eb 1c		 jmp	 SHORT $LN1@LoadInt_e@6
$LN92@LoadInt_e@6:
  002e6	c6 45 dc ed	 mov	 BYTE PTR __k$[ebp+4], -19 ; ffffffedH
  002ea	eb 16		 jmp	 SHORT $LN1@LoadInt_e@6
$LN93@LoadInt_e@6:
  002ec	c6 45 db ea	 mov	 BYTE PTR __k$[ebp+3], -22 ; ffffffeaH
  002f0	eb 10		 jmp	 SHORT $LN1@LoadInt_e@6
$LN94@LoadInt_e@6:
  002f2	c6 45 da eb	 mov	 BYTE PTR __k$[ebp+2], -21 ; ffffffebH
  002f6	eb 0a		 jmp	 SHORT $LN1@LoadInt_e@6
$LN95@LoadInt_e@6:
  002f8	c6 45 d9 ec	 mov	 BYTE PTR __k$[ebp+1], -20 ; ffffffecH
  002fc	eb 04		 jmp	 SHORT $LN1@LoadInt_e@6
$LN96@LoadInt_e@6:
  002fe	c6 45 d8 ed	 mov	 BYTE PTR __k$[ebp], -19	; ffffffedH
$LN1@LoadInt_e@6:
  00302	6a 07		 push	 7
  00304	8d 45 d8	 lea	 eax, DWORD PTR __k$[ebp]
  00307	c6 45 f5 00	 mov	 BYTE PTR __k$[ebp+29], 0
  0030b	5a		 pop	 edx
$LL104@LoadInt_e@6:
  0030c	81 30 ed ec eb
	ea		 xor	 DWORD PTR [eax], -353637139 ; eaebecedH
  00312	83 c0 04	 add	 eax, 4
  00315	4a		 dec	 edx
  00316	75 f4		 jne	 SHORT $LL104@LoadInt_e@6

; 120  : 		return LoadInt(_k, i);

  00318	ff 75 0c	 push	 DWORD PTR _i$[ebp]
  0031b	80 75 f4 ed	 xor	 BYTE PTR __k$[ebp+28], -19 ; ffffffedH
  0031f	8d 45 d8	 lea	 eax, DWORD PTR __k$[ebp]
  00322	50		 push	 eax
  00323	8b ce		 mov	 ecx, esi
  00325	ff 15 00 00 00
	00		 call	 DWORD PTR __imp_?LoadInt@ioINILoader@@QAEHPBDH@Z

; 121  : 	}

  0032b	8b 4d fc	 mov	 ecx, DWORD PTR __$ArrayPad$[ebp]
  0032e	5e		 pop	 esi
  0032f	33 cd		 xor	 ecx, ebp
  00331	5b		 pop	 ebx
  00332	e8 00 00 00 00	 call	 @__security_check_cookie@4
  00337	c9		 leave
  00338	c2 08 00	 ret	 8
??$LoadInt_e@$0BO@@ioINILoader@@QAEHAAY0BO@$$CBDH@Z ENDP ; ioINILoader::LoadInt_e<30>
_TEXT	ENDS
PUBLIC	__$ArrayPad$
PUBLIC	??$LoadAttackAttribute_e@$0BG@@@YAXAAY0BG@$$CBDAAUAttackAttribute@@AAVioINILoader@@@Z ; LoadAttackAttribute_e<22>
; Function compile flags: /Ogsp
; File d:\lost saga for developer\youtube\tutorial\source\src\lsclient\ioattackattribute.h
;	COMDAT ??$LoadAttackAttribute_e@$0BG@@@YAXAAY0BG@$$CBDAAUAttackAttribute@@AAVioINILoader@@@Z
_TEXT	SEGMENT
_szEncAttack$ = -32					; size = 22
__$ArrayPad$ = -4					; size = 4
_szAttack$ = 8						; size = 4
_rkAttribute$ = 12					; size = 4
_rkLoader$ = 16						; size = 4
??$LoadAttackAttribute_e@$0BG@@@YAXAAY0BG@$$CBDAAUAttackAttribute@@AAVioINILoader@@@Z PROC ; LoadAttackAttribute_e<22>, COMDAT

; 131  : {

  00000	55		 push	 ebp
  00001	8b ec		 mov	 ebp, esp
  00003	83 ec 20	 sub	 esp, 32			; 00000020H
  00006	a1 00 00 00 00	 mov	 eax, DWORD PTR ___security_cookie
  0000b	33 c5		 xor	 eax, ebp
  0000d	89 45 fc	 mov	 DWORD PTR __$ArrayPad$[ebp], eax
  00010	8b 45 08	 mov	 eax, DWORD PTR _szAttack$[ebp]

; 132  : 	_ENCSTR(szAttack, szEncAttack);

  00013	8a 08		 mov	 cl, BYTE PTR [eax]
  00015	53		 push	 ebx
  00016	56		 push	 esi
  00017	8b 75 0c	 mov	 esi, DWORD PTR _rkAttribute$[ebp]
  0001a	57		 push	 edi
  0001b	8b 7d 10	 mov	 edi, DWORD PTR _rkLoader$[ebp]
  0001e	84 c9		 test	 cl, cl
  00020	0f 84 15 02 00
	00		 je	 $LN96@LoadAttack@6
  00026	80 f1 ed	 xor	 cl, -19			; ffffffedH
  00029	88 4d e0	 mov	 BYTE PTR _szEncAttack$[ebp], cl
  0002c	8a 48 01	 mov	 cl, BYTE PTR [eax+1]
  0002f	84 c9		 test	 cl, cl
  00031	0f 84 fe 01 00
	00		 je	 $LN95@LoadAttack@6
  00037	80 f1 ec	 xor	 cl, -20			; ffffffecH
  0003a	88 4d e1	 mov	 BYTE PTR _szEncAttack$[ebp+1], cl
  0003d	8a 48 02	 mov	 cl, BYTE PTR [eax+2]
  00040	84 c9		 test	 cl, cl
  00042	0f 84 e7 01 00
	00		 je	 $LN94@LoadAttack@6
  00048	b3 eb		 mov	 bl, -21			; ffffffebH
  0004a	32 cb		 xor	 cl, bl
  0004c	88 4d e2	 mov	 BYTE PTR _szEncAttack$[ebp+2], cl
  0004f	8a 48 03	 mov	 cl, BYTE PTR [eax+3]
  00052	84 c9		 test	 cl, cl
  00054	0f 84 cf 01 00
	00		 je	 $LN93@LoadAttack@6
  0005a	b2 ea		 mov	 dl, -22			; ffffffeaH
  0005c	32 ca		 xor	 cl, dl
  0005e	88 4d e3	 mov	 BYTE PTR _szEncAttack$[ebp+3], cl
  00061	8a 48 04	 mov	 cl, BYTE PTR [eax+4]
  00064	84 c9		 test	 cl, cl
  00066	0f 84 b7 01 00
	00		 je	 $LN92@LoadAttack@6
  0006c	80 f1 ed	 xor	 cl, -19			; ffffffedH
  0006f	88 4d e4	 mov	 BYTE PTR _szEncAttack$[ebp+4], cl
  00072	8a 48 05	 mov	 cl, BYTE PTR [eax+5]
  00075	84 c9		 test	 cl, cl
  00077	0f 84 a0 01 00
	00		 je	 $LN91@LoadAttack@6
  0007d	80 f1 ec	 xor	 cl, -20			; ffffffecH
  00080	88 4d e5	 mov	 BYTE PTR _szEncAttack$[ebp+5], cl
  00083	8a 48 06	 mov	 cl, BYTE PTR [eax+6]
  00086	84 c9		 test	 cl, cl
  00088	0f 84 8a 01 00
	00		 je	 $LN90@LoadAttack@6
  0008e	32 cb		 xor	 cl, bl
  00090	88 4d e6	 mov	 BYTE PTR _szEncAttack$[ebp+6], cl
  00093	8a 48 07	 mov	 cl, BYTE PTR [eax+7]
  00096	84 c9		 test	 cl, cl
  00098	0f 84 75 01 00
	00		 je	 $LN89@LoadAttack@6
  0009e	32 ca		 xor	 cl, dl
  000a0	88 4d e7	 mov	 BYTE PTR _szEncAttack$[ebp+7], cl
  000a3	8a 48 08	 mov	 cl, BYTE PTR [eax+8]
  000a6	84 c9		 test	 cl, cl
  000a8	0f 84 5f 01 00
	00		 je	 $LN88@LoadAttack@6
  000ae	80 f1 ed	 xor	 cl, -19			; ffffffedH
  000b1	88 4d e8	 mov	 BYTE PTR _szEncAttack$[ebp+8], cl
  000b4	8a 48 09	 mov	 cl, BYTE PTR [eax+9]
  000b7	84 c9		 test	 cl, cl
  000b9	0f 84 48 01 00
	00		 je	 $LN87@LoadAttack@6
  000bf	80 f1 ec	 xor	 cl, -20			; ffffffecH
  000c2	88 4d e9	 mov	 BYTE PTR _szEncAttack$[ebp+9], cl
  000c5	8a 48 0a	 mov	 cl, BYTE PTR [eax+10]
  000c8	84 c9		 test	 cl, cl
  000ca	0f 84 32 01 00
	00		 je	 $LN86@LoadAttack@6
  000d0	32 cb		 xor	 cl, bl
  000d2	88 4d ea	 mov	 BYTE PTR _szEncAttack$[ebp+10], cl
  000d5	8a 48 0b	 mov	 cl, BYTE PTR [eax+11]
  000d8	84 c9		 test	 cl, cl
  000da	0f 84 1d 01 00
	00		 je	 $LN85@LoadAttack@6
  000e0	32 ca		 xor	 cl, dl
  000e2	88 4d eb	 mov	 BYTE PTR _szEncAttack$[ebp+11], cl
  000e5	8a 48 0c	 mov	 cl, BYTE PTR [eax+12]
  000e8	84 c9		 test	 cl, cl
  000ea	0f 84 07 01 00
	00		 je	 $LN84@LoadAttack@6
  000f0	80 f1 ed	 xor	 cl, -19			; ffffffedH
  000f3	88 4d ec	 mov	 BYTE PTR _szEncAttack$[ebp+12], cl
  000f6	8a 48 0d	 mov	 cl, BYTE PTR [eax+13]
  000f9	84 c9		 test	 cl, cl
  000fb	0f 84 f0 00 00
	00		 je	 $LN83@LoadAttack@6
  00101	80 f1 ec	 xor	 cl, -20			; ffffffecH
  00104	88 4d ed	 mov	 BYTE PTR _szEncAttack$[ebp+13], cl
  00107	8a 48 0e	 mov	 cl, BYTE PTR [eax+14]
  0010a	84 c9		 test	 cl, cl
  0010c	0f 84 da 00 00
	00		 je	 $LN82@LoadAttack@6
  00112	32 cb		 xor	 cl, bl
  00114	88 4d ee	 mov	 BYTE PTR _szEncAttack$[ebp+14], cl
  00117	8a 48 0f	 mov	 cl, BYTE PTR [eax+15]
  0011a	84 c9		 test	 cl, cl
  0011c	0f 84 c5 00 00
	00		 je	 $LN81@LoadAttack@6
  00122	32 ca		 xor	 cl, dl
  00124	88 4d ef	 mov	 BYTE PTR _szEncAttack$[ebp+15], cl
  00127	8a 48 10	 mov	 cl, BYTE PTR [eax+16]
  0012a	84 c9		 test	 cl, cl
  0012c	0f 84 af 00 00
	00		 je	 $LN80@LoadAttack@6
  00132	80 f1 ed	 xor	 cl, -19			; ffffffedH
  00135	88 4d f0	 mov	 BYTE PTR _szEncAttack$[ebp+16], cl
  00138	8a 48 11	 mov	 cl, BYTE PTR [eax+17]
  0013b	84 c9		 test	 cl, cl
  0013d	0f 84 98 00 00
	00		 je	 $LN79@LoadAttack@6
  00143	80 f1 ec	 xor	 cl, -20			; ffffffecH
  00146	88 4d f1	 mov	 BYTE PTR _szEncAttack$[ebp+17], cl
  00149	8a 48 12	 mov	 cl, BYTE PTR [eax+18]
  0014c	84 c9		 test	 cl, cl
  0014e	0f 84 82 00 00
	00		 je	 $LN78@LoadAttack@6
  00154	32 cb		 xor	 cl, bl
  00156	88 4d f2	 mov	 BYTE PTR _szEncAttack$[ebp+18], cl
  00159	8a 48 13	 mov	 cl, BYTE PTR [eax+19]
  0015c	84 c9		 test	 cl, cl
  0015e	74 71		 je	 SHORT $LN77@LoadAttack@6
  00160	32 ca		 xor	 cl, dl
  00162	88 4d f3	 mov	 BYTE PTR _szEncAttack$[ebp+19], cl
  00165	8a 48 14	 mov	 cl, BYTE PTR [eax+20]
  00168	84 c9		 test	 cl, cl
  0016a	74 5f		 je	 SHORT $LN76@LoadAttack@6
  0016c	80 f1 ed	 xor	 cl, -19			; ffffffedH
  0016f	80 78 15 00	 cmp	 BYTE PTR [eax+21], 0
  00173	88 4d f4	 mov	 BYTE PTR _szEncAttack$[ebp+20], cl
  00176	0f 84 c3 00 00
	00		 je	 $LN1@LoadAttack@6
  0017c	8a 48 16	 mov	 cl, BYTE PTR [eax+22]
  0017f	84 c9		 test	 cl, cl
  00181	74 43		 je	 SHORT $LN74@LoadAttack@6
  00183	32 cb		 xor	 cl, bl
  00185	88 4d f6	 mov	 BYTE PTR _szEncAttack$[ebp+22], cl
  00188	8a 48 17	 mov	 cl, BYTE PTR [eax+23]
  0018b	84 c9		 test	 cl, cl
  0018d	74 32		 je	 SHORT $LN73@LoadAttack@6
  0018f	32 ca		 xor	 cl, dl
  00191	88 4d f7	 mov	 BYTE PTR _szEncAttack$[ebp+23], cl
  00194	8a 48 18	 mov	 cl, BYTE PTR [eax+24]
  00197	84 c9		 test	 cl, cl
  00199	74 20		 je	 SHORT $LN72@LoadAttack@6
  0019b	8a 40 19	 mov	 al, BYTE PTR [eax+25]
  0019e	80 f1 ed	 xor	 cl, -19			; ffffffedH
  001a1	88 4d f8	 mov	 BYTE PTR _szEncAttack$[ebp+24], cl
  001a4	84 c0		 test	 al, al
  001a6	74 0a		 je	 SHORT $LN71@LoadAttack@6
  001a8	34 ec		 xor	 al, -20			; ffffffecH
  001aa	88 45 f9	 mov	 BYTE PTR _szEncAttack$[ebp+25], al
  001ad	e9 8d 00 00 00	 jmp	 $LN1@LoadAttack@6
$LN71@LoadAttack@6:
  001b2	c6 45 f9 ec	 mov	 BYTE PTR _szEncAttack$[ebp+25], -20 ; ffffffecH
  001b6	e9 84 00 00 00	 jmp	 $LN1@LoadAttack@6
$LN72@LoadAttack@6:
  001bb	c6 45 f8 ed	 mov	 BYTE PTR _szEncAttack$[ebp+24], -19 ; ffffffedH
  001bf	eb 7e		 jmp	 SHORT $LN1@LoadAttack@6
$LN73@LoadAttack@6:
  001c1	88 55 f7	 mov	 BYTE PTR _szEncAttack$[ebp+23], dl
  001c4	eb 79		 jmp	 SHORT $LN1@LoadAttack@6
$LN74@LoadAttack@6:
  001c6	88 5d f6	 mov	 BYTE PTR _szEncAttack$[ebp+22], bl
  001c9	eb 74		 jmp	 SHORT $LN1@LoadAttack@6
$LN76@LoadAttack@6:
  001cb	c6 45 f4 ed	 mov	 BYTE PTR _szEncAttack$[ebp+20], -19 ; ffffffedH
  001cf	eb 6e		 jmp	 SHORT $LN1@LoadAttack@6
$LN77@LoadAttack@6:
  001d1	88 55 f3	 mov	 BYTE PTR _szEncAttack$[ebp+19], dl
  001d4	eb 69		 jmp	 SHORT $LN1@LoadAttack@6
$LN78@LoadAttack@6:
  001d6	88 5d f2	 mov	 BYTE PTR _szEncAttack$[ebp+18], bl
  001d9	eb 64		 jmp	 SHORT $LN1@LoadAttack@6
$LN79@LoadAttack@6:
  001db	c6 45 f1 ec	 mov	 BYTE PTR _szEncAttack$[ebp+17], -20 ; ffffffecH
  001df	eb 5e		 jmp	 SHORT $LN1@LoadAttack@6
$LN80@LoadAttack@6:
  001e1	c6 45 f0 ed	 mov	 BYTE PTR _szEncAttack$[ebp+16], -19 ; ffffffedH
  001e5	eb 58		 jmp	 SHORT $LN1@LoadAttack@6
$LN81@LoadAttack@6:
  001e7	88 55 ef	 mov	 BYTE PTR _szEncAttack$[ebp+15], dl
  001ea	eb 53		 jmp	 SHORT $LN1@LoadAttack@6
$LN82@LoadAttack@6:
  001ec	88 5d ee	 mov	 BYTE PTR _szEncAttack$[ebp+14], bl
  001ef	eb 4e		 jmp	 SHORT $LN1@LoadAttack@6
$LN83@LoadAttack@6:
  001f1	c6 45 ed ec	 mov	 BYTE PTR _szEncAttack$[ebp+13], -20 ; ffffffecH
  001f5	eb 48		 jmp	 SHORT $LN1@LoadAttack@6
$LN84@LoadAttack@6:
  001f7	c6 45 ec ed	 mov	 BYTE PTR _szEncAttack$[ebp+12], -19 ; ffffffedH
  001fb	eb 42		 jmp	 SHORT $LN1@LoadAttack@6
$LN85@LoadAttack@6:
  001fd	88 55 eb	 mov	 BYTE PTR _szEncAttack$[ebp+11], dl
  00200	eb 3d		 jmp	 SHORT $LN1@LoadAttack@6
$LN86@LoadAttack@6:
  00202	88 5d ea	 mov	 BYTE PTR _szEncAttack$[ebp+10], bl
  00205	eb 38		 jmp	 SHORT $LN1@LoadAttack@6
$LN87@LoadAttack@6:
  00207	c6 45 e9 ec	 mov	 BYTE PTR _szEncAttack$[ebp+9], -20 ; ffffffecH
  0020b	eb 32		 jmp	 SHORT $LN1@LoadAttack@6
$LN88@LoadAttack@6:
  0020d	c6 45 e8 ed	 mov	 BYTE PTR _szEncAttack$[ebp+8], -19 ; ffffffedH
  00211	eb 2c		 jmp	 SHORT $LN1@LoadAttack@6
$LN89@LoadAttack@6:
  00213	88 55 e7	 mov	 BYTE PTR _szEncAttack$[ebp+7], dl
  00216	eb 27		 jmp	 SHORT $LN1@LoadAttack@6
$LN90@LoadAttack@6:
  00218	88 5d e6	 mov	 BYTE PTR _szEncAttack$[ebp+6], bl
  0021b	eb 22		 jmp	 SHORT $LN1@LoadAttack@6
$LN91@LoadAttack@6:
  0021d	c6 45 e5 ec	 mov	 BYTE PTR _szEncAttack$[ebp+5], -20 ; ffffffecH
  00221	eb 1c		 jmp	 SHORT $LN1@LoadAttack@6
$LN92@LoadAttack@6:
  00223	c6 45 e4 ed	 mov	 BYTE PTR _szEncAttack$[ebp+4], -19 ; ffffffedH
  00227	eb 16		 jmp	 SHORT $LN1@LoadAttack@6
$LN93@LoadAttack@6:
  00229	c6 45 e3 ea	 mov	 BYTE PTR _szEncAttack$[ebp+3], -22 ; ffffffeaH
  0022d	eb 10		 jmp	 SHORT $LN1@LoadAttack@6
$LN94@LoadAttack@6:
  0022f	c6 45 e2 eb	 mov	 BYTE PTR _szEncAttack$[ebp+2], -21 ; ffffffebH
  00233	eb 0a		 jmp	 SHORT $LN1@LoadAttack@6
$LN95@LoadAttack@6:
  00235	c6 45 e1 ec	 mov	 BYTE PTR _szEncAttack$[ebp+1], -20 ; ffffffecH
  00239	eb 04		 jmp	 SHORT $LN1@LoadAttack@6
$LN96@LoadAttack@6:
  0023b	c6 45 e0 ed	 mov	 BYTE PTR _szEncAttack$[ebp], -19 ; ffffffedH
$LN1@LoadAttack@6:
  0023f	6a 05		 push	 5
  00241	8d 45 e0	 lea	 eax, DWORD PTR _szEncAttack$[ebp]
  00244	c6 45 f5 00	 mov	 BYTE PTR _szEncAttack$[ebp+21], 0
  00248	59		 pop	 ecx
$LL104@LoadAttack@6:
  00249	81 30 ed ec eb
	ea		 xor	 DWORD PTR [eax], -353637139 ; eaebecedH
  0024f	83 c0 04	 add	 eax, 4
  00252	49		 dec	 ecx
  00253	75 f4		 jne	 SHORT $LL104@LoadAttack@6
  00255	80 75 f4 ed	 xor	 BYTE PTR _szEncAttack$[ebp+20], -19 ; ffffffedH

; 133  : 	LoadAttackAttribute(szEncAttack, rkAttribute, rkLoader);

  00259	57		 push	 edi
  0025a	8d 45 e0	 lea	 eax, DWORD PTR _szEncAttack$[ebp]
  0025d	56		 push	 esi
  0025e	50		 push	 eax
  0025f	e8 00 00 00 00	 call	 ?LoadAttackAttribute@@YAXPBDAAUAttackAttribute@@AAVioINILoader@@@Z ; LoadAttackAttribute

; 134  : }

  00264	8b 4d fc	 mov	 ecx, DWORD PTR __$ArrayPad$[ebp]
  00267	83 c4 0c	 add	 esp, 12			; 0000000cH
  0026a	5f		 pop	 edi
  0026b	5e		 pop	 esi
  0026c	33 cd		 xor	 ecx, ebp
  0026e	5b		 pop	 ebx
  0026f	e8 00 00 00 00	 call	 @__security_check_cookie@4
  00274	c9		 leave
  00275	c3		 ret	 0
??$LoadAttackAttribute_e@$0BG@@@YAXAAY0BG@$$CBDAAUAttackAttribute@@AAVioINILoader@@@Z ENDP ; LoadAttackAttribute_e<22>
_TEXT	ENDS
PUBLIC	__$ArrayPad$
PUBLIC	??$LoadAttackAttribute_e@$0BN@@@YAXAAY0BN@$$CBDAAUAttackAttribute@@AAVioINILoader@@@Z ; LoadAttackAttribute_e<29>
; Function compile flags: /Ogsp
;	COMDAT ??$LoadAttackAttribute_e@$0BN@@@YAXAAY0BN@$$CBDAAUAttackAttribute@@AAVioINILoader@@@Z
_TEXT	SEGMENT
_szEncAttack$ = -40					; size = 29
__$ArrayPad$ = -4					; size = 4
_szAttack$ = 8						; size = 4
_rkAttribute$ = 12					; size = 4
_rkLoader$ = 16						; size = 4
??$LoadAttackAttribute_e@$0BN@@@YAXAAY0BN@$$CBDAAUAttackAttribute@@AAVioINILoader@@@Z PROC ; LoadAttackAttribute_e<29>, COMDAT

; 131  : {

  00000	55		 push	 ebp
  00001	8b ec		 mov	 ebp, esp
  00003	83 ec 28	 sub	 esp, 40			; 00000028H
  00006	a1 00 00 00 00	 mov	 eax, DWORD PTR ___security_cookie
  0000b	33 c5		 xor	 eax, ebp
  0000d	89 45 fc	 mov	 DWORD PTR __$ArrayPad$[ebp], eax
  00010	8b 45 08	 mov	 eax, DWORD PTR _szAttack$[ebp]

; 132  : 	_ENCSTR(szAttack, szEncAttack);

  00013	8a 08		 mov	 cl, BYTE PTR [eax]
  00015	53		 push	 ebx
  00016	56		 push	 esi
  00017	8b 75 0c	 mov	 esi, DWORD PTR _rkAttribute$[ebp]
  0001a	57		 push	 edi
  0001b	8b 7d 10	 mov	 edi, DWORD PTR _rkLoader$[ebp]
  0001e	84 c9		 test	 cl, cl
  00020	0f 84 c3 02 00
	00		 je	 $LN96@LoadAttack@7
  00026	80 f1 ed	 xor	 cl, -19			; ffffffedH
  00029	88 4d d8	 mov	 BYTE PTR _szEncAttack$[ebp], cl
  0002c	8a 48 01	 mov	 cl, BYTE PTR [eax+1]
  0002f	84 c9		 test	 cl, cl
  00031	0f 84 ac 02 00
	00		 je	 $LN95@LoadAttack@7
  00037	b3 ec		 mov	 bl, -20			; ffffffecH
  00039	32 cb		 xor	 cl, bl
  0003b	88 4d d9	 mov	 BYTE PTR _szEncAttack$[ebp+1], cl
  0003e	8a 48 02	 mov	 cl, BYTE PTR [eax+2]
  00041	84 c9		 test	 cl, cl
  00043	0f 84 94 02 00
	00		 je	 $LN94@LoadAttack@7
  00049	b2 eb		 mov	 dl, -21			; ffffffebH
  0004b	32 ca		 xor	 cl, dl
  0004d	88 4d da	 mov	 BYTE PTR _szEncAttack$[ebp+2], cl
  00050	8a 48 03	 mov	 cl, BYTE PTR [eax+3]
  00053	84 c9		 test	 cl, cl
  00055	0f 84 7c 02 00
	00		 je	 $LN93@LoadAttack@7
  0005b	80 f1 ea	 xor	 cl, -22			; ffffffeaH
  0005e	88 4d db	 mov	 BYTE PTR _szEncAttack$[ebp+3], cl
  00061	8a 48 04	 mov	 cl, BYTE PTR [eax+4]
  00064	84 c9		 test	 cl, cl
  00066	0f 84 65 02 00
	00		 je	 $LN92@LoadAttack@7
  0006c	80 f1 ed	 xor	 cl, -19			; ffffffedH
  0006f	88 4d dc	 mov	 BYTE PTR _szEncAttack$[ebp+4], cl
  00072	8a 48 05	 mov	 cl, BYTE PTR [eax+5]
  00075	84 c9		 test	 cl, cl
  00077	0f 84 4f 02 00
	00		 je	 $LN91@LoadAttack@7
  0007d	32 cb		 xor	 cl, bl
  0007f	88 4d dd	 mov	 BYTE PTR _szEncAttack$[ebp+5], cl
  00082	8a 48 06	 mov	 cl, BYTE PTR [eax+6]
  00085	84 c9		 test	 cl, cl
  00087	0f 84 3a 02 00
	00		 je	 $LN90@LoadAttack@7
  0008d	32 ca		 xor	 cl, dl
  0008f	88 4d de	 mov	 BYTE PTR _szEncAttack$[ebp+6], cl
  00092	8a 48 07	 mov	 cl, BYTE PTR [eax+7]
  00095	84 c9		 test	 cl, cl
  00097	0f 84 24 02 00
	00		 je	 $LN89@LoadAttack@7
  0009d	80 f1 ea	 xor	 cl, -22			; ffffffeaH
  000a0	88 4d df	 mov	 BYTE PTR _szEncAttack$[ebp+7], cl
  000a3	8a 48 08	 mov	 cl, BYTE PTR [eax+8]
  000a6	84 c9		 test	 cl, cl
  000a8	0f 84 0d 02 00
	00		 je	 $LN88@LoadAttack@7
  000ae	80 f1 ed	 xor	 cl, -19			; ffffffedH
  000b1	88 4d e0	 mov	 BYTE PTR _szEncAttack$[ebp+8], cl
  000b4	8a 48 09	 mov	 cl, BYTE PTR [eax+9]
  000b7	84 c9		 test	 cl, cl
  000b9	0f 84 f7 01 00
	00		 je	 $LN87@LoadAttack@7
  000bf	32 cb		 xor	 cl, bl
  000c1	88 4d e1	 mov	 BYTE PTR _szEncAttack$[ebp+9], cl
  000c4	8a 48 0a	 mov	 cl, BYTE PTR [eax+10]
  000c7	84 c9		 test	 cl, cl
  000c9	0f 84 e2 01 00
	00		 je	 $LN86@LoadAttack@7
  000cf	32 ca		 xor	 cl, dl
  000d1	88 4d e2	 mov	 BYTE PTR _szEncAttack$[ebp+10], cl
  000d4	8a 48 0b	 mov	 cl, BYTE PTR [eax+11]
  000d7	84 c9		 test	 cl, cl
  000d9	0f 84 cc 01 00
	00		 je	 $LN85@LoadAttack@7
  000df	80 f1 ea	 xor	 cl, -22			; ffffffeaH
  000e2	88 4d e3	 mov	 BYTE PTR _szEncAttack$[ebp+11], cl
  000e5	8a 48 0c	 mov	 cl, BYTE PTR [eax+12]
  000e8	84 c9		 test	 cl, cl
  000ea	0f 84 b5 01 00
	00		 je	 $LN84@LoadAttack@7
  000f0	80 f1 ed	 xor	 cl, -19			; ffffffedH
  000f3	88 4d e4	 mov	 BYTE PTR _szEncAttack$[ebp+12], cl
  000f6	8a 48 0d	 mov	 cl, BYTE PTR [eax+13]
  000f9	84 c9		 test	 cl, cl
  000fb	0f 84 9f 01 00
	00		 je	 $LN83@LoadAttack@7
  00101	32 cb		 xor	 cl, bl
  00103	88 4d e5	 mov	 BYTE PTR _szEncAttack$[ebp+13], cl
  00106	8a 48 0e	 mov	 cl, BYTE PTR [eax+14]
  00109	84 c9		 test	 cl, cl
  0010b	0f 84 8a 01 00
	00		 je	 $LN82@LoadAttack@7
  00111	32 ca		 xor	 cl, dl
  00113	88 4d e6	 mov	 BYTE PTR _szEncAttack$[ebp+14], cl
  00116	8a 48 0f	 mov	 cl, BYTE PTR [eax+15]
  00119	84 c9		 test	 cl, cl
  0011b	0f 84 74 01 00
	00		 je	 $LN81@LoadAttack@7
  00121	80 f1 ea	 xor	 cl, -22			; ffffffeaH
  00124	88 4d e7	 mov	 BYTE PTR _szEncAttack$[ebp+15], cl
  00127	8a 48 10	 mov	 cl, BYTE PTR [eax+16]
  0012a	84 c9		 test	 cl, cl
  0012c	0f 84 5d 01 00
	00		 je	 $LN80@LoadAttack@7
  00132	80 f1 ed	 xor	 cl, -19			; ffffffedH
  00135	88 4d e8	 mov	 BYTE PTR _szEncAttack$[ebp+16], cl
  00138	8a 48 11	 mov	 cl, BYTE PTR [eax+17]
  0013b	84 c9		 test	 cl, cl
  0013d	0f 84 47 01 00
	00		 je	 $LN79@LoadAttack@7
  00143	32 cb		 xor	 cl, bl
  00145	88 4d e9	 mov	 BYTE PTR _szEncAttack$[ebp+17], cl
  00148	8a 48 12	 mov	 cl, BYTE PTR [eax+18]
  0014b	84 c9		 test	 cl, cl
  0014d	0f 84 32 01 00
	00		 je	 $LN78@LoadAttack@7
  00153	32 ca		 xor	 cl, dl
  00155	88 4d ea	 mov	 BYTE PTR _szEncAttack$[ebp+18], cl
  00158	8a 48 13	 mov	 cl, BYTE PTR [eax+19]
  0015b	84 c9		 test	 cl, cl
  0015d	0f 84 1c 01 00
	00		 je	 $LN77@LoadAttack@7
  00163	80 f1 ea	 xor	 cl, -22			; ffffffeaH
  00166	88 4d eb	 mov	 BYTE PTR _szEncAttack$[ebp+19], cl
  00169	8a 48 14	 mov	 cl, BYTE PTR [eax+20]
  0016c	84 c9		 test	 cl, cl
  0016e	0f 84 05 01 00
	00		 je	 $LN76@LoadAttack@7
  00174	80 f1 ed	 xor	 cl, -19			; ffffffedH
  00177	88 4d ec	 mov	 BYTE PTR _szEncAttack$[ebp+20], cl
  0017a	8a 48 15	 mov	 cl, BYTE PTR [eax+21]
  0017d	84 c9		 test	 cl, cl
  0017f	0f 84 ef 00 00
	00		 je	 $LN75@LoadAttack@7
  00185	32 cb		 xor	 cl, bl
  00187	88 4d ed	 mov	 BYTE PTR _szEncAttack$[ebp+21], cl
  0018a	8a 48 16	 mov	 cl, BYTE PTR [eax+22]
  0018d	84 c9		 test	 cl, cl
  0018f	0f 84 da 00 00
	00		 je	 $LN74@LoadAttack@7
  00195	32 ca		 xor	 cl, dl
  00197	88 4d ee	 mov	 BYTE PTR _szEncAttack$[ebp+22], cl
  0019a	8a 48 17	 mov	 cl, BYTE PTR [eax+23]
  0019d	84 c9		 test	 cl, cl
  0019f	0f 84 c4 00 00
	00		 je	 $LN73@LoadAttack@7
  001a5	80 f1 ea	 xor	 cl, -22			; ffffffeaH
  001a8	88 4d ef	 mov	 BYTE PTR _szEncAttack$[ebp+23], cl
  001ab	8a 48 18	 mov	 cl, BYTE PTR [eax+24]
  001ae	84 c9		 test	 cl, cl
  001b0	0f 84 aa 00 00
	00		 je	 $LN72@LoadAttack@7
  001b6	80 f1 ed	 xor	 cl, -19			; ffffffedH
  001b9	88 4d f0	 mov	 BYTE PTR _szEncAttack$[ebp+24], cl
  001bc	8a 48 19	 mov	 cl, BYTE PTR [eax+25]
  001bf	84 c9		 test	 cl, cl
  001c1	0f 84 91 00 00
	00		 je	 $LN71@LoadAttack@7
  001c7	32 cb		 xor	 cl, bl
  001c9	88 4d f1	 mov	 BYTE PTR _szEncAttack$[ebp+25], cl
  001cc	8a 48 1a	 mov	 cl, BYTE PTR [eax+26]
  001cf	84 c9		 test	 cl, cl
  001d1	74 7d		 je	 SHORT $LN70@LoadAttack@7
  001d3	32 ca		 xor	 cl, dl
  001d5	88 4d f2	 mov	 BYTE PTR _szEncAttack$[ebp+26], cl
  001d8	8a 48 1b	 mov	 cl, BYTE PTR [eax+27]
  001db	84 c9		 test	 cl, cl
  001dd	74 68		 je	 SHORT $LN69@LoadAttack@7
  001df	80 f1 ea	 xor	 cl, -22			; ffffffeaH
  001e2	80 78 1c 00	 cmp	 BYTE PTR [eax+28], 0
  001e6	88 4d f3	 mov	 BYTE PTR _szEncAttack$[ebp+27], cl
  001e9	0f 84 fe 00 00
	00		 je	 $LN1@LoadAttack@7
  001ef	8a 48 1d	 mov	 cl, BYTE PTR [eax+29]
  001f2	84 c9		 test	 cl, cl
  001f4	74 49		 je	 SHORT $LN67@LoadAttack@7
  001f6	32 cb		 xor	 cl, bl
  001f8	88 4d f5	 mov	 BYTE PTR _szEncAttack$[ebp+29], cl
  001fb	8a 48 1e	 mov	 cl, BYTE PTR [eax+30]
  001fe	84 c9		 test	 cl, cl
  00200	74 35		 je	 SHORT $LN66@LoadAttack@7
  00202	32 ca		 xor	 cl, dl
  00204	88 4d f6	 mov	 BYTE PTR _szEncAttack$[ebp+30], cl
  00207	8a 48 1f	 mov	 cl, BYTE PTR [eax+31]
  0020a	84 c9		 test	 cl, cl
  0020c	74 20		 je	 SHORT $LN65@LoadAttack@7
  0020e	8a 40 20	 mov	 al, BYTE PTR [eax+32]
  00211	80 f1 ea	 xor	 cl, -22			; ffffffeaH
  00214	88 4d f7	 mov	 BYTE PTR _szEncAttack$[ebp+31], cl
  00217	84 c0		 test	 al, al
  00219	74 0a		 je	 SHORT $LN64@LoadAttack@7
  0021b	34 ed		 xor	 al, -19			; ffffffedH
  0021d	88 45 f8	 mov	 BYTE PTR _szEncAttack$[ebp+32], al
  00220	e9 c8 00 00 00	 jmp	 $LN1@LoadAttack@7
$LN64@LoadAttack@7:
  00225	c6 45 f8 ed	 mov	 BYTE PTR _szEncAttack$[ebp+32], -19 ; ffffffedH
  00229	e9 bf 00 00 00	 jmp	 $LN1@LoadAttack@7
$LN65@LoadAttack@7:
  0022e	c6 45 f7 ea	 mov	 BYTE PTR _szEncAttack$[ebp+31], -22 ; ffffffeaH
  00232	e9 b6 00 00 00	 jmp	 $LN1@LoadAttack@7
$LN66@LoadAttack@7:
  00237	88 55 f6	 mov	 BYTE PTR _szEncAttack$[ebp+30], dl
  0023a	e9 ae 00 00 00	 jmp	 $LN1@LoadAttack@7
$LN67@LoadAttack@7:
  0023f	88 5d f5	 mov	 BYTE PTR _szEncAttack$[ebp+29], bl
  00242	e9 a6 00 00 00	 jmp	 $LN1@LoadAttack@7
$LN69@LoadAttack@7:
  00247	c6 45 f3 ea	 mov	 BYTE PTR _szEncAttack$[ebp+27], -22 ; ffffffeaH
  0024b	e9 9d 00 00 00	 jmp	 $LN1@LoadAttack@7
$LN70@LoadAttack@7:
  00250	88 55 f2	 mov	 BYTE PTR _szEncAttack$[ebp+26], dl
  00253	e9 95 00 00 00	 jmp	 $LN1@LoadAttack@7
$LN71@LoadAttack@7:
  00258	88 5d f1	 mov	 BYTE PTR _szEncAttack$[ebp+25], bl
  0025b	e9 8d 00 00 00	 jmp	 $LN1@LoadAttack@7
$LN72@LoadAttack@7:
  00260	c6 45 f0 ed	 mov	 BYTE PTR _szEncAttack$[ebp+24], -19 ; ffffffedH
  00264	e9 84 00 00 00	 jmp	 $LN1@LoadAttack@7
$LN73@LoadAttack@7:
  00269	c6 45 ef ea	 mov	 BYTE PTR _szEncAttack$[ebp+23], -22 ; ffffffeaH
  0026d	eb 7e		 jmp	 SHORT $LN1@LoadAttack@7
$LN74@LoadAttack@7:
  0026f	88 55 ee	 mov	 BYTE PTR _szEncAttack$[ebp+22], dl
  00272	eb 79		 jmp	 SHORT $LN1@LoadAttack@7
$LN75@LoadAttack@7:
  00274	88 5d ed	 mov	 BYTE PTR _szEncAttack$[ebp+21], bl
  00277	eb 74		 jmp	 SHORT $LN1@LoadAttack@7
$LN76@LoadAttack@7:
  00279	c6 45 ec ed	 mov	 BYTE PTR _szEncAttack$[ebp+20], -19 ; ffffffedH
  0027d	eb 6e		 jmp	 SHORT $LN1@LoadAttack@7
$LN77@LoadAttack@7:
  0027f	c6 45 eb ea	 mov	 BYTE PTR _szEncAttack$[ebp+19], -22 ; ffffffeaH
  00283	eb 68		 jmp	 SHORT $LN1@LoadAttack@7
$LN78@LoadAttack@7:
  00285	88 55 ea	 mov	 BYTE PTR _szEncAttack$[ebp+18], dl
  00288	eb 63		 jmp	 SHORT $LN1@LoadAttack@7
$LN79@LoadAttack@7:
  0028a	88 5d e9	 mov	 BYTE PTR _szEncAttack$[ebp+17], bl
  0028d	eb 5e		 jmp	 SHORT $LN1@LoadAttack@7
$LN80@LoadAttack@7:
  0028f	c6 45 e8 ed	 mov	 BYTE PTR _szEncAttack$[ebp+16], -19 ; ffffffedH
  00293	eb 58		 jmp	 SHORT $LN1@LoadAttack@7
$LN81@LoadAttack@7:
  00295	c6 45 e7 ea	 mov	 BYTE PTR _szEncAttack$[ebp+15], -22 ; ffffffeaH
  00299	eb 52		 jmp	 SHORT $LN1@LoadAttack@7
$LN82@LoadAttack@7:
  0029b	88 55 e6	 mov	 BYTE PTR _szEncAttack$[ebp+14], dl
  0029e	eb 4d		 jmp	 SHORT $LN1@LoadAttack@7
$LN83@LoadAttack@7:
  002a0	88 5d e5	 mov	 BYTE PTR _szEncAttack$[ebp+13], bl
  002a3	eb 48		 jmp	 SHORT $LN1@LoadAttack@7
$LN84@LoadAttack@7:
  002a5	c6 45 e4 ed	 mov	 BYTE PTR _szEncAttack$[ebp+12], -19 ; ffffffedH
  002a9	eb 42		 jmp	 SHORT $LN1@LoadAttack@7
$LN85@LoadAttack@7:
  002ab	c6 45 e3 ea	 mov	 BYTE PTR _szEncAttack$[ebp+11], -22 ; ffffffeaH
  002af	eb 3c		 jmp	 SHORT $LN1@LoadAttack@7
$LN86@LoadAttack@7:
  002b1	88 55 e2	 mov	 BYTE PTR _szEncAttack$[ebp+10], dl
  002b4	eb 37		 jmp	 SHORT $LN1@LoadAttack@7
$LN87@LoadAttack@7:
  002b6	88 5d e1	 mov	 BYTE PTR _szEncAttack$[ebp+9], bl
  002b9	eb 32		 jmp	 SHORT $LN1@LoadAttack@7
$LN88@LoadAttack@7:
  002bb	c6 45 e0 ed	 mov	 BYTE PTR _szEncAttack$[ebp+8], -19 ; ffffffedH
  002bf	eb 2c		 jmp	 SHORT $LN1@LoadAttack@7
$LN89@LoadAttack@7:
  002c1	c6 45 df ea	 mov	 BYTE PTR _szEncAttack$[ebp+7], -22 ; ffffffeaH
  002c5	eb 26		 jmp	 SHORT $LN1@LoadAttack@7
$LN90@LoadAttack@7:
  002c7	88 55 de	 mov	 BYTE PTR _szEncAttack$[ebp+6], dl
  002ca	eb 21		 jmp	 SHORT $LN1@LoadAttack@7
$LN91@LoadAttack@7:
  002cc	88 5d dd	 mov	 BYTE PTR _szEncAttack$[ebp+5], bl
  002cf	eb 1c		 jmp	 SHORT $LN1@LoadAttack@7
$LN92@LoadAttack@7:
  002d1	c6 45 dc ed	 mov	 BYTE PTR _szEncAttack$[ebp+4], -19 ; ffffffedH
  002d5	eb 16		 jmp	 SHORT $LN1@LoadAttack@7
$LN93@LoadAttack@7:
  002d7	c6 45 db ea	 mov	 BYTE PTR _szEncAttack$[ebp+3], -22 ; ffffffeaH
  002db	eb 10		 jmp	 SHORT $LN1@LoadAttack@7
$LN94@LoadAttack@7:
  002dd	c6 45 da eb	 mov	 BYTE PTR _szEncAttack$[ebp+2], -21 ; ffffffebH
  002e1	eb 0a		 jmp	 SHORT $LN1@LoadAttack@7
$LN95@LoadAttack@7:
  002e3	c6 45 d9 ec	 mov	 BYTE PTR _szEncAttack$[ebp+1], -20 ; ffffffecH
  002e7	eb 04		 jmp	 SHORT $LN1@LoadAttack@7
$LN96@LoadAttack@7:
  002e9	c6 45 d8 ed	 mov	 BYTE PTR _szEncAttack$[ebp], -19 ; ffffffedH
$LN1@LoadAttack@7:
  002ed	6a 07		 push	 7
  002ef	8d 45 d8	 lea	 eax, DWORD PTR _szEncAttack$[ebp]
  002f2	c6 45 f4 00	 mov	 BYTE PTR _szEncAttack$[ebp+28], 0
  002f6	59		 pop	 ecx
$LL104@LoadAttack@7:
  002f7	81 30 ed ec eb
	ea		 xor	 DWORD PTR [eax], -353637139 ; eaebecedH
  002fd	83 c0 04	 add	 eax, 4
  00300	49		 dec	 ecx
  00301	75 f4		 jne	 SHORT $LL104@LoadAttack@7

; 133  : 	LoadAttackAttribute(szEncAttack, rkAttribute, rkLoader);

  00303	57		 push	 edi
  00304	8d 45 d8	 lea	 eax, DWORD PTR _szEncAttack$[ebp]
  00307	56		 push	 esi
  00308	50		 push	 eax
  00309	e8 00 00 00 00	 call	 ?LoadAttackAttribute@@YAXPBDAAUAttackAttribute@@AAVioINILoader@@@Z ; LoadAttackAttribute

; 134  : }

  0030e	8b 4d fc	 mov	 ecx, DWORD PTR __$ArrayPad$[ebp]
  00311	83 c4 0c	 add	 esp, 12			; 0000000cH
  00314	5f		 pop	 edi
  00315	5e		 pop	 esi
  00316	33 cd		 xor	 ecx, ebp
  00318	5b		 pop	 ebx
  00319	e8 00 00 00 00	 call	 @__security_check_cookie@4
  0031e	c9		 leave
  0031f	c3		 ret	 0
??$LoadAttackAttribute_e@$0BN@@@YAXAAY0BN@$$CBDAAUAttackAttribute@@AAVioINILoader@@@Z ENDP ; LoadAttackAttribute_e<29>
_TEXT	ENDS
PUBLIC	?begin@?$vector@UWeaponInfo@@V?$allocator@UWeaponInfo@@@std@@@std@@QBE?AV?$_Vector_const_iterator@V?$_Vector_val@UWeaponInfo@@V?$allocator@UWeaponInfo@@@std@@@std@@@2@XZ ; std::vector<WeaponInfo,std::allocator<WeaponInfo> >::begin
; Function compile flags: /Ogsp
; File c:\program files (x86)\microsoft visual studio 10.0\vc\include\vector
;	COMDAT ?begin@?$vector@UWeaponInfo@@V?$allocator@UWeaponInfo@@@std@@@std@@QBE?AV?$_Vector_const_iterator@V?$_Vector_val@UWeaponInfo@@V?$allocator@UWeaponInfo@@@std@@@std@@@2@XZ
_TEXT	SEGMENT
___$ReturnUdt$ = 8					; size = 4
?begin@?$vector@UWeaponInfo@@V?$allocator@UWeaponInfo@@@std@@@std@@QBE?AV?$_Vector_const_iterator@V?$_Vector_val@UWeaponInfo@@V?$allocator@UWeaponInfo@@@std@@@std@@@2@XZ PROC ; std::vector<WeaponInfo,std::allocator<WeaponInfo> >::begin, COMDAT
; _this$ = ecx

; 786  : 		{	// return iterator for beginning of nonmutable sequence

  00000	55		 push	 ebp
  00001	8b ec		 mov	 ebp, esp

; 787  : 		return (const_iterator(this->_Myfirst, this));

  00003	8b 09		 mov	 ecx, DWORD PTR [ecx]
  00005	8b 45 08	 mov	 eax, DWORD PTR ___$ReturnUdt$[ebp]
  00008	89 08		 mov	 DWORD PTR [eax], ecx

; 788  : 		}

  0000a	5d		 pop	 ebp
  0000b	c2 04 00	 ret	 4
?begin@?$vector@UWeaponInfo@@V?$allocator@UWeaponInfo@@@std@@@std@@QBE?AV?$_Vector_const_iterator@V?$_Vector_val@UWeaponInfo@@V?$allocator@UWeaponInfo@@@std@@@std@@@2@XZ ENDP ; std::vector<WeaponInfo,std::allocator<WeaponInfo> >::begin
_TEXT	ENDS
PUBLIC	?end@?$vector@UWeaponInfo@@V?$allocator@UWeaponInfo@@@std@@@std@@QBE?AV?$_Vector_const_iterator@V?$_Vector_val@UWeaponInfo@@V?$allocator@UWeaponInfo@@@std@@@std@@@2@XZ ; std::vector<WeaponInfo,std::allocator<WeaponInfo> >::end
; Function compile flags: /Ogsp
;	COMDAT ?end@?$vector@UWeaponInfo@@V?$allocator@UWeaponInfo@@@std@@@std@@QBE?AV?$_Vector_const_iterator@V?$_Vector_val@UWeaponInfo@@V?$allocator@UWeaponInfo@@@std@@@std@@@2@XZ
_TEXT	SEGMENT
___$ReturnUdt$ = 8					; size = 4
?end@?$vector@UWeaponInfo@@V?$allocator@UWeaponInfo@@@std@@@std@@QBE?AV?$_Vector_const_iterator@V?$_Vector_val@UWeaponInfo@@V?$allocator@UWeaponInfo@@@std@@@std@@@2@XZ PROC ; std::vector<WeaponInfo,std::allocator<WeaponInfo> >::end, COMDAT
; _this$ = ecx

; 796  : 		{	// return iterator for end of nonmutable sequence

  00000	55		 push	 ebp
  00001	8b ec		 mov	 ebp, esp

; 797  : 		return (const_iterator(this->_Mylast, this));

  00003	8b 49 04	 mov	 ecx, DWORD PTR [ecx+4]
  00006	8b 45 08	 mov	 eax, DWORD PTR ___$ReturnUdt$[ebp]
  00009	89 08		 mov	 DWORD PTR [eax], ecx

; 798  : 		}

  0000b	5d		 pop	 ebp
  0000c	c2 04 00	 ret	 4
?end@?$vector@UWeaponInfo@@V?$allocator@UWeaponInfo@@@std@@@std@@QBE?AV?$_Vector_const_iterator@V?$_Vector_val@UWeaponInfo@@V?$allocator@UWeaponInfo@@@std@@@std@@@2@XZ ENDP ; std::vector<WeaponInfo,std::allocator<WeaponInfo> >::end
_TEXT	ENDS
PUBLIC	?begin@?$vector@UForceInfo@@V?$allocator@UForceInfo@@@std@@@std@@QBE?AV?$_Vector_const_iterator@V?$_Vector_val@UForceInfo@@V?$allocator@UForceInfo@@@std@@@std@@@2@XZ ; std::vector<ForceInfo,std::allocator<ForceInfo> >::begin
; Function compile flags: /Ogsp
;	COMDAT ?begin@?$vector@UForceInfo@@V?$allocator@UForceInfo@@@std@@@std@@QBE?AV?$_Vector_const_iterator@V?$_Vector_val@UForceInfo@@V?$allocator@UForceInfo@@@std@@@std@@@2@XZ
_TEXT	SEGMENT
___$ReturnUdt$ = 8					; size = 4
?begin@?$vector@UForceInfo@@V?$allocator@UForceInfo@@@std@@@std@@QBE?AV?$_Vector_const_iterator@V?$_Vector_val@UForceInfo@@V?$allocator@UForceInfo@@@std@@@std@@@2@XZ PROC ; std::vector<ForceInfo,std::allocator<ForceInfo> >::begin, COMDAT
; _this$ = ecx

; 786  : 		{	// return iterator for beginning of nonmutable sequence

  00000	55		 push	 ebp
  00001	8b ec		 mov	 ebp, esp

; 787  : 		return (const_iterator(this->_Myfirst, this));

  00003	8b 09		 mov	 ecx, DWORD PTR [ecx]
  00005	8b 45 08	 mov	 eax, DWORD PTR ___$ReturnUdt$[ebp]
  00008	89 08		 mov	 DWORD PTR [eax], ecx

; 788  : 		}

  0000a	5d		 pop	 ebp
  0000b	c2 04 00	 ret	 4
?begin@?$vector@UForceInfo@@V?$allocator@UForceInfo@@@std@@@std@@QBE?AV?$_Vector_const_iterator@V?$_Vector_val@UForceInfo@@V?$allocator@UForceInfo@@@std@@@std@@@2@XZ ENDP ; std::vector<ForceInfo,std::allocator<ForceInfo> >::begin
_TEXT	ENDS
PUBLIC	?end@?$vector@UForceInfo@@V?$allocator@UForceInfo@@@std@@@std@@QBE?AV?$_Vector_const_iterator@V?$_Vector_val@UForceInfo@@V?$allocator@UForceInfo@@@std@@@std@@@2@XZ ; std::vector<ForceInfo,std::allocator<ForceInfo> >::end
; Function compile flags: /Ogsp
;	COMDAT ?end@?$vector@UForceInfo@@V?$allocator@UForceInfo@@@std@@@std@@QBE?AV?$_Vector_const_iterator@V?$_Vector_val@UForceInfo@@V?$allocator@UForceInfo@@@std@@@std@@@2@XZ
_TEXT	SEGMENT
___$ReturnUdt$ = 8					; size = 4
?end@?$vector@UForceInfo@@V?$allocator@UForceInfo@@@std@@@std@@QBE?AV?$_Vector_const_iterator@V?$_Vector_val@UForceInfo@@V?$allocator@UForceInfo@@@std@@@std@@@2@XZ PROC ; std::vector<ForceInfo,std::allocator<ForceInfo> >::end, COMDAT
; _this$ = ecx

; 796  : 		{	// return iterator for end of nonmutable sequence

  00000	55		 push	 ebp
  00001	8b ec		 mov	 ebp, esp

; 797  : 		return (const_iterator(this->_Mylast, this));

  00003	8b 49 04	 mov	 ecx, DWORD PTR [ecx+4]
  00006	8b 45 08	 mov	 eax, DWORD PTR ___$ReturnUdt$[ebp]
  00009	89 08		 mov	 DWORD PTR [eax], ecx

; 798  : 		}

  0000b	5d		 pop	 ebp
  0000c	c2 04 00	 ret	 4
?end@?$vector@UForceInfo@@V?$allocator@UForceInfo@@@std@@@std@@QBE?AV?$_Vector_const_iterator@V?$_Vector_val@UForceInfo@@V?$allocator@UForceInfo@@@std@@@std@@@2@XZ ENDP ; std::vector<ForceInfo,std::allocator<ForceInfo> >::end
_TEXT	ENDS
PUBLIC	?construct@?$allocator@UForceInfo@@@std@@QAEXPAUForceInfo@@ABU3@@Z ; std::allocator<ForceInfo>::construct
; Function compile flags: /Ogsp
; File c:\program files (x86)\microsoft visual studio 10.0\vc\include\xmemory
;	COMDAT ?construct@?$allocator@UForceInfo@@@std@@QAEXPAUForceInfo@@ABU3@@Z
_TEXT	SEGMENT
__Ptr$ = 8						; size = 4
__Val$ = 12						; size = 4
?construct@?$allocator@UForceInfo@@@std@@QAEXPAUForceInfo@@ABU3@@Z PROC ; std::allocator<ForceInfo>::construct, COMDAT
; _this$ = ecx

; 196  : 		{	// construct object at _Ptr with value _Val

  00000	55		 push	 ebp
  00001	8b ec		 mov	 ebp, esp
  00003	57		 push	 edi

; 197  : 		_Construct(_Ptr, _Val);

  00004	8b 7d 08	 mov	 edi, DWORD PTR __Ptr$[ebp]
  00007	85 ff		 test	 edi, edi
  00009	74 08		 je	 SHORT $LN5@construct@2
  0000b	56		 push	 esi
  0000c	8b 75 0c	 mov	 esi, DWORD PTR __Val$[ebp]
  0000f	a5		 movsd
  00010	a5		 movsd
  00011	a5		 movsd
  00012	5e		 pop	 esi
$LN5@construct@2:
  00013	5f		 pop	 edi

; 198  : 		}

  00014	5d		 pop	 ebp
  00015	c2 08 00	 ret	 8
?construct@?$allocator@UForceInfo@@@std@@QAEXPAUForceInfo@@ABU3@@Z ENDP ; std::allocator<ForceInfo>::construct
_TEXT	ENDS
PUBLIC	??$_Construct@UWeaponInfo@@ABU1@@std@@YAXPAUWeaponInfo@@ABU1@@Z ; std::_Construct<WeaponInfo,WeaponInfo const &>
EXTRN	__EH_epilog3:PROC
EXTRN	__EH_prolog3:PROC
;	COMDAT xdata$x
; File c:\program files (x86)\microsoft visual studio 10.0\vc\include\utility
xdata$x	SEGMENT
__unwindtable$??$_Construct@UWeaponInfo@@ABU1@@std@@YAXPAUWeaponInfo@@ABU1@@Z DD 0ffffffffH
	DD	FLAT:__unwindfunclet$??$_Construct@UWeaponInfo@@ABU1@@std@@YAXPAUWeaponInfo@@ABU1@@Z$0
__ehfuncinfo$??$_Construct@UWeaponInfo@@ABU1@@std@@YAXPAUWeaponInfo@@ABU1@@Z DD 019930522H
	DD	01H
	DD	FLAT:__unwindtable$??$_Construct@UWeaponInfo@@ABU1@@std@@YAXPAUWeaponInfo@@ABU1@@Z
	DD	2 DUP(00H)
	DD	2 DUP(00H)
	DD	00H
	DD	01H
; Function compile flags: /Ogsp
; File c:\program files (x86)\microsoft visual studio 10.0\vc\include\xmemory
xdata$x	ENDS
;	COMDAT ??$_Construct@UWeaponInfo@@ABU1@@std@@YAXPAUWeaponInfo@@ABU1@@Z
_TEXT	SEGMENT
$T511666 = -16						; size = 4
__$EHRec$ = -12						; size = 12
__Vptr$ = 8						; size = 4
__Ptr$ = 8						; size = 4
__Val$ = 12						; size = 4
??$_Construct@UWeaponInfo@@ABU1@@std@@YAXPAUWeaponInfo@@ABU1@@Z PROC ; std::_Construct<WeaponInfo,WeaponInfo const &>, COMDAT

; 46   : 	{	// construct object at _Ptr with value _Val

  00000	6a 04		 push	 4
  00002	b8 00 00 00 00	 mov	 eax, __ehhandler$??$_Construct@UWeaponInfo@@ABU1@@std@@YAXPAUWeaponInfo@@ABU1@@Z
  00007	e8 00 00 00 00	 call	 __EH_prolog3

; 47   : 	void _FARQ *_Vptr = _Ptr;

  0000c	8b 4d 08	 mov	 ecx, DWORD PTR __Ptr$[ebp]
  0000f	89 4d 08	 mov	 DWORD PTR __Vptr$[ebp], ecx

; 48   : 	::new (_Vptr) _Ty1(_STD forward<_Ty2>(_Val));

  00012	89 4d f0	 mov	 DWORD PTR $T511666[ebp], ecx
  00015	83 65 fc 00	 and	 DWORD PTR __$EHRec$[ebp+8], 0
  00019	85 c9		 test	 ecx, ecx
  0001b	74 08		 je	 SHORT $LN3@Construct@2
  0001d	ff 75 0c	 push	 DWORD PTR __Val$[ebp]
  00020	e8 00 00 00 00	 call	 ??0WeaponInfo@@QAE@ABU0@@Z
$LN3@Construct@2:

; 49   : 	}

  00025	e8 00 00 00 00	 call	 __EH_epilog3
  0002a	c3		 ret	 0
_TEXT	ENDS
;	COMDAT text$x
text$x	SEGMENT
__unwindfunclet$??$_Construct@UWeaponInfo@@ABU1@@std@@YAXPAUWeaponInfo@@ABU1@@Z$0:
  00000	ff 75 08	 push	 DWORD PTR __Vptr$[ebp]
  00003	ff 75 f0	 push	 DWORD PTR $T511666[ebp]
  00006	e8 00 00 00 00	 call	 ??3@YAXPAX0@Z		; operator delete
  0000b	59		 pop	 ecx
  0000c	59		 pop	 ecx
  0000d	c3		 ret	 0
__ehhandler$??$_Construct@UWeaponInfo@@ABU1@@std@@YAXPAUWeaponInfo@@ABU1@@Z:
  0000e	8b 54 24 08	 mov	 edx, DWORD PTR [esp+8]
  00012	8d 42 0c	 lea	 eax, DWORD PTR [edx+12]
  00015	8b 4a ec	 mov	 ecx, DWORD PTR [edx-20]
  00018	33 c8		 xor	 ecx, eax
  0001a	e8 00 00 00 00	 call	 @__security_check_cookie@4
  0001f	b8 00 00 00 00	 mov	 eax, OFFSET __ehfuncinfo$??$_Construct@UWeaponInfo@@ABU1@@std@@YAXPAUWeaponInfo@@ABU1@@Z
  00024	e9 00 00 00 00	 jmp	 ___CxxFrameHandler3
text$x	ENDS
??$_Construct@UWeaponInfo@@ABU1@@std@@YAXPAUWeaponInfo@@ABU1@@Z ENDP ; std::_Construct<WeaponInfo,WeaponInfo const &>
PUBLIC	??0?$_Vector_val@UWeaponInfo@@V?$allocator@UWeaponInfo@@@std@@@std@@QAE@V?$allocator@UWeaponInfo@@@1@@Z ; std::_Vector_val<WeaponInfo,std::allocator<WeaponInfo> >::_Vector_val<WeaponInfo,std::allocator<WeaponInfo> >
; Function compile flags: /Ogsp
; File c:\program files (x86)\microsoft visual studio 10.0\vc\include\vector
;	COMDAT ??0?$_Vector_val@UWeaponInfo@@V?$allocator@UWeaponInfo@@@std@@@std@@QAE@V?$allocator@UWeaponInfo@@@1@@Z
_TEXT	SEGMENT
__Al$ = 8						; size = 1
??0?$_Vector_val@UWeaponInfo@@V?$allocator@UWeaponInfo@@@std@@@std@@QAE@V?$allocator@UWeaponInfo@@@1@@Z PROC ; std::_Vector_val<WeaponInfo,std::allocator<WeaponInfo> >::_Vector_val<WeaponInfo,std::allocator<WeaponInfo> >, COMDAT
; _this$ = ecx

; 426  : 		{	// construct allocator from _Al

  00000	8b c1		 mov	 eax, ecx

; 427  : 		_Myfirst = 0;

  00002	33 c9		 xor	 ecx, ecx
  00004	89 08		 mov	 DWORD PTR [eax], ecx

; 428  : 		_Mylast = 0;

  00006	89 48 04	 mov	 DWORD PTR [eax+4], ecx

; 429  : 		_Myend = 0;

  00009	89 48 08	 mov	 DWORD PTR [eax+8], ecx

; 430  : 		}

  0000c	c2 04 00	 ret	 4
??0?$_Vector_val@UWeaponInfo@@V?$allocator@UWeaponInfo@@@std@@@std@@QAE@V?$allocator@UWeaponInfo@@@1@@Z ENDP ; std::_Vector_val<WeaponInfo,std::allocator<WeaponInfo> >::_Vector_val<WeaponInfo,std::allocator<WeaponInfo> >
_TEXT	ENDS
PUBLIC	??0?$_Vector_val@UForceInfo@@V?$allocator@UForceInfo@@@std@@@std@@QAE@V?$allocator@UForceInfo@@@1@@Z ; std::_Vector_val<ForceInfo,std::allocator<ForceInfo> >::_Vector_val<ForceInfo,std::allocator<ForceInfo> >
; Function compile flags: /Ogsp
;	COMDAT ??0?$_Vector_val@UForceInfo@@V?$allocator@UForceInfo@@@std@@@std@@QAE@V?$allocator@UForceInfo@@@1@@Z
_TEXT	SEGMENT
__Al$ = 8						; size = 1
??0?$_Vector_val@UForceInfo@@V?$allocator@UForceInfo@@@std@@@std@@QAE@V?$allocator@UForceInfo@@@1@@Z PROC ; std::_Vector_val<ForceInfo,std::allocator<ForceInfo> >::_Vector_val<ForceInfo,std::allocator<ForceInfo> >, COMDAT
; _this$ = ecx

; 426  : 		{	// construct allocator from _Al

  00000	8b c1		 mov	 eax, ecx

; 427  : 		_Myfirst = 0;

  00002	33 c9		 xor	 ecx, ecx
  00004	89 08		 mov	 DWORD PTR [eax], ecx

; 428  : 		_Mylast = 0;

  00006	89 48 04	 mov	 DWORD PTR [eax+4], ecx

; 429  : 		_Myend = 0;

  00009	89 48 08	 mov	 DWORD PTR [eax+8], ecx

; 430  : 		}

  0000c	c2 04 00	 ret	 4
??0?$_Vector_val@UForceInfo@@V?$allocator@UForceInfo@@@std@@@std@@QAE@V?$allocator@UForceInfo@@@1@@Z ENDP ; std::_Vector_val<ForceInfo,std::allocator<ForceInfo> >::_Vector_val<ForceInfo,std::allocator<ForceInfo> >
_TEXT	ENDS
PUBLIC	??0?$_Vector_val@UAttackAttribute@@V?$allocator@UAttackAttribute@@@std@@@std@@QAE@V?$allocator@UAttackAttribute@@@1@@Z ; std::_Vector_val<AttackAttribute,std::allocator<AttackAttribute> >::_Vector_val<AttackAttribute,std::allocator<AttackAttribute> >
; Function compile flags: /Ogsp
;	COMDAT ??0?$_Vector_val@UAttackAttribute@@V?$allocator@UAttackAttribute@@@std@@@std@@QAE@V?$allocator@UAttackAttribute@@@1@@Z
_TEXT	SEGMENT
__Al$ = 8						; size = 1
??0?$_Vector_val@UAttackAttribute@@V?$allocator@UAttackAttribute@@@std@@@std@@QAE@V?$allocator@UAttackAttribute@@@1@@Z PROC ; std::_Vector_val<AttackAttribute,std::allocator<AttackAttribute> >::_Vector_val<AttackAttribute,std::allocator<AttackAttribute> >, COMDAT
; _this$ = ecx

; 426  : 		{	// construct allocator from _Al

  00000	8b c1		 mov	 eax, ecx

; 427  : 		_Myfirst = 0;

  00002	33 c9		 xor	 ecx, ecx
  00004	89 08		 mov	 DWORD PTR [eax], ecx

; 428  : 		_Mylast = 0;

  00006	89 48 04	 mov	 DWORD PTR [eax+4], ecx

; 429  : 		_Myend = 0;

  00009	89 48 08	 mov	 DWORD PTR [eax+8], ecx

; 430  : 		}

  0000c	c2 04 00	 ret	 4
??0?$_Vector_val@UAttackAttribute@@V?$allocator@UAttackAttribute@@@std@@@std@@QAE@V?$allocator@UAttackAttribute@@@1@@Z ENDP ; std::_Vector_val<AttackAttribute,std::allocator<AttackAttribute> >::_Vector_val<AttackAttribute,std::allocator<AttackAttribute> >
_TEXT	ENDS
PUBLIC	??0?$_Vector_iterator@V?$_Vector_val@UAttackAttribute@@V?$allocator@UAttackAttribute@@@std@@@std@@@std@@QAE@PAUAttackAttribute@@PBU_Container_base0@1@@Z ; std::_Vector_iterator<std::_Vector_val<AttackAttribute,std::allocator<AttackAttribute> > >::_Vector_iterator<std::_Vector_val<AttackAttribute,std::allocator<AttackAttribute> > >
; Function compile flags: /Ogsp
;	COMDAT ??0?$_Vector_iterator@V?$_Vector_val@UAttackAttribute@@V?$allocator@UAttackAttribute@@@std@@@std@@@std@@QAE@PAUAttackAttribute@@PBU_Container_base0@1@@Z
_TEXT	SEGMENT
__Parg$ = 8						; size = 4
__Pvector$ = 12						; size = 4
??0?$_Vector_iterator@V?$_Vector_val@UAttackAttribute@@V?$allocator@UAttackAttribute@@@std@@@std@@@std@@QAE@PAUAttackAttribute@@PBU_Container_base0@1@@Z PROC ; std::_Vector_iterator<std::_Vector_val<AttackAttribute,std::allocator<AttackAttribute> > >::_Vector_iterator<std::_Vector_val<AttackAttribute,std::allocator<AttackAttribute> > >, COMDAT
; _this$ = ecx

; 304  : 		{	// construct with pointer _Parg

  00000	55		 push	 ebp
  00001	8b ec		 mov	 ebp, esp
  00003	8b c1		 mov	 eax, ecx
  00005	8b 4d 08	 mov	 ecx, DWORD PTR __Parg$[ebp]
  00008	89 08		 mov	 DWORD PTR [eax], ecx

; 305  : 		}

  0000a	5d		 pop	 ebp
  0000b	c2 08 00	 ret	 8
??0?$_Vector_iterator@V?$_Vector_val@UAttackAttribute@@V?$allocator@UAttackAttribute@@@std@@@std@@@std@@QAE@PAUAttackAttribute@@PBU_Container_base0@1@@Z ENDP ; std::_Vector_iterator<std::_Vector_val<AttackAttribute,std::allocator<AttackAttribute> > >::_Vector_iterator<std::_Vector_val<AttackAttribute,std::allocator<AttackAttribute> > >
_TEXT	ENDS
PUBLIC	??8?$_Vector_const_iterator@V?$_Vector_val@UAttackAttribute@@V?$allocator@UAttackAttribute@@@std@@@std@@@std@@QBE_NABV01@@Z ; std::_Vector_const_iterator<std::_Vector_val<AttackAttribute,std::allocator<AttackAttribute> > >::operator==
; Function compile flags: /Ogsp
;	COMDAT ??8?$_Vector_const_iterator@V?$_Vector_val@UAttackAttribute@@V?$allocator@UAttackAttribute@@@std@@@std@@@std@@QBE_NABV01@@Z
_TEXT	SEGMENT
__Right$ = 8						; size = 4
??8?$_Vector_const_iterator@V?$_Vector_val@UAttackAttribute@@V?$allocator@UAttackAttribute@@@std@@@std@@@std@@QBE_NABV01@@Z PROC ; std::_Vector_const_iterator<std::_Vector_val<AttackAttribute,std::allocator<AttackAttribute> > >::operator==, COMDAT
; _this$ = ecx

; 201  : 		{	// test for iterator equality

  00000	55		 push	 ebp
  00001	8b ec		 mov	 ebp, esp

; 202  : 		_Compat(_Right);
; 203  : 		return (this->_Ptr == _Right._Ptr);

  00003	8b 01		 mov	 eax, DWORD PTR [ecx]
  00005	8b 4d 08	 mov	 ecx, DWORD PTR __Right$[ebp]
  00008	2b 01		 sub	 eax, DWORD PTR [ecx]
  0000a	f7 d8		 neg	 eax
  0000c	1b c0		 sbb	 eax, eax
  0000e	40		 inc	 eax

; 204  : 		}

  0000f	5d		 pop	 ebp
  00010	c2 04 00	 ret	 4
??8?$_Vector_const_iterator@V?$_Vector_val@UAttackAttribute@@V?$allocator@UAttackAttribute@@@std@@@std@@@std@@QBE_NABV01@@Z ENDP ; std::_Vector_const_iterator<std::_Vector_val<AttackAttribute,std::allocator<AttackAttribute> > >::operator==
_TEXT	ENDS
PUBLIC	?max_size@?$vector@UWeaponInfo@@V?$allocator@UWeaponInfo@@@std@@@std@@QBEIXZ ; std::vector<WeaponInfo,std::allocator<WeaponInfo> >::max_size
; Function compile flags: /Ogsp
;	COMDAT ?max_size@?$vector@UWeaponInfo@@V?$allocator@UWeaponInfo@@@std@@@std@@QBEIXZ
_TEXT	SEGMENT
?max_size@?$vector@UWeaponInfo@@V?$allocator@UWeaponInfo@@@std@@@std@@QBEIXZ PROC ; std::vector<WeaponInfo,std::allocator<WeaponInfo> >::max_size, COMDAT
; _this$ = ecx

; 884  : 		return (this->_Alval.max_size());

  00000	b8 66 66 66 06	 mov	 eax, 107374182		; 06666666H

; 885  : 		}

  00005	c3		 ret	 0
?max_size@?$vector@UWeaponInfo@@V?$allocator@UWeaponInfo@@@std@@@std@@QBEIXZ ENDP ; std::vector<WeaponInfo,std::allocator<WeaponInfo> >::max_size
_TEXT	ENDS
PUBLIC	?allocate@?$allocator@UWeaponInfo@@@std@@QAEPAUWeaponInfo@@I@Z ; std::allocator<WeaponInfo>::allocate
; Function compile flags: /Ogsp
; File c:\program files (x86)\microsoft visual studio 10.0\vc\include\xmemory
;	COMDAT ?allocate@?$allocator@UWeaponInfo@@@std@@QAEPAUWeaponInfo@@I@Z
_TEXT	SEGMENT
__Count$ = 8						; size = 4
?allocate@?$allocator@UWeaponInfo@@@std@@QAEPAUWeaponInfo@@I@Z PROC ; std::allocator<WeaponInfo>::allocate, COMDAT
; _this$ = ecx

; 186  : 		{	// allocate array of _Count elements

  00000	55		 push	 ebp
  00001	8b ec		 mov	 ebp, esp

; 187  : 		return (_Allocate(_Count, (pointer)0));

  00003	6a 00		 push	 0
  00005	ff 75 08	 push	 DWORD PTR __Count$[ebp]
  00008	e8 00 00 00 00	 call	 ??$_Allocate@UWeaponInfo@@@std@@YAPAUWeaponInfo@@IPAU1@@Z ; std::_Allocate<WeaponInfo>
  0000d	59		 pop	 ecx
  0000e	59		 pop	 ecx

; 188  : 		}

  0000f	5d		 pop	 ebp
  00010	c2 04 00	 ret	 4
?allocate@?$allocator@UWeaponInfo@@@std@@QAEPAUWeaponInfo@@I@Z ENDP ; std::allocator<WeaponInfo>::allocate
_TEXT	ENDS
PUBLIC	?max_size@?$vector@UForceInfo@@V?$allocator@UForceInfo@@@std@@@std@@QBEIXZ ; std::vector<ForceInfo,std::allocator<ForceInfo> >::max_size
; Function compile flags: /Ogsp
; File c:\program files (x86)\microsoft visual studio 10.0\vc\include\vector
;	COMDAT ?max_size@?$vector@UForceInfo@@V?$allocator@UForceInfo@@@std@@@std@@QBEIXZ
_TEXT	SEGMENT
?max_size@?$vector@UForceInfo@@V?$allocator@UForceInfo@@@std@@@std@@QBEIXZ PROC ; std::vector<ForceInfo,std::allocator<ForceInfo> >::max_size, COMDAT
; _this$ = ecx

; 884  : 		return (this->_Alval.max_size());

  00000	b8 55 55 55 15	 mov	 eax, 357913941		; 15555555H

; 885  : 		}

  00005	c3		 ret	 0
?max_size@?$vector@UForceInfo@@V?$allocator@UForceInfo@@@std@@@std@@QBEIXZ ENDP ; std::vector<ForceInfo,std::allocator<ForceInfo> >::max_size
_TEXT	ENDS
PUBLIC	?allocate@?$allocator@UForceInfo@@@std@@QAEPAUForceInfo@@I@Z ; std::allocator<ForceInfo>::allocate
; Function compile flags: /Ogsp
; File c:\program files (x86)\microsoft visual studio 10.0\vc\include\xmemory
;	COMDAT ?allocate@?$allocator@UForceInfo@@@std@@QAEPAUForceInfo@@I@Z
_TEXT	SEGMENT
__Count$ = 8						; size = 4
?allocate@?$allocator@UForceInfo@@@std@@QAEPAUForceInfo@@I@Z PROC ; std::allocator<ForceInfo>::allocate, COMDAT
; _this$ = ecx

; 186  : 		{	// allocate array of _Count elements

  00000	55		 push	 ebp
  00001	8b ec		 mov	 ebp, esp

; 187  : 		return (_Allocate(_Count, (pointer)0));

  00003	6a 00		 push	 0
  00005	ff 75 08	 push	 DWORD PTR __Count$[ebp]
  00008	e8 00 00 00 00	 call	 ??$_Allocate@UForceInfo@@@std@@YAPAUForceInfo@@IPAU1@@Z ; std::_Allocate<ForceInfo>
  0000d	59		 pop	 ecx
  0000e	59		 pop	 ecx

; 188  : 		}

  0000f	5d		 pop	 ebp
  00010	c2 04 00	 ret	 4
?allocate@?$allocator@UForceInfo@@@std@@QAEPAUForceInfo@@I@Z ENDP ; std::allocator<ForceInfo>::allocate
_TEXT	ENDS
PUBLIC	??0?$_Vector_iterator@V?$_Vector_val@UWeaponInfo@@V?$allocator@UWeaponInfo@@@std@@@std@@@std@@QAE@PAUWeaponInfo@@PBU_Container_base0@1@@Z ; std::_Vector_iterator<std::_Vector_val<WeaponInfo,std::allocator<WeaponInfo> > >::_Vector_iterator<std::_Vector_val<WeaponInfo,std::allocator<WeaponInfo> > >
; Function compile flags: /Ogsp
; File c:\program files (x86)\microsoft visual studio 10.0\vc\include\vector
;	COMDAT ??0?$_Vector_iterator@V?$_Vector_val@UWeaponInfo@@V?$allocator@UWeaponInfo@@@std@@@std@@@std@@QAE@PAUWeaponInfo@@PBU_Container_base0@1@@Z
_TEXT	SEGMENT
__Parg$ = 8						; size = 4
__Pvector$ = 12						; size = 4
??0?$_Vector_iterator@V?$_Vector_val@UWeaponInfo@@V?$allocator@UWeaponInfo@@@std@@@std@@@std@@QAE@PAUWeaponInfo@@PBU_Container_base0@1@@Z PROC ; std::_Vector_iterator<std::_Vector_val<WeaponInfo,std::allocator<WeaponInfo> > >::_Vector_iterator<std::_Vector_val<WeaponInfo,std::allocator<WeaponInfo> > >, COMDAT
; _this$ = ecx

; 304  : 		{	// construct with pointer _Parg

  00000	55		 push	 ebp
  00001	8b ec		 mov	 ebp, esp
  00003	8b c1		 mov	 eax, ecx
  00005	8b 4d 08	 mov	 ecx, DWORD PTR __Parg$[ebp]
  00008	89 08		 mov	 DWORD PTR [eax], ecx

; 305  : 		}

  0000a	5d		 pop	 ebp
  0000b	c2 08 00	 ret	 8
??0?$_Vector_iterator@V?$_Vector_val@UWeaponInfo@@V?$allocator@UWeaponInfo@@@std@@@std@@@std@@QAE@PAUWeaponInfo@@PBU_Container_base0@1@@Z ENDP ; std::_Vector_iterator<std::_Vector_val<WeaponInfo,std::allocator<WeaponInfo> > >::_Vector_iterator<std::_Vector_val<WeaponInfo,std::allocator<WeaponInfo> > >
_TEXT	ENDS
PUBLIC	??0?$_Vector_iterator@V?$_Vector_val@UForceInfo@@V?$allocator@UForceInfo@@@std@@@std@@@std@@QAE@PAUForceInfo@@PBU_Container_base0@1@@Z ; std::_Vector_iterator<std::_Vector_val<ForceInfo,std::allocator<ForceInfo> > >::_Vector_iterator<std::_Vector_val<ForceInfo,std::allocator<ForceInfo> > >
; Function compile flags: /Ogsp
;	COMDAT ??0?$_Vector_iterator@V?$_Vector_val@UForceInfo@@V?$allocator@UForceInfo@@@std@@@std@@@std@@QAE@PAUForceInfo@@PBU_Container_base0@1@@Z
_TEXT	SEGMENT
__Parg$ = 8						; size = 4
__Pvector$ = 12						; size = 4
??0?$_Vector_iterator@V?$_Vector_val@UForceInfo@@V?$allocator@UForceInfo@@@std@@@std@@@std@@QAE@PAUForceInfo@@PBU_Container_base0@1@@Z PROC ; std::_Vector_iterator<std::_Vector_val<ForceInfo,std::allocator<ForceInfo> > >::_Vector_iterator<std::_Vector_val<ForceInfo,std::allocator<ForceInfo> > >, COMDAT
; _this$ = ecx

; 304  : 		{	// construct with pointer _Parg

  00000	55		 push	 ebp
  00001	8b ec		 mov	 ebp, esp
  00003	8b c1		 mov	 eax, ecx
  00005	8b 4d 08	 mov	 ecx, DWORD PTR __Parg$[ebp]
  00008	89 08		 mov	 DWORD PTR [eax], ecx

; 305  : 		}

  0000a	5d		 pop	 ebp
  0000b	c2 08 00	 ret	 8
??0?$_Vector_iterator@V?$_Vector_val@UForceInfo@@V?$allocator@UForceInfo@@@std@@@std@@@std@@QAE@PAUForceInfo@@PBU_Container_base0@1@@Z ENDP ; std::_Vector_iterator<std::_Vector_val<ForceInfo,std::allocator<ForceInfo> > >::_Vector_iterator<std::_Vector_val<ForceInfo,std::allocator<ForceInfo> > >
_TEXT	ENDS
PUBLIC	??8?$_Vector_const_iterator@V?$_Vector_val@UWeaponInfo@@V?$allocator@UWeaponInfo@@@std@@@std@@@std@@QBE_NABV01@@Z ; std::_Vector_const_iterator<std::_Vector_val<WeaponInfo,std::allocator<WeaponInfo> > >::operator==
; Function compile flags: /Ogsp
;	COMDAT ??8?$_Vector_const_iterator@V?$_Vector_val@UWeaponInfo@@V?$allocator@UWeaponInfo@@@std@@@std@@@std@@QBE_NABV01@@Z
_TEXT	SEGMENT
__Right$ = 8						; size = 4
??8?$_Vector_const_iterator@V?$_Vector_val@UWeaponInfo@@V?$allocator@UWeaponInfo@@@std@@@std@@@std@@QBE_NABV01@@Z PROC ; std::_Vector_const_iterator<std::_Vector_val<WeaponInfo,std::allocator<WeaponInfo> > >::operator==, COMDAT
; _this$ = ecx

; 201  : 		{	// test for iterator equality

  00000	55		 push	 ebp
  00001	8b ec		 mov	 ebp, esp

; 202  : 		_Compat(_Right);
; 203  : 		return (this->_Ptr == _Right._Ptr);

  00003	8b 01		 mov	 eax, DWORD PTR [ecx]
  00005	8b 4d 08	 mov	 ecx, DWORD PTR __Right$[ebp]
  00008	2b 01		 sub	 eax, DWORD PTR [ecx]
  0000a	f7 d8		 neg	 eax
  0000c	1b c0		 sbb	 eax, eax
  0000e	40		 inc	 eax

; 204  : 		}

  0000f	5d		 pop	 ebp
  00010	c2 04 00	 ret	 4
??8?$_Vector_const_iterator@V?$_Vector_val@UWeaponInfo@@V?$allocator@UWeaponInfo@@@std@@@std@@@std@@QBE_NABV01@@Z ENDP ; std::_Vector_const_iterator<std::_Vector_val<WeaponInfo,std::allocator<WeaponInfo> > >::operator==
_TEXT	ENDS
PUBLIC	??8?$_Vector_const_iterator@V?$_Vector_val@UForceInfo@@V?$allocator@UForceInfo@@@std@@@std@@@std@@QBE_NABV01@@Z ; std::_Vector_const_iterator<std::_Vector_val<ForceInfo,std::allocator<ForceInfo> > >::operator==
; Function compile flags: /Ogsp
;	COMDAT ??8?$_Vector_const_iterator@V?$_Vector_val@UForceInfo@@V?$allocator@UForceInfo@@@std@@@std@@@std@@QBE_NABV01@@Z
_TEXT	SEGMENT
__Right$ = 8						; size = 4
??8?$_Vector_const_iterator@V?$_Vector_val@UForceInfo@@V?$allocator@UForceInfo@@@std@@@std@@@std@@QBE_NABV01@@Z PROC ; std::_Vector_const_iterator<std::_Vector_val<ForceInfo,std::allocator<ForceInfo> > >::operator==, COMDAT
; _this$ = ecx

; 201  : 		{	// test for iterator equality

  00000	55		 push	 ebp
  00001	8b ec		 mov	 ebp, esp

; 202  : 		_Compat(_Right);
; 203  : 		return (this->_Ptr == _Right._Ptr);

  00003	8b 01		 mov	 eax, DWORD PTR [ecx]
  00005	8b 4d 08	 mov	 ecx, DWORD PTR __Right$[ebp]
  00008	2b 01		 sub	 eax, DWORD PTR [ecx]
  0000a	f7 d8		 neg	 eax
  0000c	1b c0		 sbb	 eax, eax
  0000e	40		 inc	 eax

; 204  : 		}

  0000f	5d		 pop	 ebp
  00010	c2 04 00	 ret	 4
??8?$_Vector_const_iterator@V?$_Vector_val@UForceInfo@@V?$allocator@UForceInfo@@@std@@@std@@@std@@QBE_NABV01@@Z ENDP ; std::_Vector_const_iterator<std::_Vector_val<ForceInfo,std::allocator<ForceInfo> > >::operator==
_TEXT	ENDS
PUBLIC	??$_Copy_impl@PAUForceInfo@@PAU1@@std@@YAPAUForceInfo@@PAU1@00@Z ; std::_Copy_impl<ForceInfo *,ForceInfo *>
; Function compile flags: /Ogsp
; File c:\program files (x86)\microsoft visual studio 10.0\vc\include\xutility
;	COMDAT ??$_Copy_impl@PAUForceInfo@@PAU1@@std@@YAPAUForceInfo@@PAU1@00@Z
_TEXT	SEGMENT
__Cat$511779 = -4					; size = 1
__First$ = 8						; size = 4
__Last$ = 12						; size = 4
__Dest$ = 16						; size = 4
??$_Copy_impl@PAUForceInfo@@PAU1@@std@@YAPAUForceInfo@@PAU1@00@Z PROC ; std::_Copy_impl<ForceInfo *,ForceInfo *>, COMDAT

; 2163 : 	{	// copy [_First, _Last) to [_Dest, ...)

  00000	55		 push	 ebp
  00001	8b ec		 mov	 ebp, esp
  00003	51		 push	 ecx

; 2164 : 	return (_Copy_impl(_First, _Last,
; 2165 : 		_Dest, _Ptr_cat(_First, _Dest)));

  00004	ff 75 fc	 push	 DWORD PTR __Cat$511779[ebp]
  00007	ff 75 10	 push	 DWORD PTR __Dest$[ebp]
  0000a	ff 75 0c	 push	 DWORD PTR __Last$[ebp]
  0000d	ff 75 08	 push	 DWORD PTR __First$[ebp]
  00010	e8 00 00 00 00	 call	 ??$_Copy_impl@PAUForceInfo@@PAU1@@std@@YAPAUForceInfo@@PAU1@00U_Nonscalar_ptr_iterator_tag@0@@Z ; std::_Copy_impl<ForceInfo *,ForceInfo *>
  00015	83 c4 10	 add	 esp, 16			; 00000010H

; 2166 : 	}

  00018	c9		 leave
  00019	c3		 ret	 0
??$_Copy_impl@PAUForceInfo@@PAU1@@std@@YAPAUForceInfo@@PAU1@00@Z ENDP ; std::_Copy_impl<ForceInfo *,ForceInfo *>
_TEXT	ENDS
PUBLIC	?destroy@?$allocator@UForceInfo@@@std@@QAEXPAUForceInfo@@@Z ; std::allocator<ForceInfo>::destroy
; Function compile flags: /Ogsp
; File c:\program files (x86)\microsoft visual studio 10.0\vc\include\xmemory
;	COMDAT ?destroy@?$allocator@UForceInfo@@@std@@QAEXPAUForceInfo@@@Z
_TEXT	SEGMENT
__Ptr$ = 8						; size = 4
?destroy@?$allocator@UForceInfo@@@std@@QAEXPAUForceInfo@@@Z PROC ; std::allocator<ForceInfo>::destroy, COMDAT
; _this$ = ecx

; 213  : 		_Destroy(_Ptr);
; 214  : 		}

  00000	c2 04 00	 ret	 4
?destroy@?$allocator@UForceInfo@@@std@@QAEXPAUForceInfo@@@Z ENDP ; std::allocator<ForceInfo>::destroy
_TEXT	ENDS
PUBLIC	??$_Copy_impl@PAUWeaponInfo@@PAU1@@std@@YAPAUWeaponInfo@@PAU1@00U_Nonscalar_ptr_iterator_tag@0@@Z ; std::_Copy_impl<WeaponInfo *,WeaponInfo *>
; Function compile flags: /Ogsp
; File c:\program files (x86)\microsoft visual studio 10.0\vc\include\xutility
;	COMDAT ??$_Copy_impl@PAUWeaponInfo@@PAU1@@std@@YAPAUWeaponInfo@@PAU1@00U_Nonscalar_ptr_iterator_tag@0@@Z
_TEXT	SEGMENT
__First$ = 8						; size = 4
__Last$ = 12						; size = 4
__Dest$ = 16						; size = 4
___formal$ = 20						; size = 1
??$_Copy_impl@PAUWeaponInfo@@PAU1@@std@@YAPAUWeaponInfo@@PAU1@00U_Nonscalar_ptr_iterator_tag@0@@Z PROC ; std::_Copy_impl<WeaponInfo *,WeaponInfo *>, COMDAT

; 2142 : 	{	// copy [_First, _Last) to [_Dest, ...), arbitrary iterators

  00000	55		 push	 ebp
  00001	8b ec		 mov	 ebp, esp
  00003	56		 push	 esi

; 2143 : 	for (; _First != _Last; ++_Dest, ++_First)

  00004	8b 75 08	 mov	 esi, DWORD PTR __First$[ebp]
  00007	eb 10		 jmp	 SHORT $LN9@Copy_impl@2
$LL3@Copy_impl@2:

; 2144 : 		*_Dest = *_First;

  00009	8b 4d 10	 mov	 ecx, DWORD PTR __Dest$[ebp]
  0000c	56		 push	 esi
  0000d	e8 00 00 00 00	 call	 ??4WeaponInfo@@QAEAAU0@ABU0@@Z
  00012	83 45 10 28	 add	 DWORD PTR __Dest$[ebp], 40 ; 00000028H
  00016	83 c6 28	 add	 esi, 40			; 00000028H
$LN9@Copy_impl@2:

; 2143 : 	for (; _First != _Last; ++_Dest, ++_First)

  00019	3b 75 0c	 cmp	 esi, DWORD PTR __Last$[ebp]
  0001c	75 eb		 jne	 SHORT $LL3@Copy_impl@2

; 2145 : 	return (_Dest);

  0001e	8b 45 10	 mov	 eax, DWORD PTR __Dest$[ebp]
  00021	5e		 pop	 esi

; 2146 : 	}

  00022	5d		 pop	 ebp
  00023	c3		 ret	 0
??$_Copy_impl@PAUWeaponInfo@@PAU1@@std@@YAPAUWeaponInfo@@PAU1@00U_Nonscalar_ptr_iterator_tag@0@@Z ENDP ; std::_Copy_impl<WeaponInfo *,WeaponInfo *>
_TEXT	ENDS
PUBLIC	??$_Move@PAUWeaponInfo@@PAU1@@std@@YAPAUWeaponInfo@@PAU1@00U_Nonscalar_ptr_iterator_tag@0@@Z ; std::_Move<WeaponInfo *,WeaponInfo *>
; Function compile flags: /Ogsp
;	COMDAT ??$_Move@PAUWeaponInfo@@PAU1@@std@@YAPAUWeaponInfo@@PAU1@00U_Nonscalar_ptr_iterator_tag@0@@Z
_TEXT	SEGMENT
__First$ = 8						; size = 4
__Last$ = 12						; size = 4
__Dest$ = 16						; size = 4
___formal$ = 20						; size = 1
??$_Move@PAUWeaponInfo@@PAU1@@std@@YAPAUWeaponInfo@@PAU1@00U_Nonscalar_ptr_iterator_tag@0@@Z PROC ; std::_Move<WeaponInfo *,WeaponInfo *>, COMDAT

; 2512 : 	{	// move [_First, _Last) to [_Dest, ...), arbitrary iterators

  00000	55		 push	 ebp
  00001	8b ec		 mov	 ebp, esp
  00003	56		 push	 esi

; 2513 : 	for (; _First != _Last; ++_Dest, ++_First)

  00004	8b 75 08	 mov	 esi, DWORD PTR __First$[ebp]
  00007	eb 10		 jmp	 SHORT $LN11@Move
$LL3@Move:

; 2514 : 		*_Dest = _STD move(*_First);

  00009	8b 4d 10	 mov	 ecx, DWORD PTR __Dest$[ebp]
  0000c	56		 push	 esi
  0000d	e8 00 00 00 00	 call	 ??4WeaponInfo@@QAEAAU0@ABU0@@Z
  00012	83 45 10 28	 add	 DWORD PTR __Dest$[ebp], 40 ; 00000028H
  00016	83 c6 28	 add	 esi, 40			; 00000028H
$LN11@Move:

; 2513 : 	for (; _First != _Last; ++_Dest, ++_First)

  00019	3b 75 0c	 cmp	 esi, DWORD PTR __Last$[ebp]
  0001c	75 eb		 jne	 SHORT $LL3@Move

; 2515 : 	return (_Dest);

  0001e	8b 45 10	 mov	 eax, DWORD PTR __Dest$[ebp]
  00021	5e		 pop	 esi

; 2516 : 	}

  00022	5d		 pop	 ebp
  00023	c3		 ret	 0
??$_Move@PAUWeaponInfo@@PAU1@@std@@YAPAUWeaponInfo@@PAU1@00U_Nonscalar_ptr_iterator_tag@0@@Z ENDP ; std::_Move<WeaponInfo *,WeaponInfo *>
_TEXT	ENDS
PUBLIC	??$_Move@PAUForceInfo@@PAU1@@std@@YAPAUForceInfo@@PAU1@00U_Nonscalar_ptr_iterator_tag@0@@Z ; std::_Move<ForceInfo *,ForceInfo *>
; Function compile flags: /Ogsp
;	COMDAT ??$_Move@PAUForceInfo@@PAU1@@std@@YAPAUForceInfo@@PAU1@00U_Nonscalar_ptr_iterator_tag@0@@Z
_TEXT	SEGMENT
__First$ = 8						; size = 4
__Last$ = 12						; size = 4
__Dest$ = 16						; size = 4
___formal$ = 20						; size = 1
??$_Move@PAUForceInfo@@PAU1@@std@@YAPAUForceInfo@@PAU1@00U_Nonscalar_ptr_iterator_tag@0@@Z PROC ; std::_Move<ForceInfo *,ForceInfo *>, COMDAT

; 2512 : 	{	// move [_First, _Last) to [_Dest, ...), arbitrary iterators

  00000	55		 push	 ebp
  00001	8b ec		 mov	 ebp, esp

; 2513 : 	for (; _First != _Last; ++_Dest, ++_First)

  00003	8b 45 08	 mov	 eax, DWORD PTR __First$[ebp]
  00006	3b 45 0c	 cmp	 eax, DWORD PTR __Last$[ebp]
  00009	74 18		 je	 SHORT $LN10@Move@2
  0000b	56		 push	 esi
  0000c	57		 push	 edi
$LL3@Move@2:

; 2514 : 		*_Dest = _STD move(*_First);

  0000d	8b 7d 10	 mov	 edi, DWORD PTR __Dest$[ebp]
  00010	83 45 10 0c	 add	 DWORD PTR __Dest$[ebp], 12 ; 0000000cH
  00014	8b f0		 mov	 esi, eax
  00016	a5		 movsd
  00017	a5		 movsd
  00018	83 c0 0c	 add	 eax, 12			; 0000000cH
  0001b	a5		 movsd
  0001c	3b 45 0c	 cmp	 eax, DWORD PTR __Last$[ebp]
  0001f	75 ec		 jne	 SHORT $LL3@Move@2
  00021	5f		 pop	 edi
  00022	5e		 pop	 esi
$LN10@Move@2:

; 2515 : 	return (_Dest);

  00023	8b 45 10	 mov	 eax, DWORD PTR __Dest$[ebp]

; 2516 : 	}

  00026	5d		 pop	 ebp
  00027	c3		 ret	 0
??$_Move@PAUForceInfo@@PAU1@@std@@YAPAUForceInfo@@PAU1@00U_Nonscalar_ptr_iterator_tag@0@@Z ENDP ; std::_Move<ForceInfo *,ForceInfo *>
_TEXT	ENDS
PUBLIC	??$_Destroy@UWeaponInfo@@@std@@YAXPAUWeaponInfo@@@Z ; std::_Destroy<WeaponInfo>
; Function compile flags: /Ogsp
; File c:\program files (x86)\microsoft visual studio 10.0\vc\include\xmemory
;	COMDAT ??$_Destroy@UWeaponInfo@@@std@@YAXPAUWeaponInfo@@@Z
_TEXT	SEGMENT
__Ptr$ = 8						; size = 4
??$_Destroy@UWeaponInfo@@@std@@YAXPAUWeaponInfo@@@Z PROC ; std::_Destroy<WeaponInfo>, COMDAT

; 62   : 	{	// destroy object at _Ptr

  00000	55		 push	 ebp
  00001	8b ec		 mov	 ebp, esp

; 63   : 	_Ptr->~_Ty();

  00003	8b 4d 08	 mov	 ecx, DWORD PTR __Ptr$[ebp]
  00006	83 c1 08	 add	 ecx, 8

; 64   : 	}

  00009	5d		 pop	 ebp

; 63   : 	_Ptr->~_Ty();

  0000a	ff 25 00 00 00
	00		 jmp	 DWORD PTR __imp_??1ioHashString@@QAE@XZ
??$_Destroy@UWeaponInfo@@@std@@YAXPAUWeaponInfo@@@Z ENDP ; std::_Destroy<WeaponInfo>
_TEXT	ENDS
PUBLIC	??$_Cons_val@V?$allocator@UForceInfo@@@std@@UForceInfo@@AAU3@@std@@YAXAAV?$allocator@UForceInfo@@@0@PAUForceInfo@@AAU2@@Z ; std::_Cons_val<std::allocator<ForceInfo>,ForceInfo,ForceInfo &>
; Function compile flags: /Ogsp
;	COMDAT ??$_Cons_val@V?$allocator@UForceInfo@@@std@@UForceInfo@@AAU3@@std@@YAXAAV?$allocator@UForceInfo@@@0@PAUForceInfo@@AAU2@@Z
_TEXT	SEGMENT
__Alval$ = 8						; size = 4
__Pdest$ = 12						; size = 4
__Src$ = 16						; size = 4
??$_Cons_val@V?$allocator@UForceInfo@@@std@@UForceInfo@@AAU3@@std@@YAXAAV?$allocator@UForceInfo@@@0@PAUForceInfo@@AAU2@@Z PROC ; std::_Cons_val<std::allocator<ForceInfo>,ForceInfo,ForceInfo &>, COMDAT

; 279  : 	{	// construct using allocator

  00000	55		 push	 ebp
  00001	8b ec		 mov	 ebp, esp
  00003	57		 push	 edi

; 280  : 	_Alval.construct(_Pdest, _STD forward<_Ty2>(_Src));

  00004	8b 7d 0c	 mov	 edi, DWORD PTR __Pdest$[ebp]
  00007	85 ff		 test	 edi, edi
  00009	74 08		 je	 SHORT $LN7@Cons_val
  0000b	56		 push	 esi
  0000c	8b 75 10	 mov	 esi, DWORD PTR __Src$[ebp]
  0000f	a5		 movsd
  00010	a5		 movsd
  00011	a5		 movsd
  00012	5e		 pop	 esi
$LN7@Cons_val:
  00013	5f		 pop	 edi

; 281  : 	}

  00014	5d		 pop	 ebp
  00015	c3		 ret	 0
??$_Cons_val@V?$allocator@UForceInfo@@@std@@UForceInfo@@AAU3@@std@@YAXAAV?$allocator@UForceInfo@@@0@PAUForceInfo@@AAU2@@Z ENDP ; std::_Cons_val<std::allocator<ForceInfo>,ForceInfo,ForceInfo &>
_TEXT	ENDS
PUBLIC	??$construct@AAUWeaponInfo@@@?$allocator@UWeaponInfo@@@std@@QAEXPAUWeaponInfo@@AAU2@@Z ; std::allocator<WeaponInfo>::construct<WeaponInfo &>
;	COMDAT xdata$x
; File c:\program files (x86)\microsoft visual studio 10.0\vc\include\utility
xdata$x	SEGMENT
__unwindtable$??$construct@AAUWeaponInfo@@@?$allocator@UWeaponInfo@@@std@@QAEXPAUWeaponInfo@@AAU2@@Z DD 0ffffffffH
	DD	FLAT:__unwindfunclet$??$construct@AAUWeaponInfo@@@?$allocator@UWeaponInfo@@@std@@QAEXPAUWeaponInfo@@AAU2@@Z$0
__ehfuncinfo$??$construct@AAUWeaponInfo@@@?$allocator@UWeaponInfo@@@std@@QAEXPAUWeaponInfo@@AAU2@@Z DD 019930522H
	DD	01H
	DD	FLAT:__unwindtable$??$construct@AAUWeaponInfo@@@?$allocator@UWeaponInfo@@@std@@QAEXPAUWeaponInfo@@AAU2@@Z
	DD	2 DUP(00H)
	DD	2 DUP(00H)
	DD	00H
	DD	01H
; Function compile flags: /Ogsp
; File c:\program files (x86)\microsoft visual studio 10.0\vc\include\xmemory
xdata$x	ENDS
;	COMDAT ??$construct@AAUWeaponInfo@@@?$allocator@UWeaponInfo@@@std@@QAEXPAUWeaponInfo@@AAU2@@Z
_TEXT	SEGMENT
$T511851 = -16						; size = 4
__$EHRec$ = -12						; size = 12
__Ptr$ = 8						; size = 4
__Val$ = 12						; size = 4
??$construct@AAUWeaponInfo@@@?$allocator@UWeaponInfo@@@std@@QAEXPAUWeaponInfo@@AAU2@@Z PROC ; std::allocator<WeaponInfo>::construct<WeaponInfo &>, COMDAT
; _this$ = ecx

; 206  : 		void construct(pointer _Ptr, _Other&& _Val)

  00000	6a 04		 push	 4
  00002	b8 00 00 00 00	 mov	 eax, __ehhandler$??$construct@AAUWeaponInfo@@@?$allocator@UWeaponInfo@@@std@@QAEXPAUWeaponInfo@@AAU2@@Z
  00007	e8 00 00 00 00	 call	 __EH_prolog3

; 207  : 		{	// construct object at _Ptr with value _Val
; 208  : 		::new ((void _FARQ *)_Ptr) _Ty(_STD forward<_Other>(_Val));

  0000c	8b 4d 08	 mov	 ecx, DWORD PTR __Ptr$[ebp]
  0000f	89 4d f0	 mov	 DWORD PTR $T511851[ebp], ecx
  00012	83 65 fc 00	 and	 DWORD PTR __$EHRec$[ebp+8], 0
  00016	85 c9		 test	 ecx, ecx
  00018	74 08		 je	 SHORT $LN3@construct@3
  0001a	ff 75 0c	 push	 DWORD PTR __Val$[ebp]
  0001d	e8 00 00 00 00	 call	 ??0WeaponInfo@@QAE@ABU0@@Z
$LN3@construct@3:

; 209  : 		}

  00022	e8 00 00 00 00	 call	 __EH_epilog3
  00027	c2 08 00	 ret	 8
_TEXT	ENDS
;	COMDAT text$x
text$x	SEGMENT
__unwindfunclet$??$construct@AAUWeaponInfo@@@?$allocator@UWeaponInfo@@@std@@QAEXPAUWeaponInfo@@AAU2@@Z$0:
  00000	ff 75 08	 push	 DWORD PTR __Ptr$[ebp]
  00003	ff 75 f0	 push	 DWORD PTR $T511851[ebp]
  00006	e8 00 00 00 00	 call	 ??3@YAXPAX0@Z		; operator delete
  0000b	59		 pop	 ecx
  0000c	59		 pop	 ecx
  0000d	c3		 ret	 0
__ehhandler$??$construct@AAUWeaponInfo@@@?$allocator@UWeaponInfo@@@std@@QAEXPAUWeaponInfo@@AAU2@@Z:
  0000e	8b 54 24 08	 mov	 edx, DWORD PTR [esp+8]
  00012	8d 42 0c	 lea	 eax, DWORD PTR [edx+12]
  00015	8b 4a ec	 mov	 ecx, DWORD PTR [edx-20]
  00018	33 c8		 xor	 ecx, eax
  0001a	e8 00 00 00 00	 call	 @__security_check_cookie@4
  0001f	b8 00 00 00 00	 mov	 eax, OFFSET __ehfuncinfo$??$construct@AAUWeaponInfo@@@?$allocator@UWeaponInfo@@@std@@QAEXPAUWeaponInfo@@AAU2@@Z
  00024	e9 00 00 00 00	 jmp	 ___CxxFrameHandler3
text$x	ENDS
??$construct@AAUWeaponInfo@@@?$allocator@UWeaponInfo@@@std@@QAEXPAUWeaponInfo@@AAU2@@Z ENDP ; std::allocator<WeaponInfo>::construct<WeaponInfo &>
PUBLIC	?HasAttack@ioFormalAttackGrp@@QBE_NW4AttackType@@H@Z ; ioFormalAttackGrp::HasAttack
; Function compile flags: /Ogsp
; File d:\lost saga for developer\youtube\tutorial\source\src\lsclient\ioformalattackgrp.cpp
;	COMDAT ?HasAttack@ioFormalAttackGrp@@QBE_NW4AttackType@@H@Z
_TEXT	SEGMENT
_eType$ = 8						; size = 4
_iSubIdx$ = 12						; size = 4
?HasAttack@ioFormalAttackGrp@@QBE_NW4AttackType@@H@Z PROC ; ioFormalAttackGrp::HasAttack, COMDAT
; _this$ = ecx

; 387  : {

  00000	55		 push	 ebp
  00001	8b ec		 mov	 ebp, esp

; 388  : 	switch( eType )

  00003	8b 45 08	 mov	 eax, DWORD PTR _eType$[ebp]
  00006	83 f8 09	 cmp	 eax, 9
  00009	77 2e		 ja	 SHORT $LN1@HasAttack
  0000b	ff 24 85 00 00
	00 00		 jmp	 DWORD PTR $LN42@HasAttack[eax*4]
$LN23@HasAttack:

; 389  : 	{
; 390  : 	case AT_NORMAL:
; 391  : 		if( !COMPARE( iSubIdx, 0, GetNormalMaxCombo() ) )

  00012	83 7d 0c 00	 cmp	 DWORD PTR _iSubIdx$[ebp], 0
  00016	7c 10		 jl	 SHORT $LN21@HasAttack
  00018	8b 41 04	 mov	 eax, DWORD PTR [ecx+4]
  0001b	2b 01		 sub	 eax, DWORD PTR [ecx]
$LN40@HasAttack:
  0001d	6a 50		 push	 80			; 00000050H
  0001f	99		 cdq
  00020	59		 pop	 ecx
  00021	f7 f9		 idiv	 ecx
  00023	39 45 0c	 cmp	 DWORD PTR _iSubIdx$[ebp], eax
  00026	7c 11		 jl	 SHORT $LN1@HasAttack
$LN21@HasAttack:

; 392  : 			return false;

  00028	32 c0		 xor	 al, al
  0002a	eb 0f		 jmp	 SHORT $LN26@HasAttack
$LN20@HasAttack:

; 393  : 		break;
; 394  : 	case AT_COUNTER_ATTACK:
; 395  : 		if( m_CounterAttack.m_AttackAnimation.IsEmpty() )

  0002c	83 c1 10	 add	 ecx, 16			; 00000010H
$LN41@HasAttack:
  0002f	ff 15 00 00 00
	00		 call	 DWORD PTR __imp_?IsEmpty@ioHashString@@QBE_NXZ
  00035	84 c0		 test	 al, al
  00037	75 ef		 jne	 SHORT $LN21@HasAttack
$LN1@HasAttack:

; 429  : 		break;
; 430  : 	}
; 431  : 
; 432  : 	return true;

  00039	b0 01		 mov	 al, 1
$LN26@HasAttack:

; 433  : }

  0003b	5d		 pop	 ebp
  0003c	c2 08 00	 ret	 8
$LN18@HasAttack:

; 396  : 			return false;
; 397  : 		break;
; 398  : 	case AT_DASH_ATTACK:
; 399  : 		if( m_DashAttack.m_AttackAnimation.IsEmpty() )

  0003f	83 c1 60	 add	 ecx, 96			; 00000060H

; 400  : 			return false;

  00042	eb eb		 jmp	 SHORT $LN41@HasAttack
$LN16@HasAttack:

; 401  : 		break;
; 402  : 	case AT_EXTRA_DASH_ATTACK:
; 403  : 		if( !COMPARE( iSubIdx, 0, GetExtraDashAttackMax() ) )

  00044	83 7d 0c 00	 cmp	 DWORD PTR _iSubIdx$[ebp], 0
  00048	7c de		 jl	 SHORT $LN21@HasAttack
  0004a	8b 81 44 02 00
	00		 mov	 eax, DWORD PTR [ecx+580]
  00050	2b 81 40 02 00
	00		 sub	 eax, DWORD PTR [ecx+576]

; 404  : 			return false;

  00056	eb c5		 jmp	 SHORT $LN40@HasAttack
$LN13@HasAttack:

; 405  : 		break;
; 406  : 	case AT_EXTRA_OTHER_DASH_ATTACK:
; 407  : 		if( !COMPARE( iSubIdx, 0, GetExtraOtherDashAttackMax() ) )

  00058	83 7d 0c 00	 cmp	 DWORD PTR _iSubIdx$[ebp], 0
  0005c	7c ca		 jl	 SHORT $LN21@HasAttack
  0005e	8b 81 54 02 00
	00		 mov	 eax, DWORD PTR [ecx+596]
  00064	2b 81 50 02 00
	00		 sub	 eax, DWORD PTR [ecx+592]

; 408  : 			return false;

  0006a	eb b1		 jmp	 SHORT $LN40@HasAttack
$LN10@HasAttack:

; 409  : 		break;
; 410  : 	case AT_JUMP_ATTACK:
; 411  : 		if( m_JumpAttack.m_AttackAnimation.IsEmpty() )

  0006c	81 c1 b0 00 00
	00		 add	 ecx, 176		; 000000b0H

; 412  : 			return false;

  00072	eb bb		 jmp	 SHORT $LN41@HasAttack
$LN8@HasAttack:

; 413  : 		break;
; 414  : 	case AT_EXTEND_JUMP_ATTACK:
; 415  : 		if( m_ExtendJumpAttack.m_AttackAnimation.IsEmpty() )

  00074	81 c1 00 01 00
	00		 add	 ecx, 256		; 00000100H

; 416  : 			return false;

  0007a	eb b3		 jmp	 SHORT $LN41@HasAttack
$LN6@HasAttack:

; 417  : 		break;
; 418  : 	case AT_LAND_JUMP_ATTACK:
; 419  : 		if( m_LandJumpAttack.m_AttackAnimation.IsEmpty() )

  0007c	81 c1 50 01 00
	00		 add	 ecx, 336		; 00000150H

; 420  : 			return false;

  00082	eb ab		 jmp	 SHORT $LN41@HasAttack
$LN4@HasAttack:

; 421  : 		break;
; 422  : 	case AT_EXTEND_LAND_JUMP_ATTACK:
; 423  : 		if( m_ExtendLandJumpAttack.m_AttackAnimation.IsEmpty() )

  00084	81 c1 a0 01 00
	00		 add	 ecx, 416		; 000001a0H

; 424  : 			return false;

  0008a	eb a3		 jmp	 SHORT $LN41@HasAttack
$LN2@HasAttack:

; 425  : 		break;
; 426  : 	case AT_HIGH_JUMP_ATTACK:
; 427  : 		if( m_HighJumpAttack.m_AttackAnimation.IsEmpty() )

  0008c	81 c1 f0 01 00
	00		 add	 ecx, 496		; 000001f0H

; 428  : 			return false;

  00092	eb 9b		 jmp	 SHORT $LN41@HasAttack
$LN42@HasAttack:

; 433  : }

  00094	00 00 00 00	 DD	 $LN23@HasAttack
  00098	00 00 00 00	 DD	 $LN20@HasAttack
  0009c	00 00 00 00	 DD	 $LN18@HasAttack
  000a0	00 00 00 00	 DD	 $LN10@HasAttack
  000a4	00 00 00 00	 DD	 $LN8@HasAttack
  000a8	00 00 00 00	 DD	 $LN6@HasAttack
  000ac	00 00 00 00	 DD	 $LN4@HasAttack
  000b0	00 00 00 00	 DD	 $LN2@HasAttack
  000b4	00 00 00 00	 DD	 $LN16@HasAttack
  000b8	00 00 00 00	 DD	 $LN13@HasAttack
?HasAttack@ioFormalAttackGrp@@QBE_NW4AttackType@@H@Z ENDP ; ioFormalAttackGrp::HasAttack
_TEXT	ENDS
PUBLIC	?HasAttackEnd@ioFormalAttackGrp@@QBE_NW4AttackType@@H@Z ; ioFormalAttackGrp::HasAttackEnd
; Function compile flags: /Ogsp
;	COMDAT ?HasAttackEnd@ioFormalAttackGrp@@QBE_NW4AttackType@@H@Z
_TEXT	SEGMENT
_eType$ = 8						; size = 4
_iSubIdx$ = 12						; size = 4
?HasAttackEnd@ioFormalAttackGrp@@QBE_NW4AttackType@@H@Z PROC ; ioFormalAttackGrp::HasAttackEnd, COMDAT
; _this$ = ecx

; 436  : {

  00000	55		 push	 ebp
  00001	8b ec		 mov	 ebp, esp

; 437  : 	switch( eType )

  00003	8b 45 08	 mov	 eax, DWORD PTR _eType$[ebp]
  00006	56		 push	 esi
  00007	57		 push	 edi
  00008	83 f8 09	 cmp	 eax, 9
  0000b	0f 87 9e 00 00
	00		 ja	 $LN1@HasAttackE
  00011	ff 24 85 00 00
	00 00		 jmp	 DWORD PTR $LN51@HasAttackE[eax*4]
$LN26@HasAttackE:

; 438  : 	{
; 439  : 	case AT_NORMAL:
; 440  : 		if( !COMPARE( iSubIdx, 0, GetNormalMaxCombo() ) )

  00018	8b 75 0c	 mov	 esi, DWORD PTR _iSubIdx$[ebp]
  0001b	85 f6		 test	 esi, esi
  0001d	78 24		 js	 SHORT $LN24@HasAttackE
  0001f	8b 39		 mov	 edi, DWORD PTR [ecx]
  00021	8b 41 04	 mov	 eax, DWORD PTR [ecx+4]
  00024	2b c7		 sub	 eax, edi
  00026	6a 50		 push	 80			; 00000050H
  00028	99		 cdq
  00029	59		 pop	 ecx
  0002a	f7 f9		 idiv	 ecx
  0002c	3b f0		 cmp	 esi, eax
  0002e	7d 13		 jge	 SHORT $LN24@HasAttackE

; 442  : 		if( m_NormalAttackList[iSubIdx].m_AttackEndAnimation.IsEmpty() )

  00030	6b f6 50	 imul	 esi, 80			; 00000050H
  00033	8d 0c 37	 lea	 ecx, DWORD PTR [edi+esi]
  00036	8d 49 14	 lea	 ecx, DWORD PTR [ecx+20]
$LN49@HasAttackE:
  00039	ff 15 00 00 00
	00		 call	 DWORD PTR __imp_?IsEmpty@ioHashString@@QBE_NXZ
  0003f	84 c0		 test	 al, al
  00041	74 6c		 je	 SHORT $LN1@HasAttackE
$LN24@HasAttackE:

; 441  : 			return false;

  00043	32 c0		 xor	 al, al
  00045	eb 6a		 jmp	 SHORT $LN29@HasAttackE
$LN22@HasAttackE:

; 443  : 			return false;
; 444  : 		break;
; 445  : 	case AT_COUNTER_ATTACK:
; 446  : 		if( m_CounterAttack.m_AttackEndAnimation.IsEmpty() )

  00047	83 c1 24	 add	 ecx, 36			; 00000024H

; 447  : 			return false;

  0004a	eb ed		 jmp	 SHORT $LN49@HasAttackE
$LN20@HasAttackE:

; 448  : 		break;
; 449  : 	case AT_DASH_ATTACK:
; 450  : 		if( m_DashAttack.m_AttackEndAnimation.IsEmpty() )

  0004c	83 c1 74	 add	 ecx, 116		; 00000074H

; 451  : 			return false;

  0004f	eb e8		 jmp	 SHORT $LN49@HasAttackE
$LN18@HasAttackE:

; 452  : 		break;
; 453  : 	case AT_EXTRA_DASH_ATTACK:
; 454  : 		if( !COMPARE( iSubIdx, 0, GetExtraDashAttackMax() ) )

  00051	8b 75 0c	 mov	 esi, DWORD PTR _iSubIdx$[ebp]
  00054	85 f6		 test	 esi, esi
  00056	78 eb		 js	 SHORT $LN24@HasAttackE
  00058	8d 81 40 02 00
	00		 lea	 eax, DWORD PTR [ecx+576]
$LN50@HasAttackE:
  0005e	8b 08		 mov	 ecx, DWORD PTR [eax]
  00060	8b 40 04	 mov	 eax, DWORD PTR [eax+4]
  00063	2b c1		 sub	 eax, ecx
  00065	6a 50		 push	 80			; 00000050H
  00067	99		 cdq
  00068	5f		 pop	 edi
  00069	f7 ff		 idiv	 edi
  0006b	3b f0		 cmp	 esi, eax
  0006d	7d d4		 jge	 SHORT $LN24@HasAttackE

; 455  : 			return false;
; 456  : 		if( m_ExtraDashAttackList[iSubIdx].m_AttackEndAnimation.IsEmpty() )

  0006f	6b f6 50	 imul	 esi, 80			; 00000050H
  00072	8d 4c 31 14	 lea	 ecx, DWORD PTR [ecx+esi+20]

; 457  : 			return false;

  00076	eb c1		 jmp	 SHORT $LN49@HasAttackE
$LN14@HasAttackE:

; 458  : 		break;
; 459  : 	case AT_EXTRA_OTHER_DASH_ATTACK:
; 460  : 		if( !COMPARE( iSubIdx, 0, GetExtraOtherDashAttackMax() ) )

  00078	8b 75 0c	 mov	 esi, DWORD PTR _iSubIdx$[ebp]
  0007b	85 f6		 test	 esi, esi
  0007d	78 c4		 js	 SHORT $LN24@HasAttackE
  0007f	8d 81 50 02 00
	00		 lea	 eax, DWORD PTR [ecx+592]

; 461  : 			return false;
; 462  : 		if( m_ExtraOtherDashAttackList[iSubIdx].m_AttackEndAnimation.IsEmpty() )
; 463  : 			return false;

  00085	eb d7		 jmp	 SHORT $LN50@HasAttackE
$LN10@HasAttackE:

; 464  : 		break;
; 465  : 	case AT_JUMP_ATTACK:
; 466  : 		if( m_JumpAttack.m_AttackEndAnimation.IsEmpty() )

  00087	81 c1 c4 00 00
	00		 add	 ecx, 196		; 000000c4H

; 467  : 			return false;

  0008d	eb aa		 jmp	 SHORT $LN49@HasAttackE
$LN8@HasAttackE:

; 468  : 		break;
; 469  : 	case AT_EXTEND_JUMP_ATTACK:
; 470  : 		if( m_ExtendJumpAttack.m_AttackEndAnimation.IsEmpty() )

  0008f	81 c1 14 01 00
	00		 add	 ecx, 276		; 00000114H

; 471  : 			return false;

  00095	eb a2		 jmp	 SHORT $LN49@HasAttackE
$LN6@HasAttackE:

; 472  : 		break;
; 473  : 	case AT_LAND_JUMP_ATTACK:
; 474  : 		if( m_LandJumpAttack.m_AttackEndAnimation.IsEmpty() )

  00097	81 c1 64 01 00
	00		 add	 ecx, 356		; 00000164H

; 475  : 			return false;

  0009d	eb 9a		 jmp	 SHORT $LN49@HasAttackE
$LN4@HasAttackE:

; 476  : 		break;
; 477  : 	case AT_EXTEND_LAND_JUMP_ATTACK:
; 478  : 		if( m_ExtendLandJumpAttack.m_AttackEndAnimation.IsEmpty() )

  0009f	81 c1 b4 01 00
	00		 add	 ecx, 436		; 000001b4H

; 479  : 			return false;

  000a5	eb 92		 jmp	 SHORT $LN49@HasAttackE
$LN2@HasAttackE:

; 480  : 		break;
; 481  : 	case AT_HIGH_JUMP_ATTACK:
; 482  : 		if( m_HighJumpAttack.m_AttackEndAnimation.IsEmpty() )

  000a7	81 c1 04 02 00
	00		 add	 ecx, 516		; 00000204H

; 483  : 			return false;

  000ad	eb 8a		 jmp	 SHORT $LN49@HasAttackE
$LN1@HasAttackE:

; 484  : 		break;
; 485  : 	}
; 486  : 
; 487  : 	return true;

  000af	b0 01		 mov	 al, 1
$LN29@HasAttackE:
  000b1	5f		 pop	 edi
  000b2	5e		 pop	 esi

; 488  : }

  000b3	5d		 pop	 ebp
  000b4	c2 08 00	 ret	 8
  000b7	90		 npad	 1
$LN51@HasAttackE:
  000b8	00 00 00 00	 DD	 $LN26@HasAttackE
  000bc	00 00 00 00	 DD	 $LN22@HasAttackE
  000c0	00 00 00 00	 DD	 $LN20@HasAttackE
  000c4	00 00 00 00	 DD	 $LN10@HasAttackE
  000c8	00 00 00 00	 DD	 $LN8@HasAttackE
  000cc	00 00 00 00	 DD	 $LN6@HasAttackE
  000d0	00 00 00 00	 DD	 $LN4@HasAttackE
  000d4	00 00 00 00	 DD	 $LN2@HasAttackE
  000d8	00 00 00 00	 DD	 $LN18@HasAttackE
  000dc	00 00 00 00	 DD	 $LN14@HasAttackE
?HasAttackEnd@ioFormalAttackGrp@@QBE_NW4AttackType@@H@Z ENDP ; ioFormalAttackGrp::HasAttackEnd
_TEXT	ENDS
PUBLIC	??_C@_0DG@KGPNJKCL@ioFormalAttackGrp?3?3GetAttribute?5@ ; `string'
PUBLIC	?GetAttribute@ioFormalAttackGrp@@QBEPBUAttackAttribute@@W4AttackType@@H@Z ; ioFormalAttackGrp::GetAttribute
EXTRN	__imp_?PrintTimeAndLog@CLog@@QAAXHPADZZ:PROC
EXTRN	__imp_?LOG@@3VCLog@@A:BYTE
;	COMDAT ??_C@_0DG@KGPNJKCL@ioFormalAttackGrp?3?3GetAttribute?5@
; File c:\program files (x86)\microsoft visual studio 10.0\vc\include\vector
CONST	SEGMENT
??_C@_0DG@KGPNJKCL@ioFormalAttackGrp?3?3GetAttribute?5@ DB 'ioFormalAttac'
	DB	'kGrp::GetAttribute %d unknown AttackType', 00H ; `string'
; Function compile flags: /Ogsp
; File d:\lost saga for developer\youtube\tutorial\source\src\lsclient\ioformalattackgrp.cpp
CONST	ENDS
;	COMDAT ?GetAttribute@ioFormalAttackGrp@@QBEPBUAttackAttribute@@W4AttackType@@H@Z
_TEXT	SEGMENT
_eType$ = 8						; size = 4
_iSubIdx$ = 12						; size = 4
?GetAttribute@ioFormalAttackGrp@@QBEPBUAttackAttribute@@W4AttackType@@H@Z PROC ; ioFormalAttackGrp::GetAttribute, COMDAT
; _this$ = ecx

; 506  : {

  00000	55		 push	 ebp
  00001	8b ec		 mov	 ebp, esp
  00003	53		 push	 ebx

; 507  : 	if( !HasAttack( eType, iSubIdx ) )

  00004	8b 5d 0c	 mov	 ebx, DWORD PTR _iSubIdx$[ebp]
  00007	56		 push	 esi
  00008	57		 push	 edi
  00009	8b 7d 08	 mov	 edi, DWORD PTR _eType$[ebp]
  0000c	53		 push	 ebx
  0000d	57		 push	 edi
  0000e	8b f1		 mov	 esi, ecx
  00010	e8 00 00 00 00	 call	 ?HasAttack@ioFormalAttackGrp@@QBE_NW4AttackType@@H@Z ; ioFormalAttackGrp::HasAttack
  00015	84 c0		 test	 al, al

; 508  : 		return NULL;

  00017	74 78		 je	 SHORT $LN22@GetAttribu

; 509  : 
; 510  : 	switch( eType )

  00019	83 ff 09	 cmp	 edi, 9
  0001c	77 5c		 ja	 SHORT $LN11@GetAttribu
  0001e	ff 24 bd 00 00
	00 00		 jmp	 DWORD PTR $LN23@GetAttribu[edi*4]
$LN10@GetAttribu:

; 511  : 	{
; 512  : 	case AT_NORMAL:
; 513  : 		return &m_NormalAttackList[iSubIdx];

  00025	8b c3		 mov	 eax, ebx
  00027	6b c0 50	 imul	 eax, 80			; 00000050H
  0002a	03 06		 add	 eax, DWORD PTR [esi]
  0002c	eb 65		 jmp	 SHORT $LN14@GetAttribu
$LN9@GetAttribu:

; 514  : 	case AT_COUNTER_ATTACK:
; 515  : 		return &m_CounterAttack;

  0002e	8d 46 10	 lea	 eax, DWORD PTR [esi+16]
  00031	eb 60		 jmp	 SHORT $LN14@GetAttribu
$LN8@GetAttribu:

; 516  : 	case AT_DASH_ATTACK:
; 517  : 		return &m_DashAttack;

  00033	8d 46 60	 lea	 eax, DWORD PTR [esi+96]
  00036	eb 5b		 jmp	 SHORT $LN14@GetAttribu
$LN7@GetAttribu:

; 518  : 	case AT_EXTRA_DASH_ATTACK:
; 519  : 		return &m_ExtraDashAttackList[iSubIdx];

  00038	8b c3		 mov	 eax, ebx
  0003a	6b c0 50	 imul	 eax, 80			; 00000050H
  0003d	03 86 40 02 00
	00		 add	 eax, DWORD PTR [esi+576]
  00043	eb 4e		 jmp	 SHORT $LN14@GetAttribu
$LN6@GetAttribu:

; 520  : 	case AT_EXTRA_OTHER_DASH_ATTACK:
; 521  : 		return &m_ExtraOtherDashAttackList[iSubIdx];

  00045	8b c3		 mov	 eax, ebx
  00047	6b c0 50	 imul	 eax, 80			; 00000050H
  0004a	03 86 50 02 00
	00		 add	 eax, DWORD PTR [esi+592]
  00050	eb 41		 jmp	 SHORT $LN14@GetAttribu
$LN5@GetAttribu:

; 522  : 	case AT_JUMP_ATTACK:
; 523  : 		return &m_JumpAttack;

  00052	8d 86 b0 00 00
	00		 lea	 eax, DWORD PTR [esi+176]
  00058	eb 39		 jmp	 SHORT $LN14@GetAttribu
$LN4@GetAttribu:

; 524  : 	case AT_EXTEND_JUMP_ATTACK:
; 525  : 		return &m_ExtendJumpAttack;

  0005a	8d 86 00 01 00
	00		 lea	 eax, DWORD PTR [esi+256]
  00060	eb 31		 jmp	 SHORT $LN14@GetAttribu
$LN3@GetAttribu:

; 526  : 	case AT_LAND_JUMP_ATTACK:
; 527  : 		return &m_LandJumpAttack;

  00062	8d 86 50 01 00
	00		 lea	 eax, DWORD PTR [esi+336]
  00068	eb 29		 jmp	 SHORT $LN14@GetAttribu
$LN2@GetAttribu:

; 528  : 	case AT_EXTEND_LAND_JUMP_ATTACK:
; 529  : 		return &m_ExtendLandJumpAttack;

  0006a	8d 86 a0 01 00
	00		 lea	 eax, DWORD PTR [esi+416]
  00070	eb 21		 jmp	 SHORT $LN14@GetAttribu
$LN1@GetAttribu:

; 530  : 	case AT_HIGH_JUMP_ATTACK:
; 531  : 		return &m_HighJumpAttack;

  00072	8d 86 f0 01 00
	00		 lea	 eax, DWORD PTR [esi+496]
  00078	eb 19		 jmp	 SHORT $LN14@GetAttribu
$LN11@GetAttribu:

; 532  : 	}
; 533  : 
; 534  : 	LOG.PrintTimeAndLog( 0, "ioFormalAttackGrp::GetAttribute %d unknown AttackType", eType );

  0007a	57		 push	 edi
  0007b	68 00 00 00 00	 push	 OFFSET ??_C@_0DG@KGPNJKCL@ioFormalAttackGrp?3?3GetAttribute?5@
  00080	6a 00		 push	 0
  00082	ff 35 00 00 00
	00		 push	 DWORD PTR __imp_?LOG@@3VCLog@@A
  00088	ff 15 00 00 00
	00		 call	 DWORD PTR __imp_?PrintTimeAndLog@CLog@@QAAXHPADZZ
  0008e	83 c4 10	 add	 esp, 16			; 00000010H
$LN22@GetAttribu:

; 535  : 
; 536  : 	return NULL;

  00091	33 c0		 xor	 eax, eax
$LN14@GetAttribu:
  00093	5f		 pop	 edi
  00094	5e		 pop	 esi
  00095	5b		 pop	 ebx

; 537  : }

  00096	5d		 pop	 ebp
  00097	c2 08 00	 ret	 8
  0009a	8b ff		 npad	 2
$LN23@GetAttribu:
  0009c	00 00 00 00	 DD	 $LN10@GetAttribu
  000a0	00 00 00 00	 DD	 $LN9@GetAttribu
  000a4	00 00 00 00	 DD	 $LN8@GetAttribu
  000a8	00 00 00 00	 DD	 $LN5@GetAttribu
  000ac	00 00 00 00	 DD	 $LN4@GetAttribu
  000b0	00 00 00 00	 DD	 $LN3@GetAttribu
  000b4	00 00 00 00	 DD	 $LN2@GetAttribu
  000b8	00 00 00 00	 DD	 $LN1@GetAttribu
  000bc	00 00 00 00	 DD	 $LN7@GetAttribu
  000c0	00 00 00 00	 DD	 $LN6@GetAttribu
?GetAttribute@ioFormalAttackGrp@@QBEPBUAttackAttribute@@W4AttackType@@H@Z ENDP ; ioFormalAttackGrp::GetAttribute
_TEXT	ENDS
PUBLIC	?GetAniFile@ioFormalAttackGrp@@QBEABVioHashString@@W4AttackType@@H@Z ; ioFormalAttackGrp::GetAniFile
; Function compile flags: /Ogsp
;	COMDAT ?GetAniFile@ioFormalAttackGrp@@QBEABVioHashString@@W4AttackType@@H@Z
_TEXT	SEGMENT
_eType$ = 8						; size = 4
_iSubIdx$ = 12						; size = 4
?GetAniFile@ioFormalAttackGrp@@QBEABVioHashString@@W4AttackType@@H@Z PROC ; ioFormalAttackGrp::GetAniFile, COMDAT
; _this$ = ecx

; 540  : {

  00000	55		 push	 ebp
  00001	8b ec		 mov	 ebp, esp
  00003	56		 push	 esi

; 541  : 	const AttackAttribute *pAttr = GetAttribute( eType, iSubIdx );

  00004	ff 75 0c	 push	 DWORD PTR _iSubIdx$[ebp]
  00007	8b f1		 mov	 esi, ecx
  00009	ff 75 08	 push	 DWORD PTR _eType$[ebp]
  0000c	e8 00 00 00 00	 call	 ?GetAttribute@ioFormalAttackGrp@@QBEPBUAttackAttribute@@W4AttackType@@H@Z ; ioFormalAttackGrp::GetAttribute

; 542  : 	if( pAttr )

  00011	85 c0		 test	 eax, eax

; 543  : 		return pAttr->m_AttackAnimation;

  00013	75 02		 jne	 SHORT $LN2@GetAniFile

; 544  : 
; 545  : 	return m_NormalAttackList[0].m_AttackAnimation;

  00015	8b 06		 mov	 eax, DWORD PTR [esi]
$LN2@GetAniFile:
  00017	5e		 pop	 esi

; 546  : }

  00018	5d		 pop	 ebp
  00019	c2 08 00	 ret	 8
?GetAniFile@ioFormalAttackGrp@@QBEABVioHashString@@W4AttackType@@H@Z ENDP ; ioFormalAttackGrp::GetAniFile
_TEXT	ENDS
PUBLIC	__real@4f800000
PUBLIC	?GetAttackAniRate@ioFormalAttackGrp@@QBEMW4AttackType@@H@Z ; ioFormalAttackGrp::GetAttackAniRate
EXTRN	__fltused:DWORD
;	COMDAT __real@4f800000
; File d:\lost saga for developer\youtube\tutorial\source\src\lsclient\stdafx.h
CONST	SEGMENT
__real@4f800000 DD 04f800000r			; 4.29497e+009
; Function compile flags: /Ogsp
; File d:\lost saga for developer\youtube\tutorial\source\src\lsclient\ioformalattackgrp.cpp
CONST	ENDS
;	COMDAT ?GetAttackAniRate@ioFormalAttackGrp@@QBEMW4AttackType@@H@Z
_TEXT	SEGMENT
_eType$ = 8						; size = 4
tv131 = 12						; size = 4
_iSubIdx$ = 12						; size = 4
?GetAttackAniRate@ioFormalAttackGrp@@QBEMW4AttackType@@H@Z PROC ; ioFormalAttackGrp::GetAttackAniRate, COMDAT
; _this$ = ecx

; 549  : {

  00000	55		 push	 ebp
  00001	8b ec		 mov	 ebp, esp

; 550  : 	const AttackAttribute *pAttr = GetAttribute( eType, iSubIdx );

  00003	ff 75 0c	 push	 DWORD PTR _iSubIdx$[ebp]
  00006	ff 75 08	 push	 DWORD PTR _eType$[ebp]
  00009	e8 00 00 00 00	 call	 ?GetAttribute@ioFormalAttackGrp@@QBEPBUAttackAttribute@@W4AttackType@@H@Z ; ioFormalAttackGrp::GetAttribute

; 551  : 	if( pAttr )

  0000e	85 c0		 test	 eax, eax
  00010	74 05		 je	 SHORT $LN1@GetAttackA

; 552  : 		return pAttr->m_fAttackAniRate;

  00012	d9 40 10	 fld	 DWORD PTR [eax+16]
  00015	eb 15		 jmp	 SHORT $LN2@GetAttackA
$LN1@GetAttackA:

; 553  : 
; 554  : 	return FLOAT1;

  00017	b8 01 00 00 00	 mov	 eax, 1
  0001c	89 45 0c	 mov	 DWORD PTR tv131[ebp], eax
  0001f	db 45 0c	 fild	 DWORD PTR tv131[ebp]
  00022	85 c0		 test	 eax, eax
  00024	79 06		 jns	 SHORT $LN2@GetAttackA
  00026	d8 05 00 00 00
	00		 fadd	 DWORD PTR __real@4f800000
$LN2@GetAttackA:

; 555  : }

  0002c	5d		 pop	 ebp
  0002d	c2 08 00	 ret	 8
?GetAttackAniRate@ioFormalAttackGrp@@QBEMW4AttackType@@H@Z ENDP ; ioFormalAttackGrp::GetAttackAniRate
_TEXT	ENDS
PUBLIC	?GetEndAniFile@ioFormalAttackGrp@@QBEABVioHashString@@W4AttackType@@H@Z ; ioFormalAttackGrp::GetEndAniFile
; Function compile flags: /Ogsp
;	COMDAT ?GetEndAniFile@ioFormalAttackGrp@@QBEABVioHashString@@W4AttackType@@H@Z
_TEXT	SEGMENT
_eType$ = 8						; size = 4
_iSubIdx$ = 12						; size = 4
?GetEndAniFile@ioFormalAttackGrp@@QBEABVioHashString@@W4AttackType@@H@Z PROC ; ioFormalAttackGrp::GetEndAniFile, COMDAT
; _this$ = ecx

; 558  : {

  00000	55		 push	 ebp
  00001	8b ec		 mov	 ebp, esp
  00003	56		 push	 esi

; 559  : 	const AttackAttribute *pAttr = GetAttribute( eType, iSubIdx );

  00004	ff 75 0c	 push	 DWORD PTR _iSubIdx$[ebp]
  00007	8b f1		 mov	 esi, ecx
  00009	ff 75 08	 push	 DWORD PTR _eType$[ebp]
  0000c	e8 00 00 00 00	 call	 ?GetAttribute@ioFormalAttackGrp@@QBEPBUAttackAttribute@@W4AttackType@@H@Z ; ioFormalAttackGrp::GetAttribute

; 560  : 	if( pAttr )

  00011	85 c0		 test	 eax, eax

; 561  : 		return pAttr->m_AttackEndAnimation;

  00013	75 02		 jne	 SHORT $LN6@GetEndAniF

; 562  : 
; 563  : 	return m_NormalAttackList[0].m_AttackEndAnimation;

  00015	8b 06		 mov	 eax, DWORD PTR [esi]
$LN6@GetEndAniF:
  00017	83 c0 14	 add	 eax, 20			; 00000014H
  0001a	5e		 pop	 esi

; 564  : }

  0001b	5d		 pop	 ebp
  0001c	c2 08 00	 ret	 8
?GetEndAniFile@ioFormalAttackGrp@@QBEABVioHashString@@W4AttackType@@H@Z ENDP ; ioFormalAttackGrp::GetEndAniFile
_TEXT	ENDS
PUBLIC	?GetAttackEndAniRate@ioFormalAttackGrp@@QBEMW4AttackType@@H@Z ; ioFormalAttackGrp::GetAttackEndAniRate
; Function compile flags: /Ogsp
;	COMDAT ?GetAttackEndAniRate@ioFormalAttackGrp@@QBEMW4AttackType@@H@Z
_TEXT	SEGMENT
_eType$ = 8						; size = 4
tv131 = 12						; size = 4
_iSubIdx$ = 12						; size = 4
?GetAttackEndAniRate@ioFormalAttackGrp@@QBEMW4AttackType@@H@Z PROC ; ioFormalAttackGrp::GetAttackEndAniRate, COMDAT
; _this$ = ecx

; 567  : {

  00000	55		 push	 ebp
  00001	8b ec		 mov	 ebp, esp

; 568  : 	const AttackAttribute *pAttr = GetAttribute( eType, iSubIdx );

  00003	ff 75 0c	 push	 DWORD PTR _iSubIdx$[ebp]
  00006	ff 75 08	 push	 DWORD PTR _eType$[ebp]
  00009	e8 00 00 00 00	 call	 ?GetAttribute@ioFormalAttackGrp@@QBEPBUAttackAttribute@@W4AttackType@@H@Z ; ioFormalAttackGrp::GetAttribute

; 569  : 	if( pAttr )

  0000e	85 c0		 test	 eax, eax
  00010	74 05		 je	 SHORT $LN1@GetAttackE

; 570  : 		return pAttr->m_fAttackEndAniRate;

  00012	d9 40 24	 fld	 DWORD PTR [eax+36]
  00015	eb 15		 jmp	 SHORT $LN2@GetAttackE
$LN1@GetAttackE:

; 571  : 
; 572  : 	return FLOAT1;

  00017	b8 01 00 00 00	 mov	 eax, 1
  0001c	89 45 0c	 mov	 DWORD PTR tv131[ebp], eax
  0001f	db 45 0c	 fild	 DWORD PTR tv131[ebp]
  00022	85 c0		 test	 eax, eax
  00024	79 06		 jns	 SHORT $LN2@GetAttackE
  00026	d8 05 00 00 00
	00		 fadd	 DWORD PTR __real@4f800000
$LN2@GetAttackE:

; 573  : }

  0002c	5d		 pop	 ebp
  0002d	c2 08 00	 ret	 8
?GetAttackEndAniRate@ioFormalAttackGrp@@QBEMW4AttackType@@H@Z ENDP ; ioFormalAttackGrp::GetAttackEndAniRate
_TEXT	ENDS
PUBLIC	?GetAttackPreDelay@ioFormalAttackGrp@@QBEKW4AttackType@@H@Z ; ioFormalAttackGrp::GetAttackPreDelay
; Function compile flags: /Ogsp
;	COMDAT ?GetAttackPreDelay@ioFormalAttackGrp@@QBEKW4AttackType@@H@Z
_TEXT	SEGMENT
_eType$ = 8						; size = 4
_iSubIdx$ = 12						; size = 4
?GetAttackPreDelay@ioFormalAttackGrp@@QBEKW4AttackType@@H@Z PROC ; ioFormalAttackGrp::GetAttackPreDelay, COMDAT
; _this$ = ecx

; 576  : {

  00000	55		 push	 ebp
  00001	8b ec		 mov	 ebp, esp

; 577  : 	const AttackAttribute *pAttr = GetAttribute( eType, iSubIdx );

  00003	ff 75 0c	 push	 DWORD PTR _iSubIdx$[ebp]
  00006	ff 75 08	 push	 DWORD PTR _eType$[ebp]
  00009	e8 00 00 00 00	 call	 ?GetAttribute@ioFormalAttackGrp@@QBEPBUAttackAttribute@@W4AttackType@@H@Z ; ioFormalAttackGrp::GetAttribute

; 578  : 	if( pAttr )

  0000e	85 c0		 test	 eax, eax
  00010	74 05		 je	 SHORT $LN1@GetAttackP

; 579  : 		return pAttr->m_dwPreDelay;

  00012	8b 40 48	 mov	 eax, DWORD PTR [eax+72]
  00015	eb 02		 jmp	 SHORT $LN2@GetAttackP
$LN1@GetAttackP:

; 580  : 
; 581  : 	return 0;

  00017	33 c0		 xor	 eax, eax
$LN2@GetAttackP:

; 582  : }

  00019	5d		 pop	 ebp
  0001a	c2 08 00	 ret	 8
?GetAttackPreDelay@ioFormalAttackGrp@@QBEKW4AttackType@@H@Z ENDP ; ioFormalAttackGrp::GetAttackPreDelay
_TEXT	ENDS
PUBLIC	?GetAttackAnimationDelay@ioFormalAttackGrp@@QBEKW4AttackType@@H@Z ; ioFormalAttackGrp::GetAttackAnimationDelay
; Function compile flags: /Ogsp
;	COMDAT ?GetAttackAnimationDelay@ioFormalAttackGrp@@QBEKW4AttackType@@H@Z
_TEXT	SEGMENT
_eType$ = 8						; size = 4
_iSubIdx$ = 12						; size = 4
?GetAttackAnimationDelay@ioFormalAttackGrp@@QBEKW4AttackType@@H@Z PROC ; ioFormalAttackGrp::GetAttackAnimationDelay, COMDAT
; _this$ = ecx

; 585  : {

  00000	55		 push	 ebp
  00001	8b ec		 mov	 ebp, esp

; 586  : 	const AttackAttribute *pAttr = GetAttribute( eType, iSubIdx );

  00003	ff 75 0c	 push	 DWORD PTR _iSubIdx$[ebp]
  00006	ff 75 08	 push	 DWORD PTR _eType$[ebp]
  00009	e8 00 00 00 00	 call	 ?GetAttribute@ioFormalAttackGrp@@QBEPBUAttackAttribute@@W4AttackType@@H@Z ; ioFormalAttackGrp::GetAttribute

; 587  : 	if( pAttr )

  0000e	85 c0		 test	 eax, eax
  00010	74 05		 je	 SHORT $LN1@GetAttackA@2

; 588  : 		return pAttr->m_dwEndDelay;

  00012	8b 40 4c	 mov	 eax, DWORD PTR [eax+76]
  00015	eb 02		 jmp	 SHORT $LN2@GetAttackA@2
$LN1@GetAttackA@2:

; 589  : 
; 590  : 	return 0;

  00017	33 c0		 xor	 eax, eax
$LN2@GetAttackA@2:

; 591  : }

  00019	5d		 pop	 ebp
  0001a	c2 08 00	 ret	 8
?GetAttackAnimationDelay@ioFormalAttackGrp@@QBEKW4AttackType@@H@Z ENDP ; ioFormalAttackGrp::GetAttackAnimationDelay
_TEXT	ENDS
PUBLIC	??$_Cons_val@V?$allocator@UForceInfo@@@std@@UForceInfo@@ABU3@@std@@YAXAAV?$allocator@UForceInfo@@@0@PAUForceInfo@@ABU2@@Z ; std::_Cons_val<std::allocator<ForceInfo>,ForceInfo,ForceInfo const &>
; Function compile flags: /Ogsp
; File c:\program files (x86)\microsoft visual studio 10.0\vc\include\xmemory
;	COMDAT ??$_Cons_val@V?$allocator@UForceInfo@@@std@@UForceInfo@@ABU3@@std@@YAXAAV?$allocator@UForceInfo@@@0@PAUForceInfo@@ABU2@@Z
_TEXT	SEGMENT
__Alval$ = 8						; size = 4
__Pdest$ = 12						; size = 4
__Src$ = 16						; size = 4
??$_Cons_val@V?$allocator@UForceInfo@@@std@@UForceInfo@@ABU3@@std@@YAXAAV?$allocator@UForceInfo@@@0@PAUForceInfo@@ABU2@@Z PROC ; std::_Cons_val<std::allocator<ForceInfo>,ForceInfo,ForceInfo const &>, COMDAT

; 279  : 	{	// construct using allocator

  00000	55		 push	 ebp
  00001	8b ec		 mov	 ebp, esp
  00003	57		 push	 edi

; 280  : 	_Alval.construct(_Pdest, _STD forward<_Ty2>(_Src));

  00004	8b 7d 0c	 mov	 edi, DWORD PTR __Pdest$[ebp]
  00007	85 ff		 test	 edi, edi
  00009	74 08		 je	 SHORT $LN9@Cons_val@2
  0000b	56		 push	 esi
  0000c	8b 75 10	 mov	 esi, DWORD PTR __Src$[ebp]
  0000f	a5		 movsd
  00010	a5		 movsd
  00011	a5		 movsd
  00012	5e		 pop	 esi
$LN9@Cons_val@2:
  00013	5f		 pop	 edi

; 281  : 	}

  00014	5d		 pop	 ebp
  00015	c3		 ret	 0
??$_Cons_val@V?$allocator@UForceInfo@@@std@@UForceInfo@@ABU3@@std@@YAXAAV?$allocator@UForceInfo@@@0@PAUForceInfo@@ABU2@@Z ENDP ; std::_Cons_val<std::allocator<ForceInfo>,ForceInfo,ForceInfo const &>
_TEXT	ENDS
PUBLIC	?construct@?$allocator@UWeaponInfo@@@std@@QAEXPAUWeaponInfo@@ABU3@@Z ; std::allocator<WeaponInfo>::construct
; Function compile flags: /Ogsp
;	COMDAT ?construct@?$allocator@UWeaponInfo@@@std@@QAEXPAUWeaponInfo@@ABU3@@Z
_TEXT	SEGMENT
__Ptr$ = 8						; size = 4
__Val$ = 12						; size = 4
?construct@?$allocator@UWeaponInfo@@@std@@QAEXPAUWeaponInfo@@ABU3@@Z PROC ; std::allocator<WeaponInfo>::construct, COMDAT
; _this$ = ecx

; 196  : 		{	// construct object at _Ptr with value _Val

  00000	55		 push	 ebp
  00001	8b ec		 mov	 ebp, esp

; 197  : 		_Construct(_Ptr, _Val);

  00003	ff 75 0c	 push	 DWORD PTR __Val$[ebp]
  00006	ff 75 08	 push	 DWORD PTR __Ptr$[ebp]
  00009	e8 00 00 00 00	 call	 ??$_Construct@UWeaponInfo@@ABU1@@std@@YAXPAUWeaponInfo@@ABU1@@Z ; std::_Construct<WeaponInfo,WeaponInfo const &>
  0000e	59		 pop	 ecx
  0000f	59		 pop	 ecx

; 198  : 		}

  00010	5d		 pop	 ebp
  00011	c2 08 00	 ret	 8
?construct@?$allocator@UWeaponInfo@@@std@@QAEXPAUWeaponInfo@@ABU3@@Z ENDP ; std::allocator<WeaponInfo>::construct
_TEXT	ENDS
PUBLIC	??0?$vector@UWeaponInfo@@V?$allocator@UWeaponInfo@@@std@@@std@@QAE@XZ ; std::vector<WeaponInfo,std::allocator<WeaponInfo> >::vector<WeaponInfo,std::allocator<WeaponInfo> >
; Function compile flags: /Ogsp
; File c:\program files (x86)\microsoft visual studio 10.0\vc\include\vector
;	COMDAT ??0?$vector@UWeaponInfo@@V?$allocator@UWeaponInfo@@@std@@@std@@QAE@XZ
_TEXT	SEGMENT
??0?$vector@UWeaponInfo@@V?$allocator@UWeaponInfo@@@std@@@std@@QAE@XZ PROC ; std::vector<WeaponInfo,std::allocator<WeaponInfo> >::vector<WeaponInfo,std::allocator<WeaponInfo> >, COMDAT
; _this$ = ecx

; 507  : 		{	// construct empty vector

  00000	8b c1		 mov	 eax, ecx
  00002	33 c9		 xor	 ecx, ecx
  00004	89 08		 mov	 DWORD PTR [eax], ecx
  00006	89 48 04	 mov	 DWORD PTR [eax+4], ecx
  00009	89 48 08	 mov	 DWORD PTR [eax+8], ecx

; 508  : 		}

  0000c	c3		 ret	 0
??0?$vector@UWeaponInfo@@V?$allocator@UWeaponInfo@@@std@@@std@@QAE@XZ ENDP ; std::vector<WeaponInfo,std::allocator<WeaponInfo> >::vector<WeaponInfo,std::allocator<WeaponInfo> >
_TEXT	ENDS
PUBLIC	??0?$vector@UForceInfo@@V?$allocator@UForceInfo@@@std@@@std@@QAE@XZ ; std::vector<ForceInfo,std::allocator<ForceInfo> >::vector<ForceInfo,std::allocator<ForceInfo> >
; Function compile flags: /Ogsp
;	COMDAT ??0?$vector@UForceInfo@@V?$allocator@UForceInfo@@@std@@@std@@QAE@XZ
_TEXT	SEGMENT
??0?$vector@UForceInfo@@V?$allocator@UForceInfo@@@std@@@std@@QAE@XZ PROC ; std::vector<ForceInfo,std::allocator<ForceInfo> >::vector<ForceInfo,std::allocator<ForceInfo> >, COMDAT
; _this$ = ecx

; 507  : 		{	// construct empty vector

  00000	8b c1		 mov	 eax, ecx
  00002	33 c9		 xor	 ecx, ecx
  00004	89 08		 mov	 DWORD PTR [eax], ecx
  00006	89 48 04	 mov	 DWORD PTR [eax+4], ecx
  00009	89 48 08	 mov	 DWORD PTR [eax+8], ecx

; 508  : 		}

  0000c	c3		 ret	 0
??0?$vector@UForceInfo@@V?$allocator@UForceInfo@@@std@@@std@@QAE@XZ ENDP ; std::vector<ForceInfo,std::allocator<ForceInfo> >::vector<ForceInfo,std::allocator<ForceInfo> >
_TEXT	ENDS
PUBLIC	??0?$vector@UAttackAttribute@@V?$allocator@UAttackAttribute@@@std@@@std@@QAE@XZ ; std::vector<AttackAttribute,std::allocator<AttackAttribute> >::vector<AttackAttribute,std::allocator<AttackAttribute> >
; Function compile flags: /Ogsp
;	COMDAT ??0?$vector@UAttackAttribute@@V?$allocator@UAttackAttribute@@@std@@@std@@QAE@XZ
_TEXT	SEGMENT
??0?$vector@UAttackAttribute@@V?$allocator@UAttackAttribute@@@std@@@std@@QAE@XZ PROC ; std::vector<AttackAttribute,std::allocator<AttackAttribute> >::vector<AttackAttribute,std::allocator<AttackAttribute> >, COMDAT
; _this$ = ecx

; 507  : 		{	// construct empty vector

  00000	8b c1		 mov	 eax, ecx
  00002	33 c9		 xor	 ecx, ecx
  00004	89 08		 mov	 DWORD PTR [eax], ecx
  00006	89 48 04	 mov	 DWORD PTR [eax+4], ecx
  00009	89 48 08	 mov	 DWORD PTR [eax+8], ecx

; 508  : 		}

  0000c	c3		 ret	 0
??0?$vector@UAttackAttribute@@V?$allocator@UAttackAttribute@@@std@@@std@@QAE@XZ ENDP ; std::vector<AttackAttribute,std::allocator<AttackAttribute> >::vector<AttackAttribute,std::allocator<AttackAttribute> >
_TEXT	ENDS
PUBLIC	?begin@?$vector@UAttackAttribute@@V?$allocator@UAttackAttribute@@@std@@@std@@QAE?AV?$_Vector_iterator@V?$_Vector_val@UAttackAttribute@@V?$allocator@UAttackAttribute@@@std@@@std@@@2@XZ ; std::vector<AttackAttribute,std::allocator<AttackAttribute> >::begin
; Function compile flags: /Ogsp
;	COMDAT ?begin@?$vector@UAttackAttribute@@V?$allocator@UAttackAttribute@@@std@@@std@@QAE?AV?$_Vector_iterator@V?$_Vector_val@UAttackAttribute@@V?$allocator@UAttackAttribute@@@std@@@std@@@2@XZ
_TEXT	SEGMENT
___$ReturnUdt$ = 8					; size = 4
?begin@?$vector@UAttackAttribute@@V?$allocator@UAttackAttribute@@@std@@@std@@QAE?AV?$_Vector_iterator@V?$_Vector_val@UAttackAttribute@@V?$allocator@UAttackAttribute@@@std@@@std@@@2@XZ PROC ; std::vector<AttackAttribute,std::allocator<AttackAttribute> >::begin, COMDAT
; _this$ = ecx

; 781  : 		{	// return iterator for beginning of mutable sequence

  00000	55		 push	 ebp
  00001	8b ec		 mov	 ebp, esp

; 782  : 		return (iterator(this->_Myfirst, this));

  00003	8b 09		 mov	 ecx, DWORD PTR [ecx]
  00005	8b 45 08	 mov	 eax, DWORD PTR ___$ReturnUdt$[ebp]
  00008	89 08		 mov	 DWORD PTR [eax], ecx

; 783  : 		}

  0000a	5d		 pop	 ebp
  0000b	c2 04 00	 ret	 4
?begin@?$vector@UAttackAttribute@@V?$allocator@UAttackAttribute@@@std@@@std@@QAE?AV?$_Vector_iterator@V?$_Vector_val@UAttackAttribute@@V?$allocator@UAttackAttribute@@@std@@@std@@@2@XZ ENDP ; std::vector<AttackAttribute,std::allocator<AttackAttribute> >::begin
_TEXT	ENDS
PUBLIC	?end@?$vector@UAttackAttribute@@V?$allocator@UAttackAttribute@@@std@@@std@@QAE?AV?$_Vector_iterator@V?$_Vector_val@UAttackAttribute@@V?$allocator@UAttackAttribute@@@std@@@std@@@2@XZ ; std::vector<AttackAttribute,std::allocator<AttackAttribute> >::end
; Function compile flags: /Ogsp
;	COMDAT ?end@?$vector@UAttackAttribute@@V?$allocator@UAttackAttribute@@@std@@@std@@QAE?AV?$_Vector_iterator@V?$_Vector_val@UAttackAttribute@@V?$allocator@UAttackAttribute@@@std@@@std@@@2@XZ
_TEXT	SEGMENT
___$ReturnUdt$ = 8					; size = 4
?end@?$vector@UAttackAttribute@@V?$allocator@UAttackAttribute@@@std@@@std@@QAE?AV?$_Vector_iterator@V?$_Vector_val@UAttackAttribute@@V?$allocator@UAttackAttribute@@@std@@@std@@@2@XZ PROC ; std::vector<AttackAttribute,std::allocator<AttackAttribute> >::end, COMDAT
; _this$ = ecx

; 791  : 		{	// return iterator for end of mutable sequence

  00000	55		 push	 ebp
  00001	8b ec		 mov	 ebp, esp

; 792  : 		return (iterator(this->_Mylast, this));

  00003	8b 49 04	 mov	 ecx, DWORD PTR [ecx+4]
  00006	8b 45 08	 mov	 eax, DWORD PTR ___$ReturnUdt$[ebp]
  00009	89 08		 mov	 DWORD PTR [eax], ecx

; 793  : 		}

  0000b	5d		 pop	 ebp
  0000c	c2 04 00	 ret	 4
?end@?$vector@UAttackAttribute@@V?$allocator@UAttackAttribute@@@std@@@std@@QAE?AV?$_Vector_iterator@V?$_Vector_val@UAttackAttribute@@V?$allocator@UAttackAttribute@@@std@@@std@@@2@XZ ENDP ; std::vector<AttackAttribute,std::allocator<AttackAttribute> >::end
_TEXT	ENDS
PUBLIC	?_Make_iter@?$vector@UAttackAttribute@@V?$allocator@UAttackAttribute@@@std@@@std@@QBE?AV?$_Vector_iterator@V?$_Vector_val@UAttackAttribute@@V?$allocator@UAttackAttribute@@@std@@@std@@@2@V?$_Vector_const_iterator@V?$_Vector_val@UAttackAttribute@@V?$allocator@UAttackAttribute@@@std@@@std@@@2@@Z ; std::vector<AttackAttribute,std::allocator<AttackAttribute> >::_Make_iter
; Function compile flags: /Ogsp
;	COMDAT ?_Make_iter@?$vector@UAttackAttribute@@V?$allocator@UAttackAttribute@@@std@@@std@@QBE?AV?$_Vector_iterator@V?$_Vector_val@UAttackAttribute@@V?$allocator@UAttackAttribute@@@std@@@std@@@2@V?$_Vector_const_iterator@V?$_Vector_val@UAttackAttribute@@V?$allocator@UAttackAttribute@@@std@@@std@@@2@@Z
_TEXT	SEGMENT
___$ReturnUdt$ = 8					; size = 4
__Where$ = 12						; size = 4
?_Make_iter@?$vector@UAttackAttribute@@V?$allocator@UAttackAttribute@@@std@@@std@@QBE?AV?$_Vector_iterator@V?$_Vector_val@UAttackAttribute@@V?$allocator@UAttackAttribute@@@std@@@std@@@2@V?$_Vector_const_iterator@V?$_Vector_val@UAttackAttribute@@V?$allocator@UAttackAttribute@@@std@@@std@@@2@@Z PROC ; std::vector<AttackAttribute,std::allocator<AttackAttribute> >::_Make_iter, COMDAT
; _this$ = ecx

; 801  : 		{	// make iterator from const_iterator

  00000	55		 push	 ebp
  00001	8b ec		 mov	 ebp, esp

; 802  : 		return (iterator(_Where._Ptr, this));

  00003	8b 45 08	 mov	 eax, DWORD PTR ___$ReturnUdt$[ebp]
  00006	8b 4d 0c	 mov	 ecx, DWORD PTR __Where$[ebp]
  00009	89 08		 mov	 DWORD PTR [eax], ecx

; 803  : 		}

  0000b	5d		 pop	 ebp
  0000c	c2 08 00	 ret	 8
?_Make_iter@?$vector@UAttackAttribute@@V?$allocator@UAttackAttribute@@@std@@@std@@QBE?AV?$_Vector_iterator@V?$_Vector_val@UAttackAttribute@@V?$allocator@UAttackAttribute@@@std@@@std@@@2@V?$_Vector_const_iterator@V?$_Vector_val@UAttackAttribute@@V?$allocator@UAttackAttribute@@@std@@@std@@@2@@Z ENDP ; std::vector<AttackAttribute,std::allocator<AttackAttribute> >::_Make_iter
_TEXT	ENDS
PUBLIC	??9?$_Vector_const_iterator@V?$_Vector_val@UAttackAttribute@@V?$allocator@UAttackAttribute@@@std@@@std@@@std@@QBE_NABV01@@Z ; std::_Vector_const_iterator<std::_Vector_val<AttackAttribute,std::allocator<AttackAttribute> > >::operator!=
; Function compile flags: /Ogsp
;	COMDAT ??9?$_Vector_const_iterator@V?$_Vector_val@UAttackAttribute@@V?$allocator@UAttackAttribute@@@std@@@std@@@std@@QBE_NABV01@@Z
_TEXT	SEGMENT
__Right$ = 8						; size = 4
??9?$_Vector_const_iterator@V?$_Vector_val@UAttackAttribute@@V?$allocator@UAttackAttribute@@@std@@@std@@@std@@QBE_NABV01@@Z PROC ; std::_Vector_const_iterator<std::_Vector_val<AttackAttribute,std::allocator<AttackAttribute> > >::operator!=, COMDAT
; _this$ = ecx

; 207  : 		{	// test for iterator inequality

  00000	55		 push	 ebp
  00001	8b ec		 mov	 ebp, esp

; 208  : 		return (!(*this == _Right));

  00003	8b 01		 mov	 eax, DWORD PTR [ecx]
  00005	8b 55 08	 mov	 edx, DWORD PTR __Right$[ebp]
  00008	33 c9		 xor	 ecx, ecx
  0000a	3b 02		 cmp	 eax, DWORD PTR [edx]
  0000c	0f 95 c0	 setne	 al

; 209  : 		}

  0000f	5d		 pop	 ebp
  00010	c2 04 00	 ret	 4
??9?$_Vector_const_iterator@V?$_Vector_val@UAttackAttribute@@V?$allocator@UAttackAttribute@@@std@@@std@@@std@@QBE_NABV01@@Z ENDP ; std::_Vector_const_iterator<std::_Vector_val<AttackAttribute,std::allocator<AttackAttribute> > >::operator!=
_TEXT	ENDS
PUBLIC	?_Buy@?$vector@UWeaponInfo@@V?$allocator@UWeaponInfo@@@std@@@std@@IAE_NI@Z ; std::vector<WeaponInfo,std::allocator<WeaponInfo> >::_Buy
; Function compile flags: /Ogsp
;	COMDAT ?_Buy@?$vector@UWeaponInfo@@V?$allocator@UWeaponInfo@@@std@@@std@@IAE_NI@Z
_TEXT	SEGMENT
__Capacity$ = 8						; size = 4
?_Buy@?$vector@UWeaponInfo@@V?$allocator@UWeaponInfo@@@std@@@std@@IAE_NI@Z PROC ; std::vector<WeaponInfo,std::allocator<WeaponInfo> >::_Buy, COMDAT
; _this$ = ecx

; 1250 : 		{	// allocate array with _Capacity elements

  00000	55		 push	 ebp
  00001	8b ec		 mov	 ebp, esp
  00003	56		 push	 esi

; 1251 : 		this->_Myfirst = 0;

  00004	33 c0		 xor	 eax, eax
  00006	57		 push	 edi

; 1252 : 		this->_Mylast = 0;
; 1253 : 		this->_Myend = 0;
; 1254 : 
; 1255 : 		if (_Capacity == 0)

  00007	8b 7d 08	 mov	 edi, DWORD PTR __Capacity$[ebp]
  0000a	8b f1		 mov	 esi, ecx
  0000c	89 06		 mov	 DWORD PTR [esi], eax
  0000e	89 46 04	 mov	 DWORD PTR [esi+4], eax
  00011	89 46 08	 mov	 DWORD PTR [esi+8], eax
  00014	3b f8		 cmp	 edi, eax
  00016	75 04		 jne	 SHORT $LN4@Buy

; 1256 : 			return (false);

  00018	32 c0		 xor	 al, al
  0001a	eb 2b		 jmp	 SHORT $LN5@Buy
$LN4@Buy:

; 1257 : 		else if (max_size() < _Capacity)

  0001c	81 ff 66 66 66
	06		 cmp	 edi, 107374182		; 06666666H
  00022	76 0b		 jbe	 SHORT $LN2@Buy

; 1258 : 			_Xlen();	// result too long

  00024	68 00 00 00 00	 push	 OFFSET ??_C@_0BD@OLBABOEK@vector?$DMT?$DO?5too?5long?$AA@
  00029	ff 15 00 00 00
	00		 call	 DWORD PTR __imp_?_Xlength_error@std@@YAXPBD@Z
$LN19@Buy:
$LN2@Buy:

; 1259 : 		else
; 1260 : 			{	// nonempty array, allocate storage
; 1261 : 			this->_Myfirst = this->_Alval.allocate(_Capacity);

  0002f	50		 push	 eax
  00030	57		 push	 edi
  00031	e8 00 00 00 00	 call	 ??$_Allocate@UWeaponInfo@@@std@@YAPAUWeaponInfo@@IPAU1@@Z ; std::_Allocate<WeaponInfo>

; 1262 : 			this->_Mylast = this->_Myfirst;
; 1263 : 			this->_Myend = this->_Myfirst + _Capacity;

  00036	6b ff 28	 imul	 edi, 40			; 00000028H
  00039	03 f8		 add	 edi, eax
  0003b	59		 pop	 ecx
  0003c	89 06		 mov	 DWORD PTR [esi], eax
  0003e	89 46 04	 mov	 DWORD PTR [esi+4], eax
  00041	59		 pop	 ecx
  00042	89 7e 08	 mov	 DWORD PTR [esi+8], edi

; 1264 : 			}
; 1265 : 		return (true);

  00045	b0 01		 mov	 al, 1
$LN5@Buy:
  00047	5f		 pop	 edi
  00048	5e		 pop	 esi

; 1266 : 		}

  00049	5d		 pop	 ebp
  0004a	c2 04 00	 ret	 4
$LN18@Buy:
?_Buy@?$vector@UWeaponInfo@@V?$allocator@UWeaponInfo@@@std@@@std@@IAE_NI@Z ENDP ; std::vector<WeaponInfo,std::allocator<WeaponInfo> >::_Buy
_TEXT	ENDS
PUBLIC	?_Buy@?$vector@UForceInfo@@V?$allocator@UForceInfo@@@std@@@std@@IAE_NI@Z ; std::vector<ForceInfo,std::allocator<ForceInfo> >::_Buy
; Function compile flags: /Ogsp
;	COMDAT ?_Buy@?$vector@UForceInfo@@V?$allocator@UForceInfo@@@std@@@std@@IAE_NI@Z
_TEXT	SEGMENT
__Capacity$ = 8						; size = 4
?_Buy@?$vector@UForceInfo@@V?$allocator@UForceInfo@@@std@@@std@@IAE_NI@Z PROC ; std::vector<ForceInfo,std::allocator<ForceInfo> >::_Buy, COMDAT
; _this$ = ecx

; 1250 : 		{	// allocate array with _Capacity elements

  00000	55		 push	 ebp
  00001	8b ec		 mov	 ebp, esp
  00003	56		 push	 esi

; 1251 : 		this->_Myfirst = 0;

  00004	33 c0		 xor	 eax, eax
  00006	57		 push	 edi

; 1252 : 		this->_Mylast = 0;
; 1253 : 		this->_Myend = 0;
; 1254 : 
; 1255 : 		if (_Capacity == 0)

  00007	8b 7d 08	 mov	 edi, DWORD PTR __Capacity$[ebp]
  0000a	8b f1		 mov	 esi, ecx
  0000c	89 06		 mov	 DWORD PTR [esi], eax
  0000e	89 46 04	 mov	 DWORD PTR [esi+4], eax
  00011	89 46 08	 mov	 DWORD PTR [esi+8], eax
  00014	3b f8		 cmp	 edi, eax
  00016	75 04		 jne	 SHORT $LN4@Buy@2

; 1256 : 			return (false);

  00018	32 c0		 xor	 al, al
  0001a	eb 2b		 jmp	 SHORT $LN5@Buy@2
$LN4@Buy@2:

; 1257 : 		else if (max_size() < _Capacity)

  0001c	81 ff 55 55 55
	15		 cmp	 edi, 357913941		; 15555555H
  00022	76 0b		 jbe	 SHORT $LN2@Buy@2

; 1258 : 			_Xlen();	// result too long

  00024	68 00 00 00 00	 push	 OFFSET ??_C@_0BD@OLBABOEK@vector?$DMT?$DO?5too?5long?$AA@
  00029	ff 15 00 00 00
	00		 call	 DWORD PTR __imp_?_Xlength_error@std@@YAXPBD@Z
$LN19@Buy@2:
$LN2@Buy@2:

; 1259 : 		else
; 1260 : 			{	// nonempty array, allocate storage
; 1261 : 			this->_Myfirst = this->_Alval.allocate(_Capacity);

  0002f	50		 push	 eax
  00030	57		 push	 edi
  00031	e8 00 00 00 00	 call	 ??$_Allocate@UForceInfo@@@std@@YAPAUForceInfo@@IPAU1@@Z ; std::_Allocate<ForceInfo>

; 1262 : 			this->_Mylast = this->_Myfirst;
; 1263 : 			this->_Myend = this->_Myfirst + _Capacity;

  00036	6b ff 0c	 imul	 edi, 12			; 0000000cH
  00039	03 f8		 add	 edi, eax
  0003b	59		 pop	 ecx
  0003c	89 06		 mov	 DWORD PTR [esi], eax
  0003e	89 46 04	 mov	 DWORD PTR [esi+4], eax
  00041	59		 pop	 ecx
  00042	89 7e 08	 mov	 DWORD PTR [esi+8], edi

; 1264 : 			}
; 1265 : 		return (true);

  00045	b0 01		 mov	 al, 1
$LN5@Buy@2:
  00047	5f		 pop	 edi
  00048	5e		 pop	 esi

; 1266 : 		}

  00049	5d		 pop	 ebp
  0004a	c2 04 00	 ret	 4
$LN18@Buy@2:
?_Buy@?$vector@UForceInfo@@V?$allocator@UForceInfo@@@std@@@std@@IAE_NI@Z ENDP ; std::vector<ForceInfo,std::allocator<ForceInfo> >::_Buy
_TEXT	ENDS
PUBLIC	?begin@?$vector@UWeaponInfo@@V?$allocator@UWeaponInfo@@@std@@@std@@QAE?AV?$_Vector_iterator@V?$_Vector_val@UWeaponInfo@@V?$allocator@UWeaponInfo@@@std@@@std@@@2@XZ ; std::vector<WeaponInfo,std::allocator<WeaponInfo> >::begin
; Function compile flags: /Ogsp
;	COMDAT ?begin@?$vector@UWeaponInfo@@V?$allocator@UWeaponInfo@@@std@@@std@@QAE?AV?$_Vector_iterator@V?$_Vector_val@UWeaponInfo@@V?$allocator@UWeaponInfo@@@std@@@std@@@2@XZ
_TEXT	SEGMENT
___$ReturnUdt$ = 8					; size = 4
?begin@?$vector@UWeaponInfo@@V?$allocator@UWeaponInfo@@@std@@@std@@QAE?AV?$_Vector_iterator@V?$_Vector_val@UWeaponInfo@@V?$allocator@UWeaponInfo@@@std@@@std@@@2@XZ PROC ; std::vector<WeaponInfo,std::allocator<WeaponInfo> >::begin, COMDAT
; _this$ = ecx

; 781  : 		{	// return iterator for beginning of mutable sequence

  00000	55		 push	 ebp
  00001	8b ec		 mov	 ebp, esp

; 782  : 		return (iterator(this->_Myfirst, this));

  00003	8b 09		 mov	 ecx, DWORD PTR [ecx]
  00005	8b 45 08	 mov	 eax, DWORD PTR ___$ReturnUdt$[ebp]
  00008	89 08		 mov	 DWORD PTR [eax], ecx

; 783  : 		}

  0000a	5d		 pop	 ebp
  0000b	c2 04 00	 ret	 4
?begin@?$vector@UWeaponInfo@@V?$allocator@UWeaponInfo@@@std@@@std@@QAE?AV?$_Vector_iterator@V?$_Vector_val@UWeaponInfo@@V?$allocator@UWeaponInfo@@@std@@@std@@@2@XZ ENDP ; std::vector<WeaponInfo,std::allocator<WeaponInfo> >::begin
_TEXT	ENDS
PUBLIC	?end@?$vector@UWeaponInfo@@V?$allocator@UWeaponInfo@@@std@@@std@@QAE?AV?$_Vector_iterator@V?$_Vector_val@UWeaponInfo@@V?$allocator@UWeaponInfo@@@std@@@std@@@2@XZ ; std::vector<WeaponInfo,std::allocator<WeaponInfo> >::end
; Function compile flags: /Ogsp
;	COMDAT ?end@?$vector@UWeaponInfo@@V?$allocator@UWeaponInfo@@@std@@@std@@QAE?AV?$_Vector_iterator@V?$_Vector_val@UWeaponInfo@@V?$allocator@UWeaponInfo@@@std@@@std@@@2@XZ
_TEXT	SEGMENT
___$ReturnUdt$ = 8					; size = 4
?end@?$vector@UWeaponInfo@@V?$allocator@UWeaponInfo@@@std@@@std@@QAE?AV?$_Vector_iterator@V?$_Vector_val@UWeaponInfo@@V?$allocator@UWeaponInfo@@@std@@@std@@@2@XZ PROC ; std::vector<WeaponInfo,std::allocator<WeaponInfo> >::end, COMDAT
; _this$ = ecx

; 791  : 		{	// return iterator for end of mutable sequence

  00000	55		 push	 ebp
  00001	8b ec		 mov	 ebp, esp

; 792  : 		return (iterator(this->_Mylast, this));

  00003	8b 49 04	 mov	 ecx, DWORD PTR [ecx+4]
  00006	8b 45 08	 mov	 eax, DWORD PTR ___$ReturnUdt$[ebp]
  00009	89 08		 mov	 DWORD PTR [eax], ecx

; 793  : 		}

  0000b	5d		 pop	 ebp
  0000c	c2 04 00	 ret	 4
?end@?$vector@UWeaponInfo@@V?$allocator@UWeaponInfo@@@std@@@std@@QAE?AV?$_Vector_iterator@V?$_Vector_val@UWeaponInfo@@V?$allocator@UWeaponInfo@@@std@@@std@@@2@XZ ENDP ; std::vector<WeaponInfo,std::allocator<WeaponInfo> >::end
_TEXT	ENDS
PUBLIC	?begin@?$vector@UForceInfo@@V?$allocator@UForceInfo@@@std@@@std@@QAE?AV?$_Vector_iterator@V?$_Vector_val@UForceInfo@@V?$allocator@UForceInfo@@@std@@@std@@@2@XZ ; std::vector<ForceInfo,std::allocator<ForceInfo> >::begin
; Function compile flags: /Ogsp
;	COMDAT ?begin@?$vector@UForceInfo@@V?$allocator@UForceInfo@@@std@@@std@@QAE?AV?$_Vector_iterator@V?$_Vector_val@UForceInfo@@V?$allocator@UForceInfo@@@std@@@std@@@2@XZ
_TEXT	SEGMENT
___$ReturnUdt$ = 8					; size = 4
?begin@?$vector@UForceInfo@@V?$allocator@UForceInfo@@@std@@@std@@QAE?AV?$_Vector_iterator@V?$_Vector_val@UForceInfo@@V?$allocator@UForceInfo@@@std@@@std@@@2@XZ PROC ; std::vector<ForceInfo,std::allocator<ForceInfo> >::begin, COMDAT
; _this$ = ecx

; 781  : 		{	// return iterator for beginning of mutable sequence

  00000	55		 push	 ebp
  00001	8b ec		 mov	 ebp, esp

; 782  : 		return (iterator(this->_Myfirst, this));

  00003	8b 09		 mov	 ecx, DWORD PTR [ecx]
  00005	8b 45 08	 mov	 eax, DWORD PTR ___$ReturnUdt$[ebp]
  00008	89 08		 mov	 DWORD PTR [eax], ecx

; 783  : 		}

  0000a	5d		 pop	 ebp
  0000b	c2 04 00	 ret	 4
?begin@?$vector@UForceInfo@@V?$allocator@UForceInfo@@@std@@@std@@QAE?AV?$_Vector_iterator@V?$_Vector_val@UForceInfo@@V?$allocator@UForceInfo@@@std@@@std@@@2@XZ ENDP ; std::vector<ForceInfo,std::allocator<ForceInfo> >::begin
_TEXT	ENDS
PUBLIC	?end@?$vector@UForceInfo@@V?$allocator@UForceInfo@@@std@@@std@@QAE?AV?$_Vector_iterator@V?$_Vector_val@UForceInfo@@V?$allocator@UForceInfo@@@std@@@std@@@2@XZ ; std::vector<ForceInfo,std::allocator<ForceInfo> >::end
; Function compile flags: /Ogsp
;	COMDAT ?end@?$vector@UForceInfo@@V?$allocator@UForceInfo@@@std@@@std@@QAE?AV?$_Vector_iterator@V?$_Vector_val@UForceInfo@@V?$allocator@UForceInfo@@@std@@@std@@@2@XZ
_TEXT	SEGMENT
___$ReturnUdt$ = 8					; size = 4
?end@?$vector@UForceInfo@@V?$allocator@UForceInfo@@@std@@@std@@QAE?AV?$_Vector_iterator@V?$_Vector_val@UForceInfo@@V?$allocator@UForceInfo@@@std@@@std@@@2@XZ PROC ; std::vector<ForceInfo,std::allocator<ForceInfo> >::end, COMDAT
; _this$ = ecx

; 791  : 		{	// return iterator for end of mutable sequence

  00000	55		 push	 ebp
  00001	8b ec		 mov	 ebp, esp

; 792  : 		return (iterator(this->_Mylast, this));

  00003	8b 49 04	 mov	 ecx, DWORD PTR [ecx+4]
  00006	8b 45 08	 mov	 eax, DWORD PTR ___$ReturnUdt$[ebp]
  00009	89 08		 mov	 DWORD PTR [eax], ecx

; 793  : 		}

  0000b	5d		 pop	 ebp
  0000c	c2 04 00	 ret	 4
?end@?$vector@UForceInfo@@V?$allocator@UForceInfo@@@std@@@std@@QAE?AV?$_Vector_iterator@V?$_Vector_val@UForceInfo@@V?$allocator@UForceInfo@@@std@@@std@@@2@XZ ENDP ; std::vector<ForceInfo,std::allocator<ForceInfo> >::end
_TEXT	ENDS
PUBLIC	?_Make_iter@?$vector@UWeaponInfo@@V?$allocator@UWeaponInfo@@@std@@@std@@QBE?AV?$_Vector_iterator@V?$_Vector_val@UWeaponInfo@@V?$allocator@UWeaponInfo@@@std@@@std@@@2@V?$_Vector_const_iterator@V?$_Vector_val@UWeaponInfo@@V?$allocator@UWeaponInfo@@@std@@@std@@@2@@Z ; std::vector<WeaponInfo,std::allocator<WeaponInfo> >::_Make_iter
; Function compile flags: /Ogsp
;	COMDAT ?_Make_iter@?$vector@UWeaponInfo@@V?$allocator@UWeaponInfo@@@std@@@std@@QBE?AV?$_Vector_iterator@V?$_Vector_val@UWeaponInfo@@V?$allocator@UWeaponInfo@@@std@@@std@@@2@V?$_Vector_const_iterator@V?$_Vector_val@UWeaponInfo@@V?$allocator@UWeaponInfo@@@std@@@std@@@2@@Z
_TEXT	SEGMENT
___$ReturnUdt$ = 8					; size = 4
__Where$ = 12						; size = 4
?_Make_iter@?$vector@UWeaponInfo@@V?$allocator@UWeaponInfo@@@std@@@std@@QBE?AV?$_Vector_iterator@V?$_Vector_val@UWeaponInfo@@V?$allocator@UWeaponInfo@@@std@@@std@@@2@V?$_Vector_const_iterator@V?$_Vector_val@UWeaponInfo@@V?$allocator@UWeaponInfo@@@std@@@std@@@2@@Z PROC ; std::vector<WeaponInfo,std::allocator<WeaponInfo> >::_Make_iter, COMDAT
; _this$ = ecx

; 801  : 		{	// make iterator from const_iterator

  00000	55		 push	 ebp
  00001	8b ec		 mov	 ebp, esp

; 802  : 		return (iterator(_Where._Ptr, this));

  00003	8b 45 08	 mov	 eax, DWORD PTR ___$ReturnUdt$[ebp]
  00006	8b 4d 0c	 mov	 ecx, DWORD PTR __Where$[ebp]
  00009	89 08		 mov	 DWORD PTR [eax], ecx

; 803  : 		}

  0000b	5d		 pop	 ebp
  0000c	c2 08 00	 ret	 8
?_Make_iter@?$vector@UWeaponInfo@@V?$allocator@UWeaponInfo@@@std@@@std@@QBE?AV?$_Vector_iterator@V?$_Vector_val@UWeaponInfo@@V?$allocator@UWeaponInfo@@@std@@@std@@@2@V?$_Vector_const_iterator@V?$_Vector_val@UWeaponInfo@@V?$allocator@UWeaponInfo@@@std@@@std@@@2@@Z ENDP ; std::vector<WeaponInfo,std::allocator<WeaponInfo> >::_Make_iter
_TEXT	ENDS
PUBLIC	?_Make_iter@?$vector@UForceInfo@@V?$allocator@UForceInfo@@@std@@@std@@QBE?AV?$_Vector_iterator@V?$_Vector_val@UForceInfo@@V?$allocator@UForceInfo@@@std@@@std@@@2@V?$_Vector_const_iterator@V?$_Vector_val@UForceInfo@@V?$allocator@UForceInfo@@@std@@@std@@@2@@Z ; std::vector<ForceInfo,std::allocator<ForceInfo> >::_Make_iter
; Function compile flags: /Ogsp
;	COMDAT ?_Make_iter@?$vector@UForceInfo@@V?$allocator@UForceInfo@@@std@@@std@@QBE?AV?$_Vector_iterator@V?$_Vector_val@UForceInfo@@V?$allocator@UForceInfo@@@std@@@std@@@2@V?$_Vector_const_iterator@V?$_Vector_val@UForceInfo@@V?$allocator@UForceInfo@@@std@@@std@@@2@@Z
_TEXT	SEGMENT
___$ReturnUdt$ = 8					; size = 4
__Where$ = 12						; size = 4
?_Make_iter@?$vector@UForceInfo@@V?$allocator@UForceInfo@@@std@@@std@@QBE?AV?$_Vector_iterator@V?$_Vector_val@UForceInfo@@V?$allocator@UForceInfo@@@std@@@std@@@2@V?$_Vector_const_iterator@V?$_Vector_val@UForceInfo@@V?$allocator@UForceInfo@@@std@@@std@@@2@@Z PROC ; std::vector<ForceInfo,std::allocator<ForceInfo> >::_Make_iter, COMDAT
; _this$ = ecx

; 801  : 		{	// make iterator from const_iterator

  00000	55		 push	 ebp
  00001	8b ec		 mov	 ebp, esp

; 802  : 		return (iterator(_Where._Ptr, this));

  00003	8b 45 08	 mov	 eax, DWORD PTR ___$ReturnUdt$[ebp]
  00006	8b 4d 0c	 mov	 ecx, DWORD PTR __Where$[ebp]
  00009	89 08		 mov	 DWORD PTR [eax], ecx

; 803  : 		}

  0000b	5d		 pop	 ebp
  0000c	c2 08 00	 ret	 8
?_Make_iter@?$vector@UForceInfo@@V?$allocator@UForceInfo@@@std@@@std@@QBE?AV?$_Vector_iterator@V?$_Vector_val@UForceInfo@@V?$allocator@UForceInfo@@@std@@@std@@@2@V?$_Vector_const_iterator@V?$_Vector_val@UForceInfo@@V?$allocator@UForceInfo@@@std@@@std@@@2@@Z ENDP ; std::vector<ForceInfo,std::allocator<ForceInfo> >::_Make_iter
_TEXT	ENDS
PUBLIC	??9?$_Vector_const_iterator@V?$_Vector_val@UWeaponInfo@@V?$allocator@UWeaponInfo@@@std@@@std@@@std@@QBE_NABV01@@Z ; std::_Vector_const_iterator<std::_Vector_val<WeaponInfo,std::allocator<WeaponInfo> > >::operator!=
; Function compile flags: /Ogsp
;	COMDAT ??9?$_Vector_const_iterator@V?$_Vector_val@UWeaponInfo@@V?$allocator@UWeaponInfo@@@std@@@std@@@std@@QBE_NABV01@@Z
_TEXT	SEGMENT
__Right$ = 8						; size = 4
??9?$_Vector_const_iterator@V?$_Vector_val@UWeaponInfo@@V?$allocator@UWeaponInfo@@@std@@@std@@@std@@QBE_NABV01@@Z PROC ; std::_Vector_const_iterator<std::_Vector_val<WeaponInfo,std::allocator<WeaponInfo> > >::operator!=, COMDAT
; _this$ = ecx

; 207  : 		{	// test for iterator inequality

  00000	55		 push	 ebp
  00001	8b ec		 mov	 ebp, esp

; 208  : 		return (!(*this == _Right));

  00003	8b 01		 mov	 eax, DWORD PTR [ecx]
  00005	8b 55 08	 mov	 edx, DWORD PTR __Right$[ebp]
  00008	33 c9		 xor	 ecx, ecx
  0000a	3b 02		 cmp	 eax, DWORD PTR [edx]
  0000c	0f 95 c0	 setne	 al

; 209  : 		}

  0000f	5d		 pop	 ebp
  00010	c2 04 00	 ret	 4
??9?$_Vector_const_iterator@V?$_Vector_val@UWeaponInfo@@V?$allocator@UWeaponInfo@@@std@@@std@@@std@@QBE_NABV01@@Z ENDP ; std::_Vector_const_iterator<std::_Vector_val<WeaponInfo,std::allocator<WeaponInfo> > >::operator!=
_TEXT	ENDS
PUBLIC	??9?$_Vector_const_iterator@V?$_Vector_val@UForceInfo@@V?$allocator@UForceInfo@@@std@@@std@@@std@@QBE_NABV01@@Z ; std::_Vector_const_iterator<std::_Vector_val<ForceInfo,std::allocator<ForceInfo> > >::operator!=
; Function compile flags: /Ogsp
;	COMDAT ??9?$_Vector_const_iterator@V?$_Vector_val@UForceInfo@@V?$allocator@UForceInfo@@@std@@@std@@@std@@QBE_NABV01@@Z
_TEXT	SEGMENT
__Right$ = 8						; size = 4
??9?$_Vector_const_iterator@V?$_Vector_val@UForceInfo@@V?$allocator@UForceInfo@@@std@@@std@@@std@@QBE_NABV01@@Z PROC ; std::_Vector_const_iterator<std::_Vector_val<ForceInfo,std::allocator<ForceInfo> > >::operator!=, COMDAT
; _this$ = ecx

; 207  : 		{	// test for iterator inequality

  00000	55		 push	 ebp
  00001	8b ec		 mov	 ebp, esp

; 208  : 		return (!(*this == _Right));

  00003	8b 01		 mov	 eax, DWORD PTR [ecx]
  00005	8b 55 08	 mov	 edx, DWORD PTR __Right$[ebp]
  00008	33 c9		 xor	 ecx, ecx
  0000a	3b 02		 cmp	 eax, DWORD PTR [edx]
  0000c	0f 95 c0	 setne	 al

; 209  : 		}

  0000f	5d		 pop	 ebp
  00010	c2 04 00	 ret	 4
??9?$_Vector_const_iterator@V?$_Vector_val@UForceInfo@@V?$allocator@UForceInfo@@@std@@@std@@@std@@QBE_NABV01@@Z ENDP ; std::_Vector_const_iterator<std::_Vector_val<ForceInfo,std::allocator<ForceInfo> > >::operator!=
_TEXT	ENDS
PUBLIC	??$_Dest_val@V?$allocator@UForceInfo@@@std@@UForceInfo@@@std@@YAXAAV?$allocator@UForceInfo@@@0@PAUForceInfo@@@Z ; std::_Dest_val<std::allocator<ForceInfo>,ForceInfo>
; Function compile flags: /Ogsp
; File c:\program files (x86)\microsoft visual studio 10.0\vc\include\xmemory
;	COMDAT ??$_Dest_val@V?$allocator@UForceInfo@@@std@@UForceInfo@@@std@@YAXAAV?$allocator@UForceInfo@@@0@PAUForceInfo@@@Z
_TEXT	SEGMENT
__Alval$ = 8						; size = 4
__Pdest$ = 12						; size = 4
??$_Dest_val@V?$allocator@UForceInfo@@@std@@UForceInfo@@@std@@YAXAAV?$allocator@UForceInfo@@@0@PAUForceInfo@@@Z PROC ; std::_Dest_val<std::allocator<ForceInfo>,ForceInfo>, COMDAT

; 287  : 	_Alval.destroy(_Pdest);
; 288  : 	}

  00000	c3		 ret	 0
??$_Dest_val@V?$allocator@UForceInfo@@@std@@UForceInfo@@@std@@YAXAAV?$allocator@UForceInfo@@@0@PAUForceInfo@@@Z ENDP ; std::_Dest_val<std::allocator<ForceInfo>,ForceInfo>
_TEXT	ENDS
PUBLIC	??$_Copy_impl@PAUWeaponInfo@@PAU1@@std@@YAPAUWeaponInfo@@PAU1@00@Z ; std::_Copy_impl<WeaponInfo *,WeaponInfo *>
; Function compile flags: /Ogsp
; File c:\program files (x86)\microsoft visual studio 10.0\vc\include\xutility
;	COMDAT ??$_Copy_impl@PAUWeaponInfo@@PAU1@@std@@YAPAUWeaponInfo@@PAU1@00@Z
_TEXT	SEGMENT
__Cat$512340 = -4					; size = 1
__First$ = 8						; size = 4
__Last$ = 12						; size = 4
__Dest$ = 16						; size = 4
??$_Copy_impl@PAUWeaponInfo@@PAU1@@std@@YAPAUWeaponInfo@@PAU1@00@Z PROC ; std::_Copy_impl<WeaponInfo *,WeaponInfo *>, COMDAT

; 2163 : 	{	// copy [_First, _Last) to [_Dest, ...)

  00000	55		 push	 ebp
  00001	8b ec		 mov	 ebp, esp
  00003	51		 push	 ecx

; 2164 : 	return (_Copy_impl(_First, _Last,
; 2165 : 		_Dest, _Ptr_cat(_First, _Dest)));

  00004	ff 75 fc	 push	 DWORD PTR __Cat$512340[ebp]
  00007	ff 75 10	 push	 DWORD PTR __Dest$[ebp]
  0000a	ff 75 0c	 push	 DWORD PTR __Last$[ebp]
  0000d	ff 75 08	 push	 DWORD PTR __First$[ebp]
  00010	e8 00 00 00 00	 call	 ??$_Copy_impl@PAUWeaponInfo@@PAU1@@std@@YAPAUWeaponInfo@@PAU1@00U_Nonscalar_ptr_iterator_tag@0@@Z ; std::_Copy_impl<WeaponInfo *,WeaponInfo *>
  00015	83 c4 10	 add	 esp, 16			; 00000010H

; 2166 : 	}

  00018	c9		 leave
  00019	c3		 ret	 0
??$_Copy_impl@PAUWeaponInfo@@PAU1@@std@@YAPAUWeaponInfo@@PAU1@00@Z ENDP ; std::_Copy_impl<WeaponInfo *,WeaponInfo *>
_TEXT	ENDS
PUBLIC	??$_Move@PAUWeaponInfo@@PAU1@@std@@YAPAUWeaponInfo@@PAU1@00@Z ; std::_Move<WeaponInfo *,WeaponInfo *>
; Function compile flags: /Ogsp
;	COMDAT ??$_Move@PAUWeaponInfo@@PAU1@@std@@YAPAUWeaponInfo@@PAU1@00@Z
_TEXT	SEGMENT
__Cat$512347 = -4					; size = 1
__First$ = 8						; size = 4
__Last$ = 12						; size = 4
__Dest$ = 16						; size = 4
??$_Move@PAUWeaponInfo@@PAU1@@std@@YAPAUWeaponInfo@@PAU1@00@Z PROC ; std::_Move<WeaponInfo *,WeaponInfo *>, COMDAT

; 2533 : 	{	// move [_First, _Last) to [_Dest, ...), unchecked

  00000	55		 push	 ebp
  00001	8b ec		 mov	 ebp, esp
  00003	51		 push	 ecx

; 2534 : 	return (_Move(_First, _Last,
; 2535 : 		_Dest, _Ptr_cat(_First, _Dest)));

  00004	ff 75 fc	 push	 DWORD PTR __Cat$512347[ebp]
  00007	ff 75 10	 push	 DWORD PTR __Dest$[ebp]
  0000a	ff 75 0c	 push	 DWORD PTR __Last$[ebp]
  0000d	ff 75 08	 push	 DWORD PTR __First$[ebp]
  00010	e8 00 00 00 00	 call	 ??$_Move@PAUWeaponInfo@@PAU1@@std@@YAPAUWeaponInfo@@PAU1@00U_Nonscalar_ptr_iterator_tag@0@@Z ; std::_Move<WeaponInfo *,WeaponInfo *>
  00015	83 c4 10	 add	 esp, 16			; 00000010H

; 2536 : 	}

  00018	c9		 leave
  00019	c3		 ret	 0
??$_Move@PAUWeaponInfo@@PAU1@@std@@YAPAUWeaponInfo@@PAU1@00@Z ENDP ; std::_Move<WeaponInfo *,WeaponInfo *>
_TEXT	ENDS
PUBLIC	??$_Move@PAUForceInfo@@PAU1@@std@@YAPAUForceInfo@@PAU1@00@Z ; std::_Move<ForceInfo *,ForceInfo *>
; Function compile flags: /Ogsp
;	COMDAT ??$_Move@PAUForceInfo@@PAU1@@std@@YAPAUForceInfo@@PAU1@00@Z
_TEXT	SEGMENT
__Cat$512354 = -4					; size = 1
__First$ = 8						; size = 4
__Last$ = 12						; size = 4
__Dest$ = 16						; size = 4
??$_Move@PAUForceInfo@@PAU1@@std@@YAPAUForceInfo@@PAU1@00@Z PROC ; std::_Move<ForceInfo *,ForceInfo *>, COMDAT

; 2533 : 	{	// move [_First, _Last) to [_Dest, ...), unchecked

  00000	55		 push	 ebp
  00001	8b ec		 mov	 ebp, esp
  00003	51		 push	 ecx

; 2534 : 	return (_Move(_First, _Last,
; 2535 : 		_Dest, _Ptr_cat(_First, _Dest)));

  00004	ff 75 fc	 push	 DWORD PTR __Cat$512354[ebp]
  00007	ff 75 10	 push	 DWORD PTR __Dest$[ebp]
  0000a	ff 75 0c	 push	 DWORD PTR __Last$[ebp]
  0000d	ff 75 08	 push	 DWORD PTR __First$[ebp]
  00010	e8 00 00 00 00	 call	 ??$_Move@PAUForceInfo@@PAU1@@std@@YAPAUForceInfo@@PAU1@00U_Nonscalar_ptr_iterator_tag@0@@Z ; std::_Move<ForceInfo *,ForceInfo *>
  00015	83 c4 10	 add	 esp, 16			; 00000010H

; 2536 : 	}

  00018	c9		 leave
  00019	c3		 ret	 0
??$_Move@PAUForceInfo@@PAU1@@std@@YAPAUForceInfo@@PAU1@00@Z ENDP ; std::_Move<ForceInfo *,ForceInfo *>
_TEXT	ENDS
PUBLIC	?destroy@?$allocator@UWeaponInfo@@@std@@QAEXPAUWeaponInfo@@@Z ; std::allocator<WeaponInfo>::destroy
; Function compile flags: /Ogsp
; File c:\program files (x86)\microsoft visual studio 10.0\vc\include\xmemory
;	COMDAT ?destroy@?$allocator@UWeaponInfo@@@std@@QAEXPAUWeaponInfo@@@Z
_TEXT	SEGMENT
__Ptr$ = 8						; size = 4
?destroy@?$allocator@UWeaponInfo@@@std@@QAEXPAUWeaponInfo@@@Z PROC ; std::allocator<WeaponInfo>::destroy, COMDAT
; _this$ = ecx

; 212  : 		{	// destroy object at _Ptr

  00000	55		 push	 ebp
  00001	8b ec		 mov	 ebp, esp

; 213  : 		_Destroy(_Ptr);

  00003	8b 4d 08	 mov	 ecx, DWORD PTR __Ptr$[ebp]
  00006	83 c1 08	 add	 ecx, 8
  00009	ff 15 00 00 00
	00		 call	 DWORD PTR __imp_??1ioHashString@@QAE@XZ

; 214  : 		}

  0000f	5d		 pop	 ebp
  00010	c2 04 00	 ret	 4
?destroy@?$allocator@UWeaponInfo@@@std@@QAEXPAUWeaponInfo@@@Z ENDP ; std::allocator<WeaponInfo>::destroy
_TEXT	ENDS
PUBLIC	??$_Uninit_copy@PAUForceInfo@@PAU1@V?$allocator@UForceInfo@@@std@@@std@@YAPAUForceInfo@@PAU1@00AAV?$allocator@UForceInfo@@@0@U_Nonscalar_ptr_iterator_tag@0@@Z ; std::_Uninit_copy<ForceInfo *,ForceInfo *,std::allocator<ForceInfo> >
; Function compile flags: /Ogsp
; File c:\program files (x86)\microsoft visual studio 10.0\vc\include\memory
;	COMDAT ??$_Uninit_copy@PAUForceInfo@@PAU1@V?$allocator@UForceInfo@@@std@@@std@@YAPAUForceInfo@@PAU1@00AAV?$allocator@UForceInfo@@@0@U_Nonscalar_ptr_iterator_tag@0@@Z
_TEXT	SEGMENT
__First$ = 8						; size = 4
__Last$ = 12						; size = 4
__Dest$ = 16						; size = 4
__Al$ = 20						; size = 4
___formal$ = 24						; size = 1
??$_Uninit_copy@PAUForceInfo@@PAU1@V?$allocator@UForceInfo@@@std@@@std@@YAPAUForceInfo@@PAU1@00AAV?$allocator@UForceInfo@@@0@U_Nonscalar_ptr_iterator_tag@0@@Z PROC ; std::_Uninit_copy<ForceInfo *,ForceInfo *,std::allocator<ForceInfo> >, COMDAT

; 369  : 	{	// copy [_First, _Last) to raw _Dest, using _Al, arbitrary type

  00000	55		 push	 ebp
  00001	8b ec		 mov	 ebp, esp
  00003	56		 push	 esi

; 370  : 	_DEBUG_RANGE(_First, _Last);
; 371  : 	_DEBUG_POINTER(_Dest);
; 372  : 	_FwdIt _Next = _Dest;
; 373  : 
; 374  : 	_TRY_BEGIN
; 375  : 	for (; _First != _Last; ++_Dest, ++_First)

  00004	8b 75 08	 mov	 esi, DWORD PTR __First$[ebp]
  00007	eb 16		 jmp	 SHORT $LN24@Uninit_cop
$LL6@Uninit_cop:

; 376  : 		_Cons_val(_Al, _Dest, *_First);

  00009	56		 push	 esi
  0000a	ff 75 10	 push	 DWORD PTR __Dest$[ebp]
  0000d	ff 75 14	 push	 DWORD PTR __Al$[ebp]
  00010	e8 00 00 00 00	 call	 ??$_Cons_val@V?$allocator@UForceInfo@@@std@@UForceInfo@@AAU3@@std@@YAXAAV?$allocator@UForceInfo@@@0@PAUForceInfo@@AAU2@@Z ; std::_Cons_val<std::allocator<ForceInfo>,ForceInfo,ForceInfo &>
  00015	83 45 10 0c	 add	 DWORD PTR __Dest$[ebp], 12 ; 0000000cH
  00019	83 c4 0c	 add	 esp, 12			; 0000000cH
  0001c	83 c6 0c	 add	 esi, 12			; 0000000cH
$LN24@Uninit_cop:

; 370  : 	_DEBUG_RANGE(_First, _Last);
; 371  : 	_DEBUG_POINTER(_Dest);
; 372  : 	_FwdIt _Next = _Dest;
; 373  : 
; 374  : 	_TRY_BEGIN
; 375  : 	for (; _First != _Last; ++_Dest, ++_First)

  0001f	3b 75 0c	 cmp	 esi, DWORD PTR __Last$[ebp]
  00022	75 e5		 jne	 SHORT $LL6@Uninit_cop

; 377  : 	_CATCH_ALL
; 378  : 	for (; _Next != _Dest; ++_Next)
; 379  : 		_Dest_val(_Al, _Next);
; 380  : 	_RERAISE;
; 381  : 	_CATCH_END
; 382  : 	return (_Dest);

  00024	8b 45 10	 mov	 eax, DWORD PTR __Dest$[ebp]
  00027	5e		 pop	 esi

; 383  : 	}

  00028	5d		 pop	 ebp
  00029	c3		 ret	 0
??$_Uninit_copy@PAUForceInfo@@PAU1@V?$allocator@UForceInfo@@@std@@@std@@YAPAUForceInfo@@PAU1@00AAV?$allocator@UForceInfo@@@0@U_Nonscalar_ptr_iterator_tag@0@@Z ENDP ; std::_Uninit_copy<ForceInfo *,ForceInfo *,std::allocator<ForceInfo> >
_TEXT	ENDS
PUBLIC	??$_Cons_val@V?$allocator@UWeaponInfo@@@std@@UWeaponInfo@@AAU3@@std@@YAXAAV?$allocator@UWeaponInfo@@@0@PAUWeaponInfo@@AAU2@@Z ; std::_Cons_val<std::allocator<WeaponInfo>,WeaponInfo,WeaponInfo &>
;	COMDAT xdata$x
; File c:\program files (x86)\microsoft visual studio 10.0\vc\include\utility
xdata$x	SEGMENT
__unwindtable$??$_Cons_val@V?$allocator@UWeaponInfo@@@std@@UWeaponInfo@@AAU3@@std@@YAXAAV?$allocator@UWeaponInfo@@@0@PAUWeaponInfo@@AAU2@@Z DD 0ffffffffH
	DD	FLAT:__unwindfunclet$??$_Cons_val@V?$allocator@UWeaponInfo@@@std@@UWeaponInfo@@AAU3@@std@@YAXAAV?$allocator@UWeaponInfo@@@0@PAUWeaponInfo@@AAU2@@Z$0
__ehfuncinfo$??$_Cons_val@V?$allocator@UWeaponInfo@@@std@@UWeaponInfo@@AAU3@@std@@YAXAAV?$allocator@UWeaponInfo@@@0@PAUWeaponInfo@@AAU2@@Z DD 019930522H
	DD	01H
	DD	FLAT:__unwindtable$??$_Cons_val@V?$allocator@UWeaponInfo@@@std@@UWeaponInfo@@AAU3@@std@@YAXAAV?$allocator@UWeaponInfo@@@0@PAUWeaponInfo@@AAU2@@Z
	DD	2 DUP(00H)
	DD	2 DUP(00H)
	DD	00H
	DD	01H
; Function compile flags: /Ogsp
; File c:\program files (x86)\microsoft visual studio 10.0\vc\include\xmemory
xdata$x	ENDS
;	COMDAT ??$_Cons_val@V?$allocator@UWeaponInfo@@@std@@UWeaponInfo@@AAU3@@std@@YAXAAV?$allocator@UWeaponInfo@@@0@PAUWeaponInfo@@AAU2@@Z
_TEXT	SEGMENT
$T512423 = -16						; size = 4
__$EHRec$ = -12						; size = 12
__Alval$ = 8						; size = 4
__Pdest$ = 12						; size = 4
__Src$ = 16						; size = 4
??$_Cons_val@V?$allocator@UWeaponInfo@@@std@@UWeaponInfo@@AAU3@@std@@YAXAAV?$allocator@UWeaponInfo@@@0@PAUWeaponInfo@@AAU2@@Z PROC ; std::_Cons_val<std::allocator<WeaponInfo>,WeaponInfo,WeaponInfo &>, COMDAT

; 279  : 	{	// construct using allocator

  00000	6a 04		 push	 4
  00002	b8 00 00 00 00	 mov	 eax, __ehhandler$??$_Cons_val@V?$allocator@UWeaponInfo@@@std@@UWeaponInfo@@AAU3@@std@@YAXAAV?$allocator@UWeaponInfo@@@0@PAUWeaponInfo@@AAU2@@Z
  00007	e8 00 00 00 00	 call	 __EH_prolog3

; 280  : 	_Alval.construct(_Pdest, _STD forward<_Ty2>(_Src));

  0000c	8b 4d 0c	 mov	 ecx, DWORD PTR __Pdest$[ebp]
  0000f	89 4d f0	 mov	 DWORD PTR $T512423[ebp], ecx
  00012	83 65 fc 00	 and	 DWORD PTR __$EHRec$[ebp+8], 0
  00016	85 c9		 test	 ecx, ecx
  00018	74 08		 je	 SHORT $LN7@Cons_val@3
  0001a	ff 75 10	 push	 DWORD PTR __Src$[ebp]
  0001d	e8 00 00 00 00	 call	 ??0WeaponInfo@@QAE@ABU0@@Z
$LN7@Cons_val@3:

; 281  : 	}

  00022	e8 00 00 00 00	 call	 __EH_epilog3
  00027	c3		 ret	 0
_TEXT	ENDS
;	COMDAT text$x
text$x	SEGMENT
__unwindfunclet$??$_Cons_val@V?$allocator@UWeaponInfo@@@std@@UWeaponInfo@@AAU3@@std@@YAXAAV?$allocator@UWeaponInfo@@@0@PAUWeaponInfo@@AAU2@@Z$0:
  00000	ff 75 0c	 push	 DWORD PTR __Pdest$[ebp]
  00003	ff 75 f0	 push	 DWORD PTR $T512423[ebp]
  00006	e8 00 00 00 00	 call	 ??3@YAXPAX0@Z		; operator delete
  0000b	59		 pop	 ecx
  0000c	59		 pop	 ecx
  0000d	c3		 ret	 0
__ehhandler$??$_Cons_val@V?$allocator@UWeaponInfo@@@std@@UWeaponInfo@@AAU3@@std@@YAXAAV?$allocator@UWeaponInfo@@@0@PAUWeaponInfo@@AAU2@@Z:
  0000e	8b 54 24 08	 mov	 edx, DWORD PTR [esp+8]
  00012	8d 42 0c	 lea	 eax, DWORD PTR [edx+12]
  00015	8b 4a ec	 mov	 ecx, DWORD PTR [edx-20]
  00018	33 c8		 xor	 ecx, eax
  0001a	e8 00 00 00 00	 call	 @__security_check_cookie@4
  0001f	b8 00 00 00 00	 mov	 eax, OFFSET __ehfuncinfo$??$_Cons_val@V?$allocator@UWeaponInfo@@@std@@UWeaponInfo@@AAU3@@std@@YAXAAV?$allocator@UWeaponInfo@@@0@PAUWeaponInfo@@AAU2@@Z
  00024	e9 00 00 00 00	 jmp	 ___CxxFrameHandler3
text$x	ENDS
??$_Cons_val@V?$allocator@UWeaponInfo@@@std@@UWeaponInfo@@AAU3@@std@@YAXAAV?$allocator@UWeaponInfo@@@0@PAUWeaponInfo@@AAU2@@Z ENDP ; std::_Cons_val<std::allocator<WeaponInfo>,WeaponInfo,WeaponInfo &>
PUBLIC	??$_Uninit_copy@V?$_Vector_const_iterator@V?$_Vector_val@UForceInfo@@V?$allocator@UForceInfo@@@std@@@std@@@std@@PAUForceInfo@@V?$allocator@UForceInfo@@@2@@std@@YAPAUForceInfo@@V?$_Vector_const_iterator@V?$_Vector_val@UForceInfo@@V?$allocator@UForceInfo@@@std@@@std@@@0@0PAU1@AAV?$allocator@UForceInfo@@@0@U_Nonscalar_ptr_iterator_tag@0@@Z ; std::_Uninit_copy<std::_Vector_const_iterator<std::_Vector_val<ForceInfo,std::allocator<ForceInfo> > >,ForceInfo *,std::allocator<ForceInfo> >
; Function compile flags: /Ogsp
; File c:\program files (x86)\microsoft visual studio 10.0\vc\include\memory
;	COMDAT ??$_Uninit_copy@V?$_Vector_const_iterator@V?$_Vector_val@UForceInfo@@V?$allocator@UForceInfo@@@std@@@std@@@std@@PAUForceInfo@@V?$allocator@UForceInfo@@@2@@std@@YAPAUForceInfo@@V?$_Vector_const_iterator@V?$_Vector_val@UForceInfo@@V?$allocator@UForceInfo@@@std@@@std@@@0@0PAU1@AAV?$allocator@UForceInfo@@@0@U_Nonscalar_ptr_iterator_tag@0@@Z
_TEXT	SEGMENT
__First$ = 8						; size = 4
__Last$ = 12						; size = 4
__Dest$ = 16						; size = 4
__Al$ = 20						; size = 4
___formal$ = 24						; size = 1
??$_Uninit_copy@V?$_Vector_const_iterator@V?$_Vector_val@UForceInfo@@V?$allocator@UForceInfo@@@std@@@std@@@std@@PAUForceInfo@@V?$allocator@UForceInfo@@@2@@std@@YAPAUForceInfo@@V?$_Vector_const_iterator@V?$_Vector_val@UForceInfo@@V?$allocator@UForceInfo@@@std@@@std@@@0@0PAU1@AAV?$allocator@UForceInfo@@@0@U_Nonscalar_ptr_iterator_tag@0@@Z PROC ; std::_Uninit_copy<std::_Vector_const_iterator<std::_Vector_val<ForceInfo,std::allocator<ForceInfo> > >,ForceInfo *,std::allocator<ForceInfo> >, COMDAT

; 369  : 	{	// copy [_First, _Last) to raw _Dest, using _Al, arbitrary type

  00000	55		 push	 ebp
  00001	8b ec		 mov	 ebp, esp

; 370  : 	_DEBUG_RANGE(_First, _Last);
; 371  : 	_DEBUG_POINTER(_Dest);
; 372  : 	_FwdIt _Next = _Dest;
; 373  : 
; 374  : 	_TRY_BEGIN
; 375  : 	for (; _First != _Last; ++_Dest, ++_First)

  00003	eb 19		 jmp	 SHORT $LN35@Uninit_cop@2
$LL14@Uninit_cop@2:

; 376  : 		_Cons_val(_Al, _Dest, *_First);

  00005	ff 75 08	 push	 DWORD PTR __First$[ebp]
  00008	ff 75 10	 push	 DWORD PTR __Dest$[ebp]
  0000b	ff 75 14	 push	 DWORD PTR __Al$[ebp]
  0000e	e8 00 00 00 00	 call	 ??$_Cons_val@V?$allocator@UForceInfo@@@std@@UForceInfo@@ABU3@@std@@YAXAAV?$allocator@UForceInfo@@@0@PAUForceInfo@@ABU2@@Z ; std::_Cons_val<std::allocator<ForceInfo>,ForceInfo,ForceInfo const &>
  00013	83 45 10 0c	 add	 DWORD PTR __Dest$[ebp], 12 ; 0000000cH
  00017	83 c4 0c	 add	 esp, 12			; 0000000cH
  0001a	83 45 08 0c	 add	 DWORD PTR __First$[ebp], 12 ; 0000000cH
$LN35@Uninit_cop@2:

; 370  : 	_DEBUG_RANGE(_First, _Last);
; 371  : 	_DEBUG_POINTER(_Dest);
; 372  : 	_FwdIt _Next = _Dest;
; 373  : 
; 374  : 	_TRY_BEGIN
; 375  : 	for (; _First != _Last; ++_Dest, ++_First)

  0001e	8b 45 08	 mov	 eax, DWORD PTR __First$[ebp]
  00021	3b 45 0c	 cmp	 eax, DWORD PTR __Last$[ebp]
  00024	75 df		 jne	 SHORT $LL14@Uninit_cop@2

; 377  : 	_CATCH_ALL
; 378  : 	for (; _Next != _Dest; ++_Next)
; 379  : 		_Dest_val(_Al, _Next);
; 380  : 	_RERAISE;
; 381  : 	_CATCH_END
; 382  : 	return (_Dest);

  00026	8b 45 10	 mov	 eax, DWORD PTR __Dest$[ebp]

; 383  : 	}

  00029	5d		 pop	 ebp
  0002a	c3		 ret	 0
??$_Uninit_copy@V?$_Vector_const_iterator@V?$_Vector_val@UForceInfo@@V?$allocator@UForceInfo@@@std@@@std@@@std@@PAUForceInfo@@V?$allocator@UForceInfo@@@2@@std@@YAPAUForceInfo@@V?$_Vector_const_iterator@V?$_Vector_val@UForceInfo@@V?$allocator@UForceInfo@@@std@@@std@@@0@0PAU1@AAV?$allocator@UForceInfo@@@0@U_Nonscalar_ptr_iterator_tag@0@@Z ENDP ; std::_Uninit_copy<std::_Vector_const_iterator<std::_Vector_val<ForceInfo,std::allocator<ForceInfo> > >,ForceInfo *,std::allocator<ForceInfo> >
_TEXT	ENDS
PUBLIC	??$_Cons_val@V?$allocator@UWeaponInfo@@@std@@UWeaponInfo@@ABU3@@std@@YAXAAV?$allocator@UWeaponInfo@@@0@PAUWeaponInfo@@ABU2@@Z ; std::_Cons_val<std::allocator<WeaponInfo>,WeaponInfo,WeaponInfo const &>
; Function compile flags: /Ogsp
; File c:\program files (x86)\microsoft visual studio 10.0\vc\include\xmemory
;	COMDAT ??$_Cons_val@V?$allocator@UWeaponInfo@@@std@@UWeaponInfo@@ABU3@@std@@YAXAAV?$allocator@UWeaponInfo@@@0@PAUWeaponInfo@@ABU2@@Z
_TEXT	SEGMENT
__Alval$ = 8						; size = 4
__Pdest$ = 12						; size = 4
__Src$ = 16						; size = 4
??$_Cons_val@V?$allocator@UWeaponInfo@@@std@@UWeaponInfo@@ABU3@@std@@YAXAAV?$allocator@UWeaponInfo@@@0@PAUWeaponInfo@@ABU2@@Z PROC ; std::_Cons_val<std::allocator<WeaponInfo>,WeaponInfo,WeaponInfo const &>, COMDAT

; 279  : 	{	// construct using allocator

  00000	55		 push	 ebp
  00001	8b ec		 mov	 ebp, esp

; 280  : 	_Alval.construct(_Pdest, _STD forward<_Ty2>(_Src));

  00003	ff 75 10	 push	 DWORD PTR __Src$[ebp]
  00006	ff 75 0c	 push	 DWORD PTR __Pdest$[ebp]
  00009	e8 00 00 00 00	 call	 ??$_Construct@UWeaponInfo@@ABU1@@std@@YAXPAUWeaponInfo@@ABU1@@Z ; std::_Construct<WeaponInfo,WeaponInfo const &>
  0000e	59		 pop	 ecx
  0000f	59		 pop	 ecx

; 281  : 	}

  00010	5d		 pop	 ebp
  00011	c3		 ret	 0
??$_Cons_val@V?$allocator@UWeaponInfo@@@std@@UWeaponInfo@@ABU3@@std@@YAXAAV?$allocator@UWeaponInfo@@@0@PAUWeaponInfo@@ABU2@@Z ENDP ; std::_Cons_val<std::allocator<WeaponInfo>,WeaponInfo,WeaponInfo const &>
_TEXT	ENDS
PUBLIC	??$_Destroy_range@V?$allocator@UForceInfo@@@std@@@std@@YAXPAUForceInfo@@0AAV?$allocator@UForceInfo@@@0@U_Nonscalar_ptr_iterator_tag@0@@Z ; std::_Destroy_range<std::allocator<ForceInfo> >
; Function compile flags: /Ogsp
;	COMDAT ??$_Destroy_range@V?$allocator@UForceInfo@@@std@@@std@@YAXPAUForceInfo@@0AAV?$allocator@UForceInfo@@@0@U_Nonscalar_ptr_iterator_tag@0@@Z
_TEXT	SEGMENT
__First$ = 8						; size = 4
__Last$ = 12						; size = 4
__Al$ = 16						; size = 4
___formal$ = 20						; size = 1
??$_Destroy_range@V?$allocator@UForceInfo@@@std@@@std@@YAXPAUForceInfo@@0AAV?$allocator@UForceInfo@@@0@U_Nonscalar_ptr_iterator_tag@0@@Z PROC ; std::_Destroy_range<std::allocator<ForceInfo> >, COMDAT

; 96   : 	for (; _First != _Last; ++_First)
; 97   : 		_Dest_val(_Al, _First);
; 98   : 	}

  00000	c3		 ret	 0
??$_Destroy_range@V?$allocator@UForceInfo@@@std@@@std@@YAXPAUForceInfo@@0AAV?$allocator@UForceInfo@@@0@U_Nonscalar_ptr_iterator_tag@0@@Z ENDP ; std::_Destroy_range<std::allocator<ForceInfo> >
_TEXT	ENDS
PUBLIC	??$_Dest_val@V?$allocator@UWeaponInfo@@@std@@UWeaponInfo@@@std@@YAXAAV?$allocator@UWeaponInfo@@@0@PAUWeaponInfo@@@Z ; std::_Dest_val<std::allocator<WeaponInfo>,WeaponInfo>
; Function compile flags: /Ogsp
;	COMDAT ??$_Dest_val@V?$allocator@UWeaponInfo@@@std@@UWeaponInfo@@@std@@YAXAAV?$allocator@UWeaponInfo@@@0@PAUWeaponInfo@@@Z
_TEXT	SEGMENT
__Alval$ = 8						; size = 4
__Pdest$ = 12						; size = 4
??$_Dest_val@V?$allocator@UWeaponInfo@@@std@@UWeaponInfo@@@std@@YAXAAV?$allocator@UWeaponInfo@@@0@PAUWeaponInfo@@@Z PROC ; std::_Dest_val<std::allocator<WeaponInfo>,WeaponInfo>, COMDAT

; 286  : 	{	// destroy using allocator

  00000	55		 push	 ebp
  00001	8b ec		 mov	 ebp, esp

; 287  : 	_Alval.destroy(_Pdest);

  00003	8b 4d 0c	 mov	 ecx, DWORD PTR __Pdest$[ebp]
  00006	83 c1 08	 add	 ecx, 8

; 288  : 	}

  00009	5d		 pop	 ebp

; 287  : 	_Alval.destroy(_Pdest);

  0000a	ff 25 00 00 00
	00		 jmp	 DWORD PTR __imp_??1ioHashString@@QAE@XZ
??$_Dest_val@V?$allocator@UWeaponInfo@@@std@@UWeaponInfo@@@std@@YAXAAV?$allocator@UWeaponInfo@@@0@PAUWeaponInfo@@@Z ENDP ; std::_Dest_val<std::allocator<WeaponInfo>,WeaponInfo>
_TEXT	ENDS
PUBLIC	??$_Uninitialized_copy@PAUForceInfo@@PAU1@V?$allocator@UForceInfo@@@std@@@std@@YAPAUForceInfo@@PAU1@00AAV?$allocator@UForceInfo@@@0@@Z ; std::_Uninitialized_copy<ForceInfo *,ForceInfo *,std::allocator<ForceInfo> >
; Function compile flags: /Ogsp
; File c:\program files (x86)\microsoft visual studio 10.0\vc\include\memory
;	COMDAT ??$_Uninitialized_copy@PAUForceInfo@@PAU1@V?$allocator@UForceInfo@@@std@@@std@@YAPAUForceInfo@@PAU1@00AAV?$allocator@UForceInfo@@@0@@Z
_TEXT	SEGMENT
__Cat$512551 = -4					; size = 1
__First$ = 8						; size = 4
__Last$ = 12						; size = 4
__Dest$ = 16						; size = 4
__Al$ = 20						; size = 4
??$_Uninitialized_copy@PAUForceInfo@@PAU1@V?$allocator@UForceInfo@@@std@@@std@@YAPAUForceInfo@@PAU1@00AAV?$allocator@UForceInfo@@@0@@Z PROC ; std::_Uninitialized_copy<ForceInfo *,ForceInfo *,std::allocator<ForceInfo> >, COMDAT

; 412  : 	{	// copy [_First, _Last) to raw _Dest, using _Al

  00000	55		 push	 ebp
  00001	8b ec		 mov	 ebp, esp
  00003	51		 push	 ecx

; 413  : 	return (_Uninit_copy(_First, _Last, _Dest, _Al,
; 414  : 		_Ptr_cat(_First, _Dest)));

  00004	ff 75 fc	 push	 DWORD PTR __Cat$512551[ebp]
  00007	ff 75 14	 push	 DWORD PTR __Al$[ebp]
  0000a	ff 75 10	 push	 DWORD PTR __Dest$[ebp]
  0000d	ff 75 0c	 push	 DWORD PTR __Last$[ebp]
  00010	ff 75 08	 push	 DWORD PTR __First$[ebp]
  00013	e8 00 00 00 00	 call	 ??$_Uninit_copy@PAUForceInfo@@PAU1@V?$allocator@UForceInfo@@@std@@@std@@YAPAUForceInfo@@PAU1@00AAV?$allocator@UForceInfo@@@0@U_Nonscalar_ptr_iterator_tag@0@@Z ; std::_Uninit_copy<ForceInfo *,ForceInfo *,std::allocator<ForceInfo> >
  00018	83 c4 14	 add	 esp, 20			; 00000014H

; 415  : 	}

  0001b	c9		 leave
  0001c	c3		 ret	 0
??$_Uninitialized_copy@PAUForceInfo@@PAU1@V?$allocator@UForceInfo@@@std@@@std@@YAPAUForceInfo@@PAU1@00AAV?$allocator@UForceInfo@@@0@@Z ENDP ; std::_Uninitialized_copy<ForceInfo *,ForceInfo *,std::allocator<ForceInfo> >
_TEXT	ENDS
PUBLIC	??$_Uninit_copy@PAUWeaponInfo@@PAU1@V?$allocator@UWeaponInfo@@@std@@@std@@YAPAUWeaponInfo@@PAU1@00AAV?$allocator@UWeaponInfo@@@0@U_Nonscalar_ptr_iterator_tag@0@@Z ; std::_Uninit_copy<WeaponInfo *,WeaponInfo *,std::allocator<WeaponInfo> >
EXTRN	__EH_prolog3_catch:PROC
;	COMDAT xdata$x
; File d:\lost saga for developer\youtube\tutorial\source\src\lsclient\playentityhelpstruct.h
xdata$x	SEGMENT
__catchsym$??$_Uninit_copy@PAUWeaponInfo@@PAU1@V?$allocator@UWeaponInfo@@@std@@@std@@YAPAUWeaponInfo@@PAU1@00AAV?$allocator@UWeaponInfo@@@0@U_Nonscalar_ptr_iterator_tag@0@@Z$3 DD 040H
	DD	00H
	DD	00H
	DD	FLAT:__catch$??$_Uninit_copy@PAUWeaponInfo@@PAU1@V?$allocator@UWeaponInfo@@@std@@@std@@YAPAUWeaponInfo@@PAU1@00AAV?$allocator@UWeaponInfo@@@0@U_Nonscalar_ptr_iterator_tag@0@@Z$0
__unwindtable$??$_Uninit_copy@PAUWeaponInfo@@PAU1@V?$allocator@UWeaponInfo@@@std@@@std@@YAPAUWeaponInfo@@PAU1@00AAV?$allocator@UWeaponInfo@@@0@U_Nonscalar_ptr_iterator_tag@0@@Z DD 0ffffffffH
	DD	00H
	DD	0ffffffffH
	DD	00H
__tryblocktable$??$_Uninit_copy@PAUWeaponInfo@@PAU1@V?$allocator@UWeaponInfo@@@std@@@std@@YAPAUWeaponInfo@@PAU1@00AAV?$allocator@UWeaponInfo@@@0@U_Nonscalar_ptr_iterator_tag@0@@Z DD 00H
	DD	00H
	DD	01H
	DD	01H
	DD	FLAT:__catchsym$??$_Uninit_copy@PAUWeaponInfo@@PAU1@V?$allocator@UWeaponInfo@@@std@@@std@@YAPAUWeaponInfo@@PAU1@00AAV?$allocator@UWeaponInfo@@@0@U_Nonscalar_ptr_iterator_tag@0@@Z$3
__ehfuncinfo$??$_Uninit_copy@PAUWeaponInfo@@PAU1@V?$allocator@UWeaponInfo@@@std@@@std@@YAPAUWeaponInfo@@PAU1@00AAV?$allocator@UWeaponInfo@@@0@U_Nonscalar_ptr_iterator_tag@0@@Z DD 019930522H
	DD	02H
	DD	FLAT:__unwindtable$??$_Uninit_copy@PAUWeaponInfo@@PAU1@V?$allocator@UWeaponInfo@@@std@@@std@@YAPAUWeaponInfo@@PAU1@00AAV?$allocator@UWeaponInfo@@@0@U_Nonscalar_ptr_iterator_tag@0@@Z
	DD	01H
	DD	FLAT:__tryblocktable$??$_Uninit_copy@PAUWeaponInfo@@PAU1@V?$allocator@UWeaponInfo@@@std@@@std@@YAPAUWeaponInfo@@PAU1@00AAV?$allocator@UWeaponInfo@@@0@U_Nonscalar_ptr_iterator_tag@0@@Z
	DD	2 DUP(00H)
	DD	00H
	DD	01H
; Function compile flags: /Ogsp
; File c:\program files (x86)\microsoft visual studio 10.0\vc\include\memory
xdata$x	ENDS
;	COMDAT ??$_Uninit_copy@PAUWeaponInfo@@PAU1@V?$allocator@UWeaponInfo@@@std@@@std@@YAPAUWeaponInfo@@PAU1@00AAV?$allocator@UWeaponInfo@@@0@U_Nonscalar_ptr_iterator_tag@0@@Z
_TEXT	SEGMENT
__Next$ = -20						; size = 4
__$EHRec$ = -16						; size = 16
__First$ = 8						; size = 4
__Last$ = 12						; size = 4
__Dest$ = 16						; size = 4
__Al$ = 20						; size = 4
___formal$ = 24						; size = 1
??$_Uninit_copy@PAUWeaponInfo@@PAU1@V?$allocator@UWeaponInfo@@@std@@@std@@YAPAUWeaponInfo@@PAU1@00AAV?$allocator@UWeaponInfo@@@0@U_Nonscalar_ptr_iterator_tag@0@@Z PROC ; std::_Uninit_copy<WeaponInfo *,WeaponInfo *,std::allocator<WeaponInfo> >, COMDAT

; 369  : 	{	// copy [_First, _Last) to raw _Dest, using _Al, arbitrary type

  00000	6a 08		 push	 8
  00002	b8 00 00 00 00	 mov	 eax, __ehhandler$??$_Uninit_copy@PAUWeaponInfo@@PAU1@V?$allocator@UWeaponInfo@@@std@@@std@@YAPAUWeaponInfo@@PAU1@00AAV?$allocator@UWeaponInfo@@@0@U_Nonscalar_ptr_iterator_tag@0@@Z
  00007	e8 00 00 00 00	 call	 __EH_prolog3_catch

; 370  : 	_DEBUG_RANGE(_First, _Last);
; 371  : 	_DEBUG_POINTER(_Dest);
; 372  : 	_FwdIt _Next = _Dest;

  0000c	8b 45 10	 mov	 eax, DWORD PTR __Dest$[ebp]

; 373  : 
; 374  : 	_TRY_BEGIN

  0000f	83 65 fc 00	 and	 DWORD PTR __$EHRec$[ebp+12], 0
  00013	8b 75 08	 mov	 esi, DWORD PTR __First$[ebp]
  00016	89 45 ec	 mov	 DWORD PTR __Next$[ebp], eax
$LL6@Uninit_cop@3:

; 375  : 	for (; _First != _Last; ++_Dest, ++_First)

  00019	3b 75 0c	 cmp	 esi, DWORD PTR __Last$[ebp]
  0001c	74 37		 je	 SHORT $LN4@Uninit_cop@3

; 376  : 		_Cons_val(_Al, _Dest, *_First);

  0001e	56		 push	 esi
  0001f	ff 75 10	 push	 DWORD PTR __Dest$[ebp]
  00022	ff 75 14	 push	 DWORD PTR __Al$[ebp]
  00025	e8 00 00 00 00	 call	 ??$_Cons_val@V?$allocator@UWeaponInfo@@@std@@UWeaponInfo@@AAU3@@std@@YAXAAV?$allocator@UWeaponInfo@@@0@PAUWeaponInfo@@AAU2@@Z ; std::_Cons_val<std::allocator<WeaponInfo>,WeaponInfo,WeaponInfo &>
  0002a	83 45 10 28	 add	 DWORD PTR __Dest$[ebp], 40 ; 00000028H
  0002e	83 c4 0c	 add	 esp, 12			; 0000000cH
  00031	83 c6 28	 add	 esi, 40			; 00000028H
  00034	eb e3		 jmp	 SHORT $LL6@Uninit_cop@3
__catch$??$_Uninit_copy@PAUWeaponInfo@@PAU1@V?$allocator@UWeaponInfo@@@std@@@std@@YAPAUWeaponInfo@@PAU1@00AAV?$allocator@UWeaponInfo@@@0@U_Nonscalar_ptr_iterator_tag@0@@Z$0:

; 377  : 	_CATCH_ALL
; 378  : 	for (; _Next != _Dest; ++_Next)

  00036	8b 75 ec	 mov	 esi, DWORD PTR __Next$[ebp]
  00039	eb 0c		 jmp	 SHORT $LN32@Uninit_cop@3
$LL3@Uninit_cop@3:

; 379  : 		_Dest_val(_Al, _Next);

  0003b	8d 4e 08	 lea	 ecx, DWORD PTR [esi+8]
  0003e	ff 15 00 00 00
	00		 call	 DWORD PTR __imp_??1ioHashString@@QAE@XZ
  00044	83 c6 28	 add	 esi, 40			; 00000028H
$LN32@Uninit_cop@3:

; 377  : 	_CATCH_ALL
; 378  : 	for (; _Next != _Dest; ++_Next)

  00047	3b 75 10	 cmp	 esi, DWORD PTR __Dest$[ebp]
  0004a	75 ef		 jne	 SHORT $LL3@Uninit_cop@3

; 380  : 	_RERAISE;

  0004c	6a 00		 push	 0
  0004e	6a 00		 push	 0
  00050	e8 00 00 00 00	 call	 __CxxThrowException@8
$LN33@Uninit_cop@3:
$LN4@Uninit_cop@3:

; 381  : 	_CATCH_END
; 382  : 	return (_Dest);

  00055	8b 45 10	 mov	 eax, DWORD PTR __Dest$[ebp]

; 383  : 	}

  00058	e8 00 00 00 00	 call	 __EH_epilog3
  0005d	c3		 ret	 0
$LN31@Uninit_cop@3:
_TEXT	ENDS
;	COMDAT text$x
text$x	SEGMENT
__ehhandler$??$_Uninit_copy@PAUWeaponInfo@@PAU1@V?$allocator@UWeaponInfo@@@std@@@std@@YAPAUWeaponInfo@@PAU1@00AAV?$allocator@UWeaponInfo@@@0@U_Nonscalar_ptr_iterator_tag@0@@Z:
  00000	8b 54 24 08	 mov	 edx, DWORD PTR [esp+8]
  00004	8d 42 0c	 lea	 eax, DWORD PTR [edx+12]
  00007	8b 4a e8	 mov	 ecx, DWORD PTR [edx-24]
  0000a	33 c8		 xor	 ecx, eax
  0000c	e8 00 00 00 00	 call	 @__security_check_cookie@4
  00011	b8 00 00 00 00	 mov	 eax, OFFSET __ehfuncinfo$??$_Uninit_copy@PAUWeaponInfo@@PAU1@V?$allocator@UWeaponInfo@@@std@@@std@@YAPAUWeaponInfo@@PAU1@00AAV?$allocator@UWeaponInfo@@@0@U_Nonscalar_ptr_iterator_tag@0@@Z
  00016	e9 00 00 00 00	 jmp	 ___CxxFrameHandler3
text$x	ENDS
??$_Uninit_copy@PAUWeaponInfo@@PAU1@V?$allocator@UWeaponInfo@@@std@@@std@@YAPAUWeaponInfo@@PAU1@00AAV?$allocator@UWeaponInfo@@@0@U_Nonscalar_ptr_iterator_tag@0@@Z ENDP ; std::_Uninit_copy<WeaponInfo *,WeaponInfo *,std::allocator<WeaponInfo> >
PUBLIC	??$_Uninitialized_copy@V?$_Vector_const_iterator@V?$_Vector_val@UForceInfo@@V?$allocator@UForceInfo@@@std@@@std@@@std@@PAUForceInfo@@V?$allocator@UForceInfo@@@2@@std@@YAPAUForceInfo@@V?$_Vector_const_iterator@V?$_Vector_val@UForceInfo@@V?$allocator@UForceInfo@@@std@@@std@@@0@0PAU1@AAV?$allocator@UForceInfo@@@0@@Z ; std::_Uninitialized_copy<std::_Vector_const_iterator<std::_Vector_val<ForceInfo,std::allocator<ForceInfo> > >,ForceInfo *,std::allocator<ForceInfo> >
; Function compile flags: /Ogsp
;	COMDAT ??$_Uninitialized_copy@V?$_Vector_const_iterator@V?$_Vector_val@UForceInfo@@V?$allocator@UForceInfo@@@std@@@std@@@std@@PAUForceInfo@@V?$allocator@UForceInfo@@@2@@std@@YAPAUForceInfo@@V?$_Vector_const_iterator@V?$_Vector_val@UForceInfo@@V?$allocator@UForceInfo@@@std@@@std@@@0@0PAU1@AAV?$allocator@UForceInfo@@@0@@Z
_TEXT	SEGMENT
__Cat$512619 = -4					; size = 1
__First$ = 8						; size = 4
__Last$ = 12						; size = 4
__Dest$ = 16						; size = 4
__Al$ = 20						; size = 4
??$_Uninitialized_copy@V?$_Vector_const_iterator@V?$_Vector_val@UForceInfo@@V?$allocator@UForceInfo@@@std@@@std@@@std@@PAUForceInfo@@V?$allocator@UForceInfo@@@2@@std@@YAPAUForceInfo@@V?$_Vector_const_iterator@V?$_Vector_val@UForceInfo@@V?$allocator@UForceInfo@@@std@@@std@@@0@0PAU1@AAV?$allocator@UForceInfo@@@0@@Z PROC ; std::_Uninitialized_copy<std::_Vector_const_iterator<std::_Vector_val<ForceInfo,std::allocator<ForceInfo> > >,ForceInfo *,std::allocator<ForceInfo> >, COMDAT

; 412  : 	{	// copy [_First, _Last) to raw _Dest, using _Al

  00000	55		 push	 ebp
  00001	8b ec		 mov	 ebp, esp
  00003	51		 push	 ecx

; 413  : 	return (_Uninit_copy(_First, _Last, _Dest, _Al,
; 414  : 		_Ptr_cat(_First, _Dest)));

  00004	ff 75 fc	 push	 DWORD PTR __Cat$512619[ebp]
  00007	ff 75 14	 push	 DWORD PTR __Al$[ebp]
  0000a	ff 75 10	 push	 DWORD PTR __Dest$[ebp]
  0000d	ff 75 0c	 push	 DWORD PTR __Last$[ebp]
  00010	ff 75 08	 push	 DWORD PTR __First$[ebp]
  00013	e8 00 00 00 00	 call	 ??$_Uninit_copy@V?$_Vector_const_iterator@V?$_Vector_val@UForceInfo@@V?$allocator@UForceInfo@@@std@@@std@@@std@@PAUForceInfo@@V?$allocator@UForceInfo@@@2@@std@@YAPAUForceInfo@@V?$_Vector_const_iterator@V?$_Vector_val@UForceInfo@@V?$allocator@UForceInfo@@@std@@@std@@@0@0PAU1@AAV?$allocator@UForceInfo@@@0@U_Nonscalar_ptr_iterator_tag@0@@Z ; std::_Uninit_copy<std::_Vector_const_iterator<std::_Vector_val<ForceInfo,std::allocator<ForceInfo> > >,ForceInfo *,std::allocator<ForceInfo> >
  00018	83 c4 14	 add	 esp, 20			; 00000014H

; 415  : 	}

  0001b	c9		 leave
  0001c	c3		 ret	 0
??$_Uninitialized_copy@V?$_Vector_const_iterator@V?$_Vector_val@UForceInfo@@V?$allocator@UForceInfo@@@std@@@std@@@std@@PAUForceInfo@@V?$allocator@UForceInfo@@@2@@std@@YAPAUForceInfo@@V?$_Vector_const_iterator@V?$_Vector_val@UForceInfo@@V?$allocator@UForceInfo@@@std@@@std@@@0@0PAU1@AAV?$allocator@UForceInfo@@@0@@Z ENDP ; std::_Uninitialized_copy<std::_Vector_const_iterator<std::_Vector_val<ForceInfo,std::allocator<ForceInfo> > >,ForceInfo *,std::allocator<ForceInfo> >
_TEXT	ENDS
PUBLIC	??$_Uninit_copy@V?$_Vector_const_iterator@V?$_Vector_val@UWeaponInfo@@V?$allocator@UWeaponInfo@@@std@@@std@@@std@@PAUWeaponInfo@@V?$allocator@UWeaponInfo@@@2@@std@@YAPAUWeaponInfo@@V?$_Vector_const_iterator@V?$_Vector_val@UWeaponInfo@@V?$allocator@UWeaponInfo@@@std@@@std@@@0@0PAU1@AAV?$allocator@UWeaponInfo@@@0@U_Nonscalar_ptr_iterator_tag@0@@Z ; std::_Uninit_copy<std::_Vector_const_iterator<std::_Vector_val<WeaponInfo,std::allocator<WeaponInfo> > >,WeaponInfo *,std::allocator<WeaponInfo> >
;	COMDAT xdata$x
; File d:\lost saga for developer\youtube\tutorial\source\src\lsclient\playentityhelpstruct.h
xdata$x	SEGMENT
__catchsym$??$_Uninit_copy@V?$_Vector_const_iterator@V?$_Vector_val@UWeaponInfo@@V?$allocator@UWeaponInfo@@@std@@@std@@@std@@PAUWeaponInfo@@V?$allocator@UWeaponInfo@@@2@@std@@YAPAUWeaponInfo@@V?$_Vector_const_iterator@V?$_Vector_val@UWeaponInfo@@V?$allocator@UWeaponInfo@@@std@@@std@@@0@0PAU1@AAV?$allocator@UWeaponInfo@@@0@U_Nonscalar_ptr_iterator_tag@0@@Z$3 DD 040H
	DD	00H
	DD	00H
	DD	FLAT:__catch$??$_Uninit_copy@V?$_Vector_const_iterator@V?$_Vector_val@UWeaponInfo@@V?$allocator@UWeaponInfo@@@std@@@std@@@std@@PAUWeaponInfo@@V?$allocator@UWeaponInfo@@@2@@std@@YAPAUWeaponInfo@@V?$_Vector_const_iterator@V?$_Vector_val@UWeaponInfo@@V?$allocator@UWeaponInfo@@@std@@@std@@@0@0PAU1@AAV?$allocator@UWeaponInfo@@@0@U_Nonscalar_ptr_iterator_tag@0@@Z$0
__unwindtable$??$_Uninit_copy@V?$_Vector_const_iterator@V?$_Vector_val@UWeaponInfo@@V?$allocator@UWeaponInfo@@@std@@@std@@@std@@PAUWeaponInfo@@V?$allocator@UWeaponInfo@@@2@@std@@YAPAUWeaponInfo@@V?$_Vector_const_iterator@V?$_Vector_val@UWeaponInfo@@V?$allocator@UWeaponInfo@@@std@@@std@@@0@0PAU1@AAV?$allocator@UWeaponInfo@@@0@U_Nonscalar_ptr_iterator_tag@0@@Z DD 0ffffffffH
	DD	00H
	DD	0ffffffffH
	DD	00H
__tryblocktable$??$_Uninit_copy@V?$_Vector_const_iterator@V?$_Vector_val@UWeaponInfo@@V?$allocator@UWeaponInfo@@@std@@@std@@@std@@PAUWeaponInfo@@V?$allocator@UWeaponInfo@@@2@@std@@YAPAUWeaponInfo@@V?$_Vector_const_iterator@V?$_Vector_val@UWeaponInfo@@V?$allocator@UWeaponInfo@@@std@@@std@@@0@0PAU1@AAV?$allocator@UWeaponInfo@@@0@U_Nonscalar_ptr_iterator_tag@0@@Z DD 00H
	DD	00H
	DD	01H
	DD	01H
	DD	FLAT:__catchsym$??$_Uninit_copy@V?$_Vector_const_iterator@V?$_Vector_val@UWeaponInfo@@V?$allocator@UWeaponInfo@@@std@@@std@@@std@@PAUWeaponInfo@@V?$allocator@UWeaponInfo@@@2@@std@@YAPAUWeaponInfo@@V?$_Vector_const_iterator@V?$_Vector_val@UWeaponInfo@@V?$allocator@UWeaponInfo@@@std@@@std@@@0@0PAU1@AAV?$allocator@UWeaponInfo@@@0@U_Nonscalar_ptr_iterator_tag@0@@Z$3
__ehfuncinfo$??$_Uninit_copy@V?$_Vector_const_iterator@V?$_Vector_val@UWeaponInfo@@V?$allocator@UWeaponInfo@@@std@@@std@@@std@@PAUWeaponInfo@@V?$allocator@UWeaponInfo@@@2@@std@@YAPAUWeaponInfo@@V?$_Vector_const_iterator@V?$_Vector_val@UWeaponInfo@@V?$allocator@UWeaponInfo@@@std@@@std@@@0@0PAU1@AAV?$allocator@UWeaponInfo@@@0@U_Nonscalar_ptr_iterator_tag@0@@Z DD 019930522H
	DD	02H
	DD	FLAT:__unwindtable$??$_Uninit_copy@V?$_Vector_const_iterator@V?$_Vector_val@UWeaponInfo@@V?$allocator@UWeaponInfo@@@std@@@std@@@std@@PAUWeaponInfo@@V?$allocator@UWeaponInfo@@@2@@std@@YAPAUWeaponInfo@@V?$_Vector_const_iterator@V?$_Vector_val@UWeaponInfo@@V?$allocator@UWeaponInfo@@@std@@@std@@@0@0PAU1@AAV?$allocator@UWeaponInfo@@@0@U_Nonscalar_ptr_iterator_tag@0@@Z
	DD	01H
	DD	FLAT:__tryblocktable$??$_Uninit_copy@V?$_Vector_const_iterator@V?$_Vector_val@UWeaponInfo@@V?$allocator@UWeaponInfo@@@std@@@std@@@std@@PAUWeaponInfo@@V?$allocator@UWeaponInfo@@@2@@std@@YAPAUWeaponInfo@@V?$_Vector_const_iterator@V?$_Vector_val@UWeaponInfo@@V?$allocator@UWeaponInfo@@@std@@@std@@@0@0PAU1@AAV?$allocator@UWeaponInfo@@@0@U_Nonscalar_ptr_iterator_tag@0@@Z
	DD	2 DUP(00H)
	DD	00H
	DD	01H
; Function compile flags: /Ogsp
; File c:\program files (x86)\microsoft visual studio 10.0\vc\include\memory
xdata$x	ENDS
;	COMDAT ??$_Uninit_copy@V?$_Vector_const_iterator@V?$_Vector_val@UWeaponInfo@@V?$allocator@UWeaponInfo@@@std@@@std@@@std@@PAUWeaponInfo@@V?$allocator@UWeaponInfo@@@2@@std@@YAPAUWeaponInfo@@V?$_Vector_const_iterator@V?$_Vector_val@UWeaponInfo@@V?$allocator@UWeaponInfo@@@std@@@std@@@0@0PAU1@AAV?$allocator@UWeaponInfo@@@0@U_Nonscalar_ptr_iterator_tag@0@@Z
_TEXT	SEGMENT
__Next$ = -20						; size = 4
__$EHRec$ = -16						; size = 16
__First$ = 8						; size = 4
__Last$ = 12						; size = 4
__Dest$ = 16						; size = 4
__Al$ = 20						; size = 4
___formal$ = 24						; size = 1
??$_Uninit_copy@V?$_Vector_const_iterator@V?$_Vector_val@UWeaponInfo@@V?$allocator@UWeaponInfo@@@std@@@std@@@std@@PAUWeaponInfo@@V?$allocator@UWeaponInfo@@@2@@std@@YAPAUWeaponInfo@@V?$_Vector_const_iterator@V?$_Vector_val@UWeaponInfo@@V?$allocator@UWeaponInfo@@@std@@@std@@@0@0PAU1@AAV?$allocator@UWeaponInfo@@@0@U_Nonscalar_ptr_iterator_tag@0@@Z PROC ; std::_Uninit_copy<std::_Vector_const_iterator<std::_Vector_val<WeaponInfo,std::allocator<WeaponInfo> > >,WeaponInfo *,std::allocator<WeaponInfo> >, COMDAT

; 369  : 	{	// copy [_First, _Last) to raw _Dest, using _Al, arbitrary type

  00000	6a 08		 push	 8
  00002	b8 00 00 00 00	 mov	 eax, __ehhandler$??$_Uninit_copy@V?$_Vector_const_iterator@V?$_Vector_val@UWeaponInfo@@V?$allocator@UWeaponInfo@@@std@@@std@@@std@@PAUWeaponInfo@@V?$allocator@UWeaponInfo@@@2@@std@@YAPAUWeaponInfo@@V?$_Vector_const_iterator@V?$_Vector_val@UWeaponInfo@@V?$allocator@UWeaponInfo@@@std@@@std@@@0@0PAU1@AAV?$allocator@UWeaponInfo@@@0@U_Nonscalar_ptr_iterator_tag@0@@Z
  00007	e8 00 00 00 00	 call	 __EH_prolog3_catch

; 370  : 	_DEBUG_RANGE(_First, _Last);
; 371  : 	_DEBUG_POINTER(_Dest);
; 372  : 	_FwdIt _Next = _Dest;

  0000c	8b 45 10	 mov	 eax, DWORD PTR __Dest$[ebp]

; 373  : 
; 374  : 	_TRY_BEGIN

  0000f	83 65 fc 00	 and	 DWORD PTR __$EHRec$[ebp+12], 0
  00013	89 45 ec	 mov	 DWORD PTR __Next$[ebp], eax

; 375  : 	for (; _First != _Last; ++_Dest, ++_First)

$LL14@Uninit_cop@4:
  00016	8b 45 08	 mov	 eax, DWORD PTR __First$[ebp]
  00019	3b 45 0c	 cmp	 eax, DWORD PTR __Last$[ebp]
  0001c	74 34		 je	 SHORT $LN4@Uninit_cop@4

; 376  : 		_Cons_val(_Al, _Dest, *_First);

  0001e	50		 push	 eax
  0001f	ff 75 10	 push	 DWORD PTR __Dest$[ebp]
  00022	e8 00 00 00 00	 call	 ??$_Construct@UWeaponInfo@@ABU1@@std@@YAXPAUWeaponInfo@@ABU1@@Z ; std::_Construct<WeaponInfo,WeaponInfo const &>
  00027	83 45 10 28	 add	 DWORD PTR __Dest$[ebp], 40 ; 00000028H
  0002b	83 45 08 28	 add	 DWORD PTR __First$[ebp], 40 ; 00000028H
  0002f	59		 pop	 ecx
  00030	59		 pop	 ecx
  00031	eb e3		 jmp	 SHORT $LL14@Uninit_cop@4
__catch$??$_Uninit_copy@V?$_Vector_const_iterator@V?$_Vector_val@UWeaponInfo@@V?$allocator@UWeaponInfo@@@std@@@std@@@std@@PAUWeaponInfo@@V?$allocator@UWeaponInfo@@@2@@std@@YAPAUWeaponInfo@@V?$_Vector_const_iterator@V?$_Vector_val@UWeaponInfo@@V?$allocator@UWeaponInfo@@@std@@@std@@@0@0PAU1@AAV?$allocator@UWeaponInfo@@@0@U_Nonscalar_ptr_iterator_tag@0@@Z$0:

; 377  : 	_CATCH_ALL
; 378  : 	for (; _Next != _Dest; ++_Next)

  00033	8b 75 ec	 mov	 esi, DWORD PTR __Next$[ebp]
  00036	eb 0c		 jmp	 SHORT $LN48@Uninit_cop@4
$LL3@Uninit_cop@4:

; 379  : 		_Dest_val(_Al, _Next);

  00038	8d 4e 08	 lea	 ecx, DWORD PTR [esi+8]
  0003b	ff 15 00 00 00
	00		 call	 DWORD PTR __imp_??1ioHashString@@QAE@XZ
  00041	83 c6 28	 add	 esi, 40			; 00000028H
$LN48@Uninit_cop@4:

; 377  : 	_CATCH_ALL
; 378  : 	for (; _Next != _Dest; ++_Next)

  00044	3b 75 10	 cmp	 esi, DWORD PTR __Dest$[ebp]
  00047	75 ef		 jne	 SHORT $LL3@Uninit_cop@4

; 380  : 	_RERAISE;

  00049	6a 00		 push	 0
  0004b	6a 00		 push	 0
  0004d	e8 00 00 00 00	 call	 __CxxThrowException@8
$LN49@Uninit_cop@4:
$LN4@Uninit_cop@4:

; 381  : 	_CATCH_END
; 382  : 	return (_Dest);

  00052	8b 45 10	 mov	 eax, DWORD PTR __Dest$[ebp]

; 383  : 	}

  00055	e8 00 00 00 00	 call	 __EH_epilog3
  0005a	c3		 ret	 0
$LN47@Uninit_cop@4:
_TEXT	ENDS
;	COMDAT text$x
text$x	SEGMENT
__ehhandler$??$_Uninit_copy@V?$_Vector_const_iterator@V?$_Vector_val@UWeaponInfo@@V?$allocator@UWeaponInfo@@@std@@@std@@@std@@PAUWeaponInfo@@V?$allocator@UWeaponInfo@@@2@@std@@YAPAUWeaponInfo@@V?$_Vector_const_iterator@V?$_Vector_val@UWeaponInfo@@V?$allocator@UWeaponInfo@@@std@@@std@@@0@0PAU1@AAV?$allocator@UWeaponInfo@@@0@U_Nonscalar_ptr_iterator_tag@0@@Z:
  00000	8b 54 24 08	 mov	 edx, DWORD PTR [esp+8]
  00004	8d 42 0c	 lea	 eax, DWORD PTR [edx+12]
  00007	8b 4a e8	 mov	 ecx, DWORD PTR [edx-24]
  0000a	33 c8		 xor	 ecx, eax
  0000c	e8 00 00 00 00	 call	 @__security_check_cookie@4
  00011	b8 00 00 00 00	 mov	 eax, OFFSET __ehfuncinfo$??$_Uninit_copy@V?$_Vector_const_iterator@V?$_Vector_val@UWeaponInfo@@V?$allocator@UWeaponInfo@@@std@@@std@@@std@@PAUWeaponInfo@@V?$allocator@UWeaponInfo@@@2@@std@@YAPAUWeaponInfo@@V?$_Vector_const_iterator@V?$_Vector_val@UWeaponInfo@@V?$allocator@UWeaponInfo@@@std@@@std@@@0@0PAU1@AAV?$allocator@UWeaponInfo@@@0@U_Nonscalar_ptr_iterator_tag@0@@Z
  00016	e9 00 00 00 00	 jmp	 ___CxxFrameHandler3
text$x	ENDS
??$_Uninit_copy@V?$_Vector_const_iterator@V?$_Vector_val@UWeaponInfo@@V?$allocator@UWeaponInfo@@@std@@@std@@@std@@PAUWeaponInfo@@V?$allocator@UWeaponInfo@@@2@@std@@YAPAUWeaponInfo@@V?$_Vector_const_iterator@V?$_Vector_val@UWeaponInfo@@V?$allocator@UWeaponInfo@@@std@@@std@@@0@0PAU1@AAV?$allocator@UWeaponInfo@@@0@U_Nonscalar_ptr_iterator_tag@0@@Z ENDP ; std::_Uninit_copy<std::_Vector_const_iterator<std::_Vector_val<WeaponInfo,std::allocator<WeaponInfo> > >,WeaponInfo *,std::allocator<WeaponInfo> >
PUBLIC	??$_Destroy_range@V?$allocator@UForceInfo@@@std@@@std@@YAXPAUForceInfo@@0AAV?$allocator@UForceInfo@@@0@@Z ; std::_Destroy_range<std::allocator<ForceInfo> >
; Function compile flags: /Ogsp
; File c:\program files (x86)\microsoft visual studio 10.0\vc\include\xmemory
;	COMDAT ??$_Destroy_range@V?$allocator@UForceInfo@@@std@@@std@@YAXPAUForceInfo@@0AAV?$allocator@UForceInfo@@@0@@Z
_TEXT	SEGMENT
__First$ = 8						; size = 4
__Last$ = 12						; size = 4
__Al$ = 16						; size = 4
??$_Destroy_range@V?$allocator@UForceInfo@@@std@@@std@@YAXPAUForceInfo@@0AAV?$allocator@UForceInfo@@@0@@Z PROC ; std::_Destroy_range<std::allocator<ForceInfo> >, COMDAT

; 88   : 	_Destroy_range(_First, _Last, _Al, _Ptr_cat(_First, _Last));
; 89   : 	}

  00000	c3		 ret	 0
??$_Destroy_range@V?$allocator@UForceInfo@@@std@@@std@@YAXPAUForceInfo@@0AAV?$allocator@UForceInfo@@@0@@Z ENDP ; std::_Destroy_range<std::allocator<ForceInfo> >
_TEXT	ENDS
PUBLIC	??$_Destroy_range@V?$allocator@UWeaponInfo@@@std@@@std@@YAXPAUWeaponInfo@@0AAV?$allocator@UWeaponInfo@@@0@U_Nonscalar_ptr_iterator_tag@0@@Z ; std::_Destroy_range<std::allocator<WeaponInfo> >
; Function compile flags: /Ogsp
;	COMDAT ??$_Destroy_range@V?$allocator@UWeaponInfo@@@std@@@std@@YAXPAUWeaponInfo@@0AAV?$allocator@UWeaponInfo@@@0@U_Nonscalar_ptr_iterator_tag@0@@Z
_TEXT	SEGMENT
__First$ = 8						; size = 4
__Last$ = 12						; size = 4
__Al$ = 16						; size = 4
___formal$ = 20						; size = 1
??$_Destroy_range@V?$allocator@UWeaponInfo@@@std@@@std@@YAXPAUWeaponInfo@@0AAV?$allocator@UWeaponInfo@@@0@U_Nonscalar_ptr_iterator_tag@0@@Z PROC ; std::_Destroy_range<std::allocator<WeaponInfo> >, COMDAT

; 95   : 	{	// destroy [_First, _Last), arbitrary type

  00000	55		 push	 ebp
  00001	8b ec		 mov	 ebp, esp
  00003	56		 push	 esi

; 96   : 	for (; _First != _Last; ++_First)

  00004	8b 75 08	 mov	 esi, DWORD PTR __First$[ebp]
  00007	eb 0c		 jmp	 SHORT $LN20@Destroy_ra
$LL3@Destroy_ra:

; 97   : 		_Dest_val(_Al, _First);

  00009	8d 4e 08	 lea	 ecx, DWORD PTR [esi+8]
  0000c	ff 15 00 00 00
	00		 call	 DWORD PTR __imp_??1ioHashString@@QAE@XZ
  00012	83 c6 28	 add	 esi, 40			; 00000028H
$LN20@Destroy_ra:

; 96   : 	for (; _First != _Last; ++_First)

  00015	3b 75 0c	 cmp	 esi, DWORD PTR __Last$[ebp]
  00018	75 ef		 jne	 SHORT $LL3@Destroy_ra
  0001a	5e		 pop	 esi

; 98   : 	}

  0001b	5d		 pop	 ebp
  0001c	c3		 ret	 0
??$_Destroy_range@V?$allocator@UWeaponInfo@@@std@@@std@@YAXPAUWeaponInfo@@0AAV?$allocator@UWeaponInfo@@@0@U_Nonscalar_ptr_iterator_tag@0@@Z ENDP ; std::_Destroy_range<std::allocator<WeaponInfo> >
_TEXT	ENDS
PUBLIC	??$_Ucopy@PAUForceInfo@@@?$vector@UForceInfo@@V?$allocator@UForceInfo@@@std@@@std@@IAEPAUForceInfo@@PAU2@00@Z ; std::vector<ForceInfo,std::allocator<ForceInfo> >::_Ucopy<ForceInfo *>
; Function compile flags: /Ogsp
; File c:\program files (x86)\microsoft visual studio 10.0\vc\include\vector
;	COMDAT ??$_Ucopy@PAUForceInfo@@@?$vector@UForceInfo@@V?$allocator@UForceInfo@@@std@@@std@@IAEPAUForceInfo@@PAU2@00@Z
_TEXT	SEGMENT
__First$ = 8						; size = 4
__Last$ = 12						; size = 4
__Cat$512812 = 16					; size = 1
__Ptr$ = 16						; size = 4
??$_Ucopy@PAUForceInfo@@@?$vector@UForceInfo@@V?$allocator@UForceInfo@@@std@@@std@@IAEPAUForceInfo@@PAU2@00@Z PROC ; std::vector<ForceInfo,std::allocator<ForceInfo> >::_Ucopy<ForceInfo *>, COMDAT
; _this$ = ecx

; 1315 : 		pointer _Ucopy(_Iter _First, _Iter _Last, pointer _Ptr)

  00000	55		 push	 ebp
  00001	8b ec		 mov	 ebp, esp

; 1316 : 		{	// copy initializing [_First, _Last), using allocator
; 1317 : 		return (_Uninitialized_copy(_First, _Last,
; 1318 : 			_Ptr, this->_Alval));

  00003	ff 75 10	 push	 DWORD PTR __Cat$512812[ebp]
  00006	83 c1 0c	 add	 ecx, 12			; 0000000cH
  00009	51		 push	 ecx
  0000a	ff 75 10	 push	 DWORD PTR __Ptr$[ebp]
  0000d	ff 75 0c	 push	 DWORD PTR __Last$[ebp]
  00010	ff 75 08	 push	 DWORD PTR __First$[ebp]
  00013	e8 00 00 00 00	 call	 ??$_Uninit_copy@PAUForceInfo@@PAU1@V?$allocator@UForceInfo@@@std@@@std@@YAPAUForceInfo@@PAU1@00AAV?$allocator@UForceInfo@@@0@U_Nonscalar_ptr_iterator_tag@0@@Z ; std::_Uninit_copy<ForceInfo *,ForceInfo *,std::allocator<ForceInfo> >
  00018	83 c4 14	 add	 esp, 20			; 00000014H

; 1319 : 		}

  0001b	5d		 pop	 ebp
  0001c	c2 0c 00	 ret	 12			; 0000000cH
??$_Ucopy@PAUForceInfo@@@?$vector@UForceInfo@@V?$allocator@UForceInfo@@@std@@@std@@IAEPAUForceInfo@@PAU2@00@Z ENDP ; std::vector<ForceInfo,std::allocator<ForceInfo> >::_Ucopy<ForceInfo *>
_TEXT	ENDS
PUBLIC	??$_Uninitialized_copy@PAUWeaponInfo@@PAU1@V?$allocator@UWeaponInfo@@@std@@@std@@YAPAUWeaponInfo@@PAU1@00AAV?$allocator@UWeaponInfo@@@0@@Z ; std::_Uninitialized_copy<WeaponInfo *,WeaponInfo *,std::allocator<WeaponInfo> >
; Function compile flags: /Ogsp
; File c:\program files (x86)\microsoft visual studio 10.0\vc\include\memory
;	COMDAT ??$_Uninitialized_copy@PAUWeaponInfo@@PAU1@V?$allocator@UWeaponInfo@@@std@@@std@@YAPAUWeaponInfo@@PAU1@00AAV?$allocator@UWeaponInfo@@@0@@Z
_TEXT	SEGMENT
__Cat$512820 = -4					; size = 1
__First$ = 8						; size = 4
__Last$ = 12						; size = 4
__Dest$ = 16						; size = 4
__Al$ = 20						; size = 4
??$_Uninitialized_copy@PAUWeaponInfo@@PAU1@V?$allocator@UWeaponInfo@@@std@@@std@@YAPAUWeaponInfo@@PAU1@00AAV?$allocator@UWeaponInfo@@@0@@Z PROC ; std::_Uninitialized_copy<WeaponInfo *,WeaponInfo *,std::allocator<WeaponInfo> >, COMDAT

; 412  : 	{	// copy [_First, _Last) to raw _Dest, using _Al

  00000	55		 push	 ebp
  00001	8b ec		 mov	 ebp, esp
  00003	51		 push	 ecx

; 413  : 	return (_Uninit_copy(_First, _Last, _Dest, _Al,
; 414  : 		_Ptr_cat(_First, _Dest)));

  00004	ff 75 fc	 push	 DWORD PTR __Cat$512820[ebp]
  00007	ff 75 14	 push	 DWORD PTR __Al$[ebp]
  0000a	ff 75 10	 push	 DWORD PTR __Dest$[ebp]
  0000d	ff 75 0c	 push	 DWORD PTR __Last$[ebp]
  00010	ff 75 08	 push	 DWORD PTR __First$[ebp]
  00013	e8 00 00 00 00	 call	 ??$_Uninit_copy@PAUWeaponInfo@@PAU1@V?$allocator@UWeaponInfo@@@std@@@std@@YAPAUWeaponInfo@@PAU1@00AAV?$allocator@UWeaponInfo@@@0@U_Nonscalar_ptr_iterator_tag@0@@Z ; std::_Uninit_copy<WeaponInfo *,WeaponInfo *,std::allocator<WeaponInfo> >
  00018	83 c4 14	 add	 esp, 20			; 00000014H

; 415  : 	}

  0001b	c9		 leave
  0001c	c3		 ret	 0
??$_Uninitialized_copy@PAUWeaponInfo@@PAU1@V?$allocator@UWeaponInfo@@@std@@@std@@YAPAUWeaponInfo@@PAU1@00AAV?$allocator@UWeaponInfo@@@0@@Z ENDP ; std::_Uninitialized_copy<WeaponInfo *,WeaponInfo *,std::allocator<WeaponInfo> >
_TEXT	ENDS
PUBLIC	??$_Ucopy@V?$_Vector_const_iterator@V?$_Vector_val@UForceInfo@@V?$allocator@UForceInfo@@@std@@@std@@@std@@@?$vector@UForceInfo@@V?$allocator@UForceInfo@@@std@@@std@@IAEPAUForceInfo@@V?$_Vector_const_iterator@V?$_Vector_val@UForceInfo@@V?$allocator@UForceInfo@@@std@@@std@@@1@0PAU2@@Z ; std::vector<ForceInfo,std::allocator<ForceInfo> >::_Ucopy<std::_Vector_const_iterator<std::_Vector_val<ForceInfo,std::allocator<ForceInfo> > > >
; Function compile flags: /Ogsp
; File c:\program files (x86)\microsoft visual studio 10.0\vc\include\vector
;	COMDAT ??$_Ucopy@V?$_Vector_const_iterator@V?$_Vector_val@UForceInfo@@V?$allocator@UForceInfo@@@std@@@std@@@std@@@?$vector@UForceInfo@@V?$allocator@UForceInfo@@@std@@@std@@IAEPAUForceInfo@@V?$_Vector_const_iterator@V?$_Vector_val@UForceInfo@@V?$allocator@UForceInfo@@@std@@@std@@@1@0PAU2@@Z
_TEXT	SEGMENT
__First$ = 8						; size = 4
__Last$ = 12						; size = 4
__Cat$512833 = 16					; size = 1
__Ptr$ = 16						; size = 4
??$_Ucopy@V?$_Vector_const_iterator@V?$_Vector_val@UForceInfo@@V?$allocator@UForceInfo@@@std@@@std@@@std@@@?$vector@UForceInfo@@V?$allocator@UForceInfo@@@std@@@std@@IAEPAUForceInfo@@V?$_Vector_const_iterator@V?$_Vector_val@UForceInfo@@V?$allocator@UForceInfo@@@std@@@std@@@1@0PAU2@@Z PROC ; std::vector<ForceInfo,std::allocator<ForceInfo> >::_Ucopy<std::_Vector_const_iterator<std::_Vector_val<ForceInfo,std::allocator<ForceInfo> > > >, COMDAT
; _this$ = ecx

; 1315 : 		pointer _Ucopy(_Iter _First, _Iter _Last, pointer _Ptr)

  00000	55		 push	 ebp
  00001	8b ec		 mov	 ebp, esp

; 1316 : 		{	// copy initializing [_First, _Last), using allocator
; 1317 : 		return (_Uninitialized_copy(_First, _Last,
; 1318 : 			_Ptr, this->_Alval));

  00003	ff 75 10	 push	 DWORD PTR __Cat$512833[ebp]
  00006	83 c1 0c	 add	 ecx, 12			; 0000000cH
  00009	51		 push	 ecx
  0000a	ff 75 10	 push	 DWORD PTR __Ptr$[ebp]
  0000d	ff 75 0c	 push	 DWORD PTR __Last$[ebp]
  00010	ff 75 08	 push	 DWORD PTR __First$[ebp]
  00013	e8 00 00 00 00	 call	 ??$_Uninit_copy@V?$_Vector_const_iterator@V?$_Vector_val@UForceInfo@@V?$allocator@UForceInfo@@@std@@@std@@@std@@PAUForceInfo@@V?$allocator@UForceInfo@@@2@@std@@YAPAUForceInfo@@V?$_Vector_const_iterator@V?$_Vector_val@UForceInfo@@V?$allocator@UForceInfo@@@std@@@std@@@0@0PAU1@AAV?$allocator@UForceInfo@@@0@U_Nonscalar_ptr_iterator_tag@0@@Z ; std::_Uninit_copy<std::_Vector_const_iterator<std::_Vector_val<ForceInfo,std::allocator<ForceInfo> > >,ForceInfo *,std::allocator<ForceInfo> >
  00018	83 c4 14	 add	 esp, 20			; 00000014H

; 1319 : 		}

  0001b	5d		 pop	 ebp
  0001c	c2 0c 00	 ret	 12			; 0000000cH
??$_Ucopy@V?$_Vector_const_iterator@V?$_Vector_val@UForceInfo@@V?$allocator@UForceInfo@@@std@@@std@@@std@@@?$vector@UForceInfo@@V?$allocator@UForceInfo@@@std@@@std@@IAEPAUForceInfo@@V?$_Vector_const_iterator@V?$_Vector_val@UForceInfo@@V?$allocator@UForceInfo@@@std@@@std@@@1@0PAU2@@Z ENDP ; std::vector<ForceInfo,std::allocator<ForceInfo> >::_Ucopy<std::_Vector_const_iterator<std::_Vector_val<ForceInfo,std::allocator<ForceInfo> > > >
_TEXT	ENDS
PUBLIC	??$_Uninitialized_copy@V?$_Vector_const_iterator@V?$_Vector_val@UWeaponInfo@@V?$allocator@UWeaponInfo@@@std@@@std@@@std@@PAUWeaponInfo@@V?$allocator@UWeaponInfo@@@2@@std@@YAPAUWeaponInfo@@V?$_Vector_const_iterator@V?$_Vector_val@UWeaponInfo@@V?$allocator@UWeaponInfo@@@std@@@std@@@0@0PAU1@AAV?$allocator@UWeaponInfo@@@0@@Z ; std::_Uninitialized_copy<std::_Vector_const_iterator<std::_Vector_val<WeaponInfo,std::allocator<WeaponInfo> > >,WeaponInfo *,std::allocator<WeaponInfo> >
; Function compile flags: /Ogsp
; File c:\program files (x86)\microsoft visual studio 10.0\vc\include\memory
;	COMDAT ??$_Uninitialized_copy@V?$_Vector_const_iterator@V?$_Vector_val@UWeaponInfo@@V?$allocator@UWeaponInfo@@@std@@@std@@@std@@PAUWeaponInfo@@V?$allocator@UWeaponInfo@@@2@@std@@YAPAUWeaponInfo@@V?$_Vector_const_iterator@V?$_Vector_val@UWeaponInfo@@V?$allocator@UWeaponInfo@@@std@@@std@@@0@0PAU1@AAV?$allocator@UWeaponInfo@@@0@@Z
_TEXT	SEGMENT
__Cat$512842 = -4					; size = 1
__First$ = 8						; size = 4
__Last$ = 12						; size = 4
__Dest$ = 16						; size = 4
__Al$ = 20						; size = 4
??$_Uninitialized_copy@V?$_Vector_const_iterator@V?$_Vector_val@UWeaponInfo@@V?$allocator@UWeaponInfo@@@std@@@std@@@std@@PAUWeaponInfo@@V?$allocator@UWeaponInfo@@@2@@std@@YAPAUWeaponInfo@@V?$_Vector_const_iterator@V?$_Vector_val@UWeaponInfo@@V?$allocator@UWeaponInfo@@@std@@@std@@@0@0PAU1@AAV?$allocator@UWeaponInfo@@@0@@Z PROC ; std::_Uninitialized_copy<std::_Vector_const_iterator<std::_Vector_val<WeaponInfo,std::allocator<WeaponInfo> > >,WeaponInfo *,std::allocator<WeaponInfo> >, COMDAT

; 412  : 	{	// copy [_First, _Last) to raw _Dest, using _Al

  00000	55		 push	 ebp
  00001	8b ec		 mov	 ebp, esp
  00003	51		 push	 ecx

; 413  : 	return (_Uninit_copy(_First, _Last, _Dest, _Al,
; 414  : 		_Ptr_cat(_First, _Dest)));

  00004	ff 75 fc	 push	 DWORD PTR __Cat$512842[ebp]
  00007	ff 75 14	 push	 DWORD PTR __Al$[ebp]
  0000a	ff 75 10	 push	 DWORD PTR __Dest$[ebp]
  0000d	ff 75 0c	 push	 DWORD PTR __Last$[ebp]
  00010	ff 75 08	 push	 DWORD PTR __First$[ebp]
  00013	e8 00 00 00 00	 call	 ??$_Uninit_copy@V?$_Vector_const_iterator@V?$_Vector_val@UWeaponInfo@@V?$allocator@UWeaponInfo@@@std@@@std@@@std@@PAUWeaponInfo@@V?$allocator@UWeaponInfo@@@2@@std@@YAPAUWeaponInfo@@V?$_Vector_const_iterator@V?$_Vector_val@UWeaponInfo@@V?$allocator@UWeaponInfo@@@std@@@std@@@0@0PAU1@AAV?$allocator@UWeaponInfo@@@0@U_Nonscalar_ptr_iterator_tag@0@@Z ; std::_Uninit_copy<std::_Vector_const_iterator<std::_Vector_val<WeaponInfo,std::allocator<WeaponInfo> > >,WeaponInfo *,std::allocator<WeaponInfo> >
  00018	83 c4 14	 add	 esp, 20			; 00000014H

; 415  : 	}

  0001b	c9		 leave
  0001c	c3		 ret	 0
??$_Uninitialized_copy@V?$_Vector_const_iterator@V?$_Vector_val@UWeaponInfo@@V?$allocator@UWeaponInfo@@@std@@@std@@@std@@PAUWeaponInfo@@V?$allocator@UWeaponInfo@@@2@@std@@YAPAUWeaponInfo@@V?$_Vector_const_iterator@V?$_Vector_val@UWeaponInfo@@V?$allocator@UWeaponInfo@@@std@@@std@@@0@0PAU1@AAV?$allocator@UWeaponInfo@@@0@@Z ENDP ; std::_Uninitialized_copy<std::_Vector_const_iterator<std::_Vector_val<WeaponInfo,std::allocator<WeaponInfo> > >,WeaponInfo *,std::allocator<WeaponInfo> >
_TEXT	ENDS
PUBLIC	?_Destroy@?$vector@UForceInfo@@V?$allocator@UForceInfo@@@std@@@std@@IAEXPAUForceInfo@@0@Z ; std::vector<ForceInfo,std::allocator<ForceInfo> >::_Destroy
; Function compile flags: /Ogsp
; File c:\program files (x86)\microsoft visual studio 10.0\vc\include\vector
;	COMDAT ?_Destroy@?$vector@UForceInfo@@V?$allocator@UForceInfo@@@std@@@std@@IAEXPAUForceInfo@@0@Z
_TEXT	SEGMENT
__First$ = 8						; size = 4
__Last$ = 12						; size = 4
?_Destroy@?$vector@UForceInfo@@V?$allocator@UForceInfo@@@std@@@std@@IAEXPAUForceInfo@@0@Z PROC ; std::vector<ForceInfo,std::allocator<ForceInfo> >::_Destroy, COMDAT
; _this$ = ecx

; 1270 : 		_Destroy_range(_First, _Last, this->_Alval);
; 1271 : 		}

  00000	c2 08 00	 ret	 8
?_Destroy@?$vector@UForceInfo@@V?$allocator@UForceInfo@@@std@@@std@@IAEXPAUForceInfo@@0@Z ENDP ; std::vector<ForceInfo,std::allocator<ForceInfo> >::_Destroy
_TEXT	ENDS
PUBLIC	??$_Destroy_range@V?$allocator@UWeaponInfo@@@std@@@std@@YAXPAUWeaponInfo@@0AAV?$allocator@UWeaponInfo@@@0@@Z ; std::_Destroy_range<std::allocator<WeaponInfo> >
; Function compile flags: /Ogsp
; File c:\program files (x86)\microsoft visual studio 10.0\vc\include\xmemory
;	COMDAT ??$_Destroy_range@V?$allocator@UWeaponInfo@@@std@@@std@@YAXPAUWeaponInfo@@0AAV?$allocator@UWeaponInfo@@@0@@Z
_TEXT	SEGMENT
__First$ = 8						; size = 4
__Last$ = 12						; size = 4
__Al$ = 16						; size = 4
??$_Destroy_range@V?$allocator@UWeaponInfo@@@std@@@std@@YAXPAUWeaponInfo@@0AAV?$allocator@UWeaponInfo@@@0@@Z PROC ; std::_Destroy_range<std::allocator<WeaponInfo> >, COMDAT

; 87   : 	{	// destroy [_First, _Last)

  00000	55		 push	 ebp
  00001	8b ec		 mov	 ebp, esp
  00003	56		 push	 esi

; 88   : 	_Destroy_range(_First, _Last, _Al, _Ptr_cat(_First, _Last));

  00004	8b 75 08	 mov	 esi, DWORD PTR __First$[ebp]
  00007	eb 0c		 jmp	 SHORT $LN24@Destroy_ra@2
$LL7@Destroy_ra@2:
  00009	8d 4e 08	 lea	 ecx, DWORD PTR [esi+8]
  0000c	ff 15 00 00 00
	00		 call	 DWORD PTR __imp_??1ioHashString@@QAE@XZ
  00012	83 c6 28	 add	 esi, 40			; 00000028H
$LN24@Destroy_ra@2:
  00015	3b 75 0c	 cmp	 esi, DWORD PTR __Last$[ebp]
  00018	75 ef		 jne	 SHORT $LL7@Destroy_ra@2
  0001a	5e		 pop	 esi

; 89   : 	}

  0001b	5d		 pop	 ebp
  0001c	c3		 ret	 0
??$_Destroy_range@V?$allocator@UWeaponInfo@@@std@@@std@@YAXPAUWeaponInfo@@0AAV?$allocator@UWeaponInfo@@@0@@Z ENDP ; std::_Destroy_range<std::allocator<WeaponInfo> >
_TEXT	ENDS
PUBLIC	?erase@?$vector@UForceInfo@@V?$allocator@UForceInfo@@@std@@@std@@QAE?AV?$_Vector_iterator@V?$_Vector_val@UForceInfo@@V?$allocator@UForceInfo@@@std@@@std@@@2@V?$_Vector_const_iterator@V?$_Vector_val@UForceInfo@@V?$allocator@UForceInfo@@@std@@@std@@@2@0@Z ; std::vector<ForceInfo,std::allocator<ForceInfo> >::erase
; Function compile flags: /Ogsp
; File c:\program files (x86)\microsoft visual studio 10.0\vc\include\vector
;	COMDAT ?erase@?$vector@UForceInfo@@V?$allocator@UForceInfo@@@std@@@std@@QAE?AV?$_Vector_iterator@V?$_Vector_val@UForceInfo@@V?$allocator@UForceInfo@@@std@@@std@@@2@V?$_Vector_const_iterator@V?$_Vector_val@UForceInfo@@V?$allocator@UForceInfo@@@std@@@std@@@2@0@Z
_TEXT	SEGMENT
___$ReturnUdt$ = 8					; size = 4
__First_arg$ = 12					; size = 4
__Cat$513043 = 16					; size = 1
__Last_arg$ = 16					; size = 4
?erase@?$vector@UForceInfo@@V?$allocator@UForceInfo@@@std@@@std@@QAE?AV?$_Vector_iterator@V?$_Vector_val@UForceInfo@@V?$allocator@UForceInfo@@@std@@@std@@@2@V?$_Vector_const_iterator@V?$_Vector_val@UForceInfo@@V?$allocator@UForceInfo@@@std@@@std@@@2@0@Z PROC ; std::vector<ForceInfo,std::allocator<ForceInfo> >::erase, COMDAT
; _this$ = ecx

; 1190 : 		{	// erase [_First, _Last)

  00000	55		 push	 ebp
  00001	8b ec		 mov	 ebp, esp

; 1191 : 		iterator _First = _Make_iter(_First_arg);

  00003	8b 45 0c	 mov	 eax, DWORD PTR __First_arg$[ebp]
  00006	56		 push	 esi
  00007	57		 push	 edi
  00008	8b 7d 08	 mov	 edi, DWORD PTR ___$ReturnUdt$[ebp]
  0000b	8b f1		 mov	 esi, ecx
  0000d	89 07		 mov	 DWORD PTR [edi], eax

; 1192 : 		iterator _Last = _Make_iter(_Last_arg);
; 1193 : 
; 1194 : 		if (_First != _Last)

  0000f	3b 45 10	 cmp	 eax, DWORD PTR __Last_arg$[ebp]
  00012	74 16		 je	 SHORT $LN1@erase

; 1195 : 			{	// worth doing, copy down over hole
; 1196 :  #if _ITERATOR_DEBUG_LEVEL == 2
; 1197 : 			if (_Last < _First || _VICONT(_First) != this
; 1198 : 				|| _VIPTR(_First) < this->_Myfirst
; 1199 : 				|| this->_Mylast < _VIPTR(_Last))
; 1200 : 				_DEBUG_ERROR("vector erase iterator outside range");
; 1201 : 			pointer _Ptr = _Move(_VIPTR(_Last), this->_Mylast,
; 1202 : 				_VIPTR(_First));
; 1203 : 			_Orphan_range(_VIPTR(_First), this->_Mylast);
; 1204 : 
; 1205 :  #else /* _ITERATOR_DEBUG_LEVEL == 2 */
; 1206 : 			pointer _Ptr = _Move(_VIPTR(_Last), this->_Mylast,
; 1207 : 				_VIPTR(_First));

  00014	ff 75 10	 push	 DWORD PTR __Cat$513043[ebp]
  00017	8b 4e 04	 mov	 ecx, DWORD PTR [esi+4]
  0001a	50		 push	 eax
  0001b	51		 push	 ecx
  0001c	ff 75 10	 push	 DWORD PTR __Last_arg$[ebp]
  0001f	e8 00 00 00 00	 call	 ??$_Move@PAUForceInfo@@PAU1@@std@@YAPAUForceInfo@@PAU1@00U_Nonscalar_ptr_iterator_tag@0@@Z ; std::_Move<ForceInfo *,ForceInfo *>
  00024	83 c4 10	 add	 esp, 16			; 00000010H

; 1208 :  #endif /* _ITERATOR_DEBUG_LEVEL == 2 */
; 1209 : 
; 1210 : 			_Destroy(_Ptr, this->_Mylast);
; 1211 : 			this->_Mylast = _Ptr;

  00027	89 46 04	 mov	 DWORD PTR [esi+4], eax
$LN1@erase:

; 1212 : 			}
; 1213 : 		return (_First);

  0002a	8b c7		 mov	 eax, edi
  0002c	5f		 pop	 edi
  0002d	5e		 pop	 esi

; 1214 : 		}

  0002e	5d		 pop	 ebp
  0002f	c2 0c 00	 ret	 12			; 0000000cH
?erase@?$vector@UForceInfo@@V?$allocator@UForceInfo@@@std@@@std@@QAE?AV?$_Vector_iterator@V?$_Vector_val@UForceInfo@@V?$allocator@UForceInfo@@@std@@@std@@@2@V?$_Vector_const_iterator@V?$_Vector_val@UForceInfo@@V?$allocator@UForceInfo@@@std@@@std@@@2@0@Z ENDP ; std::vector<ForceInfo,std::allocator<ForceInfo> >::erase
_TEXT	ENDS
PUBLIC	??$_Ucopy@PAUWeaponInfo@@@?$vector@UWeaponInfo@@V?$allocator@UWeaponInfo@@@std@@@std@@IAEPAUWeaponInfo@@PAU2@00@Z ; std::vector<WeaponInfo,std::allocator<WeaponInfo> >::_Ucopy<WeaponInfo *>
; Function compile flags: /Ogsp
;	COMDAT ??$_Ucopy@PAUWeaponInfo@@@?$vector@UWeaponInfo@@V?$allocator@UWeaponInfo@@@std@@@std@@IAEPAUWeaponInfo@@PAU2@00@Z
_TEXT	SEGMENT
__First$ = 8						; size = 4
__Last$ = 12						; size = 4
__Cat$513133 = 16					; size = 1
__Ptr$ = 16						; size = 4
??$_Ucopy@PAUWeaponInfo@@@?$vector@UWeaponInfo@@V?$allocator@UWeaponInfo@@@std@@@std@@IAEPAUWeaponInfo@@PAU2@00@Z PROC ; std::vector<WeaponInfo,std::allocator<WeaponInfo> >::_Ucopy<WeaponInfo *>, COMDAT
; _this$ = ecx

; 1315 : 		pointer _Ucopy(_Iter _First, _Iter _Last, pointer _Ptr)

  00000	55		 push	 ebp
  00001	8b ec		 mov	 ebp, esp

; 1316 : 		{	// copy initializing [_First, _Last), using allocator
; 1317 : 		return (_Uninitialized_copy(_First, _Last,
; 1318 : 			_Ptr, this->_Alval));

  00003	ff 75 10	 push	 DWORD PTR __Cat$513133[ebp]
  00006	83 c1 0c	 add	 ecx, 12			; 0000000cH
  00009	51		 push	 ecx
  0000a	ff 75 10	 push	 DWORD PTR __Ptr$[ebp]
  0000d	ff 75 0c	 push	 DWORD PTR __Last$[ebp]
  00010	ff 75 08	 push	 DWORD PTR __First$[ebp]
  00013	e8 00 00 00 00	 call	 ??$_Uninit_copy@PAUWeaponInfo@@PAU1@V?$allocator@UWeaponInfo@@@std@@@std@@YAPAUWeaponInfo@@PAU1@00AAV?$allocator@UWeaponInfo@@@0@U_Nonscalar_ptr_iterator_tag@0@@Z ; std::_Uninit_copy<WeaponInfo *,WeaponInfo *,std::allocator<WeaponInfo> >
  00018	83 c4 14	 add	 esp, 20			; 00000014H

; 1319 : 		}

  0001b	5d		 pop	 ebp
  0001c	c2 0c 00	 ret	 12			; 0000000cH
??$_Ucopy@PAUWeaponInfo@@@?$vector@UWeaponInfo@@V?$allocator@UWeaponInfo@@@std@@@std@@IAEPAUWeaponInfo@@PAU2@00@Z ENDP ; std::vector<WeaponInfo,std::allocator<WeaponInfo> >::_Ucopy<WeaponInfo *>
_TEXT	ENDS
PUBLIC	??$_Ucopy@V?$_Vector_const_iterator@V?$_Vector_val@UWeaponInfo@@V?$allocator@UWeaponInfo@@@std@@@std@@@std@@@?$vector@UWeaponInfo@@V?$allocator@UWeaponInfo@@@std@@@std@@IAEPAUWeaponInfo@@V?$_Vector_const_iterator@V?$_Vector_val@UWeaponInfo@@V?$allocator@UWeaponInfo@@@std@@@std@@@1@0PAU2@@Z ; std::vector<WeaponInfo,std::allocator<WeaponInfo> >::_Ucopy<std::_Vector_const_iterator<std::_Vector_val<WeaponInfo,std::allocator<WeaponInfo> > > >
; Function compile flags: /Ogsp
;	COMDAT ??$_Ucopy@V?$_Vector_const_iterator@V?$_Vector_val@UWeaponInfo@@V?$allocator@UWeaponInfo@@@std@@@std@@@std@@@?$vector@UWeaponInfo@@V?$allocator@UWeaponInfo@@@std@@@std@@IAEPAUWeaponInfo@@V?$_Vector_const_iterator@V?$_Vector_val@UWeaponInfo@@V?$allocator@UWeaponInfo@@@std@@@std@@@1@0PAU2@@Z
_TEXT	SEGMENT
__First$ = 8						; size = 4
__Last$ = 12						; size = 4
__Cat$513147 = 16					; size = 1
__Ptr$ = 16						; size = 4
??$_Ucopy@V?$_Vector_const_iterator@V?$_Vector_val@UWeaponInfo@@V?$allocator@UWeaponInfo@@@std@@@std@@@std@@@?$vector@UWeaponInfo@@V?$allocator@UWeaponInfo@@@std@@@std@@IAEPAUWeaponInfo@@V?$_Vector_const_iterator@V?$_Vector_val@UWeaponInfo@@V?$allocator@UWeaponInfo@@@std@@@std@@@1@0PAU2@@Z PROC ; std::vector<WeaponInfo,std::allocator<WeaponInfo> >::_Ucopy<std::_Vector_const_iterator<std::_Vector_val<WeaponInfo,std::allocator<WeaponInfo> > > >, COMDAT
; _this$ = ecx

; 1315 : 		pointer _Ucopy(_Iter _First, _Iter _Last, pointer _Ptr)

  00000	55		 push	 ebp
  00001	8b ec		 mov	 ebp, esp

; 1316 : 		{	// copy initializing [_First, _Last), using allocator
; 1317 : 		return (_Uninitialized_copy(_First, _Last,
; 1318 : 			_Ptr, this->_Alval));

  00003	ff 75 10	 push	 DWORD PTR __Cat$513147[ebp]
  00006	83 c1 0c	 add	 ecx, 12			; 0000000cH
  00009	51		 push	 ecx
  0000a	ff 75 10	 push	 DWORD PTR __Ptr$[ebp]
  0000d	ff 75 0c	 push	 DWORD PTR __Last$[ebp]
  00010	ff 75 08	 push	 DWORD PTR __First$[ebp]
  00013	e8 00 00 00 00	 call	 ??$_Uninit_copy@V?$_Vector_const_iterator@V?$_Vector_val@UWeaponInfo@@V?$allocator@UWeaponInfo@@@std@@@std@@@std@@PAUWeaponInfo@@V?$allocator@UWeaponInfo@@@2@@std@@YAPAUWeaponInfo@@V?$_Vector_const_iterator@V?$_Vector_val@UWeaponInfo@@V?$allocator@UWeaponInfo@@@std@@@std@@@0@0PAU1@AAV?$allocator@UWeaponInfo@@@0@U_Nonscalar_ptr_iterator_tag@0@@Z ; std::_Uninit_copy<std::_Vector_const_iterator<std::_Vector_val<WeaponInfo,std::allocator<WeaponInfo> > >,WeaponInfo *,std::allocator<WeaponInfo> >
  00018	83 c4 14	 add	 esp, 20			; 00000014H

; 1319 : 		}

  0001b	5d		 pop	 ebp
  0001c	c2 0c 00	 ret	 12			; 0000000cH
??$_Ucopy@V?$_Vector_const_iterator@V?$_Vector_val@UWeaponInfo@@V?$allocator@UWeaponInfo@@@std@@@std@@@std@@@?$vector@UWeaponInfo@@V?$allocator@UWeaponInfo@@@std@@@std@@IAEPAUWeaponInfo@@V?$_Vector_const_iterator@V?$_Vector_val@UWeaponInfo@@V?$allocator@UWeaponInfo@@@std@@@std@@@1@0PAU2@@Z ENDP ; std::vector<WeaponInfo,std::allocator<WeaponInfo> >::_Ucopy<std::_Vector_const_iterator<std::_Vector_val<WeaponInfo,std::allocator<WeaponInfo> > > >
_TEXT	ENDS
PUBLIC	?_Tidy@?$vector@UForceInfo@@V?$allocator@UForceInfo@@@std@@@std@@IAEXXZ ; std::vector<ForceInfo,std::allocator<ForceInfo> >::_Tidy
EXTRN	__imp_?_Orphan_all@_Container_base0@std@@QAEXXZ:PROC
; Function compile flags: /Ogsp
;	COMDAT ?_Tidy@?$vector@UForceInfo@@V?$allocator@UForceInfo@@@std@@@std@@IAEXXZ
_TEXT	SEGMENT
?_Tidy@?$vector@UForceInfo@@V?$allocator@UForceInfo@@@std@@@std@@IAEXXZ PROC ; std::vector<ForceInfo,std::allocator<ForceInfo> >::_Tidy, COMDAT
; _this$ = ecx

; 1301 : 		{	// free all storage

  00000	56		 push	 esi
  00001	8b f1		 mov	 esi, ecx

; 1302 : 		if (this->_Myfirst != 0)

  00003	83 3e 00	 cmp	 DWORD PTR [esi], 0
  00006	74 0e		 je	 SHORT $LN21@Tidy

; 1303 : 			{	// something to free, destroy and deallocate it
; 1304 : 			this->_Orphan_all();

  00008	ff 15 00 00 00
	00		 call	 DWORD PTR __imp_?_Orphan_all@_Container_base0@std@@QAEXXZ

; 1305 : 			_Destroy(this->_Myfirst, this->_Mylast);
; 1306 : 			this->_Alval.deallocate(this->_Myfirst,
; 1307 : 				this->_Myend - this->_Myfirst);

  0000e	ff 36		 push	 DWORD PTR [esi]
  00010	e8 00 00 00 00	 call	 ??3@YAXPAX@Z		; operator delete
  00015	59		 pop	 ecx
$LN21@Tidy:

; 1308 : 			}
; 1309 : 		this->_Myfirst = 0;

  00016	83 26 00	 and	 DWORD PTR [esi], 0

; 1310 : 		this->_Mylast = 0;

  00019	83 66 04 00	 and	 DWORD PTR [esi+4], 0

; 1311 : 		this->_Myend = 0;

  0001d	83 66 08 00	 and	 DWORD PTR [esi+8], 0
  00021	5e		 pop	 esi

; 1312 : 		}

  00022	c3		 ret	 0
?_Tidy@?$vector@UForceInfo@@V?$allocator@UForceInfo@@@std@@@std@@IAEXXZ ENDP ; std::vector<ForceInfo,std::allocator<ForceInfo> >::_Tidy
_TEXT	ENDS
PUBLIC	?_Destroy@?$vector@UWeaponInfo@@V?$allocator@UWeaponInfo@@@std@@@std@@IAEXPAUWeaponInfo@@0@Z ; std::vector<WeaponInfo,std::allocator<WeaponInfo> >::_Destroy
; Function compile flags: /Ogsp
;	COMDAT ?_Destroy@?$vector@UWeaponInfo@@V?$allocator@UWeaponInfo@@@std@@@std@@IAEXPAUWeaponInfo@@0@Z
_TEXT	SEGMENT
__First$ = 8						; size = 4
__Last$ = 12						; size = 4
?_Destroy@?$vector@UWeaponInfo@@V?$allocator@UWeaponInfo@@@std@@@std@@IAEXPAUWeaponInfo@@0@Z PROC ; std::vector<WeaponInfo,std::allocator<WeaponInfo> >::_Destroy, COMDAT
; _this$ = ecx

; 1269 : 		{	// destroy [_First, _Last) using allocator

  00000	55		 push	 ebp
  00001	8b ec		 mov	 ebp, esp

; 1270 : 		_Destroy_range(_First, _Last, this->_Alval);

  00003	83 c1 0c	 add	 ecx, 12			; 0000000cH
  00006	51		 push	 ecx
  00007	ff 75 0c	 push	 DWORD PTR __Last$[ebp]
  0000a	ff 75 08	 push	 DWORD PTR __First$[ebp]
  0000d	e8 00 00 00 00	 call	 ??$_Destroy_range@V?$allocator@UWeaponInfo@@@std@@@std@@YAXPAUWeaponInfo@@0AAV?$allocator@UWeaponInfo@@@0@@Z ; std::_Destroy_range<std::allocator<WeaponInfo> >
  00012	83 c4 0c	 add	 esp, 12			; 0000000cH

; 1271 : 		}

  00015	5d		 pop	 ebp
  00016	c2 08 00	 ret	 8
?_Destroy@?$vector@UWeaponInfo@@V?$allocator@UWeaponInfo@@@std@@@std@@IAEXPAUWeaponInfo@@0@Z ENDP ; std::vector<WeaponInfo,std::allocator<WeaponInfo> >::_Destroy
_TEXT	ENDS
PUBLIC	?clear@?$vector@UForceInfo@@V?$allocator@UForceInfo@@@std@@@std@@QAEXXZ ; std::vector<ForceInfo,std::allocator<ForceInfo> >::clear
; Function compile flags: /Ogsp
;	COMDAT ?clear@?$vector@UForceInfo@@V?$allocator@UForceInfo@@@std@@@std@@QAEXXZ
_TEXT	SEGMENT
$T513240 = -4						; size = 4
?clear@?$vector@UForceInfo@@V?$allocator@UForceInfo@@@std@@@std@@QAEXXZ PROC ; std::vector<ForceInfo,std::allocator<ForceInfo> >::clear, COMDAT
; _this$ = ecx

; 1217 : 		{	// erase all

  00000	55		 push	 ebp
  00001	8b ec		 mov	 ebp, esp
  00003	51		 push	 ecx

; 1218 : 		erase(begin(), end());

  00004	8b 41 04	 mov	 eax, DWORD PTR [ecx+4]
  00007	8b 11		 mov	 edx, DWORD PTR [ecx]
  00009	50		 push	 eax
  0000a	52		 push	 edx
  0000b	8d 45 fc	 lea	 eax, DWORD PTR $T513240[ebp]
  0000e	50		 push	 eax
  0000f	e8 00 00 00 00	 call	 ?erase@?$vector@UForceInfo@@V?$allocator@UForceInfo@@@std@@@std@@QAE?AV?$_Vector_iterator@V?$_Vector_val@UForceInfo@@V?$allocator@UForceInfo@@@std@@@std@@@2@V?$_Vector_const_iterator@V?$_Vector_val@UForceInfo@@V?$allocator@UForceInfo@@@std@@@std@@@2@0@Z ; std::vector<ForceInfo,std::allocator<ForceInfo> >::erase

; 1219 : 		}

  00014	c9		 leave
  00015	c3		 ret	 0
?clear@?$vector@UForceInfo@@V?$allocator@UForceInfo@@@std@@@std@@QAEXXZ ENDP ; std::vector<ForceInfo,std::allocator<ForceInfo> >::clear
_TEXT	ENDS
PUBLIC	?erase@?$vector@UWeaponInfo@@V?$allocator@UWeaponInfo@@@std@@@std@@QAE?AV?$_Vector_iterator@V?$_Vector_val@UWeaponInfo@@V?$allocator@UWeaponInfo@@@std@@@std@@@2@V?$_Vector_const_iterator@V?$_Vector_val@UWeaponInfo@@V?$allocator@UWeaponInfo@@@std@@@std@@@2@0@Z ; std::vector<WeaponInfo,std::allocator<WeaponInfo> >::erase
; Function compile flags: /Ogsp
;	COMDAT ?erase@?$vector@UWeaponInfo@@V?$allocator@UWeaponInfo@@@std@@@std@@QAE?AV?$_Vector_iterator@V?$_Vector_val@UWeaponInfo@@V?$allocator@UWeaponInfo@@@std@@@std@@@2@V?$_Vector_const_iterator@V?$_Vector_val@UWeaponInfo@@V?$allocator@UWeaponInfo@@@std@@@std@@@2@0@Z
_TEXT	SEGMENT
___$ReturnUdt$ = 8					; size = 4
__First_arg$ = 12					; size = 4
__Cat$513366 = 16					; size = 1
__Last_arg$ = 16					; size = 4
?erase@?$vector@UWeaponInfo@@V?$allocator@UWeaponInfo@@@std@@@std@@QAE?AV?$_Vector_iterator@V?$_Vector_val@UWeaponInfo@@V?$allocator@UWeaponInfo@@@std@@@std@@@2@V?$_Vector_const_iterator@V?$_Vector_val@UWeaponInfo@@V?$allocator@UWeaponInfo@@@std@@@std@@@2@0@Z PROC ; std::vector<WeaponInfo,std::allocator<WeaponInfo> >::erase, COMDAT
; _this$ = ecx

; 1190 : 		{	// erase [_First, _Last)

  00000	55		 push	 ebp
  00001	8b ec		 mov	 ebp, esp

; 1191 : 		iterator _First = _Make_iter(_First_arg);

  00003	8b 45 0c	 mov	 eax, DWORD PTR __First_arg$[ebp]
  00006	53		 push	 ebx
  00007	8b 5d 08	 mov	 ebx, DWORD PTR ___$ReturnUdt$[ebp]
  0000a	56		 push	 esi
  0000b	8b f1		 mov	 esi, ecx
  0000d	89 03		 mov	 DWORD PTR [ebx], eax

; 1192 : 		iterator _Last = _Make_iter(_Last_arg);
; 1193 : 
; 1194 : 		if (_First != _Last)

  0000f	3b 45 10	 cmp	 eax, DWORD PTR __Last_arg$[ebp]
  00012	74 27		 je	 SHORT $LN1@erase@2

; 1195 : 			{	// worth doing, copy down over hole
; 1196 :  #if _ITERATOR_DEBUG_LEVEL == 2
; 1197 : 			if (_Last < _First || _VICONT(_First) != this
; 1198 : 				|| _VIPTR(_First) < this->_Myfirst
; 1199 : 				|| this->_Mylast < _VIPTR(_Last))
; 1200 : 				_DEBUG_ERROR("vector erase iterator outside range");
; 1201 : 			pointer _Ptr = _Move(_VIPTR(_Last), this->_Mylast,
; 1202 : 				_VIPTR(_First));
; 1203 : 			_Orphan_range(_VIPTR(_First), this->_Mylast);
; 1204 : 
; 1205 :  #else /* _ITERATOR_DEBUG_LEVEL == 2 */
; 1206 : 			pointer _Ptr = _Move(_VIPTR(_Last), this->_Mylast,
; 1207 : 				_VIPTR(_First));

  00014	8b 4e 04	 mov	 ecx, DWORD PTR [esi+4]
  00017	57		 push	 edi
  00018	ff 75 10	 push	 DWORD PTR __Cat$513366[ebp]
  0001b	50		 push	 eax
  0001c	51		 push	 ecx
  0001d	ff 75 10	 push	 DWORD PTR __Last_arg$[ebp]
  00020	e8 00 00 00 00	 call	 ??$_Move@PAUWeaponInfo@@PAU1@@std@@YAPAUWeaponInfo@@PAU1@00U_Nonscalar_ptr_iterator_tag@0@@Z ; std::_Move<WeaponInfo *,WeaponInfo *>
  00025	8b f8		 mov	 edi, eax

; 1208 :  #endif /* _ITERATOR_DEBUG_LEVEL == 2 */
; 1209 : 
; 1210 : 			_Destroy(_Ptr, this->_Mylast);

  00027	8d 46 0c	 lea	 eax, DWORD PTR [esi+12]
  0002a	50		 push	 eax
  0002b	ff 76 04	 push	 DWORD PTR [esi+4]
  0002e	57		 push	 edi
  0002f	e8 00 00 00 00	 call	 ??$_Destroy_range@V?$allocator@UWeaponInfo@@@std@@@std@@YAXPAUWeaponInfo@@0AAV?$allocator@UWeaponInfo@@@0@@Z ; std::_Destroy_range<std::allocator<WeaponInfo> >
  00034	83 c4 1c	 add	 esp, 28			; 0000001cH

; 1211 : 			this->_Mylast = _Ptr;

  00037	89 7e 04	 mov	 DWORD PTR [esi+4], edi
  0003a	5f		 pop	 edi
$LN1@erase@2:

; 1212 : 			}
; 1213 : 		return (_First);

  0003b	5e		 pop	 esi
  0003c	8b c3		 mov	 eax, ebx
  0003e	5b		 pop	 ebx

; 1214 : 		}

  0003f	5d		 pop	 ebp
  00040	c2 0c 00	 ret	 12			; 0000000cH
?erase@?$vector@UWeaponInfo@@V?$allocator@UWeaponInfo@@@std@@@std@@QAE?AV?$_Vector_iterator@V?$_Vector_val@UWeaponInfo@@V?$allocator@UWeaponInfo@@@std@@@std@@@2@V?$_Vector_const_iterator@V?$_Vector_val@UWeaponInfo@@V?$allocator@UWeaponInfo@@@std@@@std@@@2@0@Z ENDP ; std::vector<WeaponInfo,std::allocator<WeaponInfo> >::erase
_TEXT	ENDS
PUBLIC	??0?$vector@UForceInfo@@V?$allocator@UForceInfo@@@std@@@std@@QAE@ABV01@@Z ; std::vector<ForceInfo,std::allocator<ForceInfo> >::vector<ForceInfo,std::allocator<ForceInfo> >
;	COMDAT xdata$x
; File c:\program files (x86)\microsoft visual studio 10.0\vc\include\xutility
xdata$x	SEGMENT
__catchsym$??0?$vector@UForceInfo@@V?$allocator@UForceInfo@@@std@@@std@@QAE@ABV01@@Z$2 DD 040H
	DD	00H
	DD	00H
	DD	FLAT:__catch$??0?$vector@UForceInfo@@V?$allocator@UForceInfo@@@std@@@std@@QAE@ABV01@@Z$0
__unwindtable$??0?$vector@UForceInfo@@V?$allocator@UForceInfo@@@std@@@std@@QAE@ABV01@@Z DD 0ffffffffH
	DD	00H
	DD	0ffffffffH
	DD	00H
__tryblocktable$??0?$vector@UForceInfo@@V?$allocator@UForceInfo@@@std@@@std@@QAE@ABV01@@Z DD 00H
	DD	00H
	DD	01H
	DD	01H
	DD	FLAT:__catchsym$??0?$vector@UForceInfo@@V?$allocator@UForceInfo@@@std@@@std@@QAE@ABV01@@Z$2
__ehfuncinfo$??0?$vector@UForceInfo@@V?$allocator@UForceInfo@@@std@@@std@@QAE@ABV01@@Z DD 019930522H
	DD	02H
	DD	FLAT:__unwindtable$??0?$vector@UForceInfo@@V?$allocator@UForceInfo@@@std@@@std@@QAE@ABV01@@Z
	DD	01H
	DD	FLAT:__tryblocktable$??0?$vector@UForceInfo@@V?$allocator@UForceInfo@@@std@@@std@@QAE@ABV01@@Z
	DD	2 DUP(00H)
	DD	00H
	DD	01H
; Function compile flags: /Ogsp
; File c:\program files (x86)\microsoft visual studio 10.0\vc\include\vector
xdata$x	ENDS
;	COMDAT ??0?$vector@UForceInfo@@V?$allocator@UForceInfo@@@std@@@std@@QAE@ABV01@@Z
_TEXT	SEGMENT
_this$ = -20						; size = 4
__$EHRec$ = -16						; size = 16
__Cat$513453 = 8					; size = 1
__Right$ = 8						; size = 4
??0?$vector@UForceInfo@@V?$allocator@UForceInfo@@@std@@@std@@QAE@ABV01@@Z PROC ; std::vector<ForceInfo,std::allocator<ForceInfo> >::vector<ForceInfo,std::allocator<ForceInfo> >, COMDAT
; _this$ = ecx

; 535  : 		{	// construct by copying _Right

  00000	6a 08		 push	 8
  00002	b8 00 00 00 00	 mov	 eax, __ehhandler$??0?$vector@UForceInfo@@V?$allocator@UForceInfo@@@std@@@std@@QAE@ABV01@@Z
  00007	e8 00 00 00 00	 call	 __EH_prolog3_catch
  0000c	8b f1		 mov	 esi, ecx
  0000e	89 75 ec	 mov	 DWORD PTR _this$[ebp], esi

; 536  : 		if (_Buy(_Right.size()))

  00011	8b 7d 08	 mov	 edi, DWORD PTR __Right$[ebp]
  00014	33 db		 xor	 ebx, ebx
  00016	89 1e		 mov	 DWORD PTR [esi], ebx
  00018	89 5e 04	 mov	 DWORD PTR [esi+4], ebx
  0001b	89 5e 08	 mov	 DWORD PTR [esi+8], ebx
  0001e	8b 47 04	 mov	 eax, DWORD PTR [edi+4]
  00021	2b 07		 sub	 eax, DWORD PTR [edi]
  00023	6a 0c		 push	 12			; 0000000cH
  00025	59		 pop	 ecx
  00026	99		 cdq
  00027	f7 f9		 idiv	 ecx
  00029	8b ce		 mov	 ecx, esi
  0002b	50		 push	 eax
  0002c	e8 00 00 00 00	 call	 ?_Buy@?$vector@UForceInfo@@V?$allocator@UForceInfo@@@std@@@std@@IAE_NI@Z ; std::vector<ForceInfo,std::allocator<ForceInfo> >::_Buy
  00031	84 c0		 test	 al, al
  00033	74 1f		 je	 SHORT $LN7@vector

; 537  : 			_TRY_BEGIN
; 538  : 			this->_Mylast = _Ucopy(_Right.begin(), _Right.end(),
; 539  : 				this->_Myfirst);

  00035	ff 75 08	 push	 DWORD PTR __Cat$513453[ebp]
  00038	8b 0e		 mov	 ecx, DWORD PTR [esi]
  0003a	8b 47 04	 mov	 eax, DWORD PTR [edi+4]
  0003d	8b 3f		 mov	 edi, DWORD PTR [edi]
  0003f	8d 56 0c	 lea	 edx, DWORD PTR [esi+12]
  00042	52		 push	 edx
  00043	51		 push	 ecx
  00044	50		 push	 eax
  00045	57		 push	 edi
  00046	89 5d fc	 mov	 DWORD PTR __$EHRec$[ebp+12], ebx
  00049	e8 00 00 00 00	 call	 ??$_Uninit_copy@V?$_Vector_const_iterator@V?$_Vector_val@UForceInfo@@V?$allocator@UForceInfo@@@std@@@std@@@std@@PAUForceInfo@@V?$allocator@UForceInfo@@@2@@std@@YAPAUForceInfo@@V?$_Vector_const_iterator@V?$_Vector_val@UForceInfo@@V?$allocator@UForceInfo@@@std@@@std@@@0@0PAU1@AAV?$allocator@UForceInfo@@@0@U_Nonscalar_ptr_iterator_tag@0@@Z ; std::_Uninit_copy<std::_Vector_const_iterator<std::_Vector_val<ForceInfo,std::allocator<ForceInfo> > >,ForceInfo *,std::allocator<ForceInfo> >
  0004e	83 c4 14	 add	 esp, 20			; 00000014H
  00051	89 46 04	 mov	 DWORD PTR [esi+4], eax
$LN7@vector:

; 543  : 			_CATCH_END
; 544  : 		}

  00054	8b c6		 mov	 eax, esi
  00056	e8 00 00 00 00	 call	 __EH_epilog3
  0005b	c2 04 00	 ret	 4
__catch$??0?$vector@UForceInfo@@V?$allocator@UForceInfo@@@std@@@std@@QAE@ABV01@@Z$0:

; 540  : 			_CATCH_ALL
; 541  : 			_Tidy();

  0005e	8b 4d ec	 mov	 ecx, DWORD PTR _this$[ebp]
  00061	e8 00 00 00 00	 call	 ?_Tidy@?$vector@UForceInfo@@V?$allocator@UForceInfo@@@std@@@std@@IAEXXZ ; std::vector<ForceInfo,std::allocator<ForceInfo> >::_Tidy

; 542  : 			_RERAISE;

  00066	33 db		 xor	 ebx, ebx
  00068	53		 push	 ebx
  00069	53		 push	 ebx
  0006a	e8 00 00 00 00	 call	 __CxxThrowException@8
$LN38@vector:
$LN37@vector:
  0006f	cc		 int	 3
_TEXT	ENDS
;	COMDAT text$x
text$x	SEGMENT
__ehhandler$??0?$vector@UForceInfo@@V?$allocator@UForceInfo@@@std@@@std@@QAE@ABV01@@Z:
  00000	8b 54 24 08	 mov	 edx, DWORD PTR [esp+8]
  00004	8d 42 0c	 lea	 eax, DWORD PTR [edx+12]
  00007	8b 4a e8	 mov	 ecx, DWORD PTR [edx-24]
  0000a	33 c8		 xor	 ecx, eax
  0000c	e8 00 00 00 00	 call	 @__security_check_cookie@4
  00011	b8 00 00 00 00	 mov	 eax, OFFSET __ehfuncinfo$??0?$vector@UForceInfo@@V?$allocator@UForceInfo@@@std@@@std@@QAE@ABV01@@Z
  00016	e9 00 00 00 00	 jmp	 ___CxxFrameHandler3
text$x	ENDS
??0?$vector@UForceInfo@@V?$allocator@UForceInfo@@@std@@@std@@QAE@ABV01@@Z ENDP ; std::vector<ForceInfo,std::allocator<ForceInfo> >::vector<ForceInfo,std::allocator<ForceInfo> >
PUBLIC	??1?$vector@UForceInfo@@V?$allocator@UForceInfo@@@std@@@std@@QAE@XZ ; std::vector<ForceInfo,std::allocator<ForceInfo> >::~vector<ForceInfo,std::allocator<ForceInfo> >
; Function compile flags: /Ogsp
;	COMDAT ??1?$vector@UForceInfo@@V?$allocator@UForceInfo@@@std@@@std@@QAE@XZ
_TEXT	SEGMENT
??1?$vector@UForceInfo@@V?$allocator@UForceInfo@@@std@@@std@@QAE@XZ PROC ; std::vector<ForceInfo,std::allocator<ForceInfo> >::~vector<ForceInfo,std::allocator<ForceInfo> >, COMDAT
; _this$ = ecx

; 705  : 		_Tidy();

  00000	e9 00 00 00 00	 jmp	 ?_Tidy@?$vector@UForceInfo@@V?$allocator@UForceInfo@@@std@@@std@@IAEXXZ ; std::vector<ForceInfo,std::allocator<ForceInfo> >::_Tidy
??1?$vector@UForceInfo@@V?$allocator@UForceInfo@@@std@@@std@@QAE@XZ ENDP ; std::vector<ForceInfo,std::allocator<ForceInfo> >::~vector<ForceInfo,std::allocator<ForceInfo> >
_TEXT	ENDS
PUBLIC	?_Tidy@?$vector@UWeaponInfo@@V?$allocator@UWeaponInfo@@@std@@@std@@IAEXXZ ; std::vector<WeaponInfo,std::allocator<WeaponInfo> >::_Tidy
; Function compile flags: /Ogsp
;	COMDAT ?_Tidy@?$vector@UWeaponInfo@@V?$allocator@UWeaponInfo@@@std@@@std@@IAEXXZ
_TEXT	SEGMENT
?_Tidy@?$vector@UWeaponInfo@@V?$allocator@UWeaponInfo@@@std@@@std@@IAEXXZ PROC ; std::vector<WeaponInfo,std::allocator<WeaponInfo> >::_Tidy, COMDAT
; _this$ = ecx

; 1301 : 		{	// free all storage

  00000	56		 push	 esi
  00001	8b f1		 mov	 esi, ecx

; 1302 : 		if (this->_Myfirst != 0)

  00003	83 3e 00	 cmp	 DWORD PTR [esi], 0
  00006	74 1e		 je	 SHORT $LN6@Tidy@2

; 1303 : 			{	// something to free, destroy and deallocate it
; 1304 : 			this->_Orphan_all();

  00008	ff 15 00 00 00
	00		 call	 DWORD PTR __imp_?_Orphan_all@_Container_base0@std@@QAEXXZ

; 1305 : 			_Destroy(this->_Myfirst, this->_Mylast);

  0000e	8d 46 0c	 lea	 eax, DWORD PTR [esi+12]
  00011	50		 push	 eax
  00012	ff 76 04	 push	 DWORD PTR [esi+4]
  00015	ff 36		 push	 DWORD PTR [esi]
  00017	e8 00 00 00 00	 call	 ??$_Destroy_range@V?$allocator@UWeaponInfo@@@std@@@std@@YAXPAUWeaponInfo@@0AAV?$allocator@UWeaponInfo@@@0@@Z ; std::_Destroy_range<std::allocator<WeaponInfo> >

; 1306 : 			this->_Alval.deallocate(this->_Myfirst,
; 1307 : 				this->_Myend - this->_Myfirst);

  0001c	ff 36		 push	 DWORD PTR [esi]
  0001e	e8 00 00 00 00	 call	 ??3@YAXPAX@Z		; operator delete
  00023	83 c4 10	 add	 esp, 16			; 00000010H
$LN6@Tidy@2:

; 1308 : 			}
; 1309 : 		this->_Myfirst = 0;

  00026	83 26 00	 and	 DWORD PTR [esi], 0

; 1310 : 		this->_Mylast = 0;

  00029	83 66 04 00	 and	 DWORD PTR [esi+4], 0

; 1311 : 		this->_Myend = 0;

  0002d	83 66 08 00	 and	 DWORD PTR [esi+8], 0
  00031	5e		 pop	 esi

; 1312 : 		}

  00032	c3		 ret	 0
?_Tidy@?$vector@UWeaponInfo@@V?$allocator@UWeaponInfo@@@std@@@std@@IAEXXZ ENDP ; std::vector<WeaponInfo,std::allocator<WeaponInfo> >::_Tidy
_TEXT	ENDS
PUBLIC	??4?$vector@UForceInfo@@V?$allocator@UForceInfo@@@std@@@std@@QAEAAV01@ABV01@@Z ; std::vector<ForceInfo,std::allocator<ForceInfo> >::operator=
; Function compile flags: /Ogsp
;	COMDAT ??4?$vector@UForceInfo@@V?$allocator@UForceInfo@@@std@@@std@@QAEAAV01@ABV01@@Z
_TEXT	SEGMENT
tv551 = 8						; size = 4
__Cat$513814 = 8					; size = 1
__Cat$513711 = 8					; size = 1
__Cat$513689 = 8					; size = 1
__Cat$513591 = 8					; size = 1
$T513556 = 8						; size = 4
__Right$ = 8						; size = 4
??4?$vector@UForceInfo@@V?$allocator@UForceInfo@@@std@@@std@@QAEAAV01@ABV01@@Z PROC ; std::vector<ForceInfo,std::allocator<ForceInfo> >::operator=, COMDAT
; _this$ = ecx

; 709  : 		{	// assign _Right

  00000	55		 push	 ebp
  00001	8b ec		 mov	 ebp, esp
  00003	56		 push	 esi
  00004	57		 push	 edi

; 710  : 		if (this != &_Right)

  00005	8b 7d 08	 mov	 edi, DWORD PTR __Right$[ebp]
  00008	8b f1		 mov	 esi, ecx
  0000a	3b f7		 cmp	 esi, edi
  0000c	0f 84 e2 00 00
	00		 je	 $LN1@operator

; 711  : 			{	// worth doing
; 712  : 			this->_Orphan_all();

  00012	53		 push	 ebx
  00013	ff 15 00 00 00
	00		 call	 DWORD PTR __imp_?_Orphan_all@_Container_base0@std@@QAEXXZ

; 713  : 
; 714  : 			if (_Right.size() == 0)

  00019	8b 5f 04	 mov	 ebx, DWORD PTR [edi+4]
  0001c	8b c3		 mov	 eax, ebx
  0001e	2b 07		 sub	 eax, DWORD PTR [edi]
  00020	6a 0c		 push	 12			; 0000000cH
  00022	99		 cdq
  00023	59		 pop	 ecx
  00024	f7 f9		 idiv	 ecx
  00026	89 45 08	 mov	 DWORD PTR tv551[ebp], eax
  00029	85 c0		 test	 eax, eax

; 715  : 				clear();	// new sequence empty, erase existing sequence

  0002b	8b 46 04	 mov	 eax, DWORD PTR [esi+4]
  0002e	75 14		 jne	 SHORT $LN8@operator
  00030	8b 0e		 mov	 ecx, DWORD PTR [esi]
  00032	50		 push	 eax
  00033	51		 push	 ecx
  00034	8d 45 08	 lea	 eax, DWORD PTR $T513556[ebp]
  00037	50		 push	 eax
  00038	8b ce		 mov	 ecx, esi
  0003a	e8 00 00 00 00	 call	 ?erase@?$vector@UForceInfo@@V?$allocator@UForceInfo@@@std@@@std@@QAE?AV?$_Vector_iterator@V?$_Vector_val@UForceInfo@@V?$allocator@UForceInfo@@@std@@@std@@@2@V?$_Vector_const_iterator@V?$_Vector_val@UForceInfo@@V?$allocator@UForceInfo@@@std@@@std@@@2@0@Z ; std::vector<ForceInfo,std::allocator<ForceInfo> >::erase

; 716  : 			else if (_Right.size() <= size())

  0003f	e9 af 00 00 00	 jmp	 $LN106@operator
$LN8@operator:
  00044	2b 06		 sub	 eax, DWORD PTR [esi]
  00046	6a 0c		 push	 12			; 0000000cH
  00048	99		 cdq
  00049	59		 pop	 ecx
  0004a	f7 f9		 idiv	 ecx
  0004c	8b c8		 mov	 ecx, eax
  0004e	39 4d 08	 cmp	 DWORD PTR tv551[ebp], ecx
  00051	77 22		 ja	 SHORT $LN6@operator

; 717  : 				{	// enough elements, copy new and destroy old
; 718  : 				pointer _Ptr = _STD _Copy_impl(_Right._Myfirst, _Right._Mylast,
; 719  : 					this->_Myfirst);	// copy new

  00053	ff 75 08	 push	 DWORD PTR __Cat$513591[ebp]
  00056	ff 36		 push	 DWORD PTR [esi]
  00058	53		 push	 ebx
  00059	ff 37		 push	 DWORD PTR [edi]
  0005b	e8 00 00 00 00	 call	 ??$_Copy_impl@PAUForceInfo@@PAU1@@std@@YAPAUForceInfo@@PAU1@00U_Nonscalar_ptr_iterator_tag@0@@Z ; std::_Copy_impl<ForceInfo *,ForceInfo *>

; 720  : 				_Destroy(_Ptr, this->_Mylast);	// destroy old
; 721  : 				this->_Mylast = this->_Myfirst + _Right.size();

  00060	8b 47 04	 mov	 eax, DWORD PTR [edi+4]
  00063	2b 07		 sub	 eax, DWORD PTR [edi]
  00065	83 c4 10	 add	 esp, 16			; 00000010H
  00068	99		 cdq
  00069	6a 0c		 push	 12			; 0000000cH
  0006b	59		 pop	 ecx
  0006c	f7 f9		 idiv	 ecx
  0006e	6b c0 0c	 imul	 eax, 12			; 0000000cH
  00071	03 06		 add	 eax, DWORD PTR [esi]

; 722  : 				}
; 723  : 			else if (_Right.size() <= capacity())

  00073	eb 7b		 jmp	 SHORT $LN107@operator
$LN6@operator:
  00075	8b 46 08	 mov	 eax, DWORD PTR [esi+8]
  00078	2b 06		 sub	 eax, DWORD PTR [esi]
  0007a	6a 0c		 push	 12			; 0000000cH
  0007c	99		 cdq
  0007d	5b		 pop	 ebx
  0007e	f7 fb		 idiv	 ebx
  00080	39 45 08	 cmp	 DWORD PTR tv551[ebp], eax
  00083	77 2e		 ja	 SHORT $LN4@operator

; 724  : 				{	// enough room, copy and construct new
; 725  : 				pointer _Ptr = _Right._Myfirst + size();
; 726  : 				_STD _Copy_impl(_Right._Myfirst, _Ptr, this->_Myfirst);

  00085	ff 75 08	 push	 DWORD PTR __Cat$513689[ebp]
  00088	6b c9 0c	 imul	 ecx, 12			; 0000000cH
  0008b	8b 07		 mov	 eax, DWORD PTR [edi]
  0008d	ff 36		 push	 DWORD PTR [esi]
  0008f	8d 1c 08	 lea	 ebx, DWORD PTR [eax+ecx]
  00092	53		 push	 ebx
  00093	50		 push	 eax
  00094	e8 00 00 00 00	 call	 ??$_Copy_impl@PAUForceInfo@@PAU1@@std@@YAPAUForceInfo@@PAU1@00U_Nonscalar_ptr_iterator_tag@0@@Z ; std::_Copy_impl<ForceInfo *,ForceInfo *>

; 727  : 				this->_Mylast = _Ucopy(_Ptr, _Right._Mylast, this->_Mylast);

  00099	ff 75 08	 push	 DWORD PTR __Cat$513711[ebp]
  0009c	8b 46 04	 mov	 eax, DWORD PTR [esi+4]
  0009f	8b 7f 04	 mov	 edi, DWORD PTR [edi+4]
  000a2	8d 4e 0c	 lea	 ecx, DWORD PTR [esi+12]
  000a5	51		 push	 ecx
  000a6	50		 push	 eax
  000a7	57		 push	 edi
  000a8	53		 push	 ebx
  000a9	e8 00 00 00 00	 call	 ??$_Uninit_copy@PAUForceInfo@@PAU1@V?$allocator@UForceInfo@@@std@@@std@@YAPAUForceInfo@@PAU1@00AAV?$allocator@UForceInfo@@@0@U_Nonscalar_ptr_iterator_tag@0@@Z ; std::_Uninit_copy<ForceInfo *,ForceInfo *,std::allocator<ForceInfo> >
  000ae	83 c4 24	 add	 esp, 36			; 00000024H

; 728  : 				}
; 729  : 			else

  000b1	eb 3d		 jmp	 SHORT $LN107@operator
$LN4@operator:

; 730  : 				{	// not enough room, allocate new array and construct new
; 731  : 				if (this->_Myfirst != 0)

  000b3	8b 06		 mov	 eax, DWORD PTR [esi]
  000b5	85 c0		 test	 eax, eax
  000b7	74 07		 je	 SHORT $LN92@operator

; 732  : 					{	// discard old array
; 733  : 					_Destroy(this->_Myfirst, this->_Mylast);
; 734  : 					this->_Alval.deallocate(this->_Myfirst,
; 735  : 						this->_Myend - this->_Myfirst);

  000b9	50		 push	 eax
  000ba	e8 00 00 00 00	 call	 ??3@YAXPAX@Z		; operator delete
  000bf	59		 pop	 ecx
$LN92@operator:

; 736  : 					}
; 737  : 				if (_Buy(_Right.size()))

  000c0	8b 47 04	 mov	 eax, DWORD PTR [edi+4]
  000c3	2b 07		 sub	 eax, DWORD PTR [edi]
  000c5	6a 0c		 push	 12			; 0000000cH
  000c7	59		 pop	 ecx
  000c8	99		 cdq
  000c9	f7 f9		 idiv	 ecx
  000cb	8b ce		 mov	 ecx, esi
  000cd	50		 push	 eax
  000ce	e8 00 00 00 00	 call	 ?_Buy@?$vector@UForceInfo@@V?$allocator@UForceInfo@@@std@@@std@@IAE_NI@Z ; std::vector<ForceInfo,std::allocator<ForceInfo> >::_Buy
  000d3	84 c0		 test	 al, al
  000d5	74 1c		 je	 SHORT $LN106@operator

; 738  : 					this->_Mylast = _Ucopy(_Right._Myfirst, _Right._Mylast,
; 739  : 						this->_Myfirst);

  000d7	ff 75 08	 push	 DWORD PTR __Cat$513814[ebp]
  000da	8b 06		 mov	 eax, DWORD PTR [esi]
  000dc	8b 4f 04	 mov	 ecx, DWORD PTR [edi+4]
  000df	8b 3f		 mov	 edi, DWORD PTR [edi]
  000e1	8d 56 0c	 lea	 edx, DWORD PTR [esi+12]
  000e4	52		 push	 edx
  000e5	50		 push	 eax
  000e6	51		 push	 ecx
  000e7	57		 push	 edi
  000e8	e8 00 00 00 00	 call	 ??$_Uninit_copy@PAUForceInfo@@PAU1@V?$allocator@UForceInfo@@@std@@@std@@YAPAUForceInfo@@PAU1@00AAV?$allocator@UForceInfo@@@0@U_Nonscalar_ptr_iterator_tag@0@@Z ; std::_Uninit_copy<ForceInfo *,ForceInfo *,std::allocator<ForceInfo> >
  000ed	83 c4 14	 add	 esp, 20			; 00000014H
$LN107@operator:
  000f0	89 46 04	 mov	 DWORD PTR [esi+4], eax
$LN106@operator:
  000f3	5b		 pop	 ebx
$LN1@operator:
  000f4	5f		 pop	 edi

; 740  : 				}
; 741  : 			}
; 742  : 		return (*this);

  000f5	8b c6		 mov	 eax, esi
  000f7	5e		 pop	 esi

; 743  : 		}

  000f8	5d		 pop	 ebp
  000f9	c2 04 00	 ret	 4
??4?$vector@UForceInfo@@V?$allocator@UForceInfo@@@std@@@std@@QAEAAV01@ABV01@@Z ENDP ; std::vector<ForceInfo,std::allocator<ForceInfo> >::operator=
_TEXT	ENDS
PUBLIC	?clear@?$vector@UWeaponInfo@@V?$allocator@UWeaponInfo@@@std@@@std@@QAEXXZ ; std::vector<WeaponInfo,std::allocator<WeaponInfo> >::clear
; Function compile flags: /Ogsp
;	COMDAT ?clear@?$vector@UWeaponInfo@@V?$allocator@UWeaponInfo@@@std@@@std@@QAEXXZ
_TEXT	SEGMENT
$T513831 = -4						; size = 4
?clear@?$vector@UWeaponInfo@@V?$allocator@UWeaponInfo@@@std@@@std@@QAEXXZ PROC ; std::vector<WeaponInfo,std::allocator<WeaponInfo> >::clear, COMDAT
; _this$ = ecx

; 1217 : 		{	// erase all

  00000	55		 push	 ebp
  00001	8b ec		 mov	 ebp, esp
  00003	51		 push	 ecx

; 1218 : 		erase(begin(), end());

  00004	8b 41 04	 mov	 eax, DWORD PTR [ecx+4]
  00007	8b 11		 mov	 edx, DWORD PTR [ecx]
  00009	50		 push	 eax
  0000a	52		 push	 edx
  0000b	8d 45 fc	 lea	 eax, DWORD PTR $T513831[ebp]
  0000e	50		 push	 eax
  0000f	e8 00 00 00 00	 call	 ?erase@?$vector@UWeaponInfo@@V?$allocator@UWeaponInfo@@@std@@@std@@QAE?AV?$_Vector_iterator@V?$_Vector_val@UWeaponInfo@@V?$allocator@UWeaponInfo@@@std@@@std@@@2@V?$_Vector_const_iterator@V?$_Vector_val@UWeaponInfo@@V?$allocator@UWeaponInfo@@@std@@@std@@@2@0@Z ; std::vector<WeaponInfo,std::allocator<WeaponInfo> >::erase

; 1219 : 		}

  00014	c9		 leave
  00015	c3		 ret	 0
?clear@?$vector@UWeaponInfo@@V?$allocator@UWeaponInfo@@@std@@@std@@QAEXXZ ENDP ; std::vector<WeaponInfo,std::allocator<WeaponInfo> >::clear
_TEXT	ENDS
PUBLIC	??0?$vector@UWeaponInfo@@V?$allocator@UWeaponInfo@@@std@@@std@@QAE@ABV01@@Z ; std::vector<WeaponInfo,std::allocator<WeaponInfo> >::vector<WeaponInfo,std::allocator<WeaponInfo> >
;	COMDAT xdata$x
; File c:\program files (x86)\microsoft visual studio 10.0\vc\include\xutility
xdata$x	SEGMENT
__catchsym$??0?$vector@UWeaponInfo@@V?$allocator@UWeaponInfo@@@std@@@std@@QAE@ABV01@@Z$2 DD 040H
	DD	00H
	DD	00H
	DD	FLAT:__catch$??0?$vector@UWeaponInfo@@V?$allocator@UWeaponInfo@@@std@@@std@@QAE@ABV01@@Z$0
__unwindtable$??0?$vector@UWeaponInfo@@V?$allocator@UWeaponInfo@@@std@@@std@@QAE@ABV01@@Z DD 0ffffffffH
	DD	00H
	DD	0ffffffffH
	DD	00H
__tryblocktable$??0?$vector@UWeaponInfo@@V?$allocator@UWeaponInfo@@@std@@@std@@QAE@ABV01@@Z DD 00H
	DD	00H
	DD	01H
	DD	01H
	DD	FLAT:__catchsym$??0?$vector@UWeaponInfo@@V?$allocator@UWeaponInfo@@@std@@@std@@QAE@ABV01@@Z$2
__ehfuncinfo$??0?$vector@UWeaponInfo@@V?$allocator@UWeaponInfo@@@std@@@std@@QAE@ABV01@@Z DD 019930522H
	DD	02H
	DD	FLAT:__unwindtable$??0?$vector@UWeaponInfo@@V?$allocator@UWeaponInfo@@@std@@@std@@QAE@ABV01@@Z
	DD	01H
	DD	FLAT:__tryblocktable$??0?$vector@UWeaponInfo@@V?$allocator@UWeaponInfo@@@std@@@std@@QAE@ABV01@@Z
	DD	2 DUP(00H)
	DD	00H
	DD	01H
; Function compile flags: /Ogsp
; File c:\program files (x86)\microsoft visual studio 10.0\vc\include\vector
xdata$x	ENDS
;	COMDAT ??0?$vector@UWeaponInfo@@V?$allocator@UWeaponInfo@@@std@@@std@@QAE@ABV01@@Z
_TEXT	SEGMENT
_this$ = -20						; size = 4
__$EHRec$ = -16						; size = 16
__Cat$513961 = 8					; size = 1
__Right$ = 8						; size = 4
??0?$vector@UWeaponInfo@@V?$allocator@UWeaponInfo@@@std@@@std@@QAE@ABV01@@Z PROC ; std::vector<WeaponInfo,std::allocator<WeaponInfo> >::vector<WeaponInfo,std::allocator<WeaponInfo> >, COMDAT
; _this$ = ecx

; 535  : 		{	// construct by copying _Right

  00000	6a 08		 push	 8
  00002	b8 00 00 00 00	 mov	 eax, __ehhandler$??0?$vector@UWeaponInfo@@V?$allocator@UWeaponInfo@@@std@@@std@@QAE@ABV01@@Z
  00007	e8 00 00 00 00	 call	 __EH_prolog3_catch
  0000c	8b f1		 mov	 esi, ecx
  0000e	89 75 ec	 mov	 DWORD PTR _this$[ebp], esi

; 536  : 		if (_Buy(_Right.size()))

  00011	8b 7d 08	 mov	 edi, DWORD PTR __Right$[ebp]
  00014	33 db		 xor	 ebx, ebx
  00016	89 1e		 mov	 DWORD PTR [esi], ebx
  00018	89 5e 04	 mov	 DWORD PTR [esi+4], ebx
  0001b	89 5e 08	 mov	 DWORD PTR [esi+8], ebx
  0001e	8b 47 04	 mov	 eax, DWORD PTR [edi+4]
  00021	2b 07		 sub	 eax, DWORD PTR [edi]
  00023	6a 28		 push	 40			; 00000028H
  00025	59		 pop	 ecx
  00026	99		 cdq
  00027	f7 f9		 idiv	 ecx
  00029	8b ce		 mov	 ecx, esi
  0002b	50		 push	 eax
  0002c	e8 00 00 00 00	 call	 ?_Buy@?$vector@UWeaponInfo@@V?$allocator@UWeaponInfo@@@std@@@std@@IAE_NI@Z ; std::vector<WeaponInfo,std::allocator<WeaponInfo> >::_Buy
  00031	84 c0		 test	 al, al
  00033	74 1f		 je	 SHORT $LN7@vector@2

; 537  : 			_TRY_BEGIN
; 538  : 			this->_Mylast = _Ucopy(_Right.begin(), _Right.end(),
; 539  : 				this->_Myfirst);

  00035	ff 75 08	 push	 DWORD PTR __Cat$513961[ebp]
  00038	8b 0e		 mov	 ecx, DWORD PTR [esi]
  0003a	8b 47 04	 mov	 eax, DWORD PTR [edi+4]
  0003d	8b 3f		 mov	 edi, DWORD PTR [edi]
  0003f	8d 56 0c	 lea	 edx, DWORD PTR [esi+12]
  00042	52		 push	 edx
  00043	51		 push	 ecx
  00044	50		 push	 eax
  00045	57		 push	 edi
  00046	89 5d fc	 mov	 DWORD PTR __$EHRec$[ebp+12], ebx
  00049	e8 00 00 00 00	 call	 ??$_Uninit_copy@V?$_Vector_const_iterator@V?$_Vector_val@UWeaponInfo@@V?$allocator@UWeaponInfo@@@std@@@std@@@std@@PAUWeaponInfo@@V?$allocator@UWeaponInfo@@@2@@std@@YAPAUWeaponInfo@@V?$_Vector_const_iterator@V?$_Vector_val@UWeaponInfo@@V?$allocator@UWeaponInfo@@@std@@@std@@@0@0PAU1@AAV?$allocator@UWeaponInfo@@@0@U_Nonscalar_ptr_iterator_tag@0@@Z ; std::_Uninit_copy<std::_Vector_const_iterator<std::_Vector_val<WeaponInfo,std::allocator<WeaponInfo> > >,WeaponInfo *,std::allocator<WeaponInfo> >
  0004e	83 c4 14	 add	 esp, 20			; 00000014H
  00051	89 46 04	 mov	 DWORD PTR [esi+4], eax
$LN7@vector@2:

; 543  : 			_CATCH_END
; 544  : 		}

  00054	8b c6		 mov	 eax, esi
  00056	e8 00 00 00 00	 call	 __EH_epilog3
  0005b	c2 04 00	 ret	 4
__catch$??0?$vector@UWeaponInfo@@V?$allocator@UWeaponInfo@@@std@@@std@@QAE@ABV01@@Z$0:

; 540  : 			_CATCH_ALL
; 541  : 			_Tidy();

  0005e	8b 4d ec	 mov	 ecx, DWORD PTR _this$[ebp]
  00061	e8 00 00 00 00	 call	 ?_Tidy@?$vector@UWeaponInfo@@V?$allocator@UWeaponInfo@@@std@@@std@@IAEXXZ ; std::vector<WeaponInfo,std::allocator<WeaponInfo> >::_Tidy

; 542  : 			_RERAISE;

  00066	33 db		 xor	 ebx, ebx
  00068	53		 push	 ebx
  00069	53		 push	 ebx
  0006a	e8 00 00 00 00	 call	 __CxxThrowException@8
$LN38@vector@2:
$LN37@vector@2:
  0006f	cc		 int	 3
_TEXT	ENDS
;	COMDAT text$x
text$x	SEGMENT
__ehhandler$??0?$vector@UWeaponInfo@@V?$allocator@UWeaponInfo@@@std@@@std@@QAE@ABV01@@Z:
  00000	8b 54 24 08	 mov	 edx, DWORD PTR [esp+8]
  00004	8d 42 0c	 lea	 eax, DWORD PTR [edx+12]
  00007	8b 4a e8	 mov	 ecx, DWORD PTR [edx-24]
  0000a	33 c8		 xor	 ecx, eax
  0000c	e8 00 00 00 00	 call	 @__security_check_cookie@4
  00011	b8 00 00 00 00	 mov	 eax, OFFSET __ehfuncinfo$??0?$vector@UWeaponInfo@@V?$allocator@UWeaponInfo@@@std@@@std@@QAE@ABV01@@Z
  00016	e9 00 00 00 00	 jmp	 ___CxxFrameHandler3
text$x	ENDS
??0?$vector@UWeaponInfo@@V?$allocator@UWeaponInfo@@@std@@@std@@QAE@ABV01@@Z ENDP ; std::vector<WeaponInfo,std::allocator<WeaponInfo> >::vector<WeaponInfo,std::allocator<WeaponInfo> >
PUBLIC	??1?$vector@UWeaponInfo@@V?$allocator@UWeaponInfo@@@std@@@std@@QAE@XZ ; std::vector<WeaponInfo,std::allocator<WeaponInfo> >::~vector<WeaponInfo,std::allocator<WeaponInfo> >
; Function compile flags: /Ogsp
;	COMDAT ??1?$vector@UWeaponInfo@@V?$allocator@UWeaponInfo@@@std@@@std@@QAE@XZ
_TEXT	SEGMENT
??1?$vector@UWeaponInfo@@V?$allocator@UWeaponInfo@@@std@@@std@@QAE@XZ PROC ; std::vector<WeaponInfo,std::allocator<WeaponInfo> >::~vector<WeaponInfo,std::allocator<WeaponInfo> >, COMDAT
; _this$ = ecx

; 705  : 		_Tidy();

  00000	e9 00 00 00 00	 jmp	 ?_Tidy@?$vector@UWeaponInfo@@V?$allocator@UWeaponInfo@@@std@@@std@@IAEXXZ ; std::vector<WeaponInfo,std::allocator<WeaponInfo> >::_Tidy
??1?$vector@UWeaponInfo@@V?$allocator@UWeaponInfo@@@std@@@std@@QAE@XZ ENDP ; std::vector<WeaponInfo,std::allocator<WeaponInfo> >::~vector<WeaponInfo,std::allocator<WeaponInfo> >
_TEXT	ENDS
PUBLIC	??4?$vector@UWeaponInfo@@V?$allocator@UWeaponInfo@@@std@@@std@@QAEAAV01@ABV01@@Z ; std::vector<WeaponInfo,std::allocator<WeaponInfo> >::operator=
; Function compile flags: /Ogsp
;	COMDAT ??4?$vector@UWeaponInfo@@V?$allocator@UWeaponInfo@@@std@@@std@@QAEAAV01@ABV01@@Z
_TEXT	SEGMENT
tv551 = 8						; size = 4
__Cat$514174 = 8					; size = 1
__Cat$514137 = 8					; size = 1
__Cat$514115 = 8					; size = 1
__Cat$514084 = 8					; size = 1
$T514051 = 8						; size = 4
__Right$ = 8						; size = 4
??4?$vector@UWeaponInfo@@V?$allocator@UWeaponInfo@@@std@@@std@@QAEAAV01@ABV01@@Z PROC ; std::vector<WeaponInfo,std::allocator<WeaponInfo> >::operator=, COMDAT
; _this$ = ecx

; 709  : 		{	// assign _Right

  00000	55		 push	 ebp
  00001	8b ec		 mov	 ebp, esp
  00003	56		 push	 esi
  00004	57		 push	 edi

; 710  : 		if (this != &_Right)

  00005	8b 7d 08	 mov	 edi, DWORD PTR __Right$[ebp]
  00008	8b f1		 mov	 esi, ecx
  0000a	3b f7		 cmp	 esi, edi
  0000c	0f 84 03 01 00
	00		 je	 $LN1@operator@2

; 711  : 			{	// worth doing
; 712  : 			this->_Orphan_all();

  00012	ff 15 00 00 00
	00		 call	 DWORD PTR __imp_?_Orphan_all@_Container_base0@std@@QAEXXZ

; 713  : 
; 714  : 			if (_Right.size() == 0)

  00018	8b 47 04	 mov	 eax, DWORD PTR [edi+4]
  0001b	2b 07		 sub	 eax, DWORD PTR [edi]
  0001d	6a 28		 push	 40			; 00000028H
  0001f	99		 cdq
  00020	59		 pop	 ecx
  00021	f7 f9		 idiv	 ecx
  00023	89 45 08	 mov	 DWORD PTR tv551[ebp], eax
  00026	85 c0		 test	 eax, eax

; 715  : 				clear();	// new sequence empty, erase existing sequence

  00028	8b 46 04	 mov	 eax, DWORD PTR [esi+4]
  0002b	75 14		 jne	 SHORT $LN8@operator@2
  0002d	8b 0e		 mov	 ecx, DWORD PTR [esi]
  0002f	50		 push	 eax
  00030	51		 push	 ecx
  00031	8d 45 08	 lea	 eax, DWORD PTR $T514051[ebp]
  00034	50		 push	 eax
  00035	8b ce		 mov	 ecx, esi
  00037	e8 00 00 00 00	 call	 ?erase@?$vector@UWeaponInfo@@V?$allocator@UWeaponInfo@@@std@@@std@@QAE?AV?$_Vector_iterator@V?$_Vector_val@UWeaponInfo@@V?$allocator@UWeaponInfo@@@std@@@std@@@2@V?$_Vector_const_iterator@V?$_Vector_val@UWeaponInfo@@V?$allocator@UWeaponInfo@@@std@@@std@@@2@0@Z ; std::vector<WeaponInfo,std::allocator<WeaponInfo> >::erase

; 716  : 			else if (_Right.size() <= size())

  0003c	e9 d4 00 00 00	 jmp	 $LN1@operator@2
$LN8@operator@2:
  00041	53		 push	 ebx
  00042	8b 1e		 mov	 ebx, DWORD PTR [esi]
  00044	2b c3		 sub	 eax, ebx
  00046	6a 28		 push	 40			; 00000028H
  00048	99		 cdq
  00049	59		 pop	 ecx
  0004a	f7 f9		 idiv	 ecx
  0004c	8b c8		 mov	 ecx, eax
  0004e	39 4d 08	 cmp	 DWORD PTR tv551[ebp], ecx
  00051	77 33		 ja	 SHORT $LN6@operator@2

; 717  : 				{	// enough elements, copy new and destroy old
; 718  : 				pointer _Ptr = _STD _Copy_impl(_Right._Myfirst, _Right._Mylast,
; 719  : 					this->_Myfirst);	// copy new

  00053	ff 75 08	 push	 DWORD PTR __Cat$514084[ebp]
  00056	53		 push	 ebx
  00057	ff 77 04	 push	 DWORD PTR [edi+4]
  0005a	ff 37		 push	 DWORD PTR [edi]
  0005c	e8 00 00 00 00	 call	 ??$_Copy_impl@PAUWeaponInfo@@PAU1@@std@@YAPAUWeaponInfo@@PAU1@00U_Nonscalar_ptr_iterator_tag@0@@Z ; std::_Copy_impl<WeaponInfo *,WeaponInfo *>

; 720  : 				_Destroy(_Ptr, this->_Mylast);	// destroy old

  00061	8d 4e 0c	 lea	 ecx, DWORD PTR [esi+12]
  00064	51		 push	 ecx
  00065	ff 76 04	 push	 DWORD PTR [esi+4]
  00068	50		 push	 eax
  00069	e8 00 00 00 00	 call	 ??$_Destroy_range@V?$allocator@UWeaponInfo@@@std@@@std@@YAXPAUWeaponInfo@@0AAV?$allocator@UWeaponInfo@@@0@@Z ; std::_Destroy_range<std::allocator<WeaponInfo> >

; 721  : 				this->_Mylast = this->_Myfirst + _Right.size();

  0006e	8b 47 04	 mov	 eax, DWORD PTR [edi+4]
  00071	2b 07		 sub	 eax, DWORD PTR [edi]
  00073	83 c4 1c	 add	 esp, 28			; 0000001cH
  00076	99		 cdq
  00077	6a 28		 push	 40			; 00000028H
  00079	59		 pop	 ecx
  0007a	f7 f9		 idiv	 ecx
  0007c	6b c0 28	 imul	 eax, 40			; 00000028H
  0007f	03 06		 add	 eax, DWORD PTR [esi]

; 722  : 				}
; 723  : 			else if (_Right.size() <= capacity())

  00081	e9 8b 00 00 00	 jmp	 $LN73@operator@2
$LN6@operator@2:
  00086	8b 46 08	 mov	 eax, DWORD PTR [esi+8]
  00089	2b c3		 sub	 eax, ebx
  0008b	6a 28		 push	 40			; 00000028H
  0008d	99		 cdq
  0008e	5b		 pop	 ebx
  0008f	f7 fb		 idiv	 ebx
  00091	39 45 08	 cmp	 DWORD PTR tv551[ebp], eax
  00094	77 2e		 ja	 SHORT $LN4@operator@2

; 724  : 				{	// enough room, copy and construct new
; 725  : 				pointer _Ptr = _Right._Myfirst + size();
; 726  : 				_STD _Copy_impl(_Right._Myfirst, _Ptr, this->_Myfirst);

  00096	ff 75 08	 push	 DWORD PTR __Cat$514115[ebp]
  00099	6b c9 28	 imul	 ecx, 40			; 00000028H
  0009c	8b 07		 mov	 eax, DWORD PTR [edi]
  0009e	ff 36		 push	 DWORD PTR [esi]
  000a0	8d 1c 08	 lea	 ebx, DWORD PTR [eax+ecx]
  000a3	53		 push	 ebx
  000a4	50		 push	 eax
  000a5	e8 00 00 00 00	 call	 ??$_Copy_impl@PAUWeaponInfo@@PAU1@@std@@YAPAUWeaponInfo@@PAU1@00U_Nonscalar_ptr_iterator_tag@0@@Z ; std::_Copy_impl<WeaponInfo *,WeaponInfo *>

; 727  : 				this->_Mylast = _Ucopy(_Ptr, _Right._Mylast, this->_Mylast);

  000aa	ff 75 08	 push	 DWORD PTR __Cat$514137[ebp]
  000ad	8b 46 04	 mov	 eax, DWORD PTR [esi+4]
  000b0	8b 7f 04	 mov	 edi, DWORD PTR [edi+4]
  000b3	8d 4e 0c	 lea	 ecx, DWORD PTR [esi+12]
  000b6	51		 push	 ecx
  000b7	50		 push	 eax
  000b8	57		 push	 edi
  000b9	53		 push	 ebx
  000ba	e8 00 00 00 00	 call	 ??$_Uninit_copy@PAUWeaponInfo@@PAU1@V?$allocator@UWeaponInfo@@@std@@@std@@YAPAUWeaponInfo@@PAU1@00AAV?$allocator@UWeaponInfo@@@0@U_Nonscalar_ptr_iterator_tag@0@@Z ; std::_Uninit_copy<WeaponInfo *,WeaponInfo *,std::allocator<WeaponInfo> >
  000bf	83 c4 24	 add	 esp, 36			; 00000024H

; 728  : 				}
; 729  : 			else

  000c2	eb 4d		 jmp	 SHORT $LN73@operator@2
$LN4@operator@2:

; 730  : 				{	// not enough room, allocate new array and construct new
; 731  : 				if (this->_Myfirst != 0)

  000c4	8b 06		 mov	 eax, DWORD PTR [esi]
  000c6	85 c0		 test	 eax, eax
  000c8	74 17		 je	 SHORT $LN62@operator@2

; 732  : 					{	// discard old array
; 733  : 					_Destroy(this->_Myfirst, this->_Mylast);

  000ca	8d 4e 0c	 lea	 ecx, DWORD PTR [esi+12]
  000cd	51		 push	 ecx
  000ce	ff 76 04	 push	 DWORD PTR [esi+4]
  000d1	50		 push	 eax
  000d2	e8 00 00 00 00	 call	 ??$_Destroy_range@V?$allocator@UWeaponInfo@@@std@@@std@@YAXPAUWeaponInfo@@0AAV?$allocator@UWeaponInfo@@@0@@Z ; std::_Destroy_range<std::allocator<WeaponInfo> >

; 734  : 					this->_Alval.deallocate(this->_Myfirst,
; 735  : 						this->_Myend - this->_Myfirst);

  000d7	ff 36		 push	 DWORD PTR [esi]
  000d9	e8 00 00 00 00	 call	 ??3@YAXPAX@Z		; operator delete
  000de	83 c4 10	 add	 esp, 16			; 00000010H
$LN62@operator@2:

; 736  : 					}
; 737  : 				if (_Buy(_Right.size()))

  000e1	8b 47 04	 mov	 eax, DWORD PTR [edi+4]
  000e4	2b 07		 sub	 eax, DWORD PTR [edi]
  000e6	6a 28		 push	 40			; 00000028H
  000e8	59		 pop	 ecx
  000e9	99		 cdq
  000ea	f7 f9		 idiv	 ecx
  000ec	8b ce		 mov	 ecx, esi
  000ee	50		 push	 eax
  000ef	e8 00 00 00 00	 call	 ?_Buy@?$vector@UWeaponInfo@@V?$allocator@UWeaponInfo@@@std@@@std@@IAE_NI@Z ; std::vector<WeaponInfo,std::allocator<WeaponInfo> >::_Buy
  000f4	84 c0		 test	 al, al
  000f6	74 1c		 je	 SHORT $LN72@operator@2

; 738  : 					this->_Mylast = _Ucopy(_Right._Myfirst, _Right._Mylast,
; 739  : 						this->_Myfirst);

  000f8	ff 75 08	 push	 DWORD PTR __Cat$514174[ebp]
  000fb	8b 06		 mov	 eax, DWORD PTR [esi]
  000fd	8b 4f 04	 mov	 ecx, DWORD PTR [edi+4]
  00100	8b 3f		 mov	 edi, DWORD PTR [edi]
  00102	8d 56 0c	 lea	 edx, DWORD PTR [esi+12]
  00105	52		 push	 edx
  00106	50		 push	 eax
  00107	51		 push	 ecx
  00108	57		 push	 edi
  00109	e8 00 00 00 00	 call	 ??$_Uninit_copy@PAUWeaponInfo@@PAU1@V?$allocator@UWeaponInfo@@@std@@@std@@YAPAUWeaponInfo@@PAU1@00AAV?$allocator@UWeaponInfo@@@0@U_Nonscalar_ptr_iterator_tag@0@@Z ; std::_Uninit_copy<WeaponInfo *,WeaponInfo *,std::allocator<WeaponInfo> >
  0010e	83 c4 14	 add	 esp, 20			; 00000014H
$LN73@operator@2:
  00111	89 46 04	 mov	 DWORD PTR [esi+4], eax
$LN72@operator@2:
  00114	5b		 pop	 ebx
$LN1@operator@2:
  00115	5f		 pop	 edi

; 740  : 				}
; 741  : 			}
; 742  : 		return (*this);

  00116	8b c6		 mov	 eax, esi
  00118	5e		 pop	 esi

; 743  : 		}

  00119	5d		 pop	 ebp
  0011a	c2 04 00	 ret	 4
??4?$vector@UWeaponInfo@@V?$allocator@UWeaponInfo@@@std@@@std@@QAEAAV01@ABV01@@Z ENDP ; std::vector<WeaponInfo,std::allocator<WeaponInfo> >::operator=
_TEXT	ENDS
PUBLIC	?GetForceInfoList@ioFormalAttackGrp@@QBEABV?$vector@UForceInfo@@V?$allocator@UForceInfo@@@std@@@std@@W4AttackType@@H@Z ; ioFormalAttackGrp::GetForceInfoList
EXTRN	_atexit:PROC
;	COMDAT ?vForceEmptyList@?3??GetForceInfoList@ioFormalAttackGrp@@QBEABV?$vector@UForceInfo@@V?$allocator@UForceInfo@@@std@@@std@@W4AttackType@@H@Z@4V34@A
; File c:\program files (x86)\microsoft visual studio 10.0\vc\include\xmemory
_BSS	SEGMENT
?vForceEmptyList@?3??GetForceInfoList@ioFormalAttackGrp@@QBEABV?$vector@UForceInfo@@V?$allocator@UForceInfo@@@std@@@std@@W4AttackType@@H@Z@4V34@A DB 010H DUP (?) ; `ioFormalAttackGrp::GetForceInfoList'::`4'::vForceEmptyList
_BSS	ENDS
;	COMDAT ?$S2@?3??GetForceInfoList@ioFormalAttackGrp@@QBEABV?$vector@UForceInfo@@V?$allocator@UForceInfo@@@std@@@std@@W4AttackType@@H@Z@4IA
_BSS	SEGMENT
?$S2@?3??GetForceInfoList@ioFormalAttackGrp@@QBEABV?$vector@UForceInfo@@V?$allocator@UForceInfo@@@std@@@std@@W4AttackType@@H@Z@4IA DD 01H DUP (?) ; `ioFormalAttackGrp::GetForceInfoList'::`4'::$S2
; Function compile flags: /Ogsp
; File d:\lost saga for developer\youtube\tutorial\source\src\lsclient\ioformalattackgrp.cpp
_BSS	ENDS
;	COMDAT ?GetForceInfoList@ioFormalAttackGrp@@QBEABV?$vector@UForceInfo@@V?$allocator@UForceInfo@@@std@@@std@@W4AttackType@@H@Z
_TEXT	SEGMENT
_eType$ = 8						; size = 4
_iSubIdx$ = 12						; size = 4
?GetForceInfoList@ioFormalAttackGrp@@QBEABV?$vector@UForceInfo@@V?$allocator@UForceInfo@@@std@@@std@@W4AttackType@@H@Z PROC ; ioFormalAttackGrp::GetForceInfoList, COMDAT
; _this$ = ecx

; 604  : {

  00000	55		 push	 ebp
  00001	8b ec		 mov	 ebp, esp

; 605  : 	const AttackAttribute *pAttr = GetAttribute( eType, iSubIdx );

  00003	ff 75 0c	 push	 DWORD PTR _iSubIdx$[ebp]
  00006	ff 75 08	 push	 DWORD PTR _eType$[ebp]
  00009	e8 00 00 00 00	 call	 ?GetAttribute@ioFormalAttackGrp@@QBEPBUAttackAttribute@@W4AttackType@@H@Z ; ioFormalAttackGrp::GetAttribute

; 606  : 	if( pAttr )

  0000e	33 c9		 xor	 ecx, ecx
  00010	3b c1		 cmp	 eax, ecx
  00012	74 05		 je	 SHORT $LN2@GetForceIn

; 607  : 		return pAttr->m_vForceInfoList;

  00014	83 c0 38	 add	 eax, 56			; 00000038H
  00017	eb 32		 jmp	 SHORT $LN3@GetForceIn
$LN2@GetForceIn:

; 608  : 
; 609  : 	static ForceInfoList vForceEmptyList;

  00019	f6 05 00 00 00
	00 01		 test	 BYTE PTR ?$S2@?3??GetForceInfoList@ioFormalAttackGrp@@QBEABV?$vector@UForceInfo@@V?$allocator@UForceInfo@@@std@@@std@@W4AttackType@@H@Z@4IA, 1
  00020	75 24		 jne	 SHORT $LN1@GetForceIn
  00022	83 0d 00 00 00
	00 01		 or	 DWORD PTR ?$S2@?3??GetForceInfoList@ioFormalAttackGrp@@QBEABV?$vector@UForceInfo@@V?$allocator@UForceInfo@@@std@@@std@@W4AttackType@@H@Z@4IA, 1
  00029	68 00 00 00 00	 push	 OFFSET ??__FvForceEmptyList@?3??GetForceInfoList@ioFormalAttackGrp@@QBEABV?$vector@UForceInfo@@V?$allocator@UForceInfo@@@std@@@std@@W4AttackType@@H@Z@YAXXZ ; `ioFormalAttackGrp::GetForceInfoList'::`4'::`dynamic atexit destructor for 'vForceEmptyList''
  0002e	89 0d 00 00 00
	00		 mov	 DWORD PTR ?vForceEmptyList@?3??GetForceInfoList@ioFormalAttackGrp@@QBEABV?$vector@UForceInfo@@V?$allocator@UForceInfo@@@std@@@std@@W4AttackType@@H@Z@4V34@A, ecx
  00034	89 0d 04 00 00
	00		 mov	 DWORD PTR ?vForceEmptyList@?3??GetForceInfoList@ioFormalAttackGrp@@QBEABV?$vector@UForceInfo@@V?$allocator@UForceInfo@@@std@@@std@@W4AttackType@@H@Z@4V34@A+4, ecx
  0003a	89 0d 08 00 00
	00		 mov	 DWORD PTR ?vForceEmptyList@?3??GetForceInfoList@ioFormalAttackGrp@@QBEABV?$vector@UForceInfo@@V?$allocator@UForceInfo@@@std@@@std@@W4AttackType@@H@Z@4V34@A+8, ecx
  00040	e8 00 00 00 00	 call	 _atexit
  00045	59		 pop	 ecx
$LN1@GetForceIn:

; 610  : 	return vForceEmptyList;

  00046	b8 00 00 00 00	 mov	 eax, OFFSET ?vForceEmptyList@?3??GetForceInfoList@ioFormalAttackGrp@@QBEABV?$vector@UForceInfo@@V?$allocator@UForceInfo@@@std@@@std@@W4AttackType@@H@Z@4V34@A
$LN3@GetForceIn:

; 611  : }

  0004b	5d		 pop	 ebp
  0004c	c2 08 00	 ret	 8
?GetForceInfoList@ioFormalAttackGrp@@QBEABV?$vector@UForceInfo@@V?$allocator@UForceInfo@@@std@@@std@@W4AttackType@@H@Z ENDP ; ioFormalAttackGrp::GetForceInfoList
_TEXT	ENDS
PUBLIC	??0AttackAttribute@@QAE@ABU0@@Z			; AttackAttribute::AttackAttribute
;	COMDAT xdata$x
xdata$x	SEGMENT
__unwindtable$??0AttackAttribute@@QAE@ABU0@@Z DD 0ffffffffH
	DD	FLAT:__unwindfunclet$??0AttackAttribute@@QAE@ABU0@@Z$0
	DD	00H
	DD	FLAT:__unwindfunclet$??0AttackAttribute@@QAE@ABU0@@Z$1
	DD	01H
	DD	FLAT:__unwindfunclet$??0AttackAttribute@@QAE@ABU0@@Z$2
__ehfuncinfo$??0AttackAttribute@@QAE@ABU0@@Z DD 019930522H
	DD	03H
	DD	FLAT:__unwindtable$??0AttackAttribute@@QAE@ABU0@@Z
	DD	2 DUP(00H)
	DD	2 DUP(00H)
	DD	00H
	DD	01H
; Function compile flags: /Ogsp
xdata$x	ENDS
;	COMDAT ??0AttackAttribute@@QAE@ABU0@@Z
_TEXT	SEGMENT
_this$ = -16						; size = 4
__$EHRec$ = -12						; size = 12
___that$ = 8						; size = 4
??0AttackAttribute@@QAE@ABU0@@Z PROC			; AttackAttribute::AttackAttribute, COMDAT
; _this$ = ecx
  00000	6a 04		 push	 4
  00002	b8 00 00 00 00	 mov	 eax, __ehhandler$??0AttackAttribute@@QAE@ABU0@@Z
  00007	e8 00 00 00 00	 call	 __EH_prolog3
  0000c	8b f1		 mov	 esi, ecx
  0000e	89 75 f0	 mov	 DWORD PTR _this$[ebp], esi
  00011	8b 7d 08	 mov	 edi, DWORD PTR ___that$[ebp]
  00014	8b 1d 00 00 00
	00		 mov	 ebx, DWORD PTR __imp_??0ioHashString@@QAE@ABV0@@Z
  0001a	57		 push	 edi
  0001b	ff d3		 call	 ebx
  0001d	d9 47 10	 fld	 DWORD PTR [edi+16]
  00020	83 65 fc 00	 and	 DWORD PTR __$EHRec$[ebp+8], 0
  00024	d9 5e 10	 fstp	 DWORD PTR [esi+16]
  00027	8d 47 14	 lea	 eax, DWORD PTR [edi+20]
  0002a	50		 push	 eax
  0002b	8d 4e 14	 lea	 ecx, DWORD PTR [esi+20]
  0002e	ff d3		 call	 ebx
  00030	d9 47 24	 fld	 DWORD PTR [edi+36]
  00033	8d 47 28	 lea	 eax, DWORD PTR [edi+40]
  00036	d9 5e 24	 fstp	 DWORD PTR [esi+36]
  00039	50		 push	 eax
  0003a	8d 4e 28	 lea	 ecx, DWORD PTR [esi+40]
  0003d	c6 45 fc 01	 mov	 BYTE PTR __$EHRec$[ebp+8], 1
  00041	e8 00 00 00 00	 call	 ??0?$vector@UWeaponInfo@@V?$allocator@UWeaponInfo@@@std@@@std@@QAE@ABV01@@Z ; std::vector<WeaponInfo,std::allocator<WeaponInfo> >::vector<WeaponInfo,std::allocator<WeaponInfo> >
  00046	8d 47 38	 lea	 eax, DWORD PTR [edi+56]
  00049	50		 push	 eax
  0004a	8d 4e 38	 lea	 ecx, DWORD PTR [esi+56]
  0004d	c6 45 fc 02	 mov	 BYTE PTR __$EHRec$[ebp+8], 2
  00051	e8 00 00 00 00	 call	 ??0?$vector@UForceInfo@@V?$allocator@UForceInfo@@@std@@@std@@QAE@ABV01@@Z ; std::vector<ForceInfo,std::allocator<ForceInfo> >::vector<ForceInfo,std::allocator<ForceInfo> >
  00056	8b 47 48	 mov	 eax, DWORD PTR [edi+72]
  00059	89 46 48	 mov	 DWORD PTR [esi+72], eax
  0005c	8b 47 4c	 mov	 eax, DWORD PTR [edi+76]
  0005f	89 46 4c	 mov	 DWORD PTR [esi+76], eax
  00062	8b c6		 mov	 eax, esi
  00064	e8 00 00 00 00	 call	 __EH_epilog3
  00069	c2 04 00	 ret	 4
_TEXT	ENDS
;	COMDAT text$x
text$x	SEGMENT
__unwindfunclet$??0AttackAttribute@@QAE@ABU0@@Z$0:
  00000	8b 4d f0	 mov	 ecx, DWORD PTR _this$[ebp]
  00003	ff 25 00 00 00
	00		 jmp	 DWORD PTR __imp_??1ioHashString@@QAE@XZ
__unwindfunclet$??0AttackAttribute@@QAE@ABU0@@Z$1:
  00009	8b 4d f0	 mov	 ecx, DWORD PTR _this$[ebp]
  0000c	83 c1 14	 add	 ecx, 20			; 00000014H
  0000f	ff 25 00 00 00
	00		 jmp	 DWORD PTR __imp_??1ioHashString@@QAE@XZ
__unwindfunclet$??0AttackAttribute@@QAE@ABU0@@Z$2:
  00015	8b 4d f0	 mov	 ecx, DWORD PTR _this$[ebp]
  00018	83 c1 28	 add	 ecx, 40			; 00000028H
  0001b	e9 00 00 00 00	 jmp	 ??1?$vector@UWeaponInfo@@V?$allocator@UWeaponInfo@@@std@@@std@@QAE@XZ ; std::vector<WeaponInfo,std::allocator<WeaponInfo> >::~vector<WeaponInfo,std::allocator<WeaponInfo> >
__ehhandler$??0AttackAttribute@@QAE@ABU0@@Z:
  00020	8b 54 24 08	 mov	 edx, DWORD PTR [esp+8]
  00024	8d 42 0c	 lea	 eax, DWORD PTR [edx+12]
  00027	8b 4a ec	 mov	 ecx, DWORD PTR [edx-20]
  0002a	33 c8		 xor	 ecx, eax
  0002c	e8 00 00 00 00	 call	 @__security_check_cookie@4
  00031	b8 00 00 00 00	 mov	 eax, OFFSET __ehfuncinfo$??0AttackAttribute@@QAE@ABU0@@Z
  00036	e9 00 00 00 00	 jmp	 ___CxxFrameHandler3
text$x	ENDS
??0AttackAttribute@@QAE@ABU0@@Z ENDP			; AttackAttribute::AttackAttribute
PUBLIC	?construct@?$allocator@UAttackAttribute@@@std@@QAEXPAUAttackAttribute@@$$QAU3@@Z ; std::allocator<AttackAttribute>::construct
;	COMDAT xdata$x
; File c:\program files (x86)\microsoft visual studio 10.0\vc\include\utility
xdata$x	SEGMENT
__unwindtable$?construct@?$allocator@UAttackAttribute@@@std@@QAEXPAUAttackAttribute@@$$QAU3@@Z DD 0ffffffffH
	DD	FLAT:__unwindfunclet$?construct@?$allocator@UAttackAttribute@@@std@@QAEXPAUAttackAttribute@@$$QAU3@@Z$0
__ehfuncinfo$?construct@?$allocator@UAttackAttribute@@@std@@QAEXPAUAttackAttribute@@$$QAU3@@Z DD 019930522H
	DD	01H
	DD	FLAT:__unwindtable$?construct@?$allocator@UAttackAttribute@@@std@@QAEXPAUAttackAttribute@@$$QAU3@@Z
	DD	2 DUP(00H)
	DD	2 DUP(00H)
	DD	00H
	DD	01H
; Function compile flags: /Ogsp
; File c:\program files (x86)\microsoft visual studio 10.0\vc\include\xmemory
xdata$x	ENDS
;	COMDAT ?construct@?$allocator@UAttackAttribute@@@std@@QAEXPAUAttackAttribute@@$$QAU3@@Z
_TEXT	SEGMENT
$T514224 = -16						; size = 4
__$EHRec$ = -12						; size = 12
__Ptr$ = 8						; size = 4
__Val$ = 12						; size = 4
?construct@?$allocator@UAttackAttribute@@@std@@QAEXPAUAttackAttribute@@$$QAU3@@Z PROC ; std::allocator<AttackAttribute>::construct, COMDAT
; _this$ = ecx

; 201  : 		{	// construct object at _Ptr with value _Val

  00000	6a 04		 push	 4
  00002	b8 00 00 00 00	 mov	 eax, __ehhandler$?construct@?$allocator@UAttackAttribute@@@std@@QAEXPAUAttackAttribute@@$$QAU3@@Z
  00007	e8 00 00 00 00	 call	 __EH_prolog3

; 202  : 		::new ((void _FARQ *)_Ptr) _Ty(_STD forward<_Ty>(_Val));

  0000c	8b 4d 08	 mov	 ecx, DWORD PTR __Ptr$[ebp]
  0000f	89 4d f0	 mov	 DWORD PTR $T514224[ebp], ecx
  00012	83 65 fc 00	 and	 DWORD PTR __$EHRec$[ebp+8], 0
  00016	85 c9		 test	 ecx, ecx
  00018	74 08		 je	 SHORT $LN3@construct@4
  0001a	ff 75 0c	 push	 DWORD PTR __Val$[ebp]
  0001d	e8 00 00 00 00	 call	 ??0AttackAttribute@@QAE@ABU0@@Z
$LN3@construct@4:

; 203  : 		}

  00022	e8 00 00 00 00	 call	 __EH_epilog3
  00027	c2 08 00	 ret	 8
_TEXT	ENDS
;	COMDAT text$x
text$x	SEGMENT
__unwindfunclet$?construct@?$allocator@UAttackAttribute@@@std@@QAEXPAUAttackAttribute@@$$QAU3@@Z$0:
  00000	ff 75 08	 push	 DWORD PTR __Ptr$[ebp]
  00003	ff 75 f0	 push	 DWORD PTR $T514224[ebp]
  00006	e8 00 00 00 00	 call	 ??3@YAXPAX0@Z		; operator delete
  0000b	59		 pop	 ecx
  0000c	59		 pop	 ecx
  0000d	c3		 ret	 0
__ehhandler$?construct@?$allocator@UAttackAttribute@@@std@@QAEXPAUAttackAttribute@@$$QAU3@@Z:
  0000e	8b 54 24 08	 mov	 edx, DWORD PTR [esp+8]
  00012	8d 42 0c	 lea	 eax, DWORD PTR [edx+12]
  00015	8b 4a ec	 mov	 ecx, DWORD PTR [edx-20]
  00018	33 c8		 xor	 ecx, eax
  0001a	e8 00 00 00 00	 call	 @__security_check_cookie@4
  0001f	b8 00 00 00 00	 mov	 eax, OFFSET __ehfuncinfo$?construct@?$allocator@UAttackAttribute@@@std@@QAEXPAUAttackAttribute@@$$QAU3@@Z
  00024	e9 00 00 00 00	 jmp	 ___CxxFrameHandler3
text$x	ENDS
?construct@?$allocator@UAttackAttribute@@@std@@QAEXPAUAttackAttribute@@$$QAU3@@Z ENDP ; std::allocator<AttackAttribute>::construct
PUBLIC	??0AttackAttribute@@QAE@XZ			; AttackAttribute::AttackAttribute
EXTRN	?Init@AttackAttribute@@QAEXXZ:PROC		; AttackAttribute::Init
EXTRN	__imp_??0ioHashString@@QAE@XZ:PROC
;	COMDAT xdata$x
xdata$x	SEGMENT
__unwindtable$??0AttackAttribute@@QAE@XZ DD 0ffffffffH
	DD	FLAT:__unwindfunclet$??0AttackAttribute@@QAE@XZ$0
	DD	00H
	DD	FLAT:__unwindfunclet$??0AttackAttribute@@QAE@XZ$1
	DD	01H
	DD	FLAT:__unwindfunclet$??0AttackAttribute@@QAE@XZ$2
	DD	02H
	DD	FLAT:__unwindfunclet$??0AttackAttribute@@QAE@XZ$3
__ehfuncinfo$??0AttackAttribute@@QAE@XZ DD 019930522H
	DD	04H
	DD	FLAT:__unwindtable$??0AttackAttribute@@QAE@XZ
	DD	2 DUP(00H)
	DD	2 DUP(00H)
	DD	00H
	DD	01H
; Function compile flags: /Ogsp
; File d:\lost saga for developer\youtube\tutorial\source\src\lsclient\ioattackattribute.h
xdata$x	ENDS
;	COMDAT ??0AttackAttribute@@QAE@XZ
_TEXT	SEGMENT
_this$ = -16						; size = 4
__$EHRec$ = -12						; size = 12
??0AttackAttribute@@QAE@XZ PROC				; AttackAttribute::AttackAttribute, COMDAT
; _this$ = ecx

; 107  : 	AttackAttribute()

  00000	6a 04		 push	 4
  00002	b8 00 00 00 00	 mov	 eax, __ehhandler$??0AttackAttribute@@QAE@XZ
  00007	e8 00 00 00 00	 call	 __EH_prolog3
  0000c	8b f1		 mov	 esi, ecx
  0000e	89 75 f0	 mov	 DWORD PTR _this$[ebp], esi
  00011	8b 3d 00 00 00
	00		 mov	 edi, DWORD PTR __imp_??0ioHashString@@QAE@XZ
  00017	ff d7		 call	 edi
  00019	33 db		 xor	 ebx, ebx
  0001b	8d 4e 14	 lea	 ecx, DWORD PTR [esi+20]
  0001e	89 5d fc	 mov	 DWORD PTR __$EHRec$[ebp+8], ebx
  00021	ff d7		 call	 edi
  00023	89 5e 28	 mov	 DWORD PTR [esi+40], ebx
  00026	89 5e 2c	 mov	 DWORD PTR [esi+44], ebx
  00029	89 5e 30	 mov	 DWORD PTR [esi+48], ebx
  0002c	89 5e 38	 mov	 DWORD PTR [esi+56], ebx
  0002f	89 5e 3c	 mov	 DWORD PTR [esi+60], ebx
  00032	89 5e 40	 mov	 DWORD PTR [esi+64], ebx

; 108  : 	{
; 109  : 		Init();

  00035	8b ce		 mov	 ecx, esi
  00037	c6 45 fc 03	 mov	 BYTE PTR __$EHRec$[ebp+8], 3
  0003b	e8 00 00 00 00	 call	 ?Init@AttackAttribute@@QAEXXZ ; AttackAttribute::Init

; 110  : 	}

  00040	8b c6		 mov	 eax, esi
  00042	e8 00 00 00 00	 call	 __EH_epilog3
  00047	c3		 ret	 0
_TEXT	ENDS
;	COMDAT text$x
text$x	SEGMENT
__unwindfunclet$??0AttackAttribute@@QAE@XZ$0:
  00000	8b 4d f0	 mov	 ecx, DWORD PTR _this$[ebp]
  00003	ff 25 00 00 00
	00		 jmp	 DWORD PTR __imp_??1ioHashString@@QAE@XZ
__unwindfunclet$??0AttackAttribute@@QAE@XZ$1:
  00009	8b 4d f0	 mov	 ecx, DWORD PTR _this$[ebp]
  0000c	83 c1 14	 add	 ecx, 20			; 00000014H
  0000f	ff 25 00 00 00
	00		 jmp	 DWORD PTR __imp_??1ioHashString@@QAE@XZ
__unwindfunclet$??0AttackAttribute@@QAE@XZ$2:
  00015	8b 4d f0	 mov	 ecx, DWORD PTR _this$[ebp]
  00018	83 c1 28	 add	 ecx, 40			; 00000028H
  0001b	e9 00 00 00 00	 jmp	 ??1?$vector@UWeaponInfo@@V?$allocator@UWeaponInfo@@@std@@@std@@QAE@XZ ; std::vector<WeaponInfo,std::allocator<WeaponInfo> >::~vector<WeaponInfo,std::allocator<WeaponInfo> >
__unwindfunclet$??0AttackAttribute@@QAE@XZ$3:
  00020	8b 4d f0	 mov	 ecx, DWORD PTR _this$[ebp]
  00023	83 c1 38	 add	 ecx, 56			; 00000038H
  00026	e9 00 00 00 00	 jmp	 ??1?$vector@UForceInfo@@V?$allocator@UForceInfo@@@std@@@std@@QAE@XZ ; std::vector<ForceInfo,std::allocator<ForceInfo> >::~vector<ForceInfo,std::allocator<ForceInfo> >
__ehhandler$??0AttackAttribute@@QAE@XZ:
  0002b	8b 54 24 08	 mov	 edx, DWORD PTR [esp+8]
  0002f	8d 42 0c	 lea	 eax, DWORD PTR [edx+12]
  00032	8b 4a ec	 mov	 ecx, DWORD PTR [edx-20]
  00035	33 c8		 xor	 ecx, eax
  00037	e8 00 00 00 00	 call	 @__security_check_cookie@4
  0003c	b8 00 00 00 00	 mov	 eax, OFFSET __ehfuncinfo$??0AttackAttribute@@QAE@XZ
  00041	e9 00 00 00 00	 jmp	 ___CxxFrameHandler3
text$x	ENDS
??0AttackAttribute@@QAE@XZ ENDP				; AttackAttribute::AttackAttribute
PUBLIC	??1AttackAttribute@@QAE@XZ			; AttackAttribute::~AttackAttribute
;	COMDAT xdata$x
xdata$x	SEGMENT
__unwindtable$??1AttackAttribute@@QAE@XZ DD 0ffffffffH
	DD	FLAT:__unwindfunclet$??1AttackAttribute@@QAE@XZ$0
	DD	00H
	DD	FLAT:__unwindfunclet$??1AttackAttribute@@QAE@XZ$1
	DD	01H
	DD	FLAT:__unwindfunclet$??1AttackAttribute@@QAE@XZ$2
__ehfuncinfo$??1AttackAttribute@@QAE@XZ DD 019930522H
	DD	03H
	DD	FLAT:__unwindtable$??1AttackAttribute@@QAE@XZ
	DD	2 DUP(00H)
	DD	2 DUP(00H)
	DD	00H
	DD	01H
; Function compile flags: /Ogsp
xdata$x	ENDS
;	COMDAT ??1AttackAttribute@@QAE@XZ
_TEXT	SEGMENT
_this$ = -16						; size = 4
__$EHRec$ = -12						; size = 12
??1AttackAttribute@@QAE@XZ PROC				; AttackAttribute::~AttackAttribute, COMDAT
; _this$ = ecx
  00000	6a 04		 push	 4
  00002	b8 00 00 00 00	 mov	 eax, __ehhandler$??1AttackAttribute@@QAE@XZ
  00007	e8 00 00 00 00	 call	 __EH_prolog3
  0000c	8b f1		 mov	 esi, ecx
  0000e	89 75 f0	 mov	 DWORD PTR _this$[ebp], esi
  00011	8d 4e 38	 lea	 ecx, DWORD PTR [esi+56]
  00014	c7 45 fc 02 00
	00 00		 mov	 DWORD PTR __$EHRec$[ebp+8], 2
  0001b	e8 00 00 00 00	 call	 ?_Tidy@?$vector@UForceInfo@@V?$allocator@UForceInfo@@@std@@@std@@IAEXXZ ; std::vector<ForceInfo,std::allocator<ForceInfo> >::_Tidy
  00020	8d 4e 28	 lea	 ecx, DWORD PTR [esi+40]
  00023	c6 45 fc 01	 mov	 BYTE PTR __$EHRec$[ebp+8], 1
  00027	e8 00 00 00 00	 call	 ?_Tidy@?$vector@UWeaponInfo@@V?$allocator@UWeaponInfo@@@std@@@std@@IAEXXZ ; std::vector<WeaponInfo,std::allocator<WeaponInfo> >::_Tidy
  0002c	8b 3d 00 00 00
	00		 mov	 edi, DWORD PTR __imp_??1ioHashString@@QAE@XZ
  00032	8d 4e 14	 lea	 ecx, DWORD PTR [esi+20]
  00035	c6 45 fc 00	 mov	 BYTE PTR __$EHRec$[ebp+8], 0
  00039	ff d7		 call	 edi
  0003b	83 4d fc ff	 or	 DWORD PTR __$EHRec$[ebp+8], -1
  0003f	8b ce		 mov	 ecx, esi
  00041	ff d7		 call	 edi
  00043	e8 00 00 00 00	 call	 __EH_epilog3
  00048	c3		 ret	 0
_TEXT	ENDS
;	COMDAT text$x
text$x	SEGMENT
__unwindfunclet$??1AttackAttribute@@QAE@XZ$0:
  00000	8b 4d f0	 mov	 ecx, DWORD PTR _this$[ebp]
  00003	ff 25 00 00 00
	00		 jmp	 DWORD PTR __imp_??1ioHashString@@QAE@XZ
__unwindfunclet$??1AttackAttribute@@QAE@XZ$1:
  00009	8b 4d f0	 mov	 ecx, DWORD PTR _this$[ebp]
  0000c	83 c1 14	 add	 ecx, 20			; 00000014H
  0000f	ff 25 00 00 00
	00		 jmp	 DWORD PTR __imp_??1ioHashString@@QAE@XZ
__unwindfunclet$??1AttackAttribute@@QAE@XZ$2:
  00015	8b 4d f0	 mov	 ecx, DWORD PTR _this$[ebp]
  00018	83 c1 28	 add	 ecx, 40			; 00000028H
  0001b	e9 00 00 00 00	 jmp	 ??1?$vector@UWeaponInfo@@V?$allocator@UWeaponInfo@@@std@@@std@@QAE@XZ ; std::vector<WeaponInfo,std::allocator<WeaponInfo> >::~vector<WeaponInfo,std::allocator<WeaponInfo> >
__ehhandler$??1AttackAttribute@@QAE@XZ:
  00020	8b 54 24 08	 mov	 edx, DWORD PTR [esp+8]
  00024	8d 42 0c	 lea	 eax, DWORD PTR [edx+12]
  00027	8b 4a ec	 mov	 ecx, DWORD PTR [edx-20]
  0002a	33 c8		 xor	 ecx, eax
  0002c	e8 00 00 00 00	 call	 @__security_check_cookie@4
  00031	b8 00 00 00 00	 mov	 eax, OFFSET __ehfuncinfo$??1AttackAttribute@@QAE@XZ
  00036	e9 00 00 00 00	 jmp	 ___CxxFrameHandler3
text$x	ENDS
??1AttackAttribute@@QAE@XZ ENDP				; AttackAttribute::~AttackAttribute
PUBLIC	??4AttackAttribute@@QAEAAU0@ABU0@@Z		; AttackAttribute::operator=
; Function compile flags: /Ogsp
;	COMDAT ??4AttackAttribute@@QAEAAU0@ABU0@@Z
_TEXT	SEGMENT
___that$ = 8						; size = 4
??4AttackAttribute@@QAEAAU0@ABU0@@Z PROC		; AttackAttribute::operator=, COMDAT
; _this$ = ecx
  00000	55		 push	 ebp
  00001	8b ec		 mov	 ebp, esp
  00003	53		 push	 ebx
  00004	8b 1d 00 00 00
	00		 mov	 ebx, DWORD PTR __imp_??4ioHashString@@QAEAAV0@ABV0@@Z
  0000a	56		 push	 esi
  0000b	57		 push	 edi
  0000c	8b 7d 08	 mov	 edi, DWORD PTR ___that$[ebp]
  0000f	57		 push	 edi
  00010	8b f1		 mov	 esi, ecx
  00012	ff d3		 call	 ebx
  00014	d9 47 10	 fld	 DWORD PTR [edi+16]
  00017	8d 47 14	 lea	 eax, DWORD PTR [edi+20]
  0001a	d9 5e 10	 fstp	 DWORD PTR [esi+16]
  0001d	50		 push	 eax
  0001e	8d 4e 14	 lea	 ecx, DWORD PTR [esi+20]
  00021	ff d3		 call	 ebx
  00023	d9 47 24	 fld	 DWORD PTR [edi+36]
  00026	8d 47 28	 lea	 eax, DWORD PTR [edi+40]
  00029	d9 5e 24	 fstp	 DWORD PTR [esi+36]
  0002c	50		 push	 eax
  0002d	8d 4e 28	 lea	 ecx, DWORD PTR [esi+40]
  00030	e8 00 00 00 00	 call	 ??4?$vector@UWeaponInfo@@V?$allocator@UWeaponInfo@@@std@@@std@@QAEAAV01@ABV01@@Z ; std::vector<WeaponInfo,std::allocator<WeaponInfo> >::operator=
  00035	8d 47 38	 lea	 eax, DWORD PTR [edi+56]
  00038	50		 push	 eax
  00039	8d 4e 38	 lea	 ecx, DWORD PTR [esi+56]
  0003c	e8 00 00 00 00	 call	 ??4?$vector@UForceInfo@@V?$allocator@UForceInfo@@@std@@@std@@QAEAAV01@ABV01@@Z ; std::vector<ForceInfo,std::allocator<ForceInfo> >::operator=
  00041	8b 47 48	 mov	 eax, DWORD PTR [edi+72]
  00044	89 46 48	 mov	 DWORD PTR [esi+72], eax
  00047	8b 47 4c	 mov	 eax, DWORD PTR [edi+76]
  0004a	89 46 4c	 mov	 DWORD PTR [esi+76], eax
  0004d	5f		 pop	 edi
  0004e	8b c6		 mov	 eax, esi
  00050	5e		 pop	 esi
  00051	5b		 pop	 ebx
  00052	5d		 pop	 ebp
  00053	c2 04 00	 ret	 4
??4AttackAttribute@@QAEAAU0@ABU0@@Z ENDP		; AttackAttribute::operator=
_TEXT	ENDS
PUBLIC	??_GAttackAttribute@@QAEPAXI@Z			; AttackAttribute::`scalar deleting destructor'
; Function compile flags: /Ogsp
;	COMDAT ??_GAttackAttribute@@QAEPAXI@Z
_TEXT	SEGMENT
___flags$ = 8						; size = 4
??_GAttackAttribute@@QAEPAXI@Z PROC			; AttackAttribute::`scalar deleting destructor', COMDAT
; _this$ = ecx
  00000	55		 push	 ebp
  00001	8b ec		 mov	 ebp, esp
  00003	56		 push	 esi
  00004	8b f1		 mov	 esi, ecx
  00006	e8 00 00 00 00	 call	 ??1AttackAttribute@@QAE@XZ
  0000b	f6 45 08 01	 test	 BYTE PTR ___flags$[ebp], 1
  0000f	74 07		 je	 SHORT $LN1@scalar@3
  00011	56		 push	 esi
  00012	e8 00 00 00 00	 call	 ??3@YAXPAX@Z		; operator delete
  00017	59		 pop	 ecx
$LN1@scalar@3:
  00018	8b c6		 mov	 eax, esi
  0001a	5e		 pop	 esi
  0001b	5d		 pop	 ebp
  0001c	c2 04 00	 ret	 4
??_GAttackAttribute@@QAEPAXI@Z ENDP			; AttackAttribute::`scalar deleting destructor'
_TEXT	ENDS
PUBLIC	?GetAttackAttributeIdx@ioFormalAttackGrp@@QBEABV?$vector@UWeaponInfo@@V?$allocator@UWeaponInfo@@@std@@@std@@W4AttackType@@H@Z ; ioFormalAttackGrp::GetAttackAttributeIdx
;	COMDAT ?vEmtpyList@?3??GetAttackAttributeIdx@ioFormalAttackGrp@@QBEABV?$vector@UWeaponInfo@@V?$allocator@UWeaponInfo@@@std@@@std@@W4AttackType@@H@Z@4V34@A
; File c:\program files (x86)\microsoft visual studio 10.0\vc\include\xmemory
_BSS	SEGMENT
?vEmtpyList@?3??GetAttackAttributeIdx@ioFormalAttackGrp@@QBEABV?$vector@UWeaponInfo@@V?$allocator@UWeaponInfo@@@std@@@std@@W4AttackType@@H@Z@4V34@A DB 010H DUP (?) ; `ioFormalAttackGrp::GetAttackAttributeIdx'::`4'::vEmtpyList
_BSS	ENDS
;	COMDAT ?$S1@?3??GetAttackAttributeIdx@ioFormalAttackGrp@@QBEABV?$vector@UWeaponInfo@@V?$allocator@UWeaponInfo@@@std@@@std@@W4AttackType@@H@Z@4IA
_BSS	SEGMENT
?$S1@?3??GetAttackAttributeIdx@ioFormalAttackGrp@@QBEABV?$vector@UWeaponInfo@@V?$allocator@UWeaponInfo@@@std@@@std@@W4AttackType@@H@Z@4IA DD 01H DUP (?) ; `ioFormalAttackGrp::GetAttackAttributeIdx'::`4'::$S1
; Function compile flags: /Ogsp
; File d:\lost saga for developer\youtube\tutorial\source\src\lsclient\ioformalattackgrp.cpp
_BSS	ENDS
;	COMDAT ?GetAttackAttributeIdx@ioFormalAttackGrp@@QBEABV?$vector@UWeaponInfo@@V?$allocator@UWeaponInfo@@@std@@@std@@W4AttackType@@H@Z
_TEXT	SEGMENT
_eType$ = 8						; size = 4
_iSubIdx$ = 12						; size = 4
?GetAttackAttributeIdx@ioFormalAttackGrp@@QBEABV?$vector@UWeaponInfo@@V?$allocator@UWeaponInfo@@@std@@@std@@W4AttackType@@H@Z PROC ; ioFormalAttackGrp::GetAttackAttributeIdx, COMDAT
; _this$ = ecx

; 594  : {

  00000	55		 push	 ebp
  00001	8b ec		 mov	 ebp, esp

; 595  : 	const AttackAttribute *pAttr = GetAttribute( eType, iSubIdx );

  00003	ff 75 0c	 push	 DWORD PTR _iSubIdx$[ebp]
  00006	ff 75 08	 push	 DWORD PTR _eType$[ebp]
  00009	e8 00 00 00 00	 call	 ?GetAttribute@ioFormalAttackGrp@@QBEPBUAttackAttribute@@W4AttackType@@H@Z ; ioFormalAttackGrp::GetAttribute

; 596  : 	if( pAttr )

  0000e	33 c9		 xor	 ecx, ecx
  00010	3b c1		 cmp	 eax, ecx
  00012	74 05		 je	 SHORT $LN2@GetAttackA@3

; 597  : 		return pAttr->m_vWeaponInfoList;

  00014	83 c0 28	 add	 eax, 40			; 00000028H
  00017	eb 32		 jmp	 SHORT $LN3@GetAttackA@3
$LN2@GetAttackA@3:

; 598  : 
; 599  : 	static WeaponInfoList vEmtpyList;

  00019	f6 05 00 00 00
	00 01		 test	 BYTE PTR ?$S1@?3??GetAttackAttributeIdx@ioFormalAttackGrp@@QBEABV?$vector@UWeaponInfo@@V?$allocator@UWeaponInfo@@@std@@@std@@W4AttackType@@H@Z@4IA, 1
  00020	75 24		 jne	 SHORT $LN1@GetAttackA@3
  00022	83 0d 00 00 00
	00 01		 or	 DWORD PTR ?$S1@?3??GetAttackAttributeIdx@ioFormalAttackGrp@@QBEABV?$vector@UWeaponInfo@@V?$allocator@UWeaponInfo@@@std@@@std@@W4AttackType@@H@Z@4IA, 1
  00029	68 00 00 00 00	 push	 OFFSET ??__FvEmtpyList@?3??GetAttackAttributeIdx@ioFormalAttackGrp@@QBEABV?$vector@UWeaponInfo@@V?$allocator@UWeaponInfo@@@std@@@std@@W4AttackType@@H@Z@YAXXZ ; `ioFormalAttackGrp::GetAttackAttributeIdx'::`4'::`dynamic atexit destructor for 'vEmtpyList''
  0002e	89 0d 00 00 00
	00		 mov	 DWORD PTR ?vEmtpyList@?3??GetAttackAttributeIdx@ioFormalAttackGrp@@QBEABV?$vector@UWeaponInfo@@V?$allocator@UWeaponInfo@@@std@@@std@@W4AttackType@@H@Z@4V34@A, ecx
  00034	89 0d 04 00 00
	00		 mov	 DWORD PTR ?vEmtpyList@?3??GetAttackAttributeIdx@ioFormalAttackGrp@@QBEABV?$vector@UWeaponInfo@@V?$allocator@UWeaponInfo@@@std@@@std@@W4AttackType@@H@Z@4V34@A+4, ecx
  0003a	89 0d 08 00 00
	00		 mov	 DWORD PTR ?vEmtpyList@?3??GetAttackAttributeIdx@ioFormalAttackGrp@@QBEABV?$vector@UWeaponInfo@@V?$allocator@UWeaponInfo@@@std@@@std@@W4AttackType@@H@Z@4V34@A+8, ecx
  00040	e8 00 00 00 00	 call	 _atexit
  00045	59		 pop	 ecx
$LN1@GetAttackA@3:

; 600  : 	return vEmtpyList;

  00046	b8 00 00 00 00	 mov	 eax, OFFSET ?vEmtpyList@?3??GetAttackAttributeIdx@ioFormalAttackGrp@@QBEABV?$vector@UWeaponInfo@@V?$allocator@UWeaponInfo@@@std@@@std@@W4AttackType@@H@Z@4V34@A
$LN3@GetAttackA@3:

; 601  : }

  0004b	5d		 pop	 ebp
  0004c	c2 08 00	 ret	 8
?GetAttackAttributeIdx@ioFormalAttackGrp@@QBEABV?$vector@UWeaponInfo@@V?$allocator@UWeaponInfo@@@std@@@std@@W4AttackType@@H@Z ENDP ; ioFormalAttackGrp::GetAttackAttributeIdx
_TEXT	ENDS
PUBLIC	??$construct@AAUAttackAttribute@@@?$allocator@UAttackAttribute@@@std@@QAEXPAUAttackAttribute@@AAU2@@Z ; std::allocator<AttackAttribute>::construct<AttackAttribute &>
;	COMDAT xdata$x
; File c:\program files (x86)\microsoft visual studio 10.0\vc\include\utility
xdata$x	SEGMENT
__unwindtable$??$construct@AAUAttackAttribute@@@?$allocator@UAttackAttribute@@@std@@QAEXPAUAttackAttribute@@AAU2@@Z DD 0ffffffffH
	DD	FLAT:__unwindfunclet$??$construct@AAUAttackAttribute@@@?$allocator@UAttackAttribute@@@std@@QAEXPAUAttackAttribute@@AAU2@@Z$0
__ehfuncinfo$??$construct@AAUAttackAttribute@@@?$allocator@UAttackAttribute@@@std@@QAEXPAUAttackAttribute@@AAU2@@Z DD 019930522H
	DD	01H
	DD	FLAT:__unwindtable$??$construct@AAUAttackAttribute@@@?$allocator@UAttackAttribute@@@std@@QAEXPAUAttackAttribute@@AAU2@@Z
	DD	2 DUP(00H)
	DD	2 DUP(00H)
	DD	00H
	DD	01H
; Function compile flags: /Ogsp
; File c:\program files (x86)\microsoft visual studio 10.0\vc\include\xmemory
xdata$x	ENDS
;	COMDAT ??$construct@AAUAttackAttribute@@@?$allocator@UAttackAttribute@@@std@@QAEXPAUAttackAttribute@@AAU2@@Z
_TEXT	SEGMENT
$T514364 = -16						; size = 4
__$EHRec$ = -12						; size = 12
__Ptr$ = 8						; size = 4
__Val$ = 12						; size = 4
??$construct@AAUAttackAttribute@@@?$allocator@UAttackAttribute@@@std@@QAEXPAUAttackAttribute@@AAU2@@Z PROC ; std::allocator<AttackAttribute>::construct<AttackAttribute &>, COMDAT
; _this$ = ecx

; 206  : 		void construct(pointer _Ptr, _Other&& _Val)

  00000	6a 04		 push	 4
  00002	b8 00 00 00 00	 mov	 eax, __ehhandler$??$construct@AAUAttackAttribute@@@?$allocator@UAttackAttribute@@@std@@QAEXPAUAttackAttribute@@AAU2@@Z
  00007	e8 00 00 00 00	 call	 __EH_prolog3

; 207  : 		{	// construct object at _Ptr with value _Val
; 208  : 		::new ((void _FARQ *)_Ptr) _Ty(_STD forward<_Other>(_Val));

  0000c	8b 4d 08	 mov	 ecx, DWORD PTR __Ptr$[ebp]
  0000f	89 4d f0	 mov	 DWORD PTR $T514364[ebp], ecx
  00012	83 65 fc 00	 and	 DWORD PTR __$EHRec$[ebp+8], 0
  00016	85 c9		 test	 ecx, ecx
  00018	74 08		 je	 SHORT $LN3@construct@5
  0001a	ff 75 0c	 push	 DWORD PTR __Val$[ebp]
  0001d	e8 00 00 00 00	 call	 ??0AttackAttribute@@QAE@ABU0@@Z
$LN3@construct@5:

; 209  : 		}

  00022	e8 00 00 00 00	 call	 __EH_epilog3
  00027	c2 08 00	 ret	 8
_TEXT	ENDS
;	COMDAT text$x
text$x	SEGMENT
__unwindfunclet$??$construct@AAUAttackAttribute@@@?$allocator@UAttackAttribute@@@std@@QAEXPAUAttackAttribute@@AAU2@@Z$0:
  00000	ff 75 08	 push	 DWORD PTR __Ptr$[ebp]
  00003	ff 75 f0	 push	 DWORD PTR $T514364[ebp]
  00006	e8 00 00 00 00	 call	 ??3@YAXPAX0@Z		; operator delete
  0000b	59		 pop	 ecx
  0000c	59		 pop	 ecx
  0000d	c3		 ret	 0
__ehhandler$??$construct@AAUAttackAttribute@@@?$allocator@UAttackAttribute@@@std@@QAEXPAUAttackAttribute@@AAU2@@Z:
  0000e	8b 54 24 08	 mov	 edx, DWORD PTR [esp+8]
  00012	8d 42 0c	 lea	 eax, DWORD PTR [edx+12]
  00015	8b 4a ec	 mov	 ecx, DWORD PTR [edx-20]
  00018	33 c8		 xor	 ecx, eax
  0001a	e8 00 00 00 00	 call	 @__security_check_cookie@4
  0001f	b8 00 00 00 00	 mov	 eax, OFFSET __ehfuncinfo$??$construct@AAUAttackAttribute@@@?$allocator@UAttackAttribute@@@std@@QAEXPAUAttackAttribute@@AAU2@@Z
  00024	e9 00 00 00 00	 jmp	 ___CxxFrameHandler3
text$x	ENDS
??$construct@AAUAttackAttribute@@@?$allocator@UAttackAttribute@@@std@@QAEXPAUAttackAttribute@@AAU2@@Z ENDP ; std::allocator<AttackAttribute>::construct<AttackAttribute &>
PUBLIC	??$_Construct@UAttackAttribute@@ABU1@@std@@YAXPAUAttackAttribute@@ABU1@@Z ; std::_Construct<AttackAttribute,AttackAttribute const &>
;	COMDAT xdata$x
; File c:\program files (x86)\microsoft visual studio 10.0\vc\include\utility
xdata$x	SEGMENT
__unwindtable$??$_Construct@UAttackAttribute@@ABU1@@std@@YAXPAUAttackAttribute@@ABU1@@Z DD 0ffffffffH
	DD	FLAT:__unwindfunclet$??$_Construct@UAttackAttribute@@ABU1@@std@@YAXPAUAttackAttribute@@ABU1@@Z$0
__ehfuncinfo$??$_Construct@UAttackAttribute@@ABU1@@std@@YAXPAUAttackAttribute@@ABU1@@Z DD 019930522H
	DD	01H
	DD	FLAT:__unwindtable$??$_Construct@UAttackAttribute@@ABU1@@std@@YAXPAUAttackAttribute@@ABU1@@Z
	DD	2 DUP(00H)
	DD	2 DUP(00H)
	DD	00H
	DD	01H
; Function compile flags: /Ogsp
; File c:\program files (x86)\microsoft visual studio 10.0\vc\include\xmemory
xdata$x	ENDS
;	COMDAT ??$_Construct@UAttackAttribute@@ABU1@@std@@YAXPAUAttackAttribute@@ABU1@@Z
_TEXT	SEGMENT
$T514383 = -16						; size = 4
__$EHRec$ = -12						; size = 12
__Vptr$ = 8						; size = 4
__Ptr$ = 8						; size = 4
__Val$ = 12						; size = 4
??$_Construct@UAttackAttribute@@ABU1@@std@@YAXPAUAttackAttribute@@ABU1@@Z PROC ; std::_Construct<AttackAttribute,AttackAttribute const &>, COMDAT

; 46   : 	{	// construct object at _Ptr with value _Val

  00000	6a 04		 push	 4
  00002	b8 00 00 00 00	 mov	 eax, __ehhandler$??$_Construct@UAttackAttribute@@ABU1@@std@@YAXPAUAttackAttribute@@ABU1@@Z
  00007	e8 00 00 00 00	 call	 __EH_prolog3

; 47   : 	void _FARQ *_Vptr = _Ptr;

  0000c	8b 4d 08	 mov	 ecx, DWORD PTR __Ptr$[ebp]
  0000f	89 4d 08	 mov	 DWORD PTR __Vptr$[ebp], ecx

; 48   : 	::new (_Vptr) _Ty1(_STD forward<_Ty2>(_Val));

  00012	89 4d f0	 mov	 DWORD PTR $T514383[ebp], ecx
  00015	83 65 fc 00	 and	 DWORD PTR __$EHRec$[ebp+8], 0
  00019	85 c9		 test	 ecx, ecx
  0001b	74 08		 je	 SHORT $LN3@Construct@3
  0001d	ff 75 0c	 push	 DWORD PTR __Val$[ebp]
  00020	e8 00 00 00 00	 call	 ??0AttackAttribute@@QAE@ABU0@@Z
$LN3@Construct@3:

; 49   : 	}

  00025	e8 00 00 00 00	 call	 __EH_epilog3
  0002a	c3		 ret	 0
_TEXT	ENDS
;	COMDAT text$x
text$x	SEGMENT
__unwindfunclet$??$_Construct@UAttackAttribute@@ABU1@@std@@YAXPAUAttackAttribute@@ABU1@@Z$0:
  00000	ff 75 08	 push	 DWORD PTR __Vptr$[ebp]
  00003	ff 75 f0	 push	 DWORD PTR $T514383[ebp]
  00006	e8 00 00 00 00	 call	 ??3@YAXPAX0@Z		; operator delete
  0000b	59		 pop	 ecx
  0000c	59		 pop	 ecx
  0000d	c3		 ret	 0
__ehhandler$??$_Construct@UAttackAttribute@@ABU1@@std@@YAXPAUAttackAttribute@@ABU1@@Z:
  0000e	8b 54 24 08	 mov	 edx, DWORD PTR [esp+8]
  00012	8d 42 0c	 lea	 eax, DWORD PTR [edx+12]
  00015	8b 4a ec	 mov	 ecx, DWORD PTR [edx-20]
  00018	33 c8		 xor	 ecx, eax
  0001a	e8 00 00 00 00	 call	 @__security_check_cookie@4
  0001f	b8 00 00 00 00	 mov	 eax, OFFSET __ehfuncinfo$??$_Construct@UAttackAttribute@@ABU1@@std@@YAXPAUAttackAttribute@@ABU1@@Z
  00024	e9 00 00 00 00	 jmp	 ___CxxFrameHandler3
text$x	ENDS
??$_Construct@UAttackAttribute@@ABU1@@std@@YAXPAUAttackAttribute@@ABU1@@Z ENDP ; std::_Construct<AttackAttribute,AttackAttribute const &>
PUBLIC	??$_Cons_val@V?$allocator@UAttackAttribute@@@std@@UAttackAttribute@@U3@@std@@YAXAAV?$allocator@UAttackAttribute@@@0@PAUAttackAttribute@@$$QAU2@@Z ; std::_Cons_val<std::allocator<AttackAttribute>,AttackAttribute,AttackAttribute>
;	COMDAT xdata$x
; File c:\program files (x86)\microsoft visual studio 10.0\vc\include\utility
xdata$x	SEGMENT
__unwindtable$??$_Cons_val@V?$allocator@UAttackAttribute@@@std@@UAttackAttribute@@U3@@std@@YAXAAV?$allocator@UAttackAttribute@@@0@PAUAttackAttribute@@$$QAU2@@Z DD 0ffffffffH
	DD	FLAT:__unwindfunclet$??$_Cons_val@V?$allocator@UAttackAttribute@@@std@@UAttackAttribute@@U3@@std@@YAXAAV?$allocator@UAttackAttribute@@@0@PAUAttackAttribute@@$$QAU2@@Z$0
__ehfuncinfo$??$_Cons_val@V?$allocator@UAttackAttribute@@@std@@UAttackAttribute@@U3@@std@@YAXAAV?$allocator@UAttackAttribute@@@0@PAUAttackAttribute@@$$QAU2@@Z DD 019930522H
	DD	01H
	DD	FLAT:__unwindtable$??$_Cons_val@V?$allocator@UAttackAttribute@@@std@@UAttackAttribute@@U3@@std@@YAXAAV?$allocator@UAttackAttribute@@@0@PAUAttackAttribute@@$$QAU2@@Z
	DD	2 DUP(00H)
	DD	2 DUP(00H)
	DD	00H
	DD	01H
; Function compile flags: /Ogsp
; File c:\program files (x86)\microsoft visual studio 10.0\vc\include\xmemory
xdata$x	ENDS
;	COMDAT ??$_Cons_val@V?$allocator@UAttackAttribute@@@std@@UAttackAttribute@@U3@@std@@YAXAAV?$allocator@UAttackAttribute@@@0@PAUAttackAttribute@@$$QAU2@@Z
_TEXT	SEGMENT
$T514418 = -16						; size = 4
__$EHRec$ = -12						; size = 12
__Alval$ = 8						; size = 4
__Pdest$ = 12						; size = 4
__Src$ = 16						; size = 4
??$_Cons_val@V?$allocator@UAttackAttribute@@@std@@UAttackAttribute@@U3@@std@@YAXAAV?$allocator@UAttackAttribute@@@0@PAUAttackAttribute@@$$QAU2@@Z PROC ; std::_Cons_val<std::allocator<AttackAttribute>,AttackAttribute,AttackAttribute>, COMDAT

; 279  : 	{	// construct using allocator

  00000	6a 04		 push	 4
  00002	b8 00 00 00 00	 mov	 eax, __ehhandler$??$_Cons_val@V?$allocator@UAttackAttribute@@@std@@UAttackAttribute@@U3@@std@@YAXAAV?$allocator@UAttackAttribute@@@0@PAUAttackAttribute@@$$QAU2@@Z
  00007	e8 00 00 00 00	 call	 __EH_prolog3

; 280  : 	_Alval.construct(_Pdest, _STD forward<_Ty2>(_Src));

  0000c	8b 4d 0c	 mov	 ecx, DWORD PTR __Pdest$[ebp]
  0000f	89 4d f0	 mov	 DWORD PTR $T514418[ebp], ecx
  00012	83 65 fc 00	 and	 DWORD PTR __$EHRec$[ebp+8], 0
  00016	85 c9		 test	 ecx, ecx
  00018	74 08		 je	 SHORT $LN7@Cons_val@4
  0001a	ff 75 10	 push	 DWORD PTR __Src$[ebp]
  0001d	e8 00 00 00 00	 call	 ??0AttackAttribute@@QAE@ABU0@@Z
$LN7@Cons_val@4:

; 281  : 	}

  00022	e8 00 00 00 00	 call	 __EH_epilog3
  00027	c3		 ret	 0
_TEXT	ENDS
;	COMDAT text$x
text$x	SEGMENT
__unwindfunclet$??$_Cons_val@V?$allocator@UAttackAttribute@@@std@@UAttackAttribute@@U3@@std@@YAXAAV?$allocator@UAttackAttribute@@@0@PAUAttackAttribute@@$$QAU2@@Z$0:
  00000	ff 75 0c	 push	 DWORD PTR __Pdest$[ebp]
  00003	ff 75 f0	 push	 DWORD PTR $T514418[ebp]
  00006	e8 00 00 00 00	 call	 ??3@YAXPAX0@Z		; operator delete
  0000b	59		 pop	 ecx
  0000c	59		 pop	 ecx
  0000d	c3		 ret	 0
__ehhandler$??$_Cons_val@V?$allocator@UAttackAttribute@@@std@@UAttackAttribute@@U3@@std@@YAXAAV?$allocator@UAttackAttribute@@@0@PAUAttackAttribute@@$$QAU2@@Z:
  0000e	8b 54 24 08	 mov	 edx, DWORD PTR [esp+8]
  00012	8d 42 0c	 lea	 eax, DWORD PTR [edx+12]
  00015	8b 4a ec	 mov	 ecx, DWORD PTR [edx-20]
  00018	33 c8		 xor	 ecx, eax
  0001a	e8 00 00 00 00	 call	 @__security_check_cookie@4
  0001f	b8 00 00 00 00	 mov	 eax, OFFSET __ehfuncinfo$??$_Cons_val@V?$allocator@UAttackAttribute@@@std@@UAttackAttribute@@U3@@std@@YAXAAV?$allocator@UAttackAttribute@@@0@PAUAttackAttribute@@$$QAU2@@Z
  00024	e9 00 00 00 00	 jmp	 ___CxxFrameHandler3
text$x	ENDS
??$_Cons_val@V?$allocator@UAttackAttribute@@@std@@UAttackAttribute@@U3@@std@@YAXAAV?$allocator@UAttackAttribute@@@0@PAUAttackAttribute@@$$QAU2@@Z ENDP ; std::_Cons_val<std::allocator<AttackAttribute>,AttackAttribute,AttackAttribute>
PUBLIC	??$_Move@PAUAttackAttribute@@PAU1@@std@@YAPAUAttackAttribute@@PAU1@00U_Nonscalar_ptr_iterator_tag@0@@Z ; std::_Move<AttackAttribute *,AttackAttribute *>
; Function compile flags: /Ogsp
; File c:\program files (x86)\microsoft visual studio 10.0\vc\include\xutility
;	COMDAT ??$_Move@PAUAttackAttribute@@PAU1@@std@@YAPAUAttackAttribute@@PAU1@00U_Nonscalar_ptr_iterator_tag@0@@Z
_TEXT	SEGMENT
__First$ = 8						; size = 4
__Last$ = 12						; size = 4
__Dest$ = 16						; size = 4
___formal$ = 20						; size = 1
??$_Move@PAUAttackAttribute@@PAU1@@std@@YAPAUAttackAttribute@@PAU1@00U_Nonscalar_ptr_iterator_tag@0@@Z PROC ; std::_Move<AttackAttribute *,AttackAttribute *>, COMDAT

; 2512 : 	{	// move [_First, _Last) to [_Dest, ...), arbitrary iterators

  00000	55		 push	 ebp
  00001	8b ec		 mov	 ebp, esp
  00003	56		 push	 esi

; 2513 : 	for (; _First != _Last; ++_Dest, ++_First)

  00004	8b 75 08	 mov	 esi, DWORD PTR __First$[ebp]
  00007	eb 10		 jmp	 SHORT $LN11@Move@3
$LL3@Move@3:

; 2514 : 		*_Dest = _STD move(*_First);

  00009	8b 4d 10	 mov	 ecx, DWORD PTR __Dest$[ebp]
  0000c	56		 push	 esi
  0000d	e8 00 00 00 00	 call	 ??4AttackAttribute@@QAEAAU0@ABU0@@Z
  00012	83 45 10 50	 add	 DWORD PTR __Dest$[ebp], 80 ; 00000050H
  00016	83 c6 50	 add	 esi, 80			; 00000050H
$LN11@Move@3:

; 2513 : 	for (; _First != _Last; ++_Dest, ++_First)

  00019	3b 75 0c	 cmp	 esi, DWORD PTR __Last$[ebp]
  0001c	75 eb		 jne	 SHORT $LL3@Move@3

; 2515 : 	return (_Dest);

  0001e	8b 45 10	 mov	 eax, DWORD PTR __Dest$[ebp]
  00021	5e		 pop	 esi

; 2516 : 	}

  00022	5d		 pop	 ebp
  00023	c3		 ret	 0
??$_Move@PAUAttackAttribute@@PAU1@@std@@YAPAUAttackAttribute@@PAU1@00U_Nonscalar_ptr_iterator_tag@0@@Z ENDP ; std::_Move<AttackAttribute *,AttackAttribute *>
_TEXT	ENDS
PUBLIC	??$_Destroy@UAttackAttribute@@@std@@YAXPAUAttackAttribute@@@Z ; std::_Destroy<AttackAttribute>
; Function compile flags: /Ogsp
; File c:\program files (x86)\microsoft visual studio 10.0\vc\include\xmemory
;	COMDAT ??$_Destroy@UAttackAttribute@@@std@@YAXPAUAttackAttribute@@@Z
_TEXT	SEGMENT
__Ptr$ = 8						; size = 4
??$_Destroy@UAttackAttribute@@@std@@YAXPAUAttackAttribute@@@Z PROC ; std::_Destroy<AttackAttribute>, COMDAT

; 62   : 	{	// destroy object at _Ptr

  00000	55		 push	 ebp
  00001	8b ec		 mov	 ebp, esp

; 63   : 	_Ptr->~_Ty();

  00003	8b 4d 08	 mov	 ecx, DWORD PTR __Ptr$[ebp]

; 64   : 	}

  00006	5d		 pop	 ebp

; 63   : 	_Ptr->~_Ty();

  00007	e9 00 00 00 00	 jmp	 ??1AttackAttribute@@QAE@XZ
??$_Destroy@UAttackAttribute@@@std@@YAXPAUAttackAttribute@@@Z ENDP ; std::_Destroy<AttackAttribute>
_TEXT	ENDS
PUBLIC	??$_Cons_val@V?$allocator@UAttackAttribute@@@std@@UAttackAttribute@@AAU3@@std@@YAXAAV?$allocator@UAttackAttribute@@@0@PAUAttackAttribute@@AAU2@@Z ; std::_Cons_val<std::allocator<AttackAttribute>,AttackAttribute,AttackAttribute &>
;	COMDAT xdata$x
; File c:\program files (x86)\microsoft visual studio 10.0\vc\include\utility
xdata$x	SEGMENT
__unwindtable$??$_Cons_val@V?$allocator@UAttackAttribute@@@std@@UAttackAttribute@@AAU3@@std@@YAXAAV?$allocator@UAttackAttribute@@@0@PAUAttackAttribute@@AAU2@@Z DD 0ffffffffH
	DD	FLAT:__unwindfunclet$??$_Cons_val@V?$allocator@UAttackAttribute@@@std@@UAttackAttribute@@AAU3@@std@@YAXAAV?$allocator@UAttackAttribute@@@0@PAUAttackAttribute@@AAU2@@Z$0
__ehfuncinfo$??$_Cons_val@V?$allocator@UAttackAttribute@@@std@@UAttackAttribute@@AAU3@@std@@YAXAAV?$allocator@UAttackAttribute@@@0@PAUAttackAttribute@@AAU2@@Z DD 019930522H
	DD	01H
	DD	FLAT:__unwindtable$??$_Cons_val@V?$allocator@UAttackAttribute@@@std@@UAttackAttribute@@AAU3@@std@@YAXAAV?$allocator@UAttackAttribute@@@0@PAUAttackAttribute@@AAU2@@Z
	DD	2 DUP(00H)
	DD	2 DUP(00H)
	DD	00H
	DD	01H
; Function compile flags: /Ogsp
; File c:\program files (x86)\microsoft visual studio 10.0\vc\include\xmemory
xdata$x	ENDS
;	COMDAT ??$_Cons_val@V?$allocator@UAttackAttribute@@@std@@UAttackAttribute@@AAU3@@std@@YAXAAV?$allocator@UAttackAttribute@@@0@PAUAttackAttribute@@AAU2@@Z
_TEXT	SEGMENT
$T514469 = -16						; size = 4
__$EHRec$ = -12						; size = 12
__Alval$ = 8						; size = 4
__Pdest$ = 12						; size = 4
__Src$ = 16						; size = 4
??$_Cons_val@V?$allocator@UAttackAttribute@@@std@@UAttackAttribute@@AAU3@@std@@YAXAAV?$allocator@UAttackAttribute@@@0@PAUAttackAttribute@@AAU2@@Z PROC ; std::_Cons_val<std::allocator<AttackAttribute>,AttackAttribute,AttackAttribute &>, COMDAT

; 279  : 	{	// construct using allocator

  00000	6a 04		 push	 4
  00002	b8 00 00 00 00	 mov	 eax, __ehhandler$??$_Cons_val@V?$allocator@UAttackAttribute@@@std@@UAttackAttribute@@AAU3@@std@@YAXAAV?$allocator@UAttackAttribute@@@0@PAUAttackAttribute@@AAU2@@Z
  00007	e8 00 00 00 00	 call	 __EH_prolog3

; 280  : 	_Alval.construct(_Pdest, _STD forward<_Ty2>(_Src));

  0000c	8b 4d 0c	 mov	 ecx, DWORD PTR __Pdest$[ebp]
  0000f	89 4d f0	 mov	 DWORD PTR $T514469[ebp], ecx
  00012	83 65 fc 00	 and	 DWORD PTR __$EHRec$[ebp+8], 0
  00016	85 c9		 test	 ecx, ecx
  00018	74 08		 je	 SHORT $LN7@Cons_val@5
  0001a	ff 75 10	 push	 DWORD PTR __Src$[ebp]
  0001d	e8 00 00 00 00	 call	 ??0AttackAttribute@@QAE@ABU0@@Z
$LN7@Cons_val@5:

; 281  : 	}

  00022	e8 00 00 00 00	 call	 __EH_epilog3
  00027	c3		 ret	 0
_TEXT	ENDS
;	COMDAT text$x
text$x	SEGMENT
__unwindfunclet$??$_Cons_val@V?$allocator@UAttackAttribute@@@std@@UAttackAttribute@@AAU3@@std@@YAXAAV?$allocator@UAttackAttribute@@@0@PAUAttackAttribute@@AAU2@@Z$0:
  00000	ff 75 0c	 push	 DWORD PTR __Pdest$[ebp]
  00003	ff 75 f0	 push	 DWORD PTR $T514469[ebp]
  00006	e8 00 00 00 00	 call	 ??3@YAXPAX0@Z		; operator delete
  0000b	59		 pop	 ecx
  0000c	59		 pop	 ecx
  0000d	c3		 ret	 0
__ehhandler$??$_Cons_val@V?$allocator@UAttackAttribute@@@std@@UAttackAttribute@@AAU3@@std@@YAXAAV?$allocator@UAttackAttribute@@@0@PAUAttackAttribute@@AAU2@@Z:
  0000e	8b 54 24 08	 mov	 edx, DWORD PTR [esp+8]
  00012	8d 42 0c	 lea	 eax, DWORD PTR [edx+12]
  00015	8b 4a ec	 mov	 ecx, DWORD PTR [edx-20]
  00018	33 c8		 xor	 ecx, eax
  0001a	e8 00 00 00 00	 call	 @__security_check_cookie@4
  0001f	b8 00 00 00 00	 mov	 eax, OFFSET __ehfuncinfo$??$_Cons_val@V?$allocator@UAttackAttribute@@@std@@UAttackAttribute@@AAU3@@std@@YAXAAV?$allocator@UAttackAttribute@@@0@PAUAttackAttribute@@AAU2@@Z
  00024	e9 00 00 00 00	 jmp	 ___CxxFrameHandler3
text$x	ENDS
??$_Cons_val@V?$allocator@UAttackAttribute@@@std@@UAttackAttribute@@AAU3@@std@@YAXAAV?$allocator@UAttackAttribute@@@0@PAUAttackAttribute@@AAU2@@Z ENDP ; std::_Cons_val<std::allocator<AttackAttribute>,AttackAttribute,AttackAttribute &>
PUBLIC	?construct@?$allocator@UAttackAttribute@@@std@@QAEXPAUAttackAttribute@@ABU3@@Z ; std::allocator<AttackAttribute>::construct
; Function compile flags: /Ogsp
;	COMDAT ?construct@?$allocator@UAttackAttribute@@@std@@QAEXPAUAttackAttribute@@ABU3@@Z
_TEXT	SEGMENT
__Ptr$ = 8						; size = 4
__Val$ = 12						; size = 4
?construct@?$allocator@UAttackAttribute@@@std@@QAEXPAUAttackAttribute@@ABU3@@Z PROC ; std::allocator<AttackAttribute>::construct, COMDAT
; _this$ = ecx

; 196  : 		{	// construct object at _Ptr with value _Val

  00000	55		 push	 ebp
  00001	8b ec		 mov	 ebp, esp

; 197  : 		_Construct(_Ptr, _Val);

  00003	ff 75 0c	 push	 DWORD PTR __Val$[ebp]
  00006	ff 75 08	 push	 DWORD PTR __Ptr$[ebp]
  00009	e8 00 00 00 00	 call	 ??$_Construct@UAttackAttribute@@ABU1@@std@@YAXPAUAttackAttribute@@ABU1@@Z ; std::_Construct<AttackAttribute,AttackAttribute const &>
  0000e	59		 pop	 ecx
  0000f	59		 pop	 ecx

; 198  : 		}

  00010	5d		 pop	 ebp
  00011	c2 08 00	 ret	 8
?construct@?$allocator@UAttackAttribute@@@std@@QAEXPAUAttackAttribute@@ABU3@@Z ENDP ; std::allocator<AttackAttribute>::construct
_TEXT	ENDS
PUBLIC	??$_Move@PAUAttackAttribute@@PAU1@@std@@YAPAUAttackAttribute@@PAU1@00@Z ; std::_Move<AttackAttribute *,AttackAttribute *>
; Function compile flags: /Ogsp
; File c:\program files (x86)\microsoft visual studio 10.0\vc\include\xutility
;	COMDAT ??$_Move@PAUAttackAttribute@@PAU1@@std@@YAPAUAttackAttribute@@PAU1@00@Z
_TEXT	SEGMENT
__Cat$514490 = -4					; size = 1
__First$ = 8						; size = 4
__Last$ = 12						; size = 4
__Dest$ = 16						; size = 4
??$_Move@PAUAttackAttribute@@PAU1@@std@@YAPAUAttackAttribute@@PAU1@00@Z PROC ; std::_Move<AttackAttribute *,AttackAttribute *>, COMDAT

; 2533 : 	{	// move [_First, _Last) to [_Dest, ...), unchecked

  00000	55		 push	 ebp
  00001	8b ec		 mov	 ebp, esp
  00003	51		 push	 ecx

; 2534 : 	return (_Move(_First, _Last,
; 2535 : 		_Dest, _Ptr_cat(_First, _Dest)));

  00004	ff 75 fc	 push	 DWORD PTR __Cat$514490[ebp]
  00007	ff 75 10	 push	 DWORD PTR __Dest$[ebp]
  0000a	ff 75 0c	 push	 DWORD PTR __Last$[ebp]
  0000d	ff 75 08	 push	 DWORD PTR __First$[ebp]
  00010	e8 00 00 00 00	 call	 ??$_Move@PAUAttackAttribute@@PAU1@@std@@YAPAUAttackAttribute@@PAU1@00U_Nonscalar_ptr_iterator_tag@0@@Z ; std::_Move<AttackAttribute *,AttackAttribute *>
  00015	83 c4 10	 add	 esp, 16			; 00000010H

; 2536 : 	}

  00018	c9		 leave
  00019	c3		 ret	 0
??$_Move@PAUAttackAttribute@@PAU1@@std@@YAPAUAttackAttribute@@PAU1@00@Z ENDP ; std::_Move<AttackAttribute *,AttackAttribute *>
_TEXT	ENDS
PUBLIC	?destroy@?$allocator@UAttackAttribute@@@std@@QAEXPAUAttackAttribute@@@Z ; std::allocator<AttackAttribute>::destroy
; Function compile flags: /Ogsp
; File c:\program files (x86)\microsoft visual studio 10.0\vc\include\xmemory
;	COMDAT ?destroy@?$allocator@UAttackAttribute@@@std@@QAEXPAUAttackAttribute@@@Z
_TEXT	SEGMENT
__Ptr$ = 8						; size = 4
?destroy@?$allocator@UAttackAttribute@@@std@@QAEXPAUAttackAttribute@@@Z PROC ; std::allocator<AttackAttribute>::destroy, COMDAT
; _this$ = ecx

; 212  : 		{	// destroy object at _Ptr

  00000	55		 push	 ebp
  00001	8b ec		 mov	 ebp, esp

; 213  : 		_Destroy(_Ptr);

  00003	8b 4d 08	 mov	 ecx, DWORD PTR __Ptr$[ebp]
  00006	e8 00 00 00 00	 call	 ??1AttackAttribute@@QAE@XZ

; 214  : 		}

  0000b	5d		 pop	 ebp
  0000c	c2 04 00	 ret	 4
?destroy@?$allocator@UAttackAttribute@@@std@@QAEXPAUAttackAttribute@@@Z ENDP ; std::allocator<AttackAttribute>::destroy
_TEXT	ENDS
PUBLIC	??$_Cons_val@V?$allocator@UAttackAttribute@@@std@@UAttackAttribute@@ABU3@@std@@YAXAAV?$allocator@UAttackAttribute@@@0@PAUAttackAttribute@@ABU2@@Z ; std::_Cons_val<std::allocator<AttackAttribute>,AttackAttribute,AttackAttribute const &>
; Function compile flags: /Ogsp
;	COMDAT ??$_Cons_val@V?$allocator@UAttackAttribute@@@std@@UAttackAttribute@@ABU3@@std@@YAXAAV?$allocator@UAttackAttribute@@@0@PAUAttackAttribute@@ABU2@@Z
_TEXT	SEGMENT
__Alval$ = 8						; size = 4
__Pdest$ = 12						; size = 4
__Src$ = 16						; size = 4
??$_Cons_val@V?$allocator@UAttackAttribute@@@std@@UAttackAttribute@@ABU3@@std@@YAXAAV?$allocator@UAttackAttribute@@@0@PAUAttackAttribute@@ABU2@@Z PROC ; std::_Cons_val<std::allocator<AttackAttribute>,AttackAttribute,AttackAttribute const &>, COMDAT

; 279  : 	{	// construct using allocator

  00000	55		 push	 ebp
  00001	8b ec		 mov	 ebp, esp

; 280  : 	_Alval.construct(_Pdest, _STD forward<_Ty2>(_Src));

  00003	ff 75 10	 push	 DWORD PTR __Src$[ebp]
  00006	ff 75 0c	 push	 DWORD PTR __Pdest$[ebp]
  00009	e8 00 00 00 00	 call	 ??$_Construct@UAttackAttribute@@ABU1@@std@@YAXPAUAttackAttribute@@ABU1@@Z ; std::_Construct<AttackAttribute,AttackAttribute const &>
  0000e	59		 pop	 ecx
  0000f	59		 pop	 ecx

; 281  : 	}

  00010	5d		 pop	 ebp
  00011	c3		 ret	 0
??$_Cons_val@V?$allocator@UAttackAttribute@@@std@@UAttackAttribute@@ABU3@@std@@YAXAAV?$allocator@UAttackAttribute@@@0@PAUAttackAttribute@@ABU2@@Z ENDP ; std::_Cons_val<std::allocator<AttackAttribute>,AttackAttribute,AttackAttribute const &>
_TEXT	ENDS
PUBLIC	??$_Dest_val@V?$allocator@UAttackAttribute@@@std@@UAttackAttribute@@@std@@YAXAAV?$allocator@UAttackAttribute@@@0@PAUAttackAttribute@@@Z ; std::_Dest_val<std::allocator<AttackAttribute>,AttackAttribute>
; Function compile flags: /Ogsp
;	COMDAT ??$_Dest_val@V?$allocator@UAttackAttribute@@@std@@UAttackAttribute@@@std@@YAXAAV?$allocator@UAttackAttribute@@@0@PAUAttackAttribute@@@Z
_TEXT	SEGMENT
__Alval$ = 8						; size = 4
__Pdest$ = 12						; size = 4
??$_Dest_val@V?$allocator@UAttackAttribute@@@std@@UAttackAttribute@@@std@@YAXAAV?$allocator@UAttackAttribute@@@0@PAUAttackAttribute@@@Z PROC ; std::_Dest_val<std::allocator<AttackAttribute>,AttackAttribute>, COMDAT

; 286  : 	{	// destroy using allocator

  00000	55		 push	 ebp
  00001	8b ec		 mov	 ebp, esp

; 287  : 	_Alval.destroy(_Pdest);

  00003	8b 4d 0c	 mov	 ecx, DWORD PTR __Pdest$[ebp]

; 288  : 	}

  00006	5d		 pop	 ebp

; 287  : 	_Alval.destroy(_Pdest);

  00007	e9 00 00 00 00	 jmp	 ??1AttackAttribute@@QAE@XZ
??$_Dest_val@V?$allocator@UAttackAttribute@@@std@@UAttackAttribute@@@std@@YAXAAV?$allocator@UAttackAttribute@@@0@PAUAttackAttribute@@@Z ENDP ; std::_Dest_val<std::allocator<AttackAttribute>,AttackAttribute>
_TEXT	ENDS
PUBLIC	??$_Uninit_move@PAUAttackAttribute@@PAU1@V?$allocator@UAttackAttribute@@@std@@U1@@std@@YAPAUAttackAttribute@@PAU1@00AAV?$allocator@UAttackAttribute@@@0@0U_Nonscalar_ptr_iterator_tag@0@@Z ; std::_Uninit_move<AttackAttribute *,AttackAttribute *,std::allocator<AttackAttribute>,AttackAttribute>
;	COMDAT xdata$x
; File c:\program files (x86)\microsoft visual studio 10.0\vc\include\vector
xdata$x	SEGMENT
__catchsym$??$_Uninit_move@PAUAttackAttribute@@PAU1@V?$allocator@UAttackAttribute@@@std@@U1@@std@@YAPAUAttackAttribute@@PAU1@00AAV?$allocator@UAttackAttribute@@@0@0U_Nonscalar_ptr_iterator_tag@0@@Z$2 DD 040H
	DD	00H
	DD	00H
	DD	FLAT:__catch$??$_Uninit_move@PAUAttackAttribute@@PAU1@V?$allocator@UAttackAttribute@@@std@@U1@@std@@YAPAUAttackAttribute@@PAU1@00AAV?$allocator@UAttackAttribute@@@0@0U_Nonscalar_ptr_iterator_tag@0@@Z$0
__unwindtable$??$_Uninit_move@PAUAttackAttribute@@PAU1@V?$allocator@UAttackAttribute@@@std@@U1@@std@@YAPAUAttackAttribute@@PAU1@00AAV?$allocator@UAttackAttribute@@@0@0U_Nonscalar_ptr_iterator_tag@0@@Z DD 0ffffffffH
	DD	00H
	DD	0ffffffffH
	DD	00H
__tryblocktable$??$_Uninit_move@PAUAttackAttribute@@PAU1@V?$allocator@UAttackAttribute@@@std@@U1@@std@@YAPAUAttackAttribute@@PAU1@00AAV?$allocator@UAttackAttribute@@@0@0U_Nonscalar_ptr_iterator_tag@0@@Z DD 00H
	DD	00H
	DD	01H
	DD	01H
	DD	FLAT:__catchsym$??$_Uninit_move@PAUAttackAttribute@@PAU1@V?$allocator@UAttackAttribute@@@std@@U1@@std@@YAPAUAttackAttribute@@PAU1@00AAV?$allocator@UAttackAttribute@@@0@0U_Nonscalar_ptr_iterator_tag@0@@Z$2
__ehfuncinfo$??$_Uninit_move@PAUAttackAttribute@@PAU1@V?$allocator@UAttackAttribute@@@std@@U1@@std@@YAPAUAttackAttribute@@PAU1@00AAV?$allocator@UAttackAttribute@@@0@0U_Nonscalar_ptr_iterator_tag@0@@Z DD 019930522H
	DD	02H
	DD	FLAT:__unwindtable$??$_Uninit_move@PAUAttackAttribute@@PAU1@V?$allocator@UAttackAttribute@@@std@@U1@@std@@YAPAUAttackAttribute@@PAU1@00AAV?$allocator@UAttackAttribute@@@0@0U_Nonscalar_ptr_iterator_tag@0@@Z
	DD	01H
	DD	FLAT:__tryblocktable$??$_Uninit_move@PAUAttackAttribute@@PAU1@V?$allocator@UAttackAttribute@@@std@@U1@@std@@YAPAUAttackAttribute@@PAU1@00AAV?$allocator@UAttackAttribute@@@0@0U_Nonscalar_ptr_iterator_tag@0@@Z
	DD	2 DUP(00H)
	DD	00H
	DD	01H
; Function compile flags: /Ogsp
; File c:\program files (x86)\microsoft visual studio 10.0\vc\include\memory
xdata$x	ENDS
;	COMDAT ??$_Uninit_move@PAUAttackAttribute@@PAU1@V?$allocator@UAttackAttribute@@@std@@U1@@std@@YAPAUAttackAttribute@@PAU1@00AAV?$allocator@UAttackAttribute@@@0@0U_Nonscalar_ptr_iterator_tag@0@@Z
_TEXT	SEGMENT
__Next$ = -20						; size = 4
__$EHRec$ = -16						; size = 16
__First$ = 8						; size = 4
__Last$ = 12						; size = 4
__Dest$ = 16						; size = 4
__Al$ = 20						; size = 4
___formal$ = 24						; size = 4
___formal$ = 28						; size = 1
??$_Uninit_move@PAUAttackAttribute@@PAU1@V?$allocator@UAttackAttribute@@@std@@U1@@std@@YAPAUAttackAttribute@@PAU1@00AAV?$allocator@UAttackAttribute@@@0@0U_Nonscalar_ptr_iterator_tag@0@@Z PROC ; std::_Uninit_move<AttackAttribute *,AttackAttribute *,std::allocator<AttackAttribute>,AttackAttribute>, COMDAT

; 424  : 	{	// move [_First, _Last) to raw _Dest, using _Al, arbitrary type

  00000	6a 08		 push	 8
  00002	b8 00 00 00 00	 mov	 eax, __ehhandler$??$_Uninit_move@PAUAttackAttribute@@PAU1@V?$allocator@UAttackAttribute@@@std@@U1@@std@@YAPAUAttackAttribute@@PAU1@00AAV?$allocator@UAttackAttribute@@@0@0U_Nonscalar_ptr_iterator_tag@0@@Z
  00007	e8 00 00 00 00	 call	 __EH_prolog3_catch

; 425  : 	_DEBUG_RANGE(_First, _Last);
; 426  : 	_DEBUG_POINTER(_Dest);
; 427  : 	_FwdIt _Next = _Dest;

  0000c	8b 45 10	 mov	 eax, DWORD PTR __Dest$[ebp]

; 428  : 
; 429  : 	_TRY_BEGIN

  0000f	83 65 fc 00	 and	 DWORD PTR __$EHRec$[ebp+12], 0
  00013	8b 75 08	 mov	 esi, DWORD PTR __First$[ebp]
  00016	89 45 ec	 mov	 DWORD PTR __Next$[ebp], eax
$LL6@Uninit_mov:

; 430  : 	for (; _First != _Last; ++_Dest, ++_First)

  00019	3b 75 0c	 cmp	 esi, DWORD PTR __Last$[ebp]
  0001c	74 35		 je	 SHORT $LN4@Uninit_mov

; 431  : 		_Cons_val(_Al, _Dest, (_Valty &&)*_First);

  0001e	56		 push	 esi
  0001f	ff 75 10	 push	 DWORD PTR __Dest$[ebp]
  00022	ff 75 14	 push	 DWORD PTR __Al$[ebp]
  00025	e8 00 00 00 00	 call	 ??$_Cons_val@V?$allocator@UAttackAttribute@@@std@@UAttackAttribute@@U3@@std@@YAXAAV?$allocator@UAttackAttribute@@@0@PAUAttackAttribute@@$$QAU2@@Z ; std::_Cons_val<std::allocator<AttackAttribute>,AttackAttribute,AttackAttribute>
  0002a	83 45 10 50	 add	 DWORD PTR __Dest$[ebp], 80 ; 00000050H
  0002e	83 c4 0c	 add	 esp, 12			; 0000000cH
  00031	83 c6 50	 add	 esi, 80			; 00000050H
  00034	eb e3		 jmp	 SHORT $LL6@Uninit_mov
__catch$??$_Uninit_move@PAUAttackAttribute@@PAU1@V?$allocator@UAttackAttribute@@@std@@U1@@std@@YAPAUAttackAttribute@@PAU1@00AAV?$allocator@UAttackAttribute@@@0@0U_Nonscalar_ptr_iterator_tag@0@@Z$0:

; 432  : 	_CATCH_ALL
; 433  : 	for (; _Next != _Dest; ++_Next)

  00036	8b 75 ec	 mov	 esi, DWORD PTR __Next$[ebp]
  00039	eb 0a		 jmp	 SHORT $LN29@Uninit_mov
$LL3@Uninit_mov:

; 434  : 		_Dest_val(_Al, _Next);

  0003b	8b ce		 mov	 ecx, esi
  0003d	e8 00 00 00 00	 call	 ??1AttackAttribute@@QAE@XZ
  00042	83 c6 50	 add	 esi, 80			; 00000050H
$LN29@Uninit_mov:

; 432  : 	_CATCH_ALL
; 433  : 	for (; _Next != _Dest; ++_Next)

  00045	3b 75 10	 cmp	 esi, DWORD PTR __Dest$[ebp]
  00048	75 f1		 jne	 SHORT $LL3@Uninit_mov

; 435  : 	_RERAISE;

  0004a	6a 00		 push	 0
  0004c	6a 00		 push	 0
  0004e	e8 00 00 00 00	 call	 __CxxThrowException@8
$LN30@Uninit_mov:
$LN4@Uninit_mov:

; 436  : 	_CATCH_END
; 437  : 	return (_Dest);

  00053	8b 45 10	 mov	 eax, DWORD PTR __Dest$[ebp]

; 438  : 	}

  00056	e8 00 00 00 00	 call	 __EH_epilog3
  0005b	c3		 ret	 0
$LN28@Uninit_mov:
_TEXT	ENDS
;	COMDAT text$x
text$x	SEGMENT
__ehhandler$??$_Uninit_move@PAUAttackAttribute@@PAU1@V?$allocator@UAttackAttribute@@@std@@U1@@std@@YAPAUAttackAttribute@@PAU1@00AAV?$allocator@UAttackAttribute@@@0@0U_Nonscalar_ptr_iterator_tag@0@@Z:
  00000	8b 54 24 08	 mov	 edx, DWORD PTR [esp+8]
  00004	8d 42 0c	 lea	 eax, DWORD PTR [edx+12]
  00007	8b 4a e8	 mov	 ecx, DWORD PTR [edx-24]
  0000a	33 c8		 xor	 ecx, eax
  0000c	e8 00 00 00 00	 call	 @__security_check_cookie@4
  00011	b8 00 00 00 00	 mov	 eax, OFFSET __ehfuncinfo$??$_Uninit_move@PAUAttackAttribute@@PAU1@V?$allocator@UAttackAttribute@@@std@@U1@@std@@YAPAUAttackAttribute@@PAU1@00AAV?$allocator@UAttackAttribute@@@0@0U_Nonscalar_ptr_iterator_tag@0@@Z
  00016	e9 00 00 00 00	 jmp	 ___CxxFrameHandler3
text$x	ENDS
??$_Uninit_move@PAUAttackAttribute@@PAU1@V?$allocator@UAttackAttribute@@@std@@U1@@std@@YAPAUAttackAttribute@@PAU1@00AAV?$allocator@UAttackAttribute@@@0@0U_Nonscalar_ptr_iterator_tag@0@@Z ENDP ; std::_Uninit_move<AttackAttribute *,AttackAttribute *,std::allocator<AttackAttribute>,AttackAttribute>
PUBLIC	??$_Destroy_range@V?$allocator@UAttackAttribute@@@std@@@std@@YAXPAUAttackAttribute@@0AAV?$allocator@UAttackAttribute@@@0@U_Nonscalar_ptr_iterator_tag@0@@Z ; std::_Destroy_range<std::allocator<AttackAttribute> >
; Function compile flags: /Ogsp
; File c:\program files (x86)\microsoft visual studio 10.0\vc\include\xmemory
;	COMDAT ??$_Destroy_range@V?$allocator@UAttackAttribute@@@std@@@std@@YAXPAUAttackAttribute@@0AAV?$allocator@UAttackAttribute@@@0@U_Nonscalar_ptr_iterator_tag@0@@Z
_TEXT	SEGMENT
__First$ = 8						; size = 4
__Last$ = 12						; size = 4
__Al$ = 16						; size = 4
___formal$ = 20						; size = 1
??$_Destroy_range@V?$allocator@UAttackAttribute@@@std@@@std@@YAXPAUAttackAttribute@@0AAV?$allocator@UAttackAttribute@@@0@U_Nonscalar_ptr_iterator_tag@0@@Z PROC ; std::_Destroy_range<std::allocator<AttackAttribute> >, COMDAT

; 95   : 	{	// destroy [_First, _Last), arbitrary type

  00000	55		 push	 ebp
  00001	8b ec		 mov	 ebp, esp
  00003	56		 push	 esi

; 96   : 	for (; _First != _Last; ++_First)

  00004	8b 75 08	 mov	 esi, DWORD PTR __First$[ebp]
  00007	eb 0a		 jmp	 SHORT $LN17@Destroy_ra@3
$LL3@Destroy_ra@3:

; 97   : 		_Dest_val(_Al, _First);

  00009	8b ce		 mov	 ecx, esi
  0000b	e8 00 00 00 00	 call	 ??1AttackAttribute@@QAE@XZ
  00010	83 c6 50	 add	 esi, 80			; 00000050H
$LN17@Destroy_ra@3:

; 96   : 	for (; _First != _Last; ++_First)

  00013	3b 75 0c	 cmp	 esi, DWORD PTR __Last$[ebp]
  00016	75 f1		 jne	 SHORT $LL3@Destroy_ra@3
  00018	5e		 pop	 esi

; 98   : 	}

  00019	5d		 pop	 ebp
  0001a	c3		 ret	 0
??$_Destroy_range@V?$allocator@UAttackAttribute@@@std@@@std@@YAXPAUAttackAttribute@@0AAV?$allocator@UAttackAttribute@@@0@U_Nonscalar_ptr_iterator_tag@0@@Z ENDP ; std::_Destroy_range<std::allocator<AttackAttribute> >
_TEXT	ENDS
PUBLIC	??$_Uninitialized_move@PAUAttackAttribute@@PAU1@V?$allocator@UAttackAttribute@@@std@@@std@@YAPAUAttackAttribute@@PAU1@00AAV?$allocator@UAttackAttribute@@@0@@Z ; std::_Uninitialized_move<AttackAttribute *,AttackAttribute *,std::allocator<AttackAttribute> >
; Function compile flags: /Ogsp
; File c:\program files (x86)\microsoft visual studio 10.0\vc\include\memory
;	COMDAT ??$_Uninitialized_move@PAUAttackAttribute@@PAU1@V?$allocator@UAttackAttribute@@@std@@@std@@YAPAUAttackAttribute@@PAU1@00AAV?$allocator@UAttackAttribute@@@0@@Z
_TEXT	SEGMENT
__Cat$514620 = -4					; size = 1
__First$ = 8						; size = 4
__Last$ = 12						; size = 4
__Dest$ = 16						; size = 4
__Al$ = 20						; size = 4
??$_Uninitialized_move@PAUAttackAttribute@@PAU1@V?$allocator@UAttackAttribute@@@std@@@std@@YAPAUAttackAttribute@@PAU1@00AAV?$allocator@UAttackAttribute@@@0@@Z PROC ; std::_Uninitialized_move<AttackAttribute *,AttackAttribute *,std::allocator<AttackAttribute> >, COMDAT

; 469  : 	{	// move [_First, _Last) to raw _Dest, using _Al

  00000	55		 push	 ebp
  00001	8b ec		 mov	 ebp, esp
  00003	51		 push	 ecx

; 470  : 	return (_Uninit_move(_First, _Last, _Dest, _Al,
; 471  : 		_Val_type(_First), _Ptr_cat(_First, _Dest)));

  00004	ff 75 fc	 push	 DWORD PTR __Cat$514620[ebp]
  00007	6a 00		 push	 0
  00009	ff 75 14	 push	 DWORD PTR __Al$[ebp]
  0000c	ff 75 10	 push	 DWORD PTR __Dest$[ebp]
  0000f	ff 75 0c	 push	 DWORD PTR __Last$[ebp]
  00012	ff 75 08	 push	 DWORD PTR __First$[ebp]
  00015	e8 00 00 00 00	 call	 ??$_Uninit_move@PAUAttackAttribute@@PAU1@V?$allocator@UAttackAttribute@@@std@@U1@@std@@YAPAUAttackAttribute@@PAU1@00AAV?$allocator@UAttackAttribute@@@0@0U_Nonscalar_ptr_iterator_tag@0@@Z ; std::_Uninit_move<AttackAttribute *,AttackAttribute *,std::allocator<AttackAttribute>,AttackAttribute>
  0001a	83 c4 18	 add	 esp, 24			; 00000018H

; 472  : 	}

  0001d	c9		 leave
  0001e	c3		 ret	 0
??$_Uninitialized_move@PAUAttackAttribute@@PAU1@V?$allocator@UAttackAttribute@@@std@@@std@@YAPAUAttackAttribute@@PAU1@00AAV?$allocator@UAttackAttribute@@@0@@Z ENDP ; std::_Uninitialized_move<AttackAttribute *,AttackAttribute *,std::allocator<AttackAttribute> >
_TEXT	ENDS
PUBLIC	??$_Destroy_range@V?$allocator@UAttackAttribute@@@std@@@std@@YAXPAUAttackAttribute@@0AAV?$allocator@UAttackAttribute@@@0@@Z ; std::_Destroy_range<std::allocator<AttackAttribute> >
; Function compile flags: /Ogsp
; File c:\program files (x86)\microsoft visual studio 10.0\vc\include\xmemory
;	COMDAT ??$_Destroy_range@V?$allocator@UAttackAttribute@@@std@@@std@@YAXPAUAttackAttribute@@0AAV?$allocator@UAttackAttribute@@@0@@Z
_TEXT	SEGMENT
__First$ = 8						; size = 4
__Last$ = 12						; size = 4
__Al$ = 16						; size = 4
??$_Destroy_range@V?$allocator@UAttackAttribute@@@std@@@std@@YAXPAUAttackAttribute@@0AAV?$allocator@UAttackAttribute@@@0@@Z PROC ; std::_Destroy_range<std::allocator<AttackAttribute> >, COMDAT

; 87   : 	{	// destroy [_First, _Last)

  00000	55		 push	 ebp
  00001	8b ec		 mov	 ebp, esp
  00003	56		 push	 esi

; 88   : 	_Destroy_range(_First, _Last, _Al, _Ptr_cat(_First, _Last));

  00004	8b 75 08	 mov	 esi, DWORD PTR __First$[ebp]
  00007	eb 0a		 jmp	 SHORT $LN21@Destroy_ra@4
$LL7@Destroy_ra@4:
  00009	8b ce		 mov	 ecx, esi
  0000b	e8 00 00 00 00	 call	 ??1AttackAttribute@@QAE@XZ
  00010	83 c6 50	 add	 esi, 80			; 00000050H
$LN21@Destroy_ra@4:
  00013	3b 75 0c	 cmp	 esi, DWORD PTR __Last$[ebp]
  00016	75 f1		 jne	 SHORT $LL7@Destroy_ra@4
  00018	5e		 pop	 esi

; 89   : 	}

  00019	5d		 pop	 ebp
  0001a	c3		 ret	 0
??$_Destroy_range@V?$allocator@UAttackAttribute@@@std@@@std@@YAXPAUAttackAttribute@@0AAV?$allocator@UAttackAttribute@@@0@@Z ENDP ; std::_Destroy_range<std::allocator<AttackAttribute> >
_TEXT	ENDS
PUBLIC	??$_Umove@PAUAttackAttribute@@@?$vector@UAttackAttribute@@V?$allocator@UAttackAttribute@@@std@@@std@@IAEPAUAttackAttribute@@PAU2@00@Z ; std::vector<AttackAttribute,std::allocator<AttackAttribute> >::_Umove<AttackAttribute *>
; Function compile flags: /Ogsp
; File c:\program files (x86)\microsoft visual studio 10.0\vc\include\vector
;	COMDAT ??$_Umove@PAUAttackAttribute@@@?$vector@UAttackAttribute@@V?$allocator@UAttackAttribute@@@std@@@std@@IAEPAUAttackAttribute@@PAU2@00@Z
_TEXT	SEGMENT
__First$ = 8						; size = 4
__Last$ = 12						; size = 4
__Ptr$ = 16						; size = 4
??$_Umove@PAUAttackAttribute@@@?$vector@UAttackAttribute@@V?$allocator@UAttackAttribute@@@std@@@std@@IAEPAUAttackAttribute@@PAU2@00@Z PROC ; std::vector<AttackAttribute,std::allocator<AttackAttribute> >::_Umove<AttackAttribute *>, COMDAT
; _this$ = ecx

; 1322 : 		pointer _Umove(_Iter _First, _Iter _Last, pointer _Ptr)

  00000	55		 push	 ebp
  00001	8b ec		 mov	 ebp, esp

; 1323 : 		{	// move initializing [_First, _Last), using allocator
; 1324 : 		return (_Uninitialized_move(_First, _Last,
; 1325 : 			_Ptr, this->_Alval));

  00003	83 c1 0c	 add	 ecx, 12			; 0000000cH
  00006	51		 push	 ecx
  00007	ff 75 10	 push	 DWORD PTR __Ptr$[ebp]
  0000a	ff 75 0c	 push	 DWORD PTR __Last$[ebp]
  0000d	ff 75 08	 push	 DWORD PTR __First$[ebp]
  00010	e8 00 00 00 00	 call	 ??$_Uninitialized_move@PAUAttackAttribute@@PAU1@V?$allocator@UAttackAttribute@@@std@@@std@@YAPAUAttackAttribute@@PAU1@00AAV?$allocator@UAttackAttribute@@@0@@Z ; std::_Uninitialized_move<AttackAttribute *,AttackAttribute *,std::allocator<AttackAttribute> >
  00015	83 c4 10	 add	 esp, 16			; 00000010H

; 1326 : 		}

  00018	5d		 pop	 ebp
  00019	c2 0c 00	 ret	 12			; 0000000cH
??$_Umove@PAUAttackAttribute@@@?$vector@UAttackAttribute@@V?$allocator@UAttackAttribute@@@std@@@std@@IAEPAUAttackAttribute@@PAU2@00@Z ENDP ; std::vector<AttackAttribute,std::allocator<AttackAttribute> >::_Umove<AttackAttribute *>
_TEXT	ENDS
PUBLIC	?_Destroy@?$vector@UAttackAttribute@@V?$allocator@UAttackAttribute@@@std@@@std@@IAEXPAUAttackAttribute@@0@Z ; std::vector<AttackAttribute,std::allocator<AttackAttribute> >::_Destroy
; Function compile flags: /Ogsp
;	COMDAT ?_Destroy@?$vector@UAttackAttribute@@V?$allocator@UAttackAttribute@@@std@@@std@@IAEXPAUAttackAttribute@@0@Z
_TEXT	SEGMENT
__First$ = 8						; size = 4
__Last$ = 12						; size = 4
?_Destroy@?$vector@UAttackAttribute@@V?$allocator@UAttackAttribute@@@std@@@std@@IAEXPAUAttackAttribute@@0@Z PROC ; std::vector<AttackAttribute,std::allocator<AttackAttribute> >::_Destroy, COMDAT
; _this$ = ecx

; 1269 : 		{	// destroy [_First, _Last) using allocator

  00000	55		 push	 ebp
  00001	8b ec		 mov	 ebp, esp
  00003	56		 push	 esi

; 1270 : 		_Destroy_range(_First, _Last, this->_Alval);

  00004	8b 75 08	 mov	 esi, DWORD PTR __First$[ebp]
  00007	eb 0a		 jmp	 SHORT $LN23@Destroy
$LL9@Destroy:
  00009	8b ce		 mov	 ecx, esi
  0000b	e8 00 00 00 00	 call	 ??1AttackAttribute@@QAE@XZ
  00010	83 c6 50	 add	 esi, 80			; 00000050H
$LN23@Destroy:
  00013	3b 75 0c	 cmp	 esi, DWORD PTR __Last$[ebp]
  00016	75 f1		 jne	 SHORT $LL9@Destroy
  00018	5e		 pop	 esi

; 1271 : 		}

  00019	5d		 pop	 ebp
  0001a	c2 08 00	 ret	 8
?_Destroy@?$vector@UAttackAttribute@@V?$allocator@UAttackAttribute@@@std@@@std@@IAEXPAUAttackAttribute@@0@Z ENDP ; std::vector<AttackAttribute,std::allocator<AttackAttribute> >::_Destroy
_TEXT	ENDS
PUBLIC	?reserve@?$vector@UAttackAttribute@@V?$allocator@UAttackAttribute@@@std@@@std@@QAEXI@Z ; std::vector<AttackAttribute,std::allocator<AttackAttribute> >::reserve
;	COMDAT xdata$x
; File c:\program files (x86)\microsoft visual studio 10.0\vc\include\xmemory
xdata$x	SEGMENT
__catchsym$?reserve@?$vector@UAttackAttribute@@V?$allocator@UAttackAttribute@@@std@@@std@@QAEXI@Z$2 DD 040H
	DD	00H
	DD	00H
	DD	FLAT:__catch$?reserve@?$vector@UAttackAttribute@@V?$allocator@UAttackAttribute@@@std@@@std@@QAEXI@Z$0
__unwindtable$?reserve@?$vector@UAttackAttribute@@V?$allocator@UAttackAttribute@@@std@@@std@@QAEXI@Z DD 0ffffffffH
	DD	00H
	DD	0ffffffffH
	DD	00H
__tryblocktable$?reserve@?$vector@UAttackAttribute@@V?$allocator@UAttackAttribute@@@std@@@std@@QAEXI@Z DD 00H
	DD	00H
	DD	01H
	DD	01H
	DD	FLAT:__catchsym$?reserve@?$vector@UAttackAttribute@@V?$allocator@UAttackAttribute@@@std@@@std@@QAEXI@Z$2
__ehfuncinfo$?reserve@?$vector@UAttackAttribute@@V?$allocator@UAttackAttribute@@@std@@@std@@QAEXI@Z DD 019930522H
	DD	02H
	DD	FLAT:__unwindtable$?reserve@?$vector@UAttackAttribute@@V?$allocator@UAttackAttribute@@@std@@@std@@QAEXI@Z
	DD	01H
	DD	FLAT:__tryblocktable$?reserve@?$vector@UAttackAttribute@@V?$allocator@UAttackAttribute@@@std@@@std@@QAEXI@Z
	DD	2 DUP(00H)
	DD	00H
	DD	01H
; Function compile flags: /Ogsp
; File c:\program files (x86)\microsoft visual studio 10.0\vc\include\vector
xdata$x	ENDS
;	COMDAT ?reserve@?$vector@UAttackAttribute@@V?$allocator@UAttackAttribute@@@std@@@std@@QAEXI@Z
_TEXT	SEGMENT
__Ptr$508219 = -24					; size = 4
$T514849 = -20						; size = 4
__$EHRec$ = -16						; size = 16
__Count$ = 8						; size = 4
?reserve@?$vector@UAttackAttribute@@V?$allocator@UAttackAttribute@@@std@@@std@@QAEXI@Z PROC ; std::vector<AttackAttribute,std::allocator<AttackAttribute> >::reserve, COMDAT
; _this$ = ecx

; 746  : 		{	// determine new minimum length of allocated storage

  00000	6a 0c		 push	 12			; 0000000cH
  00002	b8 00 00 00 00	 mov	 eax, __ehhandler$?reserve@?$vector@UAttackAttribute@@V?$allocator@UAttackAttribute@@@std@@@std@@QAEXI@Z
  00007	e8 00 00 00 00	 call	 __EH_prolog3_catch
  0000c	8b f1		 mov	 esi, ecx

; 747  : 		if (max_size() < _Count)

  0000e	81 7d 08 33 33
	33 03		 cmp	 DWORD PTR __Count$[ebp], 53687091 ; 03333333H
  00015	76 0b		 jbe	 SHORT $LN5@reserve

; 748  : 			_Xlen();	// result too long

  00017	68 00 00 00 00	 push	 OFFSET ??_C@_0BD@OLBABOEK@vector?$DMT?$DO?5too?5long?$AA@
  0001c	ff 15 00 00 00
	00		 call	 DWORD PTR __imp_?_Xlength_error@std@@YAXPBD@Z
$LN59@reserve:
$LN5@reserve:

; 749  : 		else if (capacity() < _Count)

  00022	8b 46 08	 mov	 eax, DWORD PTR [esi+8]
  00025	2b 06		 sub	 eax, DWORD PTR [esi]
  00027	6a 50		 push	 80			; 00000050H
  00029	99		 cdq
  0002a	59		 pop	 ecx
  0002b	f7 f9		 idiv	 ecx
  0002d	3b 45 08	 cmp	 eax, DWORD PTR __Count$[ebp]
  00030	0f 83 80 00 00
	00		 jae	 $LN3@reserve

; 750  : 			{	// not enough room, reallocate
; 751  : 			pointer _Ptr = this->_Alval.allocate(_Count);

  00036	6a 00		 push	 0
  00038	ff 75 08	 push	 DWORD PTR __Count$[ebp]
  0003b	e8 00 00 00 00	 call	 ??$_Allocate@UAttackAttribute@@@std@@YAPAUAttackAttribute@@IPAU1@@Z ; std::_Allocate<AttackAttribute>

; 752  : 
; 753  : 			_TRY_BEGIN
; 754  : 			_Umove(this->_Myfirst, this->_Mylast, _Ptr);

  00040	8b 0e		 mov	 ecx, DWORD PTR [esi]
  00042	83 65 fc 00	 and	 DWORD PTR __$EHRec$[ebp+12], 0
  00046	8d 56 0c	 lea	 edx, DWORD PTR [esi+12]
  00049	52		 push	 edx
  0004a	89 45 e8	 mov	 DWORD PTR __Ptr$508219[ebp], eax
  0004d	ff 75 e8	 push	 DWORD PTR __Ptr$508219[ebp]
  00050	8b 46 04	 mov	 eax, DWORD PTR [esi+4]
  00053	50		 push	 eax
  00054	51		 push	 ecx
  00055	e8 00 00 00 00	 call	 ??$_Uninitialized_move@PAUAttackAttribute@@PAU1@V?$allocator@UAttackAttribute@@@std@@@std@@YAPAUAttackAttribute@@PAU1@00AAV?$allocator@UAttackAttribute@@@0@@Z ; std::_Uninitialized_move<AttackAttribute *,AttackAttribute *,std::allocator<AttackAttribute> >

; 758  : 			_CATCH_END
; 759  : 
; 760  : 			size_type _Size = size();

  0005a	8b 5e 04	 mov	 ebx, DWORD PTR [esi+4]
  0005d	8b 0e		 mov	 ecx, DWORD PTR [esi]
  0005f	83 c4 18	 add	 esp, 24			; 00000018H
  00062	8b c3		 mov	 eax, ebx
  00064	2b c1		 sub	 eax, ecx
  00066	6a 50		 push	 80			; 00000050H
  00068	99		 cdq
  00069	5f		 pop	 edi
  0006a	f7 ff		 idiv	 edi
  0006c	83 4d fc ff	 or	 DWORD PTR __$EHRec$[ebp+12], -1
  00070	8b f8		 mov	 edi, eax
  00072	85 c9		 test	 ecx, ecx
  00074	74 20		 je	 SHORT $LN51@reserve

; 761  : 			if (this->_Myfirst != 0)
; 762  : 				{	// destroy and deallocate old array
; 763  : 				_Destroy(this->_Myfirst, this->_Mylast);

  00076	89 4d ec	 mov	 DWORD PTR $T514849[ebp], ecx
  00079	3b cb		 cmp	 ecx, ebx
  0007b	74 11		 je	 SHORT $LN37@reserve
$LN39@reserve:
  0007d	8b 4d ec	 mov	 ecx, DWORD PTR $T514849[ebp]
  00080	e8 00 00 00 00	 call	 ??1AttackAttribute@@QAE@XZ
  00085	83 45 ec 50	 add	 DWORD PTR $T514849[ebp], 80 ; 00000050H
  00089	39 5d ec	 cmp	 DWORD PTR $T514849[ebp], ebx
  0008c	75 ef		 jne	 SHORT $LN39@reserve
$LN37@reserve:

; 764  : 				this->_Alval.deallocate(this->_Myfirst,
; 765  : 					this->_Myend - this->_Myfirst);

  0008e	ff 36		 push	 DWORD PTR [esi]
  00090	e8 00 00 00 00	 call	 ??3@YAXPAX@Z		; operator delete
  00095	59		 pop	 ecx
$LN51@reserve:

; 766  : 				}
; 767  : 
; 768  : 			this->_Orphan_all();

  00096	8b ce		 mov	 ecx, esi
  00098	ff 15 00 00 00
	00		 call	 DWORD PTR __imp_?_Orphan_all@_Container_base0@std@@QAEXXZ

; 769  : 			this->_Myend = _Ptr + _Count;
; 770  : 			this->_Mylast = _Ptr + _Size;

  0009e	6b ff 50	 imul	 edi, 80			; 00000050H
  000a1	8b 45 08	 mov	 eax, DWORD PTR __Count$[ebp]
  000a4	8b 4d e8	 mov	 ecx, DWORD PTR __Ptr$508219[ebp]
  000a7	6b c0 50	 imul	 eax, 80			; 00000050H
  000aa	03 c1		 add	 eax, ecx
  000ac	03 f9		 add	 edi, ecx
  000ae	89 46 08	 mov	 DWORD PTR [esi+8], eax
  000b1	89 7e 04	 mov	 DWORD PTR [esi+4], edi

; 771  : 			this->_Myfirst = _Ptr;

  000b4	89 0e		 mov	 DWORD PTR [esi], ecx
$LN3@reserve:

; 772  : 			}
; 773  : 		}

  000b6	e8 00 00 00 00	 call	 __EH_epilog3
  000bb	c2 04 00	 ret	 4
__catch$?reserve@?$vector@UAttackAttribute@@V?$allocator@UAttackAttribute@@@std@@@std@@QAEXI@Z$0:

; 755  : 			_CATCH_ALL
; 756  : 			this->_Alval.deallocate(_Ptr, _Count);

  000be	ff 75 e8	 push	 DWORD PTR __Ptr$508219[ebp]
  000c1	e8 00 00 00 00	 call	 ??3@YAXPAX@Z		; operator delete
  000c6	59		 pop	 ecx

; 757  : 			_RERAISE;

  000c7	6a 00		 push	 0
  000c9	6a 00		 push	 0
  000cb	e8 00 00 00 00	 call	 __CxxThrowException@8
$LN60@reserve:
$LN58@reserve:
  000d0	cc		 int	 3
_TEXT	ENDS
;	COMDAT text$x
text$x	SEGMENT
__ehhandler$?reserve@?$vector@UAttackAttribute@@V?$allocator@UAttackAttribute@@@std@@@std@@QAEXI@Z:
  00000	8b 54 24 08	 mov	 edx, DWORD PTR [esp+8]
  00004	8d 42 0c	 lea	 eax, DWORD PTR [edx+12]
  00007	8b 4a e4	 mov	 ecx, DWORD PTR [edx-28]
  0000a	33 c8		 xor	 ecx, eax
  0000c	e8 00 00 00 00	 call	 @__security_check_cookie@4
  00011	b8 00 00 00 00	 mov	 eax, OFFSET __ehfuncinfo$?reserve@?$vector@UAttackAttribute@@V?$allocator@UAttackAttribute@@@std@@@std@@QAEXI@Z
  00016	e9 00 00 00 00	 jmp	 ___CxxFrameHandler3
text$x	ENDS
?reserve@?$vector@UAttackAttribute@@V?$allocator@UAttackAttribute@@@std@@@std@@QAEXI@Z ENDP ; std::vector<AttackAttribute,std::allocator<AttackAttribute> >::reserve
PUBLIC	?erase@?$vector@UAttackAttribute@@V?$allocator@UAttackAttribute@@@std@@@std@@QAE?AV?$_Vector_iterator@V?$_Vector_val@UAttackAttribute@@V?$allocator@UAttackAttribute@@@std@@@std@@@2@V?$_Vector_const_iterator@V?$_Vector_val@UAttackAttribute@@V?$allocator@UAttackAttribute@@@std@@@std@@@2@0@Z ; std::vector<AttackAttribute,std::allocator<AttackAttribute> >::erase
; Function compile flags: /Ogsp
;	COMDAT ?erase@?$vector@UAttackAttribute@@V?$allocator@UAttackAttribute@@@std@@@std@@QAE?AV?$_Vector_iterator@V?$_Vector_val@UAttackAttribute@@V?$allocator@UAttackAttribute@@@std@@@std@@@2@V?$_Vector_const_iterator@V?$_Vector_val@UAttackAttribute@@V?$allocator@UAttackAttribute@@@std@@@std@@@2@0@Z
_TEXT	SEGMENT
$T515044 = -4						; size = 4
___$ReturnUdt$ = 8					; size = 4
__First_arg$ = 12					; size = 4
__Cat$514989 = 16					; size = 1
__Last_arg$ = 16					; size = 4
?erase@?$vector@UAttackAttribute@@V?$allocator@UAttackAttribute@@@std@@@std@@QAE?AV?$_Vector_iterator@V?$_Vector_val@UAttackAttribute@@V?$allocator@UAttackAttribute@@@std@@@std@@@2@V?$_Vector_const_iterator@V?$_Vector_val@UAttackAttribute@@V?$allocator@UAttackAttribute@@@std@@@std@@@2@0@Z PROC ; std::vector<AttackAttribute,std::allocator<AttackAttribute> >::erase, COMDAT
; _this$ = ecx

; 1190 : 		{	// erase [_First, _Last)

  00000	55		 push	 ebp
  00001	8b ec		 mov	 ebp, esp
  00003	51		 push	 ecx

; 1191 : 		iterator _First = _Make_iter(_First_arg);

  00004	8b 45 08	 mov	 eax, DWORD PTR ___$ReturnUdt$[ebp]
  00007	56		 push	 esi
  00008	8b f1		 mov	 esi, ecx
  0000a	8b 4d 0c	 mov	 ecx, DWORD PTR __First_arg$[ebp]
  0000d	89 08		 mov	 DWORD PTR [eax], ecx

; 1192 : 		iterator _Last = _Make_iter(_Last_arg);
; 1193 : 
; 1194 : 		if (_First != _Last)

  0000f	3b 4d 10	 cmp	 ecx, DWORD PTR __Last_arg$[ebp]
  00012	74 37		 je	 SHORT $LN1@erase@3

; 1195 : 			{	// worth doing, copy down over hole
; 1196 :  #if _ITERATOR_DEBUG_LEVEL == 2
; 1197 : 			if (_Last < _First || _VICONT(_First) != this
; 1198 : 				|| _VIPTR(_First) < this->_Myfirst
; 1199 : 				|| this->_Mylast < _VIPTR(_Last))
; 1200 : 				_DEBUG_ERROR("vector erase iterator outside range");
; 1201 : 			pointer _Ptr = _Move(_VIPTR(_Last), this->_Mylast,
; 1202 : 				_VIPTR(_First));
; 1203 : 			_Orphan_range(_VIPTR(_First), this->_Mylast);
; 1204 : 
; 1205 :  #else /* _ITERATOR_DEBUG_LEVEL == 2 */
; 1206 : 			pointer _Ptr = _Move(_VIPTR(_Last), this->_Mylast,
; 1207 : 				_VIPTR(_First));

  00014	8b 46 04	 mov	 eax, DWORD PTR [esi+4]
  00017	53		 push	 ebx
  00018	57		 push	 edi
  00019	ff 75 10	 push	 DWORD PTR __Cat$514989[ebp]
  0001c	51		 push	 ecx
  0001d	50		 push	 eax
  0001e	ff 75 10	 push	 DWORD PTR __Last_arg$[ebp]
  00021	e8 00 00 00 00	 call	 ??$_Move@PAUAttackAttribute@@PAU1@@std@@YAPAUAttackAttribute@@PAU1@00U_Nonscalar_ptr_iterator_tag@0@@Z ; std::_Move<AttackAttribute *,AttackAttribute *>

; 1208 :  #endif /* _ITERATOR_DEBUG_LEVEL == 2 */
; 1209 : 
; 1210 : 			_Destroy(_Ptr, this->_Mylast);

  00026	8b 7e 04	 mov	 edi, DWORD PTR [esi+4]
  00029	8b d8		 mov	 ebx, eax
  0002b	83 c4 10	 add	 esp, 16			; 00000010H
  0002e	89 5d fc	 mov	 DWORD PTR $T515044[ebp], ebx
  00031	3b df		 cmp	 ebx, edi
  00033	74 11		 je	 SHORT $LN36@erase@3
$LL52@erase@3:
  00035	8b 4d fc	 mov	 ecx, DWORD PTR $T515044[ebp]
  00038	e8 00 00 00 00	 call	 ??1AttackAttribute@@QAE@XZ
  0003d	83 45 fc 50	 add	 DWORD PTR $T515044[ebp], 80 ; 00000050H
  00041	39 7d fc	 cmp	 DWORD PTR $T515044[ebp], edi
  00044	75 ef		 jne	 SHORT $LL52@erase@3
$LN36@erase@3:

; 1211 : 			this->_Mylast = _Ptr;

  00046	5f		 pop	 edi
  00047	89 5e 04	 mov	 DWORD PTR [esi+4], ebx
  0004a	5b		 pop	 ebx
$LN1@erase@3:

; 1212 : 			}
; 1213 : 		return (_First);

  0004b	8b 45 08	 mov	 eax, DWORD PTR ___$ReturnUdt$[ebp]
  0004e	5e		 pop	 esi

; 1214 : 		}

  0004f	c9		 leave
  00050	c2 0c 00	 ret	 12			; 0000000cH
?erase@?$vector@UAttackAttribute@@V?$allocator@UAttackAttribute@@@std@@@std@@QAE?AV?$_Vector_iterator@V?$_Vector_val@UAttackAttribute@@V?$allocator@UAttackAttribute@@@std@@@std@@@2@V?$_Vector_const_iterator@V?$_Vector_val@UAttackAttribute@@V?$allocator@UAttackAttribute@@@std@@@std@@@2@0@Z ENDP ; std::vector<AttackAttribute,std::allocator<AttackAttribute> >::erase
_TEXT	ENDS
PUBLIC	?_Tidy@?$vector@UAttackAttribute@@V?$allocator@UAttackAttribute@@@std@@@std@@IAEXXZ ; std::vector<AttackAttribute,std::allocator<AttackAttribute> >::_Tidy
; Function compile flags: /Ogsp
;	COMDAT ?_Tidy@?$vector@UAttackAttribute@@V?$allocator@UAttackAttribute@@@std@@@std@@IAEXXZ
_TEXT	SEGMENT
?_Tidy@?$vector@UAttackAttribute@@V?$allocator@UAttackAttribute@@@std@@@std@@IAEXXZ PROC ; std::vector<AttackAttribute,std::allocator<AttackAttribute> >::_Tidy, COMDAT
; _this$ = ecx

; 1301 : 		{	// free all storage

  00000	56		 push	 esi
  00001	8b f1		 mov	 esi, ecx

; 1302 : 		if (this->_Myfirst != 0)

  00003	83 3e 00	 cmp	 DWORD PTR [esi], 0
  00006	74 27		 je	 SHORT $LN24@Tidy@3

; 1303 : 			{	// something to free, destroy and deallocate it
; 1304 : 			this->_Orphan_all();

  00008	53		 push	 ebx
  00009	57		 push	 edi
  0000a	ff 15 00 00 00
	00		 call	 DWORD PTR __imp_?_Orphan_all@_Container_base0@std@@QAEXXZ

; 1305 : 			_Destroy(this->_Myfirst, this->_Mylast);

  00010	8b 5e 04	 mov	 ebx, DWORD PTR [esi+4]
  00013	8b 3e		 mov	 edi, DWORD PTR [esi]
  00015	eb 0a		 jmp	 SHORT $LN28@Tidy@3
$LL12@Tidy@3:
  00017	8b cf		 mov	 ecx, edi
  00019	e8 00 00 00 00	 call	 ??1AttackAttribute@@QAE@XZ
  0001e	83 c7 50	 add	 edi, 80			; 00000050H
$LN28@Tidy@3:
  00021	3b fb		 cmp	 edi, ebx
  00023	75 f2		 jne	 SHORT $LL12@Tidy@3

; 1306 : 			this->_Alval.deallocate(this->_Myfirst,
; 1307 : 				this->_Myend - this->_Myfirst);

  00025	ff 36		 push	 DWORD PTR [esi]
  00027	e8 00 00 00 00	 call	 ??3@YAXPAX@Z		; operator delete
  0002c	59		 pop	 ecx
  0002d	5f		 pop	 edi
  0002e	5b		 pop	 ebx
$LN24@Tidy@3:

; 1308 : 			}
; 1309 : 		this->_Myfirst = 0;

  0002f	33 c0		 xor	 eax, eax
  00031	89 06		 mov	 DWORD PTR [esi], eax

; 1310 : 		this->_Mylast = 0;

  00033	89 46 04	 mov	 DWORD PTR [esi+4], eax

; 1311 : 		this->_Myend = 0;

  00036	89 46 08	 mov	 DWORD PTR [esi+8], eax
  00039	5e		 pop	 esi

; 1312 : 		}

  0003a	c3		 ret	 0
?_Tidy@?$vector@UAttackAttribute@@V?$allocator@UAttackAttribute@@@std@@@std@@IAEXXZ ENDP ; std::vector<AttackAttribute,std::allocator<AttackAttribute> >::_Tidy
_TEXT	ENDS
PUBLIC	?_Reserve@?$vector@UAttackAttribute@@V?$allocator@UAttackAttribute@@@std@@@std@@IAEXI@Z ; std::vector<AttackAttribute,std::allocator<AttackAttribute> >::_Reserve
; Function compile flags: /Ogsp
;	COMDAT ?_Reserve@?$vector@UAttackAttribute@@V?$allocator@UAttackAttribute@@@std@@@std@@IAEXI@Z
_TEXT	SEGMENT
__Count$ = 8						; size = 4
?_Reserve@?$vector@UAttackAttribute@@V?$allocator@UAttackAttribute@@@std@@@std@@IAEXI@Z PROC ; std::vector<AttackAttribute,std::allocator<AttackAttribute> >::_Reserve, COMDAT
; _this$ = ecx

; 1290 : 		{	// ensure room for _Count new elements, grow exponentially

  00000	55		 push	 ebp
  00001	8b ec		 mov	 ebp, esp
  00003	56		 push	 esi
  00004	8b f1		 mov	 esi, ecx

; 1291 : 		size_type _Size = size();

  00006	8b 0e		 mov	 ecx, DWORD PTR [esi]
  00008	8b 46 04	 mov	 eax, DWORD PTR [esi+4]
  0000b	2b c1		 sub	 eax, ecx
  0000d	57		 push	 edi
  0000e	99		 cdq
  0000f	6a 50		 push	 80			; 00000050H
  00011	5f		 pop	 edi
  00012	f7 ff		 idiv	 edi
  00014	8b f8		 mov	 edi, eax

; 1292 : 		if (max_size() - _Count < _Size)

  00016	b8 33 33 33 03	 mov	 eax, 53687091		; 03333333H
  0001b	2b 45 08	 sub	 eax, DWORD PTR __Count$[ebp]
  0001e	3b c7		 cmp	 eax, edi
  00020	73 0b		 jae	 SHORT $LN4@Reserve

; 1293 : 			_Xlen();

  00022	68 00 00 00 00	 push	 OFFSET ??_C@_0BD@OLBABOEK@vector?$DMT?$DO?5too?5long?$AA@
  00027	ff 15 00 00 00
	00		 call	 DWORD PTR __imp_?_Xlength_error@std@@YAXPBD@Z
$LN21@Reserve:
$LN4@Reserve:

; 1294 : 		else if ((_Size += _Count) <= capacity())

  0002d	8b 46 08	 mov	 eax, DWORD PTR [esi+8]
  00030	2b c1		 sub	 eax, ecx
  00032	6a 50		 push	 80			; 00000050H
  00034	99		 cdq
  00035	59		 pop	 ecx
  00036	f7 f9		 idiv	 ecx
  00038	03 7d 08	 add	 edi, DWORD PTR __Count$[ebp]
  0003b	3b f8		 cmp	 edi, eax
  0003d	76 10		 jbe	 SHORT $LN1@Reserve

; 1295 : 			;
; 1296 : 		else
; 1297 : 			reserve(_Grow_to(_Size));

  0003f	57		 push	 edi
  00040	8b ce		 mov	 ecx, esi
  00042	e8 00 00 00 00	 call	 ?_Grow_to@?$vector@UAttackAttribute@@V?$allocator@UAttackAttribute@@@std@@@std@@IBEII@Z ; std::vector<AttackAttribute,std::allocator<AttackAttribute> >::_Grow_to
  00047	50		 push	 eax
  00048	8b ce		 mov	 ecx, esi
  0004a	e8 00 00 00 00	 call	 ?reserve@?$vector@UAttackAttribute@@V?$allocator@UAttackAttribute@@@std@@@std@@QAEXI@Z ; std::vector<AttackAttribute,std::allocator<AttackAttribute> >::reserve
$LN1@Reserve:
  0004f	5f		 pop	 edi
  00050	5e		 pop	 esi

; 1298 : 		}

  00051	5d		 pop	 ebp
  00052	c2 04 00	 ret	 4
$LN20@Reserve:
?_Reserve@?$vector@UAttackAttribute@@V?$allocator@UAttackAttribute@@@std@@@std@@IAEXI@Z ENDP ; std::vector<AttackAttribute,std::allocator<AttackAttribute> >::_Reserve
_TEXT	ENDS
PUBLIC	??1?$vector@UAttackAttribute@@V?$allocator@UAttackAttribute@@@std@@@std@@QAE@XZ ; std::vector<AttackAttribute,std::allocator<AttackAttribute> >::~vector<AttackAttribute,std::allocator<AttackAttribute> >
; Function compile flags: /Ogsp
;	COMDAT ??1?$vector@UAttackAttribute@@V?$allocator@UAttackAttribute@@@std@@@std@@QAE@XZ
_TEXT	SEGMENT
??1?$vector@UAttackAttribute@@V?$allocator@UAttackAttribute@@@std@@@std@@QAE@XZ PROC ; std::vector<AttackAttribute,std::allocator<AttackAttribute> >::~vector<AttackAttribute,std::allocator<AttackAttribute> >, COMDAT
; _this$ = ecx

; 705  : 		_Tidy();

  00000	e9 00 00 00 00	 jmp	 ?_Tidy@?$vector@UAttackAttribute@@V?$allocator@UAttackAttribute@@@std@@@std@@IAEXXZ ; std::vector<AttackAttribute,std::allocator<AttackAttribute> >::_Tidy
??1?$vector@UAttackAttribute@@V?$allocator@UAttackAttribute@@@std@@@std@@QAE@XZ ENDP ; std::vector<AttackAttribute,std::allocator<AttackAttribute> >::~vector<AttackAttribute,std::allocator<AttackAttribute> >
_TEXT	ENDS
PUBLIC	?clear@?$vector@UAttackAttribute@@V?$allocator@UAttackAttribute@@@std@@@std@@QAEXXZ ; std::vector<AttackAttribute,std::allocator<AttackAttribute> >::clear
; Function compile flags: /Ogsp
;	COMDAT ?clear@?$vector@UAttackAttribute@@V?$allocator@UAttackAttribute@@@std@@@std@@QAEXXZ
_TEXT	SEGMENT
$T515240 = -4						; size = 4
?clear@?$vector@UAttackAttribute@@V?$allocator@UAttackAttribute@@@std@@@std@@QAEXXZ PROC ; std::vector<AttackAttribute,std::allocator<AttackAttribute> >::clear, COMDAT
; _this$ = ecx

; 1217 : 		{	// erase all

  00000	55		 push	 ebp
  00001	8b ec		 mov	 ebp, esp
  00003	51		 push	 ecx

; 1218 : 		erase(begin(), end());

  00004	8b 41 04	 mov	 eax, DWORD PTR [ecx+4]
  00007	8b 11		 mov	 edx, DWORD PTR [ecx]
  00009	50		 push	 eax
  0000a	52		 push	 edx
  0000b	8d 45 fc	 lea	 eax, DWORD PTR $T515240[ebp]
  0000e	50		 push	 eax
  0000f	e8 00 00 00 00	 call	 ?erase@?$vector@UAttackAttribute@@V?$allocator@UAttackAttribute@@@std@@@std@@QAE?AV?$_Vector_iterator@V?$_Vector_val@UAttackAttribute@@V?$allocator@UAttackAttribute@@@std@@@std@@@2@V?$_Vector_const_iterator@V?$_Vector_val@UAttackAttribute@@V?$allocator@UAttackAttribute@@@std@@@std@@@2@0@Z ; std::vector<AttackAttribute,std::allocator<AttackAttribute> >::erase

; 1219 : 		}

  00014	c9		 leave
  00015	c3		 ret	 0
?clear@?$vector@UAttackAttribute@@V?$allocator@UAttackAttribute@@@std@@@std@@QAEXXZ ENDP ; std::vector<AttackAttribute,std::allocator<AttackAttribute> >::clear
_TEXT	ENDS
PUBLIC	??0ioFormalAttackGrp@@QAE@XZ			; ioFormalAttackGrp::ioFormalAttackGrp
;	COMDAT xdata$x
; File c:\program files (x86)\microsoft visual studio 10.0\vc\include\xmemory
xdata$x	SEGMENT
__ehfuncinfo$??0ioFormalAttackGrp@@QAE@XZ DD 019930522H
	DD	07H
	DD	FLAT:__unwindtable$??0ioFormalAttackGrp@@QAE@XZ
	DD	2 DUP(00H)
	DD	2 DUP(00H)
	DD	00H
	DD	01H
__unwindtable$??0ioFormalAttackGrp@@QAE@XZ DD 0ffffffffH
	DD	FLAT:__unwindfunclet$??0ioFormalAttackGrp@@QAE@XZ$0
	DD	00H
	DD	FLAT:__unwindfunclet$??0ioFormalAttackGrp@@QAE@XZ$1
	DD	01H
	DD	FLAT:__unwindfunclet$??0ioFormalAttackGrp@@QAE@XZ$2
	DD	02H
	DD	FLAT:__unwindfunclet$??0ioFormalAttackGrp@@QAE@XZ$3
	DD	03H
	DD	FLAT:__unwindfunclet$??0ioFormalAttackGrp@@QAE@XZ$4
	DD	04H
	DD	FLAT:__unwindfunclet$??0ioFormalAttackGrp@@QAE@XZ$5
	DD	05H
	DD	FLAT:__unwindfunclet$??0ioFormalAttackGrp@@QAE@XZ$6
; Function compile flags: /Ogsp
; File d:\lost saga for developer\youtube\tutorial\source\src\lsclient\ioformalattackgrp.cpp
xdata$x	ENDS
;	COMDAT ??0ioFormalAttackGrp@@QAE@XZ
_TEXT	SEGMENT
_this$ = -16						; size = 4
__$EHRec$ = -12						; size = 12
??0ioFormalAttackGrp@@QAE@XZ PROC			; ioFormalAttackGrp::ioFormalAttackGrp, COMDAT
; _this$ = ecx

; 8    : {

  00000	6a 04		 push	 4
  00002	b8 00 00 00 00	 mov	 eax, __ehhandler$??0ioFormalAttackGrp@@QAE@XZ
  00007	e8 00 00 00 00	 call	 __EH_prolog3
  0000c	8b f1		 mov	 esi, ecx
  0000e	89 75 f0	 mov	 DWORD PTR _this$[ebp], esi
  00011	33 ff		 xor	 edi, edi
  00013	89 3e		 mov	 DWORD PTR [esi], edi
  00015	89 7e 04	 mov	 DWORD PTR [esi+4], edi
  00018	89 7e 08	 mov	 DWORD PTR [esi+8], edi
  0001b	8d 4e 10	 lea	 ecx, DWORD PTR [esi+16]
  0001e	89 7d fc	 mov	 DWORD PTR __$EHRec$[ebp+8], edi
  00021	e8 00 00 00 00	 call	 ??0AttackAttribute@@QAE@XZ ; AttackAttribute::AttackAttribute
  00026	8d 4e 60	 lea	 ecx, DWORD PTR [esi+96]
  00029	c6 45 fc 01	 mov	 BYTE PTR __$EHRec$[ebp+8], 1
  0002d	e8 00 00 00 00	 call	 ??0AttackAttribute@@QAE@XZ ; AttackAttribute::AttackAttribute
  00032	8d 8e b0 00 00
	00		 lea	 ecx, DWORD PTR [esi+176]
  00038	c6 45 fc 02	 mov	 BYTE PTR __$EHRec$[ebp+8], 2
  0003c	e8 00 00 00 00	 call	 ??0AttackAttribute@@QAE@XZ ; AttackAttribute::AttackAttribute
  00041	8d 8e 00 01 00
	00		 lea	 ecx, DWORD PTR [esi+256]
  00047	c6 45 fc 03	 mov	 BYTE PTR __$EHRec$[ebp+8], 3
  0004b	e8 00 00 00 00	 call	 ??0AttackAttribute@@QAE@XZ ; AttackAttribute::AttackAttribute
  00050	8d 8e 50 01 00
	00		 lea	 ecx, DWORD PTR [esi+336]
  00056	c6 45 fc 04	 mov	 BYTE PTR __$EHRec$[ebp+8], 4
  0005a	e8 00 00 00 00	 call	 ??0AttackAttribute@@QAE@XZ ; AttackAttribute::AttackAttribute
  0005f	8d 8e a0 01 00
	00		 lea	 ecx, DWORD PTR [esi+416]
  00065	c6 45 fc 05	 mov	 BYTE PTR __$EHRec$[ebp+8], 5
  00069	e8 00 00 00 00	 call	 ??0AttackAttribute@@QAE@XZ ; AttackAttribute::AttackAttribute
  0006e	8d 8e f0 01 00
	00		 lea	 ecx, DWORD PTR [esi+496]
  00074	c6 45 fc 06	 mov	 BYTE PTR __$EHRec$[ebp+8], 6
  00078	e8 00 00 00 00	 call	 ??0AttackAttribute@@QAE@XZ ; AttackAttribute::AttackAttribute
  0007d	89 be 40 02 00
	00		 mov	 DWORD PTR [esi+576], edi
  00083	89 be 44 02 00
	00		 mov	 DWORD PTR [esi+580], edi
  00089	89 be 48 02 00
	00		 mov	 DWORD PTR [esi+584], edi
  0008f	89 be 50 02 00
	00		 mov	 DWORD PTR [esi+592], edi
  00095	89 be 54 02 00
	00		 mov	 DWORD PTR [esi+596], edi
  0009b	89 be 58 02 00
	00		 mov	 DWORD PTR [esi+600], edi

; 9    : }

  000a1	8b c6		 mov	 eax, esi
  000a3	e8 00 00 00 00	 call	 __EH_epilog3
  000a8	c3		 ret	 0
_TEXT	ENDS
;	COMDAT text$x
text$x	SEGMENT
__unwindfunclet$??0ioFormalAttackGrp@@QAE@XZ$0:
  00000	8b 4d f0	 mov	 ecx, DWORD PTR _this$[ebp]
  00003	e9 00 00 00 00	 jmp	 ??1?$vector@UAttackAttribute@@V?$allocator@UAttackAttribute@@@std@@@std@@QAE@XZ ; std::vector<AttackAttribute,std::allocator<AttackAttribute> >::~vector<AttackAttribute,std::allocator<AttackAttribute> >
__unwindfunclet$??0ioFormalAttackGrp@@QAE@XZ$1:
  00008	8b 4d f0	 mov	 ecx, DWORD PTR _this$[ebp]
  0000b	83 c1 10	 add	 ecx, 16			; 00000010H
  0000e	e9 00 00 00 00	 jmp	 ??1AttackAttribute@@QAE@XZ
__unwindfunclet$??0ioFormalAttackGrp@@QAE@XZ$2:
  00013	8b 4d f0	 mov	 ecx, DWORD PTR _this$[ebp]
  00016	83 c1 60	 add	 ecx, 96			; 00000060H
  00019	e9 00 00 00 00	 jmp	 ??1AttackAttribute@@QAE@XZ
__unwindfunclet$??0ioFormalAttackGrp@@QAE@XZ$3:
  0001e	8b 4d f0	 mov	 ecx, DWORD PTR _this$[ebp]
  00021	81 c1 b0 00 00
	00		 add	 ecx, 176		; 000000b0H
  00027	e9 00 00 00 00	 jmp	 ??1AttackAttribute@@QAE@XZ
__unwindfunclet$??0ioFormalAttackGrp@@QAE@XZ$4:
  0002c	8b 4d f0	 mov	 ecx, DWORD PTR _this$[ebp]
  0002f	81 c1 00 01 00
	00		 add	 ecx, 256		; 00000100H
  00035	e9 00 00 00 00	 jmp	 ??1AttackAttribute@@QAE@XZ
__unwindfunclet$??0ioFormalAttackGrp@@QAE@XZ$5:
  0003a	8b 4d f0	 mov	 ecx, DWORD PTR _this$[ebp]
  0003d	81 c1 50 01 00
	00		 add	 ecx, 336		; 00000150H
  00043	e9 00 00 00 00	 jmp	 ??1AttackAttribute@@QAE@XZ
__unwindfunclet$??0ioFormalAttackGrp@@QAE@XZ$6:
  00048	8b 4d f0	 mov	 ecx, DWORD PTR _this$[ebp]
  0004b	81 c1 a0 01 00
	00		 add	 ecx, 416		; 000001a0H
  00051	e9 00 00 00 00	 jmp	 ??1AttackAttribute@@QAE@XZ
__ehhandler$??0ioFormalAttackGrp@@QAE@XZ:
  00056	8b 54 24 08	 mov	 edx, DWORD PTR [esp+8]
  0005a	8d 42 0c	 lea	 eax, DWORD PTR [edx+12]
  0005d	8b 4a ec	 mov	 ecx, DWORD PTR [edx-20]
  00060	33 c8		 xor	 ecx, eax
  00062	e8 00 00 00 00	 call	 @__security_check_cookie@4
  00067	b8 00 00 00 00	 mov	 eax, OFFSET __ehfuncinfo$??0ioFormalAttackGrp@@QAE@XZ
  0006c	e9 00 00 00 00	 jmp	 ___CxxFrameHandler3
text$x	ENDS
??0ioFormalAttackGrp@@QAE@XZ ENDP			; ioFormalAttackGrp::ioFormalAttackGrp
PUBLIC	??1ioFormalAttackGrp@@QAE@XZ			; ioFormalAttackGrp::~ioFormalAttackGrp
;	COMDAT xdata$x
; File c:\program files (x86)\microsoft visual studio 10.0\vc\include\vector
xdata$x	SEGMENT
__ehfuncinfo$??1ioFormalAttackGrp@@QAE@XZ DD 019930522H
	DD	09H
	DD	FLAT:__unwindtable$??1ioFormalAttackGrp@@QAE@XZ
	DD	2 DUP(00H)
	DD	2 DUP(00H)
	DD	00H
	DD	01H
__unwindtable$??1ioFormalAttackGrp@@QAE@XZ DD 0ffffffffH
	DD	FLAT:__unwindfunclet$??1ioFormalAttackGrp@@QAE@XZ$0
	DD	00H
	DD	FLAT:__unwindfunclet$??1ioFormalAttackGrp@@QAE@XZ$1
	DD	01H
	DD	FLAT:__unwindfunclet$??1ioFormalAttackGrp@@QAE@XZ$2
	DD	02H
	DD	FLAT:__unwindfunclet$??1ioFormalAttackGrp@@QAE@XZ$3
	DD	03H
	DD	FLAT:__unwindfunclet$??1ioFormalAttackGrp@@QAE@XZ$4
	DD	04H
	DD	FLAT:__unwindfunclet$??1ioFormalAttackGrp@@QAE@XZ$5
	DD	05H
	DD	FLAT:__unwindfunclet$??1ioFormalAttackGrp@@QAE@XZ$6
	DD	06H
	DD	FLAT:__unwindfunclet$??1ioFormalAttackGrp@@QAE@XZ$7
	DD	07H
	DD	FLAT:__unwindfunclet$??1ioFormalAttackGrp@@QAE@XZ$8
; Function compile flags: /Ogsp
; File d:\lost saga for developer\youtube\tutorial\source\src\lsclient\ioformalattackgrp.cpp
xdata$x	ENDS
;	COMDAT ??1ioFormalAttackGrp@@QAE@XZ
_TEXT	SEGMENT
_this$ = -16						; size = 4
__$EHRec$ = -12						; size = 12
??1ioFormalAttackGrp@@QAE@XZ PROC			; ioFormalAttackGrp::~ioFormalAttackGrp, COMDAT
; _this$ = ecx

; 12   : {

  00000	6a 04		 push	 4
  00002	b8 00 00 00 00	 mov	 eax, __ehhandler$??1ioFormalAttackGrp@@QAE@XZ
  00007	e8 00 00 00 00	 call	 __EH_prolog3
  0000c	8b f1		 mov	 esi, ecx
  0000e	89 75 f0	 mov	 DWORD PTR _this$[ebp], esi

; 13   : }

  00011	8d 8e 50 02 00
	00		 lea	 ecx, DWORD PTR [esi+592]
  00017	c7 45 fc 08 00
	00 00		 mov	 DWORD PTR __$EHRec$[ebp+8], 8
  0001e	e8 00 00 00 00	 call	 ?_Tidy@?$vector@UAttackAttribute@@V?$allocator@UAttackAttribute@@@std@@@std@@IAEXXZ ; std::vector<AttackAttribute,std::allocator<AttackAttribute> >::_Tidy
  00023	8d 8e 40 02 00
	00		 lea	 ecx, DWORD PTR [esi+576]
  00029	c6 45 fc 07	 mov	 BYTE PTR __$EHRec$[ebp+8], 7
  0002d	e8 00 00 00 00	 call	 ?_Tidy@?$vector@UAttackAttribute@@V?$allocator@UAttackAttribute@@@std@@@std@@IAEXXZ ; std::vector<AttackAttribute,std::allocator<AttackAttribute> >::_Tidy
  00032	8d 8e f0 01 00
	00		 lea	 ecx, DWORD PTR [esi+496]
  00038	c6 45 fc 06	 mov	 BYTE PTR __$EHRec$[ebp+8], 6
  0003c	e8 00 00 00 00	 call	 ??1AttackAttribute@@QAE@XZ
  00041	8d 8e a0 01 00
	00		 lea	 ecx, DWORD PTR [esi+416]
  00047	c6 45 fc 05	 mov	 BYTE PTR __$EHRec$[ebp+8], 5
  0004b	e8 00 00 00 00	 call	 ??1AttackAttribute@@QAE@XZ
  00050	8d 8e 50 01 00
	00		 lea	 ecx, DWORD PTR [esi+336]
  00056	c6 45 fc 04	 mov	 BYTE PTR __$EHRec$[ebp+8], 4
  0005a	e8 00 00 00 00	 call	 ??1AttackAttribute@@QAE@XZ
  0005f	8d 8e 00 01 00
	00		 lea	 ecx, DWORD PTR [esi+256]
  00065	c6 45 fc 03	 mov	 BYTE PTR __$EHRec$[ebp+8], 3
  00069	e8 00 00 00 00	 call	 ??1AttackAttribute@@QAE@XZ
  0006e	8d 8e b0 00 00
	00		 lea	 ecx, DWORD PTR [esi+176]
  00074	c6 45 fc 02	 mov	 BYTE PTR __$EHRec$[ebp+8], 2
  00078	e8 00 00 00 00	 call	 ??1AttackAttribute@@QAE@XZ
  0007d	8d 4e 60	 lea	 ecx, DWORD PTR [esi+96]
  00080	c6 45 fc 01	 mov	 BYTE PTR __$EHRec$[ebp+8], 1
  00084	e8 00 00 00 00	 call	 ??1AttackAttribute@@QAE@XZ
  00089	8d 4e 10	 lea	 ecx, DWORD PTR [esi+16]
  0008c	c6 45 fc 00	 mov	 BYTE PTR __$EHRec$[ebp+8], 0
  00090	e8 00 00 00 00	 call	 ??1AttackAttribute@@QAE@XZ
  00095	83 4d fc ff	 or	 DWORD PTR __$EHRec$[ebp+8], -1
  00099	8b ce		 mov	 ecx, esi
  0009b	e8 00 00 00 00	 call	 ?_Tidy@?$vector@UAttackAttribute@@V?$allocator@UAttackAttribute@@@std@@@std@@IAEXXZ ; std::vector<AttackAttribute,std::allocator<AttackAttribute> >::_Tidy
  000a0	e8 00 00 00 00	 call	 __EH_epilog3
  000a5	c3		 ret	 0
_TEXT	ENDS
;	COMDAT text$x
text$x	SEGMENT
__unwindfunclet$??1ioFormalAttackGrp@@QAE@XZ$0:
  00000	8b 4d f0	 mov	 ecx, DWORD PTR _this$[ebp]
  00003	e9 00 00 00 00	 jmp	 ??1?$vector@UAttackAttribute@@V?$allocator@UAttackAttribute@@@std@@@std@@QAE@XZ ; std::vector<AttackAttribute,std::allocator<AttackAttribute> >::~vector<AttackAttribute,std::allocator<AttackAttribute> >
__unwindfunclet$??1ioFormalAttackGrp@@QAE@XZ$1:
  00008	8b 4d f0	 mov	 ecx, DWORD PTR _this$[ebp]
  0000b	83 c1 10	 add	 ecx, 16			; 00000010H
  0000e	e9 00 00 00 00	 jmp	 ??1AttackAttribute@@QAE@XZ
__unwindfunclet$??1ioFormalAttackGrp@@QAE@XZ$2:
  00013	8b 4d f0	 mov	 ecx, DWORD PTR _this$[ebp]
  00016	83 c1 60	 add	 ecx, 96			; 00000060H
  00019	e9 00 00 00 00	 jmp	 ??1AttackAttribute@@QAE@XZ
__unwindfunclet$??1ioFormalAttackGrp@@QAE@XZ$3:
  0001e	8b 4d f0	 mov	 ecx, DWORD PTR _this$[ebp]
  00021	81 c1 b0 00 00
	00		 add	 ecx, 176		; 000000b0H
  00027	e9 00 00 00 00	 jmp	 ??1AttackAttribute@@QAE@XZ
__unwindfunclet$??1ioFormalAttackGrp@@QAE@XZ$4:
  0002c	8b 4d f0	 mov	 ecx, DWORD PTR _this$[ebp]
  0002f	81 c1 00 01 00
	00		 add	 ecx, 256		; 00000100H
  00035	e9 00 00 00 00	 jmp	 ??1AttackAttribute@@QAE@XZ
__unwindfunclet$??1ioFormalAttackGrp@@QAE@XZ$5:
  0003a	8b 4d f0	 mov	 ecx, DWORD PTR _this$[ebp]
  0003d	81 c1 50 01 00
	00		 add	 ecx, 336		; 00000150H
  00043	e9 00 00 00 00	 jmp	 ??1AttackAttribute@@QAE@XZ
__unwindfunclet$??1ioFormalAttackGrp@@QAE@XZ$6:
  00048	8b 4d f0	 mov	 ecx, DWORD PTR _this$[ebp]
  0004b	81 c1 a0 01 00
	00		 add	 ecx, 416		; 000001a0H
  00051	e9 00 00 00 00	 jmp	 ??1AttackAttribute@@QAE@XZ
__unwindfunclet$??1ioFormalAttackGrp@@QAE@XZ$7:
  00056	8b 4d f0	 mov	 ecx, DWORD PTR _this$[ebp]
  00059	81 c1 f0 01 00
	00		 add	 ecx, 496		; 000001f0H
  0005f	e9 00 00 00 00	 jmp	 ??1AttackAttribute@@QAE@XZ
__unwindfunclet$??1ioFormalAttackGrp@@QAE@XZ$8:
  00064	8b 4d f0	 mov	 ecx, DWORD PTR _this$[ebp]
  00067	81 c1 40 02 00
	00		 add	 ecx, 576		; 00000240H
  0006d	e9 00 00 00 00	 jmp	 ??1?$vector@UAttackAttribute@@V?$allocator@UAttackAttribute@@@std@@@std@@QAE@XZ ; std::vector<AttackAttribute,std::allocator<AttackAttribute> >::~vector<AttackAttribute,std::allocator<AttackAttribute> >
__ehhandler$??1ioFormalAttackGrp@@QAE@XZ:
  00072	8b 54 24 08	 mov	 edx, DWORD PTR [esp+8]
  00076	8d 42 0c	 lea	 eax, DWORD PTR [edx+12]
  00079	8b 4a ec	 mov	 ecx, DWORD PTR [edx-20]
  0007c	33 c8		 xor	 ecx, eax
  0007e	e8 00 00 00 00	 call	 @__security_check_cookie@4
  00083	b8 00 00 00 00	 mov	 eax, OFFSET __ehfuncinfo$??1ioFormalAttackGrp@@QAE@XZ
  00088	e9 00 00 00 00	 jmp	 ___CxxFrameHandler3
text$x	ENDS
??1ioFormalAttackGrp@@QAE@XZ ENDP			; ioFormalAttackGrp::~ioFormalAttackGrp
PUBLIC	?push_back@?$vector@UAttackAttribute@@V?$allocator@UAttackAttribute@@@std@@@std@@QAEXABUAttackAttribute@@@Z ; std::vector<AttackAttribute,std::allocator<AttackAttribute> >::push_back
; Function compile flags: /Ogsp
; File c:\program files (x86)\microsoft visual studio 10.0\vc\include\vector
;	COMDAT ?push_back@?$vector@UAttackAttribute@@V?$allocator@UAttackAttribute@@@std@@@std@@QAEXABUAttackAttribute@@@Z
_TEXT	SEGMENT
__Val$ = 8						; size = 4
?push_back@?$vector@UAttackAttribute@@V?$allocator@UAttackAttribute@@@std@@@std@@QAEXABUAttackAttribute@@@Z PROC ; std::vector<AttackAttribute,std::allocator<AttackAttribute> >::push_back, COMDAT
; _this$ = ecx

; 976  : 		{	// insert element at end

  00000	55		 push	 ebp
  00001	8b ec		 mov	 ebp, esp
  00003	56		 push	 esi
  00004	8b f1		 mov	 esi, ecx

; 977  : 		if (_Inside(_STD addressof(_Val)))

  00006	8b 4e 04	 mov	 ecx, DWORD PTR [esi+4]
  00009	57		 push	 edi
  0000a	8b 7d 08	 mov	 edi, DWORD PTR __Val$[ebp]
  0000d	3b f9		 cmp	 edi, ecx
  0000f	73 37		 jae	 SHORT $LN4@push_back
  00011	8b 16		 mov	 edx, DWORD PTR [esi]
  00013	3b d7		 cmp	 edx, edi
  00015	77 31		 ja	 SHORT $LN4@push_back

; 978  : 			{	// push back an element
; 979  : 			size_type _Idx = _STD addressof(_Val) - this->_Myfirst;

  00017	8b c7		 mov	 eax, edi
  00019	2b c2		 sub	 eax, edx
  0001b	6a 50		 push	 80			; 00000050H
  0001d	99		 cdq
  0001e	5f		 pop	 edi
  0001f	f7 ff		 idiv	 edi
  00021	8b f8		 mov	 edi, eax

; 980  : 			if (this->_Mylast == this->_Myend)

  00023	3b 4e 08	 cmp	 ecx, DWORD PTR [esi+8]
  00026	75 09		 jne	 SHORT $LN3@push_back

; 981  : 				_Reserve(1);

  00028	6a 01		 push	 1
  0002a	8b ce		 mov	 ecx, esi
  0002c	e8 00 00 00 00	 call	 ?_Reserve@?$vector@UAttackAttribute@@V?$allocator@UAttackAttribute@@@std@@@std@@IAEXI@Z ; std::vector<AttackAttribute,std::allocator<AttackAttribute> >::_Reserve
$LN3@push_back:

; 982  : 			_Orphan_range(this->_Mylast, this->_Mylast);
; 983  : 			_Cons_val(this->_Alval,
; 984  : 				this->_Mylast,
; 985  : 				this->_Myfirst[_Idx]);

  00031	6b ff 50	 imul	 edi, 80			; 00000050H
  00034	03 3e		 add	 edi, DWORD PTR [esi]
  00036	8d 46 0c	 lea	 eax, DWORD PTR [esi+12]
  00039	57		 push	 edi
  0003a	ff 76 04	 push	 DWORD PTR [esi+4]
  0003d	50		 push	 eax
  0003e	e8 00 00 00 00	 call	 ??$_Cons_val@V?$allocator@UAttackAttribute@@@std@@UAttackAttribute@@AAU3@@std@@YAXAAV?$allocator@UAttackAttribute@@@0@PAUAttackAttribute@@AAU2@@Z ; std::_Cons_val<std::allocator<AttackAttribute>,AttackAttribute,AttackAttribute &>
  00043	83 c4 0c	 add	 esp, 12			; 0000000cH

; 986  : 			++this->_Mylast;
; 987  : 			}
; 988  : 		else

  00046	eb 19		 jmp	 SHORT $LN26@push_back
$LN4@push_back:

; 989  : 			{	// push back a non-element
; 990  : 			if (this->_Mylast == this->_Myend)

  00048	3b 4e 08	 cmp	 ecx, DWORD PTR [esi+8]
  0004b	75 09		 jne	 SHORT $LN1@push_back

; 991  : 				_Reserve(1);

  0004d	6a 01		 push	 1
  0004f	8b ce		 mov	 ecx, esi
  00051	e8 00 00 00 00	 call	 ?_Reserve@?$vector@UAttackAttribute@@V?$allocator@UAttackAttribute@@@std@@@std@@IAEXI@Z ; std::vector<AttackAttribute,std::allocator<AttackAttribute> >::_Reserve
$LN1@push_back:

; 992  : 			_Orphan_range(this->_Mylast, this->_Mylast);
; 993  : 			_Cons_val(this->_Alval,
; 994  : 				this->_Mylast,
; 995  : 				_Val);

  00056	57		 push	 edi
  00057	ff 76 04	 push	 DWORD PTR [esi+4]
  0005a	e8 00 00 00 00	 call	 ??$_Construct@UAttackAttribute@@ABU1@@std@@YAXPAUAttackAttribute@@ABU1@@Z ; std::_Construct<AttackAttribute,AttackAttribute const &>
  0005f	59		 pop	 ecx
  00060	59		 pop	 ecx
$LN26@push_back:

; 996  : 			++this->_Mylast;

  00061	83 46 04 50	 add	 DWORD PTR [esi+4], 80	; 00000050H
  00065	5f		 pop	 edi
  00066	5e		 pop	 esi

; 997  : 			}
; 998  : 		}

  00067	5d		 pop	 ebp
  00068	c2 04 00	 ret	 4
?push_back@?$vector@UAttackAttribute@@V?$allocator@UAttackAttribute@@@std@@@std@@QAEXABUAttackAttribute@@@Z ENDP ; std::vector<AttackAttribute,std::allocator<AttackAttribute> >::push_back
_TEXT	ENDS
PUBLIC	_rkLoader$GSCopy$
PUBLIC	?LoadProperty@ioFormalAttackGrp@@QAEXAAVioINILoader@@PAVioItem@@@Z ; ioFormalAttackGrp::LoadProperty
EXTRN	__imp__wsprintfA:PROC
;	COMDAT xdata$x
; File d:\lost saga for developer\youtube\tutorial\source\src\lsclient\stringprotect.h
xdata$x	SEGMENT
__unwindtable$?LoadProperty@ioFormalAttackGrp@@QAEXAAVioINILoader@@PAVioItem@@@Z DD 0ffffffffH
	DD	FLAT:__unwindfunclet$?LoadProperty@ioFormalAttackGrp@@QAEXAAVioINILoader@@PAVioItem@@@Z$0
	DD	0ffffffffH
	DD	FLAT:__unwindfunclet$?LoadProperty@ioFormalAttackGrp@@QAEXAAVioINILoader@@PAVioItem@@@Z$1
	DD	0ffffffffH
	DD	FLAT:__unwindfunclet$?LoadProperty@ioFormalAttackGrp@@QAEXAAVioINILoader@@PAVioItem@@@Z$2
__ehfuncinfo$?LoadProperty@ioFormalAttackGrp@@QAEXAAVioINILoader@@PAVioItem@@@Z DD 019930522H
	DD	03H
	DD	FLAT:__unwindtable$?LoadProperty@ioFormalAttackGrp@@QAEXAAVioINILoader@@PAVioItem@@@Z
	DD	2 DUP(00H)
	DD	2 DUP(00H)
	DD	00H
	DD	01H
; Function compile flags: /Ogsp
; File d:\lost saga for developer\youtube\tutorial\source\src\lsclient\ioformalattackgrp.cpp
xdata$x	ENDS
;	COMDAT ?LoadProperty@ioFormalAttackGrp@@QAEXAAVioINILoader@@PAVioItem@@@Z
_TEXT	SEGMENT
_kAttribute$505433 = -432				; size = 80
_kAttribute$505271 = -432				; size = 80
_kAttribute$505091 = -432				; size = 80
_iMaxAttackCnt$ = -352					; size = 4
_iMaxCombo$ = -352					; size = 4
tv9369 = -348						; size = 4
$T516337 = -348						; size = 4
$T516129 = -348						; size = 4
$T515654 = -348						; size = 4
_i$ = -348						; size = 4
_rkLoader$GSCopy$ = -344				; size = 4
_szBuf$ = -340						; size = 260
___encStr$505437 = -80					; size = 26
___encStr$505275 = -76					; size = 20
_szEncAttack$516883 = -72				; size = 17
_szEncAttack$516758 = -48				; size = 24
__k$516214 = -48					; size = 25
_szEncAttack$516508 = -44				; size = 19
__k$515949 = -44					; size = 19
_szEncAttack$516633 = -40				; size = 17
_szEncAttack$515699 = -40				; size = 15
___encStr$505095 = -40					; size = 17
_szEncAttack$516396 = -36				; size = 12
_szEncAttack$515824 = -36				; size = 12
__k$515483 = -36					; size = 10
__$EHRec$ = -12						; size = 12
_rkLoader$ = 8						; size = 4
_pOwnerItem$ = 12					; size = 4
?LoadProperty@ioFormalAttackGrp@@QAEXAAVioINILoader@@PAVioItem@@@Z PROC ; ioFormalAttackGrp::LoadProperty, COMDAT
; _this$ = ecx

; 16   : {

  00000	68 a4 01 00 00	 push	 420			; 000001a4H
  00005	b8 00 00 00 00	 mov	 eax, __ehhandler$?LoadProperty@ioFormalAttackGrp@@QAEXAAVioINILoader@@PAVioItem@@@Z
  0000a	e8 00 00 00 00	 call	 __EH_prolog3_GS

; 22   : 	for(i = 0;i < iMaxCombo;i++)

  0000f	8b 45 08	 mov	 eax, DWORD PTR _rkLoader$[ebp]
  00012	6a 02		 push	 2
  00014	8b f1		 mov	 esi, ecx
  00016	89 85 a8 fe ff
	ff		 mov	 DWORD PTR _rkLoader$GSCopy$[ebp], eax
  0001c	c7 45 dc 80 8d
	93 b5		 mov	 DWORD PTR __k$515483[ebp], -1248621184 ; b5938d80H
  00023	c7 45 e0 8e 83
	86 88		 mov	 DWORD PTR __k$515483[ebp+4], -2004450418 ; 8886838eH
  0002a	8d 45 dc	 lea	 eax, DWORD PTR __k$515483[ebp]
  0002d	33 db		 xor	 ebx, ebx
  0002f	66 c7 45 e4 82
	00		 mov	 WORD PTR __k$515483[ebp+8], 130 ; 00000082H
  00035	59		 pop	 ecx
$LL425@LoadProper:

; 17   : 	char szBuf[MAX_PATH];
; 18   : 	int iMaxCombo = rkLoader.LoadInt_e( "max_combo", 1 );

  00036	81 30 ed ec eb
	ea		 xor	 DWORD PTR [eax], -353637139 ; eaebecedH
  0003c	83 c0 04	 add	 eax, 4
  0003f	49		 dec	 ecx
  00040	75 f4		 jne	 SHORT $LL425@LoadProper
  00042	8b 8d a8 fe ff
	ff		 mov	 ecx, DWORD PTR _rkLoader$GSCopy$[ebp]
  00048	80 75 e4 ed	 xor	 BYTE PTR __k$515483[ebp+8], -19 ; ffffffedH
  0004c	6a 01		 push	 1
  0004e	8d 45 dc	 lea	 eax, DWORD PTR __k$515483[ebp]
  00051	50		 push	 eax
  00052	ff 15 00 00 00
	00		 call	 DWORD PTR __imp_?LoadInt@ioINILoader@@QAEHPBDH@Z

; 19   : 
; 20   : 	int i = 0;
; 21   : 	m_NormalAttackList.clear();

  00058	8b 0e		 mov	 ecx, DWORD PTR [esi]
  0005a	89 85 a0 fe ff
	ff		 mov	 DWORD PTR _iMaxCombo$[ebp], eax
  00060	8b 46 04	 mov	 eax, DWORD PTR [esi+4]
  00063	50		 push	 eax
  00064	51		 push	 ecx
  00065	8d 85 a4 fe ff
	ff		 lea	 eax, DWORD PTR $T515654[ebp]
  0006b	50		 push	 eax
  0006c	8b ce		 mov	 ecx, esi
  0006e	e8 00 00 00 00	 call	 ?erase@?$vector@UAttackAttribute@@V?$allocator@UAttackAttribute@@@std@@@std@@QAE?AV?$_Vector_iterator@V?$_Vector_val@UAttackAttribute@@V?$allocator@UAttackAttribute@@@std@@@std@@@2@V?$_Vector_const_iterator@V?$_Vector_val@UAttackAttribute@@V?$allocator@UAttackAttribute@@@std@@@std@@@2@0@Z ; std::vector<AttackAttribute,std::allocator<AttackAttribute> >::erase

; 22   : 	for(i = 0;i < iMaxCombo;i++)

  00073	33 ff		 xor	 edi, edi
  00075	39 9d a0 fe ff
	ff		 cmp	 DWORD PTR _iMaxCombo$[ebp], ebx
  0007b	0f 8e b8 00 00
	00		 jle	 $LN314@LoadProper
$LL316@LoadProper:

; 23   : 	{
; 24   : 		AttackAttribute kAttribute;

  00081	8d 8d 50 fe ff
	ff		 lea	 ecx, DWORD PTR _kAttribute$505091[ebp]
  00087	e8 00 00 00 00	 call	 ??0AttackAttribute@@QAE@XZ ; AttackAttribute::AttackAttribute
  0008c	6a 04		 push	 4
  0008e	89 5d fc	 mov	 DWORD PTR __$EHRec$[ebp+8], ebx

; 25   : 
; 26   : 		wsprintf_e( szBuf, "normal_attack0%d", i+1 );

  00091	c7 45 d8 83 83
	99 87		 mov	 DWORD PTR ___encStr$505095[ebp], -2019982461 ; 87998383H
  00098	c7 45 dc 8c 80
	b4 8b		 mov	 DWORD PTR ___encStr$505095[ebp+4], -1951104884 ; 8bb4808cH
  0009f	c7 45 e0 99 98
	8a 89		 mov	 DWORD PTR ___encStr$505095[ebp+8], -1987405671 ; 898a9899H
  000a6	c7 45 e4 86 dc
	ce 8e		 mov	 DWORD PTR ___encStr$505095[ebp+12], -1899045754 ; 8ecedc86H
  000ad	8d 45 d8	 lea	 eax, DWORD PTR ___encStr$505095[ebp]
  000b0	88 5d e8	 mov	 BYTE PTR ___encStr$505095[ebp+16], bl
  000b3	59		 pop	 ecx
$LL451@LoadProper:
  000b4	81 30 ed ec eb
	ea		 xor	 DWORD PTR [eax], -353637139 ; eaebecedH
  000ba	83 c0 04	 add	 eax, 4
  000bd	49		 dec	 ecx
  000be	75 f4		 jne	 SHORT $LL451@LoadProper
  000c0	47		 inc	 edi
  000c1	57		 push	 edi
  000c2	8d 45 d8	 lea	 eax, DWORD PTR ___encStr$505095[ebp]
  000c5	50		 push	 eax
  000c6	8d 85 ac fe ff
	ff		 lea	 eax, DWORD PTR _szBuf$[ebp]
  000cc	50		 push	 eax
  000cd	ff 15 00 00 00
	00		 call	 DWORD PTR __imp__wsprintfA

; 27   : 		LoadAttackAttribute( szBuf, kAttribute, rkLoader );		

  000d3	ff b5 a8 fe ff
	ff		 push	 DWORD PTR _rkLoader$GSCopy$[ebp]
  000d9	8d 85 50 fe ff
	ff		 lea	 eax, DWORD PTR _kAttribute$505091[ebp]
  000df	50		 push	 eax
  000e0	8d 85 ac fe ff
	ff		 lea	 eax, DWORD PTR _szBuf$[ebp]
  000e6	50		 push	 eax
  000e7	e8 00 00 00 00	 call	 ?LoadAttackAttribute@@YAXPBDAAUAttackAttribute@@AAVioINILoader@@@Z ; LoadAttackAttribute
  000ec	83 c4 18	 add	 esp, 24			; 00000018H

; 28   : 		m_NormalAttackList.push_back( kAttribute );

  000ef	8d 85 50 fe ff
	ff		 lea	 eax, DWORD PTR _kAttribute$505091[ebp]
  000f5	50		 push	 eax
  000f6	8b ce		 mov	 ecx, esi
  000f8	e8 00 00 00 00	 call	 ?push_back@?$vector@UAttackAttribute@@V?$allocator@UAttackAttribute@@@std@@@std@@QAEXABUAttackAttribute@@@Z ; std::vector<AttackAttribute,std::allocator<AttackAttribute> >::push_back

; 29   : 
; 30   : 		// Ani
; 31   : 		if( !pOwnerItem )

  000fd	39 5d 0c	 cmp	 DWORD PTR _pOwnerItem$[ebp], ebx
  00100	75 1c		 jne	 SHORT $LN214@LoadProper

; 32   : 		{
; 33   : 			PrepareLoadingAnimation( kAttribute.m_AttackAnimation );

  00102	8d 85 50 fe ff
	ff		 lea	 eax, DWORD PTR _kAttribute$505091[ebp]
  00108	50		 push	 eax
  00109	8b ce		 mov	 ecx, esi
  0010b	e8 00 00 00 00	 call	 ?PrepareLoadingAnimation@ioFormalAttackGrp@@QAEXABVioHashString@@@Z ; ioFormalAttackGrp::PrepareLoadingAnimation

; 34   : 			PrepareLoadingAnimation( kAttribute.m_AttackEndAnimation );

  00110	8d 85 64 fe ff
	ff		 lea	 eax, DWORD PTR _kAttribute$505091[ebp+20]
  00116	50		 push	 eax
  00117	8b ce		 mov	 ecx, esi
  00119	e8 00 00 00 00	 call	 ?PrepareLoadingAnimation@ioFormalAttackGrp@@QAEXABVioHashString@@@Z ; ioFormalAttackGrp::PrepareLoadingAnimation
$LN214@LoadProper:

; 35   : 		}
; 36   : 	}

  0011e	83 4d fc ff	 or	 DWORD PTR __$EHRec$[ebp+8], -1
  00122	8d 8d 50 fe ff
	ff		 lea	 ecx, DWORD PTR _kAttribute$505091[ebp]
  00128	e8 00 00 00 00	 call	 ??1AttackAttribute@@QAE@XZ
  0012d	3b bd a0 fe ff
	ff		 cmp	 edi, DWORD PTR _iMaxCombo$[ebp]
  00133	0f 8c 48 ff ff
	ff		 jl	 $LL316@LoadProper
$LN314@LoadProper:

; 37   : 	
; 38   : 	// Counter Attack
; 39   : 	m_CounterAttack.Init();

  00139	8d 7e 10	 lea	 edi, DWORD PTR [esi+16]
  0013c	8b cf		 mov	 ecx, edi
  0013e	e8 00 00 00 00	 call	 ?Init@AttackAttribute@@QAEXXZ ; AttackAttribute::Init
  00143	6a 03		 push	 3

; 40   : 	LoadAttackAttribute_e( "counter_attack", m_CounterAttack, rkLoader );

  00145	c7 45 d8 8e 83
	9e 84		 mov	 DWORD PTR _szEncAttack$515699[ebp], -2069986418 ; 849e838eH
  0014c	c7 45 dc 99 89
	99 b5		 mov	 DWORD PTR _szEncAttack$515699[ebp+4], -1248228967 ; b5998999H
  00153	c7 45 e0 8c 98
	9f 8b		 mov	 DWORD PTR _szEncAttack$515699[ebp+8], -1952474996 ; 8b9f988cH
  0015a	66 c7 45 e4 8e
	87		 mov	 WORD PTR _szEncAttack$515699[ebp+12], 34702 ; 0000878eH
  00160	8d 45 d8	 lea	 eax, DWORD PTR _szEncAttack$515699[ebp]
  00163	88 5d e6	 mov	 BYTE PTR _szEncAttack$515699[ebp+14], bl
  00166	59		 pop	 ecx
$LL557@LoadProper:
  00167	81 30 ed ec eb
	ea		 xor	 DWORD PTR [eax], -353637139 ; eaebecedH
  0016d	83 c0 04	 add	 eax, 4
  00170	49		 dec	 ecx
  00171	75 f4		 jne	 SHORT $LL557@LoadProper
  00173	6a 0c		 push	 12			; 0000000cH
  00175	58		 pop	 eax
$LL554@LoadProper:
  00176	8b c8		 mov	 ecx, eax
  00178	81 e1 03 00 00
	80		 and	 ecx, -2147483645	; 80000003H
  0017e	79 05		 jns	 SHORT $LN1521@LoadProper
  00180	49		 dec	 ecx
  00181	83 c9 fc	 or	 ecx, -4			; fffffffcH
  00184	41		 inc	 ecx
$LN1521@LoadProper:
  00185	b2 ed		 mov	 dl, -19			; ffffffedH
  00187	2a d1		 sub	 dl, cl
  00189	30 54 05 d8	 xor	 BYTE PTR _szEncAttack$515699[ebp+eax], dl
  0018d	40		 inc	 eax
  0018e	83 f8 0e	 cmp	 eax, 14			; 0000000eH
  00191	7c e3		 jl	 SHORT $LL554@LoadProper
  00193	ff b5 a8 fe ff
	ff		 push	 DWORD PTR _rkLoader$GSCopy$[ebp]
  00199	8d 45 d8	 lea	 eax, DWORD PTR _szEncAttack$515699[ebp]
  0019c	57		 push	 edi
  0019d	50		 push	 eax
  0019e	e8 00 00 00 00	 call	 ?LoadAttackAttribute@@YAXPBDAAUAttackAttribute@@AAVioINILoader@@@Z ; LoadAttackAttribute
  001a3	83 c4 0c	 add	 esp, 12			; 0000000cH

; 41   : 	if( !pOwnerItem )

  001a6	39 5d 0c	 cmp	 DWORD PTR _pOwnerItem$[ebp], ebx
  001a9	75 13		 jne	 SHORT $LN213@LoadProper

; 42   : 	{
; 43   : 		PrepareLoadingAnimation( m_CounterAttack.m_AttackAnimation );

  001ab	57		 push	 edi
  001ac	8b ce		 mov	 ecx, esi
  001ae	e8 00 00 00 00	 call	 ?PrepareLoadingAnimation@ioFormalAttackGrp@@QAEXABVioHashString@@@Z ; ioFormalAttackGrp::PrepareLoadingAnimation

; 44   : 		PrepareLoadingAnimation( m_CounterAttack.m_AttackEndAnimation );

  001b3	8d 46 24	 lea	 eax, DWORD PTR [esi+36]
  001b6	50		 push	 eax
  001b7	8b ce		 mov	 ecx, esi
  001b9	e8 00 00 00 00	 call	 ?PrepareLoadingAnimation@ioFormalAttackGrp@@QAEXABVioHashString@@@Z ; ioFormalAttackGrp::PrepareLoadingAnimation
$LN213@LoadProper:

; 45   : 	}
; 46   : 
; 47   : 	// Dash Attack
; 48   : 	m_DashAttack.Init();

  001be	8d 7e 60	 lea	 edi, DWORD PTR [esi+96]
  001c1	8b cf		 mov	 ecx, edi
  001c3	e8 00 00 00 00	 call	 ?Init@AttackAttribute@@QAEXXZ ; AttackAttribute::Init
  001c8	6a 02		 push	 2

; 49   : 	LoadAttackAttribute_e( "dash_attack", m_DashAttack, rkLoader );

  001ca	c7 45 dc 89 8d
	98 82		 mov	 DWORD PTR _szEncAttack$515824[ebp], -2103931511 ; 82988d89H
  001d1	c7 45 e0 b2 8d
	9f 9e		 mov	 DWORD PTR _szEncAttack$515824[ebp+4], -1633710670 ; 9e9f8db2H
  001d8	8d 45 dc	 lea	 eax, DWORD PTR _szEncAttack$515824[ebp]
  001db	c7 45 e4 8c 8f
	80 00		 mov	 DWORD PTR _szEncAttack$515824[ebp+8], 8425356 ; 00808f8cH
  001e2	59		 pop	 ecx
$LL663@LoadProper:
  001e3	81 30 ed ec eb
	ea		 xor	 DWORD PTR [eax], -353637139 ; eaebecedH
  001e9	83 c0 04	 add	 eax, 4
  001ec	49		 dec	 ecx
  001ed	75 f4		 jne	 SHORT $LL663@LoadProper
  001ef	6a 08		 push	 8
  001f1	58		 pop	 eax
$LL660@LoadProper:
  001f2	8b c8		 mov	 ecx, eax
  001f4	81 e1 03 00 00
	80		 and	 ecx, -2147483645	; 80000003H
  001fa	79 05		 jns	 SHORT $LN1522@LoadProper
  001fc	49		 dec	 ecx
  001fd	83 c9 fc	 or	 ecx, -4			; fffffffcH
  00200	41		 inc	 ecx
$LN1522@LoadProper:
  00201	b2 ed		 mov	 dl, -19			; ffffffedH
  00203	2a d1		 sub	 dl, cl
  00205	30 54 05 dc	 xor	 BYTE PTR _szEncAttack$515824[ebp+eax], dl
  00209	40		 inc	 eax
  0020a	83 f8 0b	 cmp	 eax, 11			; 0000000bH
  0020d	7c e3		 jl	 SHORT $LL660@LoadProper
  0020f	ff b5 a8 fe ff
	ff		 push	 DWORD PTR _rkLoader$GSCopy$[ebp]
  00215	8d 45 dc	 lea	 eax, DWORD PTR _szEncAttack$515824[ebp]
  00218	57		 push	 edi
  00219	50		 push	 eax
  0021a	e8 00 00 00 00	 call	 ?LoadAttackAttribute@@YAXPBDAAUAttackAttribute@@AAVioINILoader@@@Z ; LoadAttackAttribute
  0021f	83 c4 0c	 add	 esp, 12			; 0000000cH

; 50   : 	if( !pOwnerItem )

  00222	39 5d 0c	 cmp	 DWORD PTR _pOwnerItem$[ebp], ebx
  00225	75 13		 jne	 SHORT $LN212@LoadProper

; 51   : 	{
; 52   : 		PrepareLoadingAnimation( m_DashAttack.m_AttackAnimation );

  00227	57		 push	 edi
  00228	8b ce		 mov	 ecx, esi
  0022a	e8 00 00 00 00	 call	 ?PrepareLoadingAnimation@ioFormalAttackGrp@@QAEXABVioHashString@@@Z ; ioFormalAttackGrp::PrepareLoadingAnimation

; 53   : 		PrepareLoadingAnimation( m_DashAttack.m_AttackEndAnimation );

  0022f	8d 46 74	 lea	 eax, DWORD PTR [esi+116]
  00232	50		 push	 eax
  00233	8b ce		 mov	 ecx, esi
  00235	e8 00 00 00 00	 call	 ?PrepareLoadingAnimation@ioFormalAttackGrp@@QAEXABVioHashString@@@Z ; ioFormalAttackGrp::PrepareLoadingAnimation
$LN212@LoadProper:

; 54   : 	}
; 55   : 
; 56   : 	// extradash attack
; 57   : 	int iMaxAttackCnt = rkLoader.LoadInt_e( "extra_dash_max_cnt", 1 );

  0023a	6a 04		 push	 4
  0023c	c7 45 d4 88 94
	9f 98		 mov	 DWORD PTR __k$515949[ebp], -1734372216 ; 989f9488H
  00243	c7 45 d8 8c b3
	8f 8b		 mov	 DWORD PTR __k$515949[ebp+4], -1953516660 ; 8b8fb38cH
  0024a	c7 45 dc 9e 84
	b4 87		 mov	 DWORD PTR __k$515949[ebp+8], -2018212706 ; 87b4849eH
  00251	c7 45 e0 8c 94
	b4 89		 mov	 DWORD PTR __k$515949[ebp+12], -1984654196 ; 89b4948cH
  00258	66 c7 45 e4 83
	98		 mov	 WORD PTR __k$515949[ebp+16], 39043 ; 00009883H
  0025e	8d 45 d4	 lea	 eax, DWORD PTR __k$515949[ebp]
  00261	88 5d e6	 mov	 BYTE PTR __k$515949[ebp+18], bl
  00264	59		 pop	 ecx
$LL769@LoadProper:
  00265	81 30 ed ec eb
	ea		 xor	 DWORD PTR [eax], -353637139 ; eaebecedH
  0026b	83 c0 04	 add	 eax, 4
  0026e	49		 dec	 ecx
  0026f	75 f4		 jne	 SHORT $LL769@LoadProper
  00271	6a 10		 push	 16			; 00000010H
  00273	5f		 pop	 edi
$LL766@LoadProper:
  00274	8b c7		 mov	 eax, edi
  00276	25 03 00 00 80	 and	 eax, -2147483645	; 80000003H
  0027b	79 05		 jns	 SHORT $LN1523@LoadProper
  0027d	48		 dec	 eax
  0027e	83 c8 fc	 or	 eax, -4			; fffffffcH
  00281	40		 inc	 eax
$LN1523@LoadProper:
  00282	b1 ed		 mov	 cl, -19			; ffffffedH
  00284	2a c8		 sub	 cl, al
  00286	30 4c 3d d4	 xor	 BYTE PTR __k$515949[ebp+edi], cl
  0028a	47		 inc	 edi
  0028b	83 ff 12	 cmp	 edi, 18			; 00000012H
  0028e	7c e4		 jl	 SHORT $LL766@LoadProper
  00290	8b 8d a8 fe ff
	ff		 mov	 ecx, DWORD PTR _rkLoader$GSCopy$[ebp]
  00296	6a 01		 push	 1
  00298	8d 45 d4	 lea	 eax, DWORD PTR __k$515949[ebp]
  0029b	50		 push	 eax
  0029c	ff 15 00 00 00
	00		 call	 DWORD PTR __imp_?LoadInt@ioINILoader@@QAEHPBDH@Z

; 58   : 
; 59   : 	m_ExtraDashAttackList.clear();

  002a2	8b 8e 40 02 00
	00		 mov	 ecx, DWORD PTR [esi+576]
  002a8	89 85 a0 fe ff
	ff		 mov	 DWORD PTR _iMaxAttackCnt$[ebp], eax
  002ae	8b 86 44 02 00
	00		 mov	 eax, DWORD PTR [esi+580]
  002b4	50		 push	 eax
  002b5	51		 push	 ecx
  002b6	8d 85 a4 fe ff
	ff		 lea	 eax, DWORD PTR $T516129[ebp]
  002bc	50		 push	 eax
  002bd	8d 8e 40 02 00
	00		 lea	 ecx, DWORD PTR [esi+576]
  002c3	e8 00 00 00 00	 call	 ?erase@?$vector@UAttackAttribute@@V?$allocator@UAttackAttribute@@@std@@@std@@QAE?AV?$_Vector_iterator@V?$_Vector_val@UAttackAttribute@@V?$allocator@UAttackAttribute@@@std@@@std@@@2@V?$_Vector_const_iterator@V?$_Vector_val@UAttackAttribute@@V?$allocator@UAttackAttribute@@@std@@@std@@@2@0@Z ; std::vector<AttackAttribute,std::allocator<AttackAttribute> >::erase

; 60   : 	for( i=0; i < iMaxAttackCnt; i++ )

  002c8	89 9d a4 fe ff
	ff		 mov	 DWORD PTR _i$[ebp], ebx
  002ce	39 9d a0 fe ff
	ff		 cmp	 DWORD PTR _iMaxAttackCnt$[ebp], ebx
  002d4	0f 8e fc 00 00
	00		 jle	 $LN209@LoadProper
$LL211@LoadProper:

; 61   : 	{
; 62   : 		AttackAttribute kAttribute;

  002da	8d 8d 50 fe ff
	ff		 lea	 ecx, DWORD PTR _kAttribute$505271[ebp]
  002e0	e8 00 00 00 00	 call	 ??0AttackAttribute@@QAE@XZ ; AttackAttribute::AttackAttribute
  002e5	6a 04		 push	 4
  002e7	c7 45 fc 01 00
	00 00		 mov	 DWORD PTR __$EHRec$[ebp+8], 1

; 63   : 
; 64   : 		wsprintf_e( szBuf, "extra_dash_attack%d", i+1 );

  002ee	c7 45 b4 88 94
	9f 98		 mov	 DWORD PTR ___encStr$505275[ebp], -1734372216 ; 989f9488H
  002f5	c7 45 b8 8c b3
	8f 8b		 mov	 DWORD PTR ___encStr$505275[ebp+4], -1953516660 ; 8b8fb38cH
  002fc	c7 45 bc 9e 84
	b4 8b		 mov	 DWORD PTR ___encStr$505275[ebp+8], -1951103842 ; 8bb4849eH
  00303	c7 45 c0 99 98
	8a 89		 mov	 DWORD PTR ___encStr$505275[ebp+12], -1987405671 ; 898a9899H
  0030a	8d 45 b4	 lea	 eax, DWORD PTR ___encStr$505275[ebp]
  0030d	c7 45 c4 86 c9
	8f 00		 mov	 DWORD PTR ___encStr$505275[ebp+16], 9423238 ; 008fc986H
  00314	59		 pop	 ecx
$LL795@LoadProper:
  00315	81 30 ed ec eb
	ea		 xor	 DWORD PTR [eax], -353637139 ; eaebecedH
  0031b	83 c0 04	 add	 eax, 4
  0031e	49		 dec	 ecx
  0031f	75 f4		 jne	 SHORT $LL795@LoadProper
  00321	6a 10		 push	 16			; 00000010H
  00323	58		 pop	 eax
$LL792@LoadProper:
  00324	8b c8		 mov	 ecx, eax
  00326	81 e1 03 00 00
	80		 and	 ecx, -2147483645	; 80000003H
  0032c	79 05		 jns	 SHORT $LN1524@LoadProper
  0032e	49		 dec	 ecx
  0032f	83 c9 fc	 or	 ecx, -4			; fffffffcH
  00332	41		 inc	 ecx
$LN1524@LoadProper:
  00333	b2 ed		 mov	 dl, -19			; ffffffedH
  00335	2a d1		 sub	 dl, cl
  00337	30 54 05 b4	 xor	 BYTE PTR ___encStr$505275[ebp+eax], dl
  0033b	40		 inc	 eax
  0033c	83 f8 13	 cmp	 eax, 19			; 00000013H
  0033f	7c e3		 jl	 SHORT $LL792@LoadProper
  00341	8b 85 a4 fe ff
	ff		 mov	 eax, DWORD PTR _i$[ebp]
  00347	40		 inc	 eax
  00348	50		 push	 eax
  00349	89 85 a4 fe ff
	ff		 mov	 DWORD PTR tv9369[ebp], eax
  0034f	8d 45 b4	 lea	 eax, DWORD PTR ___encStr$505275[ebp]
  00352	50		 push	 eax
  00353	8d 85 ac fe ff
	ff		 lea	 eax, DWORD PTR _szBuf$[ebp]
  00359	50		 push	 eax
  0035a	ff 15 00 00 00
	00		 call	 DWORD PTR __imp__wsprintfA

; 65   : 		LoadAttackAttribute( szBuf, kAttribute, rkLoader );		

  00360	ff b5 a8 fe ff
	ff		 push	 DWORD PTR _rkLoader$GSCopy$[ebp]
  00366	8d 85 50 fe ff
	ff		 lea	 eax, DWORD PTR _kAttribute$505271[ebp]
  0036c	50		 push	 eax
  0036d	8d 85 ac fe ff
	ff		 lea	 eax, DWORD PTR _szBuf$[ebp]
  00373	50		 push	 eax
  00374	e8 00 00 00 00	 call	 ?LoadAttackAttribute@@YAXPBDAAUAttackAttribute@@AAVioINILoader@@@Z ; LoadAttackAttribute
  00379	83 c4 18	 add	 esp, 24			; 00000018H

; 66   : 		m_ExtraDashAttackList.push_back( kAttribute );

  0037c	8d 85 50 fe ff
	ff		 lea	 eax, DWORD PTR _kAttribute$505271[ebp]
  00382	50		 push	 eax
  00383	8d 8e 40 02 00
	00		 lea	 ecx, DWORD PTR [esi+576]
  00389	e8 00 00 00 00	 call	 ?push_back@?$vector@UAttackAttribute@@V?$allocator@UAttackAttribute@@@std@@@std@@QAEXABUAttackAttribute@@@Z ; std::vector<AttackAttribute,std::allocator<AttackAttribute> >::push_back

; 67   : 
; 68   : 		// Ani
; 69   : 		if( !pOwnerItem )

  0038e	39 5d 0c	 cmp	 DWORD PTR _pOwnerItem$[ebp], ebx
  00391	75 1c		 jne	 SHORT $LN109@LoadProper

; 70   : 		{
; 71   : 			PrepareLoadingAnimation( kAttribute.m_AttackAnimation );

  00393	8d 85 50 fe ff
	ff		 lea	 eax, DWORD PTR _kAttribute$505271[ebp]
  00399	50		 push	 eax
  0039a	8b ce		 mov	 ecx, esi
  0039c	e8 00 00 00 00	 call	 ?PrepareLoadingAnimation@ioFormalAttackGrp@@QAEXABVioHashString@@@Z ; ioFormalAttackGrp::PrepareLoadingAnimation

; 72   : 			PrepareLoadingAnimation( kAttribute.m_AttackEndAnimation );

  003a1	8d 85 64 fe ff
	ff		 lea	 eax, DWORD PTR _kAttribute$505271[ebp+20]
  003a7	50		 push	 eax
  003a8	8b ce		 mov	 ecx, esi
  003aa	e8 00 00 00 00	 call	 ?PrepareLoadingAnimation@ioFormalAttackGrp@@QAEXABVioHashString@@@Z ; ioFormalAttackGrp::PrepareLoadingAnimation
$LN109@LoadProper:

; 73   : 		}
; 74   : 	}

  003af	83 4d fc ff	 or	 DWORD PTR __$EHRec$[ebp+8], -1
  003b3	8d 8d 50 fe ff
	ff		 lea	 ecx, DWORD PTR _kAttribute$505271[ebp]
  003b9	e8 00 00 00 00	 call	 ??1AttackAttribute@@QAE@XZ
  003be	8b 85 a4 fe ff
	ff		 mov	 eax, DWORD PTR tv9369[ebp]
  003c4	89 85 a4 fe ff
	ff		 mov	 DWORD PTR _i$[ebp], eax
  003ca	3b 85 a0 fe ff
	ff		 cmp	 eax, DWORD PTR _iMaxAttackCnt$[ebp]
  003d0	0f 8c 04 ff ff
	ff		 jl	 $LL211@LoadProper
$LN209@LoadProper:

; 75   : 
; 76   : 	// extraotherdash attack
; 77   : 	iMaxAttackCnt = rkLoader.LoadInt_e( "extra_other_dash_max_cnt", 1 );

  003d6	6a 06		 push	 6
  003d8	c7 45 d0 88 94
	9f 98		 mov	 DWORD PTR __k$516214[ebp], -1734372216 ; 989f9488H
  003df	c7 45 d4 8c b3
	84 9e		 mov	 DWORD PTR __k$516214[ebp+4], -1635470452 ; 9e84b38cH
  003e6	c7 45 d8 85 89
	99 b5		 mov	 DWORD PTR __k$516214[ebp+8], -1248228987 ; b5998985H
  003ed	c7 45 dc 89 8d
	98 82		 mov	 DWORD PTR __k$516214[ebp+12], -2103931511 ; 82988d89H
  003f4	c7 45 e0 b2 81
	8a 92		 mov	 DWORD PTR __k$516214[ebp+16], -1836416590 ; 928a81b2H
  003fb	c7 45 e4 b2 8f
	85 9e		 mov	 DWORD PTR __k$516214[ebp+20], -1635414094 ; 9e858fb2H
  00402	8d 45 d0	 lea	 eax, DWORD PTR __k$516214[ebp]
  00405	88 5d e8	 mov	 BYTE PTR __k$516214[ebp+24], bl
  00408	59		 pop	 ecx
$LL901@LoadProper:
  00409	81 30 ed ec eb
	ea		 xor	 DWORD PTR [eax], -353637139 ; eaebecedH
  0040f	83 c0 04	 add	 eax, 4
  00412	49		 dec	 ecx
  00413	75 f4		 jne	 SHORT $LL901@LoadProper
  00415	8b 8d a8 fe ff
	ff		 mov	 ecx, DWORD PTR _rkLoader$GSCopy$[ebp]
  0041b	6a 01		 push	 1
  0041d	8d 45 d0	 lea	 eax, DWORD PTR __k$516214[ebp]
  00420	50		 push	 eax
  00421	ff 15 00 00 00
	00		 call	 DWORD PTR __imp_?LoadInt@ioINILoader@@QAEHPBDH@Z

; 78   : 
; 79   : 	m_ExtraOtherDashAttackList.clear();

  00427	8b 8e 50 02 00
	00		 mov	 ecx, DWORD PTR [esi+592]
  0042d	89 85 a0 fe ff
	ff		 mov	 DWORD PTR _iMaxAttackCnt$[ebp], eax
  00433	8b 86 54 02 00
	00		 mov	 eax, DWORD PTR [esi+596]
  00439	50		 push	 eax
  0043a	51		 push	 ecx
  0043b	8d 85 a4 fe ff
	ff		 lea	 eax, DWORD PTR $T516337[ebp]
  00441	50		 push	 eax
  00442	8d 8e 50 02 00
	00		 lea	 ecx, DWORD PTR [esi+592]
  00448	e8 00 00 00 00	 call	 ?erase@?$vector@UAttackAttribute@@V?$allocator@UAttackAttribute@@@std@@@std@@QAE?AV?$_Vector_iterator@V?$_Vector_val@UAttackAttribute@@V?$allocator@UAttackAttribute@@@std@@@std@@@2@V?$_Vector_const_iterator@V?$_Vector_val@UAttackAttribute@@V?$allocator@UAttackAttribute@@@std@@@std@@@2@0@Z ; std::vector<AttackAttribute,std::allocator<AttackAttribute> >::erase

; 80   : 	for( i=0; i < iMaxAttackCnt; i++ )

  0044d	89 9d a4 fe ff
	ff		 mov	 DWORD PTR _i$[ebp], ebx
  00453	39 9d a0 fe ff
	ff		 cmp	 DWORD PTR _iMaxAttackCnt$[ebp], ebx
  00459	0f 8e ed 00 00
	00		 jle	 $LN106@LoadProper
$LL108@LoadProper:

; 81   : 	{
; 82   : 		AttackAttribute kAttribute;

  0045f	8d 8d 50 fe ff
	ff		 lea	 ecx, DWORD PTR _kAttribute$505433[ebp]
  00465	e8 00 00 00 00	 call	 ??0AttackAttribute@@QAE@XZ ; AttackAttribute::AttackAttribute
  0046a	6a 06		 push	 6
  0046c	c7 45 fc 02 00
	00 00		 mov	 DWORD PTR __$EHRec$[ebp+8], 2

; 83   : 
; 84   : 		wsprintf_e( szBuf, "extra_other_dash_attack%d", i+1 );

  00473	c7 45 b0 88 94
	9f 98		 mov	 DWORD PTR ___encStr$505437[ebp], -1734372216 ; 989f9488H
  0047a	c7 45 b4 8c b3
	84 9e		 mov	 DWORD PTR ___encStr$505437[ebp+4], -1635470452 ; 9e84b38cH
  00481	c7 45 b8 85 89
	99 b5		 mov	 DWORD PTR ___encStr$505437[ebp+8], -1248228987 ; b5998985H
  00488	c7 45 bc 89 8d
	98 82		 mov	 DWORD PTR ___encStr$505437[ebp+12], -2103931511 ; 82988d89H
  0048f	c7 45 c0 b2 8d
	9f 9e		 mov	 DWORD PTR ___encStr$505437[ebp+16], -1633710670 ; 9e9f8db2H
  00496	c7 45 c4 8c 8f
	80 cf		 mov	 DWORD PTR ___encStr$505437[ebp+20], -813658228 ; cf808f8cH
  0049d	8d 45 b0	 lea	 eax, DWORD PTR ___encStr$505437[ebp]
  004a0	66 c7 45 c8 89
	00		 mov	 WORD PTR ___encStr$505437[ebp+24], 137 ; 00000089H
  004a6	59		 pop	 ecx
$LL927@LoadProper:
  004a7	81 30 ed ec eb
	ea		 xor	 DWORD PTR [eax], -353637139 ; eaebecedH
  004ad	83 c0 04	 add	 eax, 4
  004b0	49		 dec	 ecx
  004b1	75 f4		 jne	 SHORT $LL927@LoadProper
  004b3	8b 85 a4 fe ff
	ff		 mov	 eax, DWORD PTR _i$[ebp]
  004b9	80 75 c8 ed	 xor	 BYTE PTR ___encStr$505437[ebp+24], -19 ; ffffffedH
  004bd	40		 inc	 eax
  004be	50		 push	 eax
  004bf	89 85 a4 fe ff
	ff		 mov	 DWORD PTR tv9369[ebp], eax
  004c5	8d 45 b0	 lea	 eax, DWORD PTR ___encStr$505437[ebp]
  004c8	50		 push	 eax
  004c9	8d 85 ac fe ff
	ff		 lea	 eax, DWORD PTR _szBuf$[ebp]
  004cf	50		 push	 eax
  004d0	ff 15 00 00 00
	00		 call	 DWORD PTR __imp__wsprintfA

; 85   : 		LoadAttackAttribute( szBuf, kAttribute, rkLoader );		

  004d6	ff b5 a8 fe ff
	ff		 push	 DWORD PTR _rkLoader$GSCopy$[ebp]
  004dc	8d 85 50 fe ff
	ff		 lea	 eax, DWORD PTR _kAttribute$505433[ebp]
  004e2	50		 push	 eax
  004e3	8d 85 ac fe ff
	ff		 lea	 eax, DWORD PTR _szBuf$[ebp]
  004e9	50		 push	 eax
  004ea	e8 00 00 00 00	 call	 ?LoadAttackAttribute@@YAXPBDAAUAttackAttribute@@AAVioINILoader@@@Z ; LoadAttackAttribute
  004ef	83 c4 18	 add	 esp, 24			; 00000018H

; 86   : 		m_ExtraOtherDashAttackList.push_back( kAttribute );

  004f2	8d 85 50 fe ff
	ff		 lea	 eax, DWORD PTR _kAttribute$505433[ebp]
  004f8	50		 push	 eax
  004f9	8d 8e 50 02 00
	00		 lea	 ecx, DWORD PTR [esi+592]
  004ff	e8 00 00 00 00	 call	 ?push_back@?$vector@UAttackAttribute@@V?$allocator@UAttackAttribute@@@std@@@std@@QAEXABUAttackAttribute@@@Z ; std::vector<AttackAttribute,std::allocator<AttackAttribute> >::push_back

; 87   : 
; 88   : 		// Ani
; 89   : 		if( !pOwnerItem )

  00504	39 5d 0c	 cmp	 DWORD PTR _pOwnerItem$[ebp], ebx
  00507	75 1c		 jne	 SHORT $LN6@LoadProper

; 90   : 		{
; 91   : 			PrepareLoadingAnimation( kAttribute.m_AttackAnimation );

  00509	8d 85 50 fe ff
	ff		 lea	 eax, DWORD PTR _kAttribute$505433[ebp]
  0050f	50		 push	 eax
  00510	8b ce		 mov	 ecx, esi
  00512	e8 00 00 00 00	 call	 ?PrepareLoadingAnimation@ioFormalAttackGrp@@QAEXABVioHashString@@@Z ; ioFormalAttackGrp::PrepareLoadingAnimation

; 92   : 			PrepareLoadingAnimation( kAttribute.m_AttackEndAnimation );

  00517	8d 85 64 fe ff
	ff		 lea	 eax, DWORD PTR _kAttribute$505433[ebp+20]
  0051d	50		 push	 eax
  0051e	8b ce		 mov	 ecx, esi
  00520	e8 00 00 00 00	 call	 ?PrepareLoadingAnimation@ioFormalAttackGrp@@QAEXABVioHashString@@@Z ; ioFormalAttackGrp::PrepareLoadingAnimation
$LN6@LoadProper:

; 93   : 		}
; 94   : 	}

  00525	83 4d fc ff	 or	 DWORD PTR __$EHRec$[ebp+8], -1
  00529	8d 8d 50 fe ff
	ff		 lea	 ecx, DWORD PTR _kAttribute$505433[ebp]
  0052f	e8 00 00 00 00	 call	 ??1AttackAttribute@@QAE@XZ
  00534	8b 85 a4 fe ff
	ff		 mov	 eax, DWORD PTR tv9369[ebp]
  0053a	89 85 a4 fe ff
	ff		 mov	 DWORD PTR _i$[ebp], eax
  00540	3b 85 a0 fe ff
	ff		 cmp	 eax, DWORD PTR _iMaxAttackCnt$[ebp]
  00546	0f 8c 13 ff ff
	ff		 jl	 $LL108@LoadProper
$LN106@LoadProper:

; 95   : 
; 96   : 	// Jump Attack & Extend Jump Attack
; 97   : 	m_JumpAttack.Init();

  0054c	8d be b0 00 00
	00		 lea	 edi, DWORD PTR [esi+176]
  00552	8b cf		 mov	 ecx, edi
  00554	e8 00 00 00 00	 call	 ?Init@AttackAttribute@@QAEXXZ ; AttackAttribute::Init
  00559	6a 02		 push	 2

; 98   : 	LoadAttackAttribute_e( "jump_attack", m_JumpAttack, rkLoader );

  0055b	c7 45 dc 87 99
	86 9a		 mov	 DWORD PTR _szEncAttack$516396[ebp], -1702454905 ; 9a869987H
  00562	c7 45 e0 b2 8d
	9f 9e		 mov	 DWORD PTR _szEncAttack$516396[ebp+4], -1633710670 ; 9e9f8db2H
  00569	8d 45 dc	 lea	 eax, DWORD PTR _szEncAttack$516396[ebp]
  0056c	c7 45 e4 8c 8f
	80 00		 mov	 DWORD PTR _szEncAttack$516396[ebp+8], 8425356 ; 00808f8cH
  00573	59		 pop	 ecx
$LL1033@LoadProper:
  00574	81 30 ed ec eb
	ea		 xor	 DWORD PTR [eax], -353637139 ; eaebecedH
  0057a	83 c0 04	 add	 eax, 4
  0057d	49		 dec	 ecx
  0057e	75 f4		 jne	 SHORT $LL1033@LoadProper
  00580	6a 08		 push	 8
  00582	58		 pop	 eax
$LL1030@LoadProper:
  00583	8b c8		 mov	 ecx, eax
  00585	81 e1 03 00 00
	80		 and	 ecx, -2147483645	; 80000003H
  0058b	79 05		 jns	 SHORT $LN1525@LoadProper
  0058d	49		 dec	 ecx
  0058e	83 c9 fc	 or	 ecx, -4			; fffffffcH
  00591	41		 inc	 ecx
$LN1525@LoadProper:
  00592	b2 ed		 mov	 dl, -19			; ffffffedH
  00594	2a d1		 sub	 dl, cl
  00596	30 54 05 dc	 xor	 BYTE PTR _szEncAttack$516396[ebp+eax], dl
  0059a	40		 inc	 eax
  0059b	83 f8 0b	 cmp	 eax, 11			; 0000000bH
  0059e	7c e3		 jl	 SHORT $LL1030@LoadProper
  005a0	ff b5 a8 fe ff
	ff		 push	 DWORD PTR _rkLoader$GSCopy$[ebp]
  005a6	8d 45 dc	 lea	 eax, DWORD PTR _szEncAttack$516396[ebp]
  005a9	57		 push	 edi
  005aa	50		 push	 eax
  005ab	e8 00 00 00 00	 call	 ?LoadAttackAttribute@@YAXPBDAAUAttackAttribute@@AAVioINILoader@@@Z ; LoadAttackAttribute
  005b0	83 c4 0c	 add	 esp, 12			; 0000000cH

; 99   : 	if( !pOwnerItem )

  005b3	39 5d 0c	 cmp	 DWORD PTR _pOwnerItem$[ebp], ebx
  005b6	75 16		 jne	 SHORT $LN5@LoadProper

; 100  : 	{
; 101  : 		PrepareLoadingAnimation( m_JumpAttack.m_AttackAnimation );

  005b8	57		 push	 edi
  005b9	8b ce		 mov	 ecx, esi
  005bb	e8 00 00 00 00	 call	 ?PrepareLoadingAnimation@ioFormalAttackGrp@@QAEXABVioHashString@@@Z ; ioFormalAttackGrp::PrepareLoadingAnimation

; 102  : 		PrepareLoadingAnimation( m_JumpAttack.m_AttackEndAnimation );

  005c0	8d 86 c4 00 00
	00		 lea	 eax, DWORD PTR [esi+196]
  005c6	50		 push	 eax
  005c7	8b ce		 mov	 ecx, esi
  005c9	e8 00 00 00 00	 call	 ?PrepareLoadingAnimation@ioFormalAttackGrp@@QAEXABVioHashString@@@Z ; ioFormalAttackGrp::PrepareLoadingAnimation
$LN5@LoadProper:

; 103  : 	}
; 104  : 
; 105  : 	m_ExtendJumpAttack.Init();

  005ce	8d be 00 01 00
	00		 lea	 edi, DWORD PTR [esi+256]
  005d4	8b cf		 mov	 ecx, edi
  005d6	e8 00 00 00 00	 call	 ?Init@AttackAttribute@@QAEXXZ ; AttackAttribute::Init
  005db	6a 04		 push	 4

; 106  : 	LoadAttackAttribute_e( "extend_jump_attack", m_ExtendJumpAttack, rkLoader );

  005dd	c7 45 d4 88 94
	9f 8f		 mov	 DWORD PTR _szEncAttack$516508[ebp], -1885367160 ; 8f9f9488H
  005e4	c7 45 d8 83 88
	b4 80		 mov	 DWORD PTR _szEncAttack$516508[ebp+4], -2135652221 ; 80b48883H
  005eb	c7 45 dc 98 81
	9b b5		 mov	 DWORD PTR _szEncAttack$516508[ebp+8], -1248099944 ; b59b8198H
  005f2	c7 45 e0 8c 98
	9f 8b		 mov	 DWORD PTR _szEncAttack$516508[ebp+12], -1952474996 ; 8b9f988cH
  005f9	66 c7 45 e4 8e
	87		 mov	 WORD PTR _szEncAttack$516508[ebp+16], 34702 ; 0000878eH
  005ff	8d 45 d4	 lea	 eax, DWORD PTR _szEncAttack$516508[ebp]
  00602	88 5d e6	 mov	 BYTE PTR _szEncAttack$516508[ebp+18], bl
  00605	59		 pop	 ecx
$LL1139@LoadProper:
  00606	81 30 ed ec eb
	ea		 xor	 DWORD PTR [eax], -353637139 ; eaebecedH
  0060c	83 c0 04	 add	 eax, 4
  0060f	49		 dec	 ecx
  00610	75 f4		 jne	 SHORT $LL1139@LoadProper
  00612	6a 10		 push	 16			; 00000010H
  00614	58		 pop	 eax
$LL1136@LoadProper:
  00615	8b c8		 mov	 ecx, eax
  00617	81 e1 03 00 00
	80		 and	 ecx, -2147483645	; 80000003H
  0061d	79 05		 jns	 SHORT $LN1526@LoadProper
  0061f	49		 dec	 ecx
  00620	83 c9 fc	 or	 ecx, -4			; fffffffcH
  00623	41		 inc	 ecx
$LN1526@LoadProper:
  00624	b2 ed		 mov	 dl, -19			; ffffffedH
  00626	2a d1		 sub	 dl, cl
  00628	30 54 05 d4	 xor	 BYTE PTR _szEncAttack$516508[ebp+eax], dl
  0062c	40		 inc	 eax
  0062d	83 f8 12	 cmp	 eax, 18			; 00000012H
  00630	7c e3		 jl	 SHORT $LL1136@LoadProper
  00632	ff b5 a8 fe ff
	ff		 push	 DWORD PTR _rkLoader$GSCopy$[ebp]
  00638	8d 45 d4	 lea	 eax, DWORD PTR _szEncAttack$516508[ebp]
  0063b	57		 push	 edi
  0063c	50		 push	 eax
  0063d	e8 00 00 00 00	 call	 ?LoadAttackAttribute@@YAXPBDAAUAttackAttribute@@AAVioINILoader@@@Z ; LoadAttackAttribute
  00642	83 c4 0c	 add	 esp, 12			; 0000000cH

; 107  : 	if( !pOwnerItem )

  00645	39 5d 0c	 cmp	 DWORD PTR _pOwnerItem$[ebp], ebx
  00648	75 16		 jne	 SHORT $LN4@LoadProper

; 108  : 	{
; 109  : 		PrepareLoadingAnimation( m_ExtendJumpAttack.m_AttackAnimation );

  0064a	57		 push	 edi
  0064b	8b ce		 mov	 ecx, esi
  0064d	e8 00 00 00 00	 call	 ?PrepareLoadingAnimation@ioFormalAttackGrp@@QAEXABVioHashString@@@Z ; ioFormalAttackGrp::PrepareLoadingAnimation

; 110  : 		PrepareLoadingAnimation( m_ExtendJumpAttack.m_AttackEndAnimation );

  00652	8d 86 14 01 00
	00		 lea	 eax, DWORD PTR [esi+276]
  00658	50		 push	 eax
  00659	8b ce		 mov	 ecx, esi
  0065b	e8 00 00 00 00	 call	 ?PrepareLoadingAnimation@ioFormalAttackGrp@@QAEXABVioHashString@@@Z ; ioFormalAttackGrp::PrepareLoadingAnimation
$LN4@LoadProper:

; 111  : 	}
; 112  : 
; 113  : 	m_LandJumpAttack.Init();

  00660	8d be 50 01 00
	00		 lea	 edi, DWORD PTR [esi+336]
  00666	8b cf		 mov	 ecx, edi
  00668	e8 00 00 00 00	 call	 ?Init@AttackAttribute@@QAEXXZ ; AttackAttribute::Init
  0066d	6a 04		 push	 4

; 114  : 	LoadAttackAttribute_e( "land_jump_attack", m_LandJumpAttack, rkLoader );

  0066f	c7 45 d8 81 8d
	85 8e		 mov	 DWORD PTR _szEncAttack$516633[ebp], -1903850111 ; 8e858d81H
  00676	c7 45 dc b2 86
	9e 87		 mov	 DWORD PTR _szEncAttack$516633[ebp+4], -2019653966 ; 879e86b2H
  0067d	c7 45 e0 9d b3
	8a 9e		 mov	 DWORD PTR _szEncAttack$516633[ebp+8], -1635077219 ; 9e8ab39dH
  00684	c7 45 e4 99 8d
	88 81		 mov	 DWORD PTR _szEncAttack$516633[ebp+12], -2121757287 ; 81888d99H
  0068b	8d 45 d8	 lea	 eax, DWORD PTR _szEncAttack$516633[ebp]
  0068e	88 5d e8	 mov	 BYTE PTR _szEncAttack$516633[ebp+16], bl
  00691	59		 pop	 ecx
$LL1245@LoadProper:
  00692	81 30 ed ec eb
	ea		 xor	 DWORD PTR [eax], -353637139 ; eaebecedH
  00698	83 c0 04	 add	 eax, 4
  0069b	49		 dec	 ecx
  0069c	75 f4		 jne	 SHORT $LL1245@LoadProper
  0069e	ff b5 a8 fe ff
	ff		 push	 DWORD PTR _rkLoader$GSCopy$[ebp]
  006a4	8d 45 d8	 lea	 eax, DWORD PTR _szEncAttack$516633[ebp]
  006a7	57		 push	 edi
  006a8	50		 push	 eax
  006a9	e8 00 00 00 00	 call	 ?LoadAttackAttribute@@YAXPBDAAUAttackAttribute@@AAVioINILoader@@@Z ; LoadAttackAttribute
  006ae	83 c4 0c	 add	 esp, 12			; 0000000cH

; 115  : 	if( !pOwnerItem )

  006b1	39 5d 0c	 cmp	 DWORD PTR _pOwnerItem$[ebp], ebx
  006b4	75 16		 jne	 SHORT $LN3@LoadProper

; 116  : 	{
; 117  : 		PrepareLoadingAnimation( m_LandJumpAttack.m_AttackAnimation );

  006b6	57		 push	 edi
  006b7	8b ce		 mov	 ecx, esi
  006b9	e8 00 00 00 00	 call	 ?PrepareLoadingAnimation@ioFormalAttackGrp@@QAEXABVioHashString@@@Z ; ioFormalAttackGrp::PrepareLoadingAnimation

; 118  : 		PrepareLoadingAnimation( m_LandJumpAttack.m_AttackEndAnimation );

  006be	8d 86 64 01 00
	00		 lea	 eax, DWORD PTR [esi+356]
  006c4	50		 push	 eax
  006c5	8b ce		 mov	 ecx, esi
  006c7	e8 00 00 00 00	 call	 ?PrepareLoadingAnimation@ioFormalAttackGrp@@QAEXABVioHashString@@@Z ; ioFormalAttackGrp::PrepareLoadingAnimation
$LN3@LoadProper:

; 119  : 	}
; 120  : 
; 121  : 	m_ExtendLandJumpAttack.Init();

  006cc	8d be a0 01 00
	00		 lea	 edi, DWORD PTR [esi+416]
  006d2	8b cf		 mov	 ecx, edi
  006d4	e8 00 00 00 00	 call	 ?Init@AttackAttribute@@QAEXXZ ; AttackAttribute::Init
  006d9	6a 05		 push	 5

; 122  : 	LoadAttackAttribute_e( "extend_land_jump_attack", m_ExtendLandJumpAttack, rkLoader );

  006db	c7 45 d0 88 94
	9f 8f		 mov	 DWORD PTR _szEncAttack$516758[ebp], -1885367160 ; 8f9f9488H
  006e2	c7 45 d4 83 88
	b4 86		 mov	 DWORD PTR _szEncAttack$516758[ebp+4], -2034988925 ; 86b48883H
  006e9	c7 45 d8 8c 82
	8f b5		 mov	 DWORD PTR _szEncAttack$516758[ebp+8], -1248886132 ; b58f828cH
  006f0	c7 45 dc 87 99
	86 9a		 mov	 DWORD PTR _szEncAttack$516758[ebp+12], -1702454905 ; 9a869987H
  006f7	c7 45 e0 b2 8d
	9f 9e		 mov	 DWORD PTR _szEncAttack$516758[ebp+16], -1633710670 ; 9e9f8db2H
  006fe	8d 45 d0	 lea	 eax, DWORD PTR _szEncAttack$516758[ebp]
  00701	c7 45 e4 8c 8f
	80 00		 mov	 DWORD PTR _szEncAttack$516758[ebp+20], 8425356 ; 00808f8cH
  00708	59		 pop	 ecx
$LL1351@LoadProper:
  00709	81 30 ed ec eb
	ea		 xor	 DWORD PTR [eax], -353637139 ; eaebecedH
  0070f	83 c0 04	 add	 eax, 4
  00712	49		 dec	 ecx
  00713	75 f4		 jne	 SHORT $LL1351@LoadProper
  00715	6a 14		 push	 20			; 00000014H
  00717	58		 pop	 eax
$LL1348@LoadProper:
  00718	8b c8		 mov	 ecx, eax
  0071a	81 e1 03 00 00
	80		 and	 ecx, -2147483645	; 80000003H
  00720	79 05		 jns	 SHORT $LN1527@LoadProper
  00722	49		 dec	 ecx
  00723	83 c9 fc	 or	 ecx, -4			; fffffffcH
  00726	41		 inc	 ecx
$LN1527@LoadProper:
  00727	b2 ed		 mov	 dl, -19			; ffffffedH
  00729	2a d1		 sub	 dl, cl
  0072b	30 54 05 d0	 xor	 BYTE PTR _szEncAttack$516758[ebp+eax], dl
  0072f	40		 inc	 eax
  00730	83 f8 17	 cmp	 eax, 23			; 00000017H
  00733	7c e3		 jl	 SHORT $LL1348@LoadProper
  00735	ff b5 a8 fe ff
	ff		 push	 DWORD PTR _rkLoader$GSCopy$[ebp]
  0073b	8d 45 d0	 lea	 eax, DWORD PTR _szEncAttack$516758[ebp]
  0073e	57		 push	 edi
  0073f	50		 push	 eax
  00740	e8 00 00 00 00	 call	 ?LoadAttackAttribute@@YAXPBDAAUAttackAttribute@@AAVioINILoader@@@Z ; LoadAttackAttribute
  00745	83 c4 0c	 add	 esp, 12			; 0000000cH

; 123  : 	if( !pOwnerItem )

  00748	39 5d 0c	 cmp	 DWORD PTR _pOwnerItem$[ebp], ebx
  0074b	75 16		 jne	 SHORT $LN2@LoadProper

; 124  : 	{
; 125  : 		PrepareLoadingAnimation( m_ExtendLandJumpAttack.m_AttackAnimation );

  0074d	57		 push	 edi
  0074e	8b ce		 mov	 ecx, esi
  00750	e8 00 00 00 00	 call	 ?PrepareLoadingAnimation@ioFormalAttackGrp@@QAEXABVioHashString@@@Z ; ioFormalAttackGrp::PrepareLoadingAnimation

; 126  : 		PrepareLoadingAnimation( m_ExtendLandJumpAttack.m_AttackEndAnimation );

  00755	8d 86 b4 01 00
	00		 lea	 eax, DWORD PTR [esi+436]
  0075b	50		 push	 eax
  0075c	8b ce		 mov	 ecx, esi
  0075e	e8 00 00 00 00	 call	 ?PrepareLoadingAnimation@ioFormalAttackGrp@@QAEXABVioHashString@@@Z ; ioFormalAttackGrp::PrepareLoadingAnimation
$LN2@LoadProper:

; 127  : 	}
; 128  : 
; 129  : 	m_HighJumpAttack.Init();

  00763	8d be f0 01 00
	00		 lea	 edi, DWORD PTR [esi+496]
  00769	8b cf		 mov	 ecx, edi
  0076b	e8 00 00 00 00	 call	 ?Init@AttackAttribute@@QAEXXZ ; AttackAttribute::Init
  00770	6a 04		 push	 4

; 130  : 	LoadAttackAttribute_e( "high_jump_attack", m_HighJumpAttack, rkLoader );

  00772	c7 45 b8 85 85
	8c 82		 mov	 DWORD PTR _szEncAttack$516883[ebp], -2104719995 ; 828c8585H
  00779	c7 45 bc b2 86
	9e 87		 mov	 DWORD PTR _szEncAttack$516883[ebp+4], -2019653966 ; 879e86b2H
  00780	c7 45 c0 9d b3
	8a 9e		 mov	 DWORD PTR _szEncAttack$516883[ebp+8], -1635077219 ; 9e8ab39dH
  00787	c7 45 c4 99 8d
	88 81		 mov	 DWORD PTR _szEncAttack$516883[ebp+12], -2121757287 ; 81888d99H
  0078e	8d 45 b8	 lea	 eax, DWORD PTR _szEncAttack$516883[ebp]
  00791	88 5d c8	 mov	 BYTE PTR _szEncAttack$516883[ebp+16], bl
  00794	59		 pop	 ecx
$LL1457@LoadProper:
  00795	81 30 ed ec eb
	ea		 xor	 DWORD PTR [eax], -353637139 ; eaebecedH
  0079b	83 c0 04	 add	 eax, 4
  0079e	49		 dec	 ecx
  0079f	75 f4		 jne	 SHORT $LL1457@LoadProper
  007a1	ff b5 a8 fe ff
	ff		 push	 DWORD PTR _rkLoader$GSCopy$[ebp]
  007a7	8d 45 b8	 lea	 eax, DWORD PTR _szEncAttack$516883[ebp]
  007aa	57		 push	 edi
  007ab	50		 push	 eax
  007ac	e8 00 00 00 00	 call	 ?LoadAttackAttribute@@YAXPBDAAUAttackAttribute@@AAVioINILoader@@@Z ; LoadAttackAttribute
  007b1	83 c4 0c	 add	 esp, 12			; 0000000cH

; 131  : 	if( !pOwnerItem )

  007b4	39 5d 0c	 cmp	 DWORD PTR _pOwnerItem$[ebp], ebx
  007b7	75 16		 jne	 SHORT $LN1@LoadProper

; 132  : 	{
; 133  : 		PrepareLoadingAnimation( m_HighJumpAttack.m_AttackAnimation );

  007b9	57		 push	 edi
  007ba	8b ce		 mov	 ecx, esi
  007bc	e8 00 00 00 00	 call	 ?PrepareLoadingAnimation@ioFormalAttackGrp@@QAEXABVioHashString@@@Z ; ioFormalAttackGrp::PrepareLoadingAnimation

; 134  : 		PrepareLoadingAnimation( m_HighJumpAttack.m_AttackEndAnimation );

  007c1	8d 86 04 02 00
	00		 lea	 eax, DWORD PTR [esi+516]
  007c7	50		 push	 eax
  007c8	8b ce		 mov	 ecx, esi
  007ca	e8 00 00 00 00	 call	 ?PrepareLoadingAnimation@ioFormalAttackGrp@@QAEXABVioHashString@@@Z ; ioFormalAttackGrp::PrepareLoadingAnimation
$LN1@LoadProper:

; 135  : 	}
; 136  : }

  007cf	e8 00 00 00 00	 call	 __EH_epilog3_GS
  007d4	c2 08 00	 ret	 8
_TEXT	ENDS
;	COMDAT text$x
text$x	SEGMENT
__unwindfunclet$?LoadProperty@ioFormalAttackGrp@@QAEXAAVioINILoader@@PAVioItem@@@Z$0:
  00000	8d 8d 50 fe ff
	ff		 lea	 ecx, DWORD PTR _kAttribute$505091[ebp]
  00006	e9 00 00 00 00	 jmp	 ??1AttackAttribute@@QAE@XZ
__unwindfunclet$?LoadProperty@ioFormalAttackGrp@@QAEXAAVioINILoader@@PAVioItem@@@Z$1:
  0000b	8d 8d 50 fe ff
	ff		 lea	 ecx, DWORD PTR _kAttribute$505271[ebp]
  00011	e9 00 00 00 00	 jmp	 ??1AttackAttribute@@QAE@XZ
__unwindfunclet$?LoadProperty@ioFormalAttackGrp@@QAEXAAVioINILoader@@PAVioItem@@@Z$2:
  00016	8d 8d 50 fe ff
	ff		 lea	 ecx, DWORD PTR _kAttribute$505433[ebp]
  0001c	e9 00 00 00 00	 jmp	 ??1AttackAttribute@@QAE@XZ
__ehhandler$?LoadProperty@ioFormalAttackGrp@@QAEXAAVioINILoader@@PAVioItem@@@Z:
  00021	8b 54 24 08	 mov	 edx, DWORD PTR [esp+8]
  00025	8d 42 0c	 lea	 eax, DWORD PTR [edx+12]
  00028	8b 8a 4c fe ff
	ff		 mov	 ecx, DWORD PTR [edx-436]
  0002e	33 c8		 xor	 ecx, eax
  00030	e8 00 00 00 00	 call	 @__security_check_cookie@4
  00035	8b 4a fc	 mov	 ecx, DWORD PTR [edx-4]
  00038	33 c8		 xor	 ecx, eax
  0003a	e8 00 00 00 00	 call	 @__security_check_cookie@4
  0003f	b8 00 00 00 00	 mov	 eax, OFFSET __ehfuncinfo$?LoadProperty@ioFormalAttackGrp@@QAEXAAVioINILoader@@PAVioItem@@@Z
  00044	e9 00 00 00 00	 jmp	 ___CxxFrameHandler3
text$x	ENDS
?LoadProperty@ioFormalAttackGrp@@QAEXAAVioINILoader@@PAVioItem@@@Z ENDP ; ioFormalAttackGrp::LoadProperty
PUBLIC	_rkLoader$GSCopy$
PUBLIC	?LoadProperty_Extend@ioFormalAttackGrp@@QAEXAAVioINILoader@@PAVioItem@@H@Z ; ioFormalAttackGrp::LoadProperty_Extend
;	COMDAT xdata$x
; File d:\lost saga for developer\youtube\tutorial\source\src\lsclient\stringprotect.h
xdata$x	SEGMENT
__unwindtable$?LoadProperty_Extend@ioFormalAttackGrp@@QAEXAAVioINILoader@@PAVioItem@@H@Z DD 0ffffffffH
	DD	FLAT:__unwindfunclet$?LoadProperty_Extend@ioFormalAttackGrp@@QAEXAAVioINILoader@@PAVioItem@@H@Z$0
	DD	0ffffffffH
	DD	FLAT:__unwindfunclet$?LoadProperty_Extend@ioFormalAttackGrp@@QAEXAAVioINILoader@@PAVioItem@@H@Z$1
	DD	0ffffffffH
	DD	FLAT:__unwindfunclet$?LoadProperty_Extend@ioFormalAttackGrp@@QAEXAAVioINILoader@@PAVioItem@@H@Z$2
__ehfuncinfo$?LoadProperty_Extend@ioFormalAttackGrp@@QAEXAAVioINILoader@@PAVioItem@@H@Z DD 019930522H
	DD	03H
	DD	FLAT:__unwindtable$?LoadProperty_Extend@ioFormalAttackGrp@@QAEXAAVioINILoader@@PAVioItem@@H@Z
	DD	2 DUP(00H)
	DD	2 DUP(00H)
	DD	00H
	DD	01H
; Function compile flags: /Ogsp
; File d:\lost saga for developer\youtube\tutorial\source\src\lsclient\ioformalattackgrp.cpp
xdata$x	ENDS
;	COMDAT ?LoadProperty_Extend@ioFormalAttackGrp@@QAEXAAVioINILoader@@PAVioItem@@H@Z
_TEXT	SEGMENT
_kAttribute$506552 = -708				; size = 80
_kAttribute$506243 = -708				; size = 80
_kAttribute$505780 = -708				; size = 80
_iMaxAttackCnt$ = -628					; size = 4
_iMaxCombo$ = -628					; size = 4
_rkLoader$GSCopy$ = -624				; size = 4
tv7593 = -620						; size = 4
$T517366 = -620						; size = 4
$T517262 = -620						; size = 4
$T517156 = -620						; size = 4
_i$ = -620						; size = 4
_szBuf$ = -616						; size = 260
_szKey$ = -356						; size = 260
___encStr$506556 = -96					; size = 35
___encStr$506247 = -92					; size = 29
___encStr$507321 = -88					; size = 26
___encStr$507168 = -56					; size = 33
___encStr$506400 = -56					; size = 34
___encStr$506862 = -52					; size = 28
___encStr$506090 = -52					; size = 28
___encStr$507015 = -48					; size = 26
___encStr$505937 = -48					; size = 24
___encStr$505784 = -48					; size = 26
___encStr$506709 = -44					; size = 21
___encStr$505626 = -44					; size = 19
__$EHRec$ = -12						; size = 12
_rkLoader$ = 8						; size = 4
_pOwnerItem$ = 12					; size = 4
_nIndex$ = 16						; size = 4
?LoadProperty_Extend@ioFormalAttackGrp@@QAEXAAVioINILoader@@PAVioItem@@H@Z PROC ; ioFormalAttackGrp::LoadProperty_Extend, COMDAT
; _this$ = ecx

; 140  : {

  00000	68 b8 02 00 00	 push	 696			; 000002b8H
  00005	b8 00 00 00 00	 mov	 eax, __ehhandler$?LoadProperty_Extend@ioFormalAttackGrp@@QAEXAAVioINILoader@@PAVioItem@@H@Z
  0000a	e8 00 00 00 00	 call	 __EH_prolog3_GS

; 141  : 	char szBuf[MAX_PATH];
; 142  : 	char szKey[MAX_PATH];
; 143  : 	wsprintf_e( szKey, "max_extend%d_combo", nIndex );

  0000f	8b 45 08	 mov	 eax, DWORD PTR _rkLoader$[ebp]
  00012	33 db		 xor	 ebx, ebx
  00014	6a 04		 push	 4
  00016	8b f1		 mov	 esi, ecx
  00018	89 85 90 fd ff
	ff		 mov	 DWORD PTR _rkLoader$GSCopy$[ebp], eax
  0001e	c7 45 d4 80 8d
	93 b5		 mov	 DWORD PTR ___encStr$505626[ebp], -1248621184 ; b5938d80H
  00025	c7 45 d8 88 94
	9f 8f		 mov	 DWORD PTR ___encStr$505626[ebp+4], -1885367160 ; 8f9f9488H
  0002c	c7 45 dc 83 88
	ce 8e		 mov	 DWORD PTR ___encStr$505626[ebp+8], -1899067261 ; 8ece8883H
  00033	c7 45 e0 b2 8f
	84 87		 mov	 DWORD PTR ___encStr$505626[ebp+12], -2021355598 ; 87848fb2H
  0003a	66 c7 45 e4 8f
	83		 mov	 WORD PTR ___encStr$505626[ebp+16], 33679 ; 0000838fH
  00040	8d 45 d4	 lea	 eax, DWORD PTR ___encStr$505626[ebp]
  00043	88 5d e6	 mov	 BYTE PTR ___encStr$505626[ebp+18], bl
  00046	59		 pop	 ecx
$LL1217@LoadProper@2:
  00047	81 30 ed ec eb
	ea		 xor	 DWORD PTR [eax], -353637139 ; eaebecedH
  0004d	83 c0 04	 add	 eax, 4
  00050	49		 dec	 ecx
  00051	75 f4		 jne	 SHORT $LL1217@LoadProper@2
  00053	6a 10		 push	 16			; 00000010H
  00055	5f		 pop	 edi
$LL1214@LoadProper@2:
  00056	8b c7		 mov	 eax, edi
  00058	25 03 00 00 80	 and	 eax, -2147483645	; 80000003H
  0005d	79 05		 jns	 SHORT $LN1417@LoadProper@2
  0005f	48		 dec	 eax
  00060	83 c8 fc	 or	 eax, -4			; fffffffcH
  00063	40		 inc	 eax
$LN1417@LoadProper@2:
  00064	b1 ed		 mov	 cl, -19			; ffffffedH
  00066	2a c8		 sub	 cl, al
  00068	30 4c 3d d4	 xor	 BYTE PTR ___encStr$505626[ebp+edi], cl
  0006c	47		 inc	 edi
  0006d	83 ff 12	 cmp	 edi, 18			; 00000012H
  00070	7c e4		 jl	 SHORT $LL1214@LoadProper@2
  00072	ff 75 10	 push	 DWORD PTR _nIndex$[ebp]
  00075	8b 3d 00 00 00
	00		 mov	 edi, DWORD PTR __imp__wsprintfA
  0007b	8d 45 d4	 lea	 eax, DWORD PTR ___encStr$505626[ebp]
  0007e	50		 push	 eax
  0007f	8d 85 9c fe ff
	ff		 lea	 eax, DWORD PTR _szKey$[ebp]
  00085	50		 push	 eax
  00086	ff d7		 call	 edi

; 144  : 
; 145  : 	int iMaxCombo = rkLoader.LoadInt( szKey, 1 );

  00088	8b 8d 90 fd ff
	ff		 mov	 ecx, DWORD PTR _rkLoader$GSCopy$[ebp]
  0008e	83 c4 0c	 add	 esp, 12			; 0000000cH
  00091	6a 01		 push	 1
  00093	8d 85 9c fe ff
	ff		 lea	 eax, DWORD PTR _szKey$[ebp]
  00099	50		 push	 eax
  0009a	ff 15 00 00 00
	00		 call	 DWORD PTR __imp_?LoadInt@ioINILoader@@QAEHPBDH@Z

; 146  : 
; 147  : 	int i = 0;
; 148  : 	m_NormalAttackList.clear();

  000a0	8b 0e		 mov	 ecx, DWORD PTR [esi]
  000a2	89 85 8c fd ff
	ff		 mov	 DWORD PTR _iMaxCombo$[ebp], eax
  000a8	8b 46 04	 mov	 eax, DWORD PTR [esi+4]
  000ab	50		 push	 eax
  000ac	51		 push	 ecx
  000ad	8d 85 94 fd ff
	ff		 lea	 eax, DWORD PTR $T517156[ebp]
  000b3	50		 push	 eax
  000b4	8b ce		 mov	 ecx, esi
  000b6	e8 00 00 00 00	 call	 ?erase@?$vector@UAttackAttribute@@V?$allocator@UAttackAttribute@@@std@@@std@@QAE?AV?$_Vector_iterator@V?$_Vector_val@UAttackAttribute@@V?$allocator@UAttackAttribute@@@std@@@std@@@2@V?$_Vector_const_iterator@V?$_Vector_val@UAttackAttribute@@V?$allocator@UAttackAttribute@@@std@@@std@@@2@0@Z ; std::vector<AttackAttribute,std::allocator<AttackAttribute> >::erase

; 149  : 	for(i = 0;i < iMaxCombo;i++)

  000bb	89 9d 94 fd ff
	ff		 mov	 DWORD PTR _i$[ebp], ebx
  000c1	39 9d 8c fd ff
	ff		 cmp	 DWORD PTR _iMaxCombo$[ebp], ebx
  000c7	0f 8e e4 00 00
	00		 jle	 $LN1105@LoadProper@2
$LL1107@LoadProper@2:

; 150  : 	{
; 151  : 		AttackAttribute kAttribute;

  000cd	8d 8d 3c fd ff
	ff		 lea	 ecx, DWORD PTR _kAttribute$505780[ebp]
  000d3	e8 00 00 00 00	 call	 ??0AttackAttribute@@QAE@XZ ; AttackAttribute::AttackAttribute
  000d8	6a 06		 push	 6
  000da	89 5d fc	 mov	 DWORD PTR __$EHRec$[ebp+8], ebx

; 152  : 
; 153  : 		wsprintf_e( szBuf, "normal_extend%d_attack0%d", nIndex, i+1 );

  000dd	c7 45 d0 83 83
	99 87		 mov	 DWORD PTR ___encStr$505784[ebp], -2019982461 ; 87998383H
  000e4	c7 45 d4 8c 80
	b4 8f		 mov	 DWORD PTR ___encStr$505784[ebp+4], -1883996020 ; 8fb4808cH
  000eb	c7 45 d8 95 98
	8e 84		 mov	 DWORD PTR ___encStr$505784[ebp+8], -2071029611 ; 848e9895H
  000f2	c7 45 dc 89 c9
	8f b5		 mov	 DWORD PTR ___encStr$505784[ebp+12], -1248867959 ; b58fc989H
  000f9	c7 45 e0 8c 98
	9f 8b		 mov	 DWORD PTR ___encStr$505784[ebp+16], -1952474996 ; 8b9f988cH
  00100	c7 45 e4 8e 87
	db cf		 mov	 DWORD PTR ___encStr$505784[ebp+20], -807696498 ; cfdb878eH
  00107	8d 45 d0	 lea	 eax, DWORD PTR ___encStr$505784[ebp]
  0010a	66 c7 45 e8 89
	00		 mov	 WORD PTR ___encStr$505784[ebp+24], 137 ; 00000089H
  00110	59		 pop	 ecx
$LL1243@LoadProper@2:
  00111	81 30 ed ec eb
	ea		 xor	 DWORD PTR [eax], -353637139 ; eaebecedH
  00117	83 c0 04	 add	 eax, 4
  0011a	49		 dec	 ecx
  0011b	75 f4		 jne	 SHORT $LL1243@LoadProper@2
  0011d	8b 85 94 fd ff
	ff		 mov	 eax, DWORD PTR _i$[ebp]
  00123	80 75 e8 ed	 xor	 BYTE PTR ___encStr$505784[ebp+24], -19 ; ffffffedH
  00127	40		 inc	 eax
  00128	50		 push	 eax
  00129	ff 75 10	 push	 DWORD PTR _nIndex$[ebp]
  0012c	89 85 94 fd ff
	ff		 mov	 DWORD PTR tv7593[ebp], eax
  00132	8d 45 d0	 lea	 eax, DWORD PTR ___encStr$505784[ebp]
  00135	50		 push	 eax
  00136	8d 85 98 fd ff
	ff		 lea	 eax, DWORD PTR _szBuf$[ebp]
  0013c	50		 push	 eax
  0013d	ff d7		 call	 edi

; 154  : 		LoadAttackAttribute( szBuf, kAttribute, rkLoader );		

  0013f	ff b5 90 fd ff
	ff		 push	 DWORD PTR _rkLoader$GSCopy$[ebp]
  00145	8d 85 3c fd ff
	ff		 lea	 eax, DWORD PTR _kAttribute$505780[ebp]
  0014b	50		 push	 eax
  0014c	8d 85 98 fd ff
	ff		 lea	 eax, DWORD PTR _szBuf$[ebp]
  00152	50		 push	 eax
  00153	e8 00 00 00 00	 call	 ?LoadAttackAttribute@@YAXPBDAAUAttackAttribute@@AAVioINILoader@@@Z ; LoadAttackAttribute
  00158	83 c4 1c	 add	 esp, 28			; 0000001cH

; 155  : 		m_NormalAttackList.push_back( kAttribute );

  0015b	8d 85 3c fd ff
	ff		 lea	 eax, DWORD PTR _kAttribute$505780[ebp]
  00161	50		 push	 eax
  00162	8b ce		 mov	 ecx, esi
  00164	e8 00 00 00 00	 call	 ?push_back@?$vector@UAttackAttribute@@V?$allocator@UAttackAttribute@@@std@@@std@@QAEXABUAttackAttribute@@@Z ; std::vector<AttackAttribute,std::allocator<AttackAttribute> >::push_back

; 156  : 		// Ani
; 157  : 		if( !pOwnerItem )

  00169	39 5d 0c	 cmp	 DWORD PTR _pOwnerItem$[ebp], ebx
  0016c	75 1c		 jne	 SHORT $LN1005@LoadProper@2

; 158  : 		{
; 159  : 			PrepareLoadingAnimation( kAttribute.m_AttackAnimation );

  0016e	8d 85 3c fd ff
	ff		 lea	 eax, DWORD PTR _kAttribute$505780[ebp]
  00174	50		 push	 eax
  00175	8b ce		 mov	 ecx, esi
  00177	e8 00 00 00 00	 call	 ?PrepareLoadingAnimation@ioFormalAttackGrp@@QAEXABVioHashString@@@Z ; ioFormalAttackGrp::PrepareLoadingAnimation

; 160  : 			PrepareLoadingAnimation( kAttribute.m_AttackEndAnimation );

  0017c	8d 85 50 fd ff
	ff		 lea	 eax, DWORD PTR _kAttribute$505780[ebp+20]
  00182	50		 push	 eax
  00183	8b ce		 mov	 ecx, esi
  00185	e8 00 00 00 00	 call	 ?PrepareLoadingAnimation@ioFormalAttackGrp@@QAEXABVioHashString@@@Z ; ioFormalAttackGrp::PrepareLoadingAnimation
$LN1005@LoadProper@2:

; 161  : 		}
; 162  : 	}

  0018a	83 4d fc ff	 or	 DWORD PTR __$EHRec$[ebp+8], -1
  0018e	8d 8d 3c fd ff
	ff		 lea	 ecx, DWORD PTR _kAttribute$505780[ebp]
  00194	e8 00 00 00 00	 call	 ??1AttackAttribute@@QAE@XZ
  00199	8b 85 94 fd ff
	ff		 mov	 eax, DWORD PTR tv7593[ebp]
  0019f	89 85 94 fd ff
	ff		 mov	 DWORD PTR _i$[ebp], eax
  001a5	3b 85 8c fd ff
	ff		 cmp	 eax, DWORD PTR _iMaxCombo$[ebp]
  001ab	0f 8c 1c ff ff
	ff		 jl	 $LL1107@LoadProper@2
$LN1105@LoadProper@2:

; 163  : 
; 164  : 	// Counter Attack
; 165  : 	m_CounterAttack.Init();

  001b1	8d 4e 10	 lea	 ecx, DWORD PTR [esi+16]
  001b4	e8 00 00 00 00	 call	 ?Init@AttackAttribute@@QAEXXZ ; AttackAttribute::Init
  001b9	6a 05		 push	 5

; 166  : 	wsprintf_e( szKey, "counter_extend%d_attack", nIndex );

  001bb	c7 45 d0 8e 83
	9e 84		 mov	 DWORD PTR ___encStr$505937[ebp], -2069986418 ; 849e838eH
  001c2	c7 45 d4 99 89
	99 b5		 mov	 DWORD PTR ___encStr$505937[ebp+4], -1248228967 ; b5998999H
  001c9	c7 45 d8 88 94
	9f 8f		 mov	 DWORD PTR ___encStr$505937[ebp+8], -1885367160 ; 8f9f9488H
  001d0	c7 45 dc 83 88
	ce 8e		 mov	 DWORD PTR ___encStr$505937[ebp+12], -1899067261 ; 8ece8883H
  001d7	c7 45 e0 b2 8d
	9f 9e		 mov	 DWORD PTR ___encStr$505937[ebp+16], -1633710670 ; 9e9f8db2H
  001de	8d 45 d0	 lea	 eax, DWORD PTR ___encStr$505937[ebp]
  001e1	c7 45 e4 8c 8f
	80 00		 mov	 DWORD PTR ___encStr$505937[ebp+20], 8425356 ; 00808f8cH
  001e8	59		 pop	 ecx
$LL1251@LoadProper@2:
  001e9	81 30 ed ec eb
	ea		 xor	 DWORD PTR [eax], -353637139 ; eaebecedH
  001ef	83 c0 04	 add	 eax, 4
  001f2	49		 dec	 ecx
  001f3	75 f4		 jne	 SHORT $LL1251@LoadProper@2
  001f5	6a 14		 push	 20			; 00000014H
  001f7	58		 pop	 eax
$LL1248@LoadProper@2:
  001f8	8b c8		 mov	 ecx, eax
  001fa	81 e1 03 00 00
	80		 and	 ecx, -2147483645	; 80000003H
  00200	79 05		 jns	 SHORT $LN1418@LoadProper@2
  00202	49		 dec	 ecx
  00203	83 c9 fc	 or	 ecx, -4			; fffffffcH
  00206	41		 inc	 ecx
$LN1418@LoadProper@2:
  00207	b2 ed		 mov	 dl, -19			; ffffffedH
  00209	2a d1		 sub	 dl, cl
  0020b	30 54 05 d0	 xor	 BYTE PTR ___encStr$505937[ebp+eax], dl
  0020f	40		 inc	 eax
  00210	83 f8 17	 cmp	 eax, 23			; 00000017H
  00213	7c e3		 jl	 SHORT $LL1248@LoadProper@2
  00215	ff 75 10	 push	 DWORD PTR _nIndex$[ebp]
  00218	8d 45 d0	 lea	 eax, DWORD PTR ___encStr$505937[ebp]
  0021b	50		 push	 eax
  0021c	8d 85 9c fe ff
	ff		 lea	 eax, DWORD PTR _szKey$[ebp]
  00222	50		 push	 eax
  00223	ff d7		 call	 edi

; 167  : 	LoadAttackAttribute( szKey, m_CounterAttack, rkLoader );

  00225	ff b5 90 fd ff
	ff		 push	 DWORD PTR _rkLoader$GSCopy$[ebp]
  0022b	8d 46 10	 lea	 eax, DWORD PTR [esi+16]
  0022e	50		 push	 eax
  0022f	8d 85 9c fe ff
	ff		 lea	 eax, DWORD PTR _szKey$[ebp]
  00235	50		 push	 eax
  00236	e8 00 00 00 00	 call	 ?LoadAttackAttribute@@YAXPBDAAUAttackAttribute@@AAVioINILoader@@@Z ; LoadAttackAttribute
  0023b	83 c4 18	 add	 esp, 24			; 00000018H

; 168  : 	if( !pOwnerItem )

  0023e	39 5d 0c	 cmp	 DWORD PTR _pOwnerItem$[ebp], ebx
  00241	75 16		 jne	 SHORT $LN904@LoadProper@2

; 169  : 	{
; 170  : 		PrepareLoadingAnimation( m_CounterAttack.m_AttackAnimation );

  00243	8d 46 10	 lea	 eax, DWORD PTR [esi+16]
  00246	50		 push	 eax
  00247	8b ce		 mov	 ecx, esi
  00249	e8 00 00 00 00	 call	 ?PrepareLoadingAnimation@ioFormalAttackGrp@@QAEXABVioHashString@@@Z ; ioFormalAttackGrp::PrepareLoadingAnimation

; 171  : 		PrepareLoadingAnimation( m_CounterAttack.m_AttackEndAnimation );

  0024e	8d 46 24	 lea	 eax, DWORD PTR [esi+36]
  00251	50		 push	 eax
  00252	8b ce		 mov	 ecx, esi
  00254	e8 00 00 00 00	 call	 ?PrepareLoadingAnimation@ioFormalAttackGrp@@QAEXABVioHashString@@@Z ; ioFormalAttackGrp::PrepareLoadingAnimation
$LN904@LoadProper@2:

; 172  : 	}
; 173  : 
; 174  : 	// extradash attack
; 175  : 	wsprintf_e( szKey, "extra_dash_extend%d_max_cnt", nIndex );

  00259	6a 06		 push	 6
  0025b	c7 45 cc 88 94
	9f 98		 mov	 DWORD PTR ___encStr$506090[ebp], -1734372216 ; 989f9488H
  00262	c7 45 d0 8c b3
	8f 8b		 mov	 DWORD PTR ___encStr$506090[ebp+4], -1953516660 ; 8b8fb38cH
  00269	c7 45 d4 9e 84
	b4 8f		 mov	 DWORD PTR ___encStr$506090[ebp+8], -1883994978 ; 8fb4849eH
  00270	c7 45 d8 95 98
	8e 84		 mov	 DWORD PTR ___encStr$506090[ebp+12], -2071029611 ; 848e9895H
  00277	c7 45 dc 89 c9
	8f b5		 mov	 DWORD PTR ___encStr$506090[ebp+16], -1248867959 ; b58fc989H
  0027e	c7 45 e0 80 8d
	93 b5		 mov	 DWORD PTR ___encStr$506090[ebp+20], -1248621184 ; b5938d80H
  00285	8d 45 cc	 lea	 eax, DWORD PTR ___encStr$506090[ebp]
  00288	c7 45 e4 8e 82
	9f 00		 mov	 DWORD PTR ___encStr$506090[ebp+24], 10453646 ; 009f828eH
  0028f	59		 pop	 ecx
$LL1259@LoadProper@2:
  00290	81 30 ed ec eb
	ea		 xor	 DWORD PTR [eax], -353637139 ; eaebecedH
  00296	83 c0 04	 add	 eax, 4
  00299	49		 dec	 ecx
  0029a	75 f4		 jne	 SHORT $LL1259@LoadProper@2
  0029c	6a 18		 push	 24			; 00000018H
  0029e	58		 pop	 eax
$LL1256@LoadProper@2:
  0029f	8b c8		 mov	 ecx, eax
  002a1	81 e1 03 00 00
	80		 and	 ecx, -2147483645	; 80000003H
  002a7	79 05		 jns	 SHORT $LN1419@LoadProper@2
  002a9	49		 dec	 ecx
  002aa	83 c9 fc	 or	 ecx, -4			; fffffffcH
  002ad	41		 inc	 ecx
$LN1419@LoadProper@2:
  002ae	b2 ed		 mov	 dl, -19			; ffffffedH
  002b0	2a d1		 sub	 dl, cl
  002b2	30 54 05 cc	 xor	 BYTE PTR ___encStr$506090[ebp+eax], dl
  002b6	40		 inc	 eax
  002b7	83 f8 1b	 cmp	 eax, 27			; 0000001bH
  002ba	7c e3		 jl	 SHORT $LL1256@LoadProper@2
  002bc	ff 75 10	 push	 DWORD PTR _nIndex$[ebp]
  002bf	8d 45 cc	 lea	 eax, DWORD PTR ___encStr$506090[ebp]
  002c2	50		 push	 eax
  002c3	8d 85 9c fe ff
	ff		 lea	 eax, DWORD PTR _szKey$[ebp]
  002c9	50		 push	 eax
  002ca	ff d7		 call	 edi

; 176  : 	int iMaxAttackCnt = rkLoader.LoadInt( szKey, 1 );

  002cc	8b 8d 90 fd ff
	ff		 mov	 ecx, DWORD PTR _rkLoader$GSCopy$[ebp]
  002d2	83 c4 0c	 add	 esp, 12			; 0000000cH
  002d5	6a 01		 push	 1
  002d7	8d 85 9c fe ff
	ff		 lea	 eax, DWORD PTR _szKey$[ebp]
  002dd	50		 push	 eax
  002de	ff 15 00 00 00
	00		 call	 DWORD PTR __imp_?LoadInt@ioINILoader@@QAEHPBDH@Z

; 177  : 	m_ExtraDashAttackList.clear();

  002e4	8d 8e 40 02 00
	00		 lea	 ecx, DWORD PTR [esi+576]
  002ea	8b 11		 mov	 edx, DWORD PTR [ecx]
  002ec	89 85 8c fd ff
	ff		 mov	 DWORD PTR _iMaxAttackCnt$[ebp], eax
  002f2	8b 41 04	 mov	 eax, DWORD PTR [ecx+4]
  002f5	50		 push	 eax
  002f6	52		 push	 edx
  002f7	8d 85 94 fd ff
	ff		 lea	 eax, DWORD PTR $T517262[ebp]
  002fd	50		 push	 eax
  002fe	e8 00 00 00 00	 call	 ?erase@?$vector@UAttackAttribute@@V?$allocator@UAttackAttribute@@@std@@@std@@QAE?AV?$_Vector_iterator@V?$_Vector_val@UAttackAttribute@@V?$allocator@UAttackAttribute@@@std@@@std@@@2@V?$_Vector_const_iterator@V?$_Vector_val@UAttackAttribute@@V?$allocator@UAttackAttribute@@@std@@@std@@@2@0@Z ; std::vector<AttackAttribute,std::allocator<AttackAttribute> >::erase

; 178  : 	for( i=0; i < iMaxAttackCnt; i++ )

  00303	89 9d 94 fd ff
	ff		 mov	 DWORD PTR _i$[ebp], ebx
  00309	39 9d 8c fd ff
	ff		 cmp	 DWORD PTR _iMaxAttackCnt$[ebp], ebx
  0030f	0f 8e ec 00 00
	00		 jle	 $LN702@LoadProper@2
$LL805@LoadProper@2:

; 179  : 	{
; 180  : 		AttackAttribute kAttribute;

  00315	8d 8d 3c fd ff
	ff		 lea	 ecx, DWORD PTR _kAttribute$506243[ebp]
  0031b	e8 00 00 00 00	 call	 ??0AttackAttribute@@QAE@XZ ; AttackAttribute::AttackAttribute
  00320	6a 07		 push	 7
  00322	c7 45 fc 01 00
	00 00		 mov	 DWORD PTR __$EHRec$[ebp+8], 1

; 181  : 
; 182  : 		wsprintf_e( szBuf, "extra_dash_extend%d_attack%d", nIndex, i+1 );

  00329	c7 45 a4 88 94
	9f 98		 mov	 DWORD PTR ___encStr$506247[ebp], -1734372216 ; 989f9488H
  00330	c7 45 a8 8c b3
	8f 8b		 mov	 DWORD PTR ___encStr$506247[ebp+4], -1953516660 ; 8b8fb38cH
  00337	c7 45 ac 9e 84
	b4 8f		 mov	 DWORD PTR ___encStr$506247[ebp+8], -1883994978 ; 8fb4849eH
  0033e	c7 45 b0 95 98
	8e 84		 mov	 DWORD PTR ___encStr$506247[ebp+12], -2071029611 ; 848e9895H
  00345	c7 45 b4 89 c9
	8f b5		 mov	 DWORD PTR ___encStr$506247[ebp+16], -1248867959 ; b58fc989H
  0034c	c7 45 b8 8c 98
	9f 8b		 mov	 DWORD PTR ___encStr$506247[ebp+20], -1952474996 ; 8b9f988cH
  00353	c7 45 bc 8e 87
	ce 8e		 mov	 DWORD PTR ___encStr$506247[ebp+24], -1899067506 ; 8ece878eH
  0035a	8d 45 a4	 lea	 eax, DWORD PTR ___encStr$506247[ebp]
  0035d	88 5d c0	 mov	 BYTE PTR ___encStr$506247[ebp+28], bl
  00360	59		 pop	 ecx
$LL1285@LoadProper@2:
  00361	81 30 ed ec eb
	ea		 xor	 DWORD PTR [eax], -353637139 ; eaebecedH
  00367	83 c0 04	 add	 eax, 4
  0036a	49		 dec	 ecx
  0036b	75 f4		 jne	 SHORT $LL1285@LoadProper@2
  0036d	8b 85 94 fd ff
	ff		 mov	 eax, DWORD PTR _i$[ebp]
  00373	40		 inc	 eax
  00374	50		 push	 eax
  00375	ff 75 10	 push	 DWORD PTR _nIndex$[ebp]
  00378	89 85 94 fd ff
	ff		 mov	 DWORD PTR tv7593[ebp], eax
  0037e	8d 45 a4	 lea	 eax, DWORD PTR ___encStr$506247[ebp]
  00381	50		 push	 eax
  00382	8d 85 98 fd ff
	ff		 lea	 eax, DWORD PTR _szBuf$[ebp]
  00388	50		 push	 eax
  00389	ff d7		 call	 edi

; 183  : 		LoadAttackAttribute( szBuf, kAttribute, rkLoader );		

  0038b	ff b5 90 fd ff
	ff		 push	 DWORD PTR _rkLoader$GSCopy$[ebp]
  00391	8d 85 3c fd ff
	ff		 lea	 eax, DWORD PTR _kAttribute$506243[ebp]
  00397	50		 push	 eax
  00398	8d 85 98 fd ff
	ff		 lea	 eax, DWORD PTR _szBuf$[ebp]
  0039e	50		 push	 eax
  0039f	e8 00 00 00 00	 call	 ?LoadAttackAttribute@@YAXPBDAAUAttackAttribute@@AAVioINILoader@@@Z ; LoadAttackAttribute
  003a4	83 c4 1c	 add	 esp, 28			; 0000001cH

; 184  : 		m_ExtraDashAttackList.push_back( kAttribute );

  003a7	8d 85 3c fd ff
	ff		 lea	 eax, DWORD PTR _kAttribute$506243[ebp]
  003ad	50		 push	 eax
  003ae	8d 8e 40 02 00
	00		 lea	 ecx, DWORD PTR [esi+576]
  003b4	e8 00 00 00 00	 call	 ?push_back@?$vector@UAttackAttribute@@V?$allocator@UAttackAttribute@@@std@@@std@@QAEXABUAttackAttribute@@@Z ; std::vector<AttackAttribute,std::allocator<AttackAttribute> >::push_back

; 185  : 
; 186  : 		// Ani
; 187  : 		if( !pOwnerItem )

  003b9	39 5d 0c	 cmp	 DWORD PTR _pOwnerItem$[ebp], ebx
  003bc	75 1c		 jne	 SHORT $LN703@LoadProper@2

; 188  : 		{
; 189  : 			PrepareLoadingAnimation( kAttribute.m_AttackAnimation );

  003be	8d 85 3c fd ff
	ff		 lea	 eax, DWORD PTR _kAttribute$506243[ebp]
  003c4	50		 push	 eax
  003c5	8b ce		 mov	 ecx, esi
  003c7	e8 00 00 00 00	 call	 ?PrepareLoadingAnimation@ioFormalAttackGrp@@QAEXABVioHashString@@@Z ; ioFormalAttackGrp::PrepareLoadingAnimation

; 190  : 			PrepareLoadingAnimation( kAttribute.m_AttackEndAnimation );

  003cc	8d 85 50 fd ff
	ff		 lea	 eax, DWORD PTR _kAttribute$506243[ebp+20]
  003d2	50		 push	 eax
  003d3	8b ce		 mov	 ecx, esi
  003d5	e8 00 00 00 00	 call	 ?PrepareLoadingAnimation@ioFormalAttackGrp@@QAEXABVioHashString@@@Z ; ioFormalAttackGrp::PrepareLoadingAnimation
$LN703@LoadProper@2:

; 191  : 		}
; 192  : 	}

  003da	83 4d fc ff	 or	 DWORD PTR __$EHRec$[ebp+8], -1
  003de	8d 8d 3c fd ff
	ff		 lea	 ecx, DWORD PTR _kAttribute$506243[ebp]
  003e4	e8 00 00 00 00	 call	 ??1AttackAttribute@@QAE@XZ
  003e9	8b 85 94 fd ff
	ff		 mov	 eax, DWORD PTR tv7593[ebp]
  003ef	89 85 94 fd ff
	ff		 mov	 DWORD PTR _i$[ebp], eax
  003f5	3b 85 8c fd ff
	ff		 cmp	 eax, DWORD PTR _iMaxAttackCnt$[ebp]
  003fb	0f 8c 14 ff ff
	ff		 jl	 $LL805@LoadProper@2
$LN702@LoadProper@2:

; 193  : 
; 194  : 	// extraotherdash attack
; 195  : 	wsprintf_e( szKey, "extra_other_dash_extend%d_max_cnt", nIndex );

  00401	6a 08		 push	 8
  00403	c7 45 c8 88 94
	9f 98		 mov	 DWORD PTR ___encStr$506400[ebp], -1734372216 ; 989f9488H
  0040a	c7 45 cc 8c b3
	84 9e		 mov	 DWORD PTR ___encStr$506400[ebp+4], -1635470452 ; 9e84b38cH
  00411	c7 45 d0 85 89
	99 b5		 mov	 DWORD PTR ___encStr$506400[ebp+8], -1248228987 ; b5998985H
  00418	c7 45 d4 89 8d
	98 82		 mov	 DWORD PTR ___encStr$506400[ebp+12], -2103931511 ; 82988d89H
  0041f	c7 45 d8 b2 89
	93 9e		 mov	 DWORD PTR ___encStr$506400[ebp+16], -1634498126 ; 9e9389b2H
  00426	c7 45 dc 88 82
	8f cf		 mov	 DWORD PTR ___encStr$506400[ebp+20], -812678520 ; cf8f8288H
  0042d	c7 45 e0 89 b3
	86 8b		 mov	 DWORD PTR ___encStr$506400[ebp+24], -1954106487 ; 8b86b389H
  00434	c7 45 e4 95 b3
	88 84		 mov	 DWORD PTR ___encStr$506400[ebp+28], -2071415915 ; 8488b395H
  0043b	8d 45 c8	 lea	 eax, DWORD PTR ___encStr$506400[ebp]
  0043e	66 c7 45 e8 99
	00		 mov	 WORD PTR ___encStr$506400[ebp+32], 153 ; 00000099H
  00444	59		 pop	 ecx
$LL1293@LoadProper@2:
  00445	81 30 ed ec eb
	ea		 xor	 DWORD PTR [eax], -353637139 ; eaebecedH
  0044b	83 c0 04	 add	 eax, 4
  0044e	49		 dec	 ecx
  0044f	75 f4		 jne	 SHORT $LL1293@LoadProper@2
  00451	ff 75 10	 push	 DWORD PTR _nIndex$[ebp]
  00454	80 75 e8 ed	 xor	 BYTE PTR ___encStr$506400[ebp+32], -19 ; ffffffedH
  00458	8d 45 c8	 lea	 eax, DWORD PTR ___encStr$506400[ebp]
  0045b	50		 push	 eax
  0045c	8d 85 9c fe ff
	ff		 lea	 eax, DWORD PTR _szKey$[ebp]
  00462	50		 push	 eax
  00463	ff 15 00 00 00
	00		 call	 DWORD PTR __imp__wsprintfA

; 196  : 	iMaxAttackCnt = rkLoader.LoadInt( szKey, 1 );

  00469	8b 8d 90 fd ff
	ff		 mov	 ecx, DWORD PTR _rkLoader$GSCopy$[ebp]
  0046f	83 c4 0c	 add	 esp, 12			; 0000000cH
  00472	6a 01		 push	 1
  00474	8d 85 9c fe ff
	ff		 lea	 eax, DWORD PTR _szKey$[ebp]
  0047a	50		 push	 eax
  0047b	ff 15 00 00 00
	00		 call	 DWORD PTR __imp_?LoadInt@ioINILoader@@QAEHPBDH@Z

; 197  : 	m_ExtraOtherDashAttackList.clear();

  00481	8b 8e 50 02 00
	00		 mov	 ecx, DWORD PTR [esi+592]
  00487	89 85 8c fd ff
	ff		 mov	 DWORD PTR _iMaxAttackCnt$[ebp], eax
  0048d	8b 86 54 02 00
	00		 mov	 eax, DWORD PTR [esi+596]
  00493	50		 push	 eax
  00494	51		 push	 ecx
  00495	8d 85 94 fd ff
	ff		 lea	 eax, DWORD PTR $T517366[ebp]
  0049b	50		 push	 eax
  0049c	8d 8e 50 02 00
	00		 lea	 ecx, DWORD PTR [esi+592]
  004a2	e8 00 00 00 00	 call	 ?erase@?$vector@UAttackAttribute@@V?$allocator@UAttackAttribute@@@std@@@std@@QAE?AV?$_Vector_iterator@V?$_Vector_val@UAttackAttribute@@V?$allocator@UAttackAttribute@@@std@@@std@@@2@V?$_Vector_const_iterator@V?$_Vector_val@UAttackAttribute@@V?$allocator@UAttackAttribute@@@std@@@std@@@2@0@Z ; std::vector<AttackAttribute,std::allocator<AttackAttribute> >::erase

; 198  : 	for( i=0; i < iMaxAttackCnt; i++ )

  004a7	89 9d 94 fd ff
	ff		 mov	 DWORD PTR _i$[ebp], ebx
  004ad	39 9d 8c fd ff
	ff		 cmp	 DWORD PTR _iMaxAttackCnt$[ebp], ebx
  004b3	0f 8e 1d 01 00
	00		 jle	 $LN601@LoadProper@2
$LL603@LoadProper@2:

; 199  : 	{
; 200  : 		AttackAttribute kAttribute;

  004b9	8d 8d 3c fd ff
	ff		 lea	 ecx, DWORD PTR _kAttribute$506552[ebp]
  004bf	e8 00 00 00 00	 call	 ??0AttackAttribute@@QAE@XZ ; AttackAttribute::AttackAttribute
  004c4	6a 08		 push	 8
  004c6	c7 45 fc 02 00
	00 00		 mov	 DWORD PTR __$EHRec$[ebp+8], 2

; 201  : 
; 202  : 		wsprintf_e( szBuf, "extra_other_dash_extend%d_attack%d", nIndex, i+1 );

  004cd	c7 45 a0 88 94
	9f 98		 mov	 DWORD PTR ___encStr$506556[ebp], -1734372216 ; 989f9488H
  004d4	c7 45 a4 8c b3
	84 9e		 mov	 DWORD PTR ___encStr$506556[ebp+4], -1635470452 ; 9e84b38cH
  004db	c7 45 a8 85 89
	99 b5		 mov	 DWORD PTR ___encStr$506556[ebp+8], -1248228987 ; b5998985H
  004e2	c7 45 ac 89 8d
	98 82		 mov	 DWORD PTR ___encStr$506556[ebp+12], -2103931511 ; 82988d89H
  004e9	c7 45 b0 b2 89
	93 9e		 mov	 DWORD PTR ___encStr$506556[ebp+16], -1634498126 ; 9e9389b2H
  004f0	c7 45 b4 88 82
	8f cf		 mov	 DWORD PTR ___encStr$506556[ebp+20], -812678520 ; cf8f8288H
  004f7	c7 45 b8 89 b3
	8a 9e		 mov	 DWORD PTR ___encStr$506556[ebp+24], -1635077239 ; 9e8ab389H
  004fe	c7 45 bc 99 8d
	88 81		 mov	 DWORD PTR ___encStr$506556[ebp+28], -2121757287 ; 81888d99H
  00505	66 c7 45 c0 c8
	88		 mov	 WORD PTR ___encStr$506556[ebp+32], 35016 ; 000088c8H
  0050b	8d 45 a0	 lea	 eax, DWORD PTR ___encStr$506556[ebp]
  0050e	88 5d c2	 mov	 BYTE PTR ___encStr$506556[ebp+34], bl
  00511	59		 pop	 ecx
$LL1319@LoadProper@2:
  00512	81 30 ed ec eb
	ea		 xor	 DWORD PTR [eax], -353637139 ; eaebecedH
  00518	83 c0 04	 add	 eax, 4
  0051b	49		 dec	 ecx
  0051c	75 f4		 jne	 SHORT $LL1319@LoadProper@2
  0051e	6a 20		 push	 32			; 00000020H
  00520	58		 pop	 eax
$LL1316@LoadProper@2:
  00521	8b c8		 mov	 ecx, eax
  00523	81 e1 03 00 00
	80		 and	 ecx, -2147483645	; 80000003H
  00529	79 05		 jns	 SHORT $LN1420@LoadProper@2
  0052b	49		 dec	 ecx
  0052c	83 c9 fc	 or	 ecx, -4			; fffffffcH
  0052f	41		 inc	 ecx
$LN1420@LoadProper@2:
  00530	b2 ed		 mov	 dl, -19			; ffffffedH
  00532	2a d1		 sub	 dl, cl
  00534	30 54 05 a0	 xor	 BYTE PTR ___encStr$506556[ebp+eax], dl
  00538	40		 inc	 eax
  00539	83 f8 22	 cmp	 eax, 34			; 00000022H
  0053c	7c e3		 jl	 SHORT $LL1316@LoadProper@2
  0053e	8b 85 94 fd ff
	ff		 mov	 eax, DWORD PTR _i$[ebp]
  00544	40		 inc	 eax
  00545	50		 push	 eax
  00546	ff 75 10	 push	 DWORD PTR _nIndex$[ebp]
  00549	89 85 94 fd ff
	ff		 mov	 DWORD PTR tv7593[ebp], eax
  0054f	8d 45 a0	 lea	 eax, DWORD PTR ___encStr$506556[ebp]
  00552	50		 push	 eax
  00553	8d 85 98 fd ff
	ff		 lea	 eax, DWORD PTR _szBuf$[ebp]
  00559	50		 push	 eax
  0055a	ff 15 00 00 00
	00		 call	 DWORD PTR __imp__wsprintfA

; 203  : 		LoadAttackAttribute( szBuf, kAttribute, rkLoader );		

  00560	ff b5 90 fd ff
	ff		 push	 DWORD PTR _rkLoader$GSCopy$[ebp]
  00566	8d 85 3c fd ff
	ff		 lea	 eax, DWORD PTR _kAttribute$506552[ebp]
  0056c	50		 push	 eax
  0056d	8d 85 98 fd ff
	ff		 lea	 eax, DWORD PTR _szBuf$[ebp]
  00573	50		 push	 eax
  00574	e8 00 00 00 00	 call	 ?LoadAttackAttribute@@YAXPBDAAUAttackAttribute@@AAVioINILoader@@@Z ; LoadAttackAttribute
  00579	83 c4 1c	 add	 esp, 28			; 0000001cH

; 204  : 		m_ExtraOtherDashAttackList.push_back( kAttribute );

  0057c	8d 85 3c fd ff
	ff		 lea	 eax, DWORD PTR _kAttribute$506552[ebp]
  00582	50		 push	 eax
  00583	8d 8e 50 02 00
	00		 lea	 ecx, DWORD PTR [esi+592]
  00589	e8 00 00 00 00	 call	 ?push_back@?$vector@UAttackAttribute@@V?$allocator@UAttackAttribute@@@std@@@std@@QAEXABUAttackAttribute@@@Z ; std::vector<AttackAttribute,std::allocator<AttackAttribute> >::push_back

; 205  : 
; 206  : 		// Ani
; 207  : 		if( !pOwnerItem )

  0058e	39 5d 0c	 cmp	 DWORD PTR _pOwnerItem$[ebp], ebx
  00591	75 1c		 jne	 SHORT $LN501@LoadProper@2

; 208  : 		{
; 209  : 			PrepareLoadingAnimation( kAttribute.m_AttackAnimation );

  00593	8d 85 3c fd ff
	ff		 lea	 eax, DWORD PTR _kAttribute$506552[ebp]
  00599	50		 push	 eax
  0059a	8b ce		 mov	 ecx, esi
  0059c	e8 00 00 00 00	 call	 ?PrepareLoadingAnimation@ioFormalAttackGrp@@QAEXABVioHashString@@@Z ; ioFormalAttackGrp::PrepareLoadingAnimation

; 210  : 			PrepareLoadingAnimation( kAttribute.m_AttackEndAnimation );

  005a1	8d 85 50 fd ff
	ff		 lea	 eax, DWORD PTR _kAttribute$506552[ebp+20]
  005a7	50		 push	 eax
  005a8	8b ce		 mov	 ecx, esi
  005aa	e8 00 00 00 00	 call	 ?PrepareLoadingAnimation@ioFormalAttackGrp@@QAEXABVioHashString@@@Z ; ioFormalAttackGrp::PrepareLoadingAnimation
$LN501@LoadProper@2:

; 211  : 		}
; 212  : 	}

  005af	83 4d fc ff	 or	 DWORD PTR __$EHRec$[ebp+8], -1
  005b3	8d 8d 3c fd ff
	ff		 lea	 ecx, DWORD PTR _kAttribute$506552[ebp]
  005b9	e8 00 00 00 00	 call	 ??1AttackAttribute@@QAE@XZ
  005be	8b 85 94 fd ff
	ff		 mov	 eax, DWORD PTR tv7593[ebp]
  005c4	89 85 94 fd ff
	ff		 mov	 DWORD PTR _i$[ebp], eax
  005ca	3b 85 8c fd ff
	ff		 cmp	 eax, DWORD PTR _iMaxAttackCnt$[ebp]
  005d0	0f 8c e3 fe ff
	ff		 jl	 $LL603@LoadProper@2
$LN601@LoadProper@2:

; 213  : 
; 214  : 	// Jump Attack & Extend Jump Attack
; 215  : 	m_JumpAttack.Init();

  005d6	8d be b0 00 00
	00		 lea	 edi, DWORD PTR [esi+176]
  005dc	8b cf		 mov	 ecx, edi
  005de	e8 00 00 00 00	 call	 ?Init@AttackAttribute@@QAEXXZ ; AttackAttribute::Init
  005e3	6a 05		 push	 5

; 216  : 	wsprintf_e( szKey, "jump_extend%d_attack", nIndex );

  005e5	c7 45 d4 87 99
	86 9a		 mov	 DWORD PTR ___encStr$506709[ebp], -1702454905 ; 9a869987H
  005ec	c7 45 d8 b2 89
	93 9e		 mov	 DWORD PTR ___encStr$506709[ebp+4], -1634498126 ; 9e9389b2H
  005f3	c7 45 dc 88 82
	8f cf		 mov	 DWORD PTR ___encStr$506709[ebp+8], -812678520 ; cf8f8288H
  005fa	c7 45 e0 89 b3
	8a 9e		 mov	 DWORD PTR ___encStr$506709[ebp+12], -1635077239 ; 9e8ab389H
  00601	c7 45 e4 99 8d
	88 81		 mov	 DWORD PTR ___encStr$506709[ebp+16], -2121757287 ; 81888d99H
  00608	8d 45 d4	 lea	 eax, DWORD PTR ___encStr$506709[ebp]
  0060b	88 5d e8	 mov	 BYTE PTR ___encStr$506709[ebp+20], bl
  0060e	59		 pop	 ecx
$LL1327@LoadProper@2:
  0060f	81 30 ed ec eb
	ea		 xor	 DWORD PTR [eax], -353637139 ; eaebecedH
  00615	83 c0 04	 add	 eax, 4
  00618	49		 dec	 ecx
  00619	75 f4		 jne	 SHORT $LL1327@LoadProper@2
  0061b	ff 75 10	 push	 DWORD PTR _nIndex$[ebp]
  0061e	8d 45 d4	 lea	 eax, DWORD PTR ___encStr$506709[ebp]
  00621	50		 push	 eax
  00622	8d 85 9c fe ff
	ff		 lea	 eax, DWORD PTR _szKey$[ebp]
  00628	50		 push	 eax
  00629	ff 15 00 00 00
	00		 call	 DWORD PTR __imp__wsprintfA

; 217  : 	LoadAttackAttribute( szKey, m_JumpAttack, rkLoader );

  0062f	ff b5 90 fd ff
	ff		 push	 DWORD PTR _rkLoader$GSCopy$[ebp]
  00635	8d 85 9c fe ff
	ff		 lea	 eax, DWORD PTR _szKey$[ebp]
  0063b	57		 push	 edi
  0063c	50		 push	 eax
  0063d	e8 00 00 00 00	 call	 ?LoadAttackAttribute@@YAXPBDAAUAttackAttribute@@AAVioINILoader@@@Z ; LoadAttackAttribute
  00642	83 c4 18	 add	 esp, 24			; 00000018H

; 218  : 	if( !pOwnerItem )

  00645	39 5d 0c	 cmp	 DWORD PTR _pOwnerItem$[ebp], ebx
  00648	75 16		 jne	 SHORT $LN401@LoadProper@2

; 219  : 	{
; 220  : 		PrepareLoadingAnimation( m_JumpAttack.m_AttackAnimation );

  0064a	57		 push	 edi
  0064b	8b ce		 mov	 ecx, esi
  0064d	e8 00 00 00 00	 call	 ?PrepareLoadingAnimation@ioFormalAttackGrp@@QAEXABVioHashString@@@Z ; ioFormalAttackGrp::PrepareLoadingAnimation

; 221  : 		PrepareLoadingAnimation( m_JumpAttack.m_AttackEndAnimation );

  00652	8d 86 c4 00 00
	00		 lea	 eax, DWORD PTR [esi+196]
  00658	50		 push	 eax
  00659	8b ce		 mov	 ecx, esi
  0065b	e8 00 00 00 00	 call	 ?PrepareLoadingAnimation@ioFormalAttackGrp@@QAEXABVioHashString@@@Z ; ioFormalAttackGrp::PrepareLoadingAnimation
$LN401@LoadProper@2:

; 222  : 	}
; 223  : 
; 224  : 	m_ExtendJumpAttack.Init();

  00660	8d be 00 01 00
	00		 lea	 edi, DWORD PTR [esi+256]
  00666	8b cf		 mov	 ecx, edi
  00668	e8 00 00 00 00	 call	 ?Init@AttackAttribute@@QAEXXZ ; AttackAttribute::Init
  0066d	6a 06		 push	 6

; 225  : 	wsprintf_e( szKey, "extend_jump_extend%d_attack", nIndex );

  0066f	c7 45 cc 88 94
	9f 8f		 mov	 DWORD PTR ___encStr$506862[ebp], -1885367160 ; 8f9f9488H
  00676	c7 45 d0 83 88
	b4 80		 mov	 DWORD PTR ___encStr$506862[ebp+4], -2135652221 ; 80b48883H
  0067d	c7 45 d4 98 81
	9b b5		 mov	 DWORD PTR ___encStr$506862[ebp+8], -1248099944 ; b59b8198H
  00684	c7 45 d8 88 94
	9f 8f		 mov	 DWORD PTR ___encStr$506862[ebp+12], -1885367160 ; 8f9f9488H
  0068b	c7 45 dc 83 88
	ce 8e		 mov	 DWORD PTR ___encStr$506862[ebp+16], -1899067261 ; 8ece8883H
  00692	c7 45 e0 b2 8d
	9f 9e		 mov	 DWORD PTR ___encStr$506862[ebp+20], -1633710670 ; 9e9f8db2H
  00699	8d 45 cc	 lea	 eax, DWORD PTR ___encStr$506862[ebp]
  0069c	c7 45 e4 8c 8f
	80 00		 mov	 DWORD PTR ___encStr$506862[ebp+24], 8425356 ; 00808f8cH
  006a3	59		 pop	 ecx
$LL1335@LoadProper@2:
  006a4	81 30 ed ec eb
	ea		 xor	 DWORD PTR [eax], -353637139 ; eaebecedH
  006aa	83 c0 04	 add	 eax, 4
  006ad	49		 dec	 ecx
  006ae	75 f4		 jne	 SHORT $LL1335@LoadProper@2
  006b0	6a 18		 push	 24			; 00000018H
  006b2	58		 pop	 eax
$LL1332@LoadProper@2:
  006b3	8b c8		 mov	 ecx, eax
  006b5	81 e1 03 00 00
	80		 and	 ecx, -2147483645	; 80000003H
  006bb	79 05		 jns	 SHORT $LN1421@LoadProper@2
  006bd	49		 dec	 ecx
  006be	83 c9 fc	 or	 ecx, -4			; fffffffcH
  006c1	41		 inc	 ecx
$LN1421@LoadProper@2:
  006c2	b2 ed		 mov	 dl, -19			; ffffffedH
  006c4	2a d1		 sub	 dl, cl
  006c6	30 54 05 cc	 xor	 BYTE PTR ___encStr$506862[ebp+eax], dl
  006ca	40		 inc	 eax
  006cb	83 f8 1b	 cmp	 eax, 27			; 0000001bH
  006ce	7c e3		 jl	 SHORT $LL1332@LoadProper@2
  006d0	ff 75 10	 push	 DWORD PTR _nIndex$[ebp]
  006d3	8d 45 cc	 lea	 eax, DWORD PTR ___encStr$506862[ebp]
  006d6	50		 push	 eax
  006d7	8d 85 9c fe ff
	ff		 lea	 eax, DWORD PTR _szKey$[ebp]
  006dd	50		 push	 eax
  006de	ff 15 00 00 00
	00		 call	 DWORD PTR __imp__wsprintfA

; 226  : 	LoadAttackAttribute( szKey, m_ExtendJumpAttack, rkLoader );

  006e4	ff b5 90 fd ff
	ff		 push	 DWORD PTR _rkLoader$GSCopy$[ebp]
  006ea	8d 85 9c fe ff
	ff		 lea	 eax, DWORD PTR _szKey$[ebp]
  006f0	57		 push	 edi
  006f1	50		 push	 eax
  006f2	e8 00 00 00 00	 call	 ?LoadAttackAttribute@@YAXPBDAAUAttackAttribute@@AAVioINILoader@@@Z ; LoadAttackAttribute
  006f7	83 c4 18	 add	 esp, 24			; 00000018H

; 227  : 	if( !pOwnerItem )

  006fa	39 5d 0c	 cmp	 DWORD PTR _pOwnerItem$[ebp], ebx
  006fd	75 16		 jne	 SHORT $LN301@LoadProper@2

; 228  : 	{
; 229  : 		PrepareLoadingAnimation( m_ExtendJumpAttack.m_AttackAnimation );

  006ff	57		 push	 edi
  00700	8b ce		 mov	 ecx, esi
  00702	e8 00 00 00 00	 call	 ?PrepareLoadingAnimation@ioFormalAttackGrp@@QAEXABVioHashString@@@Z ; ioFormalAttackGrp::PrepareLoadingAnimation

; 230  : 		PrepareLoadingAnimation( m_ExtendJumpAttack.m_AttackEndAnimation );

  00707	8d 86 14 01 00
	00		 lea	 eax, DWORD PTR [esi+276]
  0070d	50		 push	 eax
  0070e	8b ce		 mov	 ecx, esi
  00710	e8 00 00 00 00	 call	 ?PrepareLoadingAnimation@ioFormalAttackGrp@@QAEXABVioHashString@@@Z ; ioFormalAttackGrp::PrepareLoadingAnimation
$LN301@LoadProper@2:

; 231  : 	}
; 232  : 
; 233  : 	m_LandJumpAttack.Init();

  00715	8d be 50 01 00
	00		 lea	 edi, DWORD PTR [esi+336]
  0071b	8b cf		 mov	 ecx, edi
  0071d	e8 00 00 00 00	 call	 ?Init@AttackAttribute@@QAEXXZ ; AttackAttribute::Init
  00722	6a 06		 push	 6

; 234  : 	wsprintf_e( szKey, "land_jump_extend%d_attack", nIndex );

  00724	c7 45 d0 81 8d
	85 8e		 mov	 DWORD PTR ___encStr$507015[ebp], -1903850111 ; 8e858d81H
  0072b	c7 45 d4 b2 86
	9e 87		 mov	 DWORD PTR ___encStr$507015[ebp+4], -2019653966 ; 879e86b2H
  00732	c7 45 d8 9d b3
	8e 92		 mov	 DWORD PTR ___encStr$507015[ebp+8], -1836141667 ; 928eb39dH
  00739	c7 45 dc 99 89
	85 8e		 mov	 DWORD PTR ___encStr$507015[ebp+12], -1903851111 ; 8e858999H
  00740	c7 45 e0 c8 88
	b4 8b		 mov	 DWORD PTR ___encStr$507015[ebp+16], -1951102776 ; 8bb488c8H
  00747	c7 45 e4 99 98
	8a 89		 mov	 DWORD PTR ___encStr$507015[ebp+20], -1987405671 ; 898a9899H
  0074e	8d 45 d0	 lea	 eax, DWORD PTR ___encStr$507015[ebp]
  00751	66 c7 45 e8 86
	00		 mov	 WORD PTR ___encStr$507015[ebp+24], 134 ; 00000086H
  00757	59		 pop	 ecx
$LL1343@LoadProper@2:
  00758	81 30 ed ec eb
	ea		 xor	 DWORD PTR [eax], -353637139 ; eaebecedH
  0075e	83 c0 04	 add	 eax, 4
  00761	49		 dec	 ecx
  00762	75 f4		 jne	 SHORT $LL1343@LoadProper@2
  00764	ff 75 10	 push	 DWORD PTR _nIndex$[ebp]
  00767	80 75 e8 ed	 xor	 BYTE PTR ___encStr$507015[ebp+24], -19 ; ffffffedH
  0076b	8d 45 d0	 lea	 eax, DWORD PTR ___encStr$507015[ebp]
  0076e	50		 push	 eax
  0076f	8d 85 9c fe ff
	ff		 lea	 eax, DWORD PTR _szKey$[ebp]
  00775	50		 push	 eax
  00776	ff 15 00 00 00
	00		 call	 DWORD PTR __imp__wsprintfA

; 235  : 	LoadAttackAttribute( szKey, m_LandJumpAttack, rkLoader );

  0077c	ff b5 90 fd ff
	ff		 push	 DWORD PTR _rkLoader$GSCopy$[ebp]
  00782	8d 85 9c fe ff
	ff		 lea	 eax, DWORD PTR _szKey$[ebp]
  00788	57		 push	 edi
  00789	50		 push	 eax
  0078a	e8 00 00 00 00	 call	 ?LoadAttackAttribute@@YAXPBDAAUAttackAttribute@@AAVioINILoader@@@Z ; LoadAttackAttribute
  0078f	83 c4 18	 add	 esp, 24			; 00000018H

; 236  : 	if( !pOwnerItem )

  00792	39 5d 0c	 cmp	 DWORD PTR _pOwnerItem$[ebp], ebx
  00795	75 16		 jne	 SHORT $LN201@LoadProper@2

; 237  : 	{
; 238  : 		PrepareLoadingAnimation( m_LandJumpAttack.m_AttackAnimation );

  00797	57		 push	 edi
  00798	8b ce		 mov	 ecx, esi
  0079a	e8 00 00 00 00	 call	 ?PrepareLoadingAnimation@ioFormalAttackGrp@@QAEXABVioHashString@@@Z ; ioFormalAttackGrp::PrepareLoadingAnimation

; 239  : 		PrepareLoadingAnimation( m_LandJumpAttack.m_AttackEndAnimation );

  0079f	8d 86 64 01 00
	00		 lea	 eax, DWORD PTR [esi+356]
  007a5	50		 push	 eax
  007a6	8b ce		 mov	 ecx, esi
  007a8	e8 00 00 00 00	 call	 ?PrepareLoadingAnimation@ioFormalAttackGrp@@QAEXABVioHashString@@@Z ; ioFormalAttackGrp::PrepareLoadingAnimation
$LN201@LoadProper@2:

; 240  : 	}
; 241  : 
; 242  : 	m_ExtendLandJumpAttack.Init();

  007ad	8d be a0 01 00
	00		 lea	 edi, DWORD PTR [esi+416]
  007b3	8b cf		 mov	 ecx, edi
  007b5	e8 00 00 00 00	 call	 ?Init@AttackAttribute@@QAEXXZ ; AttackAttribute::Init
  007ba	6a 08		 push	 8

; 243  : 	wsprintf_e( szKey, "extend_land_jump_extend%d_attack", nIndex );

  007bc	c7 45 c8 88 94
	9f 8f		 mov	 DWORD PTR ___encStr$507168[ebp], -1885367160 ; 8f9f9488H
  007c3	c7 45 cc 83 88
	b4 86		 mov	 DWORD PTR ___encStr$507168[ebp+4], -2034988925 ; 86b48883H
  007ca	c7 45 d0 8c 82
	8f b5		 mov	 DWORD PTR ___encStr$507168[ebp+8], -1248886132 ; b58f828cH
  007d1	c7 45 d4 87 99
	86 9a		 mov	 DWORD PTR ___encStr$507168[ebp+12], -1702454905 ; 9a869987H
  007d8	c7 45 d8 b2 89
	93 9e		 mov	 DWORD PTR ___encStr$507168[ebp+16], -1634498126 ; 9e9389b2H
  007df	c7 45 dc 88 82
	8f cf		 mov	 DWORD PTR ___encStr$507168[ebp+20], -812678520 ; cf8f8288H
  007e6	c7 45 e0 89 b3
	8a 9e		 mov	 DWORD PTR ___encStr$507168[ebp+24], -1635077239 ; 9e8ab389H
  007ed	c7 45 e4 99 8d
	88 81		 mov	 DWORD PTR ___encStr$507168[ebp+28], -2121757287 ; 81888d99H
  007f4	8d 45 c8	 lea	 eax, DWORD PTR ___encStr$507168[ebp]
  007f7	88 5d e8	 mov	 BYTE PTR ___encStr$507168[ebp+32], bl
  007fa	59		 pop	 ecx
$LL1351@LoadProper@2:
  007fb	81 30 ed ec eb
	ea		 xor	 DWORD PTR [eax], -353637139 ; eaebecedH
  00801	83 c0 04	 add	 eax, 4
  00804	49		 dec	 ecx
  00805	75 f4		 jne	 SHORT $LL1351@LoadProper@2
  00807	ff 75 10	 push	 DWORD PTR _nIndex$[ebp]
  0080a	8d 45 c8	 lea	 eax, DWORD PTR ___encStr$507168[ebp]
  0080d	50		 push	 eax
  0080e	8d 85 9c fe ff
	ff		 lea	 eax, DWORD PTR _szKey$[ebp]
  00814	50		 push	 eax
  00815	ff 15 00 00 00
	00		 call	 DWORD PTR __imp__wsprintfA

; 244  : 	LoadAttackAttribute( szKey, m_ExtendLandJumpAttack, rkLoader );

  0081b	ff b5 90 fd ff
	ff		 push	 DWORD PTR _rkLoader$GSCopy$[ebp]
  00821	8d 85 9c fe ff
	ff		 lea	 eax, DWORD PTR _szKey$[ebp]
  00827	57		 push	 edi
  00828	50		 push	 eax
  00829	e8 00 00 00 00	 call	 ?LoadAttackAttribute@@YAXPBDAAUAttackAttribute@@AAVioINILoader@@@Z ; LoadAttackAttribute
  0082e	83 c4 18	 add	 esp, 24			; 00000018H

; 245  : 	if( !pOwnerItem )

  00831	39 5d 0c	 cmp	 DWORD PTR _pOwnerItem$[ebp], ebx
  00834	75 16		 jne	 SHORT $LN101@LoadProper@2

; 246  : 	{
; 247  : 		PrepareLoadingAnimation( m_ExtendLandJumpAttack.m_AttackAnimation );

  00836	57		 push	 edi
  00837	8b ce		 mov	 ecx, esi
  00839	e8 00 00 00 00	 call	 ?PrepareLoadingAnimation@ioFormalAttackGrp@@QAEXABVioHashString@@@Z ; ioFormalAttackGrp::PrepareLoadingAnimation

; 248  : 		PrepareLoadingAnimation( m_ExtendLandJumpAttack.m_AttackEndAnimation );

  0083e	8d 86 b4 01 00
	00		 lea	 eax, DWORD PTR [esi+436]
  00844	50		 push	 eax
  00845	8b ce		 mov	 ecx, esi
  00847	e8 00 00 00 00	 call	 ?PrepareLoadingAnimation@ioFormalAttackGrp@@QAEXABVioHashString@@@Z ; ioFormalAttackGrp::PrepareLoadingAnimation
$LN101@LoadProper@2:

; 249  : 	}
; 250  : 
; 251  : 	m_HighJumpAttack.Init();

  0084c	8d be f0 01 00
	00		 lea	 edi, DWORD PTR [esi+496]
  00852	8b cf		 mov	 ecx, edi
  00854	e8 00 00 00 00	 call	 ?Init@AttackAttribute@@QAEXXZ ; AttackAttribute::Init
  00859	6a 06		 push	 6

; 252  : 	wsprintf_e( szKey, "high_jump_extend%d_attack", nIndex );

  0085b	c7 45 a8 85 85
	8c 82		 mov	 DWORD PTR ___encStr$507321[ebp], -2104719995 ; 828c8585H
  00862	c7 45 ac b2 86
	9e 87		 mov	 DWORD PTR ___encStr$507321[ebp+4], -2019653966 ; 879e86b2H
  00869	c7 45 b0 9d b3
	8e 92		 mov	 DWORD PTR ___encStr$507321[ebp+8], -1836141667 ; 928eb39dH
  00870	c7 45 b4 99 89
	85 8e		 mov	 DWORD PTR ___encStr$507321[ebp+12], -1903851111 ; 8e858999H
  00877	c7 45 b8 c8 88
	b4 8b		 mov	 DWORD PTR ___encStr$507321[ebp+16], -1951102776 ; 8bb488c8H
  0087e	c7 45 bc 99 98
	8a 89		 mov	 DWORD PTR ___encStr$507321[ebp+20], -1987405671 ; 898a9899H
  00885	8d 45 a8	 lea	 eax, DWORD PTR ___encStr$507321[ebp]
  00888	66 c7 45 c0 86
	00		 mov	 WORD PTR ___encStr$507321[ebp+24], 134 ; 00000086H
  0088e	59		 pop	 ecx
$LL1359@LoadProper@2:
  0088f	81 30 ed ec eb
	ea		 xor	 DWORD PTR [eax], -353637139 ; eaebecedH
  00895	83 c0 04	 add	 eax, 4
  00898	49		 dec	 ecx
  00899	75 f4		 jne	 SHORT $LL1359@LoadProper@2
  0089b	ff 75 10	 push	 DWORD PTR _nIndex$[ebp]
  0089e	80 75 c0 ed	 xor	 BYTE PTR ___encStr$507321[ebp+24], -19 ; ffffffedH
  008a2	8d 45 a8	 lea	 eax, DWORD PTR ___encStr$507321[ebp]
  008a5	50		 push	 eax
  008a6	8d 85 9c fe ff
	ff		 lea	 eax, DWORD PTR _szKey$[ebp]
  008ac	50		 push	 eax
  008ad	ff 15 00 00 00
	00		 call	 DWORD PTR __imp__wsprintfA

; 253  : 	LoadAttackAttribute( szKey, m_HighJumpAttack, rkLoader );

  008b3	ff b5 90 fd ff
	ff		 push	 DWORD PTR _rkLoader$GSCopy$[ebp]
  008b9	8d 85 9c fe ff
	ff		 lea	 eax, DWORD PTR _szKey$[ebp]
  008bf	57		 push	 edi
  008c0	50		 push	 eax
  008c1	e8 00 00 00 00	 call	 ?LoadAttackAttribute@@YAXPBDAAUAttackAttribute@@AAVioINILoader@@@Z ; LoadAttackAttribute
  008c6	83 c4 18	 add	 esp, 24			; 00000018H

; 254  : 	if( !pOwnerItem )

  008c9	39 5d 0c	 cmp	 DWORD PTR _pOwnerItem$[ebp], ebx
  008cc	75 16		 jne	 SHORT $LN1@LoadProper@2

; 255  : 	{
; 256  : 		PrepareLoadingAnimation( m_HighJumpAttack.m_AttackAnimation );

  008ce	57		 push	 edi
  008cf	8b ce		 mov	 ecx, esi
  008d1	e8 00 00 00 00	 call	 ?PrepareLoadingAnimation@ioFormalAttackGrp@@QAEXABVioHashString@@@Z ; ioFormalAttackGrp::PrepareLoadingAnimation

; 257  : 		PrepareLoadingAnimation( m_HighJumpAttack.m_AttackEndAnimation );

  008d6	8d 86 04 02 00
	00		 lea	 eax, DWORD PTR [esi+516]
  008dc	50		 push	 eax
  008dd	8b ce		 mov	 ecx, esi
  008df	e8 00 00 00 00	 call	 ?PrepareLoadingAnimation@ioFormalAttackGrp@@QAEXABVioHashString@@@Z ; ioFormalAttackGrp::PrepareLoadingAnimation
$LN1@LoadProper@2:

; 258  : 	}
; 259  : }

  008e4	e8 00 00 00 00	 call	 __EH_epilog3_GS
  008e9	c2 0c 00	 ret	 12			; 0000000cH
_TEXT	ENDS
;	COMDAT text$x
text$x	SEGMENT
__unwindfunclet$?LoadProperty_Extend@ioFormalAttackGrp@@QAEXAAVioINILoader@@PAVioItem@@H@Z$0:
  00000	8d 8d 3c fd ff
	ff		 lea	 ecx, DWORD PTR _kAttribute$505780[ebp]
  00006	e9 00 00 00 00	 jmp	 ??1AttackAttribute@@QAE@XZ
__unwindfunclet$?LoadProperty_Extend@ioFormalAttackGrp@@QAEXAAVioINILoader@@PAVioItem@@H@Z$1:
  0000b	8d 8d 3c fd ff
	ff		 lea	 ecx, DWORD PTR _kAttribute$506243[ebp]
  00011	e9 00 00 00 00	 jmp	 ??1AttackAttribute@@QAE@XZ
__unwindfunclet$?LoadProperty_Extend@ioFormalAttackGrp@@QAEXAAVioINILoader@@PAVioItem@@H@Z$2:
  00016	8d 8d 3c fd ff
	ff		 lea	 ecx, DWORD PTR _kAttribute$506552[ebp]
  0001c	e9 00 00 00 00	 jmp	 ??1AttackAttribute@@QAE@XZ
__ehhandler$?LoadProperty_Extend@ioFormalAttackGrp@@QAEXAAVioINILoader@@PAVioItem@@H@Z:
  00021	8b 54 24 08	 mov	 edx, DWORD PTR [esp+8]
  00025	8d 42 0c	 lea	 eax, DWORD PTR [edx+12]
  00028	8b 8a 38 fd ff
	ff		 mov	 ecx, DWORD PTR [edx-712]
  0002e	33 c8		 xor	 ecx, eax
  00030	e8 00 00 00 00	 call	 @__security_check_cookie@4
  00035	8b 4a fc	 mov	 ecx, DWORD PTR [edx-4]
  00038	33 c8		 xor	 ecx, eax
  0003a	e8 00 00 00 00	 call	 @__security_check_cookie@4
  0003f	b8 00 00 00 00	 mov	 eax, OFFSET __ehfuncinfo$?LoadProperty_Extend@ioFormalAttackGrp@@QAEXAAVioINILoader@@PAVioItem@@H@Z
  00044	e9 00 00 00 00	 jmp	 ___CxxFrameHandler3
text$x	ENDS
?LoadProperty_Extend@ioFormalAttackGrp@@QAEXAAVioINILoader@@PAVioItem@@H@Z ENDP ; ioFormalAttackGrp::LoadProperty_Extend
PUBLIC	_rkLoader$GSCopy$
PUBLIC	?LoadProperty_Only_Monk@ioFormalAttackGrp@@QAEXAAVioINILoader@@PAVioItem@@@Z ; ioFormalAttackGrp::LoadProperty_Only_Monk
;	COMDAT xdata$x
; File d:\lost saga for developer\youtube\tutorial\source\src\lsclient\stringprotect.h
xdata$x	SEGMENT
__unwindtable$?LoadProperty_Only_Monk@ioFormalAttackGrp@@QAEXAAVioINILoader@@PAVioItem@@@Z DD 0ffffffffH
	DD	FLAT:__unwindfunclet$?LoadProperty_Only_Monk@ioFormalAttackGrp@@QAEXAAVioINILoader@@PAVioItem@@@Z$0
	DD	0ffffffffH
	DD	FLAT:__unwindfunclet$?LoadProperty_Only_Monk@ioFormalAttackGrp@@QAEXAAVioINILoader@@PAVioItem@@@Z$1
	DD	0ffffffffH
	DD	FLAT:__unwindfunclet$?LoadProperty_Only_Monk@ioFormalAttackGrp@@QAEXAAVioINILoader@@PAVioItem@@@Z$2
__ehfuncinfo$?LoadProperty_Only_Monk@ioFormalAttackGrp@@QAEXAAVioINILoader@@PAVioItem@@@Z DD 019930522H
	DD	03H
	DD	FLAT:__unwindtable$?LoadProperty_Only_Monk@ioFormalAttackGrp@@QAEXAAVioINILoader@@PAVioItem@@@Z
	DD	2 DUP(00H)
	DD	2 DUP(00H)
	DD	00H
	DD	01H
; Function compile flags: /Ogsp
; File d:\lost saga for developer\youtube\tutorial\source\src\lsclient\ioformalattackgrp.cpp
xdata$x	ENDS
;	COMDAT ?LoadProperty_Only_Monk@ioFormalAttackGrp@@QAEXAAVioINILoader@@PAVioItem@@@Z
_TEXT	SEGMENT
_kAttribute$507815 = -440				; size = 80
_kAttribute$507653 = -440				; size = 80
_kAttribute$507487 = -440				; size = 80
_iMaxAttackCnt$ = -360					; size = 4
_iMaxCombo$ = -360					; size = 4
tv9283 = -356						; size = 4
$T518399 = -356						; size = 4
$T518199 = -356						; size = 4
$T517716 = -356						; size = 4
_i$ = -356						; size = 4
_rkLoader$GSCopy$ = -352				; size = 4
_szBuf$ = -348						; size = 260
___encStr$507819 = -88					; size = 31
___encStr$507657 = -84					; size = 25
_szEncAttack$519004 = -80				; size = 22
_szEncAttack$518820 = -52				; size = 29
__k$518241 = -52					; size = 30
_szEncAttack$518570 = -48				; size = 24
__k$518011 = -48					; size = 24
_szEncAttack$518754 = -44				; size = 22
___encStr$507491 = -44					; size = 22
_szEncAttack$518445 = -40				; size = 17
_szEncAttack$517886 = -40				; size = 17
_szEncAttack$517761 = -40				; size = 15
__k$517558 = -40					; size = 15
__$EHRec$ = -12						; size = 12
_rkLoader$ = 8						; size = 4
_pOwnerItem$ = 12					; size = 4
?LoadProperty_Only_Monk@ioFormalAttackGrp@@QAEXAAVioINILoader@@PAVioItem@@@Z PROC ; ioFormalAttackGrp::LoadProperty_Only_Monk, COMDAT
; _this$ = ecx

; 263  : {

  00000	68 ac 01 00 00	 push	 428			; 000001acH
  00005	b8 00 00 00 00	 mov	 eax, __ehhandler$?LoadProperty_Only_Monk@ioFormalAttackGrp@@QAEXAAVioINILoader@@PAVioItem@@@Z
  0000a	e8 00 00 00 00	 call	 __EH_prolog3_GS
  0000f	8b f1		 mov	 esi, ecx
  00011	8b 4d 08	 mov	 ecx, DWORD PTR _rkLoader$[ebp]

; 264  : 	char szBuf[MAX_PATH];
; 265  : 	int iMaxCombo = rkLoader.LoadInt_e( "max_combo_monk", 1 );

  00014	33 db		 xor	 ebx, ebx
  00016	6a 03		 push	 3

; 371  : 	{
; 372  : 		PrepareLoadingAnimation( m_ExtendLandJumpAttack.m_AttackAnimation );

  00018	89 8d a0 fe ff
	ff		 mov	 DWORD PTR _rkLoader$GSCopy$[ebp], ecx
  0001e	c7 45 d8 80 8d
	93 b5		 mov	 DWORD PTR __k$517558[ebp], -1248621184 ; b5938d80H
  00025	c7 45 dc 8e 83
	86 88		 mov	 DWORD PTR __k$517558[ebp+4], -2004450418 ; 8886838eH
  0002c	c7 45 e0 82 b3
	86 85		 mov	 DWORD PTR __k$517558[ebp+8], -2054769790 ; 8586b382H
  00033	66 c7 45 e4 83
	87		 mov	 WORD PTR __k$517558[ebp+12], 34691 ; 00008783H
  00039	8d 45 d8	 lea	 eax, DWORD PTR __k$517558[ebp]
  0003c	88 5d e6	 mov	 BYTE PTR __k$517558[ebp+14], bl
  0003f	5a		 pop	 edx
$LL425@LoadProper@3:

; 264  : 	char szBuf[MAX_PATH];
; 265  : 	int iMaxCombo = rkLoader.LoadInt_e( "max_combo_monk", 1 );

  00040	81 30 ed ec eb
	ea		 xor	 DWORD PTR [eax], -353637139 ; eaebecedH
  00046	83 c0 04	 add	 eax, 4
  00049	4a		 dec	 edx
  0004a	75 f4		 jne	 SHORT $LL425@LoadProper@3
  0004c	6a 0c		 push	 12			; 0000000cH
  0004e	5f		 pop	 edi
$LL422@LoadProper@3:
  0004f	8b c7		 mov	 eax, edi
  00051	25 03 00 00 80	 and	 eax, -2147483645	; 80000003H
  00056	79 05		 jns	 SHORT $LN1522@LoadProper@3
  00058	48		 dec	 eax
  00059	83 c8 fc	 or	 eax, -4			; fffffffcH
  0005c	40		 inc	 eax
$LN1522@LoadProper@3:
  0005d	b2 ed		 mov	 dl, -19			; ffffffedH
  0005f	2a d0		 sub	 dl, al
  00061	30 54 3d d8	 xor	 BYTE PTR __k$517558[ebp+edi], dl
  00065	47		 inc	 edi
  00066	83 ff 0e	 cmp	 edi, 14			; 0000000eH
  00069	7c e4		 jl	 SHORT $LL422@LoadProper@3
  0006b	6a 01		 push	 1
  0006d	8d 45 d8	 lea	 eax, DWORD PTR __k$517558[ebp]
  00070	50		 push	 eax
  00071	ff 15 00 00 00
	00		 call	 DWORD PTR __imp_?LoadInt@ioINILoader@@QAEHPBDH@Z

; 266  : 
; 267  : 	int i = 0;
; 268  : 	m_NormalAttackList.clear();

  00077	8b 0e		 mov	 ecx, DWORD PTR [esi]
  00079	89 85 98 fe ff
	ff		 mov	 DWORD PTR _iMaxCombo$[ebp], eax
  0007f	8b 46 04	 mov	 eax, DWORD PTR [esi+4]
  00082	50		 push	 eax
  00083	51		 push	 ecx
  00084	8d 85 9c fe ff
	ff		 lea	 eax, DWORD PTR $T517716[ebp]
  0008a	50		 push	 eax
  0008b	8b ce		 mov	 ecx, esi
  0008d	e8 00 00 00 00	 call	 ?erase@?$vector@UAttackAttribute@@V?$allocator@UAttackAttribute@@@std@@@std@@QAE?AV?$_Vector_iterator@V?$_Vector_val@UAttackAttribute@@V?$allocator@UAttackAttribute@@@std@@@std@@@2@V?$_Vector_const_iterator@V?$_Vector_val@UAttackAttribute@@V?$allocator@UAttackAttribute@@@std@@@std@@@2@0@Z ; std::vector<AttackAttribute,std::allocator<AttackAttribute> >::erase

; 269  : 	for(i = 0;i < iMaxCombo;i++)

  00092	33 ff		 xor	 edi, edi
  00094	39 9d 98 fe ff
	ff		 cmp	 DWORD PTR _iMaxCombo$[ebp], ebx
  0009a	0f 8e c6 00 00
	00		 jle	 $LN314@LoadProper@3
$LN316@LoadProper@3:

; 270  : 	{
; 271  : 		AttackAttribute kAttribute;

  000a0	8d 8d 48 fe ff
	ff		 lea	 ecx, DWORD PTR _kAttribute$507487[ebp]
  000a6	e8 00 00 00 00	 call	 ??0AttackAttribute@@QAE@XZ ; AttackAttribute::AttackAttribute
  000ab	6a 05		 push	 5
  000ad	89 5d fc	 mov	 DWORD PTR __$EHRec$[ebp+8], ebx

; 272  : 
; 273  : 		wsprintf_e( szBuf, "normal_monk_attack0%d", i+1 );

  000b0	c7 45 d4 83 83
	99 87		 mov	 DWORD PTR ___encStr$507491[ebp], -2019982461 ; 87998383H
  000b7	c7 45 d8 8c 80
	b4 87		 mov	 DWORD PTR ___encStr$507491[ebp+4], -2018213748 ; 87b4808cH
  000be	c7 45 dc 82 82
	80 b5		 mov	 DWORD PTR ___encStr$507491[ebp+8], -1249869182 ; b5808282H
  000c5	c7 45 e0 8c 98
	9f 8b		 mov	 DWORD PTR ___encStr$507491[ebp+12], -1952474996 ; 8b9f988cH
  000cc	c7 45 e4 8e 87
	db cf		 mov	 DWORD PTR ___encStr$507491[ebp+16], -807696498 ; cfdb878eH
  000d3	8d 45 d4	 lea	 eax, DWORD PTR ___encStr$507491[ebp]
  000d6	66 c7 45 e8 89
	00		 mov	 WORD PTR ___encStr$507491[ebp+20], 137 ; 00000089H
  000dc	59		 pop	 ecx
$LL451@LoadProper@3:
  000dd	81 30 ed ec eb
	ea		 xor	 DWORD PTR [eax], -353637139 ; eaebecedH
  000e3	83 c0 04	 add	 eax, 4
  000e6	49		 dec	 ecx
  000e7	75 f4		 jne	 SHORT $LL451@LoadProper@3
  000e9	80 75 e8 ed	 xor	 BYTE PTR ___encStr$507491[ebp+20], -19 ; ffffffedH
  000ed	47		 inc	 edi
  000ee	57		 push	 edi
  000ef	8d 45 d4	 lea	 eax, DWORD PTR ___encStr$507491[ebp]
  000f2	50		 push	 eax
  000f3	8d 85 a4 fe ff
	ff		 lea	 eax, DWORD PTR _szBuf$[ebp]
  000f9	50		 push	 eax
  000fa	ff 15 00 00 00
	00		 call	 DWORD PTR __imp__wsprintfA

; 274  : 		LoadAttackAttribute( szBuf, kAttribute, rkLoader );		

  00100	ff b5 a0 fe ff
	ff		 push	 DWORD PTR _rkLoader$GSCopy$[ebp]
  00106	8d 85 48 fe ff
	ff		 lea	 eax, DWORD PTR _kAttribute$507487[ebp]
  0010c	50		 push	 eax
  0010d	8d 85 a4 fe ff
	ff		 lea	 eax, DWORD PTR _szBuf$[ebp]
  00113	50		 push	 eax
  00114	e8 00 00 00 00	 call	 ?LoadAttackAttribute@@YAXPBDAAUAttackAttribute@@AAVioINILoader@@@Z ; LoadAttackAttribute
  00119	83 c4 18	 add	 esp, 24			; 00000018H

; 275  : 		m_NormalAttackList.push_back( kAttribute );

  0011c	8d 85 48 fe ff
	ff		 lea	 eax, DWORD PTR _kAttribute$507487[ebp]
  00122	50		 push	 eax
  00123	8b ce		 mov	 ecx, esi
  00125	e8 00 00 00 00	 call	 ?push_back@?$vector@UAttackAttribute@@V?$allocator@UAttackAttribute@@@std@@@std@@QAEXABUAttackAttribute@@@Z ; std::vector<AttackAttribute,std::allocator<AttackAttribute> >::push_back

; 276  : 
; 277  : 		// Ani
; 278  : 		if( !pOwnerItem )

  0012a	39 5d 0c	 cmp	 DWORD PTR _pOwnerItem$[ebp], ebx
  0012d	75 1c		 jne	 SHORT $LN214@LoadProper@3

; 279  : 		{
; 280  : 			PrepareLoadingAnimation( kAttribute.m_AttackAnimation );

  0012f	8d 85 48 fe ff
	ff		 lea	 eax, DWORD PTR _kAttribute$507487[ebp]
  00135	50		 push	 eax
  00136	8b ce		 mov	 ecx, esi
  00138	e8 00 00 00 00	 call	 ?PrepareLoadingAnimation@ioFormalAttackGrp@@QAEXABVioHashString@@@Z ; ioFormalAttackGrp::PrepareLoadingAnimation

; 281  : 			PrepareLoadingAnimation( kAttribute.m_AttackEndAnimation );

  0013d	8d 85 5c fe ff
	ff		 lea	 eax, DWORD PTR _kAttribute$507487[ebp+20]
  00143	50		 push	 eax
  00144	8b ce		 mov	 ecx, esi
  00146	e8 00 00 00 00	 call	 ?PrepareLoadingAnimation@ioFormalAttackGrp@@QAEXABVioHashString@@@Z ; ioFormalAttackGrp::PrepareLoadingAnimation
$LN214@LoadProper@3:

; 282  : 		}
; 283  : 	}

  0014b	83 4d fc ff	 or	 DWORD PTR __$EHRec$[ebp+8], -1
  0014f	8d 8d 48 fe ff
	ff		 lea	 ecx, DWORD PTR _kAttribute$507487[ebp]
  00155	e8 00 00 00 00	 call	 ??1AttackAttribute@@QAE@XZ
  0015a	3b bd 98 fe ff
	ff		 cmp	 edi, DWORD PTR _iMaxCombo$[ebp]
  00160	0f 8c 3a ff ff
	ff		 jl	 $LN316@LoadProper@3
$LN314@LoadProper@3:

; 284  : 
; 285  : 	// Counter Attack
; 286  : 	m_CounterAttack.Init();

  00166	8d 7e 10	 lea	 edi, DWORD PTR [esi+16]
  00169	8b cf		 mov	 ecx, edi
  0016b	e8 00 00 00 00	 call	 ?Init@AttackAttribute@@QAEXXZ ; AttackAttribute::Init
  00170	6a 03		 push	 3

; 287  : 	LoadAttackAttribute_e( "counter_attack", m_CounterAttack, rkLoader );

  00172	c7 45 d8 8e 83
	9e 84		 mov	 DWORD PTR _szEncAttack$517761[ebp], -2069986418 ; 849e838eH
  00179	c7 45 dc 99 89
	99 b5		 mov	 DWORD PTR _szEncAttack$517761[ebp+4], -1248228967 ; b5998999H
  00180	c7 45 e0 8c 98
	9f 8b		 mov	 DWORD PTR _szEncAttack$517761[ebp+8], -1952474996 ; 8b9f988cH
  00187	66 c7 45 e4 8e
	87		 mov	 WORD PTR _szEncAttack$517761[ebp+12], 34702 ; 0000878eH
  0018d	8d 45 d8	 lea	 eax, DWORD PTR _szEncAttack$517761[ebp]
  00190	88 5d e6	 mov	 BYTE PTR _szEncAttack$517761[ebp+14], bl
  00193	59		 pop	 ecx
$LL557@LoadProper@3:
  00194	81 30 ed ec eb
	ea		 xor	 DWORD PTR [eax], -353637139 ; eaebecedH
  0019a	83 c0 04	 add	 eax, 4
  0019d	49		 dec	 ecx
  0019e	75 f4		 jne	 SHORT $LL557@LoadProper@3
  001a0	6a 0c		 push	 12			; 0000000cH
  001a2	58		 pop	 eax
$LL554@LoadProper@3:
  001a3	8b c8		 mov	 ecx, eax
  001a5	81 e1 03 00 00
	80		 and	 ecx, -2147483645	; 80000003H
  001ab	79 05		 jns	 SHORT $LN1523@LoadProper@3
  001ad	49		 dec	 ecx
  001ae	83 c9 fc	 or	 ecx, -4			; fffffffcH
  001b1	41		 inc	 ecx
$LN1523@LoadProper@3:
  001b2	b2 ed		 mov	 dl, -19			; ffffffedH
  001b4	2a d1		 sub	 dl, cl
  001b6	30 54 05 d8	 xor	 BYTE PTR _szEncAttack$517761[ebp+eax], dl
  001ba	40		 inc	 eax
  001bb	83 f8 0e	 cmp	 eax, 14			; 0000000eH
  001be	7c e3		 jl	 SHORT $LL554@LoadProper@3
  001c0	ff b5 a0 fe ff
	ff		 push	 DWORD PTR _rkLoader$GSCopy$[ebp]
  001c6	8d 45 d8	 lea	 eax, DWORD PTR _szEncAttack$517761[ebp]
  001c9	57		 push	 edi
  001ca	50		 push	 eax
  001cb	e8 00 00 00 00	 call	 ?LoadAttackAttribute@@YAXPBDAAUAttackAttribute@@AAVioINILoader@@@Z ; LoadAttackAttribute
  001d0	83 c4 0c	 add	 esp, 12			; 0000000cH

; 288  : 	if( !pOwnerItem )

  001d3	39 5d 0c	 cmp	 DWORD PTR _pOwnerItem$[ebp], ebx
  001d6	75 13		 jne	 SHORT $LN213@LoadProper@3

; 289  : 	{
; 290  : 		PrepareLoadingAnimation( m_CounterAttack.m_AttackAnimation );

  001d8	57		 push	 edi
  001d9	8b ce		 mov	 ecx, esi
  001db	e8 00 00 00 00	 call	 ?PrepareLoadingAnimation@ioFormalAttackGrp@@QAEXABVioHashString@@@Z ; ioFormalAttackGrp::PrepareLoadingAnimation

; 291  : 		PrepareLoadingAnimation( m_CounterAttack.m_AttackEndAnimation );

  001e0	8d 46 24	 lea	 eax, DWORD PTR [esi+36]
  001e3	50		 push	 eax
  001e4	8b ce		 mov	 ecx, esi
  001e6	e8 00 00 00 00	 call	 ?PrepareLoadingAnimation@ioFormalAttackGrp@@QAEXABVioHashString@@@Z ; ioFormalAttackGrp::PrepareLoadingAnimation
$LN213@LoadProper@3:

; 292  : 	}
; 293  : 
; 294  : 	// Dash Attack
; 295  : 	m_DashAttack.Init();

  001eb	8d 7e 60	 lea	 edi, DWORD PTR [esi+96]
  001ee	8b cf		 mov	 ecx, edi
  001f0	e8 00 00 00 00	 call	 ?Init@AttackAttribute@@QAEXXZ ; AttackAttribute::Init
  001f5	6a 04		 push	 4

; 296  : 	LoadAttackAttribute_e( "dash_monk_attack", m_DashAttack, rkLoader );

  001f7	c7 45 d8 89 8d
	98 82		 mov	 DWORD PTR _szEncAttack$517886[ebp], -2103931511 ; 82988d89H
  001fe	c7 45 dc b2 81
	84 84		 mov	 DWORD PTR _szEncAttack$517886[ebp+4], -2071690830 ; 848481b2H
  00205	c7 45 e0 86 b3
	8a 9e		 mov	 DWORD PTR _szEncAttack$517886[ebp+8], -1635077242 ; 9e8ab386H
  0020c	c7 45 e4 99 8d
	88 81		 mov	 DWORD PTR _szEncAttack$517886[ebp+12], -2121757287 ; 81888d99H
  00213	8d 45 d8	 lea	 eax, DWORD PTR _szEncAttack$517886[ebp]
  00216	88 5d e8	 mov	 BYTE PTR _szEncAttack$517886[ebp+16], bl
  00219	59		 pop	 ecx
$LL663@LoadProper@3:
  0021a	81 30 ed ec eb
	ea		 xor	 DWORD PTR [eax], -353637139 ; eaebecedH
  00220	83 c0 04	 add	 eax, 4
  00223	49		 dec	 ecx
  00224	75 f4		 jne	 SHORT $LL663@LoadProper@3
  00226	ff b5 a0 fe ff
	ff		 push	 DWORD PTR _rkLoader$GSCopy$[ebp]
  0022c	8d 45 d8	 lea	 eax, DWORD PTR _szEncAttack$517886[ebp]
  0022f	57		 push	 edi
  00230	50		 push	 eax
  00231	e8 00 00 00 00	 call	 ?LoadAttackAttribute@@YAXPBDAAUAttackAttribute@@AAVioINILoader@@@Z ; LoadAttackAttribute
  00236	83 c4 0c	 add	 esp, 12			; 0000000cH

; 297  : 	if( !pOwnerItem )

  00239	39 5d 0c	 cmp	 DWORD PTR _pOwnerItem$[ebp], ebx
  0023c	75 13		 jne	 SHORT $LN212@LoadProper@3

; 298  : 	{
; 299  : 		PrepareLoadingAnimation( m_DashAttack.m_AttackAnimation );

  0023e	57		 push	 edi
  0023f	8b ce		 mov	 ecx, esi
  00241	e8 00 00 00 00	 call	 ?PrepareLoadingAnimation@ioFormalAttackGrp@@QAEXABVioHashString@@@Z ; ioFormalAttackGrp::PrepareLoadingAnimation

; 300  : 		PrepareLoadingAnimation( m_DashAttack.m_AttackEndAnimation );

  00246	8d 46 74	 lea	 eax, DWORD PTR [esi+116]
  00249	50		 push	 eax
  0024a	8b ce		 mov	 ecx, esi
  0024c	e8 00 00 00 00	 call	 ?PrepareLoadingAnimation@ioFormalAttackGrp@@QAEXABVioHashString@@@Z ; ioFormalAttackGrp::PrepareLoadingAnimation
$LN212@LoadProper@3:

; 301  : 	}
; 302  : 
; 303  : 	// extradash attack
; 304  : 	int iMaxAttackCnt = rkLoader.LoadInt_e( "extra_dash_monk_max_cnt", 1 );

  00251	6a 05		 push	 5
  00253	c7 45 d0 88 94
	9f 98		 mov	 DWORD PTR __k$518011[ebp], -1734372216 ; 989f9488H
  0025a	c7 45 d4 8c b3
	8f 8b		 mov	 DWORD PTR __k$518011[ebp+4], -1953516660 ; 8b8fb38cH
  00261	c7 45 d8 9e 84
	b4 87		 mov	 DWORD PTR __k$518011[ebp+8], -2018212706 ; 87b4849eH
  00268	c7 45 dc 82 82
	80 b5		 mov	 DWORD PTR __k$518011[ebp+12], -1249869182 ; b5808282H
  0026f	c7 45 e0 80 8d
	93 b5		 mov	 DWORD PTR __k$518011[ebp+16], -1248621184 ; b5938d80H
  00276	8d 45 d0	 lea	 eax, DWORD PTR __k$518011[ebp]
  00279	c7 45 e4 8e 82
	9f 00		 mov	 DWORD PTR __k$518011[ebp+20], 10453646 ; 009f828eH
  00280	59		 pop	 ecx
$LL769@LoadProper@3:
  00281	81 30 ed ec eb
	ea		 xor	 DWORD PTR [eax], -353637139 ; eaebecedH
  00287	83 c0 04	 add	 eax, 4
  0028a	49		 dec	 ecx
  0028b	75 f4		 jne	 SHORT $LL769@LoadProper@3
  0028d	6a 14		 push	 20			; 00000014H
  0028f	5f		 pop	 edi
$LL766@LoadProper@3:
  00290	8b c7		 mov	 eax, edi
  00292	25 03 00 00 80	 and	 eax, -2147483645	; 80000003H
  00297	79 05		 jns	 SHORT $LN1524@LoadProper@3
  00299	48		 dec	 eax
  0029a	83 c8 fc	 or	 eax, -4			; fffffffcH
  0029d	40		 inc	 eax
$LN1524@LoadProper@3:
  0029e	b1 ed		 mov	 cl, -19			; ffffffedH
  002a0	2a c8		 sub	 cl, al
  002a2	30 4c 3d d0	 xor	 BYTE PTR __k$518011[ebp+edi], cl
  002a6	47		 inc	 edi
  002a7	83 ff 17	 cmp	 edi, 23			; 00000017H
  002aa	7c e4		 jl	 SHORT $LL766@LoadProper@3
  002ac	8b 8d a0 fe ff
	ff		 mov	 ecx, DWORD PTR _rkLoader$GSCopy$[ebp]
  002b2	6a 01		 push	 1
  002b4	8d 45 d0	 lea	 eax, DWORD PTR __k$518011[ebp]
  002b7	50		 push	 eax
  002b8	ff 15 00 00 00
	00		 call	 DWORD PTR __imp_?LoadInt@ioINILoader@@QAEHPBDH@Z

; 305  : 
; 306  : 	m_ExtraDashAttackList.clear();

  002be	8b 8e 40 02 00
	00		 mov	 ecx, DWORD PTR [esi+576]
  002c4	89 85 98 fe ff
	ff		 mov	 DWORD PTR _iMaxAttackCnt$[ebp], eax
  002ca	8b 86 44 02 00
	00		 mov	 eax, DWORD PTR [esi+580]
  002d0	50		 push	 eax
  002d1	51		 push	 ecx
  002d2	8d 85 9c fe ff
	ff		 lea	 eax, DWORD PTR $T518199[ebp]
  002d8	50		 push	 eax
  002d9	8d 8e 40 02 00
	00		 lea	 ecx, DWORD PTR [esi+576]
  002df	e8 00 00 00 00	 call	 ?erase@?$vector@UAttackAttribute@@V?$allocator@UAttackAttribute@@@std@@@std@@QAE?AV?$_Vector_iterator@V?$_Vector_val@UAttackAttribute@@V?$allocator@UAttackAttribute@@@std@@@std@@@2@V?$_Vector_const_iterator@V?$_Vector_val@UAttackAttribute@@V?$allocator@UAttackAttribute@@@std@@@std@@@2@0@Z ; std::vector<AttackAttribute,std::allocator<AttackAttribute> >::erase

; 307  : 	for( i=0; i < iMaxAttackCnt; i++ )

  002e4	89 9d 9c fe ff
	ff		 mov	 DWORD PTR _i$[ebp], ebx
  002ea	39 9d 98 fe ff
	ff		 cmp	 DWORD PTR _iMaxAttackCnt$[ebp], ebx
  002f0	0f 8e e6 00 00
	00		 jle	 $LN209@LoadProper@3
$LL211@LoadProper@3:

; 308  : 	{
; 309  : 		AttackAttribute kAttribute;

  002f6	8d 8d 48 fe ff
	ff		 lea	 ecx, DWORD PTR _kAttribute$507653[ebp]
  002fc	e8 00 00 00 00	 call	 ??0AttackAttribute@@QAE@XZ ; AttackAttribute::AttackAttribute
  00301	6a 06		 push	 6
  00303	c7 45 fc 01 00
	00 00		 mov	 DWORD PTR __$EHRec$[ebp+8], 1

; 310  : 
; 311  : 		wsprintf_e( szBuf, "extra_dash_monk_attack%d", i+1 );

  0030a	c7 45 ac 88 94
	9f 98		 mov	 DWORD PTR ___encStr$507657[ebp], -1734372216 ; 989f9488H
  00311	c7 45 b0 8c b3
	8f 8b		 mov	 DWORD PTR ___encStr$507657[ebp+4], -1953516660 ; 8b8fb38cH
  00318	c7 45 b4 9e 84
	b4 87		 mov	 DWORD PTR ___encStr$507657[ebp+8], -2018212706 ; 87b4849eH
  0031f	c7 45 b8 82 82
	80 b5		 mov	 DWORD PTR ___encStr$507657[ebp+12], -1249869182 ; b5808282H
  00326	c7 45 bc 8c 98
	9f 8b		 mov	 DWORD PTR ___encStr$507657[ebp+16], -1952474996 ; 8b9f988cH
  0032d	c7 45 c0 8e 87
	ce 8e		 mov	 DWORD PTR ___encStr$507657[ebp+20], -1899067506 ; 8ece878eH
  00334	8d 45 ac	 lea	 eax, DWORD PTR ___encStr$507657[ebp]
  00337	88 5d c4	 mov	 BYTE PTR ___encStr$507657[ebp+24], bl
  0033a	59		 pop	 ecx
$LL795@LoadProper@3:
  0033b	81 30 ed ec eb
	ea		 xor	 DWORD PTR [eax], -353637139 ; eaebecedH
  00341	83 c0 04	 add	 eax, 4
  00344	49		 dec	 ecx
  00345	75 f4		 jne	 SHORT $LL795@LoadProper@3
  00347	8b 85 9c fe ff
	ff		 mov	 eax, DWORD PTR _i$[ebp]
  0034d	40		 inc	 eax
  0034e	50		 push	 eax
  0034f	89 85 9c fe ff
	ff		 mov	 DWORD PTR tv9283[ebp], eax
  00355	8d 45 ac	 lea	 eax, DWORD PTR ___encStr$507657[ebp]
  00358	50		 push	 eax
  00359	8d 85 a4 fe ff
	ff		 lea	 eax, DWORD PTR _szBuf$[ebp]
  0035f	50		 push	 eax
  00360	ff 15 00 00 00
	00		 call	 DWORD PTR __imp__wsprintfA

; 312  : 		LoadAttackAttribute( szBuf, kAttribute, rkLoader );		

  00366	ff b5 a0 fe ff
	ff		 push	 DWORD PTR _rkLoader$GSCopy$[ebp]
  0036c	8d 85 48 fe ff
	ff		 lea	 eax, DWORD PTR _kAttribute$507653[ebp]
  00372	50		 push	 eax
  00373	8d 85 a4 fe ff
	ff		 lea	 eax, DWORD PTR _szBuf$[ebp]
  00379	50		 push	 eax
  0037a	e8 00 00 00 00	 call	 ?LoadAttackAttribute@@YAXPBDAAUAttackAttribute@@AAVioINILoader@@@Z ; LoadAttackAttribute
  0037f	83 c4 18	 add	 esp, 24			; 00000018H

; 313  : 		m_ExtraDashAttackList.push_back( kAttribute );

  00382	8d 85 48 fe ff
	ff		 lea	 eax, DWORD PTR _kAttribute$507653[ebp]
  00388	50		 push	 eax
  00389	8d 8e 40 02 00
	00		 lea	 ecx, DWORD PTR [esi+576]
  0038f	e8 00 00 00 00	 call	 ?push_back@?$vector@UAttackAttribute@@V?$allocator@UAttackAttribute@@@std@@@std@@QAEXABUAttackAttribute@@@Z ; std::vector<AttackAttribute,std::allocator<AttackAttribute> >::push_back

; 314  : 
; 315  : 		// Ani
; 316  : 		if( !pOwnerItem )

  00394	39 5d 0c	 cmp	 DWORD PTR _pOwnerItem$[ebp], ebx
  00397	75 1c		 jne	 SHORT $LN109@LoadProper@3

; 317  : 		{
; 318  : 			PrepareLoadingAnimation( kAttribute.m_AttackAnimation );

  00399	8d 85 48 fe ff
	ff		 lea	 eax, DWORD PTR _kAttribute$507653[ebp]
  0039f	50		 push	 eax
  003a0	8b ce		 mov	 ecx, esi
  003a2	e8 00 00 00 00	 call	 ?PrepareLoadingAnimation@ioFormalAttackGrp@@QAEXABVioHashString@@@Z ; ioFormalAttackGrp::PrepareLoadingAnimation

; 319  : 			PrepareLoadingAnimation( kAttribute.m_AttackEndAnimation );

  003a7	8d 85 5c fe ff
	ff		 lea	 eax, DWORD PTR _kAttribute$507653[ebp+20]
  003ad	50		 push	 eax
  003ae	8b ce		 mov	 ecx, esi
  003b0	e8 00 00 00 00	 call	 ?PrepareLoadingAnimation@ioFormalAttackGrp@@QAEXABVioHashString@@@Z ; ioFormalAttackGrp::PrepareLoadingAnimation
$LN109@LoadProper@3:

; 320  : 		}
; 321  : 	}

  003b5	83 4d fc ff	 or	 DWORD PTR __$EHRec$[ebp+8], -1
  003b9	8d 8d 48 fe ff
	ff		 lea	 ecx, DWORD PTR _kAttribute$507653[ebp]
  003bf	e8 00 00 00 00	 call	 ??1AttackAttribute@@QAE@XZ
  003c4	8b 85 9c fe ff
	ff		 mov	 eax, DWORD PTR tv9283[ebp]
  003ca	89 85 9c fe ff
	ff		 mov	 DWORD PTR _i$[ebp], eax
  003d0	3b 85 98 fe ff
	ff		 cmp	 eax, DWORD PTR _iMaxAttackCnt$[ebp]
  003d6	0f 8c 1a ff ff
	ff		 jl	 $LL211@LoadProper@3
$LN209@LoadProper@3:

; 322  : 
; 323  : 	// extraotherdash attack
; 324  : 	iMaxAttackCnt = rkLoader.LoadInt_e( "extra_other_dash_monk_max_cnt", 1 );

  003dc	6a 07		 push	 7
  003de	c7 45 cc 88 94
	9f 98		 mov	 DWORD PTR __k$518241[ebp], -1734372216 ; 989f9488H
  003e5	c7 45 d0 8c b3
	84 9e		 mov	 DWORD PTR __k$518241[ebp+4], -1635470452 ; 9e84b38cH
  003ec	c7 45 d4 85 89
	99 b5		 mov	 DWORD PTR __k$518241[ebp+8], -1248228987 ; b5998985H
  003f3	c7 45 d8 89 8d
	98 82		 mov	 DWORD PTR __k$518241[ebp+12], -2103931511 ; 82988d89H
  003fa	c7 45 dc b2 81
	84 84		 mov	 DWORD PTR __k$518241[ebp+16], -2071690830 ; 848481b2H
  00401	c7 45 e0 86 b3
	86 8b		 mov	 DWORD PTR __k$518241[ebp+20], -1954106490 ; 8b86b386H
  00408	c7 45 e4 95 b3
	88 84		 mov	 DWORD PTR __k$518241[ebp+24], -2071415915 ; 8488b395H
  0040f	8d 45 cc	 lea	 eax, DWORD PTR __k$518241[ebp]
  00412	66 c7 45 e8 99
	00		 mov	 WORD PTR __k$518241[ebp+28], 153 ; 00000099H
  00418	59		 pop	 ecx
$LL901@LoadProper@3:
  00419	81 30 ed ec eb
	ea		 xor	 DWORD PTR [eax], -353637139 ; eaebecedH
  0041f	83 c0 04	 add	 eax, 4
  00422	49		 dec	 ecx
  00423	75 f4		 jne	 SHORT $LL901@LoadProper@3
  00425	8b 8d a0 fe ff
	ff		 mov	 ecx, DWORD PTR _rkLoader$GSCopy$[ebp]
  0042b	80 75 e8 ed	 xor	 BYTE PTR __k$518241[ebp+28], -19 ; ffffffedH
  0042f	6a 01		 push	 1
  00431	8d 45 cc	 lea	 eax, DWORD PTR __k$518241[ebp]
  00434	50		 push	 eax
  00435	ff 15 00 00 00
	00		 call	 DWORD PTR __imp_?LoadInt@ioINILoader@@QAEHPBDH@Z

; 325  : 
; 326  : 	m_ExtraOtherDashAttackList.clear();

  0043b	8b 8e 50 02 00
	00		 mov	 ecx, DWORD PTR [esi+592]
  00441	89 85 98 fe ff
	ff		 mov	 DWORD PTR _iMaxAttackCnt$[ebp], eax
  00447	8b 86 54 02 00
	00		 mov	 eax, DWORD PTR [esi+596]
  0044d	50		 push	 eax
  0044e	51		 push	 ecx
  0044f	8d 85 9c fe ff
	ff		 lea	 eax, DWORD PTR $T518399[ebp]
  00455	50		 push	 eax
  00456	8d 8e 50 02 00
	00		 lea	 ecx, DWORD PTR [esi+592]
  0045c	e8 00 00 00 00	 call	 ?erase@?$vector@UAttackAttribute@@V?$allocator@UAttackAttribute@@@std@@@std@@QAE?AV?$_Vector_iterator@V?$_Vector_val@UAttackAttribute@@V?$allocator@UAttackAttribute@@@std@@@std@@@2@V?$_Vector_const_iterator@V?$_Vector_val@UAttackAttribute@@V?$allocator@UAttackAttribute@@@std@@@std@@@2@0@Z ; std::vector<AttackAttribute,std::allocator<AttackAttribute> >::erase

; 327  : 	for( i=0; i < iMaxAttackCnt; i++ )

  00461	89 9d 9c fe ff
	ff		 mov	 DWORD PTR _i$[ebp], ebx
  00467	39 9d 98 fe ff
	ff		 cmp	 DWORD PTR _iMaxAttackCnt$[ebp], ebx
  0046d	0f 8e 13 01 00
	00		 jle	 $LN106@LoadProper@3
$LL108@LoadProper@3:

; 328  : 	{
; 329  : 		AttackAttribute kAttribute;

  00473	8d 8d 48 fe ff
	ff		 lea	 ecx, DWORD PTR _kAttribute$507815[ebp]
  00479	e8 00 00 00 00	 call	 ??0AttackAttribute@@QAE@XZ ; AttackAttribute::AttackAttribute
  0047e	6a 07		 push	 7
  00480	c7 45 fc 02 00
	00 00		 mov	 DWORD PTR __$EHRec$[ebp+8], 2

; 330  : 
; 331  : 		wsprintf_e( szBuf, "extra_other_dash_monk_attack%d", i+1 );

  00487	c7 45 a8 88 94
	9f 98		 mov	 DWORD PTR ___encStr$507819[ebp], -1734372216 ; 989f9488H
  0048e	c7 45 ac 8c b3
	84 9e		 mov	 DWORD PTR ___encStr$507819[ebp+4], -1635470452 ; 9e84b38cH
  00495	c7 45 b0 85 89
	99 b5		 mov	 DWORD PTR ___encStr$507819[ebp+8], -1248228987 ; b5998985H
  0049c	c7 45 b4 89 8d
	98 82		 mov	 DWORD PTR ___encStr$507819[ebp+12], -2103931511 ; 82988d89H
  004a3	c7 45 b8 b2 81
	84 84		 mov	 DWORD PTR ___encStr$507819[ebp+16], -2071690830 ; 848481b2H
  004aa	c7 45 bc 86 b3
	8a 9e		 mov	 DWORD PTR ___encStr$507819[ebp+20], -1635077242 ; 9e8ab386H
  004b1	c7 45 c0 99 8d
	88 81		 mov	 DWORD PTR ___encStr$507819[ebp+24], -2121757287 ; 81888d99H
  004b8	66 c7 45 c4 c8
	88		 mov	 WORD PTR ___encStr$507819[ebp+28], 35016 ; 000088c8H
  004be	8d 45 a8	 lea	 eax, DWORD PTR ___encStr$507819[ebp]
  004c1	88 5d c6	 mov	 BYTE PTR ___encStr$507819[ebp+30], bl
  004c4	59		 pop	 ecx
$LL927@LoadProper@3:
  004c5	81 30 ed ec eb
	ea		 xor	 DWORD PTR [eax], -353637139 ; eaebecedH
  004cb	83 c0 04	 add	 eax, 4
  004ce	49		 dec	 ecx
  004cf	75 f4		 jne	 SHORT $LL927@LoadProper@3
  004d1	6a 1c		 push	 28			; 0000001cH
  004d3	58		 pop	 eax
$LL924@LoadProper@3:
  004d4	8b c8		 mov	 ecx, eax
  004d6	81 e1 03 00 00
	80		 and	 ecx, -2147483645	; 80000003H
  004dc	79 05		 jns	 SHORT $LN1525@LoadProper@3
  004de	49		 dec	 ecx
  004df	83 c9 fc	 or	 ecx, -4			; fffffffcH
  004e2	41		 inc	 ecx
$LN1525@LoadProper@3:
  004e3	b2 ed		 mov	 dl, -19			; ffffffedH
  004e5	2a d1		 sub	 dl, cl
  004e7	30 54 05 a8	 xor	 BYTE PTR ___encStr$507819[ebp+eax], dl
  004eb	40		 inc	 eax
  004ec	83 f8 1e	 cmp	 eax, 30			; 0000001eH
  004ef	7c e3		 jl	 SHORT $LL924@LoadProper@3
  004f1	8b 85 9c fe ff
	ff		 mov	 eax, DWORD PTR _i$[ebp]
  004f7	40		 inc	 eax
  004f8	50		 push	 eax
  004f9	89 85 9c fe ff
	ff		 mov	 DWORD PTR tv9283[ebp], eax
  004ff	8d 45 a8	 lea	 eax, DWORD PTR ___encStr$507819[ebp]
  00502	50		 push	 eax
  00503	8d 85 a4 fe ff
	ff		 lea	 eax, DWORD PTR _szBuf$[ebp]
  00509	50		 push	 eax
  0050a	ff 15 00 00 00
	00		 call	 DWORD PTR __imp__wsprintfA

; 332  : 		LoadAttackAttribute( szBuf, kAttribute, rkLoader );		

  00510	ff b5 a0 fe ff
	ff		 push	 DWORD PTR _rkLoader$GSCopy$[ebp]
  00516	8d 85 48 fe ff
	ff		 lea	 eax, DWORD PTR _kAttribute$507815[ebp]
  0051c	50		 push	 eax
  0051d	8d 85 a4 fe ff
	ff		 lea	 eax, DWORD PTR _szBuf$[ebp]
  00523	50		 push	 eax
  00524	e8 00 00 00 00	 call	 ?LoadAttackAttribute@@YAXPBDAAUAttackAttribute@@AAVioINILoader@@@Z ; LoadAttackAttribute
  00529	83 c4 18	 add	 esp, 24			; 00000018H

; 333  : 		m_ExtraOtherDashAttackList.push_back( kAttribute );

  0052c	8d 85 48 fe ff
	ff		 lea	 eax, DWORD PTR _kAttribute$507815[ebp]
  00532	50		 push	 eax
  00533	8d 8e 50 02 00
	00		 lea	 ecx, DWORD PTR [esi+592]
  00539	e8 00 00 00 00	 call	 ?push_back@?$vector@UAttackAttribute@@V?$allocator@UAttackAttribute@@@std@@@std@@QAEXABUAttackAttribute@@@Z ; std::vector<AttackAttribute,std::allocator<AttackAttribute> >::push_back

; 334  : 
; 335  : 		// Ani
; 336  : 		if( !pOwnerItem )

  0053e	39 5d 0c	 cmp	 DWORD PTR _pOwnerItem$[ebp], ebx
  00541	75 1c		 jne	 SHORT $LN6@LoadProper@3

; 337  : 		{
; 338  : 			PrepareLoadingAnimation( kAttribute.m_AttackAnimation );

  00543	8d 85 48 fe ff
	ff		 lea	 eax, DWORD PTR _kAttribute$507815[ebp]
  00549	50		 push	 eax
  0054a	8b ce		 mov	 ecx, esi
  0054c	e8 00 00 00 00	 call	 ?PrepareLoadingAnimation@ioFormalAttackGrp@@QAEXABVioHashString@@@Z ; ioFormalAttackGrp::PrepareLoadingAnimation

; 339  : 			PrepareLoadingAnimation( kAttribute.m_AttackEndAnimation );

  00551	8d 85 5c fe ff
	ff		 lea	 eax, DWORD PTR _kAttribute$507815[ebp+20]
  00557	50		 push	 eax
  00558	8b ce		 mov	 ecx, esi
  0055a	e8 00 00 00 00	 call	 ?PrepareLoadingAnimation@ioFormalAttackGrp@@QAEXABVioHashString@@@Z ; ioFormalAttackGrp::PrepareLoadingAnimation
$LN6@LoadProper@3:

; 340  : 		}
; 341  : 	}

  0055f	83 4d fc ff	 or	 DWORD PTR __$EHRec$[ebp+8], -1
  00563	8d 8d 48 fe ff
	ff		 lea	 ecx, DWORD PTR _kAttribute$507815[ebp]
  00569	e8 00 00 00 00	 call	 ??1AttackAttribute@@QAE@XZ
  0056e	8b 85 9c fe ff
	ff		 mov	 eax, DWORD PTR tv9283[ebp]
  00574	89 85 9c fe ff
	ff		 mov	 DWORD PTR _i$[ebp], eax
  0057a	3b 85 98 fe ff
	ff		 cmp	 eax, DWORD PTR _iMaxAttackCnt$[ebp]
  00580	0f 8c ed fe ff
	ff		 jl	 $LL108@LoadProper@3
$LN106@LoadProper@3:

; 342  : 
; 343  : 	// Jump Attack & Extend Jump Attack
; 344  : 	m_JumpAttack.Init();

  00586	8d be b0 00 00
	00		 lea	 edi, DWORD PTR [esi+176]
  0058c	8b cf		 mov	 ecx, edi
  0058e	e8 00 00 00 00	 call	 ?Init@AttackAttribute@@QAEXXZ ; AttackAttribute::Init
  00593	6a 04		 push	 4

; 345  : 	LoadAttackAttribute_e( "jump_monk_attack", m_JumpAttack, rkLoader );

  00595	c7 45 d8 87 99
	86 9a		 mov	 DWORD PTR _szEncAttack$518445[ebp], -1702454905 ; 9a869987H
  0059c	c7 45 dc b2 81
	84 84		 mov	 DWORD PTR _szEncAttack$518445[ebp+4], -2071690830 ; 848481b2H
  005a3	c7 45 e0 86 b3
	8a 9e		 mov	 DWORD PTR _szEncAttack$518445[ebp+8], -1635077242 ; 9e8ab386H
  005aa	c7 45 e4 99 8d
	88 81		 mov	 DWORD PTR _szEncAttack$518445[ebp+12], -2121757287 ; 81888d99H
  005b1	8d 45 d8	 lea	 eax, DWORD PTR _szEncAttack$518445[ebp]
  005b4	88 5d e8	 mov	 BYTE PTR _szEncAttack$518445[ebp+16], bl
  005b7	59		 pop	 ecx
$LL1033@LoadProper@3:
  005b8	81 30 ed ec eb
	ea		 xor	 DWORD PTR [eax], -353637139 ; eaebecedH
  005be	83 c0 04	 add	 eax, 4
  005c1	49		 dec	 ecx
  005c2	75 f4		 jne	 SHORT $LL1033@LoadProper@3
  005c4	ff b5 a0 fe ff
	ff		 push	 DWORD PTR _rkLoader$GSCopy$[ebp]
  005ca	8d 45 d8	 lea	 eax, DWORD PTR _szEncAttack$518445[ebp]
  005cd	57		 push	 edi
  005ce	50		 push	 eax
  005cf	e8 00 00 00 00	 call	 ?LoadAttackAttribute@@YAXPBDAAUAttackAttribute@@AAVioINILoader@@@Z ; LoadAttackAttribute
  005d4	83 c4 0c	 add	 esp, 12			; 0000000cH

; 346  : 	if( !pOwnerItem )

  005d7	39 5d 0c	 cmp	 DWORD PTR _pOwnerItem$[ebp], ebx
  005da	75 16		 jne	 SHORT $LN5@LoadProper@3

; 347  : 	{
; 348  : 		PrepareLoadingAnimation( m_JumpAttack.m_AttackAnimation );

  005dc	57		 push	 edi
  005dd	8b ce		 mov	 ecx, esi
  005df	e8 00 00 00 00	 call	 ?PrepareLoadingAnimation@ioFormalAttackGrp@@QAEXABVioHashString@@@Z ; ioFormalAttackGrp::PrepareLoadingAnimation

; 349  : 		PrepareLoadingAnimation( m_JumpAttack.m_AttackEndAnimation );

  005e4	8d 86 c4 00 00
	00		 lea	 eax, DWORD PTR [esi+196]
  005ea	50		 push	 eax
  005eb	8b ce		 mov	 ecx, esi
  005ed	e8 00 00 00 00	 call	 ?PrepareLoadingAnimation@ioFormalAttackGrp@@QAEXABVioHashString@@@Z ; ioFormalAttackGrp::PrepareLoadingAnimation
$LN5@LoadProper@3:

; 350  : 	}
; 351  : 
; 352  : 	m_ExtendJumpAttack.Init();

  005f2	8d be 00 01 00
	00		 lea	 edi, DWORD PTR [esi+256]
  005f8	8b cf		 mov	 ecx, edi
  005fa	e8 00 00 00 00	 call	 ?Init@AttackAttribute@@QAEXXZ ; AttackAttribute::Init
  005ff	6a 05		 push	 5

; 353  : 	LoadAttackAttribute_e( "extend_jump_monk_attack", m_ExtendJumpAttack, rkLoader );

  00601	c7 45 d0 88 94
	9f 8f		 mov	 DWORD PTR _szEncAttack$518570[ebp], -1885367160 ; 8f9f9488H
  00608	c7 45 d4 83 88
	b4 80		 mov	 DWORD PTR _szEncAttack$518570[ebp+4], -2135652221 ; 80b48883H
  0060f	c7 45 d8 98 81
	9b b5		 mov	 DWORD PTR _szEncAttack$518570[ebp+8], -1248099944 ; b59b8198H
  00616	c7 45 dc 80 83
	85 81		 mov	 DWORD PTR _szEncAttack$518570[ebp+12], -2121956480 ; 81858380H
  0061d	c7 45 e0 b2 8d
	9f 9e		 mov	 DWORD PTR _szEncAttack$518570[ebp+16], -1633710670 ; 9e9f8db2H
  00624	8d 45 d0	 lea	 eax, DWORD PTR _szEncAttack$518570[ebp]
  00627	c7 45 e4 8c 8f
	80 00		 mov	 DWORD PTR _szEncAttack$518570[ebp+20], 8425356 ; 00808f8cH
  0062e	59		 pop	 ecx
$LL1139@LoadProper@3:
  0062f	81 30 ed ec eb
	ea		 xor	 DWORD PTR [eax], -353637139 ; eaebecedH
  00635	83 c0 04	 add	 eax, 4
  00638	49		 dec	 ecx
  00639	75 f4		 jne	 SHORT $LL1139@LoadProper@3
  0063b	6a 14		 push	 20			; 00000014H
  0063d	58		 pop	 eax
$LL1136@LoadProper@3:
  0063e	8b c8		 mov	 ecx, eax
  00640	81 e1 03 00 00
	80		 and	 ecx, -2147483645	; 80000003H
  00646	79 05		 jns	 SHORT $LN1526@LoadProper@3
  00648	49		 dec	 ecx
  00649	83 c9 fc	 or	 ecx, -4			; fffffffcH
  0064c	41		 inc	 ecx
$LN1526@LoadProper@3:
  0064d	b2 ed		 mov	 dl, -19			; ffffffedH
  0064f	2a d1		 sub	 dl, cl
  00651	30 54 05 d0	 xor	 BYTE PTR _szEncAttack$518570[ebp+eax], dl
  00655	40		 inc	 eax
  00656	83 f8 17	 cmp	 eax, 23			; 00000017H
  00659	7c e3		 jl	 SHORT $LL1136@LoadProper@3
  0065b	ff b5 a0 fe ff
	ff		 push	 DWORD PTR _rkLoader$GSCopy$[ebp]
  00661	8d 45 d0	 lea	 eax, DWORD PTR _szEncAttack$518570[ebp]
  00664	57		 push	 edi
  00665	50		 push	 eax
  00666	e8 00 00 00 00	 call	 ?LoadAttackAttribute@@YAXPBDAAUAttackAttribute@@AAVioINILoader@@@Z ; LoadAttackAttribute
  0066b	83 c4 0c	 add	 esp, 12			; 0000000cH

; 354  : 	if( !pOwnerItem )

  0066e	39 5d 0c	 cmp	 DWORD PTR _pOwnerItem$[ebp], ebx
  00671	75 16		 jne	 SHORT $LN4@LoadProper@3

; 355  : 	{
; 356  : 		PrepareLoadingAnimation( m_ExtendJumpAttack.m_AttackAnimation );

  00673	57		 push	 edi
  00674	8b ce		 mov	 ecx, esi
  00676	e8 00 00 00 00	 call	 ?PrepareLoadingAnimation@ioFormalAttackGrp@@QAEXABVioHashString@@@Z ; ioFormalAttackGrp::PrepareLoadingAnimation

; 357  : 		PrepareLoadingAnimation( m_ExtendJumpAttack.m_AttackEndAnimation );

  0067b	8d 86 14 01 00
	00		 lea	 eax, DWORD PTR [esi+276]
  00681	50		 push	 eax
  00682	8b ce		 mov	 ecx, esi
  00684	e8 00 00 00 00	 call	 ?PrepareLoadingAnimation@ioFormalAttackGrp@@QAEXABVioHashString@@@Z ; ioFormalAttackGrp::PrepareLoadingAnimation
$LN4@LoadProper@3:

; 358  : 	}
; 359  : 
; 360  : 	m_LandJumpAttack.Init();

  00689	8d be 50 01 00
	00		 lea	 edi, DWORD PTR [esi+336]
  0068f	8b cf		 mov	 ecx, edi
  00691	e8 00 00 00 00	 call	 ?Init@AttackAttribute@@QAEXXZ ; AttackAttribute::Init
  00696	6a 05		 push	 5

; 361  : 	LoadAttackAttribute_e( "land_jump_monk_attack", m_LandJumpAttack, rkLoader );

  00698	c7 45 d4 81 8d
	85 8e		 mov	 DWORD PTR _szEncAttack$518754[ebp], -1903850111 ; 8e858d81H
  0069f	c7 45 d8 b2 86
	9e 87		 mov	 DWORD PTR _szEncAttack$518754[ebp+4], -2019653966 ; 879e86b2H
  006a6	c7 45 dc 9d b3
	86 85		 mov	 DWORD PTR _szEncAttack$518754[ebp+8], -2054769763 ; 8586b39dH
  006ad	c7 45 e0 83 87
	b4 8b		 mov	 DWORD PTR _szEncAttack$518754[ebp+12], -1951103101 ; 8bb48783H
  006b4	c7 45 e4 99 98
	8a 89		 mov	 DWORD PTR _szEncAttack$518754[ebp+16], -1987405671 ; 898a9899H
  006bb	8d 45 d4	 lea	 eax, DWORD PTR _szEncAttack$518754[ebp]
  006be	66 c7 45 e8 86
	00		 mov	 WORD PTR _szEncAttack$518754[ebp+20], 134 ; 00000086H
  006c4	59		 pop	 ecx
$LL1245@LoadProper@3:
  006c5	81 30 ed ec eb
	ea		 xor	 DWORD PTR [eax], -353637139 ; eaebecedH
  006cb	83 c0 04	 add	 eax, 4
  006ce	49		 dec	 ecx
  006cf	75 f4		 jne	 SHORT $LL1245@LoadProper@3
  006d1	ff b5 a0 fe ff
	ff		 push	 DWORD PTR _rkLoader$GSCopy$[ebp]
  006d7	80 75 e8 ed	 xor	 BYTE PTR _szEncAttack$518754[ebp+20], -19 ; ffffffedH
  006db	8d 45 d4	 lea	 eax, DWORD PTR _szEncAttack$518754[ebp]
  006de	57		 push	 edi
  006df	50		 push	 eax
  006e0	e8 00 00 00 00	 call	 ?LoadAttackAttribute@@YAXPBDAAUAttackAttribute@@AAVioINILoader@@@Z ; LoadAttackAttribute
  006e5	83 c4 0c	 add	 esp, 12			; 0000000cH

; 362  : 	if( !pOwnerItem )

  006e8	39 5d 0c	 cmp	 DWORD PTR _pOwnerItem$[ebp], ebx
  006eb	75 16		 jne	 SHORT $LN3@LoadProper@3

; 363  : 	{
; 364  : 		PrepareLoadingAnimation( m_LandJumpAttack.m_AttackAnimation );

  006ed	57		 push	 edi
  006ee	8b ce		 mov	 ecx, esi
  006f0	e8 00 00 00 00	 call	 ?PrepareLoadingAnimation@ioFormalAttackGrp@@QAEXABVioHashString@@@Z ; ioFormalAttackGrp::PrepareLoadingAnimation

; 365  : 		PrepareLoadingAnimation( m_LandJumpAttack.m_AttackEndAnimation );

  006f5	8d 86 64 01 00
	00		 lea	 eax, DWORD PTR [esi+356]
  006fb	50		 push	 eax
  006fc	8b ce		 mov	 ecx, esi
  006fe	e8 00 00 00 00	 call	 ?PrepareLoadingAnimation@ioFormalAttackGrp@@QAEXABVioHashString@@@Z ; ioFormalAttackGrp::PrepareLoadingAnimation
$LN3@LoadProper@3:

; 366  : 	}
; 367  : 
; 368  : 	m_ExtendLandJumpAttack.Init();

  00703	8d be a0 01 00
	00		 lea	 edi, DWORD PTR [esi+416]
  00709	8b cf		 mov	 ecx, edi
  0070b	e8 00 00 00 00	 call	 ?Init@AttackAttribute@@QAEXXZ ; AttackAttribute::Init
  00710	6a 07		 push	 7

; 369  : 	LoadAttackAttribute_e( "extend_land_jump_monk_attack", m_ExtendLandJumpAttack, rkLoader );

  00712	c7 45 cc 88 94
	9f 8f		 mov	 DWORD PTR _szEncAttack$518820[ebp], -1885367160 ; 8f9f9488H
  00719	c7 45 d0 83 88
	b4 86		 mov	 DWORD PTR _szEncAttack$518820[ebp+4], -2034988925 ; 86b48883H
  00720	c7 45 d4 8c 82
	8f b5		 mov	 DWORD PTR _szEncAttack$518820[ebp+8], -1248886132 ; b58f828cH
  00727	c7 45 d8 87 99
	86 9a		 mov	 DWORD PTR _szEncAttack$518820[ebp+12], -1702454905 ; 9a869987H
  0072e	c7 45 dc b2 81
	84 84		 mov	 DWORD PTR _szEncAttack$518820[ebp+16], -2071690830 ; 848481b2H
  00735	c7 45 e0 86 b3
	8a 9e		 mov	 DWORD PTR _szEncAttack$518820[ebp+20], -1635077242 ; 9e8ab386H
  0073c	c7 45 e4 99 8d
	88 81		 mov	 DWORD PTR _szEncAttack$518820[ebp+24], -2121757287 ; 81888d99H
  00743	8d 45 cc	 lea	 eax, DWORD PTR _szEncAttack$518820[ebp]
  00746	88 5d e8	 mov	 BYTE PTR _szEncAttack$518820[ebp+28], bl
  00749	59		 pop	 ecx
$LL1351@LoadProper@3:
  0074a	81 30 ed ec eb
	ea		 xor	 DWORD PTR [eax], -353637139 ; eaebecedH
  00750	83 c0 04	 add	 eax, 4
  00753	49		 dec	 ecx
  00754	75 f4		 jne	 SHORT $LL1351@LoadProper@3
  00756	ff b5 a0 fe ff
	ff		 push	 DWORD PTR _rkLoader$GSCopy$[ebp]
  0075c	8d 45 cc	 lea	 eax, DWORD PTR _szEncAttack$518820[ebp]
  0075f	57		 push	 edi
  00760	50		 push	 eax
  00761	e8 00 00 00 00	 call	 ?LoadAttackAttribute@@YAXPBDAAUAttackAttribute@@AAVioINILoader@@@Z ; LoadAttackAttribute
  00766	83 c4 0c	 add	 esp, 12			; 0000000cH

; 370  : 	if( !pOwnerItem )

  00769	39 5d 0c	 cmp	 DWORD PTR _pOwnerItem$[ebp], ebx
  0076c	75 16		 jne	 SHORT $LN2@LoadProper@3

; 371  : 	{
; 372  : 		PrepareLoadingAnimation( m_ExtendLandJumpAttack.m_AttackAnimation );

  0076e	57		 push	 edi
  0076f	8b ce		 mov	 ecx, esi
  00771	e8 00 00 00 00	 call	 ?PrepareLoadingAnimation@ioFormalAttackGrp@@QAEXABVioHashString@@@Z ; ioFormalAttackGrp::PrepareLoadingAnimation

; 373  : 		PrepareLoadingAnimation( m_ExtendLandJumpAttack.m_AttackEndAnimation );

  00776	8d 86 b4 01 00
	00		 lea	 eax, DWORD PTR [esi+436]
  0077c	50		 push	 eax
  0077d	8b ce		 mov	 ecx, esi
  0077f	e8 00 00 00 00	 call	 ?PrepareLoadingAnimation@ioFormalAttackGrp@@QAEXABVioHashString@@@Z ; ioFormalAttackGrp::PrepareLoadingAnimation
$LN2@LoadProper@3:

; 374  : 	}
; 375  : 
; 376  : 	m_HighJumpAttack.Init();

  00784	8d be f0 01 00
	00		 lea	 edi, DWORD PTR [esi+496]
  0078a	8b cf		 mov	 ecx, edi
  0078c	e8 00 00 00 00	 call	 ?Init@AttackAttribute@@QAEXXZ ; AttackAttribute::Init
  00791	6a 05		 push	 5

; 377  : 	LoadAttackAttribute_e( "high_jump_monk_attack", m_HighJumpAttack, rkLoader );

  00793	c7 45 b0 85 85
	8c 82		 mov	 DWORD PTR _szEncAttack$519004[ebp], -2104719995 ; 828c8585H
  0079a	c7 45 b4 b2 86
	9e 87		 mov	 DWORD PTR _szEncAttack$519004[ebp+4], -2019653966 ; 879e86b2H
  007a1	c7 45 b8 9d b3
	86 85		 mov	 DWORD PTR _szEncAttack$519004[ebp+8], -2054769763 ; 8586b39dH
  007a8	c7 45 bc 83 87
	b4 8b		 mov	 DWORD PTR _szEncAttack$519004[ebp+12], -1951103101 ; 8bb48783H
  007af	c7 45 c0 99 98
	8a 89		 mov	 DWORD PTR _szEncAttack$519004[ebp+16], -1987405671 ; 898a9899H
  007b6	8d 45 b0	 lea	 eax, DWORD PTR _szEncAttack$519004[ebp]
  007b9	66 c7 45 c4 86
	00		 mov	 WORD PTR _szEncAttack$519004[ebp+20], 134 ; 00000086H
  007bf	59		 pop	 ecx
$LL1457@LoadProper@3:
  007c0	81 30 ed ec eb
	ea		 xor	 DWORD PTR [eax], -353637139 ; eaebecedH
  007c6	83 c0 04	 add	 eax, 4
  007c9	49		 dec	 ecx
  007ca	75 f4		 jne	 SHORT $LL1457@LoadProper@3
  007cc	ff b5 a0 fe ff
	ff		 push	 DWORD PTR _rkLoader$GSCopy$[ebp]
  007d2	80 75 c4 ed	 xor	 BYTE PTR _szEncAttack$519004[ebp+20], -19 ; ffffffedH
  007d6	8d 45 b0	 lea	 eax, DWORD PTR _szEncAttack$519004[ebp]
  007d9	57		 push	 edi
  007da	50		 push	 eax
  007db	e8 00 00 00 00	 call	 ?LoadAttackAttribute@@YAXPBDAAUAttackAttribute@@AAVioINILoader@@@Z ; LoadAttackAttribute
  007e0	83 c4 0c	 add	 esp, 12			; 0000000cH

; 378  : 	if( !pOwnerItem )

  007e3	39 5d 0c	 cmp	 DWORD PTR _pOwnerItem$[ebp], ebx
  007e6	75 16		 jne	 SHORT $LN1@LoadProper@3

; 379  : 	{
; 380  : 		PrepareLoadingAnimation( m_HighJumpAttack.m_AttackAnimation );

  007e8	57		 push	 edi
  007e9	8b ce		 mov	 ecx, esi
  007eb	e8 00 00 00 00	 call	 ?PrepareLoadingAnimation@ioFormalAttackGrp@@QAEXABVioHashString@@@Z ; ioFormalAttackGrp::PrepareLoadingAnimation

; 381  : 		PrepareLoadingAnimation( m_HighJumpAttack.m_AttackEndAnimation );

  007f0	8d 86 04 02 00
	00		 lea	 eax, DWORD PTR [esi+516]
  007f6	50		 push	 eax
  007f7	8b ce		 mov	 ecx, esi
  007f9	e8 00 00 00 00	 call	 ?PrepareLoadingAnimation@ioFormalAttackGrp@@QAEXABVioHashString@@@Z ; ioFormalAttackGrp::PrepareLoadingAnimation
$LN1@LoadProper@3:

; 382  : 	}
; 383  : }

  007fe	e8 00 00 00 00	 call	 __EH_epilog3_GS
  00803	c2 08 00	 ret	 8
_TEXT	ENDS
;	COMDAT text$x
text$x	SEGMENT
__unwindfunclet$?LoadProperty_Only_Monk@ioFormalAttackGrp@@QAEXAAVioINILoader@@PAVioItem@@@Z$0:
  00000	8d 8d 48 fe ff
	ff		 lea	 ecx, DWORD PTR _kAttribute$507487[ebp]
  00006	e9 00 00 00 00	 jmp	 ??1AttackAttribute@@QAE@XZ
__unwindfunclet$?LoadProperty_Only_Monk@ioFormalAttackGrp@@QAEXAAVioINILoader@@PAVioItem@@@Z$1:
  0000b	8d 8d 48 fe ff
	ff		 lea	 ecx, DWORD PTR _kAttribute$507653[ebp]
  00011	e9 00 00 00 00	 jmp	 ??1AttackAttribute@@QAE@XZ
__unwindfunclet$?LoadProperty_Only_Monk@ioFormalAttackGrp@@QAEXAAVioINILoader@@PAVioItem@@@Z$2:
  00016	8d 8d 48 fe ff
	ff		 lea	 ecx, DWORD PTR _kAttribute$507815[ebp]
  0001c	e9 00 00 00 00	 jmp	 ??1AttackAttribute@@QAE@XZ
__ehhandler$?LoadProperty_Only_Monk@ioFormalAttackGrp@@QAEXAAVioINILoader@@PAVioItem@@@Z:
  00021	8b 54 24 08	 mov	 edx, DWORD PTR [esp+8]
  00025	8d 42 0c	 lea	 eax, DWORD PTR [edx+12]
  00028	8b 8a 44 fe ff
	ff		 mov	 ecx, DWORD PTR [edx-444]
  0002e	33 c8		 xor	 ecx, eax
  00030	e8 00 00 00 00	 call	 @__security_check_cookie@4
  00035	8b 4a fc	 mov	 ecx, DWORD PTR [edx-4]
  00038	33 c8		 xor	 ecx, eax
  0003a	e8 00 00 00 00	 call	 @__security_check_cookie@4
  0003f	b8 00 00 00 00	 mov	 eax, OFFSET __ehfuncinfo$?LoadProperty_Only_Monk@ioFormalAttackGrp@@QAEXAAVioINILoader@@PAVioItem@@@Z
  00044	e9 00 00 00 00	 jmp	 ___CxxFrameHandler3
text$x	ENDS
?LoadProperty_Only_Monk@ioFormalAttackGrp@@QAEXAAVioINILoader@@PAVioItem@@@Z ENDP ; ioFormalAttackGrp::LoadProperty_Only_Monk
; Function compile flags: /Ogsp
;	COMDAT ??__FvForceEmptyList@?3??GetForceInfoList@ioFormalAttackGrp@@QBEABV?$vector@UForceInfo@@V?$allocator@UForceInfo@@@std@@@std@@W4AttackType@@H@Z@YAXXZ
text$yd	SEGMENT
??__FvForceEmptyList@?3??GetForceInfoList@ioFormalAttackGrp@@QBEABV?$vector@UForceInfo@@V?$allocator@UForceInfo@@@std@@@std@@W4AttackType@@H@Z@YAXXZ PROC ; `ioFormalAttackGrp::GetForceInfoList'::`4'::`dynamic atexit destructor for 'vForceEmptyList'', COMDAT
  00000	b9 00 00 00 00	 mov	 ecx, OFFSET ?vForceEmptyList@?3??GetForceInfoList@ioFormalAttackGrp@@QBEABV?$vector@UForceInfo@@V?$allocator@UForceInfo@@@std@@@std@@W4AttackType@@H@Z@4V34@A
  00005	e9 00 00 00 00	 jmp	 ?_Tidy@?$vector@UForceInfo@@V?$allocator@UForceInfo@@@std@@@std@@IAEXXZ ; std::vector<ForceInfo,std::allocator<ForceInfo> >::_Tidy
??__FvForceEmptyList@?3??GetForceInfoList@ioFormalAttackGrp@@QBEABV?$vector@UForceInfo@@V?$allocator@UForceInfo@@@std@@@std@@W4AttackType@@H@Z@YAXXZ ENDP ; `ioFormalAttackGrp::GetForceInfoList'::`4'::`dynamic atexit destructor for 'vForceEmptyList''
; Function compile flags: /Ogsp
text$yd	ENDS
;	COMDAT ??__FvEmtpyList@?3??GetAttackAttributeIdx@ioFormalAttackGrp@@QBEABV?$vector@UWeaponInfo@@V?$allocator@UWeaponInfo@@@std@@@std@@W4AttackType@@H@Z@YAXXZ
text$yd	SEGMENT
??__FvEmtpyList@?3??GetAttackAttributeIdx@ioFormalAttackGrp@@QBEABV?$vector@UWeaponInfo@@V?$allocator@UWeaponInfo@@@std@@@std@@W4AttackType@@H@Z@YAXXZ PROC ; `ioFormalAttackGrp::GetAttackAttributeIdx'::`4'::`dynamic atexit destructor for 'vEmtpyList'', COMDAT
  00000	b9 00 00 00 00	 mov	 ecx, OFFSET ?vEmtpyList@?3??GetAttackAttributeIdx@ioFormalAttackGrp@@QBEABV?$vector@UWeaponInfo@@V?$allocator@UWeaponInfo@@@std@@@std@@W4AttackType@@H@Z@4V34@A
  00005	e9 00 00 00 00	 jmp	 ?_Tidy@?$vector@UWeaponInfo@@V?$allocator@UWeaponInfo@@@std@@@std@@IAEXXZ ; std::vector<WeaponInfo,std::allocator<WeaponInfo> >::_Tidy
??__FvEmtpyList@?3??GetAttackAttributeIdx@ioFormalAttackGrp@@QBEABV?$vector@UWeaponInfo@@V?$allocator@UWeaponInfo@@@std@@@std@@W4AttackType@@H@Z@YAXXZ ENDP ; `ioFormalAttackGrp::GetAttackAttributeIdx'::`4'::`dynamic atexit destructor for 'vEmtpyList''
text$yd	ENDS
END
