; Listing generated by Microsoft (R) Optimizing Compiler Version 16.00.30319.01 

	TITLE	D:\Lost Saga For Developer\Youtube\Tutorial\Source\src\LSClient\ioFullShotSkill.cpp
	.686P
	.XMM
	include listing.inc
	.model	flat

INCLUDELIB MSVCRT
INCLUDELIB OLDNAMES

PUBLIC	?return1@@YAIXZ					; return1
; Function compile flags: /Ogsp
; File d:\lost saga for developer\youtube\tutorial\source\src\lsclient\stdafx.h
;	COMDAT ?return1@@YAIXZ
_TEXT	SEGMENT
?return1@@YAIXZ PROC					; return1, COMDAT

; 17   : 	__forceinline unsigned int return1() { __asm mov eax, 1 };

  00000	b8 01 00 00 00	 mov	 eax, 1
  00005	c3		 ret	 0
?return1@@YAIXZ ENDP					; return1
_TEXT	ENDS
PUBLIC	?return5@@YAIXZ					; return5
; Function compile flags: /Ogsp
;	COMDAT ?return5@@YAIXZ
_TEXT	SEGMENT
?return5@@YAIXZ PROC					; return5, COMDAT

; 18   : 	__forceinline unsigned int return5() { __asm mov eax, 5 };

  00000	b8 05 00 00 00	 mov	 eax, 5
  00005	c3		 ret	 0
?return5@@YAIXZ ENDP					; return5
_TEXT	ENDS
PUBLIC	?return10@@YAIXZ				; return10
; Function compile flags: /Ogsp
;	COMDAT ?return10@@YAIXZ
_TEXT	SEGMENT
?return10@@YAIXZ PROC					; return10, COMDAT

; 21   : 	__forceinline unsigned int return10() { __asm mov eax, 10 };

  00000	b8 0a 00 00 00	 mov	 eax, 10			; 0000000aH
  00005	c3		 ret	 0
?return10@@YAIXZ ENDP					; return10
_TEXT	ENDS
PUBLIC	?return360@@YAIXZ				; return360
; Function compile flags: /Ogsp
;	COMDAT ?return360@@YAIXZ
_TEXT	SEGMENT
?return360@@YAIXZ PROC					; return360, COMDAT

; 27   : 	__forceinline unsigned int return360() { __asm mov eax, 360 };

  00000	b8 68 01 00 00	 mov	 eax, 360		; 00000168H
  00005	c3		 ret	 0
?return360@@YAIXZ ENDP					; return360
_TEXT	ENDS
PUBLIC	?GetCharName@ioBaseChar@@QBEABVioHashString@@XZ	; ioBaseChar::GetCharName
; Function compile flags: /Ogsp
; File d:\lost saga for developer\youtube\tutorial\source\src\lsclient\iobasechar.h
;	COMDAT ?GetCharName@ioBaseChar@@QBEABVioHashString@@XZ
_TEXT	SEGMENT
?GetCharName@ioBaseChar@@QBEABVioHashString@@XZ PROC	; ioBaseChar::GetCharName, COMDAT
; _this$ = ecx

; 2594 : 	inline const ioHashString& GetCharName() const { return m_Name; }

  00000	8d 81 d4 02 00
	00		 lea	 eax, DWORD PTR [ecx+724]
  00006	c3		 ret	 0
?GetCharName@ioBaseChar@@QBEABVioHashString@@XZ ENDP	; ioBaseChar::GetCharName
_TEXT	ENDS
PUBLIC	?GetMoveDir@ioBaseChar@@QBEABUD3DXVECTOR3@@XZ	; ioBaseChar::GetMoveDir
; Function compile flags: /Ogsp
;	COMDAT ?GetMoveDir@ioBaseChar@@QBEABUD3DXVECTOR3@@XZ
_TEXT	SEGMENT
?GetMoveDir@ioBaseChar@@QBEABUD3DXVECTOR3@@XZ PROC	; ioBaseChar::GetMoveDir, COMDAT
; _this$ = ecx

; 2596 : 	inline const D3DXVECTOR3& GetMoveDir() const { return m_vMoveDir; }

  00000	8d 81 b4 06 00
	00		 lea	 eax, DWORD PTR [ecx+1716]
  00006	c3		 ret	 0
?GetMoveDir@ioBaseChar@@QBEABUD3DXVECTOR3@@XZ ENDP	; ioBaseChar::GetMoveDir
_TEXT	ENDS
PUBLIC	?GetTargetRot@ioBaseChar@@QBEABUD3DXQUATERNION@@XZ ; ioBaseChar::GetTargetRot
; Function compile flags: /Ogsp
;	COMDAT ?GetTargetRot@ioBaseChar@@QBEABUD3DXQUATERNION@@XZ
_TEXT	SEGMENT
?GetTargetRot@ioBaseChar@@QBEABUD3DXQUATERNION@@XZ PROC	; ioBaseChar::GetTargetRot, COMDAT
; _this$ = ecx

; 2599 : 	inline const D3DXQUATERNION& GetTargetRot() const { return m_qtTargetRot; }

  00000	8d 81 a4 06 00
	00		 lea	 eax, DWORD PTR [ecx+1700]
  00006	c3		 ret	 0
?GetTargetRot@ioBaseChar@@QBEABUD3DXQUATERNION@@XZ ENDP	; ioBaseChar::GetTargetRot
_TEXT	ENDS
PUBLIC	?SetCurJumpPowerAmt@ioBaseChar@@QAEXM@Z		; ioBaseChar::SetCurJumpPowerAmt
EXTRN	__fltused:DWORD
; Function compile flags: /Ogsp
;	COMDAT ?SetCurJumpPowerAmt@ioBaseChar@@QAEXM@Z
_TEXT	SEGMENT
_fAmt$ = 8						; size = 4
?SetCurJumpPowerAmt@ioBaseChar@@QAEXM@Z PROC		; ioBaseChar::SetCurJumpPowerAmt, COMDAT
; _this$ = ecx

; 2628 : 	inline void SetCurJumpPowerAmt( float fAmt ) { m_fCurJumpPowerAmt = fAmt; }

  00000	55		 push	 ebp
  00001	8b ec		 mov	 ebp, esp
  00003	f3 0f 10 45 08	 movss	 xmm0, DWORD PTR _fAmt$[ebp]
  00008	f3 0f 11 81 90
	0e 00 00	 movss	 DWORD PTR [ecx+3728], xmm0
  00010	5d		 pop	 ebp
  00011	c2 04 00	 ret	 4
?SetCurJumpPowerAmt@ioBaseChar@@QAEXM@Z ENDP		; ioBaseChar::SetCurJumpPowerAmt
_TEXT	ENDS
PUBLIC	??_7bad_alloc@std@@6B@				; std::bad_alloc::`vftable'
PUBLIC	??0bad_alloc@std@@QAE@PBD@Z			; std::bad_alloc::bad_alloc
PUBLIC	??_R4bad_alloc@std@@6B@				; std::bad_alloc::`RTTI Complete Object Locator'
PUBLIC	??_R0?AVbad_alloc@std@@@8			; std::bad_alloc `RTTI Type Descriptor'
PUBLIC	??_R3bad_alloc@std@@8				; std::bad_alloc::`RTTI Class Hierarchy Descriptor'
PUBLIC	??_R2bad_alloc@std@@8				; std::bad_alloc::`RTTI Base Class Array'
PUBLIC	??_R1A@?0A@EA@bad_alloc@std@@8			; std::bad_alloc::`RTTI Base Class Descriptor at (0,-1,0,64)'
PUBLIC	??_R1A@?0A@EA@exception@std@@8			; std::exception::`RTTI Base Class Descriptor at (0,-1,0,64)'
PUBLIC	??_R0?AVexception@std@@@8			; std::exception `RTTI Type Descriptor'
PUBLIC	??_R3exception@std@@8				; std::exception::`RTTI Class Hierarchy Descriptor'
PUBLIC	??_R2exception@std@@8				; std::exception::`RTTI Base Class Array'
EXTRN	__imp_??0exception@std@@QAE@ABQBD@Z:PROC
EXTRN	??_7type_info@@6B@:QWORD			; type_info::`vftable'
EXTRN	??_Ebad_alloc@std@@UAEPAXI@Z:PROC		; std::bad_alloc::`vector deleting destructor'
EXTRN	?what@exception@std@@UBEPBDXZ:PROC		; std::exception::what
;	COMDAT ??_R2exception@std@@8
; File c:\program files (x86)\microsoft visual studio 10.0\vc\include\exception
rdata$r	SEGMENT
??_R2exception@std@@8 DD FLAT:??_R1A@?0A@EA@exception@std@@8 ; std::exception::`RTTI Base Class Array'
rdata$r	ENDS
;	COMDAT ??_R3exception@std@@8
rdata$r	SEGMENT
??_R3exception@std@@8 DD 00H				; std::exception::`RTTI Class Hierarchy Descriptor'
	DD	00H
	DD	01H
	DD	FLAT:??_R2exception@std@@8
rdata$r	ENDS
;	COMDAT ??_R0?AVexception@std@@@8
_DATA	SEGMENT
??_R0?AVexception@std@@@8 DD FLAT:??_7type_info@@6B@	; std::exception `RTTI Type Descriptor'
	DD	00H
	DB	'.?AVexception@std@@', 00H
_DATA	ENDS
;	COMDAT ??_R1A@?0A@EA@exception@std@@8
rdata$r	SEGMENT
??_R1A@?0A@EA@exception@std@@8 DD FLAT:??_R0?AVexception@std@@@8 ; std::exception::`RTTI Base Class Descriptor at (0,-1,0,64)'
	DD	00H
	DD	00H
	DD	0ffffffffH
	DD	00H
	DD	040H
	DD	FLAT:??_R3exception@std@@8
rdata$r	ENDS
;	COMDAT ??_R1A@?0A@EA@bad_alloc@std@@8
rdata$r	SEGMENT
??_R1A@?0A@EA@bad_alloc@std@@8 DD FLAT:??_R0?AVbad_alloc@std@@@8 ; std::bad_alloc::`RTTI Base Class Descriptor at (0,-1,0,64)'
	DD	01H
	DD	00H
	DD	0ffffffffH
	DD	00H
	DD	040H
	DD	FLAT:??_R3bad_alloc@std@@8
rdata$r	ENDS
;	COMDAT ??_R2bad_alloc@std@@8
rdata$r	SEGMENT
??_R2bad_alloc@std@@8 DD FLAT:??_R1A@?0A@EA@bad_alloc@std@@8 ; std::bad_alloc::`RTTI Base Class Array'
	DD	FLAT:??_R1A@?0A@EA@exception@std@@8
rdata$r	ENDS
;	COMDAT ??_R3bad_alloc@std@@8
rdata$r	SEGMENT
??_R3bad_alloc@std@@8 DD 00H				; std::bad_alloc::`RTTI Class Hierarchy Descriptor'
	DD	00H
	DD	02H
	DD	FLAT:??_R2bad_alloc@std@@8
rdata$r	ENDS
;	COMDAT ??_R0?AVbad_alloc@std@@@8
_DATA	SEGMENT
??_R0?AVbad_alloc@std@@@8 DD FLAT:??_7type_info@@6B@	; std::bad_alloc `RTTI Type Descriptor'
	DD	00H
	DB	'.?AVbad_alloc@std@@', 00H
_DATA	ENDS
;	COMDAT ??_R4bad_alloc@std@@6B@
rdata$r	SEGMENT
??_R4bad_alloc@std@@6B@ DD 00H				; std::bad_alloc::`RTTI Complete Object Locator'
	DD	00H
	DD	00H
	DD	FLAT:??_R0?AVbad_alloc@std@@@8
	DD	FLAT:??_R3bad_alloc@std@@8
rdata$r	ENDS
;	COMDAT ??_7bad_alloc@std@@6B@
CONST	SEGMENT
??_7bad_alloc@std@@6B@ DD FLAT:??_R4bad_alloc@std@@6B@	; std::bad_alloc::`vftable'
	DD	FLAT:??_Ebad_alloc@std@@UAEPAXI@Z
	DD	FLAT:?what@exception@std@@UBEPBDXZ
; Function compile flags: /Ogsp
CONST	ENDS
;	COMDAT ??0bad_alloc@std@@QAE@PBD@Z
_TEXT	SEGMENT
__Message$ = 8						; size = 4
??0bad_alloc@std@@QAE@PBD@Z PROC			; std::bad_alloc::bad_alloc, COMDAT
; _this$ = ecx

; 345  : 		{	// construct from message string

  00000	55		 push	 ebp
  00001	8b ec		 mov	 ebp, esp
  00003	56		 push	 esi
  00004	8d 45 08	 lea	 eax, DWORD PTR __Message$[ebp]
  00007	50		 push	 eax
  00008	8b f1		 mov	 esi, ecx
  0000a	ff 15 00 00 00
	00		 call	 DWORD PTR __imp_??0exception@std@@QAE@ABQBD@Z
  00010	c7 06 00 00 00
	00		 mov	 DWORD PTR [esi], OFFSET ??_7bad_alloc@std@@6B@

; 346  : 		}

  00016	8b c6		 mov	 eax, esi
  00018	5e		 pop	 esi
  00019	5d		 pop	 ebp
  0001a	c2 04 00	 ret	 4
??0bad_alloc@std@@QAE@PBD@Z ENDP			; std::bad_alloc::bad_alloc
_TEXT	ENDS
PUBLIC	??1bad_alloc@std@@UAE@XZ			; std::bad_alloc::~bad_alloc
EXTRN	__imp_??1exception@std@@UAE@XZ:PROC
; Function compile flags: /Ogsp
;	COMDAT ??1bad_alloc@std@@UAE@XZ
_TEXT	SEGMENT
??1bad_alloc@std@@UAE@XZ PROC				; std::bad_alloc::~bad_alloc, COMDAT
; _this$ = ecx

; 354  : 		{	// destroy the object

  00000	c7 01 00 00 00
	00		 mov	 DWORD PTR [ecx], OFFSET ??_7bad_alloc@std@@6B@

; 355  : 		}

  00006	ff 25 00 00 00
	00		 jmp	 DWORD PTR __imp_??1exception@std@@UAE@XZ
??1bad_alloc@std@@UAE@XZ ENDP				; std::bad_alloc::~bad_alloc
_TEXT	ENDS
EXTRN	??3@YAXPAX@Z:PROC				; operator delete
; Function compile flags: /Ogsp
;	COMDAT ??_Gbad_alloc@std@@UAEPAXI@Z
_TEXT	SEGMENT
___flags$ = 8						; size = 4
??_Gbad_alloc@std@@UAEPAXI@Z PROC			; std::bad_alloc::`scalar deleting destructor', COMDAT
; _this$ = ecx
  00000	55		 push	 ebp
  00001	8b ec		 mov	 ebp, esp
  00003	56		 push	 esi
  00004	8b f1		 mov	 esi, ecx
  00006	c7 06 00 00 00
	00		 mov	 DWORD PTR [esi], OFFSET ??_7bad_alloc@std@@6B@
  0000c	ff 15 00 00 00
	00		 call	 DWORD PTR __imp_??1exception@std@@UAE@XZ
  00012	f6 45 08 01	 test	 BYTE PTR ___flags$[ebp], 1
  00016	74 07		 je	 SHORT $LN1@scalar
  00018	56		 push	 esi
  00019	e8 00 00 00 00	 call	 ??3@YAXPAX@Z		; operator delete
  0001e	59		 pop	 ecx
$LN1@scalar:
  0001f	8b c6		 mov	 eax, esi
  00021	5e		 pop	 esi
  00022	5d		 pop	 ebp
  00023	c2 04 00	 ret	 4
??_Gbad_alloc@std@@UAEPAXI@Z ENDP			; std::bad_alloc::`scalar deleting destructor'
_TEXT	ENDS
PUBLIC	??2@YAPAXIPAX@Z					; operator new
; Function compile flags: /Ogsp
; File c:\program files (x86)\microsoft visual studio 10.0\vc\include\new
;	COMDAT ??2@YAPAXIPAX@Z
_TEXT	SEGMENT
___formal$ = 8						; size = 4
__Where$ = 12						; size = 4
??2@YAPAXIPAX@Z PROC					; operator new, COMDAT

; 56   : 	{	// construct array with placement at _Where

  00000	55		 push	 ebp
  00001	8b ec		 mov	 ebp, esp

; 57   : 	return (_Where);

  00003	8b 45 0c	 mov	 eax, DWORD PTR __Where$[ebp]

; 58   : 	}

  00006	5d		 pop	 ebp
  00007	c3		 ret	 0
??2@YAPAXIPAX@Z ENDP					; operator new
_TEXT	ENDS
PUBLIC	??3@YAXPAX0@Z					; operator delete
; Function compile flags: /Ogsp
;	COMDAT ??3@YAXPAX0@Z
_TEXT	SEGMENT
___formal$ = 8						; size = 4
___formal$ = 12						; size = 4
??3@YAXPAX0@Z PROC					; operator delete, COMDAT

; 62   : 	}

  00000	c3		 ret	 0
??3@YAXPAX0@Z ENDP					; operator delete
_TEXT	ENDS
PUBLIC	??_R0?AVioWeapon@@@8				; ioWeapon `RTTI Type Descriptor'
PUBLIC	??_R0?AVioThrowReturnWeapon@@@8			; ioThrowReturnWeapon `RTTI Type Descriptor'
PUBLIC	?ToThrowReturnWeapon@@YAPAVioThrowReturnWeapon@@PAVioWeapon@@@Z ; ToThrowReturnWeapon
EXTRN	___RTDynamicCast:PROC
;	COMDAT ??_R0?AVioWeapon@@@8
; File d:\lost saga for developer\youtube\tutorial\source\src\lsclient\iothrowreturnweapon.h
_DATA	SEGMENT
??_R0?AVioWeapon@@@8 DD FLAT:??_7type_info@@6B@		; ioWeapon `RTTI Type Descriptor'
	DD	00H
	DB	'.?AVioWeapon@@', 00H
_DATA	ENDS
;	COMDAT ??_R0?AVioThrowReturnWeapon@@@8
_DATA	SEGMENT
??_R0?AVioThrowReturnWeapon@@@8 DD FLAT:??_7type_info@@6B@ ; ioThrowReturnWeapon `RTTI Type Descriptor'
	DD	00H
	DB	'.?AVioThrowReturnWeapon@@', 00H
; Function compile flags: /Ogsp
_DATA	ENDS
;	COMDAT ?ToThrowReturnWeapon@@YAPAVioThrowReturnWeapon@@PAVioWeapon@@@Z
_TEXT	SEGMENT
_pWeapon$ = 8						; size = 4
?ToThrowReturnWeapon@@YAPAVioThrowReturnWeapon@@PAVioWeapon@@@Z PROC ; ToThrowReturnWeapon, COMDAT

; 76   : {

  00000	55		 push	 ebp
  00001	8b ec		 mov	 ebp, esp
  00003	56		 push	 esi

; 77   : 	if( !pWeapon || pWeapon->GetType() != ioWeapon::WT_THROW_RETURN )

  00004	8b 75 08	 mov	 esi, DWORD PTR _pWeapon$[ebp]
  00007	85 f6		 test	 esi, esi
  00009	74 28		 je	 SHORT $LN1@ToThrowRet
  0000b	8b 06		 mov	 eax, DWORD PTR [esi]
  0000d	8b ce		 mov	 ecx, esi
  0000f	ff 90 10 01 00
	00		 call	 DWORD PTR [eax+272]
  00015	83 f8 0f	 cmp	 eax, 15			; 0000000fH
  00018	75 19		 jne	 SHORT $LN1@ToThrowRet

; 79   : 
; 80   : 	return dynamic_cast< ioThrowReturnWeapon* >( pWeapon );

  0001a	6a 00		 push	 0
  0001c	68 00 00 00 00	 push	 OFFSET ??_R0?AVioThrowReturnWeapon@@@8
  00021	68 00 00 00 00	 push	 OFFSET ??_R0?AVioWeapon@@@8
  00026	6a 00		 push	 0
  00028	56		 push	 esi
  00029	e8 00 00 00 00	 call	 ___RTDynamicCast
  0002e	83 c4 14	 add	 esp, 20			; 00000014H
  00031	eb 02		 jmp	 SHORT $LN3@ToThrowRet
$LN1@ToThrowRet:

; 78   : 		return NULL;

  00033	33 c0		 xor	 eax, eax
$LN3@ToThrowRet:
  00035	5e		 pop	 esi

; 81   : }

  00036	5d		 pop	 ebp
  00037	c3		 ret	 0
?ToThrowReturnWeapon@@YAPAVioThrowReturnWeapon@@PAVioWeapon@@@Z ENDP ; ToThrowReturnWeapon
_TEXT	ENDS
PUBLIC	?_Adopt@_Iterator_base0@std@@QAEXPBX@Z		; std::_Iterator_base0::_Adopt
; Function compile flags: /Ogsp
; File c:\program files (x86)\microsoft visual studio 10.0\vc\include\xutility
;	COMDAT ?_Adopt@_Iterator_base0@std@@QAEXPBX@Z
_TEXT	SEGMENT
___formal$ = 8						; size = 4
?_Adopt@_Iterator_base0@std@@QAEXPBX@Z PROC		; std::_Iterator_base0::_Adopt, COMDAT
; _this$ = ecx

; 49   : 		}

  00000	c2 04 00	 ret	 4
?_Adopt@_Iterator_base0@std@@QAEXPBX@Z ENDP		; std::_Iterator_base0::_Adopt
_TEXT	ENDS
PUBLIC	?GetFireTimeModifyRate@ioFireWeaponItem@@QBEMXZ	; ioFireWeaponItem::GetFireTimeModifyRate
; Function compile flags: /Ogsp
; File d:\lost saga for developer\youtube\tutorial\source\src\lsclient\iofireweaponitem.h
;	COMDAT ?GetFireTimeModifyRate@ioFireWeaponItem@@QBEMXZ
_TEXT	SEGMENT
?GetFireTimeModifyRate@ioFireWeaponItem@@QBEMXZ PROC	; ioFireWeaponItem::GetFireTimeModifyRate, COMDAT
; _this$ = ecx

; 191  : 	inline float GetFireTimeModifyRate() const { return m_fFireTimeModifyRate; }

  00000	d9 81 e0 1b 00
	00		 fld	 DWORD PTR [ecx+7136]
  00006	c3		 ret	 0
?GetFireTimeModifyRate@ioFireWeaponItem@@QBEMXZ ENDP	; ioFireWeaponItem::GetFireTimeModifyRate
_TEXT	ENDS
PUBLIC	?GetAimedSkillUse@ioFireWeaponItem@@QBE_NXZ	; ioFireWeaponItem::GetAimedSkillUse
; Function compile flags: /Ogsp
;	COMDAT ?GetAimedSkillUse@ioFireWeaponItem@@QBE_NXZ
_TEXT	SEGMENT
?GetAimedSkillUse@ioFireWeaponItem@@QBE_NXZ PROC	; ioFireWeaponItem::GetAimedSkillUse, COMDAT
; _this$ = ecx

; 240  : 	inline bool GetAimedSkillUse() const { return m_bSetSkillAimed; }

  00000	8a 81 ec 1c 00
	00		 mov	 al, BYTE PTR [ecx+7404]
  00006	c3		 ret	 0
?GetAimedSkillUse@ioFireWeaponItem@@QBE_NXZ ENDP	; ioFireWeaponItem::GetAimedSkillUse
_TEXT	ENDS
PUBLIC	?GetAimedDirSet@ioFireWeaponItem@@QBE_NXZ	; ioFireWeaponItem::GetAimedDirSet
; Function compile flags: /Ogsp
;	COMDAT ?GetAimedDirSet@ioFireWeaponItem@@QBE_NXZ
_TEXT	SEGMENT
?GetAimedDirSet@ioFireWeaponItem@@QBE_NXZ PROC		; ioFireWeaponItem::GetAimedDirSet, COMDAT
; _this$ = ecx

; 241  : 	inline bool GetAimedDirSet() const { return m_bSetAimedDir; }

  00000	8a 81 ed 1c 00
	00		 mov	 al, BYTE PTR [ecx+7405]
  00006	c3		 ret	 0
?GetAimedDirSet@ioFireWeaponItem@@QBE_NXZ ENDP		; ioFireWeaponItem::GetAimedDirSet
_TEXT	ENDS
PUBLIC	?GetAimedSkillUse@ioBowItem@@QBE_NXZ		; ioBowItem::GetAimedSkillUse
; Function compile flags: /Ogsp
; File d:\lost saga for developer\youtube\tutorial\source\src\lsclient\iobowitem.h
;	COMDAT ?GetAimedSkillUse@ioBowItem@@QBE_NXZ
_TEXT	SEGMENT
?GetAimedSkillUse@ioBowItem@@QBE_NXZ PROC		; ioBowItem::GetAimedSkillUse, COMDAT
; _this$ = ecx

; 299  : 	inline bool GetAimedSkillUse() const { return m_bSetSkillAimed; }

  00000	8a 81 8c 1c 00
	00		 mov	 al, BYTE PTR [ecx+7308]
  00006	c3		 ret	 0
?GetAimedSkillUse@ioBowItem@@QBE_NXZ ENDP		; ioBowItem::GetAimedSkillUse
_TEXT	ENDS
PUBLIC	?GetAimedDirSet@ioBowItem@@QBE_NXZ		; ioBowItem::GetAimedDirSet
; Function compile flags: /Ogsp
;	COMDAT ?GetAimedDirSet@ioBowItem@@QBE_NXZ
_TEXT	SEGMENT
?GetAimedDirSet@ioBowItem@@QBE_NXZ PROC			; ioBowItem::GetAimedDirSet, COMDAT
; _this$ = ecx

; 300  : 	inline bool GetAimedDirSet() const { return m_bSetAimedDir; }

  00000	8a 81 8d 1c 00
	00		 mov	 al, BYTE PTR [ecx+7309]
  00006	c3		 ret	 0
?GetAimedDirSet@ioBowItem@@QBE_NXZ ENDP			; ioBowItem::GetAimedDirSet
_TEXT	ENDS
PUBLIC	?GetAimedSkillUse@ioLaserItem@@QBE_NXZ		; ioLaserItem::GetAimedSkillUse
; Function compile flags: /Ogsp
; File d:\lost saga for developer\youtube\tutorial\source\src\lsclient\iolaseritem.h
;	COMDAT ?GetAimedSkillUse@ioLaserItem@@QBE_NXZ
_TEXT	SEGMENT
?GetAimedSkillUse@ioLaserItem@@QBE_NXZ PROC		; ioLaserItem::GetAimedSkillUse, COMDAT
; _this$ = ecx

; 220  : 	inline bool GetAimedSkillUse() const { return m_bSetSkillAimed; }

  00000	8a 81 4c 1c 00
	00		 mov	 al, BYTE PTR [ecx+7244]
  00006	c3		 ret	 0
?GetAimedSkillUse@ioLaserItem@@QBE_NXZ ENDP		; ioLaserItem::GetAimedSkillUse
_TEXT	ENDS
PUBLIC	?GetAimedDirSet@ioLaserItem@@QBE_NXZ		; ioLaserItem::GetAimedDirSet
; Function compile flags: /Ogsp
;	COMDAT ?GetAimedDirSet@ioLaserItem@@QBE_NXZ
_TEXT	SEGMENT
?GetAimedDirSet@ioLaserItem@@QBE_NXZ PROC		; ioLaserItem::GetAimedDirSet, COMDAT
; _this$ = ecx

; 221  : 	inline bool GetAimedDirSet() const { return m_bSetAimedDir; }

  00000	8a 81 4d 1c 00
	00		 mov	 al, BYTE PTR [ecx+7245]
  00006	c3		 ret	 0
?GetAimedDirSet@ioLaserItem@@QBE_NXZ ENDP		; ioLaserItem::GetAimedDirSet
_TEXT	ENDS
PUBLIC	??0D3DXVECTOR3@@QAE@XZ				; D3DXVECTOR3::D3DXVECTOR3
; Function compile flags: /Ogsp
; File c:\program files (x86)\microsoft directx sdk (june 2010)\include\d3dx9math.h
;	COMDAT ??0D3DXVECTOR3@@QAE@XZ
_TEXT	SEGMENT
??0D3DXVECTOR3@@QAE@XZ PROC				; D3DXVECTOR3::D3DXVECTOR3, COMDAT
; _this$ = ecx

; 165  :     D3DXVECTOR3() {};

  00000	8b c1		 mov	 eax, ecx
  00002	c3		 ret	 0
??0D3DXVECTOR3@@QAE@XZ ENDP				; D3DXVECTOR3::D3DXVECTOR3
_TEXT	ENDS
PUBLIC	??0D3DXQUATERNION@@QAE@XZ			; D3DXQUATERNION::D3DXQUATERNION
; Function compile flags: /Ogsp
;	COMDAT ??0D3DXQUATERNION@@QAE@XZ
_TEXT	SEGMENT
??0D3DXQUATERNION@@QAE@XZ PROC				; D3DXQUATERNION::D3DXQUATERNION, COMDAT
; _this$ = ecx

; 429  :     D3DXQUATERNION() {}

  00000	8b c1		 mov	 eax, ecx
  00002	c3		 ret	 0
??0D3DXQUATERNION@@QAE@XZ ENDP				; D3DXQUATERNION::D3DXQUATERNION
_TEXT	ENDS
PUBLIC	??0D3DXVECTOR3@@QAE@MMM@Z			; D3DXVECTOR3::D3DXVECTOR3
; Function compile flags: /Ogsp
; File c:\program files (x86)\microsoft directx sdk (june 2010)\include\d3dx9math.inl
;	COMDAT ??0D3DXVECTOR3@@QAE@MMM@Z
_TEXT	SEGMENT
_fx$ = 8						; size = 4
_fy$ = 12						; size = 4
_fz$ = 16						; size = 4
??0D3DXVECTOR3@@QAE@MMM@Z PROC				; D3DXVECTOR3::D3DXVECTOR3, COMDAT
; _this$ = ecx

; 303  : {

  00000	55		 push	 ebp
  00001	8b ec		 mov	 ebp, esp

; 304  :     x = fx;

  00003	f3 0f 10 45 08	 movss	 xmm0, DWORD PTR _fx$[ebp]
  00008	8b c1		 mov	 eax, ecx
  0000a	f3 0f 11 00	 movss	 DWORD PTR [eax], xmm0

; 305  :     y = fy;

  0000e	f3 0f 10 45 0c	 movss	 xmm0, DWORD PTR _fy$[ebp]
  00013	f3 0f 11 40 04	 movss	 DWORD PTR [eax+4], xmm0

; 306  :     z = fz;

  00018	f3 0f 10 45 10	 movss	 xmm0, DWORD PTR _fz$[ebp]
  0001d	f3 0f 11 40 08	 movss	 DWORD PTR [eax+8], xmm0

; 307  : }

  00022	5d		 pop	 ebp
  00023	c2 0c 00	 ret	 12			; 0000000cH
??0D3DXVECTOR3@@QAE@MMM@Z ENDP				; D3DXVECTOR3::D3DXVECTOR3
_TEXT	ENDS
PUBLIC	??YD3DXVECTOR3@@QAEAAU0@ABU0@@Z			; D3DXVECTOR3::operator+=
; Function compile flags: /Ogsp
;	COMDAT ??YD3DXVECTOR3@@QAEAAU0@ABU0@@Z
_TEXT	SEGMENT
_v$ = 8							; size = 4
??YD3DXVECTOR3@@QAEAAU0@ABU0@@Z PROC			; D3DXVECTOR3::operator+=, COMDAT
; _this$ = ecx

; 327  : {

  00000	55		 push	 ebp
  00001	8b ec		 mov	 ebp, esp
  00003	8b c1		 mov	 eax, ecx

; 328  :     x += v.x;

  00005	8b 4d 08	 mov	 ecx, DWORD PTR _v$[ebp]
  00008	f3 0f 10 01	 movss	 xmm0, DWORD PTR [ecx]
  0000c	f3 0f 10 08	 movss	 xmm1, DWORD PTR [eax]
  00010	0f 5a c0	 cvtps2pd xmm0, xmm0
  00013	0f 5a c9	 cvtps2pd xmm1, xmm1
  00016	f2 0f 58 c1	 addsd	 xmm0, xmm1

; 329  :     y += v.y;

  0001a	f3 0f 10 48 04	 movss	 xmm1, DWORD PTR [eax+4]
  0001f	66 0f 5a c0	 cvtpd2ps xmm0, xmm0
  00023	f3 0f 11 00	 movss	 DWORD PTR [eax], xmm0
  00027	f3 0f 10 41 04	 movss	 xmm0, DWORD PTR [ecx+4]
  0002c	0f 5a c0	 cvtps2pd xmm0, xmm0
  0002f	0f 5a c9	 cvtps2pd xmm1, xmm1
  00032	f2 0f 58 c1	 addsd	 xmm0, xmm1

; 330  :     z += v.z;

  00036	f3 0f 10 48 08	 movss	 xmm1, DWORD PTR [eax+8]
  0003b	66 0f 5a c0	 cvtpd2ps xmm0, xmm0
  0003f	f3 0f 11 40 04	 movss	 DWORD PTR [eax+4], xmm0
  00044	f3 0f 10 41 08	 movss	 xmm0, DWORD PTR [ecx+8]
  00049	0f 5a c0	 cvtps2pd xmm0, xmm0
  0004c	0f 5a c9	 cvtps2pd xmm1, xmm1
  0004f	f2 0f 58 c1	 addsd	 xmm0, xmm1
  00053	66 0f 5a c0	 cvtpd2ps xmm0, xmm0
  00057	f3 0f 11 40 08	 movss	 DWORD PTR [eax+8], xmm0

; 331  :     return *this;
; 332  : }

  0005c	5d		 pop	 ebp
  0005d	c2 04 00	 ret	 4
??YD3DXVECTOR3@@QAEAAU0@ABU0@@Z ENDP			; D3DXVECTOR3::operator+=
_TEXT	ENDS
PUBLIC	__mask@@NegFloat@
PUBLIC	??GD3DXVECTOR3@@QBE?AU0@XZ			; D3DXVECTOR3::operator-
;	COMDAT __mask@@NegFloat@
CONST	SEGMENT
__mask@@NegFloat@ DB 00H, 00H, 00H, 080H, 00H, 00H, 00H, 080H, 00H, 00H, 00H
	DB	080H, 00H, 00H, 00H, 080H
; Function compile flags: /Ogsp
CONST	ENDS
;	COMDAT ??GD3DXVECTOR3@@QBE?AU0@XZ
_TEXT	SEGMENT
___$ReturnUdt$ = 8					; size = 4
??GD3DXVECTOR3@@QBE?AU0@XZ PROC				; D3DXVECTOR3::operator-, COMDAT
; _this$ = ecx

; 372  : {

  00000	55		 push	 ebp
  00001	8b ec		 mov	 ebp, esp

; 373  :     return D3DXVECTOR3(-x, -y, -z);

  00003	f3 0f 10 05 00
	00 00 00	 movss	 xmm0, DWORD PTR __mask@@NegFloat@
  0000b	8b 45 08	 mov	 eax, DWORD PTR ___$ReturnUdt$[ebp]
  0000e	f3 0f 10 09	 movss	 xmm1, DWORD PTR [ecx]
  00012	0f 57 c8	 xorps	 xmm1, xmm0
  00015	f3 0f 11 08	 movss	 DWORD PTR [eax], xmm1
  00019	f3 0f 10 49 04	 movss	 xmm1, DWORD PTR [ecx+4]
  0001e	0f 57 c8	 xorps	 xmm1, xmm0
  00021	f3 0f 11 48 04	 movss	 DWORD PTR [eax+4], xmm1
  00026	f3 0f 10 49 08	 movss	 xmm1, DWORD PTR [ecx+8]
  0002b	0f 57 c8	 xorps	 xmm1, xmm0
  0002e	f3 0f 11 48 08	 movss	 DWORD PTR [eax+8], xmm1

; 374  : }

  00033	5d		 pop	 ebp
  00034	c2 04 00	 ret	 4
??GD3DXVECTOR3@@QBE?AU0@XZ ENDP				; D3DXVECTOR3::operator-
_TEXT	ENDS
PUBLIC	??DD3DXVECTOR3@@QBE?AU0@M@Z			; D3DXVECTOR3::operator*
; Function compile flags: /Ogsp
;	COMDAT ??DD3DXVECTOR3@@QBE?AU0@M@Z
_TEXT	SEGMENT
___$ReturnUdt$ = 8					; size = 4
_f$ = 12						; size = 4
??DD3DXVECTOR3@@QBE?AU0@M@Z PROC			; D3DXVECTOR3::operator*, COMDAT
; _this$ = ecx

; 392  : {

  00000	55		 push	 ebp
  00001	8b ec		 mov	 ebp, esp

; 393  :     return D3DXVECTOR3(x * f, y * f, z * f);

  00003	f3 0f 10 4d 0c	 movss	 xmm1, DWORD PTR _f$[ebp]
  00008	f3 0f 10 01	 movss	 xmm0, DWORD PTR [ecx]
  0000c	8b 45 08	 mov	 eax, DWORD PTR ___$ReturnUdt$[ebp]
  0000f	0f 5a c0	 cvtps2pd xmm0, xmm0
  00012	0f 5a c9	 cvtps2pd xmm1, xmm1
  00015	f2 0f 59 c1	 mulsd	 xmm0, xmm1
  00019	f3 0f 10 4d 0c	 movss	 xmm1, DWORD PTR _f$[ebp]
  0001e	66 0f 5a c0	 cvtpd2ps xmm0, xmm0
  00022	f3 0f 11 00	 movss	 DWORD PTR [eax], xmm0
  00026	f3 0f 10 41 04	 movss	 xmm0, DWORD PTR [ecx+4]
  0002b	0f 5a c0	 cvtps2pd xmm0, xmm0
  0002e	0f 5a c9	 cvtps2pd xmm1, xmm1
  00031	f2 0f 59 c1	 mulsd	 xmm0, xmm1
  00035	f3 0f 10 4d 0c	 movss	 xmm1, DWORD PTR _f$[ebp]
  0003a	66 0f 5a c0	 cvtpd2ps xmm0, xmm0
  0003e	f3 0f 11 40 04	 movss	 DWORD PTR [eax+4], xmm0
  00043	f3 0f 10 41 08	 movss	 xmm0, DWORD PTR [ecx+8]
  00048	0f 5a c0	 cvtps2pd xmm0, xmm0
  0004b	0f 5a c9	 cvtps2pd xmm1, xmm1
  0004e	f2 0f 59 c1	 mulsd	 xmm0, xmm1
  00052	66 0f 5a c0	 cvtpd2ps xmm0, xmm0
  00056	f3 0f 11 40 08	 movss	 DWORD PTR [eax+8], xmm0

; 394  : }

  0005b	5d		 pop	 ebp
  0005c	c2 08 00	 ret	 8
??DD3DXVECTOR3@@QBE?AU0@M@Z ENDP			; D3DXVECTOR3::operator*
_TEXT	ENDS
PUBLIC	??8D3DXVECTOR3@@QBEHABU0@@Z			; D3DXVECTOR3::operator==
; Function compile flags: /Ogsp
;	COMDAT ??8D3DXVECTOR3@@QBEHABU0@@Z
_TEXT	SEGMENT
_v$ = 8							; size = 4
??8D3DXVECTOR3@@QBEHABU0@@Z PROC			; D3DXVECTOR3::operator==, COMDAT
; _this$ = ecx

; 413  : {

  00000	55		 push	 ebp
  00001	8b ec		 mov	 ebp, esp

; 414  :     return x == v.x && y == v.y && z == v.z;

  00003	8b 55 08	 mov	 edx, DWORD PTR _v$[ebp]
  00006	f3 0f 10 01	 movss	 xmm0, DWORD PTR [ecx]
  0000a	f3 0f 10 0a	 movss	 xmm1, DWORD PTR [edx]
  0000e	0f 5a c0	 cvtps2pd xmm0, xmm0
  00011	0f 5a c9	 cvtps2pd xmm1, xmm1
  00014	66 0f 2e c1	 ucomisd xmm0, xmm1
  00018	9f		 lahf
  00019	f6 c4 44	 test	 ah, 68			; 00000044H
  0001c	7a 39		 jp	 SHORT $LN3@operator
  0001e	f3 0f 10 41 04	 movss	 xmm0, DWORD PTR [ecx+4]
  00023	f3 0f 10 4a 04	 movss	 xmm1, DWORD PTR [edx+4]
  00028	0f 5a c0	 cvtps2pd xmm0, xmm0
  0002b	0f 5a c9	 cvtps2pd xmm1, xmm1
  0002e	66 0f 2e c1	 ucomisd xmm0, xmm1
  00032	9f		 lahf
  00033	f6 c4 44	 test	 ah, 68			; 00000044H
  00036	7a 1f		 jp	 SHORT $LN3@operator
  00038	f3 0f 10 41 08	 movss	 xmm0, DWORD PTR [ecx+8]
  0003d	f3 0f 10 4a 08	 movss	 xmm1, DWORD PTR [edx+8]
  00042	0f 5a c0	 cvtps2pd xmm0, xmm0
  00045	0f 5a c9	 cvtps2pd xmm1, xmm1
  00048	66 0f 2e c1	 ucomisd xmm0, xmm1
  0004c	9f		 lahf
  0004d	f6 c4 44	 test	 ah, 68			; 00000044H
  00050	7a 05		 jp	 SHORT $LN3@operator
  00052	33 c0		 xor	 eax, eax
  00054	40		 inc	 eax
  00055	eb 02		 jmp	 SHORT $LN4@operator
$LN3@operator:
  00057	33 c0		 xor	 eax, eax
$LN4@operator:

; 415  : }

  00059	5d		 pop	 ebp
  0005a	c2 04 00	 ret	 4
??8D3DXVECTOR3@@QBEHABU0@@Z ENDP			; D3DXVECTOR3::operator==
_TEXT	ENDS
PUBLIC	?GetAimedSkillUse@ioBowItem2@@QBE_NXZ		; ioBowItem2::GetAimedSkillUse
; Function compile flags: /Ogsp
; File d:\lost saga for developer\youtube\tutorial\source\src\lsclient\iobowitem2.h
;	COMDAT ?GetAimedSkillUse@ioBowItem2@@QBE_NXZ
_TEXT	SEGMENT
?GetAimedSkillUse@ioBowItem2@@QBE_NXZ PROC		; ioBowItem2::GetAimedSkillUse, COMDAT
; _this$ = ecx

; 320  : 	inline bool GetAimedSkillUse() const { return m_bSetSkillAimed; }

  00000	8a 81 44 1c 00
	00		 mov	 al, BYTE PTR [ecx+7236]
  00006	c3		 ret	 0
?GetAimedSkillUse@ioBowItem2@@QBE_NXZ ENDP		; ioBowItem2::GetAimedSkillUse
_TEXT	ENDS
PUBLIC	?GetAimedDirSet@ioBowItem2@@QBE_NXZ		; ioBowItem2::GetAimedDirSet
; Function compile flags: /Ogsp
;	COMDAT ?GetAimedDirSet@ioBowItem2@@QBE_NXZ
_TEXT	SEGMENT
?GetAimedDirSet@ioBowItem2@@QBE_NXZ PROC		; ioBowItem2::GetAimedDirSet, COMDAT
; _this$ = ecx

; 321  : 	inline bool GetAimedDirSet() const { return m_bSetAimedDir; }

  00000	8a 81 45 1c 00
	00		 mov	 al, BYTE PTR [ecx+7237]
  00006	c3		 ret	 0
?GetAimedDirSet@ioBowItem2@@QBE_NXZ ENDP		; ioBowItem2::GetAimedDirSet
_TEXT	ENDS
PUBLIC	?D3DXVec3Cross@@YAPAUD3DXVECTOR3@@PAU1@PBU1@1@Z	; D3DXVec3Cross
; Function compile flags: /Ogsp
; File c:\program files (x86)\microsoft directx sdk (june 2010)\include\d3dx9math.inl
;	COMDAT ?D3DXVec3Cross@@YAPAUD3DXVECTOR3@@PAU1@PBU1@1@Z
_TEXT	SEGMENT
_v$ = -12						; size = 12
_pOut$ = 8						; size = 4
_pV1$ = 12						; size = 4
_pV2$ = 16						; size = 4
?D3DXVec3Cross@@YAPAUD3DXVECTOR3@@PAU1@PBU1@1@Z PROC	; D3DXVec3Cross, COMDAT

; 1747 : {

  00000	55		 push	 ebp
  00001	8b ec		 mov	 ebp, esp
  00003	83 ec 0c	 sub	 esp, 12			; 0000000cH

; 1757 :     v.z = pV1->x * pV2->y - pV1->y * pV2->x;
; 1758 : 
; 1759 :     *pOut = v;

  00006	56		 push	 esi
  00007	57		 push	 edi

; 1748 :     D3DXVECTOR3 v;
; 1749 : 
; 1750 : #ifdef D3DX_DEBUG
; 1751 :     if(!pOut || !pV1 || !pV2)
; 1752 :         return NULL;
; 1753 : #endif
; 1754 : 
; 1755 :     v.x = pV1->y * pV2->z - pV1->z * pV2->y;

  00008	8b 45 0c	 mov	 eax, DWORD PTR _pV1$[ebp]
  0000b	f3 0f 10 40 04	 movss	 xmm0, DWORD PTR [eax+4]
  00010	f3 0f 10 50 08	 movss	 xmm2, DWORD PTR [eax+8]
  00015	8b 4d 10	 mov	 ecx, DWORD PTR _pV2$[ebp]
  00018	f3 0f 10 49 08	 movss	 xmm1, DWORD PTR [ecx+8]
  0001d	f3 0f 10 59 04	 movss	 xmm3, DWORD PTR [ecx+4]
  00022	0f 5a e8	 cvtps2pd xmm5, xmm0
  00025	0f 5a e1	 cvtps2pd xmm4, xmm1
  00028	0f 5a f2	 cvtps2pd xmm6, xmm2
  0002b	f2 0f 59 e5	 mulsd	 xmm4, xmm5

; 1756 :     v.y = pV1->z * pV2->x - pV1->x * pV2->z;

  0002f	0f 5a d2	 cvtps2pd xmm2, xmm2
  00032	0f 5a c9	 cvtps2pd xmm1, xmm1
  00035	0f 5a eb	 cvtps2pd xmm5, xmm3
  00038	f2 0f 59 ee	 mulsd	 xmm5, xmm6
  0003c	f2 0f 5c e5	 subsd	 xmm4, xmm5
  00040	f3 0f 10 28	 movss	 xmm5, DWORD PTR [eax]

; 1757 :     v.z = pV1->x * pV2->y - pV1->y * pV2->x;
; 1758 : 
; 1759 :     *pOut = v;

  00044	8b 45 08	 mov	 eax, DWORD PTR _pOut$[ebp]
  00047	66 0f 5a e4	 cvtpd2ps xmm4, xmm4
  0004b	f3 0f 11 65 f4	 movss	 DWORD PTR _v$[ebp], xmm4
  00050	f3 0f 10 21	 movss	 xmm4, DWORD PTR [ecx]
  00054	0f 5a f4	 cvtps2pd xmm6, xmm4
  00057	f2 0f 59 f2	 mulsd	 xmm6, xmm2
  0005b	0f 5a d5	 cvtps2pd xmm2, xmm5
  0005e	f2 0f 59 d1	 mulsd	 xmm2, xmm1
  00062	f2 0f 5c f2	 subsd	 xmm6, xmm2
  00066	66 0f 5a ce	 cvtpd2ps xmm1, xmm6
  0006a	f3 0f 11 4d f8	 movss	 DWORD PTR _v$[ebp+4], xmm1
  0006f	0f 5a c0	 cvtps2pd xmm0, xmm0
  00072	0f 5a d3	 cvtps2pd xmm2, xmm3
  00075	0f 5a cd	 cvtps2pd xmm1, xmm5
  00078	f2 0f 59 ca	 mulsd	 xmm1, xmm2
  0007c	8d 75 f4	 lea	 esi, DWORD PTR _v$[ebp]
  0007f	8b f8		 mov	 edi, eax
  00081	0f 5a d4	 cvtps2pd xmm2, xmm4
  00084	f2 0f 59 d0	 mulsd	 xmm2, xmm0
  00088	f2 0f 5c ca	 subsd	 xmm1, xmm2
  0008c	66 0f 5a c1	 cvtpd2ps xmm0, xmm1
  00090	f3 0f 11 45 fc	 movss	 DWORD PTR _v$[ebp+8], xmm0
  00095	a5		 movsd
  00096	a5		 movsd
  00097	a5		 movsd
  00098	5f		 pop	 edi
  00099	5e		 pop	 esi

; 1760 :     return pOut;
; 1761 : }

  0009a	c9		 leave
  0009b	c3		 ret	 0
?D3DXVec3Cross@@YAPAUD3DXVECTOR3@@PAU1@PBU1@1@Z ENDP	; D3DXVec3Cross
_TEXT	ENDS
PUBLIC	?OnProcessState@ioFullShotSkill@@UAEXPAVioBaseChar@@PAVioPlayStage@@@Z ; ioFullShotSkill::OnProcessState
EXTRN	__imp_?GetLoopSec@ioFrameTimer@@QBEKXZ:PROC
EXTRN	__imp_?GetSingleton@ioFrameTimer@@SAAAV1@XZ:PROC
EXTRN	?CheckExtraAniJump@ioSkill@@IAEXPAVioBaseChar@@@Z:PROC ; ioSkill::CheckExtraAniJump
; Function compile flags: /Ogsp
; File d:\lost saga for developer\youtube\tutorial\source\src\lsclient\iofullshotskill.cpp
;	COMDAT ?OnProcessState@ioFullShotSkill@@UAEXPAVioBaseChar@@PAVioPlayStage@@@Z
_TEXT	SEGMENT
_pChar$ = 8						; size = 4
_pStage$ = 12						; size = 4
?OnProcessState@ioFullShotSkill@@UAEXPAVioBaseChar@@PAVioPlayStage@@@Z PROC ; ioFullShotSkill::OnProcessState, COMDAT
; _this$ = ecx

; 194  : {

  00000	55		 push	 ebp
  00001	8b ec		 mov	 ebp, esp
  00003	56		 push	 esi
  00004	8b f1		 mov	 esi, ecx

; 195  : 	if( m_dwPreDelayStartTime == 0 )

  00006	83 be 20 02 00
	00 00		 cmp	 DWORD PTR [esi+544], 0
  0000d	75 17		 jne	 SHORT $LN3@OnProcessS

; 196  : 	{
; 197  : 		CheckExtraAniJump( pChar );

  0000f	ff 75 08	 push	 DWORD PTR _pChar$[ebp]
  00012	e8 00 00 00 00	 call	 ?CheckExtraAniJump@ioSkill@@IAEXPAVioBaseChar@@@Z ; ioSkill::CheckExtraAniJump

; 198  : 		CheckAniRotate( pChar );

  00017	ff 75 08	 push	 DWORD PTR _pChar$[ebp]
  0001a	8b 06		 mov	 eax, DWORD PTR [esi]
  0001c	8b ce		 mov	 ecx, esi
  0001e	ff 90 f4 00 00
	00		 call	 DWORD PTR [eax+244]

; 199  : 		return;

  00024	eb 5c		 jmp	 SHORT $LN1@OnProcessS
$LN3@OnProcessS:
  00026	57		 push	 edi

; 200  : 	}
; 201  : 
; 202  : 	if( pChar && pChar->IsNeedProcess() )

  00027	8b 7d 08	 mov	 edi, DWORD PTR _pChar$[ebp]
  0002a	85 ff		 test	 edi, edi
  0002c	74 53		 je	 SHORT $LN6@OnProcessS
  0002e	8b 07		 mov	 eax, DWORD PTR [edi]
  00030	8b cf		 mov	 ecx, edi
  00032	ff 90 00 01 00
	00		 call	 DWORD PTR [eax+256]
  00038	84 c0		 test	 al, al
  0003a	74 45		 je	 SHORT $LN6@OnProcessS

; 203  : 	{
; 204  : 		DWORD dwPreDelay = GetPreDelayTime();

  0003c	8b 06		 mov	 eax, DWORD PTR [esi]
  0003e	53		 push	 ebx
  0003f	8b ce		 mov	 ecx, esi
  00041	ff 90 34 01 00
	00		 call	 DWORD PTR [eax+308]
  00047	8b d8		 mov	 ebx, eax

; 205  : 		if( m_dwPreDelayStartTime + dwPreDelay < FRAMEGETTIME() )

  00049	ff 15 00 00 00
	00		 call	 DWORD PTR __imp_?GetSingleton@ioFrameTimer@@SAAAV1@XZ
  0004f	8b c8		 mov	 ecx, eax
  00051	ff 15 00 00 00
	00		 call	 DWORD PTR __imp_?GetLoopSec@ioFrameTimer@@QBEKXZ
  00057	8b 8e 20 02 00
	00		 mov	 ecx, DWORD PTR [esi+544]
  0005d	03 cb		 add	 ecx, ebx
  0005f	5b		 pop	 ebx
  00060	3b c8		 cmp	 ecx, eax
  00062	73 1d		 jae	 SHORT $LN6@OnProcessS

; 206  : 		{
; 207  : 			m_dwPreDelayStartTime = 0;
; 208  : 
; 209  : 			AttackSkillFire( pChar );

  00064	8b 06		 mov	 eax, DWORD PTR [esi]
  00066	83 a6 20 02 00
	00 00		 and	 DWORD PTR [esi+544], 0
  0006d	57		 push	 edi
  0006e	8b ce		 mov	 ecx, esi
  00070	ff 90 8c 01 00
	00		 call	 DWORD PTR [eax+396]

; 210  : 			EndPreDelayEffect( pChar );

  00076	8b 06		 mov	 eax, DWORD PTR [esi]
  00078	57		 push	 edi
  00079	8b ce		 mov	 ecx, esi
  0007b	ff 90 dc 00 00
	00		 call	 DWORD PTR [eax+220]
$LN6@OnProcessS:
  00081	5f		 pop	 edi
$LN1@OnProcessS:
  00082	5e		 pop	 esi

; 211  : 		}
; 212  : 	}
; 213  : }

  00083	5d		 pop	 ebp
  00084	c2 08 00	 ret	 8
?OnProcessState@ioFullShotSkill@@UAEXPAVioBaseChar@@PAVioPlayStage@@@Z ENDP ; ioFullShotSkill::OnProcessState
_TEXT	ENDS
PUBLIC	?SetSkillActionState@ioFullShotSkill@@IAEXPAVioBaseChar@@@Z ; ioFullShotSkill::SetSkillActionState
EXTRN	?ChangeSkillWeaponMesh@ioBaseChar@@QAE_NPAVioSkill@@ABVioHashString@@_N@Z:PROC ; ioBaseChar::ChangeSkillWeaponMesh
EXTRN	__imp_?IsEmpty@ioHashString@@QBE_NXZ:PROC
; Function compile flags: /Ogsp
;	COMDAT ?SetSkillActionState@ioFullShotSkill@@IAEXPAVioBaseChar@@@Z
_TEXT	SEGMENT
_pChar$ = 8						; size = 4
?SetSkillActionState@ioFullShotSkill@@IAEXPAVioBaseChar@@@Z PROC ; ioFullShotSkill::SetSkillActionState, COMDAT
; _this$ = ecx

; 240  : {

  00000	55		 push	 ebp
  00001	8b ec		 mov	 ebp, esp
  00003	56		 push	 esi
  00004	8b f1		 mov	 esi, ecx

; 241  : 	// 사용 아이템 처리
; 242  : 	if( !m_bSetHandMesh && m_bUseItemMesh && !m_HandMesh.IsEmpty() )

  00006	80 be 0a 0f 00
	00 00		 cmp	 BYTE PTR [esi+3850], 0
  0000d	75 36		 jne	 SHORT $LN1@SetSkillAc
  0000f	80 be 08 0f 00
	00 00		 cmp	 BYTE PTR [esi+3848], 0
  00016	74 2d		 je	 SHORT $LN1@SetSkillAc
  00018	57		 push	 edi
  00019	8d be f8 0e 00
	00		 lea	 edi, DWORD PTR [esi+3832]
  0001f	8b cf		 mov	 ecx, edi
  00021	ff 15 00 00 00
	00		 call	 DWORD PTR __imp_?IsEmpty@ioHashString@@QBE_NXZ
  00027	84 c0		 test	 al, al
  00029	75 19		 jne	 SHORT $LN4@SetSkillAc

; 243  : 	{
; 244  : 		pChar->ChangeSkillWeaponMesh( this, m_HandMesh, m_bVisibleEquipMesh );

  0002b	0f b6 86 09 0f
	00 00		 movzx	 eax, BYTE PTR [esi+3849]
  00032	8b 4d 08	 mov	 ecx, DWORD PTR _pChar$[ebp]
  00035	50		 push	 eax
  00036	57		 push	 edi
  00037	56		 push	 esi
  00038	e8 00 00 00 00	 call	 ?ChangeSkillWeaponMesh@ioBaseChar@@QAE_NPAVioSkill@@ABVioHashString@@_N@Z ; ioBaseChar::ChangeSkillWeaponMesh

; 245  : 		m_bSetHandMesh = true;

  0003d	c6 86 0a 0f 00
	00 01		 mov	 BYTE PTR [esi+3850], 1
$LN4@SetSkillAc:
  00044	5f		 pop	 edi
$LN1@SetSkillAc:
  00045	5e		 pop	 esi

; 246  : 	}
; 247  : }

  00046	5d		 pop	 ebp
  00047	c2 04 00	 ret	 4
?SetSkillActionState@ioFullShotSkill@@IAEXPAVioBaseChar@@@Z ENDP ; ioFullShotSkill::SetSkillActionState
_TEXT	ENDS
PUBLIC	?ApplyExtraSkillInfo@ioFullShotSkill@@UAEXPAVioBaseChar@@PAVioPlayStage@@AAVSP2Packet@@@Z ; ioFullShotSkill::ApplyExtraSkillInfo
EXTRN	__imp_??1ioHashString@@QAE@XZ:PROC
EXTRN	__imp_??4ioHashString@@QAEAAV0@ABV0@@Z:PROC
EXTRN	??5SP2Packet@@QAEAAV0@AAVioHashString@@@Z:PROC	; SP2Packet::operator>>
EXTRN	__imp_??0ioHashString@@QAE@XZ:PROC
EXTRN	?SetRandomSeed@IORandom@@QAEXI@Z:PROC		; IORandom::SetRandomSeed
EXTRN	??5SP2Packet@@QAEAAV0@AAK@Z:PROC		; SP2Packet::operator>>
EXTRN	___CxxFrameHandler3:PROC
EXTRN	@__security_check_cookie@4:PROC
EXTRN	__EH_epilog3:PROC
EXTRN	__EH_prolog3:PROC
;	COMDAT xdata$x
xdata$x	SEGMENT
__unwindtable$?ApplyExtraSkillInfo@ioFullShotSkill@@UAEXPAVioBaseChar@@PAVioPlayStage@@AAVSP2Packet@@@Z DD 0ffffffffH
	DD	FLAT:__unwindfunclet$?ApplyExtraSkillInfo@ioFullShotSkill@@UAEXPAVioBaseChar@@PAVioPlayStage@@AAVSP2Packet@@@Z$0
__ehfuncinfo$?ApplyExtraSkillInfo@ioFullShotSkill@@UAEXPAVioBaseChar@@PAVioPlayStage@@AAVSP2Packet@@@Z DD 019930522H
	DD	01H
	DD	FLAT:__unwindtable$?ApplyExtraSkillInfo@ioFullShotSkill@@UAEXPAVioBaseChar@@PAVioPlayStage@@AAVSP2Packet@@@Z
	DD	2 DUP(00H)
	DD	2 DUP(00H)
	DD	00H
	DD	01H
; Function compile flags: /Ogsp
xdata$x	ENDS
;	COMDAT ?ApplyExtraSkillInfo@ioFullShotSkill@@UAEXPAVioBaseChar@@PAVioPlayStage@@AAVSP2Packet@@@Z
_TEXT	SEGMENT
_szMotionName$ = -28					; size = 16
__$EHRec$ = -12						; size = 12
_pChar$ = 8						; size = 4
_pStage$ = 12						; size = 4
_rkPacket$ = 16						; size = 4
?ApplyExtraSkillInfo@ioFullShotSkill@@UAEXPAVioBaseChar@@PAVioPlayStage@@AAVSP2Packet@@@Z PROC ; ioFullShotSkill::ApplyExtraSkillInfo, COMDAT
; _this$ = ecx

; 713  : {

  00000	6a 10		 push	 16			; 00000010H
  00002	b8 00 00 00 00	 mov	 eax, __ehhandler$?ApplyExtraSkillInfo@ioFullShotSkill@@UAEXPAVioBaseChar@@PAVioPlayStage@@AAVSP2Packet@@@Z
  00007	e8 00 00 00 00	 call	 __EH_prolog3
  0000c	8b f1		 mov	 esi, ecx

; 714  : 	rkPacket >> m_dwSeed;

  0000e	8b 4d 10	 mov	 ecx, DWORD PTR _rkPacket$[ebp]
  00011	8d be 38 11 00
	00		 lea	 edi, DWORD PTR [esi+4408]
  00017	57		 push	 edi
  00018	e8 00 00 00 00	 call	 ??5SP2Packet@@QAEAAV0@AAK@Z ; SP2Packet::operator>>

; 715  : 	m_SpeedRand.SetRandomSeed( m_dwSeed );

  0001d	ff 37		 push	 DWORD PTR [edi]
  0001f	8d 8e 3c 11 00
	00		 lea	 ecx, DWORD PTR [esi+4412]
  00025	e8 00 00 00 00	 call	 ?SetRandomSeed@IORandom@@QAEXI@Z ; IORandom::SetRandomSeed

; 716  : 
; 717  : 	ioHashString szMotionName;

  0002a	8d 4d e4	 lea	 ecx, DWORD PTR _szMotionName$[ebp]
  0002d	ff 15 00 00 00
	00		 call	 DWORD PTR __imp_??0ioHashString@@QAE@XZ

; 718  : 	rkPacket >> szMotionName;

  00033	8b 4d 10	 mov	 ecx, DWORD PTR _rkPacket$[ebp]
  00036	8d 45 e4	 lea	 eax, DWORD PTR _szMotionName$[ebp]
  00039	33 ff		 xor	 edi, edi
  0003b	50		 push	 eax
  0003c	89 7d fc	 mov	 DWORD PTR __$EHRec$[ebp+8], edi
  0003f	e8 00 00 00 00	 call	 ??5SP2Packet@@QAEAAV0@AAVioHashString@@@Z ; SP2Packet::operator>>

; 719  : 
; 720  : 	GetAttribute().m_AttackAnimation = szMotionName;

  00044	8d 45 e4	 lea	 eax, DWORD PTR _szMotionName$[ebp]
  00047	50		 push	 eax
  00048	8b 06		 mov	 eax, DWORD PTR [esi]
  0004a	8b ce		 mov	 ecx, esi
  0004c	ff 90 a4 01 00
	00		 call	 DWORD PTR [eax+420]
  00052	8b c8		 mov	 ecx, eax
  00054	ff 15 00 00 00
	00		 call	 DWORD PTR __imp_??4ioHashString@@QAEAAV0@ABV0@@Z

; 721  : 
; 722  : 	if( m_dwPreDelayStartTime != 0 )

  0005a	39 be 20 02 00
	00		 cmp	 DWORD PTR [esi+544], edi
  00060	74 20		 je	 SHORT $LN1@ApplyExtra

; 723  : 	{
; 724  : 		m_dwPreDelayStartTime = 0;
; 725  : 		AttackSkillFire( pChar );

  00062	ff 75 08	 push	 DWORD PTR _pChar$[ebp]
  00065	8b 06		 mov	 eax, DWORD PTR [esi]
  00067	8b ce		 mov	 ecx, esi
  00069	89 be 20 02 00
	00		 mov	 DWORD PTR [esi+544], edi
  0006f	ff 90 8c 01 00
	00		 call	 DWORD PTR [eax+396]

; 726  : 		EndPreDelayEffect( pChar );

  00075	ff 75 08	 push	 DWORD PTR _pChar$[ebp]
  00078	8b 06		 mov	 eax, DWORD PTR [esi]
  0007a	8b ce		 mov	 ecx, esi
  0007c	ff 90 dc 00 00
	00		 call	 DWORD PTR [eax+220]
$LN1@ApplyExtra:

; 727  : 	}
; 728  : }

  00082	83 4d fc ff	 or	 DWORD PTR __$EHRec$[ebp+8], -1
  00086	8d 4d e4	 lea	 ecx, DWORD PTR _szMotionName$[ebp]
  00089	ff 15 00 00 00
	00		 call	 DWORD PTR __imp_??1ioHashString@@QAE@XZ
  0008f	e8 00 00 00 00	 call	 __EH_epilog3
  00094	c2 0c 00	 ret	 12			; 0000000cH
_TEXT	ENDS
;	COMDAT text$x
text$x	SEGMENT
__unwindfunclet$?ApplyExtraSkillInfo@ioFullShotSkill@@UAEXPAVioBaseChar@@PAVioPlayStage@@AAVSP2Packet@@@Z$0:
  00000	8d 4d e4	 lea	 ecx, DWORD PTR _szMotionName$[ebp]
  00003	ff 25 00 00 00
	00		 jmp	 DWORD PTR __imp_??1ioHashString@@QAE@XZ
__ehhandler$?ApplyExtraSkillInfo@ioFullShotSkill@@UAEXPAVioBaseChar@@PAVioPlayStage@@AAVSP2Packet@@@Z:
  00009	8b 54 24 08	 mov	 edx, DWORD PTR [esp+8]
  0000d	8d 42 0c	 lea	 eax, DWORD PTR [edx+12]
  00010	8b 4a e0	 mov	 ecx, DWORD PTR [edx-32]
  00013	33 c8		 xor	 ecx, eax
  00015	e8 00 00 00 00	 call	 @__security_check_cookie@4
  0001a	b8 00 00 00 00	 mov	 eax, OFFSET __ehfuncinfo$?ApplyExtraSkillInfo@ioFullShotSkill@@UAEXPAVioBaseChar@@PAVioPlayStage@@AAVSP2Packet@@@Z
  0001f	e9 00 00 00 00	 jmp	 ___CxxFrameHandler3
text$x	ENDS
?ApplyExtraSkillInfo@ioFullShotSkill@@UAEXPAVioBaseChar@@PAVioPlayStage@@AAVSP2Packet@@@Z ENDP ; ioFullShotSkill::ApplyExtraSkillInfo
PUBLIC	?CheckUseItemMesh@ioFullShotSkill@@UAE_NXZ	; ioFullShotSkill::CheckUseItemMesh
; Function compile flags: /Ogsp
;	COMDAT ?CheckUseItemMesh@ioFullShotSkill@@UAE_NXZ
_TEXT	SEGMENT
?CheckUseItemMesh@ioFullShotSkill@@UAE_NXZ PROC		; ioFullShotSkill::CheckUseItemMesh, COMDAT
; _this$ = ecx

; 732  : 	return m_bUseItemMesh;

  00000	8a 81 08 0f 00
	00		 mov	 al, BYTE PTR [ecx+3848]

; 733  : }

  00006	c3		 ret	 0
?CheckUseItemMesh@ioFullShotSkill@@UAE_NXZ ENDP		; ioFullShotSkill::CheckUseItemMesh
_TEXT	ENDS
PUBLIC	??A?$vector@UBulletInfo@@V?$allocator@UBulletInfo@@@std@@@std@@QAEAAUBulletInfo@@I@Z ; std::vector<BulletInfo,std::allocator<BulletInfo> >::operator[]
; Function compile flags: /Ogsp
; File c:\program files (x86)\microsoft visual studio 10.0\vc\include\vector
;	COMDAT ??A?$vector@UBulletInfo@@V?$allocator@UBulletInfo@@@std@@@std@@QAEAAUBulletInfo@@I@Z
_TEXT	SEGMENT
__Pos$ = 8						; size = 4
??A?$vector@UBulletInfo@@V?$allocator@UBulletInfo@@@std@@@std@@QAEAAUBulletInfo@@I@Z PROC ; std::vector<BulletInfo,std::allocator<BulletInfo> >::operator[], COMDAT
; _this$ = ecx

; 928  : 		{	// subscript mutable sequence

  00000	55		 push	 ebp
  00001	8b ec		 mov	 ebp, esp

; 929  :  #if _ITERATOR_DEBUG_LEVEL == 2
; 930  : 		if (size() <= _Pos)
; 931  : 			{	// report error
; 932  : 			_DEBUG_ERROR("vector subscript out of range");
; 933  : 			_SCL_SECURE_OUT_OF_RANGE;
; 934  : 			}
; 935  : 
; 936  :  #elif _ITERATOR_DEBUG_LEVEL == 1
; 937  : 		_SCL_SECURE_VALIDATE_RANGE(_Pos < size());
; 938  :  #endif /* _ITERATOR_DEBUG_LEVEL */
; 939  : 
; 940  : 		return (*(this->_Myfirst + _Pos));

  00003	8b 45 08	 mov	 eax, DWORD PTR __Pos$[ebp]
  00006	6b c0 14	 imul	 eax, 20			; 00000014H
  00009	03 01		 add	 eax, DWORD PTR [ecx]

; 941  : 		}

  0000b	5d		 pop	 ebp
  0000c	c2 04 00	 ret	 4
??A?$vector@UBulletInfo@@V?$allocator@UBulletInfo@@@std@@@std@@QAEAAUBulletInfo@@I@Z ENDP ; std::vector<BulletInfo,std::allocator<BulletInfo> >::operator[]
_TEXT	ENDS
PUBLIC	?size@?$vector@UBulletInfo@@V?$allocator@UBulletInfo@@@std@@@std@@QBEIXZ ; std::vector<BulletInfo,std::allocator<BulletInfo> >::size
; Function compile flags: /Ogsp
;	COMDAT ?size@?$vector@UBulletInfo@@V?$allocator@UBulletInfo@@@std@@@std@@QBEIXZ
_TEXT	SEGMENT
?size@?$vector@UBulletInfo@@V?$allocator@UBulletInfo@@@std@@@std@@QBEIXZ PROC ; std::vector<BulletInfo,std::allocator<BulletInfo> >::size, COMDAT
; _this$ = ecx

; 879  : 		return (this->_Mylast - this->_Myfirst);

  00000	8b 41 04	 mov	 eax, DWORD PTR [ecx+4]
  00003	2b 01		 sub	 eax, DWORD PTR [ecx]
  00005	6a 14		 push	 20			; 00000014H
  00007	99		 cdq
  00008	59		 pop	 ecx
  00009	f7 f9		 idiv	 ecx

; 880  : 		}

  0000b	c3		 ret	 0
?size@?$vector@UBulletInfo@@V?$allocator@UBulletInfo@@@std@@@std@@QBEIXZ ENDP ; std::vector<BulletInfo,std::allocator<BulletInfo> >::size
_TEXT	ENDS
PUBLIC	?_Inside@?$vector@UBulletInfo@@V?$allocator@UBulletInfo@@@std@@@std@@IBE_NPBUBulletInfo@@@Z ; std::vector<BulletInfo,std::allocator<BulletInfo> >::_Inside
; Function compile flags: /Ogsp
;	COMDAT ?_Inside@?$vector@UBulletInfo@@V?$allocator@UBulletInfo@@@std@@@std@@IBE_NPBUBulletInfo@@@Z
_TEXT	SEGMENT
__Ptr$ = 8						; size = 4
?_Inside@?$vector@UBulletInfo@@V?$allocator@UBulletInfo@@@std@@@std@@IBE_NPBUBulletInfo@@@Z PROC ; std::vector<BulletInfo,std::allocator<BulletInfo> >::_Inside, COMDAT
; _this$ = ecx

; 1285 : 		{	// test if _Ptr points inside vector

  00000	55		 push	 ebp
  00001	8b ec		 mov	 ebp, esp

; 1286 : 		return (_Ptr < this->_Mylast && this->_Myfirst <= _Ptr);

  00003	8b 45 08	 mov	 eax, DWORD PTR __Ptr$[ebp]
  00006	3b 41 04	 cmp	 eax, DWORD PTR [ecx+4]
  00009	73 09		 jae	 SHORT $LN3@Inside
  0000b	39 01		 cmp	 DWORD PTR [ecx], eax
  0000d	77 05		 ja	 SHORT $LN3@Inside
  0000f	33 c0		 xor	 eax, eax
  00011	40		 inc	 eax
  00012	eb 02		 jmp	 SHORT $LN4@Inside
$LN3@Inside:
  00014	33 c0		 xor	 eax, eax
$LN4@Inside:

; 1287 : 		}

  00016	5d		 pop	 ebp
  00017	c2 04 00	 ret	 4
?_Inside@?$vector@UBulletInfo@@V?$allocator@UBulletInfo@@@std@@@std@@IBE_NPBUBulletInfo@@@Z ENDP ; std::vector<BulletInfo,std::allocator<BulletInfo> >::_Inside
_TEXT	ENDS
PUBLIC	?_Orphan_range@?$vector@UBulletInfo@@V?$allocator@UBulletInfo@@@std@@@std@@IBEXPAUBulletInfo@@0@Z ; std::vector<BulletInfo,std::allocator<BulletInfo> >::_Orphan_range
; Function compile flags: /Ogsp
;	COMDAT ?_Orphan_range@?$vector@UBulletInfo@@V?$allocator@UBulletInfo@@@std@@@std@@IBEXPAUBulletInfo@@0@Z
_TEXT	SEGMENT
___formal$ = 8						; size = 4
___formal$ = 12						; size = 4
?_Orphan_range@?$vector@UBulletInfo@@V?$allocator@UBulletInfo@@@std@@@std@@IBEXPAUBulletInfo@@0@Z PROC ; std::vector<BulletInfo,std::allocator<BulletInfo> >::_Orphan_range, COMDAT
; _this$ = ecx

; 1454 : 		}

  00000	c2 08 00	 ret	 8
?_Orphan_range@?$vector@UBulletInfo@@V?$allocator@UBulletInfo@@@std@@@std@@IBEXPAUBulletInfo@@0@Z ENDP ; std::vector<BulletInfo,std::allocator<BulletInfo> >::_Orphan_range
_TEXT	ENDS
PUBLIC	??1?$_Vector_val@UBulletInfo@@V?$allocator@UBulletInfo@@@std@@@std@@QAE@XZ ; std::_Vector_val<BulletInfo,std::allocator<BulletInfo> >::~_Vector_val<BulletInfo,std::allocator<BulletInfo> >
; Function compile flags: /Ogsp
;	COMDAT ??1?$_Vector_val@UBulletInfo@@V?$allocator@UBulletInfo@@@std@@@std@@QAE@XZ
_TEXT	SEGMENT
??1?$_Vector_val@UBulletInfo@@V?$allocator@UBulletInfo@@@std@@@std@@QAE@XZ PROC ; std::_Vector_val<BulletInfo,std::allocator<BulletInfo> >::~_Vector_val<BulletInfo,std::allocator<BulletInfo> >, COMDAT
; _this$ = ecx

; 434  : 		}

  00000	c3		 ret	 0
??1?$_Vector_val@UBulletInfo@@V?$allocator@UBulletInfo@@@std@@@std@@QAE@XZ ENDP ; std::_Vector_val<BulletInfo,std::allocator<BulletInfo> >::~_Vector_val<BulletInfo,std::allocator<BulletInfo> >
_TEXT	ENDS
PUBLIC	??0?$allocator@UBulletInfo@@@std@@QAE@XZ	; std::allocator<BulletInfo>::allocator<BulletInfo>
; Function compile flags: /Ogsp
; File c:\program files (x86)\microsoft visual studio 10.0\vc\include\xmemory
;	COMDAT ??0?$allocator@UBulletInfo@@@std@@QAE@XZ
_TEXT	SEGMENT
??0?$allocator@UBulletInfo@@@std@@QAE@XZ PROC		; std::allocator<BulletInfo>::allocator<BulletInfo>, COMDAT
; _this$ = ecx

; 161  : 	_ALLOCATOR() _THROW0()

  00000	8b c1		 mov	 eax, ecx

; 162  : 		{	// construct default allocator (do nothing)
; 163  : 		}

  00002	c3		 ret	 0
??0?$allocator@UBulletInfo@@@std@@QAE@XZ ENDP		; std::allocator<BulletInfo>::allocator<BulletInfo>
_TEXT	ENDS
PUBLIC	??0?$allocator@UBulletInfo@@@std@@QAE@ABV01@@Z	; std::allocator<BulletInfo>::allocator<BulletInfo>
; Function compile flags: /Ogsp
;	COMDAT ??0?$allocator@UBulletInfo@@@std@@QAE@ABV01@@Z
_TEXT	SEGMENT
___formal$ = 8						; size = 4
??0?$allocator@UBulletInfo@@@std@@QAE@ABV01@@Z PROC	; std::allocator<BulletInfo>::allocator<BulletInfo>, COMDAT
; _this$ = ecx

; 165  : 	_ALLOCATOR(const _ALLOCATOR<_Ty>&) _THROW0()

  00000	8b c1		 mov	 eax, ecx

; 166  : 		{	// construct by copying (do nothing)
; 167  : 		}

  00002	c2 04 00	 ret	 4
??0?$allocator@UBulletInfo@@@std@@QAE@ABV01@@Z ENDP	; std::allocator<BulletInfo>::allocator<BulletInfo>
_TEXT	ENDS
PUBLIC	?capacity@?$vector@UBulletInfo@@V?$allocator@UBulletInfo@@@std@@@std@@QBEIXZ ; std::vector<BulletInfo,std::allocator<BulletInfo> >::capacity
; Function compile flags: /Ogsp
; File c:\program files (x86)\microsoft visual studio 10.0\vc\include\vector
;	COMDAT ?capacity@?$vector@UBulletInfo@@V?$allocator@UBulletInfo@@@std@@@std@@QBEIXZ
_TEXT	SEGMENT
?capacity@?$vector@UBulletInfo@@V?$allocator@UBulletInfo@@@std@@@std@@QBEIXZ PROC ; std::vector<BulletInfo,std::allocator<BulletInfo> >::capacity, COMDAT
; _this$ = ecx

; 777  : 		return (this->_Myend - this->_Myfirst);

  00000	8b 41 08	 mov	 eax, DWORD PTR [ecx+8]
  00003	2b 01		 sub	 eax, DWORD PTR [ecx]
  00005	6a 14		 push	 20			; 00000014H
  00007	99		 cdq
  00008	59		 pop	 ecx
  00009	f7 f9		 idiv	 ecx

; 778  : 		}

  0000b	c3		 ret	 0
?capacity@?$vector@UBulletInfo@@V?$allocator@UBulletInfo@@@std@@@std@@QBEIXZ ENDP ; std::vector<BulletInfo,std::allocator<BulletInfo> >::capacity
_TEXT	ENDS
PUBLIC	??_C@_0BD@OLBABOEK@vector?$DMT?$DO?5too?5long?$AA@ ; `string'
PUBLIC	?_Xlen@?$vector@UBulletInfo@@V?$allocator@UBulletInfo@@@std@@@std@@IBEXXZ ; std::vector<BulletInfo,std::allocator<BulletInfo> >::_Xlen
EXTRN	__imp_?_Xlength_error@std@@YAXPBD@Z:PROC
;	COMDAT ??_C@_0BD@OLBABOEK@vector?$DMT?$DO?5too?5long?$AA@
CONST	SEGMENT
??_C@_0BD@OLBABOEK@vector?$DMT?$DO?5too?5long?$AA@ DB 'vector<T> too long'
	DB	00H						; `string'
; Function compile flags: /Ogsp
CONST	ENDS
;	COMDAT ?_Xlen@?$vector@UBulletInfo@@V?$allocator@UBulletInfo@@@std@@@std@@IBEXXZ
_TEXT	SEGMENT
?_Xlen@?$vector@UBulletInfo@@V?$allocator@UBulletInfo@@@std@@@std@@IBEXXZ PROC ; std::vector<BulletInfo,std::allocator<BulletInfo> >::_Xlen, COMDAT
; _this$ = ecx

; 1427 : 		_Xlength_error("vector<T> too long");

  00000	68 00 00 00 00	 push	 OFFSET ??_C@_0BD@OLBABOEK@vector?$DMT?$DO?5too?5long?$AA@
  00005	ff 15 00 00 00
	00		 call	 DWORD PTR __imp_?_Xlength_error@std@@YAXPBD@Z
$LN4@Xlen:
$LN3@Xlen:
  0000b	cc		 int	 3
?_Xlen@?$vector@UBulletInfo@@V?$allocator@UBulletInfo@@@std@@@std@@IBEXXZ ENDP ; std::vector<BulletInfo,std::allocator<BulletInfo> >::_Xlen
_TEXT	ENDS
PUBLIC	?deallocate@?$allocator@UBulletInfo@@@std@@QAEXPAUBulletInfo@@I@Z ; std::allocator<BulletInfo>::deallocate
; Function compile flags: /Ogsp
; File c:\program files (x86)\microsoft visual studio 10.0\vc\include\xmemory
;	COMDAT ?deallocate@?$allocator@UBulletInfo@@@std@@QAEXPAUBulletInfo@@I@Z
_TEXT	SEGMENT
__Ptr$ = 8						; size = 4
___formal$ = 12						; size = 4
?deallocate@?$allocator@UBulletInfo@@@std@@QAEXPAUBulletInfo@@I@Z PROC ; std::allocator<BulletInfo>::deallocate, COMDAT
; _this$ = ecx

; 181  : 		{	// deallocate object at _Ptr, ignore size

  00000	55		 push	 ebp
  00001	8b ec		 mov	 ebp, esp

; 182  : 		::operator delete(_Ptr);

  00003	ff 75 08	 push	 DWORD PTR __Ptr$[ebp]
  00006	e8 00 00 00 00	 call	 ??3@YAXPAX@Z		; operator delete
  0000b	59		 pop	 ecx

; 183  : 		}

  0000c	5d		 pop	 ebp
  0000d	c2 08 00	 ret	 8
?deallocate@?$allocator@UBulletInfo@@@std@@QAEXPAUBulletInfo@@I@Z ENDP ; std::allocator<BulletInfo>::deallocate
_TEXT	ENDS
PUBLIC	??0?$_Vector_const_iterator@V?$_Vector_val@UBulletInfo@@V?$allocator@UBulletInfo@@@std@@@std@@@std@@QAE@PAUBulletInfo@@PBU_Container_base0@1@@Z ; std::_Vector_const_iterator<std::_Vector_val<BulletInfo,std::allocator<BulletInfo> > >::_Vector_const_iterator<std::_Vector_val<BulletInfo,std::allocator<BulletInfo> > >
; Function compile flags: /Ogsp
; File c:\program files (x86)\microsoft visual studio 10.0\vc\include\vector
;	COMDAT ??0?$_Vector_const_iterator@V?$_Vector_val@UBulletInfo@@V?$allocator@UBulletInfo@@@std@@@std@@@std@@QAE@PAUBulletInfo@@PBU_Container_base0@1@@Z
_TEXT	SEGMENT
__Parg$ = 8						; size = 4
__Pvector$ = 12						; size = 4
??0?$_Vector_const_iterator@V?$_Vector_val@UBulletInfo@@V?$allocator@UBulletInfo@@@std@@@std@@@std@@QAE@PAUBulletInfo@@PBU_Container_base0@1@@Z PROC ; std::_Vector_const_iterator<std::_Vector_val<BulletInfo,std::allocator<BulletInfo> > >::_Vector_const_iterator<std::_Vector_val<BulletInfo,std::allocator<BulletInfo> > >, COMDAT
; _this$ = ecx

; 45   : 		{	// construct with pointer _Parg

  00000	55		 push	 ebp
  00001	8b ec		 mov	 ebp, esp
  00003	8b c1		 mov	 eax, ecx
  00005	8b 4d 08	 mov	 ecx, DWORD PTR __Parg$[ebp]
  00008	89 08		 mov	 DWORD PTR [eax], ecx

; 46   : 		this->_Adopt(_Pvector);
; 47   : 		}

  0000a	5d		 pop	 ebp
  0000b	c2 08 00	 ret	 8
??0?$_Vector_const_iterator@V?$_Vector_val@UBulletInfo@@V?$allocator@UBulletInfo@@@std@@@std@@@std@@QAE@PAUBulletInfo@@PBU_Container_base0@1@@Z ENDP ; std::_Vector_const_iterator<std::_Vector_val<BulletInfo,std::allocator<BulletInfo> > >::_Vector_const_iterator<std::_Vector_val<BulletInfo,std::allocator<BulletInfo> > >
_TEXT	ENDS
PUBLIC	??0?$_Vector_iterator@V?$_Vector_val@UBulletInfo@@V?$allocator@UBulletInfo@@@std@@@std@@@std@@QAE@PAUBulletInfo@@PBU_Container_base0@1@@Z ; std::_Vector_iterator<std::_Vector_val<BulletInfo,std::allocator<BulletInfo> > >::_Vector_iterator<std::_Vector_val<BulletInfo,std::allocator<BulletInfo> > >
; Function compile flags: /Ogsp
;	COMDAT ??0?$_Vector_iterator@V?$_Vector_val@UBulletInfo@@V?$allocator@UBulletInfo@@@std@@@std@@@std@@QAE@PAUBulletInfo@@PBU_Container_base0@1@@Z
_TEXT	SEGMENT
__Parg$ = 8						; size = 4
__Pvector$ = 12						; size = 4
??0?$_Vector_iterator@V?$_Vector_val@UBulletInfo@@V?$allocator@UBulletInfo@@@std@@@std@@@std@@QAE@PAUBulletInfo@@PBU_Container_base0@1@@Z PROC ; std::_Vector_iterator<std::_Vector_val<BulletInfo,std::allocator<BulletInfo> > >::_Vector_iterator<std::_Vector_val<BulletInfo,std::allocator<BulletInfo> > >, COMDAT
; _this$ = ecx

; 304  : 		{	// construct with pointer _Parg

  00000	55		 push	 ebp
  00001	8b ec		 mov	 ebp, esp
  00003	8b c1		 mov	 eax, ecx
  00005	8b 4d 08	 mov	 ecx, DWORD PTR __Parg$[ebp]
  00008	89 08		 mov	 DWORD PTR [eax], ecx

; 305  : 		}

  0000a	5d		 pop	 ebp
  0000b	c2 08 00	 ret	 8
??0?$_Vector_iterator@V?$_Vector_val@UBulletInfo@@V?$allocator@UBulletInfo@@@std@@@std@@@std@@QAE@PAUBulletInfo@@PBU_Container_base0@1@@Z ENDP ; std::_Vector_iterator<std::_Vector_val<BulletInfo,std::allocator<BulletInfo> > >::_Vector_iterator<std::_Vector_val<BulletInfo,std::allocator<BulletInfo> > >
_TEXT	ENDS
PUBLIC	?max_size@?$allocator@UBulletInfo@@@std@@QBEIXZ	; std::allocator<BulletInfo>::max_size
; Function compile flags: /Ogsp
; File c:\program files (x86)\microsoft visual studio 10.0\vc\include\xmemory
;	COMDAT ?max_size@?$allocator@UBulletInfo@@@std@@QBEIXZ
_TEXT	SEGMENT
?max_size@?$allocator@UBulletInfo@@@std@@QBEIXZ PROC	; std::allocator<BulletInfo>::max_size, COMDAT
; _this$ = ecx

; 218  : 		_SIZT _Count = (_SIZT)(-1) / sizeof (_Ty);
; 219  : 		return (0 < _Count ? _Count : 1);

  00000	b8 cc cc cc 0c	 mov	 eax, 214748364		; 0cccccccH

; 220  : 		}

  00005	c3		 ret	 0
?max_size@?$allocator@UBulletInfo@@@std@@QBEIXZ ENDP	; std::allocator<BulletInfo>::max_size
_TEXT	ENDS
PUBLIC	?_Compat@?$_Vector_const_iterator@V?$_Vector_val@UBulletInfo@@V?$allocator@UBulletInfo@@@std@@@std@@@std@@QBEXABV12@@Z ; std::_Vector_const_iterator<std::_Vector_val<BulletInfo,std::allocator<BulletInfo> > >::_Compat
; Function compile flags: /Ogsp
; File c:\program files (x86)\microsoft visual studio 10.0\vc\include\vector
;	COMDAT ?_Compat@?$_Vector_const_iterator@V?$_Vector_val@UBulletInfo@@V?$allocator@UBulletInfo@@@std@@@std@@@std@@QBEXABV12@@Z
_TEXT	SEGMENT
___formal$ = 8						; size = 4
?_Compat@?$_Vector_const_iterator@V?$_Vector_val@UBulletInfo@@V?$allocator@UBulletInfo@@@std@@@std@@@std@@QBEXABV12@@Z PROC ; std::_Vector_const_iterator<std::_Vector_val<BulletInfo,std::allocator<BulletInfo> > >::_Compat, COMDAT
; _this$ = ecx

; 253  : 		}

  00000	c2 04 00	 ret	 4
?_Compat@?$_Vector_const_iterator@V?$_Vector_val@UBulletInfo@@V?$allocator@UBulletInfo@@@std@@@std@@@std@@QBEXABV12@@Z ENDP ; std::_Vector_const_iterator<std::_Vector_val<BulletInfo,std::allocator<BulletInfo> > >::_Compat
_TEXT	ENDS
PUBLIC	__real@3f91df46a2526c7a
PUBLIC	??$DEGtoRAD@M@@YAMM@Z				; DEGtoRAD<float>
;	COMDAT __real@3f91df46a2526c7a
; File d:\lost saga for developer\youtube\tutorial\source\src\lsclient\veryoftenusedefine.h
CONST	SEGMENT
__real@3f91df46a2526c7a DQ 03f91df46a2526c7ar	; 0.0174533
; Function compile flags: /Ogsp
CONST	ENDS
;	COMDAT ??$DEGtoRAD@M@@YAMM@Z
_TEXT	SEGMENT
tv129 = 8						; size = 4
_val$ = 8						; size = 4
??$DEGtoRAD@M@@YAMM@Z PROC				; DEGtoRAD<float>, COMDAT

; 20   : type  DEGtoRAD (type val) {return (type) (val * 0.0174532925199);}

  00000	55		 push	 ebp
  00001	8b ec		 mov	 ebp, esp
  00003	d9 45 08	 fld	 DWORD PTR _val$[ebp]
  00006	dc 0d 00 00 00
	00		 fmul	 QWORD PTR __real@3f91df46a2526c7a
  0000c	d9 5d 08	 fstp	 DWORD PTR tv129[ebp]
  0000f	d9 45 08	 fld	 DWORD PTR tv129[ebp]
  00012	5d		 pop	 ebp
  00013	c3		 ret	 0
??$DEGtoRAD@M@@YAMM@Z ENDP				; DEGtoRAD<float>
_TEXT	ENDS
PUBLIC	??$addressof@$$CBUBulletInfo@@@std@@YAPBUBulletInfo@@ABU1@@Z ; std::addressof<BulletInfo const >
; Function compile flags: /Ogsp
; File c:\program files (x86)\microsoft visual studio 10.0\vc\include\xmemory
;	COMDAT ??$addressof@$$CBUBulletInfo@@@std@@YAPBUBulletInfo@@ABU1@@Z
_TEXT	SEGMENT
__Val$ = 8						; size = 4
??$addressof@$$CBUBulletInfo@@@std@@YAPBUBulletInfo@@ABU1@@Z PROC ; std::addressof<BulletInfo const >, COMDAT

; 110  : 	{	// return address of _Val

  00000	55		 push	 ebp
  00001	8b ec		 mov	 ebp, esp

; 111  : 	return ((_Ty *) &(char&)_Val);

  00003	8b 45 08	 mov	 eax, DWORD PTR __Val$[ebp]

; 112  : 	}

  00006	5d		 pop	 ebp
  00007	c3		 ret	 0
??$addressof@$$CBUBulletInfo@@@std@@YAPBUBulletInfo@@ABU1@@Z ENDP ; std::addressof<BulletInfo const >
_TEXT	ENDS
PUBLIC	__TI2?AVbad_alloc@std@@
PUBLIC	??$_Allocate@UBulletInfo@@@std@@YAPAUBulletInfo@@IPAU1@@Z ; std::_Allocate<BulletInfo>
PUBLIC	__CTA2?AVbad_alloc@std@@
PUBLIC	__CT??_R0?AVbad_alloc@std@@@8??0bad_alloc@std@@QAE@ABV01@@Z12
PUBLIC	??0bad_alloc@std@@QAE@ABV01@@Z			; std::bad_alloc::bad_alloc
PUBLIC	__CT??_R0?AVexception@std@@@8??0exception@std@@QAE@ABV01@@Z12
EXTRN	??2@YAPAXI@Z:PROC				; operator new
EXTRN	__CxxThrowException@8:PROC
EXTRN	??0exception@std@@QAE@ABV01@@Z:PROC		; std::exception::exception
;	COMDAT __CT??_R0?AVexception@std@@@8??0exception@std@@QAE@ABV01@@Z12
; File c:\program files (x86)\microsoft visual studio 10.0\vc\include\exception
xdata$x	SEGMENT
__CT??_R0?AVexception@std@@@8??0exception@std@@QAE@ABV01@@Z12 DD 00H
	DD	FLAT:??_R0?AVexception@std@@@8
	DD	00H
	DD	0ffffffffH
	ORG $+4
	DD	0cH
	DD	FLAT:??0exception@std@@QAE@ABV01@@Z
xdata$x	ENDS
;	COMDAT __CT??_R0?AVbad_alloc@std@@@8??0bad_alloc@std@@QAE@ABV01@@Z12
xdata$x	SEGMENT
__CT??_R0?AVbad_alloc@std@@@8??0bad_alloc@std@@QAE@ABV01@@Z12 DD 00H
	DD	FLAT:??_R0?AVbad_alloc@std@@@8
	DD	00H
	DD	0ffffffffH
	ORG $+4
	DD	0cH
	DD	FLAT:??0bad_alloc@std@@QAE@ABV01@@Z
xdata$x	ENDS
;	COMDAT __CTA2?AVbad_alloc@std@@
xdata$x	SEGMENT
__CTA2?AVbad_alloc@std@@ DD 02H
	DD	FLAT:__CT??_R0?AVbad_alloc@std@@@8??0bad_alloc@std@@QAE@ABV01@@Z12
	DD	FLAT:__CT??_R0?AVexception@std@@@8??0exception@std@@QAE@ABV01@@Z12
xdata$x	ENDS
;	COMDAT __TI2?AVbad_alloc@std@@
xdata$x	SEGMENT
__TI2?AVbad_alloc@std@@ DD 00H
	DD	FLAT:??1bad_alloc@std@@UAE@XZ
	DD	00H
	DD	FLAT:__CTA2?AVbad_alloc@std@@
; Function compile flags: /Ogsp
; File c:\program files (x86)\microsoft visual studio 10.0\vc\include\xmemory
xdata$x	ENDS
;	COMDAT ??$_Allocate@UBulletInfo@@@std@@YAPAUBulletInfo@@IPAU1@@Z
_TEXT	SEGMENT
$T606270 = -12						; size = 12
$T606275 = 8						; size = 4
__Count$ = 8						; size = 4
___formal$ = 12						; size = 4
??$_Allocate@UBulletInfo@@@std@@YAPAUBulletInfo@@IPAU1@@Z PROC ; std::_Allocate<BulletInfo>, COMDAT

; 30   : 	{	// allocate storage for _Count elements of type _Ty

  00000	55		 push	 ebp
  00001	8b ec		 mov	 ebp, esp

; 31   : 	void *_Ptr = 0;
; 32   : 
; 33   : 	if (_Count <= 0)

  00003	8b 4d 08	 mov	 ecx, DWORD PTR __Count$[ebp]
  00006	83 ec 0c	 sub	 esp, 12			; 0000000cH
  00009	33 c0		 xor	 eax, eax
  0000b	85 c9		 test	 ecx, ecx

; 34   : 		_Count = 0;
; 35   : 	else if (((_SIZT)(-1) / sizeof (_Ty) < _Count)

  0000d	74 3c		 je	 SHORT $LN5@Allocate

; 36   : 		|| (_Ptr = ::operator new(_Count * sizeof (_Ty))) == 0)

  0000f	81 f9 cc cc cc
	0c		 cmp	 ecx, 214748364		; 0cccccccH
  00015	77 0e		 ja	 SHORT $LN1@Allocate
  00017	6b c9 14	 imul	 ecx, 20			; 00000014H
  0001a	51		 push	 ecx
  0001b	e8 00 00 00 00	 call	 ??2@YAPAXI@Z		; operator new
  00020	59		 pop	 ecx
  00021	85 c0		 test	 eax, eax

; 38   : 
; 39   : 	return ((_Ty _FARQ *)_Ptr);

  00023	75 26		 jne	 SHORT $LN5@Allocate
$LN1@Allocate:

; 37   : 		_THROW_NCEE(bad_alloc, 0);

  00025	83 65 08 00	 and	 DWORD PTR $T606275[ebp], 0
  00029	8d 45 08	 lea	 eax, DWORD PTR $T606275[ebp]
  0002c	50		 push	 eax
  0002d	8d 4d f4	 lea	 ecx, DWORD PTR $T606270[ebp]
  00030	ff 15 00 00 00
	00		 call	 DWORD PTR __imp_??0exception@std@@QAE@ABQBD@Z
  00036	68 00 00 00 00	 push	 OFFSET __TI2?AVbad_alloc@std@@
  0003b	8d 45 f4	 lea	 eax, DWORD PTR $T606270[ebp]
  0003e	50		 push	 eax
  0003f	c7 45 f4 00 00
	00 00		 mov	 DWORD PTR $T606270[ebp], OFFSET ??_7bad_alloc@std@@6B@
  00046	e8 00 00 00 00	 call	 __CxxThrowException@8
$LN10@Allocate:
$LN5@Allocate:

; 40   : 	}

  0004b	c9		 leave
  0004c	c3		 ret	 0
$LN9@Allocate:
??$_Allocate@UBulletInfo@@@std@@YAPAUBulletInfo@@IPAU1@@Z ENDP ; std::_Allocate<BulletInfo>
_TEXT	ENDS
PUBLIC	??$forward@AAUBulletInfo@@@std@@YAAAUBulletInfo@@AAU1@@Z ; std::forward<BulletInfo &>
; Function compile flags: /Ogsp
; File c:\program files (x86)\microsoft visual studio 10.0\vc\include\utility
;	COMDAT ??$forward@AAUBulletInfo@@@std@@YAAAUBulletInfo@@AAU1@@Z
_TEXT	SEGMENT
__Arg$ = 8						; size = 4
??$forward@AAUBulletInfo@@@std@@YAAAUBulletInfo@@AAU1@@Z PROC ; std::forward<BulletInfo &>, COMDAT

; 78   : 	{	// forward _Arg, given explicitly specified type parameter

  00000	55		 push	 ebp
  00001	8b ec		 mov	 ebp, esp

; 79   : 	return ((_Ty&&)_Arg);

  00003	8b 45 08	 mov	 eax, DWORD PTR __Arg$[ebp]

; 80   : 	}

  00006	5d		 pop	 ebp
  00007	c3		 ret	 0
??$forward@AAUBulletInfo@@@std@@YAAAUBulletInfo@@AAU1@@Z ENDP ; std::forward<BulletInfo &>
_TEXT	ENDS
PUBLIC	??$construct@AAUBulletInfo@@@?$allocator@UBulletInfo@@@std@@QAEXPAUBulletInfo@@AAU2@@Z ; std::allocator<BulletInfo>::construct<BulletInfo &>
; Function compile flags: /Ogsp
; File c:\program files (x86)\microsoft visual studio 10.0\vc\include\xmemory
;	COMDAT ??$construct@AAUBulletInfo@@@?$allocator@UBulletInfo@@@std@@QAEXPAUBulletInfo@@AAU2@@Z
_TEXT	SEGMENT
__Ptr$ = 8						; size = 4
__Val$ = 12						; size = 4
??$construct@AAUBulletInfo@@@?$allocator@UBulletInfo@@@std@@QAEXPAUBulletInfo@@AAU2@@Z PROC ; std::allocator<BulletInfo>::construct<BulletInfo &>, COMDAT
; _this$ = ecx

; 206  : 		void construct(pointer _Ptr, _Other&& _Val)

  00000	55		 push	 ebp
  00001	8b ec		 mov	 ebp, esp
  00003	57		 push	 edi

; 207  : 		{	// construct object at _Ptr with value _Val
; 208  : 		::new ((void _FARQ *)_Ptr) _Ty(_STD forward<_Other>(_Val));

  00004	8b 7d 08	 mov	 edi, DWORD PTR __Ptr$[ebp]
  00007	85 ff		 test	 edi, edi
  00009	74 0a		 je	 SHORT $LN3@construct
  0000b	56		 push	 esi
  0000c	8b 75 0c	 mov	 esi, DWORD PTR __Val$[ebp]
  0000f	6a 05		 push	 5
  00011	59		 pop	 ecx
  00012	f3 a5		 rep movsd
  00014	5e		 pop	 esi
$LN3@construct:
  00015	5f		 pop	 edi

; 209  : 		}

  00016	5d		 pop	 ebp
  00017	c2 08 00	 ret	 8
??$construct@AAUBulletInfo@@@?$allocator@UBulletInfo@@@std@@QAEXPAUBulletInfo@@AAU2@@Z ENDP ; std::allocator<BulletInfo>::construct<BulletInfo &>
_TEXT	ENDS
PUBLIC	??$forward@ABUBulletInfo@@@std@@YAABUBulletInfo@@ABU1@@Z ; std::forward<BulletInfo const &>
; Function compile flags: /Ogsp
; File c:\program files (x86)\microsoft visual studio 10.0\vc\include\utility
;	COMDAT ??$forward@ABUBulletInfo@@@std@@YAABUBulletInfo@@ABU1@@Z
_TEXT	SEGMENT
__Arg$ = 8						; size = 4
??$forward@ABUBulletInfo@@@std@@YAABUBulletInfo@@ABU1@@Z PROC ; std::forward<BulletInfo const &>, COMDAT

; 78   : 	{	// forward _Arg, given explicitly specified type parameter

  00000	55		 push	 ebp
  00001	8b ec		 mov	 ebp, esp

; 79   : 	return ((_Ty&&)_Arg);

  00003	8b 45 08	 mov	 eax, DWORD PTR __Arg$[ebp]

; 80   : 	}

  00006	5d		 pop	 ebp
  00007	c3		 ret	 0
??$forward@ABUBulletInfo@@@std@@YAABUBulletInfo@@ABU1@@Z ENDP ; std::forward<BulletInfo const &>
_TEXT	ENDS
PUBLIC	??$_Ptr_cat@UBulletInfo@@U1@@std@@YA?AU_Nonscalar_ptr_iterator_tag@0@PAUBulletInfo@@0@Z ; std::_Ptr_cat<BulletInfo,BulletInfo>
; Function compile flags: /Ogsp
; File c:\program files (x86)\microsoft visual studio 10.0\vc\include\xutility
;	COMDAT ??$_Ptr_cat@UBulletInfo@@U1@@std@@YA?AU_Nonscalar_ptr_iterator_tag@0@PAUBulletInfo@@0@Z
_TEXT	SEGMENT
__Cat$ = -1						; size = 1
___formal$ = 8						; size = 4
___formal$ = 12						; size = 4
??$_Ptr_cat@UBulletInfo@@U1@@std@@YA?AU_Nonscalar_ptr_iterator_tag@0@PAUBulletInfo@@0@Z PROC ; std::_Ptr_cat<BulletInfo,BulletInfo>, COMDAT

; 516  : 	{	// return pointer category from pointers

  00000	55		 push	 ebp
  00001	8b ec		 mov	 ebp, esp
  00003	51		 push	 ecx

; 517  : 	typename _Ptr_cat_helper<_Elem1, _Elem2>::_Type _Cat;
; 518  : 	return (_Cat);

  00004	8a 45 ff	 mov	 al, BYTE PTR __Cat$[ebp]

; 519  : 	}

  00007	c9		 leave
  00008	c3		 ret	 0
??$_Ptr_cat@UBulletInfo@@U1@@std@@YA?AU_Nonscalar_ptr_iterator_tag@0@PAUBulletInfo@@0@Z ENDP ; std::_Ptr_cat<BulletInfo,BulletInfo>
_TEXT	ENDS
PUBLIC	??$_Construct@UBulletInfo@@ABU1@@std@@YAXPAUBulletInfo@@ABU1@@Z ; std::_Construct<BulletInfo,BulletInfo const &>
; Function compile flags: /Ogsp
; File c:\program files (x86)\microsoft visual studio 10.0\vc\include\xmemory
;	COMDAT ??$_Construct@UBulletInfo@@ABU1@@std@@YAXPAUBulletInfo@@ABU1@@Z
_TEXT	SEGMENT
__Ptr$ = 8						; size = 4
__Val$ = 12						; size = 4
??$_Construct@UBulletInfo@@ABU1@@std@@YAXPAUBulletInfo@@ABU1@@Z PROC ; std::_Construct<BulletInfo,BulletInfo const &>, COMDAT

; 46   : 	{	// construct object at _Ptr with value _Val

  00000	55		 push	 ebp
  00001	8b ec		 mov	 ebp, esp
  00003	57		 push	 edi

; 47   : 	void _FARQ *_Vptr = _Ptr;
; 48   : 	::new (_Vptr) _Ty1(_STD forward<_Ty2>(_Val));

  00004	8b 7d 08	 mov	 edi, DWORD PTR __Ptr$[ebp]
  00007	85 ff		 test	 edi, edi
  00009	74 0a		 je	 SHORT $LN3@Construct
  0000b	56		 push	 esi
  0000c	8b 75 0c	 mov	 esi, DWORD PTR __Val$[ebp]
  0000f	6a 05		 push	 5
  00011	59		 pop	 ecx
  00012	f3 a5		 rep movsd
  00014	5e		 pop	 esi
$LN3@Construct:
  00015	5f		 pop	 edi

; 49   : 	}

  00016	5d		 pop	 ebp
  00017	c3		 ret	 0
??$_Construct@UBulletInfo@@ABU1@@std@@YAXPAUBulletInfo@@ABU1@@Z ENDP ; std::_Construct<BulletInfo,BulletInfo const &>
_TEXT	ENDS
PUBLIC	??$_Ptr_cat@V?$_Vector_const_iterator@V?$_Vector_val@UBulletInfo@@V?$allocator@UBulletInfo@@@std@@@std@@@std@@PAUBulletInfo@@@std@@YA?AU_Nonscalar_ptr_iterator_tag@0@AAV?$_Vector_const_iterator@V?$_Vector_val@UBulletInfo@@V?$allocator@UBulletInfo@@@std@@@std@@@0@AAPAUBulletInfo@@@Z ; std::_Ptr_cat<std::_Vector_const_iterator<std::_Vector_val<BulletInfo,std::allocator<BulletInfo> > >,BulletInfo *>
; Function compile flags: /Ogsp
; File c:\program files (x86)\microsoft visual studio 10.0\vc\include\xutility
;	COMDAT ??$_Ptr_cat@V?$_Vector_const_iterator@V?$_Vector_val@UBulletInfo@@V?$allocator@UBulletInfo@@@std@@@std@@@std@@PAUBulletInfo@@@std@@YA?AU_Nonscalar_ptr_iterator_tag@0@AAV?$_Vector_const_iterator@V?$_Vector_val@UBulletInfo@@V?$allocator@UBulletInfo@@@std@@@std@@@0@AAPAUBulletInfo@@@Z
_TEXT	SEGMENT
__Cat$ = -1						; size = 1
___formal$ = 8						; size = 4
___formal$ = 12						; size = 4
??$_Ptr_cat@V?$_Vector_const_iterator@V?$_Vector_val@UBulletInfo@@V?$allocator@UBulletInfo@@@std@@@std@@@std@@PAUBulletInfo@@@std@@YA?AU_Nonscalar_ptr_iterator_tag@0@AAV?$_Vector_const_iterator@V?$_Vector_val@UBulletInfo@@V?$allocator@UBulletInfo@@@std@@@std@@@0@AAPAUBulletInfo@@@Z PROC ; std::_Ptr_cat<std::_Vector_const_iterator<std::_Vector_val<BulletInfo,std::allocator<BulletInfo> > >,BulletInfo *>, COMDAT

; 485  : 	{	// return pointer category from arbitrary arguments

  00000	55		 push	 ebp
  00001	8b ec		 mov	 ebp, esp
  00003	51		 push	 ecx

; 486  : 	_Nonscalar_ptr_iterator_tag _Cat;
; 487  : 	return (_Cat);

  00004	8a 45 ff	 mov	 al, BYTE PTR __Cat$[ebp]

; 488  : 	}

  00007	c9		 leave
  00008	c3		 ret	 0
??$_Ptr_cat@V?$_Vector_const_iterator@V?$_Vector_val@UBulletInfo@@V?$allocator@UBulletInfo@@@std@@@std@@@std@@PAUBulletInfo@@@std@@YA?AU_Nonscalar_ptr_iterator_tag@0@AAV?$_Vector_const_iterator@V?$_Vector_val@UBulletInfo@@V?$allocator@UBulletInfo@@@std@@@std@@@0@AAPAUBulletInfo@@@Z ENDP ; std::_Ptr_cat<std::_Vector_const_iterator<std::_Vector_val<BulletInfo,std::allocator<BulletInfo> > >,BulletInfo *>
_TEXT	ENDS
PUBLIC	??$move@AAUBulletInfo@@@std@@YA$$QAUBulletInfo@@AAU1@@Z ; std::move<BulletInfo &>
; Function compile flags: /Ogsp
; File c:\program files (x86)\microsoft visual studio 10.0\vc\include\utility
;	COMDAT ??$move@AAUBulletInfo@@@std@@YA$$QAUBulletInfo@@AAU1@@Z
_TEXT	SEGMENT
__Arg$ = 8						; size = 4
??$move@AAUBulletInfo@@@std@@YA$$QAUBulletInfo@@AAU1@@Z PROC ; std::move<BulletInfo &>, COMDAT

; 86   : 	{	// forward _Arg as movable

  00000	55		 push	 ebp
  00001	8b ec		 mov	 ebp, esp

; 87   : 	return ((typename tr1::_Remove_reference<_Ty>::_Type&&)_Arg);

  00003	8b 45 08	 mov	 eax, DWORD PTR __Arg$[ebp]

; 88   : 	}

  00006	5d		 pop	 ebp
  00007	c3		 ret	 0
??$move@AAUBulletInfo@@@std@@YA$$QAUBulletInfo@@AAU1@@Z ENDP ; std::move<BulletInfo &>
_TEXT	ENDS
PUBLIC	??$_Val_type@PAUBulletInfo@@@std@@YAPAUBulletInfo@@PAU1@@Z ; std::_Val_type<BulletInfo *>
; Function compile flags: /Ogsp
; File c:\program files (x86)\microsoft visual studio 10.0\vc\include\xutility
;	COMDAT ??$_Val_type@PAUBulletInfo@@@std@@YAPAUBulletInfo@@PAU1@@Z
_TEXT	SEGMENT
___formal$ = 8						; size = 4
??$_Val_type@PAUBulletInfo@@@std@@YAPAUBulletInfo@@PAU1@@Z PROC ; std::_Val_type<BulletInfo *>, COMDAT

; 790  : 	return (0);

  00000	33 c0		 xor	 eax, eax

; 791  : 	}

  00002	c3		 ret	 0
??$_Val_type@PAUBulletInfo@@@std@@YAPAUBulletInfo@@PAU1@@Z ENDP ; std::_Val_type<BulletInfo *>
_TEXT	ENDS
PUBLIC	??D?$_Vector_const_iterator@V?$_Vector_val@UBulletInfo@@V?$allocator@UBulletInfo@@@std@@@std@@@std@@QBEABUBulletInfo@@XZ ; std::_Vector_const_iterator<std::_Vector_val<BulletInfo,std::allocator<BulletInfo> > >::operator*
; Function compile flags: /Ogsp
; File c:\program files (x86)\microsoft visual studio 10.0\vc\include\vector
;	COMDAT ??D?$_Vector_const_iterator@V?$_Vector_val@UBulletInfo@@V?$allocator@UBulletInfo@@@std@@@std@@@std@@QBEABUBulletInfo@@XZ
_TEXT	SEGMENT
??D?$_Vector_const_iterator@V?$_Vector_val@UBulletInfo@@V?$allocator@UBulletInfo@@@std@@@std@@@std@@QBEABUBulletInfo@@XZ PROC ; std::_Vector_const_iterator<std::_Vector_val<BulletInfo,std::allocator<BulletInfo> > >::operator*, COMDAT
; _this$ = ecx

; 64   :  #if _ITERATOR_DEBUG_LEVEL == 2
; 65   : 		if (this->_Getcont() == 0
; 66   : 			|| this->_Ptr == 0
; 67   : 			|| this->_Ptr < ((_Myvec *)this->_Getcont())->_Myfirst
; 68   : 			|| ((_Myvec *)this->_Getcont())->_Mylast <= this->_Ptr)
; 69   : 			{	// report error
; 70   : 			_DEBUG_ERROR("vector iterator not dereferencable");
; 71   : 			_SCL_SECURE_OUT_OF_RANGE;
; 72   : 			}
; 73   : 
; 74   :  #elif _ITERATOR_DEBUG_LEVEL == 1
; 75   : 		_SCL_SECURE_VALIDATE(this->_Getcont() != 0);
; 76   : 		_SCL_SECURE_VALIDATE_RANGE(
; 77   : 			this->_Ptr != 0
; 78   : 			&& ((_Myvec *)this->_Getcont())->_Myfirst <= this->_Ptr
; 79   : 			&& this->_Ptr < ((_Myvec *)this->_Getcont())->_Mylast);
; 80   :  #endif /* _ITERATOR_DEBUG_LEVEL */
; 81   : 
; 82   : 		__analysis_assume(this->_Ptr != 0);
; 83   : 
; 84   : 		return (*this->_Ptr);

  00000	8b 01		 mov	 eax, DWORD PTR [ecx]

; 85   : 		}

  00002	c3		 ret	 0
??D?$_Vector_const_iterator@V?$_Vector_val@UBulletInfo@@V?$allocator@UBulletInfo@@@std@@@std@@@std@@QBEABUBulletInfo@@XZ ENDP ; std::_Vector_const_iterator<std::_Vector_val<BulletInfo,std::allocator<BulletInfo> > >::operator*
_TEXT	ENDS
PUBLIC	??E?$_Vector_const_iterator@V?$_Vector_val@UBulletInfo@@V?$allocator@UBulletInfo@@@std@@@std@@@std@@QAEAAV01@XZ ; std::_Vector_const_iterator<std::_Vector_val<BulletInfo,std::allocator<BulletInfo> > >::operator++
; Function compile flags: /Ogsp
;	COMDAT ??E?$_Vector_const_iterator@V?$_Vector_val@UBulletInfo@@V?$allocator@UBulletInfo@@@std@@@std@@@std@@QAEAAV01@XZ
_TEXT	SEGMENT
??E?$_Vector_const_iterator@V?$_Vector_val@UBulletInfo@@V?$allocator@UBulletInfo@@@std@@@std@@@std@@QAEAAV01@XZ PROC ; std::_Vector_const_iterator<std::_Vector_val<BulletInfo,std::allocator<BulletInfo> > >::operator++, COMDAT
; _this$ = ecx

; 93   : 		{	// preincrement

  00000	8b c1		 mov	 eax, ecx

; 94   :  #if _ITERATOR_DEBUG_LEVEL == 2
; 95   : 		if (this->_Getcont() == 0
; 96   : 			|| this->_Ptr == 0
; 97   : 			|| ((_Myvec *)this->_Getcont())->_Mylast <= this->_Ptr)
; 98   : 			{	// report error
; 99   : 			_DEBUG_ERROR("vector iterator not incrementable");
; 100  : 			_SCL_SECURE_OUT_OF_RANGE;
; 101  : 			}
; 102  : 
; 103  :  #elif _ITERATOR_DEBUG_LEVEL == 1
; 104  : 		_SCL_SECURE_VALIDATE(this->_Getcont() != 0);
; 105  : 		_SCL_SECURE_VALIDATE_RANGE(
; 106  : 			this->_Ptr != 0
; 107  : 			&& this->_Ptr < ((_Myvec *)this->_Getcont())->_Mylast);
; 108  :  #endif /* _ITERATOR_DEBUG_LEVEL */
; 109  : 
; 110  : 		++this->_Ptr;

  00002	83 00 14	 add	 DWORD PTR [eax], 20	; 00000014H

; 111  : 		return (*this);
; 112  : 		}

  00005	c3		 ret	 0
??E?$_Vector_const_iterator@V?$_Vector_val@UBulletInfo@@V?$allocator@UBulletInfo@@@std@@@std@@@std@@QAEAAV01@XZ ENDP ; std::_Vector_const_iterator<std::_Vector_val<BulletInfo,std::allocator<BulletInfo> > >::operator++
_TEXT	ENDS
PUBLIC	??$_Destroy@UBulletInfo@@@std@@YAXPAUBulletInfo@@@Z ; std::_Destroy<BulletInfo>
; Function compile flags: /Ogsp
; File c:\program files (x86)\microsoft visual studio 10.0\vc\include\xmemory
;	COMDAT ??$_Destroy@UBulletInfo@@@std@@YAXPAUBulletInfo@@@Z
_TEXT	SEGMENT
__Ptr$ = 8						; size = 4
??$_Destroy@UBulletInfo@@@std@@YAXPAUBulletInfo@@@Z PROC ; std::_Destroy<BulletInfo>, COMDAT

; 63   : 	_Ptr->~_Ty();
; 64   : 	}

  00000	c3		 ret	 0
??$_Destroy@UBulletInfo@@@std@@YAXPAUBulletInfo@@@Z ENDP ; std::_Destroy<BulletInfo>
_TEXT	ENDS
PUBLIC	??$forward@UBulletInfo@@@std@@YA$$QAUBulletInfo@@AAU1@@Z ; std::forward<BulletInfo>
; Function compile flags: /Ogsp
; File c:\program files (x86)\microsoft visual studio 10.0\vc\include\utility
;	COMDAT ??$forward@UBulletInfo@@@std@@YA$$QAUBulletInfo@@AAU1@@Z
_TEXT	SEGMENT
__Arg$ = 8						; size = 4
??$forward@UBulletInfo@@@std@@YA$$QAUBulletInfo@@AAU1@@Z PROC ; std::forward<BulletInfo>, COMDAT

; 78   : 	{	// forward _Arg, given explicitly specified type parameter

  00000	55		 push	 ebp
  00001	8b ec		 mov	 ebp, esp

; 79   : 	return ((_Ty&&)_Arg);

  00003	8b 45 08	 mov	 eax, DWORD PTR __Arg$[ebp]

; 80   : 	}

  00006	5d		 pop	 ebp
  00007	c3		 ret	 0
??$forward@UBulletInfo@@@std@@YA$$QAUBulletInfo@@AAU1@@Z ENDP ; std::forward<BulletInfo>
_TEXT	ENDS
PUBLIC	?_DECSTR@@YAXPADH@Z				; _DECSTR
; Function compile flags: /Ogsp
; File d:\lost saga for developer\youtube\tutorial\source\src\lsclient\stringprotect.h
;	COMDAT ?_DECSTR@@YAXPADH@Z
_TEXT	SEGMENT
_s$ = 8							; size = 4
_l$ = 12						; size = 4
?_DECSTR@@YAXPADH@Z PROC				; _DECSTR, COMDAT

; 40   : __forceinline void _DECSTR(char* s, int l){int i=0,l4=(l-1)/4,*p=(int*)s;s[l-1]=0;for(;i<l4;++i)*(p++)^=0xEAEBECED;for(i=l4*4;i<l-1;++i)s[i]^=0xED-i%4;}

  00000	55		 push	 ebp
  00001	8b ec		 mov	 ebp, esp
  00003	8b 4d 0c	 mov	 ecx, DWORD PTR _l$[ebp]
  00006	56		 push	 esi
  00007	8b 75 08	 mov	 esi, DWORD PTR _s$[ebp]
  0000a	57		 push	 edi
  0000b	8d 79 ff	 lea	 edi, DWORD PTR [ecx-1]
  0000e	8b c7		 mov	 eax, edi
  00010	99		 cdq
  00011	83 e2 03	 and	 edx, 3
  00014	03 c2		 add	 eax, edx
  00016	c1 f8 02	 sar	 eax, 2
  00019	8b d6		 mov	 edx, esi
  0001b	c6 44 0e ff 00	 mov	 BYTE PTR [esi+ecx-1], 0
  00020	85 c0		 test	 eax, eax
  00022	7e 0e		 jle	 SHORT $LN4@DECSTR
  00024	8b c8		 mov	 ecx, eax
$LL6@DECSTR:
  00026	81 32 ed ec eb
	ea		 xor	 DWORD PTR [edx], -353637139 ; eaebecedH
  0002c	83 c2 04	 add	 edx, 4
  0002f	49		 dec	 ecx
  00030	75 f4		 jne	 SHORT $LL6@DECSTR
$LN4@DECSTR:
  00032	c1 e0 02	 shl	 eax, 2
  00035	eb 17		 jmp	 SHORT $LN14@DECSTR
$LL3@DECSTR:
  00037	8b c8		 mov	 ecx, eax
  00039	81 e1 03 00 00
	80		 and	 ecx, -2147483645	; 80000003H
  0003f	79 05		 jns	 SHORT $LN13@DECSTR
  00041	49		 dec	 ecx
  00042	83 c9 fc	 or	 ecx, -4			; fffffffcH
  00045	41		 inc	 ecx
$LN13@DECSTR:
  00046	b2 ed		 mov	 dl, -19			; ffffffedH
  00048	2a d1		 sub	 dl, cl
  0004a	30 14 30	 xor	 BYTE PTR [eax+esi], dl
  0004d	40		 inc	 eax
$LN14@DECSTR:
  0004e	3b c7		 cmp	 eax, edi
  00050	7c e5		 jl	 SHORT $LL3@DECSTR
  00052	5f		 pop	 edi
  00053	5e		 pop	 esi
  00054	5d		 pop	 ebp
  00055	c3		 ret	 0
?_DECSTR@@YAXPADH@Z ENDP				; _DECSTR
_TEXT	ENDS
PUBLIC	?return57@@YAIXZ				; return57
; Function compile flags: /Ogsp
; File d:\lost saga for developer\youtube\tutorial\source\src\lsclient\veryoftenusedefine.h
;	COMDAT ?return57@@YAIXZ
_TEXT	SEGMENT
?return57@@YAIXZ PROC					; return57, COMDAT

; 15   : __forceinline unsigned int return57() { __asm mov eax, 57 };

  00000	b8 39 00 00 00	 mov	 eax, 57			; 00000039H
  00005	c3		 ret	 0
?return57@@YAIXZ ENDP					; return57
_TEXT	ENDS
PUBLIC	?GetGroup@ioGameEntity@@QBEPAVioEntityGroup@@XZ	; ioGameEntity::GetGroup
; Function compile flags: /Ogsp
; File d:\lost saga for developer\youtube\tutorial\source\src\lsclient\iogameentity.h
;	COMDAT ?GetGroup@ioGameEntity@@QBEPAVioEntityGroup@@XZ
_TEXT	SEGMENT
?GetGroup@ioGameEntity@@QBEPAVioEntityGroup@@XZ PROC	; ioGameEntity::GetGroup, COMDAT
; _this$ = ecx

; 166  : 	inline ioEntityGroup* GetGroup() const { return m_pGroup; }

  00000	8b 41 04	 mov	 eax, DWORD PTR [ecx+4]
  00003	c3		 ret	 0
?GetGroup@ioGameEntity@@QBEPAVioEntityGroup@@XZ ENDP	; ioGameEntity::GetGroup
_TEXT	ENDS
PUBLIC	??_R0?AVioItem@@@8				; ioItem `RTTI Type Descriptor'
PUBLIC	??_R0?AVioAttackableItem@@@8			; ioAttackableItem `RTTI Type Descriptor'
PUBLIC	?ToAttackableItem@@YAPAVioAttackableItem@@PAVioItem@@@Z ; ToAttackableItem
;	COMDAT ??_R0?AVioItem@@@8
; File d:\lost saga for developer\youtube\tutorial\source\src\lsclient\ioattackableitem.h
_DATA	SEGMENT
??_R0?AVioItem@@@8 DD FLAT:??_7type_info@@6B@		; ioItem `RTTI Type Descriptor'
	DD	00H
	DB	'.?AVioItem@@', 00H
_DATA	ENDS
;	COMDAT ??_R0?AVioAttackableItem@@@8
_DATA	SEGMENT
??_R0?AVioAttackableItem@@@8 DD FLAT:??_7type_info@@6B@	; ioAttackableItem `RTTI Type Descriptor'
	DD	00H
	DB	'.?AVioAttackableItem@@', 00H
; Function compile flags: /Ogsp
_DATA	ENDS
;	COMDAT ?ToAttackableItem@@YAPAVioAttackableItem@@PAVioItem@@@Z
_TEXT	SEGMENT
_pItem$ = 8						; size = 4
?ToAttackableItem@@YAPAVioAttackableItem@@PAVioItem@@@Z PROC ; ToAttackableItem, COMDAT

; 737  : {

  00000	55		 push	 ebp
  00001	8b ec		 mov	 ebp, esp
  00003	56		 push	 esi

; 738  : 	if( !pItem )	return NULL;

  00004	8b 75 08	 mov	 esi, DWORD PTR _pItem$[ebp]
  00007	85 f6		 test	 esi, esi
  00009	75 04		 jne	 SHORT $LN2@ToAttackab
$LN5@ToAttackab:
  0000b	33 c0		 xor	 eax, eax
  0000d	eb 2f		 jmp	 SHORT $LN3@ToAttackab
$LN2@ToAttackab:

; 739  : 	if( pItem->GetType() != ioItem::IT_WEAPON && pItem->GetType() != ioItem::IT_ARMOR )

  0000f	8b 06		 mov	 eax, DWORD PTR [esi]
  00011	8b ce		 mov	 ecx, esi
  00013	ff 50 08	 call	 DWORD PTR [eax+8]
  00016	83 f8 01	 cmp	 eax, 1
  00019	74 0c		 je	 SHORT $LN1@ToAttackab
  0001b	8b 06		 mov	 eax, DWORD PTR [esi]
  0001d	8b ce		 mov	 ecx, esi
  0001f	ff 50 08	 call	 DWORD PTR [eax+8]
  00022	83 f8 02	 cmp	 eax, 2

; 740  : 		return NULL;

  00025	75 e4		 jne	 SHORT $LN5@ToAttackab
$LN1@ToAttackab:

; 741  : 
; 742  : 	return dynamic_cast< ioAttackableItem* >( pItem );

  00027	6a 00		 push	 0
  00029	68 00 00 00 00	 push	 OFFSET ??_R0?AVioAttackableItem@@@8
  0002e	68 00 00 00 00	 push	 OFFSET ??_R0?AVioItem@@@8
  00033	6a 00		 push	 0
  00035	56		 push	 esi
  00036	e8 00 00 00 00	 call	 ___RTDynamicCast
  0003b	83 c4 14	 add	 esp, 20			; 00000014H
$LN3@ToAttackab:
  0003e	5e		 pop	 esi

; 743  : }

  0003f	5d		 pop	 ebp
  00040	c3		 ret	 0
?ToAttackableItem@@YAPAVioAttackableItem@@PAVioItem@@@Z ENDP ; ToAttackableItem
_TEXT	ENDS
PUBLIC	??_R0?AVioWeaponItem@@@8			; ioWeaponItem `RTTI Type Descriptor'
PUBLIC	?ToWeaponItem@@YAPAVioWeaponItem@@PAVioItem@@@Z	; ToWeaponItem
;	COMDAT ??_R0?AVioWeaponItem@@@8
; File d:\lost saga for developer\youtube\tutorial\source\src\lsclient\ioweaponitem.h
_DATA	SEGMENT
??_R0?AVioWeaponItem@@@8 DD FLAT:??_7type_info@@6B@	; ioWeaponItem `RTTI Type Descriptor'
	DD	00H
	DB	'.?AVioWeaponItem@@', 00H
; Function compile flags: /Ogsp
_DATA	ENDS
;	COMDAT ?ToWeaponItem@@YAPAVioWeaponItem@@PAVioItem@@@Z
_TEXT	SEGMENT
_pItem$ = 8						; size = 4
?ToWeaponItem@@YAPAVioWeaponItem@@PAVioItem@@@Z PROC	; ToWeaponItem, COMDAT

; 303  : {

  00000	55		 push	 ebp
  00001	8b ec		 mov	 ebp, esp
  00003	56		 push	 esi

; 304  : 	if( !pItem || pItem->GetType() != ioItem::IT_WEAPON )

  00004	8b 75 08	 mov	 esi, DWORD PTR _pItem$[ebp]
  00007	85 f6		 test	 esi, esi
  00009	74 25		 je	 SHORT $LN1@ToWeaponIt
  0000b	8b 06		 mov	 eax, DWORD PTR [esi]
  0000d	8b ce		 mov	 ecx, esi
  0000f	ff 50 08	 call	 DWORD PTR [eax+8]
  00012	83 f8 01	 cmp	 eax, 1
  00015	75 19		 jne	 SHORT $LN1@ToWeaponIt

; 306  : 
; 307  : 	return dynamic_cast< ioWeaponItem* >( pItem );

  00017	6a 00		 push	 0
  00019	68 00 00 00 00	 push	 OFFSET ??_R0?AVioWeaponItem@@@8
  0001e	68 00 00 00 00	 push	 OFFSET ??_R0?AVioItem@@@8
  00023	6a 00		 push	 0
  00025	56		 push	 esi
  00026	e8 00 00 00 00	 call	 ___RTDynamicCast
  0002b	83 c4 14	 add	 esp, 20			; 00000014H
  0002e	eb 02		 jmp	 SHORT $LN3@ToWeaponIt
$LN1@ToWeaponIt:

; 305  : 		return NULL;

  00030	33 c0		 xor	 eax, eax
$LN3@ToWeaponIt:
  00032	5e		 pop	 esi

; 308  : }

  00033	5d		 pop	 ebp
  00034	c3		 ret	 0
?ToWeaponItem@@YAPAVioWeaponItem@@PAVioItem@@@Z ENDP	; ToWeaponItem
_TEXT	ENDS
PUBLIC	?GetOwnerItem@ioSkill@@QBEPAVioItem@@XZ		; ioSkill::GetOwnerItem
; Function compile flags: /Ogsp
; File d:\lost saga for developer\youtube\tutorial\source\src\lsclient\ioskill.h
;	COMDAT ?GetOwnerItem@ioSkill@@QBEPAVioItem@@XZ
_TEXT	SEGMENT
?GetOwnerItem@ioSkill@@QBEPAVioItem@@XZ PROC		; ioSkill::GetOwnerItem, COMDAT
; _this$ = ecx

; 397  : 	inline ioItem *GetOwnerItem() const { return m_pOwnerItem; }

  00000	8b 81 a4 02 00
	00		 mov	 eax, DWORD PTR [ecx+676]
  00006	c3		 ret	 0
?GetOwnerItem@ioSkill@@QBEPAVioItem@@XZ ENDP		; ioSkill::GetOwnerItem
_TEXT	ENDS
PUBLIC	?GetName@ioSkill@@QBEABVioHashString@@XZ	; ioSkill::GetName
; Function compile flags: /Ogsp
;	COMDAT ?GetName@ioSkill@@QBEABVioHashString@@XZ
_TEXT	SEGMENT
?GetName@ioSkill@@QBEABVioHashString@@XZ PROC		; ioSkill::GetName, COMDAT
; _this$ = ecx

; 414  : 	inline const ioHashString& GetName() const { return m_Name; }

  00000	8d 41 24	 lea	 eax, DWORD PTR [ecx+36]
  00003	c3		 ret	 0
?GetName@ioSkill@@QBEABVioHashString@@XZ ENDP		; ioSkill::GetName
_TEXT	ENDS
PUBLIC	??0BulletInfo@@QAE@XZ				; BulletInfo::BulletInfo
; Function compile flags: /Ogsp
; File d:\lost saga for developer\youtube\tutorial\source\src\lsclient\ioattackskill.h
;	COMDAT ??0BulletInfo@@QAE@XZ
_TEXT	SEGMENT
??0BulletInfo@@QAE@XZ PROC				; BulletInfo::BulletInfo, COMDAT
; _this$ = ecx

; 21   : 	{
; 22   : 		m_fYawAngle		= 0.0f;

  00000	0f 57 c0	 xorps	 xmm0, xmm0
  00003	8b c1		 mov	 eax, ecx
  00005	f3 0f 11 00	 movss	 DWORD PTR [eax], xmm0

; 23   : 		m_fPitchAngle	= 0.0f;

  00009	f3 0f 11 40 04	 movss	 DWORD PTR [eax+4], xmm0

; 24   : 		m_fRollAngle	= 0.0f;

  0000e	f3 0f 11 40 08	 movss	 DWORD PTR [eax+8], xmm0

; 25   : 
; 26   : 		m_fRangeOffSet	= 0.0f;

  00013	f3 0f 11 40 0c	 movss	 DWORD PTR [eax+12], xmm0

; 27   : 		m_fHeightOffSet	= 0.0f;

  00018	f3 0f 11 40 10	 movss	 DWORD PTR [eax+16], xmm0

; 28   : 	}

  0001d	c3		 ret	 0
??0BulletInfo@@QAE@XZ ENDP				; BulletInfo::BulletInfo
_TEXT	ENDS
PUBLIC	?EncryptValueToPool@?$CEncrypt@M@@AAEXPBD@Z	; CEncrypt<float>::EncryptValueToPool
EXTRN	?EncryptByte@ccddaabb@@QAEXPBDPADH@Z:PROC	; ccddaabb::EncryptByte
; Function compile flags: /Ogsp
; File d:\lost saga for developer\youtube\tutorial\source\src\lsclient\encryptvalue.h
;	COMDAT ?EncryptValueToPool@?$CEncrypt@M@@AAEXPBD@Z
_TEXT	SEGMENT
_value$ = 8						; size = 4
?EncryptValueToPool@?$CEncrypt@M@@AAEXPBD@Z PROC	; CEncrypt<float>::EncryptValueToPool, COMDAT
; _this$ = ecx

; 67   : 	{

  00000	55		 push	 ebp
  00001	8b ec		 mov	 ebp, esp

; 68   : 		m_RC5.EncryptByte( value, m_MemPool, max(m_ValueSize, DEFAULT_ENCRYPT) );

  00003	0f b7 41 06	 movzx	 eax, WORD PTR [ecx+6]
  00007	83 f8 04	 cmp	 eax, 4
  0000a	77 03		 ja	 SHORT $LN4@EncryptVal
  0000c	6a 04		 push	 4
  0000e	58		 pop	 eax
$LN4@EncryptVal:
  0000f	50		 push	 eax
  00010	8d 41 1c	 lea	 eax, DWORD PTR [ecx+28]
  00013	50		 push	 eax
  00014	ff 75 08	 push	 DWORD PTR _value$[ebp]
  00017	83 c1 0c	 add	 ecx, 12			; 0000000cH
  0001a	e8 00 00 00 00	 call	 ?EncryptByte@ccddaabb@@QAEXPBDPADH@Z ; ccddaabb::EncryptByte

; 69   : 		
; 70   : 	}

  0001f	5d		 pop	 ebp
  00020	c2 04 00	 ret	 4
?EncryptValueToPool@?$CEncrypt@M@@AAEXPBD@Z ENDP	; CEncrypt<float>::EncryptValueToPool
_TEXT	ENDS
PUBLIC	?EncryptValueToPool@?$CEncrypt@K@@AAEXPBD@Z	; CEncrypt<unsigned long>::EncryptValueToPool
; Function compile flags: /Ogsp
;	COMDAT ?EncryptValueToPool@?$CEncrypt@K@@AAEXPBD@Z
_TEXT	SEGMENT
_value$ = 8						; size = 4
?EncryptValueToPool@?$CEncrypt@K@@AAEXPBD@Z PROC	; CEncrypt<unsigned long>::EncryptValueToPool, COMDAT
; _this$ = ecx

; 67   : 	{

  00000	55		 push	 ebp
  00001	8b ec		 mov	 ebp, esp

; 68   : 		m_RC5.EncryptByte( value, m_MemPool, max(m_ValueSize, DEFAULT_ENCRYPT) );

  00003	0f b7 41 06	 movzx	 eax, WORD PTR [ecx+6]
  00007	83 f8 04	 cmp	 eax, 4
  0000a	77 03		 ja	 SHORT $LN4@EncryptVal@2
  0000c	6a 04		 push	 4
  0000e	58		 pop	 eax
$LN4@EncryptVal@2:
  0000f	50		 push	 eax
  00010	8d 41 1c	 lea	 eax, DWORD PTR [ecx+28]
  00013	50		 push	 eax
  00014	ff 75 08	 push	 DWORD PTR _value$[ebp]
  00017	83 c1 0c	 add	 ecx, 12			; 0000000cH
  0001a	e8 00 00 00 00	 call	 ?EncryptByte@ccddaabb@@QAEXPBDPADH@Z ; ccddaabb::EncryptByte

; 69   : 		
; 70   : 	}

  0001f	5d		 pop	 ebp
  00020	c2 04 00	 ret	 4
?EncryptValueToPool@?$CEncrypt@K@@AAEXPBD@Z ENDP	; CEncrypt<unsigned long>::EncryptValueToPool
_TEXT	ENDS
PUBLIC	?EncryptValueToPool@?$CEncrypt@_N@@AAEXPBD@Z	; CEncrypt<bool>::EncryptValueToPool
; Function compile flags: /Ogsp
;	COMDAT ?EncryptValueToPool@?$CEncrypt@_N@@AAEXPBD@Z
_TEXT	SEGMENT
_value$ = 8						; size = 4
?EncryptValueToPool@?$CEncrypt@_N@@AAEXPBD@Z PROC	; CEncrypt<bool>::EncryptValueToPool, COMDAT
; _this$ = ecx

; 67   : 	{

  00000	55		 push	 ebp
  00001	8b ec		 mov	 ebp, esp

; 68   : 		m_RC5.EncryptByte( value, m_MemPool, max(m_ValueSize, DEFAULT_ENCRYPT) );

  00003	0f b7 41 06	 movzx	 eax, WORD PTR [ecx+6]
  00007	83 f8 04	 cmp	 eax, 4
  0000a	77 03		 ja	 SHORT $LN4@EncryptVal@3
  0000c	6a 04		 push	 4
  0000e	58		 pop	 eax
$LN4@EncryptVal@3:
  0000f	50		 push	 eax
  00010	8d 41 1c	 lea	 eax, DWORD PTR [ecx+28]
  00013	50		 push	 eax
  00014	ff 75 08	 push	 DWORD PTR _value$[ebp]
  00017	83 c1 0c	 add	 ecx, 12			; 0000000cH
  0001a	e8 00 00 00 00	 call	 ?EncryptByte@ccddaabb@@QAEXPBDPADH@Z ; ccddaabb::EncryptByte

; 69   : 		
; 70   : 	}

  0001f	5d		 pop	 ebp
  00020	c2 04 00	 ret	 4
?EncryptValueToPool@?$CEncrypt@_N@@AAEXPBD@Z ENDP	; CEncrypt<bool>::EncryptValueToPool
_TEXT	ENDS
PUBLIC	?DecryptValueToPool@?$CEncrypt@_N@@QAEXPA_N@Z	; CEncrypt<bool>::DecryptValueToPool
EXTRN	?DecryptByte@ccddaabb@@QBEXPBDPADH@Z:PROC	; ccddaabb::DecryptByte
; Function compile flags: /Ogsp
;	COMDAT ?DecryptValueToPool@?$CEncrypt@_N@@QAEXPA_N@Z
_TEXT	SEGMENT
_value$ = 8						; size = 4
?DecryptValueToPool@?$CEncrypt@_N@@QAEXPA_N@Z PROC	; CEncrypt<bool>::DecryptValueToPool, COMDAT
; _this$ = ecx

; 219  : 	{

  00000	55		 push	 ebp
  00001	8b ec		 mov	 ebp, esp
  00003	56		 push	 esi

; 220  : 		m_RC5.DecryptByte( m_MemPool, m_TempMem, 4 );

  00004	8d 71 28	 lea	 esi, DWORD PTR [ecx+40]
  00007	6a 04		 push	 4
  00009	8d 41 1c	 lea	 eax, DWORD PTR [ecx+28]
  0000c	56		 push	 esi
  0000d	50		 push	 eax
  0000e	83 c1 0c	 add	 ecx, 12			; 0000000cH
  00011	e8 00 00 00 00	 call	 ?DecryptByte@ccddaabb@@QBEXPBDPADH@Z ; ccddaabb::DecryptByte

; 221  : 		*value = *((bool*)m_TempMem);

  00016	8a 06		 mov	 al, BYTE PTR [esi]
  00018	8b 4d 08	 mov	 ecx, DWORD PTR _value$[ebp]
  0001b	88 01		 mov	 BYTE PTR [ecx], al
  0001d	5e		 pop	 esi

; 222  : 	}

  0001e	5d		 pop	 ebp
  0001f	c2 04 00	 ret	 4
?DecryptValueToPool@?$CEncrypt@_N@@QAEXPA_N@Z ENDP	; CEncrypt<bool>::DecryptValueToPool
_TEXT	ENDS
EXTRN	__imp_??0exception@std@@QAE@ABV01@@Z:PROC
; Function compile flags: /Ogsp
;	COMDAT ??0bad_alloc@std@@QAE@ABV01@@Z
_TEXT	SEGMENT
___that$ = 8						; size = 4
??0bad_alloc@std@@QAE@ABV01@@Z PROC			; std::bad_alloc::bad_alloc, COMDAT
; _this$ = ecx
  00000	55		 push	 ebp
  00001	8b ec		 mov	 ebp, esp
  00003	56		 push	 esi
  00004	ff 75 08	 push	 DWORD PTR ___that$[ebp]
  00007	8b f1		 mov	 esi, ecx
  00009	ff 15 00 00 00
	00		 call	 DWORD PTR __imp_??0exception@std@@QAE@ABV01@@Z
  0000f	c7 06 00 00 00
	00		 mov	 DWORD PTR [esi], OFFSET ??_7bad_alloc@std@@6B@
  00015	8b c6		 mov	 eax, esi
  00017	5e		 pop	 esi
  00018	5d		 pop	 ebp
  00019	c2 04 00	 ret	 4
??0bad_alloc@std@@QAE@ABV01@@Z ENDP			; std::bad_alloc::bad_alloc
_TEXT	ENDS
PUBLIC	??_R0?AVioFireWeaponItem@@@8			; ioFireWeaponItem `RTTI Type Descriptor'
PUBLIC	?ToFireWeaponItem@@YAPAVioFireWeaponItem@@PAVioItem@@@Z ; ToFireWeaponItem
;	COMDAT ??_R0?AVioFireWeaponItem@@@8
; File d:\lost saga for developer\youtube\tutorial\source\src\lsclient\iofireweaponitem.h
_DATA	SEGMENT
??_R0?AVioFireWeaponItem@@@8 DD FLAT:??_7type_info@@6B@	; ioFireWeaponItem `RTTI Type Descriptor'
	DD	00H
	DB	'.?AVioFireWeaponItem@@', 00H
; Function compile flags: /Ogsp
_DATA	ENDS
;	COMDAT ?ToFireWeaponItem@@YAPAVioFireWeaponItem@@PAVioItem@@@Z
_TEXT	SEGMENT
_pItem$ = 8						; size = 4
?ToFireWeaponItem@@YAPAVioFireWeaponItem@@PAVioItem@@@Z PROC ; ToFireWeaponItem, COMDAT

; 269  : {

  00000	55		 push	 ebp
  00001	8b ec		 mov	 ebp, esp
  00003	56		 push	 esi

; 270  : 	ioWeaponItem *pWeapon = ToWeaponItem( pItem );

  00004	ff 75 08	 push	 DWORD PTR _pItem$[ebp]
  00007	e8 00 00 00 00	 call	 ?ToWeaponItem@@YAPAVioWeaponItem@@PAVioItem@@@Z ; ToWeaponItem
  0000c	8b f0		 mov	 esi, eax
  0000e	59		 pop	 ecx

; 271  : 	if( !pWeapon || pWeapon->GetSubType() != ioWeaponItem::WST_FIRE )

  0000f	85 f6		 test	 esi, esi
  00011	74 28		 je	 SHORT $LN1@ToFireWeap
  00013	8b 06		 mov	 eax, DWORD PTR [esi]
  00015	8b ce		 mov	 ecx, esi
  00017	ff 90 f0 02 00
	00		 call	 DWORD PTR [eax+752]
  0001d	83 f8 01	 cmp	 eax, 1
  00020	75 19		 jne	 SHORT $LN1@ToFireWeap

; 273  : 
; 274  : 	return dynamic_cast< ioFireWeaponItem* >( pWeapon );

  00022	6a 00		 push	 0
  00024	68 00 00 00 00	 push	 OFFSET ??_R0?AVioFireWeaponItem@@@8
  00029	68 00 00 00 00	 push	 OFFSET ??_R0?AVioWeaponItem@@@8
  0002e	6a 00		 push	 0
  00030	56		 push	 esi
  00031	e8 00 00 00 00	 call	 ___RTDynamicCast
  00036	83 c4 14	 add	 esp, 20			; 00000014H
  00039	eb 02		 jmp	 SHORT $LN3@ToFireWeap
$LN1@ToFireWeap:

; 272  : 		return NULL;

  0003b	33 c0		 xor	 eax, eax
$LN3@ToFireWeap:
  0003d	5e		 pop	 esi

; 275  : }

  0003e	5d		 pop	 ebp
  0003f	c3		 ret	 0
?ToFireWeaponItem@@YAPAVioFireWeaponItem@@PAVioItem@@@Z ENDP ; ToFireWeaponItem
_TEXT	ENDS
PUBLIC	??_R0?AVioBowItem@@@8				; ioBowItem `RTTI Type Descriptor'
PUBLIC	?ToBowItem@@YAPAVioBowItem@@PAVioItem@@@Z	; ToBowItem
;	COMDAT ??_R0?AVioBowItem@@@8
; File d:\lost saga for developer\youtube\tutorial\source\src\lsclient\iobowitem.h
_DATA	SEGMENT
??_R0?AVioBowItem@@@8 DD FLAT:??_7type_info@@6B@	; ioBowItem `RTTI Type Descriptor'
	DD	00H
	DB	'.?AVioBowItem@@', 00H
; Function compile flags: /Ogsp
_DATA	ENDS
;	COMDAT ?ToBowItem@@YAPAVioBowItem@@PAVioItem@@@Z
_TEXT	SEGMENT
_pItem$ = 8						; size = 4
?ToBowItem@@YAPAVioBowItem@@PAVioItem@@@Z PROC		; ToBowItem, COMDAT

; 344  : {

  00000	55		 push	 ebp
  00001	8b ec		 mov	 ebp, esp
  00003	56		 push	 esi

; 345  : 	ioWeaponItem *pWeapon = ToWeaponItem( pItem );

  00004	ff 75 08	 push	 DWORD PTR _pItem$[ebp]
  00007	e8 00 00 00 00	 call	 ?ToWeaponItem@@YAPAVioWeaponItem@@PAVioItem@@@Z ; ToWeaponItem
  0000c	8b f0		 mov	 esi, eax
  0000e	59		 pop	 ecx

; 346  : 	if( !pWeapon || pWeapon->GetSubType() != ioWeaponItem::WST_BOW )

  0000f	85 f6		 test	 esi, esi
  00011	74 28		 je	 SHORT $LN1@ToBowItem
  00013	8b 06		 mov	 eax, DWORD PTR [esi]
  00015	8b ce		 mov	 ecx, esi
  00017	ff 90 f0 02 00
	00		 call	 DWORD PTR [eax+752]
  0001d	83 f8 05	 cmp	 eax, 5
  00020	75 19		 jne	 SHORT $LN1@ToBowItem

; 348  : 
; 349  : 	return dynamic_cast< ioBowItem* >( pWeapon );

  00022	6a 00		 push	 0
  00024	68 00 00 00 00	 push	 OFFSET ??_R0?AVioBowItem@@@8
  00029	68 00 00 00 00	 push	 OFFSET ??_R0?AVioWeaponItem@@@8
  0002e	6a 00		 push	 0
  00030	56		 push	 esi
  00031	e8 00 00 00 00	 call	 ___RTDynamicCast
  00036	83 c4 14	 add	 esp, 20			; 00000014H
  00039	eb 02		 jmp	 SHORT $LN3@ToBowItem
$LN1@ToBowItem:

; 347  : 		return NULL;

  0003b	33 c0		 xor	 eax, eax
$LN3@ToBowItem:
  0003d	5e		 pop	 esi

; 350  : }

  0003e	5d		 pop	 ebp
  0003f	c3		 ret	 0
?ToBowItem@@YAPAVioBowItem@@PAVioItem@@@Z ENDP		; ToBowItem
_TEXT	ENDS
PUBLIC	??_R0?AVioLaserItem@@@8				; ioLaserItem `RTTI Type Descriptor'
PUBLIC	?ToLaserItem@@YAPAVioLaserItem@@PAVioItem@@@Z	; ToLaserItem
;	COMDAT ??_R0?AVioLaserItem@@@8
; File d:\lost saga for developer\youtube\tutorial\source\src\lsclient\iolaseritem.h
_DATA	SEGMENT
??_R0?AVioLaserItem@@@8 DD FLAT:??_7type_info@@6B@	; ioLaserItem `RTTI Type Descriptor'
	DD	00H
	DB	'.?AVioLaserItem@@', 00H
; Function compile flags: /Ogsp
_DATA	ENDS
;	COMDAT ?ToLaserItem@@YAPAVioLaserItem@@PAVioItem@@@Z
_TEXT	SEGMENT
_pItem$ = 8						; size = 4
?ToLaserItem@@YAPAVioLaserItem@@PAVioItem@@@Z PROC	; ToLaserItem, COMDAT

; 252  : {

  00000	55		 push	 ebp
  00001	8b ec		 mov	 ebp, esp
  00003	56		 push	 esi

; 253  : 	ioWeaponItem *pWeapon = ToWeaponItem( pItem );

  00004	ff 75 08	 push	 DWORD PTR _pItem$[ebp]
  00007	e8 00 00 00 00	 call	 ?ToWeaponItem@@YAPAVioWeaponItem@@PAVioItem@@@Z ; ToWeaponItem
  0000c	8b f0		 mov	 esi, eax
  0000e	59		 pop	 ecx

; 254  : 	if( !pWeapon || pWeapon->GetSubType() != ioWeaponItem::WST_LASER )

  0000f	85 f6		 test	 esi, esi
  00011	74 28		 je	 SHORT $LN1@ToLaserIte
  00013	8b 06		 mov	 eax, DWORD PTR [esi]
  00015	8b ce		 mov	 ecx, esi
  00017	ff 90 f0 02 00
	00		 call	 DWORD PTR [eax+752]
  0001d	83 f8 08	 cmp	 eax, 8
  00020	75 19		 jne	 SHORT $LN1@ToLaserIte

; 256  : 
; 257  : 	return dynamic_cast< ioLaserItem* >( pWeapon );

  00022	6a 00		 push	 0
  00024	68 00 00 00 00	 push	 OFFSET ??_R0?AVioLaserItem@@@8
  00029	68 00 00 00 00	 push	 OFFSET ??_R0?AVioWeaponItem@@@8
  0002e	6a 00		 push	 0
  00030	56		 push	 esi
  00031	e8 00 00 00 00	 call	 ___RTDynamicCast
  00036	83 c4 14	 add	 esp, 20			; 00000014H
  00039	eb 02		 jmp	 SHORT $LN3@ToLaserIte
$LN1@ToLaserIte:

; 255  : 		return NULL;

  0003b	33 c0		 xor	 eax, eax
$LN3@ToLaserIte:
  0003d	5e		 pop	 esi

; 258  : }

  0003e	5d		 pop	 ebp
  0003f	c3		 ret	 0
?ToLaserItem@@YAPAVioLaserItem@@PAVioItem@@@Z ENDP	; ToLaserItem
_TEXT	ENDS
PUBLIC	??_R0?AVioPowerChargeItem@@@8			; ioPowerChargeItem `RTTI Type Descriptor'
PUBLIC	?ToPowerChargeItem@@YAPAVioPowerChargeItem@@PAVioItem@@@Z ; ToPowerChargeItem
;	COMDAT ??_R0?AVioPowerChargeItem@@@8
; File d:\lost saga for developer\youtube\tutorial\source\src\lsclient\iopowerchargeitem.h
_DATA	SEGMENT
??_R0?AVioPowerChargeItem@@@8 DD FLAT:??_7type_info@@6B@ ; ioPowerChargeItem `RTTI Type Descriptor'
	DD	00H
	DB	'.?AVioPowerChargeItem@@', 00H
; Function compile flags: /Ogsp
_DATA	ENDS
;	COMDAT ?ToPowerChargeItem@@YAPAVioPowerChargeItem@@PAVioItem@@@Z
_TEXT	SEGMENT
_pItem$ = 8						; size = 4
?ToPowerChargeItem@@YAPAVioPowerChargeItem@@PAVioItem@@@Z PROC ; ToPowerChargeItem, COMDAT

; 106  : {

  00000	55		 push	 ebp
  00001	8b ec		 mov	 ebp, esp

; 107  : 	ioWeaponItem *pWeapon = ToWeaponItem( pItem );

  00003	ff 75 08	 push	 DWORD PTR _pItem$[ebp]
  00006	e8 00 00 00 00	 call	 ?ToWeaponItem@@YAPAVioWeaponItem@@PAVioItem@@@Z ; ToWeaponItem
  0000b	59		 pop	 ecx

; 108  : 	if( !pWeapon || pWeapon->GetSubType() != ioWeaponItem::WST_POWER_CHARGE )

  0000c	85 c0		 test	 eax, eax
  0000e	74 2a		 je	 SHORT $LN1@ToPowerCha
  00010	8b 10		 mov	 edx, DWORD PTR [eax]
  00012	8b c8		 mov	 ecx, eax
  00014	ff 92 f0 02 00
	00		 call	 DWORD PTR [edx+752]
  0001a	83 f8 0b	 cmp	 eax, 11			; 0000000bH
  0001d	75 1b		 jne	 SHORT $LN1@ToPowerCha

; 110  : 
; 111  : 	return dynamic_cast< ioPowerChargeItem* >( pItem );

  0001f	6a 00		 push	 0
  00021	68 00 00 00 00	 push	 OFFSET ??_R0?AVioPowerChargeItem@@@8
  00026	68 00 00 00 00	 push	 OFFSET ??_R0?AVioItem@@@8
  0002b	6a 00		 push	 0
  0002d	ff 75 08	 push	 DWORD PTR _pItem$[ebp]
  00030	e8 00 00 00 00	 call	 ___RTDynamicCast
  00035	83 c4 14	 add	 esp, 20			; 00000014H

; 112  : }

  00038	5d		 pop	 ebp
  00039	c3		 ret	 0
$LN1@ToPowerCha:

; 109  : 		return NULL;

  0003a	33 c0		 xor	 eax, eax

; 112  : }

  0003c	5d		 pop	 ebp
  0003d	c3		 ret	 0
?ToPowerChargeItem@@YAPAVioPowerChargeItem@@PAVioItem@@@Z ENDP ; ToPowerChargeItem
_TEXT	ENDS
PUBLIC	??_R0?AVioCountChargeItem@@@8			; ioCountChargeItem `RTTI Type Descriptor'
PUBLIC	?ToCountChargeItem@@YAPAVioCountChargeItem@@PAVioItem@@@Z ; ToCountChargeItem
;	COMDAT ??_R0?AVioCountChargeItem@@@8
; File d:\lost saga for developer\youtube\tutorial\source\src\lsclient\iocountchargeitem.h
_DATA	SEGMENT
??_R0?AVioCountChargeItem@@@8 DD FLAT:??_7type_info@@6B@ ; ioCountChargeItem `RTTI Type Descriptor'
	DD	00H
	DB	'.?AVioCountChargeItem@@', 00H
; Function compile flags: /Ogsp
_DATA	ENDS
;	COMDAT ?ToCountChargeItem@@YAPAVioCountChargeItem@@PAVioItem@@@Z
_TEXT	SEGMENT
_pItem$ = 8						; size = 4
?ToCountChargeItem@@YAPAVioCountChargeItem@@PAVioItem@@@Z PROC ; ToCountChargeItem, COMDAT

; 150  : {

  00000	55		 push	 ebp
  00001	8b ec		 mov	 ebp, esp

; 151  : 	ioWeaponItem *pWeapon = ToWeaponItem( pItem );

  00003	ff 75 08	 push	 DWORD PTR _pItem$[ebp]
  00006	e8 00 00 00 00	 call	 ?ToWeaponItem@@YAPAVioWeaponItem@@PAVioItem@@@Z ; ToWeaponItem
  0000b	59		 pop	 ecx

; 152  : 	if( !pWeapon || pWeapon->GetSubType() != ioWeaponItem::WST_COUNT_CHARGE )

  0000c	85 c0		 test	 eax, eax
  0000e	74 2a		 je	 SHORT $LN1@ToCountCha
  00010	8b 10		 mov	 edx, DWORD PTR [eax]
  00012	8b c8		 mov	 ecx, eax
  00014	ff 92 f0 02 00
	00		 call	 DWORD PTR [edx+752]
  0001a	83 f8 0f	 cmp	 eax, 15			; 0000000fH
  0001d	75 1b		 jne	 SHORT $LN1@ToCountCha

; 154  : 
; 155  : 	return dynamic_cast< ioCountChargeItem* >( pItem );

  0001f	6a 00		 push	 0
  00021	68 00 00 00 00	 push	 OFFSET ??_R0?AVioCountChargeItem@@@8
  00026	68 00 00 00 00	 push	 OFFSET ??_R0?AVioItem@@@8
  0002b	6a 00		 push	 0
  0002d	ff 75 08	 push	 DWORD PTR _pItem$[ebp]
  00030	e8 00 00 00 00	 call	 ___RTDynamicCast
  00035	83 c4 14	 add	 esp, 20			; 00000014H

; 156  : }

  00038	5d		 pop	 ebp
  00039	c3		 ret	 0
$LN1@ToCountCha:

; 153  : 		return NULL;

  0003a	33 c0		 xor	 eax, eax

; 156  : }

  0003c	5d		 pop	 ebp
  0003d	c3		 ret	 0
?ToCountChargeItem@@YAPAVioCountChargeItem@@PAVioItem@@@Z ENDP ; ToCountChargeItem
_TEXT	ENDS
PUBLIC	??_R0?AVioRangeChargeItem@@@8			; ioRangeChargeItem `RTTI Type Descriptor'
PUBLIC	?ToRangeChargeItem@@YAPAVioRangeChargeItem@@PAVioItem@@@Z ; ToRangeChargeItem
;	COMDAT ??_R0?AVioRangeChargeItem@@@8
; File d:\lost saga for developer\youtube\tutorial\source\src\lsclient\iorangechargeitem.h
_DATA	SEGMENT
??_R0?AVioRangeChargeItem@@@8 DD FLAT:??_7type_info@@6B@ ; ioRangeChargeItem `RTTI Type Descriptor'
	DD	00H
	DB	'.?AVioRangeChargeItem@@', 00H
; Function compile flags: /Ogsp
_DATA	ENDS
;	COMDAT ?ToRangeChargeItem@@YAPAVioRangeChargeItem@@PAVioItem@@@Z
_TEXT	SEGMENT
_pItem$ = 8						; size = 4
?ToRangeChargeItem@@YAPAVioRangeChargeItem@@PAVioItem@@@Z PROC ; ToRangeChargeItem, COMDAT

; 169  : {

  00000	55		 push	 ebp
  00001	8b ec		 mov	 ebp, esp

; 170  : 	ioWeaponItem *pWeapon = ToWeaponItem( pItem );

  00003	ff 75 08	 push	 DWORD PTR _pItem$[ebp]
  00006	e8 00 00 00 00	 call	 ?ToWeaponItem@@YAPAVioWeaponItem@@PAVioItem@@@Z ; ToWeaponItem
  0000b	59		 pop	 ecx

; 171  : 	if( !pWeapon || pWeapon->GetSubType() != ioWeaponItem::WST_RANGE_CHARGE )

  0000c	85 c0		 test	 eax, eax
  0000e	74 2a		 je	 SHORT $LN1@ToRangeCha
  00010	8b 10		 mov	 edx, DWORD PTR [eax]
  00012	8b c8		 mov	 ecx, eax
  00014	ff 92 f0 02 00
	00		 call	 DWORD PTR [edx+752]
  0001a	83 f8 11	 cmp	 eax, 17			; 00000011H
  0001d	75 1b		 jne	 SHORT $LN1@ToRangeCha

; 173  : 
; 174  : 	return dynamic_cast< ioRangeChargeItem* >( pItem );

  0001f	6a 00		 push	 0
  00021	68 00 00 00 00	 push	 OFFSET ??_R0?AVioRangeChargeItem@@@8
  00026	68 00 00 00 00	 push	 OFFSET ??_R0?AVioItem@@@8
  0002b	6a 00		 push	 0
  0002d	ff 75 08	 push	 DWORD PTR _pItem$[ebp]
  00030	e8 00 00 00 00	 call	 ___RTDynamicCast
  00035	83 c4 14	 add	 esp, 20			; 00000014H

; 175  : }

  00038	5d		 pop	 ebp
  00039	c3		 ret	 0
$LN1@ToRangeCha:

; 172  : 		return NULL;

  0003a	33 c0		 xor	 eax, eax

; 175  : }

  0003c	5d		 pop	 ebp
  0003d	c3		 ret	 0
?ToRangeChargeItem@@YAPAVioRangeChargeItem@@PAVioItem@@@Z ENDP ; ToRangeChargeItem
_TEXT	ENDS
PUBLIC	??_R0?AVioRotateChargeItem@@@8			; ioRotateChargeItem `RTTI Type Descriptor'
PUBLIC	?ToRotateChargeItem@@YAPAVioRotateChargeItem@@PAVioItem@@@Z ; ToRotateChargeItem
;	COMDAT ??_R0?AVioRotateChargeItem@@@8
; File d:\lost saga for developer\youtube\tutorial\source\src\lsclient\iorotatechargeitem.h
_DATA	SEGMENT
??_R0?AVioRotateChargeItem@@@8 DD FLAT:??_7type_info@@6B@ ; ioRotateChargeItem `RTTI Type Descriptor'
	DD	00H
	DB	'.?AVioRotateChargeItem@@', 00H
; Function compile flags: /Ogsp
_DATA	ENDS
;	COMDAT ?ToRotateChargeItem@@YAPAVioRotateChargeItem@@PAVioItem@@@Z
_TEXT	SEGMENT
_pItem$ = 8						; size = 4
?ToRotateChargeItem@@YAPAVioRotateChargeItem@@PAVioItem@@@Z PROC ; ToRotateChargeItem, COMDAT

; 181  : {

  00000	55		 push	 ebp
  00001	8b ec		 mov	 ebp, esp

; 182  : 	ioWeaponItem *pWeapon = ToWeaponItem( pItem );

  00003	ff 75 08	 push	 DWORD PTR _pItem$[ebp]
  00006	e8 00 00 00 00	 call	 ?ToWeaponItem@@YAPAVioWeaponItem@@PAVioItem@@@Z ; ToWeaponItem
  0000b	59		 pop	 ecx

; 183  : 	if( !pWeapon || pWeapon->GetSubType() != ioWeaponItem::WST_ROTATE_CHARGE )

  0000c	85 c0		 test	 eax, eax
  0000e	74 2a		 je	 SHORT $LN1@ToRotateCh
  00010	8b 10		 mov	 edx, DWORD PTR [eax]
  00012	8b c8		 mov	 ecx, eax
  00014	ff 92 f0 02 00
	00		 call	 DWORD PTR [edx+752]
  0001a	83 f8 12	 cmp	 eax, 18			; 00000012H
  0001d	75 1b		 jne	 SHORT $LN1@ToRotateCh

; 185  : 
; 186  : 	return dynamic_cast< ioRotateChargeItem* >( pItem );

  0001f	6a 00		 push	 0
  00021	68 00 00 00 00	 push	 OFFSET ??_R0?AVioRotateChargeItem@@@8
  00026	68 00 00 00 00	 push	 OFFSET ??_R0?AVioItem@@@8
  0002b	6a 00		 push	 0
  0002d	ff 75 08	 push	 DWORD PTR _pItem$[ebp]
  00030	e8 00 00 00 00	 call	 ___RTDynamicCast
  00035	83 c4 14	 add	 esp, 20			; 00000014H

; 187  : }

  00038	5d		 pop	 ebp
  00039	c3		 ret	 0
$LN1@ToRotateCh:

; 184  : 		return NULL;

  0003a	33 c0		 xor	 eax, eax

; 187  : }

  0003c	5d		 pop	 ebp
  0003d	c3		 ret	 0
?ToRotateChargeItem@@YAPAVioRotateChargeItem@@PAVioItem@@@Z ENDP ; ToRotateChargeItem
_TEXT	ENDS
PUBLIC	??_R0?AVioBowItem2@@@8				; ioBowItem2 `RTTI Type Descriptor'
PUBLIC	?ToBowItem2@@YAPAVioBowItem2@@PAVioItem@@@Z	; ToBowItem2
;	COMDAT ??_R0?AVioBowItem2@@@8
; File d:\lost saga for developer\youtube\tutorial\source\src\lsclient\iobowitem2.h
_DATA	SEGMENT
??_R0?AVioBowItem2@@@8 DD FLAT:??_7type_info@@6B@	; ioBowItem2 `RTTI Type Descriptor'
	DD	00H
	DB	'.?AVioBowItem2@@', 00H
; Function compile flags: /Ogsp
_DATA	ENDS
;	COMDAT ?ToBowItem2@@YAPAVioBowItem2@@PAVioItem@@@Z
_TEXT	SEGMENT
_pItem$ = 8						; size = 4
?ToBowItem2@@YAPAVioBowItem2@@PAVioItem@@@Z PROC	; ToBowItem2, COMDAT

; 367  : {

  00000	55		 push	 ebp
  00001	8b ec		 mov	 ebp, esp
  00003	56		 push	 esi

; 368  : 	ioWeaponItem *pWeapon = ToWeaponItem( pItem );

  00004	ff 75 08	 push	 DWORD PTR _pItem$[ebp]
  00007	e8 00 00 00 00	 call	 ?ToWeaponItem@@YAPAVioWeaponItem@@PAVioItem@@@Z ; ToWeaponItem
  0000c	8b f0		 mov	 esi, eax
  0000e	59		 pop	 ecx

; 369  : 	if( !pWeapon || pWeapon->GetSubType() != ioWeaponItem::WST_BOW2 )

  0000f	85 f6		 test	 esi, esi
  00011	74 2a		 je	 SHORT $LN1@ToBowItem2
  00013	8b 06		 mov	 eax, DWORD PTR [esi]
  00015	8b ce		 mov	 ecx, esi
  00017	ff 90 f0 02 00
	00		 call	 DWORD PTR [eax+752]
  0001d	3d 83 00 00 00	 cmp	 eax, 131		; 00000083H
  00022	75 19		 jne	 SHORT $LN1@ToBowItem2

; 371  : 
; 372  : 	return dynamic_cast< ioBowItem2* >( pWeapon );

  00024	6a 00		 push	 0
  00026	68 00 00 00 00	 push	 OFFSET ??_R0?AVioBowItem2@@@8
  0002b	68 00 00 00 00	 push	 OFFSET ??_R0?AVioWeaponItem@@@8
  00030	6a 00		 push	 0
  00032	56		 push	 esi
  00033	e8 00 00 00 00	 call	 ___RTDynamicCast
  00038	83 c4 14	 add	 esp, 20			; 00000014H
  0003b	eb 02		 jmp	 SHORT $LN3@ToBowItem2
$LN1@ToBowItem2:

; 370  : 		return NULL;

  0003d	33 c0		 xor	 eax, eax
$LN3@ToBowItem2:
  0003f	5e		 pop	 esi

; 373  : }

  00040	5d		 pop	 ebp
  00041	c3		 ret	 0
?ToBowItem2@@YAPAVioBowItem2@@PAVioItem@@@Z ENDP	; ToBowItem2
_TEXT	ENDS
PUBLIC	?IsCanUseSkill@ioFullShotSkill@@UAE_NPAVioBaseChar@@_N@Z ; ioFullShotSkill::IsCanUseSkill
EXTRN	?CheckNeedGauge@ioSkill@@IAE_NPAVioBaseChar@@_N@Z:PROC ; ioSkill::CheckNeedGauge
; Function compile flags: /Ogsp
; File d:\lost saga for developer\youtube\tutorial\source\src\lsclient\iofullshotskill.cpp
;	COMDAT ?IsCanUseSkill@ioFullShotSkill@@UAE_NPAVioBaseChar@@_N@Z
_TEXT	SEGMENT
_pChar$ = 8						; size = 4
_bHelpMsg$ = 12						; size = 1
?IsCanUseSkill@ioFullShotSkill@@UAE_NPAVioBaseChar@@_N@Z PROC ; ioFullShotSkill::IsCanUseSkill, COMDAT
; _this$ = ecx

; 93   : {

  00000	55		 push	 ebp
  00001	8b ec		 mov	 ebp, esp
  00003	56		 push	 esi
  00004	8b f1		 mov	 esi, ecx

; 94   : 	ioAttackableItem *pAttackable = ToAttackableItem( GetOwnerItem() );

  00006	ff b6 a4 02 00
	00		 push	 DWORD PTR [esi+676]
  0000c	e8 00 00 00 00	 call	 ?ToAttackableItem@@YAPAVioAttackableItem@@PAVioItem@@@Z ; ToAttackableItem
  00011	59		 pop	 ecx

; 95   : 	if( pAttackable )

  00012	85 c0		 test	 eax, eax
  00014	74 15		 je	 SHORT $LN2@IsCanUseSk

; 96   : 	{
; 97   : 		if( !pAttackable->IsCanFire( pChar ) )

  00016	8b 10		 mov	 edx, DWORD PTR [eax]
  00018	6a 00		 push	 0
  0001a	6a 00		 push	 0
  0001c	ff 75 08	 push	 DWORD PTR _pChar$[ebp]
  0001f	8b c8		 mov	 ecx, eax
  00021	ff 92 b8 00 00
	00		 call	 DWORD PTR [edx+184]
  00027	84 c0		 test	 al, al
  00029	74 12		 je	 SHORT $LN1@IsCanUseSk
$LN2@IsCanUseSk:

; 98   : 			return false;
; 99   : 	}
; 100  : 
; 101  : 	if( !CheckNeedGauge( pChar, bHelpMsg ) )

  0002b	ff 75 0c	 push	 DWORD PTR _bHelpMsg$[ebp]
  0002e	8b ce		 mov	 ecx, esi
  00030	ff 75 08	 push	 DWORD PTR _pChar$[ebp]
  00033	e8 00 00 00 00	 call	 ?CheckNeedGauge@ioSkill@@IAE_NPAVioBaseChar@@_N@Z ; ioSkill::CheckNeedGauge
  00038	84 c0		 test	 al, al
  0003a	0f 95 c0	 setne	 al
$LN1@IsCanUseSk:
  0003d	5e		 pop	 esi

; 102  : 		return false;
; 103  : 
; 104  : 	return true;
; 105  : }

  0003e	5d		 pop	 ebp
  0003f	c2 08 00	 ret	 8
?IsCanUseSkill@ioFullShotSkill@@UAE_NPAVioBaseChar@@_N@Z ENDP ; ioFullShotSkill::IsCanUseSkill
_TEXT	ENDS
PUBLIC	__real@00000000
PUBLIC	__real@bf800000
PUBLIC	__real@4f800000
PUBLIC	_pStage$GSCopy$
PUBLIC	_pWeapon$GSCopy$
PUBLIC	__$ArrayPad$
PUBLIC	?ApplyAttributeToWeapon@ioFullShotSkill@@UAEXPAVioWeapon@@PAVioPlayStage@@@Z ; ioFullShotSkill::ApplyAttributeToWeapon
EXTRN	?GetCharHeadPos@ioBaseChar@@QBE?AUD3DXVECTOR3@@M@Z:PROC ; ioBaseChar::GetCharHeadPos
EXTRN	?SetSecondAttribute@ioThrowReturnWeapon@@QAEXH@Z:PROC ; ioThrowReturnWeapon::SetSecondAttribute
EXTRN	?GetMidPositionByRate@ioGameEntity@@QBE?AUD3DXVECTOR3@@M@Z:PROC ; ioGameEntity::GetMidPositionByRate
EXTRN	?ReCalcMoveDir@ioLaserItem@@QAE?AUD3DXVECTOR3@@PAVioBaseChar@@PAVioWeapon@@@Z:PROC ; ioLaserItem::ReCalcMoveDir
EXTRN	?InitCoolTime@ioLaserItem@@QAEXXZ:PROC		; ioLaserItem::InitCoolTime
EXTRN	?ReCalcMoveDir@ioBowItem@@QAE?AUD3DXVECTOR3@@PAVioBaseChar@@PAVioWeapon@@@Z:PROC ; ioBowItem::ReCalcMoveDir
EXTRN	?InitCoolTime@ioBowItem@@QAEXXZ:PROC		; ioBowItem::InitCoolTime
EXTRN	?IsChargeBulletType@ioBowItem@@QAE_NXZ:PROC	; ioBowItem::IsChargeBulletType
EXTRN	_D3DXQuaternionRotationAxis@12:PROC
EXTRN	__imp_??D@YA?AUD3DXVECTOR3@@ABUD3DXQUATERNION@@ABU0@@Z:PROC
EXTRN	?ReCalcMoveDir@ioBowItem2@@QAE?AUD3DXVECTOR3@@PAVioBaseChar@@PAVioWeapon@@@Z:PROC ; ioBowItem2::ReCalcMoveDir
EXTRN	_D3DXVec3Normalize@8:PROC
EXTRN	_D3DXQuaternionRotationYawPitchRoll@16:PROC
EXTRN	__imp_?ArrangeHead@ioMath@@SAMM@Z:PROC
EXTRN	?ReCalcMoveDir@ioFireWeaponItem@@QAE?AUD3DXVECTOR3@@PAVioBaseChar@@PAVioWeapon@@@Z:PROC ; ioFireWeaponItem::ReCalcMoveDir
EXTRN	?GetOwner@ioWeapon@@QBEPAVioBaseChar@@XZ:PROC	; ioWeapon::GetOwner
EXTRN	?Random@IORandom@@QAEII@Z:PROC			; IORandom::Random
EXTRN	?ApplyAttributeToWeapon@ioSkill@@UAEXPAVioWeapon@@PAVioPlayStage@@@Z:PROC ; ioSkill::ApplyAttributeToWeapon
EXTRN	___security_cookie:DWORD
;	COMDAT __real@00000000
; File d:\lost saga for developer\youtube\tutorial\source\src\lsclient\stdafx.h
CONST	SEGMENT
__real@00000000 DD 000000000r			; 0
CONST	ENDS
;	COMDAT __real@bf800000
CONST	SEGMENT
__real@bf800000 DD 0bf800000r			; -1
CONST	ENDS
;	COMDAT __real@4f800000
CONST	SEGMENT
__real@4f800000 DD 04f800000r			; 4.29497e+009
; Function compile flags: /Ogsp
; File d:\lost saga for developer\youtube\tutorial\source\src\lsclient\iofullshotskill.cpp
CONST	ENDS
;	COMDAT ?ApplyAttributeToWeapon@ioFullShotSkill@@UAEXPAVioWeapon@@PAVioPlayStage@@@Z
_TEXT	SEGMENT
tv3564 = -132						; size = 4
_pThrow$ = -132						; size = 4
_fCurRangeRate$601540 = -128				; size = 4
_pPower$ = -128						; size = 4
_pStage$GSCopy$ = -124					; size = 4
_fCurFloatRate$601542 = -120				; size = 4
_pBow$ = -120						; size = 4
_fCurScaleRate$601543 = -116				; size = 4
_pBow2$ = -116						; size = 4
_fCurHeight$601550 = -112				; size = 4
_fCurBlowRate$601539 = -112				; size = 4
_fCurHeight$601523 = -112				; size = 4
_pCount$ = -112						; size = 4
_qtAngle$601552 = -108					; size = 16
_qtRotate$601526 = -108					; size = 16
_qtRotate$601504 = -108					; size = 16
_qtRotate$601480 = -108					; size = 16
_qtAngle$601455 = -108					; size = 16
_qtRotate$601433 = -108					; size = 16
_fCurRange$601549 = -92					; size = 4
_fCurForceRate$601538 = -92				; size = 4
_fCurRange$601522 = -92					; size = 4
_pRange$ = -92						; size = 4
_fCurExplosionRate$601544 = -88				; size = 4
_fSpeed$ = -88						; size = 4
_qtRotate$601553 = -84					; size = 16
_qtAngle$601525 = -84					; size = 16
_qtAngle$601502 = -84					; size = 16
_qtAngle$601478 = -84					; size = 16
_qtRotate$601457 = -84					; size = 16
_qtAngle$601427 = -84					; size = 16
tv4327 = -68						; size = 4
tv4296 = -68						; size = 4
tv4030 = -68						; size = 4
tv3999 = -68						; size = 4
tv3883 = -68						; size = 4
tv3852 = -68						; size = 4
tv3764 = -68						; size = 4
tv3733 = -68						; size = 4
tv3729 = -68						; size = 4
tv3668 = -68						; size = 4
tv3637 = -68						; size = 4
tv3633 = -68						; size = 4
_fCurWoundedTimeRate$601545 = -68			; size = 4
tv3786 = -64						; size = 4
tv3725 = -64						; size = 4
tv3690 = -64						; size = 4
tv3629 = -64						; size = 4
_fCurAngle$601548 = -64					; size = 4
_fCurDamageRate$601537 = -64				; size = 4
_fCurAngle$601521 = -64					; size = 4
_pRotate$ = -64						; size = 4
_pWeapon$GSCopy$ = -60					; size = 4
tv3489 = -56						; size = 4
tv3377 = -56						; size = 4
tv3269 = -56						; size = 4
tv3143 = -56						; size = 4
_fCurSpeedRate$601541 = -56				; size = 4
_fCurAngle$601500 = -56					; size = 4
_fCurAngle$601476 = -56					; size = 4
_fCurAngle$601453 = -56					; size = 4
_fCurAngle$601425 = -56					; size = 4
_pLaser$ = -56						; size = 4
$T601568 = -52						; size = 12
$T601557 = -52						; size = 12
$T601556 = -52						; size = 12
$T601530 = -52						; size = 12
$T601529 = -52						; size = 12
$T601515 = -52						; size = 12
$T601508 = -52						; size = 12
$T601498 = -52						; size = 12
$T601474 = -52						; size = 12
$T601466 = -52						; size = 12
$T601460 = -52						; size = 12
$T601459 = -52						; size = 12
$T601451 = -52						; size = 12
$T601423 = -52						; size = 12
_v$606779 = -40						; size = 12
_v$606689 = -40						; size = 12
_v$606517 = -40						; size = 12
$T601555 = -40						; size = 12
$T601528 = -40						; size = 12
_vYAxis$601512 = -40					; size = 12
$T601507 = -40						; size = 12
_vYAxis$601488 = -40					; size = 12
_vMoveDir$601454 = -40					; size = 12
_vYAxis$601441 = -40					; size = 12
_v$606599 = -28						; size = 12
_vMoveDir$601551 = -28					; size = 12
_vMoveDir$601524 = -28					; size = 12
_vMoveDir$601501 = -28					; size = 12
$T601458 = -28						; size = 12
_vPos$601558 = -16					; size = 12
_vPos$601531 = -16					; size = 12
_vRotAxis2$601514 = -16					; size = 12
$T601506 = -16						; size = 12
_vRotAxis2$601490 = -16					; size = 12
_vRotAxis2$601465 = -16					; size = 12
_vRotAxis2$601443 = -16					; size = 12
__$ArrayPad$ = -4					; size = 4
_pWeapon$ = 8						; size = 4
_pStage$ = 12						; size = 4
?ApplyAttributeToWeapon@ioFullShotSkill@@UAEXPAVioWeapon@@PAVioPlayStage@@@Z PROC ; ioFullShotSkill::ApplyAttributeToWeapon, COMDAT
; _this$ = ecx

; 250  : {

  00000	55		 push	 ebp
  00001	8b ec		 mov	 ebp, esp
  00003	81 ec 84 00 00
	00		 sub	 esp, 132		; 00000084H
  00009	a1 00 00 00 00	 mov	 eax, DWORD PTR ___security_cookie
  0000e	33 c5		 xor	 eax, ebp
  00010	89 45 fc	 mov	 DWORD PTR __$ArrayPad$[ebp], eax
  00013	8b 45 0c	 mov	 eax, DWORD PTR _pStage$[ebp]
  00016	53		 push	 ebx
  00017	56		 push	 esi
  00018	57		 push	 edi
  00019	8b 7d 08	 mov	 edi, DWORD PTR _pWeapon$[ebp]

; 251  : 	ioSkill::ApplyAttributeToWeapon( pWeapon, pStage );

  0001c	50		 push	 eax
  0001d	57		 push	 edi
  0001e	8b d9		 mov	 ebx, ecx

; 605  : 	{
; 606  : 		pThrow->SetSecondAttribute( m_iSecondAttributeIndex );

  00020	89 7d c4	 mov	 DWORD PTR _pWeapon$GSCopy$[ebp], edi
  00023	89 45 84	 mov	 DWORD PTR _pStage$GSCopy$[ebp], eax
  00026	e8 00 00 00 00	 call	 ?ApplyAttributeToWeapon@ioSkill@@UAEXPAVioWeapon@@PAVioPlayStage@@@Z ; ioSkill::ApplyAttributeToWeapon
  0002b	80 bb 08 1b 00
	00 00		 cmp	 BYTE PTR [ebx+6920], 0
  00032	0f 57 c0	 xorps	 xmm0, xmm0
  00035	f3 0f 10 8b 0c
	1b 00 00	 movss	 xmm1, DWORD PTR [ebx+6924]
  0003d	f3 0f 11 45 a8	 movss	 DWORD PTR _fSpeed$[ebp], xmm0
  00042	f3 0f 10 83 10
	1b 00 00	 movss	 xmm0, DWORD PTR [ebx+6928]
  0004a	0f 5a c0	 cvtps2pd xmm0, xmm0
  0004d	0f 5a c9	 cvtps2pd xmm1, xmm1
  00050	f2 0f 5c c1	 subsd	 xmm0, xmm1
  00054	f2 0f 2c c0	 cvttsd2si eax, xmm0
  00058	74 32		 je	 SHORT $LN51@ApplyAttri

; 252  : 
; 253  : 	float fSpeed = 0.0f;
; 254  : 	int iGap = m_fMaxSpeed - m_fMinSpeed;
; 255  : 	if( m_bUseSpeedRandom && iGap > 0 )

  0005a	85 c0		 test	 eax, eax
  0005c	7e 2e		 jle	 SHORT $LN51@ApplyAttri

; 256  : 	{
; 257  : 		int iRand = m_SpeedRand.Random( iGap );

  0005e	50		 push	 eax
  0005f	8d 8b 3c 11 00
	00		 lea	 ecx, DWORD PTR [ebx+4412]
  00065	e8 00 00 00 00	 call	 ?Random@IORandom@@QAEII@Z ; IORandom::Random

; 258  : 		fSpeed = m_fMinSpeed + iRand;

  0006a	f3 0f 10 8b 0c
	1b 00 00	 movss	 xmm1, DWORD PTR [ebx+6924]
  00072	0f 57 c0	 xorps	 xmm0, xmm0
  00075	f3 0f 2a c0	 cvtsi2ss xmm0, eax
  00079	0f 5a c0	 cvtps2pd xmm0, xmm0
  0007c	0f 5a c9	 cvtps2pd xmm1, xmm1
  0007f	f2 0f 58 c1	 addsd	 xmm0, xmm1
  00083	66 0f 5a c0	 cvtpd2ps xmm0, xmm0
  00087	f3 0f 11 45 a8	 movss	 DWORD PTR _fSpeed$[ebp], xmm0
$LN51@ApplyAttri:

; 259  : 	}
; 260  : 
; 261  : 	ioBowItem2 *pBow2 = ToBowItem2( GetOwnerItem() );

  0008c	ff b3 a4 02 00
	00		 push	 DWORD PTR [ebx+676]
  00092	e8 00 00 00 00	 call	 ?ToBowItem2@@YAPAVioBowItem2@@PAVioItem@@@Z ; ToBowItem2

; 262  : 	ioFireWeaponItem *pFire = ToFireWeaponItem( GetOwnerItem() );

  00097	ff b3 a4 02 00
	00		 push	 DWORD PTR [ebx+676]
  0009d	89 45 8c	 mov	 DWORD PTR _pBow2$[ebp], eax
  000a0	e8 00 00 00 00	 call	 ?ToFireWeaponItem@@YAPAVioFireWeaponItem@@PAVioItem@@@Z ; ToFireWeaponItem

; 263  : 	ioLaserItem *pLaser = ToLaserItem( GetOwnerItem() );

  000a5	ff b3 a4 02 00
	00		 push	 DWORD PTR [ebx+676]
  000ab	8b f0		 mov	 esi, eax
  000ad	e8 00 00 00 00	 call	 ?ToLaserItem@@YAPAVioLaserItem@@PAVioItem@@@Z ; ToLaserItem

; 264  : 	ioBowItem *pBow = ToBowItem( GetOwnerItem() );

  000b2	ff b3 a4 02 00
	00		 push	 DWORD PTR [ebx+676]
  000b8	89 45 c8	 mov	 DWORD PTR _pLaser$[ebp], eax
  000bb	e8 00 00 00 00	 call	 ?ToBowItem@@YAPAVioBowItem@@PAVioItem@@@Z ; ToBowItem

; 265  : 	ioPowerChargeItem *pPower = ToPowerChargeItem( GetOwnerItem() );

  000c0	ff b3 a4 02 00
	00		 push	 DWORD PTR [ebx+676]
  000c6	89 45 88	 mov	 DWORD PTR _pBow$[ebp], eax
  000c9	e8 00 00 00 00	 call	 ?ToPowerChargeItem@@YAPAVioPowerChargeItem@@PAVioItem@@@Z ; ToPowerChargeItem

; 266  : 	ioCountChargeItem *pCount = ToCountChargeItem( GetOwnerItem() );

  000ce	ff b3 a4 02 00
	00		 push	 DWORD PTR [ebx+676]
  000d4	89 45 80	 mov	 DWORD PTR _pPower$[ebp], eax
  000d7	e8 00 00 00 00	 call	 ?ToCountChargeItem@@YAPAVioCountChargeItem@@PAVioItem@@@Z ; ToCountChargeItem

; 267  : 	ioRangeChargeItem *pRange = ToRangeChargeItem( GetOwnerItem() );

  000dc	ff b3 a4 02 00
	00		 push	 DWORD PTR [ebx+676]
  000e2	89 45 90	 mov	 DWORD PTR _pCount$[ebp], eax
  000e5	e8 00 00 00 00	 call	 ?ToRangeChargeItem@@YAPAVioRangeChargeItem@@PAVioItem@@@Z ; ToRangeChargeItem

; 268  : 	ioRotateChargeItem *pRotate = ToRotateChargeItem( GetOwnerItem() );

  000ea	ff b3 a4 02 00
	00		 push	 DWORD PTR [ebx+676]
  000f0	89 45 a4	 mov	 DWORD PTR _pRange$[ebp], eax
  000f3	e8 00 00 00 00	 call	 ?ToRotateChargeItem@@YAPAVioRotateChargeItem@@PAVioItem@@@Z ; ToRotateChargeItem

; 269  : 
; 270  : 	ioThrowReturnWeapon *pThrow = ToThrowReturnWeapon( pWeapon );

  000f8	57		 push	 edi
  000f9	89 45 c0	 mov	 DWORD PTR _pRotate$[ebp], eax
  000fc	e8 00 00 00 00	 call	 ?ToThrowReturnWeapon@@YAPAVioThrowReturnWeapon@@PAVioWeapon@@@Z ; ToThrowReturnWeapon
  00101	83 c4 24	 add	 esp, 36			; 00000024H
  00104	89 85 7c ff ff
	ff		 mov	 DWORD PTR _pThrow$[ebp], eax

; 271  : 
; 272  : 	if( pFire )

  0010a	85 f6		 test	 esi, esi
  0010c	0f 84 57 02 00
	00		 je	 $LN50@ApplyAttri

; 273  : 	{
; 274  : 		D3DXVECTOR3 vZero( 0.0f, 0.0f, 0.0f );
; 275  : 
; 276  : 		if( pFire->GetAimedSkillUse() && pFire->GetAimedDirSet() )

  00112	80 be ec 1c 00
	00 00		 cmp	 BYTE PTR [esi+7404], 0
  00119	74 55		 je	 SHORT $LN48@ApplyAttri
  0011b	80 be ed 1c 00
	00 00		 cmp	 BYTE PTR [esi+7405], 0
  00122	74 4c		 je	 SHORT $LN48@ApplyAttri

; 277  : 		{
; 278  : 			if( m_vSkillDir == vZero )

  00124	0f 57 c0	 xorps	 xmm0, xmm0
  00127	8d bb e4 10 00
	00		 lea	 edi, DWORD PTR [ebx+4324]
  0012d	f3 0f 10 0f	 movss	 xmm1, DWORD PTR [edi]
  00131	0f 2e c8	 ucomiss xmm1, xmm0
  00134	9f		 lahf
  00135	f6 c4 44	 test	 ah, 68			; 00000044H
  00138	7a 36		 jp	 SHORT $LN48@ApplyAttri
  0013a	f3 0f 10 4f 04	 movss	 xmm1, DWORD PTR [edi+4]
  0013f	0f 2e c8	 ucomiss xmm1, xmm0
  00142	9f		 lahf
  00143	f6 c4 44	 test	 ah, 68			; 00000044H
  00146	7a 28		 jp	 SHORT $LN48@ApplyAttri
  00148	f3 0f 10 4f 08	 movss	 xmm1, DWORD PTR [edi+8]
  0014d	0f 2e c8	 ucomiss xmm1, xmm0
  00150	9f		 lahf
  00151	f6 c4 44	 test	 ah, 68			; 00000044H
  00154	7a 1a		 jp	 SHORT $LN48@ApplyAttri

; 279  : 			{
; 280  : 				m_vSkillDir = pFire->ReCalcMoveDir( pWeapon->GetOwner(), pWeapon );

  00156	8b 4d c4	 mov	 ecx, DWORD PTR _pWeapon$GSCopy$[ebp]
  00159	51		 push	 ecx
  0015a	e8 00 00 00 00	 call	 ?GetOwner@ioWeapon@@QBEPAVioBaseChar@@XZ ; ioWeapon::GetOwner
  0015f	50		 push	 eax
  00160	8d 45 cc	 lea	 eax, DWORD PTR $T601423[ebp]
  00163	50		 push	 eax
  00164	8b ce		 mov	 ecx, esi
  00166	e8 00 00 00 00	 call	 ?ReCalcMoveDir@ioFireWeaponItem@@QAE?AUD3DXVECTOR3@@PAVioBaseChar@@PAVioWeapon@@@Z ; ioFireWeaponItem::ReCalcMoveDir
  0016b	8b f0		 mov	 esi, eax
  0016d	a5		 movsd
  0016e	a5		 movsd
  0016f	a5		 movsd
$LN48@ApplyAttri:

; 281  : 			}
; 282  : 		}
; 283  : 
; 284  : 		if( m_iMaxWeaponWay <= m_iWeaponWay )

  00170	8b 83 f4 10 00
	00		 mov	 eax, DWORD PTR [ebx+4340]
  00176	39 83 f0 10 00
	00		 cmp	 DWORD PTR [ebx+4336], eax
  0017c	0f 8e 23 10 00
	00		 jle	 $LN1@ApplyAttri

; 285  : 			return;
; 286  : 
; 287  : 		float fCurAngle = 0.0f;
; 288  : 		fCurAngle = m_BulletInfoList[m_iWeaponWay].m_fYawAngle;

  00182	8b 8b f8 10 00
	00		 mov	 ecx, DWORD PTR [ebx+4344]
  00188	6b c0 14	 imul	 eax, 20			; 00000014H
  0018b	f3 0f 10 04 08	 movss	 xmm0, DWORD PTR [eax+ecx]

; 289  : 			
; 290  : 		fCurAngle = ioMath::ArrangeHead( fCurAngle );

  00190	51		 push	 ecx
  00191	f3 0f 11 04 24	 movss	 DWORD PTR [esp], xmm0
  00196	ff 15 00 00 00
	00		 call	 DWORD PTR __imp_?ArrangeHead@ioMath@@SAMM@Z
  0019c	d9 5d c8	 fstp	 DWORD PTR _fCurAngle$601425[ebp]

; 291  : 
; 292  : 		D3DXVECTOR3 vMoveDir;
; 293  : 		D3DXQUATERNION qtAngle;
; 294  : 		D3DXQuaternionRotationYawPitchRoll( &qtAngle, DEGtoRAD(fCurAngle), 0.0f, 0.0f );

  0019f	f3 0f 10 45 c8	 movss	 xmm0, DWORD PTR _fCurAngle$601425[ebp]
  001a4	0f 5a c0	 cvtps2pd xmm0, xmm0
  001a7	f2 0f 59 05 00
	00 00 00	 mulsd	 xmm0, QWORD PTR __real@3f91df46a2526c7a
  001af	66 0f 5a c8	 cvtpd2ps xmm1, xmm0
  001b3	0f 57 c0	 xorps	 xmm0, xmm0
  001b6	f3 0f 11 04 24	 movss	 DWORD PTR [esp], xmm0
  001bb	51		 push	 ecx
  001bc	51		 push	 ecx
  001bd	f3 0f 11 44 24
	04		 movss	 DWORD PTR [esp+4], xmm0
  001c3	8d 45 ac	 lea	 eax, DWORD PTR _qtAngle$601427[ebp]
  001c6	f3 0f 11 0c 24	 movss	 DWORD PTR [esp], xmm1
  001cb	50		 push	 eax
  001cc	f3 0f 11 4d c8	 movss	 DWORD PTR tv3143[ebp], xmm1
  001d1	e8 00 00 00 00	 call	 _D3DXQuaternionRotationYawPitchRoll@16

; 295  : 
; 296  : 		if( m_vSkillDir == vZero )

  001d6	0f 57 c0	 xorps	 xmm0, xmm0
  001d9	8d 8b e4 10 00
	00		 lea	 ecx, DWORD PTR [ebx+4324]
  001df	f3 0f 10 09	 movss	 xmm1, DWORD PTR [ecx]
  001e3	0f 2e c8	 ucomiss xmm1, xmm0
  001e6	9f		 lahf
  001e7	f6 c4 44	 test	 ah, 68			; 00000044H
  001ea	7a 41		 jp	 SHORT $LN46@ApplyAttri
  001ec	f3 0f 10 49 04	 movss	 xmm1, DWORD PTR [ecx+4]
  001f1	0f 2e c8	 ucomiss xmm1, xmm0
  001f4	9f		 lahf
  001f5	f6 c4 44	 test	 ah, 68			; 00000044H
  001f8	7a 33		 jp	 SHORT $LN46@ApplyAttri
  001fa	f3 0f 10 49 08	 movss	 xmm1, DWORD PTR [ecx+8]
  001ff	0f 2e c8	 ucomiss xmm1, xmm0
  00202	9f		 lahf
  00203	f6 c4 44	 test	 ah, 68			; 00000044H
  00206	7a 25		 jp	 SHORT $LN46@ApplyAttri

; 297  : 		{
; 298  : 			D3DXQUATERNION qtRotate = pWeapon->GetOwner()->GetTargetRot();

  00208	8b 4d c4	 mov	 ecx, DWORD PTR _pWeapon$GSCopy$[ebp]
  0020b	e8 00 00 00 00	 call	 ?GetOwner@ioWeapon@@QBEPAVioBaseChar@@XZ ; ioWeapon::GetOwner
  00210	8d b0 a4 06 00
	00		 lea	 esi, DWORD PTR [eax+1700]
  00216	8d 7d 94	 lea	 edi, DWORD PTR _qtRotate$601433[ebp]
  00219	a5		 movsd
  0021a	a5		 movsd
  0021b	a5		 movsd
  0021c	a5		 movsd

; 299  : 			vMoveDir = qtRotate * D3DXVECTOR3( 0.0f, 0.0f, -FLOAT1 );

  0021d	b8 01 00 00 00	 mov	 eax, 1
  00222	89 45 bc	 mov	 DWORD PTR tv4327[ebp], eax
  00225	db 45 bc	 fild	 DWORD PTR tv4327[ebp]

; 300  : 			vMoveDir = qtAngle * vMoveDir;
; 301  : 		}
; 302  : 		else

  00228	e9 7f 07 00 00	 jmp	 $LN359@ApplyAttri
$LN46@ApplyAttri:

; 303  : 		{
; 304  : 			if( m_vSkillDir.y != 0 )

  0022d	f3 0f 10 8b e8
	10 00 00	 movss	 xmm1, DWORD PTR [ebx+4328]
  00235	0f 2e c8	 ucomiss xmm1, xmm0
  00238	9f		 lahf
  00239	f6 c4 44	 test	 ah, 68			; 00000044H
  0023c	0f 8b 01 09 00
	00		 jnp	 $LN16@ApplyAttri

; 305  : 			{
; 306  : 				D3DXVECTOR3 vYAxis( 0.0f, FLOAT1, 0.0f );

  00242	b8 01 00 00 00	 mov	 eax, 1
  00247	89 45 bc	 mov	 DWORD PTR tv4296[ebp], eax
  0024a	db 45 bc	 fild	 DWORD PTR tv4296[ebp]
  0024d	85 c0		 test	 eax, eax
  0024f	79 06		 jns	 SHORT $LN337@ApplyAttri
  00251	d8 05 00 00 00
	00		 fadd	 DWORD PTR __real@4f800000
$LN337@ApplyAttri:

; 307  : 				D3DXVECTOR3 vRotAxis1, vRotAxis2;
; 308  : 
; 309  : 				// vRotAxis1은 스킬Dir과 Y축의 법선벡터
; 310  : 				D3DXVec3Cross( &vRotAxis1, &vYAxis, &m_vSkillDir );

  00257	f3 0f 10 9b ec
	10 00 00	 movss	 xmm3, DWORD PTR [ebx+4332]
  0025f	d9 5d dc	 fstp	 DWORD PTR _vYAxis$601441[ebp+4]
  00262	f3 0f 10 83 e8
	10 00 00	 movss	 xmm0, DWORD PTR [ebx+4328]
  0026a	0f 57 c9	 xorps	 xmm1, xmm1
  0026d	f3 0f 10 55 dc	 movss	 xmm2, DWORD PTR _vYAxis$601441[ebp+4]
  00272	0f 5a c0	 cvtps2pd xmm0, xmm0
  00275	f2 0f 59 c1	 mulsd	 xmm0, xmm1
  00279	0f 5a e3	 cvtps2pd xmm4, xmm3
  0027c	0f 5a db	 cvtps2pd xmm3, xmm3
  0027f	f2 0f 59 d9	 mulsd	 xmm3, xmm1
  00283	0f 5a d2	 cvtps2pd xmm2, xmm2
  00286	f2 0f 59 d4	 mulsd	 xmm2, xmm4
  0028a	f2 0f 5c d0	 subsd	 xmm2, xmm0
  0028e	0f 57 e4	 xorps	 xmm4, xmm4
  00291	f2 0f 5a e2	 cvtsd2ss xmm4, xmm2
  00295	f3 0f 10 93 e4
	10 00 00	 movss	 xmm2, DWORD PTR [ebx+4324]
  0029d	0f 5a ea	 cvtps2pd xmm5, xmm2
  002a0	f2 0f 59 e9	 mulsd	 xmm5, xmm1
  002a4	f2 0f 5c eb	 subsd	 xmm5, xmm3
  002a8	0f 5a da	 cvtps2pd xmm3, xmm2
  002ab	0f 57 c9	 xorps	 xmm1, xmm1
  002ae	66 0f 5a cd	 cvtpd2ps xmm1, xmm5
  002b2	f3 0f 10 6d dc	 movss	 xmm5, DWORD PTR _vYAxis$601441[ebp+4]
  002b7	0f 5a ed	 cvtps2pd xmm5, xmm5
  002ba	f2 0f 59 dd	 mulsd	 xmm3, xmm5

; 311  : 
; 312  : 				// vRotAxis2는 스킬Dir과 vRotAxis1의 법선벡터
; 313  : 				D3DXVec3Cross( &vRotAxis2, &vRotAxis1, &m_vSkillDir );

  002be	f3 0f 10 ab e8
	10 00 00	 movss	 xmm5, DWORD PTR [ebx+4328]
  002c6	f2 0f 5c c3	 subsd	 xmm0, xmm3
  002ca	f3 0f 10 9b ec
	10 00 00	 movss	 xmm3, DWORD PTR [ebx+4332]
  002d2	66 0f 5a c0	 cvtpd2ps xmm0, xmm0
  002d6	0f 5a fb	 cvtps2pd xmm7, xmm3
  002d9	0f 5a ed	 cvtps2pd xmm5, xmm5
  002dc	0f 5a f1	 cvtps2pd xmm6, xmm1
  002df	f2 0f 59 f7	 mulsd	 xmm6, xmm7
  002e3	0f 57 ff	 xorps	 xmm7, xmm7
  002e6	f3 0f 5a f8	 cvtss2sd xmm7, xmm0
  002ea	f3 0f 5a c0	 cvtss2sd xmm0, xmm0
  002ee	f2 0f 59 fd	 mulsd	 xmm7, xmm5
  002f2	f2 0f 5c f7	 subsd	 xmm6, xmm7
  002f6	66 0f 5a ee	 cvtpd2ps xmm5, xmm6
  002fa	f3 0f 11 6d d8	 movss	 DWORD PTR _v$606517[ebp], xmm5
  002ff	0f 5a db	 cvtps2pd xmm3, xmm3
  00302	0f 5a c9	 cvtps2pd xmm1, xmm1
  00305	8d 75 d8	 lea	 esi, DWORD PTR _v$606517[ebp]
  00308	8d 7d f0	 lea	 edi, DWORD PTR _vRotAxis2$601443[ebp]
  0030b	0f 5a ea	 cvtps2pd xmm5, xmm2
  0030e	f2 0f 59 e8	 mulsd	 xmm5, xmm0
  00312	0f 5a c4	 cvtps2pd xmm0, xmm4
  00315	f2 0f 59 c3	 mulsd	 xmm0, xmm3
  00319	f2 0f 5c e8	 subsd	 xmm5, xmm0
  0031d	0f 57 c0	 xorps	 xmm0, xmm0
  00320	66 0f 5a c5	 cvtpd2ps xmm0, xmm5
  00324	f3 0f 11 45 dc	 movss	 DWORD PTR _v$606517[ebp+4], xmm0
  00329	f3 0f 10 83 e8
	10 00 00	 movss	 xmm0, DWORD PTR [ebx+4328]
  00331	0f 5a c0	 cvtps2pd xmm0, xmm0
  00334	0f 5a dc	 cvtps2pd xmm3, xmm4
  00337	f2 0f 59 d8	 mulsd	 xmm3, xmm0

; 314  : 
; 315  : 				D3DXVec3Normalize( &vRotAxis2, &vRotAxis2 );

  0033b	8d 45 f0	 lea	 eax, DWORD PTR _vRotAxis2$601443[ebp]
  0033e	50		 push	 eax
  0033f	50		 push	 eax
  00340	0f 5a c2	 cvtps2pd xmm0, xmm2
  00343	f2 0f 59 c1	 mulsd	 xmm0, xmm1
  00347	f2 0f 5c d8	 subsd	 xmm3, xmm0
  0034b	0f 57 c0	 xorps	 xmm0, xmm0
  0034e	66 0f 5a c3	 cvtpd2ps xmm0, xmm3
  00352	f3 0f 11 45 e0	 movss	 DWORD PTR _v$606517[ebp+8], xmm0
  00357	a5		 movsd
  00358	a5		 movsd
  00359	a5		 movsd
  0035a	e8 00 00 00 00	 call	 _D3DXVec3Normalize@8

; 316  : 				D3DXQuaternionRotationAxis( &qtAngle, &vRotAxis2, DEGtoRAD(fCurAngle) );

  0035f	f3 0f 10 45 c8	 movss	 xmm0, DWORD PTR tv3143[ebp]

; 317  : 			}
; 318  : 
; 319  : 			vMoveDir = qtAngle * m_vSkillDir;
; 320  : 		}
; 321  : 
; 322  : 		pWeapon->SetMoveDir( vMoveDir );
; 323  : 
; 324  : 		if( fSpeed > 0.0f )
; 325  : 			pWeapon->SetMoveSpeed( fSpeed );
; 326  : 
; 327  : 		m_iWeaponWay++;

  00364	e9 c7 07 00 00	 jmp	 $LN356@ApplyAttri
$LN50@ApplyAttri:

; 328  : 	}
; 329  : 	else if( pBow2 )

  00369	8b 45 8c	 mov	 eax, DWORD PTR _pBow2$[ebp]
  0036c	33 c9		 xor	 ecx, ecx
  0036e	3b c1		 cmp	 eax, ecx
  00370	0f 84 95 02 00
	00		 je	 $LN41@ApplyAttri

; 330  : 	{
; 331  : 		D3DXVECTOR3 vZero( 0.0f, 0.0f, 0.0f );
; 332  : 
; 333  : 		if( pBow2->GetAimedSkillUse() && pBow2->GetAimedDirSet() )

  00376	38 88 44 1c 00
	00		 cmp	 BYTE PTR [eax+7236], cl
  0037c	74 55		 je	 SHORT $LN39@ApplyAttri
  0037e	38 88 45 1c 00
	00		 cmp	 BYTE PTR [eax+7237], cl
  00384	74 4d		 je	 SHORT $LN39@ApplyAttri

; 334  : 		{
; 335  : 			if( m_vSkillDir == vZero )

  00386	0f 57 c0	 xorps	 xmm0, xmm0
  00389	8d bb e4 10 00
	00		 lea	 edi, DWORD PTR [ebx+4324]
  0038f	f3 0f 10 0f	 movss	 xmm1, DWORD PTR [edi]
  00393	0f 2e c8	 ucomiss xmm1, xmm0
  00396	9f		 lahf
  00397	f6 c4 44	 test	 ah, 68			; 00000044H
  0039a	7a 37		 jp	 SHORT $LN39@ApplyAttri
  0039c	f3 0f 10 4f 04	 movss	 xmm1, DWORD PTR [edi+4]
  003a1	0f 2e c8	 ucomiss xmm1, xmm0
  003a4	9f		 lahf
  003a5	f6 c4 44	 test	 ah, 68			; 00000044H
  003a8	7a 29		 jp	 SHORT $LN39@ApplyAttri
  003aa	f3 0f 10 4f 08	 movss	 xmm1, DWORD PTR [edi+8]
  003af	0f 2e c8	 ucomiss xmm1, xmm0
  003b2	9f		 lahf
  003b3	f6 c4 44	 test	 ah, 68			; 00000044H
  003b6	7a 1b		 jp	 SHORT $LN39@ApplyAttri

; 336  : 			{
; 337  : 				m_vSkillDir = pBow2->ReCalcMoveDir( pWeapon->GetOwner(), pWeapon );

  003b8	8b 4d c4	 mov	 ecx, DWORD PTR _pWeapon$GSCopy$[ebp]
  003bb	51		 push	 ecx
  003bc	e8 00 00 00 00	 call	 ?GetOwner@ioWeapon@@QBEPAVioBaseChar@@XZ ; ioWeapon::GetOwner
  003c1	8b 4d 8c	 mov	 ecx, DWORD PTR _pBow2$[ebp]
  003c4	50		 push	 eax
  003c5	8d 45 cc	 lea	 eax, DWORD PTR $T601451[ebp]
  003c8	50		 push	 eax
  003c9	e8 00 00 00 00	 call	 ?ReCalcMoveDir@ioBowItem2@@QAE?AUD3DXVECTOR3@@PAVioBaseChar@@PAVioWeapon@@@Z ; ioBowItem2::ReCalcMoveDir
  003ce	8b f0		 mov	 esi, eax
  003d0	a5		 movsd
  003d1	a5		 movsd
  003d2	a5		 movsd
$LN39@ApplyAttri:

; 338  : 			}
; 339  : 		}
; 340  : 
; 341  : 		if( m_iMaxWeaponWay <= m_iWeaponWay )

  003d3	8b 83 f4 10 00
	00		 mov	 eax, DWORD PTR [ebx+4340]
  003d9	39 83 f0 10 00
	00		 cmp	 DWORD PTR [ebx+4336], eax
  003df	0f 8e c0 0d 00
	00		 jle	 $LN1@ApplyAttri

; 342  : 			return;
; 343  : 
; 344  : 		float fCurAngle = 0.0f;
; 345  : 		fCurAngle = m_BulletInfoList[m_iWeaponWay].m_fYawAngle;

  003e5	8b 8b f8 10 00
	00		 mov	 ecx, DWORD PTR [ebx+4344]
  003eb	6b c0 14	 imul	 eax, 20			; 00000014H
  003ee	f3 0f 10 04 08	 movss	 xmm0, DWORD PTR [eax+ecx]

; 346  : 
; 347  : 		fCurAngle = ioMath::ArrangeHead( fCurAngle );

  003f3	51		 push	 ecx
  003f4	f3 0f 11 04 24	 movss	 DWORD PTR [esp], xmm0
  003f9	ff 15 00 00 00
	00		 call	 DWORD PTR __imp_?ArrangeHead@ioMath@@SAMM@Z
  003ff	d9 5d c8	 fstp	 DWORD PTR _fCurAngle$601453[ebp]

; 348  : 
; 349  : 		D3DXVECTOR3 vMoveDir;
; 350  : 		D3DXQUATERNION qtAngle;
; 351  : 		D3DXQuaternionRotationYawPitchRoll( &qtAngle, DEGtoRAD(fCurAngle), 0.0f, 0.0f );

  00402	f3 0f 10 45 c8	 movss	 xmm0, DWORD PTR _fCurAngle$601453[ebp]
  00407	0f 5a c0	 cvtps2pd xmm0, xmm0
  0040a	f2 0f 59 05 00
	00 00 00	 mulsd	 xmm0, QWORD PTR __real@3f91df46a2526c7a
  00412	66 0f 5a c8	 cvtpd2ps xmm1, xmm0
  00416	0f 57 c0	 xorps	 xmm0, xmm0
  00419	f3 0f 11 04 24	 movss	 DWORD PTR [esp], xmm0
  0041e	51		 push	 ecx
  0041f	51		 push	 ecx
  00420	f3 0f 11 44 24
	04		 movss	 DWORD PTR [esp+4], xmm0
  00426	8d 45 94	 lea	 eax, DWORD PTR _qtAngle$601455[ebp]
  00429	f3 0f 11 0c 24	 movss	 DWORD PTR [esp], xmm1
  0042e	50		 push	 eax
  0042f	f3 0f 11 4d c8	 movss	 DWORD PTR tv3269[ebp], xmm1
  00434	e8 00 00 00 00	 call	 _D3DXQuaternionRotationYawPitchRoll@16

; 352  : 
; 353  : 		if( m_vSkillDir == vZero )

  00439	0f 57 c0	 xorps	 xmm0, xmm0
  0043c	8d 8b e4 10 00
	00		 lea	 ecx, DWORD PTR [ebx+4324]
  00442	f3 0f 10 11	 movss	 xmm2, DWORD PTR [ecx]
  00446	0f 2e d0	 ucomiss xmm2, xmm0
  00449	9f		 lahf
  0044a	f6 c4 44	 test	 ah, 68			; 00000044H
  0044d	7a 7f		 jp	 SHORT $LN37@ApplyAttri
  0044f	f3 0f 10 49 04	 movss	 xmm1, DWORD PTR [ecx+4]
  00454	0f 2e c8	 ucomiss xmm1, xmm0
  00457	9f		 lahf
  00458	f6 c4 44	 test	 ah, 68			; 00000044H
  0045b	7a 71		 jp	 SHORT $LN37@ApplyAttri
  0045d	f3 0f 10 49 08	 movss	 xmm1, DWORD PTR [ecx+8]
  00462	0f 2e c8	 ucomiss xmm1, xmm0
  00465	9f		 lahf
  00466	f6 c4 44	 test	 ah, 68			; 00000044H
  00469	7a 63		 jp	 SHORT $LN37@ApplyAttri

; 354  : 		{
; 355  : 			D3DXQUATERNION qtRotate = pWeapon->GetOwner()->GetTargetRot();

  0046b	8b 4d c4	 mov	 ecx, DWORD PTR _pWeapon$GSCopy$[ebp]
  0046e	e8 00 00 00 00	 call	 ?GetOwner@ioWeapon@@QBEPAVioBaseChar@@XZ ; ioWeapon::GetOwner

; 356  : 			vMoveDir = qtRotate * D3DXVECTOR3( 0.0f, 0.0f, -1.0f );

  00473	0f 57 c0	 xorps	 xmm0, xmm0
  00476	8d b0 a4 06 00
	00		 lea	 esi, DWORD PTR [eax+1700]
  0047c	8d 7d ac	 lea	 edi, DWORD PTR _qtRotate$601457[ebp]
  0047f	a5		 movsd
  00480	a5		 movsd
  00481	8d 45 e4	 lea	 eax, DWORD PTR $T601458[ebp]
  00484	50		 push	 eax
  00485	8d 45 ac	 lea	 eax, DWORD PTR _qtRotate$601457[ebp]
  00488	a5		 movsd
  00489	50		 push	 eax
  0048a	8d 45 cc	 lea	 eax, DWORD PTR $T601459[ebp]
  0048d	f3 0f 11 45 e4	 movss	 DWORD PTR $T601458[ebp], xmm0
  00492	f3 0f 11 45 e8	 movss	 DWORD PTR $T601458[ebp+4], xmm0
  00497	f3 0f 10 05 00
	00 00 00	 movss	 xmm0, DWORD PTR __real@bf800000
  0049f	50		 push	 eax
  004a0	a5		 movsd
  004a1	f3 0f 11 45 ec	 movss	 DWORD PTR $T601458[ebp+8], xmm0
  004a6	ff 15 00 00 00
	00		 call	 DWORD PTR __imp_??D@YA?AUD3DXVECTOR3@@ABUD3DXQUATERNION@@ABU0@@Z
  004ac	8b f0		 mov	 esi, eax
  004ae	8d 7d d8	 lea	 edi, DWORD PTR _vMoveDir$601454[ebp]
  004b1	a5		 movsd

; 357  : 			vMoveDir = qtAngle * vMoveDir;

  004b2	8d 45 d8	 lea	 eax, DWORD PTR _vMoveDir$601454[ebp]
  004b5	50		 push	 eax
  004b6	8d 45 94	 lea	 eax, DWORD PTR _qtAngle$601455[ebp]
  004b9	a5		 movsd
  004ba	50		 push	 eax
  004bb	8d 45 cc	 lea	 eax, DWORD PTR $T601460[ebp]
  004be	50		 push	 eax
  004bf	a5		 movsd
  004c0	ff 15 00 00 00
	00		 call	 DWORD PTR __imp_??D@YA?AUD3DXVECTOR3@@ABUD3DXQUATERNION@@ABU0@@Z
  004c6	83 c4 18	 add	 esp, 24			; 00000018H

; 358  : 		}
; 359  : 		else

  004c9	e9 2a 01 00 00	 jmp	 $LN350@ApplyAttri
$LN37@ApplyAttri:

; 360  : 		{
; 361  : 			if( m_vSkillDir.y != 0 )

  004ce	f3 0f 10 8b e8
	10 00 00	 movss	 xmm1, DWORD PTR [ebx+4328]
  004d6	0f 2e c8	 ucomiss xmm1, xmm0
  004d9	9f		 lahf
  004da	f6 c4 44	 test	 ah, 68			; 00000044H
  004dd	0f 8b fd 00 00
	00		 jnp	 $LN35@ApplyAttri

; 362  : 			{
; 363  : 				D3DXVECTOR3 vYAxis( 0.0f, 1.0f, 0.0f );
; 364  : 				D3DXVECTOR3 vRotAxis1, vRotAxis2;
; 365  : 
; 366  : 				// vRotAxis1은 스킬Dir과 Y축의 법선벡터
; 367  : 				D3DXVec3Cross( &vRotAxis1, &vYAxis, &m_vSkillDir );

  004e3	f3 0f 10 9b ec
	10 00 00	 movss	 xmm3, DWORD PTR [ebx+4332]
  004eb	0f 5a e3	 cvtps2pd xmm4, xmm3
  004ee	0f 5a db	 cvtps2pd xmm3, xmm3
  004f1	0f 28 c1	 movaps	 xmm0, xmm1
  004f4	0f 57 c9	 xorps	 xmm1, xmm1
  004f7	0f 5a c0	 cvtps2pd xmm0, xmm0
  004fa	f2 0f 59 c1	 mulsd	 xmm0, xmm1
  004fe	f2 0f 59 d9	 mulsd	 xmm3, xmm1
  00502	f2 0f 5c e0	 subsd	 xmm4, xmm0
  00506	0f 5a ea	 cvtps2pd xmm5, xmm2
  00509	f2 0f 59 e9	 mulsd	 xmm5, xmm1
  0050d	f2 0f 5c eb	 subsd	 xmm5, xmm3
  00511	0f 57 c9	 xorps	 xmm1, xmm1
  00514	66 0f 5a cd	 cvtpd2ps xmm1, xmm5

; 368  : 
; 369  : 				// vRotAxis2는 스킬Dir과 vRotAxis1의 법선벡터
; 370  : 				D3DXVec3Cross( &vRotAxis2, &vRotAxis1, &m_vSkillDir );

  00518	f3 0f 10 ab e8
	10 00 00	 movss	 xmm5, DWORD PTR [ebx+4328]
  00520	0f 5a da	 cvtps2pd xmm3, xmm2
  00523	f2 0f 5c c3	 subsd	 xmm0, xmm3
  00527	f3 0f 10 9b ec
	10 00 00	 movss	 xmm3, DWORD PTR [ebx+4332]
  0052f	66 0f 5a c0	 cvtpd2ps xmm0, xmm0
  00533	0f 5a fb	 cvtps2pd xmm7, xmm3
  00536	0f 5a ed	 cvtps2pd xmm5, xmm5
  00539	0f 5a f1	 cvtps2pd xmm6, xmm1
  0053c	f2 0f 59 f7	 mulsd	 xmm6, xmm7
  00540	0f 57 ff	 xorps	 xmm7, xmm7
  00543	f3 0f 5a f8	 cvtss2sd xmm7, xmm0
  00547	f2 0f 59 fd	 mulsd	 xmm7, xmm5
  0054b	f3 0f 5a c0	 cvtss2sd xmm0, xmm0
  0054f	f2 0f 5c f7	 subsd	 xmm6, xmm7
  00553	66 0f 5a ee	 cvtpd2ps xmm5, xmm6
  00557	f3 0f 11 6d e4	 movss	 DWORD PTR _v$606599[ebp], xmm5
  0055c	0f 5a db	 cvtps2pd xmm3, xmm3
  0055f	66 0f 5a e4	 cvtpd2ps xmm4, xmm4
  00563	0f 5a c9	 cvtps2pd xmm1, xmm1
  00566	8d 75 e4	 lea	 esi, DWORD PTR _v$606599[ebp]
  00569	0f 5a ea	 cvtps2pd xmm5, xmm2
  0056c	f2 0f 59 e8	 mulsd	 xmm5, xmm0
  00570	0f 57 c0	 xorps	 xmm0, xmm0
  00573	f3 0f 5a c4	 cvtss2sd xmm0, xmm4
  00577	f2 0f 59 c3	 mulsd	 xmm0, xmm3
  0057b	f2 0f 5c e8	 subsd	 xmm5, xmm0
  0057f	0f 57 c0	 xorps	 xmm0, xmm0
  00582	66 0f 5a c5	 cvtpd2ps xmm0, xmm5
  00586	f3 0f 11 45 e8	 movss	 DWORD PTR _v$606599[ebp+4], xmm0
  0058b	f3 0f 10 83 e8
	10 00 00	 movss	 xmm0, DWORD PTR [ebx+4328]
  00593	0f 5a c0	 cvtps2pd xmm0, xmm0
  00596	0f 57 db	 xorps	 xmm3, xmm3
  00599	f3 0f 5a dc	 cvtss2sd xmm3, xmm4
  0059d	f2 0f 59 d8	 mulsd	 xmm3, xmm0
  005a1	8d 7d f0	 lea	 edi, DWORD PTR _vRotAxis2$601465[ebp]

; 371  : 
; 372  : 				D3DXVec3Normalize( &vRotAxis2, &vRotAxis2 );

  005a4	8d 45 f0	 lea	 eax, DWORD PTR _vRotAxis2$601465[ebp]
  005a7	0f 5a c2	 cvtps2pd xmm0, xmm2
  005aa	f2 0f 59 c1	 mulsd	 xmm0, xmm1
  005ae	f2 0f 5c d8	 subsd	 xmm3, xmm0
  005b2	0f 57 c0	 xorps	 xmm0, xmm0
  005b5	66 0f 5a c3	 cvtpd2ps xmm0, xmm3
  005b9	f3 0f 11 45 ec	 movss	 DWORD PTR _v$606599[ebp+8], xmm0
  005be	a5		 movsd
  005bf	a5		 movsd
  005c0	50		 push	 eax
  005c1	50		 push	 eax
  005c2	a5		 movsd
  005c3	e8 00 00 00 00	 call	 _D3DXVec3Normalize@8

; 373  : 				D3DXQuaternionRotationAxis( &qtAngle, &vRotAxis2, DEGtoRAD(fCurAngle) );

  005c8	f3 0f 10 45 c8	 movss	 xmm0, DWORD PTR tv3269[ebp]
  005cd	51		 push	 ecx
  005ce	f3 0f 11 04 24	 movss	 DWORD PTR [esp], xmm0
  005d3	8d 45 f0	 lea	 eax, DWORD PTR _vRotAxis2$601465[ebp]
  005d6	50		 push	 eax
  005d7	8d 45 94	 lea	 eax, DWORD PTR _qtAngle$601455[ebp]
  005da	50		 push	 eax
  005db	e8 00 00 00 00	 call	 _D3DXQuaternionRotationAxis@12
$LN35@ApplyAttri:

; 374  : 			}
; 375  : 
; 376  : 			vMoveDir = qtAngle * m_vSkillDir;

  005e0	8d 83 e4 10 00
	00		 lea	 eax, DWORD PTR [ebx+4324]
  005e6	50		 push	 eax
  005e7	8d 45 94	 lea	 eax, DWORD PTR _qtAngle$601455[ebp]
  005ea	50		 push	 eax
  005eb	8d 45 cc	 lea	 eax, DWORD PTR $T601466[ebp]
  005ee	50		 push	 eax
  005ef	ff 15 00 00 00
	00		 call	 DWORD PTR __imp_??D@YA?AUD3DXVECTOR3@@ABUD3DXQUATERNION@@ABU0@@Z
  005f5	83 c4 0c	 add	 esp, 12			; 0000000cH
$LN350@ApplyAttri:
  005f8	8d 7d d8	 lea	 edi, DWORD PTR _vMoveDir$601454[ebp]
  005fb	8b f0		 mov	 esi, eax
  005fd	a5		 movsd
  005fe	a5		 movsd
  005ff	a5		 movsd

; 377  : 		}
; 378  : 
; 379  : 		pWeapon->SetMoveDir( vMoveDir );

  00600	8b 75 c4	 mov	 esi, DWORD PTR _pWeapon$GSCopy$[ebp]
  00603	8d 4d d8	 lea	 ecx, DWORD PTR _vMoveDir$601454[ebp]

; 380  : 
; 381  : 		if( fSpeed > 0.0f )
; 382  : 			pWeapon->SetMoveSpeed( fSpeed );
; 383  : 
; 384  : 		m_iWeaponWay++;

  00606	e9 5e 05 00 00	 jmp	 $LN357@ApplyAttri
$LN41@ApplyAttri:

; 385  : 	}
; 386  : 	else if( pBow )

  0060b	8b 75 88	 mov	 esi, DWORD PTR _pBow$[ebp]
  0060e	3b f1		 cmp	 esi, ecx
  00610	0f 84 6a 02 00
	00		 je	 $LN32@ApplyAttri

; 387  : 	{
; 388  : 		if( pBow->IsChargeBulletType() )

  00616	8b ce		 mov	 ecx, esi
  00618	e8 00 00 00 00	 call	 ?IsChargeBulletType@ioBowItem@@QAE_NXZ ; ioBowItem::IsChargeBulletType
  0061d	84 c0		 test	 al, al
  0061f	74 07		 je	 SHORT $LN31@ApplyAttri

; 389  : 			pBow->InitCoolTime();

  00621	8b ce		 mov	 ecx, esi
  00623	e8 00 00 00 00	 call	 ?InitCoolTime@ioBowItem@@QAEXXZ ; ioBowItem::InitCoolTime
$LN31@ApplyAttri:

; 390  : 
; 391  : 		D3DXVECTOR3 vZero( 0.0f, 0.0f, 0.0f );
; 392  : 
; 393  : 		if( pBow->GetAimedSkillUse() && pBow->GetAimedDirSet() )

  00628	80 be 8c 1c 00
	00 00		 cmp	 BYTE PTR [esi+7308], 0
  0062f	74 56		 je	 SHORT $LN29@ApplyAttri
  00631	80 be 8d 1c 00
	00 00		 cmp	 BYTE PTR [esi+7309], 0
  00638	74 4d		 je	 SHORT $LN29@ApplyAttri

; 394  : 		{
; 395  : 			if( m_vSkillDir == vZero )

  0063a	0f 57 c0	 xorps	 xmm0, xmm0
  0063d	8d bb e4 10 00
	00		 lea	 edi, DWORD PTR [ebx+4324]
  00643	f3 0f 10 0f	 movss	 xmm1, DWORD PTR [edi]
  00647	0f 2e c8	 ucomiss xmm1, xmm0
  0064a	9f		 lahf
  0064b	f6 c4 44	 test	 ah, 68			; 00000044H
  0064e	7a 37		 jp	 SHORT $LN29@ApplyAttri
  00650	f3 0f 10 4f 04	 movss	 xmm1, DWORD PTR [edi+4]
  00655	0f 2e c8	 ucomiss xmm1, xmm0
  00658	9f		 lahf
  00659	f6 c4 44	 test	 ah, 68			; 00000044H
  0065c	7a 29		 jp	 SHORT $LN29@ApplyAttri
  0065e	f3 0f 10 4f 08	 movss	 xmm1, DWORD PTR [edi+8]
  00663	0f 2e c8	 ucomiss xmm1, xmm0
  00666	9f		 lahf
  00667	f6 c4 44	 test	 ah, 68			; 00000044H
  0066a	7a 1b		 jp	 SHORT $LN29@ApplyAttri

; 396  : 			{
; 397  : 				m_vSkillDir = pBow->ReCalcMoveDir( pWeapon->GetOwner(), pWeapon );

  0066c	8b 4d c4	 mov	 ecx, DWORD PTR _pWeapon$GSCopy$[ebp]
  0066f	51		 push	 ecx
  00670	e8 00 00 00 00	 call	 ?GetOwner@ioWeapon@@QBEPAVioBaseChar@@XZ ; ioWeapon::GetOwner
  00675	8b 4d 88	 mov	 ecx, DWORD PTR _pBow$[ebp]
  00678	50		 push	 eax
  00679	8d 45 cc	 lea	 eax, DWORD PTR $T601474[ebp]
  0067c	50		 push	 eax
  0067d	e8 00 00 00 00	 call	 ?ReCalcMoveDir@ioBowItem@@QAE?AUD3DXVECTOR3@@PAVioBaseChar@@PAVioWeapon@@@Z ; ioBowItem::ReCalcMoveDir
  00682	8b f0		 mov	 esi, eax
  00684	a5		 movsd
  00685	a5		 movsd
  00686	a5		 movsd
$LN29@ApplyAttri:

; 398  : 			}
; 399  : 		}
; 400  : 
; 401  : 		if( m_iMaxWeaponWay <= m_iWeaponWay )

  00687	8b 83 f4 10 00
	00		 mov	 eax, DWORD PTR [ebx+4340]
  0068d	39 83 f0 10 00
	00		 cmp	 DWORD PTR [ebx+4336], eax
  00693	0f 8e 0c 0b 00
	00		 jle	 $LN1@ApplyAttri

; 402  : 			return;
; 403  : 
; 404  : 		float fCurAngle = 0.0f;
; 405  : 		fCurAngle = m_BulletInfoList[m_iWeaponWay].m_fYawAngle;

  00699	8b 8b f8 10 00
	00		 mov	 ecx, DWORD PTR [ebx+4344]
  0069f	6b c0 14	 imul	 eax, 20			; 00000014H
  006a2	f3 0f 10 04 08	 movss	 xmm0, DWORD PTR [eax+ecx]

; 406  : 
; 407  : 		fCurAngle = ioMath::ArrangeHead( fCurAngle );

  006a7	51		 push	 ecx
  006a8	f3 0f 11 04 24	 movss	 DWORD PTR [esp], xmm0
  006ad	ff 15 00 00 00
	00		 call	 DWORD PTR __imp_?ArrangeHead@ioMath@@SAMM@Z
  006b3	d9 5d c8	 fstp	 DWORD PTR _fCurAngle$601476[ebp]

; 408  : 
; 409  : 		D3DXVECTOR3 vMoveDir;
; 410  : 		D3DXQUATERNION qtAngle;
; 411  : 		D3DXQuaternionRotationYawPitchRoll( &qtAngle, DEGtoRAD(fCurAngle), 0.0f, 0.0f );

  006b6	f3 0f 10 45 c8	 movss	 xmm0, DWORD PTR _fCurAngle$601476[ebp]
  006bb	0f 5a c0	 cvtps2pd xmm0, xmm0
  006be	f2 0f 59 05 00
	00 00 00	 mulsd	 xmm0, QWORD PTR __real@3f91df46a2526c7a
  006c6	66 0f 5a c8	 cvtpd2ps xmm1, xmm0
  006ca	0f 57 c0	 xorps	 xmm0, xmm0
  006cd	f3 0f 11 04 24	 movss	 DWORD PTR [esp], xmm0
  006d2	51		 push	 ecx
  006d3	51		 push	 ecx
  006d4	f3 0f 11 44 24
	04		 movss	 DWORD PTR [esp+4], xmm0
  006da	8d 45 ac	 lea	 eax, DWORD PTR _qtAngle$601478[ebp]
  006dd	f3 0f 11 0c 24	 movss	 DWORD PTR [esp], xmm1
  006e2	50		 push	 eax
  006e3	f3 0f 11 4d c8	 movss	 DWORD PTR tv3377[ebp], xmm1
  006e8	e8 00 00 00 00	 call	 _D3DXQuaternionRotationYawPitchRoll@16

; 412  : 
; 413  : 		if( m_vSkillDir == vZero )

  006ed	0f 57 c0	 xorps	 xmm0, xmm0
  006f0	8d 8b e4 10 00
	00		 lea	 ecx, DWORD PTR [ebx+4324]
  006f6	f3 0f 10 09	 movss	 xmm1, DWORD PTR [ecx]
  006fa	0f 2e c8	 ucomiss xmm1, xmm0
  006fd	9f		 lahf
  006fe	f6 c4 44	 test	 ah, 68			; 00000044H
  00701	7a 41		 jp	 SHORT $LN27@ApplyAttri
  00703	f3 0f 10 49 04	 movss	 xmm1, DWORD PTR [ecx+4]
  00708	0f 2e c8	 ucomiss xmm1, xmm0
  0070b	9f		 lahf
  0070c	f6 c4 44	 test	 ah, 68			; 00000044H
  0070f	7a 33		 jp	 SHORT $LN27@ApplyAttri
  00711	f3 0f 10 49 08	 movss	 xmm1, DWORD PTR [ecx+8]
  00716	0f 2e c8	 ucomiss xmm1, xmm0
  00719	9f		 lahf
  0071a	f6 c4 44	 test	 ah, 68			; 00000044H
  0071d	7a 25		 jp	 SHORT $LN27@ApplyAttri

; 414  : 		{
; 415  : 			D3DXQUATERNION qtRotate = pWeapon->GetOwner()->GetTargetRot();

  0071f	8b 4d c4	 mov	 ecx, DWORD PTR _pWeapon$GSCopy$[ebp]
  00722	e8 00 00 00 00	 call	 ?GetOwner@ioWeapon@@QBEPAVioBaseChar@@XZ ; ioWeapon::GetOwner
  00727	8d b0 a4 06 00
	00		 lea	 esi, DWORD PTR [eax+1700]
  0072d	8d 7d 94	 lea	 edi, DWORD PTR _qtRotate$601480[ebp]
  00730	a5		 movsd
  00731	a5		 movsd
  00732	a5		 movsd
  00733	a5		 movsd

; 416  : 			vMoveDir = qtRotate * D3DXVECTOR3( 0.0f, 0.0f, -FLOAT1 );

  00734	b8 01 00 00 00	 mov	 eax, 1
  00739	89 45 bc	 mov	 DWORD PTR tv4030[ebp], eax
  0073c	db 45 bc	 fild	 DWORD PTR tv4030[ebp]

; 417  : 			vMoveDir = qtAngle * vMoveDir;
; 418  : 		}
; 419  : 		else

  0073f	e9 68 02 00 00	 jmp	 $LN359@ApplyAttri
$LN27@ApplyAttri:

; 420  : 		{
; 421  : 			if( m_vSkillDir.y != 0.0f )

  00744	f3 0f 10 8b e8
	10 00 00	 movss	 xmm1, DWORD PTR [ebx+4328]
  0074c	0f 2e c8	 ucomiss xmm1, xmm0
  0074f	9f		 lahf
  00750	f6 c4 44	 test	 ah, 68			; 00000044H
  00753	0f 8b ea 03 00
	00		 jnp	 $LN16@ApplyAttri

; 422  : 			{
; 423  : 				D3DXVECTOR3 vYAxis( 0.0f, FLOAT1, 0.0f );

  00759	b8 01 00 00 00	 mov	 eax, 1
  0075e	89 45 bc	 mov	 DWORD PTR tv3999[ebp], eax
  00761	db 45 bc	 fild	 DWORD PTR tv3999[ebp]
  00764	85 c0		 test	 eax, eax
  00766	79 06		 jns	 SHORT $LN339@ApplyAttri
  00768	d8 05 00 00 00
	00		 fadd	 DWORD PTR __real@4f800000
$LN339@ApplyAttri:

; 424  : 				D3DXVECTOR3 vRotAxis1, vRotAxis2;
; 425  : 
; 426  : 				// vRotAxis1은 스킬Dir과 Y축의 법선벡터
; 427  : 				D3DXVec3Cross( &vRotAxis1, &vYAxis, &m_vSkillDir );

  0076e	f3 0f 10 9b ec
	10 00 00	 movss	 xmm3, DWORD PTR [ebx+4332]
  00776	d9 5d dc	 fstp	 DWORD PTR _vYAxis$601488[ebp+4]
  00779	f3 0f 10 83 e8
	10 00 00	 movss	 xmm0, DWORD PTR [ebx+4328]
  00781	0f 57 c9	 xorps	 xmm1, xmm1
  00784	f3 0f 10 55 dc	 movss	 xmm2, DWORD PTR _vYAxis$601488[ebp+4]
  00789	0f 5a c0	 cvtps2pd xmm0, xmm0
  0078c	f2 0f 59 c1	 mulsd	 xmm0, xmm1
  00790	0f 5a e3	 cvtps2pd xmm4, xmm3
  00793	0f 5a db	 cvtps2pd xmm3, xmm3
  00796	f2 0f 59 d9	 mulsd	 xmm3, xmm1
  0079a	0f 5a d2	 cvtps2pd xmm2, xmm2
  0079d	f2 0f 59 d4	 mulsd	 xmm2, xmm4
  007a1	f2 0f 5c d0	 subsd	 xmm2, xmm0
  007a5	0f 57 e4	 xorps	 xmm4, xmm4
  007a8	f2 0f 5a e2	 cvtsd2ss xmm4, xmm2
  007ac	f3 0f 10 93 e4
	10 00 00	 movss	 xmm2, DWORD PTR [ebx+4324]
  007b4	0f 5a ea	 cvtps2pd xmm5, xmm2
  007b7	f2 0f 59 e9	 mulsd	 xmm5, xmm1
  007bb	f2 0f 5c eb	 subsd	 xmm5, xmm3
  007bf	0f 5a da	 cvtps2pd xmm3, xmm2
  007c2	0f 57 c9	 xorps	 xmm1, xmm1
  007c5	66 0f 5a cd	 cvtpd2ps xmm1, xmm5
  007c9	f3 0f 10 6d dc	 movss	 xmm5, DWORD PTR _vYAxis$601488[ebp+4]
  007ce	0f 5a ed	 cvtps2pd xmm5, xmm5
  007d1	f2 0f 59 dd	 mulsd	 xmm3, xmm5

; 428  : 
; 429  : 				// vRotAxis2는 스킬Dir과 vRotAxis1의 법선벡터
; 430  : 				D3DXVec3Cross( &vRotAxis2, &vRotAxis1, &m_vSkillDir );

  007d5	f3 0f 10 ab e8
	10 00 00	 movss	 xmm5, DWORD PTR [ebx+4328]
  007dd	f2 0f 5c c3	 subsd	 xmm0, xmm3
  007e1	f3 0f 10 9b ec
	10 00 00	 movss	 xmm3, DWORD PTR [ebx+4332]
  007e9	66 0f 5a c0	 cvtpd2ps xmm0, xmm0
  007ed	0f 5a fb	 cvtps2pd xmm7, xmm3
  007f0	0f 5a ed	 cvtps2pd xmm5, xmm5
  007f3	0f 5a f1	 cvtps2pd xmm6, xmm1
  007f6	f2 0f 59 f7	 mulsd	 xmm6, xmm7
  007fa	0f 57 ff	 xorps	 xmm7, xmm7
  007fd	f3 0f 5a f8	 cvtss2sd xmm7, xmm0
  00801	f3 0f 5a c0	 cvtss2sd xmm0, xmm0
  00805	f2 0f 59 fd	 mulsd	 xmm7, xmm5
  00809	f2 0f 5c f7	 subsd	 xmm6, xmm7
  0080d	66 0f 5a ee	 cvtpd2ps xmm5, xmm6
  00811	f3 0f 11 6d d8	 movss	 DWORD PTR _v$606689[ebp], xmm5
  00816	0f 5a db	 cvtps2pd xmm3, xmm3
  00819	0f 5a c9	 cvtps2pd xmm1, xmm1
  0081c	8d 75 d8	 lea	 esi, DWORD PTR _v$606689[ebp]
  0081f	8d 7d f0	 lea	 edi, DWORD PTR _vRotAxis2$601490[ebp]
  00822	0f 5a ea	 cvtps2pd xmm5, xmm2
  00825	f2 0f 59 e8	 mulsd	 xmm5, xmm0
  00829	0f 5a c4	 cvtps2pd xmm0, xmm4
  0082c	f2 0f 59 c3	 mulsd	 xmm0, xmm3
  00830	f2 0f 5c e8	 subsd	 xmm5, xmm0
  00834	0f 57 c0	 xorps	 xmm0, xmm0
  00837	66 0f 5a c5	 cvtpd2ps xmm0, xmm5
  0083b	f3 0f 11 45 dc	 movss	 DWORD PTR _v$606689[ebp+4], xmm0
  00840	f3 0f 10 83 e8
	10 00 00	 movss	 xmm0, DWORD PTR [ebx+4328]
  00848	0f 5a c0	 cvtps2pd xmm0, xmm0
  0084b	0f 5a dc	 cvtps2pd xmm3, xmm4
  0084e	f2 0f 59 d8	 mulsd	 xmm3, xmm0

; 431  : 
; 432  : 				D3DXVec3Normalize( &vRotAxis2, &vRotAxis2 );

  00852	8d 45 f0	 lea	 eax, DWORD PTR _vRotAxis2$601490[ebp]
  00855	50		 push	 eax
  00856	50		 push	 eax
  00857	0f 5a c2	 cvtps2pd xmm0, xmm2
  0085a	f2 0f 59 c1	 mulsd	 xmm0, xmm1
  0085e	f2 0f 5c d8	 subsd	 xmm3, xmm0
  00862	0f 57 c0	 xorps	 xmm0, xmm0
  00865	66 0f 5a c3	 cvtpd2ps xmm0, xmm3
  00869	f3 0f 11 45 e0	 movss	 DWORD PTR _v$606689[ebp+8], xmm0
  0086e	a5		 movsd
  0086f	a5		 movsd
  00870	a5		 movsd
  00871	e8 00 00 00 00	 call	 _D3DXVec3Normalize@8

; 433  : 				D3DXQuaternionRotationAxis( &qtAngle, &vRotAxis2, DEGtoRAD(fCurAngle) );

  00876	f3 0f 10 45 c8	 movss	 xmm0, DWORD PTR tv3377[ebp]

; 434  : 			}
; 435  : 
; 436  : 			vMoveDir = qtAngle * m_vSkillDir;
; 437  : 		}
; 438  : 
; 439  : 		pWeapon->SetMoveDir( vMoveDir );
; 440  : 
; 441  : 		if( fSpeed > 0.0f )
; 442  : 			pWeapon->SetMoveSpeed( fSpeed );
; 443  : 
; 444  : 		m_iWeaponWay++;

  0087b	e9 b0 02 00 00	 jmp	 $LN356@ApplyAttri
$LN32@ApplyAttri:

; 445  : 	}
; 446  : 	else if( pLaser )

  00880	8b 75 c8	 mov	 esi, DWORD PTR _pLaser$[ebp]
  00883	3b f1		 cmp	 esi, ecx
  00885	0f 84 12 03 00
	00		 je	 $LN22@ApplyAttri

; 447  : 	{
; 448  : 		pLaser->InitCoolTime();

  0088b	8b ce		 mov	 ecx, esi
  0088d	e8 00 00 00 00	 call	 ?InitCoolTime@ioLaserItem@@QAEXXZ ; ioLaserItem::InitCoolTime

; 449  : 		D3DXVECTOR3 vZero( 0.0f, 0.0f, 0.0f );
; 450  : 
; 451  : 		if( pLaser->GetAimedSkillUse() && pLaser->GetAimedDirSet() )

  00892	80 be 4c 1c 00
	00 00		 cmp	 BYTE PTR [esi+7244], 0
  00899	74 55		 je	 SHORT $LN20@ApplyAttri
  0089b	80 be 4d 1c 00
	00 00		 cmp	 BYTE PTR [esi+7245], 0
  008a2	74 4c		 je	 SHORT $LN20@ApplyAttri

; 452  : 		{
; 453  : 			if( m_vSkillDir == vZero )

  008a4	0f 57 c0	 xorps	 xmm0, xmm0
  008a7	8d bb e4 10 00
	00		 lea	 edi, DWORD PTR [ebx+4324]
  008ad	f3 0f 10 0f	 movss	 xmm1, DWORD PTR [edi]
  008b1	0f 2e c8	 ucomiss xmm1, xmm0
  008b4	9f		 lahf
  008b5	f6 c4 44	 test	 ah, 68			; 00000044H
  008b8	7a 36		 jp	 SHORT $LN20@ApplyAttri
  008ba	f3 0f 10 4f 04	 movss	 xmm1, DWORD PTR [edi+4]
  008bf	0f 2e c8	 ucomiss xmm1, xmm0
  008c2	9f		 lahf
  008c3	f6 c4 44	 test	 ah, 68			; 00000044H
  008c6	7a 28		 jp	 SHORT $LN20@ApplyAttri
  008c8	f3 0f 10 4f 08	 movss	 xmm1, DWORD PTR [edi+8]
  008cd	0f 2e c8	 ucomiss xmm1, xmm0
  008d0	9f		 lahf
  008d1	f6 c4 44	 test	 ah, 68			; 00000044H
  008d4	7a 1a		 jp	 SHORT $LN20@ApplyAttri

; 454  : 			{
; 455  : 				m_vSkillDir = pLaser->ReCalcMoveDir( pWeapon->GetOwner(), pWeapon );

  008d6	8b 4d c4	 mov	 ecx, DWORD PTR _pWeapon$GSCopy$[ebp]
  008d9	51		 push	 ecx
  008da	e8 00 00 00 00	 call	 ?GetOwner@ioWeapon@@QBEPAVioBaseChar@@XZ ; ioWeapon::GetOwner
  008df	50		 push	 eax
  008e0	8d 45 cc	 lea	 eax, DWORD PTR $T601498[ebp]
  008e3	50		 push	 eax
  008e4	8b ce		 mov	 ecx, esi
  008e6	e8 00 00 00 00	 call	 ?ReCalcMoveDir@ioLaserItem@@QAE?AUD3DXVECTOR3@@PAVioBaseChar@@PAVioWeapon@@@Z ; ioLaserItem::ReCalcMoveDir
  008eb	8b f0		 mov	 esi, eax
  008ed	a5		 movsd
  008ee	a5		 movsd
  008ef	a5		 movsd
$LN20@ApplyAttri:

; 456  : 			}
; 457  : 		}
; 458  : 
; 459  : 		if( m_iMaxWeaponWay <= m_iWeaponWay )

  008f0	8b 83 f4 10 00
	00		 mov	 eax, DWORD PTR [ebx+4340]
  008f6	39 83 f0 10 00
	00		 cmp	 DWORD PTR [ebx+4336], eax
  008fc	0f 8e a3 08 00
	00		 jle	 $LN1@ApplyAttri

; 460  : 			return;
; 461  : 
; 462  : 		float fCurAngle = 0.0f;
; 463  : 		fCurAngle = m_BulletInfoList[m_iWeaponWay].m_fYawAngle;

  00902	8b 8b f8 10 00
	00		 mov	 ecx, DWORD PTR [ebx+4344]
  00908	6b c0 14	 imul	 eax, 20			; 00000014H
  0090b	f3 0f 10 04 08	 movss	 xmm0, DWORD PTR [eax+ecx]

; 464  : 			
; 465  : 		fCurAngle = ioMath::ArrangeHead( fCurAngle );

  00910	51		 push	 ecx
  00911	f3 0f 11 04 24	 movss	 DWORD PTR [esp], xmm0
  00916	ff 15 00 00 00
	00		 call	 DWORD PTR __imp_?ArrangeHead@ioMath@@SAMM@Z
  0091c	d9 5d c8	 fstp	 DWORD PTR _fCurAngle$601500[ebp]

; 466  : 
; 467  : 		D3DXVECTOR3 vMoveDir;
; 468  : 		D3DXQUATERNION qtAngle;
; 469  : 		D3DXQuaternionRotationYawPitchRoll( &qtAngle, DEGtoRAD(fCurAngle), 0.0f, 0.0f );

  0091f	f3 0f 10 45 c8	 movss	 xmm0, DWORD PTR _fCurAngle$601500[ebp]
  00924	0f 5a c0	 cvtps2pd xmm0, xmm0
  00927	f2 0f 59 05 00
	00 00 00	 mulsd	 xmm0, QWORD PTR __real@3f91df46a2526c7a
  0092f	66 0f 5a c8	 cvtpd2ps xmm1, xmm0
  00933	0f 57 c0	 xorps	 xmm0, xmm0
  00936	f3 0f 11 04 24	 movss	 DWORD PTR [esp], xmm0
  0093b	51		 push	 ecx
  0093c	51		 push	 ecx
  0093d	f3 0f 11 44 24
	04		 movss	 DWORD PTR [esp+4], xmm0
  00943	8d 45 ac	 lea	 eax, DWORD PTR _qtAngle$601502[ebp]
  00946	f3 0f 11 0c 24	 movss	 DWORD PTR [esp], xmm1
  0094b	50		 push	 eax
  0094c	f3 0f 11 4d c8	 movss	 DWORD PTR tv3489[ebp], xmm1
  00951	e8 00 00 00 00	 call	 _D3DXQuaternionRotationYawPitchRoll@16

; 470  : 
; 471  : 		if( m_vSkillDir == vZero )

  00956	0f 57 c0	 xorps	 xmm0, xmm0
  00959	8d 8b e4 10 00
	00		 lea	 ecx, DWORD PTR [ebx+4324]
  0095f	f3 0f 10 09	 movss	 xmm1, DWORD PTR [ecx]
  00963	0f 2e c8	 ucomiss xmm1, xmm0
  00966	9f		 lahf
  00967	f6 c4 44	 test	 ah, 68			; 00000044H
  0096a	0f 8a 8c 00 00
	00		 jp	 $LN18@ApplyAttri
  00970	f3 0f 10 49 04	 movss	 xmm1, DWORD PTR [ecx+4]
  00975	0f 2e c8	 ucomiss xmm1, xmm0
  00978	9f		 lahf
  00979	f6 c4 44	 test	 ah, 68			; 00000044H
  0097c	7a 7e		 jp	 SHORT $LN18@ApplyAttri
  0097e	f3 0f 10 49 08	 movss	 xmm1, DWORD PTR [ecx+8]
  00983	0f 2e c8	 ucomiss xmm1, xmm0
  00986	9f		 lahf
  00987	f6 c4 44	 test	 ah, 68			; 00000044H
  0098a	7a 70		 jp	 SHORT $LN18@ApplyAttri

; 472  : 		{
; 473  : 			D3DXQUATERNION qtRotate = pWeapon->GetOwner()->GetTargetRot();

  0098c	8b 4d c4	 mov	 ecx, DWORD PTR _pWeapon$GSCopy$[ebp]
  0098f	e8 00 00 00 00	 call	 ?GetOwner@ioWeapon@@QBEPAVioBaseChar@@XZ ; ioWeapon::GetOwner
  00994	8d b0 a4 06 00
	00		 lea	 esi, DWORD PTR [eax+1700]
  0099a	8d 7d 94	 lea	 edi, DWORD PTR _qtRotate$601504[ebp]
  0099d	a5		 movsd
  0099e	a5		 movsd
  0099f	a5		 movsd
  009a0	a5		 movsd

; 474  : 			vMoveDir = qtRotate * D3DXVECTOR3( 0.0f, 0.0f, -FLOAT1 );

  009a1	b8 01 00 00 00	 mov	 eax, 1
  009a6	89 45 bc	 mov	 DWORD PTR tv3883[ebp], eax
  009a9	db 45 bc	 fild	 DWORD PTR tv3883[ebp]
$LN359@ApplyAttri:
  009ac	0f 57 c0	 xorps	 xmm0, xmm0
  009af	f3 0f 11 45 f0	 movss	 DWORD PTR $T601506[ebp], xmm0
  009b4	f3 0f 11 45 f4	 movss	 DWORD PTR $T601506[ebp+4], xmm0
  009b9	85 c0		 test	 eax, eax
  009bb	79 06		 jns	 SHORT $LN340@ApplyAttri
  009bd	d8 05 00 00 00
	00		 fadd	 DWORD PTR __real@4f800000
$LN340@ApplyAttri:
  009c3	8d 45 f0	 lea	 eax, DWORD PTR $T601506[ebp]
  009c6	d9 e0		 fchs
  009c8	50		 push	 eax
  009c9	d9 5d f8	 fstp	 DWORD PTR $T601506[ebp+8]
  009cc	8d 45 94	 lea	 eax, DWORD PTR _qtRotate$601504[ebp]
  009cf	50		 push	 eax
  009d0	8d 45 d8	 lea	 eax, DWORD PTR $T601507[ebp]
  009d3	50		 push	 eax
  009d4	ff 15 00 00 00
	00		 call	 DWORD PTR __imp_??D@YA?AUD3DXVECTOR3@@ABUD3DXQUATERNION@@ABU0@@Z
  009da	8b f0		 mov	 esi, eax
  009dc	8d 7d e4	 lea	 edi, DWORD PTR _vMoveDir$601501[ebp]
  009df	a5		 movsd

; 475  : 			vMoveDir = qtAngle * vMoveDir;

  009e0	8d 45 e4	 lea	 eax, DWORD PTR _vMoveDir$601501[ebp]
  009e3	50		 push	 eax
  009e4	8d 45 ac	 lea	 eax, DWORD PTR _qtAngle$601502[ebp]
  009e7	a5		 movsd
  009e8	50		 push	 eax
  009e9	8d 45 cc	 lea	 eax, DWORD PTR $T601508[ebp]
  009ec	50		 push	 eax
  009ed	a5		 movsd
  009ee	ff 15 00 00 00
	00		 call	 DWORD PTR __imp_??D@YA?AUD3DXVECTOR3@@ABUD3DXQUATERNION@@ABU0@@Z
  009f4	83 c4 18	 add	 esp, 24			; 00000018H

; 476  : 		}
; 477  : 		else

  009f7	e9 5f 01 00 00	 jmp	 $LN352@ApplyAttri
$LN18@ApplyAttri:

; 478  : 		{
; 479  : 			if( m_vSkillDir.y != 0 )

  009fc	f3 0f 10 8b e8
	10 00 00	 movss	 xmm1, DWORD PTR [ebx+4328]
  00a04	0f 2e c8	 ucomiss xmm1, xmm0
  00a07	9f		 lahf
  00a08	f6 c4 44	 test	 ah, 68			; 00000044H
  00a0b	0f 8b 32 01 00
	00		 jnp	 $LN16@ApplyAttri

; 480  : 			{
; 481  : 				D3DXVECTOR3 vYAxis( 0.0f, FLOAT1, 0.0f );

  00a11	b8 01 00 00 00	 mov	 eax, 1
  00a16	89 45 bc	 mov	 DWORD PTR tv3852[ebp], eax
  00a19	db 45 bc	 fild	 DWORD PTR tv3852[ebp]
  00a1c	85 c0		 test	 eax, eax
  00a1e	79 06		 jns	 SHORT $LN341@ApplyAttri
  00a20	d8 05 00 00 00
	00		 fadd	 DWORD PTR __real@4f800000
$LN341@ApplyAttri:

; 482  : 				D3DXVECTOR3 vRotAxis1, vRotAxis2;
; 483  : 
; 484  : 				// vRotAxis1은 스킬Dir과 Y축의 법선벡터
; 485  : 				D3DXVec3Cross( &vRotAxis1, &vYAxis, &m_vSkillDir );

  00a26	f3 0f 10 9b ec
	10 00 00	 movss	 xmm3, DWORD PTR [ebx+4332]
  00a2e	d9 5d dc	 fstp	 DWORD PTR _vYAxis$601512[ebp+4]
  00a31	f3 0f 10 65 dc	 movss	 xmm4, DWORD PTR _vYAxis$601512[ebp+4]
  00a36	f3 0f 10 83 e8
	10 00 00	 movss	 xmm0, DWORD PTR [ebx+4328]
  00a3e	0f 57 c9	 xorps	 xmm1, xmm1
  00a41	0f 5a c0	 cvtps2pd xmm0, xmm0
  00a44	f2 0f 59 c1	 mulsd	 xmm0, xmm1
  00a48	0f 5a d3	 cvtps2pd xmm2, xmm3
  00a4b	0f 5a e4	 cvtps2pd xmm4, xmm4
  00a4e	0f 5a db	 cvtps2pd xmm3, xmm3
  00a51	f2 0f 59 d9	 mulsd	 xmm3, xmm1
  00a55	f2 0f 59 d4	 mulsd	 xmm2, xmm4
  00a59	f2 0f 5c d0	 subsd	 xmm2, xmm0

; 486  : 
; 487  : 				// vRotAxis2는 스킬Dir과 vRotAxis1의 법선벡터
; 488  : 				D3DXVec3Cross( &vRotAxis2, &vRotAxis1, &m_vSkillDir );

  00a5d	8d 75 d8	 lea	 esi, DWORD PTR _v$606779[ebp]
  00a60	66 0f 5a e2	 cvtpd2ps xmm4, xmm2
  00a64	f3 0f 10 93 e4
	10 00 00	 movss	 xmm2, DWORD PTR [ebx+4324]
  00a6c	0f 5a ea	 cvtps2pd xmm5, xmm2
  00a6f	f2 0f 59 e9	 mulsd	 xmm5, xmm1
  00a73	f2 0f 5c eb	 subsd	 xmm5, xmm3
  00a77	0f 5a da	 cvtps2pd xmm3, xmm2
  00a7a	0f 57 c9	 xorps	 xmm1, xmm1
  00a7d	66 0f 5a cd	 cvtpd2ps xmm1, xmm5
  00a81	f3 0f 10 6d dc	 movss	 xmm5, DWORD PTR _vYAxis$601512[ebp+4]
  00a86	0f 5a ed	 cvtps2pd xmm5, xmm5
  00a89	f2 0f 59 dd	 mulsd	 xmm3, xmm5
  00a8d	f3 0f 10 ab e8
	10 00 00	 movss	 xmm5, DWORD PTR [ebx+4328]
  00a95	f2 0f 5c c3	 subsd	 xmm0, xmm3
  00a99	f3 0f 10 9b ec
	10 00 00	 movss	 xmm3, DWORD PTR [ebx+4332]
  00aa1	66 0f 5a c0	 cvtpd2ps xmm0, xmm0
  00aa5	0f 5a fb	 cvtps2pd xmm7, xmm3
  00aa8	0f 5a ed	 cvtps2pd xmm5, xmm5
  00aab	0f 5a f1	 cvtps2pd xmm6, xmm1
  00aae	f2 0f 59 f7	 mulsd	 xmm6, xmm7
  00ab2	0f 57 ff	 xorps	 xmm7, xmm7
  00ab5	f3 0f 5a f8	 cvtss2sd xmm7, xmm0
  00ab9	f3 0f 5a c0	 cvtss2sd xmm0, xmm0
  00abd	f2 0f 59 fd	 mulsd	 xmm7, xmm5
  00ac1	f2 0f 5c f7	 subsd	 xmm6, xmm7
  00ac5	66 0f 5a ee	 cvtpd2ps xmm5, xmm6
  00ac9	f3 0f 11 6d d8	 movss	 DWORD PTR _v$606779[ebp], xmm5
  00ace	0f 5a db	 cvtps2pd xmm3, xmm3
  00ad1	0f 5a c9	 cvtps2pd xmm1, xmm1
  00ad4	8d 7d f0	 lea	 edi, DWORD PTR _vRotAxis2$601514[ebp]

; 489  : 
; 490  : 				D3DXVec3Normalize( &vRotAxis2, &vRotAxis2 );

  00ad7	8d 45 f0	 lea	 eax, DWORD PTR _vRotAxis2$601514[ebp]
  00ada	0f 5a ea	 cvtps2pd xmm5, xmm2
  00add	f2 0f 59 e8	 mulsd	 xmm5, xmm0
  00ae1	0f 5a c4	 cvtps2pd xmm0, xmm4
  00ae4	f2 0f 59 c3	 mulsd	 xmm0, xmm3
  00ae8	f2 0f 5c e8	 subsd	 xmm5, xmm0
  00aec	0f 57 c0	 xorps	 xmm0, xmm0
  00aef	66 0f 5a c5	 cvtpd2ps xmm0, xmm5
  00af3	f3 0f 11 45 dc	 movss	 DWORD PTR _v$606779[ebp+4], xmm0
  00af8	f3 0f 10 83 e8
	10 00 00	 movss	 xmm0, DWORD PTR [ebx+4328]
  00b00	0f 5a c0	 cvtps2pd xmm0, xmm0
  00b03	0f 5a dc	 cvtps2pd xmm3, xmm4
  00b06	f2 0f 59 d8	 mulsd	 xmm3, xmm0
  00b0a	50		 push	 eax
  00b0b	50		 push	 eax
  00b0c	0f 5a c2	 cvtps2pd xmm0, xmm2
  00b0f	f2 0f 59 c1	 mulsd	 xmm0, xmm1
  00b13	f2 0f 5c d8	 subsd	 xmm3, xmm0
  00b17	0f 57 c0	 xorps	 xmm0, xmm0
  00b1a	66 0f 5a c3	 cvtpd2ps xmm0, xmm3
  00b1e	f3 0f 11 45 e0	 movss	 DWORD PTR _v$606779[ebp+8], xmm0
  00b23	a5		 movsd
  00b24	a5		 movsd
  00b25	a5		 movsd
  00b26	e8 00 00 00 00	 call	 _D3DXVec3Normalize@8

; 491  : 				D3DXQuaternionRotationAxis( &qtAngle, &vRotAxis2, DEGtoRAD(fCurAngle) );

  00b2b	f3 0f 10 45 c8	 movss	 xmm0, DWORD PTR tv3489[ebp]
$LN356@ApplyAttri:
  00b30	51		 push	 ecx
  00b31	f3 0f 11 04 24	 movss	 DWORD PTR [esp], xmm0
  00b36	8d 45 f0	 lea	 eax, DWORD PTR _vRotAxis2$601514[ebp]
  00b39	50		 push	 eax
  00b3a	8d 45 ac	 lea	 eax, DWORD PTR _qtAngle$601502[ebp]
  00b3d	50		 push	 eax
  00b3e	e8 00 00 00 00	 call	 _D3DXQuaternionRotationAxis@12
$LN16@ApplyAttri:

; 492  : 			}
; 493  : 
; 494  : 			vMoveDir = qtAngle * m_vSkillDir;

  00b43	8d 83 e4 10 00
	00		 lea	 eax, DWORD PTR [ebx+4324]
  00b49	50		 push	 eax
  00b4a	8d 45 ac	 lea	 eax, DWORD PTR _qtAngle$601502[ebp]
  00b4d	50		 push	 eax
  00b4e	8d 45 cc	 lea	 eax, DWORD PTR $T601515[ebp]
  00b51	50		 push	 eax
  00b52	ff 15 00 00 00
	00		 call	 DWORD PTR __imp_??D@YA?AUD3DXVECTOR3@@ABUD3DXQUATERNION@@ABU0@@Z
  00b58	83 c4 0c	 add	 esp, 12			; 0000000cH
$LN352@ApplyAttri:
  00b5b	8d 7d e4	 lea	 edi, DWORD PTR _vMoveDir$601501[ebp]
  00b5e	8b f0		 mov	 esi, eax
  00b60	a5		 movsd
  00b61	a5		 movsd
  00b62	a5		 movsd

; 495  : 		}
; 496  : 
; 497  : 		pWeapon->SetMoveDir( vMoveDir );

  00b63	8b 75 c4	 mov	 esi, DWORD PTR _pWeapon$GSCopy$[ebp]
$LN355@ApplyAttri:
  00b66	8d 4d e4	 lea	 ecx, DWORD PTR _vMoveDir$601501[ebp]
$LN357@ApplyAttri:
  00b69	8b 06		 mov	 eax, DWORD PTR [esi]
  00b6b	51		 push	 ecx
  00b6c	8b ce		 mov	 ecx, esi
  00b6e	ff 90 b0 00 00
	00		 call	 DWORD PTR [eax+176]

; 498  : 
; 499  : 		if( fSpeed > 0.0f )

  00b74	f3 0f 10 45 a8	 movss	 xmm0, DWORD PTR _fSpeed$[ebp]
  00b79	0f 2f 05 00 00
	00 00		 comiss	 xmm0, DWORD PTR __real@00000000
  00b80	76 10		 jbe	 SHORT $LN15@ApplyAttri

; 500  : 			pWeapon->SetMoveSpeed( fSpeed );

  00b82	8b 06		 mov	 eax, DWORD PTR [esi]
  00b84	51		 push	 ecx
  00b85	8b ce		 mov	 ecx, esi
  00b87	f3 0f 11 04 24	 movss	 DWORD PTR [esp], xmm0
  00b8c	ff 90 b4 00 00
	00		 call	 DWORD PTR [eax+180]
$LN15@ApplyAttri:

; 501  : 
; 502  : 		m_iWeaponWay++;

  00b92	ff 83 f4 10 00
	00		 inc	 DWORD PTR [ebx+4340]
  00b98	e9 ad 05 00 00	 jmp	 $LN7@ApplyAttri
$LN22@ApplyAttri:

; 503  : 	}
; 504  : 	else if( pPower || pCount || pRange || pRotate )

  00b9d	39 4d 80	 cmp	 DWORD PTR _pPower$[ebp], ecx
  00ba0	0f 85 2a 02 00
	00		 jne	 $LN12@ApplyAttri
  00ba6	39 4d 90	 cmp	 DWORD PTR _pCount$[ebp], ecx
  00ba9	0f 85 21 02 00
	00		 jne	 $LN12@ApplyAttri
  00baf	39 4d a4	 cmp	 DWORD PTR _pRange$[ebp], ecx
  00bb2	0f 85 18 02 00
	00		 jne	 $LN12@ApplyAttri
  00bb8	39 4d c0	 cmp	 DWORD PTR _pRotate$[ebp], ecx
  00bbb	0f 85 0f 02 00
	00		 jne	 $LN12@ApplyAttri

; 563  : 	}
; 564  : 	else
; 565  : 	{
; 566  : 		if( m_iMaxWeaponWay <= m_iWeaponWay )

  00bc1	8b 83 f4 10 00
	00		 mov	 eax, DWORD PTR [ebx+4340]
  00bc7	39 83 f0 10 00
	00		 cmp	 DWORD PTR [ebx+4336], eax
  00bcd	0f 8e d2 05 00
	00		 jle	 $LN1@ApplyAttri

; 567  : 			return;
; 568  : 
; 569  : 		float fCurAngle = 0.0f;
; 570  : 		float fCurRange = 0.0f;
; 571  : 		float fCurHeight = 0.0f;
; 572  : 
; 573  : 		fCurAngle = m_BulletInfoList[m_iWeaponWay].m_fYawAngle;

  00bd3	8b 8b f8 10 00
	00		 mov	 ecx, DWORD PTR [ebx+4344]
  00bd9	6b c0 14	 imul	 eax, 20			; 00000014H

; 574  : 		fCurRange = m_BulletInfoList[m_iWeaponWay].m_fRangeOffSet;

  00bdc	f3 0f 10 4c 08
	0c		 movss	 xmm1, DWORD PTR [eax+ecx+12]
  00be2	f3 0f 10 04 08	 movss	 xmm0, DWORD PTR [eax+ecx]
  00be7	f3 0f 11 4d a4	 movss	 DWORD PTR _fCurRange$601549[ebp], xmm1

; 575  : 		fCurHeight = m_BulletInfoList[m_iWeaponWay].m_fHeightOffSet;

  00bec	f3 0f 10 4c 08
	10		 movss	 xmm1, DWORD PTR [eax+ecx+16]

; 576  : 			
; 577  : 		fCurAngle = ioMath::ArrangeHead( fCurAngle );

  00bf2	51		 push	 ecx
  00bf3	f3 0f 11 4d 90	 movss	 DWORD PTR _fCurHeight$601550[ebp], xmm1
  00bf8	f3 0f 11 04 24	 movss	 DWORD PTR [esp], xmm0
  00bfd	ff 15 00 00 00
	00		 call	 DWORD PTR __imp_?ArrangeHead@ioMath@@SAMM@Z
  00c03	d9 5d c0	 fstp	 DWORD PTR _fCurAngle$601548[ebp]

; 578  : 
; 579  : 		D3DXVECTOR3 vMoveDir;
; 580  : 		D3DXQUATERNION qtAngle;
; 581  : 		D3DXQuaternionRotationYawPitchRoll( &qtAngle, DEGtoRAD(fCurAngle), 0.0f, 0.0f );

  00c06	d9 45 c0	 fld	 DWORD PTR _fCurAngle$601548[ebp]
  00c09	0f 57 c0	 xorps	 xmm0, xmm0
  00c0c	dc 0d 00 00 00
	00		 fmul	 QWORD PTR __real@3f91df46a2526c7a
  00c12	f3 0f 11 04 24	 movss	 DWORD PTR [esp], xmm0
  00c17	51		 push	 ecx
  00c18	51		 push	 ecx
  00c19	d9 5d c0	 fstp	 DWORD PTR tv3786[ebp]
  00c1c	f3 0f 11 44 24
	04		 movss	 DWORD PTR [esp+4], xmm0
  00c22	d9 45 c0	 fld	 DWORD PTR tv3786[ebp]
  00c25	8d 45 94	 lea	 eax, DWORD PTR _qtAngle$601552[ebp]
  00c28	d9 1c 24	 fstp	 DWORD PTR [esp]
  00c2b	50		 push	 eax
  00c2c	e8 00 00 00 00	 call	 _D3DXQuaternionRotationYawPitchRoll@16

; 582  : 
; 583  : 		D3DXQUATERNION qtRotate = pWeapon->GetOwner()->GetTargetRot();

  00c31	8b cf		 mov	 ecx, edi
  00c33	e8 00 00 00 00	 call	 ?GetOwner@ioWeapon@@QBEPAVioBaseChar@@XZ ; ioWeapon::GetOwner
  00c38	8d b0 a4 06 00
	00		 lea	 esi, DWORD PTR [eax+1700]
  00c3e	8d 7d ac	 lea	 edi, DWORD PTR _qtRotate$601553[ebp]
  00c41	a5		 movsd
  00c42	a5		 movsd
  00c43	a5		 movsd
  00c44	a5		 movsd

; 584  : 		vMoveDir = qtRotate * D3DXVECTOR3( 0.0f, 0.0f, -FLOAT1 );

  00c45	b8 01 00 00 00	 mov	 eax, 1
  00c4a	0f 57 c0	 xorps	 xmm0, xmm0
  00c4d	89 45 bc	 mov	 DWORD PTR tv3764[ebp], eax
  00c50	db 45 bc	 fild	 DWORD PTR tv3764[ebp]
  00c53	f3 0f 11 45 d8	 movss	 DWORD PTR $T601555[ebp], xmm0
  00c58	f3 0f 11 45 dc	 movss	 DWORD PTR $T601555[ebp+4], xmm0
  00c5d	85 c0		 test	 eax, eax
  00c5f	79 06		 jns	 SHORT $LN342@ApplyAttri
  00c61	d8 05 00 00 00
	00		 fadd	 DWORD PTR __real@4f800000
$LN342@ApplyAttri:
  00c67	8d 45 d8	 lea	 eax, DWORD PTR $T601555[ebp]
  00c6a	d9 e0		 fchs
  00c6c	50		 push	 eax
  00c6d	d9 5d e0	 fstp	 DWORD PTR $T601555[ebp+8]
  00c70	8d 45 ac	 lea	 eax, DWORD PTR _qtRotate$601553[ebp]
  00c73	50		 push	 eax
  00c74	8d 45 cc	 lea	 eax, DWORD PTR $T601556[ebp]
  00c77	50		 push	 eax
  00c78	ff 15 00 00 00
	00		 call	 DWORD PTR __imp_??D@YA?AUD3DXVECTOR3@@ABUD3DXQUATERNION@@ABU0@@Z
  00c7e	8b f0		 mov	 esi, eax
  00c80	8d 7d e4	 lea	 edi, DWORD PTR _vMoveDir$601551[ebp]
  00c83	a5		 movsd

; 585  : 		vMoveDir = qtAngle * vMoveDir;

  00c84	8d 45 e4	 lea	 eax, DWORD PTR _vMoveDir$601551[ebp]
  00c87	50		 push	 eax
  00c88	8d 45 94	 lea	 eax, DWORD PTR _qtAngle$601552[ebp]
  00c8b	a5		 movsd
  00c8c	50		 push	 eax
  00c8d	8d 45 cc	 lea	 eax, DWORD PTR $T601557[ebp]
  00c90	50		 push	 eax
  00c91	a5		 movsd
  00c92	ff 15 00 00 00
	00		 call	 DWORD PTR __imp_??D@YA?AUD3DXVECTOR3@@ABUD3DXQUATERNION@@ABU0@@Z
  00c98	8b f0		 mov	 esi, eax
  00c9a	8d 7d e4	 lea	 edi, DWORD PTR _vMoveDir$601551[ebp]
  00c9d	a5		 movsd
  00c9e	83 c4 18	 add	 esp, 24			; 00000018H

; 586  : 		D3DXVec3Normalize( &vMoveDir, &vMoveDir );

  00ca1	8d 45 e4	 lea	 eax, DWORD PTR _vMoveDir$601551[ebp]
  00ca4	a5		 movsd
  00ca5	50		 push	 eax
  00ca6	50		 push	 eax
  00ca7	a5		 movsd
  00ca8	e8 00 00 00 00	 call	 _D3DXVec3Normalize@8

; 587  : 
; 588  : 		D3DXVECTOR3 vPos = pWeapon->GetOwner()->GetMidPositionByRate();

  00cad	b8 05 00 00 00	 mov	 eax, 5
  00cb2	8b c8		 mov	 ecx, eax
  00cb4	b8 0a 00 00 00	 mov	 eax, 10			; 0000000aH
  00cb9	89 4d bc	 mov	 DWORD PTR tv3733[ebp], ecx
  00cbc	db 45 bc	 fild	 DWORD PTR tv3733[ebp]
  00cbf	85 c9		 test	 ecx, ecx
  00cc1	79 06		 jns	 SHORT $LN343@ApplyAttri
  00cc3	d8 05 00 00 00
	00		 fadd	 DWORD PTR __real@4f800000
$LN343@ApplyAttri:
  00cc9	89 45 bc	 mov	 DWORD PTR tv3729[ebp], eax
  00ccc	db 45 bc	 fild	 DWORD PTR tv3729[ebp]
  00ccf	85 c0		 test	 eax, eax
  00cd1	79 06		 jns	 SHORT $LN344@ApplyAttri
  00cd3	d8 05 00 00 00
	00		 fadd	 DWORD PTR __real@4f800000
$LN344@ApplyAttri:
  00cd9	de f9		 fdivp	 ST(1), ST(0)
  00cdb	51		 push	 ecx
  00cdc	8b 4d c4	 mov	 ecx, DWORD PTR _pWeapon$GSCopy$[ebp]
  00cdf	8d 45 f0	 lea	 eax, DWORD PTR _vPos$601558[ebp]
  00ce2	d9 5d c0	 fstp	 DWORD PTR tv3725[ebp]
  00ce5	d9 45 c0	 fld	 DWORD PTR tv3725[ebp]
  00ce8	d9 1c 24	 fstp	 DWORD PTR [esp]
  00ceb	50		 push	 eax
  00cec	e8 00 00 00 00	 call	 ?GetOwner@ioWeapon@@QBEPAVioBaseChar@@XZ ; ioWeapon::GetOwner
  00cf1	8b c8		 mov	 ecx, eax
  00cf3	e8 00 00 00 00	 call	 ?GetMidPositionByRate@ioGameEntity@@QBE?AUD3DXVECTOR3@@M@Z ; ioGameEntity::GetMidPositionByRate

; 589  : 		if( fCurRange > 0.0f )

  00cf8	f3 0f 10 45 a4	 movss	 xmm0, DWORD PTR _fCurRange$601549[ebp]
  00cfd	0f 57 c9	 xorps	 xmm1, xmm1
  00d00	0f 2f c1	 comiss	 xmm0, xmm1
  00d03	0f 86 89 00 00
	00		 jbe	 $LN334@ApplyAttri

; 590  : 			vPos += vMoveDir*fCurRange;

  00d09	f3 0f 10 5d e4	 movss	 xmm3, DWORD PTR _vMoveDir$601551[ebp]
  00d0e	0f 5a d0	 cvtps2pd xmm2, xmm0
  00d11	0f 5a e0	 cvtps2pd xmm4, xmm0
  00d14	0f 5a db	 cvtps2pd xmm3, xmm3
  00d17	f2 0f 59 d3	 mulsd	 xmm2, xmm3
  00d1b	f3 0f 10 5d e8	 movss	 xmm3, DWORD PTR _vMoveDir$601551[ebp+4]
  00d20	66 0f 5a d2	 cvtpd2ps xmm2, xmm2
  00d24	0f 5a db	 cvtps2pd xmm3, xmm3
  00d27	f2 0f 59 dc	 mulsd	 xmm3, xmm4
  00d2b	f3 0f 10 65 ec	 movss	 xmm4, DWORD PTR _vMoveDir$601551[ebp+8]
  00d30	0f 5a c0	 cvtps2pd xmm0, xmm0
  00d33	f3 0f 5a d2	 cvtss2sd xmm2, xmm2
  00d37	0f 5a e4	 cvtps2pd xmm4, xmm4
  00d3a	f2 0f 59 e0	 mulsd	 xmm4, xmm0
  00d3e	0f 57 c0	 xorps	 xmm0, xmm0
  00d41	66 0f 5a c4	 cvtpd2ps xmm0, xmm4
  00d45	f3 0f 10 65 f0	 movss	 xmm4, DWORD PTR _vPos$601558[ebp]
  00d4a	0f 5a e4	 cvtps2pd xmm4, xmm4
  00d4d	f2 0f 58 d4	 addsd	 xmm2, xmm4
  00d51	66 0f 5a d2	 cvtpd2ps xmm2, xmm2
  00d55	f3 0f 11 55 f0	 movss	 DWORD PTR _vPos$601558[ebp], xmm2
  00d5a	f3 0f 10 55 f4	 movss	 xmm2, DWORD PTR _vPos$601558[ebp+4]
  00d5f	0f 5a d2	 cvtps2pd xmm2, xmm2
  00d62	66 0f 5a db	 cvtpd2ps xmm3, xmm3
  00d66	f3 0f 5a db	 cvtss2sd xmm3, xmm3
  00d6a	f2 0f 58 d3	 addsd	 xmm2, xmm3
  00d6e	66 0f 5a d2	 cvtpd2ps xmm2, xmm2
  00d72	f3 0f 11 55 f4	 movss	 DWORD PTR _vPos$601558[ebp+4], xmm2
  00d77	f3 0f 10 55 f8	 movss	 xmm2, DWORD PTR _vPos$601558[ebp+8]
  00d7c	0f 5a c0	 cvtps2pd xmm0, xmm0
  00d7f	0f 5a d2	 cvtps2pd xmm2, xmm2
  00d82	f2 0f 58 d0	 addsd	 xmm2, xmm0
  00d86	0f 57 c0	 xorps	 xmm0, xmm0
  00d89	66 0f 5a c2	 cvtpd2ps xmm0, xmm2
  00d8d	f3 0f 11 45 f8	 movss	 DWORD PTR _vPos$601558[ebp+8], xmm0
$LN334@ApplyAttri:

; 591  : 		
; 592  : 		if( fCurHeight > 0.0f )

  00d92	f3 0f 10 45 90	 movss	 xmm0, DWORD PTR _fCurHeight$601550[ebp]
  00d97	0f 2f c1	 comiss	 xmm0, xmm1
  00d9a	76 1b		 jbe	 SHORT $LN4@ApplyAttri

; 593  : 			vPos.y += fCurHeight;

  00d9c	f3 0f 10 4d f4	 movss	 xmm1, DWORD PTR _vPos$601558[ebp+4]
  00da1	0f 5a c0	 cvtps2pd xmm0, xmm0
  00da4	0f 5a c9	 cvtps2pd xmm1, xmm1
  00da7	f2 0f 58 c8	 addsd	 xmm1, xmm0
  00dab	0f 57 c0	 xorps	 xmm0, xmm0
  00dae	f2 0f 5a c1	 cvtsd2ss xmm0, xmm1
  00db2	f3 0f 11 45 f4	 movss	 DWORD PTR _vPos$601558[ebp+4], xmm0
$LN4@ApplyAttri:

; 594  : 
; 595  : 		pWeapon->SetStartPosition( vPos, pStage );

  00db7	ff 75 84	 push	 DWORD PTR _pStage$GSCopy$[ebp]
  00dba	8b 75 c4	 mov	 esi, DWORD PTR _pWeapon$GSCopy$[ebp]
  00dbd	8b 06		 mov	 eax, DWORD PTR [esi]
  00dbf	8d 4d f0	 lea	 ecx, DWORD PTR _vPos$601558[ebp]
  00dc2	51		 push	 ecx
  00dc3	8b ce		 mov	 ecx, esi
  00dc5	ff 90 bc 00 00
	00		 call	 DWORD PTR [eax+188]

; 596  : 		pWeapon->SetMoveDir( vMoveDir );
; 597  : 
; 598  : 		if( fSpeed > 0.0f )
; 599  : 			pWeapon->SetMoveSpeed( fSpeed );
; 600  : 
; 601  : 		m_iWeaponWay++;

  00dcb	e9 96 fd ff ff	 jmp	 $LN355@ApplyAttri
$LN12@ApplyAttri:

; 505  : 	{
; 506  : 		if( m_iMaxWeaponWay <= m_iWeaponWay )

  00dd0	8b 83 f4 10 00
	00		 mov	 eax, DWORD PTR [ebx+4340]
  00dd6	39 83 f0 10 00
	00		 cmp	 DWORD PTR [ebx+4336], eax
  00ddc	0f 8e c3 03 00
	00		 jle	 $LN1@ApplyAttri

; 507  : 			return;
; 508  : 
; 509  : 		float fCurAngle = 0.0f;
; 510  : 		float fCurRange = 0.0f;
; 511  : 		float fCurHeight = 0.0f;
; 512  : 
; 513  : 		fCurAngle = m_BulletInfoList[m_iWeaponWay].m_fYawAngle;

  00de2	8b 8b f8 10 00
	00		 mov	 ecx, DWORD PTR [ebx+4344]
  00de8	6b c0 14	 imul	 eax, 20			; 00000014H

; 514  : 		fCurRange = m_BulletInfoList[m_iWeaponWay].m_fRangeOffSet;

  00deb	f3 0f 10 4c 08
	0c		 movss	 xmm1, DWORD PTR [eax+ecx+12]
  00df1	f3 0f 10 04 08	 movss	 xmm0, DWORD PTR [eax+ecx]
  00df6	f3 0f 11 4d a4	 movss	 DWORD PTR _fCurRange$601522[ebp], xmm1

; 515  : 		fCurHeight = m_BulletInfoList[m_iWeaponWay].m_fHeightOffSet;

  00dfb	f3 0f 10 4c 08
	10		 movss	 xmm1, DWORD PTR [eax+ecx+16]

; 516  : 
; 517  : 		fCurAngle = ioMath::ArrangeHead( fCurAngle );

  00e01	51		 push	 ecx
  00e02	f3 0f 11 4d 90	 movss	 DWORD PTR _fCurHeight$601523[ebp], xmm1
  00e07	f3 0f 11 04 24	 movss	 DWORD PTR [esp], xmm0
  00e0c	ff 15 00 00 00
	00		 call	 DWORD PTR __imp_?ArrangeHead@ioMath@@SAMM@Z
  00e12	d9 5d c0	 fstp	 DWORD PTR _fCurAngle$601521[ebp]

; 518  : 
; 519  : 		D3DXVECTOR3 vMoveDir;
; 520  : 		D3DXQUATERNION qtAngle;
; 521  : 		D3DXQuaternionRotationYawPitchRoll( &qtAngle, DEGtoRAD(fCurAngle), 0.0f, 0.0f );

  00e15	d9 45 c0	 fld	 DWORD PTR _fCurAngle$601521[ebp]
  00e18	0f 57 c0	 xorps	 xmm0, xmm0
  00e1b	dc 0d 00 00 00
	00		 fmul	 QWORD PTR __real@3f91df46a2526c7a
  00e21	f3 0f 11 04 24	 movss	 DWORD PTR [esp], xmm0
  00e26	51		 push	 ecx
  00e27	51		 push	 ecx
  00e28	d9 5d c0	 fstp	 DWORD PTR tv3690[ebp]
  00e2b	f3 0f 11 44 24
	04		 movss	 DWORD PTR [esp+4], xmm0
  00e31	d9 45 c0	 fld	 DWORD PTR tv3690[ebp]
  00e34	8d 45 ac	 lea	 eax, DWORD PTR _qtAngle$601525[ebp]
  00e37	d9 1c 24	 fstp	 DWORD PTR [esp]
  00e3a	50		 push	 eax
  00e3b	e8 00 00 00 00	 call	 _D3DXQuaternionRotationYawPitchRoll@16

; 522  : 
; 523  : 		D3DXQUATERNION qtRotate = pWeapon->GetOwner()->GetTargetRot();

  00e40	8b cf		 mov	 ecx, edi
  00e42	e8 00 00 00 00	 call	 ?GetOwner@ioWeapon@@QBEPAVioBaseChar@@XZ ; ioWeapon::GetOwner
  00e47	8d b0 a4 06 00
	00		 lea	 esi, DWORD PTR [eax+1700]
  00e4d	8d 7d 94	 lea	 edi, DWORD PTR _qtRotate$601526[ebp]
  00e50	a5		 movsd
  00e51	a5		 movsd
  00e52	a5		 movsd
  00e53	a5		 movsd

; 524  : 		vMoveDir = qtRotate * D3DXVECTOR3( 0.0f, 0.0f, -FLOAT1 );

  00e54	b8 01 00 00 00	 mov	 eax, 1
  00e59	0f 57 c0	 xorps	 xmm0, xmm0
  00e5c	89 45 bc	 mov	 DWORD PTR tv3668[ebp], eax
  00e5f	db 45 bc	 fild	 DWORD PTR tv3668[ebp]
  00e62	f3 0f 11 45 d8	 movss	 DWORD PTR $T601528[ebp], xmm0
  00e67	f3 0f 11 45 dc	 movss	 DWORD PTR $T601528[ebp+4], xmm0
  00e6c	85 c0		 test	 eax, eax
  00e6e	79 06		 jns	 SHORT $LN345@ApplyAttri
  00e70	d8 05 00 00 00
	00		 fadd	 DWORD PTR __real@4f800000
$LN345@ApplyAttri:
  00e76	8d 45 d8	 lea	 eax, DWORD PTR $T601528[ebp]
  00e79	d9 e0		 fchs
  00e7b	50		 push	 eax
  00e7c	d9 5d e0	 fstp	 DWORD PTR $T601528[ebp+8]
  00e7f	8d 45 94	 lea	 eax, DWORD PTR _qtRotate$601526[ebp]
  00e82	50		 push	 eax
  00e83	8d 45 cc	 lea	 eax, DWORD PTR $T601529[ebp]
  00e86	50		 push	 eax
  00e87	ff 15 00 00 00
	00		 call	 DWORD PTR __imp_??D@YA?AUD3DXVECTOR3@@ABUD3DXQUATERNION@@ABU0@@Z
  00e8d	8b f0		 mov	 esi, eax
  00e8f	8d 7d e4	 lea	 edi, DWORD PTR _vMoveDir$601524[ebp]
  00e92	a5		 movsd

; 525  : 		vMoveDir = qtAngle * vMoveDir;

  00e93	8d 45 e4	 lea	 eax, DWORD PTR _vMoveDir$601524[ebp]
  00e96	50		 push	 eax
  00e97	8d 45 ac	 lea	 eax, DWORD PTR _qtAngle$601525[ebp]
  00e9a	a5		 movsd
  00e9b	50		 push	 eax
  00e9c	8d 45 cc	 lea	 eax, DWORD PTR $T601530[ebp]
  00e9f	50		 push	 eax
  00ea0	a5		 movsd
  00ea1	ff 15 00 00 00
	00		 call	 DWORD PTR __imp_??D@YA?AUD3DXVECTOR3@@ABUD3DXQUATERNION@@ABU0@@Z
  00ea7	8b f0		 mov	 esi, eax
  00ea9	8d 7d e4	 lea	 edi, DWORD PTR _vMoveDir$601524[ebp]
  00eac	a5		 movsd
  00ead	83 c4 18	 add	 esp, 24			; 00000018H

; 526  : 		D3DXVec3Normalize( &vMoveDir, &vMoveDir );

  00eb0	8d 45 e4	 lea	 eax, DWORD PTR _vMoveDir$601524[ebp]
  00eb3	a5		 movsd
  00eb4	50		 push	 eax
  00eb5	50		 push	 eax
  00eb6	a5		 movsd
  00eb7	e8 00 00 00 00	 call	 _D3DXVec3Normalize@8

; 527  : 
; 528  : 		D3DXVECTOR3 vPos = pWeapon->GetOwner()->GetMidPositionByRate();

  00ebc	b8 05 00 00 00	 mov	 eax, 5
  00ec1	8b c8		 mov	 ecx, eax
  00ec3	b8 0a 00 00 00	 mov	 eax, 10			; 0000000aH
  00ec8	89 4d bc	 mov	 DWORD PTR tv3637[ebp], ecx
  00ecb	db 45 bc	 fild	 DWORD PTR tv3637[ebp]
  00ece	85 c9		 test	 ecx, ecx
  00ed0	79 06		 jns	 SHORT $LN346@ApplyAttri
  00ed2	d8 05 00 00 00
	00		 fadd	 DWORD PTR __real@4f800000
$LN346@ApplyAttri:
  00ed8	89 45 bc	 mov	 DWORD PTR tv3633[ebp], eax
  00edb	db 45 bc	 fild	 DWORD PTR tv3633[ebp]
  00ede	85 c0		 test	 eax, eax
  00ee0	79 06		 jns	 SHORT $LN347@ApplyAttri
  00ee2	d8 05 00 00 00
	00		 fadd	 DWORD PTR __real@4f800000
$LN347@ApplyAttri:
  00ee8	de f9		 fdivp	 ST(1), ST(0)
  00eea	51		 push	 ecx
  00eeb	8b 4d c4	 mov	 ecx, DWORD PTR _pWeapon$GSCopy$[ebp]
  00eee	8d 45 f0	 lea	 eax, DWORD PTR _vPos$601531[ebp]
  00ef1	d9 5d c0	 fstp	 DWORD PTR tv3629[ebp]
  00ef4	d9 45 c0	 fld	 DWORD PTR tv3629[ebp]
  00ef7	d9 1c 24	 fstp	 DWORD PTR [esp]
  00efa	50		 push	 eax
  00efb	e8 00 00 00 00	 call	 ?GetOwner@ioWeapon@@QBEPAVioBaseChar@@XZ ; ioWeapon::GetOwner
  00f00	8b c8		 mov	 ecx, eax
  00f02	e8 00 00 00 00	 call	 ?GetMidPositionByRate@ioGameEntity@@QBE?AUD3DXVECTOR3@@M@Z ; ioGameEntity::GetMidPositionByRate

; 529  : 		if( fCurRange > 0.0f )

  00f07	f3 0f 10 45 a4	 movss	 xmm0, DWORD PTR _fCurRange$601522[ebp]
  00f0c	0f 57 c9	 xorps	 xmm1, xmm1
  00f0f	0f 2f c1	 comiss	 xmm0, xmm1
  00f12	0f 86 8c 00 00
	00		 jbe	 $LN335@ApplyAttri

; 530  : 			vPos += vMoveDir*fCurRange;

  00f18	f3 0f 10 5d e4	 movss	 xmm3, DWORD PTR _vMoveDir$601524[ebp]
  00f1d	0f 5a d0	 cvtps2pd xmm2, xmm0
  00f20	0f 5a e0	 cvtps2pd xmm4, xmm0
  00f23	0f 5a db	 cvtps2pd xmm3, xmm3
  00f26	f2 0f 59 d3	 mulsd	 xmm2, xmm3
  00f2a	f3 0f 10 5d e8	 movss	 xmm3, DWORD PTR _vMoveDir$601524[ebp+4]
  00f2f	0f 5a db	 cvtps2pd xmm3, xmm3
  00f32	f2 0f 59 dc	 mulsd	 xmm3, xmm4
  00f36	f3 0f 10 65 ec	 movss	 xmm4, DWORD PTR _vMoveDir$601524[ebp+8]
  00f3b	66 0f 5a d2	 cvtpd2ps xmm2, xmm2
  00f3f	0f 5a c0	 cvtps2pd xmm0, xmm0
  00f42	f3 0f 5a d2	 cvtss2sd xmm2, xmm2
  00f46	0f 5a e4	 cvtps2pd xmm4, xmm4
  00f49	f2 0f 59 e0	 mulsd	 xmm4, xmm0
  00f4d	0f 57 c0	 xorps	 xmm0, xmm0
  00f50	66 0f 5a c4	 cvtpd2ps xmm0, xmm4
  00f54	f3 0f 10 65 f0	 movss	 xmm4, DWORD PTR _vPos$601531[ebp]
  00f59	0f 5a e4	 cvtps2pd xmm4, xmm4
  00f5c	f2 0f 58 d4	 addsd	 xmm2, xmm4
  00f60	66 0f 5a d2	 cvtpd2ps xmm2, xmm2
  00f64	f3 0f 11 55 f0	 movss	 DWORD PTR _vPos$601531[ebp], xmm2
  00f69	0f 57 d2	 xorps	 xmm2, xmm2
  00f6c	66 0f 5a db	 cvtpd2ps xmm3, xmm3
  00f70	f3 0f 5a d3	 cvtss2sd xmm2, xmm3
  00f74	f3 0f 10 5d f4	 movss	 xmm3, DWORD PTR _vPos$601531[ebp+4]
  00f79	0f 5a db	 cvtps2pd xmm3, xmm3
  00f7c	f2 0f 58 d3	 addsd	 xmm2, xmm3
  00f80	66 0f 5a d2	 cvtpd2ps xmm2, xmm2
  00f84	f3 0f 11 55 f4	 movss	 DWORD PTR _vPos$601531[ebp+4], xmm2
  00f89	f3 0f 10 55 f8	 movss	 xmm2, DWORD PTR _vPos$601531[ebp+8]
  00f8e	0f 5a c0	 cvtps2pd xmm0, xmm0
  00f91	0f 5a d2	 cvtps2pd xmm2, xmm2
  00f94	f2 0f 58 d0	 addsd	 xmm2, xmm0
  00f98	0f 57 c0	 xorps	 xmm0, xmm0
  00f9b	66 0f 5a c2	 cvtpd2ps xmm0, xmm2
  00f9f	f3 0f 11 45 f8	 movss	 DWORD PTR _vPos$601531[ebp+8], xmm0
$LN335@ApplyAttri:

; 531  : 
; 532  : 		if( fCurHeight > 0.0f )

  00fa4	f3 0f 10 45 90	 movss	 xmm0, DWORD PTR _fCurHeight$601523[ebp]
  00fa9	0f 2f c1	 comiss	 xmm0, xmm1
  00fac	76 1b		 jbe	 SHORT $LN9@ApplyAttri

; 533  : 			vPos.y += fCurHeight;

  00fae	f3 0f 10 4d f4	 movss	 xmm1, DWORD PTR _vPos$601531[ebp+4]
  00fb3	0f 5a c0	 cvtps2pd xmm0, xmm0
  00fb6	0f 5a c9	 cvtps2pd xmm1, xmm1
  00fb9	f2 0f 58 c8	 addsd	 xmm1, xmm0
  00fbd	0f 57 c0	 xorps	 xmm0, xmm0
  00fc0	f2 0f 5a c1	 cvtsd2ss xmm0, xmm1
  00fc4	f3 0f 11 45 f4	 movss	 DWORD PTR _vPos$601531[ebp+4], xmm0
$LN9@ApplyAttri:

; 534  : 
; 535  : 		pWeapon->SetStartPosition( vPos, pStage );

  00fc9	ff 75 84	 push	 DWORD PTR _pStage$GSCopy$[ebp]
  00fcc	8b 75 c4	 mov	 esi, DWORD PTR _pWeapon$GSCopy$[ebp]
  00fcf	8b 06		 mov	 eax, DWORD PTR [esi]
  00fd1	8d 4d f0	 lea	 ecx, DWORD PTR _vPos$601531[ebp]
  00fd4	51		 push	 ecx
  00fd5	8b ce		 mov	 ecx, esi
  00fd7	ff 90 bc 00 00
	00		 call	 DWORD PTR [eax+188]

; 536  : 		pWeapon->SetMoveDir( vMoveDir );

  00fdd	8b 06		 mov	 eax, DWORD PTR [esi]
  00fdf	8d 4d e4	 lea	 ecx, DWORD PTR _vMoveDir$601524[ebp]
  00fe2	51		 push	 ecx
  00fe3	8b ce		 mov	 ecx, esi
  00fe5	ff 90 b0 00 00
	00		 call	 DWORD PTR [eax+176]

; 537  : 
; 538  : 		if( fSpeed > 0.0f )

  00feb	f3 0f 10 45 a8	 movss	 xmm0, DWORD PTR _fSpeed$[ebp]
  00ff0	0f 2f 05 00 00
	00 00		 comiss	 xmm0, DWORD PTR __real@00000000
  00ff7	76 10		 jbe	 SHORT $LN8@ApplyAttri

; 539  : 			pWeapon->SetMoveSpeed( fSpeed );

  00ff9	8b 06		 mov	 eax, DWORD PTR [esi]
  00ffb	51		 push	 ecx
  00ffc	8b ce		 mov	 ecx, esi
  00ffe	f3 0f 11 04 24	 movss	 DWORD PTR [esp], xmm0
  01003	ff 90 b4 00 00
	00		 call	 DWORD PTR [eax+180]
$LN8@ApplyAttri:

; 540  : 
; 541  : 		m_iWeaponWay++;
; 542  : 
; 543  : 		// Charge...
; 544  : 		float fCurDamageRate = GetOwnerItem()->GetChargeDamageRateForSkill();

  01009	8b 8b a4 02 00
	00		 mov	 ecx, DWORD PTR [ebx+676]
  0100f	ff 83 f4 10 00
	00		 inc	 DWORD PTR [ebx+4340]
  01015	8b 01		 mov	 eax, DWORD PTR [ecx]
  01017	ff 90 88 00 00
	00		 call	 DWORD PTR [eax+136]
  0101d	d9 5d c0	 fstp	 DWORD PTR _fCurDamageRate$601537[ebp]

; 545  : 		float fCurForceRate = GetOwnerItem()->GetChargeForceRateForSkill();

  01020	8b 8b a4 02 00
	00		 mov	 ecx, DWORD PTR [ebx+676]
  01026	8b 01		 mov	 eax, DWORD PTR [ecx]
  01028	ff 90 8c 00 00
	00		 call	 DWORD PTR [eax+140]
  0102e	d9 5d a4	 fstp	 DWORD PTR _fCurForceRate$601538[ebp]

; 546  : 		float fCurBlowRate = GetOwnerItem()->GetChargeBlowRateForSkill();

  01031	8b 8b a4 02 00
	00		 mov	 ecx, DWORD PTR [ebx+676]
  01037	8b 01		 mov	 eax, DWORD PTR [ecx]
  01039	ff 90 90 00 00
	00		 call	 DWORD PTR [eax+144]
  0103f	d9 5d 90	 fstp	 DWORD PTR _fCurBlowRate$601539[ebp]

; 547  : 		float fCurRangeRate = GetOwnerItem()->GetChargeRangeRateForSkill();

  01042	8b 8b a4 02 00
	00		 mov	 ecx, DWORD PTR [ebx+676]
  01048	8b 01		 mov	 eax, DWORD PTR [ecx]
  0104a	ff 90 94 00 00
	00		 call	 DWORD PTR [eax+148]
  01050	d9 5d 80	 fstp	 DWORD PTR _fCurRangeRate$601540[ebp]

; 548  : 		float fCurSpeedRate = GetOwnerItem()->GetChargeSpeedRateForSkill();

  01053	8b 8b a4 02 00
	00		 mov	 ecx, DWORD PTR [ebx+676]
  01059	8b 01		 mov	 eax, DWORD PTR [ecx]
  0105b	ff 90 98 00 00
	00		 call	 DWORD PTR [eax+152]
  01061	d9 5d c8	 fstp	 DWORD PTR _fCurSpeedRate$601541[ebp]

; 549  : 		float fCurFloatRate = GetOwnerItem()->GetChargeFloatRateForSkill();

  01064	8b 8b a4 02 00
	00		 mov	 ecx, DWORD PTR [ebx+676]
  0106a	8b 01		 mov	 eax, DWORD PTR [ecx]
  0106c	ff 90 9c 00 00
	00		 call	 DWORD PTR [eax+156]
  01072	d9 5d 88	 fstp	 DWORD PTR _fCurFloatRate$601542[ebp]

; 550  : 		float fCurScaleRate = GetOwnerItem()->GetChargeScaleRateForSkill();

  01075	8b 8b a4 02 00
	00		 mov	 ecx, DWORD PTR [ebx+676]
  0107b	8b 01		 mov	 eax, DWORD PTR [ecx]
  0107d	ff 90 a0 00 00
	00		 call	 DWORD PTR [eax+160]
  01083	d9 5d 8c	 fstp	 DWORD PTR _fCurScaleRate$601543[ebp]

; 551  : 		float fCurExplosionRate = GetOwnerItem()->GetChargeExplosionRateForSkill();

  01086	8b 8b a4 02 00
	00		 mov	 ecx, DWORD PTR [ebx+676]
  0108c	8b 01		 mov	 eax, DWORD PTR [ecx]
  0108e	ff 90 a4 00 00
	00		 call	 DWORD PTR [eax+164]
  01094	d9 5d a8	 fstp	 DWORD PTR _fCurExplosionRate$601544[ebp]

; 552  : 		float fCurWoundedTimeRate = GetOwnerItem()->GetChargeWoundedTimeRateForSkill();

  01097	8b 8b a4 02 00
	00		 mov	 ecx, DWORD PTR [ebx+676]
  0109d	8b 01		 mov	 eax, DWORD PTR [ecx]
  0109f	ff 90 a8 00 00
	00		 call	 DWORD PTR [eax+168]
  010a5	d9 5d bc	 fstp	 DWORD PTR _fCurWoundedTimeRate$601545[ebp]

; 553  : 
; 554  : 		pWeapon->SetOwnerChargeDamageRate( fCurDamageRate );

  010a8	f3 0f 10 45 c0	 movss	 xmm0, DWORD PTR _fCurDamageRate$601537[ebp]
  010ad	8b 06		 mov	 eax, DWORD PTR [esi]
  010af	51		 push	 ecx
  010b0	8b ce		 mov	 ecx, esi
  010b2	f3 0f 11 04 24	 movss	 DWORD PTR [esp], xmm0
  010b7	ff 50 0c	 call	 DWORD PTR [eax+12]

; 555  : 		pWeapon->SetOwnerChargeForceRate( fCurForceRate );

  010ba	f3 0f 10 45 a4	 movss	 xmm0, DWORD PTR _fCurForceRate$601538[ebp]
  010bf	8b 06		 mov	 eax, DWORD PTR [esi]
  010c1	51		 push	 ecx
  010c2	8b ce		 mov	 ecx, esi
  010c4	f3 0f 11 04 24	 movss	 DWORD PTR [esp], xmm0
  010c9	ff 50 10	 call	 DWORD PTR [eax+16]

; 556  : 		pWeapon->SetOwnerChargeBlowRate( fCurBlowRate );

  010cc	f3 0f 10 45 90	 movss	 xmm0, DWORD PTR _fCurBlowRate$601539[ebp]
  010d1	8b 06		 mov	 eax, DWORD PTR [esi]
  010d3	51		 push	 ecx
  010d4	8b ce		 mov	 ecx, esi
  010d6	f3 0f 11 04 24	 movss	 DWORD PTR [esp], xmm0
  010db	ff 50 1c	 call	 DWORD PTR [eax+28]

; 557  : 		pWeapon->SetOwnerChargeRangeRate( fCurRangeRate );

  010de	f3 0f 10 45 80	 movss	 xmm0, DWORD PTR _fCurRangeRate$601540[ebp]
  010e3	8b 06		 mov	 eax, DWORD PTR [esi]
  010e5	51		 push	 ecx
  010e6	8b ce		 mov	 ecx, esi
  010e8	f3 0f 11 04 24	 movss	 DWORD PTR [esp], xmm0
  010ed	ff 50 14	 call	 DWORD PTR [eax+20]

; 558  : 		pWeapon->SetOwnerChargeSpeedRate( fCurSpeedRate );

  010f0	f3 0f 10 45 c8	 movss	 xmm0, DWORD PTR _fCurSpeedRate$601541[ebp]
  010f5	8b 06		 mov	 eax, DWORD PTR [esi]
  010f7	51		 push	 ecx
  010f8	8b ce		 mov	 ecx, esi
  010fa	f3 0f 11 04 24	 movss	 DWORD PTR [esp], xmm0
  010ff	ff 50 18	 call	 DWORD PTR [eax+24]

; 559  : 		pWeapon->SetOwnerChargeFloatRate( fCurFloatRate );

  01102	f3 0f 10 45 88	 movss	 xmm0, DWORD PTR _fCurFloatRate$601542[ebp]
  01107	8b 06		 mov	 eax, DWORD PTR [esi]
  01109	51		 push	 ecx
  0110a	8b ce		 mov	 ecx, esi
  0110c	f3 0f 11 04 24	 movss	 DWORD PTR [esp], xmm0
  01111	ff 50 20	 call	 DWORD PTR [eax+32]

; 560  : 		pWeapon->SetOwnerChargeScaleRate( fCurScaleRate );

  01114	f3 0f 10 45 8c	 movss	 xmm0, DWORD PTR _fCurScaleRate$601543[ebp]
  01119	8b 06		 mov	 eax, DWORD PTR [esi]
  0111b	51		 push	 ecx
  0111c	8b ce		 mov	 ecx, esi
  0111e	f3 0f 11 04 24	 movss	 DWORD PTR [esp], xmm0
  01123	ff 50 24	 call	 DWORD PTR [eax+36]

; 561  : 		pWeapon->SetOwnerChargeExplosionRate( fCurExplosionRate );

  01126	8b 06		 mov	 eax, DWORD PTR [esi]
  01128	51		 push	 ecx
  01129	f3 0f 10 45 a8	 movss	 xmm0, DWORD PTR _fCurExplosionRate$601544[ebp]
  0112e	8b ce		 mov	 ecx, esi
  01130	f3 0f 11 04 24	 movss	 DWORD PTR [esp], xmm0
  01135	ff 50 28	 call	 DWORD PTR [eax+40]

; 562  : 		pWeapon->SetOwnerChargeWoundedTimeRate( fCurWoundedTimeRate );

  01138	f3 0f 10 45 bc	 movss	 xmm0, DWORD PTR _fCurWoundedTimeRate$601545[ebp]
  0113d	8b 06		 mov	 eax, DWORD PTR [esi]
  0113f	51		 push	 ecx
  01140	8b ce		 mov	 ecx, esi
  01142	f3 0f 11 04 24	 movss	 DWORD PTR [esp], xmm0
  01147	ff 50 2c	 call	 DWORD PTR [eax+44]
$LN7@ApplyAttri:

; 602  : 	}
; 603  : 
; 604  : 	if( pThrow )

  0114a	8b 8d 7c ff ff
	ff		 mov	 ecx, DWORD PTR _pThrow$[ebp]
  01150	85 c9		 test	 ecx, ecx
  01152	74 51		 je	 SHORT $LN1@ApplyAttri

; 605  : 	{
; 606  : 		pThrow->SetSecondAttribute( m_iSecondAttributeIndex );

  01154	ff b3 14 1b 00
	00		 push	 DWORD PTR [ebx+6932]
  0115a	e8 00 00 00 00	 call	 ?SetSecondAttribute@ioThrowReturnWeapon@@QAEXH@Z ; ioThrowReturnWeapon::SetSecondAttribute

; 607  : 
; 608  : 		ioBaseChar *pChar = pWeapon->GetOwner();

  0115f	8b 7d c4	 mov	 edi, DWORD PTR _pWeapon$GSCopy$[ebp]
  01162	8b cf		 mov	 ecx, edi
  01164	e8 00 00 00 00	 call	 ?GetOwner@ioWeapon@@QBEPAVioBaseChar@@XZ ; ioWeapon::GetOwner
  01169	8b c8		 mov	 ecx, eax

; 609  : 		if( pChar )

  0116b	85 c9		 test	 ecx, ecx
  0116d	74 36		 je	 SHORT $LN1@ApplyAttri

; 610  : 		{
; 611  : 			pWeapon->SetStartPosition( pChar->GetCharHeadPos(FLOAT1), pStage );

  0116f	b8 01 00 00 00	 mov	 eax, 1
  01174	8b 37		 mov	 esi, DWORD PTR [edi]
  01176	ff 75 84	 push	 DWORD PTR _pStage$GSCopy$[ebp]
  01179	89 85 7c ff ff
	ff		 mov	 DWORD PTR tv3564[ebp], eax
  0117f	db 85 7c ff ff
	ff		 fild	 DWORD PTR tv3564[ebp]
  01185	85 c0		 test	 eax, eax
  01187	79 06		 jns	 SHORT $LN348@ApplyAttri
  01189	d8 05 00 00 00
	00		 fadd	 DWORD PTR __real@4f800000
$LN348@ApplyAttri:
  0118f	51		 push	 ecx
  01190	8d 45 cc	 lea	 eax, DWORD PTR $T601568[ebp]
  01193	d9 1c 24	 fstp	 DWORD PTR [esp]
  01196	50		 push	 eax
  01197	e8 00 00 00 00	 call	 ?GetCharHeadPos@ioBaseChar@@QBE?AUD3DXVECTOR3@@M@Z ; ioBaseChar::GetCharHeadPos
  0119c	50		 push	 eax
  0119d	8b cf		 mov	 ecx, edi
  0119f	ff 96 bc 00 00
	00		 call	 DWORD PTR [esi+188]
$LN1@ApplyAttri:

; 612  : 		}
; 613  : 	}
; 614  : }

  011a5	8b 4d fc	 mov	 ecx, DWORD PTR __$ArrayPad$[ebp]
  011a8	5f		 pop	 edi
  011a9	5e		 pop	 esi
  011aa	33 cd		 xor	 ecx, ebp
  011ac	5b		 pop	 ebx
  011ad	e8 00 00 00 00	 call	 @__security_check_cookie@4
  011b2	c9		 leave
  011b3	c2 08 00	 ret	 8
?ApplyAttributeToWeapon@ioFullShotSkill@@UAEXPAVioWeapon@@PAVioPlayStage@@@Z ENDP ; ioFullShotSkill::ApplyAttributeToWeapon
_TEXT	ENDS
PUBLIC	?GetAttackTimeRate@ioFullShotSkill@@MBEMXZ	; ioFullShotSkill::GetAttackTimeRate
; Function compile flags: /Ogsp
;	COMDAT ?GetAttackTimeRate@ioFullShotSkill@@MBEMXZ
_TEXT	SEGMENT
tv180 = -4						; size = 4
_fTimeRate$ = -4					; size = 4
?GetAttackTimeRate@ioFullShotSkill@@MBEMXZ PROC		; ioFullShotSkill::GetAttackTimeRate, COMDAT
; _this$ = ecx

; 617  : {

  00000	55		 push	 ebp
  00001	8b ec		 mov	 ebp, esp
  00003	51		 push	 ecx
  00004	56		 push	 esi
  00005	8b f1		 mov	 esi, ecx

; 618  : 	float fTimeRate = GetAttributeConst().m_fAttackAniRate;

  00007	8b 06		 mov	 eax, DWORD PTR [esi]
  00009	ff 90 a8 01 00
	00		 call	 DWORD PTR [eax+424]
  0000f	f3 0f 10 40 10	 movss	 xmm0, DWORD PTR [eax+16]

; 619  : 	ioFireWeaponItem *pFire = ToFireWeaponItem( GetOwnerItem() );

  00014	ff b6 a4 02 00
	00		 push	 DWORD PTR [esi+676]
  0001a	f3 0f 11 45 fc	 movss	 DWORD PTR _fTimeRate$[ebp], xmm0
  0001f	e8 00 00 00 00	 call	 ?ToFireWeaponItem@@YAPAVioFireWeaponItem@@PAVioItem@@@Z ; ToFireWeaponItem
  00024	59		 pop	 ecx

; 620  : 	if( pFire )

  00025	85 c0		 test	 eax, eax
  00027	74 20		 je	 SHORT $LN1@GetAttackT

; 621  : 	{
; 622  : 		fTimeRate *= pFire->GetFireTimeModifyRate();

  00029	f3 0f 10 4d fc	 movss	 xmm1, DWORD PTR _fTimeRate$[ebp]
  0002e	f3 0f 10 80 e0
	1b 00 00	 movss	 xmm0, DWORD PTR [eax+7136]
  00036	0f 5a c0	 cvtps2pd xmm0, xmm0
  00039	0f 5a c9	 cvtps2pd xmm1, xmm1
  0003c	f2 0f 59 c1	 mulsd	 xmm0, xmm1
  00040	66 0f 5a c0	 cvtpd2ps xmm0, xmm0
  00044	f3 0f 11 45 fc	 movss	 DWORD PTR _fTimeRate$[ebp], xmm0
$LN1@GetAttackT:

; 623  : 	}
; 624  : 
; 625  : 	fTimeRate *= m_fExtraAniRate;
; 626  : 
; 627  : 	return fTimeRate;

  00049	d9 86 68 03 00
	00		 fld	 DWORD PTR [esi+872]
  0004f	5e		 pop	 esi
  00050	d8 4d fc	 fmul	 DWORD PTR _fTimeRate$[ebp]
  00053	d9 5d fc	 fstp	 DWORD PTR tv180[ebp]
  00056	d9 45 fc	 fld	 DWORD PTR tv180[ebp]

; 628  : }

  00059	c9		 leave
  0005a	c3		 ret	 0
?GetAttackTimeRate@ioFullShotSkill@@MBEMXZ ENDP		; ioFullShotSkill::GetAttackTimeRate
_TEXT	ENDS
PUBLIC	?GetAttackEndTimeRate@ioFullShotSkill@@MBEMXZ	; ioFullShotSkill::GetAttackEndTimeRate
; Function compile flags: /Ogsp
;	COMDAT ?GetAttackEndTimeRate@ioFullShotSkill@@MBEMXZ
_TEXT	SEGMENT
_fTimeRate$ = -4					; size = 4
?GetAttackEndTimeRate@ioFullShotSkill@@MBEMXZ PROC	; ioFullShotSkill::GetAttackEndTimeRate, COMDAT
; _this$ = ecx

; 631  : {

  00000	55		 push	 ebp
  00001	8b ec		 mov	 ebp, esp
  00003	51		 push	 ecx
  00004	56		 push	 esi
  00005	8b f1		 mov	 esi, ecx

; 632  : 	float fTimeRate = GetAttributeConst().m_fAttackEndAniRate;

  00007	8b 06		 mov	 eax, DWORD PTR [esi]
  00009	ff 90 a8 01 00
	00		 call	 DWORD PTR [eax+424]
  0000f	f3 0f 10 40 24	 movss	 xmm0, DWORD PTR [eax+36]

; 633  : 	ioFireWeaponItem *pFire = ToFireWeaponItem( GetOwnerItem() );

  00014	ff b6 a4 02 00
	00		 push	 DWORD PTR [esi+676]
  0001a	f3 0f 11 45 fc	 movss	 DWORD PTR _fTimeRate$[ebp], xmm0
  0001f	e8 00 00 00 00	 call	 ?ToFireWeaponItem@@YAPAVioFireWeaponItem@@PAVioItem@@@Z ; ToFireWeaponItem
  00024	59		 pop	 ecx
  00025	5e		 pop	 esi

; 634  : 	if( pFire )

  00026	85 c0		 test	 eax, eax
  00028	74 20		 je	 SHORT $LN1@GetAttackE

; 635  : 	{
; 636  : 		fTimeRate *= pFire->GetFireTimeModifyRate();

  0002a	f3 0f 10 4d fc	 movss	 xmm1, DWORD PTR _fTimeRate$[ebp]
  0002f	f3 0f 10 80 e0
	1b 00 00	 movss	 xmm0, DWORD PTR [eax+7136]
  00037	0f 5a c0	 cvtps2pd xmm0, xmm0
  0003a	0f 5a c9	 cvtps2pd xmm1, xmm1
  0003d	f2 0f 59 c1	 mulsd	 xmm0, xmm1
  00041	66 0f 5a c0	 cvtpd2ps xmm0, xmm0
  00045	f3 0f 11 45 fc	 movss	 DWORD PTR _fTimeRate$[ebp], xmm0
$LN1@GetAttackE:

; 637  : 	}
; 638  : 
; 639  : 	return fTimeRate;

  0004a	d9 45 fc	 fld	 DWORD PTR _fTimeRate$[ebp]

; 640  : }

  0004d	c9		 leave
  0004e	c3		 ret	 0
?GetAttackEndTimeRate@ioFullShotSkill@@MBEMXZ ENDP	; ioFullShotSkill::GetAttackEndTimeRate
_TEXT	ENDS
PUBLIC	?OnSkillEnd@ioFullShotSkill@@UAEXPAVioBaseChar@@@Z ; ioFullShotSkill::OnSkillEnd
EXTRN	?RestoreSkillWeaponMesh@ioBaseChar@@QAE_NPAVioSkill@@ABVioHashString@@_N2@Z:PROC ; ioBaseChar::RestoreSkillWeaponMesh
EXTRN	?ShowWeaponItemMesh@ioBaseChar@@QAEX_N0@Z:PROC	; ioBaseChar::ShowWeaponItemMesh
EXTRN	?OnSkillEnd@ioAttackSkill@@UAEXPAVioBaseChar@@@Z:PROC ; ioAttackSkill::OnSkillEnd
EXTRN	?SetAimedDirSet@ioBowItem@@QAEX_N@Z:PROC	; ioBowItem::SetAimedDirSet
EXTRN	?SetAimedSkillUse@ioBowItem@@QAEX_N@Z:PROC	; ioBowItem::SetAimedSkillUse
EXTRN	?SetAimedDirSet@ioFireWeaponItem@@QAEX_N@Z:PROC	; ioFireWeaponItem::SetAimedDirSet
EXTRN	?SetAimedSkillUse@ioFireWeaponItem@@QAEX_N@Z:PROC ; ioFireWeaponItem::SetAimedSkillUse
; Function compile flags: /Ogsp
;	COMDAT ?OnSkillEnd@ioFullShotSkill@@UAEXPAVioBaseChar@@@Z
_TEXT	SEGMENT
$T601593 = -16						; size = 12
_pBow$ = -4						; size = 4
_pChar$ = 8						; size = 4
?OnSkillEnd@ioFullShotSkill@@UAEXPAVioBaseChar@@@Z PROC	; ioFullShotSkill::OnSkillEnd, COMDAT
; _this$ = ecx

; 643  : {

  00000	55		 push	 ebp
  00001	8b ec		 mov	 ebp, esp
  00003	83 ec 10	 sub	 esp, 16			; 00000010H
  00006	53		 push	 ebx
  00007	56		 push	 esi
  00008	8b d9		 mov	 ebx, ecx
  0000a	57		 push	 edi

; 644  : 	ioFireWeaponItem *pFire = ToFireWeaponItem( GetOwnerItem() );

  0000b	ff b3 a4 02 00
	00		 push	 DWORD PTR [ebx+676]
  00011	e8 00 00 00 00	 call	 ?ToFireWeaponItem@@YAPAVioFireWeaponItem@@PAVioItem@@@Z ; ToFireWeaponItem

; 645  : 	ioLaserItem *pLaser = ToLaserItem( GetOwnerItem() );

  00016	ff b3 a4 02 00
	00		 push	 DWORD PTR [ebx+676]
  0001c	8b f8		 mov	 edi, eax
  0001e	e8 00 00 00 00	 call	 ?ToLaserItem@@YAPAVioLaserItem@@PAVioItem@@@Z ; ToLaserItem

; 646  : 	ioBowItem *pBow = ToBowItem( GetOwnerItem() );

  00023	ff b3 a4 02 00
	00		 push	 DWORD PTR [ebx+676]
  00029	8b f0		 mov	 esi, eax
  0002b	e8 00 00 00 00	 call	 ?ToBowItem@@YAPAVioBowItem@@PAVioItem@@@Z ; ToBowItem
  00030	8b c8		 mov	 ecx, eax

; 647  : 	if( pFire )

  00032	33 c0		 xor	 eax, eax
  00034	83 c4 0c	 add	 esp, 12			; 0000000cH
  00037	89 4d fc	 mov	 DWORD PTR _pBow$[ebp], ecx
  0003a	3b f8		 cmp	 edi, eax
  0003c	74 13		 je	 SHORT $LN8@OnSkillEnd

; 648  : 	{
; 649  : 		pFire->SetAimedSkillUse( false );

  0003e	50		 push	 eax
  0003f	8b cf		 mov	 ecx, edi
  00041	e8 00 00 00 00	 call	 ?SetAimedSkillUse@ioFireWeaponItem@@QAEX_N@Z ; ioFireWeaponItem::SetAimedSkillUse

; 650  : 		pFire->SetAimedDirSet( false );

  00046	6a 00		 push	 0
  00048	8b cf		 mov	 ecx, edi
  0004a	e8 00 00 00 00	 call	 ?SetAimedDirSet@ioFireWeaponItem@@QAEX_N@Z ; ioFireWeaponItem::SetAimedDirSet
  0004f	eb 28		 jmp	 SHORT $LN4@OnSkillEnd
$LN8@OnSkillEnd:

; 651  : 	}
; 652  : 	else if( pLaser )

  00051	3b f0		 cmp	 esi, eax
  00053	74 10		 je	 SHORT $LN6@OnSkillEnd

; 653  : 	{
; 654  : 		pLaser->SetNoneState( pChar );

  00055	8b 16		 mov	 edx, DWORD PTR [esi]
  00057	50		 push	 eax
  00058	ff 75 08	 push	 DWORD PTR _pChar$[ebp]
  0005b	8b ce		 mov	 ecx, esi
  0005d	ff 92 4c 01 00
	00		 call	 DWORD PTR [edx+332]
  00063	eb 14		 jmp	 SHORT $LN4@OnSkillEnd
$LN6@OnSkillEnd:

; 655  : 	}
; 656  : 	else if( pBow )

  00065	3b c8		 cmp	 ecx, eax
  00067	74 10		 je	 SHORT $LN4@OnSkillEnd

; 657  : 	{
; 658  : 		pBow->SetAimedSkillUse( false );

  00069	50		 push	 eax
  0006a	e8 00 00 00 00	 call	 ?SetAimedSkillUse@ioBowItem@@QAEX_N@Z ; ioBowItem::SetAimedSkillUse

; 659  : 		pBow->SetAimedDirSet( false );

  0006f	8b 4d fc	 mov	 ecx, DWORD PTR _pBow$[ebp]
  00072	6a 00		 push	 0
  00074	e8 00 00 00 00	 call	 ?SetAimedDirSet@ioBowItem@@QAEX_N@Z ; ioBowItem::SetAimedDirSet
$LN4@OnSkillEnd:

; 660  : 	}
; 661  : 	m_vSkillDir = D3DXVECTOR3( 0.0f, 0.0f, 0.0f );

  00079	0f 57 c0	 xorps	 xmm0, xmm0

; 662  : 
; 663  : 	ioAttackSkill::OnSkillEnd( pChar );

  0007c	ff 75 08	 push	 DWORD PTR _pChar$[ebp]
  0007f	f3 0f 11 45 f0	 movss	 DWORD PTR $T601593[ebp], xmm0
  00084	f3 0f 11 45 f4	 movss	 DWORD PTR $T601593[ebp+4], xmm0
  00089	f3 0f 11 45 f8	 movss	 DWORD PTR $T601593[ebp+8], xmm0
  0008e	8d bb e4 10 00
	00		 lea	 edi, DWORD PTR [ebx+4324]
  00094	8d 75 f0	 lea	 esi, DWORD PTR $T601593[ebp]
  00097	a5		 movsd
  00098	a5		 movsd
  00099	8b cb		 mov	 ecx, ebx
  0009b	a5		 movsd
  0009c	e8 00 00 00 00	 call	 ?OnSkillEnd@ioAttackSkill@@UAEXPAVioBaseChar@@@Z ; ioAttackSkill::OnSkillEnd

; 664  : 
; 665  : 	if( GetOwnerItem() )

  000a1	8b 8b a4 02 00
	00		 mov	 ecx, DWORD PTR [ebx+676]
  000a7	85 c9		 test	 ecx, ecx
  000a9	74 08		 je	 SHORT $LN3@OnSkillEnd

; 666  : 		GetOwnerItem()->ClearCurChargeRateForSkill();

  000ab	8b 01		 mov	 eax, DWORD PTR [ecx]
  000ad	ff 90 84 00 00
	00		 call	 DWORD PTR [eax+132]
$LN3@OnSkillEnd:

; 667  : 
; 668  : 	// 기본무기 장착
; 669  : 	if( m_bUseItemMesh )

  000b3	80 bb 08 0f 00
	00 00		 cmp	 BYTE PTR [ebx+3848], 0
  000ba	74 0c		 je	 SHORT $LN2@OnSkillEnd

; 670  : 	{
; 671  : 		pChar->ShowWeaponItemMesh( true );

  000bc	8b 4d 08	 mov	 ecx, DWORD PTR _pChar$[ebp]
  000bf	6a 00		 push	 0
  000c1	6a 01		 push	 1
  000c3	e8 00 00 00 00	 call	 ?ShowWeaponItemMesh@ioBaseChar@@QAEX_N0@Z ; ioBaseChar::ShowWeaponItemMesh
$LN2@OnSkillEnd:

; 672  : 	}
; 673  : 
; 674  : 	if( !m_HandMesh.IsEmpty() )

  000c8	8d b3 f8 0e 00
	00		 lea	 esi, DWORD PTR [ebx+3832]
  000ce	8b ce		 mov	 ecx, esi
  000d0	ff 15 00 00 00
	00		 call	 DWORD PTR __imp_?IsEmpty@ioHashString@@QBE_NXZ
  000d6	84 c0		 test	 al, al
  000d8	75 14		 jne	 SHORT $LN1@OnSkillEnd

; 675  : 	{
; 676  : 		pChar->RestoreSkillWeaponMesh( this, m_HandMesh, m_bVisibleEquipMesh );

  000da	0f b6 83 09 0f
	00 00		 movzx	 eax, BYTE PTR [ebx+3849]
  000e1	8b 4d 08	 mov	 ecx, DWORD PTR _pChar$[ebp]
  000e4	6a 00		 push	 0
  000e6	50		 push	 eax
  000e7	56		 push	 esi
  000e8	53		 push	 ebx
  000e9	e8 00 00 00 00	 call	 ?RestoreSkillWeaponMesh@ioBaseChar@@QAE_NPAVioSkill@@ABVioHashString@@_N2@Z ; ioBaseChar::RestoreSkillWeaponMesh
$LN1@OnSkillEnd:

; 677  : 	}
; 678  : 	m_bSetHandMesh = false;

  000ee	5f		 pop	 edi
  000ef	5e		 pop	 esi
  000f0	c6 83 0a 0f 00
	00 00		 mov	 BYTE PTR [ebx+3850], 0
  000f7	5b		 pop	 ebx

; 679  : }

  000f8	c9		 leave
  000f9	c2 04 00	 ret	 4
?OnSkillEnd@ioFullShotSkill@@UAEXPAVioBaseChar@@@Z ENDP	; ioFullShotSkill::OnSkillEnd
_TEXT	ENDS
PUBLIC	?IsUseAutoTargetValue@ioFullShotSkill@@UAE_NXZ	; ioFullShotSkill::IsUseAutoTargetValue
EXTRN	?IsAimedState@ioBowItem@@QAE_NXZ:PROC		; ioBowItem::IsAimedState
EXTRN	?IsAimedState@ioLaserItem@@QAE_NXZ:PROC		; ioLaserItem::IsAimedState
EXTRN	?IsAimedState@ioFireWeaponItem@@QAE_NXZ:PROC	; ioFireWeaponItem::IsAimedState
; Function compile flags: /Ogsp
;	COMDAT ?IsUseAutoTargetValue@ioFullShotSkill@@UAE_NXZ
_TEXT	SEGMENT
_bResult$ = -1						; size = 1
?IsUseAutoTargetValue@ioFullShotSkill@@UAE_NXZ PROC	; ioFullShotSkill::IsUseAutoTargetValue, COMDAT
; _this$ = ecx

; 682  : {

  00000	55		 push	 ebp
  00001	8b ec		 mov	 ebp, esp
  00003	51		 push	 ecx
  00004	56		 push	 esi
  00005	8b f1		 mov	 esi, ecx

; 683  : 	if( !m_bUseAutoTargetValue )

  00007	80 be e0 02 00
	00 00		 cmp	 BYTE PTR [esi+736], 0
  0000e	75 07		 jne	 SHORT $LN9@IsUseAutoT

; 684  : 		return false;

  00010	32 c0		 xor	 al, al
  00012	e9 81 00 00 00	 jmp	 $LN10@IsUseAutoT
$LN9@IsUseAutoT:
  00017	53		 push	 ebx
  00018	57		 push	 edi

; 685  : 
; 686  : 	bool bResult = true;
; 687  : 
; 688  : 	ioFireWeaponItem *pFire = ToFireWeaponItem( GetOwnerItem() );

  00019	ff b6 a4 02 00
	00		 push	 DWORD PTR [esi+676]
  0001f	c6 45 ff 01	 mov	 BYTE PTR _bResult$[ebp], 1
  00023	e8 00 00 00 00	 call	 ?ToFireWeaponItem@@YAPAVioFireWeaponItem@@PAVioItem@@@Z ; ToFireWeaponItem

; 689  : 	ioLaserItem *pLaser = ToLaserItem( GetOwnerItem() );

  00028	ff b6 a4 02 00
	00		 push	 DWORD PTR [esi+676]
  0002e	8b f8		 mov	 edi, eax
  00030	e8 00 00 00 00	 call	 ?ToLaserItem@@YAPAVioLaserItem@@PAVioItem@@@Z ; ToLaserItem

; 690  : 	ioBowItem *pBow = ToBowItem( GetOwnerItem() );

  00035	ff b6 a4 02 00
	00		 push	 DWORD PTR [esi+676]
  0003b	8b d8		 mov	 ebx, eax
  0003d	e8 00 00 00 00	 call	 ?ToBowItem@@YAPAVioBowItem@@PAVioItem@@@Z ; ToBowItem
  00042	83 c4 0c	 add	 esp, 12			; 0000000cH
  00045	8b f0		 mov	 esi, eax

; 691  : 	if( pFire )

  00047	85 ff		 test	 edi, edi
  00049	74 14		 je	 SHORT $LN8@IsUseAutoT

; 692  : 	{
; 693  : 		if( pFire->IsAimedState() && pFire->GetAimedDirSet() )

  0004b	8b cf		 mov	 ecx, edi
  0004d	e8 00 00 00 00	 call	 ?IsAimedState@ioFireWeaponItem@@QAE_NXZ ; ioFireWeaponItem::IsAimedState
  00052	84 c0		 test	 al, al
  00054	74 3d		 je	 SHORT $LN24@IsUseAutoT
  00056	80 bf ed 1c 00
	00 00		 cmp	 BYTE PTR [edi+7405], 0

; 694  : 		{
; 695  : 			bResult = false;
; 696  : 		}
; 697  : 	}

  0005d	eb 2e		 jmp	 SHORT $LN25@IsUseAutoT
$LN8@IsUseAutoT:

; 698  : 	else if( pLaser )

  0005f	85 db		 test	 ebx, ebx
  00061	74 14		 je	 SHORT $LN5@IsUseAutoT

; 699  : 	{
; 700  : 		if( pLaser->IsAimedState() && pLaser->GetAimedDirSet() )

  00063	8b cb		 mov	 ecx, ebx
  00065	e8 00 00 00 00	 call	 ?IsAimedState@ioLaserItem@@QAE_NXZ ; ioLaserItem::IsAimedState
  0006a	84 c0		 test	 al, al
  0006c	74 25		 je	 SHORT $LN24@IsUseAutoT
  0006e	80 bb 4d 1c 00
	00 00		 cmp	 BYTE PTR [ebx+7245], 0

; 701  : 			bResult = false;
; 702  : 	}

  00075	eb 16		 jmp	 SHORT $LN25@IsUseAutoT
$LN5@IsUseAutoT:

; 703  : 	else if( pBow )

  00077	85 f6		 test	 esi, esi
  00079	74 18		 je	 SHORT $LN24@IsUseAutoT

; 704  : 	{
; 705  : 		if( pBow->IsAimedState() && pBow->GetAimedDirSet() )

  0007b	8b ce		 mov	 ecx, esi
  0007d	e8 00 00 00 00	 call	 ?IsAimedState@ioBowItem@@QAE_NXZ ; ioBowItem::IsAimedState
  00082	84 c0		 test	 al, al
  00084	74 0d		 je	 SHORT $LN24@IsUseAutoT
  00086	80 be 8d 1c 00
	00 00		 cmp	 BYTE PTR [esi+7309], 0
$LN25@IsUseAutoT:
  0008d	74 04		 je	 SHORT $LN24@IsUseAutoT

; 706  : 			bResult = false;

  0008f	c6 45 ff 00	 mov	 BYTE PTR _bResult$[ebp], 0
$LN24@IsUseAutoT:

; 707  : 	}
; 708  : 
; 709  : 	return bResult;

  00093	8a 45 ff	 mov	 al, BYTE PTR _bResult$[ebp]
  00096	5f		 pop	 edi
  00097	5b		 pop	 ebx
$LN10@IsUseAutoT:
  00098	5e		 pop	 esi

; 710  : }

  00099	c9		 leave
  0009a	c3		 ret	 0
?IsUseAutoTargetValue@ioFullShotSkill@@UAE_NXZ ENDP	; ioFullShotSkill::IsUseAutoTargetValue
_TEXT	ENDS
PUBLIC	?begin@?$vector@UBulletInfo@@V?$allocator@UBulletInfo@@@std@@@std@@QAE?AV?$_Vector_iterator@V?$_Vector_val@UBulletInfo@@V?$allocator@UBulletInfo@@@std@@@std@@@2@XZ ; std::vector<BulletInfo,std::allocator<BulletInfo> >::begin
; Function compile flags: /Ogsp
; File c:\program files (x86)\microsoft visual studio 10.0\vc\include\vector
;	COMDAT ?begin@?$vector@UBulletInfo@@V?$allocator@UBulletInfo@@@std@@@std@@QAE?AV?$_Vector_iterator@V?$_Vector_val@UBulletInfo@@V?$allocator@UBulletInfo@@@std@@@std@@@2@XZ
_TEXT	SEGMENT
___$ReturnUdt$ = 8					; size = 4
?begin@?$vector@UBulletInfo@@V?$allocator@UBulletInfo@@@std@@@std@@QAE?AV?$_Vector_iterator@V?$_Vector_val@UBulletInfo@@V?$allocator@UBulletInfo@@@std@@@std@@@2@XZ PROC ; std::vector<BulletInfo,std::allocator<BulletInfo> >::begin, COMDAT
; _this$ = ecx

; 781  : 		{	// return iterator for beginning of mutable sequence

  00000	55		 push	 ebp
  00001	8b ec		 mov	 ebp, esp

; 782  : 		return (iterator(this->_Myfirst, this));

  00003	8b 09		 mov	 ecx, DWORD PTR [ecx]
  00005	8b 45 08	 mov	 eax, DWORD PTR ___$ReturnUdt$[ebp]
  00008	89 08		 mov	 DWORD PTR [eax], ecx

; 783  : 		}

  0000a	5d		 pop	 ebp
  0000b	c2 04 00	 ret	 4
?begin@?$vector@UBulletInfo@@V?$allocator@UBulletInfo@@@std@@@std@@QAE?AV?$_Vector_iterator@V?$_Vector_val@UBulletInfo@@V?$allocator@UBulletInfo@@@std@@@std@@@2@XZ ENDP ; std::vector<BulletInfo,std::allocator<BulletInfo> >::begin
_TEXT	ENDS
PUBLIC	?begin@?$vector@UBulletInfo@@V?$allocator@UBulletInfo@@@std@@@std@@QBE?AV?$_Vector_const_iterator@V?$_Vector_val@UBulletInfo@@V?$allocator@UBulletInfo@@@std@@@std@@@2@XZ ; std::vector<BulletInfo,std::allocator<BulletInfo> >::begin
; Function compile flags: /Ogsp
;	COMDAT ?begin@?$vector@UBulletInfo@@V?$allocator@UBulletInfo@@@std@@@std@@QBE?AV?$_Vector_const_iterator@V?$_Vector_val@UBulletInfo@@V?$allocator@UBulletInfo@@@std@@@std@@@2@XZ
_TEXT	SEGMENT
___$ReturnUdt$ = 8					; size = 4
?begin@?$vector@UBulletInfo@@V?$allocator@UBulletInfo@@@std@@@std@@QBE?AV?$_Vector_const_iterator@V?$_Vector_val@UBulletInfo@@V?$allocator@UBulletInfo@@@std@@@std@@@2@XZ PROC ; std::vector<BulletInfo,std::allocator<BulletInfo> >::begin, COMDAT
; _this$ = ecx

; 786  : 		{	// return iterator for beginning of nonmutable sequence

  00000	55		 push	 ebp
  00001	8b ec		 mov	 ebp, esp

; 787  : 		return (const_iterator(this->_Myfirst, this));

  00003	8b 09		 mov	 ecx, DWORD PTR [ecx]
  00005	8b 45 08	 mov	 eax, DWORD PTR ___$ReturnUdt$[ebp]
  00008	89 08		 mov	 DWORD PTR [eax], ecx

; 788  : 		}

  0000a	5d		 pop	 ebp
  0000b	c2 04 00	 ret	 4
?begin@?$vector@UBulletInfo@@V?$allocator@UBulletInfo@@@std@@@std@@QBE?AV?$_Vector_const_iterator@V?$_Vector_val@UBulletInfo@@V?$allocator@UBulletInfo@@@std@@@std@@@2@XZ ENDP ; std::vector<BulletInfo,std::allocator<BulletInfo> >::begin
_TEXT	ENDS
PUBLIC	?end@?$vector@UBulletInfo@@V?$allocator@UBulletInfo@@@std@@@std@@QAE?AV?$_Vector_iterator@V?$_Vector_val@UBulletInfo@@V?$allocator@UBulletInfo@@@std@@@std@@@2@XZ ; std::vector<BulletInfo,std::allocator<BulletInfo> >::end
; Function compile flags: /Ogsp
;	COMDAT ?end@?$vector@UBulletInfo@@V?$allocator@UBulletInfo@@@std@@@std@@QAE?AV?$_Vector_iterator@V?$_Vector_val@UBulletInfo@@V?$allocator@UBulletInfo@@@std@@@std@@@2@XZ
_TEXT	SEGMENT
___$ReturnUdt$ = 8					; size = 4
?end@?$vector@UBulletInfo@@V?$allocator@UBulletInfo@@@std@@@std@@QAE?AV?$_Vector_iterator@V?$_Vector_val@UBulletInfo@@V?$allocator@UBulletInfo@@@std@@@std@@@2@XZ PROC ; std::vector<BulletInfo,std::allocator<BulletInfo> >::end, COMDAT
; _this$ = ecx

; 791  : 		{	// return iterator for end of mutable sequence

  00000	55		 push	 ebp
  00001	8b ec		 mov	 ebp, esp

; 792  : 		return (iterator(this->_Mylast, this));

  00003	8b 49 04	 mov	 ecx, DWORD PTR [ecx+4]
  00006	8b 45 08	 mov	 eax, DWORD PTR ___$ReturnUdt$[ebp]
  00009	89 08		 mov	 DWORD PTR [eax], ecx

; 793  : 		}

  0000b	5d		 pop	 ebp
  0000c	c2 04 00	 ret	 4
?end@?$vector@UBulletInfo@@V?$allocator@UBulletInfo@@@std@@@std@@QAE?AV?$_Vector_iterator@V?$_Vector_val@UBulletInfo@@V?$allocator@UBulletInfo@@@std@@@std@@@2@XZ ENDP ; std::vector<BulletInfo,std::allocator<BulletInfo> >::end
_TEXT	ENDS
PUBLIC	?end@?$vector@UBulletInfo@@V?$allocator@UBulletInfo@@@std@@@std@@QBE?AV?$_Vector_const_iterator@V?$_Vector_val@UBulletInfo@@V?$allocator@UBulletInfo@@@std@@@std@@@2@XZ ; std::vector<BulletInfo,std::allocator<BulletInfo> >::end
; Function compile flags: /Ogsp
;	COMDAT ?end@?$vector@UBulletInfo@@V?$allocator@UBulletInfo@@@std@@@std@@QBE?AV?$_Vector_const_iterator@V?$_Vector_val@UBulletInfo@@V?$allocator@UBulletInfo@@@std@@@std@@@2@XZ
_TEXT	SEGMENT
___$ReturnUdt$ = 8					; size = 4
?end@?$vector@UBulletInfo@@V?$allocator@UBulletInfo@@@std@@@std@@QBE?AV?$_Vector_const_iterator@V?$_Vector_val@UBulletInfo@@V?$allocator@UBulletInfo@@@std@@@std@@@2@XZ PROC ; std::vector<BulletInfo,std::allocator<BulletInfo> >::end, COMDAT
; _this$ = ecx

; 796  : 		{	// return iterator for end of nonmutable sequence

  00000	55		 push	 ebp
  00001	8b ec		 mov	 ebp, esp

; 797  : 		return (const_iterator(this->_Mylast, this));

  00003	8b 49 04	 mov	 ecx, DWORD PTR [ecx+4]
  00006	8b 45 08	 mov	 eax, DWORD PTR ___$ReturnUdt$[ebp]
  00009	89 08		 mov	 DWORD PTR [eax], ecx

; 798  : 		}

  0000b	5d		 pop	 ebp
  0000c	c2 04 00	 ret	 4
?end@?$vector@UBulletInfo@@V?$allocator@UBulletInfo@@@std@@@std@@QBE?AV?$_Vector_const_iterator@V?$_Vector_val@UBulletInfo@@V?$allocator@UBulletInfo@@@std@@@std@@@2@XZ ENDP ; std::vector<BulletInfo,std::allocator<BulletInfo> >::end
_TEXT	ENDS
PUBLIC	??0?$_Vector_val@UBulletInfo@@V?$allocator@UBulletInfo@@@std@@@std@@QAE@V?$allocator@UBulletInfo@@@1@@Z ; std::_Vector_val<BulletInfo,std::allocator<BulletInfo> >::_Vector_val<BulletInfo,std::allocator<BulletInfo> >
; Function compile flags: /Ogsp
;	COMDAT ??0?$_Vector_val@UBulletInfo@@V?$allocator@UBulletInfo@@@std@@@std@@QAE@V?$allocator@UBulletInfo@@@1@@Z
_TEXT	SEGMENT
__Al$ = 8						; size = 1
??0?$_Vector_val@UBulletInfo@@V?$allocator@UBulletInfo@@@std@@@std@@QAE@V?$allocator@UBulletInfo@@@1@@Z PROC ; std::_Vector_val<BulletInfo,std::allocator<BulletInfo> >::_Vector_val<BulletInfo,std::allocator<BulletInfo> >, COMDAT
; _this$ = ecx

; 426  : 		{	// construct allocator from _Al

  00000	8b c1		 mov	 eax, ecx

; 427  : 		_Myfirst = 0;

  00002	33 c9		 xor	 ecx, ecx
  00004	89 08		 mov	 DWORD PTR [eax], ecx

; 428  : 		_Mylast = 0;

  00006	89 48 04	 mov	 DWORD PTR [eax+4], ecx

; 429  : 		_Myend = 0;

  00009	89 48 08	 mov	 DWORD PTR [eax+8], ecx

; 430  : 		}

  0000c	c2 04 00	 ret	 4
??0?$_Vector_val@UBulletInfo@@V?$allocator@UBulletInfo@@@std@@@std@@QAE@V?$allocator@UBulletInfo@@@1@@Z ENDP ; std::_Vector_val<BulletInfo,std::allocator<BulletInfo> >::_Vector_val<BulletInfo,std::allocator<BulletInfo> >
_TEXT	ENDS
PUBLIC	?_Make_iter@?$vector@UBulletInfo@@V?$allocator@UBulletInfo@@@std@@@std@@QBE?AV?$_Vector_iterator@V?$_Vector_val@UBulletInfo@@V?$allocator@UBulletInfo@@@std@@@std@@@2@V?$_Vector_const_iterator@V?$_Vector_val@UBulletInfo@@V?$allocator@UBulletInfo@@@std@@@std@@@2@@Z ; std::vector<BulletInfo,std::allocator<BulletInfo> >::_Make_iter
; Function compile flags: /Ogsp
;	COMDAT ?_Make_iter@?$vector@UBulletInfo@@V?$allocator@UBulletInfo@@@std@@@std@@QBE?AV?$_Vector_iterator@V?$_Vector_val@UBulletInfo@@V?$allocator@UBulletInfo@@@std@@@std@@@2@V?$_Vector_const_iterator@V?$_Vector_val@UBulletInfo@@V?$allocator@UBulletInfo@@@std@@@std@@@2@@Z
_TEXT	SEGMENT
___$ReturnUdt$ = 8					; size = 4
__Where$ = 12						; size = 4
?_Make_iter@?$vector@UBulletInfo@@V?$allocator@UBulletInfo@@@std@@@std@@QBE?AV?$_Vector_iterator@V?$_Vector_val@UBulletInfo@@V?$allocator@UBulletInfo@@@std@@@std@@@2@V?$_Vector_const_iterator@V?$_Vector_val@UBulletInfo@@V?$allocator@UBulletInfo@@@std@@@std@@@2@@Z PROC ; std::vector<BulletInfo,std::allocator<BulletInfo> >::_Make_iter, COMDAT
; _this$ = ecx

; 801  : 		{	// make iterator from const_iterator

  00000	55		 push	 ebp
  00001	8b ec		 mov	 ebp, esp

; 802  : 		return (iterator(_Where._Ptr, this));

  00003	8b 45 08	 mov	 eax, DWORD PTR ___$ReturnUdt$[ebp]
  00006	8b 4d 0c	 mov	 ecx, DWORD PTR __Where$[ebp]
  00009	89 08		 mov	 DWORD PTR [eax], ecx

; 803  : 		}

  0000b	5d		 pop	 ebp
  0000c	c2 08 00	 ret	 8
?_Make_iter@?$vector@UBulletInfo@@V?$allocator@UBulletInfo@@@std@@@std@@QBE?AV?$_Vector_iterator@V?$_Vector_val@UBulletInfo@@V?$allocator@UBulletInfo@@@std@@@std@@@2@V?$_Vector_const_iterator@V?$_Vector_val@UBulletInfo@@V?$allocator@UBulletInfo@@@std@@@std@@@2@@Z ENDP ; std::vector<BulletInfo,std::allocator<BulletInfo> >::_Make_iter
_TEXT	ENDS
PUBLIC	?max_size@?$vector@UBulletInfo@@V?$allocator@UBulletInfo@@@std@@@std@@QBEIXZ ; std::vector<BulletInfo,std::allocator<BulletInfo> >::max_size
; Function compile flags: /Ogsp
;	COMDAT ?max_size@?$vector@UBulletInfo@@V?$allocator@UBulletInfo@@@std@@@std@@QBEIXZ
_TEXT	SEGMENT
?max_size@?$vector@UBulletInfo@@V?$allocator@UBulletInfo@@@std@@@std@@QBEIXZ PROC ; std::vector<BulletInfo,std::allocator<BulletInfo> >::max_size, COMDAT
; _this$ = ecx

; 884  : 		return (this->_Alval.max_size());

  00000	b8 cc cc cc 0c	 mov	 eax, 214748364		; 0cccccccH

; 885  : 		}

  00005	c3		 ret	 0
?max_size@?$vector@UBulletInfo@@V?$allocator@UBulletInfo@@@std@@@std@@QBEIXZ ENDP ; std::vector<BulletInfo,std::allocator<BulletInfo> >::max_size
_TEXT	ENDS
PUBLIC	?_Grow_to@?$vector@UBulletInfo@@V?$allocator@UBulletInfo@@@std@@@std@@IBEII@Z ; std::vector<BulletInfo,std::allocator<BulletInfo> >::_Grow_to
; Function compile flags: /Ogsp
;	COMDAT ?_Grow_to@?$vector@UBulletInfo@@V?$allocator@UBulletInfo@@@std@@@std@@IBEII@Z
_TEXT	SEGMENT
__Count$ = 8						; size = 4
?_Grow_to@?$vector@UBulletInfo@@V?$allocator@UBulletInfo@@@std@@@std@@IBEII@Z PROC ; std::vector<BulletInfo,std::allocator<BulletInfo> >::_Grow_to, COMDAT
; _this$ = ecx

; 1274 : 		{	// grow by 50% or at least to _Count

  00000	55		 push	 ebp
  00001	8b ec		 mov	 ebp, esp

; 1275 : 		size_type _Capacity = capacity();

  00003	8b 41 08	 mov	 eax, DWORD PTR [ecx+8]
  00006	2b 01		 sub	 eax, DWORD PTR [ecx]
  00008	6a 14		 push	 20			; 00000014H
  0000a	99		 cdq
  0000b	59		 pop	 ecx
  0000c	f7 f9		 idiv	 ecx

; 1276 : 
; 1277 : 		_Capacity = max_size() - _Capacity / 2 < _Capacity
; 1278 : 			? 0 : _Capacity + _Capacity / 2;	// try to grow by 50%

  0000e	ba cc cc cc 0c	 mov	 edx, 214748364		; 0cccccccH
  00013	8b c8		 mov	 ecx, eax
  00015	d1 e9		 shr	 ecx, 1
  00017	2b d1		 sub	 edx, ecx
  00019	3b d0		 cmp	 edx, eax
  0001b	73 04		 jae	 SHORT $LN4@Grow_to
  0001d	33 c0		 xor	 eax, eax
  0001f	eb 02		 jmp	 SHORT $LN5@Grow_to
$LN4@Grow_to:
  00021	03 c1		 add	 eax, ecx
$LN5@Grow_to:

; 1279 : 		if (_Capacity < _Count)

  00023	3b 45 08	 cmp	 eax, DWORD PTR __Count$[ebp]

; 1280 : 			_Capacity = _Count;

  00026	0f 42 45 08	 cmovb	 eax, DWORD PTR __Count$[ebp]

; 1281 : 		return (_Capacity);
; 1282 : 		}

  0002a	5d		 pop	 ebp
  0002b	c2 04 00	 ret	 4
?_Grow_to@?$vector@UBulletInfo@@V?$allocator@UBulletInfo@@@std@@@std@@IBEII@Z ENDP ; std::vector<BulletInfo,std::allocator<BulletInfo> >::_Grow_to
_TEXT	ENDS
PUBLIC	?allocate@?$allocator@UBulletInfo@@@std@@QAEPAUBulletInfo@@I@Z ; std::allocator<BulletInfo>::allocate
; Function compile flags: /Ogsp
; File c:\program files (x86)\microsoft visual studio 10.0\vc\include\xmemory
;	COMDAT ?allocate@?$allocator@UBulletInfo@@@std@@QAEPAUBulletInfo@@I@Z
_TEXT	SEGMENT
__Count$ = 8						; size = 4
?allocate@?$allocator@UBulletInfo@@@std@@QAEPAUBulletInfo@@I@Z PROC ; std::allocator<BulletInfo>::allocate, COMDAT
; _this$ = ecx

; 186  : 		{	// allocate array of _Count elements

  00000	55		 push	 ebp
  00001	8b ec		 mov	 ebp, esp

; 187  : 		return (_Allocate(_Count, (pointer)0));

  00003	6a 00		 push	 0
  00005	ff 75 08	 push	 DWORD PTR __Count$[ebp]
  00008	e8 00 00 00 00	 call	 ??$_Allocate@UBulletInfo@@@std@@YAPAUBulletInfo@@IPAU1@@Z ; std::_Allocate<BulletInfo>
  0000d	59		 pop	 ecx
  0000e	59		 pop	 ecx

; 188  : 		}

  0000f	5d		 pop	 ebp
  00010	c2 04 00	 ret	 4
?allocate@?$allocator@UBulletInfo@@@std@@QAEPAUBulletInfo@@I@Z ENDP ; std::allocator<BulletInfo>::allocate
_TEXT	ENDS
PUBLIC	??8?$_Vector_const_iterator@V?$_Vector_val@UBulletInfo@@V?$allocator@UBulletInfo@@@std@@@std@@@std@@QBE_NABV01@@Z ; std::_Vector_const_iterator<std::_Vector_val<BulletInfo,std::allocator<BulletInfo> > >::operator==
; Function compile flags: /Ogsp
; File c:\program files (x86)\microsoft visual studio 10.0\vc\include\vector
;	COMDAT ??8?$_Vector_const_iterator@V?$_Vector_val@UBulletInfo@@V?$allocator@UBulletInfo@@@std@@@std@@@std@@QBE_NABV01@@Z
_TEXT	SEGMENT
__Right$ = 8						; size = 4
??8?$_Vector_const_iterator@V?$_Vector_val@UBulletInfo@@V?$allocator@UBulletInfo@@@std@@@std@@@std@@QBE_NABV01@@Z PROC ; std::_Vector_const_iterator<std::_Vector_val<BulletInfo,std::allocator<BulletInfo> > >::operator==, COMDAT
; _this$ = ecx

; 201  : 		{	// test for iterator equality

  00000	55		 push	 ebp
  00001	8b ec		 mov	 ebp, esp

; 202  : 		_Compat(_Right);
; 203  : 		return (this->_Ptr == _Right._Ptr);

  00003	8b 01		 mov	 eax, DWORD PTR [ecx]
  00005	8b 4d 08	 mov	 ecx, DWORD PTR __Right$[ebp]
  00008	2b 01		 sub	 eax, DWORD PTR [ecx]
  0000a	f7 d8		 neg	 eax
  0000c	1b c0		 sbb	 eax, eax
  0000e	40		 inc	 eax

; 204  : 		}

  0000f	5d		 pop	 ebp
  00010	c2 04 00	 ret	 4
??8?$_Vector_const_iterator@V?$_Vector_val@UBulletInfo@@V?$allocator@UBulletInfo@@@std@@@std@@@std@@QBE_NABV01@@Z ENDP ; std::_Vector_const_iterator<std::_Vector_val<BulletInfo,std::allocator<BulletInfo> > >::operator==
_TEXT	ENDS
PUBLIC	__$ArrayPad$
PUBLIC	??$LoadBool_e@$0BB@@ioINILoader@@QAE_NAAY0BB@$$CBD_N@Z ; ioINILoader::LoadBool_e<17>
EXTRN	__imp_?LoadBool@ioINILoader@@QAE_NPBD_N@Z:PROC
; Function compile flags: /Ogsp
; File d:\lost saga for developer\youtube\tutorial\source\src\io3dengine\ioiniloader.h
;	COMDAT ??$LoadBool_e@$0BB@@ioINILoader@@QAE_NAAY0BB@$$CBD_N@Z
_TEXT	SEGMENT
__k$ = -28						; size = 17
__$ArrayPad$ = -4					; size = 4
_k$ = 8							; size = 4
_b$ = 12						; size = 1
??$LoadBool_e@$0BB@@ioINILoader@@QAE_NAAY0BB@$$CBD_N@Z PROC ; ioINILoader::LoadBool_e<17>, COMDAT
; _this$ = ecx

; 101  : 	{

  00000	55		 push	 ebp
  00001	8b ec		 mov	 ebp, esp
  00003	83 ec 1c	 sub	 esp, 28			; 0000001cH
  00006	a1 00 00 00 00	 mov	 eax, DWORD PTR ___security_cookie
  0000b	33 c5		 xor	 eax, ebp
  0000d	89 45 fc	 mov	 DWORD PTR __$ArrayPad$[ebp], eax
  00010	8b 45 08	 mov	 eax, DWORD PTR _k$[ebp]

; 102  : 		_ENCSTR(k, _k);

  00013	8a 10		 mov	 dl, BYTE PTR [eax]
  00015	56		 push	 esi
  00016	8b f1		 mov	 esi, ecx
  00018	84 d2		 test	 dl, dl
  0001a	0f 84 a7 01 00
	00		 je	 $LN96@LoadBool_e
  00020	80 f2 ed	 xor	 dl, -19			; ffffffedH
  00023	88 55 e4	 mov	 BYTE PTR __k$[ebp], dl
  00026	8a 50 01	 mov	 dl, BYTE PTR [eax+1]
  00029	84 d2		 test	 dl, dl
  0002b	0f 84 90 01 00
	00		 je	 $LN95@LoadBool_e
  00031	b1 ec		 mov	 cl, -20			; ffffffecH
  00033	32 d1		 xor	 dl, cl
  00035	88 55 e5	 mov	 BYTE PTR __k$[ebp+1], dl
  00038	8a 50 02	 mov	 dl, BYTE PTR [eax+2]
  0003b	84 d2		 test	 dl, dl
  0003d	0f 84 78 01 00
	00		 je	 $LN94@LoadBool_e
  00043	80 f2 eb	 xor	 dl, -21			; ffffffebH
  00046	88 55 e6	 mov	 BYTE PTR __k$[ebp+2], dl
  00049	8a 50 03	 mov	 dl, BYTE PTR [eax+3]
  0004c	84 d2		 test	 dl, dl
  0004e	0f 84 61 01 00
	00		 je	 $LN93@LoadBool_e
  00054	80 f2 ea	 xor	 dl, -22			; ffffffeaH
  00057	88 55 e7	 mov	 BYTE PTR __k$[ebp+3], dl
  0005a	8a 50 04	 mov	 dl, BYTE PTR [eax+4]
  0005d	84 d2		 test	 dl, dl
  0005f	0f 84 4a 01 00
	00		 je	 $LN92@LoadBool_e
  00065	80 f2 ed	 xor	 dl, -19			; ffffffedH
  00068	88 55 e8	 mov	 BYTE PTR __k$[ebp+4], dl
  0006b	8a 50 05	 mov	 dl, BYTE PTR [eax+5]
  0006e	84 d2		 test	 dl, dl
  00070	0f 84 34 01 00
	00		 je	 $LN91@LoadBool_e
  00076	32 d1		 xor	 dl, cl
  00078	88 55 e9	 mov	 BYTE PTR __k$[ebp+5], dl
  0007b	8a 50 06	 mov	 dl, BYTE PTR [eax+6]
  0007e	84 d2		 test	 dl, dl
  00080	0f 84 1e 01 00
	00		 je	 $LN90@LoadBool_e
  00086	80 f2 eb	 xor	 dl, -21			; ffffffebH
  00089	88 55 ea	 mov	 BYTE PTR __k$[ebp+6], dl
  0008c	8a 50 07	 mov	 dl, BYTE PTR [eax+7]
  0008f	84 d2		 test	 dl, dl
  00091	0f 84 07 01 00
	00		 je	 $LN89@LoadBool_e
  00097	80 f2 ea	 xor	 dl, -22			; ffffffeaH
  0009a	88 55 eb	 mov	 BYTE PTR __k$[ebp+7], dl
  0009d	8a 50 08	 mov	 dl, BYTE PTR [eax+8]
  000a0	84 d2		 test	 dl, dl
  000a2	0f 84 f0 00 00
	00		 je	 $LN88@LoadBool_e
  000a8	80 f2 ed	 xor	 dl, -19			; ffffffedH
  000ab	88 55 ec	 mov	 BYTE PTR __k$[ebp+8], dl
  000ae	8a 50 09	 mov	 dl, BYTE PTR [eax+9]
  000b1	84 d2		 test	 dl, dl
  000b3	0f 84 da 00 00
	00		 je	 $LN87@LoadBool_e
  000b9	32 d1		 xor	 dl, cl
  000bb	88 55 ed	 mov	 BYTE PTR __k$[ebp+9], dl
  000be	8a 50 0a	 mov	 dl, BYTE PTR [eax+10]
  000c1	84 d2		 test	 dl, dl
  000c3	0f 84 c4 00 00
	00		 je	 $LN86@LoadBool_e
  000c9	80 f2 eb	 xor	 dl, -21			; ffffffebH
  000cc	88 55 ee	 mov	 BYTE PTR __k$[ebp+10], dl
  000cf	8a 50 0b	 mov	 dl, BYTE PTR [eax+11]
  000d2	84 d2		 test	 dl, dl
  000d4	0f 84 ad 00 00
	00		 je	 $LN85@LoadBool_e
  000da	80 f2 ea	 xor	 dl, -22			; ffffffeaH
  000dd	88 55 ef	 mov	 BYTE PTR __k$[ebp+11], dl
  000e0	8a 50 0c	 mov	 dl, BYTE PTR [eax+12]
  000e3	84 d2		 test	 dl, dl
  000e5	0f 84 96 00 00
	00		 je	 $LN84@LoadBool_e
  000eb	80 f2 ed	 xor	 dl, -19			; ffffffedH
  000ee	88 55 f0	 mov	 BYTE PTR __k$[ebp+12], dl
  000f1	8a 50 0d	 mov	 dl, BYTE PTR [eax+13]
  000f4	84 d2		 test	 dl, dl
  000f6	0f 84 80 00 00
	00		 je	 $LN83@LoadBool_e
  000fc	32 d1		 xor	 dl, cl
  000fe	88 55 f1	 mov	 BYTE PTR __k$[ebp+13], dl
  00101	8a 50 0e	 mov	 dl, BYTE PTR [eax+14]
  00104	84 d2		 test	 dl, dl
  00106	74 6e		 je	 SHORT $LN82@LoadBool_e
  00108	80 f2 eb	 xor	 dl, -21			; ffffffebH
  0010b	88 55 f2	 mov	 BYTE PTR __k$[ebp+14], dl
  0010e	8a 50 0f	 mov	 dl, BYTE PTR [eax+15]
  00111	84 d2		 test	 dl, dl
  00113	74 5b		 je	 SHORT $LN81@LoadBool_e
  00115	80 f2 ea	 xor	 dl, -22			; ffffffeaH
  00118	80 78 10 00	 cmp	 BYTE PTR [eax+16], 0
  0011c	88 55 f3	 mov	 BYTE PTR __k$[ebp+15], dl
  0011f	0f 84 a6 00 00
	00		 je	 $LN1@LoadBool_e
  00125	8a 50 11	 mov	 dl, BYTE PTR [eax+17]
  00128	84 d2		 test	 dl, dl
  0012a	74 3f		 je	 SHORT $LN79@LoadBool_e
  0012c	32 d1		 xor	 dl, cl
  0012e	88 55 f5	 mov	 BYTE PTR __k$[ebp+17], dl
  00131	8a 50 12	 mov	 dl, BYTE PTR [eax+18]
  00134	84 d2		 test	 dl, dl
  00136	74 2d		 je	 SHORT $LN78@LoadBool_e
  00138	80 f2 eb	 xor	 dl, -21			; ffffffebH
  0013b	88 55 f6	 mov	 BYTE PTR __k$[ebp+18], dl
  0013e	8a 50 13	 mov	 dl, BYTE PTR [eax+19]
  00141	84 d2		 test	 dl, dl
  00143	74 1a		 je	 SHORT $LN77@LoadBool_e
  00145	8a 40 14	 mov	 al, BYTE PTR [eax+20]
  00148	80 f2 ea	 xor	 dl, -22			; ffffffeaH
  0014b	88 55 f7	 mov	 BYTE PTR __k$[ebp+19], dl
  0014e	84 c0		 test	 al, al
  00150	74 07		 je	 SHORT $LN76@LoadBool_e
  00152	34 ed		 xor	 al, -19			; ffffffedH
  00154	88 45 f8	 mov	 BYTE PTR __k$[ebp+20], al
  00157	eb 72		 jmp	 SHORT $LN1@LoadBool_e
$LN76@LoadBool_e:
  00159	c6 45 f8 ed	 mov	 BYTE PTR __k$[ebp+20], -19 ; ffffffedH
  0015d	eb 6c		 jmp	 SHORT $LN1@LoadBool_e
$LN77@LoadBool_e:
  0015f	c6 45 f7 ea	 mov	 BYTE PTR __k$[ebp+19], -22 ; ffffffeaH
  00163	eb 66		 jmp	 SHORT $LN1@LoadBool_e
$LN78@LoadBool_e:
  00165	c6 45 f6 eb	 mov	 BYTE PTR __k$[ebp+18], -21 ; ffffffebH
  00169	eb 60		 jmp	 SHORT $LN1@LoadBool_e
$LN79@LoadBool_e:
  0016b	88 4d f5	 mov	 BYTE PTR __k$[ebp+17], cl
  0016e	eb 5b		 jmp	 SHORT $LN1@LoadBool_e
$LN81@LoadBool_e:
  00170	c6 45 f3 ea	 mov	 BYTE PTR __k$[ebp+15], -22 ; ffffffeaH
  00174	eb 55		 jmp	 SHORT $LN1@LoadBool_e
$LN82@LoadBool_e:
  00176	c6 45 f2 eb	 mov	 BYTE PTR __k$[ebp+14], -21 ; ffffffebH
  0017a	eb 4f		 jmp	 SHORT $LN1@LoadBool_e
$LN83@LoadBool_e:
  0017c	88 4d f1	 mov	 BYTE PTR __k$[ebp+13], cl
  0017f	eb 4a		 jmp	 SHORT $LN1@LoadBool_e
$LN84@LoadBool_e:
  00181	c6 45 f0 ed	 mov	 BYTE PTR __k$[ebp+12], -19 ; ffffffedH
  00185	eb 44		 jmp	 SHORT $LN1@LoadBool_e
$LN85@LoadBool_e:
  00187	c6 45 ef ea	 mov	 BYTE PTR __k$[ebp+11], -22 ; ffffffeaH
  0018b	eb 3e		 jmp	 SHORT $LN1@LoadBool_e
$LN86@LoadBool_e:
  0018d	c6 45 ee eb	 mov	 BYTE PTR __k$[ebp+10], -21 ; ffffffebH
  00191	eb 38		 jmp	 SHORT $LN1@LoadBool_e
$LN87@LoadBool_e:
  00193	88 4d ed	 mov	 BYTE PTR __k$[ebp+9], cl
  00196	eb 33		 jmp	 SHORT $LN1@LoadBool_e
$LN88@LoadBool_e:
  00198	c6 45 ec ed	 mov	 BYTE PTR __k$[ebp+8], -19 ; ffffffedH
  0019c	eb 2d		 jmp	 SHORT $LN1@LoadBool_e
$LN89@LoadBool_e:
  0019e	c6 45 eb ea	 mov	 BYTE PTR __k$[ebp+7], -22 ; ffffffeaH
  001a2	eb 27		 jmp	 SHORT $LN1@LoadBool_e
$LN90@LoadBool_e:
  001a4	c6 45 ea eb	 mov	 BYTE PTR __k$[ebp+6], -21 ; ffffffebH
  001a8	eb 21		 jmp	 SHORT $LN1@LoadBool_e
$LN91@LoadBool_e:
  001aa	88 4d e9	 mov	 BYTE PTR __k$[ebp+5], cl
  001ad	eb 1c		 jmp	 SHORT $LN1@LoadBool_e
$LN92@LoadBool_e:
  001af	c6 45 e8 ed	 mov	 BYTE PTR __k$[ebp+4], -19 ; ffffffedH
  001b3	eb 16		 jmp	 SHORT $LN1@LoadBool_e
$LN93@LoadBool_e:
  001b5	c6 45 e7 ea	 mov	 BYTE PTR __k$[ebp+3], -22 ; ffffffeaH
  001b9	eb 10		 jmp	 SHORT $LN1@LoadBool_e
$LN94@LoadBool_e:
  001bb	c6 45 e6 eb	 mov	 BYTE PTR __k$[ebp+2], -21 ; ffffffebH
  001bf	eb 0a		 jmp	 SHORT $LN1@LoadBool_e
$LN95@LoadBool_e:
  001c1	c6 45 e5 ec	 mov	 BYTE PTR __k$[ebp+1], -20 ; ffffffecH
  001c5	eb 04		 jmp	 SHORT $LN1@LoadBool_e
$LN96@LoadBool_e:
  001c7	c6 45 e4 ed	 mov	 BYTE PTR __k$[ebp], -19	; ffffffedH
$LN1@LoadBool_e:
  001cb	6a 04		 push	 4
  001cd	8d 45 e4	 lea	 eax, DWORD PTR __k$[ebp]
  001d0	c6 45 f4 00	 mov	 BYTE PTR __k$[ebp+16], 0
  001d4	5a		 pop	 edx
$LL104@LoadBool_e:
  001d5	81 30 ed ec eb
	ea		 xor	 DWORD PTR [eax], -353637139 ; eaebecedH
  001db	83 c0 04	 add	 eax, 4
  001de	4a		 dec	 edx
  001df	75 f4		 jne	 SHORT $LL104@LoadBool_e

; 103  : 		return LoadBool(_k, b);

  001e1	ff 75 0c	 push	 DWORD PTR _b$[ebp]
  001e4	8d 45 e4	 lea	 eax, DWORD PTR __k$[ebp]
  001e7	50		 push	 eax
  001e8	8b ce		 mov	 ecx, esi
  001ea	ff 15 00 00 00
	00		 call	 DWORD PTR __imp_?LoadBool@ioINILoader@@QAE_NPBD_N@Z

; 104  : 	}

  001f0	8b 4d fc	 mov	 ecx, DWORD PTR __$ArrayPad$[ebp]
  001f3	33 cd		 xor	 ecx, ebp
  001f5	5e		 pop	 esi
  001f6	e8 00 00 00 00	 call	 @__security_check_cookie@4
  001fb	c9		 leave
  001fc	c2 08 00	 ret	 8
??$LoadBool_e@$0BB@@ioINILoader@@QAE_NAAY0BB@$$CBD_N@Z ENDP ; ioINILoader::LoadBool_e<17>
_TEXT	ENDS
PUBLIC	__$ArrayPad$
PUBLIC	??$LoadFloat_e@$09@ioINILoader@@QAEMAAY09$$CBDM@Z ; ioINILoader::LoadFloat_e<10>
EXTRN	__imp_?LoadFloat@ioINILoader@@QAEMPBDM@Z:PROC
; Function compile flags: /Ogsp
;	COMDAT ??$LoadFloat_e@$09@ioINILoader@@QAEMAAY09$$CBDM@Z
_TEXT	SEGMENT
__k$ = -20						; size = 10
__$ArrayPad$ = -4					; size = 4
_k$ = 8							; size = 4
_f$ = 12						; size = 4
??$LoadFloat_e@$09@ioINILoader@@QAEMAAY09$$CBDM@Z PROC	; ioINILoader::LoadFloat_e<10>, COMDAT
; _this$ = ecx

; 135  : 	{

  00000	55		 push	 ebp
  00001	8b ec		 mov	 ebp, esp
  00003	83 ec 14	 sub	 esp, 20			; 00000014H
  00006	a1 00 00 00 00	 mov	 eax, DWORD PTR ___security_cookie
  0000b	33 c5		 xor	 eax, ebp
  0000d	89 45 fc	 mov	 DWORD PTR __$ArrayPad$[ebp], eax
  00010	8b 45 08	 mov	 eax, DWORD PTR _k$[ebp]

; 136  : 		_ENCSTR(k, _k);

  00013	8a 10		 mov	 dl, BYTE PTR [eax]
  00015	84 d2		 test	 dl, dl
  00017	0f 84 0d 01 00
	00		 je	 $LN96@LoadFloat_
  0001d	80 f2 ed	 xor	 dl, -19			; ffffffedH
  00020	88 55 ec	 mov	 BYTE PTR __k$[ebp], dl
  00023	8a 50 01	 mov	 dl, BYTE PTR [eax+1]
  00026	84 d2		 test	 dl, dl
  00028	0f 84 f6 00 00
	00		 je	 $LN95@LoadFloat_
  0002e	80 f2 ec	 xor	 dl, -20			; ffffffecH
  00031	88 55 ed	 mov	 BYTE PTR __k$[ebp+1], dl
  00034	8a 50 02	 mov	 dl, BYTE PTR [eax+2]
  00037	84 d2		 test	 dl, dl
  00039	0f 84 df 00 00
	00		 je	 $LN94@LoadFloat_
  0003f	80 f2 eb	 xor	 dl, -21			; ffffffebH
  00042	88 55 ee	 mov	 BYTE PTR __k$[ebp+2], dl
  00045	8a 50 03	 mov	 dl, BYTE PTR [eax+3]
  00048	84 d2		 test	 dl, dl
  0004a	0f 84 c8 00 00
	00		 je	 $LN93@LoadFloat_
  00050	80 f2 ea	 xor	 dl, -22			; ffffffeaH
  00053	88 55 ef	 mov	 BYTE PTR __k$[ebp+3], dl
  00056	8a 50 04	 mov	 dl, BYTE PTR [eax+4]
  00059	84 d2		 test	 dl, dl
  0005b	0f 84 b1 00 00
	00		 je	 $LN92@LoadFloat_
  00061	80 f2 ed	 xor	 dl, -19			; ffffffedH
  00064	88 55 f0	 mov	 BYTE PTR __k$[ebp+4], dl
  00067	8a 50 05	 mov	 dl, BYTE PTR [eax+5]
  0006a	84 d2		 test	 dl, dl
  0006c	0f 84 9a 00 00
	00		 je	 $LN91@LoadFloat_
  00072	80 f2 ec	 xor	 dl, -20			; ffffffecH
  00075	88 55 f1	 mov	 BYTE PTR __k$[ebp+5], dl
  00078	8a 50 06	 mov	 dl, BYTE PTR [eax+6]
  0007b	84 d2		 test	 dl, dl
  0007d	0f 84 83 00 00
	00		 je	 $LN90@LoadFloat_
  00083	80 f2 eb	 xor	 dl, -21			; ffffffebH
  00086	88 55 f2	 mov	 BYTE PTR __k$[ebp+6], dl
  00089	8a 50 07	 mov	 dl, BYTE PTR [eax+7]
  0008c	84 d2		 test	 dl, dl
  0008e	74 70		 je	 SHORT $LN89@LoadFloat_
  00090	80 f2 ea	 xor	 dl, -22			; ffffffeaH
  00093	88 55 f3	 mov	 BYTE PTR __k$[ebp+7], dl
  00096	8a 50 08	 mov	 dl, BYTE PTR [eax+8]
  00099	84 d2		 test	 dl, dl
  0009b	74 5d		 je	 SHORT $LN88@LoadFloat_
  0009d	80 f2 ed	 xor	 dl, -19			; ffffffedH
  000a0	80 78 09 00	 cmp	 BYTE PTR [eax+9], 0
  000a4	88 55 f4	 mov	 BYTE PTR __k$[ebp+8], dl
  000a7	0f 84 81 00 00
	00		 je	 $LN1@LoadFloat_
  000ad	8a 50 0a	 mov	 dl, BYTE PTR [eax+10]
  000b0	84 d2		 test	 dl, dl
  000b2	74 40		 je	 SHORT $LN86@LoadFloat_
  000b4	80 f2 eb	 xor	 dl, -21			; ffffffebH
  000b7	88 55 f6	 mov	 BYTE PTR __k$[ebp+10], dl
  000ba	8a 50 0b	 mov	 dl, BYTE PTR [eax+11]
  000bd	84 d2		 test	 dl, dl
  000bf	74 2d		 je	 SHORT $LN85@LoadFloat_
  000c1	80 f2 ea	 xor	 dl, -22			; ffffffeaH
  000c4	88 55 f7	 mov	 BYTE PTR __k$[ebp+11], dl
  000c7	8a 50 0c	 mov	 dl, BYTE PTR [eax+12]
  000ca	84 d2		 test	 dl, dl
  000cc	74 1a		 je	 SHORT $LN84@LoadFloat_
  000ce	8a 40 0d	 mov	 al, BYTE PTR [eax+13]
  000d1	80 f2 ed	 xor	 dl, -19			; ffffffedH
  000d4	88 55 f8	 mov	 BYTE PTR __k$[ebp+12], dl
  000d7	84 c0		 test	 al, al
  000d9	74 07		 je	 SHORT $LN83@LoadFloat_
  000db	34 ec		 xor	 al, -20			; ffffffecH
  000dd	88 45 f9	 mov	 BYTE PTR __k$[ebp+13], al
  000e0	eb 4c		 jmp	 SHORT $LN1@LoadFloat_
$LN83@LoadFloat_:
  000e2	c6 45 f9 ec	 mov	 BYTE PTR __k$[ebp+13], -20 ; ffffffecH
  000e6	eb 46		 jmp	 SHORT $LN1@LoadFloat_
$LN84@LoadFloat_:
  000e8	c6 45 f8 ed	 mov	 BYTE PTR __k$[ebp+12], -19 ; ffffffedH
  000ec	eb 40		 jmp	 SHORT $LN1@LoadFloat_
$LN85@LoadFloat_:
  000ee	c6 45 f7 ea	 mov	 BYTE PTR __k$[ebp+11], -22 ; ffffffeaH
  000f2	eb 3a		 jmp	 SHORT $LN1@LoadFloat_
$LN86@LoadFloat_:
  000f4	c6 45 f6 eb	 mov	 BYTE PTR __k$[ebp+10], -21 ; ffffffebH
  000f8	eb 34		 jmp	 SHORT $LN1@LoadFloat_
$LN88@LoadFloat_:
  000fa	c6 45 f4 ed	 mov	 BYTE PTR __k$[ebp+8], -19 ; ffffffedH
  000fe	eb 2e		 jmp	 SHORT $LN1@LoadFloat_
$LN89@LoadFloat_:
  00100	c6 45 f3 ea	 mov	 BYTE PTR __k$[ebp+7], -22 ; ffffffeaH
  00104	eb 28		 jmp	 SHORT $LN1@LoadFloat_
$LN90@LoadFloat_:
  00106	c6 45 f2 eb	 mov	 BYTE PTR __k$[ebp+6], -21 ; ffffffebH
  0010a	eb 22		 jmp	 SHORT $LN1@LoadFloat_
$LN91@LoadFloat_:
  0010c	c6 45 f1 ec	 mov	 BYTE PTR __k$[ebp+5], -20 ; ffffffecH
  00110	eb 1c		 jmp	 SHORT $LN1@LoadFloat_
$LN92@LoadFloat_:
  00112	c6 45 f0 ed	 mov	 BYTE PTR __k$[ebp+4], -19 ; ffffffedH
  00116	eb 16		 jmp	 SHORT $LN1@LoadFloat_
$LN93@LoadFloat_:
  00118	c6 45 ef ea	 mov	 BYTE PTR __k$[ebp+3], -22 ; ffffffeaH
  0011c	eb 10		 jmp	 SHORT $LN1@LoadFloat_
$LN94@LoadFloat_:
  0011e	c6 45 ee eb	 mov	 BYTE PTR __k$[ebp+2], -21 ; ffffffebH
  00122	eb 0a		 jmp	 SHORT $LN1@LoadFloat_
$LN95@LoadFloat_:
  00124	c6 45 ed ec	 mov	 BYTE PTR __k$[ebp+1], -20 ; ffffffecH
  00128	eb 04		 jmp	 SHORT $LN1@LoadFloat_
$LN96@LoadFloat_:
  0012a	c6 45 ec ed	 mov	 BYTE PTR __k$[ebp], -19	; ffffffedH
$LN1@LoadFloat_:
  0012e	6a 02		 push	 2
  00130	8d 45 ec	 lea	 eax, DWORD PTR __k$[ebp]
  00133	c6 45 f5 00	 mov	 BYTE PTR __k$[ebp+9], 0
  00137	5a		 pop	 edx
$LL104@LoadFloat_:
  00138	81 30 ed ec eb
	ea		 xor	 DWORD PTR [eax], -353637139 ; eaebecedH
  0013e	83 c0 04	 add	 eax, 4
  00141	4a		 dec	 edx
  00142	75 f4		 jne	 SHORT $LL104@LoadFloat_

; 137  : 		return LoadFloat(_k, f);

  00144	f3 0f 10 45 0c	 movss	 xmm0, DWORD PTR _f$[ebp]
  00149	80 75 f4 ed	 xor	 BYTE PTR __k$[ebp+8], -19 ; ffffffedH
  0014d	51		 push	 ecx
  0014e	8d 45 ec	 lea	 eax, DWORD PTR __k$[ebp]
  00151	f3 0f 11 04 24	 movss	 DWORD PTR [esp], xmm0
  00156	50		 push	 eax
  00157	ff 15 00 00 00
	00		 call	 DWORD PTR __imp_?LoadFloat@ioINILoader@@QAEMPBDM@Z

; 138  : 	}

  0015d	8b 4d fc	 mov	 ecx, DWORD PTR __$ArrayPad$[ebp]
  00160	33 cd		 xor	 ecx, ebp
  00162	e8 00 00 00 00	 call	 @__security_check_cookie@4
  00167	c9		 leave
  00168	c2 08 00	 ret	 8
??$LoadFloat_e@$09@ioINILoader@@QAEMAAY09$$CBDM@Z ENDP	; ioINILoader::LoadFloat_e<10>
_TEXT	ENDS
PUBLIC	__$ArrayPad$
PUBLIC	??$LoadInt_e@$0P@@ioINILoader@@QAEHAAY0P@$$CBDH@Z ; ioINILoader::LoadInt_e<15>
EXTRN	__imp_?LoadInt@ioINILoader@@QAEHPBDH@Z:PROC
; Function compile flags: /Ogsp
;	COMDAT ??$LoadInt_e@$0P@@ioINILoader@@QAEHAAY0P@$$CBDH@Z
_TEXT	SEGMENT
__k$ = -24						; size = 15
__$ArrayPad$ = -4					; size = 4
_k$ = 8							; size = 4
_i$ = 12						; size = 4
??$LoadInt_e@$0P@@ioINILoader@@QAEHAAY0P@$$CBDH@Z PROC	; ioINILoader::LoadInt_e<15>, COMDAT
; _this$ = ecx

; 118  : 	{

  00000	55		 push	 ebp
  00001	8b ec		 mov	 ebp, esp
  00003	83 ec 18	 sub	 esp, 24			; 00000018H
  00006	a1 00 00 00 00	 mov	 eax, DWORD PTR ___security_cookie
  0000b	33 c5		 xor	 eax, ebp
  0000d	89 45 fc	 mov	 DWORD PTR __$ArrayPad$[ebp], eax
  00010	8b 45 08	 mov	 eax, DWORD PTR _k$[ebp]

; 119  : 		_ENCSTR(k, _k);

  00013	8a 10		 mov	 dl, BYTE PTR [eax]
  00015	56		 push	 esi
  00016	8b f1		 mov	 esi, ecx
  00018	84 d2		 test	 dl, dl
  0001a	0f 84 75 01 00
	00		 je	 $LN96@LoadInt_e
  00020	80 f2 ed	 xor	 dl, -19			; ffffffedH
  00023	88 55 e8	 mov	 BYTE PTR __k$[ebp], dl
  00026	8a 50 01	 mov	 dl, BYTE PTR [eax+1]
  00029	84 d2		 test	 dl, dl
  0002b	0f 84 5e 01 00
	00		 je	 $LN95@LoadInt_e
  00031	b1 ec		 mov	 cl, -20			; ffffffecH
  00033	32 d1		 xor	 dl, cl
  00035	88 55 e9	 mov	 BYTE PTR __k$[ebp+1], dl
  00038	8a 50 02	 mov	 dl, BYTE PTR [eax+2]
  0003b	84 d2		 test	 dl, dl
  0003d	0f 84 46 01 00
	00		 je	 $LN94@LoadInt_e
  00043	80 f2 eb	 xor	 dl, -21			; ffffffebH
  00046	88 55 ea	 mov	 BYTE PTR __k$[ebp+2], dl
  00049	8a 50 03	 mov	 dl, BYTE PTR [eax+3]
  0004c	84 d2		 test	 dl, dl
  0004e	0f 84 2f 01 00
	00		 je	 $LN93@LoadInt_e
  00054	80 f2 ea	 xor	 dl, -22			; ffffffeaH
  00057	88 55 eb	 mov	 BYTE PTR __k$[ebp+3], dl
  0005a	8a 50 04	 mov	 dl, BYTE PTR [eax+4]
  0005d	84 d2		 test	 dl, dl
  0005f	0f 84 18 01 00
	00		 je	 $LN92@LoadInt_e
  00065	80 f2 ed	 xor	 dl, -19			; ffffffedH
  00068	88 55 ec	 mov	 BYTE PTR __k$[ebp+4], dl
  0006b	8a 50 05	 mov	 dl, BYTE PTR [eax+5]
  0006e	84 d2		 test	 dl, dl
  00070	0f 84 02 01 00
	00		 je	 $LN91@LoadInt_e
  00076	32 d1		 xor	 dl, cl
  00078	88 55 ed	 mov	 BYTE PTR __k$[ebp+5], dl
  0007b	8a 50 06	 mov	 dl, BYTE PTR [eax+6]
  0007e	84 d2		 test	 dl, dl
  00080	0f 84 ec 00 00
	00		 je	 $LN90@LoadInt_e
  00086	80 f2 eb	 xor	 dl, -21			; ffffffebH
  00089	88 55 ee	 mov	 BYTE PTR __k$[ebp+6], dl
  0008c	8a 50 07	 mov	 dl, BYTE PTR [eax+7]
  0008f	84 d2		 test	 dl, dl
  00091	0f 84 d5 00 00
	00		 je	 $LN89@LoadInt_e
  00097	80 f2 ea	 xor	 dl, -22			; ffffffeaH
  0009a	88 55 ef	 mov	 BYTE PTR __k$[ebp+7], dl
  0009d	8a 50 08	 mov	 dl, BYTE PTR [eax+8]
  000a0	84 d2		 test	 dl, dl
  000a2	0f 84 be 00 00
	00		 je	 $LN88@LoadInt_e
  000a8	80 f2 ed	 xor	 dl, -19			; ffffffedH
  000ab	88 55 f0	 mov	 BYTE PTR __k$[ebp+8], dl
  000ae	8a 50 09	 mov	 dl, BYTE PTR [eax+9]
  000b1	84 d2		 test	 dl, dl
  000b3	0f 84 a8 00 00
	00		 je	 $LN87@LoadInt_e
  000b9	32 d1		 xor	 dl, cl
  000bb	88 55 f1	 mov	 BYTE PTR __k$[ebp+9], dl
  000be	8a 50 0a	 mov	 dl, BYTE PTR [eax+10]
  000c1	84 d2		 test	 dl, dl
  000c3	0f 84 92 00 00
	00		 je	 $LN86@LoadInt_e
  000c9	80 f2 eb	 xor	 dl, -21			; ffffffebH
  000cc	88 55 f2	 mov	 BYTE PTR __k$[ebp+10], dl
  000cf	8a 50 0b	 mov	 dl, BYTE PTR [eax+11]
  000d2	84 d2		 test	 dl, dl
  000d4	74 7f		 je	 SHORT $LN85@LoadInt_e
  000d6	80 f2 ea	 xor	 dl, -22			; ffffffeaH
  000d9	88 55 f3	 mov	 BYTE PTR __k$[ebp+11], dl
  000dc	8a 50 0c	 mov	 dl, BYTE PTR [eax+12]
  000df	84 d2		 test	 dl, dl
  000e1	74 6c		 je	 SHORT $LN84@LoadInt_e
  000e3	80 f2 ed	 xor	 dl, -19			; ffffffedH
  000e6	88 55 f4	 mov	 BYTE PTR __k$[ebp+12], dl
  000e9	8a 50 0d	 mov	 dl, BYTE PTR [eax+13]
  000ec	84 d2		 test	 dl, dl
  000ee	74 5a		 je	 SHORT $LN83@LoadInt_e
  000f0	32 d1		 xor	 dl, cl
  000f2	80 78 0e 00	 cmp	 BYTE PTR [eax+14], 0
  000f6	88 55 f5	 mov	 BYTE PTR __k$[ebp+13], dl
  000f9	0f 84 9a 00 00
	00		 je	 $LN1@LoadInt_e
  000ff	8a 50 0f	 mov	 dl, BYTE PTR [eax+15]
  00102	84 d2		 test	 dl, dl
  00104	74 3e		 je	 SHORT $LN81@LoadInt_e
  00106	80 f2 ea	 xor	 dl, -22			; ffffffeaH
  00109	88 55 f7	 mov	 BYTE PTR __k$[ebp+15], dl
  0010c	8a 50 10	 mov	 dl, BYTE PTR [eax+16]
  0010f	84 d2		 test	 dl, dl
  00111	74 2b		 je	 SHORT $LN80@LoadInt_e
  00113	80 f2 ed	 xor	 dl, -19			; ffffffedH
  00116	88 55 f8	 mov	 BYTE PTR __k$[ebp+16], dl
  00119	8a 50 11	 mov	 dl, BYTE PTR [eax+17]
  0011c	84 d2		 test	 dl, dl
  0011e	74 19		 je	 SHORT $LN79@LoadInt_e
  00120	8a 40 12	 mov	 al, BYTE PTR [eax+18]
  00123	32 d1		 xor	 dl, cl
  00125	88 55 f9	 mov	 BYTE PTR __k$[ebp+17], dl
  00128	84 c0		 test	 al, al
  0012a	74 07		 je	 SHORT $LN78@LoadInt_e
  0012c	34 eb		 xor	 al, -21			; ffffffebH
  0012e	88 45 fa	 mov	 BYTE PTR __k$[ebp+18], al
  00131	eb 66		 jmp	 SHORT $LN1@LoadInt_e
$LN78@LoadInt_e:
  00133	c6 45 fa eb	 mov	 BYTE PTR __k$[ebp+18], -21 ; ffffffebH
  00137	eb 60		 jmp	 SHORT $LN1@LoadInt_e
$LN79@LoadInt_e:
  00139	88 4d f9	 mov	 BYTE PTR __k$[ebp+17], cl
  0013c	eb 5b		 jmp	 SHORT $LN1@LoadInt_e
$LN80@LoadInt_e:
  0013e	c6 45 f8 ed	 mov	 BYTE PTR __k$[ebp+16], -19 ; ffffffedH
  00142	eb 55		 jmp	 SHORT $LN1@LoadInt_e
$LN81@LoadInt_e:
  00144	c6 45 f7 ea	 mov	 BYTE PTR __k$[ebp+15], -22 ; ffffffeaH
  00148	eb 4f		 jmp	 SHORT $LN1@LoadInt_e
$LN83@LoadInt_e:
  0014a	88 4d f5	 mov	 BYTE PTR __k$[ebp+13], cl
  0014d	eb 4a		 jmp	 SHORT $LN1@LoadInt_e
$LN84@LoadInt_e:
  0014f	c6 45 f4 ed	 mov	 BYTE PTR __k$[ebp+12], -19 ; ffffffedH
  00153	eb 44		 jmp	 SHORT $LN1@LoadInt_e
$LN85@LoadInt_e:
  00155	c6 45 f3 ea	 mov	 BYTE PTR __k$[ebp+11], -22 ; ffffffeaH
  00159	eb 3e		 jmp	 SHORT $LN1@LoadInt_e
$LN86@LoadInt_e:
  0015b	c6 45 f2 eb	 mov	 BYTE PTR __k$[ebp+10], -21 ; ffffffebH
  0015f	eb 38		 jmp	 SHORT $LN1@LoadInt_e
$LN87@LoadInt_e:
  00161	88 4d f1	 mov	 BYTE PTR __k$[ebp+9], cl
  00164	eb 33		 jmp	 SHORT $LN1@LoadInt_e
$LN88@LoadInt_e:
  00166	c6 45 f0 ed	 mov	 BYTE PTR __k$[ebp+8], -19 ; ffffffedH
  0016a	eb 2d		 jmp	 SHORT $LN1@LoadInt_e
$LN89@LoadInt_e:
  0016c	c6 45 ef ea	 mov	 BYTE PTR __k$[ebp+7], -22 ; ffffffeaH
  00170	eb 27		 jmp	 SHORT $LN1@LoadInt_e
$LN90@LoadInt_e:
  00172	c6 45 ee eb	 mov	 BYTE PTR __k$[ebp+6], -21 ; ffffffebH
  00176	eb 21		 jmp	 SHORT $LN1@LoadInt_e
$LN91@LoadInt_e:
  00178	88 4d ed	 mov	 BYTE PTR __k$[ebp+5], cl
  0017b	eb 1c		 jmp	 SHORT $LN1@LoadInt_e
$LN92@LoadInt_e:
  0017d	c6 45 ec ed	 mov	 BYTE PTR __k$[ebp+4], -19 ; ffffffedH
  00181	eb 16		 jmp	 SHORT $LN1@LoadInt_e
$LN93@LoadInt_e:
  00183	c6 45 eb ea	 mov	 BYTE PTR __k$[ebp+3], -22 ; ffffffeaH
  00187	eb 10		 jmp	 SHORT $LN1@LoadInt_e
$LN94@LoadInt_e:
  00189	c6 45 ea eb	 mov	 BYTE PTR __k$[ebp+2], -21 ; ffffffebH
  0018d	eb 0a		 jmp	 SHORT $LN1@LoadInt_e
$LN95@LoadInt_e:
  0018f	c6 45 e9 ec	 mov	 BYTE PTR __k$[ebp+1], -20 ; ffffffecH
  00193	eb 04		 jmp	 SHORT $LN1@LoadInt_e
$LN96@LoadInt_e:
  00195	c6 45 e8 ed	 mov	 BYTE PTR __k$[ebp], -19	; ffffffedH
$LN1@LoadInt_e:
  00199	6a 03		 push	 3
  0019b	8d 45 e8	 lea	 eax, DWORD PTR __k$[ebp]
  0019e	c6 45 f6 00	 mov	 BYTE PTR __k$[ebp+14], 0
  001a2	5a		 pop	 edx
$LL104@LoadInt_e:
  001a3	81 30 ed ec eb
	ea		 xor	 DWORD PTR [eax], -353637139 ; eaebecedH
  001a9	83 c0 04	 add	 eax, 4
  001ac	4a		 dec	 edx
  001ad	75 f4		 jne	 SHORT $LL104@LoadInt_e
  001af	6a 0c		 push	 12			; 0000000cH
  001b1	58		 pop	 eax
$LL101@LoadInt_e:
  001b2	8b c8		 mov	 ecx, eax
  001b4	81 e1 03 00 00
	80		 and	 ecx, -2147483645	; 80000003H
  001ba	79 05		 jns	 SHORT $LN111@LoadInt_e
  001bc	49		 dec	 ecx
  001bd	83 c9 fc	 or	 ecx, -4			; fffffffcH
  001c0	41		 inc	 ecx
$LN111@LoadInt_e:
  001c1	b2 ed		 mov	 dl, -19			; ffffffedH
  001c3	2a d1		 sub	 dl, cl
  001c5	30 54 05 e8	 xor	 BYTE PTR __k$[ebp+eax], dl
  001c9	40		 inc	 eax
  001ca	83 f8 0e	 cmp	 eax, 14			; 0000000eH
  001cd	7c e3		 jl	 SHORT $LL101@LoadInt_e

; 120  : 		return LoadInt(_k, i);

  001cf	ff 75 0c	 push	 DWORD PTR _i$[ebp]
  001d2	8d 45 e8	 lea	 eax, DWORD PTR __k$[ebp]
  001d5	50		 push	 eax
  001d6	8b ce		 mov	 ecx, esi
  001d8	ff 15 00 00 00
	00		 call	 DWORD PTR __imp_?LoadInt@ioINILoader@@QAEHPBDH@Z

; 121  : 	}

  001de	8b 4d fc	 mov	 ecx, DWORD PTR __$ArrayPad$[ebp]
  001e1	33 cd		 xor	 ecx, ebp
  001e3	5e		 pop	 esi
  001e4	e8 00 00 00 00	 call	 @__security_check_cookie@4
  001e9	c9		 leave
  001ea	c2 08 00	 ret	 8
??$LoadInt_e@$0P@@ioINILoader@@QAEHAAY0P@$$CBDH@Z ENDP	; ioINILoader::LoadInt_e<15>
_TEXT	ENDS
PUBLIC	_this$GSCopy$
PUBLIC	__$ArrayPad$
PUBLIC	??$LoadString_e@$0BD@@ioINILoader@@QAEXAAY0BD@$$CBDAAY00$$CBDPADH@Z ; ioINILoader::LoadString_e<19>
EXTRN	__imp_?LoadStringA@ioINILoader@@QAEXPBD0PADH@Z:PROC
; Function compile flags: /Ogsp
;	COMDAT ??$LoadString_e@$0BD@@ioINILoader@@QAEXAAY0BD@$$CBDAAY00$$CBDPADH@Z
_TEXT	SEGMENT
_this$GSCopy$ = -32					; size = 4
__k$ = -28						; size = 19
__$ArrayPad$ = -4					; size = 4
_k$ = 8							; size = 4
_d$ = 12						; size = 4
_b$ = 16						; size = 4
_i$ = 20						; size = 4
??$LoadString_e@$0BD@@ioINILoader@@QAEXAAY0BD@$$CBDAAY00$$CBDPADH@Z PROC ; ioINILoader::LoadString_e<19>, COMDAT
; _this$ = ecx

; 161  : 	{

  00000	55		 push	 ebp
  00001	8b ec		 mov	 ebp, esp
  00003	83 ec 20	 sub	 esp, 32			; 00000020H
  00006	a1 00 00 00 00	 mov	 eax, DWORD PTR ___security_cookie
  0000b	33 c5		 xor	 eax, ebp
  0000d	89 45 fc	 mov	 DWORD PTR __$ArrayPad$[ebp], eax
  00010	8b 45 08	 mov	 eax, DWORD PTR _k$[ebp]

; 162  : 		_ENCSTR(k, _k);

  00013	8a 10		 mov	 dl, BYTE PTR [eax]
  00015	56		 push	 esi
  00016	8b 75 0c	 mov	 esi, DWORD PTR _d$[ebp]
  00019	57		 push	 edi
  0001a	8b 7d 10	 mov	 edi, DWORD PTR _b$[ebp]
  0001d	89 4d e0	 mov	 DWORD PTR _this$GSCopy$[ebp], ecx
  00020	84 d2		 test	 dl, dl
  00022	0f 84 cf 01 00
	00		 je	 $LN96@LoadString
  00028	80 f2 ed	 xor	 dl, -19			; ffffffedH
  0002b	88 55 e4	 mov	 BYTE PTR __k$[ebp], dl
  0002e	8a 50 01	 mov	 dl, BYTE PTR [eax+1]
  00031	84 d2		 test	 dl, dl
  00033	0f 84 b8 01 00
	00		 je	 $LN95@LoadString
  00039	b1 ec		 mov	 cl, -20			; ffffffecH
  0003b	32 d1		 xor	 dl, cl
  0003d	88 55 e5	 mov	 BYTE PTR __k$[ebp+1], dl
  00040	8a 50 02	 mov	 dl, BYTE PTR [eax+2]
  00043	84 d2		 test	 dl, dl
  00045	0f 84 a0 01 00
	00		 je	 $LN94@LoadString
  0004b	80 f2 eb	 xor	 dl, -21			; ffffffebH
  0004e	88 55 e6	 mov	 BYTE PTR __k$[ebp+2], dl
  00051	8a 50 03	 mov	 dl, BYTE PTR [eax+3]
  00054	84 d2		 test	 dl, dl
  00056	0f 84 89 01 00
	00		 je	 $LN93@LoadString
  0005c	80 f2 ea	 xor	 dl, -22			; ffffffeaH
  0005f	88 55 e7	 mov	 BYTE PTR __k$[ebp+3], dl
  00062	8a 50 04	 mov	 dl, BYTE PTR [eax+4]
  00065	84 d2		 test	 dl, dl
  00067	0f 84 72 01 00
	00		 je	 $LN92@LoadString
  0006d	80 f2 ed	 xor	 dl, -19			; ffffffedH
  00070	88 55 e8	 mov	 BYTE PTR __k$[ebp+4], dl
  00073	8a 50 05	 mov	 dl, BYTE PTR [eax+5]
  00076	84 d2		 test	 dl, dl
  00078	0f 84 5c 01 00
	00		 je	 $LN91@LoadString
  0007e	32 d1		 xor	 dl, cl
  00080	88 55 e9	 mov	 BYTE PTR __k$[ebp+5], dl
  00083	8a 50 06	 mov	 dl, BYTE PTR [eax+6]
  00086	84 d2		 test	 dl, dl
  00088	0f 84 46 01 00
	00		 je	 $LN90@LoadString
  0008e	80 f2 eb	 xor	 dl, -21			; ffffffebH
  00091	88 55 ea	 mov	 BYTE PTR __k$[ebp+6], dl
  00094	8a 50 07	 mov	 dl, BYTE PTR [eax+7]
  00097	84 d2		 test	 dl, dl
  00099	0f 84 2f 01 00
	00		 je	 $LN89@LoadString
  0009f	80 f2 ea	 xor	 dl, -22			; ffffffeaH
  000a2	88 55 eb	 mov	 BYTE PTR __k$[ebp+7], dl
  000a5	8a 50 08	 mov	 dl, BYTE PTR [eax+8]
  000a8	84 d2		 test	 dl, dl
  000aa	0f 84 18 01 00
	00		 je	 $LN88@LoadString
  000b0	80 f2 ed	 xor	 dl, -19			; ffffffedH
  000b3	88 55 ec	 mov	 BYTE PTR __k$[ebp+8], dl
  000b6	8a 50 09	 mov	 dl, BYTE PTR [eax+9]
  000b9	84 d2		 test	 dl, dl
  000bb	0f 84 02 01 00
	00		 je	 $LN87@LoadString
  000c1	32 d1		 xor	 dl, cl
  000c3	88 55 ed	 mov	 BYTE PTR __k$[ebp+9], dl
  000c6	8a 50 0a	 mov	 dl, BYTE PTR [eax+10]
  000c9	84 d2		 test	 dl, dl
  000cb	0f 84 ec 00 00
	00		 je	 $LN86@LoadString
  000d1	80 f2 eb	 xor	 dl, -21			; ffffffebH
  000d4	88 55 ee	 mov	 BYTE PTR __k$[ebp+10], dl
  000d7	8a 50 0b	 mov	 dl, BYTE PTR [eax+11]
  000da	84 d2		 test	 dl, dl
  000dc	0f 84 d5 00 00
	00		 je	 $LN85@LoadString
  000e2	80 f2 ea	 xor	 dl, -22			; ffffffeaH
  000e5	88 55 ef	 mov	 BYTE PTR __k$[ebp+11], dl
  000e8	8a 50 0c	 mov	 dl, BYTE PTR [eax+12]
  000eb	84 d2		 test	 dl, dl
  000ed	0f 84 be 00 00
	00		 je	 $LN84@LoadString
  000f3	80 f2 ed	 xor	 dl, -19			; ffffffedH
  000f6	88 55 f0	 mov	 BYTE PTR __k$[ebp+12], dl
  000f9	8a 50 0d	 mov	 dl, BYTE PTR [eax+13]
  000fc	84 d2		 test	 dl, dl
  000fe	0f 84 a8 00 00
	00		 je	 $LN83@LoadString
  00104	32 d1		 xor	 dl, cl
  00106	88 55 f1	 mov	 BYTE PTR __k$[ebp+13], dl
  00109	8a 50 0e	 mov	 dl, BYTE PTR [eax+14]
  0010c	84 d2		 test	 dl, dl
  0010e	0f 84 92 00 00
	00		 je	 $LN82@LoadString
  00114	80 f2 eb	 xor	 dl, -21			; ffffffebH
  00117	88 55 f2	 mov	 BYTE PTR __k$[ebp+14], dl
  0011a	8a 50 0f	 mov	 dl, BYTE PTR [eax+15]
  0011d	84 d2		 test	 dl, dl
  0011f	74 7f		 je	 SHORT $LN81@LoadString
  00121	80 f2 ea	 xor	 dl, -22			; ffffffeaH
  00124	88 55 f3	 mov	 BYTE PTR __k$[ebp+15], dl
  00127	8a 50 10	 mov	 dl, BYTE PTR [eax+16]
  0012a	84 d2		 test	 dl, dl
  0012c	74 6c		 je	 SHORT $LN80@LoadString
  0012e	80 f2 ed	 xor	 dl, -19			; ffffffedH
  00131	88 55 f4	 mov	 BYTE PTR __k$[ebp+16], dl
  00134	8a 50 11	 mov	 dl, BYTE PTR [eax+17]
  00137	84 d2		 test	 dl, dl
  00139	74 5a		 je	 SHORT $LN79@LoadString
  0013b	32 d1		 xor	 dl, cl
  0013d	80 78 12 00	 cmp	 BYTE PTR [eax+18], 0
  00141	88 55 f5	 mov	 BYTE PTR __k$[ebp+17], dl
  00144	0f 84 b1 00 00
	00		 je	 $LN111@LoadString
  0014a	8a 50 13	 mov	 dl, BYTE PTR [eax+19]
  0014d	84 d2		 test	 dl, dl
  0014f	74 3e		 je	 SHORT $LN77@LoadString
  00151	80 f2 ea	 xor	 dl, -22			; ffffffeaH
  00154	88 55 f7	 mov	 BYTE PTR __k$[ebp+19], dl
  00157	8a 50 14	 mov	 dl, BYTE PTR [eax+20]
  0015a	84 d2		 test	 dl, dl
  0015c	74 2b		 je	 SHORT $LN76@LoadString
  0015e	80 f2 ed	 xor	 dl, -19			; ffffffedH
  00161	88 55 f8	 mov	 BYTE PTR __k$[ebp+20], dl
  00164	8a 50 15	 mov	 dl, BYTE PTR [eax+21]
  00167	84 d2		 test	 dl, dl
  00169	74 19		 je	 SHORT $LN75@LoadString
  0016b	8a 40 16	 mov	 al, BYTE PTR [eax+22]
  0016e	32 d1		 xor	 dl, cl
  00170	88 55 f9	 mov	 BYTE PTR __k$[ebp+21], dl
  00173	84 c0		 test	 al, al
  00175	74 07		 je	 SHORT $LN74@LoadString
  00177	34 eb		 xor	 al, -21			; ffffffebH
  00179	88 45 fa	 mov	 BYTE PTR __k$[ebp+22], al
  0017c	eb 7d		 jmp	 SHORT $LN111@LoadString
$LN74@LoadString:
  0017e	c6 45 fa eb	 mov	 BYTE PTR __k$[ebp+22], -21 ; ffffffebH
  00182	eb 77		 jmp	 SHORT $LN111@LoadString
$LN75@LoadString:
  00184	88 4d f9	 mov	 BYTE PTR __k$[ebp+21], cl
  00187	eb 72		 jmp	 SHORT $LN111@LoadString
$LN76@LoadString:
  00189	c6 45 f8 ed	 mov	 BYTE PTR __k$[ebp+20], -19 ; ffffffedH
  0018d	eb 6c		 jmp	 SHORT $LN111@LoadString
$LN77@LoadString:
  0018f	c6 45 f7 ea	 mov	 BYTE PTR __k$[ebp+19], -22 ; ffffffeaH
  00193	eb 66		 jmp	 SHORT $LN111@LoadString
$LN79@LoadString:
  00195	88 4d f5	 mov	 BYTE PTR __k$[ebp+17], cl
  00198	eb 61		 jmp	 SHORT $LN111@LoadString
$LN80@LoadString:
  0019a	c6 45 f4 ed	 mov	 BYTE PTR __k$[ebp+16], -19 ; ffffffedH
  0019e	eb 5b		 jmp	 SHORT $LN111@LoadString
$LN81@LoadString:
  001a0	c6 45 f3 ea	 mov	 BYTE PTR __k$[ebp+15], -22 ; ffffffeaH
  001a4	eb 55		 jmp	 SHORT $LN111@LoadString
$LN82@LoadString:
  001a6	c6 45 f2 eb	 mov	 BYTE PTR __k$[ebp+14], -21 ; ffffffebH
  001aa	eb 4f		 jmp	 SHORT $LN111@LoadString
$LN83@LoadString:
  001ac	88 4d f1	 mov	 BYTE PTR __k$[ebp+13], cl
  001af	eb 4a		 jmp	 SHORT $LN111@LoadString
$LN84@LoadString:
  001b1	c6 45 f0 ed	 mov	 BYTE PTR __k$[ebp+12], -19 ; ffffffedH
  001b5	eb 44		 jmp	 SHORT $LN111@LoadString
$LN85@LoadString:
  001b7	c6 45 ef ea	 mov	 BYTE PTR __k$[ebp+11], -22 ; ffffffeaH
  001bb	eb 3e		 jmp	 SHORT $LN111@LoadString
$LN86@LoadString:
  001bd	c6 45 ee eb	 mov	 BYTE PTR __k$[ebp+10], -21 ; ffffffebH
  001c1	eb 38		 jmp	 SHORT $LN111@LoadString
$LN87@LoadString:
  001c3	88 4d ed	 mov	 BYTE PTR __k$[ebp+9], cl
  001c6	eb 33		 jmp	 SHORT $LN111@LoadString
$LN88@LoadString:
  001c8	c6 45 ec ed	 mov	 BYTE PTR __k$[ebp+8], -19 ; ffffffedH
  001cc	eb 2d		 jmp	 SHORT $LN111@LoadString
$LN89@LoadString:
  001ce	c6 45 eb ea	 mov	 BYTE PTR __k$[ebp+7], -22 ; ffffffeaH
  001d2	eb 27		 jmp	 SHORT $LN111@LoadString
$LN90@LoadString:
  001d4	c6 45 ea eb	 mov	 BYTE PTR __k$[ebp+6], -21 ; ffffffebH
  001d8	eb 21		 jmp	 SHORT $LN111@LoadString
$LN91@LoadString:
  001da	88 4d e9	 mov	 BYTE PTR __k$[ebp+5], cl
  001dd	eb 1c		 jmp	 SHORT $LN111@LoadString
$LN92@LoadString:
  001df	c6 45 e8 ed	 mov	 BYTE PTR __k$[ebp+4], -19 ; ffffffedH
  001e3	eb 16		 jmp	 SHORT $LN111@LoadString
$LN93@LoadString:
  001e5	c6 45 e7 ea	 mov	 BYTE PTR __k$[ebp+3], -22 ; ffffffeaH
  001e9	eb 10		 jmp	 SHORT $LN111@LoadString
$LN94@LoadString:
  001eb	c6 45 e6 eb	 mov	 BYTE PTR __k$[ebp+2], -21 ; ffffffebH
  001ef	eb 0a		 jmp	 SHORT $LN111@LoadString
$LN95@LoadString:
  001f1	c6 45 e5 ec	 mov	 BYTE PTR __k$[ebp+1], -20 ; ffffffecH
  001f5	eb 04		 jmp	 SHORT $LN111@LoadString
$LN96@LoadString:
  001f7	c6 45 e4 ed	 mov	 BYTE PTR __k$[ebp], -19	; ffffffedH
$LN111@LoadString:
  001fb	6a 04		 push	 4
  001fd	8d 45 e4	 lea	 eax, DWORD PTR __k$[ebp]
  00200	c6 45 f6 00	 mov	 BYTE PTR __k$[ebp+18], 0
  00204	5a		 pop	 edx
$LL104@LoadString:
  00205	81 30 ed ec eb
	ea		 xor	 DWORD PTR [eax], -353637139 ; eaebecedH
  0020b	83 c0 04	 add	 eax, 4
  0020e	4a		 dec	 edx
  0020f	75 f4		 jne	 SHORT $LL104@LoadString
  00211	6a 10		 push	 16			; 00000010H
  00213	58		 pop	 eax
$LL101@LoadString:
  00214	8b c8		 mov	 ecx, eax
  00216	81 e1 03 00 00
	80		 and	 ecx, -2147483645	; 80000003H
  0021c	79 05		 jns	 SHORT $LN112@LoadString
  0021e	49		 dec	 ecx
  0021f	83 c9 fc	 or	 ecx, -4			; fffffffcH
  00222	41		 inc	 ecx
$LN112@LoadString:
  00223	b2 ed		 mov	 dl, -19			; ffffffedH
  00225	2a d1		 sub	 dl, cl
  00227	30 54 05 e4	 xor	 BYTE PTR __k$[ebp+eax], dl
  0022b	40		 inc	 eax
  0022c	83 f8 12	 cmp	 eax, 18			; 00000012H
  0022f	7c e3		 jl	 SHORT $LL101@LoadString

; 163  : 		LoadString(_k, d, b, i);

  00231	ff 75 14	 push	 DWORD PTR _i$[ebp]
  00234	8b 4d e0	 mov	 ecx, DWORD PTR _this$GSCopy$[ebp]
  00237	57		 push	 edi
  00238	56		 push	 esi
  00239	8d 45 e4	 lea	 eax, DWORD PTR __k$[ebp]
  0023c	50		 push	 eax
  0023d	ff 15 00 00 00
	00		 call	 DWORD PTR __imp_?LoadStringA@ioINILoader@@QAEXPBD0PADH@Z

; 164  : 	}

  00243	8b 4d fc	 mov	 ecx, DWORD PTR __$ArrayPad$[ebp]
  00246	5f		 pop	 edi
  00247	33 cd		 xor	 ecx, ebp
  00249	5e		 pop	 esi
  0024a	e8 00 00 00 00	 call	 @__security_check_cookie@4
  0024f	c9		 leave
  00250	c2 10 00	 ret	 16			; 00000010H
??$LoadString_e@$0BD@@ioINILoader@@QAEXAAY0BD@$$CBDAAY00$$CBDPADH@Z ENDP ; ioINILoader::LoadString_e<19>
_TEXT	ENDS
PUBLIC	_this$GSCopy$
PUBLIC	__$ArrayPad$
PUBLIC	??$LoadString_e@$0BC@@ioINILoader@@QAEXAAY0BC@$$CBDAAY00$$CBDPADH@Z ; ioINILoader::LoadString_e<18>
; Function compile flags: /Ogsp
;	COMDAT ??$LoadString_e@$0BC@@ioINILoader@@QAEXAAY0BC@$$CBDAAY00$$CBDPADH@Z
_TEXT	SEGMENT
_this$GSCopy$ = -32					; size = 4
__k$ = -28						; size = 18
__$ArrayPad$ = -4					; size = 4
_k$ = 8							; size = 4
_d$ = 12						; size = 4
_b$ = 16						; size = 4
_i$ = 20						; size = 4
??$LoadString_e@$0BC@@ioINILoader@@QAEXAAY0BC@$$CBDAAY00$$CBDPADH@Z PROC ; ioINILoader::LoadString_e<18>, COMDAT
; _this$ = ecx

; 161  : 	{

  00000	55		 push	 ebp
  00001	8b ec		 mov	 ebp, esp
  00003	83 ec 20	 sub	 esp, 32			; 00000020H
  00006	a1 00 00 00 00	 mov	 eax, DWORD PTR ___security_cookie
  0000b	33 c5		 xor	 eax, ebp
  0000d	89 45 fc	 mov	 DWORD PTR __$ArrayPad$[ebp], eax
  00010	8b 45 08	 mov	 eax, DWORD PTR _k$[ebp]

; 162  : 		_ENCSTR(k, _k);

  00013	8a 10		 mov	 dl, BYTE PTR [eax]
  00015	56		 push	 esi
  00016	8b 75 0c	 mov	 esi, DWORD PTR _d$[ebp]
  00019	57		 push	 edi
  0001a	8b 7d 10	 mov	 edi, DWORD PTR _b$[ebp]
  0001d	89 4d e0	 mov	 DWORD PTR _this$GSCopy$[ebp], ecx
  00020	84 d2		 test	 dl, dl
  00022	0f 84 be 01 00
	00		 je	 $LN96@LoadString@2
  00028	80 f2 ed	 xor	 dl, -19			; ffffffedH
  0002b	88 55 e4	 mov	 BYTE PTR __k$[ebp], dl
  0002e	8a 50 01	 mov	 dl, BYTE PTR [eax+1]
  00031	84 d2		 test	 dl, dl
  00033	0f 84 a7 01 00
	00		 je	 $LN95@LoadString@2
  00039	80 f2 ec	 xor	 dl, -20			; ffffffecH
  0003c	88 55 e5	 mov	 BYTE PTR __k$[ebp+1], dl
  0003f	8a 50 02	 mov	 dl, BYTE PTR [eax+2]
  00042	84 d2		 test	 dl, dl
  00044	0f 84 90 01 00
	00		 je	 $LN94@LoadString@2
  0004a	b1 eb		 mov	 cl, -21			; ffffffebH
  0004c	32 d1		 xor	 dl, cl
  0004e	88 55 e6	 mov	 BYTE PTR __k$[ebp+2], dl
  00051	8a 50 03	 mov	 dl, BYTE PTR [eax+3]
