; Listing generated by Microsoft (R) Optimizing Compiler Version 16.00.30319.01 

	TITLE	D:\Lost Saga For Developer\Youtube\Tutorial\Source\src\LSClient\ioFullShotSkill.cpp
	.686P
	.XMM
	include listing.inc
	.model	flat

INCLUDELIB MSVCRT
INCLUDELIB OLDNAMES

PUBLIC	?return1@@YAIXZ					; return1
; Function compile flags: /Ogsp
; File d:\lost saga for developer\youtube\tutorial\source\src\lsclient\stdafx.h
;	COMDAT ?return1@@YAIXZ
_TEXT	SEGMENT
?return1@@YAIXZ PROC					; return1, COMDAT

; 17   : 	__forceinline unsigned int return1() { __asm mov eax, 1 };

  00000	b8 01 00 00 00	 mov	 eax, 1
  00005	c3		 ret	 0
?return1@@YAIXZ ENDP					; return1
_TEXT	ENDS
PUBLIC	?return5@@YAIXZ					; return5
; Function compile flags: /Ogsp
;	COMDAT ?return5@@YAIXZ
_TEXT	SEGMENT
?return5@@YAIXZ PROC					; return5, COMDAT

; 18   : 	__forceinline unsigned int return5() { __asm mov eax, 5 };

  00000	b8 05 00 00 00	 mov	 eax, 5
  00005	c3		 ret	 0
?return5@@YAIXZ ENDP					; return5
_TEXT	ENDS
PUBLIC	?return10@@YAIXZ				; return10
; Function compile flags: /Ogsp
;	COMDAT ?return10@@YAIXZ
_TEXT	SEGMENT
?return10@@YAIXZ PROC					; return10, COMDAT

; 21   : 	__forceinline unsigned int return10() { __asm mov eax, 10 };

  00000	b8 0a 00 00 00	 mov	 eax, 10			; 0000000aH
  00005	c3		 ret	 0
?return10@@YAIXZ ENDP					; return10
_TEXT	ENDS
PUBLIC	?return360@@YAIXZ				; return360
; Function compile flags: /Ogsp
;	COMDAT ?return360@@YAIXZ
_TEXT	SEGMENT
?return360@@YAIXZ PROC					; return360, COMDAT

; 27   : 	__forceinline unsigned int return360() { __asm mov eax, 360 };

  00000	b8 68 01 00 00	 mov	 eax, 360		; 00000168H
  00005	c3		 ret	 0
?return360@@YAIXZ ENDP					; return360
_TEXT	ENDS
PUBLIC	?GetCharName@ioBaseChar@@QBEABVioHashString@@XZ	; ioBaseChar::GetCharName
; Function compile flags: /Ogsp
; File d:\lost saga for developer\youtube\tutorial\source\src\lsclient\iobasechar.h
;	COMDAT ?GetCharName@ioBaseChar@@QBEABVioHashString@@XZ
_TEXT	SEGMENT
?GetCharName@ioBaseChar@@QBEABVioHashString@@XZ PROC	; ioBaseChar::GetCharName, COMDAT
; _this$ = ecx

; 2594 : 	inline const ioHashString& GetCharName() const { return m_Name; }

  00000	8d 81 d4 02 00
	00		 lea	 eax, DWORD PTR [ecx+724]
  00006	c3		 ret	 0
?GetCharName@ioBaseChar@@QBEABVioHashString@@XZ ENDP	; ioBaseChar::GetCharName
_TEXT	ENDS
PUBLIC	?GetMoveDir@ioBaseChar@@QBEABUD3DXVECTOR3@@XZ	; ioBaseChar::GetMoveDir
; Function compile flags: /Ogsp
;	COMDAT ?GetMoveDir@ioBaseChar@@QBEABUD3DXVECTOR3@@XZ
_TEXT	SEGMENT
?GetMoveDir@ioBaseChar@@QBEABUD3DXVECTOR3@@XZ PROC	; ioBaseChar::GetMoveDir, COMDAT
; _this$ = ecx

; 2596 : 	inline const D3DXVECTOR3& GetMoveDir() const { return m_vMoveDir; }

  00000	8d 81 b4 06 00
	00		 lea	 eax, DWORD PTR [ecx+1716]
  00006	c3		 ret	 0
?GetMoveDir@ioBaseChar@@QBEABUD3DXVECTOR3@@XZ ENDP	; ioBaseChar::GetMoveDir
_TEXT	ENDS
PUBLIC	?GetTargetRot@ioBaseChar@@QBEABUD3DXQUATERNION@@XZ ; ioBaseChar::GetTargetRot
; Function compile flags: /Ogsp
;	COMDAT ?GetTargetRot@ioBaseChar@@QBEABUD3DXQUATERNION@@XZ
_TEXT	SEGMENT
?GetTargetRot@ioBaseChar@@QBEABUD3DXQUATERNION@@XZ PROC	; ioBaseChar::GetTargetRot, COMDAT
; _this$ = ecx

; 2599 : 	inline const D3DXQUATERNION& GetTargetRot() const { return m_qtTargetRot; }

  00000	8d 81 a4 06 00
	00		 lea	 eax, DWORD PTR [ecx+1700]
  00006	c3		 ret	 0
?GetTargetRot@ioBaseChar@@QBEABUD3DXQUATERNION@@XZ ENDP	; ioBaseChar::GetTargetRot
_TEXT	ENDS
PUBLIC	?SetCurJumpPowerAmt@ioBaseChar@@QAEXM@Z		; ioBaseChar::SetCurJumpPowerAmt
EXTRN	__fltused:DWORD
; Function compile flags: /Ogsp
;	COMDAT ?SetCurJumpPowerAmt@ioBaseChar@@QAEXM@Z
_TEXT	SEGMENT
_fAmt$ = 8						; size = 4
?SetCurJumpPowerAmt@ioBaseChar@@QAEXM@Z PROC		; ioBaseChar::SetCurJumpPowerAmt, COMDAT
; _this$ = ecx

; 2628 : 	inline void SetCurJumpPowerAmt( float fAmt ) { m_fCurJumpPowerAmt = fAmt; }

  00000	55		 push	 ebp
  00001	8b ec		 mov	 ebp, esp
  00003	f3 0f 10 45 08	 movss	 xmm0, DWORD PTR _fAmt$[ebp]
  00008	f3 0f 11 81 90
	0e 00 00	 movss	 DWORD PTR [ecx+3728], xmm0
  00010	5d		 pop	 ebp
  00011	c2 04 00	 ret	 4
?SetCurJumpPowerAmt@ioBaseChar@@QAEXM@Z ENDP		; ioBaseChar::SetCurJumpPowerAmt
_TEXT	ENDS
PUBLIC	??_7bad_alloc@std@@6B@				; std::bad_alloc::`vftable'
PUBLIC	??0bad_alloc@std@@QAE@PBD@Z			; std::bad_alloc::bad_alloc
PUBLIC	??_R4bad_alloc@std@@6B@				; std::bad_alloc::`RTTI Complete Object Locator'
PUBLIC	??_R0?AVbad_alloc@std@@@8			; std::bad_alloc `RTTI Type Descriptor'
PUBLIC	??_R3bad_alloc@std@@8				; std::bad_alloc::`RTTI Class Hierarchy Descriptor'
PUBLIC	??_R2bad_alloc@std@@8				; std::bad_alloc::`RTTI Base Class Array'
PUBLIC	??_R1A@?0A@EA@bad_alloc@std@@8			; std::bad_alloc::`RTTI Base Class Descriptor at (0,-1,0,64)'
PUBLIC	??_R1A@?0A@EA@exception@std@@8			; std::exception::`RTTI Base Class Descriptor at (0,-1,0,64)'
PUBLIC	??_R0?AVexception@std@@@8			; std::exception `RTTI Type Descriptor'
PUBLIC	??_R3exception@std@@8				; std::exception::`RTTI Class Hierarchy Descriptor'
PUBLIC	??_R2exception@std@@8				; std::exception::`RTTI Base Class Array'
EXTRN	__imp_??0exception@std@@QAE@ABQBD@Z:PROC
EXTRN	??_7type_info@@6B@:QWORD			; type_info::`vftable'
EXTRN	??_Ebad_alloc@std@@UAEPAXI@Z:PROC		; std::bad_alloc::`vector deleting destructor'
EXTRN	?what@exception@std@@UBEPBDXZ:PROC		; std::exception::what
;	COMDAT ??_R2exception@std@@8
; File c:\program files (x86)\microsoft visual studio 10.0\vc\include\exception
rdata$r	SEGMENT
??_R2exception@std@@8 DD FLAT:??_R1A@?0A@EA@exception@std@@8 ; std::exception::`RTTI Base Class Array'
rdata$r	ENDS
;	COMDAT ??_R3exception@std@@8
rdata$r	SEGMENT
??_R3exception@std@@8 DD 00H				; std::exception::`RTTI Class Hierarchy Descriptor'
	DD	00H
	DD	01H
	DD	FLAT:??_R2exception@std@@8
rdata$r	ENDS
;	COMDAT ??_R0?AVexception@std@@@8
_DATA	SEGMENT
??_R0?AVexception@std@@@8 DD FLAT:??_7type_info@@6B@	; std::exception `RTTI Type Descriptor'
	DD	00H
	DB	'.?AVexception@std@@', 00H
_DATA	ENDS
;	COMDAT ??_R1A@?0A@EA@exception@std@@8
rdata$r	SEGMENT
??_R1A@?0A@EA@exception@std@@8 DD FLAT:??_R0?AVexception@std@@@8 ; std::exception::`RTTI Base Class Descriptor at (0,-1,0,64)'
	DD	00H
	DD	00H
	DD	0ffffffffH
	DD	00H
	DD	040H
	DD	FLAT:??_R3exception@std@@8
rdata$r	ENDS
;	COMDAT ??_R1A@?0A@EA@bad_alloc@std@@8
rdata$r	SEGMENT
??_R1A@?0A@EA@bad_alloc@std@@8 DD FLAT:??_R0?AVbad_alloc@std@@@8 ; std::bad_alloc::`RTTI Base Class Descriptor at (0,-1,0,64)'
	DD	01H
	DD	00H
	DD	0ffffffffH
	DD	00H
	DD	040H
	DD	FLAT:??_R3bad_alloc@std@@8
rdata$r	ENDS
;	COMDAT ??_R2bad_alloc@std@@8
rdata$r	SEGMENT
??_R2bad_alloc@std@@8 DD FLAT:??_R1A@?0A@EA@bad_alloc@std@@8 ; std::bad_alloc::`RTTI Base Class Array'
	DD	FLAT:??_R1A@?0A@EA@exception@std@@8
rdata$r	ENDS
;	COMDAT ??_R3bad_alloc@std@@8
rdata$r	SEGMENT
??_R3bad_alloc@std@@8 DD 00H				; std::bad_alloc::`RTTI Class Hierarchy Descriptor'
	DD	00H
	DD	02H
	DD	FLAT:??_R2bad_alloc@std@@8
rdata$r	ENDS
;	COMDAT ??_R0?AVbad_alloc@std@@@8
_DATA	SEGMENT
??_R0?AVbad_alloc@std@@@8 DD FLAT:??_7type_info@@6B@	; std::bad_alloc `RTTI Type Descriptor'
	DD	00H
	DB	'.?AVbad_alloc@std@@', 00H
_DATA	ENDS
;	COMDAT ??_R4bad_alloc@std@@6B@
rdata$r	SEGMENT
??_R4bad_alloc@std@@6B@ DD 00H				; std::bad_alloc::`RTTI Complete Object Locator'
	DD	00H
	DD	00H
	DD	FLAT:??_R0?AVbad_alloc@std@@@8
	DD	FLAT:??_R3bad_alloc@std@@8
rdata$r	ENDS
;	COMDAT ??_7bad_alloc@std@@6B@
CONST	SEGMENT
??_7bad_alloc@std@@6B@ DD FLAT:??_R4bad_alloc@std@@6B@	; std::bad_alloc::`vftable'
	DD	FLAT:??_Ebad_alloc@std@@UAEPAXI@Z
	DD	FLAT:?what@exception@std@@UBEPBDXZ
; Function compile flags: /Ogsp
CONST	ENDS
;	COMDAT ??0bad_alloc@std@@QAE@PBD@Z
_TEXT	SEGMENT
__Message$ = 8						; size = 4
??0bad_alloc@std@@QAE@PBD@Z PROC			; std::bad_alloc::bad_alloc, COMDAT
; _this$ = ecx

; 345  : 		{	// construct from message string

  00000	55		 push	 ebp
  00001	8b ec		 mov	 ebp, esp
  00003	56		 push	 esi
  00004	8d 45 08	 lea	 eax, DWORD PTR __Message$[ebp]
  00007	50		 push	 eax
  00008	8b f1		 mov	 esi, ecx
  0000a	ff 15 00 00 00
	00		 call	 DWORD PTR __imp_??0exception@std@@QAE@ABQBD@Z
  00010	c7 06 00 00 00
	00		 mov	 DWORD PTR [esi], OFFSET ??_7bad_alloc@std@@6B@

; 346  : 		}

  00016	8b c6		 mov	 eax, esi
  00018	5e		 pop	 esi
  00019	5d		 pop	 ebp
  0001a	c2 04 00	 ret	 4
??0bad_alloc@std@@QAE@PBD@Z ENDP			; std::bad_alloc::bad_alloc
_TEXT	ENDS
PUBLIC	??1bad_alloc@std@@UAE@XZ			; std::bad_alloc::~bad_alloc
EXTRN	__imp_??1exception@std@@UAE@XZ:PROC
; Function compile flags: /Ogsp
;	COMDAT ??1bad_alloc@std@@UAE@XZ
_TEXT	SEGMENT
??1bad_alloc@std@@UAE@XZ PROC				; std::bad_alloc::~bad_alloc, COMDAT
; _this$ = ecx

; 354  : 		{	// destroy the object

  00000	c7 01 00 00 00
	00		 mov	 DWORD PTR [ecx], OFFSET ??_7bad_alloc@std@@6B@

; 355  : 		}

  00006	ff 25 00 00 00
	00		 jmp	 DWORD PTR __imp_??1exception@std@@UAE@XZ
??1bad_alloc@std@@UAE@XZ ENDP				; std::bad_alloc::~bad_alloc
_TEXT	ENDS
EXTRN	??3@YAXPAX@Z:PROC				; operator delete
; Function compile flags: /Ogsp
;	COMDAT ??_Gbad_alloc@std@@UAEPAXI@Z
_TEXT	SEGMENT
___flags$ = 8						; size = 4
??_Gbad_alloc@std@@UAEPAXI@Z PROC			; std::bad_alloc::`scalar deleting destructor', COMDAT
; _this$ = ecx
  00000	55		 push	 ebp
  00001	8b ec		 mov	 ebp, esp
  00003	56		 push	 esi
  00004	8b f1		 mov	 esi, ecx
  00006	c7 06 00 00 00
	00		 mov	 DWORD PTR [esi], OFFSET ??_7bad_alloc@std@@6B@
  0000c	ff 15 00 00 00
	00		 call	 DWORD PTR __imp_??1exception@std@@UAE@XZ
  00012	f6 45 08 01	 test	 BYTE PTR ___flags$[ebp], 1
  00016	74 07		 je	 SHORT $LN1@scalar
  00018	56		 push	 esi
  00019	e8 00 00 00 00	 call	 ??3@YAXPAX@Z		; operator delete
  0001e	59		 pop	 ecx
$LN1@scalar:
  0001f	8b c6		 mov	 eax, esi
  00021	5e		 pop	 esi
  00022	5d		 pop	 ebp
  00023	c2 04 00	 ret	 4
??_Gbad_alloc@std@@UAEPAXI@Z ENDP			; std::bad_alloc::`scalar deleting destructor'
_TEXT	ENDS
PUBLIC	??2@YAPAXIPAX@Z					; operator new
; Function compile flags: /Ogsp
; File c:\program files (x86)\microsoft visual studio 10.0\vc\include\new
;	COMDAT ??2@YAPAXIPAX@Z
_TEXT	SEGMENT
___formal$ = 8						; size = 4
__Where$ = 12						; size = 4
??2@YAPAXIPAX@Z PROC					; operator new, COMDAT

; 56   : 	{	// construct array with placement at _Where

  00000	55		 push	 ebp
  00001	8b ec		 mov	 ebp, esp

; 57   : 	return (_Where);

  00003	8b 45 0c	 mov	 eax, DWORD PTR __Where$[ebp]

; 58   : 	}

  00006	5d		 pop	 ebp
  00007	c3		 ret	 0
??2@YAPAXIPAX@Z ENDP					; operator new
_TEXT	ENDS
PUBLIC	??3@YAXPAX0@Z					; operator delete
; Function compile flags: /Ogsp
;	COMDAT ??3@YAXPAX0@Z
_TEXT	SEGMENT
___formal$ = 8						; size = 4
___formal$ = 12						; size = 4
??3@YAXPAX0@Z PROC					; operator delete, COMDAT

; 62   : 	}

  00000	c3		 ret	 0
??3@YAXPAX0@Z ENDP					; operator delete
_TEXT	ENDS
PUBLIC	??_R0?AVioWeapon@@@8				; ioWeapon `RTTI Type Descriptor'
PUBLIC	??_R0?AVioThrowReturnWeapon@@@8			; ioThrowReturnWeapon `RTTI Type Descriptor'
PUBLIC	?ToThrowReturnWeapon@@YAPAVioThrowReturnWeapon@@PAVioWeapon@@@Z ; ToThrowReturnWeapon
EXTRN	___RTDynamicCast:PROC
;	COMDAT ??_R0?AVioWeapon@@@8
; File d:\lost saga for developer\youtube\tutorial\source\src\lsclient\iothrowreturnweapon.h
_DATA	SEGMENT
??_R0?AVioWeapon@@@8 DD FLAT:??_7type_info@@6B@		; ioWeapon `RTTI Type Descriptor'
	DD	00H
	DB	'.?AVioWeapon@@', 00H
_DATA	ENDS
;	COMDAT ??_R0?AVioThrowReturnWeapon@@@8
_DATA	SEGMENT
??_R0?AVioThrowReturnWeapon@@@8 DD FLAT:??_7type_info@@6B@ ; ioThrowReturnWeapon `RTTI Type Descriptor'
	DD	00H
	DB	'.?AVioThrowReturnWeapon@@', 00H
; Function compile flags: /Ogsp
_DATA	ENDS
;	COMDAT ?ToThrowReturnWeapon@@YAPAVioThrowReturnWeapon@@PAVioWeapon@@@Z
_TEXT	SEGMENT
_pWeapon$ = 8						; size = 4
?ToThrowReturnWeapon@@YAPAVioThrowReturnWeapon@@PAVioWeapon@@@Z PROC ; ToThrowReturnWeapon, COMDAT

; 76   : {

  00000	55		 push	 ebp
  00001	8b ec		 mov	 ebp, esp
  00003	56		 push	 esi

; 77   : 	if( !pWeapon || pWeapon->GetType() != ioWeapon::WT_THROW_RETURN )

  00004	8b 75 08	 mov	 esi, DWORD PTR _pWeapon$[ebp]
  00007	85 f6		 test	 esi, esi
  00009	74 28		 je	 SHORT $LN1@ToThrowRet
  0000b	8b 06		 mov	 eax, DWORD PTR [esi]
  0000d	8b ce		 mov	 ecx, esi
  0000f	ff 90 10 01 00
	00		 call	 DWORD PTR [eax+272]
  00015	83 f8 0f	 cmp	 eax, 15			; 0000000fH
  00018	75 19		 jne	 SHORT $LN1@ToThrowRet

; 79   : 
; 80   : 	return dynamic_cast< ioThrowReturnWeapon* >( pWeapon );

  0001a	6a 00		 push	 0
  0001c	68 00 00 00 00	 push	 OFFSET ??_R0?AVioThrowReturnWeapon@@@8
  00021	68 00 00 00 00	 push	 OFFSET ??_R0?AVioWeapon@@@8
  00026	6a 00		 push	 0
  00028	56		 push	 esi
  00029	e8 00 00 00 00	 call	 ___RTDynamicCast
  0002e	83 c4 14	 add	 esp, 20			; 00000014H
  00031	eb 02		 jmp	 SHORT $LN3@ToThrowRet
$LN1@ToThrowRet:

; 78   : 		return NULL;

  00033	33 c0		 xor	 eax, eax
$LN3@ToThrowRet:
  00035	5e		 pop	 esi

; 81   : }

  00036	5d		 pop	 ebp
  00037	c3		 ret	 0
?ToThrowReturnWeapon@@YAPAVioThrowReturnWeapon@@PAVioWeapon@@@Z ENDP ; ToThrowReturnWeapon
_TEXT	ENDS
PUBLIC	?_Adopt@_Iterator_base0@std@@QAEXPBX@Z		; std::_Iterator_base0::_Adopt
; Function compile flags: /Ogsp
; File c:\program files (x86)\microsoft visual studio 10.0\vc\include\xutility
;	COMDAT ?_Adopt@_Iterator_base0@std@@QAEXPBX@Z
_TEXT	SEGMENT
___formal$ = 8						; size = 4
?_Adopt@_Iterator_base0@std@@QAEXPBX@Z PROC		; std::_Iterator_base0::_Adopt, COMDAT
; _this$ = ecx

; 49   : 		}

  00000	c2 04 00	 ret	 4
?_Adopt@_Iterator_base0@std@@QAEXPBX@Z ENDP		; std::_Iterator_base0::_Adopt
_TEXT	ENDS
PUBLIC	?GetFireTimeModifyRate@ioFireWeaponItem@@QBEMXZ	; ioFireWeaponItem::GetFireTimeModifyRate
; Function compile flags: /Ogsp
; File d:\lost saga for developer\youtube\tutorial\source\src\lsclient\iofireweaponitem.h
;	COMDAT ?GetFireTimeModifyRate@ioFireWeaponItem@@QBEMXZ
_TEXT	SEGMENT
?GetFireTimeModifyRate@ioFireWeaponItem@@QBEMXZ PROC	; ioFireWeaponItem::GetFireTimeModifyRate, COMDAT
; _this$ = ecx

; 191  : 	inline float GetFireTimeModifyRate() const { return m_fFireTimeModifyRate; }

  00000	d9 81 e0 1b 00
	00		 fld	 DWORD PTR [ecx+7136]
  00006	c3		 ret	 0
?GetFireTimeModifyRate@ioFireWeaponItem@@QBEMXZ ENDP	; ioFireWeaponItem::GetFireTimeModifyRate
_TEXT	ENDS
PUBLIC	?GetAimedSkillUse@ioFireWeaponItem@@QBE_NXZ	; ioFireWeaponItem::GetAimedSkillUse
; Function compile flags: /Ogsp
;	COMDAT ?GetAimedSkillUse@ioFireWeaponItem@@QBE_NXZ
_TEXT	SEGMENT
?GetAimedSkillUse@ioFireWeaponItem@@QBE_NXZ PROC	; ioFireWeaponItem::GetAimedSkillUse, COMDAT
; _this$ = ecx

; 240  : 	inline bool GetAimedSkillUse() const { return m_bSetSkillAimed; }

  00000	8a 81 ec 1c 00
	00		 mov	 al, BYTE PTR [ecx+7404]
  00006	c3		 ret	 0
?GetAimedSkillUse@ioFireWeaponItem@@QBE_NXZ ENDP	; ioFireWeaponItem::GetAimedSkillUse
_TEXT	ENDS
PUBLIC	?GetAimedDirSet@ioFireWeaponItem@@QBE_NXZ	; ioFireWeaponItem::GetAimedDirSet
; Function compile flags: /Ogsp
;	COMDAT ?GetAimedDirSet@ioFireWeaponItem@@QBE_NXZ
_TEXT	SEGMENT
?GetAimedDirSet@ioFireWeaponItem@@QBE_NXZ PROC		; ioFireWeaponItem::GetAimedDirSet, COMDAT
; _this$ = ecx

; 241  : 	inline bool GetAimedDirSet() const { return m_bSetAimedDir; }

  00000	8a 81 ed 1c 00
	00		 mov	 al, BYTE PTR [ecx+7405]
  00006	c3		 ret	 0
?GetAimedDirSet@ioFireWeaponItem@@QBE_NXZ ENDP		; ioFireWeaponItem::GetAimedDirSet
_TEXT	ENDS
PUBLIC	?GetAimedSkillUse@ioBowItem@@QBE_NXZ		; ioBowItem::GetAimedSkillUse
; Function compile flags: /Ogsp
; File d:\lost saga for developer\youtube\tutorial\source\src\lsclient\iobowitem.h
;	COMDAT ?GetAimedSkillUse@ioBowItem@@QBE_NXZ
_TEXT	SEGMENT
?GetAimedSkillUse@ioBowItem@@QBE_NXZ PROC		; ioBowItem::GetAimedSkillUse, COMDAT
; _this$ = ecx

; 299  : 	inline bool GetAimedSkillUse() const { return m_bSetSkillAimed; }

  00000	8a 81 8c 1c 00
	00		 mov	 al, BYTE PTR [ecx+7308]
  00006	c3		 ret	 0
?GetAimedSkillUse@ioBowItem@@QBE_NXZ ENDP		; ioBowItem::GetAimedSkillUse
_TEXT	ENDS
PUBLIC	?GetAimedDirSet@ioBowItem@@QBE_NXZ		; ioBowItem::GetAimedDirSet
; Function compile flags: /Ogsp
;	COMDAT ?GetAimedDirSet@ioBowItem@@QBE_NXZ
_TEXT	SEGMENT
?GetAimedDirSet@ioBowItem@@QBE_NXZ PROC			; ioBowItem::GetAimedDirSet, COMDAT
; _this$ = ecx

; 300  : 	inline bool GetAimedDirSet() const { return m_bSetAimedDir; }

  00000	8a 81 8d 1c 00
	00		 mov	 al, BYTE PTR [ecx+7309]
  00006	c3		 ret	 0
?GetAimedDirSet@ioBowItem@@QBE_NXZ ENDP			; ioBowItem::GetAimedDirSet
_TEXT	ENDS
PUBLIC	?GetAimedSkillUse@ioLaserItem@@QBE_NXZ		; ioLaserItem::GetAimedSkillUse
; Function compile flags: /Ogsp
; File d:\lost saga for developer\youtube\tutorial\source\src\lsclient\iolaseritem.h
;	COMDAT ?GetAimedSkillUse@ioLaserItem@@QBE_NXZ
_TEXT	SEGMENT
?GetAimedSkillUse@ioLaserItem@@QBE_NXZ PROC		; ioLaserItem::GetAimedSkillUse, COMDAT
; _this$ = ecx

; 220  : 	inline bool GetAimedSkillUse() const { return m_bSetSkillAimed; }

  00000	8a 81 4c 1c 00
	00		 mov	 al, BYTE PTR [ecx+7244]
  00006	c3		 ret	 0
?GetAimedSkillUse@ioLaserItem@@QBE_NXZ ENDP		; ioLaserItem::GetAimedSkillUse
_TEXT	ENDS
PUBLIC	?GetAimedDirSet@ioLaserItem@@QBE_NXZ		; ioLaserItem::GetAimedDirSet
; Function compile flags: /Ogsp
;	COMDAT ?GetAimedDirSet@ioLaserItem@@QBE_NXZ
_TEXT	SEGMENT
?GetAimedDirSet@ioLaserItem@@QBE_NXZ PROC		; ioLaserItem::GetAimedDirSet, COMDAT
; _this$ = ecx

; 221  : 	inline bool GetAimedDirSet() const { return m_bSetAimedDir; }

  00000	8a 81 4d 1c 00
	00		 mov	 al, BYTE PTR [ecx+7245]
  00006	c3		 ret	 0
?GetAimedDirSet@ioLaserItem@@QBE_NXZ ENDP		; ioLaserItem::GetAimedDirSet
_TEXT	ENDS
PUBLIC	??0D3DXVECTOR3@@QAE@XZ				; D3DXVECTOR3::D3DXVECTOR3
; Function compile flags: /Ogsp
; File c:\program files (x86)\microsoft directx sdk (june 2010)\include\d3dx9math.h
;	COMDAT ??0D3DXVECTOR3@@QAE@XZ
_TEXT	SEGMENT
??0D3DXVECTOR3@@QAE@XZ PROC				; D3DXVECTOR3::D3DXVECTOR3, COMDAT
; _this$ = ecx

; 165  :     D3DXVECTOR3() {};

  00000	8b c1		 mov	 eax, ecx
  00002	c3		 ret	 0
??0D3DXVECTOR3@@QAE@XZ ENDP				; D3DXVECTOR3::D3DXVECTOR3
_TEXT	ENDS
PUBLIC	??0D3DXQUATERNION@@QAE@XZ			; D3DXQUATERNION::D3DXQUATERNION
; Function compile flags: /Ogsp
;	COMDAT ??0D3DXQUATERNION@@QAE@XZ
_TEXT	SEGMENT
??0D3DXQUATERNION@@QAE@XZ PROC				; D3DXQUATERNION::D3DXQUATERNION, COMDAT
; _this$ = ecx

; 429  :     D3DXQUATERNION() {}

  00000	8b c1		 mov	 eax, ecx
  00002	c3		 ret	 0
??0D3DXQUATERNION@@QAE@XZ ENDP				; D3DXQUATERNION::D3DXQUATERNION
_TEXT	ENDS
PUBLIC	??0D3DXVECTOR3@@QAE@MMM@Z			; D3DXVECTOR3::D3DXVECTOR3
; Function compile flags: /Ogsp
; File c:\program files (x86)\microsoft directx sdk (june 2010)\include\d3dx9math.inl
;	COMDAT ??0D3DXVECTOR3@@QAE@MMM@Z
_TEXT	SEGMENT
_fx$ = 8						; size = 4
_fy$ = 12						; size = 4
_fz$ = 16						; size = 4
??0D3DXVECTOR3@@QAE@MMM@Z PROC				; D3DXVECTOR3::D3DXVECTOR3, COMDAT
; _this$ = ecx

; 303  : {

  00000	55		 push	 ebp
  00001	8b ec		 mov	 ebp, esp

; 304  :     x = fx;

  00003	f3 0f 10 45 08	 movss	 xmm0, DWORD PTR _fx$[ebp]
  00008	8b c1		 mov	 eax, ecx
  0000a	f3 0f 11 00	 movss	 DWORD PTR [eax], xmm0

; 305  :     y = fy;

  0000e	f3 0f 10 45 0c	 movss	 xmm0, DWORD PTR _fy$[ebp]
  00013	f3 0f 11 40 04	 movss	 DWORD PTR [eax+4], xmm0

; 306  :     z = fz;

  00018	f3 0f 10 45 10	 movss	 xmm0, DWORD PTR _fz$[ebp]
  0001d	f3 0f 11 40 08	 movss	 DWORD PTR [eax+8], xmm0

; 307  : }

  00022	5d		 pop	 ebp
  00023	c2 0c 00	 ret	 12			; 0000000cH
??0D3DXVECTOR3@@QAE@MMM@Z ENDP				; D3DXVECTOR3::D3DXVECTOR3
_TEXT	ENDS
PUBLIC	??YD3DXVECTOR3@@QAEAAU0@ABU0@@Z			; D3DXVECTOR3::operator+=
; Function compile flags: /Ogsp
;	COMDAT ??YD3DXVECTOR3@@QAEAAU0@ABU0@@Z
_TEXT	SEGMENT
_v$ = 8							; size = 4
??YD3DXVECTOR3@@QAEAAU0@ABU0@@Z PROC			; D3DXVECTOR3::operator+=, COMDAT
; _this$ = ecx

; 327  : {

  00000	55		 push	 ebp
  00001	8b ec		 mov	 ebp, esp
  00003	8b c1		 mov	 eax, ecx

; 328  :     x += v.x;

  00005	8b 4d 08	 mov	 ecx, DWORD PTR _v$[ebp]
  00008	f3 0f 10 01	 movss	 xmm0, DWORD PTR [ecx]
  0000c	f3 0f 10 08	 movss	 xmm1, DWORD PTR [eax]
  00010	0f 5a c0	 cvtps2pd xmm0, xmm0
  00013	0f 5a c9	 cvtps2pd xmm1, xmm1
  00016	f2 0f 58 c1	 addsd	 xmm0, xmm1

; 329  :     y += v.y;

  0001a	f3 0f 10 48 04	 movss	 xmm1, DWORD PTR [eax+4]
  0001f	66 0f 5a c0	 cvtpd2ps xmm0, xmm0
  00023	f3 0f 11 00	 movss	 DWORD PTR [eax], xmm0
  00027	f3 0f 10 41 04	 movss	 xmm0, DWORD PTR [ecx+4]
  0002c	0f 5a c0	 cvtps2pd xmm0, xmm0
  0002f	0f 5a c9	 cvtps2pd xmm1, xmm1
  00032	f2 0f 58 c1	 addsd	 xmm0, xmm1

; 330  :     z += v.z;

  00036	f3 0f 10 48 08	 movss	 xmm1, DWORD PTR [eax+8]
  0003b	66 0f 5a c0	 cvtpd2ps xmm0, xmm0
  0003f	f3 0f 11 40 04	 movss	 DWORD PTR [eax+4], xmm0
  00044	f3 0f 10 41 08	 movss	 xmm0, DWORD PTR [ecx+8]
  00049	0f 5a c0	 cvtps2pd xmm0, xmm0
  0004c	0f 5a c9	 cvtps2pd xmm1, xmm1
  0004f	f2 0f 58 c1	 addsd	 xmm0, xmm1
  00053	66 0f 5a c0	 cvtpd2ps xmm0, xmm0
  00057	f3 0f 11 40 08	 movss	 DWORD PTR [eax+8], xmm0

; 331  :     return *this;
; 332  : }

  0005c	5d		 pop	 ebp
  0005d	c2 04 00	 ret	 4
??YD3DXVECTOR3@@QAEAAU0@ABU0@@Z ENDP			; D3DXVECTOR3::operator+=
_TEXT	ENDS
PUBLIC	__mask@@NegFloat@
PUBLIC	??GD3DXVECTOR3@@QBE?AU0@XZ			; D3DXVECTOR3::operator-
;	COMDAT __mask@@NegFloat@
CONST	SEGMENT
__mask@@NegFloat@ DB 00H, 00H, 00H, 080H, 00H, 00H, 00H, 080H, 00H, 00H, 00H
	DB	080H, 00H, 00H, 00H, 080H
; Function compile flags: /Ogsp
CONST	ENDS
;	COMDAT ??GD3DXVECTOR3@@QBE?AU0@XZ
_TEXT	SEGMENT
___$ReturnUdt$ = 8					; size = 4
??GD3DXVECTOR3@@QBE?AU0@XZ PROC				; D3DXVECTOR3::operator-, COMDAT
; _this$ = ecx

; 372  : {

  00000	55		 push	 ebp
  00001	8b ec		 mov	 ebp, esp

; 373  :     return D3DXVECTOR3(-x, -y, -z);

  00003	f3 0f 10 05 00
	00 00 00	 movss	 xmm0, DWORD PTR __mask@@NegFloat@
  0000b	8b 45 08	 mov	 eax, DWORD PTR ___$ReturnUdt$[ebp]
  0000e	f3 0f 10 09	 movss	 xmm1, DWORD PTR [ecx]
  00012	0f 57 c8	 xorps	 xmm1, xmm0
  00015	f3 0f 11 08	 movss	 DWORD PTR [eax], xmm1
  00019	f3 0f 10 49 04	 movss	 xmm1, DWORD PTR [ecx+4]
  0001e	0f 57 c8	 xorps	 xmm1, xmm0
  00021	f3 0f 11 48 04	 movss	 DWORD PTR [eax+4], xmm1
  00026	f3 0f 10 49 08	 movss	 xmm1, DWORD PTR [ecx+8]
  0002b	0f 57 c8	 xorps	 xmm1, xmm0
  0002e	f3 0f 11 48 08	 movss	 DWORD PTR [eax+8], xmm1

; 374  : }

  00033	5d		 pop	 ebp
  00034	c2 04 00	 ret	 4
??GD3DXVECTOR3@@QBE?AU0@XZ ENDP				; D3DXVECTOR3::operator-
_TEXT	ENDS
PUBLIC	??DD3DXVECTOR3@@QBE?AU0@M@Z			; D3DXVECTOR3::operator*
; Function compile flags: /Ogsp
;	COMDAT ??DD3DXVECTOR3@@QBE?AU0@M@Z
_TEXT	SEGMENT
___$ReturnUdt$ = 8					; size = 4
_f$ = 12						; size = 4
??DD3DXVECTOR3@@QBE?AU0@M@Z PROC			; D3DXVECTOR3::operator*, COMDAT
; _this$ = ecx

; 392  : {

  00000	55		 push	 ebp
  00001	8b ec		 mov	 ebp, esp

; 393  :     return D3DXVECTOR3(x * f, y * f, z * f);

  00003	f3 0f 10 4d 0c	 movss	 xmm1, DWORD PTR _f$[ebp]
  00008	f3 0f 10 01	 movss	 xmm0, DWORD PTR [ecx]
  0000c	8b 45 08	 mov	 eax, DWORD PTR ___$ReturnUdt$[ebp]
  0000f	0f 5a c0	 cvtps2pd xmm0, xmm0
  00012	0f 5a c9	 cvtps2pd xmm1, xmm1
  00015	f2 0f 59 c1	 mulsd	 xmm0, xmm1
  00019	f3 0f 10 4d 0c	 movss	 xmm1, DWORD PTR _f$[ebp]
  0001e	66 0f 5a c0	 cvtpd2ps xmm0, xmm0
  00022	f3 0f 11 00	 movss	 DWORD PTR [eax], xmm0
  00026	f3 0f 10 41 04	 movss	 xmm0, DWORD PTR [ecx+4]
  0002b	0f 5a c0	 cvtps2pd xmm0, xmm0
  0002e	0f 5a c9	 cvtps2pd xmm1, xmm1
  00031	f2 0f 59 c1	 mulsd	 xmm0, xmm1
  00035	f3 0f 10 4d 0c	 movss	 xmm1, DWORD PTR _f$[ebp]
  0003a	66 0f 5a c0	 cvtpd2ps xmm0, xmm0
  0003e	f3 0f 11 40 04	 movss	 DWORD PTR [eax+4], xmm0
  00043	f3 0f 10 41 08	 movss	 xmm0, DWORD PTR [ecx+8]
  00048	0f 5a c0	 cvtps2pd xmm0, xmm0
  0004b	0f 5a c9	 cvtps2pd xmm1, xmm1
  0004e	f2 0f 59 c1	 mulsd	 xmm0, xmm1
  00052	66 0f 5a c0	 cvtpd2ps xmm0, xmm0
  00056	f3 0f 11 40 08	 movss	 DWORD PTR [eax+8], xmm0

; 394  : }

  0005b	5d		 pop	 ebp
  0005c	c2 08 00	 ret	 8
??DD3DXVECTOR3@@QBE?AU0@M@Z ENDP			; D3DXVECTOR3::operator*
_TEXT	ENDS
PUBLIC	??8D3DXVECTOR3@@QBEHABU0@@Z			; D3DXVECTOR3::operator==
; Function compile flags: /Ogsp
;	COMDAT ??8D3DXVECTOR3@@QBEHABU0@@Z
_TEXT	SEGMENT
_v$ = 8							; size = 4
??8D3DXVECTOR3@@QBEHABU0@@Z PROC			; D3DXVECTOR3::operator==, COMDAT
; _this$ = ecx

; 413  : {

  00000	55		 push	 ebp
  00001	8b ec		 mov	 ebp, esp

; 414  :     return x == v.x && y == v.y && z == v.z;

  00003	8b 55 08	 mov	 edx, DWORD PTR _v$[ebp]
  00006	f3 0f 10 01	 movss	 xmm0, DWORD PTR [ecx]
  0000a	f3 0f 10 0a	 movss	 xmm1, DWORD PTR [edx]
  0000e	0f 5a c0	 cvtps2pd xmm0, xmm0
  00011	0f 5a c9	 cvtps2pd xmm1, xmm1
  00014	66 0f 2e c1	 ucomisd xmm0, xmm1
  00018	9f		 lahf
  00019	f6 c4 44	 test	 ah, 68			; 00000044H
  0001c	7a 39		 jp	 SHORT $LN3@operator
  0001e	f3 0f 10 41 04	 movss	 xmm0, DWORD PTR [ecx+4]
  00023	f3 0f 10 4a 04	 movss	 xmm1, DWORD PTR [edx+4]
  00028	0f 5a c0	 cvtps2pd xmm0, xmm0
  0002b	0f 5a c9	 cvtps2pd xmm1, xmm1
  0002e	66 0f 2e c1	 ucomisd xmm0, xmm1
  00032	9f		 lahf
  00033	f6 c4 44	 test	 ah, 68			; 00000044H
  00036	7a 1f		 jp	 SHORT $LN3@operator
  00038	f3 0f 10 41 08	 movss	 xmm0, DWORD PTR [ecx+8]
  0003d	f3 0f 10 4a 08	 movss	 xmm1, DWORD PTR [edx+8]
  00042	0f 5a c0	 cvtps2pd xmm0, xmm0
  00045	0f 5a c9	 cvtps2pd xmm1, xmm1
  00048	66 0f 2e c1	 ucomisd xmm0, xmm1
  0004c	9f		 lahf
  0004d	f6 c4 44	 test	 ah, 68			; 00000044H
  00050	7a 05		 jp	 SHORT $LN3@operator
  00052	33 c0		 xor	 eax, eax
  00054	40		 inc	 eax
  00055	eb 02		 jmp	 SHORT $LN4@operator
$LN3@operator:
  00057	33 c0		 xor	 eax, eax
$LN4@operator:

; 415  : }

  00059	5d		 pop	 ebp
  0005a	c2 04 00	 ret	 4
??8D3DXVECTOR3@@QBEHABU0@@Z ENDP			; D3DXVECTOR3::operator==
_TEXT	ENDS
PUBLIC	?GetAimedSkillUse@ioBowItem2@@QBE_NXZ		; ioBowItem2::GetAimedSkillUse
; Function compile flags: /Ogsp
; File d:\lost saga for developer\youtube\tutorial\source\src\lsclient\iobowitem2.h
;	COMDAT ?GetAimedSkillUse@ioBowItem2@@QBE_NXZ
_TEXT	SEGMENT
?GetAimedSkillUse@ioBowItem2@@QBE_NXZ PROC		; ioBowItem2::GetAimedSkillUse, COMDAT
; _this$ = ecx

; 320  : 	inline bool GetAimedSkillUse() const { return m_bSetSkillAimed; }

  00000	8a 81 44 1c 00
	00		 mov	 al, BYTE PTR [ecx+7236]
  00006	c3		 ret	 0
?GetAimedSkillUse@ioBowItem2@@QBE_NXZ ENDP		; ioBowItem2::GetAimedSkillUse
_TEXT	ENDS
PUBLIC	?GetAimedDirSet@ioBowItem2@@QBE_NXZ		; ioBowItem2::GetAimedDirSet
; Function compile flags: /Ogsp
;	COMDAT ?GetAimedDirSet@ioBowItem2@@QBE_NXZ
_TEXT	SEGMENT
?GetAimedDirSet@ioBowItem2@@QBE_NXZ PROC		; ioBowItem2::GetAimedDirSet, COMDAT
; _this$ = ecx

; 321  : 	inline bool GetAimedDirSet() const { return m_bSetAimedDir; }

  00000	8a 81 45 1c 00
	00		 mov	 al, BYTE PTR [ecx+7237]
  00006	c3		 ret	 0
?GetAimedDirSet@ioBowItem2@@QBE_NXZ ENDP		; ioBowItem2::GetAimedDirSet
_TEXT	ENDS
PUBLIC	?D3DXVec3Cross@@YAPAUD3DXVECTOR3@@PAU1@PBU1@1@Z	; D3DXVec3Cross
; Function compile flags: /Ogsp
; File c:\program files (x86)\microsoft directx sdk (june 2010)\include\d3dx9math.inl
;	COMDAT ?D3DXVec3Cross@@YAPAUD3DXVECTOR3@@PAU1@PBU1@1@Z
_TEXT	SEGMENT
_v$ = -12						; size = 12
_pOut$ = 8						; size = 4
_pV1$ = 12						; size = 4
_pV2$ = 16						; size = 4
?D3DXVec3Cross@@YAPAUD3DXVECTOR3@@PAU1@PBU1@1@Z PROC	; D3DXVec3Cross, COMDAT

; 1747 : {

  00000	55		 push	 ebp
  00001	8b ec		 mov	 ebp, esp
  00003	83 ec 0c	 sub	 esp, 12			; 0000000cH

; 1757 :     v.z = pV1->x * pV2->y - pV1->y * pV2->x;
; 1758 : 
; 1759 :     *pOut = v;

  00006	56		 push	 esi
  00007	57		 push	 edi

; 1748 :     D3DXVECTOR3 v;
; 1749 : 
; 1750 : #ifdef D3DX_DEBUG
; 1751 :     if(!pOut || !pV1 || !pV2)
; 1752 :         return NULL;
; 1753 : #endif
; 1754 : 
; 1755 :     v.x = pV1->y * pV2->z - pV1->z * pV2->y;

  00008	8b 45 0c	 mov	 eax, DWORD PTR _pV1$[ebp]
  0000b	f3 0f 10 40 04	 movss	 xmm0, DWORD PTR [eax+4]
  00010	f3 0f 10 50 08	 movss	 xmm2, DWORD PTR [eax+8]
  00015	8b 4d 10	 mov	 ecx, DWORD PTR _pV2$[ebp]
  00018	f3 0f 10 49 08	 movss	 xmm1, DWORD PTR [ecx+8]
  0001d	f3 0f 10 59 04	 movss	 xmm3, DWORD PTR [ecx+4]
  00022	0f 5a e8	 cvtps2pd xmm5, xmm0
  00025	0f 5a e1	 cvtps2pd xmm4, xmm1
  00028	0f 5a f2	 cvtps2pd xmm6, xmm2
  0002b	f2 0f 59 e5	 mulsd	 xmm4, xmm5

; 1756 :     v.y = pV1->z * pV2->x - pV1->x * pV2->z;

  0002f	0f 5a d2	 cvtps2pd xmm2, xmm2
  00032	0f 5a c9	 cvtps2pd xmm1, xmm1
  00035	0f 5a eb	 cvtps2pd xmm5, xmm3
  00038	f2 0f 59 ee	 mulsd	 xmm5, xmm6
  0003c	f2 0f 5c e5	 subsd	 xmm4, xmm5
  00040	f3 0f 10 28	 movss	 xmm5, DWORD PTR [eax]

; 1757 :     v.z = pV1->x * pV2->y - pV1->y * pV2->x;
; 1758 : 
; 1759 :     *pOut = v;

  00044	8b 45 08	 mov	 eax, DWORD PTR _pOut$[ebp]
  00047	66 0f 5a e4	 cvtpd2ps xmm4, xmm4
  0004b	f3 0f 11 65 f4	 movss	 DWORD PTR _v$[ebp], xmm4
  00050	f3 0f 10 21	 movss	 xmm4, DWORD PTR [ecx]
  00054	0f 5a f4	 cvtps2pd xmm6, xmm4
  00057	f2 0f 59 f2	 mulsd	 xmm6, xmm2
  0005b	0f 5a d5	 cvtps2pd xmm2, xmm5
  0005e	f2 0f 59 d1	 mulsd	 xmm2, xmm1
  00062	f2 0f 5c f2	 subsd	 xmm6, xmm2
  00066	66 0f 5a ce	 cvtpd2ps xmm1, xmm6
  0006a	f3 0f 11 4d f8	 movss	 DWORD PTR _v$[ebp+4], xmm1
  0006f	0f 5a c0	 cvtps2pd xmm0, xmm0
  00072	0f 5a d3	 cvtps2pd xmm2, xmm3
  00075	0f 5a cd	 cvtps2pd xmm1, xmm5
  00078	f2 0f 59 ca	 mulsd	 xmm1, xmm2
  0007c	8d 75 f4	 lea	 esi, DWORD PTR _v$[ebp]
  0007f	8b f8		 mov	 edi, eax
  00081	0f 5a d4	 cvtps2pd xmm2, xmm4
  00084	f2 0f 59 d0	 mulsd	 xmm2, xmm0
  00088	f2 0f 5c ca	 subsd	 xmm1, xmm2
  0008c	66 0f 5a c1	 cvtpd2ps xmm0, xmm1
  00090	f3 0f 11 45 fc	 movss	 DWORD PTR _v$[ebp+8], xmm0
  00095	a5		 movsd
  00096	a5		 movsd
  00097	a5		 movsd
  00098	5f		 pop	 edi
  00099	5e		 pop	 esi

; 1760 :     return pOut;
; 1761 : }

  0009a	c9		 leave
  0009b	c3		 ret	 0
?D3DXVec3Cross@@YAPAUD3DXVECTOR3@@PAU1@PBU1@1@Z ENDP	; D3DXVec3Cross
_TEXT	ENDS
PUBLIC	?OnProcessState@ioFullShotSkill@@UAEXPAVioBaseChar@@PAVioPlayStage@@@Z ; ioFullShotSkill::OnProcessState
EXTRN	__imp_?GetLoopSec@ioFrameTimer@@QBEKXZ:PROC
EXTRN	__imp_?GetSingleton@ioFrameTimer@@SAAAV1@XZ:PROC
EXTRN	?CheckExtraAniJump@ioSkill@@IAEXPAVioBaseChar@@@Z:PROC ; ioSkill::CheckExtraAniJump
; Function compile flags: /Ogsp
; File d:\lost saga for developer\youtube\tutorial\source\src\lsclient\iofullshotskill.cpp
;	COMDAT ?OnProcessState@ioFullShotSkill@@UAEXPAVioBaseChar@@PAVioPlayStage@@@Z
_TEXT	SEGMENT
_pChar$ = 8						; size = 4
_pStage$ = 12						; size = 4
?OnProcessState@ioFullShotSkill@@UAEXPAVioBaseChar@@PAVioPlayStage@@@Z PROC ; ioFullShotSkill::OnProcessState, COMDAT
; _this$ = ecx

; 194  : {

  00000	55		 push	 ebp
  00001	8b ec		 mov	 ebp, esp
  00003	56		 push	 esi
  00004	8b f1		 mov	 esi, ecx

; 195  : 	if( m_dwPreDelayStartTime == 0 )

  00006	83 be 20 02 00
	00 00		 cmp	 DWORD PTR [esi+544], 0
  0000d	75 17		 jne	 SHORT $LN3@OnProcessS

; 196  : 	{
; 197  : 		CheckExtraAniJump( pChar );

  0000f	ff 75 08	 push	 DWORD PTR _pChar$[ebp]
  00012	e8 00 00 00 00	 call	 ?CheckExtraAniJump@ioSkill@@IAEXPAVioBaseChar@@@Z ; ioSkill::CheckExtraAniJump

; 198  : 		CheckAniRotate( pChar );

  00017	ff 75 08	 push	 DWORD PTR _pChar$[ebp]
  0001a	8b 06		 mov	 eax, DWORD PTR [esi]
  0001c	8b ce		 mov	 ecx, esi
  0001e	ff 90 f4 00 00
	00		 call	 DWORD PTR [eax+244]

; 199  : 		return;

  00024	eb 5c		 jmp	 SHORT $LN1@OnProcessS
$LN3@OnProcessS:
  00026	57		 push	 edi

; 200  : 	}
; 201  : 
; 202  : 	if( pChar && pChar->IsNeedProcess() )

  00027	8b 7d 08	 mov	 edi, DWORD PTR _pChar$[ebp]
  0002a	85 ff		 test	 edi, edi
  0002c	74 53		 je	 SHORT $LN6@OnProcessS
  0002e	8b 07		 mov	 eax, DWORD PTR [edi]
  00030	8b cf		 mov	 ecx, edi
  00032	ff 90 00 01 00
	00		 call	 DWORD PTR [eax+256]
  00038	84 c0		 test	 al, al
  0003a	74 45		 je	 SHORT $LN6@OnProcessS

; 203  : 	{
; 204  : 		DWORD dwPreDelay = GetPreDelayTime();

  0003c	8b 06		 mov	 eax, DWORD PTR [esi]
  0003e	53		 push	 ebx
  0003f	8b ce		 mov	 ecx, esi
  00041	ff 90 34 01 00
	00		 call	 DWORD PTR [eax+308]
  00047	8b d8		 mov	 ebx, eax

; 205  : 		if( m_dwPreDelayStartTime + dwPreDelay < FRAMEGETTIME() )

  00049	ff 15 00 00 00
	00		 call	 DWORD PTR __imp_?GetSingleton@ioFrameTimer@@SAAAV1@XZ
  0004f	8b c8		 mov	 ecx, eax
  00051	ff 15 00 00 00
	00		 call	 DWORD PTR __imp_?GetLoopSec@ioFrameTimer@@QBEKXZ
  00057	8b 8e 20 02 00
	00		 mov	 ecx, DWORD PTR [esi+544]
  0005d	03 cb		 add	 ecx, ebx
  0005f	5b		 pop	 ebx
  00060	3b c8		 cmp	 ecx, eax
  00062	73 1d		 jae	 SHORT $LN6@OnProcessS

; 206  : 		{
; 207  : 			m_dwPreDelayStartTime = 0;
; 208  : 
; 209  : 			AttackSkillFire( pChar );

  00064	8b 06		 mov	 eax, DWORD PTR [esi]
  00066	83 a6 20 02 00
	00 00		 and	 DWORD PTR [esi+544], 0
  0006d	57		 push	 edi
  0006e	8b ce		 mov	 ecx, esi
  00070	ff 90 8c 01 00
	00		 call	 DWORD PTR [eax+396]

; 210  : 			EndPreDelayEffect( pChar );

  00076	8b 06		 mov	 eax, DWORD PTR [esi]
  00078	57		 push	 edi
  00079	8b ce		 mov	 ecx, esi
  0007b	ff 90 dc 00 00
	00		 call	 DWORD PTR [eax+220]
$LN6@OnProcessS:
  00081	5f		 pop	 edi
$LN1@OnProcessS:
  00082	5e		 pop	 esi

; 211  : 		}
; 212  : 	}
; 213  : }

  00083	5d		 pop	 ebp
  00084	c2 08 00	 ret	 8
?OnProcessState@ioFullShotSkill@@UAEXPAVioBaseChar@@PAVioPlayStage@@@Z ENDP ; ioFullShotSkill::OnProcessState
_TEXT	ENDS
PUBLIC	?SetSkillActionState@ioFullShotSkill@@IAEXPAVioBaseChar@@@Z ; ioFullShotSkill::SetSkillActionState
EXTRN	?ChangeSkillWeaponMesh@ioBaseChar@@QAE_NPAVioSkill@@ABVioHashString@@_N@Z:PROC ; ioBaseChar::ChangeSkillWeaponMesh
EXTRN	__imp_?IsEmpty@ioHashString@@QBE_NXZ:PROC
; Function compile flags: /Ogsp
;	COMDAT ?SetSkillActionState@ioFullShotSkill@@IAEXPAVioBaseChar@@@Z
_TEXT	SEGMENT
_pChar$ = 8						; size = 4
?SetSkillActionState@ioFullShotSkill@@IAEXPAVioBaseChar@@@Z PROC ; ioFullShotSkill::SetSkillActionState, COMDAT
; _this$ = ecx

; 240  : {

  00000	55		 push	 ebp
  00001	8b ec		 mov	 ebp, esp
  00003	56		 push	 esi
  00004	8b f1		 mov	 esi, ecx

; 241  : 	// 사용 아이템 처리
; 242  : 	if( !m_bSetHandMesh && m_bUseItemMesh && !m_HandMesh.IsEmpty() )

  00006	80 be 0a 0f 00
	00 00		 cmp	 BYTE PTR [esi+3850], 0
  0000d	75 36		 jne	 SHORT $LN1@SetSkillAc
  0000f	80 be 08 0f 00
	00 00		 cmp	 BYTE PTR [esi+3848], 0
  00016	74 2d		 je	 SHORT $LN1@SetSkillAc
  00018	57		 push	 edi
  00019	8d be f8 0e 00
	00		 lea	 edi, DWORD PTR [esi+3832]
  0001f	8b cf		 mov	 ecx, edi
  00021	ff 15 00 00 00
	00		 call	 DWORD PTR __imp_?IsEmpty@ioHashString@@QBE_NXZ
  00027	84 c0		 test	 al, al
  00029	75 19		 jne	 SHORT $LN4@SetSkillAc

; 243  : 	{
; 244  : 		pChar->ChangeSkillWeaponMesh( this, m_HandMesh, m_bVisibleEquipMesh );

  0002b	0f b6 86 09 0f
	00 00		 movzx	 eax, BYTE PTR [esi+3849]
  00032	8b 4d 08	 mov	 ecx, DWORD PTR _pChar$[ebp]
  00035	50		 push	 eax
  00036	57		 push	 edi
  00037	56		 push	 esi
  00038	e8 00 00 00 00	 call	 ?ChangeSkillWeaponMesh@ioBaseChar@@QAE_NPAVioSkill@@ABVioHashString@@_N@Z ; ioBaseChar::ChangeSkillWeaponMesh

; 245  : 		m_bSetHandMesh = true;

  0003d	c6 86 0a 0f 00
	00 01		 mov	 BYTE PTR [esi+3850], 1
$LN4@SetSkillAc:
  00044	5f		 pop	 edi
$LN1@SetSkillAc:
  00045	5e		 pop	 esi

; 246  : 	}
; 247  : }

  00046	5d		 pop	 ebp
  00047	c2 04 00	 ret	 4
?SetSkillActionState@ioFullShotSkill@@IAEXPAVioBaseChar@@@Z ENDP ; ioFullShotSkill::SetSkillActionState
_TEXT	ENDS
PUBLIC	?ApplyExtraSkillInfo@ioFullShotSkill@@UAEXPAVioBaseChar@@PAVioPlayStage@@AAVSP2Packet@@@Z ; ioFullShotSkill::ApplyExtraSkillInfo
EXTRN	__imp_??1ioHashString@@QAE@XZ:PROC
EXTRN	__imp_??4ioHashString@@QAEAAV0@ABV0@@Z:PROC
EXTRN	??5SP2Packet@@QAEAAV0@AAVioHashString@@@Z:PROC	; SP2Packet::operator>>
EXTRN	__imp_??0ioHashString@@QAE@XZ:PROC
EXTRN	?SetRandomSeed@IORandom@@QAEXI@Z:PROC		; IORandom::SetRandomSeed
EXTRN	??5SP2Packet@@QAEAAV0@AAK@Z:PROC		; SP2Packet::operator>>
EXTRN	___CxxFrameHandler3:PROC
EXTRN	@__security_check_cookie@4:PROC
EXTRN	__EH_epilog3:PROC
EXTRN	__EH_prolog3:PROC
;	COMDAT xdata$x
xdata$x	SEGMENT
__unwindtable$?ApplyExtraSkillInfo@ioFullShotSkill@@UAEXPAVioBaseChar@@PAVioPlayStage@@AAVSP2Packet@@@Z DD 0ffffffffH
	DD	FLAT:__unwindfunclet$?ApplyExtraSkillInfo@ioFullShotSkill@@UAEXPAVioBaseChar@@PAVioPlayStage@@AAVSP2Packet@@@Z$0
__ehfuncinfo$?ApplyExtraSkillInfo@ioFullShotSkill@@UAEXPAVioBaseChar@@PAVioPlayStage@@AAVSP2Packet@@@Z DD 019930522H
	DD	01H
	DD	FLAT:__unwindtable$?ApplyExtraSkillInfo@ioFullShotSkill@@UAEXPAVioBaseChar@@PAVioPlayStage@@AAVSP2Packet@@@Z
	DD	2 DUP(00H)
	DD	2 DUP(00H)
	DD	00H
	DD	01H
; Function compile flags: /Ogsp
xdata$x	ENDS
;	COMDAT ?ApplyExtraSkillInfo@ioFullShotSkill@@UAEXPAVioBaseChar@@PAVioPlayStage@@AAVSP2Packet@@@Z
_TEXT	SEGMENT
_szMotionName$ = -28					; size = 16
__$EHRec$ = -12						; size = 12
_pChar$ = 8						; size = 4
_pStage$ = 12						; size = 4
_rkPacket$ = 16						; size = 4
?ApplyExtraSkillInfo@ioFullShotSkill@@UAEXPAVioBaseChar@@PAVioPlayStage@@AAVSP2Packet@@@Z PROC ; ioFullShotSkill::ApplyExtraSkillInfo, COMDAT
; _this$ = ecx

; 713  : {

  00000	6a 10		 push	 16			; 00000010H
  00002	b8 00 00 00 00	 mov	 eax, __ehhandler$?ApplyExtraSkillInfo@ioFullShotSkill@@UAEXPAVioBaseChar@@PAVioPlayStage@@AAVSP2Packet@@@Z
  00007	e8 00 00 00 00	 call	 __EH_prolog3
  0000c	8b f1		 mov	 esi, ecx

; 714  : 	rkPacket >> m_dwSeed;

  0000e	8b 4d 10	 mov	 ecx, DWORD PTR _rkPacket$[ebp]
  00011	8d be 38 11 00
	00		 lea	 edi, DWORD PTR [esi+4408]
  00017	57		 push	 edi
  00018	e8 00 00 00 00	 call	 ??5SP2Packet@@QAEAAV0@AAK@Z ; SP2Packet::operator>>

; 715  : 	m_SpeedRand.SetRandomSeed( m_dwSeed );

  0001d	ff 37		 push	 DWORD PTR [edi]
  0001f	8d 8e 3c 11 00
	00		 lea	 ecx, DWORD PTR [esi+4412]
  00025	e8 00 00 00 00	 call	 ?SetRandomSeed@IORandom@@QAEXI@Z ; IORandom::SetRandomSeed

; 716  : 
; 717  : 	ioHashString szMotionName;

  0002a	8d 4d e4	 lea	 ecx, DWORD PTR _szMotionName$[ebp]
  0002d	ff 15 00 00 00
	00		 call	 DWORD PTR __imp_??0ioHashString@@QAE@XZ

; 718  : 	rkPacket >> szMotionName;

  00033	8b 4d 10	 mov	 ecx, DWORD PTR _rkPacket$[ebp]
  00036	8d 45 e4	 lea	 eax, DWORD PTR _szMotionName$[ebp]
  00039	33 ff		 xor	 edi, edi
  0003b	50		 push	 eax
  0003c	89 7d fc	 mov	 DWORD PTR __$EHRec$[ebp+8], edi
  0003f	e8 00 00 00 00	 call	 ??5SP2Packet@@QAEAAV0@AAVioHashString@@@Z ; SP2Packet::operator>>

; 719  : 
; 720  : 	GetAttribute().m_AttackAnimation = szMotionName;

  00044	8d 45 e4	 lea	 eax, DWORD PTR _szMotionName$[ebp]
  00047	50		 push	 eax
  00048	8b 06		 mov	 eax, DWORD PTR [esi]
  0004a	8b ce		 mov	 ecx, esi
  0004c	ff 90 a4 01 00
	00		 call	 DWORD PTR [eax+420]
  00052	8b c8		 mov	 ecx, eax
  00054	ff 15 00 00 00
	00		 call	 DWORD PTR __imp_??4ioHashString@@QAEAAV0@ABV0@@Z

; 721  : 
; 722  : 	if( m_dwPreDelayStartTime != 0 )

  0005a	39 be 20 02 00
	00		 cmp	 DWORD PTR [esi+544], edi
  00060	74 20		 je	 SHORT $LN1@ApplyExtra

; 723  : 	{
; 724  : 		m_dwPreDelayStartTime = 0;
; 725  : 		AttackSkillFire( pChar );

  00062	ff 75 08	 push	 DWORD PTR _pChar$[ebp]
  00065	8b 06		 mov	 eax, DWORD PTR [esi]
  00067	8b ce		 mov	 ecx, esi
  00069	89 be 20 02 00
	00		 mov	 DWORD PTR [esi+544], edi
  0006f	ff 90 8c 01 00
	00		 call	 DWORD PTR [eax+396]

; 726  : 		EndPreDelayEffect( pChar );

  00075	ff 75 08	 push	 DWORD PTR _pChar$[ebp]
  00078	8b 06		 mov	 eax, DWORD PTR [esi]
  0007a	8b ce		 mov	 ecx, esi
  0007c	ff 90 dc 00 00
	00		 call	 DWORD PTR [eax+220]
$LN1@ApplyExtra:

; 727  : 	}
; 728  : }

  00082	83 4d fc ff	 or	 DWORD PTR __$EHRec$[ebp+8], -1
  00086	8d 4d e4	 lea	 ecx, DWORD PTR _szMotionName$[ebp]
  00089	ff 15 00 00 00
	00		 call	 DWORD PTR __imp_??1ioHashString@@QAE@XZ
  0008f	e8 00 00 00 00	 call	 __EH_epilog3
  00094	c2 0c 00	 ret	 12			; 0000000cH
_TEXT	ENDS
;	COMDAT text$x
text$x	SEGMENT
__unwindfunclet$?ApplyExtraSkillInfo@ioFullShotSkill@@UAEXPAVioBaseChar@@PAVioPlayStage@@AAVSP2Packet@@@Z$0:
  00000	8d 4d e4	 lea	 ecx, DWORD PTR _szMotionName$[ebp]
  00003	ff 25 00 00 00
	00		 jmp	 DWORD PTR __imp_??1ioHashString@@QAE@XZ
__ehhandler$?ApplyExtraSkillInfo@ioFullShotSkill@@UAEXPAVioBaseChar@@PAVioPlayStage@@AAVSP2Packet@@@Z:
  00009	8b 54 24 08	 mov	 edx, DWORD PTR [esp+8]
  0000d	8d 42 0c	 lea	 eax, DWORD PTR [edx+12]
  00010	8b 4a e0	 mov	 ecx, DWORD PTR [edx-32]
  00013	33 c8		 xor	 ecx, eax
  00015	e8 00 00 00 00	 call	 @__security_check_cookie@4
  0001a	b8 00 00 00 00	 mov	 eax, OFFSET __ehfuncinfo$?ApplyExtraSkillInfo@ioFullShotSkill@@UAEXPAVioBaseChar@@PAVioPlayStage@@AAVSP2Packet@@@Z
  0001f	e9 00 00 00 00	 jmp	 ___CxxFrameHandler3
text$x	ENDS
?ApplyExtraSkillInfo@ioFullShotSkill@@UAEXPAVioBaseChar@@PAVioPlayStage@@AAVSP2Packet@@@Z ENDP ; ioFullShotSkill::ApplyExtraSkillInfo
PUBLIC	?CheckUseItemMesh@ioFullShotSkill@@UAE_NXZ	; ioFullShotSkill::CheckUseItemMesh
; Function compile flags: /Ogsp
;	COMDAT ?CheckUseItemMesh@ioFullShotSkill@@UAE_NXZ
_TEXT	SEGMENT
?CheckUseItemMesh@ioFullShotSkill@@UAE_NXZ PROC		; ioFullShotSkill::CheckUseItemMesh, COMDAT
; _this$ = ecx

; 732  : 	return m_bUseItemMesh;

  00000	8a 81 08 0f 00
	00		 mov	 al, BYTE PTR [ecx+3848]

; 733  : }

  00006	c3		 ret	 0
?CheckUseItemMesh@ioFullShotSkill@@UAE_NXZ ENDP		; ioFullShotSkill::CheckUseItemMesh
_TEXT	ENDS
PUBLIC	??A?$vector@UBulletInfo@@V?$allocator@UBulletInfo@@@std@@@std@@QAEAAUBulletInfo@@I@Z ; std::vector<BulletInfo,std::allocator<BulletInfo> >::operator[]
; Function compile flags: /Ogsp
; File c:\program files (x86)\microsoft visual studio 10.0\vc\include\vector
;	COMDAT ??A?$vector@UBulletInfo@@V?$allocator@UBulletInfo@@@std@@@std@@QAEAAUBulletInfo@@I@Z
_TEXT	SEGMENT
__Pos$ = 8						; size = 4
??A?$vector@UBulletInfo@@V?$allocator@UBulletInfo@@@std@@@std@@QAEAAUBulletInfo@@I@Z PROC ; std::vector<BulletInfo,std::allocator<BulletInfo> >::operator[], COMDAT
; _this$ = ecx

; 928  : 		{	// subscript mutable sequence

  00000	55		 push	 ebp
  00001	8b ec		 mov	 ebp, esp

; 929  :  #if _ITERATOR_DEBUG_LEVEL == 2
; 930  : 		if (size() <= _Pos)
; 931  : 			{	// report error
; 932  : 			_DEBUG_ERROR("vector subscript out of range");
; 933  : 			_SCL_SECURE_OUT_OF_RANGE;
; 934  : 			}
; 935  : 
; 936  :  #elif _ITERATOR_DEBUG_LEVEL == 1
; 937  : 		_SCL_SECURE_VALIDATE_RANGE(_Pos < size());
; 938  :  #endif /* _ITERATOR_DEBUG_LEVEL */
; 939  : 
; 940  : 		return (*(this->_Myfirst + _Pos));

  00003	8b 45 08	 mov	 eax, DWORD PTR __Pos$[ebp]
  00006	6b c0 14	 imul	 eax, 20			; 00000014H
  00009	03 01		 add	 eax, DWORD PTR [ecx]

; 941  : 		}

  0000b	5d		 pop	 ebp
  0000c	c2 04 00	 ret	 4
??A?$vector@UBulletInfo@@V?$allocator@UBulletInfo@@@std@@@std@@QAEAAUBulletInfo@@I@Z ENDP ; std::vector<BulletInfo,std::allocator<BulletInfo> >::operator[]
_TEXT	ENDS
PUBLIC	?size@?$vector@UBulletInfo@@V?$allocator@UBulletInfo@@@std@@@std@@QBEIXZ ; std::vector<BulletInfo,std::allocator<BulletInfo> >::size
; Function compile flags: /Ogsp
;	COMDAT ?size@?$vector@UBulletInfo@@V?$allocator@UBulletInfo@@@std@@@std@@QBEIXZ
_TEXT	SEGMENT
?size@?$vector@UBulletInfo@@V?$allocator@UBulletInfo@@@std@@@std@@QBEIXZ PROC ; std::vector<BulletInfo,std::allocator<BulletInfo> >::size, COMDAT
; _this$ = ecx

; 879  : 		return (this->_Mylast - this->_Myfirst);

  00000	8b 41 04	 mov	 eax, DWORD PTR [ecx+4]
  00003	2b 01		 sub	 eax, DWORD PTR [ecx]
  00005	6a 14		 push	 20			; 00000014H
  00007	99		 cdq
  00008	59		 pop	 ecx
  00009	f7 f9		 idiv	 ecx

; 880  : 		}

  0000b	c3		 ret	 0
?size@?$vector@UBulletInfo@@V?$allocator@UBulletInfo@@@std@@@std@@QBEIXZ ENDP ; std::vector<BulletInfo,std::allocator<BulletInfo> >::size
_TEXT	ENDS
PUBLIC	?_Inside@?$vector@UBulletInfo@@V?$allocator@UBulletInfo@@@std@@@std@@IBE_NPBUBulletInfo@@@Z ; std::vector<BulletInfo,std::allocator<BulletInfo> >::_Inside
; Function compile flags: /Ogsp
;	COMDAT ?_Inside@?$vector@UBulletInfo@@V?$allocator@UBulletInfo@@@std@@@std@@IBE_NPBUBulletInfo@@@Z
_TEXT	SEGMENT
__Ptr$ = 8						; size = 4
?_Inside@?$vector@UBulletInfo@@V?$allocator@UBulletInfo@@@std@@@std@@IBE_NPBUBulletInfo@@@Z PROC ; std::vector<BulletInfo,std::allocator<BulletInfo> >::_Inside, COMDAT
; _this$ = ecx

; 1285 : 		{	// test if _Ptr points inside vector

  00000	55		 push	 ebp
  00001	8b ec		 mov	 ebp, esp

; 1286 : 		return (_Ptr < this->_Mylast && this->_Myfirst <= _Ptr);

  00003	8b 45 08	 mov	 eax, DWORD PTR __Ptr$[ebp]
  00006	3b 41 04	 cmp	 eax, DWORD PTR [ecx+4]
  00009	73 09		 jae	 SHORT $LN3@Inside
  0000b	39 01		 cmp	 DWORD PTR [ecx], eax
  0000d	77 05		 ja	 SHORT $LN3@Inside
  0000f	33 c0		 xor	 eax, eax
  00011	40		 inc	 eax
  00012	eb 02		 jmp	 SHORT $LN4@Inside
$LN3@Inside:
  00014	33 c0		 xor	 eax, eax
$LN4@Inside:

; 1287 : 		}

  00016	5d		 pop	 ebp
  00017	c2 04 00	 ret	 4
?_Inside@?$vector@UBulletInfo@@V?$allocator@UBulletInfo@@@std@@@std@@IBE_NPBUBulletInfo@@@Z ENDP ; std::vector<BulletInfo,std::allocator<BulletInfo> >::_Inside
_TEXT	ENDS
PUBLIC	?_Orphan_range@?$vector@UBulletInfo@@V?$allocator@UBulletInfo@@@std@@@std@@IBEXPAUBulletInfo@@0@Z ; std::vector<BulletInfo,std::allocator<BulletInfo> >::_Orphan_range
; Function compile flags: /Ogsp
;	COMDAT ?_Orphan_range@?$vector@UBulletInfo@@V?$allocator@UBulletInfo@@@std@@@std@@IBEXPAUBulletInfo@@0@Z
_TEXT	SEGMENT
___formal$ = 8						; size = 4
___formal$ = 12						; size = 4
?_Orphan_range@?$vector@UBulletInfo@@V?$allocator@UBulletInfo@@@std@@@std@@IBEXPAUBulletInfo@@0@Z PROC ; std::vector<BulletInfo,std::allocator<BulletInfo> >::_Orphan_range, COMDAT
; _this$ = ecx

; 1454 : 		}

  00000	c2 08 00	 ret	 8
?_Orphan_range@?$vector@UBulletInfo@@V?$allocator@UBulletInfo@@@std@@@std@@IBEXPAUBulletInfo@@0@Z ENDP ; std::vector<BulletInfo,std::allocator<BulletInfo> >::_Orphan_range
_TEXT	ENDS
PUBLIC	??1?$_Vector_val@UBulletInfo@@V?$allocator@UBulletInfo@@@std@@@std@@QAE@XZ ; std::_Vector_val<BulletInfo,std::allocator<BulletInfo> >::~_Vector_val<BulletInfo,std::allocator<BulletInfo> >
; Function compile flags: /Ogsp
;	COMDAT ??1?$_Vector_val@UBulletInfo@@V?$allocator@UBulletInfo@@@std@@@std@@QAE@XZ
_TEXT	SEGMENT
??1?$_Vector_val@UBulletInfo@@V?$allocator@UBulletInfo@@@std@@@std@@QAE@XZ PROC ; std::_Vector_val<BulletInfo,std::allocator<BulletInfo> >::~_Vector_val<BulletInfo,std::allocator<BulletInfo> >, COMDAT
; _this$ = ecx

; 434  : 		}

  00000	c3		 ret	 0
??1?$_Vector_val@UBulletInfo@@V?$allocator@UBulletInfo@@@std@@@std@@QAE@XZ ENDP ; std::_Vector_val<BulletInfo,std::allocator<BulletInfo> >::~_Vector_val<BulletInfo,std::allocator<BulletInfo> >
_TEXT	ENDS
PUBLIC	??0?$allocator@UBulletInfo@@@std@@QAE@XZ	; std::allocator<BulletInfo>::allocator<BulletInfo>
; Function compile flags: /Ogsp
; File c:\program files (x86)\microsoft visual studio 10.0\vc\include\xmemory
;	COMDAT ??0?$allocator@UBulletInfo@@@std@@QAE@XZ
_TEXT	SEGMENT
??0?$allocator@UBulletInfo@@@std@@QAE@XZ PROC		; std::allocator<BulletInfo>::allocator<BulletInfo>, COMDAT
; _this$ = ecx

; 161  : 	_ALLOCATOR() _THROW0()

  00000	8b c1		 mov	 eax, ecx

; 162  : 		{	// construct default allocator (do nothing)
; 163  : 		}

  00002	c3		 ret	 0
??0?$allocator@UBulletInfo@@@std@@QAE@XZ ENDP		; std::allocator<BulletInfo>::allocator<BulletInfo>
_TEXT	ENDS
PUBLIC	??0?$allocator@UBulletInfo@@@std@@QAE@ABV01@@Z	; std::allocator<BulletInfo>::allocator<BulletInfo>
; Function compile flags: /Ogsp
;	COMDAT ??0?$allocator@UBulletInfo@@@std@@QAE@ABV01@@Z
_TEXT	SEGMENT
___formal$ = 8						; size = 4
??0?$allocator@UBulletInfo@@@std@@QAE@ABV01@@Z PROC	; std::allocator<BulletInfo>::allocator<BulletInfo>, COMDAT
; _this$ = ecx

; 165  : 	_ALLOCATOR(const _ALLOCATOR<_Ty>&) _THROW0()

  00000	8b c1		 mov	 eax, ecx

; 166  : 		{	// construct by copying (do nothing)
; 167  : 		}

  00002	c2 04 00	 ret	 4
??0?$allocator@UBulletInfo@@@std@@QAE@ABV01@@Z ENDP	; std::allocator<BulletInfo>::allocator<BulletInfo>
_TEXT	ENDS
PUBLIC	?capacity@?$vector@UBulletInfo@@V?$allocator@UBulletInfo@@@std@@@std@@QBEIXZ ; std::vector<BulletInfo,std::allocator<BulletInfo> >::capacity
; Function compile flags: /Ogsp
; File c:\program files (x86)\microsoft visual studio 10.0\vc\include\vector
;	COMDAT ?capacity@?$vector@UBulletInfo@@V?$allocator@UBulletInfo@@@std@@@std@@QBEIXZ
_TEXT	SEGMENT
?capacity@?$vector@UBulletInfo@@V?$allocator@UBulletInfo@@@std@@@std@@QBEIXZ PROC ; std::vector<BulletInfo,std::allocator<BulletInfo> >::capacity, COMDAT
; _this$ = ecx

; 777  : 		return (this->_Myend - this->_Myfirst);

  00000	8b 41 08	 mov	 eax, DWORD PTR [ecx+8]
  00003	2b 01		 sub	 eax, DWORD PTR [ecx]
  00005	6a 14		 push	 20			; 00000014H
  00007	99		 cdq
  00008	59		 pop	 ecx
  00009	f7 f9		 idiv	 ecx

; 778  : 		}

  0000b	c3		 ret	 0
?capacity@?$vector@UBulletInfo@@V?$allocator@UBulletInfo@@@std@@@std@@QBEIXZ ENDP ; std::vector<BulletInfo,std::allocator<BulletInfo> >::capacity
_TEXT	ENDS
PUBLIC	??_C@_0BD@OLBABOEK@vector?$DMT?$DO?5too?5long?$AA@ ; `string'
PUBLIC	?_Xlen@?$vector@UBulletInfo@@V?$allocator@UBulletInfo@@@std@@@std@@IBEXXZ ; std::vector<BulletInfo,std::allocator<BulletInfo> >::_Xlen
EXTRN	__imp_?_Xlength_error@std@@YAXPBD@Z:PROC
;	COMDAT ??_C@_0BD@OLBABOEK@vector?$DMT?$DO?5too?5long?$AA@
CONST	SEGMENT
??_C@_0BD@OLBABOEK@vector?$DMT?$DO?5too?5long?$AA@ DB 'vector<T> too long'
	DB	00H						; `string'
; Function compile flags: /Ogsp
CONST	ENDS
;	COMDAT ?_Xlen@?$vector@UBulletInfo@@V?$allocator@UBulletInfo@@@std@@@std@@IBEXXZ
_TEXT	SEGMENT
?_Xlen@?$vector@UBulletInfo@@V?$allocator@UBulletInfo@@@std@@@std@@IBEXXZ PROC ; std::vector<BulletInfo,std::allocator<BulletInfo> >::_Xlen, COMDAT
; _this$ = ecx

; 1427 : 		_Xlength_error("vector<T> too long");

  00000	68 00 00 00 00	 push	 OFFSET ??_C@_0BD@OLBABOEK@vector?$DMT?$DO?5too?5long?$AA@
  00005	ff 15 00 00 00
	00		 call	 DWORD PTR __imp_?_Xlength_error@std@@YAXPBD@Z
$LN4@Xlen:
$LN3@Xlen:
  0000b	cc		 int	 3
?_Xlen@?$vector@UBulletInfo@@V?$allocator@UBulletInfo@@@std@@@std@@IBEXXZ ENDP ; std::vector<BulletInfo,std::allocator<BulletInfo> >::_Xlen
_TEXT	ENDS
PUBLIC	?deallocate@?$allocator@UBulletInfo@@@std@@QAEXPAUBulletInfo@@I@Z ; std::allocator<BulletInfo>::deallocate
; Function compile flags: /Ogsp
; File c:\program files (x86)\microsoft visual studio 10.0\vc\include\xmemory
;	COMDAT ?deallocate@?$allocator@UBulletInfo@@@std@@QAEXPAUBulletInfo@@I@Z
_TEXT	SEGMENT
__Ptr$ = 8						; size = 4
___formal$ = 12						; size = 4
?deallocate@?$allocator@UBulletInfo@@@std@@QAEXPAUBulletInfo@@I@Z PROC ; std::allocator<BulletInfo>::deallocate, COMDAT
; _this$ = ecx

; 181  : 		{	// deallocate object at _Ptr, ignore size

  00000	55		 push	 ebp
  00001	8b ec		 mov	 ebp, esp

; 182  : 		::operator delete(_Ptr);

  00003	ff 75 08	 push	 DWORD PTR __Ptr$[ebp]
  00006	e8 00 00 00 00	 call	 ??3@YAXPAX@Z		; operator delete
  0000b	59		 pop	 ecx

; 183  : 		}

  0000c	5d		 pop	 ebp
  0000d	c2 08 00	 ret	 8
?deallocate@?$allocator@UBulletInfo@@@std@@QAEXPAUBulletInfo@@I@Z ENDP ; std::allocator<BulletInfo>::deallocate
_TEXT	ENDS
PUBLIC	??0?$_Vector_const_iterator@V?$_Vector_val@UBulletInfo@@V?$allocator@UBulletInfo@@@std@@@std@@@std@@QAE@PAUBulletInfo@@PBU_Container_base0@1@@Z ; std::_Vector_const_iterator<std::_Vector_val<BulletInfo,std::allocator<BulletInfo> > >::_Vector_const_iterator<std::_Vector_val<BulletInfo,std::allocator<BulletInfo> > >
; Function compile flags: /Ogsp
; File c:\program files (x86)\microsoft visual studio 10.0\vc\include\vector
;	COMDAT ??0?$_Vector_const_iterator@V?$_Vector_val@UBulletInfo@@V?$allocator@UBulletInfo@@@std@@@std@@@std@@QAE@PAUBulletInfo@@PBU_Container_base0@1@@Z
_TEXT	SEGMENT
__Parg$ = 8						; size = 4
__Pvector$ = 12						; size = 4
??0?$_Vector_const_iterator@V?$_Vector_val@UBulletInfo@@V?$allocator@UBulletInfo@@@std@@@std@@@std@@QAE@PAUBulletInfo@@PBU_Container_base0@1@@Z PROC ; std::_Vector_const_iterator<std::_Vector_val<BulletInfo,std::allocator<BulletInfo> > >::_Vector_const_iterator<std::_Vector_val<BulletInfo,std::allocator<BulletInfo> > >, COMDAT
; _this$ = ecx

; 45   : 		{	// construct with pointer _Parg

  00000	55		 push	 ebp
  00001	8b ec		 mov	 ebp, esp
  00003	8b c1		 mov	 eax, ecx
  00005	8b 4d 08	 mov	 ecx, DWORD PTR __Parg$[ebp]
  00008	89 08		 mov	 DWORD PTR [eax], ecx

; 46   : 		this->_Adopt(_Pvector);
; 47   : 		}

  0000a	5d		 pop	 ebp
  0000b	c2 08 00	 ret	 8
??0?$_Vector_const_iterator@V?$_Vector_val@UBulletInfo@@V?$allocator@UBulletInfo@@@std@@@std@@@std@@QAE@PAUBulletInfo@@PBU_Container_base0@1@@Z ENDP ; std::_Vector_const_iterator<std::_Vector_val<BulletInfo,std::allocator<BulletInfo> > >::_Vector_const_iterator<std::_Vector_val<BulletInfo,std::allocator<BulletInfo> > >
_TEXT	ENDS
PUBLIC	??0?$_Vector_iterator@V?$_Vector_val@UBulletInfo@@V?$allocator@UBulletInfo@@@std@@@std@@@std@@QAE@PAUBulletInfo@@PBU_Container_base0@1@@Z ; std::_Vector_iterator<std::_Vector_val<BulletInfo,std::allocator<BulletInfo> > >::_Vector_iterator<std::_Vector_val<BulletInfo,std::allocator<BulletInfo> > >
; Function compile flags: /Ogsp
;	COMDAT ??0?$_Vector_iterator@V?$_Vector_val@UBulletInfo@@V?$allocator@UBulletInfo@@@std@@@std@@@std@@QAE@PAUBulletInfo@@PBU_Container_base0@1@@Z
_TEXT	SEGMENT
__Parg$ = 8						; size = 4
__Pvector$ = 12						; size = 4
??0?$_Vector_iterator@V?$_Vector_val@UBulletInfo@@V?$allocator@UBulletInfo@@@std@@@std@@@std@@QAE@PAUBulletInfo@@PBU_Container_base0@1@@Z PROC ; std::_Vector_iterator<std::_Vector_val<BulletInfo,std::allocator<BulletInfo> > >::_Vector_iterator<std::_Vector_val<BulletInfo,std::allocator<BulletInfo> > >, COMDAT
; _this$ = ecx

; 304  : 		{	// construct with pointer _Parg

  00000	55		 push	 ebp
  00001	8b ec		 mov	 ebp, esp
  00003	8b c1		 mov	 eax, ecx
  00005	8b 4d 08	 mov	 ecx, DWORD PTR __Parg$[ebp]
  00008	89 08		 mov	 DWORD PTR [eax], ecx

; 305  : 		}

  0000a	5d		 pop	 ebp
  0000b	c2 08 00	 ret	 8
??0?$_Vector_iterator@V?$_Vector_val@UBulletInfo@@V?$allocator@UBulletInfo@@@std@@@std@@@std@@QAE@PAUBulletInfo@@PBU_Container_base0@1@@Z ENDP ; std::_Vector_iterator<std::_Vector_val<BulletInfo,std::allocator<BulletInfo> > >::_Vector_iterator<std::_Vector_val<BulletInfo,std::allocator<BulletInfo> > >
_TEXT	ENDS
PUBLIC	?max_size@?$allocator@UBulletInfo@@@std@@QBEIXZ	; std::allocator<BulletInfo>::max_size
; Function compile flags: /Ogsp
; File c:\program files (x86)\microsoft visual studio 10.0\vc\include\xmemory
;	COMDAT ?max_size@?$allocator@UBulletInfo@@@std@@QBEIXZ
_TEXT	SEGMENT
?max_size@?$allocator@UBulletInfo@@@std@@QBEIXZ PROC	; std::allocator<BulletInfo>::max_size, COMDAT
; _this$ = ecx

; 218  : 		_SIZT _Count = (_SIZT)(-1) / sizeof (_Ty);
; 219  : 		return (0 < _Count ? _Count : 1);

  00000	b8 cc cc cc 0c	 mov	 eax, 214748364		; 0cccccccH

; 220  : 		}

  00005	c3		 ret	 0
?max_size@?$allocator@UBulletInfo@@@std@@QBEIXZ ENDP	; std::allocator<BulletInfo>::max_size
_TEXT	ENDS
PUBLIC	?_Compat@?$_Vector_const_iterator@V?$_Vector_val@UBulletInfo@@V?$allocator@UBulletInfo@@@std@@@std@@@std@@QBEXABV12@@Z ; std::_Vector_const_iterator<std::_Vector_val<BulletInfo,std::allocator<BulletInfo> > >::_Compat
; Function compile flags: /Ogsp
; File c:\program files (x86)\microsoft visual studio 10.0\vc\include\vector
;	COMDAT ?_Compat@?$_Vector_const_iterator@V?$_Vector_val@UBulletInfo@@V?$allocator@UBulletInfo@@@std@@@std@@@std@@QBEXABV12@@Z
_TEXT	SEGMENT
___formal$ = 8						; size = 4
?_Compat@?$_Vector_const_iterator@V?$_Vector_val@UBulletInfo@@V?$allocator@UBulletInfo@@@std@@@std@@@std@@QBEXABV12@@Z PROC ; std::_Vector_const_iterator<std::_Vector_val<BulletInfo,std::allocator<BulletInfo> > >::_Compat, COMDAT
; _this$ = ecx

; 253  : 		}

  00000	c2 04 00	 ret	 4
?_Compat@?$_Vector_const_iterator@V?$_Vector_val@UBulletInfo@@V?$allocator@UBulletInfo@@@std@@@std@@@std@@QBEXABV12@@Z ENDP ; std::_Vector_const_iterator<std::_Vector_val<BulletInfo,std::allocator<BulletInfo> > >::_Compat
_TEXT	ENDS
PUBLIC	__real@3f91df46a2526c7a
PUBLIC	??$DEGtoRAD@M@@YAMM@Z				; DEGtoRAD<float>
;	COMDAT __real@3f91df46a2526c7a
; File d:\lost saga for developer\youtube\tutorial\source\src\lsclient\veryoftenusedefine.h
CONST	SEGMENT
__real@3f91df46a2526c7a DQ 03f91df46a2526c7ar	; 0.0174533
; Function compile flags: /Ogsp
CONST	ENDS
;	COMDAT ??$DEGtoRAD@M@@YAMM@Z
_TEXT	SEGMENT
tv129 = 8						; size = 4
_val$ = 8						; size = 4
??$DEGtoRAD@M@@YAMM@Z PROC				; DEGtoRAD<float>, COMDAT

; 20   : type  DEGtoRAD (type val) {return (type) (val * 0.0174532925199);}

  00000	55		 push	 ebp
  00001	8b ec		 mov	 ebp, esp
  00003	d9 45 08	 fld	 DWORD PTR _val$[ebp]
  00006	dc 0d 00 00 00
	00		 fmul	 QWORD PTR __real@3f91df46a2526c7a
  0000c	d9 5d 08	 fstp	 DWORD PTR tv129[ebp]
  0000f	d9 45 08	 fld	 DWORD PTR tv129[ebp]
  00012	5d		 pop	 ebp
  00013	c3		 ret	 0
??$DEGtoRAD@M@@YAMM@Z ENDP				; DEGtoRAD<float>
_TEXT	ENDS
PUBLIC	??$addressof@$$CBUBulletInfo@@@std@@YAPBUBulletInfo@@ABU1@@Z ; std::addressof<BulletInfo const >
; Function compile flags: /Ogsp
; File c:\program files (x86)\microsoft visual studio 10.0\vc\include\xmemory
;	COMDAT ??$addressof@$$CBUBulletInfo@@@std@@YAPBUBulletInfo@@ABU1@@Z
_TEXT	SEGMENT
__Val$ = 8						; size = 4
??$addressof@$$CBUBulletInfo@@@std@@YAPBUBulletInfo@@ABU1@@Z PROC ; std::addressof<BulletInfo const >, COMDAT

; 110  : 	{	// return address of _Val

  00000	55		 push	 ebp
  00001	8b ec		 mov	 ebp, esp

; 111  : 	return ((_Ty *) &(char&)_Val);

  00003	8b 45 08	 mov	 eax, DWORD PTR __Val$[ebp]

; 112  : 	}

  00006	5d		 pop	 ebp
  00007	c3		 ret	 0
??$addressof@$$CBUBulletInfo@@@std@@YAPBUBulletInfo@@ABU1@@Z ENDP ; std::addressof<BulletInfo const >
_TEXT	ENDS
PUBLIC	__TI2?AVbad_alloc@std@@
PUBLIC	??$_Allocate@UBulletInfo@@@std@@YAPAUBulletInfo@@IPAU1@@Z ; std::_Allocate<BulletInfo>
PUBLIC	__CTA2?AVbad_alloc@std@@
PUBLIC	__CT??_R0?AVbad_alloc@std@@@8??0bad_alloc@std@@QAE@ABV01@@Z12
PUBLIC	??0bad_alloc@std@@QAE@ABV01@@Z			; std::bad_alloc::bad_alloc
PUBLIC	__CT??_R0?AVexception@std@@@8??0exception@std@@QAE@ABV01@@Z12
EXTRN	??2@YAPAXI@Z:PROC				; operator new
EXTRN	__CxxThrowException@8:PROC
EXTRN	??0exception@std@@QAE@ABV01@@Z:PROC		; std::exception::exception
;	COMDAT __CT??_R0?AVexception@std@@@8??0exception@std@@QAE@ABV01@@Z12
; File c:\program files (x86)\microsoft visual studio 10.0\vc\include\exception
xdata$x	SEGMENT
__CT??_R0?AVexception@std@@@8??0exception@std@@QAE@ABV01@@Z12 DD 00H
	DD	FLAT:??_R0?AVexception@std@@@8
	DD	00H
	DD	0ffffffffH
	ORG $+4
	DD	0cH
	DD	FLAT:??0exception@std@@QAE@ABV01@@Z
xdata$x	ENDS
;	COMDAT __CT??_R0?AVbad_alloc@std@@@8??0bad_alloc@std@@QAE@ABV01@@Z12
xdata$x	SEGMENT
__CT??_R0?AVbad_alloc@std@@@8??0bad_alloc@std@@QAE@ABV01@@Z12 DD 00H
	DD	FLAT:??_R0?AVbad_alloc@std@@@8
	DD	00H
	DD	0ffffffffH
	ORG $+4
	DD	0cH
	DD	FLAT:??0bad_alloc@std@@QAE@ABV01@@Z
xdata$x	ENDS
;	COMDAT __CTA2?AVbad_alloc@std@@
xdata$x	SEGMENT
__CTA2?AVbad_alloc@std@@ DD 02H
	DD	FLAT:__CT??_R0?AVbad_alloc@std@@@8??0bad_alloc@std@@QAE@ABV01@@Z12
	DD	FLAT:__CT??_R0?AVexception@std@@@8??0exception@std@@QAE@ABV01@@Z12
xdata$x	ENDS
;	COMDAT __TI2?AVbad_alloc@std@@
xdata$x	SEGMENT
__TI2?AVbad_alloc@std@@ DD 00H
	DD	FLAT:??1bad_alloc@std@@UAE@XZ
	DD	00H
	DD	FLAT:__CTA2?AVbad_alloc@std@@
; Function compile flags: /Ogsp
; File c:\program files (x86)\microsoft visual studio 10.0\vc\include\xmemory
xdata$x	ENDS
;	COMDAT ??$_Allocate@UBulletInfo@@@std@@YAPAUBulletInfo@@IPAU1@@Z
_TEXT	SEGMENT
$T606270 = -12						; size = 12
$T606275 = 8						; size = 4
__Count$ = 8						; size = 4
___formal$ = 12						; size = 4
??$_Allocate@UBulletInfo@@@std@@YAPAUBulletInfo@@IPAU1@@Z PROC ; std::_Allocate<BulletInfo>, COMDAT

; 30   : 	{	// allocate storage for _Count elements of type _Ty

  00000	55		 push	 ebp
  00001	8b ec		 mov	 ebp, esp

; 31   : 	void *_Ptr = 0;
; 32   : 
; 33   : 	if (_Count <= 0)

  00003	8b 4d 08	 mov	 ecx, DWORD PTR __Count$[ebp]
  00006	83 ec 0c	 sub	 esp, 12			; 0000000cH
  00009	33 c0		 xor	 eax, eax
  0000b	85 c9		 test	 ecx, ecx

; 34   : 		_Count = 0;
; 35   : 	else if (((_SIZT)(-1) / sizeof (_Ty) < _Count)

  0000d	74 3c		 je	 SHORT $LN5@Allocate

; 36   : 		|| (_Ptr = ::operator new(_Count * sizeof (_Ty))) == 0)

  0000f	81 f9 cc cc cc
	0c		 cmp	 ecx, 214748364		; 0cccccccH
  00015	77 0e		 ja	 SHORT $LN1@Allocate
  00017	6b c9 14	 imul	 ecx, 20			; 00000014H
  0001a	51		 push	 ecx
  0001b	e8 00 00 00 00	 call	 ??2@YAPAXI@Z		; operator new
  00020	59		 pop	 ecx
  00021	85 c0		 test	 eax, eax

; 38   : 
; 39   : 	return ((_Ty _FARQ *)_Ptr);

  00023	75 26		 jne	 SHORT $LN5@Allocate
$LN1@Allocate:

; 37   : 		_THROW_NCEE(bad_alloc, 0);

  00025	83 65 08 00	 and	 DWORD PTR $T606275[ebp], 0
  00029	8d 45 08	 lea	 eax, DWORD PTR $T606275[ebp]
  0002c	50		 push	 eax
  0002d	8d 4d f4	 lea	 ecx, DWORD PTR $T606270[ebp]
  00030	ff 15 00 00 00
	00		 call	 DWORD PTR __imp_??0exception@std@@QAE@ABQBD@Z
  00036	68 00 00 00 00	 push	 OFFSET __TI2?AVbad_alloc@std@@
  0003b	8d 45 f4	 lea	 eax, DWORD PTR $T606270[ebp]
  0003e	50		 push	 eax
  0003f	c7 45 f4 00 00
	00 00		 mov	 DWORD PTR $T606270[ebp], OFFSET ??_7bad_alloc@std@@6B@
  00046	e8 00 00 00 00	 call	 __CxxThrowException@8
$LN10@Allocate:
$LN5@Allocate:

; 40   : 	}

  0004b	c9		 leave
  0004c	c3		 ret	 0
$LN9@Allocate:
??$_Allocate@UBulletInfo@@@std@@YAPAUBulletInfo@@IPAU1@@Z ENDP ; std::_Allocate<BulletInfo>
_TEXT	ENDS
PUBLIC	??$forward@AAUBulletInfo@@@std@@YAAAUBulletInfo@@AAU1@@Z ; std::forward<BulletInfo &>
; Function compile flags: /Ogsp
; File c:\program files (x86)\microsoft visual studio 10.0\vc\include\utility
;	COMDAT ??$forward@AAUBulletInfo@@@std@@YAAAUBulletInfo@@AAU1@@Z
_TEXT	SEGMENT
__Arg$ = 8						; size = 4
??$forward@AAUBulletInfo@@@std@@YAAAUBulletInfo@@AAU1@@Z PROC ; std::forward<BulletInfo &>, COMDAT

; 78   : 	{	// forward _Arg, given explicitly specified type parameter

  00000	55		 push	 ebp
  00001	8b ec		 mov	 ebp, esp

; 79   : 	return ((_Ty&&)_Arg);

  00003	8b 45 08	 mov	 eax, DWORD PTR __Arg$[ebp]

; 80   : 	}

  00006	5d		 pop	 ebp
  00007	c3		 ret	 0
??$forward@AAUBulletInfo@@@std@@YAAAUBulletInfo@@AAU1@@Z ENDP ; std::forward<BulletInfo &>
_TEXT	ENDS
PUBLIC	??$construct@AAUBulletInfo@@@?$allocator@UBulletInfo@@@std@@QAEXPAUBulletInfo@@AAU2@@Z ; std::allocator<BulletInfo>::construct<BulletInfo &>
; Function compile flags: /Ogsp
; File c:\program files (x86)\microsoft visual studio 10.0\vc\include\xmemory
;	COMDAT ??$construct@AAUBulletInfo@@@?$allocator@UBulletInfo@@@std@@QAEXPAUBulletInfo@@AAU2@@Z
_TEXT	SEGMENT
__Ptr$ = 8						; size = 4
__Val$ = 12						; size = 4
??$construct@AAUBulletInfo@@@?$allocator@UBulletInfo@@@std@@QAEXPAUBulletInfo@@AAU2@@Z PROC ; std::allocator<BulletInfo>::construct<BulletInfo &>, COMDAT
; _this$ = ecx

; 206  : 		void construct(pointer _Ptr, _Other&& _Val)

  00000	55		 push	 ebp
  00001	8b ec		 mov	 ebp, esp
  00003	57		 push	 edi

; 207  : 		{	// construct object at _Ptr with value _Val
; 208  : 		::new ((void _FARQ *)_Ptr) _Ty(_STD forward<_Other>(_Val));

  00004	8b 7d 08	 mov	 edi, DWORD PTR __Ptr$[ebp]
  00007	85 ff		 test	 edi, edi
  00009	74 0a		 je	 SHORT $LN3@construct
  0000b	56		 push	 esi
  0000c	8b 75 0c	 mov	 esi, DWORD PTR __Val$[ebp]
  0000f	6a 05		 push	 5
  00011	59		 pop	 ecx
  00012	f3 a5		 rep movsd
  00014	5e		 pop	 esi
$LN3@construct:
  00015	5f		 pop	 edi

; 209  : 		}

  00016	5d		 pop	 ebp
  00017	c2 08 00	 ret	 8
??$construct@AAUBulletInfo@@@?$allocator@UBulletInfo@@@std@@QAEXPAUBulletInfo@@AAU2@@Z ENDP ; std::allocator<BulletInfo>::construct<BulletInfo &>
_TEXT	ENDS
PUBLIC	??$forward@ABUBulletInfo@@@std@@YAABUBulletInfo@@ABU1@@Z ; std::forward<BulletInfo const &>
; Function compile flags: /Ogsp
; File c:\program files (x86)\microsoft visual studio 10.0\vc\include\utility
;	COMDAT ??$forward@ABUBulletInfo@@@std@@YAABUBulletInfo@@ABU1@@Z
_TEXT	SEGMENT
__Arg$ = 8						; size = 4
??$forward@ABUBulletInfo@@@std@@YAABUBulletInfo@@ABU1@@Z PROC ; std::forward<BulletInfo const &>, COMDAT

; 78   : 	{	// forward _Arg, given explicitly specified type parameter

  00000	55		 push	 ebp
  00001	8b ec		 mov	 ebp, esp

; 79   : 	return ((_Ty&&)_Arg);

  00003	8b 45 08	 mov	 eax, DWORD PTR __Arg$[ebp]

; 80   : 	}

  00006	5d		 pop	 ebp
  00007	c3		 ret	 0
??$forward@ABUBulletInfo@@@std@@YAABUBulletInfo@@ABU1@@Z ENDP ; std::forward<BulletInfo const &>
_TEXT	ENDS
PUBLIC	??$_Ptr_cat@UBulletInfo@@U1@@std@@YA?AU_Nonscalar_ptr_iterator_tag@0@PAUBulletInfo@@0@Z ; std::_Ptr_cat<BulletInfo,BulletInfo>
; Function compile flags: /Ogsp
; File c:\program files (x86)\microsoft visual studio 10.0\vc\include\xutility
;	COMDAT ??$_Ptr_cat@UBulletInfo@@U1@@std@@YA?AU_Nonscalar_ptr_iterator_tag@0@PAUBulletInfo@@0@Z
_TEXT	SEGMENT
__Cat$ = -1						; size = 1
___formal$ = 8						; size = 4
___formal$ = 12						; size = 4
??$_Ptr_cat@UBulletInfo@@U1@@std@@YA?AU_Nonscalar_ptr_iterator_tag@0@PAUBulletInfo@@0@Z PROC ; std::_Ptr_cat<BulletInfo,BulletInfo>, COMDAT

; 516  : 	{	// return pointer category from pointers

  00000	55		 push	 ebp
  00001	8b ec		 mov	 ebp, esp
  00003	51		 push	 ecx

; 517  : 	typename _Ptr_cat_helper<_Elem1, _Elem2>::_Type _Cat;
; 518  : 	return (_Cat);

  00004	8a 45 ff	 mov	 al, BYTE PTR __Cat$[ebp]

; 519  : 	}

  00007	c9		 leave
  00008	c3		 ret	 0
??$_Ptr_cat@UBulletInfo@@U1@@std@@YA?AU_Nonscalar_ptr_iterator_tag@0@PAUBulletInfo@@0@Z ENDP ; std::_Ptr_cat<BulletInfo,BulletInfo>
_TEXT	ENDS
PUBLIC	??$_Construct@UBulletInfo@@ABU1@@std@@YAXPAUBulletInfo@@ABU1@@Z ; std::_Construct<BulletInfo,BulletInfo const &>
; Function compile flags: /Ogsp
; File c:\program files (x86)\microsoft visual studio 10.0\vc\include\xmemory
;	COMDAT ??$_Construct@UBulletInfo@@ABU1@@std@@YAXPAUBulletInfo@@ABU1@@Z
_TEXT	SEGMENT
__Ptr$ = 8						; size = 4
__Val$ = 12						; size = 4
??$_Construct@UBulletInfo@@ABU1@@std@@YAXPAUBulletInfo@@ABU1@@Z PROC ; std::_Construct<BulletInfo,BulletInfo const &>, COMDAT

; 46   : 	{	// construct object at _Ptr with value _Val

  00000	55		 push	 ebp
  00001	8b ec		 mov	 ebp, esp
  00003	57		 push	 edi

; 47   : 	void _FARQ *_Vptr = _Ptr;
; 48   : 	::new (_Vptr) _Ty1(_STD forward<_Ty2>(_Val));

  00004	8b 7d 08	 mov	 edi, DWORD PTR __Ptr$[ebp]
  00007	85 ff		 test	 edi, edi
  00009	74 0a		 je	 SHORT $LN3@Construct
  0000b	56		 push	 esi
  0000c	8b 75 0c	 mov	 esi, DWORD PTR __Val$[ebp]
  0000f	6a 05		 push	 5
  00011	59		 pop	 ecx
  00012	f3 a5		 rep movsd
  00014	5e		 pop	 esi
$LN3@Construct:
  00015	5f		 pop	 edi

; 49   : 	}

  00016	5d		 pop	 ebp
  00017	c3		 ret	 0
??$_Construct@UBulletInfo@@ABU1@@std@@YAXPAUBulletInfo@@ABU1@@Z ENDP ; std::_Construct<BulletInfo,BulletInfo const &>
_TEXT	ENDS
PUBLIC	??$_Ptr_cat@V?$_Vector_const_iterator@V?$_Vector_val@UBulletInfo@@V?$allocator@UBulletInfo@@@std@@@std@@@std@@PAUBulletInfo@@@std@@YA?AU_Nonscalar_ptr_iterator_tag@0@AAV?$_Vector_const_iterator@V?$_Vector_val@UBulletInfo@@V?$allocator@UBulletInfo@@@std@@@std@@@0@AAPAUBulletInfo@@@Z ; std::_Ptr_cat<std::_Vector_const_iterator<std::_Vector_val<BulletInfo,std::allocator<BulletInfo> > >,BulletInfo *>
; Function compile flags: /Ogsp
; File c:\program files (x86)\microsoft visual studio 10.0\vc\include\xutility
;	COMDAT ??$_Ptr_cat@V?$_Vector_const_iterator@V?$_Vector_val@UBulletInfo@@V?$allocator@UBulletInfo@@@std@@@std@@@std@@PAUBulletInfo@@@std@@YA?AU_Nonscalar_ptr_iterator_tag@0@AAV?$_Vector_const_iterator@V?$_Vector_val@UBulletInfo@@V?$allocator@UBulletInfo@@@std@@@std@@@0@AAPAUBulletInfo@@@Z
_TEXT	SEGMENT
__Cat$ = -1						; size = 1
___formal$ = 8						; size = 4
___formal$ = 12						; size = 4
??$_Ptr_cat@V?$_Vector_const_iterator@V?$_Vector_val@UBulletInfo@@V?$allocator@UBulletInfo@@@std@@@std@@@std@@PAUBulletInfo@@@std@@YA?AU_Nonscalar_ptr_iterator_tag@0@AAV?$_Vector_const_iterator@V?$_Vector_val@UBulletInfo@@V?$allocator@UBulletInfo@@@std@@@std@@@0@AAPAUBulletInfo@@@Z PROC ; std::_Ptr_cat<std::_Vector_const_iterator<std::_Vector_val<BulletInfo,std::allocator<BulletInfo> > >,BulletInfo *>, COMDAT

; 485  : 	{	// return pointer category from arbitrary arguments

  00000	55		 push	 ebp
  00001	8b ec		 mov	 ebp, esp
  00003	51		 push	 ecx

; 486  : 	_Nonscalar_ptr_iterator_tag _Cat;
; 487  : 	return (_Cat);

  00004	8a 45 ff	 mov	 al, BYTE PTR __Cat$[ebp]

; 488  : 	}

  00007	c9		 leave
  00008	c3		 ret	 0
??$_Ptr_cat@V?$_Vector_const_iterator@V?$_Vector_val@UBulletInfo@@V?$allocator@UBulletInfo@@@std@@@std@@@std@@PAUBulletInfo@@@std@@YA?AU_Nonscalar_ptr_iterator_tag@0@AAV?$_Vector_const_iterator@V?$_Vector_val@UBulletInfo@@V?$allocator@UBulletInfo@@@std@@@std@@@0@AAPAUBulletInfo@@@Z ENDP ; std::_Ptr_cat<std::_Vector_const_iterator<std::_Vector_val<BulletInfo,std::allocator<BulletInfo> > >,BulletInfo *>
_TEXT	ENDS
PUBLIC	??$move@AAUBulletInfo@@@std@@YA$$QAUBulletInfo@@AAU1@@Z ; std::move<BulletInfo &>
; Function compile flags: /Ogsp
; File c:\program files (x86)\microsoft visual studio 10.0\vc\include\utility
;	COMDAT ??$move@AAUBulletInfo@@@std@@YA$$QAUBulletInfo@@AAU1@@Z
_TEXT	SEGMENT
__Arg$ = 8						; size = 4
??$move@AAUBulletInfo@@@std@@YA$$QAUBulletInfo@@AAU1@@Z PROC ; std::move<BulletInfo &>, COMDAT

; 86   : 	{	// forward _Arg as movable

  00000	55		 push	 ebp
  00001	8b ec		 mov	 ebp, esp

; 87   : 	return ((typename tr1::_Remove_reference<_Ty>::_Type&&)_Arg);

  00003	8b 45 08	 mov	 eax, DWORD PTR __Arg$[ebp]

; 88   : 	}

  00006	5d		 pop	 ebp
  00007	c3		 ret	 0
??$move@AAUBulletInfo@@@std@@YA$$QAUBulletInfo@@AAU1@@Z ENDP ; std::move<BulletInfo &>
_TEXT	ENDS
PUBLIC	??$_Val_type@PAUBulletInfo@@@std@@YAPAUBulletInfo@@PAU1@@Z ; std::_Val_type<BulletInfo *>
; Function compile flags: /Ogsp
; File c:\program files (x86)\microsoft visual studio 10.0\vc\include\xutility
;	COMDAT ??$_Val_type@PAUBulletInfo@@@std@@YAPAUBulletInfo@@PAU1@@Z
_TEXT	SEGMENT
___formal$ = 8						; size = 4
??$_Val_type@PAUBulletInfo@@@std@@YAPAUBulletInfo@@PAU1@@Z PROC ; std::_Val_type<BulletInfo *>, COMDAT

; 790  : 	return (0);

  00000	33 c0		 xor	 eax, eax

; 791  : 	}

  00002	c3		 ret	 0
??$_Val_type@PAUBulletInfo@@@std@@YAPAUBulletInfo@@PAU1@@Z ENDP ; std::_Val_type<BulletInfo *>
_TEXT	ENDS
PUBLIC	??D?$_Vector_const_iterator@V?$_Vector_val@UBulletInfo@@V?$allocator@UBulletInfo@@@std@@@std@@@std@@QBEABUBulletInfo@@XZ ; std::_Vector_const_iterator<std::_Vector_val<BulletInfo,std::allocator<BulletInfo> > >::operator*
; Function compile flags: /Ogsp
; File c:\program files (x86)\microsoft visual studio 10.0\vc\include\vector
;	COMDAT ??D?$_Vector_const_iterator@V?$_Vector_val@UBulletInfo@@V?$allocator@UBulletInfo@@@std@@@std@@@std@@QBEABUBulletInfo@@XZ
_TEXT	SEGMENT
??D?$_Vector_const_iterator@V?$_Vector_val@UBulletInfo@@V?$allocator@UBulletInfo@@@std@@@std@@@std@@QBEABUBulletInfo@@XZ PROC ; std::_Vector_const_iterator<std::_Vector_val<BulletInfo,std::allocator<BulletInfo> > >::operator*, COMDAT
; _this$ = ecx

; 64   :  #if _ITERATOR_DEBUG_LEVEL == 2
; 65   : 		if (this->_Getcont() == 0
; 66   : 			|| this->_Ptr == 0
; 67   : 			|| this->_Ptr < ((_Myvec *)this->_Getcont())->_Myfirst
; 68   : 			|| ((_Myvec *)this->_Getcont())->_Mylast <= this->_Ptr)
; 69   : 			{	// report error
; 70   : 			_DEBUG_ERROR("vector iterator not dereferencable");
; 71   : 			_SCL_SECURE_OUT_OF_RANGE;
; 72   : 			}
; 73   : 
; 74   :  #elif _ITERATOR_DEBUG_LEVEL == 1
; 75   : 		_SCL_SECURE_VALIDATE(this->_Getcont() != 0);
; 76   : 		_SCL_SECURE_VALIDATE_RANGE(
; 77   : 			this->_Ptr != 0
; 78   : 			&& ((_Myvec *)this->_Getcont())->_Myfirst <= this->_Ptr
; 79   : 			&& this->_Ptr < ((_Myvec *)this->_Getcont())->_Mylast);
; 80   :  #endif /* _ITERATOR_DEBUG_LEVEL */
; 81   : 
; 82   : 		__analysis_assume(this->_Ptr != 0);
; 83   : 
; 84   : 		return (*this->_Ptr);

  00000	8b 01		 mov	 eax, DWORD PTR [ecx]

; 85   : 		}

  00002	c3		 ret	 0
??D?$_Vector_const_iterator@V?$_Vector_val@UBulletInfo@@V?$allocator@UBulletInfo@@@std@@@std@@@std@@QBEABUBulletInfo@@XZ ENDP ; std::_Vector_const_iterator<std::_Vector_val<BulletInfo,std::allocator<BulletInfo> > >::operator*
_TEXT	ENDS
PUBLIC	??E?$_Vector_const_iterator@V?$_Vector_val@UBulletInfo@@V?$allocator@UBulletInfo@@@std@@@std@@@std@@QAEAAV01@XZ ; std::_Vector_const_iterator<std::_Vector_val<BulletInfo,std::allocator<BulletInfo> > >::operator++
; Function compile flags: /Ogsp
;	COMDAT ??E?$_Vector_const_iterator@V?$_Vector_val@UBulletInfo@@V?$allocator@UBulletInfo@@@std@@@std@@@std@@QAEAAV01@XZ
_TEXT	SEGMENT
??E?$_Vector_const_iterator@V?$_Vector_val@UBulletInfo@@V?$allocator@UBulletInfo@@@std@@@std@@@std@@QAEAAV01@XZ PROC ; std::_Vector_const_iterator<std::_Vector_val<BulletInfo,std::allocator<BulletInfo> > >::operator++, COMDAT
; _this$ = ecx

; 93   : 		{	// preincrement

  00000	8b c1		 mov	 eax, ecx

; 94   :  #if _ITERATOR_DEBUG_LEVEL == 2
; 95   : 		if (this->_Getcont() == 0
; 96   : 			|| this->_Ptr == 0
; 97   : 			|| ((_Myvec *)this->_Getcont())->_Mylast <= this->_Ptr)
; 98   : 			{	// report error
; 99   : 			_DEBUG_ERROR("vector iterator not incrementable");
; 100  : 			_SCL_SECURE_OUT_OF_RANGE;
; 101  : 			}
; 102  : 
; 103  :  #elif _ITERATOR_DEBUG_LEVEL == 1
; 104  : 		_SCL_SECURE_VALIDATE(this->_Getcont() != 0);
; 105  : 		_SCL_SECURE_VALIDATE_RANGE(
; 106  : 			this->_Ptr != 0
; 107  : 			&& this->_Ptr < ((_Myvec *)this->_Getcont())->_Mylast);
; 108  :  #endif /* _ITERATOR_DEBUG_LEVEL */
; 109  : 
; 110  : 		++this->_Ptr;

  00002	83 00 14	 add	 DWORD PTR [eax], 20	; 00000014H

; 111  : 		return (*this);
; 112  : 		}

  00005	c3		 ret	 0
??E?$_Vector_const_iterator@V?$_Vector_val@UBulletInfo@@V?$allocator@UBulletInfo@@@std@@@std@@@std@@QAEAAV01@XZ ENDP ; std::_Vector_const_iterator<std::_Vector_val<BulletInfo,std::allocator<BulletInfo> > >::operator++
_TEXT	ENDS
PUBLIC	??$_Destroy@UBulletInfo@@@std@@YAXPAUBulletInfo@@@Z ; std::_Destroy<BulletInfo>
; Function compile flags: /Ogsp
; File c:\program files (x86)\microsoft visual studio 10.0\vc\include\xmemory
;	COMDAT ??$_Destroy@UBulletInfo@@@std@@YAXPAUBulletInfo@@@Z
_TEXT	SEGMENT
__Ptr$ = 8						; size = 4
??$_Destroy@UBulletInfo@@@std@@YAXPAUBulletInfo@@@Z PROC ; std::_Destroy<BulletInfo>, COMDAT

; 63   : 	_Ptr->~_Ty();
; 64   : 	}

  00000	c3		 ret	 0
??$_Destroy@UBulletInfo@@@std@@YAXPAUBulletInfo@@@Z ENDP ; std::_Destroy<BulletInfo>
_TEXT	ENDS
PUBLIC	??$forward@UBulletInfo@@@std@@YA$$QAUBulletInfo@@AAU1@@Z ; std::forward<BulletInfo>
; Function compile flags: /Ogsp
; File c:\program files (x86)\microsoft visual studio 10.0\vc\include\utility
;	COMDAT ??$forward@UBulletInfo@@@std@@YA$$QAUBulletInfo@@AAU1@@Z
_TEXT	SEGMENT
__Arg$ = 8						; size = 4
??$forward@UBulletInfo@@@std@@YA$$QAUBulletInfo@@AAU1@@Z PROC ; std::forward<BulletInfo>, COMDAT

; 78   : 	{	// forward _Arg, given explicitly specified type parameter

  00000	55		 push	 ebp
  00001	8b ec		 mov	 ebp, esp

; 79   : 	return ((_Ty&&)_Arg);

  00003	8b 45 08	 mov	 eax, DWORD PTR __Arg$[ebp]

; 80   : 	}

  00006	5d		 pop	 ebp
  00007	c3		 ret	 0
??$forward@UBulletInfo@@@std@@YA$$QAUBulletInfo@@AAU1@@Z ENDP ; std::forward<BulletInfo>
_TEXT	ENDS
PUBLIC	?_DECSTR@@YAXPADH@Z				; _DECSTR
; Function compile flags: /Ogsp
; File d:\lost saga for developer\youtube\tutorial\source\src\lsclient\stringprotect.h
;	COMDAT ?_DECSTR@@YAXPADH@Z
_TEXT	SEGMENT
_s$ = 8							; size = 4
_l$ = 12						; size = 4
?_DECSTR@@YAXPADH@Z PROC				; _DECSTR, COMDAT

; 40   : __forceinline void _DECSTR(char* s, int l){int i=0,l4=(l-1)/4,*p=(int*)s;s[l-1]=0;for(;i<l4;++i)*(p++)^=0xEAEBECED;for(i=l4*4;i<l-1;++i)s[i]^=0xED-i%4;}

  00000	55		 push	 ebp
  00001	8b ec		 mov	 ebp, esp
  00003	8b 4d 0c	 mov	 ecx, DWORD PTR _l$[ebp]
  00006	56		 push	 esi
  00007	8b 75 08	 mov	 esi, DWORD PTR _s$[ebp]
  0000a	57		 push	 edi
  0000b	8d 79 ff	 lea	 edi, DWORD PTR [ecx-1]
  0000e	8b c7		 mov	 eax, edi
  00010	99		 cdq
  00011	83 e2 03	 and	 edx, 3
  00014	03 c2		 add	 eax, edx
  00016	c1 f8 02	 sar	 eax, 2
  00019	8b d6		 mov	 edx, esi
  0001b	c6 44 0e ff 00	 mov	 BYTE PTR [esi+ecx-1], 0
  00020	85 c0		 test	 eax, eax
  00022	7e 0e		 jle	 SHORT $LN4@DECSTR
  00024	8b c8		 mov	 ecx, eax
$LL6@DECSTR:
  00026	81 32 ed ec eb
	ea		 xor	 DWORD PTR [edx], -353637139 ; eaebecedH
  0002c	83 c2 04	 add	 edx, 4
  0002f	49		 dec	 ecx
  00030	75 f4		 jne	 SHORT $LL6@DECSTR
$LN4@DECSTR:
  00032	c1 e0 02	 shl	 eax, 2
  00035	eb 17		 jmp	 SHORT $LN14@DECSTR
$LL3@DECSTR:
  00037	8b c8		 mov	 ecx, eax
  00039	81 e1 03 00 00
	80		 and	 ecx, -2147483645	; 80000003H
  0003f	79 05		 jns	 SHORT $LN13@DECSTR
  00041	49		 dec	 ecx
  00042	83 c9 fc	 or	 ecx, -4			; fffffffcH
  00045	41		 inc	 ecx
$LN13@DECSTR:
  00046	b2 ed		 mov	 dl, -19			; ffffffedH
  00048	2a d1		 sub	 dl, cl
  0004a	30 14 30	 xor	 BYTE PTR [eax+esi], dl
  0004d	40		 inc	 eax
$LN14@DECSTR:
  0004e	3b c7		 cmp	 eax, edi
  00050	7c e5		 jl	 SHORT $LL3@DECSTR
  00052	5f		 pop	 edi
  00053	5e		 pop	 esi
  00054	5d		 pop	 ebp
  00055	c3		 ret	 0
?_DECSTR@@YAXPADH@Z ENDP				; _DECSTR
_TEXT	ENDS
PUBLIC	?return57@@YAIXZ				; return57
; Function compile flags: /Ogsp
; File d:\lost saga for developer\youtube\tutorial\source\src\lsclient\veryoftenusedefine.h
;	COMDAT ?return57@@YAIXZ
_TEXT	SEGMENT
?return57@@YAIXZ PROC					; return57, COMDAT

; 15   : __forceinline unsigned int return57() { __asm mov eax, 57 };

  00000	b8 39 00 00 00	 mov	 eax, 57			; 00000039H
  00005	c3		 ret	 0
?return57@@YAIXZ ENDP					; return57
_TEXT	ENDS
PUBLIC	?GetGroup@ioGameEntity@@QBEPAVioEntityGroup@@XZ	; ioGameEntity::GetGroup
; Function compile flags: /Ogsp
; File d:\lost saga for developer\youtube\tutorial\source\src\lsclient\iogameentity.h
;	COMDAT ?GetGroup@ioGameEntity@@QBEPAVioEntityGroup@@XZ
_TEXT	SEGMENT
?GetGroup@ioGameEntity@@QBEPAVioEntityGroup@@XZ PROC	; ioGameEntity::GetGroup, COMDAT
; _this$ = ecx

; 166  : 	inline ioEntityGroup* GetGroup() const { return m_pGroup; }

  00000	8b 41 04	 mov	 eax, DWORD PTR [ecx+4]
  00003	c3		 ret	 0
?GetGroup@ioGameEntity@@QBEPAVioEntityGroup@@XZ ENDP	; ioGameEntity::GetGroup
_TEXT	ENDS
PUBLIC	??_R0?AVioItem@@@8				; ioItem `RTTI Type Descriptor'
PUBLIC	??_R0?AVioAttackableItem@@@8			; ioAttackableItem `RTTI Type Descriptor'
PUBLIC	?ToAttackableItem@@YAPAVioAttackableItem@@PAVioItem@@@Z ; ToAttackableItem
;	COMDAT ??_R0?AVioItem@@@8
; File d:\lost saga for developer\youtube\tutorial\source\src\lsclient\ioattackableitem.h
_DATA	SEGMENT
??_R0?AVioItem@@@8 DD FLAT:??_7type_info@@6B@		; ioItem `RTTI Type Descriptor'
	DD	00H
	DB	'.?AVioItem@@', 00H
_DATA	ENDS
;	COMDAT ??_R0?AVioAttackableItem@@@8
_DATA	SEGMENT
??_R0?AVioAttackableItem@@@8 DD FLAT:??_7type_info@@6B@	; ioAttackableItem `RTTI Type Descriptor'
	DD	00H
	DB	'.?AVioAttackableItem@@', 00H
; Function compile flags: /Ogsp
_DATA	ENDS
;	COMDAT ?ToAttackableItem@@YAPAVioAttackableItem@@PAVioItem@@@Z
_TEXT	SEGMENT
_pItem$ = 8						; size = 4
?ToAttackableItem@@YAPAVioAttackableItem@@PAVioItem@@@Z PROC ; ToAttackableItem, COMDAT

; 737  : {

  00000	55		 push	 ebp
  00001	8b ec		 mov	 ebp, esp
  00003	56		 push	 esi

; 738  : 	if( !pItem )	return NULL;

  00004	8b 75 08	 mov	 esi, DWORD PTR _pItem$[ebp]
  00007	85 f6		 test	 esi, esi
  00009	75 04		 jne	 SHORT $LN2@ToAttackab
$LN5@ToAttackab:
  0000b	33 c0		 xor	 eax, eax
  0000d	eb 2f		 jmp	 SHORT $LN3@ToAttackab
$LN2@ToAttackab:

; 739  : 	if( pItem->GetType() != ioItem::IT_WEAPON && pItem->GetType() != ioItem::IT_ARMOR )

  0000f	8b 06		 mov	 eax, DWORD PTR [esi]
  00011	8b ce		 mov	 ecx, esi
  00013	ff 50 08	 call	 DWORD PTR [eax+8]
  00016	83 f8 01	 cmp	 eax, 1
  00019	74 0c		 je	 SHORT $LN1@ToAttackab
  0001b	8b 06		 mov	 eax, DWORD PTR [esi]
  0001d	8b ce		 mov	 ecx, esi
  0001f	ff 50 08	 call	 DWORD PTR [eax+8]
  00022	83 f8 02	 cmp	 eax, 2

; 740  : 		return NULL;

  00025	75 e4		 jne	 SHORT $LN5@ToAttackab
$LN1@ToAttackab:

; 741  : 
; 742  : 	return dynamic_cast< ioAttackableItem* >( pItem );

  00027	6a 00		 push	 0
  00029	68 00 00 00 00	 push	 OFFSET ??_R0?AVioAttackableItem@@@8
  0002e	68 00 00 00 00	 push	 OFFSET ??_R0?AVioItem@@@8
  00033	6a 00		 push	 0
  00035	56		 push	 esi
  00036	e8 00 00 00 00	 call	 ___RTDynamicCast
  0003b	83 c4 14	 add	 esp, 20			; 00000014H
$LN3@ToAttackab:
  0003e	5e		 pop	 esi

; 743  : }

  0003f	5d		 pop	 ebp
  00040	c3		 ret	 0
?ToAttackableItem@@YAPAVioAttackableItem@@PAVioItem@@@Z ENDP ; ToAttackableItem
_TEXT	ENDS
PUBLIC	??_R0?AVioWeaponItem@@@8			; ioWeaponItem `RTTI Type Descriptor'
PUBLIC	?ToWeaponItem@@YAPAVioWeaponItem@@PAVioItem@@@Z	; ToWeaponItem
;	COMDAT ??_R0?AVioWeaponItem@@@8
; File d:\lost saga for developer\youtube\tutorial\source\src\lsclient\ioweaponitem.h
_DATA	SEGMENT
??_R0?AVioWeaponItem@@@8 DD FLAT:??_7type_info@@6B@	; ioWeaponItem `RTTI Type Descriptor'
	DD	00H
	DB	'.?AVioWeaponItem@@', 00H
; Function compile flags: /Ogsp
_DATA	ENDS
;	COMDAT ?ToWeaponItem@@YAPAVioWeaponItem@@PAVioItem@@@Z
_TEXT	SEGMENT
_pItem$ = 8						; size = 4
?ToWeaponItem@@YAPAVioWeaponItem@@PAVioItem@@@Z PROC	; ToWeaponItem, COMDAT

; 303  : {

  00000	55		 push	 ebp
  00001	8b ec		 mov	 ebp, esp
  00003	56		 push	 esi

; 304  : 	if( !pItem || pItem->GetType() != ioItem::IT_WEAPON )

  00004	8b 75 08	 mov	 esi, DWORD PTR _pItem$[ebp]
  00007	85 f6		 test	 esi, esi
  00009	74 25		 je	 SHORT $LN1@ToWeaponIt
  0000b	8b 06		 mov	 eax, DWORD PTR [esi]
  0000d	8b ce		 mov	 ecx, esi
  0000f	ff 50 08	 call	 DWORD PTR [eax+8]
  00012	83 f8 01	 cmp	 eax, 1
  00015	75 19		 jne	 SHORT $LN1@ToWeaponIt

; 306  : 
; 307  : 	return dynamic_cast< ioWeaponItem* >( pItem );

  00017	6a 00		 push	 0
  00019	68 00 00 00 00	 push	 OFFSET ??_R0?AVioWeaponItem@@@8
  0001e	68 00 00 00 00	 push	 OFFSET ??_R0?AVioItem@@@8
  00023	6a 00		 push	 0
  00025	56		 push	 esi
  00026	e8 00 00 00 00	 call	 ___RTDynamicCast
  0002b	83 c4 14	 add	 esp, 20			; 00000014H
  0002e	eb 02		 jmp	 SHORT $LN3@ToWeaponIt
$LN1@ToWeaponIt:

; 305  : 		return NULL;

  00030	33 c0		 xor	 eax, eax
$LN3@ToWeaponIt:
  00032	5e		 pop	 esi

; 308  : }

  00033	5d		 pop	 ebp
  00034	c3		 ret	 0
?ToWeaponItem@@YAPAVioWeaponItem@@PAVioItem@@@Z ENDP	; ToWeaponItem
_TEXT	ENDS
PUBLIC	?GetOwnerItem@ioSkill@@QBEPAVioItem@@XZ		; ioSkill::GetOwnerItem
; Function compile flags: /Ogsp
; File d:\lost saga for developer\youtube\tutorial\source\src\lsclient\ioskill.h
;	COMDAT ?GetOwnerItem@ioSkill@@QBEPAVioItem@@XZ
_TEXT	SEGMENT
?GetOwnerItem@ioSkill@@QBEPAVioItem@@XZ PROC		; ioSkill::GetOwnerItem, COMDAT
; _this$ = ecx

; 397  : 	inline ioItem *GetOwnerItem() const { return m_pOwnerItem; }

  00000	8b 81 a4 02 00
	00		 mov	 eax, DWORD PTR [ecx+676]
  00006	c3		 ret	 0
?GetOwnerItem@ioSkill@@QBEPAVioItem@@XZ ENDP		; ioSkill::GetOwnerItem
_TEXT	ENDS
PUBLIC	?GetName@ioSkill@@QBEABVioHashString@@XZ	; ioSkill::GetName
; Function compile flags: /Ogsp
;	COMDAT ?GetName@ioSkill@@QBEABVioHashString@@XZ
_TEXT	SEGMENT
?GetName@ioSkill@@QBEABVioHashString@@XZ PROC		; ioSkill::GetName, COMDAT
; _this$ = ecx

; 414  : 	inline const ioHashString& GetName() const { return m_Name; }

  00000	8d 41 24	 lea	 eax, DWORD PTR [ecx+36]
  00003	c3		 ret	 0
?GetName@ioSkill@@QBEABVioHashString@@XZ ENDP		; ioSkill::GetName
_TEXT	ENDS
PUBLIC	??0BulletInfo@@QAE@XZ				; BulletInfo::BulletInfo
; Function compile flags: /Ogsp
; File d:\lost saga for developer\youtube\tutorial\source\src\lsclient\ioattackskill.h
;	COMDAT ??0BulletInfo@@QAE@XZ
_TEXT	SEGMENT
??0BulletInfo@@QAE@XZ PROC				; BulletInfo::BulletInfo, COMDAT
; _this$ = ecx

; 21   : 	{
; 22   : 		m_fYawAngle		= 0.0f;

  00000	0f 57 c0	 xorps	 xmm0, xmm0
  00003	8b c1		 mov	 eax, ecx
  00005	f3 0f 11 00	 movss	 DWORD PTR [eax], xmm0

; 23   : 		m_fPitchAngle	= 0.0f;

  00009	f3 0f 11 40 04	 movss	 DWORD PTR [eax+4], xmm0

; 24   : 		m_fRollAngle	= 0.0f;

  0000e	f3 0f 11 40 08	 movss	 DWORD PTR [eax+8], xmm0

; 25   : 
; 26   : 		m_fRangeOffSet	= 0.0f;

  00013	f3 0f 11 40 0c	 movss	 DWORD PTR [eax+12], xmm0

; 27   : 		m_fHeightOffSet	= 0.0f;

  00018	f3 0f 11 40 10	 movss	 DWORD PTR [eax+16], xmm0

; 28   : 	}

  0001d	c3		 ret	 0
??0BulletInfo@@QAE@XZ ENDP				; BulletInfo::BulletInfo
_TEXT	ENDS
PUBLIC	?EncryptValueToPool@?$CEncrypt@M@@AAEXPBD@Z	; CEncrypt<float>::EncryptValueToPool
EXTRN	?EncryptByte@ccddaabb@@QAEXPBDPADH@Z:PROC	; ccddaabb::EncryptByte
; Function compile flags: /Ogsp
; File d:\lost saga for developer\youtube\tutorial\source\src\lsclient\encryptvalue.h
;	COMDAT ?EncryptValueToPool@?$CEncrypt@M@@AAEXPBD@Z
_TEXT	SEGMENT
_value$ = 8						; size = 4
?EncryptValueToPool@?$CEncrypt@M@@AAEXPBD@Z PROC	; CEncrypt<float>::EncryptValueToPool, COMDAT
; _this$ = ecx

; 67   : 	{

  00000	55		 push	 ebp
  00001	8b ec		 mov	 ebp, esp

; 68   : 		m_RC5.EncryptByte( value, m_MemPool, max(m_ValueSize, DEFAULT_ENCRYPT) );

  00003	0f b7 41 06	 movzx	 eax, WORD PTR [ecx+6]
  00007	83 f8 04	 cmp	 eax, 4
  0000a	77 03		 ja	 SHORT $LN4@EncryptVal
  0000c	6a 04		 push	 4
  0000e	58		 pop	 eax
$LN4@EncryptVal:
  0000f	50		 push	 eax
  00010	8d 41 1c	 lea	 eax, DWORD PTR [ecx+28]
  00013	50		 push	 eax
  00014	ff 75 08	 push	 DWORD PTR _value$[ebp]
  00017	83 c1 0c	 add	 ecx, 12			; 0000000cH
  0001a	e8 00 00 00 00	 call	 ?EncryptByte@ccddaabb@@QAEXPBDPADH@Z ; ccddaabb::EncryptByte

; 69   : 		
; 70   : 	}

  0001f	5d		 pop	 ebp
  00020	c2 04 00	 ret	 4
?EncryptValueToPool@?$CEncrypt@M@@AAEXPBD@Z ENDP	; CEncrypt<float>::EncryptValueToPool
_TEXT	ENDS
PUBLIC	?EncryptValueToPool@?$CEncrypt@K@@AAEXPBD@Z	; CEncrypt<unsigned long>::EncryptValueToPool
; Function compile flags: /Ogsp
;	COMDAT ?EncryptValueToPool@?$CEncrypt@K@@AAEXPBD@Z
_TEXT	SEGMENT
_value$ = 8						; size = 4
?EncryptValueToPool@?$CEncrypt@K@@AAEXPBD@Z PROC	; CEncrypt<unsigned long>::EncryptValueToPool, COMDAT
; _this$ = ecx

; 67   : 	{

  00000	55		 push	 ebp
  00001	8b ec		 mov	 ebp, esp

; 68   : 		m_RC5.EncryptByte( value, m_MemPool, max(m_ValueSize, DEFAULT_ENCRYPT) );

  00003	0f b7 41 06	 movzx	 eax, WORD PTR [ecx+6]
  00007	83 f8 04	 cmp	 eax, 4
  0000a	77 03		 ja	 SHORT $LN4@EncryptVal@2
  0000c	6a 04		 push	 4
  0000e	58		 pop	 eax
$LN4@EncryptVal@2:
  0000f	50		 push	 eax
  00010	8d 41 1c	 lea	 eax, DWORD PTR [ecx+28]
  00013	50		 push	 eax
  00014	ff 75 08	 push	 DWORD PTR _value$[ebp]
  00017	83 c1 0c	 add	 ecx, 12			; 0000000cH
  0001a	e8 00 00 00 00	 call	 ?EncryptByte@ccddaabb@@QAEXPBDPADH@Z ; ccddaabb::EncryptByte

; 69   : 		
; 70   : 	}

  0001f	5d		 pop	 ebp
  00020	c2 04 00	 ret	 4
?EncryptValueToPool@?$CEncrypt@K@@AAEXPBD@Z ENDP	; CEncrypt<unsigned long>::EncryptValueToPool
_TEXT	ENDS
PUBLIC	?EncryptValueToPool@?$CEncrypt@_N@@AAEXPBD@Z	; CEncrypt<bool>::EncryptValueToPool
; Function compile flags: /Ogsp
;	COMDAT ?EncryptValueToPool@?$CEncrypt@_N@@AAEXPBD@Z
_TEXT	SEGMENT
_value$ = 8						; size = 4
?EncryptValueToPool@?$CEncrypt@_N@@AAEXPBD@Z PROC	; CEncrypt<bool>::EncryptValueToPool, COMDAT
; _this$ = ecx

; 67   : 	{

  00000	55		 push	 ebp
  00001	8b ec		 mov	 ebp, esp

; 68   : 		m_RC5.EncryptByte( value, m_MemPool, max(m_ValueSize, DEFAULT_ENCRYPT) );

  00003	0f b7 41 06	 movzx	 eax, WORD PTR [ecx+6]
  00007	83 f8 04	 cmp	 eax, 4
  0000a	77 03		 ja	 SHORT $LN4@EncryptVal@3
  0000c	6a 04		 push	 4
  0000e	58		 pop	 eax
$LN4@EncryptVal@3:
  0000f	50		 push	 eax
  00010	8d 41 1c	 lea	 eax, DWORD PTR [ecx+28]
  00013	50		 push	 eax
  00014	ff 75 08	 push	 DWORD PTR _value$[ebp]
  00017	83 c1 0c	 add	 ecx, 12			; 0000000cH
  0001a	e8 00 00 00 00	 call	 ?EncryptByte@ccddaabb@@QAEXPBDPADH@Z ; ccddaabb::EncryptByte

; 69   : 		
; 70   : 	}

  0001f	5d		 pop	 ebp
  00020	c2 04 00	 ret	 4
?EncryptValueToPool@?$CEncrypt@_N@@AAEXPBD@Z ENDP	; CEncrypt<bool>::EncryptValueToPool
_TEXT	ENDS
PUBLIC	?DecryptValueToPool@?$CEncrypt@_N@@QAEXPA_N@Z	; CEncrypt<bool>::DecryptValueToPool
EXTRN	?DecryptByte@ccddaabb@@QBEXPBDPADH@Z:PROC	; ccddaabb::DecryptByte
; Function compile flags: /Ogsp
;	COMDAT ?DecryptValueToPool@?$CEncrypt@_N@@QAEXPA_N@Z
_TEXT	SEGMENT
_value$ = 8						; size = 4
?DecryptValueToPool@?$CEncrypt@_N@@QAEXPA_N@Z PROC	; CEncrypt<bool>::DecryptValueToPool, COMDAT
; _this$ = ecx

; 219  : 	{

  00000	55		 push	 ebp
  00001	8b ec		 mov	 ebp, esp
  00003	56		 push	 esi

; 220  : 		m_RC5.DecryptByte( m_MemPool, m_TempMem, 4 );

  00004	8d 71 28	 lea	 esi, DWORD PTR [ecx+40]
  00007	6a 04		 push	 4
  00009	8d 41 1c	 lea	 eax, DWORD PTR [ecx+28]
  0000c	56		 push	 esi
  0000d	50		 push	 eax
  0000e	83 c1 0c	 add	 ecx, 12			; 0000000cH
  00011	e8 00 00 00 00	 call	 ?DecryptByte@ccddaabb@@QBEXPBDPADH@Z ; ccddaabb::DecryptByte

; 221  : 		*value = *((bool*)m_TempMem);

  00016	8a 06		 mov	 al, BYTE PTR [esi]
  00018	8b 4d 08	 mov	 ecx, DWORD PTR _value$[ebp]
  0001b	88 01		 mov	 BYTE PTR [ecx], al
  0001d	5e		 pop	 esi

; 222  : 	}

  0001e	5d		 pop	 ebp
  0001f	c2 04 00	 ret	 4
?DecryptValueToPool@?$CEncrypt@_N@@QAEXPA_N@Z ENDP	; CEncrypt<bool>::DecryptValueToPool
_TEXT	ENDS
EXTRN	__imp_??0exception@std@@QAE@ABV01@@Z:PROC
; Function compile flags: /Ogsp
;	COMDAT ??0bad_alloc@std@@QAE@ABV01@@Z
_TEXT	SEGMENT
___that$ = 8						; size = 4
??0bad_alloc@std@@QAE@ABV01@@Z PROC			; std::bad_alloc::bad_alloc, COMDAT
; _this$ = ecx
  00000	55		 push	 ebp
  00001	8b ec		 mov	 ebp, esp
  00003	56		 push	 esi
  00004	ff 75 08	 push	 DWORD PTR ___that$[ebp]
  00007	8b f1		 mov	 esi, ecx
  00009	ff 15 00 00 00
	00		 call	 DWORD PTR __imp_??0exception@std@@QAE@ABV01@@Z
  0000f	c7 06 00 00 00
	00		 mov	 DWORD PTR [esi], OFFSET ??_7bad_alloc@std@@6B@
  00015	8b c6		 mov	 eax, esi
  00017	5e		 pop	 esi
  00018	5d		 pop	 ebp
  00019	c2 04 00	 ret	 4
??0bad_alloc@std@@QAE@ABV01@@Z ENDP			; std::bad_alloc::bad_alloc
_TEXT	ENDS
PUBLIC	??_R0?AVioFireWeaponItem@@@8			; ioFireWeaponItem `RTTI Type Descriptor'
PUBLIC	?ToFireWeaponItem@@YAPAVioFireWeaponItem@@PAVioItem@@@Z ; ToFireWeaponItem
;	COMDAT ??_R0?AVioFireWeaponItem@@@8
; File d:\lost saga for developer\youtube\tutorial\source\src\lsclient\iofireweaponitem.h
_DATA	SEGMENT
??_R0?AVioFireWeaponItem@@@8 DD FLAT:??_7type_info@@6B@	; ioFireWeaponItem `RTTI Type Descriptor'
	DD	00H
	DB	'.?AVioFireWeaponItem@@', 00H
; Function compile flags: /Ogsp
_DATA	ENDS
;	COMDAT ?ToFireWeaponItem@@YAPAVioFireWeaponItem@@PAVioItem@@@Z
_TEXT	SEGMENT
_pItem$ = 8						; size = 4
?ToFireWeaponItem@@YAPAVioFireWeaponItem@@PAVioItem@@@Z PROC ; ToFireWeaponItem, COMDAT

; 269  : {

  00000	55		 push	 ebp
  00001	8b ec		 mov	 ebp, esp
  00003	56		 push	 esi

; 270  : 	ioWeaponItem *pWeapon = ToWeaponItem( pItem );

  00004	ff 75 08	 push	 DWORD PTR _pItem$[ebp]
  00007	e8 00 00 00 00	 call	 ?ToWeaponItem@@YAPAVioWeaponItem@@PAVioItem@@@Z ; ToWeaponItem
  0000c	8b f0		 mov	 esi, eax
  0000e	59		 pop	 ecx

; 271  : 	if( !pWeapon || pWeapon->GetSubType() != ioWeaponItem::WST_FIRE )

  0000f	85 f6		 test	 esi, esi
  00011	74 28		 je	 SHORT $LN1@ToFireWeap
  00013	8b 06		 mov	 eax, DWORD PTR [esi]
  00015	8b ce		 mov	 ecx, esi
  00017	ff 90 f0 02 00
	00		 call	 DWORD PTR [eax+752]
  0001d	83 f8 01	 cmp	 eax, 1
  00020	75 19		 jne	 SHORT $LN1@ToFireWeap

; 273  : 
; 274  : 	return dynamic_cast< ioFireWeaponItem* >( pWeapon );

  00022	6a 00		 push	 0
  00024	68 00 00 00 00	 push	 OFFSET ??_R0?AVioFireWeaponItem@@@8
  00029	68 00 00 00 00	 push	 OFFSET ??_R0?AVioWeaponItem@@@8
  0002e	6a 00		 push	 0
  00030	56		 push	 esi
  00031	e8 00 00 00 00	 call	 ___RTDynamicCast
  00036	83 c4 14	 add	 esp, 20			; 00000014H
  00039	eb 02		 jmp	 SHORT $LN3@ToFireWeap
$LN1@ToFireWeap:

; 272  : 		return NULL;

  0003b	33 c0		 xor	 eax, eax
$LN3@ToFireWeap:
  0003d	5e		 pop	 esi

; 275  : }

  0003e	5d		 pop	 ebp
  0003f	c3		 ret	 0
?ToFireWeaponItem@@YAPAVioFireWeaponItem@@PAVioItem@@@Z ENDP ; ToFireWeaponItem
_TEXT	ENDS
PUBLIC	??_R0?AVioBowItem@@@8				; ioBowItem `RTTI Type Descriptor'
PUBLIC	?ToBowItem@@YAPAVioBowItem@@PAVioItem@@@Z	; ToBowItem
;	COMDAT ??_R0?AVioBowItem@@@8
; File d:\lost saga for developer\youtube\tutorial\source\src\lsclient\iobowitem.h
_DATA	SEGMENT
??_R0?AVioBowItem@@@8 DD FLAT:??_7type_info@@6B@	; ioBowItem `RTTI Type Descriptor'
	DD	00H
	DB	'.?AVioBowItem@@', 00H
; Function compile flags: /Ogsp
_DATA	ENDS
;	COMDAT ?ToBowItem@@YAPAVioBowItem@@PAVioItem@@@Z
_TEXT	SEGMENT
_pItem$ = 8						; size = 4
?ToBowItem@@YAPAVioBowItem@@PAVioItem@@@Z PROC		; ToBowItem, COMDAT

; 344  : {

  00000	55		 push	 ebp
  00001	8b ec		 mov	 ebp, esp
  00003	56		 push	 esi

; 345  : 	ioWeaponItem *pWeapon = ToWeaponItem( pItem );

  00004	ff 75 08	 push	 DWORD PTR _pItem$[ebp]
  00007	e8 00 00 00 00	 call	 ?ToWeaponItem@@YAPAVioWeaponItem@@PAVioItem@@@Z ; ToWeaponItem
  0000c	8b f0		 mov	 esi, eax
  0000e	59		 pop	 ecx

; 346  : 	if( !pWeapon || pWeapon->GetSubType() != ioWeaponItem::WST_BOW )

  0000f	85 f6		 test	 esi, esi
  00011	74 28		 je	 SHORT $LN1@ToBowItem
  00013	8b 06		 mov	 eax, DWORD PTR [esi]
  00015	8b ce		 mov	 ecx, esi
  00017	ff 90 f0 02 00
	00		 call	 DWORD PTR [eax+752]
  0001d	83 f8 05	 cmp	 eax, 5
  00020	75 19		 jne	 SHORT $LN1@ToBowItem

; 348  : 
; 349  : 	return dynamic_cast< ioBowItem* >( pWeapon );

  00022	6a 00		 push	 0
  00024	68 00 00 00 00	 push	 OFFSET ??_R0?AVioBowItem@@@8
  00029	68 00 00 00 00	 push	 OFFSET ??_R0?AVioWeaponItem@@@8
  0002e	6a 00		 push	 0
  00030	56		 push	 esi
  00031	e8 00 00 00 00	 call	 ___RTDynamicCast
  00036	83 c4 14	 add	 esp, 20			; 00000014H
  00039	eb 02		 jmp	 SHORT $LN3@ToBowItem
$LN1@ToBowItem:

; 347  : 		return NULL;

  0003b	33 c0		 xor	 eax, eax
$LN3@ToBowItem:
  0003d	5e		 pop	 esi

; 350  : }

  0003e	5d		 pop	 ebp
  0003f	c3		 ret	 0
?ToBowItem@@YAPAVioBowItem@@PAVioItem@@@Z ENDP		; ToBowItem
_TEXT	ENDS
PUBLIC	??_R0?AVioLaserItem@@@8				; ioLaserItem `RTTI Type Descriptor'
PUBLIC	?ToLaserItem@@YAPAVioLaserItem@@PAVioItem@@@Z	; ToLaserItem
;	COMDAT ??_R0?AVioLaserItem@@@8
; File d:\lost saga for developer\youtube\tutorial\source\src\lsclient\iolaseritem.h
_DATA	SEGMENT
??_R0?AVioLaserItem@@@8 DD FLAT:??_7type_info@@6B@	; ioLaserItem `RTTI Type Descriptor'
	DD	00H
	DB	'.?AVioLaserItem@@', 00H
; Function compile flags: /Ogsp
_DATA	ENDS
;	COMDAT ?ToLaserItem@@YAPAVioLaserItem@@PAVioItem@@@Z
_TEXT	SEGMENT
_pItem$ = 8						; size = 4
?ToLaserItem@@YAPAVioLaserItem@@PAVioItem@@@Z PROC	; ToLaserItem, COMDAT

; 252  : {

  00000	55		 push	 ebp
  00001	8b ec		 mov	 ebp, esp
  00003	56		 push	 esi

; 253  : 	ioWeaponItem *pWeapon = ToWeaponItem( pItem );

  00004	ff 75 08	 push	 DWORD PTR _pItem$[ebp]
  00007	e8 00 00 00 00	 call	 ?ToWeaponItem@@YAPAVioWeaponItem@@PAVioItem@@@Z ; ToWeaponItem
  0000c	8b f0		 mov	 esi, eax
  0000e	59		 pop	 ecx

; 254  : 	if( !pWeapon || pWeapon->GetSubType() != ioWeaponItem::WST_LASER )

  0000f	85 f6		 test	 esi, esi
  00011	74 28		 je	 SHORT $LN1@ToLaserIte
  00013	8b 06		 mov	 eax, DWORD PTR [esi]
  00015	8b ce		 mov	 ecx, esi
  00017	ff 90 f0 02 00
	00		 call	 DWORD PTR [eax+752]
  0001d	83 f8 08	 cmp	 eax, 8
  00020	75 19		 jne	 SHORT $LN1@ToLaserIte

; 256  : 
; 257  : 	return dynamic_cast< ioLaserItem* >( pWeapon );

  00022	6a 00		 push	 0
  00024	68 00 00 00 00	 push	 OFFSET ??_R0?AVioLaserItem@@@8
  00029	68 00 00 00 00	 push	 OFFSET ??_R0?AVioWeaponItem@@@8
  0002e	6a 00		 push	 0
  00030	56		 push	 esi
  00031	e8 00 00 00 00	 call	 ___RTDynamicCast
  00036	83 c4 14	 add	 esp, 20			; 00000014H
  00039	eb 02		 jmp	 SHORT $LN3@ToLaserIte
$LN1@ToLaserIte:

; 255  : 		return NULL;

  0003b	33 c0		 xor	 eax, eax
$LN3@ToLaserIte:
  0003d	5e		 pop	 esi

; 258  : }

  0003e	5d		 pop	 ebp
  0003f	c3		 ret	 0
?ToLaserItem@@YAPAVioLaserItem@@PAVioItem@@@Z ENDP	; ToLaserItem
_TEXT	ENDS
PUBLIC	??_R0?AVioPowerChargeItem@@@8			; ioPowerChargeItem `RTTI Type Descriptor'
PUBLIC	?ToPowerChargeItem@@YAPAVioPowerChargeItem@@PAVioItem@@@Z ; ToPowerChargeItem
;	COMDAT ??_R0?AVioPowerChargeItem@@@8
; File d:\lost saga for developer\youtube\tutorial\source\src\lsclient\iopowerchargeitem.h
_DATA	SEGMENT
??_R0?AVioPowerChargeItem@@@8 DD FLAT:??_7type_info@@6B@ ; ioPowerChargeItem `RTTI Type Descriptor'
	DD	00H
	DB	'.?AVioPowerChargeItem@@', 00H
; Function compile flags: /Ogsp
_DATA	ENDS
;	COMDAT ?ToPowerChargeItem@@YAPAVioPowerChargeItem@@PAVioItem@@@Z
_TEXT	SEGMENT
_pItem$ = 8						; size = 4
?ToPowerChargeItem@@YAPAVioPowerChargeItem@@PAVioItem@@@Z PROC ; ToPowerChargeItem, COMDAT

; 106  : {

  00000	55		 push	 ebp
  00001	8b ec		 mov	 ebp, esp

; 107  : 	ioWeaponItem *pWeapon = ToWeaponItem( pItem );

  00003	ff 75 08	 push	 DWORD PTR _pItem$[ebp]
  00006	e8 00 00 00 00	 call	 ?ToWeaponItem@@YAPAVioWeaponItem@@PAVioItem@@@Z ; ToWeaponItem
  0000b	59		 pop	 ecx

; 108  : 	if( !pWeapon || pWeapon->GetSubType() != ioWeaponItem::WST_POWER_CHARGE )

  0000c	85 c0		 test	 eax, eax
  0000e	74 2a		 je	 SHORT $LN1@ToPowerCha
  00010	8b 10		 mov	 edx, DWORD PTR [eax]
  00012	8b c8		 mov	 ecx, eax
  00014	ff 92 f0 02 00
	00		 call	 DWORD PTR [edx+752]
  0001a	83 f8 0b	 cmp	 eax, 11			; 0000000bH
  0001d	75 1b		 jne	 SHORT $LN1@ToPowerCha

; 110  : 
; 111  : 	return dynamic_cast< ioPowerChargeItem* >( pItem );

  0001f	6a 00		 push	 0
  00021	68 00 00 00 00	 push	 OFFSET ??_R0?AVioPowerChargeItem@@@8
  00026	68 00 00 00 00	 push	 OFFSET ??_R0?AVioItem@@@8
  0002b	6a 00		 push	 0
  0002d	ff 75 08	 push	 DWORD PTR _pItem$[ebp]
  00030	e8 00 00 00 00	 call	 ___RTDynamicCast
  00035	83 c4 14	 add	 esp, 20			; 00000014H

; 112  : }

  00038	5d		 pop	 ebp
  00039	c3		 ret	 0
$LN1@ToPowerCha:

; 109  : 		return NULL;

  0003a	33 c0		 xor	 eax, eax

; 112  : }

  0003c	5d		 pop	 ebp
  0003d	c3		 ret	 0
?ToPowerChargeItem@@YAPAVioPowerChargeItem@@PAVioItem@@@Z ENDP ; ToPowerChargeItem
_TEXT	ENDS
PUBLIC	??_R0?AVioCountChargeItem@@@8			; ioCountChargeItem `RTTI Type Descriptor'
PUBLIC	?ToCountChargeItem@@YAPAVioCountChargeItem@@PAVioItem@@@Z ; ToCountChargeItem
;	COMDAT ??_R0?AVioCountChargeItem@@@8
; File d:\lost saga for developer\youtube\tutorial\source\src\lsclient\iocountchargeitem.h
_DATA	SEGMENT
??_R0?AVioCountChargeItem@@@8 DD FLAT:??_7type_info@@6B@ ; ioCountChargeItem `RTTI Type Descriptor'
	DD	00H
	DB	'.?AVioCountChargeItem@@', 00H
; Function compile flags: /Ogsp
_DATA	ENDS
;	COMDAT ?ToCountChargeItem@@YAPAVioCountChargeItem@@PAVioItem@@@Z
_TEXT	SEGMENT
_pItem$ = 8						; size = 4
?ToCountChargeItem@@YAPAVioCountChargeItem@@PAVioItem@@@Z PROC ; ToCountChargeItem, COMDAT

; 150  : {

  00000	55		 push	 ebp
  00001	8b ec		 mov	 ebp, esp

; 151  : 	ioWeaponItem *pWeapon = ToWeaponItem( pItem );

  00003	ff 75 08	 push	 DWORD PTR _pItem$[ebp]
  00006	e8 00 00 00 00	 call	 ?ToWeaponItem@@YAPAVioWeaponItem@@PAVioItem@@@Z ; ToWeaponItem
  0000b	59		 pop	 ecx

; 152  : 	if( !pWeapon || pWeapon->GetSubType() != ioWeaponItem::WST_COUNT_CHARGE )

  0000c	85 c0		 test	 eax, eax
  0000e	74 2a		 je	 SHORT $LN1@ToCountCha
  00010	8b 10		 mov	 edx, DWORD PTR [eax]
  00012	8b c8		 mov	 ecx, eax
  00014	ff 92 f0 02 00
	00		 call	 DWORD PTR [edx+752]
  0001a	83 f8 0f	 cmp	 eax, 15			; 0000000fH
  0001d	75 1b		 jne	 SHORT $LN1@ToCountCha

; 154  : 
; 155  : 	return dynamic_cast< ioCountChargeItem* >( pItem );

  0001f	6a 00		 push	 0
  00021	68 00 00 00 00	 push	 OFFSET ??_R0?AVioCountChargeItem@@@8
  00026	68 00 00 00 00	 push	 OFFSET ??_R0?AVioItem@@@8
  0002b	6a 00		 push	 0
  0002d	ff 75 08	 push	 DWORD PTR _pItem$[ebp]
  00030	e8 00 00 00 00	 call	 ___RTDynamicCast
  00035	83 c4 14	 add	 esp, 20			; 00000014H

; 156  : }

  00038	5d		 pop	 ebp
  00039	c3		 ret	 0
$LN1@ToCountCha:

; 153  : 		return NULL;

  0003a	33 c0		 xor	 eax, eax

; 156  : }

  0003c	5d		 pop	 ebp
  0003d	c3		 ret	 0
?ToCountChargeItem@@YAPAVioCountChargeItem@@PAVioItem@@@Z ENDP ; ToCountChargeItem
_TEXT	ENDS
PUBLIC	??_R0?AVioRangeChargeItem@@@8			; ioRangeChargeItem `RTTI Type Descriptor'
PUBLIC	?ToRangeChargeItem@@YAPAVioRangeChargeItem@@PAVioItem@@@Z ; ToRangeChargeItem
;	COMDAT ??_R0?AVioRangeChargeItem@@@8
; File d:\lost saga for developer\youtube\tutorial\source\src\lsclient\iorangechargeitem.h
_DATA	SEGMENT
??_R0?AVioRangeChargeItem@@@8 DD FLAT:??_7type_info@@6B@ ; ioRangeChargeItem `RTTI Type Descriptor'
	DD	00H
	DB	'.?AVioRangeChargeItem@@', 00H
; Function compile flags: /Ogsp
_DATA	ENDS
;	COMDAT ?ToRangeChargeItem@@YAPAVioRangeChargeItem@@PAVioItem@@@Z
_TEXT	SEGMENT
_pItem$ = 8						; size = 4
?ToRangeChargeItem@@YAPAVioRangeChargeItem@@PAVioItem@@@Z PROC ; ToRangeChargeItem, COMDAT

; 169  : {

  00000	55		 push	 ebp
  00001	8b ec		 mov	 ebp, esp

; 170  : 	ioWeaponItem *pWeapon = ToWeaponItem( pItem );

  00003	ff 75 08	 push	 DWORD PTR _pItem$[ebp]
  00006	e8 00 00 00 00	 call	 ?ToWeaponItem@@YAPAVioWeaponItem@@PAVioItem@@@Z ; ToWeaponItem
  0000b	59		 pop	 ecx

; 171  : 	if( !pWeapon || pWeapon->GetSubType() != ioWeaponItem::WST_RANGE_CHARGE )

  0000c	85 c0		 test	 eax, eax
  0000e	74 2a		 je	 SHORT $LN1@ToRangeCha
  00010	8b 10		 mov	 edx, DWORD PTR [eax]
  00012	8b c8		 mov	 ecx, eax
  00014	ff 92 f0 02 00
	00		 call	 DWORD PTR [edx+752]
  0001a	83 f8 11	 cmp	 eax, 17			; 00000011H
  0001d	75 1b		 jne	 SHORT $LN1@ToRangeCha

; 173  : 
; 174  : 	return dynamic_cast< ioRangeChargeItem* >( pItem );

  0001f	6a 00		 push	 0
  00021	68 00 00 00 00	 push	 OFFSET ??_R0?AVioRangeChargeItem@@@8
  00026	68 00 00 00 00	 push	 OFFSET ??_R0?AVioItem@@@8
  0002b	6a 00		 push	 0
  0002d	ff 75 08	 push	 DWORD PTR _pItem$[ebp]
  00030	e8 00 00 00 00	 call	 ___RTDynamicCast
  00035	83 c4 14	 add	 esp, 20			; 00000014H

; 175  : }

  00038	5d		 pop	 ebp
  00039	c3		 ret	 0
$LN1@ToRangeCha:

; 172  : 		return NULL;

  0003a	33 c0		 xor	 eax, eax

; 175  : }

  0003c	5d		 pop	 ebp
  0003d	c3		 ret	 0
?ToRangeChargeItem@@YAPAVioRangeChargeItem@@PAVioItem@@@Z ENDP ; ToRangeChargeItem
_TEXT	ENDS
PUBLIC	??_R0?AVioRotateChargeItem@@@8			; ioRotateChargeItem `RTTI Type Descriptor'
PUBLIC	?ToRotateChargeItem@@YAPAVioRotateChargeItem@@PAVioItem@@@Z ; ToRotateChargeItem
;	COMDAT ??_R0?AVioRotateChargeItem@@@8
; File d:\lost saga for developer\youtube\tutorial\source\src\lsclient\iorotatechargeitem.h
_DATA	SEGMENT
??_R0?AVioRotateChargeItem@@@8 DD FLAT:??_7type_info@@6B@ ; ioRotateChargeItem `RTTI Type Descriptor'
	DD	00H
	DB	'.?AVioRotateChargeItem@@', 00H
; Function compile flags: /Ogsp
_DATA	ENDS
;	COMDAT ?ToRotateChargeItem@@YAPAVioRotateChargeItem@@PAVioItem@@@Z
_TEXT	SEGMENT
_pItem$ = 8						; size = 4
?ToRotateChargeItem@@YAPAVioRotateChargeItem@@PAVioItem@@@Z PROC ; ToRotateChargeItem, COMDAT

; 181  : {

  00000	55		 push	 ebp
  00001	8b ec		 mov	 ebp, esp

; 182  : 	ioWeaponItem *pWeapon = ToWeaponItem( pItem );

  00003	ff 75 08	 push	 DWORD PTR _pItem$[ebp]
  00006	e8 00 00 00 00	 call	 ?ToWeaponItem@@YAPAVioWeaponItem@@PAVioItem@@@Z ; ToWeaponItem
  0000b	59		 pop	 ecx

; 183  : 	if( !pWeapon || pWeapon->GetSubType() != ioWeaponItem::WST_ROTATE_CHARGE )

  0000c	85 c0		 test	 eax, eax
  0000e	74 2a		 je	 SHORT $LN1@ToRotateCh
  00010	8b 10		 mov	 edx, DWORD PTR [eax]
  00012	8b c8		 mov	 ecx, eax
  00014	ff 92 f0 02 00
	00		 call	 DWORD PTR [edx+752]
  0001a	83 f8 12	 cmp	 eax, 18			; 00000012H
  0001d	75 1b		 jne	 SHORT $LN1@ToRotateCh

; 185  : 
; 186  : 	return dynamic_cast< ioRotateChargeItem* >( pItem );

  0001f	6a 00		 push	 0
  00021	68 00 00 00 00	 push	 OFFSET ??_R0?AVioRotateChargeItem@@@8
  00026	68 00 00 00 00	 push	 OFFSET ??_R0?AVioItem@@@8
  0002b	6a 00		 push	 0
  0002d	ff 75 08	 push	 DWORD PTR _pItem$[ebp]
  00030	e8 00 00 00 00	 call	 ___RTDynamicCast
  00035	83 c4 14	 add	 esp, 20			; 00000014H

; 187  : }

  00038	5d		 pop	 ebp
  00039	c3		 ret	 0
$LN1@ToRotateCh:

; 184  : 		return NULL;

  0003a	33 c0		 xor	 eax, eax

; 187  : }

  0003c	5d		 pop	 ebp
  0003d	c3		 ret	 0
?ToRotateChargeItem@@YAPAVioRotateChargeItem@@PAVioItem@@@Z ENDP ; ToRotateChargeItem
_TEXT	ENDS
PUBLIC	??_R0?AVioBowItem2@@@8				; ioBowItem2 `RTTI Type Descriptor'
PUBLIC	?ToBowItem2@@YAPAVioBowItem2@@PAVioItem@@@Z	; ToBowItem2
;	COMDAT ??_R0?AVioBowItem2@@@8
; File d:\lost saga for developer\youtube\tutorial\source\src\lsclient\iobowitem2.h
_DATA	SEGMENT
??_R0?AVioBowItem2@@@8 DD FLAT:??_7type_info@@6B@	; ioBowItem2 `RTTI Type Descriptor'
	DD	00H
	DB	'.?AVioBowItem2@@', 00H
; Function compile flags: /Ogsp
_DATA	ENDS
;	COMDAT ?ToBowItem2@@YAPAVioBowItem2@@PAVioItem@@@Z
_TEXT	SEGMENT
_pItem$ = 8						; size = 4
?ToBowItem2@@YAPAVioBowItem2@@PAVioItem@@@Z PROC	; ToBowItem2, COMDAT

; 367  : {

  00000	55		 push	 ebp
  00001	8b ec		 mov	 ebp, esp
  00003	56		 push	 esi

; 368  : 	ioWeaponItem *pWeapon = ToWeaponItem( pItem );

  00004	ff 75 08	 push	 DWORD PTR _pItem$[ebp]
  00007	e8 00 00 00 00	 call	 ?ToWeaponItem@@YAPAVioWeaponItem@@PAVioItem@@@Z ; ToWeaponItem
  0000c	8b f0		 mov	 esi, eax
  0000e	59		 pop	 ecx

; 369  : 	if( !pWeapon || pWeapon->GetSubType() != ioWeaponItem::WST_BOW2 )

  0000f	85 f6		 test	 esi, esi
  00011	74 2a		 je	 SHORT $LN1@ToBowItem2
  00013	8b 06		 mov	 eax, DWORD PTR [esi]
  00015	8b ce		 mov	 ecx, esi
  00017	ff 90 f0 02 00
	00		 call	 DWORD PTR [eax+752]
  0001d	3d 83 00 00 00	 cmp	 eax, 131		; 00000083H
  00022	75 19		 jne	 SHORT $LN1@ToBowItem2

; 371  : 
; 372  : 	return dynamic_cast< ioBowItem2* >( pWeapon );

  00024	6a 00		 push	 0
  00026	68 00 00 00 00	 push	 OFFSET ??_R0?AVioBowItem2@@@8
  0002b	68 00 00 00 00	 push	 OFFSET ??_R0?AVioWeaponItem@@@8
  00030	6a 00		 push	 0
  00032	56		 push	 esi
  00033	e8 00 00 00 00	 call	 ___RTDynamicCast
  00038	83 c4 14	 add	 esp, 20			; 00000014H
  0003b	eb 02		 jmp	 SHORT $LN3@ToBowItem2
$LN1@ToBowItem2:

; 370  : 		return NULL;

  0003d	33 c0		 xor	 eax, eax
$LN3@ToBowItem2:
  0003f	5e		 pop	 esi

; 373  : }

  00040	5d		 pop	 ebp
  00041	c3		 ret	 0
?ToBowItem2@@YAPAVioBowItem2@@PAVioItem@@@Z ENDP	; ToBowItem2
_TEXT	ENDS
PUBLIC	?IsCanUseSkill@ioFullShotSkill@@UAE_NPAVioBaseChar@@_N@Z ; ioFullShotSkill::IsCanUseSkill
EXTRN	?CheckNeedGauge@ioSkill@@IAE_NPAVioBaseChar@@_N@Z:PROC ; ioSkill::CheckNeedGauge
; Function compile flags: /Ogsp
; File d:\lost saga for developer\youtube\tutorial\source\src\lsclient\iofullshotskill.cpp
;	COMDAT ?IsCanUseSkill@ioFullShotSkill@@UAE_NPAVioBaseChar@@_N@Z
_TEXT	SEGMENT
_pChar$ = 8						; size = 4
_bHelpMsg$ = 12						; size = 1
?IsCanUseSkill@ioFullShotSkill@@UAE_NPAVioBaseChar@@_N@Z PROC ; ioFullShotSkill::IsCanUseSkill, COMDAT
; _this$ = ecx

; 93   : {

  00000	55		 push	 ebp
  00001	8b ec		 mov	 ebp, esp
  00003	56		 push	 esi
  00004	8b f1		 mov	 esi, ecx

; 94   : 	ioAttackableItem *pAttackable = ToAttackableItem( GetOwnerItem() );

  00006	ff b6 a4 02 00
	00		 push	 DWORD PTR [esi+676]
  0000c	e8 00 00 00 00	 call	 ?ToAttackableItem@@YAPAVioAttackableItem@@PAVioItem@@@Z ; ToAttackableItem
  00011	59		 pop	 ecx

; 95   : 	if( pAttackable )

  00012	85 c0		 test	 eax, eax
  00014	74 15		 je	 SHORT $LN2@IsCanUseSk

; 96   : 	{
; 97   : 		if( !pAttackable->IsCanFire( pChar ) )

  00016	8b 10		 mov	 edx, DWORD PTR [eax]
  00018	6a 00		 push	 0
  0001a	6a 00		 push	 0
  0001c	ff 75 08	 push	 DWORD PTR _pChar$[ebp]
  0001f	8b c8		 mov	 ecx, eax
  00021	ff 92 b8 00 00
	00		 call	 DWORD PTR [edx+184]
  00027	84 c0		 test	 al, al
  00029	74 12		 je	 SHORT $LN1@IsCanUseSk
$LN2@IsCanUseSk:

; 98   : 			return false;
; 99   : 	}
; 100  : 
; 101  : 	if( !CheckNeedGauge( pChar, bHelpMsg ) )

  0002b	ff 75 0c	 push	 DWORD PTR _bHelpMsg$[ebp]
  0002e	8b ce		 mov	 ecx, esi
  00030	ff 75 08	 push	 DWORD PTR _pChar$[ebp]
  00033	e8 00 00 00 00	 call	 ?CheckNeedGauge@ioSkill@@IAE_NPAVioBaseChar@@_N@Z ; ioSkill::CheckNeedGauge
  00038	84 c0		 test	 al, al
  0003a	0f 95 c0	 setne	 al
$LN1@IsCanUseSk:
  0003d	5e		 pop	 esi

; 102  : 		return false;
; 103  : 
; 104  : 	return true;
; 105  : }

  0003e	5d		 pop	 ebp
  0003f	c2 08 00	 ret	 8
?IsCanUseSkill@ioFullShotSkill@@UAE_NPAVioBaseChar@@_N@Z ENDP ; ioFullShotSkill::IsCanUseSkill
_TEXT	ENDS
PUBLIC	__real@00000000
PUBLIC	__real@bf800000
PUBLIC	__real@4f800000
PUBLIC	_pStage$GSCopy$
PUBLIC	_pWeapon$GSCopy$
PUBLIC	__$ArrayPad$
PUBLIC	?ApplyAttributeToWeapon@ioFullShotSkill@@UAEXPAVioWeapon@@PAVioPlayStage@@@Z ; ioFullShotSkill::ApplyAttributeToWeapon
EXTRN	?GetCharHeadPos@ioBaseChar@@QBE?AUD3DXVECTOR3@@M@Z:PROC ; ioBaseChar::GetCharHeadPos
EXTRN	?SetSecondAttribute@ioThrowReturnWeapon@@QAEXH@Z:PROC ; ioThrowReturnWeapon::SetSecondAttribute
EXTRN	?GetMidPositionByRate@ioGameEntity@@QBE?AUD3DXVECTOR3@@M@Z:PROC ; ioGameEntity::GetMidPositionByRate
EXTRN	?ReCalcMoveDir@ioLaserItem@@QAE?AUD3DXVECTOR3@@PAVioBaseChar@@PAVioWeapon@@@Z:PROC ; ioLaserItem::ReCalcMoveDir
EXTRN	?InitCoolTime@ioLaserItem@@QAEXXZ:PROC		; ioLaserItem::InitCoolTime
EXTRN	?ReCalcMoveDir@ioBowItem@@QAE?AUD3DXVECTOR3@@PAVioBaseChar@@PAVioWeapon@@@Z:PROC ; ioBowItem::ReCalcMoveDir
EXTRN	?InitCoolTime@ioBowItem@@QAEXXZ:PROC		; ioBowItem::InitCoolTime
EXTRN	?IsChargeBulletType@ioBowItem@@QAE_NXZ:PROC	; ioBowItem::IsChargeBulletType
EXTRN	_D3DXQuaternionRotationAxis@12:PROC
EXTRN	__imp_??D@YA?AUD3DXVECTOR3@@ABUD3DXQUATERNION@@ABU0@@Z:PROC
EXTRN	?ReCalcMoveDir@ioBowItem2@@QAE?AUD3DXVECTOR3@@PAVioBaseChar@@PAVioWeapon@@@Z:PROC ; ioBowItem2::ReCalcMoveDir
EXTRN	_D3DXVec3Normalize@8:PROC
EXTRN	_D3DXQuaternionRotationYawPitchRoll@16:PROC
EXTRN	__imp_?ArrangeHead@ioMath@@SAMM@Z:PROC
EXTRN	?ReCalcMoveDir@ioFireWeaponItem@@QAE?AUD3DXVECTOR3@@PAVioBaseChar@@PAVioWeapon@@@Z:PROC ; ioFireWeaponItem::ReCalcMoveDir
EXTRN	?GetOwner@ioWeapon@@QBEPAVioBaseChar@@XZ:PROC	; ioWeapon::GetOwner
EXTRN	?Random@IORandom@@QAEII@Z:PROC			; IORandom::Random
EXTRN	?ApplyAttributeToWeapon@ioSkill@@UAEXPAVioWeapon@@PAVioPlayStage@@@Z:PROC ; ioSkill::ApplyAttributeToWeapon
EXTRN	___security_cookie:DWORD
;	COMDAT __real@00000000
; File d:\lost saga for developer\youtube\tutorial\source\src\lsclient\stdafx.h
CONST	SEGMENT
__real@00000000 DD 000000000r			; 0
CONST	ENDS
;	COMDAT __real@bf800000
CONST	SEGMENT
__real@bf800000 DD 0bf800000r			; -1
CONST	ENDS
;	COMDAT __real@4f800000
CONST	SEGMENT
__real@4f800000 DD 04f800000r			; 4.29497e+009
; Function compile flags: /Ogsp
; File d:\lost saga for developer\youtube\tutorial\source\src\lsclient\iofullshotskill.cpp
CONST	ENDS
;	COMDAT ?ApplyAttributeToWeapon@ioFullShotSkill@@UAEXPAVioWeapon@@PAVioPlayStage@@@Z
_TEXT	SEGMENT
tv3564 = -132						; size = 4
_pThrow$ = -132						; size = 4
_fCurRangeRate$601540 = -128				; size = 4
_pPower$ = -128						; size = 4
_pStage$GSCopy$ = -124					; size = 4
_fCurFloatRate$601542 = -120				; size = 4
_pBow$ = -120						; size = 4
_fCurScaleRate$601543 = -116				; size = 4
_pBow2$ = -116						; size = 4
_fCurHeight$601550 = -112				; size = 4
_fCurBlowRate$601539 = -112				; size = 4
_fCurHeight$601523 = -112				; size = 4
_pCount$ = -112						; size = 4
_qtAngle$601552 = -108					; size = 16
_qtRotate$601526 = -108					; size = 16
_qtRotate$601504 = -108					; size = 16
_qtRotate$601480 = -108					; size = 16
_qtAngle$601455 = -108					; size = 16
_qtRotate$601433 = -108					; size = 16
_fCurRange$601549 = -92					; size = 4
_fCurForceRate$601538 = -92				; size = 4
_fCurRange$601522 = -92					; size = 4
_pRange$ = -92						; size = 4
_fCurExplosionRate$601544 = -88				; size = 4
_fSpeed$ = -88						; size = 4
_qtRotate$601553 = -84					; size = 16
_qtAngle$601525 = -84					; size = 16
_qtAngle$601502 = -84					; size = 16
_qtAngle$601478 = -84					; size = 16
_qtRotate$601457 = -84					; size = 16
_qtAngle$601427 = -84					; size = 16
tv4327 = -68						; size = 4
tv4296 = -68						; size = 4
tv4030 = -68						; size = 4
tv3999 = -68						; size = 4
tv3883 = -68						; size = 4
tv3852 = -68						; size = 4
tv3764 = -68						; size = 4
tv3733 = -68						; size = 4
tv3729 = -68						; size = 4
tv3668 = -68						; size = 4
tv3637 = -68						; size = 4
tv3633 = -68						; size = 4
_fCurWoundedTimeRate$601545 = -68			; size = 4
tv3786 = -64						; size = 4
tv3725 = -64						; size = 4
tv3690 = -64						; size = 4
tv3629 = -64						; size = 4
_fCurAngle$601548 = -64					; size = 4
_fCurDamageRate$601537 = -64				; size = 4
_fCurAngle$601521 = -64					; size = 4
_pRotate$ = -64						; size = 4
_pWeapon$GSCopy$ = -60					; size = 4
tv3489 = -56						; size = 4
tv3377 = -56						; size = 4
tv3269 = -56						; size = 4
tv3143 = -56						; size = 4
_fCurSpeedRate$601541 = -56				; size = 4
_fCurAngle$601500 = -56					; size = 4
_fCurAngle$601476 = -56					; size = 4
_fCurAngle$601453 = -56					; size = 4
_fCurAngle$601425 = -56					; size = 4
_pLaser$ = -56						; size = 4
$T601568 = -52						; size = 12
$T601557 = -52						; size = 12
$T601556 = -52						; size = 12
$T601530 = -52						; size = 12
$T601529 = -52						; size = 12
$T601515 = -52						; size = 12
$T601508 = -52						; size = 12
$T601498 = -52						; size = 12
$T601474 = -52						; size = 12
$T601466 = -52						; size = 12
$T601460 = -52						; size = 12
$T601459 = -52						; size = 12
$T601451 = -52						; size = 12
$T601423 = -52						; size = 12
_v$606779 = -40						; size = 12
_v$606689 = -40						; size = 12
_v$606517 = -40						; size = 12
$T601555 = -40						; size = 12
$T601528 = -40						; size = 12
_vYAxis$601512 = -40					; size = 12
$T601507 = -40						; size = 12
_vYAxis$601488 = -40					; size = 12
_vMoveDir$601454 = -40					; size = 12
_vYAxis$601441 = -40					; size = 12
_v$606599 = -28						; size = 12
_vMoveDir$601551 = -28					; size = 12
_vMoveDir$601524 = -28					; size = 12
_vMoveDir$601501 = -28					; size = 12
$T601458 = -28						; size = 12
_vPos$601558 = -16					; size = 12
_vPos$601531 = -16					; size = 12
_vRotAxis2$601514 = -16					; size = 12
$T601506 = -16						; size = 12
_vRotAxis2$601490 = -16					; size = 12
_vRotAxis2$601465 = -16					; size = 12
_vRotAxis2$601443 = -16					; size = 12
__$ArrayPad$ = -4					; size = 4
_pWeapon$ = 8						; size = 4
_pStage$ = 12						; size = 4
?ApplyAttributeToWeapon@ioFullShotSkill@@UAEXPAVioWeapon@@PAVioPlayStage@@@Z PROC ; ioFullShotSkill::ApplyAttributeToWeapon, COMDAT
; _this$ = ecx

; 250  : {

  00000	55		 push	 ebp
  00001	8b ec		 mov	 ebp, esp
  00003	81 ec 84 00 00
	00		 sub	 esp, 132		; 00000084H
  00009	a1 00 00 00 00	 mov	 eax, DWORD PTR ___security_cookie
  0000e	33 c5		 xor	 eax, ebp
  00010	89 45 fc	 mov	 DWORD PTR __$ArrayPad$[ebp], eax
  00013	8b 45 0c	 mov	 eax, DWORD PTR _pStage$[ebp]
  00016	53		 push	 ebx
  00017	56		 push	 esi
  00018	57		 push	 edi
  00019	8b 7d 08	 mov	 edi, DWORD PTR _pWeapon$[ebp]

; 251  : 	ioSkill::ApplyAttributeToWeapon( pWeapon, pStage );

  0001c	50		 push	 eax
  0001d	57		 push	 edi
  0001e	8b d9		 mov	 ebx, ecx

; 605  : 	{
; 606  : 		pThrow->SetSecondAttribute( m_iSecondAttributeIndex );

  00020	89 7d c4	 mov	 DWORD PTR _pWeapon$GSCopy$[ebp], edi
  00023	89 45 84	 mov	 DWORD PTR _pStage$GSCopy$[ebp], eax
  00026	e8 00 00 00 00	 call	 ?ApplyAttributeToWeapon@ioSkill@@UAEXPAVioWeapon@@PAVioPlayStage@@@Z ; ioSkill::ApplyAttributeToWeapon
  0002b	80 bb 08 1b 00
	00 00		 cmp	 BYTE PTR [ebx+6920], 0
  00032	0f 57 c0	 xorps	 xmm0, xmm0
  00035	f3 0f 10 8b 0c
	1b 00 00	 movss	 xmm1, DWORD PTR [ebx+6924]
  0003d	f3 0f 11 45 a8	 movss	 DWORD PTR _fSpeed$[ebp], xmm0
  00042	f3 0f 10 83 10
	1b 00 00	 movss	 xmm0, DWORD PTR [ebx+6928]
  0004a	0f 5a c0	 cvtps2pd xmm0, xmm0
  0004d	0f 5a c9	 cvtps2pd xmm1, xmm1
  00050	f2 0f 5c c1	 subsd	 xmm0, xmm1
  00054	f2 0f 2c c0	 cvttsd2si eax, xmm0
  00058	74 32		 je	 SHORT $LN51@ApplyAttri

; 252  : 
; 253  : 	float fSpeed = 0.0f;
; 254  : 	int iGap = m_fMaxSpeed - m_fMinSpeed;
; 255  : 	if( m_bUseSpeedRandom && iGap > 0 )

  0005a	85 c0		 test	 eax, eax
  0005c	7e 2e		 jle	 SHORT $LN51@ApplyAttri

; 256  : 	{
; 257  : 		int iRand = m_SpeedRand.Random( iGap );

  0005e	50		 push	 eax
  0005f	8d 8b 3c 11 00
	00		 lea	 ecx, DWORD PTR [ebx+4412]
  00065	e8 00 00 00 00	 call	 ?Random@IORandom@@QAEII@Z ; IORandom::Random

; 258  : 		fSpeed = m_fMinSpeed + iRand;

  0006a	f3 0f 10 8b 0c
	1b 00 00	 movss	 xmm1, DWORD PTR [ebx+6924]
  00072	0f 57 c0	 xorps	 xmm0, xmm0
  00075	f3 0f 2a c0	 cvtsi2ss xmm0, eax
  00079	0f 5a c0	 cvtps2pd xmm0, xmm0
  0007c	0f 5a c9	 cvtps2pd xmm1, xmm1
  0007f	f2 0f 58 c1	 addsd	 xmm0, xmm1
  00083	66 0f 5a c0	 cvtpd2ps xmm0, xmm0
  00087	f3 0f 11 45 a8	 movss	 DWORD PTR _fSpeed$[ebp], xmm0
$LN51@ApplyAttri:

; 259  : 	}
; 260  : 
; 261  : 	ioBowItem2 *pBow2 = ToBowItem2( GetOwnerItem() );

  0008c	ff b3 a4 02 00
	00		 push	 DWORD PTR [ebx+676]
  00092	e8 00 00 00 00	 call	 ?ToBowItem2@@YAPAVioBowItem2@@PAVioItem@@@Z ; ToBowItem2

; 262  : 	ioFireWeaponItem *pFire = ToFireWeaponItem( GetOwnerItem() );

  00097	ff b3 a4 02 00
	00		 push	 DWORD PTR [ebx+676]
  0009d	89 45 8c	 mov	 DWORD PTR _pBow2$[ebp], eax
  000a0	e8 00 00 00 00	 call	 ?ToFireWeaponItem@@YAPAVioFireWeaponItem@@PAVioItem@@@Z ; ToFireWeaponItem

; 263  : 	ioLaserItem *pLaser = ToLaserItem( GetOwnerItem() );

  000a5	ff b3 a4 02 00
	00		 push	 DWORD PTR [ebx+676]
  000ab	8b f0		 mov	 esi, eax
  000ad	e8 00 00 00 00	 call	 ?ToLaserItem@@YAPAVioLaserItem@@PAVioItem@@@Z ; ToLaserItem

; 264  : 	ioBowItem *pBow = ToBowItem( GetOwnerItem() );

  000b2	ff b3 a4 02 00
	00		 push	 DWORD PTR [ebx+676]
  000b8	89 45 c8	 mov	 DWORD PTR _pLaser$[ebp], eax
  000bb	e8 00 00 00 00	 call	 ?ToBowItem@@YAPAVioBowItem@@PAVioItem@@@Z ; ToBowItem

; 265  : 	ioPowerChargeItem *pPower = ToPowerChargeItem( GetOwnerItem() );

  000c0	ff b3 a4 02 00
	00		 push	 DWORD PTR [ebx+676]
  000c6	89 45 88	 mov	 DWORD PTR _pBow$[ebp], eax
  000c9	e8 00 00 00 00	 call	 ?ToPowerChargeItem@@YAPAVioPowerChargeItem@@PAVioItem@@@Z ; ToPowerChargeItem

; 266  : 	ioCountChargeItem *pCount = ToCountChargeItem( GetOwnerItem() );

  000ce	ff b3 a4 02 00
	00		 push	 DWORD PTR [ebx+676]
  000d4	89 45 80	 mov	 DWORD PTR _pPower$[ebp], eax
  000d7	e8 00 00 00 00	 call	 ?ToCountChargeItem@@YAPAVioCountChargeItem@@PAVioItem@@@Z ; ToCountChargeItem

; 267  : 	ioRangeChargeItem *pRange = ToRangeChargeItem( GetOwnerItem() );

  000dc	ff b3 a4 02 00
	00		 push	 DWORD PTR [ebx+676]
  000e2	89 45 90	 mov	 DWORD PTR _pCount$[ebp], eax
  000e5	e8 00 00 00 00	 call	 ?ToRangeChargeItem@@YAPAVioRangeChargeItem@@PAVioItem@@@Z ; ToRangeChargeItem

; 268  : 	ioRotateChargeItem *pRotate = ToRotateChargeItem( GetOwnerItem() );

  000ea	ff b3 a4 02 00
	00		 push	 DWORD PTR [ebx+676]
  000f0	89 45 a4	 mov	 DWORD PTR _pRange$[ebp], eax
  000f3	e8 00 00 00 00	 call	 ?ToRotateChargeItem@@YAPAVioRotateChargeItem@@PAVioItem@@@Z ; ToRotateChargeItem

; 269  : 
; 270  : 	ioThrowReturnWeapon *pThrow = ToThrowReturnWeapon( pWeapon );

  000f8	57		 push	 edi
  000f9	89 45 c0	 mov	 DWORD PTR _pRotate$[ebp], eax
  000fc	e8 00 00 00 00	 call	 ?ToThrowReturnWeapon@@YAPAVioThrowReturnWeapon@@PAVioWeapon@@@Z ; ToThrowReturnWeapon
  00101	83 c4 24	 add	 esp, 36			; 00000024H
  00104	89 85 7c ff ff
	ff		 mov	 DWORD PTR _pThrow$[ebp], eax

; 271  : 
; 272  : 	if( pFire )

  0010a	85 f6		 test	 esi, esi
  0010c	0f 84 57 02 00
	00		 je	 $LN50@ApplyAttri

; 273  : 	{
; 274  : 		D3DXVECTOR3 vZero( 0.0f, 0.0f, 0.0f );
; 275  : 
; 276  : 		if( pFire->GetAimedSkillUse() && pFire->GetAimedDirSet() )

  00112	80 be ec 1c 00
	00 00		 cmp	 BYTE PTR [esi+7404], 0
  00119	74 55		 je	 SHORT $LN48@ApplyAttri
  0011b	80 be ed 1c 00
	00 00		 cmp	 BYTE PTR [esi+7405], 0
  00122	74 4c		 je	 SHORT $LN48@ApplyAttri

; 277  : 		{
; 278  : 			if( m_vSkillDir == vZero )

  00124	0f 57 c0	 xorps	 xmm0, xmm0
  00127	8d bb e4 10 00
	00		 lea	 edi, DWORD PTR [ebx+4324]
  0012d	f3 0f 10 0f	 movss	 xmm1, DWORD PTR [edi]
  00131	0f 2e c8	 ucomiss xmm1, xmm0
  00134	9f		 lahf
  00135	f6 c4 44	 test	 ah, 68			; 00000044H
  00138	7a 36		 jp	 SHORT $LN48@ApplyAttri
  0013a	f3 0f 10 4f 04	 movss	 xmm1, DWORD PTR [edi+4]
  0013f	0f 2e c8	 ucomiss xmm1, xmm0
  00142	9f		 lahf
  00143	f6 c4 44	 test	 ah, 68			; 00000044H
  00146	7a 28		 jp	 SHORT $LN48@ApplyAttri
  00148	f3 0f 10 4f 08	 movss	 xmm1, DWORD PTR [edi+8]
  0014d	0f 2e c8	 ucomiss xmm1, xmm0
  00150	9f		 lahf
  00151	f6 c4 44	 test	 ah, 68			; 00000044H
  00154	7a 1a		 jp	 SHORT $LN48@ApplyAttri

; 279  : 			{
; 280  : 				m_vSkillDir = pFire->ReCalcMoveDir( pWeapon->GetOwner(), pWeapon );

  00156	8b 4d c4	 mov	 ecx, DWORD PTR _pWeapon$GSCopy$[ebp]
  00159	51		 push	 ecx
  0015a	e8 00 00 00 00	 call	 ?GetOwner@ioWeapon@@QBEPAVioBaseChar@@XZ ; ioWeapon::GetOwner
  0015f	50		 push	 eax
  00160	8d 45 cc	 lea	 eax, DWORD PTR $T601423[ebp]
  00163	50		 push	 eax
  00164	8b ce		 mov	 ecx, esi
  00166	e8 00 00 00 00	 call	 ?ReCalcMoveDir@ioFireWeaponItem@@QAE?AUD3DXVECTOR3@@PAVioBaseChar@@PAVioWeapon@@@Z ; ioFireWeaponItem::ReCalcMoveDir
  0016b	8b f0		 mov	 esi, eax
  0016d	a5		 movsd
  0016e	a5		 movsd
  0016f	a5		 movsd
$LN48@ApplyAttri:

; 281  : 			}
; 282  : 		}
; 283  : 
; 284  : 		if( m_iMaxWeaponWay <= m_iWeaponWay )

  00170	8b 83 f4 10 00
	00		 mov	 eax, DWORD PTR [ebx+4340]
  00176	39 83 f0 10 00
	00		 cmp	 DWORD PTR [ebx+4336], eax
  0017c	0f 8e 23 10 00
	00		 jle	 $LN1@ApplyAttri

; 285  : 			return;
; 286  : 
; 287  : 		float fCurAngle = 0.0f;
; 288  : 		fCurAngle = m_BulletInfoList[m_iWeaponWay].m_fYawAngle;

  00182	8b 8b f8 10 00
	00		 mov	 ecx, DWORD PTR [ebx+4344]
  00188	6b c0 14	 imul	 eax, 20			; 00000014H
  0018b	f3 0f 10 04 08	 movss	 xmm0, DWORD PTR [eax+ecx]

; 289  : 			
; 290  : 		fCurAngle = ioMath::ArrangeHead( fCurAngle );

  00190	51		 push	 ecx
  00191	f3 0f 11 04 24	 movss	 DWORD PTR [esp], xmm0
  00196	ff 15 00 00 00
	00		 call	 DWORD PTR __imp_?ArrangeHead@ioMath@@SAMM@Z
  0019c	d9 5d c8	 fstp	 DWORD PTR _fCurAngle$601425[ebp]

; 291  : 
; 292  : 		D3DXVECTOR3 vMoveDir;
; 293  : 		D3DXQUATERNION qtAngle;
; 294  : 		D3DXQuaternionRotationYawPitchRoll( &qtAngle, DEGtoRAD(fCurAngle), 0.0f, 0.0f );

  0019f	f3 0f 10 45 c8	 movss	 xmm0, DWORD PTR _fCurAngle$601425[ebp]
  001a4	0f 5a c0	 cvtps2pd xmm0, xmm0
  001a7	f2 0f 59 05 00
	00 00 00	 mulsd	 xmm0, QWORD PTR __real@3f91df46a2526c7a
  001af	66 0f 5a c8	 cvtpd2ps xmm1, xmm0
  001b3	0f 57 c0	 xorps	 xmm0, xmm0
  001b6	f3 0f 11 04 24	 movss	 DWORD PTR [esp], xmm0
  001bb	51		 push	 ecx
  001bc	51		 push	 ecx
  001bd	f3 0f 11 44 24
	04		 movss	 DWORD PTR [esp+4], xmm0
  001c3	8d 45 ac	 lea	 eax, DWORD PTR _qtAngle$601427[ebp]
  001c6	f3 0f 11 0c 24	 movss	 DWORD PTR [esp], xmm1
  001cb	50		 push	 eax
  001cc	f3 0f 11 4d c8	 movss	 DWORD PTR tv3143[ebp], xmm1
  001d1	e8 00 00 00 00	 call	 _D3DXQuaternionRotationYawPitchRoll@16

; 295  : 
; 296  : 		if( m_vSkillDir == vZero )

  001d6	0f 57 c0	 xorps	 xmm0, xmm0
  001d9	8d 8b e4 10 00
	00		 lea	 ecx, DWORD PTR [ebx+4324]
  001df	f3 0f 10 09	 movss	 xmm1, DWORD PTR [ecx]
  001e3	0f 2e c8	 ucomiss xmm1, xmm0
  001e6	9f		 lahf
  001e7	f6 c4 44	 test	 ah, 68			; 00000044H
  001ea	7a 41		 jp	 SHORT $LN46@ApplyAttri
  001ec	f3 0f 10 49 04	 movss	 xmm1, DWORD PTR [ecx+4]
  001f1	0f 2e c8	 ucomiss xmm1, xmm0
  001f4	9f		 lahf
  001f5	f6 c4 44	 test	 ah, 68			; 00000044H
  001f8	7a 33		 jp	 SHORT $LN46@ApplyAttri
  001fa	f3 0f 10 49 08	 movss	 xmm1, DWORD PTR [ecx+8]
  001ff	0f 2e c8	 ucomiss xmm1, xmm0
  00202	9f		 lahf
  00203	f6 c4 44	 test	 ah, 68			; 00000044H
  00206	7a 25		 jp	 SHORT $LN46@ApplyAttri

; 297  : 		{
; 298  : 			D3DXQUATERNION qtRotate = pWeapon->GetOwner()->GetTargetRot();

  00208	8b 4d c4	 mov	 ecx, DWORD PTR _pWeapon$GSCopy$[ebp]
  0020b	e8 00 00 00 00	 call	 ?GetOwner@ioWeapon@@QBEPAVioBaseChar@@XZ ; ioWeapon::GetOwner
  00210	8d b0 a4 06 00
	00		 lea	 esi, DWORD PTR [eax+1700]
  00216	8d 7d 94	 lea	 edi, DWORD PTR _qtRotate$601433[ebp]
  00219	a5		 movsd
  0021a	a5		 movsd
  0021b	a5		 movsd
  0021c	a5		 movsd

; 299  : 			vMoveDir = qtRotate * D3DXVECTOR3( 0.0f, 0.0f, -FLOAT1 );

  0021d	b8 01 00 00 00	 mov	 eax, 1
  00222	89 45 bc	 mov	 DWORD PTR tv4327[ebp], eax
  00225	db 45 bc	 fild	 DWORD PTR tv4327[ebp]

; 300  : 			vMoveDir = qtAngle * vMoveDir;
; 301  : 		}
; 302  : 		else

  00228	e9 7f 07 00 00	 jmp	 $LN359@ApplyAttri
$LN46@ApplyAttri:

; 303  : 		{
; 304  : 			if( m_vSkillDir.y != 0 )

  0022d	f3 0f 10 8b e8
	10 00 00	 movss	 xmm1, DWORD PTR [ebx+4328]
  00235	0f 2e c8	 ucomiss xmm1, xmm0
  00238	9f		 lahf
  00239	f6 c4 44	 test	 ah, 68			; 00000044H
  0023c	0f 8b 01 09 00
	00		 jnp	 $LN16@ApplyAttri

; 305  : 			{
; 306  : 				D3DXVECTOR3 vYAxis( 0.0f, FLOAT1, 0.0f );

  00242	b8 01 00 00 00	 mov	 eax, 1
  00247	89 45 bc	 mov	 DWORD PTR tv4296[ebp], eax
  0024a	db 45 bc	 fild	 DWORD PTR tv4296[ebp]
  0024d	85 c0		 test	 eax, eax
  0024f	79 06		 jns	 SHORT $LN337@ApplyAttri
  00251	d8 05 00 00 00
	00		 fadd	 DWORD PTR __real@4f800000
$LN337@ApplyAttri:

; 307  : 				D3DXVECTOR3 vRotAxis1, vRotAxis2;
; 308  : 
; 309  : 				// vRotAxis1은 스킬Dir과 Y축의 법선벡터
; 310  : 				D3DXVec3Cross( &vRotAxis1, &vYAxis, &m_vSkillDir );

  00257	f3 0f 10 9b ec
	10 00 00	 movss	 xmm3, DWORD PTR [ebx+4332]
  0025f	d9 5d dc	 fstp	 DWORD PTR _vYAxis$601441[ebp+4]
  00262	f3 0f 10 83 e8
	10 00 00	 movss	 xmm0, DWORD PTR [ebx+4328]
  0026a	0f 57 c9	 xorps	 xmm1, xmm1
  0026d	f3 0f 10 55 dc	 movss	 xmm2, DWORD PTR _vYAxis$601441[ebp+4]
  00272	0f 5a c0	 cvtps2pd xmm0, xmm0
  00275	f2 0f 59 c1	 mulsd	 xmm0, xmm1
  00279	0f 5a e3	 cvtps2pd xmm4, xmm3
  0027c	0f 5a db	 cvtps2pd xmm3, xmm3
  0027f	f2 0f 59 d9	 mulsd	 xmm3, xmm1
  00283	0f 5a d2	 cvtps2pd xmm2, xmm2
  00286	f2 0f 59 d4	 mulsd	 xmm2, xmm4
  0028a	f2 0f 5c d0	 subsd	 xmm2, xmm0
  0028e	0f 57 e4	 xorps	 xmm4, xmm4
  00291	f2 0f 5a e2	 cvtsd2ss xmm4, xmm2
  00295	f3 0f 10 93 e4
	10 00 00	 movss	 xmm2, DWORD PTR [ebx+4324]
  0029d	0f 5a ea	 cvtps2pd xmm5, xmm2
  002a0	f2 0f 59 e9	 mulsd	 xmm5, xmm1
  002a4	f2 0f 5c eb	 subsd	 xmm5, xmm3
  002a8	0f 5a da	 cvtps2pd xmm3, xmm2
  002ab	0f 57 c9	 xorps	 xmm1, xmm1
  002ae	66 0f 5a cd	 cvtpd2ps xmm1, xmm5
  002b2	f3 0f 10 6d dc	 movss	 xmm5, DWORD PTR _vYAxis$601441[ebp+4]
  002b7	0f 5a ed	 cvtps2pd xmm5, xmm5
  002ba	f2 0f 59 dd	 mulsd	 xmm3, xmm5

; 311  : 
; 312  : 				// vRotAxis2는 스킬Dir과 vRotAxis1의 법선벡터
; 313  : 				D3DXVec3Cross( &vRotAxis2, &vRotAxis1, &m_vSkillDir );

  002be	f3 0f 10 ab e8
	10 00 00	 movss	 xmm5, DWORD PTR [ebx+4328]
  002c6	f2 0f 5c c3	 subsd	 xmm0, xmm3
  002ca	f3 0f 10 9b ec
	10 00 00	 movss	 xmm3, DWORD PTR [ebx+4332]
  002d2	66 0f 5a c0	 cvtpd2ps xmm0, xmm0
  002d6	0f 5a fb	 cvtps2pd xmm7, xmm3
  002d9	0f 5a ed	 cvtps2pd xmm5, xmm5
  002dc	0f 5a f1	 cvtps2pd xmm6, xmm1
  002df	f2 0f 59 f7	 mulsd	 xmm6, xmm7
  002e3	0f 57 ff	 xorps	 xmm7, xmm7
  002e6	f3 0f 5a f8	 cvtss2sd xmm7, xmm0
  002ea	f3 0f 5a c0	 cvtss2sd xmm0, xmm0
  002ee	f2 0f 59 fd	 mulsd	 xmm7, xmm5
  002f2	f2 0f 5c f7	 subsd	 xmm6, xmm7
  002f6	66 0f 5a ee	 cvtpd2ps xmm5, xmm6
  002fa	f3 0f 11 6d d8	 movss	 DWORD PTR _v$606517[ebp], xmm5
  002ff	0f 5a db	 cvtps2pd xmm3, xmm3
  00302	0f 5a c9	 cvtps2pd xmm1, xmm1
  00305	8d 75 d8	 lea	 esi, DWORD PTR _v$606517[ebp]
  00308	8d 7d f0	 lea	 edi, DWORD PTR _vRotAxis2$601443[ebp]
  0030b	0f 5a ea	 cvtps2pd xmm5, xmm2
  0030e	f2 0f 59 e8	 mulsd	 xmm5, xmm0
  00312	0f 5a c4	 cvtps2pd xmm0, xmm4
  00315	f2 0f 59 c3	 mulsd	 xmm0, xmm3
  00319	f2 0f 5c e8	 subsd	 xmm5, xmm0
  0031d	0f 57 c0	 xorps	 xmm0, xmm0
  00320	66 0f 5a c5	 cvtpd2ps xmm0, xmm5
  00324	f3 0f 11 45 dc	 movss	 DWORD PTR _v$606517[ebp+4], xmm0
  00329	f3 0f 10 83 e8
	10 00 00	 movss	 xmm0, DWORD PTR [ebx+4328]
  00331	0f 5a c0	 cvtps2pd xmm0, xmm0
  00334	0f 5a dc	 cvtps2pd xmm3, xmm4
  00337	f2 0f 59 d8	 mulsd	 xmm3, xmm0

; 314  : 
; 315  : 				D3DXVec3Normalize( &vRotAxis2, &vRotAxis2 );

  0033b	8d 45 f0	 lea	 eax, DWORD PTR _vRotAxis2$601443[ebp]
  0033e	50		 push	 eax
  0033f	50		 push	 eax
  00340	0f 5a c2	 cvtps2pd xmm0, xmm2
  00343	f2 0f 59 c1	 mulsd	 xmm0, xmm1
  00347	f2 0f 5c d8	 subsd	 xmm3, xmm0
  0034b	0f 57 c0	 xorps	 xmm0, xmm0
  0034e	66 0f 5a c3	 cvtpd2ps xmm0, xmm3
  00352	f3 0f 11 45 e0	 movss	 DWORD PTR _v$606517[ebp+8], xmm0
  00357	a5		 movsd
  00358	a5		 movsd
  00359	a5		 movsd
  0035a	e8 00 00 00 00	 call	 _D3DXVec3Normalize@8

; 316  : 				D3DXQuaternionRotationAxis( &qtAngle, &vRotAxis2, DEGtoRAD(fCurAngle) );

  0035f	f3 0f 10 45 c8	 movss	 xmm0, DWORD PTR tv3143[ebp]

; 317  : 			}
; 318  : 
; 319  : 			vMoveDir = qtAngle * m_vSkillDir;
; 320  : 		}
; 321  : 
; 322  : 		pWeapon->SetMoveDir( vMoveDir );
; 323  : 
; 324  : 		if( fSpeed > 0.0f )
; 325  : 			pWeapon->SetMoveSpeed( fSpeed );
; 326  : 
; 327  : 		m_iWeaponWay++;

  00364	e9 c7 07 00 00	 jmp	 $LN356@ApplyAttri
$LN50@ApplyAttri:

; 328  : 	}
; 329  : 	else if( pBow2 )

  00369	8b 45 8c	 mov	 eax, DWORD PTR _pBow2$[ebp]
  0036c	33 c9		 xor	 ecx, ecx
  0036e	3b c1		 cmp	 eax, ecx
  00370	0f 84 95 02 00
	00		 je	 $LN41@ApplyAttri

; 330  : 	{
; 331  : 		D3DXVECTOR3 vZero( 0.0f, 0.0f, 0.0f );
; 332  : 
; 333  : 		if( pBow2->GetAimedSkillUse() && pBow2->GetAimedDirSet() )

  00376	38 88 44 1c 00
	00		 cmp	 BYTE PTR [eax+7236], cl
  0037c	74 55		 je	 SHORT $LN39@ApplyAttri
  0037e	38 88 45 1c 00
	00		 cmp	 BYTE PTR [eax+7237], cl
  00384	74 4d		 je	 SHORT $LN39@ApplyAttri

; 334  : 		{
; 335  : 			if( m_vSkillDir == vZero )

  00386	0f 57 c0	 xorps	 xmm0, xmm0
  00389	8d bb e4 10 00
	00		 lea	 edi, DWORD PTR [ebx+4324]
  0038f	f3 0f 10 0f	 movss	 xmm1, DWORD PTR [edi]
  00393	0f 2e c8	 ucomiss xmm1, xmm0
  00396	9f		 lahf
  00397	f6 c4 44	 test	 ah, 68			; 00000044H
  0039a	7a 37		 jp	 SHORT $LN39@ApplyAttri
  0039c	f3 0f 10 4f 04	 movss	 xmm1, DWORD PTR [edi+4]
  003a1	0f 2e c8	 ucomiss xmm1, xmm0
  003a4	9f		 lahf
  003a5	f6 c4 44	 test	 ah, 68			; 00000044H
  003a8	7a 29		 jp	 SHORT $LN39@ApplyAttri
  003aa	f3 0f 10 4f 08	 movss	 xmm1, DWORD PTR [edi+8]
  003af	0f 2e c8	 ucomiss xmm1, xmm0
  003b2	9f		 lahf
  003b3	f6 c4 44	 test	 ah, 68			; 00000044H
  003b6	7a 1b		 jp	 SHORT $LN39@ApplyAttri

; 336  : 			{
; 337  : 				m_vSkillDir = pBow2->ReCalcMoveDir( pWeapon->GetOwner(), pWeapon );

  003b8	8b 4d c4	 mov	 ecx, DWORD PTR _pWeapon$GSCopy$[ebp]
  003bb	51		 push	 ecx
  003bc	e8 00 00 00 00	 call	 ?GetOwner@ioWeapon@@QBEPAVioBaseChar@@XZ ; ioWeapon::GetOwner
  003c1	8b 4d 8c	 mov	 ecx, DWORD PTR _pBow2$[ebp]
  003c4	50		 push	 eax
  003c5	8d 45 cc	 lea	 eax, DWORD PTR $T601451[ebp]
  003c8	50		 push	 eax
  003c9	e8 00 00 00 00	 call	 ?ReCalcMoveDir@ioBowItem2@@QAE?AUD3DXVECTOR3@@PAVioBaseChar@@PAVioWeapon@@@Z ; ioBowItem2::ReCalcMoveDir
  003ce	8b f0		 mov	 esi, eax
  003d0	a5		 movsd
  003d1	a5		 movsd
  003d2	a5		 movsd
$LN39@ApplyAttri:

; 338  : 			}
; 339  : 		}
; 340  : 
; 341  : 		if( m_iMaxWeaponWay <= m_iWeaponWay )

  003d3	8b 83 f4 10 00
	00		 mov	 eax, DWORD PTR [ebx+4340]
  003d9	39 83 f0 10 00
	00		 cmp	 DWORD PTR [ebx+4336], eax
  003df	0f 8e c0 0d 00
	00		 jle	 $LN1@ApplyAttri

; 342  : 			return;
; 343  : 
; 344  : 		float fCurAngle = 0.0f;
; 345  : 		fCurAngle = m_BulletInfoList[m_iWeaponWay].m_fYawAngle;

  003e5	8b 8b f8 10 00
	00		 mov	 ecx, DWORD PTR [ebx+4344]
  003eb	6b c0 14	 imul	 eax, 20			; 00000014H
  003ee	f3 0f 10 04 08	 movss	 xmm0, DWORD PTR [eax+ecx]

; 346  : 
; 347  : 		fCurAngle = ioMath::ArrangeHead( fCurAngle );

  003f3	51		 push	 ecx
  003f4	f3 0f 11 04 24	 movss	 DWORD PTR [esp], xmm0
  003f9	ff 15 00 00 00
	00		 call	 DWORD PTR __imp_?ArrangeHead@ioMath@@SAMM@Z
  003ff	d9 5d c8	 fstp	 DWORD PTR _fCurAngle$601453[ebp]

; 348  : 
; 349  : 		D3DXVECTOR3 vMoveDir;
; 350  : 		D3DXQUATERNION qtAngle;
; 351  : 		D3DXQuaternionRotationYawPitchRoll( &qtAngle, DEGtoRAD(fCurAngle), 0.0f, 0.0f );

  00402	f3 0f 10 45 c8	 movss	 xmm0, DWORD PTR _fCurAngle$601453[ebp]
  00407	0f 5a c0	 cvtps2pd xmm0, xmm0
  0040a	f2 0f 59 05 00
	00 00 00	 mulsd	 xmm0, QWORD PTR __real@3f91df46a2526c7a
  00412	66 0f 5a c8	 cvtpd2ps xmm1, xmm0
  00416	0f 57 c0	 xorps	 xmm0, xmm0
  00419	f3 0f 11 04 24	 movss	 DWORD PTR [esp], xmm0
  0041e	51		 push	 ecx
  0041f	51		 push	 ecx
  00420	f3 0f 11 44 24
	04		 movss	 DWORD PTR [esp+4], xmm0
  00426	8d 45 94	 lea	 eax, DWORD PTR _qtAngle$601455[ebp]
  00429	f3 0f 11 0c 24	 movss	 DWORD PTR [esp], xmm1
  0042e	50		 push	 eax
  0042f	f3 0f 11 4d c8	 movss	 DWORD PTR tv3269[ebp], xmm1
  00434	e8 00 00 00 00	 call	 _D3DXQuaternionRotationYawPitchRoll@16

; 352  : 
; 353  : 		if( m_vSkillDir == vZero )

  00439	0f 57 c0	 xorps	 xmm0, xmm0
  0043c	8d 8b e4 10 00
	00		 lea	 ecx, DWORD PTR [ebx+4324]
  00442	f3 0f 10 11	 movss	 xmm2, DWORD PTR [ecx]
  00446	0f 2e d0	 ucomiss xmm2, xmm0
  00449	9f		 lahf
  0044a	f6 c4 44	 test	 ah, 68			; 00000044H
  0044d	7a 7f		 jp	 SHORT $LN37@ApplyAttri
  0044f	f3 0f 10 49 04	 movss	 xmm1, DWORD PTR [ecx+4]
  00454	0f 2e c8	 ucomiss xmm1, xmm0
  00457	9f		 lahf
  00458	f6 c4 44	 test	 ah, 68			; 00000044H
  0045b	7a 71		 jp	 SHORT $LN37@ApplyAttri
  0045d	f3 0f 10 49 08	 movss	 xmm1, DWORD PTR [ecx+8]
  00462	0f 2e c8	 ucomiss xmm1, xmm0
  00465	9f		 lahf
  00466	f6 c4 44	 test	 ah, 68			; 00000044H
  00469	7a 63		 jp	 SHORT $LN37@ApplyAttri

; 354  : 		{
; 355  : 			D3DXQUATERNION qtRotate = pWeapon->GetOwner()->GetTargetRot();

  0046b	8b 4d c4	 mov	 ecx, DWORD PTR _pWeapon$GSCopy$[ebp]
  0046e	e8 00 00 00 00	 call	 ?GetOwner@ioWeapon@@QBEPAVioBaseChar@@XZ ; ioWeapon::GetOwner

; 356  : 			vMoveDir = qtRotate * D3DXVECTOR3( 0.0f, 0.0f, -1.0f );

  00473	0f 57 c0	 xorps	 xmm0, xmm0
  00476	8d b0 a4 06 00
	00		 lea	 esi, DWORD PTR [eax+1700]
  0047c	8d 7d ac	 lea	 edi, DWORD PTR _qtRotate$601457[ebp]
  0047f	a5		 movsd
  00480	a5		 movsd
  00481	8d 45 e4	 lea	 eax, DWORD PTR $T601458[ebp]
  00484	50		 push	 eax
  00485	8d 45 ac	 lea	 eax, DWORD PTR _qtRotate$601457[ebp]
  00488	a5		 movsd
  00489	50		 push	 eax
  0048a	8d 45 cc	 lea	 eax, DWORD PTR $T601459[ebp]
  0048d	f3 0f 11 45 e4	 movss	 DWORD PTR $T601458[ebp], xmm0
  00492	f3 0f 11 45 e8	 movss	 DWORD PTR $T601458[ebp+4], xmm0
  00497	f3 0f 10 05 00
	00 00 00	 movss	 xmm0, DWORD PTR __real@bf800000
  0049f	50		 push	 eax
  004a0	a5		 movsd
  004a1	f3 0f 11 45 ec	 movss	 DWORD PTR $T601458[ebp+8], xmm0
  004a6	ff 15 00 00 00
	00		 call	 DWORD PTR __imp_??D@YA?AUD3DXVECTOR3@@ABUD3DXQUATERNION@@ABU0@@Z
  004ac	8b f0		 mov	 esi, eax
  004ae	8d 7d d8	 lea	 edi, DWORD PTR _vMoveDir$601454[ebp]
  004b1	a5		 movsd

; 357  : 			vMoveDir = qtAngle * vMoveDir;

  004b2	8d 45 d8	 lea	 eax, DWORD PTR _vMoveDir$601454[ebp]
  004b5	50		 push	 eax
  004b6	8d 45 94	 lea	 eax, DWORD PTR _qtAngle$601455[ebp]
  004b9	a5		 movsd
  004ba	50		 push	 eax
  004bb	8d 45 cc	 lea	 eax, DWORD PTR $T601460[ebp]
  004be	50		 push	 eax
  004bf	a5		 movsd
  004c0	ff 15 00 00 00
	00		 call	 DWORD PTR __imp_??D@YA?AUD3DXVECTOR3@@ABUD3DXQUATERNION@@ABU0@@Z
  004c6	83 c4 18	 add	 esp, 24			; 00000018H

; 358  : 		}
; 359  : 		else

  004c9	e9 2a 01 00 00	 jmp	 $LN350@ApplyAttri
$LN37@ApplyAttri:

; 360  : 		{
; 361  : 			if( m_vSkillDir.y != 0 )

  004ce	f3 0f 10 8b e8
	10 00 00	 movss	 xmm1, DWORD PTR [ebx+4328]
  004d6	0f 2e c8	 ucomiss xmm1, xmm0
  004d9	9f		 lahf
  004da	f6 c4 44	 test	 ah, 68			; 00000044H
  004dd	0f 8b fd 00 00
	00		 jnp	 $LN35@ApplyAttri

; 362  : 			{
; 363  : 				D3DXVECTOR3 vYAxis( 0.0f, 1.0f, 0.0f );
; 364  : 				D3DXVECTOR3 vRotAxis1, vRotAxis2;
; 365  : 
; 366  : 				// vRotAxis1은 스킬Dir과 Y축의 법선벡터
; 367  : 				D3DXVec3Cross( &vRotAxis1, &vYAxis, &m_vSkillDir );

  004e3	f3 0f 10 9b ec
	10 00 00	 movss	 xmm3, DWORD PTR [ebx+4332]
  004eb	0f 5a e3	 cvtps2pd xmm4, xmm3
  004ee	0f 5a db	 cvtps2pd xmm3, xmm3
  004f1	0f 28 c1	 movaps	 xmm0, xmm1
  004f4	0f 57 c9	 xorps	 xmm1, xmm1
  004f7	0f 5a c0	 cvtps2pd xmm0, xmm0
  004fa	f2 0f 59 c1	 mulsd	 xmm0, xmm1
  004fe	f2 0f 59 d9	 mulsd	 xmm3, xmm1
  00502	f2 0f 5c e0	 subsd	 xmm4, xmm0
  00506	0f 5a ea	 cvtps2pd xmm5, xmm2
  00509	f2 0f 59 e9	 mulsd	 xmm5, xmm1
  0050d	f2 0f 5c eb	 subsd	 xmm5, xmm3
  00511	0f 57 c9	 xorps	 xmm1, xmm1
  00514	66 0f 5a cd	 cvtpd2ps xmm1, xmm5

; 368  : 
; 369  : 				// vRotAxis2는 스킬Dir과 vRotAxis1의 법선벡터
; 370  : 				D3DXVec3Cross( &vRotAxis2, &vRotAxis1, &m_vSkillDir );

  00518	f3 0f 10 ab e8
	10 00 00	 movss	 xmm5, DWORD PTR [ebx+4328]
  00520	0f 5a da	 cvtps2pd xmm3, xmm2
  00523	f2 0f 5c c3	 subsd	 xmm0, xmm3
  00527	f3 0f 10 9b ec
	10 00 00	 movss	 xmm3, DWORD PTR [ebx+4332]
  0052f	66 0f 5a c0	 cvtpd2ps xmm0, xmm0
  00533	0f 5a fb	 cvtps2pd xmm7, xmm3
  00536	0f 5a ed	 cvtps2pd xmm5, xmm5
  00539	0f 5a f1	 cvtps2pd xmm6, xmm1
  0053c	f2 0f 59 f7	 mulsd	 xmm6, xmm7
  00540	0f 57 ff	 xorps	 xmm7, xmm7
  00543	f3 0f 5a f8	 cvtss2sd xmm7, xmm0
  00547	f2 0f 59 fd	 mulsd	 xmm7, xmm5
  0054b	f3 0f 5a c0	 cvtss2sd xmm0, xmm0
  0054f	f2 0f 5c f7	 subsd	 xmm6, xmm7
  00553	66 0f 5a ee	 cvtpd2ps xmm5, xmm6
  00557	f3 0f 11 6d e4	 movss	 DWORD PTR _v$606599[ebp], xmm5
  0055c	0f 5a db	 cvtps2pd xmm3, xmm3
  0055f	66 0f 5a e4	 cvtpd2ps xmm4, xmm4
  00563	0f 5a c9	 cvtps2pd xmm1, xmm1
  00566	8d 75 e4	 lea	 esi, DWORD PTR _v$606599[ebp]
  00569	0f 5a ea	 cvtps2pd xmm5, xmm2
  0056c	f2 0f 59 e8	 mulsd	 xmm5, xmm0
  00570	0f 57 c0	 xorps	 xmm0, xmm0
  00573	f3 0f 5a c4	 cvtss2sd xmm0, xmm4
  00577	f2 0f 59 c3	 mulsd	 xmm0, xmm3
  0057b	f2 0f 5c e8	 subsd	 xmm5, xmm0
  0057f	0f 57 c0	 xorps	 xmm0, xmm0
  00582	66 0f 5a c5	 cvtpd2ps xmm0, xmm5
  00586	f3 0f 11 45 e8	 movss	 DWORD PTR _v$606599[ebp+4], xmm0
  0058b	f3 0f 10 83 e8
	10 00 00	 movss	 xmm0, DWORD PTR [ebx+4328]
  00593	0f 5a c0	 cvtps2pd xmm0, xmm0
  00596	0f 57 db	 xorps	 xmm3, xmm3
  00599	f3 0f 5a dc	 cvtss2sd xmm3, xmm4
  0059d	f2 0f 59 d8	 mulsd	 xmm3, xmm0
  005a1	8d 7d f0	 lea	 edi, DWORD PTR _vRotAxis2$601465[ebp]

; 371  : 
; 372  : 				D3DXVec3Normalize( &vRotAxis2, &vRotAxis2 );

  005a4	8d 45 f0	 lea	 eax, DWORD PTR _vRotAxis2$601465[ebp]
  005a7	0f 5a c2	 cvtps2pd xmm0, xmm2
  005aa	f2 0f 59 c1	 mulsd	 xmm0, xmm1
  005ae	f2 0f 5c d8	 subsd	 xmm3, xmm0
  005b2	0f 57 c0	 xorps	 xmm0, xmm0
  005b5	66 0f 5a c3	 cvtpd2ps xmm0, xmm3
  005b9	f3 0f 11 45 ec	 movss	 DWORD PTR _v$606599[ebp+8], xmm0
  005be	a5		 movsd
  005bf	a5		 movsd
  005c0	50		 push	 eax
  005c1	50		 push	 eax
  005c2	a5		 movsd
  005c3	e8 00 00 00 00	 call	 _D3DXVec3Normalize@8

; 373  : 				D3DXQuaternionRotationAxis( &qtAngle, &vRotAxis2, DEGtoRAD(fCurAngle) );

  005c8	f3 0f 10 45 c8	 movss	 xmm0, DWORD PTR tv3269[ebp]
  005cd	51		 push	 ecx
  005ce	f3 0f 11 04 24	 movss	 DWORD PTR [esp], xmm0
  005d3	8d 45 f0	 lea	 eax, DWORD PTR _vRotAxis2$601465[ebp]
  005d6	50		 push	 eax
  005d7	8d 45 94	 lea	 eax, DWORD PTR _qtAngle$601455[ebp]
  005da	50		 push	 eax
  005db	e8 00 00 00 00	 call	 _D3DXQuaternionRotationAxis@12
$LN35@ApplyAttri:

; 374  : 			}
; 375  : 
; 376  : 			vMoveDir = qtAngle * m_vSkillDir;

  005e0	8d 83 e4 10 00
	00		 lea	 eax, DWORD PTR [ebx+4324]
  005e6	50		 push	 eax
  005e7	8d 45 94	 lea	 eax, DWORD PTR _qtAngle$601455[ebp]
  005ea	50		 push	 eax
  005eb	8d 45 cc	 lea	 eax, DWORD PTR $T601466[ebp]
  005ee	50		 push	 eax
  005ef	ff 15 00 00 00
	00		 call	 DWORD PTR __imp_??D@YA?AUD3DXVECTOR3@@ABUD3DXQUATERNION@@ABU0@@Z
  005f5	83 c4 0c	 add	 esp, 12			; 0000000cH
$LN350@ApplyAttri:
  005f8	8d 7d d8	 lea	 edi, DWORD PTR _vMoveDir$601454[ebp]
  005fb	8b f0		 mov	 esi, eax
  005fd	a5		 movsd
  005fe	a5		 movsd
  005ff	a5		 movsd

; 377  : 		}
; 378  : 
; 379  : 		pWeapon->SetMoveDir( vMoveDir );

  00600	8b 75 c4	 mov	 esi, DWORD PTR _pWeapon$GSCopy$[ebp]
  00603	8d 4d d8	 lea	 ecx, DWORD PTR _vMoveDir$601454[ebp]

; 380  : 
; 381  : 		if( fSpeed > 0.0f )
; 382  : 			pWeapon->SetMoveSpeed( fSpeed );
; 383  : 
; 384  : 		m_iWeaponWay++;

  00606	e9 5e 05 00 00	 jmp	 $LN357@ApplyAttri
$LN41@ApplyAttri:

; 385  : 	}
; 386  : 	else if( pBow )

  0060b	8b 75 88	 mov	 esi, DWORD PTR _pBow$[ebp]
  0060e	3b f1		 cmp	 esi, ecx
  00610	0f 84 6a 02 00
	00		 je	 $LN32@ApplyAttri

; 387  : 	{
; 388  : 		if( pBow->IsChargeBulletType() )

  00616	8b ce		 mov	 ecx, esi
  00618	e8 00 00 00 00	 call	 ?IsChargeBulletType@ioBowItem@@QAE_NXZ ; ioBowItem::IsChargeBulletType
  0061d	84 c0		 test	 al, al
  0061f	74 07		 je	 SHORT $LN31@ApplyAttri

; 389  : 			pBow->InitCoolTime();

  00621	8b ce		 mov	 ecx, esi
  00623	e8 00 00 00 00	 call	 ?InitCoolTime@ioBowItem@@QAEXXZ ; ioBowItem::InitCoolTime
$LN31@ApplyAttri:

; 390  : 
; 391  : 		D3DXVECTOR3 vZero( 0.0f, 0.0f, 0.0f );
; 392  : 
; 393  : 		if( pBow->GetAimedSkillUse() && pBow->GetAimedDirSet() )

  00628	80 be 8c 1c 00
	00 00		 cmp	 BYTE PTR [esi+7308], 0
  0062f	74 56		 je	 SHORT $LN29@ApplyAttri
  00631	80 be 8d 1c 00
	00 00		 cmp	 BYTE PTR [esi+7309], 0
  00638	74 4d		 je	 SHORT $LN29@ApplyAttri

; 394  : 		{
; 395  : 			if( m_vSkillDir == vZero )

  0063a	0f 57 c0	 xorps	 xmm0, xmm0
  0063d	8d bb e4 10 00
	00		 lea	 edi, DWORD PTR [ebx+4324]
  00643	f3 0f 10 0f	 movss	 xmm1, DWORD PTR [edi]
  00647	0f 2e c8	 ucomiss xmm1, xmm0
  0064a	9f		 lahf
  0064b	f6 c4 44	 test	 ah, 68			; 00000044H
  0064e	7a 37		 jp	 SHORT $LN29@ApplyAttri
  00650	f3 0f 10 4f 04	 movss	 xmm1, DWORD PTR [edi+4]
  00655	0f 2e c8	 ucomiss xmm1, xmm0
  00658	9f		 lahf
  00659	f6 c4 44	 test	 ah, 68			; 00000044H
  0065c	7a 29		 jp	 SHORT $LN29@ApplyAttri
  0065e	f3 0f 10 4f 08	 movss	 xmm1, DWORD PTR [edi+8]
  00663	0f 2e c8	 ucomiss xmm1, xmm0
  00666	9f		 lahf
  00667	f6 c4 44	 test	 ah, 68			; 00000044H
  0066a	7a 1b		 jp	 SHORT $LN29@ApplyAttri

; 396  : 			{
; 397  : 				m_vSkillDir = pBow->ReCalcMoveDir( pWeapon->GetOwner(), pWeapon );

  0066c	8b 4d c4	 mov	 ecx, DWORD PTR _pWeapon$GSCopy$[ebp]
  0066f	51		 push	 ecx
  00670	e8 00 00 00 00	 call	 ?GetOwner@ioWeapon@@QBEPAVioBaseChar@@XZ ; ioWeapon::GetOwner
  00675	8b 4d 88	 mov	 ecx, DWORD PTR _pBow$[ebp]
  00678	50		 push	 eax
  00679	8d 45 cc	 lea	 eax, DWORD PTR $T601474[ebp]
  0067c	50		 push	 eax
  0067d	e8 00 00 00 00	 call	 ?ReCalcMoveDir@ioBowItem@@QAE?AUD3DXVECTOR3@@PAVioBaseChar@@PAVioWeapon@@@Z ; ioBowItem::ReCalcMoveDir
  00682	8b f0		 mov	 esi, eax
  00684	a5		 movsd
  00685	a5		 movsd
  00686	a5		 movsd
$LN29@ApplyAttri:

; 398  : 			}
; 399  : 		}
; 400  : 
; 401  : 		if( m_iMaxWeaponWay <= m_iWeaponWay )

  00687	8b 83 f4 10 00
	00		 mov	 eax, DWORD PTR [ebx+4340]
  0068d	39 83 f0 10 00
	00		 cmp	 DWORD PTR [ebx+4336], eax
  00693	0f 8e 0c 0b 00
	00		 jle	 $LN1@ApplyAttri

; 402  : 			return;
; 403  : 
; 404  : 		float fCurAngle = 0.0f;
; 405  : 		fCurAngle = m_BulletInfoList[m_iWeaponWay].m_fYawAngle;

  00699	8b 8b f8 10 00
	00		 mov	 ecx, DWORD PTR [ebx+4344]
  0069f	6b c0 14	 imul	 eax, 20			; 00000014H
  006a2	f3 0f 10 04 08	 movss	 xmm0, DWORD PTR [eax+ecx]

; 406  : 
; 407  : 		fCurAngle = ioMath::ArrangeHead( fCurAngle );

  006a7	51		 push	 ecx
  006a8	f3 0f 11 04 24	 movss	 DWORD PTR [esp], xmm0
  006ad	ff 15 00 00 00
	00		 call	 DWORD PTR __imp_?ArrangeHead@ioMath@@SAMM@Z
  006b3	d9 5d c8	 fstp	 DWORD PTR _fCurAngle$601476[ebp]

; 408  : 
; 409  : 		D3DXVECTOR3 vMoveDir;
; 410  : 		D3DXQUATERNION qtAngle;
; 411  : 		D3DXQuaternionRotationYawPitchRoll( &qtAngle, DEGtoRAD(fCurAngle), 0.0f, 0.0f );

  006b6	f3 0f 10 45 c8	 movss	 xmm0, DWORD PTR _fCurAngle$601476[ebp]
  006bb	0f 5a c0	 cvtps2pd xmm0, xmm0
  006be	f2 0f 59 05 00
	00 00 00	 mulsd	 xmm0, QWORD PTR __real@3f91df46a2526c7a
  006c6	66 0f 5a c8	 cvtpd2ps xmm1, xmm0
  006ca	0f 57 c0	 xorps	 xmm0, xmm0
  006cd	f3 0f 11 04 24	 movss	 DWORD PTR [esp], xmm0
  006d2	51		 push	 ecx
  006d3	51		 push	 ecx
  006d4	f3 0f 11 44 24
	04		 movss	 DWORD PTR [esp+4], xmm0
  006da	8d 45 ac	 lea	 eax, DWORD PTR _qtAngle$601478[ebp]
  006dd	f3 0f 11 0c 24	 movss	 DWORD PTR [esp], xmm1
  006e2	50		 push	 eax
  006e3	f3 0f 11 4d c8	 movss	 DWORD PTR tv3377[ebp], xmm1
  006e8	e8 00 00 00 00	 call	 _D3DXQuaternionRotationYawPitchRoll@16

; 412  : 
; 413  : 		if( m_vSkillDir == vZero )

  006ed	0f 57 c0	 xorps	 xmm0, xmm0
  006f0	8d 8b e4 10 00
	00		 lea	 ecx, DWORD PTR [ebx+4324]
  006f6	f3 0f 10 09	 movss	 xmm1, DWORD PTR [ecx]
  006fa	0f 2e c8	 ucomiss xmm1, xmm0
  006fd	9f		 lahf
  006fe	f6 c4 44	 test	 ah, 68			; 00000044H
  00701	7a 41		 jp	 SHORT $LN27@ApplyAttri
  00703	f3 0f 10 49 04	 movss	 xmm1, DWORD PTR [ecx+4]
  00708	0f 2e c8	 ucomiss xmm1, xmm0
  0070b	9f		 lahf
  0070c	f6 c4 44	 test	 ah, 68			; 00000044H
  0070f	7a 33		 jp	 SHORT $LN27@ApplyAttri
  00711	f3 0f 10 49 08	 movss	 xmm1, DWORD PTR [ecx+8]
  00716	0f 2e c8	 ucomiss xmm1, xmm0
  00719	9f		 lahf
  0071a	f6 c4 44	 test	 ah, 68			; 00000044H
  0071d	7a 25		 jp	 SHORT $LN27@ApplyAttri

; 414  : 		{
; 415  : 			D3DXQUATERNION qtRotate = pWeapon->GetOwner()->GetTargetRot();

  0071f	8b 4d c4	 mov	 ecx, DWORD PTR _pWeapon$GSCopy$[ebp]
  00722	e8 00 00 00 00	 call	 ?GetOwner@ioWeapon@@QBEPAVioBaseChar@@XZ ; ioWeapon::GetOwner
  00727	8d b0 a4 06 00
	00		 lea	 esi, DWORD PTR [eax+1700]
  0072d	8d 7d 94	 lea	 edi, DWORD PTR _qtRotate$601480[ebp]
  00730	a5		 movsd
  00731	a5		 movsd
  00732	a5		 movsd
  00733	a5		 movsd

; 416  : 			vMoveDir = qtRotate * D3DXVECTOR3( 0.0f, 0.0f, -FLOAT1 );

  00734	b8 01 00 00 00	 mov	 eax, 1
  00739	89 45 bc	 mov	 DWORD PTR tv4030[ebp], eax
  0073c	db 45 bc	 fild	 DWORD PTR tv4030[ebp]

; 417  : 			vMoveDir = qtAngle * vMoveDir;
; 418  : 		}
; 419  : 		else

  0073f	e9 68 02 00 00	 jmp	 $LN359@ApplyAttri
$LN27@ApplyAttri:

; 420  : 		{
; 421  : 			if( m_vSkillDir.y != 0.0f )

  00744	f3 0f 10 8b e8
	10 00 00	 movss	 xmm1, DWORD PTR [ebx+4328]
  0074c	0f 2e c8	 ucomiss xmm1, xmm0
  0074f	9f		 lahf
  00750	f6 c4 44	 test	 ah, 68			; 00000044H
  00753	0f 8b ea 03 00
	00		 jnp	 $LN16@ApplyAttri

; 422  : 			{
; 423  : 				D3DXVECTOR3 vYAxis( 0.0f, FLOAT1, 0.0f );

  00759	b8 01 00 00 00	 mov	 eax, 1
  0075e	89 45 bc	 mov	 DWORD PTR tv3999[ebp], eax
  00761	db 45 bc	 fild	 DWORD PTR tv3999[ebp]
  00764	85 c0		 test	 eax, eax
  00766	79 06		 jns	 SHORT $LN339@ApplyAttri
  00768	d8 05 00 00 00
	00		 fadd	 DWORD PTR __real@4f800000
$LN339@ApplyAttri:

; 424  : 				D3DXVECTOR3 vRotAxis1, vRotAxis2;
; 425  : 
; 426  : 				// vRotAxis1은 스킬Dir과 Y축의 법선벡터
; 427  : 				D3DXVec3Cross( &vRotAxis1, &vYAxis, &m_vSkillDir );

  0076e	f3 0f 10 9b ec
	10 00 00	 movss	 xmm3, DWORD PTR [ebx+4332]
  00776	d9 5d dc	 fstp	 DWORD PTR _vYAxis$601488[ebp+4]
  00779	f3 0f 10 83 e8
	10 00 00	 movss	 xmm0, DWORD PTR [ebx+4328]
  00781	0f 57 c9	 xorps	 xmm1, xmm1
  00784	f3 0f 10 55 dc	 movss	 xmm2, DWORD PTR _vYAxis$601488[ebp+4]
  00789	0f 5a c0	 cvtps2pd xmm0, xmm0
  0078c	f2 0f 59 c1	 mulsd	 xmm0, xmm1
  00790	0f 5a e3	 cvtps2pd xmm4, xmm3
  00793	0f 5a db	 cvtps2pd xmm3, xmm3
  00796	f2 0f 59 d9	 mulsd	 xmm3, xmm1
  0079a	0f 5a d2	 cvtps2pd xmm2, xmm2
  0079d	f2 0f 59 d4	 mulsd	 xmm2, xmm4
  007a1	f2 0f 5c d0	 subsd	 xmm2, xmm0
  007a5	0f 57 e4	 xorps	 xmm4, xmm4
  007a8	f2 0f 5a e2	 cvtsd2ss xmm4, xmm2
  007ac	f3 0f 10 93 e4
	10 00 00	 movss	 xmm2, DWORD PTR [ebx+4324]
  007b4	0f 5a ea	 cvtps2pd xmm5, xmm2
  007b7	f2 0f 59 e9	 mulsd	 xmm5, xmm1
  007bb	f2 0f 5c eb	 subsd	 xmm5, xmm3
  007bf	0f 5a da	 cvtps2pd xmm3, xmm2
  007c2	0f 57 c9	 xorps	 xmm1, xmm1
  007c5	66 0f 5a cd	 cvtpd2ps xmm1, xmm5
  007c9	f3 0f 10 6d dc	 movss	 xmm5, DWORD PTR _vYAxis$601488[ebp+4]
  007ce	0f 5a ed	 cvtps2pd xmm5, xmm5
  007d1	f2 0f 59 dd	 mulsd	 xmm3, xmm5

; 428  : 
; 429  : 				// vRotAxis2는 스킬Dir과 vRotAxis1의 법선벡터
; 430  : 				D3DXVec3Cross( &vRotAxis2, &vRotAxis1, &m_vSkillDir );

  007d5	f3 0f 10 ab e8
	10 00 00	 movss	 xmm5, DWORD PTR [ebx+4328]
  007dd	f2 0f 5c c3	 subsd	 xmm0, xmm3
  007e1	f3 0f 10 9b ec
	10 00 00	 movss	 xmm3, DWORD PTR [ebx+4332]
  007e9	66 0f 5a c0	 cvtpd2ps xmm0, xmm0
  007ed	0f 5a fb	 cvtps2pd xmm7, xmm3
  007f0	0f 5a ed	 cvtps2pd xmm5, xmm5
  007f3	0f 5a f1	 cvtps2pd xmm6, xmm1
  007f6	f2 0f 59 f7	 mulsd	 xmm6, xmm7
  007fa	0f 57 ff	 xorps	 xmm7, xmm7
  007fd	f3 0f 5a f8	 cvtss2sd xmm7, xmm0
  00801	f3 0f 5a c0	 cvtss2sd xmm0, xmm0
  00805	f2 0f 59 fd	 mulsd	 xmm7, xmm5
  00809	f2 0f 5c f7	 subsd	 xmm6, xmm7
  0080d	66 0f 5a ee	 cvtpd2ps xmm5, xmm6
  00811	f3 0f 11 6d d8	 movss	 DWORD PTR _v$606689[ebp], xmm5
  00816	0f 5a db	 cvtps2pd xmm3, xmm3
  00819	0f 5a c9	 cvtps2pd xmm1, xmm1
  0081c	8d 75 d8	 lea	 esi, DWORD PTR _v$606689[ebp]
  0081f	8d 7d f0	 lea	 edi, DWORD PTR _vRotAxis2$601490[ebp]
  00822	0f 5a ea	 cvtps2pd xmm5, xmm2
  00825	f2 0f 59 e8	 mulsd	 xmm5, xmm0
  00829	0f 5a c4	 cvtps2pd xmm0, xmm4
  0082c	f2 0f 59 c3	 mulsd	 xmm0, xmm3
  00830	f2 0f 5c e8	 subsd	 xmm5, xmm0
  00834	0f 57 c0	 xorps	 xmm0, xmm0
  00837	66 0f 5a c5	 cvtpd2ps xmm0, xmm5
  0083b	f3 0f 11 45 dc	 movss	 DWORD PTR _v$606689[ebp+4], xmm0
  00840	f3 0f 10 83 e8
	10 00 00	 movss	 xmm0, DWORD PTR [ebx+4328]
  00848	0f 5a c0	 cvtps2pd xmm0, xmm0
  0084b	0f 5a dc	 cvtps2pd xmm3, xmm4
  0084e	f2 0f 59 d8	 mulsd	 xmm3, xmm0

; 431  : 
; 432  : 				D3DXVec3Normalize( &vRotAxis2, &vRotAxis2 );

  00852	8d 45 f0	 lea	 eax, DWORD PTR _vRotAxis2$601490[ebp]
  00855	50		 push	 eax
  00856	50		 push	 eax
  00857	0f 5a c2	 cvtps2pd xmm0, xmm2
  0085a	f2 0f 59 c1	 mulsd	 xmm0, xmm1
  0085e	f2 0f 5c d8	 subsd	 xmm3, xmm0
  00862	0f 57 c0	 xorps	 xmm0, xmm0
  00865	66 0f 5a c3	 cvtpd2ps xmm0, xmm3
  00869	f3 0f 11 45 e0	 movss	 DWORD PTR _v$606689[ebp+8], xmm0
  0086e	a5		 movsd
  0086f	a5		 movsd
  00870	a5		 movsd
  00871	e8 00 00 00 00	 call	 _D3DXVec3Normalize@8

; 433  : 				D3DXQuaternionRotationAxis( &qtAngle, &vRotAxis2, DEGtoRAD(fCurAngle) );

  00876	f3 0f 10 45 c8	 movss	 xmm0, DWORD PTR tv3377[ebp]

; 434  : 			}
; 435  : 
; 436  : 			vMoveDir = qtAngle * m_vSkillDir;
; 437  : 		}
; 438  : 
; 439  : 		pWeapon->SetMoveDir( vMoveDir );
; 440  : 
; 441  : 		if( fSpeed > 0.0f )
; 442  : 			pWeapon->SetMoveSpeed( fSpeed );
; 443  : 
; 444  : 		m_iWeaponWay++;

  0087b	e9 b0 02 00 00	 jmp	 $LN356@ApplyAttri
$LN32@ApplyAttri:

; 445  : 	}
; 446  : 	else if( pLaser )

  00880	8b 75 c8	 mov	 esi, DWORD PTR _pLaser$[ebp]
  00883	3b f1		 cmp	 esi, ecx
  00885	0f 84 12 03 00
	00		 je	 $LN22@ApplyAttri

; 447  : 	{
; 448  : 		pLaser->InitCoolTime();

  0088b	8b ce		 mov	 ecx, esi
  0088d	e8 00 00 00 00	 call	 ?InitCoolTime@ioLaserItem@@QAEXXZ ; ioLaserItem::InitCoolTime

; 449  : 		D3DXVECTOR3 vZero( 0.0f, 0.0f, 0.0f );
; 450  : 
; 451  : 		if( pLaser->GetAimedSkillUse() && pLaser->GetAimedDirSet() )

  00892	80 be 4c 1c 00
	00 00		 cmp	 BYTE PTR [esi+7244], 0
  00899	74 55		 je	 SHORT $LN20@ApplyAttri
  0089b	80 be 4d 1c 00
	00 00		 cmp	 BYTE PTR [esi+7245], 0
  008a2	74 4c		 je	 SHORT $LN20@ApplyAttri

; 452  : 		{
; 453  : 			if( m_vSkillDir == vZero )

  008a4	0f 57 c0	 xorps	 xmm0, xmm0
  008a7	8d bb e4 10 00
	00		 lea	 edi, DWORD PTR [ebx+4324]
  008ad	f3 0f 10 0f	 movss	 xmm1, DWORD PTR [edi]
  008b1	0f 2e c8	 ucomiss xmm1, xmm0
  008b4	9f		 lahf
  008b5	f6 c4 44	 test	 ah, 68			; 00000044H
  008b8	7a 36		 jp	 SHORT $LN20@ApplyAttri
  008ba	f3 0f 10 4f 04	 movss	 xmm1, DWORD PTR [edi+4]
  008bf	0f 2e c8	 ucomiss xmm1, xmm0
  008c2	9f		 lahf
  008c3	f6 c4 44	 test	 ah, 68			; 00000044H
  008c6	7a 28		 jp	 SHORT $LN20@ApplyAttri
  008c8	f3 0f 10 4f 08	 movss	 xmm1, DWORD PTR [edi+8]
  008cd	0f 2e c8	 ucomiss xmm1, xmm0
  008d0	9f		 lahf
  008d1	f6 c4 44	 test	 ah, 68			; 00000044H
  008d4	7a 1a		 jp	 SHORT $LN20@ApplyAttri

; 454  : 			{
; 455  : 				m_vSkillDir = pLaser->ReCalcMoveDir( pWeapon->GetOwner(), pWeapon );

  008d6	8b 4d c4	 mov	 ecx, DWORD PTR _pWeapon$GSCopy$[ebp]
  008d9	51		 push	 ecx
  008da	e8 00 00 00 00	 call	 ?GetOwner@ioWeapon@@QBEPAVioBaseChar@@XZ ; ioWeapon::GetOwner
  008df	50		 push	 eax
  008e0	8d 45 cc	 lea	 eax, DWORD PTR $T601498[ebp]
  008e3	50		 push	 eax
  008e4	8b ce		 mov	 ecx, esi
  008e6	e8 00 00 00 00	 call	 ?ReCalcMoveDir@ioLaserItem@@QAE?AUD3DXVECTOR3@@PAVioBaseChar@@PAVioWeapon@@@Z ; ioLaserItem::ReCalcMoveDir
  008eb	8b f0		 mov	 esi, eax
  008ed	a5		 movsd
  008ee	a5		 movsd
  008ef	a5		 movsd
$LN20@ApplyAttri:

; 456  : 			}
; 457  : 		}
; 458  : 
; 459  : 		if( m_iMaxWeaponWay <= m_iWeaponWay )

  008f0	8b 83 f4 10 00
	00		 mov	 eax, DWORD PTR [ebx+4340]
  008f6	39 83 f0 10 00
	00		 cmp	 DWORD PTR [ebx+4336], eax
  008fc	0f 8e a3 08 00
	00		 jle	 $LN1@ApplyAttri

; 460  : 			return;
; 461  : 
; 462  : 		float fCurAngle = 0.0f;
; 463  : 		fCurAngle = m_BulletInfoList[m_iWeaponWay].m_fYawAngle;

  00902	8b 8b f8 10 00
	00		 mov	 ecx, DWORD PTR [ebx+4344]
  00908	6b c0 14	 imul	 eax, 20			; 00000014H
  0090b	f3 0f 10 04 08	 movss	 xmm0, DWORD PTR [eax+ecx]

; 464  : 			
; 465  : 		fCurAngle = ioMath::ArrangeHead( fCurAngle );

  00910	51		 push	 ecx
  00911	f3 0f 11 04 24	 movss	 DWORD PTR [esp], xmm0
  00916	ff 15 00 00 00
	00		 call	 DWORD PTR __imp_?ArrangeHead@ioMath@@SAMM@Z
  0091c	d9 5d c8	 fstp	 DWORD PTR _fCurAngle$601500[ebp]

; 466  : 
; 467  : 		D3DXVECTOR3 vMoveDir;
; 468  : 		D3DXQUATERNION qtAngle;
; 469  : 		D3DXQuaternionRotationYawPitchRoll( &qtAngle, DEGtoRAD(fCurAngle), 0.0f, 0.0f );

  0091f	f3 0f 10 45 c8	 movss	 xmm0, DWORD PTR _fCurAngle$601500[ebp]
  00924	0f 5a c0	 cvtps2pd xmm0, xmm0
  00927	f2 0f 59 05 00
	00 00 00	 mulsd	 xmm0, QWORD PTR __real@3f91df46a2526c7a
  0092f	66 0f 5a c8	 cvtpd2ps xmm1, xmm0
  00933	0f 57 c0	 xorps	 xmm0, xmm0
  00936	f3 0f 11 04 24	 movss	 DWORD PTR [esp], xmm0
  0093b	51		 push	 ecx
  0093c	51		 push	 ecx
  0093d	f3 0f 11 44 24
	04		 movss	 DWORD PTR [esp+4], xmm0
  00943	8d 45 ac	 lea	 eax, DWORD PTR _qtAngle$601502[ebp]
  00946	f3 0f 11 0c 24	 movss	 DWORD PTR [esp], xmm1
  0094b	50		 push	 eax
  0094c	f3 0f 11 4d c8	 movss	 DWORD PTR tv3489[ebp], xmm1
  00951	e8 00 00 00 00	 call	 _D3DXQuaternionRotationYawPitchRoll@16

; 470  : 
; 471  : 		if( m_vSkillDir == vZero )

  00956	0f 57 c0	 xorps	 xmm0, xmm0
  00959	8d 8b e4 10 00
	00		 lea	 ecx, DWORD PTR [ebx+4324]
  0095f	f3 0f 10 09	 movss	 xmm1, DWORD PTR [ecx]
  00963	0f 2e c8	 ucomiss xmm1, xmm0
  00966	9f		 lahf
  00967	f6 c4 44	 test	 ah, 68			; 00000044H
  0096a	0f 8a 8c 00 00
	00		 jp	 $LN18@ApplyAttri
  00970	f3 0f 10 49 04	 movss	 xmm1, DWORD PTR [ecx+4]
  00975	0f 2e c8	 ucomiss xmm1, xmm0
  00978	9f		 lahf
  00979	f6 c4 44	 test	 ah, 68			; 00000044H
  0097c	7a 7e		 jp	 SHORT $LN18@ApplyAttri
  0097e	f3 0f 10 49 08	 movss	 xmm1, DWORD PTR [ecx+8]
  00983	0f 2e c8	 ucomiss xmm1, xmm0
  00986	9f		 lahf
  00987	f6 c4 44	 test	 ah, 68			; 00000044H
  0098a	7a 70		 jp	 SHORT $LN18@ApplyAttri

; 472  : 		{
; 473  : 			D3DXQUATERNION qtRotate = pWeapon->GetOwner()->GetTargetRot();

  0098c	8b 4d c4	 mov	 ecx, DWORD PTR _pWeapon$GSCopy$[ebp]
  0098f	e8 00 00 00 00	 call	 ?GetOwner@ioWeapon@@QBEPAVioBaseChar@@XZ ; ioWeapon::GetOwner
  00994	8d b0 a4 06 00
	00		 lea	 esi, DWORD PTR [eax+1700]
  0099a	8d 7d 94	 lea	 edi, DWORD PTR _qtRotate$601504[ebp]
  0099d	a5		 movsd
  0099e	a5		 movsd
  0099f	a5		 movsd
  009a0	a5		 movsd

; 474  : 			vMoveDir = qtRotate * D3DXVECTOR3( 0.0f, 0.0f, -FLOAT1 );

  009a1	b8 01 00 00 00	 mov	 eax, 1
  009a6	89 45 bc	 mov	 DWORD PTR tv3883[ebp], eax
  009a9	db 45 bc	 fild	 DWORD PTR tv3883[ebp]
$LN359@ApplyAttri:
  009ac	0f 57 c0	 xorps	 xmm0, xmm0
  009af	f3 0f 11 45 f0	 movss	 DWORD PTR $T601506[ebp], xmm0
  009b4	f3 0f 11 45 f4	 movss	 DWORD PTR $T601506[ebp+4], xmm0
  009b9	85 c0		 test	 eax, eax
  009bb	79 06		 jns	 SHORT $LN340@ApplyAttri
  009bd	d8 05 00 00 00
	00		 fadd	 DWORD PTR __real@4f800000
$LN340@ApplyAttri:
  009c3	8d 45 f0	 lea	 eax, DWORD PTR $T601506[ebp]
  009c6	d9 e0		 fchs
  009c8	50		 push	 eax
  009c9	d9 5d f8	 fstp	 DWORD PTR $T601506[ebp+8]
  009cc	8d 45 94	 lea	 eax, DWORD PTR _qtRotate$601504[ebp]
  009cf	50		 push	 eax
  009d0	8d 45 d8	 lea	 eax, DWORD PTR $T601507[ebp]
  009d3	50		 push	 eax
  009d4	ff 15 00 00 00
	00		 call	 DWORD PTR __imp_??D@YA?AUD3DXVECTOR3@@ABUD3DXQUATERNION@@ABU0@@Z
  009da	8b f0		 mov	 esi, eax
  009dc	8d 7d e4	 lea	 edi, DWORD PTR _vMoveDir$601501[ebp]
  009df	a5		 movsd

; 475  : 			vMoveDir = qtAngle * vMoveDir;

  009e0	8d 45 e4	 lea	 eax, DWORD PTR _vMoveDir$601501[ebp]
  009e3	50		 push	 eax
  009e4	8d 45 ac	 lea	 eax, DWORD PTR _qtAngle$601502[ebp]
  009e7	a5		 movsd
  009e8	50		 push	 eax
  009e9	8d 45 cc	 lea	 eax, DWORD PTR $T601508[ebp]
  009ec	50		 push	 eax
  009ed	a5		 movsd
  009ee	ff 15 00 00 00
	00		 call	 DWORD PTR __imp_??D@YA?AUD3DXVECTOR3@@ABUD3DXQUATERNION@@ABU0@@Z
  009f4	83 c4 18	 add	 esp, 24			; 00000018H

; 476  : 		}
; 477  : 		else

  009f7	e9 5f 01 00 00	 jmp	 $LN352@ApplyAttri
$LN18@ApplyAttri:

; 478  : 		{
; 479  : 			if( m_vSkillDir.y != 0 )

  009fc	f3 0f 10 8b e8
	10 00 00	 movss	 xmm1, DWORD PTR [ebx+4328]
  00a04	0f 2e c8	 ucomiss xmm1, xmm0
  00a07	9f		 lahf
  00a08	f6 c4 44	 test	 ah, 68			; 00000044H
  00a0b	0f 8b 32 01 00
	00		 jnp	 $LN16@ApplyAttri

; 480  : 			{
; 481  : 				D3DXVECTOR3 vYAxis( 0.0f, FLOAT1, 0.0f );

  00a11	b8 01 00 00 00	 mov	 eax, 1
  00a16	89 45 bc	 mov	 DWORD PTR tv3852[ebp], eax
  00a19	db 45 bc	 fild	 DWORD PTR tv3852[ebp]
  00a1c	85 c0		 test	 eax, eax
  00a1e	79 06		 jns	 SHORT $LN341@ApplyAttri
  00a20	d8 05 00 00 00
	00		 fadd	 DWORD PTR __real@4f800000
$LN341@ApplyAttri:

; 482  : 				D3DXVECTOR3 vRotAxis1, vRotAxis2;
; 483  : 
; 484  : 				// vRotAxis1은 스킬Dir과 Y축의 법선벡터
; 485  : 				D3DXVec3Cross( &vRotAxis1, &vYAxis, &m_vSkillDir );

  00a26	f3 0f 10 9b ec
	10 00 00	 movss	 xmm3, DWORD PTR [ebx+4332]
  00a2e	d9 5d dc	 fstp	 DWORD PTR _vYAxis$601512[ebp+4]
  00a31	f3 0f 10 65 dc	 movss	 xmm4, DWORD PTR _vYAxis$601512[ebp+4]
  00a36	f3 0f 10 83 e8
	10 00 00	 movss	 xmm0, DWORD PTR [ebx+4328]
  00a3e	0f 57 c9	 xorps	 xmm1, xmm1
  00a41	0f 5a c0	 cvtps2pd xmm0, xmm0
  00a44	f2 0f 59 c1	 mulsd	 xmm0, xmm1
  00a48	0f 5a d3	 cvtps2pd xmm2, xmm3
  00a4b	0f 5a e4	 cvtps2pd xmm4, xmm4
  00a4e	0f 5a db	 cvtps2pd xmm3, xmm3
  00a51	f2 0f 59 d9	 mulsd	 xmm3, xmm1
  00a55	f2 0f 59 d4	 mulsd	 xmm2, xmm4
  00a59	f2 0f 5c d0	 subsd	 xmm2, xmm0

; 486  : 
; 487  : 				// vRotAxis2는 스킬Dir과 vRotAxis1의 법선벡터
; 488  : 				D3DXVec3Cross( &vRotAxis2, &vRotAxis1, &m_vSkillDir );

  00a5d	8d 75 d8	 lea	 esi, DWORD PTR _v$606779[ebp]
  00a60	66 0f 5a e2	 cvtpd2ps xmm4, xmm2
  00a64	f3 0f 10 93 e4
	10 00 00	 movss	 xmm2, DWORD PTR [ebx+4324]
  00a6c	0f 5a ea	 cvtps2pd xmm5, xmm2
  00a6f	f2 0f 59 e9	 mulsd	 xmm5, xmm1
  00a73	f2 0f 5c eb	 subsd	 xmm5, xmm3
  00a77	0f 5a da	 cvtps2pd xmm3, xmm2
  00a7a	0f 57 c9	 xorps	 xmm1, xmm1
  00a7d	66 0f 5a cd	 cvtpd2ps xmm1, xmm5
  00a81	f3 0f 10 6d dc	 movss	 xmm5, DWORD PTR _vYAxis$601512[ebp+4]
  00a86	0f 5a ed	 cvtps2pd xmm5, xmm5
  00a89	f2 0f 59 dd	 mulsd	 xmm3, xmm5
  00a8d	f3 0f 10 ab e8
	10 00 00	 movss	 xmm5, DWORD PTR [ebx+4328]
  00a95	f2 0f 5c c3	 subsd	 xmm0, xmm3
  00a99	f3 0f 10 9b ec
	10 00 00	 movss	 xmm3, DWORD PTR [ebx+4332]
  00aa1	66 0f 5a c0	 cvtpd2ps xmm0, xmm0
  00aa5	0f 5a fb	 cvtps2pd xmm7, xmm3
  00aa8	0f 5a ed	 cvtps2pd xmm5, xmm5
  00aab	0f 5a f1	 cvtps2pd xmm6, xmm1
  00aae	f2 0f 59 f7	 mulsd	 xmm6, xmm7
  00ab2	0f 57 ff	 xorps	 xmm7, xmm7
  00ab5	f3 0f 5a f8	 cvtss2sd xmm7, xmm0
  00ab9	f3 0f 5a c0	 cvtss2sd xmm0, xmm0
  00abd	f2 0f 59 fd	 mulsd	 xmm7, xmm5
  00ac1	f2 0f 5c f7	 subsd	 xmm6, xmm7
  00ac5	66 0f 5a ee	 cvtpd2ps xmm5, xmm6
  00ac9	f3 0f 11 6d d8	 movss	 DWORD PTR _v$606779[ebp], xmm5
  00ace	0f 5a db	 cvtps2pd xmm3, xmm3
  00ad1	0f 5a c9	 cvtps2pd xmm1, xmm1
  00ad4	8d 7d f0	 lea	 edi, DWORD PTR _vRotAxis2$601514[ebp]

; 489  : 
; 490  : 				D3DXVec3Normalize( &vRotAxis2, &vRotAxis2 );

  00ad7	8d 45 f0	 lea	 eax, DWORD PTR _vRotAxis2$601514[ebp]
  00ada	0f 5a ea	 cvtps2pd xmm5, xmm2
  00add	f2 0f 59 e8	 mulsd	 xmm5, xmm0
  00ae1	0f 5a c4	 cvtps2pd xmm0, xmm4
  00ae4	f2 0f 59 c3	 mulsd	 xmm0, xmm3
  00ae8	f2 0f 5c e8	 subsd	 xmm5, xmm0
  00aec	0f 57 c0	 xorps	 xmm0, xmm0
  00aef	66 0f 5a c5	 cvtpd2ps xmm0, xmm5
  00af3	f3 0f 11 45 dc	 movss	 DWORD PTR _v$606779[ebp+4], xmm0
  00af8	f3 0f 10 83 e8
	10 00 00	 movss	 xmm0, DWORD PTR [ebx+4328]
  00b00	0f 5a c0	 cvtps2pd xmm0, xmm0
  00b03	0f 5a dc	 cvtps2pd xmm3, xmm4
  00b06	f2 0f 59 d8	 mulsd	 xmm3, xmm0
  00b0a	50		 push	 eax
  00b0b	50		 push	 eax
  00b0c	0f 5a c2	 cvtps2pd xmm0, xmm2
  00b0f	f2 0f 59 c1	 mulsd	 xmm0, xmm1
  00b13	f2 0f 5c d8	 subsd	 xmm3, xmm0
  00b17	0f 57 c0	 xorps	 xmm0, xmm0
  00b1a	66 0f 5a c3	 cvtpd2ps xmm0, xmm3
  00b1e	f3 0f 11 45 e0	 movss	 DWORD PTR _v$606779[ebp+8], xmm0
  00b23	a5		 movsd
  00b24	a5		 movsd
  00b25	a5		 movsd
  00b26	e8 00 00 00 00	 call	 _D3DXVec3Normalize@8

; 491  : 				D3DXQuaternionRotationAxis( &qtAngle, &vRotAxis2, DEGtoRAD(fCurAngle) );

  00b2b	f3 0f 10 45 c8	 movss	 xmm0, DWORD PTR tv3489[ebp]
$LN356@ApplyAttri:
  00b30	51		 push	 ecx
  00b31	f3 0f 11 04 24	 movss	 DWORD PTR [esp], xmm0
  00b36	8d 45 f0	 lea	 eax, DWORD PTR _vRotAxis2$601514[ebp]
  00b39	50		 push	 eax
  00b3a	8d 45 ac	 lea	 eax, DWORD PTR _qtAngle$601502[ebp]
  00b3d	50		 push	 eax
  00b3e	e8 00 00 00 00	 call	 _D3DXQuaternionRotationAxis@12
$LN16@ApplyAttri:

; 492  : 			}
; 493  : 
; 494  : 			vMoveDir = qtAngle * m_vSkillDir;

  00b43	8d 83 e4 10 00
	00		 lea	 eax, DWORD PTR [ebx+4324]
  00b49	50		 push	 eax
  00b4a	8d 45 ac	 lea	 eax, DWORD PTR _qtAngle$601502[ebp]
  00b4d	50		 push	 eax
  00b4e	8d 45 cc	 lea	 eax, DWORD PTR $T601515[ebp]
  00b51	50		 push	 eax
  00b52	ff 15 00 00 00
	00		 call	 DWORD PTR __imp_??D@YA?AUD3DXVECTOR3@@ABUD3DXQUATERNION@@ABU0@@Z
  00b58	83 c4 0c	 add	 esp, 12			; 0000000cH
$LN352@ApplyAttri:
  00b5b	8d 7d e4	 lea	 edi, DWORD PTR _vMoveDir$601501[ebp]
  00b5e	8b f0		 mov	 esi, eax
  00b60	a5		 movsd
  00b61	a5		 movsd
  00b62	a5		 movsd

; 495  : 		}
; 496  : 
; 497  : 		pWeapon->SetMoveDir( vMoveDir );

  00b63	8b 75 c4	 mov	 esi, DWORD PTR _pWeapon$GSCopy$[ebp]
$LN355@ApplyAttri:
  00b66	8d 4d e4	 lea	 ecx, DWORD PTR _vMoveDir$601501[ebp]
$LN357@ApplyAttri:
  00b69	8b 06		 mov	 eax, DWORD PTR [esi]
  00b6b	51		 push	 ecx
  00b6c	8b ce		 mov	 ecx, esi
  00b6e	ff 90 b0 00 00
	00		 call	 DWORD PTR [eax+176]

; 498  : 
; 499  : 		if( fSpeed > 0.0f )

  00b74	f3 0f 10 45 a8	 movss	 xmm0, DWORD PTR _fSpeed$[ebp]
  00b79	0f 2f 05 00 00
	00 00		 comiss	 xmm0, DWORD PTR __real@00000000
  00b80	76 10		 jbe	 SHORT $LN15@ApplyAttri

; 500  : 			pWeapon->SetMoveSpeed( fSpeed );

  00b82	8b 06		 mov	 eax, DWORD PTR [esi]
  00b84	51		 push	 ecx
  00b85	8b ce		 mov	 ecx, esi
  00b87	f3 0f 11 04 24	 movss	 DWORD PTR [esp], xmm0
  00b8c	ff 90 b4 00 00
	00		 call	 DWORD PTR [eax+180]
$LN15@ApplyAttri:

; 501  : 
; 502  : 		m_iWeaponWay++;

  00b92	ff 83 f4 10 00
	00		 inc	 DWORD PTR [ebx+4340]
  00b98	e9 ad 05 00 00	 jmp	 $LN7@ApplyAttri
$LN22@ApplyAttri:

; 503  : 	}
; 504  : 	else if( pPower || pCount || pRange || pRotate )

  00b9d	39 4d 80	 cmp	 DWORD PTR _pPower$[ebp], ecx
  00ba0	0f 85 2a 02 00
	00		 jne	 $LN12@ApplyAttri
  00ba6	39 4d 90	 cmp	 DWORD PTR _pCount$[ebp], ecx
  00ba9	0f 85 21 02 00
	00		 jne	 $LN12@ApplyAttri
  00baf	39 4d a4	 cmp	 DWORD PTR _pRange$[ebp], ecx
  00bb2	0f 85 18 02 00
	00		 jne	 $LN12@ApplyAttri
  00bb8	39 4d c0	 cmp	 DWORD PTR _pRotate$[ebp], ecx
  00bbb	0f 85 0f 02 00
	00		 jne	 $LN12@ApplyAttri

; 563  : 	}
; 564  : 	else
; 565  : 	{
; 566  : 		if( m_iMaxWeaponWay <= m_iWeaponWay )

  00bc1	8b 83 f4 10 00
	00		 mov	 eax, DWORD PTR [ebx+4340]
  00bc7	39 83 f0 10 00
	00		 cmp	 DWORD PTR [ebx+4336], eax
  00bcd	0f 8e d2 05 00
	00		 jle	 $LN1@ApplyAttri

; 567  : 			return;
; 568  : 
; 569  : 		float fCurAngle = 0.0f;
; 570  : 		float fCurRange = 0.0f;
; 571  : 		float fCurHeight = 0.0f;
; 572  : 
; 573  : 		fCurAngle = m_BulletInfoList[m_iWeaponWay].m_fYawAngle;

  00bd3	8b 8b f8 10 00
	00		 mov	 ecx, DWORD PTR [ebx+4344]
  00bd9	6b c0 14	 imul	 eax, 20			; 00000014H

; 574  : 		fCurRange = m_BulletInfoList[m_iWeaponWay].m_fRangeOffSet;

  00bdc	f3 0f 10 4c 08
	0c		 movss	 xmm1, DWORD PTR [eax+ecx+12]
  00be2	f3 0f 10 04 08	 movss	 xmm0, DWORD PTR [eax+ecx]
  00be7	f3 0f 11 4d a4	 movss	 DWORD PTR _fCurRange$601549[ebp], xmm1

; 575  : 		fCurHeight = m_BulletInfoList[m_iWeaponWay].m_fHeightOffSet;

  00bec	f3 0f 10 4c 08
	10		 movss	 xmm1, DWORD PTR [eax+ecx+16]

; 576  : 			
; 577  : 		fCurAngle = ioMath::ArrangeHead( fCurAngle );

  00bf2	51		 push	 ecx
  00bf3	f3 0f 11 4d 90	 movss	 DWORD PTR _fCurHeight$601550[ebp], xmm1
  00bf8	f3 0f 11 04 24	 movss	 DWORD PTR [esp], xmm0
  00bfd	ff 15 00 00 00
	00		 call	 DWORD PTR __imp_?ArrangeHead@ioMath@@SAMM@Z
  00c03	d9 5d c0	 fstp	 DWORD PTR _fCurAngle$601548[ebp]

; 578  : 
; 579  : 		D3DXVECTOR3 vMoveDir;
; 580  : 		D3DXQUATERNION qtAngle;
; 581  : 		D3DXQuaternionRotationYawPitchRoll( &qtAngle, DEGtoRAD(fCurAngle), 0.0f, 0.0f );

  00c06	d9 45 c0	 fld	 DWORD PTR _fCurAngle$601548[ebp]
  00c09	0f 57 c0	 xorps	 xmm0, xmm0
  00c0c	dc 0d 00 00 00
	00		 fmul	 QWORD PTR __real@3f91df46a2526c7a
  00c12	f3 0f 11 04 24	 movss	 DWORD PTR [esp], xmm0
  00c17	51		 push	 ecx
  00c18	51		 push	 ecx
  00c19	d9 5d c0	 fstp	 DWORD PTR tv3786[ebp]
  00c1c	f3 0f 11 44 24
	04		 movss	 DWORD PTR [esp+4], xmm0
  00c22	d9 45 c0	 fld	 DWORD PTR tv3786[ebp]
  00c25	8d 45 94	 lea	 eax, DWORD PTR _qtAngle$601552[ebp]
  00c28	d9 1c 24	 fstp	 DWORD PTR [esp]
  00c2b	50		 push	 eax
  00c2c	e8 00 00 00 00	 call	 _D3DXQuaternionRotationYawPitchRoll@16

; 582  : 
; 583  : 		D3DXQUATERNION qtRotate = pWeapon->GetOwner()->GetTargetRot();

  00c31	8b cf		 mov	 ecx, edi
  00c33	e8 00 00 00 00	 call	 ?GetOwner@ioWeapon@@QBEPAVioBaseChar@@XZ ; ioWeapon::GetOwner
  00c38	8d b0 a4 06 00
	00		 lea	 esi, DWORD PTR [eax+1700]
  00c3e	8d 7d ac	 lea	 edi, DWORD PTR _qtRotate$601553[ebp]
  00c41	a5		 movsd
  00c42	a5		 movsd
  00c43	a5		 movsd
  00c44	a5		 movsd

; 584  : 		vMoveDir = qtRotate * D3DXVECTOR3( 0.0f, 0.0f, -FLOAT1 );

  00c45	b8 01 00 00 00	 mov	 eax, 1
  00c4a	0f 57 c0	 xorps	 xmm0, xmm0
  00c4d	89 45 bc	 mov	 DWORD PTR tv3764[ebp], eax
  00c50	db 45 bc	 fild	 DWORD PTR tv3764[ebp]
  00c53	f3 0f 11 45 d8	 movss	 DWORD PTR $T601555[ebp], xmm0
  00c58	f3 0f 11 45 dc	 movss	 DWORD PTR $T601555[ebp+4], xmm0
  00c5d	85 c0		 test	 eax, eax
  00c5f	79 06		 jns	 SHORT $LN342@ApplyAttri
  00c61	d8 05 00 00 00
	00		 fadd	 DWORD PTR __real@4f800000
$LN342@ApplyAttri:
  00c67	8d 45 d8	 lea	 eax, DWORD PTR $T601555[ebp]
  00c6a	d9 e0		 fchs
  00c6c	50		 push	 eax
  00c6d	d9 5d e0	 fstp	 DWORD PTR $T601555[ebp+8]
  00c70	8d 45 ac	 lea	 eax, DWORD PTR _qtRotate$601553[ebp]
  00c73	50		 push	 eax
  00c74	8d 45 cc	 lea	 eax, DWORD PTR $T601556[ebp]
  00c77	50		 push	 eax
  00c78	ff 15 00 00 00
	00		 call	 DWORD PTR __imp_??D@YA?AUD3DXVECTOR3@@ABUD3DXQUATERNION@@ABU0@@Z
  00c7e	8b f0		 mov	 esi, eax
  00c80	8d 7d e4	 lea	 edi, DWORD PTR _vMoveDir$601551[ebp]
  00c83	a5		 movsd

; 585  : 		vMoveDir = qtAngle * vMoveDir;

  00c84	8d 45 e4	 lea	 eax, DWORD PTR _vMoveDir$601551[ebp]
  00c87	50		 push	 eax
  00c88	8d 45 94	 lea	 eax, DWORD PTR _qtAngle$601552[ebp]
  00c8b	a5		 movsd
  00c8c	50		 push	 eax
  00c8d	8d 45 cc	 lea	 eax, DWORD PTR $T601557[ebp]
  00c90	50		 push	 eax
  00c91	a5		 movsd
  00c92	ff 15 00 00 00
	00		 call	 DWORD PTR __imp_??D@YA?AUD3DXVECTOR3@@ABUD3DXQUATERNION@@ABU0@@Z
  00c98	8b f0		 mov	 esi, eax
  00c9a	8d 7d e4	 lea	 edi, DWORD PTR _vMoveDir$601551[ebp]
  00c9d	a5		 movsd
  00c9e	83 c4 18	 add	 esp, 24			; 00000018H

; 586  : 		D3DXVec3Normalize( &vMoveDir, &vMoveDir );

  00ca1	8d 45 e4	 lea	 eax, DWORD PTR _vMoveDir$601551[ebp]
  00ca4	a5		 movsd
  00ca5	50		 push	 eax
  00ca6	50		 push	 eax
  00ca7	a5		 movsd
  00ca8	e8 00 00 00 00	 call	 _D3DXVec3Normalize@8

; 587  : 
; 588  : 		D3DXVECTOR3 vPos = pWeapon->GetOwner()->GetMidPositionByRate();

  00cad	b8 05 00 00 00	 mov	 eax, 5
  00cb2	8b c8		 mov	 ecx, eax
  00cb4	b8 0a 00 00 00	 mov	 eax, 10			; 0000000aH
  00cb9	89 4d bc	 mov	 DWORD PTR tv3733[ebp], ecx
  00cbc	db 45 bc	 fild	 DWORD PTR tv3733[ebp]
  00cbf	85 c9		 test	 ecx, ecx
  00cc1	79 06		 jns	 SHORT $LN343@ApplyAttri
  00cc3	d8 05 00 00 00
	00		 fadd	 DWORD PTR __real@4f800000
$LN343@ApplyAttri:
  00cc9	89 45 bc	 mov	 DWORD PTR tv3729[ebp], eax
  00ccc	db 45 bc	 fild	 DWORD PTR tv3729[ebp]
  00ccf	85 c0		 test	 eax, eax
  00cd1	79 06		 jns	 SHORT $LN344@ApplyAttri
  00cd3	d8 05 00 00 00
	00		 fadd	 DWORD PTR __real@4f800000
$LN344@ApplyAttri:
  00cd9	de f9		 fdivp	 ST(1), ST(0)
  00cdb	51		 push	 ecx
  00cdc	8b 4d c4	 mov	 ecx, DWORD PTR _pWeapon$GSCopy$[ebp]
  00cdf	8d 45 f0	 lea	 eax, DWORD PTR _vPos$601558[ebp]
  00ce2	d9 5d c0	 fstp	 DWORD PTR tv3725[ebp]
  00ce5	d9 45 c0	 fld	 DWORD PTR tv3725[ebp]
  00ce8	d9 1c 24	 fstp	 DWORD PTR [esp]
  00ceb	50		 push	 eax
  00cec	e8 00 00 00 00	 call	 ?GetOwner@ioWeapon@@QBEPAVioBaseChar@@XZ ; ioWeapon::GetOwner
  00cf1	8b c8		 mov	 ecx, eax
  00cf3	e8 00 00 00 00	 call	 ?GetMidPositionByRate@ioGameEntity@@QBE?AUD3DXVECTOR3@@M@Z ; ioGameEntity::GetMidPositionByRate

; 589  : 		if( fCurRange > 0.0f )

  00cf8	f3 0f 10 45 a4	 movss	 xmm0, DWORD PTR _fCurRange$601549[ebp]
  00cfd	0f 57 c9	 xorps	 xmm1, xmm1
  00d00	0f 2f c1	 comiss	 xmm0, xmm1
  00d03	0f 86 89 00 00
	00		 jbe	 $LN334@ApplyAttri

; 590  : 			vPos += vMoveDir*fCurRange;

  00d09	f3 0f 10 5d e4	 movss	 xmm3, DWORD PTR _vMoveDir$601551[ebp]
  00d0e	0f 5a d0	 cvtps2pd xmm2, xmm0
  00d11	0f 5a e0	 cvtps2pd xmm4, xmm0
  00d14	0f 5a db	 cvtps2pd xmm3, xmm3
  00d17	f2 0f 59 d3	 mulsd	 xmm2, xmm3
  00d1b	f3 0f 10 5d e8	 movss	 xmm3, DWORD PTR _vMoveDir$601551[ebp+4]
  00d20	66 0f 5a d2	 cvtpd2ps xmm2, xmm2
  00d24	0f 5a db	 cvtps2pd xmm3, xmm3
  00d27	f2 0f 59 dc	 mulsd	 xmm3, xmm4
  00d2b	f3 0f 10 65 ec	 movss	 xmm4, DWORD PTR _vMoveDir$601551[ebp+8]
  00d30	0f 5a c0	 cvtps2pd xmm0, xmm0
  00d33	f3 0f 5a d2	 cvtss2sd xmm2, xmm2
  00d37	0f 5a e4	 cvtps2pd xmm4, xmm4
  00d3a	f2 0f 59 e0	 mulsd	 xmm4, xmm0
  00d3e	0f 57 c0	 xorps	 xmm0, xmm0
  00d41	66 0f 5a c4	 cvtpd2ps xmm0, xmm4
  00d45	f3 0f 10 65 f0	 movss	 xmm4, DWORD PTR _vPos$601558[ebp]
  00d4a	0f 5a e4	 cvtps2pd xmm4, xmm4
  00d4d	f2 0f 58 d4	 addsd	 xmm2, xmm4
  00d51	66 0f 5a d2	 cvtpd2ps xmm2, xmm2
  00d55	f3 0f 11 55 f0	 movss	 DWORD PTR _vPos$601558[ebp], xmm2
  00d5a	f3 0f 10 55 f4	 movss	 xmm2, DWORD PTR _vPos$601558[ebp+4]
  00d5f	0f 5a d2	 cvtps2pd xmm2, xmm2
  00d62	66 0f 5a db	 cvtpd2ps xmm3, xmm3
  00d66	f3 0f 5a db	 cvtss2sd xmm3, xmm3
  00d6a	f2 0f 58 d3	 addsd	 xmm2, xmm3
  00d6e	66 0f 5a d2	 cvtpd2ps xmm2, xmm2
  00d72	f3 0f 11 55 f4	 movss	 DWORD PTR _vPos$601558[ebp+4], xmm2
  00d77	f3 0f 10 55 f8	 movss	 xmm2, DWORD PTR _vPos$601558[ebp+8]
  00d7c	0f 5a c0	 cvtps2pd xmm0, xmm0
  00d7f	0f 5a d2	 cvtps2pd xmm2, xmm2
  00d82	f2 0f 58 d0	 addsd	 xmm2, xmm0
  00d86	0f 57 c0	 xorps	 xmm0, xmm0
  00d89	66 0f 5a c2	 cvtpd2ps xmm0, xmm2
  00d8d	f3 0f 11 45 f8	 movss	 DWORD PTR _vPos$601558[ebp+8], xmm0
$LN334@ApplyAttri:

; 591  : 		
; 592  : 		if( fCurHeight > 0.0f )

  00d92	f3 0f 10 45 90	 movss	 xmm0, DWORD PTR _fCurHeight$601550[ebp]
  00d97	0f 2f c1	 comiss	 xmm0, xmm1
  00d9a	76 1b		 jbe	 SHORT $LN4@ApplyAttri

; 593  : 			vPos.y += fCurHeight;

  00d9c	f3 0f 10 4d f4	 movss	 xmm1, DWORD PTR _vPos$601558[ebp+4]
  00da1	0f 5a c0	 cvtps2pd xmm0, xmm0
  00da4	0f 5a c9	 cvtps2pd xmm1, xmm1
  00da7	f2 0f 58 c8	 addsd	 xmm1, xmm0
  00dab	0f 57 c0	 xorps	 xmm0, xmm0
  00dae	f2 0f 5a c1	 cvtsd2ss xmm0, xmm1
  00db2	f3 0f 11 45 f4	 movss	 DWORD PTR _vPos$601558[ebp+4], xmm0
$LN4@ApplyAttri:

; 594  : 
; 595  : 		pWeapon->SetStartPosition( vPos, pStage );

  00db7	ff 75 84	 push	 DWORD PTR _pStage$GSCopy$[ebp]
  00dba	8b 75 c4	 mov	 esi, DWORD PTR _pWeapon$GSCopy$[ebp]
  00dbd	8b 06		 mov	 eax, DWORD PTR [esi]
  00dbf	8d 4d f0	 lea	 ecx, DWORD PTR _vPos$601558[ebp]
  00dc2	51		 push	 ecx
  00dc3	8b ce		 mov	 ecx, esi
  00dc5	ff 90 bc 00 00
	00		 call	 DWORD PTR [eax+188]

; 596  : 		pWeapon->SetMoveDir( vMoveDir );
; 597  : 
; 598  : 		if( fSpeed > 0.0f )
; 599  : 			pWeapon->SetMoveSpeed( fSpeed );
; 600  : 
; 601  : 		m_iWeaponWay++;

  00dcb	e9 96 fd ff ff	 jmp	 $LN355@ApplyAttri
$LN12@ApplyAttri:

; 505  : 	{
; 506  : 		if( m_iMaxWeaponWay <= m_iWeaponWay )

  00dd0	8b 83 f4 10 00
	00		 mov	 eax, DWORD PTR [ebx+4340]
  00dd6	39 83 f0 10 00
	00		 cmp	 DWORD PTR [ebx+4336], eax
  00ddc	0f 8e c3 03 00
	00		 jle	 $LN1@ApplyAttri

; 507  : 			return;
; 508  : 
; 509  : 		float fCurAngle = 0.0f;
; 510  : 		float fCurRange = 0.0f;
; 511  : 		float fCurHeight = 0.0f;
; 512  : 
; 513  : 		fCurAngle = m_BulletInfoList[m_iWeaponWay].m_fYawAngle;

  00de2	8b 8b f8 10 00
	00		 mov	 ecx, DWORD PTR [ebx+4344]
  00de8	6b c0 14	 imul	 eax, 20			; 00000014H

; 514  : 		fCurRange = m_BulletInfoList[m_iWeaponWay].m_fRangeOffSet;

  00deb	f3 0f 10 4c 08
	0c		 movss	 xmm1, DWORD PTR [eax+ecx+12]
  00df1	f3 0f 10 04 08	 movss	 xmm0, DWORD PTR [eax+ecx]
  00df6	f3 0f 11 4d a4	 movss	 DWORD PTR _fCurRange$601522[ebp], xmm1

; 515  : 		fCurHeight = m_BulletInfoList[m_iWeaponWay].m_fHeightOffSet;

  00dfb	f3 0f 10 4c 08
	10		 movss	 xmm1, DWORD PTR [eax+ecx+16]

; 516  : 
; 517  : 		fCurAngle = ioMath::ArrangeHead( fCurAngle );

  00e01	51		 push	 ecx
  00e02	f3 0f 11 4d 90	 movss	 DWORD PTR _fCurHeight$601523[ebp], xmm1
  00e07	f3 0f 11 04 24	 movss	 DWORD PTR [esp], xmm0
  00e0c	ff 15 00 00 00
	00		 call	 DWORD PTR __imp_?ArrangeHead@ioMath@@SAMM@Z
  00e12	d9 5d c0	 fstp	 DWORD PTR _fCurAngle$601521[ebp]

; 518  : 
; 519  : 		D3DXVECTOR3 vMoveDir;
; 520  : 		D3DXQUATERNION qtAngle;
; 521  : 		D3DXQuaternionRotationYawPitchRoll( &qtAngle, DEGtoRAD(fCurAngle), 0.0f, 0.0f );

  00e15	d9 45 c0	 fld	 DWORD PTR _fCurAngle$601521[ebp]
  00e18	0f 57 c0	 xorps	 xmm0, xmm0
  00e1b	dc 0d 00 00 00
	00		 fmul	 QWORD PTR __real@3f91df46a2526c7a
  00e21	f3 0f 11 04 24	 movss	 DWORD PTR [esp], xmm0
  00e26	51		 push	 ecx
  00e27	51		 push	 ecx
  00e28	d9 5d c0	 fstp	 DWORD PTR tv3690[ebp]
  00e2b	f3 0f 11 44 24
	04		 movss	 DWORD PTR [esp+4], xmm0
  00e31	d9 45 c0	 fld	 DWORD PTR tv3690[ebp]
  00e34	8d 45 ac	 lea	 eax, DWORD PTR _qtAngle$601525[ebp]
  00e37	d9 1c 24	 fstp	 DWORD PTR [esp]
  00e3a	50		 push	 eax
  00e3b	e8 00 00 00 00	 call	 _D3DXQuaternionRotationYawPitchRoll@16

; 522  : 
; 523  : 		D3DXQUATERNION qtRotate = pWeapon->GetOwner()->GetTargetRot();

  00e40	8b cf		 mov	 ecx, edi
  00e42	e8 00 00 00 00	 call	 ?GetOwner@ioWeapon@@QBEPAVioBaseChar@@XZ ; ioWeapon::GetOwner
  00e47	8d b0 a4 06 00
	00		 lea	 esi, DWORD PTR [eax+1700]
  00e4d	8d 7d 94	 lea	 edi, DWORD PTR _qtRotate$601526[ebp]
  00e50	a5		 movsd
  00e51	a5		 movsd
  00e52	a5		 movsd
  00e53	a5		 movsd

; 524  : 		vMoveDir = qtRotate * D3DXVECTOR3( 0.0f, 0.0f, -FLOAT1 );

  00e54	b8 01 00 00 00	 mov	 eax, 1
  00e59	0f 57 c0	 xorps	 xmm0, xmm0
  00e5c	89 45 bc	 mov	 DWORD PTR tv3668[ebp], eax
  00e5f	db 45 bc	 fild	 DWORD PTR tv3668[ebp]
  00e62	f3 0f 11 45 d8	 movss	 DWORD PTR $T601528[ebp], xmm0
  00e67	f3 0f 11 45 dc	 movss	 DWORD PTR $T601528[ebp+4], xmm0
  00e6c	85 c0		 test	 eax, eax
  00e6e	79 06		 jns	 SHORT $LN345@ApplyAttri
  00e70	d8 05 00 00 00
	00		 fadd	 DWORD PTR __real@4f800000
$LN345@ApplyAttri:
  00e76	8d 45 d8	 lea	 eax, DWORD PTR $T601528[ebp]
  00e79	d9 e0		 fchs
  00e7b	50		 push	 eax
  00e7c	d9 5d e0	 fstp	 DWORD PTR $T601528[ebp+8]
  00e7f	8d 45 94	 lea	 eax, DWORD PTR _qtRotate$601526[ebp]
  00e82	50		 push	 eax
  00e83	8d 45 cc	 lea	 eax, DWORD PTR $T601529[ebp]
  00e86	50		 push	 eax
  00e87	ff 15 00 00 00
	00		 call	 DWORD PTR __imp_??D@YA?AUD3DXVECTOR3@@ABUD3DXQUATERNION@@ABU0@@Z
  00e8d	8b f0		 mov	 esi, eax
  00e8f	8d 7d e4	 lea	 edi, DWORD PTR _vMoveDir$601524[ebp]
  00e92	a5		 movsd

; 525  : 		vMoveDir = qtAngle * vMoveDir;

  00e93	8d 45 e4	 lea	 eax, DWORD PTR _vMoveDir$601524[ebp]
  00e96	50		 push	 eax
  00e97	8d 45 ac	 lea	 eax, DWORD PTR _qtAngle$601525[ebp]
  00e9a	a5		 movsd
  00e9b	50		 push	 eax
  00e9c	8d 45 cc	 lea	 eax, DWORD PTR $T601530[ebp]
  00e9f	50		 push	 eax
  00ea0	a5		 movsd
  00ea1	ff 15 00 00 00
	00		 call	 DWORD PTR __imp_??D@YA?AUD3DXVECTOR3@@ABUD3DXQUATERNION@@ABU0@@Z
  00ea7	8b f0		 mov	 esi, eax
  00ea9	8d 7d e4	 lea	 edi, DWORD PTR _vMoveDir$601524[ebp]
  00eac	a5		 movsd
  00ead	83 c4 18	 add	 esp, 24			; 00000018H

; 526  : 		D3DXVec3Normalize( &vMoveDir, &vMoveDir );

  00eb0	8d 45 e4	 lea	 eax, DWORD PTR _vMoveDir$601524[ebp]
  00eb3	a5		 movsd
  00eb4	50		 push	 eax
  00eb5	50		 push	 eax
  00eb6	a5		 movsd
  00eb7	e8 00 00 00 00	 call	 _D3DXVec3Normalize@8

; 527  : 
; 528  : 		D3DXVECTOR3 vPos = pWeapon->GetOwner()->GetMidPositionByRate();

  00ebc	b8 05 00 00 00	 mov	 eax, 5
  00ec1	8b c8		 mov	 ecx, eax
  00ec3	b8 0a 00 00 00	 mov	 eax, 10			; 0000000aH
  00ec8	89 4d bc	 mov	 DWORD PTR tv3637[ebp], ecx
  00ecb	db 45 bc	 fild	 DWORD PTR tv3637[ebp]
  00ece	85 c9		 test	 ecx, ecx
  00ed0	79 06		 jns	 SHORT $LN346@ApplyAttri
  00ed2	d8 05 00 00 00
	00		 fadd	 DWORD PTR __real@4f800000
$LN346@ApplyAttri:
  00ed8	89 45 bc	 mov	 DWORD PTR tv3633[ebp], eax
  00edb	db 45 bc	 fild	 DWORD PTR tv3633[ebp]
  00ede	85 c0		 test	 eax, eax
  00ee0	79 06		 jns	 SHORT $LN347@ApplyAttri
  00ee2	d8 05 00 00 00
	00		 fadd	 DWORD PTR __real@4f800000
$LN347@ApplyAttri:
  00ee8	de f9		 fdivp	 ST(1), ST(0)
  00eea	51		 push	 ecx
  00eeb	8b 4d c4	 mov	 ecx, DWORD PTR _pWeapon$GSCopy$[ebp]
  00eee	8d 45 f0	 lea	 eax, DWORD PTR _vPos$601531[ebp]
  00ef1	d9 5d c0	 fstp	 DWORD PTR tv3629[ebp]
  00ef4	d9 45 c0	 fld	 DWORD PTR tv3629[ebp]
  00ef7	d9 1c 24	 fstp	 DWORD PTR [esp]
  00efa	50		 push	 eax
  00efb	e8 00 00 00 00	 call	 ?GetOwner@ioWeapon@@QBEPAVioBaseChar@@XZ ; ioWeapon::GetOwner
  00f00	8b c8		 mov	 ecx, eax
  00f02	e8 00 00 00 00	 call	 ?GetMidPositionByRate@ioGameEntity@@QBE?AUD3DXVECTOR3@@M@Z ; ioGameEntity::GetMidPositionByRate

; 529  : 		if( fCurRange > 0.0f )

  00f07	f3 0f 10 45 a4	 movss	 xmm0, DWORD PTR _fCurRange$601522[ebp]
  00f0c	0f 57 c9	 xorps	 xmm1, xmm1
  00f0f	0f 2f c1	 comiss	 xmm0, xmm1
  00f12	0f 86 8c 00 00
	00		 jbe	 $LN335@ApplyAttri

; 530  : 			vPos += vMoveDir*fCurRange;

  00f18	f3 0f 10 5d e4	 movss	 xmm3, DWORD PTR _vMoveDir$601524[ebp]
  00f1d	0f 5a d0	 cvtps2pd xmm2, xmm0
  00f20	0f 5a e0	 cvtps2pd xmm4, xmm0
  00f23	0f 5a db	 cvtps2pd xmm3, xmm3
  00f26	f2 0f 59 d3	 mulsd	 xmm2, xmm3
  00f2a	f3 0f 10 5d e8	 movss	 xmm3, DWORD PTR _vMoveDir$601524[ebp+4]
  00f2f	0f 5a db	 cvtps2pd xmm3, xmm3
  00f32	f2 0f 59 dc	 mulsd	 xmm3, xmm4
  00f36	f3 0f 10 65 ec	 movss	 xmm4, DWORD PTR _vMoveDir$601524[ebp+8]
  00f3b	66 0f 5a d2	 cvtpd2ps xmm2, xmm2
  00f3f	0f 5a c0	 cvtps2pd xmm0, xmm0
  00f42	f3 0f 5a d2	 cvtss2sd xmm2, xmm2
  00f46	0f 5a e4	 cvtps2pd xmm4, xmm4
  00f49	f2 0f 59 e0	 mulsd	 xmm4, xmm0
  00f4d	0f 57 c0	 xorps	 xmm0, xmm0
  00f50	66 0f 5a c4	 cvtpd2ps xmm0, xmm4
  00f54	f3 0f 10 65 f0	 movss	 xmm4, DWORD PTR _vPos$601531[ebp]
  00f59	0f 5a e4	 cvtps2pd xmm4, xmm4
  00f5c	f2 0f 58 d4	 addsd	 xmm2, xmm4
  00f60	66 0f 5a d2	 cvtpd2ps xmm2, xmm2
  00f64	f3 0f 11 55 f0	 movss	 DWORD PTR _vPos$601531[ebp], xmm2
  00f69	0f 57 d2	 xorps	 xmm2, xmm2
  00f6c	66 0f 5a db	 cvtpd2ps xmm3, xmm3
  00f70	f3 0f 5a d3	 cvtss2sd xmm2, xmm3
  00f74	f3 0f 10 5d f4	 movss	 xmm3, DWORD PTR _vPos$601531[ebp+4]
  00f79	0f 5a db	 cvtps2pd xmm3, xmm3
  00f7c	f2 0f 58 d3	 addsd	 xmm2, xmm3
  00f80	66 0f 5a d2	 cvtpd2ps xmm2, xmm2
  00f84	f3 0f 11 55 f4	 movss	 DWORD PTR _vPos$601531[ebp+4], xmm2
  00f89	f3 0f 10 55 f8	 movss	 xmm2, DWORD PTR _vPos$601531[ebp+8]
  00f8e	0f 5a c0	 cvtps2pd xmm0, xmm0
  00f91	0f 5a d2	 cvtps2pd xmm2, xmm2
  00f94	f2 0f 58 d0	 addsd	 xmm2, xmm0
  00f98	0f 57 c0	 xorps	 xmm0, xmm0
  00f9b	66 0f 5a c2	 cvtpd2ps xmm0, xmm2
  00f9f	f3 0f 11 45 f8	 movss	 DWORD PTR _vPos$601531[ebp+8], xmm0
$LN335@ApplyAttri:

; 531  : 
; 532  : 		if( fCurHeight > 0.0f )

  00fa4	f3 0f 10 45 90	 movss	 xmm0, DWORD PTR _fCurHeight$601523[ebp]
  00fa9	0f 2f c1	 comiss	 xmm0, xmm1
  00fac	76 1b		 jbe	 SHORT $LN9@ApplyAttri

; 533  : 			vPos.y += fCurHeight;

  00fae	f3 0f 10 4d f4	 movss	 xmm1, DWORD PTR _vPos$601531[ebp+4]
  00fb3	0f 5a c0	 cvtps2pd xmm0, xmm0
  00fb6	0f 5a c9	 cvtps2pd xmm1, xmm1
  00fb9	f2 0f 58 c8	 addsd	 xmm1, xmm0
  00fbd	0f 57 c0	 xorps	 xmm0, xmm0
  00fc0	f2 0f 5a c1	 cvtsd2ss xmm0, xmm1
  00fc4	f3 0f 11 45 f4	 movss	 DWORD PTR _vPos$601531[ebp+4], xmm0
$LN9@ApplyAttri:

; 534  : 
; 535  : 		pWeapon->SetStartPosition( vPos, pStage );

  00fc9	ff 75 84	 push	 DWORD PTR _pStage$GSCopy$[ebp]
  00fcc	8b 75 c4	 mov	 esi, DWORD PTR _pWeapon$GSCopy$[ebp]
  00fcf	8b 06		 mov	 eax, DWORD PTR [esi]
  00fd1	8d 4d f0	 lea	 ecx, DWORD PTR _vPos$601531[ebp]
  00fd4	51		 push	 ecx
  00fd5	8b ce		 mov	 ecx, esi
  00fd7	ff 90 bc 00 00
	00		 call	 DWORD PTR [eax+188]

; 536  : 		pWeapon->SetMoveDir( vMoveDir );

  00fdd	8b 06		 mov	 eax, DWORD PTR [esi]
  00fdf	8d 4d e4	 lea	 ecx, DWORD PTR _vMoveDir$601524[ebp]
  00fe2	51		 push	 ecx
  00fe3	8b ce		 mov	 ecx, esi
  00fe5	ff 90 b0 00 00
	00		 call	 DWORD PTR [eax+176]

; 537  : 
; 538  : 		if( fSpeed > 0.0f )

  00feb	f3 0f 10 45 a8	 movss	 xmm0, DWORD PTR _fSpeed$[ebp]
  00ff0	0f 2f 05 00 00
	00 00		 comiss	 xmm0, DWORD PTR __real@00000000
  00ff7	76 10		 jbe	 SHORT $LN8@ApplyAttri

; 539  : 			pWeapon->SetMoveSpeed( fSpeed );

  00ff9	8b 06		 mov	 eax, DWORD PTR [esi]
  00ffb	51		 push	 ecx
  00ffc	8b ce		 mov	 ecx, esi
  00ffe	f3 0f 11 04 24	 movss	 DWORD PTR [esp], xmm0
  01003	ff 90 b4 00 00
	00		 call	 DWORD PTR [eax+180]
$LN8@ApplyAttri:

; 540  : 
; 541  : 		m_iWeaponWay++;
; 542  : 
; 543  : 		// Charge...
; 544  : 		float fCurDamageRate = GetOwnerItem()->GetChargeDamageRateForSkill();

  01009	8b 8b a4 02 00
	00		 mov	 ecx, DWORD PTR [ebx+676]
  0100f	ff 83 f4 10 00
	00		 inc	 DWORD PTR [ebx+4340]
  01015	8b 01		 mov	 eax, DWORD PTR [ecx]
  01017	ff 90 88 00 00
	00		 call	 DWORD PTR [eax+136]
  0101d	d9 5d c0	 fstp	 DWORD PTR _fCurDamageRate$601537[ebp]

; 545  : 		float fCurForceRate = GetOwnerItem()->GetChargeForceRateForSkill();

  01020	8b 8b a4 02 00
	00		 mov	 ecx, DWORD PTR [ebx+676]
  01026	8b 01		 mov	 eax, DWORD PTR [ecx]
  01028	ff 90 8c 00 00
	00		 call	 DWORD PTR [eax+140]
  0102e	d9 5d a4	 fstp	 DWORD PTR _fCurForceRate$601538[ebp]

; 546  : 		float fCurBlowRate = GetOwnerItem()->GetChargeBlowRateForSkill();

  01031	8b 8b a4 02 00
	00		 mov	 ecx, DWORD PTR [ebx+676]
  01037	8b 01		 mov	 eax, DWORD PTR [ecx]
  01039	ff 90 90 00 00
	00		 call	 DWORD PTR [eax+144]
  0103f	d9 5d 90	 fstp	 DWORD PTR _fCurBlowRate$601539[ebp]

; 547  : 		float fCurRangeRate = GetOwnerItem()->GetChargeRangeRateForSkill();

  01042	8b 8b a4 02 00
	00		 mov	 ecx, DWORD PTR [ebx+676]
  01048	8b 01		 mov	 eax, DWORD PTR [ecx]
  0104a	ff 90 94 00 00
	00		 call	 DWORD PTR [eax+148]
  01050	d9 5d 80	 fstp	 DWORD PTR _fCurRangeRate$601540[ebp]

; 548  : 		float fCurSpeedRate = GetOwnerItem()->GetChargeSpeedRateForSkill();

  01053	8b 8b a4 02 00
	00		 mov	 ecx, DWORD PTR [ebx+676]
  01059	8b 01		 mov	 eax, DWORD PTR [ecx]
  0105b	ff 90 98 00 00
	00		 call	 DWORD PTR [eax+152]
  01061	d9 5d c8	 fstp	 DWORD PTR _fCurSpeedRate$601541[ebp]

; 549  : 		float fCurFloatRate = GetOwnerItem()->GetChargeFloatRateForSkill();

  01064	8b 8b a4 02 00
	00		 mov	 ecx, DWORD PTR [ebx+676]
  0106a	8b 01		 mov	 eax, DWORD PTR [ecx]
  0106c	ff 90 9c 00 00
	00		 call	 DWORD PTR [eax+156]
  01072	d9 5d 88	 fstp	 DWORD PTR _fCurFloatRate$601542[ebp]

; 550  : 		float fCurScaleRate = GetOwnerItem()->GetChargeScaleRateForSkill();

  01075	8b 8b a4 02 00
	00		 mov	 ecx, DWORD PTR [ebx+676]
  0107b	8b 01		 mov	 eax, DWORD PTR [ecx]
  0107d	ff 90 a0 00 00
	00		 call	 DWORD PTR [eax+160]
  01083	d9 5d 8c	 fstp	 DWORD PTR _fCurScaleRate$601543[ebp]

; 551  : 		float fCurExplosionRate = GetOwnerItem()->GetChargeExplosionRateForSkill();

  01086	8b 8b a4 02 00
	00		 mov	 ecx, DWORD PTR [ebx+676]
  0108c	8b 01		 mov	 eax, DWORD PTR [ecx]
  0108e	ff 90 a4 00 00
	00		 call	 DWORD PTR [eax+164]
  01094	d9 5d a8	 fstp	 DWORD PTR _fCurExplosionRate$601544[ebp]

; 552  : 		float fCurWoundedTimeRate = GetOwnerItem()->GetChargeWoundedTimeRateForSkill();

  01097	8b 8b a4 02 00
	00		 mov	 ecx, DWORD PTR [ebx+676]
  0109d	8b 01		 mov	 eax, DWORD PTR [ecx]
  0109f	ff 90 a8 00 00
	00		 call	 DWORD PTR [eax+168]
  010a5	d9 5d bc	 fstp	 DWORD PTR _fCurWoundedTimeRate$601545[ebp]

; 553  : 
; 554  : 		pWeapon->SetOwnerChargeDamageRate( fCurDamageRate );

  010a8	f3 0f 10 45 c0	 movss	 xmm0, DWORD PTR _fCurDamageRate$601537[ebp]
  010ad	8b 06		 mov	 eax, DWORD PTR [esi]
  010af	51		 push	 ecx
  010b0	8b ce		 mov	 ecx, esi
  010b2	f3 0f 11 04 24	 movss	 DWORD PTR [esp], xmm0
  010b7	ff 50 0c	 call	 DWORD PTR [eax+12]

; 555  : 		pWeapon->SetOwnerChargeForceRate( fCurForceRate );

  010ba	f3 0f 10 45 a4	 movss	 xmm0, DWORD PTR _fCurForceRate$601538[ebp]
  010bf	8b 06		 mov	 eax, DWORD PTR [esi]
  010c1	51		 push	 ecx
  010c2	8b ce		 mov	 ecx, esi
  010c4	f3 0f 11 04 24	 movss	 DWORD PTR [esp], xmm0
  010c9	ff 50 10	 call	 DWORD PTR [eax+16]

; 556  : 		pWeapon->SetOwnerChargeBlowRate( fCurBlowRate );

  010cc	f3 0f 10 45 90	 movss	 xmm0, DWORD PTR _fCurBlowRate$601539[ebp]
  010d1	8b 06		 mov	 eax, DWORD PTR [esi]
  010d3	51		 push	 ecx
  010d4	8b ce		 mov	 ecx, esi
  010d6	f3 0f 11 04 24	 movss	 DWORD PTR [esp], xmm0
  010db	ff 50 1c	 call	 DWORD PTR [eax+28]

; 557  : 		pWeapon->SetOwnerChargeRangeRate( fCurRangeRate );

  010de	f3 0f 10 45 80	 movss	 xmm0, DWORD PTR _fCurRangeRate$601540[ebp]
  010e3	8b 06		 mov	 eax, DWORD PTR [esi]
  010e5	51		 push	 ecx
  010e6	8b ce		 mov	 ecx, esi
  010e8	f3 0f 11 04 24	 movss	 DWORD PTR [esp], xmm0
  010ed	ff 50 14	 call	 DWORD PTR [eax+20]

; 558  : 		pWeapon->SetOwnerChargeSpeedRate( fCurSpeedRate );

  010f0	f3 0f 10 45 c8	 movss	 xmm0, DWORD PTR _fCurSpeedRate$601541[ebp]
  010f5	8b 06		 mov	 eax, DWORD PTR [esi]
  010f7	51		 push	 ecx
  010f8	8b ce		 mov	 ecx, esi
  010fa	f3 0f 11 04 24	 movss	 DWORD PTR [esp], xmm0
  010ff	ff 50 18	 call	 DWORD PTR [eax+24]

; 559  : 		pWeapon->SetOwnerChargeFloatRate( fCurFloatRate );

  01102	f3 0f 10 45 88	 movss	 xmm0, DWORD PTR _fCurFloatRate$601542[ebp]
  01107	8b 06		 mov	 eax, DWORD PTR [esi]
  01109	51		 push	 ecx
  0110a	8b ce		 mov	 ecx, esi
  0110c	f3 0f 11 04 24	 movss	 DWORD PTR [esp], xmm0
  01111	ff 50 20	 call	 DWORD PTR [eax+32]

; 560  : 		pWeapon->SetOwnerChargeScaleRate( fCurScaleRate );

  01114	f3 0f 10 45 8c	 movss	 xmm0, DWORD PTR _fCurScaleRate$601543[ebp]
  01119	8b 06		 mov	 eax, DWORD PTR [esi]
  0111b	51		 push	 ecx
  0111c	8b ce		 mov	 ecx, esi
  0111e	f3 0f 11 04 24	 movss	 DWORD PTR [esp], xmm0
  01123	ff 50 24	 call	 DWORD PTR [eax+36]

; 561  : 		pWeapon->SetOwnerChargeExplosionRate( fCurExplosionRate );

  01126	8b 06		 mov	 eax, DWORD PTR [esi]
  01128	51		 push	 ecx
  01129	f3 0f 10 45 a8	 movss	 xmm0, DWORD PTR _fCurExplosionRate$601544[ebp]
  0112e	8b ce		 mov	 ecx, esi
  01130	f3 0f 11 04 24	 movss	 DWORD PTR [esp], xmm0
  01135	ff 50 28	 call	 DWORD PTR [eax+40]

; 562  : 		pWeapon->SetOwnerChargeWoundedTimeRate( fCurWoundedTimeRate );

  01138	f3 0f 10 45 bc	 movss	 xmm0, DWORD PTR _fCurWoundedTimeRate$601545[ebp]
  0113d	8b 06		 mov	 eax, DWORD PTR [esi]
  0113f	51		 push	 ecx
  01140	8b ce		 mov	 ecx, esi
  01142	f3 0f 11 04 24	 movss	 DWORD PTR [esp], xmm0
  01147	ff 50 2c	 call	 DWORD PTR [eax+44]
$LN7@ApplyAttri:

; 602  : 	}
; 603  : 
; 604  : 	if( pThrow )

  0114a	8b 8d 7c ff ff
	ff		 mov	 ecx, DWORD PTR _pThrow$[ebp]
  01150	85 c9		 test	 ecx, ecx
  01152	74 51		 je	 SHORT $LN1@ApplyAttri

; 605  : 	{
; 606  : 		pThrow->SetSecondAttribute( m_iSecondAttributeIndex );

  01154	ff b3 14 1b 00
	00		 push	 DWORD PTR [ebx+6932]
  0115a	e8 00 00 00 00	 call	 ?SetSecondAttribute@ioThrowReturnWeapon@@QAEXH@Z ; ioThrowReturnWeapon::SetSecondAttribute

; 607  : 
; 608  : 		ioBaseChar *pChar = pWeapon->GetOwner();

  0115f	8b 7d c4	 mov	 edi, DWORD PTR _pWeapon$GSCopy$[ebp]
  01162	8b cf		 mov	 ecx, edi
  01164	e8 00 00 00 00	 call	 ?GetOwner@ioWeapon@@QBEPAVioBaseChar@@XZ ; ioWeapon::GetOwner
  01169	8b c8		 mov	 ecx, eax

; 609  : 		if( pChar )

  0116b	85 c9		 test	 ecx, ecx
  0116d	74 36		 je	 SHORT $LN1@ApplyAttri

; 610  : 		{
; 611  : 			pWeapon->SetStartPosition( pChar->GetCharHeadPos(FLOAT1), pStage );

  0116f	b8 01 00 00 00	 mov	 eax, 1
  01174	8b 37		 mov	 esi, DWORD PTR [edi]
  01176	ff 75 84	 push	 DWORD PTR _pStage$GSCopy$[ebp]
  01179	89 85 7c ff ff
	ff		 mov	 DWORD PTR tv3564[ebp], eax
  0117f	db 85 7c ff ff
	ff		 fild	 DWORD PTR tv3564[ebp]
  01185	85 c0		 test	 eax, eax
  01187	79 06		 jns	 SHORT $LN348@ApplyAttri
  01189	d8 05 00 00 00
	00		 fadd	 DWORD PTR __real@4f800000
$LN348@ApplyAttri:
  0118f	51		 push	 ecx
  01190	8d 45 cc	 lea	 eax, DWORD PTR $T601568[ebp]
  01193	d9 1c 24	 fstp	 DWORD PTR [esp]
  01196	50		 push	 eax
  01197	e8 00 00 00 00	 call	 ?GetCharHeadPos@ioBaseChar@@QBE?AUD3DXVECTOR3@@M@Z ; ioBaseChar::GetCharHeadPos
  0119c	50		 push	 eax
  0119d	8b cf		 mov	 ecx, edi
  0119f	ff 96 bc 00 00
	00		 call	 DWORD PTR [esi+188]
$LN1@ApplyAttri:

; 612  : 		}
; 613  : 	}
; 614  : }

  011a5	8b 4d fc	 mov	 ecx, DWORD PTR __$ArrayPad$[ebp]
  011a8	5f		 pop	 edi
  011a9	5e		 pop	 esi
  011aa	33 cd		 xor	 ecx, ebp
  011ac	5b		 pop	 ebx
  011ad	e8 00 00 00 00	 call	 @__security_check_cookie@4
  011b2	c9		 leave
  011b3	c2 08 00	 ret	 8
?ApplyAttributeToWeapon@ioFullShotSkill@@UAEXPAVioWeapon@@PAVioPlayStage@@@Z ENDP ; ioFullShotSkill::ApplyAttributeToWeapon
_TEXT	ENDS
PUBLIC	?GetAttackTimeRate@ioFullShotSkill@@MBEMXZ	; ioFullShotSkill::GetAttackTimeRate
; Function compile flags: /Ogsp
;	COMDAT ?GetAttackTimeRate@ioFullShotSkill@@MBEMXZ
_TEXT	SEGMENT
tv180 = -4						; size = 4
_fTimeRate$ = -4					; size = 4
?GetAttackTimeRate@ioFullShotSkill@@MBEMXZ PROC		; ioFullShotSkill::GetAttackTimeRate, COMDAT
; _this$ = ecx

; 617  : {

  00000	55		 push	 ebp
  00001	8b ec		 mov	 ebp, esp
  00003	51		 push	 ecx
  00004	56		 push	 esi
  00005	8b f1		 mov	 esi, ecx

; 618  : 	float fTimeRate = GetAttributeConst().m_fAttackAniRate;

  00007	8b 06		 mov	 eax, DWORD PTR [esi]
  00009	ff 90 a8 01 00
	00		 call	 DWORD PTR [eax+424]
  0000f	f3 0f 10 40 10	 movss	 xmm0, DWORD PTR [eax+16]

; 619  : 	ioFireWeaponItem *pFire = ToFireWeaponItem( GetOwnerItem() );

  00014	ff b6 a4 02 00
	00		 push	 DWORD PTR [esi+676]
  0001a	f3 0f 11 45 fc	 movss	 DWORD PTR _fTimeRate$[ebp], xmm0
  0001f	e8 00 00 00 00	 call	 ?ToFireWeaponItem@@YAPAVioFireWeaponItem@@PAVioItem@@@Z ; ToFireWeaponItem
  00024	59		 pop	 ecx

; 620  : 	if( pFire )

  00025	85 c0		 test	 eax, eax
  00027	74 20		 je	 SHORT $LN1@GetAttackT

; 621  : 	{
; 622  : 		fTimeRate *= pFire->GetFireTimeModifyRate();

  00029	f3 0f 10 4d fc	 movss	 xmm1, DWORD PTR _fTimeRate$[ebp]
  0002e	f3 0f 10 80 e0
	1b 00 00	 movss	 xmm0, DWORD PTR [eax+7136]
  00036	0f 5a c0	 cvtps2pd xmm0, xmm0
  00039	0f 5a c9	 cvtps2pd xmm1, xmm1
  0003c	f2 0f 59 c1	 mulsd	 xmm0, xmm1
  00040	66 0f 5a c0	 cvtpd2ps xmm0, xmm0
  00044	f3 0f 11 45 fc	 movss	 DWORD PTR _fTimeRate$[ebp], xmm0
$LN1@GetAttackT:

; 623  : 	}
; 624  : 
; 625  : 	fTimeRate *= m_fExtraAniRate;
; 626  : 
; 627  : 	return fTimeRate;

  00049	d9 86 68 03 00
	00		 fld	 DWORD PTR [esi+872]
  0004f	5e		 pop	 esi
  00050	d8 4d fc	 fmul	 DWORD PTR _fTimeRate$[ebp]
  00053	d9 5d fc	 fstp	 DWORD PTR tv180[ebp]
  00056	d9 45 fc	 fld	 DWORD PTR tv180[ebp]

; 628  : }

  00059	c9		 leave
  0005a	c3		 ret	 0
?GetAttackTimeRate@ioFullShotSkill@@MBEMXZ ENDP		; ioFullShotSkill::GetAttackTimeRate
_TEXT	ENDS
PUBLIC	?GetAttackEndTimeRate@ioFullShotSkill@@MBEMXZ	; ioFullShotSkill::GetAttackEndTimeRate
; Function compile flags: /Ogsp
;	COMDAT ?GetAttackEndTimeRate@ioFullShotSkill@@MBEMXZ
_TEXT	SEGMENT
_fTimeRate$ = -4					; size = 4
?GetAttackEndTimeRate@ioFullShotSkill@@MBEMXZ PROC	; ioFullShotSkill::GetAttackEndTimeRate, COMDAT
; _this$ = ecx

; 631  : {

  00000	55		 push	 ebp
  00001	8b ec		 mov	 ebp, esp
  00003	51		 push	 ecx
  00004	56		 push	 esi
  00005	8b f1		 mov	 esi, ecx

; 632  : 	float fTimeRate = GetAttributeConst().m_fAttackEndAniRate;

  00007	8b 06		 mov	 eax, DWORD PTR [esi]
  00009	ff 90 a8 01 00
	00		 call	 DWORD PTR [eax+424]
  0000f	f3 0f 10 40 24	 movss	 xmm0, DWORD PTR [eax+36]

; 633  : 	ioFireWeaponItem *pFire = ToFireWeaponItem( GetOwnerItem() );

  00014	ff b6 a4 02 00
	00		 push	 DWORD PTR [esi+676]
  0001a	f3 0f 11 45 fc	 movss	 DWORD PTR _fTimeRate$[ebp], xmm0
  0001f	e8 00 00 00 00	 call	 ?ToFireWeaponItem@@YAPAVioFireWeaponItem@@PAVioItem@@@Z ; ToFireWeaponItem
  00024	59		 pop	 ecx
  00025	5e		 pop	 esi

; 634  : 	if( pFire )

  00026	85 c0		 test	 eax, eax
  00028	74 20		 je	 SHORT $LN1@GetAttackE

; 635  : 	{
; 636  : 		fTimeRate *= pFire->GetFireTimeModifyRate();

  0002a	f3 0f 10 4d fc	 movss	 xmm1, DWORD PTR _fTimeRate$[ebp]
  0002f	f3 0f 10 80 e0
	1b 00 00	 movss	 xmm0, DWORD PTR [eax+7136]
  00037	0f 5a c0	 cvtps2pd xmm0, xmm0
  0003a	0f 5a c9	 cvtps2pd xmm1, xmm1
  0003d	f2 0f 59 c1	 mulsd	 xmm0, xmm1
  00041	66 0f 5a c0	 cvtpd2ps xmm0, xmm0
  00045	f3 0f 11 45 fc	 movss	 DWORD PTR _fTimeRate$[ebp], xmm0
$LN1@GetAttackE:

; 637  : 	}
; 638  : 
; 639  : 	return fTimeRate;

  0004a	d9 45 fc	 fld	 DWORD PTR _fTimeRate$[ebp]

; 640  : }

  0004d	c9		 leave
  0004e	c3		 ret	 0
?GetAttackEndTimeRate@ioFullShotSkill@@MBEMXZ ENDP	; ioFullShotSkill::GetAttackEndTimeRate
_TEXT	ENDS
PUBLIC	?OnSkillEnd@ioFullShotSkill@@UAEXPAVioBaseChar@@@Z ; ioFullShotSkill::OnSkillEnd
EXTRN	?RestoreSkillWeaponMesh@ioBaseChar@@QAE_NPAVioSkill@@ABVioHashString@@_N2@Z:PROC ; ioBaseChar::RestoreSkillWeaponMesh
EXTRN	?ShowWeaponItemMesh@ioBaseChar@@QAEX_N0@Z:PROC	; ioBaseChar::ShowWeaponItemMesh
EXTRN	?OnSkillEnd@ioAttackSkill@@UAEXPAVioBaseChar@@@Z:PROC ; ioAttackSkill::OnSkillEnd
EXTRN	?SetAimedDirSet@ioBowItem@@QAEX_N@Z:PROC	; ioBowItem::SetAimedDirSet
EXTRN	?SetAimedSkillUse@ioBowItem@@QAEX_N@Z:PROC	; ioBowItem::SetAimedSkillUse
EXTRN	?SetAimedDirSet@ioFireWeaponItem@@QAEX_N@Z:PROC	; ioFireWeaponItem::SetAimedDirSet
EXTRN	?SetAimedSkillUse@ioFireWeaponItem@@QAEX_N@Z:PROC ; ioFireWeaponItem::SetAimedSkillUse
; Function compile flags: /Ogsp
;	COMDAT ?OnSkillEnd@ioFullShotSkill@@UAEXPAVioBaseChar@@@Z
_TEXT	SEGMENT
$T601593 = -16						; size = 12
_pBow$ = -4						; size = 4
_pChar$ = 8						; size = 4
?OnSkillEnd@ioFullShotSkill@@UAEXPAVioBaseChar@@@Z PROC	; ioFullShotSkill::OnSkillEnd, COMDAT
; _this$ = ecx

; 643  : {

  00000	55		 push	 ebp
  00001	8b ec		 mov	 ebp, esp
  00003	83 ec 10	 sub	 esp, 16			; 00000010H
  00006	53		 push	 ebx
  00007	56		 push	 esi
  00008	8b d9		 mov	 ebx, ecx
  0000a	57		 push	 edi

; 644  : 	ioFireWeaponItem *pFire = ToFireWeaponItem( GetOwnerItem() );

  0000b	ff b3 a4 02 00
	00		 push	 DWORD PTR [ebx+676]
  00011	e8 00 00 00 00	 call	 ?ToFireWeaponItem@@YAPAVioFireWeaponItem@@PAVioItem@@@Z ; ToFireWeaponItem

; 645  : 	ioLaserItem *pLaser = ToLaserItem( GetOwnerItem() );

  00016	ff b3 a4 02 00
	00		 push	 DWORD PTR [ebx+676]
  0001c	8b f8		 mov	 edi, eax
  0001e	e8 00 00 00 00	 call	 ?ToLaserItem@@YAPAVioLaserItem@@PAVioItem@@@Z ; ToLaserItem

; 646  : 	ioBowItem *pBow = ToBowItem( GetOwnerItem() );

  00023	ff b3 a4 02 00
	00		 push	 DWORD PTR [ebx+676]
  00029	8b f0		 mov	 esi, eax
  0002b	e8 00 00 00 00	 call	 ?ToBowItem@@YAPAVioBowItem@@PAVioItem@@@Z ; ToBowItem
  00030	8b c8		 mov	 ecx, eax

; 647  : 	if( pFire )

  00032	33 c0		 xor	 eax, eax
  00034	83 c4 0c	 add	 esp, 12			; 0000000cH
  00037	89 4d fc	 mov	 DWORD PTR _pBow$[ebp], ecx
  0003a	3b f8		 cmp	 edi, eax
  0003c	74 13		 je	 SHORT $LN8@OnSkillEnd

; 648  : 	{
; 649  : 		pFire->SetAimedSkillUse( false );

  0003e	50		 push	 eax
  0003f	8b cf		 mov	 ecx, edi
  00041	e8 00 00 00 00	 call	 ?SetAimedSkillUse@ioFireWeaponItem@@QAEX_N@Z ; ioFireWeaponItem::SetAimedSkillUse

; 650  : 		pFire->SetAimedDirSet( false );

  00046	6a 00		 push	 0
  00048	8b cf		 mov	 ecx, edi
  0004a	e8 00 00 00 00	 call	 ?SetAimedDirSet@ioFireWeaponItem@@QAEX_N@Z ; ioFireWeaponItem::SetAimedDirSet
  0004f	eb 28		 jmp	 SHORT $LN4@OnSkillEnd
$LN8@OnSkillEnd:

; 651  : 	}
; 652  : 	else if( pLaser )

  00051	3b f0		 cmp	 esi, eax
  00053	74 10		 je	 SHORT $LN6@OnSkillEnd

; 653  : 	{
; 654  : 		pLaser->SetNoneState( pChar );

  00055	8b 16		 mov	 edx, DWORD PTR [esi]
  00057	50		 push	 eax
  00058	ff 75 08	 push	 DWORD PTR _pChar$[ebp]
  0005b	8b ce		 mov	 ecx, esi
  0005d	ff 92 4c 01 00
	00		 call	 DWORD PTR [edx+332]
  00063	eb 14		 jmp	 SHORT $LN4@OnSkillEnd
$LN6@OnSkillEnd:

; 655  : 	}
; 656  : 	else if( pBow )

  00065	3b c8		 cmp	 ecx, eax
  00067	74 10		 je	 SHORT $LN4@OnSkillEnd

; 657  : 	{
; 658  : 		pBow->SetAimedSkillUse( false );

  00069	50		 push	 eax
  0006a	e8 00 00 00 00	 call	 ?SetAimedSkillUse@ioBowItem@@QAEX_N@Z ; ioBowItem::SetAimedSkillUse

; 659  : 		pBow->SetAimedDirSet( false );

  0006f	8b 4d fc	 mov	 ecx, DWORD PTR _pBow$[ebp]
  00072	6a 00		 push	 0
  00074	e8 00 00 00 00	 call	 ?SetAimedDirSet@ioBowItem@@QAEX_N@Z ; ioBowItem::SetAimedDirSet
$LN4@OnSkillEnd:

; 660  : 	}
; 661  : 	m_vSkillDir = D3DXVECTOR3( 0.0f, 0.0f, 0.0f );

  00079	0f 57 c0	 xorps	 xmm0, xmm0

; 662  : 
; 663  : 	ioAttackSkill::OnSkillEnd( pChar );

  0007c	ff 75 08	 push	 DWORD PTR _pChar$[ebp]
  0007f	f3 0f 11 45 f0	 movss	 DWORD PTR $T601593[ebp], xmm0
  00084	f3 0f 11 45 f4	 movss	 DWORD PTR $T601593[ebp+4], xmm0
  00089	f3 0f 11 45 f8	 movss	 DWORD PTR $T601593[ebp+8], xmm0
  0008e	8d bb e4 10 00
	00		 lea	 edi, DWORD PTR [ebx+4324]
  00094	8d 75 f0	 lea	 esi, DWORD PTR $T601593[ebp]
  00097	a5		 movsd
  00098	a5		 movsd
  00099	8b cb		 mov	 ecx, ebx
  0009b	a5		 movsd
  0009c	e8 00 00 00 00	 call	 ?OnSkillEnd@ioAttackSkill@@UAEXPAVioBaseChar@@@Z ; ioAttackSkill::OnSkillEnd

; 664  : 
; 665  : 	if( GetOwnerItem() )

  000a1	8b 8b a4 02 00
	00		 mov	 ecx, DWORD PTR [ebx+676]
  000a7	85 c9		 test	 ecx, ecx
  000a9	74 08		 je	 SHORT $LN3@OnSkillEnd

; 666  : 		GetOwnerItem()->ClearCurChargeRateForSkill();

  000ab	8b 01		 mov	 eax, DWORD PTR [ecx]
  000ad	ff 90 84 00 00
	00		 call	 DWORD PTR [eax+132]
$LN3@OnSkillEnd:

; 667  : 
; 668  : 	// 기본무기 장착
; 669  : 	if( m_bUseItemMesh )

  000b3	80 bb 08 0f 00
	00 00		 cmp	 BYTE PTR [ebx+3848], 0
  000ba	74 0c		 je	 SHORT $LN2@OnSkillEnd

; 670  : 	{
; 671  : 		pChar->ShowWeaponItemMesh( true );

  000bc	8b 4d 08	 mov	 ecx, DWORD PTR _pChar$[ebp]
  000bf	6a 00		 push	 0
  000c1	6a 01		 push	 1
  000c3	e8 00 00 00 00	 call	 ?ShowWeaponItemMesh@ioBaseChar@@QAEX_N0@Z ; ioBaseChar::ShowWeaponItemMesh
$LN2@OnSkillEnd:

; 672  : 	}
; 673  : 
; 674  : 	if( !m_HandMesh.IsEmpty() )

  000c8	8d b3 f8 0e 00
	00		 lea	 esi, DWORD PTR [ebx+3832]
  000ce	8b ce		 mov	 ecx, esi
  000d0	ff 15 00 00 00
	00		 call	 DWORD PTR __imp_?IsEmpty@ioHashString@@QBE_NXZ
  000d6	84 c0		 test	 al, al
  000d8	75 14		 jne	 SHORT $LN1@OnSkillEnd

; 675  : 	{
; 676  : 		pChar->RestoreSkillWeaponMesh( this, m_HandMesh, m_bVisibleEquipMesh );

  000da	0f b6 83 09 0f
	00 00		 movzx	 eax, BYTE PTR [ebx+3849]
  000e1	8b 4d 08	 mov	 ecx, DWORD PTR _pChar$[ebp]
  000e4	6a 00		 push	 0
  000e6	50		 push	 eax
  000e7	56		 push	 esi
  000e8	53		 push	 ebx
  000e9	e8 00 00 00 00	 call	 ?RestoreSkillWeaponMesh@ioBaseChar@@QAE_NPAVioSkill@@ABVioHashString@@_N2@Z ; ioBaseChar::RestoreSkillWeaponMesh
$LN1@OnSkillEnd:

; 677  : 	}
; 678  : 	m_bSetHandMesh = false;

  000ee	5f		 pop	 edi
  000ef	5e		 pop	 esi
  000f0	c6 83 0a 0f 00
	00 00		 mov	 BYTE PTR [ebx+3850], 0
  000f7	5b		 pop	 ebx

; 679  : }

  000f8	c9		 leave
  000f9	c2 04 00	 ret	 4
?OnSkillEnd@ioFullShotSkill@@UAEXPAVioBaseChar@@@Z ENDP	; ioFullShotSkill::OnSkillEnd
_TEXT	ENDS
PUBLIC	?IsUseAutoTargetValue@ioFullShotSkill@@UAE_NXZ	; ioFullShotSkill::IsUseAutoTargetValue
EXTRN	?IsAimedState@ioBowItem@@QAE_NXZ:PROC		; ioBowItem::IsAimedState
EXTRN	?IsAimedState@ioLaserItem@@QAE_NXZ:PROC		; ioLaserItem::IsAimedState
EXTRN	?IsAimedState@ioFireWeaponItem@@QAE_NXZ:PROC	; ioFireWeaponItem::IsAimedState
; Function compile flags: /Ogsp
;	COMDAT ?IsUseAutoTargetValue@ioFullShotSkill@@UAE_NXZ
_TEXT	SEGMENT
_bResult$ = -1						; size = 1
?IsUseAutoTargetValue@ioFullShotSkill@@UAE_NXZ PROC	; ioFullShotSkill::IsUseAutoTargetValue, COMDAT
; _this$ = ecx

; 682  : {

  00000	55		 push	 ebp
  00001	8b ec		 mov	 ebp, esp
  00003	51		 push	 ecx
  00004	56		 push	 esi
  00005	8b f1		 mov	 esi, ecx

; 683  : 	if( !m_bUseAutoTargetValue )

  00007	80 be e0 02 00
	00 00		 cmp	 BYTE PTR [esi+736], 0
  0000e	75 07		 jne	 SHORT $LN9@IsUseAutoT

; 684  : 		return false;

  00010	32 c0		 xor	 al, al
  00012	e9 81 00 00 00	 jmp	 $LN10@IsUseAutoT
$LN9@IsUseAutoT:
  00017	53		 push	 ebx
  00018	57		 push	 edi

; 685  : 
; 686  : 	bool bResult = true;
; 687  : 
; 688  : 	ioFireWeaponItem *pFire = ToFireWeaponItem( GetOwnerItem() );

  00019	ff b6 a4 02 00
	00		 push	 DWORD PTR [esi+676]
  0001f	c6 45 ff 01	 mov	 BYTE PTR _bResult$[ebp], 1
  00023	e8 00 00 00 00	 call	 ?ToFireWeaponItem@@YAPAVioFireWeaponItem@@PAVioItem@@@Z ; ToFireWeaponItem

; 689  : 	ioLaserItem *pLaser = ToLaserItem( GetOwnerItem() );

  00028	ff b6 a4 02 00
	00		 push	 DWORD PTR [esi+676]
  0002e	8b f8		 mov	 edi, eax
  00030	e8 00 00 00 00	 call	 ?ToLaserItem@@YAPAVioLaserItem@@PAVioItem@@@Z ; ToLaserItem

; 690  : 	ioBowItem *pBow = ToBowItem( GetOwnerItem() );

  00035	ff b6 a4 02 00
	00		 push	 DWORD PTR [esi+676]
  0003b	8b d8		 mov	 ebx, eax
  0003d	e8 00 00 00 00	 call	 ?ToBowItem@@YAPAVioBowItem@@PAVioItem@@@Z ; ToBowItem
  00042	83 c4 0c	 add	 esp, 12			; 0000000cH
  00045	8b f0		 mov	 esi, eax

; 691  : 	if( pFire )

  00047	85 ff		 test	 edi, edi
  00049	74 14		 je	 SHORT $LN8@IsUseAutoT

; 692  : 	{
; 693  : 		if( pFire->IsAimedState() && pFire->GetAimedDirSet() )

  0004b	8b cf		 mov	 ecx, edi
  0004d	e8 00 00 00 00	 call	 ?IsAimedState@ioFireWeaponItem@@QAE_NXZ ; ioFireWeaponItem::IsAimedState
  00052	84 c0		 test	 al, al
  00054	74 3d		 je	 SHORT $LN24@IsUseAutoT
  00056	80 bf ed 1c 00
	00 00		 cmp	 BYTE PTR [edi+7405], 0

; 694  : 		{
; 695  : 			bResult = false;
; 696  : 		}
; 697  : 	}

  0005d	eb 2e		 jmp	 SHORT $LN25@IsUseAutoT
$LN8@IsUseAutoT:

; 698  : 	else if( pLaser )

  0005f	85 db		 test	 ebx, ebx
  00061	74 14		 je	 SHORT $LN5@IsUseAutoT

; 699  : 	{
; 700  : 		if( pLaser->IsAimedState() && pLaser->GetAimedDirSet() )

  00063	8b cb		 mov	 ecx, ebx
  00065	e8 00 00 00 00	 call	 ?IsAimedState@ioLaserItem@@QAE_NXZ ; ioLaserItem::IsAimedState
  0006a	84 c0		 test	 al, al
  0006c	74 25		 je	 SHORT $LN24@IsUseAutoT
  0006e	80 bb 4d 1c 00
	00 00		 cmp	 BYTE PTR [ebx+7245], 0

; 701  : 			bResult = false;
; 702  : 	}

  00075	eb 16		 jmp	 SHORT $LN25@IsUseAutoT
$LN5@IsUseAutoT:

; 703  : 	else if( pBow )

  00077	85 f6		 test	 esi, esi
  00079	74 18		 je	 SHORT $LN24@IsUseAutoT

; 704  : 	{
; 705  : 		if( pBow->IsAimedState() && pBow->GetAimedDirSet() )

  0007b	8b ce		 mov	 ecx, esi
  0007d	e8 00 00 00 00	 call	 ?IsAimedState@ioBowItem@@QAE_NXZ ; ioBowItem::IsAimedState
  00082	84 c0		 test	 al, al
  00084	74 0d		 je	 SHORT $LN24@IsUseAutoT
  00086	80 be 8d 1c 00
	00 00		 cmp	 BYTE PTR [esi+7309], 0
$LN25@IsUseAutoT:
  0008d	74 04		 je	 SHORT $LN24@IsUseAutoT

; 706  : 			bResult = false;

  0008f	c6 45 ff 00	 mov	 BYTE PTR _bResult$[ebp], 0
$LN24@IsUseAutoT:

; 707  : 	}
; 708  : 
; 709  : 	return bResult;

  00093	8a 45 ff	 mov	 al, BYTE PTR _bResult$[ebp]
  00096	5f		 pop	 edi
  00097	5b		 pop	 ebx
$LN10@IsUseAutoT:
  00098	5e		 pop	 esi

; 710  : }

  00099	c9		 leave
  0009a	c3		 ret	 0
?IsUseAutoTargetValue@ioFullShotSkill@@UAE_NXZ ENDP	; ioFullShotSkill::IsUseAutoTargetValue
_TEXT	ENDS
PUBLIC	?begin@?$vector@UBulletInfo@@V?$allocator@UBulletInfo@@@std@@@std@@QAE?AV?$_Vector_iterator@V?$_Vector_val@UBulletInfo@@V?$allocator@UBulletInfo@@@std@@@std@@@2@XZ ; std::vector<BulletInfo,std::allocator<BulletInfo> >::begin
; Function compile flags: /Ogsp
; File c:\program files (x86)\microsoft visual studio 10.0\vc\include\vector
;	COMDAT ?begin@?$vector@UBulletInfo@@V?$allocator@UBulletInfo@@@std@@@std@@QAE?AV?$_Vector_iterator@V?$_Vector_val@UBulletInfo@@V?$allocator@UBulletInfo@@@std@@@std@@@2@XZ
_TEXT	SEGMENT
___$ReturnUdt$ = 8					; size = 4
?begin@?$vector@UBulletInfo@@V?$allocator@UBulletInfo@@@std@@@std@@QAE?AV?$_Vector_iterator@V?$_Vector_val@UBulletInfo@@V?$allocator@UBulletInfo@@@std@@@std@@@2@XZ PROC ; std::vector<BulletInfo,std::allocator<BulletInfo> >::begin, COMDAT
; _this$ = ecx

; 781  : 		{	// return iterator for beginning of mutable sequence

  00000	55		 push	 ebp
  00001	8b ec		 mov	 ebp, esp

; 782  : 		return (iterator(this->_Myfirst, this));

  00003	8b 09		 mov	 ecx, DWORD PTR [ecx]
  00005	8b 45 08	 mov	 eax, DWORD PTR ___$ReturnUdt$[ebp]
  00008	89 08		 mov	 DWORD PTR [eax], ecx

; 783  : 		}

  0000a	5d		 pop	 ebp
  0000b	c2 04 00	 ret	 4
?begin@?$vector@UBulletInfo@@V?$allocator@UBulletInfo@@@std@@@std@@QAE?AV?$_Vector_iterator@V?$_Vector_val@UBulletInfo@@V?$allocator@UBulletInfo@@@std@@@std@@@2@XZ ENDP ; std::vector<BulletInfo,std::allocator<BulletInfo> >::begin
_TEXT	ENDS
PUBLIC	?begin@?$vector@UBulletInfo@@V?$allocator@UBulletInfo@@@std@@@std@@QBE?AV?$_Vector_const_iterator@V?$_Vector_val@UBulletInfo@@V?$allocator@UBulletInfo@@@std@@@std@@@2@XZ ; std::vector<BulletInfo,std::allocator<BulletInfo> >::begin
; Function compile flags: /Ogsp
;	COMDAT ?begin@?$vector@UBulletInfo@@V?$allocator@UBulletInfo@@@std@@@std@@QBE?AV?$_Vector_const_iterator@V?$_Vector_val@UBulletInfo@@V?$allocator@UBulletInfo@@@std@@@std@@@2@XZ
_TEXT	SEGMENT
___$ReturnUdt$ = 8					; size = 4
?begin@?$vector@UBulletInfo@@V?$allocator@UBulletInfo@@@std@@@std@@QBE?AV?$_Vector_const_iterator@V?$_Vector_val@UBulletInfo@@V?$allocator@UBulletInfo@@@std@@@std@@@2@XZ PROC ; std::vector<BulletInfo,std::allocator<BulletInfo> >::begin, COMDAT
; _this$ = ecx

; 786  : 		{	// return iterator for beginning of nonmutable sequence

  00000	55		 push	 ebp
  00001	8b ec		 mov	 ebp, esp

; 787  : 		return (const_iterator(this->_Myfirst, this));

  00003	8b 09		 mov	 ecx, DWORD PTR [ecx]
  00005	8b 45 08	 mov	 eax, DWORD PTR ___$ReturnUdt$[ebp]
  00008	89 08		 mov	 DWORD PTR [eax], ecx

; 788  : 		}

  0000a	5d		 pop	 ebp
  0000b	c2 04 00	 ret	 4
?begin@?$vector@UBulletInfo@@V?$allocator@UBulletInfo@@@std@@@std@@QBE?AV?$_Vector_const_iterator@V?$_Vector_val@UBulletInfo@@V?$allocator@UBulletInfo@@@std@@@std@@@2@XZ ENDP ; std::vector<BulletInfo,std::allocator<BulletInfo> >::begin
_TEXT	ENDS
PUBLIC	?end@?$vector@UBulletInfo@@V?$allocator@UBulletInfo@@@std@@@std@@QAE?AV?$_Vector_iterator@V?$_Vector_val@UBulletInfo@@V?$allocator@UBulletInfo@@@std@@@std@@@2@XZ ; std::vector<BulletInfo,std::allocator<BulletInfo> >::end
; Function compile flags: /Ogsp
;	COMDAT ?end@?$vector@UBulletInfo@@V?$allocator@UBulletInfo@@@std@@@std@@QAE?AV?$_Vector_iterator@V?$_Vector_val@UBulletInfo@@V?$allocator@UBulletInfo@@@std@@@std@@@2@XZ
_TEXT	SEGMENT
___$ReturnUdt$ = 8					; size = 4
?end@?$vector@UBulletInfo@@V?$allocator@UBulletInfo@@@std@@@std@@QAE?AV?$_Vector_iterator@V?$_Vector_val@UBulletInfo@@V?$allocator@UBulletInfo@@@std@@@std@@@2@XZ PROC ; std::vector<BulletInfo,std::allocator<BulletInfo> >::end, COMDAT
; _this$ = ecx

; 791  : 		{	// return iterator for end of mutable sequence

  00000	55		 push	 ebp
  00001	8b ec		 mov	 ebp, esp

; 792  : 		return (iterator(this->_Mylast, this));

  00003	8b 49 04	 mov	 ecx, DWORD PTR [ecx+4]
  00006	8b 45 08	 mov	 eax, DWORD PTR ___$ReturnUdt$[ebp]
  00009	89 08		 mov	 DWORD PTR [eax], ecx

; 793  : 		}

  0000b	5d		 pop	 ebp
  0000c	c2 04 00	 ret	 4
?end@?$vector@UBulletInfo@@V?$allocator@UBulletInfo@@@std@@@std@@QAE?AV?$_Vector_iterator@V?$_Vector_val@UBulletInfo@@V?$allocator@UBulletInfo@@@std@@@std@@@2@XZ ENDP ; std::vector<BulletInfo,std::allocator<BulletInfo> >::end
_TEXT	ENDS
PUBLIC	?end@?$vector@UBulletInfo@@V?$allocator@UBulletInfo@@@std@@@std@@QBE?AV?$_Vector_const_iterator@V?$_Vector_val@UBulletInfo@@V?$allocator@UBulletInfo@@@std@@@std@@@2@XZ ; std::vector<BulletInfo,std::allocator<BulletInfo> >::end
; Function compile flags: /Ogsp
;	COMDAT ?end@?$vector@UBulletInfo@@V?$allocator@UBulletInfo@@@std@@@std@@QBE?AV?$_Vector_const_iterator@V?$_Vector_val@UBulletInfo@@V?$allocator@UBulletInfo@@@std@@@std@@@2@XZ
_TEXT	SEGMENT
___$ReturnUdt$ = 8					; size = 4
?end@?$vector@UBulletInfo@@V?$allocator@UBulletInfo@@@std@@@std@@QBE?AV?$_Vector_const_iterator@V?$_Vector_val@UBulletInfo@@V?$allocator@UBulletInfo@@@std@@@std@@@2@XZ PROC ; std::vector<BulletInfo,std::allocator<BulletInfo> >::end, COMDAT
; _this$ = ecx

; 796  : 		{	// return iterator for end of nonmutable sequence

  00000	55		 push	 ebp
  00001	8b ec		 mov	 ebp, esp

; 797  : 		return (const_iterator(this->_Mylast, this));

  00003	8b 49 04	 mov	 ecx, DWORD PTR [ecx+4]
  00006	8b 45 08	 mov	 eax, DWORD PTR ___$ReturnUdt$[ebp]
  00009	89 08		 mov	 DWORD PTR [eax], ecx

; 798  : 		}

  0000b	5d		 pop	 ebp
  0000c	c2 04 00	 ret	 4
?end@?$vector@UBulletInfo@@V?$allocator@UBulletInfo@@@std@@@std@@QBE?AV?$_Vector_const_iterator@V?$_Vector_val@UBulletInfo@@V?$allocator@UBulletInfo@@@std@@@std@@@2@XZ ENDP ; std::vector<BulletInfo,std::allocator<BulletInfo> >::end
_TEXT	ENDS
PUBLIC	??0?$_Vector_val@UBulletInfo@@V?$allocator@UBulletInfo@@@std@@@std@@QAE@V?$allocator@UBulletInfo@@@1@@Z ; std::_Vector_val<BulletInfo,std::allocator<BulletInfo> >::_Vector_val<BulletInfo,std::allocator<BulletInfo> >
; Function compile flags: /Ogsp
;	COMDAT ??0?$_Vector_val@UBulletInfo@@V?$allocator@UBulletInfo@@@std@@@std@@QAE@V?$allocator@UBulletInfo@@@1@@Z
_TEXT	SEGMENT
__Al$ = 8						; size = 1
??0?$_Vector_val@UBulletInfo@@V?$allocator@UBulletInfo@@@std@@@std@@QAE@V?$allocator@UBulletInfo@@@1@@Z PROC ; std::_Vector_val<BulletInfo,std::allocator<BulletInfo> >::_Vector_val<BulletInfo,std::allocator<BulletInfo> >, COMDAT
; _this$ = ecx

; 426  : 		{	// construct allocator from _Al

  00000	8b c1		 mov	 eax, ecx

; 427  : 		_Myfirst = 0;

  00002	33 c9		 xor	 ecx, ecx
  00004	89 08		 mov	 DWORD PTR [eax], ecx

; 428  : 		_Mylast = 0;

  00006	89 48 04	 mov	 DWORD PTR [eax+4], ecx

; 429  : 		_Myend = 0;

  00009	89 48 08	 mov	 DWORD PTR [eax+8], ecx

; 430  : 		}

  0000c	c2 04 00	 ret	 4
??0?$_Vector_val@UBulletInfo@@V?$allocator@UBulletInfo@@@std@@@std@@QAE@V?$allocator@UBulletInfo@@@1@@Z ENDP ; std::_Vector_val<BulletInfo,std::allocator<BulletInfo> >::_Vector_val<BulletInfo,std::allocator<BulletInfo> >
_TEXT	ENDS
PUBLIC	?_Make_iter@?$vector@UBulletInfo@@V?$allocator@UBulletInfo@@@std@@@std@@QBE?AV?$_Vector_iterator@V?$_Vector_val@UBulletInfo@@V?$allocator@UBulletInfo@@@std@@@std@@@2@V?$_Vector_const_iterator@V?$_Vector_val@UBulletInfo@@V?$allocator@UBulletInfo@@@std@@@std@@@2@@Z ; std::vector<BulletInfo,std::allocator<BulletInfo> >::_Make_iter
; Function compile flags: /Ogsp
;	COMDAT ?_Make_iter@?$vector@UBulletInfo@@V?$allocator@UBulletInfo@@@std@@@std@@QBE?AV?$_Vector_iterator@V?$_Vector_val@UBulletInfo@@V?$allocator@UBulletInfo@@@std@@@std@@@2@V?$_Vector_const_iterator@V?$_Vector_val@UBulletInfo@@V?$allocator@UBulletInfo@@@std@@@std@@@2@@Z
_TEXT	SEGMENT
___$ReturnUdt$ = 8					; size = 4
__Where$ = 12						; size = 4
?_Make_iter@?$vector@UBulletInfo@@V?$allocator@UBulletInfo@@@std@@@std@@QBE?AV?$_Vector_iterator@V?$_Vector_val@UBulletInfo@@V?$allocator@UBulletInfo@@@std@@@std@@@2@V?$_Vector_const_iterator@V?$_Vector_val@UBulletInfo@@V?$allocator@UBulletInfo@@@std@@@std@@@2@@Z PROC ; std::vector<BulletInfo,std::allocator<BulletInfo> >::_Make_iter, COMDAT
; _this$ = ecx

; 801  : 		{	// make iterator from const_iterator

  00000	55		 push	 ebp
  00001	8b ec		 mov	 ebp, esp

; 802  : 		return (iterator(_Where._Ptr, this));

  00003	8b 45 08	 mov	 eax, DWORD PTR ___$ReturnUdt$[ebp]
  00006	8b 4d 0c	 mov	 ecx, DWORD PTR __Where$[ebp]
  00009	89 08		 mov	 DWORD PTR [eax], ecx

; 803  : 		}

  0000b	5d		 pop	 ebp
  0000c	c2 08 00	 ret	 8
?_Make_iter@?$vector@UBulletInfo@@V?$allocator@UBulletInfo@@@std@@@std@@QBE?AV?$_Vector_iterator@V?$_Vector_val@UBulletInfo@@V?$allocator@UBulletInfo@@@std@@@std@@@2@V?$_Vector_const_iterator@V?$_Vector_val@UBulletInfo@@V?$allocator@UBulletInfo@@@std@@@std@@@2@@Z ENDP ; std::vector<BulletInfo,std::allocator<BulletInfo> >::_Make_iter
_TEXT	ENDS
PUBLIC	?max_size@?$vector@UBulletInfo@@V?$allocator@UBulletInfo@@@std@@@std@@QBEIXZ ; std::vector<BulletInfo,std::allocator<BulletInfo> >::max_size
; Function compile flags: /Ogsp
;	COMDAT ?max_size@?$vector@UBulletInfo@@V?$allocator@UBulletInfo@@@std@@@std@@QBEIXZ
_TEXT	SEGMENT
?max_size@?$vector@UBulletInfo@@V?$allocator@UBulletInfo@@@std@@@std@@QBEIXZ PROC ; std::vector<BulletInfo,std::allocator<BulletInfo> >::max_size, COMDAT
; _this$ = ecx

; 884  : 		return (this->_Alval.max_size());

  00000	b8 cc cc cc 0c	 mov	 eax, 214748364		; 0cccccccH

; 885  : 		}

  00005	c3		 ret	 0
?max_size@?$vector@UBulletInfo@@V?$allocator@UBulletInfo@@@std@@@std@@QBEIXZ ENDP ; std::vector<BulletInfo,std::allocator<BulletInfo> >::max_size
_TEXT	ENDS
PUBLIC	?_Grow_to@?$vector@UBulletInfo@@V?$allocator@UBulletInfo@@@std@@@std@@IBEII@Z ; std::vector<BulletInfo,std::allocator<BulletInfo> >::_Grow_to
; Function compile flags: /Ogsp
;	COMDAT ?_Grow_to@?$vector@UBulletInfo@@V?$allocator@UBulletInfo@@@std@@@std@@IBEII@Z
_TEXT	SEGMENT
__Count$ = 8						; size = 4
?_Grow_to@?$vector@UBulletInfo@@V?$allocator@UBulletInfo@@@std@@@std@@IBEII@Z PROC ; std::vector<BulletInfo,std::allocator<BulletInfo> >::_Grow_to, COMDAT
; _this$ = ecx

; 1274 : 		{	// grow by 50% or at least to _Count

  00000	55		 push	 ebp
  00001	8b ec		 mov	 ebp, esp

; 1275 : 		size_type _Capacity = capacity();

  00003	8b 41 08	 mov	 eax, DWORD PTR [ecx+8]
  00006	2b 01		 sub	 eax, DWORD PTR [ecx]
  00008	6a 14		 push	 20			; 00000014H
  0000a	99		 cdq
  0000b	59		 pop	 ecx
  0000c	f7 f9		 idiv	 ecx

; 1276 : 
; 1277 : 		_Capacity = max_size() - _Capacity / 2 < _Capacity
; 1278 : 			? 0 : _Capacity + _Capacity / 2;	// try to grow by 50%

  0000e	ba cc cc cc 0c	 mov	 edx, 214748364		; 0cccccccH
  00013	8b c8		 mov	 ecx, eax
  00015	d1 e9		 shr	 ecx, 1
  00017	2b d1		 sub	 edx, ecx
  00019	3b d0		 cmp	 edx, eax
  0001b	73 04		 jae	 SHORT $LN4@Grow_to
  0001d	33 c0		 xor	 eax, eax
  0001f	eb 02		 jmp	 SHORT $LN5@Grow_to
$LN4@Grow_to:
  00021	03 c1		 add	 eax, ecx
$LN5@Grow_to:

; 1279 : 		if (_Capacity < _Count)

  00023	3b 45 08	 cmp	 eax, DWORD PTR __Count$[ebp]

; 1280 : 			_Capacity = _Count;

  00026	0f 42 45 08	 cmovb	 eax, DWORD PTR __Count$[ebp]

; 1281 : 		return (_Capacity);
; 1282 : 		}

  0002a	5d		 pop	 ebp
  0002b	c2 04 00	 ret	 4
?_Grow_to@?$vector@UBulletInfo@@V?$allocator@UBulletInfo@@@std@@@std@@IBEII@Z ENDP ; std::vector<BulletInfo,std::allocator<BulletInfo> >::_Grow_to
_TEXT	ENDS
PUBLIC	?allocate@?$allocator@UBulletInfo@@@std@@QAEPAUBulletInfo@@I@Z ; std::allocator<BulletInfo>::allocate
; Function compile flags: /Ogsp
; File c:\program files (x86)\microsoft visual studio 10.0\vc\include\xmemory
;	COMDAT ?allocate@?$allocator@UBulletInfo@@@std@@QAEPAUBulletInfo@@I@Z
_TEXT	SEGMENT
__Count$ = 8						; size = 4
?allocate@?$allocator@UBulletInfo@@@std@@QAEPAUBulletInfo@@I@Z PROC ; std::allocator<BulletInfo>::allocate, COMDAT
; _this$ = ecx

; 186  : 		{	// allocate array of _Count elements

  00000	55		 push	 ebp
  00001	8b ec		 mov	 ebp, esp

; 187  : 		return (_Allocate(_Count, (pointer)0));

  00003	6a 00		 push	 0
  00005	ff 75 08	 push	 DWORD PTR __Count$[ebp]
  00008	e8 00 00 00 00	 call	 ??$_Allocate@UBulletInfo@@@std@@YAPAUBulletInfo@@IPAU1@@Z ; std::_Allocate<BulletInfo>
  0000d	59		 pop	 ecx
  0000e	59		 pop	 ecx

; 188  : 		}

  0000f	5d		 pop	 ebp
  00010	c2 04 00	 ret	 4
?allocate@?$allocator@UBulletInfo@@@std@@QAEPAUBulletInfo@@I@Z ENDP ; std::allocator<BulletInfo>::allocate
_TEXT	ENDS
PUBLIC	??8?$_Vector_const_iterator@V?$_Vector_val@UBulletInfo@@V?$allocator@UBulletInfo@@@std@@@std@@@std@@QBE_NABV01@@Z ; std::_Vector_const_iterator<std::_Vector_val<BulletInfo,std::allocator<BulletInfo> > >::operator==
; Function compile flags: /Ogsp
; File c:\program files (x86)\microsoft visual studio 10.0\vc\include\vector
;	COMDAT ??8?$_Vector_const_iterator@V?$_Vector_val@UBulletInfo@@V?$allocator@UBulletInfo@@@std@@@std@@@std@@QBE_NABV01@@Z
_TEXT	SEGMENT
__Right$ = 8						; size = 4
??8?$_Vector_const_iterator@V?$_Vector_val@UBulletInfo@@V?$allocator@UBulletInfo@@@std@@@std@@@std@@QBE_NABV01@@Z PROC ; std::_Vector_const_iterator<std::_Vector_val<BulletInfo,std::allocator<BulletInfo> > >::operator==, COMDAT
; _this$ = ecx

; 201  : 		{	// test for iterator equality

  00000	55		 push	 ebp
  00001	8b ec		 mov	 ebp, esp

; 202  : 		_Compat(_Right);
; 203  : 		return (this->_Ptr == _Right._Ptr);

  00003	8b 01		 mov	 eax, DWORD PTR [ecx]
  00005	8b 4d 08	 mov	 ecx, DWORD PTR __Right$[ebp]
  00008	2b 01		 sub	 eax, DWORD PTR [ecx]
  0000a	f7 d8		 neg	 eax
  0000c	1b c0		 sbb	 eax, eax
  0000e	40		 inc	 eax

; 204  : 		}

  0000f	5d		 pop	 ebp
  00010	c2 04 00	 ret	 4
??8?$_Vector_const_iterator@V?$_Vector_val@UBulletInfo@@V?$allocator@UBulletInfo@@@std@@@std@@@std@@QBE_NABV01@@Z ENDP ; std::_Vector_const_iterator<std::_Vector_val<BulletInfo,std::allocator<BulletInfo> > >::operator==
_TEXT	ENDS
PUBLIC	__$ArrayPad$
PUBLIC	??$LoadBool_e@$0BB@@ioINILoader@@QAE_NAAY0BB@$$CBD_N@Z ; ioINILoader::LoadBool_e<17>
EXTRN	__imp_?LoadBool@ioINILoader@@QAE_NPBD_N@Z:PROC
; Function compile flags: /Ogsp
; File d:\lost saga for developer\youtube\tutorial\source\src\io3dengine\ioiniloader.h
;	COMDAT ??$LoadBool_e@$0BB@@ioINILoader@@QAE_NAAY0BB@$$CBD_N@Z
_TEXT	SEGMENT
__k$ = -28						; size = 17
__$ArrayPad$ = -4					; size = 4
_k$ = 8							; size = 4
_b$ = 12						; size = 1
??$LoadBool_e@$0BB@@ioINILoader@@QAE_NAAY0BB@$$CBD_N@Z PROC ; ioINILoader::LoadBool_e<17>, COMDAT
; _this$ = ecx

; 101  : 	{

  00000	55		 push	 ebp
  00001	8b ec		 mov	 ebp, esp
  00003	83 ec 1c	 sub	 esp, 28			; 0000001cH
  00006	a1 00 00 00 00	 mov	 eax, DWORD PTR ___security_cookie
  0000b	33 c5		 xor	 eax, ebp
  0000d	89 45 fc	 mov	 DWORD PTR __$ArrayPad$[ebp], eax
  00010	8b 45 08	 mov	 eax, DWORD PTR _k$[ebp]

; 102  : 		_ENCSTR(k, _k);

  00013	8a 10		 mov	 dl, BYTE PTR [eax]
  00015	56		 push	 esi
  00016	8b f1		 mov	 esi, ecx
  00018	84 d2		 test	 dl, dl
  0001a	0f 84 a7 01 00
	00		 je	 $LN96@LoadBool_e
  00020	80 f2 ed	 xor	 dl, -19			; ffffffedH
  00023	88 55 e4	 mov	 BYTE PTR __k$[ebp], dl
  00026	8a 50 01	 mov	 dl, BYTE PTR [eax+1]
  00029	84 d2		 test	 dl, dl
  0002b	0f 84 90 01 00
	00		 je	 $LN95@LoadBool_e
  00031	b1 ec		 mov	 cl, -20			; ffffffecH
  00033	32 d1		 xor	 dl, cl
  00035	88 55 e5	 mov	 BYTE PTR __k$[ebp+1], dl
  00038	8a 50 02	 mov	 dl, BYTE PTR [eax+2]
  0003b	84 d2		 test	 dl, dl
  0003d	0f 84 78 01 00
	00		 je	 $LN94@LoadBool_e
  00043	80 f2 eb	 xor	 dl, -21			; ffffffebH
  00046	88 55 e6	 mov	 BYTE PTR __k$[ebp+2], dl
  00049	8a 50 03	 mov	 dl, BYTE PTR [eax+3]
  0004c	84 d2		 test	 dl, dl
  0004e	0f 84 61 01 00
	00		 je	 $LN93@LoadBool_e
  00054	80 f2 ea	 xor	 dl, -22			; ffffffeaH
  00057	88 55 e7	 mov	 BYTE PTR __k$[ebp+3], dl
  0005a	8a 50 04	 mov	 dl, BYTE PTR [eax+4]
  0005d	84 d2		 test	 dl, dl
  0005f	0f 84 4a 01 00
	00		 je	 $LN92@LoadBool_e
  00065	80 f2 ed	 xor	 dl, -19			; ffffffedH
  00068	88 55 e8	 mov	 BYTE PTR __k$[ebp+4], dl
  0006b	8a 50 05	 mov	 dl, BYTE PTR [eax+5]
  0006e	84 d2		 test	 dl, dl
  00070	0f 84 34 01 00
	00		 je	 $LN91@LoadBool_e
  00076	32 d1		 xor	 dl, cl
  00078	88 55 e9	 mov	 BYTE PTR __k$[ebp+5], dl
  0007b	8a 50 06	 mov	 dl, BYTE PTR [eax+6]
  0007e	84 d2		 test	 dl, dl
  00080	0f 84 1e 01 00
	00		 je	 $LN90@LoadBool_e
  00086	80 f2 eb	 xor	 dl, -21			; ffffffebH
  00089	88 55 ea	 mov	 BYTE PTR __k$[ebp+6], dl
  0008c	8a 50 07	 mov	 dl, BYTE PTR [eax+7]
  0008f	84 d2		 test	 dl, dl
  00091	0f 84 07 01 00
	00		 je	 $LN89@LoadBool_e
  00097	80 f2 ea	 xor	 dl, -22			; ffffffeaH
  0009a	88 55 eb	 mov	 BYTE PTR __k$[ebp+7], dl
  0009d	8a 50 08	 mov	 dl, BYTE PTR [eax+8]
  000a0	84 d2		 test	 dl, dl
  000a2	0f 84 f0 00 00
	00		 je	 $LN88@LoadBool_e
  000a8	80 f2 ed	 xor	 dl, -19			; ffffffedH
  000ab	88 55 ec	 mov	 BYTE PTR __k$[ebp+8], dl
  000ae	8a 50 09	 mov	 dl, BYTE PTR [eax+9]
  000b1	84 d2		 test	 dl, dl
  000b3	0f 84 da 00 00
	00		 je	 $LN87@LoadBool_e
  000b9	32 d1		 xor	 dl, cl
  000bb	88 55 ed	 mov	 BYTE PTR __k$[ebp+9], dl
  000be	8a 50 0a	 mov	 dl, BYTE PTR [eax+10]
  000c1	84 d2		 test	 dl, dl
  000c3	0f 84 c4 00 00
	00		 je	 $LN86@LoadBool_e
  000c9	80 f2 eb	 xor	 dl, -21			; ffffffebH
  000cc	88 55 ee	 mov	 BYTE PTR __k$[ebp+10], dl
  000cf	8a 50 0b	 mov	 dl, BYTE PTR [eax+11]
  000d2	84 d2		 test	 dl, dl
  000d4	0f 84 ad 00 00
	00		 je	 $LN85@LoadBool_e
  000da	80 f2 ea	 xor	 dl, -22			; ffffffeaH
  000dd	88 55 ef	 mov	 BYTE PTR __k$[ebp+11], dl
  000e0	8a 50 0c	 mov	 dl, BYTE PTR [eax+12]
  000e3	84 d2		 test	 dl, dl
  000e5	0f 84 96 00 00
	00		 je	 $LN84@LoadBool_e
  000eb	80 f2 ed	 xor	 dl, -19			; ffffffedH
  000ee	88 55 f0	 mov	 BYTE PTR __k$[ebp+12], dl
  000f1	8a 50 0d	 mov	 dl, BYTE PTR [eax+13]
  000f4	84 d2		 test	 dl, dl
  000f6	0f 84 80 00 00
	00		 je	 $LN83@LoadBool_e
  000fc	32 d1		 xor	 dl, cl
  000fe	88 55 f1	 mov	 BYTE PTR __k$[ebp+13], dl
  00101	8a 50 0e	 mov	 dl, BYTE PTR [eax+14]
  00104	84 d2		 test	 dl, dl
  00106	74 6e		 je	 SHORT $LN82@LoadBool_e
  00108	80 f2 eb	 xor	 dl, -21			; ffffffebH
  0010b	88 55 f2	 mov	 BYTE PTR __k$[ebp+14], dl
  0010e	8a 50 0f	 mov	 dl, BYTE PTR [eax+15]
  00111	84 d2		 test	 dl, dl
  00113	74 5b		 je	 SHORT $LN81@LoadBool_e
  00115	80 f2 ea	 xor	 dl, -22			; ffffffeaH
  00118	80 78 10 00	 cmp	 BYTE PTR [eax+16], 0
  0011c	88 55 f3	 mov	 BYTE PTR __k$[ebp+15], dl
  0011f	0f 84 a6 00 00
	00		 je	 $LN1@LoadBool_e
  00125	8a 50 11	 mov	 dl, BYTE PTR [eax+17]
  00128	84 d2		 test	 dl, dl
  0012a	74 3f		 je	 SHORT $LN79@LoadBool_e
  0012c	32 d1		 xor	 dl, cl
  0012e	88 55 f5	 mov	 BYTE PTR __k$[ebp+17], dl
  00131	8a 50 12	 mov	 dl, BYTE PTR [eax+18]
  00134	84 d2		 test	 dl, dl
  00136	74 2d		 je	 SHORT $LN78@LoadBool_e
  00138	80 f2 eb	 xor	 dl, -21			; ffffffebH
  0013b	88 55 f6	 mov	 BYTE PTR __k$[ebp+18], dl
  0013e	8a 50 13	 mov	 dl, BYTE PTR [eax+19]
  00141	84 d2		 test	 dl, dl
  00143	74 1a		 je	 SHORT $LN77@LoadBool_e
  00145	8a 40 14	 mov	 al, BYTE PTR [eax+20]
  00148	80 f2 ea	 xor	 dl, -22			; ffffffeaH
  0014b	88 55 f7	 mov	 BYTE PTR __k$[ebp+19], dl
  0014e	84 c0		 test	 al, al
  00150	74 07		 je	 SHORT $LN76@LoadBool_e
  00152	34 ed		 xor	 al, -19			; ffffffedH
  00154	88 45 f8	 mov	 BYTE PTR __k$[ebp+20], al
  00157	eb 72		 jmp	 SHORT $LN1@LoadBool_e
$LN76@LoadBool_e:
  00159	c6 45 f8 ed	 mov	 BYTE PTR __k$[ebp+20], -19 ; ffffffedH
  0015d	eb 6c		 jmp	 SHORT $LN1@LoadBool_e
$LN77@LoadBool_e:
  0015f	c6 45 f7 ea	 mov	 BYTE PTR __k$[ebp+19], -22 ; ffffffeaH
  00163	eb 66		 jmp	 SHORT $LN1@LoadBool_e
$LN78@LoadBool_e:
  00165	c6 45 f6 eb	 mov	 BYTE PTR __k$[ebp+18], -21 ; ffffffebH
  00169	eb 60		 jmp	 SHORT $LN1@LoadBool_e
$LN79@LoadBool_e:
  0016b	88 4d f5	 mov	 BYTE PTR __k$[ebp+17], cl
  0016e	eb 5b		 jmp	 SHORT $LN1@LoadBool_e
$LN81@LoadBool_e:
  00170	c6 45 f3 ea	 mov	 BYTE PTR __k$[ebp+15], -22 ; ffffffeaH
  00174	eb 55		 jmp	 SHORT $LN1@LoadBool_e
$LN82@LoadBool_e:
  00176	c6 45 f2 eb	 mov	 BYTE PTR __k$[ebp+14], -21 ; ffffffebH
  0017a	eb 4f		 jmp	 SHORT $LN1@LoadBool_e
$LN83@LoadBool_e:
  0017c	88 4d f1	 mov	 BYTE PTR __k$[ebp+13], cl
  0017f	eb 4a		 jmp	 SHORT $LN1@LoadBool_e
$LN84@LoadBool_e:
  00181	c6 45 f0 ed	 mov	 BYTE PTR __k$[ebp+12], -19 ; ffffffedH
  00185	eb 44		 jmp	 SHORT $LN1@LoadBool_e
$LN85@LoadBool_e:
  00187	c6 45 ef ea	 mov	 BYTE PTR __k$[ebp+11], -22 ; ffffffeaH
  0018b	eb 3e		 jmp	 SHORT $LN1@LoadBool_e
$LN86@LoadBool_e:
  0018d	c6 45 ee eb	 mov	 BYTE PTR __k$[ebp+10], -21 ; ffffffebH
  00191	eb 38		 jmp	 SHORT $LN1@LoadBool_e
$LN87@LoadBool_e:
  00193	88 4d ed	 mov	 BYTE PTR __k$[ebp+9], cl
  00196	eb 33		 jmp	 SHORT $LN1@LoadBool_e
$LN88@LoadBool_e:
  00198	c6 45 ec ed	 mov	 BYTE PTR __k$[ebp+8], -19 ; ffffffedH
  0019c	eb 2d		 jmp	 SHORT $LN1@LoadBool_e
$LN89@LoadBool_e:
  0019e	c6 45 eb ea	 mov	 BYTE PTR __k$[ebp+7], -22 ; ffffffeaH
  001a2	eb 27		 jmp	 SHORT $LN1@LoadBool_e
$LN90@LoadBool_e:
  001a4	c6 45 ea eb	 mov	 BYTE PTR __k$[ebp+6], -21 ; ffffffebH
  001a8	eb 21		 jmp	 SHORT $LN1@LoadBool_e
$LN91@LoadBool_e:
  001aa	88 4d e9	 mov	 BYTE PTR __k$[ebp+5], cl
  001ad	eb 1c		 jmp	 SHORT $LN1@LoadBool_e
$LN92@LoadBool_e:
  001af	c6 45 e8 ed	 mov	 BYTE PTR __k$[ebp+4], -19 ; ffffffedH
  001b3	eb 16		 jmp	 SHORT $LN1@LoadBool_e
$LN93@LoadBool_e:
  001b5	c6 45 e7 ea	 mov	 BYTE PTR __k$[ebp+3], -22 ; ffffffeaH
  001b9	eb 10		 jmp	 SHORT $LN1@LoadBool_e
$LN94@LoadBool_e:
  001bb	c6 45 e6 eb	 mov	 BYTE PTR __k$[ebp+2], -21 ; ffffffebH
  001bf	eb 0a		 jmp	 SHORT $LN1@LoadBool_e
$LN95@LoadBool_e:
  001c1	c6 45 e5 ec	 mov	 BYTE PTR __k$[ebp+1], -20 ; ffffffecH
  001c5	eb 04		 jmp	 SHORT $LN1@LoadBool_e
$LN96@LoadBool_e:
  001c7	c6 45 e4 ed	 mov	 BYTE PTR __k$[ebp], -19	; ffffffedH
$LN1@LoadBool_e:
  001cb	6a 04		 push	 4
  001cd	8d 45 e4	 lea	 eax, DWORD PTR __k$[ebp]
  001d0	c6 45 f4 00	 mov	 BYTE PTR __k$[ebp+16], 0
  001d4	5a		 pop	 edx
$LL104@LoadBool_e:
  001d5	81 30 ed ec eb
	ea		 xor	 DWORD PTR [eax], -353637139 ; eaebecedH
  001db	83 c0 04	 add	 eax, 4
  001de	4a		 dec	 edx
  001df	75 f4		 jne	 SHORT $LL104@LoadBool_e

; 103  : 		return LoadBool(_k, b);

  001e1	ff 75 0c	 push	 DWORD PTR _b$[ebp]
  001e4	8d 45 e4	 lea	 eax, DWORD PTR __k$[ebp]
  001e7	50		 push	 eax
  001e8	8b ce		 mov	 ecx, esi
  001ea	ff 15 00 00 00
	00		 call	 DWORD PTR __imp_?LoadBool@ioINILoader@@QAE_NPBD_N@Z

; 104  : 	}

  001f0	8b 4d fc	 mov	 ecx, DWORD PTR __$ArrayPad$[ebp]
  001f3	33 cd		 xor	 ecx, ebp
  001f5	5e		 pop	 esi
  001f6	e8 00 00 00 00	 call	 @__security_check_cookie@4
  001fb	c9		 leave
  001fc	c2 08 00	 ret	 8
??$LoadBool_e@$0BB@@ioINILoader@@QAE_NAAY0BB@$$CBD_N@Z ENDP ; ioINILoader::LoadBool_e<17>
_TEXT	ENDS
PUBLIC	__$ArrayPad$
PUBLIC	??$LoadFloat_e@$09@ioINILoader@@QAEMAAY09$$CBDM@Z ; ioINILoader::LoadFloat_e<10>
EXTRN	__imp_?LoadFloat@ioINILoader@@QAEMPBDM@Z:PROC
; Function compile flags: /Ogsp
;	COMDAT ??$LoadFloat_e@$09@ioINILoader@@QAEMAAY09$$CBDM@Z
_TEXT	SEGMENT
__k$ = -20						; size = 10
__$ArrayPad$ = -4					; size = 4
_k$ = 8							; size = 4
_f$ = 12						; size = 4
??$LoadFloat_e@$09@ioINILoader@@QAEMAAY09$$CBDM@Z PROC	; ioINILoader::LoadFloat_e<10>, COMDAT
; _this$ = ecx

; 135  : 	{

  00000	55		 push	 ebp
  00001	8b ec		 mov	 ebp, esp
  00003	83 ec 14	 sub	 esp, 20			; 00000014H
  00006	a1 00 00 00 00	 mov	 eax, DWORD PTR ___security_cookie
  0000b	33 c5		 xor	 eax, ebp
  0000d	89 45 fc	 mov	 DWORD PTR __$ArrayPad$[ebp], eax
  00010	8b 45 08	 mov	 eax, DWORD PTR _k$[ebp]

; 136  : 		_ENCSTR(k, _k);

  00013	8a 10		 mov	 dl, BYTE PTR [eax]
  00015	84 d2		 test	 dl, dl
  00017	0f 84 0d 01 00
	00		 je	 $LN96@LoadFloat_
  0001d	80 f2 ed	 xor	 dl, -19			; ffffffedH
  00020	88 55 ec	 mov	 BYTE PTR __k$[ebp], dl
  00023	8a 50 01	 mov	 dl, BYTE PTR [eax+1]
  00026	84 d2		 test	 dl, dl
  00028	0f 84 f6 00 00
	00		 je	 $LN95@LoadFloat_
  0002e	80 f2 ec	 xor	 dl, -20			; ffffffecH
  00031	88 55 ed	 mov	 BYTE PTR __k$[ebp+1], dl
  00034	8a 50 02	 mov	 dl, BYTE PTR [eax+2]
  00037	84 d2		 test	 dl, dl
  00039	0f 84 df 00 00
	00		 je	 $LN94@LoadFloat_
  0003f	80 f2 eb	 xor	 dl, -21			; ffffffebH
  00042	88 55 ee	 mov	 BYTE PTR __k$[ebp+2], dl
  00045	8a 50 03	 mov	 dl, BYTE PTR [eax+3]
  00048	84 d2		 test	 dl, dl
  0004a	0f 84 c8 00 00
	00		 je	 $LN93@LoadFloat_
  00050	80 f2 ea	 xor	 dl, -22			; ffffffeaH
  00053	88 55 ef	 mov	 BYTE PTR __k$[ebp+3], dl
  00056	8a 50 04	 mov	 dl, BYTE PTR [eax+4]
  00059	84 d2		 test	 dl, dl
  0005b	0f 84 b1 00 00
	00		 je	 $LN92@LoadFloat_
  00061	80 f2 ed	 xor	 dl, -19			; ffffffedH
  00064	88 55 f0	 mov	 BYTE PTR __k$[ebp+4], dl
  00067	8a 50 05	 mov	 dl, BYTE PTR [eax+5]
  0006a	84 d2		 test	 dl, dl
  0006c	0f 84 9a 00 00
	00		 je	 $LN91@LoadFloat_
  00072	80 f2 ec	 xor	 dl, -20			; ffffffecH
  00075	88 55 f1	 mov	 BYTE PTR __k$[ebp+5], dl
  00078	8a 50 06	 mov	 dl, BYTE PTR [eax+6]
  0007b	84 d2		 test	 dl, dl
  0007d	0f 84 83 00 00
	00		 je	 $LN90@LoadFloat_
  00083	80 f2 eb	 xor	 dl, -21			; ffffffebH
  00086	88 55 f2	 mov	 BYTE PTR __k$[ebp+6], dl
  00089	8a 50 07	 mov	 dl, BYTE PTR [eax+7]
  0008c	84 d2		 test	 dl, dl
  0008e	74 70		 je	 SHORT $LN89@LoadFloat_
  00090	80 f2 ea	 xor	 dl, -22			; ffffffeaH
  00093	88 55 f3	 mov	 BYTE PTR __k$[ebp+7], dl
  00096	8a 50 08	 mov	 dl, BYTE PTR [eax+8]
  00099	84 d2		 test	 dl, dl
  0009b	74 5d		 je	 SHORT $LN88@LoadFloat_
  0009d	80 f2 ed	 xor	 dl, -19			; ffffffedH
  000a0	80 78 09 00	 cmp	 BYTE PTR [eax+9], 0
  000a4	88 55 f4	 mov	 BYTE PTR __k$[ebp+8], dl
  000a7	0f 84 81 00 00
	00		 je	 $LN1@LoadFloat_
  000ad	8a 50 0a	 mov	 dl, BYTE PTR [eax+10]
  000b0	84 d2		 test	 dl, dl
  000b2	74 40		 je	 SHORT $LN86@LoadFloat_
  000b4	80 f2 eb	 xor	 dl, -21			; ffffffebH
  000b7	88 55 f6	 mov	 BYTE PTR __k$[ebp+10], dl
  000ba	8a 50 0b	 mov	 dl, BYTE PTR [eax+11]
  000bd	84 d2		 test	 dl, dl
  000bf	74 2d		 je	 SHORT $LN85@LoadFloat_
  000c1	80 f2 ea	 xor	 dl, -22			; ffffffeaH
  000c4	88 55 f7	 mov	 BYTE PTR __k$[ebp+11], dl
  000c7	8a 50 0c	 mov	 dl, BYTE PTR [eax+12]
  000ca	84 d2		 test	 dl, dl
  000cc	74 1a		 je	 SHORT $LN84@LoadFloat_
  000ce	8a 40 0d	 mov	 al, BYTE PTR [eax+13]
  000d1	80 f2 ed	 xor	 dl, -19			; ffffffedH
  000d4	88 55 f8	 mov	 BYTE PTR __k$[ebp+12], dl
  000d7	84 c0		 test	 al, al
  000d9	74 07		 je	 SHORT $LN83@LoadFloat_
  000db	34 ec		 xor	 al, -20			; ffffffecH
  000dd	88 45 f9	 mov	 BYTE PTR __k$[ebp+13], al
  000e0	eb 4c		 jmp	 SHORT $LN1@LoadFloat_
$LN83@LoadFloat_:
  000e2	c6 45 f9 ec	 mov	 BYTE PTR __k$[ebp+13], -20 ; ffffffecH
  000e6	eb 46		 jmp	 SHORT $LN1@LoadFloat_
$LN84@LoadFloat_:
  000e8	c6 45 f8 ed	 mov	 BYTE PTR __k$[ebp+12], -19 ; ffffffedH
  000ec	eb 40		 jmp	 SHORT $LN1@LoadFloat_
$LN85@LoadFloat_:
  000ee	c6 45 f7 ea	 mov	 BYTE PTR __k$[ebp+11], -22 ; ffffffeaH
  000f2	eb 3a		 jmp	 SHORT $LN1@LoadFloat_
$LN86@LoadFloat_:
  000f4	c6 45 f6 eb	 mov	 BYTE PTR __k$[ebp+10], -21 ; ffffffebH
  000f8	eb 34		 jmp	 SHORT $LN1@LoadFloat_
$LN88@LoadFloat_:
  000fa	c6 45 f4 ed	 mov	 BYTE PTR __k$[ebp+8], -19 ; ffffffedH
  000fe	eb 2e		 jmp	 SHORT $LN1@LoadFloat_
$LN89@LoadFloat_:
  00100	c6 45 f3 ea	 mov	 BYTE PTR __k$[ebp+7], -22 ; ffffffeaH
  00104	eb 28		 jmp	 SHORT $LN1@LoadFloat_
$LN90@LoadFloat_:
  00106	c6 45 f2 eb	 mov	 BYTE PTR __k$[ebp+6], -21 ; ffffffebH
  0010a	eb 22		 jmp	 SHORT $LN1@LoadFloat_
$LN91@LoadFloat_:
  0010c	c6 45 f1 ec	 mov	 BYTE PTR __k$[ebp+5], -20 ; ffffffecH
  00110	eb 1c		 jmp	 SHORT $LN1@LoadFloat_
$LN92@LoadFloat_:
  00112	c6 45 f0 ed	 mov	 BYTE PTR __k$[ebp+4], -19 ; ffffffedH
  00116	eb 16		 jmp	 SHORT $LN1@LoadFloat_
$LN93@LoadFloat_:
  00118	c6 45 ef ea	 mov	 BYTE PTR __k$[ebp+3], -22 ; ffffffeaH
  0011c	eb 10		 jmp	 SHORT $LN1@LoadFloat_
$LN94@LoadFloat_:
  0011e	c6 45 ee eb	 mov	 BYTE PTR __k$[ebp+2], -21 ; ffffffebH
  00122	eb 0a		 jmp	 SHORT $LN1@LoadFloat_
$LN95@LoadFloat_:
  00124	c6 45 ed ec	 mov	 BYTE PTR __k$[ebp+1], -20 ; ffffffecH
  00128	eb 04		 jmp	 SHORT $LN1@LoadFloat_
$LN96@LoadFloat_:
  0012a	c6 45 ec ed	 mov	 BYTE PTR __k$[ebp], -19	; ffffffedH
$LN1@LoadFloat_:
  0012e	6a 02		 push	 2
  00130	8d 45 ec	 lea	 eax, DWORD PTR __k$[ebp]
  00133	c6 45 f5 00	 mov	 BYTE PTR __k$[ebp+9], 0
  00137	5a		 pop	 edx
$LL104@LoadFloat_:
  00138	81 30 ed ec eb
	ea		 xor	 DWORD PTR [eax], -353637139 ; eaebecedH
  0013e	83 c0 04	 add	 eax, 4
  00141	4a		 dec	 edx
  00142	75 f4		 jne	 SHORT $LL104@LoadFloat_

; 137  : 		return LoadFloat(_k, f);

  00144	f3 0f 10 45 0c	 movss	 xmm0, DWORD PTR _f$[ebp]
  00149	80 75 f4 ed	 xor	 BYTE PTR __k$[ebp+8], -19 ; ffffffedH
  0014d	51		 push	 ecx
  0014e	8d 45 ec	 lea	 eax, DWORD PTR __k$[ebp]
  00151	f3 0f 11 04 24	 movss	 DWORD PTR [esp], xmm0
  00156	50		 push	 eax
  00157	ff 15 00 00 00
	00		 call	 DWORD PTR __imp_?LoadFloat@ioINILoader@@QAEMPBDM@Z

; 138  : 	}

  0015d	8b 4d fc	 mov	 ecx, DWORD PTR __$ArrayPad$[ebp]
  00160	33 cd		 xor	 ecx, ebp
  00162	e8 00 00 00 00	 call	 @__security_check_cookie@4
  00167	c9		 leave
  00168	c2 08 00	 ret	 8
??$LoadFloat_e@$09@ioINILoader@@QAEMAAY09$$CBDM@Z ENDP	; ioINILoader::LoadFloat_e<10>
_TEXT	ENDS
PUBLIC	__$ArrayPad$
PUBLIC	??$LoadInt_e@$0P@@ioINILoader@@QAEHAAY0P@$$CBDH@Z ; ioINILoader::LoadInt_e<15>
EXTRN	__imp_?LoadInt@ioINILoader@@QAEHPBDH@Z:PROC
; Function compile flags: /Ogsp
;	COMDAT ??$LoadInt_e@$0P@@ioINILoader@@QAEHAAY0P@$$CBDH@Z
_TEXT	SEGMENT
__k$ = -24						; size = 15
__$ArrayPad$ = -4					; size = 4
_k$ = 8							; size = 4
_i$ = 12						; size = 4
??$LoadInt_e@$0P@@ioINILoader@@QAEHAAY0P@$$CBDH@Z PROC	; ioINILoader::LoadInt_e<15>, COMDAT
; _this$ = ecx

; 118  : 	{

  00000	55		 push	 ebp
  00001	8b ec		 mov	 ebp, esp
  00003	83 ec 18	 sub	 esp, 24			; 00000018H
  00006	a1 00 00 00 00	 mov	 eax, DWORD PTR ___security_cookie
  0000b	33 c5		 xor	 eax, ebp
  0000d	89 45 fc	 mov	 DWORD PTR __$ArrayPad$[ebp], eax
  00010	8b 45 08	 mov	 eax, DWORD PTR _k$[ebp]

; 119  : 		_ENCSTR(k, _k);

  00013	8a 10		 mov	 dl, BYTE PTR [eax]
  00015	56		 push	 esi
  00016	8b f1		 mov	 esi, ecx
  00018	84 d2		 test	 dl, dl
  0001a	0f 84 75 01 00
	00		 je	 $LN96@LoadInt_e
  00020	80 f2 ed	 xor	 dl, -19			; ffffffedH
  00023	88 55 e8	 mov	 BYTE PTR __k$[ebp], dl
  00026	8a 50 01	 mov	 dl, BYTE PTR [eax+1]
  00029	84 d2		 test	 dl, dl
  0002b	0f 84 5e 01 00
	00		 je	 $LN95@LoadInt_e
  00031	b1 ec		 mov	 cl, -20			; ffffffecH
  00033	32 d1		 xor	 dl, cl
  00035	88 55 e9	 mov	 BYTE PTR __k$[ebp+1], dl
  00038	8a 50 02	 mov	 dl, BYTE PTR [eax+2]
  0003b	84 d2		 test	 dl, dl
  0003d	0f 84 46 01 00
	00		 je	 $LN94@LoadInt_e
  00043	80 f2 eb	 xor	 dl, -21			; ffffffebH
  00046	88 55 ea	 mov	 BYTE PTR __k$[ebp+2], dl
  00049	8a 50 03	 mov	 dl, BYTE PTR [eax+3]
  0004c	84 d2		 test	 dl, dl
  0004e	0f 84 2f 01 00
	00		 je	 $LN93@LoadInt_e
  00054	80 f2 ea	 xor	 dl, -22			; ffffffeaH
  00057	88 55 eb	 mov	 BYTE PTR __k$[ebp+3], dl
  0005a	8a 50 04	 mov	 dl, BYTE PTR [eax+4]
  0005d	84 d2		 test	 dl, dl
  0005f	0f 84 18 01 00
	00		 je	 $LN92@LoadInt_e
  00065	80 f2 ed	 xor	 dl, -19			; ffffffedH
  00068	88 55 ec	 mov	 BYTE PTR __k$[ebp+4], dl
  0006b	8a 50 05	 mov	 dl, BYTE PTR [eax+5]
  0006e	84 d2		 test	 dl, dl
  00070	0f 84 02 01 00
	00		 je	 $LN91@LoadInt_e
  00076	32 d1		 xor	 dl, cl
  00078	88 55 ed	 mov	 BYTE PTR __k$[ebp+5], dl
  0007b	8a 50 06	 mov	 dl, BYTE PTR [eax+6]
  0007e	84 d2		 test	 dl, dl
  00080	0f 84 ec 00 00
	00		 je	 $LN90@LoadInt_e
  00086	80 f2 eb	 xor	 dl, -21			; ffffffebH
  00089	88 55 ee	 mov	 BYTE PTR __k$[ebp+6], dl
  0008c	8a 50 07	 mov	 dl, BYTE PTR [eax+7]
  0008f	84 d2		 test	 dl, dl
  00091	0f 84 d5 00 00
	00		 je	 $LN89@LoadInt_e
  00097	80 f2 ea	 xor	 dl, -22			; ffffffeaH
  0009a	88 55 ef	 mov	 BYTE PTR __k$[ebp+7], dl
  0009d	8a 50 08	 mov	 dl, BYTE PTR [eax+8]
  000a0	84 d2		 test	 dl, dl
  000a2	0f 84 be 00 00
	00		 je	 $LN88@LoadInt_e
  000a8	80 f2 ed	 xor	 dl, -19			; ffffffedH
  000ab	88 55 f0	 mov	 BYTE PTR __k$[ebp+8], dl
  000ae	8a 50 09	 mov	 dl, BYTE PTR [eax+9]
  000b1	84 d2		 test	 dl, dl
  000b3	0f 84 a8 00 00
	00		 je	 $LN87@LoadInt_e
  000b9	32 d1		 xor	 dl, cl
  000bb	88 55 f1	 mov	 BYTE PTR __k$[ebp+9], dl
  000be	8a 50 0a	 mov	 dl, BYTE PTR [eax+10]
  000c1	84 d2		 test	 dl, dl
  000c3	0f 84 92 00 00
	00		 je	 $LN86@LoadInt_e
  000c9	80 f2 eb	 xor	 dl, -21			; ffffffebH
  000cc	88 55 f2	 mov	 BYTE PTR __k$[ebp+10], dl
  000cf	8a 50 0b	 mov	 dl, BYTE PTR [eax+11]
  000d2	84 d2		 test	 dl, dl
  000d4	74 7f		 je	 SHORT $LN85@LoadInt_e
  000d6	80 f2 ea	 xor	 dl, -22			; ffffffeaH
  000d9	88 55 f3	 mov	 BYTE PTR __k$[ebp+11], dl
  000dc	8a 50 0c	 mov	 dl, BYTE PTR [eax+12]
  000df	84 d2		 test	 dl, dl
  000e1	74 6c		 je	 SHORT $LN84@LoadInt_e
  000e3	80 f2 ed	 xor	 dl, -19			; ffffffedH
  000e6	88 55 f4	 mov	 BYTE PTR __k$[ebp+12], dl
  000e9	8a 50 0d	 mov	 dl, BYTE PTR [eax+13]
  000ec	84 d2		 test	 dl, dl
  000ee	74 5a		 je	 SHORT $LN83@LoadInt_e
  000f0	32 d1		 xor	 dl, cl
  000f2	80 78 0e 00	 cmp	 BYTE PTR [eax+14], 0
  000f6	88 55 f5	 mov	 BYTE PTR __k$[ebp+13], dl
  000f9	0f 84 9a 00 00
	00		 je	 $LN1@LoadInt_e
  000ff	8a 50 0f	 mov	 dl, BYTE PTR [eax+15]
  00102	84 d2		 test	 dl, dl
  00104	74 3e		 je	 SHORT $LN81@LoadInt_e
  00106	80 f2 ea	 xor	 dl, -22			; ffffffeaH
  00109	88 55 f7	 mov	 BYTE PTR __k$[ebp+15], dl
  0010c	8a 50 10	 mov	 dl, BYTE PTR [eax+16]
  0010f	84 d2		 test	 dl, dl
  00111	74 2b		 je	 SHORT $LN80@LoadInt_e
  00113	80 f2 ed	 xor	 dl, -19			; ffffffedH
  00116	88 55 f8	 mov	 BYTE PTR __k$[ebp+16], dl
  00119	8a 50 11	 mov	 dl, BYTE PTR [eax+17]
  0011c	84 d2		 test	 dl, dl
  0011e	74 19		 je	 SHORT $LN79@LoadInt_e
  00120	8a 40 12	 mov	 al, BYTE PTR [eax+18]
  00123	32 d1		 xor	 dl, cl
  00125	88 55 f9	 mov	 BYTE PTR __k$[ebp+17], dl
  00128	84 c0		 test	 al, al
  0012a	74 07		 je	 SHORT $LN78@LoadInt_e
  0012c	34 eb		 xor	 al, -21			; ffffffebH
  0012e	88 45 fa	 mov	 BYTE PTR __k$[ebp+18], al
  00131	eb 66		 jmp	 SHORT $LN1@LoadInt_e
$LN78@LoadInt_e:
  00133	c6 45 fa eb	 mov	 BYTE PTR __k$[ebp+18], -21 ; ffffffebH
  00137	eb 60		 jmp	 SHORT $LN1@LoadInt_e
$LN79@LoadInt_e:
  00139	88 4d f9	 mov	 BYTE PTR __k$[ebp+17], cl
  0013c	eb 5b		 jmp	 SHORT $LN1@LoadInt_e
$LN80@LoadInt_e:
  0013e	c6 45 f8 ed	 mov	 BYTE PTR __k$[ebp+16], -19 ; ffffffedH
  00142	eb 55		 jmp	 SHORT $LN1@LoadInt_e
$LN81@LoadInt_e:
  00144	c6 45 f7 ea	 mov	 BYTE PTR __k$[ebp+15], -22 ; ffffffeaH
  00148	eb 4f		 jmp	 SHORT $LN1@LoadInt_e
$LN83@LoadInt_e:
  0014a	88 4d f5	 mov	 BYTE PTR __k$[ebp+13], cl
  0014d	eb 4a		 jmp	 SHORT $LN1@LoadInt_e
$LN84@LoadInt_e:
  0014f	c6 45 f4 ed	 mov	 BYTE PTR __k$[ebp+12], -19 ; ffffffedH
  00153	eb 44		 jmp	 SHORT $LN1@LoadInt_e
$LN85@LoadInt_e:
  00155	c6 45 f3 ea	 mov	 BYTE PTR __k$[ebp+11], -22 ; ffffffeaH
  00159	eb 3e		 jmp	 SHORT $LN1@LoadInt_e
$LN86@LoadInt_e:
  0015b	c6 45 f2 eb	 mov	 BYTE PTR __k$[ebp+10], -21 ; ffffffebH
  0015f	eb 38		 jmp	 SHORT $LN1@LoadInt_e
$LN87@LoadInt_e:
  00161	88 4d f1	 mov	 BYTE PTR __k$[ebp+9], cl
  00164	eb 33		 jmp	 SHORT $LN1@LoadInt_e
$LN88@LoadInt_e:
  00166	c6 45 f0 ed	 mov	 BYTE PTR __k$[ebp+8], -19 ; ffffffedH
  0016a	eb 2d		 jmp	 SHORT $LN1@LoadInt_e
$LN89@LoadInt_e:
  0016c	c6 45 ef ea	 mov	 BYTE PTR __k$[ebp+7], -22 ; ffffffeaH
  00170	eb 27		 jmp	 SHORT $LN1@LoadInt_e
$LN90@LoadInt_e:
  00172	c6 45 ee eb	 mov	 BYTE PTR __k$[ebp+6], -21 ; ffffffebH
  00176	eb 21		 jmp	 SHORT $LN1@LoadInt_e
$LN91@LoadInt_e:
  00178	88 4d ed	 mov	 BYTE PTR __k$[ebp+5], cl
  0017b	eb 1c		 jmp	 SHORT $LN1@LoadInt_e
$LN92@LoadInt_e:
  0017d	c6 45 ec ed	 mov	 BYTE PTR __k$[ebp+4], -19 ; ffffffedH
  00181	eb 16		 jmp	 SHORT $LN1@LoadInt_e
$LN93@LoadInt_e:
  00183	c6 45 eb ea	 mov	 BYTE PTR __k$[ebp+3], -22 ; ffffffeaH
  00187	eb 10		 jmp	 SHORT $LN1@LoadInt_e
$LN94@LoadInt_e:
  00189	c6 45 ea eb	 mov	 BYTE PTR __k$[ebp+2], -21 ; ffffffebH
  0018d	eb 0a		 jmp	 SHORT $LN1@LoadInt_e
$LN95@LoadInt_e:
  0018f	c6 45 e9 ec	 mov	 BYTE PTR __k$[ebp+1], -20 ; ffffffecH
  00193	eb 04		 jmp	 SHORT $LN1@LoadInt_e
$LN96@LoadInt_e:
  00195	c6 45 e8 ed	 mov	 BYTE PTR __k$[ebp], -19	; ffffffedH
$LN1@LoadInt_e:
  00199	6a 03		 push	 3
  0019b	8d 45 e8	 lea	 eax, DWORD PTR __k$[ebp]
  0019e	c6 45 f6 00	 mov	 BYTE PTR __k$[ebp+14], 0
  001a2	5a		 pop	 edx
$LL104@LoadInt_e:
  001a3	81 30 ed ec eb
	ea		 xor	 DWORD PTR [eax], -353637139 ; eaebecedH
  001a9	83 c0 04	 add	 eax, 4
  001ac	4a		 dec	 edx
  001ad	75 f4		 jne	 SHORT $LL104@LoadInt_e
  001af	6a 0c		 push	 12			; 0000000cH
  001b1	58		 pop	 eax
$LL101@LoadInt_e:
  001b2	8b c8		 mov	 ecx, eax
  001b4	81 e1 03 00 00
	80		 and	 ecx, -2147483645	; 80000003H
  001ba	79 05		 jns	 SHORT $LN111@LoadInt_e
  001bc	49		 dec	 ecx
  001bd	83 c9 fc	 or	 ecx, -4			; fffffffcH
  001c0	41		 inc	 ecx
$LN111@LoadInt_e:
  001c1	b2 ed		 mov	 dl, -19			; ffffffedH
  001c3	2a d1		 sub	 dl, cl
  001c5	30 54 05 e8	 xor	 BYTE PTR __k$[ebp+eax], dl
  001c9	40		 inc	 eax
  001ca	83 f8 0e	 cmp	 eax, 14			; 0000000eH
  001cd	7c e3		 jl	 SHORT $LL101@LoadInt_e

; 120  : 		return LoadInt(_k, i);

  001cf	ff 75 0c	 push	 DWORD PTR _i$[ebp]
  001d2	8d 45 e8	 lea	 eax, DWORD PTR __k$[ebp]
  001d5	50		 push	 eax
  001d6	8b ce		 mov	 ecx, esi
  001d8	ff 15 00 00 00
	00		 call	 DWORD PTR __imp_?LoadInt@ioINILoader@@QAEHPBDH@Z

; 121  : 	}

  001de	8b 4d fc	 mov	 ecx, DWORD PTR __$ArrayPad$[ebp]
  001e1	33 cd		 xor	 ecx, ebp
  001e3	5e		 pop	 esi
  001e4	e8 00 00 00 00	 call	 @__security_check_cookie@4
  001e9	c9		 leave
  001ea	c2 08 00	 ret	 8
??$LoadInt_e@$0P@@ioINILoader@@QAEHAAY0P@$$CBDH@Z ENDP	; ioINILoader::LoadInt_e<15>
_TEXT	ENDS
PUBLIC	_this$GSCopy$
PUBLIC	__$ArrayPad$
PUBLIC	??$LoadString_e@$0BD@@ioINILoader@@QAEXAAY0BD@$$CBDAAY00$$CBDPADH@Z ; ioINILoader::LoadString_e<19>
EXTRN	__imp_?LoadStringA@ioINILoader@@QAEXPBD0PADH@Z:PROC
; Function compile flags: /Ogsp
;	COMDAT ??$LoadString_e@$0BD@@ioINILoader@@QAEXAAY0BD@$$CBDAAY00$$CBDPADH@Z
_TEXT	SEGMENT
_this$GSCopy$ = -32					; size = 4
__k$ = -28						; size = 19
__$ArrayPad$ = -4					; size = 4
_k$ = 8							; size = 4
_d$ = 12						; size = 4
_b$ = 16						; size = 4
_i$ = 20						; size = 4
??$LoadString_e@$0BD@@ioINILoader@@QAEXAAY0BD@$$CBDAAY00$$CBDPADH@Z PROC ; ioINILoader::LoadString_e<19>, COMDAT
; _this$ = ecx

; 161  : 	{

  00000	55		 push	 ebp
  00001	8b ec		 mov	 ebp, esp
  00003	83 ec 20	 sub	 esp, 32			; 00000020H
  00006	a1 00 00 00 00	 mov	 eax, DWORD PTR ___security_cookie
  0000b	33 c5		 xor	 eax, ebp
  0000d	89 45 fc	 mov	 DWORD PTR __$ArrayPad$[ebp], eax
  00010	8b 45 08	 mov	 eax, DWORD PTR _k$[ebp]

; 162  : 		_ENCSTR(k, _k);

  00013	8a 10		 mov	 dl, BYTE PTR [eax]
  00015	56		 push	 esi
  00016	8b 75 0c	 mov	 esi, DWORD PTR _d$[ebp]
  00019	57		 push	 edi
  0001a	8b 7d 10	 mov	 edi, DWORD PTR _b$[ebp]
  0001d	89 4d e0	 mov	 DWORD PTR _this$GSCopy$[ebp], ecx
  00020	84 d2		 test	 dl, dl
  00022	0f 84 cf 01 00
	00		 je	 $LN96@LoadString
  00028	80 f2 ed	 xor	 dl, -19			; ffffffedH
  0002b	88 55 e4	 mov	 BYTE PTR __k$[ebp], dl
  0002e	8a 50 01	 mov	 dl, BYTE PTR [eax+1]
  00031	84 d2		 test	 dl, dl
  00033	0f 84 b8 01 00
	00		 je	 $LN95@LoadString
  00039	b1 ec		 mov	 cl, -20			; ffffffecH
  0003b	32 d1		 xor	 dl, cl
  0003d	88 55 e5	 mov	 BYTE PTR __k$[ebp+1], dl
  00040	8a 50 02	 mov	 dl, BYTE PTR [eax+2]
  00043	84 d2		 test	 dl, dl
  00045	0f 84 a0 01 00
	00		 je	 $LN94@LoadString
  0004b	80 f2 eb	 xor	 dl, -21			; ffffffebH
  0004e	88 55 e6	 mov	 BYTE PTR __k$[ebp+2], dl
  00051	8a 50 03	 mov	 dl, BYTE PTR [eax+3]
  00054	84 d2		 test	 dl, dl
  00056	0f 84 89 01 00
	00		 je	 $LN93@LoadString
  0005c	80 f2 ea	 xor	 dl, -22			; ffffffeaH
  0005f	88 55 e7	 mov	 BYTE PTR __k$[ebp+3], dl
  00062	8a 50 04	 mov	 dl, BYTE PTR [eax+4]
  00065	84 d2		 test	 dl, dl
  00067	0f 84 72 01 00
	00		 je	 $LN92@LoadString
  0006d	80 f2 ed	 xor	 dl, -19			; ffffffedH
  00070	88 55 e8	 mov	 BYTE PTR __k$[ebp+4], dl
  00073	8a 50 05	 mov	 dl, BYTE PTR [eax+5]
  00076	84 d2		 test	 dl, dl
  00078	0f 84 5c 01 00
	00		 je	 $LN91@LoadString
  0007e	32 d1		 xor	 dl, cl
  00080	88 55 e9	 mov	 BYTE PTR __k$[ebp+5], dl
  00083	8a 50 06	 mov	 dl, BYTE PTR [eax+6]
  00086	84 d2		 test	 dl, dl
  00088	0f 84 46 01 00
	00		 je	 $LN90@LoadString
  0008e	80 f2 eb	 xor	 dl, -21			; ffffffebH
  00091	88 55 ea	 mov	 BYTE PTR __k$[ebp+6], dl
  00094	8a 50 07	 mov	 dl, BYTE PTR [eax+7]
  00097	84 d2		 test	 dl, dl
  00099	0f 84 2f 01 00
	00		 je	 $LN89@LoadString
  0009f	80 f2 ea	 xor	 dl, -22			; ffffffeaH
  000a2	88 55 eb	 mov	 BYTE PTR __k$[ebp+7], dl
  000a5	8a 50 08	 mov	 dl, BYTE PTR [eax+8]
  000a8	84 d2		 test	 dl, dl
  000aa	0f 84 18 01 00
	00		 je	 $LN88@LoadString
  000b0	80 f2 ed	 xor	 dl, -19			; ffffffedH
  000b3	88 55 ec	 mov	 BYTE PTR __k$[ebp+8], dl
  000b6	8a 50 09	 mov	 dl, BYTE PTR [eax+9]
  000b9	84 d2		 test	 dl, dl
  000bb	0f 84 02 01 00
	00		 je	 $LN87@LoadString
  000c1	32 d1		 xor	 dl, cl
  000c3	88 55 ed	 mov	 BYTE PTR __k$[ebp+9], dl
  000c6	8a 50 0a	 mov	 dl, BYTE PTR [eax+10]
  000c9	84 d2		 test	 dl, dl
  000cb	0f 84 ec 00 00
	00		 je	 $LN86@LoadString
  000d1	80 f2 eb	 xor	 dl, -21			; ffffffebH
  000d4	88 55 ee	 mov	 BYTE PTR __k$[ebp+10], dl
  000d7	8a 50 0b	 mov	 dl, BYTE PTR [eax+11]
  000da	84 d2		 test	 dl, dl
  000dc	0f 84 d5 00 00
	00		 je	 $LN85@LoadString
  000e2	80 f2 ea	 xor	 dl, -22			; ffffffeaH
  000e5	88 55 ef	 mov	 BYTE PTR __k$[ebp+11], dl
  000e8	8a 50 0c	 mov	 dl, BYTE PTR [eax+12]
  000eb	84 d2		 test	 dl, dl
  000ed	0f 84 be 00 00
	00		 je	 $LN84@LoadString
  000f3	80 f2 ed	 xor	 dl, -19			; ffffffedH
  000f6	88 55 f0	 mov	 BYTE PTR __k$[ebp+12], dl
  000f9	8a 50 0d	 mov	 dl, BYTE PTR [eax+13]
  000fc	84 d2		 test	 dl, dl
  000fe	0f 84 a8 00 00
	00		 je	 $LN83@LoadString
  00104	32 d1		 xor	 dl, cl
  00106	88 55 f1	 mov	 BYTE PTR __k$[ebp+13], dl
  00109	8a 50 0e	 mov	 dl, BYTE PTR [eax+14]
  0010c	84 d2		 test	 dl, dl
  0010e	0f 84 92 00 00
	00		 je	 $LN82@LoadString
  00114	80 f2 eb	 xor	 dl, -21			; ffffffebH
  00117	88 55 f2	 mov	 BYTE PTR __k$[ebp+14], dl
  0011a	8a 50 0f	 mov	 dl, BYTE PTR [eax+15]
  0011d	84 d2		 test	 dl, dl
  0011f	74 7f		 je	 SHORT $LN81@LoadString
  00121	80 f2 ea	 xor	 dl, -22			; ffffffeaH
  00124	88 55 f3	 mov	 BYTE PTR __k$[ebp+15], dl
  00127	8a 50 10	 mov	 dl, BYTE PTR [eax+16]
  0012a	84 d2		 test	 dl, dl
  0012c	74 6c		 je	 SHORT $LN80@LoadString
  0012e	80 f2 ed	 xor	 dl, -19			; ffffffedH
  00131	88 55 f4	 mov	 BYTE PTR __k$[ebp+16], dl
  00134	8a 50 11	 mov	 dl, BYTE PTR [eax+17]
  00137	84 d2		 test	 dl, dl
  00139	74 5a		 je	 SHORT $LN79@LoadString
  0013b	32 d1		 xor	 dl, cl
  0013d	80 78 12 00	 cmp	 BYTE PTR [eax+18], 0
  00141	88 55 f5	 mov	 BYTE PTR __k$[ebp+17], dl
  00144	0f 84 b1 00 00
	00		 je	 $LN111@LoadString
  0014a	8a 50 13	 mov	 dl, BYTE PTR [eax+19]
  0014d	84 d2		 test	 dl, dl
  0014f	74 3e		 je	 SHORT $LN77@LoadString
  00151	80 f2 ea	 xor	 dl, -22			; ffffffeaH
  00154	88 55 f7	 mov	 BYTE PTR __k$[ebp+19], dl
  00157	8a 50 14	 mov	 dl, BYTE PTR [eax+20]
  0015a	84 d2		 test	 dl, dl
  0015c	74 2b		 je	 SHORT $LN76@LoadString
  0015e	80 f2 ed	 xor	 dl, -19			; ffffffedH
  00161	88 55 f8	 mov	 BYTE PTR __k$[ebp+20], dl
  00164	8a 50 15	 mov	 dl, BYTE PTR [eax+21]
  00167	84 d2		 test	 dl, dl
  00169	74 19		 je	 SHORT $LN75@LoadString
  0016b	8a 40 16	 mov	 al, BYTE PTR [eax+22]
  0016e	32 d1		 xor	 dl, cl
  00170	88 55 f9	 mov	 BYTE PTR __k$[ebp+21], dl
  00173	84 c0		 test	 al, al
  00175	74 07		 je	 SHORT $LN74@LoadString
  00177	34 eb		 xor	 al, -21			; ffffffebH
  00179	88 45 fa	 mov	 BYTE PTR __k$[ebp+22], al
  0017c	eb 7d		 jmp	 SHORT $LN111@LoadString
$LN74@LoadString:
  0017e	c6 45 fa eb	 mov	 BYTE PTR __k$[ebp+22], -21 ; ffffffebH
  00182	eb 77		 jmp	 SHORT $LN111@LoadString
$LN75@LoadString:
  00184	88 4d f9	 mov	 BYTE PTR __k$[ebp+21], cl
  00187	eb 72		 jmp	 SHORT $LN111@LoadString
$LN76@LoadString:
  00189	c6 45 f8 ed	 mov	 BYTE PTR __k$[ebp+20], -19 ; ffffffedH
  0018d	eb 6c		 jmp	 SHORT $LN111@LoadString
$LN77@LoadString:
  0018f	c6 45 f7 ea	 mov	 BYTE PTR __k$[ebp+19], -22 ; ffffffeaH
  00193	eb 66		 jmp	 SHORT $LN111@LoadString
$LN79@LoadString:
  00195	88 4d f5	 mov	 BYTE PTR __k$[ebp+17], cl
  00198	eb 61		 jmp	 SHORT $LN111@LoadString
$LN80@LoadString:
  0019a	c6 45 f4 ed	 mov	 BYTE PTR __k$[ebp+16], -19 ; ffffffedH
  0019e	eb 5b		 jmp	 SHORT $LN111@LoadString
$LN81@LoadString:
  001a0	c6 45 f3 ea	 mov	 BYTE PTR __k$[ebp+15], -22 ; ffffffeaH
  001a4	eb 55		 jmp	 SHORT $LN111@LoadString
$LN82@LoadString:
  001a6	c6 45 f2 eb	 mov	 BYTE PTR __k$[ebp+14], -21 ; ffffffebH
  001aa	eb 4f		 jmp	 SHORT $LN111@LoadString
$LN83@LoadString:
  001ac	88 4d f1	 mov	 BYTE PTR __k$[ebp+13], cl
  001af	eb 4a		 jmp	 SHORT $LN111@LoadString
$LN84@LoadString:
  001b1	c6 45 f0 ed	 mov	 BYTE PTR __k$[ebp+12], -19 ; ffffffedH
  001b5	eb 44		 jmp	 SHORT $LN111@LoadString
$LN85@LoadString:
  001b7	c6 45 ef ea	 mov	 BYTE PTR __k$[ebp+11], -22 ; ffffffeaH
  001bb	eb 3e		 jmp	 SHORT $LN111@LoadString
$LN86@LoadString:
  001bd	c6 45 ee eb	 mov	 BYTE PTR __k$[ebp+10], -21 ; ffffffebH
  001c1	eb 38		 jmp	 SHORT $LN111@LoadString
$LN87@LoadString:
  001c3	88 4d ed	 mov	 BYTE PTR __k$[ebp+9], cl
  001c6	eb 33		 jmp	 SHORT $LN111@LoadString
$LN88@LoadString:
  001c8	c6 45 ec ed	 mov	 BYTE PTR __k$[ebp+8], -19 ; ffffffedH
  001cc	eb 2d		 jmp	 SHORT $LN111@LoadString
$LN89@LoadString:
  001ce	c6 45 eb ea	 mov	 BYTE PTR __k$[ebp+7], -22 ; ffffffeaH
  001d2	eb 27		 jmp	 SHORT $LN111@LoadString
$LN90@LoadString:
  001d4	c6 45 ea eb	 mov	 BYTE PTR __k$[ebp+6], -21 ; ffffffebH
  001d8	eb 21		 jmp	 SHORT $LN111@LoadString
$LN91@LoadString:
  001da	88 4d e9	 mov	 BYTE PTR __k$[ebp+5], cl
  001dd	eb 1c		 jmp	 SHORT $LN111@LoadString
$LN92@LoadString:
  001df	c6 45 e8 ed	 mov	 BYTE PTR __k$[ebp+4], -19 ; ffffffedH
  001e3	eb 16		 jmp	 SHORT $LN111@LoadString
$LN93@LoadString:
  001e5	c6 45 e7 ea	 mov	 BYTE PTR __k$[ebp+3], -22 ; ffffffeaH
  001e9	eb 10		 jmp	 SHORT $LN111@LoadString
$LN94@LoadString:
  001eb	c6 45 e6 eb	 mov	 BYTE PTR __k$[ebp+2], -21 ; ffffffebH
  001ef	eb 0a		 jmp	 SHORT $LN111@LoadString
$LN95@LoadString:
  001f1	c6 45 e5 ec	 mov	 BYTE PTR __k$[ebp+1], -20 ; ffffffecH
  001f5	eb 04		 jmp	 SHORT $LN111@LoadString
$LN96@LoadString:
  001f7	c6 45 e4 ed	 mov	 BYTE PTR __k$[ebp], -19	; ffffffedH
$LN111@LoadString:
  001fb	6a 04		 push	 4
  001fd	8d 45 e4	 lea	 eax, DWORD PTR __k$[ebp]
  00200	c6 45 f6 00	 mov	 BYTE PTR __k$[ebp+18], 0
  00204	5a		 pop	 edx
$LL104@LoadString:
  00205	81 30 ed ec eb
	ea		 xor	 DWORD PTR [eax], -353637139 ; eaebecedH
  0020b	83 c0 04	 add	 eax, 4
  0020e	4a		 dec	 edx
  0020f	75 f4		 jne	 SHORT $LL104@LoadString
  00211	6a 10		 push	 16			; 00000010H
  00213	58		 pop	 eax
$LL101@LoadString:
  00214	8b c8		 mov	 ecx, eax
  00216	81 e1 03 00 00
	80		 and	 ecx, -2147483645	; 80000003H
  0021c	79 05		 jns	 SHORT $LN112@LoadString
  0021e	49		 dec	 ecx
  0021f	83 c9 fc	 or	 ecx, -4			; fffffffcH
  00222	41		 inc	 ecx
$LN112@LoadString:
  00223	b2 ed		 mov	 dl, -19			; ffffffedH
  00225	2a d1		 sub	 dl, cl
  00227	30 54 05 e4	 xor	 BYTE PTR __k$[ebp+eax], dl
  0022b	40		 inc	 eax
  0022c	83 f8 12	 cmp	 eax, 18			; 00000012H
  0022f	7c e3		 jl	 SHORT $LL101@LoadString

; 163  : 		LoadString(_k, d, b, i);

  00231	ff 75 14	 push	 DWORD PTR _i$[ebp]
  00234	8b 4d e0	 mov	 ecx, DWORD PTR _this$GSCopy$[ebp]
  00237	57		 push	 edi
  00238	56		 push	 esi
  00239	8d 45 e4	 lea	 eax, DWORD PTR __k$[ebp]
  0023c	50		 push	 eax
  0023d	ff 15 00 00 00
	00		 call	 DWORD PTR __imp_?LoadStringA@ioINILoader@@QAEXPBD0PADH@Z

; 164  : 	}

  00243	8b 4d fc	 mov	 ecx, DWORD PTR __$ArrayPad$[ebp]
  00246	5f		 pop	 edi
  00247	33 cd		 xor	 ecx, ebp
  00249	5e		 pop	 esi
  0024a	e8 00 00 00 00	 call	 @__security_check_cookie@4
  0024f	c9		 leave
  00250	c2 10 00	 ret	 16			; 00000010H
??$LoadString_e@$0BD@@ioINILoader@@QAEXAAY0BD@$$CBDAAY00$$CBDPADH@Z ENDP ; ioINILoader::LoadString_e<19>
_TEXT	ENDS
PUBLIC	_this$GSCopy$
PUBLIC	__$ArrayPad$
PUBLIC	??$LoadString_e@$0BC@@ioINILoader@@QAEXAAY0BC@$$CBDAAY00$$CBDPADH@Z ; ioINILoader::LoadString_e<18>
; Function compile flags: /Ogsp
;	COMDAT ??$LoadString_e@$0BC@@ioINILoader@@QAEXAAY0BC@$$CBDAAY00$$CBDPADH@Z
_TEXT	SEGMENT
_this$GSCopy$ = -32					; size = 4
__k$ = -28						; size = 18
__$ArrayPad$ = -4					; size = 4
_k$ = 8							; size = 4
_d$ = 12						; size = 4
_b$ = 16						; size = 4
_i$ = 20						; size = 4
??$LoadString_e@$0BC@@ioINILoader@@QAEXAAY0BC@$$CBDAAY00$$CBDPADH@Z PROC ; ioINILoader::LoadString_e<18>, COMDAT
; _this$ = ecx

; 161  : 	{

  00000	55		 push	 ebp
  00001	8b ec		 mov	 ebp, esp
  00003	83 ec 20	 sub	 esp, 32			; 00000020H
  00006	a1 00 00 00 00	 mov	 eax, DWORD PTR ___security_cookie
  0000b	33 c5		 xor	 eax, ebp
  0000d	89 45 fc	 mov	 DWORD PTR __$ArrayPad$[ebp], eax
  00010	8b 45 08	 mov	 eax, DWORD PTR _k$[ebp]

; 162  : 		_ENCSTR(k, _k);

  00013	8a 10		 mov	 dl, BYTE PTR [eax]
  00015	56		 push	 esi
  00016	8b 75 0c	 mov	 esi, DWORD PTR _d$[ebp]
  00019	57		 push	 edi
  0001a	8b 7d 10	 mov	 edi, DWORD PTR _b$[ebp]
  0001d	89 4d e0	 mov	 DWORD PTR _this$GSCopy$[ebp], ecx
  00020	84 d2		 test	 dl, dl
  00022	0f 84 be 01 00
	00		 je	 $LN96@LoadString@2
  00028	80 f2 ed	 xor	 dl, -19			; ffffffedH
  0002b	88 55 e4	 mov	 BYTE PTR __k$[ebp], dl
  0002e	8a 50 01	 mov	 dl, BYTE PTR [eax+1]
  00031	84 d2		 test	 dl, dl
  00033	0f 84 a7 01 00
	00		 je	 $LN95@LoadString@2
  00039	80 f2 ec	 xor	 dl, -20			; ffffffecH
  0003c	88 55 e5	 mov	 BYTE PTR __k$[ebp+1], dl
  0003f	8a 50 02	 mov	 dl, BYTE PTR [eax+2]
  00042	84 d2		 test	 dl, dl
  00044	0f 84 90 01 00
	00		 je	 $LN94@LoadString@2
  0004a	b1 eb		 mov	 cl, -21			; ffffffebH
  0004c	32 d1		 xor	 dl, cl
  0004e	88 55 e6	 mov	 BYTE PTR __k$[ebp+2], dl
  00051	8a 50 03	 mov	 dl, BYTE PTR [eax+3]
  00054	84 d2		 test	 dl, dl
  00056	0f 84 78 01 00
	00		 je	 $LN93@LoadString@2
  0005c	80 f2 ea	 xor	 dl, -22			; ffffffeaH
  0005f	88 55 e7	 mov	 BYTE PTR __k$[ebp+3], dl
  00062	8a 50 04	 mov	 dl, BYTE PTR [eax+4]
  00065	84 d2		 test	 dl, dl
  00067	0f 84 61 01 00
	00		 je	 $LN92@LoadString@2
  0006d	80 f2 ed	 xor	 dl, -19			; ffffffedH
  00070	88 55 e8	 mov	 BYTE PTR __k$[ebp+4], dl
  00073	8a 50 05	 mov	 dl, BYTE PTR [eax+5]
  00076	84 d2		 test	 dl, dl
  00078	0f 84 4a 01 00
	00		 je	 $LN91@LoadString@2
  0007e	80 f2 ec	 xor	 dl, -20			; ffffffecH
  00081	88 55 e9	 mov	 BYTE PTR __k$[ebp+5], dl
  00084	8a 50 06	 mov	 dl, BYTE PTR [eax+6]
  00087	84 d2		 test	 dl, dl
  00089	0f 84 34 01 00
	00		 je	 $LN90@LoadString@2
  0008f	32 d1		 xor	 dl, cl
  00091	88 55 ea	 mov	 BYTE PTR __k$[ebp+6], dl
  00094	8a 50 07	 mov	 dl, BYTE PTR [eax+7]
  00097	84 d2		 test	 dl, dl
  00099	0f 84 1e 01 00
	00		 je	 $LN89@LoadString@2
  0009f	80 f2 ea	 xor	 dl, -22			; ffffffeaH
  000a2	88 55 eb	 mov	 BYTE PTR __k$[ebp+7], dl
  000a5	8a 50 08	 mov	 dl, BYTE PTR [eax+8]
  000a8	84 d2		 test	 dl, dl
  000aa	0f 84 07 01 00
	00		 je	 $LN88@LoadString@2
  000b0	80 f2 ed	 xor	 dl, -19			; ffffffedH
  000b3	88 55 ec	 mov	 BYTE PTR __k$[ebp+8], dl
  000b6	8a 50 09	 mov	 dl, BYTE PTR [eax+9]
  000b9	84 d2		 test	 dl, dl
  000bb	0f 84 f0 00 00
	00		 je	 $LN87@LoadString@2
  000c1	80 f2 ec	 xor	 dl, -20			; ffffffecH
  000c4	88 55 ed	 mov	 BYTE PTR __k$[ebp+9], dl
  000c7	8a 50 0a	 mov	 dl, BYTE PTR [eax+10]
  000ca	84 d2		 test	 dl, dl
  000cc	0f 84 da 00 00
	00		 je	 $LN86@LoadString@2
  000d2	32 d1		 xor	 dl, cl
  000d4	88 55 ee	 mov	 BYTE PTR __k$[ebp+10], dl
  000d7	8a 50 0b	 mov	 dl, BYTE PTR [eax+11]
  000da	84 d2		 test	 dl, dl
  000dc	0f 84 c4 00 00
	00		 je	 $LN85@LoadString@2
  000e2	80 f2 ea	 xor	 dl, -22			; ffffffeaH
  000e5	88 55 ef	 mov	 BYTE PTR __k$[ebp+11], dl
  000e8	8a 50 0c	 mov	 dl, BYTE PTR [eax+12]
  000eb	84 d2		 test	 dl, dl
  000ed	0f 84 ad 00 00
	00		 je	 $LN84@LoadString@2
  000f3	80 f2 ed	 xor	 dl, -19			; ffffffedH
  000f6	88 55 f0	 mov	 BYTE PTR __k$[ebp+12], dl
  000f9	8a 50 0d	 mov	 dl, BYTE PTR [eax+13]
  000fc	84 d2		 test	 dl, dl
  000fe	0f 84 96 00 00
	00		 je	 $LN83@LoadString@2
  00104	80 f2 ec	 xor	 dl, -20			; ffffffecH
  00107	88 55 f1	 mov	 BYTE PTR __k$[ebp+13], dl
  0010a	8a 50 0e	 mov	 dl, BYTE PTR [eax+14]
  0010d	84 d2		 test	 dl, dl
  0010f	0f 84 80 00 00
	00		 je	 $LN82@LoadString@2
  00115	32 d1		 xor	 dl, cl
  00117	88 55 f2	 mov	 BYTE PTR __k$[ebp+14], dl
  0011a	8a 50 0f	 mov	 dl, BYTE PTR [eax+15]
  0011d	84 d2		 test	 dl, dl
  0011f	74 6e		 je	 SHORT $LN81@LoadString@2
  00121	80 f2 ea	 xor	 dl, -22			; ffffffeaH
  00124	88 55 f3	 mov	 BYTE PTR __k$[ebp+15], dl
  00127	8a 50 10	 mov	 dl, BYTE PTR [eax+16]
  0012a	84 d2		 test	 dl, dl
  0012c	74 5b		 je	 SHORT $LN80@LoadString@2
  0012e	80 f2 ed	 xor	 dl, -19			; ffffffedH
  00131	80 78 11 00	 cmp	 BYTE PTR [eax+17], 0
  00135	88 55 f4	 mov	 BYTE PTR __k$[ebp+16], dl
  00138	0f 84 ac 00 00
	00		 je	 $LN111@LoadString@2
  0013e	8a 50 12	 mov	 dl, BYTE PTR [eax+18]
  00141	84 d2		 test	 dl, dl
  00143	74 3f		 je	 SHORT $LN78@LoadString@2
  00145	32 d1		 xor	 dl, cl
  00147	88 55 f6	 mov	 BYTE PTR __k$[ebp+18], dl
  0014a	8a 50 13	 mov	 dl, BYTE PTR [eax+19]
  0014d	84 d2		 test	 dl, dl
  0014f	74 2d		 je	 SHORT $LN77@LoadString@2
  00151	80 f2 ea	 xor	 dl, -22			; ffffffeaH
  00154	88 55 f7	 mov	 BYTE PTR __k$[ebp+19], dl
  00157	8a 50 14	 mov	 dl, BYTE PTR [eax+20]
  0015a	84 d2		 test	 dl, dl
  0015c	74 1a		 je	 SHORT $LN76@LoadString@2
  0015e	8a 40 15	 mov	 al, BYTE PTR [eax+21]
  00161	80 f2 ed	 xor	 dl, -19			; ffffffedH
  00164	88 55 f8	 mov	 BYTE PTR __k$[ebp+20], dl
  00167	84 c0		 test	 al, al
  00169	74 07		 je	 SHORT $LN75@LoadString@2
  0016b	34 ec		 xor	 al, -20			; ffffffecH
  0016d	88 45 f9	 mov	 BYTE PTR __k$[ebp+21], al
  00170	eb 78		 jmp	 SHORT $LN111@LoadString@2
$LN75@LoadString@2:
  00172	c6 45 f9 ec	 mov	 BYTE PTR __k$[ebp+21], -20 ; ffffffecH
  00176	eb 72		 jmp	 SHORT $LN111@LoadString@2
$LN76@LoadString@2:
  00178	c6 45 f8 ed	 mov	 BYTE PTR __k$[ebp+20], -19 ; ffffffedH
  0017c	eb 6c		 jmp	 SHORT $LN111@LoadString@2
$LN77@LoadString@2:
  0017e	c6 45 f7 ea	 mov	 BYTE PTR __k$[ebp+19], -22 ; ffffffeaH
  00182	eb 66		 jmp	 SHORT $LN111@LoadString@2
$LN78@LoadString@2:
  00184	88 4d f6	 mov	 BYTE PTR __k$[ebp+18], cl
  00187	eb 61		 jmp	 SHORT $LN111@LoadString@2
$LN80@LoadString@2:
  00189	c6 45 f4 ed	 mov	 BYTE PTR __k$[ebp+16], -19 ; ffffffedH
  0018d	eb 5b		 jmp	 SHORT $LN111@LoadString@2
$LN81@LoadString@2:
  0018f	c6 45 f3 ea	 mov	 BYTE PTR __k$[ebp+15], -22 ; ffffffeaH
  00193	eb 55		 jmp	 SHORT $LN111@LoadString@2
$LN82@LoadString@2:
  00195	88 4d f2	 mov	 BYTE PTR __k$[ebp+14], cl
  00198	eb 50		 jmp	 SHORT $LN111@LoadString@2
$LN83@LoadString@2:
  0019a	c6 45 f1 ec	 mov	 BYTE PTR __k$[ebp+13], -20 ; ffffffecH
  0019e	eb 4a		 jmp	 SHORT $LN111@LoadString@2
$LN84@LoadString@2:
  001a0	c6 45 f0 ed	 mov	 BYTE PTR __k$[ebp+12], -19 ; ffffffedH
  001a4	eb 44		 jmp	 SHORT $LN111@LoadString@2
$LN85@LoadString@2:
  001a6	c6 45 ef ea	 mov	 BYTE PTR __k$[ebp+11], -22 ; ffffffeaH
  001aa	eb 3e		 jmp	 SHORT $LN111@LoadString@2
$LN86@LoadString@2:
  001ac	88 4d ee	 mov	 BYTE PTR __k$[ebp+10], cl
  001af	eb 39		 jmp	 SHORT $LN111@LoadString@2
$LN87@LoadString@2:
  001b1	c6 45 ed ec	 mov	 BYTE PTR __k$[ebp+9], -20 ; ffffffecH
  001b5	eb 33		 jmp	 SHORT $LN111@LoadString@2
$LN88@LoadString@2:
  001b7	c6 45 ec ed	 mov	 BYTE PTR __k$[ebp+8], -19 ; ffffffedH
  001bb	eb 2d		 jmp	 SHORT $LN111@LoadString@2
$LN89@LoadString@2:
  001bd	c6 45 eb ea	 mov	 BYTE PTR __k$[ebp+7], -22 ; ffffffeaH
  001c1	eb 27		 jmp	 SHORT $LN111@LoadString@2
$LN90@LoadString@2:
  001c3	88 4d ea	 mov	 BYTE PTR __k$[ebp+6], cl
  001c6	eb 22		 jmp	 SHORT $LN111@LoadString@2
$LN91@LoadString@2:
  001c8	c6 45 e9 ec	 mov	 BYTE PTR __k$[ebp+5], -20 ; ffffffecH
  001cc	eb 1c		 jmp	 SHORT $LN111@LoadString@2
$LN92@LoadString@2:
  001ce	c6 45 e8 ed	 mov	 BYTE PTR __k$[ebp+4], -19 ; ffffffedH
  001d2	eb 16		 jmp	 SHORT $LN111@LoadString@2
$LN93@LoadString@2:
  001d4	c6 45 e7 ea	 mov	 BYTE PTR __k$[ebp+3], -22 ; ffffffeaH
  001d8	eb 10		 jmp	 SHORT $LN111@LoadString@2
$LN94@LoadString@2:
  001da	c6 45 e6 eb	 mov	 BYTE PTR __k$[ebp+2], -21 ; ffffffebH
  001de	eb 0a		 jmp	 SHORT $LN111@LoadString@2
$LN95@LoadString@2:
  001e0	c6 45 e5 ec	 mov	 BYTE PTR __k$[ebp+1], -20 ; ffffffecH
  001e4	eb 04		 jmp	 SHORT $LN111@LoadString@2
$LN96@LoadString@2:
  001e6	c6 45 e4 ed	 mov	 BYTE PTR __k$[ebp], -19	; ffffffedH
$LN111@LoadString@2:
  001ea	6a 04		 push	 4
  001ec	8d 45 e4	 lea	 eax, DWORD PTR __k$[ebp]
  001ef	c6 45 f5 00	 mov	 BYTE PTR __k$[ebp+17], 0
  001f3	5a		 pop	 edx
$LL104@LoadString@2:
  001f4	81 30 ed ec eb
	ea		 xor	 DWORD PTR [eax], -353637139 ; eaebecedH
  001fa	83 c0 04	 add	 eax, 4
  001fd	4a		 dec	 edx
  001fe	75 f4		 jne	 SHORT $LL104@LoadString@2

; 163  : 		LoadString(_k, d, b, i);

  00200	ff 75 14	 push	 DWORD PTR _i$[ebp]
  00203	8b 4d e0	 mov	 ecx, DWORD PTR _this$GSCopy$[ebp]
  00206	80 75 f4 ed	 xor	 BYTE PTR __k$[ebp+16], -19 ; ffffffedH
  0020a	57		 push	 edi
  0020b	56		 push	 esi
  0020c	8d 45 e4	 lea	 eax, DWORD PTR __k$[ebp]
  0020f	50		 push	 eax
  00210	ff 15 00 00 00
	00		 call	 DWORD PTR __imp_?LoadStringA@ioINILoader@@QAEXPBD0PADH@Z

; 164  : 	}

  00216	8b 4d fc	 mov	 ecx, DWORD PTR __$ArrayPad$[ebp]
  00219	5f		 pop	 edi
  0021a	33 cd		 xor	 ecx, ebp
  0021c	5e		 pop	 esi
  0021d	e8 00 00 00 00	 call	 @__security_check_cookie@4
  00222	c9		 leave
  00223	c2 10 00	 ret	 16			; 00000010H
??$LoadString_e@$0BC@@ioINILoader@@QAEXAAY0BC@$$CBDAAY00$$CBDPADH@Z ENDP ; ioINILoader::LoadString_e<18>
_TEXT	ENDS
PUBLIC	__$ArrayPad$
PUBLIC	??$LoadInt_e@$0BH@@ioINILoader@@QAEHAAY0BH@$$CBDH@Z ; ioINILoader::LoadInt_e<23>
; Function compile flags: /Ogsp
;	COMDAT ??$LoadInt_e@$0BH@@ioINILoader@@QAEHAAY0BH@$$CBDH@Z
_TEXT	SEGMENT
__k$ = -32						; size = 23
__$ArrayPad$ = -4					; size = 4
_k$ = 8							; size = 4
_i$ = 12						; size = 4
??$LoadInt_e@$0BH@@ioINILoader@@QAEHAAY0BH@$$CBDH@Z PROC ; ioINILoader::LoadInt_e<23>, COMDAT
; _this$ = ecx

; 118  : 	{

  00000	55		 push	 ebp
  00001	8b ec		 mov	 ebp, esp
  00003	83 ec 20	 sub	 esp, 32			; 00000020H
  00006	a1 00 00 00 00	 mov	 eax, DWORD PTR ___security_cookie
  0000b	33 c5		 xor	 eax, ebp
  0000d	89 45 fc	 mov	 DWORD PTR __$ArrayPad$[ebp], eax
  00010	8b 45 08	 mov	 eax, DWORD PTR _k$[ebp]

; 119  : 		_ENCSTR(k, _k);

  00013	8a 10		 mov	 dl, BYTE PTR [eax]
  00015	53		 push	 ebx
  00016	56		 push	 esi
  00017	8b f1		 mov	 esi, ecx
  00019	84 d2		 test	 dl, dl
  0001b	0f 84 2d 02 00
	00		 je	 $LN96@LoadInt_e@2
  00021	80 f2 ed	 xor	 dl, -19			; ffffffedH
  00024	88 55 e0	 mov	 BYTE PTR __k$[ebp], dl
  00027	8a 50 01	 mov	 dl, BYTE PTR [eax+1]
  0002a	84 d2		 test	 dl, dl
  0002c	0f 84 16 02 00
	00		 je	 $LN95@LoadInt_e@2
  00032	b1 ec		 mov	 cl, -20			; ffffffecH
  00034	32 d1		 xor	 dl, cl
  00036	88 55 e1	 mov	 BYTE PTR __k$[ebp+1], dl
  00039	8a 50 02	 mov	 dl, BYTE PTR [eax+2]
  0003c	84 d2		 test	 dl, dl
  0003e	0f 84 fe 01 00
	00		 je	 $LN94@LoadInt_e@2
  00044	80 f2 eb	 xor	 dl, -21			; ffffffebH
  00047	88 55 e2	 mov	 BYTE PTR __k$[ebp+2], dl
  0004a	8a 50 03	 mov	 dl, BYTE PTR [eax+3]
  0004d	84 d2		 test	 dl, dl
  0004f	0f 84 e7 01 00
	00		 je	 $LN93@LoadInt_e@2
  00055	b3 ea		 mov	 bl, -22			; ffffffeaH
  00057	32 d3		 xor	 dl, bl
  00059	88 55 e3	 mov	 BYTE PTR __k$[ebp+3], dl
  0005c	8a 50 04	 mov	 dl, BYTE PTR [eax+4]
  0005f	84 d2		 test	 dl, dl
  00061	0f 84 cf 01 00
	00		 je	 $LN92@LoadInt_e@2
  00067	80 f2 ed	 xor	 dl, -19			; ffffffedH
  0006a	88 55 e4	 mov	 BYTE PTR __k$[ebp+4], dl
  0006d	8a 50 05	 mov	 dl, BYTE PTR [eax+5]
  00070	84 d2		 test	 dl, dl
  00072	0f 84 b9 01 00
	00		 je	 $LN91@LoadInt_e@2
  00078	32 d1		 xor	 dl, cl
  0007a	88 55 e5	 mov	 BYTE PTR __k$[ebp+5], dl
  0007d	8a 50 06	 mov	 dl, BYTE PTR [eax+6]
  00080	84 d2		 test	 dl, dl
  00082	0f 84 a3 01 00
	00		 je	 $LN90@LoadInt_e@2
  00088	80 f2 eb	 xor	 dl, -21			; ffffffebH
  0008b	88 55 e6	 mov	 BYTE PTR __k$[ebp+6], dl
  0008e	8a 50 07	 mov	 dl, BYTE PTR [eax+7]
  00091	84 d2		 test	 dl, dl
  00093	0f 84 8d 01 00
	00		 je	 $LN89@LoadInt_e@2
  00099	32 d3		 xor	 dl, bl
  0009b	88 55 e7	 mov	 BYTE PTR __k$[ebp+7], dl
  0009e	8a 50 08	 mov	 dl, BYTE PTR [eax+8]
  000a1	84 d2		 test	 dl, dl
  000a3	0f 84 77 01 00
	00		 je	 $LN88@LoadInt_e@2
  000a9	80 f2 ed	 xor	 dl, -19			; ffffffedH
  000ac	88 55 e8	 mov	 BYTE PTR __k$[ebp+8], dl
  000af	8a 50 09	 mov	 dl, BYTE PTR [eax+9]
  000b2	84 d2		 test	 dl, dl
  000b4	0f 84 61 01 00
	00		 je	 $LN87@LoadInt_e@2
  000ba	32 d1		 xor	 dl, cl
  000bc	88 55 e9	 mov	 BYTE PTR __k$[ebp+9], dl
  000bf	8a 50 0a	 mov	 dl, BYTE PTR [eax+10]
  000c2	84 d2		 test	 dl, dl
  000c4	0f 84 4b 01 00
	00		 je	 $LN86@LoadInt_e@2
  000ca	80 f2 eb	 xor	 dl, -21			; ffffffebH
  000cd	88 55 ea	 mov	 BYTE PTR __k$[ebp+10], dl
  000d0	8a 50 0b	 mov	 dl, BYTE PTR [eax+11]
  000d3	84 d2		 test	 dl, dl
  000d5	0f 84 35 01 00
	00		 je	 $LN85@LoadInt_e@2
  000db	32 d3		 xor	 dl, bl
  000dd	88 55 eb	 mov	 BYTE PTR __k$[ebp+11], dl
  000e0	8a 50 0c	 mov	 dl, BYTE PTR [eax+12]
  000e3	84 d2		 test	 dl, dl
  000e5	0f 84 1f 01 00
	00		 je	 $LN84@LoadInt_e@2
  000eb	80 f2 ed	 xor	 dl, -19			; ffffffedH
  000ee	88 55 ec	 mov	 BYTE PTR __k$[ebp+12], dl
  000f1	8a 50 0d	 mov	 dl, BYTE PTR [eax+13]
  000f4	84 d2		 test	 dl, dl
  000f6	0f 84 09 01 00
	00		 je	 $LN83@LoadInt_e@2
  000fc	32 d1		 xor	 dl, cl
  000fe	88 55 ed	 mov	 BYTE PTR __k$[ebp+13], dl
  00101	8a 50 0e	 mov	 dl, BYTE PTR [eax+14]
  00104	84 d2		 test	 dl, dl
  00106	0f 84 f3 00 00
	00		 je	 $LN82@LoadInt_e@2
  0010c	80 f2 eb	 xor	 dl, -21			; ffffffebH
  0010f	88 55 ee	 mov	 BYTE PTR __k$[ebp+14], dl
  00112	8a 50 0f	 mov	 dl, BYTE PTR [eax+15]
  00115	84 d2		 test	 dl, dl
  00117	0f 84 dd 00 00
	00		 je	 $LN81@LoadInt_e@2
  0011d	32 d3		 xor	 dl, bl
  0011f	88 55 ef	 mov	 BYTE PTR __k$[ebp+15], dl
  00122	8a 50 10	 mov	 dl, BYTE PTR [eax+16]
  00125	84 d2		 test	 dl, dl
  00127	0f 84 c7 00 00
	00		 je	 $LN80@LoadInt_e@2
  0012d	80 f2 ed	 xor	 dl, -19			; ffffffedH
  00130	88 55 f0	 mov	 BYTE PTR __k$[ebp+16], dl
  00133	8a 50 11	 mov	 dl, BYTE PTR [eax+17]
  00136	84 d2		 test	 dl, dl
  00138	0f 84 b1 00 00
	00		 je	 $LN79@LoadInt_e@2
  0013e	32 d1		 xor	 dl, cl
  00140	88 55 f1	 mov	 BYTE PTR __k$[ebp+17], dl
  00143	8a 50 12	 mov	 dl, BYTE PTR [eax+18]
  00146	84 d2		 test	 dl, dl
  00148	0f 84 9b 00 00
	00		 je	 $LN78@LoadInt_e@2
  0014e	80 f2 eb	 xor	 dl, -21			; ffffffebH
  00151	88 55 f2	 mov	 BYTE PTR __k$[ebp+18], dl
  00154	8a 50 13	 mov	 dl, BYTE PTR [eax+19]
  00157	84 d2		 test	 dl, dl
  00159	0f 84 85 00 00
	00		 je	 $LN77@LoadInt_e@2
  0015f	32 d3		 xor	 dl, bl
  00161	88 55 f3	 mov	 BYTE PTR __k$[ebp+19], dl
  00164	8a 50 14	 mov	 dl, BYTE PTR [eax+20]
  00167	84 d2		 test	 dl, dl
  00169	74 73		 je	 SHORT $LN76@LoadInt_e@2
  0016b	80 f2 ed	 xor	 dl, -19			; ffffffedH
  0016e	88 55 f4	 mov	 BYTE PTR __k$[ebp+20], dl
  00171	8a 50 15	 mov	 dl, BYTE PTR [eax+21]
  00174	84 d2		 test	 dl, dl
  00176	74 61		 je	 SHORT $LN75@LoadInt_e@2
  00178	32 d1		 xor	 dl, cl
  0017a	80 78 16 00	 cmp	 BYTE PTR [eax+22], 0
  0017e	88 55 f5	 mov	 BYTE PTR __k$[ebp+21], dl
  00181	0f 84 cb 00 00
	00		 je	 $LN1@LoadInt_e@2
  00187	8a 50 17	 mov	 dl, BYTE PTR [eax+23]
  0018a	84 d2		 test	 dl, dl
  0018c	74 46		 je	 SHORT $LN73@LoadInt_e@2
  0018e	32 d3		 xor	 dl, bl
  00190	88 55 f7	 mov	 BYTE PTR __k$[ebp+23], dl
  00193	8a 50 18	 mov	 dl, BYTE PTR [eax+24]
  00196	84 d2		 test	 dl, dl
  00198	74 34		 je	 SHORT $LN72@LoadInt_e@2
  0019a	80 f2 ed	 xor	 dl, -19			; ffffffedH
  0019d	88 55 f8	 mov	 BYTE PTR __k$[ebp+24], dl
  001a0	8a 50 19	 mov	 dl, BYTE PTR [eax+25]
  001a3	84 d2		 test	 dl, dl
  001a5	74 1f		 je	 SHORT $LN71@LoadInt_e@2
  001a7	8a 40 1a	 mov	 al, BYTE PTR [eax+26]
  001aa	32 d1		 xor	 dl, cl
  001ac	88 55 f9	 mov	 BYTE PTR __k$[ebp+25], dl
  001af	84 c0		 test	 al, al
  001b1	74 0a		 je	 SHORT $LN70@LoadInt_e@2
  001b3	34 eb		 xor	 al, -21			; ffffffebH
  001b5	88 45 fa	 mov	 BYTE PTR __k$[ebp+26], al
  001b8	e9 95 00 00 00	 jmp	 $LN1@LoadInt_e@2
$LN70@LoadInt_e@2:
  001bd	c6 45 fa eb	 mov	 BYTE PTR __k$[ebp+26], -21 ; ffffffebH
  001c1	e9 8c 00 00 00	 jmp	 $LN1@LoadInt_e@2
$LN71@LoadInt_e@2:
  001c6	88 4d f9	 mov	 BYTE PTR __k$[ebp+25], cl
  001c9	e9 84 00 00 00	 jmp	 $LN1@LoadInt_e@2
$LN72@LoadInt_e@2:
  001ce	c6 45 f8 ed	 mov	 BYTE PTR __k$[ebp+24], -19 ; ffffffedH
  001d2	eb 7e		 jmp	 SHORT $LN1@LoadInt_e@2
$LN73@LoadInt_e@2:
  001d4	88 5d f7	 mov	 BYTE PTR __k$[ebp+23], bl
  001d7	eb 79		 jmp	 SHORT $LN1@LoadInt_e@2
$LN75@LoadInt_e@2:
  001d9	88 4d f5	 mov	 BYTE PTR __k$[ebp+21], cl
  001dc	eb 74		 jmp	 SHORT $LN1@LoadInt_e@2
$LN76@LoadInt_e@2:
  001de	c6 45 f4 ed	 mov	 BYTE PTR __k$[ebp+20], -19 ; ffffffedH
  001e2	eb 6e		 jmp	 SHORT $LN1@LoadInt_e@2
$LN77@LoadInt_e@2:
  001e4	88 5d f3	 mov	 BYTE PTR __k$[ebp+19], bl
  001e7	eb 69		 jmp	 SHORT $LN1@LoadInt_e@2
$LN78@LoadInt_e@2:
  001e9	c6 45 f2 eb	 mov	 BYTE PTR __k$[ebp+18], -21 ; ffffffebH
  001ed	eb 63		 jmp	 SHORT $LN1@LoadInt_e@2
$LN79@LoadInt_e@2:
  001ef	88 4d f1	 mov	 BYTE PTR __k$[ebp+17], cl
  001f2	eb 5e		 jmp	 SHORT $LN1@LoadInt_e@2
$LN80@LoadInt_e@2:
  001f4	c6 45 f0 ed	 mov	 BYTE PTR __k$[ebp+16], -19 ; ffffffedH
  001f8	eb 58		 jmp	 SHORT $LN1@LoadInt_e@2
$LN81@LoadInt_e@2:
  001fa	88 5d ef	 mov	 BYTE PTR __k$[ebp+15], bl
  001fd	eb 53		 jmp	 SHORT $LN1@LoadInt_e@2
$LN82@LoadInt_e@2:
  001ff	c6 45 ee eb	 mov	 BYTE PTR __k$[ebp+14], -21 ; ffffffebH
  00203	eb 4d		 jmp	 SHORT $LN1@LoadInt_e@2
$LN83@LoadInt_e@2:
  00205	88 4d ed	 mov	 BYTE PTR __k$[ebp+13], cl
  00208	eb 48		 jmp	 SHORT $LN1@LoadInt_e@2
$LN84@LoadInt_e@2:
  0020a	c6 45 ec ed	 mov	 BYTE PTR __k$[ebp+12], -19 ; ffffffedH
  0020e	eb 42		 jmp	 SHORT $LN1@LoadInt_e@2
$LN85@LoadInt_e@2:
  00210	88 5d eb	 mov	 BYTE PTR __k$[ebp+11], bl
  00213	eb 3d		 jmp	 SHORT $LN1@LoadInt_e@2
$LN86@LoadInt_e@2:
  00215	c6 45 ea eb	 mov	 BYTE PTR __k$[ebp+10], -21 ; ffffffebH
  00219	eb 37		 jmp	 SHORT $LN1@LoadInt_e@2
$LN87@LoadInt_e@2:
  0021b	88 4d e9	 mov	 BYTE PTR __k$[ebp+9], cl
  0021e	eb 32		 jmp	 SHORT $LN1@LoadInt_e@2
$LN88@LoadInt_e@2:
  00220	c6 45 e8 ed	 mov	 BYTE PTR __k$[ebp+8], -19 ; ffffffedH
  00224	eb 2c		 jmp	 SHORT $LN1@LoadInt_e@2
$LN89@LoadInt_e@2:
  00226	88 5d e7	 mov	 BYTE PTR __k$[ebp+7], bl
  00229	eb 27		 jmp	 SHORT $LN1@LoadInt_e@2
$LN90@LoadInt_e@2:
  0022b	c6 45 e6 eb	 mov	 BYTE PTR __k$[ebp+6], -21 ; ffffffebH
  0022f	eb 21		 jmp	 SHORT $LN1@LoadInt_e@2
$LN91@LoadInt_e@2:
  00231	88 4d e5	 mov	 BYTE PTR __k$[ebp+5], cl
  00234	eb 1c		 jmp	 SHORT $LN1@LoadInt_e@2
$LN92@LoadInt_e@2:
  00236	c6 45 e4 ed	 mov	 BYTE PTR __k$[ebp+4], -19 ; ffffffedH
  0023a	eb 16		 jmp	 SHORT $LN1@LoadInt_e@2
$LN93@LoadInt_e@2:
  0023c	c6 45 e3 ea	 mov	 BYTE PTR __k$[ebp+3], -22 ; ffffffeaH
  00240	eb 10		 jmp	 SHORT $LN1@LoadInt_e@2
$LN94@LoadInt_e@2:
  00242	c6 45 e2 eb	 mov	 BYTE PTR __k$[ebp+2], -21 ; ffffffebH
  00246	eb 0a		 jmp	 SHORT $LN1@LoadInt_e@2
$LN95@LoadInt_e@2:
  00248	c6 45 e1 ec	 mov	 BYTE PTR __k$[ebp+1], -20 ; ffffffecH
  0024c	eb 04		 jmp	 SHORT $LN1@LoadInt_e@2
$LN96@LoadInt_e@2:
  0024e	c6 45 e0 ed	 mov	 BYTE PTR __k$[ebp], -19	; ffffffedH
$LN1@LoadInt_e@2:
  00252	6a 05		 push	 5
  00254	8d 45 e0	 lea	 eax, DWORD PTR __k$[ebp]
  00257	c6 45 f6 00	 mov	 BYTE PTR __k$[ebp+22], 0
  0025b	5a		 pop	 edx
$LL104@LoadInt_e@2:
  0025c	81 30 ed ec eb
	ea		 xor	 DWORD PTR [eax], -353637139 ; eaebecedH
  00262	83 c0 04	 add	 eax, 4
  00265	4a		 dec	 edx
  00266	75 f4		 jne	 SHORT $LL104@LoadInt_e@2
  00268	6a 14		 push	 20			; 00000014H
  0026a	58		 pop	 eax
$LL101@LoadInt_e@2:
  0026b	8b c8		 mov	 ecx, eax
  0026d	81 e1 03 00 00
	80		 and	 ecx, -2147483645	; 80000003H
  00273	79 05		 jns	 SHORT $LN111@LoadInt_e@2
  00275	49		 dec	 ecx
  00276	83 c9 fc	 or	 ecx, -4			; fffffffcH
  00279	41		 inc	 ecx
$LN111@LoadInt_e@2:
  0027a	b2 ed		 mov	 dl, -19			; ffffffedH
  0027c	2a d1		 sub	 dl, cl
  0027e	30 54 05 e0	 xor	 BYTE PTR __k$[ebp+eax], dl
  00282	40		 inc	 eax
  00283	83 f8 16	 cmp	 eax, 22			; 00000016H
  00286	7c e3		 jl	 SHORT $LL101@LoadInt_e@2

; 120  : 		return LoadInt(_k, i);

  00288	ff 75 0c	 push	 DWORD PTR _i$[ebp]
  0028b	8d 45 e0	 lea	 eax, DWORD PTR __k$[ebp]
  0028e	50		 push	 eax
  0028f	8b ce		 mov	 ecx, esi
  00291	ff 15 00 00 00
	00		 call	 DWORD PTR __imp_?LoadInt@ioINILoader@@QAEHPBDH@Z

; 121  : 	}

  00297	8b 4d fc	 mov	 ecx, DWORD PTR __$ArrayPad$[ebp]
  0029a	5e		 pop	 esi
  0029b	33 cd		 xor	 ecx, ebp
  0029d	5b		 pop	 ebx
  0029e	e8 00 00 00 00	 call	 @__security_check_cookie@4
  002a3	c9		 leave
  002a4	c2 08 00	 ret	 8
??$LoadInt_e@$0BH@@ioINILoader@@QAEHAAY0BH@$$CBDH@Z ENDP ; ioINILoader::LoadInt_e<23>
_TEXT	ENDS
PUBLIC	??$GetAnimationEventTime_e@$0L@@ioEntityGroup@@QAEMHAAY0L@$$CBD@Z ; ioEntityGroup::GetAnimationEventTime_e<11>
EXTRN	__imp_?GetAnimationEventTime@ioEntityGroup@@QAEMHABVioHashString@@@Z:PROC
EXTRN	__imp_??0ioHashString@@QAE@PBD@Z:PROC
EXTRN	__EH_epilog3_GS:PROC
EXTRN	__EH_prolog3_GS:PROC
;	COMDAT xdata$x
; File d:\lost saga for developer\youtube\tutorial\source\src\lsclient\stringprotect.h
xdata$x	SEGMENT
__unwindtable$??$GetAnimationEventTime_e@$0L@@ioEntityGroup@@QAEMHAAY0L@$$CBD@Z DD 0ffffffffH
	DD	FLAT:__unwindfunclet$??$GetAnimationEventTime_e@$0L@@ioEntityGroup@@QAEMHAAY0L@$$CBD@Z$0
__ehfuncinfo$??$GetAnimationEventTime_e@$0L@@ioEntityGroup@@QAEMHAAY0L@$$CBD@Z DD 019930522H
	DD	01H
	DD	FLAT:__unwindtable$??$GetAnimationEventTime_e@$0L@@ioEntityGroup@@QAEMHAAY0L@$$CBD@Z
	DD	2 DUP(00H)
	DD	2 DUP(00H)
	DD	00H
	DD	01H
; Function compile flags: /Ogsp
; File d:\lost saga for developer\youtube\tutorial\source\src\io3dengine\ioentitygroup.h
xdata$x	ENDS
;	COMDAT ??$GetAnimationEventTime_e@$0L@@ioEntityGroup@@QAEMHAAY0L@$$CBD@Z
_TEXT	SEGMENT
$T607305 = -52						; size = 16
$T607304 = -36						; size = 4
_szEncEventType$ = -32					; size = 11
__$EHRec$ = -12						; size = 12
_id$ = 8						; size = 4
_szEventType$ = 12					; size = 4
??$GetAnimationEventTime_e@$0L@@ioEntityGroup@@QAEMHAAY0L@$$CBD@Z PROC ; ioEntityGroup::GetAnimationEventTime_e<11>, COMDAT
; _this$ = ecx

; 414  : 	{

  00000	6a 28		 push	 40			; 00000028H
  00002	b8 00 00 00 00	 mov	 eax, __ehhandler$??$GetAnimationEventTime_e@$0L@@ioEntityGroup@@QAEMHAAY0L@$$CBD@Z
  00007	e8 00 00 00 00	 call	 __EH_prolog3_GS
  0000c	8b 45 0c	 mov	 eax, DWORD PTR _szEventType$[ebp]
  0000f	8b f1		 mov	 esi, ecx

; 415  : 		_ENCSTR(szEventType, szEncEventType);

  00011	8a 08		 mov	 cl, BYTE PTR [eax]
  00013	84 c9		 test	 cl, cl
  00015	0f 84 1b 01 00
	00		 je	 $LN96@GetAnimati
  0001b	b2 ed		 mov	 dl, -19			; ffffffedH
  0001d	32 ca		 xor	 cl, dl
  0001f	88 4d e0	 mov	 BYTE PTR _szEncEventType$[ebp], cl
  00022	8a 48 01	 mov	 cl, BYTE PTR [eax+1]
  00025	84 c9		 test	 cl, cl
  00027	0f 84 03 01 00
	00		 je	 $LN95@GetAnimati
  0002d	80 f1 ec	 xor	 cl, -20			; ffffffecH
  00030	88 4d e1	 mov	 BYTE PTR _szEncEventType$[ebp+1], cl
  00033	8a 48 02	 mov	 cl, BYTE PTR [eax+2]
  00036	84 c9		 test	 cl, cl
  00038	0f 84 ec 00 00
	00		 je	 $LN94@GetAnimati
  0003e	80 f1 eb	 xor	 cl, -21			; ffffffebH
  00041	88 4d e2	 mov	 BYTE PTR _szEncEventType$[ebp+2], cl
  00044	8a 48 03	 mov	 cl, BYTE PTR [eax+3]
  00047	84 c9		 test	 cl, cl
  00049	0f 84 d5 00 00
	00		 je	 $LN93@GetAnimati
  0004f	80 f1 ea	 xor	 cl, -22			; ffffffeaH
  00052	88 4d e3	 mov	 BYTE PTR _szEncEventType$[ebp+3], cl
  00055	8a 48 04	 mov	 cl, BYTE PTR [eax+4]
  00058	84 c9		 test	 cl, cl
  0005a	0f 84 bf 00 00
	00		 je	 $LN92@GetAnimati
  00060	32 ca		 xor	 cl, dl
  00062	88 4d e4	 mov	 BYTE PTR _szEncEventType$[ebp+4], cl
  00065	8a 48 05	 mov	 cl, BYTE PTR [eax+5]
  00068	84 c9		 test	 cl, cl
  0006a	0f 84 a9 00 00
	00		 je	 $LN91@GetAnimati
  00070	80 f1 ec	 xor	 cl, -20			; ffffffecH
  00073	88 4d e5	 mov	 BYTE PTR _szEncEventType$[ebp+5], cl
  00076	8a 48 06	 mov	 cl, BYTE PTR [eax+6]
  00079	84 c9		 test	 cl, cl
  0007b	0f 84 92 00 00
	00		 je	 $LN90@GetAnimati
  00081	80 f1 eb	 xor	 cl, -21			; ffffffebH
  00084	88 4d e6	 mov	 BYTE PTR _szEncEventType$[ebp+6], cl
  00087	8a 48 07	 mov	 cl, BYTE PTR [eax+7]
  0008a	84 c9		 test	 cl, cl
  0008c	74 7f		 je	 SHORT $LN89@GetAnimati
  0008e	80 f1 ea	 xor	 cl, -22			; ffffffeaH
  00091	88 4d e7	 mov	 BYTE PTR _szEncEventType$[ebp+7], cl
  00094	8a 48 08	 mov	 cl, BYTE PTR [eax+8]
  00097	84 c9		 test	 cl, cl
  00099	74 6d		 je	 SHORT $LN88@GetAnimati
  0009b	32 ca		 xor	 cl, dl
  0009d	88 4d e8	 mov	 BYTE PTR _szEncEventType$[ebp+8], cl
  000a0	8a 48 09	 mov	 cl, BYTE PTR [eax+9]
  000a3	84 c9		 test	 cl, cl
  000a5	74 5b		 je	 SHORT $LN87@GetAnimati
  000a7	80 f1 ec	 xor	 cl, -20			; ffffffecH
  000aa	80 78 0a 00	 cmp	 BYTE PTR [eax+10], 0
  000ae	88 4d e9	 mov	 BYTE PTR _szEncEventType$[ebp+9], cl
  000b1	0f 84 83 00 00
	00		 je	 $LN1@GetAnimati
  000b7	8a 48 0b	 mov	 cl, BYTE PTR [eax+11]
  000ba	84 c9		 test	 cl, cl
  000bc	74 3e		 je	 SHORT $LN85@GetAnimati
  000be	80 f1 ea	 xor	 cl, -22			; ffffffeaH
  000c1	88 4d eb	 mov	 BYTE PTR _szEncEventType$[ebp+11], cl
  000c4	8a 48 0c	 mov	 cl, BYTE PTR [eax+12]
  000c7	84 c9		 test	 cl, cl
  000c9	74 2c		 je	 SHORT $LN84@GetAnimati
  000cb	32 ca		 xor	 cl, dl
  000cd	88 4d ec	 mov	 BYTE PTR _szEncEventType$[ebp+12], cl
  000d0	8a 48 0d	 mov	 cl, BYTE PTR [eax+13]
  000d3	84 c9		 test	 cl, cl
  000d5	74 1a		 je	 SHORT $LN83@GetAnimati
  000d7	8a 40 0e	 mov	 al, BYTE PTR [eax+14]
  000da	80 f1 ec	 xor	 cl, -20			; ffffffecH
  000dd	88 4d ed	 mov	 BYTE PTR _szEncEventType$[ebp+13], cl
  000e0	84 c0		 test	 al, al
  000e2	74 07		 je	 SHORT $LN82@GetAnimati
  000e4	34 eb		 xor	 al, -21			; ffffffebH
  000e6	88 45 ee	 mov	 BYTE PTR _szEncEventType$[ebp+14], al
  000e9	eb 4f		 jmp	 SHORT $LN1@GetAnimati
$LN82@GetAnimati:
  000eb	c6 45 ee eb	 mov	 BYTE PTR _szEncEventType$[ebp+14], -21 ; ffffffebH
  000ef	eb 49		 jmp	 SHORT $LN1@GetAnimati
$LN83@GetAnimati:
  000f1	c6 45 ed ec	 mov	 BYTE PTR _szEncEventType$[ebp+13], -20 ; ffffffecH
  000f5	eb 43		 jmp	 SHORT $LN1@GetAnimati
$LN84@GetAnimati:
  000f7	88 55 ec	 mov	 BYTE PTR _szEncEventType$[ebp+12], dl
  000fa	eb 3e		 jmp	 SHORT $LN1@GetAnimati
$LN85@GetAnimati:
  000fc	c6 45 eb ea	 mov	 BYTE PTR _szEncEventType$[ebp+11], -22 ; ffffffeaH
  00100	eb 38		 jmp	 SHORT $LN1@GetAnimati
$LN87@GetAnimati:
  00102	c6 45 e9 ec	 mov	 BYTE PTR _szEncEventType$[ebp+9], -20 ; ffffffecH
  00106	eb 32		 jmp	 SHORT $LN1@GetAnimati
$LN88@GetAnimati:
  00108	88 55 e8	 mov	 BYTE PTR _szEncEventType$[ebp+8], dl
  0010b	eb 2d		 jmp	 SHORT $LN1@GetAnimati
$LN89@GetAnimati:
  0010d	c6 45 e7 ea	 mov	 BYTE PTR _szEncEventType$[ebp+7], -22 ; ffffffeaH
  00111	eb 27		 jmp	 SHORT $LN1@GetAnimati
$LN90@GetAnimati:
  00113	c6 45 e6 eb	 mov	 BYTE PTR _szEncEventType$[ebp+6], -21 ; ffffffebH
  00117	eb 21		 jmp	 SHORT $LN1@GetAnimati
$LN91@GetAnimati:
  00119	c6 45 e5 ec	 mov	 BYTE PTR _szEncEventType$[ebp+5], -20 ; ffffffecH
  0011d	eb 1b		 jmp	 SHORT $LN1@GetAnimati
$LN92@GetAnimati:
  0011f	88 55 e4	 mov	 BYTE PTR _szEncEventType$[ebp+4], dl
  00122	eb 16		 jmp	 SHORT $LN1@GetAnimati
$LN93@GetAnimati:
  00124	c6 45 e3 ea	 mov	 BYTE PTR _szEncEventType$[ebp+3], -22 ; ffffffeaH
  00128	eb 10		 jmp	 SHORT $LN1@GetAnimati
$LN94@GetAnimati:
  0012a	c6 45 e2 eb	 mov	 BYTE PTR _szEncEventType$[ebp+2], -21 ; ffffffebH
  0012e	eb 0a		 jmp	 SHORT $LN1@GetAnimati
$LN95@GetAnimati:
  00130	c6 45 e1 ec	 mov	 BYTE PTR _szEncEventType$[ebp+1], -20 ; ffffffecH
  00134	eb 04		 jmp	 SHORT $LN1@GetAnimati
$LN96@GetAnimati:
  00136	c6 45 e0 ed	 mov	 BYTE PTR _szEncEventType$[ebp], -19 ; ffffffedH
$LN1@GetAnimati:
  0013a	6a 02		 push	 2
  0013c	8d 45 e0	 lea	 eax, DWORD PTR _szEncEventType$[ebp]
  0013f	c6 45 ea 00	 mov	 BYTE PTR _szEncEventType$[ebp+10], 0
  00143	59		 pop	 ecx
$LL105@GetAnimati:
  00144	81 30 ed ec eb
	ea		 xor	 DWORD PTR [eax], -353637139 ; eaebecedH
  0014a	83 c0 04	 add	 eax, 4
  0014d	49		 dec	 ecx
  0014e	75 f4		 jne	 SHORT $LL105@GetAnimati
  00150	6a 08		 push	 8
  00152	58		 pop	 eax
$LL102@GetAnimati:
  00153	8b c8		 mov	 ecx, eax
  00155	81 e1 03 00 00
	80		 and	 ecx, -2147483645	; 80000003H
  0015b	79 05		 jns	 SHORT $LN113@GetAnimati
  0015d	49		 dec	 ecx
  0015e	83 c9 fc	 or	 ecx, -4			; fffffffcH
  00161	41		 inc	 ecx
$LN113@GetAnimati:
  00162	b2 ed		 mov	 dl, -19			; ffffffedH
  00164	2a d1		 sub	 dl, cl
  00166	30 54 05 e0	 xor	 BYTE PTR _szEncEventType$[ebp+eax], dl
  0016a	40		 inc	 eax
  0016b	83 f8 0a	 cmp	 eax, 10			; 0000000aH
  0016e	7c e3		 jl	 SHORT $LL102@GetAnimati

; 416  : 		return GetAnimationEventTime(id, szEncEventType);

  00170	8d 45 e0	 lea	 eax, DWORD PTR _szEncEventType$[ebp]
  00173	50		 push	 eax
  00174	8d 4d cc	 lea	 ecx, DWORD PTR $T607305[ebp]
  00177	ff 15 00 00 00
	00		 call	 DWORD PTR __imp_??0ioHashString@@QAE@PBD@Z
  0017d	83 65 fc 00	 and	 DWORD PTR __$EHRec$[ebp+8], 0
  00181	8d 45 cc	 lea	 eax, DWORD PTR $T607305[ebp]
  00184	50		 push	 eax
  00185	ff 75 08	 push	 DWORD PTR _id$[ebp]
  00188	8b ce		 mov	 ecx, esi
  0018a	ff 15 00 00 00
	00		 call	 DWORD PTR __imp_?GetAnimationEventTime@ioEntityGroup@@QAEMHABVioHashString@@@Z
  00190	d9 5d dc	 fstp	 DWORD PTR $T607304[ebp]
  00193	83 4d fc ff	 or	 DWORD PTR __$EHRec$[ebp+8], -1
  00197	8d 4d cc	 lea	 ecx, DWORD PTR $T607305[ebp]
  0019a	ff 15 00 00 00
	00		 call	 DWORD PTR __imp_??1ioHashString@@QAE@XZ
  001a0	d9 45 dc	 fld	 DWORD PTR $T607304[ebp]

; 417  : 	}

  001a3	e8 00 00 00 00	 call	 __EH_epilog3_GS
  001a8	c2 08 00	 ret	 8
_TEXT	ENDS
;	COMDAT text$x
text$x	SEGMENT
__unwindfunclet$??$GetAnimationEventTime_e@$0L@@ioEntityGroup@@QAEMHAAY0L@$$CBD@Z$0:
  00000	8d 4d cc	 lea	 ecx, DWORD PTR $T607305[ebp]
  00003	ff 25 00 00 00
	00		 jmp	 DWORD PTR __imp_??1ioHashString@@QAE@XZ
__ehhandler$??$GetAnimationEventTime_e@$0L@@ioEntityGroup@@QAEMHAAY0L@$$CBD@Z:
  00009	8b 54 24 08	 mov	 edx, DWORD PTR [esp+8]
  0000d	8d 42 0c	 lea	 eax, DWORD PTR [edx+12]
  00010	8b 4a c8	 mov	 ecx, DWORD PTR [edx-56]
  00013	33 c8		 xor	 ecx, eax
  00015	e8 00 00 00 00	 call	 @__security_check_cookie@4
  0001a	8b 4a fc	 mov	 ecx, DWORD PTR [edx-4]
  0001d	33 c8		 xor	 ecx, eax
  0001f	e8 00 00 00 00	 call	 @__security_check_cookie@4
  00024	b8 00 00 00 00	 mov	 eax, OFFSET __ehfuncinfo$??$GetAnimationEventTime_e@$0L@@ioEntityGroup@@QAEMHAAY0L@$$CBD@Z
  00029	e9 00 00 00 00	 jmp	 ___CxxFrameHandler3
text$x	ENDS
??$GetAnimationEventTime_e@$0L@@ioEntityGroup@@QAEMHAAY0L@$$CBD@Z ENDP ; ioEntityGroup::GetAnimationEventTime_e<11>
PUBLIC	__real@3fd2ee0d320154cb
PUBLIC	__real@41f0000000000000
PUBLIC	??$RADtoDEG@M@@YAMM@Z				; RADtoDEG<float>
;	COMDAT __real@3fd2ee0d320154cb
; File d:\lost saga for developer\youtube\tutorial\source\src\lsclient\veryoftenusedefine.h
CONST	SEGMENT
__real@3fd2ee0d320154cb DQ 03fd2ee0d320154cbr	; 0.29578
CONST	ENDS
;	COMDAT __real@41f0000000000000
CONST	SEGMENT
__real@41f0000000000000 DQ 041f0000000000000r	; 4.29497e+009
; Function compile flags: /Ogsp
CONST	ENDS
;	COMDAT ??$RADtoDEG@M@@YAMM@Z
_TEXT	SEGMENT
tv130 = -4						; size = 4
tv75 = 8						; size = 4
_val$ = 8						; size = 4
??$RADtoDEG@M@@YAMM@Z PROC				; RADtoDEG<float>, COMDAT

; 18   : type  RADtoDEG (type val) {return (type) (val * (return57() + 0.2957795132)); }

  00000	55		 push	 ebp
  00001	8b ec		 mov	 ebp, esp
  00003	51		 push	 ecx
  00004	b8 39 00 00 00	 mov	 eax, 57			; 00000039H
  00009	89 45 fc	 mov	 DWORD PTR tv130[ebp], eax
  0000c	db 45 fc	 fild	 DWORD PTR tv130[ebp]
  0000f	85 c0		 test	 eax, eax
  00011	79 06		 jns	 SHORT $LN5@RADtoDEG
  00013	dc 05 00 00 00
	00		 fadd	 QWORD PTR __real@41f0000000000000
$LN5@RADtoDEG:
  00019	dc 05 00 00 00
	00		 fadd	 QWORD PTR __real@3fd2ee0d320154cb
  0001f	d8 4d 08	 fmul	 DWORD PTR _val$[ebp]
  00022	d9 5d 08	 fstp	 DWORD PTR tv75[ebp]
  00025	d9 45 08	 fld	 DWORD PTR tv75[ebp]
  00028	c9		 leave
  00029	c3		 ret	 0
??$RADtoDEG@M@@YAMM@Z ENDP				; RADtoDEG<float>
_TEXT	ENDS
PUBLIC	??$_Cons_val@V?$allocator@UBulletInfo@@@std@@UBulletInfo@@AAU3@@std@@YAXAAV?$allocator@UBulletInfo@@@0@PAUBulletInfo@@AAU2@@Z ; std::_Cons_val<std::allocator<BulletInfo>,BulletInfo,BulletInfo &>
; Function compile flags: /Ogsp
; File c:\program files (x86)\microsoft visual studio 10.0\vc\include\xmemory
;	COMDAT ??$_Cons_val@V?$allocator@UBulletInfo@@@std@@UBulletInfo@@AAU3@@std@@YAXAAV?$allocator@UBulletInfo@@@0@PAUBulletInfo@@AAU2@@Z
_TEXT	SEGMENT
__Alval$ = 8						; size = 4
__Pdest$ = 12						; size = 4
__Src$ = 16						; size = 4
??$_Cons_val@V?$allocator@UBulletInfo@@@std@@UBulletInfo@@AAU3@@std@@YAXAAV?$allocator@UBulletInfo@@@0@PAUBulletInfo@@AAU2@@Z PROC ; std::_Cons_val<std::allocator<BulletInfo>,BulletInfo,BulletInfo &>, COMDAT

; 279  : 	{	// construct using allocator

  00000	55		 push	 ebp
  00001	8b ec		 mov	 ebp, esp
  00003	57		 push	 edi

; 280  : 	_Alval.construct(_Pdest, _STD forward<_Ty2>(_Src));

  00004	8b 7d 0c	 mov	 edi, DWORD PTR __Pdest$[ebp]
  00007	85 ff		 test	 edi, edi
  00009	74 0a		 je	 SHORT $LN7@Cons_val
  0000b	56		 push	 esi
  0000c	8b 75 10	 mov	 esi, DWORD PTR __Src$[ebp]
  0000f	6a 05		 push	 5
  00011	59		 pop	 ecx
  00012	f3 a5		 rep movsd
  00014	5e		 pop	 esi
$LN7@Cons_val:
  00015	5f		 pop	 edi

; 281  : 	}

  00016	5d		 pop	 ebp
  00017	c3		 ret	 0
??$_Cons_val@V?$allocator@UBulletInfo@@@std@@UBulletInfo@@AAU3@@std@@YAXAAV?$allocator@UBulletInfo@@@0@PAUBulletInfo@@AAU2@@Z ENDP ; std::_Cons_val<std::allocator<BulletInfo>,BulletInfo,BulletInfo &>
_TEXT	ENDS
PUBLIC	?construct@?$allocator@UBulletInfo@@@std@@QAEXPAUBulletInfo@@ABU3@@Z ; std::allocator<BulletInfo>::construct
; Function compile flags: /Ogsp
;	COMDAT ?construct@?$allocator@UBulletInfo@@@std@@QAEXPAUBulletInfo@@ABU3@@Z
_TEXT	SEGMENT
__Ptr$ = 8						; size = 4
__Val$ = 12						; size = 4
?construct@?$allocator@UBulletInfo@@@std@@QAEXPAUBulletInfo@@ABU3@@Z PROC ; std::allocator<BulletInfo>::construct, COMDAT
; _this$ = ecx

; 196  : 		{	// construct object at _Ptr with value _Val

  00000	55		 push	 ebp
  00001	8b ec		 mov	 ebp, esp
  00003	57		 push	 edi

; 197  : 		_Construct(_Ptr, _Val);

  00004	8b 7d 08	 mov	 edi, DWORD PTR __Ptr$[ebp]
  00007	85 ff		 test	 edi, edi
  00009	74 0a		 je	 SHORT $LN5@construct@2
  0000b	56		 push	 esi
  0000c	8b 75 0c	 mov	 esi, DWORD PTR __Val$[ebp]
  0000f	6a 05		 push	 5
  00011	59		 pop	 ecx
  00012	f3 a5		 rep movsd
  00014	5e		 pop	 esi
$LN5@construct@2:
  00015	5f		 pop	 edi

; 198  : 		}

  00016	5d		 pop	 ebp
  00017	c2 08 00	 ret	 8
?construct@?$allocator@UBulletInfo@@@std@@QAEXPAUBulletInfo@@ABU3@@Z ENDP ; std::allocator<BulletInfo>::construct
_TEXT	ENDS
PUBLIC	??$_Move@PAUBulletInfo@@PAU1@@std@@YAPAUBulletInfo@@PAU1@00U_Nonscalar_ptr_iterator_tag@0@@Z ; std::_Move<BulletInfo *,BulletInfo *>
; Function compile flags: /Ogsp
; File c:\program files (x86)\microsoft visual studio 10.0\vc\include\xutility
;	COMDAT ??$_Move@PAUBulletInfo@@PAU1@@std@@YAPAUBulletInfo@@PAU1@00U_Nonscalar_ptr_iterator_tag@0@@Z
_TEXT	SEGMENT
__First$ = 8						; size = 4
__Last$ = 12						; size = 4
__Dest$ = 16						; size = 4
___formal$ = 20						; size = 1
??$_Move@PAUBulletInfo@@PAU1@@std@@YAPAUBulletInfo@@PAU1@00U_Nonscalar_ptr_iterator_tag@0@@Z PROC ; std::_Move<BulletInfo *,BulletInfo *>, COMDAT

; 2512 : 	{	// move [_First, _Last) to [_Dest, ...), arbitrary iterators

  00000	55		 push	 ebp
  00001	8b ec		 mov	 ebp, esp

; 2513 : 	for (; _First != _Last; ++_Dest, ++_First)

  00003	8b 45 08	 mov	 eax, DWORD PTR __First$[ebp]
  00006	3b 45 0c	 cmp	 eax, DWORD PTR __Last$[ebp]
  00009	74 1a		 je	 SHORT $LN10@Move
  0000b	56		 push	 esi
  0000c	57		 push	 edi
$LL3@Move:

; 2514 : 		*_Dest = _STD move(*_First);

  0000d	8b 7d 10	 mov	 edi, DWORD PTR __Dest$[ebp]
  00010	83 45 10 14	 add	 DWORD PTR __Dest$[ebp], 20 ; 00000014H
  00014	8b f0		 mov	 esi, eax
  00016	6a 05		 push	 5
  00018	83 c0 14	 add	 eax, 20			; 00000014H
  0001b	59		 pop	 ecx
  0001c	f3 a5		 rep movsd
  0001e	3b 45 0c	 cmp	 eax, DWORD PTR __Last$[ebp]
  00021	75 ea		 jne	 SHORT $LL3@Move
  00023	5f		 pop	 edi
  00024	5e		 pop	 esi
$LN10@Move:

; 2515 : 	return (_Dest);

  00025	8b 45 10	 mov	 eax, DWORD PTR __Dest$[ebp]

; 2516 : 	}

  00028	5d		 pop	 ebp
  00029	c3		 ret	 0
??$_Move@PAUBulletInfo@@PAU1@@std@@YAPAUBulletInfo@@PAU1@00U_Nonscalar_ptr_iterator_tag@0@@Z ENDP ; std::_Move<BulletInfo *,BulletInfo *>
_TEXT	ENDS
PUBLIC	?destroy@?$allocator@UBulletInfo@@@std@@QAEXPAUBulletInfo@@@Z ; std::allocator<BulletInfo>::destroy
; Function compile flags: /Ogsp
; File c:\program files (x86)\microsoft visual studio 10.0\vc\include\xmemory
;	COMDAT ?destroy@?$allocator@UBulletInfo@@@std@@QAEXPAUBulletInfo@@@Z
_TEXT	SEGMENT
__Ptr$ = 8						; size = 4
?destroy@?$allocator@UBulletInfo@@@std@@QAEXPAUBulletInfo@@@Z PROC ; std::allocator<BulletInfo>::destroy, COMDAT
; _this$ = ecx

; 213  : 		_Destroy(_Ptr);
; 214  : 		}

  00000	c2 04 00	 ret	 4
?destroy@?$allocator@UBulletInfo@@@std@@QAEXPAUBulletInfo@@@Z ENDP ; std::allocator<BulletInfo>::destroy
_TEXT	ENDS
PUBLIC	?construct@?$allocator@UBulletInfo@@@std@@QAEXPAUBulletInfo@@$$QAU3@@Z ; std::allocator<BulletInfo>::construct
; Function compile flags: /Ogsp
;	COMDAT ?construct@?$allocator@UBulletInfo@@@std@@QAEXPAUBulletInfo@@$$QAU3@@Z
_TEXT	SEGMENT
__Ptr$ = 8						; size = 4
__Val$ = 12						; size = 4
?construct@?$allocator@UBulletInfo@@@std@@QAEXPAUBulletInfo@@$$QAU3@@Z PROC ; std::allocator<BulletInfo>::construct, COMDAT
; _this$ = ecx

; 201  : 		{	// construct object at _Ptr with value _Val

  00000	55		 push	 ebp
  00001	8b ec		 mov	 ebp, esp
  00003	57		 push	 edi

; 202  : 		::new ((void _FARQ *)_Ptr) _Ty(_STD forward<_Ty>(_Val));

  00004	8b 7d 08	 mov	 edi, DWORD PTR __Ptr$[ebp]
  00007	85 ff		 test	 edi, edi
  00009	74 0a		 je	 SHORT $LN3@construct@3
  0000b	56		 push	 esi
  0000c	8b 75 0c	 mov	 esi, DWORD PTR __Val$[ebp]
  0000f	6a 05		 push	 5
  00011	59		 pop	 ecx
  00012	f3 a5		 rep movsd
  00014	5e		 pop	 esi
$LN3@construct@3:
  00015	5f		 pop	 edi

; 203  : 		}

  00016	5d		 pop	 ebp
  00017	c2 08 00	 ret	 8
?construct@?$allocator@UBulletInfo@@@std@@QAEXPAUBulletInfo@@$$QAU3@@Z ENDP ; std::allocator<BulletInfo>::construct
_TEXT	ENDS
PUBLIC	??4?$CEncrypt@M@@QAEMM@Z			; CEncrypt<float>::operator=
; Function compile flags: /Ogsp
; File d:\lost saga for developer\youtube\tutorial\source\src\lsclient\encryptvalue.h
;	COMDAT ??4?$CEncrypt@M@@QAEMM@Z
_TEXT	SEGMENT
_value$ = 8						; size = 4
_inValue$ = 8						; size = 4
??4?$CEncrypt@M@@QAEMM@Z PROC				; CEncrypt<float>::operator=, COMDAT
; _this$ = ecx

; 1654 : 	{	

  00000	55		 push	 ebp
  00001	8b ec		 mov	 ebp, esp

; 1655 : 		type value = inValue;

  00003	d9 45 08	 fld	 DWORD PTR _inValue$[ebp]

; 1656 : 		EncryptValueToPool((char*)&value);

  00006	8d 45 08	 lea	 eax, DWORD PTR _value$[ebp]
  00009	50		 push	 eax
  0000a	d9 5d 08	 fstp	 DWORD PTR _value$[ebp]
  0000d	e8 00 00 00 00	 call	 ?EncryptValueToPool@?$CEncrypt@M@@AAEXPBD@Z ; CEncrypt<float>::EncryptValueToPool

; 1657 : #ifdef _NOTUSE
; 1658 : 		m_value = inValue;
; 1659 : 		Debug();
; 1660 : #endif
; 1661 : 		return value;

  00012	d9 45 08	 fld	 DWORD PTR _value$[ebp]

; 1662 : 	}

  00015	5d		 pop	 ebp
  00016	c2 04 00	 ret	 4
??4?$CEncrypt@M@@QAEMM@Z ENDP				; CEncrypt<float>::operator=
_TEXT	ENDS
PUBLIC	??4?$CEncrypt@K@@QAEKK@Z			; CEncrypt<unsigned long>::operator=
; Function compile flags: /Ogsp
;	COMDAT ??4?$CEncrypt@K@@QAEKK@Z
_TEXT	SEGMENT
_value$ = 8						; size = 4
_inValue$ = 8						; size = 4
??4?$CEncrypt@K@@QAEKK@Z PROC				; CEncrypt<unsigned long>::operator=, COMDAT
; _this$ = ecx

; 1262 : 	{

  00000	55		 push	 ebp
  00001	8b ec		 mov	 ebp, esp

; 1263 : 		
; 1264 : 		type value = inValue;

  00003	8b 45 08	 mov	 eax, DWORD PTR _inValue$[ebp]
  00006	89 45 08	 mov	 DWORD PTR _value$[ebp], eax

; 1265 : 		EncryptValueToPool((char*)&value);

  00009	8d 45 08	 lea	 eax, DWORD PTR _value$[ebp]
  0000c	50		 push	 eax
  0000d	e8 00 00 00 00	 call	 ?EncryptValueToPool@?$CEncrypt@K@@AAEXPBD@Z ; CEncrypt<unsigned long>::EncryptValueToPool

; 1266 : #ifdef _NOTUSE
; 1267 : 		m_value = inValue;
; 1268 : 		Debug();
; 1269 : #endif
; 1270 : 		return value;

  00012	8b 45 08	 mov	 eax, DWORD PTR _value$[ebp]

; 1271 : 	}

  00015	5d		 pop	 ebp
  00016	c2 04 00	 ret	 4
??4?$CEncrypt@K@@QAEKK@Z ENDP				; CEncrypt<unsigned long>::operator=
_TEXT	ENDS
PUBLIC	??B?$CEncrypt@_N@@QAE_NXZ			; CEncrypt<bool>::operator bool
; Function compile flags: /Ogsp
;	COMDAT ??B?$CEncrypt@_N@@QAE_NXZ
_TEXT	SEGMENT
_value$ = -1						; size = 1
??B?$CEncrypt@_N@@QAE_NXZ PROC				; CEncrypt<bool>::operator bool, COMDAT
; _this$ = ecx

; 134  : 	{

  00000	55		 push	 ebp
  00001	8b ec		 mov	 ebp, esp
  00003	51		 push	 ecx

; 135  : 		type value;
; 136  : 		DecryptValueToPool(&value);

  00004	8d 45 ff	 lea	 eax, DWORD PTR _value$[ebp]
  00007	50		 push	 eax
  00008	e8 00 00 00 00	 call	 ?DecryptValueToPool@?$CEncrypt@_N@@QAEXPA_N@Z ; CEncrypt<bool>::DecryptValueToPool

; 137  : 
; 138  : #ifdef _NOTUSE
; 139  : 		Debug();
; 140  : #endif
; 141  : 		return value;

  0000d	8a 45 ff	 mov	 al, BYTE PTR _value$[ebp]

; 142  : 	}

  00010	c9		 leave
  00011	c3		 ret	 0
??B?$CEncrypt@_N@@QAE_NXZ ENDP				; CEncrypt<bool>::operator bool
_TEXT	ENDS
PUBLIC	??4?$CEncrypt@_N@@QAE_N_N@Z			; CEncrypt<bool>::operator=
; Function compile flags: /Ogsp
;	COMDAT ??4?$CEncrypt@_N@@QAE_N_N@Z
_TEXT	SEGMENT
_inValue$ = 8						; size = 1
_value$ = 11						; size = 1
??4?$CEncrypt@_N@@QAE_N_N@Z PROC			; CEncrypt<bool>::operator=, COMDAT
; _this$ = ecx

; 225  : 	{

  00000	55		 push	 ebp
  00001	8b ec		 mov	 ebp, esp

; 226  : 		type value = inValue;

  00003	8a 45 08	 mov	 al, BYTE PTR _inValue$[ebp]
  00006	88 45 0b	 mov	 BYTE PTR _value$[ebp], al

; 227  : 		EncryptValueToPool((char*)&value);

  00009	8d 45 0b	 lea	 eax, DWORD PTR _value$[ebp]
  0000c	50		 push	 eax
  0000d	e8 00 00 00 00	 call	 ?EncryptValueToPool@?$CEncrypt@_N@@AAEXPBD@Z ; CEncrypt<bool>::EncryptValueToPool

; 228  : #ifdef _NOTUSE
; 229  : 		m_value = inValue;
; 230  : 		Debug();
; 231  : #endif
; 232  : 		return value;

  00012	8a 45 0b	 mov	 al, BYTE PTR _value$[ebp]

; 233  : 	}

  00015	5d		 pop	 ebp
  00016	c2 04 00	 ret	 4
??4?$CEncrypt@_N@@QAE_N_N@Z ENDP			; CEncrypt<bool>::operator=
_TEXT	ENDS
PUBLIC	?SetGravityAmt@ioBaseChar@@QAEXM@Z		; ioBaseChar::SetGravityAmt
; Function compile flags: /Ogsp
; File d:\lost saga for developer\youtube\tutorial\source\src\lsclient\iobasechar.h
;	COMDAT ?SetGravityAmt@ioBaseChar@@QAEXM@Z
_TEXT	SEGMENT
_value$607435 = 8					; size = 4
_fAmt$ = 8						; size = 4
?SetGravityAmt@ioBaseChar@@QAEXM@Z PROC			; ioBaseChar::SetGravityAmt, COMDAT
; _this$ = ecx

; 2631 : 	inline void SetGravityAmt( float fAmt ) { m_fGravityAmt = fAmt; }

  00000	55		 push	 ebp
  00001	8b ec		 mov	 ebp, esp
  00003	f3 0f 10 45 08	 movss	 xmm0, DWORD PTR _fAmt$[ebp]
  00008	8d 45 08	 lea	 eax, DWORD PTR _value$607435[ebp]
  0000b	50		 push	 eax
  0000c	81 c1 e8 0b 00
	00		 add	 ecx, 3048		; 00000be8H
  00012	f3 0f 11 45 08	 movss	 DWORD PTR _value$607435[ebp], xmm0
  00017	e8 00 00 00 00	 call	 ?EncryptValueToPool@?$CEncrypt@M@@AAEXPBD@Z ; CEncrypt<float>::EncryptValueToPool
  0001c	5d		 pop	 ebp
  0001d	c2 04 00	 ret	 4
?SetGravityAmt@ioBaseChar@@QAEXM@Z ENDP			; ioBaseChar::SetGravityAmt
_TEXT	ENDS
PUBLIC	_pChar$GSCopy$
PUBLIC	?OnSkillStart@ioFullShotSkill@@UAE_NPAVioBaseChar@@@Z ; ioFullShotSkill::OnSkillStart
EXTRN	?SetSkillNameChatBubble@ioSkill@@IAEXPAVioBaseChar@@@Z:PROC ; ioSkill::SetSkillNameChatBubble
EXTRN	?CheckSkillDesc@ioSkill@@IAEXPAVioBaseChar@@@Z:PROC ; ioSkill::CheckSkillDesc
EXTRN	?SetAutoTargetTrackingEndTime@ioBaseChar@@QAEXK@Z:PROC ; ioBaseChar::SetAutoTargetTrackingEndTime
EXTRN	?SetAutoTarget@ioBaseChar@@QAEXW4AutoTargetType@@@Z:PROC ; ioBaseChar::SetAutoTarget
EXTRN	__imp_?GetAnimationIdx@ioEntityGroup@@QAEHABVioHashString@@@Z:PROC
EXTRN	__imp_??0ioHashString@@QAE@ABV0@@Z:PROC
EXTRN	?IncreaseWeaponIndexBase@ioBaseChar@@QAEKXZ:PROC ; ioBaseChar::IncreaseWeaponIndexBase
EXTRN	?SetSkillProtection@ioBaseChar@@QAEXXZ:PROC	; ioBaseChar::SetSkillProtection
EXTRN	?InitExtraAniJump@ioSkill@@IAEXXZ:PROC		; ioSkill::InitExtraAniJump
EXTRN	__ftol2:PROC
;	COMDAT xdata$x
; File d:\lost saga for developer\youtube\tutorial\source\src\lsclient\encryptvalue.h
xdata$x	SEGMENT
__unwindtable$?OnSkillStart@ioFullShotSkill@@UAE_NPAVioBaseChar@@@Z DD 0ffffffffH
	DD	FLAT:__unwindfunclet$?OnSkillStart@ioFullShotSkill@@UAE_NPAVioBaseChar@@@Z$0
	DD	00H
	DD	FLAT:__unwindfunclet$?OnSkillStart@ioFullShotSkill@@UAE_NPAVioBaseChar@@@Z$1
__ehfuncinfo$?OnSkillStart@ioFullShotSkill@@UAE_NPAVioBaseChar@@@Z DD 019930522H
	DD	02H
	DD	FLAT:__unwindtable$?OnSkillStart@ioFullShotSkill@@UAE_NPAVioBaseChar@@@Z
	DD	2 DUP(00H)
	DD	2 DUP(00H)
	DD	00H
	DD	01H
; Function compile flags: /Ogsp
; File d:\lost saga for developer\youtube\tutorial\source\src\lsclient\iofullshotskill.cpp
xdata$x	ENDS
;	COMDAT ?OnSkillStart@ioFullShotSkill@@UAE_NPAVioBaseChar@@@Z
_TEXT	SEGMENT
_szPreDelay$601367 = -80				; size = 16
$T607495 = -64						; size = 16
_value$607446 = -48					; size = 4
_pGrp$601365 = -48					; size = 4
_value$607596 = -44					; size = 4
$T607493 = -44						; size = 4
_dwPreDelay$601375 = -44				; size = 4
_iAniID$601368 = -44					; size = 4
_pChar$GSCopy$ = -40					; size = 4
_value$607584 = -33					; size = 1
_value$607442 = -33					; size = 1
_szEncEventType$607469 = -32				; size = 11
__$EHRec$ = -12						; size = 12
_pChar$ = 8						; size = 4
?OnSkillStart@ioFullShotSkill@@UAE_NPAVioBaseChar@@@Z PROC ; ioFullShotSkill::OnSkillStart, COMDAT
; _this$ = ecx

; 108  : {

  00000	6a 44		 push	 68			; 00000044H
  00002	b8 00 00 00 00	 mov	 eax, __ehhandler$?OnSkillStart@ioFullShotSkill@@UAE_NPAVioBaseChar@@@Z
  00007	e8 00 00 00 00	 call	 __EH_prolog3_GS
  0000c	8b 7d 08	 mov	 edi, DWORD PTR _pChar$[ebp]
  0000f	8b f1		 mov	 esi, ecx

; 109  : 	m_bChangeDirRot = false;

  00011	8d 45 df	 lea	 eax, DWORD PTR _value$607442[ebp]
  00014	33 db		 xor	 ebx, ebx
  00016	50		 push	 eax
  00017	8d 8e e0 0c 00
	00		 lea	 ecx, DWORD PTR [esi+3296]

; 110  : 	m_bReduceGauge = false;
; 111  : 	m_dwAttackEndTime = 0;
; 112  : 
; 113  : 	InitExtraAniJump();
; 114  : 
; 115  : 	m_dwAniRotateTime = 0;
; 116  : 	m_fAniRotateAngle = 0.0f;
; 117  : 
; 118  : 	m_iCurAniRotate = 0;
; 119  : 
; 120  : 	m_dwEnableSwitchTime = 0;
; 121  : 	m_dwEnableSemiSwitchTime = 0;
; 122  : 
; 123  : 	m_SkillSoundID = 0;
; 124  : 
; 125  : 	m_bChangeGrapplingTargetPos = true;
; 126  : 
; 127  : 	pChar->SetSkillProtection();
; 128  : 
; 129  : 	m_dwEnableSwitchTime = 0;
; 130  : 	m_dwEnableSemiSwitchTime = 0;
; 131  : 
; 132  : 	if( m_dwSwitchSkill > 0 )
; 133  : 		m_dwEnableSwitchTime = FRAMEGETTIME() + m_dwSwitchSkill;

  0001d	89 7d d8	 mov	 DWORD PTR _pChar$GSCopy$[ebp], edi
  00020	88 5d df	 mov	 BYTE PTR _value$607442[ebp], bl
  00023	e8 00 00 00 00	 call	 ?EncryptValueToPool@?$CEncrypt@_N@@AAEXPBD@Z ; CEncrypt<bool>::EncryptValueToPool
  00028	8b ce		 mov	 ecx, esi
  0002a	88 9e 50 03 00
	00		 mov	 BYTE PTR [esi+848], bl
  00030	89 9e 50 10 00
	00		 mov	 DWORD PTR [esi+4176], ebx
  00036	e8 00 00 00 00	 call	 ?InitExtraAniJump@ioSkill@@IAEXXZ ; ioSkill::InitExtraAniJump
  0003b	0f 57 c0	 xorps	 xmm0, xmm0
  0003e	8b cf		 mov	 ecx, edi
  00040	89 9e 2c 07 00
	00		 mov	 DWORD PTR [esi+1836], ebx
  00046	f3 0f 11 86 30
	07 00 00	 movss	 DWORD PTR [esi+1840], xmm0
  0004e	89 9e 28 07 00
	00		 mov	 DWORD PTR [esi+1832], ebx
  00054	89 9e 5c 03 00
	00		 mov	 DWORD PTR [esi+860], ebx
  0005a	89 9e 64 03 00
	00		 mov	 DWORD PTR [esi+868], ebx
  00060	89 9e 08 02 00
	00		 mov	 DWORD PTR [esi+520], ebx
  00066	c6 86 40 09 00
	00 01		 mov	 BYTE PTR [esi+2368], 1
  0006d	e8 00 00 00 00	 call	 ?SetSkillProtection@ioBaseChar@@QAEXXZ ; ioBaseChar::SetSkillProtection
  00072	89 9e 5c 03 00
	00		 mov	 DWORD PTR [esi+860], ebx
  00078	89 9e 64 03 00
	00		 mov	 DWORD PTR [esi+868], ebx
  0007e	39 9e 58 03 00
	00		 cmp	 DWORD PTR [esi+856], ebx
  00084	76 1a		 jbe	 SHORT $LN11@OnSkillSta
  00086	ff 15 00 00 00
	00		 call	 DWORD PTR __imp_?GetSingleton@ioFrameTimer@@SAAAV1@XZ
  0008c	8b c8		 mov	 ecx, eax
  0008e	ff 15 00 00 00
	00		 call	 DWORD PTR __imp_?GetLoopSec@ioFrameTimer@@QBEKXZ
  00094	03 86 58 03 00
	00		 add	 eax, DWORD PTR [esi+856]
  0009a	89 86 5c 03 00
	00		 mov	 DWORD PTR [esi+860], eax
$LN11@OnSkillSta:

; 134  : 	if( m_dwSemiSwitchSkill > 0 )

  000a0	39 9e 60 03 00
	00		 cmp	 DWORD PTR [esi+864], ebx
  000a6	76 1a		 jbe	 SHORT $LN10@OnSkillSta

; 135  : 		m_dwEnableSemiSwitchTime = FRAMEGETTIME() + m_dwSemiSwitchSkill;

  000a8	ff 15 00 00 00
	00		 call	 DWORD PTR __imp_?GetSingleton@ioFrameTimer@@SAAAV1@XZ
  000ae	8b c8		 mov	 ecx, eax
  000b0	ff 15 00 00 00
	00		 call	 DWORD PTR __imp_?GetLoopSec@ioFrameTimer@@QBEKXZ
  000b6	03 86 60 03 00
	00		 add	 eax, DWORD PTR [esi+864]
  000bc	89 86 64 03 00
	00		 mov	 DWORD PTR [esi+868], eax
$LN10@OnSkillSta:

; 136  : 
; 137  : 	m_dwSkillStartTime = FRAMEGETTIME();

  000c2	ff 15 00 00 00
	00		 call	 DWORD PTR __imp_?GetSingleton@ioFrameTimer@@SAAAV1@XZ
  000c8	8b c8		 mov	 ecx, eax
  000ca	ff 15 00 00 00
	00		 call	 DWORD PTR __imp_?GetLoopSec@ioFrameTimer@@QBEKXZ
  000d0	89 45 d0	 mov	 DWORD PTR _value$607446[ebp], eax
  000d3	8d 45 d0	 lea	 eax, DWORD PTR _value$607446[ebp]
  000d6	50		 push	 eax
  000d7	8d 8e 94 0e 00
	00		 lea	 ecx, DWORD PTR [esi+3732]
  000dd	e8 00 00 00 00	 call	 ?EncryptValueToPool@?$CEncrypt@K@@AAEXPBD@Z ; CEncrypt<unsigned long>::EncryptValueToPool

; 138  : 
; 139  : 	m_iWeaponWay = 0;

  000e2	89 9e f4 10 00
	00		 mov	 DWORD PTR [esi+4340], ebx

; 140  : 	m_bSetHandMesh = false;

  000e8	88 9e 0a 0f 00
	00		 mov	 BYTE PTR [esi+3850], bl

; 141  : 
; 142  : 	// 기본 무기 손에서 제거
; 143  : 	if( m_bUseItemMesh )

  000ee	38 9e 08 0f 00
	00		 cmp	 BYTE PTR [esi+3848], bl
  000f4	74 09		 je	 SHORT $LN9@OnSkillSta

; 144  : 	{
; 145  : 		pChar->ShowWeaponItemMesh( false );

  000f6	53		 push	 ebx
  000f7	53		 push	 ebx
  000f8	8b cf		 mov	 ecx, edi
  000fa	e8 00 00 00 00	 call	 ?ShowWeaponItemMesh@ioBaseChar@@QAEX_N0@Z ; ioBaseChar::ShowWeaponItemMesh
$LN9@OnSkillSta:

; 146  : 	}
; 147  : 
; 148  : 	m_dwWeaponBaseIndex = pChar->IncreaseWeaponIndexBase();

  000ff	8b cf		 mov	 ecx, edi
  00101	e8 00 00 00 00	 call	 ?IncreaseWeaponIndexBase@ioBaseChar@@QAEKXZ ; ioBaseChar::IncreaseWeaponIndexBase
  00106	89 46 78	 mov	 DWORD PTR [esi+120], eax

; 149  : 	if( !StartPreDelayAnimation( pChar ) )	// Delay Animation이 없다

  00109	8b 06		 mov	 eax, DWORD PTR [esi]
  0010b	57		 push	 edi
  0010c	8b ce		 mov	 ecx, esi
  0010e	ff 90 88 01 00
	00		 call	 DWORD PTR [eax+392]
  00114	84 c0		 test	 al, al
  00116	75 10		 jne	 SHORT $LN8@OnSkillSta

; 150  : 	{
; 151  : 		AttackSkillFire( pChar );

  00118	8b 06		 mov	 eax, DWORD PTR [esi]
  0011a	57		 push	 edi
  0011b	8b ce		 mov	 ecx, esi
  0011d	ff 90 8c 01 00
	00		 call	 DWORD PTR [eax+396]

; 152  : 	}
; 153  : 	else

  00123	e9 1b 01 00 00	 jmp	 $LN2@OnSkillSta
$LN8@OnSkillSta:

; 154  : 	{
; 155  : 		DWORD dwTrackingTime = 0;
; 156  : 		ioEntityGroup *pGrp = pChar->GetGroup();

  00128	8b 45 d8	 mov	 eax, DWORD PTR _pChar$GSCopy$[ebp]
  0012b	8b 40 04	 mov	 eax, DWORD PTR [eax+4]
  0012e	33 ff		 xor	 edi, edi
  00130	89 45 d0	 mov	 DWORD PTR _pGrp$601365[ebp], eax

; 157  : 		if( pGrp )

  00133	3b c3		 cmp	 eax, ebx
  00135	0f 84 bf 00 00
	00		 je	 $LN6@OnSkillSta

; 158  : 		{
; 159  : 			ioHashString szPreDelay = GetPreDelayAniName();

  0013b	8b 06		 mov	 eax, DWORD PTR [esi]
  0013d	8b ce		 mov	 ecx, esi
  0013f	ff 90 30 01 00
	00		 call	 DWORD PTR [eax+304]
  00145	50		 push	 eax
  00146	8d 4d b0	 lea	 ecx, DWORD PTR _szPreDelay$601367[ebp]
  00149	ff 15 00 00 00
	00		 call	 DWORD PTR __imp_??0ioHashString@@QAE@ABV0@@Z

; 160  : 
; 161  : 			int iAniID = pGrp->GetAnimationIdx( szPreDelay );

  0014f	8b 4d d0	 mov	 ecx, DWORD PTR _pGrp$601365[ebp]
  00152	8d 45 b0	 lea	 eax, DWORD PTR _szPreDelay$601367[ebp]
  00155	50		 push	 eax
  00156	89 5d fc	 mov	 DWORD PTR __$EHRec$[ebp+8], ebx
  00159	ff 15 00 00 00
	00		 call	 DWORD PTR __imp_?GetAnimationIdx@ioEntityGroup@@QAEHABVioHashString@@@Z
  0015f	89 45 d4	 mov	 DWORD PTR _iAniID$601368[ebp], eax

; 162  : 			if( iAniID != -1 )

  00162	83 f8 ff	 cmp	 eax, -1
  00165	0f 84 82 00 00
	00		 je	 $LN5@OnSkillSta

; 163  : 				dwTrackingTime = pGrp->GetAnimationEventTime_e( iAniID, "tracking_e" );

  0016b	6a 02		 push	 2
  0016d	c7 45 e0 99 9e
	8a 89		 mov	 DWORD PTR _szEncEventType$607469[ebp], -1987404135 ; 898a9e99H
  00174	c7 45 e4 86 85
	85 8d		 mov	 DWORD PTR _szEncEventType$607469[ebp+4], -1920629370 ; 8d858586H
  0017b	66 c7 45 e8 b2
	89		 mov	 WORD PTR _szEncEventType$607469[ebp+8], 35250 ; 000089b2H
  00181	8d 45 e0	 lea	 eax, DWORD PTR _szEncEventType$607469[ebp]
  00184	88 5d ea	 mov	 BYTE PTR _szEncEventType$607469[ebp+10], bl
  00187	59		 pop	 ecx
$LL125@OnSkillSta:
  00188	81 30 ed ec eb
	ea		 xor	 DWORD PTR [eax], -353637139 ; eaebecedH
  0018e	83 c0 04	 add	 eax, 4
  00191	49		 dec	 ecx
  00192	75 f4		 jne	 SHORT $LL125@OnSkillSta
  00194	6a 08		 push	 8
  00196	5f		 pop	 edi
$LL122@OnSkillSta:
  00197	8b c7		 mov	 eax, edi
  00199	25 03 00 00 80	 and	 eax, -2147483645	; 80000003H
  0019e	79 05		 jns	 SHORT $LN144@OnSkillSta
  001a0	48		 dec	 eax
  001a1	83 c8 fc	 or	 eax, -4			; fffffffcH
  001a4	40		 inc	 eax
$LN144@OnSkillSta:
  001a5	b1 ed		 mov	 cl, -19			; ffffffedH
  001a7	2a c8		 sub	 cl, al
  001a9	30 4c 3d e0	 xor	 BYTE PTR _szEncEventType$607469[ebp+edi], cl
  001ad	47		 inc	 edi
  001ae	83 ff 0a	 cmp	 edi, 10			; 0000000aH
  001b1	7c e4		 jl	 SHORT $LL122@OnSkillSta
  001b3	8d 45 e0	 lea	 eax, DWORD PTR _szEncEventType$607469[ebp]
  001b6	50		 push	 eax
  001b7	8d 4d c0	 lea	 ecx, DWORD PTR $T607495[ebp]
  001ba	ff 15 00 00 00
	00		 call	 DWORD PTR __imp_??0ioHashString@@QAE@PBD@Z
  001c0	8b 4d d0	 mov	 ecx, DWORD PTR _pGrp$601365[ebp]
  001c3	8d 45 c0	 lea	 eax, DWORD PTR $T607495[ebp]
  001c6	50		 push	 eax
  001c7	ff 75 d4	 push	 DWORD PTR _iAniID$601368[ebp]
  001ca	c6 45 fc 01	 mov	 BYTE PTR __$EHRec$[ebp+8], 1
  001ce	ff 15 00 00 00
	00		 call	 DWORD PTR __imp_?GetAnimationEventTime@ioEntityGroup@@QAEMHABVioHashString@@@Z
  001d4	d9 5d d4	 fstp	 DWORD PTR $T607493[ebp]
  001d7	8d 4d c0	 lea	 ecx, DWORD PTR $T607495[ebp]
  001da	88 5d fc	 mov	 BYTE PTR __$EHRec$[ebp+8], bl
  001dd	ff 15 00 00 00
	00		 call	 DWORD PTR __imp_??1ioHashString@@QAE@XZ
  001e3	d9 45 d4	 fld	 DWORD PTR $T607493[ebp]
  001e6	e8 00 00 00 00	 call	 __ftol2
  001eb	8b f8		 mov	 edi, eax
$LN5@OnSkillSta:

; 164  : 		}

  001ed	83 4d fc ff	 or	 DWORD PTR __$EHRec$[ebp+8], -1
  001f1	8d 4d b0	 lea	 ecx, DWORD PTR _szPreDelay$601367[ebp]
  001f4	ff 15 00 00 00
	00		 call	 DWORD PTR __imp_??1ioHashString@@QAE@XZ
$LN6@OnSkillSta:

; 165  : 
; 166  : 		DWORD dwPreDelay = GetPreDelayTime();

  001fa	8b 06		 mov	 eax, DWORD PTR [esi]
  001fc	8b ce		 mov	 ecx, esi
  001fe	ff 90 34 01 00
	00		 call	 DWORD PTR [eax+308]
  00204	89 45 d4	 mov	 DWORD PTR _dwPreDelay$601375[ebp], eax

; 167  : 
; 168  : 		if( dwTrackingTime > 0 )
; 169  : 			dwTrackingTime += FRAMEGETTIME();

  00207	ff 15 00 00 00
	00		 call	 DWORD PTR __imp_?GetSingleton@ioFrameTimer@@SAAAV1@XZ
  0020d	8b c8		 mov	 ecx, eax
  0020f	ff 15 00 00 00
	00		 call	 DWORD PTR __imp_?GetLoopSec@ioFrameTimer@@QBEKXZ
  00215	3b fb		 cmp	 edi, ebx
  00217	76 04		 jbe	 SHORT $LN4@OnSkillSta
  00219	03 f8		 add	 edi, eax

; 170  : 		else

  0021b	eb 05		 jmp	 SHORT $LN3@OnSkillSta
$LN4@OnSkillSta:

; 171  : 			dwTrackingTime = FRAMEGETTIME() + dwPreDelay;

  0021d	8b f8		 mov	 edi, eax
  0021f	03 7d d4	 add	 edi, DWORD PTR _dwPreDelay$601375[ebp]
$LN3@OnSkillSta:

; 172  : 
; 173  : 		if( IsUseAutoTargetValue() )

  00222	8b 06		 mov	 eax, DWORD PTR [esi]
  00224	8b ce		 mov	 ecx, esi
  00226	ff 90 e0 00 00
	00		 call	 DWORD PTR [eax+224]
  0022c	84 c0		 test	 al, al
  0022e	74 13		 je	 SHORT $LN2@OnSkillSta

; 174  : 		{
; 175  : 			pChar->SetAutoTarget( ATT_SKILL );

  00230	8b 4d d8	 mov	 ecx, DWORD PTR _pChar$GSCopy$[ebp]
  00233	6a 04		 push	 4
  00235	e8 00 00 00 00	 call	 ?SetAutoTarget@ioBaseChar@@QAEXW4AutoTargetType@@@Z ; ioBaseChar::SetAutoTarget

; 176  : 			pChar->SetAutoTargetTrackingEndTime( dwTrackingTime );

  0023a	8b 4d d8	 mov	 ecx, DWORD PTR _pChar$GSCopy$[ebp]
  0023d	57		 push	 edi
  0023e	e8 00 00 00 00	 call	 ?SetAutoTargetTrackingEndTime@ioBaseChar@@QAEXK@Z ; ioBaseChar::SetAutoTargetTrackingEndTime
$LN2@OnSkillSta:

; 177  : 		}
; 178  : 	}
; 179  : 
; 180  : 	CheckSkillDesc( pChar );

  00243	8b 7d d8	 mov	 edi, DWORD PTR _pChar$GSCopy$[ebp]
  00246	57		 push	 edi
  00247	8b ce		 mov	 ecx, esi
  00249	e8 00 00 00 00	 call	 ?CheckSkillDesc@ioSkill@@IAEXPAVioBaseChar@@@Z ; ioSkill::CheckSkillDesc

; 181  : 
; 182  : 	if( m_bInitJumpPower )

  0024e	8d 45 df	 lea	 eax, DWORD PTR _value$607584[ebp]
  00251	50		 push	 eax
  00252	8d 8e f4 05 00
	00		 lea	 ecx, DWORD PTR [esi+1524]
  00258	e8 00 00 00 00	 call	 ?DecryptValueToPool@?$CEncrypt@_N@@QAEXPA_N@Z ; CEncrypt<bool>::DecryptValueToPool
  0025d	38 5d df	 cmp	 BYTE PTR _value$607584[ebp], bl
  00260	74 1f		 je	 SHORT $LN134@OnSkillSta

; 183  : 	{
; 184  : 		pChar->SetCurJumpPowerAmt( 0.0f );

  00262	0f 57 c0	 xorps	 xmm0, xmm0

; 185  : 		pChar->SetGravityAmt( 0.0f );

  00265	8d 45 d4	 lea	 eax, DWORD PTR _value$607596[ebp]
  00268	50		 push	 eax
  00269	8d 8f e8 0b 00
	00		 lea	 ecx, DWORD PTR [edi+3048]
  0026f	f3 0f 11 87 90
	0e 00 00	 movss	 DWORD PTR [edi+3728], xmm0
  00277	f3 0f 11 45 d4	 movss	 DWORD PTR _value$607596[ebp], xmm0
  0027c	e8 00 00 00 00	 call	 ?EncryptValueToPool@?$CEncrypt@M@@AAEXPBD@Z ; CEncrypt<float>::EncryptValueToPool
$LN134@OnSkillSta:

; 186  : 	}
; 187  : 
; 188  : 	SetSkillNameChatBubble( pChar );

  00281	57		 push	 edi
  00282	8b ce		 mov	 ecx, esi
  00284	e8 00 00 00 00	 call	 ?SetSkillNameChatBubble@ioSkill@@IAEXPAVioBaseChar@@@Z ; ioSkill::SetSkillNameChatBubble

; 189  : 
; 190  : 	return true;

  00289	b0 01		 mov	 al, 1

; 191  : }

  0028b	e8 00 00 00 00	 call	 __EH_epilog3_GS
  00290	c2 04 00	 ret	 4
_TEXT	ENDS
;	COMDAT text$x
text$x	SEGMENT
__unwindfunclet$?OnSkillStart@ioFullShotSkill@@UAE_NPAVioBaseChar@@@Z$0:
  00000	8d 4d b0	 lea	 ecx, DWORD PTR _szPreDelay$601367[ebp]
  00003	ff 25 00 00 00
	00		 jmp	 DWORD PTR __imp_??1ioHashString@@QAE@XZ
__unwindfunclet$?OnSkillStart@ioFullShotSkill@@UAE_NPAVioBaseChar@@@Z$1:
  00009	8d 4d c0	 lea	 ecx, DWORD PTR $T607495[ebp]
  0000c	ff 25 00 00 00
	00		 jmp	 DWORD PTR __imp_??1ioHashString@@QAE@XZ
__ehhandler$?OnSkillStart@ioFullShotSkill@@UAE_NPAVioBaseChar@@@Z:
  00012	8b 54 24 08	 mov	 edx, DWORD PTR [esp+8]
  00016	8d 42 0c	 lea	 eax, DWORD PTR [edx+12]
  00019	8b 4a ac	 mov	 ecx, DWORD PTR [edx-84]
  0001c	33 c8		 xor	 ecx, eax
  0001e	e8 00 00 00 00	 call	 @__security_check_cookie@4
  00023	8b 4a fc	 mov	 ecx, DWORD PTR [edx-4]
  00026	33 c8		 xor	 ecx, eax
  00028	e8 00 00 00 00	 call	 @__security_check_cookie@4
  0002d	b8 00 00 00 00	 mov	 eax, OFFSET __ehfuncinfo$?OnSkillStart@ioFullShotSkill@@UAE_NPAVioBaseChar@@@Z
  00032	e9 00 00 00 00	 jmp	 ___CxxFrameHandler3
text$x	ENDS
?OnSkillStart@ioFullShotSkill@@UAE_NPAVioBaseChar@@@Z ENDP ; ioFullShotSkill::OnSkillStart
PUBLIC	__real@4066800000000000
PUBLIC	__real@4046800000000000
PUBLIC	_pChar$GSCopy$
PUBLIC	?CheckSkillAction@ioFullShotSkill@@IAEXPAVioBaseChar@@@Z ; ioFullShotSkill::CheckSkillAction
EXTRN	__imp_?AngleGap@ioMath@@SAMMM@Z:PROC
EXTRN	__imp_?QuaterToYaw@ioMath@@SAMABUD3DXQUATERNION@@@Z:PROC
EXTRN	__imp_?CalcDirectionQuaternion@ioMath@@SAXAAUD3DXQUATERNION@@ABUD3DXVECTOR3@@@Z:PROC
EXTRN	?CheckCurDirKey@ioBaseChar@@QAE?AW4DirKeyInput@ioUserKeyInput@@XZ:PROC ; ioBaseChar::CheckCurDirKey
EXTRN	?IsSettedDirection@ioBaseChar@@QBE_NXZ:PROC	; ioBaseChar::IsSettedDirection
;	COMDAT __real@4066800000000000
; File d:\lost saga for developer\youtube\tutorial\source\src\lsclient\stdafx.h
CONST	SEGMENT
__real@4066800000000000 DQ 04066800000000000r	; 180
CONST	ENDS
;	COMDAT __real@4046800000000000
CONST	SEGMENT
__real@4046800000000000 DQ 04046800000000000r	; 45
CONST	ENDS
;	COMDAT xdata$x
xdata$x	SEGMENT
__unwindtable$?CheckSkillAction@ioFullShotSkill@@IAEXPAVioBaseChar@@@Z DD 0ffffffffH
	DD	FLAT:__unwindfunclet$?CheckSkillAction@ioFullShotSkill@@IAEXPAVioBaseChar@@@Z$0
__ehfuncinfo$?CheckSkillAction@ioFullShotSkill@@IAEXPAVioBaseChar@@@Z DD 019930522H
	DD	01H
	DD	FLAT:__unwindtable$?CheckSkillAction@ioFullShotSkill@@IAEXPAVioBaseChar@@@Z
	DD	2 DUP(00H)
	DD	2 DUP(00H)
	DD	00H
	DD	01H
; Function compile flags: /Ogsp
; File d:\lost saga for developer\youtube\tutorial\source\src\lsclient\iofullshotskill.cpp
xdata$x	ENDS
;	COMDAT ?CheckSkillAction@ioFullShotSkill@@IAEXPAVioBaseChar@@@Z
_TEXT	SEGMENT
_qtRotate$601634 = -120					; size = 16
_qtMoveRot$601638 = -104				; size = 16
_szSkillMotion$601651 = -88				; size = 16
tv389 = -72						; size = 4
tv302 = -72						; size = 4
_fTargetYaw$601641 = -72				; size = 4
_fYawD$601632 = -72					; size = 4
_pChar$GSCopy$ = -68					; size = 4
_fAngleGap$601646 = -68					; size = 4
_fCurYaw$601640 = -68					; size = 4
$T601637 = -64						; size = 12
$T601639 = -52						; size = 12
$T601636 = -40						; size = 12
_vMoveDir$601629 = -28					; size = 12
__$EHRec$ = -12						; size = 12
_pChar$ = 8						; size = 4
?CheckSkillAction@ioFullShotSkill@@IAEXPAVioBaseChar@@@Z PROC ; ioFullShotSkill::CheckSkillAction, COMDAT
; _this$ = ecx

; 736  : {

  00000	6a 6c		 push	 108			; 0000006cH
  00002	b8 00 00 00 00	 mov	 eax, __ehhandler$?CheckSkillAction@ioFullShotSkill@@IAEXPAVioBaseChar@@@Z
  00007	e8 00 00 00 00	 call	 __EH_prolog3_GS
  0000c	8b 75 08	 mov	 esi, DWORD PTR _pChar$[ebp]
  0000f	8b d9		 mov	 ebx, ecx

; 737  : 	if( pChar->IsSettedDirection() )

  00011	8b ce		 mov	 ecx, esi

; 785  : 				GetAttribute().m_AttackAnimation = m_BackSkillMotion;

  00013	89 75 bc	 mov	 DWORD PTR _pChar$GSCopy$[ebp], esi
  00016	e8 00 00 00 00	 call	 ?IsSettedDirection@ioBaseChar@@QBE_NXZ ; ioBaseChar::IsSettedDirection
  0001b	84 c0		 test	 al, al
  0001d	0f 84 41 02 00
	00		 je	 $LN11@CheckSkill

; 738  : 	{
; 739  : 		D3DXVECTOR3 vMoveDir = pChar->GetMoveDir();

  00023	8b 4d bc	 mov	 ecx, DWORD PTR _pChar$GSCopy$[ebp]
  00026	81 c6 b4 06 00
	00		 add	 esi, 1716		; 000006b4H
  0002c	8d 7d e4	 lea	 edi, DWORD PTR _vMoveDir$601629[ebp]
  0002f	a5		 movsd
  00030	a5		 movsd
  00031	a5		 movsd

; 740  : 		ioUserKeyInput::DirKeyInput eDir = pChar->CheckCurDirKey();

  00032	e8 00 00 00 00	 call	 ?CheckCurDirKey@ioBaseChar@@QAE?AW4DirKeyInput@ioUserKeyInput@@XZ ; ioBaseChar::CheckCurDirKey

; 741  : 		if( eDir != ioUserKeyInput::DKI_NONE )

  00037	85 c0		 test	 eax, eax
  00039	0f 84 a4 00 00
	00		 je	 $LN10@CheckSkill

; 742  : 		{
; 743  : 			float fYawD = 180.0f + 45.0f * ( eDir - ioUserKeyInput::DKI_UP );
; 744  : 			fYawD = ioMath::ArrangeHead( fYawD );

  0003f	0f 57 c0	 xorps	 xmm0, xmm0
  00042	48		 dec	 eax
  00043	f3 0f 2a c0	 cvtsi2ss xmm0, eax
  00047	0f 5a c0	 cvtps2pd xmm0, xmm0
  0004a	f2 0f 59 05 00
	00 00 00	 mulsd	 xmm0, QWORD PTR __real@4046800000000000
  00052	f2 0f 58 05 00
	00 00 00	 addsd	 xmm0, QWORD PTR __real@4066800000000000
  0005a	51		 push	 ecx
  0005b	66 0f 5a c0	 cvtpd2ps xmm0, xmm0
  0005f	f3 0f 11 04 24	 movss	 DWORD PTR [esp], xmm0
  00064	ff 15 00 00 00
	00		 call	 DWORD PTR __imp_?ArrangeHead@ioMath@@SAMM@Z
  0006a	d9 5d b8	 fstp	 DWORD PTR _fYawD$601632[ebp]

; 745  : 
; 746  : 			float fYawR = DEGtoRAD( fYawD );

  0006d	f3 0f 10 45 b8	 movss	 xmm0, DWORD PTR _fYawD$601632[ebp]
  00072	0f 5a c0	 cvtps2pd xmm0, xmm0
  00075	f2 0f 59 05 00
	00 00 00	 mulsd	 xmm0, QWORD PTR __real@3f91df46a2526c7a
  0007d	66 0f 5a c8	 cvtpd2ps xmm1, xmm0

; 747  : 			D3DXQUATERNION qtRotate;
; 748  : 			D3DXQuaternionRotationYawPitchRoll( &qtRotate, fYawR, 0.0f, 0.0f );

  00081	0f 57 c0	 xorps	 xmm0, xmm0
  00084	f3 0f 11 04 24	 movss	 DWORD PTR [esp], xmm0
  00089	51		 push	 ecx
  0008a	51		 push	 ecx
  0008b	f3 0f 11 44 24
	04		 movss	 DWORD PTR [esp+4], xmm0
  00091	8d 45 88	 lea	 eax, DWORD PTR _qtRotate$601634[ebp]
  00094	f3 0f 11 0c 24	 movss	 DWORD PTR [esp], xmm1
  00099	50		 push	 eax
  0009a	e8 00 00 00 00	 call	 _D3DXQuaternionRotationYawPitchRoll@16

; 749  : 
; 750  : 			vMoveDir = qtRotate * D3DXVECTOR3( 0.0f, 0.0f, -FLOAT1 );

  0009f	b8 01 00 00 00	 mov	 eax, 1
  000a4	0f 57 c0	 xorps	 xmm0, xmm0
  000a7	89 45 b8	 mov	 DWORD PTR tv389[ebp], eax
  000aa	db 45 b8	 fild	 DWORD PTR tv389[ebp]
  000ad	f3 0f 11 45 d8	 movss	 DWORD PTR $T601636[ebp], xmm0
  000b2	f3 0f 11 45 dc	 movss	 DWORD PTR $T601636[ebp+4], xmm0
  000b7	85 c0		 test	 eax, eax
  000b9	79 06		 jns	 SHORT $LN36@CheckSkill
  000bb	d8 05 00 00 00
	00		 fadd	 DWORD PTR __real@4f800000
$LN36@CheckSkill:
  000c1	8d 45 d8	 lea	 eax, DWORD PTR $T601636[ebp]
  000c4	d9 e0		 fchs
  000c6	50		 push	 eax
  000c7	d9 5d e0	 fstp	 DWORD PTR $T601636[ebp+8]
  000ca	8d 45 88	 lea	 eax, DWORD PTR _qtRotate$601634[ebp]
  000cd	50		 push	 eax
  000ce	8d 45 c0	 lea	 eax, DWORD PTR $T601637[ebp]
  000d1	50		 push	 eax
  000d2	ff 15 00 00 00
	00		 call	 DWORD PTR __imp_??D@YA?AUD3DXVECTOR3@@ABUD3DXQUATERNION@@ABU0@@Z
  000d8	8b f0		 mov	 esi, eax
  000da	8d 7d e4	 lea	 edi, DWORD PTR _vMoveDir$601629[ebp]
  000dd	a5		 movsd
  000de	a5		 movsd
  000df	83 c4 0c	 add	 esp, 12			; 0000000cH
  000e2	a5		 movsd
$LN10@CheckSkill:

; 751  : 		}
; 752  : 
; 753  : 		vMoveDir.y = 0.0f;

  000e3	0f 57 c0	 xorps	 xmm0, xmm0

; 754  : 		D3DXVec3Normalize( &vMoveDir, &vMoveDir );

  000e6	8d 45 e4	 lea	 eax, DWORD PTR _vMoveDir$601629[ebp]
  000e9	50		 push	 eax
  000ea	50		 push	 eax
  000eb	f3 0f 11 45 e8	 movss	 DWORD PTR _vMoveDir$601629[ebp+4], xmm0
  000f0	e8 00 00 00 00	 call	 _D3DXVec3Normalize@8

; 755  : 
; 756  : 		D3DXQUATERNION qtMoveRot;
; 757  : 		ioMath::CalcDirectionQuaternion( qtMoveRot, -vMoveDir );

  000f5	f3 0f 10 05 00
	00 00 00	 movss	 xmm0, DWORD PTR __mask@@NegFloat@
  000fd	f3 0f 10 4d e4	 movss	 xmm1, DWORD PTR _vMoveDir$601629[ebp]
  00102	f3 0f 10 55 e8	 movss	 xmm2, DWORD PTR _vMoveDir$601629[ebp+4]
  00107	f3 0f 10 5d ec	 movss	 xmm3, DWORD PTR _vMoveDir$601629[ebp+8]
  0010c	8d 45 cc	 lea	 eax, DWORD PTR $T601639[ebp]
  0010f	50		 push	 eax
  00110	8d 45 98	 lea	 eax, DWORD PTR _qtMoveRot$601638[ebp]
  00113	0f 57 c8	 xorps	 xmm1, xmm0
  00116	0f 57 d0	 xorps	 xmm2, xmm0
  00119	0f 57 d8	 xorps	 xmm3, xmm0
  0011c	50		 push	 eax
  0011d	f3 0f 11 4d cc	 movss	 DWORD PTR $T601639[ebp], xmm1
  00122	f3 0f 11 55 d0	 movss	 DWORD PTR $T601639[ebp+4], xmm2
  00127	f3 0f 11 5d d4	 movss	 DWORD PTR $T601639[ebp+8], xmm3
  0012c	ff 15 00 00 00
	00		 call	 DWORD PTR __imp_?CalcDirectionQuaternion@ioMath@@SAXAAUD3DXQUATERNION@@ABUD3DXVECTOR3@@@Z

; 758  : 
; 759  : 		float fCurYaw, fTargetYaw;
; 760  : 		fTargetYaw = RADtoDEG( ioMath::QuaterToYaw( qtMoveRot ) );

  00132	8d 45 98	 lea	 eax, DWORD PTR _qtMoveRot$601638[ebp]
  00135	50		 push	 eax
  00136	ff 15 00 00 00
	00		 call	 DWORD PTR __imp_?QuaterToYaw@ioMath@@SAMABUD3DXQUATERNION@@@Z
  0013c	59		 pop	 ecx
  0013d	59		 pop	 ecx
  0013e	d9 1c 24	 fstp	 DWORD PTR [esp]
  00141	e8 00 00 00 00	 call	 ??$RADtoDEG@M@@YAMM@Z	; RADtoDEG<float>
  00146	d9 5d b8	 fstp	 DWORD PTR _fTargetYaw$601641[ebp]

; 761  : 		fTargetYaw = ioMath::ArrangeHead( fTargetYaw );

  00149	f3 0f 10 45 b8	 movss	 xmm0, DWORD PTR _fTargetYaw$601641[ebp]
  0014e	f3 0f 11 04 24	 movss	 DWORD PTR [esp], xmm0
  00153	ff 15 00 00 00
	00		 call	 DWORD PTR __imp_?ArrangeHead@ioMath@@SAMM@Z
  00159	d9 5d b8	 fstp	 DWORD PTR _fTargetYaw$601641[ebp]

; 762  : 
; 763  : 		fCurYaw = RADtoDEG( ioMath::QuaterToYaw( pChar->GetTargetRot() ) );

  0015c	8b 45 bc	 mov	 eax, DWORD PTR _pChar$GSCopy$[ebp]
  0015f	05 a4 06 00 00	 add	 eax, 1700		; 000006a4H
  00164	50		 push	 eax
  00165	ff 15 00 00 00
	00		 call	 DWORD PTR __imp_?QuaterToYaw@ioMath@@SAMABUD3DXQUATERNION@@@Z
  0016b	59		 pop	 ecx
  0016c	d9 1c 24	 fstp	 DWORD PTR [esp]
  0016f	e8 00 00 00 00	 call	 ??$RADtoDEG@M@@YAMM@Z	; RADtoDEG<float>
  00174	d9 5d bc	 fstp	 DWORD PTR _fCurYaw$601640[ebp]

; 764  : 		fCurYaw = ioMath::ArrangeHead( fCurYaw );

  00177	f3 0f 10 45 bc	 movss	 xmm0, DWORD PTR _fCurYaw$601640[ebp]
  0017c	f3 0f 11 04 24	 movss	 DWORD PTR [esp], xmm0
  00181	ff 15 00 00 00
	00		 call	 DWORD PTR __imp_?ArrangeHead@ioMath@@SAMM@Z
  00187	d9 5d bc	 fstp	 DWORD PTR _fCurYaw$601640[ebp]

; 765  : 
; 766  : 		float fAngleGap = ioMath::AngleGap( fCurYaw, fTargetYaw );

  0018a	f3 0f 10 45 b8	 movss	 xmm0, DWORD PTR _fTargetYaw$601641[ebp]
  0018f	f3 0f 11 04 24	 movss	 DWORD PTR [esp], xmm0
  00194	f3 0f 10 45 bc	 movss	 xmm0, DWORD PTR _fCurYaw$601640[ebp]
  00199	51		 push	 ecx
  0019a	f3 0f 11 04 24	 movss	 DWORD PTR [esp], xmm0
  0019f	ff 15 00 00 00
	00		 call	 DWORD PTR __imp_?AngleGap@ioMath@@SAMMM@Z
  001a5	d9 5d bc	 fstp	 DWORD PTR _fAngleGap$601646[ebp]
  001a8	59		 pop	 ecx
  001a9	59		 pop	 ecx

; 767  : 		fAngleGap += FLOAT360;

  001aa	b8 68 01 00 00	 mov	 eax, 360		; 00000168H
  001af	89 45 b8	 mov	 DWORD PTR tv302[ebp], eax
  001b2	db 45 b8	 fild	 DWORD PTR tv302[ebp]
  001b5	85 c0		 test	 eax, eax
  001b7	79 06		 jns	 SHORT $LN37@CheckSkill
  001b9	d8 05 00 00 00
	00		 fadd	 DWORD PTR __real@4f800000
$LN37@CheckSkill:
  001bf	d8 45 bc	 fadd	 DWORD PTR _fAngleGap$601646[ebp]

; 768  : 
; 769  : 		int iTest = (int)fAngleGap % 360;

  001c2	b9 68 01 00 00	 mov	 ecx, 360		; 00000168H

; 770  : 		int iIndex = iTest / 30;

  001c7	6a 1e		 push	 30			; 0000001eH
  001c9	d9 5d bc	 fstp	 DWORD PTR _fAngleGap$601646[ebp]
  001cc	f3 0f 2c 45 bc	 cvttss2si eax, DWORD PTR _fAngleGap$601646[ebp]
  001d1	99		 cdq
  001d2	f7 f9		 idiv	 ecx
  001d4	59		 pop	 ecx
  001d5	8b c2		 mov	 eax, edx
  001d7	99		 cdq
  001d8	f7 f9		 idiv	 ecx

; 771  : 
; 772  : 		ioHashString szSkillMotion = GetSkillMotionName();

  001da	8b cb		 mov	 ecx, ebx
  001dc	8b f8		 mov	 edi, eax
  001de	8b 03		 mov	 eax, DWORD PTR [ebx]
  001e0	ff 90 20 01 00
	00		 call	 DWORD PTR [eax+288]
  001e6	50		 push	 eax
  001e7	8d 4d a8	 lea	 ecx, DWORD PTR _szSkillMotion$601651[ebp]
  001ea	ff 15 00 00 00
	00		 call	 DWORD PTR __imp_??0ioHashString@@QAE@ABV0@@Z
  001f0	83 65 fc 00	 and	 DWORD PTR __$EHRec$[ebp+8], 0

; 773  : 
; 774  : 		GetAttribute().m_AttackAnimation = szSkillMotion;

  001f4	8d 45 a8	 lea	 eax, DWORD PTR _szSkillMotion$601651[ebp]
  001f7	50		 push	 eax
  001f8	8b 03		 mov	 eax, DWORD PTR [ebx]
  001fa	8b cb		 mov	 ecx, ebx
  001fc	ff 90 a4 01 00
	00		 call	 DWORD PTR [eax+420]
  00202	8b 35 00 00 00
	00		 mov	 esi, DWORD PTR __imp_??4ioHashString@@QAEAAV0@ABV0@@Z
  00208	8b c8		 mov	 ecx, eax
  0020a	ff d6		 call	 esi

; 775  : 		if( iIndex > 0 && iIndex < 5 )

  0020c	8d 47 ff	 lea	 eax, DWORD PTR [edi-1]
  0020f	83 f8 03	 cmp	 eax, 3
  00212	77 08		 ja	 SHORT $LN9@CheckSkill

; 776  : 		{
; 777  : 			if( !m_RightSkillMotion.IsEmpty() )

  00214	8d bb 08 11 00
	00		 lea	 edi, DWORD PTR [ebx+4360]

; 778  : 			{
; 779  : 				GetAttribute().m_AttackAnimation = m_RightSkillMotion;
; 780  : 			}
; 781  : 		}

  0021a	eb 20		 jmp	 SHORT $LN38@CheckSkill
$LN9@CheckSkill:

; 782  : 		else if( iIndex == 5 || iIndex == 6 )

  0021c	83 ff 05	 cmp	 edi, 5
  0021f	74 15		 je	 SHORT $LN5@CheckSkill
  00221	83 ff 06	 cmp	 edi, 6
  00224	74 10		 je	 SHORT $LN5@CheckSkill

; 786  : 		}
; 787  : 		else if( iIndex > 6 && iIndex < 11 )

  00226	83 c7 f9	 add	 edi, -7			; fffffff9H
  00229	83 ff 03	 cmp	 edi, 3
  0022c	77 29		 ja	 SHORT $LN4@CheckSkill

; 788  : 		{
; 789  : 			if( !m_LeftSkillMotion.IsEmpty() )

  0022e	8d bb 18 11 00
	00		 lea	 edi, DWORD PTR [ebx+4376]

; 790  : 				GetAttribute().m_AttackAnimation = m_LeftSkillMotion;

  00234	eb 06		 jmp	 SHORT $LN38@CheckSkill
$LN5@CheckSkill:

; 783  : 		{
; 784  : 			if( !m_BackSkillMotion.IsEmpty() )

  00236	8d bb 28 11 00
	00		 lea	 edi, DWORD PTR [ebx+4392]
$LN38@CheckSkill:
  0023c	8b cf		 mov	 ecx, edi
  0023e	ff 15 00 00 00
	00		 call	 DWORD PTR __imp_?IsEmpty@ioHashString@@QBE_NXZ
  00244	84 c0		 test	 al, al
  00246	75 0f		 jne	 SHORT $LN4@CheckSkill

; 785  : 				GetAttribute().m_AttackAnimation = m_BackSkillMotion;

  00248	8b 03		 mov	 eax, DWORD PTR [ebx]
  0024a	57		 push	 edi
  0024b	8b cb		 mov	 ecx, ebx
  0024d	ff 90 a4 01 00
	00		 call	 DWORD PTR [eax+420]
  00253	8b c8		 mov	 ecx, eax
  00255	ff d6		 call	 esi
$LN4@CheckSkill:

; 791  : 		}
; 792  : 	}

  00257	83 4d fc ff	 or	 DWORD PTR __$EHRec$[ebp+8], -1
  0025b	8d 4d a8	 lea	 ecx, DWORD PTR _szSkillMotion$601651[ebp]
  0025e	ff 15 00 00 00
	00		 call	 DWORD PTR __imp_??1ioHashString@@QAE@XZ
$LN11@CheckSkill:

; 793  : }

  00264	e8 00 00 00 00	 call	 __EH_epilog3_GS
  00269	c2 04 00	 ret	 4
_TEXT	ENDS
;	COMDAT text$x
text$x	SEGMENT
__unwindfunclet$?CheckSkillAction@ioFullShotSkill@@IAEXPAVioBaseChar@@@Z$0:
  00000	8d 4d a8	 lea	 ecx, DWORD PTR _szSkillMotion$601651[ebp]
  00003	ff 25 00 00 00
	00		 jmp	 DWORD PTR __imp_??1ioHashString@@QAE@XZ
__ehhandler$?CheckSkillAction@ioFullShotSkill@@IAEXPAVioBaseChar@@@Z:
  00009	8b 54 24 08	 mov	 edx, DWORD PTR [esp+8]
  0000d	8d 42 0c	 lea	 eax, DWORD PTR [edx+12]
  00010	8b 4a 84	 mov	 ecx, DWORD PTR [edx-124]
  00013	33 c8		 xor	 ecx, eax
  00015	e8 00 00 00 00	 call	 @__security_check_cookie@4
  0001a	8b 4a fc	 mov	 ecx, DWORD PTR [edx-4]
  0001d	33 c8		 xor	 ecx, eax
  0001f	e8 00 00 00 00	 call	 @__security_check_cookie@4
  00024	b8 00 00 00 00	 mov	 eax, OFFSET __ehfuncinfo$?CheckSkillAction@ioFullShotSkill@@IAEXPAVioBaseChar@@@Z
  00029	e9 00 00 00 00	 jmp	 ___CxxFrameHandler3
text$x	ENDS
?CheckSkillAction@ioFullShotSkill@@IAEXPAVioBaseChar@@@Z ENDP ; ioFullShotSkill::CheckSkillAction
PUBLIC	??0?$vector@UBulletInfo@@V?$allocator@UBulletInfo@@@std@@@std@@QAE@XZ ; std::vector<BulletInfo,std::allocator<BulletInfo> >::vector<BulletInfo,std::allocator<BulletInfo> >
; Function compile flags: /Ogsp
; File c:\program files (x86)\microsoft visual studio 10.0\vc\include\vector
;	COMDAT ??0?$vector@UBulletInfo@@V?$allocator@UBulletInfo@@@std@@@std@@QAE@XZ
_TEXT	SEGMENT
??0?$vector@UBulletInfo@@V?$allocator@UBulletInfo@@@std@@@std@@QAE@XZ PROC ; std::vector<BulletInfo,std::allocator<BulletInfo> >::vector<BulletInfo,std::allocator<BulletInfo> >, COMDAT
; _this$ = ecx

; 507  : 		{	// construct empty vector

  00000	8b c1		 mov	 eax, ecx
  00002	33 c9		 xor	 ecx, ecx
  00004	89 08		 mov	 DWORD PTR [eax], ecx
  00006	89 48 04	 mov	 DWORD PTR [eax+4], ecx
  00009	89 48 08	 mov	 DWORD PTR [eax+8], ecx

; 508  : 		}

  0000c	c3		 ret	 0
??0?$vector@UBulletInfo@@V?$allocator@UBulletInfo@@@std@@@std@@QAE@XZ ENDP ; std::vector<BulletInfo,std::allocator<BulletInfo> >::vector<BulletInfo,std::allocator<BulletInfo> >
_TEXT	ENDS
PUBLIC	?_Buy@?$vector@UBulletInfo@@V?$allocator@UBulletInfo@@@std@@@std@@IAE_NI@Z ; std::vector<BulletInfo,std::allocator<BulletInfo> >::_Buy
; Function compile flags: /Ogsp
;	COMDAT ?_Buy@?$vector@UBulletInfo@@V?$allocator@UBulletInfo@@@std@@@std@@IAE_NI@Z
_TEXT	SEGMENT
__Capacity$ = 8						; size = 4
?_Buy@?$vector@UBulletInfo@@V?$allocator@UBulletInfo@@@std@@@std@@IAE_NI@Z PROC ; std::vector<BulletInfo,std::allocator<BulletInfo> >::_Buy, COMDAT
; _this$ = ecx

; 1250 : 		{	// allocate array with _Capacity elements

  00000	55		 push	 ebp
  00001	8b ec		 mov	 ebp, esp
  00003	56		 push	 esi

; 1251 : 		this->_Myfirst = 0;

  00004	33 c0		 xor	 eax, eax
  00006	57		 push	 edi

; 1252 : 		this->_Mylast = 0;
; 1253 : 		this->_Myend = 0;
; 1254 : 
; 1255 : 		if (_Capacity == 0)

  00007	8b 7d 08	 mov	 edi, DWORD PTR __Capacity$[ebp]
  0000a	8b f1		 mov	 esi, ecx
  0000c	89 06		 mov	 DWORD PTR [esi], eax
  0000e	89 46 04	 mov	 DWORD PTR [esi+4], eax
  00011	89 46 08	 mov	 DWORD PTR [esi+8], eax
  00014	3b f8		 cmp	 edi, eax
  00016	75 04		 jne	 SHORT $LN4@Buy

; 1256 : 			return (false);

  00018	32 c0		 xor	 al, al
  0001a	eb 2b		 jmp	 SHORT $LN5@Buy
$LN4@Buy:

; 1257 : 		else if (max_size() < _Capacity)

  0001c	81 ff cc cc cc
	0c		 cmp	 edi, 214748364		; 0cccccccH
  00022	76 0b		 jbe	 SHORT $LN2@Buy

; 1258 : 			_Xlen();	// result too long

  00024	68 00 00 00 00	 push	 OFFSET ??_C@_0BD@OLBABOEK@vector?$DMT?$DO?5too?5long?$AA@
  00029	ff 15 00 00 00
	00		 call	 DWORD PTR __imp_?_Xlength_error@std@@YAXPBD@Z
$LN19@Buy:
$LN2@Buy:

; 1259 : 		else
; 1260 : 			{	// nonempty array, allocate storage
; 1261 : 			this->_Myfirst = this->_Alval.allocate(_Capacity);

  0002f	50		 push	 eax
  00030	57		 push	 edi
  00031	e8 00 00 00 00	 call	 ??$_Allocate@UBulletInfo@@@std@@YAPAUBulletInfo@@IPAU1@@Z ; std::_Allocate<BulletInfo>

; 1262 : 			this->_Mylast = this->_Myfirst;
; 1263 : 			this->_Myend = this->_Myfirst + _Capacity;

  00036	6b ff 14	 imul	 edi, 20			; 00000014H
  00039	03 f8		 add	 edi, eax
  0003b	59		 pop	 ecx
  0003c	89 06		 mov	 DWORD PTR [esi], eax
  0003e	89 46 04	 mov	 DWORD PTR [esi+4], eax
  00041	59		 pop	 ecx
  00042	89 7e 08	 mov	 DWORD PTR [esi+8], edi

; 1264 : 			}
; 1265 : 		return (true);

  00045	b0 01		 mov	 al, 1
$LN5@Buy:
  00047	5f		 pop	 edi
  00048	5e		 pop	 esi

; 1266 : 		}

  00049	5d		 pop	 ebp
  0004a	c2 04 00	 ret	 4
$LN18@Buy:
?_Buy@?$vector@UBulletInfo@@V?$allocator@UBulletInfo@@@std@@@std@@IAE_NI@Z ENDP ; std::vector<BulletInfo,std::allocator<BulletInfo> >::_Buy
_TEXT	ENDS
PUBLIC	??9?$_Vector_const_iterator@V?$_Vector_val@UBulletInfo@@V?$allocator@UBulletInfo@@@std@@@std@@@std@@QBE_NABV01@@Z ; std::_Vector_const_iterator<std::_Vector_val<BulletInfo,std::allocator<BulletInfo> > >::operator!=
; Function compile flags: /Ogsp
;	COMDAT ??9?$_Vector_const_iterator@V?$_Vector_val@UBulletInfo@@V?$allocator@UBulletInfo@@@std@@@std@@@std@@QBE_NABV01@@Z
_TEXT	SEGMENT
__Right$ = 8						; size = 4
??9?$_Vector_const_iterator@V?$_Vector_val@UBulletInfo@@V?$allocator@UBulletInfo@@@std@@@std@@@std@@QBE_NABV01@@Z PROC ; std::_Vector_const_iterator<std::_Vector_val<BulletInfo,std::allocator<BulletInfo> > >::operator!=, COMDAT
; _this$ = ecx

; 207  : 		{	// test for iterator inequality

  00000	55		 push	 ebp
  00001	8b ec		 mov	 ebp, esp

; 208  : 		return (!(*this == _Right));

  00003	8b 01		 mov	 eax, DWORD PTR [ecx]
  00005	8b 55 08	 mov	 edx, DWORD PTR __Right$[ebp]
  00008	33 c9		 xor	 ecx, ecx
  0000a	3b 02		 cmp	 eax, DWORD PTR [edx]
  0000c	0f 95 c0	 setne	 al

; 209  : 		}

  0000f	5d		 pop	 ebp
  00010	c2 04 00	 ret	 4
??9?$_Vector_const_iterator@V?$_Vector_val@UBulletInfo@@V?$allocator@UBulletInfo@@@std@@@std@@@std@@QBE_NABV01@@Z ENDP ; std::_Vector_const_iterator<std::_Vector_val<BulletInfo,std::allocator<BulletInfo> > >::operator!=
_TEXT	ENDS
PUBLIC	??$_Cons_val@V?$allocator@UBulletInfo@@@std@@UBulletInfo@@ABU3@@std@@YAXAAV?$allocator@UBulletInfo@@@0@PAUBulletInfo@@ABU2@@Z ; std::_Cons_val<std::allocator<BulletInfo>,BulletInfo,BulletInfo const &>
; Function compile flags: /Ogsp
; File c:\program files (x86)\microsoft visual studio 10.0\vc\include\xmemory
;	COMDAT ??$_Cons_val@V?$allocator@UBulletInfo@@@std@@UBulletInfo@@ABU3@@std@@YAXAAV?$allocator@UBulletInfo@@@0@PAUBulletInfo@@ABU2@@Z
_TEXT	SEGMENT
__Alval$ = 8						; size = 4
__Pdest$ = 12						; size = 4
__Src$ = 16						; size = 4
??$_Cons_val@V?$allocator@UBulletInfo@@@std@@UBulletInfo@@ABU3@@std@@YAXAAV?$allocator@UBulletInfo@@@0@PAUBulletInfo@@ABU2@@Z PROC ; std::_Cons_val<std::allocator<BulletInfo>,BulletInfo,BulletInfo const &>, COMDAT

; 279  : 	{	// construct using allocator

  00000	55		 push	 ebp
  00001	8b ec		 mov	 ebp, esp
  00003	57		 push	 edi

; 280  : 	_Alval.construct(_Pdest, _STD forward<_Ty2>(_Src));

  00004	8b 7d 0c	 mov	 edi, DWORD PTR __Pdest$[ebp]
  00007	85 ff		 test	 edi, edi
  00009	74 0a		 je	 SHORT $LN9@Cons_val@2
  0000b	56		 push	 esi
  0000c	8b 75 10	 mov	 esi, DWORD PTR __Src$[ebp]
  0000f	6a 05		 push	 5
  00011	59		 pop	 ecx
  00012	f3 a5		 rep movsd
  00014	5e		 pop	 esi
$LN9@Cons_val@2:
  00015	5f		 pop	 edi

; 281  : 	}

  00016	5d		 pop	 ebp
  00017	c3		 ret	 0
??$_Cons_val@V?$allocator@UBulletInfo@@@std@@UBulletInfo@@ABU3@@std@@YAXAAV?$allocator@UBulletInfo@@@0@PAUBulletInfo@@ABU2@@Z ENDP ; std::_Cons_val<std::allocator<BulletInfo>,BulletInfo,BulletInfo const &>
_TEXT	ENDS
PUBLIC	??$_Move@PAUBulletInfo@@PAU1@@std@@YAPAUBulletInfo@@PAU1@00@Z ; std::_Move<BulletInfo *,BulletInfo *>
; Function compile flags: /Ogsp
; File c:\program files (x86)\microsoft visual studio 10.0\vc\include\xutility
;	COMDAT ??$_Move@PAUBulletInfo@@PAU1@@std@@YAPAUBulletInfo@@PAU1@00@Z
_TEXT	SEGMENT
__Cat$607771 = -4					; size = 1
__First$ = 8						; size = 4
__Last$ = 12						; size = 4
__Dest$ = 16						; size = 4
??$_Move@PAUBulletInfo@@PAU1@@std@@YAPAUBulletInfo@@PAU1@00@Z PROC ; std::_Move<BulletInfo *,BulletInfo *>, COMDAT

; 2533 : 	{	// move [_First, _Last) to [_Dest, ...), unchecked

  00000	55		 push	 ebp
  00001	8b ec		 mov	 ebp, esp
  00003	51		 push	 ecx

; 2534 : 	return (_Move(_First, _Last,
; 2535 : 		_Dest, _Ptr_cat(_First, _Dest)));

  00004	ff 75 fc	 push	 DWORD PTR __Cat$607771[ebp]
  00007	ff 75 10	 push	 DWORD PTR __Dest$[ebp]
  0000a	ff 75 0c	 push	 DWORD PTR __Last$[ebp]
  0000d	ff 75 08	 push	 DWORD PTR __First$[ebp]
  00010	e8 00 00 00 00	 call	 ??$_Move@PAUBulletInfo@@PAU1@@std@@YAPAUBulletInfo@@PAU1@00U_Nonscalar_ptr_iterator_tag@0@@Z ; std::_Move<BulletInfo *,BulletInfo *>
  00015	83 c4 10	 add	 esp, 16			; 00000010H

; 2536 : 	}

  00018	c9		 leave
  00019	c3		 ret	 0
??$_Move@PAUBulletInfo@@PAU1@@std@@YAPAUBulletInfo@@PAU1@00@Z ENDP ; std::_Move<BulletInfo *,BulletInfo *>
_TEXT	ENDS
PUBLIC	??$_Dest_val@V?$allocator@UBulletInfo@@@std@@UBulletInfo@@@std@@YAXAAV?$allocator@UBulletInfo@@@0@PAUBulletInfo@@@Z ; std::_Dest_val<std::allocator<BulletInfo>,BulletInfo>
; Function compile flags: /Ogsp
; File c:\program files (x86)\microsoft visual studio 10.0\vc\include\xmemory
;	COMDAT ??$_Dest_val@V?$allocator@UBulletInfo@@@std@@UBulletInfo@@@std@@YAXAAV?$allocator@UBulletInfo@@@0@PAUBulletInfo@@@Z
_TEXT	SEGMENT
__Alval$ = 8						; size = 4
__Pdest$ = 12						; size = 4
??$_Dest_val@V?$allocator@UBulletInfo@@@std@@UBulletInfo@@@std@@YAXAAV?$allocator@UBulletInfo@@@0@PAUBulletInfo@@@Z PROC ; std::_Dest_val<std::allocator<BulletInfo>,BulletInfo>, COMDAT

; 287  : 	_Alval.destroy(_Pdest);
; 288  : 	}

  00000	c3		 ret	 0
??$_Dest_val@V?$allocator@UBulletInfo@@@std@@UBulletInfo@@@std@@YAXAAV?$allocator@UBulletInfo@@@0@PAUBulletInfo@@@Z ENDP ; std::_Dest_val<std::allocator<BulletInfo>,BulletInfo>
_TEXT	ENDS
PUBLIC	??$_Cons_val@V?$allocator@UBulletInfo@@@std@@UBulletInfo@@U3@@std@@YAXAAV?$allocator@UBulletInfo@@@0@PAUBulletInfo@@$$QAU2@@Z ; std::_Cons_val<std::allocator<BulletInfo>,BulletInfo,BulletInfo>
; Function compile flags: /Ogsp
;	COMDAT ??$_Cons_val@V?$allocator@UBulletInfo@@@std@@UBulletInfo@@U3@@std@@YAXAAV?$allocator@UBulletInfo@@@0@PAUBulletInfo@@$$QAU2@@Z
_TEXT	SEGMENT
__Alval$ = 8						; size = 4
__Pdest$ = 12						; size = 4
__Src$ = 16						; size = 4
??$_Cons_val@V?$allocator@UBulletInfo@@@std@@UBulletInfo@@U3@@std@@YAXAAV?$allocator@UBulletInfo@@@0@PAUBulletInfo@@$$QAU2@@Z PROC ; std::_Cons_val<std::allocator<BulletInfo>,BulletInfo,BulletInfo>, COMDAT

; 279  : 	{	// construct using allocator

  00000	55		 push	 ebp
  00001	8b ec		 mov	 ebp, esp
  00003	57		 push	 edi

; 280  : 	_Alval.construct(_Pdest, _STD forward<_Ty2>(_Src));

  00004	8b 7d 0c	 mov	 edi, DWORD PTR __Pdest$[ebp]
  00007	85 ff		 test	 edi, edi
  00009	74 0a		 je	 SHORT $LN7@Cons_val@3
  0000b	56		 push	 esi
  0000c	8b 75 10	 mov	 esi, DWORD PTR __Src$[ebp]
  0000f	6a 05		 push	 5
  00011	59		 pop	 ecx
  00012	f3 a5		 rep movsd
  00014	5e		 pop	 esi
$LN7@Cons_val@3:
  00015	5f		 pop	 edi

; 281  : 	}

  00016	5d		 pop	 ebp
  00017	c3		 ret	 0
??$_Cons_val@V?$allocator@UBulletInfo@@@std@@UBulletInfo@@U3@@std@@YAXAAV?$allocator@UBulletInfo@@@0@PAUBulletInfo@@$$QAU2@@Z ENDP ; std::_Cons_val<std::allocator<BulletInfo>,BulletInfo,BulletInfo>
_TEXT	ENDS
PUBLIC	__$ArrayPad$
PUBLIC	?AttackSkillFire@ioFullShotSkill@@MAEXPAVioBaseChar@@@Z ; ioFullShotSkill::AttackSkillFire
EXTRN	?AttackSkillFire@ioAttackSkill@@MAEXPAVioBaseChar@@@Z:PROC ; ioAttackSkill::AttackSkillFire
EXTRN	??1SP2Packet@@UAE@XZ:PROC			; SP2Packet::~SP2Packet
EXTRN	?SendToAllPlayingUser@P2PNetwork@@YAXAAVSP2Packet@@PAVioBaseChar@@@Z:PROC ; P2PNetwork::SendToAllPlayingUser
EXTRN	??6SP2Packet@@QAEAAV0@K@Z:PROC			; SP2Packet::operator<<
EXTRN	??6SP2Packet@@QAEAAV0@ABVioHashString@@@Z:PROC	; SP2Packet::operator<<
EXTRN	??0SP2Packet@@QAE@K@Z:PROC			; SP2Packet::SP2Packet
EXTRN	__imp__timeGetTime@0:PROC
EXTRN	__chkstk:PROC
;	COMDAT xdata$x
; File d:\lost saga for developer\youtube\tutorial\source\src\lsclient\ioskill.h
xdata$x	SEGMENT
__unwindtable$?AttackSkillFire@ioFullShotSkill@@MAEXPAVioBaseChar@@@Z DD 0ffffffffH
	DD	FLAT:__unwindfunclet$?AttackSkillFire@ioFullShotSkill@@MAEXPAVioBaseChar@@@Z$0
__ehfuncinfo$?AttackSkillFire@ioFullShotSkill@@MAEXPAVioBaseChar@@@Z DD 019930522H
	DD	01H
	DD	FLAT:__unwindtable$?AttackSkillFire@ioFullShotSkill@@MAEXPAVioBaseChar@@@Z
	DD	2 DUP(00H)
	DD	2 DUP(00H)
	DD	00H
	DD	01H
; Function compile flags: /Ogsp
; File d:\lost saga for developer\youtube\tutorial\source\src\lsclient\iofullshotskill.cpp
xdata$x	ENDS
;	COMDAT ?AttackSkillFire@ioFullShotSkill@@MAEXPAVioBaseChar@@@Z
_TEXT	SEGMENT
_kPacket$601395 = -32808				; size = 32792
__$ArrayPad$ = -16					; size = 4
__$EHRec$ = -12						; size = 12
_pChar$ = 8						; size = 4
?AttackSkillFire@ioFullShotSkill@@MAEXPAVioBaseChar@@@Z PROC ; ioFullShotSkill::AttackSkillFire, COMDAT
; _this$ = ecx

; 216  : {

  00000	55		 push	 ebp
  00001	8b ec		 mov	 ebp, esp
  00003	6a ff		 push	 -1
  00005	68 00 00 00 00	 push	 __ehhandler$?AttackSkillFire@ioFullShotSkill@@MAEXPAVioBaseChar@@@Z
  0000a	64 a1 00 00 00
	00		 mov	 eax, DWORD PTR fs:0
  00010	50		 push	 eax
  00011	b8 1c 80 00 00	 mov	 eax, 32796		; 0000801cH
  00016	e8 00 00 00 00	 call	 __chkstk
  0001b	a1 00 00 00 00	 mov	 eax, DWORD PTR ___security_cookie
  00020	33 c5		 xor	 eax, ebp
  00022	89 45 f0	 mov	 DWORD PTR __$ArrayPad$[ebp], eax
  00025	56		 push	 esi
  00026	57		 push	 edi
  00027	50		 push	 eax
  00028	8d 45 f4	 lea	 eax, DWORD PTR __$EHRec$[ebp]
  0002b	64 a3 00 00 00
	00		 mov	 DWORD PTR fs:0, eax
  00031	8b 7d 08	 mov	 edi, DWORD PTR _pChar$[ebp]
  00034	8b f1		 mov	 esi, ecx

; 217  : 	if( pChar && pChar->IsNeedProcess() )

  00036	85 ff		 test	 edi, edi
  00038	0f 84 bb 00 00
	00		 je	 $LN1@AttackSkil
  0003e	8b 07		 mov	 eax, DWORD PTR [edi]
  00040	8b cf		 mov	 ecx, edi
  00042	ff 90 00 01 00
	00		 call	 DWORD PTR [eax+256]
  00048	84 c0		 test	 al, al
  0004a	74 08		 je	 SHORT $LN2@AttackSkil

; 218  : 	{
; 219  : 		CheckSkillAction( pChar );

  0004c	57		 push	 edi
  0004d	8b ce		 mov	 ecx, esi
  0004f	e8 00 00 00 00	 call	 ?CheckSkillAction@ioFullShotSkill@@IAEXPAVioBaseChar@@@Z ; ioFullShotSkill::CheckSkillAction
$LN2@AttackSkil:

; 220  : 	}
; 221  : 
; 222  : 	if( pChar && pChar->IsNeedSendNetwork() )

  00054	8b 07		 mov	 eax, DWORD PTR [edi]
  00056	8b cf		 mov	 ecx, edi
  00058	ff 90 04 01 00
	00		 call	 DWORD PTR [eax+260]
  0005e	84 c0		 test	 al, al
  00060	0f 84 93 00 00
	00		 je	 $LN1@AttackSkil

; 223  : 	{
; 224  : 		m_dwSeed = timeGetTime();

  00066	ff 15 00 00 00
	00		 call	 DWORD PTR __imp__timeGetTime@0

; 225  : 		m_SpeedRand.SetRandomSeed( m_dwSeed );

  0006c	50		 push	 eax
  0006d	8d 8e 3c 11 00
	00		 lea	 ecx, DWORD PTR [esi+4412]
  00073	89 86 38 11 00
	00		 mov	 DWORD PTR [esi+4408], eax
  00079	e8 00 00 00 00	 call	 ?SetRandomSeed@IORandom@@QAEXI@Z ; IORandom::SetRandomSeed

; 226  : 
; 227  : 		SP2Packet kPacket( CUPK_SKILL_EXTRA_INFO );

  0007e	68 39 41 00 00	 push	 16697			; 00004139H
  00083	8d 8d d8 7f ff
	ff		 lea	 ecx, DWORD PTR _kPacket$601395[ebp]
  00089	e8 00 00 00 00	 call	 ??0SP2Packet@@QAE@K@Z	; SP2Packet::SP2Packet
  0008e	83 65 fc 00	 and	 DWORD PTR __$EHRec$[ebp+8], 0

; 228  : 		kPacket << pChar->GetCharName();

  00092	8d 87 d4 02 00
	00		 lea	 eax, DWORD PTR [edi+724]
  00098	50		 push	 eax
  00099	8d 8d d8 7f ff
	ff		 lea	 ecx, DWORD PTR _kPacket$601395[ebp]
  0009f	e8 00 00 00 00	 call	 ??6SP2Packet@@QAEAAV0@ABVioHashString@@@Z ; SP2Packet::operator<<

; 229  : 		kPacket << GetName();

  000a4	8d 46 24	 lea	 eax, DWORD PTR [esi+36]
  000a7	50		 push	 eax
  000a8	8d 8d d8 7f ff
	ff		 lea	 ecx, DWORD PTR _kPacket$601395[ebp]
  000ae	e8 00 00 00 00	 call	 ??6SP2Packet@@QAEAAV0@ABVioHashString@@@Z ; SP2Packet::operator<<

; 230  : 		kPacket << m_dwSeed;

  000b3	ff b6 38 11 00
	00		 push	 DWORD PTR [esi+4408]
  000b9	8d 8d d8 7f ff
	ff		 lea	 ecx, DWORD PTR _kPacket$601395[ebp]
  000bf	e8 00 00 00 00	 call	 ??6SP2Packet@@QAEAAV0@K@Z ; SP2Packet::operator<<

; 231  : 		kPacket << GetAttribute().m_AttackAnimation;

  000c4	8b 06		 mov	 eax, DWORD PTR [esi]
  000c6	8b ce		 mov	 ecx, esi
  000c8	ff 90 a4 01 00
	00		 call	 DWORD PTR [eax+420]
  000ce	50		 push	 eax
  000cf	8d 8d d8 7f ff
	ff		 lea	 ecx, DWORD PTR _kPacket$601395[ebp]
  000d5	e8 00 00 00 00	 call	 ??6SP2Packet@@QAEAAV0@ABVioHashString@@@Z ; SP2Packet::operator<<

; 232  : 		P2PNetwork::SendToAllPlayingUser( kPacket );

  000da	8d 85 d8 7f ff
	ff		 lea	 eax, DWORD PTR _kPacket$601395[ebp]
  000e0	6a 00		 push	 0
  000e2	50		 push	 eax
  000e3	e8 00 00 00 00	 call	 ?SendToAllPlayingUser@P2PNetwork@@YAXAAVSP2Packet@@PAVioBaseChar@@@Z ; P2PNetwork::SendToAllPlayingUser

; 233  : 	}

  000e8	83 4d fc ff	 or	 DWORD PTR __$EHRec$[ebp+8], -1
  000ec	59		 pop	 ecx
  000ed	59		 pop	 ecx
  000ee	8d 8d d8 7f ff
	ff		 lea	 ecx, DWORD PTR _kPacket$601395[ebp]
  000f4	e8 00 00 00 00	 call	 ??1SP2Packet@@UAE@XZ	; SP2Packet::~SP2Packet
$LN1@AttackSkil:

; 234  : 
; 235  : 	ioAttackSkill::AttackSkillFire( pChar );

  000f9	57		 push	 edi
  000fa	8b ce		 mov	 ecx, esi
  000fc	e8 00 00 00 00	 call	 ?AttackSkillFire@ioAttackSkill@@MAEXPAVioBaseChar@@@Z ; ioAttackSkill::AttackSkillFire

; 236  : 	SetSkillActionState( pChar );

  00101	57		 push	 edi
  00102	8b ce		 mov	 ecx, esi
  00104	e8 00 00 00 00	 call	 ?SetSkillActionState@ioFullShotSkill@@IAEXPAVioBaseChar@@@Z ; ioFullShotSkill::SetSkillActionState

; 237  : }

  00109	8b 4d f4	 mov	 ecx, DWORD PTR __$EHRec$[ebp]
  0010c	64 89 0d 00 00
	00 00		 mov	 DWORD PTR fs:0, ecx
  00113	59		 pop	 ecx
  00114	5f		 pop	 edi
  00115	5e		 pop	 esi
  00116	8b 4d f0	 mov	 ecx, DWORD PTR __$ArrayPad$[ebp]
  00119	33 cd		 xor	 ecx, ebp
  0011b	e8 00 00 00 00	 call	 @__security_check_cookie@4
  00120	c9		 leave
  00121	c2 04 00	 ret	 4
_TEXT	ENDS
;	COMDAT text$x
text$x	SEGMENT
__unwindfunclet$?AttackSkillFire@ioFullShotSkill@@MAEXPAVioBaseChar@@@Z$0:
  00000	8d 8d d8 7f ff
	ff		 lea	 ecx, DWORD PTR _kPacket$601395[ebp]
  00006	e9 00 00 00 00	 jmp	 ??1SP2Packet@@UAE@XZ	; SP2Packet::~SP2Packet
__ehhandler$?AttackSkillFire@ioFullShotSkill@@MAEXPAVioBaseChar@@@Z:
  0000b	8b 54 24 08	 mov	 edx, DWORD PTR [esp+8]
  0000f	8d 42 0c	 lea	 eax, DWORD PTR [edx+12]
  00012	8b 8a d8 7f ff
	ff		 mov	 ecx, DWORD PTR [edx-32808]
  00018	33 c8		 xor	 ecx, eax
  0001a	e8 00 00 00 00	 call	 @__security_check_cookie@4
  0001f	8b 4a fc	 mov	 ecx, DWORD PTR [edx-4]
  00022	33 c8		 xor	 ecx, eax
  00024	e8 00 00 00 00	 call	 @__security_check_cookie@4
  00029	b8 00 00 00 00	 mov	 eax, OFFSET __ehfuncinfo$?AttackSkillFire@ioFullShotSkill@@MAEXPAVioBaseChar@@@Z
  0002e	e9 00 00 00 00	 jmp	 ___CxxFrameHandler3
text$x	ENDS
?AttackSkillFire@ioFullShotSkill@@MAEXPAVioBaseChar@@@Z ENDP ; ioFullShotSkill::AttackSkillFire
PUBLIC	??$_Destroy_range@V?$allocator@UBulletInfo@@@std@@@std@@YAXPAUBulletInfo@@0AAV?$allocator@UBulletInfo@@@0@U_Nonscalar_ptr_iterator_tag@0@@Z ; std::_Destroy_range<std::allocator<BulletInfo> >
; Function compile flags: /Ogsp
; File c:\program files (x86)\microsoft visual studio 10.0\vc\include\xmemory
;	COMDAT ??$_Destroy_range@V?$allocator@UBulletInfo@@@std@@@std@@YAXPAUBulletInfo@@0AAV?$allocator@UBulletInfo@@@0@U_Nonscalar_ptr_iterator_tag@0@@Z
_TEXT	SEGMENT
__First$ = 8						; size = 4
__Last$ = 12						; size = 4
__Al$ = 16						; size = 4
___formal$ = 20						; size = 1
??$_Destroy_range@V?$allocator@UBulletInfo@@@std@@@std@@YAXPAUBulletInfo@@0AAV?$allocator@UBulletInfo@@@0@U_Nonscalar_ptr_iterator_tag@0@@Z PROC ; std::_Destroy_range<std::allocator<BulletInfo> >, COMDAT

; 96   : 	for (; _First != _Last; ++_First)
; 97   : 		_Dest_val(_Al, _First);
; 98   : 	}

  00000	c3		 ret	 0
??$_Destroy_range@V?$allocator@UBulletInfo@@@std@@@std@@YAXPAUBulletInfo@@0AAV?$allocator@UBulletInfo@@@0@U_Nonscalar_ptr_iterator_tag@0@@Z ENDP ; std::_Destroy_range<std::allocator<BulletInfo> >
_TEXT	ENDS
PUBLIC	??$_Uninit_copy@V?$_Vector_const_iterator@V?$_Vector_val@UBulletInfo@@V?$allocator@UBulletInfo@@@std@@@std@@@std@@PAUBulletInfo@@V?$allocator@UBulletInfo@@@2@@std@@YAPAUBulletInfo@@V?$_Vector_const_iterator@V?$_Vector_val@UBulletInfo@@V?$allocator@UBulletInfo@@@std@@@std@@@0@0PAU1@AAV?$allocator@UBulletInfo@@@0@U_Nonscalar_ptr_iterator_tag@0@@Z ; std::_Uninit_copy<std::_Vector_const_iterator<std::_Vector_val<BulletInfo,std::allocator<BulletInfo> > >,BulletInfo *,std::allocator<BulletInfo> >
; Function compile flags: /Ogsp
; File c:\program files (x86)\microsoft visual studio 10.0\vc\include\memory
;	COMDAT ??$_Uninit_copy@V?$_Vector_const_iterator@V?$_Vector_val@UBulletInfo@@V?$allocator@UBulletInfo@@@std@@@std@@@std@@PAUBulletInfo@@V?$allocator@UBulletInfo@@@2@@std@@YAPAUBulletInfo@@V?$_Vector_const_iterator@V?$_Vector_val@UBulletInfo@@V?$allocator@UBulletInfo@@@std@@@std@@@0@0PAU1@AAV?$allocator@UBulletInfo@@@0@U_Nonscalar_ptr_iterator_tag@0@@Z
_TEXT	SEGMENT
__First$ = 8						; size = 4
__Last$ = 12						; size = 4
__Dest$ = 16						; size = 4
__Al$ = 20						; size = 4
___formal$ = 24						; size = 1
??$_Uninit_copy@V?$_Vector_const_iterator@V?$_Vector_val@UBulletInfo@@V?$allocator@UBulletInfo@@@std@@@std@@@std@@PAUBulletInfo@@V?$allocator@UBulletInfo@@@2@@std@@YAPAUBulletInfo@@V?$_Vector_const_iterator@V?$_Vector_val@UBulletInfo@@V?$allocator@UBulletInfo@@@std@@@std@@@0@0PAU1@AAV?$allocator@UBulletInfo@@@0@U_Nonscalar_ptr_iterator_tag@0@@Z PROC ; std::_Uninit_copy<std::_Vector_const_iterator<std::_Vector_val<BulletInfo,std::allocator<BulletInfo> > >,BulletInfo *,std::allocator<BulletInfo> >, COMDAT

; 369  : 	{	// copy [_First, _Last) to raw _Dest, using _Al, arbitrary type

  00000	55		 push	 ebp
  00001	8b ec		 mov	 ebp, esp

; 370  : 	_DEBUG_RANGE(_First, _Last);
; 371  : 	_DEBUG_POINTER(_Dest);
; 372  : 	_FwdIt _Next = _Dest;
; 373  : 
; 374  : 	_TRY_BEGIN
; 375  : 	for (; _First != _Last; ++_Dest, ++_First)

  00003	eb 19		 jmp	 SHORT $LN35@Uninit_cop
$LL14@Uninit_cop:

; 376  : 		_Cons_val(_Al, _Dest, *_First);

  00005	ff 75 08	 push	 DWORD PTR __First$[ebp]
  00008	ff 75 10	 push	 DWORD PTR __Dest$[ebp]
  0000b	ff 75 14	 push	 DWORD PTR __Al$[ebp]
  0000e	e8 00 00 00 00	 call	 ??$_Cons_val@V?$allocator@UBulletInfo@@@std@@UBulletInfo@@ABU3@@std@@YAXAAV?$allocator@UBulletInfo@@@0@PAUBulletInfo@@ABU2@@Z ; std::_Cons_val<std::allocator<BulletInfo>,BulletInfo,BulletInfo const &>
  00013	83 45 10 14	 add	 DWORD PTR __Dest$[ebp], 20 ; 00000014H
  00017	83 c4 0c	 add	 esp, 12			; 0000000cH
  0001a	83 45 08 14	 add	 DWORD PTR __First$[ebp], 20 ; 00000014H
$LN35@Uninit_cop:

; 370  : 	_DEBUG_RANGE(_First, _Last);
; 371  : 	_DEBUG_POINTER(_Dest);
; 372  : 	_FwdIt _Next = _Dest;
; 373  : 
; 374  : 	_TRY_BEGIN
; 375  : 	for (; _First != _Last; ++_Dest, ++_First)

  0001e	8b 45 08	 mov	 eax, DWORD PTR __First$[ebp]
  00021	3b 45 0c	 cmp	 eax, DWORD PTR __Last$[ebp]
  00024	75 df		 jne	 SHORT $LL14@Uninit_cop

; 377  : 	_CATCH_ALL
; 378  : 	for (; _Next != _Dest; ++_Next)
; 379  : 		_Dest_val(_Al, _Next);
; 380  : 	_RERAISE;
; 381  : 	_CATCH_END
; 382  : 	return (_Dest);

  00026	8b 45 10	 mov	 eax, DWORD PTR __Dest$[ebp]

; 383  : 	}

  00029	5d		 pop	 ebp
  0002a	c3		 ret	 0
??$_Uninit_copy@V?$_Vector_const_iterator@V?$_Vector_val@UBulletInfo@@V?$allocator@UBulletInfo@@@std@@@std@@@std@@PAUBulletInfo@@V?$allocator@UBulletInfo@@@2@@std@@YAPAUBulletInfo@@V?$_Vector_const_iterator@V?$_Vector_val@UBulletInfo@@V?$allocator@UBulletInfo@@@std@@@std@@@0@0PAU1@AAV?$allocator@UBulletInfo@@@0@U_Nonscalar_ptr_iterator_tag@0@@Z ENDP ; std::_Uninit_copy<std::_Vector_const_iterator<std::_Vector_val<BulletInfo,std::allocator<BulletInfo> > >,BulletInfo *,std::allocator<BulletInfo> >
_TEXT	ENDS
PUBLIC	??$_Uninit_move@PAUBulletInfo@@PAU1@V?$allocator@UBulletInfo@@@std@@U1@@std@@YAPAUBulletInfo@@PAU1@00AAV?$allocator@UBulletInfo@@@0@0U_Nonscalar_ptr_iterator_tag@0@@Z ; std::_Uninit_move<BulletInfo *,BulletInfo *,std::allocator<BulletInfo>,BulletInfo>
; Function compile flags: /Ogsp
;	COMDAT ??$_Uninit_move@PAUBulletInfo@@PAU1@V?$allocator@UBulletInfo@@@std@@U1@@std@@YAPAUBulletInfo@@PAU1@00AAV?$allocator@UBulletInfo@@@0@0U_Nonscalar_ptr_iterator_tag@0@@Z
_TEXT	SEGMENT
__First$ = 8						; size = 4
__Last$ = 12						; size = 4
__Dest$ = 16						; size = 4
__Al$ = 20						; size = 4
___formal$ = 24						; size = 4
___formal$ = 28						; size = 1
??$_Uninit_move@PAUBulletInfo@@PAU1@V?$allocator@UBulletInfo@@@std@@U1@@std@@YAPAUBulletInfo@@PAU1@00AAV?$allocator@UBulletInfo@@@0@0U_Nonscalar_ptr_iterator_tag@0@@Z PROC ; std::_Uninit_move<BulletInfo *,BulletInfo *,std::allocator<BulletInfo>,BulletInfo>, COMDAT

; 424  : 	{	// move [_First, _Last) to raw _Dest, using _Al, arbitrary type

  00000	55		 push	 ebp
  00001	8b ec		 mov	 ebp, esp
  00003	56		 push	 esi

; 425  : 	_DEBUG_RANGE(_First, _Last);
; 426  : 	_DEBUG_POINTER(_Dest);
; 427  : 	_FwdIt _Next = _Dest;
; 428  : 
; 429  : 	_TRY_BEGIN
; 430  : 	for (; _First != _Last; ++_Dest, ++_First)

  00004	8b 75 08	 mov	 esi, DWORD PTR __First$[ebp]
  00007	eb 16		 jmp	 SHORT $LN24@Uninit_mov
$LL6@Uninit_mov:

; 431  : 		_Cons_val(_Al, _Dest, (_Valty &&)*_First);

  00009	56		 push	 esi
  0000a	ff 75 10	 push	 DWORD PTR __Dest$[ebp]
  0000d	ff 75 14	 push	 DWORD PTR __Al$[ebp]
  00010	e8 00 00 00 00	 call	 ??$_Cons_val@V?$allocator@UBulletInfo@@@std@@UBulletInfo@@U3@@std@@YAXAAV?$allocator@UBulletInfo@@@0@PAUBulletInfo@@$$QAU2@@Z ; std::_Cons_val<std::allocator<BulletInfo>,BulletInfo,BulletInfo>
  00015	83 45 10 14	 add	 DWORD PTR __Dest$[ebp], 20 ; 00000014H
  00019	83 c4 0c	 add	 esp, 12			; 0000000cH
  0001c	83 c6 14	 add	 esi, 20			; 00000014H
$LN24@Uninit_mov:

; 425  : 	_DEBUG_RANGE(_First, _Last);
; 426  : 	_DEBUG_POINTER(_Dest);
; 427  : 	_FwdIt _Next = _Dest;
; 428  : 
; 429  : 	_TRY_BEGIN
; 430  : 	for (; _First != _Last; ++_Dest, ++_First)

  0001f	3b 75 0c	 cmp	 esi, DWORD PTR __Last$[ebp]
  00022	75 e5		 jne	 SHORT $LL6@Uninit_mov

; 432  : 	_CATCH_ALL
; 433  : 	for (; _Next != _Dest; ++_Next)
; 434  : 		_Dest_val(_Al, _Next);
; 435  : 	_RERAISE;
; 436  : 	_CATCH_END
; 437  : 	return (_Dest);

  00024	8b 45 10	 mov	 eax, DWORD PTR __Dest$[ebp]
  00027	5e		 pop	 esi

; 438  : 	}

  00028	5d		 pop	 ebp
  00029	c3		 ret	 0
??$_Uninit_move@PAUBulletInfo@@PAU1@V?$allocator@UBulletInfo@@@std@@U1@@std@@YAPAUBulletInfo@@PAU1@00AAV?$allocator@UBulletInfo@@@0@0U_Nonscalar_ptr_iterator_tag@0@@Z ENDP ; std::_Uninit_move<BulletInfo *,BulletInfo *,std::allocator<BulletInfo>,BulletInfo>
_TEXT	ENDS
PUBLIC	??$_Destroy_range@V?$allocator@UBulletInfo@@@std@@@std@@YAXPAUBulletInfo@@0AAV?$allocator@UBulletInfo@@@0@@Z ; std::_Destroy_range<std::allocator<BulletInfo> >
; Function compile flags: /Ogsp
; File c:\program files (x86)\microsoft visual studio 10.0\vc\include\xmemory
;	COMDAT ??$_Destroy_range@V?$allocator@UBulletInfo@@@std@@@std@@YAXPAUBulletInfo@@0AAV?$allocator@UBulletInfo@@@0@@Z
_TEXT	SEGMENT
__First$ = 8						; size = 4
__Last$ = 12						; size = 4
__Al$ = 16						; size = 4
??$_Destroy_range@V?$allocator@UBulletInfo@@@std@@@std@@YAXPAUBulletInfo@@0AAV?$allocator@UBulletInfo@@@0@@Z PROC ; std::_Destroy_range<std::allocator<BulletInfo> >, COMDAT

; 88   : 	_Destroy_range(_First, _Last, _Al, _Ptr_cat(_First, _Last));
; 89   : 	}

  00000	c3		 ret	 0
??$_Destroy_range@V?$allocator@UBulletInfo@@@std@@@std@@YAXPAUBulletInfo@@0AAV?$allocator@UBulletInfo@@@0@@Z ENDP ; std::_Destroy_range<std::allocator<BulletInfo> >
_TEXT	ENDS
PUBLIC	??$_Uninitialized_copy@V?$_Vector_const_iterator@V?$_Vector_val@UBulletInfo@@V?$allocator@UBulletInfo@@@std@@@std@@@std@@PAUBulletInfo@@V?$allocator@UBulletInfo@@@2@@std@@YAPAUBulletInfo@@V?$_Vector_const_iterator@V?$_Vector_val@UBulletInfo@@V?$allocator@UBulletInfo@@@std@@@std@@@0@0PAU1@AAV?$allocator@UBulletInfo@@@0@@Z ; std::_Uninitialized_copy<std::_Vector_const_iterator<std::_Vector_val<BulletInfo,std::allocator<BulletInfo> > >,BulletInfo *,std::allocator<BulletInfo> >
; Function compile flags: /Ogsp
; File c:\program files (x86)\microsoft visual studio 10.0\vc\include\memory
;	COMDAT ??$_Uninitialized_copy@V?$_Vector_const_iterator@V?$_Vector_val@UBulletInfo@@V?$allocator@UBulletInfo@@@std@@@std@@@std@@PAUBulletInfo@@V?$allocator@UBulletInfo@@@2@@std@@YAPAUBulletInfo@@V?$_Vector_const_iterator@V?$_Vector_val@UBulletInfo@@V?$allocator@UBulletInfo@@@std@@@std@@@0@0PAU1@AAV?$allocator@UBulletInfo@@@0@@Z
_TEXT	SEGMENT
__Cat$607970 = -4					; size = 1
__First$ = 8						; size = 4
__Last$ = 12						; size = 4
__Dest$ = 16						; size = 4
__Al$ = 20						; size = 4
??$_Uninitialized_copy@V?$_Vector_const_iterator@V?$_Vector_val@UBulletInfo@@V?$allocator@UBulletInfo@@@std@@@std@@@std@@PAUBulletInfo@@V?$allocator@UBulletInfo@@@2@@std@@YAPAUBulletInfo@@V?$_Vector_const_iterator@V?$_Vector_val@UBulletInfo@@V?$allocator@UBulletInfo@@@std@@@std@@@0@0PAU1@AAV?$allocator@UBulletInfo@@@0@@Z PROC ; std::_Uninitialized_copy<std::_Vector_const_iterator<std::_Vector_val<BulletInfo,std::allocator<BulletInfo> > >,BulletInfo *,std::allocator<BulletInfo> >, COMDAT

; 412  : 	{	// copy [_First, _Last) to raw _Dest, using _Al

  00000	55		 push	 ebp
  00001	8b ec		 mov	 ebp, esp
  00003	51		 push	 ecx

; 413  : 	return (_Uninit_copy(_First, _Last, _Dest, _Al,
; 414  : 		_Ptr_cat(_First, _Dest)));

  00004	ff 75 fc	 push	 DWORD PTR __Cat$607970[ebp]
  00007	ff 75 14	 push	 DWORD PTR __Al$[ebp]
  0000a	ff 75 10	 push	 DWORD PTR __Dest$[ebp]
  0000d	ff 75 0c	 push	 DWORD PTR __Last$[ebp]
  00010	ff 75 08	 push	 DWORD PTR __First$[ebp]
  00013	e8 00 00 00 00	 call	 ??$_Uninit_copy@V?$_Vector_const_iterator@V?$_Vector_val@UBulletInfo@@V?$allocator@UBulletInfo@@@std@@@std@@@std@@PAUBulletInfo@@V?$allocator@UBulletInfo@@@2@@std@@YAPAUBulletInfo@@V?$_Vector_const_iterator@V?$_Vector_val@UBulletInfo@@V?$allocator@UBulletInfo@@@std@@@std@@@0@0PAU1@AAV?$allocator@UBulletInfo@@@0@U_Nonscalar_ptr_iterator_tag@0@@Z ; std::_Uninit_copy<std::_Vector_const_iterator<std::_Vector_val<BulletInfo,std::allocator<BulletInfo> > >,BulletInfo *,std::allocator<BulletInfo> >
  00018	83 c4 14	 add	 esp, 20			; 00000014H

; 415  : 	}

  0001b	c9		 leave
  0001c	c3		 ret	 0
??$_Uninitialized_copy@V?$_Vector_const_iterator@V?$_Vector_val@UBulletInfo@@V?$allocator@UBulletInfo@@@std@@@std@@@std@@PAUBulletInfo@@V?$allocator@UBulletInfo@@@2@@std@@YAPAUBulletInfo@@V?$_Vector_const_iterator@V?$_Vector_val@UBulletInfo@@V?$allocator@UBulletInfo@@@std@@@std@@@0@0PAU1@AAV?$allocator@UBulletInfo@@@0@@Z ENDP ; std::_Uninitialized_copy<std::_Vector_const_iterator<std::_Vector_val<BulletInfo,std::allocator<BulletInfo> > >,BulletInfo *,std::allocator<BulletInfo> >
_TEXT	ENDS
PUBLIC	??$_Uninitialized_move@PAUBulletInfo@@PAU1@V?$allocator@UBulletInfo@@@std@@@std@@YAPAUBulletInfo@@PAU1@00AAV?$allocator@UBulletInfo@@@0@@Z ; std::_Uninitialized_move<BulletInfo *,BulletInfo *,std::allocator<BulletInfo> >
; Function compile flags: /Ogsp
;	COMDAT ??$_Uninitialized_move@PAUBulletInfo@@PAU1@V?$allocator@UBulletInfo@@@std@@@std@@YAPAUBulletInfo@@PAU1@00AAV?$allocator@UBulletInfo@@@0@@Z
_TEXT	SEGMENT
__Cat$607977 = -4					; size = 1
__First$ = 8						; size = 4
__Last$ = 12						; size = 4
__Dest$ = 16						; size = 4
__Al$ = 20						; size = 4
??$_Uninitialized_move@PAUBulletInfo@@PAU1@V?$allocator@UBulletInfo@@@std@@@std@@YAPAUBulletInfo@@PAU1@00AAV?$allocator@UBulletInfo@@@0@@Z PROC ; std::_Uninitialized_move<BulletInfo *,BulletInfo *,std::allocator<BulletInfo> >, COMDAT

; 469  : 	{	// move [_First, _Last) to raw _Dest, using _Al

  00000	55		 push	 ebp
  00001	8b ec		 mov	 ebp, esp
  00003	51		 push	 ecx

; 470  : 	return (_Uninit_move(_First, _Last, _Dest, _Al,
; 471  : 		_Val_type(_First), _Ptr_cat(_First, _Dest)));

  00004	ff 75 fc	 push	 DWORD PTR __Cat$607977[ebp]
  00007	6a 00		 push	 0
  00009	ff 75 14	 push	 DWORD PTR __Al$[ebp]
  0000c	ff 75 10	 push	 DWORD PTR __Dest$[ebp]
  0000f	ff 75 0c	 push	 DWORD PTR __Last$[ebp]
  00012	ff 75 08	 push	 DWORD PTR __First$[ebp]
  00015	e8 00 00 00 00	 call	 ??$_Uninit_move@PAUBulletInfo@@PAU1@V?$allocator@UBulletInfo@@@std@@U1@@std@@YAPAUBulletInfo@@PAU1@00AAV?$allocator@UBulletInfo@@@0@0U_Nonscalar_ptr_iterator_tag@0@@Z ; std::_Uninit_move<BulletInfo *,BulletInfo *,std::allocator<BulletInfo>,BulletInfo>
  0001a	83 c4 18	 add	 esp, 24			; 00000018H

; 472  : 	}

  0001d	c9		 leave
  0001e	c3		 ret	 0
??$_Uninitialized_move@PAUBulletInfo@@PAU1@V?$allocator@UBulletInfo@@@std@@@std@@YAPAUBulletInfo@@PAU1@00AAV?$allocator@UBulletInfo@@@0@@Z ENDP ; std::_Uninitialized_move<BulletInfo *,BulletInfo *,std::allocator<BulletInfo> >
_TEXT	ENDS
PUBLIC	?_Destroy@?$vector@UBulletInfo@@V?$allocator@UBulletInfo@@@std@@@std@@IAEXPAUBulletInfo@@0@Z ; std::vector<BulletInfo,std::allocator<BulletInfo> >::_Destroy
; Function compile flags: /Ogsp
; File c:\program files (x86)\microsoft visual studio 10.0\vc\include\vector
;	COMDAT ?_Destroy@?$vector@UBulletInfo@@V?$allocator@UBulletInfo@@@std@@@std@@IAEXPAUBulletInfo@@0@Z
_TEXT	SEGMENT
__First$ = 8						; size = 4
__Last$ = 12						; size = 4
?_Destroy@?$vector@UBulletInfo@@V?$allocator@UBulletInfo@@@std@@@std@@IAEXPAUBulletInfo@@0@Z PROC ; std::vector<BulletInfo,std::allocator<BulletInfo> >::_Destroy, COMDAT
; _this$ = ecx

; 1270 : 		_Destroy_range(_First, _Last, this->_Alval);
; 1271 : 		}

  00000	c2 08 00	 ret	 8
?_Destroy@?$vector@UBulletInfo@@V?$allocator@UBulletInfo@@@std@@@std@@IAEXPAUBulletInfo@@0@Z ENDP ; std::vector<BulletInfo,std::allocator<BulletInfo> >::_Destroy
_TEXT	ENDS
PUBLIC	??$_Ucopy@V?$_Vector_const_iterator@V?$_Vector_val@UBulletInfo@@V?$allocator@UBulletInfo@@@std@@@std@@@std@@@?$vector@UBulletInfo@@V?$allocator@UBulletInfo@@@std@@@std@@IAEPAUBulletInfo@@V?$_Vector_const_iterator@V?$_Vector_val@UBulletInfo@@V?$allocator@UBulletInfo@@@std@@@std@@@1@0PAU2@@Z ; std::vector<BulletInfo,std::allocator<BulletInfo> >::_Ucopy<std::_Vector_const_iterator<std::_Vector_val<BulletInfo,std::allocator<BulletInfo> > > >
; Function compile flags: /Ogsp
;	COMDAT ??$_Ucopy@V?$_Vector_const_iterator@V?$_Vector_val@UBulletInfo@@V?$allocator@UBulletInfo@@@std@@@std@@@std@@@?$vector@UBulletInfo@@V?$allocator@UBulletInfo@@@std@@@std@@IAEPAUBulletInfo@@V?$_Vector_const_iterator@V?$_Vector_val@UBulletInfo@@V?$allocator@UBulletInfo@@@std@@@std@@@1@0PAU2@@Z
_TEXT	SEGMENT
__First$ = 8						; size = 4
__Last$ = 12						; size = 4
__Cat$608050 = 16					; size = 1
__Ptr$ = 16						; size = 4
??$_Ucopy@V?$_Vector_const_iterator@V?$_Vector_val@UBulletInfo@@V?$allocator@UBulletInfo@@@std@@@std@@@std@@@?$vector@UBulletInfo@@V?$allocator@UBulletInfo@@@std@@@std@@IAEPAUBulletInfo@@V?$_Vector_const_iterator@V?$_Vector_val@UBulletInfo@@V?$allocator@UBulletInfo@@@std@@@std@@@1@0PAU2@@Z PROC ; std::vector<BulletInfo,std::allocator<BulletInfo> >::_Ucopy<std::_Vector_const_iterator<std::_Vector_val<BulletInfo,std::allocator<BulletInfo> > > >, COMDAT
; _this$ = ecx

; 1315 : 		pointer _Ucopy(_Iter _First, _Iter _Last, pointer _Ptr)

  00000	55		 push	 ebp
  00001	8b ec		 mov	 ebp, esp

; 1316 : 		{	// copy initializing [_First, _Last), using allocator
; 1317 : 		return (_Uninitialized_copy(_First, _Last,
; 1318 : 			_Ptr, this->_Alval));

  00003	ff 75 10	 push	 DWORD PTR __Cat$608050[ebp]
  00006	83 c1 0c	 add	 ecx, 12			; 0000000cH
  00009	51		 push	 ecx
  0000a	ff 75 10	 push	 DWORD PTR __Ptr$[ebp]
  0000d	ff 75 0c	 push	 DWORD PTR __Last$[ebp]
  00010	ff 75 08	 push	 DWORD PTR __First$[ebp]
  00013	e8 00 00 00 00	 call	 ??$_Uninit_copy@V?$_Vector_const_iterator@V?$_Vector_val@UBulletInfo@@V?$allocator@UBulletInfo@@@std@@@std@@@std@@PAUBulletInfo@@V?$allocator@UBulletInfo@@@2@@std@@YAPAUBulletInfo@@V?$_Vector_const_iterator@V?$_Vector_val@UBulletInfo@@V?$allocator@UBulletInfo@@@std@@@std@@@0@0PAU1@AAV?$allocator@UBulletInfo@@@0@U_Nonscalar_ptr_iterator_tag@0@@Z ; std::_Uninit_copy<std::_Vector_const_iterator<std::_Vector_val<BulletInfo,std::allocator<BulletInfo> > >,BulletInfo *,std::allocator<BulletInfo> >
  00018	83 c4 14	 add	 esp, 20			; 00000014H

; 1319 : 		}

  0001b	5d		 pop	 ebp
  0001c	c2 0c 00	 ret	 12			; 0000000cH
??$_Ucopy@V?$_Vector_const_iterator@V?$_Vector_val@UBulletInfo@@V?$allocator@UBulletInfo@@@std@@@std@@@std@@@?$vector@UBulletInfo@@V?$allocator@UBulletInfo@@@std@@@std@@IAEPAUBulletInfo@@V?$_Vector_const_iterator@V?$_Vector_val@UBulletInfo@@V?$allocator@UBulletInfo@@@std@@@std@@@1@0PAU2@@Z ENDP ; std::vector<BulletInfo,std::allocator<BulletInfo> >::_Ucopy<std::_Vector_const_iterator<std::_Vector_val<BulletInfo,std::allocator<BulletInfo> > > >
_TEXT	ENDS
PUBLIC	??$_Umove@PAUBulletInfo@@@?$vector@UBulletInfo@@V?$allocator@UBulletInfo@@@std@@@std@@IAEPAUBulletInfo@@PAU2@00@Z ; std::vector<BulletInfo,std::allocator<BulletInfo> >::_Umove<BulletInfo *>
; Function compile flags: /Ogsp
;	COMDAT ??$_Umove@PAUBulletInfo@@@?$vector@UBulletInfo@@V?$allocator@UBulletInfo@@@std@@@std@@IAEPAUBulletInfo@@PAU2@00@Z
_TEXT	SEGMENT
__First$ = 8						; size = 4
__Last$ = 12						; size = 4
__Ptr$ = 16						; size = 4
??$_Umove@PAUBulletInfo@@@?$vector@UBulletInfo@@V?$allocator@UBulletInfo@@@std@@@std@@IAEPAUBulletInfo@@PAU2@00@Z PROC ; std::vector<BulletInfo,std::allocator<BulletInfo> >::_Umove<BulletInfo *>, COMDAT
; _this$ = ecx

; 1322 : 		pointer _Umove(_Iter _First, _Iter _Last, pointer _Ptr)

  00000	55		 push	 ebp
  00001	8b ec		 mov	 ebp, esp

; 1323 : 		{	// move initializing [_First, _Last), using allocator
; 1324 : 		return (_Uninitialized_move(_First, _Last,
; 1325 : 			_Ptr, this->_Alval));

  00003	83 c1 0c	 add	 ecx, 12			; 0000000cH
  00006	51		 push	 ecx
  00007	ff 75 10	 push	 DWORD PTR __Ptr$[ebp]
  0000a	ff 75 0c	 push	 DWORD PTR __Last$[ebp]
  0000d	ff 75 08	 push	 DWORD PTR __First$[ebp]
  00010	e8 00 00 00 00	 call	 ??$_Uninitialized_move@PAUBulletInfo@@PAU1@V?$allocator@UBulletInfo@@@std@@@std@@YAPAUBulletInfo@@PAU1@00AAV?$allocator@UBulletInfo@@@0@@Z ; std::_Uninitialized_move<BulletInfo *,BulletInfo *,std::allocator<BulletInfo> >
  00015	83 c4 10	 add	 esp, 16			; 00000010H

; 1326 : 		}

  00018	5d		 pop	 ebp
  00019	c2 0c 00	 ret	 12			; 0000000cH
??$_Umove@PAUBulletInfo@@@?$vector@UBulletInfo@@V?$allocator@UBulletInfo@@@std@@@std@@IAEPAUBulletInfo@@PAU2@00@Z ENDP ; std::vector<BulletInfo,std::allocator<BulletInfo> >::_Umove<BulletInfo *>
_TEXT	ENDS
PUBLIC	?erase@?$vector@UBulletInfo@@V?$allocator@UBulletInfo@@@std@@@std@@QAE?AV?$_Vector_iterator@V?$_Vector_val@UBulletInfo@@V?$allocator@UBulletInfo@@@std@@@std@@@2@V?$_Vector_const_iterator@V?$_Vector_val@UBulletInfo@@V?$allocator@UBulletInfo@@@std@@@std@@@2@0@Z ; std::vector<BulletInfo,std::allocator<BulletInfo> >::erase
; Function compile flags: /Ogsp
;	COMDAT ?erase@?$vector@UBulletInfo@@V?$allocator@UBulletInfo@@@std@@@std@@QAE?AV?$_Vector_iterator@V?$_Vector_val@UBulletInfo@@V?$allocator@UBulletInfo@@@std@@@std@@@2@V?$_Vector_const_iterator@V?$_Vector_val@UBulletInfo@@V?$allocator@UBulletInfo@@@std@@@std@@@2@0@Z
_TEXT	SEGMENT
___$ReturnUdt$ = 8					; size = 4
__First_arg$ = 12					; size = 4
__Cat$608131 = 16					; size = 1
__Last_arg$ = 16					; size = 4
?erase@?$vector@UBulletInfo@@V?$allocator@UBulletInfo@@@std@@@std@@QAE?AV?$_Vector_iterator@V?$_Vector_val@UBulletInfo@@V?$allocator@UBulletInfo@@@std@@@std@@@2@V?$_Vector_const_iterator@V?$_Vector_val@UBulletInfo@@V?$allocator@UBulletInfo@@@std@@@std@@@2@0@Z PROC ; std::vector<BulletInfo,std::allocator<BulletInfo> >::erase, COMDAT
; _this$ = ecx

; 1190 : 		{	// erase [_First, _Last)

  00000	55		 push	 ebp
  00001	8b ec		 mov	 ebp, esp

; 1191 : 		iterator _First = _Make_iter(_First_arg);

  00003	8b 45 0c	 mov	 eax, DWORD PTR __First_arg$[ebp]
  00006	56		 push	 esi
  00007	57		 push	 edi
  00008	8b 7d 08	 mov	 edi, DWORD PTR ___$ReturnUdt$[ebp]
  0000b	8b f1		 mov	 esi, ecx
  0000d	89 07		 mov	 DWORD PTR [edi], eax

; 1192 : 		iterator _Last = _Make_iter(_Last_arg);
; 1193 : 
; 1194 : 		if (_First != _Last)

  0000f	3b 45 10	 cmp	 eax, DWORD PTR __Last_arg$[ebp]
  00012	74 16		 je	 SHORT $LN1@erase

; 1195 : 			{	// worth doing, copy down over hole
; 1196 :  #if _ITERATOR_DEBUG_LEVEL == 2
; 1197 : 			if (_Last < _First || _VICONT(_First) != this
; 1198 : 				|| _VIPTR(_First) < this->_Myfirst
; 1199 : 				|| this->_Mylast < _VIPTR(_Last))
; 1200 : 				_DEBUG_ERROR("vector erase iterator outside range");
; 1201 : 			pointer _Ptr = _Move(_VIPTR(_Last), this->_Mylast,
; 1202 : 				_VIPTR(_First));
; 1203 : 			_Orphan_range(_VIPTR(_First), this->_Mylast);
; 1204 : 
; 1205 :  #else /* _ITERATOR_DEBUG_LEVEL == 2 */
; 1206 : 			pointer _Ptr = _Move(_VIPTR(_Last), this->_Mylast,
; 1207 : 				_VIPTR(_First));

  00014	ff 75 10	 push	 DWORD PTR __Cat$608131[ebp]
  00017	8b 4e 04	 mov	 ecx, DWORD PTR [esi+4]
  0001a	50		 push	 eax
  0001b	51		 push	 ecx
  0001c	ff 75 10	 push	 DWORD PTR __Last_arg$[ebp]
  0001f	e8 00 00 00 00	 call	 ??$_Move@PAUBulletInfo@@PAU1@@std@@YAPAUBulletInfo@@PAU1@00U_Nonscalar_ptr_iterator_tag@0@@Z ; std::_Move<BulletInfo *,BulletInfo *>
  00024	83 c4 10	 add	 esp, 16			; 00000010H

; 1208 :  #endif /* _ITERATOR_DEBUG_LEVEL == 2 */
; 1209 : 
; 1210 : 			_Destroy(_Ptr, this->_Mylast);
; 1211 : 			this->_Mylast = _Ptr;

  00027	89 46 04	 mov	 DWORD PTR [esi+4], eax
$LN1@erase:

; 1212 : 			}
; 1213 : 		return (_First);

  0002a	8b c7		 mov	 eax, edi
  0002c	5f		 pop	 edi
  0002d	5e		 pop	 esi

; 1214 : 		}

  0002e	5d		 pop	 ebp
  0002f	c2 0c 00	 ret	 12			; 0000000cH
?erase@?$vector@UBulletInfo@@V?$allocator@UBulletInfo@@@std@@@std@@QAE?AV?$_Vector_iterator@V?$_Vector_val@UBulletInfo@@V?$allocator@UBulletInfo@@@std@@@std@@@2@V?$_Vector_const_iterator@V?$_Vector_val@UBulletInfo@@V?$allocator@UBulletInfo@@@std@@@std@@@2@0@Z ENDP ; std::vector<BulletInfo,std::allocator<BulletInfo> >::erase
_TEXT	ENDS
PUBLIC	?_Tidy@?$vector@UBulletInfo@@V?$allocator@UBulletInfo@@@std@@@std@@IAEXXZ ; std::vector<BulletInfo,std::allocator<BulletInfo> >::_Tidy
EXTRN	__imp_?_Orphan_all@_Container_base0@std@@QAEXXZ:PROC
; Function compile flags: /Ogsp
;	COMDAT ?_Tidy@?$vector@UBulletInfo@@V?$allocator@UBulletInfo@@@std@@@std@@IAEXXZ
_TEXT	SEGMENT
?_Tidy@?$vector@UBulletInfo@@V?$allocator@UBulletInfo@@@std@@@std@@IAEXXZ PROC ; std::vector<BulletInfo,std::allocator<BulletInfo> >::_Tidy, COMDAT
; _this$ = ecx

; 1301 : 		{	// free all storage

  00000	56		 push	 esi
  00001	8b f1		 mov	 esi, ecx

; 1302 : 		if (this->_Myfirst != 0)

  00003	83 3e 00	 cmp	 DWORD PTR [esi], 0
  00006	74 0e		 je	 SHORT $LN21@Tidy

; 1303 : 			{	// something to free, destroy and deallocate it
; 1304 : 			this->_Orphan_all();

  00008	ff 15 00 00 00
	00		 call	 DWORD PTR __imp_?_Orphan_all@_Container_base0@std@@QAEXXZ

; 1305 : 			_Destroy(this->_Myfirst, this->_Mylast);
; 1306 : 			this->_Alval.deallocate(this->_Myfirst,
; 1307 : 				this->_Myend - this->_Myfirst);

  0000e	ff 36		 push	 DWORD PTR [esi]
  00010	e8 00 00 00 00	 call	 ??3@YAXPAX@Z		; operator delete
  00015	59		 pop	 ecx
$LN21@Tidy:

; 1308 : 			}
; 1309 : 		this->_Myfirst = 0;

  00016	83 26 00	 and	 DWORD PTR [esi], 0

; 1310 : 		this->_Mylast = 0;

  00019	83 66 04 00	 and	 DWORD PTR [esi+4], 0

; 1311 : 		this->_Myend = 0;

  0001d	83 66 08 00	 and	 DWORD PTR [esi+8], 0
  00021	5e		 pop	 esi

; 1312 : 		}

  00022	c3		 ret	 0
?_Tidy@?$vector@UBulletInfo@@V?$allocator@UBulletInfo@@@std@@@std@@IAEXXZ ENDP ; std::vector<BulletInfo,std::allocator<BulletInfo> >::_Tidy
_TEXT	ENDS
PUBLIC	?reserve@?$vector@UBulletInfo@@V?$allocator@UBulletInfo@@@std@@@std@@QAEXI@Z ; std::vector<BulletInfo,std::allocator<BulletInfo> >::reserve
EXTRN	__EH_prolog3_catch:PROC
;	COMDAT xdata$x
; File c:\program files (x86)\microsoft visual studio 10.0\vc\include\xmemory
xdata$x	SEGMENT
__catchsym$?reserve@?$vector@UBulletInfo@@V?$allocator@UBulletInfo@@@std@@@std@@QAEXI@Z$2 DD 040H
	DD	00H
	DD	00H
	DD	FLAT:__catch$?reserve@?$vector@UBulletInfo@@V?$allocator@UBulletInfo@@@std@@@std@@QAEXI@Z$0
__unwindtable$?reserve@?$vector@UBulletInfo@@V?$allocator@UBulletInfo@@@std@@@std@@QAEXI@Z DD 0ffffffffH
	DD	00H
	DD	0ffffffffH
	DD	00H
__tryblocktable$?reserve@?$vector@UBulletInfo@@V?$allocator@UBulletInfo@@@std@@@std@@QAEXI@Z DD 00H
	DD	00H
	DD	01H
	DD	01H
	DD	FLAT:__catchsym$?reserve@?$vector@UBulletInfo@@V?$allocator@UBulletInfo@@@std@@@std@@QAEXI@Z$2
__ehfuncinfo$?reserve@?$vector@UBulletInfo@@V?$allocator@UBulletInfo@@@std@@@std@@QAEXI@Z DD 019930522H
	DD	02H
	DD	FLAT:__unwindtable$?reserve@?$vector@UBulletInfo@@V?$allocator@UBulletInfo@@@std@@@std@@QAEXI@Z
	DD	01H
	DD	FLAT:__tryblocktable$?reserve@?$vector@UBulletInfo@@V?$allocator@UBulletInfo@@@std@@@std@@QAEXI@Z
	DD	2 DUP(00H)
	DD	00H
	DD	01H
; Function compile flags: /Ogsp
; File c:\program files (x86)\microsoft visual studio 10.0\vc\include\vector
xdata$x	ENDS
;	COMDAT ?reserve@?$vector@UBulletInfo@@V?$allocator@UBulletInfo@@@std@@@std@@QAEXI@Z
_TEXT	SEGMENT
__$EHRec$ = -16						; size = 16
__Ptr$602292 = 8					; size = 4
__Count$ = 8						; size = 4
?reserve@?$vector@UBulletInfo@@V?$allocator@UBulletInfo@@@std@@@std@@QAEXI@Z PROC ; std::vector<BulletInfo,std::allocator<BulletInfo> >::reserve, COMDAT
; _this$ = ecx

; 746  : 		{	// determine new minimum length of allocated storage

  00000	6a 04		 push	 4
  00002	b8 00 00 00 00	 mov	 eax, __ehhandler$?reserve@?$vector@UBulletInfo@@V?$allocator@UBulletInfo@@@std@@@std@@QAEXI@Z
  00007	e8 00 00 00 00	 call	 __EH_prolog3_catch
  0000c	8b f1		 mov	 esi, ecx

; 747  : 		if (max_size() < _Count)

  0000e	8b 5d 08	 mov	 ebx, DWORD PTR __Count$[ebp]
  00011	81 fb cc cc cc
	0c		 cmp	 ebx, 214748364		; 0cccccccH
  00017	76 0b		 jbe	 SHORT $LN5@reserve

; 748  : 			_Xlen();	// result too long

  00019	68 00 00 00 00	 push	 OFFSET ??_C@_0BD@OLBABOEK@vector?$DMT?$DO?5too?5long?$AA@
  0001e	ff 15 00 00 00
	00		 call	 DWORD PTR __imp_?_Xlength_error@std@@YAXPBD@Z
$LN56@reserve:
$LN5@reserve:

; 749  : 		else if (capacity() < _Count)

  00024	8b 46 08	 mov	 eax, DWORD PTR [esi+8]
  00027	2b 06		 sub	 eax, DWORD PTR [esi]
  00029	6a 14		 push	 20			; 00000014H
  0002b	99		 cdq
  0002c	59		 pop	 ecx
  0002d	f7 f9		 idiv	 ecx
  0002f	3b c3		 cmp	 eax, ebx
  00031	73 6b		 jae	 SHORT $LN3@reserve

; 750  : 			{	// not enough room, reallocate
; 751  : 			pointer _Ptr = this->_Alval.allocate(_Count);

  00033	6a 00		 push	 0
  00035	53		 push	 ebx
  00036	e8 00 00 00 00	 call	 ??$_Allocate@UBulletInfo@@@std@@YAPAUBulletInfo@@IPAU1@@Z ; std::_Allocate<BulletInfo>

; 752  : 
; 753  : 			_TRY_BEGIN
; 754  : 			_Umove(this->_Myfirst, this->_Mylast, _Ptr);

  0003b	8b 0e		 mov	 ecx, DWORD PTR [esi]
  0003d	83 65 fc 00	 and	 DWORD PTR __$EHRec$[ebp+12], 0
  00041	8d 56 0c	 lea	 edx, DWORD PTR [esi+12]
  00044	52		 push	 edx
  00045	89 45 08	 mov	 DWORD PTR __Ptr$602292[ebp], eax
  00048	ff 75 08	 push	 DWORD PTR __Ptr$602292[ebp]
  0004b	8b 46 04	 mov	 eax, DWORD PTR [esi+4]
  0004e	50		 push	 eax
  0004f	51		 push	 ecx
  00050	e8 00 00 00 00	 call	 ??$_Uninitialized_move@PAUBulletInfo@@PAU1@V?$allocator@UBulletInfo@@@std@@@std@@YAPAUBulletInfo@@PAU1@00AAV?$allocator@UBulletInfo@@@0@@Z ; std::_Uninitialized_move<BulletInfo *,BulletInfo *,std::allocator<BulletInfo> >

; 758  : 			_CATCH_END
; 759  : 
; 760  : 			size_type _Size = size();

  00055	8b 0e		 mov	 ecx, DWORD PTR [esi]
  00057	8b 46 04	 mov	 eax, DWORD PTR [esi+4]
  0005a	83 c4 18	 add	 esp, 24			; 00000018H
  0005d	2b c1		 sub	 eax, ecx
  0005f	6a 14		 push	 20			; 00000014H
  00061	99		 cdq
  00062	5f		 pop	 edi
  00063	f7 ff		 idiv	 edi
  00065	83 4d fc ff	 or	 DWORD PTR __$EHRec$[ebp+12], -1
  00069	8b f8		 mov	 edi, eax
  0006b	85 c9		 test	 ecx, ecx
  0006d	74 12		 je	 SHORT $LN48@reserve

; 761  : 			if (this->_Myfirst != 0)

  0006f	eb 03		 jmp	 SHORT $LN55@reserve

; 762  : 				{	// destroy and deallocate old array
; 763  : 				_Destroy(this->_Myfirst, this->_Mylast);

$LL39@reserve:
  00071	83 c1 14	 add	 ecx, 20			; 00000014H
$LN55@reserve:
  00074	3b 4e 04	 cmp	 ecx, DWORD PTR [esi+4]
  00077	75 f8		 jne	 SHORT $LL39@reserve

; 764  : 				this->_Alval.deallocate(this->_Myfirst,
; 765  : 					this->_Myend - this->_Myfirst);

  00079	ff 36		 push	 DWORD PTR [esi]
  0007b	e8 00 00 00 00	 call	 ??3@YAXPAX@Z		; operator delete
  00080	59		 pop	 ecx
$LN48@reserve:

; 766  : 				}
; 767  : 
; 768  : 			this->_Orphan_all();

  00081	8b ce		 mov	 ecx, esi
  00083	ff 15 00 00 00
	00		 call	 DWORD PTR __imp_?_Orphan_all@_Container_base0@std@@QAEXXZ

; 769  : 			this->_Myend = _Ptr + _Count;

  00089	6b db 14	 imul	 ebx, 20			; 00000014H

; 770  : 			this->_Mylast = _Ptr + _Size;

  0008c	6b ff 14	 imul	 edi, 20			; 00000014H
  0008f	8b 45 08	 mov	 eax, DWORD PTR __Ptr$602292[ebp]
  00092	03 d8		 add	 ebx, eax
  00094	03 f8		 add	 edi, eax
  00096	89 5e 08	 mov	 DWORD PTR [esi+8], ebx
  00099	89 7e 04	 mov	 DWORD PTR [esi+4], edi

; 771  : 			this->_Myfirst = _Ptr;

  0009c	89 06		 mov	 DWORD PTR [esi], eax
$LN3@reserve:

; 772  : 			}
; 773  : 		}

  0009e	e8 00 00 00 00	 call	 __EH_epilog3
  000a3	c2 04 00	 ret	 4
__catch$?reserve@?$vector@UBulletInfo@@V?$allocator@UBulletInfo@@@std@@@std@@QAEXI@Z$0:

; 755  : 			_CATCH_ALL
; 756  : 			this->_Alval.deallocate(_Ptr, _Count);

  000a6	ff 75 08	 push	 DWORD PTR __Ptr$602292[ebp]
  000a9	e8 00 00 00 00	 call	 ??3@YAXPAX@Z		; operator delete
  000ae	59		 pop	 ecx

; 757  : 			_RERAISE;

  000af	6a 00		 push	 0
  000b1	6a 00		 push	 0
  000b3	e8 00 00 00 00	 call	 __CxxThrowException@8
$LN57@reserve:
$LN54@reserve:
  000b8	cc		 int	 3
_TEXT	ENDS
;	COMDAT text$x
text$x	SEGMENT
__ehhandler$?reserve@?$vector@UBulletInfo@@V?$allocator@UBulletInfo@@@std@@@std@@QAEXI@Z:
  00000	8b 54 24 08	 mov	 edx, DWORD PTR [esp+8]
  00004	8d 42 0c	 lea	 eax, DWORD PTR [edx+12]
  00007	8b 4a ec	 mov	 ecx, DWORD PTR [edx-20]
  0000a	33 c8		 xor	 ecx, eax
  0000c	e8 00 00 00 00	 call	 @__security_check_cookie@4
  00011	b8 00 00 00 00	 mov	 eax, OFFSET __ehfuncinfo$?reserve@?$vector@UBulletInfo@@V?$allocator@UBulletInfo@@@std@@@std@@QAEXI@Z
  00016	e9 00 00 00 00	 jmp	 ___CxxFrameHandler3
text$x	ENDS
?reserve@?$vector@UBulletInfo@@V?$allocator@UBulletInfo@@@std@@@std@@QAEXI@Z ENDP ; std::vector<BulletInfo,std::allocator<BulletInfo> >::reserve
PUBLIC	??0?$vector@UBulletInfo@@V?$allocator@UBulletInfo@@@std@@@std@@QAE@ABV01@@Z ; std::vector<BulletInfo,std::allocator<BulletInfo> >::vector<BulletInfo,std::allocator<BulletInfo> >
;	COMDAT xdata$x
; File c:\program files (x86)\microsoft visual studio 10.0\vc\include\xutility
xdata$x	SEGMENT
__catchsym$??0?$vector@UBulletInfo@@V?$allocator@UBulletInfo@@@std@@@std@@QAE@ABV01@@Z$2 DD 040H
	DD	00H
	DD	00H
	DD	FLAT:__catch$??0?$vector@UBulletInfo@@V?$allocator@UBulletInfo@@@std@@@std@@QAE@ABV01@@Z$0
__unwindtable$??0?$vector@UBulletInfo@@V?$allocator@UBulletInfo@@@std@@@std@@QAE@ABV01@@Z DD 0ffffffffH
	DD	00H
	DD	0ffffffffH
	DD	00H
__tryblocktable$??0?$vector@UBulletInfo@@V?$allocator@UBulletInfo@@@std@@@std@@QAE@ABV01@@Z DD 00H
	DD	00H
	DD	01H
	DD	01H
	DD	FLAT:__catchsym$??0?$vector@UBulletInfo@@V?$allocator@UBulletInfo@@@std@@@std@@QAE@ABV01@@Z$2
__ehfuncinfo$??0?$vector@UBulletInfo@@V?$allocator@UBulletInfo@@@std@@@std@@QAE@ABV01@@Z DD 019930522H
	DD	02H
	DD	FLAT:__unwindtable$??0?$vector@UBulletInfo@@V?$allocator@UBulletInfo@@@std@@@std@@QAE@ABV01@@Z
	DD	01H
	DD	FLAT:__tryblocktable$??0?$vector@UBulletInfo@@V?$allocator@UBulletInfo@@@std@@@std@@QAE@ABV01@@Z
	DD	2 DUP(00H)
	DD	00H
	DD	01H
; Function compile flags: /Ogsp
; File c:\program files (x86)\microsoft visual studio 10.0\vc\include\vector
xdata$x	ENDS
;	COMDAT ??0?$vector@UBulletInfo@@V?$allocator@UBulletInfo@@@std@@@std@@QAE@ABV01@@Z
_TEXT	SEGMENT
_this$ = -20						; size = 4
__$EHRec$ = -16						; size = 16
__Cat$608503 = 8					; size = 1
__Right$ = 8						; size = 4
??0?$vector@UBulletInfo@@V?$allocator@UBulletInfo@@@std@@@std@@QAE@ABV01@@Z PROC ; std::vector<BulletInfo,std::allocator<BulletInfo> >::vector<BulletInfo,std::allocator<BulletInfo> >, COMDAT
; _this$ = ecx

; 535  : 		{	// construct by copying _Right

  00000	6a 08		 push	 8
  00002	b8 00 00 00 00	 mov	 eax, __ehhandler$??0?$vector@UBulletInfo@@V?$allocator@UBulletInfo@@@std@@@std@@QAE@ABV01@@Z
  00007	e8 00 00 00 00	 call	 __EH_prolog3_catch
  0000c	8b f1		 mov	 esi, ecx
  0000e	89 75 ec	 mov	 DWORD PTR _this$[ebp], esi

; 536  : 		if (_Buy(_Right.size()))

  00011	8b 7d 08	 mov	 edi, DWORD PTR __Right$[ebp]
  00014	33 db		 xor	 ebx, ebx
  00016	89 1e		 mov	 DWORD PTR [esi], ebx
  00018	89 5e 04	 mov	 DWORD PTR [esi+4], ebx
  0001b	89 5e 08	 mov	 DWORD PTR [esi+8], ebx
  0001e	8b 47 04	 mov	 eax, DWORD PTR [edi+4]
  00021	2b 07		 sub	 eax, DWORD PTR [edi]
  00023	6a 14		 push	 20			; 00000014H
  00025	59		 pop	 ecx
  00026	99		 cdq
  00027	f7 f9		 idiv	 ecx
  00029	8b ce		 mov	 ecx, esi
  0002b	50		 push	 eax
  0002c	e8 00 00 00 00	 call	 ?_Buy@?$vector@UBulletInfo@@V?$allocator@UBulletInfo@@@std@@@std@@IAE_NI@Z ; std::vector<BulletInfo,std::allocator<BulletInfo> >::_Buy
  00031	84 c0		 test	 al, al
  00033	74 1f		 je	 SHORT $LN7@vector

; 537  : 			_TRY_BEGIN
; 538  : 			this->_Mylast = _Ucopy(_Right.begin(), _Right.end(),
; 539  : 				this->_Myfirst);

  00035	ff 75 08	 push	 DWORD PTR __Cat$608503[ebp]
  00038	8b 0e		 mov	 ecx, DWORD PTR [esi]
  0003a	8b 47 04	 mov	 eax, DWORD PTR [edi+4]
  0003d	8b 3f		 mov	 edi, DWORD PTR [edi]
  0003f	8d 56 0c	 lea	 edx, DWORD PTR [esi+12]
  00042	52		 push	 edx
  00043	51		 push	 ecx
  00044	50		 push	 eax
  00045	57		 push	 edi
  00046	89 5d fc	 mov	 DWORD PTR __$EHRec$[ebp+12], ebx
  00049	e8 00 00 00 00	 call	 ??$_Uninit_copy@V?$_Vector_const_iterator@V?$_Vector_val@UBulletInfo@@V?$allocator@UBulletInfo@@@std@@@std@@@std@@PAUBulletInfo@@V?$allocator@UBulletInfo@@@2@@std@@YAPAUBulletInfo@@V?$_Vector_const_iterator@V?$_Vector_val@UBulletInfo@@V?$allocator@UBulletInfo@@@std@@@std@@@0@0PAU1@AAV?$allocator@UBulletInfo@@@0@U_Nonscalar_ptr_iterator_tag@0@@Z ; std::_Uninit_copy<std::_Vector_const_iterator<std::_Vector_val<BulletInfo,std::allocator<BulletInfo> > >,BulletInfo *,std::allocator<BulletInfo> >
  0004e	83 c4 14	 add	 esp, 20			; 00000014H
  00051	89 46 04	 mov	 DWORD PTR [esi+4], eax
$LN7@vector:

; 543  : 			_CATCH_END
; 544  : 		}

  00054	8b c6		 mov	 eax, esi
  00056	e8 00 00 00 00	 call	 __EH_epilog3
  0005b	c2 04 00	 ret	 4
__catch$??0?$vector@UBulletInfo@@V?$allocator@UBulletInfo@@@std@@@std@@QAE@ABV01@@Z$0:

; 540  : 			_CATCH_ALL
; 541  : 			_Tidy();

  0005e	8b 4d ec	 mov	 ecx, DWORD PTR _this$[ebp]
  00061	e8 00 00 00 00	 call	 ?_Tidy@?$vector@UBulletInfo@@V?$allocator@UBulletInfo@@@std@@@std@@IAEXXZ ; std::vector<BulletInfo,std::allocator<BulletInfo> >::_Tidy

; 542  : 			_RERAISE;

  00066	33 db		 xor	 ebx, ebx
  00068	53		 push	 ebx
  00069	53		 push	 ebx
  0006a	e8 00 00 00 00	 call	 __CxxThrowException@8
$LN38@vector:
$LN37@vector:
  0006f	cc		 int	 3
_TEXT	ENDS
;	COMDAT text$x
text$x	SEGMENT
__ehhandler$??0?$vector@UBulletInfo@@V?$allocator@UBulletInfo@@@std@@@std@@QAE@ABV01@@Z:
  00000	8b 54 24 08	 mov	 edx, DWORD PTR [esp+8]
  00004	8d 42 0c	 lea	 eax, DWORD PTR [edx+12]
  00007	8b 4a e8	 mov	 ecx, DWORD PTR [edx-24]
  0000a	33 c8		 xor	 ecx, eax
  0000c	e8 00 00 00 00	 call	 @__security_check_cookie@4
  00011	b8 00 00 00 00	 mov	 eax, OFFSET __ehfuncinfo$??0?$vector@UBulletInfo@@V?$allocator@UBulletInfo@@@std@@@std@@QAE@ABV01@@Z
  00016	e9 00 00 00 00	 jmp	 ___CxxFrameHandler3
text$x	ENDS
??0?$vector@UBulletInfo@@V?$allocator@UBulletInfo@@@std@@@std@@QAE@ABV01@@Z ENDP ; std::vector<BulletInfo,std::allocator<BulletInfo> >::vector<BulletInfo,std::allocator<BulletInfo> >
PUBLIC	??1?$vector@UBulletInfo@@V?$allocator@UBulletInfo@@@std@@@std@@QAE@XZ ; std::vector<BulletInfo,std::allocator<BulletInfo> >::~vector<BulletInfo,std::allocator<BulletInfo> >
; Function compile flags: /Ogsp
;	COMDAT ??1?$vector@UBulletInfo@@V?$allocator@UBulletInfo@@@std@@@std@@QAE@XZ
_TEXT	SEGMENT
??1?$vector@UBulletInfo@@V?$allocator@UBulletInfo@@@std@@@std@@QAE@XZ PROC ; std::vector<BulletInfo,std::allocator<BulletInfo> >::~vector<BulletInfo,std::allocator<BulletInfo> >, COMDAT
; _this$ = ecx

; 705  : 		_Tidy();

  00000	e9 00 00 00 00	 jmp	 ?_Tidy@?$vector@UBulletInfo@@V?$allocator@UBulletInfo@@@std@@@std@@IAEXXZ ; std::vector<BulletInfo,std::allocator<BulletInfo> >::_Tidy
??1?$vector@UBulletInfo@@V?$allocator@UBulletInfo@@@std@@@std@@QAE@XZ ENDP ; std::vector<BulletInfo,std::allocator<BulletInfo> >::~vector<BulletInfo,std::allocator<BulletInfo> >
_TEXT	ENDS
PUBLIC	?clear@?$vector@UBulletInfo@@V?$allocator@UBulletInfo@@@std@@@std@@QAEXXZ ; std::vector<BulletInfo,std::allocator<BulletInfo> >::clear
; Function compile flags: /Ogsp
;	COMDAT ?clear@?$vector@UBulletInfo@@V?$allocator@UBulletInfo@@@std@@@std@@QAEXXZ
_TEXT	SEGMENT
$T608533 = -4						; size = 4
?clear@?$vector@UBulletInfo@@V?$allocator@UBulletInfo@@@std@@@std@@QAEXXZ PROC ; std::vector<BulletInfo,std::allocator<BulletInfo> >::clear, COMDAT
; _this$ = ecx

; 1217 : 		{	// erase all

  00000	55		 push	 ebp
  00001	8b ec		 mov	 ebp, esp
  00003	51		 push	 ecx

; 1218 : 		erase(begin(), end());

  00004	8b 41 04	 mov	 eax, DWORD PTR [ecx+4]
  00007	8b 11		 mov	 edx, DWORD PTR [ecx]
  00009	50		 push	 eax
  0000a	52		 push	 edx
  0000b	8d 45 fc	 lea	 eax, DWORD PTR $T608533[ebp]
  0000e	50		 push	 eax
  0000f	e8 00 00 00 00	 call	 ?erase@?$vector@UBulletInfo@@V?$allocator@UBulletInfo@@@std@@@std@@QAE?AV?$_Vector_iterator@V?$_Vector_val@UBulletInfo@@V?$allocator@UBulletInfo@@@std@@@std@@@2@V?$_Vector_const_iterator@V?$_Vector_val@UBulletInfo@@V?$allocator@UBulletInfo@@@std@@@std@@@2@0@Z ; std::vector<BulletInfo,std::allocator<BulletInfo> >::erase

; 1219 : 		}

  00014	c9		 leave
  00015	c3		 ret	 0
?clear@?$vector@UBulletInfo@@V?$allocator@UBulletInfo@@@std@@@std@@QAEXXZ ENDP ; std::vector<BulletInfo,std::allocator<BulletInfo> >::clear
_TEXT	ENDS
PUBLIC	?_Reserve@?$vector@UBulletInfo@@V?$allocator@UBulletInfo@@@std@@@std@@IAEXI@Z ; std::vector<BulletInfo,std::allocator<BulletInfo> >::_Reserve
; Function compile flags: /Ogsp
;	COMDAT ?_Reserve@?$vector@UBulletInfo@@V?$allocator@UBulletInfo@@@std@@@std@@IAEXI@Z
_TEXT	SEGMENT
__Count$ = 8						; size = 4
?_Reserve@?$vector@UBulletInfo@@V?$allocator@UBulletInfo@@@std@@@std@@IAEXI@Z PROC ; std::vector<BulletInfo,std::allocator<BulletInfo> >::_Reserve, COMDAT
; _this$ = ecx

; 1290 : 		{	// ensure room for _Count new elements, grow exponentially

  00000	55		 push	 ebp
  00001	8b ec		 mov	 ebp, esp
  00003	56		 push	 esi
  00004	8b f1		 mov	 esi, ecx

; 1291 : 		size_type _Size = size();

  00006	8b 0e		 mov	 ecx, DWORD PTR [esi]
  00008	8b 46 04	 mov	 eax, DWORD PTR [esi+4]
  0000b	2b c1		 sub	 eax, ecx
  0000d	57		 push	 edi
  0000e	99		 cdq
  0000f	6a 14		 push	 20			; 00000014H
  00011	5f		 pop	 edi
  00012	f7 ff		 idiv	 edi
  00014	8b f8		 mov	 edi, eax

; 1292 : 		if (max_size() - _Count < _Size)

  00016	b8 cc cc cc 0c	 mov	 eax, 214748364		; 0cccccccH
  0001b	2b 45 08	 sub	 eax, DWORD PTR __Count$[ebp]
  0001e	3b c7		 cmp	 eax, edi
  00020	73 0b		 jae	 SHORT $LN4@Reserve

; 1293 : 			_Xlen();

  00022	68 00 00 00 00	 push	 OFFSET ??_C@_0BD@OLBABOEK@vector?$DMT?$DO?5too?5long?$AA@
  00027	ff 15 00 00 00
	00		 call	 DWORD PTR __imp_?_Xlength_error@std@@YAXPBD@Z
$LN21@Reserve:
$LN4@Reserve:

; 1294 : 		else if ((_Size += _Count) <= capacity())

  0002d	8b 46 08	 mov	 eax, DWORD PTR [esi+8]
  00030	2b c1		 sub	 eax, ecx
  00032	6a 14		 push	 20			; 00000014H
  00034	99		 cdq
  00035	59		 pop	 ecx
  00036	f7 f9		 idiv	 ecx
  00038	03 7d 08	 add	 edi, DWORD PTR __Count$[ebp]
  0003b	3b f8		 cmp	 edi, eax
  0003d	76 10		 jbe	 SHORT $LN1@Reserve

; 1295 : 			;
; 1296 : 		else
; 1297 : 			reserve(_Grow_to(_Size));

  0003f	57		 push	 edi
  00040	8b ce		 mov	 ecx, esi
  00042	e8 00 00 00 00	 call	 ?_Grow_to@?$vector@UBulletInfo@@V?$allocator@UBulletInfo@@@std@@@std@@IBEII@Z ; std::vector<BulletInfo,std::allocator<BulletInfo> >::_Grow_to
  00047	50		 push	 eax
  00048	8b ce		 mov	 ecx, esi
  0004a	e8 00 00 00 00	 call	 ?reserve@?$vector@UBulletInfo@@V?$allocator@UBulletInfo@@@std@@@std@@QAEXI@Z ; std::vector<BulletInfo,std::allocator<BulletInfo> >::reserve
$LN1@Reserve:
  0004f	5f		 pop	 edi
  00050	5e		 pop	 esi

; 1298 : 		}

  00051	5d		 pop	 ebp
  00052	c2 04 00	 ret	 4
$LN20@Reserve:
?_Reserve@?$vector@UBulletInfo@@V?$allocator@UBulletInfo@@@std@@@std@@IAEXI@Z ENDP ; std::vector<BulletInfo,std::allocator<BulletInfo> >::_Reserve
_TEXT	ENDS
PUBLIC	??_7ioFullShotSkill@@6B@			; ioFullShotSkill::`vftable'
PUBLIC	??0ioFullShotSkill@@QAE@XZ			; ioFullShotSkill::ioFullShotSkill
PUBLIC	??_R4ioFullShotSkill@@6B@			; ioFullShotSkill::`RTTI Complete Object Locator'
PUBLIC	??_R0?AVioFullShotSkill@@@8			; ioFullShotSkill `RTTI Type Descriptor'
PUBLIC	??_R3ioFullShotSkill@@8				; ioFullShotSkill::`RTTI Class Hierarchy Descriptor'
PUBLIC	??_R2ioFullShotSkill@@8				; ioFullShotSkill::`RTTI Base Class Array'
PUBLIC	??_R1A@?0A@EA@ioFullShotSkill@@8		; ioFullShotSkill::`RTTI Base Class Descriptor at (0,-1,0,64)'
PUBLIC	??_R1A@?0A@EA@ioAttackSkill@@8			; ioAttackSkill::`RTTI Base Class Descriptor at (0,-1,0,64)'
PUBLIC	??_R0?AVioAttackSkill@@@8			; ioAttackSkill `RTTI Type Descriptor'
PUBLIC	??_R3ioAttackSkill@@8				; ioAttackSkill::`RTTI Class Hierarchy Descriptor'
PUBLIC	??_R2ioAttackSkill@@8				; ioAttackSkill::`RTTI Base Class Array'
PUBLIC	??_R1A@?0A@EA@ioSkill@@8			; ioSkill::`RTTI Base Class Descriptor at (0,-1,0,64)'
PUBLIC	??_R0?AVioSkill@@@8				; ioSkill `RTTI Type Descriptor'
PUBLIC	??_R3ioSkill@@8					; ioSkill::`RTTI Class Hierarchy Descriptor'
PUBLIC	??_R2ioSkill@@8					; ioSkill::`RTTI Base Class Array'
PUBLIC	?LoadProperty@ioFullShotSkill@@UAEXAAVioINILoader@@@Z ; ioFullShotSkill::LoadProperty
PUBLIC	?Clone@ioFullShotSkill@@UAEPAVioSkill@@XZ	; ioFullShotSkill::Clone
PUBLIC	?GetDefenseSkillBreakeType@ioSkill@@UBE?AW4DefenseBreakType@@XZ ; ioSkill::GetDefenseSkillBreakeType
PUBLIC	?GetSkillEndNextJumpAmt@ioSkill@@UBEMXZ		; ioSkill::GetSkillEndNextJumpAmt
PUBLIC	?GetSkillEndNextLandRate@ioSkill@@UBEMXZ	; ioSkill::GetSkillEndNextLandRate
PUBLIC	?GetSkillEndNextJumpMustEnable@ioSkill@@UAE?AW4SkillEndJumpType@@XZ ; ioSkill::GetSkillEndNextJumpMustEnable
PUBLIC	?EnableChangeGrapplingTargetPos@ioSkill@@UBE_NXZ ; ioSkill::EnableChangeGrapplingTargetPos
PUBLIC	?IsInvisibleBottomCircle@ioSkill@@UAE_NPAVioBaseChar@@@Z ; ioSkill::IsInvisibleBottomCircle
PUBLIC	?IsCanJumpingSkill@ioSkill@@UBE_NXZ		; ioSkill::IsCanJumpingSkill
PUBLIC	?IsCanJumpingSkillOnBlowWound@ioSkill@@UBE_NXZ	; ioSkill::IsCanJumpingSkillOnBlowWound
PUBLIC	?IsCanDownSkill@ioSkill@@UBE_NXZ		; ioSkill::IsCanDownSkill
PUBLIC	?IsCanBlowWoundSkill@ioSkill@@UBE_NXZ		; ioSkill::IsCanBlowWoundSkill
PUBLIC	?IsCanWoundSkill@ioSkill@@UBE_NXZ		; ioSkill::IsCanWoundSkill
PUBLIC	?IsUseActiveCnt@ioSkill@@UBE_NXZ		; ioSkill::IsUseActiveCnt
PUBLIC	?GetMaxActiveCnt@ioSkill@@UBEHPAVioBaseChar@@@Z	; ioSkill::GetMaxActiveCnt
PUBLIC	?GetCurActiveCnt@ioSkill@@UBEHPAVioBaseChar@@@Z	; ioSkill::GetCurActiveCnt
EXTRN	??1ioAttackSkill@@UAE@XZ:PROC			; ioAttackSkill::~ioAttackSkill
EXTRN	??0IORandom@@QAE@XZ:PROC			; IORandom::IORandom
EXTRN	??0ioAttackSkill@@QAE@XZ:PROC			; ioAttackSkill::ioAttackSkill
EXTRN	?GetTypeID@ioAttackSkill@@UBEHXZ:PROC		; ioAttackSkill::GetTypeID
EXTRN	?IsProtected@ioSkill@@UBE_NH@Z:PROC		; ioSkill::IsProtected
EXTRN	?IsCanSwitchSkill@ioSkill@@UBE_NXZ:PROC		; ioSkill::IsCanSwitchSkill
EXTRN	?IsCanSemiSwitchSkill@ioSkill@@UBE_NXZ:PROC	; ioSkill::IsCanSemiSwitchSkill
EXTRN	?IsCanCancelBySkill@ioSkill@@UBE_NPAVioBaseChar@@AAH@Z:PROC ; ioSkill::IsCanCancelBySkill
EXTRN	?IsCanUseZeroHP@ioSkill@@UBE_NPAVioBaseChar@@@Z:PROC ; ioSkill::IsCanUseZeroHP
EXTRN	?IsCanUseSkillWithCrown@ioSkill@@UAE_NPAVioBaseChar@@@Z:PROC ; ioSkill::IsCanUseSkillWithCrown
EXTRN	?IsCanUseBoss@ioSkill@@UBE_NPAVioBaseChar@@@Z:PROC ; ioSkill::IsCanUseBoss
EXTRN	?IsCanUseFootball@ioSkill@@UBE_NXZ:PROC		; ioSkill::IsCanUseFootball
EXTRN	?IsCanUseGangSiMode@ioSkill@@UBE_NXZ:PROC	; ioSkill::IsCanUseGangSiMode
EXTRN	?IsCanUseByWeaponType@ioSkill@@UBE_NPAVioBaseChar@@@Z:PROC ; ioSkill::IsCanUseByWeaponType
EXTRN	?IsCanUseThunderBirdHold@ioSkill@@UBE_NPAVioBaseChar@@@Z:PROC ; ioSkill::IsCanUseThunderBirdHold
EXTRN	?IsCanUseLimitHP@ioSkill@@UBE_NPAVioBaseChar@@@Z:PROC ; ioSkill::IsCanUseLimitHP
EXTRN	?IsOnOffEnable@ioSkill@@UAE_NXZ:PROC		; ioSkill::IsOnOffEnable
EXTRN	?IsCanDefenseStateSkill@ioSkill@@UAE_NXZ:PROC	; ioSkill::IsCanDefenseStateSkill
EXTRN	?SetDefenseStateSkill@ioSkill@@UAEXPAVioBaseChar@@@Z:PROC ; ioSkill::SetDefenseStateSkill
EXTRN	?HasBuff@ioSkill@@UBE_NH@Z:PROC			; ioSkill::HasBuff
EXTRN	?GetBuffType@ioSkill@@UAEHH@Z:PROC		; ioSkill::GetBuffType
EXTRN	?IsEnableReserve@ioSkill@@UBE_NXZ:PROC		; ioSkill::IsEnableReserve
EXTRN	?IsSkillMotionEnd@ioSkill@@UBE_NKPAVioBaseChar@@@Z:PROC ; ioSkill::IsSkillMotionEnd
EXTRN	?IsCharSkipState@ioSkill@@UBE?AW4SkillCharColType@@XZ:PROC ; ioSkill::IsCharSkipState
EXTRN	?IsEntityCollisionSkipState@ioSkill@@UBE_NXZ:PROC ; ioSkill::IsEntityCollisionSkipState
EXTRN	?IsEndState@ioSkill@@UBE_NXZ:PROC		; ioSkill::IsEndState
EXTRN	?IsAttackEndState@ioAttackSkill@@UBE_NXZ:PROC	; ioAttackSkill::IsAttackEndState
EXTRN	?IsJumpState@ioSkill@@UBE_NXZ:PROC		; ioSkill::IsJumpState
EXTRN	?IsDownState@ioSkill@@UBE_NXZ:PROC		; ioSkill::IsDownState
EXTRN	?IsNoDropState@ioSkill@@UBE_NXZ:PROC		; ioSkill::IsNoDropState
EXTRN	?IsCanSendControl@ioSkill@@UBE_NXZ:PROC		; ioSkill::IsCanSendControl
EXTRN	?IsSkipState@ioSkill@@UBE_NXZ:PROC		; ioSkill::IsSkipState
EXTRN	?GetSkillMoveRate@ioSkill@@UBEMXZ:PROC		; ioSkill::GetSkillMoveRate
EXTRN	?SetSkillGrapplingState@ioSkill@@UAE_NPAVioBaseChar@@ABVioHashString@@@Z:PROC ; ioSkill::SetSkillGrapplingState
EXTRN	?GetGrapplingTargetPos@ioSkill@@UAE?AUD3DXVECTOR3@@PAVioBaseChar@@0@Z:PROC ; ioSkill::GetGrapplingTargetPos
EXTRN	?GetGrapplingTargetPos@ioSkill@@UAE?AUD3DXVECTOR3@@PAVioBaseChar@@@Z:PROC ; ioSkill::GetGrapplingTargetPos
EXTRN	?GetSkillWoundGrapplingInfo@ioSkill@@UAE?AUGrapplingSkillWoundedInfo@@XZ:PROC ; ioSkill::GetSkillWoundGrapplingInfo
EXTRN	?SetCreateWeaponDependency@ioSkill@@UAEXPAVioBaseChar@@PAVioPlayStage@@@Z:PROC ; ioSkill::SetCreateWeaponDependency
EXTRN	?SetNextSkillState@ioSkill@@UAEXPAVioBaseChar@@PAVioWeapon@@@Z:PROC ; ioSkill::SetNextSkillState
EXTRN	?OnSkillEndByWounded@ioSkill@@UAEXPAVioBaseChar@@@Z:PROC ; ioSkill::OnSkillEndByWounded
EXTRN	?OnProcessNotUseSkill@ioSkill@@UAEXPAVioBaseChar@@PAVioPlayStage@@@Z:PROC ; ioSkill::OnProcessNotUseSkill
EXTRN	?OnSkillItemRelease@ioSkill@@UAEXPAVioBaseChar@@@Z:PROC ; ioSkill::OnSkillItemRelease
EXTRN	?ApplyEquipSlotSkillExtraInfo@ioSkill@@UAEXPAVioBaseChar@@PAVioPlayStage@@AAVSP2Packet@@@Z:PROC ; ioSkill::ApplyEquipSlotSkillExtraInfo
EXTRN	?ApplyExtraPassiveSkillInfo@ioSkill@@UAEXPAVioBaseChar@@PAVioPlayStage@@AAVSP2Packet@@@Z:PROC ; ioSkill::ApplyExtraPassiveSkillInfo
EXTRN	?StartPreDelayEffect@ioAttackSkill@@UAEXPAVioBaseChar@@@Z:PROC ; ioAttackSkill::StartPreDelayEffect
EXTRN	?EndPreDelayEffect@ioAttackSkill@@UAEXPAVioBaseChar@@@Z:PROC ; ioAttackSkill::EndPreDelayEffect
EXTRN	?IsAutoTargetDownState@ioSkill@@UAE_NXZ:PROC	; ioSkill::IsAutoTargetDownState
EXTRN	?CheckUseBuff@ioSkill@@UAE_NPAVioBaseChar@@@Z:PROC ; ioSkill::CheckUseBuff
EXTRN	?CheckUseActiveCount@ioSkill@@UAE_NXZ:PROC	; ioSkill::CheckUseActiveCount
EXTRN	?CheckAniRotate@ioSkill@@UAEXPAVioBaseChar@@@Z:PROC ; ioSkill::CheckAniRotate
EXTRN	?IsEnableDashCheck@ioSkill@@UAE_NPAVioBaseChar@@@Z:PROC ; ioSkill::IsEnableDashCheck
EXTRN	?IsEnableMultiActive@ioSkill@@UAE_NPAVioBaseChar@@@Z:PROC ; ioSkill::IsEnableMultiActive
EXTRN	?GetAutoTargetValue@ioSkill@@UAEXAAM00@Z:PROC	; ioSkill::GetAutoTargetValue
EXTRN	?GetSkillGravityRate@ioSkill@@UAEMXZ:PROC	; ioSkill::GetSkillGravityRate
EXTRN	?GetSkillMotionName@ioSkill@@UBEABVioHashString@@XZ:PROC ; ioSkill::GetSkillMotionName
EXTRN	?HasSkillMotion@ioSkill@@UBE_NXZ:PROC		; ioSkill::HasSkillMotion
EXTRN	?GetSkillMotionRate@ioSkill@@UBEMXZ:PROC	; ioSkill::GetSkillMotionRate
EXTRN	?IsPreDelayProtect@ioSkill@@UBE_NXZ:PROC	; ioSkill::IsPreDelayProtect
EXTRN	?GetPreDelayAniName@ioSkill@@UBEABVioHashString@@XZ:PROC ; ioSkill::GetPreDelayAniName
EXTRN	?GetPreDelayTime@ioSkill@@UBEKXZ:PROC		; ioSkill::GetPreDelayTime
EXTRN	?GetPreDelayOwnerEffect@ioSkill@@UBEABVioHashString@@XZ:PROC ; ioSkill::GetPreDelayOwnerEffect
EXTRN	?GetPreDelayOtherEffect@ioSkill@@UBEABVioHashString@@XZ:PROC ; ioSkill::GetPreDelayOtherEffect
EXTRN	?SetCancelSkill@ioSkill@@UAEXPAVioBaseChar@@@Z:PROC ; ioSkill::SetCancelSkill
EXTRN	?ClearAirJump@ioSkill@@MAEXXZ:PROC		; ioSkill::ClearAirJump
EXTRN	?SetAirJump@ioSkill@@MAEXPAVioBaseChar@@HM@Z:PROC ; ioSkill::SetAirJump
EXTRN	?CheckAirJump@ioSkill@@MAEXPAVioBaseChar@@@Z:PROC ; ioSkill::CheckAirJump
EXTRN	?UseActiveCount@ioSkill@@UAE_NPAVioBaseChar@@@Z:PROC ; ioSkill::UseActiveCount
EXTRN	?GetMaxActiveCount@ioSkill@@UAEHPAVioBaseChar@@@Z:PROC ; ioSkill::GetMaxActiveCount
EXTRN	?GetCurActiveCount@ioSkill@@UAEHPAVioBaseChar@@@Z:PROC ; ioSkill::GetCurActiveCount
EXTRN	?HideHPGauge@ioSkill@@UAE_NXZ:PROC		; ioSkill::HideHPGauge
EXTRN	?SetInfoByApplyWeapon@ioSkill@@UAEXPAVioBaseChar@@0K_N@Z:PROC ; ioSkill::SetInfoByApplyWeapon
EXTRN	?SetCollisionByApplySkill@ioSkill@@UAEXXZ:PROC	; ioSkill::SetCollisionByApplySkill
EXTRN	?SetChargingRateForWeapon@ioSkill@@UAEXPAVioWeapon@@@Z:PROC ; ioSkill::SetChargingRateForWeapon
EXTRN	?CheckExceptionCamera@ioSkill@@UAE_NXZ:PROC	; ioSkill::CheckExceptionCamera
EXTRN	?GetExceptionCameraPos@ioSkill@@UAE?AUD3DXVECTOR3@@PAVioBaseChar@@@Z:PROC ; ioSkill::GetExceptionCameraPos
EXTRN	?IsFixedExceptionCamera@ioSkill@@UAE_NXZ:PROC	; ioSkill::IsFixedExceptionCamera
EXTRN	??_EioFullShotSkill@@UAEPAXI@Z:PROC		; ioFullShotSkill::`vector deleting destructor'
EXTRN	?StartPreDelayAnimation@ioAttackSkill@@MAE_NPAVioBaseChar@@@Z:PROC ; ioAttackSkill::StartPreDelayAnimation
EXTRN	?LoadNormalAttribute@ioAttackSkill@@MAEXAAVioINILoader@@@Z:PROC ; ioAttackSkill::LoadNormalAttribute
EXTRN	?LoadDownAttribute@ioAttackSkill@@MAEXAAVioINILoader@@@Z:PROC ; ioAttackSkill::LoadDownAttribute
EXTRN	?LoadJumpAttribute@ioAttackSkill@@MAEXAAVioINILoader@@@Z:PROC ; ioAttackSkill::LoadJumpAttribute
EXTRN	?GetAttribute@ioAttackSkill@@UAEAAUAttackAttribute@@XZ:PROC ; ioAttackSkill::GetAttribute
EXTRN	?GetAttributeConst@ioAttackSkill@@UBEABUAttackAttribute@@XZ:PROC ; ioAttackSkill::GetAttributeConst
EXTRN	?IsCanStateEscape@ioAttackSkill@@UBE_NXZ:PROC	; ioAttackSkill::IsCanStateEscape
EXTRN	?IsCanStateEscapeOnStand@ioAttackSkill@@UBE_NPAVioBaseChar@@@Z:PROC ; ioAttackSkill::IsCanStateEscapeOnStand
EXTRN	?IsCanStateEscapeOnAir@ioAttackSkill@@UBE_NPAVioBaseChar@@@Z:PROC ; ioAttackSkill::IsCanStateEscapeOnAir
EXTRN	?IsCanStateEscapeOnDown@ioAttackSkill@@UBE_NPAVioBaseChar@@@Z:PROC ; ioAttackSkill::IsCanStateEscapeOnDown
;	COMDAT ??_R2ioSkill@@8
; File c:\program files (x86)\microsoft directx sdk (june 2010)\include\d3dx9math.inl
rdata$r	SEGMENT
??_R2ioSkill@@8 DD FLAT:??_R1A@?0A@EA@ioSkill@@8	; ioSkill::`RTTI Base Class Array'
rdata$r	ENDS
;	COMDAT ??_R3ioSkill@@8
rdata$r	SEGMENT
??_R3ioSkill@@8 DD 00H					; ioSkill::`RTTI Class Hierarchy Descriptor'
	DD	00H
	DD	01H
	DD	FLAT:??_R2ioSkill@@8
rdata$r	ENDS
;	COMDAT ??_R0?AVioSkill@@@8
_DATA	SEGMENT
??_R0?AVioSkill@@@8 DD FLAT:??_7type_info@@6B@		; ioSkill `RTTI Type Descriptor'
	DD	00H
	DB	'.?AVioSkill@@', 00H
_DATA	ENDS
;	COMDAT ??_R1A@?0A@EA@ioSkill@@8
rdata$r	SEGMENT
??_R1A@?0A@EA@ioSkill@@8 DD FLAT:??_R0?AVioSkill@@@8	; ioSkill::`RTTI Base Class Descriptor at (0,-1,0,64)'
	DD	00H
	DD	00H
	DD	0ffffffffH
	DD	00H
	DD	040H
	DD	FLAT:??_R3ioSkill@@8
rdata$r	ENDS
;	COMDAT ??_R2ioAttackSkill@@8
rdata$r	SEGMENT
??_R2ioAttackSkill@@8 DD FLAT:??_R1A@?0A@EA@ioAttackSkill@@8 ; ioAttackSkill::`RTTI Base Class Array'
	DD	FLAT:??_R1A@?0A@EA@ioSkill@@8
rdata$r	ENDS
;	COMDAT ??_R3ioAttackSkill@@8
rdata$r	SEGMENT
??_R3ioAttackSkill@@8 DD 00H				; ioAttackSkill::`RTTI Class Hierarchy Descriptor'
	DD	00H
	DD	02H
	DD	FLAT:??_R2ioAttackSkill@@8
rdata$r	ENDS
;	COMDAT ??_R0?AVioAttackSkill@@@8
_DATA	SEGMENT
??_R0?AVioAttackSkill@@@8 DD FLAT:??_7type_info@@6B@	; ioAttackSkill `RTTI Type Descriptor'
	DD	00H
	DB	'.?AVioAttackSkill@@', 00H
_DATA	ENDS
;	COMDAT ??_R1A@?0A@EA@ioAttackSkill@@8
rdata$r	SEGMENT
??_R1A@?0A@EA@ioAttackSkill@@8 DD FLAT:??_R0?AVioAttackSkill@@@8 ; ioAttackSkill::`RTTI Base Class Descriptor at (0,-1,0,64)'
	DD	01H
	DD	00H
	DD	0ffffffffH
	DD	00H
	DD	040H
	DD	FLAT:??_R3ioAttackSkill@@8
rdata$r	ENDS
;	COMDAT ??_R1A@?0A@EA@ioFullShotSkill@@8
rdata$r	SEGMENT
??_R1A@?0A@EA@ioFullShotSkill@@8 DD FLAT:??_R0?AVioFullShotSkill@@@8 ; ioFullShotSkill::`RTTI Base Class Descriptor at (0,-1,0,64)'
	DD	02H
	DD	00H
	DD	0ffffffffH
	DD	00H
	DD	040H
	DD	FLAT:??_R3ioFullShotSkill@@8
rdata$r	ENDS
;	COMDAT ??_R2ioFullShotSkill@@8
rdata$r	SEGMENT
??_R2ioFullShotSkill@@8 DD FLAT:??_R1A@?0A@EA@ioFullShotSkill@@8 ; ioFullShotSkill::`RTTI Base Class Array'
	DD	FLAT:??_R1A@?0A@EA@ioAttackSkill@@8
	DD	FLAT:??_R1A@?0A@EA@ioSkill@@8
rdata$r	ENDS
;	COMDAT ??_R3ioFullShotSkill@@8
rdata$r	SEGMENT
??_R3ioFullShotSkill@@8 DD 00H				; ioFullShotSkill::`RTTI Class Hierarchy Descriptor'
	DD	00H
	DD	03H
	DD	FLAT:??_R2ioFullShotSkill@@8
rdata$r	ENDS
;	COMDAT ??_R0?AVioFullShotSkill@@@8
_DATA	SEGMENT
??_R0?AVioFullShotSkill@@@8 DD FLAT:??_7type_info@@6B@	; ioFullShotSkill `RTTI Type Descriptor'
	DD	00H
	DB	'.?AVioFullShotSkill@@', 00H
_DATA	ENDS
;	COMDAT ??_R4ioFullShotSkill@@6B@
rdata$r	SEGMENT
??_R4ioFullShotSkill@@6B@ DD 00H			; ioFullShotSkill::`RTTI Complete Object Locator'
	DD	00H
	DD	00H
	DD	FLAT:??_R0?AVioFullShotSkill@@@8
	DD	FLAT:??_R3ioFullShotSkill@@8
rdata$r	ENDS
;	COMDAT ??_7ioFullShotSkill@@6B@
CONST	SEGMENT
??_7ioFullShotSkill@@6B@ DD FLAT:??_R4ioFullShotSkill@@6B@ ; ioFullShotSkill::`vftable'
	DD	FLAT:?LoadProperty@ioFullShotSkill@@UAEXAAVioINILoader@@@Z
	DD	FLAT:?Clone@ioFullShotSkill@@UAEPAVioSkill@@XZ
	DD	FLAT:?GetTypeID@ioAttackSkill@@UBEHXZ
	DD	FLAT:?IsProtected@ioSkill@@UBE_NH@Z
	DD	FLAT:?IsCanSwitchSkill@ioSkill@@UBE_NXZ
	DD	FLAT:?IsCanSemiSwitchSkill@ioSkill@@UBE_NXZ
	DD	FLAT:?IsCanCancelBySkill@ioSkill@@UBE_NPAVioBaseChar@@AAH@Z
	DD	FLAT:?IsCanUseZeroHP@ioSkill@@UBE_NPAVioBaseChar@@@Z
	DD	FLAT:?IsCanUseSkillWithCrown@ioSkill@@UAE_NPAVioBaseChar@@@Z
	DD	FLAT:?IsCanUseBoss@ioSkill@@UBE_NPAVioBaseChar@@@Z
	DD	FLAT:?IsCanUseFootball@ioSkill@@UBE_NXZ
	DD	FLAT:?IsCanUseGangSiMode@ioSkill@@UBE_NXZ
	DD	FLAT:?IsCanUseByWeaponType@ioSkill@@UBE_NPAVioBaseChar@@@Z
	DD	FLAT:?IsCanUseThunderBirdHold@ioSkill@@UBE_NPAVioBaseChar@@@Z
	DD	FLAT:?IsCanUseLimitHP@ioSkill@@UBE_NPAVioBaseChar@@@Z
	DD	FLAT:?IsCanUseSkill@ioFullShotSkill@@UAE_NPAVioBaseChar@@_N@Z
	DD	FLAT:?IsOnOffEnable@ioSkill@@UAE_NXZ
	DD	FLAT:?IsCanDefenseStateSkill@ioSkill@@UAE_NXZ
	DD	FLAT:?SetDefenseStateSkill@ioSkill@@UAEXPAVioBaseChar@@@Z
	DD	FLAT:?GetDefenseSkillBreakeType@ioSkill@@UBE?AW4DefenseBreakType@@XZ
	DD	FLAT:?HasBuff@ioSkill@@UBE_NH@Z
	DD	FLAT:?GetBuffType@ioSkill@@UAEHH@Z
	DD	FLAT:?IsEnableReserve@ioSkill@@UBE_NXZ
	DD	FLAT:?IsSkillMotionEnd@ioSkill@@UBE_NKPAVioBaseChar@@@Z
	DD	FLAT:?IsCharSkipState@ioSkill@@UBE?AW4SkillCharColType@@XZ
	DD	FLAT:?IsEntityCollisionSkipState@ioSkill@@UBE_NXZ
	DD	FLAT:?GetSkillEndNextJumpAmt@ioSkill@@UBEMXZ
	DD	FLAT:?GetSkillEndNextLandRate@ioSkill@@UBEMXZ
	DD	FLAT:?GetSkillEndNextJumpMustEnable@ioSkill@@UAE?AW4SkillEndJumpType@@XZ
	DD	FLAT:?IsEndState@ioSkill@@UBE_NXZ
	DD	FLAT:?IsAttackEndState@ioAttackSkill@@UBE_NXZ
	DD	FLAT:?IsJumpState@ioSkill@@UBE_NXZ
	DD	FLAT:?IsDownState@ioSkill@@UBE_NXZ
	DD	FLAT:?IsNoDropState@ioSkill@@UBE_NXZ
	DD	FLAT:?IsCanSendControl@ioSkill@@UBE_NXZ
	DD	FLAT:?IsSkipState@ioSkill@@UBE_NXZ
	DD	FLAT:?GetSkillMoveRate@ioSkill@@UBEMXZ
	DD	FLAT:?SetSkillGrapplingState@ioSkill@@UAE_NPAVioBaseChar@@ABVioHashString@@@Z
	DD	FLAT:?GetGrapplingTargetPos@ioSkill@@UAE?AUD3DXVECTOR3@@PAVioBaseChar@@0@Z
	DD	FLAT:?GetGrapplingTargetPos@ioSkill@@UAE?AUD3DXVECTOR3@@PAVioBaseChar@@@Z
	DD	FLAT:?EnableChangeGrapplingTargetPos@ioSkill@@UBE_NXZ
	DD	FLAT:?GetSkillWoundGrapplingInfo@ioSkill@@UAE?AUGrapplingSkillWoundedInfo@@XZ
	DD	FLAT:?SetCreateWeaponDependency@ioSkill@@UAEXPAVioBaseChar@@PAVioPlayStage@@@Z
	DD	FLAT:?SetNextSkillState@ioSkill@@UAEXPAVioBaseChar@@PAVioWeapon@@@Z
	DD	FLAT:?OnSkillStart@ioFullShotSkill@@UAE_NPAVioBaseChar@@@Z
	DD	FLAT:?OnProcessState@ioFullShotSkill@@UAEXPAVioBaseChar@@PAVioPlayStage@@@Z
	DD	FLAT:?OnSkillEndByWounded@ioSkill@@UAEXPAVioBaseChar@@@Z
	DD	FLAT:?OnSkillEnd@ioFullShotSkill@@UAEXPAVioBaseChar@@@Z
	DD	FLAT:?OnProcessNotUseSkill@ioSkill@@UAEXPAVioBaseChar@@PAVioPlayStage@@@Z
	DD	FLAT:?OnSkillItemRelease@ioSkill@@UAEXPAVioBaseChar@@@Z
	DD	FLAT:?ApplyAttributeToWeapon@ioFullShotSkill@@UAEXPAVioWeapon@@PAVioPlayStage@@@Z
	DD	FLAT:?ApplyExtraSkillInfo@ioFullShotSkill@@UAEXPAVioBaseChar@@PAVioPlayStage@@AAVSP2Packet@@@Z
	DD	FLAT:?ApplyEquipSlotSkillExtraInfo@ioSkill@@UAEXPAVioBaseChar@@PAVioPlayStage@@AAVSP2Packet@@@Z
	DD	FLAT:?ApplyExtraPassiveSkillInfo@ioSkill@@UAEXPAVioBaseChar@@PAVioPlayStage@@AAVSP2Packet@@@Z
	DD	FLAT:?StartPreDelayEffect@ioAttackSkill@@UAEXPAVioBaseChar@@@Z
	DD	FLAT:?EndPreDelayEffect@ioAttackSkill@@UAEXPAVioBaseChar@@@Z
	DD	FLAT:?IsUseAutoTargetValue@ioFullShotSkill@@UAE_NXZ
	DD	FLAT:?IsAutoTargetDownState@ioSkill@@UAE_NXZ
	DD	FLAT:?CheckUseBuff@ioSkill@@UAE_NPAVioBaseChar@@@Z
	DD	FLAT:?CheckUseItemMesh@ioFullShotSkill@@UAE_NXZ
	DD	FLAT:?CheckUseActiveCount@ioSkill@@UAE_NXZ
	DD	FLAT:?CheckAniRotate@ioSkill@@UAEXPAVioBaseChar@@@Z
	DD	FLAT:?IsEnableDashCheck@ioSkill@@UAE_NPAVioBaseChar@@@Z
	DD	FLAT:?IsEnableMultiActive@ioSkill@@UAE_NPAVioBaseChar@@@Z
	DD	FLAT:?IsInvisibleBottomCircle@ioSkill@@UAE_NPAVioBaseChar@@@Z
	DD	FLAT:?GetAutoTargetValue@ioSkill@@UAEXAAM00@Z
	DD	FLAT:?IsCanJumpingSkill@ioSkill@@UBE_NXZ
	DD	FLAT:?IsCanJumpingSkillOnBlowWound@ioSkill@@UBE_NXZ
	DD	FLAT:?IsCanDownSkill@ioSkill@@UBE_NXZ
	DD	FLAT:?IsCanBlowWoundSkill@ioSkill@@UBE_NXZ
	DD	FLAT:?IsCanWoundSkill@ioSkill@@UBE_NXZ
	DD	FLAT:?GetSkillGravityRate@ioSkill@@UAEMXZ
	DD	FLAT:?GetSkillMotionName@ioSkill@@UBEABVioHashString@@XZ
	DD	FLAT:?HasSkillMotion@ioSkill@@UBE_NXZ
	DD	FLAT:?GetSkillMotionRate@ioSkill@@UBEMXZ
	DD	FLAT:?IsPreDelayProtect@ioSkill@@UBE_NXZ
	DD	FLAT:?GetPreDelayAniName@ioSkill@@UBEABVioHashString@@XZ
	DD	FLAT:?GetPreDelayTime@ioSkill@@UBEKXZ
	DD	FLAT:?GetPreDelayOwnerEffect@ioSkill@@UBEABVioHashString@@XZ
	DD	FLAT:?GetPreDelayOtherEffect@ioSkill@@UBEABVioHashString@@XZ
	DD	FLAT:?SetCancelSkill@ioSkill@@UAEXPAVioBaseChar@@@Z
	DD	FLAT:?ClearAirJump@ioSkill@@MAEXXZ
	DD	FLAT:?SetAirJump@ioSkill@@MAEXPAVioBaseChar@@HM@Z
	DD	FLAT:?CheckAirJump@ioSkill@@MAEXPAVioBaseChar@@@Z
	DD	FLAT:?UseActiveCount@ioSkill@@UAE_NPAVioBaseChar@@@Z
	DD	FLAT:?GetMaxActiveCount@ioSkill@@UAEHPAVioBaseChar@@@Z
	DD	FLAT:?GetCurActiveCount@ioSkill@@UAEHPAVioBaseChar@@@Z
	DD	FLAT:?HideHPGauge@ioSkill@@UAE_NXZ
	DD	FLAT:?SetInfoByApplyWeapon@ioSkill@@UAEXPAVioBaseChar@@0K_N@Z
	DD	FLAT:?SetCollisionByApplySkill@ioSkill@@UAEXXZ
	DD	FLAT:?SetChargingRateForWeapon@ioSkill@@UAEXPAVioWeapon@@@Z
	DD	FLAT:?CheckExceptionCamera@ioSkill@@UAE_NXZ
	DD	FLAT:?GetExceptionCameraPos@ioSkill@@UAE?AUD3DXVECTOR3@@PAVioBaseChar@@@Z
	DD	FLAT:?IsFixedExceptionCamera@ioSkill@@UAE_NXZ
	DD	FLAT:?IsUseActiveCnt@ioSkill@@UBE_NXZ
	DD	FLAT:?GetMaxActiveCnt@ioSkill@@UBEHPAVioBaseChar@@@Z
	DD	FLAT:?GetCurActiveCnt@ioSkill@@UBEHPAVioBaseChar@@@Z
	DD	FLAT:??_EioFullShotSkill@@UAEPAXI@Z
	DD	FLAT:?StartPreDelayAnimation@ioAttackSkill@@MAE_NPAVioBaseChar@@@Z
	DD	FLAT:?AttackSkillFire@ioFullShotSkill@@MAEXPAVioBaseChar@@@Z
	DD	FLAT:?GetAttackTimeRate@ioFullShotSkill@@MBEMXZ
	DD	FLAT:?GetAttackEndTimeRate@ioFullShotSkill@@MBEMXZ
	DD	FLAT:?LoadNormalAttribute@ioAttackSkill@@MAEXAAVioINILoader@@@Z
	DD	FLAT:?LoadDownAttribute@ioAttackSkill@@MAEXAAVioINILoader@@@Z
	DD	FLAT:?LoadJumpAttribute@ioAttackSkill@@MAEXAAVioINILoader@@@Z
	DD	FLAT:?GetAttribute@ioAttackSkill@@UAEAAUAttackAttribute@@XZ
	DD	FLAT:?GetAttributeConst@ioAttackSkill@@UBEABUAttackAttribute@@XZ
	DD	FLAT:?IsCanStateEscape@ioAttackSkill@@UBE_NXZ
	DD	FLAT:?IsCanStateEscapeOnStand@ioAttackSkill@@UBE_NPAVioBaseChar@@@Z
	DD	FLAT:?IsCanStateEscapeOnAir@ioAttackSkill@@UBE_NPAVioBaseChar@@@Z
	DD	FLAT:?IsCanStateEscapeOnDown@ioAttackSkill@@UBE_NPAVioBaseChar@@@Z
CONST	ENDS
;	COMDAT xdata$x
xdata$x	SEGMENT
__ehfuncinfo$??0ioFullShotSkill@@QAE@XZ DD 019930522H
	DD	05H
	DD	FLAT:__unwindtable$??0ioFullShotSkill@@QAE@XZ
	DD	2 DUP(00H)
	DD	2 DUP(00H)
	DD	00H
	DD	01H
__unwindtable$??0ioFullShotSkill@@QAE@XZ DD 0ffffffffH
	DD	FLAT:__unwindfunclet$??0ioFullShotSkill@@QAE@XZ$0
	DD	00H
	DD	FLAT:__unwindfunclet$??0ioFullShotSkill@@QAE@XZ$1
	DD	01H
	DD	FLAT:__unwindfunclet$??0ioFullShotSkill@@QAE@XZ$2
	DD	02H
	DD	FLAT:__unwindfunclet$??0ioFullShotSkill@@QAE@XZ$3
	DD	03H
	DD	FLAT:__unwindfunclet$??0ioFullShotSkill@@QAE@XZ$4
; Function compile flags: /Ogsp
; File d:\lost saga for developer\youtube\tutorial\source\src\lsclient\iofullshotskill.cpp
xdata$x	ENDS
;	COMDAT ??0ioFullShotSkill@@QAE@XZ
_TEXT	SEGMENT
$T600809 = -28						; size = 12
_this$ = -16						; size = 4
__$EHRec$ = -12						; size = 12
??0ioFullShotSkill@@QAE@XZ PROC				; ioFullShotSkill::ioFullShotSkill, COMDAT
; _this$ = ecx

; 14   : {

  00000	6a 10		 push	 16			; 00000010H
  00002	b8 00 00 00 00	 mov	 eax, __ehhandler$??0ioFullShotSkill@@QAE@XZ
  00007	e8 00 00 00 00	 call	 __EH_prolog3
  0000c	8b d9		 mov	 ebx, ecx
  0000e	89 5d f0	 mov	 DWORD PTR _this$[ebp], ebx
  00011	e8 00 00 00 00	 call	 ??0ioAttackSkill@@QAE@XZ ; ioAttackSkill::ioAttackSkill
  00016	33 c9		 xor	 ecx, ecx
  00018	c7 03 00 00 00
	00		 mov	 DWORD PTR [ebx], OFFSET ??_7ioFullShotSkill@@6B@
  0001e	89 4d fc	 mov	 DWORD PTR __$EHRec$[ebp+8], ecx
  00021	89 8b f8 10 00
	00		 mov	 DWORD PTR [ebx+4344], ecx
  00027	89 8b fc 10 00
	00		 mov	 DWORD PTR [ebx+4348], ecx
  0002d	89 8b 00 11 00
	00		 mov	 DWORD PTR [ebx+4352], ecx
  00033	8b 35 00 00 00
	00		 mov	 esi, DWORD PTR __imp_??0ioHashString@@QAE@XZ
  00039	8d 8b 08 11 00
	00		 lea	 ecx, DWORD PTR [ebx+4360]
  0003f	c6 45 fc 01	 mov	 BYTE PTR __$EHRec$[ebp+8], 1
  00043	ff d6		 call	 esi
  00045	8d 8b 18 11 00
	00		 lea	 ecx, DWORD PTR [ebx+4376]
  0004b	c6 45 fc 02	 mov	 BYTE PTR __$EHRec$[ebp+8], 2
  0004f	ff d6		 call	 esi
  00051	8d 8b 28 11 00
	00		 lea	 ecx, DWORD PTR [ebx+4392]
  00057	c6 45 fc 03	 mov	 BYTE PTR __$EHRec$[ebp+8], 3
  0005b	ff d6		 call	 esi
  0005d	8d 8b 3c 11 00
	00		 lea	 ecx, DWORD PTR [ebx+4412]
  00063	c6 45 fc 04	 mov	 BYTE PTR __$EHRec$[ebp+8], 4
  00067	e8 00 00 00 00	 call	 ??0IORandom@@QAE@XZ	; IORandom::IORandom

; 15   : 	m_vSkillDir = D3DXVECTOR3( 0.0f, 0.0f, 0.0f );

  0006c	0f 57 c0	 xorps	 xmm0, xmm0

; 16   : 	m_iWeaponWay = 0;

  0006f	83 a3 f4 10 00
	00 00		 and	 DWORD PTR [ebx+4340], 0

; 17   : 
; 18   : 	m_bSetHandMesh = false;
; 19   : 
; 20   : 	m_dwSeed = 0;

  00076	83 a3 38 11 00
	00 00		 and	 DWORD PTR [ebx+4408], 0
  0007d	f3 0f 11 45 e4	 movss	 DWORD PTR $T600809[ebp], xmm0
  00082	f3 0f 11 45 e8	 movss	 DWORD PTR $T600809[ebp+4], xmm0
  00087	f3 0f 11 45 ec	 movss	 DWORD PTR $T600809[ebp+8], xmm0
  0008c	8d bb e4 10 00
	00		 lea	 edi, DWORD PTR [ebx+4324]
  00092	8d 75 e4	 lea	 esi, DWORD PTR $T600809[ebp]
  00095	a5		 movsd
  00096	a5		 movsd
  00097	a5		 movsd
  00098	c6 83 0a 0f 00
	00 00		 mov	 BYTE PTR [ebx+3850], 0

; 21   : }

  0009f	8b c3		 mov	 eax, ebx
  000a1	e8 00 00 00 00	 call	 __EH_epilog3
  000a6	c3		 ret	 0
_TEXT	ENDS
;	COMDAT text$x
text$x	SEGMENT
__unwindfunclet$??0ioFullShotSkill@@QAE@XZ$0:
  00000	8b 4d f0	 mov	 ecx, DWORD PTR _this$[ebp]
  00003	e9 00 00 00 00	 jmp	 ??1ioAttackSkill@@UAE@XZ ; ioAttackSkill::~ioAttackSkill
__unwindfunclet$??0ioFullShotSkill@@QAE@XZ$1:
  00008	8b 4d f0	 mov	 ecx, DWORD PTR _this$[ebp]
  0000b	81 c1 f8 10 00
	00		 add	 ecx, 4344		; 000010f8H
  00011	e9 00 00 00 00	 jmp	 ??1?$vector@UBulletInfo@@V?$allocator@UBulletInfo@@@std@@@std@@QAE@XZ ; std::vector<BulletInfo,std::allocator<BulletInfo> >::~vector<BulletInfo,std::allocator<BulletInfo> >
__unwindfunclet$??0ioFullShotSkill@@QAE@XZ$2:
  00016	8b 4d f0	 mov	 ecx, DWORD PTR _this$[ebp]
  00019	81 c1 08 11 00
	00		 add	 ecx, 4360		; 00001108H
  0001f	ff 25 00 00 00
	00		 jmp	 DWORD PTR __imp_??1ioHashString@@QAE@XZ
__unwindfunclet$??0ioFullShotSkill@@QAE@XZ$3:
  00025	8b 4d f0	 mov	 ecx, DWORD PTR _this$[ebp]
  00028	81 c1 18 11 00
	00		 add	 ecx, 4376		; 00001118H
  0002e	ff 25 00 00 00
	00		 jmp	 DWORD PTR __imp_??1ioHashString@@QAE@XZ
__unwindfunclet$??0ioFullShotSkill@@QAE@XZ$4:
  00034	8b 4d f0	 mov	 ecx, DWORD PTR _this$[ebp]
  00037	81 c1 28 11 00
	00		 add	 ecx, 4392		; 00001128H
  0003d	ff 25 00 00 00
	00		 jmp	 DWORD PTR __imp_??1ioHashString@@QAE@XZ
__ehhandler$??0ioFullShotSkill@@QAE@XZ:
  00043	8b 54 24 08	 mov	 edx, DWORD PTR [esp+8]
  00047	8d 42 0c	 lea	 eax, DWORD PTR [edx+12]
  0004a	8b 4a e0	 mov	 ecx, DWORD PTR [edx-32]
  0004d	33 c8		 xor	 ecx, eax
  0004f	e8 00 00 00 00	 call	 @__security_check_cookie@4
  00054	b8 00 00 00 00	 mov	 eax, OFFSET __ehfuncinfo$??0ioFullShotSkill@@QAE@XZ
  00059	e9 00 00 00 00	 jmp	 ___CxxFrameHandler3
text$x	ENDS
??0ioFullShotSkill@@QAE@XZ ENDP				; ioFullShotSkill::ioFullShotSkill
; Function compile flags: /Ogsp
; File d:\lost saga for developer\youtube\tutorial\source\src\lsclient\ioskill.h
;	COMDAT ?GetDefenseSkillBreakeType@ioSkill@@UBE?AW4DefenseBreakType@@XZ
_TEXT	SEGMENT
?GetDefenseSkillBreakeType@ioSkill@@UBE?AW4DefenseBreakType@@XZ PROC ; ioSkill::GetDefenseSkillBreakeType, COMDAT
; _this$ = ecx

; 327  : 	virtual DefenseBreakType GetDefenseSkillBreakeType() const { return m_eDefenseSkillBreakType; }

  00000	8b 81 30 0e 00
	00		 mov	 eax, DWORD PTR [ecx+3632]
  00006	c3		 ret	 0
?GetDefenseSkillBreakeType@ioSkill@@UBE?AW4DefenseBreakType@@XZ ENDP ; ioSkill::GetDefenseSkillBreakeType
; Function compile flags: /Ogsp
_TEXT	ENDS
;	COMDAT ?GetSkillEndNextJumpAmt@ioSkill@@UBEMXZ
_TEXT	SEGMENT
?GetSkillEndNextJumpAmt@ioSkill@@UBEMXZ PROC		; ioSkill::GetSkillEndNextJumpAmt, COMDAT
; _this$ = ecx

; 335  : 	virtual float GetSkillEndNextJumpAmt() const { return m_fSkillEndNextJumpAmt; }

  00000	d9 81 4c 05 00
	00		 fld	 DWORD PTR [ecx+1356]
  00006	c3		 ret	 0
?GetSkillEndNextJumpAmt@ioSkill@@UBEMXZ ENDP		; ioSkill::GetSkillEndNextJumpAmt
; Function compile flags: /Ogsp
_TEXT	ENDS
;	COMDAT ?GetSkillEndNextLandRate@ioSkill@@UBEMXZ
_TEXT	SEGMENT
?GetSkillEndNextLandRate@ioSkill@@UBEMXZ PROC		; ioSkill::GetSkillEndNextLandRate, COMDAT
; _this$ = ecx

; 336  : 	virtual float GetSkillEndNextLandRate() const { return m_fSkillEndNextLandRate; }

  00000	d9 81 50 05 00
	00		 fld	 DWORD PTR [ecx+1360]
  00006	c3		 ret	 0
?GetSkillEndNextLandRate@ioSkill@@UBEMXZ ENDP		; ioSkill::GetSkillEndNextLandRate
; Function compile flags: /Ogsp
_TEXT	ENDS
;	COMDAT ?GetSkillEndNextJumpMustEnable@ioSkill@@UAE?AW4SkillEndJumpType@@XZ
_TEXT	SEGMENT
?GetSkillEndNextJumpMustEnable@ioSkill@@UAE?AW4SkillEndJumpType@@XZ PROC ; ioSkill::GetSkillEndNextJumpMustEnable, COMDAT
; _this$ = ecx

; 337  : 	virtual SkillEndJumpType GetSkillEndNextJumpMustEnable(){ return SEJT_DEFAULT; }

  00000	33 c0		 xor	 eax, eax
  00002	c3		 ret	 0
?GetSkillEndNextJumpMustEnable@ioSkill@@UAE?AW4SkillEndJumpType@@XZ ENDP ; ioSkill::GetSkillEndNextJumpMustEnable
; Function compile flags: /Ogsp
_TEXT	ENDS
;	COMDAT ?EnableChangeGrapplingTargetPos@ioSkill@@UBE_NXZ
_TEXT	SEGMENT
?EnableChangeGrapplingTargetPos@ioSkill@@UBE_NXZ PROC	; ioSkill::EnableChangeGrapplingTargetPos, COMDAT
; _this$ = ecx

; 355  : 	virtual bool EnableChangeGrapplingTargetPos() const { return m_bChangeGrapplingTargetPos; }

  00000	8a 81 40 09 00
	00		 mov	 al, BYTE PTR [ecx+2368]
  00006	c3		 ret	 0
?EnableChangeGrapplingTargetPos@ioSkill@@UBE_NXZ ENDP	; ioSkill::EnableChangeGrapplingTargetPos
; Function compile flags: /Ogsp
_TEXT	ENDS
;	COMDAT ?IsInvisibleBottomCircle@ioSkill@@UAE_NPAVioBaseChar@@@Z
_TEXT	SEGMENT
_pChar$ = 8						; size = 4
?IsInvisibleBottomCircle@ioSkill@@UAE_NPAVioBaseChar@@@Z PROC ; ioSkill::IsInvisibleBottomCircle, COMDAT
; _this$ = ecx

; 393  : 	virtual bool IsInvisibleBottomCircle( ioBaseChar *pChar ) { return false; }

  00000	32 c0		 xor	 al, al
  00002	c2 04 00	 ret	 4
?IsInvisibleBottomCircle@ioSkill@@UAE_NPAVioBaseChar@@@Z ENDP ; ioSkill::IsInvisibleBottomCircle
; Function compile flags: /Ogsp
_TEXT	ENDS
;	COMDAT ?IsUseActiveCnt@ioSkill@@UBE_NXZ
_TEXT	SEGMENT
?IsUseActiveCnt@ioSkill@@UBE_NXZ PROC			; ioSkill::IsUseActiveCnt, COMDAT
; _this$ = ecx

; 544  : 	virtual bool IsUseActiveCnt() const { return false; }

  00000	32 c0		 xor	 al, al
  00002	c3		 ret	 0
?IsUseActiveCnt@ioSkill@@UBE_NXZ ENDP			; ioSkill::IsUseActiveCnt
; Function compile flags: /Ogsp
_TEXT	ENDS
;	COMDAT ?GetMaxActiveCnt@ioSkill@@UBEHPAVioBaseChar@@@Z
_TEXT	SEGMENT
_pChar$ = 8						; size = 4
?GetMaxActiveCnt@ioSkill@@UBEHPAVioBaseChar@@@Z PROC	; ioSkill::GetMaxActiveCnt, COMDAT
; _this$ = ecx

; 545  : 	virtual int GetMaxActiveCnt( ioBaseChar *pChar ) const { return 0; }

  00000	33 c0		 xor	 eax, eax
  00002	c2 04 00	 ret	 4
?GetMaxActiveCnt@ioSkill@@UBEHPAVioBaseChar@@@Z ENDP	; ioSkill::GetMaxActiveCnt
; Function compile flags: /Ogsp
_TEXT	ENDS
;	COMDAT ?GetCurActiveCnt@ioSkill@@UBEHPAVioBaseChar@@@Z
_TEXT	SEGMENT
_pChar$ = 8						; size = 4
?GetCurActiveCnt@ioSkill@@UBEHPAVioBaseChar@@@Z PROC	; ioSkill::GetCurActiveCnt, COMDAT
; _this$ = ecx

; 546  : 	virtual int GetCurActiveCnt( ioBaseChar *pChar ) const { return 0; }

  00000	33 c0		 xor	 eax, eax
  00002	c2 04 00	 ret	 4
?GetCurActiveCnt@ioSkill@@UBEHPAVioBaseChar@@@Z ENDP	; ioSkill::GetCurActiveCnt
_TEXT	ENDS
PUBLIC	??B?$CEncrypt@_N@@QBE_NXZ			; CEncrypt<bool>::operator bool
; Function compile flags: /Ogsp
; File d:\lost saga for developer\youtube\tutorial\source\src\lsclient\encryptvalue.h
;	COMDAT ??B?$CEncrypt@_N@@QBE_NXZ
_TEXT	SEGMENT
_value$ = -1						; size = 1
??B?$CEncrypt@_N@@QBE_NXZ PROC				; CEncrypt<bool>::operator bool, COMDAT
; _this$ = ecx

; 145  : 	{

  00000	55		 push	 ebp
  00001	8b ec		 mov	 ebp, esp
  00003	51		 push	 ecx

; 146  : 		//UJ 130829, const도 똑같이 하면 된다 --start
; 147  : 		type value;
; 148  : 		CEncrypt<type>* pThis = const_cast<CEncrypt<type>*>(this);
; 149  : 		pThis->DecryptValueToPool(&value);

  00004	8d 45 ff	 lea	 eax, DWORD PTR _value$[ebp]
  00007	50		 push	 eax
  00008	e8 00 00 00 00	 call	 ?DecryptValueToPool@?$CEncrypt@_N@@QAEXPA_N@Z ; CEncrypt<bool>::DecryptValueToPool

; 150  : 		//// const에서 DecryptValueToPool 사용할 수 없으므로 아래와 같이함.
; 151  :  		//type value;
; 152  : 		//char szTempMem[MAX_ENCRYPT];
; 153  : 		//m_RC5.DecryptByte( m_MemPool, szTempMem, max(m_ValueSize, DEFAULT_ENCRYPT) );
; 154  : 		//memcpy( &value, szTempMem, m_ValueSize );
; 155  : 		//UJ --end
; 156  : 
; 157  : #ifdef _NOTUSE
; 158  : 		Debug();
; 159  : #endif
; 160  : 		return value;

  0000d	8a 45 ff	 mov	 al, BYTE PTR _value$[ebp]

; 161  : 	}

  00010	c9		 leave
  00011	c3		 ret	 0
??B?$CEncrypt@_N@@QBE_NXZ ENDP				; CEncrypt<bool>::operator bool
; Function compile flags: /Ogsp
; File d:\lost saga for developer\youtube\tutorial\source\src\lsclient\ioskill.h
_TEXT	ENDS
;	COMDAT ?IsCanJumpingSkill@ioSkill@@UBE_NXZ
_TEXT	SEGMENT
_value$608694 = -1					; size = 1
?IsCanJumpingSkill@ioSkill@@UBE_NXZ PROC		; ioSkill::IsCanJumpingSkill, COMDAT
; _this$ = ecx

; 431  : 	virtual bool IsCanJumpingSkill() const { return m_bEnableJumpingSkill; }

  00000	55		 push	 ebp
  00001	8b ec		 mov	 ebp, esp
  00003	51		 push	 ecx
  00004	8d 45 ff	 lea	 eax, DWORD PTR _value$608694[ebp]
  00007	50		 push	 eax
  00008	81 c1 9c 03 00
	00		 add	 ecx, 924		; 0000039cH
  0000e	e8 00 00 00 00	 call	 ?DecryptValueToPool@?$CEncrypt@_N@@QAEXPA_N@Z ; CEncrypt<bool>::DecryptValueToPool
  00013	8a 45 ff	 mov	 al, BYTE PTR _value$608694[ebp]
  00016	c9		 leave
  00017	c3		 ret	 0
?IsCanJumpingSkill@ioSkill@@UBE_NXZ ENDP		; ioSkill::IsCanJumpingSkill
; Function compile flags: /Ogsp
_TEXT	ENDS
;	COMDAT ?IsCanJumpingSkillOnBlowWound@ioSkill@@UBE_NXZ
_TEXT	SEGMENT
_value$608701 = -1					; size = 1
?IsCanJumpingSkillOnBlowWound@ioSkill@@UBE_NXZ PROC	; ioSkill::IsCanJumpingSkillOnBlowWound, COMDAT
; _this$ = ecx

; 432  : 	virtual bool IsCanJumpingSkillOnBlowWound() const { return m_bEnableJumpingSkillOnBlowWound; }

  00000	55		 push	 ebp
  00001	8b ec		 mov	 ebp, esp
  00003	51		 push	 ecx
  00004	8d 45 ff	 lea	 eax, DWORD PTR _value$608701[ebp]
  00007	50		 push	 eax
  00008	81 c1 cc 03 00
	00		 add	 ecx, 972		; 000003ccH
  0000e	e8 00 00 00 00	 call	 ?DecryptValueToPool@?$CEncrypt@_N@@QAEXPA_N@Z ; CEncrypt<bool>::DecryptValueToPool
  00013	8a 45 ff	 mov	 al, BYTE PTR _value$608701[ebp]
  00016	c9		 leave
  00017	c3		 ret	 0
?IsCanJumpingSkillOnBlowWound@ioSkill@@UBE_NXZ ENDP	; ioSkill::IsCanJumpingSkillOnBlowWound
; Function compile flags: /Ogsp
_TEXT	ENDS
;	COMDAT ?IsCanDownSkill@ioSkill@@UBE_NXZ
_TEXT	SEGMENT
_value$608708 = -1					; size = 1
?IsCanDownSkill@ioSkill@@UBE_NXZ PROC			; ioSkill::IsCanDownSkill, COMDAT
; _this$ = ecx

; 437  : 	virtual bool IsCanDownSkill() const { return m_bEnableDownSkill; }

  00000	55		 push	 ebp
  00001	8b ec		 mov	 ebp, esp
  00003	51		 push	 ecx
  00004	8d 45 ff	 lea	 eax, DWORD PTR _value$608708[ebp]
  00007	50		 push	 eax
  00008	81 c1 5c 04 00
	00		 add	 ecx, 1116		; 0000045cH
  0000e	e8 00 00 00 00	 call	 ?DecryptValueToPool@?$CEncrypt@_N@@QAEXPA_N@Z ; CEncrypt<bool>::DecryptValueToPool
  00013	8a 45 ff	 mov	 al, BYTE PTR _value$608708[ebp]
  00016	c9		 leave
  00017	c3		 ret	 0
?IsCanDownSkill@ioSkill@@UBE_NXZ ENDP			; ioSkill::IsCanDownSkill
; Function compile flags: /Ogsp
_TEXT	ENDS
;	COMDAT ?IsCanBlowWoundSkill@ioSkill@@UBE_NXZ
_TEXT	SEGMENT
_value$608715 = -1					; size = 1
?IsCanBlowWoundSkill@ioSkill@@UBE_NXZ PROC		; ioSkill::IsCanBlowWoundSkill, COMDAT
; _this$ = ecx

; 440  : 	virtual bool IsCanBlowWoundSkill() const { return m_bEnableBlowWoundSkill; }

  00000	55		 push	 ebp
  00001	8b ec		 mov	 ebp, esp
  00003	51		 push	 ecx
  00004	8d 45 ff	 lea	 eax, DWORD PTR _value$608715[ebp]
  00007	50		 push	 eax
  00008	81 c1 8c 04 00
	00		 add	 ecx, 1164		; 0000048cH
  0000e	e8 00 00 00 00	 call	 ?DecryptValueToPool@?$CEncrypt@_N@@QAEXPA_N@Z ; CEncrypt<bool>::DecryptValueToPool
  00013	8a 45 ff	 mov	 al, BYTE PTR _value$608715[ebp]
  00016	c9		 leave
  00017	c3		 ret	 0
?IsCanBlowWoundSkill@ioSkill@@UBE_NXZ ENDP		; ioSkill::IsCanBlowWoundSkill
; Function compile flags: /Ogsp
_TEXT	ENDS
;	COMDAT ?IsCanWoundSkill@ioSkill@@UBE_NXZ
_TEXT	SEGMENT
_value$608722 = -1					; size = 1
?IsCanWoundSkill@ioSkill@@UBE_NXZ PROC			; ioSkill::IsCanWoundSkill, COMDAT
; _this$ = ecx

; 446  : 	virtual bool IsCanWoundSkill() const { return m_bEnableWoundSkill; }

  00000	55		 push	 ebp
  00001	8b ec		 mov	 ebp, esp
  00003	51		 push	 ecx
  00004	8d 45 ff	 lea	 eax, DWORD PTR _value$608722[ebp]
  00007	50		 push	 eax
  00008	81 c1 54 05 00
	00		 add	 ecx, 1364		; 00000554H
  0000e	e8 00 00 00 00	 call	 ?DecryptValueToPool@?$CEncrypt@_N@@QAEXPA_N@Z ; CEncrypt<bool>::DecryptValueToPool
  00013	8a 45 ff	 mov	 al, BYTE PTR _value$608722[ebp]
  00016	c9		 leave
  00017	c3		 ret	 0
?IsCanWoundSkill@ioSkill@@UBE_NXZ ENDP			; ioSkill::IsCanWoundSkill
_TEXT	ENDS
PUBLIC	??0ioFullShotSkill@@QAE@ABV0@@Z			; ioFullShotSkill::ioFullShotSkill
EXTRN	??0ioAttackSkill@@QAE@ABV0@@Z:PROC		; ioAttackSkill::ioAttackSkill
;	COMDAT xdata$x
; File c:\program files (x86)\microsoft directx sdk (june 2010)\include\d3dx9math.inl
xdata$x	SEGMENT
__ehfuncinfo$??0ioFullShotSkill@@QAE@ABV0@@Z DD 019930522H
	DD	05H
	DD	FLAT:__unwindtable$??0ioFullShotSkill@@QAE@ABV0@@Z
	DD	2 DUP(00H)
	DD	2 DUP(00H)
	DD	00H
	DD	01H
__unwindtable$??0ioFullShotSkill@@QAE@ABV0@@Z DD 0ffffffffH
	DD	FLAT:__unwindfunclet$??0ioFullShotSkill@@QAE@ABV0@@Z$0
	DD	00H
	DD	FLAT:__unwindfunclet$??0ioFullShotSkill@@QAE@ABV0@@Z$1
	DD	01H
	DD	FLAT:__unwindfunclet$??0ioFullShotSkill@@QAE@ABV0@@Z$2
	DD	02H
	DD	FLAT:__unwindfunclet$??0ioFullShotSkill@@QAE@ABV0@@Z$3
	DD	03H
	DD	FLAT:__unwindfunclet$??0ioFullShotSkill@@QAE@ABV0@@Z$4
; Function compile flags: /Ogsp
; File d:\lost saga for developer\youtube\tutorial\source\src\lsclient\iofullshotskill.cpp
xdata$x	ENDS
;	COMDAT ??0ioFullShotSkill@@QAE@ABV0@@Z
_TEXT	SEGMENT
$T600818 = -28						; size = 12
_this$ = -16						; size = 4
__$EHRec$ = -12						; size = 12
_rhs$ = 8						; size = 4
??0ioFullShotSkill@@QAE@ABV0@@Z PROC			; ioFullShotSkill::ioFullShotSkill, COMDAT
; _this$ = ecx

; 34   : {

  00000	6a 10		 push	 16			; 00000010H
  00002	b8 00 00 00 00	 mov	 eax, __ehhandler$??0ioFullShotSkill@@QAE@ABV0@@Z
  00007	e8 00 00 00 00	 call	 __EH_prolog3
  0000c	8b d9		 mov	 ebx, ecx
  0000e	89 5d f0	 mov	 DWORD PTR _this$[ebp], ebx
  00011	8b 75 08	 mov	 esi, DWORD PTR _rhs$[ebp]
  00014	56		 push	 esi
  00015	e8 00 00 00 00	 call	 ??0ioAttackSkill@@QAE@ABV0@@Z ; ioAttackSkill::ioAttackSkill
  0001a	83 65 fc 00	 and	 DWORD PTR __$EHRec$[ebp+8], 0
  0001e	c7 03 00 00 00
	00		 mov	 DWORD PTR [ebx], OFFSET ??_7ioFullShotSkill@@6B@
  00024	8b 86 f0 10 00
	00		 mov	 eax, DWORD PTR [esi+4336]
  0002a	89 83 f0 10 00
	00		 mov	 DWORD PTR [ebx+4336], eax
  00030	8d 86 f8 10 00
	00		 lea	 eax, DWORD PTR [esi+4344]
  00036	50		 push	 eax
  00037	8d 8b f8 10 00
	00		 lea	 ecx, DWORD PTR [ebx+4344]
  0003d	e8 00 00 00 00	 call	 ??0?$vector@UBulletInfo@@V?$allocator@UBulletInfo@@@std@@@std@@QAE@ABV01@@Z ; std::vector<BulletInfo,std::allocator<BulletInfo> >::vector<BulletInfo,std::allocator<BulletInfo> >
  00042	8b 3d 00 00 00
	00		 mov	 edi, DWORD PTR __imp_??0ioHashString@@QAE@ABV0@@Z
  00048	8d 86 08 11 00
	00		 lea	 eax, DWORD PTR [esi+4360]
  0004e	50		 push	 eax
  0004f	8d 8b 08 11 00
	00		 lea	 ecx, DWORD PTR [ebx+4360]
  00055	c6 45 fc 01	 mov	 BYTE PTR __$EHRec$[ebp+8], 1
  00059	ff d7		 call	 edi
  0005b	8d 86 18 11 00
	00		 lea	 eax, DWORD PTR [esi+4376]
  00061	50		 push	 eax
  00062	8d 8b 18 11 00
	00		 lea	 ecx, DWORD PTR [ebx+4376]
  00068	c6 45 fc 02	 mov	 BYTE PTR __$EHRec$[ebp+8], 2
  0006c	ff d7		 call	 edi
  0006e	8d 86 28 11 00
	00		 lea	 eax, DWORD PTR [esi+4392]
  00074	50		 push	 eax
  00075	8d 8b 28 11 00
	00		 lea	 ecx, DWORD PTR [ebx+4392]
  0007b	c6 45 fc 03	 mov	 BYTE PTR __$EHRec$[ebp+8], 3
  0007f	ff d7		 call	 edi
  00081	8d 8b 3c 11 00
	00		 lea	 ecx, DWORD PTR [ebx+4412]
  00087	c6 45 fc 04	 mov	 BYTE PTR __$EHRec$[ebp+8], 4
  0008b	e8 00 00 00 00	 call	 ??0IORandom@@QAE@XZ	; IORandom::IORandom
  00090	8a 86 08 1b 00
	00		 mov	 al, BYTE PTR [esi+6920]

; 35   : 	m_vSkillDir = D3DXVECTOR3( 0.0f, 0.0f, 0.0f );

  00096	0f 57 c0	 xorps	 xmm0, xmm0
  00099	88 83 08 1b 00
	00		 mov	 BYTE PTR [ebx+6920], al
  0009f	d9 86 0c 1b 00
	00		 fld	 DWORD PTR [esi+6924]
  000a5	d9 9b 0c 1b 00
	00		 fstp	 DWORD PTR [ebx+6924]
  000ab	f3 0f 11 45 e4	 movss	 DWORD PTR $T600818[ebp], xmm0
  000b0	d9 86 10 1b 00
	00		 fld	 DWORD PTR [esi+6928]
  000b6	f3 0f 11 45 e8	 movss	 DWORD PTR $T600818[ebp+4], xmm0
  000bb	d9 9b 10 1b 00
	00		 fstp	 DWORD PTR [ebx+6928]
  000c1	8b 86 14 1b 00
	00		 mov	 eax, DWORD PTR [esi+6932]

; 36   : 	m_bSetHandMesh = false;
; 37   : 
; 38   : 	m_dwSeed = 0;

  000c7	83 a3 38 11 00
	00 00		 and	 DWORD PTR [ebx+4408], 0
  000ce	f3 0f 11 45 ec	 movss	 DWORD PTR $T600818[ebp+8], xmm0
  000d3	8d bb e4 10 00
	00		 lea	 edi, DWORD PTR [ebx+4324]
  000d9	8d 75 e4	 lea	 esi, DWORD PTR $T600818[ebp]
  000dc	a5		 movsd
  000dd	a5		 movsd
  000de	89 83 14 1b 00
	00		 mov	 DWORD PTR [ebx+6932], eax
  000e4	a5		 movsd
  000e5	c6 83 0a 0f 00
	00 00		 mov	 BYTE PTR [ebx+3850], 0

; 39   : }

  000ec	8b c3		 mov	 eax, ebx
  000ee	e8 00 00 00 00	 call	 __EH_epilog3
  000f3	c2 04 00	 ret	 4
_TEXT	ENDS
;	COMDAT text$x
text$x	SEGMENT
__unwindfunclet$??0ioFullShotSkill@@QAE@ABV0@@Z$0:
  00000	8b 4d f0	 mov	 ecx, DWORD PTR _this$[ebp]
  00003	e9 00 00 00 00	 jmp	 ??1ioAttackSkill@@UAE@XZ ; ioAttackSkill::~ioAttackSkill
__unwindfunclet$??0ioFullShotSkill@@QAE@ABV0@@Z$1:
  00008	8b 4d f0	 mov	 ecx, DWORD PTR _this$[ebp]
  0000b	81 c1 f8 10 00
	00		 add	 ecx, 4344		; 000010f8H
  00011	e9 00 00 00 00	 jmp	 ??1?$vector@UBulletInfo@@V?$allocator@UBulletInfo@@@std@@@std@@QAE@XZ ; std::vector<BulletInfo,std::allocator<BulletInfo> >::~vector<BulletInfo,std::allocator<BulletInfo> >
__unwindfunclet$??0ioFullShotSkill@@QAE@ABV0@@Z$2:
  00016	8b 4d f0	 mov	 ecx, DWORD PTR _this$[ebp]
  00019	81 c1 08 11 00
	00		 add	 ecx, 4360		; 00001108H
  0001f	ff 25 00 00 00
	00		 jmp	 DWORD PTR __imp_??1ioHashString@@QAE@XZ
__unwindfunclet$??0ioFullShotSkill@@QAE@ABV0@@Z$3:
  00025	8b 4d f0	 mov	 ecx, DWORD PTR _this$[ebp]
  00028	81 c1 18 11 00
	00		 add	 ecx, 4376		; 00001118H
  0002e	ff 25 00 00 00
	00		 jmp	 DWORD PTR __imp_??1ioHashString@@QAE@XZ
__unwindfunclet$??0ioFullShotSkill@@QAE@ABV0@@Z$4:
  00034	8b 4d f0	 mov	 ecx, DWORD PTR _this$[ebp]
  00037	81 c1 28 11 00
	00		 add	 ecx, 4392		; 00001128H
  0003d	ff 25 00 00 00
	00		 jmp	 DWORD PTR __imp_??1ioHashString@@QAE@XZ
__ehhandler$??0ioFullShotSkill@@QAE@ABV0@@Z:
  00043	8b 54 24 08	 mov	 edx, DWORD PTR [esp+8]
  00047	8d 42 0c	 lea	 eax, DWORD PTR [edx+12]
  0004a	8b 4a e0	 mov	 ecx, DWORD PTR [edx-32]
  0004d	33 c8		 xor	 ecx, eax
  0004f	e8 00 00 00 00	 call	 @__security_check_cookie@4
  00054	b8 00 00 00 00	 mov	 eax, OFFSET __ehfuncinfo$??0ioFullShotSkill@@QAE@ABV0@@Z
  00059	e9 00 00 00 00	 jmp	 ___CxxFrameHandler3
text$x	ENDS
??0ioFullShotSkill@@QAE@ABV0@@Z ENDP			; ioFullShotSkill::ioFullShotSkill
PUBLIC	??1ioFullShotSkill@@UAE@XZ			; ioFullShotSkill::~ioFullShotSkill
EXTRN	??1IORandom@@UAE@XZ:PROC			; IORandom::~IORandom
;	COMDAT xdata$x
; File c:\program files (x86)\microsoft visual studio 10.0\vc\include\vector
xdata$x	SEGMENT
__ehfuncinfo$??1ioFullShotSkill@@UAE@XZ DD 019930522H
	DD	05H
	DD	FLAT:__unwindtable$??1ioFullShotSkill@@UAE@XZ
	DD	2 DUP(00H)
	DD	2 DUP(00H)
	DD	00H
	DD	01H
__unwindtable$??1ioFullShotSkill@@UAE@XZ DD 0ffffffffH
	DD	FLAT:__unwindfunclet$??1ioFullShotSkill@@UAE@XZ$0
	DD	00H
	DD	FLAT:__unwindfunclet$??1ioFullShotSkill@@UAE@XZ$1
	DD	01H
	DD	FLAT:__unwindfunclet$??1ioFullShotSkill@@UAE@XZ$2
	DD	02H
	DD	FLAT:__unwindfunclet$??1ioFullShotSkill@@UAE@XZ$3
	DD	03H
	DD	FLAT:__unwindfunclet$??1ioFullShotSkill@@UAE@XZ$4
; Function compile flags: /Ogsp
; File d:\lost saga for developer\youtube\tutorial\source\src\lsclient\iofullshotskill.cpp
xdata$x	ENDS
;	COMDAT ??1ioFullShotSkill@@UAE@XZ
_TEXT	SEGMENT
_this$ = -16						; size = 4
__$EHRec$ = -12						; size = 12
??1ioFullShotSkill@@UAE@XZ PROC				; ioFullShotSkill::~ioFullShotSkill, COMDAT
; _this$ = ecx

; 42   : {

  00000	6a 04		 push	 4
  00002	b8 00 00 00 00	 mov	 eax, __ehhandler$??1ioFullShotSkill@@UAE@XZ
  00007	e8 00 00 00 00	 call	 __EH_prolog3
  0000c	8b f1		 mov	 esi, ecx
  0000e	89 75 f0	 mov	 DWORD PTR _this$[ebp], esi
  00011	c7 06 00 00 00
	00		 mov	 DWORD PTR [esi], OFFSET ??_7ioFullShotSkill@@6B@

; 43   : }

  00017	8d 8e 3c 11 00
	00		 lea	 ecx, DWORD PTR [esi+4412]
  0001d	c7 45 fc 04 00
	00 00		 mov	 DWORD PTR __$EHRec$[ebp+8], 4
  00024	e8 00 00 00 00	 call	 ??1IORandom@@UAE@XZ	; IORandom::~IORandom
  00029	8b 3d 00 00 00
	00		 mov	 edi, DWORD PTR __imp_??1ioHashString@@QAE@XZ
  0002f	8d 8e 28 11 00
	00		 lea	 ecx, DWORD PTR [esi+4392]
  00035	c6 45 fc 03	 mov	 BYTE PTR __$EHRec$[ebp+8], 3
  00039	ff d7		 call	 edi
  0003b	8d 8e 18 11 00
	00		 lea	 ecx, DWORD PTR [esi+4376]
  00041	c6 45 fc 02	 mov	 BYTE PTR __$EHRec$[ebp+8], 2
  00045	ff d7		 call	 edi
  00047	8d 8e 08 11 00
	00		 lea	 ecx, DWORD PTR [esi+4360]
  0004d	c6 45 fc 01	 mov	 BYTE PTR __$EHRec$[ebp+8], 1
  00051	ff d7		 call	 edi
  00053	8d 8e f8 10 00
	00		 lea	 ecx, DWORD PTR [esi+4344]
  00059	c6 45 fc 00	 mov	 BYTE PTR __$EHRec$[ebp+8], 0
  0005d	e8 00 00 00 00	 call	 ?_Tidy@?$vector@UBulletInfo@@V?$allocator@UBulletInfo@@@std@@@std@@IAEXXZ ; std::vector<BulletInfo,std::allocator<BulletInfo> >::_Tidy
  00062	83 4d fc ff	 or	 DWORD PTR __$EHRec$[ebp+8], -1
  00066	8b ce		 mov	 ecx, esi
  00068	e8 00 00 00 00	 call	 ??1ioAttackSkill@@UAE@XZ ; ioAttackSkill::~ioAttackSkill
  0006d	e8 00 00 00 00	 call	 __EH_epilog3
  00072	c3		 ret	 0
_TEXT	ENDS
;	COMDAT text$x
text$x	SEGMENT
__unwindfunclet$??1ioFullShotSkill@@UAE@XZ$0:
  00000	8b 4d f0	 mov	 ecx, DWORD PTR _this$[ebp]
  00003	e9 00 00 00 00	 jmp	 ??1ioAttackSkill@@UAE@XZ ; ioAttackSkill::~ioAttackSkill
__unwindfunclet$??1ioFullShotSkill@@UAE@XZ$1:
  00008	8b 4d f0	 mov	 ecx, DWORD PTR _this$[ebp]
  0000b	81 c1 f8 10 00
	00		 add	 ecx, 4344		; 000010f8H
  00011	e9 00 00 00 00	 jmp	 ??1?$vector@UBulletInfo@@V?$allocator@UBulletInfo@@@std@@@std@@QAE@XZ ; std::vector<BulletInfo,std::allocator<BulletInfo> >::~vector<BulletInfo,std::allocator<BulletInfo> >
__unwindfunclet$??1ioFullShotSkill@@UAE@XZ$2:
  00016	8b 4d f0	 mov	 ecx, DWORD PTR _this$[ebp]
  00019	81 c1 08 11 00
	00		 add	 ecx, 4360		; 00001108H
  0001f	ff 25 00 00 00
	00		 jmp	 DWORD PTR __imp_??1ioHashString@@QAE@XZ
__unwindfunclet$??1ioFullShotSkill@@UAE@XZ$3:
  00025	8b 4d f0	 mov	 ecx, DWORD PTR _this$[ebp]
  00028	81 c1 18 11 00
	00		 add	 ecx, 4376		; 00001118H
  0002e	ff 25 00 00 00
	00		 jmp	 DWORD PTR __imp_??1ioHashString@@QAE@XZ
__unwindfunclet$??1ioFullShotSkill@@UAE@XZ$4:
  00034	8b 4d f0	 mov	 ecx, DWORD PTR _this$[ebp]
  00037	81 c1 28 11 00
	00		 add	 ecx, 4392		; 00001128H
  0003d	ff 25 00 00 00
	00		 jmp	 DWORD PTR __imp_??1ioHashString@@QAE@XZ
__ehhandler$??1ioFullShotSkill@@UAE@XZ:
  00043	8b 54 24 08	 mov	 edx, DWORD PTR [esp+8]
  00047	8d 42 0c	 lea	 eax, DWORD PTR [edx+12]
  0004a	8b 4a ec	 mov	 ecx, DWORD PTR [edx-20]
  0004d	33 c8		 xor	 ecx, eax
  0004f	e8 00 00 00 00	 call	 @__security_check_cookie@4
  00054	b8 00 00 00 00	 mov	 eax, OFFSET __ehfuncinfo$??1ioFullShotSkill@@UAE@XZ
  00059	e9 00 00 00 00	 jmp	 ___CxxFrameHandler3
text$x	ENDS
??1ioFullShotSkill@@UAE@XZ ENDP				; ioFullShotSkill::~ioFullShotSkill
;	COMDAT xdata$x
xdata$x	SEGMENT
__unwindtable$?Clone@ioFullShotSkill@@UAEPAVioSkill@@XZ DD 0ffffffffH
	DD	FLAT:__unwindfunclet$?Clone@ioFullShotSkill@@UAEPAVioSkill@@XZ$0
__ehfuncinfo$?Clone@ioFullShotSkill@@UAEPAVioSkill@@XZ DD 019930522H
	DD	01H
	DD	FLAT:__unwindtable$?Clone@ioFullShotSkill@@UAEPAVioSkill@@XZ
	DD	2 DUP(00H)
	DD	2 DUP(00H)
	DD	00H
	DD	01H
; Function compile flags: /Ogsp
xdata$x	ENDS
;	COMDAT ?Clone@ioFullShotSkill@@UAEPAVioSkill@@XZ
_TEXT	SEGMENT
$T608770 = -16						; size = 4
__$EHRec$ = -12						; size = 12
?Clone@ioFullShotSkill@@UAEPAVioSkill@@XZ PROC		; ioFullShotSkill::Clone, COMDAT
; _this$ = ecx

; 46   : {

  00000	6a 04		 push	 4
  00002	b8 00 00 00 00	 mov	 eax, __ehhandler$?Clone@ioFullShotSkill@@UAEPAVioSkill@@XZ
  00007	e8 00 00 00 00	 call	 __EH_prolog3
  0000c	8b f1		 mov	 esi, ecx

; 47   : 	return new ioFullShotSkill( *this );

  0000e	68 18 1b 00 00	 push	 6936			; 00001b18H
  00013	e8 00 00 00 00	 call	 ??2@YAPAXI@Z		; operator new
  00018	59		 pop	 ecx
  00019	8b c8		 mov	 ecx, eax
  0001b	89 4d f0	 mov	 DWORD PTR $T608770[ebp], ecx
  0001e	33 c0		 xor	 eax, eax
  00020	89 45 fc	 mov	 DWORD PTR __$EHRec$[ebp+8], eax
  00023	3b c8		 cmp	 ecx, eax
  00025	74 06		 je	 SHORT $LN3@Clone
  00027	56		 push	 esi
  00028	e8 00 00 00 00	 call	 ??0ioFullShotSkill@@QAE@ABV0@@Z ; ioFullShotSkill::ioFullShotSkill
$LN3@Clone:

; 48   : }

  0002d	e8 00 00 00 00	 call	 __EH_epilog3
  00032	c3		 ret	 0
_TEXT	ENDS
;	COMDAT text$x
text$x	SEGMENT
__unwindfunclet$?Clone@ioFullShotSkill@@UAEPAVioSkill@@XZ$0:
  00000	ff 75 f0	 push	 DWORD PTR $T608770[ebp]
  00003	e8 00 00 00 00	 call	 ??3@YAXPAX@Z		; operator delete
  00008	59		 pop	 ecx
  00009	c3		 ret	 0
__ehhandler$?Clone@ioFullShotSkill@@UAEPAVioSkill@@XZ:
  0000a	8b 54 24 08	 mov	 edx, DWORD PTR [esp+8]
  0000e	8d 42 0c	 lea	 eax, DWORD PTR [edx+12]
  00011	8b 4a ec	 mov	 ecx, DWORD PTR [edx-20]
  00014	33 c8		 xor	 ecx, eax
  00016	e8 00 00 00 00	 call	 @__security_check_cookie@4
  0001b	b8 00 00 00 00	 mov	 eax, OFFSET __ehfuncinfo$?Clone@ioFullShotSkill@@UAEPAVioSkill@@XZ
  00020	e9 00 00 00 00	 jmp	 ___CxxFrameHandler3
text$x	ENDS
?Clone@ioFullShotSkill@@UAEPAVioSkill@@XZ ENDP		; ioFullShotSkill::Clone
PUBLIC	?push_back@?$vector@UBulletInfo@@V?$allocator@UBulletInfo@@@std@@@std@@QAEXABUBulletInfo@@@Z ; std::vector<BulletInfo,std::allocator<BulletInfo> >::push_back
; Function compile flags: /Ogsp
; File c:\program files (x86)\microsoft visual studio 10.0\vc\include\vector
;	COMDAT ?push_back@?$vector@UBulletInfo@@V?$allocator@UBulletInfo@@@std@@@std@@QAEXABUBulletInfo@@@Z
_TEXT	SEGMENT
__Val$ = 8						; size = 4
?push_back@?$vector@UBulletInfo@@V?$allocator@UBulletInfo@@@std@@@std@@QAEXABUBulletInfo@@@Z PROC ; std::vector<BulletInfo,std::allocator<BulletInfo> >::push_back, COMDAT
; _this$ = ecx

; 976  : 		{	// insert element at end

  00000	55		 push	 ebp
  00001	8b ec		 mov	 ebp, esp
  00003	56		 push	 esi
  00004	8b f1		 mov	 esi, ecx

; 977  : 		if (_Inside(_STD addressof(_Val)))

  00006	8b 4e 04	 mov	 ecx, DWORD PTR [esi+4]
  00009	57		 push	 edi
  0000a	8b 7d 08	 mov	 edi, DWORD PTR __Val$[ebp]
  0000d	3b f9		 cmp	 edi, ecx
  0000f	73 34		 jae	 SHORT $LN4@push_back
  00011	8b 16		 mov	 edx, DWORD PTR [esi]
  00013	3b d7		 cmp	 edx, edi
  00015	77 2e		 ja	 SHORT $LN4@push_back

; 978  : 			{	// push back an element
; 979  : 			size_type _Idx = _STD addressof(_Val) - this->_Myfirst;

  00017	8b c7		 mov	 eax, edi
  00019	2b c2		 sub	 eax, edx
  0001b	6a 14		 push	 20			; 00000014H
  0001d	99		 cdq
  0001e	5f		 pop	 edi
  0001f	f7 ff		 idiv	 edi
  00021	8b f8		 mov	 edi, eax

; 980  : 			if (this->_Mylast == this->_Myend)

  00023	3b 4e 08	 cmp	 ecx, DWORD PTR [esi+8]
  00026	75 09		 jne	 SHORT $LN3@push_back

; 981  : 				_Reserve(1);

  00028	6a 01		 push	 1
  0002a	8b ce		 mov	 ecx, esi
  0002c	e8 00 00 00 00	 call	 ?_Reserve@?$vector@UBulletInfo@@V?$allocator@UBulletInfo@@@std@@@std@@IAEXI@Z ; std::vector<BulletInfo,std::allocator<BulletInfo> >::_Reserve
$LN3@push_back:

; 982  : 			_Orphan_range(this->_Mylast, this->_Mylast);
; 983  : 			_Cons_val(this->_Alval,
; 984  : 				this->_Mylast,
; 985  : 				this->_Myfirst[_Idx]);

  00031	6b ff 14	 imul	 edi, 20			; 00000014H
  00034	03 3e		 add	 edi, DWORD PTR [esi]
  00036	8d 46 0c	 lea	 eax, DWORD PTR [esi+12]
  00039	57		 push	 edi
  0003a	ff 76 04	 push	 DWORD PTR [esi+4]
  0003d	50		 push	 eax
  0003e	e8 00 00 00 00	 call	 ??$_Cons_val@V?$allocator@UBulletInfo@@@std@@UBulletInfo@@AAU3@@std@@YAXAAV?$allocator@UBulletInfo@@@0@PAUBulletInfo@@AAU2@@Z ; std::_Cons_val<std::allocator<BulletInfo>,BulletInfo,BulletInfo &>

; 986  : 			++this->_Mylast;
; 987  : 			}
; 988  : 		else

  00043	eb 1b		 jmp	 SHORT $LN20@push_back
$LN4@push_back:

; 989  : 			{	// push back a non-element
; 990  : 			if (this->_Mylast == this->_Myend)

  00045	3b 4e 08	 cmp	 ecx, DWORD PTR [esi+8]
  00048	75 09		 jne	 SHORT $LN1@push_back

; 991  : 				_Reserve(1);

  0004a	6a 01		 push	 1
  0004c	8b ce		 mov	 ecx, esi
  0004e	e8 00 00 00 00	 call	 ?_Reserve@?$vector@UBulletInfo@@V?$allocator@UBulletInfo@@@std@@@std@@IAEXI@Z ; std::vector<BulletInfo,std::allocator<BulletInfo> >::_Reserve
$LN1@push_back:

; 992  : 			_Orphan_range(this->_Mylast, this->_Mylast);
; 993  : 			_Cons_val(this->_Alval,
; 994  : 				this->_Mylast,
; 995  : 				_Val);

  00053	57		 push	 edi
  00054	ff 76 04	 push	 DWORD PTR [esi+4]
  00057	8d 46 0c	 lea	 eax, DWORD PTR [esi+12]
  0005a	50		 push	 eax
  0005b	e8 00 00 00 00	 call	 ??$_Cons_val@V?$allocator@UBulletInfo@@@std@@UBulletInfo@@ABU3@@std@@YAXAAV?$allocator@UBulletInfo@@@0@PAUBulletInfo@@ABU2@@Z ; std::_Cons_val<std::allocator<BulletInfo>,BulletInfo,BulletInfo const &>
$LN20@push_back:
  00060	83 c4 0c	 add	 esp, 12			; 0000000cH

; 996  : 			++this->_Mylast;

  00063	83 46 04 14	 add	 DWORD PTR [esi+4], 20	; 00000014H
  00067	5f		 pop	 edi
  00068	5e		 pop	 esi

; 997  : 			}
; 998  : 		}

  00069	5d		 pop	 ebp
  0006a	c2 04 00	 ret	 4
?push_back@?$vector@UBulletInfo@@V?$allocator@UBulletInfo@@@std@@@std@@QAEXABUBulletInfo@@@Z ENDP ; std::vector<BulletInfo,std::allocator<BulletInfo> >::push_back
; Function compile flags: /Ogsp
_TEXT	ENDS
;	COMDAT ??_GioFullShotSkill@@UAEPAXI@Z
_TEXT	SEGMENT
___flags$ = 8						; size = 4
??_GioFullShotSkill@@UAEPAXI@Z PROC			; ioFullShotSkill::`scalar deleting destructor', COMDAT
; _this$ = ecx
  00000	55		 push	 ebp
  00001	8b ec		 mov	 ebp, esp
  00003	56		 push	 esi
  00004	8b f1		 mov	 esi, ecx
  00006	e8 00 00 00 00	 call	 ??1ioFullShotSkill@@UAE@XZ ; ioFullShotSkill::~ioFullShotSkill
  0000b	f6 45 08 01	 test	 BYTE PTR ___flags$[ebp], 1
  0000f	74 07		 je	 SHORT $LN1@scalar@2
  00011	56		 push	 esi
  00012	e8 00 00 00 00	 call	 ??3@YAXPAX@Z		; operator delete
  00017	59		 pop	 ecx
$LN1@scalar@2:
  00018	8b c6		 mov	 eax, esi
  0001a	5e		 pop	 esi
  0001b	5d		 pop	 ebp
  0001c	c2 04 00	 ret	 4
??_GioFullShotSkill@@UAEPAXI@Z ENDP			; ioFullShotSkill::`scalar deleting destructor'
_TEXT	ENDS
PUBLIC	??_C@_00CNPNBAHC@?$AA@				; `string'
PUBLIC	_rkLoader$GSCopy$
PUBLIC	__$ArrayPad$
EXTRN	__imp_??4ioHashString@@QAEAAV0@PBD@Z:PROC
EXTRN	__imp__wsprintfA:PROC
EXTRN	?LoadProperty@ioAttackSkill@@UAEXAAVioINILoader@@@Z:PROC ; ioAttackSkill::LoadProperty
;	COMDAT ??_C@_00CNPNBAHC@?$AA@
; File d:\lost saga for developer\youtube\tutorial\source\src\lsclient\stringprotect.h
CONST	SEGMENT
??_C@_00CNPNBAHC@?$AA@ DB 00H				; `string'
; Function compile flags: /Ogsp
; File d:\lost saga for developer\youtube\tutorial\source\src\lsclient\iofullshotskill.cpp
CONST	ENDS
;	COMDAT ?LoadProperty@ioFullShotSkill@@UAEXAAVioINILoader@@@Z
_TEXT	SEGMENT
$T609371 = -328						; size = 4
_rkLoader$GSCopy$ = -324				; size = 4
_szKey$ = -320						; size = 260
__k$609819 = -60					; size = 23
__k$609729 = -56					; size = 18
__k$609604 = -56					; size = 18
__k$609457 = -56					; size = 19
__k$608825 = -56					; size = 17
_kInfo$600854 = -56					; size = 20
___encStr$601163 = -32					; size = 23
___encStr$601011 = -32					; size = 22
__k$609200 = -24					; size = 15
___encStr$600858 = -24					; size = 15
__k$609075 = -20					; size = 10
__k$608950 = -20					; size = 10
__$ArrayPad$ = -4					; size = 4
_rkLoader$ = 8						; size = 4
?LoadProperty@ioFullShotSkill@@UAEXAAVioINILoader@@@Z PROC ; ioFullShotSkill::LoadProperty, COMDAT
; _this$ = ecx

; 51   : {

  00000	55		 push	 ebp
  00001	8b ec		 mov	 ebp, esp
  00003	81 ec 48 01 00
	00		 sub	 esp, 328		; 00000148H
  00009	a1 00 00 00 00	 mov	 eax, DWORD PTR ___security_cookie
  0000e	33 c5		 xor	 eax, ebp
  00010	89 45 fc	 mov	 DWORD PTR __$ArrayPad$[ebp], eax
  00013	53		 push	 ebx
  00014	56		 push	 esi
  00015	57		 push	 edi
  00016	8b 7d 08	 mov	 edi, DWORD PTR _rkLoader$[ebp]

; 52   : 	ioAttackSkill::LoadProperty( rkLoader );

  00019	57		 push	 edi
  0001a	8b f1		 mov	 esi, ecx

; 85   : 
; 86   : 	rkLoader.LoadString_e( "back_skill_motion", "", szKey, MAX_PATH );

  0001c	89 bd bc fe ff
	ff		 mov	 DWORD PTR _rkLoader$GSCopy$[ebp], edi
  00022	e8 00 00 00 00	 call	 ?LoadProperty@ioAttackSkill@@UAEXAAVioINILoader@@@Z ; ioAttackSkill::LoadProperty
  00027	6a 04		 push	 4
  00029	5b		 pop	 ebx
  0002a	c7 45 c8 98 9f
	8e b5		 mov	 DWORD PTR __k$608825[ebp], -1248944232 ; b58e9f98H
  00031	c7 45 cc 9e 9c
	8e 8f		 mov	 DWORD PTR __k$608825[ebp+4], -1886479202 ; 8f8e9c9eH
  00038	c7 45 d0 89 b3
	99 8b		 mov	 DWORD PTR __k$608825[ebp+8], -1952861303 ; 8b99b389H
  0003f	c7 45 d4 83 88
	84 87		 mov	 DWORD PTR __k$608825[ebp+12], -2021357437 ; 87848883H
  00046	8d 45 c8	 lea	 eax, DWORD PTR __k$608825[ebp]
  00049	c6 45 d8 00	 mov	 BYTE PTR __k$608825[ebp+16], 0
  0004d	8b cb		 mov	 ecx, ebx
$LL408@LoadProper:

; 53   : 
; 54   : 	m_bUseSpeedRandom = rkLoader.LoadBool_e( "use_speed_random", false );

  0004f	81 30 ed ec eb
	ea		 xor	 DWORD PTR [eax], -353637139 ; eaebecedH
  00055	03 c3		 add	 eax, ebx
  00057	49		 dec	 ecx
  00058	75 f5		 jne	 SHORT $LL408@LoadProper
  0005a	51		 push	 ecx
  0005b	8d 45 c8	 lea	 eax, DWORD PTR __k$608825[ebp]
  0005e	50		 push	 eax
  0005f	8b cf		 mov	 ecx, edi
  00061	ff 15 00 00 00
	00		 call	 DWORD PTR __imp_?LoadBool@ioINILoader@@QAE_NPBD_N@Z
  00067	6a 02		 push	 2
  00069	88 86 08 1b 00
	00		 mov	 BYTE PTR [esi+6920], al

; 55   : 	m_fMinSpeed = rkLoader.LoadFloat_e( "min_speed", 0.0f );

  0006f	c7 45 ec 80 85
	85 b5		 mov	 DWORD PTR __k$608950[ebp], -1249540736 ; b5858580H
  00076	c7 45 f0 9e 9c
	8e 8f		 mov	 DWORD PTR __k$608950[ebp+4], -1886479202 ; 8f8e9c9eH
  0007d	8d 45 ec	 lea	 eax, DWORD PTR __k$608950[ebp]
  00080	66 c7 45 f4 89
	00		 mov	 WORD PTR __k$608950[ebp+8], 137 ; 00000089H
  00086	59		 pop	 ecx
$LL514@LoadProper:
  00087	81 30 ed ec eb
	ea		 xor	 DWORD PTR [eax], -353637139 ; eaebecedH
  0008d	03 c3		 add	 eax, ebx
  0008f	49		 dec	 ecx
  00090	75 f5		 jne	 SHORT $LL514@LoadProper
  00092	0f 57 c0	 xorps	 xmm0, xmm0
  00095	80 75 f4 ed	 xor	 BYTE PTR __k$608950[ebp+8], -19 ; ffffffedH
  00099	51		 push	 ecx
  0009a	8d 45 ec	 lea	 eax, DWORD PTR __k$608950[ebp]
  0009d	f3 0f 11 04 24	 movss	 DWORD PTR [esp], xmm0
  000a2	50		 push	 eax
  000a3	8b cf		 mov	 ecx, edi
  000a5	ff 15 00 00 00
	00		 call	 DWORD PTR __imp_?LoadFloat@ioINILoader@@QAEMPBDM@Z
  000ab	d9 9e 0c 1b 00
	00		 fstp	 DWORD PTR [esi+6924]
  000b1	6a 02		 push	 2

; 56   : 	m_fMaxSpeed = rkLoader.LoadFloat_e( "max_speed", 0.0f );

  000b3	c7 45 ec 80 8d
	93 b5		 mov	 DWORD PTR __k$609075[ebp], -1248621184 ; b5938d80H
  000ba	c7 45 f0 9e 9c
	8e 8f		 mov	 DWORD PTR __k$609075[ebp+4], -1886479202 ; 8f8e9c9eH
  000c1	8d 45 ec	 lea	 eax, DWORD PTR __k$609075[ebp]
  000c4	66 c7 45 f4 89
	00		 mov	 WORD PTR __k$609075[ebp+8], 137 ; 00000089H
  000ca	59		 pop	 ecx
$LL620@LoadProper:
  000cb	81 30 ed ec eb
	ea		 xor	 DWORD PTR [eax], -353637139 ; eaebecedH
  000d1	03 c3		 add	 eax, ebx
  000d3	49		 dec	 ecx
  000d4	75 f5		 jne	 SHORT $LL620@LoadProper
  000d6	0f 57 c0	 xorps	 xmm0, xmm0
  000d9	80 75 f4 ed	 xor	 BYTE PTR __k$609075[ebp+8], -19 ; ffffffedH
  000dd	51		 push	 ecx
  000de	8d 45 ec	 lea	 eax, DWORD PTR __k$609075[ebp]
  000e1	f3 0f 11 04 24	 movss	 DWORD PTR [esp], xmm0
  000e6	50		 push	 eax
  000e7	8b cf		 mov	 ecx, edi
  000e9	ff 15 00 00 00
	00		 call	 DWORD PTR __imp_?LoadFloat@ioINILoader@@QAEMPBDM@Z
  000ef	d9 9e 10 1b 00
	00		 fstp	 DWORD PTR [esi+6928]
  000f5	6a 03		 push	 3

; 57   : 	
; 58   : 	m_iMaxWeaponWay = rkLoader.LoadInt_e( "max_bullet_cnt", 1 );

  000f7	c7 45 e8 80 8d
	93 b5		 mov	 DWORD PTR __k$609200[ebp], -1248621184 ; b5938d80H
  000fe	c7 45 ec 8f 99
	87 86		 mov	 DWORD PTR __k$609200[ebp+4], -2037933681 ; 8687998fH
  00105	c7 45 f0 88 98
	b4 89		 mov	 DWORD PTR __k$609200[ebp+8], -1984653176 ; 89b49888H
  0010c	66 c7 45 f4 83
	98		 mov	 WORD PTR __k$609200[ebp+12], 39043 ; 00009883H
  00112	8d 45 e8	 lea	 eax, DWORD PTR __k$609200[ebp]
  00115	c6 45 f6 00	 mov	 BYTE PTR __k$609200[ebp+14], 0
  00119	59		 pop	 ecx
$LL726@LoadProper:
  0011a	81 30 ed ec eb
	ea		 xor	 DWORD PTR [eax], -353637139 ; eaebecedH
  00120	03 c3		 add	 eax, ebx
  00122	49		 dec	 ecx
  00123	75 f5		 jne	 SHORT $LL726@LoadProper
  00125	6a 0c		 push	 12			; 0000000cH
  00127	58		 pop	 eax
$LL723@LoadProper:
  00128	8b c8		 mov	 ecx, eax
  0012a	81 e1 03 00 00
	80		 and	 ecx, -2147483645	; 80000003H
  00130	79 05		 jns	 SHORT $LN1244@LoadProper
  00132	49		 dec	 ecx
  00133	83 c9 fc	 or	 ecx, -4			; fffffffcH
  00136	41		 inc	 ecx
$LN1244@LoadProper:
  00137	b2 ed		 mov	 dl, -19			; ffffffedH
  00139	2a d1		 sub	 dl, cl
  0013b	30 54 05 e8	 xor	 BYTE PTR __k$609200[ebp+eax], dl
  0013f	40		 inc	 eax
  00140	83 f8 0e	 cmp	 eax, 14			; 0000000eH
  00143	7c e3		 jl	 SHORT $LL723@LoadProper
  00145	33 db		 xor	 ebx, ebx
  00147	43		 inc	 ebx
  00148	53		 push	 ebx
  00149	8d 45 e8	 lea	 eax, DWORD PTR __k$609200[ebp]
  0014c	50		 push	 eax
  0014d	8b cf		 mov	 ecx, edi
  0014f	ff 15 00 00 00
	00		 call	 DWORD PTR __imp_?LoadInt@ioINILoader@@QAEHPBDH@Z

; 59   : 	m_iMaxWeaponWay = max( 1, m_iMaxWeaponWay );

  00155	3b c3		 cmp	 eax, ebx
  00157	0f 4c c3	 cmovl	 eax, ebx
  0015a	89 86 f0 10 00
	00		 mov	 DWORD PTR [esi+4336], eax

; 60   : 
; 61   : 	char szKey[MAX_PATH];
; 62   : 	m_BulletInfoList.clear();

  00160	8b 86 fc 10 00
	00		 mov	 eax, DWORD PTR [esi+4348]
  00166	8b 8e f8 10 00
	00		 mov	 ecx, DWORD PTR [esi+4344]
  0016c	50		 push	 eax
  0016d	51		 push	 ecx
  0016e	8d 85 b8 fe ff
	ff		 lea	 eax, DWORD PTR $T609371[ebp]
  00174	50		 push	 eax
  00175	8d 8e f8 10 00
	00		 lea	 ecx, DWORD PTR [esi+4344]
  0017b	e8 00 00 00 00	 call	 ?erase@?$vector@UBulletInfo@@V?$allocator@UBulletInfo@@@std@@@std@@QAE?AV?$_Vector_iterator@V?$_Vector_val@UBulletInfo@@V?$allocator@UBulletInfo@@@std@@@std@@@2@V?$_Vector_const_iterator@V?$_Vector_val@UBulletInfo@@V?$allocator@UBulletInfo@@@std@@@std@@@2@0@Z ; std::vector<BulletInfo,std::allocator<BulletInfo> >::erase

; 63   : 	for( int i=0; i < m_iMaxWeaponWay; ++i )

  00180	83 be f0 10 00
	00 00		 cmp	 DWORD PTR [esi+4336], 0
  00187	0f 8e b1 01 00
	00		 jle	 $LN298@LoadProper

; 59   : 	m_iMaxWeaponWay = max( 1, m_iMaxWeaponWay );

  0018d	8b 3d 00 00 00
	00		 mov	 edi, DWORD PTR __imp__wsprintfA
$LL300@LoadProper:

; 64   : 	{
; 65   : 		BulletInfo kInfo;

  00193	0f 57 c0	 xorps	 xmm0, xmm0
  00196	6a 03		 push	 3
  00198	f3 0f 11 45 cc	 movss	 DWORD PTR _kInfo$600854[ebp+4], xmm0
  0019d	f3 0f 11 45 d0	 movss	 DWORD PTR _kInfo$600854[ebp+8], xmm0

; 66   : 
; 67   : 		wsprintf_e( szKey, "bullet_angle%d", i+1 );

  001a2	c7 45 e8 8f 99
	87 86		 mov	 DWORD PTR ___encStr$600858[ebp], -2037933681 ; 8687998fH
  001a9	c7 45 ec 88 98
	b4 8b		 mov	 DWORD PTR ___encStr$600858[ebp+4], -1951098744 ; 8bb49888H
  001b0	c7 45 f0 83 8b
	87 8f		 mov	 DWORD PTR ___encStr$600858[ebp+8], -1886942333 ; 8f878b83H
  001b7	66 c7 45 f4 c8
	88		 mov	 WORD PTR ___encStr$600858[ebp+12], 35016 ; 000088c8H
  001bd	8d 45 e8	 lea	 eax, DWORD PTR ___encStr$600858[ebp]
  001c0	c6 45 f6 00	 mov	 BYTE PTR ___encStr$600858[ebp+14], 0
  001c4	59		 pop	 ecx
$LL754@LoadProper:
  001c5	81 30 ed ec eb
	ea		 xor	 DWORD PTR [eax], -353637139 ; eaebecedH
  001cb	83 c0 04	 add	 eax, 4
  001ce	49		 dec	 ecx
  001cf	75 f4		 jne	 SHORT $LL754@LoadProper
  001d1	6a 0c		 push	 12			; 0000000cH
  001d3	58		 pop	 eax
$LL751@LoadProper:
  001d4	8b c8		 mov	 ecx, eax
  001d6	81 e1 03 00 00
	80		 and	 ecx, -2147483645	; 80000003H
  001dc	79 05		 jns	 SHORT $LN1245@LoadProper
  001de	49		 dec	 ecx
  001df	83 c9 fc	 or	 ecx, -4			; fffffffcH
  001e2	41		 inc	 ecx
$LN1245@LoadProper:
  001e3	b2 ed		 mov	 dl, -19			; ffffffedH
  001e5	2a d1		 sub	 dl, cl
  001e7	30 54 05 e8	 xor	 BYTE PTR ___encStr$600858[ebp+eax], dl
  001eb	40		 inc	 eax
  001ec	83 f8 0e	 cmp	 eax, 14			; 0000000eH
  001ef	7c e3		 jl	 SHORT $LL751@LoadProper
  001f1	53		 push	 ebx
  001f2	8d 45 e8	 lea	 eax, DWORD PTR ___encStr$600858[ebp]
  001f5	50		 push	 eax
  001f6	8d 85 c0 fe ff
	ff		 lea	 eax, DWORD PTR _szKey$[ebp]
  001fc	50		 push	 eax
  001fd	ff d7		 call	 edi

; 68   : 		kInfo.m_fYawAngle = rkLoader.LoadFloat( szKey, 0.0f );

  001ff	0f 57 c0	 xorps	 xmm0, xmm0
  00202	59		 pop	 ecx
  00203	59		 pop	 ecx
  00204	8b 8d bc fe ff
	ff		 mov	 ecx, DWORD PTR _rkLoader$GSCopy$[ebp]
  0020a	8d 85 c0 fe ff
	ff		 lea	 eax, DWORD PTR _szKey$[ebp]
  00210	f3 0f 11 04 24	 movss	 DWORD PTR [esp], xmm0
  00215	50		 push	 eax
  00216	ff 15 00 00 00
	00		 call	 DWORD PTR __imp_?LoadFloat@ioINILoader@@QAEMPBDM@Z
  0021c	d9 5d c8	 fstp	 DWORD PTR _kInfo$600854[ebp]
  0021f	6a 05		 push	 5

; 69   : 
; 70   : 		wsprintf_e( szKey, "bullet_range_offset%d", i+1 );

  00221	c7 45 e0 8f 99
	87 86		 mov	 DWORD PTR ___encStr$601011[ebp], -2037933681 ; 8687998fH
  00228	c7 45 e4 88 98
	b4 98		 mov	 DWORD PTR ___encStr$601011[ebp+4], -1732994936 ; 98b49888H
  0022f	c7 45 e8 8c 82
	8c 8f		 mov	 DWORD PTR ___encStr$601011[ebp+8], -1886616948 ; 8f8c828cH
  00236	c7 45 ec b2 83
	8d 8c		 mov	 DWORD PTR ___encStr$601011[ebp+12], -1936882766 ; 8c8d83b2H
  0023d	c7 45 f0 9e 89
	9f cf		 mov	 DWORD PTR ___encStr$601011[ebp+16], -811628130 ; cf9f899eH
  00244	8d 45 e0	 lea	 eax, DWORD PTR ___encStr$601011[ebp]
  00247	66 c7 45 f4 89
	00		 mov	 WORD PTR ___encStr$601011[ebp+20], 137 ; 00000089H
  0024d	59		 pop	 ecx
$LL762@LoadProper:
  0024e	81 30 ed ec eb
	ea		 xor	 DWORD PTR [eax], -353637139 ; eaebecedH
  00254	83 c0 04	 add	 eax, 4
  00257	49		 dec	 ecx
  00258	75 f4		 jne	 SHORT $LL762@LoadProper
  0025a	80 75 f4 ed	 xor	 BYTE PTR ___encStr$601011[ebp+20], -19 ; ffffffedH
  0025e	53		 push	 ebx
  0025f	8d 45 e0	 lea	 eax, DWORD PTR ___encStr$601011[ebp]
  00262	50		 push	 eax
  00263	8d 85 c0 fe ff
	ff		 lea	 eax, DWORD PTR _szKey$[ebp]
  00269	50		 push	 eax
  0026a	ff d7		 call	 edi

; 71   : 		kInfo.m_fRangeOffSet = rkLoader.LoadFloat( szKey, 0.0f );

  0026c	0f 57 c0	 xorps	 xmm0, xmm0
  0026f	59		 pop	 ecx
  00270	59		 pop	 ecx
  00271	8b 8d bc fe ff
	ff		 mov	 ecx, DWORD PTR _rkLoader$GSCopy$[ebp]
  00277	8d 85 c0 fe ff
	ff		 lea	 eax, DWORD PTR _szKey$[ebp]
  0027d	f3 0f 11 04 24	 movss	 DWORD PTR [esp], xmm0
  00282	50		 push	 eax
  00283	ff 15 00 00 00
	00		 call	 DWORD PTR __imp_?LoadFloat@ioINILoader@@QAEMPBDM@Z
  00289	d9 5d d4	 fstp	 DWORD PTR _kInfo$600854[ebp+12]
  0028c	6a 05		 push	 5

; 72   : 
; 73   : 		wsprintf_e( szKey, "bullet_height_offset%d", i+1 );

  0028e	c7 45 e0 8f 99
	87 86		 mov	 DWORD PTR ___encStr$601163[ebp], -2037933681 ; 8687998fH
  00295	c7 45 e4 88 98
	b4 82		 mov	 DWORD PTR ___encStr$601163[ebp+4], -2102093688 ; 82b49888H
  0029c	c7 45 e8 88 85
	8c 82		 mov	 DWORD PTR ___encStr$601163[ebp+8], -2104719992 ; 828c8588H
  002a3	c7 45 ec 99 b3
	84 8c		 mov	 DWORD PTR ___encStr$601163[ebp+12], -1937460327 ; 8c84b399H
  002aa	c7 45 f0 8b 9f
	8e 9e		 mov	 DWORD PTR ___encStr$601163[ebp+16], -1634820213 ; 9e8e9f8bH
  002b1	66 c7 45 f4 c8
	88		 mov	 WORD PTR ___encStr$601163[ebp+20], 35016 ; 000088c8H
  002b7	8d 45 e0	 lea	 eax, DWORD PTR ___encStr$601163[ebp]
  002ba	c6 45 f6 00	 mov	 BYTE PTR ___encStr$601163[ebp+22], 0
  002be	59		 pop	 ecx
$LL770@LoadProper:
  002bf	81 30 ed ec eb
	ea		 xor	 DWORD PTR [eax], -353637139 ; eaebecedH
  002c5	83 c0 04	 add	 eax, 4
  002c8	49		 dec	 ecx
  002c9	75 f4		 jne	 SHORT $LL770@LoadProper
  002cb	6a 14		 push	 20			; 00000014H
  002cd	58		 pop	 eax
$LL767@LoadProper:
  002ce	8b c8		 mov	 ecx, eax
  002d0	81 e1 03 00 00
	80		 and	 ecx, -2147483645	; 80000003H
  002d6	79 05		 jns	 SHORT $LN1246@LoadProper
  002d8	49		 dec	 ecx
  002d9	83 c9 fc	 or	 ecx, -4			; fffffffcH
  002dc	41		 inc	 ecx
$LN1246@LoadProper:
  002dd	b2 ed		 mov	 dl, -19			; ffffffedH
  002df	2a d1		 sub	 dl, cl
  002e1	30 54 05 e0	 xor	 BYTE PTR ___encStr$601163[ebp+eax], dl
  002e5	40		 inc	 eax
  002e6	83 f8 16	 cmp	 eax, 22			; 00000016H
  002e9	7c e3		 jl	 SHORT $LL767@LoadProper
  002eb	53		 push	 ebx
  002ec	8d 45 e0	 lea	 eax, DWORD PTR ___encStr$601163[ebp]
  002ef	50		 push	 eax
  002f0	8d 85 c0 fe ff
	ff		 lea	 eax, DWORD PTR _szKey$[ebp]
  002f6	50		 push	 eax
  002f7	ff d7		 call	 edi

; 74   : 		kInfo.m_fHeightOffSet = rkLoader.LoadFloat( szKey, 0.0f );

  002f9	0f 57 c0	 xorps	 xmm0, xmm0
  002fc	59		 pop	 ecx
  002fd	59		 pop	 ecx
  002fe	8b 8d bc fe ff
	ff		 mov	 ecx, DWORD PTR _rkLoader$GSCopy$[ebp]
  00304	8d 85 c0 fe ff
	ff		 lea	 eax, DWORD PTR _szKey$[ebp]
  0030a	f3 0f 11 04 24	 movss	 DWORD PTR [esp], xmm0
  0030f	50		 push	 eax
  00310	ff 15 00 00 00
	00		 call	 DWORD PTR __imp_?LoadFloat@ioINILoader@@QAEMPBDM@Z
  00316	d9 5d d8	 fstp	 DWORD PTR _kInfo$600854[ebp+16]

; 75   : 
; 76   : 		m_BulletInfoList.push_back( kInfo );

  00319	8d 45 c8	 lea	 eax, DWORD PTR _kInfo$600854[ebp]
  0031c	50		 push	 eax
  0031d	8d 8e f8 10 00
	00		 lea	 ecx, DWORD PTR [esi+4344]
  00323	e8 00 00 00 00	 call	 ?push_back@?$vector@UBulletInfo@@V?$allocator@UBulletInfo@@@std@@@std@@QAEXABUBulletInfo@@@Z ; std::vector<BulletInfo,std::allocator<BulletInfo> >::push_back
  00328	43		 inc	 ebx
  00329	8d 43 ff	 lea	 eax, DWORD PTR [ebx-1]
  0032c	3b 86 f0 10 00
	00		 cmp	 eax, DWORD PTR [esi+4336]
  00332	0f 8c 5b fe ff
	ff		 jl	 $LL300@LoadProper

; 63   : 	for( int i=0; i < m_iMaxWeaponWay; ++i )

  00338	8b bd bc fe ff
	ff		 mov	 edi, DWORD PTR _rkLoader$GSCopy$[ebp]
$LN298@LoadProper:

; 77   : 	}
; 78   : 
; 79   : 	rkLoader.LoadString_e( "right_skill_motion", "", szKey, MAX_PATH );

  0033e	6a 04		 push	 4
  00340	c7 45 c8 9f 85
	8c 82		 mov	 DWORD PTR __k$609457[ebp], -2104719969 ; 828c859fH
  00347	c7 45 cc 99 b3
	98 81		 mov	 DWORD PTR __k$609457[ebp+4], -2120698983 ; 8198b399H
  0034e	c7 45 d0 84 80
	87 b5		 mov	 DWORD PTR __k$609457[ebp+8], -1249410940 ; b5878084H
  00355	c7 45 d4 80 83
	9f 83		 mov	 DWORD PTR __k$609457[ebp+12], -2086698112 ; 839f8380H
  0035c	66 c7 45 d8 82
	82		 mov	 WORD PTR __k$609457[ebp+16], 33410 ; 00008282H
  00362	8d 45 c8	 lea	 eax, DWORD PTR __k$609457[ebp]
  00365	c6 45 da 00	 mov	 BYTE PTR __k$609457[ebp+18], 0
  00369	59		 pop	 ecx
$LL876@LoadProper:
  0036a	81 30 ed ec eb
	ea		 xor	 DWORD PTR [eax], -353637139 ; eaebecedH
  00370	83 c0 04	 add	 eax, 4
  00373	49		 dec	 ecx
  00374	75 f4		 jne	 SHORT $LL876@LoadProper
  00376	6a 10		 push	 16			; 00000010H
  00378	58		 pop	 eax
$LL873@LoadProper:
  00379	8b c8		 mov	 ecx, eax
  0037b	81 e1 03 00 00
	80		 and	 ecx, -2147483645	; 80000003H
  00381	79 05		 jns	 SHORT $LN1247@LoadProper
  00383	49		 dec	 ecx
  00384	83 c9 fc	 or	 ecx, -4			; fffffffcH
  00387	41		 inc	 ecx
$LN1247@LoadProper:
  00388	b2 ed		 mov	 dl, -19			; ffffffedH
  0038a	2a d1		 sub	 dl, cl
  0038c	30 54 05 c8	 xor	 BYTE PTR __k$609457[ebp+eax], dl
  00390	40		 inc	 eax
  00391	83 f8 12	 cmp	 eax, 18			; 00000012H
  00394	7c e3		 jl	 SHORT $LL873@LoadProper
  00396	68 04 01 00 00	 push	 260			; 00000104H
  0039b	8d 85 c0 fe ff
	ff		 lea	 eax, DWORD PTR _szKey$[ebp]
  003a1	50		 push	 eax
  003a2	68 00 00 00 00	 push	 OFFSET ??_C@_00CNPNBAHC@?$AA@
  003a7	8d 45 c8	 lea	 eax, DWORD PTR __k$609457[ebp]
  003aa	8b cf		 mov	 ecx, edi
  003ac	8b 3d 00 00 00
	00		 mov	 edi, DWORD PTR __imp_?LoadStringA@ioINILoader@@QAEXPBD0PADH@Z
  003b2	50		 push	 eax
  003b3	ff d7		 call	 edi

; 80   : 	m_RightSkillMotion = szKey;

  003b5	8b 1d 00 00 00
	00		 mov	 ebx, DWORD PTR __imp_??4ioHashString@@QAEAAV0@PBD@Z
  003bb	8d 85 c0 fe ff
	ff		 lea	 eax, DWORD PTR _szKey$[ebp]
  003c1	50		 push	 eax
  003c2	8d 8e 08 11 00
	00		 lea	 ecx, DWORD PTR [esi+4360]
  003c8	ff d3		 call	 ebx
  003ca	6a 04		 push	 4

; 81   : 
; 82   : 
; 83   : 	rkLoader.LoadString_e( "left_skill_motion", "", szKey, MAX_PATH );

  003cc	c7 45 c8 81 89
	8d 9e		 mov	 DWORD PTR __k$609604[ebp], -1634891391 ; 9e8d8981H
  003d3	c7 45 cc b2 9f
	80 83		 mov	 DWORD PTR __k$609604[ebp+4], -2088722510 ; 83809fb2H
  003da	c7 45 d0 81 80
	b4 87		 mov	 DWORD PTR __k$609604[ebp+8], -2018213759 ; 87b48081H
  003e1	c7 45 d4 82 98
	82 85		 mov	 DWORD PTR __k$609604[ebp+12], -2055038846 ; 85829882H
  003e8	8d 45 c8	 lea	 eax, DWORD PTR __k$609604[ebp]
  003eb	66 c7 45 d8 83
	00		 mov	 WORD PTR __k$609604[ebp+16], 131 ; 00000083H
  003f1	59		 pop	 ecx
$LL982@LoadProper:
  003f2	81 30 ed ec eb
	ea		 xor	 DWORD PTR [eax], -353637139 ; eaebecedH
  003f8	83 c0 04	 add	 eax, 4
  003fb	49		 dec	 ecx
  003fc	75 f4		 jne	 SHORT $LL982@LoadProper
  003fe	8b 8d bc fe ff
	ff		 mov	 ecx, DWORD PTR _rkLoader$GSCopy$[ebp]
  00404	80 75 d8 ed	 xor	 BYTE PTR __k$609604[ebp+16], -19 ; ffffffedH
  00408	68 04 01 00 00	 push	 260			; 00000104H
  0040d	8d 85 c0 fe ff
	ff		 lea	 eax, DWORD PTR _szKey$[ebp]
  00413	50		 push	 eax
  00414	68 00 00 00 00	 push	 OFFSET ??_C@_00CNPNBAHC@?$AA@
  00419	8d 45 c8	 lea	 eax, DWORD PTR __k$609604[ebp]
  0041c	50		 push	 eax
  0041d	ff d7		 call	 edi

; 84   : 	m_LeftSkillMotion = szKey;

  0041f	8d 85 c0 fe ff
	ff		 lea	 eax, DWORD PTR _szKey$[ebp]
  00425	50		 push	 eax
  00426	8d 8e 18 11 00
	00		 lea	 ecx, DWORD PTR [esi+4376]
  0042c	ff d3		 call	 ebx
  0042e	6a 04		 push	 4

; 85   : 
; 86   : 	rkLoader.LoadString_e( "back_skill_motion", "", szKey, MAX_PATH );

  00430	c7 45 c8 8f 8d
	88 81		 mov	 DWORD PTR __k$609729[ebp], -2121757297 ; 81888d8fH
  00437	c7 45 cc b2 9f
	80 83		 mov	 DWORD PTR __k$609729[ebp+4], -2088722510 ; 83809fb2H
  0043e	c7 45 d0 81 80
	b4 87		 mov	 DWORD PTR __k$609729[ebp+8], -2018213759 ; 87b48081H
  00445	c7 45 d4 82 98
	82 85		 mov	 DWORD PTR __k$609729[ebp+12], -2055038846 ; 85829882H
  0044c	8d 45 c8	 lea	 eax, DWORD PTR __k$609729[ebp]
  0044f	66 c7 45 d8 83
	00		 mov	 WORD PTR __k$609729[ebp+16], 131 ; 00000083H
  00455	59		 pop	 ecx
$LL1088@LoadProper:
  00456	81 30 ed ec eb
	ea		 xor	 DWORD PTR [eax], -353637139 ; eaebecedH
  0045c	83 c0 04	 add	 eax, 4
  0045f	49		 dec	 ecx
  00460	75 f4		 jne	 SHORT $LL1088@LoadProper
  00462	8b 8d bc fe ff
	ff		 mov	 ecx, DWORD PTR _rkLoader$GSCopy$[ebp]
  00468	80 75 d8 ed	 xor	 BYTE PTR __k$609729[ebp+16], -19 ; ffffffedH
  0046c	68 04 01 00 00	 push	 260			; 00000104H
  00471	8d 85 c0 fe ff
	ff		 lea	 eax, DWORD PTR _szKey$[ebp]
  00477	50		 push	 eax
  00478	68 00 00 00 00	 push	 OFFSET ??_C@_00CNPNBAHC@?$AA@
  0047d	8d 45 c8	 lea	 eax, DWORD PTR __k$609729[ebp]
  00480	50		 push	 eax
  00481	ff d7		 call	 edi

; 87   : 	m_BackSkillMotion = szKey;

  00483	8d 85 c0 fe ff
	ff		 lea	 eax, DWORD PTR _szKey$[ebp]
  00489	50		 push	 eax
  0048a	8d 8e 28 11 00
	00		 lea	 ecx, DWORD PTR [esi+4392]
  00490	ff d3		 call	 ebx
  00492	6a 05		 push	 5

; 88   : 
; 89   : 	m_iSecondAttributeIndex = rkLoader.LoadInt_e( "throw_second_attribute", 0 );

  00494	c7 45 c4 99 84
	99 85		 mov	 DWORD PTR __k$609819[ebp], -2053536615 ; 85998499H
  0049b	c7 45 c8 9a b3
	98 8f		 mov	 DWORD PTR __k$609819[ebp+4], -1885817958 ; 8f98b39aH
  004a2	c7 45 cc 8e 83
	85 8e		 mov	 DWORD PTR __k$609819[ebp+8], -1903852658 ; 8e85838eH
  004a9	c7 45 d0 b2 8d
	9f 9e		 mov	 DWORD PTR __k$609819[ebp+12], -1633710670 ; 9e9f8db2H
  004b0	c7 45 d4 9f 85
	89 9f		 mov	 DWORD PTR __k$609819[ebp+16], -1618377313 ; 9f89859fH
  004b7	66 c7 45 d8 99
	89		 mov	 WORD PTR __k$609819[ebp+20], 35225 ; 00008999H
  004bd	8d 45 c4	 lea	 eax, DWORD PTR __k$609819[ebp]
  004c0	c6 45 da 00	 mov	 BYTE PTR __k$609819[ebp+22], 0
  004c4	59		 pop	 ecx
$LL1194@LoadProper:
  004c5	81 30 ed ec eb
	ea		 xor	 DWORD PTR [eax], -353637139 ; eaebecedH
  004cb	83 c0 04	 add	 eax, 4
  004ce	49		 dec	 ecx
  004cf	75 f4		 jne	 SHORT $LL1194@LoadProper
  004d1	6a 14		 push	 20			; 00000014H
  004d3	58		 pop	 eax
$LL1191@LoadProper:
  004d4	8b c8		 mov	 ecx, eax
  004d6	81 e1 03 00 00
	80		 and	 ecx, -2147483645	; 80000003H
  004dc	79 05		 jns	 SHORT $LN1248@LoadProper
  004de	49		 dec	 ecx
  004df	83 c9 fc	 or	 ecx, -4			; fffffffcH
  004e2	41		 inc	 ecx
$LN1248@LoadProper:
  004e3	b2 ed		 mov	 dl, -19			; ffffffedH
  004e5	2a d1		 sub	 dl, cl
  004e7	30 54 05 c4	 xor	 BYTE PTR __k$609819[ebp+eax], dl
  004eb	40		 inc	 eax
  004ec	83 f8 16	 cmp	 eax, 22			; 00000016H
  004ef	7c e3		 jl	 SHORT $LL1191@LoadProper
  004f1	8b 8d bc fe ff
	ff		 mov	 ecx, DWORD PTR _rkLoader$GSCopy$[ebp]
  004f7	6a 00		 push	 0
  004f9	8d 45 c4	 lea	 eax, DWORD PTR __k$609819[ebp]
  004fc	50		 push	 eax
  004fd	ff 15 00 00 00
	00		 call	 DWORD PTR __imp_?LoadInt@ioINILoader@@QAEHPBDH@Z

; 90   : }

  00503	8b 4d fc	 mov	 ecx, DWORD PTR __$ArrayPad$[ebp]
  00506	5f		 pop	 edi
  00507	89 86 14 1b 00
	00		 mov	 DWORD PTR [esi+6932], eax
  0050d	5e		 pop	 esi
  0050e	33 cd		 xor	 ecx, ebp
  00510	5b		 pop	 ebx
  00511	e8 00 00 00 00	 call	 @__security_check_cookie@4
  00516	c9		 leave
  00517	c2 04 00	 ret	 4
?LoadProperty@ioFullShotSkill@@UAEXAAVioINILoader@@@Z ENDP ; ioFullShotSkill::LoadProperty
_TEXT	ENDS
END
