; Listing generated by Microsoft (R) Optimizing Compiler Version 16.00.30319.01 

	TITLE	D:\Lost Saga For Developer\Youtube\Tutorial\Source\src\LSClient\ioGaugeStealBuff.cpp
	.686P
	.XMM
	include listing.inc
	.model	flat

INCLUDELIB MSVCRT
INCLUDELIB OLDNAMES

PUBLIC	?return1@@YAIXZ					; return1
; Function compile flags: /Ogsp
; File d:\lost saga for developer\youtube\tutorial\source\src\lsclient\stdafx.h
;	COMDAT ?return1@@YAIXZ
_TEXT	SEGMENT
?return1@@YAIXZ PROC					; return1, COMDAT

; 17   : 	__forceinline unsigned int return1() { __asm mov eax, 1 };

  00000	b8 01 00 00 00	 mov	 eax, 1
  00005	c3		 ret	 0
?return1@@YAIXZ ENDP					; return1
_TEXT	ENDS
PUBLIC	??_7ioGaugeStealBuff@@6B@			; ioGaugeStealBuff::`vftable'
PUBLIC	??0ioGaugeStealBuff@@QAE@XZ			; ioGaugeStealBuff::ioGaugeStealBuff
PUBLIC	??_R4ioGaugeStealBuff@@6B@			; ioGaugeStealBuff::`RTTI Complete Object Locator'
PUBLIC	??_R0?AVioGaugeStealBuff@@@8			; ioGaugeStealBuff `RTTI Type Descriptor'
PUBLIC	??_R3ioGaugeStealBuff@@8			; ioGaugeStealBuff::`RTTI Class Hierarchy Descriptor'
PUBLIC	??_R2ioGaugeStealBuff@@8			; ioGaugeStealBuff::`RTTI Base Class Array'
PUBLIC	??_R1A@?0A@EA@ioGaugeStealBuff@@8		; ioGaugeStealBuff::`RTTI Base Class Descriptor at (0,-1,0,64)'
PUBLIC	??_R1A@?0A@EA@ioBuff@@8				; ioBuff::`RTTI Base Class Descriptor at (0,-1,0,64)'
PUBLIC	??_R0?AVioBuff@@@8				; ioBuff `RTTI Type Descriptor'
PUBLIC	??_R3ioBuff@@8					; ioBuff::`RTTI Class Hierarchy Descriptor'
PUBLIC	??_R2ioBuff@@8					; ioBuff::`RTTI Base Class Array'
PUBLIC	?LoadProperty@ioGaugeStealBuff@@UAEXAAVioINILoader@@@Z ; ioGaugeStealBuff::LoadProperty
PUBLIC	?Clone@ioGaugeStealBuff@@UAEPAVioBuff@@XZ	; ioGaugeStealBuff::Clone
PUBLIC	?StartBuff@ioGaugeStealBuff@@UAEXPAVioBaseChar@@@Z ; ioGaugeStealBuff::StartBuff
PUBLIC	?ApplyStartBuff@ioGaugeStealBuff@@UAE_NPAVioBaseChar@@KK@Z ; ioGaugeStealBuff::ApplyStartBuff
PUBLIC	?ProcessBuff@ioGaugeStealBuff@@UAEXM@Z		; ioGaugeStealBuff::ProcessBuff
PUBLIC	?EndBuff@ioGaugeStealBuff@@UAEXXZ		; ioGaugeStealBuff::EndBuff
PUBLIC	?IsWaitSelfRemove@ioBuff@@UAE_NXZ		; ioBuff::IsWaitSelfRemove
EXTRN	??0ioBuff@@QAE@XZ:PROC				; ioBuff::ioBuff
EXTRN	??_7type_info@@6B@:QWORD			; type_info::`vftable'
EXTRN	?StartBuffWithAniTime@ioBuff@@UAEXPAVioBaseChar@@K@Z:PROC ; ioBuff::StartBuffWithAniTime
EXTRN	?CancelBuff@ioBuff@@UAEXXZ:PROC			; ioBuff::CancelBuff
EXTRN	?GetBuffInfo@ioBuff@@UAEXAAVSP2Packet@@@Z:PROC	; ioBuff::GetBuffInfo
EXTRN	?ApplyBuffInfo@ioBuff@@UAEXAAVSP2Packet@@@Z:PROC ; ioBuff::ApplyBuffInfo
EXTRN	?AccumulateBuff@ioBuff@@UAEXXZ:PROC		; ioBuff::AccumulateBuff
EXTRN	?IsLiveButStopped@ioBuff@@UBE_NXZ:PROC		; ioBuff::IsLiveButStopped
EXTRN	?IsCanJumpAttack@ioBuff@@UBE_NXZ:PROC		; ioBuff::IsCanJumpAttack
EXTRN	?SetAction@ioBuff@@MAEXXZ:PROC			; ioBuff::SetAction
EXTRN	?ProcessDelay@ioBuff@@MAEXM@Z:PROC		; ioBuff::ProcessDelay
EXTRN	?SetExtraDurationByGrowth@ioBuff@@UAEXM@Z:PROC	; ioBuff::SetExtraDurationByGrowth
EXTRN	?SetWeaponIndex@ioBuff@@UAEXK@Z:PROC		; ioBuff::SetWeaponIndex
EXTRN	?OnReduceGauge@ioBuff@@UBE_NXZ:PROC		; ioBuff::OnReduceGauge
EXTRN	?IsCharCollisionSkip@ioBuff@@UBE_NXZ:PROC	; ioBuff::IsCharCollisionSkip
EXTRN	?IsCollisionAvailableWeapon@ioBuff@@UBE_NXZ:PROC ; ioBuff::IsCollisionAvailableWeapon
EXTRN	?IsProtected@ioBuff@@UBE_NXZ:PROC		; ioBuff::IsProtected
EXTRN	?UseActiveCount@ioBuff@@UBE_NXZ:PROC		; ioBuff::UseActiveCount
EXTRN	?CheckActiveCount@ioBuff@@UAEXXZ:PROC		; ioBuff::CheckActiveCount
EXTRN	?CheckRemoveEquipSkillBuff@ioBuff@@UAEX_N@Z:PROC ; ioBuff::CheckRemoveEquipSkillBuff
EXTRN	?ApplyExtraBuffInfo@ioBuff@@UAEXAAVSP2Packet@@@Z:PROC ; ioBuff::ApplyExtraBuffInfo
EXTRN	?SetBuffGrapplingState@ioBuff@@UAE_NPAVioBaseChar@@ABVioHashString@@@Z:PROC ; ioBuff::SetBuffGrapplingState
EXTRN	?GetGrapplingTargetPos@ioBuff@@UAE?AUD3DXVECTOR3@@PAVioBaseChar@@@Z:PROC ; ioBuff::GetGrapplingTargetPos
EXTRN	??_EioGaugeStealBuff@@UAEPAXI@Z:PROC		; ioGaugeStealBuff::`vector deleting destructor'
;	COMDAT ??_R2ioBuff@@8
; File d:\lost saga for developer\youtube\tutorial\source\src\lsclient\iogaugestealbuff.cpp
rdata$r	SEGMENT
??_R2ioBuff@@8 DD FLAT:??_R1A@?0A@EA@ioBuff@@8		; ioBuff::`RTTI Base Class Array'
rdata$r	ENDS
;	COMDAT ??_R3ioBuff@@8
rdata$r	SEGMENT
??_R3ioBuff@@8 DD 00H					; ioBuff::`RTTI Class Hierarchy Descriptor'
	DD	00H
	DD	01H
	DD	FLAT:??_R2ioBuff@@8
rdata$r	ENDS
;	COMDAT ??_R0?AVioBuff@@@8
_DATA	SEGMENT
??_R0?AVioBuff@@@8 DD FLAT:??_7type_info@@6B@		; ioBuff `RTTI Type Descriptor'
	DD	00H
	DB	'.?AVioBuff@@', 00H
_DATA	ENDS
;	COMDAT ??_R1A@?0A@EA@ioBuff@@8
rdata$r	SEGMENT
??_R1A@?0A@EA@ioBuff@@8 DD FLAT:??_R0?AVioBuff@@@8	; ioBuff::`RTTI Base Class Descriptor at (0,-1,0,64)'
	DD	00H
	DD	00H
	DD	0ffffffffH
	DD	00H
	DD	040H
	DD	FLAT:??_R3ioBuff@@8
rdata$r	ENDS
;	COMDAT ??_R1A@?0A@EA@ioGaugeStealBuff@@8
rdata$r	SEGMENT
??_R1A@?0A@EA@ioGaugeStealBuff@@8 DD FLAT:??_R0?AVioGaugeStealBuff@@@8 ; ioGaugeStealBuff::`RTTI Base Class Descriptor at (0,-1,0,64)'
	DD	01H
	DD	00H
	DD	0ffffffffH
	DD	00H
	DD	040H
	DD	FLAT:??_R3ioGaugeStealBuff@@8
rdata$r	ENDS
;	COMDAT ??_R2ioGaugeStealBuff@@8
rdata$r	SEGMENT
??_R2ioGaugeStealBuff@@8 DD FLAT:??_R1A@?0A@EA@ioGaugeStealBuff@@8 ; ioGaugeStealBuff::`RTTI Base Class Array'
	DD	FLAT:??_R1A@?0A@EA@ioBuff@@8
rdata$r	ENDS
;	COMDAT ??_R3ioGaugeStealBuff@@8
rdata$r	SEGMENT
??_R3ioGaugeStealBuff@@8 DD 00H				; ioGaugeStealBuff::`RTTI Class Hierarchy Descriptor'
	DD	00H
	DD	02H
	DD	FLAT:??_R2ioGaugeStealBuff@@8
rdata$r	ENDS
;	COMDAT ??_R0?AVioGaugeStealBuff@@@8
_DATA	SEGMENT
??_R0?AVioGaugeStealBuff@@@8 DD FLAT:??_7type_info@@6B@	; ioGaugeStealBuff `RTTI Type Descriptor'
	DD	00H
	DB	'.?AVioGaugeStealBuff@@', 00H
_DATA	ENDS
;	COMDAT ??_R4ioGaugeStealBuff@@6B@
rdata$r	SEGMENT
??_R4ioGaugeStealBuff@@6B@ DD 00H			; ioGaugeStealBuff::`RTTI Complete Object Locator'
	DD	00H
	DD	00H
	DD	FLAT:??_R0?AVioGaugeStealBuff@@@8
	DD	FLAT:??_R3ioGaugeStealBuff@@8
rdata$r	ENDS
;	COMDAT ??_7ioGaugeStealBuff@@6B@
CONST	SEGMENT
??_7ioGaugeStealBuff@@6B@ DD FLAT:??_R4ioGaugeStealBuff@@6B@ ; ioGaugeStealBuff::`vftable'
	DD	FLAT:?LoadProperty@ioGaugeStealBuff@@UAEXAAVioINILoader@@@Z
	DD	FLAT:?Clone@ioGaugeStealBuff@@UAEPAVioBuff@@XZ
	DD	FLAT:?StartBuff@ioGaugeStealBuff@@UAEXPAVioBaseChar@@@Z
	DD	FLAT:?StartBuffWithAniTime@ioBuff@@UAEXPAVioBaseChar@@K@Z
	DD	FLAT:?ApplyStartBuff@ioGaugeStealBuff@@UAE_NPAVioBaseChar@@KK@Z
	DD	FLAT:?ProcessBuff@ioGaugeStealBuff@@UAEXM@Z
	DD	FLAT:?EndBuff@ioGaugeStealBuff@@UAEXXZ
	DD	FLAT:?CancelBuff@ioBuff@@UAEXXZ
	DD	FLAT:?GetBuffInfo@ioBuff@@UAEXAAVSP2Packet@@@Z
	DD	FLAT:?ApplyBuffInfo@ioBuff@@UAEXAAVSP2Packet@@@Z
	DD	FLAT:?AccumulateBuff@ioBuff@@UAEXXZ
	DD	FLAT:?IsLiveButStopped@ioBuff@@UBE_NXZ
	DD	FLAT:?IsCanJumpAttack@ioBuff@@UBE_NXZ
	DD	FLAT:?SetAction@ioBuff@@MAEXXZ
	DD	FLAT:?ProcessDelay@ioBuff@@MAEXM@Z
	DD	FLAT:?SetExtraDurationByGrowth@ioBuff@@UAEXM@Z
	DD	FLAT:?SetWeaponIndex@ioBuff@@UAEXK@Z
	DD	FLAT:?OnReduceGauge@ioBuff@@UBE_NXZ
	DD	FLAT:?IsCharCollisionSkip@ioBuff@@UBE_NXZ
	DD	FLAT:?IsCollisionAvailableWeapon@ioBuff@@UBE_NXZ
	DD	FLAT:?IsProtected@ioBuff@@UBE_NXZ
	DD	FLAT:?UseActiveCount@ioBuff@@UBE_NXZ
	DD	FLAT:?CheckActiveCount@ioBuff@@UAEXXZ
	DD	FLAT:?CheckRemoveEquipSkillBuff@ioBuff@@UAEX_N@Z
	DD	FLAT:?ApplyExtraBuffInfo@ioBuff@@UAEXAAVSP2Packet@@@Z
	DD	FLAT:?SetBuffGrapplingState@ioBuff@@UAE_NPAVioBaseChar@@ABVioHashString@@@Z
	DD	FLAT:?GetGrapplingTargetPos@ioBuff@@UAE?AUD3DXVECTOR3@@PAVioBaseChar@@@Z
	DD	FLAT:?IsWaitSelfRemove@ioBuff@@UAE_NXZ
	DD	FLAT:??_EioGaugeStealBuff@@UAEPAXI@Z
; Function compile flags: /Ogsp
CONST	ENDS
;	COMDAT ??0ioGaugeStealBuff@@QAE@XZ
_TEXT	SEGMENT
??0ioGaugeStealBuff@@QAE@XZ PROC			; ioGaugeStealBuff::ioGaugeStealBuff, COMDAT
; _this$ = ecx

; 9    : {

  00000	56		 push	 esi
  00001	8b f1		 mov	 esi, ecx
  00003	e8 00 00 00 00	 call	 ??0ioBuff@@QAE@XZ	; ioBuff::ioBuff
  00008	c7 06 00 00 00
	00		 mov	 DWORD PTR [esi], OFFSET ??_7ioGaugeStealBuff@@6B@

; 10   : }

  0000e	8b c6		 mov	 eax, esi
  00010	5e		 pop	 esi
  00011	c3		 ret	 0
??0ioGaugeStealBuff@@QAE@XZ ENDP			; ioGaugeStealBuff::ioGaugeStealBuff
_TEXT	ENDS
PUBLIC	??0ioGaugeStealBuff@@QAE@ABV0@@Z		; ioGaugeStealBuff::ioGaugeStealBuff
EXTRN	??0ioBuff@@QAE@ABV0@@Z:PROC			; ioBuff::ioBuff
EXTRN	__fltused:DWORD
; Function compile flags: /Ogsp
;	COMDAT ??0ioGaugeStealBuff@@QAE@ABV0@@Z
_TEXT	SEGMENT
_rhs$ = 8						; size = 4
??0ioGaugeStealBuff@@QAE@ABV0@@Z PROC			; ioGaugeStealBuff::ioGaugeStealBuff, COMDAT
; _this$ = ecx

; 15   : {

  00000	55		 push	 ebp
  00001	8b ec		 mov	 ebp, esp
  00003	56		 push	 esi
  00004	57		 push	 edi
  00005	8b 7d 08	 mov	 edi, DWORD PTR _rhs$[ebp]
  00008	57		 push	 edi
  00009	8b f1		 mov	 esi, ecx
  0000b	e8 00 00 00 00	 call	 ??0ioBuff@@QAE@ABV0@@Z	; ioBuff::ioBuff
  00010	c7 06 00 00 00
	00		 mov	 DWORD PTR [esi], OFFSET ??_7ioGaugeStealBuff@@6B@
  00016	d9 87 6c 09 00
	00		 fld	 DWORD PTR [edi+2412]
  0001c	5f		 pop	 edi
  0001d	d9 9e 6c 09 00
	00		 fstp	 DWORD PTR [esi+2412]

; 16   : }

  00023	8b c6		 mov	 eax, esi
  00025	5e		 pop	 esi
  00026	5d		 pop	 ebp
  00027	c2 04 00	 ret	 4
??0ioGaugeStealBuff@@QAE@ABV0@@Z ENDP			; ioGaugeStealBuff::ioGaugeStealBuff
_TEXT	ENDS
PUBLIC	??1ioGaugeStealBuff@@UAE@XZ			; ioGaugeStealBuff::~ioGaugeStealBuff
EXTRN	??1ioBuff@@UAE@XZ:PROC				; ioBuff::~ioBuff
; Function compile flags: /Ogsp
;	COMDAT ??1ioGaugeStealBuff@@UAE@XZ
_TEXT	SEGMENT
??1ioGaugeStealBuff@@UAE@XZ PROC			; ioGaugeStealBuff::~ioGaugeStealBuff, COMDAT
; _this$ = ecx

; 19   : {

  00000	c7 01 00 00 00
	00		 mov	 DWORD PTR [ecx], OFFSET ??_7ioGaugeStealBuff@@6B@

; 20   : }

  00006	e9 00 00 00 00	 jmp	 ??1ioBuff@@UAE@XZ	; ioBuff::~ioBuff
??1ioGaugeStealBuff@@UAE@XZ ENDP			; ioGaugeStealBuff::~ioGaugeStealBuff
_TEXT	ENDS
EXTRN	??3@YAXPAX@Z:PROC				; operator delete
EXTRN	??2@YAPAXI@Z:PROC				; operator new
EXTRN	___CxxFrameHandler3:PROC
EXTRN	@__security_check_cookie@4:PROC
EXTRN	__EH_epilog3:PROC
EXTRN	__EH_prolog3:PROC
;	COMDAT xdata$x
xdata$x	SEGMENT
__unwindtable$?Clone@ioGaugeStealBuff@@UAEPAVioBuff@@XZ DD 0ffffffffH
	DD	FLAT:__unwindfunclet$?Clone@ioGaugeStealBuff@@UAEPAVioBuff@@XZ$0
__ehfuncinfo$?Clone@ioGaugeStealBuff@@UAEPAVioBuff@@XZ DD 019930522H
	DD	01H
	DD	FLAT:__unwindtable$?Clone@ioGaugeStealBuff@@UAEPAVioBuff@@XZ
	DD	2 DUP(00H)
	DD	2 DUP(00H)
	DD	00H
	DD	01H
; Function compile flags: /Ogsp
xdata$x	ENDS
;	COMDAT ?Clone@ioGaugeStealBuff@@UAEPAVioBuff@@XZ
_TEXT	SEGMENT
$T524276 = -16						; size = 4
__$EHRec$ = -12						; size = 12
?Clone@ioGaugeStealBuff@@UAEPAVioBuff@@XZ PROC		; ioGaugeStealBuff::Clone, COMDAT
; _this$ = ecx

; 30   : {

  00000	6a 04		 push	 4
  00002	b8 00 00 00 00	 mov	 eax, __ehhandler$?Clone@ioGaugeStealBuff@@UAEPAVioBuff@@XZ
  00007	e8 00 00 00 00	 call	 __EH_prolog3
  0000c	8b f1		 mov	 esi, ecx

; 31   : 	return new ioGaugeStealBuff( *this );

  0000e	68 70 09 00 00	 push	 2416			; 00000970H
  00013	e8 00 00 00 00	 call	 ??2@YAPAXI@Z		; operator new
  00018	59		 pop	 ecx
  00019	8b c8		 mov	 ecx, eax
  0001b	89 4d f0	 mov	 DWORD PTR $T524276[ebp], ecx
  0001e	33 c0		 xor	 eax, eax
  00020	89 45 fc	 mov	 DWORD PTR __$EHRec$[ebp+8], eax
  00023	3b c8		 cmp	 ecx, eax
  00025	74 06		 je	 SHORT $LN3@Clone
  00027	56		 push	 esi
  00028	e8 00 00 00 00	 call	 ??0ioGaugeStealBuff@@QAE@ABV0@@Z ; ioGaugeStealBuff::ioGaugeStealBuff
$LN3@Clone:

; 32   : }

  0002d	e8 00 00 00 00	 call	 __EH_epilog3
  00032	c3		 ret	 0
_TEXT	ENDS
;	COMDAT text$x
text$x	SEGMENT
__unwindfunclet$?Clone@ioGaugeStealBuff@@UAEPAVioBuff@@XZ$0:
  00000	ff 75 f0	 push	 DWORD PTR $T524276[ebp]
  00003	e8 00 00 00 00	 call	 ??3@YAXPAX@Z		; operator delete
  00008	59		 pop	 ecx
  00009	c3		 ret	 0
__ehhandler$?Clone@ioGaugeStealBuff@@UAEPAVioBuff@@XZ:
  0000a	8b 54 24 08	 mov	 edx, DWORD PTR [esp+8]
  0000e	8d 42 0c	 lea	 eax, DWORD PTR [edx+12]
  00011	8b 4a ec	 mov	 ecx, DWORD PTR [edx-20]
  00014	33 c8		 xor	 ecx, eax
  00016	e8 00 00 00 00	 call	 @__security_check_cookie@4
  0001b	b8 00 00 00 00	 mov	 eax, OFFSET __ehfuncinfo$?Clone@ioGaugeStealBuff@@UAEPAVioBuff@@XZ
  00020	e9 00 00 00 00	 jmp	 ___CxxFrameHandler3
text$x	ENDS
?Clone@ioGaugeStealBuff@@UAEPAVioBuff@@XZ ENDP		; ioGaugeStealBuff::Clone
EXTRN	?SetBuffDuration@ioBuff@@IAEXK@Z:PROC		; ioBuff::SetBuffDuration
EXTRN	?ApplyStartBuff@ioBuff@@UAE_NPAVioBaseChar@@KK@Z:PROC ; ioBuff::ApplyStartBuff
; Function compile flags: /Ogsp
;	COMDAT ?ApplyStartBuff@ioGaugeStealBuff@@UAE_NPAVioBaseChar@@KK@Z
_TEXT	SEGMENT
_pOwner$ = 8						; size = 4
_dwGlobalTime$ = 12					; size = 4
_dwGapTime$ = 16					; size = 4
?ApplyStartBuff@ioGaugeStealBuff@@UAE_NPAVioBaseChar@@KK@Z PROC ; ioGaugeStealBuff::ApplyStartBuff, COMDAT
; _this$ = ecx

; 90   : {

  00000	55		 push	 ebp
  00001	8b ec		 mov	 ebp, esp
  00003	56		 push	 esi

; 91   : 	if( !ioBuff::ApplyStartBuff( pOwner, dwGlobalTime, dwGapTime ) )

  00004	ff 75 10	 push	 DWORD PTR _dwGapTime$[ebp]
  00007	8b f1		 mov	 esi, ecx
  00009	ff 75 0c	 push	 DWORD PTR _dwGlobalTime$[ebp]
  0000c	ff 75 08	 push	 DWORD PTR _pOwner$[ebp]
  0000f	e8 00 00 00 00	 call	 ?ApplyStartBuff@ioBuff@@UAE_NPAVioBaseChar@@KK@Z ; ioBuff::ApplyStartBuff
  00014	84 c0		 test	 al, al
  00016	74 0b		 je	 SHORT $LN2@ApplyStart
$LN1@ApplyStart:

; 92   : 		return false;
; 93   : 
; 94   : 	SetBuffDuration( 0 );

  00018	6a 00		 push	 0
  0001a	8b ce		 mov	 ecx, esi
  0001c	e8 00 00 00 00	 call	 ?SetBuffDuration@ioBuff@@IAEXK@Z ; ioBuff::SetBuffDuration

; 95   : 	return true;

  00021	b0 01		 mov	 al, 1
$LN2@ApplyStart:
  00023	5e		 pop	 esi

; 96   : }

  00024	5d		 pop	 ebp
  00025	c2 0c 00	 ret	 12			; 0000000cH
?ApplyStartBuff@ioGaugeStealBuff@@UAE_NPAVioBaseChar@@KK@Z ENDP ; ioGaugeStealBuff::ApplyStartBuff
_TEXT	ENDS
EXTRN	?SetReserveEndBuff@ioBuff@@QAEXXZ:PROC		; ioBuff::SetReserveEndBuff
; Function compile flags: /Ogsp
;	COMDAT ?ProcessBuff@ioGaugeStealBuff@@UAEXM@Z
_TEXT	SEGMENT
_fTimePerSec$ = 8					; size = 4
?ProcessBuff@ioGaugeStealBuff@@UAEXM@Z PROC		; ioGaugeStealBuff::ProcessBuff, COMDAT
; _this$ = ecx

; 100  : 	switch( m_iOperationType )

  00000	83 b9 d0 03 00
	00 03		 cmp	 DWORD PTR [ecx+976], 3
  00007	77 05		 ja	 SHORT $LN2@ProcessBuf

; 101  : 	{
; 102  : 	case OT_DELAY:
; 103  : 	case OT_SWITCH:
; 104  : 	case OT_ACTIVE:
; 105  : 	case OT_PASSIVE:
; 106  : 		SetReserveEndBuff();

  00009	e8 00 00 00 00	 call	 ?SetReserveEndBuff@ioBuff@@QAEXXZ ; ioBuff::SetReserveEndBuff
$LN2@ProcessBuf:

; 107  : 		break;
; 108  : 	}
; 109  : }

  0000e	c2 04 00	 ret	 4
?ProcessBuff@ioGaugeStealBuff@@UAEXM@Z ENDP		; ioGaugeStealBuff::ProcessBuff
_TEXT	ENDS
EXTRN	?EndBuff@ioBuff@@UAEXXZ:PROC			; ioBuff::EndBuff
; Function compile flags: /Ogsp
;	COMDAT ?EndBuff@ioGaugeStealBuff@@UAEXXZ
_TEXT	SEGMENT
?EndBuff@ioGaugeStealBuff@@UAEXXZ PROC			; ioGaugeStealBuff::EndBuff, COMDAT
; _this$ = ecx

; 113  : 	ioBuff::EndBuff();

  00000	e9 00 00 00 00	 jmp	 ?EndBuff@ioBuff@@UAEXXZ	; ioBuff::EndBuff
?EndBuff@ioGaugeStealBuff@@UAEXXZ ENDP			; ioGaugeStealBuff::EndBuff
_TEXT	ENDS
PUBLIC	?_DECSTR@@YAXPADH@Z				; _DECSTR
; Function compile flags: /Ogsp
; File d:\lost saga for developer\youtube\tutorial\source\src\lsclient\stringprotect.h
;	COMDAT ?_DECSTR@@YAXPADH@Z
_TEXT	SEGMENT
_s$ = 8							; size = 4
_l$ = 12						; size = 4
?_DECSTR@@YAXPADH@Z PROC				; _DECSTR, COMDAT

; 40   : __forceinline void _DECSTR(char* s, int l){int i=0,l4=(l-1)/4,*p=(int*)s;s[l-1]=0;for(;i<l4;++i)*(p++)^=0xEAEBECED;for(i=l4*4;i<l-1;++i)s[i]^=0xED-i%4;}

  00000	55		 push	 ebp
  00001	8b ec		 mov	 ebp, esp
  00003	8b 4d 0c	 mov	 ecx, DWORD PTR _l$[ebp]
  00006	56		 push	 esi
  00007	8b 75 08	 mov	 esi, DWORD PTR _s$[ebp]
  0000a	57		 push	 edi
  0000b	8d 79 ff	 lea	 edi, DWORD PTR [ecx-1]
  0000e	8b c7		 mov	 eax, edi
  00010	99		 cdq
  00011	83 e2 03	 and	 edx, 3
  00014	03 c2		 add	 eax, edx
  00016	c1 f8 02	 sar	 eax, 2
  00019	8b d6		 mov	 edx, esi
  0001b	c6 44 0e ff 00	 mov	 BYTE PTR [esi+ecx-1], 0
  00020	85 c0		 test	 eax, eax
  00022	7e 0e		 jle	 SHORT $LN4@DECSTR
  00024	8b c8		 mov	 ecx, eax
$LL6@DECSTR:
  00026	81 32 ed ec eb
	ea		 xor	 DWORD PTR [edx], -353637139 ; eaebecedH
  0002c	83 c2 04	 add	 edx, 4
  0002f	49		 dec	 ecx
  00030	75 f4		 jne	 SHORT $LL6@DECSTR
$LN4@DECSTR:
  00032	c1 e0 02	 shl	 eax, 2
  00035	eb 17		 jmp	 SHORT $LN14@DECSTR
$LL3@DECSTR:
  00037	8b c8		 mov	 ecx, eax
  00039	81 e1 03 00 00
	80		 and	 ecx, -2147483645	; 80000003H
  0003f	79 05		 jns	 SHORT $LN13@DECSTR
  00041	49		 dec	 ecx
  00042	83 c9 fc	 or	 ecx, -4			; fffffffcH
  00045	41		 inc	 ecx
$LN13@DECSTR:
  00046	b2 ed		 mov	 dl, -19			; ffffffedH
  00048	2a d1		 sub	 dl, cl
  0004a	30 14 30	 xor	 BYTE PTR [eax+esi], dl
  0004d	40		 inc	 eax
$LN14@DECSTR:
  0004e	3b c7		 cmp	 eax, edi
  00050	7c e5		 jl	 SHORT $LL3@DECSTR
  00052	5f		 pop	 edi
  00053	5e		 pop	 esi
  00054	5d		 pop	 ebp
  00055	c3		 ret	 0
?_DECSTR@@YAXPADH@Z ENDP				; _DECSTR
; Function compile flags: /Ogsp
; File d:\lost saga for developer\youtube\tutorial\source\src\lsclient\iobuff.h
_TEXT	ENDS
;	COMDAT ?IsWaitSelfRemove@ioBuff@@UAE_NXZ
_TEXT	SEGMENT
?IsWaitSelfRemove@ioBuff@@UAE_NXZ PROC			; ioBuff::IsWaitSelfRemove, COMDAT
; _this$ = ecx

; 519  : 	virtual bool IsWaitSelfRemove() { return m_bWaitSelfRemove; }

  00000	8a 81 65 09 00
	00		 mov	 al, BYTE PTR [ecx+2405]
  00006	c3		 ret	 0
?IsWaitSelfRemove@ioBuff@@UAE_NXZ ENDP			; ioBuff::IsWaitSelfRemove
_TEXT	ENDS
PUBLIC	?DecryptValueToPool@?$CEncrypt@M@@QAEXPAM@Z	; CEncrypt<float>::DecryptValueToPool
EXTRN	?DecryptByte@ccddaabb@@QBEXPBDPADH@Z:PROC	; ccddaabb::DecryptByte
; Function compile flags: /Ogsp
; File d:\lost saga for developer\youtube\tutorial\source\src\lsclient\encryptvalue.h
;	COMDAT ?DecryptValueToPool@?$CEncrypt@M@@QAEXPAM@Z
_TEXT	SEGMENT
_value$ = 8						; size = 4
?DecryptValueToPool@?$CEncrypt@M@@QAEXPAM@Z PROC	; CEncrypt<float>::DecryptValueToPool, COMDAT
; _this$ = ecx

; 1648 : 	{

  00000	55		 push	 ebp
  00001	8b ec		 mov	 ebp, esp
  00003	56		 push	 esi

; 1649 : 		m_RC5.DecryptByte( m_MemPool, m_TempMem, 4 );

  00004	8d 71 28	 lea	 esi, DWORD PTR [ecx+40]
  00007	6a 04		 push	 4
  00009	8d 41 1c	 lea	 eax, DWORD PTR [ecx+28]
  0000c	56		 push	 esi
  0000d	50		 push	 eax
  0000e	83 c1 0c	 add	 ecx, 12			; 0000000cH
  00011	e8 00 00 00 00	 call	 ?DecryptByte@ccddaabb@@QBEXPBDPADH@Z ; ccddaabb::DecryptByte

; 1650 : 		*value = *((float*)m_TempMem);

  00016	d9 06		 fld	 DWORD PTR [esi]
  00018	8b 45 08	 mov	 eax, DWORD PTR _value$[ebp]
  0001b	d9 18		 fstp	 DWORD PTR [eax]
  0001d	5e		 pop	 esi

; 1651 : 	}

  0001e	5d		 pop	 ebp
  0001f	c2 04 00	 ret	 4
?DecryptValueToPool@?$CEncrypt@M@@QAEXPAM@Z ENDP	; CEncrypt<float>::DecryptValueToPool
; Function compile flags: /Ogsp
_TEXT	ENDS
;	COMDAT ??_GioGaugeStealBuff@@UAEPAXI@Z
_TEXT	SEGMENT
___flags$ = 8						; size = 4
??_GioGaugeStealBuff@@UAEPAXI@Z PROC			; ioGaugeStealBuff::`scalar deleting destructor', COMDAT
; _this$ = ecx
  00000	55		 push	 ebp
  00001	8b ec		 mov	 ebp, esp
  00003	56		 push	 esi
  00004	8b f1		 mov	 esi, ecx
  00006	c7 06 00 00 00
	00		 mov	 DWORD PTR [esi], OFFSET ??_7ioGaugeStealBuff@@6B@
  0000c	e8 00 00 00 00	 call	 ??1ioBuff@@UAE@XZ	; ioBuff::~ioBuff
  00011	f6 45 08 01	 test	 BYTE PTR ___flags$[ebp], 1
  00015	74 07		 je	 SHORT $LN1@scalar
  00017	56		 push	 esi
  00018	e8 00 00 00 00	 call	 ??3@YAXPAX@Z		; operator delete
  0001d	59		 pop	 ecx
$LN1@scalar:
  0001e	8b c6		 mov	 eax, esi
  00020	5e		 pop	 esi
  00021	5d		 pop	 ebp
  00022	c2 04 00	 ret	 4
??_GioGaugeStealBuff@@UAEPAXI@Z ENDP			; ioGaugeStealBuff::`scalar deleting destructor'
_TEXT	ENDS
PUBLIC	__$ArrayPad$
PUBLIC	??$LoadFloat_e@$0L@@ioINILoader@@QAEMAAY0L@$$CBDM@Z ; ioINILoader::LoadFloat_e<11>
EXTRN	__imp_?LoadFloat@ioINILoader@@QAEMPBDM@Z:PROC
EXTRN	___security_cookie:DWORD
; Function compile flags: /Ogsp
; File d:\lost saga for developer\youtube\tutorial\source\src\io3dengine\ioiniloader.h
;	COMDAT ??$LoadFloat_e@$0L@@ioINILoader@@QAEMAAY0L@$$CBDM@Z
_TEXT	SEGMENT
__k$ = -20						; size = 11
__$ArrayPad$ = -4					; size = 4
_k$ = 8							; size = 4
_f$ = 12						; size = 4
??$LoadFloat_e@$0L@@ioINILoader@@QAEMAAY0L@$$CBDM@Z PROC ; ioINILoader::LoadFloat_e<11>, COMDAT
; _this$ = ecx

; 135  : 	{

  00000	55		 push	 ebp
  00001	8b ec		 mov	 ebp, esp
  00003	83 ec 14	 sub	 esp, 20			; 00000014H
  00006	a1 00 00 00 00	 mov	 eax, DWORD PTR ___security_cookie
  0000b	33 c5		 xor	 eax, ebp
  0000d	89 45 fc	 mov	 DWORD PTR __$ArrayPad$[ebp], eax
  00010	8b 45 08	 mov	 eax, DWORD PTR _k$[ebp]

; 136  : 		_ENCSTR(k, _k);

  00013	8a 10		 mov	 dl, BYTE PTR [eax]
  00015	56		 push	 esi
  00016	8b f1		 mov	 esi, ecx
  00018	84 d2		 test	 dl, dl
  0001a	0f 84 24 01 00
	00		 je	 $LN96@LoadFloat_
  00020	80 f2 ed	 xor	 dl, -19			; ffffffedH
  00023	88 55 ec	 mov	 BYTE PTR __k$[ebp], dl
  00026	8a 50 01	 mov	 dl, BYTE PTR [eax+1]
  00029	84 d2		 test	 dl, dl
  0002b	0f 84 0d 01 00
	00		 je	 $LN95@LoadFloat_
  00031	80 f2 ec	 xor	 dl, -20			; ffffffecH
  00034	88 55 ed	 mov	 BYTE PTR __k$[ebp+1], dl
  00037	8a 50 02	 mov	 dl, BYTE PTR [eax+2]
  0003a	84 d2		 test	 dl, dl
  0003c	0f 84 f6 00 00
	00		 je	 $LN94@LoadFloat_
  00042	80 f2 eb	 xor	 dl, -21			; ffffffebH
  00045	88 55 ee	 mov	 BYTE PTR __k$[ebp+2], dl
  00048	8a 50 03	 mov	 dl, BYTE PTR [eax+3]
  0004b	84 d2		 test	 dl, dl
  0004d	0f 84 df 00 00
	00		 je	 $LN93@LoadFloat_
  00053	80 f2 ea	 xor	 dl, -22			; ffffffeaH
  00056	88 55 ef	 mov	 BYTE PTR __k$[ebp+3], dl
  00059	8a 50 04	 mov	 dl, BYTE PTR [eax+4]
  0005c	84 d2		 test	 dl, dl
  0005e	0f 84 c8 00 00
	00		 je	 $LN92@LoadFloat_
  00064	80 f2 ed	 xor	 dl, -19			; ffffffedH
  00067	88 55 f0	 mov	 BYTE PTR __k$[ebp+4], dl
  0006a	8a 50 05	 mov	 dl, BYTE PTR [eax+5]
  0006d	84 d2		 test	 dl, dl
  0006f	0f 84 b1 00 00
	00		 je	 $LN91@LoadFloat_
  00075	80 f2 ec	 xor	 dl, -20			; ffffffecH
  00078	88 55 f1	 mov	 BYTE PTR __k$[ebp+5], dl
  0007b	8a 50 06	 mov	 dl, BYTE PTR [eax+6]
  0007e	84 d2		 test	 dl, dl
  00080	0f 84 9a 00 00
	00		 je	 $LN90@LoadFloat_
  00086	80 f2 eb	 xor	 dl, -21			; ffffffebH
  00089	88 55 f2	 mov	 BYTE PTR __k$[ebp+6], dl
  0008c	8a 50 07	 mov	 dl, BYTE PTR [eax+7]
  0008f	84 d2		 test	 dl, dl
  00091	0f 84 83 00 00
	00		 je	 $LN89@LoadFloat_
  00097	80 f2 ea	 xor	 dl, -22			; ffffffeaH
  0009a	88 55 f3	 mov	 BYTE PTR __k$[ebp+7], dl
  0009d	8a 50 08	 mov	 dl, BYTE PTR [eax+8]
  000a0	84 d2		 test	 dl, dl
  000a2	74 70		 je	 SHORT $LN88@LoadFloat_
  000a4	80 f2 ed	 xor	 dl, -19			; ffffffedH
  000a7	88 55 f4	 mov	 BYTE PTR __k$[ebp+8], dl
  000aa	8a 50 09	 mov	 dl, BYTE PTR [eax+9]
  000ad	84 d2		 test	 dl, dl
  000af	74 5d		 je	 SHORT $LN87@LoadFloat_
  000b1	80 f2 ec	 xor	 dl, -20			; ffffffecH
  000b4	80 78 0a 00	 cmp	 BYTE PTR [eax+10], 0
  000b8	88 55 f5	 mov	 BYTE PTR __k$[ebp+9], dl
  000bb	0f 84 87 00 00
	00		 je	 $LN1@LoadFloat_
  000c1	8a 50 0b	 mov	 dl, BYTE PTR [eax+11]
  000c4	84 d2		 test	 dl, dl
  000c6	74 40		 je	 SHORT $LN85@LoadFloat_
  000c8	80 f2 ea	 xor	 dl, -22			; ffffffeaH
  000cb	88 55 f7	 mov	 BYTE PTR __k$[ebp+11], dl
  000ce	8a 50 0c	 mov	 dl, BYTE PTR [eax+12]
  000d1	84 d2		 test	 dl, dl
  000d3	74 2d		 je	 SHORT $LN84@LoadFloat_
  000d5	80 f2 ed	 xor	 dl, -19			; ffffffedH
  000d8	88 55 f8	 mov	 BYTE PTR __k$[ebp+12], dl
  000db	8a 50 0d	 mov	 dl, BYTE PTR [eax+13]
  000de	84 d2		 test	 dl, dl
  000e0	74 1a		 je	 SHORT $LN83@LoadFloat_
  000e2	8a 40 0e	 mov	 al, BYTE PTR [eax+14]
  000e5	80 f2 ec	 xor	 dl, -20			; ffffffecH
  000e8	88 55 f9	 mov	 BYTE PTR __k$[ebp+13], dl
  000eb	84 c0		 test	 al, al
  000ed	74 07		 je	 SHORT $LN82@LoadFloat_
  000ef	34 eb		 xor	 al, -21			; ffffffebH
  000f1	88 45 fa	 mov	 BYTE PTR __k$[ebp+14], al
  000f4	eb 52		 jmp	 SHORT $LN1@LoadFloat_
$LN82@LoadFloat_:
  000f6	c6 45 fa eb	 mov	 BYTE PTR __k$[ebp+14], -21 ; ffffffebH
  000fa	eb 4c		 jmp	 SHORT $LN1@LoadFloat_
$LN83@LoadFloat_:
  000fc	c6 45 f9 ec	 mov	 BYTE PTR __k$[ebp+13], -20 ; ffffffecH
  00100	eb 46		 jmp	 SHORT $LN1@LoadFloat_
$LN84@LoadFloat_:
  00102	c6 45 f8 ed	 mov	 BYTE PTR __k$[ebp+12], -19 ; ffffffedH
  00106	eb 40		 jmp	 SHORT $LN1@LoadFloat_
$LN85@LoadFloat_:
  00108	c6 45 f7 ea	 mov	 BYTE PTR __k$[ebp+11], -22 ; ffffffeaH
  0010c	eb 3a		 jmp	 SHORT $LN1@LoadFloat_
$LN87@LoadFloat_:
  0010e	c6 45 f5 ec	 mov	 BYTE PTR __k$[ebp+9], -20 ; ffffffecH
  00112	eb 34		 jmp	 SHORT $LN1@LoadFloat_
$LN88@LoadFloat_:
  00114	c6 45 f4 ed	 mov	 BYTE PTR __k$[ebp+8], -19 ; ffffffedH
  00118	eb 2e		 jmp	 SHORT $LN1@LoadFloat_
$LN89@LoadFloat_:
  0011a	c6 45 f3 ea	 mov	 BYTE PTR __k$[ebp+7], -22 ; ffffffeaH
  0011e	eb 28		 jmp	 SHORT $LN1@LoadFloat_
$LN90@LoadFloat_:
  00120	c6 45 f2 eb	 mov	 BYTE PTR __k$[ebp+6], -21 ; ffffffebH
  00124	eb 22		 jmp	 SHORT $LN1@LoadFloat_
$LN91@LoadFloat_:
  00126	c6 45 f1 ec	 mov	 BYTE PTR __k$[ebp+5], -20 ; ffffffecH
  0012a	eb 1c		 jmp	 SHORT $LN1@LoadFloat_
$LN92@LoadFloat_:
  0012c	c6 45 f0 ed	 mov	 BYTE PTR __k$[ebp+4], -19 ; ffffffedH
  00130	eb 16		 jmp	 SHORT $LN1@LoadFloat_
$LN93@LoadFloat_:
  00132	c6 45 ef ea	 mov	 BYTE PTR __k$[ebp+3], -22 ; ffffffeaH
  00136	eb 10		 jmp	 SHORT $LN1@LoadFloat_
$LN94@LoadFloat_:
  00138	c6 45 ee eb	 mov	 BYTE PTR __k$[ebp+2], -21 ; ffffffebH
  0013c	eb 0a		 jmp	 SHORT $LN1@LoadFloat_
$LN95@LoadFloat_:
  0013e	c6 45 ed ec	 mov	 BYTE PTR __k$[ebp+1], -20 ; ffffffecH
  00142	eb 04		 jmp	 SHORT $LN1@LoadFloat_
$LN96@LoadFloat_:
  00144	c6 45 ec ed	 mov	 BYTE PTR __k$[ebp], -19	; ffffffedH
$LN1@LoadFloat_:
  00148	6a 02		 push	 2
  0014a	8d 45 ec	 lea	 eax, DWORD PTR __k$[ebp]
  0014d	c6 45 f6 00	 mov	 BYTE PTR __k$[ebp+10], 0
  00151	5a		 pop	 edx
$LL104@LoadFloat_:
  00152	81 30 ed ec eb
	ea		 xor	 DWORD PTR [eax], -353637139 ; eaebecedH
  00158	83 c0 04	 add	 eax, 4
  0015b	4a		 dec	 edx
  0015c	75 f4		 jne	 SHORT $LL104@LoadFloat_
  0015e	6a 08		 push	 8
  00160	58		 pop	 eax
$LL101@LoadFloat_:
  00161	8b c8		 mov	 ecx, eax
  00163	81 e1 03 00 00
	80		 and	 ecx, -2147483645	; 80000003H
  00169	79 05		 jns	 SHORT $LN111@LoadFloat_
  0016b	49		 dec	 ecx
  0016c	83 c9 fc	 or	 ecx, -4			; fffffffcH
  0016f	41		 inc	 ecx
$LN111@LoadFloat_:
  00170	b2 ed		 mov	 dl, -19			; ffffffedH
  00172	2a d1		 sub	 dl, cl
  00174	30 54 05 ec	 xor	 BYTE PTR __k$[ebp+eax], dl
  00178	40		 inc	 eax
  00179	83 f8 0a	 cmp	 eax, 10			; 0000000aH
  0017c	7c e3		 jl	 SHORT $LL101@LoadFloat_

; 137  : 		return LoadFloat(_k, f);

  0017e	f3 0f 10 45 0c	 movss	 xmm0, DWORD PTR _f$[ebp]
  00183	51		 push	 ecx
  00184	8d 45 ec	 lea	 eax, DWORD PTR __k$[ebp]
  00187	f3 0f 11 04 24	 movss	 DWORD PTR [esp], xmm0
  0018c	50		 push	 eax
  0018d	8b ce		 mov	 ecx, esi
  0018f	ff 15 00 00 00
	00		 call	 DWORD PTR __imp_?LoadFloat@ioINILoader@@QAEMPBDM@Z

; 138  : 	}

  00195	8b 4d fc	 mov	 ecx, DWORD PTR __$ArrayPad$[ebp]
  00198	33 cd		 xor	 ecx, ebp
  0019a	5e		 pop	 esi
  0019b	e8 00 00 00 00	 call	 @__security_check_cookie@4
  001a0	c9		 leave
  001a1	c2 08 00	 ret	 8
??$LoadFloat_e@$0L@@ioINILoader@@QAEMAAY0L@$$CBDM@Z ENDP ; ioINILoader::LoadFloat_e<11>
_TEXT	ENDS
PUBLIC	??B?$CEncrypt@M@@QBEMXZ				; CEncrypt<float>::operator float
; Function compile flags: /Ogsp
; File d:\lost saga for developer\youtube\tutorial\source\src\lsclient\encryptvalue.h
;	COMDAT ??B?$CEncrypt@M@@QBEMXZ
_TEXT	SEGMENT
_value$ = -4						; size = 4
??B?$CEncrypt@M@@QBEMXZ PROC				; CEncrypt<float>::operator float, COMDAT
; _this$ = ecx

; 145  : 	{

  00000	55		 push	 ebp
  00001	8b ec		 mov	 ebp, esp
  00003	51		 push	 ecx

; 146  : 		//UJ 130829, const도 똑같이 하면 된다 --start
; 147  : 		type value;
; 148  : 		CEncrypt<type>* pThis = const_cast<CEncrypt<type>*>(this);
; 149  : 		pThis->DecryptValueToPool(&value);

  00004	8d 45 fc	 lea	 eax, DWORD PTR _value$[ebp]
  00007	50		 push	 eax
  00008	e8 00 00 00 00	 call	 ?DecryptValueToPool@?$CEncrypt@M@@QAEXPAM@Z ; CEncrypt<float>::DecryptValueToPool

; 150  : 		//// const에서 DecryptValueToPool 사용할 수 없으므로 아래와 같이함.
; 151  :  		//type value;
; 152  : 		//char szTempMem[MAX_ENCRYPT];
; 153  : 		//m_RC5.DecryptByte( m_MemPool, szTempMem, max(m_ValueSize, DEFAULT_ENCRYPT) );
; 154  : 		//memcpy( &value, szTempMem, m_ValueSize );
; 155  : 		//UJ --end
; 156  : 
; 157  : #ifdef _NOTUSE
; 158  : 		Debug();
; 159  : #endif
; 160  : 		return value;

  0000d	d9 45 fc	 fld	 DWORD PTR _value$[ebp]

; 161  : 	}

  00010	c9		 leave
  00011	c3		 ret	 0
??B?$CEncrypt@M@@QBEMXZ ENDP				; CEncrypt<float>::operator float
_TEXT	ENDS
PUBLIC	__real@4f800000
PUBLIC	__$ArrayPad$
EXTRN	?LoadProperty@ioBuff@@UAEXAAVioINILoader@@@Z:PROC ; ioBuff::LoadProperty
;	COMDAT __real@4f800000
; File d:\lost saga for developer\youtube\tutorial\source\src\lsclient\stringprotect.h
CONST	SEGMENT
__real@4f800000 DD 04f800000r			; 4.29497e+009
; Function compile flags: /Ogsp
; File d:\lost saga for developer\youtube\tutorial\source\src\lsclient\iogaugestealbuff.cpp
CONST	ENDS
;	COMDAT ?LoadProperty@ioGaugeStealBuff@@UAEXAAVioINILoader@@@Z
_TEXT	SEGMENT
tv989 = -24						; size = 4
__k$524379 = -20					; size = 11
__$ArrayPad$ = -4					; size = 4
_rkLoader$ = 8						; size = 4
?LoadProperty@ioGaugeStealBuff@@UAEXAAVioINILoader@@@Z PROC ; ioGaugeStealBuff::LoadProperty, COMDAT
; _this$ = ecx

; 23   : {

  00000	55		 push	 ebp
  00001	8b ec		 mov	 ebp, esp
  00003	83 ec 18	 sub	 esp, 24			; 00000018H
  00006	a1 00 00 00 00	 mov	 eax, DWORD PTR ___security_cookie
  0000b	33 c5		 xor	 eax, ebp
  0000d	89 45 fc	 mov	 DWORD PTR __$ArrayPad$[ebp], eax
  00010	53		 push	 ebx
  00011	56		 push	 esi
  00012	8b 75 08	 mov	 esi, DWORD PTR _rkLoader$[ebp]
  00015	57		 push	 edi

; 24   : 	ioBuff::LoadProperty( rkLoader );

  00016	56		 push	 esi
  00017	8b f9		 mov	 edi, ecx
  00019	e8 00 00 00 00	 call	 ?LoadProperty@ioBuff@@UAEXAAVioINILoader@@@Z ; ioBuff::LoadProperty

; 25   : 
; 26   : 	m_fStealRate = rkLoader.LoadFloat_e( "steal_rate", FLOAT1 );

  0001e	b8 01 00 00 00	 mov	 eax, 1
  00023	6a 02		 push	 2
  00025	c7 45 ec 9e 98
	8e 8b		 mov	 DWORD PTR __k$524379[ebp], -1953589090 ; 8b8e989eH
  0002c	c7 45 f0 81 b3
	99 8b		 mov	 DWORD PTR __k$524379[ebp+4], -1952861311 ; 8b99b381H
  00033	66 c7 45 f4 99
	89		 mov	 WORD PTR __k$524379[ebp+8], 35225 ; 00008999H
  00039	8d 4d ec	 lea	 ecx, DWORD PTR __k$524379[ebp]
  0003c	c6 45 f6 00	 mov	 BYTE PTR __k$524379[ebp+10], 0
  00040	5a		 pop	 edx
$LL108@LoadProper:
  00041	81 31 ed ec eb
	ea		 xor	 DWORD PTR [ecx], -353637139 ; eaebecedH
  00047	83 c1 04	 add	 ecx, 4
  0004a	4a		 dec	 edx
  0004b	75 f4		 jne	 SHORT $LL108@LoadProper
  0004d	6a 08		 push	 8
  0004f	59		 pop	 ecx
$LL105@LoadProper:
  00050	8b d1		 mov	 edx, ecx
  00052	81 e2 03 00 00
	80		 and	 edx, -2147483645	; 80000003H
  00058	79 05		 jns	 SHORT $LN115@LoadProper
  0005a	4a		 dec	 edx
  0005b	83 ca fc	 or	 edx, -4			; fffffffcH
  0005e	42		 inc	 edx
$LN115@LoadProper:
  0005f	b3 ed		 mov	 bl, -19			; ffffffedH
  00061	2a da		 sub	 bl, dl
  00063	30 5c 0d ec	 xor	 BYTE PTR __k$524379[ebp+ecx], bl
  00067	41		 inc	 ecx
  00068	83 f9 0a	 cmp	 ecx, 10			; 0000000aH
  0006b	7c e3		 jl	 SHORT $LL105@LoadProper
  0006d	89 45 e8	 mov	 DWORD PTR tv989[ebp], eax
  00070	db 45 e8	 fild	 DWORD PTR tv989[ebp]
  00073	85 c0		 test	 eax, eax
  00075	79 06		 jns	 SHORT $LN116@LoadProper
  00077	d8 05 00 00 00
	00		 fadd	 DWORD PTR __real@4f800000
$LN116@LoadProper:
  0007d	51		 push	 ecx
  0007e	8d 45 ec	 lea	 eax, DWORD PTR __k$524379[ebp]
  00081	d9 1c 24	 fstp	 DWORD PTR [esp]
  00084	50		 push	 eax
  00085	8b ce		 mov	 ecx, esi
  00087	ff 15 00 00 00
	00		 call	 DWORD PTR __imp_?LoadFloat@ioINILoader@@QAEMPBDM@Z
  0008d	d9 9f 6c 09 00
	00		 fstp	 DWORD PTR [edi+2412]

; 27   : }

  00093	8b 4d fc	 mov	 ecx, DWORD PTR __$ArrayPad$[ebp]
  00096	5f		 pop	 edi
  00097	5e		 pop	 esi
  00098	33 cd		 xor	 ecx, ebp
  0009a	5b		 pop	 ebx
  0009b	e8 00 00 00 00	 call	 @__security_check_cookie@4
  000a0	c9		 leave
  000a1	c2 04 00	 ret	 4
?LoadProperty@ioGaugeStealBuff@@UAEXAAVioINILoader@@@Z ENDP ; ioGaugeStealBuff::LoadProperty
_TEXT	ENDS
PUBLIC	?GetCurSkillGuage@ioItem@@QBEMXZ		; ioItem::GetCurSkillGuage
; Function compile flags: /Ogsp
; File d:\lost saga for developer\youtube\tutorial\source\src\lsclient\ioitem.h
;	COMDAT ?GetCurSkillGuage@ioItem@@QBEMXZ
_TEXT	SEGMENT
_value$524491 = -4					; size = 4
?GetCurSkillGuage@ioItem@@QBEMXZ PROC			; ioItem::GetCurSkillGuage, COMDAT
; _this$ = ecx

; 367  : 	inline float GetCurSkillGuage() const { return m_fCurSkillGauge; }

  00000	55		 push	 ebp
  00001	8b ec		 mov	 ebp, esp
  00003	51		 push	 ecx
  00004	8d 45 fc	 lea	 eax, DWORD PTR _value$524491[ebp]
  00007	50		 push	 eax
  00008	81 c1 f4 03 00
	00		 add	 ecx, 1012		; 000003f4H
  0000e	e8 00 00 00 00	 call	 ?DecryptValueToPool@?$CEncrypt@M@@QAEXPAM@Z ; CEncrypt<float>::DecryptValueToPool
  00013	d9 45 fc	 fld	 DWORD PTR _value$524491[ebp]
  00016	c9		 leave
  00017	c3		 ret	 0
?GetCurSkillGuage@ioItem@@QBEMXZ ENDP			; ioItem::GetCurSkillGuage
_TEXT	ENDS
EXTRN	?GetBaseChar@ioBaseChar@@QAEPAV1@ABVioHashString@@@Z:PROC ; ioBaseChar::GetBaseChar
EXTRN	?GetEquipedItem@ioBaseChar@@QAEPAVioItem@@ABVioHashString@@@Z:PROC ; ioBaseChar::GetEquipedItem
EXTRN	__imp_?infinity@?$numeric_limits@M@std@@SAMXZ:PROC
EXTRN	?SetCurSkillGauge@ioItem@@QAEXM@Z:PROC		; ioItem::SetCurSkillGauge
EXTRN	?GetEquipedItem@ioBaseChar@@QAEPAVioItem@@H@Z:PROC ; ioBaseChar::GetEquipedItem
EXTRN	?StartBuff@ioBuff@@UAEXPAVioBaseChar@@@Z:PROC	; ioBuff::StartBuff
; Function compile flags: /Ogsp
; File d:\lost saga for developer\youtube\tutorial\source\src\lsclient\iogaugestealbuff.cpp
;	COMDAT ?StartBuff@ioGaugeStealBuff@@UAEXPAVioBaseChar@@@Z
_TEXT	SEGMENT
_value$524517 = -20					; size = 4
_pOwnerItem$ = -16					; size = 4
_value$524505 = -12					; size = 4
_pGoalItem$ = -12					; size = 4
_fCurWorst$ = -8					; size = 4
_fCurBest$ = -4						; size = 4
_pTargetItem$ = 8					; size = 4
_iSlot$ = 8						; size = 4
_pOwner$ = 8						; size = 4
?StartBuff@ioGaugeStealBuff@@UAEXPAVioBaseChar@@@Z PROC	; ioGaugeStealBuff::StartBuff, COMDAT
; _this$ = ecx

; 35   : {

  00000	55		 push	 ebp
  00001	8b ec		 mov	 ebp, esp
  00003	83 ec 14	 sub	 esp, 20			; 00000014H
  00006	53		 push	 ebx
  00007	56		 push	 esi
  00008	57		 push	 edi

; 36   : 	ioBuff::StartBuff( pOwner );

  00009	ff 75 08	 push	 DWORD PTR _pOwner$[ebp]
  0000c	8b f1		 mov	 esi, ecx
  0000e	e8 00 00 00 00	 call	 ?StartBuff@ioBuff@@UAEXPAVioBaseChar@@@Z ; ioBuff::StartBuff

; 37   : 
; 38   : 	SetBuffDuration( 0 );

  00013	33 db		 xor	 ebx, ebx
  00015	53		 push	 ebx
  00016	8b ce		 mov	 ecx, esi
  00018	e8 00 00 00 00	 call	 ?SetBuffDuration@ioBuff@@IAEXK@Z ; ioBuff::SetBuffDuration

; 39   : 
; 40   : 	int iSlot = 0;
; 41   : 	float fCurBest = 0.0f;

  0001d	0f 57 c0	 xorps	 xmm0, xmm0
  00020	f3 0f 11 45 fc	 movss	 DWORD PTR _fCurBest$[ebp], xmm0

; 42   : 	ioItem *pTargetItem = NULL;

  00025	89 5d 08	 mov	 DWORD PTR _pTargetItem$[ebp], ebx
$LL14@StartBuff:

; 44   : 	{
; 45   : 		ioItem *pItem = m_pOwner->GetEquipedItem( iSlot );

  00028	8b 8e 74 02 00
	00		 mov	 ecx, DWORD PTR [esi+628]
  0002e	53		 push	 ebx
  0002f	e8 00 00 00 00	 call	 ?GetEquipedItem@ioBaseChar@@QAEPAVioItem@@H@Z ; ioBaseChar::GetEquipedItem
  00034	8b f8		 mov	 edi, eax

; 46   : 		if( !pItem ) continue;

  00036	85 ff		 test	 edi, edi
  00038	74 2d		 je	 SHORT $LN13@StartBuff

; 47   : 
; 48   : 		float fCurGauge = pItem->GetCurSkillGuage();

  0003a	8d 45 f4	 lea	 eax, DWORD PTR _value$524505[ebp]
  0003d	50		 push	 eax
  0003e	8d 8f f4 03 00
	00		 lea	 ecx, DWORD PTR [edi+1012]
  00044	e8 00 00 00 00	 call	 ?DecryptValueToPool@?$CEncrypt@M@@QAEXPAM@Z ; CEncrypt<float>::DecryptValueToPool

; 49   : 		if( fCurGauge > fCurBest )

  00049	f3 0f 10 45 f4	 movss	 xmm0, DWORD PTR _value$524505[ebp]
  0004e	f3 0f 10 55 fc	 movss	 xmm2, DWORD PTR _fCurBest$[ebp]
  00053	0f 5a c8	 cvtps2pd xmm1, xmm0
  00056	0f 5a d2	 cvtps2pd xmm2, xmm2
  00059	66 0f 2f ca	 comisd	 xmm1, xmm2
  0005d	76 08		 jbe	 SHORT $LN13@StartBuff

; 50   : 		{
; 51   : 			fCurBest = fCurGauge;

  0005f	f3 0f 11 45 fc	 movss	 DWORD PTR _fCurBest$[ebp], xmm0

; 52   : 			pTargetItem = pItem;

  00064	89 7d 08	 mov	 DWORD PTR _pTargetItem$[ebp], edi
$LN13@StartBuff:

; 43   : 	for( iSlot=0; iSlot < 4; ++iSlot )

  00067	43		 inc	 ebx
  00068	83 fb 04	 cmp	 ebx, 4
  0006b	7c bb		 jl	 SHORT $LL14@StartBuff

; 53   : 		}
; 54   : 	}
; 55   : 
; 56   : 	if( pTargetItem )

  0006d	8b 4d 08	 mov	 ecx, DWORD PTR _pTargetItem$[ebp]
  00070	85 c9		 test	 ecx, ecx
  00072	74 0e		 je	 SHORT $LN9@StartBuff

; 57   : 		pTargetItem->SetCurSkillGauge( 0.0f );

  00074	0f 57 c0	 xorps	 xmm0, xmm0
  00077	51		 push	 ecx
  00078	f3 0f 11 04 24	 movss	 DWORD PTR [esp], xmm0
  0007d	e8 00 00 00 00	 call	 ?SetCurSkillGauge@ioItem@@QAEXM@Z ; ioItem::SetCurSkillGauge
$LN9@StartBuff:

; 58   : 
; 59   : 	float fCurWorst = std::numeric_limits<float>::infinity();

  00082	ff 15 00 00 00
	00		 call	 DWORD PTR __imp_?infinity@?$numeric_limits@M@std@@SAMXZ
  00088	d9 5d f8	 fstp	 DWORD PTR _fCurWorst$[ebp]

; 60   : 	ioItem *pGoalItem = NULL;
; 61   : 
; 62   : 	ioItem *pOwnerItem = m_pOwner->GetEquipedItem( m_ItemName );

  0008b	8b 8e 74 02 00
	00		 mov	 ecx, DWORD PTR [esi+628]
  00091	83 65 f4 00	 and	 DWORD PTR _pGoalItem$[ebp], 0
  00095	8d 86 44 02 00
	00		 lea	 eax, DWORD PTR [esi+580]
  0009b	50		 push	 eax
  0009c	e8 00 00 00 00	 call	 ?GetEquipedItem@ioBaseChar@@QAEPAVioItem@@ABVioHashString@@@Z ; ioBaseChar::GetEquipedItem

; 63   : 	for( iSlot=0; iSlot < 4; ++iSlot )

  000a1	83 65 08 00	 and	 DWORD PTR _iSlot$[ebp], 0
  000a5	89 45 f0	 mov	 DWORD PTR _pOwnerItem$[ebp], eax
  000a8	8d 9e 88 02 00
	00		 lea	 ebx, DWORD PTR [esi+648]
$LL8@StartBuff:

; 64   : 	{
; 65   : 		ioItem *pItem = NULL;
; 66   : 		ioBaseChar *pCreator = m_pOwner->GetBaseChar( m_CreateChar );

  000ae	8b 8e 74 02 00
	00		 mov	 ecx, DWORD PTR [esi+628]
  000b4	53		 push	 ebx
  000b5	e8 00 00 00 00	 call	 ?GetBaseChar@ioBaseChar@@QAEPAV1@ABVioHashString@@@Z ; ioBaseChar::GetBaseChar

; 67   : 		if( pCreator )

  000ba	85 c0		 test	 eax, eax
  000bc	74 42		 je	 SHORT $LN7@StartBuff

; 68   : 			pItem = pCreator->GetEquipedItem( iSlot );

  000be	ff 75 08	 push	 DWORD PTR _iSlot$[ebp]
  000c1	8b c8		 mov	 ecx, eax
  000c3	e8 00 00 00 00	 call	 ?GetEquipedItem@ioBaseChar@@QAEPAVioItem@@H@Z ; ioBaseChar::GetEquipedItem
  000c8	8b f8		 mov	 edi, eax

; 69   : 
; 70   : 		if( !pItem ) continue;

  000ca	85 ff		 test	 edi, edi
  000cc	74 32		 je	 SHORT $LN7@StartBuff

; 71   : 		//if( pItem == m_pOwnerItem ) continue;
; 72   : 		if( pItem == pOwnerItem ) continue;

  000ce	3b 7d f0	 cmp	 edi, DWORD PTR _pOwnerItem$[ebp]
  000d1	74 2d		 je	 SHORT $LN7@StartBuff

; 73   : 
; 74   : 		float fCurGauge = pItem->GetCurSkillGuage();

  000d3	8d 45 ec	 lea	 eax, DWORD PTR _value$524517[ebp]
  000d6	50		 push	 eax
  000d7	8d 8f f4 03 00
	00		 lea	 ecx, DWORD PTR [edi+1012]
  000dd	e8 00 00 00 00	 call	 ?DecryptValueToPool@?$CEncrypt@M@@QAEXPAM@Z ; CEncrypt<float>::DecryptValueToPool

; 75   : 		if( fCurGauge < fCurWorst )

  000e2	f3 0f 10 45 ec	 movss	 xmm0, DWORD PTR _value$524517[ebp]
  000e7	f3 0f 10 55 f8	 movss	 xmm2, DWORD PTR _fCurWorst$[ebp]
  000ec	0f 5a c8	 cvtps2pd xmm1, xmm0
  000ef	0f 5a d2	 cvtps2pd xmm2, xmm2
  000f2	66 0f 2f d1	 comisd	 xmm2, xmm1
  000f6	76 08		 jbe	 SHORT $LN7@StartBuff

; 76   : 		{
; 77   : 			fCurWorst = fCurGauge;

  000f8	f3 0f 11 45 f8	 movss	 DWORD PTR _fCurWorst$[ebp], xmm0

; 78   : 			pGoalItem = pItem;

  000fd	89 7d f4	 mov	 DWORD PTR _pGoalItem$[ebp], edi
$LN7@StartBuff:

; 63   : 	for( iSlot=0; iSlot < 4; ++iSlot )

  00100	ff 45 08	 inc	 DWORD PTR _iSlot$[ebp]
  00103	83 7d 08 04	 cmp	 DWORD PTR _iSlot$[ebp], 4
  00107	7c a5		 jl	 SHORT $LL8@StartBuff

; 79   : 		}
; 80   : 	}
; 81   : 
; 82   : 	if( pGoalItem )

  00109	8b 4d f4	 mov	 ecx, DWORD PTR _pGoalItem$[ebp]
  0010c	85 c9		 test	 ecx, ecx
  0010e	74 3a		 je	 SHORT $LN1@StartBuff

; 83   : 	{
; 84   : 		float fStealGauge = fCurBest * m_fStealRate;
; 85   : 		pGoalItem->SetCurSkillGauge( fCurWorst + fStealGauge );

  00110	f3 0f 10 4d fc	 movss	 xmm1, DWORD PTR _fCurBest$[ebp]
  00115	f3 0f 10 86 6c
	09 00 00	 movss	 xmm0, DWORD PTR [esi+2412]
  0011d	0f 5a c0	 cvtps2pd xmm0, xmm0
  00120	0f 5a c9	 cvtps2pd xmm1, xmm1
  00123	f2 0f 59 c1	 mulsd	 xmm0, xmm1
  00127	f3 0f 10 4d f8	 movss	 xmm1, DWORD PTR _fCurWorst$[ebp]
  0012c	66 0f 5a c0	 cvtpd2ps xmm0, xmm0
  00130	f3 0f 5a c0	 cvtss2sd xmm0, xmm0
  00134	0f 5a c9	 cvtps2pd xmm1, xmm1
  00137	f2 0f 58 c1	 addsd	 xmm0, xmm1
  0013b	51		 push	 ecx
  0013c	66 0f 5a c0	 cvtpd2ps xmm0, xmm0
  00140	f3 0f 11 04 24	 movss	 DWORD PTR [esp], xmm0
  00145	e8 00 00 00 00	 call	 ?SetCurSkillGauge@ioItem@@QAEXM@Z ; ioItem::SetCurSkillGauge
$LN1@StartBuff:
  0014a	5f		 pop	 edi
  0014b	5e		 pop	 esi
  0014c	5b		 pop	 ebx

; 86   : 	}
; 87   : }

  0014d	c9		 leave
  0014e	c2 04 00	 ret	 4
?StartBuff@ioGaugeStealBuff@@UAEXPAVioBaseChar@@@Z ENDP	; ioGaugeStealBuff::StartBuff
_TEXT	ENDS
END
