; Listing generated by Microsoft (R) Optimizing Compiler Version 16.00.30319.01 

	TITLE	D:\Lost Saga For Developer\Youtube\Tutorial\Source\src\LSClient\ioGameEntity.cpp
	.686P
	.XMM
	include listing.inc
	.model	flat

INCLUDELIB MSVCRT
INCLUDELIB OLDNAMES

PUBLIC	?IsNeedCheckMapCollision@ioGameEntity@@UBE_NXZ	; ioGameEntity::IsNeedCheckMapCollision
; Function compile flags: /Ogsp
; File d:\lost saga for developer\youtube\tutorial\source\src\lsclient\iogameentity.cpp
;	COMDAT ?IsNeedCheckMapCollision@ioGameEntity@@UBE_NXZ
_TEXT	SEGMENT
?IsNeedCheckMapCollision@ioGameEntity@@UBE_NXZ PROC	; ioGameEntity::IsNeedCheckMapCollision, COMDAT
; _this$ = ecx

; 75   : 	return false;

  00000	32 c0		 xor	 al, al

; 76   : }

  00002	c3		 ret	 0
?IsNeedCheckMapCollision@ioGameEntity@@UBE_NXZ ENDP	; ioGameEntity::IsNeedCheckMapCollision
_TEXT	ENDS
PUBLIC	?IsMountAvailable@ioGameEntity@@UBE_NXZ		; ioGameEntity::IsMountAvailable
; Function compile flags: /Ogsp
;	COMDAT ?IsMountAvailable@ioGameEntity@@UBE_NXZ
_TEXT	SEGMENT
?IsMountAvailable@ioGameEntity@@UBE_NXZ PROC		; ioGameEntity::IsMountAvailable, COMDAT
; _this$ = ecx

; 80   : 	return false;

  00000	32 c0		 xor	 al, al

; 81   : }

  00002	c3		 ret	 0
?IsMountAvailable@ioGameEntity@@UBE_NXZ ENDP		; ioGameEntity::IsMountAvailable
_TEXT	ENDS
PUBLIC	?IsMountingAvailable@ioGameEntity@@UBE_NXZ	; ioGameEntity::IsMountingAvailable
; Function compile flags: /Ogsp
;	COMDAT ?IsMountingAvailable@ioGameEntity@@UBE_NXZ
_TEXT	SEGMENT
?IsMountingAvailable@ioGameEntity@@UBE_NXZ PROC		; ioGameEntity::IsMountingAvailable, COMDAT
; _this$ = ecx

; 85   : 	return true;

  00000	b0 01		 mov	 al, 1

; 86   : }

  00002	c3		 ret	 0
?IsMountingAvailable@ioGameEntity@@UBE_NXZ ENDP		; ioGameEntity::IsMountingAvailable
_TEXT	ENDS
PUBLIC	?IsNowMountEnable@ioGameEntity@@UBE_NXZ		; ioGameEntity::IsNowMountEnable
; Function compile flags: /Ogsp
;	COMDAT ?IsNowMountEnable@ioGameEntity@@UBE_NXZ
_TEXT	SEGMENT
?IsNowMountEnable@ioGameEntity@@UBE_NXZ PROC		; ioGameEntity::IsNowMountEnable, COMDAT
; _this$ = ecx

; 90   : 	return false;

  00000	32 c0		 xor	 al, al

; 91   : }

  00002	c3		 ret	 0
?IsNowMountEnable@ioGameEntity@@UBE_NXZ ENDP		; ioGameEntity::IsNowMountEnable
_TEXT	ENDS
PUBLIC	?IsAllWeaponDefence@ioGameEntity@@UBE_NXZ	; ioGameEntity::IsAllWeaponDefence
; Function compile flags: /Ogsp
;	COMDAT ?IsAllWeaponDefence@ioGameEntity@@UBE_NXZ
_TEXT	SEGMENT
?IsAllWeaponDefence@ioGameEntity@@UBE_NXZ PROC		; ioGameEntity::IsAllWeaponDefence, COMDAT
; _this$ = ecx

; 95   : 	return false;

  00000	32 c0		 xor	 al, al

; 96   : }

  00002	c3		 ret	 0
?IsAllWeaponDefence@ioGameEntity@@UBE_NXZ ENDP		; ioGameEntity::IsAllWeaponDefence
_TEXT	ENDS
PUBLIC	?return1000@@YAIXZ				; return1000
; Function compile flags: /Ogsp
; File d:\lost saga for developer\youtube\tutorial\source\src\lsclient\stdafx.h
;	COMDAT ?return1000@@YAIXZ
_TEXT	SEGMENT
?return1000@@YAIXZ PROC					; return1000, COMDAT

; 29   : 	__forceinline unsigned int return1000() { __asm mov eax, 1000 };

  00000	b8 e8 03 00 00	 mov	 eax, 1000		; 000003e8H
  00005	c3		 ret	 0
?return1000@@YAIXZ ENDP					; return1000
_TEXT	ENDS
PUBLIC	?SetShadowCastEnable@ioGameEntity@@QAEX_N@Z	; ioGameEntity::SetShadowCastEnable
; Function compile flags: /Ogsp
; File d:\lost saga for developer\youtube\tutorial\source\src\lsclient\iogameentity.cpp
;	COMDAT ?SetShadowCastEnable@ioGameEntity@@QAEX_N@Z
_TEXT	SEGMENT
_bEnable$ = 8						; size = 1
?SetShadowCastEnable@ioGameEntity@@QAEX_N@Z PROC	; ioGameEntity::SetShadowCastEnable, COMDAT
; _this$ = ecx

; 139  : {

  00000	55		 push	 ebp
  00001	8b ec		 mov	 ebp, esp

; 140  : 	m_bShadowCastEnable = bEnable;

  00003	8a 45 08	 mov	 al, BYTE PTR _bEnable$[ebp]
  00006	88 81 8a 00 00
	00		 mov	 BYTE PTR [ecx+138], al

; 141  : }

  0000c	5d		 pop	 ebp
  0000d	c2 04 00	 ret	 4
?SetShadowCastEnable@ioGameEntity@@QAEX_N@Z ENDP	; ioGameEntity::SetShadowCastEnable
_TEXT	ENDS
PUBLIC	?ApplyShadowCast@ioGameEntity@@QAEX_N@Z		; ioGameEntity::ApplyShadowCast
; Function compile flags: /Ogsp
;	COMDAT ?ApplyShadowCast@ioGameEntity@@QAEX_N@Z
_TEXT	SEGMENT
_bApply$ = 8						; size = 1
?ApplyShadowCast@ioGameEntity@@QAEX_N@Z PROC		; ioGameEntity::ApplyShadowCast, COMDAT
; _this$ = ecx

; 144  : {

  00000	55		 push	 ebp
  00001	8b ec		 mov	 ebp, esp

; 145  : 	if( !m_pGroup )	return;

  00003	33 c0		 xor	 eax, eax
  00005	39 41 04	 cmp	 DWORD PTR [ecx+4], eax
  00008	74 22		 je	 SHORT $LN1@ApplyShado

; 146  : 
; 147  : 	if( m_bShadowCastEnable && bApply )

  0000a	38 81 8a 00 00
	00		 cmp	 BYTE PTR [ecx+138], al
  00010	74 11		 je	 SHORT $LN2@ApplyShado
  00012	38 45 08	 cmp	 BYTE PTR _bApply$[ebp], al
  00015	74 0c		 je	 SHORT $LN2@ApplyShado

; 148  : 	{
; 149  : 		m_pGroup->SetShadowCastEnable( true );

  00017	8b 49 04	 mov	 ecx, DWORD PTR [ecx+4]
  0001a	8b 01		 mov	 eax, DWORD PTR [ecx]
  0001c	6a 01		 push	 1
  0001e	ff 50 04	 call	 DWORD PTR [eax+4]

; 150  : 	}
; 151  : 	else

  00021	eb 09		 jmp	 SHORT $LN1@ApplyShado
$LN2@ApplyShado:

; 152  : 	{
; 153  : 		m_pGroup->SetShadowCastEnable( false );

  00023	8b 49 04	 mov	 ecx, DWORD PTR [ecx+4]
  00026	8b 11		 mov	 edx, DWORD PTR [ecx]
  00028	50		 push	 eax
  00029	ff 52 04	 call	 DWORD PTR [edx+4]
$LN1@ApplyShado:

; 154  : 	}
; 155  : }

  0002c	5d		 pop	 ebp
  0002d	c2 04 00	 ret	 4
?ApplyShadowCast@ioGameEntity@@QAEX_N@Z ENDP		; ioGameEntity::ApplyShadowCast
_TEXT	ENDS
PUBLIC	?SetAlphaRateDirect@ioGameEntity@@QAEXH@Z	; ioGameEntity::SetAlphaRateDirect
; Function compile flags: /Ogsp
;	COMDAT ?SetAlphaRateDirect@ioGameEntity@@QAEXH@Z
_TEXT	SEGMENT
_iRate$ = 8						; size = 4
?SetAlphaRateDirect@ioGameEntity@@QAEXH@Z PROC		; ioGameEntity::SetAlphaRateDirect, COMDAT
; _this$ = ecx

; 158  : {

  00000	55		 push	 ebp
  00001	8b ec		 mov	 ebp, esp

; 159  : 	m_iCurAlphaRate = m_iTargetAlphaRate = iRate;

  00003	8b 45 08	 mov	 eax, DWORD PTR _iRate$[ebp]
  00006	89 41 0c	 mov	 DWORD PTR [ecx+12], eax
  00009	89 41 08	 mov	 DWORD PTR [ecx+8], eax

; 160  : 
; 161  : 	if( m_pGroup )

  0000c	8b 49 04	 mov	 ecx, DWORD PTR [ecx+4]
  0000f	85 c9		 test	 ecx, ecx
  00011	74 06		 je	 SHORT $LN1@SetAlphaRa

; 162  : 	{
; 163  : 		m_pGroup->SetAlphaRate( iRate );

  00013	8b 11		 mov	 edx, DWORD PTR [ecx]
  00015	50		 push	 eax
  00016	ff 52 18	 call	 DWORD PTR [edx+24]
$LN1@SetAlphaRa:

; 164  : 	}
; 165  : }

  00019	5d		 pop	 ebp
  0001a	c2 04 00	 ret	 4
?SetAlphaRateDirect@ioGameEntity@@QAEXH@Z ENDP		; ioGameEntity::SetAlphaRateDirect
_TEXT	ENDS
PUBLIC	?SetAttachEffectAlphaRateDirect@ioGameEntity@@QAEXH_N@Z ; ioGameEntity::SetAttachEffectAlphaRateDirect
; Function compile flags: /Ogsp
;	COMDAT ?SetAttachEffectAlphaRateDirect@ioGameEntity@@QAEXH_N@Z
_TEXT	SEGMENT
_iRate$ = 8						; size = 4
_bMinZero$ = 12						; size = 1
?SetAttachEffectAlphaRateDirect@ioGameEntity@@QAEXH_N@Z PROC ; ioGameEntity::SetAttachEffectAlphaRateDirect, COMDAT
; _this$ = ecx

; 168  : {

  00000	55		 push	 ebp
  00001	8b ec		 mov	 ebp, esp

; 169  : 	if( m_pGroup )

  00003	83 79 04 00	 cmp	 DWORD PTR [ecx+4], 0
  00007	74 09		 je	 SHORT $LN1@SetAttachE

; 170  : 	{
; 171  : 		m_pGroup->SetAttachEffectAlphaRate( iRate, bMinZero );

  00009	8b 49 04	 mov	 ecx, DWORD PTR [ecx+4]
  0000c	8b 01		 mov	 eax, DWORD PTR [ecx]

; 172  : 	}
; 173  : }

  0000e	5d		 pop	 ebp

; 170  : 	{
; 171  : 		m_pGroup->SetAttachEffectAlphaRate( iRate, bMinZero );

  0000f	ff 60 60	 jmp	 DWORD PTR [eax+96]
$LN1@SetAttachE:

; 172  : 	}
; 173  : }

  00012	5d		 pop	 ebp
  00013	c2 08 00	 ret	 8
?SetAttachEffectAlphaRateDirect@ioGameEntity@@QAEXH_N@Z ENDP ; ioGameEntity::SetAttachEffectAlphaRateDirect
_TEXT	ENDS
PUBLIC	?SetTargetAlphaRate@ioGameEntity@@QAEXH@Z	; ioGameEntity::SetTargetAlphaRate
; Function compile flags: /Ogsp
;	COMDAT ?SetTargetAlphaRate@ioGameEntity@@QAEXH@Z
_TEXT	SEGMENT
_iTarget$ = 8						; size = 4
?SetTargetAlphaRate@ioGameEntity@@QAEXH@Z PROC		; ioGameEntity::SetTargetAlphaRate, COMDAT
; _this$ = ecx

; 176  : {

  00000	55		 push	 ebp
  00001	8b ec		 mov	 ebp, esp

; 177  : 	m_iTargetAlphaRate = iTarget;

  00003	8b 45 08	 mov	 eax, DWORD PTR _iTarget$[ebp]
  00006	89 41 0c	 mov	 DWORD PTR [ecx+12], eax

; 178  : }

  00009	5d		 pop	 ebp
  0000a	c2 04 00	 ret	 4
?SetTargetAlphaRate@ioGameEntity@@QAEXH@Z ENDP		; ioGameEntity::SetTargetAlphaRate
_TEXT	ENDS
PUBLIC	?HasEntity@ioGameEntity@@UAE_NABVioHashString@@@Z ; ioGameEntity::HasEntity
EXTRN	__imp_?GetEntity@ioEntityGroup@@QAEPAVioEntity@@ABVioHashString@@@Z:PROC
; Function compile flags: /Ogsp
;	COMDAT ?HasEntity@ioGameEntity@@UAE_NABVioHashString@@@Z
_TEXT	SEGMENT
_szMeshName$ = 8					; size = 4
?HasEntity@ioGameEntity@@UAE_NABVioHashString@@@Z PROC	; ioGameEntity::HasEntity, COMDAT
; _this$ = ecx

; 181  : {

  00000	55		 push	 ebp
  00001	8b ec		 mov	 ebp, esp

; 182  : 	if( m_pGroup )

  00003	8b 49 04	 mov	 ecx, DWORD PTR [ecx+4]
  00006	85 c9		 test	 ecx, ecx
  00008	74 11		 je	 SHORT $LN1@HasEntity

; 183  : 	{
; 184  : 		if( m_pGroup->GetEntity( szMeshName ) )

  0000a	ff 75 08	 push	 DWORD PTR _szMeshName$[ebp]
  0000d	ff 15 00 00 00
	00		 call	 DWORD PTR __imp_?GetEntity@ioEntityGroup@@QAEPAVioEntity@@ABVioHashString@@@Z
  00013	85 c0		 test	 eax, eax
  00015	74 04		 je	 SHORT $LN1@HasEntity

; 185  : 			return true;

  00017	b0 01		 mov	 al, 1
  00019	eb 02		 jmp	 SHORT $LN3@HasEntity
$LN1@HasEntity:

; 186  : 	}
; 187  : 
; 188  : 	return false;

  0001b	32 c0		 xor	 al, al
$LN3@HasEntity:

; 189  : }

  0001d	5d		 pop	 ebp
  0001e	c2 04 00	 ret	 4
?HasEntity@ioGameEntity@@UAE_NABVioHashString@@@Z ENDP	; ioGameEntity::HasEntity
_TEXT	ENDS
PUBLIC	?GetEntity@ioGameEntity@@UAEPAVioEntity@@ABVioHashString@@@Z ; ioGameEntity::GetEntity
; Function compile flags: /Ogsp
;	COMDAT ?GetEntity@ioGameEntity@@UAEPAVioEntity@@ABVioHashString@@@Z
_TEXT	SEGMENT
_szMeshName$ = 8					; size = 4
?GetEntity@ioGameEntity@@UAEPAVioEntity@@ABVioHashString@@@Z PROC ; ioGameEntity::GetEntity, COMDAT
; _this$ = ecx

; 192  : {

  00000	55		 push	 ebp
  00001	8b ec		 mov	 ebp, esp

; 193  : 	if( m_pGroup )

  00003	8b 49 04	 mov	 ecx, DWORD PTR [ecx+4]
  00006	85 c9		 test	 ecx, ecx
  00008	74 07		 je	 SHORT $LN1@GetEntity

; 197  : }

  0000a	5d		 pop	 ebp

; 194  : 		return m_pGroup->GetEntity( szMeshName );

  0000b	ff 25 00 00 00
	00		 jmp	 DWORD PTR __imp_?GetEntity@ioEntityGroup@@QAEPAVioEntity@@ABVioHashString@@@Z
$LN1@GetEntity:

; 195  : 	
; 196  : 	return NULL;

  00011	33 c0		 xor	 eax, eax

; 197  : }

  00013	5d		 pop	 ebp
  00014	c2 04 00	 ret	 4
?GetEntity@ioGameEntity@@UAEPAVioEntity@@ABVioHashString@@@Z ENDP ; ioGameEntity::GetEntity
_TEXT	ENDS
PUBLIC	?AddEntity@ioGameEntity@@UAEPAVioEntity@@ABVioHashString@@@Z ; ioGameEntity::AddEntity
EXTRN	__imp_?AddEntity@ioEntityGroup@@QAEPAVioEntity@@ABVioHashString@@_N@Z:PROC
EXTRN	__imp_?IsEmpty@ioHashString@@QBE_NXZ:PROC
; Function compile flags: /Ogsp
;	COMDAT ?AddEntity@ioGameEntity@@UAEPAVioEntity@@ABVioHashString@@@Z
_TEXT	SEGMENT
_szMeshName$ = 8					; size = 4
?AddEntity@ioGameEntity@@UAEPAVioEntity@@ABVioHashString@@@Z PROC ; ioGameEntity::AddEntity, COMDAT
; _this$ = ecx

; 200  : {

  00000	55		 push	 ebp
  00001	8b ec		 mov	 ebp, esp
  00003	56		 push	 esi
  00004	8b f1		 mov	 esi, ecx

; 201  : 	if( m_pGroup && !szMeshName.IsEmpty() )

  00006	83 7e 04 00	 cmp	 DWORD PTR [esi+4], 0
  0000a	74 1d		 je	 SHORT $LN1@AddEntity
  0000c	8b 4d 08	 mov	 ecx, DWORD PTR _szMeshName$[ebp]
  0000f	ff 15 00 00 00
	00		 call	 DWORD PTR __imp_?IsEmpty@ioHashString@@QBE_NXZ
  00015	84 c0		 test	 al, al
  00017	75 10		 jne	 SHORT $LN1@AddEntity

; 202  : 	{
; 203  : 		return m_pGroup->AddEntity( szMeshName );

  00019	8b 4e 04	 mov	 ecx, DWORD PTR [esi+4]
  0001c	6a 00		 push	 0
  0001e	ff 75 08	 push	 DWORD PTR _szMeshName$[ebp]
  00021	ff 15 00 00 00
	00		 call	 DWORD PTR __imp_?AddEntity@ioEntityGroup@@QAEPAVioEntity@@ABVioHashString@@_N@Z
  00027	eb 02		 jmp	 SHORT $LN2@AddEntity
$LN1@AddEntity:

; 204  : 	}
; 205  : 	return NULL;

  00029	33 c0		 xor	 eax, eax
$LN2@AddEntity:
  0002b	5e		 pop	 esi

; 206  : }

  0002c	5d		 pop	 ebp
  0002d	c2 04 00	 ret	 4
?AddEntity@ioGameEntity@@UAEPAVioEntity@@ABVioHashString@@@Z ENDP ; ioGameEntity::AddEntity
_TEXT	ENDS
PUBLIC	?DestroyEntity@ioGameEntity@@UAE_NABVioHashString@@@Z ; ioGameEntity::DestroyEntity
EXTRN	__imp_?DestroyEntity@ioEntityGroup@@QAE_NABVioHashString@@@Z:PROC
; Function compile flags: /Ogsp
;	COMDAT ?DestroyEntity@ioGameEntity@@UAE_NABVioHashString@@@Z
_TEXT	SEGMENT
_szMeshName$ = 8					; size = 4
?DestroyEntity@ioGameEntity@@UAE_NABVioHashString@@@Z PROC ; ioGameEntity::DestroyEntity, COMDAT
; _this$ = ecx

; 209  : {

  00000	55		 push	 ebp
  00001	8b ec		 mov	 ebp, esp
  00003	56		 push	 esi
  00004	8b f1		 mov	 esi, ecx

; 210  : 	if( m_pGroup && !szMeshName.IsEmpty() )

  00006	83 7e 04 00	 cmp	 DWORD PTR [esi+4], 0
  0000a	74 1b		 je	 SHORT $LN1@DestroyEnt
  0000c	8b 4d 08	 mov	 ecx, DWORD PTR _szMeshName$[ebp]
  0000f	ff 15 00 00 00
	00		 call	 DWORD PTR __imp_?IsEmpty@ioHashString@@QBE_NXZ
  00015	84 c0		 test	 al, al
  00017	75 0e		 jne	 SHORT $LN1@DestroyEnt

; 211  : 		return m_pGroup->DestroyEntity( szMeshName );

  00019	ff 75 08	 push	 DWORD PTR _szMeshName$[ebp]
  0001c	8b 4e 04	 mov	 ecx, DWORD PTR [esi+4]
  0001f	ff 15 00 00 00
	00		 call	 DWORD PTR __imp_?DestroyEntity@ioEntityGroup@@QAE_NABVioHashString@@@Z
  00025	eb 02		 jmp	 SHORT $LN2@DestroyEnt
$LN1@DestroyEnt:

; 212  : 
; 213  : 	return false;

  00027	32 c0		 xor	 al, al
$LN2@DestroyEnt:
  00029	5e		 pop	 esi

; 214  : }

  0002a	5d		 pop	 ebp
  0002b	c2 04 00	 ret	 4
?DestroyEntity@ioGameEntity@@UAE_NABVioHashString@@@Z ENDP ; ioGameEntity::DestroyEntity
_TEXT	ENDS
PUBLIC	?MapCollisionPushingTranslate@ioGameEntity@@UAEXABUD3DXVECTOR3@@@Z ; ioGameEntity::MapCollisionPushingTranslate
; Function compile flags: /Ogsp
;	COMDAT ?MapCollisionPushingTranslate@ioGameEntity@@UAEXABUD3DXVECTOR3@@@Z
_TEXT	SEGMENT
_vMoveAmt$ = 8						; size = 4
?MapCollisionPushingTranslate@ioGameEntity@@UAEXABUD3DXVECTOR3@@@Z PROC ; ioGameEntity::MapCollisionPushingTranslate, COMDAT
; _this$ = ecx

; 263  : {

  00000	55		 push	 ebp
  00001	8b ec		 mov	 ebp, esp

; 264  : 	Translate( vMoveAmt );

  00003	8b 01		 mov	 eax, DWORD PTR [ecx]

; 265  : }

  00005	5d		 pop	 ebp

; 264  : 	Translate( vMoveAmt );

  00006	ff 60 50	 jmp	 DWORD PTR [eax+80]
?MapCollisionPushingTranslate@ioGameEntity@@UAEXABUD3DXVECTOR3@@@Z ENDP ; ioGameEntity::MapCollisionPushingTranslate
_TEXT	ENDS
PUBLIC	?DontMoveCollisionPushingTranslate@ioGameEntity@@UAEXPAV1@ABUD3DXVECTOR3@@@Z ; ioGameEntity::DontMoveCollisionPushingTranslate
; Function compile flags: /Ogsp
;	COMDAT ?DontMoveCollisionPushingTranslate@ioGameEntity@@UAEXPAV1@ABUD3DXVECTOR3@@@Z
_TEXT	SEGMENT
_pPusher$ = 8						; size = 4
_vMoveAmt$ = 12						; size = 4
?DontMoveCollisionPushingTranslate@ioGameEntity@@UAEXPAV1@ABUD3DXVECTOR3@@@Z PROC ; ioGameEntity::DontMoveCollisionPushingTranslate, COMDAT
; _this$ = ecx

; 268  : {

  00000	55		 push	 ebp
  00001	8b ec		 mov	 ebp, esp

; 269  : 	Translate( vMoveAmt );

  00003	ff 75 0c	 push	 DWORD PTR _vMoveAmt$[ebp]
  00006	8b 01		 mov	 eax, DWORD PTR [ecx]
  00008	ff 50 50	 call	 DWORD PTR [eax+80]

; 270  : }

  0000b	5d		 pop	 ebp
  0000c	c2 08 00	 ret	 8
?DontMoveCollisionPushingTranslate@ioGameEntity@@UAEXPAV1@ABUD3DXVECTOR3@@@Z ENDP ; ioGameEntity::DontMoveCollisionPushingTranslate
_TEXT	ENDS
PUBLIC	?GetFullTransform@ioGameEntity@@QBEPBUD3DXMATRIX@@XZ ; ioGameEntity::GetFullTransform
; Function compile flags: /Ogsp
;	COMDAT ?GetFullTransform@ioGameEntity@@QBEPBUD3DXMATRIX@@XZ
_TEXT	SEGMENT
?GetFullTransform@ioGameEntity@@QBEPBUD3DXMATRIX@@XZ PROC ; ioGameEntity::GetFullTransform, COMDAT
; _this$ = ecx

; 286  : 	return m_pGroup->GetParentNode()->GetFullTransform();

  00000	8b 49 04	 mov	 ecx, DWORD PTR [ecx+4]
  00003	8b 01		 mov	 eax, DWORD PTR [ecx]
  00005	ff 50 30	 call	 DWORD PTR [eax+48]
  00008	8b 10		 mov	 edx, DWORD PTR [eax]
  0000a	8b c8		 mov	 ecx, eax
  0000c	ff a2 84 00 00
	00		 jmp	 DWORD PTR [edx+132]
?GetFullTransform@ioGameEntity@@QBEPBUD3DXMATRIX@@XZ ENDP ; ioGameEntity::GetFullTransform
_TEXT	ENDS
PUBLIC	?GetWorldPosition@ioGameEntity@@UBEABUD3DXVECTOR3@@XZ ; ioGameEntity::GetWorldPosition
; Function compile flags: /Ogsp
;	COMDAT ?GetWorldPosition@ioGameEntity@@UBEABUD3DXVECTOR3@@XZ
_TEXT	SEGMENT
?GetWorldPosition@ioGameEntity@@UBEABUD3DXVECTOR3@@XZ PROC ; ioGameEntity::GetWorldPosition, COMDAT
; _this$ = ecx

; 291  : #ifdef USE_LAGTEST
; 292  : 	if( m_bIsLatency )
; 293  : 		return GetDelayBox()->WorldPosition;
; 294  : #endif
; 295  : 	return m_pGroup->GetParentNode()->GetDerivedPosition();

  00000	8b 49 04	 mov	 ecx, DWORD PTR [ecx+4]
  00003	8b 01		 mov	 eax, DWORD PTR [ecx]
  00005	ff 50 30	 call	 DWORD PTR [eax+48]
  00008	8b 10		 mov	 edx, DWORD PTR [eax]
  0000a	8b c8		 mov	 ecx, eax
  0000c	ff 62 7c	 jmp	 DWORD PTR [edx+124]
?GetWorldPosition@ioGameEntity@@UBEABUD3DXVECTOR3@@XZ ENDP ; ioGameEntity::GetWorldPosition
_TEXT	ENDS
PUBLIC	?GetWorldOrientation@ioGameEntity@@UBEABUD3DXQUATERNION@@XZ ; ioGameEntity::GetWorldOrientation
; Function compile flags: /Ogsp
;	COMDAT ?GetWorldOrientation@ioGameEntity@@UBEABUD3DXQUATERNION@@XZ
_TEXT	SEGMENT
?GetWorldOrientation@ioGameEntity@@UBEABUD3DXQUATERNION@@XZ PROC ; ioGameEntity::GetWorldOrientation, COMDAT
; _this$ = ecx

; 300  : 	return m_pGroup->GetParentNode()->GetDerivedOrientation();

  00000	8b 49 04	 mov	 ecx, DWORD PTR [ecx+4]
  00003	8b 01		 mov	 eax, DWORD PTR [ecx]
  00005	ff 50 30	 call	 DWORD PTR [eax+48]
  00008	8b 10		 mov	 edx, DWORD PTR [eax]
  0000a	8b c8		 mov	 ecx, eax
  0000c	ff 62 78	 jmp	 DWORD PTR [edx+120]
?GetWorldOrientation@ioGameEntity@@UBEABUD3DXQUATERNION@@XZ ENDP ; ioGameEntity::GetWorldOrientation
_TEXT	ENDS
PUBLIC	?GetWorldScale@ioGameEntity@@UBEABUD3DXVECTOR3@@XZ ; ioGameEntity::GetWorldScale
; Function compile flags: /Ogsp
;	COMDAT ?GetWorldScale@ioGameEntity@@UBEABUD3DXVECTOR3@@XZ
_TEXT	SEGMENT
?GetWorldScale@ioGameEntity@@UBEABUD3DXVECTOR3@@XZ PROC	; ioGameEntity::GetWorldScale, COMDAT
; _this$ = ecx

; 305  : 	return m_pGroup->GetParentNode()->GetDerivedScale();

  00000	8b 49 04	 mov	 ecx, DWORD PTR [ecx+4]
  00003	8b 01		 mov	 eax, DWORD PTR [ecx]
  00005	ff 50 30	 call	 DWORD PTR [eax+48]
  00008	8b 10		 mov	 edx, DWORD PTR [eax]
  0000a	8b c8		 mov	 ecx, eax
  0000c	ff a2 80 00 00
	00		 jmp	 DWORD PTR [edx+128]
?GetWorldScale@ioGameEntity@@UBEABUD3DXVECTOR3@@XZ ENDP	; ioGameEntity::GetWorldScale
_TEXT	ENDS
PUBLIC	?GetWorldCollisionBox@ioGameEntity@@QBEABVioOrientBox@@XZ ; ioGameEntity::GetWorldCollisionBox
; Function compile flags: /Ogsp
;	COMDAT ?GetWorldCollisionBox@ioGameEntity@@QBEABVioOrientBox@@XZ
_TEXT	SEGMENT
?GetWorldCollisionBox@ioGameEntity@@QBEABVioOrientBox@@XZ PROC ; ioGameEntity::GetWorldCollisionBox, COMDAT
; _this$ = ecx

; 309  : {

  00000	56		 push	 esi
  00001	8b f1		 mov	 esi, ecx

; 310  : 	if( m_bNeedUpdateBound )

  00003	80 be 88 00 00
	00 00		 cmp	 BYTE PTR [esi+136], 0
  0000a	57		 push	 edi
  0000b	74 0c		 je	 SHORT $LN1@GetWorldCo

; 311  : 	{
; 312  : 		UpdateBound();

  0000d	8b 06		 mov	 eax, DWORD PTR [esi]
  0000f	ff 50 38	 call	 DWORD PTR [eax+56]

; 313  : 
; 314  : 		m_bNeedUpdateBound = false;

  00012	c6 86 88 00 00
	00 00		 mov	 BYTE PTR [esi+136], 0
$LN1@GetWorldCo:

; 315  : 	}
; 316  : 
; 317  : #ifdef USE_LAGTEST
; 318  : 	if( m_bIsLatency )
; 319  : 		return GetDelayBox()->WorldColBox;
; 320  : #endif
; 321  : 
; 322  : 	return m_WorldColBox;

  00019	5f		 pop	 edi
  0001a	8d 46 10	 lea	 eax, DWORD PTR [esi+16]
  0001d	5e		 pop	 esi

; 323  : }

  0001e	c3		 ret	 0
?GetWorldCollisionBox@ioGameEntity@@QBEABVioOrientBox@@XZ ENDP ; ioGameEntity::GetWorldCollisionBox
_TEXT	ENDS
PUBLIC	?GetCollisionBox@ioGameEntity@@QBEABVioOrientBox@@XZ ; ioGameEntity::GetCollisionBox
EXTRN	__imp_?GetCollisionBox@ioEntityGroup@@QBEABVioOrientBox@@XZ:PROC
; Function compile flags: /Ogsp
;	COMDAT ?GetCollisionBox@ioGameEntity@@QBEABVioOrientBox@@XZ
_TEXT	SEGMENT
?GetCollisionBox@ioGameEntity@@QBEABVioOrientBox@@XZ PROC ; ioGameEntity::GetCollisionBox, COMDAT
; _this$ = ecx

; 327  : 	return m_pGroup->GetCollisionBox();

  00000	8b 49 04	 mov	 ecx, DWORD PTR [ecx+4]
  00003	ff 25 00 00 00
	00		 jmp	 DWORD PTR __imp_?GetCollisionBox@ioEntityGroup@@QBEABVioOrientBox@@XZ
?GetCollisionBox@ioGameEntity@@QBEABVioOrientBox@@XZ ENDP ; ioGameEntity::GetCollisionBox
_TEXT	ENDS
PUBLIC	?GetWorldAxisBox@ioGameEntity@@QBEABVioAxisAlignBox@@XZ ; ioGameEntity::GetWorldAxisBox
; Function compile flags: /Ogsp
;	COMDAT ?GetWorldAxisBox@ioGameEntity@@QBEABVioAxisAlignBox@@XZ
_TEXT	SEGMENT
?GetWorldAxisBox@ioGameEntity@@QBEABVioAxisAlignBox@@XZ PROC ; ioGameEntity::GetWorldAxisBox, COMDAT
; _this$ = ecx

; 331  : {

  00000	56		 push	 esi
  00001	8b f1		 mov	 esi, ecx

; 332  : 	if( m_bNeedUpdateBound )

  00003	80 be 88 00 00
	00 00		 cmp	 BYTE PTR [esi+136], 0
  0000a	74 05		 je	 SHORT $LN1@GetWorldAx

; 333  : 	{
; 334  : 		// for Update m_WorldAxisBox
; 335  : 		GetWorldCollisionBox();

  0000c	e8 00 00 00 00	 call	 ?GetWorldCollisionBox@ioGameEntity@@QBEABVioOrientBox@@XZ ; ioGameEntity::GetWorldCollisionBox
$LN1@GetWorldAx:

; 336  : 	}
; 337  : 
; 338  : 	return m_WorldAxisBox;

  00011	8d 46 54	 lea	 eax, DWORD PTR [esi+84]
  00014	5e		 pop	 esi

; 339  : }

  00015	c3		 ret	 0
?GetWorldAxisBox@ioGameEntity@@QBEABVioAxisAlignBox@@XZ ENDP ; ioGameEntity::GetWorldAxisBox
_TEXT	ENDS
PUBLIC	?GetMidHeightByRate@ioGameEntity@@QBEMM@Z	; ioGameEntity::GetMidHeightByRate
EXTRN	__imp_??1ioOrientBox@@QAE@XZ:PROC
EXTRN	__imp_?GetCenter@ioOrientBox@@QBEABUD3DXVECTOR3@@XZ:PROC
EXTRN	__imp_?GetExtents@ioOrientBox@@QBEMH@Z:PROC
EXTRN	___CxxFrameHandler3:PROC
EXTRN	@__security_check_cookie@4:PROC
EXTRN	__fltused:DWORD
EXTRN	__EH_epilog3_GS:PROC
EXTRN	__EH_prolog3_GS:PROC
;	COMDAT xdata$x
xdata$x	SEGMENT
__unwindtable$?GetMidHeightByRate@ioGameEntity@@QBEMM@Z DD 0ffffffffH
	DD	FLAT:__unwindfunclet$?GetMidHeightByRate@ioGameEntity@@QBEMM@Z$0
__ehfuncinfo$?GetMidHeightByRate@ioGameEntity@@QBEMM@Z DD 019930522H
	DD	01H
	DD	FLAT:__unwindtable$?GetMidHeightByRate@ioGameEntity@@QBEMM@Z
	DD	2 DUP(00H)
	DD	2 DUP(00H)
	DD	00H
	DD	01H
; Function compile flags: /Ogsp
xdata$x	ENDS
;	COMDAT ?GetMidHeightByRate@ioGameEntity@@QBEMM@Z
_TEXT	SEGMENT
_vPos$ = -104						; size = 12
tv84 = -92						; size = 8
$T505466 = -88						; size = 4
_kBox$ = -84						; size = 68
__$EHRec$ = -12						; size = 12
_fRate$ = 8						; size = 4
?GetMidHeightByRate@ioGameEntity@@QBEMM@Z PROC		; ioGameEntity::GetMidHeightByRate, COMDAT
; _this$ = ecx

; 342  : {

  00000	6a 5c		 push	 92			; 0000005cH
  00002	b8 00 00 00 00	 mov	 eax, __ehhandler$?GetMidHeightByRate@ioGameEntity@@QBEMM@Z
  00007	e8 00 00 00 00	 call	 __EH_prolog3_GS
  0000c	8b d9		 mov	 ebx, ecx

; 343  : 	D3DXVECTOR3 vPos = GetWorldPosition();

  0000e	8b 03		 mov	 eax, DWORD PTR [ebx]
  00010	ff 50 70	 call	 DWORD PTR [eax+112]
  00013	8b f0		 mov	 esi, eax
  00015	8d 7d 98	 lea	 edi, DWORD PTR _vPos$[ebp]
  00018	a5		 movsd
  00019	a5		 movsd

; 344  : 	ioOrientBox kBox = GetWorldCollisionBox();

  0001a	8b cb		 mov	 ecx, ebx
  0001c	a5		 movsd
  0001d	e8 00 00 00 00	 call	 ?GetWorldCollisionBox@ioGameEntity@@QBEABVioOrientBox@@XZ ; ioGameEntity::GetWorldCollisionBox
  00022	6a 11		 push	 17			; 00000011H
  00024	59		 pop	 ecx
  00025	8b f0		 mov	 esi, eax
  00027	8d 7d ac	 lea	 edi, DWORD PTR _kBox$[ebp]
  0002a	f3 a5		 rep movsd
  0002c	83 65 fc 00	 and	 DWORD PTR __$EHRec$[ebp+8], 0

; 345  : 
; 346  : 	float fMidHeight;
; 347  : 	fMidHeight = kBox.GetCenter().y + kBox.GetExtents(1) - vPos.y;

  00030	6a 01		 push	 1
  00032	8d 4d ac	 lea	 ecx, DWORD PTR _kBox$[ebp]
  00035	ff 15 00 00 00
	00		 call	 DWORD PTR __imp_?GetExtents@ioOrientBox@@QBEMH@Z
  0003b	8d 4d ac	 lea	 ecx, DWORD PTR _kBox$[ebp]
  0003e	dd 5d a4	 fstp	 QWORD PTR tv84[ebp]
  00041	ff 15 00 00 00
	00		 call	 DWORD PTR __imp_?GetCenter@ioOrientBox@@QBEABUD3DXVECTOR3@@XZ
  00047	f3 0f 10 40 04	 movss	 xmm0, DWORD PTR [eax+4]
  0004c	f3 0f 10 4d 9c	 movss	 xmm1, DWORD PTR _vPos$[ebp+4]

; 348  : 	fMidHeight = vPos.y + fMidHeight * fRate;
; 349  : 
; 350  : 	return fMidHeight;

  00051	83 4d fc ff	 or	 DWORD PTR __$EHRec$[ebp+8], -1
  00055	0f 5a c0	 cvtps2pd xmm0, xmm0
  00058	f2 0f 58 45 a4	 addsd	 xmm0, QWORD PTR tv84[ebp]
  0005d	0f 5a c9	 cvtps2pd xmm1, xmm1
  00060	f2 0f 5c c1	 subsd	 xmm0, xmm1
  00064	f3 0f 10 4d 08	 movss	 xmm1, DWORD PTR _fRate$[ebp]
  00069	66 0f 5a c0	 cvtpd2ps xmm0, xmm0
  0006d	f3 0f 5a c0	 cvtss2sd xmm0, xmm0
  00071	0f 5a c9	 cvtps2pd xmm1, xmm1
  00074	f2 0f 59 c1	 mulsd	 xmm0, xmm1
  00078	f3 0f 10 4d 9c	 movss	 xmm1, DWORD PTR _vPos$[ebp+4]
  0007d	0f 5a c9	 cvtps2pd xmm1, xmm1
  00080	f2 0f 58 c1	 addsd	 xmm0, xmm1
  00084	66 0f 5a c0	 cvtpd2ps xmm0, xmm0
  00088	8d 4d ac	 lea	 ecx, DWORD PTR _kBox$[ebp]
  0008b	f3 0f 11 45 a8	 movss	 DWORD PTR $T505466[ebp], xmm0
  00090	ff 15 00 00 00
	00		 call	 DWORD PTR __imp_??1ioOrientBox@@QAE@XZ
  00096	d9 45 a8	 fld	 DWORD PTR $T505466[ebp]

; 351  : }

  00099	e8 00 00 00 00	 call	 __EH_epilog3_GS
  0009e	c2 04 00	 ret	 4
_TEXT	ENDS
;	COMDAT text$x
text$x	SEGMENT
__unwindfunclet$?GetMidHeightByRate@ioGameEntity@@QBEMM@Z$0:
  00000	8d 4d ac	 lea	 ecx, DWORD PTR _kBox$[ebp]
  00003	ff 25 00 00 00
	00		 jmp	 DWORD PTR __imp_??1ioOrientBox@@QAE@XZ
__ehhandler$?GetMidHeightByRate@ioGameEntity@@QBEMM@Z:
  00009	8b 54 24 08	 mov	 edx, DWORD PTR [esp+8]
  0000d	8d 42 0c	 lea	 eax, DWORD PTR [edx+12]
  00010	8b 4a 94	 mov	 ecx, DWORD PTR [edx-108]
  00013	33 c8		 xor	 ecx, eax
  00015	e8 00 00 00 00	 call	 @__security_check_cookie@4
  0001a	8b 4a fc	 mov	 ecx, DWORD PTR [edx-4]
  0001d	33 c8		 xor	 ecx, eax
  0001f	e8 00 00 00 00	 call	 @__security_check_cookie@4
  00024	b8 00 00 00 00	 mov	 eax, OFFSET __ehfuncinfo$?GetMidHeightByRate@ioGameEntity@@QBEMM@Z
  00029	e9 00 00 00 00	 jmp	 ___CxxFrameHandler3
text$x	ENDS
?GetMidHeightByRate@ioGameEntity@@QBEMM@Z ENDP		; ioGameEntity::GetMidHeightByRate
PUBLIC	?GetMidPositionByRate@ioGameEntity@@QBE?AUD3DXVECTOR3@@M@Z ; ioGameEntity::GetMidPositionByRate
; Function compile flags: /Ogsp
;	COMDAT ?GetMidPositionByRate@ioGameEntity@@QBE?AUD3DXVECTOR3@@M@Z
_TEXT	SEGMENT
___$ReturnUdt$ = 8					; size = 4
_fRate$ = 12						; size = 4
?GetMidPositionByRate@ioGameEntity@@QBE?AUD3DXVECTOR3@@M@Z PROC ; ioGameEntity::GetMidPositionByRate, COMDAT
; _this$ = ecx

; 354  : {

  00000	55		 push	 ebp
  00001	8b ec		 mov	 ebp, esp
  00003	53		 push	 ebx
  00004	56		 push	 esi
  00005	8b d9		 mov	 ebx, ecx

; 355  : 	D3DXVECTOR3 vPos = GetWorldPosition();

  00007	8b 03		 mov	 eax, DWORD PTR [ebx]
  00009	57		 push	 edi
  0000a	ff 50 70	 call	 DWORD PTR [eax+112]
  0000d	8b 7d 08	 mov	 edi, DWORD PTR ___$ReturnUdt$[ebp]

; 356  : 	vPos.y = GetMidHeightByRate( fRate );

  00010	f3 0f 10 45 0c	 movss	 xmm0, DWORD PTR _fRate$[ebp]
  00015	8b f0		 mov	 esi, eax
  00017	a5		 movsd
  00018	a5		 movsd
  00019	51		 push	 ecx
  0001a	8b cb		 mov	 ecx, ebx
  0001c	a5		 movsd
  0001d	f3 0f 11 04 24	 movss	 DWORD PTR [esp], xmm0
  00022	e8 00 00 00 00	 call	 ?GetMidHeightByRate@ioGameEntity@@QBEMM@Z ; ioGameEntity::GetMidHeightByRate
  00027	8b 45 08	 mov	 eax, DWORD PTR ___$ReturnUdt$[ebp]
  0002a	5f		 pop	 edi
  0002b	d9 58 04	 fstp	 DWORD PTR [eax+4]
  0002e	5e		 pop	 esi
  0002f	5b		 pop	 ebx

; 357  : 
; 358  : 	return vPos;
; 359  : }

  00030	5d		 pop	 ebp
  00031	c2 08 00	 ret	 8
?GetMidPositionByRate@ioGameEntity@@QBE?AUD3DXVECTOR3@@M@Z ENDP ; ioGameEntity::GetMidPositionByRate
_TEXT	ENDS
PUBLIC	?GetBottomHeight@ioGameEntity@@QBEMXZ		; ioGameEntity::GetBottomHeight
; Function compile flags: /Ogsp
;	COMDAT ?GetBottomHeight@ioGameEntity@@QBEMXZ
_TEXT	SEGMENT
?GetBottomHeight@ioGameEntity@@QBEMXZ PROC		; ioGameEntity::GetBottomHeight, COMDAT
; _this$ = ecx

; 362  : {

  00000	56		 push	 esi
  00001	8b f1		 mov	 esi, ecx

; 363  : 	if( m_bNeedUpdateBottomHeight )

  00003	80 be 89 00 00
	00 00		 cmp	 BYTE PTR [esi+137], 0
  0000a	57		 push	 edi
  0000b	74 0c		 je	 SHORT $LN1@GetBottomH

; 364  : 	{
; 365  : 		UpdateBottomHeight();

  0000d	8b 06		 mov	 eax, DWORD PTR [esi]
  0000f	ff 50 3c	 call	 DWORD PTR [eax+60]

; 366  : 		m_bNeedUpdateBottomHeight = false;

  00012	c6 86 89 00 00
	00 00		 mov	 BYTE PTR [esi+137], 0
$LN1@GetBottomH:

; 367  : 	}
; 368  : 
; 369  : 	return m_fCurBottomHeight;

  00019	d9 86 84 00 00
	00		 fld	 DWORD PTR [esi+132]
  0001f	5f		 pop	 edi
  00020	5e		 pop	 esi

; 370  : }

  00021	c3		 ret	 0
?GetBottomHeight@ioGameEntity@@QBEMXZ ENDP		; ioGameEntity::GetBottomHeight
_TEXT	ENDS
PUBLIC	?PlaySoundA@ioGameEntity@@QAEKABVioHashString@@_N@Z ; ioGameEntity::PlaySoundA
EXTRN	__imp_?PlaySoundA@ioSoundManager@@QAEKABVioHashString@@PAVioSceneNode@@K@Z:PROC
EXTRN	__imp_?GetSingleton@ioSoundManager@@SAAAV1@XZ:PROC
; Function compile flags: /Ogsp
;	COMDAT ?PlaySoundA@ioGameEntity@@QAEKABVioHashString@@_N@Z
_TEXT	SEGMENT
_rkName$ = 8						; size = 4
_bLoop$ = 12						; size = 1
?PlaySoundA@ioGameEntity@@QAEKABVioHashString@@_N@Z PROC ; ioGameEntity::PlaySoundA, COMDAT
; _this$ = ecx

; 373  : {

  00000	55		 push	 ebp
  00001	8b ec		 mov	 ebp, esp

; 374  : 	UniqueObjID eSoundID = 0;

  00003	33 c0		 xor	 eax, eax

; 375  : 
; 376  : 	if( m_pGroup )

  00005	39 41 04	 cmp	 DWORD PTR [ecx+4], eax
  00008	74 27		 je	 SHORT $LN2@PlaySoundA

; 377  : 	{
; 378  : 		DWORD dwPlayMask = PSM_THREAD;
; 379  : 		if( bLoop )

  0000a	80 7d 0c 00	 cmp	 BYTE PTR _bLoop$[ebp], 0
  0000e	6a 04		 push	 4
  00010	58		 pop	 eax
  00011	74 03		 je	 SHORT $LN1@PlaySoundA

; 380  : 			dwPlayMask |= PSM_LOOP;

  00013	6a 06		 push	 6
  00015	58		 pop	 eax
$LN1@PlaySoundA:

; 381  : 
; 382  : 		eSoundID = g_SoundMgr.PlaySound( rkName, m_pGroup->GetParentSceneNode(), dwPlayMask );

  00016	8b 49 04	 mov	 ecx, DWORD PTR [ecx+4]
  00019	50		 push	 eax
  0001a	8b 01		 mov	 eax, DWORD PTR [ecx]
  0001c	ff 50 34	 call	 DWORD PTR [eax+52]
  0001f	50		 push	 eax
  00020	ff 75 08	 push	 DWORD PTR _rkName$[ebp]
  00023	ff 15 00 00 00
	00		 call	 DWORD PTR __imp_?GetSingleton@ioSoundManager@@SAAAV1@XZ
  00029	8b c8		 mov	 ecx, eax
  0002b	ff 15 00 00 00
	00		 call	 DWORD PTR __imp_?PlaySoundA@ioSoundManager@@QAEKABVioHashString@@PAVioSceneNode@@K@Z
$LN2@PlaySoundA:

; 383  : 	}
; 384  : 
; 385  : 	return eSoundID;
; 386  : }

  00031	5d		 pop	 ebp
  00032	c2 08 00	 ret	 8
?PlaySoundA@ioGameEntity@@QAEKABVioHashString@@_N@Z ENDP ; ioGameEntity::PlaySoundA
_TEXT	ENDS
PUBLIC	??0D3DXVECTOR3@@QAE@MMM@Z			; D3DXVECTOR3::D3DXVECTOR3
; Function compile flags: /Ogsp
; File c:\program files (x86)\microsoft directx sdk (june 2010)\include\d3dx9math.inl
;	COMDAT ??0D3DXVECTOR3@@QAE@MMM@Z
_TEXT	SEGMENT
_fx$ = 8						; size = 4
_fy$ = 12						; size = 4
_fz$ = 16						; size = 4
??0D3DXVECTOR3@@QAE@MMM@Z PROC				; D3DXVECTOR3::D3DXVECTOR3, COMDAT
; _this$ = ecx

; 303  : {

  00000	55		 push	 ebp
  00001	8b ec		 mov	 ebp, esp

; 304  :     x = fx;

  00003	f3 0f 10 45 08	 movss	 xmm0, DWORD PTR _fx$[ebp]
  00008	8b c1		 mov	 eax, ecx
  0000a	f3 0f 11 00	 movss	 DWORD PTR [eax], xmm0

; 305  :     y = fy;

  0000e	f3 0f 10 45 0c	 movss	 xmm0, DWORD PTR _fy$[ebp]
  00013	f3 0f 11 40 04	 movss	 DWORD PTR [eax+4], xmm0

; 306  :     z = fz;

  00018	f3 0f 10 45 10	 movss	 xmm0, DWORD PTR _fz$[ebp]
  0001d	f3 0f 11 40 08	 movss	 DWORD PTR [eax+8], xmm0

; 307  : }

  00022	5d		 pop	 ebp
  00023	c2 0c 00	 ret	 12			; 0000000cH
??0D3DXVECTOR3@@QAE@MMM@Z ENDP				; D3DXVECTOR3::D3DXVECTOR3
_TEXT	ENDS
PUBLIC	?IsNowAlphaChanging@ioGameEntity@@QBE_NXZ	; ioGameEntity::IsNowAlphaChanging
; Function compile flags: /Ogsp
; File d:\lost saga for developer\youtube\tutorial\source\src\lsclient\iogameentity.h
;	COMDAT ?IsNowAlphaChanging@ioGameEntity@@QBE_NXZ
_TEXT	SEGMENT
?IsNowAlphaChanging@ioGameEntity@@QBE_NXZ PROC		; ioGameEntity::IsNowAlphaChanging, COMDAT
; _this$ = ecx

; 113  : 		if( m_iCurAlphaRate == m_iTargetAlphaRate )

  00000	8b 41 08	 mov	 eax, DWORD PTR [ecx+8]
  00003	3b 41 0c	 cmp	 eax, DWORD PTR [ecx+12]
  00006	0f 95 c0	 setne	 al

; 114  : 			return false;
; 115  : 
; 116  : 		return true;
; 117  : 	}

  00009	c3		 ret	 0
?IsNowAlphaChanging@ioGameEntity@@QBE_NXZ ENDP		; ioGameEntity::IsNowAlphaChanging
_TEXT	ENDS
PUBLIC	?NeedUpdateBound@ioGameEntity@@QAEXXZ		; ioGameEntity::NeedUpdateBound
; Function compile flags: /Ogsp
;	COMDAT ?NeedUpdateBound@ioGameEntity@@QAEXXZ
_TEXT	SEGMENT
?NeedUpdateBound@ioGameEntity@@QAEXXZ PROC		; ioGameEntity::NeedUpdateBound, COMDAT
; _this$ = ecx

; 132  : 	inline void NeedUpdateBound() { m_bNeedUpdateBound = true; }

  00000	c6 81 88 00 00
	00 01		 mov	 BYTE PTR [ecx+136], 1
  00007	c3		 ret	 0
?NeedUpdateBound@ioGameEntity@@QAEXXZ ENDP		; ioGameEntity::NeedUpdateBound
_TEXT	ENDS
PUBLIC	?NeedUpdateBottomHeight@ioGameEntity@@UAEXXZ	; ioGameEntity::NeedUpdateBottomHeight
; Function compile flags: /Ogsp
;	COMDAT ?NeedUpdateBottomHeight@ioGameEntity@@UAEXXZ
_TEXT	SEGMENT
?NeedUpdateBottomHeight@ioGameEntity@@UAEXXZ PROC	; ioGameEntity::NeedUpdateBottomHeight, COMDAT
; _this$ = ecx

; 133  : 	virtual void NeedUpdateBottomHeight() { m_bNeedUpdateBottomHeight = true; }

  00000	c6 81 89 00 00
	00 01		 mov	 BYTE PTR [ecx+137], 1
  00007	c3		 ret	 0
?NeedUpdateBottomHeight@ioGameEntity@@UAEXXZ ENDP	; ioGameEntity::NeedUpdateBottomHeight
_TEXT	ENDS
PUBLIC	?GetGroup@ioGameEntity@@QBEPAVioEntityGroup@@XZ	; ioGameEntity::GetGroup
; Function compile flags: /Ogsp
;	COMDAT ?GetGroup@ioGameEntity@@QBEPAVioEntityGroup@@XZ
_TEXT	SEGMENT
?GetGroup@ioGameEntity@@QBEPAVioEntityGroup@@XZ PROC	; ioGameEntity::GetGroup, COMDAT
; _this$ = ecx

; 166  : 	inline ioEntityGroup* GetGroup() const { return m_pGroup; }

  00000	8b 41 04	 mov	 eax, DWORD PTR [ecx+4]
  00003	c3		 ret	 0
?GetGroup@ioGameEntity@@QBEPAVioEntityGroup@@XZ ENDP	; ioGameEntity::GetGroup
_TEXT	ENDS
PUBLIC	??_7ioGameEntity@@6B@				; ioGameEntity::`vftable'
PUBLIC	??0ioGameEntity@@QAE@PAVioEntityGroup@@@Z	; ioGameEntity::ioGameEntity
PUBLIC	??_R4ioGameEntity@@6B@				; ioGameEntity::`RTTI Complete Object Locator'
PUBLIC	??_R0?AVioGameEntity@@@8			; ioGameEntity `RTTI Type Descriptor'
PUBLIC	??_R3ioGameEntity@@8				; ioGameEntity::`RTTI Class Hierarchy Descriptor'
PUBLIC	??_R2ioGameEntity@@8				; ioGameEntity::`RTTI Base Class Array'
PUBLIC	??_R1A@?0A@EA@ioGameEntity@@8			; ioGameEntity::`RTTI Base Class Descriptor at (0,-1,0,64)'
PUBLIC	??_R1A@?0A@EA@ioEntityEvent@@8			; ioEntityEvent::`RTTI Base Class Descriptor at (0,-1,0,64)'
PUBLIC	??_R0?AVioEntityEvent@@@8			; ioEntityEvent `RTTI Type Descriptor'
PUBLIC	??_R3ioEntityEvent@@8				; ioEntityEvent::`RTTI Class Hierarchy Descriptor'
PUBLIC	??_R2ioEntityEvent@@8				; ioEntityEvent::`RTTI Base Class Array'
PUBLIC	?UpdateAfter@ioGameEntity@@UAEXM@Z		; ioGameEntity::UpdateAfter
PUBLIC	?UpdateBound@ioGameEntity@@MBEXXZ		; ioGameEntity::UpdateBound
PUBLIC	?SetWorldPosition@ioGameEntity@@UAEXABUD3DXVECTOR3@@@Z ; ioGameEntity::SetWorldPosition
PUBLIC	?SetWorldOrientation@ioGameEntity@@UAEXABUD3DXQUATERNION@@@Z ; ioGameEntity::SetWorldOrientation
PUBLIC	?SetWorldScale@ioGameEntity@@UAEXABUD3DXVECTOR3@@@Z ; ioGameEntity::SetWorldScale
PUBLIC	?Translate@ioGameEntity@@UAEXABUD3DXVECTOR3@@@Z	; ioGameEntity::Translate
PUBLIC	?TranslateByConveyer@ioGameEntity@@UAEXABUD3DXVECTOR3@@@Z ; ioGameEntity::TranslateByConveyer
PUBLIC	?TranslateByWorldEntity@ioGameEntity@@UAEXABUD3DXVECTOR3@@@Z ; ioGameEntity::TranslateByWorldEntity
PUBLIC	?Rotate@ioGameEntity@@UAEXABUD3DXVECTOR3@@MW4TransformSpace@ioNode@@@Z ; ioGameEntity::Rotate
PUBLIC	?Scale@ioGameEntity@@UAEXMMM@Z			; ioGameEntity::Scale
PUBLIC	?Scale@ioGameEntity@@UAEXABUD3DXVECTOR3@@@Z	; ioGameEntity::Scale
EXTRN	__imp_??1ioAxisAlignBox@@UAE@XZ:PROC
EXTRN	__imp_??1ioEntityEvent@@UAE@XZ:PROC
EXTRN	__imp_?SetEventParent@ioEntityGroup@@QAEXPAVioEntityEvent@@@Z:PROC
EXTRN	__imp_??0ioAxisAlignBox@@QAE@XZ:PROC
EXTRN	__imp_??0ioOrientBox@@QAE@XZ:PROC
EXTRN	__imp_??0ioEntityEvent@@QAE@XZ:PROC
EXTRN	__EH_epilog3:PROC
EXTRN	__EH_prolog3:PROC
EXTRN	??_7type_info@@6B@:QWORD			; type_info::`vftable'
EXTRN	?AddEntityEvent@ioEntityEvent@@UAEXPAVioEntity@@@Z:PROC ; ioEntityEvent::AddEntityEvent
EXTRN	??_EioGameEntity@@UAEPAXI@Z:PROC		; ioGameEntity::`vector deleting destructor'
EXTRN	__purecall:PROC
;	COMDAT ??_R2ioEntityEvent@@8
rdata$r	SEGMENT
??_R2ioEntityEvent@@8 DD FLAT:??_R1A@?0A@EA@ioEntityEvent@@8 ; ioEntityEvent::`RTTI Base Class Array'
rdata$r	ENDS
;	COMDAT ??_R3ioEntityEvent@@8
rdata$r	SEGMENT
??_R3ioEntityEvent@@8 DD 00H				; ioEntityEvent::`RTTI Class Hierarchy Descriptor'
	DD	00H
	DD	01H
	DD	FLAT:??_R2ioEntityEvent@@8
rdata$r	ENDS
;	COMDAT ??_R0?AVioEntityEvent@@@8
_DATA	SEGMENT
??_R0?AVioEntityEvent@@@8 DD FLAT:??_7type_info@@6B@	; ioEntityEvent `RTTI Type Descriptor'
	DD	00H
	DB	'.?AVioEntityEvent@@', 00H
_DATA	ENDS
;	COMDAT ??_R1A@?0A@EA@ioEntityEvent@@8
rdata$r	SEGMENT
??_R1A@?0A@EA@ioEntityEvent@@8 DD FLAT:??_R0?AVioEntityEvent@@@8 ; ioEntityEvent::`RTTI Base Class Descriptor at (0,-1,0,64)'
	DD	00H
	DD	00H
	DD	0ffffffffH
	DD	00H
	DD	040H
	DD	FLAT:??_R3ioEntityEvent@@8
rdata$r	ENDS
;	COMDAT ??_R1A@?0A@EA@ioGameEntity@@8
rdata$r	SEGMENT
??_R1A@?0A@EA@ioGameEntity@@8 DD FLAT:??_R0?AVioGameEntity@@@8 ; ioGameEntity::`RTTI Base Class Descriptor at (0,-1,0,64)'
	DD	01H
	DD	00H
	DD	0ffffffffH
	DD	00H
	DD	040H
	DD	FLAT:??_R3ioGameEntity@@8
rdata$r	ENDS
;	COMDAT ??_R2ioGameEntity@@8
rdata$r	SEGMENT
??_R2ioGameEntity@@8 DD FLAT:??_R1A@?0A@EA@ioGameEntity@@8 ; ioGameEntity::`RTTI Base Class Array'
	DD	FLAT:??_R1A@?0A@EA@ioEntityEvent@@8
rdata$r	ENDS
;	COMDAT ??_R3ioGameEntity@@8
rdata$r	SEGMENT
??_R3ioGameEntity@@8 DD 00H				; ioGameEntity::`RTTI Class Hierarchy Descriptor'
	DD	00H
	DD	02H
	DD	FLAT:??_R2ioGameEntity@@8
rdata$r	ENDS
;	COMDAT ??_R0?AVioGameEntity@@@8
_DATA	SEGMENT
??_R0?AVioGameEntity@@@8 DD FLAT:??_7type_info@@6B@	; ioGameEntity `RTTI Type Descriptor'
	DD	00H
	DB	'.?AVioGameEntity@@', 00H
_DATA	ENDS
;	COMDAT ??_R4ioGameEntity@@6B@
rdata$r	SEGMENT
??_R4ioGameEntity@@6B@ DD 00H				; ioGameEntity::`RTTI Complete Object Locator'
	DD	00H
	DD	00H
	DD	FLAT:??_R0?AVioGameEntity@@@8
	DD	FLAT:??_R3ioGameEntity@@8
rdata$r	ENDS
;	COMDAT ??_7ioGameEntity@@6B@
CONST	SEGMENT
??_7ioGameEntity@@6B@ DD FLAT:??_R4ioGameEntity@@6B@	; ioGameEntity::`vftable'
	DD	FLAT:?AddEntityEvent@ioEntityEvent@@UAEXPAVioEntity@@@Z
	DD	FLAT:??_EioGameEntity@@UAEPAXI@Z
	DD	FLAT:__purecall
	DD	FLAT:?UpdateAfter@ioGameEntity@@UAEXM@Z
	DD	FLAT:__purecall
	DD	FLAT:?IsNeedCheckMapCollision@ioGameEntity@@UBE_NXZ
	DD	FLAT:?IsMountAvailable@ioGameEntity@@UBE_NXZ
	DD	FLAT:?IsMountingAvailable@ioGameEntity@@UBE_NXZ
	DD	FLAT:?IsNowMountEnable@ioGameEntity@@UBE_NXZ
	DD	FLAT:?IsAllWeaponDefence@ioGameEntity@@UBE_NXZ
	DD	FLAT:?HasEntity@ioGameEntity@@UAE_NABVioHashString@@@Z
	DD	FLAT:?AddEntity@ioGameEntity@@UAEPAVioEntity@@ABVioHashString@@@Z
	DD	FLAT:?DestroyEntity@ioGameEntity@@UAE_NABVioHashString@@@Z
	DD	FLAT:?GetEntity@ioGameEntity@@UAEPAVioEntity@@ABVioHashString@@@Z
	DD	FLAT:?UpdateBound@ioGameEntity@@MBEXXZ
	DD	FLAT:__purecall
	DD	FLAT:?NeedUpdateBottomHeight@ioGameEntity@@UAEXXZ
	DD	FLAT:?SetWorldPosition@ioGameEntity@@UAEXABUD3DXVECTOR3@@@Z
	DD	FLAT:?SetWorldOrientation@ioGameEntity@@UAEXABUD3DXQUATERNION@@@Z
	DD	FLAT:?SetWorldScale@ioGameEntity@@UAEXABUD3DXVECTOR3@@@Z
	DD	FLAT:?Translate@ioGameEntity@@UAEXABUD3DXVECTOR3@@@Z
	DD	FLAT:?TranslateByConveyer@ioGameEntity@@UAEXABUD3DXVECTOR3@@@Z
	DD	FLAT:?TranslateByWorldEntity@ioGameEntity@@UAEXABUD3DXVECTOR3@@@Z
	DD	FLAT:?MapCollisionPushingTranslate@ioGameEntity@@UAEXABUD3DXVECTOR3@@@Z
	DD	FLAT:?DontMoveCollisionPushingTranslate@ioGameEntity@@UAEXPAV1@ABUD3DXVECTOR3@@@Z
	DD	FLAT:?Rotate@ioGameEntity@@UAEXABUD3DXVECTOR3@@MW4TransformSpace@ioNode@@@Z
	DD	FLAT:?Scale@ioGameEntity@@UAEXMMM@Z
	DD	FLAT:?Scale@ioGameEntity@@UAEXABUD3DXVECTOR3@@@Z
	DD	FLAT:?GetWorldPosition@ioGameEntity@@UBEABUD3DXVECTOR3@@XZ
	DD	FLAT:?GetWorldOrientation@ioGameEntity@@UBEABUD3DXQUATERNION@@XZ
	DD	FLAT:?GetWorldScale@ioGameEntity@@UBEABUD3DXVECTOR3@@XZ
CONST	ENDS
;	COMDAT xdata$x
xdata$x	SEGMENT
__unwindtable$??0ioGameEntity@@QAE@PAVioEntityGroup@@@Z DD 0ffffffffH
	DD	FLAT:__unwindfunclet$??0ioGameEntity@@QAE@PAVioEntityGroup@@@Z$0
	DD	00H
	DD	FLAT:__unwindfunclet$??0ioGameEntity@@QAE@PAVioEntityGroup@@@Z$1
	DD	01H
	DD	FLAT:__unwindfunclet$??0ioGameEntity@@QAE@PAVioEntityGroup@@@Z$2
__ehfuncinfo$??0ioGameEntity@@QAE@PAVioEntityGroup@@@Z DD 019930522H
	DD	03H
	DD	FLAT:__unwindtable$??0ioGameEntity@@QAE@PAVioEntityGroup@@@Z
	DD	2 DUP(00H)
	DD	2 DUP(00H)
	DD	00H
	DD	01H
; Function compile flags: /Ogsp
; File d:\lost saga for developer\youtube\tutorial\source\src\lsclient\iogameentity.cpp
xdata$x	ENDS
;	COMDAT ??0ioGameEntity@@QAE@PAVioEntityGroup@@@Z
_TEXT	SEGMENT
_this$ = -16						; size = 4
__$EHRec$ = -12						; size = 12
_pGrp$ = 8						; size = 4
??0ioGameEntity@@QAE@PAVioEntityGroup@@@Z PROC		; ioGameEntity::ioGameEntity, COMDAT
; _this$ = ecx

; 10   : {

  00000	6a 04		 push	 4
  00002	b8 00 00 00 00	 mov	 eax, __ehhandler$??0ioGameEntity@@QAE@PAVioEntityGroup@@@Z
  00007	e8 00 00 00 00	 call	 __EH_prolog3
  0000c	8b f1		 mov	 esi, ecx
  0000e	89 75 f0	 mov	 DWORD PTR _this$[ebp], esi
  00011	ff 15 00 00 00
	00		 call	 DWORD PTR __imp_??0ioEntityEvent@@QAE@XZ
  00017	8b 45 08	 mov	 eax, DWORD PTR _pGrp$[ebp]
  0001a	83 65 fc 00	 and	 DWORD PTR __$EHRec$[ebp+8], 0
  0001e	8d 4e 10	 lea	 ecx, DWORD PTR [esi+16]
  00021	c7 06 00 00 00
	00		 mov	 DWORD PTR [esi], OFFSET ??_7ioGameEntity@@6B@
  00027	89 46 04	 mov	 DWORD PTR [esi+4], eax
  0002a	ff 15 00 00 00
	00		 call	 DWORD PTR __imp_??0ioOrientBox@@QAE@XZ
  00030	8d 4e 54	 lea	 ecx, DWORD PTR [esi+84]
  00033	c6 45 fc 01	 mov	 BYTE PTR __$EHRec$[ebp+8], 1
  00037	ff 15 00 00 00
	00		 call	 DWORD PTR __imp_??0ioAxisAlignBox@@QAE@XZ

; 11   : 	m_bShadowCastEnable = false;
; 12   : 	m_iCurAlphaRate	   = MAX_ALPHA_RATE;
; 13   : 	m_iTargetAlphaRate = MAX_ALPHA_RATE;
; 14   : 	m_fCurBottomHeight = 0.0f;
; 15   : 
; 16   : 	NeedUpdateBound();
; 17   : 	NeedUpdateBottomHeight();
; 18   : 
; 19   : 	if( m_pGroup )

  0003d	8b 4e 04	 mov	 ecx, DWORD PTR [esi+4]
  00040	0f 57 c0	 xorps	 xmm0, xmm0
  00043	b8 ff 00 00 00	 mov	 eax, 255		; 000000ffH
  00048	c6 45 fc 02	 mov	 BYTE PTR __$EHRec$[ebp+8], 2
  0004c	c6 86 8a 00 00
	00 00		 mov	 BYTE PTR [esi+138], 0
  00053	89 46 08	 mov	 DWORD PTR [esi+8], eax
  00056	89 46 0c	 mov	 DWORD PTR [esi+12], eax
  00059	f3 0f 11 86 84
	00 00 00	 movss	 DWORD PTR [esi+132], xmm0
  00061	66 c7 86 88 00
	00 00 01 01	 mov	 WORD PTR [esi+136], 257	; 00000101H
  0006a	85 c9		 test	 ecx, ecx
  0006c	74 07		 je	 SHORT $LN1@ioGameEnti

; 20   : 		m_pGroup->SetEventParent( this );

  0006e	56		 push	 esi
  0006f	ff 15 00 00 00
	00		 call	 DWORD PTR __imp_?SetEventParent@ioEntityGroup@@QAEXPAVioEntityEvent@@@Z
$LN1@ioGameEnti:

; 21   : 
; 22   : #ifdef USE_LAGTEST
; 23   : 	m_bUseLatency = false;
; 24   : 	m_bCanLatency = false;
; 25   : 	m_bIsLatency = false;
; 26   : 
; 27   : 	m_dwLatency = 0;
; 28   : 	m_dwLatencyDelay = 0;
; 29   : #endif
; 30   : }

  00075	8b c6		 mov	 eax, esi
  00077	e8 00 00 00 00	 call	 __EH_epilog3
  0007c	c2 04 00	 ret	 4
_TEXT	ENDS
;	COMDAT text$x
text$x	SEGMENT
__unwindfunclet$??0ioGameEntity@@QAE@PAVioEntityGroup@@@Z$0:
  00000	8b 4d f0	 mov	 ecx, DWORD PTR _this$[ebp]
  00003	ff 25 00 00 00
	00		 jmp	 DWORD PTR __imp_??1ioEntityEvent@@UAE@XZ
__unwindfunclet$??0ioGameEntity@@QAE@PAVioEntityGroup@@@Z$1:
  00009	8b 4d f0	 mov	 ecx, DWORD PTR _this$[ebp]
  0000c	83 c1 10	 add	 ecx, 16			; 00000010H
  0000f	ff 25 00 00 00
	00		 jmp	 DWORD PTR __imp_??1ioOrientBox@@QAE@XZ
__unwindfunclet$??0ioGameEntity@@QAE@PAVioEntityGroup@@@Z$2:
  00015	8b 4d f0	 mov	 ecx, DWORD PTR _this$[ebp]
  00018	83 c1 54	 add	 ecx, 84			; 00000054H
  0001b	ff 25 00 00 00
	00		 jmp	 DWORD PTR __imp_??1ioAxisAlignBox@@UAE@XZ
__ehhandler$??0ioGameEntity@@QAE@PAVioEntityGroup@@@Z:
  00021	8b 54 24 08	 mov	 edx, DWORD PTR [esp+8]
  00025	8d 42 0c	 lea	 eax, DWORD PTR [edx+12]
  00028	8b 4a ec	 mov	 ecx, DWORD PTR [edx-20]
  0002b	33 c8		 xor	 ecx, eax
  0002d	e8 00 00 00 00	 call	 @__security_check_cookie@4
  00032	b8 00 00 00 00	 mov	 eax, OFFSET __ehfuncinfo$??0ioGameEntity@@QAE@PAVioEntityGroup@@@Z
  00037	e9 00 00 00 00	 jmp	 ___CxxFrameHandler3
text$x	ENDS
??0ioGameEntity@@QAE@PAVioEntityGroup@@@Z ENDP		; ioGameEntity::ioGameEntity
PUBLIC	??1ioGameEntity@@UAE@XZ				; ioGameEntity::~ioGameEntity
EXTRN	__imp_?GetUniqueID@ioNode@@QBEKXZ:PROC
EXTRN	__imp_?GetSceneMgr@ioSceneNode@@QAEPAVioSceneManager@@XZ:PROC
;	COMDAT xdata$x
; File d:\lost saga for developer\youtube\tutorial\source\src\lsclient\iogameentity.h
xdata$x	SEGMENT
__unwindtable$??1ioGameEntity@@UAE@XZ DD 0ffffffffH
	DD	FLAT:__unwindfunclet$??1ioGameEntity@@UAE@XZ$0
	DD	00H
	DD	FLAT:__unwindfunclet$??1ioGameEntity@@UAE@XZ$1
	DD	01H
	DD	FLAT:__unwindfunclet$??1ioGameEntity@@UAE@XZ$2
__ehfuncinfo$??1ioGameEntity@@UAE@XZ DD 019930522H
	DD	03H
	DD	FLAT:__unwindtable$??1ioGameEntity@@UAE@XZ
	DD	2 DUP(00H)
	DD	2 DUP(00H)
	DD	00H
	DD	01H
; Function compile flags: /Ogsp
; File d:\lost saga for developer\youtube\tutorial\source\src\lsclient\iogameentity.cpp
xdata$x	ENDS
;	COMDAT ??1ioGameEntity@@UAE@XZ
_TEXT	SEGMENT
_this$ = -24						; size = 4
_pGrp$ = -20						; size = 4
_pSceneNode$505084 = -16				; size = 4
__$EHRec$ = -12						; size = 12
??1ioGameEntity@@UAE@XZ PROC				; ioGameEntity::~ioGameEntity, COMDAT
; _this$ = ecx

; 33   : {

  00000	6a 0c		 push	 12			; 0000000cH
  00002	b8 00 00 00 00	 mov	 eax, __ehhandler$??1ioGameEntity@@UAE@XZ
  00007	e8 00 00 00 00	 call	 __EH_prolog3
  0000c	8b f9		 mov	 edi, ecx
  0000e	89 7d e8	 mov	 DWORD PTR _this$[ebp], edi
  00011	c7 07 00 00 00
	00		 mov	 DWORD PTR [edi], OFFSET ??_7ioGameEntity@@6B@

; 34   : 	ioEntityGroup *pGrp = GetGroup();

  00017	8b 4f 04	 mov	 ecx, DWORD PTR [edi+4]
  0001a	c7 45 fc 02 00
	00 00		 mov	 DWORD PTR __$EHRec$[ebp+8], 2
  00021	89 4d ec	 mov	 DWORD PTR _pGrp$[ebp], ecx

; 35   : 	if( pGrp )

  00024	85 c9		 test	 ecx, ecx
  00026	74 45		 je	 SHORT $LN1@ioGameEnti@2

; 36   : 	{
; 37   : 		ioSceneNode *pSceneNode = pGrp->GetParentSceneNode();

  00028	8b 01		 mov	 eax, DWORD PTR [ecx]
  0002a	ff 50 34	 call	 DWORD PTR [eax+52]
  0002d	8b f0		 mov	 esi, eax
  0002f	89 75 f0	 mov	 DWORD PTR _pSceneNode$505084[ebp], esi

; 38   : 		if( pSceneNode )

  00032	85 f6		 test	 esi, esi
  00034	74 37		 je	 SHORT $LN1@ioGameEnti@2

; 39   : 		{
; 40   : 			pSceneNode->RemoveAndDestroyAllChildren();

  00036	8b 06		 mov	 eax, DWORD PTR [esi]
  00038	8b ce		 mov	 ecx, esi
  0003a	ff 90 d0 00 00
	00		 call	 DWORD PTR [eax+208]

; 41   : 
; 42   : 			ioSceneManager *pSceneMgr = pSceneNode->GetSceneMgr();

  00040	8b ce		 mov	 ecx, esi
  00042	ff 15 00 00 00
	00		 call	 DWORD PTR __imp_?GetSceneMgr@ioSceneNode@@QAEPAVioSceneManager@@XZ
  00048	8b f0		 mov	 esi, eax

; 43   : 			if( pSceneMgr )

  0004a	85 f6		 test	 esi, esi
  0004c	74 1f		 je	 SHORT $LN1@ioGameEnti@2

; 44   : 			{
; 45   : 				pSceneMgr->DestroySceneNode( pSceneNode->GetUniqueID() );

  0004e	8b 4d f0	 mov	 ecx, DWORD PTR _pSceneNode$505084[ebp]
  00051	8b 1e		 mov	 ebx, DWORD PTR [esi]
  00053	ff 15 00 00 00
	00		 call	 DWORD PTR __imp_?GetUniqueID@ioNode@@QBEKXZ
  00059	50		 push	 eax
  0005a	8b ce		 mov	 ecx, esi
  0005c	ff 53 24	 call	 DWORD PTR [ebx+36]

; 46   : 				pSceneMgr->DestroyEntityGrp( pGrp );

  0005f	ff 75 ec	 push	 DWORD PTR _pGrp$[ebp]
  00062	8b 06		 mov	 eax, DWORD PTR [esi]
  00064	8b ce		 mov	 ecx, esi
  00066	ff 50 38	 call	 DWORD PTR [eax+56]

; 47   : 				m_pGroup = NULL;

  00069	83 67 04 00	 and	 DWORD PTR [edi+4], 0
$LN1@ioGameEnti@2:

; 48   : 			}
; 49   : 		}
; 50   : 	}
; 51   : 
; 52   : #ifdef USE_LAGTEST
; 53   : 	std::list<sDelayBox*>::iterator it = m_listDelayBox.begin();
; 54   : 	while( it != m_listDelayBox.end() )
; 55   : 	{
; 56   : 		sDelayBox* pDelayBox = *it;
; 57   : 		SAFEDELETE(pDelayBox);
; 58   : 		it = m_listDelayBox.erase( it );
; 59   : 	}
; 60   : #endif
; 61   : }

  0006d	8d 4f 54	 lea	 ecx, DWORD PTR [edi+84]
  00070	c6 45 fc 01	 mov	 BYTE PTR __$EHRec$[ebp+8], 1
  00074	ff 15 00 00 00
	00		 call	 DWORD PTR __imp_??1ioAxisAlignBox@@UAE@XZ
  0007a	8d 4f 10	 lea	 ecx, DWORD PTR [edi+16]
  0007d	c6 45 fc 00	 mov	 BYTE PTR __$EHRec$[ebp+8], 0
  00081	ff 15 00 00 00
	00		 call	 DWORD PTR __imp_??1ioOrientBox@@QAE@XZ
  00087	83 4d fc ff	 or	 DWORD PTR __$EHRec$[ebp+8], -1
  0008b	8b cf		 mov	 ecx, edi
  0008d	ff 15 00 00 00
	00		 call	 DWORD PTR __imp_??1ioEntityEvent@@UAE@XZ
  00093	e8 00 00 00 00	 call	 __EH_epilog3
  00098	c3		 ret	 0
_TEXT	ENDS
;	COMDAT text$x
text$x	SEGMENT
__unwindfunclet$??1ioGameEntity@@UAE@XZ$0:
  00000	8b 4d e8	 mov	 ecx, DWORD PTR _this$[ebp]
  00003	ff 25 00 00 00
	00		 jmp	 DWORD PTR __imp_??1ioEntityEvent@@UAE@XZ
__unwindfunclet$??1ioGameEntity@@UAE@XZ$1:
  00009	8b 4d e8	 mov	 ecx, DWORD PTR _this$[ebp]
  0000c	83 c1 10	 add	 ecx, 16			; 00000010H
  0000f	ff 25 00 00 00
	00		 jmp	 DWORD PTR __imp_??1ioOrientBox@@QAE@XZ
__unwindfunclet$??1ioGameEntity@@UAE@XZ$2:
  00015	8b 4d e8	 mov	 ecx, DWORD PTR _this$[ebp]
  00018	83 c1 54	 add	 ecx, 84			; 00000054H
  0001b	ff 25 00 00 00
	00		 jmp	 DWORD PTR __imp_??1ioAxisAlignBox@@UAE@XZ
__ehhandler$??1ioGameEntity@@UAE@XZ:
  00021	8b 54 24 08	 mov	 edx, DWORD PTR [esp+8]
  00025	8d 42 0c	 lea	 eax, DWORD PTR [edx+12]
  00028	8b 4a e4	 mov	 ecx, DWORD PTR [edx-28]
  0002b	33 c8		 xor	 ecx, eax
  0002d	e8 00 00 00 00	 call	 @__security_check_cookie@4
  00032	b8 00 00 00 00	 mov	 eax, OFFSET __ehfuncinfo$??1ioGameEntity@@UAE@XZ
  00037	e9 00 00 00 00	 jmp	 ___CxxFrameHandler3
text$x	ENDS
??1ioGameEntity@@UAE@XZ ENDP				; ioGameEntity::~ioGameEntity
PUBLIC	__real@4000000000000000
PUBLIC	__real@406fe00000000000
PUBLIC	?ProcessAlphaRate@ioGameEntity@@IAEXM@Z		; ioGameEntity::ProcessAlphaRate
;	COMDAT __real@4000000000000000
; File d:\lost saga for developer\youtube\tutorial\source\src\lsclient\iogameentity.h
CONST	SEGMENT
__real@4000000000000000 DQ 04000000000000000r	; 2
CONST	ENDS
;	COMDAT __real@406fe00000000000
CONST	SEGMENT
__real@406fe00000000000 DQ 0406fe00000000000r	; 255
; Function compile flags: /Ogsp
; File d:\lost saga for developer\youtube\tutorial\source\src\lsclient\iogameentity.cpp
CONST	ENDS
;	COMDAT ?ProcessAlphaRate@ioGameEntity@@IAEXM@Z
_TEXT	SEGMENT
_fTimePerSec$ = 8					; size = 4
?ProcessAlphaRate@ioGameEntity@@IAEXM@Z PROC		; ioGameEntity::ProcessAlphaRate, COMDAT
; _this$ = ecx

; 99   : {

  00000	55		 push	 ebp
  00001	8b ec		 mov	 ebp, esp

; 100  : 	if( !IsNowAlphaChanging() )	return;

  00003	8b 51 08	 mov	 edx, DWORD PTR [ecx+8]
  00006	8b 41 0c	 mov	 eax, DWORD PTR [ecx+12]
  00009	3b d0		 cmp	 edx, eax
  0000b	0f 84 8e 00 00
	00		 je	 $LN6@ProcessAlp

; 101  : 
; 102  : 	if( m_iCurAlphaRate < m_iTargetAlphaRate )

  00011	7d 30		 jge	 SHORT $LN4@ProcessAlp

; 103  : 	{
; 104  : 		m_iCurAlphaRate += MAX_ALPHA_RATE * fTimePerSec * 2.0f;

  00013	f3 0f 10 45 08	 movss	 xmm0, DWORD PTR _fTimePerSec$[ebp]
  00018	0f 5a c0	 cvtps2pd xmm0, xmm0
  0001b	f2 0f 59 05 00
	00 00 00	 mulsd	 xmm0, QWORD PTR __real@406fe00000000000
  00023	f2 0f 59 05 00
	00 00 00	 mulsd	 xmm0, QWORD PTR __real@4000000000000000
  0002b	0f 57 c9	 xorps	 xmm1, xmm1
  0002e	f2 0f 2a ca	 cvtsi2sd xmm1, edx
  00032	f2 0f 58 c1	 addsd	 xmm0, xmm1
  00036	f2 0f 2c d0	 cvttsd2si edx, xmm0
  0003a	89 51 08	 mov	 DWORD PTR [ecx+8], edx

; 105  : 		if( m_iCurAlphaRate > m_iTargetAlphaRate )

  0003d	3b d0		 cmp	 edx, eax
  0003f	7e 33		 jle	 SHORT $LN1@ProcessAlp

; 106  : 			m_iCurAlphaRate = m_iTargetAlphaRate;
; 107  : 	}
; 108  : 	else

  00041	eb 2e		 jmp	 SHORT $LN17@ProcessAlp
$LN4@ProcessAlp:

; 109  : 	{
; 110  : 		m_iCurAlphaRate -= MAX_ALPHA_RATE * fTimePerSec * 2.0f;

  00043	f3 0f 10 4d 08	 movss	 xmm1, DWORD PTR _fTimePerSec$[ebp]
  00048	0f 5a c9	 cvtps2pd xmm1, xmm1
  0004b	f2 0f 59 0d 00
	00 00 00	 mulsd	 xmm1, QWORD PTR __real@406fe00000000000
  00053	f2 0f 59 0d 00
	00 00 00	 mulsd	 xmm1, QWORD PTR __real@4000000000000000
  0005b	0f 57 c0	 xorps	 xmm0, xmm0
  0005e	f2 0f 2a c2	 cvtsi2sd xmm0, edx
  00062	f2 0f 5c c1	 subsd	 xmm0, xmm1
  00066	f2 0f 2c d0	 cvttsd2si edx, xmm0
  0006a	89 51 08	 mov	 DWORD PTR [ecx+8], edx

; 111  : 		if( m_iCurAlphaRate < m_iTargetAlphaRate )

  0006d	3b d0		 cmp	 edx, eax
  0006f	7d 03		 jge	 SHORT $LN1@ProcessAlp
$LN17@ProcessAlp:

; 112  : 			m_iCurAlphaRate = m_iTargetAlphaRate;

  00071	89 41 08	 mov	 DWORD PTR [ecx+8], eax
$LN1@ProcessAlp:

; 113  : 	}
; 114  : 
; 115  : 	m_iCurAlphaRate = max( 0, min( m_iCurAlphaRate, MAX_ALPHA_RATE ) );

  00074	8b 51 08	 mov	 edx, DWORD PTR [ecx+8]
  00077	56		 push	 esi
  00078	b8 ff 00 00 00	 mov	 eax, 255		; 000000ffH
  0007d	3b d0		 cmp	 edx, eax
  0007f	8b f2		 mov	 esi, edx
  00081	0f 4d f0	 cmovge	 esi, eax
  00084	85 f6		 test	 esi, esi
  00086	5e		 pop	 esi
  00087	79 04		 jns	 SHORT $LN12@ProcessAlp
  00089	33 c0		 xor	 eax, eax
  0008b	eb 06		 jmp	 SHORT $LN10@ProcessAlp
$LN12@ProcessAlp:
  0008d	3b d0		 cmp	 edx, eax
  0008f	7d 02		 jge	 SHORT $LN10@ProcessAlp
  00091	8b c2		 mov	 eax, edx
$LN10@ProcessAlp:
  00093	89 41 08	 mov	 DWORD PTR [ecx+8], eax

; 116  : 
; 117  : 	m_pGroup->SetAlphaRate( m_iCurAlphaRate );

  00096	8b 49 04	 mov	 ecx, DWORD PTR [ecx+4]
  00099	8b 11		 mov	 edx, DWORD PTR [ecx]
  0009b	50		 push	 eax
  0009c	ff 52 18	 call	 DWORD PTR [edx+24]
$LN6@ProcessAlp:

; 118  : }

  0009f	5d		 pop	 ebp
  000a0	c2 04 00	 ret	 4
?ProcessAlphaRate@ioGameEntity@@IAEXM@Z ENDP		; ioGameEntity::ProcessAlphaRate
_TEXT	ENDS
EXTRN	__imp_?SetByOrientBox@ioAxisAlignBox@@QAEXABVioOrientBox@@@Z:PROC
EXTRN	__imp_?Transform@ioOrientBox@@QAEXABUD3DXVECTOR3@@0ABUD3DXQUATERNION@@@Z:PROC
; Function compile flags: /Ogsp
;	COMDAT ?UpdateBound@ioGameEntity@@MBEXXZ
_TEXT	SEGMENT
_this$ = -4						; size = 4
?UpdateBound@ioGameEntity@@MBEXXZ PROC			; ioGameEntity::UpdateBound, COMDAT
; _this$ = ecx

; 121  : {

  00000	55		 push	 ebp
  00001	8b ec		 mov	 ebp, esp
  00003	51		 push	 ecx
  00004	53		 push	 ebx
  00005	57		 push	 edi
  00006	8b f9		 mov	 edi, ecx

; 122  : 	ioNode *pParent = m_pGroup->GetParentNode();

  00008	8b 4f 04	 mov	 ecx, DWORD PTR [edi+4]
  0000b	8b 01		 mov	 eax, DWORD PTR [ecx]
  0000d	89 7d fc	 mov	 DWORD PTR _this$[ebp], edi
  00010	ff 50 30	 call	 DWORD PTR [eax+48]
  00013	8b d8		 mov	 ebx, eax

; 123  : 	if( pParent )

  00015	85 db		 test	 ebx, ebx
  00017	74 4b		 je	 SHORT $LN1@UpdateBoun

; 124  : 	{
; 125  : 		m_WorldColBox = GetCollisionBox();

  00019	8b 4f 04	 mov	 ecx, DWORD PTR [edi+4]
  0001c	56		 push	 esi
  0001d	ff 15 00 00 00
	00		 call	 DWORD PTR __imp_?GetCollisionBox@ioEntityGroup@@QBEABVioOrientBox@@XZ
  00023	6a 11		 push	 17			; 00000011H
  00025	8b f0		 mov	 esi, eax
  00027	59		 pop	 ecx
  00028	83 c7 10	 add	 edi, 16			; 00000010H
  0002b	f3 a5		 rep movsd

; 126  : 		m_WorldColBox.Transform( pParent->GetDerivedPosition(),
; 127  : 								 pParent->GetDerivedScale(),
; 128  : 								 pParent->GetDerivedOrientation() );

  0002d	8b 03		 mov	 eax, DWORD PTR [ebx]
  0002f	8b cb		 mov	 ecx, ebx
  00031	ff 50 78	 call	 DWORD PTR [eax+120]
  00034	50		 push	 eax
  00035	8b 03		 mov	 eax, DWORD PTR [ebx]
  00037	8b cb		 mov	 ecx, ebx
  00039	ff 90 80 00 00
	00		 call	 DWORD PTR [eax+128]
  0003f	50		 push	 eax
  00040	8b 03		 mov	 eax, DWORD PTR [ebx]
  00042	8b cb		 mov	 ecx, ebx
  00044	ff 50 7c	 call	 DWORD PTR [eax+124]
  00047	8b 75 fc	 mov	 esi, DWORD PTR _this$[ebp]
  0004a	83 c6 10	 add	 esi, 16			; 00000010H
  0004d	50		 push	 eax
  0004e	8b ce		 mov	 ecx, esi
  00050	ff 15 00 00 00
	00		 call	 DWORD PTR __imp_?Transform@ioOrientBox@@QAEXABUD3DXVECTOR3@@0ABUD3DXQUATERNION@@@Z

; 129  : 
; 130  : 		m_WorldAxisBox.SetByOrientBox( m_WorldColBox );

  00056	8b 4d fc	 mov	 ecx, DWORD PTR _this$[ebp]
  00059	56		 push	 esi
  0005a	83 c1 54	 add	 ecx, 84			; 00000054H
  0005d	ff 15 00 00 00
	00		 call	 DWORD PTR __imp_?SetByOrientBox@ioAxisAlignBox@@QAEXABVioOrientBox@@@Z
  00063	5e		 pop	 esi
$LN1@UpdateBoun:
  00064	5f		 pop	 edi
  00065	5b		 pop	 ebx

; 131  : 	}
; 132  : #ifdef USE_LAGTEST
; 133  : 	if( IsCanLatency() )
; 134  : 		(const_cast<ioGameEntity*>(this))->UpdateDelayBox();
; 135  : #endif
; 136  : }

  00066	c9		 leave
  00067	c3		 ret	 0
?UpdateBound@ioGameEntity@@MBEXXZ ENDP			; ioGameEntity::UpdateBound
_TEXT	ENDS
PUBLIC	__real@38d1b717
EXTRN	__imp_?IsEqual@ioMath@@SA_NABUD3DXVECTOR3@@0M@Z:PROC
;	COMDAT __real@38d1b717
; File d:\lost saga for developer\youtube\tutorial\source\src\lsclient\iogameentity.h
CONST	SEGMENT
__real@38d1b717 DD 038d1b717r			; 0.0001
; Function compile flags: /Ogsp
; File d:\lost saga for developer\youtube\tutorial\source\src\lsclient\iogameentity.cpp
CONST	ENDS
;	COMDAT ?SetWorldPosition@ioGameEntity@@UAEXABUD3DXVECTOR3@@@Z
_TEXT	SEGMENT
_vPos$ = 8						; size = 4
?SetWorldPosition@ioGameEntity@@UAEXABUD3DXVECTOR3@@@Z PROC ; ioGameEntity::SetWorldPosition, COMDAT
; _this$ = ecx

; 217  : {

  00000	55		 push	 ebp
  00001	8b ec		 mov	 ebp, esp

; 218  : 	if( !ioMath::IsEqual( GetWorldPosition(), vPos ) )

  00003	f3 0f 10 05 00
	00 00 00	 movss	 xmm0, DWORD PTR __real@38d1b717
  0000b	56		 push	 esi
  0000c	51		 push	 ecx
  0000d	8b f1		 mov	 esi, ecx
  0000f	8b 06		 mov	 eax, DWORD PTR [esi]
  00011	f3 0f 11 04 24	 movss	 DWORD PTR [esp], xmm0
  00016	ff 75 08	 push	 DWORD PTR _vPos$[ebp]
  00019	ff 50 70	 call	 DWORD PTR [eax+112]
  0001c	50		 push	 eax
  0001d	ff 15 00 00 00
	00		 call	 DWORD PTR __imp_?IsEqual@ioMath@@SA_NABUD3DXVECTOR3@@0M@Z
  00023	83 c4 0c	 add	 esp, 12			; 0000000cH
  00026	84 c0		 test	 al, al
  00028	75 20		 jne	 SHORT $LN1@SetWorldPo

; 219  : 	{
; 220  : 		m_pGroup->GetParentNode()->SetPosition( vPos );

  0002a	8b 4e 04	 mov	 ecx, DWORD PTR [esi+4]
  0002d	8b 01		 mov	 eax, DWORD PTR [ecx]
  0002f	ff 50 30	 call	 DWORD PTR [eax+48]
  00032	ff 75 08	 push	 DWORD PTR _vPos$[ebp]
  00035	8b 10		 mov	 edx, DWORD PTR [eax]
  00037	8b c8		 mov	 ecx, eax
  00039	ff 52 14	 call	 DWORD PTR [edx+20]

; 221  : 
; 222  : 		NeedUpdateBound();
; 223  : 		NeedUpdateBottomHeight();

  0003c	8b 06		 mov	 eax, DWORD PTR [esi]
  0003e	8b ce		 mov	 ecx, esi
  00040	c6 86 88 00 00
	00 01		 mov	 BYTE PTR [esi+136], 1
  00047	ff 50 40	 call	 DWORD PTR [eax+64]
$LN1@SetWorldPo:
  0004a	5e		 pop	 esi

; 224  : 	}
; 225  : }

  0004b	5d		 pop	 ebp
  0004c	c2 04 00	 ret	 4
?SetWorldPosition@ioGameEntity@@UAEXABUD3DXVECTOR3@@@Z ENDP ; ioGameEntity::SetWorldPosition
; Function compile flags: /Ogsp
_TEXT	ENDS
;	COMDAT ?SetWorldOrientation@ioGameEntity@@UAEXABUD3DXQUATERNION@@@Z
_TEXT	SEGMENT
_qtRot$ = 8						; size = 4
?SetWorldOrientation@ioGameEntity@@UAEXABUD3DXQUATERNION@@@Z PROC ; ioGameEntity::SetWorldOrientation, COMDAT
; _this$ = ecx

; 228  : {

  00000	55		 push	 ebp
  00001	8b ec		 mov	 ebp, esp
  00003	56		 push	 esi
  00004	8b f1		 mov	 esi, ecx

; 229  : 	m_pGroup->GetParentNode()->SetOrientation( qtRot );

  00006	8b 4e 04	 mov	 ecx, DWORD PTR [esi+4]
  00009	8b 01		 mov	 eax, DWORD PTR [ecx]
  0000b	ff 50 30	 call	 DWORD PTR [eax+48]
  0000e	ff 75 08	 push	 DWORD PTR _qtRot$[ebp]
  00011	8b 10		 mov	 edx, DWORD PTR [eax]
  00013	8b c8		 mov	 ecx, eax
  00015	ff 52 08	 call	 DWORD PTR [edx+8]

; 230  : 	
; 231  : 	NeedUpdateBound();
; 232  : 	NeedUpdateBottomHeight();

  00018	8b 06		 mov	 eax, DWORD PTR [esi]
  0001a	8b ce		 mov	 ecx, esi
  0001c	c6 86 88 00 00
	00 01		 mov	 BYTE PTR [esi+136], 1
  00023	ff 50 40	 call	 DWORD PTR [eax+64]
  00026	5e		 pop	 esi

; 233  : }

  00027	5d		 pop	 ebp
  00028	c2 04 00	 ret	 4
?SetWorldOrientation@ioGameEntity@@UAEXABUD3DXQUATERNION@@@Z ENDP ; ioGameEntity::SetWorldOrientation
; Function compile flags: /Ogsp
_TEXT	ENDS
;	COMDAT ?SetWorldScale@ioGameEntity@@UAEXABUD3DXVECTOR3@@@Z
_TEXT	SEGMENT
_vScale$ = 8						; size = 4
?SetWorldScale@ioGameEntity@@UAEXABUD3DXVECTOR3@@@Z PROC ; ioGameEntity::SetWorldScale, COMDAT
; _this$ = ecx

; 236  : {

  00000	55		 push	 ebp
  00001	8b ec		 mov	 ebp, esp
  00003	56		 push	 esi
  00004	8b f1		 mov	 esi, ecx

; 237  : 	m_pGroup->GetParentNode()->SetScale( vScale );

  00006	8b 4e 04	 mov	 ecx, DWORD PTR [esi+4]
  00009	8b 01		 mov	 eax, DWORD PTR [ecx]
  0000b	ff 50 30	 call	 DWORD PTR [eax+48]
  0000e	ff 75 08	 push	 DWORD PTR _vScale$[ebp]
  00011	8b 10		 mov	 edx, DWORD PTR [eax]
  00013	8b c8		 mov	 ecx, eax
  00015	ff 52 20	 call	 DWORD PTR [edx+32]

; 238  : 	NeedUpdateBound();

  00018	c6 86 88 00 00
	00 01		 mov	 BYTE PTR [esi+136], 1
  0001f	5e		 pop	 esi

; 239  : }

  00020	5d		 pop	 ebp
  00021	c2 04 00	 ret	 4
?SetWorldScale@ioGameEntity@@UAEXABUD3DXVECTOR3@@@Z ENDP ; ioGameEntity::SetWorldScale
; Function compile flags: /Ogsp
_TEXT	ENDS
;	COMDAT ?Translate@ioGameEntity@@UAEXABUD3DXVECTOR3@@@Z
_TEXT	SEGMENT
_vMove$ = 8						; size = 4
?Translate@ioGameEntity@@UAEXABUD3DXVECTOR3@@@Z PROC	; ioGameEntity::Translate, COMDAT
; _this$ = ecx

; 242  : {

  00000	55		 push	 ebp
  00001	8b ec		 mov	 ebp, esp
  00003	56		 push	 esi
  00004	8b f1		 mov	 esi, ecx

; 243  : 	m_pGroup->GetParentNode()->Translate( vMove );

  00006	8b 4e 04	 mov	 ecx, DWORD PTR [esi+4]
  00009	8b 01		 mov	 eax, DWORD PTR [ecx]
  0000b	ff 50 30	 call	 DWORD PTR [eax+48]
  0000e	8b 10		 mov	 edx, DWORD PTR [eax]
  00010	6a 01		 push	 1
  00012	ff 75 08	 push	 DWORD PTR _vMove$[ebp]
  00015	8b c8		 mov	 ecx, eax
  00017	ff 52 3c	 call	 DWORD PTR [edx+60]

; 244  : 	NeedUpdateBound();
; 245  : 	NeedUpdateBottomHeight();

  0001a	8b 06		 mov	 eax, DWORD PTR [esi]
  0001c	8b ce		 mov	 ecx, esi
  0001e	c6 86 88 00 00
	00 01		 mov	 BYTE PTR [esi+136], 1
  00025	ff 50 40	 call	 DWORD PTR [eax+64]
  00028	5e		 pop	 esi

; 246  : }

  00029	5d		 pop	 ebp
  0002a	c2 04 00	 ret	 4
?Translate@ioGameEntity@@UAEXABUD3DXVECTOR3@@@Z ENDP	; ioGameEntity::Translate
; Function compile flags: /Ogsp
_TEXT	ENDS
;	COMDAT ?TranslateByWorldEntity@ioGameEntity@@UAEXABUD3DXVECTOR3@@@Z
_TEXT	SEGMENT
_vMove$ = 8						; size = 4
?TranslateByWorldEntity@ioGameEntity@@UAEXABUD3DXVECTOR3@@@Z PROC ; ioGameEntity::TranslateByWorldEntity, COMDAT
; _this$ = ecx

; 249  : {

  00000	55		 push	 ebp
  00001	8b ec		 mov	 ebp, esp
  00003	56		 push	 esi
  00004	8b f1		 mov	 esi, ecx

; 250  : 	m_pGroup->GetParentNode()->Translate( vMove );

  00006	8b 4e 04	 mov	 ecx, DWORD PTR [esi+4]
  00009	8b 01		 mov	 eax, DWORD PTR [ecx]
  0000b	ff 50 30	 call	 DWORD PTR [eax+48]
  0000e	8b 10		 mov	 edx, DWORD PTR [eax]
  00010	6a 01		 push	 1
  00012	ff 75 08	 push	 DWORD PTR _vMove$[ebp]
  00015	8b c8		 mov	 ecx, eax
  00017	ff 52 3c	 call	 DWORD PTR [edx+60]

; 251  : 	NeedUpdateBound();
; 252  : 	NeedUpdateBottomHeight();

  0001a	8b 06		 mov	 eax, DWORD PTR [esi]
  0001c	8b ce		 mov	 ecx, esi
  0001e	c6 86 88 00 00
	00 01		 mov	 BYTE PTR [esi+136], 1
  00025	ff 50 40	 call	 DWORD PTR [eax+64]
  00028	5e		 pop	 esi

; 253  : }

  00029	5d		 pop	 ebp
  0002a	c2 04 00	 ret	 4
?TranslateByWorldEntity@ioGameEntity@@UAEXABUD3DXVECTOR3@@@Z ENDP ; ioGameEntity::TranslateByWorldEntity
; Function compile flags: /Ogsp
_TEXT	ENDS
;	COMDAT ?TranslateByConveyer@ioGameEntity@@UAEXABUD3DXVECTOR3@@@Z
_TEXT	SEGMENT
_vMove$ = 8						; size = 4
?TranslateByConveyer@ioGameEntity@@UAEXABUD3DXVECTOR3@@@Z PROC ; ioGameEntity::TranslateByConveyer, COMDAT
; _this$ = ecx

; 256  : {

  00000	55		 push	 ebp
  00001	8b ec		 mov	 ebp, esp
  00003	56		 push	 esi
  00004	8b f1		 mov	 esi, ecx

; 257  : 	m_pGroup->GetParentNode()->Translate( vMove );

  00006	8b 4e 04	 mov	 ecx, DWORD PTR [esi+4]
  00009	8b 01		 mov	 eax, DWORD PTR [ecx]
  0000b	ff 50 30	 call	 DWORD PTR [eax+48]
  0000e	8b 10		 mov	 edx, DWORD PTR [eax]
  00010	6a 01		 push	 1
  00012	ff 75 08	 push	 DWORD PTR _vMove$[ebp]
  00015	8b c8		 mov	 ecx, eax
  00017	ff 52 3c	 call	 DWORD PTR [edx+60]

; 258  : 	NeedUpdateBound();
; 259  : 	NeedUpdateBottomHeight();

  0001a	8b 06		 mov	 eax, DWORD PTR [esi]
  0001c	8b ce		 mov	 ecx, esi
  0001e	c6 86 88 00 00
	00 01		 mov	 BYTE PTR [esi+136], 1
  00025	ff 50 40	 call	 DWORD PTR [eax+64]
  00028	5e		 pop	 esi

; 260  : }

  00029	5d		 pop	 ebp
  0002a	c2 04 00	 ret	 4
?TranslateByConveyer@ioGameEntity@@UAEXABUD3DXVECTOR3@@@Z ENDP ; ioGameEntity::TranslateByConveyer
; Function compile flags: /Ogsp
_TEXT	ENDS
;	COMDAT ?Scale@ioGameEntity@@UAEXABUD3DXVECTOR3@@@Z
_TEXT	SEGMENT
_vScale$ = 8						; size = 4
?Scale@ioGameEntity@@UAEXABUD3DXVECTOR3@@@Z PROC	; ioGameEntity::Scale, COMDAT
; _this$ = ecx

; 273  : {

  00000	55		 push	 ebp
  00001	8b ec		 mov	 ebp, esp
  00003	56		 push	 esi
  00004	8b f1		 mov	 esi, ecx

; 274  : 	m_pGroup->GetParentNode()->Scale( vScale );

  00006	8b 4e 04	 mov	 ecx, DWORD PTR [esi+4]
  00009	8b 01		 mov	 eax, DWORD PTR [ecx]
  0000b	ff 50 30	 call	 DWORD PTR [eax+48]
  0000e	ff 75 08	 push	 DWORD PTR _vScale$[ebp]
  00011	8b 10		 mov	 edx, DWORD PTR [eax]
  00013	8b c8		 mov	 ecx, eax
  00015	ff 52 2c	 call	 DWORD PTR [edx+44]

; 275  : 	NeedUpdateBound();
; 276  : 	NeedUpdateBottomHeight();

  00018	8b 06		 mov	 eax, DWORD PTR [esi]
  0001a	8b ce		 mov	 ecx, esi
  0001c	c6 86 88 00 00
	00 01		 mov	 BYTE PTR [esi+136], 1
  00023	ff 50 40	 call	 DWORD PTR [eax+64]
  00026	5e		 pop	 esi

; 277  : }

  00027	5d		 pop	 ebp
  00028	c2 04 00	 ret	 4
?Scale@ioGameEntity@@UAEXABUD3DXVECTOR3@@@Z ENDP	; ioGameEntity::Scale
_TEXT	ENDS
PUBLIC	__$ArrayPad$
EXTRN	___security_cookie:DWORD
; Function compile flags: /Ogsp
;	COMDAT ?Scale@ioGameEntity@@UAEXMMM@Z
_TEXT	SEGMENT
$T505214 = -16						; size = 12
__$ArrayPad$ = -4					; size = 4
_fScaleX$ = 8						; size = 4
_fScaleY$ = 12						; size = 4
_fScaleZ$ = 16						; size = 4
?Scale@ioGameEntity@@UAEXMMM@Z PROC			; ioGameEntity::Scale, COMDAT
; _this$ = ecx

; 280  : {

  00000	55		 push	 ebp
  00001	8b ec		 mov	 ebp, esp
  00003	83 ec 10	 sub	 esp, 16			; 00000010H
  00006	a1 00 00 00 00	 mov	 eax, DWORD PTR ___security_cookie
  0000b	33 c5		 xor	 eax, ebp
  0000d	89 45 fc	 mov	 DWORD PTR __$ArrayPad$[ebp], eax
  00010	f3 0f 10 45 08	 movss	 xmm0, DWORD PTR _fScaleX$[ebp]

; 281  : 	Scale( D3DXVECTOR3( fScaleX, fScaleY, fScaleZ ) );

  00015	8b 01		 mov	 eax, DWORD PTR [ecx]
  00017	f3 0f 11 45 f0	 movss	 DWORD PTR $T505214[ebp], xmm0
  0001c	f3 0f 10 45 0c	 movss	 xmm0, DWORD PTR _fScaleY$[ebp]
  00021	8d 55 f0	 lea	 edx, DWORD PTR $T505214[ebp]
  00024	f3 0f 11 45 f4	 movss	 DWORD PTR $T505214[ebp+4], xmm0
  00029	f3 0f 10 45 10	 movss	 xmm0, DWORD PTR _fScaleZ$[ebp]
  0002e	52		 push	 edx
  0002f	f3 0f 11 45 f8	 movss	 DWORD PTR $T505214[ebp+8], xmm0
  00034	ff 50 6c	 call	 DWORD PTR [eax+108]

; 282  : }

  00037	8b 4d fc	 mov	 ecx, DWORD PTR __$ArrayPad$[ebp]
  0003a	33 cd		 xor	 ecx, ebp
  0003c	e8 00 00 00 00	 call	 @__security_check_cookie@4
  00041	c9		 leave
  00042	c2 0c 00	 ret	 12			; 0000000cH
?Scale@ioGameEntity@@UAEXMMM@Z ENDP			; ioGameEntity::Scale
; Function compile flags: /Ogsp
_TEXT	ENDS
;	COMDAT ?Rotate@ioGameEntity@@UAEXABUD3DXVECTOR3@@MW4TransformSpace@ioNode@@@Z
_TEXT	SEGMENT
_vAxis$ = 8						; size = 4
_fDegrees$ = 12						; size = 4
_eRelativeTo$ = 16					; size = 4
?Rotate@ioGameEntity@@UAEXABUD3DXVECTOR3@@MW4TransformSpace@ioNode@@@Z PROC ; ioGameEntity::Rotate, COMDAT
; _this$ = ecx

; 389  : {

  00000	55		 push	 ebp
  00001	8b ec		 mov	 ebp, esp
  00003	56		 push	 esi
  00004	8b f1		 mov	 esi, ecx

; 390  : 	m_pGroup->GetParentNode()->Rotate( vAxis, fDegrees, eRelativeTo );

  00006	8b 4e 04	 mov	 ecx, DWORD PTR [esi+4]
  00009	8b 01		 mov	 eax, DWORD PTR [ecx]
  0000b	ff 50 30	 call	 DWORD PTR [eax+48]
  0000e	ff 75 10	 push	 DWORD PTR _eRelativeTo$[ebp]
  00011	f3 0f 10 45 0c	 movss	 xmm0, DWORD PTR _fDegrees$[ebp]
  00016	8b 10		 mov	 edx, DWORD PTR [eax]
  00018	51		 push	 ecx
  00019	f3 0f 11 04 24	 movss	 DWORD PTR [esp], xmm0
  0001e	ff 75 08	 push	 DWORD PTR _vAxis$[ebp]
  00021	8b c8		 mov	 ecx, eax
  00023	ff 52 50	 call	 DWORD PTR [edx+80]

; 391  : 	NeedUpdateBound();
; 392  : 	NeedUpdateBottomHeight();

  00026	8b 06		 mov	 eax, DWORD PTR [esi]
  00028	8b ce		 mov	 ecx, esi
  0002a	c6 86 88 00 00
	00 01		 mov	 BYTE PTR [esi+136], 1
  00031	ff 50 40	 call	 DWORD PTR [eax+64]
  00034	5e		 pop	 esi

; 393  : }

  00035	5d		 pop	 ebp
  00036	c2 0c 00	 ret	 12			; 0000000cH
?Rotate@ioGameEntity@@UAEXABUD3DXVECTOR3@@MW4TransformSpace@ioNode@@@Z ENDP ; ioGameEntity::Rotate
_TEXT	ENDS
EXTRN	??3@YAXPAX@Z:PROC				; operator delete
; Function compile flags: /Ogsp
;	COMDAT ??_GioGameEntity@@UAEPAXI@Z
_TEXT	SEGMENT
___flags$ = 8						; size = 4
??_GioGameEntity@@UAEPAXI@Z PROC			; ioGameEntity::`scalar deleting destructor', COMDAT
; _this$ = ecx
  00000	55		 push	 ebp
  00001	8b ec		 mov	 ebp, esp
  00003	56		 push	 esi
  00004	8b f1		 mov	 esi, ecx
  00006	e8 00 00 00 00	 call	 ??1ioGameEntity@@UAE@XZ	; ioGameEntity::~ioGameEntity
  0000b	f6 45 08 01	 test	 BYTE PTR ___flags$[ebp], 1
  0000f	74 07		 je	 SHORT $LN1@scalar
  00011	56		 push	 esi
  00012	e8 00 00 00 00	 call	 ??3@YAXPAX@Z		; operator delete
  00017	59		 pop	 ecx
$LN1@scalar:
  00018	8b c6		 mov	 eax, esi
  0001a	5e		 pop	 esi
  0001b	5d		 pop	 ebp
  0001c	c2 04 00	 ret	 4
??_GioGameEntity@@UAEPAXI@Z ENDP			; ioGameEntity::`scalar deleting destructor'
_TEXT	ENDS
PUBLIC	__real@4f800000
EXTRN	__imp_?UpdateAttachedObjects@ioEntityGroup@@QAEXM@Z:PROC
;	COMDAT __real@4f800000
; File d:\lost saga for developer\youtube\tutorial\source\src\lsclient\stdafx.h
CONST	SEGMENT
__real@4f800000 DD 04f800000r			; 4.29497e+009
; Function compile flags: /Ogsp
; File d:\lost saga for developer\youtube\tutorial\source\src\lsclient\iogameentity.cpp
CONST	ENDS
;	COMDAT ?UpdateAfter@ioGameEntity@@UAEXM@Z
_TEXT	SEGMENT
tv131 = 8						; size = 4
tv66 = 8						; size = 4
_fFrameGap$ = 8						; size = 4
?UpdateAfter@ioGameEntity@@UAEXM@Z PROC			; ioGameEntity::UpdateAfter, COMDAT
; _this$ = ecx

; 64   : {

  00000	55		 push	 ebp
  00001	8b ec		 mov	 ebp, esp
  00003	56		 push	 esi
  00004	8b f1		 mov	 esi, ecx

; 65   : 	if( m_pGroup )

  00006	8b 4e 04	 mov	 ecx, DWORD PTR [esi+4]
  00009	85 c9		 test	 ecx, ecx
  0000b	74 11		 je	 SHORT $LN1@UpdateAfte

; 66   : 	{
; 67   : 		m_pGroup->UpdateAttachedObjects( fFrameGap );

  0000d	f3 0f 10 45 08	 movss	 xmm0, DWORD PTR _fFrameGap$[ebp]
  00012	51		 push	 ecx
  00013	f3 0f 11 04 24	 movss	 DWORD PTR [esp], xmm0
  00018	ff 15 00 00 00
	00		 call	 DWORD PTR __imp_?UpdateAttachedObjects@ioEntityGroup@@QAEXM@Z
$LN1@UpdateAfte:

; 68   : 	}
; 69   : 
; 70   : 	ProcessAlphaRate( fFrameGap / FLOAT1000 );

  0001e	b8 e8 03 00 00	 mov	 eax, 1000		; 000003e8H
  00023	d9 45 08	 fld	 DWORD PTR _fFrameGap$[ebp]
  00026	89 45 08	 mov	 DWORD PTR tv131[ebp], eax
  00029	db 45 08	 fild	 DWORD PTR tv131[ebp]
  0002c	85 c0		 test	 eax, eax
  0002e	79 06		 jns	 SHORT $LN6@UpdateAfte
  00030	d8 05 00 00 00
	00		 fadd	 DWORD PTR __real@4f800000
$LN6@UpdateAfte:
  00036	de f9		 fdivp	 ST(1), ST(0)
  00038	51		 push	 ecx
  00039	8b ce		 mov	 ecx, esi
  0003b	d9 5d 08	 fstp	 DWORD PTR tv66[ebp]
  0003e	d9 45 08	 fld	 DWORD PTR tv66[ebp]
  00041	d9 1c 24	 fstp	 DWORD PTR [esp]
  00044	e8 00 00 00 00	 call	 ?ProcessAlphaRate@ioGameEntity@@IAEXM@Z ; ioGameEntity::ProcessAlphaRate
  00049	5e		 pop	 esi

; 71   : }

  0004a	5d		 pop	 ebp
  0004b	c2 04 00	 ret	 4
?UpdateAfter@ioGameEntity@@UAEXM@Z ENDP			; ioGameEntity::UpdateAfter
_TEXT	ENDS
END
