; Listing generated by Microsoft (R) Optimizing Compiler Version 16.00.30319.01 

	TITLE	D:\Lost Saga For Developer\Youtube\Tutorial\Source\src\LSClient\ioGrapplingBlowLoopSkill.cpp
	.686P
	.XMM
	include listing.inc
	.model	flat

INCLUDELIB MSVCRT
INCLUDELIB OLDNAMES

PUBLIC	?_EEM_DS@?$deque@UD3DXVECTOR3@@V?$allocator@UD3DXVECTOR3@@@std@@@std@@2HB ; std::deque<D3DXVECTOR3,std::allocator<D3DXVECTOR3> >::_EEM_DS
;	COMDAT ?_EEM_DS@?$deque@UD3DXVECTOR3@@V?$allocator@UD3DXVECTOR3@@@std@@@std@@2HB
CONST	SEGMENT
?_EEM_DS@?$deque@UD3DXVECTOR3@@V?$allocator@UD3DXVECTOR3@@@std@@@std@@2HB DD 01H ; std::deque<D3DXVECTOR3,std::allocator<D3DXVECTOR3> >::_EEM_DS
CONST	ENDS
PUBLIC	?return1@@YAIXZ					; return1
; Function compile flags: /Ogsp
; File d:\lost saga for developer\youtube\tutorial\source\src\lsclient\stdafx.h
;	COMDAT ?return1@@YAIXZ
_TEXT	SEGMENT
?return1@@YAIXZ PROC					; return1, COMDAT

; 17   : 	__forceinline unsigned int return1() { __asm mov eax, 1 };

  00000	b8 01 00 00 00	 mov	 eax, 1
  00005	c3		 ret	 0
?return1@@YAIXZ ENDP					; return1
_TEXT	ENDS
PUBLIC	?return5@@YAIXZ					; return5
; Function compile flags: /Ogsp
;	COMDAT ?return5@@YAIXZ
_TEXT	SEGMENT
?return5@@YAIXZ PROC					; return5, COMDAT

; 18   : 	__forceinline unsigned int return5() { __asm mov eax, 5 };

  00000	b8 05 00 00 00	 mov	 eax, 5
  00005	c3		 ret	 0
?return5@@YAIXZ ENDP					; return5
_TEXT	ENDS
PUBLIC	?return10@@YAIXZ				; return10
; Function compile flags: /Ogsp
;	COMDAT ?return10@@YAIXZ
_TEXT	SEGMENT
?return10@@YAIXZ PROC					; return10, COMDAT

; 21   : 	__forceinline unsigned int return10() { __asm mov eax, 10 };

  00000	b8 0a 00 00 00	 mov	 eax, 10			; 0000000aH
  00005	c3		 ret	 0
?return10@@YAIXZ ENDP					; return10
_TEXT	ENDS
PUBLIC	?return100@@YAIXZ				; return100
; Function compile flags: /Ogsp
;	COMDAT ?return100@@YAIXZ
_TEXT	SEGMENT
?return100@@YAIXZ PROC					; return100, COMDAT

; 25   : 	__forceinline unsigned int return100() { __asm mov eax, 100 };

  00000	b8 64 00 00 00	 mov	 eax, 100		; 00000064H
  00005	c3		 ret	 0
?return100@@YAIXZ ENDP					; return100
_TEXT	ENDS
PUBLIC	?return360@@YAIXZ				; return360
; Function compile flags: /Ogsp
;	COMDAT ?return360@@YAIXZ
_TEXT	SEGMENT
?return360@@YAIXZ PROC					; return360, COMDAT

; 27   : 	__forceinline unsigned int return360() { __asm mov eax, 360 };

  00000	b8 68 01 00 00	 mov	 eax, 360		; 00000168H
  00005	c3		 ret	 0
?return360@@YAIXZ ENDP					; return360
_TEXT	ENDS
PUBLIC	?return1000@@YAIXZ				; return1000
; Function compile flags: /Ogsp
;	COMDAT ?return1000@@YAIXZ
_TEXT	SEGMENT
?return1000@@YAIXZ PROC					; return1000, COMDAT

; 29   : 	__forceinline unsigned int return1000() { __asm mov eax, 1000 };

  00000	b8 e8 03 00 00	 mov	 eax, 1000		; 000003e8H
  00005	c3		 ret	 0
?return1000@@YAIXZ ENDP					; return1000
_TEXT	ENDS
PUBLIC	?GetState@ioBaseChar@@QBE?AW4CharState@@XZ	; ioBaseChar::GetState
; Function compile flags: /Ogsp
; File d:\lost saga for developer\youtube\tutorial\source\src\lsclient\iobasechar.h
;	COMDAT ?GetState@ioBaseChar@@QBE?AW4CharState@@XZ
_TEXT	SEGMENT
?GetState@ioBaseChar@@QBE?AW4CharState@@XZ PROC		; ioBaseChar::GetState, COMDAT
; _this$ = ecx

; 2156 : 	inline CharState GetState() const { return m_CharState; }	

  00000	8a 81 10 03 00
	00		 mov	 al, BYTE PTR [ecx+784]
  00006	c3		 ret	 0
?GetState@ioBaseChar@@QBE?AW4CharState@@XZ ENDP		; ioBaseChar::GetState
_TEXT	ENDS
PUBLIC	?GetCharName@ioBaseChar@@QBEABVioHashString@@XZ	; ioBaseChar::GetCharName
; Function compile flags: /Ogsp
;	COMDAT ?GetCharName@ioBaseChar@@QBEABVioHashString@@XZ
_TEXT	SEGMENT
?GetCharName@ioBaseChar@@QBEABVioHashString@@XZ PROC	; ioBaseChar::GetCharName, COMDAT
; _this$ = ecx

; 2594 : 	inline const ioHashString& GetCharName() const { return m_Name; }

  00000	8d 81 d4 02 00
	00		 lea	 eax, DWORD PTR [ecx+724]
  00006	c3		 ret	 0
?GetCharName@ioBaseChar@@QBEABVioHashString@@XZ ENDP	; ioBaseChar::GetCharName
_TEXT	ENDS
PUBLIC	?GetMoveDir@ioBaseChar@@QBEABUD3DXVECTOR3@@XZ	; ioBaseChar::GetMoveDir
; Function compile flags: /Ogsp
;	COMDAT ?GetMoveDir@ioBaseChar@@QBEABUD3DXVECTOR3@@XZ
_TEXT	SEGMENT
?GetMoveDir@ioBaseChar@@QBEABUD3DXVECTOR3@@XZ PROC	; ioBaseChar::GetMoveDir, COMDAT
; _this$ = ecx

; 2596 : 	inline const D3DXVECTOR3& GetMoveDir() const { return m_vMoveDir; }

  00000	8d 81 b4 06 00
	00		 lea	 eax, DWORD PTR [ecx+1716]
  00006	c3		 ret	 0
?GetMoveDir@ioBaseChar@@QBEABUD3DXVECTOR3@@XZ ENDP	; ioBaseChar::GetMoveDir
_TEXT	ENDS
PUBLIC	?GetTargetRot@ioBaseChar@@QBEABUD3DXQUATERNION@@XZ ; ioBaseChar::GetTargetRot
; Function compile flags: /Ogsp
;	COMDAT ?GetTargetRot@ioBaseChar@@QBEABUD3DXQUATERNION@@XZ
_TEXT	SEGMENT
?GetTargetRot@ioBaseChar@@QBEABUD3DXQUATERNION@@XZ PROC	; ioBaseChar::GetTargetRot, COMDAT
; _this$ = ecx

; 2599 : 	inline const D3DXQUATERNION& GetTargetRot() const { return m_qtTargetRot; }

  00000	8d 81 a4 06 00
	00		 lea	 eax, DWORD PTR [ecx+1700]
  00006	c3		 ret	 0
?GetTargetRot@ioBaseChar@@QBEABUD3DXQUATERNION@@XZ ENDP	; ioBaseChar::GetTargetRot
_TEXT	ENDS
PUBLIC	_acosf
EXTRN	__fltused:DWORD
EXTRN	__CIacos:PROC
; Function compile flags: /Ogsp
; File c:\program files (x86)\microsoft visual studio 10.0\vc\include\math.h
;	COMDAT _acosf
_TEXT	SEGMENT
tv69 = 8						; size = 4
__X$ = 8						; size = 4
_acosf	PROC						; COMDAT

; 400  :         {return ((float)acos((double)_X)); }

  00000	55		 push	 ebp
  00001	8b ec		 mov	 ebp, esp
  00003	d9 45 08	 fld	 DWORD PTR __X$[ebp]
  00006	e8 00 00 00 00	 call	 __CIacos
  0000b	d9 5d 08	 fstp	 DWORD PTR tv69[ebp]
  0000e	d9 45 08	 fld	 DWORD PTR tv69[ebp]
  00011	5d		 pop	 ebp
  00012	c3		 ret	 0
_acosf	ENDP
_TEXT	ENDS
PUBLIC	??_7bad_alloc@std@@6B@				; std::bad_alloc::`vftable'
PUBLIC	??0bad_alloc@std@@QAE@PBD@Z			; std::bad_alloc::bad_alloc
PUBLIC	??_R4bad_alloc@std@@6B@				; std::bad_alloc::`RTTI Complete Object Locator'
PUBLIC	??_R0?AVbad_alloc@std@@@8			; std::bad_alloc `RTTI Type Descriptor'
PUBLIC	??_R3bad_alloc@std@@8				; std::bad_alloc::`RTTI Class Hierarchy Descriptor'
PUBLIC	??_R2bad_alloc@std@@8				; std::bad_alloc::`RTTI Base Class Array'
PUBLIC	??_R1A@?0A@EA@bad_alloc@std@@8			; std::bad_alloc::`RTTI Base Class Descriptor at (0,-1,0,64)'
PUBLIC	??_R1A@?0A@EA@exception@std@@8			; std::exception::`RTTI Base Class Descriptor at (0,-1,0,64)'
PUBLIC	??_R0?AVexception@std@@@8			; std::exception `RTTI Type Descriptor'
PUBLIC	??_R3exception@std@@8				; std::exception::`RTTI Class Hierarchy Descriptor'
PUBLIC	??_R2exception@std@@8				; std::exception::`RTTI Base Class Array'
EXTRN	__imp_??0exception@std@@QAE@ABQBD@Z:PROC
EXTRN	??_7type_info@@6B@:QWORD			; type_info::`vftable'
EXTRN	??_Ebad_alloc@std@@UAEPAXI@Z:PROC		; std::bad_alloc::`vector deleting destructor'
EXTRN	?what@exception@std@@UBEPBDXZ:PROC		; std::exception::what
;	COMDAT ??_R2exception@std@@8
; File c:\program files (x86)\microsoft visual studio 10.0\vc\include\exception
rdata$r	SEGMENT
??_R2exception@std@@8 DD FLAT:??_R1A@?0A@EA@exception@std@@8 ; std::exception::`RTTI Base Class Array'
rdata$r	ENDS
;	COMDAT ??_R3exception@std@@8
rdata$r	SEGMENT
??_R3exception@std@@8 DD 00H				; std::exception::`RTTI Class Hierarchy Descriptor'
	DD	00H
	DD	01H
	DD	FLAT:??_R2exception@std@@8
rdata$r	ENDS
;	COMDAT ??_R0?AVexception@std@@@8
_DATA	SEGMENT
??_R0?AVexception@std@@@8 DD FLAT:??_7type_info@@6B@	; std::exception `RTTI Type Descriptor'
	DD	00H
	DB	'.?AVexception@std@@', 00H
_DATA	ENDS
;	COMDAT ??_R1A@?0A@EA@exception@std@@8
rdata$r	SEGMENT
??_R1A@?0A@EA@exception@std@@8 DD FLAT:??_R0?AVexception@std@@@8 ; std::exception::`RTTI Base Class Descriptor at (0,-1,0,64)'
	DD	00H
	DD	00H
	DD	0ffffffffH
	DD	00H
	DD	040H
	DD	FLAT:??_R3exception@std@@8
rdata$r	ENDS
;	COMDAT ??_R1A@?0A@EA@bad_alloc@std@@8
rdata$r	SEGMENT
??_R1A@?0A@EA@bad_alloc@std@@8 DD FLAT:??_R0?AVbad_alloc@std@@@8 ; std::bad_alloc::`RTTI Base Class Descriptor at (0,-1,0,64)'
	DD	01H
	DD	00H
	DD	0ffffffffH
	DD	00H
	DD	040H
	DD	FLAT:??_R3bad_alloc@std@@8
rdata$r	ENDS
;	COMDAT ??_R2bad_alloc@std@@8
rdata$r	SEGMENT
??_R2bad_alloc@std@@8 DD FLAT:??_R1A@?0A@EA@bad_alloc@std@@8 ; std::bad_alloc::`RTTI Base Class Array'
	DD	FLAT:??_R1A@?0A@EA@exception@std@@8
rdata$r	ENDS
;	COMDAT ??_R3bad_alloc@std@@8
rdata$r	SEGMENT
??_R3bad_alloc@std@@8 DD 00H				; std::bad_alloc::`RTTI Class Hierarchy Descriptor'
	DD	00H
	DD	02H
	DD	FLAT:??_R2bad_alloc@std@@8
rdata$r	ENDS
;	COMDAT ??_R0?AVbad_alloc@std@@@8
_DATA	SEGMENT
??_R0?AVbad_alloc@std@@@8 DD FLAT:??_7type_info@@6B@	; std::bad_alloc `RTTI Type Descriptor'
	DD	00H
	DB	'.?AVbad_alloc@std@@', 00H
_DATA	ENDS
;	COMDAT ??_R4bad_alloc@std@@6B@
rdata$r	SEGMENT
??_R4bad_alloc@std@@6B@ DD 00H				; std::bad_alloc::`RTTI Complete Object Locator'
	DD	00H
	DD	00H
	DD	FLAT:??_R0?AVbad_alloc@std@@@8
	DD	FLAT:??_R3bad_alloc@std@@8
rdata$r	ENDS
;	COMDAT ??_7bad_alloc@std@@6B@
CONST	SEGMENT
??_7bad_alloc@std@@6B@ DD FLAT:??_R4bad_alloc@std@@6B@	; std::bad_alloc::`vftable'
	DD	FLAT:??_Ebad_alloc@std@@UAEPAXI@Z
	DD	FLAT:?what@exception@std@@UBEPBDXZ
; Function compile flags: /Ogsp
CONST	ENDS
;	COMDAT ??0bad_alloc@std@@QAE@PBD@Z
_TEXT	SEGMENT
__Message$ = 8						; size = 4
??0bad_alloc@std@@QAE@PBD@Z PROC			; std::bad_alloc::bad_alloc, COMDAT
; _this$ = ecx

; 345  : 		{	// construct from message string

  00000	55		 push	 ebp
  00001	8b ec		 mov	 ebp, esp
  00003	56		 push	 esi
  00004	8d 45 08	 lea	 eax, DWORD PTR __Message$[ebp]
  00007	50		 push	 eax
  00008	8b f1		 mov	 esi, ecx
  0000a	ff 15 00 00 00
	00		 call	 DWORD PTR __imp_??0exception@std@@QAE@ABQBD@Z
  00010	c7 06 00 00 00
	00		 mov	 DWORD PTR [esi], OFFSET ??_7bad_alloc@std@@6B@

; 346  : 		}

  00016	8b c6		 mov	 eax, esi
  00018	5e		 pop	 esi
  00019	5d		 pop	 ebp
  0001a	c2 04 00	 ret	 4
??0bad_alloc@std@@QAE@PBD@Z ENDP			; std::bad_alloc::bad_alloc
_TEXT	ENDS
PUBLIC	??1bad_alloc@std@@UAE@XZ			; std::bad_alloc::~bad_alloc
EXTRN	__imp_??1exception@std@@UAE@XZ:PROC
; Function compile flags: /Ogsp
;	COMDAT ??1bad_alloc@std@@UAE@XZ
_TEXT	SEGMENT
??1bad_alloc@std@@UAE@XZ PROC				; std::bad_alloc::~bad_alloc, COMDAT
; _this$ = ecx

; 354  : 		{	// destroy the object

  00000	c7 01 00 00 00
	00		 mov	 DWORD PTR [ecx], OFFSET ??_7bad_alloc@std@@6B@

; 355  : 		}

  00006	ff 25 00 00 00
	00		 jmp	 DWORD PTR __imp_??1exception@std@@UAE@XZ
??1bad_alloc@std@@UAE@XZ ENDP				; std::bad_alloc::~bad_alloc
_TEXT	ENDS
EXTRN	??3@YAXPAX@Z:PROC				; operator delete
; Function compile flags: /Ogsp
;	COMDAT ??_Gbad_alloc@std@@UAEPAXI@Z
_TEXT	SEGMENT
___flags$ = 8						; size = 4
??_Gbad_alloc@std@@UAEPAXI@Z PROC			; std::bad_alloc::`scalar deleting destructor', COMDAT
; _this$ = ecx
  00000	55		 push	 ebp
  00001	8b ec		 mov	 ebp, esp
  00003	56		 push	 esi
  00004	8b f1		 mov	 esi, ecx
  00006	c7 06 00 00 00
	00		 mov	 DWORD PTR [esi], OFFSET ??_7bad_alloc@std@@6B@
  0000c	ff 15 00 00 00
	00		 call	 DWORD PTR __imp_??1exception@std@@UAE@XZ
  00012	f6 45 08 01	 test	 BYTE PTR ___flags$[ebp], 1
  00016	74 07		 je	 SHORT $LN1@scalar
  00018	56		 push	 esi
  00019	e8 00 00 00 00	 call	 ??3@YAXPAX@Z		; operator delete
  0001e	59		 pop	 ecx
$LN1@scalar:
  0001f	8b c6		 mov	 eax, esi
  00021	5e		 pop	 esi
  00022	5d		 pop	 ebp
  00023	c2 04 00	 ret	 4
??_Gbad_alloc@std@@UAEPAXI@Z ENDP			; std::bad_alloc::`scalar deleting destructor'
_TEXT	ENDS
PUBLIC	?GetGrapplingAttacker@ioBaseChar@@QBE?BVioHashString@@XZ ; ioBaseChar::GetGrapplingAttacker
EXTRN	__imp_??0ioHashString@@QAE@ABV0@@Z:PROC
; Function compile flags: /Ogsp
; File d:\lost saga for developer\youtube\tutorial\source\src\lsclient\iobasechar.h
;	COMDAT ?GetGrapplingAttacker@ioBaseChar@@QBE?BVioHashString@@XZ
_TEXT	SEGMENT
$T556102 = -4						; size = 4
___$ReturnUdt$ = 8					; size = 4
?GetGrapplingAttacker@ioBaseChar@@QBE?BVioHashString@@XZ PROC ; ioBaseChar::GetGrapplingAttacker, COMDAT
; _this$ = ecx

; 3543 : 	inline const ioHashString GetGrapplingAttacker() const { return m_GrapplingAttacker; }

  00000	55		 push	 ebp
  00001	8b ec		 mov	 ebp, esp
  00003	51		 push	 ecx
  00004	83 65 fc 00	 and	 DWORD PTR $T556102[ebp], 0
  00008	81 c1 8c 34 00
	00		 add	 ecx, 13452		; 0000348cH
  0000e	51		 push	 ecx
  0000f	8b 4d 08	 mov	 ecx, DWORD PTR ___$ReturnUdt$[ebp]
  00012	ff 15 00 00 00
	00		 call	 DWORD PTR __imp_??0ioHashString@@QAE@ABV0@@Z
  00018	8b 45 08	 mov	 eax, DWORD PTR ___$ReturnUdt$[ebp]
  0001b	c9		 leave
  0001c	c2 04 00	 ret	 4
?GetGrapplingAttacker@ioBaseChar@@QBE?BVioHashString@@XZ ENDP ; ioBaseChar::GetGrapplingAttacker
_TEXT	ENDS
PUBLIC	??2@YAPAXIPAX@Z					; operator new
; Function compile flags: /Ogsp
; File c:\program files (x86)\microsoft visual studio 10.0\vc\include\new
;	COMDAT ??2@YAPAXIPAX@Z
_TEXT	SEGMENT
___formal$ = 8						; size = 4
__Where$ = 12						; size = 4
??2@YAPAXIPAX@Z PROC					; operator new, COMDAT

; 56   : 	{	// construct array with placement at _Where

  00000	55		 push	 ebp
  00001	8b ec		 mov	 ebp, esp

; 57   : 	return (_Where);

  00003	8b 45 0c	 mov	 eax, DWORD PTR __Where$[ebp]

; 58   : 	}

  00006	5d		 pop	 ebp
  00007	c3		 ret	 0
??2@YAPAXIPAX@Z ENDP					; operator new
_TEXT	ENDS
PUBLIC	??3@YAXPAX0@Z					; operator delete
; Function compile flags: /Ogsp
;	COMDAT ??3@YAXPAX0@Z
_TEXT	SEGMENT
___formal$ = 8						; size = 4
___formal$ = 12						; size = 4
??3@YAXPAX0@Z PROC					; operator delete, COMDAT

; 62   : 	}

  00000	c3		 ret	 0
??3@YAXPAX0@Z ENDP					; operator delete
_TEXT	ENDS
PUBLIC	?GetCreator@ioBaseChar@@QAEPAVioPlayStage@@XZ	; ioBaseChar::GetCreator
; Function compile flags: /Ogsp
; File d:\lost saga for developer\youtube\tutorial\source\src\lsclient\iobasechar.h
;	COMDAT ?GetCreator@ioBaseChar@@QAEPAVioPlayStage@@XZ
_TEXT	SEGMENT
?GetCreator@ioBaseChar@@QAEPAVioPlayStage@@XZ PROC	; ioBaseChar::GetCreator, COMDAT
; _this$ = ecx

; 4013 : 	inline ioPlayStage* GetCreator() { return m_pCreator; }

  00000	8b 81 44 03 00
	00		 mov	 eax, DWORD PTR [ecx+836]
  00006	c3		 ret	 0
?GetCreator@ioBaseChar@@QAEPAVioPlayStage@@XZ ENDP	; ioBaseChar::GetCreator
_TEXT	ENDS
PUBLIC	?CheckGhostState@ioBaseChar@@QBE_NXZ		; ioBaseChar::CheckGhostState
; Function compile flags: /Ogsp
;	COMDAT ?CheckGhostState@ioBaseChar@@QBE_NXZ
_TEXT	SEGMENT
?CheckGhostState@ioBaseChar@@QBE_NXZ PROC		; ioBaseChar::CheckGhostState, COMDAT
; _this$ = ecx

; 4031 : 	inline bool CheckGhostState() const { return m_bUseGhostState; }

  00000	8a 81 e4 38 00
	00		 mov	 al, BYTE PTR [ecx+14564]
  00006	c3		 ret	 0
?CheckGhostState@ioBaseChar@@QBE_NXZ ENDP		; ioBaseChar::CheckGhostState
_TEXT	ENDS
PUBLIC	?GetPreHeightForGhostState@ioBaseChar@@QBEMXZ	; ioBaseChar::GetPreHeightForGhostState
; Function compile flags: /Ogsp
;	COMDAT ?GetPreHeightForGhostState@ioBaseChar@@QBEMXZ
_TEXT	SEGMENT
?GetPreHeightForGhostState@ioBaseChar@@QBEMXZ PROC	; ioBaseChar::GetPreHeightForGhostState, COMDAT
; _this$ = ecx

; 4033 : 	float GetPreHeightForGhostState() const { return m_fPreHeightForGhostState; }

  00000	d9 81 e0 38 00
	00		 fld	 DWORD PTR [ecx+14560]
  00006	c3		 ret	 0
?GetPreHeightForGhostState@ioBaseChar@@QBEMXZ ENDP	; ioBaseChar::GetPreHeightForGhostState
_TEXT	ENDS
PUBLIC	??_R0?AVioWeapon@@@8				; ioWeapon `RTTI Type Descriptor'
PUBLIC	??_R0?AVioZoneEffectWeapon@@@8			; ioZoneEffectWeapon `RTTI Type Descriptor'
PUBLIC	?ToZoneEffectWeapon@@YAPAVioZoneEffectWeapon@@PAVioWeapon@@@Z ; ToZoneEffectWeapon
EXTRN	___RTDynamicCast:PROC
;	COMDAT ??_R0?AVioWeapon@@@8
; File d:\lost saga for developer\youtube\tutorial\source\src\lsclient\iozoneeffectweapon.h
_DATA	SEGMENT
??_R0?AVioWeapon@@@8 DD FLAT:??_7type_info@@6B@		; ioWeapon `RTTI Type Descriptor'
	DD	00H
	DB	'.?AVioWeapon@@', 00H
_DATA	ENDS
;	COMDAT ??_R0?AVioZoneEffectWeapon@@@8
_DATA	SEGMENT
??_R0?AVioZoneEffectWeapon@@@8 DD FLAT:??_7type_info@@6B@ ; ioZoneEffectWeapon `RTTI Type Descriptor'
	DD	00H
	DB	'.?AVioZoneEffectWeapon@@', 00H
; Function compile flags: /Ogsp
_DATA	ENDS
;	COMDAT ?ToZoneEffectWeapon@@YAPAVioZoneEffectWeapon@@PAVioWeapon@@@Z
_TEXT	SEGMENT
_pWeapon$ = 8						; size = 4
?ToZoneEffectWeapon@@YAPAVioZoneEffectWeapon@@PAVioWeapon@@@Z PROC ; ToZoneEffectWeapon, COMDAT

; 217  : {

  00000	55		 push	 ebp
  00001	8b ec		 mov	 ebp, esp
  00003	56		 push	 esi

; 218  : 	if( !pWeapon || pWeapon->GetType() != ioWeapon::WT_ZONE_EFFECT )

  00004	8b 75 08	 mov	 esi, DWORD PTR _pWeapon$[ebp]
  00007	85 f6		 test	 esi, esi
  00009	74 28		 je	 SHORT $LN1@ToZoneEffe
  0000b	8b 06		 mov	 eax, DWORD PTR [esi]
  0000d	8b ce		 mov	 ecx, esi
  0000f	ff 90 10 01 00
	00		 call	 DWORD PTR [eax+272]
  00015	83 f8 08	 cmp	 eax, 8
  00018	75 19		 jne	 SHORT $LN1@ToZoneEffe

; 220  : 
; 221  : 	return dynamic_cast< ioZoneEffectWeapon* >( pWeapon );

  0001a	6a 00		 push	 0
  0001c	68 00 00 00 00	 push	 OFFSET ??_R0?AVioZoneEffectWeapon@@@8
  00021	68 00 00 00 00	 push	 OFFSET ??_R0?AVioWeapon@@@8
  00026	6a 00		 push	 0
  00028	56		 push	 esi
  00029	e8 00 00 00 00	 call	 ___RTDynamicCast
  0002e	83 c4 14	 add	 esp, 20			; 00000014H
  00031	eb 02		 jmp	 SHORT $LN3@ToZoneEffe
$LN1@ToZoneEffe:

; 219  : 		return NULL;

  00033	33 c0		 xor	 eax, eax
$LN3@ToZoneEffe:
  00035	5e		 pop	 esi

; 222  : }

  00036	5d		 pop	 ebp
  00037	c3		 ret	 0
?ToZoneEffectWeapon@@YAPAVioZoneEffectWeapon@@PAVioWeapon@@@Z ENDP ; ToZoneEffectWeapon
_TEXT	ENDS
PUBLIC	?_Adopt@_Iterator_base0@std@@QAEXPBX@Z		; std::_Iterator_base0::_Adopt
; Function compile flags: /Ogsp
; File c:\program files (x86)\microsoft visual studio 10.0\vc\include\xutility
;	COMDAT ?_Adopt@_Iterator_base0@std@@QAEXPBX@Z
_TEXT	SEGMENT
___formal$ = 8						; size = 4
?_Adopt@_Iterator_base0@std@@QAEXPBX@Z PROC		; std::_Iterator_base0::_Adopt, COMDAT
; _this$ = ecx

; 49   : 		}

  00000	c2 04 00	 ret	 4
?_Adopt@_Iterator_base0@std@@QAEXPBX@Z ENDP		; std::_Iterator_base0::_Adopt
_TEXT	ENDS
PUBLIC	?OnSkillStart@ioGrapplingBlowLoopSkill@@UAE_NPAVioBaseChar@@@Z ; ioGrapplingBlowLoopSkill::OnSkillStart
EXTRN	?ShowWeaponItemMesh@ioBaseChar@@QAEX_N0@Z:PROC	; ioBaseChar::ShowWeaponItemMesh
EXTRN	?OnSkillStart@ioAttackSkill@@UAE_NPAVioBaseChar@@@Z:PROC ; ioAttackSkill::OnSkillStart
EXTRN	__imp_?Clear@ioHashString@@QAEXXZ:PROC
; Function compile flags: /Ogsp
; File d:\lost saga for developer\youtube\tutorial\source\src\lsclient\iograpplingblowloopskill.cpp
;	COMDAT ?OnSkillStart@ioGrapplingBlowLoopSkill@@UAE_NPAVioBaseChar@@@Z
_TEXT	SEGMENT
_pChar$ = 8						; size = 4
?OnSkillStart@ioGrapplingBlowLoopSkill@@UAE_NPAVioBaseChar@@@Z PROC ; ioGrapplingBlowLoopSkill::OnSkillStart, COMDAT
; _this$ = ecx

; 156  : {

  00000	55		 push	 ebp
  00001	8b ec		 mov	 ebp, esp
  00003	53		 push	 ebx
  00004	56		 push	 esi
  00005	8b f1		 mov	 esi, ecx

; 157  : 	m_SkillState = SS_NONE;

  00007	33 db		 xor	 ebx, ebx

; 158  : 	m_GrapplingTargetName.Clear();

  00009	8d 8e 70 11 00
	00		 lea	 ecx, DWORD PTR [esi+4464]
  0000f	89 9e fc 10 00
	00		 mov	 DWORD PTR [esi+4348], ebx
  00015	ff 15 00 00 00
	00		 call	 DWORD PTR __imp_?Clear@ioHashString@@QAEXXZ

; 159  : 
; 160  : 	m_dwSkillLoopStartTime = 0;
; 161  : 	m_dwSkillLoopEndTime = 0;
; 162  : 
; 163  : 	if( !ioAttackSkill::OnSkillStart( pChar ) )

  0001b	ff 75 08	 push	 DWORD PTR _pChar$[ebp]
  0001e	8b ce		 mov	 ecx, esi
  00020	89 9e 00 11 00
	00		 mov	 DWORD PTR [esi+4352], ebx
  00026	89 9e 04 11 00
	00		 mov	 DWORD PTR [esi+4356], ebx
  0002c	e8 00 00 00 00	 call	 ?OnSkillStart@ioAttackSkill@@UAE_NPAVioBaseChar@@@Z ; ioAttackSkill::OnSkillStart
  00031	84 c0		 test	 al, al
  00033	74 2c		 je	 SHORT $LN3@OnSkillSta
$LN2@OnSkillSta:

; 164  : 		return false;
; 165  : 
; 166  : 	m_bSetHandMesh = false;

  00035	88 9e 0a 0f 00
	00		 mov	 BYTE PTR [esi+3850], bl

; 167  : 
; 168  : 	// 기본 무기 손에서 제거
; 169  : 	if( m_bUseItemMesh )

  0003b	38 9e 08 0f 00
	00		 cmp	 BYTE PTR [esi+3848], bl
  00041	74 0a		 je	 SHORT $LN1@OnSkillSta

; 170  : 	{
; 171  : 		pChar->ShowWeaponItemMesh( false );

  00043	8b 4d 08	 mov	 ecx, DWORD PTR _pChar$[ebp]
  00046	53		 push	 ebx
  00047	53		 push	 ebx
  00048	e8 00 00 00 00	 call	 ?ShowWeaponItemMesh@ioBaseChar@@QAEX_N0@Z ; ioBaseChar::ShowWeaponItemMesh
$LN1@OnSkillSta:

; 172  : 	}
; 173  : 
; 174  : 	m_nCurJumpCnt = 0;

  0004d	89 9e e8 10 00
	00		 mov	 DWORD PTR [esi+4328], ebx

; 175  : 	m_CurDirKey = ioUserKeyInput::DKI_NONE;

  00053	89 9e 48 12 00
	00		 mov	 DWORD PTR [esi+4680], ebx

; 176  : 	m_PreDirKey = ioUserKeyInput::DKI_NONE;

  00059	89 9e 4c 12 00
	00		 mov	 DWORD PTR [esi+4684], ebx

; 177  : 
; 178  : 	return true;

  0005f	b0 01		 mov	 al, 1
$LN3@OnSkillSta:
  00061	5e		 pop	 esi
  00062	5b		 pop	 ebx

; 179  : }

  00063	5d		 pop	 ebp
  00064	c2 04 00	 ret	 4
?OnSkillStart@ioGrapplingBlowLoopSkill@@UAE_NPAVioBaseChar@@@Z ENDP ; ioGrapplingBlowLoopSkill::OnSkillStart
_TEXT	ENDS
PUBLIC	?IsSkillMotionEnd@ioGrapplingBlowLoopSkill@@UBE_NKPAVioBaseChar@@@Z ; ioGrapplingBlowLoopSkill::IsSkillMotionEnd
EXTRN	__imp_?GetLoopSec@ioFrameTimer@@QBEKXZ:PROC
EXTRN	__imp_?GetSingleton@ioFrameTimer@@SAAAV1@XZ:PROC
; Function compile flags: /Ogsp
;	COMDAT ?IsSkillMotionEnd@ioGrapplingBlowLoopSkill@@UBE_NKPAVioBaseChar@@@Z
_TEXT	SEGMENT
_dwActionStop$ = 8					; size = 4
_pOwner$ = 12						; size = 4
?IsSkillMotionEnd@ioGrapplingBlowLoopSkill@@UBE_NKPAVioBaseChar@@@Z PROC ; ioGrapplingBlowLoopSkill::IsSkillMotionEnd, COMDAT
; _this$ = ecx

; 720  : {

  00000	55		 push	 ebp
  00001	8b ec		 mov	 ebp, esp
  00003	56		 push	 esi
  00004	8b f1		 mov	 esi, ecx

; 721  : 	DWORD dwCurTime = FRAMEGETTIME();

  00006	ff 15 00 00 00
	00		 call	 DWORD PTR __imp_?GetSingleton@ioFrameTimer@@SAAAV1@XZ
  0000c	8b c8		 mov	 ecx, eax
  0000e	ff 15 00 00 00
	00		 call	 DWORD PTR __imp_?GetLoopSec@ioFrameTimer@@QBEKXZ

; 722  : 
; 723  : 	if( m_dwPreDelayStartTime > 0 )

  00014	83 be 20 02 00
	00 00		 cmp	 DWORD PTR [esi+544], 0
  0001b	76 04		 jbe	 SHORT $LN7@IsSkillMot
$LN4@IsSkillMot:

; 724  : 		return false;

  0001d	32 c0		 xor	 al, al
  0001f	eb 23		 jmp	 SHORT $LN2@IsSkillMot
$LN7@IsSkillMot:

; 725  : 
; 726  : 	switch( m_SkillState )

  00021	8b 8e fc 10 00
	00		 mov	 ecx, DWORD PTR [esi+4348]
  00027	49		 dec	 ecx
  00028	49		 dec	 ecx
  00029	74 0b		 je	 SHORT $LN3@IsSkillMot
  0002b	49		 dec	 ecx
  0002c	74 ef		 je	 SHORT $LN4@IsSkillMot
  0002e	49		 dec	 ecx
  0002f	49		 dec	 ecx

; 738  : 		}
; 739  : 		//return false;
; 740  : 	}
; 741  : 
; 742  : 	return false;

  00030	75 eb		 jne	 SHORT $LN4@IsSkillMot

; 732  : 			return true;
; 733  : 		return false;
; 734  : 	case SS_END:
; 735  : 		//if( m_dwMotionEndTime + dwActionStop < dwCurTime )
; 736  : 		{
; 737  : 			return true;

  00032	b0 01		 mov	 al, 1
  00034	eb 0e		 jmp	 SHORT $LN2@IsSkillMot
$LN3@IsSkillMot:

; 727  : 	{
; 728  : 	case SS_LOOP:
; 729  : 		return false;
; 730  : 	case SS_ACTION:
; 731  : 		if( m_dwMotionEndTime + dwActionStop < dwCurTime )

  00036	8b 8e d8 02 00
	00		 mov	 ecx, DWORD PTR [esi+728]
  0003c	03 4d 08	 add	 ecx, DWORD PTR _dwActionStop$[ebp]
  0003f	3b c8		 cmp	 ecx, eax
  00041	0f 92 c0	 setb	 al
$LN2@IsSkillMot:
  00044	5e		 pop	 esi

; 743  : }

  00045	5d		 pop	 ebp
  00046	c2 08 00	 ret	 8
?IsSkillMotionEnd@ioGrapplingBlowLoopSkill@@UBE_NKPAVioBaseChar@@@Z ENDP ; ioGrapplingBlowLoopSkill::IsSkillMotionEnd
_TEXT	ENDS
PUBLIC	?ProcessLoopDir@ioGrapplingBlowLoopSkill@@IAEXPAVioBaseChar@@@Z ; ioGrapplingBlowLoopSkill::ProcessLoopDir
; Function compile flags: /Ogsp
;	COMDAT ?ProcessLoopDir@ioGrapplingBlowLoopSkill@@IAEXPAVioBaseChar@@@Z
_TEXT	SEGMENT
_pChar$ = 8						; size = 4
?ProcessLoopDir@ioGrapplingBlowLoopSkill@@IAEXPAVioBaseChar@@@Z PROC ; ioGrapplingBlowLoopSkill::ProcessLoopDir, COMDAT
; _this$ = ecx

; 810  : 	if( m_dwLoopRotateTime == 0 )
; 811  : 		return;
; 812  : 
; 813  : 	// 캐릭터 회전
; 814  : 	/*float fTimePerSec = g_FrameTimer.GetSecPerFrame();
; 815  : 
; 816  : 	float fRate = (fTimePerSec*1000) / m_dwLoopRotateTime;
; 817  : 	float fRotateAngle = FLOAT360 * fRate;
; 818  : 
; 819  : 	fRotateAngle = ioMath::ArrangeHead( fRotateAngle );
; 820  : 
; 821  : 	D3DXQUATERNION	qtNewRot;
; 822  : 	D3DXQuaternionRotationYawPitchRoll( &qtNewRot, DEGtoRAD(fRotateAngle), 0.0f, 0.0f );
; 823  : 
; 824  : 	D3DXQUATERNION qtCharRot = pChar->GetTargetRot();
; 825  : 	D3DXVECTOR3 vDir = qtCharRot * D3DXVECTOR3( 0.0, 0.0, -FLOAT1 );
; 826  : 	vDir = qtNewRot * vDir;
; 827  : 
; 828  : 	ioMath::CalcDirectionQuaternion( qtNewRot, -vDir );
; 829  : 	pChar->SetTargetRotToRotate( qtNewRot, true, false );*/
; 830  : }

  00000	c2 04 00	 ret	 4
?ProcessLoopDir@ioGrapplingBlowLoopSkill@@IAEXPAVioBaseChar@@@Z ENDP ; ioGrapplingBlowLoopSkill::ProcessLoopDir
_TEXT	ENDS
PUBLIC	__real@00000000
PUBLIC	?CheckLanding@ioGrapplingBlowLoopSkill@@IAE_NPAVioBaseChar@@@Z ; ioGrapplingBlowLoopSkill::CheckLanding
EXTRN	__imp_??1ioHashString@@QAE@XZ:PROC
EXTRN	?IsDownState@ioBaseChar@@QAE_NXZ:PROC		; ioBaseChar::IsDownState
EXTRN	?GetBaseChar@ioBaseChar@@QAEPAV1@ABVioHashString@@@Z:PROC ; ioBaseChar::GetBaseChar
EXTRN	__imp_?IsEmpty@ioHashString@@QBE_NXZ:PROC
EXTRN	?GetBottomHeight@ioGameEntity@@QBEMXZ:PROC	; ioGameEntity::GetBottomHeight
EXTRN	___CxxFrameHandler3:PROC
EXTRN	@__security_check_cookie@4:PROC
EXTRN	__EH_epilog3:PROC
EXTRN	__EH_prolog3:PROC
;	COMDAT __real@00000000
; File d:\lost saga for developer\youtube\tutorial\source\src\lsclient\iobasechar.h
CONST	SEGMENT
__real@00000000 DD 000000000r			; 0
CONST	ENDS
;	COMDAT xdata$x
xdata$x	SEGMENT
__unwindtable$?CheckLanding@ioGrapplingBlowLoopSkill@@IAE_NPAVioBaseChar@@@Z DD 0ffffffffH
	DD	FLAT:__unwindfunclet$?CheckLanding@ioGrapplingBlowLoopSkill@@IAE_NPAVioBaseChar@@@Z$0
__ehfuncinfo$?CheckLanding@ioGrapplingBlowLoopSkill@@IAE_NPAVioBaseChar@@@Z DD 019930522H
	DD	01H
	DD	FLAT:__unwindtable$?CheckLanding@ioGrapplingBlowLoopSkill@@IAE_NPAVioBaseChar@@@Z
	DD	2 DUP(00H)
	DD	2 DUP(00H)
	DD	00H
	DD	01H
; Function compile flags: /Ogsp
; File d:\lost saga for developer\youtube\tutorial\source\src\lsclient\iograpplingblowloopskill.cpp
xdata$x	ENDS
;	COMDAT ?CheckLanding@ioGrapplingBlowLoopSkill@@IAE_NPAVioBaseChar@@@Z
_TEXT	SEGMENT
_stAttacker$551352 = -40				; size = 16
tv211 = -24						; size = 8
tv88 = -24						; size = 8
$T556150 = -20						; size = 4
_fHeightGapTarget$ = -16				; size = 4
__$EHRec$ = -12						; size = 12
$T556142 = 8						; size = 4
_fHeightGap$ = 8					; size = 4
_pChar$ = 8						; size = 4
?CheckLanding@ioGrapplingBlowLoopSkill@@IAE_NPAVioBaseChar@@@Z PROC ; ioGrapplingBlowLoopSkill::CheckLanding, COMDAT
; _this$ = ecx

; 867  : {

  00000	6a 1c		 push	 28			; 0000001cH
  00002	b8 00 00 00 00	 mov	 eax, __ehhandler$?CheckLanding@ioGrapplingBlowLoopSkill@@IAE_NPAVioBaseChar@@@Z
  00007	e8 00 00 00 00	 call	 __EH_prolog3
  0000c	8b d9		 mov	 ebx, ecx

; 868  : 	/*if( !pChar ) return true;
; 869  : 
; 870  : 	DWORD dwCurTime = FRAMEGETTIME();
; 871  : 
; 872  : 	float fHeightGap = 0.0f;
; 873  : 	if( pChar->CheckGhostState() )
; 874  : 		fHeightGap = pChar->GetWorldPosition().y - pChar->GetPreHeightForGhostState();
; 875  : 	else
; 876  : 		fHeightGap = pChar->GetWorldPosition().y - pChar->GetBottomHeight();
; 877  : 
; 878  : 	if( fHeightGap > 0.0f || !pChar->IsDownState() )
; 879  : 	{
; 880  : 		return false;
; 881  : 	}
; 882  : 
; 883  : 	return true;*/
; 884  : 
; 885  : 
; 886  : 	//루시퍼꺼 그냥 붙여 넣기...잘된다..
; 887  : 	if( !pChar ) return true;

  0000e	8b 7d 08	 mov	 edi, DWORD PTR _pChar$[ebp]
  00011	85 ff		 test	 edi, edi
  00013	75 07		 jne	 SHORT $LN12@CheckLandi
$LN28@CheckLandi:
  00015	b0 01		 mov	 al, 1
  00017	e9 5b 01 00 00	 jmp	 $LN13@CheckLandi
$LN12@CheckLandi:

; 888  : 
; 889  : 	DWORD dwCurTime = FRAMEGETTIME();

  0001c	ff 15 00 00 00
	00		 call	 DWORD PTR __imp_?GetSingleton@ioFrameTimer@@SAAAV1@XZ
  00022	8b c8		 mov	 ecx, eax
  00024	ff 15 00 00 00
	00		 call	 DWORD PTR __imp_?GetLoopSec@ioFrameTimer@@QBEKXZ

; 890  : 
; 891  : 	float fHeightGap = 0.0f;
; 892  : 	if( pChar->CheckGhostState() )

  0002a	80 bf e4 38 00
	00 00		 cmp	 BYTE PTR [edi+14564], 0

; 893  : 		fHeightGap = pChar->GetWorldPosition().y - pChar->GetPreHeightForGhostState();

  00031	8b 07		 mov	 eax, DWORD PTR [edi]
  00033	8b cf		 mov	 ecx, edi
  00035	74 2f		 je	 SHORT $LN11@CheckLandi
  00037	f3 0f 10 87 e0
	38 00 00	 movss	 xmm0, DWORD PTR [edi+14560]
  0003f	f3 0f 11 45 08	 movss	 DWORD PTR $T556142[ebp], xmm0
  00044	ff 50 70	 call	 DWORD PTR [eax+112]
  00047	f3 0f 10 4d 08	 movss	 xmm1, DWORD PTR $T556142[ebp]
  0004c	f3 0f 10 40 04	 movss	 xmm0, DWORD PTR [eax+4]
  00051	0f 5a c0	 cvtps2pd xmm0, xmm0
  00054	0f 5a c9	 cvtps2pd xmm1, xmm1
  00057	f2 0f 5c c1	 subsd	 xmm0, xmm1
  0005b	66 0f 5a c0	 cvtpd2ps xmm0, xmm0
  0005f	f3 0f 11 45 08	 movss	 DWORD PTR _fHeightGap$[ebp], xmm0

; 894  : 	else

  00064	eb 16		 jmp	 SHORT $LN10@CheckLandi
$LN11@CheckLandi:

; 895  : 		fHeightGap = pChar->GetWorldPosition().y - pChar->GetBottomHeight();

  00066	ff 50 70	 call	 DWORD PTR [eax+112]
  00069	d9 40 04	 fld	 DWORD PTR [eax+4]
  0006c	8b cf		 mov	 ecx, edi
  0006e	dd 5d e8	 fstp	 QWORD PTR tv88[ebp]
  00071	e8 00 00 00 00	 call	 ?GetBottomHeight@ioGameEntity@@QBEMXZ ; ioGameEntity::GetBottomHeight
  00076	dc 6d e8	 fsubr	 QWORD PTR tv88[ebp]
  00079	d9 5d 08	 fstp	 DWORD PTR _fHeightGap$[ebp]
$LN10@CheckLandi:

; 896  : 
; 897  : 	float fHeightGapTarget = fHeightGap;

  0007c	f3 0f 10 45 08	 movss	 xmm0, DWORD PTR _fHeightGap$[ebp]

; 898  : 	ioBaseChar *pTarget = NULL;
; 899  : 	if( !m_GrapplingTargetName.IsEmpty() )

  00081	81 c3 70 11 00
	00		 add	 ebx, 4464		; 00001170H
  00087	8b cb		 mov	 ecx, ebx
  00089	f3 0f 11 45 f0	 movss	 DWORD PTR _fHeightGapTarget$[ebp], xmm0
  0008e	33 f6		 xor	 esi, esi
  00090	ff 15 00 00 00
	00		 call	 DWORD PTR __imp_?IsEmpty@ioHashString@@QBE_NXZ
  00096	84 c0		 test	 al, al
  00098	75 60		 jne	 SHORT $LN6@CheckLandi

; 900  : 	{
; 901  : 		pTarget = pChar->GetBaseChar( m_GrapplingTargetName );

  0009a	53		 push	 ebx
  0009b	8b cf		 mov	 ecx, edi
  0009d	e8 00 00 00 00	 call	 ?GetBaseChar@ioBaseChar@@QAEPAV1@ABVioHashString@@@Z ; ioBaseChar::GetBaseChar
  000a2	8b f0		 mov	 esi, eax

; 902  : 		if( pTarget ) 

  000a4	85 f6		 test	 esi, esi
  000a6	74 52		 je	 SHORT $LN6@CheckLandi

; 903  : 		{
; 904  : 			if( pTarget->CheckGhostState() )

  000a8	80 be e4 38 00
	00 00		 cmp	 BYTE PTR [esi+14564], 0

; 905  : 				fHeightGapTarget = pTarget->GetWorldPosition().y - pTarget->GetPreHeightForGhostState();

  000af	8b 06		 mov	 eax, DWORD PTR [esi]
  000b1	8b ce		 mov	 ecx, esi
  000b3	74 2f		 je	 SHORT $LN7@CheckLandi
  000b5	f3 0f 10 86 e0
	38 00 00	 movss	 xmm0, DWORD PTR [esi+14560]
  000bd	f3 0f 11 45 ec	 movss	 DWORD PTR $T556150[ebp], xmm0
  000c2	ff 50 70	 call	 DWORD PTR [eax+112]
  000c5	f3 0f 10 40 04	 movss	 xmm0, DWORD PTR [eax+4]
  000ca	f3 0f 10 4d ec	 movss	 xmm1, DWORD PTR $T556150[ebp]
  000cf	0f 5a c0	 cvtps2pd xmm0, xmm0
  000d2	0f 5a c9	 cvtps2pd xmm1, xmm1
  000d5	f2 0f 5c c1	 subsd	 xmm0, xmm1
  000d9	66 0f 5a c0	 cvtpd2ps xmm0, xmm0
  000dd	f3 0f 11 45 f0	 movss	 DWORD PTR _fHeightGapTarget$[ebp], xmm0

; 906  : 			else

  000e2	eb 16		 jmp	 SHORT $LN6@CheckLandi
$LN7@CheckLandi:

; 907  : 				fHeightGapTarget = pTarget->GetWorldPosition().y - pTarget->GetBottomHeight();

  000e4	ff 50 70	 call	 DWORD PTR [eax+112]
  000e7	d9 40 04	 fld	 DWORD PTR [eax+4]
  000ea	8b ce		 mov	 ecx, esi
  000ec	dd 5d e8	 fstp	 QWORD PTR tv211[ebp]
  000ef	e8 00 00 00 00	 call	 ?GetBottomHeight@ioGameEntity@@QBEMXZ ; ioGameEntity::GetBottomHeight
  000f4	dc 6d e8	 fsubr	 QWORD PTR tv211[ebp]
  000f7	d9 5d f0	 fstp	 DWORD PTR _fHeightGapTarget$[ebp]
$LN6@CheckLandi:

; 908  : 		}
; 909  : 	}
; 910  : 
; 911  : 	if( fHeightGap > 0.0f || !pChar->IsDownState() )

  000fa	f3 0f 10 45 08	 movss	 xmm0, DWORD PTR _fHeightGap$[ebp]
  000ff	0f 2f 05 00 00
	00 00		 comiss	 xmm0, DWORD PTR __real@00000000
  00106	77 0f		 ja	 SHORT $LN4@CheckLandi
  00108	8b cf		 mov	 ecx, edi
  0010a	e8 00 00 00 00	 call	 ?IsDownState@ioBaseChar@@QAE_NXZ ; ioBaseChar::IsDownState
  0010f	84 c0		 test	 al, al

; 925  : 	}
; 926  : 
; 927  : 	return true;

  00111	0f 85 fe fe ff
	ff		 jne	 $LN28@CheckLandi
$LN4@CheckLandi:

; 912  : 	{
; 913  : 		if( pTarget && pTarget->GetState() == CS_GRAPPLING_WOUNDED_SKILL )

  00117	85 f6		 test	 esi, esi
  00119	74 5a		 je	 SHORT $LN3@CheckLandi
  0011b	80 be 10 03 00
	00 43		 cmp	 BYTE PTR [esi+784], 67	; 00000043H
  00122	75 51		 jne	 SHORT $LN3@CheckLandi

; 914  : 		{
; 915  : 			ioHashString stAttacker = pTarget->GetGrapplingAttacker();

  00124	8d 45 d8	 lea	 eax, DWORD PTR _stAttacker$551352[ebp]
  00127	50		 push	 eax
  00128	8b ce		 mov	 ecx, esi
  0012a	e8 00 00 00 00	 call	 ?GetGrapplingAttacker@ioBaseChar@@QBE?BVioHashString@@XZ ; ioBaseChar::GetGrapplingAttacker
  0012f	83 65 fc 00	 and	 DWORD PTR __$EHRec$[ebp+8], 0

; 916  : 			ioBaseChar *pAttacker = pTarget->GetBaseChar( stAttacker );

  00133	8d 45 d8	 lea	 eax, DWORD PTR _stAttacker$551352[ebp]
  00136	50		 push	 eax
  00137	8b ce		 mov	 ecx, esi
  00139	e8 00 00 00 00	 call	 ?GetBaseChar@ioBaseChar@@QAEPAV1@ABVioHashString@@@Z ; ioBaseChar::GetBaseChar

; 917  : 			if( pAttacker == pChar )

  0013e	3b c7		 cmp	 eax, edi
  00140	75 26		 jne	 SHORT $LN1@CheckLandi

; 918  : 			{
; 919  : 				if(  fHeightGapTarget <= 0.0f && pChar->IsDownState() )

  00142	0f 57 c0	 xorps	 xmm0, xmm0
  00145	0f 2f 45 f0	 comiss	 xmm0, DWORD PTR _fHeightGapTarget$[ebp]
  00149	72 1d		 jb	 SHORT $LN1@CheckLandi
  0014b	8b cf		 mov	 ecx, edi
  0014d	e8 00 00 00 00	 call	 ?IsDownState@ioBaseChar@@QAE_NXZ ; ioBaseChar::IsDownState
  00152	84 c0		 test	 al, al
  00154	74 12		 je	 SHORT $LN1@CheckLandi

; 920  : 					return true;

  00156	83 4d fc ff	 or	 DWORD PTR __$EHRec$[ebp+8], -1
  0015a	8d 4d d8	 lea	 ecx, DWORD PTR _stAttacker$551352[ebp]
  0015d	ff 15 00 00 00
	00		 call	 DWORD PTR __imp_??1ioHashString@@QAE@XZ
  00163	e9 ad fe ff ff	 jmp	 $LN28@CheckLandi
$LN1@CheckLandi:

; 921  : 			}	
; 922  : 		}

  00168	83 4d fc ff	 or	 DWORD PTR __$EHRec$[ebp+8], -1
  0016c	8d 4d d8	 lea	 ecx, DWORD PTR _stAttacker$551352[ebp]
  0016f	ff 15 00 00 00
	00		 call	 DWORD PTR __imp_??1ioHashString@@QAE@XZ
$LN3@CheckLandi:

; 923  : 
; 924  : 		return false;

  00175	32 c0		 xor	 al, al
$LN13@CheckLandi:

; 928  : }

  00177	e8 00 00 00 00	 call	 __EH_epilog3
  0017c	c2 04 00	 ret	 4
_TEXT	ENDS
;	COMDAT text$x
text$x	SEGMENT
__unwindfunclet$?CheckLanding@ioGrapplingBlowLoopSkill@@IAE_NPAVioBaseChar@@@Z$0:
  00000	8d 4d d8	 lea	 ecx, DWORD PTR _stAttacker$551352[ebp]
  00003	ff 25 00 00 00
	00		 jmp	 DWORD PTR __imp_??1ioHashString@@QAE@XZ
__ehhandler$?CheckLanding@ioGrapplingBlowLoopSkill@@IAE_NPAVioBaseChar@@@Z:
  00009	8b 54 24 08	 mov	 edx, DWORD PTR [esp+8]
  0000d	8d 42 0c	 lea	 eax, DWORD PTR [edx+12]
  00010	8b 4a d4	 mov	 ecx, DWORD PTR [edx-44]
  00013	33 c8		 xor	 ecx, eax
  00015	e8 00 00 00 00	 call	 @__security_check_cookie@4
  0001a	b8 00 00 00 00	 mov	 eax, OFFSET __ehfuncinfo$?CheckLanding@ioGrapplingBlowLoopSkill@@IAE_NPAVioBaseChar@@@Z
  0001f	e9 00 00 00 00	 jmp	 ___CxxFrameHandler3
text$x	ENDS
?CheckLanding@ioGrapplingBlowLoopSkill@@IAE_NPAVioBaseChar@@@Z ENDP ; ioGrapplingBlowLoopSkill::CheckLanding
PUBLIC	?GetSkillState@ioGrapplingBlowLoopSkill@@QAEHXZ	; ioGrapplingBlowLoopSkill::GetSkillState
; Function compile flags: /Ogsp
;	COMDAT ?GetSkillState@ioGrapplingBlowLoopSkill@@QAEHXZ
_TEXT	SEGMENT
?GetSkillState@ioGrapplingBlowLoopSkill@@QAEHXZ PROC	; ioGrapplingBlowLoopSkill::GetSkillState, COMDAT
; _this$ = ecx

; 951  : 	return (int)m_SkillState;

  00000	8b 81 fc 10 00
	00		 mov	 eax, DWORD PTR [ecx+4348]

; 952  : }

  00006	c3		 ret	 0
?GetSkillState@ioGrapplingBlowLoopSkill@@QAEHXZ ENDP	; ioGrapplingBlowLoopSkill::GetSkillState
_TEXT	ENDS
PUBLIC	?CheckUseItemMesh@ioGrapplingBlowLoopSkill@@UAE_NXZ ; ioGrapplingBlowLoopSkill::CheckUseItemMesh
; Function compile flags: /Ogsp
;	COMDAT ?CheckUseItemMesh@ioGrapplingBlowLoopSkill@@UAE_NXZ
_TEXT	SEGMENT
?CheckUseItemMesh@ioGrapplingBlowLoopSkill@@UAE_NXZ PROC ; ioGrapplingBlowLoopSkill::CheckUseItemMesh, COMDAT
; _this$ = ecx

; 956  : 	return m_bUseItemMesh;

  00000	8a 81 08 0f 00
	00		 mov	 al, BYTE PTR [ecx+3848]

; 957  : }

  00006	c3		 ret	 0
?CheckUseItemMesh@ioGrapplingBlowLoopSkill@@UAE_NXZ ENDP ; ioGrapplingBlowLoopSkill::CheckUseItemMesh
_TEXT	ENDS
PUBLIC	?IsNoDropState@ioGrapplingBlowLoopSkill@@UBE_NXZ ; ioGrapplingBlowLoopSkill::IsNoDropState
; Function compile flags: /Ogsp
;	COMDAT ?IsNoDropState@ioGrapplingBlowLoopSkill@@UBE_NXZ
_TEXT	SEGMENT
?IsNoDropState@ioGrapplingBlowLoopSkill@@UBE_NXZ PROC	; ioGrapplingBlowLoopSkill::IsNoDropState, COMDAT
; _this$ = ecx

; 1144 : 	if( m_SkillState == SS_LAND_ATTACK )

  00000	83 b9 fc 10 00
	00 04		 cmp	 DWORD PTR [ecx+4348], 4
  00007	0f 94 c0	 sete	 al

; 1145 : 		return true;
; 1146 : 
; 1147 : 	return false;
; 1148 : }

  0000a	c3		 ret	 0
?IsNoDropState@ioGrapplingBlowLoopSkill@@UBE_NXZ ENDP	; ioGrapplingBlowLoopSkill::IsNoDropState
_TEXT	ENDS
PUBLIC	?empty@?$vector@VioHashString@@V?$allocator@VioHashString@@@std@@@std@@QBE_NXZ ; std::vector<ioHashString,std::allocator<ioHashString> >::empty
; Function compile flags: /Ogsp
; File c:\program files (x86)\microsoft visual studio 10.0\vc\include\vector
;	COMDAT ?empty@?$vector@VioHashString@@V?$allocator@VioHashString@@@std@@@std@@QBE_NXZ
_TEXT	SEGMENT
?empty@?$vector@VioHashString@@V?$allocator@VioHashString@@@std@@@std@@QBE_NXZ PROC ; std::vector<ioHashString,std::allocator<ioHashString> >::empty, COMDAT
; _this$ = ecx

; 889  : 		return (this->_Myfirst == this->_Mylast);

  00000	8b 01		 mov	 eax, DWORD PTR [ecx]
  00002	2b 41 04	 sub	 eax, DWORD PTR [ecx+4]
  00005	f7 d8		 neg	 eax
  00007	1b c0		 sbb	 eax, eax
  00009	40		 inc	 eax

; 890  : 		}

  0000a	c3		 ret	 0
?empty@?$vector@VioHashString@@V?$allocator@VioHashString@@@std@@@std@@QBE_NXZ ENDP ; std::vector<ioHashString,std::allocator<ioHashString> >::empty
_TEXT	ENDS
PUBLIC	??A?$vector@VioHashString@@V?$allocator@VioHashString@@@std@@@std@@QAEAAVioHashString@@I@Z ; std::vector<ioHashString,std::allocator<ioHashString> >::operator[]
; Function compile flags: /Ogsp
;	COMDAT ??A?$vector@VioHashString@@V?$allocator@VioHashString@@@std@@@std@@QAEAAVioHashString@@I@Z
_TEXT	SEGMENT
__Pos$ = 8						; size = 4
??A?$vector@VioHashString@@V?$allocator@VioHashString@@@std@@@std@@QAEAAVioHashString@@I@Z PROC ; std::vector<ioHashString,std::allocator<ioHashString> >::operator[], COMDAT
; _this$ = ecx

; 928  : 		{	// subscript mutable sequence

  00000	55		 push	 ebp
  00001	8b ec		 mov	 ebp, esp

; 929  :  #if _ITERATOR_DEBUG_LEVEL == 2
; 930  : 		if (size() <= _Pos)
; 931  : 			{	// report error
; 932  : 			_DEBUG_ERROR("vector subscript out of range");
; 933  : 			_SCL_SECURE_OUT_OF_RANGE;
; 934  : 			}
; 935  : 
; 936  :  #elif _ITERATOR_DEBUG_LEVEL == 1
; 937  : 		_SCL_SECURE_VALIDATE_RANGE(_Pos < size());
; 938  :  #endif /* _ITERATOR_DEBUG_LEVEL */
; 939  : 
; 940  : 		return (*(this->_Myfirst + _Pos));

  00003	8b 45 08	 mov	 eax, DWORD PTR __Pos$[ebp]
  00006	c1 e0 04	 shl	 eax, 4
  00009	03 01		 add	 eax, DWORD PTR [ecx]

; 941  : 		}

  0000b	5d		 pop	 ebp
  0000c	c2 04 00	 ret	 4
??A?$vector@VioHashString@@V?$allocator@VioHashString@@@std@@@std@@QAEAAVioHashString@@I@Z ENDP ; std::vector<ioHashString,std::allocator<ioHashString> >::operator[]
_TEXT	ENDS
PUBLIC	??0D3DXVECTOR3@@QAE@XZ				; D3DXVECTOR3::D3DXVECTOR3
; Function compile flags: /Ogsp
; File c:\program files (x86)\microsoft directx sdk (june 2010)\include\d3dx9math.h
;	COMDAT ??0D3DXVECTOR3@@QAE@XZ
_TEXT	SEGMENT
??0D3DXVECTOR3@@QAE@XZ PROC				; D3DXVECTOR3::D3DXVECTOR3, COMDAT
; _this$ = ecx

; 165  :     D3DXVECTOR3() {};

  00000	8b c1		 mov	 eax, ecx
  00002	c3		 ret	 0
??0D3DXVECTOR3@@QAE@XZ ENDP				; D3DXVECTOR3::D3DXVECTOR3
_TEXT	ENDS
PUBLIC	??0D3DXQUATERNION@@QAE@XZ			; D3DXQUATERNION::D3DXQUATERNION
; Function compile flags: /Ogsp
;	COMDAT ??0D3DXQUATERNION@@QAE@XZ
_TEXT	SEGMENT
??0D3DXQUATERNION@@QAE@XZ PROC				; D3DXQUATERNION::D3DXQUATERNION, COMDAT
; _this$ = ecx

; 429  :     D3DXQUATERNION() {}

  00000	8b c1		 mov	 eax, ecx
  00002	c3		 ret	 0
??0D3DXQUATERNION@@QAE@XZ ENDP				; D3DXQUATERNION::D3DXQUATERNION
_TEXT	ENDS
PUBLIC	?size@?$vector@UStGrapInfo@ioGrapplingBlowLoopSkill@@V?$allocator@UStGrapInfo@ioGrapplingBlowLoopSkill@@@std@@@std@@QBEIXZ ; std::vector<ioGrapplingBlowLoopSkill::StGrapInfo,std::allocator<ioGrapplingBlowLoopSkill::StGrapInfo> >::size
; Function compile flags: /Ogsp
; File c:\program files (x86)\microsoft visual studio 10.0\vc\include\vector
;	COMDAT ?size@?$vector@UStGrapInfo@ioGrapplingBlowLoopSkill@@V?$allocator@UStGrapInfo@ioGrapplingBlowLoopSkill@@@std@@@std@@QBEIXZ
_TEXT	SEGMENT
?size@?$vector@UStGrapInfo@ioGrapplingBlowLoopSkill@@V?$allocator@UStGrapInfo@ioGrapplingBlowLoopSkill@@@std@@@std@@QBEIXZ PROC ; std::vector<ioGrapplingBlowLoopSkill::StGrapInfo,std::allocator<ioGrapplingBlowLoopSkill::StGrapInfo> >::size, COMDAT
; _this$ = ecx

; 879  : 		return (this->_Mylast - this->_Myfirst);

  00000	8b 41 04	 mov	 eax, DWORD PTR [ecx+4]
  00003	2b 01		 sub	 eax, DWORD PTR [ecx]
  00005	c1 f8 07	 sar	 eax, 7

; 880  : 		}

  00008	c3		 ret	 0
?size@?$vector@UStGrapInfo@ioGrapplingBlowLoopSkill@@V?$allocator@UStGrapInfo@ioGrapplingBlowLoopSkill@@@std@@@std@@QBEIXZ ENDP ; std::vector<ioGrapplingBlowLoopSkill::StGrapInfo,std::allocator<ioGrapplingBlowLoopSkill::StGrapInfo> >::size
_TEXT	ENDS
PUBLIC	??A?$vector@UStGrapInfo@ioGrapplingBlowLoopSkill@@V?$allocator@UStGrapInfo@ioGrapplingBlowLoopSkill@@@std@@@std@@QAEAAUStGrapInfo@ioGrapplingBlowLoopSkill@@I@Z ; std::vector<ioGrapplingBlowLoopSkill::StGrapInfo,std::allocator<ioGrapplingBlowLoopSkill::StGrapInfo> >::operator[]
; Function compile flags: /Ogsp
;	COMDAT ??A?$vector@UStGrapInfo@ioGrapplingBlowLoopSkill@@V?$allocator@UStGrapInfo@ioGrapplingBlowLoopSkill@@@std@@@std@@QAEAAUStGrapInfo@ioGrapplingBlowLoopSkill@@I@Z
_TEXT	SEGMENT
__Pos$ = 8						; size = 4
??A?$vector@UStGrapInfo@ioGrapplingBlowLoopSkill@@V?$allocator@UStGrapInfo@ioGrapplingBlowLoopSkill@@@std@@@std@@QAEAAUStGrapInfo@ioGrapplingBlowLoopSkill@@I@Z PROC ; std::vector<ioGrapplingBlowLoopSkill::StGrapInfo,std::allocator<ioGrapplingBlowLoopSkill::StGrapInfo> >::operator[], COMDAT
; _this$ = ecx

; 928  : 		{	// subscript mutable sequence

  00000	55		 push	 ebp
  00001	8b ec		 mov	 ebp, esp

; 929  :  #if _ITERATOR_DEBUG_LEVEL == 2
; 930  : 		if (size() <= _Pos)
; 931  : 			{	// report error
; 932  : 			_DEBUG_ERROR("vector subscript out of range");
; 933  : 			_SCL_SECURE_OUT_OF_RANGE;
; 934  : 			}
; 935  : 
; 936  :  #elif _ITERATOR_DEBUG_LEVEL == 1
; 937  : 		_SCL_SECURE_VALIDATE_RANGE(_Pos < size());
; 938  :  #endif /* _ITERATOR_DEBUG_LEVEL */
; 939  : 
; 940  : 		return (*(this->_Myfirst + _Pos));

  00003	8b 45 08	 mov	 eax, DWORD PTR __Pos$[ebp]
  00006	c1 e0 07	 shl	 eax, 7
  00009	03 01		 add	 eax, DWORD PTR [ecx]

; 941  : 		}

  0000b	5d		 pop	 ebp
  0000c	c2 04 00	 ret	 4
??A?$vector@UStGrapInfo@ioGrapplingBlowLoopSkill@@V?$allocator@UStGrapInfo@ioGrapplingBlowLoopSkill@@@std@@@std@@QAEAAUStGrapInfo@ioGrapplingBlowLoopSkill@@I@Z ENDP ; std::vector<ioGrapplingBlowLoopSkill::StGrapInfo,std::allocator<ioGrapplingBlowLoopSkill::StGrapInfo> >::operator[]
_TEXT	ENDS
PUBLIC	??0D3DXVECTOR3@@QAE@MMM@Z			; D3DXVECTOR3::D3DXVECTOR3
; Function compile flags: /Ogsp
; File c:\program files (x86)\microsoft directx sdk (june 2010)\include\d3dx9math.inl
;	COMDAT ??0D3DXVECTOR3@@QAE@MMM@Z
_TEXT	SEGMENT
_fx$ = 8						; size = 4
_fy$ = 12						; size = 4
_fz$ = 16						; size = 4
??0D3DXVECTOR3@@QAE@MMM@Z PROC				; D3DXVECTOR3::D3DXVECTOR3, COMDAT
; _this$ = ecx

; 303  : {

  00000	55		 push	 ebp
  00001	8b ec		 mov	 ebp, esp

; 304  :     x = fx;

  00003	f3 0f 10 45 08	 movss	 xmm0, DWORD PTR _fx$[ebp]
  00008	8b c1		 mov	 eax, ecx
  0000a	f3 0f 11 00	 movss	 DWORD PTR [eax], xmm0

; 305  :     y = fy;

  0000e	f3 0f 10 45 0c	 movss	 xmm0, DWORD PTR _fy$[ebp]
  00013	f3 0f 11 40 04	 movss	 DWORD PTR [eax+4], xmm0

; 306  :     z = fz;

  00018	f3 0f 10 45 10	 movss	 xmm0, DWORD PTR _fz$[ebp]
  0001d	f3 0f 11 40 08	 movss	 DWORD PTR [eax+8], xmm0

; 307  : }

  00022	5d		 pop	 ebp
  00023	c2 0c 00	 ret	 12			; 0000000cH
??0D3DXVECTOR3@@QAE@MMM@Z ENDP				; D3DXVECTOR3::D3DXVECTOR3
_TEXT	ENDS
PUBLIC	?capacity@?$vector@VioHashString@@V?$allocator@VioHashString@@@std@@@std@@QBEIXZ ; std::vector<ioHashString,std::allocator<ioHashString> >::capacity
; Function compile flags: /Ogsp
; File c:\program files (x86)\microsoft visual studio 10.0\vc\include\vector
;	COMDAT ?capacity@?$vector@VioHashString@@V?$allocator@VioHashString@@@std@@@std@@QBEIXZ
_TEXT	SEGMENT
?capacity@?$vector@VioHashString@@V?$allocator@VioHashString@@@std@@@std@@QBEIXZ PROC ; std::vector<ioHashString,std::allocator<ioHashString> >::capacity, COMDAT
; _this$ = ecx

; 777  : 		return (this->_Myend - this->_Myfirst);

  00000	8b 41 08	 mov	 eax, DWORD PTR [ecx+8]
  00003	2b 01		 sub	 eax, DWORD PTR [ecx]
  00005	c1 f8 04	 sar	 eax, 4

; 778  : 		}

  00008	c3		 ret	 0
?capacity@?$vector@VioHashString@@V?$allocator@VioHashString@@@std@@@std@@QBEIXZ ENDP ; std::vector<ioHashString,std::allocator<ioHashString> >::capacity
_TEXT	ENDS
PUBLIC	??YD3DXVECTOR3@@QAEAAU0@ABU0@@Z			; D3DXVECTOR3::operator+=
; Function compile flags: /Ogsp
; File c:\program files (x86)\microsoft directx sdk (june 2010)\include\d3dx9math.inl
;	COMDAT ??YD3DXVECTOR3@@QAEAAU0@ABU0@@Z
_TEXT	SEGMENT
_v$ = 8							; size = 4
??YD3DXVECTOR3@@QAEAAU0@ABU0@@Z PROC			; D3DXVECTOR3::operator+=, COMDAT
; _this$ = ecx

; 327  : {

  00000	55		 push	 ebp
  00001	8b ec		 mov	 ebp, esp
  00003	8b c1		 mov	 eax, ecx

; 328  :     x += v.x;

  00005	8b 4d 08	 mov	 ecx, DWORD PTR _v$[ebp]
  00008	f3 0f 10 01	 movss	 xmm0, DWORD PTR [ecx]
  0000c	f3 0f 10 08	 movss	 xmm1, DWORD PTR [eax]
  00010	0f 5a c0	 cvtps2pd xmm0, xmm0
  00013	0f 5a c9	 cvtps2pd xmm1, xmm1
  00016	f2 0f 58 c1	 addsd	 xmm0, xmm1

; 329  :     y += v.y;

  0001a	f3 0f 10 48 04	 movss	 xmm1, DWORD PTR [eax+4]
  0001f	66 0f 5a c0	 cvtpd2ps xmm0, xmm0
  00023	f3 0f 11 00	 movss	 DWORD PTR [eax], xmm0
  00027	f3 0f 10 41 04	 movss	 xmm0, DWORD PTR [ecx+4]
  0002c	0f 5a c0	 cvtps2pd xmm0, xmm0
  0002f	0f 5a c9	 cvtps2pd xmm1, xmm1
  00032	f2 0f 58 c1	 addsd	 xmm0, xmm1

; 330  :     z += v.z;

  00036	f3 0f 10 48 08	 movss	 xmm1, DWORD PTR [eax+8]
  0003b	66 0f 5a c0	 cvtpd2ps xmm0, xmm0
  0003f	f3 0f 11 40 04	 movss	 DWORD PTR [eax+4], xmm0
  00044	f3 0f 10 41 08	 movss	 xmm0, DWORD PTR [ecx+8]
  00049	0f 5a c0	 cvtps2pd xmm0, xmm0
  0004c	0f 5a c9	 cvtps2pd xmm1, xmm1
  0004f	f2 0f 58 c1	 addsd	 xmm0, xmm1
  00053	66 0f 5a c0	 cvtpd2ps xmm0, xmm0
  00057	f3 0f 11 40 08	 movss	 DWORD PTR [eax+8], xmm0

; 331  :     return *this;
; 332  : }

  0005c	5d		 pop	 ebp
  0005d	c2 04 00	 ret	 4
??YD3DXVECTOR3@@QAEAAU0@ABU0@@Z ENDP			; D3DXVECTOR3::operator+=
_TEXT	ENDS
PUBLIC	?_Inside@?$vector@VioHashString@@V?$allocator@VioHashString@@@std@@@std@@IBE_NPBVioHashString@@@Z ; std::vector<ioHashString,std::allocator<ioHashString> >::_Inside
; Function compile flags: /Ogsp
; File c:\program files (x86)\microsoft visual studio 10.0\vc\include\vector
;	COMDAT ?_Inside@?$vector@VioHashString@@V?$allocator@VioHashString@@@std@@@std@@IBE_NPBVioHashString@@@Z
_TEXT	SEGMENT
__Ptr$ = 8						; size = 4
?_Inside@?$vector@VioHashString@@V?$allocator@VioHashString@@@std@@@std@@IBE_NPBVioHashString@@@Z PROC ; std::vector<ioHashString,std::allocator<ioHashString> >::_Inside, COMDAT
; _this$ = ecx

; 1285 : 		{	// test if _Ptr points inside vector

  00000	55		 push	 ebp
  00001	8b ec		 mov	 ebp, esp

; 1286 : 		return (_Ptr < this->_Mylast && this->_Myfirst <= _Ptr);

  00003	8b 45 08	 mov	 eax, DWORD PTR __Ptr$[ebp]
  00006	3b 41 04	 cmp	 eax, DWORD PTR [ecx+4]
  00009	73 09		 jae	 SHORT $LN3@Inside
  0000b	39 01		 cmp	 DWORD PTR [ecx], eax
  0000d	77 05		 ja	 SHORT $LN3@Inside
  0000f	33 c0		 xor	 eax, eax
  00011	40		 inc	 eax
  00012	eb 02		 jmp	 SHORT $LN4@Inside
$LN3@Inside:
  00014	33 c0		 xor	 eax, eax
$LN4@Inside:

; 1287 : 		}

  00016	5d		 pop	 ebp
  00017	c2 04 00	 ret	 4
?_Inside@?$vector@VioHashString@@V?$allocator@VioHashString@@@std@@@std@@IBE_NPBVioHashString@@@Z ENDP ; std::vector<ioHashString,std::allocator<ioHashString> >::_Inside
_TEXT	ENDS
PUBLIC	?_Orphan_range@?$vector@VioHashString@@V?$allocator@VioHashString@@@std@@@std@@IBEXPAVioHashString@@0@Z ; std::vector<ioHashString,std::allocator<ioHashString> >::_Orphan_range
; Function compile flags: /Ogsp
;	COMDAT ?_Orphan_range@?$vector@VioHashString@@V?$allocator@VioHashString@@@std@@@std@@IBEXPAVioHashString@@0@Z
_TEXT	SEGMENT
___formal$ = 8						; size = 4
___formal$ = 12						; size = 4
?_Orphan_range@?$vector@VioHashString@@V?$allocator@VioHashString@@@std@@@std@@IBEXPAVioHashString@@0@Z PROC ; std::vector<ioHashString,std::allocator<ioHashString> >::_Orphan_range, COMDAT
; _this$ = ecx

; 1454 : 		}

  00000	c2 08 00	 ret	 8
?_Orphan_range@?$vector@VioHashString@@V?$allocator@VioHashString@@@std@@@std@@IBEXPAVioHashString@@0@Z ENDP ; std::vector<ioHashString,std::allocator<ioHashString> >::_Orphan_range
_TEXT	ENDS
PUBLIC	__mask@@NegFloat@
PUBLIC	??GD3DXVECTOR3@@QBE?AU0@XZ			; D3DXVECTOR3::operator-
;	COMDAT __mask@@NegFloat@
; File c:\program files (x86)\microsoft directx sdk (june 2010)\include\d3dx9math.inl
CONST	SEGMENT
__mask@@NegFloat@ DB 00H, 00H, 00H, 080H, 00H, 00H, 00H, 080H, 00H, 00H, 00H
	DB	080H, 00H, 00H, 00H, 080H
; Function compile flags: /Ogsp
CONST	ENDS
;	COMDAT ??GD3DXVECTOR3@@QBE?AU0@XZ
_TEXT	SEGMENT
___$ReturnUdt$ = 8					; size = 4
??GD3DXVECTOR3@@QBE?AU0@XZ PROC				; D3DXVECTOR3::operator-, COMDAT
; _this$ = ecx

; 372  : {

  00000	55		 push	 ebp
  00001	8b ec		 mov	 ebp, esp

; 373  :     return D3DXVECTOR3(-x, -y, -z);

  00003	f3 0f 10 05 00
	00 00 00	 movss	 xmm0, DWORD PTR __mask@@NegFloat@
  0000b	8b 45 08	 mov	 eax, DWORD PTR ___$ReturnUdt$[ebp]
  0000e	f3 0f 10 09	 movss	 xmm1, DWORD PTR [ecx]
  00012	0f 57 c8	 xorps	 xmm1, xmm0
  00015	f3 0f 11 08	 movss	 DWORD PTR [eax], xmm1
  00019	f3 0f 10 49 04	 movss	 xmm1, DWORD PTR [ecx+4]
  0001e	0f 57 c8	 xorps	 xmm1, xmm0
  00021	f3 0f 11 48 04	 movss	 DWORD PTR [eax+4], xmm1
  00026	f3 0f 10 49 08	 movss	 xmm1, DWORD PTR [ecx+8]
  0002b	0f 57 c8	 xorps	 xmm1, xmm0
  0002e	f3 0f 11 48 08	 movss	 DWORD PTR [eax+8], xmm1

; 374  : }

  00033	5d		 pop	 ebp
  00034	c2 04 00	 ret	 4
??GD3DXVECTOR3@@QBE?AU0@XZ ENDP				; D3DXVECTOR3::operator-
_TEXT	ENDS
PUBLIC	??DD3DXVECTOR3@@QBE?AU0@M@Z			; D3DXVECTOR3::operator*
; Function compile flags: /Ogsp
;	COMDAT ??DD3DXVECTOR3@@QBE?AU0@M@Z
_TEXT	SEGMENT
___$ReturnUdt$ = 8					; size = 4
_f$ = 12						; size = 4
??DD3DXVECTOR3@@QBE?AU0@M@Z PROC			; D3DXVECTOR3::operator*, COMDAT
; _this$ = ecx

; 392  : {

  00000	55		 push	 ebp
  00001	8b ec		 mov	 ebp, esp

; 393  :     return D3DXVECTOR3(x * f, y * f, z * f);

  00003	f3 0f 10 4d 0c	 movss	 xmm1, DWORD PTR _f$[ebp]
  00008	f3 0f 10 01	 movss	 xmm0, DWORD PTR [ecx]
  0000c	8b 45 08	 mov	 eax, DWORD PTR ___$ReturnUdt$[ebp]
  0000f	0f 5a c0	 cvtps2pd xmm0, xmm0
  00012	0f 5a c9	 cvtps2pd xmm1, xmm1
  00015	f2 0f 59 c1	 mulsd	 xmm0, xmm1
  00019	f3 0f 10 4d 0c	 movss	 xmm1, DWORD PTR _f$[ebp]
  0001e	66 0f 5a c0	 cvtpd2ps xmm0, xmm0
  00022	f3 0f 11 00	 movss	 DWORD PTR [eax], xmm0
  00026	f3 0f 10 41 04	 movss	 xmm0, DWORD PTR [ecx+4]
  0002b	0f 5a c0	 cvtps2pd xmm0, xmm0
  0002e	0f 5a c9	 cvtps2pd xmm1, xmm1
  00031	f2 0f 59 c1	 mulsd	 xmm0, xmm1
  00035	f3 0f 10 4d 0c	 movss	 xmm1, DWORD PTR _f$[ebp]
  0003a	66 0f 5a c0	 cvtpd2ps xmm0, xmm0
  0003e	f3 0f 11 40 04	 movss	 DWORD PTR [eax+4], xmm0
  00043	f3 0f 10 41 08	 movss	 xmm0, DWORD PTR [ecx+8]
  00048	0f 5a c0	 cvtps2pd xmm0, xmm0
  0004b	0f 5a c9	 cvtps2pd xmm1, xmm1
  0004e	f2 0f 59 c1	 mulsd	 xmm0, xmm1
  00052	66 0f 5a c0	 cvtpd2ps xmm0, xmm0
  00056	f3 0f 11 40 08	 movss	 DWORD PTR [eax+8], xmm0

; 394  : }

  0005b	5d		 pop	 ebp
  0005c	c2 08 00	 ret	 8
??DD3DXVECTOR3@@QBE?AU0@M@Z ENDP			; D3DXVECTOR3::operator*
_TEXT	ENDS
PUBLIC	??D@YA?AUD3DXVECTOR3@@MABU0@@Z			; operator*
; Function compile flags: /Ogsp
;	COMDAT ??D@YA?AUD3DXVECTOR3@@MABU0@@Z
_TEXT	SEGMENT
___$ReturnUdt$ = 8					; size = 4
_f$ = 12						; size = 4
_v$ = 16						; size = 4
??D@YA?AUD3DXVECTOR3@@MABU0@@Z PROC			; operator*, COMDAT

; 406  : {

  00000	55		 push	 ebp
  00001	8b ec		 mov	 ebp, esp

; 407  :     return D3DXVECTOR3(f * v.x, f * v.y, f * v.z);

  00003	8b 4d 10	 mov	 ecx, DWORD PTR _v$[ebp]
  00006	f3 0f 10 4d 0c	 movss	 xmm1, DWORD PTR _f$[ebp]
  0000b	f3 0f 10 01	 movss	 xmm0, DWORD PTR [ecx]
  0000f	8b 45 08	 mov	 eax, DWORD PTR ___$ReturnUdt$[ebp]
  00012	0f 5a c0	 cvtps2pd xmm0, xmm0
  00015	0f 5a c9	 cvtps2pd xmm1, xmm1
  00018	f2 0f 59 c1	 mulsd	 xmm0, xmm1
  0001c	f3 0f 10 4d 0c	 movss	 xmm1, DWORD PTR _f$[ebp]
  00021	66 0f 5a c0	 cvtpd2ps xmm0, xmm0
  00025	f3 0f 11 00	 movss	 DWORD PTR [eax], xmm0
  00029	f3 0f 10 41 04	 movss	 xmm0, DWORD PTR [ecx+4]
  0002e	0f 5a c0	 cvtps2pd xmm0, xmm0
  00031	0f 5a c9	 cvtps2pd xmm1, xmm1
  00034	f2 0f 59 c1	 mulsd	 xmm0, xmm1
  00038	f3 0f 10 4d 0c	 movss	 xmm1, DWORD PTR _f$[ebp]
  0003d	66 0f 5a c0	 cvtpd2ps xmm0, xmm0
  00041	f3 0f 11 40 04	 movss	 DWORD PTR [eax+4], xmm0
  00046	f3 0f 10 41 08	 movss	 xmm0, DWORD PTR [ecx+8]
  0004b	0f 5a c0	 cvtps2pd xmm0, xmm0
  0004e	0f 5a c9	 cvtps2pd xmm1, xmm1
  00051	f2 0f 59 c1	 mulsd	 xmm0, xmm1
  00055	66 0f 5a c0	 cvtpd2ps xmm0, xmm0
  00059	f3 0f 11 40 08	 movss	 DWORD PTR [eax+8], xmm0

; 408  : }

  0005e	5d		 pop	 ebp
  0005f	c3		 ret	 0
??D@YA?AUD3DXVECTOR3@@MABU0@@Z ENDP			; operator*
_TEXT	ENDS
PUBLIC	?_Inside@?$vector@UStGrapInfo@ioGrapplingBlowLoopSkill@@V?$allocator@UStGrapInfo@ioGrapplingBlowLoopSkill@@@std@@@std@@IBE_NPBUStGrapInfo@ioGrapplingBlowLoopSkill@@@Z ; std::vector<ioGrapplingBlowLoopSkill::StGrapInfo,std::allocator<ioGrapplingBlowLoopSkill::StGrapInfo> >::_Inside
; Function compile flags: /Ogsp
; File c:\program files (x86)\microsoft visual studio 10.0\vc\include\vector
;	COMDAT ?_Inside@?$vector@UStGrapInfo@ioGrapplingBlowLoopSkill@@V?$allocator@UStGrapInfo@ioGrapplingBlowLoopSkill@@@std@@@std@@IBE_NPBUStGrapInfo@ioGrapplingBlowLoopSkill@@@Z
_TEXT	SEGMENT
__Ptr$ = 8						; size = 4
?_Inside@?$vector@UStGrapInfo@ioGrapplingBlowLoopSkill@@V?$allocator@UStGrapInfo@ioGrapplingBlowLoopSkill@@@std@@@std@@IBE_NPBUStGrapInfo@ioGrapplingBlowLoopSkill@@@Z PROC ; std::vector<ioGrapplingBlowLoopSkill::StGrapInfo,std::allocator<ioGrapplingBlowLoopSkill::StGrapInfo> >::_Inside, COMDAT
; _this$ = ecx

; 1285 : 		{	// test if _Ptr points inside vector

  00000	55		 push	 ebp
  00001	8b ec		 mov	 ebp, esp

; 1286 : 		return (_Ptr < this->_Mylast && this->_Myfirst <= _Ptr);

  00003	8b 45 08	 mov	 eax, DWORD PTR __Ptr$[ebp]
  00006	3b 41 04	 cmp	 eax, DWORD PTR [ecx+4]
  00009	73 09		 jae	 SHORT $LN3@Inside@2
  0000b	39 01		 cmp	 DWORD PTR [ecx], eax
  0000d	77 05		 ja	 SHORT $LN3@Inside@2
  0000f	33 c0		 xor	 eax, eax
  00011	40		 inc	 eax
  00012	eb 02		 jmp	 SHORT $LN4@Inside@2
$LN3@Inside@2:
  00014	33 c0		 xor	 eax, eax
$LN4@Inside@2:

; 1287 : 		}

  00016	5d		 pop	 ebp
  00017	c2 04 00	 ret	 4
?_Inside@?$vector@UStGrapInfo@ioGrapplingBlowLoopSkill@@V?$allocator@UStGrapInfo@ioGrapplingBlowLoopSkill@@@std@@@std@@IBE_NPBUStGrapInfo@ioGrapplingBlowLoopSkill@@@Z ENDP ; std::vector<ioGrapplingBlowLoopSkill::StGrapInfo,std::allocator<ioGrapplingBlowLoopSkill::StGrapInfo> >::_Inside
_TEXT	ENDS
PUBLIC	??9D3DXVECTOR3@@QBEHABU0@@Z			; D3DXVECTOR3::operator!=
; Function compile flags: /Ogsp
; File c:\program files (x86)\microsoft directx sdk (june 2010)\include\d3dx9math.inl
;	COMDAT ??9D3DXVECTOR3@@QBEHABU0@@Z
_TEXT	SEGMENT
_v$ = 8							; size = 4
??9D3DXVECTOR3@@QBEHABU0@@Z PROC			; D3DXVECTOR3::operator!=, COMDAT
; _this$ = ecx

; 419  : {

  00000	55		 push	 ebp
  00001	8b ec		 mov	 ebp, esp

; 420  :     return x != v.x || y != v.y || z != v.z;

  00003	8b 55 08	 mov	 edx, DWORD PTR _v$[ebp]
  00006	f3 0f 10 01	 movss	 xmm0, DWORD PTR [ecx]
  0000a	f3 0f 10 0a	 movss	 xmm1, DWORD PTR [edx]
  0000e	0f 5a c0	 cvtps2pd xmm0, xmm0
  00011	0f 5a c9	 cvtps2pd xmm1, xmm1
  00014	66 0f 2e c1	 ucomisd xmm0, xmm1
  00018	9f		 lahf
  00019	f6 c4 44	 test	 ah, 68			; 00000044H
  0001c	7a 38		 jp	 SHORT $LN3@operator
  0001e	f3 0f 10 41 04	 movss	 xmm0, DWORD PTR [ecx+4]
  00023	f3 0f 10 4a 04	 movss	 xmm1, DWORD PTR [edx+4]
  00028	0f 5a c0	 cvtps2pd xmm0, xmm0
  0002b	0f 5a c9	 cvtps2pd xmm1, xmm1
  0002e	66 0f 2e c1	 ucomisd xmm0, xmm1
  00032	9f		 lahf
  00033	f6 c4 44	 test	 ah, 68			; 00000044H
  00036	7a 1e		 jp	 SHORT $LN3@operator
  00038	f3 0f 10 41 08	 movss	 xmm0, DWORD PTR [ecx+8]
  0003d	f3 0f 10 4a 08	 movss	 xmm1, DWORD PTR [edx+8]
  00042	0f 5a c0	 cvtps2pd xmm0, xmm0
  00045	0f 5a c9	 cvtps2pd xmm1, xmm1
  00048	66 0f 2e c1	 ucomisd xmm0, xmm1
  0004c	9f		 lahf
  0004d	f6 c4 44	 test	 ah, 68			; 00000044H
  00050	7a 04		 jp	 SHORT $LN3@operator
  00052	33 c0		 xor	 eax, eax
  00054	eb 03		 jmp	 SHORT $LN4@operator
$LN3@operator:
  00056	33 c0		 xor	 eax, eax
  00058	40		 inc	 eax
$LN4@operator:

; 421  : }

  00059	5d		 pop	 ebp
  0005a	c2 04 00	 ret	 4
??9D3DXVECTOR3@@QBEHABU0@@Z ENDP			; D3DXVECTOR3::operator!=
_TEXT	ENDS
PUBLIC	?_Orphan_range@?$vector@UStGrapInfo@ioGrapplingBlowLoopSkill@@V?$allocator@UStGrapInfo@ioGrapplingBlowLoopSkill@@@std@@@std@@IBEXPAUStGrapInfo@ioGrapplingBlowLoopSkill@@0@Z ; std::vector<ioGrapplingBlowLoopSkill::StGrapInfo,std::allocator<ioGrapplingBlowLoopSkill::StGrapInfo> >::_Orphan_range
; Function compile flags: /Ogsp
; File c:\program files (x86)\microsoft visual studio 10.0\vc\include\vector
;	COMDAT ?_Orphan_range@?$vector@UStGrapInfo@ioGrapplingBlowLoopSkill@@V?$allocator@UStGrapInfo@ioGrapplingBlowLoopSkill@@@std@@@std@@IBEXPAUStGrapInfo@ioGrapplingBlowLoopSkill@@0@Z
_TEXT	SEGMENT
___formal$ = 8						; size = 4
___formal$ = 12						; size = 4
?_Orphan_range@?$vector@UStGrapInfo@ioGrapplingBlowLoopSkill@@V?$allocator@UStGrapInfo@ioGrapplingBlowLoopSkill@@@std@@@std@@IBEXPAUStGrapInfo@ioGrapplingBlowLoopSkill@@0@Z PROC ; std::vector<ioGrapplingBlowLoopSkill::StGrapInfo,std::allocator<ioGrapplingBlowLoopSkill::StGrapInfo> >::_Orphan_range, COMDAT
; _this$ = ecx

; 1454 : 		}

  00000	c2 08 00	 ret	 8
?_Orphan_range@?$vector@UStGrapInfo@ioGrapplingBlowLoopSkill@@V?$allocator@UStGrapInfo@ioGrapplingBlowLoopSkill@@@std@@@std@@IBEXPAUStGrapInfo@ioGrapplingBlowLoopSkill@@0@Z ENDP ; std::vector<ioGrapplingBlowLoopSkill::StGrapInfo,std::allocator<ioGrapplingBlowLoopSkill::StGrapInfo> >::_Orphan_range
_TEXT	ENDS
PUBLIC	??1?$_Vector_val@UStGrapInfo@ioGrapplingBlowLoopSkill@@V?$allocator@UStGrapInfo@ioGrapplingBlowLoopSkill@@@std@@@std@@QAE@XZ ; std::_Vector_val<ioGrapplingBlowLoopSkill::StGrapInfo,std::allocator<ioGrapplingBlowLoopSkill::StGrapInfo> >::~_Vector_val<ioGrapplingBlowLoopSkill::StGrapInfo,std::allocator<ioGrapplingBlowLoopSkill::StGrapInfo> >
; Function compile flags: /Ogsp
;	COMDAT ??1?$_Vector_val@UStGrapInfo@ioGrapplingBlowLoopSkill@@V?$allocator@UStGrapInfo@ioGrapplingBlowLoopSkill@@@std@@@std@@QAE@XZ
_TEXT	SEGMENT
??1?$_Vector_val@UStGrapInfo@ioGrapplingBlowLoopSkill@@V?$allocator@UStGrapInfo@ioGrapplingBlowLoopSkill@@@std@@@std@@QAE@XZ PROC ; std::_Vector_val<ioGrapplingBlowLoopSkill::StGrapInfo,std::allocator<ioGrapplingBlowLoopSkill::StGrapInfo> >::~_Vector_val<ioGrapplingBlowLoopSkill::StGrapInfo,std::allocator<ioGrapplingBlowLoopSkill::StGrapInfo> >, COMDAT
; _this$ = ecx

; 434  : 		}

  00000	c3		 ret	 0
??1?$_Vector_val@UStGrapInfo@ioGrapplingBlowLoopSkill@@V?$allocator@UStGrapInfo@ioGrapplingBlowLoopSkill@@@std@@@std@@QAE@XZ ENDP ; std::_Vector_val<ioGrapplingBlowLoopSkill::StGrapInfo,std::allocator<ioGrapplingBlowLoopSkill::StGrapInfo> >::~_Vector_val<ioGrapplingBlowLoopSkill::StGrapInfo,std::allocator<ioGrapplingBlowLoopSkill::StGrapInfo> >
_TEXT	ENDS
PUBLIC	??0?$allocator@UStGrapInfo@ioGrapplingBlowLoopSkill@@@std@@QAE@XZ ; std::allocator<ioGrapplingBlowLoopSkill::StGrapInfo>::allocator<ioGrapplingBlowLoopSkill::StGrapInfo>
; Function compile flags: /Ogsp
; File c:\program files (x86)\microsoft visual studio 10.0\vc\include\xmemory
;	COMDAT ??0?$allocator@UStGrapInfo@ioGrapplingBlowLoopSkill@@@std@@QAE@XZ
_TEXT	SEGMENT
??0?$allocator@UStGrapInfo@ioGrapplingBlowLoopSkill@@@std@@QAE@XZ PROC ; std::allocator<ioGrapplingBlowLoopSkill::StGrapInfo>::allocator<ioGrapplingBlowLoopSkill::StGrapInfo>, COMDAT
; _this$ = ecx

; 161  : 	_ALLOCATOR() _THROW0()

  00000	8b c1		 mov	 eax, ecx

; 162  : 		{	// construct default allocator (do nothing)
; 163  : 		}

  00002	c3		 ret	 0
??0?$allocator@UStGrapInfo@ioGrapplingBlowLoopSkill@@@std@@QAE@XZ ENDP ; std::allocator<ioGrapplingBlowLoopSkill::StGrapInfo>::allocator<ioGrapplingBlowLoopSkill::StGrapInfo>
_TEXT	ENDS
PUBLIC	??0?$allocator@UStGrapInfo@ioGrapplingBlowLoopSkill@@@std@@QAE@ABV01@@Z ; std::allocator<ioGrapplingBlowLoopSkill::StGrapInfo>::allocator<ioGrapplingBlowLoopSkill::StGrapInfo>
; Function compile flags: /Ogsp
;	COMDAT ??0?$allocator@UStGrapInfo@ioGrapplingBlowLoopSkill@@@std@@QAE@ABV01@@Z
_TEXT	SEGMENT
___formal$ = 8						; size = 4
??0?$allocator@UStGrapInfo@ioGrapplingBlowLoopSkill@@@std@@QAE@ABV01@@Z PROC ; std::allocator<ioGrapplingBlowLoopSkill::StGrapInfo>::allocator<ioGrapplingBlowLoopSkill::StGrapInfo>, COMDAT
; _this$ = ecx

; 165  : 	_ALLOCATOR(const _ALLOCATOR<_Ty>&) _THROW0()

  00000	8b c1		 mov	 eax, ecx

; 166  : 		{	// construct by copying (do nothing)
; 167  : 		}

  00002	c2 04 00	 ret	 4
??0?$allocator@UStGrapInfo@ioGrapplingBlowLoopSkill@@@std@@QAE@ABV01@@Z ENDP ; std::allocator<ioGrapplingBlowLoopSkill::StGrapInfo>::allocator<ioGrapplingBlowLoopSkill::StGrapInfo>
_TEXT	ENDS
PUBLIC	?capacity@?$vector@UStGrapInfo@ioGrapplingBlowLoopSkill@@V?$allocator@UStGrapInfo@ioGrapplingBlowLoopSkill@@@std@@@std@@QBEIXZ ; std::vector<ioGrapplingBlowLoopSkill::StGrapInfo,std::allocator<ioGrapplingBlowLoopSkill::StGrapInfo> >::capacity
; Function compile flags: /Ogsp
; File c:\program files (x86)\microsoft visual studio 10.0\vc\include\vector
;	COMDAT ?capacity@?$vector@UStGrapInfo@ioGrapplingBlowLoopSkill@@V?$allocator@UStGrapInfo@ioGrapplingBlowLoopSkill@@@std@@@std@@QBEIXZ
_TEXT	SEGMENT
?capacity@?$vector@UStGrapInfo@ioGrapplingBlowLoopSkill@@V?$allocator@UStGrapInfo@ioGrapplingBlowLoopSkill@@@std@@@std@@QBEIXZ PROC ; std::vector<ioGrapplingBlowLoopSkill::StGrapInfo,std::allocator<ioGrapplingBlowLoopSkill::StGrapInfo> >::capacity, COMDAT
; _this$ = ecx

; 777  : 		return (this->_Myend - this->_Myfirst);

  00000	8b 41 08	 mov	 eax, DWORD PTR [ecx+8]
  00003	2b 01		 sub	 eax, DWORD PTR [ecx]
  00005	c1 f8 07	 sar	 eax, 7

; 778  : 		}

  00008	c3		 ret	 0
?capacity@?$vector@UStGrapInfo@ioGrapplingBlowLoopSkill@@V?$allocator@UStGrapInfo@ioGrapplingBlowLoopSkill@@@std@@@std@@QBEIXZ ENDP ; std::vector<ioGrapplingBlowLoopSkill::StGrapInfo,std::allocator<ioGrapplingBlowLoopSkill::StGrapInfo> >::capacity
_TEXT	ENDS
PUBLIC	??_C@_0BD@OLBABOEK@vector?$DMT?$DO?5too?5long?$AA@ ; `string'
PUBLIC	?_Xlen@?$vector@UStGrapInfo@ioGrapplingBlowLoopSkill@@V?$allocator@UStGrapInfo@ioGrapplingBlowLoopSkill@@@std@@@std@@IBEXXZ ; std::vector<ioGrapplingBlowLoopSkill::StGrapInfo,std::allocator<ioGrapplingBlowLoopSkill::StGrapInfo> >::_Xlen
EXTRN	__imp_?_Xlength_error@std@@YAXPBD@Z:PROC
;	COMDAT ??_C@_0BD@OLBABOEK@vector?$DMT?$DO?5too?5long?$AA@
CONST	SEGMENT
??_C@_0BD@OLBABOEK@vector?$DMT?$DO?5too?5long?$AA@ DB 'vector<T> too long'
	DB	00H						; `string'
; Function compile flags: /Ogsp
CONST	ENDS
;	COMDAT ?_Xlen@?$vector@UStGrapInfo@ioGrapplingBlowLoopSkill@@V?$allocator@UStGrapInfo@ioGrapplingBlowLoopSkill@@@std@@@std@@IBEXXZ
_TEXT	SEGMENT
?_Xlen@?$vector@UStGrapInfo@ioGrapplingBlowLoopSkill@@V?$allocator@UStGrapInfo@ioGrapplingBlowLoopSkill@@@std@@@std@@IBEXXZ PROC ; std::vector<ioGrapplingBlowLoopSkill::StGrapInfo,std::allocator<ioGrapplingBlowLoopSkill::StGrapInfo> >::_Xlen, COMDAT
; _this$ = ecx

; 1427 : 		_Xlength_error("vector<T> too long");

  00000	68 00 00 00 00	 push	 OFFSET ??_C@_0BD@OLBABOEK@vector?$DMT?$DO?5too?5long?$AA@
  00005	ff 15 00 00 00
	00		 call	 DWORD PTR __imp_?_Xlength_error@std@@YAXPBD@Z
$LN4@Xlen:
$LN3@Xlen:
  0000b	cc		 int	 3
?_Xlen@?$vector@UStGrapInfo@ioGrapplingBlowLoopSkill@@V?$allocator@UStGrapInfo@ioGrapplingBlowLoopSkill@@@std@@@std@@IBEXXZ ENDP ; std::vector<ioGrapplingBlowLoopSkill::StGrapInfo,std::allocator<ioGrapplingBlowLoopSkill::StGrapInfo> >::_Xlen
_TEXT	ENDS
PUBLIC	?deallocate@?$allocator@UStGrapInfo@ioGrapplingBlowLoopSkill@@@std@@QAEXPAUStGrapInfo@ioGrapplingBlowLoopSkill@@I@Z ; std::allocator<ioGrapplingBlowLoopSkill::StGrapInfo>::deallocate
; Function compile flags: /Ogsp
; File c:\program files (x86)\microsoft visual studio 10.0\vc\include\xmemory
;	COMDAT ?deallocate@?$allocator@UStGrapInfo@ioGrapplingBlowLoopSkill@@@std@@QAEXPAUStGrapInfo@ioGrapplingBlowLoopSkill@@I@Z
_TEXT	SEGMENT
__Ptr$ = 8						; size = 4
___formal$ = 12						; size = 4
?deallocate@?$allocator@UStGrapInfo@ioGrapplingBlowLoopSkill@@@std@@QAEXPAUStGrapInfo@ioGrapplingBlowLoopSkill@@I@Z PROC ; std::allocator<ioGrapplingBlowLoopSkill::StGrapInfo>::deallocate, COMDAT
; _this$ = ecx

; 181  : 		{	// deallocate object at _Ptr, ignore size

  00000	55		 push	 ebp
  00001	8b ec		 mov	 ebp, esp

; 182  : 		::operator delete(_Ptr);

  00003	ff 75 08	 push	 DWORD PTR __Ptr$[ebp]
  00006	e8 00 00 00 00	 call	 ??3@YAXPAX@Z		; operator delete
  0000b	59		 pop	 ecx

; 183  : 		}

  0000c	5d		 pop	 ebp
  0000d	c2 08 00	 ret	 8
?deallocate@?$allocator@UStGrapInfo@ioGrapplingBlowLoopSkill@@@std@@QAEXPAUStGrapInfo@ioGrapplingBlowLoopSkill@@I@Z ENDP ; std::allocator<ioGrapplingBlowLoopSkill::StGrapInfo>::deallocate
_TEXT	ENDS
PUBLIC	??0?$_Vector_const_iterator@V?$_Vector_val@UStGrapInfo@ioGrapplingBlowLoopSkill@@V?$allocator@UStGrapInfo@ioGrapplingBlowLoopSkill@@@std@@@std@@@std@@QAE@PAUStGrapInfo@ioGrapplingBlowLoopSkill@@PBU_Container_base0@1@@Z ; std::_Vector_const_iterator<std::_Vector_val<ioGrapplingBlowLoopSkill::StGrapInfo,std::allocator<ioGrapplingBlowLoopSkill::StGrapInfo> > >::_Vector_const_iterator<std::_Vector_val<ioGrapplingBlowLoopSkill::StGrapInfo,std::allocator<ioGrapplingBlowLoopSkill::StGrapInfo> > >
; Function compile flags: /Ogsp
; File c:\program files (x86)\microsoft visual studio 10.0\vc\include\vector
;	COMDAT ??0?$_Vector_const_iterator@V?$_Vector_val@UStGrapInfo@ioGrapplingBlowLoopSkill@@V?$allocator@UStGrapInfo@ioGrapplingBlowLoopSkill@@@std@@@std@@@std@@QAE@PAUStGrapInfo@ioGrapplingBlowLoopSkill@@PBU_Container_base0@1@@Z
_TEXT	SEGMENT
__Parg$ = 8						; size = 4
__Pvector$ = 12						; size = 4
??0?$_Vector_const_iterator@V?$_Vector_val@UStGrapInfo@ioGrapplingBlowLoopSkill@@V?$allocator@UStGrapInfo@ioGrapplingBlowLoopSkill@@@std@@@std@@@std@@QAE@PAUStGrapInfo@ioGrapplingBlowLoopSkill@@PBU_Container_base0@1@@Z PROC ; std::_Vector_const_iterator<std::_Vector_val<ioGrapplingBlowLoopSkill::StGrapInfo,std::allocator<ioGrapplingBlowLoopSkill::StGrapInfo> > >::_Vector_const_iterator<std::_Vector_val<ioGrapplingBlowLoopSkill::StGrapInfo,std::allocator<ioGrapplingBlowLoopSkill::StGrapInfo> > >, COMDAT
; _this$ = ecx

; 45   : 		{	// construct with pointer _Parg

  00000	55		 push	 ebp
  00001	8b ec		 mov	 ebp, esp
  00003	8b c1		 mov	 eax, ecx
  00005	8b 4d 08	 mov	 ecx, DWORD PTR __Parg$[ebp]
  00008	89 08		 mov	 DWORD PTR [eax], ecx

; 46   : 		this->_Adopt(_Pvector);
; 47   : 		}

  0000a	5d		 pop	 ebp
  0000b	c2 08 00	 ret	 8
??0?$_Vector_const_iterator@V?$_Vector_val@UStGrapInfo@ioGrapplingBlowLoopSkill@@V?$allocator@UStGrapInfo@ioGrapplingBlowLoopSkill@@@std@@@std@@@std@@QAE@PAUStGrapInfo@ioGrapplingBlowLoopSkill@@PBU_Container_base0@1@@Z ENDP ; std::_Vector_const_iterator<std::_Vector_val<ioGrapplingBlowLoopSkill::StGrapInfo,std::allocator<ioGrapplingBlowLoopSkill::StGrapInfo> > >::_Vector_const_iterator<std::_Vector_val<ioGrapplingBlowLoopSkill::StGrapInfo,std::allocator<ioGrapplingBlowLoopSkill::StGrapInfo> > >
_TEXT	ENDS
PUBLIC	?max_size@?$allocator@UStGrapInfo@ioGrapplingBlowLoopSkill@@@std@@QBEIXZ ; std::allocator<ioGrapplingBlowLoopSkill::StGrapInfo>::max_size
; Function compile flags: /Ogsp
; File c:\program files (x86)\microsoft visual studio 10.0\vc\include\xmemory
;	COMDAT ?max_size@?$allocator@UStGrapInfo@ioGrapplingBlowLoopSkill@@@std@@QBEIXZ
_TEXT	SEGMENT
?max_size@?$allocator@UStGrapInfo@ioGrapplingBlowLoopSkill@@@std@@QBEIXZ PROC ; std::allocator<ioGrapplingBlowLoopSkill::StGrapInfo>::max_size, COMDAT
; _this$ = ecx

; 218  : 		_SIZT _Count = (_SIZT)(-1) / sizeof (_Ty);
; 219  : 		return (0 < _Count ? _Count : 1);

  00000	b8 ff ff ff 01	 mov	 eax, 33554431		; 01ffffffH

; 220  : 		}

  00005	c3		 ret	 0
?max_size@?$allocator@UStGrapInfo@ioGrapplingBlowLoopSkill@@@std@@QBEIXZ ENDP ; std::allocator<ioGrapplingBlowLoopSkill::StGrapInfo>::max_size
_TEXT	ENDS
PUBLIC	?D3DXVec3Dot@@YAMPBUD3DXVECTOR3@@0@Z		; D3DXVec3Dot
; Function compile flags: /Ogsp
; File c:\program files (x86)\microsoft directx sdk (june 2010)\include\d3dx9math.inl
;	COMDAT ?D3DXVec3Dot@@YAMPBUD3DXVECTOR3@@0@Z
_TEXT	SEGMENT
tv188 = 8						; size = 4
_pV1$ = 8						; size = 4
_pV2$ = 12						; size = 4
?D3DXVec3Dot@@YAMPBUD3DXVECTOR3@@0@Z PROC		; D3DXVec3Dot, COMDAT

; 1736 : {

  00000	55		 push	 ebp
  00001	8b ec		 mov	 ebp, esp

; 1737 : #ifdef D3DX_DEBUG
; 1738 :     if(!pV1 || !pV2)
; 1739 :         return 0.0f;
; 1740 : #endif
; 1741 : 
; 1742 :     return pV1->x * pV2->x + pV1->y * pV2->y + pV1->z * pV2->z;

  00003	8b 45 08	 mov	 eax, DWORD PTR _pV1$[ebp]
  00006	8b 4d 0c	 mov	 ecx, DWORD PTR _pV2$[ebp]
  00009	d9 40 04	 fld	 DWORD PTR [eax+4]
  0000c	d8 49 04	 fmul	 DWORD PTR [ecx+4]
  0000f	d9 00		 fld	 DWORD PTR [eax]
  00011	d8 09		 fmul	 DWORD PTR [ecx]
  00013	de c1		 faddp	 ST(1), ST(0)
  00015	d9 40 08	 fld	 DWORD PTR [eax+8]
  00018	d8 49 08	 fmul	 DWORD PTR [ecx+8]
  0001b	de c1		 faddp	 ST(1), ST(0)
  0001d	d9 5d 08	 fstp	 DWORD PTR tv188[ebp]
  00020	d9 45 08	 fld	 DWORD PTR tv188[ebp]

; 1743 : }

  00023	5d		 pop	 ebp
  00024	c3		 ret	 0
?D3DXVec3Dot@@YAMPBUD3DXVECTOR3@@0@Z ENDP		; D3DXVec3Dot
_TEXT	ENDS
PUBLIC	?D3DXVec3Cross@@YAPAUD3DXVECTOR3@@PAU1@PBU1@1@Z	; D3DXVec3Cross
; Function compile flags: /Ogsp
;	COMDAT ?D3DXVec3Cross@@YAPAUD3DXVECTOR3@@PAU1@PBU1@1@Z
_TEXT	SEGMENT
_v$ = -12						; size = 12
_pOut$ = 8						; size = 4
_pV1$ = 12						; size = 4
_pV2$ = 16						; size = 4
?D3DXVec3Cross@@YAPAUD3DXVECTOR3@@PAU1@PBU1@1@Z PROC	; D3DXVec3Cross, COMDAT

; 1747 : {

  00000	55		 push	 ebp
  00001	8b ec		 mov	 ebp, esp
  00003	83 ec 0c	 sub	 esp, 12			; 0000000cH

; 1757 :     v.z = pV1->x * pV2->y - pV1->y * pV2->x;
; 1758 : 
; 1759 :     *pOut = v;

  00006	56		 push	 esi
  00007	57		 push	 edi

; 1748 :     D3DXVECTOR3 v;
; 1749 : 
; 1750 : #ifdef D3DX_DEBUG
; 1751 :     if(!pOut || !pV1 || !pV2)
; 1752 :         return NULL;
; 1753 : #endif
; 1754 : 
; 1755 :     v.x = pV1->y * pV2->z - pV1->z * pV2->y;

  00008	8b 45 0c	 mov	 eax, DWORD PTR _pV1$[ebp]
  0000b	f3 0f 10 40 04	 movss	 xmm0, DWORD PTR [eax+4]
  00010	f3 0f 10 50 08	 movss	 xmm2, DWORD PTR [eax+8]
  00015	8b 4d 10	 mov	 ecx, DWORD PTR _pV2$[ebp]
  00018	f3 0f 10 49 08	 movss	 xmm1, DWORD PTR [ecx+8]
  0001d	f3 0f 10 59 04	 movss	 xmm3, DWORD PTR [ecx+4]
  00022	0f 5a e8	 cvtps2pd xmm5, xmm0
  00025	0f 5a e1	 cvtps2pd xmm4, xmm1
  00028	0f 5a f2	 cvtps2pd xmm6, xmm2
  0002b	f2 0f 59 e5	 mulsd	 xmm4, xmm5

; 1756 :     v.y = pV1->z * pV2->x - pV1->x * pV2->z;

  0002f	0f 5a d2	 cvtps2pd xmm2, xmm2
  00032	0f 5a c9	 cvtps2pd xmm1, xmm1
  00035	0f 5a eb	 cvtps2pd xmm5, xmm3
  00038	f2 0f 59 ee	 mulsd	 xmm5, xmm6
  0003c	f2 0f 5c e5	 subsd	 xmm4, xmm5
  00040	f3 0f 10 28	 movss	 xmm5, DWORD PTR [eax]

; 1757 :     v.z = pV1->x * pV2->y - pV1->y * pV2->x;
; 1758 : 
; 1759 :     *pOut = v;

  00044	8b 45 08	 mov	 eax, DWORD PTR _pOut$[ebp]
  00047	66 0f 5a e4	 cvtpd2ps xmm4, xmm4
  0004b	f3 0f 11 65 f4	 movss	 DWORD PTR _v$[ebp], xmm4
  00050	f3 0f 10 21	 movss	 xmm4, DWORD PTR [ecx]
  00054	0f 5a f4	 cvtps2pd xmm6, xmm4
  00057	f2 0f 59 f2	 mulsd	 xmm6, xmm2
  0005b	0f 5a d5	 cvtps2pd xmm2, xmm5
  0005e	f2 0f 59 d1	 mulsd	 xmm2, xmm1
  00062	f2 0f 5c f2	 subsd	 xmm6, xmm2
  00066	66 0f 5a ce	 cvtpd2ps xmm1, xmm6
  0006a	f3 0f 11 4d f8	 movss	 DWORD PTR _v$[ebp+4], xmm1
  0006f	0f 5a c0	 cvtps2pd xmm0, xmm0
  00072	0f 5a d3	 cvtps2pd xmm2, xmm3
  00075	0f 5a cd	 cvtps2pd xmm1, xmm5
  00078	f2 0f 59 ca	 mulsd	 xmm1, xmm2
  0007c	8d 75 f4	 lea	 esi, DWORD PTR _v$[ebp]
  0007f	8b f8		 mov	 edi, eax
  00081	0f 5a d4	 cvtps2pd xmm2, xmm4
  00084	f2 0f 59 d0	 mulsd	 xmm2, xmm0
  00088	f2 0f 5c ca	 subsd	 xmm1, xmm2
  0008c	66 0f 5a c1	 cvtpd2ps xmm0, xmm1
  00090	f3 0f 11 45 fc	 movss	 DWORD PTR _v$[ebp+8], xmm0
  00095	a5		 movsd
  00096	a5		 movsd
  00097	a5		 movsd
  00098	5f		 pop	 edi
  00099	5e		 pop	 esi

; 1760 :     return pOut;
; 1761 : }

  0009a	c9		 leave
  0009b	c3		 ret	 0
?D3DXVec3Cross@@YAPAUD3DXVECTOR3@@PAU1@PBU1@1@Z ENDP	; D3DXVec3Cross
_TEXT	ENDS
PUBLIC	__real@3f91df46a2526c7a
PUBLIC	??$DEGtoRAD@M@@YAMM@Z				; DEGtoRAD<float>
;	COMDAT __real@3f91df46a2526c7a
; File d:\lost saga for developer\youtube\tutorial\source\src\lsclient\veryoftenusedefine.h
CONST	SEGMENT
__real@3f91df46a2526c7a DQ 03f91df46a2526c7ar	; 0.0174533
; Function compile flags: /Ogsp
CONST	ENDS
;	COMDAT ??$DEGtoRAD@M@@YAMM@Z
_TEXT	SEGMENT
tv129 = 8						; size = 4
_val$ = 8						; size = 4
??$DEGtoRAD@M@@YAMM@Z PROC				; DEGtoRAD<float>, COMDAT

; 20   : type  DEGtoRAD (type val) {return (type) (val * 0.0174532925199);}

  00000	55		 push	 ebp
  00001	8b ec		 mov	 ebp, esp
  00003	d9 45 08	 fld	 DWORD PTR _val$[ebp]
  00006	dc 0d 00 00 00
	00		 fmul	 QWORD PTR __real@3f91df46a2526c7a
  0000c	d9 5d 08	 fstp	 DWORD PTR tv129[ebp]
  0000f	d9 45 08	 fld	 DWORD PTR tv129[ebp]
  00012	5d		 pop	 ebp
  00013	c3		 ret	 0
??$DEGtoRAD@M@@YAMM@Z ENDP				; DEGtoRAD<float>
_TEXT	ENDS
PUBLIC	??$addressof@$$CBVioHashString@@@std@@YAPBVioHashString@@ABV1@@Z ; std::addressof<ioHashString const >
; Function compile flags: /Ogsp
; File c:\program files (x86)\microsoft visual studio 10.0\vc\include\xmemory
;	COMDAT ??$addressof@$$CBVioHashString@@@std@@YAPBVioHashString@@ABV1@@Z
_TEXT	SEGMENT
__Val$ = 8						; size = 4
??$addressof@$$CBVioHashString@@@std@@YAPBVioHashString@@ABV1@@Z PROC ; std::addressof<ioHashString const >, COMDAT

; 110  : 	{	// return address of _Val

  00000	55		 push	 ebp
  00001	8b ec		 mov	 ebp, esp

; 111  : 	return ((_Ty *) &(char&)_Val);

  00003	8b 45 08	 mov	 eax, DWORD PTR __Val$[ebp]

; 112  : 	}

  00006	5d		 pop	 ebp
  00007	c3		 ret	 0
??$addressof@$$CBVioHashString@@@std@@YAPBVioHashString@@ABV1@@Z ENDP ; std::addressof<ioHashString const >
_TEXT	ENDS
PUBLIC	??$addressof@$$CBUStGrapInfo@ioGrapplingBlowLoopSkill@@@std@@YAPBUStGrapInfo@ioGrapplingBlowLoopSkill@@ABU12@@Z ; std::addressof<ioGrapplingBlowLoopSkill::StGrapInfo const >
; Function compile flags: /Ogsp
;	COMDAT ??$addressof@$$CBUStGrapInfo@ioGrapplingBlowLoopSkill@@@std@@YAPBUStGrapInfo@ioGrapplingBlowLoopSkill@@ABU12@@Z
_TEXT	SEGMENT
__Val$ = 8						; size = 4
??$addressof@$$CBUStGrapInfo@ioGrapplingBlowLoopSkill@@@std@@YAPBUStGrapInfo@ioGrapplingBlowLoopSkill@@ABU12@@Z PROC ; std::addressof<ioGrapplingBlowLoopSkill::StGrapInfo const >, COMDAT

; 110  : 	{	// return address of _Val

  00000	55		 push	 ebp
  00001	8b ec		 mov	 ebp, esp

; 111  : 	return ((_Ty *) &(char&)_Val);

  00003	8b 45 08	 mov	 eax, DWORD PTR __Val$[ebp]

; 112  : 	}

  00006	5d		 pop	 ebp
  00007	c3		 ret	 0
??$addressof@$$CBUStGrapInfo@ioGrapplingBlowLoopSkill@@@std@@YAPBUStGrapInfo@ioGrapplingBlowLoopSkill@@ABU12@@Z ENDP ; std::addressof<ioGrapplingBlowLoopSkill::StGrapInfo const >
_TEXT	ENDS
PUBLIC	__TI2?AVbad_alloc@std@@
PUBLIC	??$_Allocate@UStGrapInfo@ioGrapplingBlowLoopSkill@@@std@@YAPAUStGrapInfo@ioGrapplingBlowLoopSkill@@IPAU12@@Z ; std::_Allocate<ioGrapplingBlowLoopSkill::StGrapInfo>
PUBLIC	__CTA2?AVbad_alloc@std@@
PUBLIC	__CT??_R0?AVbad_alloc@std@@@8??0bad_alloc@std@@QAE@ABV01@@Z12
PUBLIC	??0bad_alloc@std@@QAE@ABV01@@Z			; std::bad_alloc::bad_alloc
PUBLIC	__CT??_R0?AVexception@std@@@8??0exception@std@@QAE@ABV01@@Z12
EXTRN	??2@YAPAXI@Z:PROC				; operator new
EXTRN	__CxxThrowException@8:PROC
EXTRN	??0exception@std@@QAE@ABV01@@Z:PROC		; std::exception::exception
;	COMDAT __CT??_R0?AVexception@std@@@8??0exception@std@@QAE@ABV01@@Z12
; File c:\program files (x86)\microsoft visual studio 10.0\vc\include\exception
xdata$x	SEGMENT
__CT??_R0?AVexception@std@@@8??0exception@std@@QAE@ABV01@@Z12 DD 00H
	DD	FLAT:??_R0?AVexception@std@@@8
	DD	00H
	DD	0ffffffffH
	ORG $+4
	DD	0cH
	DD	FLAT:??0exception@std@@QAE@ABV01@@Z
xdata$x	ENDS
;	COMDAT __CT??_R0?AVbad_alloc@std@@@8??0bad_alloc@std@@QAE@ABV01@@Z12
xdata$x	SEGMENT
__CT??_R0?AVbad_alloc@std@@@8??0bad_alloc@std@@QAE@ABV01@@Z12 DD 00H
	DD	FLAT:??_R0?AVbad_alloc@std@@@8
	DD	00H
	DD	0ffffffffH
	ORG $+4
	DD	0cH
	DD	FLAT:??0bad_alloc@std@@QAE@ABV01@@Z
xdata$x	ENDS
;	COMDAT __CTA2?AVbad_alloc@std@@
xdata$x	SEGMENT
__CTA2?AVbad_alloc@std@@ DD 02H
	DD	FLAT:__CT??_R0?AVbad_alloc@std@@@8??0bad_alloc@std@@QAE@ABV01@@Z12
	DD	FLAT:__CT??_R0?AVexception@std@@@8??0exception@std@@QAE@ABV01@@Z12
xdata$x	ENDS
;	COMDAT __TI2?AVbad_alloc@std@@
xdata$x	SEGMENT
__TI2?AVbad_alloc@std@@ DD 00H
	DD	FLAT:??1bad_alloc@std@@UAE@XZ
	DD	00H
	DD	FLAT:__CTA2?AVbad_alloc@std@@
; Function compile flags: /Ogsp
; File c:\program files (x86)\microsoft visual studio 10.0\vc\include\xmemory
xdata$x	ENDS
;	COMDAT ??$_Allocate@UStGrapInfo@ioGrapplingBlowLoopSkill@@@std@@YAPAUStGrapInfo@ioGrapplingBlowLoopSkill@@IPAU12@@Z
_TEXT	SEGMENT
$T556295 = -12						; size = 12
$T556300 = 8						; size = 4
__Count$ = 8						; size = 4
___formal$ = 12						; size = 4
??$_Allocate@UStGrapInfo@ioGrapplingBlowLoopSkill@@@std@@YAPAUStGrapInfo@ioGrapplingBlowLoopSkill@@IPAU12@@Z PROC ; std::_Allocate<ioGrapplingBlowLoopSkill::StGrapInfo>, COMDAT

; 30   : 	{	// allocate storage for _Count elements of type _Ty

  00000	55		 push	 ebp
  00001	8b ec		 mov	 ebp, esp

; 31   : 	void *_Ptr = 0;
; 32   : 
; 33   : 	if (_Count <= 0)

  00003	8b 4d 08	 mov	 ecx, DWORD PTR __Count$[ebp]
  00006	83 ec 0c	 sub	 esp, 12			; 0000000cH
  00009	33 c0		 xor	 eax, eax
  0000b	85 c9		 test	 ecx, ecx

; 34   : 		_Count = 0;
; 35   : 	else if (((_SIZT)(-1) / sizeof (_Ty) < _Count)

  0000d	74 3c		 je	 SHORT $LN5@Allocate

; 36   : 		|| (_Ptr = ::operator new(_Count * sizeof (_Ty))) == 0)

  0000f	81 f9 ff ff ff
	01		 cmp	 ecx, 33554431		; 01ffffffH
  00015	77 0e		 ja	 SHORT $LN1@Allocate
  00017	c1 e1 07	 shl	 ecx, 7
  0001a	51		 push	 ecx
  0001b	e8 00 00 00 00	 call	 ??2@YAPAXI@Z		; operator new
  00020	59		 pop	 ecx
  00021	85 c0		 test	 eax, eax

; 38   : 
; 39   : 	return ((_Ty _FARQ *)_Ptr);

  00023	75 26		 jne	 SHORT $LN5@Allocate
$LN1@Allocate:

; 37   : 		_THROW_NCEE(bad_alloc, 0);

  00025	83 65 08 00	 and	 DWORD PTR $T556300[ebp], 0
  00029	8d 45 08	 lea	 eax, DWORD PTR $T556300[ebp]
  0002c	50		 push	 eax
  0002d	8d 4d f4	 lea	 ecx, DWORD PTR $T556295[ebp]
  00030	ff 15 00 00 00
	00		 call	 DWORD PTR __imp_??0exception@std@@QAE@ABQBD@Z
  00036	68 00 00 00 00	 push	 OFFSET __TI2?AVbad_alloc@std@@
  0003b	8d 45 f4	 lea	 eax, DWORD PTR $T556295[ebp]
  0003e	50		 push	 eax
  0003f	c7 45 f4 00 00
	00 00		 mov	 DWORD PTR $T556295[ebp], OFFSET ??_7bad_alloc@std@@6B@
  00046	e8 00 00 00 00	 call	 __CxxThrowException@8
$LN10@Allocate:
$LN5@Allocate:

; 40   : 	}

  0004b	c9		 leave
  0004c	c3		 ret	 0
$LN9@Allocate:
??$_Allocate@UStGrapInfo@ioGrapplingBlowLoopSkill@@@std@@YAPAUStGrapInfo@ioGrapplingBlowLoopSkill@@IPAU12@@Z ENDP ; std::_Allocate<ioGrapplingBlowLoopSkill::StGrapInfo>
_TEXT	ENDS
PUBLIC	??$forward@AAUStGrapInfo@ioGrapplingBlowLoopSkill@@@std@@YAAAUStGrapInfo@ioGrapplingBlowLoopSkill@@AAU12@@Z ; std::forward<ioGrapplingBlowLoopSkill::StGrapInfo &>
; Function compile flags: /Ogsp
; File c:\program files (x86)\microsoft visual studio 10.0\vc\include\utility
;	COMDAT ??$forward@AAUStGrapInfo@ioGrapplingBlowLoopSkill@@@std@@YAAAUStGrapInfo@ioGrapplingBlowLoopSkill@@AAU12@@Z
_TEXT	SEGMENT
__Arg$ = 8						; size = 4
??$forward@AAUStGrapInfo@ioGrapplingBlowLoopSkill@@@std@@YAAAUStGrapInfo@ioGrapplingBlowLoopSkill@@AAU12@@Z PROC ; std::forward<ioGrapplingBlowLoopSkill::StGrapInfo &>, COMDAT

; 78   : 	{	// forward _Arg, given explicitly specified type parameter

  00000	55		 push	 ebp
  00001	8b ec		 mov	 ebp, esp

; 79   : 	return ((_Ty&&)_Arg);

  00003	8b 45 08	 mov	 eax, DWORD PTR __Arg$[ebp]

; 80   : 	}

  00006	5d		 pop	 ebp
  00007	c3		 ret	 0
??$forward@AAUStGrapInfo@ioGrapplingBlowLoopSkill@@@std@@YAAAUStGrapInfo@ioGrapplingBlowLoopSkill@@AAU12@@Z ENDP ; std::forward<ioGrapplingBlowLoopSkill::StGrapInfo &>
_TEXT	ENDS
PUBLIC	??$forward@ABUStGrapInfo@ioGrapplingBlowLoopSkill@@@std@@YAABUStGrapInfo@ioGrapplingBlowLoopSkill@@ABU12@@Z ; std::forward<ioGrapplingBlowLoopSkill::StGrapInfo const &>
; Function compile flags: /Ogsp
;	COMDAT ??$forward@ABUStGrapInfo@ioGrapplingBlowLoopSkill@@@std@@YAABUStGrapInfo@ioGrapplingBlowLoopSkill@@ABU12@@Z
_TEXT	SEGMENT
__Arg$ = 8						; size = 4
??$forward@ABUStGrapInfo@ioGrapplingBlowLoopSkill@@@std@@YAABUStGrapInfo@ioGrapplingBlowLoopSkill@@ABU12@@Z PROC ; std::forward<ioGrapplingBlowLoopSkill::StGrapInfo const &>, COMDAT

; 78   : 	{	// forward _Arg, given explicitly specified type parameter

  00000	55		 push	 ebp
  00001	8b ec		 mov	 ebp, esp

; 79   : 	return ((_Ty&&)_Arg);

  00003	8b 45 08	 mov	 eax, DWORD PTR __Arg$[ebp]

; 80   : 	}

  00006	5d		 pop	 ebp
  00007	c3		 ret	 0
??$forward@ABUStGrapInfo@ioGrapplingBlowLoopSkill@@@std@@YAABUStGrapInfo@ioGrapplingBlowLoopSkill@@ABU12@@Z ENDP ; std::forward<ioGrapplingBlowLoopSkill::StGrapInfo const &>
_TEXT	ENDS
PUBLIC	??$_Ptr_cat@UStGrapInfo@ioGrapplingBlowLoopSkill@@U12@@std@@YA?AU_Nonscalar_ptr_iterator_tag@0@PAUStGrapInfo@ioGrapplingBlowLoopSkill@@0@Z ; std::_Ptr_cat<ioGrapplingBlowLoopSkill::StGrapInfo,ioGrapplingBlowLoopSkill::StGrapInfo>
; Function compile flags: /Ogsp
; File c:\program files (x86)\microsoft visual studio 10.0\vc\include\xutility
;	COMDAT ??$_Ptr_cat@UStGrapInfo@ioGrapplingBlowLoopSkill@@U12@@std@@YA?AU_Nonscalar_ptr_iterator_tag@0@PAUStGrapInfo@ioGrapplingBlowLoopSkill@@0@Z
_TEXT	SEGMENT
__Cat$ = -1						; size = 1
___formal$ = 8						; size = 4
___formal$ = 12						; size = 4
??$_Ptr_cat@UStGrapInfo@ioGrapplingBlowLoopSkill@@U12@@std@@YA?AU_Nonscalar_ptr_iterator_tag@0@PAUStGrapInfo@ioGrapplingBlowLoopSkill@@0@Z PROC ; std::_Ptr_cat<ioGrapplingBlowLoopSkill::StGrapInfo,ioGrapplingBlowLoopSkill::StGrapInfo>, COMDAT

; 516  : 	{	// return pointer category from pointers

  00000	55		 push	 ebp
  00001	8b ec		 mov	 ebp, esp
  00003	51		 push	 ecx

; 517  : 	typename _Ptr_cat_helper<_Elem1, _Elem2>::_Type _Cat;
; 518  : 	return (_Cat);

  00004	8a 45 ff	 mov	 al, BYTE PTR __Cat$[ebp]

; 519  : 	}

  00007	c9		 leave
  00008	c3		 ret	 0
??$_Ptr_cat@UStGrapInfo@ioGrapplingBlowLoopSkill@@U12@@std@@YA?AU_Nonscalar_ptr_iterator_tag@0@PAUStGrapInfo@ioGrapplingBlowLoopSkill@@0@Z ENDP ; std::_Ptr_cat<ioGrapplingBlowLoopSkill::StGrapInfo,ioGrapplingBlowLoopSkill::StGrapInfo>
_TEXT	ENDS
PUBLIC	??$_Val_type@PAVioHashString@@@std@@YAPAVioHashString@@PAV1@@Z ; std::_Val_type<ioHashString *>
; Function compile flags: /Ogsp
;	COMDAT ??$_Val_type@PAVioHashString@@@std@@YAPAVioHashString@@PAV1@@Z
_TEXT	SEGMENT
___formal$ = 8						; size = 4
??$_Val_type@PAVioHashString@@@std@@YAPAVioHashString@@PAV1@@Z PROC ; std::_Val_type<ioHashString *>, COMDAT

; 790  : 	return (0);

  00000	33 c0		 xor	 eax, eax

; 791  : 	}

  00002	c3		 ret	 0
??$_Val_type@PAVioHashString@@@std@@YAPAVioHashString@@PAV1@@Z ENDP ; std::_Val_type<ioHashString *>
_TEXT	ENDS
PUBLIC	??$_Ptr_cat@V?$_Vector_const_iterator@V?$_Vector_val@UStGrapInfo@ioGrapplingBlowLoopSkill@@V?$allocator@UStGrapInfo@ioGrapplingBlowLoopSkill@@@std@@@std@@@std@@PAUStGrapInfo@ioGrapplingBlowLoopSkill@@@std@@YA?AU_Nonscalar_ptr_iterator_tag@0@AAV?$_Vector_const_iterator@V?$_Vector_val@UStGrapInfo@ioGrapplingBlowLoopSkill@@V?$allocator@UStGrapInfo@ioGrapplingBlowLoopSkill@@@std@@@std@@@0@AAPAUStGrapInfo@ioGrapplingBlowLoopSkill@@@Z ; std::_Ptr_cat<std::_Vector_const_iterator<std::_Vector_val<ioGrapplingBlowLoopSkill::StGrapInfo,std::allocator<ioGrapplingBlowLoopSkill::StGrapInfo> > >,ioGrapplingBlowLoopSkill::StGrapInfo *>
; Function compile flags: /Ogsp
;	COMDAT ??$_Ptr_cat@V?$_Vector_const_iterator@V?$_Vector_val@UStGrapInfo@ioGrapplingBlowLoopSkill@@V?$allocator@UStGrapInfo@ioGrapplingBlowLoopSkill@@@std@@@std@@@std@@PAUStGrapInfo@ioGrapplingBlowLoopSkill@@@std@@YA?AU_Nonscalar_ptr_iterator_tag@0@AAV?$_Vector_const_iterator@V?$_Vector_val@UStGrapInfo@ioGrapplingBlowLoopSkill@@V?$allocator@UStGrapInfo@ioGrapplingBlowLoopSkill@@@std@@@std@@@0@AAPAUStGrapInfo@ioGrapplingBlowLoopSkill@@@Z
_TEXT	SEGMENT
__Cat$ = -1						; size = 1
___formal$ = 8						; size = 4
___formal$ = 12						; size = 4
??$_Ptr_cat@V?$_Vector_const_iterator@V?$_Vector_val@UStGrapInfo@ioGrapplingBlowLoopSkill@@V?$allocator@UStGrapInfo@ioGrapplingBlowLoopSkill@@@std@@@std@@@std@@PAUStGrapInfo@ioGrapplingBlowLoopSkill@@@std@@YA?AU_Nonscalar_ptr_iterator_tag@0@AAV?$_Vector_const_iterator@V?$_Vector_val@UStGrapInfo@ioGrapplingBlowLoopSkill@@V?$allocator@UStGrapInfo@ioGrapplingBlowLoopSkill@@@std@@@std@@@0@AAPAUStGrapInfo@ioGrapplingBlowLoopSkill@@@Z PROC ; std::_Ptr_cat<std::_Vector_const_iterator<std::_Vector_val<ioGrapplingBlowLoopSkill::StGrapInfo,std::allocator<ioGrapplingBlowLoopSkill::StGrapInfo> > >,ioGrapplingBlowLoopSkill::StGrapInfo *>, COMDAT

; 485  : 	{	// return pointer category from arbitrary arguments

  00000	55		 push	 ebp
  00001	8b ec		 mov	 ebp, esp
  00003	51		 push	 ecx

; 486  : 	_Nonscalar_ptr_iterator_tag _Cat;
; 487  : 	return (_Cat);

  00004	8a 45 ff	 mov	 al, BYTE PTR __Cat$[ebp]

; 488  : 	}

  00007	c9		 leave
  00008	c3		 ret	 0
??$_Ptr_cat@V?$_Vector_const_iterator@V?$_Vector_val@UStGrapInfo@ioGrapplingBlowLoopSkill@@V?$allocator@UStGrapInfo@ioGrapplingBlowLoopSkill@@@std@@@std@@@std@@PAUStGrapInfo@ioGrapplingBlowLoopSkill@@@std@@YA?AU_Nonscalar_ptr_iterator_tag@0@AAV?$_Vector_const_iterator@V?$_Vector_val@UStGrapInfo@ioGrapplingBlowLoopSkill@@V?$allocator@UStGrapInfo@ioGrapplingBlowLoopSkill@@@std@@@std@@@0@AAPAUStGrapInfo@ioGrapplingBlowLoopSkill@@@Z ENDP ; std::_Ptr_cat<std::_Vector_const_iterator<std::_Vector_val<ioGrapplingBlowLoopSkill::StGrapInfo,std::allocator<ioGrapplingBlowLoopSkill::StGrapInfo> > >,ioGrapplingBlowLoopSkill::StGrapInfo *>
_TEXT	ENDS
PUBLIC	??$_Val_type@PAUStGrapInfo@ioGrapplingBlowLoopSkill@@@std@@YAPAUStGrapInfo@ioGrapplingBlowLoopSkill@@PAU12@@Z ; std::_Val_type<ioGrapplingBlowLoopSkill::StGrapInfo *>
; Function compile flags: /Ogsp
;	COMDAT ??$_Val_type@PAUStGrapInfo@ioGrapplingBlowLoopSkill@@@std@@YAPAUStGrapInfo@ioGrapplingBlowLoopSkill@@PAU12@@Z
_TEXT	SEGMENT
___formal$ = 8						; size = 4
??$_Val_type@PAUStGrapInfo@ioGrapplingBlowLoopSkill@@@std@@YAPAUStGrapInfo@ioGrapplingBlowLoopSkill@@PAU12@@Z PROC ; std::_Val_type<ioGrapplingBlowLoopSkill::StGrapInfo *>, COMDAT

; 790  : 	return (0);

  00000	33 c0		 xor	 eax, eax

; 791  : 	}

  00002	c3		 ret	 0
??$_Val_type@PAUStGrapInfo@ioGrapplingBlowLoopSkill@@@std@@YAPAUStGrapInfo@ioGrapplingBlowLoopSkill@@PAU12@@Z ENDP ; std::_Val_type<ioGrapplingBlowLoopSkill::StGrapInfo *>
_TEXT	ENDS
PUBLIC	??D?$_Vector_const_iterator@V?$_Vector_val@UStGrapInfo@ioGrapplingBlowLoopSkill@@V?$allocator@UStGrapInfo@ioGrapplingBlowLoopSkill@@@std@@@std@@@std@@QBEABUStGrapInfo@ioGrapplingBlowLoopSkill@@XZ ; std::_Vector_const_iterator<std::_Vector_val<ioGrapplingBlowLoopSkill::StGrapInfo,std::allocator<ioGrapplingBlowLoopSkill::StGrapInfo> > >::operator*
; Function compile flags: /Ogsp
; File c:\program files (x86)\microsoft visual studio 10.0\vc\include\vector
;	COMDAT ??D?$_Vector_const_iterator@V?$_Vector_val@UStGrapInfo@ioGrapplingBlowLoopSkill@@V?$allocator@UStGrapInfo@ioGrapplingBlowLoopSkill@@@std@@@std@@@std@@QBEABUStGrapInfo@ioGrapplingBlowLoopSkill@@XZ
_TEXT	SEGMENT
??D?$_Vector_const_iterator@V?$_Vector_val@UStGrapInfo@ioGrapplingBlowLoopSkill@@V?$allocator@UStGrapInfo@ioGrapplingBlowLoopSkill@@@std@@@std@@@std@@QBEABUStGrapInfo@ioGrapplingBlowLoopSkill@@XZ PROC ; std::_Vector_const_iterator<std::_Vector_val<ioGrapplingBlowLoopSkill::StGrapInfo,std::allocator<ioGrapplingBlowLoopSkill::StGrapInfo> > >::operator*, COMDAT
; _this$ = ecx

; 64   :  #if _ITERATOR_DEBUG_LEVEL == 2
; 65   : 		if (this->_Getcont() == 0
; 66   : 			|| this->_Ptr == 0
; 67   : 			|| this->_Ptr < ((_Myvec *)this->_Getcont())->_Myfirst
; 68   : 			|| ((_Myvec *)this->_Getcont())->_Mylast <= this->_Ptr)
; 69   : 			{	// report error
; 70   : 			_DEBUG_ERROR("vector iterator not dereferencable");
; 71   : 			_SCL_SECURE_OUT_OF_RANGE;
; 72   : 			}
; 73   : 
; 74   :  #elif _ITERATOR_DEBUG_LEVEL == 1
; 75   : 		_SCL_SECURE_VALIDATE(this->_Getcont() != 0);
; 76   : 		_SCL_SECURE_VALIDATE_RANGE(
; 77   : 			this->_Ptr != 0
; 78   : 			&& ((_Myvec *)this->_Getcont())->_Myfirst <= this->_Ptr
; 79   : 			&& this->_Ptr < ((_Myvec *)this->_Getcont())->_Mylast);
; 80   :  #endif /* _ITERATOR_DEBUG_LEVEL */
; 81   : 
; 82   : 		__analysis_assume(this->_Ptr != 0);
; 83   : 
; 84   : 		return (*this->_Ptr);

  00000	8b 01		 mov	 eax, DWORD PTR [ecx]

; 85   : 		}

  00002	c3		 ret	 0
??D?$_Vector_const_iterator@V?$_Vector_val@UStGrapInfo@ioGrapplingBlowLoopSkill@@V?$allocator@UStGrapInfo@ioGrapplingBlowLoopSkill@@@std@@@std@@@std@@QBEABUStGrapInfo@ioGrapplingBlowLoopSkill@@XZ ENDP ; std::_Vector_const_iterator<std::_Vector_val<ioGrapplingBlowLoopSkill::StGrapInfo,std::allocator<ioGrapplingBlowLoopSkill::StGrapInfo> > >::operator*
_TEXT	ENDS
PUBLIC	??E?$_Vector_const_iterator@V?$_Vector_val@UStGrapInfo@ioGrapplingBlowLoopSkill@@V?$allocator@UStGrapInfo@ioGrapplingBlowLoopSkill@@@std@@@std@@@std@@QAEAAV01@XZ ; std::_Vector_const_iterator<std::_Vector_val<ioGrapplingBlowLoopSkill::StGrapInfo,std::allocator<ioGrapplingBlowLoopSkill::StGrapInfo> > >::operator++
; Function compile flags: /Ogsp
;	COMDAT ??E?$_Vector_const_iterator@V?$_Vector_val@UStGrapInfo@ioGrapplingBlowLoopSkill@@V?$allocator@UStGrapInfo@ioGrapplingBlowLoopSkill@@@std@@@std@@@std@@QAEAAV01@XZ
_TEXT	SEGMENT
??E?$_Vector_const_iterator@V?$_Vector_val@UStGrapInfo@ioGrapplingBlowLoopSkill@@V?$allocator@UStGrapInfo@ioGrapplingBlowLoopSkill@@@std@@@std@@@std@@QAEAAV01@XZ PROC ; std::_Vector_const_iterator<std::_Vector_val<ioGrapplingBlowLoopSkill::StGrapInfo,std::allocator<ioGrapplingBlowLoopSkill::StGrapInfo> > >::operator++, COMDAT
; _this$ = ecx

; 93   : 		{	// preincrement

  00000	8b c1		 mov	 eax, ecx

; 94   :  #if _ITERATOR_DEBUG_LEVEL == 2
; 95   : 		if (this->_Getcont() == 0
; 96   : 			|| this->_Ptr == 0
; 97   : 			|| ((_Myvec *)this->_Getcont())->_Mylast <= this->_Ptr)
; 98   : 			{	// report error
; 99   : 			_DEBUG_ERROR("vector iterator not incrementable");
; 100  : 			_SCL_SECURE_OUT_OF_RANGE;
; 101  : 			}
; 102  : 
; 103  :  #elif _ITERATOR_DEBUG_LEVEL == 1
; 104  : 		_SCL_SECURE_VALIDATE(this->_Getcont() != 0);
; 105  : 		_SCL_SECURE_VALIDATE_RANGE(
; 106  : 			this->_Ptr != 0
; 107  : 			&& this->_Ptr < ((_Myvec *)this->_Getcont())->_Mylast);
; 108  :  #endif /* _ITERATOR_DEBUG_LEVEL */
; 109  : 
; 110  : 		++this->_Ptr;

  00002	83 28 80	 sub	 DWORD PTR [eax], -128	; ffffff80H

; 111  : 		return (*this);
; 112  : 		}

  00005	c3		 ret	 0
??E?$_Vector_const_iterator@V?$_Vector_val@UStGrapInfo@ioGrapplingBlowLoopSkill@@V?$allocator@UStGrapInfo@ioGrapplingBlowLoopSkill@@@std@@@std@@@std@@QAEAAV01@XZ ENDP ; std::_Vector_const_iterator<std::_Vector_val<ioGrapplingBlowLoopSkill::StGrapInfo,std::allocator<ioGrapplingBlowLoopSkill::StGrapInfo> > >::operator++
_TEXT	ENDS
PUBLIC	?_Compat@?$_Vector_const_iterator@V?$_Vector_val@UStGrapInfo@ioGrapplingBlowLoopSkill@@V?$allocator@UStGrapInfo@ioGrapplingBlowLoopSkill@@@std@@@std@@@std@@QBEXABV12@@Z ; std::_Vector_const_iterator<std::_Vector_val<ioGrapplingBlowLoopSkill::StGrapInfo,std::allocator<ioGrapplingBlowLoopSkill::StGrapInfo> > >::_Compat
; Function compile flags: /Ogsp
;	COMDAT ?_Compat@?$_Vector_const_iterator@V?$_Vector_val@UStGrapInfo@ioGrapplingBlowLoopSkill@@V?$allocator@UStGrapInfo@ioGrapplingBlowLoopSkill@@@std@@@std@@@std@@QBEXABV12@@Z
_TEXT	SEGMENT
___formal$ = 8						; size = 4
?_Compat@?$_Vector_const_iterator@V?$_Vector_val@UStGrapInfo@ioGrapplingBlowLoopSkill@@V?$allocator@UStGrapInfo@ioGrapplingBlowLoopSkill@@@std@@@std@@@std@@QBEXABV12@@Z PROC ; std::_Vector_const_iterator<std::_Vector_val<ioGrapplingBlowLoopSkill::StGrapInfo,std::allocator<ioGrapplingBlowLoopSkill::StGrapInfo> > >::_Compat, COMDAT
; _this$ = ecx

; 253  : 		}

  00000	c2 04 00	 ret	 4
?_Compat@?$_Vector_const_iterator@V?$_Vector_val@UStGrapInfo@ioGrapplingBlowLoopSkill@@V?$allocator@UStGrapInfo@ioGrapplingBlowLoopSkill@@@std@@@std@@@std@@QBEXABV12@@Z ENDP ; std::_Vector_const_iterator<std::_Vector_val<ioGrapplingBlowLoopSkill::StGrapInfo,std::allocator<ioGrapplingBlowLoopSkill::StGrapInfo> > >::_Compat
_TEXT	ENDS
PUBLIC	??$forward@VioHashString@@@std@@YA$$QAVioHashString@@AAV1@@Z ; std::forward<ioHashString>
; Function compile flags: /Ogsp
; File c:\program files (x86)\microsoft visual studio 10.0\vc\include\utility
;	COMDAT ??$forward@VioHashString@@@std@@YA$$QAVioHashString@@AAV1@@Z
_TEXT	SEGMENT
__Arg$ = 8						; size = 4
??$forward@VioHashString@@@std@@YA$$QAVioHashString@@AAV1@@Z PROC ; std::forward<ioHashString>, COMDAT

; 78   : 	{	// forward _Arg, given explicitly specified type parameter

  00000	55		 push	 ebp
  00001	8b ec		 mov	 ebp, esp

; 79   : 	return ((_Ty&&)_Arg);

  00003	8b 45 08	 mov	 eax, DWORD PTR __Arg$[ebp]

; 80   : 	}

  00006	5d		 pop	 ebp
  00007	c3		 ret	 0
??$forward@VioHashString@@@std@@YA$$QAVioHashString@@AAV1@@Z ENDP ; std::forward<ioHashString>
_TEXT	ENDS
PUBLIC	??$forward@UStGrapInfo@ioGrapplingBlowLoopSkill@@@std@@YA$$QAUStGrapInfo@ioGrapplingBlowLoopSkill@@AAU12@@Z ; std::forward<ioGrapplingBlowLoopSkill::StGrapInfo>
; Function compile flags: /Ogsp
;	COMDAT ??$forward@UStGrapInfo@ioGrapplingBlowLoopSkill@@@std@@YA$$QAUStGrapInfo@ioGrapplingBlowLoopSkill@@AAU12@@Z
_TEXT	SEGMENT
__Arg$ = 8						; size = 4
??$forward@UStGrapInfo@ioGrapplingBlowLoopSkill@@@std@@YA$$QAUStGrapInfo@ioGrapplingBlowLoopSkill@@AAU12@@Z PROC ; std::forward<ioGrapplingBlowLoopSkill::StGrapInfo>, COMDAT

; 78   : 	{	// forward _Arg, given explicitly specified type parameter

  00000	55		 push	 ebp
  00001	8b ec		 mov	 ebp, esp

; 79   : 	return ((_Ty&&)_Arg);

  00003	8b 45 08	 mov	 eax, DWORD PTR __Arg$[ebp]

; 80   : 	}

  00006	5d		 pop	 ebp
  00007	c3		 ret	 0
??$forward@UStGrapInfo@ioGrapplingBlowLoopSkill@@@std@@YA$$QAUStGrapInfo@ioGrapplingBlowLoopSkill@@AAU12@@Z ENDP ; std::forward<ioGrapplingBlowLoopSkill::StGrapInfo>
_TEXT	ENDS
PUBLIC	??$_Ptr_cat@V?$_Vector_const_iterator@V?$_Vector_val@UWeaponInfo@@V?$allocator@UWeaponInfo@@@std@@@std@@@std@@PAUWeaponInfo@@@std@@YA?AU_Nonscalar_ptr_iterator_tag@0@AAV?$_Vector_const_iterator@V?$_Vector_val@UWeaponInfo@@V?$allocator@UWeaponInfo@@@std@@@std@@@0@AAPAUWeaponInfo@@@Z ; std::_Ptr_cat<std::_Vector_const_iterator<std::_Vector_val<WeaponInfo,std::allocator<WeaponInfo> > >,WeaponInfo *>
; Function compile flags: /Ogsp
; File c:\program files (x86)\microsoft visual studio 10.0\vc\include\xutility
;	COMDAT ??$_Ptr_cat@V?$_Vector_const_iterator@V?$_Vector_val@UWeaponInfo@@V?$allocator@UWeaponInfo@@@std@@@std@@@std@@PAUWeaponInfo@@@std@@YA?AU_Nonscalar_ptr_iterator_tag@0@AAV?$_Vector_const_iterator@V?$_Vector_val@UWeaponInfo@@V?$allocator@UWeaponInfo@@@std@@@std@@@0@AAPAUWeaponInfo@@@Z
_TEXT	SEGMENT
__Cat$ = -1						; size = 1
___formal$ = 8						; size = 4
___formal$ = 12						; size = 4
??$_Ptr_cat@V?$_Vector_const_iterator@V?$_Vector_val@UWeaponInfo@@V?$allocator@UWeaponInfo@@@std@@@std@@@std@@PAUWeaponInfo@@@std@@YA?AU_Nonscalar_ptr_iterator_tag@0@AAV?$_Vector_const_iterator@V?$_Vector_val@UWeaponInfo@@V?$allocator@UWeaponInfo@@@std@@@std@@@0@AAPAUWeaponInfo@@@Z PROC ; std::_Ptr_cat<std::_Vector_const_iterator<std::_Vector_val<WeaponInfo,std::allocator<WeaponInfo> > >,WeaponInfo *>, COMDAT

; 485  : 	{	// return pointer category from arbitrary arguments

  00000	55		 push	 ebp
  00001	8b ec		 mov	 ebp, esp
  00003	51		 push	 ecx

; 486  : 	_Nonscalar_ptr_iterator_tag _Cat;
; 487  : 	return (_Cat);

  00004	8a 45 ff	 mov	 al, BYTE PTR __Cat$[ebp]

; 488  : 	}

  00007	c9		 leave
  00008	c3		 ret	 0
??$_Ptr_cat@V?$_Vector_const_iterator@V?$_Vector_val@UWeaponInfo@@V?$allocator@UWeaponInfo@@@std@@@std@@@std@@PAUWeaponInfo@@@std@@YA?AU_Nonscalar_ptr_iterator_tag@0@AAV?$_Vector_const_iterator@V?$_Vector_val@UWeaponInfo@@V?$allocator@UWeaponInfo@@@std@@@std@@@0@AAPAUWeaponInfo@@@Z ENDP ; std::_Ptr_cat<std::_Vector_const_iterator<std::_Vector_val<WeaponInfo,std::allocator<WeaponInfo> > >,WeaponInfo *>
_TEXT	ENDS
PUBLIC	??$_Ptr_cat@V?$_Vector_const_iterator@V?$_Vector_val@UForceInfo@@V?$allocator@UForceInfo@@@std@@@std@@@std@@PAUForceInfo@@@std@@YA?AU_Nonscalar_ptr_iterator_tag@0@AAV?$_Vector_const_iterator@V?$_Vector_val@UForceInfo@@V?$allocator@UForceInfo@@@std@@@std@@@0@AAPAUForceInfo@@@Z ; std::_Ptr_cat<std::_Vector_const_iterator<std::_Vector_val<ForceInfo,std::allocator<ForceInfo> > >,ForceInfo *>
; Function compile flags: /Ogsp
;	COMDAT ??$_Ptr_cat@V?$_Vector_const_iterator@V?$_Vector_val@UForceInfo@@V?$allocator@UForceInfo@@@std@@@std@@@std@@PAUForceInfo@@@std@@YA?AU_Nonscalar_ptr_iterator_tag@0@AAV?$_Vector_const_iterator@V?$_Vector_val@UForceInfo@@V?$allocator@UForceInfo@@@std@@@std@@@0@AAPAUForceInfo@@@Z
_TEXT	SEGMENT
__Cat$ = -1						; size = 1
___formal$ = 8						; size = 4
___formal$ = 12						; size = 4
??$_Ptr_cat@V?$_Vector_const_iterator@V?$_Vector_val@UForceInfo@@V?$allocator@UForceInfo@@@std@@@std@@@std@@PAUForceInfo@@@std@@YA?AU_Nonscalar_ptr_iterator_tag@0@AAV?$_Vector_const_iterator@V?$_Vector_val@UForceInfo@@V?$allocator@UForceInfo@@@std@@@std@@@0@AAPAUForceInfo@@@Z PROC ; std::_Ptr_cat<std::_Vector_const_iterator<std::_Vector_val<ForceInfo,std::allocator<ForceInfo> > >,ForceInfo *>, COMDAT

; 485  : 	{	// return pointer category from arbitrary arguments

  00000	55		 push	 ebp
  00001	8b ec		 mov	 ebp, esp
  00003	51		 push	 ecx

; 486  : 	_Nonscalar_ptr_iterator_tag _Cat;
; 487  : 	return (_Cat);

  00004	8a 45 ff	 mov	 al, BYTE PTR __Cat$[ebp]

; 488  : 	}

  00007	c9		 leave
  00008	c3		 ret	 0
??$_Ptr_cat@V?$_Vector_const_iterator@V?$_Vector_val@UForceInfo@@V?$allocator@UForceInfo@@@std@@@std@@@std@@PAUForceInfo@@@std@@YA?AU_Nonscalar_ptr_iterator_tag@0@AAV?$_Vector_const_iterator@V?$_Vector_val@UForceInfo@@V?$allocator@UForceInfo@@@std@@@std@@@0@AAPAUForceInfo@@@Z ENDP ; std::_Ptr_cat<std::_Vector_const_iterator<std::_Vector_val<ForceInfo,std::allocator<ForceInfo> > >,ForceInfo *>
_TEXT	ENDS
PUBLIC	??D?$_Vector_const_iterator@V?$_Vector_val@UWeaponInfo@@V?$allocator@UWeaponInfo@@@std@@@std@@@std@@QBEABUWeaponInfo@@XZ ; std::_Vector_const_iterator<std::_Vector_val<WeaponInfo,std::allocator<WeaponInfo> > >::operator*
; Function compile flags: /Ogsp
; File c:\program files (x86)\microsoft visual studio 10.0\vc\include\vector
;	COMDAT ??D?$_Vector_const_iterator@V?$_Vector_val@UWeaponInfo@@V?$allocator@UWeaponInfo@@@std@@@std@@@std@@QBEABUWeaponInfo@@XZ
_TEXT	SEGMENT
??D?$_Vector_const_iterator@V?$_Vector_val@UWeaponInfo@@V?$allocator@UWeaponInfo@@@std@@@std@@@std@@QBEABUWeaponInfo@@XZ PROC ; std::_Vector_const_iterator<std::_Vector_val<WeaponInfo,std::allocator<WeaponInfo> > >::operator*, COMDAT
; _this$ = ecx

; 64   :  #if _ITERATOR_DEBUG_LEVEL == 2
; 65   : 		if (this->_Getcont() == 0
; 66   : 			|| this->_Ptr == 0
; 67   : 			|| this->_Ptr < ((_Myvec *)this->_Getcont())->_Myfirst
; 68   : 			|| ((_Myvec *)this->_Getcont())->_Mylast <= this->_Ptr)
; 69   : 			{	// report error
; 70   : 			_DEBUG_ERROR("vector iterator not dereferencable");
; 71   : 			_SCL_SECURE_OUT_OF_RANGE;
; 72   : 			}
; 73   : 
; 74   :  #elif _ITERATOR_DEBUG_LEVEL == 1
; 75   : 		_SCL_SECURE_VALIDATE(this->_Getcont() != 0);
; 76   : 		_SCL_SECURE_VALIDATE_RANGE(
; 77   : 			this->_Ptr != 0
; 78   : 			&& ((_Myvec *)this->_Getcont())->_Myfirst <= this->_Ptr
; 79   : 			&& this->_Ptr < ((_Myvec *)this->_Getcont())->_Mylast);
; 80   :  #endif /* _ITERATOR_DEBUG_LEVEL */
; 81   : 
; 82   : 		__analysis_assume(this->_Ptr != 0);
; 83   : 
; 84   : 		return (*this->_Ptr);

  00000	8b 01		 mov	 eax, DWORD PTR [ecx]

; 85   : 		}

  00002	c3		 ret	 0
??D?$_Vector_const_iterator@V?$_Vector_val@UWeaponInfo@@V?$allocator@UWeaponInfo@@@std@@@std@@@std@@QBEABUWeaponInfo@@XZ ENDP ; std::_Vector_const_iterator<std::_Vector_val<WeaponInfo,std::allocator<WeaponInfo> > >::operator*
_TEXT	ENDS
PUBLIC	??E?$_Vector_const_iterator@V?$_Vector_val@UWeaponInfo@@V?$allocator@UWeaponInfo@@@std@@@std@@@std@@QAEAAV01@XZ ; std::_Vector_const_iterator<std::_Vector_val<WeaponInfo,std::allocator<WeaponInfo> > >::operator++
; Function compile flags: /Ogsp
;	COMDAT ??E?$_Vector_const_iterator@V?$_Vector_val@UWeaponInfo@@V?$allocator@UWeaponInfo@@@std@@@std@@@std@@QAEAAV01@XZ
_TEXT	SEGMENT
??E?$_Vector_const_iterator@V?$_Vector_val@UWeaponInfo@@V?$allocator@UWeaponInfo@@@std@@@std@@@std@@QAEAAV01@XZ PROC ; std::_Vector_const_iterator<std::_Vector_val<WeaponInfo,std::allocator<WeaponInfo> > >::operator++, COMDAT
; _this$ = ecx

; 93   : 		{	// preincrement

  00000	8b c1		 mov	 eax, ecx

; 94   :  #if _ITERATOR_DEBUG_LEVEL == 2
; 95   : 		if (this->_Getcont() == 0
; 96   : 			|| this->_Ptr == 0
; 97   : 			|| ((_Myvec *)this->_Getcont())->_Mylast <= this->_Ptr)
; 98   : 			{	// report error
; 99   : 			_DEBUG_ERROR("vector iterator not incrementable");
; 100  : 			_SCL_SECURE_OUT_OF_RANGE;
; 101  : 			}
; 102  : 
; 103  :  #elif _ITERATOR_DEBUG_LEVEL == 1
; 104  : 		_SCL_SECURE_VALIDATE(this->_Getcont() != 0);
; 105  : 		_SCL_SECURE_VALIDATE_RANGE(
; 106  : 			this->_Ptr != 0
; 107  : 			&& this->_Ptr < ((_Myvec *)this->_Getcont())->_Mylast);
; 108  :  #endif /* _ITERATOR_DEBUG_LEVEL */
; 109  : 
; 110  : 		++this->_Ptr;

  00002	83 00 28	 add	 DWORD PTR [eax], 40	; 00000028H

; 111  : 		return (*this);
; 112  : 		}

  00005	c3		 ret	 0
??E?$_Vector_const_iterator@V?$_Vector_val@UWeaponInfo@@V?$allocator@UWeaponInfo@@@std@@@std@@@std@@QAEAAV01@XZ ENDP ; std::_Vector_const_iterator<std::_Vector_val<WeaponInfo,std::allocator<WeaponInfo> > >::operator++
_TEXT	ENDS
PUBLIC	??D?$_Vector_const_iterator@V?$_Vector_val@UForceInfo@@V?$allocator@UForceInfo@@@std@@@std@@@std@@QBEABUForceInfo@@XZ ; std::_Vector_const_iterator<std::_Vector_val<ForceInfo,std::allocator<ForceInfo> > >::operator*
; Function compile flags: /Ogsp
;	COMDAT ??D?$_Vector_const_iterator@V?$_Vector_val@UForceInfo@@V?$allocator@UForceInfo@@@std@@@std@@@std@@QBEABUForceInfo@@XZ
_TEXT	SEGMENT
??D?$_Vector_const_iterator@V?$_Vector_val@UForceInfo@@V?$allocator@UForceInfo@@@std@@@std@@@std@@QBEABUForceInfo@@XZ PROC ; std::_Vector_const_iterator<std::_Vector_val<ForceInfo,std::allocator<ForceInfo> > >::operator*, COMDAT
; _this$ = ecx

; 64   :  #if _ITERATOR_DEBUG_LEVEL == 2
; 65   : 		if (this->_Getcont() == 0
; 66   : 			|| this->_Ptr == 0
; 67   : 			|| this->_Ptr < ((_Myvec *)this->_Getcont())->_Myfirst
; 68   : 			|| ((_Myvec *)this->_Getcont())->_Mylast <= this->_Ptr)
; 69   : 			{	// report error
; 70   : 			_DEBUG_ERROR("vector iterator not dereferencable");
; 71   : 			_SCL_SECURE_OUT_OF_RANGE;
; 72   : 			}
; 73   : 
; 74   :  #elif _ITERATOR_DEBUG_LEVEL == 1
; 75   : 		_SCL_SECURE_VALIDATE(this->_Getcont() != 0);
; 76   : 		_SCL_SECURE_VALIDATE_RANGE(
; 77   : 			this->_Ptr != 0
; 78   : 			&& ((_Myvec *)this->_Getcont())->_Myfirst <= this->_Ptr
; 79   : 			&& this->_Ptr < ((_Myvec *)this->_Getcont())->_Mylast);
; 80   :  #endif /* _ITERATOR_DEBUG_LEVEL */
; 81   : 
; 82   : 		__analysis_assume(this->_Ptr != 0);
; 83   : 
; 84   : 		return (*this->_Ptr);

  00000	8b 01		 mov	 eax, DWORD PTR [ecx]

; 85   : 		}

  00002	c3		 ret	 0
??D?$_Vector_const_iterator@V?$_Vector_val@UForceInfo@@V?$allocator@UForceInfo@@@std@@@std@@@std@@QBEABUForceInfo@@XZ ENDP ; std::_Vector_const_iterator<std::_Vector_val<ForceInfo,std::allocator<ForceInfo> > >::operator*
_TEXT	ENDS
PUBLIC	??E?$_Vector_const_iterator@V?$_Vector_val@UForceInfo@@V?$allocator@UForceInfo@@@std@@@std@@@std@@QAEAAV01@XZ ; std::_Vector_const_iterator<std::_Vector_val<ForceInfo,std::allocator<ForceInfo> > >::operator++
; Function compile flags: /Ogsp
;	COMDAT ??E?$_Vector_const_iterator@V?$_Vector_val@UForceInfo@@V?$allocator@UForceInfo@@@std@@@std@@@std@@QAEAAV01@XZ
_TEXT	SEGMENT
??E?$_Vector_const_iterator@V?$_Vector_val@UForceInfo@@V?$allocator@UForceInfo@@@std@@@std@@@std@@QAEAAV01@XZ PROC ; std::_Vector_const_iterator<std::_Vector_val<ForceInfo,std::allocator<ForceInfo> > >::operator++, COMDAT
; _this$ = ecx

; 93   : 		{	// preincrement

  00000	8b c1		 mov	 eax, ecx

; 94   :  #if _ITERATOR_DEBUG_LEVEL == 2
; 95   : 		if (this->_Getcont() == 0
; 96   : 			|| this->_Ptr == 0
; 97   : 			|| ((_Myvec *)this->_Getcont())->_Mylast <= this->_Ptr)
; 98   : 			{	// report error
; 99   : 			_DEBUG_ERROR("vector iterator not incrementable");
; 100  : 			_SCL_SECURE_OUT_OF_RANGE;
; 101  : 			}
; 102  : 
; 103  :  #elif _ITERATOR_DEBUG_LEVEL == 1
; 104  : 		_SCL_SECURE_VALIDATE(this->_Getcont() != 0);
; 105  : 		_SCL_SECURE_VALIDATE_RANGE(
; 106  : 			this->_Ptr != 0
; 107  : 			&& this->_Ptr < ((_Myvec *)this->_Getcont())->_Mylast);
; 108  :  #endif /* _ITERATOR_DEBUG_LEVEL */
; 109  : 
; 110  : 		++this->_Ptr;

  00002	83 00 0c	 add	 DWORD PTR [eax], 12	; 0000000cH

; 111  : 		return (*this);
; 112  : 		}

  00005	c3		 ret	 0
??E?$_Vector_const_iterator@V?$_Vector_val@UForceInfo@@V?$allocator@UForceInfo@@@std@@@std@@@std@@QAEAAV01@XZ ENDP ; std::_Vector_const_iterator<std::_Vector_val<ForceInfo,std::allocator<ForceInfo> > >::operator++
_TEXT	ENDS
PUBLIC	??$forward@ABUWeaponInfo@@@std@@YAABUWeaponInfo@@ABU1@@Z ; std::forward<WeaponInfo const &>
; Function compile flags: /Ogsp
; File c:\program files (x86)\microsoft visual studio 10.0\vc\include\utility
;	COMDAT ??$forward@ABUWeaponInfo@@@std@@YAABUWeaponInfo@@ABU1@@Z
_TEXT	SEGMENT
__Arg$ = 8						; size = 4
??$forward@ABUWeaponInfo@@@std@@YAABUWeaponInfo@@ABU1@@Z PROC ; std::forward<WeaponInfo const &>, COMDAT

; 78   : 	{	// forward _Arg, given explicitly specified type parameter

  00000	55		 push	 ebp
  00001	8b ec		 mov	 ebp, esp

; 79   : 	return ((_Ty&&)_Arg);

  00003	8b 45 08	 mov	 eax, DWORD PTR __Arg$[ebp]

; 80   : 	}

  00006	5d		 pop	 ebp
  00007	c3		 ret	 0
??$forward@ABUWeaponInfo@@@std@@YAABUWeaponInfo@@ABU1@@Z ENDP ; std::forward<WeaponInfo const &>
_TEXT	ENDS
PUBLIC	??$forward@ABUForceInfo@@@std@@YAABUForceInfo@@ABU1@@Z ; std::forward<ForceInfo const &>
; Function compile flags: /Ogsp
;	COMDAT ??$forward@ABUForceInfo@@@std@@YAABUForceInfo@@ABU1@@Z
_TEXT	SEGMENT
__Arg$ = 8						; size = 4
??$forward@ABUForceInfo@@@std@@YAABUForceInfo@@ABU1@@Z PROC ; std::forward<ForceInfo const &>, COMDAT

; 78   : 	{	// forward _Arg, given explicitly specified type parameter

  00000	55		 push	 ebp
  00001	8b ec		 mov	 ebp, esp

; 79   : 	return ((_Ty&&)_Arg);

  00003	8b 45 08	 mov	 eax, DWORD PTR __Arg$[ebp]

; 80   : 	}

  00006	5d		 pop	 ebp
  00007	c3		 ret	 0
??$forward@ABUForceInfo@@@std@@YAABUForceInfo@@ABU1@@Z ENDP ; std::forward<ForceInfo const &>
_TEXT	ENDS
PUBLIC	??$_Construct@UForceInfo@@ABU1@@std@@YAXPAUForceInfo@@ABU1@@Z ; std::_Construct<ForceInfo,ForceInfo const &>
; Function compile flags: /Ogsp
; File c:\program files (x86)\microsoft visual studio 10.0\vc\include\xmemory
;	COMDAT ??$_Construct@UForceInfo@@ABU1@@std@@YAXPAUForceInfo@@ABU1@@Z
_TEXT	SEGMENT
__Ptr$ = 8						; size = 4
__Val$ = 12						; size = 4
??$_Construct@UForceInfo@@ABU1@@std@@YAXPAUForceInfo@@ABU1@@Z PROC ; std::_Construct<ForceInfo,ForceInfo const &>, COMDAT

; 46   : 	{	// construct object at _Ptr with value _Val

  00000	55		 push	 ebp
  00001	8b ec		 mov	 ebp, esp
  00003	57		 push	 edi

; 47   : 	void _FARQ *_Vptr = _Ptr;
; 48   : 	::new (_Vptr) _Ty1(_STD forward<_Ty2>(_Val));

  00004	8b 7d 08	 mov	 edi, DWORD PTR __Ptr$[ebp]
  00007	85 ff		 test	 edi, edi
  00009	74 08		 je	 SHORT $LN3@Construct
  0000b	56		 push	 esi
  0000c	8b 75 0c	 mov	 esi, DWORD PTR __Val$[ebp]
  0000f	a5		 movsd
  00010	a5		 movsd
  00011	a5		 movsd
  00012	5e		 pop	 esi
$LN3@Construct:
  00013	5f		 pop	 edi

; 49   : 	}

  00014	5d		 pop	 ebp
  00015	c3		 ret	 0
??$_Construct@UForceInfo@@ABU1@@std@@YAXPAUForceInfo@@ABU1@@Z ENDP ; std::_Construct<ForceInfo,ForceInfo const &>
_TEXT	ENDS
PUBLIC	?_DECSTR@@YAXPADH@Z				; _DECSTR
; Function compile flags: /Ogsp
; File d:\lost saga for developer\youtube\tutorial\source\src\lsclient\stringprotect.h
;	COMDAT ?_DECSTR@@YAXPADH@Z
_TEXT	SEGMENT
_s$ = 8							; size = 4
_l$ = 12						; size = 4
?_DECSTR@@YAXPADH@Z PROC				; _DECSTR, COMDAT

; 40   : __forceinline void _DECSTR(char* s, int l){int i=0,l4=(l-1)/4,*p=(int*)s;s[l-1]=0;for(;i<l4;++i)*(p++)^=0xEAEBECED;for(i=l4*4;i<l-1;++i)s[i]^=0xED-i%4;}

  00000	55		 push	 ebp
  00001	8b ec		 mov	 ebp, esp
  00003	8b 4d 0c	 mov	 ecx, DWORD PTR _l$[ebp]
  00006	56		 push	 esi
  00007	8b 75 08	 mov	 esi, DWORD PTR _s$[ebp]
  0000a	57		 push	 edi
  0000b	8d 79 ff	 lea	 edi, DWORD PTR [ecx-1]
  0000e	8b c7		 mov	 eax, edi
  00010	99		 cdq
  00011	83 e2 03	 and	 edx, 3
  00014	03 c2		 add	 eax, edx
  00016	c1 f8 02	 sar	 eax, 2
  00019	8b d6		 mov	 edx, esi
  0001b	c6 44 0e ff 00	 mov	 BYTE PTR [esi+ecx-1], 0
  00020	85 c0		 test	 eax, eax
  00022	7e 0e		 jle	 SHORT $LN4@DECSTR
  00024	8b c8		 mov	 ecx, eax
$LL6@DECSTR:
  00026	81 32 ed ec eb
	ea		 xor	 DWORD PTR [edx], -353637139 ; eaebecedH
  0002c	83 c2 04	 add	 edx, 4
  0002f	49		 dec	 ecx
  00030	75 f4		 jne	 SHORT $LL6@DECSTR
$LN4@DECSTR:
  00032	c1 e0 02	 shl	 eax, 2
  00035	eb 17		 jmp	 SHORT $LN14@DECSTR
$LL3@DECSTR:
  00037	8b c8		 mov	 ecx, eax
  00039	81 e1 03 00 00
	80		 and	 ecx, -2147483645	; 80000003H
  0003f	79 05		 jns	 SHORT $LN13@DECSTR
  00041	49		 dec	 ecx
  00042	83 c9 fc	 or	 ecx, -4			; fffffffcH
  00045	41		 inc	 ecx
$LN13@DECSTR:
  00046	b2 ed		 mov	 dl, -19			; ffffffedH
  00048	2a d1		 sub	 dl, cl
  0004a	30 14 30	 xor	 BYTE PTR [eax+esi], dl
  0004d	40		 inc	 eax
$LN14@DECSTR:
  0004e	3b c7		 cmp	 eax, edi
  00050	7c e5		 jl	 SHORT $LL3@DECSTR
  00052	5f		 pop	 edi
  00053	5e		 pop	 esi
  00054	5d		 pop	 ebp
  00055	c3		 ret	 0
?_DECSTR@@YAXPADH@Z ENDP				; _DECSTR
_TEXT	ENDS
PUBLIC	?return57@@YAIXZ				; return57
; Function compile flags: /Ogsp
; File d:\lost saga for developer\youtube\tutorial\source\src\lsclient\veryoftenusedefine.h
;	COMDAT ?return57@@YAIXZ
_TEXT	SEGMENT
?return57@@YAIXZ PROC					; return57, COMDAT

; 15   : __forceinline unsigned int return57() { __asm mov eax, 57 };

  00000	b8 39 00 00 00	 mov	 eax, 57			; 00000039H
  00005	c3		 ret	 0
?return57@@YAIXZ ENDP					; return57
_TEXT	ENDS
PUBLIC	?GetGroup@ioGameEntity@@QBEPAVioEntityGroup@@XZ	; ioGameEntity::GetGroup
; Function compile flags: /Ogsp
; File d:\lost saga for developer\youtube\tutorial\source\src\lsclient\iogameentity.h
;	COMDAT ?GetGroup@ioGameEntity@@QBEPAVioEntityGroup@@XZ
_TEXT	SEGMENT
?GetGroup@ioGameEntity@@QBEPAVioEntityGroup@@XZ PROC	; ioGameEntity::GetGroup, COMDAT
; _this$ = ecx

; 166  : 	inline ioEntityGroup* GetGroup() const { return m_pGroup; }

  00000	8b 41 04	 mov	 eax, DWORD PTR [ecx+4]
  00003	c3		 ret	 0
?GetGroup@ioGameEntity@@QBEPAVioEntityGroup@@XZ ENDP	; ioGameEntity::GetGroup
_TEXT	ENDS
PUBLIC	??1WeaponInfo@@QAE@XZ				; WeaponInfo::~WeaponInfo
; Function compile flags: /Ogsp
;	COMDAT ??1WeaponInfo@@QAE@XZ
_TEXT	SEGMENT
??1WeaponInfo@@QAE@XZ PROC				; WeaponInfo::~WeaponInfo, COMDAT
; _this$ = ecx
  00000	83 c1 08	 add	 ecx, 8
  00003	ff 25 00 00 00
	00		 jmp	 DWORD PTR __imp_??1ioHashString@@QAE@XZ
??1WeaponInfo@@QAE@XZ ENDP				; WeaponInfo::~WeaponInfo
_TEXT	ENDS
PUBLIC	??_R0?AVioGameEntity@@@8			; ioGameEntity `RTTI Type Descriptor'
PUBLIC	??_R0?AVioPlayEntity@@@8			; ioPlayEntity `RTTI Type Descriptor'
PUBLIC	?ToPlayEntity@@YAPAVioPlayEntity@@PAVioGameEntity@@@Z ; ToPlayEntity
;	COMDAT ??_R0?AVioGameEntity@@@8
; File d:\lost saga for developer\youtube\tutorial\source\src\lsclient\ioplayentity.h
_DATA	SEGMENT
??_R0?AVioGameEntity@@@8 DD FLAT:??_7type_info@@6B@	; ioGameEntity `RTTI Type Descriptor'
	DD	00H
	DB	'.?AVioGameEntity@@', 00H
_DATA	ENDS
;	COMDAT ??_R0?AVioPlayEntity@@@8
_DATA	SEGMENT
??_R0?AVioPlayEntity@@@8 DD FLAT:??_7type_info@@6B@	; ioPlayEntity `RTTI Type Descriptor'
	DD	00H
	DB	'.?AVioPlayEntity@@', 00H
; Function compile flags: /Ogsp
_DATA	ENDS
;	COMDAT ?ToPlayEntity@@YAPAVioPlayEntity@@PAVioGameEntity@@@Z
_TEXT	SEGMENT
_pObj$ = 8						; size = 4
?ToPlayEntity@@YAPAVioPlayEntity@@PAVioGameEntity@@@Z PROC ; ToPlayEntity, COMDAT

; 121  : {

  00000	55		 push	 ebp
  00001	8b ec		 mov	 ebp, esp
  00003	56		 push	 esi

; 122  : 	if( !pObj || pObj->GetTypeID() != ioGameEntity::GET_PLAY_ENTITY )

  00004	8b 75 08	 mov	 esi, DWORD PTR _pObj$[ebp]
  00007	85 f6		 test	 esi, esi
  00009	74 25		 je	 SHORT $LN1@ToPlayEnti
  0000b	8b 06		 mov	 eax, DWORD PTR [esi]
  0000d	8b ce		 mov	 ecx, esi
  0000f	ff 50 10	 call	 DWORD PTR [eax+16]
  00012	83 f8 01	 cmp	 eax, 1
  00015	75 19		 jne	 SHORT $LN1@ToPlayEnti

; 124  : 
; 125  : 	return dynamic_cast< ioPlayEntity* >( pObj );

  00017	6a 00		 push	 0
  00019	68 00 00 00 00	 push	 OFFSET ??_R0?AVioPlayEntity@@@8
  0001e	68 00 00 00 00	 push	 OFFSET ??_R0?AVioGameEntity@@@8
  00023	6a 00		 push	 0
  00025	56		 push	 esi
  00026	e8 00 00 00 00	 call	 ___RTDynamicCast
  0002b	83 c4 14	 add	 esp, 20			; 00000014H
  0002e	eb 02		 jmp	 SHORT $LN3@ToPlayEnti
$LN1@ToPlayEnti:

; 123  : 		return NULL;

  00030	33 c0		 xor	 eax, eax
$LN3@ToPlayEnti:
  00032	5e		 pop	 esi

; 126  : }

  00033	5d		 pop	 ebp
  00034	c3		 ret	 0
?ToPlayEntity@@YAPAVioPlayEntity@@PAVioGameEntity@@@Z ENDP ; ToPlayEntity
_TEXT	ENDS
PUBLIC	?GetName@ioItem@@QBEABVioHashString@@XZ		; ioItem::GetName
; Function compile flags: /Ogsp
; File d:\lost saga for developer\youtube\tutorial\source\src\lsclient\ioitem.h
;	COMDAT ?GetName@ioItem@@QBEABVioHashString@@XZ
_TEXT	SEGMENT
?GetName@ioItem@@QBEABVioHashString@@XZ PROC		; ioItem::GetName, COMDAT
; _this$ = ecx

; 269  : 	inline const ioHashString& GetName() const { return m_Name; }

  00000	8d 81 34 01 00
	00		 lea	 eax, DWORD PTR [ecx+308]
  00006	c3		 ret	 0
?GetName@ioItem@@QBEABVioHashString@@XZ ENDP		; ioItem::GetName
_TEXT	ENDS
PUBLIC	?GetOwnerItem@ioSkill@@QBEPAVioItem@@XZ		; ioSkill::GetOwnerItem
; Function compile flags: /Ogsp
; File d:\lost saga for developer\youtube\tutorial\source\src\lsclient\ioskill.h
;	COMDAT ?GetOwnerItem@ioSkill@@QBEPAVioItem@@XZ
_TEXT	SEGMENT
?GetOwnerItem@ioSkill@@QBEPAVioItem@@XZ PROC		; ioSkill::GetOwnerItem, COMDAT
; _this$ = ecx

; 397  : 	inline ioItem *GetOwnerItem() const { return m_pOwnerItem; }

  00000	8b 81 a4 02 00
	00		 mov	 eax, DWORD PTR [ecx+676]
  00006	c3		 ret	 0
?GetOwnerItem@ioSkill@@QBEPAVioItem@@XZ ENDP		; ioSkill::GetOwnerItem
_TEXT	ENDS
PUBLIC	?GetName@ioSkill@@QBEABVioHashString@@XZ	; ioSkill::GetName
; Function compile flags: /Ogsp
;	COMDAT ?GetName@ioSkill@@QBEABVioHashString@@XZ
_TEXT	SEGMENT
?GetName@ioSkill@@QBEABVioHashString@@XZ PROC		; ioSkill::GetName, COMDAT
; _this$ = ecx

; 414  : 	inline const ioHashString& GetName() const { return m_Name; }

  00000	8d 41 24	 lea	 eax, DWORD PTR [ecx+36]
  00003	c3		 ret	 0
?GetName@ioSkill@@QBEABVioHashString@@XZ ENDP		; ioSkill::GetName
_TEXT	ENDS
PUBLIC	?size@?$vector@VioHashString@@V?$allocator@VioHashString@@@std@@@std@@QBEIXZ ; std::vector<ioHashString,std::allocator<ioHashString> >::size
; Function compile flags: /Ogsp
; File c:\program files (x86)\microsoft visual studio 10.0\vc\include\vector
;	COMDAT ?size@?$vector@VioHashString@@V?$allocator@VioHashString@@@std@@@std@@QBEIXZ
_TEXT	SEGMENT
?size@?$vector@VioHashString@@V?$allocator@VioHashString@@@std@@@std@@QBEIXZ PROC ; std::vector<ioHashString,std::allocator<ioHashString> >::size, COMDAT
; _this$ = ecx

; 879  : 		return (this->_Mylast - this->_Myfirst);

  00000	8b 41 04	 mov	 eax, DWORD PTR [ecx+4]
  00003	2b 01		 sub	 eax, DWORD PTR [ecx]
  00005	c1 f8 04	 sar	 eax, 4

; 880  : 		}

  00008	c3		 ret	 0
?size@?$vector@VioHashString@@V?$allocator@VioHashString@@@std@@@std@@QBEIXZ ENDP ; std::vector<ioHashString,std::allocator<ioHashString> >::size
_TEXT	ENDS
PUBLIC	??_7?$CEncrypt@M@@6B@				; CEncrypt<float>::`vftable'
PUBLIC	??1?$CEncrypt@M@@UAE@XZ				; CEncrypt<float>::~CEncrypt<float>
PUBLIC	??_R4?$CEncrypt@M@@6B@				; CEncrypt<float>::`RTTI Complete Object Locator'
PUBLIC	??_R0?AV?$CEncrypt@M@@@8			; CEncrypt<float> `RTTI Type Descriptor'
PUBLIC	??_R3?$CEncrypt@M@@8				; CEncrypt<float>::`RTTI Class Hierarchy Descriptor'
PUBLIC	??_R2?$CEncrypt@M@@8				; CEncrypt<float>::`RTTI Base Class Array'
PUBLIC	??_R1A@?0A@EA@?$CEncrypt@M@@8			; CEncrypt<float>::`RTTI Base Class Descriptor at (0,-1,0,64)'
EXTRN	??1ccddaabb@@UAE@XZ:PROC			; ccddaabb::~ccddaabb
EXTRN	??_E?$CEncrypt@M@@UAEPAXI@Z:PROC		; CEncrypt<float>::`vector deleting destructor'
;	COMDAT ??_R1A@?0A@EA@?$CEncrypt@M@@8
; File d:\lost saga for developer\youtube\tutorial\source\src\lsclient\encryptvalue.h
rdata$r	SEGMENT
??_R1A@?0A@EA@?$CEncrypt@M@@8 DD FLAT:??_R0?AV?$CEncrypt@M@@@8 ; CEncrypt<float>::`RTTI Base Class Descriptor at (0,-1,0,64)'
	DD	00H
	DD	00H
	DD	0ffffffffH
	DD	00H
	DD	040H
	DD	FLAT:??_R3?$CEncrypt@M@@8
rdata$r	ENDS
;	COMDAT ??_R2?$CEncrypt@M@@8
rdata$r	SEGMENT
??_R2?$CEncrypt@M@@8 DD FLAT:??_R1A@?0A@EA@?$CEncrypt@M@@8 ; CEncrypt<float>::`RTTI Base Class Array'
rdata$r	ENDS
;	COMDAT ??_R3?$CEncrypt@M@@8
rdata$r	SEGMENT
??_R3?$CEncrypt@M@@8 DD 00H				; CEncrypt<float>::`RTTI Class Hierarchy Descriptor'
	DD	00H
	DD	01H
	DD	FLAT:??_R2?$CEncrypt@M@@8
rdata$r	ENDS
;	COMDAT ??_R0?AV?$CEncrypt@M@@@8
_DATA	SEGMENT
??_R0?AV?$CEncrypt@M@@@8 DD FLAT:??_7type_info@@6B@	; CEncrypt<float> `RTTI Type Descriptor'
	DD	00H
	DB	'.?AV?$CEncrypt@M@@', 00H
_DATA	ENDS
;	COMDAT ??_R4?$CEncrypt@M@@6B@
rdata$r	SEGMENT
??_R4?$CEncrypt@M@@6B@ DD 00H				; CEncrypt<float>::`RTTI Complete Object Locator'
	DD	00H
	DD	00H
	DD	FLAT:??_R0?AV?$CEncrypt@M@@@8
	DD	FLAT:??_R3?$CEncrypt@M@@8
rdata$r	ENDS
;	COMDAT ??_7?$CEncrypt@M@@6B@
CONST	SEGMENT
??_7?$CEncrypt@M@@6B@ DD FLAT:??_R4?$CEncrypt@M@@6B@	; CEncrypt<float>::`vftable'
	DD	FLAT:??_E?$CEncrypt@M@@UAEPAXI@Z
; Function compile flags: /Ogsp
CONST	ENDS
;	COMDAT ??1?$CEncrypt@M@@UAE@XZ
_TEXT	SEGMENT
??1?$CEncrypt@M@@UAE@XZ PROC				; CEncrypt<float>::~CEncrypt<float>, COMDAT
; _this$ = ecx

; 127  : 	{

  00000	c7 01 00 00 00
	00		 mov	 DWORD PTR [ecx], OFFSET ??_7?$CEncrypt@M@@6B@

; 128  : 	}

  00006	83 c1 0c	 add	 ecx, 12			; 0000000cH
  00009	e9 00 00 00 00	 jmp	 ??1ccddaabb@@UAE@XZ	; ccddaabb::~ccddaabb
??1?$CEncrypt@M@@UAE@XZ ENDP				; CEncrypt<float>::~CEncrypt<float>
; Function compile flags: /Ogsp
_TEXT	ENDS
;	COMDAT ??_G?$CEncrypt@M@@UAEPAXI@Z
_TEXT	SEGMENT
___flags$ = 8						; size = 4
??_G?$CEncrypt@M@@UAEPAXI@Z PROC			; CEncrypt<float>::`scalar deleting destructor', COMDAT
; _this$ = ecx
  00000	55		 push	 ebp
  00001	8b ec		 mov	 ebp, esp
  00003	56		 push	 esi
  00004	8b f1		 mov	 esi, ecx
  00006	8d 4e 0c	 lea	 ecx, DWORD PTR [esi+12]
  00009	c7 06 00 00 00
	00		 mov	 DWORD PTR [esi], OFFSET ??_7?$CEncrypt@M@@6B@
  0000f	e8 00 00 00 00	 call	 ??1ccddaabb@@UAE@XZ	; ccddaabb::~ccddaabb
  00014	f6 45 08 01	 test	 BYTE PTR ___flags$[ebp], 1
  00018	74 07		 je	 SHORT $LN1@scalar@2
  0001a	56		 push	 esi
  0001b	e8 00 00 00 00	 call	 ??3@YAXPAX@Z		; operator delete
  00020	59		 pop	 ecx
$LN1@scalar@2:
  00021	8b c6		 mov	 eax, esi
  00023	5e		 pop	 esi
  00024	5d		 pop	 ebp
  00025	c2 04 00	 ret	 4
??_G?$CEncrypt@M@@UAEPAXI@Z ENDP			; CEncrypt<float>::`scalar deleting destructor'
_TEXT	ENDS
PUBLIC	??1?$_Vector_val@VioHashString@@V?$allocator@VioHashString@@@std@@@std@@QAE@XZ ; std::_Vector_val<ioHashString,std::allocator<ioHashString> >::~_Vector_val<ioHashString,std::allocator<ioHashString> >
; Function compile flags: /Ogsp
; File c:\program files (x86)\microsoft visual studio 10.0\vc\include\vector
;	COMDAT ??1?$_Vector_val@VioHashString@@V?$allocator@VioHashString@@@std@@@std@@QAE@XZ
_TEXT	SEGMENT
??1?$_Vector_val@VioHashString@@V?$allocator@VioHashString@@@std@@@std@@QAE@XZ PROC ; std::_Vector_val<ioHashString,std::allocator<ioHashString> >::~_Vector_val<ioHashString,std::allocator<ioHashString> >, COMDAT
; _this$ = ecx

; 434  : 		}

  00000	c3		 ret	 0
??1?$_Vector_val@VioHashString@@V?$allocator@VioHashString@@@std@@@std@@QAE@XZ ENDP ; std::_Vector_val<ioHashString,std::allocator<ioHashString> >::~_Vector_val<ioHashString,std::allocator<ioHashString> >
_TEXT	ENDS
PUBLIC	??0?$allocator@VioHashString@@@std@@QAE@XZ	; std::allocator<ioHashString>::allocator<ioHashString>
; Function compile flags: /Ogsp
; File c:\program files (x86)\microsoft visual studio 10.0\vc\include\xmemory
;	COMDAT ??0?$allocator@VioHashString@@@std@@QAE@XZ
_TEXT	SEGMENT
??0?$allocator@VioHashString@@@std@@QAE@XZ PROC		; std::allocator<ioHashString>::allocator<ioHashString>, COMDAT
; _this$ = ecx

; 161  : 	_ALLOCATOR() _THROW0()

  00000	8b c1		 mov	 eax, ecx

; 162  : 		{	// construct default allocator (do nothing)
; 163  : 		}

  00002	c3		 ret	 0
??0?$allocator@VioHashString@@@std@@QAE@XZ ENDP		; std::allocator<ioHashString>::allocator<ioHashString>
_TEXT	ENDS
PUBLIC	??0?$allocator@VioHashString@@@std@@QAE@ABV01@@Z ; std::allocator<ioHashString>::allocator<ioHashString>
; Function compile flags: /Ogsp
;	COMDAT ??0?$allocator@VioHashString@@@std@@QAE@ABV01@@Z
_TEXT	SEGMENT
___formal$ = 8						; size = 4
??0?$allocator@VioHashString@@@std@@QAE@ABV01@@Z PROC	; std::allocator<ioHashString>::allocator<ioHashString>, COMDAT
; _this$ = ecx

; 165  : 	_ALLOCATOR(const _ALLOCATOR<_Ty>&) _THROW0()

  00000	8b c1		 mov	 eax, ecx

; 166  : 		{	// construct by copying (do nothing)
; 167  : 		}

  00002	c2 04 00	 ret	 4
??0?$allocator@VioHashString@@@std@@QAE@ABV01@@Z ENDP	; std::allocator<ioHashString>::allocator<ioHashString>
_TEXT	ENDS
PUBLIC	??1?$_Vector_val@UWeaponInfo@@V?$allocator@UWeaponInfo@@@std@@@std@@QAE@XZ ; std::_Vector_val<WeaponInfo,std::allocator<WeaponInfo> >::~_Vector_val<WeaponInfo,std::allocator<WeaponInfo> >
; Function compile flags: /Ogsp
; File c:\program files (x86)\microsoft visual studio 10.0\vc\include\vector
;	COMDAT ??1?$_Vector_val@UWeaponInfo@@V?$allocator@UWeaponInfo@@@std@@@std@@QAE@XZ
_TEXT	SEGMENT
??1?$_Vector_val@UWeaponInfo@@V?$allocator@UWeaponInfo@@@std@@@std@@QAE@XZ PROC ; std::_Vector_val<WeaponInfo,std::allocator<WeaponInfo> >::~_Vector_val<WeaponInfo,std::allocator<WeaponInfo> >, COMDAT
; _this$ = ecx

; 434  : 		}

  00000	c3		 ret	 0
??1?$_Vector_val@UWeaponInfo@@V?$allocator@UWeaponInfo@@@std@@@std@@QAE@XZ ENDP ; std::_Vector_val<WeaponInfo,std::allocator<WeaponInfo> >::~_Vector_val<WeaponInfo,std::allocator<WeaponInfo> >
_TEXT	ENDS
PUBLIC	??0?$allocator@UWeaponInfo@@@std@@QAE@XZ	; std::allocator<WeaponInfo>::allocator<WeaponInfo>
; Function compile flags: /Ogsp
; File c:\program files (x86)\microsoft visual studio 10.0\vc\include\xmemory
;	COMDAT ??0?$allocator@UWeaponInfo@@@std@@QAE@XZ
_TEXT	SEGMENT
??0?$allocator@UWeaponInfo@@@std@@QAE@XZ PROC		; std::allocator<WeaponInfo>::allocator<WeaponInfo>, COMDAT
; _this$ = ecx

; 161  : 	_ALLOCATOR() _THROW0()

  00000	8b c1		 mov	 eax, ecx

; 162  : 		{	// construct default allocator (do nothing)
; 163  : 		}

  00002	c3		 ret	 0
??0?$allocator@UWeaponInfo@@@std@@QAE@XZ ENDP		; std::allocator<WeaponInfo>::allocator<WeaponInfo>
_TEXT	ENDS
PUBLIC	??1?$_Vector_val@UForceInfo@@V?$allocator@UForceInfo@@@std@@@std@@QAE@XZ ; std::_Vector_val<ForceInfo,std::allocator<ForceInfo> >::~_Vector_val<ForceInfo,std::allocator<ForceInfo> >
; Function compile flags: /Ogsp
; File c:\program files (x86)\microsoft visual studio 10.0\vc\include\vector
;	COMDAT ??1?$_Vector_val@UForceInfo@@V?$allocator@UForceInfo@@@std@@@std@@QAE@XZ
_TEXT	SEGMENT
??1?$_Vector_val@UForceInfo@@V?$allocator@UForceInfo@@@std@@@std@@QAE@XZ PROC ; std::_Vector_val<ForceInfo,std::allocator<ForceInfo> >::~_Vector_val<ForceInfo,std::allocator<ForceInfo> >, COMDAT
; _this$ = ecx

; 434  : 		}

  00000	c3		 ret	 0
??1?$_Vector_val@UForceInfo@@V?$allocator@UForceInfo@@@std@@@std@@QAE@XZ ENDP ; std::_Vector_val<ForceInfo,std::allocator<ForceInfo> >::~_Vector_val<ForceInfo,std::allocator<ForceInfo> >
_TEXT	ENDS
PUBLIC	??0?$allocator@UForceInfo@@@std@@QAE@XZ		; std::allocator<ForceInfo>::allocator<ForceInfo>
; Function compile flags: /Ogsp
; File c:\program files (x86)\microsoft visual studio 10.0\vc\include\xmemory
;	COMDAT ??0?$allocator@UForceInfo@@@std@@QAE@XZ
_TEXT	SEGMENT
??0?$allocator@UForceInfo@@@std@@QAE@XZ PROC		; std::allocator<ForceInfo>::allocator<ForceInfo>, COMDAT
; _this$ = ecx

; 161  : 	_ALLOCATOR() _THROW0()

  00000	8b c1		 mov	 eax, ecx

; 162  : 		{	// construct default allocator (do nothing)
; 163  : 		}

  00002	c3		 ret	 0
??0?$allocator@UForceInfo@@@std@@QAE@XZ ENDP		; std::allocator<ForceInfo>::allocator<ForceInfo>
_TEXT	ENDS
PUBLIC	?EncryptValueToPool@?$CEncrypt@M@@AAEXPBD@Z	; CEncrypt<float>::EncryptValueToPool
EXTRN	?EncryptByte@ccddaabb@@QAEXPBDPADH@Z:PROC	; ccddaabb::EncryptByte
; Function compile flags: /Ogsp
; File d:\lost saga for developer\youtube\tutorial\source\src\lsclient\encryptvalue.h
;	COMDAT ?EncryptValueToPool@?$CEncrypt@M@@AAEXPBD@Z
_TEXT	SEGMENT
_value$ = 8						; size = 4
?EncryptValueToPool@?$CEncrypt@M@@AAEXPBD@Z PROC	; CEncrypt<float>::EncryptValueToPool, COMDAT
; _this$ = ecx

; 67   : 	{

  00000	55		 push	 ebp
  00001	8b ec		 mov	 ebp, esp

; 68   : 		m_RC5.EncryptByte( value, m_MemPool, max(m_ValueSize, DEFAULT_ENCRYPT) );

  00003	0f b7 41 06	 movzx	 eax, WORD PTR [ecx+6]
  00007	83 f8 04	 cmp	 eax, 4
  0000a	77 03		 ja	 SHORT $LN4@EncryptVal
  0000c	6a 04		 push	 4
  0000e	58		 pop	 eax
$LN4@EncryptVal:
  0000f	50		 push	 eax
  00010	8d 41 1c	 lea	 eax, DWORD PTR [ecx+28]
  00013	50		 push	 eax
  00014	ff 75 08	 push	 DWORD PTR _value$[ebp]
  00017	83 c1 0c	 add	 ecx, 12			; 0000000cH
  0001a	e8 00 00 00 00	 call	 ?EncryptByte@ccddaabb@@QAEXPBDPADH@Z ; ccddaabb::EncryptByte

; 69   : 		
; 70   : 	}

  0001f	5d		 pop	 ebp
  00020	c2 04 00	 ret	 4
?EncryptValueToPool@?$CEncrypt@M@@AAEXPBD@Z ENDP	; CEncrypt<float>::EncryptValueToPool
_TEXT	ENDS
PUBLIC	?Init@?$CEncrypt@M@@AAEXXZ			; CEncrypt<float>::Init
EXTRN	?Setup@ccddaabb@@QAEXPBDHH@Z:PROC		; ccddaabb::Setup
EXTRN	__imp__rand:PROC
EXTRN	__imp__timeGetTime@0:PROC
EXTRN	__imp__GetCurrentProcessId@0:PROC
; Function compile flags: /Ogsp
;	COMDAT ?Init@?$CEncrypt@M@@AAEXXZ
_TEXT	SEGMENT
_pid$ = -8						; size = 4
_tick$ = -4						; size = 4
?Init@?$CEncrypt@M@@AAEXXZ PROC				; CEncrypt<float>::Init, COMDAT
; _this$ = ecx

; 73   : 	{

  00000	55		 push	 ebp
  00001	8b ec		 mov	 ebp, esp
  00003	51		 push	 ecx
  00004	51		 push	 ecx
  00005	53		 push	 ebx
  00006	56		 push	 esi
  00007	57		 push	 edi
  00008	8b f1		 mov	 esi, ecx

; 74   : 		DWORD pid = GetCurrentProcessId();

  0000a	ff 15 00 00 00
	00		 call	 DWORD PTR __imp__GetCurrentProcessId@0
  00010	89 45 f8	 mov	 DWORD PTR _pid$[ebp], eax

; 75   : 		DWORD tick = timeGetTime();

  00013	ff 15 00 00 00
	00		 call	 DWORD PTR __imp__timeGetTime@0

; 76   : 		m_ValueSize    = sizeof(type);
; 77   : 		m_MemPoolPos   = (unsigned short)( rand()+pid+tick )%(MAX_MEM_POOL-m_ValueSize);

  00019	8b 3d 00 00 00
	00		 mov	 edi, DWORD PTR __imp__rand
  0001f	89 45 fc	 mov	 DWORD PTR _tick$[ebp], eax
  00022	6a 04		 push	 4
  00024	58		 pop	 eax
  00025	66 89 46 06	 mov	 WORD PTR [esi+6], ax
  00029	ff d7		 call	 edi
  0002b	03 45 f8	 add	 eax, DWORD PTR _pid$[ebp]
  0002e	0f b7 4e 06	 movzx	 ecx, WORD PTR [esi+6]
  00032	03 45 fc	 add	 eax, DWORD PTR _tick$[ebp]
  00035	6a 0c		 push	 12			; 0000000cH
  00037	0f b7 c0	 movzx	 eax, ax
  0003a	5b		 pop	 ebx
  0003b	99		 cdq
  0003c	2b d9		 sub	 ebx, ecx
  0003e	f7 fb		 idiv	 ebx
  00040	66 89 56 04	 mov	 WORD PTR [esi+4], dx

; 78   : 		m_EncryptSeed  = (char)( rand()+pid+tick )%256;

  00044	ff d7		 call	 edi
  00046	02 45 f8	 add	 al, BYTE PTR _pid$[ebp]
  00049	02 45 fc	 add	 al, BYTE PTR _tick$[ebp]
  0004c	0f be c0	 movsx	 eax, al
  0004f	25 ff 00 00 80	 and	 eax, -2147483393	; 800000ffH
  00054	79 07		 jns	 SHORT $LN8@Init
  00056	48		 dec	 eax
  00057	0d 00 ff ff ff	 or	 eax, -256		; ffffff00H
  0005c	40		 inc	 eax
$LN8@Init:
  0005d	88 46 08	 mov	 BYTE PTR [esi+8], al

; 79   : 
; 80   : 		for (int i = 0; i < MAX_MEM_POOL ; i++)

  00060	33 db		 xor	 ebx, ebx
$LL3@Init:

; 81   : 			m_MemPool[i] = (char)( rand()+pid+tick )%256; // 더미

  00062	ff d7		 call	 edi
  00064	02 45 f8	 add	 al, BYTE PTR _pid$[ebp]
  00067	02 45 fc	 add	 al, BYTE PTR _tick$[ebp]
  0006a	0f be c0	 movsx	 eax, al
  0006d	25 ff 00 00 80	 and	 eax, -2147483393	; 800000ffH
  00072	79 07		 jns	 SHORT $LN9@Init
  00074	48		 dec	 eax
  00075	0d 00 ff ff ff	 or	 eax, -256		; ffffff00H
  0007a	40		 inc	 eax
$LN9@Init:
  0007b	88 44 1e 1c	 mov	 BYTE PTR [esi+ebx+28], al
  0007f	43		 inc	 ebx
  00080	83 fb 0c	 cmp	 ebx, 12			; 0000000cH
  00083	7c dd		 jl	 SHORT $LL3@Init

; 82   : 
; 83   : 		//UJ 130913, 최적화: szKey 사용안하도록 간략화
; 84   : 		//char szKey[ccddaabb::KEY_SIZE];//="";
; 85   : 		//for (int i = 0; i < ccddaabb::KEY_SIZE  ; i++)
; 86   : 		//	szKey[i] = (char)( rand()+pid+tick )%256; // 더미
; 87   : 		m_RC5.Setup( NULL, pid, tick );

  00085	ff 75 fc	 push	 DWORD PTR _tick$[ebp]
  00088	8d 4e 0c	 lea	 ecx, DWORD PTR [esi+12]
  0008b	ff 75 f8	 push	 DWORD PTR _pid$[ebp]
  0008e	6a 00		 push	 0
  00090	e8 00 00 00 00	 call	 ?Setup@ccddaabb@@QAEXPBDHH@Z ; ccddaabb::Setup
  00095	5f		 pop	 edi
  00096	5e		 pop	 esi
  00097	5b		 pop	 ebx

; 88   : 
; 89   : #ifdef _NOTUSE
; 90   : 		m_value        = 0;
; 91   : 		EncryptValueToPool((char*)&m_value);
; 92   : 		Debug();
; 93   : #endif
; 94   : 	}

  00098	c9		 leave
  00099	c3		 ret	 0
?Init@?$CEncrypt@M@@AAEXXZ ENDP				; CEncrypt<float>::Init
_TEXT	ENDS
PUBLIC	?DecryptValueToPool@?$CEncrypt@M@@QAEXPAM@Z	; CEncrypt<float>::DecryptValueToPool
EXTRN	?DecryptByte@ccddaabb@@QBEXPBDPADH@Z:PROC	; ccddaabb::DecryptByte
; Function compile flags: /Ogsp
;	COMDAT ?DecryptValueToPool@?$CEncrypt@M@@QAEXPAM@Z
_TEXT	SEGMENT
_value$ = 8						; size = 4
?DecryptValueToPool@?$CEncrypt@M@@QAEXPAM@Z PROC	; CEncrypt<float>::DecryptValueToPool, COMDAT
; _this$ = ecx

; 1648 : 	{

  00000	55		 push	 ebp
  00001	8b ec		 mov	 ebp, esp
  00003	56		 push	 esi

; 1649 : 		m_RC5.DecryptByte( m_MemPool, m_TempMem, 4 );

  00004	8d 71 28	 lea	 esi, DWORD PTR [ecx+40]
  00007	6a 04		 push	 4
  00009	8d 41 1c	 lea	 eax, DWORD PTR [ecx+28]
  0000c	56		 push	 esi
  0000d	50		 push	 eax
  0000e	83 c1 0c	 add	 ecx, 12			; 0000000cH
  00011	e8 00 00 00 00	 call	 ?DecryptByte@ccddaabb@@QBEXPBDPADH@Z ; ccddaabb::DecryptByte

; 1650 : 		*value = *((float*)m_TempMem);

  00016	d9 06		 fld	 DWORD PTR [esi]
  00018	8b 45 08	 mov	 eax, DWORD PTR _value$[ebp]
  0001b	d9 18		 fstp	 DWORD PTR [eax]
  0001d	5e		 pop	 esi

; 1651 : 	}

  0001e	5d		 pop	 ebp
  0001f	c2 04 00	 ret	 4
?DecryptValueToPool@?$CEncrypt@M@@QAEXPAM@Z ENDP	; CEncrypt<float>::DecryptValueToPool
_TEXT	ENDS
PUBLIC	?EncryptValueToPool@?$CEncrypt@K@@AAEXPBD@Z	; CEncrypt<unsigned long>::EncryptValueToPool
; Function compile flags: /Ogsp
;	COMDAT ?EncryptValueToPool@?$CEncrypt@K@@AAEXPBD@Z
_TEXT	SEGMENT
_value$ = 8						; size = 4
?EncryptValueToPool@?$CEncrypt@K@@AAEXPBD@Z PROC	; CEncrypt<unsigned long>::EncryptValueToPool, COMDAT
; _this$ = ecx

; 67   : 	{

  00000	55		 push	 ebp
  00001	8b ec		 mov	 ebp, esp

; 68   : 		m_RC5.EncryptByte( value, m_MemPool, max(m_ValueSize, DEFAULT_ENCRYPT) );

  00003	0f b7 41 06	 movzx	 eax, WORD PTR [ecx+6]
  00007	83 f8 04	 cmp	 eax, 4
  0000a	77 03		 ja	 SHORT $LN4@EncryptVal@2
  0000c	6a 04		 push	 4
  0000e	58		 pop	 eax
$LN4@EncryptVal@2:
  0000f	50		 push	 eax
  00010	8d 41 1c	 lea	 eax, DWORD PTR [ecx+28]
  00013	50		 push	 eax
  00014	ff 75 08	 push	 DWORD PTR _value$[ebp]
  00017	83 c1 0c	 add	 ecx, 12			; 0000000cH
  0001a	e8 00 00 00 00	 call	 ?EncryptByte@ccddaabb@@QAEXPBDPADH@Z ; ccddaabb::EncryptByte

; 69   : 		
; 70   : 	}

  0001f	5d		 pop	 ebp
  00020	c2 04 00	 ret	 4
?EncryptValueToPool@?$CEncrypt@K@@AAEXPBD@Z ENDP	; CEncrypt<unsigned long>::EncryptValueToPool
_TEXT	ENDS
PUBLIC	?DecryptValueToPool@?$CEncrypt@K@@QAEXPAK@Z	; CEncrypt<unsigned long>::DecryptValueToPool
; Function compile flags: /Ogsp
;	COMDAT ?DecryptValueToPool@?$CEncrypt@K@@QAEXPAK@Z
_TEXT	SEGMENT
_value$ = 8						; size = 4
?DecryptValueToPool@?$CEncrypt@K@@QAEXPAK@Z PROC	; CEncrypt<unsigned long>::DecryptValueToPool, COMDAT
; _this$ = ecx

; 1256 : 	{

  00000	55		 push	 ebp
  00001	8b ec		 mov	 ebp, esp
  00003	56		 push	 esi

; 1257 : 		m_RC5.DecryptByte( m_MemPool, m_TempMem, 4 );

  00004	8d 71 28	 lea	 esi, DWORD PTR [ecx+40]
  00007	6a 04		 push	 4
  00009	8d 41 1c	 lea	 eax, DWORD PTR [ecx+28]
  0000c	56		 push	 esi
  0000d	50		 push	 eax
  0000e	83 c1 0c	 add	 ecx, 12			; 0000000cH
  00011	e8 00 00 00 00	 call	 ?DecryptByte@ccddaabb@@QBEXPBDPADH@Z ; ccddaabb::DecryptByte

; 1258 : 		*value = *((DWORD*)m_TempMem);

  00016	8b 06		 mov	 eax, DWORD PTR [esi]
  00018	8b 4d 08	 mov	 ecx, DWORD PTR _value$[ebp]
  0001b	89 01		 mov	 DWORD PTR [ecx], eax
  0001d	5e		 pop	 esi

; 1259 : 	}

  0001e	5d		 pop	 ebp
  0001f	c2 04 00	 ret	 4
?DecryptValueToPool@?$CEncrypt@K@@QAEXPAK@Z ENDP	; CEncrypt<unsigned long>::DecryptValueToPool
_TEXT	ENDS
PUBLIC	?DecryptValueToPool@?$CEncrypt@_N@@QAEXPA_N@Z	; CEncrypt<bool>::DecryptValueToPool
; Function compile flags: /Ogsp
;	COMDAT ?DecryptValueToPool@?$CEncrypt@_N@@QAEXPA_N@Z
_TEXT	SEGMENT
_value$ = 8						; size = 4
?DecryptValueToPool@?$CEncrypt@_N@@QAEXPA_N@Z PROC	; CEncrypt<bool>::DecryptValueToPool, COMDAT
; _this$ = ecx

; 219  : 	{

  00000	55		 push	 ebp
  00001	8b ec		 mov	 ebp, esp
  00003	56		 push	 esi

; 220  : 		m_RC5.DecryptByte( m_MemPool, m_TempMem, 4 );

  00004	8d 71 28	 lea	 esi, DWORD PTR [ecx+40]
  00007	6a 04		 push	 4
  00009	8d 41 1c	 lea	 eax, DWORD PTR [ecx+28]
  0000c	56		 push	 esi
  0000d	50		 push	 eax
  0000e	83 c1 0c	 add	 ecx, 12			; 0000000cH
  00011	e8 00 00 00 00	 call	 ?DecryptByte@ccddaabb@@QBEXPBDPADH@Z ; ccddaabb::DecryptByte

; 221  : 		*value = *((bool*)m_TempMem);

  00016	8a 06		 mov	 al, BYTE PTR [esi]
  00018	8b 4d 08	 mov	 ecx, DWORD PTR _value$[ebp]
  0001b	88 01		 mov	 BYTE PTR [ecx], al
  0001d	5e		 pop	 esi

; 222  : 	}

  0001e	5d		 pop	 ebp
  0001f	c2 04 00	 ret	 4
?DecryptValueToPool@?$CEncrypt@_N@@QAEXPA_N@Z ENDP	; CEncrypt<bool>::DecryptValueToPool
_TEXT	ENDS
PUBLIC	?_Xlen@?$vector@VioHashString@@V?$allocator@VioHashString@@@std@@@std@@IBEXXZ ; std::vector<ioHashString,std::allocator<ioHashString> >::_Xlen
; Function compile flags: /Ogsp
; File c:\program files (x86)\microsoft visual studio 10.0\vc\include\vector
;	COMDAT ?_Xlen@?$vector@VioHashString@@V?$allocator@VioHashString@@@std@@@std@@IBEXXZ
_TEXT	SEGMENT
?_Xlen@?$vector@VioHashString@@V?$allocator@VioHashString@@@std@@@std@@IBEXXZ PROC ; std::vector<ioHashString,std::allocator<ioHashString> >::_Xlen, COMDAT
; _this$ = ecx

; 1427 : 		_Xlength_error("vector<T> too long");

  00000	68 00 00 00 00	 push	 OFFSET ??_C@_0BD@OLBABOEK@vector?$DMT?$DO?5too?5long?$AA@
  00005	ff 15 00 00 00
	00		 call	 DWORD PTR __imp_?_Xlength_error@std@@YAXPBD@Z
$LN4@Xlen@2:
$LN3@Xlen@2:
  0000b	cc		 int	 3
?_Xlen@?$vector@VioHashString@@V?$allocator@VioHashString@@@std@@@std@@IBEXXZ ENDP ; std::vector<ioHashString,std::allocator<ioHashString> >::_Xlen
_TEXT	ENDS
PUBLIC	?deallocate@?$allocator@VioHashString@@@std@@QAEXPAVioHashString@@I@Z ; std::allocator<ioHashString>::deallocate
; Function compile flags: /Ogsp
; File c:\program files (x86)\microsoft visual studio 10.0\vc\include\xmemory
;	COMDAT ?deallocate@?$allocator@VioHashString@@@std@@QAEXPAVioHashString@@I@Z
_TEXT	SEGMENT
__Ptr$ = 8						; size = 4
___formal$ = 12						; size = 4
?deallocate@?$allocator@VioHashString@@@std@@QAEXPAVioHashString@@I@Z PROC ; std::allocator<ioHashString>::deallocate, COMDAT
; _this$ = ecx

; 181  : 		{	// deallocate object at _Ptr, ignore size

  00000	55		 push	 ebp
  00001	8b ec		 mov	 ebp, esp

; 182  : 		::operator delete(_Ptr);

  00003	ff 75 08	 push	 DWORD PTR __Ptr$[ebp]
  00006	e8 00 00 00 00	 call	 ??3@YAXPAX@Z		; operator delete
  0000b	59		 pop	 ecx

; 183  : 		}

  0000c	5d		 pop	 ebp
  0000d	c2 08 00	 ret	 8
?deallocate@?$allocator@VioHashString@@@std@@QAEXPAVioHashString@@I@Z ENDP ; std::allocator<ioHashString>::deallocate
_TEXT	ENDS
PUBLIC	??0?$allocator@UWeaponInfo@@@std@@QAE@ABV01@@Z	; std::allocator<WeaponInfo>::allocator<WeaponInfo>
; Function compile flags: /Ogsp
;	COMDAT ??0?$allocator@UWeaponInfo@@@std@@QAE@ABV01@@Z
_TEXT	SEGMENT
___formal$ = 8						; size = 4
??0?$allocator@UWeaponInfo@@@std@@QAE@ABV01@@Z PROC	; std::allocator<WeaponInfo>::allocator<WeaponInfo>, COMDAT
; _this$ = ecx

; 165  : 	_ALLOCATOR(const _ALLOCATOR<_Ty>&) _THROW0()

  00000	8b c1		 mov	 eax, ecx

; 166  : 		{	// construct by copying (do nothing)
; 167  : 		}

  00002	c2 04 00	 ret	 4
??0?$allocator@UWeaponInfo@@@std@@QAE@ABV01@@Z ENDP	; std::allocator<WeaponInfo>::allocator<WeaponInfo>
_TEXT	ENDS
PUBLIC	?deallocate@?$allocator@UWeaponInfo@@@std@@QAEXPAUWeaponInfo@@I@Z ; std::allocator<WeaponInfo>::deallocate
; Function compile flags: /Ogsp
;	COMDAT ?deallocate@?$allocator@UWeaponInfo@@@std@@QAEXPAUWeaponInfo@@I@Z
_TEXT	SEGMENT
__Ptr$ = 8						; size = 4
___formal$ = 12						; size = 4
?deallocate@?$allocator@UWeaponInfo@@@std@@QAEXPAUWeaponInfo@@I@Z PROC ; std::allocator<WeaponInfo>::deallocate, COMDAT
; _this$ = ecx

; 181  : 		{	// deallocate object at _Ptr, ignore size

  00000	55		 push	 ebp
  00001	8b ec		 mov	 ebp, esp

; 182  : 		::operator delete(_Ptr);

  00003	ff 75 08	 push	 DWORD PTR __Ptr$[ebp]
  00006	e8 00 00 00 00	 call	 ??3@YAXPAX@Z		; operator delete
  0000b	59		 pop	 ecx

; 183  : 		}

  0000c	5d		 pop	 ebp
  0000d	c2 08 00	 ret	 8
?deallocate@?$allocator@UWeaponInfo@@@std@@QAEXPAUWeaponInfo@@I@Z ENDP ; std::allocator<WeaponInfo>::deallocate
_TEXT	ENDS
PUBLIC	??0?$allocator@UForceInfo@@@std@@QAE@ABV01@@Z	; std::allocator<ForceInfo>::allocator<ForceInfo>
; Function compile flags: /Ogsp
;	COMDAT ??0?$allocator@UForceInfo@@@std@@QAE@ABV01@@Z
_TEXT	SEGMENT
___formal$ = 8						; size = 4
??0?$allocator@UForceInfo@@@std@@QAE@ABV01@@Z PROC	; std::allocator<ForceInfo>::allocator<ForceInfo>, COMDAT
; _this$ = ecx

; 165  : 	_ALLOCATOR(const _ALLOCATOR<_Ty>&) _THROW0()

  00000	8b c1		 mov	 eax, ecx

; 166  : 		{	// construct by copying (do nothing)
; 167  : 		}

  00002	c2 04 00	 ret	 4
??0?$allocator@UForceInfo@@@std@@QAE@ABV01@@Z ENDP	; std::allocator<ForceInfo>::allocator<ForceInfo>
_TEXT	ENDS
PUBLIC	?deallocate@?$allocator@UForceInfo@@@std@@QAEXPAUForceInfo@@I@Z ; std::allocator<ForceInfo>::deallocate
; Function compile flags: /Ogsp
;	COMDAT ?deallocate@?$allocator@UForceInfo@@@std@@QAEXPAUForceInfo@@I@Z
_TEXT	SEGMENT
__Ptr$ = 8						; size = 4
___formal$ = 12						; size = 4
?deallocate@?$allocator@UForceInfo@@@std@@QAEXPAUForceInfo@@I@Z PROC ; std::allocator<ForceInfo>::deallocate, COMDAT
; _this$ = ecx

; 181  : 		{	// deallocate object at _Ptr, ignore size

  00000	55		 push	 ebp
  00001	8b ec		 mov	 ebp, esp

; 182  : 		::operator delete(_Ptr);

  00003	ff 75 08	 push	 DWORD PTR __Ptr$[ebp]
  00006	e8 00 00 00 00	 call	 ??3@YAXPAX@Z		; operator delete
  0000b	59		 pop	 ecx

; 183  : 		}

  0000c	5d		 pop	 ebp
  0000d	c2 08 00	 ret	 8
?deallocate@?$allocator@UForceInfo@@@std@@QAEXPAUForceInfo@@I@Z ENDP ; std::allocator<ForceInfo>::deallocate
_TEXT	ENDS
PUBLIC	??0?$_Vector_const_iterator@V?$_Vector_val@VioHashString@@V?$allocator@VioHashString@@@std@@@std@@@std@@QAE@PAVioHashString@@PBU_Container_base0@1@@Z ; std::_Vector_const_iterator<std::_Vector_val<ioHashString,std::allocator<ioHashString> > >::_Vector_const_iterator<std::_Vector_val<ioHashString,std::allocator<ioHashString> > >
; Function compile flags: /Ogsp
; File c:\program files (x86)\microsoft visual studio 10.0\vc\include\vector
;	COMDAT ??0?$_Vector_const_iterator@V?$_Vector_val@VioHashString@@V?$allocator@VioHashString@@@std@@@std@@@std@@QAE@PAVioHashString@@PBU_Container_base0@1@@Z
_TEXT	SEGMENT
__Parg$ = 8						; size = 4
__Pvector$ = 12						; size = 4
??0?$_Vector_const_iterator@V?$_Vector_val@VioHashString@@V?$allocator@VioHashString@@@std@@@std@@@std@@QAE@PAVioHashString@@PBU_Container_base0@1@@Z PROC ; std::_Vector_const_iterator<std::_Vector_val<ioHashString,std::allocator<ioHashString> > >::_Vector_const_iterator<std::_Vector_val<ioHashString,std::allocator<ioHashString> > >, COMDAT
; _this$ = ecx

; 45   : 		{	// construct with pointer _Parg

  00000	55		 push	 ebp
  00001	8b ec		 mov	 ebp, esp
  00003	8b c1		 mov	 eax, ecx
  00005	8b 4d 08	 mov	 ecx, DWORD PTR __Parg$[ebp]
  00008	89 08		 mov	 DWORD PTR [eax], ecx

; 46   : 		this->_Adopt(_Pvector);
; 47   : 		}

  0000a	5d		 pop	 ebp
  0000b	c2 08 00	 ret	 8
??0?$_Vector_const_iterator@V?$_Vector_val@VioHashString@@V?$allocator@VioHashString@@@std@@@std@@@std@@QAE@PAVioHashString@@PBU_Container_base0@1@@Z ENDP ; std::_Vector_const_iterator<std::_Vector_val<ioHashString,std::allocator<ioHashString> > >::_Vector_const_iterator<std::_Vector_val<ioHashString,std::allocator<ioHashString> > >
_TEXT	ENDS
PUBLIC	??0?$_Vector_iterator@V?$_Vector_val@VioHashString@@V?$allocator@VioHashString@@@std@@@std@@@std@@QAE@PAVioHashString@@PBU_Container_base0@1@@Z ; std::_Vector_iterator<std::_Vector_val<ioHashString,std::allocator<ioHashString> > >::_Vector_iterator<std::_Vector_val<ioHashString,std::allocator<ioHashString> > >
; Function compile flags: /Ogsp
;	COMDAT ??0?$_Vector_iterator@V?$_Vector_val@VioHashString@@V?$allocator@VioHashString@@@std@@@std@@@std@@QAE@PAVioHashString@@PBU_Container_base0@1@@Z
_TEXT	SEGMENT
__Parg$ = 8						; size = 4
__Pvector$ = 12						; size = 4
??0?$_Vector_iterator@V?$_Vector_val@VioHashString@@V?$allocator@VioHashString@@@std@@@std@@@std@@QAE@PAVioHashString@@PBU_Container_base0@1@@Z PROC ; std::_Vector_iterator<std::_Vector_val<ioHashString,std::allocator<ioHashString> > >::_Vector_iterator<std::_Vector_val<ioHashString,std::allocator<ioHashString> > >, COMDAT
; _this$ = ecx

; 304  : 		{	// construct with pointer _Parg

  00000	55		 push	 ebp
  00001	8b ec		 mov	 ebp, esp
  00003	8b c1		 mov	 eax, ecx
  00005	8b 4d 08	 mov	 ecx, DWORD PTR __Parg$[ebp]
  00008	89 08		 mov	 DWORD PTR [eax], ecx

; 305  : 		}

  0000a	5d		 pop	 ebp
  0000b	c2 08 00	 ret	 8
??0?$_Vector_iterator@V?$_Vector_val@VioHashString@@V?$allocator@VioHashString@@@std@@@std@@@std@@QAE@PAVioHashString@@PBU_Container_base0@1@@Z ENDP ; std::_Vector_iterator<std::_Vector_val<ioHashString,std::allocator<ioHashString> > >::_Vector_iterator<std::_Vector_val<ioHashString,std::allocator<ioHashString> > >
_TEXT	ENDS
PUBLIC	?max_size@?$allocator@VioHashString@@@std@@QBEIXZ ; std::allocator<ioHashString>::max_size
; Function compile flags: /Ogsp
; File c:\program files (x86)\microsoft visual studio 10.0\vc\include\xmemory
;	COMDAT ?max_size@?$allocator@VioHashString@@@std@@QBEIXZ
_TEXT	SEGMENT
?max_size@?$allocator@VioHashString@@@std@@QBEIXZ PROC	; std::allocator<ioHashString>::max_size, COMDAT
; _this$ = ecx

; 218  : 		_SIZT _Count = (_SIZT)(-1) / sizeof (_Ty);
; 219  : 		return (0 < _Count ? _Count : 1);

  00000	b8 ff ff ff 0f	 mov	 eax, 268435455		; 0fffffffH

; 220  : 		}

  00005	c3		 ret	 0
?max_size@?$allocator@VioHashString@@@std@@QBEIXZ ENDP	; std::allocator<ioHashString>::max_size
_TEXT	ENDS
PUBLIC	?_Compat@?$_Vector_const_iterator@V?$_Vector_val@VioHashString@@V?$allocator@VioHashString@@@std@@@std@@@std@@QBEXABV12@@Z ; std::_Vector_const_iterator<std::_Vector_val<ioHashString,std::allocator<ioHashString> > >::_Compat
; Function compile flags: /Ogsp
; File c:\program files (x86)\microsoft visual studio 10.0\vc\include\vector
;	COMDAT ?_Compat@?$_Vector_const_iterator@V?$_Vector_val@VioHashString@@V?$allocator@VioHashString@@@std@@@std@@@std@@QBEXABV12@@Z
_TEXT	SEGMENT
___formal$ = 8						; size = 4
?_Compat@?$_Vector_const_iterator@V?$_Vector_val@VioHashString@@V?$allocator@VioHashString@@@std@@@std@@@std@@QBEXABV12@@Z PROC ; std::_Vector_const_iterator<std::_Vector_val<ioHashString,std::allocator<ioHashString> > >::_Compat, COMDAT
; _this$ = ecx

; 253  : 		}

  00000	c2 04 00	 ret	 4
?_Compat@?$_Vector_const_iterator@V?$_Vector_val@VioHashString@@V?$allocator@VioHashString@@@std@@@std@@@std@@QBEXABV12@@Z ENDP ; std::_Vector_const_iterator<std::_Vector_val<ioHashString,std::allocator<ioHashString> > >::_Compat
_TEXT	ENDS
PUBLIC	??$_Allocate@VioHashString@@@std@@YAPAVioHashString@@IPAV1@@Z ; std::_Allocate<ioHashString>
; Function compile flags: /Ogsp
; File c:\program files (x86)\microsoft visual studio 10.0\vc\include\xmemory
;	COMDAT ??$_Allocate@VioHashString@@@std@@YAPAVioHashString@@IPAV1@@Z
_TEXT	SEGMENT
$T556489 = -12						; size = 12
$T556493 = 8						; size = 4
__Count$ = 8						; size = 4
___formal$ = 12						; size = 4
??$_Allocate@VioHashString@@@std@@YAPAVioHashString@@IPAV1@@Z PROC ; std::_Allocate<ioHashString>, COMDAT

; 30   : 	{	// allocate storage for _Count elements of type _Ty

  00000	55		 push	 ebp
  00001	8b ec		 mov	 ebp, esp

; 31   : 	void *_Ptr = 0;
; 32   : 
; 33   : 	if (_Count <= 0)

  00003	8b 4d 08	 mov	 ecx, DWORD PTR __Count$[ebp]
  00006	83 ec 0c	 sub	 esp, 12			; 0000000cH
  00009	33 c0		 xor	 eax, eax
  0000b	85 c9		 test	 ecx, ecx

; 34   : 		_Count = 0;
; 35   : 	else if (((_SIZT)(-1) / sizeof (_Ty) < _Count)

  0000d	74 3c		 je	 SHORT $LN5@Allocate@2

; 36   : 		|| (_Ptr = ::operator new(_Count * sizeof (_Ty))) == 0)

  0000f	81 f9 ff ff ff
	0f		 cmp	 ecx, 268435455		; 0fffffffH
  00015	77 0e		 ja	 SHORT $LN1@Allocate@2
  00017	c1 e1 04	 shl	 ecx, 4
  0001a	51		 push	 ecx
  0001b	e8 00 00 00 00	 call	 ??2@YAPAXI@Z		; operator new
  00020	59		 pop	 ecx
  00021	85 c0		 test	 eax, eax

; 38   : 
; 39   : 	return ((_Ty _FARQ *)_Ptr);

  00023	75 26		 jne	 SHORT $LN5@Allocate@2
$LN1@Allocate@2:

; 37   : 		_THROW_NCEE(bad_alloc, 0);

  00025	83 65 08 00	 and	 DWORD PTR $T556493[ebp], 0
  00029	8d 45 08	 lea	 eax, DWORD PTR $T556493[ebp]
  0002c	50		 push	 eax
  0002d	8d 4d f4	 lea	 ecx, DWORD PTR $T556489[ebp]
  00030	ff 15 00 00 00
	00		 call	 DWORD PTR __imp_??0exception@std@@QAE@ABQBD@Z
  00036	68 00 00 00 00	 push	 OFFSET __TI2?AVbad_alloc@std@@
  0003b	8d 45 f4	 lea	 eax, DWORD PTR $T556489[ebp]
  0003e	50		 push	 eax
  0003f	c7 45 f4 00 00
	00 00		 mov	 DWORD PTR $T556489[ebp], OFFSET ??_7bad_alloc@std@@6B@
  00046	e8 00 00 00 00	 call	 __CxxThrowException@8
$LN10@Allocate@2:
$LN5@Allocate@2:

; 40   : 	}

  0004b	c9		 leave
  0004c	c3		 ret	 0
$LN9@Allocate@2:
??$_Allocate@VioHashString@@@std@@YAPAVioHashString@@IPAV1@@Z ENDP ; std::_Allocate<ioHashString>
_TEXT	ENDS
EXTRN	__imp_??0exception@std@@QAE@ABV01@@Z:PROC
; Function compile flags: /Ogsp
;	COMDAT ??0bad_alloc@std@@QAE@ABV01@@Z
_TEXT	SEGMENT
___that$ = 8						; size = 4
??0bad_alloc@std@@QAE@ABV01@@Z PROC			; std::bad_alloc::bad_alloc, COMDAT
; _this$ = ecx
  00000	55		 push	 ebp
  00001	8b ec		 mov	 ebp, esp
  00003	56		 push	 esi
  00004	ff 75 08	 push	 DWORD PTR ___that$[ebp]
  00007	8b f1		 mov	 esi, ecx
  00009	ff 15 00 00 00
	00		 call	 DWORD PTR __imp_??0exception@std@@QAE@ABV01@@Z
  0000f	c7 06 00 00 00
	00		 mov	 DWORD PTR [esi], OFFSET ??_7bad_alloc@std@@6B@
  00015	8b c6		 mov	 eax, esi
  00017	5e		 pop	 esi
  00018	5d		 pop	 ebp
  00019	c2 04 00	 ret	 4
??0bad_alloc@std@@QAE@ABV01@@Z ENDP			; std::bad_alloc::bad_alloc
_TEXT	ENDS
PUBLIC	??$forward@ABVioHashString@@@std@@YAABVioHashString@@ABV1@@Z ; std::forward<ioHashString const &>
; Function compile flags: /Ogsp
; File c:\program files (x86)\microsoft visual studio 10.0\vc\include\utility
;	COMDAT ??$forward@ABVioHashString@@@std@@YAABVioHashString@@ABV1@@Z
_TEXT	SEGMENT
__Arg$ = 8						; size = 4
??$forward@ABVioHashString@@@std@@YAABVioHashString@@ABV1@@Z PROC ; std::forward<ioHashString const &>, COMDAT

; 78   : 	{	// forward _Arg, given explicitly specified type parameter

  00000	55		 push	 ebp
  00001	8b ec		 mov	 ebp, esp

; 79   : 	return ((_Ty&&)_Arg);

  00003	8b 45 08	 mov	 eax, DWORD PTR __Arg$[ebp]

; 80   : 	}

  00006	5d		 pop	 ebp
  00007	c3		 ret	 0
??$forward@ABVioHashString@@@std@@YAABVioHashString@@ABV1@@Z ENDP ; std::forward<ioHashString const &>
_TEXT	ENDS
PUBLIC	??$forward@AAVioHashString@@@std@@YAAAVioHashString@@AAV1@@Z ; std::forward<ioHashString &>
; Function compile flags: /Ogsp
;	COMDAT ??$forward@AAVioHashString@@@std@@YAAAVioHashString@@AAV1@@Z
_TEXT	SEGMENT
__Arg$ = 8						; size = 4
??$forward@AAVioHashString@@@std@@YAAAVioHashString@@AAV1@@Z PROC ; std::forward<ioHashString &>, COMDAT

; 78   : 	{	// forward _Arg, given explicitly specified type parameter

  00000	55		 push	 ebp
  00001	8b ec		 mov	 ebp, esp

; 79   : 	return ((_Ty&&)_Arg);

  00003	8b 45 08	 mov	 eax, DWORD PTR __Arg$[ebp]

; 80   : 	}

  00006	5d		 pop	 ebp
  00007	c3		 ret	 0
??$forward@AAVioHashString@@@std@@YAAAVioHashString@@AAV1@@Z ENDP ; std::forward<ioHashString &>
_TEXT	ENDS
PUBLIC	??$_Ptr_cat@VioHashString@@V1@@std@@YA?AU_Nonscalar_ptr_iterator_tag@0@PAVioHashString@@0@Z ; std::_Ptr_cat<ioHashString,ioHashString>
; Function compile flags: /Ogsp
; File c:\program files (x86)\microsoft visual studio 10.0\vc\include\xutility
;	COMDAT ??$_Ptr_cat@VioHashString@@V1@@std@@YA?AU_Nonscalar_ptr_iterator_tag@0@PAVioHashString@@0@Z
_TEXT	SEGMENT
__Cat$ = -1						; size = 1
___formal$ = 8						; size = 4
___formal$ = 12						; size = 4
??$_Ptr_cat@VioHashString@@V1@@std@@YA?AU_Nonscalar_ptr_iterator_tag@0@PAVioHashString@@0@Z PROC ; std::_Ptr_cat<ioHashString,ioHashString>, COMDAT

; 516  : 	{	// return pointer category from pointers

  00000	55		 push	 ebp
  00001	8b ec		 mov	 ebp, esp
  00003	51		 push	 ecx

; 517  : 	typename _Ptr_cat_helper<_Elem1, _Elem2>::_Type _Cat;
; 518  : 	return (_Cat);

  00004	8a 45 ff	 mov	 al, BYTE PTR __Cat$[ebp]

; 519  : 	}

  00007	c9		 leave
  00008	c3		 ret	 0
??$_Ptr_cat@VioHashString@@V1@@std@@YA?AU_Nonscalar_ptr_iterator_tag@0@PAVioHashString@@0@Z ENDP ; std::_Ptr_cat<ioHashString,ioHashString>
_TEXT	ENDS
PUBLIC	??$_Ptr_cat@UWeaponInfo@@U1@@std@@YA?AU_Nonscalar_ptr_iterator_tag@0@PAUWeaponInfo@@0@Z ; std::_Ptr_cat<WeaponInfo,WeaponInfo>
; Function compile flags: /Ogsp
;	COMDAT ??$_Ptr_cat@UWeaponInfo@@U1@@std@@YA?AU_Nonscalar_ptr_iterator_tag@0@PAUWeaponInfo@@0@Z
_TEXT	SEGMENT
__Cat$ = -1						; size = 1
___formal$ = 8						; size = 4
___formal$ = 12						; size = 4
??$_Ptr_cat@UWeaponInfo@@U1@@std@@YA?AU_Nonscalar_ptr_iterator_tag@0@PAUWeaponInfo@@0@Z PROC ; std::_Ptr_cat<WeaponInfo,WeaponInfo>, COMDAT

; 516  : 	{	// return pointer category from pointers

  00000	55		 push	 ebp
  00001	8b ec		 mov	 ebp, esp
  00003	51		 push	 ecx

; 517  : 	typename _Ptr_cat_helper<_Elem1, _Elem2>::_Type _Cat;
; 518  : 	return (_Cat);

  00004	8a 45 ff	 mov	 al, BYTE PTR __Cat$[ebp]

; 519  : 	}

  00007	c9		 leave
  00008	c3		 ret	 0
??$_Ptr_cat@UWeaponInfo@@U1@@std@@YA?AU_Nonscalar_ptr_iterator_tag@0@PAUWeaponInfo@@0@Z ENDP ; std::_Ptr_cat<WeaponInfo,WeaponInfo>
_TEXT	ENDS
PUBLIC	??$_Ptr_cat@UForceInfo@@U1@@std@@YA?AU_Nonscalar_ptr_iterator_tag@0@PAUForceInfo@@0@Z ; std::_Ptr_cat<ForceInfo,ForceInfo>
; Function compile flags: /Ogsp
;	COMDAT ??$_Ptr_cat@UForceInfo@@U1@@std@@YA?AU_Nonscalar_ptr_iterator_tag@0@PAUForceInfo@@0@Z
_TEXT	SEGMENT
__Cat$ = -1						; size = 1
___formal$ = 8						; size = 4
___formal$ = 12						; size = 4
??$_Ptr_cat@UForceInfo@@U1@@std@@YA?AU_Nonscalar_ptr_iterator_tag@0@PAUForceInfo@@0@Z PROC ; std::_Ptr_cat<ForceInfo,ForceInfo>, COMDAT

; 516  : 	{	// return pointer category from pointers

  00000	55		 push	 ebp
  00001	8b ec		 mov	 ebp, esp
  00003	51		 push	 ecx

; 517  : 	typename _Ptr_cat_helper<_Elem1, _Elem2>::_Type _Cat;
; 518  : 	return (_Cat);

  00004	8a 45 ff	 mov	 al, BYTE PTR __Cat$[ebp]

; 519  : 	}

  00007	c9		 leave
  00008	c3		 ret	 0
??$_Ptr_cat@UForceInfo@@U1@@std@@YA?AU_Nonscalar_ptr_iterator_tag@0@PAUForceInfo@@0@Z ENDP ; std::_Ptr_cat<ForceInfo,ForceInfo>
_TEXT	ENDS
PUBLIC	?size@?$vector@UWeaponInfo@@V?$allocator@UWeaponInfo@@@std@@@std@@QBEIXZ ; std::vector<WeaponInfo,std::allocator<WeaponInfo> >::size
; Function compile flags: /Ogsp
; File c:\program files (x86)\microsoft visual studio 10.0\vc\include\vector
;	COMDAT ?size@?$vector@UWeaponInfo@@V?$allocator@UWeaponInfo@@@std@@@std@@QBEIXZ
_TEXT	SEGMENT
?size@?$vector@UWeaponInfo@@V?$allocator@UWeaponInfo@@@std@@@std@@QBEIXZ PROC ; std::vector<WeaponInfo,std::allocator<WeaponInfo> >::size, COMDAT
; _this$ = ecx

; 879  : 		return (this->_Mylast - this->_Myfirst);

  00000	8b 41 04	 mov	 eax, DWORD PTR [ecx+4]
  00003	2b 01		 sub	 eax, DWORD PTR [ecx]
  00005	6a 28		 push	 40			; 00000028H
  00007	99		 cdq
  00008	59		 pop	 ecx
  00009	f7 f9		 idiv	 ecx

; 880  : 		}

  0000b	c3		 ret	 0
?size@?$vector@UWeaponInfo@@V?$allocator@UWeaponInfo@@@std@@@std@@QBEIXZ ENDP ; std::vector<WeaponInfo,std::allocator<WeaponInfo> >::size
_TEXT	ENDS
PUBLIC	?size@?$vector@UForceInfo@@V?$allocator@UForceInfo@@@std@@@std@@QBEIXZ ; std::vector<ForceInfo,std::allocator<ForceInfo> >::size
; Function compile flags: /Ogsp
;	COMDAT ?size@?$vector@UForceInfo@@V?$allocator@UForceInfo@@@std@@@std@@QBEIXZ
_TEXT	SEGMENT
?size@?$vector@UForceInfo@@V?$allocator@UForceInfo@@@std@@@std@@QBEIXZ PROC ; std::vector<ForceInfo,std::allocator<ForceInfo> >::size, COMDAT
; _this$ = ecx

; 879  : 		return (this->_Mylast - this->_Myfirst);

  00000	8b 41 04	 mov	 eax, DWORD PTR [ecx+4]
  00003	2b 01		 sub	 eax, DWORD PTR [ecx]
  00005	6a 0c		 push	 12			; 0000000cH
  00007	99		 cdq
  00008	59		 pop	 ecx
  00009	f7 f9		 idiv	 ecx

; 880  : 		}

  0000b	c3		 ret	 0
?size@?$vector@UForceInfo@@V?$allocator@UForceInfo@@@std@@@std@@QBEIXZ ENDP ; std::vector<ForceInfo,std::allocator<ForceInfo> >::size
_TEXT	ENDS
PUBLIC	?_Xlen@?$vector@UWeaponInfo@@V?$allocator@UWeaponInfo@@@std@@@std@@IBEXXZ ; std::vector<WeaponInfo,std::allocator<WeaponInfo> >::_Xlen
; Function compile flags: /Ogsp
;	COMDAT ?_Xlen@?$vector@UWeaponInfo@@V?$allocator@UWeaponInfo@@@std@@@std@@IBEXXZ
_TEXT	SEGMENT
?_Xlen@?$vector@UWeaponInfo@@V?$allocator@UWeaponInfo@@@std@@@std@@IBEXXZ PROC ; std::vector<WeaponInfo,std::allocator<WeaponInfo> >::_Xlen, COMDAT
; _this$ = ecx

; 1427 : 		_Xlength_error("vector<T> too long");

  00000	68 00 00 00 00	 push	 OFFSET ??_C@_0BD@OLBABOEK@vector?$DMT?$DO?5too?5long?$AA@
  00005	ff 15 00 00 00
	00		 call	 DWORD PTR __imp_?_Xlength_error@std@@YAXPBD@Z
$LN4@Xlen@3:
$LN3@Xlen@3:
  0000b	cc		 int	 3
?_Xlen@?$vector@UWeaponInfo@@V?$allocator@UWeaponInfo@@@std@@@std@@IBEXXZ ENDP ; std::vector<WeaponInfo,std::allocator<WeaponInfo> >::_Xlen
_TEXT	ENDS
PUBLIC	?_Xlen@?$vector@UForceInfo@@V?$allocator@UForceInfo@@@std@@@std@@IBEXXZ ; std::vector<ForceInfo,std::allocator<ForceInfo> >::_Xlen
; Function compile flags: /Ogsp
;	COMDAT ?_Xlen@?$vector@UForceInfo@@V?$allocator@UForceInfo@@@std@@@std@@IBEXXZ
_TEXT	SEGMENT
?_Xlen@?$vector@UForceInfo@@V?$allocator@UForceInfo@@@std@@@std@@IBEXXZ PROC ; std::vector<ForceInfo,std::allocator<ForceInfo> >::_Xlen, COMDAT
; _this$ = ecx

; 1427 : 		_Xlength_error("vector<T> too long");

  00000	68 00 00 00 00	 push	 OFFSET ??_C@_0BD@OLBABOEK@vector?$DMT?$DO?5too?5long?$AA@
  00005	ff 15 00 00 00
	00		 call	 DWORD PTR __imp_?_Xlength_error@std@@YAXPBD@Z
$LN4@Xlen@4:
$LN3@Xlen@4:
  0000b	cc		 int	 3
?_Xlen@?$vector@UForceInfo@@V?$allocator@UForceInfo@@@std@@@std@@IBEXXZ ENDP ; std::vector<ForceInfo,std::allocator<ForceInfo> >::_Xlen
_TEXT	ENDS
PUBLIC	?max_size@?$allocator@UWeaponInfo@@@std@@QBEIXZ	; std::allocator<WeaponInfo>::max_size
; Function compile flags: /Ogsp
; File c:\program files (x86)\microsoft visual studio 10.0\vc\include\xmemory
;	COMDAT ?max_size@?$allocator@UWeaponInfo@@@std@@QBEIXZ
_TEXT	SEGMENT
?max_size@?$allocator@UWeaponInfo@@@std@@QBEIXZ PROC	; std::allocator<WeaponInfo>::max_size, COMDAT
; _this$ = ecx

; 218  : 		_SIZT _Count = (_SIZT)(-1) / sizeof (_Ty);
; 219  : 		return (0 < _Count ? _Count : 1);

  00000	b8 66 66 66 06	 mov	 eax, 107374182		; 06666666H

; 220  : 		}

  00005	c3		 ret	 0
?max_size@?$allocator@UWeaponInfo@@@std@@QBEIXZ ENDP	; std::allocator<WeaponInfo>::max_size
_TEXT	ENDS
PUBLIC	?max_size@?$allocator@UForceInfo@@@std@@QBEIXZ	; std::allocator<ForceInfo>::max_size
; Function compile flags: /Ogsp
;	COMDAT ?max_size@?$allocator@UForceInfo@@@std@@QBEIXZ
_TEXT	SEGMENT
?max_size@?$allocator@UForceInfo@@@std@@QBEIXZ PROC	; std::allocator<ForceInfo>::max_size, COMDAT
; _this$ = ecx

; 218  : 		_SIZT _Count = (_SIZT)(-1) / sizeof (_Ty);
; 219  : 		return (0 < _Count ? _Count : 1);

  00000	b8 55 55 55 15	 mov	 eax, 357913941		; 15555555H

; 220  : 		}

  00005	c3		 ret	 0
?max_size@?$allocator@UForceInfo@@@std@@QBEIXZ ENDP	; std::allocator<ForceInfo>::max_size
_TEXT	ENDS
PUBLIC	??0?$_Vector_const_iterator@V?$_Vector_val@UWeaponInfo@@V?$allocator@UWeaponInfo@@@std@@@std@@@std@@QAE@PAUWeaponInfo@@PBU_Container_base0@1@@Z ; std::_Vector_const_iterator<std::_Vector_val<WeaponInfo,std::allocator<WeaponInfo> > >::_Vector_const_iterator<std::_Vector_val<WeaponInfo,std::allocator<WeaponInfo> > >
; Function compile flags: /Ogsp
; File c:\program files (x86)\microsoft visual studio 10.0\vc\include\vector
;	COMDAT ??0?$_Vector_const_iterator@V?$_Vector_val@UWeaponInfo@@V?$allocator@UWeaponInfo@@@std@@@std@@@std@@QAE@PAUWeaponInfo@@PBU_Container_base0@1@@Z
_TEXT	SEGMENT
__Parg$ = 8						; size = 4
__Pvector$ = 12						; size = 4
??0?$_Vector_const_iterator@V?$_Vector_val@UWeaponInfo@@V?$allocator@UWeaponInfo@@@std@@@std@@@std@@QAE@PAUWeaponInfo@@PBU_Container_base0@1@@Z PROC ; std::_Vector_const_iterator<std::_Vector_val<WeaponInfo,std::allocator<WeaponInfo> > >::_Vector_const_iterator<std::_Vector_val<WeaponInfo,std::allocator<WeaponInfo> > >, COMDAT
; _this$ = ecx

; 45   : 		{	// construct with pointer _Parg

  00000	55		 push	 ebp
  00001	8b ec		 mov	 ebp, esp
  00003	8b c1		 mov	 eax, ecx
  00005	8b 4d 08	 mov	 ecx, DWORD PTR __Parg$[ebp]
  00008	89 08		 mov	 DWORD PTR [eax], ecx

; 46   : 		this->_Adopt(_Pvector);
; 47   : 		}

  0000a	5d		 pop	 ebp
  0000b	c2 08 00	 ret	 8
??0?$_Vector_const_iterator@V?$_Vector_val@UWeaponInfo@@V?$allocator@UWeaponInfo@@@std@@@std@@@std@@QAE@PAUWeaponInfo@@PBU_Container_base0@1@@Z ENDP ; std::_Vector_const_iterator<std::_Vector_val<WeaponInfo,std::allocator<WeaponInfo> > >::_Vector_const_iterator<std::_Vector_val<WeaponInfo,std::allocator<WeaponInfo> > >
_TEXT	ENDS
PUBLIC	??0?$_Vector_const_iterator@V?$_Vector_val@UForceInfo@@V?$allocator@UForceInfo@@@std@@@std@@@std@@QAE@PAUForceInfo@@PBU_Container_base0@1@@Z ; std::_Vector_const_iterator<std::_Vector_val<ForceInfo,std::allocator<ForceInfo> > >::_Vector_const_iterator<std::_Vector_val<ForceInfo,std::allocator<ForceInfo> > >
; Function compile flags: /Ogsp
;	COMDAT ??0?$_Vector_const_iterator@V?$_Vector_val@UForceInfo@@V?$allocator@UForceInfo@@@std@@@std@@@std@@QAE@PAUForceInfo@@PBU_Container_base0@1@@Z
_TEXT	SEGMENT
__Parg$ = 8						; size = 4
__Pvector$ = 12						; size = 4
??0?$_Vector_const_iterator@V?$_Vector_val@UForceInfo@@V?$allocator@UForceInfo@@@std@@@std@@@std@@QAE@PAUForceInfo@@PBU_Container_base0@1@@Z PROC ; std::_Vector_const_iterator<std::_Vector_val<ForceInfo,std::allocator<ForceInfo> > >::_Vector_const_iterator<std::_Vector_val<ForceInfo,std::allocator<ForceInfo> > >, COMDAT
; _this$ = ecx

; 45   : 		{	// construct with pointer _Parg

  00000	55		 push	 ebp
  00001	8b ec		 mov	 ebp, esp
  00003	8b c1		 mov	 eax, ecx
  00005	8b 4d 08	 mov	 ecx, DWORD PTR __Parg$[ebp]
  00008	89 08		 mov	 DWORD PTR [eax], ecx

; 46   : 		this->_Adopt(_Pvector);
; 47   : 		}

  0000a	5d		 pop	 ebp
  0000b	c2 08 00	 ret	 8
??0?$_Vector_const_iterator@V?$_Vector_val@UForceInfo@@V?$allocator@UForceInfo@@@std@@@std@@@std@@QAE@PAUForceInfo@@PBU_Container_base0@1@@Z ENDP ; std::_Vector_const_iterator<std::_Vector_val<ForceInfo,std::allocator<ForceInfo> > >::_Vector_const_iterator<std::_Vector_val<ForceInfo,std::allocator<ForceInfo> > >
_TEXT	ENDS
PUBLIC	?_Compat@?$_Vector_const_iterator@V?$_Vector_val@UWeaponInfo@@V?$allocator@UWeaponInfo@@@std@@@std@@@std@@QBEXABV12@@Z ; std::_Vector_const_iterator<std::_Vector_val<WeaponInfo,std::allocator<WeaponInfo> > >::_Compat
; Function compile flags: /Ogsp
;	COMDAT ?_Compat@?$_Vector_const_iterator@V?$_Vector_val@UWeaponInfo@@V?$allocator@UWeaponInfo@@@std@@@std@@@std@@QBEXABV12@@Z
_TEXT	SEGMENT
___formal$ = 8						; size = 4
?_Compat@?$_Vector_const_iterator@V?$_Vector_val@UWeaponInfo@@V?$allocator@UWeaponInfo@@@std@@@std@@@std@@QBEXABV12@@Z PROC ; std::_Vector_const_iterator<std::_Vector_val<WeaponInfo,std::allocator<WeaponInfo> > >::_Compat, COMDAT
; _this$ = ecx

; 253  : 		}

  00000	c2 04 00	 ret	 4
?_Compat@?$_Vector_const_iterator@V?$_Vector_val@UWeaponInfo@@V?$allocator@UWeaponInfo@@@std@@@std@@@std@@QBEXABV12@@Z ENDP ; std::_Vector_const_iterator<std::_Vector_val<WeaponInfo,std::allocator<WeaponInfo> > >::_Compat
_TEXT	ENDS
PUBLIC	?_Compat@?$_Vector_const_iterator@V?$_Vector_val@UForceInfo@@V?$allocator@UForceInfo@@@std@@@std@@@std@@QBEXABV12@@Z ; std::_Vector_const_iterator<std::_Vector_val<ForceInfo,std::allocator<ForceInfo> > >::_Compat
; Function compile flags: /Ogsp
;	COMDAT ?_Compat@?$_Vector_const_iterator@V?$_Vector_val@UForceInfo@@V?$allocator@UForceInfo@@@std@@@std@@@std@@QBEXABV12@@Z
_TEXT	SEGMENT
___formal$ = 8						; size = 4
?_Compat@?$_Vector_const_iterator@V?$_Vector_val@UForceInfo@@V?$allocator@UForceInfo@@@std@@@std@@@std@@QBEXABV12@@Z PROC ; std::_Vector_const_iterator<std::_Vector_val<ForceInfo,std::allocator<ForceInfo> > >::_Compat, COMDAT
; _this$ = ecx

; 253  : 		}

  00000	c2 04 00	 ret	 4
?_Compat@?$_Vector_const_iterator@V?$_Vector_val@UForceInfo@@V?$allocator@UForceInfo@@@std@@@std@@@std@@QBEXABV12@@Z ENDP ; std::_Vector_const_iterator<std::_Vector_val<ForceInfo,std::allocator<ForceInfo> > >::_Compat
_TEXT	ENDS
PUBLIC	??$_Ptr_cat@V?$_Vector_const_iterator@V?$_Vector_val@VioHashString@@V?$allocator@VioHashString@@@std@@@std@@@std@@PAVioHashString@@@std@@YA?AU_Nonscalar_ptr_iterator_tag@0@AAV?$_Vector_const_iterator@V?$_Vector_val@VioHashString@@V?$allocator@VioHashString@@@std@@@std@@@0@AAPAVioHashString@@@Z ; std::_Ptr_cat<std::_Vector_const_iterator<std::_Vector_val<ioHashString,std::allocator<ioHashString> > >,ioHashString *>
; Function compile flags: /Ogsp
; File c:\program files (x86)\microsoft visual studio 10.0\vc\include\xutility
;	COMDAT ??$_Ptr_cat@V?$_Vector_const_iterator@V?$_Vector_val@VioHashString@@V?$allocator@VioHashString@@@std@@@std@@@std@@PAVioHashString@@@std@@YA?AU_Nonscalar_ptr_iterator_tag@0@AAV?$_Vector_const_iterator@V?$_Vector_val@VioHashString@@V?$allocator@VioHashString@@@std@@@std@@@0@AAPAVioHashString@@@Z
_TEXT	SEGMENT
__Cat$ = -1						; size = 1
___formal$ = 8						; size = 4
___formal$ = 12						; size = 4
??$_Ptr_cat@V?$_Vector_const_iterator@V?$_Vector_val@VioHashString@@V?$allocator@VioHashString@@@std@@@std@@@std@@PAVioHashString@@@std@@YA?AU_Nonscalar_ptr_iterator_tag@0@AAV?$_Vector_const_iterator@V?$_Vector_val@VioHashString@@V?$allocator@VioHashString@@@std@@@std@@@0@AAPAVioHashString@@@Z PROC ; std::_Ptr_cat<std::_Vector_const_iterator<std::_Vector_val<ioHashString,std::allocator<ioHashString> > >,ioHashString *>, COMDAT

; 485  : 	{	// return pointer category from arbitrary arguments

  00000	55		 push	 ebp
  00001	8b ec		 mov	 ebp, esp
  00003	51		 push	 ecx

; 486  : 	_Nonscalar_ptr_iterator_tag _Cat;
; 487  : 	return (_Cat);

  00004	8a 45 ff	 mov	 al, BYTE PTR __Cat$[ebp]

; 488  : 	}

  00007	c9		 leave
  00008	c3		 ret	 0
??$_Ptr_cat@V?$_Vector_const_iterator@V?$_Vector_val@VioHashString@@V?$allocator@VioHashString@@@std@@@std@@@std@@PAVioHashString@@@std@@YA?AU_Nonscalar_ptr_iterator_tag@0@AAV?$_Vector_const_iterator@V?$_Vector_val@VioHashString@@V?$allocator@VioHashString@@@std@@@std@@@0@AAPAVioHashString@@@Z ENDP ; std::_Ptr_cat<std::_Vector_const_iterator<std::_Vector_val<ioHashString,std::allocator<ioHashString> > >,ioHashString *>
_TEXT	ENDS
PUBLIC	??$move@AAVioHashString@@@std@@YA$$QAVioHashString@@AAV1@@Z ; std::move<ioHashString &>
; Function compile flags: /Ogsp
; File c:\program files (x86)\microsoft visual studio 10.0\vc\include\utility
;	COMDAT ??$move@AAVioHashString@@@std@@YA$$QAVioHashString@@AAV1@@Z
_TEXT	SEGMENT
__Arg$ = 8						; size = 4
??$move@AAVioHashString@@@std@@YA$$QAVioHashString@@AAV1@@Z PROC ; std::move<ioHashString &>, COMDAT

; 86   : 	{	// forward _Arg as movable

  00000	55		 push	 ebp
  00001	8b ec		 mov	 ebp, esp

; 87   : 	return ((typename tr1::_Remove_reference<_Ty>::_Type&&)_Arg);

  00003	8b 45 08	 mov	 eax, DWORD PTR __Arg$[ebp]

; 88   : 	}

  00006	5d		 pop	 ebp
  00007	c3		 ret	 0
??$move@AAVioHashString@@@std@@YA$$QAVioHashString@@AAV1@@Z ENDP ; std::move<ioHashString &>
_TEXT	ENDS
PUBLIC	??$_Allocate@UWeaponInfo@@@std@@YAPAUWeaponInfo@@IPAU1@@Z ; std::_Allocate<WeaponInfo>
; Function compile flags: /Ogsp
; File c:\program files (x86)\microsoft visual studio 10.0\vc\include\xmemory
;	COMDAT ??$_Allocate@UWeaponInfo@@@std@@YAPAUWeaponInfo@@IPAU1@@Z
_TEXT	SEGMENT
$T556557 = -12						; size = 12
$T556561 = 8						; size = 4
__Count$ = 8						; size = 4
___formal$ = 12						; size = 4
??$_Allocate@UWeaponInfo@@@std@@YAPAUWeaponInfo@@IPAU1@@Z PROC ; std::_Allocate<WeaponInfo>, COMDAT

; 30   : 	{	// allocate storage for _Count elements of type _Ty

  00000	55		 push	 ebp
  00001	8b ec		 mov	 ebp, esp

; 31   : 	void *_Ptr = 0;
; 32   : 
; 33   : 	if (_Count <= 0)

  00003	8b 4d 08	 mov	 ecx, DWORD PTR __Count$[ebp]
  00006	83 ec 0c	 sub	 esp, 12			; 0000000cH
  00009	33 c0		 xor	 eax, eax
  0000b	85 c9		 test	 ecx, ecx

; 34   : 		_Count = 0;
; 35   : 	else if (((_SIZT)(-1) / sizeof (_Ty) < _Count)

  0000d	74 3c		 je	 SHORT $LN5@Allocate@3

; 36   : 		|| (_Ptr = ::operator new(_Count * sizeof (_Ty))) == 0)

  0000f	81 f9 66 66 66
	06		 cmp	 ecx, 107374182		; 06666666H
  00015	77 0e		 ja	 SHORT $LN1@Allocate@3
  00017	6b c9 28	 imul	 ecx, 40			; 00000028H
  0001a	51		 push	 ecx
  0001b	e8 00 00 00 00	 call	 ??2@YAPAXI@Z		; operator new
  00020	59		 pop	 ecx
  00021	85 c0		 test	 eax, eax

; 38   : 
; 39   : 	return ((_Ty _FARQ *)_Ptr);

  00023	75 26		 jne	 SHORT $LN5@Allocate@3
$LN1@Allocate@3:

; 37   : 		_THROW_NCEE(bad_alloc, 0);

  00025	83 65 08 00	 and	 DWORD PTR $T556561[ebp], 0
  00029	8d 45 08	 lea	 eax, DWORD PTR $T556561[ebp]
  0002c	50		 push	 eax
  0002d	8d 4d f4	 lea	 ecx, DWORD PTR $T556557[ebp]
  00030	ff 15 00 00 00
	00		 call	 DWORD PTR __imp_??0exception@std@@QAE@ABQBD@Z
  00036	68 00 00 00 00	 push	 OFFSET __TI2?AVbad_alloc@std@@
  0003b	8d 45 f4	 lea	 eax, DWORD PTR $T556557[ebp]
  0003e	50		 push	 eax
  0003f	c7 45 f4 00 00
	00 00		 mov	 DWORD PTR $T556557[ebp], OFFSET ??_7bad_alloc@std@@6B@
  00046	e8 00 00 00 00	 call	 __CxxThrowException@8
$LN10@Allocate@3:
$LN5@Allocate@3:

; 40   : 	}

  0004b	c9		 leave
  0004c	c3		 ret	 0
$LN9@Allocate@3:
??$_Allocate@UWeaponInfo@@@std@@YAPAUWeaponInfo@@IPAU1@@Z ENDP ; std::_Allocate<WeaponInfo>
_TEXT	ENDS
PUBLIC	??$_Allocate@UForceInfo@@@std@@YAPAUForceInfo@@IPAU1@@Z ; std::_Allocate<ForceInfo>
; Function compile flags: /Ogsp
;	COMDAT ??$_Allocate@UForceInfo@@@std@@YAPAUForceInfo@@IPAU1@@Z
_TEXT	SEGMENT
$T556566 = -12						; size = 12
$T556570 = 8						; size = 4
__Count$ = 8						; size = 4
___formal$ = 12						; size = 4
??$_Allocate@UForceInfo@@@std@@YAPAUForceInfo@@IPAU1@@Z PROC ; std::_Allocate<ForceInfo>, COMDAT

; 30   : 	{	// allocate storage for _Count elements of type _Ty

  00000	55		 push	 ebp
  00001	8b ec		 mov	 ebp, esp

; 31   : 	void *_Ptr = 0;
; 32   : 
; 33   : 	if (_Count <= 0)

  00003	8b 4d 08	 mov	 ecx, DWORD PTR __Count$[ebp]
  00006	83 ec 0c	 sub	 esp, 12			; 0000000cH
  00009	33 c0		 xor	 eax, eax
  0000b	85 c9		 test	 ecx, ecx

; 34   : 		_Count = 0;
; 35   : 	else if (((_SIZT)(-1) / sizeof (_Ty) < _Count)

  0000d	74 3c		 je	 SHORT $LN5@Allocate@4

; 36   : 		|| (_Ptr = ::operator new(_Count * sizeof (_Ty))) == 0)

  0000f	81 f9 55 55 55
	15		 cmp	 ecx, 357913941		; 15555555H
  00015	77 0e		 ja	 SHORT $LN1@Allocate@4
  00017	6b c9 0c	 imul	 ecx, 12			; 0000000cH
  0001a	51		 push	 ecx
  0001b	e8 00 00 00 00	 call	 ??2@YAPAXI@Z		; operator new
  00020	59		 pop	 ecx
  00021	85 c0		 test	 eax, eax

; 38   : 
; 39   : 	return ((_Ty _FARQ *)_Ptr);

  00023	75 26		 jne	 SHORT $LN5@Allocate@4
$LN1@Allocate@4:

; 37   : 		_THROW_NCEE(bad_alloc, 0);

  00025	83 65 08 00	 and	 DWORD PTR $T556570[ebp], 0
  00029	8d 45 08	 lea	 eax, DWORD PTR $T556570[ebp]
  0002c	50		 push	 eax
  0002d	8d 4d f4	 lea	 ecx, DWORD PTR $T556566[ebp]
  00030	ff 15 00 00 00
	00		 call	 DWORD PTR __imp_??0exception@std@@QAE@ABQBD@Z
  00036	68 00 00 00 00	 push	 OFFSET __TI2?AVbad_alloc@std@@
  0003b	8d 45 f4	 lea	 eax, DWORD PTR $T556566[ebp]
  0003e	50		 push	 eax
  0003f	c7 45 f4 00 00
	00 00		 mov	 DWORD PTR $T556566[ebp], OFFSET ??_7bad_alloc@std@@6B@
  00046	e8 00 00 00 00	 call	 __CxxThrowException@8
$LN10@Allocate@4:
$LN5@Allocate@4:

; 40   : 	}

  0004b	c9		 leave
  0004c	c3		 ret	 0
$LN9@Allocate@4:
??$_Allocate@UForceInfo@@@std@@YAPAUForceInfo@@IPAU1@@Z ENDP ; std::_Allocate<ForceInfo>
_TEXT	ENDS
PUBLIC	??D?$_Vector_const_iterator@V?$_Vector_val@VioHashString@@V?$allocator@VioHashString@@@std@@@std@@@std@@QBEABVioHashString@@XZ ; std::_Vector_const_iterator<std::_Vector_val<ioHashString,std::allocator<ioHashString> > >::operator*
; Function compile flags: /Ogsp
; File c:\program files (x86)\microsoft visual studio 10.0\vc\include\vector
;	COMDAT ??D?$_Vector_const_iterator@V?$_Vector_val@VioHashString@@V?$allocator@VioHashString@@@std@@@std@@@std@@QBEABVioHashString@@XZ
_TEXT	SEGMENT
??D?$_Vector_const_iterator@V?$_Vector_val@VioHashString@@V?$allocator@VioHashString@@@std@@@std@@@std@@QBEABVioHashString@@XZ PROC ; std::_Vector_const_iterator<std::_Vector_val<ioHashString,std::allocator<ioHashString> > >::operator*, COMDAT
; _this$ = ecx

; 64   :  #if _ITERATOR_DEBUG_LEVEL == 2
; 65   : 		if (this->_Getcont() == 0
; 66   : 			|| this->_Ptr == 0
; 67   : 			|| this->_Ptr < ((_Myvec *)this->_Getcont())->_Myfirst
; 68   : 			|| ((_Myvec *)this->_Getcont())->_Mylast <= this->_Ptr)
; 69   : 			{	// report error
; 70   : 			_DEBUG_ERROR("vector iterator not dereferencable");
; 71   : 			_SCL_SECURE_OUT_OF_RANGE;
; 72   : 			}
; 73   : 
; 74   :  #elif _ITERATOR_DEBUG_LEVEL == 1
; 75   : 		_SCL_SECURE_VALIDATE(this->_Getcont() != 0);
; 76   : 		_SCL_SECURE_VALIDATE_RANGE(
; 77   : 			this->_Ptr != 0
; 78   : 			&& ((_Myvec *)this->_Getcont())->_Myfirst <= this->_Ptr
; 79   : 			&& this->_Ptr < ((_Myvec *)this->_Getcont())->_Mylast);
; 80   :  #endif /* _ITERATOR_DEBUG_LEVEL */
; 81   : 
; 82   : 		__analysis_assume(this->_Ptr != 0);
; 83   : 
; 84   : 		return (*this->_Ptr);

  00000	8b 01		 mov	 eax, DWORD PTR [ecx]

; 85   : 		}

  00002	c3		 ret	 0
??D?$_Vector_const_iterator@V?$_Vector_val@VioHashString@@V?$allocator@VioHashString@@@std@@@std@@@std@@QBEABVioHashString@@XZ ENDP ; std::_Vector_const_iterator<std::_Vector_val<ioHashString,std::allocator<ioHashString> > >::operator*
_TEXT	ENDS
PUBLIC	??E?$_Vector_const_iterator@V?$_Vector_val@VioHashString@@V?$allocator@VioHashString@@@std@@@std@@@std@@QAEAAV01@XZ ; std::_Vector_const_iterator<std::_Vector_val<ioHashString,std::allocator<ioHashString> > >::operator++
; Function compile flags: /Ogsp
;	COMDAT ??E?$_Vector_const_iterator@V?$_Vector_val@VioHashString@@V?$allocator@VioHashString@@@std@@@std@@@std@@QAEAAV01@XZ
_TEXT	SEGMENT
??E?$_Vector_const_iterator@V?$_Vector_val@VioHashString@@V?$allocator@VioHashString@@@std@@@std@@@std@@QAEAAV01@XZ PROC ; std::_Vector_const_iterator<std::_Vector_val<ioHashString,std::allocator<ioHashString> > >::operator++, COMDAT
; _this$ = ecx

; 93   : 		{	// preincrement

  00000	8b c1		 mov	 eax, ecx

; 94   :  #if _ITERATOR_DEBUG_LEVEL == 2
; 95   : 		if (this->_Getcont() == 0
; 96   : 			|| this->_Ptr == 0
; 97   : 			|| ((_Myvec *)this->_Getcont())->_Mylast <= this->_Ptr)
; 98   : 			{	// report error
; 99   : 			_DEBUG_ERROR("vector iterator not incrementable");
; 100  : 			_SCL_SECURE_OUT_OF_RANGE;
; 101  : 			}
; 102  : 
; 103  :  #elif _ITERATOR_DEBUG_LEVEL == 1
; 104  : 		_SCL_SECURE_VALIDATE(this->_Getcont() != 0);
; 105  : 		_SCL_SECURE_VALIDATE_RANGE(
; 106  : 			this->_Ptr != 0
; 107  : 			&& this->_Ptr < ((_Myvec *)this->_Getcont())->_Mylast);
; 108  :  #endif /* _ITERATOR_DEBUG_LEVEL */
; 109  : 
; 110  : 		++this->_Ptr;

  00002	83 00 10	 add	 DWORD PTR [eax], 16	; 00000010H

; 111  : 		return (*this);
; 112  : 		}

  00005	c3		 ret	 0
??E?$_Vector_const_iterator@V?$_Vector_val@VioHashString@@V?$allocator@VioHashString@@@std@@@std@@@std@@QAEAAV01@XZ ENDP ; std::_Vector_const_iterator<std::_Vector_val<ioHashString,std::allocator<ioHashString> > >::operator++
_TEXT	ENDS
PUBLIC	??$_Destroy@UForceInfo@@@std@@YAXPAUForceInfo@@@Z ; std::_Destroy<ForceInfo>
; Function compile flags: /Ogsp
; File c:\program files (x86)\microsoft visual studio 10.0\vc\include\xmemory
;	COMDAT ??$_Destroy@UForceInfo@@@std@@YAXPAUForceInfo@@@Z
_TEXT	SEGMENT
__Ptr$ = 8						; size = 4
??$_Destroy@UForceInfo@@@std@@YAXPAUForceInfo@@@Z PROC	; std::_Destroy<ForceInfo>, COMDAT

; 63   : 	_Ptr->~_Ty();
; 64   : 	}

  00000	c3		 ret	 0
??$_Destroy@UForceInfo@@@std@@YAXPAUForceInfo@@@Z ENDP	; std::_Destroy<ForceInfo>
_TEXT	ENDS
PUBLIC	??_GioHashString@@QAEPAXI@Z			; ioHashString::`scalar deleting destructor'
; Function compile flags: /Ogsp
;	COMDAT ??_GioHashString@@QAEPAXI@Z
_TEXT	SEGMENT
___flags$ = 8						; size = 4
??_GioHashString@@QAEPAXI@Z PROC			; ioHashString::`scalar deleting destructor', COMDAT
; _this$ = ecx
  00000	55		 push	 ebp
  00001	8b ec		 mov	 ebp, esp
  00003	56		 push	 esi
  00004	8b f1		 mov	 esi, ecx
  00006	ff 15 00 00 00
	00		 call	 DWORD PTR __imp_??1ioHashString@@QAE@XZ
  0000c	f6 45 08 01	 test	 BYTE PTR ___flags$[ebp], 1
  00010	74 07		 je	 SHORT $LN1@scalar@3
  00012	56		 push	 esi
  00013	e8 00 00 00 00	 call	 ??3@YAXPAX@Z		; operator delete
  00018	59		 pop	 ecx
$LN1@scalar@3:
  00019	8b c6		 mov	 eax, esi
  0001b	5e		 pop	 esi
  0001c	5d		 pop	 ebp
  0001d	c2 04 00	 ret	 4
??_GioHashString@@QAEPAXI@Z ENDP			; ioHashString::`scalar deleting destructor'
_TEXT	ENDS
PUBLIC	??_GWeaponInfo@@QAEPAXI@Z			; WeaponInfo::`scalar deleting destructor'
; Function compile flags: /Ogsp
;	COMDAT ??_GWeaponInfo@@QAEPAXI@Z
_TEXT	SEGMENT
___flags$ = 8						; size = 4
??_GWeaponInfo@@QAEPAXI@Z PROC				; WeaponInfo::`scalar deleting destructor', COMDAT
; _this$ = ecx
  00000	55		 push	 ebp
  00001	8b ec		 mov	 ebp, esp
  00003	56		 push	 esi
  00004	8b f1		 mov	 esi, ecx
  00006	8d 4e 08	 lea	 ecx, DWORD PTR [esi+8]
  00009	ff 15 00 00 00
	00		 call	 DWORD PTR __imp_??1ioHashString@@QAE@XZ
  0000f	f6 45 08 01	 test	 BYTE PTR ___flags$[ebp], 1
  00013	74 07		 je	 SHORT $LN1@scalar@4
  00015	56		 push	 esi
  00016	e8 00 00 00 00	 call	 ??3@YAXPAX@Z		; operator delete
  0001b	59		 pop	 ecx
$LN1@scalar@4:
  0001c	8b c6		 mov	 eax, esi
  0001e	5e		 pop	 esi
  0001f	5d		 pop	 ebp
  00020	c2 04 00	 ret	 4
??_GWeaponInfo@@QAEPAXI@Z ENDP				; WeaponInfo::`scalar deleting destructor'
_TEXT	ENDS
PUBLIC	??$_Construct@VioHashString@@ABV1@@std@@YAXPAVioHashString@@ABV1@@Z ; std::_Construct<ioHashString,ioHashString const &>
;	COMDAT xdata$x
; File c:\program files (x86)\microsoft visual studio 10.0\vc\include\utility
xdata$x	SEGMENT
__unwindtable$??$_Construct@VioHashString@@ABV1@@std@@YAXPAVioHashString@@ABV1@@Z DD 0ffffffffH
	DD	FLAT:__unwindfunclet$??$_Construct@VioHashString@@ABV1@@std@@YAXPAVioHashString@@ABV1@@Z$0
__ehfuncinfo$??$_Construct@VioHashString@@ABV1@@std@@YAXPAVioHashString@@ABV1@@Z DD 019930522H
	DD	01H
	DD	FLAT:__unwindtable$??$_Construct@VioHashString@@ABV1@@std@@YAXPAVioHashString@@ABV1@@Z
	DD	2 DUP(00H)
	DD	2 DUP(00H)
	DD	00H
	DD	01H
; Function compile flags: /Ogsp
; File c:\program files (x86)\microsoft visual studio 10.0\vc\include\xmemory
xdata$x	ENDS
;	COMDAT ??$_Construct@VioHashString@@ABV1@@std@@YAXPAVioHashString@@ABV1@@Z
_TEXT	SEGMENT
$T556593 = -16						; size = 4
__$EHRec$ = -12						; size = 12
__Vptr$ = 8						; size = 4
__Ptr$ = 8						; size = 4
__Val$ = 12						; size = 4
??$_Construct@VioHashString@@ABV1@@std@@YAXPAVioHashString@@ABV1@@Z PROC ; std::_Construct<ioHashString,ioHashString const &>, COMDAT

; 46   : 	{	// construct object at _Ptr with value _Val

  00000	6a 04		 push	 4
  00002	b8 00 00 00 00	 mov	 eax, __ehhandler$??$_Construct@VioHashString@@ABV1@@std@@YAXPAVioHashString@@ABV1@@Z
  00007	e8 00 00 00 00	 call	 __EH_prolog3

; 47   : 	void _FARQ *_Vptr = _Ptr;

  0000c	8b 4d 08	 mov	 ecx, DWORD PTR __Ptr$[ebp]
  0000f	89 4d 08	 mov	 DWORD PTR __Vptr$[ebp], ecx

; 48   : 	::new (_Vptr) _Ty1(_STD forward<_Ty2>(_Val));

  00012	89 4d f0	 mov	 DWORD PTR $T556593[ebp], ecx
  00015	83 65 fc 00	 and	 DWORD PTR __$EHRec$[ebp+8], 0
  00019	85 c9		 test	 ecx, ecx
  0001b	74 09		 je	 SHORT $LN3@Construct@2
  0001d	ff 75 0c	 push	 DWORD PTR __Val$[ebp]
  00020	ff 15 00 00 00
	00		 call	 DWORD PTR __imp_??0ioHashString@@QAE@ABV0@@Z
$LN3@Construct@2:

; 49   : 	}

  00026	e8 00 00 00 00	 call	 __EH_epilog3
  0002b	c3		 ret	 0
_TEXT	ENDS
;	COMDAT text$x
text$x	SEGMENT
__unwindfunclet$??$_Construct@VioHashString@@ABV1@@std@@YAXPAVioHashString@@ABV1@@Z$0:
  00000	ff 75 08	 push	 DWORD PTR __Vptr$[ebp]
  00003	ff 75 f0	 push	 DWORD PTR $T556593[ebp]
  00006	e8 00 00 00 00	 call	 ??3@YAXPAX0@Z		; operator delete
  0000b	59		 pop	 ecx
  0000c	59		 pop	 ecx
  0000d	c3		 ret	 0
__ehhandler$??$_Construct@VioHashString@@ABV1@@std@@YAXPAVioHashString@@ABV1@@Z:
  0000e	8b 54 24 08	 mov	 edx, DWORD PTR [esp+8]
  00012	8d 42 0c	 lea	 eax, DWORD PTR [edx+12]
  00015	8b 4a ec	 mov	 ecx, DWORD PTR [edx-20]
  00018	33 c8		 xor	 ecx, eax
  0001a	e8 00 00 00 00	 call	 @__security_check_cookie@4
  0001f	b8 00 00 00 00	 mov	 eax, OFFSET __ehfuncinfo$??$_Construct@VioHashString@@ABV1@@std@@YAXPAVioHashString@@ABV1@@Z
  00024	e9 00 00 00 00	 jmp	 ___CxxFrameHandler3
text$x	ENDS
??$_Construct@VioHashString@@ABV1@@std@@YAXPAVioHashString@@ABV1@@Z ENDP ; std::_Construct<ioHashString,ioHashString const &>
PUBLIC	??0WeaponInfo@@QAE@ABU0@@Z			; WeaponInfo::WeaponInfo
; Function compile flags: /Ogsp
;	COMDAT ??0WeaponInfo@@QAE@ABU0@@Z
_TEXT	SEGMENT
___that$ = 8						; size = 4
??0WeaponInfo@@QAE@ABU0@@Z PROC				; WeaponInfo::WeaponInfo, COMDAT
; _this$ = ecx
  00000	55		 push	 ebp
  00001	8b ec		 mov	 ebp, esp
  00003	56		 push	 esi
  00004	57		 push	 edi
  00005	8b 7d 08	 mov	 edi, DWORD PTR ___that$[ebp]
  00008	8b 07		 mov	 eax, DWORD PTR [edi]
  0000a	8b f1		 mov	 esi, ecx
  0000c	89 06		 mov	 DWORD PTR [esi], eax
  0000e	8b 47 04	 mov	 eax, DWORD PTR [edi+4]
  00011	89 46 04	 mov	 DWORD PTR [esi+4], eax
  00014	8d 47 08	 lea	 eax, DWORD PTR [edi+8]
  00017	50		 push	 eax
  00018	8d 4e 08	 lea	 ecx, DWORD PTR [esi+8]
  0001b	ff 15 00 00 00
	00		 call	 DWORD PTR __imp_??0ioHashString@@QAE@ABV0@@Z
  00021	8b 47 18	 mov	 eax, DWORD PTR [edi+24]
  00024	89 46 18	 mov	 DWORD PTR [esi+24], eax
  00027	8b 47 1c	 mov	 eax, DWORD PTR [edi+28]
  0002a	89 46 1c	 mov	 DWORD PTR [esi+28], eax
  0002d	8a 47 20	 mov	 al, BYTE PTR [edi+32]
  00030	88 46 20	 mov	 BYTE PTR [esi+32], al
  00033	8b 47 24	 mov	 eax, DWORD PTR [edi+36]
  00036	89 46 24	 mov	 DWORD PTR [esi+36], eax
  00039	5f		 pop	 edi
  0003a	8b c6		 mov	 eax, esi
  0003c	5e		 pop	 esi
  0003d	5d		 pop	 ebp
  0003e	c2 04 00	 ret	 4
??0WeaponInfo@@QAE@ABU0@@Z ENDP				; WeaponInfo::WeaponInfo
_TEXT	ENDS
PUBLIC	??_R0?AVioBaseChar@@@8				; ioBaseChar `RTTI Type Descriptor'
PUBLIC	?ToBaseChar@@YAPAVioBaseChar@@PAVioGameEntity@@@Z ; ToBaseChar
;	COMDAT ??_R0?AVioBaseChar@@@8
; File d:\lost saga for developer\youtube\tutorial\source\src\lsclient\iobasechar.h
_DATA	SEGMENT
??_R0?AVioBaseChar@@@8 DD FLAT:??_7type_info@@6B@	; ioBaseChar `RTTI Type Descriptor'
	DD	00H
	DB	'.?AVioBaseChar@@', 00H
; Function compile flags: /Ogsp
_DATA	ENDS
;	COMDAT ?ToBaseChar@@YAPAVioBaseChar@@PAVioGameEntity@@@Z
_TEXT	SEGMENT
_pObj$ = 8						; size = 4
?ToBaseChar@@YAPAVioBaseChar@@PAVioGameEntity@@@Z PROC	; ToBaseChar, COMDAT

; 4326 : {

  00000	55		 push	 ebp
  00001	8b ec		 mov	 ebp, esp
  00003	56		 push	 esi

; 4327 : 	ioPlayEntity *pPlay = ToPlayEntity( pObj );

  00004	ff 75 08	 push	 DWORD PTR _pObj$[ebp]
  00007	e8 00 00 00 00	 call	 ?ToPlayEntity@@YAPAVioPlayEntity@@PAVioGameEntity@@@Z ; ToPlayEntity
  0000c	8b f0		 mov	 esi, eax
  0000e	59		 pop	 ecx

; 4328 : 	if( !pPlay || pPlay->GetSubType() != ioPlayEntity::PST_CHAR )

  0000f	85 f6		 test	 esi, esi
  00011	74 25		 je	 SHORT $LN1@ToBaseChar
  00013	8b 06		 mov	 eax, DWORD PTR [esi]
  00015	8b ce		 mov	 ecx, esi
  00017	ff 90 a4 00 00
	00		 call	 DWORD PTR [eax+164]
  0001d	85 c0		 test	 eax, eax
  0001f	75 17		 jne	 SHORT $LN1@ToBaseChar

; 4330 : 
; 4331 : 	return dynamic_cast< ioBaseChar* >( pPlay );

  00021	50		 push	 eax
  00022	68 00 00 00 00	 push	 OFFSET ??_R0?AVioBaseChar@@@8
  00027	68 00 00 00 00	 push	 OFFSET ??_R0?AVioPlayEntity@@@8
  0002c	50		 push	 eax
  0002d	56		 push	 esi
  0002e	e8 00 00 00 00	 call	 ___RTDynamicCast
  00033	83 c4 14	 add	 esp, 20			; 00000014H
  00036	eb 02		 jmp	 SHORT $LN3@ToBaseChar
$LN1@ToBaseChar:

; 4329 : 		return NULL;

  00038	33 c0		 xor	 eax, eax
$LN3@ToBaseChar:
  0003a	5e		 pop	 esi

; 4332 : }

  0003b	5d		 pop	 ebp
  0003c	c3		 ret	 0
?ToBaseChar@@YAPAVioBaseChar@@PAVioGameEntity@@@Z ENDP	; ToBaseChar
_TEXT	ENDS
PUBLIC	??_R0?AVioNpcChar@@@8				; ioNpcChar `RTTI Type Descriptor'
PUBLIC	?ToNpcChar@@YAPAVioNpcChar@@PAVioGameEntity@@@Z	; ToNpcChar
;	COMDAT ??_R0?AVioNpcChar@@@8
; File d:\lost saga for developer\youtube\tutorial\source\src\lsclient\ionpcchar.h
_DATA	SEGMENT
??_R0?AVioNpcChar@@@8 DD FLAT:??_7type_info@@6B@	; ioNpcChar `RTTI Type Descriptor'
	DD	00H
	DB	'.?AVioNpcChar@@', 00H
; Function compile flags: /Ogsp
_DATA	ENDS
;	COMDAT ?ToNpcChar@@YAPAVioNpcChar@@PAVioGameEntity@@@Z
_TEXT	SEGMENT
_pObj$ = 8						; size = 4
?ToNpcChar@@YAPAVioNpcChar@@PAVioGameEntity@@@Z PROC	; ToNpcChar, COMDAT

; 361  : {

  00000	55		 push	 ebp
  00001	8b ec		 mov	 ebp, esp
  00003	56		 push	 esi

; 362  : 	ioBaseChar *pChar = ToBaseChar( pObj );

  00004	ff 75 08	 push	 DWORD PTR _pObj$[ebp]
  00007	e8 00 00 00 00	 call	 ?ToBaseChar@@YAPAVioBaseChar@@PAVioGameEntity@@@Z ; ToBaseChar
  0000c	8b f0		 mov	 esi, eax
  0000e	59		 pop	 ecx

; 363  : 	if( !pChar || pChar->GetControlType() != CONTROL_AI )

  0000f	85 f6		 test	 esi, esi
  00011	74 28		 je	 SHORT $LN1@ToNpcChar
  00013	8b 06		 mov	 eax, DWORD PTR [esi]
  00015	8b ce		 mov	 ecx, esi
  00017	ff 90 ec 00 00
	00		 call	 DWORD PTR [eax+236]
  0001d	83 f8 02	 cmp	 eax, 2
  00020	75 19		 jne	 SHORT $LN1@ToNpcChar

; 365  : 
; 366  : 	return dynamic_cast< ioNpcChar* >(pChar);

  00022	6a 00		 push	 0
  00024	68 00 00 00 00	 push	 OFFSET ??_R0?AVioNpcChar@@@8
  00029	68 00 00 00 00	 push	 OFFSET ??_R0?AVioBaseChar@@@8
  0002e	6a 00		 push	 0
  00030	56		 push	 esi
  00031	e8 00 00 00 00	 call	 ___RTDynamicCast
  00036	83 c4 14	 add	 esp, 20			; 00000014H
  00039	eb 02		 jmp	 SHORT $LN3@ToNpcChar
$LN1@ToNpcChar:

; 364  : 		return NULL;

  0003b	33 c0		 xor	 eax, eax
$LN3@ToNpcChar:
  0003d	5e		 pop	 esi

; 367  : }

  0003e	5d		 pop	 ebp
  0003f	c3		 ret	 0
?ToNpcChar@@YAPAVioNpcChar@@PAVioGameEntity@@@Z ENDP	; ToNpcChar
_TEXT	ENDS
PUBLIC	__real@41f0000000000000
PUBLIC	__real@4f800000
PUBLIC	?SetSkillLoopState_MultiJump@ioGrapplingBlowLoopSkill@@IAEXPAVioBaseChar@@H@Z ; ioGrapplingBlowLoopSkill::SetSkillLoopState_MultiJump
EXTRN	__imp_?GetAnimationFullTime@ioEntityGroup@@QAEMH@Z:PROC
EXTRN	__imp_?SetActionAni@ioEntityGroup@@QAE_NHMMMMMM_N0@Z:PROC
EXTRN	?SetJumpPower@ioBaseChar@@QAEXM@Z:PROC		; ioBaseChar::SetJumpPower
EXTRN	__imp_?SetLoopAni@ioEntityGroup@@QAE_NHMMMM@Z:PROC
EXTRN	__imp_?GetAnimationIdx@ioEntityGroup@@QAEHABVioHashString@@@Z:PROC
EXTRN	__imp_?ClearAllLoopAni@ioEntityGroup@@QAEXM_N@Z:PROC
EXTRN	__imp_?ClearAllActionAni@ioEntityGroup@@QAEXM_N@Z:PROC
EXTRN	__ftol2:PROC
;	COMDAT __real@41f0000000000000
; File d:\lost saga for developer\youtube\tutorial\source\src\lsclient\stdafx.h
CONST	SEGMENT
__real@41f0000000000000 DQ 041f0000000000000r	; 4.29497e+009
CONST	ENDS
;	COMDAT __real@4f800000
CONST	SEGMENT
__real@4f800000 DD 04f800000r			; 4.29497e+009
; Function compile flags: /Ogsp
; File d:\lost saga for developer\youtube\tutorial\source\src\lsclient\iograpplingblowloopskill.cpp
CONST	ENDS
;	COMDAT ?SetSkillLoopState_MultiJump@ioGrapplingBlowLoopSkill@@IAEXPAVioBaseChar@@H@Z
_TEXT	SEGMENT
tv393 = -20						; size = 4
tv388 = -20						; size = 4
tv386 = -20						; size = 4
tv339 = -20						; size = 4
tv408 = -16						; size = 4
tv403 = -16						; size = 4
tv361 = -16						; size = 4
tv359 = -16						; size = 4
$T556663 = -16						; size = 4
tv368 = -12						; size = 4
tv365 = -12						; size = 4
tv363 = -12						; size = 4
tv390 = -8						; size = 4
_fAniRate$ = -8						; size = 4
_iAniID$ = -4						; size = 4
tv331 = 8						; size = 4
tv326 = 8						; size = 4
tv209 = 8						; size = 4
tv195 = 8						; size = 4
tv147 = 8						; size = 4
tv132 = 8						; size = 4
_pChar$ = 8						; size = 4
_nJumpCnt$ = 12						; size = 4
?SetSkillLoopState_MultiJump@ioGrapplingBlowLoopSkill@@IAEXPAVioBaseChar@@H@Z PROC ; ioGrapplingBlowLoopSkill::SetSkillLoopState_MultiJump, COMDAT
; _this$ = ecx

; 458  : {

  00000	55		 push	 ebp
  00001	8b ec		 mov	 ebp, esp
  00003	83 ec 14	 sub	 esp, 20			; 00000014H
  00006	57		 push	 edi
  00007	8b f9		 mov	 edi, ecx

; 459  : 	m_bReserveJumping = false;
; 460  : 	if( !pChar ) return;

  00009	8b 4d 08	 mov	 ecx, DWORD PTR _pChar$[ebp]
  0000c	c6 87 54 12 00
	00 00		 mov	 BYTE PTR [edi+4692], 0
  00013	85 c9		 test	 ecx, ecx
  00015	0f 84 12 03 00
	00		 je	 $LN1@SetSkillLo

; 461  : 
; 462  : 	if( (int)m_vGrapJumpInfo.size() <= nJumpCnt )

  0001b	8b 97 f0 10 00
	00		 mov	 edx, DWORD PTR [edi+4336]
  00021	2b 97 ec 10 00
	00		 sub	 edx, DWORD PTR [edi+4332]
  00027	56		 push	 esi
  00028	8b 75 0c	 mov	 esi, DWORD PTR _nJumpCnt$[ebp]
  0002b	c1 fa 07	 sar	 edx, 7
  0002e	3b d6		 cmp	 edx, esi
  00030	0f 8e f6 02 00
	00		 jle	 $LN49@SetSkillLo

; 463  : 		return;
; 464  : 
; 465  : 	const StGrapInfo& JumpInfo = m_vGrapJumpInfo[ nJumpCnt ];

  00036	c1 e6 07	 shl	 esi, 7
  00039	03 b7 ec 10 00
	00		 add	 esi, DWORD PTR [edi+4332]
  0003f	53		 push	 ebx

; 466  : 	/*if( m_SkillState != SS_ACTION )
; 467  : 		return;*/
; 468  : 
; 469  : 	ioEntityGroup *pGrp = pChar->GetGroup();

  00040	8b 59 04	 mov	 ebx, DWORD PTR [ecx+4]

; 470  : 	if( !pGrp ) return;

  00043	85 db		 test	 ebx, ebx
  00045	0f 84 e0 02 00
	00		 je	 $LN50@SetSkillLo

; 471  : 
; 472  : 	m_dwSkillLoopStartTime = FRAMEGETTIME();

  0004b	ff 15 00 00 00
	00		 call	 DWORD PTR __imp_?GetSingleton@ioFrameTimer@@SAAAV1@XZ
  00051	8b c8		 mov	 ecx, eax
  00053	ff 15 00 00 00
	00		 call	 DWORD PTR __imp_?GetLoopSec@ioFrameTimer@@QBEKXZ
  00059	89 87 00 11 00
	00		 mov	 DWORD PTR [edi+4352], eax

; 473  : 	m_SkillState = SS_LOOP;

  0005f	c7 87 fc 10 00
	00 03 00 00 00	 mov	 DWORD PTR [edi+4348], 3

; 474  : 
; 475  : 	pGrp->ClearAllActionAni( FLOAT100, true );

  00069	b8 64 00 00 00	 mov	 eax, 100		; 00000064H
  0006e	89 45 f0	 mov	 DWORD PTR tv408[ebp], eax
  00071	db 45 f0	 fild	 DWORD PTR tv408[ebp]
  00074	6a 01		 push	 1
  00076	85 c0		 test	 eax, eax
  00078	79 06		 jns	 SHORT $LN51@SetSkillLo
  0007a	d8 05 00 00 00
	00		 fadd	 DWORD PTR __real@4f800000
$LN51@SetSkillLo:
  00080	51		 push	 ecx
  00081	8b cb		 mov	 ecx, ebx
  00083	d9 1c 24	 fstp	 DWORD PTR [esp]
  00086	ff 15 00 00 00
	00		 call	 DWORD PTR __imp_?ClearAllActionAni@ioEntityGroup@@QAEXM_N@Z

; 476  : 	pGrp->ClearAllLoopAni( FLOAT100, true );

  0008c	b8 64 00 00 00	 mov	 eax, 100		; 00000064H
  00091	89 45 f0	 mov	 DWORD PTR tv403[ebp], eax
  00094	db 45 f0	 fild	 DWORD PTR tv403[ebp]
  00097	6a 01		 push	 1
  00099	85 c0		 test	 eax, eax
  0009b	79 06		 jns	 SHORT $LN52@SetSkillLo
  0009d	d8 05 00 00 00
	00		 fadd	 DWORD PTR __real@4f800000
$LN52@SetSkillLo:
  000a3	51		 push	 ecx
  000a4	8b cb		 mov	 ecx, ebx
  000a6	d9 1c 24	 fstp	 DWORD PTR [esp]
  000a9	ff 15 00 00 00
	00		 call	 DWORD PTR __imp_?ClearAllLoopAni@ioEntityGroup@@QAEXM_N@Z

; 477  : 
; 478  : 	float fAniRate = FLOAT1;

  000af	b8 01 00 00 00	 mov	 eax, 1

; 479  : 	/*if( m_fSkillLoopMotionRate > 0.0f )
; 480  : 		fAniRate = m_fSkillLoopMotionRate;*/
; 481  : 	fAniRate = JumpInfo.m_fSkillLoopMotionRate;

  000b4	f3 0f 10 46 10	 movss	 xmm0, DWORD PTR [esi+16]

; 482  : 
; 483  : 	int iAniID = pGrp->GetAnimationIdx( JumpInfo.m_SkillLoopMotion );

  000b9	56		 push	 esi
  000ba	8b cb		 mov	 ecx, ebx
  000bc	f3 0f 11 45 f8	 movss	 DWORD PTR _fAniRate$[ebp], xmm0
  000c1	ff 15 00 00 00
	00		 call	 DWORD PTR __imp_?GetAnimationIdx@ioEntityGroup@@QAEHABVioHashString@@@Z

; 484  : 
; 485  : 	if( m_fCharJumpPower > 0.0f )

  000c7	f3 0f 10 8f 10
	12 00 00	 movss	 xmm1, DWORD PTR [edi+4624]
  000cf	0f 57 c0	 xorps	 xmm0, xmm0
  000d2	0f 2f c8	 comiss	 xmm1, xmm0
  000d5	89 45 fc	 mov	 DWORD PTR _iAniID$[ebp], eax
  000d8	0f 86 83 00 00
	00		 jbe	 $LN5@SetSkillLo

; 486  : 	{
; 487  : 		pGrp->SetLoopAni( iAniID, FLOAT100, FLOAT1, FLOAT1/fAniRate );

  000de	b8 01 00 00 00	 mov	 eax, 1
  000e3	8b c8		 mov	 ecx, eax
  000e5	b8 01 00 00 00	 mov	 eax, 1
  000ea	8b d0		 mov	 edx, eax
  000ec	b8 64 00 00 00	 mov	 eax, 100		; 00000064H
  000f1	83 ec 10	 sub	 esp, 16			; 00000010H
  000f4	89 4d ec	 mov	 DWORD PTR tv393[ebp], ecx
  000f7	db 45 ec	 fild	 DWORD PTR tv393[ebp]
  000fa	f3 0f 11 44 24
	0c		 movss	 DWORD PTR [esp+12], xmm0
  00100	85 c9		 test	 ecx, ecx
  00102	79 06		 jns	 SHORT $LN53@SetSkillLo
  00104	d8 05 00 00 00
	00		 fadd	 DWORD PTR __real@4f800000
$LN53@SetSkillLo:
  0010a	d8 75 f8	 fdiv	 DWORD PTR _fAniRate$[ebp]
  0010d	89 55 ec	 mov	 DWORD PTR tv388[ebp], edx
  00110	d9 5d f8	 fstp	 DWORD PTR tv390[ebp]
  00113	d9 45 f8	 fld	 DWORD PTR tv390[ebp]
  00116	d9 5c 24 08	 fstp	 DWORD PTR [esp+8]
  0011a	db 45 ec	 fild	 DWORD PTR tv388[ebp]
  0011d	85 d2		 test	 edx, edx
  0011f	79 06		 jns	 SHORT $LN54@SetSkillLo
  00121	d8 05 00 00 00
	00		 fadd	 DWORD PTR __real@4f800000
$LN54@SetSkillLo:
  00127	89 45 ec	 mov	 DWORD PTR tv386[ebp], eax
  0012a	d9 5c 24 04	 fstp	 DWORD PTR [esp+4]
  0012e	db 45 ec	 fild	 DWORD PTR tv386[ebp]
  00131	85 c0		 test	 eax, eax
  00133	79 06		 jns	 SHORT $LN55@SetSkillLo
  00135	d8 05 00 00 00
	00		 fadd	 DWORD PTR __real@4f800000
$LN55@SetSkillLo:
  0013b	d9 1c 24	 fstp	 DWORD PTR [esp]
  0013e	ff 75 fc	 push	 DWORD PTR _iAniID$[ebp]
  00141	8b cb		 mov	 ecx, ebx
  00143	ff 15 00 00 00
	00		 call	 DWORD PTR __imp_?SetLoopAni@ioEntityGroup@@QAE_NHMMMM@Z

; 488  : 		pChar->SetJumpPower( JumpInfo.m_fJumpPower );

  00149	f3 0f 10 46 28	 movss	 xmm0, DWORD PTR [esi+40]
  0014e	51		 push	 ecx
  0014f	8b 4d 08	 mov	 ecx, DWORD PTR _pChar$[ebp]
  00152	f3 0f 11 04 24	 movss	 DWORD PTR [esp], xmm0
  00157	e8 00 00 00 00	 call	 ?SetJumpPower@ioBaseChar@@QAEXM@Z ; ioBaseChar::SetJumpPower

; 489  : 	}
; 490  : 	else

  0015c	e9 ce 00 00 00	 jmp	 $LN4@SetSkillLo
$LN5@SetSkillLo:

; 491  : 	{
; 492  : 		pGrp->SetActionAni( iAniID, FLOAT100, FLOAT100, FLOAT1, FLOAT1/fAniRate );

  00161	b8 01 00 00 00	 mov	 eax, 1
  00166	8b c8		 mov	 ecx, eax
  00168	b8 01 00 00 00	 mov	 eax, 1
  0016d	8b d0		 mov	 edx, eax
  0016f	b8 64 00 00 00	 mov	 eax, 100		; 00000064H
  00174	89 45 f0	 mov	 DWORD PTR $T556663[ebp], eax
  00177	b8 64 00 00 00	 mov	 eax, 100		; 00000064H
  0017c	6a 01		 push	 1
  0017e	6a 00		 push	 0
  00180	83 ec 18	 sub	 esp, 24			; 00000018H
  00183	89 4d f4	 mov	 DWORD PTR tv368[ebp], ecx
  00186	db 45 f4	 fild	 DWORD PTR tv368[ebp]
  00189	f3 0f 11 44 24
	14		 movss	 DWORD PTR [esp+20], xmm0
  0018f	f3 0f 11 44 24
	10		 movss	 DWORD PTR [esp+16], xmm0
  00195	85 c9		 test	 ecx, ecx
  00197	79 06		 jns	 SHORT $LN56@SetSkillLo
  00199	d8 05 00 00 00
	00		 fadd	 DWORD PTR __real@4f800000
$LN56@SetSkillLo:
  0019f	d8 75 f8	 fdiv	 DWORD PTR _fAniRate$[ebp]
  001a2	d9 5d f4	 fstp	 DWORD PTR tv365[ebp]
  001a5	d9 45 f4	 fld	 DWORD PTR tv365[ebp]
  001a8	d9 5c 24 0c	 fstp	 DWORD PTR [esp+12]
  001ac	89 55 f4	 mov	 DWORD PTR tv363[ebp], edx
  001af	db 45 f4	 fild	 DWORD PTR tv363[ebp]
  001b2	85 d2		 test	 edx, edx
  001b4	79 06		 jns	 SHORT $LN57@SetSkillLo
  001b6	d8 05 00 00 00
	00		 fadd	 DWORD PTR __real@4f800000
$LN57@SetSkillLo:
  001bc	8b 4d f0	 mov	 ecx, DWORD PTR $T556663[ebp]
  001bf	d9 5c 24 08	 fstp	 DWORD PTR [esp+8]
  001c3	db 45 f0	 fild	 DWORD PTR $T556663[ebp]
  001c6	85 c9		 test	 ecx, ecx
  001c8	79 06		 jns	 SHORT $LN58@SetSkillLo
  001ca	d8 05 00 00 00
	00		 fadd	 DWORD PTR __real@4f800000
$LN58@SetSkillLo:
  001d0	89 45 f0	 mov	 DWORD PTR tv359[ebp], eax
  001d3	d9 5c 24 04	 fstp	 DWORD PTR [esp+4]
  001d7	db 45 f0	 fild	 DWORD PTR tv359[ebp]
  001da	85 c0		 test	 eax, eax
  001dc	79 06		 jns	 SHORT $LN59@SetSkillLo
  001de	d8 05 00 00 00
	00		 fadd	 DWORD PTR __real@4f800000
$LN59@SetSkillLo:
  001e4	d9 1c 24	 fstp	 DWORD PTR [esp]
  001e7	ff 75 fc	 push	 DWORD PTR _iAniID$[ebp]
  001ea	8b cb		 mov	 ecx, ebx
  001ec	ff 15 00 00 00
	00		 call	 DWORD PTR __imp_?SetActionAni@ioEntityGroup@@QAE_NHMMMMMM_N0@Z

; 493  : 		m_dwSkillLoopEndTime = m_dwSkillLoopStartTime;

  001f2	8b 87 00 11 00
	00		 mov	 eax, DWORD PTR [edi+4352]

; 494  : 		m_dwSkillLoopEndTime += pGrp->GetAnimationFullTime( iAniID ) * fAniRate;

  001f8	ff 75 fc	 push	 DWORD PTR _iAniID$[ebp]
  001fb	8b cb		 mov	 ecx, ebx
  001fd	89 87 04 11 00
	00		 mov	 DWORD PTR [edi+4356], eax
  00203	ff 15 00 00 00
	00		 call	 DWORD PTR __imp_?GetAnimationFullTime@ioEntityGroup@@QAEMH@Z
  00209	d8 4d f8	 fmul	 DWORD PTR _fAniRate$[ebp]
  0020c	8b 87 04 11 00
	00		 mov	 eax, DWORD PTR [edi+4356]
  00212	db 87 04 11 00
	00		 fild	 DWORD PTR [edi+4356]
  00218	85 c0		 test	 eax, eax
  0021a	79 06		 jns	 SHORT $LN60@SetSkillLo
  0021c	dc 05 00 00 00
	00		 fadd	 QWORD PTR __real@41f0000000000000
$LN60@SetSkillLo:
  00222	de c1		 faddp	 ST(1), ST(0)
  00224	e8 00 00 00 00	 call	 __ftol2
  00229	89 87 04 11 00
	00		 mov	 DWORD PTR [edi+4356], eax
$LN4@SetSkillLo:

; 495  : 	}
; 496  : 
; 497  : 	if( nJumpCnt >= 1 && !m_GrapplingTargetName.IsEmpty() )

  0022f	83 7d 0c 01	 cmp	 DWORD PTR _nJumpCnt$[ebp], 1
  00233	0f 8c f2 00 00
	00		 jl	 $LN50@SetSkillLo
  00239	81 c7 70 11 00
	00		 add	 edi, 4464		; 00001170H
  0023f	8b cf		 mov	 ecx, edi
  00241	ff 15 00 00 00
	00		 call	 DWORD PTR __imp_?IsEmpty@ioHashString@@QBE_NXZ
  00247	84 c0		 test	 al, al
  00249	0f 85 dc 00 00
	00		 jne	 $LN50@SetSkillLo

; 498  : 	{
; 499  : 		ioBaseChar* pTarget = pChar->GetBaseChar( m_GrapplingTargetName );

  0024f	8b 4d 08	 mov	 ecx, DWORD PTR _pChar$[ebp]
  00252	57		 push	 edi
  00253	e8 00 00 00 00	 call	 ?GetBaseChar@ioBaseChar@@QAEPAV1@ABVioHashString@@@Z ; ioBaseChar::GetBaseChar

; 500  : 		if( pTarget )

  00258	85 c0		 test	 eax, eax
  0025a	0f 84 cb 00 00
	00		 je	 $LN50@SetSkillLo

; 501  : 		{
; 502  : 			ioEntityGroup *pGrpTarget = pTarget->GetGroup();

  00260	8b 78 04	 mov	 edi, DWORD PTR [eax+4]

; 503  : 			if( pGrpTarget )

  00263	85 ff		 test	 edi, edi
  00265	0f 84 c0 00 00
	00		 je	 $LN50@SetSkillLo

; 504  : 			{
; 505  : 				pGrpTarget->ClearAllActionAni( FLOAT100, true );

  0026b	b8 64 00 00 00	 mov	 eax, 100		; 00000064H
  00270	89 45 08	 mov	 DWORD PTR tv331[ebp], eax
  00273	db 45 08	 fild	 DWORD PTR tv331[ebp]
  00276	6a 01		 push	 1
  00278	85 c0		 test	 eax, eax
  0027a	79 06		 jns	 SHORT $LN61@SetSkillLo
  0027c	d8 05 00 00 00
	00		 fadd	 DWORD PTR __real@4f800000
$LN61@SetSkillLo:
  00282	51		 push	 ecx
  00283	8b cf		 mov	 ecx, edi
  00285	d9 1c 24	 fstp	 DWORD PTR [esp]
  00288	ff 15 00 00 00
	00		 call	 DWORD PTR __imp_?ClearAllActionAni@ioEntityGroup@@QAEXM_N@Z

; 506  : 				pGrpTarget->ClearAllLoopAni( FLOAT100, true );

  0028e	b8 64 00 00 00	 mov	 eax, 100		; 00000064H
  00293	89 45 08	 mov	 DWORD PTR tv326[ebp], eax
  00296	db 45 08	 fild	 DWORD PTR tv326[ebp]
  00299	6a 01		 push	 1
  0029b	85 c0		 test	 eax, eax
  0029d	79 06		 jns	 SHORT $LN62@SetSkillLo
  0029f	d8 05 00 00 00
	00		 fadd	 DWORD PTR __real@4f800000
$LN62@SetSkillLo:
  002a5	51		 push	 ecx
  002a6	8b cf		 mov	 ecx, edi
  002a8	d9 1c 24	 fstp	 DWORD PTR [esp]
  002ab	ff 15 00 00 00
	00		 call	 DWORD PTR __imp_?ClearAllLoopAni@ioEntityGroup@@QAEXM_N@Z

; 507  : 
; 508  : 				int iAniIDTarget = pGrpTarget->GetAnimationIdx( JumpInfo.m_SkillLoopMotionStun );

  002b1	8d 46 14	 lea	 eax, DWORD PTR [esi+20]
  002b4	50		 push	 eax
  002b5	8b cf		 mov	 ecx, edi
  002b7	ff 15 00 00 00
	00		 call	 DWORD PTR __imp_?GetAnimationIdx@ioEntityGroup@@QAEHABVioHashString@@@Z
  002bd	8b c8		 mov	 ecx, eax

; 509  : 				pGrpTarget->SetLoopAni( iAniIDTarget, FLOAT100, FLOAT1, FLOAT1/JumpInfo.m_fSkillLoopMotionRateStun );

  002bf	b8 01 00 00 00	 mov	 eax, 1
  002c4	8b d0		 mov	 edx, eax
  002c6	b8 01 00 00 00	 mov	 eax, 1
  002cb	8b d8		 mov	 ebx, eax
  002cd	b8 64 00 00 00	 mov	 eax, 100		; 00000064H
  002d2	0f 57 c0	 xorps	 xmm0, xmm0
  002d5	83 ec 10	 sub	 esp, 16			; 00000010H
  002d8	89 55 08	 mov	 DWORD PTR tv132[ebp], edx
  002db	db 45 08	 fild	 DWORD PTR tv132[ebp]
  002de	f3 0f 11 44 24
	0c		 movss	 DWORD PTR [esp+12], xmm0
  002e4	85 d2		 test	 edx, edx
  002e6	79 06		 jns	 SHORT $LN63@SetSkillLo
  002e8	d8 05 00 00 00
	00		 fadd	 DWORD PTR __real@4f800000
$LN63@SetSkillLo:
  002ee	d8 76 24	 fdiv	 DWORD PTR [esi+36]
  002f1	d9 5d 08	 fstp	 DWORD PTR tv209[ebp]
  002f4	d9 45 08	 fld	 DWORD PTR tv209[ebp]
  002f7	d9 5c 24 08	 fstp	 DWORD PTR [esp+8]
  002fb	89 5d 08	 mov	 DWORD PTR tv195[ebp], ebx
  002fe	db 45 08	 fild	 DWORD PTR tv195[ebp]
  00301	85 db		 test	 ebx, ebx
  00303	79 06		 jns	 SHORT $LN64@SetSkillLo
  00305	d8 05 00 00 00
	00		 fadd	 DWORD PTR __real@4f800000
$LN64@SetSkillLo:
  0030b	89 45 08	 mov	 DWORD PTR tv147[ebp], eax
  0030e	d9 5c 24 04	 fstp	 DWORD PTR [esp+4]
  00312	db 45 08	 fild	 DWORD PTR tv147[ebp]
  00315	85 c0		 test	 eax, eax
  00317	79 06		 jns	 SHORT $LN65@SetSkillLo
  00319	d8 05 00 00 00
	00		 fadd	 DWORD PTR __real@4f800000
$LN65@SetSkillLo:
  0031f	d9 1c 24	 fstp	 DWORD PTR [esp]
  00322	51		 push	 ecx
  00323	8b cf		 mov	 ecx, edi
  00325	ff 15 00 00 00
	00		 call	 DWORD PTR __imp_?SetLoopAni@ioEntityGroup@@QAE_NHMMMM@Z
$LN50@SetSkillLo:
  0032b	5b		 pop	 ebx
$LN49@SetSkillLo:
  0032c	5e		 pop	 esi
$LN1@SetSkillLo:
  0032d	5f		 pop	 edi

; 510  : 			}
; 511  : 		}
; 512  : 	}
; 513  : 
; 514  : 	
; 515  : }

  0032e	c9		 leave
  0032f	c2 08 00	 ret	 8
?SetSkillLoopState_MultiJump@ioGrapplingBlowLoopSkill@@IAEXPAVioBaseChar@@H@Z ENDP ; ioGrapplingBlowLoopSkill::SetSkillLoopState_MultiJump
_TEXT	ENDS
PUBLIC	__$ArrayPad$
PUBLIC	?SetSkillEndState@ioGrapplingBlowLoopSkill@@IAEXPAVioBaseChar@@_N@Z ; ioGrapplingBlowLoopSkill::SetSkillEndState
EXTRN	??1SP2Packet@@UAE@XZ:PROC			; SP2Packet::~SP2Packet
EXTRN	?SendToAllPlayingUser@P2PNetwork@@YAXAAVSP2Packet@@PAVioBaseChar@@@Z:PROC ; P2PNetwork::SendToAllPlayingUser
EXTRN	??6SP2Packet@@QAEAAV0@ABUD3DXQUATERNION@@@Z:PROC ; SP2Packet::operator<<
EXTRN	??6SP2Packet@@QAEAAV0@H@Z:PROC			; SP2Packet::operator<<
EXTRN	??6SP2Packet@@QAEAAV0@ABVioHashString@@@Z:PROC	; SP2Packet::operator<<
EXTRN	??0SP2Packet@@QAE@K@Z:PROC			; SP2Packet::SP2Packet
EXTRN	___security_cookie:DWORD
EXTRN	__chkstk:PROC
;	COMDAT xdata$x
; File d:\lost saga for developer\youtube\tutorial\source\src\lsclient\iobasechar.h
xdata$x	SEGMENT
__unwindtable$?SetSkillEndState@ioGrapplingBlowLoopSkill@@IAEXPAVioBaseChar@@_N@Z DD 0ffffffffH
	DD	FLAT:__unwindfunclet$?SetSkillEndState@ioGrapplingBlowLoopSkill@@IAEXPAVioBaseChar@@_N@Z$0
__ehfuncinfo$?SetSkillEndState@ioGrapplingBlowLoopSkill@@IAEXPAVioBaseChar@@_N@Z DD 019930522H
	DD	01H
	DD	FLAT:__unwindtable$?SetSkillEndState@ioGrapplingBlowLoopSkill@@IAEXPAVioBaseChar@@_N@Z
	DD	2 DUP(00H)
	DD	2 DUP(00H)
	DD	00H
	DD	01H
; Function compile flags: /Ogsp
; File d:\lost saga for developer\youtube\tutorial\source\src\lsclient\iograpplingblowloopskill.cpp
xdata$x	ENDS
;	COMDAT ?SetSkillEndState@ioGrapplingBlowLoopSkill@@IAEXPAVioBaseChar@@_N@Z
_TEXT	SEGMENT
_kPacket$551209 = -32808				; size = 32792
__$ArrayPad$ = -16					; size = 4
__$EHRec$ = -12						; size = 12
_pChar$ = 8						; size = 4
_bSendNet$ = 12						; size = 1
?SetSkillEndState@ioGrapplingBlowLoopSkill@@IAEXPAVioBaseChar@@_N@Z PROC ; ioGrapplingBlowLoopSkill::SetSkillEndState, COMDAT
; _this$ = ecx

; 563  : {

  00000	55		 push	 ebp
  00001	8b ec		 mov	 ebp, esp
  00003	6a ff		 push	 -1
  00005	68 00 00 00 00	 push	 __ehhandler$?SetSkillEndState@ioGrapplingBlowLoopSkill@@IAEXPAVioBaseChar@@_N@Z
  0000a	64 a1 00 00 00
	00		 mov	 eax, DWORD PTR fs:0
  00010	50		 push	 eax
  00011	b8 1c 80 00 00	 mov	 eax, 32796		; 0000801cH
  00016	e8 00 00 00 00	 call	 __chkstk
  0001b	a1 00 00 00 00	 mov	 eax, DWORD PTR ___security_cookie
  00020	33 c5		 xor	 eax, ebp
  00022	89 45 f0	 mov	 DWORD PTR __$ArrayPad$[ebp], eax
  00025	56		 push	 esi
  00026	57		 push	 edi
  00027	50		 push	 eax
  00028	8d 45 f4	 lea	 eax, DWORD PTR __$EHRec$[ebp]
  0002b	64 a3 00 00 00
	00		 mov	 DWORD PTR fs:0, eax
  00031	8b 75 08	 mov	 esi, DWORD PTR _pChar$[ebp]
  00034	8b f9		 mov	 edi, ecx

; 564  : 	if( !pChar ) return;

  00036	85 f6		 test	 esi, esi
  00038	0f 84 ad 00 00
	00		 je	 $LN1@SetSkillEn

; 565  : 
; 566  : 	ioEntityGroup *pGrp = pChar->GetGroup();
; 567  : 	if( !pGrp ) return;

  0003e	83 7e 04 00	 cmp	 DWORD PTR [esi+4], 0
  00042	0f 84 a3 00 00
	00		 je	 $LN1@SetSkillEn

; 568  : 
; 569  : 	DWORD dwCurTime = FRAMEGETTIME();

  00048	ff 15 00 00 00
	00		 call	 DWORD PTR __imp_?GetSingleton@ioFrameTimer@@SAAAV1@XZ
  0004e	8b c8		 mov	 ecx, eax
  00050	ff 15 00 00 00
	00		 call	 DWORD PTR __imp_?GetLoopSec@ioFrameTimer@@QBEKXZ

; 570  : 
; 571  : 	/*pGrp->ClearAllActionAni( FLOAT100, true );
; 572  : 	pGrp->ClearAllLoopAni( FLOAT100, true );
; 573  : 
; 574  : 	float fAniRate = FLOAT1;
; 575  : 	if( m_LandAttackAttribute.m_fAttackAniRate > 0.0f )
; 576  : 		fAniRate = m_LandAttackAttribute.m_fAttackAniRate;
; 577  : 
; 578  : 	int iAniID = pGrp->GetAnimationIdx( m_LandAttackAttribute.m_AttackAnimation );
; 579  : 	pGrp->SetActionAni( iAniID, FLOAT100, FLOAT100, FLOAT1, FLOAT1/fAniRate );
; 580  : 
; 581  : 	m_dwMotionStartTime = m_dwMotionEndTime = dwCurTime;
; 582  : 	m_dwMotionEndTime += pGrp->GetAnimationFullTime( iAniID ) * fAniRate;*/
; 583  : 
; 584  : 	m_SkillState = SS_END;
; 585  : 
; 586  : 	/*pChar->RefreshFireTimeListWithBase( m_dwWeaponBaseIndex,
; 587  : 		iAniID,
; 588  : 		m_LandAttackAttribute.m_vWeaponInfoList,
; 589  : 		FTT_SKILL_ATTACK,
; 590  : 		fAniRate,
; 591  : 		m_LandAttackAttribute.m_dwPreDelay );*/
; 592  : 
; 593  : 	/*m_dwFireMotionEndTime = dwCurTime;
; 594  : 	m_dwFireMotionEndTime += pGrp->GetAnimationEventTime_e( iAniID, "firemotion_e" ) * fAniRate;
; 595  : 
; 596  : 	// Key Reserve
; 597  : 	m_dwEnableReserveTime = dwCurTime;
; 598  : 	m_dwEnableReserveTime += pGrp->GetAnimationEventTime_e( iAniID, "key_reserve" );*/
; 599  : 
; 600  : 	if( bSendNet && pChar->IsNeedSendNetwork() )

  00056	80 7d 0c 00	 cmp	 BYTE PTR _bSendNet$[ebp], 0
  0005a	c7 87 fc 10 00
	00 05 00 00 00	 mov	 DWORD PTR [edi+4348], 5
  00064	0f 84 81 00 00
	00		 je	 $LN1@SetSkillEn
  0006a	8b 06		 mov	 eax, DWORD PTR [esi]
  0006c	8b ce		 mov	 ecx, esi
  0006e	ff 90 04 01 00
	00		 call	 DWORD PTR [eax+260]
  00074	84 c0		 test	 al, al
  00076	74 73		 je	 SHORT $LN1@SetSkillEn

; 601  : 	{
; 602  : 		SP2Packet kPacket( CUPK_SKILL_EXTRA_INFO );

  00078	68 39 41 00 00	 push	 16697			; 00004139H
  0007d	8d 8d d8 7f ff
	ff		 lea	 ecx, DWORD PTR _kPacket$551209[ebp]
  00083	e8 00 00 00 00	 call	 ??0SP2Packet@@QAE@K@Z	; SP2Packet::SP2Packet
  00088	83 65 fc 00	 and	 DWORD PTR __$EHRec$[ebp+8], 0

; 603  : 		kPacket << pChar->GetCharName();

  0008c	8d 86 d4 02 00
	00		 lea	 eax, DWORD PTR [esi+724]
  00092	50		 push	 eax
  00093	8d 8d d8 7f ff
	ff		 lea	 ecx, DWORD PTR _kPacket$551209[ebp]
  00099	e8 00 00 00 00	 call	 ??6SP2Packet@@QAEAAV0@ABVioHashString@@@Z ; SP2Packet::operator<<

; 604  : 		kPacket << GetName();

  0009e	83 c7 24	 add	 edi, 36			; 00000024H
  000a1	57		 push	 edi
  000a2	8d 8d d8 7f ff
	ff		 lea	 ecx, DWORD PTR _kPacket$551209[ebp]
  000a8	e8 00 00 00 00	 call	 ??6SP2Packet@@QAEAAV0@ABVioHashString@@@Z ; SP2Packet::operator<<

; 605  : 		kPacket << SS_END;

  000ad	6a 05		 push	 5
  000af	8d 8d d8 7f ff
	ff		 lea	 ecx, DWORD PTR _kPacket$551209[ebp]
  000b5	e8 00 00 00 00	 call	 ??6SP2Packet@@QAEAAV0@H@Z ; SP2Packet::operator<<

; 606  : 		kPacket << pChar->GetTargetRot();

  000ba	81 c6 a4 06 00
	00		 add	 esi, 1700		; 000006a4H
  000c0	56		 push	 esi
  000c1	8d 8d d8 7f ff
	ff		 lea	 ecx, DWORD PTR _kPacket$551209[ebp]
  000c7	e8 00 00 00 00	 call	 ??6SP2Packet@@QAEAAV0@ABUD3DXQUATERNION@@@Z ; SP2Packet::operator<<

; 607  : 		P2PNetwork::SendToAllPlayingUser( kPacket );

  000cc	8d 85 d8 7f ff
	ff		 lea	 eax, DWORD PTR _kPacket$551209[ebp]
  000d2	6a 00		 push	 0
  000d4	50		 push	 eax
  000d5	e8 00 00 00 00	 call	 ?SendToAllPlayingUser@P2PNetwork@@YAXAAVSP2Packet@@PAVioBaseChar@@@Z ; P2PNetwork::SendToAllPlayingUser

; 608  : 	}

  000da	83 4d fc ff	 or	 DWORD PTR __$EHRec$[ebp+8], -1
  000de	59		 pop	 ecx
  000df	59		 pop	 ecx
  000e0	8d 8d d8 7f ff
	ff		 lea	 ecx, DWORD PTR _kPacket$551209[ebp]
  000e6	e8 00 00 00 00	 call	 ??1SP2Packet@@UAE@XZ	; SP2Packet::~SP2Packet
$LN1@SetSkillEn:

; 609  : }

  000eb	8b 4d f4	 mov	 ecx, DWORD PTR __$EHRec$[ebp]
  000ee	64 89 0d 00 00
	00 00		 mov	 DWORD PTR fs:0, ecx
  000f5	59		 pop	 ecx
  000f6	5f		 pop	 edi
  000f7	5e		 pop	 esi
  000f8	8b 4d f0	 mov	 ecx, DWORD PTR __$ArrayPad$[ebp]
  000fb	33 cd		 xor	 ecx, ebp
  000fd	e8 00 00 00 00	 call	 @__security_check_cookie@4
  00102	c9		 leave
  00103	c2 08 00	 ret	 8
_TEXT	ENDS
;	COMDAT text$x
text$x	SEGMENT
__unwindfunclet$?SetSkillEndState@ioGrapplingBlowLoopSkill@@IAEXPAVioBaseChar@@_N@Z$0:
  00000	8d 8d d8 7f ff
	ff		 lea	 ecx, DWORD PTR _kPacket$551209[ebp]
  00006	e9 00 00 00 00	 jmp	 ??1SP2Packet@@UAE@XZ	; SP2Packet::~SP2Packet
__ehhandler$?SetSkillEndState@ioGrapplingBlowLoopSkill@@IAEXPAVioBaseChar@@_N@Z:
  0000b	8b 54 24 08	 mov	 edx, DWORD PTR [esp+8]
  0000f	8d 42 0c	 lea	 eax, DWORD PTR [edx+12]
  00012	8b 8a d8 7f ff
	ff		 mov	 ecx, DWORD PTR [edx-32808]
  00018	33 c8		 xor	 ecx, eax
  0001a	e8 00 00 00 00	 call	 @__security_check_cookie@4
  0001f	8b 4a fc	 mov	 ecx, DWORD PTR [edx-4]
  00022	33 c8		 xor	 ecx, eax
  00024	e8 00 00 00 00	 call	 @__security_check_cookie@4
  00029	b8 00 00 00 00	 mov	 eax, OFFSET __ehfuncinfo$?SetSkillEndState@ioGrapplingBlowLoopSkill@@IAEXPAVioBaseChar@@_N@Z
  0002e	e9 00 00 00 00	 jmp	 ___CxxFrameHandler3
text$x	ENDS
?SetSkillEndState@ioGrapplingBlowLoopSkill@@IAEXPAVioBaseChar@@_N@Z ENDP ; ioGrapplingBlowLoopSkill::SetSkillEndState
PUBLIC	__$ArrayPad$
PUBLIC	?ApplyAttributeToWeapon@ioGrapplingBlowLoopSkill@@UAEXPAVioWeapon@@PAVioPlayStage@@@Z ; ioGrapplingBlowLoopSkill::ApplyAttributeToWeapon
EXTRN	?SetZoneValue@ioZoneEffectWeapon@@QAEX_N0@Z:PROC ; ioZoneEffectWeapon::SetZoneValue
EXTRN	?SetCollisionDir@ioZoneEffectWeapon@@QAEXAAUD3DXVECTOR3@@@Z:PROC ; ioZoneEffectWeapon::SetCollisionDir
EXTRN	__imp_??D@YA?AUD3DXVECTOR3@@ABUD3DXQUATERNION@@ABU0@@Z:PROC
EXTRN	?GetOwner@ioWeapon@@QBEPAVioBaseChar@@XZ:PROC	; ioWeapon::GetOwner
EXTRN	?IsUseGrapplingTarget@ioWeapon@@QAE_NXZ:PROC	; ioWeapon::IsUseGrapplingTarget
EXTRN	?ApplyAttributeToWeapon@ioSkill@@UAEXPAVioWeapon@@PAVioPlayStage@@@Z:PROC ; ioSkill::ApplyAttributeToWeapon
; Function compile flags: /Ogsp
;	COMDAT ?ApplyAttributeToWeapon@ioGrapplingBlowLoopSkill@@UAEXPAVioWeapon@@PAVioPlayStage@@@Z
_TEXT	SEGMENT
tv266 = -32						; size = 4
_vDir$551228 = -28					; size = 12
$T551230 = -16						; size = 12
__$ArrayPad$ = -4					; size = 4
_pWeapon$ = 8						; size = 4
_pStage$ = 12						; size = 4
?ApplyAttributeToWeapon@ioGrapplingBlowLoopSkill@@UAEXPAVioWeapon@@PAVioPlayStage@@@Z PROC ; ioGrapplingBlowLoopSkill::ApplyAttributeToWeapon, COMDAT
; _this$ = ecx

; 612  : {

  00000	55		 push	 ebp
  00001	8b ec		 mov	 ebp, esp
  00003	83 ec 20	 sub	 esp, 32			; 00000020H
  00006	a1 00 00 00 00	 mov	 eax, DWORD PTR ___security_cookie
  0000b	33 c5		 xor	 eax, ebp
  0000d	89 45 fc	 mov	 DWORD PTR __$ArrayPad$[ebp], eax
  00010	8b 45 0c	 mov	 eax, DWORD PTR _pStage$[ebp]
  00013	53		 push	 ebx
  00014	56		 push	 esi
  00015	8b 75 08	 mov	 esi, DWORD PTR _pWeapon$[ebp]
  00018	57		 push	 edi

; 613  : 	ioSkill::ApplyAttributeToWeapon( pWeapon, pStage );

  00019	50		 push	 eax
  0001a	56		 push	 esi
  0001b	8b f9		 mov	 edi, ecx
  0001d	e8 00 00 00 00	 call	 ?ApplyAttributeToWeapon@ioSkill@@UAEXPAVioWeapon@@PAVioPlayStage@@@Z ; ioSkill::ApplyAttributeToWeapon

; 614  : 
; 615  : 	if( pWeapon && pWeapon->CheckGrapplingState() == GPT_WRESTLING && !m_GrapplingTargetName.IsEmpty() )

  00022	85 f6		 test	 esi, esi
  00024	0f 84 8a 00 00
	00		 je	 $LN20@ApplyAttri
  0002a	8b 06		 mov	 eax, DWORD PTR [esi]
  0002c	8b ce		 mov	 ecx, esi
  0002e	ff 90 ec 00 00
	00		 call	 DWORD PTR [eax+236]
  00034	83 f8 01	 cmp	 eax, 1
  00037	75 18		 jne	 SHORT $LN24@ApplyAttri
  00039	8d 9f 70 11 00
	00		 lea	 ebx, DWORD PTR [edi+4464]
  0003f	8b cb		 mov	 ecx, ebx
  00041	ff 15 00 00 00
	00		 call	 DWORD PTR __imp_?IsEmpty@ioHashString@@QBE_NXZ
  00047	84 c0		 test	 al, al
  00049	75 06		 jne	 SHORT $LN24@ApplyAttri
$LN27@ApplyAttri:

; 616  : 	{
; 617  : 		pWeapon->SetGrapplingTargetName( m_GrapplingTargetName );

  0004b	53		 push	 ebx
  0004c	e9 81 00 00 00	 jmp	 $LN26@ApplyAttri
$LN24@ApplyAttri:

; 618  : 	}
; 619  : 	else if( pWeapon && pWeapon->CheckGrapplingState() == GPT_WRESTLING_ALL && !m_GrapplingTargetName.IsEmpty() )

  00051	8b 06		 mov	 eax, DWORD PTR [esi]
  00053	8b ce		 mov	 ecx, esi
  00055	ff 90 ec 00 00
	00		 call	 DWORD PTR [eax+236]
  0005b	83 f8 03	 cmp	 eax, 3
  0005e	75 12		 jne	 SHORT $LN23@ApplyAttri
  00060	8d 9f 70 11 00
	00		 lea	 ebx, DWORD PTR [edi+4464]
  00066	8b cb		 mov	 ecx, ebx
  00068	ff 15 00 00 00
	00		 call	 DWORD PTR __imp_?IsEmpty@ioHashString@@QBE_NXZ
  0006e	84 c0		 test	 al, al

; 620  : 	{
; 621  : 		pWeapon->SetGrapplingTargetName( m_GrapplingTargetName );

  00070	74 d9		 je	 SHORT $LN27@ApplyAttri
$LN23@ApplyAttri:

; 622  : 	}
; 623  : 	else if( pWeapon && pWeapon->CheckGrapplingState() == GPT_ATTACK && !m_GrapplingTargetName.IsEmpty() )

  00072	8b 06		 mov	 eax, DWORD PTR [esi]
  00074	8b ce		 mov	 ecx, esi
  00076	ff 90 ec 00 00
	00		 call	 DWORD PTR [eax+236]
  0007c	83 f8 05	 cmp	 eax, 5
  0007f	75 12		 jne	 SHORT $LN22@ApplyAttri
  00081	8d 9f 70 11 00
	00		 lea	 ebx, DWORD PTR [edi+4464]
  00087	8b cb		 mov	 ecx, ebx
  00089	ff 15 00 00 00
	00		 call	 DWORD PTR __imp_?IsEmpty@ioHashString@@QBE_NXZ
  0008f	84 c0		 test	 al, al

; 624  : 	{
; 625  : 		pWeapon->SetGrapplingTargetName( m_GrapplingTargetName );

  00091	74 b8		 je	 SHORT $LN27@ApplyAttri
$LN22@ApplyAttri:

; 626  : 	}
; 627  : 	else if( pWeapon && pWeapon->CheckGrapplingState() == GPT_NO_CHANGE3 && !m_GrapplingTargetName.IsEmpty() )

  00093	8b 06		 mov	 eax, DWORD PTR [esi]
  00095	8b ce		 mov	 ecx, esi
  00097	ff 90 ec 00 00
	00		 call	 DWORD PTR [eax+236]
  0009d	83 f8 0f	 cmp	 eax, 15			; 0000000fH
  000a0	75 12		 jne	 SHORT $LN20@ApplyAttri
  000a2	8d 9f 70 11 00
	00		 lea	 ebx, DWORD PTR [edi+4464]
  000a8	8b cb		 mov	 ecx, ebx
  000aa	ff 15 00 00 00
	00		 call	 DWORD PTR __imp_?IsEmpty@ioHashString@@QBE_NXZ
  000b0	84 c0		 test	 al, al

; 628  : 	{
; 629  : 		pWeapon->SetGrapplingTargetName( m_GrapplingTargetName );

  000b2	74 97		 je	 SHORT $LN27@ApplyAttri
$LN20@ApplyAttri:

; 630  : 	}
; 631  : 	else if( pWeapon->IsUseGrapplingTarget() && !m_GrapplingTargetName.IsEmpty() )

  000b4	8b ce		 mov	 ecx, esi
  000b6	e8 00 00 00 00	 call	 ?IsUseGrapplingTarget@ioWeapon@@QAE_NXZ ; ioWeapon::IsUseGrapplingTarget
  000bb	84 c0		 test	 al, al
  000bd	74 1a		 je	 SHORT $LN3@ApplyAttri
  000bf	81 c7 70 11 00
	00		 add	 edi, 4464		; 00001170H
  000c5	8b cf		 mov	 ecx, edi
  000c7	ff 15 00 00 00
	00		 call	 DWORD PTR __imp_?IsEmpty@ioHashString@@QBE_NXZ
  000cd	84 c0		 test	 al, al
  000cf	75 08		 jne	 SHORT $LN3@ApplyAttri

; 632  : 	{
; 633  : 		pWeapon->SetGrapplingTargetName( m_GrapplingTargetName );

  000d1	57		 push	 edi
$LN26@ApplyAttri:
  000d2	8b 06		 mov	 eax, DWORD PTR [esi]
  000d4	8b ce		 mov	 ecx, esi
  000d6	ff 50 3c	 call	 DWORD PTR [eax+60]
$LN3@ApplyAttri:

; 634  : 	}
; 635  : 
; 636  : 	ioZoneEffectWeapon *pZone = ToZoneEffectWeapon( pWeapon );

  000d9	56		 push	 esi
  000da	e8 00 00 00 00	 call	 ?ToZoneEffectWeapon@@YAPAVioZoneEffectWeapon@@PAVioWeapon@@@Z ; ToZoneEffectWeapon
  000df	8b f0		 mov	 esi, eax
  000e1	59		 pop	 ecx

; 637  : 	if( pZone )

  000e2	85 f6		 test	 esi, esi
  000e4	74 62		 je	 SHORT $LN1@ApplyAttri

; 638  : 	{
; 639  : 		ioBaseChar *pChar = pZone->GetOwner();

  000e6	8b ce		 mov	 ecx, esi
  000e8	e8 00 00 00 00	 call	 ?GetOwner@ioWeapon@@QBEPAVioBaseChar@@XZ ; ioWeapon::GetOwner
  000ed	8b c8		 mov	 ecx, eax

; 640  : 		if( pChar )

  000ef	85 c9		 test	 ecx, ecx
  000f1	74 55		 je	 SHORT $LN1@ApplyAttri

; 641  : 		{
; 642  : 			D3DXVECTOR3 vDir = pChar->GetTargetRot() * D3DXVECTOR3( 0.0f, 0.0f, -FLOAT1 );

  000f3	b8 01 00 00 00	 mov	 eax, 1
  000f8	0f 57 c0	 xorps	 xmm0, xmm0
  000fb	89 45 e0	 mov	 DWORD PTR tv266[ebp], eax
  000fe	db 45 e0	 fild	 DWORD PTR tv266[ebp]
  00101	f3 0f 11 45 f0	 movss	 DWORD PTR $T551230[ebp], xmm0
  00106	f3 0f 11 45 f4	 movss	 DWORD PTR $T551230[ebp+4], xmm0
  0010b	85 c0		 test	 eax, eax
  0010d	79 06		 jns	 SHORT $LN25@ApplyAttri
  0010f	d8 05 00 00 00
	00		 fadd	 DWORD PTR __real@4f800000
$LN25@ApplyAttri:
  00115	8d 45 f0	 lea	 eax, DWORD PTR $T551230[ebp]
  00118	d9 e0		 fchs
  0011a	50		 push	 eax
  0011b	d9 5d f8	 fstp	 DWORD PTR $T551230[ebp+8]
  0011e	81 c1 a4 06 00
	00		 add	 ecx, 1700		; 000006a4H
  00124	51		 push	 ecx
  00125	8d 45 e4	 lea	 eax, DWORD PTR _vDir$551228[ebp]
  00128	50		 push	 eax
  00129	ff 15 00 00 00
	00		 call	 DWORD PTR __imp_??D@YA?AUD3DXVECTOR3@@ABUD3DXQUATERNION@@ABU0@@Z
  0012f	83 c4 0c	 add	 esp, 12			; 0000000cH

; 643  : 			pZone->SetCollisionDir( vDir );

  00132	8d 45 e4	 lea	 eax, DWORD PTR _vDir$551228[ebp]
  00135	50		 push	 eax
  00136	8b ce		 mov	 ecx, esi
  00138	e8 00 00 00 00	 call	 ?SetCollisionDir@ioZoneEffectWeapon@@QAEXAAUD3DXVECTOR3@@@Z ; ioZoneEffectWeapon::SetCollisionDir

; 644  : 			pZone->SetZoneValue( false, true );

  0013d	6a 01		 push	 1
  0013f	6a 00		 push	 0
  00141	8b ce		 mov	 ecx, esi
  00143	e8 00 00 00 00	 call	 ?SetZoneValue@ioZoneEffectWeapon@@QAEX_N0@Z ; ioZoneEffectWeapon::SetZoneValue
$LN1@ApplyAttri:

; 645  : 		}
; 646  : 	}
; 647  : 
; 648  : }

  00148	8b 4d fc	 mov	 ecx, DWORD PTR __$ArrayPad$[ebp]
  0014b	5f		 pop	 edi
  0014c	5e		 pop	 esi
  0014d	33 cd		 xor	 ecx, ebp
  0014f	5b		 pop	 ebx
  00150	e8 00 00 00 00	 call	 @__security_check_cookie@4
  00155	c9		 leave
  00156	c2 08 00	 ret	 8
?ApplyAttributeToWeapon@ioGrapplingBlowLoopSkill@@UAEXPAVioWeapon@@PAVioPlayStage@@@Z ENDP ; ioGrapplingBlowLoopSkill::ApplyAttributeToWeapon
_TEXT	ENDS
PUBLIC	?ClearPreLoopBuff@ioGrapplingBlowLoopSkill@@IAEXPAVioBaseChar@@@Z ; ioGrapplingBlowLoopSkill::ClearPreLoopBuff
EXTRN	?RemoveBuff@ioBaseChar@@QAE_NABVioHashString@@_N@Z:PROC ; ioBaseChar::RemoveBuff
;	COMDAT xdata$x
; File c:\program files (x86)\microsoft visual studio 10.0\vc\include\vector
xdata$x	SEGMENT
__unwindtable$?ClearPreLoopBuff@ioGrapplingBlowLoopSkill@@IAEXPAVioBaseChar@@@Z DD 0ffffffffH
	DD	FLAT:__unwindfunclet$?ClearPreLoopBuff@ioGrapplingBlowLoopSkill@@IAEXPAVioBaseChar@@@Z$0
__ehfuncinfo$?ClearPreLoopBuff@ioGrapplingBlowLoopSkill@@IAEXPAVioBaseChar@@@Z DD 019930522H
	DD	01H
	DD	FLAT:__unwindtable$?ClearPreLoopBuff@ioGrapplingBlowLoopSkill@@IAEXPAVioBaseChar@@@Z
	DD	2 DUP(00H)
	DD	2 DUP(00H)
	DD	00H
	DD	01H
; Function compile flags: /Ogsp
; File d:\lost saga for developer\youtube\tutorial\source\src\lsclient\iograpplingblowloopskill.cpp
xdata$x	ENDS
;	COMDAT ?ClearPreLoopBuff@ioGrapplingBlowLoopSkill@@IAEXPAVioBaseChar@@@Z
_TEXT	SEGMENT
_szBuffName$551388 = -28				; size = 16
__$EHRec$ = -12						; size = 12
_pChar$ = 8						; size = 4
?ClearPreLoopBuff@ioGrapplingBlowLoopSkill@@IAEXPAVioBaseChar@@@Z PROC ; ioGrapplingBlowLoopSkill::ClearPreLoopBuff, COMDAT
; _this$ = ecx

; 960  : {

  00000	6a 10		 push	 16			; 00000010H
  00002	b8 00 00 00 00	 mov	 eax, __ehhandler$?ClearPreLoopBuff@ioGrapplingBlowLoopSkill@@IAEXPAVioBaseChar@@@Z
  00007	e8 00 00 00 00	 call	 __EH_prolog3
  0000c	8b f1		 mov	 esi, ecx

; 961  : 	if( !pChar )

  0000e	33 ff		 xor	 edi, edi
  00010	39 7d 08	 cmp	 DWORD PTR _pChar$[ebp], edi
  00013	74 52		 je	 SHORT $LN1@ClearPreLo

; 962  : 		return;
; 963  : 
; 964  : 	if( m_vPreLoopBuffList.empty() )

  00015	8b 8e 38 12 00
	00		 mov	 ecx, DWORD PTR [esi+4664]
  0001b	8b 86 3c 12 00
	00		 mov	 eax, DWORD PTR [esi+4668]
  00021	3b c8		 cmp	 ecx, eax
  00023	74 42		 je	 SHORT $LN1@ClearPreLo

; 965  : 		return;
; 966  : 
; 967  : 	int iCnt = m_vPreLoopBuffList.size();

  00025	2b c1		 sub	 eax, ecx
  00027	c1 f8 04	 sar	 eax, 4

; 968  : 	for( int i=0; i < iCnt; ++i )

  0002a	3b c7		 cmp	 eax, edi
  0002c	7e 39		 jle	 SHORT $LN1@ClearPreLo

; 965  : 		return;
; 966  : 
; 967  : 	int iCnt = m_vPreLoopBuffList.size();

  0002e	8b d8		 mov	 ebx, eax
$LL3@ClearPreLo:

; 968  : 	for( int i=0; i < iCnt; ++i )

  00030	8b 86 38 12 00
	00		 mov	 eax, DWORD PTR [esi+4664]
  00036	03 c7		 add	 eax, edi

; 969  : 	{
; 970  : 		ioHashString szBuffName = m_vPreLoopBuffList[i];

  00038	50		 push	 eax
  00039	8d 4d e4	 lea	 ecx, DWORD PTR _szBuffName$551388[ebp]
  0003c	ff 15 00 00 00
	00		 call	 DWORD PTR __imp_??0ioHashString@@QAE@ABV0@@Z

; 971  : 
; 972  : 		pChar->RemoveBuff( szBuffName, false );

  00042	8b 4d 08	 mov	 ecx, DWORD PTR _pChar$[ebp]
  00045	83 65 fc 00	 and	 DWORD PTR __$EHRec$[ebp+8], 0
  00049	6a 00		 push	 0
  0004b	8d 45 e4	 lea	 eax, DWORD PTR _szBuffName$551388[ebp]
  0004e	50		 push	 eax
  0004f	e8 00 00 00 00	 call	 ?RemoveBuff@ioBaseChar@@QAE_NABVioHashString@@_N@Z ; ioBaseChar::RemoveBuff

; 973  : 	}

  00054	83 4d fc ff	 or	 DWORD PTR __$EHRec$[ebp+8], -1
  00058	8d 4d e4	 lea	 ecx, DWORD PTR _szBuffName$551388[ebp]
  0005b	ff 15 00 00 00
	00		 call	 DWORD PTR __imp_??1ioHashString@@QAE@XZ
  00061	83 c7 10	 add	 edi, 16			; 00000010H
  00064	4b		 dec	 ebx
  00065	75 c9		 jne	 SHORT $LL3@ClearPreLo
$LN1@ClearPreLo:

; 974  : }

  00067	e8 00 00 00 00	 call	 __EH_epilog3
  0006c	c2 04 00	 ret	 4
_TEXT	ENDS
;	COMDAT text$x
text$x	SEGMENT
__unwindfunclet$?ClearPreLoopBuff@ioGrapplingBlowLoopSkill@@IAEXPAVioBaseChar@@@Z$0:
  00000	8d 4d e4	 lea	 ecx, DWORD PTR _szBuffName$551388[ebp]
  00003	ff 25 00 00 00
	00		 jmp	 DWORD PTR __imp_??1ioHashString@@QAE@XZ
__ehhandler$?ClearPreLoopBuff@ioGrapplingBlowLoopSkill@@IAEXPAVioBaseChar@@@Z:
  00009	8b 54 24 08	 mov	 edx, DWORD PTR [esp+8]
  0000d	8d 42 0c	 lea	 eax, DWORD PTR [edx+12]
  00010	8b 4a e0	 mov	 ecx, DWORD PTR [edx-32]
  00013	33 c8		 xor	 ecx, eax
  00015	e8 00 00 00 00	 call	 @__security_check_cookie@4
  0001a	b8 00 00 00 00	 mov	 eax, OFFSET __ehfuncinfo$?ClearPreLoopBuff@ioGrapplingBlowLoopSkill@@IAEXPAVioBaseChar@@@Z
  0001f	e9 00 00 00 00	 jmp	 ___CxxFrameHandler3
text$x	ENDS
?ClearPreLoopBuff@ioGrapplingBlowLoopSkill@@IAEXPAVioBaseChar@@@Z ENDP ; ioGrapplingBlowLoopSkill::ClearPreLoopBuff
PUBLIC	__$ArrayPad$
PUBLIC	?CheckPreLoopDirKey@ioGrapplingBlowLoopSkill@@IAEXPAVioBaseChar@@@Z ; ioGrapplingBlowLoopSkill::CheckPreLoopDirKey
EXTRN	?SetTargetRotToDirKey@ioBaseChar@@QAEXW4DirKeyInput@ioUserKeyInput@@@Z:PROC ; ioBaseChar::SetTargetRotToDirKey
EXTRN	?IsChangeDirection@ioBaseChar@@QAE_NXZ:PROC	; ioBaseChar::IsChangeDirection
EXTRN	?CheckCurDirKey@ioBaseChar@@QAE?AW4DirKeyInput@ioUserKeyInput@@XZ:PROC ; ioBaseChar::CheckCurDirKey
;	COMDAT xdata$x
; File d:\lost saga for developer\youtube\tutorial\source\src\lsclient\iobasechar.h
xdata$x	SEGMENT
__unwindtable$?CheckPreLoopDirKey@ioGrapplingBlowLoopSkill@@IAEXPAVioBaseChar@@@Z DD 0ffffffffH
	DD	FLAT:__unwindfunclet$?CheckPreLoopDirKey@ioGrapplingBlowLoopSkill@@IAEXPAVioBaseChar@@@Z$0
__ehfuncinfo$?CheckPreLoopDirKey@ioGrapplingBlowLoopSkill@@IAEXPAVioBaseChar@@@Z DD 019930522H
	DD	01H
	DD	FLAT:__unwindtable$?CheckPreLoopDirKey@ioGrapplingBlowLoopSkill@@IAEXPAVioBaseChar@@@Z
	DD	2 DUP(00H)
	DD	2 DUP(00H)
	DD	00H
	DD	01H
; Function compile flags: /Ogsp
; File d:\lost saga for developer\youtube\tutorial\source\src\lsclient\iograpplingblowloopskill.cpp
xdata$x	ENDS
;	COMDAT ?CheckPreLoopDirKey@ioGrapplingBlowLoopSkill@@IAEXPAVioBaseChar@@@Z
_TEXT	SEGMENT
_kPacket$551398 = -32808				; size = 32792
__$ArrayPad$ = -16					; size = 4
__$EHRec$ = -12						; size = 12
_pChar$ = 8						; size = 4
?CheckPreLoopDirKey@ioGrapplingBlowLoopSkill@@IAEXPAVioBaseChar@@@Z PROC ; ioGrapplingBlowLoopSkill::CheckPreLoopDirKey, COMDAT
; _this$ = ecx

; 977  : {

  00000	55		 push	 ebp
  00001	8b ec		 mov	 ebp, esp
  00003	6a ff		 push	 -1
  00005	68 00 00 00 00	 push	 __ehhandler$?CheckPreLoopDirKey@ioGrapplingBlowLoopSkill@@IAEXPAVioBaseChar@@@Z
  0000a	64 a1 00 00 00
	00		 mov	 eax, DWORD PTR fs:0
  00010	50		 push	 eax
  00011	b8 1c 80 00 00	 mov	 eax, 32796		; 0000801cH
  00016	e8 00 00 00 00	 call	 __chkstk
  0001b	a1 00 00 00 00	 mov	 eax, DWORD PTR ___security_cookie
  00020	33 c5		 xor	 eax, ebp
  00022	89 45 f0	 mov	 DWORD PTR __$ArrayPad$[ebp], eax
  00025	53		 push	 ebx
  00026	56		 push	 esi
  00027	57		 push	 edi
  00028	50		 push	 eax
  00029	8d 45 f4	 lea	 eax, DWORD PTR __$EHRec$[ebp]
  0002c	64 a3 00 00 00
	00		 mov	 DWORD PTR fs:0, eax
  00032	8b 75 08	 mov	 esi, DWORD PTR _pChar$[ebp]
  00035	8b f9		 mov	 edi, ecx

; 978  : 	if( !pChar ) return;

  00037	85 f6		 test	 esi, esi
  00039	0f 84 b3 00 00
	00		 je	 $LN1@CheckPreLo

; 979  : 	if( !pChar->IsNeedProcess() )

  0003f	8b 06		 mov	 eax, DWORD PTR [esi]
  00041	8b ce		 mov	 ecx, esi
  00043	ff 90 00 01 00
	00		 call	 DWORD PTR [eax+256]
  00049	84 c0		 test	 al, al
  0004b	0f 84 a1 00 00
	00		 je	 $LN1@CheckPreLo

; 980  : 		return;
; 981  : 
; 982  : 	ioUserKeyInput::DirKeyInput eNewDirKey = pChar->CheckCurDirKey();

  00051	8b ce		 mov	 ecx, esi
  00053	e8 00 00 00 00	 call	 ?CheckCurDirKey@ioBaseChar@@QAE?AW4DirKeyInput@ioUserKeyInput@@XZ ; ioBaseChar::CheckCurDirKey

; 983  : 	if( pChar->IsChangeDirection() )

  00058	8b ce		 mov	 ecx, esi
  0005a	8b d8		 mov	 ebx, eax
  0005c	e8 00 00 00 00	 call	 ?IsChangeDirection@ioBaseChar@@QAE_NXZ ; ioBaseChar::IsChangeDirection
  00061	84 c0		 test	 al, al
  00063	0f 84 89 00 00
	00		 je	 $LN1@CheckPreLo

; 984  : 	{
; 985  : 		pChar->SetTargetRotToDirKey( eNewDirKey );

  00069	53		 push	 ebx
  0006a	8b ce		 mov	 ecx, esi
  0006c	e8 00 00 00 00	 call	 ?SetTargetRotToDirKey@ioBaseChar@@QAEXW4DirKeyInput@ioUserKeyInput@@@Z ; ioBaseChar::SetTargetRotToDirKey

; 986  : 
; 987  : 		if( pChar->IsNeedSendNetwork() )

  00071	8b 06		 mov	 eax, DWORD PTR [esi]
  00073	8b ce		 mov	 ecx, esi
  00075	ff 90 04 01 00
	00		 call	 DWORD PTR [eax+260]
  0007b	84 c0		 test	 al, al
  0007d	74 73		 je	 SHORT $LN1@CheckPreLo

; 988  : 		{
; 989  : 			SP2Packet kPacket( CUPK_SKILL_EXTRA_INFO );

  0007f	68 39 41 00 00	 push	 16697			; 00004139H
  00084	8d 8d d8 7f ff
	ff		 lea	 ecx, DWORD PTR _kPacket$551398[ebp]
  0008a	e8 00 00 00 00	 call	 ??0SP2Packet@@QAE@K@Z	; SP2Packet::SP2Packet
  0008f	83 65 fc 00	 and	 DWORD PTR __$EHRec$[ebp+8], 0

; 990  : 			kPacket << pChar->GetCharName();

  00093	8d 86 d4 02 00
	00		 lea	 eax, DWORD PTR [esi+724]
  00099	50		 push	 eax
  0009a	8d 8d d8 7f ff
	ff		 lea	 ecx, DWORD PTR _kPacket$551398[ebp]
  000a0	e8 00 00 00 00	 call	 ??6SP2Packet@@QAEAAV0@ABVioHashString@@@Z ; SP2Packet::operator<<

; 991  : 			kPacket << GetName();

  000a5	83 c7 24	 add	 edi, 36			; 00000024H
  000a8	57		 push	 edi
  000a9	8d 8d d8 7f ff
	ff		 lea	 ecx, DWORD PTR _kPacket$551398[ebp]
  000af	e8 00 00 00 00	 call	 ??6SP2Packet@@QAEAAV0@ABVioHashString@@@Z ; SP2Packet::operator<<

; 992  : 			kPacket << SS_PRE_LOOP;

  000b4	6a 01		 push	 1
  000b6	8d 8d d8 7f ff
	ff		 lea	 ecx, DWORD PTR _kPacket$551398[ebp]
  000bc	e8 00 00 00 00	 call	 ??6SP2Packet@@QAEAAV0@H@Z ; SP2Packet::operator<<

; 993  : 			kPacket << pChar->GetTargetRot();

  000c1	81 c6 a4 06 00
	00		 add	 esi, 1700		; 000006a4H
  000c7	56		 push	 esi
  000c8	8d 8d d8 7f ff
	ff		 lea	 ecx, DWORD PTR _kPacket$551398[ebp]
  000ce	e8 00 00 00 00	 call	 ??6SP2Packet@@QAEAAV0@ABUD3DXQUATERNION@@@Z ; SP2Packet::operator<<

; 994  : 			P2PNetwork::SendToAllPlayingUser( kPacket );

  000d3	8d 85 d8 7f ff
	ff		 lea	 eax, DWORD PTR _kPacket$551398[ebp]
  000d9	6a 00		 push	 0
  000db	50		 push	 eax
  000dc	e8 00 00 00 00	 call	 ?SendToAllPlayingUser@P2PNetwork@@YAXAAVSP2Packet@@PAVioBaseChar@@@Z ; P2PNetwork::SendToAllPlayingUser

; 995  : 		}

  000e1	83 4d fc ff	 or	 DWORD PTR __$EHRec$[ebp+8], -1
  000e5	59		 pop	 ecx
  000e6	59		 pop	 ecx
  000e7	8d 8d d8 7f ff
	ff		 lea	 ecx, DWORD PTR _kPacket$551398[ebp]
  000ed	e8 00 00 00 00	 call	 ??1SP2Packet@@UAE@XZ	; SP2Packet::~SP2Packet
$LN1@CheckPreLo:

; 996  : 	}
; 997  : }

  000f2	8b 4d f4	 mov	 ecx, DWORD PTR __$EHRec$[ebp]
  000f5	64 89 0d 00 00
	00 00		 mov	 DWORD PTR fs:0, ecx
  000fc	59		 pop	 ecx
  000fd	5f		 pop	 edi
  000fe	5e		 pop	 esi
  000ff	5b		 pop	 ebx
  00100	8b 4d f0	 mov	 ecx, DWORD PTR __$ArrayPad$[ebp]
  00103	33 cd		 xor	 ecx, ebp
  00105	e8 00 00 00 00	 call	 @__security_check_cookie@4
  0010a	c9		 leave
  0010b	c2 04 00	 ret	 4
_TEXT	ENDS
;	COMDAT text$x
text$x	SEGMENT
__unwindfunclet$?CheckPreLoopDirKey@ioGrapplingBlowLoopSkill@@IAEXPAVioBaseChar@@@Z$0:
  00000	8d 8d d8 7f ff
	ff		 lea	 ecx, DWORD PTR _kPacket$551398[ebp]
  00006	e9 00 00 00 00	 jmp	 ??1SP2Packet@@UAE@XZ	; SP2Packet::~SP2Packet
__ehhandler$?CheckPreLoopDirKey@ioGrapplingBlowLoopSkill@@IAEXPAVioBaseChar@@@Z:
  0000b	8b 54 24 08	 mov	 edx, DWORD PTR [esp+8]
  0000f	8d 42 0c	 lea	 eax, DWORD PTR [edx+12]
  00012	8b 8a d4 7f ff
	ff		 mov	 ecx, DWORD PTR [edx-32812]
  00018	33 c8		 xor	 ecx, eax
  0001a	e8 00 00 00 00	 call	 @__security_check_cookie@4
  0001f	8b 4a fc	 mov	 ecx, DWORD PTR [edx-4]
  00022	33 c8		 xor	 ecx, eax
  00024	e8 00 00 00 00	 call	 @__security_check_cookie@4
  00029	b8 00 00 00 00	 mov	 eax, OFFSET __ehfuncinfo$?CheckPreLoopDirKey@ioGrapplingBlowLoopSkill@@IAEXPAVioBaseChar@@@Z
  0002e	e9 00 00 00 00	 jmp	 ___CxxFrameHandler3
text$x	ENDS
?CheckPreLoopDirKey@ioGrapplingBlowLoopSkill@@IAEXPAVioBaseChar@@@Z ENDP ; ioGrapplingBlowLoopSkill::CheckPreLoopDirKey
PUBLIC	__$ArrayPad$
PUBLIC	?CheckKeyInput@ioGrapplingBlowLoopSkill@@IAEXPAVioBaseChar@@@Z ; ioGrapplingBlowLoopSkill::CheckKeyInput
;	COMDAT xdata$x
; File d:\lost saga for developer\youtube\tutorial\source\src\lsclient\iobasechar.h
xdata$x	SEGMENT
__unwindtable$?CheckKeyInput@ioGrapplingBlowLoopSkill@@IAEXPAVioBaseChar@@@Z DD 0ffffffffH
	DD	FLAT:__unwindfunclet$?CheckKeyInput@ioGrapplingBlowLoopSkill@@IAEXPAVioBaseChar@@@Z$0
__ehfuncinfo$?CheckKeyInput@ioGrapplingBlowLoopSkill@@IAEXPAVioBaseChar@@@Z DD 019930522H
	DD	01H
	DD	FLAT:__unwindtable$?CheckKeyInput@ioGrapplingBlowLoopSkill@@IAEXPAVioBaseChar@@@Z
	DD	2 DUP(00H)
	DD	2 DUP(00H)
	DD	00H
	DD	01H
; Function compile flags: /Ogsp
; File d:\lost saga for developer\youtube\tutorial\source\src\lsclient\iograpplingblowloopskill.cpp
xdata$x	ENDS
;	COMDAT ?CheckKeyInput@ioGrapplingBlowLoopSkill@@IAEXPAVioBaseChar@@@Z
_TEXT	SEGMENT
_kPacket$551410 = -32808				; size = 32792
__$ArrayPad$ = -16					; size = 4
__$EHRec$ = -12						; size = 12
_pOwner$ = 8						; size = 4
?CheckKeyInput@ioGrapplingBlowLoopSkill@@IAEXPAVioBaseChar@@@Z PROC ; ioGrapplingBlowLoopSkill::CheckKeyInput, COMDAT
; _this$ = ecx

; 1000 : {

  00000	55		 push	 ebp
  00001	8b ec		 mov	 ebp, esp
  00003	6a ff		 push	 -1
  00005	68 00 00 00 00	 push	 __ehhandler$?CheckKeyInput@ioGrapplingBlowLoopSkill@@IAEXPAVioBaseChar@@@Z
  0000a	64 a1 00 00 00
	00		 mov	 eax, DWORD PTR fs:0
  00010	50		 push	 eax
  00011	b8 1c 80 00 00	 mov	 eax, 32796		; 0000801cH
  00016	e8 00 00 00 00	 call	 __chkstk
  0001b	a1 00 00 00 00	 mov	 eax, DWORD PTR ___security_cookie
  00020	33 c5		 xor	 eax, ebp
  00022	89 45 f0	 mov	 DWORD PTR __$ArrayPad$[ebp], eax
  00025	56		 push	 esi
  00026	57		 push	 edi
  00027	50		 push	 eax
  00028	8d 45 f4	 lea	 eax, DWORD PTR __$EHRec$[ebp]
  0002b	64 a3 00 00 00
	00		 mov	 DWORD PTR fs:0, eax
  00031	8b 7d 08	 mov	 edi, DWORD PTR _pOwner$[ebp]
  00034	8b f1		 mov	 esi, ecx

; 1001 : 	if( !pOwner ) return;

  00036	85 ff		 test	 edi, edi
  00038	0f 84 c8 00 00
	00		 je	 $LN1@CheckKeyIn

; 1002 : 	if( !pOwner->IsNeedProcess() )

  0003e	8b 07		 mov	 eax, DWORD PTR [edi]
  00040	8b cf		 mov	 ecx, edi
  00042	ff 90 00 01 00
	00		 call	 DWORD PTR [eax+256]
  00048	84 c0		 test	 al, al
  0004a	0f 84 b6 00 00
	00		 je	 $LN1@CheckKeyIn

; 1003 : 		return;
; 1004 : 
; 1005 : 	bool bChangeDir = false;
; 1006 : 	bool bChangeUpDown = false;
; 1007 : 
; 1008 : 	// Check Dir
; 1009 : 	ioUserKeyInput::DirKeyInput eNewDirKey = pOwner->CheckCurDirKey();

  00050	8b cf		 mov	 ecx, edi
  00052	e8 00 00 00 00	 call	 ?CheckCurDirKey@ioBaseChar@@QAE?AW4DirKeyInput@ioUserKeyInput@@XZ ; ioBaseChar::CheckCurDirKey

; 1010 : 	if( eNewDirKey != m_CurDirKey )

  00057	8b 8e 48 12 00
	00		 mov	 ecx, DWORD PTR [esi+4680]
  0005d	3b c1		 cmp	 eax, ecx
  0005f	0f 84 a1 00 00
	00		 je	 $LN1@CheckKeyIn

; 1011 : 	{
; 1012 : 		bChangeDir = true;
; 1013 : 
; 1014 : 		m_PreDirKey = m_CurDirKey;

  00065	89 8e 4c 12 00
	00		 mov	 DWORD PTR [esi+4684], ecx

; 1015 : 		m_CurDirKey = eNewDirKey;
; 1016 : 	}
; 1017 : 
; 1018 : 	//SS_KEY_CHANGE
; 1019 : 	if( bChangeDir )
; 1020 : 	{
; 1021 : 		SP2Packet kPacket( CUPK_SKILL_EXTRA_INFO );

  0006b	68 39 41 00 00	 push	 16697			; 00004139H
  00070	8d 8d d8 7f ff
	ff		 lea	 ecx, DWORD PTR _kPacket$551410[ebp]
  00076	89 86 48 12 00
	00		 mov	 DWORD PTR [esi+4680], eax
  0007c	e8 00 00 00 00	 call	 ??0SP2Packet@@QAE@K@Z	; SP2Packet::SP2Packet
  00081	83 65 fc 00	 and	 DWORD PTR __$EHRec$[ebp+8], 0

; 1022 : 		kPacket << pOwner->GetCharName();

  00085	8d 87 d4 02 00
	00		 lea	 eax, DWORD PTR [edi+724]
  0008b	50		 push	 eax
  0008c	8d 8d d8 7f ff
	ff		 lea	 ecx, DWORD PTR _kPacket$551410[ebp]
  00092	e8 00 00 00 00	 call	 ??6SP2Packet@@QAEAAV0@ABVioHashString@@@Z ; SP2Packet::operator<<

; 1023 : 		kPacket << GetName();

  00097	8d 46 24	 lea	 eax, DWORD PTR [esi+36]
  0009a	50		 push	 eax
  0009b	8d 8d d8 7f ff
	ff		 lea	 ecx, DWORD PTR _kPacket$551410[ebp]
  000a1	e8 00 00 00 00	 call	 ??6SP2Packet@@QAEAAV0@ABVioHashString@@@Z ; SP2Packet::operator<<

; 1024 : 		kPacket << SS_KEY_CHANGE;

  000a6	6a 09		 push	 9
  000a8	8d 8d d8 7f ff
	ff		 lea	 ecx, DWORD PTR _kPacket$551410[ebp]
  000ae	e8 00 00 00 00	 call	 ??6SP2Packet@@QAEAAV0@H@Z ; SP2Packet::operator<<

; 1025 : 		kPacket << pOwner->GetTargetRot();

  000b3	81 c7 a4 06 00
	00		 add	 edi, 1700		; 000006a4H
  000b9	57		 push	 edi
  000ba	8d 8d d8 7f ff
	ff		 lea	 ecx, DWORD PTR _kPacket$551410[ebp]
  000c0	e8 00 00 00 00	 call	 ??6SP2Packet@@QAEAAV0@ABUD3DXQUATERNION@@@Z ; SP2Packet::operator<<

; 1026 : 		kPacket << (int)m_PreDirKey;

  000c5	ff b6 4c 12 00
	00		 push	 DWORD PTR [esi+4684]
  000cb	8d 8d d8 7f ff
	ff		 lea	 ecx, DWORD PTR _kPacket$551410[ebp]
  000d1	e8 00 00 00 00	 call	 ??6SP2Packet@@QAEAAV0@H@Z ; SP2Packet::operator<<

; 1027 : 		kPacket << (int)m_CurDirKey;

  000d6	ff b6 48 12 00
	00		 push	 DWORD PTR [esi+4680]
  000dc	8d 8d d8 7f ff
	ff		 lea	 ecx, DWORD PTR _kPacket$551410[ebp]
  000e2	e8 00 00 00 00	 call	 ??6SP2Packet@@QAEAAV0@H@Z ; SP2Packet::operator<<

; 1028 : 		P2PNetwork::SendToAllPlayingUser( kPacket );

  000e7	8d 85 d8 7f ff
	ff		 lea	 eax, DWORD PTR _kPacket$551410[ebp]
  000ed	6a 00		 push	 0
  000ef	50		 push	 eax
  000f0	e8 00 00 00 00	 call	 ?SendToAllPlayingUser@P2PNetwork@@YAXAAVSP2Packet@@PAVioBaseChar@@@Z ; P2PNetwork::SendToAllPlayingUser

; 1029 : 	}

  000f5	83 4d fc ff	 or	 DWORD PTR __$EHRec$[ebp+8], -1
  000f9	59		 pop	 ecx
  000fa	59		 pop	 ecx
  000fb	8d 8d d8 7f ff
	ff		 lea	 ecx, DWORD PTR _kPacket$551410[ebp]
  00101	e8 00 00 00 00	 call	 ??1SP2Packet@@UAE@XZ	; SP2Packet::~SP2Packet
$LN1@CheckKeyIn:

; 1030 : }

  00106	8b 4d f4	 mov	 ecx, DWORD PTR __$EHRec$[ebp]
  00109	64 89 0d 00 00
	00 00		 mov	 DWORD PTR fs:0, ecx
  00110	59		 pop	 ecx
  00111	5f		 pop	 edi
  00112	5e		 pop	 esi
  00113	8b 4d f0	 mov	 ecx, DWORD PTR __$ArrayPad$[ebp]
  00116	33 cd		 xor	 ecx, ebp
  00118	e8 00 00 00 00	 call	 @__security_check_cookie@4
  0011d	c9		 leave
  0011e	c2 04 00	 ret	 4
_TEXT	ENDS
;	COMDAT text$x
text$x	SEGMENT
__unwindfunclet$?CheckKeyInput@ioGrapplingBlowLoopSkill@@IAEXPAVioBaseChar@@@Z$0:
  00000	8d 8d d8 7f ff
	ff		 lea	 ecx, DWORD PTR _kPacket$551410[ebp]
  00006	e9 00 00 00 00	 jmp	 ??1SP2Packet@@UAE@XZ	; SP2Packet::~SP2Packet
__ehhandler$?CheckKeyInput@ioGrapplingBlowLoopSkill@@IAEXPAVioBaseChar@@@Z:
  0000b	8b 54 24 08	 mov	 edx, DWORD PTR [esp+8]
  0000f	8d 42 0c	 lea	 eax, DWORD PTR [edx+12]
  00012	8b 8a d8 7f ff
	ff		 mov	 ecx, DWORD PTR [edx-32808]
  00018	33 c8		 xor	 ecx, eax
  0001a	e8 00 00 00 00	 call	 @__security_check_cookie@4
  0001f	8b 4a fc	 mov	 ecx, DWORD PTR [edx-4]
  00022	33 c8		 xor	 ecx, eax
  00024	e8 00 00 00 00	 call	 @__security_check_cookie@4
  00029	b8 00 00 00 00	 mov	 eax, OFFSET __ehfuncinfo$?CheckKeyInput@ioGrapplingBlowLoopSkill@@IAEXPAVioBaseChar@@@Z
  0002e	e9 00 00 00 00	 jmp	 ___CxxFrameHandler3
text$x	ENDS
?CheckKeyInput@ioGrapplingBlowLoopSkill@@IAEXPAVioBaseChar@@@Z ENDP ; ioGrapplingBlowLoopSkill::CheckKeyInput
PUBLIC	__real@4040b33340000000
PUBLIC	__real@4205999a
PUBLIC	_pStage$GSCopy$
PUBLIC	__$ArrayPad$
PUBLIC	?ProcessJumpMove@ioGrapplingBlowLoopSkill@@IAEXPAVioBaseChar@@PAVioPlayStage@@@Z ; ioGrapplingBlowLoopSkill::ProcessJumpMove
EXTRN	?CheckAxisLimit@ioBaseChar@@QAE_NPAUD3DXVECTOR3@@@Z:PROC ; ioBaseChar::CheckAxisLimit
EXTRN	?ReCalculateMoveVectorByTerrain@ioPlayStage@@QAE_NPAVioBaseChar@@PAUD3DXVECTOR3@@AA_N@Z:PROC ; ioPlayStage::ReCalculateMoveVectorByTerrain
EXTRN	__imp_?VEC3_ZERO@ioMath@@2UD3DXVECTOR3@@A:BYTE
EXTRN	_D3DXVec3Normalize@8:PROC
EXTRN	__imp_?GetSecPerFrame@ioFrameTimer@@QBEMXZ:PROC
;	COMDAT __real@4040b33340000000
; File c:\program files (x86)\microsoft directx sdk (june 2010)\include\d3dx9math.inl
CONST	SEGMENT
__real@4040b33340000000 DQ 04040b33340000000r	; 33.4
CONST	ENDS
;	COMDAT __real@4205999a
CONST	SEGMENT
__real@4205999a DD 04205999ar			; 33.4
; Function compile flags: /Ogsp
; File d:\lost saga for developer\youtube\tutorial\source\src\lsclient\iograpplingblowloopskill.cpp
CONST	ENDS
;	COMDAT ?ProcessJumpMove@ioGrapplingBlowLoopSkill@@IAEXPAVioBaseChar@@PAVioPlayStage@@@Z
_TEXT	SEGMENT
_pStage$GSCopy$ = -72					; size = 4
tv623 = -68						; size = 4
$T556881 = -68						; size = 4
tv676 = -64						; size = 4
tv158 = -64						; size = 4
_fTimePerSec$ = -64					; size = 4
_bCol$551488 = -57					; size = 1
tv664 = -56						; size = 4
tv653 = -56						; size = 4
tv638 = -56						; size = 4
tv634 = -56						; size = 4
tv630 = -56						; size = 4
_fDivideTimePerSec$551479 = -56				; size = 4
_fCurTimeGap$ = -56					; size = 4
$T551470 = -52						; size = 12
_vPos$ = -40						; size = 12
_vMoveDir$ = -28					; size = 12
_vTotalMove$ = -16					; size = 12
__$ArrayPad$ = -4					; size = 4
_pOwner$ = 8						; size = 4
_pStage$ = 12						; size = 4
?ProcessJumpMove@ioGrapplingBlowLoopSkill@@IAEXPAVioBaseChar@@PAVioPlayStage@@@Z PROC ; ioGrapplingBlowLoopSkill::ProcessJumpMove, COMDAT
; _this$ = ecx

; 1092 : {

  00000	55		 push	 ebp
  00001	8b ec		 mov	 ebp, esp
  00003	83 ec 48	 sub	 esp, 72			; 00000048H
  00006	a1 00 00 00 00	 mov	 eax, DWORD PTR ___security_cookie
  0000b	33 c5		 xor	 eax, ebp
  0000d	89 45 fc	 mov	 DWORD PTR __$ArrayPad$[ebp], eax
  00010	8b 45 0c	 mov	 eax, DWORD PTR _pStage$[ebp]
  00013	53		 push	 ebx
  00014	8b 5d 08	 mov	 ebx, DWORD PTR _pOwner$[ebp]
  00017	8b d1		 mov	 edx, ecx

; 1097 : 		return;
; 1098 : 
; 1099 : 	const StGrapInfo& JumpInfo = m_vGrapJumpInfo[ max(m_nCurJumpCnt-1, 0) ];

  00019	89 45 b8	 mov	 DWORD PTR _pStage$GSCopy$[ebp], eax
  0001c	85 db		 test	 ebx, ebx
  0001e	0f 84 09 03 00
	00		 je	 $LN1@ProcessJum

; 1093 : 	if( !pOwner ) return;
; 1094 : 	if( !pStage ) return;

  00024	85 c0		 test	 eax, eax
  00026	0f 84 01 03 00
	00		 je	 $LN1@ProcessJum

; 1095 : 
; 1096 : 	if( (int)m_vGrapJumpInfo.size() <= max( m_nCurJumpCnt-1, 0 ) )

  0002c	8b 82 e8 10 00
	00		 mov	 eax, DWORD PTR [edx+4328]
  00032	48		 dec	 eax
  00033	57		 push	 edi
  00034	85 c0		 test	 eax, eax
  00036	7e 04		 jle	 SHORT $LN14@ProcessJum
  00038	8b f8		 mov	 edi, eax
  0003a	eb 02		 jmp	 SHORT $LN15@ProcessJum
$LN14@ProcessJum:
  0003c	33 ff		 xor	 edi, edi
$LN15@ProcessJum:
  0003e	8b 8a f0 10 00
	00		 mov	 ecx, DWORD PTR [edx+4336]
  00044	56		 push	 esi
  00045	8b b2 ec 10 00
	00		 mov	 esi, DWORD PTR [edx+4332]
  0004b	2b ce		 sub	 ecx, esi
  0004d	c1 f9 07	 sar	 ecx, 7
  00050	3b cf		 cmp	 ecx, edi
  00052	0f 8e d3 02 00
	00		 jle	 $LN54@ProcessJum

; 1097 : 		return;
; 1098 : 
; 1099 : 	const StGrapInfo& JumpInfo = m_vGrapJumpInfo[ max(m_nCurJumpCnt-1, 0) ];

  00058	85 c0		 test	 eax, eax
  0005a	7f 02		 jg	 SHORT $LN17@ProcessJum
  0005c	33 c0		 xor	 eax, eax
$LN17@ProcessJum:
  0005e	c1 e0 07	 shl	 eax, 7
  00061	03 f0		 add	 esi, eax

; 1100 : 
; 1101 : 	if( JumpInfo.m_dwJumpMoveSpeed == 0.0f ) return;

  00063	8b 46 2c	 mov	 eax, DWORD PTR [esi+44]
  00066	db 46 2c	 fild	 DWORD PTR [esi+44]
  00069	85 c0		 test	 eax, eax
  0006b	79 06		 jns	 SHORT $LN55@ProcessJum
  0006d	d8 05 00 00 00
	00		 fadd	 DWORD PTR __real@4f800000
$LN55@ProcessJum:
  00073	d9 ee		 fldz
  00075	d9 c9		 fxch	 ST(1)
  00077	df e9		 fucomip ST(1)
  00079	dd d8		 fstp	 ST(0)
  0007b	9f		 lahf
  0007c	f6 c4 44	 test	 ah, 68			; 00000044H
  0007f	0f 8b a6 02 00
	00		 jnp	 $LN54@ProcessJum

; 1102 : 	if( m_CurDirKey == ioUserKeyInput::DKI_NONE )

  00085	83 ba 48 12 00
	00 00		 cmp	 DWORD PTR [edx+4680], 0
  0008c	0f 84 99 02 00
	00		 je	 $LN54@ProcessJum

; 1103 : 		return;
; 1104 : 
; 1105 : 	float fTimePerSec = g_FrameTimer.GetSecPerFrame();

  00092	ff 15 00 00 00
	00		 call	 DWORD PTR __imp_?GetSingleton@ioFrameTimer@@SAAAV1@XZ
  00098	8b c8		 mov	 ecx, eax
  0009a	ff 15 00 00 00
	00		 call	 DWORD PTR __imp_?GetSecPerFrame@ioFrameTimer@@QBEMXZ
  000a0	d9 5d c0	 fstp	 DWORD PTR _fTimePerSec$[ebp]

; 1106 : 
; 1107 : 	D3DXVECTOR3 vMoveDir = pOwner->GetTargetRot() * D3DXVECTOR3( 0.0f, 0.0f, -FLOAT1 );

  000a3	b8 01 00 00 00	 mov	 eax, 1
  000a8	0f 57 c0	 xorps	 xmm0, xmm0
  000ab	89 45 c8	 mov	 DWORD PTR tv664[ebp], eax
  000ae	db 45 c8	 fild	 DWORD PTR tv664[ebp]
  000b1	f3 0f 11 45 cc	 movss	 DWORD PTR $T551470[ebp], xmm0
  000b6	f3 0f 11 45 d0	 movss	 DWORD PTR $T551470[ebp+4], xmm0
  000bb	85 c0		 test	 eax, eax
  000bd	79 06		 jns	 SHORT $LN56@ProcessJum
  000bf	d8 05 00 00 00
	00		 fadd	 DWORD PTR __real@4f800000
$LN56@ProcessJum:
  000c5	8d 45 cc	 lea	 eax, DWORD PTR $T551470[ebp]
  000c8	d9 e0		 fchs
  000ca	50		 push	 eax
  000cb	d9 5d d4	 fstp	 DWORD PTR $T551470[ebp+8]
  000ce	8d 83 a4 06 00
	00		 lea	 eax, DWORD PTR [ebx+1700]
  000d4	50		 push	 eax
  000d5	8d 45 e4	 lea	 eax, DWORD PTR _vMoveDir$[ebp]
  000d8	50		 push	 eax
  000d9	ff 15 00 00 00
	00		 call	 DWORD PTR __imp_??D@YA?AUD3DXVECTOR3@@ABUD3DXQUATERNION@@ABU0@@Z
  000df	83 c4 0c	 add	 esp, 12			; 0000000cH

; 1108 : 	D3DXVec3Normalize( &vMoveDir, &vMoveDir );

  000e2	8d 45 e4	 lea	 eax, DWORD PTR _vMoveDir$[ebp]
  000e5	50		 push	 eax
  000e6	50		 push	 eax
  000e7	e8 00 00 00 00	 call	 _D3DXVec3Normalize@8

; 1109 : 
; 1110 : 	bool bCurMove = false;
; 1111 : 	D3DXVECTOR3 vTotalMove( 0.0f, 0.0f, 0.0f );

  000ec	0f 57 e4	 xorps	 xmm4, xmm4
  000ef	32 d2		 xor	 dl, dl
  000f1	f3 0f 11 65 f0	 movss	 DWORD PTR _vTotalMove$[ebp], xmm4
  000f6	f3 0f 11 65 f4	 movss	 DWORD PTR _vTotalMove$[ebp+4], xmm4
  000fb	f3 0f 11 65 f8	 movss	 DWORD PTR _vTotalMove$[ebp+8], xmm4

; 1112 : 
; 1113 : 	float fCurTimeGap = fTimePerSec * FLOAT1000;

  00100	b8 e8 03 00 00	 mov	 eax, 1000		; 000003e8H
  00105	89 45 c8	 mov	 DWORD PTR tv653[ebp], eax
  00108	db 45 c8	 fild	 DWORD PTR tv653[ebp]
  0010b	85 c0		 test	 eax, eax
  0010d	79 06		 jns	 SHORT $LN57@ProcessJum
  0010f	d8 05 00 00 00
	00		 fadd	 DWORD PTR __real@4f800000
$LN57@ProcessJum:
  00115	d8 4d c0	 fmul	 DWORD PTR _fTimePerSec$[ebp]
  00118	d9 5d c8	 fstp	 DWORD PTR _fCurTimeGap$[ebp]

; 1114 : 	while( fCurTimeGap > 0.0f )

  0011b	d9 ee		 fldz
  0011d	d9 45 c8	 fld	 DWORD PTR _fCurTimeGap$[ebp]
  00120	df f1		 fcomip	 ST(1)
  00122	dd d8		 fstp	 ST(0)
  00124	0f 86 d8 01 00
	00		 jbe	 $LN2@ProcessJum
  0012a	f3 0f 10 2d 00
	00 00 00	 movss	 xmm5, DWORD PTR __real@4205999a
  00132	f3 0f 10 5d c8	 movss	 xmm3, DWORD PTR _fCurTimeGap$[ebp]
$LL6@ProcessJum:

; 1115 : 	{
; 1116 : 		float fDivideTimePerSec = min( fCurTimeGap, MIN_FRAME_TIME ) * FLOAT0001;

  00137	0f 2f eb	 comiss	 xmm5, xmm3
  0013a	76 07		 jbe	 SHORT $LN18@ProcessJum
  0013c	f3 0f 11 5d c0	 movss	 DWORD PTR tv158[ebp], xmm3
  00141	eb 05		 jmp	 SHORT $LN19@ProcessJum
$LN18@ProcessJum:
  00143	f3 0f 11 6d c0	 movss	 DWORD PTR tv158[ebp], xmm5
$LN19@ProcessJum:
  00148	b8 01 00 00 00	 mov	 eax, 1
  0014d	8b c8		 mov	 ecx, eax
  0014f	b8 e8 03 00 00	 mov	 eax, 1000		; 000003e8H
  00154	89 4d c8	 mov	 DWORD PTR tv638[ebp], ecx
  00157	db 45 c8	 fild	 DWORD PTR tv638[ebp]
  0015a	85 c9		 test	 ecx, ecx
  0015c	79 06		 jns	 SHORT $LN58@ProcessJum
  0015e	d8 05 00 00 00
	00		 fadd	 DWORD PTR __real@4f800000
$LN58@ProcessJum:
  00164	89 45 c8	 mov	 DWORD PTR tv634[ebp], eax
  00167	db 45 c8	 fild	 DWORD PTR tv634[ebp]
  0016a	85 c0		 test	 eax, eax
  0016c	79 06		 jns	 SHORT $LN59@ProcessJum
  0016e	d8 05 00 00 00
	00		 fadd	 DWORD PTR __real@4f800000
$LN59@ProcessJum:
  00174	de f9		 fdivp	 ST(1), ST(0)

; 1117 : 		fCurTimeGap -= MIN_FRAME_TIME;
; 1118 : 
; 1119 : 		D3DXVECTOR3 vMoveAmt = vMoveDir * JumpInfo.m_dwJumpMoveSpeed * fDivideTimePerSec;

  00176	8b 46 2c	 mov	 eax, DWORD PTR [esi+44]
  00179	0f 57 c0	 xorps	 xmm0, xmm0
  0017c	0f 5a c3	 cvtps2pd xmm0, xmm3
  0017f	f2 0f 5c 05 00
	00 00 00	 subsd	 xmm0, QWORD PTR __real@4040b33340000000
  00187	0f 57 db	 xorps	 xmm3, xmm3
  0018a	66 0f 5a d8	 cvtpd2ps xmm3, xmm0
  0018e	d9 5d c8	 fstp	 DWORD PTR tv630[ebp]
  00191	d9 45 c8	 fld	 DWORD PTR tv630[ebp]
  00194	d8 4d c0	 fmul	 DWORD PTR tv158[ebp]
  00197	d9 5d c8	 fstp	 DWORD PTR _fDivideTimePerSec$551479[ebp]
  0019a	db 46 2c	 fild	 DWORD PTR [esi+44]
  0019d	85 c0		 test	 eax, eax
  0019f	79 06		 jns	 SHORT $LN60@ProcessJum
  001a1	d8 05 00 00 00
	00		 fadd	 DWORD PTR __real@4f800000
$LN60@ProcessJum:
  001a7	f3 0f 10 45 e4	 movss	 xmm0, DWORD PTR _vMoveDir$[ebp]
  001ac	d9 5d bc	 fstp	 DWORD PTR $T556881[ebp]
  001af	f3 0f 10 4d bc	 movss	 xmm1, DWORD PTR $T556881[ebp]
  001b4	f3 0f 10 55 bc	 movss	 xmm2, DWORD PTR $T556881[ebp]
  001b9	f3 0f 10 75 bc	 movss	 xmm6, DWORD PTR $T556881[ebp]

; 1120 : 		if( vMoveAmt != ioMath::VEC3_ZERO )

  001be	8b 0d 00 00 00
	00		 mov	 ecx, DWORD PTR __imp_?VEC3_ZERO@ioMath@@2UD3DXVECTOR3@@A
  001c4	f3 0f 10 39	 movss	 xmm7, DWORD PTR [ecx]
  001c8	0f 5a c9	 cvtps2pd xmm1, xmm1
  001cb	0f 5a c0	 cvtps2pd xmm0, xmm0
  001ce	f2 0f 59 c1	 mulsd	 xmm0, xmm1
  001d2	f3 0f 10 4d e8	 movss	 xmm1, DWORD PTR _vMoveDir$[ebp+4]
  001d7	0f 5a d2	 cvtps2pd xmm2, xmm2
  001da	0f 5a f6	 cvtps2pd xmm6, xmm6
  001dd	0f 5a c9	 cvtps2pd xmm1, xmm1
  001e0	f2 0f 59 ca	 mulsd	 xmm1, xmm2
  001e4	f3 0f 10 55 ec	 movss	 xmm2, DWORD PTR _vMoveDir$[ebp+8]
  001e9	0f 5a d2	 cvtps2pd xmm2, xmm2
  001ec	f2 0f 59 d6	 mulsd	 xmm2, xmm6
  001f0	f3 0f 10 75 c8	 movss	 xmm6, DWORD PTR _fDivideTimePerSec$551479[ebp]
  001f5	0f 5a f6	 cvtps2pd xmm6, xmm6
  001f8	66 0f 5a c0	 cvtpd2ps xmm0, xmm0
  001fc	f3 0f 5a c0	 cvtss2sd xmm0, xmm0
  00200	f2 0f 59 c6	 mulsd	 xmm0, xmm6
  00204	f3 0f 10 75 c8	 movss	 xmm6, DWORD PTR _fDivideTimePerSec$551479[ebp]
  00209	0f 5a f6	 cvtps2pd xmm6, xmm6
  0020c	66 0f 5a c9	 cvtpd2ps xmm1, xmm1
  00210	f3 0f 5a c9	 cvtss2sd xmm1, xmm1
  00214	f2 0f 59 ce	 mulsd	 xmm1, xmm6
  00218	f3 0f 10 75 c8	 movss	 xmm6, DWORD PTR _fDivideTimePerSec$551479[ebp]
  0021d	66 0f 5a d2	 cvtpd2ps xmm2, xmm2
  00221	0f 5a f6	 cvtps2pd xmm6, xmm6
  00224	f3 0f 5a d2	 cvtss2sd xmm2, xmm2
  00228	f2 0f 59 d6	 mulsd	 xmm2, xmm6
  0022c	66 0f 5a c0	 cvtpd2ps xmm0, xmm0
  00230	0f 57 f6	 xorps	 xmm6, xmm6
  00233	f3 0f 5a f0	 cvtss2sd xmm6, xmm0
  00237	0f 5a ff	 cvtps2pd xmm7, xmm7
  0023a	66 0f 2e f7	 ucomisd xmm6, xmm7
  0023e	9f		 lahf
  0023f	66 0f 5a c9	 cvtpd2ps xmm1, xmm1
  00243	66 0f 5a d2	 cvtpd2ps xmm2, xmm2
  00247	f6 c4 44	 test	 ah, 68			; 00000044H
  0024a	7a 32		 jp	 SHORT $LN48@ProcessJum
  0024c	f3 0f 10 79 04	 movss	 xmm7, DWORD PTR [ecx+4]
  00251	0f 57 f6	 xorps	 xmm6, xmm6
  00254	f3 0f 5a f1	 cvtss2sd xmm6, xmm1
  00258	0f 5a ff	 cvtps2pd xmm7, xmm7
  0025b	66 0f 2e f7	 ucomisd xmm6, xmm7
  0025f	9f		 lahf
  00260	f6 c4 44	 test	 ah, 68			; 00000044H
  00263	7a 19		 jp	 SHORT $LN48@ProcessJum
  00265	f3 0f 10 79 08	 movss	 xmm7, DWORD PTR [ecx+8]
  0026a	0f 57 f6	 xorps	 xmm6, xmm6
  0026d	f3 0f 5a f2	 cvtss2sd xmm6, xmm2
  00271	0f 5a ff	 cvtps2pd xmm7, xmm7
  00274	66 0f 2e f7	 ucomisd xmm6, xmm7
  00278	9f		 lahf
  00279	f6 c4 44	 test	 ah, 68			; 00000044H
  0027c	7b 53		 jnp	 SHORT $LN4@ProcessJum
$LN48@ProcessJum:

; 1121 : 		{
; 1122 : 			vTotalMove += vMoveAmt;

  0027e	f3 0f 10 75 f0	 movss	 xmm6, DWORD PTR _vTotalMove$[ebp]
  00283	f3 0f 5a c0	 cvtss2sd xmm0, xmm0
  00287	0f 5a f6	 cvtps2pd xmm6, xmm6
  0028a	f2 0f 58 c6	 addsd	 xmm0, xmm6
  0028e	66 0f 5a c0	 cvtpd2ps xmm0, xmm0
  00292	f3 0f 11 45 f0	 movss	 DWORD PTR _vTotalMove$[ebp], xmm0
  00297	0f 57 c0	 xorps	 xmm0, xmm0
  0029a	f3 0f 5a c1	 cvtss2sd xmm0, xmm1
  0029e	f3 0f 10 4d f4	 movss	 xmm1, DWORD PTR _vTotalMove$[ebp+4]
  002a3	0f 5a c9	 cvtps2pd xmm1, xmm1
  002a6	f2 0f 58 c1	 addsd	 xmm0, xmm1
  002aa	f3 0f 10 4d f8	 movss	 xmm1, DWORD PTR _vTotalMove$[ebp+8]
  002af	66 0f 5a c0	 cvtpd2ps xmm0, xmm0
  002b3	f3 0f 11 45 f4	 movss	 DWORD PTR _vTotalMove$[ebp+4], xmm0
  002b8	0f 57 c0	 xorps	 xmm0, xmm0
  002bb	f3 0f 5a c2	 cvtss2sd xmm0, xmm2
  002bf	0f 5a c9	 cvtps2pd xmm1, xmm1
  002c2	f2 0f 58 c1	 addsd	 xmm0, xmm1
  002c6	66 0f 5a c0	 cvtpd2ps xmm0, xmm0
  002ca	f3 0f 11 45 f8	 movss	 DWORD PTR _vTotalMove$[ebp+8], xmm0

; 1123 : 			bCurMove = true;

  002cf	b2 01		 mov	 dl, 1
$LN4@ProcessJum:

; 1114 : 	while( fCurTimeGap > 0.0f )

  002d1	0f 2f dc	 comiss	 xmm3, xmm4
  002d4	0f 87 5d fe ff
	ff		 ja	 $LL6@ProcessJum

; 1124 : 		}
; 1125 : 	}
; 1126 : 
; 1127 : 	if( bCurMove )

  002da	84 d2		 test	 dl, dl
  002dc	74 24		 je	 SHORT $LN2@ProcessJum

; 1128 : 	{
; 1129 : 		bool bCol = false;
; 1130 : 		if( pStage->ReCalculateMoveVectorByTerrain( pOwner, &vTotalMove, bCol ) )

  002de	8b 4d b8	 mov	 ecx, DWORD PTR _pStage$GSCopy$[ebp]
  002e1	8d 45 c7	 lea	 eax, DWORD PTR _bCol$551488[ebp]
  002e4	50		 push	 eax
  002e5	8d 45 f0	 lea	 eax, DWORD PTR _vTotalMove$[ebp]
  002e8	50		 push	 eax
  002e9	53		 push	 ebx
  002ea	c6 45 c7 00	 mov	 BYTE PTR _bCol$551488[ebp], 0
  002ee	e8 00 00 00 00	 call	 ?ReCalculateMoveVectorByTerrain@ioPlayStage@@QAE_NPAVioBaseChar@@PAUD3DXVECTOR3@@AA_N@Z ; ioPlayStage::ReCalculateMoveVectorByTerrain
  002f3	84 c0		 test	 al, al
  002f5	74 0b		 je	 SHORT $LN2@ProcessJum

; 1131 : 		{
; 1132 : 			pOwner->Translate( vTotalMove );

  002f7	8b 03		 mov	 eax, DWORD PTR [ebx]
  002f9	8d 4d f0	 lea	 ecx, DWORD PTR _vTotalMove$[ebp]
  002fc	51		 push	 ecx
  002fd	8b cb		 mov	 ecx, ebx
  002ff	ff 50 50	 call	 DWORD PTR [eax+80]
$LN2@ProcessJum:

; 1133 : 		}
; 1134 : 	}
; 1135 : 
; 1136 : 	D3DXVECTOR3 vPos = pOwner->GetWorldPosition();

  00302	8b 03		 mov	 eax, DWORD PTR [ebx]
  00304	8b cb		 mov	 ecx, ebx
  00306	ff 50 70	 call	 DWORD PTR [eax+112]
  00309	8b f0		 mov	 esi, eax
  0030b	8d 7d d8	 lea	 edi, DWORD PTR _vPos$[ebp]
  0030e	a5		 movsd
  0030f	a5		 movsd

; 1137 : 	if( pOwner->CheckAxisLimit( &vPos ) )

  00310	8d 45 d8	 lea	 eax, DWORD PTR _vPos$[ebp]
  00313	50		 push	 eax
  00314	8b cb		 mov	 ecx, ebx
  00316	a5		 movsd
  00317	e8 00 00 00 00	 call	 ?CheckAxisLimit@ioBaseChar@@QAE_NPAUD3DXVECTOR3@@@Z ; ioBaseChar::CheckAxisLimit
  0031c	84 c0		 test	 al, al
  0031e	74 0b		 je	 SHORT $LN54@ProcessJum

; 1138 : 		pOwner->SetWorldPosition( vPos );

  00320	8b 03		 mov	 eax, DWORD PTR [ebx]
  00322	8d 4d d8	 lea	 ecx, DWORD PTR _vPos$[ebp]
  00325	51		 push	 ecx
  00326	8b cb		 mov	 ecx, ebx
  00328	ff 50 44	 call	 DWORD PTR [eax+68]
$LN54@ProcessJum:
  0032b	5e		 pop	 esi
  0032c	5f		 pop	 edi
$LN1@ProcessJum:

; 1139 : }

  0032d	8b 4d fc	 mov	 ecx, DWORD PTR __$ArrayPad$[ebp]
  00330	33 cd		 xor	 ecx, ebp
  00332	5b		 pop	 ebx
  00333	e8 00 00 00 00	 call	 @__security_check_cookie@4
  00338	c9		 leave
  00339	c2 08 00	 ret	 8
?ProcessJumpMove@ioGrapplingBlowLoopSkill@@IAEXPAVioBaseChar@@PAVioPlayStage@@@Z ENDP ; ioGrapplingBlowLoopSkill::ProcessJumpMove
_TEXT	ENDS
PUBLIC	?begin@?$vector@UStGrapInfo@ioGrapplingBlowLoopSkill@@V?$allocator@UStGrapInfo@ioGrapplingBlowLoopSkill@@@std@@@std@@QBE?AV?$_Vector_const_iterator@V?$_Vector_val@UStGrapInfo@ioGrapplingBlowLoopSkill@@V?$allocator@UStGrapInfo@ioGrapplingBlowLoopSkill@@@std@@@std@@@2@XZ ; std::vector<ioGrapplingBlowLoopSkill::StGrapInfo,std::allocator<ioGrapplingBlowLoopSkill::StGrapInfo> >::begin
; Function compile flags: /Ogsp
; File c:\program files (x86)\microsoft visual studio 10.0\vc\include\vector
;	COMDAT ?begin@?$vector@UStGrapInfo@ioGrapplingBlowLoopSkill@@V?$allocator@UStGrapInfo@ioGrapplingBlowLoopSkill@@@std@@@std@@QBE?AV?$_Vector_const_iterator@V?$_Vector_val@UStGrapInfo@ioGrapplingBlowLoopSkill@@V?$allocator@UStGrapInfo@ioGrapplingBlowLoopSkill@@@std@@@std@@@2@XZ
_TEXT	SEGMENT
___$ReturnUdt$ = 8					; size = 4
?begin@?$vector@UStGrapInfo@ioGrapplingBlowLoopSkill@@V?$allocator@UStGrapInfo@ioGrapplingBlowLoopSkill@@@std@@@std@@QBE?AV?$_Vector_const_iterator@V?$_Vector_val@UStGrapInfo@ioGrapplingBlowLoopSkill@@V?$allocator@UStGrapInfo@ioGrapplingBlowLoopSkill@@@std@@@std@@@2@XZ PROC ; std::vector<ioGrapplingBlowLoopSkill::StGrapInfo,std::allocator<ioGrapplingBlowLoopSkill::StGrapInfo> >::begin, COMDAT
; _this$ = ecx

; 786  : 		{	// return iterator for beginning of nonmutable sequence

  00000	55		 push	 ebp
  00001	8b ec		 mov	 ebp, esp

; 787  : 		return (const_iterator(this->_Myfirst, this));

  00003	8b 09		 mov	 ecx, DWORD PTR [ecx]
  00005	8b 45 08	 mov	 eax, DWORD PTR ___$ReturnUdt$[ebp]
  00008	89 08		 mov	 DWORD PTR [eax], ecx

; 788  : 		}

  0000a	5d		 pop	 ebp
  0000b	c2 04 00	 ret	 4
?begin@?$vector@UStGrapInfo@ioGrapplingBlowLoopSkill@@V?$allocator@UStGrapInfo@ioGrapplingBlowLoopSkill@@@std@@@std@@QBE?AV?$_Vector_const_iterator@V?$_Vector_val@UStGrapInfo@ioGrapplingBlowLoopSkill@@V?$allocator@UStGrapInfo@ioGrapplingBlowLoopSkill@@@std@@@std@@@2@XZ ENDP ; std::vector<ioGrapplingBlowLoopSkill::StGrapInfo,std::allocator<ioGrapplingBlowLoopSkill::StGrapInfo> >::begin
_TEXT	ENDS
PUBLIC	?end@?$vector@UStGrapInfo@ioGrapplingBlowLoopSkill@@V?$allocator@UStGrapInfo@ioGrapplingBlowLoopSkill@@@std@@@std@@QBE?AV?$_Vector_const_iterator@V?$_Vector_val@UStGrapInfo@ioGrapplingBlowLoopSkill@@V?$allocator@UStGrapInfo@ioGrapplingBlowLoopSkill@@@std@@@std@@@2@XZ ; std::vector<ioGrapplingBlowLoopSkill::StGrapInfo,std::allocator<ioGrapplingBlowLoopSkill::StGrapInfo> >::end
; Function compile flags: /Ogsp
;	COMDAT ?end@?$vector@UStGrapInfo@ioGrapplingBlowLoopSkill@@V?$allocator@UStGrapInfo@ioGrapplingBlowLoopSkill@@@std@@@std@@QBE?AV?$_Vector_const_iterator@V?$_Vector_val@UStGrapInfo@ioGrapplingBlowLoopSkill@@V?$allocator@UStGrapInfo@ioGrapplingBlowLoopSkill@@@std@@@std@@@2@XZ
_TEXT	SEGMENT
___$ReturnUdt$ = 8					; size = 4
?end@?$vector@UStGrapInfo@ioGrapplingBlowLoopSkill@@V?$allocator@UStGrapInfo@ioGrapplingBlowLoopSkill@@@std@@@std@@QBE?AV?$_Vector_const_iterator@V?$_Vector_val@UStGrapInfo@ioGrapplingBlowLoopSkill@@V?$allocator@UStGrapInfo@ioGrapplingBlowLoopSkill@@@std@@@std@@@2@XZ PROC ; std::vector<ioGrapplingBlowLoopSkill::StGrapInfo,std::allocator<ioGrapplingBlowLoopSkill::StGrapInfo> >::end, COMDAT
; _this$ = ecx

; 796  : 		{	// return iterator for end of nonmutable sequence

  00000	55		 push	 ebp
  00001	8b ec		 mov	 ebp, esp

; 797  : 		return (const_iterator(this->_Mylast, this));

  00003	8b 49 04	 mov	 ecx, DWORD PTR [ecx+4]
  00006	8b 45 08	 mov	 eax, DWORD PTR ___$ReturnUdt$[ebp]
  00009	89 08		 mov	 DWORD PTR [eax], ecx

; 798  : 		}

  0000b	5d		 pop	 ebp
  0000c	c2 04 00	 ret	 4
?end@?$vector@UStGrapInfo@ioGrapplingBlowLoopSkill@@V?$allocator@UStGrapInfo@ioGrapplingBlowLoopSkill@@@std@@@std@@QBE?AV?$_Vector_const_iterator@V?$_Vector_val@UStGrapInfo@ioGrapplingBlowLoopSkill@@V?$allocator@UStGrapInfo@ioGrapplingBlowLoopSkill@@@std@@@std@@@2@XZ ENDP ; std::vector<ioGrapplingBlowLoopSkill::StGrapInfo,std::allocator<ioGrapplingBlowLoopSkill::StGrapInfo> >::end
_TEXT	ENDS
PUBLIC	??0?$_Vector_val@UStGrapInfo@ioGrapplingBlowLoopSkill@@V?$allocator@UStGrapInfo@ioGrapplingBlowLoopSkill@@@std@@@std@@QAE@V?$allocator@UStGrapInfo@ioGrapplingBlowLoopSkill@@@1@@Z ; std::_Vector_val<ioGrapplingBlowLoopSkill::StGrapInfo,std::allocator<ioGrapplingBlowLoopSkill::StGrapInfo> >::_Vector_val<ioGrapplingBlowLoopSkill::StGrapInfo,std::allocator<ioGrapplingBlowLoopSkill::StGrapInfo> >
; Function compile flags: /Ogsp
;	COMDAT ??0?$_Vector_val@UStGrapInfo@ioGrapplingBlowLoopSkill@@V?$allocator@UStGrapInfo@ioGrapplingBlowLoopSkill@@@std@@@std@@QAE@V?$allocator@UStGrapInfo@ioGrapplingBlowLoopSkill@@@1@@Z
_TEXT	SEGMENT
__Al$ = 8						; size = 1
??0?$_Vector_val@UStGrapInfo@ioGrapplingBlowLoopSkill@@V?$allocator@UStGrapInfo@ioGrapplingBlowLoopSkill@@@std@@@std@@QAE@V?$allocator@UStGrapInfo@ioGrapplingBlowLoopSkill@@@1@@Z PROC ; std::_Vector_val<ioGrapplingBlowLoopSkill::StGrapInfo,std::allocator<ioGrapplingBlowLoopSkill::StGrapInfo> >::_Vector_val<ioGrapplingBlowLoopSkill::StGrapInfo,std::allocator<ioGrapplingBlowLoopSkill::StGrapInfo> >, COMDAT
; _this$ = ecx

; 426  : 		{	// construct allocator from _Al

  00000	8b c1		 mov	 eax, ecx

; 427  : 		_Myfirst = 0;

  00002	33 c9		 xor	 ecx, ecx
  00004	89 08		 mov	 DWORD PTR [eax], ecx

; 428  : 		_Mylast = 0;

  00006	89 48 04	 mov	 DWORD PTR [eax+4], ecx

; 429  : 		_Myend = 0;

  00009	89 48 08	 mov	 DWORD PTR [eax+8], ecx

; 430  : 		}

  0000c	c2 04 00	 ret	 4
??0?$_Vector_val@UStGrapInfo@ioGrapplingBlowLoopSkill@@V?$allocator@UStGrapInfo@ioGrapplingBlowLoopSkill@@@std@@@std@@QAE@V?$allocator@UStGrapInfo@ioGrapplingBlowLoopSkill@@@1@@Z ENDP ; std::_Vector_val<ioGrapplingBlowLoopSkill::StGrapInfo,std::allocator<ioGrapplingBlowLoopSkill::StGrapInfo> >::_Vector_val<ioGrapplingBlowLoopSkill::StGrapInfo,std::allocator<ioGrapplingBlowLoopSkill::StGrapInfo> >
_TEXT	ENDS
PUBLIC	?max_size@?$vector@UStGrapInfo@ioGrapplingBlowLoopSkill@@V?$allocator@UStGrapInfo@ioGrapplingBlowLoopSkill@@@std@@@std@@QBEIXZ ; std::vector<ioGrapplingBlowLoopSkill::StGrapInfo,std::allocator<ioGrapplingBlowLoopSkill::StGrapInfo> >::max_size
; Function compile flags: /Ogsp
;	COMDAT ?max_size@?$vector@UStGrapInfo@ioGrapplingBlowLoopSkill@@V?$allocator@UStGrapInfo@ioGrapplingBlowLoopSkill@@@std@@@std@@QBEIXZ
_TEXT	SEGMENT
?max_size@?$vector@UStGrapInfo@ioGrapplingBlowLoopSkill@@V?$allocator@UStGrapInfo@ioGrapplingBlowLoopSkill@@@std@@@std@@QBEIXZ PROC ; std::vector<ioGrapplingBlowLoopSkill::StGrapInfo,std::allocator<ioGrapplingBlowLoopSkill::StGrapInfo> >::max_size, COMDAT
; _this$ = ecx

; 884  : 		return (this->_Alval.max_size());

  00000	b8 ff ff ff 01	 mov	 eax, 33554431		; 01ffffffH

; 885  : 		}

  00005	c3		 ret	 0
?max_size@?$vector@UStGrapInfo@ioGrapplingBlowLoopSkill@@V?$allocator@UStGrapInfo@ioGrapplingBlowLoopSkill@@@std@@@std@@QBEIXZ ENDP ; std::vector<ioGrapplingBlowLoopSkill::StGrapInfo,std::allocator<ioGrapplingBlowLoopSkill::StGrapInfo> >::max_size
_TEXT	ENDS
PUBLIC	?_Grow_to@?$vector@UStGrapInfo@ioGrapplingBlowLoopSkill@@V?$allocator@UStGrapInfo@ioGrapplingBlowLoopSkill@@@std@@@std@@IBEII@Z ; std::vector<ioGrapplingBlowLoopSkill::StGrapInfo,std::allocator<ioGrapplingBlowLoopSkill::StGrapInfo> >::_Grow_to
; Function compile flags: /Ogsp
;	COMDAT ?_Grow_to@?$vector@UStGrapInfo@ioGrapplingBlowLoopSkill@@V?$allocator@UStGrapInfo@ioGrapplingBlowLoopSkill@@@std@@@std@@IBEII@Z
_TEXT	SEGMENT
__Count$ = 8						; size = 4
?_Grow_to@?$vector@UStGrapInfo@ioGrapplingBlowLoopSkill@@V?$allocator@UStGrapInfo@ioGrapplingBlowLoopSkill@@@std@@@std@@IBEII@Z PROC ; std::vector<ioGrapplingBlowLoopSkill::StGrapInfo,std::allocator<ioGrapplingBlowLoopSkill::StGrapInfo> >::_Grow_to, COMDAT
; _this$ = ecx

; 1274 : 		{	// grow by 50% or at least to _Count

  00000	55		 push	 ebp
  00001	8b ec		 mov	 ebp, esp

; 1275 : 		size_type _Capacity = capacity();

  00003	8b 41 08	 mov	 eax, DWORD PTR [ecx+8]
  00006	2b 01		 sub	 eax, DWORD PTR [ecx]

; 1276 : 
; 1277 : 		_Capacity = max_size() - _Capacity / 2 < _Capacity
; 1278 : 			? 0 : _Capacity + _Capacity / 2;	// try to grow by 50%

  00008	ba ff ff ff 01	 mov	 edx, 33554431		; 01ffffffH
  0000d	c1 f8 07	 sar	 eax, 7
  00010	8b c8		 mov	 ecx, eax
  00012	d1 e9		 shr	 ecx, 1
  00014	2b d1		 sub	 edx, ecx
  00016	3b d0		 cmp	 edx, eax
  00018	73 04		 jae	 SHORT $LN4@Grow_to
  0001a	33 c0		 xor	 eax, eax
  0001c	eb 02		 jmp	 SHORT $LN5@Grow_to
$LN4@Grow_to:
  0001e	03 c1		 add	 eax, ecx
$LN5@Grow_to:

; 1279 : 		if (_Capacity < _Count)

  00020	3b 45 08	 cmp	 eax, DWORD PTR __Count$[ebp]

; 1280 : 			_Capacity = _Count;

  00023	0f 42 45 08	 cmovb	 eax, DWORD PTR __Count$[ebp]

; 1281 : 		return (_Capacity);
; 1282 : 		}

  00027	5d		 pop	 ebp
  00028	c2 04 00	 ret	 4
?_Grow_to@?$vector@UStGrapInfo@ioGrapplingBlowLoopSkill@@V?$allocator@UStGrapInfo@ioGrapplingBlowLoopSkill@@@std@@@std@@IBEII@Z ENDP ; std::vector<ioGrapplingBlowLoopSkill::StGrapInfo,std::allocator<ioGrapplingBlowLoopSkill::StGrapInfo> >::_Grow_to
_TEXT	ENDS
PUBLIC	?allocate@?$allocator@UStGrapInfo@ioGrapplingBlowLoopSkill@@@std@@QAEPAUStGrapInfo@ioGrapplingBlowLoopSkill@@I@Z ; std::allocator<ioGrapplingBlowLoopSkill::StGrapInfo>::allocate
; Function compile flags: /Ogsp
; File c:\program files (x86)\microsoft visual studio 10.0\vc\include\xmemory
;	COMDAT ?allocate@?$allocator@UStGrapInfo@ioGrapplingBlowLoopSkill@@@std@@QAEPAUStGrapInfo@ioGrapplingBlowLoopSkill@@I@Z
_TEXT	SEGMENT
__Count$ = 8						; size = 4
?allocate@?$allocator@UStGrapInfo@ioGrapplingBlowLoopSkill@@@std@@QAEPAUStGrapInfo@ioGrapplingBlowLoopSkill@@I@Z PROC ; std::allocator<ioGrapplingBlowLoopSkill::StGrapInfo>::allocate, COMDAT
; _this$ = ecx

; 186  : 		{	// allocate array of _Count elements

  00000	55		 push	 ebp
  00001	8b ec		 mov	 ebp, esp

; 187  : 		return (_Allocate(_Count, (pointer)0));

  00003	6a 00		 push	 0
  00005	ff 75 08	 push	 DWORD PTR __Count$[ebp]
  00008	e8 00 00 00 00	 call	 ??$_Allocate@UStGrapInfo@ioGrapplingBlowLoopSkill@@@std@@YAPAUStGrapInfo@ioGrapplingBlowLoopSkill@@IPAU12@@Z ; std::_Allocate<ioGrapplingBlowLoopSkill::StGrapInfo>
  0000d	59		 pop	 ecx
  0000e	59		 pop	 ecx

; 188  : 		}

  0000f	5d		 pop	 ebp
  00010	c2 04 00	 ret	 4
?allocate@?$allocator@UStGrapInfo@ioGrapplingBlowLoopSkill@@@std@@QAEPAUStGrapInfo@ioGrapplingBlowLoopSkill@@I@Z ENDP ; std::allocator<ioGrapplingBlowLoopSkill::StGrapInfo>::allocate
_TEXT	ENDS
PUBLIC	__$ArrayPad$
PUBLIC	??$LoadFloat_e@$0BM@@ioINILoader@@QAEMAAY0BM@$$CBDM@Z ; ioINILoader::LoadFloat_e<28>
EXTRN	__imp_?LoadFloat@ioINILoader@@QAEMPBDM@Z:PROC
; Function compile flags: /Ogsp
; File d:\lost saga for developer\youtube\tutorial\source\src\io3dengine\ioiniloader.h
;	COMDAT ??$LoadFloat_e@$0BM@@ioINILoader@@QAEMAAY0BM@$$CBDM@Z
_TEXT	SEGMENT
__k$ = -36						; size = 28
__$ArrayPad$ = -4					; size = 4
_k$ = 8							; size = 4
_f$ = 12						; size = 4
??$LoadFloat_e@$0BM@@ioINILoader@@QAEMAAY0BM@$$CBDM@Z PROC ; ioINILoader::LoadFloat_e<28>, COMDAT
; _this$ = ecx

; 135  : 	{

  00000	55		 push	 ebp
  00001	8b ec		 mov	 ebp, esp
  00003	83 ec 24	 sub	 esp, 36			; 00000024H
  00006	a1 00 00 00 00	 mov	 eax, DWORD PTR ___security_cookie
  0000b	33 c5		 xor	 eax, ebp
  0000d	89 45 fc	 mov	 DWORD PTR __$ArrayPad$[ebp], eax
  00010	8b 45 08	 mov	 eax, DWORD PTR _k$[ebp]

; 136  : 		_ENCSTR(k, _k);

  00013	8a 10		 mov	 dl, BYTE PTR [eax]
  00015	53		 push	 ebx
  00016	56		 push	 esi
  00017	8b f1		 mov	 esi, ecx
  00019	84 d2		 test	 dl, dl
  0001b	0f 84 a9 02 00
	00		 je	 $LN96@LoadFloat_
  00021	80 f2 ed	 xor	 dl, -19			; ffffffedH
  00024	88 55 dc	 mov	 BYTE PTR __k$[ebp], dl
  00027	8a 50 01	 mov	 dl, BYTE PTR [eax+1]
  0002a	84 d2		 test	 dl, dl
  0002c	0f 84 92 02 00
	00		 je	 $LN95@LoadFloat_
  00032	b3 ec		 mov	 bl, -20			; ffffffecH
  00034	32 d3		 xor	 dl, bl
  00036	88 55 dd	 mov	 BYTE PTR __k$[ebp+1], dl
  00039	8a 50 02	 mov	 dl, BYTE PTR [eax+2]
  0003c	84 d2		 test	 dl, dl
  0003e	0f 84 7a 02 00
	00		 je	 $LN94@LoadFloat_
  00044	b1 eb		 mov	 cl, -21			; ffffffebH
  00046	32 d1		 xor	 dl, cl
  00048	88 55 de	 mov	 BYTE PTR __k$[ebp+2], dl
  0004b	8a 50 03	 mov	 dl, BYTE PTR [eax+3]
  0004e	84 d2		 test	 dl, dl
  00050	0f 84 62 02 00
	00		 je	 $LN93@LoadFloat_
  00056	80 f2 ea	 xor	 dl, -22			; ffffffeaH
  00059	88 55 df	 mov	 BYTE PTR __k$[ebp+3], dl
  0005c	8a 50 04	 mov	 dl, BYTE PTR [eax+4]
  0005f	84 d2		 test	 dl, dl
  00061	0f 84 4b 02 00
	00		 je	 $LN92@LoadFloat_
  00067	80 f2 ed	 xor	 dl, -19			; ffffffedH
  0006a	88 55 e0	 mov	 BYTE PTR __k$[ebp+4], dl
  0006d	8a 50 05	 mov	 dl, BYTE PTR [eax+5]
  00070	84 d2		 test	 dl, dl
  00072	0f 84 35 02 00
	00		 je	 $LN91@LoadFloat_
  00078	32 d3		 xor	 dl, bl
  0007a	88 55 e1	 mov	 BYTE PTR __k$[ebp+5], dl
  0007d	8a 50 06	 mov	 dl, BYTE PTR [eax+6]
  00080	84 d2		 test	 dl, dl
  00082	0f 84 20 02 00
	00		 je	 $LN90@LoadFloat_
  00088	32 d1		 xor	 dl, cl
  0008a	88 55 e2	 mov	 BYTE PTR __k$[ebp+6], dl
  0008d	8a 50 07	 mov	 dl, BYTE PTR [eax+7]
  00090	84 d2		 test	 dl, dl
  00092	0f 84 0a 02 00
	00		 je	 $LN89@LoadFloat_
  00098	80 f2 ea	 xor	 dl, -22			; ffffffeaH
  0009b	88 55 e3	 mov	 BYTE PTR __k$[ebp+7], dl
  0009e	8a 50 08	 mov	 dl, BYTE PTR [eax+8]
  000a1	84 d2		 test	 dl, dl
  000a3	0f 84 f3 01 00
	00		 je	 $LN88@LoadFloat_
  000a9	80 f2 ed	 xor	 dl, -19			; ffffffedH
  000ac	88 55 e4	 mov	 BYTE PTR __k$[ebp+8], dl
  000af	8a 50 09	 mov	 dl, BYTE PTR [eax+9]
  000b2	84 d2		 test	 dl, dl
  000b4	0f 84 dd 01 00
	00		 je	 $LN87@LoadFloat_
  000ba	32 d3		 xor	 dl, bl
  000bc	88 55 e5	 mov	 BYTE PTR __k$[ebp+9], dl
  000bf	8a 50 0a	 mov	 dl, BYTE PTR [eax+10]
  000c2	84 d2		 test	 dl, dl
  000c4	0f 84 c8 01 00
	00		 je	 $LN86@LoadFloat_
  000ca	32 d1		 xor	 dl, cl
  000cc	88 55 e6	 mov	 BYTE PTR __k$[ebp+10], dl
  000cf	8a 50 0b	 mov	 dl, BYTE PTR [eax+11]
  000d2	84 d2		 test	 dl, dl
  000d4	0f 84 b2 01 00
	00		 je	 $LN85@LoadFloat_
  000da	80 f2 ea	 xor	 dl, -22			; ffffffeaH
  000dd	88 55 e7	 mov	 BYTE PTR __k$[ebp+11], dl
  000e0	8a 50 0c	 mov	 dl, BYTE PTR [eax+12]
  000e3	84 d2		 test	 dl, dl
  000e5	0f 84 9b 01 00
	00		 je	 $LN84@LoadFloat_
  000eb	80 f2 ed	 xor	 dl, -19			; ffffffedH
  000ee	88 55 e8	 mov	 BYTE PTR __k$[ebp+12], dl
  000f1	8a 50 0d	 mov	 dl, BYTE PTR [eax+13]
  000f4	84 d2		 test	 dl, dl
  000f6	0f 84 85 01 00
	00		 je	 $LN83@LoadFloat_
  000fc	32 d3		 xor	 dl, bl
  000fe	88 55 e9	 mov	 BYTE PTR __k$[ebp+13], dl
  00101	8a 50 0e	 mov	 dl, BYTE PTR [eax+14]
  00104	84 d2		 test	 dl, dl
  00106	0f 84 70 01 00
	00		 je	 $LN82@LoadFloat_
  0010c	32 d1		 xor	 dl, cl
  0010e	88 55 ea	 mov	 BYTE PTR __k$[ebp+14], dl
  00111	8a 50 0f	 mov	 dl, BYTE PTR [eax+15]
  00114	84 d2		 test	 dl, dl
  00116	0f 84 5a 01 00
	00		 je	 $LN81@LoadFloat_
  0011c	80 f2 ea	 xor	 dl, -22			; ffffffeaH
  0011f	88 55 eb	 mov	 BYTE PTR __k$[ebp+15], dl
  00122	8a 50 10	 mov	 dl, BYTE PTR [eax+16]
  00125	84 d2		 test	 dl, dl
  00127	0f 84 43 01 00
	00		 je	 $LN80@LoadFloat_
  0012d	80 f2 ed	 xor	 dl, -19			; ffffffedH
  00130	88 55 ec	 mov	 BYTE PTR __k$[ebp+16], dl
  00133	8a 50 11	 mov	 dl, BYTE PTR [eax+17]
  00136	84 d2		 test	 dl, dl
  00138	0f 84 2d 01 00
	00		 je	 $LN79@LoadFloat_
  0013e	32 d3		 xor	 dl, bl
  00140	88 55 ed	 mov	 BYTE PTR __k$[ebp+17], dl
  00143	8a 50 12	 mov	 dl, BYTE PTR [eax+18]
  00146	84 d2		 test	 dl, dl
  00148	0f 84 18 01 00
	00		 je	 $LN78@LoadFloat_
  0014e	32 d1		 xor	 dl, cl
  00150	88 55 ee	 mov	 BYTE PTR __k$[ebp+18], dl
  00153	8a 50 13	 mov	 dl, BYTE PTR [eax+19]
  00156	84 d2		 test	 dl, dl
  00158	0f 84 02 01 00
	00		 je	 $LN77@LoadFloat_
  0015e	80 f2 ea	 xor	 dl, -22			; ffffffeaH
  00161	88 55 ef	 mov	 BYTE PTR __k$[ebp+19], dl
  00164	8a 50 14	 mov	 dl, BYTE PTR [eax+20]
  00167	84 d2		 test	 dl, dl
  00169	0f 84 eb 00 00
	00		 je	 $LN76@LoadFloat_
  0016f	80 f2 ed	 xor	 dl, -19			; ffffffedH
  00172	88 55 f0	 mov	 BYTE PTR __k$[ebp+20], dl
  00175	8a 50 15	 mov	 dl, BYTE PTR [eax+21]
  00178	84 d2		 test	 dl, dl
  0017a	0f 84 d5 00 00
	00		 je	 $LN75@LoadFloat_
  00180	32 d3		 xor	 dl, bl
  00182	88 55 f1	 mov	 BYTE PTR __k$[ebp+21], dl
  00185	8a 50 16	 mov	 dl, BYTE PTR [eax+22]
  00188	84 d2		 test	 dl, dl
  0018a	0f 84 c0 00 00
	00		 je	 $LN74@LoadFloat_
  00190	32 d1		 xor	 dl, cl
  00192	88 55 f2	 mov	 BYTE PTR __k$[ebp+22], dl
  00195	8a 50 17	 mov	 dl, BYTE PTR [eax+23]
  00198	84 d2		 test	 dl, dl
  0019a	0f 84 aa 00 00
	00		 je	 $LN73@LoadFloat_
  001a0	80 f2 ea	 xor	 dl, -22			; ffffffeaH
  001a3	88 55 f3	 mov	 BYTE PTR __k$[ebp+23], dl
  001a6	8a 50 18	 mov	 dl, BYTE PTR [eax+24]
  001a9	84 d2		 test	 dl, dl
  001ab	0f 84 90 00 00
	00		 je	 $LN72@LoadFloat_
  001b1	80 f2 ed	 xor	 dl, -19			; ffffffedH
  001b4	88 55 f4	 mov	 BYTE PTR __k$[ebp+24], dl
  001b7	8a 50 19	 mov	 dl, BYTE PTR [eax+25]
  001ba	84 d2		 test	 dl, dl
  001bc	74 7b		 je	 SHORT $LN71@LoadFloat_
  001be	32 d3		 xor	 dl, bl
  001c0	88 55 f5	 mov	 BYTE PTR __k$[ebp+25], dl
  001c3	8a 50 1a	 mov	 dl, BYTE PTR [eax+26]
  001c6	84 d2		 test	 dl, dl
  001c8	74 67		 je	 SHORT $LN70@LoadFloat_
  001ca	32 d1		 xor	 dl, cl
  001cc	80 78 1b 00	 cmp	 BYTE PTR [eax+27], 0
  001d0	88 55 f6	 mov	 BYTE PTR __k$[ebp+26], dl
  001d3	0f 84 f5 00 00
	00		 je	 $LN1@LoadFloat_
  001d9	8a 50 1c	 mov	 dl, BYTE PTR [eax+28]
  001dc	84 d2		 test	 dl, dl
  001de	74 48		 je	 SHORT $LN68@LoadFloat_
  001e0	80 f2 ed	 xor	 dl, -19			; ffffffedH
  001e3	88 55 f8	 mov	 BYTE PTR __k$[ebp+28], dl
  001e6	8a 50 1d	 mov	 dl, BYTE PTR [eax+29]
  001e9	84 d2		 test	 dl, dl
  001eb	74 33		 je	 SHORT $LN67@LoadFloat_
  001ed	32 d3		 xor	 dl, bl
  001ef	88 55 f9	 mov	 BYTE PTR __k$[ebp+29], dl
  001f2	8a 50 1e	 mov	 dl, BYTE PTR [eax+30]
  001f5	84 d2		 test	 dl, dl
  001f7	74 1f		 je	 SHORT $LN66@LoadFloat_
  001f9	8a 40 1f	 mov	 al, BYTE PTR [eax+31]
  001fc	32 d1		 xor	 dl, cl
  001fe	88 55 fa	 mov	 BYTE PTR __k$[ebp+30], dl
  00201	84 c0		 test	 al, al
  00203	74 0a		 je	 SHORT $LN65@LoadFloat_
  00205	34 ea		 xor	 al, -22			; ffffffeaH
  00207	88 45 fb	 mov	 BYTE PTR __k$[ebp+31], al
  0020a	e9 bf 00 00 00	 jmp	 $LN1@LoadFloat_
$LN65@LoadFloat_:
  0020f	c6 45 fb ea	 mov	 BYTE PTR __k$[ebp+31], -22 ; ffffffeaH
  00213	e9 b6 00 00 00	 jmp	 $LN1@LoadFloat_
$LN66@LoadFloat_:
  00218	88 4d fa	 mov	 BYTE PTR __k$[ebp+30], cl
  0021b	e9 ae 00 00 00	 jmp	 $LN1@LoadFloat_
$LN67@LoadFloat_:
  00220	88 5d f9	 mov	 BYTE PTR __k$[ebp+29], bl
  00223	e9 a6 00 00 00	 jmp	 $LN1@LoadFloat_
$LN68@LoadFloat_:
  00228	c6 45 f8 ed	 mov	 BYTE PTR __k$[ebp+28], -19 ; ffffffedH
  0022c	e9 9d 00 00 00	 jmp	 $LN1@LoadFloat_
$LN70@LoadFloat_:
  00231	88 4d f6	 mov	 BYTE PTR __k$[ebp+26], cl
  00234	e9 95 00 00 00	 jmp	 $LN1@LoadFloat_
$LN71@LoadFloat_:
  00239	88 5d f5	 mov	 BYTE PTR __k$[ebp+25], bl
  0023c	e9 8d 00 00 00	 jmp	 $LN1@LoadFloat_
$LN72@LoadFloat_:
  00241	c6 45 f4 ed	 mov	 BYTE PTR __k$[ebp+24], -19 ; ffffffedH
  00245	e9 84 00 00 00	 jmp	 $LN1@LoadFloat_
$LN73@LoadFloat_:
  0024a	c6 45 f3 ea	 mov	 BYTE PTR __k$[ebp+23], -22 ; ffffffeaH
  0024e	eb 7e		 jmp	 SHORT $LN1@LoadFloat_
$LN74@LoadFloat_:
  00250	88 4d f2	 mov	 BYTE PTR __k$[ebp+22], cl
  00253	eb 79		 jmp	 SHORT $LN1@LoadFloat_
$LN75@LoadFloat_:
  00255	88 5d f1	 mov	 BYTE PTR __k$[ebp+21], bl
  00258	eb 74		 jmp	 SHORT $LN1@LoadFloat_
$LN76@LoadFloat_:
  0025a	c6 45 f0 ed	 mov	 BYTE PTR __k$[ebp+20], -19 ; ffffffedH
  0025e	eb 6e		 jmp	 SHORT $LN1@LoadFloat_
$LN77@LoadFloat_:
  00260	c6 45 ef ea	 mov	 BYTE PTR __k$[ebp+19], -22 ; ffffffeaH
  00264	eb 68		 jmp	 SHORT $LN1@LoadFloat_
$LN78@LoadFloat_:
  00266	88 4d ee	 mov	 BYTE PTR __k$[ebp+18], cl
  00269	eb 63		 jmp	 SHORT $LN1@LoadFloat_
$LN79@LoadFloat_:
  0026b	88 5d ed	 mov	 BYTE PTR __k$[ebp+17], bl
  0026e	eb 5e		 jmp	 SHORT $LN1@LoadFloat_
$LN80@LoadFloat_:
  00270	c6 45 ec ed	 mov	 BYTE PTR __k$[ebp+16], -19 ; ffffffedH
  00274	eb 58		 jmp	 SHORT $LN1@LoadFloat_
$LN81@LoadFloat_:
  00276	c6 45 eb ea	 mov	 BYTE PTR __k$[ebp+15], -22 ; ffffffeaH
  0027a	eb 52		 jmp	 SHORT $LN1@LoadFloat_
$LN82@LoadFloat_:
  0027c	88 4d ea	 mov	 BYTE PTR __k$[ebp+14], cl
  0027f	eb 4d		 jmp	 SHORT $LN1@LoadFloat_
$LN83@LoadFloat_:
  00281	88 5d e9	 mov	 BYTE PTR __k$[ebp+13], bl
  00284	eb 48		 jmp	 SHORT $LN1@LoadFloat_
$LN84@LoadFloat_:
  00286	c6 45 e8 ed	 mov	 BYTE PTR __k$[ebp+12], -19 ; ffffffedH
  0028a	eb 42		 jmp	 SHORT $LN1@LoadFloat_
$LN85@LoadFloat_:
  0028c	c6 45 e7 ea	 mov	 BYTE PTR __k$[ebp+11], -22 ; ffffffeaH
  00290	eb 3c		 jmp	 SHORT $LN1@LoadFloat_
$LN86@LoadFloat_:
  00292	88 4d e6	 mov	 BYTE PTR __k$[ebp+10], cl
  00295	eb 37		 jmp	 SHORT $LN1@LoadFloat_
$LN87@LoadFloat_:
  00297	88 5d e5	 mov	 BYTE PTR __k$[ebp+9], bl
  0029a	eb 32		 jmp	 SHORT $LN1@LoadFloat_
$LN88@LoadFloat_:
  0029c	c6 45 e4 ed	 mov	 BYTE PTR __k$[ebp+8], -19 ; ffffffedH
  002a0	eb 2c		 jmp	 SHORT $LN1@LoadFloat_
$LN89@LoadFloat_:
  002a2	c6 45 e3 ea	 mov	 BYTE PTR __k$[ebp+7], -22 ; ffffffeaH
  002a6	eb 26		 jmp	 SHORT $LN1@LoadFloat_
$LN90@LoadFloat_:
  002a8	88 4d e2	 mov	 BYTE PTR __k$[ebp+6], cl
  002ab	eb 21		 jmp	 SHORT $LN1@LoadFloat_
$LN91@LoadFloat_:
  002ad	88 5d e1	 mov	 BYTE PTR __k$[ebp+5], bl
  002b0	eb 1c		 jmp	 SHORT $LN1@LoadFloat_
$LN92@LoadFloat_:
  002b2	c6 45 e0 ed	 mov	 BYTE PTR __k$[ebp+4], -19 ; ffffffedH
  002b6	eb 16		 jmp	 SHORT $LN1@LoadFloat_
$LN93@LoadFloat_:
  002b8	c6 45 df ea	 mov	 BYTE PTR __k$[ebp+3], -22 ; ffffffeaH
  002bc	eb 10		 jmp	 SHORT $LN1@LoadFloat_
$LN94@LoadFloat_:
  002be	c6 45 de eb	 mov	 BYTE PTR __k$[ebp+2], -21 ; ffffffebH
  002c2	eb 0a		 jmp	 SHORT $LN1@LoadFloat_
$LN95@LoadFloat_:
  002c4	c6 45 dd ec	 mov	 BYTE PTR __k$[ebp+1], -20 ; ffffffecH
  002c8	eb 04		 jmp	 SHORT $LN1@LoadFloat_
$LN96@LoadFloat_:
  002ca	c6 45 dc ed	 mov	 BYTE PTR __k$[ebp], -19	; ffffffedH
$LN1@LoadFloat_:
  002ce	6a 06		 push	 6
  002d0	8d 45 dc	 lea	 eax, DWORD PTR __k$[ebp]
  002d3	c6 45 f7 00	 mov	 BYTE PTR __k$[ebp+27], 0
  002d7	5a		 pop	 edx
$LL104@LoadFloat_:
  002d8	81 30 ed ec eb
	ea		 xor	 DWORD PTR [eax], -353637139 ; eaebecedH
  002de	83 c0 04	 add	 eax, 4
  002e1	4a		 dec	 edx
  002e2	75 f4		 jne	 SHORT $LL104@LoadFloat_
  002e4	6a 18		 push	 24			; 00000018H
  002e6	58		 pop	 eax
$LL101@LoadFloat_:
  002e7	8b c8		 mov	 ecx, eax
  002e9	81 e1 03 00 00
	80		 and	 ecx, -2147483645	; 80000003H
  002ef	79 05		 jns	 SHORT $LN111@LoadFloat_
  002f1	49		 dec	 ecx
  002f2	83 c9 fc	 or	 ecx, -4			; fffffffcH
  002f5	41		 inc	 ecx
$LN111@LoadFloat_:
  002f6	b2 ed		 mov	 dl, -19			; ffffffedH
  002f8	2a d1		 sub	 dl, cl
  002fa	30 54 05 dc	 xor	 BYTE PTR __k$[ebp+eax], dl
  002fe	40		 inc	 eax
  002ff	83 f8 1b	 cmp	 eax, 27			; 0000001bH
  00302	7c e3		 jl	 SHORT $LL101@LoadFloat_

; 137  : 		return LoadFloat(_k, f);

  00304	f3 0f 10 45 0c	 movss	 xmm0, DWORD PTR _f$[ebp]
  00309	51		 push	 ecx
  0030a	8d 45 dc	 lea	 eax, DWORD PTR __k$[ebp]
  0030d	f3 0f 11 04 24	 movss	 DWORD PTR [esp], xmm0
  00312	50		 push	 eax
  00313	8b ce		 mov	 ecx, esi
  00315	ff 15 00 00 00
	00		 call	 DWORD PTR __imp_?LoadFloat@ioINILoader@@QAEMPBDM@Z

; 138  : 	}

  0031b	8b 4d fc	 mov	 ecx, DWORD PTR __$ArrayPad$[ebp]
  0031e	5e		 pop	 esi
  0031f	33 cd		 xor	 ecx, ebp
  00321	5b		 pop	 ebx
  00322	e8 00 00 00 00	 call	 @__security_check_cookie@4
  00327	c9		 leave
  00328	c2 08 00	 ret	 8
??$LoadFloat_e@$0BM@@ioINILoader@@QAEMAAY0BM@$$CBDM@Z ENDP ; ioINILoader::LoadFloat_e<28>
_TEXT	ENDS
PUBLIC	__$ArrayPad$
PUBLIC	??$LoadFloat_e@$0BN@@ioINILoader@@QAEMAAY0BN@$$CBDM@Z ; ioINILoader::LoadFloat_e<29>
; Function compile flags: /Ogsp
;	COMDAT ??$LoadFloat_e@$0BN@@ioINILoader@@QAEMAAY0BN@$$CBDM@Z
_TEXT	SEGMENT
__k$ = -40						; size = 29
__$ArrayPad$ = -4					; size = 4
_k$ = 8							; size = 4
_f$ = 12						; size = 4
??$LoadFloat_e@$0BN@@ioINILoader@@QAEMAAY0BN@$$CBDM@Z PROC ; ioINILoader::LoadFloat_e<29>, COMDAT
; _this$ = ecx

; 135  : 	{

  00000	55		 push	 ebp
  00001	8b ec		 mov	 ebp, esp
  00003	83 ec 28	 sub	 esp, 40			; 00000028H
  00006	a1 00 00 00 00	 mov	 eax, DWORD PTR ___security_cookie
  0000b	33 c5		 xor	 eax, ebp
  0000d	89 45 fc	 mov	 DWORD PTR __$ArrayPad$[ebp], eax
  00010	8b 45 08	 mov	 eax, DWORD PTR _k$[ebp]

; 136  : 		_ENCSTR(k, _k);

  00013	8a 10		 mov	 dl, BYTE PTR [eax]
  00015	53		 push	 ebx
  00016	56		 push	 esi
  00017	8b f1		 mov	 esi, ecx
  00019	84 d2		 test	 dl, dl
  0001b	0f 84 c3 02 00
	00		 je	 $LN96@LoadFloat_@2
  00021	80 f2 ed	 xor	 dl, -19			; ffffffedH
  00024	88 55 d8	 mov	 BYTE PTR __k$[ebp], dl
  00027	8a 50 01	 mov	 dl, BYTE PTR [eax+1]
  0002a	84 d2		 test	 dl, dl
  0002c	0f 84 ac 02 00
	00		 je	 $LN95@LoadFloat_@2
  00032	b1 ec		 mov	 cl, -20			; ffffffecH
  00034	32 d1		 xor	 dl, cl
  00036	88 55 d9	 mov	 BYTE PTR __k$[ebp+1], dl
  00039	8a 50 02	 mov	 dl, BYTE PTR [eax+2]
  0003c	84 d2		 test	 dl, dl
  0003e	0f 84 94 02 00
	00		 je	 $LN94@LoadFloat_@2
  00044	b3 eb		 mov	 bl, -21			; ffffffebH
  00046	32 d3		 xor	 dl, bl
  00048	88 55 da	 mov	 BYTE PTR __k$[ebp+2], dl
  0004b	8a 50 03	 mov	 dl, BYTE PTR [eax+3]
  0004e	84 d2		 test	 dl, dl
  00050	0f 84 7c 02 00
	00		 je	 $LN93@LoadFloat_@2
  00056	80 f2 ea	 xor	 dl, -22			; ffffffeaH
  00059	88 55 db	 mov	 BYTE PTR __k$[ebp+3], dl
  0005c	8a 50 04	 mov	 dl, BYTE PTR [eax+4]
  0005f	84 d2		 test	 dl, dl
  00061	0f 84 65 02 00
	00		 je	 $LN92@LoadFloat_@2
  00067	80 f2 ed	 xor	 dl, -19			; ffffffedH
  0006a	88 55 dc	 mov	 BYTE PTR __k$[ebp+4], dl
  0006d	8a 50 05	 mov	 dl, BYTE PTR [eax+5]
  00070	84 d2		 test	 dl, dl
  00072	0f 84 4f 02 00
	00		 je	 $LN91@LoadFloat_@2
  00078	32 d1		 xor	 dl, cl
  0007a	88 55 dd	 mov	 BYTE PTR __k$[ebp+5], dl
  0007d	8a 50 06	 mov	 dl, BYTE PTR [eax+6]
  00080	84 d2		 test	 dl, dl
  00082	0f 84 3a 02 00
	00		 je	 $LN90@LoadFloat_@2
  00088	32 d3		 xor	 dl, bl
  0008a	88 55 de	 mov	 BYTE PTR __k$[ebp+6], dl
  0008d	8a 50 07	 mov	 dl, BYTE PTR [eax+7]
  00090	84 d2		 test	 dl, dl
  00092	0f 84 24 02 00
	00		 je	 $LN89@LoadFloat_@2
  00098	80 f2 ea	 xor	 dl, -22			; ffffffeaH
  0009b	88 55 df	 mov	 BYTE PTR __k$[ebp+7], dl
  0009e	8a 50 08	 mov	 dl, BYTE PTR [eax+8]
  000a1	84 d2		 test	 dl, dl
  000a3	0f 84 0d 02 00
	00		 je	 $LN88@LoadFloat_@2
  000a9	80 f2 ed	 xor	 dl, -19			; ffffffedH
  000ac	88 55 e0	 mov	 BYTE PTR __k$[ebp+8], dl
  000af	8a 50 09	 mov	 dl, BYTE PTR [eax+9]
  000b2	84 d2		 test	 dl, dl
  000b4	0f 84 f7 01 00
	00		 je	 $LN87@LoadFloat_@2
  000ba	32 d1		 xor	 dl, cl
  000bc	88 55 e1	 mov	 BYTE PTR __k$[ebp+9], dl
  000bf	8a 50 0a	 mov	 dl, BYTE PTR [eax+10]
  000c2	84 d2		 test	 dl, dl
  000c4	0f 84 e2 01 00
	00		 je	 $LN86@LoadFloat_@2
  000ca	32 d3		 xor	 dl, bl
  000cc	88 55 e2	 mov	 BYTE PTR __k$[ebp+10], dl
  000cf	8a 50 0b	 mov	 dl, BYTE PTR [eax+11]
  000d2	84 d2		 test	 dl, dl
  000d4	0f 84 cc 01 00
	00		 je	 $LN85@LoadFloat_@2
  000da	80 f2 ea	 xor	 dl, -22			; ffffffeaH
  000dd	88 55 e3	 mov	 BYTE PTR __k$[ebp+11], dl
  000e0	8a 50 0c	 mov	 dl, BYTE PTR [eax+12]
  000e3	84 d2		 test	 dl, dl
  000e5	0f 84 b5 01 00
	00		 je	 $LN84@LoadFloat_@2
  000eb	80 f2 ed	 xor	 dl, -19			; ffffffedH
  000ee	88 55 e4	 mov	 BYTE PTR __k$[ebp+12], dl
  000f1	8a 50 0d	 mov	 dl, BYTE PTR [eax+13]
  000f4	84 d2		 test	 dl, dl
  000f6	0f 84 9f 01 00
	00		 je	 $LN83@LoadFloat_@2
  000fc	32 d1		 xor	 dl, cl
  000fe	88 55 e5	 mov	 BYTE PTR __k$[ebp+13], dl
  00101	8a 50 0e	 mov	 dl, BYTE PTR [eax+14]
  00104	84 d2		 test	 dl, dl
  00106	0f 84 8a 01 00
	00		 je	 $LN82@LoadFloat_@2
  0010c	32 d3		 xor	 dl, bl
  0010e	88 55 e6	 mov	 BYTE PTR __k$[ebp+14], dl
  00111	8a 50 0f	 mov	 dl, BYTE PTR [eax+15]
  00114	84 d2		 test	 dl, dl
  00116	0f 84 74 01 00
	00		 je	 $LN81@LoadFloat_@2
  0011c	80 f2 ea	 xor	 dl, -22			; ffffffeaH
  0011f	88 55 e7	 mov	 BYTE PTR __k$[ebp+15], dl
  00122	8a 50 10	 mov	 dl, BYTE PTR [eax+16]
  00125	84 d2		 test	 dl, dl
  00127	0f 84 5d 01 00
	00		 je	 $LN80@LoadFloat_@2
  0012d	80 f2 ed	 xor	 dl, -19			; ffffffedH
  00130	88 55 e8	 mov	 BYTE PTR __k$[ebp+16], dl
  00133	8a 50 11	 mov	 dl, BYTE PTR [eax+17]
  00136	84 d2		 test	 dl, dl
  00138	0f 84 47 01 00
	00		 je	 $LN79@LoadFloat_@2
  0013e	32 d1		 xor	 dl, cl
  00140	88 55 e9	 mov	 BYTE PTR __k$[ebp+17], dl
  00143	8a 50 12	 mov	 dl, BYTE PTR [eax+18]
  00146	84 d2		 test	 dl, dl
  00148	0f 84 32 01 00
	00		 je	 $LN78@LoadFloat_@2
  0014e	32 d3		 xor	 dl, bl
  00150	88 55 ea	 mov	 BYTE PTR __k$[ebp+18], dl
  00153	8a 50 13	 mov	 dl, BYTE PTR [eax+19]
  00156	84 d2		 test	 dl, dl
  00158	0f 84 1c 01 00
	00		 je	 $LN77@LoadFloat_@2
  0015e	80 f2 ea	 xor	 dl, -22			; ffffffeaH
  00161	88 55 eb	 mov	 BYTE PTR __k$[ebp+19], dl
  00164	8a 50 14	 mov	 dl, BYTE PTR [eax+20]
  00167	84 d2		 test	 dl, dl
  00169	0f 84 05 01 00
	00		 je	 $LN76@LoadFloat_@2
  0016f	80 f2 ed	 xor	 dl, -19			; ffffffedH
  00172	88 55 ec	 mov	 BYTE PTR __k$[ebp+20], dl
  00175	8a 50 15	 mov	 dl, BYTE PTR [eax+21]
  00178	84 d2		 test	 dl, dl
  0017a	0f 84 ef 00 00
	00		 je	 $LN75@LoadFloat_@2
  00180	32 d1		 xor	 dl, cl
  00182	88 55 ed	 mov	 BYTE PTR __k$[ebp+21], dl
  00185	8a 50 16	 mov	 dl, BYTE PTR [eax+22]
  00188	84 d2		 test	 dl, dl
  0018a	0f 84 da 00 00
	00		 je	 $LN74@LoadFloat_@2
  00190	32 d3		 xor	 dl, bl
  00192	88 55 ee	 mov	 BYTE PTR __k$[ebp+22], dl
  00195	8a 50 17	 mov	 dl, BYTE PTR [eax+23]
  00198	84 d2		 test	 dl, dl
  0019a	0f 84 c4 00 00
	00		 je	 $LN73@LoadFloat_@2
  001a0	80 f2 ea	 xor	 dl, -22			; ffffffeaH
  001a3	88 55 ef	 mov	 BYTE PTR __k$[ebp+23], dl
  001a6	8a 50 18	 mov	 dl, BYTE PTR [eax+24]
  001a9	84 d2		 test	 dl, dl
  001ab	0f 84 aa 00 00
	00		 je	 $LN72@LoadFloat_@2
  001b1	80 f2 ed	 xor	 dl, -19			; ffffffedH
  001b4	88 55 f0	 mov	 BYTE PTR __k$[ebp+24], dl
  001b7	8a 50 19	 mov	 dl, BYTE PTR [eax+25]
  001ba	84 d2		 test	 dl, dl
  001bc	0f 84 91 00 00
	00		 je	 $LN71@LoadFloat_@2
  001c2	32 d1		 xor	 dl, cl
  001c4	88 55 f1	 mov	 BYTE PTR __k$[ebp+25], dl
  001c7	8a 50 1a	 mov	 dl, BYTE PTR [eax+26]
  001ca	84 d2		 test	 dl, dl
  001cc	74 7d		 je	 SHORT $LN70@LoadFloat_@2
  001ce	32 d3		 xor	 dl, bl
  001d0	88 55 f2	 mov	 BYTE PTR __k$[ebp+26], dl
  001d3	8a 50 1b	 mov	 dl, BYTE PTR [eax+27]
  001d6	84 d2		 test	 dl, dl
  001d8	74 68		 je	 SHORT $LN69@LoadFloat_@2
  001da	80 f2 ea	 xor	 dl, -22			; ffffffeaH
  001dd	80 78 1c 00	 cmp	 BYTE PTR [eax+28], 0
  001e1	88 55 f3	 mov	 BYTE PTR __k$[ebp+27], dl
  001e4	0f 84 fe 00 00
	00		 je	 $LN1@LoadFloat_@2
  001ea	8a 50 1d	 mov	 dl, BYTE PTR [eax+29]
  001ed	84 d2		 test	 dl, dl
  001ef	74 49		 je	 SHORT $LN67@LoadFloat_@2
  001f1	32 d1		 xor	 dl, cl
  001f3	88 55 f5	 mov	 BYTE PTR __k$[ebp+29], dl
  001f6	8a 50 1e	 mov	 dl, BYTE PTR [eax+30]
  001f9	84 d2		 test	 dl, dl
  001fb	74 35		 je	 SHORT $LN66@LoadFloat_@2
  001fd	32 d3		 xor	 dl, bl
  001ff	88 55 f6	 mov	 BYTE PTR __k$[ebp+30], dl
  00202	8a 50 1f	 mov	 dl, BYTE PTR [eax+31]
  00205	84 d2		 test	 dl, dl
  00207	74 20		 je	 SHORT $LN65@LoadFloat_@2
  00209	8a 40 20	 mov	 al, BYTE PTR [eax+32]
  0020c	80 f2 ea	 xor	 dl, -22			; ffffffeaH
  0020f	88 55 f7	 mov	 BYTE PTR __k$[ebp+31], dl
  00212	84 c0		 test	 al, al
  00214	74 0a		 je	 SHORT $LN64@LoadFloat_@2
  00216	34 ed		 xor	 al, -19			; ffffffedH
  00218	88 45 f8	 mov	 BYTE PTR __k$[ebp+32], al
  0021b	e9 c8 00 00 00	 jmp	 $LN1@LoadFloat_@2
$LN64@LoadFloat_@2:
  00220	c6 45 f8 ed	 mov	 BYTE PTR __k$[ebp+32], -19 ; ffffffedH
  00224	e9 bf 00 00 00	 jmp	 $LN1@LoadFloat_@2
$LN65@LoadFloat_@2:
  00229	c6 45 f7 ea	 mov	 BYTE PTR __k$[ebp+31], -22 ; ffffffeaH
  0022d	e9 b6 00 00 00	 jmp	 $LN1@LoadFloat_@2
$LN66@LoadFloat_@2:
  00232	88 5d f6	 mov	 BYTE PTR __k$[ebp+30], bl
  00235	e9 ae 00 00 00	 jmp	 $LN1@LoadFloat_@2
$LN67@LoadFloat_@2:
  0023a	88 4d f5	 mov	 BYTE PTR __k$[ebp+29], cl
  0023d	e9 a6 00 00 00	 jmp	 $LN1@LoadFloat_@2
$LN69@LoadFloat_@2:
  00242	c6 45 f3 ea	 mov	 BYTE PTR __k$[ebp+27], -22 ; ffffffeaH
  00246	e9 9d 00 00 00	 jmp	 $LN1@LoadFloat_@2
$LN70@LoadFloat_@2:
  0024b	88 5d f2	 mov	 BYTE PTR __k$[ebp+26], bl
  0024e	e9 95 00 00 00	 jmp	 $LN1@LoadFloat_@2
$LN71@LoadFloat_@2:
  00253	88 4d f1	 mov	 BYTE PTR __k$[ebp+25], cl
  00256	e9 8d 00 00 00	 jmp	 $LN1@LoadFloat_@2
$LN72@LoadFloat_@2:
  0025b	c6 45 f0 ed	 mov	 BYTE PTR __k$[ebp+24], -19 ; ffffffedH
  0025f	e9 84 00 00 00	 jmp	 $LN1@LoadFloat_@2
$LN73@LoadFloat_@2:
  00264	c6 45 ef ea	 mov	 BYTE PTR __k$[ebp+23], -22 ; ffffffeaH
  00268	eb 7e		 jmp	 SHORT $LN1@LoadFloat_@2
$LN74@LoadFloat_@2:
  0026a	88 5d ee	 mov	 BYTE PTR __k$[ebp+22], bl
  0026d	eb 79		 jmp	 SHORT $LN1@LoadFloat_@2
$LN75@LoadFloat_@2:
  0026f	88 4d ed	 mov	 BYTE PTR __k$[ebp+21], cl
  00272	eb 74		 jmp	 SHORT $LN1@LoadFloat_@2
$LN76@LoadFloat_@2:
  00274	c6 45 ec ed	 mov	 BYTE PTR __k$[ebp+20], -19 ; ffffffedH
  00278	eb 6e		 jmp	 SHORT $LN1@LoadFloat_@2
$LN77@LoadFloat_@2:
  0027a	c6 45 eb ea	 mov	 BYTE PTR __k$[ebp+19], -22 ; ffffffeaH
  0027e	eb 68		 jmp	 SHORT $LN1@LoadFloat_@2
$LN78@LoadFloat_@2:
  00280	88 5d ea	 mov	 BYTE PTR __k$[ebp+18], bl
  00283	eb 63		 jmp	 SHORT $LN1@LoadFloat_@2
$LN79@LoadFloat_@2:
  00285	88 4d e9	 mov	 BYTE PTR __k$[ebp+17], cl
  00288	eb 5e		 jmp	 SHORT $LN1@LoadFloat_@2
$LN80@LoadFloat_@2:
  0028a	c6 45 e8 ed	 mov	 BYTE PTR __k$[ebp+16], -19 ; ffffffedH
  0028e	eb 58		 jmp	 SHORT $LN1@LoadFloat_@2
$LN81@LoadFloat_@2:
  00290	c6 45 e7 ea	 mov	 BYTE PTR __k$[ebp+15], -22 ; ffffffeaH
  00294	eb 52		 jmp	 SHORT $LN1@LoadFloat_@2
$LN82@LoadFloat_@2:
  00296	88 5d e6	 mov	 BYTE PTR __k$[ebp+14], bl
  00299	eb 4d		 jmp	 SHORT $LN1@LoadFloat_@2
$LN83@LoadFloat_@2:
  0029b	88 4d e5	 mov	 BYTE PTR __k$[ebp+13], cl
  0029e	eb 48		 jmp	 SHORT $LN1@LoadFloat_@2
$LN84@LoadFloat_@2:
  002a0	c6 45 e4 ed	 mov	 BYTE PTR __k$[ebp+12], -19 ; ffffffedH
  002a4	eb 42		 jmp	 SHORT $LN1@LoadFloat_@2
$LN85@LoadFloat_@2:
  002a6	c6 45 e3 ea	 mov	 BYTE PTR __k$[ebp+11], -22 ; ffffffeaH
  002aa	eb 3c		 jmp	 SHORT $LN1@LoadFloat_@2
$LN86@LoadFloat_@2:
  002ac	88 5d e2	 mov	 BYTE PTR __k$[ebp+10], bl
  002af	eb 37		 jmp	 SHORT $LN1@LoadFloat_@2
$LN87@LoadFloat_@2:
  002b1	88 4d e1	 mov	 BYTE PTR __k$[ebp+9], cl
  002b4	eb 32		 jmp	 SHORT $LN1@LoadFloat_@2
$LN88@LoadFloat_@2:
  002b6	c6 45 e0 ed	 mov	 BYTE PTR __k$[ebp+8], -19 ; ffffffedH
  002ba	eb 2c		 jmp	 SHORT $LN1@LoadFloat_@2
$LN89@LoadFloat_@2:
  002bc	c6 45 df ea	 mov	 BYTE PTR __k$[ebp+7], -22 ; ffffffeaH
  002c0	eb 26		 jmp	 SHORT $LN1@LoadFloat_@2
$LN90@LoadFloat_@2:
  002c2	88 5d de	 mov	 BYTE PTR __k$[ebp+6], bl
  002c5	eb 21		 jmp	 SHORT $LN1@LoadFloat_@2
$LN91@LoadFloat_@2:
  002c7	88 4d dd	 mov	 BYTE PTR __k$[ebp+5], cl
  002ca	eb 1c		 jmp	 SHORT $LN1@LoadFloat_@2
$LN92@LoadFloat_@2:
  002cc	c6 45 dc ed	 mov	 BYTE PTR __k$[ebp+4], -19 ; ffffffedH
  002d0	eb 16		 jmp	 SHORT $LN1@LoadFloat_@2
$LN93@LoadFloat_@2:
  002d2	c6 45 db ea	 mov	 BYTE PTR __k$[ebp+3], -22 ; ffffffeaH
  002d6	eb 10		 jmp	 SHORT $LN1@LoadFloat_@2
$LN94@LoadFloat_@2:
  002d8	c6 45 da eb	 mov	 BYTE PTR __k$[ebp+2], -21 ; ffffffebH
  002dc	eb 0a		 jmp	 SHORT $LN1@LoadFloat_@2
$LN95@LoadFloat_@2:
  002de	c6 45 d9 ec	 mov	 BYTE PTR __k$[ebp+1], -20 ; ffffffecH
  002e2	eb 04		 jmp	 SHORT $LN1@LoadFloat_@2
$LN96@LoadFloat_@2:
  002e4	c6 45 d8 ed	 mov	 BYTE PTR __k$[ebp], -19	; ffffffedH
$LN1@LoadFloat_@2:
  002e8	6a 07		 push	 7
  002ea	8d 45 d8	 lea	 eax, DWORD PTR __k$[ebp]
  002ed	c6 45 f4 00	 mov	 BYTE PTR __k$[ebp+28], 0
  002f1	5a		 pop	 edx
$LL104@LoadFloat_@2:
  002f2	81 30 ed ec eb
	ea		 xor	 DWORD PTR [eax], -353637139 ; eaebecedH
  002f8	83 c0 04	 add	 eax, 4
  002fb	4a		 dec	 edx
  002fc	75 f4		 jne	 SHORT $LL104@LoadFloat_@2

; 137  : 		return LoadFloat(_k, f);

  002fe	f3 0f 10 45 0c	 movss	 xmm0, DWORD PTR _f$[ebp]
  00303	51		 push	 ecx
  00304	8d 45 d8	 lea	 eax, DWORD PTR __k$[ebp]
  00307	f3 0f 11 04 24	 movss	 DWORD PTR [esp], xmm0
  0030c	50		 push	 eax
  0030d	8b ce		 mov	 ecx, esi
  0030f	ff 15 00 00 00
	00		 call	 DWORD PTR __imp_?LoadFloat@ioINILoader@@QAEMPBDM@Z

; 138  : 	}

  00315	8b 4d fc	 mov	 ecx, DWORD PTR __$ArrayPad$[ebp]
  00318	5e		 pop	 esi
  00319	33 cd		 xor	 ecx, ebp
  0031b	5b		 pop	 ebx
  0031c	e8 00 00 00 00	 call	 @__security_check_cookie@4
  00321	c9		 leave
  00322	c2 08 00	 ret	 8
??$LoadFloat_e@$0BN@@ioINILoader@@QAEMAAY0BN@$$CBDM@Z ENDP ; ioINILoader::LoadFloat_e<29>
_TEXT	ENDS
PUBLIC	__$ArrayPad$
PUBLIC	??$LoadFloat_e@$0BG@@ioINILoader@@QAEMAAY0BG@$$CBDM@Z ; ioINILoader::LoadFloat_e<22>
; Function compile flags: /Ogsp
;	COMDAT ??$LoadFloat_e@$0BG@@ioINILoader@@QAEMAAY0BG@$$CBDM@Z
_TEXT	SEGMENT
__k$ = -32						; size = 22
__$ArrayPad$ = -4					; size = 4
_k$ = 8							; size = 4
_f$ = 12						; size = 4
??$LoadFloat_e@$0BG@@ioINILoader@@QAEMAAY0BG@$$CBDM@Z PROC ; ioINILoader::LoadFloat_e<22>, COMDAT
; _this$ = ecx

; 135  : 	{

  00000	55		 push	 ebp
  00001	8b ec		 mov	 ebp, esp
  00003	83 ec 20	 sub	 esp, 32			; 00000020H
  00006	a1 00 00 00 00	 mov	 eax, DWORD PTR ___security_cookie
  0000b	33 c5		 xor	 eax, ebp
  0000d	89 45 fc	 mov	 DWORD PTR __$ArrayPad$[ebp], eax
  00010	8b 45 08	 mov	 eax, DWORD PTR _k$[ebp]

; 136  : 		_ENCSTR(k, _k);

  00013	8a 10		 mov	 dl, BYTE PTR [eax]
  00015	53		 push	 ebx
  00016	56		 push	 esi
  00017	8b f1		 mov	 esi, ecx
  00019	84 d2		 test	 dl, dl
  0001b	0f 84 15 02 00
	00		 je	 $LN96@LoadFloat_@3
  00021	80 f2 ed	 xor	 dl, -19			; ffffffedH
  00024	88 55 e0	 mov	 BYTE PTR __k$[ebp], dl
  00027	8a 50 01	 mov	 dl, BYTE PTR [eax+1]
  0002a	84 d2		 test	 dl, dl
  0002c	0f 84 fe 01 00
	00		 je	 $LN95@LoadFloat_@3
  00032	80 f2 ec	 xor	 dl, -20			; ffffffecH
  00035	88 55 e1	 mov	 BYTE PTR __k$[ebp+1], dl
  00038	8a 50 02	 mov	 dl, BYTE PTR [eax+2]
  0003b	84 d2		 test	 dl, dl
  0003d	0f 84 e7 01 00
	00		 je	 $LN94@LoadFloat_@3
  00043	b1 eb		 mov	 cl, -21			; ffffffebH
  00045	32 d1		 xor	 dl, cl
  00047	88 55 e2	 mov	 BYTE PTR __k$[ebp+2], dl
  0004a	8a 50 03	 mov	 dl, BYTE PTR [eax+3]
  0004d	84 d2		 test	 dl, dl
  0004f	0f 84 cf 01 00
	00		 je	 $LN93@LoadFloat_@3
  00055	b3 ea		 mov	 bl, -22			; ffffffeaH
  00057	32 d3		 xor	 dl, bl
  00059	88 55 e3	 mov	 BYTE PTR __k$[ebp+3], dl
  0005c	8a 50 04	 mov	 dl, BYTE PTR [eax+4]
  0005f	84 d2		 test	 dl, dl
  00061	0f 84 b7 01 00
	00		 je	 $LN92@LoadFloat_@3
  00067	80 f2 ed	 xor	 dl, -19			; ffffffedH
  0006a	88 55 e4	 mov	 BYTE PTR __k$[ebp+4], dl
  0006d	8a 50 05	 mov	 dl, BYTE PTR [eax+5]
  00070	84 d2		 test	 dl, dl
  00072	0f 84 a0 01 00
	00		 je	 $LN91@LoadFloat_@3
  00078	80 f2 ec	 xor	 dl, -20			; ffffffecH
  0007b	88 55 e5	 mov	 BYTE PTR __k$[ebp+5], dl
  0007e	8a 50 06	 mov	 dl, BYTE PTR [eax+6]
  00081	84 d2		 test	 dl, dl
  00083	0f 84 8a 01 00
	00		 je	 $LN90@LoadFloat_@3
  00089	32 d1		 xor	 dl, cl
  0008b	88 55 e6	 mov	 BYTE PTR __k$[ebp+6], dl
  0008e	8a 50 07	 mov	 dl, BYTE PTR [eax+7]
  00091	84 d2		 test	 dl, dl
  00093	0f 84 75 01 00
	00		 je	 $LN89@LoadFloat_@3
  00099	32 d3		 xor	 dl, bl
  0009b	88 55 e7	 mov	 BYTE PTR __k$[ebp+7], dl
  0009e	8a 50 08	 mov	 dl, BYTE PTR [eax+8]
  000a1	84 d2		 test	 dl, dl
  000a3	0f 84 5f 01 00
	00		 je	 $LN88@LoadFloat_@3
  000a9	80 f2 ed	 xor	 dl, -19			; ffffffedH
  000ac	88 55 e8	 mov	 BYTE PTR __k$[ebp+8], dl
  000af	8a 50 09	 mov	 dl, BYTE PTR [eax+9]
  000b2	84 d2		 test	 dl, dl
  000b4	0f 84 48 01 00
	00		 je	 $LN87@LoadFloat_@3
  000ba	80 f2 ec	 xor	 dl, -20			; ffffffecH
  000bd	88 55 e9	 mov	 BYTE PTR __k$[ebp+9], dl
  000c0	8a 50 0a	 mov	 dl, BYTE PTR [eax+10]
  000c3	84 d2		 test	 dl, dl
  000c5	0f 84 32 01 00
	00		 je	 $LN86@LoadFloat_@3
  000cb	32 d1		 xor	 dl, cl
  000cd	88 55 ea	 mov	 BYTE PTR __k$[ebp+10], dl
  000d0	8a 50 0b	 mov	 dl, BYTE PTR [eax+11]
  000d3	84 d2		 test	 dl, dl
  000d5	0f 84 1d 01 00
	00		 je	 $LN85@LoadFloat_@3
  000db	32 d3		 xor	 dl, bl
  000dd	88 55 eb	 mov	 BYTE PTR __k$[ebp+11], dl
  000e0	8a 50 0c	 mov	 dl, BYTE PTR [eax+12]
  000e3	84 d2		 test	 dl, dl
  000e5	0f 84 07 01 00
	00		 je	 $LN84@LoadFloat_@3
  000eb	80 f2 ed	 xor	 dl, -19			; ffffffedH
  000ee	88 55 ec	 mov	 BYTE PTR __k$[ebp+12], dl
  000f1	8a 50 0d	 mov	 dl, BYTE PTR [eax+13]
  000f4	84 d2		 test	 dl, dl
  000f6	0f 84 f0 00 00
	00		 je	 $LN83@LoadFloat_@3
  000fc	80 f2 ec	 xor	 dl, -20			; ffffffecH
  000ff	88 55 ed	 mov	 BYTE PTR __k$[ebp+13], dl
  00102	8a 50 0e	 mov	 dl, BYTE PTR [eax+14]
  00105	84 d2		 test	 dl, dl
  00107	0f 84 da 00 00
	00		 je	 $LN82@LoadFloat_@3
  0010d	32 d1		 xor	 dl, cl
  0010f	88 55 ee	 mov	 BYTE PTR __k$[ebp+14], dl
  00112	8a 50 0f	 mov	 dl, BYTE PTR [eax+15]
  00115	84 d2		 test	 dl, dl
  00117	0f 84 c5 00 00
	00		 je	 $LN81@LoadFloat_@3
  0011d	32 d3		 xor	 dl, bl
  0011f	88 55 ef	 mov	 BYTE PTR __k$[ebp+15], dl
  00122	8a 50 10	 mov	 dl, BYTE PTR [eax+16]
  00125	84 d2		 test	 dl, dl
  00127	0f 84 af 00 00
	00		 je	 $LN80@LoadFloat_@3
  0012d	80 f2 ed	 xor	 dl, -19			; ffffffedH
  00130	88 55 f0	 mov	 BYTE PTR __k$[ebp+16], dl
  00133	8a 50 11	 mov	 dl, BYTE PTR [eax+17]
  00136	84 d2		 test	 dl, dl
  00138	0f 84 98 00 00
	00		 je	 $LN79@LoadFloat_@3
  0013e	80 f2 ec	 xor	 dl, -20			; ffffffecH
  00141	88 55 f1	 mov	 BYTE PTR __k$[ebp+17], dl
  00144	8a 50 12	 mov	 dl, BYTE PTR [eax+18]
  00147	84 d2		 test	 dl, dl
  00149	0f 84 82 00 00
	00		 je	 $LN78@LoadFloat_@3
  0014f	32 d1		 xor	 dl, cl
  00151	88 55 f2	 mov	 BYTE PTR __k$[ebp+18], dl
  00154	8a 50 13	 mov	 dl, BYTE PTR [eax+19]
  00157	84 d2		 test	 dl, dl
  00159	74 71		 je	 SHORT $LN77@LoadFloat_@3
  0015b	32 d3		 xor	 dl, bl
  0015d	88 55 f3	 mov	 BYTE PTR __k$[ebp+19], dl
  00160	8a 50 14	 mov	 dl, BYTE PTR [eax+20]
  00163	84 d2		 test	 dl, dl
  00165	74 5f		 je	 SHORT $LN76@LoadFloat_@3
  00167	80 f2 ed	 xor	 dl, -19			; ffffffedH
  0016a	80 78 15 00	 cmp	 BYTE PTR [eax+21], 0
  0016e	88 55 f4	 mov	 BYTE PTR __k$[ebp+20], dl
  00171	0f 84 c3 00 00
	00		 je	 $LN1@LoadFloat_@3
  00177	8a 50 16	 mov	 dl, BYTE PTR [eax+22]
  0017a	84 d2		 test	 dl, dl
  0017c	74 43		 je	 SHORT $LN74@LoadFloat_@3
  0017e	32 d1		 xor	 dl, cl
  00180	88 55 f6	 mov	 BYTE PTR __k$[ebp+22], dl
  00183	8a 50 17	 mov	 dl, BYTE PTR [eax+23]
  00186	84 d2		 test	 dl, dl
  00188	74 32		 je	 SHORT $LN73@LoadFloat_@3
  0018a	32 d3		 xor	 dl, bl
  0018c	88 55 f7	 mov	 BYTE PTR __k$[ebp+23], dl
  0018f	8a 50 18	 mov	 dl, BYTE PTR [eax+24]
  00192	84 d2		 test	 dl, dl
  00194	74 20		 je	 SHORT $LN72@LoadFloat_@3
  00196	8a 40 19	 mov	 al, BYTE PTR [eax+25]
  00199	80 f2 ed	 xor	 dl, -19			; ffffffedH
  0019c	88 55 f8	 mov	 BYTE PTR __k$[ebp+24], dl
  0019f	84 c0		 test	 al, al
  001a1	74 0a		 je	 SHORT $LN71@LoadFloat_@3
  001a3	34 ec		 xor	 al, -20			; ffffffecH
  001a5	88 45 f9	 mov	 BYTE PTR __k$[ebp+25], al
  001a8	e9 8d 00 00 00	 jmp	 $LN1@LoadFloat_@3
$LN71@LoadFloat_@3:
  001ad	c6 45 f9 ec	 mov	 BYTE PTR __k$[ebp+25], -20 ; ffffffecH
  001b1	e9 84 00 00 00	 jmp	 $LN1@LoadFloat_@3
$LN72@LoadFloat_@3:
  001b6	c6 45 f8 ed	 mov	 BYTE PTR __k$[ebp+24], -19 ; ffffffedH
  001ba	eb 7e		 jmp	 SHORT $LN1@LoadFloat_@3
$LN73@LoadFloat_@3:
  001bc	88 5d f7	 mov	 BYTE PTR __k$[ebp+23], bl
  001bf	eb 79		 jmp	 SHORT $LN1@LoadFloat_@3
$LN74@LoadFloat_@3:
  001c1	88 4d f6	 mov	 BYTE PTR __k$[ebp+22], cl
  001c4	eb 74		 jmp	 SHORT $LN1@LoadFloat_@3
$LN76@LoadFloat_@3:
  001c6	c6 45 f4 ed	 mov	 BYTE PTR __k$[ebp+20], -19 ; ffffffedH
  001ca	eb 6e		 jmp	 SHORT $LN1@LoadFloat_@3
$LN77@LoadFloat_@3:
  001cc	88 5d f3	 mov	 BYTE PTR __k$[ebp+19], bl
  001cf	eb 69		 jmp	 SHORT $LN1@LoadFloat_@3
$LN78@LoadFloat_@3:
  001d1	88 4d f2	 mov	 BYTE PTR __k$[ebp+18], cl
  001d4	eb 64		 jmp	 SHORT $LN1@LoadFloat_@3
$LN79@LoadFloat_@3:
  001d6	c6 45 f1 ec	 mov	 BYTE PTR __k$[ebp+17], -20 ; ffffffecH
  001da	eb 5e		 jmp	 SHORT $LN1@LoadFloat_@3
$LN80@LoadFloat_@3:
  001dc	c6 45 f0 ed	 mov	 BYTE PTR __k$[ebp+16], -19 ; ffffffedH
  001e0	eb 58		 jmp	 SHORT $LN1@LoadFloat_@3
$LN81@LoadFloat_@3:
  001e2	88 5d ef	 mov	 BYTE PTR __k$[ebp+15], bl
  001e5	eb 53		 jmp	 SHORT $LN1@LoadFloat_@3
$LN82@LoadFloat_@3:
  001e7	88 4d ee	 mov	 BYTE PTR __k$[ebp+14], cl
  001ea	eb 4e		 jmp	 SHORT $LN1@LoadFloat_@3
$LN83@LoadFloat_@3:
  001ec	c6 45 ed ec	 mov	 BYTE PTR __k$[ebp+13], -20 ; ffffffecH
  001f0	eb 48		 jmp	 SHORT $LN1@LoadFloat_@3
$LN84@LoadFloat_@3:
  001f2	c6 45 ec ed	 mov	 BYTE PTR __k$[ebp+12], -19 ; ffffffedH
  001f6	eb 42		 jmp	 SHORT $LN1@LoadFloat_@3
$LN85@LoadFloat_@3:
  001f8	88 5d eb	 mov	 BYTE PTR __k$[ebp+11], bl
  001fb	eb 3d		 jmp	 SHORT $LN1@LoadFloat_@3
$LN86@LoadFloat_@3:
  001fd	88 4d ea	 mov	 BYTE PTR __k$[ebp+10], cl
  00200	eb 38		 jmp	 SHORT $LN1@LoadFloat_@3
$LN87@LoadFloat_@3:
  00202	c6 45 e9 ec	 mov	 BYTE PTR __k$[ebp+9], -20 ; ffffffecH
  00206	eb 32		 jmp	 SHORT $LN1@LoadFloat_@3
$LN88@LoadFloat_@3:
  00208	c6 45 e8 ed	 mov	 BYTE PTR __k$[ebp+8], -19 ; ffffffedH
  0020c	eb 2c		 jmp	 SHORT $LN1@LoadFloat_@3
$LN89@LoadFloat_@3:
  0020e	88 5d e7	 mov	 BYTE PTR __k$[ebp+7], bl
  00211	eb 27		 jmp	 SHORT $LN1@LoadFloat_@3
$LN90@LoadFloat_@3:
  00213	88 4d e6	 mov	 BYTE PTR __k$[ebp+6], cl
  00216	eb 22		 jmp	 SHORT $LN1@LoadFloat_@3
$LN91@LoadFloat_@3:
  00218	c6 45 e5 ec	 mov	 BYTE PTR __k$[ebp+5], -20 ; ffffffecH
  0021c	eb 1c		 jmp	 SHORT $LN1@LoadFloat_@3
$LN92@LoadFloat_@3:
  0021e	c6 45 e4 ed	 mov	 BYTE PTR __k$[ebp+4], -19 ; ffffffedH
  00222	eb 16		 jmp	 SHORT $LN1@LoadFloat_@3
$LN93@LoadFloat_@3:
  00224	c6 45 e3 ea	 mov	 BYTE PTR __k$[ebp+3], -22 ; ffffffeaH
  00228	eb 10		 jmp	 SHORT $LN1@LoadFloat_@3
$LN94@LoadFloat_@3:
  0022a	c6 45 e2 eb	 mov	 BYTE PTR __k$[ebp+2], -21 ; ffffffebH
  0022e	eb 0a		 jmp	 SHORT $LN1@LoadFloat_@3
$LN95@LoadFloat_@3:
  00230	c6 45 e1 ec	 mov	 BYTE PTR __k$[ebp+1], -20 ; ffffffecH
  00234	eb 04		 jmp	 SHORT $LN1@LoadFloat_@3
$LN96@LoadFloat_@3:
  00236	c6 45 e0 ed	 mov	 BYTE PTR __k$[ebp], -19	; ffffffedH
$LN1@LoadFloat_@3:
  0023a	6a 05		 push	 5
  0023c	8d 45 e0	 lea	 eax, DWORD PTR __k$[ebp]
  0023f	c6 45 f5 00	 mov	 BYTE PTR __k$[ebp+21], 0
  00243	5a		 pop	 edx
$LL104@LoadFloat_@3:
  00244	81 30 ed ec eb
	ea		 xor	 DWORD PTR [eax], -353637139 ; eaebecedH
  0024a	83 c0 04	 add	 eax, 4
  0024d	4a		 dec	 edx
  0024e	75 f4		 jne	 SHORT $LL104@LoadFloat_@3

; 137  : 		return LoadFloat(_k, f);

  00250	f3 0f 10 45 0c	 movss	 xmm0, DWORD PTR _f$[ebp]
  00255	80 75 f4 ed	 xor	 BYTE PTR __k$[ebp+20], -19 ; ffffffedH
  00259	51		 push	 ecx
  0025a	8d 45 e0	 lea	 eax, DWORD PTR __k$[ebp]
  0025d	f3 0f 11 04 24	 movss	 DWORD PTR [esp], xmm0
  00262	50		 push	 eax
  00263	8b ce		 mov	 ecx, esi
  00265	ff 15 00 00 00
	00		 call	 DWORD PTR __imp_?LoadFloat@ioINILoader@@QAEMPBDM@Z

; 138  : 	}

  0026b	8b 4d fc	 mov	 ecx, DWORD PTR __$ArrayPad$[ebp]
  0026e	5e		 pop	 esi
  0026f	33 cd		 xor	 ecx, ebp
  00271	5b		 pop	 ebx
  00272	e8 00 00 00 00	 call	 @__security_check_cookie@4
  00277	c9		 leave
  00278	c2 08 00	 ret	 8
??$LoadFloat_e@$0BG@@ioINILoader@@QAEMAAY0BG@$$CBDM@Z ENDP ; ioINILoader::LoadFloat_e<22>
_TEXT	ENDS
PUBLIC	__$ArrayPad$
PUBLIC	??$LoadFloat_e@$0BK@@ioINILoader@@QAEMAAY0BK@$$CBDM@Z ; ioINILoader::LoadFloat_e<26>
; Function compile flags: /Ogsp
;	COMDAT ??$LoadFloat_e@$0BK@@ioINILoader@@QAEMAAY0BK@$$CBDM@Z
_TEXT	SEGMENT
__k$ = -36						; size = 26
__$ArrayPad$ = -4					; size = 4
_k$ = 8							; size = 4
_f$ = 12						; size = 4
??$LoadFloat_e@$0BK@@ioINILoader@@QAEMAAY0BK@$$CBDM@Z PROC ; ioINILoader::LoadFloat_e<26>, COMDAT
; _this$ = ecx

; 135  : 	{

  00000	55		 push	 ebp
  00001	8b ec		 mov	 ebp, esp
  00003	83 ec 24	 sub	 esp, 36			; 00000024H
  00006	a1 00 00 00 00	 mov	 eax, DWORD PTR ___security_cookie
  0000b	33 c5		 xor	 eax, ebp
  0000d	89 45 fc	 mov	 DWORD PTR __$ArrayPad$[ebp], eax
  00010	8b 45 08	 mov	 eax, DWORD PTR _k$[ebp]

; 136  : 		_ENCSTR(k, _k);

  00013	8a 10		 mov	 dl, BYTE PTR [eax]
  00015	53		 push	 ebx
  00016	56		 push	 esi
  00017	8b f1		 mov	 esi, ecx
  00019	84 d2		 test	 dl, dl
  0001b	0f 84 79 02 00
	00		 je	 $LN96@LoadFloat_@4
  00021	80 f2 ed	 xor	 dl, -19			; ffffffedH
  00024	88 55 dc	 mov	 BYTE PTR __k$[ebp], dl
  00027	8a 50 01	 mov	 dl, BYTE PTR [eax+1]
  0002a	84 d2		 test	 dl, dl
  0002c	0f 84 62 02 00
	00		 je	 $LN95@LoadFloat_@4
  00032	80 f2 ec	 xor	 dl, -20			; ffffffecH
  00035	88 55 dd	 mov	 BYTE PTR __k$[ebp+1], dl
  00038	8a 50 02	 mov	 dl, BYTE PTR [eax+2]
  0003b	84 d2		 test	 dl, dl
  0003d	0f 84 4b 02 00
	00		 je	 $LN94@LoadFloat_@4
  00043	b1 eb		 mov	 cl, -21			; ffffffebH
  00045	32 d1		 xor	 dl, cl
  00047	88 55 de	 mov	 BYTE PTR __k$[ebp+2], dl
  0004a	8a 50 03	 mov	 dl, BYTE PTR [eax+3]
  0004d	84 d2		 test	 dl, dl
  0004f	0f 84 33 02 00
	00		 je	 $LN93@LoadFloat_@4
  00055	b3 ea		 mov	 bl, -22			; ffffffeaH
  00057	32 d3		 xor	 dl, bl
  00059	88 55 df	 mov	 BYTE PTR __k$[ebp+3], dl
  0005c	8a 50 04	 mov	 dl, BYTE PTR [eax+4]
  0005f	84 d2		 test	 dl, dl
  00061	0f 84 1b 02 00
	00		 je	 $LN92@LoadFloat_@4
  00067	80 f2 ed	 xor	 dl, -19			; ffffffedH
  0006a	88 55 e0	 mov	 BYTE PTR __k$[ebp+4], dl
  0006d	8a 50 05	 mov	 dl, BYTE PTR [eax+5]
  00070	84 d2		 test	 dl, dl
  00072	0f 84 04 02 00
	00		 je	 $LN91@LoadFloat_@4
  00078	80 f2 ec	 xor	 dl, -20			; ffffffecH
  0007b	88 55 e1	 mov	 BYTE PTR __k$[ebp+5], dl
  0007e	8a 50 06	 mov	 dl, BYTE PTR [eax+6]
  00081	84 d2		 test	 dl, dl
  00083	0f 84 ee 01 00
	00		 je	 $LN90@LoadFloat_@4
  00089	32 d1		 xor	 dl, cl
  0008b	88 55 e2	 mov	 BYTE PTR __k$[ebp+6], dl
  0008e	8a 50 07	 mov	 dl, BYTE PTR [eax+7]
  00091	84 d2		 test	 dl, dl
  00093	0f 84 d9 01 00
	00		 je	 $LN89@LoadFloat_@4
  00099	32 d3		 xor	 dl, bl
  0009b	88 55 e3	 mov	 BYTE PTR __k$[ebp+7], dl
  0009e	8a 50 08	 mov	 dl, BYTE PTR [eax+8]
  000a1	84 d2		 test	 dl, dl
  000a3	0f 84 c3 01 00
	00		 je	 $LN88@LoadFloat_@4
  000a9	80 f2 ed	 xor	 dl, -19			; ffffffedH
  000ac	88 55 e4	 mov	 BYTE PTR __k$[ebp+8], dl
  000af	8a 50 09	 mov	 dl, BYTE PTR [eax+9]
  000b2	84 d2		 test	 dl, dl
  000b4	0f 84 ac 01 00
	00		 je	 $LN87@LoadFloat_@4
  000ba	80 f2 ec	 xor	 dl, -20			; ffffffecH
  000bd	88 55 e5	 mov	 BYTE PTR __k$[ebp+9], dl
  000c0	8a 50 0a	 mov	 dl, BYTE PTR [eax+10]
  000c3	84 d2		 test	 dl, dl
  000c5	0f 84 96 01 00
	00		 je	 $LN86@LoadFloat_@4
  000cb	32 d1		 xor	 dl, cl
  000cd	88 55 e6	 mov	 BYTE PTR __k$[ebp+10], dl
  000d0	8a 50 0b	 mov	 dl, BYTE PTR [eax+11]
  000d3	84 d2		 test	 dl, dl
  000d5	0f 84 81 01 00
	00		 je	 $LN85@LoadFloat_@4
  000db	32 d3		 xor	 dl, bl
  000dd	88 55 e7	 mov	 BYTE PTR __k$[ebp+11], dl
  000e0	8a 50 0c	 mov	 dl, BYTE PTR [eax+12]
  000e3	84 d2		 test	 dl, dl
  000e5	0f 84 6b 01 00
	00		 je	 $LN84@LoadFloat_@4
  000eb	80 f2 ed	 xor	 dl, -19			; ffffffedH
  000ee	88 55 e8	 mov	 BYTE PTR __k$[ebp+12], dl
  000f1	8a 50 0d	 mov	 dl, BYTE PTR [eax+13]
  000f4	84 d2		 test	 dl, dl
  000f6	0f 84 54 01 00
	00		 je	 $LN83@LoadFloat_@4
  000fc	80 f2 ec	 xor	 dl, -20			; ffffffecH
  000ff	88 55 e9	 mov	 BYTE PTR __k$[ebp+13], dl
  00102	8a 50 0e	 mov	 dl, BYTE PTR [eax+14]
  00105	84 d2		 test	 dl, dl
  00107	0f 84 3e 01 00
	00		 je	 $LN82@LoadFloat_@4
  0010d	32 d1		 xor	 dl, cl
  0010f	88 55 ea	 mov	 BYTE PTR __k$[ebp+14], dl
  00112	8a 50 0f	 mov	 dl, BYTE PTR [eax+15]
  00115	84 d2		 test	 dl, dl
  00117	0f 84 29 01 00
	00		 je	 $LN81@LoadFloat_@4
  0011d	32 d3		 xor	 dl, bl
  0011f	88 55 eb	 mov	 BYTE PTR __k$[ebp+15], dl
  00122	8a 50 10	 mov	 dl, BYTE PTR [eax+16]
  00125	84 d2		 test	 dl, dl
  00127	0f 84 13 01 00
	00		 je	 $LN80@LoadFloat_@4
  0012d	80 f2 ed	 xor	 dl, -19			; ffffffedH
  00130	88 55 ec	 mov	 BYTE PTR __k$[ebp+16], dl
  00133	8a 50 11	 mov	 dl, BYTE PTR [eax+17]
  00136	84 d2		 test	 dl, dl
  00138	0f 84 fc 00 00
	00		 je	 $LN79@LoadFloat_@4
  0013e	80 f2 ec	 xor	 dl, -20			; ffffffecH
  00141	88 55 ed	 mov	 BYTE PTR __k$[ebp+17], dl
  00144	8a 50 12	 mov	 dl, BYTE PTR [eax+18]
  00147	84 d2		 test	 dl, dl
  00149	0f 84 e6 00 00
	00		 je	 $LN78@LoadFloat_@4
  0014f	32 d1		 xor	 dl, cl
  00151	88 55 ee	 mov	 BYTE PTR __k$[ebp+18], dl
  00154	8a 50 13	 mov	 dl, BYTE PTR [eax+19]
  00157	84 d2		 test	 dl, dl
  00159	0f 84 d1 00 00
	00		 je	 $LN77@LoadFloat_@4
  0015f	32 d3		 xor	 dl, bl
  00161	88 55 ef	 mov	 BYTE PTR __k$[ebp+19], dl
  00164	8a 50 14	 mov	 dl, BYTE PTR [eax+20]
  00167	84 d2		 test	 dl, dl
  00169	0f 84 bb 00 00
	00		 je	 $LN76@LoadFloat_@4
  0016f	80 f2 ed	 xor	 dl, -19			; ffffffedH
  00172	88 55 f0	 mov	 BYTE PTR __k$[ebp+20], dl
  00175	8a 50 15	 mov	 dl, BYTE PTR [eax+21]
  00178	84 d2		 test	 dl, dl
  0017a	0f 84 a4 00 00
	00		 je	 $LN75@LoadFloat_@4
  00180	80 f2 ec	 xor	 dl, -20			; ffffffecH
  00183	88 55 f1	 mov	 BYTE PTR __k$[ebp+21], dl
  00186	8a 50 16	 mov	 dl, BYTE PTR [eax+22]
  00189	84 d2		 test	 dl, dl
  0018b	0f 84 8e 00 00
	00		 je	 $LN74@LoadFloat_@4
  00191	32 d1		 xor	 dl, cl
  00193	88 55 f2	 mov	 BYTE PTR __k$[ebp+22], dl
  00196	8a 50 17	 mov	 dl, BYTE PTR [eax+23]
  00199	84 d2		 test	 dl, dl
  0019b	74 7d		 je	 SHORT $LN73@LoadFloat_@4
  0019d	32 d3		 xor	 dl, bl
  0019f	88 55 f3	 mov	 BYTE PTR __k$[ebp+23], dl
  001a2	8a 50 18	 mov	 dl, BYTE PTR [eax+24]
  001a5	84 d2		 test	 dl, dl
  001a7	74 68		 je	 SHORT $LN72@LoadFloat_@4
  001a9	80 f2 ed	 xor	 dl, -19			; ffffffedH
  001ac	80 78 19 00	 cmp	 BYTE PTR [eax+25], 0
  001b0	88 55 f4	 mov	 BYTE PTR __k$[ebp+24], dl
  001b3	0f 84 e5 00 00
	00		 je	 $LN1@LoadFloat_@4
  001b9	8a 50 1a	 mov	 dl, BYTE PTR [eax+26]
  001bc	84 d2		 test	 dl, dl
  001be	74 49		 je	 SHORT $LN70@LoadFloat_@4
  001c0	32 d1		 xor	 dl, cl
  001c2	88 55 f6	 mov	 BYTE PTR __k$[ebp+26], dl
  001c5	8a 50 1b	 mov	 dl, BYTE PTR [eax+27]
  001c8	84 d2		 test	 dl, dl
  001ca	74 35		 je	 SHORT $LN69@LoadFloat_@4
  001cc	32 d3		 xor	 dl, bl
  001ce	88 55 f7	 mov	 BYTE PTR __k$[ebp+27], dl
  001d1	8a 50 1c	 mov	 dl, BYTE PTR [eax+28]
  001d4	84 d2		 test	 dl, dl
  001d6	74 20		 je	 SHORT $LN68@LoadFloat_@4
  001d8	8a 40 1d	 mov	 al, BYTE PTR [eax+29]
  001db	80 f2 ed	 xor	 dl, -19			; ffffffedH
  001de	88 55 f8	 mov	 BYTE PTR __k$[ebp+28], dl
  001e1	84 c0		 test	 al, al
  001e3	74 0a		 je	 SHORT $LN67@LoadFloat_@4
  001e5	34 ec		 xor	 al, -20			; ffffffecH
  001e7	88 45 f9	 mov	 BYTE PTR __k$[ebp+29], al
  001ea	e9 af 00 00 00	 jmp	 $LN1@LoadFloat_@4
$LN67@LoadFloat_@4:
  001ef	c6 45 f9 ec	 mov	 BYTE PTR __k$[ebp+29], -20 ; ffffffecH
  001f3	e9 a6 00 00 00	 jmp	 $LN1@LoadFloat_@4
$LN68@LoadFloat_@4:
  001f8	c6 45 f8 ed	 mov	 BYTE PTR __k$[ebp+28], -19 ; ffffffedH
  001fc	e9 9d 00 00 00	 jmp	 $LN1@LoadFloat_@4
$LN69@LoadFloat_@4:
  00201	88 5d f7	 mov	 BYTE PTR __k$[ebp+27], bl
  00204	e9 95 00 00 00	 jmp	 $LN1@LoadFloat_@4
$LN70@LoadFloat_@4:
  00209	88 4d f6	 mov	 BYTE PTR __k$[ebp+26], cl
  0020c	e9 8d 00 00 00	 jmp	 $LN1@LoadFloat_@4
$LN72@LoadFloat_@4:
  00211	c6 45 f4 ed	 mov	 BYTE PTR __k$[ebp+24], -19 ; ffffffedH
  00215	e9 84 00 00 00	 jmp	 $LN1@LoadFloat_@4
$LN73@LoadFloat_@4:
  0021a	88 5d f3	 mov	 BYTE PTR __k$[ebp+23], bl
  0021d	eb 7f		 jmp	 SHORT $LN1@LoadFloat_@4
$LN74@LoadFloat_@4:
  0021f	88 4d f2	 mov	 BYTE PTR __k$[ebp+22], cl
  00222	eb 7a		 jmp	 SHORT $LN1@LoadFloat_@4
$LN75@LoadFloat_@4:
  00224	c6 45 f1 ec	 mov	 BYTE PTR __k$[ebp+21], -20 ; ffffffecH
  00228	eb 74		 jmp	 SHORT $LN1@LoadFloat_@4
$LN76@LoadFloat_@4:
  0022a	c6 45 f0 ed	 mov	 BYTE PTR __k$[ebp+20], -19 ; ffffffedH
  0022e	eb 6e		 jmp	 SHORT $LN1@LoadFloat_@4
$LN77@LoadFloat_@4:
  00230	88 5d ef	 mov	 BYTE PTR __k$[ebp+19], bl
  00233	eb 69		 jmp	 SHORT $LN1@LoadFloat_@4
$LN78@LoadFloat_@4:
  00235	88 4d ee	 mov	 BYTE PTR __k$[ebp+18], cl
  00238	eb 64		 jmp	 SHORT $LN1@LoadFloat_@4
$LN79@LoadFloat_@4:
  0023a	c6 45 ed ec	 mov	 BYTE PTR __k$[ebp+17], -20 ; ffffffecH
  0023e	eb 5e		 jmp	 SHORT $LN1@LoadFloat_@4
$LN80@LoadFloat_@4:
  00240	c6 45 ec ed	 mov	 BYTE PTR __k$[ebp+16], -19 ; ffffffedH
  00244	eb 58		 jmp	 SHORT $LN1@LoadFloat_@4
$LN81@LoadFloat_@4:
  00246	88 5d eb	 mov	 BYTE PTR __k$[ebp+15], bl
  00249	eb 53		 jmp	 SHORT $LN1@LoadFloat_@4
$LN82@LoadFloat_@4:
  0024b	88 4d ea	 mov	 BYTE PTR __k$[ebp+14], cl
  0024e	eb 4e		 jmp	 SHORT $LN1@LoadFloat_@4
$LN83@LoadFloat_@4:
  00250	c6 45 e9 ec	 mov	 BYTE PTR __k$[ebp+13], -20 ; ffffffecH
  00254	eb 48		 jmp	 SHORT $LN1@LoadFloat_@4
$LN84@LoadFloat_@4:
  00256	c6 45 e8 ed	 mov	 BYTE PTR __k$[ebp+12], -19 ; ffffffedH
  0025a	eb 42		 jmp	 SHORT $LN1@LoadFloat_@4
$LN85@LoadFloat_@4:
  0025c	88 5d e7	 mov	 BYTE PTR __k$[ebp+11], bl
  0025f	eb 3d		 jmp	 SHORT $LN1@LoadFloat_@4
$LN86@LoadFloat_@4:
  00261	88 4d e6	 mov	 BYTE PTR __k$[ebp+10], cl
  00264	eb 38		 jmp	 SHORT $LN1@LoadFloat_@4
$LN87@LoadFloat_@4:
  00266	c6 45 e5 ec	 mov	 BYTE PTR __k$[ebp+9], -20 ; ffffffecH
  0026a	eb 32		 jmp	 SHORT $LN1@LoadFloat_@4
$LN88@LoadFloat_@4:
  0026c	c6 45 e4 ed	 mov	 BYTE PTR __k$[ebp+8], -19 ; ffffffedH
  00270	eb 2c		 jmp	 SHORT $LN1@LoadFloat_@4
$LN89@LoadFloat_@4:
  00272	88 5d e3	 mov	 BYTE PTR __k$[ebp+7], bl
  00275	eb 27		 jmp	 SHORT $LN1@LoadFloat_@4
$LN90@LoadFloat_@4:
  00277	88 4d e2	 mov	 BYTE PTR __k$[ebp+6], cl
  0027a	eb 22		 jmp	 SHORT $LN1@LoadFloat_@4
$LN91@LoadFloat_@4:
  0027c	c6 45 e1 ec	 mov	 BYTE PTR __k$[ebp+5], -20 ; ffffffecH
  00280	eb 1c		 jmp	 SHORT $LN1@LoadFloat_@4
$LN92@LoadFloat_@4:
  00282	c6 45 e0 ed	 mov	 BYTE PTR __k$[ebp+4], -19 ; ffffffedH
  00286	eb 16		 jmp	 SHORT $LN1@LoadFloat_@4
$LN93@LoadFloat_@4:
  00288	c6 45 df ea	 mov	 BYTE PTR __k$[ebp+3], -22 ; ffffffeaH
  0028c	eb 10		 jmp	 SHORT $LN1@LoadFloat_@4
$LN94@LoadFloat_@4:
  0028e	c6 45 de eb	 mov	 BYTE PTR __k$[ebp+2], -21 ; ffffffebH
  00292	eb 0a		 jmp	 SHORT $LN1@LoadFloat_@4
$LN95@LoadFloat_@4:
  00294	c6 45 dd ec	 mov	 BYTE PTR __k$[ebp+1], -20 ; ffffffecH
  00298	eb 04		 jmp	 SHORT $LN1@LoadFloat_@4
$LN96@LoadFloat_@4:
  0029a	c6 45 dc ed	 mov	 BYTE PTR __k$[ebp], -19	; ffffffedH
$LN1@LoadFloat_@4:
  0029e	6a 06		 push	 6
  002a0	8d 45 dc	 lea	 eax, DWORD PTR __k$[ebp]
  002a3	c6 45 f5 00	 mov	 BYTE PTR __k$[ebp+25], 0
  002a7	5a		 pop	 edx
$LL104@LoadFloat_@4:
  002a8	81 30 ed ec eb
	ea		 xor	 DWORD PTR [eax], -353637139 ; eaebecedH
  002ae	83 c0 04	 add	 eax, 4
  002b1	4a		 dec	 edx
  002b2	75 f4		 jne	 SHORT $LL104@LoadFloat_@4

; 137  : 		return LoadFloat(_k, f);

  002b4	f3 0f 10 45 0c	 movss	 xmm0, DWORD PTR _f$[ebp]
  002b9	80 75 f4 ed	 xor	 BYTE PTR __k$[ebp+24], -19 ; ffffffedH
  002bd	51		 push	 ecx
  002be	8d 45 dc	 lea	 eax, DWORD PTR __k$[ebp]
  002c1	f3 0f 11 04 24	 movss	 DWORD PTR [esp], xmm0
  002c6	50		 push	 eax
  002c7	8b ce		 mov	 ecx, esi
  002c9	ff 15 00 00 00
	00		 call	 DWORD PTR __imp_?LoadFloat@ioINILoader@@QAEMPBDM@Z

; 138  : 	}

  002cf	8b 4d fc	 mov	 ecx, DWORD PTR __$ArrayPad$[ebp]
  002d2	5e		 pop	 esi
  002d3	33 cd		 xor	 ecx, ebp
  002d5	5b		 pop	 ebx
  002d6	e8 00 00 00 00	 call	 @__security_check_cookie@4
  002db	c9		 leave
  002dc	c2 08 00	 ret	 8
??$LoadFloat_e@$0BK@@ioINILoader@@QAEMAAY0BK@$$CBDM@Z ENDP ; ioINILoader::LoadFloat_e<26>
_TEXT	ENDS
PUBLIC	__$ArrayPad$
PUBLIC	??$LoadInt_e@$0BI@@ioINILoader@@QAEHAAY0BI@$$CBDH@Z ; ioINILoader::LoadInt_e<24>
EXTRN	__imp_?LoadInt@ioINILoader@@QAEHPBDH@Z:PROC
; Function compile flags: /Ogsp
;	COMDAT ??$LoadInt_e@$0BI@@ioINILoader@@QAEHAAY0BI@$$CBDH@Z
_TEXT	SEGMENT
__k$ = -32						; size = 24
__$ArrayPad$ = -4					; size = 4
_k$ = 8							; size = 4
_i$ = 12						; size = 4
??$LoadInt_e@$0BI@@ioINILoader@@QAEHAAY0BI@$$CBDH@Z PROC ; ioINILoader::LoadInt_e<24>, COMDAT
; _this$ = ecx

; 118  : 	{

  00000	55		 push	 ebp
  00001	8b ec		 mov	 ebp, esp
  00003	83 ec 20	 sub	 esp, 32			; 00000020H
  00006	a1 00 00 00 00	 mov	 eax, DWORD PTR ___security_cookie
  0000b	33 c5		 xor	 eax, ebp
  0000d	89 45 fc	 mov	 DWORD PTR __$ArrayPad$[ebp], eax
  00010	8b 45 08	 mov	 eax, DWORD PTR _k$[ebp]

; 119  : 		_ENCSTR(k, _k);

  00013	8a 10		 mov	 dl, BYTE PTR [eax]
  00015	53		 push	 ebx
  00016	56		 push	 esi
  00017	8b f1		 mov	 esi, ecx
  00019	84 d2		 test	 dl, dl
  0001b	0f 84 45 02 00
	00		 je	 $LN96@LoadInt_e
  00021	80 f2 ed	 xor	 dl, -19			; ffffffedH
  00024	88 55 e0	 mov	 BYTE PTR __k$[ebp], dl
  00027	8a 50 01	 mov	 dl, BYTE PTR [eax+1]
  0002a	84 d2		 test	 dl, dl
  0002c	0f 84 2e 02 00
	00		 je	 $LN95@LoadInt_e
  00032	b3 ec		 mov	 bl, -20			; ffffffecH
  00034	32 d3		 xor	 dl, bl
  00036	88 55 e1	 mov	 BYTE PTR __k$[ebp+1], dl
  00039	8a 50 02	 mov	 dl, BYTE PTR [eax+2]
  0003c	84 d2		 test	 dl, dl
  0003e	0f 84 16 02 00
	00		 je	 $LN94@LoadInt_e
  00044	b1 eb		 mov	 cl, -21			; ffffffebH
  00046	32 d1		 xor	 dl, cl
  00048	88 55 e2	 mov	 BYTE PTR __k$[ebp+2], dl
  0004b	8a 50 03	 mov	 dl, BYTE PTR [eax+3]
  0004e	84 d2		 test	 dl, dl
  00050	0f 84 fe 01 00
	00		 je	 $LN93@LoadInt_e
  00056	80 f2 ea	 xor	 dl, -22			; ffffffeaH
  00059	88 55 e3	 mov	 BYTE PTR __k$[ebp+3], dl
  0005c	8a 50 04	 mov	 dl, BYTE PTR [eax+4]
  0005f	84 d2		 test	 dl, dl
  00061	0f 84 e7 01 00
	00		 je	 $LN92@LoadInt_e
  00067	80 f2 ed	 xor	 dl, -19			; ffffffedH
  0006a	88 55 e4	 mov	 BYTE PTR __k$[ebp+4], dl
  0006d	8a 50 05	 mov	 dl, BYTE PTR [eax+5]
  00070	84 d2		 test	 dl, dl
  00072	0f 84 d1 01 00
	00		 je	 $LN91@LoadInt_e
  00078	32 d3		 xor	 dl, bl
  0007a	88 55 e5	 mov	 BYTE PTR __k$[ebp+5], dl
  0007d	8a 50 06	 mov	 dl, BYTE PTR [eax+6]
  00080	84 d2		 test	 dl, dl
  00082	0f 84 bc 01 00
	00		 je	 $LN90@LoadInt_e
  00088	32 d1		 xor	 dl, cl
  0008a	88 55 e6	 mov	 BYTE PTR __k$[ebp+6], dl
  0008d	8a 50 07	 mov	 dl, BYTE PTR [eax+7]
  00090	84 d2		 test	 dl, dl
  00092	0f 84 a6 01 00
	00		 je	 $LN89@LoadInt_e
  00098	80 f2 ea	 xor	 dl, -22			; ffffffeaH
  0009b	88 55 e7	 mov	 BYTE PTR __k$[ebp+7], dl
  0009e	8a 50 08	 mov	 dl, BYTE PTR [eax+8]
  000a1	84 d2		 test	 dl, dl
  000a3	0f 84 8f 01 00
	00		 je	 $LN88@LoadInt_e
  000a9	80 f2 ed	 xor	 dl, -19			; ffffffedH
  000ac	88 55 e8	 mov	 BYTE PTR __k$[ebp+8], dl
  000af	8a 50 09	 mov	 dl, BYTE PTR [eax+9]
  000b2	84 d2		 test	 dl, dl
  000b4	0f 84 79 01 00
	00		 je	 $LN87@LoadInt_e
  000ba	32 d3		 xor	 dl, bl
  000bc	88 55 e9	 mov	 BYTE PTR __k$[ebp+9], dl
  000bf	8a 50 0a	 mov	 dl, BYTE PTR [eax+10]
  000c2	84 d2		 test	 dl, dl
  000c4	0f 84 64 01 00
	00		 je	 $LN86@LoadInt_e
  000ca	32 d1		 xor	 dl, cl
  000cc	88 55 ea	 mov	 BYTE PTR __k$[ebp+10], dl
  000cf	8a 50 0b	 mov	 dl, BYTE PTR [eax+11]
  000d2	84 d2		 test	 dl, dl
  000d4	0f 84 4e 01 00
	00		 je	 $LN85@LoadInt_e
  000da	80 f2 ea	 xor	 dl, -22			; ffffffeaH
  000dd	88 55 eb	 mov	 BYTE PTR __k$[ebp+11], dl
  000e0	8a 50 0c	 mov	 dl, BYTE PTR [eax+12]
  000e3	84 d2		 test	 dl, dl
  000e5	0f 84 37 01 00
	00		 je	 $LN84@LoadInt_e
  000eb	80 f2 ed	 xor	 dl, -19			; ffffffedH
  000ee	88 55 ec	 mov	 BYTE PTR __k$[ebp+12], dl
  000f1	8a 50 0d	 mov	 dl, BYTE PTR [eax+13]
  000f4	84 d2		 test	 dl, dl
  000f6	0f 84 21 01 00
	00		 je	 $LN83@LoadInt_e
  000fc	32 d3		 xor	 dl, bl
  000fe	88 55 ed	 mov	 BYTE PTR __k$[ebp+13], dl
  00101	8a 50 0e	 mov	 dl, BYTE PTR [eax+14]
  00104	84 d2		 test	 dl, dl
  00106	0f 84 0c 01 00
	00		 je	 $LN82@LoadInt_e
  0010c	32 d1		 xor	 dl, cl
  0010e	88 55 ee	 mov	 BYTE PTR __k$[ebp+14], dl
  00111	8a 50 0f	 mov	 dl, BYTE PTR [eax+15]
  00114	84 d2		 test	 dl, dl
  00116	0f 84 f6 00 00
	00		 je	 $LN81@LoadInt_e
  0011c	80 f2 ea	 xor	 dl, -22			; ffffffeaH
  0011f	88 55 ef	 mov	 BYTE PTR __k$[ebp+15], dl
  00122	8a 50 10	 mov	 dl, BYTE PTR [eax+16]
  00125	84 d2		 test	 dl, dl
  00127	0f 84 df 00 00
	00		 je	 $LN80@LoadInt_e
  0012d	80 f2 ed	 xor	 dl, -19			; ffffffedH
  00130	88 55 f0	 mov	 BYTE PTR __k$[ebp+16], dl
  00133	8a 50 11	 mov	 dl, BYTE PTR [eax+17]
  00136	84 d2		 test	 dl, dl
  00138	0f 84 c9 00 00
	00		 je	 $LN79@LoadInt_e
  0013e	32 d3		 xor	 dl, bl
  00140	88 55 f1	 mov	 BYTE PTR __k$[ebp+17], dl
  00143	8a 50 12	 mov	 dl, BYTE PTR [eax+18]
  00146	84 d2		 test	 dl, dl
  00148	0f 84 b4 00 00
	00		 je	 $LN78@LoadInt_e
  0014e	32 d1		 xor	 dl, cl
  00150	88 55 f2	 mov	 BYTE PTR __k$[ebp+18], dl
  00153	8a 50 13	 mov	 dl, BYTE PTR [eax+19]
  00156	84 d2		 test	 dl, dl
  00158	0f 84 9e 00 00
	00		 je	 $LN77@LoadInt_e
  0015e	80 f2 ea	 xor	 dl, -22			; ffffffeaH
  00161	88 55 f3	 mov	 BYTE PTR __k$[ebp+19], dl
  00164	8a 50 14	 mov	 dl, BYTE PTR [eax+20]
  00167	84 d2		 test	 dl, dl
  00169	0f 84 87 00 00
	00		 je	 $LN76@LoadInt_e
  0016f	80 f2 ed	 xor	 dl, -19			; ffffffedH
  00172	88 55 f4	 mov	 BYTE PTR __k$[ebp+20], dl
  00175	8a 50 15	 mov	 dl, BYTE PTR [eax+21]
  00178	84 d2		 test	 dl, dl
  0017a	74 75		 je	 SHORT $LN75@LoadInt_e
  0017c	32 d3		 xor	 dl, bl
  0017e	88 55 f5	 mov	 BYTE PTR __k$[ebp+21], dl
  00181	8a 50 16	 mov	 dl, BYTE PTR [eax+22]
  00184	84 d2		 test	 dl, dl
  00186	74 64		 je	 SHORT $LN74@LoadInt_e
  00188	32 d1		 xor	 dl, cl
  0018a	80 78 17 00	 cmp	 BYTE PTR [eax+23], 0
  0018e	88 55 f6	 mov	 BYTE PTR __k$[ebp+22], dl
  00191	0f 84 d3 00 00
	00		 je	 $LN1@LoadInt_e
  00197	8a 50 18	 mov	 dl, BYTE PTR [eax+24]
  0019a	84 d2		 test	 dl, dl
  0019c	74 48		 je	 SHORT $LN72@LoadInt_e
  0019e	80 f2 ed	 xor	 dl, -19			; ffffffedH
  001a1	88 55 f8	 mov	 BYTE PTR __k$[ebp+24], dl
  001a4	8a 50 19	 mov	 dl, BYTE PTR [eax+25]
  001a7	84 d2		 test	 dl, dl
  001a9	74 33		 je	 SHORT $LN71@LoadInt_e
  001ab	32 d3		 xor	 dl, bl
  001ad	88 55 f9	 mov	 BYTE PTR __k$[ebp+25], dl
  001b0	8a 50 1a	 mov	 dl, BYTE PTR [eax+26]
  001b3	84 d2		 test	 dl, dl
  001b5	74 1f		 je	 SHORT $LN70@LoadInt_e
  001b7	8a 40 1b	 mov	 al, BYTE PTR [eax+27]
  001ba	32 d1		 xor	 dl, cl
  001bc	88 55 fa	 mov	 BYTE PTR __k$[ebp+26], dl
  001bf	84 c0		 test	 al, al
  001c1	74 0a		 je	 SHORT $LN69@LoadInt_e
  001c3	34 ea		 xor	 al, -22			; ffffffeaH
  001c5	88 45 fb	 mov	 BYTE PTR __k$[ebp+27], al
  001c8	e9 9d 00 00 00	 jmp	 $LN1@LoadInt_e
$LN69@LoadInt_e:
  001cd	c6 45 fb ea	 mov	 BYTE PTR __k$[ebp+27], -22 ; ffffffeaH
  001d1	e9 94 00 00 00	 jmp	 $LN1@LoadInt_e
$LN70@LoadInt_e:
  001d6	88 4d fa	 mov	 BYTE PTR __k$[ebp+26], cl
  001d9	e9 8c 00 00 00	 jmp	 $LN1@LoadInt_e
$LN71@LoadInt_e:
  001de	88 5d f9	 mov	 BYTE PTR __k$[ebp+25], bl
  001e1	e9 84 00 00 00	 jmp	 $LN1@LoadInt_e
$LN72@LoadInt_e:
  001e6	c6 45 f8 ed	 mov	 BYTE PTR __k$[ebp+24], -19 ; ffffffedH
  001ea	eb 7e		 jmp	 SHORT $LN1@LoadInt_e
$LN74@LoadInt_e:
  001ec	88 4d f6	 mov	 BYTE PTR __k$[ebp+22], cl
  001ef	eb 79		 jmp	 SHORT $LN1@LoadInt_e
$LN75@LoadInt_e:
  001f1	88 5d f5	 mov	 BYTE PTR __k$[ebp+21], bl
  001f4	eb 74		 jmp	 SHORT $LN1@LoadInt_e
$LN76@LoadInt_e:
  001f6	c6 45 f4 ed	 mov	 BYTE PTR __k$[ebp+20], -19 ; ffffffedH
  001fa	eb 6e		 jmp	 SHORT $LN1@LoadInt_e
$LN77@LoadInt_e:
  001fc	c6 45 f3 ea	 mov	 BYTE PTR __k$[ebp+19], -22 ; ffffffeaH
  00200	eb 68		 jmp	 SHORT $LN1@LoadInt_e
$LN78@LoadInt_e:
  00202	88 4d f2	 mov	 BYTE PTR __k$[ebp+18], cl
  00205	eb 63		 jmp	 SHORT $LN1@LoadInt_e
$LN79@LoadInt_e:
  00207	88 5d f1	 mov	 BYTE PTR __k$[ebp+17], bl
  0020a	eb 5e		 jmp	 SHORT $LN1@LoadInt_e
$LN80@LoadInt_e:
  0020c	c6 45 f0 ed	 mov	 BYTE PTR __k$[ebp+16], -19 ; ffffffedH
  00210	eb 58		 jmp	 SHORT $LN1@LoadInt_e
$LN81@LoadInt_e:
  00212	c6 45 ef ea	 mov	 BYTE PTR __k$[ebp+15], -22 ; ffffffeaH
  00216	eb 52		 jmp	 SHORT $LN1@LoadInt_e
$LN82@LoadInt_e:
  00218	88 4d ee	 mov	 BYTE PTR __k$[ebp+14], cl
  0021b	eb 4d		 jmp	 SHORT $LN1@LoadInt_e
$LN83@LoadInt_e:
  0021d	88 5d ed	 mov	 BYTE PTR __k$[ebp+13], bl
  00220	eb 48		 jmp	 SHORT $LN1@LoadInt_e
$LN84@LoadInt_e:
  00222	c6 45 ec ed	 mov	 BYTE PTR __k$[ebp+12], -19 ; ffffffedH
  00226	eb 42		 jmp	 SHORT $LN1@LoadInt_e
$LN85@LoadInt_e:
  00228	c6 45 eb ea	 mov	 BYTE PTR __k$[ebp+11], -22 ; ffffffeaH
  0022c	eb 3c		 jmp	 SHORT $LN1@LoadInt_e
$LN86@LoadInt_e:
  0022e	88 4d ea	 mov	 BYTE PTR __k$[ebp+10], cl
  00231	eb 37		 jmp	 SHORT $LN1@LoadInt_e
$LN87@LoadInt_e:
  00233	88 5d e9	 mov	 BYTE PTR __k$[ebp+9], bl
  00236	eb 32		 jmp	 SHORT $LN1@LoadInt_e
$LN88@LoadInt_e:
  00238	c6 45 e8 ed	 mov	 BYTE PTR __k$[ebp+8], -19 ; ffffffedH
  0023c	eb 2c		 jmp	 SHORT $LN1@LoadInt_e
$LN89@LoadInt_e:
  0023e	c6 45 e7 ea	 mov	 BYTE PTR __k$[ebp+7], -22 ; ffffffeaH
  00242	eb 26		 jmp	 SHORT $LN1@LoadInt_e
$LN90@LoadInt_e:
  00244	88 4d e6	 mov	 BYTE PTR __k$[ebp+6], cl
  00247	eb 21		 jmp	 SHORT $LN1@LoadInt_e
$LN91@LoadInt_e:
  00249	88 5d e5	 mov	 BYTE PTR __k$[ebp+5], bl
  0024c	eb 1c		 jmp	 SHORT $LN1@LoadInt_e
$LN92@LoadInt_e:
  0024e	c6 45 e4 ed	 mov	 BYTE PTR __k$[ebp+4], -19 ; ffffffedH
  00252	eb 16		 jmp	 SHORT $LN1@LoadInt_e
$LN93@LoadInt_e:
  00254	c6 45 e3 ea	 mov	 BYTE PTR __k$[ebp+3], -22 ; ffffffeaH
  00258	eb 10		 jmp	 SHORT $LN1@LoadInt_e
$LN94@LoadInt_e:
  0025a	c6 45 e2 eb	 mov	 BYTE PTR __k$[ebp+2], -21 ; ffffffebH
  0025e	eb 0a		 jmp	 SHORT $LN1@LoadInt_e
$LN95@LoadInt_e:
  00260	c6 45 e1 ec	 mov	 BYTE PTR __k$[ebp+1], -20 ; ffffffecH
  00264	eb 04		 jmp	 SHORT $LN1@LoadInt_e
$LN96@LoadInt_e:
  00266	c6 45 e0 ed	 mov	 BYTE PTR __k$[ebp], -19	; ffffffedH
$LN1@LoadInt_e:
  0026a	6a 05		 push	 5
  0026c	8d 45 e0	 lea	 eax, DWORD PTR __k$[ebp]
  0026f	c6 45 f7 00	 mov	 BYTE PTR __k$[ebp+23], 0
  00273	5a		 pop	 edx
$LL104@LoadInt_e:
  00274	81 30 ed ec eb
	ea		 xor	 DWORD PTR [eax], -353637139 ; eaebecedH
  0027a	83 c0 04	 add	 eax, 4
  0027d	4a		 dec	 edx
  0027e	75 f4		 jne	 SHORT $LL104@LoadInt_e
  00280	6a 14		 push	 20			; 00000014H
  00282	58		 pop	 eax
$LL101@LoadInt_e:
  00283	8b c8		 mov	 ecx, eax
  00285	81 e1 03 00 00
	80		 and	 ecx, -2147483645	; 80000003H
  0028b	79 05		 jns	 SHORT $LN111@LoadInt_e
  0028d	49		 dec	 ecx
  0028e	83 c9 fc	 or	 ecx, -4			; fffffffcH
  00291	41		 inc	 ecx
$LN111@LoadInt_e:
  00292	b2 ed		 mov	 dl, -19			; ffffffedH
  00294	2a d1		 sub	 dl, cl
  00296	30 54 05 e0	 xor	 BYTE PTR __k$[ebp+eax], dl
  0029a	40		 inc	 eax
  0029b	83 f8 17	 cmp	 eax, 23			; 00000017H
  0029e	7c e3		 jl	 SHORT $LL101@LoadInt_e

; 120  : 		return LoadInt(_k, i);

  002a0	ff 75 0c	 push	 DWORD PTR _i$[ebp]
  002a3	8d 45 e0	 lea	 eax, DWORD PTR __k$[ebp]
  002a6	50		 push	 eax
  002a7	8b ce		 mov	 ecx, esi
  002a9	ff 15 00 00 00
	00		 call	 DWORD PTR __imp_?LoadInt@ioINILoader@@QAEHPBDH@Z

; 121  : 	}

  002af	8b 4d fc	 mov	 ecx, DWORD PTR __$ArrayPad$[ebp]
  002b2	5e		 pop	 esi
  002b3	33 cd		 xor	 ecx, ebp
  002b5	5b		 pop	 ebx
  002b6	e8 00 00 00 00	 call	 @__security_check_cookie@4
  002bb	c9		 leave
  002bc	c2 08 00	 ret	 8
??$LoadInt_e@$0BI@@ioINILoader@@QAEHAAY0BI@$$CBDH@Z ENDP ; ioINILoader::LoadInt_e<24>
_TEXT	ENDS
PUBLIC	__$ArrayPad$
PUBLIC	??$LoadFloat_e@$0BB@@ioINILoader@@QAEMAAY0BB@$$CBDM@Z ; ioINILoader::LoadFloat_e<17>
; Function compile flags: /Ogsp
;	COMDAT ??$LoadFloat_e@$0BB@@ioINILoader@@QAEMAAY0BB@$$CBDM@Z
_TEXT	SEGMENT
__k$ = -28						; size = 17
__$ArrayPad$ = -4					; size = 4
_k$ = 8							; size = 4
_f$ = 12						; size = 4
??$LoadFloat_e@$0BB@@ioINILoader@@QAEMAAY0BB@$$CBDM@Z PROC ; ioINILoader::LoadFloat_e<17>, COMDAT
; _this$ = ecx

; 135  : 	{

  00000	55		 push	 ebp
  00001	8b ec		 mov	 ebp, esp
  00003	83 ec 1c	 sub	 esp, 28			; 0000001cH
  00006	a1 00 00 00 00	 mov	 eax, DWORD PTR ___security_cookie
  0000b	33 c5		 xor	 eax, ebp
  0000d	89 45 fc	 mov	 DWORD PTR __$ArrayPad$[ebp], eax
  00010	8b 45 08	 mov	 eax, DWORD PTR _k$[ebp]

; 136  : 		_ENCSTR(k, _k);

  00013	8a 10		 mov	 dl, BYTE PTR [eax]
  00015	56		 push	 esi
  00016	8b f1		 mov	 esi, ecx
  00018	84 d2		 test	 dl, dl
  0001a	0f 84 a7 01 00
	00		 je	 $LN96@LoadFloat_@5
  00020	80 f2 ed	 xor	 dl, -19			; ffffffedH
  00023	88 55 e4	 mov	 BYTE PTR __k$[ebp], dl
  00026	8a 50 01	 mov	 dl, BYTE PTR [eax+1]
  00029	84 d2		 test	 dl, dl
  0002b	0f 84 90 01 00
	00		 je	 $LN95@LoadFloat_@5
  00031	b1 ec		 mov	 cl, -20			; ffffffecH
  00033	32 d1		 xor	 dl, cl
  00035	88 55 e5	 mov	 BYTE PTR __k$[ebp+1], dl
  00038	8a 50 02	 mov	 dl, BYTE PTR [eax+2]
  0003b	84 d2		 test	 dl, dl
  0003d	0f 84 78 01 00
	00		 je	 $LN94@LoadFloat_@5
  00043	80 f2 eb	 xor	 dl, -21			; ffffffebH
  00046	88 55 e6	 mov	 BYTE PTR __k$[ebp+2], dl
  00049	8a 50 03	 mov	 dl, BYTE PTR [eax+3]
  0004c	84 d2		 test	 dl, dl
  0004e	0f 84 61 01 00
	00		 je	 $LN93@LoadFloat_@5
  00054	80 f2 ea	 xor	 dl, -22			; ffffffeaH
  00057	88 55 e7	 mov	 BYTE PTR __k$[ebp+3], dl
  0005a	8a 50 04	 mov	 dl, BYTE PTR [eax+4]
  0005d	84 d2		 test	 dl, dl
  0005f	0f 84 4a 01 00
	00		 je	 $LN92@LoadFloat_@5
  00065	80 f2 ed	 xor	 dl, -19			; ffffffedH
  00068	88 55 e8	 mov	 BYTE PTR __k$[ebp+4], dl
  0006b	8a 50 05	 mov	 dl, BYTE PTR [eax+5]
  0006e	84 d2		 test	 dl, dl
  00070	0f 84 34 01 00
	00		 je	 $LN91@LoadFloat_@5
  00076	32 d1		 xor	 dl, cl
  00078	88 55 e9	 mov	 BYTE PTR __k$[ebp+5], dl
  0007b	8a 50 06	 mov	 dl, BYTE PTR [eax+6]
  0007e	84 d2		 test	 dl, dl
  00080	0f 84 1e 01 00
	00		 je	 $LN90@LoadFloat_@5
  00086	80 f2 eb	 xor	 dl, -21			; ffffffebH
  00089	88 55 ea	 mov	 BYTE PTR __k$[ebp+6], dl
  0008c	8a 50 07	 mov	 dl, BYTE PTR [eax+7]
  0008f	84 d2		 test	 dl, dl
  00091	0f 84 07 01 00
	00		 je	 $LN89@LoadFloat_@5
  00097	80 f2 ea	 xor	 dl, -22			; ffffffeaH
  0009a	88 55 eb	 mov	 BYTE PTR __k$[ebp+7], dl
  0009d	8a 50 08	 mov	 dl, BYTE PTR [eax+8]
  000a0	84 d2		 test	 dl, dl
  000a2	0f 84 f0 00 00
	00		 je	 $LN88@LoadFloat_@5
  000a8	80 f2 ed	 xor	 dl, -19			; ffffffedH
  000ab	88 55 ec	 mov	 BYTE PTR __k$[ebp+8], dl
  000ae	8a 50 09	 mov	 dl, BYTE PTR [eax+9]
  000b1	84 d2		 test	 dl, dl
  000b3	0f 84 da 00 00
	00		 je	 $LN87@LoadFloat_@5
  000b9	32 d1		 xor	 dl, cl
  000bb	88 55 ed	 mov	 BYTE PTR __k$[ebp+9], dl
  000be	8a 50 0a	 mov	 dl, BYTE PTR [eax+10]
  000c1	84 d2		 test	 dl, dl
  000c3	0f 84 c4 00 00
	00		 je	 $LN86@LoadFloat_@5
  000c9	80 f2 eb	 xor	 dl, -21			; ffffffebH
  000cc	88 55 ee	 mov	 BYTE PTR __k$[ebp+10], dl
  000cf	8a 50 0b	 mov	 dl, BYTE PTR [eax+11]
  000d2	84 d2		 test	 dl, dl
  000d4	0f 84 ad 00 00
	00		 je	 $LN85@LoadFloat_@5
  000da	80 f2 ea	 xor	 dl, -22			; ffffffeaH
  000dd	88 55 ef	 mov	 BYTE PTR __k$[ebp+11], dl
  000e0	8a 50 0c	 mov	 dl, BYTE PTR [eax+12]
  000e3	84 d2		 test	 dl, dl
  000e5	0f 84 96 00 00
	00		 je	 $LN84@LoadFloat_@5
  000eb	80 f2 ed	 xor	 dl, -19			; ffffffedH
  000ee	88 55 f0	 mov	 BYTE PTR __k$[ebp+12], dl
  000f1	8a 50 0d	 mov	 dl, BYTE PTR [eax+13]
  000f4	84 d2		 test	 dl, dl
  000f6	0f 84 80 00 00
	00		 je	 $LN83@LoadFloat_@5
  000fc	32 d1		 xor	 dl, cl
  000fe	88 55 f1	 mov	 BYTE PTR __k$[ebp+13], dl
  00101	8a 50 0e	 mov	 dl, BYTE PTR [eax+14]
  00104	84 d2		 test	 dl, dl
  00106	74 6e		 je	 SHORT $LN82@LoadFloat_@5
  00108	80 f2 eb	 xor	 dl, -21			; ffffffebH
  0010b	88 55 f2	 mov	 BYTE PTR __k$[ebp+14], dl
  0010e	8a 50 0f	 mov	 dl, BYTE PTR [eax+15]
  00111	84 d2		 test	 dl, dl
  00113	74 5b		 je	 SHORT $LN81@LoadFloat_@5
  00115	80 f2 ea	 xor	 dl, -22			; ffffffeaH
  00118	80 78 10 00	 cmp	 BYTE PTR [eax+16], 0
  0011c	88 55 f3	 mov	 BYTE PTR __k$[ebp+15], dl
  0011f	0f 84 a6 00 00
	00		 je	 $LN1@LoadFloat_@5
  00125	8a 50 11	 mov	 dl, BYTE PTR [eax+17]
  00128	84 d2		 test	 dl, dl
  0012a	74 3f		 je	 SHORT $LN79@LoadFloat_@5
  0012c	32 d1		 xor	 dl, cl
  0012e	88 55 f5	 mov	 BYTE PTR __k$[ebp+17], dl
  00131	8a 50 12	 mov	 dl, BYTE PTR [eax+18]
  00134	84 d2		 test	 dl, dl
  00136	74 2d		 je	 SHORT $LN78@LoadFloat_@5
  00138	80 f2 eb	 xor	 dl, -21			; ffffffebH
  0013b	88 55 f6	 mov	 BYTE PTR __k$[ebp+18], dl
  0013e	8a 50 13	 mov	 dl, BYTE PTR [eax+19]
  00141	84 d2		 test	 dl, dl
  00143	74 1a		 je	 SHORT $LN77@LoadFloat_@5
  00145	8a 40 14	 mov	 al, BYTE PTR [eax+20]
  00148	80 f2 ea	 xor	 dl, -22			; ffffffeaH
  0014b	88 55 f7	 mov	 BYTE PTR __k$[ebp+19], dl
  0014e	84 c0		 test	 al, al
  00150	74 07		 je	 SHORT $LN76@LoadFloat_@5
  00152	34 ed		 xor	 al, -19			; ffffffedH
  00154	88 45 f8	 mov	 BYTE PTR __k$[ebp+20], al
  00157	eb 72		 jmp	 SHORT $LN1@LoadFloat_@5
$LN76@LoadFloat_@5:
  00159	c6 45 f8 ed	 mov	 BYTE PTR __k$[ebp+20], -19 ; ffffffedH
  0015d	eb 6c		 jmp	 SHORT $LN1@LoadFloat_@5
$LN77@LoadFloat_@5:
  0015f	c6 45 f7 ea	 mov	 BYTE PTR __k$[ebp+19], -22 ; ffffffeaH
  00163	eb 66		 jmp	 SHORT $LN1@LoadFloat_@5
$LN78@LoadFloat_@5:
  00165	c6 45 f6 eb	 mov	 BYTE PTR __k$[ebp+18], -21 ; ffffffebH
  00169	eb 60		 jmp	 SHORT $LN1@LoadFloat_@5
$LN79@LoadFloat_@5:
  0016b	88 4d f5	 mov	 BYTE PTR __k$[ebp+17], cl
  0016e	eb 5b		 jmp	 SHORT $LN1@LoadFloat_@5
$LN81@LoadFloat_@5:
  00170	c6 45 f3 ea	 mov	 BYTE PTR __k$[ebp+15], -22 ; ffffffeaH
  00174	eb 55		 jmp	 SHORT $LN1@LoadFloat_@5
$LN82@LoadFloat_@5:
  00176	c6 45 f2 eb	 mov	 BYTE PTR __k$[ebp+14], -21 ; ffffffebH
  0017a	eb 4f		 jmp	 SHORT $LN1@LoadFloat_@5
$LN83@LoadFloat_@5:
  0017c	88 4d f1	 mov	 BYTE PTR __k$[ebp+13], cl
  0017f	eb 4a		 jmp	 SHORT $LN1@LoadFloat_@5
$LN84@LoadFloat_@5:
  00181	c6 45 f0 ed	 mov	 BYTE PTR __k$[ebp+12], -19 ; ffffffedH
  00185	eb 44		 jmp	 SHORT $LN1@LoadFloat_@5
$LN85@LoadFloat_@5:
  00187	c6 45 ef ea	 mov	 BYTE PTR __k$[ebp+11], -22 ; ffffffeaH
  0018b	eb 3e		 jmp	 SHORT $LN1@LoadFloat_@5
$LN86@LoadFloat_@5:
  0018d	c6 45 ee eb	 mov	 BYTE PTR __k$[ebp+10], -21 ; ffffffebH
  00191	eb 38		 jmp	 SHORT $LN1@LoadFloat_@5
$LN87@LoadFloat_@5:
  00193	88 4d ed	 mov	 BYTE PTR __k$[ebp+9], cl
  00196	eb 33		 jmp	 SHORT $LN1@LoadFloat_@5
$LN88@LoadFloat_@5:
  00198	c6 45 ec ed	 mov	 BYTE PTR __k$[ebp+8], -19 ; ffffffedH
  0019c	eb 2d		 jmp	 SHORT $LN1@LoadFloat_@5
$LN89@LoadFloat_@5:
  0019e	c6 45 eb ea	 mov	 BYTE PTR __k$[ebp+7], -22 ; ffffffeaH
  001a2	eb 27		 jmp	 SHORT $LN1@LoadFloat_@5
$LN90@LoadFloat_@5:
  001a4	c6 45 ea eb	 mov	 BYTE PTR __k$[ebp+6], -21 ; ffffffebH
  001a8	eb 21		 jmp	 SHORT $LN1@LoadFloat_@5
$LN91@LoadFloat_@5:
  001aa	88 4d e9	 mov	 BYTE PTR __k$[ebp+5], cl
  001ad	eb 1c		 jmp	 SHORT $LN1@LoadFloat_@5
$LN92@LoadFloat_@5:
  001af	c6 45 e8 ed	 mov	 BYTE PTR __k$[ebp+4], -19 ; ffffffedH
  001b3	eb 16		 jmp	 SHORT $LN1@LoadFloat_@5
$LN93@LoadFloat_@5:
  001b5	c6 45 e7 ea	 mov	 BYTE PTR __k$[ebp+3], -22 ; ffffffeaH
  001b9	eb 10		 jmp	 SHORT $LN1@LoadFloat_@5
$LN94@LoadFloat_@5:
  001bb	c6 45 e6 eb	 mov	 BYTE PTR __k$[ebp+2], -21 ; ffffffebH
  001bf	eb 0a		 jmp	 SHORT $LN1@LoadFloat_@5
$LN95@LoadFloat_@5:
  001c1	c6 45 e5 ec	 mov	 BYTE PTR __k$[ebp+1], -20 ; ffffffecH
  001c5	eb 04		 jmp	 SHORT $LN1@LoadFloat_@5
$LN96@LoadFloat_@5:
  001c7	c6 45 e4 ed	 mov	 BYTE PTR __k$[ebp], -19	; ffffffedH
$LN1@LoadFloat_@5:
  001cb	6a 04		 push	 4
  001cd	8d 45 e4	 lea	 eax, DWORD PTR __k$[ebp]
  001d0	c6 45 f4 00	 mov	 BYTE PTR __k$[ebp+16], 0
  001d4	5a		 pop	 edx
$LL104@LoadFloat_@5:
  001d5	81 30 ed ec eb
	ea		 xor	 DWORD PTR [eax], -353637139 ; eaebecedH
  001db	83 c0 04	 add	 eax, 4
  001de	4a		 dec	 edx
  001df	75 f4		 jne	 SHORT $LL104@LoadFloat_@5

; 137  : 		return LoadFloat(_k, f);

  001e1	f3 0f 10 45 0c	 movss	 xmm0, DWORD PTR _f$[ebp]
  001e6	51		 push	 ecx
  001e7	8d 45 e4	 lea	 eax, DWORD PTR __k$[ebp]
  001ea	f3 0f 11 04 24	 movss	 DWORD PTR [esp], xmm0
  001ef	50		 push	 eax
  001f0	8b ce		 mov	 ecx, esi
  001f2	ff 15 00 00 00
	00		 call	 DWORD PTR __imp_?LoadFloat@ioINILoader@@QAEMPBDM@Z

; 138  : 	}

  001f8	8b 4d fc	 mov	 ecx, DWORD PTR __$ArrayPad$[ebp]
  001fb	33 cd		 xor	 ecx, ebp
  001fd	5e		 pop	 esi
  001fe	e8 00 00 00 00	 call	 @__security_check_cookie@4
  00203	c9		 leave
  00204	c2 08 00	 ret	 8
??$LoadFloat_e@$0BB@@ioINILoader@@QAEMAAY0BB@$$CBDM@Z ENDP ; ioINILoader::LoadFloat_e<17>
_TEXT	ENDS
PUBLIC	__$ArrayPad$
PUBLIC	??$LoadInt_e@$0BF@@ioINILoader@@QAEHAAY0BF@$$CBDH@Z ; ioINILoader::LoadInt_e<21>
; Function compile flags: /Ogsp
;	COMDAT ??$LoadInt_e@$0BF@@ioINILoader@@QAEHAAY0BF@$$CBDH@Z
_TEXT	SEGMENT
__k$ = -32						; size = 21
__$ArrayPad$ = -4					; size = 4
_k$ = 8							; size = 4
_i$ = 12						; size = 4
??$LoadInt_e@$0BF@@ioINILoader@@QAEHAAY0BF@$$CBDH@Z PROC ; ioINILoader::LoadInt_e<21>, COMDAT
; _this$ = ecx

; 118  : 	{

  00000	55		 push	 ebp
  00001	8b ec		 mov	 ebp, esp
  00003	83 ec 20	 sub	 esp, 32			; 00000020H
  00006	a1 00 00 00 00	 mov	 eax, DWORD PTR ___security_cookie
  0000b	33 c5		 xor	 eax, ebp
  0000d	89 45 fc	 mov	 DWORD PTR __$ArrayPad$[ebp], eax
  00010	8b 45 08	 mov	 eax, DWORD PTR _k$[ebp]

; 119  : 		_ENCSTR(k, _k);

  00013	8a 10		 mov	 dl, BYTE PTR [eax]
  00015	53		 push	 ebx
  00016	56		 push	 esi
  00017	8b f1		 mov	 esi, ecx
  00019	84 d2		 test	 dl, dl
  0001b	0f 84 f7 01 00
	00		 je	 $LN96@LoadInt_e@2
  00021	80 f2 ed	 xor	 dl, -19			; ffffffedH
  00024	88 55 e0	 mov	 BYTE PTR __k$[ebp], dl
  00027	8a 50 01	 mov	 dl, BYTE PTR [eax+1]
  0002a	84 d2		 test	 dl, dl
  0002c	0f 84 e0 01 00
	00		 je	 $LN95@LoadInt_e@2
  00032	b1 ec		 mov	 cl, -20			; ffffffecH
  00034	32 d1		 xor	 dl, cl
  00036	88 55 e1	 mov	 BYTE PTR __k$[ebp+1], dl
  00039	8a 50 02	 mov	 dl, BYTE PTR [eax+2]
  0003c	84 d2		 test	 dl, dl
  0003e	0f 84 c8 01 00
	00		 je	 $LN94@LoadInt_e@2
  00044	b3 eb		 mov	 bl, -21			; ffffffebH
  00046	32 d3		 xor	 dl, bl
  00048	88 55 e2	 mov	 BYTE PTR __k$[ebp+2], dl
  0004b	8a 50 03	 mov	 dl, BYTE PTR [eax+3]
  0004e	84 d2		 test	 dl, dl
  00050	0f 84 b0 01 00
	00		 je	 $LN93@LoadInt_e@2
  00056	80 f2 ea	 xor	 dl, -22			; ffffffeaH
  00059	88 55 e3	 mov	 BYTE PTR __k$[ebp+3], dl
  0005c	8a 50 04	 mov	 dl, BYTE PTR [eax+4]
  0005f	84 d2		 test	 dl, dl
  00061	0f 84 99 01 00
	00		 je	 $LN92@LoadInt_e@2
  00067	80 f2 ed	 xor	 dl, -19			; ffffffedH
  0006a	88 55 e4	 mov	 BYTE PTR __k$[ebp+4], dl
  0006d	8a 50 05	 mov	 dl, BYTE PTR [eax+5]
  00070	84 d2		 test	 dl, dl
  00072	0f 84 83 01 00
	00		 je	 $LN91@LoadInt_e@2
  00078	32 d1		 xor	 dl, cl
  0007a	88 55 e5	 mov	 BYTE PTR __k$[ebp+5], dl
  0007d	8a 50 06	 mov	 dl, BYTE PTR [eax+6]
  00080	84 d2		 test	 dl, dl
  00082	0f 84 6e 01 00
	00		 je	 $LN90@LoadInt_e@2
  00088	32 d3		 xor	 dl, bl
  0008a	88 55 e6	 mov	 BYTE PTR __k$[ebp+6], dl
  0008d	8a 50 07	 mov	 dl, BYTE PTR [eax+7]
  00090	84 d2		 test	 dl, dl
  00092	0f 84 58 01 00
	00		 je	 $LN89@LoadInt_e@2
  00098	80 f2 ea	 xor	 dl, -22			; ffffffeaH
  0009b	88 55 e7	 mov	 BYTE PTR __k$[ebp+7], dl
  0009e	8a 50 08	 mov	 dl, BYTE PTR [eax+8]
  000a1	84 d2		 test	 dl, dl
  000a3	0f 84 41 01 00
	00		 je	 $LN88@LoadInt_e@2
  000a9	80 f2 ed	 xor	 dl, -19			; ffffffedH
  000ac	88 55 e8	 mov	 BYTE PTR __k$[ebp+8], dl
  000af	8a 50 09	 mov	 dl, BYTE PTR [eax+9]
  000b2	84 d2		 test	 dl, dl
  000b4	0f 84 2b 01 00
	00		 je	 $LN87@LoadInt_e@2
  000ba	32 d1		 xor	 dl, cl
  000bc	88 55 e9	 mov	 BYTE PTR __k$[ebp+9], dl
  000bf	8a 50 0a	 mov	 dl, BYTE PTR [eax+10]
  000c2	84 d2		 test	 dl, dl
  000c4	0f 84 16 01 00
	00		 je	 $LN86@LoadInt_e@2
  000ca	32 d3		 xor	 dl, bl
  000cc	88 55 ea	 mov	 BYTE PTR __k$[ebp+10], dl
  000cf	8a 50 0b	 mov	 dl, BYTE PTR [eax+11]
  000d2	84 d2		 test	 dl, dl
  000d4	0f 84 00 01 00
	00		 je	 $LN85@LoadInt_e@2
  000da	80 f2 ea	 xor	 dl, -22			; ffffffeaH
  000dd	88 55 eb	 mov	 BYTE PTR __k$[ebp+11], dl
  000e0	8a 50 0c	 mov	 dl, BYTE PTR [eax+12]
  000e3	84 d2		 test	 dl, dl
  000e5	0f 84 e9 00 00
	00		 je	 $LN84@LoadInt_e@2
  000eb	80 f2 ed	 xor	 dl, -19			; ffffffedH
  000ee	88 55 ec	 mov	 BYTE PTR __k$[ebp+12], dl
  000f1	8a 50 0d	 mov	 dl, BYTE PTR [eax+13]
  000f4	84 d2		 test	 dl, dl
  000f6	0f 84 d3 00 00
	00		 je	 $LN83@LoadInt_e@2
  000fc	32 d1		 xor	 dl, cl
  000fe	88 55 ed	 mov	 BYTE PTR __k$[ebp+13], dl
  00101	8a 50 0e	 mov	 dl, BYTE PTR [eax+14]
  00104	84 d2		 test	 dl, dl
  00106	0f 84 be 00 00
	00		 je	 $LN82@LoadInt_e@2
  0010c	32 d3		 xor	 dl, bl
  0010e	88 55 ee	 mov	 BYTE PTR __k$[ebp+14], dl
  00111	8a 50 0f	 mov	 dl, BYTE PTR [eax+15]
  00114	84 d2		 test	 dl, dl
  00116	0f 84 a8 00 00
	00		 je	 $LN81@LoadInt_e@2
  0011c	80 f2 ea	 xor	 dl, -22			; ffffffeaH
  0011f	88 55 ef	 mov	 BYTE PTR __k$[ebp+15], dl
  00122	8a 50 10	 mov	 dl, BYTE PTR [eax+16]
  00125	84 d2		 test	 dl, dl
  00127	0f 84 91 00 00
	00		 je	 $LN80@LoadInt_e@2
  0012d	80 f2 ed	 xor	 dl, -19			; ffffffedH
  00130	88 55 f0	 mov	 BYTE PTR __k$[ebp+16], dl
  00133	8a 50 11	 mov	 dl, BYTE PTR [eax+17]
  00136	84 d2		 test	 dl, dl
  00138	74 7f		 je	 SHORT $LN79@LoadInt_e@2
  0013a	32 d1		 xor	 dl, cl
  0013c	88 55 f1	 mov	 BYTE PTR __k$[ebp+17], dl
  0013f	8a 50 12	 mov	 dl, BYTE PTR [eax+18]
  00142	84 d2		 test	 dl, dl
  00144	74 6e		 je	 SHORT $LN78@LoadInt_e@2
  00146	32 d3		 xor	 dl, bl
  00148	88 55 f2	 mov	 BYTE PTR __k$[ebp+18], dl
  0014b	8a 50 13	 mov	 dl, BYTE PTR [eax+19]
  0014e	84 d2		 test	 dl, dl
  00150	74 5c		 je	 SHORT $LN77@LoadInt_e@2
  00152	80 f2 ea	 xor	 dl, -22			; ffffffeaH
  00155	80 78 14 00	 cmp	 BYTE PTR [eax+20], 0
  00159	88 55 f3	 mov	 BYTE PTR __k$[ebp+19], dl
  0015c	0f 84 ba 00 00
	00		 je	 $LN1@LoadInt_e@2
  00162	8a 50 15	 mov	 dl, BYTE PTR [eax+21]
  00165	84 d2		 test	 dl, dl
  00167	74 40		 je	 SHORT $LN75@LoadInt_e@2
  00169	32 d1		 xor	 dl, cl
  0016b	88 55 f5	 mov	 BYTE PTR __k$[ebp+21], dl
  0016e	8a 50 16	 mov	 dl, BYTE PTR [eax+22]
  00171	84 d2		 test	 dl, dl
  00173	74 2f		 je	 SHORT $LN74@LoadInt_e@2
  00175	32 d3		 xor	 dl, bl
  00177	88 55 f6	 mov	 BYTE PTR __k$[ebp+22], dl
  0017a	8a 50 17	 mov	 dl, BYTE PTR [eax+23]
  0017d	84 d2		 test	 dl, dl
  0017f	74 1d		 je	 SHORT $LN73@LoadInt_e@2
  00181	8a 40 18	 mov	 al, BYTE PTR [eax+24]
  00184	80 f2 ea	 xor	 dl, -22			; ffffffeaH
  00187	88 55 f7	 mov	 BYTE PTR __k$[ebp+23], dl
  0018a	84 c0		 test	 al, al
  0018c	74 0a		 je	 SHORT $LN72@LoadInt_e@2
  0018e	34 ed		 xor	 al, -19			; ffffffedH
  00190	88 45 f8	 mov	 BYTE PTR __k$[ebp+24], al
  00193	e9 84 00 00 00	 jmp	 $LN1@LoadInt_e@2
$LN72@LoadInt_e@2:
  00198	c6 45 f8 ed	 mov	 BYTE PTR __k$[ebp+24], -19 ; ffffffedH
  0019c	eb 7e		 jmp	 SHORT $LN1@LoadInt_e@2
$LN73@LoadInt_e@2:
  0019e	c6 45 f7 ea	 mov	 BYTE PTR __k$[ebp+23], -22 ; ffffffeaH
  001a2	eb 78		 jmp	 SHORT $LN1@LoadInt_e@2
$LN74@LoadInt_e@2:
  001a4	88 5d f6	 mov	 BYTE PTR __k$[ebp+22], bl
  001a7	eb 73		 jmp	 SHORT $LN1@LoadInt_e@2
$LN75@LoadInt_e@2:
  001a9	88 4d f5	 mov	 BYTE PTR __k$[ebp+21], cl
  001ac	eb 6e		 jmp	 SHORT $LN1@LoadInt_e@2
$LN77@LoadInt_e@2:
  001ae	c6 45 f3 ea	 mov	 BYTE PTR __k$[ebp+19], -22 ; ffffffeaH
  001b2	eb 68		 jmp	 SHORT $LN1@LoadInt_e@2
$LN78@LoadInt_e@2:
  001b4	88 5d f2	 mov	 BYTE PTR __k$[ebp+18], bl
  001b7	eb 63		 jmp	 SHORT $LN1@LoadInt_e@2
$LN79@LoadInt_e@2:
  001b9	88 4d f1	 mov	 BYTE PTR __k$[ebp+17], cl
  001bc	eb 5e		 jmp	 SHORT $LN1@LoadInt_e@2
$LN80@LoadInt_e@2:
  001be	c6 45 f0 ed	 mov	 BYTE PTR __k$[ebp+16], -19 ; ffffffedH
  001c2	eb 58		 jmp	 SHORT $LN1@LoadInt_e@2
$LN81@LoadInt_e@2:
  001c4	c6 45 ef ea	 mov	 BYTE PTR __k$[ebp+15], -22 ; ffffffeaH
  001c8	eb 52		 jmp	 SHORT $LN1@LoadInt_e@2
$LN82@LoadInt_e@2:
  001ca	88 5d ee	 mov	 BYTE PTR __k$[ebp+14], bl
  001cd	eb 4d		 jmp	 SHORT $LN1@LoadInt_e@2
$LN83@LoadInt_e@2:
  001cf	88 4d ed	 mov	 BYTE PTR __k$[ebp+13], cl
  001d2	eb 48		 jmp	 SHORT $LN1@LoadInt_e@2
$LN84@LoadInt_e@2:
  001d4	c6 45 ec ed	 mov	 BYTE PTR __k$[ebp+12], -19 ; ffffffedH
  001d8	eb 42		 jmp	 SHORT $LN1@LoadInt_e@2
$LN85@LoadInt_e@2:
  001da	c6 45 eb ea	 mov	 BYTE PTR __k$[ebp+11], -22 ; ffffffeaH
  001de	eb 3c		 jmp	 SHORT $LN1@LoadInt_e@2
$LN86@LoadInt_e@2:
  001e0	88 5d ea	 mov	 BYTE PTR __k$[ebp+10], bl
  001e3	eb 37		 jmp	 SHORT $LN1@LoadInt_e@2
$LN87@LoadInt_e@2:
  001e5	88 4d e9	 mov	 BYTE PTR __k$[ebp+9], cl
  001e8	eb 32		 jmp	 SHORT $LN1@LoadInt_e@2
$LN88@LoadInt_e@2:
  001ea	c6 45 e8 ed	 mov	 BYTE PTR __k$[ebp+8], -19 ; ffffffedH
  001ee	eb 2c		 jmp	 SHORT $LN1@LoadInt_e@2
$LN89@LoadInt_e@2:
  001f0	c6 45 e7 ea	 mov	 BYTE PTR __k$[ebp+7], -22 ; ffffffeaH
  001f4	eb 26		 jmp	 SHORT $LN1@LoadInt_e@2
$LN90@LoadInt_e@2:
  001f6	88 5d e6	 mov	 BYTE PTR __k$[ebp+6], bl
  001f9	eb 21		 jmp	 SHORT $LN1@LoadInt_e@2
$LN91@LoadInt_e@2:
  001fb	88 4d e5	 mov	 BYTE PTR __k$[ebp+5], cl
  001fe	eb 1c		 jmp	 SHORT $LN1@LoadInt_e@2
$LN92@LoadInt_e@2:
  00200	c6 45 e4 ed	 mov	 BYTE PTR __k$[ebp+4], -19 ; ffffffedH
  00204	eb 16		 jmp	 SHORT $LN1@LoadInt_e@2
$LN93@LoadInt_e@2:
  00206	c6 45 e3 ea	 mov	 BYTE PTR __k$[ebp+3], -22 ; ffffffeaH
  0020a	eb 10		 jmp	 SHORT $LN1@LoadInt_e@2
$LN94@LoadInt_e@2:
  0020c	c6 45 e2 eb	 mov	 BYTE PTR __k$[ebp+2], -21 ; ffffffebH
  00210	eb 0a		 jmp	 SHORT $LN1@LoadInt_e@2
$LN95@LoadInt_e@2:
  00212	c6 45 e1 ec	 mov	 BYTE PTR __k$[ebp+1], -20 ; ffffffecH
  00216	eb 04		 jmp	 SHORT $LN1@LoadInt_e@2
$LN96@LoadInt_e@2:
  00218	c6 45 e0 ed	 mov	 BYTE PTR __k$[ebp], -19	; ffffffedH
$LN1@LoadInt_e@2:
  0021c	6a 05		 push	 5
  0021e	8d 45 e0	 lea	 eax, DWORD PTR __k$[ebp]
  00221	c6 45 f4 00	 mov	 BYTE PTR __k$[ebp+20], 0
  00225	5a		 pop	 edx
$LL104@LoadInt_e@2:
  00226	81 30 ed ec eb
	ea		 xor	 DWORD PTR [eax], -353637139 ; eaebecedH
  0022c	83 c0 04	 add	 eax, 4
  0022f	4a		 dec	 edx
  00230	75 f4		 jne	 SHORT $LL104@LoadInt_e@2

; 120  : 		return LoadInt(_k, i);

  00232	ff 75 0c	 push	 DWORD PTR _i$[ebp]
  00235	8d 45 e0	 lea	 eax, DWORD PTR __k$[ebp]
  00238	50		 push	 eax
  00239	8b ce		 mov	 ecx, esi
  0023b	ff 15 00 00 00
	00		 call	 DWORD PTR __imp_?LoadInt@ioINILoader@@QAEHPBDH@Z

; 121  : 	}

  00241	8b 4d fc	 mov	 ecx, DWORD PTR __$ArrayPad$[ebp]
  00244	5e		 pop	 esi
  00245	33 cd		 xor	 ecx, ebp
  00247	5b		 pop	 ebx
  00248	e8 00 00 00 00	 call	 @__security_check_cookie@4
  0024d	c9		 leave
  0024e	c2 08 00	 ret	 8
??$LoadInt_e@$0BF@@ioINILoader@@QAEHAAY0BF@$$CBDH@Z ENDP ; ioINILoader::LoadInt_e<21>
_TEXT	ENDS
PUBLIC	__$ArrayPad$
PUBLIC	??$LoadBool_e@$0BD@@ioINILoader@@QAE_NAAY0BD@$$CBD_N@Z ; ioINILoader::LoadBool_e<19>
EXTRN	__imp_?LoadBool@ioINILoader@@QAE_NPBD_N@Z:PROC
; Function compile flags: /Ogsp
;	COMDAT ??$LoadBool_e@$0BD@@ioINILoader@@QAE_NAAY0BD@$$CBD_N@Z
_TEXT	SEGMENT
__k$ = -28						; size = 19
__$ArrayPad$ = -4					; size = 4
_k$ = 8							; size = 4
_b$ = 12						; size = 1
??$LoadBool_e@$0BD@@ioINILoader@@QAE_NAAY0BD@$$CBD_N@Z PROC ; ioINILoader::LoadBool_e<19>, COMDAT
; _this$ = ecx

; 101  : 	{

  00000	55		 push	 ebp
  00001	8b ec		 mov	 ebp, esp
  00003	83 ec 1c	 sub	 esp, 28			; 0000001cH
  00006	a1 00 00 00 00	 mov	 eax, DWORD PTR ___security_cookie
  0000b	33 c5		 xor	 eax, ebp
  0000d	89 45 fc	 mov	 DWORD PTR __$ArrayPad$[ebp], eax
  00010	8b 45 08	 mov	 eax, DWORD PTR _k$[ebp]

; 102  : 		_ENCSTR(k, _k);

  00013	8a 10		 mov	 dl, BYTE PTR [eax]
  00015	56		 push	 esi
  00016	8b f1		 mov	 esi, ecx
  00018	84 d2		 test	 dl, dl
  0001a	0f 84 cf 01 00
	00		 je	 $LN96@LoadBool_e
  00020	80 f2 ed	 xor	 dl, -19			; ffffffedH
  00023	88 55 e4	 mov	 BYTE PTR __k$[ebp], dl
  00026	8a 50 01	 mov	 dl, BYTE PTR [eax+1]
  00029	84 d2		 test	 dl, dl
  0002b	0f 84 b8 01 00
	00		 je	 $LN95@LoadBool_e
  00031	b1 ec		 mov	 cl, -20			; ffffffecH
  00033	32 d1		 xor	 dl, cl
  00035	88 55 e5	 mov	 BYTE PTR __k$[ebp+1], dl
  00038	8a 50 02	 mov	 dl, BYTE PTR [eax+2]
  0003b	84 d2		 test	 dl, dl
  0003d	0f 84 a0 01 00
	00		 je	 $LN94@LoadBool_e
  00043	80 f2 eb	 xor	 dl, -21			; ffffffebH
  00046	88 55 e6	 mov	 BYTE PTR __k$[ebp+2], dl
  00049	8a 50 03	 mov	 dl, BYTE PTR [eax+3]
  0004c	84 d2		 test	 dl, dl
  0004e	0f 84 89 01 00
	00		 je	 $LN93@LoadBool_e
  00054	80 f2 ea	 xor	 dl, -22			; ffffffeaH
  00057	88 55 e7	 mov	 BYTE PTR __k$[ebp+3], dl
  0005a	8a 50 04	 mov	 dl, BYTE PTR [eax+4]
  0005d	84 d2		 test	 dl, dl
  0005f	0f 84 72 01 00
	00		 je	 $LN92@LoadBool_e
  00065	80 f2 ed	 xor	 dl, -19			; ffffffedH
  00068	88 55 e8	 mov	 BYTE PTR __k$[ebp+4], dl
  0006b	8a 50 05	 mov	 dl, BYTE PTR [eax+5]
  0006e	84 d2		 test	 dl, dl
  00070	0f 84 5c 01 00
	00		 je	 $LN91@LoadBool_e
  00076	32 d1		 xor	 dl, cl
  00078	88 55 e9	 mov	 BYTE PTR __k$[ebp+5], dl
  0007b	8a 50 06	 mov	 dl, BYTE PTR [eax+6]
  0007e	84 d2		 test	 dl, dl
  00080	0f 84 46 01 00
	00		 je	 $LN90@LoadBool_e
  00086	80 f2 eb	 xor	 dl, -21			; ffffffebH
  00089	88 55 ea	 mov	 BYTE PTR __k$[ebp+6], dl
  0008c	8a 50 07	 mov	 dl, BYTE PTR [eax+7]
  0008f	84 d2		 test	 dl, dl
  00091	0f 84 2f 01 00
	00		 je	 $LN89@LoadBool_e
  00097	80 f2 ea	 xor	 dl, -22			; ffffffeaH
  0009a	88 55 eb	 mov	 BYTE PTR __k$[ebp+7], dl
  0009d	8a 50 08	 mov	 dl, BYTE PTR [eax+8]
  000a0	84 d2		 test	 dl, dl
  000a2	0f 84 18 01 00
	00		 je	 $LN88@LoadBool_e
  000a8	80 f2 ed	 xor	 dl, -19			; ffffffedH
  000ab	88 55 ec	 mov	 BYTE PTR __k$[ebp+8], dl
  000ae	8a 50 09	 mov	 dl, BYTE PTR [eax+9]
  000b1	84 d2		 test	 dl, dl
  000b3	0f 84 02 01 00
	00		 je	 $LN87@LoadBool_e
  000b9	32 d1		 xor	 dl, cl
  000bb	88 55 ed	 mov	 BYTE PTR __k$[ebp+9], dl
  000be	8a 50 0a	 mov	 dl, BYTE PTR [eax+10]
  000c1	84 d2		 test	 dl, dl
  000c3	0f 84 ec 00 00
	00		 je	 $LN86@LoadBool_e
  000c9	80 f2 eb	 xor	 dl, -21			; ffffffebH
  000cc	88 55 ee	 mov	 BYTE PTR __k$[ebp+10], dl
  000cf	8a 50 0b	 mov	 dl, BYTE PTR [eax+11]
  000d2	84 d2		 test	 dl, dl
  000d4	0f 84 d5 00 00
	00		 je	 $LN85@LoadBool_e
  000da	80 f2 ea	 xor	 dl, -22			; ffffffeaH
  000dd	88 55 ef	 mov	 BYTE PTR __k$[ebp+11], dl
  000e0	8a 50 0c	 mov	 dl, BYTE PTR [eax+12]
  000e3	84 d2		 test	 dl, dl
  000e5	0f 84 be 00 00
	00		 je	 $LN84@LoadBool_e
  000eb	80 f2 ed	 xor	 dl, -19			; ffffffedH
  000ee	88 55 f0	 mov	 BYTE PTR __k$[ebp+12], dl
  000f1	8a 50 0d	 mov	 dl, BYTE PTR [eax+13]
  000f4	84 d2		 test	 dl, dl
  000f6	0f 84 a8 00 00
	00		 je	 $LN83@LoadBool_e
  000fc	32 d1		 xor	 dl, cl
  000fe	88 55 f1	 mov	 BYTE PTR __k$[ebp+13], dl
  00101	8a 50 0e	 mov	 dl, BYTE PTR [eax+14]
  00104	84 d2		 test	 dl, dl
  00106	0f 84 92 00 00
	00		 je	 $LN82@LoadBool_e
  0010c	80 f2 eb	 xor	 dl, -21			; ffffffebH
  0010f	88 55 f2	 mov	 BYTE PTR __k$[ebp+14], dl
  00112	8a 50 0f	 mov	 dl, BYTE PTR [eax+15]
  00115	84 d2		 test	 dl, dl
  00117	74 7f		 je	 SHORT $LN81@LoadBool_e
  00119	80 f2 ea	 xor	 dl, -22			; ffffffeaH
  0011c	88 55 f3	 mov	 BYTE PTR __k$[ebp+15], dl
  0011f	8a 50 10	 mov	 dl, BYTE PTR [eax+16]
  00122	84 d2		 test	 dl, dl
  00124	74 6c		 je	 SHORT $LN80@LoadBool_e
  00126	80 f2 ed	 xor	 dl, -19			; ffffffedH
  00129	88 55 f4	 mov	 BYTE PTR __k$[ebp+16], dl
  0012c	8a 50 11	 mov	 dl, BYTE PTR [eax+17]
  0012f	84 d2		 test	 dl, dl
  00131	74 5a		 je	 SHORT $LN79@LoadBool_e
  00133	32 d1		 xor	 dl, cl
  00135	80 78 12 00	 cmp	 BYTE PTR [eax+18], 0
  00139	88 55 f5	 mov	 BYTE PTR __k$[ebp+17], dl
  0013c	0f 84 b1 00 00
	00		 je	 $LN1@LoadBool_e
  00142	8a 50 13	 mov	 dl, BYTE PTR [eax+19]
  00145	84 d2		 test	 dl, dl
  00147	74 3e		 je	 SHORT $LN77@LoadBool_e
  00149	80 f2 ea	 xor	 dl, -22			; ffffffeaH
  0014c	88 55 f7	 mov	 BYTE PTR __k$[ebp+19], dl
  0014f	8a 50 14	 mov	 dl, BYTE PTR [eax+20]
  00152	84 d2		 test	 dl, dl
  00154	74 2b		 je	 SHORT $LN76@LoadBool_e
  00156	80 f2 ed	 xor	 dl, -19			; ffffffedH
  00159	88 55 f8	 mov	 BYTE PTR __k$[ebp+20], dl
  0015c	8a 50 15	 mov	 dl, BYTE PTR [eax+21]
  0015f	84 d2		 test	 dl, dl
  00161	74 19		 je	 SHORT $LN75@LoadBool_e
  00163	8a 40 16	 mov	 al, BYTE PTR [eax+22]
  00166	32 d1		 xor	 dl, cl
  00168	88 55 f9	 mov	 BYTE PTR __k$[ebp+21], dl
  0016b	84 c0		 test	 al, al
  0016d	74 07		 je	 SHORT $LN74@LoadBool_e
  0016f	34 eb		 xor	 al, -21			; ffffffebH
  00171	88 45 fa	 mov	 BYTE PTR __k$[ebp+22], al
  00174	eb 7d		 jmp	 SHORT $LN1@LoadBool_e
$LN74@LoadBool_e:
  00176	c6 45 fa eb	 mov	 BYTE PTR __k$[ebp+22], -21 ; ffffffebH
  0017a	eb 77		 jmp	 SHORT $LN1@LoadBool_e
$LN75@LoadBool_e:
  0017c	88 4d f9	 mov	 BYTE PTR __k$[ebp+21], cl
  0017f	eb 72		 jmp	 SHORT $LN1@LoadBool_e
$LN76@LoadBool_e:
  00181	c6 45 f8 ed	 mov	 BYTE PTR __k$[ebp+20], -19 ; ffffffedH
  00185	eb 6c		 jmp	 SHORT $LN1@LoadBool_e
$LN77@LoadBool_e:
  00187	c6 45 f7 ea	 mov	 BYTE PTR __k$[ebp+19], -22 ; ffffffeaH
  0018b	eb 66		 jmp	 SHORT $LN1@LoadBool_e
$LN79@LoadBool_e:
  0018d	88 4d f5	 mov	 BYTE PTR __k$[ebp+17], cl
  00190	eb 61		 jmp	 SHORT $LN1@LoadBool_e
$LN80@LoadBool_e:
  00192	c6 45 f4 ed	 mov	 BYTE PTR __k$[ebp+16], -19 ; ffffffedH
  00196	eb 5b		 jmp	 SHORT $LN1@LoadBool_e
$LN81@LoadBool_e:
  00198	c6 45 f3 ea	 mov	 BYTE PTR __k$[ebp+15], -22 ; ffffffeaH
  0019c	eb 55		 jmp	 SHORT $LN1@LoadBool_e
$LN82@LoadBool_e:
  0019e	c6 45 f2 eb	 mov	 BYTE PTR __k$[ebp+14], -21 ; ffffffebH
  001a2	eb 4f		 jmp	 SHORT $LN1@LoadBool_e
$LN83@LoadBool_e:
  001a4	88 4d f1	 mov	 BYTE PTR __k$[ebp+13], cl
  001a7	eb 4a		 jmp	 SHORT $LN1@LoadBool_e
$LN84@LoadBool_e:
  001a9	c6 45 f0 ed	 mov	 BYTE PTR __k$[ebp+12], -19 ; ffffffedH
  001ad	eb 44		 jmp	 SHORT $LN1@LoadBool_e
$LN85@LoadBool_e:
  001af	c6 45 ef ea	 mov	 BYTE PTR __k$[ebp+11], -22 ; ffffffeaH
  001b3	eb 3e		 jmp	 SHORT $LN1@LoadBool_e
$LN86@LoadBool_e:
  001b5	c6 45 ee eb	 mov	 BYTE PTR __k$[ebp+10], -21 ; ffffffebH
  001b9	eb 38		 jmp	 SHORT $LN1@LoadBool_e
$LN87@LoadBool_e:
  001bb	88 4d ed	 mov	 BYTE PTR __k$[ebp+9], cl
  001be	eb 33		 jmp	 SHORT $LN1@LoadBool_e
$LN88@LoadBool_e:
  001c0	c6 45 ec ed	 mov	 BYTE PTR __k$[ebp+8], -19 ; ffffffedH
  001c4	eb 2d		 jmp	 SHORT $LN1@LoadBool_e
$LN89@LoadBool_e:
  001c6	c6 45 eb ea	 mov	 BYTE PTR __k$[ebp+7], -22 ; ffffffeaH
  001ca	eb 27		 jmp	 SHORT $LN1@LoadBool_e
$LN90@LoadBool_e:
  001cc	c6 45 ea eb	 mov	 BYTE PTR __k$[ebp+6], -21 ; ffffffebH
  001d0	eb 21		 jmp	 SHORT $LN1@LoadBool_e
$LN91@LoadBool_e:
  001d2	88 4d e9	 mov	 BYTE PTR __k$[ebp+5], cl
  001d5	eb 1c		 jmp	 SHORT $LN1@LoadBool_e
$LN92@LoadBool_e:
  001d7	c6 45 e8 ed	 mov	 BYTE PTR __k$[ebp+4], -19 ; ffffffedH
  001db	eb 16		 jmp	 SHORT $LN1@LoadBool_e
$LN93@LoadBool_e:
  001dd	c6 45 e7 ea	 mov	 BYTE PTR __k$[ebp+3], -22 ; ffffffeaH
  001e1	eb 10		 jmp	 SHORT $LN1@LoadBool_e
$LN94@LoadBool_e:
  001e3	c6 45 e6 eb	 mov	 BYTE PTR __k$[ebp+2], -21 ; ffffffebH
  001e7	eb 0a		 jmp	 SHORT $LN1@LoadBool_e
$LN95@LoadBool_e:
  001e9	c6 45 e5 ec	 mov	 BYTE PTR __k$[ebp+1], -20 ; ffffffecH
  001ed	eb 04		 jmp	 SHORT $LN1@LoadBool_e
$LN96@LoadBool_e:
  001ef	c6 45 e4 ed	 mov	 BYTE PTR __k$[ebp], -19	; ffffffedH
$LN1@LoadBool_e:
  001f3	6a 04		 push	 4
  001f5	8d 45 e4	 lea	 eax, DWORD PTR __k$[ebp]
  001f8	c6 45 f6 00	 mov	 BYTE PTR __k$[ebp+18], 0
  001fc	5a		 pop	 edx
$LL104@LoadBool_e:
  001fd	81 30 ed ec eb
	ea		 xor	 DWORD PTR [eax], -353637139 ; eaebecedH
  00203	83 c0 04	 add	 eax, 4
  00206	4a		 dec	 edx
  00207	75 f4		 jne	 SHORT $LL104@LoadBool_e
  00209	6a 10		 push	 16			; 00000010H
  0020b	58		 pop	 eax
$LL101@LoadBool_e:
  0020c	8b c8		 mov	 ecx, eax
  0020e	81 e1 03 00 00
	80		 and	 ecx, -2147483645	; 80000003H
  00214	79 05		 jns	 SHORT $LN111@LoadBool_e
  00216	49		 dec	 ecx
  00217	83 c9 fc	 or	 ecx, -4			; fffffffcH
  0021a	41		 inc	 ecx
$LN111@LoadBool_e:
  0021b	b2 ed		 mov	 dl, -19			; ffffffedH
  0021d	2a d1		 sub	 dl, cl
  0021f	30 54 05 e4	 xor	 BYTE PTR __k$[ebp+eax], dl
  00223	40		 inc	 eax
  00224	83 f8 12	 cmp	 eax, 18			; 00000012H
  00227	7c e3		 jl	 SHORT $LL101@LoadBool_e

; 103  : 		return LoadBool(_k, b);

  00229	ff 75 0c	 push	 DWORD PTR _b$[ebp]
  0022c	8d 45 e4	 lea	 eax, DWORD PTR __k$[ebp]
  0022f	50		 push	 eax
  00230	8b ce		 mov	 ecx, esi
  00232	ff 15 00 00 00
	00		 call	 DWORD PTR __imp_?LoadBool@ioINILoader@@QAE_NPBD_N@Z

; 104  : 	}

  00238	8b 4d fc	 mov	 ecx, DWORD PTR __$ArrayPad$[ebp]
  0023b	33 cd		 xor	 ecx, ebp
  0023d	5e		 pop	 esi
  0023e	e8 00 00 00 00	 call	 @__security_check_cookie@4
  00243	c9		 leave
  00244	c2 08 00	 ret	 8
??$LoadBool_e@$0BD@@ioINILoader@@QAE_NAAY0BD@$$CBD_N@Z ENDP ; ioINILoader::LoadBool_e<19>
_TEXT	ENDS
PUBLIC	_this$GSCopy$
PUBLIC	__$ArrayPad$
PUBLIC	??$LoadString_e@$0BA@@ioINILoader@@QAEXAAY0BA@$$CBDAAY00$$CBDPADH@Z ; ioINILoader::LoadString_e<16>
EXTRN	__imp_?LoadStringA@ioINILoader@@QAEXPBD0PADH@Z:PROC
; Function compile flags: /Ogsp
;	COMDAT ??$LoadString_e@$0BA@@ioINILoader@@QAEXAAY0BA@$$CBDAAY00$$CBDPADH@Z
_TEXT	SEGMENT
_this$GSCopy$ = -28					; size = 4
__k$ = -24						; size = 16
__$ArrayPad$ = -4					; size = 4
_k$ = 8							; size = 4
_d$ = 12						; size = 4
_b$ = 16						; size = 4
_i$ = 20						; size = 4
??$LoadString_e@$0BA@@ioINILoader@@QAEXAAY0BA@$$CBDAAY00$$CBDPADH@Z PROC ; ioINILoader::LoadString_e<16>, COMDAT
; _this$ = ecx

; 161  : 	{

  00000	55		 push	 ebp
  00001	8b ec		 mov	 ebp, esp
  00003	83 ec 1c	 sub	 esp, 28			; 0000001cH
  00006	a1 00 00 00 00	 mov	 eax, DWORD PTR ___security_cookie
  0000b	33 c5		 xor	 eax, ebp
  0000d	89 45 fc	 mov	 DWORD PTR __$ArrayPad$[ebp], eax
  00010	8b 45 08	 mov	 eax, DWORD PTR _k$[ebp]

; 162  : 		_ENCSTR(k, _k);

  00013	8a 10		 mov	 dl, BYTE PTR [eax]
  00015	56		 push	 esi
  00016	8b 75 0c	 mov	 esi, DWORD PTR _d$[ebp]
  00019	57		 push	 edi
  0001a	8b 7d 10	 mov	 edi, DWORD PTR _b$[ebp]
  0001d	89 4d e4	 mov	 DWORD PTR _this$GSCopy$[ebp], ecx
  00020	84 d2		 test	 dl, dl
  00022	0f 84 8c 01 00
	00		 je	 $LN96@LoadString
  00028	80 f2 ed	 xor	 dl, -19			; ffffffedH
  0002b	88 55 e8	 mov	 BYTE PTR __k$[ebp], dl
  0002e	8a 50 01	 mov	 dl, BYTE PTR [eax+1]
  00031	84 d2		 test	 dl, dl
  00033	0f 84 75 01 00
	00		 je	 $LN95@LoadString
  00039	80 f2 ec	 xor	 dl, -20			; ffffffecH
  0003c	88 55 e9	 mov	 BYTE PTR __k$[ebp+1], dl
  0003f	8a 50 02	 mov	 dl, BYTE PTR [eax+2]
  00042	84 d2		 test	 dl, dl
  00044	0f 84 5e 01 00
	00		 je	 $LN94@LoadString
  0004a	b1 eb		 mov	 cl, -21			; ffffffebH
  0004c	32 d1		 xor	 dl, cl
  0004e	88 55 ea	 mov	 BYTE PTR __k$[ebp+2], dl
  00051	8a 50 03	 mov	 dl, BYTE PTR [eax+3]
  00054	84 d2		 test	 dl, dl
  00056	0f 84 46 01 00
	00		 je	 $LN93@LoadString
  0005c	80 f2 ea	 xor	 dl, -22			; ffffffeaH
  0005f	88 55 eb	 mov	 BYTE PTR __k$[ebp+3], dl
  00062	8a 50 04	 mov	 dl, BYTE PTR [eax+4]
  00065	84 d2		 test	 dl, dl
  00067	0f 84 2f 01 00
	00		 je	 $LN92@LoadString
  0006d	80 f2 ed	 xor	 dl, -19			; ffffffedH
  00070	88 55 ec	 mov	 BYTE PTR __k$[ebp+4], dl
  00073	8a 50 05	 mov	 dl, BYTE PTR [eax+5]
  00076	84 d2		 test	 dl, dl
  00078	0f 84 18 01 00
	00		 je	 $LN91@LoadString
  0007e	80 f2 ec	 xor	 dl, -20			; ffffffecH
  00081	88 55 ed	 mov	 BYTE PTR __k$[ebp+5], dl
  00084	8a 50 06	 mov	 dl, BYTE PTR [eax+6]
  00087	84 d2		 test	 dl, dl
  00089	0f 84 02 01 00
	00		 je	 $LN90@LoadString
  0008f	32 d1		 xor	 dl, cl
  00091	88 55 ee	 mov	 BYTE PTR __k$[ebp+6], dl
  00094	8a 50 07	 mov	 dl, BYTE PTR [eax+7]
  00097	84 d2		 test	 dl, dl
  00099	0f 84 ec 00 00
	00		 je	 $LN89@LoadString
  0009f	80 f2 ea	 xor	 dl, -22			; ffffffeaH
  000a2	88 55 ef	 mov	 BYTE PTR __k$[ebp+7], dl
  000a5	8a 50 08	 mov	 dl, BYTE PTR [eax+8]
  000a8	84 d2		 test	 dl, dl
  000aa	0f 84 d5 00 00
	00		 je	 $LN88@LoadString
  000b0	80 f2 ed	 xor	 dl, -19			; ffffffedH
  000b3	88 55 f0	 mov	 BYTE PTR __k$[ebp+8], dl
  000b6	8a 50 09	 mov	 dl, BYTE PTR [eax+9]
  000b9	84 d2		 test	 dl, dl
  000bb	0f 84 be 00 00
	00		 je	 $LN87@LoadString
  000c1	80 f2 ec	 xor	 dl, -20			; ffffffecH
  000c4	88 55 f1	 mov	 BYTE PTR __k$[ebp+9], dl
  000c7	8a 50 0a	 mov	 dl, BYTE PTR [eax+10]
  000ca	84 d2		 test	 dl, dl
  000cc	0f 84 a8 00 00
	00		 je	 $LN86@LoadString
  000d2	32 d1		 xor	 dl, cl
  000d4	88 55 f2	 mov	 BYTE PTR __k$[ebp+10], dl
  000d7	8a 50 0b	 mov	 dl, BYTE PTR [eax+11]
  000da	84 d2		 test	 dl, dl
  000dc	0f 84 92 00 00
	00		 je	 $LN85@LoadString
  000e2	80 f2 ea	 xor	 dl, -22			; ffffffeaH
  000e5	88 55 f3	 mov	 BYTE PTR __k$[ebp+11], dl
  000e8	8a 50 0c	 mov	 dl, BYTE PTR [eax+12]
  000eb	84 d2		 test	 dl, dl
  000ed	74 7f		 je	 SHORT $LN84@LoadString
  000ef	80 f2 ed	 xor	 dl, -19			; ffffffedH
  000f2	88 55 f4	 mov	 BYTE PTR __k$[ebp+12], dl
  000f5	8a 50 0d	 mov	 dl, BYTE PTR [eax+13]
  000f8	84 d2		 test	 dl, dl
  000fa	74 6c		 je	 SHORT $LN83@LoadString
  000fc	80 f2 ec	 xor	 dl, -20			; ffffffecH
  000ff	88 55 f5	 mov	 BYTE PTR __k$[ebp+13], dl
  00102	8a 50 0e	 mov	 dl, BYTE PTR [eax+14]
  00105	84 d2		 test	 dl, dl
  00107	74 5a		 je	 SHORT $LN82@LoadString
  00109	32 d1		 xor	 dl, cl
  0010b	80 78 0f 00	 cmp	 BYTE PTR [eax+15], 0
  0010f	88 55 f6	 mov	 BYTE PTR __k$[ebp+14], dl
  00112	0f 84 a0 00 00
	00		 je	 $LN111@LoadString
  00118	8a 50 10	 mov	 dl, BYTE PTR [eax+16]
  0011b	84 d2		 test	 dl, dl
  0011d	74 3e		 je	 SHORT $LN80@LoadString
  0011f	80 f2 ed	 xor	 dl, -19			; ffffffedH
  00122	88 55 f8	 mov	 BYTE PTR __k$[ebp+16], dl
  00125	8a 50 11	 mov	 dl, BYTE PTR [eax+17]
  00128	84 d2		 test	 dl, dl
  0012a	74 2b		 je	 SHORT $LN79@LoadString
  0012c	80 f2 ec	 xor	 dl, -20			; ffffffecH
  0012f	88 55 f9	 mov	 BYTE PTR __k$[ebp+17], dl
  00132	8a 50 12	 mov	 dl, BYTE PTR [eax+18]
  00135	84 d2		 test	 dl, dl
  00137	74 19		 je	 SHORT $LN78@LoadString
  00139	8a 40 13	 mov	 al, BYTE PTR [eax+19]
  0013c	32 d1		 xor	 dl, cl
  0013e	88 55 fa	 mov	 BYTE PTR __k$[ebp+18], dl
  00141	84 c0		 test	 al, al
  00143	74 07		 je	 SHORT $LN77@LoadString
  00145	34 ea		 xor	 al, -22			; ffffffeaH
  00147	88 45 fb	 mov	 BYTE PTR __k$[ebp+19], al
  0014a	eb 6c		 jmp	 SHORT $LN111@LoadString
$LN77@LoadString:
  0014c	c6 45 fb ea	 mov	 BYTE PTR __k$[ebp+19], -22 ; ffffffeaH
  00150	eb 66		 jmp	 SHORT $LN111@LoadString
$LN78@LoadString:
  00152	88 4d fa	 mov	 BYTE PTR __k$[ebp+18], cl
  00155	eb 61		 jmp	 SHORT $LN111@LoadString
$LN79@LoadString:
  00157	c6 45 f9 ec	 mov	 BYTE PTR __k$[ebp+17], -20 ; ffffffecH
  0015b	eb 5b		 jmp	 SHORT $LN111@LoadString
$LN80@LoadString:
  0015d	c6 45 f8 ed	 mov	 BYTE PTR __k$[ebp+16], -19 ; ffffffedH
  00161	eb 55		 jmp	 SHORT $LN111@LoadString
$LN82@LoadString:
  00163	88 4d f6	 mov	 BYTE PTR __k$[ebp+14], cl
  00166	eb 50		 jmp	 SHORT $LN111@LoadString
$LN83@LoadString:
  00168	c6 45 f5 ec	 mov	 BYTE PTR __k$[ebp+13], -20 ; ffffffecH
  0016c	eb 4a		 jmp	 SHORT $LN111@LoadString
$LN84@LoadString:
  0016e	c6 45 f4 ed	 mov	 BYTE PTR __k$[ebp+12], -19 ; ffffffedH
  00172	eb 44		 jmp	 SHORT $LN111@LoadString
$LN85@LoadString:
  00174	c6 45 f3 ea	 mov	 BYTE PTR __k$[ebp+11], -22 ; ffffffeaH
  00178	eb 3e		 jmp	 SHORT $LN111@LoadString
$LN86@LoadString:
  0017a	88 4d f2	 mov	 BYTE PTR __k$[ebp+10], cl
  0017d	eb 39		 jmp	 SHORT $LN111@LoadString
$LN87@LoadString:
  0017f	c6 45 f1 ec	 mov	 BYTE PTR __k$[ebp+9], -20 ; ffffffecH
  00183	eb 33		 jmp	 SHORT $LN111@LoadString
$LN88@LoadString:
  00185	c6 45 f0 ed	 mov	 BYTE PTR __k$[ebp+8], -19 ; ffffffedH
  00189	eb 2d		 jmp	 SHORT $LN111@LoadString
$LN89@LoadString:
  0018b	c6 45 ef ea	 mov	 BYTE PTR __k$[ebp+7], -22 ; ffffffeaH
  0018f	eb 27		 jmp	 SHORT $LN111@LoadString
$LN90@LoadString:
  00191	88 4d ee	 mov	 BYTE PTR __k$[ebp+6], cl
  00194	eb 22		 jmp	 SHORT $LN111@LoadString
$LN91@LoadString:
  00196	c6 45 ed ec	 mov	 BYTE PTR __k$[ebp+5], -20 ; ffffffecH
  0019a	eb 1c		 jmp	 SHORT $LN111@LoadString
$LN92@LoadString:
  0019c	c6 45 ec ed	 mov	 BYTE PTR __k$[ebp+4], -19 ; ffffffedH
  001a0	eb 16		 jmp	 SHORT $LN111@LoadString
$LN93@LoadString:
  001a2	c6 45 eb ea	 mov	 BYTE PTR __k$[ebp+3], -22 ; ffffffeaH
  001a6	eb 10		 jmp	 SHORT $LN111@LoadString
$LN94@LoadString:
  001a8	c6 45 ea eb	 mov	 BYTE PTR __k$[ebp+2], -21 ; ffffffebH
  001ac	eb 0a		 jmp	 SHORT $LN111@LoadString
$LN95@LoadString:
  001ae	c6 45 e9 ec	 mov	 BYTE PTR __k$[ebp+1], -20 ; ffffffecH
  001b2	eb 04		 jmp	 SHORT $LN111@LoadString
$LN96@LoadString:
  001b4	c6 45 e8 ed	 mov	 BYTE PTR __k$[ebp], -19	; ffffffedH
$LN111@LoadString:
  001b8	6a 03		 push	 3
  001ba	8d 45 e8	 lea	 eax, DWORD PTR __k$[ebp]
  001bd	c6 45 f7 00	 mov	 BYTE PTR __k$[ebp+15], 0
  001c1	5a		 pop	 edx
$LL104@LoadString:
  001c2	81 30 ed ec eb
	ea		 xor	 DWORD PTR [eax], -353637139 ; eaebecedH
  001c8	83 c0 04	 add	 eax, 4
  001cb	4a		 dec	 edx
  001cc	75 f4		 jne	 SHORT $LL104@LoadString
  001ce	6a 0c		 push	 12			; 0000000cH
  001d0	58		 pop	 eax
$LL101@LoadString:
  001d1	8b c8		 mov	 ecx, eax
  001d3	81 e1 03 00 00
	80		 and	 ecx, -2147483645	; 80000003H
  001d9	79 05		 jns	 SHORT $LN112@LoadString
  001db	49		 dec	 ecx
  001dc	83 c9 fc	 or	 ecx, -4			; fffffffcH
  001df	41		 inc	 ecx
$LN112@LoadString:
  001e0	b2 ed		 mov	 dl, -19			; ffffffedH
  001e2	2a d1		 sub	 dl, cl
  001e4	30 54 05 e8	 xor	 BYTE PTR __k$[ebp+eax], dl
  001e8	40		 inc	 eax
  001e9	83 f8 0f	 cmp	 eax, 15			; 0000000fH
  001ec	7c e3		 jl	 SHORT $LL101@LoadString

; 163  : 		LoadString(_k, d, b, i);

  001ee	ff 75 14	 push	 DWORD PTR _i$[ebp]
  001f1	8b 4d e4	 mov	 ecx, DWORD PTR _this$GSCopy$[ebp]
  001f4	57		 push	 edi
  001f5	56		 push	 esi
  001f6	8d 45 e8	 lea	 eax, DWORD PTR __k$[ebp]
  001f9	50		 push	 eax
  001fa	ff 15 00 00 00
	00		 call	 DWORD PTR __imp_?LoadStringA@ioINILoader@@QAEXPBD0PADH@Z

; 164  : 	}

  00200	8b 4d fc	 mov	 ecx, DWORD PTR __$ArrayPad$[ebp]
  00203	5f		 pop	 edi
  00204	33 cd		 xor	 ecx, ebp
  00206	5e		 pop	 esi
  00207	e8 00 00 00 00	 call	 @__security_check_cookie@4
  0020c	c9		 leave
  0020d	c2 10 00	 ret	 16			; 00000010H
??$LoadString_e@$0BA@@ioINILoader@@QAEXAAY0BA@$$CBDAAY00$$CBDPADH@Z ENDP ; ioINILoader::LoadString_e<16>
_TEXT	ENDS
PUBLIC	__$ArrayPad$
PUBLIC	??$LoadFloat_e@$0BF@@ioINILoader@@QAEMAAY0BF@$$CBDM@Z ; ioINILoader::LoadFloat_e<21>
; Function compile flags: /Ogsp
;	COMDAT ??$LoadFloat_e@$0BF@@ioINILoader@@QAEMAAY0BF@$$CBDM@Z
_TEXT	SEGMENT
__k$ = -32						; size = 21
__$ArrayPad$ = -4					; size = 4
_k$ = 8							; size = 4
_f$ = 12						; size = 4
??$LoadFloat_e@$0BF@@ioINILoader@@QAEMAAY0BF@$$CBDM@Z PROC ; ioINILoader::LoadFloat_e<21>, COMDAT
; _this$ = ecx

; 135  : 	{

  00000	55		 push	 ebp
  00001	8b ec		 mov	 ebp, esp
  00003	83 ec 20	 sub	 esp, 32			; 00000020H
  00006	a1 00 00 00 00	 mov	 eax, DWORD PTR ___security_cookie
  0000b	33 c5		 xor	 eax, ebp
  0000d	89 45 fc	 mov	 DWORD PTR __$ArrayPad$[ebp], eax
  00010	8b 45 08	 mov	 eax, DWORD PTR _k$[ebp]

; 136  : 		_ENCSTR(k, _k);

  00013	8a 10		 mov	 dl, BYTE PTR [eax]
  00015	53		 push	 ebx
  00016	56		 push	 esi
  00017	8b f1		 mov	 esi, ecx
  00019	84 d2		 test	 dl, dl
  0001b	0f 84 f7 01 00
	00		 je	 $LN96@LoadFloat_@6
  00021	80 f2 ed	 xor	 dl, -19			; ffffffedH
  00024	88 55 e0	 mov	 BYTE PTR __k$[ebp], dl
  00027	8a 50 01	 mov	 dl, BYTE PTR [eax+1]
  0002a	84 d2		 test	 dl, dl
  0002c	0f 84 e0 01 00
	00		 je	 $LN95@LoadFloat_@6
  00032	b1 ec		 mov	 cl, -20			; ffffffecH
  00034	32 d1		 xor	 dl, cl
  00036	88 55 e1	 mov	 BYTE PTR __k$[ebp+1], dl
  00039	8a 50 02	 mov	 dl, BYTE PTR [eax+2]
  0003c	84 d2		 test	 dl, dl
  0003e	0f 84 c8 01 00
	00		 je	 $LN94@LoadFloat_@6
  00044	b3 eb		 mov	 bl, -21			; ffffffebH
  00046	32 d3		 xor	 dl, bl
  00048	88 55 e2	 mov	 BYTE PTR __k$[ebp+2], dl
  0004b	8a 50 03	 mov	 dl, BYTE PTR [eax+3]
  0004e	84 d2		 test	 dl, dl
  00050	0f 84 b0 01 00
	00		 je	 $LN93@LoadFloat_@6
  00056	80 f2 ea	 xor	 dl, -22			; ffffffeaH
  00059	88 55 e3	 mov	 BYTE PTR __k$[ebp+3], dl
  0005c	8a 50 04	 mov	 dl, BYTE PTR [eax+4]
  0005f	84 d2		 test	 dl, dl
  00061	0f 84 99 01 00
	00		 je	 $LN92@LoadFloat_@6
  00067	80 f2 ed	 xor	 dl, -19			; ffffffedH
  0006a	88 55 e4	 mov	 BYTE PTR __k$[ebp+4], dl
  0006d	8a 50 05	 mov	 dl, BYTE PTR [eax+5]
  00070	84 d2		 test	 dl, dl
  00072	0f 84 83 01 00
	00		 je	 $LN91@LoadFloat_@6
  00078	32 d1		 xor	 dl, cl
  0007a	88 55 e5	 mov	 BYTE PTR __k$[ebp+5], dl
  0007d	8a 50 06	 mov	 dl, BYTE PTR [eax+6]
  00080	84 d2		 test	 dl, dl
  00082	0f 84 6e 01 00
	00		 je	 $LN90@LoadFloat_@6
  00088	32 d3		 xor	 dl, bl
  0008a	88 55 e6	 mov	 BYTE PTR __k$[ebp+6], dl
  0008d	8a 50 07	 mov	 dl, BYTE PTR [eax+7]
  00090	84 d2		 test	 dl, dl
  00092	0f 84 58 01 00
	00		 je	 $LN89@LoadFloat_@6
  00098	80 f2 ea	 xor	 dl, -22			; ffffffeaH
  0009b	88 55 e7	 mov	 BYTE PTR __k$[ebp+7], dl
  0009e	8a 50 08	 mov	 dl, BYTE PTR [eax+8]
  000a1	84 d2		 test	 dl, dl
  000a3	0f 84 41 01 00
	00		 je	 $LN88@LoadFloat_@6
  000a9	80 f2 ed	 xor	 dl, -19			; ffffffedH
  000ac	88 55 e8	 mov	 BYTE PTR __k$[ebp+8], dl
  000af	8a 50 09	 mov	 dl, BYTE PTR [eax+9]
  000b2	84 d2		 test	 dl, dl
  000b4	0f 84 2b 01 00
	00		 je	 $LN87@LoadFloat_@6
  000ba	32 d1		 xor	 dl, cl
  000bc	88 55 e9	 mov	 BYTE PTR __k$[ebp+9], dl
  000bf	8a 50 0a	 mov	 dl, BYTE PTR [eax+10]
  000c2	84 d2		 test	 dl, dl
  000c4	0f 84 16 01 00
	00		 je	 $LN86@LoadFloat_@6
  000ca	32 d3		 xor	 dl, bl
  000cc	88 55 ea	 mov	 BYTE PTR __k$[ebp+10], dl
  000cf	8a 50 0b	 mov	 dl, BYTE PTR [eax+11]
  000d2	84 d2		 test	 dl, dl
  000d4	0f 84 00 01 00
	00		 je	 $LN85@LoadFloat_@6
  000da	80 f2 ea	 xor	 dl, -22			; ffffffeaH
  000dd	88 55 eb	 mov	 BYTE PTR __k$[ebp+11], dl
  000e0	8a 50 0c	 mov	 dl, BYTE PTR [eax+12]
  000e3	84 d2		 test	 dl, dl
  000e5	0f 84 e9 00 00
	00		 je	 $LN84@LoadFloat_@6
  000eb	80 f2 ed	 xor	 dl, -19			; ffffffedH
  000ee	88 55 ec	 mov	 BYTE PTR __k$[ebp+12], dl
  000f1	8a 50 0d	 mov	 dl, BYTE PTR [eax+13]
  000f4	84 d2		 test	 dl, dl
  000f6	0f 84 d3 00 00
	00		 je	 $LN83@LoadFloat_@6
  000fc	32 d1		 xor	 dl, cl
  000fe	88 55 ed	 mov	 BYTE PTR __k$[ebp+13], dl
  00101	8a 50 0e	 mov	 dl, BYTE PTR [eax+14]
  00104	84 d2		 test	 dl, dl
  00106	0f 84 be 00 00
	00		 je	 $LN82@LoadFloat_@6
  0010c	32 d3		 xor	 dl, bl
  0010e	88 55 ee	 mov	 BYTE PTR __k$[ebp+14], dl
  00111	8a 50 0f	 mov	 dl, BYTE PTR [eax+15]
  00114	84 d2		 test	 dl, dl
  00116	0f 84 a8 00 00
	00		 je	 $LN81@LoadFloat_@6
  0011c	80 f2 ea	 xor	 dl, -22			; ffffffeaH
  0011f	88 55 ef	 mov	 BYTE PTR __k$[ebp+15], dl
  00122	8a 50 10	 mov	 dl, BYTE PTR [eax+16]
  00125	84 d2		 test	 dl, dl
  00127	0f 84 91 00 00
	00		 je	 $LN80@LoadFloat_@6
  0012d	80 f2 ed	 xor	 dl, -19			; ffffffedH
  00130	88 55 f0	 mov	 BYTE PTR __k$[ebp+16], dl
  00133	8a 50 11	 mov	 dl, BYTE PTR [eax+17]
  00136	84 d2		 test	 dl, dl
  00138	74 7f		 je	 SHORT $LN79@LoadFloat_@6
  0013a	32 d1		 xor	 dl, cl
  0013c	88 55 f1	 mov	 BYTE PTR __k$[ebp+17], dl
  0013f	8a 50 12	 mov	 dl, BYTE PTR [eax+18]
  00142	84 d2		 test	 dl, dl
  00144	74 6e		 je	 SHORT $LN78@LoadFloat_@6
  00146	32 d3		 xor	 dl, bl
  00148	88 55 f2	 mov	 BYTE PTR __k$[ebp+18], dl
  0014b	8a 50 13	 mov	 dl, BYTE PTR [eax+19]
  0014e	84 d2		 test	 dl, dl
  00150	74 5c		 je	 SHORT $LN77@LoadFloat_@6
  00152	80 f2 ea	 xor	 dl, -22			; ffffffeaH
  00155	80 78 14 00	 cmp	 BYTE PTR [eax+20], 0
  00159	88 55 f3	 mov	 BYTE PTR __k$[ebp+19], dl
  0015c	0f 84 ba 00 00
	00		 je	 $LN1@LoadFloat_@6
  00162	8a 50 15	 mov	 dl, BYTE PTR [eax+21]
  00165	84 d2		 test	 dl, dl
  00167	74 40		 je	 SHORT $LN75@LoadFloat_@6
  00169	32 d1		 xor	 dl, cl
  0016b	88 55 f5	 mov	 BYTE PTR __k$[ebp+21], dl
  0016e	8a 50 16	 mov	 dl, BYTE PTR [eax+22]
  00171	84 d2		 test	 dl, dl
  00173	74 2f		 je	 SHORT $LN74@LoadFloat_@6
  00175	32 d3		 xor	 dl, bl
  00177	88 55 f6	 mov	 BYTE PTR __k$[ebp+22], dl
  0017a	8a 50 17	 mov	 dl, BYTE PTR [eax+23]
  0017d	84 d2		 test	 dl, dl
  0017f	74 1d		 je	 SHORT $LN73@LoadFloat_@6
  00181	8a 40 18	 mov	 al, BYTE PTR [eax+24]
  00184	80 f2 ea	 xor	 dl, -22			; ffffffeaH
  00187	88 55 f7	 mov	 BYTE PTR __k$[ebp+23], dl
  0018a	84 c0		 test	 al, al
  0018c	74 0a		 je	 SHORT $LN72@LoadFloat_@6
  0018e	34 ed		 xor	 al, -19			; ffffffedH
  00190	88 45 f8	 mov	 BYTE PTR __k$[ebp+24], al
  00193	e9 84 00 00 00	 jmp	 $LN1@LoadFloat_@6
$LN72@LoadFloat_@6:
  00198	c6 45 f8 ed	 mov	 BYTE PTR __k$[ebp+24], -19 ; ffffffedH
  0019c	eb 7e		 jmp	 SHORT $LN1@LoadFloat_@6
$LN73@LoadFloat_@6:
  0019e	c6 45 f7 ea	 mov	 BYTE PTR __k$[ebp+23], -22 ; ffffffeaH
  001a2	eb 78		 jmp	 SHORT $LN1@LoadFloat_@6
$LN74@LoadFloat_@6:
  001a4	88 5d f6	 mov	 BYTE PTR __k$[ebp+22], bl
  001a7	eb 73		 jmp	 SHORT $LN1@LoadFloat_@6
$LN75@LoadFloat_@6:
  001a9	88 4d f5	 mov	 BYTE PTR __k$[ebp+21], cl
  001ac	eb 6e		 jmp	 SHORT $LN1@LoadFloat_@6
$LN77@LoadFloat_@6:
  001ae	c6 45 f3 ea	 mov	 BYTE PTR __k$[ebp+19], -22 ; ffffffeaH
  001b2	eb 68		 jmp	 SHORT $LN1@LoadFloat_@6
$LN78@LoadFloat_@6:
  001b4	88 5d f2	 mov	 BYTE PTR __k$[ebp+18], bl
  001b7	eb 63		 jmp	 SHORT $LN1@LoadFloat_@6
$LN79@LoadFloat_@6:
  001b9	88 4d f1	 mov	 BYTE PTR __k$[ebp+17], cl
  001bc	eb 5e		 jmp	 SHORT $LN1@LoadFloat_@6
$LN80@LoadFloat_@6:
  001be	c6 45 f0 ed	 mov	 BYTE PTR __k$[ebp+16], -19 ; ffffffedH
  001c2	eb 58		 jmp	 SHORT $LN1@LoadFloat_@6
$LN81@LoadFloat_@6:
  001c4	c6 45 ef ea	 mov	 BYTE PTR __k$[ebp+15], -22 ; ffffffeaH
  001c8	eb 52		 jmp	 SHORT $LN1@LoadFloat_@6
$LN82@LoadFloat_@6:
  001ca	88 5d ee	 mov	 BYTE PTR __k$[ebp+14], bl
  001cd	eb 4d		 jmp	 SHORT $LN1@LoadFloat_@6
$LN83@LoadFloat_@6:
  001cf	88 4d ed	 mov	 BYTE PTR __k$[ebp+13], cl
  001d2	eb 48		 jmp	 SHORT $LN1@LoadFloat_@6
$LN84@LoadFloat_@6:
  001d4	c6 45 ec ed	 mov	 BYTE PTR __k$[ebp+12], -19 ; ffffffedH
  001d8	eb 42		 jmp	 SHORT $LN1@LoadFloat_@6
$LN85@LoadFloat_@6:
  001da	c6 45 eb ea	 mov	 BYTE PTR __k$[ebp+11], -22 ; ffffffeaH
  001de	eb 3c		 jmp	 SHORT $LN1@LoadFloat_@6
$LN86@LoadFloat_@6:
  001e0	88 5d ea	 mov	 BYTE PTR __k$[ebp+10], bl
  001e3	eb 37		 jmp	 SHORT $LN1@LoadFloat_@6
$LN87@LoadFloat_@6:
  001e5	88 4d e9	 mov	 BYTE PTR __k$[ebp+9], cl
  001e8	eb 32		 jmp	 SHORT $LN1@LoadFloat_@6
$LN88@LoadFloat_@6:
  001ea	c6 45 e8 ed	 mov	 BYTE PTR __k$[ebp+8], -19 ; ffffffedH
  001ee	eb 2c		 jmp	 SHORT $LN1@LoadFloat_@6
$LN89@LoadFloat_@6:
  001f0	c6 45 e7 ea	 mov	 BYTE PTR __k$[ebp+7], -22 ; ffffffeaH
  001f4	eb 26		 jmp	 SHORT $LN1@LoadFloat_@6
$LN90@LoadFloat_@6:
  001f6	88 5d e6	 mov	 BYTE PTR __k$[ebp+6], bl
  001f9	eb 21		 jmp	 SHORT $LN1@LoadFloat_@6
$LN91@LoadFloat_@6:
  001fb	88 4d e5	 mov	 BYTE PTR __k$[ebp+5], cl
  001fe	eb 1c		 jmp	 SHORT $LN1@LoadFloat_@6
$LN92@LoadFloat_@6:
  00200	c6 45 e4 ed	 mov	 BYTE PTR __k$[ebp+4], -19 ; ffffffedH
  00204	eb 16		 jmp	 SHORT $LN1@LoadFloat_@6
$LN93@LoadFloat_@6:
  00206	c6 45 e3 ea	 mov	 BYTE PTR __k$[ebp+3], -22 ; ffffffeaH
  0020a	eb 10		 jmp	 SHORT $LN1@LoadFloat_@6
$LN94@LoadFloat_@6:
  0020c	c6 45 e2 eb	 mov	 BYTE PTR __k$[ebp+2], -21 ; ffffffebH
  00210	eb 0a		 jmp	 SHORT $LN1@LoadFloat_@6
$LN95@LoadFloat_@6:
  00212	c6 45 e1 ec	 mov	 BYTE PTR __k$[ebp+1], -20 ; ffffffecH
  00216	eb 04		 jmp	 SHORT $LN1@LoadFloat_@6
$LN96@LoadFloat_@6:
  00218	c6 45 e0 ed	 mov	 BYTE PTR __k$[ebp], -19	; ffffffedH
$LN1@LoadFloat_@6:
  0021c	6a 05		 push	 5
  0021e	8d 45 e0	 lea	 eax, DWORD PTR __k$[ebp]
  00221	c6 45 f4 00	 mov	 BYTE PTR __k$[ebp+20], 0
  00225	5a		 pop	 edx
$LL104@LoadFloat_@6:
  00226	81 30 ed ec eb
	ea		 xor	 DWORD PTR [eax], -353637139 ; eaebecedH
  0022c	83 c0 04	 add	 eax, 4
  0022f	4a		 dec	 edx
  00230	75 f4		 jne	 SHORT $LL104@LoadFloat_@6

; 137  : 		return LoadFloat(_k, f);

  00232	f3 0f 10 45 0c	 movss	 xmm0, DWORD PTR _f$[ebp]
  00237	51		 push	 ecx
  00238	8d 45 e0	 lea	 eax, DWORD PTR __k$[ebp]
  0023b	f3 0f 11 04 24	 movss	 DWORD PTR [esp], xmm0
  00240	50		 push	 eax
  00241	8b ce		 mov	 ecx, esi
  00243	ff 15 00 00 00
	00		 call	 DWORD PTR __imp_?LoadFloat@ioINILoader@@QAEMPBDM@Z

; 138  : 	}

  00249	8b 4d fc	 mov	 ecx, DWORD PTR __$ArrayPad$[ebp]
  0024c	5e		 pop	 esi
  0024d	33 cd		 xor	 ecx, ebp
  0024f	5b		 pop	 ebx
  00250	e8 00 00 00 00	 call	 @__security_check_cookie@4
  00255	c9		 leave
  00256	c2 08 00	 ret	 8
??$LoadFloat_e@$0BF@@ioINILoader@@QAEMAAY0BF@$$CBDM@Z ENDP ; ioINILoader::LoadFloat_e<21>
_TEXT	ENDS
PUBLIC	__$ArrayPad$
PUBLIC	??$LoadInt_e@$0BC@@ioINILoader@@QAEHAAY0BC@$$CBDH@Z ; ioINILoader::LoadInt_e<18>
; Function compile flags: /Ogsp
;	COMDAT ??$LoadInt_e@$0BC@@ioINILoader@@QAEHAAY0BC@$$CBDH@Z
_TEXT	SEGMENT
__k$ = -28						; size = 18
__$ArrayPad$ = -4					; size = 4
_k$ = 8							; size = 4
_i$ = 12						; size = 4
??$LoadInt_e@$0BC@@ioINILoader@@QAEHAAY0BC@$$CBDH@Z PROC ; ioINILoader::LoadInt_e<18>, COMDAT
; _this$ = ecx

; 118  : 	{

  00000	55		 push	 ebp
  00001	8b ec		 mov	 ebp, esp
  00003	83 ec 1c	 sub	 esp, 28			; 0000001cH
  00006	a1 00 00 00 00	 mov	 eax, DWORD PTR ___security_cookie
  0000b	33 c5		 xor	 eax, ebp
  0000d	89 45 fc	 mov	 DWORD PTR __$ArrayPad$[ebp], eax
  00010	8b 45 08	 mov	 eax, DWORD PTR _k$[ebp]

; 119  : 		_ENCSTR(k, _k);

  00013	8a 10		 mov	 dl, BYTE PTR [eax]
  00015	56		 push	 esi
  00016	8b f1		 mov	 esi, ecx
  00018	84 d2		 test	 dl, dl
  0001a	0f 84 be 01 00
	00		 je	 $LN96@LoadInt_e@3
  00020	80 f2 ed	 xor	 dl, -19			; ffffffedH
  00023	88 55 e4	 mov	 BYTE PTR __k$[ebp], dl
  00026	8a 50 01	 mov	 dl, BYTE PTR [eax+1]
  00029	84 d2		 test	 dl, dl
  0002b	0f 84 a7 01 00
	00		 je	 $LN95@LoadInt_e@3
  00031	80 f2 ec	 xor	 dl, -20			; ffffffecH
  00034	88 55 e5	 mov	 BYTE PTR __k$[ebp+1], dl
  00037	8a 50 02	 mov	 dl, BYTE PTR [eax+2]
  0003a	84 d2		 test	 dl, dl
  0003c	0f 84 90 01 00
	00		 je	 $LN94@LoadInt_e@3
  00042	b1 eb		 mov	 cl, -21			; ffffffebH
  00044	32 d1		 xor	 dl, cl
  00046	88 55 e6	 mov	 BYTE PTR __k$[ebp+2], dl
  00049	8a 50 03	 mov	 dl, BYTE PTR [eax+3]
  0004c	84 d2		 test	 dl, dl
  0004e	0f 84 78 01 00
	00		 je	 $LN93@LoadInt_e@3
  00054	80 f2 ea	 xor	 dl, -22			; ffffffeaH
  00057	88 55 e7	 mov	 BYTE PTR __k$[ebp+3], dl
  0005a	8a 50 04	 mov	 dl, BYTE PTR [eax+4]
  0005d	84 d2		 test	 dl, dl
  0005f	0f 84 61 01 00
	00		 je	 $LN92@LoadInt_e@3
  00065	80 f2 ed	 xor	 dl, -19			; ffffffedH
  00068	88 55 e8	 mov	 BYTE PTR __k$[ebp+4], dl
  0006b	8a 50 05	 mov	 dl, BYTE PTR [eax+5]
  0006e	84 d2		 test	 dl, dl
  00070	0f 84 4a 01 00
	00		 je	 $LN91@LoadInt_e@3
  00076	80 f2 ec	 xor	 dl, -20			; ffffffecH
  00079	88 55 e9	 mov	 BYTE PTR __k$[ebp+5], dl
  0007c	8a 50 06	 mov	 dl, BYTE PTR [eax+6]
  0007f	84 d2		 test	 dl, dl
  00081	0f 84 34 01 00
	00		 je	 $LN90@LoadInt_e@3
  00087	32 d1		 xor	 dl, cl
  00089	88 55 ea	 mov	 BYTE PTR __k$[ebp+6], dl
  0008c	8a 50 07	 mov	 dl, BYTE PTR [eax+7]
  0008f	84 d2		 test	 dl, dl
  00091	0f 84 1e 01 00
	00		 je	 $LN89@LoadInt_e@3
  00097	80 f2 ea	 xor	 dl, -22			; ffffffeaH
  0009a	88 55 eb	 mov	 BYTE PTR __k$[ebp+7], dl
  0009d	8a 50 08	 mov	 dl, BYTE PTR [eax+8]
  000a0	84 d2		 test	 dl, dl
  000a2	0f 84 07 01 00
	00		 je	 $LN88@LoadInt_e@3
  000a8	80 f2 ed	 xor	 dl, -19			; ffffffedH
  000ab	88 55 ec	 mov	 BYTE PTR __k$[ebp+8], dl
  000ae	8a 50 09	 mov	 dl, BYTE PTR [eax+9]
  000b1	84 d2		 test	 dl, dl
  000b3	0f 84 f0 00 00
	00		 je	 $LN87@LoadInt_e@3
  000b9	80 f2 ec	 xor	 dl, -20			; ffffffecH
  000bc	88 55 ed	 mov	 BYTE PTR __k$[ebp+9], dl
  000bf	8a 50 0a	 mov	 dl, BYTE PTR [eax+10]
  000c2	84 d2		 test	 dl, dl
  000c4	0f 84 da 00 00
	00		 je	 $LN86@LoadInt_e@3
  000ca	32 d1		 xor	 dl, cl
  000cc	88 55 ee	 mov	 BYTE PTR __k$[ebp+10], dl
  000cf	8a 50 0b	 mov	 dl, BYTE PTR [eax+11]
  000d2	84 d2		 test	 dl, dl
  000d4	0f 84 c4 00 00
	00		 je	 $LN85@LoadInt_e@3
  000da	80 f2 ea	 xor	 dl, -22			; ffffffeaH
  000dd	88 55 ef	 mov	 BYTE PTR __k$[ebp+11], dl
  000e0	8a 50 0c	 mov	 dl, BYTE PTR [eax+12]
  000e3	84 d2		 test	 dl, dl
  000e5	0f 84 ad 00 00
	00		 je	 $LN84@LoadInt_e@3
  000eb	80 f2 ed	 xor	 dl, -19			; ffffffedH
  000ee	88 55 f0	 mov	 BYTE PTR __k$[ebp+12], dl
  000f1	8a 50 0d	 mov	 dl, BYTE PTR [eax+13]
  000f4	84 d2		 test	 dl, dl
  000f6	0f 84 96 00 00
	00		 je	 $LN83@LoadInt_e@3
  000fc	80 f2 ec	 xor	 dl, -20			; ffffffecH
  000ff	88 55 f1	 mov	 BYTE PTR __k$[ebp+13], dl
  00102	8a 50 0e	 mov	 dl, BYTE PTR [eax+14]
  00105	84 d2		 test	 dl, dl
  00107	0f 84 80 00 00
	00		 je	 $LN82@LoadInt_e@3
  0010d	32 d1		 xor	 dl, cl
  0010f	88 55 f2	 mov	 BYTE PTR __k$[ebp+14], dl
  00112	8a 50 0f	 mov	 dl, BYTE PTR [eax+15]
  00115	84 d2		 test	 dl, dl
  00117	74 6e		 je	 SHORT $LN81@LoadInt_e@3
  00119	80 f2 ea	 xor	 dl, -22			; ffffffeaH
  0011c	88 55 f3	 mov	 BYTE PTR __k$[ebp+15], dl
  0011f	8a 50 10	 mov	 dl, BYTE PTR [eax+16]
  00122	84 d2		 test	 dl, dl
  00124	74 5b		 je	 SHORT $LN80@LoadInt_e@3
  00126	80 f2 ed	 xor	 dl, -19			; ffffffedH
  00129	80 78 11 00	 cmp	 BYTE PTR [eax+17], 0
  0012d	88 55 f4	 mov	 BYTE PTR __k$[ebp+16], dl
  00130	0f 84 ac 00 00
	00		 je	 $LN1@LoadInt_e@3
  00136	8a 50 12	 mov	 dl, BYTE PTR [eax+18]
  00139	84 d2		 test	 dl, dl
  0013b	74 3f		 je	 SHORT $LN78@LoadInt_e@3
  0013d	32 d1		 xor	 dl, cl
  0013f	88 55 f6	 mov	 BYTE PTR __k$[ebp+18], dl
  00142	8a 50 13	 mov	 dl, BYTE PTR [eax+19]
  00145	84 d2		 test	 dl, dl
  00147	74 2d		 je	 SHORT $LN77@LoadInt_e@3
  00149	80 f2 ea	 xor	 dl, -22			; ffffffeaH
  0014c	88 55 f7	 mov	 BYTE PTR __k$[ebp+19], dl
  0014f	8a 50 14	 mov	 dl, BYTE PTR [eax+20]
  00152	84 d2		 test	 dl, dl
  00154	74 1a		 je	 SHORT $LN76@LoadInt_e@3
  00156	8a 40 15	 mov	 al, BYTE PTR [eax+21]
  00159	80 f2 ed	 xor	 dl, -19			; ffffffedH
  0015c	88 55 f8	 mov	 BYTE PTR __k$[ebp+20], dl
  0015f	84 c0		 test	 al, al
  00161	74 07		 je	 SHORT $LN75@LoadInt_e@3
  00163	34 ec		 xor	 al, -20			; ffffffecH
  00165	88 45 f9	 mov	 BYTE PTR __k$[ebp+21], al
  00168	eb 78		 jmp	 SHORT $LN1@LoadInt_e@3
$LN75@LoadInt_e@3:
  0016a	c6 45 f9 ec	 mov	 BYTE PTR __k$[ebp+21], -20 ; ffffffecH
  0016e	eb 72		 jmp	 SHORT $LN1@LoadInt_e@3
$LN76@LoadInt_e@3:
  00170	c6 45 f8 ed	 mov	 BYTE PTR __k$[ebp+20], -19 ; ffffffedH
  00174	eb 6c		 jmp	 SHORT $LN1@LoadInt_e@3
$LN77@LoadInt_e@3:
  00176	c6 45 f7 ea	 mov	 BYTE PTR __k$[ebp+19], -22 ; ffffffeaH
  0017a	eb 66		 jmp	 SHORT $LN1@LoadInt_e@3
$LN78@LoadInt_e@3:
  0017c	88 4d f6	 mov	 BYTE PTR __k$[ebp+18], cl
  0017f	eb 61		 jmp	 SHORT $LN1@LoadInt_e@3
$LN80@LoadInt_e@3:
  00181	c6 45 f4 ed	 mov	 BYTE PTR __k$[ebp+16], -19 ; ffffffedH
  00185	eb 5b		 jmp	 SHORT $LN1@LoadInt_e@3
$LN81@LoadInt_e@3:
  00187	c6 45 f3 ea	 mov	 BYTE PTR __k$[ebp+15], -22 ; ffffffeaH
  0018b	eb 55		 jmp	 SHORT $LN1@LoadInt_e@3
$LN82@LoadInt_e@3:
  0018d	88 4d f2	 mov	 BYTE PTR __k$[ebp+14], cl
  00190	eb 50		 jmp	 SHORT $LN1@LoadInt_e@3
$LN83@LoadInt_e@3:
  00192	c6 45 f1 ec	 mov	 BYTE PTR __k$[ebp+13], -20 ; ffffffecH
  00196	eb 4a		 jmp	 SHORT $LN1@LoadInt_e@3
$LN84@LoadInt_e@3:
  00198	c6 45 f0 ed	 mov	 BYTE PTR __k$[ebp+12], -19 ; ffffffedH
  0019c	eb 44		 jmp	 SHORT $LN1@LoadInt_e@3
$LN85@LoadInt_e@3:
  0019e	c6 45 ef ea	 mov	 BYTE PTR __k$[ebp+11], -22 ; ffffffeaH
  001a2	eb 3e		 jmp	 SHORT $LN1@LoadInt_e@3
$LN86@LoadInt_e@3:
  001a4	88 4d ee	 mov	 BYTE PTR __k$[ebp+10], cl
  001a7	eb 39		 jmp	 SHORT $LN1@LoadInt_e@3
$LN87@LoadInt_e@3:
  001a9	c6 45 ed ec	 mov	 BYTE PTR __k$[ebp+9], -20 ; ffffffecH
  001ad	eb 33		 jmp	 SHORT $LN1@LoadInt_e@3
$LN88@LoadInt_e@3:
  001af	c6 45 ec ed	 mov	 BYTE PTR __k$[ebp+8], -19 ; ffffffedH
  001b3	eb 2d		 jmp	 SHORT $LN1@LoadInt_e@3
$LN89@LoadInt_e@3:
  001b5	c6 45 eb ea	 mov	 BYTE PTR __k$[ebp+7], -22 ; ffffffeaH
  001b9	eb 27		 jmp	 SHORT $LN1@LoadInt_e@3
$LN90@LoadInt_e@3:
  001bb	88 4d ea	 mov	 BYTE PTR __k$[ebp+6], cl
  001be	eb 22		 jmp	 SHORT $LN1@LoadInt_e@3
$LN91@LoadInt_e@3:
  001c0	c6 45 e9 ec	 mov	 BYTE PTR __k$[ebp+5], -20 ; ffffffecH
  001c4	eb 1c		 jmp	 SHORT $LN1@LoadInt_e@3
$LN92@LoadInt_e@3:
  001c6	c6 45 e8 ed	 mov	 BYTE PTR __k$[ebp+4], -19 ; ffffffedH
  001ca	eb 16		 jmp	 SHORT $LN1@LoadInt_e@3
$LN93@LoadInt_e@3:
  001cc	c6 45 e7 ea	 mov	 BYTE PTR __k$[ebp+3], -22 ; ffffffeaH
  001d0	eb 10		 jmp	 SHORT $LN1@LoadInt_e@3
$LN94@LoadInt_e@3:
  001d2	c6 45 e6 eb	 mov	 BYTE PTR __k$[ebp+2], -21 ; ffffffebH
  001d6	eb 0a		 jmp	 SHORT $LN1@LoadInt_e@3
$LN95@LoadInt_e@3:
  001d8	c6 45 e5 ec	 mov	 BYTE PTR __k$[ebp+1], -20 ; ffffffecH
  001dc	eb 04		 jmp	 SHORT $LN1@LoadInt_e@3
$LN96@LoadInt_e@3:
  001de	c6 45 e4 ed	 mov	 BYTE PTR __k$[ebp], -19	; ffffffedH
$LN1@LoadInt_e@3:
  001e2	6a 04		 push	 4
  001e4	8d 45 e4	 lea	 eax, DWORD PTR __k$[ebp]
  001e7	c6 45 f5 00	 mov	 BYTE PTR __k$[ebp+17], 0
  001eb	5a		 pop	 edx
$LL104@LoadInt_e@3:
  001ec	81 30 ed ec eb
	ea		 xor	 DWORD PTR [eax], -353637139 ; eaebecedH
  001f2	83 c0 04	 add	 eax, 4
  001f5	4a		 dec	 edx
  001f6	75 f4		 jne	 SHORT $LL104@LoadInt_e@3

; 120  : 		return LoadInt(_k, i);

  001f8	ff 75 0c	 push	 DWORD PTR _i$[ebp]
  001fb	80 75 f4 ed	 xor	 BYTE PTR __k$[ebp+16], -19 ; ffffffedH
  001ff	8d 45 e4	 lea	 eax, DWORD PTR __k$[ebp]
  00202	50		 push	 eax
  00203	8b ce		 mov	 ecx, esi
  00205	ff 15 00 00 00
	00		 call	 DWORD PTR __imp_?LoadInt@ioINILoader@@QAEHPBDH@Z

; 121  : 	}

  0020b	8b 4d fc	 mov	 ecx, DWORD PTR __$ArrayPad$[ebp]
  0020e	33 cd		 xor	 ecx, ebp
  00210	5e		 pop	 esi
  00211	e8 00 00 00 00	 call	 @__security_check_cookie@4
  00216	c9		 leave
  00217	c2 08 00	 ret	 8
??$LoadInt_e@$0BC@@ioINILoader@@QAEHAAY0BC@$$CBDH@Z ENDP ; ioINILoader::LoadInt_e<18>
_TEXT	ENDS
PUBLIC	__$ArrayPad$
PUBLIC	??$LoadInt_e@$0BE@@ioINILoader@@QAEHAAY0BE@$$CBDH@Z ; ioINILoader::LoadInt_e<20>
; Function compile flags: /Ogsp
;	COMDAT ??$LoadInt_e@$0BE@@ioINILoader@@QAEHAAY0BE@$$CBDH@Z
_TEXT	SEGMENT
__k$ = -28						; size = 20
__$ArrayPad$ = -4					; size = 4
_k$ = 8							; size = 4
_i$ = 12						; size = 4
??$LoadInt_e@$0BE@@ioINILoader@@QAEHAAY0BE@$$CBDH@Z PROC ; ioINILoader::LoadInt_e<20>, COMDAT
; _this$ = ecx

; 118  : 	{

  00000	55		 push	 ebp
  00001	8b ec		 mov	 ebp, esp
  00003	83 ec 1c	 sub	 esp, 28			; 0000001cH
  00006	a1 00 00 00 00	 mov	 eax, DWORD PTR ___security_cookie
  0000b	33 c5		 xor	 eax, ebp
  0000d	89 45 fc	 mov	 DWORD PTR __$ArrayPad$[ebp], eax
  00010	8b 45 08	 mov	 eax, DWORD PTR _k$[ebp]

; 119  : 		_ENCSTR(k, _k);

  00013	8a 10		 mov	 dl, BYTE PTR [eax]
  00015	53		 push	 ebx
  00016	56		 push	 esi
  00017	8b f1		 mov	 esi, ecx
  00019	84 d2		 test	 dl, dl
  0001b	0f 84 dd 01 00
	00		 je	 $LN96@LoadInt_e@4
  00021	80 f2 ed	 xor	 dl, -19			; ffffffedH
  00024	88 55 e4	 mov	 BYTE PTR __k$[ebp], dl
  00027	8a 50 01	 mov	 dl, BYTE PTR [eax+1]
  0002a	84 d2		 test	 dl, dl
  0002c	0f 84 c6 01 00
	00		 je	 $LN95@LoadInt_e@4
  00032	b3 ec		 mov	 bl, -20			; ffffffecH
  00034	32 d3		 xor	 dl, bl
  00036	88 55 e5	 mov	 BYTE PTR __k$[ebp+1], dl
  00039	8a 50 02	 mov	 dl, BYTE PTR [eax+2]
  0003c	84 d2		 test	 dl, dl
  0003e	0f 84 ae 01 00
	00		 je	 $LN94@LoadInt_e@4
  00044	b1 eb		 mov	 cl, -21			; ffffffebH
  00046	32 d1		 xor	 dl, cl
  00048	88 55 e6	 mov	 BYTE PTR __k$[ebp+2], dl
  0004b	8a 50 03	 mov	 dl, BYTE PTR [eax+3]
  0004e	84 d2		 test	 dl, dl
  00050	0f 84 96 01 00
	00		 je	 $LN93@LoadInt_e@4
  00056	80 f2 ea	 xor	 dl, -22			; ffffffeaH
  00059	88 55 e7	 mov	 BYTE PTR __k$[ebp+3], dl
  0005c	8a 50 04	 mov	 dl, BYTE PTR [eax+4]
  0005f	84 d2		 test	 dl, dl
  00061	0f 84 7f 01 00
	00		 je	 $LN92@LoadInt_e@4
  00067	80 f2 ed	 xor	 dl, -19			; ffffffedH
  0006a	88 55 e8	 mov	 BYTE PTR __k$[ebp+4], dl
  0006d	8a 50 05	 mov	 dl, BYTE PTR [eax+5]
  00070	84 d2		 test	 dl, dl
  00072	0f 84 69 01 00
	00		 je	 $LN91@LoadInt_e@4
  00078	32 d3		 xor	 dl, bl
  0007a	88 55 e9	 mov	 BYTE PTR __k$[ebp+5], dl
  0007d	8a 50 06	 mov	 dl, BYTE PTR [eax+6]
  00080	84 d2		 test	 dl, dl
  00082	0f 84 54 01 00
	00		 je	 $LN90@LoadInt_e@4
  00088	32 d1		 xor	 dl, cl
  0008a	88 55 ea	 mov	 BYTE PTR __k$[ebp+6], dl
  0008d	8a 50 07	 mov	 dl, BYTE PTR [eax+7]
  00090	84 d2		 test	 dl, dl
  00092	0f 84 3e 01 00
	00		 je	 $LN89@LoadInt_e@4
  00098	80 f2 ea	 xor	 dl, -22			; ffffffeaH
  0009b	88 55 eb	 mov	 BYTE PTR __k$[ebp+7], dl
  0009e	8a 50 08	 mov	 dl, BYTE PTR [eax+8]
  000a1	84 d2		 test	 dl, dl
  000a3	0f 84 27 01 00
	00		 je	 $LN88@LoadInt_e@4
  000a9	80 f2 ed	 xor	 dl, -19			; ffffffedH
  000ac	88 55 ec	 mov	 BYTE PTR __k$[ebp+8], dl
  000af	8a 50 09	 mov	 dl, BYTE PTR [eax+9]
  000b2	84 d2		 test	 dl, dl
  000b4	0f 84 11 01 00
	00		 je	 $LN87@LoadInt_e@4
  000ba	32 d3		 xor	 dl, bl
  000bc	88 55 ed	 mov	 BYTE PTR __k$[ebp+9], dl
  000bf	8a 50 0a	 mov	 dl, BYTE PTR [eax+10]
  000c2	84 d2		 test	 dl, dl
  000c4	0f 84 fc 00 00
	00		 je	 $LN86@LoadInt_e@4
  000ca	32 d1		 xor	 dl, cl
  000cc	88 55 ee	 mov	 BYTE PTR __k$[ebp+10], dl
  000cf	8a 50 0b	 mov	 dl, BYTE PTR [eax+11]
  000d2	84 d2		 test	 dl, dl
  000d4	0f 84 e6 00 00
	00		 je	 $LN85@LoadInt_e@4
  000da	80 f2 ea	 xor	 dl, -22			; ffffffeaH
  000dd	88 55 ef	 mov	 BYTE PTR __k$[ebp+11], dl
  000e0	8a 50 0c	 mov	 dl, BYTE PTR [eax+12]
  000e3	84 d2		 test	 dl, dl
  000e5	0f 84 cf 00 00
	00		 je	 $LN84@LoadInt_e@4
  000eb	80 f2 ed	 xor	 dl, -19			; ffffffedH
  000ee	88 55 f0	 mov	 BYTE PTR __k$[ebp+12], dl
  000f1	8a 50 0d	 mov	 dl, BYTE PTR [eax+13]
  000f4	84 d2		 test	 dl, dl
  000f6	0f 84 b9 00 00
	00		 je	 $LN83@LoadInt_e@4
  000fc	32 d3		 xor	 dl, bl
  000fe	88 55 f1	 mov	 BYTE PTR __k$[ebp+13], dl
  00101	8a 50 0e	 mov	 dl, BYTE PTR [eax+14]
  00104	84 d2		 test	 dl, dl
  00106	0f 84 a4 00 00
	00		 je	 $LN82@LoadInt_e@4
  0010c	32 d1		 xor	 dl, cl
  0010e	88 55 f2	 mov	 BYTE PTR __k$[ebp+14], dl
  00111	8a 50 0f	 mov	 dl, BYTE PTR [eax+15]
  00114	84 d2		 test	 dl, dl
  00116	0f 84 8e 00 00
	00		 je	 $LN81@LoadInt_e@4
  0011c	80 f2 ea	 xor	 dl, -22			; ffffffeaH
  0011f	88 55 f3	 mov	 BYTE PTR __k$[ebp+15], dl
  00122	8a 50 10	 mov	 dl, BYTE PTR [eax+16]
  00125	84 d2		 test	 dl, dl
  00127	74 7b		 je	 SHORT $LN80@LoadInt_e@4
  00129	80 f2 ed	 xor	 dl, -19			; ffffffedH
  0012c	88 55 f4	 mov	 BYTE PTR __k$[ebp+16], dl
  0012f	8a 50 11	 mov	 dl, BYTE PTR [eax+17]
  00132	84 d2		 test	 dl, dl
  00134	74 69		 je	 SHORT $LN79@LoadInt_e@4
  00136	32 d3		 xor	 dl, bl
  00138	88 55 f5	 mov	 BYTE PTR __k$[ebp+17], dl
  0013b	8a 50 12	 mov	 dl, BYTE PTR [eax+18]
  0013e	84 d2		 test	 dl, dl
  00140	74 58		 je	 SHORT $LN78@LoadInt_e@4
  00142	32 d1		 xor	 dl, cl
  00144	80 78 13 00	 cmp	 BYTE PTR [eax+19], 0
  00148	88 55 f6	 mov	 BYTE PTR __k$[ebp+18], dl
  0014b	0f 84 b1 00 00
	00		 je	 $LN1@LoadInt_e@4
  00151	8a 50 14	 mov	 dl, BYTE PTR [eax+20]
  00154	84 d2		 test	 dl, dl
  00156	74 3c		 je	 SHORT $LN76@LoadInt_e@4
  00158	80 f2 ed	 xor	 dl, -19			; ffffffedH
  0015b	88 55 f8	 mov	 BYTE PTR __k$[ebp+20], dl
  0015e	8a 50 15	 mov	 dl, BYTE PTR [eax+21]
  00161	84 d2		 test	 dl, dl
  00163	74 2a		 je	 SHORT $LN75@LoadInt_e@4
  00165	32 d3		 xor	 dl, bl
  00167	88 55 f9	 mov	 BYTE PTR __k$[ebp+21], dl
  0016a	8a 50 16	 mov	 dl, BYTE PTR [eax+22]
  0016d	84 d2		 test	 dl, dl
  0016f	74 19		 je	 SHORT $LN74@LoadInt_e@4
  00171	8a 40 17	 mov	 al, BYTE PTR [eax+23]
  00174	32 d1		 xor	 dl, cl
  00176	88 55 fa	 mov	 BYTE PTR __k$[ebp+22], dl
  00179	84 c0		 test	 al, al
  0017b	74 07		 je	 SHORT $LN73@LoadInt_e@4
  0017d	34 ea		 xor	 al, -22			; ffffffeaH
  0017f	88 45 fb	 mov	 BYTE PTR __k$[ebp+23], al
  00182	eb 7e		 jmp	 SHORT $LN1@LoadInt_e@4
$LN73@LoadInt_e@4:
  00184	c6 45 fb ea	 mov	 BYTE PTR __k$[ebp+23], -22 ; ffffffeaH
  00188	eb 78		 jmp	 SHORT $LN1@LoadInt_e@4
$LN74@LoadInt_e@4:
  0018a	88 4d fa	 mov	 BYTE PTR __k$[ebp+22], cl
  0018d	eb 73		 jmp	 SHORT $LN1@LoadInt_e@4
$LN75@LoadInt_e@4:
  0018f	88 5d f9	 mov	 BYTE PTR __k$[ebp+21], bl
  00192	eb 6e		 jmp	 SHORT $LN1@LoadInt_e@4
$LN76@LoadInt_e@4:
  00194	c6 45 f8 ed	 mov	 BYTE PTR __k$[ebp+20], -19 ; ffffffedH
  00198	eb 68		 jmp	 SHORT $LN1@LoadInt_e@4
$LN78@LoadInt_e@4:
  0019a	88 4d f6	 mov	 BYTE PTR __k$[ebp+18], cl
  0019d	eb 63		 jmp	 SHORT $LN1@LoadInt_e@4
$LN79@LoadInt_e@4:
  0019f	88 5d f5	 mov	 BYTE PTR __k$[ebp+17], bl
  001a2	eb 5e		 jmp	 SHORT $LN1@LoadInt_e@4
$LN80@LoadInt_e@4:
  001a4	c6 45 f4 ed	 mov	 BYTE PTR __k$[ebp+16], -19 ; ffffffedH
  001a8	eb 58		 jmp	 SHORT $LN1@LoadInt_e@4
$LN81@LoadInt_e@4:
  001aa	c6 45 f3 ea	 mov	 BYTE PTR __k$[ebp+15], -22 ; ffffffeaH
  001ae	eb 52		 jmp	 SHORT $LN1@LoadInt_e@4
$LN82@LoadInt_e@4:
  001b0	88 4d f2	 mov	 BYTE PTR __k$[ebp+14], cl
  001b3	eb 4d		 jmp	 SHORT $LN1@LoadInt_e@4
$LN83@LoadInt_e@4:
  001b5	88 5d f1	 mov	 BYTE PTR __k$[ebp+13], bl
  001b8	eb 48		 jmp	 SHORT $LN1@LoadInt_e@4
$LN84@LoadInt_e@4:
  001ba	c6 45 f0 ed	 mov	 BYTE PTR __k$[ebp+12], -19 ; ffffffedH
  001be	eb 42		 jmp	 SHORT $LN1@LoadInt_e@4
$LN85@LoadInt_e@4:
  001c0	c6 45 ef ea	 mov	 BYTE PTR __k$[ebp+11], -22 ; ffffffeaH
  001c4	eb 3c		 jmp	 SHORT $LN1@LoadInt_e@4
$LN86@LoadInt_e@4:
  001c6	88 4d ee	 mov	 BYTE PTR __k$[ebp+10], cl
  001c9	eb 37		 jmp	 SHORT $LN1@LoadInt_e@4
$LN87@LoadInt_e@4:
  001cb	88 5d ed	 mov	 BYTE PTR __k$[ebp+9], bl
  001ce	eb 32		 jmp	 SHORT $LN1@LoadInt_e@4
$LN88@LoadInt_e@4:
  001d0	c6 45 ec ed	 mov	 BYTE PTR __k$[ebp+8], -19 ; ffffffedH
  001d4	eb 2c		 jmp	 SHORT $LN1@LoadInt_e@4
$LN89@LoadInt_e@4:
  001d6	c6 45 eb ea	 mov	 BYTE PTR __k$[ebp+7], -22 ; ffffffeaH
  001da	eb 26		 jmp	 SHORT $LN1@LoadInt_e@4
$LN90@LoadInt_e@4:
  001dc	88 4d ea	 mov	 BYTE PTR __k$[ebp+6], cl
  001df	eb 21		 jmp	 SHORT $LN1@LoadInt_e@4
$LN91@LoadInt_e@4:
  001e1	88 5d e9	 mov	 BYTE PTR __k$[ebp+5], bl
  001e4	eb 1c		 jmp	 SHORT $LN1@LoadInt_e@4
$LN92@LoadInt_e@4:
  001e6	c6 45 e8 ed	 mov	 BYTE PTR __k$[ebp+4], -19 ; ffffffedH
  001ea	eb 16		 jmp	 SHORT $LN1@LoadInt_e@4
$LN93@LoadInt_e@4:
  001ec	c6 45 e7 ea	 mov	 BYTE PTR __k$[ebp+3], -22 ; ffffffeaH
  001f0	eb 10		 jmp	 SHORT $LN1@LoadInt_e@4
$LN94@LoadInt_e@4:
  001f2	c6 45 e6 eb	 mov	 BYTE PTR __k$[ebp+2], -21 ; ffffffebH
  001f6	eb 0a		 jmp	 SHORT $LN1@LoadInt_e@4
$LN95@LoadInt_e@4:
  001f8	c6 45 e5 ec	 mov	 BYTE PTR __k$[ebp+1], -20 ; ffffffecH
  001fc	eb 04		 jmp	 SHORT $LN1@LoadInt_e@4
$LN96@LoadInt_e@4:
  001fe	c6 45 e4 ed	 mov	 BYTE PTR __k$[ebp], -19	; ffffffedH
$LN1@LoadInt_e@4:
  00202	6a 04		 push	 4
  00204	8d 45 e4	 lea	 eax, DWORD PTR __k$[ebp]
  00207	c6 45 f7 00	 mov	 BYTE PTR __k$[ebp+19], 0
  0020b	5a		 pop	 edx
$LL104@LoadInt_e@4:
  0020c	81 30 ed ec eb
	ea		 xor	 DWORD PTR [eax], -353637139 ; eaebecedH
  00212	83 c0 04	 add	 eax, 4
  00215	4a		 dec	 edx
  00216	75 f4		 jne	 SHORT $LL104@LoadInt_e@4
  00218	6a 10		 push	 16			; 00000010H
  0021a	58		 pop	 eax
$LL101@LoadInt_e@4:
  0021b	8b c8		 mov	 ecx, eax
  0021d	81 e1 03 00 00
	80		 and	 ecx, -2147483645	; 80000003H
  00223	79 05		 jns	 SHORT $LN111@LoadInt_e@4
  00225	49		 dec	 ecx
  00226	83 c9 fc	 or	 ecx, -4			; fffffffcH
  00229	41		 inc	 ecx
$LN111@LoadInt_e@4:
  0022a	b2 ed		 mov	 dl, -19			; ffffffedH
  0022c	2a d1		 sub	 dl, cl
  0022e	30 54 05 e4	 xor	 BYTE PTR __k$[ebp+eax], dl
  00232	40		 inc	 eax
  00233	83 f8 13	 cmp	 eax, 19			; 00000013H
  00236	7c e3		 jl	 SHORT $LL101@LoadInt_e@4

; 120  : 		return LoadInt(_k, i);

  00238	ff 75 0c	 push	 DWORD PTR _i$[ebp]
  0023b	8d 45 e4	 lea	 eax, DWORD PTR __k$[ebp]
  0023e	50		 push	 eax
  0023f	8b ce		 mov	 ecx, esi
  00241	ff 15 00 00 00
	00		 call	 DWORD PTR __imp_?LoadInt@ioINILoader@@QAEHPBDH@Z

; 121  : 	}

  00247	8b 4d fc	 mov	 ecx, DWORD PTR __$ArrayPad$[ebp]
  0024a	5e		 pop	 esi
  0024b	33 cd		 xor	 ecx, ebp
  0024d	5b		 pop	 ebx
  0024e	e8 00 00 00 00	 call	 @__security_check_cookie@4
  00253	c9		 leave
  00254	c2 08 00	 ret	 8
??$LoadInt_e@$0BE@@ioINILoader@@QAEHAAY0BE@$$CBDH@Z ENDP ; ioINILoader::LoadInt_e<20>
_TEXT	ENDS
PUBLIC	??$GetAnimationEventTime_e@$0N@@ioEntityGroup@@QAEMHAAY0N@$$CBD@Z ; ioEntityGroup::GetAnimationEventTime_e<13>
EXTRN	__imp_?GetAnimationEventTime@ioEntityGroup@@QAEMHABVioHashString@@@Z:PROC
EXTRN	__imp_??0ioHashString@@QAE@PBD@Z:PROC
EXTRN	__EH_epilog3_GS:PROC
EXTRN	__EH_prolog3_GS:PROC
;	COMDAT xdata$x
; File d:\lost saga for developer\youtube\tutorial\source\src\lsclient\stringprotect.h
xdata$x	SEGMENT
__unwindtable$??$GetAnimationEventTime_e@$0N@@ioEntityGroup@@QAEMHAAY0N@$$CBD@Z DD 0ffffffffH
	DD	FLAT:__unwindfunclet$??$GetAnimationEventTime_e@$0N@@ioEntityGroup@@QAEMHAAY0N@$$CBD@Z$0
__ehfuncinfo$??$GetAnimationEventTime_e@$0N@@ioEntityGroup@@QAEMHAAY0N@$$CBD@Z DD 019930522H
	DD	01H
	DD	FLAT:__unwindtable$??$GetAnimationEventTime_e@$0N@@ioEntityGroup@@QAEMHAAY0N@$$CBD@Z
	DD	2 DUP(00H)
	DD	2 DUP(00H)
	DD	00H
	DD	01H
; Function compile flags: /Ogsp
; File d:\lost saga for developer\youtube\tutorial\source\src\io3dengine\ioentitygroup.h
xdata$x	ENDS
;	COMDAT ??$GetAnimationEventTime_e@$0N@@ioEntityGroup@@QAEMHAAY0N@$$CBD@Z
_TEXT	SEGMENT
$T557247 = -56						; size = 16
$T557246 = -40						; size = 4
_szEncEventType$ = -36					; size = 13
__$EHRec$ = -12						; size = 12
_id$ = 8						; size = 4
_szEventType$ = 12					; size = 4
??$GetAnimationEventTime_e@$0N@@ioEntityGroup@@QAEMHAAY0N@$$CBD@Z PROC ; ioEntityGroup::GetAnimationEventTime_e<13>, COMDAT
; _this$ = ecx

; 414  : 	{

  00000	6a 2c		 push	 44			; 0000002cH
  00002	b8 00 00 00 00	 mov	 eax, __ehhandler$??$GetAnimationEventTime_e@$0N@@ioEntityGroup@@QAEMHAAY0N@$$CBD@Z
  00007	e8 00 00 00 00	 call	 __EH_prolog3_GS
  0000c	8b 45 0c	 mov	 eax, DWORD PTR _szEventType$[ebp]
  0000f	8b f1		 mov	 esi, ecx

; 415  : 		_ENCSTR(szEventType, szEncEventType);

  00011	8a 08		 mov	 cl, BYTE PTR [eax]
  00013	84 c9		 test	 cl, cl
  00015	0f 84 49 01 00
	00		 je	 $LN96@GetAnimati
  0001b	80 f1 ed	 xor	 cl, -19			; ffffffedH
  0001e	88 4d dc	 mov	 BYTE PTR _szEncEventType$[ebp], cl
  00021	8a 48 01	 mov	 cl, BYTE PTR [eax+1]
  00024	84 c9		 test	 cl, cl
  00026	0f 84 32 01 00
	00		 je	 $LN95@GetAnimati
  0002c	80 f1 ec	 xor	 cl, -20			; ffffffecH
  0002f	88 4d dd	 mov	 BYTE PTR _szEncEventType$[ebp+1], cl
  00032	8a 48 02	 mov	 cl, BYTE PTR [eax+2]
  00035	84 c9		 test	 cl, cl
  00037	0f 84 1b 01 00
	00		 je	 $LN94@GetAnimati
  0003d	b2 eb		 mov	 dl, -21			; ffffffebH
  0003f	32 ca		 xor	 cl, dl
  00041	88 4d de	 mov	 BYTE PTR _szEncEventType$[ebp+2], cl
  00044	8a 48 03	 mov	 cl, BYTE PTR [eax+3]
  00047	84 c9		 test	 cl, cl
  00049	0f 84 03 01 00
	00		 je	 $LN93@GetAnimati
  0004f	80 f1 ea	 xor	 cl, -22			; ffffffeaH
  00052	88 4d df	 mov	 BYTE PTR _szEncEventType$[ebp+3], cl
  00055	8a 48 04	 mov	 cl, BYTE PTR [eax+4]
  00058	84 c9		 test	 cl, cl
  0005a	0f 84 ec 00 00
	00		 je	 $LN92@GetAnimati
  00060	80 f1 ed	 xor	 cl, -19			; ffffffedH
  00063	88 4d e0	 mov	 BYTE PTR _szEncEventType$[ebp+4], cl
  00066	8a 48 05	 mov	 cl, BYTE PTR [eax+5]
  00069	84 c9		 test	 cl, cl
  0006b	0f 84 d5 00 00
	00		 je	 $LN91@GetAnimati
  00071	80 f1 ec	 xor	 cl, -20			; ffffffecH
  00074	88 4d e1	 mov	 BYTE PTR _szEncEventType$[ebp+5], cl
  00077	8a 48 06	 mov	 cl, BYTE PTR [eax+6]
  0007a	84 c9		 test	 cl, cl
  0007c	0f 84 bf 00 00
	00		 je	 $LN90@GetAnimati
  00082	32 ca		 xor	 cl, dl
  00084	88 4d e2	 mov	 BYTE PTR _szEncEventType$[ebp+6], cl
  00087	8a 48 07	 mov	 cl, BYTE PTR [eax+7]
  0008a	84 c9		 test	 cl, cl
  0008c	0f 84 a9 00 00
	00		 je	 $LN89@GetAnimati
  00092	80 f1 ea	 xor	 cl, -22			; ffffffeaH
  00095	88 4d e3	 mov	 BYTE PTR _szEncEventType$[ebp+7], cl
  00098	8a 48 08	 mov	 cl, BYTE PTR [eax+8]
  0009b	84 c9		 test	 cl, cl
  0009d	0f 84 92 00 00
	00		 je	 $LN88@GetAnimati
  000a3	80 f1 ed	 xor	 cl, -19			; ffffffedH
  000a6	88 4d e4	 mov	 BYTE PTR _szEncEventType$[ebp+8], cl
  000a9	8a 48 09	 mov	 cl, BYTE PTR [eax+9]
  000ac	84 c9		 test	 cl, cl
  000ae	74 7f		 je	 SHORT $LN87@GetAnimati
  000b0	80 f1 ec	 xor	 cl, -20			; ffffffecH
  000b3	88 4d e5	 mov	 BYTE PTR _szEncEventType$[ebp+9], cl
  000b6	8a 48 0a	 mov	 cl, BYTE PTR [eax+10]
  000b9	84 c9		 test	 cl, cl
  000bb	74 6d		 je	 SHORT $LN86@GetAnimati
  000bd	32 ca		 xor	 cl, dl
  000bf	88 4d e6	 mov	 BYTE PTR _szEncEventType$[ebp+10], cl
  000c2	8a 48 0b	 mov	 cl, BYTE PTR [eax+11]
  000c5	84 c9		 test	 cl, cl
  000c7	74 5b		 je	 SHORT $LN85@GetAnimati
  000c9	80 f1 ea	 xor	 cl, -22			; ffffffeaH
  000cc	80 78 0c 00	 cmp	 BYTE PTR [eax+12], 0
  000d0	88 4d e7	 mov	 BYTE PTR _szEncEventType$[ebp+11], cl
  000d3	0f 84 8f 00 00
	00		 je	 $LN1@GetAnimati
  000d9	8a 48 0d	 mov	 cl, BYTE PTR [eax+13]
  000dc	84 c9		 test	 cl, cl
  000de	74 3e		 je	 SHORT $LN83@GetAnimati
  000e0	80 f1 ec	 xor	 cl, -20			; ffffffecH
  000e3	88 4d e9	 mov	 BYTE PTR _szEncEventType$[ebp+13], cl
  000e6	8a 48 0e	 mov	 cl, BYTE PTR [eax+14]
  000e9	84 c9		 test	 cl, cl
  000eb	74 2c		 je	 SHORT $LN82@GetAnimati
  000ed	32 ca		 xor	 cl, dl
  000ef	88 4d ea	 mov	 BYTE PTR _szEncEventType$[ebp+14], cl
  000f2	8a 48 0f	 mov	 cl, BYTE PTR [eax+15]
  000f5	84 c9		 test	 cl, cl
  000f7	74 1a		 je	 SHORT $LN81@GetAnimati
  000f9	8a 40 10	 mov	 al, BYTE PTR [eax+16]
  000fc	80 f1 ea	 xor	 cl, -22			; ffffffeaH
  000ff	88 4d eb	 mov	 BYTE PTR _szEncEventType$[ebp+15], cl
  00102	84 c0		 test	 al, al
  00104	74 07		 je	 SHORT $LN80@GetAnimati
  00106	34 ed		 xor	 al, -19			; ffffffedH
  00108	88 45 ec	 mov	 BYTE PTR _szEncEventType$[ebp+16], al
  0010b	eb 5b		 jmp	 SHORT $LN1@GetAnimati
$LN80@GetAnimati:
  0010d	c6 45 ec ed	 mov	 BYTE PTR _szEncEventType$[ebp+16], -19 ; ffffffedH
  00111	eb 55		 jmp	 SHORT $LN1@GetAnimati
$LN81@GetAnimati:
  00113	c6 45 eb ea	 mov	 BYTE PTR _szEncEventType$[ebp+15], -22 ; ffffffeaH
  00117	eb 4f		 jmp	 SHORT $LN1@GetAnimati
$LN82@GetAnimati:
  00119	88 55 ea	 mov	 BYTE PTR _szEncEventType$[ebp+14], dl
  0011c	eb 4a		 jmp	 SHORT $LN1@GetAnimati
$LN83@GetAnimati:
  0011e	c6 45 e9 ec	 mov	 BYTE PTR _szEncEventType$[ebp+13], -20 ; ffffffecH
  00122	eb 44		 jmp	 SHORT $LN1@GetAnimati
$LN85@GetAnimati:
  00124	c6 45 e7 ea	 mov	 BYTE PTR _szEncEventType$[ebp+11], -22 ; ffffffeaH
  00128	eb 3e		 jmp	 SHORT $LN1@GetAnimati
$LN86@GetAnimati:
  0012a	88 55 e6	 mov	 BYTE PTR _szEncEventType$[ebp+10], dl
  0012d	eb 39		 jmp	 SHORT $LN1@GetAnimati
$LN87@GetAnimati:
  0012f	c6 45 e5 ec	 mov	 BYTE PTR _szEncEventType$[ebp+9], -20 ; ffffffecH
  00133	eb 33		 jmp	 SHORT $LN1@GetAnimati
$LN88@GetAnimati:
  00135	c6 45 e4 ed	 mov	 BYTE PTR _szEncEventType$[ebp+8], -19 ; ffffffedH
  00139	eb 2d		 jmp	 SHORT $LN1@GetAnimati
$LN89@GetAnimati:
  0013b	c6 45 e3 ea	 mov	 BYTE PTR _szEncEventType$[ebp+7], -22 ; ffffffeaH
  0013f	eb 27		 jmp	 SHORT $LN1@GetAnimati
$LN90@GetAnimati:
  00141	88 55 e2	 mov	 BYTE PTR _szEncEventType$[ebp+6], dl
  00144	eb 22		 jmp	 SHORT $LN1@GetAnimati
$LN91@GetAnimati:
  00146	c6 45 e1 ec	 mov	 BYTE PTR _szEncEventType$[ebp+5], -20 ; ffffffecH
  0014a	eb 1c		 jmp	 SHORT $LN1@GetAnimati
$LN92@GetAnimati:
  0014c	c6 45 e0 ed	 mov	 BYTE PTR _szEncEventType$[ebp+4], -19 ; ffffffedH
  00150	eb 16		 jmp	 SHORT $LN1@GetAnimati
$LN93@GetAnimati:
  00152	c6 45 df ea	 mov	 BYTE PTR _szEncEventType$[ebp+3], -22 ; ffffffeaH
  00156	eb 10		 jmp	 SHORT $LN1@GetAnimati
$LN94@GetAnimati:
  00158	c6 45 de eb	 mov	 BYTE PTR _szEncEventType$[ebp+2], -21 ; ffffffebH
  0015c	eb 0a		 jmp	 SHORT $LN1@GetAnimati
$LN95@GetAnimati:
  0015e	c6 45 dd ec	 mov	 BYTE PTR _szEncEventType$[ebp+1], -20 ; ffffffecH
  00162	eb 04		 jmp	 SHORT $LN1@GetAnimati
$LN96@GetAnimati:
  00164	c6 45 dc ed	 mov	 BYTE PTR _szEncEventType$[ebp], -19 ; ffffffedH
$LN1@GetAnimati:
  00168	6a 03		 push	 3
  0016a	8d 45 dc	 lea	 eax, DWORD PTR _szEncEventType$[ebp]
  0016d	c6 45 e8 00	 mov	 BYTE PTR _szEncEventType$[ebp+12], 0
  00171	59		 pop	 ecx
$LL105@GetAnimati:
  00172	81 30 ed ec eb
	ea		 xor	 DWORD PTR [eax], -353637139 ; eaebecedH
  00178	83 c0 04	 add	 eax, 4
  0017b	49		 dec	 ecx
  0017c	75 f4		 jne	 SHORT $LL105@GetAnimati

; 416  : 		return GetAnimationEventTime(id, szEncEventType);

  0017e	8d 45 dc	 lea	 eax, DWORD PTR _szEncEventType$[ebp]
  00181	50		 push	 eax
  00182	8d 4d c8	 lea	 ecx, DWORD PTR $T557247[ebp]
  00185	ff 15 00 00 00
	00		 call	 DWORD PTR __imp_??0ioHashString@@QAE@PBD@Z
  0018b	83 65 fc 00	 and	 DWORD PTR __$EHRec$[ebp+8], 0
  0018f	8d 45 c8	 lea	 eax, DWORD PTR $T557247[ebp]
  00192	50		 push	 eax
  00193	ff 75 08	 push	 DWORD PTR _id$[ebp]
  00196	8b ce		 mov	 ecx, esi
  00198	ff 15 00 00 00
	00		 call	 DWORD PTR __imp_?GetAnimationEventTime@ioEntityGroup@@QAEMHABVioHashString@@@Z
  0019e	d9 5d d8	 fstp	 DWORD PTR $T557246[ebp]
  001a1	83 4d fc ff	 or	 DWORD PTR __$EHRec$[ebp+8], -1
  001a5	8d 4d c8	 lea	 ecx, DWORD PTR $T557247[ebp]
  001a8	ff 15 00 00 00
	00		 call	 DWORD PTR __imp_??1ioHashString@@QAE@XZ
  001ae	d9 45 d8	 fld	 DWORD PTR $T557246[ebp]

; 417  : 	}

  001b1	e8 00 00 00 00	 call	 __EH_epilog3_GS
  001b6	c2 08 00	 ret	 8
_TEXT	ENDS
;	COMDAT text$x
text$x	SEGMENT
__unwindfunclet$??$GetAnimationEventTime_e@$0N@@ioEntityGroup@@QAEMHAAY0N@$$CBD@Z$0:
  00000	8d 4d c8	 lea	 ecx, DWORD PTR $T557247[ebp]
  00003	ff 25 00 00 00
	00		 jmp	 DWORD PTR __imp_??1ioHashString@@QAE@XZ
__ehhandler$??$GetAnimationEventTime_e@$0N@@ioEntityGroup@@QAEMHAAY0N@$$CBD@Z:
  00009	8b 54 24 08	 mov	 edx, DWORD PTR [esp+8]
  0000d	8d 42 0c	 lea	 eax, DWORD PTR [edx+12]
  00010	8b 4a c4	 mov	 ecx, DWORD PTR [edx-60]
  00013	33 c8		 xor	 ecx, eax
  00015	e8 00 00 00 00	 call	 @__security_check_cookie@4
  0001a	8b 4a fc	 mov	 ecx, DWORD PTR [edx-4]
  0001d	33 c8		 xor	 ecx, eax
  0001f	e8 00 00 00 00	 call	 @__security_check_cookie@4
  00024	b8 00 00 00 00	 mov	 eax, OFFSET __ehfuncinfo$??$GetAnimationEventTime_e@$0N@@ioEntityGroup@@QAEMHAAY0N@$$CBD@Z
  00029	e9 00 00 00 00	 jmp	 ___CxxFrameHandler3
text$x	ENDS
??$GetAnimationEventTime_e@$0N@@ioEntityGroup@@QAEMHAAY0N@$$CBD@Z ENDP ; ioEntityGroup::GetAnimationEventTime_e<13>
PUBLIC	??$GetAnimationEventTime_e@$0M@@ioEntityGroup@@QAEMHAAY0M@$$CBD@Z ; ioEntityGroup::GetAnimationEventTime_e<12>
;	COMDAT xdata$x
; File d:\lost saga for developer\youtube\tutorial\source\src\lsclient\stringprotect.h
xdata$x	SEGMENT
__unwindtable$??$GetAnimationEventTime_e@$0M@@ioEntityGroup@@QAEMHAAY0M@$$CBD@Z DD 0ffffffffH
	DD	FLAT:__unwindfunclet$??$GetAnimationEventTime_e@$0M@@ioEntityGroup@@QAEMHAAY0M@$$CBD@Z$0
__ehfuncinfo$??$GetAnimationEventTime_e@$0M@@ioEntityGroup@@QAEMHAAY0M@$$CBD@Z DD 019930522H
	DD	01H
	DD	FLAT:__unwindtable$??$GetAnimationEventTime_e@$0M@@ioEntityGroup@@QAEMHAAY0M@$$CBD@Z
	DD	2 DUP(00H)
	DD	2 DUP(00H)
	DD	00H
	DD	01H
; Function compile flags: /Ogsp
; File d:\lost saga for developer\youtube\tutorial\source\src\io3dengine\ioentitygroup.h
xdata$x	ENDS
;	COMDAT ??$GetAnimationEventTime_e@$0M@@ioEntityGroup@@QAEMHAAY0M@$$CBD@Z
_TEXT	SEGMENT
$T557279 = -52						; size = 16
$T557278 = -36						; size = 4
_szEncEventType$ = -32					; size = 12
__$EHRec$ = -12						; size = 12
_id$ = 8						; size = 4
_szEventType$ = 12					; size = 4
??$GetAnimationEventTime_e@$0M@@ioEntityGroup@@QAEMHAAY0M@$$CBD@Z PROC ; ioEntityGroup::GetAnimationEventTime_e<12>, COMDAT
; _this$ = ecx

; 414  : 	{

  00000	6a 28		 push	 40			; 00000028H
  00002	b8 00 00 00 00	 mov	 eax, __ehhandler$??$GetAnimationEventTime_e@$0M@@ioEntityGroup@@QAEMHAAY0M@$$CBD@Z
  00007	e8 00 00 00 00	 call	 __EH_prolog3_GS
  0000c	8b 45 0c	 mov	 eax, DWORD PTR _szEventType$[ebp]
  0000f	8b f1		 mov	 esi, ecx

; 415  : 		_ENCSTR(szEventType, szEncEventType);

  00011	8a 08		 mov	 cl, BYTE PTR [eax]
  00013	84 c9		 test	 cl, cl
  00015	0f 84 36 01 00
	00		 je	 $LN96@GetAnimati@2
  0001b	b2 ed		 mov	 dl, -19			; ffffffedH
  0001d	32 ca		 xor	 cl, dl
  0001f	88 4d e0	 mov	 BYTE PTR _szEncEventType$[ebp], cl
  00022	8a 48 01	 mov	 cl, BYTE PTR [eax+1]
  00025	84 c9		 test	 cl, cl
  00027	0f 84 1e 01 00
	00		 je	 $LN95@GetAnimati@2
  0002d	80 f1 ec	 xor	 cl, -20			; ffffffecH
  00030	88 4d e1	 mov	 BYTE PTR _szEncEventType$[ebp+1], cl
  00033	8a 48 02	 mov	 cl, BYTE PTR [eax+2]
  00036	84 c9		 test	 cl, cl
  00038	0f 84 07 01 00
	00		 je	 $LN94@GetAnimati@2
  0003e	80 f1 eb	 xor	 cl, -21			; ffffffebH
  00041	88 4d e2	 mov	 BYTE PTR _szEncEventType$[ebp+2], cl
  00044	8a 48 03	 mov	 cl, BYTE PTR [eax+3]
  00047	84 c9		 test	 cl, cl
  00049	0f 84 f0 00 00
	00		 je	 $LN93@GetAnimati@2
  0004f	80 f1 ea	 xor	 cl, -22			; ffffffeaH
  00052	88 4d e3	 mov	 BYTE PTR _szEncEventType$[ebp+3], cl
  00055	8a 48 04	 mov	 cl, BYTE PTR [eax+4]
  00058	84 c9		 test	 cl, cl
  0005a	0f 84 da 00 00
	00		 je	 $LN92@GetAnimati@2
  00060	32 ca		 xor	 cl, dl
  00062	88 4d e4	 mov	 BYTE PTR _szEncEventType$[ebp+4], cl
  00065	8a 48 05	 mov	 cl, BYTE PTR [eax+5]
  00068	84 c9		 test	 cl, cl
  0006a	0f 84 c4 00 00
	00		 je	 $LN91@GetAnimati@2
  00070	80 f1 ec	 xor	 cl, -20			; ffffffecH
  00073	88 4d e5	 mov	 BYTE PTR _szEncEventType$[ebp+5], cl
  00076	8a 48 06	 mov	 cl, BYTE PTR [eax+6]
  00079	84 c9		 test	 cl, cl
  0007b	0f 84 ad 00 00
	00		 je	 $LN90@GetAnimati@2
  00081	80 f1 eb	 xor	 cl, -21			; ffffffebH
  00084	88 4d e6	 mov	 BYTE PTR _szEncEventType$[ebp+6], cl
  00087	8a 48 07	 mov	 cl, BYTE PTR [eax+7]
  0008a	84 c9		 test	 cl, cl
  0008c	0f 84 96 00 00
	00		 je	 $LN89@GetAnimati@2
  00092	80 f1 ea	 xor	 cl, -22			; ffffffeaH
  00095	88 4d e7	 mov	 BYTE PTR _szEncEventType$[ebp+7], cl
  00098	8a 48 08	 mov	 cl, BYTE PTR [eax+8]
  0009b	84 c9		 test	 cl, cl
  0009d	0f 84 80 00 00
	00		 je	 $LN88@GetAnimati@2
  000a3	32 ca		 xor	 cl, dl
  000a5	88 4d e8	 mov	 BYTE PTR _szEncEventType$[ebp+8], cl
  000a8	8a 48 09	 mov	 cl, BYTE PTR [eax+9]
  000ab	84 c9		 test	 cl, cl
  000ad	74 6e		 je	 SHORT $LN87@GetAnimati@2
  000af	80 f1 ec	 xor	 cl, -20			; ffffffecH
  000b2	88 4d e9	 mov	 BYTE PTR _szEncEventType$[ebp+9], cl
  000b5	8a 48 0a	 mov	 cl, BYTE PTR [eax+10]
  000b8	84 c9		 test	 cl, cl
  000ba	74 5b		 je	 SHORT $LN86@GetAnimati@2
  000bc	80 f1 eb	 xor	 cl, -21			; ffffffebH
  000bf	80 78 0b 00	 cmp	 BYTE PTR [eax+11], 0
  000c3	88 4d ea	 mov	 BYTE PTR _szEncEventType$[ebp+10], cl
  000c6	0f 84 89 00 00
	00		 je	 $LN1@GetAnimati@2
  000cc	8a 48 0c	 mov	 cl, BYTE PTR [eax+12]
  000cf	84 c9		 test	 cl, cl
  000d1	74 3f		 je	 SHORT $LN84@GetAnimati@2
  000d3	32 ca		 xor	 cl, dl
  000d5	88 4d ec	 mov	 BYTE PTR _szEncEventType$[ebp+12], cl
  000d8	8a 48 0d	 mov	 cl, BYTE PTR [eax+13]
  000db	84 c9		 test	 cl, cl
  000dd	74 2d		 je	 SHORT $LN83@GetAnimati@2
  000df	80 f1 ec	 xor	 cl, -20			; ffffffecH
  000e2	88 4d ed	 mov	 BYTE PTR _szEncEventType$[ebp+13], cl
  000e5	8a 48 0e	 mov	 cl, BYTE PTR [eax+14]
  000e8	84 c9		 test	 cl, cl
  000ea	74 1a		 je	 SHORT $LN82@GetAnimati@2
  000ec	8a 40 0f	 mov	 al, BYTE PTR [eax+15]
  000ef	80 f1 eb	 xor	 cl, -21			; ffffffebH
  000f2	88 4d ee	 mov	 BYTE PTR _szEncEventType$[ebp+14], cl
  000f5	84 c0		 test	 al, al
  000f7	74 07		 je	 SHORT $LN81@GetAnimati@2
  000f9	34 ea		 xor	 al, -22			; ffffffeaH
  000fb	88 45 ef	 mov	 BYTE PTR _szEncEventType$[ebp+15], al
  000fe	eb 55		 jmp	 SHORT $LN1@GetAnimati@2
$LN81@GetAnimati@2:
  00100	c6 45 ef ea	 mov	 BYTE PTR _szEncEventType$[ebp+15], -22 ; ffffffeaH
  00104	eb 4f		 jmp	 SHORT $LN1@GetAnimati@2
$LN82@GetAnimati@2:
  00106	c6 45 ee eb	 mov	 BYTE PTR _szEncEventType$[ebp+14], -21 ; ffffffebH
  0010a	eb 49		 jmp	 SHORT $LN1@GetAnimati@2
$LN83@GetAnimati@2:
  0010c	c6 45 ed ec	 mov	 BYTE PTR _szEncEventType$[ebp+13], -20 ; ffffffecH
  00110	eb 43		 jmp	 SHORT $LN1@GetAnimati@2
$LN84@GetAnimati@2:
  00112	88 55 ec	 mov	 BYTE PTR _szEncEventType$[ebp+12], dl
  00115	eb 3e		 jmp	 SHORT $LN1@GetAnimati@2
$LN86@GetAnimati@2:
  00117	c6 45 ea eb	 mov	 BYTE PTR _szEncEventType$[ebp+10], -21 ; ffffffebH
  0011b	eb 38		 jmp	 SHORT $LN1@GetAnimati@2
$LN87@GetAnimati@2:
  0011d	c6 45 e9 ec	 mov	 BYTE PTR _szEncEventType$[ebp+9], -20 ; ffffffecH
  00121	eb 32		 jmp	 SHORT $LN1@GetAnimati@2
$LN88@GetAnimati@2:
  00123	88 55 e8	 mov	 BYTE PTR _szEncEventType$[ebp+8], dl
  00126	eb 2d		 jmp	 SHORT $LN1@GetAnimati@2
$LN89@GetAnimati@2:
  00128	c6 45 e7 ea	 mov	 BYTE PTR _szEncEventType$[ebp+7], -22 ; ffffffeaH
  0012c	eb 27		 jmp	 SHORT $LN1@GetAnimati@2
$LN90@GetAnimati@2:
  0012e	c6 45 e6 eb	 mov	 BYTE PTR _szEncEventType$[ebp+6], -21 ; ffffffebH
  00132	eb 21		 jmp	 SHORT $LN1@GetAnimati@2
$LN91@GetAnimati@2:
  00134	c6 45 e5 ec	 mov	 BYTE PTR _szEncEventType$[ebp+5], -20 ; ffffffecH
  00138	eb 1b		 jmp	 SHORT $LN1@GetAnimati@2
$LN92@GetAnimati@2:
  0013a	88 55 e4	 mov	 BYTE PTR _szEncEventType$[ebp+4], dl
  0013d	eb 16		 jmp	 SHORT $LN1@GetAnimati@2
$LN93@GetAnimati@2:
  0013f	c6 45 e3 ea	 mov	 BYTE PTR _szEncEventType$[ebp+3], -22 ; ffffffeaH
  00143	eb 10		 jmp	 SHORT $LN1@GetAnimati@2
$LN94@GetAnimati@2:
  00145	c6 45 e2 eb	 mov	 BYTE PTR _szEncEventType$[ebp+2], -21 ; ffffffebH
  00149	eb 0a		 jmp	 SHORT $LN1@GetAnimati@2
$LN95@GetAnimati@2:
  0014b	c6 45 e1 ec	 mov	 BYTE PTR _szEncEventType$[ebp+1], -20 ; ffffffecH
  0014f	eb 04		 jmp	 SHORT $LN1@GetAnimati@2
$LN96@GetAnimati@2:
  00151	c6 45 e0 ed	 mov	 BYTE PTR _szEncEventType$[ebp], -19 ; ffffffedH
$LN1@GetAnimati@2:
  00155	6a 02		 push	 2
  00157	8d 45 e0	 lea	 eax, DWORD PTR _szEncEventType$[ebp]
  0015a	c6 45 eb 00	 mov	 BYTE PTR _szEncEventType$[ebp+11], 0
  0015e	59		 pop	 ecx
$LL105@GetAnimati@2:
  0015f	81 30 ed ec eb
	ea		 xor	 DWORD PTR [eax], -353637139 ; eaebecedH
  00165	83 c0 04	 add	 eax, 4
  00168	49		 dec	 ecx
  00169	75 f4		 jne	 SHORT $LL105@GetAnimati@2
  0016b	6a 08		 push	 8
  0016d	58		 pop	 eax
$LL102@GetAnimati@2:
  0016e	8b c8		 mov	 ecx, eax
  00170	81 e1 03 00 00
	80		 and	 ecx, -2147483645	; 80000003H
  00176	79 05		 jns	 SHORT $LN113@GetAnimati@2
  00178	49		 dec	 ecx
  00179	83 c9 fc	 or	 ecx, -4			; fffffffcH
  0017c	41		 inc	 ecx
$LN113@GetAnimati@2:
  0017d	b2 ed		 mov	 dl, -19			; ffffffedH
  0017f	2a d1		 sub	 dl, cl
  00181	30 54 05 e0	 xor	 BYTE PTR _szEncEventType$[ebp+eax], dl
  00185	40		 inc	 eax
  00186	83 f8 0b	 cmp	 eax, 11			; 0000000bH
  00189	7c e3		 jl	 SHORT $LL102@GetAnimati@2

; 416  : 		return GetAnimationEventTime(id, szEncEventType);

  0018b	8d 45 e0	 lea	 eax, DWORD PTR _szEncEventType$[ebp]
  0018e	50		 push	 eax
  0018f	8d 4d cc	 lea	 ecx, DWORD PTR $T557279[ebp]
  00192	ff 15 00 00 00
	00		 call	 DWORD PTR __imp_??0ioHashString@@QAE@PBD@Z
  00198	83 65 fc 00	 and	 DWORD PTR __$EHRec$[ebp+8], 0
  0019c	8d 45 cc	 lea	 eax, DWORD PTR $T557279[ebp]
  0019f	50		 push	 eax
  001a0	ff 75 08	 push	 DWORD PTR _id$[ebp]
  001a3	8b ce		 mov	 ecx, esi
  001a5	ff 15 00 00 00
	00		 call	 DWORD PTR __imp_?GetAnimationEventTime@ioEntityGroup@@QAEMHABVioHashString@@@Z
  001ab	d9 5d dc	 fstp	 DWORD PTR $T557278[ebp]
  001ae	83 4d fc ff	 or	 DWORD PTR __$EHRec$[ebp+8], -1
  001b2	8d 4d cc	 lea	 ecx, DWORD PTR $T557279[ebp]
  001b5	ff 15 00 00 00
	00		 call	 DWORD PTR __imp_??1ioHashString@@QAE@XZ
  001bb	d9 45 dc	 fld	 DWORD PTR $T557278[ebp]

; 417  : 	}

  001be	e8 00 00 00 00	 call	 __EH_epilog3_GS
  001c3	c2 08 00	 ret	 8
_TEXT	ENDS
;	COMDAT text$x
text$x	SEGMENT
__unwindfunclet$??$GetAnimationEventTime_e@$0M@@ioEntityGroup@@QAEMHAAY0M@$$CBD@Z$0:
  00000	8d 4d cc	 lea	 ecx, DWORD PTR $T557279[ebp]
  00003	ff 25 00 00 00
	00		 jmp	 DWORD PTR __imp_??1ioHashString@@QAE@XZ
__ehhandler$??$GetAnimationEventTime_e@$0M@@ioEntityGroup@@QAEMHAAY0M@$$CBD@Z:
  00009	8b 54 24 08	 mov	 edx, DWORD PTR [esp+8]
  0000d	8d 42 0c	 lea	 eax, DWORD PTR [edx+12]
  00010	8b 4a c8	 mov	 ecx, DWORD PTR [edx-56]
  00013	33 c8		 xor	 ecx, eax
  00015	e8 00 00 00 00	 call	 @__security_check_cookie@4
  0001a	8b 4a fc	 mov	 ecx, DWORD PTR [edx-4]
  0001d	33 c8		 xor	 ecx, eax
  0001f	e8 00 00 00 00	 call	 @__security_check_cookie@4
  00024	b8 00 00 00 00	 mov	 eax, OFFSET __ehfuncinfo$??$GetAnimationEventTime_e@$0M@@ioEntityGroup@@QAEMHAAY0M@$$CBD@Z
  00029	e9 00 00 00 00	 jmp	 ___CxxFrameHandler3
text$x	ENDS
??$GetAnimationEventTime_e@$0M@@ioEntityGroup@@QAEMHAAY0M@$$CBD@Z ENDP ; ioEntityGroup::GetAnimationEventTime_e<12>
PUBLIC	__real@3fd2ee0d320154cb
PUBLIC	??$RADtoDEG@M@@YAMM@Z				; RADtoDEG<float>
;	COMDAT __real@3fd2ee0d320154cb
; File d:\lost saga for developer\youtube\tutorial\source\src\lsclient\veryoftenusedefine.h
CONST	SEGMENT
__real@3fd2ee0d320154cb DQ 03fd2ee0d320154cbr	; 0.29578
; Function compile flags: /Ogsp
CONST	ENDS
;	COMDAT ??$RADtoDEG@M@@YAMM@Z
_TEXT	SEGMENT
tv130 = -4						; size = 4
tv75 = 8						; size = 4
_val$ = 8						; size = 4
??$RADtoDEG@M@@YAMM@Z PROC				; RADtoDEG<float>, COMDAT

; 18   : type  RADtoDEG (type val) {return (type) (val * (return57() + 0.2957795132)); }

  00000	55		 push	 ebp
  00001	8b ec		 mov	 ebp, esp
  00003	51		 push	 ecx
  00004	b8 39 00 00 00	 mov	 eax, 57			; 00000039H
  00009	89 45 fc	 mov	 DWORD PTR tv130[ebp], eax
  0000c	db 45 fc	 fild	 DWORD PTR tv130[ebp]
  0000f	85 c0		 test	 eax, eax
  00011	79 06		 jns	 SHORT $LN5@RADtoDEG
  00013	dc 05 00 00 00
	00		 fadd	 QWORD PTR __real@41f0000000000000
$LN5@RADtoDEG:
  00019	dc 05 00 00 00
	00		 fadd	 QWORD PTR __real@3fd2ee0d320154cb
  0001f	d8 4d 08	 fmul	 DWORD PTR _val$[ebp]
  00022	d9 5d 08	 fstp	 DWORD PTR tv75[ebp]
  00025	d9 45 08	 fld	 DWORD PTR tv75[ebp]
  00028	c9		 leave
  00029	c3		 ret	 0
??$RADtoDEG@M@@YAMM@Z ENDP				; RADtoDEG<float>
_TEXT	ENDS
PUBLIC	??$construct@AAVioHashString@@@?$allocator@VioHashString@@@std@@QAEXPAVioHashString@@AAV2@@Z ; std::allocator<ioHashString>::construct<ioHashString &>
;	COMDAT xdata$x
; File c:\program files (x86)\microsoft visual studio 10.0\vc\include\utility
xdata$x	SEGMENT
__unwindtable$??$construct@AAVioHashString@@@?$allocator@VioHashString@@@std@@QAEXPAVioHashString@@AAV2@@Z DD 0ffffffffH
	DD	FLAT:__unwindfunclet$??$construct@AAVioHashString@@@?$allocator@VioHashString@@@std@@QAEXPAVioHashString@@AAV2@@Z$0
__ehfuncinfo$??$construct@AAVioHashString@@@?$allocator@VioHashString@@@std@@QAEXPAVioHashString@@AAV2@@Z DD 019930522H
	DD	01H
	DD	FLAT:__unwindtable$??$construct@AAVioHashString@@@?$allocator@VioHashString@@@std@@QAEXPAVioHashString@@AAV2@@Z
	DD	2 DUP(00H)
	DD	2 DUP(00H)
	DD	00H
	DD	01H
; Function compile flags: /Ogsp
; File c:\program files (x86)\microsoft visual studio 10.0\vc\include\xmemory
xdata$x	ENDS
;	COMDAT ??$construct@AAVioHashString@@@?$allocator@VioHashString@@@std@@QAEXPAVioHashString@@AAV2@@Z
_TEXT	SEGMENT
$T557318 = -16						; size = 4
__$EHRec$ = -12						; size = 12
__Ptr$ = 8						; size = 4
__Val$ = 12						; size = 4
??$construct@AAVioHashString@@@?$allocator@VioHashString@@@std@@QAEXPAVioHashString@@AAV2@@Z PROC ; std::allocator<ioHashString>::construct<ioHashString &>, COMDAT
; _this$ = ecx

; 206  : 		void construct(pointer _Ptr, _Other&& _Val)

  00000	6a 04		 push	 4
  00002	b8 00 00 00 00	 mov	 eax, __ehhandler$??$construct@AAVioHashString@@@?$allocator@VioHashString@@@std@@QAEXPAVioHashString@@AAV2@@Z
  00007	e8 00 00 00 00	 call	 __EH_prolog3

; 207  : 		{	// construct object at _Ptr with value _Val
; 208  : 		::new ((void _FARQ *)_Ptr) _Ty(_STD forward<_Other>(_Val));

  0000c	8b 4d 08	 mov	 ecx, DWORD PTR __Ptr$[ebp]
  0000f	89 4d f0	 mov	 DWORD PTR $T557318[ebp], ecx
  00012	83 65 fc 00	 and	 DWORD PTR __$EHRec$[ebp+8], 0
  00016	85 c9		 test	 ecx, ecx
  00018	74 09		 je	 SHORT $LN3@construct
  0001a	ff 75 0c	 push	 DWORD PTR __Val$[ebp]
  0001d	ff 15 00 00 00
	00		 call	 DWORD PTR __imp_??0ioHashString@@QAE@ABV0@@Z
$LN3@construct:

; 209  : 		}

  00023	e8 00 00 00 00	 call	 __EH_epilog3
  00028	c2 08 00	 ret	 8
_TEXT	ENDS
;	COMDAT text$x
text$x	SEGMENT
__unwindfunclet$??$construct@AAVioHashString@@@?$allocator@VioHashString@@@std@@QAEXPAVioHashString@@AAV2@@Z$0:
  00000	ff 75 08	 push	 DWORD PTR __Ptr$[ebp]
  00003	ff 75 f0	 push	 DWORD PTR $T557318[ebp]
  00006	e8 00 00 00 00	 call	 ??3@YAXPAX0@Z		; operator delete
  0000b	59		 pop	 ecx
  0000c	59		 pop	 ecx
  0000d	c3		 ret	 0
__ehhandler$??$construct@AAVioHashString@@@?$allocator@VioHashString@@@std@@QAEXPAVioHashString@@AAV2@@Z:
  0000e	8b 54 24 08	 mov	 edx, DWORD PTR [esp+8]
  00012	8d 42 0c	 lea	 eax, DWORD PTR [edx+12]
  00015	8b 4a ec	 mov	 ecx, DWORD PTR [edx-20]
  00018	33 c8		 xor	 ecx, eax
  0001a	e8 00 00 00 00	 call	 @__security_check_cookie@4
  0001f	b8 00 00 00 00	 mov	 eax, OFFSET __ehfuncinfo$??$construct@AAVioHashString@@@?$allocator@VioHashString@@@std@@QAEXPAVioHashString@@AAV2@@Z
  00024	e9 00 00 00 00	 jmp	 ___CxxFrameHandler3
text$x	ENDS
??$construct@AAVioHashString@@@?$allocator@VioHashString@@@std@@QAEXPAVioHashString@@AAV2@@Z ENDP ; std::allocator<ioHashString>::construct<ioHashString &>
PUBLIC	?begin@?$vector@UWeaponInfo@@V?$allocator@UWeaponInfo@@@std@@@std@@QBE?AV?$_Vector_const_iterator@V?$_Vector_val@UWeaponInfo@@V?$allocator@UWeaponInfo@@@std@@@std@@@2@XZ ; std::vector<WeaponInfo,std::allocator<WeaponInfo> >::begin
; Function compile flags: /Ogsp
; File c:\program files (x86)\microsoft visual studio 10.0\vc\include\vector
;	COMDAT ?begin@?$vector@UWeaponInfo@@V?$allocator@UWeaponInfo@@@std@@@std@@QBE?AV?$_Vector_const_iterator@V?$_Vector_val@UWeaponInfo@@V?$allocator@UWeaponInfo@@@std@@@std@@@2@XZ
_TEXT	SEGMENT
___$ReturnUdt$ = 8					; size = 4
?begin@?$vector@UWeaponInfo@@V?$allocator@UWeaponInfo@@@std@@@std@@QBE?AV?$_Vector_const_iterator@V?$_Vector_val@UWeaponInfo@@V?$allocator@UWeaponInfo@@@std@@@std@@@2@XZ PROC ; std::vector<WeaponInfo,std::allocator<WeaponInfo> >::begin, COMDAT
; _this$ = ecx

; 786  : 		{	// return iterator for beginning of nonmutable sequence

  00000	55		 push	 ebp
  00001	8b ec		 mov	 ebp, esp

; 787  : 		return (const_iterator(this->_Myfirst, this));

  00003	8b 09		 mov	 ecx, DWORD PTR [ecx]
  00005	8b 45 08	 mov	 eax, DWORD PTR ___$ReturnUdt$[ebp]
  00008	89 08		 mov	 DWORD PTR [eax], ecx

; 788  : 		}

  0000a	5d		 pop	 ebp
  0000b	c2 04 00	 ret	 4
?begin@?$vector@UWeaponInfo@@V?$allocator@UWeaponInfo@@@std@@@std@@QBE?AV?$_Vector_const_iterator@V?$_Vector_val@UWeaponInfo@@V?$allocator@UWeaponInfo@@@std@@@std@@@2@XZ ENDP ; std::vector<WeaponInfo,std::allocator<WeaponInfo> >::begin
_TEXT	ENDS
PUBLIC	?end@?$vector@UWeaponInfo@@V?$allocator@UWeaponInfo@@@std@@@std@@QBE?AV?$_Vector_const_iterator@V?$_Vector_val@UWeaponInfo@@V?$allocator@UWeaponInfo@@@std@@@std@@@2@XZ ; std::vector<WeaponInfo,std::allocator<WeaponInfo> >::end
; Function compile flags: /Ogsp
;	COMDAT ?end@?$vector@UWeaponInfo@@V?$allocator@UWeaponInfo@@@std@@@std@@QBE?AV?$_Vector_const_iterator@V?$_Vector_val@UWeaponInfo@@V?$allocator@UWeaponInfo@@@std@@@std@@@2@XZ
_TEXT	SEGMENT
___$ReturnUdt$ = 8					; size = 4
?end@?$vector@UWeaponInfo@@V?$allocator@UWeaponInfo@@@std@@@std@@QBE?AV?$_Vector_const_iterator@V?$_Vector_val@UWeaponInfo@@V?$allocator@UWeaponInfo@@@std@@@std@@@2@XZ PROC ; std::vector<WeaponInfo,std::allocator<WeaponInfo> >::end, COMDAT
; _this$ = ecx

; 796  : 		{	// return iterator for end of nonmutable sequence

  00000	55		 push	 ebp
  00001	8b ec		 mov	 ebp, esp

; 797  : 		return (const_iterator(this->_Mylast, this));

  00003	8b 49 04	 mov	 ecx, DWORD PTR [ecx+4]
  00006	8b 45 08	 mov	 eax, DWORD PTR ___$ReturnUdt$[ebp]
  00009	89 08		 mov	 DWORD PTR [eax], ecx

; 798  : 		}

  0000b	5d		 pop	 ebp
  0000c	c2 04 00	 ret	 4
?end@?$vector@UWeaponInfo@@V?$allocator@UWeaponInfo@@@std@@@std@@QBE?AV?$_Vector_const_iterator@V?$_Vector_val@UWeaponInfo@@V?$allocator@UWeaponInfo@@@std@@@std@@@2@XZ ENDP ; std::vector<WeaponInfo,std::allocator<WeaponInfo> >::end
_TEXT	ENDS
PUBLIC	?begin@?$vector@UForceInfo@@V?$allocator@UForceInfo@@@std@@@std@@QBE?AV?$_Vector_const_iterator@V?$_Vector_val@UForceInfo@@V?$allocator@UForceInfo@@@std@@@std@@@2@XZ ; std::vector<ForceInfo,std::allocator<ForceInfo> >::begin
; Function compile flags: /Ogsp
;	COMDAT ?begin@?$vector@UForceInfo@@V?$allocator@UForceInfo@@@std@@@std@@QBE?AV?$_Vector_const_iterator@V?$_Vector_val@UForceInfo@@V?$allocator@UForceInfo@@@std@@@std@@@2@XZ
_TEXT	SEGMENT
___$ReturnUdt$ = 8					; size = 4
?begin@?$vector@UForceInfo@@V?$allocator@UForceInfo@@@std@@@std@@QBE?AV?$_Vector_const_iterator@V?$_Vector_val@UForceInfo@@V?$allocator@UForceInfo@@@std@@@std@@@2@XZ PROC ; std::vector<ForceInfo,std::allocator<ForceInfo> >::begin, COMDAT
; _this$ = ecx

; 786  : 		{	// return iterator for beginning of nonmutable sequence

  00000	55		 push	 ebp
  00001	8b ec		 mov	 ebp, esp

; 787  : 		return (const_iterator(this->_Myfirst, this));

  00003	8b 09		 mov	 ecx, DWORD PTR [ecx]
  00005	8b 45 08	 mov	 eax, DWORD PTR ___$ReturnUdt$[ebp]
  00008	89 08		 mov	 DWORD PTR [eax], ecx

; 788  : 		}

  0000a	5d		 pop	 ebp
  0000b	c2 04 00	 ret	 4
?begin@?$vector@UForceInfo@@V?$allocator@UForceInfo@@@std@@@std@@QBE?AV?$_Vector_const_iterator@V?$_Vector_val@UForceInfo@@V?$allocator@UForceInfo@@@std@@@std@@@2@XZ ENDP ; std::vector<ForceInfo,std::allocator<ForceInfo> >::begin
_TEXT	ENDS
PUBLIC	?end@?$vector@UForceInfo@@V?$allocator@UForceInfo@@@std@@@std@@QBE?AV?$_Vector_const_iterator@V?$_Vector_val@UForceInfo@@V?$allocator@UForceInfo@@@std@@@std@@@2@XZ ; std::vector<ForceInfo,std::allocator<ForceInfo> >::end
; Function compile flags: /Ogsp
;	COMDAT ?end@?$vector@UForceInfo@@V?$allocator@UForceInfo@@@std@@@std@@QBE?AV?$_Vector_const_iterator@V?$_Vector_val@UForceInfo@@V?$allocator@UForceInfo@@@std@@@std@@@2@XZ
_TEXT	SEGMENT
___$ReturnUdt$ = 8					; size = 4
?end@?$vector@UForceInfo@@V?$allocator@UForceInfo@@@std@@@std@@QBE?AV?$_Vector_const_iterator@V?$_Vector_val@UForceInfo@@V?$allocator@UForceInfo@@@std@@@std@@@2@XZ PROC ; std::vector<ForceInfo,std::allocator<ForceInfo> >::end, COMDAT
; _this$ = ecx

; 796  : 		{	// return iterator for end of nonmutable sequence

  00000	55		 push	 ebp
  00001	8b ec		 mov	 ebp, esp

; 797  : 		return (const_iterator(this->_Mylast, this));

  00003	8b 49 04	 mov	 ecx, DWORD PTR [ecx+4]
  00006	8b 45 08	 mov	 eax, DWORD PTR ___$ReturnUdt$[ebp]
  00009	89 08		 mov	 DWORD PTR [eax], ecx

; 798  : 		}

  0000b	5d		 pop	 ebp
  0000c	c2 04 00	 ret	 4
?end@?$vector@UForceInfo@@V?$allocator@UForceInfo@@@std@@@std@@QBE?AV?$_Vector_const_iterator@V?$_Vector_val@UForceInfo@@V?$allocator@UForceInfo@@@std@@@std@@@2@XZ ENDP ; std::vector<ForceInfo,std::allocator<ForceInfo> >::end
_TEXT	ENDS
PUBLIC	??8?$_Vector_const_iterator@V?$_Vector_val@UStGrapInfo@ioGrapplingBlowLoopSkill@@V?$allocator@UStGrapInfo@ioGrapplingBlowLoopSkill@@@std@@@std@@@std@@QBE_NABV01@@Z ; std::_Vector_const_iterator<std::_Vector_val<ioGrapplingBlowLoopSkill::StGrapInfo,std::allocator<ioGrapplingBlowLoopSkill::StGrapInfo> > >::operator==
; Function compile flags: /Ogsp
;	COMDAT ??8?$_Vector_const_iterator@V?$_Vector_val@UStGrapInfo@ioGrapplingBlowLoopSkill@@V?$allocator@UStGrapInfo@ioGrapplingBlowLoopSkill@@@std@@@std@@@std@@QBE_NABV01@@Z
_TEXT	SEGMENT
__Right$ = 8						; size = 4
??8?$_Vector_const_iterator@V?$_Vector_val@UStGrapInfo@ioGrapplingBlowLoopSkill@@V?$allocator@UStGrapInfo@ioGrapplingBlowLoopSkill@@@std@@@std@@@std@@QBE_NABV01@@Z PROC ; std::_Vector_const_iterator<std::_Vector_val<ioGrapplingBlowLoopSkill::StGrapInfo,std::allocator<ioGrapplingBlowLoopSkill::StGrapInfo> > >::operator==, COMDAT
; _this$ = ecx

; 201  : 		{	// test for iterator equality

  00000	55		 push	 ebp
  00001	8b ec		 mov	 ebp, esp

; 202  : 		_Compat(_Right);
; 203  : 		return (this->_Ptr == _Right._Ptr);

  00003	8b 01		 mov	 eax, DWORD PTR [ecx]
  00005	8b 4d 08	 mov	 ecx, DWORD PTR __Right$[ebp]
  00008	2b 01		 sub	 eax, DWORD PTR [ecx]
  0000a	f7 d8		 neg	 eax
  0000c	1b c0		 sbb	 eax, eax
  0000e	40		 inc	 eax

; 204  : 		}

  0000f	5d		 pop	 ebp
  00010	c2 04 00	 ret	 4
??8?$_Vector_const_iterator@V?$_Vector_val@UStGrapInfo@ioGrapplingBlowLoopSkill@@V?$allocator@UStGrapInfo@ioGrapplingBlowLoopSkill@@@std@@@std@@@std@@QBE_NABV01@@Z ENDP ; std::_Vector_const_iterator<std::_Vector_val<ioGrapplingBlowLoopSkill::StGrapInfo,std::allocator<ioGrapplingBlowLoopSkill::StGrapInfo> > >::operator==
_TEXT	ENDS
PUBLIC	?construct@?$allocator@VioHashString@@@std@@QAEXPAVioHashString@@$$QAV3@@Z ; std::allocator<ioHashString>::construct
;	COMDAT xdata$x
; File c:\program files (x86)\microsoft visual studio 10.0\vc\include\utility
xdata$x	SEGMENT
__unwindtable$?construct@?$allocator@VioHashString@@@std@@QAEXPAVioHashString@@$$QAV3@@Z DD 0ffffffffH
	DD	FLAT:__unwindfunclet$?construct@?$allocator@VioHashString@@@std@@QAEXPAVioHashString@@$$QAV3@@Z$0
__ehfuncinfo$?construct@?$allocator@VioHashString@@@std@@QAEXPAVioHashString@@$$QAV3@@Z DD 019930522H
	DD	01H
	DD	FLAT:__unwindtable$?construct@?$allocator@VioHashString@@@std@@QAEXPAVioHashString@@$$QAV3@@Z
	DD	2 DUP(00H)
	DD	2 DUP(00H)
	DD	00H
	DD	01H
; Function compile flags: /Ogsp
; File c:\program files (x86)\microsoft visual studio 10.0\vc\include\xmemory
xdata$x	ENDS
;	COMDAT ?construct@?$allocator@VioHashString@@@std@@QAEXPAVioHashString@@$$QAV3@@Z
_TEXT	SEGMENT
$T557386 = -16						; size = 4
__$EHRec$ = -12						; size = 12
__Ptr$ = 8						; size = 4
__Val$ = 12						; size = 4
?construct@?$allocator@VioHashString@@@std@@QAEXPAVioHashString@@$$QAV3@@Z PROC ; std::allocator<ioHashString>::construct, COMDAT
; _this$ = ecx

; 201  : 		{	// construct object at _Ptr with value _Val

  00000	6a 04		 push	 4
  00002	b8 00 00 00 00	 mov	 eax, __ehhandler$?construct@?$allocator@VioHashString@@@std@@QAEXPAVioHashString@@$$QAV3@@Z
  00007	e8 00 00 00 00	 call	 __EH_prolog3

; 202  : 		::new ((void _FARQ *)_Ptr) _Ty(_STD forward<_Ty>(_Val));

  0000c	8b 4d 08	 mov	 ecx, DWORD PTR __Ptr$[ebp]
  0000f	89 4d f0	 mov	 DWORD PTR $T557386[ebp], ecx
  00012	83 65 fc 00	 and	 DWORD PTR __$EHRec$[ebp+8], 0
  00016	85 c9		 test	 ecx, ecx
  00018	74 09		 je	 SHORT $LN3@construct@2
  0001a	ff 75 0c	 push	 DWORD PTR __Val$[ebp]
  0001d	ff 15 00 00 00
	00		 call	 DWORD PTR __imp_??0ioHashString@@QAE@ABV0@@Z
$LN3@construct@2:

; 203  : 		}

  00023	e8 00 00 00 00	 call	 __EH_epilog3
  00028	c2 08 00	 ret	 8
_TEXT	ENDS
;	COMDAT text$x
text$x	SEGMENT
__unwindfunclet$?construct@?$allocator@VioHashString@@@std@@QAEXPAVioHashString@@$$QAV3@@Z$0:
  00000	ff 75 08	 push	 DWORD PTR __Ptr$[ebp]
  00003	ff 75 f0	 push	 DWORD PTR $T557386[ebp]
  00006	e8 00 00 00 00	 call	 ??3@YAXPAX0@Z		; operator delete
  0000b	59		 pop	 ecx
  0000c	59		 pop	 ecx
  0000d	c3		 ret	 0
__ehhandler$?construct@?$allocator@VioHashString@@@std@@QAEXPAVioHashString@@$$QAV3@@Z:
  0000e	8b 54 24 08	 mov	 edx, DWORD PTR [esp+8]
  00012	8d 42 0c	 lea	 eax, DWORD PTR [edx+12]
  00015	8b 4a ec	 mov	 ecx, DWORD PTR [edx-20]
  00018	33 c8		 xor	 ecx, eax
  0001a	e8 00 00 00 00	 call	 @__security_check_cookie@4
  0001f	b8 00 00 00 00	 mov	 eax, OFFSET __ehfuncinfo$?construct@?$allocator@VioHashString@@@std@@QAEXPAVioHashString@@$$QAV3@@Z
  00024	e9 00 00 00 00	 jmp	 ___CxxFrameHandler3
text$x	ENDS
?construct@?$allocator@VioHashString@@@std@@QAEXPAVioHashString@@$$QAV3@@Z ENDP ; std::allocator<ioHashString>::construct
PUBLIC	?construct@?$allocator@UForceInfo@@@std@@QAEXPAUForceInfo@@ABU3@@Z ; std::allocator<ForceInfo>::construct
; Function compile flags: /Ogsp
;	COMDAT ?construct@?$allocator@UForceInfo@@@std@@QAEXPAUForceInfo@@ABU3@@Z
_TEXT	SEGMENT
__Ptr$ = 8						; size = 4
__Val$ = 12						; size = 4
?construct@?$allocator@UForceInfo@@@std@@QAEXPAUForceInfo@@ABU3@@Z PROC ; std::allocator<ForceInfo>::construct, COMDAT
; _this$ = ecx

; 196  : 		{	// construct object at _Ptr with value _Val

  00000	55		 push	 ebp
  00001	8b ec		 mov	 ebp, esp
  00003	57		 push	 edi

; 197  : 		_Construct(_Ptr, _Val);

  00004	8b 7d 08	 mov	 edi, DWORD PTR __Ptr$[ebp]
  00007	85 ff		 test	 edi, edi
  00009	74 08		 je	 SHORT $LN5@construct@3
  0000b	56		 push	 esi
  0000c	8b 75 0c	 mov	 esi, DWORD PTR __Val$[ebp]
  0000f	a5		 movsd
  00010	a5		 movsd
  00011	a5		 movsd
  00012	5e		 pop	 esi
$LN5@construct@3:
  00013	5f		 pop	 edi

; 198  : 		}

  00014	5d		 pop	 ebp
  00015	c2 08 00	 ret	 8
?construct@?$allocator@UForceInfo@@@std@@QAEXPAUForceInfo@@ABU3@@Z ENDP ; std::allocator<ForceInfo>::construct
_TEXT	ENDS
PUBLIC	??$_Construct@UWeaponInfo@@ABU1@@std@@YAXPAUWeaponInfo@@ABU1@@Z ; std::_Construct<WeaponInfo,WeaponInfo const &>
;	COMDAT xdata$x
; File c:\program files (x86)\microsoft visual studio 10.0\vc\include\utility
xdata$x	SEGMENT
__unwindtable$??$_Construct@UWeaponInfo@@ABU1@@std@@YAXPAUWeaponInfo@@ABU1@@Z DD 0ffffffffH
	DD	FLAT:__unwindfunclet$??$_Construct@UWeaponInfo@@ABU1@@std@@YAXPAUWeaponInfo@@ABU1@@Z$0
__ehfuncinfo$??$_Construct@UWeaponInfo@@ABU1@@std@@YAXPAUWeaponInfo@@ABU1@@Z DD 019930522H
	DD	01H
	DD	FLAT:__unwindtable$??$_Construct@UWeaponInfo@@ABU1@@std@@YAXPAUWeaponInfo@@ABU1@@Z
	DD	2 DUP(00H)
	DD	2 DUP(00H)
	DD	00H
	DD	01H
; Function compile flags: /Ogsp
; File c:\program files (x86)\microsoft visual studio 10.0\vc\include\xmemory
xdata$x	ENDS
;	COMDAT ??$_Construct@UWeaponInfo@@ABU1@@std@@YAXPAUWeaponInfo@@ABU1@@Z
_TEXT	SEGMENT
$T557429 = -16						; size = 4
__$EHRec$ = -12						; size = 12
__Vptr$ = 8						; size = 4
__Ptr$ = 8						; size = 4
__Val$ = 12						; size = 4
??$_Construct@UWeaponInfo@@ABU1@@std@@YAXPAUWeaponInfo@@ABU1@@Z PROC ; std::_Construct<WeaponInfo,WeaponInfo const &>, COMDAT

; 46   : 	{	// construct object at _Ptr with value _Val

  00000	6a 04		 push	 4
  00002	b8 00 00 00 00	 mov	 eax, __ehhandler$??$_Construct@UWeaponInfo@@ABU1@@std@@YAXPAUWeaponInfo@@ABU1@@Z
  00007	e8 00 00 00 00	 call	 __EH_prolog3

; 47   : 	void _FARQ *_Vptr = _Ptr;

  0000c	8b 4d 08	 mov	 ecx, DWORD PTR __Ptr$[ebp]
  0000f	89 4d 08	 mov	 DWORD PTR __Vptr$[ebp], ecx

; 48   : 	::new (_Vptr) _Ty1(_STD forward<_Ty2>(_Val));

  00012	89 4d f0	 mov	 DWORD PTR $T557429[ebp], ecx
  00015	83 65 fc 00	 and	 DWORD PTR __$EHRec$[ebp+8], 0
  00019	85 c9		 test	 ecx, ecx
  0001b	74 08		 je	 SHORT $LN3@Construct@3
  0001d	ff 75 0c	 push	 DWORD PTR __Val$[ebp]
  00020	e8 00 00 00 00	 call	 ??0WeaponInfo@@QAE@ABU0@@Z
$LN3@Construct@3:

; 49   : 	}

  00025	e8 00 00 00 00	 call	 __EH_epilog3
  0002a	c3		 ret	 0
_TEXT	ENDS
;	COMDAT text$x
text$x	SEGMENT
__unwindfunclet$??$_Construct@UWeaponInfo@@ABU1@@std@@YAXPAUWeaponInfo@@ABU1@@Z$0:
  00000	ff 75 08	 push	 DWORD PTR __Vptr$[ebp]
  00003	ff 75 f0	 push	 DWORD PTR $T557429[ebp]
  00006	e8 00 00 00 00	 call	 ??3@YAXPAX0@Z		; operator delete
  0000b	59		 pop	 ecx
  0000c	59		 pop	 ecx
  0000d	c3		 ret	 0
__ehhandler$??$_Construct@UWeaponInfo@@ABU1@@std@@YAXPAUWeaponInfo@@ABU1@@Z:
  0000e	8b 54 24 08	 mov	 edx, DWORD PTR [esp+8]
  00012	8d 42 0c	 lea	 eax, DWORD PTR [edx+12]
  00015	8b 4a ec	 mov	 ecx, DWORD PTR [edx-20]
  00018	33 c8		 xor	 ecx, eax
  0001a	e8 00 00 00 00	 call	 @__security_check_cookie@4
  0001f	b8 00 00 00 00	 mov	 eax, OFFSET __ehfuncinfo$??$_Construct@UWeaponInfo@@ABU1@@std@@YAXPAUWeaponInfo@@ABU1@@Z
  00024	e9 00 00 00 00	 jmp	 ___CxxFrameHandler3
text$x	ENDS
??$_Construct@UWeaponInfo@@ABU1@@std@@YAXPAUWeaponInfo@@ABU1@@Z ENDP ; std::_Construct<WeaponInfo,WeaponInfo const &>
PUBLIC	??0?$CEncrypt@M@@QAE@XZ				; CEncrypt<float>::CEncrypt<float>
EXTRN	??0ccddaabb@@QAE@XZ:PROC			; ccddaabb::ccddaabb
;	COMDAT xdata$x
; File d:\lost saga for developer\youtube\tutorial\source\src\lsclient\encryptvalue.h
xdata$x	SEGMENT
__unwindtable$??0?$CEncrypt@M@@QAE@XZ DD 0ffffffffH
	DD	FLAT:__unwindfunclet$??0?$CEncrypt@M@@QAE@XZ$0
__ehfuncinfo$??0?$CEncrypt@M@@QAE@XZ DD 019930522H
	DD	01H
	DD	FLAT:__unwindtable$??0?$CEncrypt@M@@QAE@XZ
	DD	2 DUP(00H)
	DD	2 DUP(00H)
	DD	00H
	DD	01H
; Function compile flags: /Ogsp
xdata$x	ENDS
;	COMDAT ??0?$CEncrypt@M@@QAE@XZ
_TEXT	SEGMENT
_this$ = -16						; size = 4
__$EHRec$ = -12						; size = 12
??0?$CEncrypt@M@@QAE@XZ PROC				; CEncrypt<float>::CEncrypt<float>, COMDAT
; _this$ = ecx

; 109  : 	CEncrypt()

  00000	6a 04		 push	 4
  00002	b8 00 00 00 00	 mov	 eax, __ehhandler$??0?$CEncrypt@M@@QAE@XZ
  00007	e8 00 00 00 00	 call	 __EH_prolog3
  0000c	8b f1		 mov	 esi, ecx
  0000e	89 75 f0	 mov	 DWORD PTR _this$[ebp], esi
  00011	8d 4e 0c	 lea	 ecx, DWORD PTR [esi+12]
  00014	c7 06 00 00 00
	00		 mov	 DWORD PTR [esi], OFFSET ??_7?$CEncrypt@M@@6B@
  0001a	e8 00 00 00 00	 call	 ??0ccddaabb@@QAE@XZ	; ccddaabb::ccddaabb
  0001f	83 65 fc 00	 and	 DWORD PTR __$EHRec$[ebp+8], 0

; 110  : 	{
; 111  : 		Init();

  00023	8b ce		 mov	 ecx, esi
  00025	e8 00 00 00 00	 call	 ?Init@?$CEncrypt@M@@AAEXXZ ; CEncrypt<float>::Init

; 112  : 	}

  0002a	8b c6		 mov	 eax, esi
  0002c	e8 00 00 00 00	 call	 __EH_epilog3
  00031	c3		 ret	 0
_TEXT	ENDS
;	COMDAT text$x
text$x	SEGMENT
__unwindfunclet$??0?$CEncrypt@M@@QAE@XZ$0:
  00000	8b 4d f0	 mov	 ecx, DWORD PTR _this$[ebp]
  00003	83 c1 0c	 add	 ecx, 12			; 0000000cH
  00006	e9 00 00 00 00	 jmp	 ??1ccddaabb@@UAE@XZ	; ccddaabb::~ccddaabb
__ehhandler$??0?$CEncrypt@M@@QAE@XZ:
  0000b	8b 54 24 08	 mov	 edx, DWORD PTR [esp+8]
  0000f	8d 42 0c	 lea	 eax, DWORD PTR [edx+12]
  00012	8b 4a ec	 mov	 ecx, DWORD PTR [edx-20]
  00015	33 c8		 xor	 ecx, eax
  00017	e8 00 00 00 00	 call	 @__security_check_cookie@4
  0001c	b8 00 00 00 00	 mov	 eax, OFFSET __ehfuncinfo$??0?$CEncrypt@M@@QAE@XZ
  00021	e9 00 00 00 00	 jmp	 ___CxxFrameHandler3
text$x	ENDS
??0?$CEncrypt@M@@QAE@XZ ENDP				; CEncrypt<float>::CEncrypt<float>
PUBLIC	??B?$CEncrypt@M@@QAEMXZ				; CEncrypt<float>::operator float
; Function compile flags: /Ogsp
;	COMDAT ??B?$CEncrypt@M@@QAEMXZ
_TEXT	SEGMENT
_value$ = -4						; size = 4
??B?$CEncrypt@M@@QAEMXZ PROC				; CEncrypt<float>::operator float, COMDAT
; _this$ = ecx

; 134  : 	{

  00000	55		 push	 ebp
  00001	8b ec		 mov	 ebp, esp
  00003	51		 push	 ecx

; 135  : 		type value;
; 136  : 		DecryptValueToPool(&value);

  00004	8d 45 fc	 lea	 eax, DWORD PTR _value$[ebp]
  00007	50		 push	 eax
  00008	e8 00 00 00 00	 call	 ?DecryptValueToPool@?$CEncrypt@M@@QAEXPAM@Z ; CEncrypt<float>::DecryptValueToPool

; 137  : 
; 138  : #ifdef _NOTUSE
; 139  : 		Debug();
; 140  : #endif
; 141  : 		return value;

  0000d	d9 45 fc	 fld	 DWORD PTR _value$[ebp]

; 142  : 	}

  00010	c9		 leave
  00011	c3		 ret	 0
??B?$CEncrypt@M@@QAEMXZ ENDP				; CEncrypt<float>::operator float
_TEXT	ENDS
PUBLIC	??B?$CEncrypt@M@@QBEMXZ				; CEncrypt<float>::operator float
; Function compile flags: /Ogsp
;	COMDAT ??B?$CEncrypt@M@@QBEMXZ
_TEXT	SEGMENT
_value$ = -4						; size = 4
??B?$CEncrypt@M@@QBEMXZ PROC				; CEncrypt<float>::operator float, COMDAT
; _this$ = ecx

; 145  : 	{

  00000	55		 push	 ebp
  00001	8b ec		 mov	 ebp, esp
  00003	51		 push	 ecx

; 146  : 		//UJ 130829, const도 똑같이 하면 된다 --start
; 147  : 		type value;
; 148  : 		CEncrypt<type>* pThis = const_cast<CEncrypt<type>*>(this);
; 149  : 		pThis->DecryptValueToPool(&value);

  00004	8d 45 fc	 lea	 eax, DWORD PTR _value$[ebp]
  00007	50		 push	 eax
  00008	e8 00 00 00 00	 call	 ?DecryptValueToPool@?$CEncrypt@M@@QAEXPAM@Z ; CEncrypt<float>::DecryptValueToPool

; 150  : 		//// const에서 DecryptValueToPool 사용할 수 없으므로 아래와 같이함.
; 151  :  		//type value;
; 152  : 		//char szTempMem[MAX_ENCRYPT];
; 153  : 		//m_RC5.DecryptByte( m_MemPool, szTempMem, max(m_ValueSize, DEFAULT_ENCRYPT) );
; 154  : 		//memcpy( &value, szTempMem, m_ValueSize );
; 155  : 		//UJ --end
; 156  : 
; 157  : #ifdef _NOTUSE
; 158  : 		Debug();
; 159  : #endif
; 160  : 		return value;

  0000d	d9 45 fc	 fld	 DWORD PTR _value$[ebp]

; 161  : 	}

  00010	c9		 leave
  00011	c3		 ret	 0
??B?$CEncrypt@M@@QBEMXZ ENDP				; CEncrypt<float>::operator float
_TEXT	ENDS
PUBLIC	??4?$CEncrypt@M@@QAEMM@Z			; CEncrypt<float>::operator=
; Function compile flags: /Ogsp
;	COMDAT ??4?$CEncrypt@M@@QAEMM@Z
_TEXT	SEGMENT
_value$ = 8						; size = 4
_inValue$ = 8						; size = 4
??4?$CEncrypt@M@@QAEMM@Z PROC				; CEncrypt<float>::operator=, COMDAT
; _this$ = ecx

; 1654 : 	{	

  00000	55		 push	 ebp
  00001	8b ec		 mov	 ebp, esp

; 1655 : 		type value = inValue;

  00003	d9 45 08	 fld	 DWORD PTR _inValue$[ebp]

; 1656 : 		EncryptValueToPool((char*)&value);

  00006	8d 45 08	 lea	 eax, DWORD PTR _value$[ebp]
  00009	50		 push	 eax
  0000a	d9 5d 08	 fstp	 DWORD PTR _value$[ebp]
  0000d	e8 00 00 00 00	 call	 ?EncryptValueToPool@?$CEncrypt@M@@AAEXPBD@Z ; CEncrypt<float>::EncryptValueToPool

; 1657 : #ifdef _NOTUSE
; 1658 : 		m_value = inValue;
; 1659 : 		Debug();
; 1660 : #endif
; 1661 : 		return value;

  00012	d9 45 08	 fld	 DWORD PTR _value$[ebp]

; 1662 : 	}

  00015	5d		 pop	 ebp
  00016	c2 04 00	 ret	 4
??4?$CEncrypt@M@@QAEMM@Z ENDP				; CEncrypt<float>::operator=
_TEXT	ENDS
PUBLIC	??O?$CEncrypt@M@@QAE_NABM@Z			; CEncrypt<float>::operator>
; Function compile flags: /Ogsp
;	COMDAT ??O?$CEncrypt@M@@QAE_NABM@Z
_TEXT	SEGMENT
_value$ = -4						; size = 4
_inValue$ = 8						; size = 4
??O?$CEncrypt@M@@QAE_NABM@Z PROC			; CEncrypt<float>::operator>, COMDAT
; _this$ = ecx

; 1811 : 	{

  00000	55		 push	 ebp
  00001	8b ec		 mov	 ebp, esp
  00003	51		 push	 ecx

; 1812 : 		type value;
; 1813 : 		DecryptValueToPool(&value);

  00004	8d 45 fc	 lea	 eax, DWORD PTR _value$[ebp]
  00007	50		 push	 eax
  00008	e8 00 00 00 00	 call	 ?DecryptValueToPool@?$CEncrypt@M@@QAEXPAM@Z ; CEncrypt<float>::DecryptValueToPool

; 1814 : #ifdef _NOTUSE
; 1815 : 		Debug();
; 1816 : #endif
; 1817 : 		return (value > inValue);

  0000d	8b 45 08	 mov	 eax, DWORD PTR _inValue$[ebp]
  00010	f3 0f 10 08	 movss	 xmm1, DWORD PTR [eax]
  00014	f3 0f 10 45 fc	 movss	 xmm0, DWORD PTR _value$[ebp]
  00019	0f 5a c0	 cvtps2pd xmm0, xmm0
  0001c	0f 5a c9	 cvtps2pd xmm1, xmm1
  0001f	33 c0		 xor	 eax, eax
  00021	66 0f 2f c1	 comisd	 xmm0, xmm1
  00025	76 01		 jbe	 SHORT $LN4@operator@2
  00027	40		 inc	 eax
$LN4@operator@2:

; 1818 : 	}		

  00028	c9		 leave
  00029	c2 04 00	 ret	 4
??O?$CEncrypt@M@@QAE_NABM@Z ENDP			; CEncrypt<float>::operator>
_TEXT	ENDS
PUBLIC	??B?$CEncrypt@K@@QBEKXZ				; CEncrypt<unsigned long>::operator unsigned long
; Function compile flags: /Ogsp
;	COMDAT ??B?$CEncrypt@K@@QBEKXZ
_TEXT	SEGMENT
_value$ = -4						; size = 4
??B?$CEncrypt@K@@QBEKXZ PROC				; CEncrypt<unsigned long>::operator unsigned long, COMDAT
; _this$ = ecx

; 145  : 	{

  00000	55		 push	 ebp
  00001	8b ec		 mov	 ebp, esp
  00003	51		 push	 ecx

; 146  : 		//UJ 130829, const도 똑같이 하면 된다 --start
; 147  : 		type value;
; 148  : 		CEncrypt<type>* pThis = const_cast<CEncrypt<type>*>(this);
; 149  : 		pThis->DecryptValueToPool(&value);

  00004	8d 45 fc	 lea	 eax, DWORD PTR _value$[ebp]
  00007	50		 push	 eax
  00008	e8 00 00 00 00	 call	 ?DecryptValueToPool@?$CEncrypt@K@@QAEXPAK@Z ; CEncrypt<unsigned long>::DecryptValueToPool

; 150  : 		//// const에서 DecryptValueToPool 사용할 수 없으므로 아래와 같이함.
; 151  :  		//type value;
; 152  : 		//char szTempMem[MAX_ENCRYPT];
; 153  : 		//m_RC5.DecryptByte( m_MemPool, szTempMem, max(m_ValueSize, DEFAULT_ENCRYPT) );
; 154  : 		//memcpy( &value, szTempMem, m_ValueSize );
; 155  : 		//UJ --end
; 156  : 
; 157  : #ifdef _NOTUSE
; 158  : 		Debug();
; 159  : #endif
; 160  : 		return value;

  0000d	8b 45 fc	 mov	 eax, DWORD PTR _value$[ebp]

; 161  : 	}

  00010	c9		 leave
  00011	c3		 ret	 0
??B?$CEncrypt@K@@QBEKXZ ENDP				; CEncrypt<unsigned long>::operator unsigned long
_TEXT	ENDS
PUBLIC	??4?$CEncrypt@K@@QAEKK@Z			; CEncrypt<unsigned long>::operator=
; Function compile flags: /Ogsp
;	COMDAT ??4?$CEncrypt@K@@QAEKK@Z
_TEXT	SEGMENT
_value$ = 8						; size = 4
_inValue$ = 8						; size = 4
??4?$CEncrypt@K@@QAEKK@Z PROC				; CEncrypt<unsigned long>::operator=, COMDAT
; _this$ = ecx

; 1262 : 	{

  00000	55		 push	 ebp
  00001	8b ec		 mov	 ebp, esp

; 1263 : 		
; 1264 : 		type value = inValue;

  00003	8b 45 08	 mov	 eax, DWORD PTR _inValue$[ebp]
  00006	89 45 08	 mov	 DWORD PTR _value$[ebp], eax

; 1265 : 		EncryptValueToPool((char*)&value);

  00009	8d 45 08	 lea	 eax, DWORD PTR _value$[ebp]
  0000c	50		 push	 eax
  0000d	e8 00 00 00 00	 call	 ?EncryptValueToPool@?$CEncrypt@K@@AAEXPBD@Z ; CEncrypt<unsigned long>::EncryptValueToPool

; 1266 : #ifdef _NOTUSE
; 1267 : 		m_value = inValue;
; 1268 : 		Debug();
; 1269 : #endif
; 1270 : 		return value;

  00012	8b 45 08	 mov	 eax, DWORD PTR _value$[ebp]

; 1271 : 	}

  00015	5d		 pop	 ebp
  00016	c2 04 00	 ret	 4
??4?$CEncrypt@K@@QAEKK@Z ENDP				; CEncrypt<unsigned long>::operator=
_TEXT	ENDS
PUBLIC	??B?$CEncrypt@_N@@QAE_NXZ			; CEncrypt<bool>::operator bool
; Function compile flags: /Ogsp
;	COMDAT ??B?$CEncrypt@_N@@QAE_NXZ
_TEXT	SEGMENT
_value$ = -1						; size = 1
??B?$CEncrypt@_N@@QAE_NXZ PROC				; CEncrypt<bool>::operator bool, COMDAT
; _this$ = ecx

; 134  : 	{

  00000	55		 push	 ebp
  00001	8b ec		 mov	 ebp, esp
  00003	51		 push	 ecx

; 135  : 		type value;
; 136  : 		DecryptValueToPool(&value);

  00004	8d 45 ff	 lea	 eax, DWORD PTR _value$[ebp]
  00007	50		 push	 eax
  00008	e8 00 00 00 00	 call	 ?DecryptValueToPool@?$CEncrypt@_N@@QAEXPA_N@Z ; CEncrypt<bool>::DecryptValueToPool

; 137  : 
; 138  : #ifdef _NOTUSE
; 139  : 		Debug();
; 140  : #endif
; 141  : 		return value;

  0000d	8a 45 ff	 mov	 al, BYTE PTR _value$[ebp]

; 142  : 	}

  00010	c9		 leave
  00011	c3		 ret	 0
??B?$CEncrypt@_N@@QAE_NXZ ENDP				; CEncrypt<bool>::operator bool
_TEXT	ENDS
PUBLIC	??B?$CEncrypt@_N@@QBE_NXZ			; CEncrypt<bool>::operator bool
; Function compile flags: /Ogsp
;	COMDAT ??B?$CEncrypt@_N@@QBE_NXZ
_TEXT	SEGMENT
_value$ = -1						; size = 1
??B?$CEncrypt@_N@@QBE_NXZ PROC				; CEncrypt<bool>::operator bool, COMDAT
; _this$ = ecx

; 145  : 	{

  00000	55		 push	 ebp
  00001	8b ec		 mov	 ebp, esp
  00003	51		 push	 ecx

; 146  : 		//UJ 130829, const도 똑같이 하면 된다 --start
; 147  : 		type value;
; 148  : 		CEncrypt<type>* pThis = const_cast<CEncrypt<type>*>(this);
; 149  : 		pThis->DecryptValueToPool(&value);

  00004	8d 45 ff	 lea	 eax, DWORD PTR _value$[ebp]
  00007	50		 push	 eax
  00008	e8 00 00 00 00	 call	 ?DecryptValueToPool@?$CEncrypt@_N@@QAEXPA_N@Z ; CEncrypt<bool>::DecryptValueToPool

; 150  : 		//// const에서 DecryptValueToPool 사용할 수 없으므로 아래와 같이함.
; 151  :  		//type value;
; 152  : 		//char szTempMem[MAX_ENCRYPT];
; 153  : 		//m_RC5.DecryptByte( m_MemPool, szTempMem, max(m_ValueSize, DEFAULT_ENCRYPT) );
; 154  : 		//memcpy( &value, szTempMem, m_ValueSize );
; 155  : 		//UJ --end
; 156  : 
; 157  : #ifdef _NOTUSE
; 158  : 		Debug();
; 159  : #endif
; 160  : 		return value;

  0000d	8a 45 ff	 mov	 al, BYTE PTR _value$[ebp]

; 161  : 	}

  00010	c9		 leave
  00011	c3		 ret	 0
??B?$CEncrypt@_N@@QBE_NXZ ENDP				; CEncrypt<bool>::operator bool
_TEXT	ENDS
PUBLIC	?begin@?$vector@VioHashString@@V?$allocator@VioHashString@@@std@@@std@@QAE?AV?$_Vector_iterator@V?$_Vector_val@VioHashString@@V?$allocator@VioHashString@@@std@@@std@@@2@XZ ; std::vector<ioHashString,std::allocator<ioHashString> >::begin
; Function compile flags: /Ogsp
; File c:\program files (x86)\microsoft visual studio 10.0\vc\include\vector
;	COMDAT ?begin@?$vector@VioHashString@@V?$allocator@VioHashString@@@std@@@std@@QAE?AV?$_Vector_iterator@V?$_Vector_val@VioHashString@@V?$allocator@VioHashString@@@std@@@std@@@2@XZ
_TEXT	SEGMENT
___$ReturnUdt$ = 8					; size = 4
?begin@?$vector@VioHashString@@V?$allocator@VioHashString@@@std@@@std@@QAE?AV?$_Vector_iterator@V?$_Vector_val@VioHashString@@V?$allocator@VioHashString@@@std@@@std@@@2@XZ PROC ; std::vector<ioHashString,std::allocator<ioHashString> >::begin, COMDAT
; _this$ = ecx

; 781  : 		{	// return iterator for beginning of mutable sequence

  00000	55		 push	 ebp
  00001	8b ec		 mov	 ebp, esp

; 782  : 		return (iterator(this->_Myfirst, this));

  00003	8b 09		 mov	 ecx, DWORD PTR [ecx]
  00005	8b 45 08	 mov	 eax, DWORD PTR ___$ReturnUdt$[ebp]
  00008	89 08		 mov	 DWORD PTR [eax], ecx

; 783  : 		}

  0000a	5d		 pop	 ebp
  0000b	c2 04 00	 ret	 4
?begin@?$vector@VioHashString@@V?$allocator@VioHashString@@@std@@@std@@QAE?AV?$_Vector_iterator@V?$_Vector_val@VioHashString@@V?$allocator@VioHashString@@@std@@@std@@@2@XZ ENDP ; std::vector<ioHashString,std::allocator<ioHashString> >::begin
_TEXT	ENDS
PUBLIC	?begin@?$vector@VioHashString@@V?$allocator@VioHashString@@@std@@@std@@QBE?AV?$_Vector_const_iterator@V?$_Vector_val@VioHashString@@V?$allocator@VioHashString@@@std@@@std@@@2@XZ ; std::vector<ioHashString,std::allocator<ioHashString> >::begin
; Function compile flags: /Ogsp
;	COMDAT ?begin@?$vector@VioHashString@@V?$allocator@VioHashString@@@std@@@std@@QBE?AV?$_Vector_const_iterator@V?$_Vector_val@VioHashString@@V?$allocator@VioHashString@@@std@@@std@@@2@XZ
_TEXT	SEGMENT
___$ReturnUdt$ = 8					; size = 4
?begin@?$vector@VioHashString@@V?$allocator@VioHashString@@@std@@@std@@QBE?AV?$_Vector_const_iterator@V?$_Vector_val@VioHashString@@V?$allocator@VioHashString@@@std@@@std@@@2@XZ PROC ; std::vector<ioHashString,std::allocator<ioHashString> >::begin, COMDAT
; _this$ = ecx

; 786  : 		{	// return iterator for beginning of nonmutable sequence

  00000	55		 push	 ebp
  00001	8b ec		 mov	 ebp, esp

; 787  : 		return (const_iterator(this->_Myfirst, this));

  00003	8b 09		 mov	 ecx, DWORD PTR [ecx]
  00005	8b 45 08	 mov	 eax, DWORD PTR ___$ReturnUdt$[ebp]
  00008	89 08		 mov	 DWORD PTR [eax], ecx

; 788  : 		}

  0000a	5d		 pop	 ebp
  0000b	c2 04 00	 ret	 4
?begin@?$vector@VioHashString@@V?$allocator@VioHashString@@@std@@@std@@QBE?AV?$_Vector_const_iterator@V?$_Vector_val@VioHashString@@V?$allocator@VioHashString@@@std@@@std@@@2@XZ ENDP ; std::vector<ioHashString,std::allocator<ioHashString> >::begin
_TEXT	ENDS
PUBLIC	?end@?$vector@VioHashString@@V?$allocator@VioHashString@@@std@@@std@@QAE?AV?$_Vector_iterator@V?$_Vector_val@VioHashString@@V?$allocator@VioHashString@@@std@@@std@@@2@XZ ; std::vector<ioHashString,std::allocator<ioHashString> >::end
; Function compile flags: /Ogsp
;	COMDAT ?end@?$vector@VioHashString@@V?$allocator@VioHashString@@@std@@@std@@QAE?AV?$_Vector_iterator@V?$_Vector_val@VioHashString@@V?$allocator@VioHashString@@@std@@@std@@@2@XZ
_TEXT	SEGMENT
___$ReturnUdt$ = 8					; size = 4
?end@?$vector@VioHashString@@V?$allocator@VioHashString@@@std@@@std@@QAE?AV?$_Vector_iterator@V?$_Vector_val@VioHashString@@V?$allocator@VioHashString@@@std@@@std@@@2@XZ PROC ; std::vector<ioHashString,std::allocator<ioHashString> >::end, COMDAT
; _this$ = ecx

; 791  : 		{	// return iterator for end of mutable sequence

  00000	55		 push	 ebp
  00001	8b ec		 mov	 ebp, esp

; 792  : 		return (iterator(this->_Mylast, this));

  00003	8b 49 04	 mov	 ecx, DWORD PTR [ecx+4]
  00006	8b 45 08	 mov	 eax, DWORD PTR ___$ReturnUdt$[ebp]
  00009	89 08		 mov	 DWORD PTR [eax], ecx

; 793  : 		}

  0000b	5d		 pop	 ebp
  0000c	c2 04 00	 ret	 4
?end@?$vector@VioHashString@@V?$allocator@VioHashString@@@std@@@std@@QAE?AV?$_Vector_iterator@V?$_Vector_val@VioHashString@@V?$allocator@VioHashString@@@std@@@std@@@2@XZ ENDP ; std::vector<ioHashString,std::allocator<ioHashString> >::end
_TEXT	ENDS
PUBLIC	?end@?$vector@VioHashString@@V?$allocator@VioHashString@@@std@@@std@@QBE?AV?$_Vector_const_iterator@V?$_Vector_val@VioHashString@@V?$allocator@VioHashString@@@std@@@std@@@2@XZ ; std::vector<ioHashString,std::allocator<ioHashString> >::end
; Function compile flags: /Ogsp
;	COMDAT ?end@?$vector@VioHashString@@V?$allocator@VioHashString@@@std@@@std@@QBE?AV?$_Vector_const_iterator@V?$_Vector_val@VioHashString@@V?$allocator@VioHashString@@@std@@@std@@@2@XZ
_TEXT	SEGMENT
___$ReturnUdt$ = 8					; size = 4
?end@?$vector@VioHashString@@V?$allocator@VioHashString@@@std@@@std@@QBE?AV?$_Vector_const_iterator@V?$_Vector_val@VioHashString@@V?$allocator@VioHashString@@@std@@@std@@@2@XZ PROC ; std::vector<ioHashString,std::allocator<ioHashString> >::end, COMDAT
; _this$ = ecx

; 796  : 		{	// return iterator for end of nonmutable sequence

  00000	55		 push	 ebp
  00001	8b ec		 mov	 ebp, esp

; 797  : 		return (const_iterator(this->_Mylast, this));

  00003	8b 49 04	 mov	 ecx, DWORD PTR [ecx+4]
  00006	8b 45 08	 mov	 eax, DWORD PTR ___$ReturnUdt$[ebp]
  00009	89 08		 mov	 DWORD PTR [eax], ecx

; 798  : 		}

  0000b	5d		 pop	 ebp
  0000c	c2 04 00	 ret	 4
?end@?$vector@VioHashString@@V?$allocator@VioHashString@@@std@@@std@@QBE?AV?$_Vector_const_iterator@V?$_Vector_val@VioHashString@@V?$allocator@VioHashString@@@std@@@std@@@2@XZ ENDP ; std::vector<ioHashString,std::allocator<ioHashString> >::end
_TEXT	ENDS
PUBLIC	??0?$_Vector_val@VioHashString@@V?$allocator@VioHashString@@@std@@@std@@QAE@V?$allocator@VioHashString@@@1@@Z ; std::_Vector_val<ioHashString,std::allocator<ioHashString> >::_Vector_val<ioHashString,std::allocator<ioHashString> >
; Function compile flags: /Ogsp
;	COMDAT ??0?$_Vector_val@VioHashString@@V?$allocator@VioHashString@@@std@@@std@@QAE@V?$allocator@VioHashString@@@1@@Z
_TEXT	SEGMENT
__Al$ = 8						; size = 1
??0?$_Vector_val@VioHashString@@V?$allocator@VioHashString@@@std@@@std@@QAE@V?$allocator@VioHashString@@@1@@Z PROC ; std::_Vector_val<ioHashString,std::allocator<ioHashString> >::_Vector_val<ioHashString,std::allocator<ioHashString> >, COMDAT
; _this$ = ecx

; 426  : 		{	// construct allocator from _Al

  00000	8b c1		 mov	 eax, ecx

; 427  : 		_Myfirst = 0;

  00002	33 c9		 xor	 ecx, ecx
  00004	89 08		 mov	 DWORD PTR [eax], ecx

; 428  : 		_Mylast = 0;

  00006	89 48 04	 mov	 DWORD PTR [eax+4], ecx

; 429  : 		_Myend = 0;

  00009	89 48 08	 mov	 DWORD PTR [eax+8], ecx

; 430  : 		}

  0000c	c2 04 00	 ret	 4
??0?$_Vector_val@VioHashString@@V?$allocator@VioHashString@@@std@@@std@@QAE@V?$allocator@VioHashString@@@1@@Z ENDP ; std::_Vector_val<ioHashString,std::allocator<ioHashString> >::_Vector_val<ioHashString,std::allocator<ioHashString> >
_TEXT	ENDS
PUBLIC	??0?$_Vector_val@UWeaponInfo@@V?$allocator@UWeaponInfo@@@std@@@std@@QAE@V?$allocator@UWeaponInfo@@@1@@Z ; std::_Vector_val<WeaponInfo,std::allocator<WeaponInfo> >::_Vector_val<WeaponInfo,std::allocator<WeaponInfo> >
; Function compile flags: /Ogsp
;	COMDAT ??0?$_Vector_val@UWeaponInfo@@V?$allocator@UWeaponInfo@@@std@@@std@@QAE@V?$allocator@UWeaponInfo@@@1@@Z
_TEXT	SEGMENT
__Al$ = 8						; size = 1
??0?$_Vector_val@UWeaponInfo@@V?$allocator@UWeaponInfo@@@std@@@std@@QAE@V?$allocator@UWeaponInfo@@@1@@Z PROC ; std::_Vector_val<WeaponInfo,std::allocator<WeaponInfo> >::_Vector_val<WeaponInfo,std::allocator<WeaponInfo> >, COMDAT
; _this$ = ecx

; 426  : 		{	// construct allocator from _Al

  00000	8b c1		 mov	 eax, ecx

; 427  : 		_Myfirst = 0;

  00002	33 c9		 xor	 ecx, ecx
  00004	89 08		 mov	 DWORD PTR [eax], ecx

; 428  : 		_Mylast = 0;

  00006	89 48 04	 mov	 DWORD PTR [eax+4], ecx

; 429  : 		_Myend = 0;

  00009	89 48 08	 mov	 DWORD PTR [eax+8], ecx

; 430  : 		}

  0000c	c2 04 00	 ret	 4
??0?$_Vector_val@UWeaponInfo@@V?$allocator@UWeaponInfo@@@std@@@std@@QAE@V?$allocator@UWeaponInfo@@@1@@Z ENDP ; std::_Vector_val<WeaponInfo,std::allocator<WeaponInfo> >::_Vector_val<WeaponInfo,std::allocator<WeaponInfo> >
_TEXT	ENDS
PUBLIC	??0?$_Vector_val@UForceInfo@@V?$allocator@UForceInfo@@@std@@@std@@QAE@V?$allocator@UForceInfo@@@1@@Z ; std::_Vector_val<ForceInfo,std::allocator<ForceInfo> >::_Vector_val<ForceInfo,std::allocator<ForceInfo> >
; Function compile flags: /Ogsp
;	COMDAT ??0?$_Vector_val@UForceInfo@@V?$allocator@UForceInfo@@@std@@@std@@QAE@V?$allocator@UForceInfo@@@1@@Z
_TEXT	SEGMENT
__Al$ = 8						; size = 1
??0?$_Vector_val@UForceInfo@@V?$allocator@UForceInfo@@@std@@@std@@QAE@V?$allocator@UForceInfo@@@1@@Z PROC ; std::_Vector_val<ForceInfo,std::allocator<ForceInfo> >::_Vector_val<ForceInfo,std::allocator<ForceInfo> >, COMDAT
; _this$ = ecx

; 426  : 		{	// construct allocator from _Al

  00000	8b c1		 mov	 eax, ecx

; 427  : 		_Myfirst = 0;

  00002	33 c9		 xor	 ecx, ecx
  00004	89 08		 mov	 DWORD PTR [eax], ecx

; 428  : 		_Mylast = 0;

  00006	89 48 04	 mov	 DWORD PTR [eax+4], ecx

; 429  : 		_Myend = 0;

  00009	89 48 08	 mov	 DWORD PTR [eax+8], ecx

; 430  : 		}

  0000c	c2 04 00	 ret	 4
??0?$_Vector_val@UForceInfo@@V?$allocator@UForceInfo@@@std@@@std@@QAE@V?$allocator@UForceInfo@@@1@@Z ENDP ; std::_Vector_val<ForceInfo,std::allocator<ForceInfo> >::_Vector_val<ForceInfo,std::allocator<ForceInfo> >
_TEXT	ENDS
PUBLIC	?_Make_iter@?$vector@VioHashString@@V?$allocator@VioHashString@@@std@@@std@@QBE?AV?$_Vector_iterator@V?$_Vector_val@VioHashString@@V?$allocator@VioHashString@@@std@@@std@@@2@V?$_Vector_const_iterator@V?$_Vector_val@VioHashString@@V?$allocator@VioHashString@@@std@@@std@@@2@@Z ; std::vector<ioHashString,std::allocator<ioHashString> >::_Make_iter
; Function compile flags: /Ogsp
;	COMDAT ?_Make_iter@?$vector@VioHashString@@V?$allocator@VioHashString@@@std@@@std@@QBE?AV?$_Vector_iterator@V?$_Vector_val@VioHashString@@V?$allocator@VioHashString@@@std@@@std@@@2@V?$_Vector_const_iterator@V?$_Vector_val@VioHashString@@V?$allocator@VioHashString@@@std@@@std@@@2@@Z
_TEXT	SEGMENT
___$ReturnUdt$ = 8					; size = 4
__Where$ = 12						; size = 4
?_Make_iter@?$vector@VioHashString@@V?$allocator@VioHashString@@@std@@@std@@QBE?AV?$_Vector_iterator@V?$_Vector_val@VioHashString@@V?$allocator@VioHashString@@@std@@@std@@@2@V?$_Vector_const_iterator@V?$_Vector_val@VioHashString@@V?$allocator@VioHashString@@@std@@@std@@@2@@Z PROC ; std::vector<ioHashString,std::allocator<ioHashString> >::_Make_iter, COMDAT
; _this$ = ecx

; 801  : 		{	// make iterator from const_iterator

  00000	55		 push	 ebp
  00001	8b ec		 mov	 ebp, esp

; 802  : 		return (iterator(_Where._Ptr, this));

  00003	8b 45 08	 mov	 eax, DWORD PTR ___$ReturnUdt$[ebp]
  00006	8b 4d 0c	 mov	 ecx, DWORD PTR __Where$[ebp]
  00009	89 08		 mov	 DWORD PTR [eax], ecx

; 803  : 		}

  0000b	5d		 pop	 ebp
  0000c	c2 08 00	 ret	 8
?_Make_iter@?$vector@VioHashString@@V?$allocator@VioHashString@@@std@@@std@@QBE?AV?$_Vector_iterator@V?$_Vector_val@VioHashString@@V?$allocator@VioHashString@@@std@@@std@@@2@V?$_Vector_const_iterator@V?$_Vector_val@VioHashString@@V?$allocator@VioHashString@@@std@@@std@@@2@@Z ENDP ; std::vector<ioHashString,std::allocator<ioHashString> >::_Make_iter
_TEXT	ENDS
PUBLIC	?max_size@?$vector@VioHashString@@V?$allocator@VioHashString@@@std@@@std@@QBEIXZ ; std::vector<ioHashString,std::allocator<ioHashString> >::max_size
; Function compile flags: /Ogsp
;	COMDAT ?max_size@?$vector@VioHashString@@V?$allocator@VioHashString@@@std@@@std@@QBEIXZ
_TEXT	SEGMENT
?max_size@?$vector@VioHashString@@V?$allocator@VioHashString@@@std@@@std@@QBEIXZ PROC ; std::vector<ioHashString,std::allocator<ioHashString> >::max_size, COMDAT
; _this$ = ecx

; 884  : 		return (this->_Alval.max_size());

  00000	b8 ff ff ff 0f	 mov	 eax, 268435455		; 0fffffffH

; 885  : 		}

  00005	c3		 ret	 0
?max_size@?$vector@VioHashString@@V?$allocator@VioHashString@@@std@@@std@@QBEIXZ ENDP ; std::vector<ioHashString,std::allocator<ioHashString> >::max_size
_TEXT	ENDS
PUBLIC	?allocate@?$allocator@VioHashString@@@std@@QAEPAVioHashString@@I@Z ; std::allocator<ioHashString>::allocate
; Function compile flags: /Ogsp
; File c:\program files (x86)\microsoft visual studio 10.0\vc\include\xmemory
;	COMDAT ?allocate@?$allocator@VioHashString@@@std@@QAEPAVioHashString@@I@Z
_TEXT	SEGMENT
__Count$ = 8						; size = 4
?allocate@?$allocator@VioHashString@@@std@@QAEPAVioHashString@@I@Z PROC ; std::allocator<ioHashString>::allocate, COMDAT
; _this$ = ecx

; 186  : 		{	// allocate array of _Count elements

  00000	55		 push	 ebp
  00001	8b ec		 mov	 ebp, esp

; 187  : 		return (_Allocate(_Count, (pointer)0));

  00003	6a 00		 push	 0
  00005	ff 75 08	 push	 DWORD PTR __Count$[ebp]
  00008	e8 00 00 00 00	 call	 ??$_Allocate@VioHashString@@@std@@YAPAVioHashString@@IPAV1@@Z ; std::_Allocate<ioHashString>
  0000d	59		 pop	 ecx
  0000e	59		 pop	 ecx

; 188  : 		}

  0000f	5d		 pop	 ebp
  00010	c2 04 00	 ret	 4
?allocate@?$allocator@VioHashString@@@std@@QAEPAVioHashString@@I@Z ENDP ; std::allocator<ioHashString>::allocate
_TEXT	ENDS
PUBLIC	??8?$_Vector_const_iterator@V?$_Vector_val@VioHashString@@V?$allocator@VioHashString@@@std@@@std@@@std@@QBE_NABV01@@Z ; std::_Vector_const_iterator<std::_Vector_val<ioHashString,std::allocator<ioHashString> > >::operator==
; Function compile flags: /Ogsp
; File c:\program files (x86)\microsoft visual studio 10.0\vc\include\vector
;	COMDAT ??8?$_Vector_const_iterator@V?$_Vector_val@VioHashString@@V?$allocator@VioHashString@@@std@@@std@@@std@@QBE_NABV01@@Z
_TEXT	SEGMENT
__Right$ = 8						; size = 4
??8?$_Vector_const_iterator@V?$_Vector_val@VioHashString@@V?$allocator@VioHashString@@@std@@@std@@@std@@QBE_NABV01@@Z PROC ; std::_Vector_const_iterator<std::_Vector_val<ioHashString,std::allocator<ioHashString> > >::operator==, COMDAT
; _this$ = ecx

; 201  : 		{	// test for iterator equality

  00000	55		 push	 ebp
  00001	8b ec		 mov	 ebp, esp

; 202  : 		_Compat(_Right);
; 203  : 		return (this->_Ptr == _Right._Ptr);

  00003	8b 01		 mov	 eax, DWORD PTR [ecx]
  00005	8b 4d 08	 mov	 ecx, DWORD PTR __Right$[ebp]
  00008	2b 01		 sub	 eax, DWORD PTR [ecx]
  0000a	f7 d8		 neg	 eax
  0000c	1b c0		 sbb	 eax, eax
  0000e	40		 inc	 eax

; 204  : 		}

  0000f	5d		 pop	 ebp
  00010	c2 04 00	 ret	 4
??8?$_Vector_const_iterator@V?$_Vector_val@VioHashString@@V?$allocator@VioHashString@@@std@@@std@@@std@@QBE_NABV01@@Z ENDP ; std::_Vector_const_iterator<std::_Vector_val<ioHashString,std::allocator<ioHashString> > >::operator==
_TEXT	ENDS
PUBLIC	??$_Move@PAVioHashString@@PAV1@@std@@YAPAVioHashString@@PAV1@00U_Nonscalar_ptr_iterator_tag@0@@Z ; std::_Move<ioHashString *,ioHashString *>
EXTRN	__imp_??4ioHashString@@QAEAAV0@ABV0@@Z:PROC
; Function compile flags: /Ogsp
; File c:\program files (x86)\microsoft visual studio 10.0\vc\include\xutility
;	COMDAT ??$_Move@PAVioHashString@@PAV1@@std@@YAPAVioHashString@@PAV1@00U_Nonscalar_ptr_iterator_tag@0@@Z
_TEXT	SEGMENT
__First$ = 8						; size = 4
__Last$ = 12						; size = 4
__Dest$ = 16						; size = 4
___formal$ = 20						; size = 1
??$_Move@PAVioHashString@@PAV1@@std@@YAPAVioHashString@@PAV1@00U_Nonscalar_ptr_iterator_tag@0@@Z PROC ; std::_Move<ioHashString *,ioHashString *>, COMDAT

; 2512 : 	{	// move [_First, _Last) to [_Dest, ...), arbitrary iterators

  00000	55		 push	 ebp
  00001	8b ec		 mov	 ebp, esp
  00003	56		 push	 esi

; 2513 : 	for (; _First != _Last; ++_Dest, ++_First)

  00004	8b 75 08	 mov	 esi, DWORD PTR __First$[ebp]
  00007	eb 11		 jmp	 SHORT $LN11@Move
$LL3@Move:

; 2514 : 		*_Dest = _STD move(*_First);

  00009	8b 4d 10	 mov	 ecx, DWORD PTR __Dest$[ebp]
  0000c	56		 push	 esi
  0000d	ff 15 00 00 00
	00		 call	 DWORD PTR __imp_??4ioHashString@@QAEAAV0@ABV0@@Z
  00013	83 45 10 10	 add	 DWORD PTR __Dest$[ebp], 16 ; 00000010H
  00017	83 c6 10	 add	 esi, 16			; 00000010H
$LN11@Move:

; 2513 : 	for (; _First != _Last; ++_Dest, ++_First)

  0001a	3b 75 0c	 cmp	 esi, DWORD PTR __Last$[ebp]
  0001d	75 ea		 jne	 SHORT $LL3@Move

; 2515 : 	return (_Dest);

  0001f	8b 45 10	 mov	 eax, DWORD PTR __Dest$[ebp]
  00022	5e		 pop	 esi

; 2516 : 	}

  00023	5d		 pop	 ebp
  00024	c3		 ret	 0
??$_Move@PAVioHashString@@PAV1@@std@@YAPAVioHashString@@PAV1@00U_Nonscalar_ptr_iterator_tag@0@@Z ENDP ; std::_Move<ioHashString *,ioHashString *>
_TEXT	ENDS
PUBLIC	?max_size@?$vector@UWeaponInfo@@V?$allocator@UWeaponInfo@@@std@@@std@@QBEIXZ ; std::vector<WeaponInfo,std::allocator<WeaponInfo> >::max_size
; Function compile flags: /Ogsp
; File c:\program files (x86)\microsoft visual studio 10.0\vc\include\vector
;	COMDAT ?max_size@?$vector@UWeaponInfo@@V?$allocator@UWeaponInfo@@@std@@@std@@QBEIXZ
_TEXT	SEGMENT
?max_size@?$vector@UWeaponInfo@@V?$allocator@UWeaponInfo@@@std@@@std@@QBEIXZ PROC ; std::vector<WeaponInfo,std::allocator<WeaponInfo> >::max_size, COMDAT
; _this$ = ecx

; 884  : 		return (this->_Alval.max_size());

  00000	b8 66 66 66 06	 mov	 eax, 107374182		; 06666666H

; 885  : 		}

  00005	c3		 ret	 0
?max_size@?$vector@UWeaponInfo@@V?$allocator@UWeaponInfo@@@std@@@std@@QBEIXZ ENDP ; std::vector<WeaponInfo,std::allocator<WeaponInfo> >::max_size
_TEXT	ENDS
PUBLIC	?allocate@?$allocator@UWeaponInfo@@@std@@QAEPAUWeaponInfo@@I@Z ; std::allocator<WeaponInfo>::allocate
; Function compile flags: /Ogsp
; File c:\program files (x86)\microsoft visual studio 10.0\vc\include\xmemory
;	COMDAT ?allocate@?$allocator@UWeaponInfo@@@std@@QAEPAUWeaponInfo@@I@Z
_TEXT	SEGMENT
__Count$ = 8						; size = 4
?allocate@?$allocator@UWeaponInfo@@@std@@QAEPAUWeaponInfo@@I@Z PROC ; std::allocator<WeaponInfo>::allocate, COMDAT
; _this$ = ecx

; 186  : 		{	// allocate array of _Count elements

  00000	55		 push	 ebp
  00001	8b ec		 mov	 ebp, esp

; 187  : 		return (_Allocate(_Count, (pointer)0));

  00003	6a 00		 push	 0
  00005	ff 75 08	 push	 DWORD PTR __Count$[ebp]
  00008	e8 00 00 00 00	 call	 ??$_Allocate@UWeaponInfo@@@std@@YAPAUWeaponInfo@@IPAU1@@Z ; std::_Allocate<WeaponInfo>
  0000d	59		 pop	 ecx
  0000e	59		 pop	 ecx

; 188  : 		}

  0000f	5d		 pop	 ebp
  00010	c2 04 00	 ret	 4
?allocate@?$allocator@UWeaponInfo@@@std@@QAEPAUWeaponInfo@@I@Z ENDP ; std::allocator<WeaponInfo>::allocate
_TEXT	ENDS
PUBLIC	?max_size@?$vector@UForceInfo@@V?$allocator@UForceInfo@@@std@@@std@@QBEIXZ ; std::vector<ForceInfo,std::allocator<ForceInfo> >::max_size
; Function compile flags: /Ogsp
; File c:\program files (x86)\microsoft visual studio 10.0\vc\include\vector
;	COMDAT ?max_size@?$vector@UForceInfo@@V?$allocator@UForceInfo@@@std@@@std@@QBEIXZ
_TEXT	SEGMENT
?max_size@?$vector@UForceInfo@@V?$allocator@UForceInfo@@@std@@@std@@QBEIXZ PROC ; std::vector<ForceInfo,std::allocator<ForceInfo> >::max_size, COMDAT
; _this$ = ecx

; 884  : 		return (this->_Alval.max_size());

  00000	b8 55 55 55 15	 mov	 eax, 357913941		; 15555555H

; 885  : 		}

  00005	c3		 ret	 0
?max_size@?$vector@UForceInfo@@V?$allocator@UForceInfo@@@std@@@std@@QBEIXZ ENDP ; std::vector<ForceInfo,std::allocator<ForceInfo> >::max_size
_TEXT	ENDS
PUBLIC	?allocate@?$allocator@UForceInfo@@@std@@QAEPAUForceInfo@@I@Z ; std::allocator<ForceInfo>::allocate
; Function compile flags: /Ogsp
; File c:\program files (x86)\microsoft visual studio 10.0\vc\include\xmemory
;	COMDAT ?allocate@?$allocator@UForceInfo@@@std@@QAEPAUForceInfo@@I@Z
_TEXT	SEGMENT
__Count$ = 8						; size = 4
?allocate@?$allocator@UForceInfo@@@std@@QAEPAUForceInfo@@I@Z PROC ; std::allocator<ForceInfo>::allocate, COMDAT
; _this$ = ecx

; 186  : 		{	// allocate array of _Count elements

  00000	55		 push	 ebp
  00001	8b ec		 mov	 ebp, esp

; 187  : 		return (_Allocate(_Count, (pointer)0));

  00003	6a 00		 push	 0
  00005	ff 75 08	 push	 DWORD PTR __Count$[ebp]
  00008	e8 00 00 00 00	 call	 ??$_Allocate@UForceInfo@@@std@@YAPAUForceInfo@@IPAU1@@Z ; std::_Allocate<ForceInfo>
  0000d	59		 pop	 ecx
  0000e	59		 pop	 ecx

; 188  : 		}

  0000f	5d		 pop	 ebp
  00010	c2 04 00	 ret	 4
?allocate@?$allocator@UForceInfo@@@std@@QAEPAUForceInfo@@I@Z ENDP ; std::allocator<ForceInfo>::allocate
_TEXT	ENDS
PUBLIC	??8?$_Vector_const_iterator@V?$_Vector_val@UWeaponInfo@@V?$allocator@UWeaponInfo@@@std@@@std@@@std@@QBE_NABV01@@Z ; std::_Vector_const_iterator<std::_Vector_val<WeaponInfo,std::allocator<WeaponInfo> > >::operator==
; Function compile flags: /Ogsp
; File c:\program files (x86)\microsoft visual studio 10.0\vc\include\vector
;	COMDAT ??8?$_Vector_const_iterator@V?$_Vector_val@UWeaponInfo@@V?$allocator@UWeaponInfo@@@std@@@std@@@std@@QBE_NABV01@@Z
_TEXT	SEGMENT
__Right$ = 8						; size = 4
??8?$_Vector_const_iterator@V?$_Vector_val@UWeaponInfo@@V?$allocator@UWeaponInfo@@@std@@@std@@@std@@QBE_NABV01@@Z PROC ; std::_Vector_const_iterator<std::_Vector_val<WeaponInfo,std::allocator<WeaponInfo> > >::operator==, COMDAT
; _this$ = ecx

; 201  : 		{	// test for iterator equality

  00000	55		 push	 ebp
  00001	8b ec		 mov	 ebp, esp

; 202  : 		_Compat(_Right);
; 203  : 		return (this->_Ptr == _Right._Ptr);

  00003	8b 01		 mov	 eax, DWORD PTR [ecx]
  00005	8b 4d 08	 mov	 ecx, DWORD PTR __Right$[ebp]
  00008	2b 01		 sub	 eax, DWORD PTR [ecx]
  0000a	f7 d8		 neg	 eax
  0000c	1b c0		 sbb	 eax, eax
  0000e	40		 inc	 eax

; 204  : 		}

  0000f	5d		 pop	 ebp
  00010	c2 04 00	 ret	 4
??8?$_Vector_const_iterator@V?$_Vector_val@UWeaponInfo@@V?$allocator@UWeaponInfo@@@std@@@std@@@std@@QBE_NABV01@@Z ENDP ; std::_Vector_const_iterator<std::_Vector_val<WeaponInfo,std::allocator<WeaponInfo> > >::operator==
_TEXT	ENDS
PUBLIC	??8?$_Vector_const_iterator@V?$_Vector_val@UForceInfo@@V?$allocator@UForceInfo@@@std@@@std@@@std@@QBE_NABV01@@Z ; std::_Vector_const_iterator<std::_Vector_val<ForceInfo,std::allocator<ForceInfo> > >::operator==
; Function compile flags: /Ogsp
;	COMDAT ??8?$_Vector_const_iterator@V?$_Vector_val@UForceInfo@@V?$allocator@UForceInfo@@@std@@@std@@@std@@QBE_NABV01@@Z
_TEXT	SEGMENT
__Right$ = 8						; size = 4
??8?$_Vector_const_iterator@V?$_Vector_val@UForceInfo@@V?$allocator@UForceInfo@@@std@@@std@@@std@@QBE_NABV01@@Z PROC ; std::_Vector_const_iterator<std::_Vector_val<ForceInfo,std::allocator<ForceInfo> > >::operator==, COMDAT
; _this$ = ecx

; 201  : 		{	// test for iterator equality

  00000	55		 push	 ebp
  00001	8b ec		 mov	 ebp, esp

; 202  : 		_Compat(_Right);
; 203  : 		return (this->_Ptr == _Right._Ptr);

  00003	8b 01		 mov	 eax, DWORD PTR [ecx]
  00005	8b 4d 08	 mov	 ecx, DWORD PTR __Right$[ebp]
  00008	2b 01		 sub	 eax, DWORD PTR [ecx]
  0000a	f7 d8		 neg	 eax
  0000c	1b c0		 sbb	 eax, eax
  0000e	40		 inc	 eax

; 204  : 		}

  0000f	5d		 pop	 ebp
  00010	c2 04 00	 ret	 4
??8?$_Vector_const_iterator@V?$_Vector_val@UForceInfo@@V?$allocator@UForceInfo@@@std@@@std@@@std@@QBE_NABV01@@Z ENDP ; std::_Vector_const_iterator<std::_Vector_val<ForceInfo,std::allocator<ForceInfo> > >::operator==
_TEXT	ENDS
PUBLIC	?destroy@?$allocator@UForceInfo@@@std@@QAEXPAUForceInfo@@@Z ; std::allocator<ForceInfo>::destroy
; Function compile flags: /Ogsp
; File c:\program files (x86)\microsoft visual studio 10.0\vc\include\xmemory
;	COMDAT ?destroy@?$allocator@UForceInfo@@@std@@QAEXPAUForceInfo@@@Z
_TEXT	SEGMENT
__Ptr$ = 8						; size = 4
?destroy@?$allocator@UForceInfo@@@std@@QAEXPAUForceInfo@@@Z PROC ; std::allocator<ForceInfo>::destroy, COMDAT
; _this$ = ecx

; 213  : 		_Destroy(_Ptr);
; 214  : 		}

  00000	c2 04 00	 ret	 4
?destroy@?$allocator@UForceInfo@@@std@@QAEXPAUForceInfo@@@Z ENDP ; std::allocator<ForceInfo>::destroy
_TEXT	ENDS
PUBLIC	??$_Destroy@VioHashString@@@std@@YAXPAVioHashString@@@Z ; std::_Destroy<ioHashString>
; Function compile flags: /Ogsp
;	COMDAT ??$_Destroy@VioHashString@@@std@@YAXPAVioHashString@@@Z
_TEXT	SEGMENT
__Ptr$ = 8						; size = 4
??$_Destroy@VioHashString@@@std@@YAXPAVioHashString@@@Z PROC ; std::_Destroy<ioHashString>, COMDAT

; 62   : 	{	// destroy object at _Ptr

  00000	55		 push	 ebp
  00001	8b ec		 mov	 ebp, esp

; 63   : 	_Ptr->~_Ty();

  00003	8b 4d 08	 mov	 ecx, DWORD PTR __Ptr$[ebp]

; 64   : 	}

  00006	5d		 pop	 ebp

; 63   : 	_Ptr->~_Ty();

  00007	ff 25 00 00 00
	00		 jmp	 DWORD PTR __imp_??1ioHashString@@QAE@XZ
??$_Destroy@VioHashString@@@std@@YAXPAVioHashString@@@Z ENDP ; std::_Destroy<ioHashString>
_TEXT	ENDS
PUBLIC	??$_Destroy@UWeaponInfo@@@std@@YAXPAUWeaponInfo@@@Z ; std::_Destroy<WeaponInfo>
; Function compile flags: /Ogsp
;	COMDAT ??$_Destroy@UWeaponInfo@@@std@@YAXPAUWeaponInfo@@@Z
_TEXT	SEGMENT
__Ptr$ = 8						; size = 4
??$_Destroy@UWeaponInfo@@@std@@YAXPAUWeaponInfo@@@Z PROC ; std::_Destroy<WeaponInfo>, COMDAT

; 62   : 	{	// destroy object at _Ptr

  00000	55		 push	 ebp
  00001	8b ec		 mov	 ebp, esp

; 63   : 	_Ptr->~_Ty();

  00003	8b 4d 08	 mov	 ecx, DWORD PTR __Ptr$[ebp]
  00006	83 c1 08	 add	 ecx, 8

; 64   : 	}

  00009	5d		 pop	 ebp

; 63   : 	_Ptr->~_Ty();

  0000a	ff 25 00 00 00
	00		 jmp	 DWORD PTR __imp_??1ioHashString@@QAE@XZ
??$_Destroy@UWeaponInfo@@@std@@YAXPAUWeaponInfo@@@Z ENDP ; std::_Destroy<WeaponInfo>
_TEXT	ENDS
PUBLIC	?construct@?$allocator@VioHashString@@@std@@QAEXPAVioHashString@@ABV3@@Z ; std::allocator<ioHashString>::construct
; Function compile flags: /Ogsp
;	COMDAT ?construct@?$allocator@VioHashString@@@std@@QAEXPAVioHashString@@ABV3@@Z
_TEXT	SEGMENT
__Ptr$ = 8						; size = 4
__Val$ = 12						; size = 4
?construct@?$allocator@VioHashString@@@std@@QAEXPAVioHashString@@ABV3@@Z PROC ; std::allocator<ioHashString>::construct, COMDAT
; _this$ = ecx

; 196  : 		{	// construct object at _Ptr with value _Val

  00000	55		 push	 ebp
  00001	8b ec		 mov	 ebp, esp

; 197  : 		_Construct(_Ptr, _Val);

  00003	ff 75 0c	 push	 DWORD PTR __Val$[ebp]
  00006	ff 75 08	 push	 DWORD PTR __Ptr$[ebp]
  00009	e8 00 00 00 00	 call	 ??$_Construct@VioHashString@@ABV1@@std@@YAXPAVioHashString@@ABV1@@Z ; std::_Construct<ioHashString,ioHashString const &>
  0000e	59		 pop	 ecx
  0000f	59		 pop	 ecx

; 198  : 		}

  00010	5d		 pop	 ebp
  00011	c2 08 00	 ret	 8
?construct@?$allocator@VioHashString@@@std@@QAEXPAVioHashString@@ABV3@@Z ENDP ; std::allocator<ioHashString>::construct
_TEXT	ENDS
PUBLIC	?OnSkillEnd@ioGrapplingBlowLoopSkill@@UAEXPAVioBaseChar@@@Z ; ioGrapplingBlowLoopSkill::OnSkillEnd
EXTRN	?RestoreSkillWeaponMesh@ioBaseChar@@QAE_NPAVioSkill@@ABVioHashString@@_N2@Z:PROC ; ioBaseChar::RestoreSkillWeaponMesh
EXTRN	?OnSkillEnd@ioAttackSkill@@UAEXPAVioBaseChar@@@Z:PROC ; ioAttackSkill::OnSkillEnd
; Function compile flags: /Ogsp
; File d:\lost saga for developer\youtube\tutorial\source\src\lsclient\iograpplingblowloopskill.cpp
;	COMDAT ?OnSkillEnd@ioGrapplingBlowLoopSkill@@UAEXPAVioBaseChar@@@Z
_TEXT	SEGMENT
_pChar$ = 8						; size = 4
?OnSkillEnd@ioGrapplingBlowLoopSkill@@UAEXPAVioBaseChar@@@Z PROC ; ioGrapplingBlowLoopSkill::OnSkillEnd, COMDAT
; _this$ = ecx

; 334  : {

  00000	55		 push	 ebp
  00001	8b ec		 mov	 ebp, esp
  00003	53		 push	 ebx
  00004	56		 push	 esi
  00005	57		 push	 edi

; 335  : 	ClearPreLoopBuff( pChar );

  00006	ff 75 08	 push	 DWORD PTR _pChar$[ebp]
  00009	8b f1		 mov	 esi, ecx
  0000b	e8 00 00 00 00	 call	 ?ClearPreLoopBuff@ioGrapplingBlowLoopSkill@@IAEXPAVioBaseChar@@@Z ; ioGrapplingBlowLoopSkill::ClearPreLoopBuff

; 336  : 
; 337  : 	ioAttackSkill::OnSkillEnd( pChar );

  00010	ff 75 08	 push	 DWORD PTR _pChar$[ebp]
  00013	8b ce		 mov	 ecx, esi
  00015	e8 00 00 00 00	 call	 ?OnSkillEnd@ioAttackSkill@@UAEXPAVioBaseChar@@@Z ; ioAttackSkill::OnSkillEnd

; 338  : 
; 339  : 	// 기본무기 장착
; 340  : 	if( m_bUseItemMesh )

  0001a	33 db		 xor	 ebx, ebx
  0001c	38 9e 08 0f 00
	00		 cmp	 BYTE PTR [esi+3848], bl
  00022	74 0b		 je	 SHORT $LN2@OnSkillEnd

; 341  : 	{
; 342  : 		pChar->ShowWeaponItemMesh( true );

  00024	8b 4d 08	 mov	 ecx, DWORD PTR _pChar$[ebp]
  00027	53		 push	 ebx
  00028	6a 01		 push	 1
  0002a	e8 00 00 00 00	 call	 ?ShowWeaponItemMesh@ioBaseChar@@QAEX_N0@Z ; ioBaseChar::ShowWeaponItemMesh
$LN2@OnSkillEnd:

; 343  : 	}
; 344  : 
; 345  : 	// 스킬 중간 동작에 사용된 메쉬들 제거
; 346  : 	m_bSetHandMesh = false;
; 347  : 	if( !m_HandMesh.IsEmpty() )

  0002f	8d be f8 0e 00
	00		 lea	 edi, DWORD PTR [esi+3832]
  00035	8b cf		 mov	 ecx, edi
  00037	88 9e 0a 0f 00
	00		 mov	 BYTE PTR [esi+3850], bl
  0003d	ff 15 00 00 00
	00		 call	 DWORD PTR __imp_?IsEmpty@ioHashString@@QBE_NXZ
  00043	84 c0		 test	 al, al
  00045	75 13		 jne	 SHORT $LN1@OnSkillEnd

; 348  : 		pChar->RestoreSkillWeaponMesh( this, m_HandMesh, m_bVisibleEquipMesh );

  00047	0f b6 86 09 0f
	00 00		 movzx	 eax, BYTE PTR [esi+3849]
  0004e	8b 4d 08	 mov	 ecx, DWORD PTR _pChar$[ebp]
  00051	53		 push	 ebx
  00052	50		 push	 eax
  00053	57		 push	 edi
  00054	56		 push	 esi
  00055	e8 00 00 00 00	 call	 ?RestoreSkillWeaponMesh@ioBaseChar@@QAE_NPAVioSkill@@ABVioHashString@@_N2@Z ; ioBaseChar::RestoreSkillWeaponMesh
$LN1@OnSkillEnd:

; 349  : 
; 350  : 	m_SkillState = SS_NONE;
; 351  : 	m_GrapplingTargetName.Clear();

  0005a	8d 8e 70 11 00
	00		 lea	 ecx, DWORD PTR [esi+4464]
  00060	89 9e fc 10 00
	00		 mov	 DWORD PTR [esi+4348], ebx
  00066	ff 15 00 00 00
	00		 call	 DWORD PTR __imp_?Clear@ioHashString@@QAEXXZ
  0006c	5f		 pop	 edi

; 352  : 
; 353  : 	m_dwSkillLoopStartTime = 0;

  0006d	89 9e 00 11 00
	00		 mov	 DWORD PTR [esi+4352], ebx

; 354  : 	m_dwSkillLoopEndTime = 0;

  00073	89 9e 04 11 00
	00		 mov	 DWORD PTR [esi+4356], ebx
  00079	5e		 pop	 esi
  0007a	5b		 pop	 ebx

; 355  : }

  0007b	5d		 pop	 ebp
  0007c	c2 04 00	 ret	 4
?OnSkillEnd@ioGrapplingBlowLoopSkill@@UAEXPAVioBaseChar@@@Z ENDP ; ioGrapplingBlowLoopSkill::OnSkillEnd
_TEXT	ENDS
PUBLIC	?AttackSkillFire@ioGrapplingBlowLoopSkill@@MAEXPAVioBaseChar@@@Z ; ioGrapplingBlowLoopSkill::AttackSkillFire
EXTRN	?ChangeSkillWeaponMesh@ioBaseChar@@QAE_NPAVioSkill@@ABVioHashString@@_N@Z:PROC ; ioBaseChar::ChangeSkillWeaponMesh
EXTRN	?AttackSkillFire@ioAttackSkill@@MAEXPAVioBaseChar@@@Z:PROC ; ioAttackSkill::AttackSkillFire
; Function compile flags: /Ogsp
;	COMDAT ?AttackSkillFire@ioGrapplingBlowLoopSkill@@MAEXPAVioBaseChar@@@Z
_TEXT	SEGMENT
_pChar$ = 8						; size = 4
?AttackSkillFire@ioGrapplingBlowLoopSkill@@MAEXPAVioBaseChar@@@Z PROC ; ioGrapplingBlowLoopSkill::AttackSkillFire, COMDAT
; _this$ = ecx

; 358  : {

  00000	55		 push	 ebp
  00001	8b ec		 mov	 ebp, esp
  00003	56		 push	 esi
  00004	57		 push	 edi

; 359  : 	ClearPreLoopBuff( pChar );

  00005	8b 7d 08	 mov	 edi, DWORD PTR _pChar$[ebp]
  00008	57		 push	 edi
  00009	8b f1		 mov	 esi, ecx
  0000b	e8 00 00 00 00	 call	 ?ClearPreLoopBuff@ioGrapplingBlowLoopSkill@@IAEXPAVioBaseChar@@@Z ; ioGrapplingBlowLoopSkill::ClearPreLoopBuff

; 360  : 
; 361  : 	ioAttackSkill::AttackSkillFire( pChar );

  00010	57		 push	 edi
  00011	8b ce		 mov	 ecx, esi
  00013	e8 00 00 00 00	 call	 ?AttackSkillFire@ioAttackSkill@@MAEXPAVioBaseChar@@@Z ; ioAttackSkill::AttackSkillFire

; 362  : 
; 363  : 	m_SkillState = SS_ACTION;
; 364  : 
; 365  : 	if( !pChar ) return;

  00018	33 c0		 xor	 eax, eax
  0001a	c7 86 fc 10 00
	00 02 00 00 00	 mov	 DWORD PTR [esi+4348], 2
  00024	3b f8		 cmp	 edi, eax
  00026	74 44		 je	 SHORT $LN1@AttackSkil

; 366  : 	ioPlayStage *pStage = pChar->GetCreator();
; 367  : 	if( !pStage ) return;

  00028	39 87 44 03 00
	00		 cmp	 DWORD PTR [edi+836], eax
  0002e	74 3c		 je	 SHORT $LN1@AttackSkil

; 368  : 
; 369  : 	// 사용 아이템 처리
; 370  : 	if( !m_bSetHandMesh && m_bUseItemMesh && !m_HandMesh.IsEmpty() )

  00030	38 86 0a 0f 00
	00		 cmp	 BYTE PTR [esi+3850], al
  00036	75 34		 jne	 SHORT $LN1@AttackSkil
  00038	38 86 08 0f 00
	00		 cmp	 BYTE PTR [esi+3848], al
  0003e	74 2c		 je	 SHORT $LN1@AttackSkil
  00040	53		 push	 ebx
  00041	8d 9e f8 0e 00
	00		 lea	 ebx, DWORD PTR [esi+3832]
  00047	8b cb		 mov	 ecx, ebx
  00049	ff 15 00 00 00
	00		 call	 DWORD PTR __imp_?IsEmpty@ioHashString@@QBE_NXZ
  0004f	84 c0		 test	 al, al
  00051	75 18		 jne	 SHORT $LN8@AttackSkil

; 371  : 	{
; 372  : 		pChar->ChangeSkillWeaponMesh( this, m_HandMesh, m_bVisibleEquipMesh );

  00053	0f b6 86 09 0f
	00 00		 movzx	 eax, BYTE PTR [esi+3849]
  0005a	50		 push	 eax
  0005b	53		 push	 ebx
  0005c	56		 push	 esi
  0005d	8b cf		 mov	 ecx, edi
  0005f	e8 00 00 00 00	 call	 ?ChangeSkillWeaponMesh@ioBaseChar@@QAE_NPAVioSkill@@ABVioHashString@@_N@Z ; ioBaseChar::ChangeSkillWeaponMesh

; 373  : 		m_bSetHandMesh = true;

  00064	c6 86 0a 0f 00
	00 01		 mov	 BYTE PTR [esi+3850], 1
$LN8@AttackSkil:
  0006b	5b		 pop	 ebx
$LN1@AttackSkil:
  0006c	5f		 pop	 edi
  0006d	5e		 pop	 esi

; 374  : 	}
; 375  : }

  0006e	5d		 pop	 ebp
  0006f	c2 04 00	 ret	 4
?AttackSkillFire@ioGrapplingBlowLoopSkill@@MAEXPAVioBaseChar@@@Z ENDP ; ioGrapplingBlowLoopSkill::AttackSkillFire
_TEXT	ENDS
PUBLIC	?SetSkillPreLoopState@ioGrapplingBlowLoopSkill@@IAEXPAVioBaseChar@@@Z ; ioGrapplingBlowLoopSkill::SetSkillPreLoopState
EXTRN	?AddNewBuff@ioBaseChar@@QAEPAVioBuff@@ABVioHashString@@00PAVioSkill@@_N@Z:PROC ; ioBaseChar::AddNewBuff
EXTRN	__imp_??0ioHashString@@QAE@XZ:PROC
EXTRN	?HasBuff@ioBaseChar@@QBE_NH@Z:PROC		; ioBaseChar::HasBuff
EXTRN	?IsHasCrown@ioBaseChar@@QBE_NXZ:PROC		; ioBaseChar::IsHasCrown
;	COMDAT xdata$x
; File d:\lost saga for developer\youtube\tutorial\source\src\lsclient\iobasechar.h
xdata$x	SEGMENT
__unwindtable$?SetSkillPreLoopState@ioGrapplingBlowLoopSkill@@IAEXPAVioBaseChar@@@Z DD 0ffffffffH
	DD	FLAT:__unwindfunclet$?SetSkillPreLoopState@ioGrapplingBlowLoopSkill@@IAEXPAVioBaseChar@@@Z$0
	DD	00H
	DD	FLAT:__unwindfunclet$?SetSkillPreLoopState@ioGrapplingBlowLoopSkill@@IAEXPAVioBaseChar@@@Z$1
__ehfuncinfo$?SetSkillPreLoopState@ioGrapplingBlowLoopSkill@@IAEXPAVioBaseChar@@@Z DD 019930522H
	DD	02H
	DD	FLAT:__unwindtable$?SetSkillPreLoopState@ioGrapplingBlowLoopSkill@@IAEXPAVioBaseChar@@@Z
	DD	2 DUP(00H)
	DD	2 DUP(00H)
	DD	00H
	DD	01H
; Function compile flags: /Ogsp
; File d:\lost saga for developer\youtube\tutorial\source\src\lsclient\iograpplingblowloopskill.cpp
xdata$x	ENDS
;	COMDAT ?SetSkillPreLoopState@ioGrapplingBlowLoopSkill@@IAEXPAVioBaseChar@@@Z
_TEXT	SEGMENT
_szItemName$551129 = -52				; size = 16
_szBuffName$551127 = -36				; size = 16
tv329 = -20						; size = 4
tv324 = -20						; size = 4
tv322 = -20						; size = 4
tv350 = -16						; size = 4
tv344 = -16						; size = 4
tv339 = -16						; size = 4
tv326 = -16						; size = 4
tv138 = -16						; size = 4
_fAniRate$ = -16					; size = 4
__$EHRec$ = -12						; size = 12
tv349 = 8						; size = 4
_pChar$ = 8						; size = 4
_value$557698 = 11					; size = 1
?SetSkillPreLoopState@ioGrapplingBlowLoopSkill@@IAEXPAVioBaseChar@@@Z PROC ; ioGrapplingBlowLoopSkill::SetSkillPreLoopState, COMDAT
; _this$ = ecx

; 378  : {

  00000	6a 28		 push	 40			; 00000028H
  00002	b8 00 00 00 00	 mov	 eax, __ehhandler$?SetSkillPreLoopState@ioGrapplingBlowLoopSkill@@IAEXPAVioBaseChar@@@Z
  00007	e8 00 00 00 00	 call	 __EH_prolog3
  0000c	8b f1		 mov	 esi, ecx

; 379  : 	if( !pChar ) return;

  0000e	8b 45 08	 mov	 eax, DWORD PTR _pChar$[ebp]
  00011	85 c0		 test	 eax, eax
  00013	0f 84 f1 01 00
	00		 je	 $LN3@SetSkillPr

; 380  : 	ioEntityGroup *pGrp = pChar->GetGroup();

  00019	8b 78 04	 mov	 edi, DWORD PTR [eax+4]

; 381  : 	if( !pGrp ) return;

  0001c	85 ff		 test	 edi, edi
  0001e	0f 84 e6 01 00
	00		 je	 $LN3@SetSkillPr

; 382  : 
; 383  : 	m_dwPreLoopStartTime = FRAMEGETTIME();

  00024	ff 15 00 00 00
	00		 call	 DWORD PTR __imp_?GetSingleton@ioFrameTimer@@SAAAV1@XZ
  0002a	8b c8		 mov	 ecx, eax
  0002c	ff 15 00 00 00
	00		 call	 DWORD PTR __imp_?GetLoopSec@ioFrameTimer@@QBEKXZ

; 384  : 	m_SkillState = SS_PRE_LOOP;

  00032	33 db		 xor	 ebx, ebx
  00034	43		 inc	 ebx
  00035	89 86 30 12 00
	00		 mov	 DWORD PTR [esi+4656], eax
  0003b	89 9e fc 10 00
	00		 mov	 DWORD PTR [esi+4348], ebx

; 385  : 
; 386  : 	pGrp->ClearAllActionAni( FLOAT100, true );

  00041	b8 64 00 00 00	 mov	 eax, 100		; 00000064H
  00046	89 45 f0	 mov	 DWORD PTR tv350[ebp], eax
  00049	db 45 f0	 fild	 DWORD PTR tv350[ebp]
  0004c	53		 push	 ebx
  0004d	85 c0		 test	 eax, eax
  0004f	79 06		 jns	 SHORT $LN48@SetSkillPr
  00051	d8 05 00 00 00
	00		 fadd	 DWORD PTR __real@4f800000
$LN48@SetSkillPr:
  00057	51		 push	 ecx
  00058	8b cf		 mov	 ecx, edi
  0005a	d9 1c 24	 fstp	 DWORD PTR [esp]
  0005d	ff 15 00 00 00
	00		 call	 DWORD PTR __imp_?ClearAllActionAni@ioEntityGroup@@QAEXM_N@Z

; 387  : 	pGrp->ClearAllLoopAni( FLOAT100, true );

  00063	b8 64 00 00 00	 mov	 eax, 100		; 00000064H
  00068	89 45 f0	 mov	 DWORD PTR tv344[ebp], eax
  0006b	db 45 f0	 fild	 DWORD PTR tv344[ebp]
  0006e	53		 push	 ebx
  0006f	85 c0		 test	 eax, eax
  00071	79 06		 jns	 SHORT $LN49@SetSkillPr
  00073	d8 05 00 00 00
	00		 fadd	 DWORD PTR __real@4f800000
$LN49@SetSkillPr:
  00079	51		 push	 ecx
  0007a	8b cf		 mov	 ecx, edi
  0007c	d9 1c 24	 fstp	 DWORD PTR [esp]
  0007f	ff 15 00 00 00
	00		 call	 DWORD PTR __imp_?ClearAllLoopAni@ioEntityGroup@@QAEXM_N@Z

; 388  : 
; 389  : 	float fAniRate = FLOAT1;

  00085	b8 01 00 00 00	 mov	 eax, 1
  0008a	89 45 f0	 mov	 DWORD PTR tv339[ebp], eax
  0008d	db 45 f0	 fild	 DWORD PTR tv339[ebp]
  00090	85 c0		 test	 eax, eax
  00092	79 06		 jns	 SHORT $LN50@SetSkillPr
  00094	d8 05 00 00 00
	00		 fadd	 DWORD PTR __real@4f800000
$LN50@SetSkillPr:

; 390  : 	if( m_fPreLoopMotionRate > 0.0f )

  0009a	f3 0f 10 86 2c
	12 00 00	 movss	 xmm0, DWORD PTR [esi+4652]
  000a2	d9 5d f0	 fstp	 DWORD PTR _fAniRate$[ebp]
  000a5	0f 2f 05 00 00
	00 00		 comiss	 xmm0, DWORD PTR __real@00000000
  000ac	76 05		 jbe	 SHORT $LN10@SetSkillPr

; 391  : 		fAniRate = m_fPreLoopMotionRate;

  000ae	f3 0f 11 45 f0	 movss	 DWORD PTR _fAniRate$[ebp], xmm0
$LN10@SetSkillPr:

; 392  : 
; 393  : 	int iAniID = pGrp->GetAnimationIdx( m_PreLoopMotion );

  000b3	8d 86 1c 12 00
	00		 lea	 eax, DWORD PTR [esi+4636]
  000b9	50		 push	 eax
  000ba	8b cf		 mov	 ecx, edi
  000bc	ff 15 00 00 00
	00		 call	 DWORD PTR __imp_?GetAnimationIdx@ioEntityGroup@@QAEHABVioHashString@@@Z
  000c2	8b c8		 mov	 ecx, eax

; 394  : 	pGrp->SetLoopAni( iAniID, FLOAT100, FLOAT1, FLOAT1/fAniRate );

  000c4	b8 01 00 00 00	 mov	 eax, 1
  000c9	8b d0		 mov	 edx, eax
  000cb	b8 01 00 00 00	 mov	 eax, 1
  000d0	8b d8		 mov	 ebx, eax
  000d2	b8 64 00 00 00	 mov	 eax, 100		; 00000064H
  000d7	0f 57 c0	 xorps	 xmm0, xmm0
  000da	83 ec 10	 sub	 esp, 16			; 00000010H
  000dd	89 55 ec	 mov	 DWORD PTR tv329[ebp], edx
  000e0	db 45 ec	 fild	 DWORD PTR tv329[ebp]
  000e3	f3 0f 11 44 24
	0c		 movss	 DWORD PTR [esp+12], xmm0
  000e9	85 d2		 test	 edx, edx
  000eb	79 06		 jns	 SHORT $LN51@SetSkillPr
  000ed	d8 05 00 00 00
	00		 fadd	 DWORD PTR __real@4f800000
$LN51@SetSkillPr:
  000f3	d8 75 f0	 fdiv	 DWORD PTR _fAniRate$[ebp]
  000f6	89 5d ec	 mov	 DWORD PTR tv324[ebp], ebx
  000f9	d9 5d f0	 fstp	 DWORD PTR tv326[ebp]
  000fc	d9 45 f0	 fld	 DWORD PTR tv326[ebp]
  000ff	d9 5c 24 08	 fstp	 DWORD PTR [esp+8]
  00103	db 45 ec	 fild	 DWORD PTR tv324[ebp]
  00106	85 db		 test	 ebx, ebx
  00108	79 06		 jns	 SHORT $LN52@SetSkillPr
  0010a	d8 05 00 00 00
	00		 fadd	 DWORD PTR __real@4f800000
$LN52@SetSkillPr:
  00110	89 45 ec	 mov	 DWORD PTR tv322[ebp], eax
  00113	d9 5c 24 04	 fstp	 DWORD PTR [esp+4]
  00117	db 45 ec	 fild	 DWORD PTR tv322[ebp]
  0011a	85 c0		 test	 eax, eax
  0011c	79 06		 jns	 SHORT $LN53@SetSkillPr
  0011e	d8 05 00 00 00
	00		 fadd	 DWORD PTR __real@4f800000
$LN53@SetSkillPr:
  00124	d9 1c 24	 fstp	 DWORD PTR [esp]
  00127	51		 push	 ecx
  00128	8b cf		 mov	 ecx, edi
  0012a	ff 15 00 00 00
	00		 call	 DWORD PTR __imp_?SetLoopAni@ioEntityGroup@@QAE_NHMMMM@Z

; 395  : 
; 396  : 	//
; 397  : 	bool bEnableBuff = true;
; 398  : 	if( pChar->IsHasCrown() && m_bDisableKingSkill )

  00130	8b 5d 08	 mov	 ebx, DWORD PTR _pChar$[ebp]
  00133	8b cb		 mov	 ecx, ebx
  00135	e8 00 00 00 00	 call	 ?IsHasCrown@ioBaseChar@@QBE_NXZ ; ioBaseChar::IsHasCrown
  0013a	84 c0		 test	 al, al
  0013c	74 19		 je	 SHORT $LN9@SetSkillPr
  0013e	8d 45 0b	 lea	 eax, DWORD PTR _value$557698[ebp]
  00141	50		 push	 eax
  00142	8d 8e c4 07 00
	00		 lea	 ecx, DWORD PTR [esi+1988]
  00148	e8 00 00 00 00	 call	 ?DecryptValueToPool@?$CEncrypt@_N@@QAEXPA_N@Z ; CEncrypt<bool>::DecryptValueToPool
  0014d	80 7d 0b 00	 cmp	 BYTE PTR _value$557698[ebp], 0

; 399  : 		bEnableBuff = false;

  00151	0f 85 b3 00 00
	00		 jne	 $LN3@SetSkillPr
$LN9@SetSkillPr:

; 400  : 	else if( pChar->HasBuff( BT_ABSOLUTE_PROTECTION ) )

  00157	6a 1d		 push	 29			; 0000001dH
  00159	8b cb		 mov	 ecx, ebx
  0015b	e8 00 00 00 00	 call	 ?HasBuff@ioBaseChar@@QBE_NH@Z ; ioBaseChar::HasBuff
  00160	84 c0		 test	 al, al

; 401  : 		bEnableBuff = false;
; 402  : 
; 403  : 	if( bEnableBuff )

  00162	0f 85 a2 00 00
	00		 jne	 $LN3@SetSkillPr

; 404  : 	{
; 405  : 		int iCnt = m_vPreLoopBuffList.size();

  00168	8b 86 3c 12 00
	00		 mov	 eax, DWORD PTR [esi+4668]
  0016e	2b 86 38 12 00
	00		 sub	 eax, DWORD PTR [esi+4664]
  00174	c1 f8 04	 sar	 eax, 4

; 406  : 		for( int i=0; i < iCnt; ++i )

  00177	85 c0		 test	 eax, eax
  00179	0f 8e 8b 00 00
	00		 jle	 $LN3@SetSkillPr

; 404  : 	{
; 405  : 		int iCnt = m_vPreLoopBuffList.size();

  0017f	83 65 08 00	 and	 DWORD PTR tv349[ebp], 0
  00183	8b 3d 00 00 00
	00		 mov	 edi, DWORD PTR __imp_??1ioHashString@@QAE@XZ
  00189	89 45 f0	 mov	 DWORD PTR tv138[ebp], eax
$LN5@SetSkillPr:

; 406  : 		for( int i=0; i < iCnt; ++i )

  0018c	8b 86 38 12 00
	00		 mov	 eax, DWORD PTR [esi+4664]
  00192	03 45 08	 add	 eax, DWORD PTR tv349[ebp]

; 407  : 		{
; 408  : 			ioHashString szBuffName = m_vPreLoopBuffList[i];

  00195	8d 4d dc	 lea	 ecx, DWORD PTR _szBuffName$551127[ebp]
  00198	50		 push	 eax
  00199	ff 15 00 00 00
	00		 call	 DWORD PTR __imp_??0ioHashString@@QAE@ABV0@@Z
  0019f	83 65 fc 00	 and	 DWORD PTR __$EHRec$[ebp+8], 0

; 409  : 			if( szBuffName.IsEmpty() )

  001a3	8d 4d dc	 lea	 ecx, DWORD PTR _szBuffName$551127[ebp]
  001a6	ff 15 00 00 00
	00		 call	 DWORD PTR __imp_?IsEmpty@ioHashString@@QBE_NXZ
  001ac	84 c0		 test	 al, al

; 410  : 				continue;

  001ae	75 48		 jne	 SHORT $LN54@SetSkillPr

; 411  : 
; 412  : 			ioHashString szItemName;

  001b0	8d 4d cc	 lea	 ecx, DWORD PTR _szItemName$551129[ebp]
  001b3	ff 15 00 00 00
	00		 call	 DWORD PTR __imp_??0ioHashString@@QAE@XZ

; 413  : 			ioItem *pOwnerItem = GetOwnerItem();

  001b9	8b 86 a4 02 00
	00		 mov	 eax, DWORD PTR [esi+676]
  001bf	c6 45 fc 01	 mov	 BYTE PTR __$EHRec$[ebp+8], 1

; 414  : 			if( pOwnerItem )

  001c3	85 c0		 test	 eax, eax
  001c5	74 0f		 je	 SHORT $LN1@SetSkillPr

; 415  : 				szItemName = pOwnerItem->GetName();

  001c7	05 34 01 00 00	 add	 eax, 308		; 00000134H
  001cc	50		 push	 eax
  001cd	8d 4d cc	 lea	 ecx, DWORD PTR _szItemName$551129[ebp]
  001d0	ff 15 00 00 00
	00		 call	 DWORD PTR __imp_??4ioHashString@@QAEAAV0@ABV0@@Z
$LN1@SetSkillPr:

; 416  : 
; 417  : 			pChar->AddNewBuff( szBuffName, pChar->GetCharName(), szItemName, this );

  001d6	6a 00		 push	 0
  001d8	56		 push	 esi
  001d9	8d 45 cc	 lea	 eax, DWORD PTR _szItemName$551129[ebp]
  001dc	50		 push	 eax
  001dd	8d 83 d4 02 00
	00		 lea	 eax, DWORD PTR [ebx+724]
  001e3	50		 push	 eax
  001e4	8d 45 dc	 lea	 eax, DWORD PTR _szBuffName$551127[ebp]
  001e7	50		 push	 eax
  001e8	8b cb		 mov	 ecx, ebx
  001ea	e8 00 00 00 00	 call	 ?AddNewBuff@ioBaseChar@@QAEPAVioBuff@@ABVioHashString@@00PAVioSkill@@_N@Z ; ioBaseChar::AddNewBuff

; 418  : 		}

  001ef	8d 4d cc	 lea	 ecx, DWORD PTR _szItemName$551129[ebp]
  001f2	c6 45 fc 00	 mov	 BYTE PTR __$EHRec$[ebp+8], 0
  001f6	ff d7		 call	 edi
$LN54@SetSkillPr:
  001f8	83 4d fc ff	 or	 DWORD PTR __$EHRec$[ebp+8], -1
  001fc	8d 4d dc	 lea	 ecx, DWORD PTR _szBuffName$551127[ebp]
  001ff	ff d7		 call	 edi
  00201	83 45 08 10	 add	 DWORD PTR tv349[ebp], 16 ; 00000010H
  00205	ff 4d f0	 dec	 DWORD PTR tv138[ebp]
  00208	75 82		 jne	 SHORT $LN5@SetSkillPr
$LN3@SetSkillPr:

; 419  : 	}
; 420  : }

  0020a	e8 00 00 00 00	 call	 __EH_epilog3
  0020f	c2 04 00	 ret	 4
_TEXT	ENDS
;	COMDAT text$x
text$x	SEGMENT
__unwindfunclet$?SetSkillPreLoopState@ioGrapplingBlowLoopSkill@@IAEXPAVioBaseChar@@@Z$0:
  00000	8d 4d dc	 lea	 ecx, DWORD PTR _szBuffName$551127[ebp]
  00003	ff 25 00 00 00
	00		 jmp	 DWORD PTR __imp_??1ioHashString@@QAE@XZ
__unwindfunclet$?SetSkillPreLoopState@ioGrapplingBlowLoopSkill@@IAEXPAVioBaseChar@@@Z$1:
  00009	8d 4d cc	 lea	 ecx, DWORD PTR _szItemName$551129[ebp]
  0000c	ff 25 00 00 00
	00		 jmp	 DWORD PTR __imp_??1ioHashString@@QAE@XZ
__ehhandler$?SetSkillPreLoopState@ioGrapplingBlowLoopSkill@@IAEXPAVioBaseChar@@@Z:
  00012	8b 54 24 08	 mov	 edx, DWORD PTR [esp+8]
  00016	8d 42 0c	 lea	 eax, DWORD PTR [edx+12]
  00019	8b 4a c8	 mov	 ecx, DWORD PTR [edx-56]
  0001c	33 c8		 xor	 ecx, eax
  0001e	e8 00 00 00 00	 call	 @__security_check_cookie@4
  00023	b8 00 00 00 00	 mov	 eax, OFFSET __ehfuncinfo$?SetSkillPreLoopState@ioGrapplingBlowLoopSkill@@IAEXPAVioBaseChar@@@Z
  00028	e9 00 00 00 00	 jmp	 ___CxxFrameHandler3
text$x	ENDS
?SetSkillPreLoopState@ioGrapplingBlowLoopSkill@@IAEXPAVioBaseChar@@@Z ENDP ; ioGrapplingBlowLoopSkill::SetSkillPreLoopState
PUBLIC	_pChar$GSCopy$
PUBLIC	?SetSkillLandAttackState@ioGrapplingBlowLoopSkill@@IAEXPAVioBaseChar@@H@Z ; ioGrapplingBlowLoopSkill::SetSkillLandAttackState
EXTRN	?RefreshFireTimeListWithBase@ioBaseChar@@QAEXKHABV?$vector@UWeaponInfo@@V?$allocator@UWeaponInfo@@@std@@@std@@W4FireTimeType@@MK_N@Z:PROC ; ioBaseChar::RefreshFireTimeListWithBase
;	COMDAT xdata$x
; File d:\lost saga for developer\youtube\tutorial\source\src\lsclient\stringprotect.h
xdata$x	SEGMENT
__unwindtable$?SetSkillLandAttackState@ioGrapplingBlowLoopSkill@@IAEXPAVioBaseChar@@H@Z DD 0ffffffffH
	DD	FLAT:__unwindfunclet$?SetSkillLandAttackState@ioGrapplingBlowLoopSkill@@IAEXPAVioBaseChar@@H@Z$0
	DD	0ffffffffH
	DD	FLAT:__unwindfunclet$?SetSkillLandAttackState@ioGrapplingBlowLoopSkill@@IAEXPAVioBaseChar@@H@Z$1
__ehfuncinfo$?SetSkillLandAttackState@ioGrapplingBlowLoopSkill@@IAEXPAVioBaseChar@@H@Z DD 019930522H
	DD	02H
	DD	FLAT:__unwindtable$?SetSkillLandAttackState@ioGrapplingBlowLoopSkill@@IAEXPAVioBaseChar@@H@Z
	DD	2 DUP(00H)
	DD	2 DUP(00H)
	DD	00H
	DD	01H
; Function compile flags: /Ogsp
; File d:\lost saga for developer\youtube\tutorial\source\src\lsclient\iograpplingblowloopskill.cpp
xdata$x	ENDS
;	COMDAT ?SetSkillLandAttackState@ioGrapplingBlowLoopSkill@@IAEXPAVioBaseChar@@H@Z
_TEXT	SEGMENT
$T557958 = -112						; size = 16
$T557797 = -96						; size = 16
_dwCurTime$ = -80					; size = 4
_pGrp$ = -76						; size = 4
tv2115 = -72						; size = 4
tv2112 = -72						; size = 4
tv2110 = -72						; size = 4
_fAniRate$ = -68					; size = 4
_iAniID$ = -64						; size = 4
tv2075 = -60						; size = 4
$T557957 = -60						; size = 4
_pChar$GSCopy$ = -60					; size = 4
$T557796 = -60						; size = 4
tv2130 = -56						; size = 4
tv2125 = -56						; size = 4
tv2108 = -56						; size = 4
tv2106 = -56						; size = 4
tv2087 = -56						; size = 4
tv2063 = -56						; size = 4
_value$557776 = -56					; size = 4
$T557768 = -56						; size = 4
_szEncEventType$557810 = -52				; size = 13
_szEncEventType$557971 = -32				; size = 12
__$EHRec$ = -12						; size = 12
_pChar$ = 8						; size = 4
_nJumpCnt$ = 12						; size = 4
?SetSkillLandAttackState@ioGrapplingBlowLoopSkill@@IAEXPAVioBaseChar@@H@Z PROC ; ioGrapplingBlowLoopSkill::SetSkillLandAttackState, COMDAT
; _this$ = ecx

; 519  : {

  00000	6a 64		 push	 100			; 00000064H
  00002	b8 00 00 00 00	 mov	 eax, __ehhandler$?SetSkillLandAttackState@ioGrapplingBlowLoopSkill@@IAEXPAVioBaseChar@@H@Z
  00007	e8 00 00 00 00	 call	 __EH_prolog3_GS
  0000c	8b 45 0c	 mov	 eax, DWORD PTR _nJumpCnt$[ebp]
  0000f	8b f1		 mov	 esi, ecx
  00011	8b 4d 08	 mov	 ecx, DWORD PTR _pChar$[ebp]

; 526  : 		return;
; 527  : 
; 528  : 	const StGrapInfo& JumpInfo = m_vGrapJumpInfo[ nJumpCnt ];

  00014	89 4d c4	 mov	 DWORD PTR _pChar$GSCopy$[ebp], ecx
  00017	85 c9		 test	 ecx, ecx
  00019	0f 84 e4 02 00
	00		 je	 $LN4@SetSkillLa

; 520  : 	if( !pChar ) return;
; 521  : 
; 522  : 	ioEntityGroup *pGrp = pChar->GetGroup();

  0001f	8b 59 04	 mov	 ebx, DWORD PTR [ecx+4]
  00022	89 5d b4	 mov	 DWORD PTR _pGrp$[ebp], ebx

; 523  : 	if( !pGrp ) return;

  00025	85 db		 test	 ebx, ebx
  00027	0f 84 d6 02 00
	00		 je	 $LN4@SetSkillLa

; 524  : 
; 525  : 	if( (int)m_vGrapJumpInfo.size() <= nJumpCnt )

  0002d	8b 96 f0 10 00
	00		 mov	 edx, DWORD PTR [esi+4336]
  00033	2b 96 ec 10 00
	00		 sub	 edx, DWORD PTR [esi+4332]
  00039	c1 fa 07	 sar	 edx, 7
  0003c	3b d0		 cmp	 edx, eax
  0003e	0f 8e bf 02 00
	00		 jle	 $LN4@SetSkillLa

; 526  : 		return;
; 527  : 
; 528  : 	const StGrapInfo& JumpInfo = m_vGrapJumpInfo[ nJumpCnt ];

  00044	c1 e0 07	 shl	 eax, 7
  00047	03 86 ec 10 00
	00		 add	 eax, DWORD PTR [esi+4332]
  0004d	8b f8		 mov	 edi, eax

; 529  : 
; 530  : 	DWORD dwCurTime = FRAMEGETTIME();

  0004f	ff 15 00 00 00
	00		 call	 DWORD PTR __imp_?GetSingleton@ioFrameTimer@@SAAAV1@XZ
  00055	8b c8		 mov	 ecx, eax
  00057	ff 15 00 00 00
	00		 call	 DWORD PTR __imp_?GetLoopSec@ioFrameTimer@@QBEKXZ
  0005d	89 45 b0	 mov	 DWORD PTR _dwCurTime$[ebp], eax

; 531  : 
; 532  : 	pGrp->ClearAllActionAni( FLOAT100, true );

  00060	b8 64 00 00 00	 mov	 eax, 100		; 00000064H
  00065	89 45 c8	 mov	 DWORD PTR tv2130[ebp], eax
  00068	db 45 c8	 fild	 DWORD PTR tv2130[ebp]
  0006b	6a 01		 push	 1
  0006d	85 c0		 test	 eax, eax
  0006f	79 06		 jns	 SHORT $LN251@SetSkillLa
  00071	d8 05 00 00 00
	00		 fadd	 DWORD PTR __real@4f800000
$LN251@SetSkillLa:
  00077	51		 push	 ecx
  00078	8b cb		 mov	 ecx, ebx
  0007a	d9 1c 24	 fstp	 DWORD PTR [esp]
  0007d	ff 15 00 00 00
	00		 call	 DWORD PTR __imp_?ClearAllActionAni@ioEntityGroup@@QAEXM_N@Z

; 533  : 	pGrp->ClearAllLoopAni( FLOAT100, true );

  00083	b8 64 00 00 00	 mov	 eax, 100		; 00000064H
  00088	89 45 c8	 mov	 DWORD PTR tv2125[ebp], eax
  0008b	db 45 c8	 fild	 DWORD PTR tv2125[ebp]
  0008e	6a 01		 push	 1
  00090	85 c0		 test	 eax, eax
  00092	79 06		 jns	 SHORT $LN252@SetSkillLa
  00094	d8 05 00 00 00
	00		 fadd	 DWORD PTR __real@4f800000
$LN252@SetSkillLa:
  0009a	51		 push	 ecx
  0009b	8b cb		 mov	 ecx, ebx
  0009d	d9 1c 24	 fstp	 DWORD PTR [esp]
  000a0	ff 15 00 00 00
	00		 call	 DWORD PTR __imp_?ClearAllLoopAni@ioEntityGroup@@QAEXM_N@Z

; 534  : 
; 535  : 	float fAniRate = FLOAT1;

  000a6	b8 01 00 00 00	 mov	 eax, 1

; 536  : 	//if( m_LandAttackAttribute.m_fAttackAniRate > 0.0f )
; 537  : 	fAniRate = JumpInfo.m_LandAttack.m_fAttackAniRate;

  000ab	f3 0f 10 47 40	 movss	 xmm0, DWORD PTR [edi+64]

; 538  : 
; 539  : 	int iAniID = pGrp->GetAnimationIdx( JumpInfo.m_LandAttack.m_AttackAnimation );

  000b0	8d 47 30	 lea	 eax, DWORD PTR [edi+48]
  000b3	50		 push	 eax
  000b4	8b cb		 mov	 ecx, ebx
  000b6	f3 0f 11 45 bc	 movss	 DWORD PTR _fAniRate$[ebp], xmm0
  000bb	ff 15 00 00 00
	00		 call	 DWORD PTR __imp_?GetAnimationIdx@ioEntityGroup@@QAEHABVioHashString@@@Z
  000c1	89 45 c0	 mov	 DWORD PTR _iAniID$[ebp], eax

; 540  : 	pGrp->SetActionAni( iAniID, FLOAT100, FLOAT100, FLOAT1, FLOAT1/fAniRate );

  000c4	b8 01 00 00 00	 mov	 eax, 1
  000c9	8b c8		 mov	 ecx, eax
  000cb	b8 01 00 00 00	 mov	 eax, 1
  000d0	8b d0		 mov	 edx, eax
  000d2	b8 64 00 00 00	 mov	 eax, 100		; 00000064H
  000d7	89 45 c8	 mov	 DWORD PTR $T557768[ebp], eax
  000da	b8 64 00 00 00	 mov	 eax, 100		; 00000064H
  000df	0f 57 c0	 xorps	 xmm0, xmm0
  000e2	6a 01		 push	 1
  000e4	6a 00		 push	 0
  000e6	83 ec 18	 sub	 esp, 24			; 00000018H
  000e9	89 4d b8	 mov	 DWORD PTR tv2115[ebp], ecx
  000ec	db 45 b8	 fild	 DWORD PTR tv2115[ebp]
  000ef	f3 0f 11 44 24
	14		 movss	 DWORD PTR [esp+20], xmm0
  000f5	f3 0f 11 44 24
	10		 movss	 DWORD PTR [esp+16], xmm0
  000fb	85 c9		 test	 ecx, ecx
  000fd	79 06		 jns	 SHORT $LN253@SetSkillLa
  000ff	d8 05 00 00 00
	00		 fadd	 DWORD PTR __real@4f800000
$LN253@SetSkillLa:
  00105	d8 75 bc	 fdiv	 DWORD PTR _fAniRate$[ebp]
  00108	d9 5d b8	 fstp	 DWORD PTR tv2112[ebp]
  0010b	d9 45 b8	 fld	 DWORD PTR tv2112[ebp]
  0010e	d9 5c 24 0c	 fstp	 DWORD PTR [esp+12]
  00112	89 55 b8	 mov	 DWORD PTR tv2110[ebp], edx
  00115	db 45 b8	 fild	 DWORD PTR tv2110[ebp]
  00118	85 d2		 test	 edx, edx
  0011a	79 06		 jns	 SHORT $LN254@SetSkillLa
  0011c	d8 05 00 00 00
	00		 fadd	 DWORD PTR __real@4f800000
$LN254@SetSkillLa:
  00122	8b 4d c8	 mov	 ecx, DWORD PTR $T557768[ebp]
  00125	d9 5c 24 08	 fstp	 DWORD PTR [esp+8]
  00129	db 45 c8	 fild	 DWORD PTR $T557768[ebp]
  0012c	85 c9		 test	 ecx, ecx
  0012e	79 06		 jns	 SHORT $LN255@SetSkillLa
  00130	d8 05 00 00 00
	00		 fadd	 DWORD PTR __real@4f800000
$LN255@SetSkillLa:
  00136	d9 5c 24 04	 fstp	 DWORD PTR [esp+4]
  0013a	89 45 c8	 mov	 DWORD PTR tv2106[ebp], eax
  0013d	db 45 c8	 fild	 DWORD PTR tv2106[ebp]
  00140	85 c0		 test	 eax, eax
  00142	79 06		 jns	 SHORT $LN256@SetSkillLa
  00144	d8 05 00 00 00
	00		 fadd	 DWORD PTR __real@4f800000
$LN256@SetSkillLa:
  0014a	d9 1c 24	 fstp	 DWORD PTR [esp]
  0014d	ff 75 c0	 push	 DWORD PTR _iAniID$[ebp]
  00150	8b cb		 mov	 ecx, ebx
  00152	ff 15 00 00 00
	00		 call	 DWORD PTR __imp_?SetActionAni@ioEntityGroup@@QAE_NHMMMMMM_N0@Z

; 541  : 
; 542  : 	m_dwMotionStartTime = m_dwMotionEndTime = dwCurTime;

  00158	8b 45 b0	 mov	 eax, DWORD PTR _dwCurTime$[ebp]
  0015b	89 86 d8 02 00
	00		 mov	 DWORD PTR [esi+728], eax
  00161	89 45 c8	 mov	 DWORD PTR _value$557776[ebp], eax
  00164	8d 45 c8	 lea	 eax, DWORD PTR _value$557776[ebp]
  00167	50		 push	 eax
  00168	8d 8e a8 02 00
	00		 lea	 ecx, DWORD PTR [esi+680]
  0016e	e8 00 00 00 00	 call	 ?EncryptValueToPool@?$CEncrypt@K@@AAEXPBD@Z ; CEncrypt<unsigned long>::EncryptValueToPool

; 543  : 	m_dwMotionEndTime += pGrp->GetAnimationFullTime( iAniID ) * fAniRate;

  00173	ff 75 c0	 push	 DWORD PTR _iAniID$[ebp]
  00176	8b cb		 mov	 ecx, ebx
  00178	ff 15 00 00 00
	00		 call	 DWORD PTR __imp_?GetAnimationFullTime@ioEntityGroup@@QAEMH@Z
  0017e	d8 4d bc	 fmul	 DWORD PTR _fAniRate$[ebp]
  00181	8b 86 d8 02 00
	00		 mov	 eax, DWORD PTR [esi+728]
  00187	db 86 d8 02 00
	00		 fild	 DWORD PTR [esi+728]
  0018d	85 c0		 test	 eax, eax
  0018f	79 06		 jns	 SHORT $LN257@SetSkillLa
  00191	dc 05 00 00 00
	00		 fadd	 QWORD PTR __real@41f0000000000000
$LN257@SetSkillLa:
  00197	de c1		 faddp	 ST(1), ST(0)
  00199	e8 00 00 00 00	 call	 __ftol2

; 544  : 
; 545  : 	m_SkillState = SS_LAND_ATTACK;
; 546  : 
; 547  : 	pChar->RefreshFireTimeListWithBase( m_dwWeaponBaseIndex,
; 548  : 		iAniID,
; 549  : 		JumpInfo.m_LandAttack.m_vWeaponInfoList,
; 550  : 		FTT_SKILL_ATTACK,
; 551  : 		fAniRate,
; 552  : 		JumpInfo.m_LandAttack.m_dwPreDelay );

  0019e	f3 0f 10 45 bc	 movss	 xmm0, DWORD PTR _fAniRate$[ebp]
  001a3	6a 04		 push	 4
  001a5	89 86 d8 02 00
	00		 mov	 DWORD PTR [esi+728], eax
  001ab	58		 pop	 eax
  001ac	6a 00		 push	 0
  001ae	89 86 fc 10 00
	00		 mov	 DWORD PTR [esi+4348], eax
  001b4	ff 77 78	 push	 DWORD PTR [edi+120]
  001b7	83 c7 58	 add	 edi, 88			; 00000058H
  001ba	51		 push	 ecx
  001bb	8b 4d c4	 mov	 ecx, DWORD PTR _pChar$GSCopy$[ebp]
  001be	f3 0f 11 04 24	 movss	 DWORD PTR [esp], xmm0
  001c3	50		 push	 eax
  001c4	57		 push	 edi
  001c5	ff 75 c0	 push	 DWORD PTR _iAniID$[ebp]
  001c8	ff 76 78	 push	 DWORD PTR [esi+120]
  001cb	e8 00 00 00 00	 call	 ?RefreshFireTimeListWithBase@ioBaseChar@@QAEXKHABV?$vector@UWeaponInfo@@V?$allocator@UWeaponInfo@@@std@@@std@@W4FireTimeType@@MK_N@Z ; ioBaseChar::RefreshFireTimeListWithBase

; 553  : 
; 554  : 	m_dwFireMotionEndTime = dwCurTime;

  001d0	8b 5d b0	 mov	 ebx, DWORD PTR _dwCurTime$[ebp]
  001d3	6a 03		 push	 3
  001d5	89 9e 24 02 00
	00		 mov	 DWORD PTR [esi+548], ebx

; 555  : 	m_dwFireMotionEndTime += pGrp->GetAnimationEventTime_e( iAniID, "firemotion_e" ) * fAniRate;

  001db	c7 45 cc 8b 85
	99 8f		 mov	 DWORD PTR _szEncEventType$557810[ebp], -1885764213 ; 8f99858bH
  001e2	c7 45 d0 80 83
	9f 83		 mov	 DWORD PTR _szEncEventType$557810[ebp+4], -2086698112 ; 839f8380H
  001e9	c7 45 d4 82 82
	b4 8f		 mov	 DWORD PTR _szEncEventType$557810[ebp+8], -1883995518 ; 8fb48282H
  001f0	8d 45 cc	 lea	 eax, DWORD PTR _szEncEventType$557810[ebp]
  001f3	c6 45 d8 00	 mov	 BYTE PTR _szEncEventType$557810[ebp+12], 0
  001f7	59		 pop	 ecx
$LL132@SetSkillLa:
  001f8	81 30 ed ec eb
	ea		 xor	 DWORD PTR [eax], -353637139 ; eaebecedH
  001fe	83 c0 04	 add	 eax, 4
  00201	49		 dec	 ecx
  00202	75 f4		 jne	 SHORT $LL132@SetSkillLa
  00204	8d 45 cc	 lea	 eax, DWORD PTR _szEncEventType$557810[ebp]
  00207	50		 push	 eax
  00208	8d 4d a0	 lea	 ecx, DWORD PTR $T557797[ebp]
  0020b	ff 15 00 00 00
	00		 call	 DWORD PTR __imp_??0ioHashString@@QAE@PBD@Z
  00211	8b 4d b4	 mov	 ecx, DWORD PTR _pGrp$[ebp]
  00214	83 65 fc 00	 and	 DWORD PTR __$EHRec$[ebp+8], 0
  00218	8d 45 a0	 lea	 eax, DWORD PTR $T557797[ebp]
  0021b	50		 push	 eax
  0021c	ff 75 c0	 push	 DWORD PTR _iAniID$[ebp]
  0021f	ff 15 00 00 00
	00		 call	 DWORD PTR __imp_?GetAnimationEventTime@ioEntityGroup@@QAEMHABVioHashString@@@Z
  00225	d9 5d c4	 fstp	 DWORD PTR $T557796[ebp]
  00228	83 4d fc ff	 or	 DWORD PTR __$EHRec$[ebp+8], -1
  0022c	8d 4d a0	 lea	 ecx, DWORD PTR $T557797[ebp]
  0022f	ff 15 00 00 00
	00		 call	 DWORD PTR __imp_??1ioHashString@@QAE@XZ
  00235	d9 45 c4	 fld	 DWORD PTR $T557796[ebp]
  00238	8b 86 24 02 00
	00		 mov	 eax, DWORD PTR [esi+548]
  0023e	d8 4d bc	 fmul	 DWORD PTR _fAniRate$[ebp]
  00241	db 86 24 02 00
	00		 fild	 DWORD PTR [esi+548]
  00247	85 c0		 test	 eax, eax
  00249	79 06		 jns	 SHORT $LN258@SetSkillLa
  0024b	dc 05 00 00 00
	00		 fadd	 QWORD PTR __real@41f0000000000000
$LN258@SetSkillLa:
  00251	de c1		 faddp	 ST(1), ST(0)
  00253	e8 00 00 00 00	 call	 __ftol2
  00258	6a 02		 push	 2
  0025a	89 86 24 02 00
	00		 mov	 DWORD PTR [esi+548], eax

; 556  : 
; 557  : 	// Key Reserve
; 558  : 	m_dwEnableReserveTime = dwCurTime;

  00260	89 9e dc 02 00
	00		 mov	 DWORD PTR [esi+732], ebx

; 559  : 	m_dwEnableReserveTime += pGrp->GetAnimationEventTime_e( iAniID, "key_reserve" );

  00266	c7 45 e0 86 89
	92 b5		 mov	 DWORD PTR _szEncEventType$557971[ebp], -1248687738 ; b5928986H
  0026d	c7 45 e4 9f 89
	98 8f		 mov	 DWORD PTR _szEncEventType$557971[ebp+4], -1885828705 ; 8f98899fH
  00274	8d 45 e0	 lea	 eax, DWORD PTR _szEncEventType$557971[ebp]
  00277	c7 45 e8 9f 9a
	8e 00		 mov	 DWORD PTR _szEncEventType$557971[ebp+8], 9345695 ; 008e9a9fH
  0027e	59		 pop	 ecx
$LL239@SetSkillLa:
  0027f	81 30 ed ec eb
	ea		 xor	 DWORD PTR [eax], -353637139 ; eaebecedH
  00285	83 c0 04	 add	 eax, 4
  00288	49		 dec	 ecx
  00289	75 f4		 jne	 SHORT $LL239@SetSkillLa
  0028b	6a 08		 push	 8
  0028d	58		 pop	 eax
$LL236@SetSkillLa:
  0028e	8b c8		 mov	 ecx, eax
  00290	81 e1 03 00 00
	80		 and	 ecx, -2147483645	; 80000003H
  00296	79 05		 jns	 SHORT $LN259@SetSkillLa
  00298	49		 dec	 ecx
  00299	83 c9 fc	 or	 ecx, -4			; fffffffcH
  0029c	41		 inc	 ecx
$LN259@SetSkillLa:
  0029d	b2 ed		 mov	 dl, -19			; ffffffedH
  0029f	2a d1		 sub	 dl, cl
  002a1	30 54 05 e0	 xor	 BYTE PTR _szEncEventType$557971[ebp+eax], dl
  002a5	40		 inc	 eax
  002a6	83 f8 0b	 cmp	 eax, 11			; 0000000bH
  002a9	7c e3		 jl	 SHORT $LL236@SetSkillLa
  002ab	8d 45 e0	 lea	 eax, DWORD PTR _szEncEventType$557971[ebp]
  002ae	50		 push	 eax
  002af	8d 4d 90	 lea	 ecx, DWORD PTR $T557958[ebp]
  002b2	ff 15 00 00 00
	00		 call	 DWORD PTR __imp_??0ioHashString@@QAE@PBD@Z
  002b8	8b 4d b4	 mov	 ecx, DWORD PTR _pGrp$[ebp]
  002bb	8d 45 90	 lea	 eax, DWORD PTR $T557958[ebp]
  002be	50		 push	 eax
  002bf	ff 75 c0	 push	 DWORD PTR _iAniID$[ebp]
  002c2	c7 45 fc 01 00
	00 00		 mov	 DWORD PTR __$EHRec$[ebp+8], 1
  002c9	ff 15 00 00 00
	00		 call	 DWORD PTR __imp_?GetAnimationEventTime@ioEntityGroup@@QAEMHABVioHashString@@@Z
  002cf	d9 5d c4	 fstp	 DWORD PTR $T557957[ebp]
  002d2	83 4d fc ff	 or	 DWORD PTR __$EHRec$[ebp+8], -1
  002d6	8d 4d 90	 lea	 ecx, DWORD PTR $T557958[ebp]
  002d9	ff 15 00 00 00
	00		 call	 DWORD PTR __imp_??1ioHashString@@QAE@XZ
  002df	db 86 dc 02 00
	00		 fild	 DWORD PTR [esi+732]
  002e5	8b 86 dc 02 00
	00		 mov	 eax, DWORD PTR [esi+732]
  002eb	85 c0		 test	 eax, eax
  002ed	79 06		 jns	 SHORT $LN260@SetSkillLa
  002ef	d8 05 00 00 00
	00		 fadd	 DWORD PTR __real@4f800000
$LN260@SetSkillLa:
  002f5	d8 45 c4	 fadd	 DWORD PTR $T557957[ebp]
  002f8	e8 00 00 00 00	 call	 __ftol2
  002fd	89 86 dc 02 00
	00		 mov	 DWORD PTR [esi+732], eax
$LN4@SetSkillLa:

; 560  : }

  00303	e8 00 00 00 00	 call	 __EH_epilog3_GS
  00308	c2 08 00	 ret	 8
_TEXT	ENDS
;	COMDAT text$x
text$x	SEGMENT
__unwindfunclet$?SetSkillLandAttackState@ioGrapplingBlowLoopSkill@@IAEXPAVioBaseChar@@H@Z$0:
  00000	8d 4d a0	 lea	 ecx, DWORD PTR $T557797[ebp]
  00003	ff 25 00 00 00
	00		 jmp	 DWORD PTR __imp_??1ioHashString@@QAE@XZ
__unwindfunclet$?SetSkillLandAttackState@ioGrapplingBlowLoopSkill@@IAEXPAVioBaseChar@@H@Z$1:
  00009	8d 4d 90	 lea	 ecx, DWORD PTR $T557958[ebp]
  0000c	ff 25 00 00 00
	00		 jmp	 DWORD PTR __imp_??1ioHashString@@QAE@XZ
__ehhandler$?SetSkillLandAttackState@ioGrapplingBlowLoopSkill@@IAEXPAVioBaseChar@@H@Z:
  00012	8b 54 24 08	 mov	 edx, DWORD PTR [esp+8]
  00016	8d 42 0c	 lea	 eax, DWORD PTR [edx+12]
  00019	8b 4a 8c	 mov	 ecx, DWORD PTR [edx-116]
  0001c	33 c8		 xor	 ecx, eax
  0001e	e8 00 00 00 00	 call	 @__security_check_cookie@4
  00023	8b 4a fc	 mov	 ecx, DWORD PTR [edx-4]
  00026	33 c8		 xor	 ecx, eax
  00028	e8 00 00 00 00	 call	 @__security_check_cookie@4
  0002d	b8 00 00 00 00	 mov	 eax, OFFSET __ehfuncinfo$?SetSkillLandAttackState@ioGrapplingBlowLoopSkill@@IAEXPAVioBaseChar@@H@Z
  00032	e9 00 00 00 00	 jmp	 ___CxxFrameHandler3
text$x	ENDS
?SetSkillLandAttackState@ioGrapplingBlowLoopSkill@@IAEXPAVioBaseChar@@H@Z ENDP ; ioGrapplingBlowLoopSkill::SetSkillLandAttackState
PUBLIC	___$ReturnUdt$GSCopy$
PUBLIC	__$ArrayPad$
PUBLIC	?GetGrapplingTargetPos@ioGrapplingBlowLoopSkill@@UAE?AUD3DXVECTOR3@@PAVioBaseChar@@@Z ; ioGrapplingBlowLoopSkill::GetGrapplingTargetPos
EXTRN	?GetMidPositionByRate@ioGameEntity@@QBE?AUD3DXVECTOR3@@M@Z:PROC ; ioGameEntity::GetMidPositionByRate
; Function compile flags: /Ogsp
;	COMDAT ?GetGrapplingTargetPos@ioGrapplingBlowLoopSkill@@UAE?AUD3DXVECTOR3@@PAVioBaseChar@@@Z
_TEXT	SEGMENT
_vDir$551262 = -36					; size = 12
___$ReturnUdt$GSCopy$ = -24				; size = 4
_value$558110 = -20					; size = 4
_value$558087 = -20					; size = 4
_value$558073 = -20					; size = 4
_value$558091 = -20					; size = 4
_vPos$551260 = -16					; size = 12
__$ArrayPad$ = -4					; size = 4
___$ReturnUdt$ = 8					; size = 4
_pChar$ = 12						; size = 4
?GetGrapplingTargetPos@ioGrapplingBlowLoopSkill@@UAE?AUD3DXVECTOR3@@PAVioBaseChar@@@Z PROC ; ioGrapplingBlowLoopSkill::GetGrapplingTargetPos, COMDAT
; _this$ = ecx

; 701  : {

  00000	55		 push	 ebp
  00001	8b ec		 mov	 ebp, esp
  00003	83 ec 24	 sub	 esp, 36			; 00000024H
  00006	a1 00 00 00 00	 mov	 eax, DWORD PTR ___security_cookie
  0000b	33 c5		 xor	 eax, ebp
  0000d	89 45 fc	 mov	 DWORD PTR __$ArrayPad$[ebp], eax
  00010	53		 push	 ebx
  00011	56		 push	 esi
  00012	8b 75 0c	 mov	 esi, DWORD PTR _pChar$[ebp]
  00015	57		 push	 edi
  00016	8b 7d 08	 mov	 edi, DWORD PTR ___$ReturnUdt$[ebp]
  00019	8b d9		 mov	 ebx, ecx

; 702  : 	if( m_fTargetLoopGapRange > 0.0f )

  0001b	8d 45 ec	 lea	 eax, DWORD PTR _value$558073[ebp]
  0001e	8d 8b 10 11 00
	00		 lea	 ecx, DWORD PTR [ebx+4368]
  00024	50		 push	 eax

; 709  : 
; 710  : 		//높이
; 711  : 		vPos.y = vPos.y + m_fTargetLoopGapHeight;

  00025	89 7d e8	 mov	 DWORD PTR ___$ReturnUdt$GSCopy$[ebp], edi
  00028	e8 00 00 00 00	 call	 ?DecryptValueToPool@?$CEncrypt@M@@QAEXPAM@Z ; CEncrypt<float>::DecryptValueToPool
  0002d	f3 0f 10 45 ec	 movss	 xmm0, DWORD PTR _value$558073[ebp]
  00032	0f 2f 05 00 00
	00 00		 comiss	 xmm0, DWORD PTR __real@00000000
  00039	0f 86 24 01 00
	00		 jbe	 $LN2@GetGrappli

; 703  : 	{
; 704  : 		D3DXVECTOR3 vPos = pChar->GetMidPositionByRate( m_fCharHeightRate );

  0003f	f3 0f 10 83 14
	12 00 00	 movss	 xmm0, DWORD PTR [ebx+4628]
  00047	51		 push	 ecx
  00048	8d 45 f0	 lea	 eax, DWORD PTR _vPos$551260[ebp]
  0004b	f3 0f 11 04 24	 movss	 DWORD PTR [esp], xmm0
  00050	50		 push	 eax
  00051	8b ce		 mov	 ecx, esi
  00053	e8 00 00 00 00	 call	 ?GetMidPositionByRate@ioGameEntity@@QBE?AUD3DXVECTOR3@@M@Z ; ioGameEntity::GetMidPositionByRate

; 705  : 		D3DXVECTOR3 vDir = pChar->GetMoveDir();

  00058	81 c6 b4 06 00
	00		 add	 esi, 1716		; 000006b4H
  0005e	8d 7d dc	 lea	 edi, DWORD PTR _vDir$551262[ebp]
  00061	a5		 movsd
  00062	a5		 movsd

; 706  : 
; 707  : 		if( m_fTargetLoopGapRange > 0.0f )

  00063	8d 45 ec	 lea	 eax, DWORD PTR _value$558087[ebp]
  00066	50		 push	 eax
  00067	8d 8b 10 11 00
	00		 lea	 ecx, DWORD PTR [ebx+4368]
  0006d	a5		 movsd
  0006e	e8 00 00 00 00	 call	 ?DecryptValueToPool@?$CEncrypt@M@@QAEXPAM@Z ; CEncrypt<float>::DecryptValueToPool
  00073	f3 0f 10 45 ec	 movss	 xmm0, DWORD PTR _value$558087[ebp]
  00078	0f 2f 05 00 00
	00 00		 comiss	 xmm0, DWORD PTR __real@00000000
  0007f	0f 86 a8 00 00
	00		 jbe	 $LN21@GetGrappli

; 708  : 			vPos += m_fTargetLoopGapRange * vDir;

  00085	8d 45 ec	 lea	 eax, DWORD PTR _value$558091[ebp]
  00088	50		 push	 eax
  00089	8d 8b 10 11 00
	00		 lea	 ecx, DWORD PTR [ebx+4368]
  0008f	e8 00 00 00 00	 call	 ?DecryptValueToPool@?$CEncrypt@M@@QAEXPAM@Z ; CEncrypt<float>::DecryptValueToPool
  00094	f3 0f 10 45 dc	 movss	 xmm0, DWORD PTR _vDir$551262[ebp]
  00099	f3 0f 10 4d ec	 movss	 xmm1, DWORD PTR _value$558091[ebp]
  0009e	f3 0f 10 55 ec	 movss	 xmm2, DWORD PTR _value$558091[ebp]
  000a3	f3 0f 10 5d ec	 movss	 xmm3, DWORD PTR _value$558091[ebp]
  000a8	0f 5a c0	 cvtps2pd xmm0, xmm0
  000ab	0f 5a c9	 cvtps2pd xmm1, xmm1
  000ae	f2 0f 59 c1	 mulsd	 xmm0, xmm1
  000b2	f3 0f 10 4d e0	 movss	 xmm1, DWORD PTR _vDir$551262[ebp+4]
  000b7	66 0f 5a c0	 cvtpd2ps xmm0, xmm0
  000bb	0f 5a c9	 cvtps2pd xmm1, xmm1
  000be	0f 5a d2	 cvtps2pd xmm2, xmm2
  000c1	f2 0f 59 ca	 mulsd	 xmm1, xmm2
  000c5	f3 0f 10 55 e4	 movss	 xmm2, DWORD PTR _vDir$551262[ebp+8]
  000ca	f3 0f 5a c0	 cvtss2sd xmm0, xmm0
  000ce	0f 5a db	 cvtps2pd xmm3, xmm3
  000d1	0f 5a d2	 cvtps2pd xmm2, xmm2
  000d4	f2 0f 59 d3	 mulsd	 xmm2, xmm3
  000d8	f3 0f 10 5d f0	 movss	 xmm3, DWORD PTR _vPos$551260[ebp]
  000dd	66 0f 5a c9	 cvtpd2ps xmm1, xmm1
  000e1	0f 5a db	 cvtps2pd xmm3, xmm3
  000e4	f2 0f 58 c3	 addsd	 xmm0, xmm3
  000e8	66 0f 5a c0	 cvtpd2ps xmm0, xmm0
  000ec	f3 0f 11 45 f0	 movss	 DWORD PTR _vPos$551260[ebp], xmm0
  000f1	0f 57 c0	 xorps	 xmm0, xmm0
  000f4	f3 0f 5a c1	 cvtss2sd xmm0, xmm1
  000f8	f3 0f 10 4d f4	 movss	 xmm1, DWORD PTR _vPos$551260[ebp+4]
  000fd	0f 5a c9	 cvtps2pd xmm1, xmm1
  00100	f2 0f 58 c1	 addsd	 xmm0, xmm1
  00104	66 0f 5a c0	 cvtpd2ps xmm0, xmm0
  00108	f3 0f 11 45 f4	 movss	 DWORD PTR _vPos$551260[ebp+4], xmm0
  0010d	f3 0f 10 45 f8	 movss	 xmm0, DWORD PTR _vPos$551260[ebp+8]
  00112	66 0f 5a d2	 cvtpd2ps xmm2, xmm2
  00116	0f 5a c0	 cvtps2pd xmm0, xmm0
  00119	0f 57 c9	 xorps	 xmm1, xmm1
  0011c	f3 0f 5a ca	 cvtss2sd xmm1, xmm2
  00120	f2 0f 58 c1	 addsd	 xmm0, xmm1
  00124	66 0f 5a c0	 cvtpd2ps xmm0, xmm0
  00128	f3 0f 11 45 f8	 movss	 DWORD PTR _vPos$551260[ebp+8], xmm0
$LN21@GetGrappli:

; 709  : 
; 710  : 		//높이
; 711  : 		vPos.y = vPos.y + m_fTargetLoopGapHeight;

  0012d	8d 45 ec	 lea	 eax, DWORD PTR _value$558110[ebp]
  00130	50		 push	 eax
  00131	8d 8b 40 11 00
	00		 lea	 ecx, DWORD PTR [ebx+4416]
  00137	e8 00 00 00 00	 call	 ?DecryptValueToPool@?$CEncrypt@M@@QAEXPAM@Z ; CEncrypt<float>::DecryptValueToPool
  0013c	f3 0f 10 4d f4	 movss	 xmm1, DWORD PTR _vPos$551260[ebp+4]
  00141	f3 0f 10 45 ec	 movss	 xmm0, DWORD PTR _value$558110[ebp]

; 712  : 
; 713  : 		return vPos;

  00146	8b 45 e8	 mov	 eax, DWORD PTR ___$ReturnUdt$GSCopy$[ebp]
  00149	0f 5a c0	 cvtps2pd xmm0, xmm0
  0014c	0f 5a c9	 cvtps2pd xmm1, xmm1
  0014f	f2 0f 58 c1	 addsd	 xmm0, xmm1
  00153	66 0f 5a c0	 cvtpd2ps xmm0, xmm0
  00157	f3 0f 11 45 f4	 movss	 DWORD PTR _vPos$551260[ebp+4], xmm0
  0015c	8d 75 f0	 lea	 esi, DWORD PTR _vPos$551260[ebp]
  0015f	8b f8		 mov	 edi, eax
  00161	eb 09		 jmp	 SHORT $LN27@GetGrappli
$LN2@GetGrappli:

; 714  : 	}
; 715  : 
; 716  : 	return ioMath::VEC3_ZERO;

  00163	8b 35 00 00 00
	00		 mov	 esi, DWORD PTR __imp_?VEC3_ZERO@ioMath@@2UD3DXVECTOR3@@A
  00169	8b 45 e8	 mov	 eax, DWORD PTR ___$ReturnUdt$GSCopy$[ebp]
$LN27@GetGrappli:

; 717  : }

  0016c	8b 4d fc	 mov	 ecx, DWORD PTR __$ArrayPad$[ebp]
  0016f	a5		 movsd
  00170	a5		 movsd
  00171	a5		 movsd
  00172	5f		 pop	 edi
  00173	5e		 pop	 esi
  00174	33 cd		 xor	 ecx, ebp
  00176	5b		 pop	 ebx
  00177	e8 00 00 00 00	 call	 @__security_check_cookie@4
  0017c	c9		 leave
  0017d	c2 08 00	 ret	 8
?GetGrapplingTargetPos@ioGrapplingBlowLoopSkill@@UAE?AUD3DXVECTOR3@@PAVioBaseChar@@@Z ENDP ; ioGrapplingBlowLoopSkill::GetGrapplingTargetPos
_TEXT	ENDS
PUBLIC	?IsProtected@ioGrapplingBlowLoopSkill@@UBE_NH@Z	; ioGrapplingBlowLoopSkill::IsProtected
; Function compile flags: /Ogsp
;	COMDAT ?IsProtected@ioGrapplingBlowLoopSkill@@UBE_NH@Z
_TEXT	SEGMENT
_value$558122 = -1					; size = 1
_iDefenseBreakType$ = 8					; size = 4
?IsProtected@ioGrapplingBlowLoopSkill@@UBE_NH@Z PROC	; ioGrapplingBlowLoopSkill::IsProtected, COMDAT
; _this$ = ecx

; 833  : {

  00000	55		 push	 ebp
  00001	8b ec		 mov	 ebp, esp
  00003	51		 push	 ecx
  00004	56		 push	 esi
  00005	8b f1		 mov	 esi, ecx

; 834  : 	if( m_bDisableSkillProtect )

  00007	8d 45 ff	 lea	 eax, DWORD PTR _value$558122[ebp]
  0000a	50		 push	 eax
  0000b	8d 8e a8 00 00
	00		 lea	 ecx, DWORD PTR [esi+168]
  00011	e8 00 00 00 00	 call	 ?DecryptValueToPool@?$CEncrypt@_N@@QAEXPA_N@Z ; CEncrypt<bool>::DecryptValueToPool
  00016	80 7d ff 00	 cmp	 BYTE PTR _value$558122[ebp], 0
  0001a	74 04		 je	 SHORT $LN10@IsProtecte
$LN16@IsProtecte:

; 835  : 		return false;

  0001c	32 c0		 xor	 al, al
  0001e	eb 63		 jmp	 SHORT $LN11@IsProtecte
$LN10@IsProtecte:

; 836  : 
; 837  : 	if( DBT_NONE != (DefenseBreakType)m_ProtectCancelType )

  00020	8b 86 a4 00 00
	00		 mov	 eax, DWORD PTR [esi+164]
  00026	85 c0		 test	 eax, eax
  00028	74 05		 je	 SHORT $LN8@IsProtecte

; 838  : 	{
; 839  : 		if( iDefenseBreakType == m_ProtectCancelType )   // 스킬 무적 파괴

  0002a	39 45 08	 cmp	 DWORD PTR _iDefenseBreakType$[ebp], eax

; 840  : 			return false;

  0002d	74 ed		 je	 SHORT $LN16@IsProtecte
$LN8@IsProtecte:
  0002f	57		 push	 edi

; 841  : 	}
; 842  : 
; 843  : 	DWORD dwCurTime = FRAMEGETTIME();

  00030	ff 15 00 00 00
	00		 call	 DWORD PTR __imp_?GetSingleton@ioFrameTimer@@SAAAV1@XZ
  00036	8b c8		 mov	 ecx, eax
  00038	ff 15 00 00 00
	00		 call	 DWORD PTR __imp_?GetLoopSec@ioFrameTimer@@QBEKXZ
  0003e	8b f8		 mov	 edi, eax

; 844  : 
; 845  : 	if( IsPreDelayProtect() )

  00040	8b 06		 mov	 eax, DWORD PTR [esi]
  00042	8b ce		 mov	 ecx, esi
  00044	ff 90 2c 01 00
	00		 call	 DWORD PTR [eax+300]
  0004a	84 c0		 test	 al, al
  0004c	74 09		 je	 SHORT $LN6@IsProtecte

; 846  : 	{
; 847  : 		if( m_dwPreDelayStartTime != 0 )

  0004e	83 be 20 02 00
	00 00		 cmp	 DWORD PTR [esi+544], 0

; 848  : 			return true;

  00055	75 29		 jne	 SHORT $LN3@IsProtecte
$LN6@IsProtecte:

; 849  : 	}
; 850  : 
; 851  : 	switch( m_SkillState )

  00057	8b 86 fc 10 00
	00		 mov	 eax, DWORD PTR [esi+4348]
  0005d	48		 dec	 eax
  0005e	48		 dec	 eax
  0005f	74 1f		 je	 SHORT $LN3@IsProtecte
  00061	48		 dec	 eax
  00062	74 08		 je	 SHORT $LN2@IsProtecte
  00064	48		 dec	 eax
  00065	48		 dec	 eax
  00066	74 04		 je	 SHORT $LN2@IsProtecte

; 861  : 	}
; 862  : 
; 863  : 	return false;

  00068	32 c0		 xor	 al, al
  0006a	eb 16		 jmp	 SHORT $LN15@IsProtecte
$LN2@IsProtecte:

; 855  : 	case SS_LOOP:
; 856  : 	case SS_END:
; 857  : 		if( m_dwSkillLoopStartTime+m_dwSkillLoopProtectTime < dwCurTime )

  0006c	8b 86 08 11 00
	00		 mov	 eax, DWORD PTR [esi+4360]
  00072	03 86 00 11 00
	00		 add	 eax, DWORD PTR [esi+4352]
  00078	3b c7		 cmp	 eax, edi
  0007a	1a c0		 sbb	 al, al
  0007c	fe c0		 inc	 al

; 858  : 			return false;
; 859  : 
; 860  : 		return true;

  0007e	eb 02		 jmp	 SHORT $LN15@IsProtecte
$LN3@IsProtecte:

; 852  : 	{
; 853  : 	case SS_ACTION:
; 854  : 		return true;

  00080	b0 01		 mov	 al, 1
$LN15@IsProtecte:
  00082	5f		 pop	 edi
$LN11@IsProtecte:
  00083	5e		 pop	 esi

; 864  : }

  00084	c9		 leave
  00085	c2 04 00	 ret	 4
?IsProtected@ioGrapplingBlowLoopSkill@@UBE_NH@Z ENDP	; ioGrapplingBlowLoopSkill::IsProtected
_TEXT	ENDS
PUBLIC	?IsEnableReserve@ioGrapplingBlowLoopSkill@@UBE_NXZ ; ioGrapplingBlowLoopSkill::IsEnableReserve
; Function compile flags: /Ogsp
;	COMDAT ?IsEnableReserve@ioGrapplingBlowLoopSkill@@UBE_NXZ
_TEXT	SEGMENT
_value$558131 = -4					; size = 4
?IsEnableReserve@ioGrapplingBlowLoopSkill@@UBE_NXZ PROC	; ioGrapplingBlowLoopSkill::IsEnableReserve, COMDAT
; _this$ = ecx

; 931  : {

  00000	55		 push	 ebp
  00001	8b ec		 mov	 ebp, esp
  00003	51		 push	 ecx
  00004	56		 push	 esi
  00005	8b f1		 mov	 esi, ecx

; 932  : 	if( m_dwPreDelayStartTime != 0 )

  00007	83 be 20 02 00
	00 00		 cmp	 DWORD PTR [esi+544], 0

; 933  : 		return false;

  0000e	75 46		 jne	 SHORT $LN2@IsEnableRe

; 934  : 
; 935  : 	switch( m_SkillState )

  00010	83 be fc 10 00
	00 05		 cmp	 DWORD PTR [esi+4348], 5
  00017	75 3d		 jne	 SHORT $LN2@IsEnableRe

; 936  : 	{
; 937  : 	case SS_END:
; 938  : 		if( m_dwEnableReserveTime == 0 || m_dwMotionStartTime >= m_dwEnableReserveTime )

  00019	83 be dc 02 00
	00 00		 cmp	 DWORD PTR [esi+732], 0
  00020	74 34		 je	 SHORT $LN2@IsEnableRe
  00022	8d 45 fc	 lea	 eax, DWORD PTR _value$558131[ebp]
  00025	50		 push	 eax
  00026	8d 8e a8 02 00
	00		 lea	 ecx, DWORD PTR [esi+680]
  0002c	e8 00 00 00 00	 call	 ?DecryptValueToPool@?$CEncrypt@K@@QAEXPAK@Z ; CEncrypt<unsigned long>::DecryptValueToPool
  00031	8b 45 fc	 mov	 eax, DWORD PTR _value$558131[ebp]
  00034	3b 86 dc 02 00
	00		 cmp	 eax, DWORD PTR [esi+732]
  0003a	73 1a		 jae	 SHORT $LN2@IsEnableRe

; 940  : 
; 941  : 		if( m_dwEnableReserveTime < FRAMEGETTIME() )

  0003c	ff 15 00 00 00
	00		 call	 DWORD PTR __imp_?GetSingleton@ioFrameTimer@@SAAAV1@XZ
  00042	8b c8		 mov	 ecx, eax
  00044	ff 15 00 00 00
	00		 call	 DWORD PTR __imp_?GetLoopSec@ioFrameTimer@@QBEKXZ
  0004a	39 86 dc 02 00
	00		 cmp	 DWORD PTR [esi+732], eax
  00050	73 04		 jae	 SHORT $LN2@IsEnableRe

; 942  : 			return true;

  00052	b0 01		 mov	 al, 1
  00054	eb 02		 jmp	 SHORT $LN8@IsEnableRe
$LN2@IsEnableRe:

; 939  : 			return false;

  00056	32 c0		 xor	 al, al
$LN8@IsEnableRe:
  00058	5e		 pop	 esi

; 943  : 		break;
; 944  : 	}
; 945  : 
; 946  : 	return false;
; 947  : }

  00059	c9		 leave
  0005a	c3		 ret	 0
?IsEnableReserve@ioGrapplingBlowLoopSkill@@UBE_NXZ ENDP	; ioGrapplingBlowLoopSkill::IsEnableReserve
_TEXT	ENDS
PUBLIC	__real@bfef5c2900000000
PUBLIC	__real@3fef5c2900000000
PUBLIC	__real@4066800000000000
PUBLIC	__real@4046800000000000
PUBLIC	_pOwner$GSCopy$
PUBLIC	_this$GSCopy$
PUBLIC	__$ArrayPad$
PUBLIC	?ProcessRotate@ioGrapplingBlowLoopSkill@@IAEXPAVioBaseChar@@@Z ; ioGrapplingBlowLoopSkill::ProcessRotate
EXTRN	?SetTargetRotToRotate@ioBaseChar@@QAEXABUD3DXQUATERNION@@_N1@Z:PROC ; ioBaseChar::SetTargetRotToRotate
EXTRN	__imp_?CalcDirectionQuaternion@ioMath@@SAXAAUD3DXQUATERNION@@ABUD3DXVECTOR3@@@Z:PROC
EXTRN	_D3DXQuaternionRotationAxis@12:PROC
EXTRN	__imp_?UNIT_Y@ioMath@@2UD3DXVECTOR3@@A:BYTE
EXTRN	_D3DXQuaternionRotationYawPitchRoll@16:PROC
EXTRN	__imp_?ArrangeHead@ioMath@@SAMM@Z:PROC
EXTRN	__imp_?GetCurFrameGap@ioFrameTimer@@QBEMXZ:PROC
;	COMDAT __real@bfef5c2900000000
; File c:\program files (x86)\microsoft directx sdk (june 2010)\include\d3dx9math.inl
CONST	SEGMENT
__real@bfef5c2900000000 DQ 0bfef5c2900000000r	; -0.98
CONST	ENDS
;	COMDAT __real@3fef5c2900000000
CONST	SEGMENT
__real@3fef5c2900000000 DQ 03fef5c2900000000r	; 0.98
CONST	ENDS
;	COMDAT __real@4066800000000000
CONST	SEGMENT
__real@4066800000000000 DQ 04066800000000000r	; 180
CONST	ENDS
;	COMDAT __real@4046800000000000
CONST	SEGMENT
__real@4046800000000000 DQ 04046800000000000r	; 45
; Function compile flags: /Ogsp
; File d:\lost saga for developer\youtube\tutorial\source\src\lsclient\iograpplingblowloopskill.cpp
CONST	ENDS
;	COMDAT ?ProcessRotate@ioGrapplingBlowLoopSkill@@IAEXPAVioBaseChar@@@Z
_TEXT	SEGMENT
_qtCurRot$ = -128					; size = 16
_qtRotate$ = -112					; size = 16
_qtNewRot$ = -96					; size = 16
_pOwner$GSCopy$ = -80					; size = 4
tv614 = -76						; size = 4
tv597 = -76						; size = 4
_fDotValue$ = -76					; size = 4
tv619 = -72						; size = 4
_fRotateAngle$ = -72					; size = 4
_fRate$ = -72						; size = 4
_fFrameGap$ = -72					; size = 4
tv571 = -68						; size = 4
tv554 = -68						; size = 4
_this$GSCopy$ = -68					; size = 4
_fGapAngle$ = -68					; size = 4
_fYawR$ = -68						; size = 4
_vAxis$ = -64						; size = 12
_vNewDir$ = -52						; size = 12
_vTargetDir$ = -40					; size = 12
_vCurMoveDir$ = -28					; size = 12
_v$558183 = -16						; size = 12
$T551454 = -16						; size = 12
$T551448 = -16						; size = 12
$T551436 = -16						; size = 12
$T551425 = -16						; size = 12
__$ArrayPad$ = -4					; size = 4
_pOwner$ = 8						; size = 4
?ProcessRotate@ioGrapplingBlowLoopSkill@@IAEXPAVioBaseChar@@@Z PROC ; ioGrapplingBlowLoopSkill::ProcessRotate, COMDAT
; _this$ = ecx

; 1034 : {

  00000	55		 push	 ebp
  00001	8b ec		 mov	 ebp, esp
  00003	81 ec 80 00 00
	00		 sub	 esp, 128		; 00000080H
  00009	a1 00 00 00 00	 mov	 eax, DWORD PTR ___security_cookie
  0000e	33 c5		 xor	 eax, ebp
  00010	89 45 fc	 mov	 DWORD PTR __$ArrayPad$[ebp], eax
  00013	56		 push	 esi
  00014	8b f1		 mov	 esi, ecx

; 1035 : 	if( m_CurDirKey == ioUserKeyInput::DKI_NONE )

  00016	83 be 48 12 00
	00 00		 cmp	 DWORD PTR [esi+4680], 0
  0001d	57		 push	 edi
  0001e	8b 7d 08	 mov	 edi, DWORD PTR _pOwner$[ebp]

; 1082 : 
; 1083 : 	D3DXVECTOR3 vNewDir = qtNewRot * vCurMoveDir;

  00021	89 75 bc	 mov	 DWORD PTR _this$GSCopy$[ebp], esi
  00024	89 7d b0	 mov	 DWORD PTR _pOwner$GSCopy$[ebp], edi
  00027	0f 84 6f 03 00
	00		 je	 $LN7@ProcessRot

; 1036 : 		return;
; 1037 : 
; 1038 : 	float fFrameGap = g_FrameTimer.GetCurFrameGap();

  0002d	53		 push	 ebx
  0002e	ff 15 00 00 00
	00		 call	 DWORD PTR __imp_?GetSingleton@ioFrameTimer@@SAAAV1@XZ
  00034	8b c8		 mov	 ecx, eax
  00036	ff 15 00 00 00
	00		 call	 DWORD PTR __imp_?GetCurFrameGap@ioFrameTimer@@QBEMXZ
  0003c	d9 5d b8	 fstp	 DWORD PTR _fFrameGap$[ebp]

; 1039 : 	float fRate = fFrameGap / m_dwRotateSpeed;

  0003f	8b 86 50 12 00
	00		 mov	 eax, DWORD PTR [esi+4688]
  00045	d9 45 b8	 fld	 DWORD PTR _fFrameGap$[ebp]
  00048	db 86 50 12 00
	00		 fild	 DWORD PTR [esi+4688]
  0004e	85 c0		 test	 eax, eax
  00050	79 06		 jns	 SHORT $LN50@ProcessRot
  00052	d8 05 00 00 00
	00		 fadd	 DWORD PTR __real@4f800000
$LN50@ProcessRot:
  00058	de f9		 fdivp	 ST(1), ST(0)
  0005a	d9 5d b8	 fstp	 DWORD PTR _fRate$[ebp]

; 1040 : 	float fRotateAngle = FLOAT360 * fRate;

  0005d	b8 68 01 00 00	 mov	 eax, 360		; 00000168H
  00062	89 45 b4	 mov	 DWORD PTR tv614[ebp], eax
  00065	db 45 b4	 fild	 DWORD PTR tv614[ebp]
  00068	85 c0		 test	 eax, eax
  0006a	79 06		 jns	 SHORT $LN51@ProcessRot
  0006c	d8 05 00 00 00
	00		 fadd	 DWORD PTR __real@4f800000
$LN51@ProcessRot:
  00072	d8 4d b8	 fmul	 DWORD PTR _fRate$[ebp]

; 1041 : 
; 1042 : 	D3DXQUATERNION qtCurRot = pOwner->GetTargetRot();

  00075	8d b7 a4 06 00
	00		 lea	 esi, DWORD PTR [edi+1700]
  0007b	8d 7d 80	 lea	 edi, DWORD PTR _qtCurRot$[ebp]
  0007e	a5		 movsd
  0007f	d9 5d b8	 fstp	 DWORD PTR _fRotateAngle$[ebp]
  00082	a5		 movsd
  00083	a5		 movsd
  00084	a5		 movsd

; 1043 : 	D3DXVECTOR3 vCurMoveDir = qtCurRot * D3DXVECTOR3(0.0f, 0.0f, -FLOAT1);

  00085	b8 01 00 00 00	 mov	 eax, 1
  0008a	0f 57 c0	 xorps	 xmm0, xmm0
  0008d	89 45 b4	 mov	 DWORD PTR tv597[ebp], eax
  00090	db 45 b4	 fild	 DWORD PTR tv597[ebp]
  00093	f3 0f 11 45 f0	 movss	 DWORD PTR $T551425[ebp], xmm0
  00098	f3 0f 11 45 f4	 movss	 DWORD PTR $T551425[ebp+4], xmm0
  0009d	85 c0		 test	 eax, eax
  0009f	79 06		 jns	 SHORT $LN52@ProcessRot
  000a1	d8 05 00 00 00
	00		 fadd	 DWORD PTR __real@4f800000
$LN52@ProcessRot:
  000a7	8b 1d 00 00 00
	00		 mov	 ebx, DWORD PTR __imp_??D@YA?AUD3DXVECTOR3@@ABUD3DXQUATERNION@@ABU0@@Z
  000ad	d9 e0		 fchs
  000af	8d 45 f0	 lea	 eax, DWORD PTR $T551425[ebp]
  000b2	d9 5d f8	 fstp	 DWORD PTR $T551425[ebp+8]
  000b5	50		 push	 eax
  000b6	8d 45 80	 lea	 eax, DWORD PTR _qtCurRot$[ebp]
  000b9	50		 push	 eax
  000ba	8d 45 e4	 lea	 eax, DWORD PTR _vCurMoveDir$[ebp]
  000bd	50		 push	 eax
  000be	ff d3		 call	 ebx
  000c0	83 c4 0c	 add	 esp, 12			; 0000000cH

; 1044 : 	D3DXVec3Normalize( &vCurMoveDir, &vCurMoveDir );

  000c3	8d 45 e4	 lea	 eax, DWORD PTR _vCurMoveDir$[ebp]
  000c6	50		 push	 eax
  000c7	50		 push	 eax
  000c8	e8 00 00 00 00	 call	 _D3DXVec3Normalize@8

; 1045 : 
; 1046 : 	// 목표에 도달체크 및 처리
; 1047 : 	float fYawD = 180.0f + 45.0f * ( m_CurDirKey - ioUserKeyInput::DKI_UP );

  000cd	8b 45 bc	 mov	 eax, DWORD PTR _this$GSCopy$[ebp]
  000d0	8b 80 48 12 00
	00		 mov	 eax, DWORD PTR [eax+4680]
  000d6	0f 57 c0	 xorps	 xmm0, xmm0
  000d9	48		 dec	 eax
  000da	f3 0f 2a c0	 cvtsi2ss xmm0, eax
  000de	0f 5a c0	 cvtps2pd xmm0, xmm0
  000e1	f2 0f 59 05 00
	00 00 00	 mulsd	 xmm0, QWORD PTR __real@4046800000000000
  000e9	f2 0f 58 05 00
	00 00 00	 addsd	 xmm0, QWORD PTR __real@4066800000000000

; 1048 : 	fYawD = ioMath::ArrangeHead( fYawD );

  000f1	51		 push	 ecx
  000f2	66 0f 5a c0	 cvtpd2ps xmm0, xmm0
  000f6	f3 0f 11 04 24	 movss	 DWORD PTR [esp], xmm0
  000fb	ff 15 00 00 00
	00		 call	 DWORD PTR __imp_?ArrangeHead@ioMath@@SAMM@Z

; 1049 : 
; 1050 : 	float fYawR = DEGtoRAD( fYawD );

  00101	dc 0d 00 00 00
	00		 fmul	 QWORD PTR __real@3f91df46a2526c7a

; 1051 : 	D3DXQUATERNION qtRotate;
; 1052 : 	D3DXQuaternionRotationYawPitchRoll( &qtRotate, fYawR, 0.0f, 0.0f );

  00107	0f 57 c0	 xorps	 xmm0, xmm0
  0010a	f3 0f 11 04 24	 movss	 DWORD PTR [esp], xmm0
  0010f	51		 push	 ecx
  00110	d9 5d bc	 fstp	 DWORD PTR _fYawR$[ebp]
  00113	51		 push	 ecx
  00114	f3 0f 11 44 24
	04		 movss	 DWORD PTR [esp+4], xmm0
  0011a	f3 0f 10 45 bc	 movss	 xmm0, DWORD PTR _fYawR$[ebp]
  0011f	8d 45 90	 lea	 eax, DWORD PTR _qtRotate$[ebp]
  00122	f3 0f 11 04 24	 movss	 DWORD PTR [esp], xmm0
  00127	50		 push	 eax
  00128	e8 00 00 00 00	 call	 _D3DXQuaternionRotationYawPitchRoll@16

; 1053 : 
; 1054 : 	D3DXVECTOR3 vTargetDir = qtRotate * D3DXVECTOR3(0.0f, 0.0f, -FLOAT1);

  0012d	b8 01 00 00 00	 mov	 eax, 1
  00132	0f 57 c0	 xorps	 xmm0, xmm0
  00135	89 45 bc	 mov	 DWORD PTR tv571[ebp], eax
  00138	db 45 bc	 fild	 DWORD PTR tv571[ebp]
  0013b	f3 0f 11 45 f0	 movss	 DWORD PTR $T551436[ebp], xmm0
  00140	f3 0f 11 45 f4	 movss	 DWORD PTR $T551436[ebp+4], xmm0
  00145	85 c0		 test	 eax, eax
  00147	79 06		 jns	 SHORT $LN53@ProcessRot
  00149	d8 05 00 00 00
	00		 fadd	 DWORD PTR __real@4f800000
$LN53@ProcessRot:
  0014f	8d 45 f0	 lea	 eax, DWORD PTR $T551436[ebp]
  00152	d9 e0		 fchs
  00154	50		 push	 eax
  00155	d9 5d f8	 fstp	 DWORD PTR $T551436[ebp+8]
  00158	8d 45 90	 lea	 eax, DWORD PTR _qtRotate$[ebp]
  0015b	50		 push	 eax
  0015c	8d 45 d8	 lea	 eax, DWORD PTR _vTargetDir$[ebp]
  0015f	50		 push	 eax
  00160	ff d3		 call	 ebx
  00162	83 c4 0c	 add	 esp, 12			; 0000000cH

; 1055 : 	D3DXVec3Normalize( &vTargetDir, &vTargetDir );

  00165	8d 45 d8	 lea	 eax, DWORD PTR _vTargetDir$[ebp]
  00168	50		 push	 eax
  00169	50		 push	 eax
  0016a	e8 00 00 00 00	 call	 _D3DXVec3Normalize@8

; 1056 : 
; 1057 : 	float fDotValue = D3DXVec3Dot( &vCurMoveDir, &vTargetDir );

  0016f	f3 0f 10 45 e8	 movss	 xmm0, DWORD PTR _vCurMoveDir$[ebp+4]
  00174	f3 0f 10 4d dc	 movss	 xmm1, DWORD PTR _vTargetDir$[ebp+4]
  00179	f3 0f 10 55 e4	 movss	 xmm2, DWORD PTR _vCurMoveDir$[ebp]
  0017e	0f 5a c9	 cvtps2pd xmm1, xmm1
  00181	0f 5a c0	 cvtps2pd xmm0, xmm0
  00184	f2 0f 59 c1	 mulsd	 xmm0, xmm1
  00188	f3 0f 10 4d d8	 movss	 xmm1, DWORD PTR _vTargetDir$[ebp]
  0018d	0f 5a c9	 cvtps2pd xmm1, xmm1
  00190	0f 5a d2	 cvtps2pd xmm2, xmm2
  00193	f2 0f 59 ca	 mulsd	 xmm1, xmm2
  00197	f3 0f 10 55 e0	 movss	 xmm2, DWORD PTR _vTargetDir$[ebp+8]
  0019c	f2 0f 58 c1	 addsd	 xmm0, xmm1
  001a0	f3 0f 10 4d ec	 movss	 xmm1, DWORD PTR _vCurMoveDir$[ebp+8]
  001a5	0f 5a c9	 cvtps2pd xmm1, xmm1
  001a8	0f 5a d2	 cvtps2pd xmm2, xmm2
  001ab	f2 0f 59 ca	 mulsd	 xmm1, xmm2
  001af	f2 0f 58 c1	 addsd	 xmm0, xmm1
  001b3	66 0f 5a c0	 cvtpd2ps xmm0, xmm0
  001b7	f3 0f 11 45 b4	 movss	 DWORD PTR _fDotValue$[ebp], xmm0

; 1058 : 	float fGapAngle = RADtoDEG( acosf(fDotValue) );

  001bc	d9 45 b4	 fld	 DWORD PTR _fDotValue$[ebp]
  001bf	e8 00 00 00 00	 call	 __CIacos
  001c4	d9 5d bc	 fstp	 DWORD PTR tv554[ebp]
  001c7	d9 45 bc	 fld	 DWORD PTR tv554[ebp]
  001ca	51		 push	 ecx
  001cb	d9 1c 24	 fstp	 DWORD PTR [esp]
  001ce	e8 00 00 00 00	 call	 ??$RADtoDEG@M@@YAMM@Z	; RADtoDEG<float>

; 1059 : 
; 1060 : 	if( fDotValue >= 0.98f )

  001d3	f3 0f 10 45 b4	 movss	 xmm0, DWORD PTR _fDotValue$[ebp]
  001d8	d9 5d bc	 fstp	 DWORD PTR _fGapAngle$[ebp]
  001db	0f 5a c0	 cvtps2pd xmm0, xmm0
  001de	66 0f 2f 05 00
	00 00 00	 comisd	 xmm0, QWORD PTR __real@3fef5c2900000000
  001e6	59		 pop	 ecx
  001e7	72 08		 jb	 SHORT $LN5@ProcessRot

; 1061 : 	{
; 1062 : 		pOwner->SetTargetRotToRotate( qtRotate, true );

  001e9	8d 45 90	 lea	 eax, DWORD PTR _qtRotate$[ebp]

; 1063 : 		return;

  001ec	e9 9d 01 00 00	 jmp	 $LN54@ProcessRot
$LN5@ProcessRot:

; 1064 : 	}
; 1065 : 
; 1066 : 	D3DXVECTOR3 vAxis;
; 1067 : 	if( fDotValue <= -0.98f )

  001f1	f3 0f 10 45 b4	 movss	 xmm0, DWORD PTR _fDotValue$[ebp]
  001f6	f2 0f 10 0d 00
	00 00 00	 movsd	 xmm1, QWORD PTR __real@bfef5c2900000000
  001fe	0f 5a c0	 cvtps2pd xmm0, xmm0
  00201	66 0f 2f c8	 comisd	 xmm1, xmm0
  00205	f3 0f 10 05 00
	00 00 00	 movss	 xmm0, DWORD PTR __mask@@NegFloat@
  0020d	72 11		 jb	 SHORT $LN4@ProcessRot

; 1068 : 	{
; 1069 : 		vAxis = ioMath::UNIT_Y;

  0020f	8b 35 00 00 00
	00		 mov	 esi, DWORD PTR __imp_?UNIT_Y@ioMath@@2UD3DXVECTOR3@@A
  00215	8d 7d c0	 lea	 edi, DWORD PTR _vAxis$[ebp]
  00218	a5		 movsd
  00219	a5		 movsd
  0021a	a5		 movsd

; 1070 : 	}
; 1071 : 	else

  0021b	e9 cd 00 00 00	 jmp	 $LN3@ProcessRot
$LN4@ProcessRot:

; 1072 : 	{
; 1073 : 		D3DXVec3Cross( &vAxis, &vTargetDir, &vCurMoveDir );

  00220	f3 0f 10 55 ec	 movss	 xmm2, DWORD PTR _vCurMoveDir$[ebp+8]
  00225	f3 0f 10 4d dc	 movss	 xmm1, DWORD PTR _vTargetDir$[ebp+4]
  0022a	f3 0f 10 5d e0	 movss	 xmm3, DWORD PTR _vTargetDir$[ebp+8]
  0022f	f3 0f 10 65 d8	 movss	 xmm4, DWORD PTR _vTargetDir$[ebp]
  00234	f3 0f 10 6d e4	 movss	 xmm5, DWORD PTR _vCurMoveDir$[ebp]
  00239	0f 5a d2	 cvtps2pd xmm2, xmm2
  0023c	0f 5a db	 cvtps2pd xmm3, xmm3
  0023f	0f 5a c9	 cvtps2pd xmm1, xmm1
  00242	f2 0f 59 ca	 mulsd	 xmm1, xmm2
  00246	f3 0f 10 55 e8	 movss	 xmm2, DWORD PTR _vCurMoveDir$[ebp+4]
  0024b	0f 5a d2	 cvtps2pd xmm2, xmm2
  0024e	f2 0f 59 d3	 mulsd	 xmm2, xmm3
  00252	f3 0f 10 5d e4	 movss	 xmm3, DWORD PTR _vCurMoveDir$[ebp]
  00257	f2 0f 5c ca	 subsd	 xmm1, xmm2
  0025b	f3 0f 10 55 e0	 movss	 xmm2, DWORD PTR _vTargetDir$[ebp+8]
  00260	0f 5a db	 cvtps2pd xmm3, xmm3
  00263	0f 5a d2	 cvtps2pd xmm2, xmm2
  00266	f2 0f 59 d3	 mulsd	 xmm2, xmm3
  0026a	f3 0f 10 5d ec	 movss	 xmm3, DWORD PTR _vCurMoveDir$[ebp+8]
  0026f	0f 5a db	 cvtps2pd xmm3, xmm3
  00272	0f 5a e4	 cvtps2pd xmm4, xmm4
  00275	f2 0f 59 dc	 mulsd	 xmm3, xmm4
  00279	f3 0f 10 65 d8	 movss	 xmm4, DWORD PTR _vTargetDir$[ebp]
  0027e	f2 0f 5c d3	 subsd	 xmm2, xmm3
  00282	f3 0f 10 5d e8	 movss	 xmm3, DWORD PTR _vCurMoveDir$[ebp+4]
  00287	0f 5a db	 cvtps2pd xmm3, xmm3
  0028a	0f 5a e4	 cvtps2pd xmm4, xmm4
  0028d	f2 0f 59 dc	 mulsd	 xmm3, xmm4
  00291	f3 0f 10 65 dc	 movss	 xmm4, DWORD PTR _vTargetDir$[ebp+4]
  00296	0f 5a e4	 cvtps2pd xmm4, xmm4
  00299	0f 5a ed	 cvtps2pd xmm5, xmm5
  0029c	f2 0f 59 e5	 mulsd	 xmm4, xmm5
  002a0	f2 0f 5c dc	 subsd	 xmm3, xmm4
  002a4	f2 0f 5a c9	 cvtsd2ss xmm1, xmm1
  002a8	f3 0f 11 4d f0	 movss	 DWORD PTR _v$558183[ebp], xmm1
  002ad	f2 0f 5a d2	 cvtsd2ss xmm2, xmm2
  002b1	f3 0f 11 55 f4	 movss	 DWORD PTR _v$558183[ebp+4], xmm2
  002b6	f2 0f 5a db	 cvtsd2ss xmm3, xmm3
  002ba	f3 0f 11 5d f8	 movss	 DWORD PTR _v$558183[ebp+8], xmm3
  002bf	8d 75 f0	 lea	 esi, DWORD PTR _v$558183[ebp]
  002c2	8d 7d c0	 lea	 edi, DWORD PTR _vAxis$[ebp]
  002c5	a5		 movsd
  002c6	a5		 movsd

; 1074 : 		D3DXVec3Normalize( &vAxis, &-vAxis );

  002c7	8d 45 f0	 lea	 eax, DWORD PTR $T551448[ebp]
  002ca	50		 push	 eax
  002cb	a5		 movsd
  002cc	8d 45 c0	 lea	 eax, DWORD PTR _vAxis$[ebp]
  002cf	0f 57 c8	 xorps	 xmm1, xmm0
  002d2	0f 57 d0	 xorps	 xmm2, xmm0
  002d5	0f 57 d8	 xorps	 xmm3, xmm0
  002d8	50		 push	 eax
  002d9	f3 0f 11 4d f0	 movss	 DWORD PTR $T551448[ebp], xmm1
  002de	f3 0f 11 55 f4	 movss	 DWORD PTR $T551448[ebp+4], xmm2
  002e3	f3 0f 11 5d f8	 movss	 DWORD PTR $T551448[ebp+8], xmm3
  002e8	e8 00 00 00 00	 call	 _D3DXVec3Normalize@8
$LN3@ProcessRot:

; 1075 : 	}
; 1076 : 
; 1077 : 	D3DXQUATERNION qtNewRot;
; 1078 : 	if( fGapAngle < fRotateAngle )

  002ed	f3 0f 10 45 bc	 movss	 xmm0, DWORD PTR _fGapAngle$[ebp]
  002f2	f3 0f 10 4d b8	 movss	 xmm1, DWORD PTR _fRotateAngle$[ebp]
  002f7	0f 5a c0	 cvtps2pd xmm0, xmm0
  002fa	0f 5a c9	 cvtps2pd xmm1, xmm1
  002fd	66 0f 2f c8	 comisd	 xmm1, xmm0

; 1079 : 		D3DXQuaternionRotationAxis( &qtNewRot, &vAxis, DEGtoRAD(fGapAngle) );

  00301	51		 push	 ecx
  00302	8d 45 c0	 lea	 eax, DWORD PTR _vAxis$[ebp]
  00305	76 07		 jbe	 SHORT $LN2@ProcessRot
  00307	f3 0f 10 45 bc	 movss	 xmm0, DWORD PTR _fGapAngle$[ebp]

; 1080 : 	else

  0030c	eb 05		 jmp	 SHORT $LN55@ProcessRot
$LN2@ProcessRot:

; 1081 : 		D3DXQuaternionRotationAxis( &qtNewRot, &vAxis, DEGtoRAD(fRotateAngle) );

  0030e	f3 0f 10 45 b8	 movss	 xmm0, DWORD PTR _fRotateAngle$[ebp]
$LN55@ProcessRot:
  00313	0f 5a c0	 cvtps2pd xmm0, xmm0
  00316	f2 0f 59 05 00
	00 00 00	 mulsd	 xmm0, QWORD PTR __real@3f91df46a2526c7a
  0031e	f2 0f 5a c0	 cvtsd2ss xmm0, xmm0
  00322	f3 0f 11 04 24	 movss	 DWORD PTR [esp], xmm0
  00327	50		 push	 eax
  00328	8d 45 a0	 lea	 eax, DWORD PTR _qtNewRot$[ebp]
  0032b	50		 push	 eax
  0032c	e8 00 00 00 00	 call	 _D3DXQuaternionRotationAxis@12

; 1082 : 
; 1083 : 	D3DXVECTOR3 vNewDir = qtNewRot * vCurMoveDir;

  00331	8d 45 e4	 lea	 eax, DWORD PTR _vCurMoveDir$[ebp]
  00334	50		 push	 eax
  00335	8d 45 a0	 lea	 eax, DWORD PTR _qtNewRot$[ebp]
  00338	50		 push	 eax
  00339	8d 45 cc	 lea	 eax, DWORD PTR _vNewDir$[ebp]
  0033c	50		 push	 eax
  0033d	ff d3		 call	 ebx
  0033f	83 c4 0c	 add	 esp, 12			; 0000000cH

; 1084 : 	D3DXVec3Normalize( &vNewDir, &vNewDir );

  00342	8d 45 cc	 lea	 eax, DWORD PTR _vNewDir$[ebp]
  00345	50		 push	 eax
  00346	50		 push	 eax
  00347	e8 00 00 00 00	 call	 _D3DXVec3Normalize@8

; 1085 : 
; 1086 : 	ioMath::CalcDirectionQuaternion( qtNewRot, -vNewDir );

  0034c	f3 0f 10 05 00
	00 00 00	 movss	 xmm0, DWORD PTR __mask@@NegFloat@
  00354	f3 0f 10 4d cc	 movss	 xmm1, DWORD PTR _vNewDir$[ebp]
  00359	0f 57 c8	 xorps	 xmm1, xmm0
  0035c	f3 0f 11 4d f0	 movss	 DWORD PTR $T551454[ebp], xmm1
  00361	f3 0f 10 4d d0	 movss	 xmm1, DWORD PTR _vNewDir$[ebp+4]
  00366	0f 57 c8	 xorps	 xmm1, xmm0
  00369	8d 45 f0	 lea	 eax, DWORD PTR $T551454[ebp]
  0036c	50		 push	 eax
  0036d	f3 0f 11 4d f4	 movss	 DWORD PTR $T551454[ebp+4], xmm1
  00372	f3 0f 10 4d d4	 movss	 xmm1, DWORD PTR _vNewDir$[ebp+8]
  00377	8d 45 a0	 lea	 eax, DWORD PTR _qtNewRot$[ebp]
  0037a	0f 57 c8	 xorps	 xmm1, xmm0
  0037d	50		 push	 eax
  0037e	f3 0f 11 4d f8	 movss	 DWORD PTR $T551454[ebp+8], xmm1
  00383	ff 15 00 00 00
	00		 call	 DWORD PTR __imp_?CalcDirectionQuaternion@ioMath@@SAXAAUD3DXQUATERNION@@ABUD3DXVECTOR3@@@Z
  00389	59		 pop	 ecx
  0038a	59		 pop	 ecx

; 1087 : 	pOwner->SetTargetRotToRotate( qtNewRot, true );

  0038b	8d 45 a0	 lea	 eax, DWORD PTR _qtNewRot$[ebp]
$LN54@ProcessRot:
  0038e	8b 4d b0	 mov	 ecx, DWORD PTR _pOwner$GSCopy$[ebp]
  00391	6a 00		 push	 0
  00393	6a 01		 push	 1
  00395	50		 push	 eax
  00396	e8 00 00 00 00	 call	 ?SetTargetRotToRotate@ioBaseChar@@QAEXABUD3DXQUATERNION@@_N1@Z ; ioBaseChar::SetTargetRotToRotate
  0039b	5b		 pop	 ebx
$LN7@ProcessRot:

; 1088 : }

  0039c	8b 4d fc	 mov	 ecx, DWORD PTR __$ArrayPad$[ebp]
  0039f	5f		 pop	 edi
  003a0	33 cd		 xor	 ecx, ebp
  003a2	5e		 pop	 esi
  003a3	e8 00 00 00 00	 call	 @__security_check_cookie@4
  003a8	c9		 leave
  003a9	c2 04 00	 ret	 4
?ProcessRotate@ioGrapplingBlowLoopSkill@@IAEXPAVioBaseChar@@@Z ENDP ; ioGrapplingBlowLoopSkill::ProcessRotate
_TEXT	ENDS
PUBLIC	??0?$vector@UStGrapInfo@ioGrapplingBlowLoopSkill@@V?$allocator@UStGrapInfo@ioGrapplingBlowLoopSkill@@@std@@@std@@QAE@XZ ; std::vector<ioGrapplingBlowLoopSkill::StGrapInfo,std::allocator<ioGrapplingBlowLoopSkill::StGrapInfo> >::vector<ioGrapplingBlowLoopSkill::StGrapInfo,std::allocator<ioGrapplingBlowLoopSkill::StGrapInfo> >
; Function compile flags: /Ogsp
; File c:\program files (x86)\microsoft visual studio 10.0\vc\include\vector
;	COMDAT ??0?$vector@UStGrapInfo@ioGrapplingBlowLoopSkill@@V?$allocator@UStGrapInfo@ioGrapplingBlowLoopSkill@@@std@@@std@@QAE@XZ
_TEXT	SEGMENT
??0?$vector@UStGrapInfo@ioGrapplingBlowLoopSkill@@V?$allocator@UStGrapInfo@ioGrapplingBlowLoopSkill@@@std@@@std@@QAE@XZ PROC ; std::vector<ioGrapplingBlowLoopSkill::StGrapInfo,std::allocator<ioGrapplingBlowLoopSkill::StGrapInfo> >::vector<ioGrapplingBlowLoopSkill::StGrapInfo,std::allocator<ioGrapplingBlowLoopSkill::StGrapInfo> >, COMDAT
; _this$ = ecx

; 507  : 		{	// construct empty vector

  00000	8b c1		 mov	 eax, ecx
  00002	33 c9		 xor	 ecx, ecx
  00004	89 08		 mov	 DWORD PTR [eax], ecx
  00006	89 48 04	 mov	 DWORD PTR [eax+4], ecx
  00009	89 48 08	 mov	 DWORD PTR [eax+8], ecx

; 508  : 		}

  0000c	c3		 ret	 0
??0?$vector@UStGrapInfo@ioGrapplingBlowLoopSkill@@V?$allocator@UStGrapInfo@ioGrapplingBlowLoopSkill@@@std@@@std@@QAE@XZ ENDP ; std::vector<ioGrapplingBlowLoopSkill::StGrapInfo,std::allocator<ioGrapplingBlowLoopSkill::StGrapInfo> >::vector<ioGrapplingBlowLoopSkill::StGrapInfo,std::allocator<ioGrapplingBlowLoopSkill::StGrapInfo> >
_TEXT	ENDS
PUBLIC	?_Buy@?$vector@UStGrapInfo@ioGrapplingBlowLoopSkill@@V?$allocator@UStGrapInfo@ioGrapplingBlowLoopSkill@@@std@@@std@@IAE_NI@Z ; std::vector<ioGrapplingBlowLoopSkill::StGrapInfo,std::allocator<ioGrapplingBlowLoopSkill::StGrapInfo> >::_Buy
; Function compile flags: /Ogsp
;	COMDAT ?_Buy@?$vector@UStGrapInfo@ioGrapplingBlowLoopSkill@@V?$allocator@UStGrapInfo@ioGrapplingBlowLoopSkill@@@std@@@std@@IAE_NI@Z
_TEXT	SEGMENT
__Capacity$ = 8						; size = 4
?_Buy@?$vector@UStGrapInfo@ioGrapplingBlowLoopSkill@@V?$allocator@UStGrapInfo@ioGrapplingBlowLoopSkill@@@std@@@std@@IAE_NI@Z PROC ; std::vector<ioGrapplingBlowLoopSkill::StGrapInfo,std::allocator<ioGrapplingBlowLoopSkill::StGrapInfo> >::_Buy, COMDAT
; _this$ = ecx

; 1250 : 		{	// allocate array with _Capacity elements

  00000	55		 push	 ebp
  00001	8b ec		 mov	 ebp, esp
  00003	56		 push	 esi

; 1251 : 		this->_Myfirst = 0;

  00004	33 c0		 xor	 eax, eax
  00006	57		 push	 edi

; 1252 : 		this->_Mylast = 0;
; 1253 : 		this->_Myend = 0;
; 1254 : 
; 1255 : 		if (_Capacity == 0)

  00007	8b 7d 08	 mov	 edi, DWORD PTR __Capacity$[ebp]
  0000a	8b f1		 mov	 esi, ecx
  0000c	89 06		 mov	 DWORD PTR [esi], eax
  0000e	89 46 04	 mov	 DWORD PTR [esi+4], eax
  00011	89 46 08	 mov	 DWORD PTR [esi+8], eax
  00014	3b f8		 cmp	 edi, eax
  00016	75 04		 jne	 SHORT $LN4@Buy

; 1256 : 			return (false);

  00018	32 c0		 xor	 al, al
  0001a	eb 2b		 jmp	 SHORT $LN5@Buy
$LN4@Buy:

; 1257 : 		else if (max_size() < _Capacity)

  0001c	81 ff ff ff ff
	01		 cmp	 edi, 33554431		; 01ffffffH
  00022	76 0b		 jbe	 SHORT $LN2@Buy

; 1258 : 			_Xlen();	// result too long

  00024	68 00 00 00 00	 push	 OFFSET ??_C@_0BD@OLBABOEK@vector?$DMT?$DO?5too?5long?$AA@
  00029	ff 15 00 00 00
	00		 call	 DWORD PTR __imp_?_Xlength_error@std@@YAXPBD@Z
$LN19@Buy:
$LN2@Buy:

; 1259 : 		else
; 1260 : 			{	// nonempty array, allocate storage
; 1261 : 			this->_Myfirst = this->_Alval.allocate(_Capacity);

  0002f	50		 push	 eax
  00030	57		 push	 edi
  00031	e8 00 00 00 00	 call	 ??$_Allocate@UStGrapInfo@ioGrapplingBlowLoopSkill@@@std@@YAPAUStGrapInfo@ioGrapplingBlowLoopSkill@@IPAU12@@Z ; std::_Allocate<ioGrapplingBlowLoopSkill::StGrapInfo>

; 1262 : 			this->_Mylast = this->_Myfirst;
; 1263 : 			this->_Myend = this->_Myfirst + _Capacity;

  00036	c1 e7 07	 shl	 edi, 7
  00039	03 f8		 add	 edi, eax
  0003b	59		 pop	 ecx
  0003c	89 06		 mov	 DWORD PTR [esi], eax
  0003e	89 46 04	 mov	 DWORD PTR [esi+4], eax
  00041	59		 pop	 ecx
  00042	89 7e 08	 mov	 DWORD PTR [esi+8], edi

; 1264 : 			}
; 1265 : 		return (true);

  00045	b0 01		 mov	 al, 1
$LN5@Buy:
  00047	5f		 pop	 edi
  00048	5e		 pop	 esi

; 1266 : 		}

  00049	5d		 pop	 ebp
  0004a	c2 04 00	 ret	 4
$LN18@Buy:
?_Buy@?$vector@UStGrapInfo@ioGrapplingBlowLoopSkill@@V?$allocator@UStGrapInfo@ioGrapplingBlowLoopSkill@@@std@@@std@@IAE_NI@Z ENDP ; std::vector<ioGrapplingBlowLoopSkill::StGrapInfo,std::allocator<ioGrapplingBlowLoopSkill::StGrapInfo> >::_Buy
_TEXT	ENDS
PUBLIC	?_Grow_to@?$vector@VioHashString@@V?$allocator@VioHashString@@@std@@@std@@IBEII@Z ; std::vector<ioHashString,std::allocator<ioHashString> >::_Grow_to
; Function compile flags: /Ogsp
;	COMDAT ?_Grow_to@?$vector@VioHashString@@V?$allocator@VioHashString@@@std@@@std@@IBEII@Z
_TEXT	SEGMENT
__Count$ = 8						; size = 4
?_Grow_to@?$vector@VioHashString@@V?$allocator@VioHashString@@@std@@@std@@IBEII@Z PROC ; std::vector<ioHashString,std::allocator<ioHashString> >::_Grow_to, COMDAT
; _this$ = ecx

; 1274 : 		{	// grow by 50% or at least to _Count

  00000	55		 push	 ebp
  00001	8b ec		 mov	 ebp, esp

; 1275 : 		size_type _Capacity = capacity();

  00003	8b 41 08	 mov	 eax, DWORD PTR [ecx+8]
  00006	2b 01		 sub	 eax, DWORD PTR [ecx]

; 1276 : 
; 1277 : 		_Capacity = max_size() - _Capacity / 2 < _Capacity
; 1278 : 			? 0 : _Capacity + _Capacity / 2;	// try to grow by 50%

  00008	ba ff ff ff 0f	 mov	 edx, 268435455		; 0fffffffH
  0000d	c1 f8 04	 sar	 eax, 4
  00010	8b c8		 mov	 ecx, eax
  00012	d1 e9		 shr	 ecx, 1
  00014	2b d1		 sub	 edx, ecx
  00016	3b d0		 cmp	 edx, eax
  00018	73 04		 jae	 SHORT $LN4@Grow_to@2
  0001a	33 c0		 xor	 eax, eax
  0001c	eb 02		 jmp	 SHORT $LN5@Grow_to@2
$LN4@Grow_to@2:
  0001e	03 c1		 add	 eax, ecx
$LN5@Grow_to@2:

; 1279 : 		if (_Capacity < _Count)

  00020	3b 45 08	 cmp	 eax, DWORD PTR __Count$[ebp]

; 1280 : 			_Capacity = _Count;

  00023	0f 42 45 08	 cmovb	 eax, DWORD PTR __Count$[ebp]

; 1281 : 		return (_Capacity);
; 1282 : 		}

  00027	5d		 pop	 ebp
  00028	c2 04 00	 ret	 4
?_Grow_to@?$vector@VioHashString@@V?$allocator@VioHashString@@@std@@@std@@IBEII@Z ENDP ; std::vector<ioHashString,std::allocator<ioHashString> >::_Grow_to
_TEXT	ENDS
PUBLIC	??$_Cons_val@V?$allocator@VioHashString@@@std@@VioHashString@@AAV3@@std@@YAXAAV?$allocator@VioHashString@@@0@PAVioHashString@@AAV2@@Z ; std::_Cons_val<std::allocator<ioHashString>,ioHashString,ioHashString &>
; Function compile flags: /Ogsp
; File c:\program files (x86)\microsoft visual studio 10.0\vc\include\xmemory
;	COMDAT ??$_Cons_val@V?$allocator@VioHashString@@@std@@VioHashString@@AAV3@@std@@YAXAAV?$allocator@VioHashString@@@0@PAVioHashString@@AAV2@@Z
_TEXT	SEGMENT
__Alval$ = 8						; size = 4
__Pdest$ = 12						; size = 4
__Src$ = 16						; size = 4
??$_Cons_val@V?$allocator@VioHashString@@@std@@VioHashString@@AAV3@@std@@YAXAAV?$allocator@VioHashString@@@0@PAVioHashString@@AAV2@@Z PROC ; std::_Cons_val<std::allocator<ioHashString>,ioHashString,ioHashString &>, COMDAT

; 279  : 	{	// construct using allocator

  00000	55		 push	 ebp
  00001	8b ec		 mov	 ebp, esp

; 280  : 	_Alval.construct(_Pdest, _STD forward<_Ty2>(_Src));

  00003	ff 75 10	 push	 DWORD PTR __Src$[ebp]
  00006	8b 4d 08	 mov	 ecx, DWORD PTR __Alval$[ebp]
  00009	ff 75 0c	 push	 DWORD PTR __Pdest$[ebp]
  0000c	e8 00 00 00 00	 call	 ??$construct@AAVioHashString@@@?$allocator@VioHashString@@@std@@QAEXPAVioHashString@@AAV2@@Z ; std::allocator<ioHashString>::construct<ioHashString &>

; 281  : 	}

  00011	5d		 pop	 ebp
  00012	c3		 ret	 0
??$_Cons_val@V?$allocator@VioHashString@@@std@@VioHashString@@AAV3@@std@@YAXAAV?$allocator@VioHashString@@@0@PAVioHashString@@AAV2@@Z ENDP ; std::_Cons_val<std::allocator<ioHashString>,ioHashString,ioHashString &>
_TEXT	ENDS
PUBLIC	??9?$_Vector_const_iterator@V?$_Vector_val@UStGrapInfo@ioGrapplingBlowLoopSkill@@V?$allocator@UStGrapInfo@ioGrapplingBlowLoopSkill@@@std@@@std@@@std@@QBE_NABV01@@Z ; std::_Vector_const_iterator<std::_Vector_val<ioGrapplingBlowLoopSkill::StGrapInfo,std::allocator<ioGrapplingBlowLoopSkill::StGrapInfo> > >::operator!=
; Function compile flags: /Ogsp
; File c:\program files (x86)\microsoft visual studio 10.0\vc\include\vector
;	COMDAT ??9?$_Vector_const_iterator@V?$_Vector_val@UStGrapInfo@ioGrapplingBlowLoopSkill@@V?$allocator@UStGrapInfo@ioGrapplingBlowLoopSkill@@@std@@@std@@@std@@QBE_NABV01@@Z
_TEXT	SEGMENT
__Right$ = 8						; size = 4
??9?$_Vector_const_iterator@V?$_Vector_val@UStGrapInfo@ioGrapplingBlowLoopSkill@@V?$allocator@UStGrapInfo@ioGrapplingBlowLoopSkill@@@std@@@std@@@std@@QBE_NABV01@@Z PROC ; std::_Vector_const_iterator<std::_Vector_val<ioGrapplingBlowLoopSkill::StGrapInfo,std::allocator<ioGrapplingBlowLoopSkill::StGrapInfo> > >::operator!=, COMDAT
; _this$ = ecx

; 207  : 		{	// test for iterator inequality

  00000	55		 push	 ebp
  00001	8b ec		 mov	 ebp, esp

; 208  : 		return (!(*this == _Right));

  00003	8b 01		 mov	 eax, DWORD PTR [ecx]
  00005	8b 55 08	 mov	 edx, DWORD PTR __Right$[ebp]
  00008	33 c9		 xor	 ecx, ecx
  0000a	3b 02		 cmp	 eax, DWORD PTR [edx]
  0000c	0f 95 c0	 setne	 al

; 209  : 		}

  0000f	5d		 pop	 ebp
  00010	c2 04 00	 ret	 4
??9?$_Vector_const_iterator@V?$_Vector_val@UStGrapInfo@ioGrapplingBlowLoopSkill@@V?$allocator@UStGrapInfo@ioGrapplingBlowLoopSkill@@@std@@@std@@@std@@QBE_NABV01@@Z ENDP ; std::_Vector_const_iterator<std::_Vector_val<ioGrapplingBlowLoopSkill::StGrapInfo,std::allocator<ioGrapplingBlowLoopSkill::StGrapInfo> > >::operator!=
_TEXT	ENDS
PUBLIC	??$_Cons_val@V?$allocator@VioHashString@@@std@@VioHashString@@V3@@std@@YAXAAV?$allocator@VioHashString@@@0@PAVioHashString@@$$QAV2@@Z ; std::_Cons_val<std::allocator<ioHashString>,ioHashString,ioHashString>
; Function compile flags: /Ogsp
; File c:\program files (x86)\microsoft visual studio 10.0\vc\include\xmemory
;	COMDAT ??$_Cons_val@V?$allocator@VioHashString@@@std@@VioHashString@@V3@@std@@YAXAAV?$allocator@VioHashString@@@0@PAVioHashString@@$$QAV2@@Z
_TEXT	SEGMENT
__Alval$ = 8						; size = 4
__Pdest$ = 12						; size = 4
__Src$ = 16						; size = 4
??$_Cons_val@V?$allocator@VioHashString@@@std@@VioHashString@@V3@@std@@YAXAAV?$allocator@VioHashString@@@0@PAVioHashString@@$$QAV2@@Z PROC ; std::_Cons_val<std::allocator<ioHashString>,ioHashString,ioHashString>, COMDAT

; 279  : 	{	// construct using allocator

  00000	55		 push	 ebp
  00001	8b ec		 mov	 ebp, esp

; 280  : 	_Alval.construct(_Pdest, _STD forward<_Ty2>(_Src));

  00003	ff 75 10	 push	 DWORD PTR __Src$[ebp]
  00006	8b 4d 08	 mov	 ecx, DWORD PTR __Alval$[ebp]
  00009	ff 75 0c	 push	 DWORD PTR __Pdest$[ebp]
  0000c	e8 00 00 00 00	 call	 ?construct@?$allocator@VioHashString@@@std@@QAEXPAVioHashString@@$$QAV3@@Z ; std::allocator<ioHashString>::construct

; 281  : 	}

  00011	5d		 pop	 ebp
  00012	c3		 ret	 0
??$_Cons_val@V?$allocator@VioHashString@@@std@@VioHashString@@V3@@std@@YAXAAV?$allocator@VioHashString@@@0@PAVioHashString@@$$QAV2@@Z ENDP ; std::_Cons_val<std::allocator<ioHashString>,ioHashString,ioHashString>
_TEXT	ENDS
PUBLIC	??$_Cons_val@V?$allocator@UForceInfo@@@std@@UForceInfo@@ABU3@@std@@YAXAAV?$allocator@UForceInfo@@@0@PAUForceInfo@@ABU2@@Z ; std::_Cons_val<std::allocator<ForceInfo>,ForceInfo,ForceInfo const &>
; Function compile flags: /Ogsp
;	COMDAT ??$_Cons_val@V?$allocator@UForceInfo@@@std@@UForceInfo@@ABU3@@std@@YAXAAV?$allocator@UForceInfo@@@0@PAUForceInfo@@ABU2@@Z
_TEXT	SEGMENT
__Alval$ = 8						; size = 4
__Pdest$ = 12						; size = 4
__Src$ = 16						; size = 4
??$_Cons_val@V?$allocator@UForceInfo@@@std@@UForceInfo@@ABU3@@std@@YAXAAV?$allocator@UForceInfo@@@0@PAUForceInfo@@ABU2@@Z PROC ; std::_Cons_val<std::allocator<ForceInfo>,ForceInfo,ForceInfo const &>, COMDAT

; 279  : 	{	// construct using allocator

  00000	55		 push	 ebp
  00001	8b ec		 mov	 ebp, esp
  00003	57		 push	 edi

; 280  : 	_Alval.construct(_Pdest, _STD forward<_Ty2>(_Src));

  00004	8b 7d 0c	 mov	 edi, DWORD PTR __Pdest$[ebp]
  00007	85 ff		 test	 edi, edi
  00009	74 08		 je	 SHORT $LN9@Cons_val
  0000b	56		 push	 esi
  0000c	8b 75 10	 mov	 esi, DWORD PTR __Src$[ebp]
  0000f	a5		 movsd
  00010	a5		 movsd
  00011	a5		 movsd
  00012	5e		 pop	 esi
$LN9@Cons_val:
  00013	5f		 pop	 edi

; 281  : 	}

  00014	5d		 pop	 ebp
  00015	c3		 ret	 0
??$_Cons_val@V?$allocator@UForceInfo@@@std@@UForceInfo@@ABU3@@std@@YAXAAV?$allocator@UForceInfo@@@0@PAUForceInfo@@ABU2@@Z ENDP ; std::_Cons_val<std::allocator<ForceInfo>,ForceInfo,ForceInfo const &>
_TEXT	ENDS
PUBLIC	?construct@?$allocator@UWeaponInfo@@@std@@QAEXPAUWeaponInfo@@ABU3@@Z ; std::allocator<WeaponInfo>::construct
; Function compile flags: /Ogsp
;	COMDAT ?construct@?$allocator@UWeaponInfo@@@std@@QAEXPAUWeaponInfo@@ABU3@@Z
_TEXT	SEGMENT
__Ptr$ = 8						; size = 4
__Val$ = 12						; size = 4
?construct@?$allocator@UWeaponInfo@@@std@@QAEXPAUWeaponInfo@@ABU3@@Z PROC ; std::allocator<WeaponInfo>::construct, COMDAT
; _this$ = ecx

; 196  : 		{	// construct object at _Ptr with value _Val

  00000	55		 push	 ebp
  00001	8b ec		 mov	 ebp, esp

; 197  : 		_Construct(_Ptr, _Val);

  00003	ff 75 0c	 push	 DWORD PTR __Val$[ebp]
  00006	ff 75 08	 push	 DWORD PTR __Ptr$[ebp]
  00009	e8 00 00 00 00	 call	 ??$_Construct@UWeaponInfo@@ABU1@@std@@YAXPAUWeaponInfo@@ABU1@@Z ; std::_Construct<WeaponInfo,WeaponInfo const &>
  0000e	59		 pop	 ecx
  0000f	59		 pop	 ecx

; 198  : 		}

  00010	5d		 pop	 ebp
  00011	c2 08 00	 ret	 8
?construct@?$allocator@UWeaponInfo@@@std@@QAEXPAUWeaponInfo@@ABU3@@Z ENDP ; std::allocator<WeaponInfo>::construct
_TEXT	ENDS
PUBLIC	??0?$vector@VioHashString@@V?$allocator@VioHashString@@@std@@@std@@QAE@XZ ; std::vector<ioHashString,std::allocator<ioHashString> >::vector<ioHashString,std::allocator<ioHashString> >
; Function compile flags: /Ogsp
; File c:\program files (x86)\microsoft visual studio 10.0\vc\include\vector
;	COMDAT ??0?$vector@VioHashString@@V?$allocator@VioHashString@@@std@@@std@@QAE@XZ
_TEXT	SEGMENT
??0?$vector@VioHashString@@V?$allocator@VioHashString@@@std@@@std@@QAE@XZ PROC ; std::vector<ioHashString,std::allocator<ioHashString> >::vector<ioHashString,std::allocator<ioHashString> >, COMDAT
; _this$ = ecx

; 507  : 		{	// construct empty vector

  00000	8b c1		 mov	 eax, ecx
  00002	33 c9		 xor	 ecx, ecx
  00004	89 08		 mov	 DWORD PTR [eax], ecx
  00006	89 48 04	 mov	 DWORD PTR [eax+4], ecx
  00009	89 48 08	 mov	 DWORD PTR [eax+8], ecx

; 508  : 		}

  0000c	c3		 ret	 0
??0?$vector@VioHashString@@V?$allocator@VioHashString@@@std@@@std@@QAE@XZ ENDP ; std::vector<ioHashString,std::allocator<ioHashString> >::vector<ioHashString,std::allocator<ioHashString> >
_TEXT	ENDS
PUBLIC	??0?$vector@UWeaponInfo@@V?$allocator@UWeaponInfo@@@std@@@std@@QAE@XZ ; std::vector<WeaponInfo,std::allocator<WeaponInfo> >::vector<WeaponInfo,std::allocator<WeaponInfo> >
; Function compile flags: /Ogsp
;	COMDAT ??0?$vector@UWeaponInfo@@V?$allocator@UWeaponInfo@@@std@@@std@@QAE@XZ
_TEXT	SEGMENT
??0?$vector@UWeaponInfo@@V?$allocator@UWeaponInfo@@@std@@@std@@QAE@XZ PROC ; std::vector<WeaponInfo,std::allocator<WeaponInfo> >::vector<WeaponInfo,std::allocator<WeaponInfo> >, COMDAT
; _this$ = ecx

; 507  : 		{	// construct empty vector

  00000	8b c1		 mov	 eax, ecx
  00002	33 c9		 xor	 ecx, ecx
  00004	89 08		 mov	 DWORD PTR [eax], ecx
  00006	89 48 04	 mov	 DWORD PTR [eax+4], ecx
  00009	89 48 08	 mov	 DWORD PTR [eax+8], ecx

; 508  : 		}

  0000c	c3		 ret	 0
??0?$vector@UWeaponInfo@@V?$allocator@UWeaponInfo@@@std@@@std@@QAE@XZ ENDP ; std::vector<WeaponInfo,std::allocator<WeaponInfo> >::vector<WeaponInfo,std::allocator<WeaponInfo> >
_TEXT	ENDS
PUBLIC	??0?$vector@UForceInfo@@V?$allocator@UForceInfo@@@std@@@std@@QAE@XZ ; std::vector<ForceInfo,std::allocator<ForceInfo> >::vector<ForceInfo,std::allocator<ForceInfo> >
; Function compile flags: /Ogsp
;	COMDAT ??0?$vector@UForceInfo@@V?$allocator@UForceInfo@@@std@@@std@@QAE@XZ
_TEXT	SEGMENT
??0?$vector@UForceInfo@@V?$allocator@UForceInfo@@@std@@@std@@QAE@XZ PROC ; std::vector<ForceInfo,std::allocator<ForceInfo> >::vector<ForceInfo,std::allocator<ForceInfo> >, COMDAT
; _this$ = ecx

; 507  : 		{	// construct empty vector

  00000	8b c1		 mov	 eax, ecx
  00002	33 c9		 xor	 ecx, ecx
  00004	89 08		 mov	 DWORD PTR [eax], ecx
  00006	89 48 04	 mov	 DWORD PTR [eax+4], ecx
  00009	89 48 08	 mov	 DWORD PTR [eax+8], ecx

; 508  : 		}

  0000c	c3		 ret	 0
??0?$vector@UForceInfo@@V?$allocator@UForceInfo@@@std@@@std@@QAE@XZ ENDP ; std::vector<ForceInfo,std::allocator<ForceInfo> >::vector<ForceInfo,std::allocator<ForceInfo> >
_TEXT	ENDS
PUBLIC	??0?$CEncrypt@M@@QAE@ABV0@@Z			; CEncrypt<float>::CEncrypt<float>
;	COMDAT xdata$x
; File d:\lost saga for developer\youtube\tutorial\source\src\lsclient\encryptvalue.h
xdata$x	SEGMENT
__unwindtable$??0?$CEncrypt@M@@QAE@ABV0@@Z DD 0ffffffffH
	DD	FLAT:__unwindfunclet$??0?$CEncrypt@M@@QAE@ABV0@@Z$0
__ehfuncinfo$??0?$CEncrypt@M@@QAE@ABV0@@Z DD 019930522H
	DD	01H
	DD	FLAT:__unwindtable$??0?$CEncrypt@M@@QAE@ABV0@@Z
	DD	2 DUP(00H)
	DD	2 DUP(00H)
	DD	00H
	DD	01H
; Function compile flags: /Ogsp
xdata$x	ENDS
;	COMDAT ??0?$CEncrypt@M@@QAE@ABV0@@Z
_TEXT	SEGMENT
_this$ = -16						; size = 4
__$EHRec$ = -12						; size = 12
_value$558424 = 8					; size = 4
_value$558419 = 8					; size = 4
_inValue$ = 8						; size = 4
??0?$CEncrypt@M@@QAE@ABV0@@Z PROC			; CEncrypt<float>::CEncrypt<float>, COMDAT
; _this$ = ecx

; 120  : 	CEncrypt( const CEncrypt<type> &inValue )   // 선언과 동시에 값을 대입하기 위해서

  00000	6a 04		 push	 4
  00002	b8 00 00 00 00	 mov	 eax, __ehhandler$??0?$CEncrypt@M@@QAE@ABV0@@Z
  00007	e8 00 00 00 00	 call	 __EH_prolog3
  0000c	8b f1		 mov	 esi, ecx
  0000e	89 75 f0	 mov	 DWORD PTR _this$[ebp], esi
  00011	8d 4e 0c	 lea	 ecx, DWORD PTR [esi+12]
  00014	c7 06 00 00 00
	00		 mov	 DWORD PTR [esi], OFFSET ??_7?$CEncrypt@M@@6B@
  0001a	e8 00 00 00 00	 call	 ??0ccddaabb@@QAE@XZ	; ccddaabb::ccddaabb
  0001f	83 65 fc 00	 and	 DWORD PTR __$EHRec$[ebp+8], 0

; 121  : 	{
; 122  : 		Init();

  00023	8b ce		 mov	 ecx, esi
  00025	e8 00 00 00 00	 call	 ?Init@?$CEncrypt@M@@AAEXXZ ; CEncrypt<float>::Init

; 123  : 		*this = inValue;

  0002a	8b 4d 08	 mov	 ecx, DWORD PTR _inValue$[ebp]
  0002d	8d 45 08	 lea	 eax, DWORD PTR _value$558419[ebp]
  00030	50		 push	 eax
  00031	e8 00 00 00 00	 call	 ?DecryptValueToPool@?$CEncrypt@M@@QAEXPAM@Z ; CEncrypt<float>::DecryptValueToPool
  00036	f3 0f 10 45 08	 movss	 xmm0, DWORD PTR _value$558419[ebp]
  0003b	8d 45 08	 lea	 eax, DWORD PTR _value$558424[ebp]
  0003e	50		 push	 eax
  0003f	8b ce		 mov	 ecx, esi
  00041	f3 0f 11 45 08	 movss	 DWORD PTR _value$558424[ebp], xmm0
  00046	e8 00 00 00 00	 call	 ?EncryptValueToPool@?$CEncrypt@M@@AAEXPBD@Z ; CEncrypt<float>::EncryptValueToPool

; 124  : 	}

  0004b	8b c6		 mov	 eax, esi
  0004d	e8 00 00 00 00	 call	 __EH_epilog3
  00052	c2 04 00	 ret	 4
_TEXT	ENDS
;	COMDAT text$x
text$x	SEGMENT
__unwindfunclet$??0?$CEncrypt@M@@QAE@ABV0@@Z$0:
  00000	8b 4d f0	 mov	 ecx, DWORD PTR _this$[ebp]
  00003	83 c1 0c	 add	 ecx, 12			; 0000000cH
  00006	e9 00 00 00 00	 jmp	 ??1ccddaabb@@UAE@XZ	; ccddaabb::~ccddaabb
__ehhandler$??0?$CEncrypt@M@@QAE@ABV0@@Z:
  0000b	8b 54 24 08	 mov	 edx, DWORD PTR [esp+8]
  0000f	8d 42 0c	 lea	 eax, DWORD PTR [edx+12]
  00012	8b 4a ec	 mov	 ecx, DWORD PTR [edx-20]
  00015	33 c8		 xor	 ecx, eax
  00017	e8 00 00 00 00	 call	 @__security_check_cookie@4
  0001c	b8 00 00 00 00	 mov	 eax, OFFSET __ehfuncinfo$??0?$CEncrypt@M@@QAE@ABV0@@Z
  00021	e9 00 00 00 00	 jmp	 ___CxxFrameHandler3
text$x	ENDS
??0?$CEncrypt@M@@QAE@ABV0@@Z ENDP			; CEncrypt<float>::CEncrypt<float>
PUBLIC	?_Buy@?$vector@VioHashString@@V?$allocator@VioHashString@@@std@@@std@@IAE_NI@Z ; std::vector<ioHashString,std::allocator<ioHashString> >::_Buy
; Function compile flags: /Ogsp
; File c:\program files (x86)\microsoft visual studio 10.0\vc\include\vector
;	COMDAT ?_Buy@?$vector@VioHashString@@V?$allocator@VioHashString@@@std@@@std@@IAE_NI@Z
_TEXT	SEGMENT
__Capacity$ = 8						; size = 4
?_Buy@?$vector@VioHashString@@V?$allocator@VioHashString@@@std@@@std@@IAE_NI@Z PROC ; std::vector<ioHashString,std::allocator<ioHashString> >::_Buy, COMDAT
; _this$ = ecx

; 1250 : 		{	// allocate array with _Capacity elements

  00000	55		 push	 ebp
  00001	8b ec		 mov	 ebp, esp
  00003	56		 push	 esi

; 1251 : 		this->_Myfirst = 0;

  00004	33 c0		 xor	 eax, eax
  00006	57		 push	 edi

; 1252 : 		this->_Mylast = 0;
; 1253 : 		this->_Myend = 0;
; 1254 : 
; 1255 : 		if (_Capacity == 0)

  00007	8b 7d 08	 mov	 edi, DWORD PTR __Capacity$[ebp]
  0000a	8b f1		 mov	 esi, ecx
  0000c	89 06		 mov	 DWORD PTR [esi], eax
  0000e	89 46 04	 mov	 DWORD PTR [esi+4], eax
  00011	89 46 08	 mov	 DWORD PTR [esi+8], eax
  00014	3b f8		 cmp	 edi, eax
  00016	75 04		 jne	 SHORT $LN4@Buy@2

; 1256 : 			return (false);

  00018	32 c0		 xor	 al, al
  0001a	eb 2b		 jmp	 SHORT $LN5@Buy@2
$LN4@Buy@2:

; 1257 : 		else if (max_size() < _Capacity)

  0001c	81 ff ff ff ff
	0f		 cmp	 edi, 268435455		; 0fffffffH
  00022	76 0b		 jbe	 SHORT $LN2@Buy@2

; 1258 : 			_Xlen();	// result too long

  00024	68 00 00 00 00	 push	 OFFSET ??_C@_0BD@OLBABOEK@vector?$DMT?$DO?5too?5long?$AA@
  00029	ff 15 00 00 00
	00		 call	 DWORD PTR __imp_?_Xlength_error@std@@YAXPBD@Z
$LN19@Buy@2:
$LN2@Buy@2:

; 1259 : 		else
; 1260 : 			{	// nonempty array, allocate storage
; 1261 : 			this->_Myfirst = this->_Alval.allocate(_Capacity);

  0002f	50		 push	 eax
  00030	57		 push	 edi
  00031	e8 00 00 00 00	 call	 ??$_Allocate@VioHashString@@@std@@YAPAVioHashString@@IPAV1@@Z ; std::_Allocate<ioHashString>

; 1262 : 			this->_Mylast = this->_Myfirst;
; 1263 : 			this->_Myend = this->_Myfirst + _Capacity;

  00036	c1 e7 04	 shl	 edi, 4
  00039	03 f8		 add	 edi, eax
  0003b	59		 pop	 ecx
  0003c	89 06		 mov	 DWORD PTR [esi], eax
  0003e	89 46 04	 mov	 DWORD PTR [esi+4], eax
  00041	59		 pop	 ecx
  00042	89 7e 08	 mov	 DWORD PTR [esi+8], edi

; 1264 : 			}
; 1265 : 		return (true);

  00045	b0 01		 mov	 al, 1
$LN5@Buy@2:
  00047	5f		 pop	 edi
  00048	5e		 pop	 esi

; 1266 : 		}

  00049	5d		 pop	 ebp
  0004a	c2 04 00	 ret	 4
$LN18@Buy@2:
?_Buy@?$vector@VioHashString@@V?$allocator@VioHashString@@@std@@@std@@IAE_NI@Z ENDP ; std::vector<ioHashString,std::allocator<ioHashString> >::_Buy
_TEXT	ENDS
PUBLIC	??9?$_Vector_const_iterator@V?$_Vector_val@VioHashString@@V?$allocator@VioHashString@@@std@@@std@@@std@@QBE_NABV01@@Z ; std::_Vector_const_iterator<std::_Vector_val<ioHashString,std::allocator<ioHashString> > >::operator!=
; Function compile flags: /Ogsp
;	COMDAT ??9?$_Vector_const_iterator@V?$_Vector_val@VioHashString@@V?$allocator@VioHashString@@@std@@@std@@@std@@QBE_NABV01@@Z
_TEXT	SEGMENT
__Right$ = 8						; size = 4
??9?$_Vector_const_iterator@V?$_Vector_val@VioHashString@@V?$allocator@VioHashString@@@std@@@std@@@std@@QBE_NABV01@@Z PROC ; std::_Vector_const_iterator<std::_Vector_val<ioHashString,std::allocator<ioHashString> > >::operator!=, COMDAT
; _this$ = ecx

; 207  : 		{	// test for iterator inequality

  00000	55		 push	 ebp
  00001	8b ec		 mov	 ebp, esp

; 208  : 		return (!(*this == _Right));

  00003	8b 01		 mov	 eax, DWORD PTR [ecx]
  00005	8b 55 08	 mov	 edx, DWORD PTR __Right$[ebp]
  00008	33 c9		 xor	 ecx, ecx
  0000a	3b 02		 cmp	 eax, DWORD PTR [edx]
  0000c	0f 95 c0	 setne	 al

; 209  : 		}

  0000f	5d		 pop	 ebp
  00010	c2 04 00	 ret	 4
??9?$_Vector_const_iterator@V?$_Vector_val@VioHashString@@V?$allocator@VioHashString@@@std@@@std@@@std@@QBE_NABV01@@Z ENDP ; std::_Vector_const_iterator<std::_Vector_val<ioHashString,std::allocator<ioHashString> > >::operator!=
_TEXT	ENDS
PUBLIC	??$_Move@PAVioHashString@@PAV1@@std@@YAPAVioHashString@@PAV1@00@Z ; std::_Move<ioHashString *,ioHashString *>
; Function compile flags: /Ogsp
; File c:\program files (x86)\microsoft visual studio 10.0\vc\include\xutility
;	COMDAT ??$_Move@PAVioHashString@@PAV1@@std@@YAPAVioHashString@@PAV1@00@Z
_TEXT	SEGMENT
__Cat$558475 = -4					; size = 1
__First$ = 8						; size = 4
__Last$ = 12						; size = 4
__Dest$ = 16						; size = 4
??$_Move@PAVioHashString@@PAV1@@std@@YAPAVioHashString@@PAV1@00@Z PROC ; std::_Move<ioHashString *,ioHashString *>, COMDAT

; 2533 : 	{	// move [_First, _Last) to [_Dest, ...), unchecked

  00000	55		 push	 ebp
  00001	8b ec		 mov	 ebp, esp
  00003	51		 push	 ecx

; 2534 : 	return (_Move(_First, _Last,
; 2535 : 		_Dest, _Ptr_cat(_First, _Dest)));

  00004	ff 75 fc	 push	 DWORD PTR __Cat$558475[ebp]
  00007	ff 75 10	 push	 DWORD PTR __Dest$[ebp]
  0000a	ff 75 0c	 push	 DWORD PTR __Last$[ebp]
  0000d	ff 75 08	 push	 DWORD PTR __First$[ebp]
  00010	e8 00 00 00 00	 call	 ??$_Move@PAVioHashString@@PAV1@@std@@YAPAVioHashString@@PAV1@00U_Nonscalar_ptr_iterator_tag@0@@Z ; std::_Move<ioHashString *,ioHashString *>
  00015	83 c4 10	 add	 esp, 16			; 00000010H

; 2536 : 	}

  00018	c9		 leave
  00019	c3		 ret	 0
??$_Move@PAVioHashString@@PAV1@@std@@YAPAVioHashString@@PAV1@00@Z ENDP ; std::_Move<ioHashString *,ioHashString *>
_TEXT	ENDS
PUBLIC	?_Buy@?$vector@UWeaponInfo@@V?$allocator@UWeaponInfo@@@std@@@std@@IAE_NI@Z ; std::vector<WeaponInfo,std::allocator<WeaponInfo> >::_Buy
; Function compile flags: /Ogsp
; File c:\program files (x86)\microsoft visual studio 10.0\vc\include\vector
;	COMDAT ?_Buy@?$vector@UWeaponInfo@@V?$allocator@UWeaponInfo@@@std@@@std@@IAE_NI@Z
_TEXT	SEGMENT
__Capacity$ = 8						; size = 4
?_Buy@?$vector@UWeaponInfo@@V?$allocator@UWeaponInfo@@@std@@@std@@IAE_NI@Z PROC ; std::vector<WeaponInfo,std::allocator<WeaponInfo> >::_Buy, COMDAT
; _this$ = ecx

; 1250 : 		{	// allocate array with _Capacity elements

  00000	55		 push	 ebp
  00001	8b ec		 mov	 ebp, esp
  00003	56		 push	 esi

; 1251 : 		this->_Myfirst = 0;

  00004	33 c0		 xor	 eax, eax
  00006	57		 push	 edi

; 1252 : 		this->_Mylast = 0;
; 1253 : 		this->_Myend = 0;
; 1254 : 
; 1255 : 		if (_Capacity == 0)

  00007	8b 7d 08	 mov	 edi, DWORD PTR __Capacity$[ebp]
  0000a	8b f1		 mov	 esi, ecx
  0000c	89 06		 mov	 DWORD PTR [esi], eax
  0000e	89 46 04	 mov	 DWORD PTR [esi+4], eax
  00011	89 46 08	 mov	 DWORD PTR [esi+8], eax
  00014	3b f8		 cmp	 edi, eax
  00016	75 04		 jne	 SHORT $LN4@Buy@3

; 1256 : 			return (false);

  00018	32 c0		 xor	 al, al
  0001a	eb 2b		 jmp	 SHORT $LN5@Buy@3
$LN4@Buy@3:

; 1257 : 		else if (max_size() < _Capacity)

  0001c	81 ff 66 66 66
	06		 cmp	 edi, 107374182		; 06666666H
  00022	76 0b		 jbe	 SHORT $LN2@Buy@3

; 1258 : 			_Xlen();	// result too long

  00024	68 00 00 00 00	 push	 OFFSET ??_C@_0BD@OLBABOEK@vector?$DMT?$DO?5too?5long?$AA@
  00029	ff 15 00 00 00
	00		 call	 DWORD PTR __imp_?_Xlength_error@std@@YAXPBD@Z
$LN19@Buy@3:
$LN2@Buy@3:

; 1259 : 		else
; 1260 : 			{	// nonempty array, allocate storage
; 1261 : 			this->_Myfirst = this->_Alval.allocate(_Capacity);

  0002f	50		 push	 eax
  00030	57		 push	 edi
  00031	e8 00 00 00 00	 call	 ??$_Allocate@UWeaponInfo@@@std@@YAPAUWeaponInfo@@IPAU1@@Z ; std::_Allocate<WeaponInfo>

; 1262 : 			this->_Mylast = this->_Myfirst;
; 1263 : 			this->_Myend = this->_Myfirst + _Capacity;

  00036	6b ff 28	 imul	 edi, 40			; 00000028H
  00039	03 f8		 add	 edi, eax
  0003b	59		 pop	 ecx
  0003c	89 06		 mov	 DWORD PTR [esi], eax
  0003e	89 46 04	 mov	 DWORD PTR [esi+4], eax
  00041	59		 pop	 ecx
  00042	89 7e 08	 mov	 DWORD PTR [esi+8], edi

; 1264 : 			}
; 1265 : 		return (true);

  00045	b0 01		 mov	 al, 1
$LN5@Buy@3:
  00047	5f		 pop	 edi
  00048	5e		 pop	 esi

; 1266 : 		}

  00049	5d		 pop	 ebp
  0004a	c2 04 00	 ret	 4
$LN18@Buy@3:
?_Buy@?$vector@UWeaponInfo@@V?$allocator@UWeaponInfo@@@std@@@std@@IAE_NI@Z ENDP ; std::vector<WeaponInfo,std::allocator<WeaponInfo> >::_Buy
_TEXT	ENDS
PUBLIC	?_Buy@?$vector@UForceInfo@@V?$allocator@UForceInfo@@@std@@@std@@IAE_NI@Z ; std::vector<ForceInfo,std::allocator<ForceInfo> >::_Buy
; Function compile flags: /Ogsp
;	COMDAT ?_Buy@?$vector@UForceInfo@@V?$allocator@UForceInfo@@@std@@@std@@IAE_NI@Z
_TEXT	SEGMENT
__Capacity$ = 8						; size = 4
?_Buy@?$vector@UForceInfo@@V?$allocator@UForceInfo@@@std@@@std@@IAE_NI@Z PROC ; std::vector<ForceInfo,std::allocator<ForceInfo> >::_Buy, COMDAT
; _this$ = ecx

; 1250 : 		{	// allocate array with _Capacity elements

  00000	55		 push	 ebp
  00001	8b ec		 mov	 ebp, esp
  00003	56		 push	 esi

; 1251 : 		this->_Myfirst = 0;

  00004	33 c0		 xor	 eax, eax
  00006	57		 push	 edi

; 1252 : 		this->_Mylast = 0;
; 1253 : 		this->_Myend = 0;
; 1254 : 
; 1255 : 		if (_Capacity == 0)

  00007	8b 7d 08	 mov	 edi, DWORD PTR __Capacity$[ebp]
  0000a	8b f1		 mov	 esi, ecx
  0000c	89 06		 mov	 DWORD PTR [esi], eax
  0000e	89 46 04	 mov	 DWORD PTR [esi+4], eax
  00011	89 46 08	 mov	 DWORD PTR [esi+8], eax
  00014	3b f8		 cmp	 edi, eax
  00016	75 04		 jne	 SHORT $LN4@Buy@4

; 1256 : 			return (false);

  00018	32 c0		 xor	 al, al
  0001a	eb 2b		 jmp	 SHORT $LN5@Buy@4
$LN4@Buy@4:

; 1257 : 		else if (max_size() < _Capacity)

  0001c	81 ff 55 55 55
	15		 cmp	 edi, 357913941		; 15555555H
  00022	76 0b		 jbe	 SHORT $LN2@Buy@4

; 1258 : 			_Xlen();	// result too long

  00024	68 00 00 00 00	 push	 OFFSET ??_C@_0BD@OLBABOEK@vector?$DMT?$DO?5too?5long?$AA@
  00029	ff 15 00 00 00
	00		 call	 DWORD PTR __imp_?_Xlength_error@std@@YAXPBD@Z
$LN19@Buy@4:
$LN2@Buy@4:

; 1259 : 		else
; 1260 : 			{	// nonempty array, allocate storage
; 1261 : 			this->_Myfirst = this->_Alval.allocate(_Capacity);

  0002f	50		 push	 eax
  00030	57		 push	 edi
  00031	e8 00 00 00 00	 call	 ??$_Allocate@UForceInfo@@@std@@YAPAUForceInfo@@IPAU1@@Z ; std::_Allocate<ForceInfo>

; 1262 : 			this->_Mylast = this->_Myfirst;
; 1263 : 			this->_Myend = this->_Myfirst + _Capacity;

  00036	6b ff 0c	 imul	 edi, 12			; 0000000cH
  00039	03 f8		 add	 edi, eax
  0003b	59		 pop	 ecx
  0003c	89 06		 mov	 DWORD PTR [esi], eax
  0003e	89 46 04	 mov	 DWORD PTR [esi+4], eax
  00041	59		 pop	 ecx
  00042	89 7e 08	 mov	 DWORD PTR [esi+8], edi

; 1264 : 			}
; 1265 : 		return (true);

  00045	b0 01		 mov	 al, 1
$LN5@Buy@4:
  00047	5f		 pop	 edi
  00048	5e		 pop	 esi

; 1266 : 		}

  00049	5d		 pop	 ebp
  0004a	c2 04 00	 ret	 4
$LN18@Buy@4:
?_Buy@?$vector@UForceInfo@@V?$allocator@UForceInfo@@@std@@@std@@IAE_NI@Z ENDP ; std::vector<ForceInfo,std::allocator<ForceInfo> >::_Buy
_TEXT	ENDS
PUBLIC	??9?$_Vector_const_iterator@V?$_Vector_val@UWeaponInfo@@V?$allocator@UWeaponInfo@@@std@@@std@@@std@@QBE_NABV01@@Z ; std::_Vector_const_iterator<std::_Vector_val<WeaponInfo,std::allocator<WeaponInfo> > >::operator!=
; Function compile flags: /Ogsp
;	COMDAT ??9?$_Vector_const_iterator@V?$_Vector_val@UWeaponInfo@@V?$allocator@UWeaponInfo@@@std@@@std@@@std@@QBE_NABV01@@Z
_TEXT	SEGMENT
__Right$ = 8						; size = 4
??9?$_Vector_const_iterator@V?$_Vector_val@UWeaponInfo@@V?$allocator@UWeaponInfo@@@std@@@std@@@std@@QBE_NABV01@@Z PROC ; std::_Vector_const_iterator<std::_Vector_val<WeaponInfo,std::allocator<WeaponInfo> > >::operator!=, COMDAT
; _this$ = ecx

; 207  : 		{	// test for iterator inequality

  00000	55		 push	 ebp
  00001	8b ec		 mov	 ebp, esp

; 208  : 		return (!(*this == _Right));

  00003	8b 01		 mov	 eax, DWORD PTR [ecx]
  00005	8b 55 08	 mov	 edx, DWORD PTR __Right$[ebp]
  00008	33 c9		 xor	 ecx, ecx
  0000a	3b 02		 cmp	 eax, DWORD PTR [edx]
  0000c	0f 95 c0	 setne	 al

; 209  : 		}

  0000f	5d		 pop	 ebp
  00010	c2 04 00	 ret	 4
??9?$_Vector_const_iterator@V?$_Vector_val@UWeaponInfo@@V?$allocator@UWeaponInfo@@@std@@@std@@@std@@QBE_NABV01@@Z ENDP ; std::_Vector_const_iterator<std::_Vector_val<WeaponInfo,std::allocator<WeaponInfo> > >::operator!=
_TEXT	ENDS
PUBLIC	??9?$_Vector_const_iterator@V?$_Vector_val@UForceInfo@@V?$allocator@UForceInfo@@@std@@@std@@@std@@QBE_NABV01@@Z ; std::_Vector_const_iterator<std::_Vector_val<ForceInfo,std::allocator<ForceInfo> > >::operator!=
; Function compile flags: /Ogsp
;	COMDAT ??9?$_Vector_const_iterator@V?$_Vector_val@UForceInfo@@V?$allocator@UForceInfo@@@std@@@std@@@std@@QBE_NABV01@@Z
_TEXT	SEGMENT
__Right$ = 8						; size = 4
??9?$_Vector_const_iterator@V?$_Vector_val@UForceInfo@@V?$allocator@UForceInfo@@@std@@@std@@@std@@QBE_NABV01@@Z PROC ; std::_Vector_const_iterator<std::_Vector_val<ForceInfo,std::allocator<ForceInfo> > >::operator!=, COMDAT
; _this$ = ecx

; 207  : 		{	// test for iterator inequality

  00000	55		 push	 ebp
  00001	8b ec		 mov	 ebp, esp

; 208  : 		return (!(*this == _Right));

  00003	8b 01		 mov	 eax, DWORD PTR [ecx]
  00005	8b 55 08	 mov	 edx, DWORD PTR __Right$[ebp]
  00008	33 c9		 xor	 ecx, ecx
  0000a	3b 02		 cmp	 eax, DWORD PTR [edx]
  0000c	0f 95 c0	 setne	 al

; 209  : 		}

  0000f	5d		 pop	 ebp
  00010	c2 04 00	 ret	 4
??9?$_Vector_const_iterator@V?$_Vector_val@UForceInfo@@V?$allocator@UForceInfo@@@std@@@std@@@std@@QBE_NABV01@@Z ENDP ; std::_Vector_const_iterator<std::_Vector_val<ForceInfo,std::allocator<ForceInfo> > >::operator!=
_TEXT	ENDS
PUBLIC	??$_Dest_val@V?$allocator@UForceInfo@@@std@@UForceInfo@@@std@@YAXAAV?$allocator@UForceInfo@@@0@PAUForceInfo@@@Z ; std::_Dest_val<std::allocator<ForceInfo>,ForceInfo>
; Function compile flags: /Ogsp
; File c:\program files (x86)\microsoft visual studio 10.0\vc\include\xmemory
;	COMDAT ??$_Dest_val@V?$allocator@UForceInfo@@@std@@UForceInfo@@@std@@YAXAAV?$allocator@UForceInfo@@@0@PAUForceInfo@@@Z
_TEXT	SEGMENT
__Alval$ = 8						; size = 4
__Pdest$ = 12						; size = 4
??$_Dest_val@V?$allocator@UForceInfo@@@std@@UForceInfo@@@std@@YAXAAV?$allocator@UForceInfo@@@0@PAUForceInfo@@@Z PROC ; std::_Dest_val<std::allocator<ForceInfo>,ForceInfo>, COMDAT

; 287  : 	_Alval.destroy(_Pdest);
; 288  : 	}

  00000	c3		 ret	 0
??$_Dest_val@V?$allocator@UForceInfo@@@std@@UForceInfo@@@std@@YAXAAV?$allocator@UForceInfo@@@0@PAUForceInfo@@@Z ENDP ; std::_Dest_val<std::allocator<ForceInfo>,ForceInfo>
_TEXT	ENDS
PUBLIC	?destroy@?$allocator@VioHashString@@@std@@QAEXPAVioHashString@@@Z ; std::allocator<ioHashString>::destroy
; Function compile flags: /Ogsp
;	COMDAT ?destroy@?$allocator@VioHashString@@@std@@QAEXPAVioHashString@@@Z
_TEXT	SEGMENT
__Ptr$ = 8						; size = 4
?destroy@?$allocator@VioHashString@@@std@@QAEXPAVioHashString@@@Z PROC ; std::allocator<ioHashString>::destroy, COMDAT
; _this$ = ecx

; 212  : 		{	// destroy object at _Ptr

  00000	55		 push	 ebp
  00001	8b ec		 mov	 ebp, esp

; 213  : 		_Destroy(_Ptr);

  00003	8b 4d 08	 mov	 ecx, DWORD PTR __Ptr$[ebp]
  00006	ff 15 00 00 00
	00		 call	 DWORD PTR __imp_??1ioHashString@@QAE@XZ

; 214  : 		}

  0000c	5d		 pop	 ebp
  0000d	c2 04 00	 ret	 4
?destroy@?$allocator@VioHashString@@@std@@QAEXPAVioHashString@@@Z ENDP ; std::allocator<ioHashString>::destroy
_TEXT	ENDS
PUBLIC	?destroy@?$allocator@UWeaponInfo@@@std@@QAEXPAUWeaponInfo@@@Z ; std::allocator<WeaponInfo>::destroy
; Function compile flags: /Ogsp
;	COMDAT ?destroy@?$allocator@UWeaponInfo@@@std@@QAEXPAUWeaponInfo@@@Z
_TEXT	SEGMENT
__Ptr$ = 8						; size = 4
?destroy@?$allocator@UWeaponInfo@@@std@@QAEXPAUWeaponInfo@@@Z PROC ; std::allocator<WeaponInfo>::destroy, COMDAT
; _this$ = ecx

; 212  : 		{	// destroy object at _Ptr

  00000	55		 push	 ebp
  00001	8b ec		 mov	 ebp, esp

; 213  : 		_Destroy(_Ptr);

  00003	8b 4d 08	 mov	 ecx, DWORD PTR __Ptr$[ebp]
  00006	83 c1 08	 add	 ecx, 8
  00009	ff 15 00 00 00
	00		 call	 DWORD PTR __imp_??1ioHashString@@QAE@XZ

; 214  : 		}

  0000f	5d		 pop	 ebp
  00010	c2 04 00	 ret	 4
?destroy@?$allocator@UWeaponInfo@@@std@@QAEXPAUWeaponInfo@@@Z ENDP ; std::allocator<WeaponInfo>::destroy
_TEXT	ENDS
PUBLIC	??$_Cons_val@V?$allocator@VioHashString@@@std@@VioHashString@@ABV3@@std@@YAXAAV?$allocator@VioHashString@@@0@PAVioHashString@@ABV2@@Z ; std::_Cons_val<std::allocator<ioHashString>,ioHashString,ioHashString const &>
; Function compile flags: /Ogsp
;	COMDAT ??$_Cons_val@V?$allocator@VioHashString@@@std@@VioHashString@@ABV3@@std@@YAXAAV?$allocator@VioHashString@@@0@PAVioHashString@@ABV2@@Z
_TEXT	SEGMENT
__Alval$ = 8						; size = 4
__Pdest$ = 12						; size = 4
__Src$ = 16						; size = 4
??$_Cons_val@V?$allocator@VioHashString@@@std@@VioHashString@@ABV3@@std@@YAXAAV?$allocator@VioHashString@@@0@PAVioHashString@@ABV2@@Z PROC ; std::_Cons_val<std::allocator<ioHashString>,ioHashString,ioHashString const &>, COMDAT

; 279  : 	{	// construct using allocator

  00000	55		 push	 ebp
  00001	8b ec		 mov	 ebp, esp

; 280  : 	_Alval.construct(_Pdest, _STD forward<_Ty2>(_Src));

  00003	ff 75 10	 push	 DWORD PTR __Src$[ebp]
  00006	ff 75 0c	 push	 DWORD PTR __Pdest$[ebp]
  00009	e8 00 00 00 00	 call	 ??$_Construct@VioHashString@@ABV1@@std@@YAXPAVioHashString@@ABV1@@Z ; std::_Construct<ioHashString,ioHashString const &>
  0000e	59		 pop	 ecx
  0000f	59		 pop	 ecx

; 281  : 	}

  00010	5d		 pop	 ebp
  00011	c3		 ret	 0
??$_Cons_val@V?$allocator@VioHashString@@@std@@VioHashString@@ABV3@@std@@YAXAAV?$allocator@VioHashString@@@0@PAVioHashString@@ABV2@@Z ENDP ; std::_Cons_val<std::allocator<ioHashString>,ioHashString,ioHashString const &>
_TEXT	ENDS
PUBLIC	_pStage$GSCopy$
PUBLIC	__$ArrayPad$
PUBLIC	?OnProcessState@ioGrapplingBlowLoopSkill@@UAEXPAVioBaseChar@@PAVioPlayStage@@@Z ; ioGrapplingBlowLoopSkill::OnProcessState
EXTRN	?GetBaseChar@ioPlayStage@@QAEPAVioBaseChar@@ABVioHashString@@@Z:PROC ; ioPlayStage::GetBaseChar
EXTRN	??6SP2Packet@@QAEAAV0@ABUD3DXVECTOR3@@@Z:PROC	; SP2Packet::operator<<
EXTRN	?IsAttackKey@ioBaseChar@@QBE_NXZ:PROC		; ioBaseChar::IsAttackKey
;	COMDAT xdata$x
; File d:\lost saga for developer\youtube\tutorial\source\src\lsclient\iobasechar.h
xdata$x	SEGMENT
__unwindtable$?OnProcessState@ioGrapplingBlowLoopSkill@@UAEXPAVioBaseChar@@PAVioPlayStage@@@Z DD 0ffffffffH
	DD	FLAT:__unwindfunclet$?OnProcessState@ioGrapplingBlowLoopSkill@@UAEXPAVioBaseChar@@PAVioPlayStage@@@Z$0
	DD	0ffffffffH
	DD	FLAT:__unwindfunclet$?OnProcessState@ioGrapplingBlowLoopSkill@@UAEXPAVioBaseChar@@PAVioPlayStage@@@Z$1
__ehfuncinfo$?OnProcessState@ioGrapplingBlowLoopSkill@@UAEXPAVioBaseChar@@PAVioPlayStage@@@Z DD 019930522H
	DD	02H
	DD	FLAT:__unwindtable$?OnProcessState@ioGrapplingBlowLoopSkill@@UAEXPAVioBaseChar@@PAVioPlayStage@@@Z
	DD	2 DUP(00H)
	DD	2 DUP(00H)
	DD	00H
	DD	01H
; Function compile flags: /Ogsp
; File d:\lost saga for developer\youtube\tutorial\source\src\lsclient\iograpplingblowloopskill.cpp
xdata$x	ENDS
;	COMDAT ?OnProcessState@ioGrapplingBlowLoopSkill@@UAEXPAVioBaseChar@@PAVioPlayStage@@@Z
_TEXT	SEGMENT
_pStage$GSCopy$ = -65604				; size = 4
_kPacket$551064 = -65600				; size = 32792
_kPacket$551077 = -32808				; size = 32792
__$ArrayPad$ = -16					; size = 4
__$EHRec$ = -12						; size = 12
_pChar$ = 8						; size = 4
_pStage$ = 12						; size = 4
?OnProcessState@ioGrapplingBlowLoopSkill@@UAEXPAVioBaseChar@@PAVioPlayStage@@@Z PROC ; ioGrapplingBlowLoopSkill::OnProcessState, COMDAT
; _this$ = ecx

; 182  : {

  00000	55		 push	 ebp
  00001	8b ec		 mov	 ebp, esp
  00003	6a ff		 push	 -1
  00005	68 00 00 00 00	 push	 __ehhandler$?OnProcessState@ioGrapplingBlowLoopSkill@@UAEXPAVioBaseChar@@PAVioPlayStage@@@Z
  0000a	64 a1 00 00 00
	00		 mov	 eax, DWORD PTR fs:0
  00010	50		 push	 eax
  00011	b8 38 00 01 00	 mov	 eax, 65592		; 00010038H
  00016	e8 00 00 00 00	 call	 __chkstk
  0001b	a1 00 00 00 00	 mov	 eax, DWORD PTR ___security_cookie
  00020	33 c5		 xor	 eax, ebp
  00022	89 45 f0	 mov	 DWORD PTR __$ArrayPad$[ebp], eax
  00025	53		 push	 ebx
  00026	56		 push	 esi
  00027	57		 push	 edi
  00028	50		 push	 eax
  00029	8d 45 f4	 lea	 eax, DWORD PTR __$EHRec$[ebp]
  0002c	64 a3 00 00 00
	00		 mov	 DWORD PTR fs:0, eax
  00032	8b 45 0c	 mov	 eax, DWORD PTR _pStage$[ebp]
  00035	8b 7d 08	 mov	 edi, DWORD PTR _pChar$[ebp]
  00038	8b f1		 mov	 esi, ecx

; 185  : 	{
; 186  : 	case SS_NONE:
; 187  : 		{
; 188  : 			DWORD dwPreDelay = GetPreDelayTime();

  0003a	89 85 bc ff fe
	ff		 mov	 DWORD PTR _pStage$GSCopy$[ebp], eax
  00040	ff 15 00 00 00
	00		 call	 DWORD PTR __imp_?GetSingleton@ioFrameTimer@@SAAAV1@XZ
  00046	8b c8		 mov	 ecx, eax
  00048	ff 15 00 00 00
	00		 call	 DWORD PTR __imp_?GetLoopSec@ioFrameTimer@@QBEKXZ
  0004e	8b d8		 mov	 ebx, eax
  00050	8b 86 fc 10 00
	00		 mov	 eax, DWORD PTR [esi+4348]
  00056	83 e8 00	 sub	 eax, 0
  00059	0f 84 ce 02 00
	00		 je	 $LN29@OnProcessS

; 183  : 	DWORD dwCurTime = FRAMEGETTIME();
; 184  : 	switch( m_SkillState )

  0005f	48		 dec	 eax
  00060	0f 84 eb 01 00
	00		 je	 $LN25@OnProcessS
  00066	48		 dec	 eax
  00067	48		 dec	 eax
  00068	0f 84 63 01 00
	00		 je	 $LN19@OnProcessS
  0006e	48		 dec	 eax
  0006f	0f 85 fb 02 00
	00		 jne	 $LN26@OnProcessS

; 271  : 	case SS_LAND_ATTACK:
; 272  : 		{
; 273  : 			if( pChar->IsNeedProcess() )

  00075	8b 07		 mov	 eax, DWORD PTR [edi]
  00077	8b cf		 mov	 ecx, edi
  00079	ff 90 00 01 00
	00		 call	 DWORD PTR [eax+256]
  0007f	84 c0		 test	 al, al
  00081	0f 84 dc 00 00
	00		 je	 $LN9@OnProcessS

; 274  : 			{
; 275  : 				if( m_nCurJumpCnt < m_nMaxJmnpCnt )

  00087	8b 86 e8 10 00
	00		 mov	 eax, DWORD PTR [esi+4328]
  0008d	3b 86 e4 10 00
	00		 cmp	 eax, DWORD PTR [esi+4324]
  00093	0f 8d ca 00 00
	00		 jge	 $LN9@OnProcessS

; 276  : 				{
; 277  : 					if( m_dwEnableReserveTime > dwCurTime )

  00099	39 9e dc 02 00
	00		 cmp	 DWORD PTR [esi+732], ebx
  0009f	0f 86 be 00 00
	00		 jbe	 $LN9@OnProcessS

; 278  : 					{
; 279  : 						if( pChar->IsAttackKey() && !m_bReserveJumping )

  000a5	8b cf		 mov	 ecx, edi
  000a7	e8 00 00 00 00	 call	 ?IsAttackKey@ioBaseChar@@QBE_NXZ ; ioBaseChar::IsAttackKey
  000ac	84 c0		 test	 al, al
  000ae	0f 84 af 00 00
	00		 je	 $LN9@OnProcessS
  000b4	80 be 54 12 00
	00 00		 cmp	 BYTE PTR [esi+4692], 0
  000bb	0f 85 a2 00 00
	00		 jne	 $LN9@OnProcessS

; 280  : 						{
; 281  : 							m_bReserveJumping = true;

  000c1	c6 86 54 12 00
	00 01		 mov	 BYTE PTR [esi+4692], 1

; 282  : 							//SendPacket
; 283  : 							if( pChar->IsNeedSendNetwork() )

  000c8	8b 07		 mov	 eax, DWORD PTR [edi]
  000ca	8b cf		 mov	 ecx, edi
  000cc	ff 90 04 01 00
	00		 call	 DWORD PTR [eax+260]
  000d2	84 c0		 test	 al, al
  000d4	0f 84 89 00 00
	00		 je	 $LN9@OnProcessS

; 284  : 							{
; 285  : 								SP2Packet kPacket( CUPK_SKILL_EXTRA_INFO );

  000da	68 39 41 00 00	 push	 16697			; 00004139H
  000df	8d 8d d8 7f ff
	ff		 lea	 ecx, DWORD PTR _kPacket$551077[ebp]
  000e5	e8 00 00 00 00	 call	 ??0SP2Packet@@QAE@K@Z	; SP2Packet::SP2Packet

; 286  : 								kPacket << pChar->GetCharName();

  000ea	8d 87 d4 02 00
	00		 lea	 eax, DWORD PTR [edi+724]
  000f0	50		 push	 eax
  000f1	8d 8d d8 7f ff
	ff		 lea	 ecx, DWORD PTR _kPacket$551077[ebp]
  000f7	c7 45 fc 01 00
	00 00		 mov	 DWORD PTR __$EHRec$[ebp+8], 1
  000fe	e8 00 00 00 00	 call	 ??6SP2Packet@@QAEAAV0@ABVioHashString@@@Z ; SP2Packet::operator<<

; 287  : 								kPacket << GetName();

  00103	8d 46 24	 lea	 eax, DWORD PTR [esi+36]
  00106	50		 push	 eax
  00107	8d 8d d8 7f ff
	ff		 lea	 ecx, DWORD PTR _kPacket$551077[ebp]
  0010d	e8 00 00 00 00	 call	 ??6SP2Packet@@QAEAAV0@ABVioHashString@@@Z ; SP2Packet::operator<<

; 288  : 								kPacket << SS_JUMP_RESERVED;

  00112	6a 08		 push	 8
  00114	8d 8d d8 7f ff
	ff		 lea	 ecx, DWORD PTR _kPacket$551077[ebp]
  0011a	e8 00 00 00 00	 call	 ??6SP2Packet@@QAEAAV0@H@Z ; SP2Packet::operator<<

; 289  : 								kPacket << pChar->GetTargetRot();

  0011f	8d 87 a4 06 00
	00		 lea	 eax, DWORD PTR [edi+1700]
  00125	50		 push	 eax
  00126	8d 8d d8 7f ff
	ff		 lea	 ecx, DWORD PTR _kPacket$551077[ebp]
  0012c	e8 00 00 00 00	 call	 ??6SP2Packet@@QAEAAV0@ABUD3DXQUATERNION@@@Z ; SP2Packet::operator<<

; 290  : 								kPacket << pChar->GetWorldPosition();

  00131	8b 07		 mov	 eax, DWORD PTR [edi]
  00133	8b cf		 mov	 ecx, edi
  00135	ff 50 70	 call	 DWORD PTR [eax+112]
  00138	50		 push	 eax
  00139	8d 8d d8 7f ff
	ff		 lea	 ecx, DWORD PTR _kPacket$551077[ebp]
  0013f	e8 00 00 00 00	 call	 ??6SP2Packet@@QAEAAV0@ABUD3DXVECTOR3@@@Z ; SP2Packet::operator<<

; 291  : 								P2PNetwork::SendToAllPlayingUser( kPacket );

  00144	8d 85 d8 7f ff
	ff		 lea	 eax, DWORD PTR _kPacket$551077[ebp]
  0014a	6a 00		 push	 0
  0014c	50		 push	 eax
  0014d	e8 00 00 00 00	 call	 ?SendToAllPlayingUser@P2PNetwork@@YAXAAVSP2Packet@@PAVioBaseChar@@@Z ; P2PNetwork::SendToAllPlayingUser

; 292  : 							}

  00152	83 4d fc ff	 or	 DWORD PTR __$EHRec$[ebp+8], -1
  00156	59		 pop	 ecx
  00157	59		 pop	 ecx
  00158	8d 8d d8 7f ff
	ff		 lea	 ecx, DWORD PTR _kPacket$551077[ebp]
  0015e	e8 00 00 00 00	 call	 ??1SP2Packet@@UAE@XZ	; SP2Packet::~SP2Packet
$LN9@OnProcessS:

; 293  : 							//SS_JUMP_RESERVED
; 294  : 						}
; 295  : 					}
; 296  : 				}
; 297  : 			}
; 298  : 
; 299  : 			if( dwCurTime > m_dwMotionEndTime )

  00163	3b 9e d8 02 00
	00		 cmp	 ebx, DWORD PTR [esi+728]
  00169	0f 86 01 02 00
	00		 jbe	 $LN26@OnProcessS

; 300  : 			{
; 301  : 				ioBaseChar *pTarget = pStage->GetBaseChar( m_GrapplingTargetName );

  0016f	8b 8d bc ff fe
	ff		 mov	 ecx, DWORD PTR _pStage$GSCopy$[ebp]
  00175	8d 86 70 11 00
	00		 lea	 eax, DWORD PTR [esi+4464]
  0017b	50		 push	 eax
  0017c	e8 00 00 00 00	 call	 ?GetBaseChar@ioPlayStage@@QAEPAVioBaseChar@@ABVioHashString@@@Z ; ioPlayStage::GetBaseChar

; 302  : 				if( !pTarget || pTarget->GetState() != CS_GRAPPLING_WOUNDED_SKILL )

  00181	85 c0		 test	 eax, eax
  00183	74 48		 je	 SHORT $LN6@OnProcessS
  00185	80 b8 10 03 00
	00 43		 cmp	 BYTE PTR [eax+784], 67	; 00000043H
  0018c	75 3f		 jne	 SHORT $LN6@OnProcessS

; 306  : 				}
; 307  : 
; 308  : 				if( m_nCurJumpCnt >= m_nMaxJmnpCnt )

  0018e	8b 86 e8 10 00
	00		 mov	 eax, DWORD PTR [esi+4328]
  00194	3b 86 e4 10 00
	00		 cmp	 eax, DWORD PTR [esi+4324]

; 309  : 				{
; 310  : 					SetSkillEndState( pChar, false );
; 311  : 					return;

  0019a	7d 31		 jge	 SHORT $LN6@OnProcessS

; 312  : 				}
; 313  : 
; 314  : 				if( m_bReserveJumping )

  0019c	80 be 54 12 00
	00 00		 cmp	 BYTE PTR [esi+4692], 0
  001a3	74 14		 je	 SHORT $LN4@OnProcessS

; 315  : 				{
; 316  : 					SetSkillLoopState_MultiJump( pChar, m_nCurJumpCnt );

  001a5	50		 push	 eax
  001a6	57		 push	 edi
  001a7	8b ce		 mov	 ecx, esi
  001a9	e8 00 00 00 00	 call	 ?SetSkillLoopState_MultiJump@ioGrapplingBlowLoopSkill@@IAEXPAVioBaseChar@@H@Z ; ioGrapplingBlowLoopSkill::SetSkillLoopState_MultiJump

; 317  : 					m_nCurJumpCnt++;

  001ae	ff 86 e8 10 00
	00		 inc	 DWORD PTR [esi+4328]
  001b4	e9 b7 01 00 00	 jmp	 $LN26@OnProcessS
$LN4@OnProcessS:

; 318  : 				}
; 319  : 				else if( pChar->IsNeedProcess() )

  001b9	8b 07		 mov	 eax, DWORD PTR [edi]
  001bb	8b cf		 mov	 ecx, edi
  001bd	ff 90 00 01 00
	00		 call	 DWORD PTR [eax+256]
  001c3	84 c0		 test	 al, al
  001c5	0f 84 a5 01 00
	00		 je	 $LN26@OnProcessS

; 320  : 				{
; 321  : 					SetSkillEndState( pChar, true );
; 322  : 					return;

  001cb	eb 52		 jmp	 SHORT $LN57@OnProcessS
$LN6@OnProcessS:

; 303  : 				{
; 304  : 					SetSkillEndState( pChar, false );

  001cd	6a 00		 push	 0

; 305  : 					return;

  001cf	eb 50		 jmp	 SHORT $LN56@OnProcessS
$LN19@OnProcessS:

; 226  : 	case SS_ACTION:
; 227  : 		break;
; 228  : 	case SS_LOOP:
; 229  : 		{
; 230  : 			// Target 유효 체크
; 231  : 			/*ioBaseChar *pTarget = pStage->GetBaseChar( m_GrapplingTargetName );
; 232  : 			if( pTarget )
; 233  : 			{
; 234  : 				if( m_dwSkillLoopStartTime+g_App.GetGrapplingCheckDelay() < dwCurTime &&
; 235  : 					pTarget->GetState() != CS_GRAPPLING_WOUNDED_SKILL )
; 236  : 				{
; 237  : 					m_SkillState = SS_JUMP;
; 238  : 					return;
; 239  : 				}
; 240  : 			}
; 241  : 			else
; 242  : 			{
; 243  : 				m_SkillState = SS_JUMP;
; 244  : 				return;
; 245  : 			}*/
; 246  : 
; 247  : 			if( m_fCharJumpPower > 0.0f )

  001d1	f3 0f 10 86 10
	12 00 00	 movss	 xmm0, DWORD PTR [esi+4624]
  001d9	0f 2f 05 00 00
	00 00		 comiss	 xmm0, DWORD PTR __real@00000000
  001e0	76 27		 jbe	 SHORT $LN18@OnProcessS

; 248  : 			{
; 249  : 				if( CheckLanding( pChar ) )//|| CheckLanding( pTarget) )

  001e2	57		 push	 edi
  001e3	8b ce		 mov	 ecx, esi
  001e5	e8 00 00 00 00	 call	 ?CheckLanding@ioGrapplingBlowLoopSkill@@IAE_NPAVioBaseChar@@@Z ; ioGrapplingBlowLoopSkill::CheckLanding
  001ea	84 c0		 test	 al, al
  001ec	74 40		 je	 SHORT $LN15@OnProcessS

; 250  : 				{
; 251  : 					//SetSkillEndState( pChar, true );
; 252  : 					//SetSkillLoopState_Test( pChar );
; 253  : 					SetSkillLandAttackState( pChar, max( m_nCurJumpCnt - 1, 0 ) );

  001ee	8b 86 e8 10 00
	00		 mov	 eax, DWORD PTR [esi+4328]
  001f4	48		 dec	 eax
  001f5	85 c0		 test	 eax, eax
  001f7	7f 02		 jg	 SHORT $LN35@OnProcessS
  001f9	33 c0		 xor	 eax, eax
$LN35@OnProcessS:
  001fb	50		 push	 eax
  001fc	57		 push	 edi
  001fd	8b ce		 mov	 ecx, esi
  001ff	e8 00 00 00 00	 call	 ?SetSkillLandAttackState@ioGrapplingBlowLoopSkill@@IAEXPAVioBaseChar@@H@Z ; ioGrapplingBlowLoopSkill::SetSkillLandAttackState

; 254  : 					return;

  00204	e9 67 01 00 00	 jmp	 $LN26@OnProcessS
$LN18@OnProcessS:

; 255  : 				}
; 256  : 			}
; 257  : 			else if( m_dwSkillLoopEndTime < dwCurTime && pChar->IsNeedProcess() )

  00209	39 9e 04 11 00
	00		 cmp	 DWORD PTR [esi+4356], ebx
  0020f	73 1d		 jae	 SHORT $LN15@OnProcessS
  00211	8b 07		 mov	 eax, DWORD PTR [edi]
  00213	8b cf		 mov	 ecx, edi
  00215	ff 90 00 01 00
	00		 call	 DWORD PTR [eax+256]
  0021b	84 c0		 test	 al, al
  0021d	74 0f		 je	 SHORT $LN15@OnProcessS
$LN57@OnProcessS:

; 258  : 			{
; 259  : 				SetSkillEndState( pChar, true );

  0021f	6a 01		 push	 1
$LN56@OnProcessS:
  00221	57		 push	 edi
  00222	8b ce		 mov	 ecx, esi
  00224	e8 00 00 00 00	 call	 ?SetSkillEndState@ioGrapplingBlowLoopSkill@@IAEXPAVioBaseChar@@_N@Z ; ioGrapplingBlowLoopSkill::SetSkillEndState

; 260  : 				return;

  00229	e9 42 01 00 00	 jmp	 $LN26@OnProcessS
$LN15@OnProcessS:

; 261  : 			}
; 262  : 
; 263  : 			ProcessLoopDir( pChar );
; 264  : 
; 265  : 			CheckKeyInput( pChar );

  0022e	57		 push	 edi
  0022f	8b ce		 mov	 ecx, esi
  00231	e8 00 00 00 00	 call	 ?CheckKeyInput@ioGrapplingBlowLoopSkill@@IAEXPAVioBaseChar@@@Z ; ioGrapplingBlowLoopSkill::CheckKeyInput

; 266  : 
; 267  : 			ProcessRotate( pChar );

  00236	57		 push	 edi
  00237	8b ce		 mov	 ecx, esi
  00239	e8 00 00 00 00	 call	 ?ProcessRotate@ioGrapplingBlowLoopSkill@@IAEXPAVioBaseChar@@@Z ; ioGrapplingBlowLoopSkill::ProcessRotate

; 268  : 			ProcessJumpMove( pChar, pStage );

  0023e	ff b5 bc ff fe
	ff		 push	 DWORD PTR _pStage$GSCopy$[ebp]
  00244	8b ce		 mov	 ecx, esi
  00246	57		 push	 edi
  00247	e8 00 00 00 00	 call	 ?ProcessJumpMove@ioGrapplingBlowLoopSkill@@IAEXPAVioBaseChar@@PAVioPlayStage@@@Z ; ioGrapplingBlowLoopSkill::ProcessJumpMove

; 269  : 		}
; 270  : 		break;

  0024c	e9 1f 01 00 00	 jmp	 $LN26@OnProcessS
$LN25@OnProcessS:

; 199  : 			}
; 200  : 		}
; 201  : 		break;
; 202  : 	case SS_PRE_LOOP:
; 203  : 		if( m_dwPreLoopStartTime+m_dwPreLoopDuration < dwCurTime )

  00251	8b 86 34 12 00
	00		 mov	 eax, DWORD PTR [esi+4660]
  00257	03 86 30 12 00
	00		 add	 eax, DWORD PTR [esi+4656]
  0025d	3b c3		 cmp	 eax, ebx
  0025f	73 0f		 jae	 SHORT $LN24@OnProcessS

; 204  : 		{
; 205  : 			m_SkillState = SS_OVER;

  00261	c7 86 fc 10 00
	00 07 00 00 00	 mov	 DWORD PTR [esi+4348], 7

; 206  : 			return;

  0026b	e9 00 01 00 00	 jmp	 $LN26@OnProcessS
$LN24@OnProcessS:

; 207  : 		}
; 208  : 		else if( pChar->IsNeedProcess() && pChar->IsAttackKey() )

  00270	8b 07		 mov	 eax, DWORD PTR [edi]
  00272	8b cf		 mov	 ecx, edi
  00274	ff 90 00 01 00
	00		 call	 DWORD PTR [eax+256]
  0027a	84 c0		 test	 al, al
  0027c	0f 84 a1 00 00
	00		 je	 $LN22@OnProcessS
  00282	8b cf		 mov	 ecx, edi
  00284	e8 00 00 00 00	 call	 ?IsAttackKey@ioBaseChar@@QBE_NXZ ; ioBaseChar::IsAttackKey
  00289	84 c0		 test	 al, al
  0028b	0f 84 92 00 00
	00		 je	 $LN22@OnProcessS

; 209  : 		{
; 210  : 			AttackSkillFire( pChar );

  00291	8b 06		 mov	 eax, DWORD PTR [esi]
  00293	57		 push	 edi
  00294	8b ce		 mov	 ecx, esi
  00296	ff 90 8c 01 00
	00		 call	 DWORD PTR [eax+396]

; 211  : 
; 212  : 			if( pChar->IsNeedSendNetwork() )

  0029c	8b 07		 mov	 eax, DWORD PTR [edi]
  0029e	8b cf		 mov	 ecx, edi
  002a0	ff 90 04 01 00
	00		 call	 DWORD PTR [eax+260]
  002a6	84 c0		 test	 al, al
  002a8	0f 84 c2 00 00
	00		 je	 $LN26@OnProcessS

; 213  : 			{
; 214  : 				SP2Packet kPacket( CUPK_SKILL_EXTRA_INFO );

  002ae	68 39 41 00 00	 push	 16697			; 00004139H
  002b3	8d 8d c0 ff fe
	ff		 lea	 ecx, DWORD PTR _kPacket$551064[ebp]
  002b9	e8 00 00 00 00	 call	 ??0SP2Packet@@QAE@K@Z	; SP2Packet::SP2Packet
  002be	83 65 fc 00	 and	 DWORD PTR __$EHRec$[ebp+8], 0

; 215  : 				kPacket << pChar->GetCharName();

  002c2	8d 87 d4 02 00
	00		 lea	 eax, DWORD PTR [edi+724]
  002c8	50		 push	 eax
  002c9	8d 8d c0 ff fe
	ff		 lea	 ecx, DWORD PTR _kPacket$551064[ebp]
  002cf	e8 00 00 00 00	 call	 ??6SP2Packet@@QAEAAV0@ABVioHashString@@@Z ; SP2Packet::operator<<

; 216  : 				kPacket << GetName();

  002d4	83 c6 24	 add	 esi, 36			; 00000024H
  002d7	56		 push	 esi
  002d8	8d 8d c0 ff fe
	ff		 lea	 ecx, DWORD PTR _kPacket$551064[ebp]
  002de	e8 00 00 00 00	 call	 ??6SP2Packet@@QAEAAV0@ABVioHashString@@@Z ; SP2Packet::operator<<

; 217  : 				kPacket << SS_ACTION;

  002e3	6a 02		 push	 2
  002e5	8d 8d c0 ff fe
	ff		 lea	 ecx, DWORD PTR _kPacket$551064[ebp]
  002eb	e8 00 00 00 00	 call	 ??6SP2Packet@@QAEAAV0@H@Z ; SP2Packet::operator<<

; 218  : 				kPacket << pChar->GetTargetRot();

  002f0	81 c7 a4 06 00
	00		 add	 edi, 1700		; 000006a4H
  002f6	57		 push	 edi
  002f7	8d 8d c0 ff fe
	ff		 lea	 ecx, DWORD PTR _kPacket$551064[ebp]
  002fd	e8 00 00 00 00	 call	 ??6SP2Packet@@QAEAAV0@ABUD3DXQUATERNION@@@Z ; SP2Packet::operator<<

; 219  : 				P2PNetwork::SendToAllPlayingUser( kPacket );

  00302	8d 85 c0 ff fe
	ff		 lea	 eax, DWORD PTR _kPacket$551064[ebp]
  00308	6a 00		 push	 0
  0030a	50		 push	 eax
  0030b	e8 00 00 00 00	 call	 ?SendToAllPlayingUser@P2PNetwork@@YAXAAVSP2Packet@@PAVioBaseChar@@@Z ; P2PNetwork::SendToAllPlayingUser

; 220  : 			}

  00310	83 4d fc ff	 or	 DWORD PTR __$EHRec$[ebp+8], -1
  00314	59		 pop	 ecx
  00315	59		 pop	 ecx
  00316	8d 8d c0 ff fe
	ff		 lea	 ecx, DWORD PTR _kPacket$551064[ebp]
  0031c	e8 00 00 00 00	 call	 ??1SP2Packet@@UAE@XZ	; SP2Packet::~SP2Packet

; 221  : 			return;

  00321	eb 4d		 jmp	 SHORT $LN26@OnProcessS
$LN22@OnProcessS:

; 222  : 		}
; 223  : 
; 224  : 		CheckPreLoopDirKey( pChar );

  00323	57		 push	 edi
  00324	8b ce		 mov	 ecx, esi
  00326	e8 00 00 00 00	 call	 ?CheckPreLoopDirKey@ioGrapplingBlowLoopSkill@@IAEXPAVioBaseChar@@@Z ; ioGrapplingBlowLoopSkill::CheckPreLoopDirKey

; 225  : 		break;

  0032b	eb 43		 jmp	 SHORT $LN26@OnProcessS
$LN29@OnProcessS:

; 185  : 	{
; 186  : 	case SS_NONE:
; 187  : 		{
; 188  : 			DWORD dwPreDelay = GetPreDelayTime();

  0032d	8b 06		 mov	 eax, DWORD PTR [esi]
  0032f	8b ce		 mov	 ecx, esi
  00331	ff 90 34 01 00
	00		 call	 DWORD PTR [eax+308]

; 189  : 			if( m_dwPreDelayStartTime + dwPreDelay < dwCurTime )

  00337	8b 96 20 02 00
	00		 mov	 edx, DWORD PTR [esi+544]
  0033d	03 d0		 add	 edx, eax
  0033f	3b d3		 cmp	 edx, ebx
  00341	73 2d		 jae	 SHORT $LN26@OnProcessS

; 190  : 			{
; 191  : 				m_dwPreDelayStartTime = 0;
; 192  : 
; 193  : 				EndPreDelayEffect( pChar );

  00343	8b 06		 mov	 eax, DWORD PTR [esi]
  00345	83 a6 20 02 00
	00 00		 and	 DWORD PTR [esi+544], 0
  0034c	57		 push	 edi
  0034d	8b ce		 mov	 ecx, esi
  0034f	ff 90 dc 00 00
	00		 call	 DWORD PTR [eax+220]

; 194  : 
; 195  : 				if( m_bUsePreLoopState )

  00355	80 be 18 12 00
	00 00		 cmp	 BYTE PTR [esi+4632], 0

; 196  : 					SetSkillPreLoopState( pChar );

  0035c	57		 push	 edi
  0035d	8b ce		 mov	 ecx, esi
  0035f	74 07		 je	 SHORT $LN27@OnProcessS
  00361	e8 00 00 00 00	 call	 ?SetSkillPreLoopState@ioGrapplingBlowLoopSkill@@IAEXPAVioBaseChar@@@Z ; ioGrapplingBlowLoopSkill::SetSkillPreLoopState

; 197  : 				else

  00366	eb 08		 jmp	 SHORT $LN26@OnProcessS
$LN27@OnProcessS:

; 198  : 					AttackSkillFire( pChar );

  00368	8b 06		 mov	 eax, DWORD PTR [esi]
  0036a	ff 90 8c 01 00
	00		 call	 DWORD PTR [eax+396]
$LN26@OnProcessS:

; 323  : 				}
; 324  : 			}
; 325  : 		}
; 326  : 		break;
; 327  : 	case SS_END:
; 328  : 		break;
; 329  : 	}
; 330  : 
; 331  : }

  00370	8b 4d f4	 mov	 ecx, DWORD PTR __$EHRec$[ebp]
  00373	64 89 0d 00 00
	00 00		 mov	 DWORD PTR fs:0, ecx
  0037a	59		 pop	 ecx
  0037b	5f		 pop	 edi
  0037c	5e		 pop	 esi
  0037d	5b		 pop	 ebx
  0037e	8b 4d f0	 mov	 ecx, DWORD PTR __$ArrayPad$[ebp]
  00381	33 cd		 xor	 ecx, ebp
  00383	e8 00 00 00 00	 call	 @__security_check_cookie@4
  00388	c9		 leave
  00389	c2 08 00	 ret	 8
_TEXT	ENDS
;	COMDAT text$x
text$x	SEGMENT
__unwindfunclet$?OnProcessState@ioGrapplingBlowLoopSkill@@UAEXPAVioBaseChar@@PAVioPlayStage@@@Z$1:
  00000	8d 8d d8 7f ff
	ff		 lea	 ecx, DWORD PTR _kPacket$551077[ebp]
  00006	e9 00 00 00 00	 jmp	 ??1SP2Packet@@UAE@XZ	; SP2Packet::~SP2Packet
__unwindfunclet$?OnProcessState@ioGrapplingBlowLoopSkill@@UAEXPAVioBaseChar@@PAVioPlayStage@@@Z$0:
  0000b	8d 8d c0 ff fe
	ff		 lea	 ecx, DWORD PTR _kPacket$551064[ebp]
  00011	e9 00 00 00 00	 jmp	 ??1SP2Packet@@UAE@XZ	; SP2Packet::~SP2Packet
__ehhandler$?OnProcessState@ioGrapplingBlowLoopSkill@@UAEXPAVioBaseChar@@PAVioPlayStage@@@Z:
  00016	8b 54 24 08	 mov	 edx, DWORD PTR [esp+8]
  0001a	8d 42 0c	 lea	 eax, DWORD PTR [edx+12]
  0001d	8b 8a b8 ff fe
	ff		 mov	 ecx, DWORD PTR [edx-65608]
  00023	33 c8		 xor	 ecx, eax
  00025	e8 00 00 00 00	 call	 @__security_check_cookie@4
  0002a	8b 4a fc	 mov	 ecx, DWORD PTR [edx-4]
  0002d	33 c8		 xor	 ecx, eax
  0002f	e8 00 00 00 00	 call	 @__security_check_cookie@4
  00034	b8 00 00 00 00	 mov	 eax, OFFSET __ehfuncinfo$?OnProcessState@ioGrapplingBlowLoopSkill@@UAEXPAVioBaseChar@@PAVioPlayStage@@@Z
  00039	e9 00 00 00 00	 jmp	 ___CxxFrameHandler3
text$x	ENDS
?OnProcessState@ioGrapplingBlowLoopSkill@@UAEXPAVioBaseChar@@PAVioPlayStage@@@Z ENDP ; ioGrapplingBlowLoopSkill::OnProcessState
PUBLIC	??$_Uninit_copy@V?$_Vector_const_iterator@V?$_Vector_val@UForceInfo@@V?$allocator@UForceInfo@@@std@@@std@@@std@@PAUForceInfo@@V?$allocator@UForceInfo@@@2@@std@@YAPAUForceInfo@@V?$_Vector_const_iterator@V?$_Vector_val@UForceInfo@@V?$allocator@UForceInfo@@@std@@@std@@@0@0PAU1@AAV?$allocator@UForceInfo@@@0@U_Nonscalar_ptr_iterator_tag@0@@Z ; std::_Uninit_copy<std::_Vector_const_iterator<std::_Vector_val<ForceInfo,std::allocator<ForceInfo> > >,ForceInfo *,std::allocator<ForceInfo> >
; Function compile flags: /Ogsp
; File c:\program files (x86)\microsoft visual studio 10.0\vc\include\memory
;	COMDAT ??$_Uninit_copy@V?$_Vector_const_iterator@V?$_Vector_val@UForceInfo@@V?$allocator@UForceInfo@@@std@@@std@@@std@@PAUForceInfo@@V?$allocator@UForceInfo@@@2@@std@@YAPAUForceInfo@@V?$_Vector_const_iterator@V?$_Vector_val@UForceInfo@@V?$allocator@UForceInfo@@@std@@@std@@@0@0PAU1@AAV?$allocator@UForceInfo@@@0@U_Nonscalar_ptr_iterator_tag@0@@Z
_TEXT	SEGMENT
__First$ = 8						; size = 4
__Last$ = 12						; size = 4
__Dest$ = 16						; size = 4
__Al$ = 20						; size = 4
___formal$ = 24						; size = 1
??$_Uninit_copy@V?$_Vector_const_iterator@V?$_Vector_val@UForceInfo@@V?$allocator@UForceInfo@@@std@@@std@@@std@@PAUForceInfo@@V?$allocator@UForceInfo@@@2@@std@@YAPAUForceInfo@@V?$_Vector_const_iterator@V?$_Vector_val@UForceInfo@@V?$allocator@UForceInfo@@@std@@@std@@@0@0PAU1@AAV?$allocator@UForceInfo@@@0@U_Nonscalar_ptr_iterator_tag@0@@Z PROC ; std::_Uninit_copy<std::_Vector_const_iterator<std::_Vector_val<ForceInfo,std::allocator<ForceInfo> > >,ForceInfo *,std::allocator<ForceInfo> >, COMDAT

; 369  : 	{	// copy [_First, _Last) to raw _Dest, using _Al, arbitrary type

  00000	55		 push	 ebp
  00001	8b ec		 mov	 ebp, esp

; 370  : 	_DEBUG_RANGE(_First, _Last);
; 371  : 	_DEBUG_POINTER(_Dest);
; 372  : 	_FwdIt _Next = _Dest;
; 373  : 
; 374  : 	_TRY_BEGIN
; 375  : 	for (; _First != _Last; ++_Dest, ++_First)

  00003	eb 19		 jmp	 SHORT $LN35@Uninit_cop
$LL14@Uninit_cop:

; 376  : 		_Cons_val(_Al, _Dest, *_First);

  00005	ff 75 08	 push	 DWORD PTR __First$[ebp]
  00008	ff 75 10	 push	 DWORD PTR __Dest$[ebp]
  0000b	ff 75 14	 push	 DWORD PTR __Al$[ebp]
  0000e	e8 00 00 00 00	 call	 ??$_Cons_val@V?$allocator@UForceInfo@@@std@@UForceInfo@@ABU3@@std@@YAXAAV?$allocator@UForceInfo@@@0@PAUForceInfo@@ABU2@@Z ; std::_Cons_val<std::allocator<ForceInfo>,ForceInfo,ForceInfo const &>
  00013	83 45 10 0c	 add	 DWORD PTR __Dest$[ebp], 12 ; 0000000cH
  00017	83 c4 0c	 add	 esp, 12			; 0000000cH
  0001a	83 45 08 0c	 add	 DWORD PTR __First$[ebp], 12 ; 0000000cH
$LN35@Uninit_cop:

; 370  : 	_DEBUG_RANGE(_First, _Last);
; 371  : 	_DEBUG_POINTER(_Dest);
; 372  : 	_FwdIt _Next = _Dest;
; 373  : 
; 374  : 	_TRY_BEGIN
; 375  : 	for (; _First != _Last; ++_Dest, ++_First)

  0001e	8b 45 08	 mov	 eax, DWORD PTR __First$[ebp]
  00021	3b 45 0c	 cmp	 eax, DWORD PTR __Last$[ebp]
  00024	75 df		 jne	 SHORT $LL14@Uninit_cop

; 377  : 	_CATCH_ALL
; 378  : 	for (; _Next != _Dest; ++_Next)
; 379  : 		_Dest_val(_Al, _Next);
; 380  : 	_RERAISE;
; 381  : 	_CATCH_END
; 382  : 	return (_Dest);

  00026	8b 45 10	 mov	 eax, DWORD PTR __Dest$[ebp]

; 383  : 	}

  00029	5d		 pop	 ebp
  0002a	c3		 ret	 0
??$_Uninit_copy@V?$_Vector_const_iterator@V?$_Vector_val@UForceInfo@@V?$allocator@UForceInfo@@@std@@@std@@@std@@PAUForceInfo@@V?$allocator@UForceInfo@@@2@@std@@YAPAUForceInfo@@V?$_Vector_const_iterator@V?$_Vector_val@UForceInfo@@V?$allocator@UForceInfo@@@std@@@std@@@0@0PAU1@AAV?$allocator@UForceInfo@@@0@U_Nonscalar_ptr_iterator_tag@0@@Z ENDP ; std::_Uninit_copy<std::_Vector_const_iterator<std::_Vector_val<ForceInfo,std::allocator<ForceInfo> > >,ForceInfo *,std::allocator<ForceInfo> >
_TEXT	ENDS
PUBLIC	??$_Cons_val@V?$allocator@UWeaponInfo@@@std@@UWeaponInfo@@ABU3@@std@@YAXAAV?$allocator@UWeaponInfo@@@0@PAUWeaponInfo@@ABU2@@Z ; std::_Cons_val<std::allocator<WeaponInfo>,WeaponInfo,WeaponInfo const &>
; Function compile flags: /Ogsp
; File c:\program files (x86)\microsoft visual studio 10.0\vc\include\xmemory
;	COMDAT ??$_Cons_val@V?$allocator@UWeaponInfo@@@std@@UWeaponInfo@@ABU3@@std@@YAXAAV?$allocator@UWeaponInfo@@@0@PAUWeaponInfo@@ABU2@@Z
_TEXT	SEGMENT
__Alval$ = 8						; size = 4
__Pdest$ = 12						; size = 4
__Src$ = 16						; size = 4
??$_Cons_val@V?$allocator@UWeaponInfo@@@std@@UWeaponInfo@@ABU3@@std@@YAXAAV?$allocator@UWeaponInfo@@@0@PAUWeaponInfo@@ABU2@@Z PROC ; std::_Cons_val<std::allocator<WeaponInfo>,WeaponInfo,WeaponInfo const &>, COMDAT

; 279  : 	{	// construct using allocator

  00000	55		 push	 ebp
  00001	8b ec		 mov	 ebp, esp

; 280  : 	_Alval.construct(_Pdest, _STD forward<_Ty2>(_Src));

  00003	ff 75 10	 push	 DWORD PTR __Src$[ebp]
  00006	ff 75 0c	 push	 DWORD PTR __Pdest$[ebp]
  00009	e8 00 00 00 00	 call	 ??$_Construct@UWeaponInfo@@ABU1@@std@@YAXPAUWeaponInfo@@ABU1@@Z ; std::_Construct<WeaponInfo,WeaponInfo const &>
  0000e	59		 pop	 ecx
  0000f	59		 pop	 ecx

; 281  : 	}

  00010	5d		 pop	 ebp
  00011	c3		 ret	 0
??$_Cons_val@V?$allocator@UWeaponInfo@@@std@@UWeaponInfo@@ABU3@@std@@YAXAAV?$allocator@UWeaponInfo@@@0@PAUWeaponInfo@@ABU2@@Z ENDP ; std::_Cons_val<std::allocator<WeaponInfo>,WeaponInfo,WeaponInfo const &>
_TEXT	ENDS
PUBLIC	??$_Destroy_range@V?$allocator@UForceInfo@@@std@@@std@@YAXPAUForceInfo@@0AAV?$allocator@UForceInfo@@@0@U_Nonscalar_ptr_iterator_tag@0@@Z ; std::_Destroy_range<std::allocator<ForceInfo> >
; Function compile flags: /Ogsp
;	COMDAT ??$_Destroy_range@V?$allocator@UForceInfo@@@std@@@std@@YAXPAUForceInfo@@0AAV?$allocator@UForceInfo@@@0@U_Nonscalar_ptr_iterator_tag@0@@Z
_TEXT	SEGMENT
__First$ = 8						; size = 4
__Last$ = 12						; size = 4
__Al$ = 16						; size = 4
___formal$ = 20						; size = 1
??$_Destroy_range@V?$allocator@UForceInfo@@@std@@@std@@YAXPAUForceInfo@@0AAV?$allocator@UForceInfo@@@0@U_Nonscalar_ptr_iterator_tag@0@@Z PROC ; std::_Destroy_range<std::allocator<ForceInfo> >, COMDAT

; 96   : 	for (; _First != _Last; ++_First)
; 97   : 		_Dest_val(_Al, _First);
; 98   : 	}

  00000	c3		 ret	 0
??$_Destroy_range@V?$allocator@UForceInfo@@@std@@@std@@YAXPAUForceInfo@@0AAV?$allocator@UForceInfo@@@0@U_Nonscalar_ptr_iterator_tag@0@@Z ENDP ; std::_Destroy_range<std::allocator<ForceInfo> >
_TEXT	ENDS
PUBLIC	??$_Dest_val@V?$allocator@VioHashString@@@std@@VioHashString@@@std@@YAXAAV?$allocator@VioHashString@@@0@PAVioHashString@@@Z ; std::_Dest_val<std::allocator<ioHashString>,ioHashString>
; Function compile flags: /Ogsp
;	COMDAT ??$_Dest_val@V?$allocator@VioHashString@@@std@@VioHashString@@@std@@YAXAAV?$allocator@VioHashString@@@0@PAVioHashString@@@Z
_TEXT	SEGMENT
__Alval$ = 8						; size = 4
__Pdest$ = 12						; size = 4
??$_Dest_val@V?$allocator@VioHashString@@@std@@VioHashString@@@std@@YAXAAV?$allocator@VioHashString@@@0@PAVioHashString@@@Z PROC ; std::_Dest_val<std::allocator<ioHashString>,ioHashString>, COMDAT

; 286  : 	{	// destroy using allocator

  00000	55		 push	 ebp
  00001	8b ec		 mov	 ebp, esp

; 287  : 	_Alval.destroy(_Pdest);

  00003	8b 4d 0c	 mov	 ecx, DWORD PTR __Pdest$[ebp]

; 288  : 	}

  00006	5d		 pop	 ebp

; 287  : 	_Alval.destroy(_Pdest);

  00007	ff 25 00 00 00
	00		 jmp	 DWORD PTR __imp_??1ioHashString@@QAE@XZ
??$_Dest_val@V?$allocator@VioHashString@@@std@@VioHashString@@@std@@YAXAAV?$allocator@VioHashString@@@0@PAVioHashString@@@Z ENDP ; std::_Dest_val<std::allocator<ioHashString>,ioHashString>
_TEXT	ENDS
PUBLIC	??$_Dest_val@V?$allocator@UWeaponInfo@@@std@@UWeaponInfo@@@std@@YAXAAV?$allocator@UWeaponInfo@@@0@PAUWeaponInfo@@@Z ; std::_Dest_val<std::allocator<WeaponInfo>,WeaponInfo>
; Function compile flags: /Ogsp
;	COMDAT ??$_Dest_val@V?$allocator@UWeaponInfo@@@std@@UWeaponInfo@@@std@@YAXAAV?$allocator@UWeaponInfo@@@0@PAUWeaponInfo@@@Z
_TEXT	SEGMENT
__Alval$ = 8						; size = 4
__Pdest$ = 12						; size = 4
??$_Dest_val@V?$allocator@UWeaponInfo@@@std@@UWeaponInfo@@@std@@YAXAAV?$allocator@UWeaponInfo@@@0@PAUWeaponInfo@@@Z PROC ; std::_Dest_val<std::allocator<WeaponInfo>,WeaponInfo>, COMDAT

; 286  : 	{	// destroy using allocator

  00000	55		 push	 ebp
  00001	8b ec		 mov	 ebp, esp

; 287  : 	_Alval.destroy(_Pdest);

  00003	8b 4d 0c	 mov	 ecx, DWORD PTR __Pdest$[ebp]
  00006	83 c1 08	 add	 ecx, 8

; 288  : 	}

  00009	5d		 pop	 ebp

; 287  : 	_Alval.destroy(_Pdest);

  0000a	ff 25 00 00 00
	00		 jmp	 DWORD PTR __imp_??1ioHashString@@QAE@XZ
??$_Dest_val@V?$allocator@UWeaponInfo@@@std@@UWeaponInfo@@@std@@YAXAAV?$allocator@UWeaponInfo@@@0@PAUWeaponInfo@@@Z ENDP ; std::_Dest_val<std::allocator<WeaponInfo>,WeaponInfo>
_TEXT	ENDS
PUBLIC	??$_Uninit_move@PAVioHashString@@PAV1@V?$allocator@VioHashString@@@std@@V1@@std@@YAPAVioHashString@@PAV1@00AAV?$allocator@VioHashString@@@0@0U_Nonscalar_ptr_iterator_tag@0@@Z ; std::_Uninit_move<ioHashString *,ioHashString *,std::allocator<ioHashString>,ioHashString>
EXTRN	__EH_prolog3_catch:PROC
;	COMDAT xdata$x
; File c:\program files (x86)\microsoft visual studio 10.0\vc\include\vector
xdata$x	SEGMENT
__catchsym$??$_Uninit_move@PAVioHashString@@PAV1@V?$allocator@VioHashString@@@std@@V1@@std@@YAPAVioHashString@@PAV1@00AAV?$allocator@VioHashString@@@0@0U_Nonscalar_ptr_iterator_tag@0@@Z$2 DD 040H
	DD	00H
	DD	00H
	DD	FLAT:__catch$??$_Uninit_move@PAVioHashString@@PAV1@V?$allocator@VioHashString@@@std@@V1@@std@@YAPAVioHashString@@PAV1@00AAV?$allocator@VioHashString@@@0@0U_Nonscalar_ptr_iterator_tag@0@@Z$0
__unwindtable$??$_Uninit_move@PAVioHashString@@PAV1@V?$allocator@VioHashString@@@std@@V1@@std@@YAPAVioHashString@@PAV1@00AAV?$allocator@VioHashString@@@0@0U_Nonscalar_ptr_iterator_tag@0@@Z DD 0ffffffffH
	DD	00H
	DD	0ffffffffH
	DD	00H
__tryblocktable$??$_Uninit_move@PAVioHashString@@PAV1@V?$allocator@VioHashString@@@std@@V1@@std@@YAPAVioHashString@@PAV1@00AAV?$allocator@VioHashString@@@0@0U_Nonscalar_ptr_iterator_tag@0@@Z DD 00H
	DD	00H
	DD	01H
	DD	01H
	DD	FLAT:__catchsym$??$_Uninit_move@PAVioHashString@@PAV1@V?$allocator@VioHashString@@@std@@V1@@std@@YAPAVioHashString@@PAV1@00AAV?$allocator@VioHashString@@@0@0U_Nonscalar_ptr_iterator_tag@0@@Z$2
__ehfuncinfo$??$_Uninit_move@PAVioHashString@@PAV1@V?$allocator@VioHashString@@@std@@V1@@std@@YAPAVioHashString@@PAV1@00AAV?$allocator@VioHashString@@@0@0U_Nonscalar_ptr_iterator_tag@0@@Z DD 019930522H
	DD	02H
	DD	FLAT:__unwindtable$??$_Uninit_move@PAVioHashString@@PAV1@V?$allocator@VioHashString@@@std@@V1@@std@@YAPAVioHashString@@PAV1@00AAV?$allocator@VioHashString@@@0@0U_Nonscalar_ptr_iterator_tag@0@@Z
	DD	01H
	DD	FLAT:__tryblocktable$??$_Uninit_move@PAVioHashString@@PAV1@V?$allocator@VioHashString@@@std@@V1@@std@@YAPAVioHashString@@PAV1@00AAV?$allocator@VioHashString@@@0@0U_Nonscalar_ptr_iterator_tag@0@@Z
	DD	2 DUP(00H)
	DD	00H
	DD	01H
; Function compile flags: /Ogsp
; File c:\program files (x86)\microsoft visual studio 10.0\vc\include\memory
xdata$x	ENDS
;	COMDAT ??$_Uninit_move@PAVioHashString@@PAV1@V?$allocator@VioHashString@@@std@@V1@@std@@YAPAVioHashString@@PAV1@00AAV?$allocator@VioHashString@@@0@0U_Nonscalar_ptr_iterator_tag@0@@Z
_TEXT	SEGMENT
__Next$ = -20						; size = 4
__$EHRec$ = -16						; size = 16
__First$ = 8						; size = 4
__Last$ = 12						; size = 4
__Dest$ = 16						; size = 4
__Al$ = 20						; size = 4
___formal$ = 24						; size = 4
___formal$ = 28						; size = 1
??$_Uninit_move@PAVioHashString@@PAV1@V?$allocator@VioHashString@@@std@@V1@@std@@YAPAVioHashString@@PAV1@00AAV?$allocator@VioHashString@@@0@0U_Nonscalar_ptr_iterator_tag@0@@Z PROC ; std::_Uninit_move<ioHashString *,ioHashString *,std::allocator<ioHashString>,ioHashString>, COMDAT

; 424  : 	{	// move [_First, _Last) to raw _Dest, using _Al, arbitrary type

  00000	6a 08		 push	 8
  00002	b8 00 00 00 00	 mov	 eax, __ehhandler$??$_Uninit_move@PAVioHashString@@PAV1@V?$allocator@VioHashString@@@std@@V1@@std@@YAPAVioHashString@@PAV1@00AAV?$allocator@VioHashString@@@0@0U_Nonscalar_ptr_iterator_tag@0@@Z
  00007	e8 00 00 00 00	 call	 __EH_prolog3_catch

; 425  : 	_DEBUG_RANGE(_First, _Last);
; 426  : 	_DEBUG_POINTER(_Dest);
; 427  : 	_FwdIt _Next = _Dest;

  0000c	8b 45 10	 mov	 eax, DWORD PTR __Dest$[ebp]

; 428  : 
; 429  : 	_TRY_BEGIN

  0000f	83 65 fc 00	 and	 DWORD PTR __$EHRec$[ebp+12], 0
  00013	8b 75 08	 mov	 esi, DWORD PTR __First$[ebp]
  00016	89 45 ec	 mov	 DWORD PTR __Next$[ebp], eax
$LL6@Uninit_mov:

; 430  : 	for (; _First != _Last; ++_Dest, ++_First)

  00019	3b 75 0c	 cmp	 esi, DWORD PTR __Last$[ebp]
  0001c	74 33		 je	 SHORT $LN4@Uninit_mov

; 431  : 		_Cons_val(_Al, _Dest, (_Valty &&)*_First);

  0001e	8b 4d 14	 mov	 ecx, DWORD PTR __Al$[ebp]
  00021	56		 push	 esi
  00022	ff 75 10	 push	 DWORD PTR __Dest$[ebp]
  00025	e8 00 00 00 00	 call	 ?construct@?$allocator@VioHashString@@@std@@QAEXPAVioHashString@@$$QAV3@@Z ; std::allocator<ioHashString>::construct
  0002a	83 45 10 10	 add	 DWORD PTR __Dest$[ebp], 16 ; 00000010H
  0002e	83 c6 10	 add	 esi, 16			; 00000010H
  00031	eb e6		 jmp	 SHORT $LL6@Uninit_mov
__catch$??$_Uninit_move@PAVioHashString@@PAV1@V?$allocator@VioHashString@@@std@@V1@@std@@YAPAVioHashString@@PAV1@00AAV?$allocator@VioHashString@@@0@0U_Nonscalar_ptr_iterator_tag@0@@Z$0:

; 432  : 	_CATCH_ALL
; 433  : 	for (; _Next != _Dest; ++_Next)

  00033	8b 75 ec	 mov	 esi, DWORD PTR __Next$[ebp]
  00036	eb 0b		 jmp	 SHORT $LN33@Uninit_mov
$LL3@Uninit_mov:

; 434  : 		_Dest_val(_Al, _Next);

  00038	8b ce		 mov	 ecx, esi
  0003a	ff 15 00 00 00
	00		 call	 DWORD PTR __imp_??1ioHashString@@QAE@XZ
  00040	83 c6 10	 add	 esi, 16			; 00000010H
$LN33@Uninit_mov:

; 432  : 	_CATCH_ALL
; 433  : 	for (; _Next != _Dest; ++_Next)

  00043	3b 75 10	 cmp	 esi, DWORD PTR __Dest$[ebp]
  00046	75 f0		 jne	 SHORT $LL3@Uninit_mov

; 435  : 	_RERAISE;

  00048	6a 00		 push	 0
  0004a	6a 00		 push	 0
  0004c	e8 00 00 00 00	 call	 __CxxThrowException@8
$LN34@Uninit_mov:
$LN4@Uninit_mov:

; 436  : 	_CATCH_END
; 437  : 	return (_Dest);

  00051	8b 45 10	 mov	 eax, DWORD PTR __Dest$[ebp]

; 438  : 	}

  00054	e8 00 00 00 00	 call	 __EH_epilog3
  00059	c3		 ret	 0
$LN32@Uninit_mov:
_TEXT	ENDS
;	COMDAT text$x
text$x	SEGMENT
__ehhandler$??$_Uninit_move@PAVioHashString@@PAV1@V?$allocator@VioHashString@@@std@@V1@@std@@YAPAVioHashString@@PAV1@00AAV?$allocator@VioHashString@@@0@0U_Nonscalar_ptr_iterator_tag@0@@Z:
  00000	8b 54 24 08	 mov	 edx, DWORD PTR [esp+8]
  00004	8d 42 0c	 lea	 eax, DWORD PTR [edx+12]
  00007	8b 4a e8	 mov	 ecx, DWORD PTR [edx-24]
  0000a	33 c8		 xor	 ecx, eax
  0000c	e8 00 00 00 00	 call	 @__security_check_cookie@4
  00011	b8 00 00 00 00	 mov	 eax, OFFSET __ehfuncinfo$??$_Uninit_move@PAVioHashString@@PAV1@V?$allocator@VioHashString@@@std@@V1@@std@@YAPAVioHashString@@PAV1@00AAV?$allocator@VioHashString@@@0@0U_Nonscalar_ptr_iterator_tag@0@@Z
  00016	e9 00 00 00 00	 jmp	 ___CxxFrameHandler3
text$x	ENDS
??$_Uninit_move@PAVioHashString@@PAV1@V?$allocator@VioHashString@@@std@@V1@@std@@YAPAVioHashString@@PAV1@00AAV?$allocator@VioHashString@@@0@0U_Nonscalar_ptr_iterator_tag@0@@Z ENDP ; std::_Uninit_move<ioHashString *,ioHashString *,std::allocator<ioHashString>,ioHashString>
PUBLIC	??$_Uninitialized_copy@V?$_Vector_const_iterator@V?$_Vector_val@UForceInfo@@V?$allocator@UForceInfo@@@std@@@std@@@std@@PAUForceInfo@@V?$allocator@UForceInfo@@@2@@std@@YAPAUForceInfo@@V?$_Vector_const_iterator@V?$_Vector_val@UForceInfo@@V?$allocator@UForceInfo@@@std@@@std@@@0@0PAU1@AAV?$allocator@UForceInfo@@@0@@Z ; std::_Uninitialized_copy<std::_Vector_const_iterator<std::_Vector_val<ForceInfo,std::allocator<ForceInfo> > >,ForceInfo *,std::allocator<ForceInfo> >
; Function compile flags: /Ogsp
;	COMDAT ??$_Uninitialized_copy@V?$_Vector_const_iterator@V?$_Vector_val@UForceInfo@@V?$allocator@UForceInfo@@@std@@@std@@@std@@PAUForceInfo@@V?$allocator@UForceInfo@@@2@@std@@YAPAUForceInfo@@V?$_Vector_const_iterator@V?$_Vector_val@UForceInfo@@V?$allocator@UForceInfo@@@std@@@std@@@0@0PAU1@AAV?$allocator@UForceInfo@@@0@@Z
_TEXT	SEGMENT
__Cat$558838 = -4					; size = 1
__First$ = 8						; size = 4
__Last$ = 12						; size = 4
__Dest$ = 16						; size = 4
__Al$ = 20						; size = 4
??$_Uninitialized_copy@V?$_Vector_const_iterator@V?$_Vector_val@UForceInfo@@V?$allocator@UForceInfo@@@std@@@std@@@std@@PAUForceInfo@@V?$allocator@UForceInfo@@@2@@std@@YAPAUForceInfo@@V?$_Vector_const_iterator@V?$_Vector_val@UForceInfo@@V?$allocator@UForceInfo@@@std@@@std@@@0@0PAU1@AAV?$allocator@UForceInfo@@@0@@Z PROC ; std::_Uninitialized_copy<std::_Vector_const_iterator<std::_Vector_val<ForceInfo,std::allocator<ForceInfo> > >,ForceInfo *,std::allocator<ForceInfo> >, COMDAT

; 412  : 	{	// copy [_First, _Last) to raw _Dest, using _Al

  00000	55		 push	 ebp
  00001	8b ec		 mov	 ebp, esp
  00003	51		 push	 ecx

; 413  : 	return (_Uninit_copy(_First, _Last, _Dest, _Al,
; 414  : 		_Ptr_cat(_First, _Dest)));

  00004	ff 75 fc	 push	 DWORD PTR __Cat$558838[ebp]
  00007	ff 75 14	 push	 DWORD PTR __Al$[ebp]
  0000a	ff 75 10	 push	 DWORD PTR __Dest$[ebp]
  0000d	ff 75 0c	 push	 DWORD PTR __Last$[ebp]
  00010	ff 75 08	 push	 DWORD PTR __First$[ebp]
  00013	e8 00 00 00 00	 call	 ??$_Uninit_copy@V?$_Vector_const_iterator@V?$_Vector_val@UForceInfo@@V?$allocator@UForceInfo@@@std@@@std@@@std@@PAUForceInfo@@V?$allocator@UForceInfo@@@2@@std@@YAPAUForceInfo@@V?$_Vector_const_iterator@V?$_Vector_val@UForceInfo@@V?$allocator@UForceInfo@@@std@@@std@@@0@0PAU1@AAV?$allocator@UForceInfo@@@0@U_Nonscalar_ptr_iterator_tag@0@@Z ; std::_Uninit_copy<std::_Vector_const_iterator<std::_Vector_val<ForceInfo,std::allocator<ForceInfo> > >,ForceInfo *,std::allocator<ForceInfo> >
  00018	83 c4 14	 add	 esp, 20			; 00000014H

; 415  : 	}

  0001b	c9		 leave
  0001c	c3		 ret	 0
??$_Uninitialized_copy@V?$_Vector_const_iterator@V?$_Vector_val@UForceInfo@@V?$allocator@UForceInfo@@@std@@@std@@@std@@PAUForceInfo@@V?$allocator@UForceInfo@@@2@@std@@YAPAUForceInfo@@V?$_Vector_const_iterator@V?$_Vector_val@UForceInfo@@V?$allocator@UForceInfo@@@std@@@std@@@0@0PAU1@AAV?$allocator@UForceInfo@@@0@@Z ENDP ; std::_Uninitialized_copy<std::_Vector_const_iterator<std::_Vector_val<ForceInfo,std::allocator<ForceInfo> > >,ForceInfo *,std::allocator<ForceInfo> >
_TEXT	ENDS
PUBLIC	??$_Uninit_copy@V?$_Vector_const_iterator@V?$_Vector_val@UWeaponInfo@@V?$allocator@UWeaponInfo@@@std@@@std@@@std@@PAUWeaponInfo@@V?$allocator@UWeaponInfo@@@2@@std@@YAPAUWeaponInfo@@V?$_Vector_const_iterator@V?$_Vector_val@UWeaponInfo@@V?$allocator@UWeaponInfo@@@std@@@std@@@0@0PAU1@AAV?$allocator@UWeaponInfo@@@0@U_Nonscalar_ptr_iterator_tag@0@@Z ; std::_Uninit_copy<std::_Vector_const_iterator<std::_Vector_val<WeaponInfo,std::allocator<WeaponInfo> > >,WeaponInfo *,std::allocator<WeaponInfo> >
;	COMDAT xdata$x
; File d:\lost saga for developer\youtube\tutorial\source\src\lsclient\playentityhelpstruct.h
xdata$x	SEGMENT
__catchsym$??$_Uninit_copy@V?$_Vector_const_iterator@V?$_Vector_val@UWeaponInfo@@V?$allocator@UWeaponInfo@@@std@@@std@@@std@@PAUWeaponInfo@@V?$allocator@UWeaponInfo@@@2@@std@@YAPAUWeaponInfo@@V?$_Vector_const_iterator@V?$_Vector_val@UWeaponInfo@@V?$allocator@UWeaponInfo@@@std@@@std@@@0@0PAU1@AAV?$allocator@UWeaponInfo@@@0@U_Nonscalar_ptr_iterator_tag@0@@Z$3 DD 040H
	DD	00H
	DD	00H
	DD	FLAT:__catch$??$_Uninit_copy@V?$_Vector_const_iterator@V?$_Vector_val@UWeaponInfo@@V?$allocator@UWeaponInfo@@@std@@@std@@@std@@PAUWeaponInfo@@V?$allocator@UWeaponInfo@@@2@@std@@YAPAUWeaponInfo@@V?$_Vector_const_iterator@V?$_Vector_val@UWeaponInfo@@V?$allocator@UWeaponInfo@@@std@@@std@@@0@0PAU1@AAV?$allocator@UWeaponInfo@@@0@U_Nonscalar_ptr_iterator_tag@0@@Z$0
__unwindtable$??$_Uninit_copy@V?$_Vector_const_iterator@V?$_Vector_val@UWeaponInfo@@V?$allocator@UWeaponInfo@@@std@@@std@@@std@@PAUWeaponInfo@@V?$allocator@UWeaponInfo@@@2@@std@@YAPAUWeaponInfo@@V?$_Vector_const_iterator@V?$_Vector_val@UWeaponInfo@@V?$allocator@UWeaponInfo@@@std@@@std@@@0@0PAU1@AAV?$allocator@UWeaponInfo@@@0@U_Nonscalar_ptr_iterator_tag@0@@Z DD 0ffffffffH
	DD	00H
	DD	0ffffffffH
	DD	00H
__tryblocktable$??$_Uninit_copy@V?$_Vector_const_iterator@V?$_Vector_val@UWeaponInfo@@V?$allocator@UWeaponInfo@@@std@@@std@@@std@@PAUWeaponInfo@@V?$allocator@UWeaponInfo@@@2@@std@@YAPAUWeaponInfo@@V?$_Vector_const_iterator@V?$_Vector_val@UWeaponInfo@@V?$allocator@UWeaponInfo@@@std@@@std@@@0@0PAU1@AAV?$allocator@UWeaponInfo@@@0@U_Nonscalar_ptr_iterator_tag@0@@Z DD 00H
	DD	00H
	DD	01H
	DD	01H
	DD	FLAT:__catchsym$??$_Uninit_copy@V?$_Vector_const_iterator@V?$_Vector_val@UWeaponInfo@@V?$allocator@UWeaponInfo@@@std@@@std@@@std@@PAUWeaponInfo@@V?$allocator@UWeaponInfo@@@2@@std@@YAPAUWeaponInfo@@V?$_Vector_const_iterator@V?$_Vector_val@UWeaponInfo@@V?$allocator@UWeaponInfo@@@std@@@std@@@0@0PAU1@AAV?$allocator@UWeaponInfo@@@0@U_Nonscalar_ptr_iterator_tag@0@@Z$3
__ehfuncinfo$??$_Uninit_copy@V?$_Vector_const_iterator@V?$_Vector_val@UWeaponInfo@@V?$allocator@UWeaponInfo@@@std@@@std@@@std@@PAUWeaponInfo@@V?$allocator@UWeaponInfo@@@2@@std@@YAPAUWeaponInfo@@V?$_Vector_const_iterator@V?$_Vector_val@UWeaponInfo@@V?$allocator@UWeaponInfo@@@std@@@std@@@0@0PAU1@AAV?$allocator@UWeaponInfo@@@0@U_Nonscalar_ptr_iterator_tag@0@@Z DD 019930522H
	DD	02H
	DD	FLAT:__unwindtable$??$_Uninit_copy@V?$_Vector_const_iterator@V?$_Vector_val@UWeaponInfo@@V?$allocator@UWeaponInfo@@@std@@@std@@@std@@PAUWeaponInfo@@V?$allocator@UWeaponInfo@@@2@@std@@YAPAUWeaponInfo@@V?$_Vector_const_iterator@V?$_Vector_val@UWeaponInfo@@V?$allocator@UWeaponInfo@@@std@@@std@@@0@0PAU1@AAV?$allocator@UWeaponInfo@@@0@U_Nonscalar_ptr_iterator_tag@0@@Z
	DD	01H
	DD	FLAT:__tryblocktable$??$_Uninit_copy@V?$_Vector_const_iterator@V?$_Vector_val@UWeaponInfo@@V?$allocator@UWeaponInfo@@@std@@@std@@@std@@PAUWeaponInfo@@V?$allocator@UWeaponInfo@@@2@@std@@YAPAUWeaponInfo@@V?$_Vector_const_iterator@V?$_Vector_val@UWeaponInfo@@V?$allocator@UWeaponInfo@@@std@@@std@@@0@0PAU1@AAV?$allocator@UWeaponInfo@@@0@U_Nonscalar_ptr_iterator_tag@0@@Z
	DD	2 DUP(00H)
	DD	00H
	DD	01H
; Function compile flags: /Ogsp
; File c:\program files (x86)\microsoft visual studio 10.0\vc\include\memory
xdata$x	ENDS
;	COMDAT ??$_Uninit_copy@V?$_Vector_const_iterator@V?$_Vector_val@UWeaponInfo@@V?$allocator@UWeaponInfo@@@std@@@std@@@std@@PAUWeaponInfo@@V?$allocator@UWeaponInfo@@@2@@std@@YAPAUWeaponInfo@@V?$_Vector_const_iterator@V?$_Vector_val@UWeaponInfo@@V?$allocator@UWeaponInfo@@@std@@@std@@@0@0PAU1@AAV?$allocator@UWeaponInfo@@@0@U_Nonscalar_ptr_iterator_tag@0@@Z
_TEXT	SEGMENT
__Next$ = -20						; size = 4
__$EHRec$ = -16						; size = 16
__First$ = 8						; size = 4
__Last$ = 12						; size = 4
__Dest$ = 16						; size = 4
__Al$ = 20						; size = 4
___formal$ = 24						; size = 1
??$_Uninit_copy@V?$_Vector_const_iterator@V?$_Vector_val@UWeaponInfo@@V?$allocator@UWeaponInfo@@@std@@@std@@@std@@PAUWeaponInfo@@V?$allocator@UWeaponInfo@@@2@@std@@YAPAUWeaponInfo@@V?$_Vector_const_iterator@V?$_Vector_val@UWeaponInfo@@V?$allocator@UWeaponInfo@@@std@@@std@@@0@0PAU1@AAV?$allocator@UWeaponInfo@@@0@U_Nonscalar_ptr_iterator_tag@0@@Z PROC ; std::_Uninit_copy<std::_Vector_const_iterator<std::_Vector_val<WeaponInfo,std::allocator<WeaponInfo> > >,WeaponInfo *,std::allocator<WeaponInfo> >, COMDAT

; 369  : 	{	// copy [_First, _Last) to raw _Dest, using _Al, arbitrary type

  00000	6a 08		 push	 8
  00002	b8 00 00 00 00	 mov	 eax, __ehhandler$??$_Uninit_copy@V?$_Vector_const_iterator@V?$_Vector_val@UWeaponInfo@@V?$allocator@UWeaponInfo@@@std@@@std@@@std@@PAUWeaponInfo@@V?$allocator@UWeaponInfo@@@2@@std@@YAPAUWeaponInfo@@V?$_Vector_const_iterator@V?$_Vector_val@UWeaponInfo@@V?$allocator@UWeaponInfo@@@std@@@std@@@0@0PAU1@AAV?$allocator@UWeaponInfo@@@0@U_Nonscalar_ptr_iterator_tag@0@@Z
  00007	e8 00 00 00 00	 call	 __EH_prolog3_catch

; 370  : 	_DEBUG_RANGE(_First, _Last);
; 371  : 	_DEBUG_POINTER(_Dest);
; 372  : 	_FwdIt _Next = _Dest;

  0000c	8b 45 10	 mov	 eax, DWORD PTR __Dest$[ebp]

; 373  : 
; 374  : 	_TRY_BEGIN

  0000f	83 65 fc 00	 and	 DWORD PTR __$EHRec$[ebp+12], 0
  00013	89 45 ec	 mov	 DWORD PTR __Next$[ebp], eax

; 375  : 	for (; _First != _Last; ++_Dest, ++_First)

$LL14@Uninit_cop@2:
  00016	8b 45 08	 mov	 eax, DWORD PTR __First$[ebp]
  00019	3b 45 0c	 cmp	 eax, DWORD PTR __Last$[ebp]
  0001c	74 34		 je	 SHORT $LN4@Uninit_cop@2

; 376  : 		_Cons_val(_Al, _Dest, *_First);

  0001e	50		 push	 eax
  0001f	ff 75 10	 push	 DWORD PTR __Dest$[ebp]
  00022	e8 00 00 00 00	 call	 ??$_Construct@UWeaponInfo@@ABU1@@std@@YAXPAUWeaponInfo@@ABU1@@Z ; std::_Construct<WeaponInfo,WeaponInfo const &>
  00027	83 45 10 28	 add	 DWORD PTR __Dest$[ebp], 40 ; 00000028H
  0002b	83 45 08 28	 add	 DWORD PTR __First$[ebp], 40 ; 00000028H
  0002f	59		 pop	 ecx
  00030	59		 pop	 ecx
  00031	eb e3		 jmp	 SHORT $LL14@Uninit_cop@2
__catch$??$_Uninit_copy@V?$_Vector_const_iterator@V?$_Vector_val@UWeaponInfo@@V?$allocator@UWeaponInfo@@@std@@@std@@@std@@PAUWeaponInfo@@V?$allocator@UWeaponInfo@@@2@@std@@YAPAUWeaponInfo@@V?$_Vector_const_iterator@V?$_Vector_val@UWeaponInfo@@V?$allocator@UWeaponInfo@@@std@@@std@@@0@0PAU1@AAV?$allocator@UWeaponInfo@@@0@U_Nonscalar_ptr_iterator_tag@0@@Z$0:

; 377  : 	_CATCH_ALL
; 378  : 	for (; _Next != _Dest; ++_Next)

  00033	8b 75 ec	 mov	 esi, DWORD PTR __Next$[ebp]
  00036	eb 0c		 jmp	 SHORT $LN48@Uninit_cop@2
$LL3@Uninit_cop@2:

; 379  : 		_Dest_val(_Al, _Next);

  00038	8d 4e 08	 lea	 ecx, DWORD PTR [esi+8]
  0003b	ff 15 00 00 00
	00		 call	 DWORD PTR __imp_??1ioHashString@@QAE@XZ
  00041	83 c6 28	 add	 esi, 40			; 00000028H
$LN48@Uninit_cop@2:

; 377  : 	_CATCH_ALL
; 378  : 	for (; _Next != _Dest; ++_Next)

  00044	3b 75 10	 cmp	 esi, DWORD PTR __Dest$[ebp]
  00047	75 ef		 jne	 SHORT $LL3@Uninit_cop@2

; 380  : 	_RERAISE;

  00049	6a 00		 push	 0
  0004b	6a 00		 push	 0
  0004d	e8 00 00 00 00	 call	 __CxxThrowException@8
$LN49@Uninit_cop@2:
$LN4@Uninit_cop@2:

; 381  : 	_CATCH_END
; 382  : 	return (_Dest);

  00052	8b 45 10	 mov	 eax, DWORD PTR __Dest$[ebp]

; 383  : 	}

  00055	e8 00 00 00 00	 call	 __EH_epilog3
  0005a	c3		 ret	 0
$LN47@Uninit_cop@2:
_TEXT	ENDS
;	COMDAT text$x
text$x	SEGMENT
__ehhandler$??$_Uninit_copy@V?$_Vector_const_iterator@V?$_Vector_val@UWeaponInfo@@V?$allocator@UWeaponInfo@@@std@@@std@@@std@@PAUWeaponInfo@@V?$allocator@UWeaponInfo@@@2@@std@@YAPAUWeaponInfo@@V?$_Vector_const_iterator@V?$_Vector_val@UWeaponInfo@@V?$allocator@UWeaponInfo@@@std@@@std@@@0@0PAU1@AAV?$allocator@UWeaponInfo@@@0@U_Nonscalar_ptr_iterator_tag@0@@Z:
  00000	8b 54 24 08	 mov	 edx, DWORD PTR [esp+8]
  00004	8d 42 0c	 lea	 eax, DWORD PTR [edx+12]
  00007	8b 4a e8	 mov	 ecx, DWORD PTR [edx-24]
  0000a	33 c8		 xor	 ecx, eax
  0000c	e8 00 00 00 00	 call	 @__security_check_cookie@4
  00011	b8 00 00 00 00	 mov	 eax, OFFSET __ehfuncinfo$??$_Uninit_copy@V?$_Vector_const_iterator@V?$_Vector_val@UWeaponInfo@@V?$allocator@UWeaponInfo@@@std@@@std@@@std@@PAUWeaponInfo@@V?$allocator@UWeaponInfo@@@2@@std@@YAPAUWeaponInfo@@V?$_Vector_const_iterator@V?$_Vector_val@UWeaponInfo@@V?$allocator@UWeaponInfo@@@std@@@std@@@0@0PAU1@AAV?$allocator@UWeaponInfo@@@0@U_Nonscalar_ptr_iterator_tag@0@@Z
  00016	e9 00 00 00 00	 jmp	 ___CxxFrameHandler3
text$x	ENDS
??$_Uninit_copy@V?$_Vector_const_iterator@V?$_Vector_val@UWeaponInfo@@V?$allocator@UWeaponInfo@@@std@@@std@@@std@@PAUWeaponInfo@@V?$allocator@UWeaponInfo@@@2@@std@@YAPAUWeaponInfo@@V?$_Vector_const_iterator@V?$_Vector_val@UWeaponInfo@@V?$allocator@UWeaponInfo@@@std@@@std@@@0@0PAU1@AAV?$allocator@UWeaponInfo@@@0@U_Nonscalar_ptr_iterator_tag@0@@Z ENDP ; std::_Uninit_copy<std::_Vector_const_iterator<std::_Vector_val<WeaponInfo,std::allocator<WeaponInfo> > >,WeaponInfo *,std::allocator<WeaponInfo> >
PUBLIC	??$_Destroy_range@V?$allocator@UForceInfo@@@std@@@std@@YAXPAUForceInfo@@0AAV?$allocator@UForceInfo@@@0@@Z ; std::_Destroy_range<std::allocator<ForceInfo> >
; Function compile flags: /Ogsp
; File c:\program files (x86)\microsoft visual studio 10.0\vc\include\xmemory
;	COMDAT ??$_Destroy_range@V?$allocator@UForceInfo@@@std@@@std@@YAXPAUForceInfo@@0AAV?$allocator@UForceInfo@@@0@@Z
_TEXT	SEGMENT
__First$ = 8						; size = 4
__Last$ = 12						; size = 4
__Al$ = 16						; size = 4
??$_Destroy_range@V?$allocator@UForceInfo@@@std@@@std@@YAXPAUForceInfo@@0AAV?$allocator@UForceInfo@@@0@@Z PROC ; std::_Destroy_range<std::allocator<ForceInfo> >, COMDAT

; 88   : 	_Destroy_range(_First, _Last, _Al, _Ptr_cat(_First, _Last));
; 89   : 	}

  00000	c3		 ret	 0
??$_Destroy_range@V?$allocator@UForceInfo@@@std@@@std@@YAXPAUForceInfo@@0AAV?$allocator@UForceInfo@@@0@@Z ENDP ; std::_Destroy_range<std::allocator<ForceInfo> >
_TEXT	ENDS
PUBLIC	??$_Destroy_range@V?$allocator@VioHashString@@@std@@@std@@YAXPAVioHashString@@0AAV?$allocator@VioHashString@@@0@U_Nonscalar_ptr_iterator_tag@0@@Z ; std::_Destroy_range<std::allocator<ioHashString> >
; Function compile flags: /Ogsp
;	COMDAT ??$_Destroy_range@V?$allocator@VioHashString@@@std@@@std@@YAXPAVioHashString@@0AAV?$allocator@VioHashString@@@0@U_Nonscalar_ptr_iterator_tag@0@@Z
_TEXT	SEGMENT
__First$ = 8						; size = 4
__Last$ = 12						; size = 4
__Al$ = 16						; size = 4
___formal$ = 20						; size = 1
??$_Destroy_range@V?$allocator@VioHashString@@@std@@@std@@YAXPAVioHashString@@0AAV?$allocator@VioHashString@@@0@U_Nonscalar_ptr_iterator_tag@0@@Z PROC ; std::_Destroy_range<std::allocator<ioHashString> >, COMDAT

; 95   : 	{	// destroy [_First, _Last), arbitrary type

  00000	55		 push	 ebp
  00001	8b ec		 mov	 ebp, esp
  00003	56		 push	 esi

; 96   : 	for (; _First != _Last; ++_First)

  00004	8b 75 08	 mov	 esi, DWORD PTR __First$[ebp]
  00007	eb 0b		 jmp	 SHORT $LN17@Destroy_ra
$LL3@Destroy_ra:

; 97   : 		_Dest_val(_Al, _First);

  00009	8b ce		 mov	 ecx, esi
  0000b	ff 15 00 00 00
	00		 call	 DWORD PTR __imp_??1ioHashString@@QAE@XZ
  00011	83 c6 10	 add	 esi, 16			; 00000010H
$LN17@Destroy_ra:

; 96   : 	for (; _First != _Last; ++_First)

  00014	3b 75 0c	 cmp	 esi, DWORD PTR __Last$[ebp]
  00017	75 f0		 jne	 SHORT $LL3@Destroy_ra
  00019	5e		 pop	 esi

; 98   : 	}

  0001a	5d		 pop	 ebp
  0001b	c3		 ret	 0
??$_Destroy_range@V?$allocator@VioHashString@@@std@@@std@@YAXPAVioHashString@@0AAV?$allocator@VioHashString@@@0@U_Nonscalar_ptr_iterator_tag@0@@Z ENDP ; std::_Destroy_range<std::allocator<ioHashString> >
_TEXT	ENDS
PUBLIC	??$_Destroy_range@V?$allocator@UWeaponInfo@@@std@@@std@@YAXPAUWeaponInfo@@0AAV?$allocator@UWeaponInfo@@@0@U_Nonscalar_ptr_iterator_tag@0@@Z ; std::_Destroy_range<std::allocator<WeaponInfo> >
; Function compile flags: /Ogsp
;	COMDAT ??$_Destroy_range@V?$allocator@UWeaponInfo@@@std@@@std@@YAXPAUWeaponInfo@@0AAV?$allocator@UWeaponInfo@@@0@U_Nonscalar_ptr_iterator_tag@0@@Z
_TEXT	SEGMENT
__First$ = 8						; size = 4
__Last$ = 12						; size = 4
__Al$ = 16						; size = 4
___formal$ = 20						; size = 1
??$_Destroy_range@V?$allocator@UWeaponInfo@@@std@@@std@@YAXPAUWeaponInfo@@0AAV?$allocator@UWeaponInfo@@@0@U_Nonscalar_ptr_iterator_tag@0@@Z PROC ; std::_Destroy_range<std::allocator<WeaponInfo> >, COMDAT

; 95   : 	{	// destroy [_First, _Last), arbitrary type

  00000	55		 push	 ebp
  00001	8b ec		 mov	 ebp, esp
  00003	56		 push	 esi

; 96   : 	for (; _First != _Last; ++_First)

  00004	8b 75 08	 mov	 esi, DWORD PTR __First$[ebp]
  00007	eb 0c		 jmp	 SHORT $LN20@Destroy_ra@2
$LL3@Destroy_ra@2:

; 97   : 		_Dest_val(_Al, _First);

  00009	8d 4e 08	 lea	 ecx, DWORD PTR [esi+8]
  0000c	ff 15 00 00 00
	00		 call	 DWORD PTR __imp_??1ioHashString@@QAE@XZ
  00012	83 c6 28	 add	 esi, 40			; 00000028H
$LN20@Destroy_ra@2:

; 96   : 	for (; _First != _Last; ++_First)

  00015	3b 75 0c	 cmp	 esi, DWORD PTR __Last$[ebp]
  00018	75 ef		 jne	 SHORT $LL3@Destroy_ra@2
  0001a	5e		 pop	 esi

; 98   : 	}

  0001b	5d		 pop	 ebp
  0001c	c3		 ret	 0
??$_Destroy_range@V?$allocator@UWeaponInfo@@@std@@@std@@YAXPAUWeaponInfo@@0AAV?$allocator@UWeaponInfo@@@0@U_Nonscalar_ptr_iterator_tag@0@@Z ENDP ; std::_Destroy_range<std::allocator<WeaponInfo> >
_TEXT	ENDS
PUBLIC	??$_Uninit_copy@V?$_Vector_const_iterator@V?$_Vector_val@VioHashString@@V?$allocator@VioHashString@@@std@@@std@@@std@@PAVioHashString@@V?$allocator@VioHashString@@@2@@std@@YAPAVioHashString@@V?$_Vector_const_iterator@V?$_Vector_val@VioHashString@@V?$allocator@VioHashString@@@std@@@std@@@0@0PAV1@AAV?$allocator@VioHashString@@@0@U_Nonscalar_ptr_iterator_tag@0@@Z ; std::_Uninit_copy<std::_Vector_const_iterator<std::_Vector_val<ioHashString,std::allocator<ioHashString> > >,ioHashString *,std::allocator<ioHashString> >
;	COMDAT xdata$x
; File c:\program files (x86)\microsoft visual studio 10.0\vc\include\vector
xdata$x	SEGMENT
__catchsym$??$_Uninit_copy@V?$_Vector_const_iterator@V?$_Vector_val@VioHashString@@V?$allocator@VioHashString@@@std@@@std@@@std@@PAVioHashString@@V?$allocator@VioHashString@@@2@@std@@YAPAVioHashString@@V?$_Vector_const_iterator@V?$_Vector_val@VioHashString@@V?$allocator@VioHashString@@@std@@@std@@@0@0PAV1@AAV?$allocator@VioHashString@@@0@U_Nonscalar_ptr_iterator_tag@0@@Z$2 DD 040H
	DD	00H
	DD	00H
	DD	FLAT:__catch$??$_Uninit_copy@V?$_Vector_const_iterator@V?$_Vector_val@VioHashString@@V?$allocator@VioHashString@@@std@@@std@@@std@@PAVioHashString@@V?$allocator@VioHashString@@@2@@std@@YAPAVioHashString@@V?$_Vector_const_iterator@V?$_Vector_val@VioHashString@@V?$allocator@VioHashString@@@std@@@std@@@0@0PAV1@AAV?$allocator@VioHashString@@@0@U_Nonscalar_ptr_iterator_tag@0@@Z$0
__unwindtable$??$_Uninit_copy@V?$_Vector_const_iterator@V?$_Vector_val@VioHashString@@V?$allocator@VioHashString@@@std@@@std@@@std@@PAVioHashString@@V?$allocator@VioHashString@@@2@@std@@YAPAVioHashString@@V?$_Vector_const_iterator@V?$_Vector_val@VioHashString@@V?$allocator@VioHashString@@@std@@@std@@@0@0PAV1@AAV?$allocator@VioHashString@@@0@U_Nonscalar_ptr_iterator_tag@0@@Z DD 0ffffffffH
	DD	00H
	DD	0ffffffffH
	DD	00H
__tryblocktable$??$_Uninit_copy@V?$_Vector_const_iterator@V?$_Vector_val@VioHashString@@V?$allocator@VioHashString@@@std@@@std@@@std@@PAVioHashString@@V?$allocator@VioHashString@@@2@@std@@YAPAVioHashString@@V?$_Vector_const_iterator@V?$_Vector_val@VioHashString@@V?$allocator@VioHashString@@@std@@@std@@@0@0PAV1@AAV?$allocator@VioHashString@@@0@U_Nonscalar_ptr_iterator_tag@0@@Z DD 00H
	DD	00H
	DD	01H
	DD	01H
	DD	FLAT:__catchsym$??$_Uninit_copy@V?$_Vector_const_iterator@V?$_Vector_val@VioHashString@@V?$allocator@VioHashString@@@std@@@std@@@std@@PAVioHashString@@V?$allocator@VioHashString@@@2@@std@@YAPAVioHashString@@V?$_Vector_const_iterator@V?$_Vector_val@VioHashString@@V?$allocator@VioHashString@@@std@@@std@@@0@0PAV1@AAV?$allocator@VioHashString@@@0@U_Nonscalar_ptr_iterator_tag@0@@Z$2
__ehfuncinfo$??$_Uninit_copy@V?$_Vector_const_iterator@V?$_Vector_val@VioHashString@@V?$allocator@VioHashString@@@std@@@std@@@std@@PAVioHashString@@V?$allocator@VioHashString@@@2@@std@@YAPAVioHashString@@V?$_Vector_const_iterator@V?$_Vector_val@VioHashString@@V?$allocator@VioHashString@@@std@@@std@@@0@0PAV1@AAV?$allocator@VioHashString@@@0@U_Nonscalar_ptr_iterator_tag@0@@Z DD 019930522H
	DD	02H
	DD	FLAT:__unwindtable$??$_Uninit_copy@V?$_Vector_const_iterator@V?$_Vector_val@VioHashString@@V?$allocator@VioHashString@@@std@@@std@@@std@@PAVioHashString@@V?$allocator@VioHashString@@@2@@std@@YAPAVioHashString@@V?$_Vector_const_iterator@V?$_Vector_val@VioHashString@@V?$allocator@VioHashString@@@std@@@std@@@0@0PAV1@AAV?$allocator@VioHashString@@@0@U_Nonscalar_ptr_iterator_tag@0@@Z
	DD	01H
	DD	FLAT:__tryblocktable$??$_Uninit_copy@V?$_Vector_const_iterator@V?$_Vector_val@VioHashString@@V?$allocator@VioHashString@@@std@@@std@@@std@@PAVioHashString@@V?$allocator@VioHashString@@@2@@std@@YAPAVioHashString@@V?$_Vector_const_iterator@V?$_Vector_val@VioHashString@@V?$allocator@VioHashString@@@std@@@std@@@0@0PAV1@AAV?$allocator@VioHashString@@@0@U_Nonscalar_ptr_iterator_tag@0@@Z
	DD	2 DUP(00H)
	DD	00H
	DD	01H
; Function compile flags: /Ogsp
; File c:\program files (x86)\microsoft visual studio 10.0\vc\include\memory
xdata$x	ENDS
;	COMDAT ??$_Uninit_copy@V?$_Vector_const_iterator@V?$_Vector_val@VioHashString@@V?$allocator@VioHashString@@@std@@@std@@@std@@PAVioHashString@@V?$allocator@VioHashString@@@2@@std@@YAPAVioHashString@@V?$_Vector_const_iterator@V?$_Vector_val@VioHashString@@V?$allocator@VioHashString@@@std@@@std@@@0@0PAV1@AAV?$allocator@VioHashString@@@0@U_Nonscalar_ptr_iterator_tag@0@@Z
_TEXT	SEGMENT
__Next$ = -20						; size = 4
__$EHRec$ = -16						; size = 16
__First$ = 8						; size = 4
__Last$ = 12						; size = 4
__Dest$ = 16						; size = 4
__Al$ = 20						; size = 4
___formal$ = 24						; size = 1
??$_Uninit_copy@V?$_Vector_const_iterator@V?$_Vector_val@VioHashString@@V?$allocator@VioHashString@@@std@@@std@@@std@@PAVioHashString@@V?$allocator@VioHashString@@@2@@std@@YAPAVioHashString@@V?$_Vector_const_iterator@V?$_Vector_val@VioHashString@@V?$allocator@VioHashString@@@std@@@std@@@0@0PAV1@AAV?$allocator@VioHashString@@@0@U_Nonscalar_ptr_iterator_tag@0@@Z PROC ; std::_Uninit_copy<std::_Vector_const_iterator<std::_Vector_val<ioHashString,std::allocator<ioHashString> > >,ioHashString *,std::allocator<ioHashString> >, COMDAT

; 369  : 	{	// copy [_First, _Last) to raw _Dest, using _Al, arbitrary type

  00000	6a 08		 push	 8
  00002	b8 00 00 00 00	 mov	 eax, __ehhandler$??$_Uninit_copy@V?$_Vector_const_iterator@V?$_Vector_val@VioHashString@@V?$allocator@VioHashString@@@std@@@std@@@std@@PAVioHashString@@V?$allocator@VioHashString@@@2@@std@@YAPAVioHashString@@V?$_Vector_const_iterator@V?$_Vector_val@VioHashString@@V?$allocator@VioHashString@@@std@@@std@@@0@0PAV1@AAV?$allocator@VioHashString@@@0@U_Nonscalar_ptr_iterator_tag@0@@Z
  00007	e8 00 00 00 00	 call	 __EH_prolog3_catch

; 370  : 	_DEBUG_RANGE(_First, _Last);
; 371  : 	_DEBUG_POINTER(_Dest);
; 372  : 	_FwdIt _Next = _Dest;

  0000c	8b 45 10	 mov	 eax, DWORD PTR __Dest$[ebp]

; 373  : 
; 374  : 	_TRY_BEGIN

  0000f	83 65 fc 00	 and	 DWORD PTR __$EHRec$[ebp+12], 0
  00013	89 45 ec	 mov	 DWORD PTR __Next$[ebp], eax

; 375  : 	for (; _First != _Last; ++_Dest, ++_First)

$LL14@Uninit_cop@3:
  00016	8b 45 08	 mov	 eax, DWORD PTR __First$[ebp]
  00019	3b 45 0c	 cmp	 eax, DWORD PTR __Last$[ebp]
  0001c	74 33		 je	 SHORT $LN4@Uninit_cop@3

; 376  : 		_Cons_val(_Al, _Dest, *_First);

  0001e	50		 push	 eax
  0001f	ff 75 10	 push	 DWORD PTR __Dest$[ebp]
  00022	e8 00 00 00 00	 call	 ??$_Construct@VioHashString@@ABV1@@std@@YAXPAVioHashString@@ABV1@@Z ; std::_Construct<ioHashString,ioHashString const &>
  00027	83 45 10 10	 add	 DWORD PTR __Dest$[ebp], 16 ; 00000010H
  0002b	83 45 08 10	 add	 DWORD PTR __First$[ebp], 16 ; 00000010H
  0002f	59		 pop	 ecx
  00030	59		 pop	 ecx
  00031	eb e3		 jmp	 SHORT $LL14@Uninit_cop@3
__catch$??$_Uninit_copy@V?$_Vector_const_iterator@V?$_Vector_val@VioHashString@@V?$allocator@VioHashString@@@std@@@std@@@std@@PAVioHashString@@V?$allocator@VioHashString@@@2@@std@@YAPAVioHashString@@V?$_Vector_const_iterator@V?$_Vector_val@VioHashString@@V?$allocator@VioHashString@@@std@@@std@@@0@0PAV1@AAV?$allocator@VioHashString@@@0@U_Nonscalar_ptr_iterator_tag@0@@Z$0:

; 377  : 	_CATCH_ALL
; 378  : 	for (; _Next != _Dest; ++_Next)

  00033	8b 75 ec	 mov	 esi, DWORD PTR __Next$[ebp]
  00036	eb 0b		 jmp	 SHORT $LN45@Uninit_cop@3
$LL3@Uninit_cop@3:

; 379  : 		_Dest_val(_Al, _Next);

  00038	8b ce		 mov	 ecx, esi
  0003a	ff 15 00 00 00
	00		 call	 DWORD PTR __imp_??1ioHashString@@QAE@XZ
  00040	83 c6 10	 add	 esi, 16			; 00000010H
$LN45@Uninit_cop@3:

; 377  : 	_CATCH_ALL
; 378  : 	for (; _Next != _Dest; ++_Next)

  00043	3b 75 10	 cmp	 esi, DWORD PTR __Dest$[ebp]
  00046	75 f0		 jne	 SHORT $LL3@Uninit_cop@3

; 380  : 	_RERAISE;

  00048	6a 00		 push	 0
  0004a	6a 00		 push	 0
  0004c	e8 00 00 00 00	 call	 __CxxThrowException@8
$LN46@Uninit_cop@3:
$LN4@Uninit_cop@3:

; 381  : 	_CATCH_END
; 382  : 	return (_Dest);

  00051	8b 45 10	 mov	 eax, DWORD PTR __Dest$[ebp]

; 383  : 	}

  00054	e8 00 00 00 00	 call	 __EH_epilog3
  00059	c3		 ret	 0
$LN44@Uninit_cop@3:
_TEXT	ENDS
;	COMDAT text$x
text$x	SEGMENT
__ehhandler$??$_Uninit_copy@V?$_Vector_const_iterator@V?$_Vector_val@VioHashString@@V?$allocator@VioHashString@@@std@@@std@@@std@@PAVioHashString@@V?$allocator@VioHashString@@@2@@std@@YAPAVioHashString@@V?$_Vector_const_iterator@V?$_Vector_val@VioHashString@@V?$allocator@VioHashString@@@std@@@std@@@0@0PAV1@AAV?$allocator@VioHashString@@@0@U_Nonscalar_ptr_iterator_tag@0@@Z:
  00000	8b 54 24 08	 mov	 edx, DWORD PTR [esp+8]
  00004	8d 42 0c	 lea	 eax, DWORD PTR [edx+12]
  00007	8b 4a e8	 mov	 ecx, DWORD PTR [edx-24]
  0000a	33 c8		 xor	 ecx, eax
  0000c	e8 00 00 00 00	 call	 @__security_check_cookie@4
  00011	b8 00 00 00 00	 mov	 eax, OFFSET __ehfuncinfo$??$_Uninit_copy@V?$_Vector_const_iterator@V?$_Vector_val@VioHashString@@V?$allocator@VioHashString@@@std@@@std@@@std@@PAVioHashString@@V?$allocator@VioHashString@@@2@@std@@YAPAVioHashString@@V?$_Vector_const_iterator@V?$_Vector_val@VioHashString@@V?$allocator@VioHashString@@@std@@@std@@@0@0PAV1@AAV?$allocator@VioHashString@@@0@U_Nonscalar_ptr_iterator_tag@0@@Z
  00016	e9 00 00 00 00	 jmp	 ___CxxFrameHandler3
text$x	ENDS
??$_Uninit_copy@V?$_Vector_const_iterator@V?$_Vector_val@VioHashString@@V?$allocator@VioHashString@@@std@@@std@@@std@@PAVioHashString@@V?$allocator@VioHashString@@@2@@std@@YAPAVioHashString@@V?$_Vector_const_iterator@V?$_Vector_val@VioHashString@@V?$allocator@VioHashString@@@std@@@std@@@0@0PAV1@AAV?$allocator@VioHashString@@@0@U_Nonscalar_ptr_iterator_tag@0@@Z ENDP ; std::_Uninit_copy<std::_Vector_const_iterator<std::_Vector_val<ioHashString,std::allocator<ioHashString> > >,ioHashString *,std::allocator<ioHashString> >
PUBLIC	??$_Uninitialized_move@PAVioHashString@@PAV1@V?$allocator@VioHashString@@@std@@@std@@YAPAVioHashString@@PAV1@00AAV?$allocator@VioHashString@@@0@@Z ; std::_Uninitialized_move<ioHashString *,ioHashString *,std::allocator<ioHashString> >
; Function compile flags: /Ogsp
;	COMDAT ??$_Uninitialized_move@PAVioHashString@@PAV1@V?$allocator@VioHashString@@@std@@@std@@YAPAVioHashString@@PAV1@00AAV?$allocator@VioHashString@@@0@@Z
_TEXT	SEGMENT
__Cat$559142 = -4					; size = 1
__First$ = 8						; size = 4
__Last$ = 12						; size = 4
__Dest$ = 16						; size = 4
__Al$ = 20						; size = 4
??$_Uninitialized_move@PAVioHashString@@PAV1@V?$allocator@VioHashString@@@std@@@std@@YAPAVioHashString@@PAV1@00AAV?$allocator@VioHashString@@@0@@Z PROC ; std::_Uninitialized_move<ioHashString *,ioHashString *,std::allocator<ioHashString> >, COMDAT

; 469  : 	{	// move [_First, _Last) to raw _Dest, using _Al

  00000	55		 push	 ebp
  00001	8b ec		 mov	 ebp, esp
  00003	51		 push	 ecx

; 470  : 	return (_Uninit_move(_First, _Last, _Dest, _Al,
; 471  : 		_Val_type(_First), _Ptr_cat(_First, _Dest)));

  00004	ff 75 fc	 push	 DWORD PTR __Cat$559142[ebp]
  00007	6a 00		 push	 0
  00009	ff 75 14	 push	 DWORD PTR __Al$[ebp]
  0000c	ff 75 10	 push	 DWORD PTR __Dest$[ebp]
  0000f	ff 75 0c	 push	 DWORD PTR __Last$[ebp]
  00012	ff 75 08	 push	 DWORD PTR __First$[ebp]
  00015	e8 00 00 00 00	 call	 ??$_Uninit_move@PAVioHashString@@PAV1@V?$allocator@VioHashString@@@std@@V1@@std@@YAPAVioHashString@@PAV1@00AAV?$allocator@VioHashString@@@0@0U_Nonscalar_ptr_iterator_tag@0@@Z ; std::_Uninit_move<ioHashString *,ioHashString *,std::allocator<ioHashString>,ioHashString>
  0001a	83 c4 18	 add	 esp, 24			; 00000018H

; 472  : 	}

  0001d	c9		 leave
  0001e	c3		 ret	 0
??$_Uninitialized_move@PAVioHashString@@PAV1@V?$allocator@VioHashString@@@std@@@std@@YAPAVioHashString@@PAV1@00AAV?$allocator@VioHashString@@@0@@Z ENDP ; std::_Uninitialized_move<ioHashString *,ioHashString *,std::allocator<ioHashString> >
_TEXT	ENDS
PUBLIC	??$_Ucopy@V?$_Vector_const_iterator@V?$_Vector_val@UForceInfo@@V?$allocator@UForceInfo@@@std@@@std@@@std@@@?$vector@UForceInfo@@V?$allocator@UForceInfo@@@std@@@std@@IAEPAUForceInfo@@V?$_Vector_const_iterator@V?$_Vector_val@UForceInfo@@V?$allocator@UForceInfo@@@std@@@std@@@1@0PAU2@@Z ; std::vector<ForceInfo,std::allocator<ForceInfo> >::_Ucopy<std::_Vector_const_iterator<std::_Vector_val<ForceInfo,std::allocator<ForceInfo> > > >
; Function compile flags: /Ogsp
; File c:\program files (x86)\microsoft visual studio 10.0\vc\include\vector
;	COMDAT ??$_Ucopy@V?$_Vector_const_iterator@V?$_Vector_val@UForceInfo@@V?$allocator@UForceInfo@@@std@@@std@@@std@@@?$vector@UForceInfo@@V?$allocator@UForceInfo@@@std@@@std@@IAEPAUForceInfo@@V?$_Vector_const_iterator@V?$_Vector_val@UForceInfo@@V?$allocator@UForceInfo@@@std@@@std@@@1@0PAU2@@Z
_TEXT	SEGMENT
__First$ = 8						; size = 4
__Last$ = 12						; size = 4
__Cat$559158 = 16					; size = 1
__Ptr$ = 16						; size = 4
??$_Ucopy@V?$_Vector_const_iterator@V?$_Vector_val@UForceInfo@@V?$allocator@UForceInfo@@@std@@@std@@@std@@@?$vector@UForceInfo@@V?$allocator@UForceInfo@@@std@@@std@@IAEPAUForceInfo@@V?$_Vector_const_iterator@V?$_Vector_val@UForceInfo@@V?$allocator@UForceInfo@@@std@@@std@@@1@0PAU2@@Z PROC ; std::vector<ForceInfo,std::allocator<ForceInfo> >::_Ucopy<std::_Vector_const_iterator<std::_Vector_val<ForceInfo,std::allocator<ForceInfo> > > >, COMDAT
; _this$ = ecx

; 1315 : 		pointer _Ucopy(_Iter _First, _Iter _Last, pointer _Ptr)

  00000	55		 push	 ebp
  00001	8b ec		 mov	 ebp, esp

; 1316 : 		{	// copy initializing [_First, _Last), using allocator
; 1317 : 		return (_Uninitialized_copy(_First, _Last,
; 1318 : 			_Ptr, this->_Alval));

  00003	ff 75 10	 push	 DWORD PTR __Cat$559158[ebp]
  00006	83 c1 0c	 add	 ecx, 12			; 0000000cH
  00009	51		 push	 ecx
  0000a	ff 75 10	 push	 DWORD PTR __Ptr$[ebp]
  0000d	ff 75 0c	 push	 DWORD PTR __Last$[ebp]
  00010	ff 75 08	 push	 DWORD PTR __First$[ebp]
  00013	e8 00 00 00 00	 call	 ??$_Uninit_copy@V?$_Vector_const_iterator@V?$_Vector_val@UForceInfo@@V?$allocator@UForceInfo@@@std@@@std@@@std@@PAUForceInfo@@V?$allocator@UForceInfo@@@2@@std@@YAPAUForceInfo@@V?$_Vector_const_iterator@V?$_Vector_val@UForceInfo@@V?$allocator@UForceInfo@@@std@@@std@@@0@0PAU1@AAV?$allocator@UForceInfo@@@0@U_Nonscalar_ptr_iterator_tag@0@@Z ; std::_Uninit_copy<std::_Vector_const_iterator<std::_Vector_val<ForceInfo,std::allocator<ForceInfo> > >,ForceInfo *,std::allocator<ForceInfo> >
  00018	83 c4 14	 add	 esp, 20			; 00000014H

; 1319 : 		}

  0001b	5d		 pop	 ebp
  0001c	c2 0c 00	 ret	 12			; 0000000cH
??$_Ucopy@V?$_Vector_const_iterator@V?$_Vector_val@UForceInfo@@V?$allocator@UForceInfo@@@std@@@std@@@std@@@?$vector@UForceInfo@@V?$allocator@UForceInfo@@@std@@@std@@IAEPAUForceInfo@@V?$_Vector_const_iterator@V?$_Vector_val@UForceInfo@@V?$allocator@UForceInfo@@@std@@@std@@@1@0PAU2@@Z ENDP ; std::vector<ForceInfo,std::allocator<ForceInfo> >::_Ucopy<std::_Vector_const_iterator<std::_Vector_val<ForceInfo,std::allocator<ForceInfo> > > >
_TEXT	ENDS
PUBLIC	??$_Uninitialized_copy@V?$_Vector_const_iterator@V?$_Vector_val@UWeaponInfo@@V?$allocator@UWeaponInfo@@@std@@@std@@@std@@PAUWeaponInfo@@V?$allocator@UWeaponInfo@@@2@@std@@YAPAUWeaponInfo@@V?$_Vector_const_iterator@V?$_Vector_val@UWeaponInfo@@V?$allocator@UWeaponInfo@@@std@@@std@@@0@0PAU1@AAV?$allocator@UWeaponInfo@@@0@@Z ; std::_Uninitialized_copy<std::_Vector_const_iterator<std::_Vector_val<WeaponInfo,std::allocator<WeaponInfo> > >,WeaponInfo *,std::allocator<WeaponInfo> >
; Function compile flags: /Ogsp
; File c:\program files (x86)\microsoft visual studio 10.0\vc\include\memory
;	COMDAT ??$_Uninitialized_copy@V?$_Vector_const_iterator@V?$_Vector_val@UWeaponInfo@@V?$allocator@UWeaponInfo@@@std@@@std@@@std@@PAUWeaponInfo@@V?$allocator@UWeaponInfo@@@2@@std@@YAPAUWeaponInfo@@V?$_Vector_const_iterator@V?$_Vector_val@UWeaponInfo@@V?$allocator@UWeaponInfo@@@std@@@std@@@0@0PAU1@AAV?$allocator@UWeaponInfo@@@0@@Z
_TEXT	SEGMENT
__Cat$559168 = -4					; size = 1
__First$ = 8						; size = 4
__Last$ = 12						; size = 4
__Dest$ = 16						; size = 4
__Al$ = 20						; size = 4
??$_Uninitialized_copy@V?$_Vector_const_iterator@V?$_Vector_val@UWeaponInfo@@V?$allocator@UWeaponInfo@@@std@@@std@@@std@@PAUWeaponInfo@@V?$allocator@UWeaponInfo@@@2@@std@@YAPAUWeaponInfo@@V?$_Vector_const_iterator@V?$_Vector_val@UWeaponInfo@@V?$allocator@UWeaponInfo@@@std@@@std@@@0@0PAU1@AAV?$allocator@UWeaponInfo@@@0@@Z PROC ; std::_Uninitialized_copy<std::_Vector_const_iterator<std::_Vector_val<WeaponInfo,std::allocator<WeaponInfo> > >,WeaponInfo *,std::allocator<WeaponInfo> >, COMDAT

; 412  : 	{	// copy [_First, _Last) to raw _Dest, using _Al

  00000	55		 push	 ebp
  00001	8b ec		 mov	 ebp, esp
  00003	51		 push	 ecx

; 413  : 	return (_Uninit_copy(_First, _Last, _Dest, _Al,
; 414  : 		_Ptr_cat(_First, _Dest)));

  00004	ff 75 fc	 push	 DWORD PTR __Cat$559168[ebp]
  00007	ff 75 14	 push	 DWORD PTR __Al$[ebp]
  0000a	ff 75 10	 push	 DWORD PTR __Dest$[ebp]
  0000d	ff 75 0c	 push	 DWORD PTR __Last$[ebp]
  00010	ff 75 08	 push	 DWORD PTR __First$[ebp]
  00013	e8 00 00 00 00	 call	 ??$_Uninit_copy@V?$_Vector_const_iterator@V?$_Vector_val@UWeaponInfo@@V?$allocator@UWeaponInfo@@@std@@@std@@@std@@PAUWeaponInfo@@V?$allocator@UWeaponInfo@@@2@@std@@YAPAUWeaponInfo@@V?$_Vector_const_iterator@V?$_Vector_val@UWeaponInfo@@V?$allocator@UWeaponInfo@@@std@@@std@@@0@0PAU1@AAV?$allocator@UWeaponInfo@@@0@U_Nonscalar_ptr_iterator_tag@0@@Z ; std::_Uninit_copy<std::_Vector_const_iterator<std::_Vector_val<WeaponInfo,std::allocator<WeaponInfo> > >,WeaponInfo *,std::allocator<WeaponInfo> >
  00018	83 c4 14	 add	 esp, 20			; 00000014H

; 415  : 	}

  0001b	c9		 leave
  0001c	c3		 ret	 0
??$_Uninitialized_copy@V?$_Vector_const_iterator@V?$_Vector_val@UWeaponInfo@@V?$allocator@UWeaponInfo@@@std@@@std@@@std@@PAUWeaponInfo@@V?$allocator@UWeaponInfo@@@2@@std@@YAPAUWeaponInfo@@V?$_Vector_const_iterator@V?$_Vector_val@UWeaponInfo@@V?$allocator@UWeaponInfo@@@std@@@std@@@0@0PAU1@AAV?$allocator@UWeaponInfo@@@0@@Z ENDP ; std::_Uninitialized_copy<std::_Vector_const_iterator<std::_Vector_val<WeaponInfo,std::allocator<WeaponInfo> > >,WeaponInfo *,std::allocator<WeaponInfo> >
_TEXT	ENDS
PUBLIC	?_Destroy@?$vector@UForceInfo@@V?$allocator@UForceInfo@@@std@@@std@@IAEXPAUForceInfo@@0@Z ; std::vector<ForceInfo,std::allocator<ForceInfo> >::_Destroy
; Function compile flags: /Ogsp
; File c:\program files (x86)\microsoft visual studio 10.0\vc\include\vector
;	COMDAT ?_Destroy@?$vector@UForceInfo@@V?$allocator@UForceInfo@@@std@@@std@@IAEXPAUForceInfo@@0@Z
_TEXT	SEGMENT
__First$ = 8						; size = 4
__Last$ = 12						; size = 4
?_Destroy@?$vector@UForceInfo@@V?$allocator@UForceInfo@@@std@@@std@@IAEXPAUForceInfo@@0@Z PROC ; std::vector<ForceInfo,std::allocator<ForceInfo> >::_Destroy, COMDAT
; _this$ = ecx

; 1270 : 		_Destroy_range(_First, _Last, this->_Alval);
; 1271 : 		}

  00000	c2 08 00	 ret	 8
?_Destroy@?$vector@UForceInfo@@V?$allocator@UForceInfo@@@std@@@std@@IAEXPAUForceInfo@@0@Z ENDP ; std::vector<ForceInfo,std::allocator<ForceInfo> >::_Destroy
_TEXT	ENDS
PUBLIC	??$_Destroy_range@V?$allocator@VioHashString@@@std@@@std@@YAXPAVioHashString@@0AAV?$allocator@VioHashString@@@0@@Z ; std::_Destroy_range<std::allocator<ioHashString> >
; Function compile flags: /Ogsp
; File c:\program files (x86)\microsoft visual studio 10.0\vc\include\xmemory
;	COMDAT ??$_Destroy_range@V?$allocator@VioHashString@@@std@@@std@@YAXPAVioHashString@@0AAV?$allocator@VioHashString@@@0@@Z
_TEXT	SEGMENT
__First$ = 8						; size = 4
__Last$ = 12						; size = 4
__Al$ = 16						; size = 4
??$_Destroy_range@V?$allocator@VioHashString@@@std@@@std@@YAXPAVioHashString@@0AAV?$allocator@VioHashString@@@0@@Z PROC ; std::_Destroy_range<std::allocator<ioHashString> >, COMDAT

; 87   : 	{	// destroy [_First, _Last)

  00000	55		 push	 ebp
  00001	8b ec		 mov	 ebp, esp
  00003	56		 push	 esi

; 88   : 	_Destroy_range(_First, _Last, _Al, _Ptr_cat(_First, _Last));

  00004	8b 75 08	 mov	 esi, DWORD PTR __First$[ebp]
  00007	eb 0b		 jmp	 SHORT $LN21@Destroy_ra@3
$LL7@Destroy_ra@3:
  00009	8b ce		 mov	 ecx, esi
  0000b	ff 15 00 00 00
	00		 call	 DWORD PTR __imp_??1ioHashString@@QAE@XZ
  00011	83 c6 10	 add	 esi, 16			; 00000010H
$LN21@Destroy_ra@3:
  00014	3b 75 0c	 cmp	 esi, DWORD PTR __Last$[ebp]
  00017	75 f0		 jne	 SHORT $LL7@Destroy_ra@3
  00019	5e		 pop	 esi

; 89   : 	}

  0001a	5d		 pop	 ebp
  0001b	c3		 ret	 0
??$_Destroy_range@V?$allocator@VioHashString@@@std@@@std@@YAXPAVioHashString@@0AAV?$allocator@VioHashString@@@0@@Z ENDP ; std::_Destroy_range<std::allocator<ioHashString> >
_TEXT	ENDS
PUBLIC	??$_Destroy_range@V?$allocator@UWeaponInfo@@@std@@@std@@YAXPAUWeaponInfo@@0AAV?$allocator@UWeaponInfo@@@0@@Z ; std::_Destroy_range<std::allocator<WeaponInfo> >
; Function compile flags: /Ogsp
;	COMDAT ??$_Destroy_range@V?$allocator@UWeaponInfo@@@std@@@std@@YAXPAUWeaponInfo@@0AAV?$allocator@UWeaponInfo@@@0@@Z
_TEXT	SEGMENT
__First$ = 8						; size = 4
__Last$ = 12						; size = 4
__Al$ = 16						; size = 4
??$_Destroy_range@V?$allocator@UWeaponInfo@@@std@@@std@@YAXPAUWeaponInfo@@0AAV?$allocator@UWeaponInfo@@@0@@Z PROC ; std::_Destroy_range<std::allocator<WeaponInfo> >, COMDAT

; 87   : 	{	// destroy [_First, _Last)

  00000	55		 push	 ebp
  00001	8b ec		 mov	 ebp, esp
  00003	56		 push	 esi

; 88   : 	_Destroy_range(_First, _Last, _Al, _Ptr_cat(_First, _Last));

  00004	8b 75 08	 mov	 esi, DWORD PTR __First$[ebp]
  00007	eb 0c		 jmp	 SHORT $LN24@Destroy_ra@4
$LL7@Destroy_ra@4:
  00009	8d 4e 08	 lea	 ecx, DWORD PTR [esi+8]
  0000c	ff 15 00 00 00
	00		 call	 DWORD PTR __imp_??1ioHashString@@QAE@XZ
  00012	83 c6 28	 add	 esi, 40			; 00000028H
$LN24@Destroy_ra@4:
  00015	3b 75 0c	 cmp	 esi, DWORD PTR __Last$[ebp]
  00018	75 ef		 jne	 SHORT $LL7@Destroy_ra@4
  0001a	5e		 pop	 esi

; 89   : 	}

  0001b	5d		 pop	 ebp
  0001c	c3		 ret	 0
??$_Destroy_range@V?$allocator@UWeaponInfo@@@std@@@std@@YAXPAUWeaponInfo@@0AAV?$allocator@UWeaponInfo@@@0@@Z ENDP ; std::_Destroy_range<std::allocator<WeaponInfo> >
_TEXT	ENDS
PUBLIC	??$_Uninitialized_copy@V?$_Vector_const_iterator@V?$_Vector_val@VioHashString@@V?$allocator@VioHashString@@@std@@@std@@@std@@PAVioHashString@@V?$allocator@VioHashString@@@2@@std@@YAPAVioHashString@@V?$_Vector_const_iterator@V?$_Vector_val@VioHashString@@V?$allocator@VioHashString@@@std@@@std@@@0@0PAV1@AAV?$allocator@VioHashString@@@0@@Z ; std::_Uninitialized_copy<std::_Vector_const_iterator<std::_Vector_val<ioHashString,std::allocator<ioHashString> > >,ioHashString *,std::allocator<ioHashString> >
; Function compile flags: /Ogsp
; File c:\program files (x86)\microsoft visual studio 10.0\vc\include\memory
;	COMDAT ??$_Uninitialized_copy@V?$_Vector_const_iterator@V?$_Vector_val@VioHashString@@V?$allocator@VioHashString@@@std@@@std@@@std@@PAVioHashString@@V?$allocator@VioHashString@@@2@@std@@YAPAVioHashString@@V?$_Vector_const_iterator@V?$_Vector_val@VioHashString@@V?$allocator@VioHashString@@@std@@@std@@@0@0PAV1@AAV?$allocator@VioHashString@@@0@@Z
_TEXT	SEGMENT
__Cat$559352 = -4					; size = 1
__First$ = 8						; size = 4
__Last$ = 12						; size = 4
__Dest$ = 16						; size = 4
__Al$ = 20						; size = 4
??$_Uninitialized_copy@V?$_Vector_const_iterator@V?$_Vector_val@VioHashString@@V?$allocator@VioHashString@@@std@@@std@@@std@@PAVioHashString@@V?$allocator@VioHashString@@@2@@std@@YAPAVioHashString@@V?$_Vector_const_iterator@V?$_Vector_val@VioHashString@@V?$allocator@VioHashString@@@std@@@std@@@0@0PAV1@AAV?$allocator@VioHashString@@@0@@Z PROC ; std::_Uninitialized_copy<std::_Vector_const_iterator<std::_Vector_val<ioHashString,std::allocator<ioHashString> > >,ioHashString *,std::allocator<ioHashString> >, COMDAT

; 412  : 	{	// copy [_First, _Last) to raw _Dest, using _Al

  00000	55		 push	 ebp
  00001	8b ec		 mov	 ebp, esp
  00003	51		 push	 ecx

; 413  : 	return (_Uninit_copy(_First, _Last, _Dest, _Al,
; 414  : 		_Ptr_cat(_First, _Dest)));

  00004	ff 75 fc	 push	 DWORD PTR __Cat$559352[ebp]
  00007	ff 75 14	 push	 DWORD PTR __Al$[ebp]
  0000a	ff 75 10	 push	 DWORD PTR __Dest$[ebp]
  0000d	ff 75 0c	 push	 DWORD PTR __Last$[ebp]
  00010	ff 75 08	 push	 DWORD PTR __First$[ebp]
  00013	e8 00 00 00 00	 call	 ??$_Uninit_copy@V?$_Vector_const_iterator@V?$_Vector_val@VioHashString@@V?$allocator@VioHashString@@@std@@@std@@@std@@PAVioHashString@@V?$allocator@VioHashString@@@2@@std@@YAPAVioHashString@@V?$_Vector_const_iterator@V?$_Vector_val@VioHashString@@V?$allocator@VioHashString@@@std@@@std@@@0@0PAV1@AAV?$allocator@VioHashString@@@0@U_Nonscalar_ptr_iterator_tag@0@@Z ; std::_Uninit_copy<std::_Vector_const_iterator<std::_Vector_val<ioHashString,std::allocator<ioHashString> > >,ioHashString *,std::allocator<ioHashString> >
  00018	83 c4 14	 add	 esp, 20			; 00000014H

; 415  : 	}

  0001b	c9		 leave
  0001c	c3		 ret	 0
??$_Uninitialized_copy@V?$_Vector_const_iterator@V?$_Vector_val@VioHashString@@V?$allocator@VioHashString@@@std@@@std@@@std@@PAVioHashString@@V?$allocator@VioHashString@@@2@@std@@YAPAVioHashString@@V?$_Vector_const_iterator@V?$_Vector_val@VioHashString@@V?$allocator@VioHashString@@@std@@@std@@@0@0PAV1@AAV?$allocator@VioHashString@@@0@@Z ENDP ; std::_Uninitialized_copy<std::_Vector_const_iterator<std::_Vector_val<ioHashString,std::allocator<ioHashString> > >,ioHashString *,std::allocator<ioHashString> >
_TEXT	ENDS
PUBLIC	??$_Umove@PAVioHashString@@@?$vector@VioHashString@@V?$allocator@VioHashString@@@std@@@std@@IAEPAVioHashString@@PAV2@00@Z ; std::vector<ioHashString,std::allocator<ioHashString> >::_Umove<ioHashString *>
; Function compile flags: /Ogsp
; File c:\program files (x86)\microsoft visual studio 10.0\vc\include\vector
;	COMDAT ??$_Umove@PAVioHashString@@@?$vector@VioHashString@@V?$allocator@VioHashString@@@std@@@std@@IAEPAVioHashString@@PAV2@00@Z
_TEXT	SEGMENT
__First$ = 8						; size = 4
__Last$ = 12						; size = 4
__Ptr$ = 16						; size = 4
??$_Umove@PAVioHashString@@@?$vector@VioHashString@@V?$allocator@VioHashString@@@std@@@std@@IAEPAVioHashString@@PAV2@00@Z PROC ; std::vector<ioHashString,std::allocator<ioHashString> >::_Umove<ioHashString *>, COMDAT
; _this$ = ecx

; 1322 : 		pointer _Umove(_Iter _First, _Iter _Last, pointer _Ptr)

  00000	55		 push	 ebp
  00001	8b ec		 mov	 ebp, esp

; 1323 : 		{	// move initializing [_First, _Last), using allocator
; 1324 : 		return (_Uninitialized_move(_First, _Last,
; 1325 : 			_Ptr, this->_Alval));

  00003	83 c1 0c	 add	 ecx, 12			; 0000000cH
  00006	51		 push	 ecx
  00007	ff 75 10	 push	 DWORD PTR __Ptr$[ebp]
  0000a	ff 75 0c	 push	 DWORD PTR __Last$[ebp]
  0000d	ff 75 08	 push	 DWORD PTR __First$[ebp]
  00010	e8 00 00 00 00	 call	 ??$_Uninitialized_move@PAVioHashString@@PAV1@V?$allocator@VioHashString@@@std@@@std@@YAPAVioHashString@@PAV1@00AAV?$allocator@VioHashString@@@0@@Z ; std::_Uninitialized_move<ioHashString *,ioHashString *,std::allocator<ioHashString> >
  00015	83 c4 10	 add	 esp, 16			; 00000010H

; 1326 : 		}

  00018	5d		 pop	 ebp
  00019	c2 0c 00	 ret	 12			; 0000000cH
??$_Umove@PAVioHashString@@@?$vector@VioHashString@@V?$allocator@VioHashString@@@std@@@std@@IAEPAVioHashString@@PAV2@00@Z ENDP ; std::vector<ioHashString,std::allocator<ioHashString> >::_Umove<ioHashString *>
_TEXT	ENDS
PUBLIC	??$_Ucopy@V?$_Vector_const_iterator@V?$_Vector_val@UWeaponInfo@@V?$allocator@UWeaponInfo@@@std@@@std@@@std@@@?$vector@UWeaponInfo@@V?$allocator@UWeaponInfo@@@std@@@std@@IAEPAUWeaponInfo@@V?$_Vector_const_iterator@V?$_Vector_val@UWeaponInfo@@V?$allocator@UWeaponInfo@@@std@@@std@@@1@0PAU2@@Z ; std::vector<WeaponInfo,std::allocator<WeaponInfo> >::_Ucopy<std::_Vector_const_iterator<std::_Vector_val<WeaponInfo,std::allocator<WeaponInfo> > > >
; Function compile flags: /Ogsp
;	COMDAT ??$_Ucopy@V?$_Vector_const_iterator@V?$_Vector_val@UWeaponInfo@@V?$allocator@UWeaponInfo@@@std@@@std@@@std@@@?$vector@UWeaponInfo@@V?$allocator@UWeaponInfo@@@std@@@std@@IAEPAUWeaponInfo@@V?$_Vector_const_iterator@V?$_Vector_val@UWeaponInfo@@V?$allocator@UWeaponInfo@@@std@@@std@@@1@0PAU2@@Z
_TEXT	SEGMENT
__First$ = 8						; size = 4
__Last$ = 12						; size = 4
__Cat$559368 = 16					; size = 1
__Ptr$ = 16						; size = 4
??$_Ucopy@V?$_Vector_const_iterator@V?$_Vector_val@UWeaponInfo@@V?$allocator@UWeaponInfo@@@std@@@std@@@std@@@?$vector@UWeaponInfo@@V?$allocator@UWeaponInfo@@@std@@@std@@IAEPAUWeaponInfo@@V?$_Vector_const_iterator@V?$_Vector_val@UWeaponInfo@@V?$allocator@UWeaponInfo@@@std@@@std@@@1@0PAU2@@Z PROC ; std::vector<WeaponInfo,std::allocator<WeaponInfo> >::_Ucopy<std::_Vector_const_iterator<std::_Vector_val<WeaponInfo,std::allocator<WeaponInfo> > > >, COMDAT
; _this$ = ecx

; 1315 : 		pointer _Ucopy(_Iter _First, _Iter _Last, pointer _Ptr)

  00000	55		 push	 ebp
  00001	8b ec		 mov	 ebp, esp

; 1316 : 		{	// copy initializing [_First, _Last), using allocator
; 1317 : 		return (_Uninitialized_copy(_First, _Last,
; 1318 : 			_Ptr, this->_Alval));

  00003	ff 75 10	 push	 DWORD PTR __Cat$559368[ebp]
  00006	83 c1 0c	 add	 ecx, 12			; 0000000cH
  00009	51		 push	 ecx
  0000a	ff 75 10	 push	 DWORD PTR __Ptr$[ebp]
  0000d	ff 75 0c	 push	 DWORD PTR __Last$[ebp]
  00010	ff 75 08	 push	 DWORD PTR __First$[ebp]
  00013	e8 00 00 00 00	 call	 ??$_Uninit_copy@V?$_Vector_const_iterator@V?$_Vector_val@UWeaponInfo@@V?$allocator@UWeaponInfo@@@std@@@std@@@std@@PAUWeaponInfo@@V?$allocator@UWeaponInfo@@@2@@std@@YAPAUWeaponInfo@@V?$_Vector_const_iterator@V?$_Vector_val@UWeaponInfo@@V?$allocator@UWeaponInfo@@@std@@@std@@@0@0PAU1@AAV?$allocator@UWeaponInfo@@@0@U_Nonscalar_ptr_iterator_tag@0@@Z ; std::_Uninit_copy<std::_Vector_const_iterator<std::_Vector_val<WeaponInfo,std::allocator<WeaponInfo> > >,WeaponInfo *,std::allocator<WeaponInfo> >
  00018	83 c4 14	 add	 esp, 20			; 00000014H

; 1319 : 		}

  0001b	5d		 pop	 ebp
  0001c	c2 0c 00	 ret	 12			; 0000000cH
??$_Ucopy@V?$_Vector_const_iterator@V?$_Vector_val@UWeaponInfo@@V?$allocator@UWeaponInfo@@@std@@@std@@@std@@@?$vector@UWeaponInfo@@V?$allocator@UWeaponInfo@@@std@@@std@@IAEPAUWeaponInfo@@V?$_Vector_const_iterator@V?$_Vector_val@UWeaponInfo@@V?$allocator@UWeaponInfo@@@std@@@std@@@1@0PAU2@@Z ENDP ; std::vector<WeaponInfo,std::allocator<WeaponInfo> >::_Ucopy<std::_Vector_const_iterator<std::_Vector_val<WeaponInfo,std::allocator<WeaponInfo> > > >
_TEXT	ENDS
PUBLIC	?_Tidy@?$vector@UForceInfo@@V?$allocator@UForceInfo@@@std@@@std@@IAEXXZ ; std::vector<ForceInfo,std::allocator<ForceInfo> >::_Tidy
EXTRN	__imp_?_Orphan_all@_Container_base0@std@@QAEXXZ:PROC
; Function compile flags: /Ogsp
;	COMDAT ?_Tidy@?$vector@UForceInfo@@V?$allocator@UForceInfo@@@std@@@std@@IAEXXZ
_TEXT	SEGMENT
?_Tidy@?$vector@UForceInfo@@V?$allocator@UForceInfo@@@std@@@std@@IAEXXZ PROC ; std::vector<ForceInfo,std::allocator<ForceInfo> >::_Tidy, COMDAT
; _this$ = ecx

; 1301 : 		{	// free all storage

  00000	56		 push	 esi
  00001	8b f1		 mov	 esi, ecx

; 1302 : 		if (this->_Myfirst != 0)

  00003	83 3e 00	 cmp	 DWORD PTR [esi], 0
  00006	74 0e		 je	 SHORT $LN21@Tidy

; 1303 : 			{	// something to free, destroy and deallocate it
; 1304 : 			this->_Orphan_all();

  00008	ff 15 00 00 00
	00		 call	 DWORD PTR __imp_?_Orphan_all@_Container_base0@std@@QAEXXZ

; 1305 : 			_Destroy(this->_Myfirst, this->_Mylast);
; 1306 : 			this->_Alval.deallocate(this->_Myfirst,
; 1307 : 				this->_Myend - this->_Myfirst);

  0000e	ff 36		 push	 DWORD PTR [esi]
  00010	e8 00 00 00 00	 call	 ??3@YAXPAX@Z		; operator delete
  00015	59		 pop	 ecx
$LN21@Tidy:

; 1308 : 			}
; 1309 : 		this->_Myfirst = 0;

  00016	83 26 00	 and	 DWORD PTR [esi], 0

; 1310 : 		this->_Mylast = 0;

  00019	83 66 04 00	 and	 DWORD PTR [esi+4], 0

; 1311 : 		this->_Myend = 0;

  0001d	83 66 08 00	 and	 DWORD PTR [esi+8], 0
  00021	5e		 pop	 esi

; 1312 : 		}

  00022	c3		 ret	 0
?_Tidy@?$vector@UForceInfo@@V?$allocator@UForceInfo@@@std@@@std@@IAEXXZ ENDP ; std::vector<ForceInfo,std::allocator<ForceInfo> >::_Tidy
_TEXT	ENDS
PUBLIC	?_Destroy@?$vector@VioHashString@@V?$allocator@VioHashString@@@std@@@std@@IAEXPAVioHashString@@0@Z ; std::vector<ioHashString,std::allocator<ioHashString> >::_Destroy
; Function compile flags: /Ogsp
;	COMDAT ?_Destroy@?$vector@VioHashString@@V?$allocator@VioHashString@@@std@@@std@@IAEXPAVioHashString@@0@Z
_TEXT	SEGMENT
__First$ = 8						; size = 4
__Last$ = 12						; size = 4
?_Destroy@?$vector@VioHashString@@V?$allocator@VioHashString@@@std@@@std@@IAEXPAVioHashString@@0@Z PROC ; std::vector<ioHashString,std::allocator<ioHashString> >::_Destroy, COMDAT
; _this$ = ecx

; 1269 : 		{	// destroy [_First, _Last) using allocator

  00000	55		 push	 ebp
  00001	8b ec		 mov	 ebp, esp
  00003	56		 push	 esi

; 1270 : 		_Destroy_range(_First, _Last, this->_Alval);

  00004	8b 75 08	 mov	 esi, DWORD PTR __First$[ebp]
  00007	eb 0b		 jmp	 SHORT $LN23@Destroy
$LL9@Destroy:
  00009	8b ce		 mov	 ecx, esi
  0000b	ff 15 00 00 00
	00		 call	 DWORD PTR __imp_??1ioHashString@@QAE@XZ
  00011	83 c6 10	 add	 esi, 16			; 00000010H
$LN23@Destroy:
  00014	3b 75 0c	 cmp	 esi, DWORD PTR __Last$[ebp]
  00017	75 f0		 jne	 SHORT $LL9@Destroy
  00019	5e		 pop	 esi

; 1271 : 		}

  0001a	5d		 pop	 ebp
  0001b	c2 08 00	 ret	 8
?_Destroy@?$vector@VioHashString@@V?$allocator@VioHashString@@@std@@@std@@IAEXPAVioHashString@@0@Z ENDP ; std::vector<ioHashString,std::allocator<ioHashString> >::_Destroy
_TEXT	ENDS
PUBLIC	?_Destroy@?$vector@UWeaponInfo@@V?$allocator@UWeaponInfo@@@std@@@std@@IAEXPAUWeaponInfo@@0@Z ; std::vector<WeaponInfo,std::allocator<WeaponInfo> >::_Destroy
; Function compile flags: /Ogsp
;	COMDAT ?_Destroy@?$vector@UWeaponInfo@@V?$allocator@UWeaponInfo@@@std@@@std@@IAEXPAUWeaponInfo@@0@Z
_TEXT	SEGMENT
__First$ = 8						; size = 4
__Last$ = 12						; size = 4
?_Destroy@?$vector@UWeaponInfo@@V?$allocator@UWeaponInfo@@@std@@@std@@IAEXPAUWeaponInfo@@0@Z PROC ; std::vector<WeaponInfo,std::allocator<WeaponInfo> >::_Destroy, COMDAT
; _this$ = ecx

; 1269 : 		{	// destroy [_First, _Last) using allocator

  00000	55		 push	 ebp
  00001	8b ec		 mov	 ebp, esp

; 1270 : 		_Destroy_range(_First, _Last, this->_Alval);

  00003	83 c1 0c	 add	 ecx, 12			; 0000000cH
  00006	51		 push	 ecx
  00007	ff 75 0c	 push	 DWORD PTR __Last$[ebp]
  0000a	ff 75 08	 push	 DWORD PTR __First$[ebp]
  0000d	e8 00 00 00 00	 call	 ??$_Destroy_range@V?$allocator@UWeaponInfo@@@std@@@std@@YAXPAUWeaponInfo@@0AAV?$allocator@UWeaponInfo@@@0@@Z ; std::_Destroy_range<std::allocator<WeaponInfo> >
  00012	83 c4 0c	 add	 esp, 12			; 0000000cH

; 1271 : 		}

  00015	5d		 pop	 ebp
  00016	c2 08 00	 ret	 8
?_Destroy@?$vector@UWeaponInfo@@V?$allocator@UWeaponInfo@@@std@@@std@@IAEXPAUWeaponInfo@@0@Z ENDP ; std::vector<WeaponInfo,std::allocator<WeaponInfo> >::_Destroy
_TEXT	ENDS
PUBLIC	??$_Ucopy@V?$_Vector_const_iterator@V?$_Vector_val@VioHashString@@V?$allocator@VioHashString@@@std@@@std@@@std@@@?$vector@VioHashString@@V?$allocator@VioHashString@@@std@@@std@@IAEPAVioHashString@@V?$_Vector_const_iterator@V?$_Vector_val@VioHashString@@V?$allocator@VioHashString@@@std@@@std@@@1@0PAV2@@Z ; std::vector<ioHashString,std::allocator<ioHashString> >::_Ucopy<std::_Vector_const_iterator<std::_Vector_val<ioHashString,std::allocator<ioHashString> > > >
; Function compile flags: /Ogsp
;	COMDAT ??$_Ucopy@V?$_Vector_const_iterator@V?$_Vector_val@VioHashString@@V?$allocator@VioHashString@@@std@@@std@@@std@@@?$vector@VioHashString@@V?$allocator@VioHashString@@@std@@@std@@IAEPAVioHashString@@V?$_Vector_const_iterator@V?$_Vector_val@VioHashString@@V?$allocator@VioHashString@@@std@@@std@@@1@0PAV2@@Z
_TEXT	SEGMENT
__First$ = 8						; size = 4
__Last$ = 12						; size = 4
__Cat$559542 = 16					; size = 1
__Ptr$ = 16						; size = 4
??$_Ucopy@V?$_Vector_const_iterator@V?$_Vector_val@VioHashString@@V?$allocator@VioHashString@@@std@@@std@@@std@@@?$vector@VioHashString@@V?$allocator@VioHashString@@@std@@@std@@IAEPAVioHashString@@V?$_Vector_const_iterator@V?$_Vector_val@VioHashString@@V?$allocator@VioHashString@@@std@@@std@@@1@0PAV2@@Z PROC ; std::vector<ioHashString,std::allocator<ioHashString> >::_Ucopy<std::_Vector_const_iterator<std::_Vector_val<ioHashString,std::allocator<ioHashString> > > >, COMDAT
; _this$ = ecx

; 1315 : 		pointer _Ucopy(_Iter _First, _Iter _Last, pointer _Ptr)

  00000	55		 push	 ebp
  00001	8b ec		 mov	 ebp, esp

; 1316 : 		{	// copy initializing [_First, _Last), using allocator
; 1317 : 		return (_Uninitialized_copy(_First, _Last,
; 1318 : 			_Ptr, this->_Alval));

  00003	ff 75 10	 push	 DWORD PTR __Cat$559542[ebp]
  00006	83 c1 0c	 add	 ecx, 12			; 0000000cH
  00009	51		 push	 ecx
  0000a	ff 75 10	 push	 DWORD PTR __Ptr$[ebp]
  0000d	ff 75 0c	 push	 DWORD PTR __Last$[ebp]
  00010	ff 75 08	 push	 DWORD PTR __First$[ebp]
  00013	e8 00 00 00 00	 call	 ??$_Uninit_copy@V?$_Vector_const_iterator@V?$_Vector_val@VioHashString@@V?$allocator@VioHashString@@@std@@@std@@@std@@PAVioHashString@@V?$allocator@VioHashString@@@2@@std@@YAPAVioHashString@@V?$_Vector_const_iterator@V?$_Vector_val@VioHashString@@V?$allocator@VioHashString@@@std@@@std@@@0@0PAV1@AAV?$allocator@VioHashString@@@0@U_Nonscalar_ptr_iterator_tag@0@@Z ; std::_Uninit_copy<std::_Vector_const_iterator<std::_Vector_val<ioHashString,std::allocator<ioHashString> > >,ioHashString *,std::allocator<ioHashString> >
  00018	83 c4 14	 add	 esp, 20			; 00000014H

; 1319 : 		}

  0001b	5d		 pop	 ebp
  0001c	c2 0c 00	 ret	 12			; 0000000cH
??$_Ucopy@V?$_Vector_const_iterator@V?$_Vector_val@VioHashString@@V?$allocator@VioHashString@@@std@@@std@@@std@@@?$vector@VioHashString@@V?$allocator@VioHashString@@@std@@@std@@IAEPAVioHashString@@V?$_Vector_const_iterator@V?$_Vector_val@VioHashString@@V?$allocator@VioHashString@@@std@@@std@@@1@0PAV2@@Z ENDP ; std::vector<ioHashString,std::allocator<ioHashString> >::_Ucopy<std::_Vector_const_iterator<std::_Vector_val<ioHashString,std::allocator<ioHashString> > > >
_TEXT	ENDS
PUBLIC	?reserve@?$vector@VioHashString@@V?$allocator@VioHashString@@@std@@@std@@QAEXI@Z ; std::vector<ioHashString,std::allocator<ioHashString> >::reserve
;	COMDAT xdata$x
; File c:\program files (x86)\microsoft visual studio 10.0\vc\include\xmemory
xdata$x	SEGMENT
__catchsym$?reserve@?$vector@VioHashString@@V?$allocator@VioHashString@@@std@@@std@@QAEXI@Z$2 DD 040H
	DD	00H
	DD	00H
	DD	FLAT:__catch$?reserve@?$vector@VioHashString@@V?$allocator@VioHashString@@@std@@@std@@QAEXI@Z$0
__unwindtable$?reserve@?$vector@VioHashString@@V?$allocator@VioHashString@@@std@@@std@@QAEXI@Z DD 0ffffffffH
	DD	00H
	DD	0ffffffffH
	DD	00H
__tryblocktable$?reserve@?$vector@VioHashString@@V?$allocator@VioHashString@@@std@@@std@@QAEXI@Z DD 00H
	DD	00H
	DD	01H
	DD	01H
	DD	FLAT:__catchsym$?reserve@?$vector@VioHashString@@V?$allocator@VioHashString@@@std@@@std@@QAEXI@Z$2
__ehfuncinfo$?reserve@?$vector@VioHashString@@V?$allocator@VioHashString@@@std@@@std@@QAEXI@Z DD 019930522H
	DD	02H
	DD	FLAT:__unwindtable$?reserve@?$vector@VioHashString@@V?$allocator@VioHashString@@@std@@@std@@QAEXI@Z
	DD	01H
	DD	FLAT:__tryblocktable$?reserve@?$vector@VioHashString@@V?$allocator@VioHashString@@@std@@@std@@QAEXI@Z
	DD	2 DUP(00H)
	DD	00H
	DD	01H
; Function compile flags: /Ogsp
; File c:\program files (x86)\microsoft visual studio 10.0\vc\include\vector
xdata$x	ENDS
;	COMDAT ?reserve@?$vector@VioHashString@@V?$allocator@VioHashString@@@std@@@std@@QAEXI@Z
_TEXT	SEGMENT
tv300 = -24						; size = 4
__Ptr$551526 = -20					; size = 4
__$EHRec$ = -16						; size = 16
$T559639 = 8						; size = 4
__Count$ = 8						; size = 4
?reserve@?$vector@VioHashString@@V?$allocator@VioHashString@@@std@@@std@@QAEXI@Z PROC ; std::vector<ioHashString,std::allocator<ioHashString> >::reserve, COMDAT
; _this$ = ecx

; 746  : 		{	// determine new minimum length of allocated storage

  00000	6a 0c		 push	 12			; 0000000cH
  00002	b8 00 00 00 00	 mov	 eax, __ehhandler$?reserve@?$vector@VioHashString@@V?$allocator@VioHashString@@@std@@@std@@QAEXI@Z
  00007	e8 00 00 00 00	 call	 __EH_prolog3_catch
  0000c	8b f1		 mov	 esi, ecx

; 747  : 		if (max_size() < _Count)

  0000e	8b 5d 08	 mov	 ebx, DWORD PTR __Count$[ebp]
  00011	81 fb ff ff ff
	0f		 cmp	 ebx, 268435455		; 0fffffffH
  00017	76 0b		 jbe	 SHORT $LN5@reserve

; 748  : 			_Xlen();	// result too long

  00019	68 00 00 00 00	 push	 OFFSET ??_C@_0BD@OLBABOEK@vector?$DMT?$DO?5too?5long?$AA@
  0001e	ff 15 00 00 00
	00		 call	 DWORD PTR __imp_?_Xlength_error@std@@YAXPBD@Z
$LN59@reserve:
$LN5@reserve:

; 749  : 		else if (capacity() < _Count)

  00024	8b 46 08	 mov	 eax, DWORD PTR [esi+8]
  00027	2b 06		 sub	 eax, DWORD PTR [esi]
  00029	c1 f8 04	 sar	 eax, 4
  0002c	3b c3		 cmp	 eax, ebx
  0002e	73 7a		 jae	 SHORT $LN3@reserve

; 750  : 			{	// not enough room, reallocate
; 751  : 			pointer _Ptr = this->_Alval.allocate(_Count);

  00030	6a 00		 push	 0
  00032	53		 push	 ebx
  00033	e8 00 00 00 00	 call	 ??$_Allocate@VioHashString@@@std@@YAPAVioHashString@@IPAV1@@Z ; std::_Allocate<ioHashString>

; 752  : 
; 753  : 			_TRY_BEGIN
; 754  : 			_Umove(this->_Myfirst, this->_Mylast, _Ptr);

  00038	8b 0e		 mov	 ecx, DWORD PTR [esi]
  0003a	83 65 fc 00	 and	 DWORD PTR __$EHRec$[ebp+12], 0
  0003e	8d 56 0c	 lea	 edx, DWORD PTR [esi+12]
  00041	52		 push	 edx
  00042	89 45 ec	 mov	 DWORD PTR __Ptr$551526[ebp], eax
  00045	ff 75 ec	 push	 DWORD PTR __Ptr$551526[ebp]
  00048	8b 46 04	 mov	 eax, DWORD PTR [esi+4]
  0004b	50		 push	 eax
  0004c	51		 push	 ecx
  0004d	e8 00 00 00 00	 call	 ??$_Uninitialized_move@PAVioHashString@@PAV1@V?$allocator@VioHashString@@@std@@@std@@YAPAVioHashString@@PAV1@00AAV?$allocator@VioHashString@@@0@@Z ; std::_Uninitialized_move<ioHashString *,ioHashString *,std::allocator<ioHashString> >

; 758  : 			_CATCH_END
; 759  : 
; 760  : 			size_type _Size = size();

  00052	8b 4e 04	 mov	 ecx, DWORD PTR [esi+4]
  00055	8b 06		 mov	 eax, DWORD PTR [esi]
  00057	83 4d fc ff	 or	 DWORD PTR __$EHRec$[ebp+12], -1
  0005b	8b f9		 mov	 edi, ecx
  0005d	83 c4 18	 add	 esp, 24			; 00000018H
  00060	2b f8		 sub	 edi, eax
  00062	89 4d e8	 mov	 DWORD PTR tv300[ebp], ecx
  00065	85 c0		 test	 eax, eax
  00067	74 24		 je	 SHORT $LN51@reserve

; 761  : 			if (this->_Myfirst != 0)
; 762  : 				{	// destroy and deallocate old array
; 763  : 				_Destroy(this->_Myfirst, this->_Mylast);

  00069	89 45 08	 mov	 DWORD PTR $T559639[ebp], eax
  0006c	3b c1		 cmp	 eax, ecx
  0006e	74 15		 je	 SHORT $LN37@reserve
$LN39@reserve:
  00070	8b 4d 08	 mov	 ecx, DWORD PTR $T559639[ebp]
  00073	ff 15 00 00 00
	00		 call	 DWORD PTR __imp_??1ioHashString@@QAE@XZ
  00079	83 45 08 10	 add	 DWORD PTR $T559639[ebp], 16 ; 00000010H
  0007d	8b 45 08	 mov	 eax, DWORD PTR $T559639[ebp]
  00080	3b 45 e8	 cmp	 eax, DWORD PTR tv300[ebp]
  00083	75 eb		 jne	 SHORT $LN39@reserve
$LN37@reserve:

; 764  : 				this->_Alval.deallocate(this->_Myfirst,
; 765  : 					this->_Myend - this->_Myfirst);

  00085	ff 36		 push	 DWORD PTR [esi]
  00087	e8 00 00 00 00	 call	 ??3@YAXPAX@Z		; operator delete
  0008c	59		 pop	 ecx
$LN51@reserve:

; 766  : 				}
; 767  : 
; 768  : 			this->_Orphan_all();

  0008d	8b ce		 mov	 ecx, esi
  0008f	ff 15 00 00 00
	00		 call	 DWORD PTR __imp_?_Orphan_all@_Container_base0@std@@QAEXXZ

; 769  : 			this->_Myend = _Ptr + _Count;

  00095	8b 45 ec	 mov	 eax, DWORD PTR __Ptr$551526[ebp]
  00098	c1 e3 04	 shl	 ebx, 4
  0009b	03 d8		 add	 ebx, eax

; 770  : 			this->_Mylast = _Ptr + _Size;

  0009d	83 e7 f0	 and	 edi, -16		; fffffff0H
  000a0	03 f8		 add	 edi, eax
  000a2	89 5e 08	 mov	 DWORD PTR [esi+8], ebx
  000a5	89 7e 04	 mov	 DWORD PTR [esi+4], edi

; 771  : 			this->_Myfirst = _Ptr;

  000a8	89 06		 mov	 DWORD PTR [esi], eax
$LN3@reserve:

; 772  : 			}
; 773  : 		}

  000aa	e8 00 00 00 00	 call	 __EH_epilog3
  000af	c2 04 00	 ret	 4
__catch$?reserve@?$vector@VioHashString@@V?$allocator@VioHashString@@@std@@@std@@QAEXI@Z$0:

; 755  : 			_CATCH_ALL
; 756  : 			this->_Alval.deallocate(_Ptr, _Count);

  000b2	ff 75 ec	 push	 DWORD PTR __Ptr$551526[ebp]
  000b5	e8 00 00 00 00	 call	 ??3@YAXPAX@Z		; operator delete
  000ba	59		 pop	 ecx

; 757  : 			_RERAISE;

  000bb	6a 00		 push	 0
  000bd	6a 00		 push	 0
  000bf	e8 00 00 00 00	 call	 __CxxThrowException@8
$LN60@reserve:
$LN58@reserve:
  000c4	cc		 int	 3
_TEXT	ENDS
;	COMDAT text$x
text$x	SEGMENT
__ehhandler$?reserve@?$vector@VioHashString@@V?$allocator@VioHashString@@@std@@@std@@QAEXI@Z:
  00000	8b 54 24 08	 mov	 edx, DWORD PTR [esp+8]
  00004	8d 42 0c	 lea	 eax, DWORD PTR [edx+12]
  00007	8b 4a e4	 mov	 ecx, DWORD PTR [edx-28]
  0000a	33 c8		 xor	 ecx, eax
  0000c	e8 00 00 00 00	 call	 @__security_check_cookie@4
  00011	b8 00 00 00 00	 mov	 eax, OFFSET __ehfuncinfo$?reserve@?$vector@VioHashString@@V?$allocator@VioHashString@@@std@@@std@@QAEXI@Z
  00016	e9 00 00 00 00	 jmp	 ___CxxFrameHandler3
text$x	ENDS
?reserve@?$vector@VioHashString@@V?$allocator@VioHashString@@@std@@@std@@QAEXI@Z ENDP ; std::vector<ioHashString,std::allocator<ioHashString> >::reserve
PUBLIC	?_Reserve@?$vector@VioHashString@@V?$allocator@VioHashString@@@std@@@std@@IAEXI@Z ; std::vector<ioHashString,std::allocator<ioHashString> >::_Reserve
; Function compile flags: /Ogsp
;	COMDAT ?_Reserve@?$vector@VioHashString@@V?$allocator@VioHashString@@@std@@@std@@IAEXI@Z
_TEXT	SEGMENT
__Count$ = 8						; size = 4
?_Reserve@?$vector@VioHashString@@V?$allocator@VioHashString@@@std@@@std@@IAEXI@Z PROC ; std::vector<ioHashString,std::allocator<ioHashString> >::_Reserve, COMDAT
; _this$ = ecx

; 1290 : 		{	// ensure room for _Count new elements, grow exponentially

  00000	55		 push	 ebp
  00001	8b ec		 mov	 ebp, esp
  00003	56		 push	 esi
  00004	8b f1		 mov	 esi, ecx

; 1291 : 		size_type _Size = size();

  00006	8b 0e		 mov	 ecx, DWORD PTR [esi]
  00008	8b 46 04	 mov	 eax, DWORD PTR [esi+4]
  0000b	2b c1		 sub	 eax, ecx

; 1292 : 		if (max_size() - _Count < _Size)

  0000d	ba ff ff ff 0f	 mov	 edx, 268435455		; 0fffffffH
  00012	2b 55 08	 sub	 edx, DWORD PTR __Count$[ebp]
  00015	c1 f8 04	 sar	 eax, 4
  00018	3b d0		 cmp	 edx, eax
  0001a	73 0b		 jae	 SHORT $LN4@Reserve

; 1293 : 			_Xlen();

  0001c	68 00 00 00 00	 push	 OFFSET ??_C@_0BD@OLBABOEK@vector?$DMT?$DO?5too?5long?$AA@
  00021	ff 15 00 00 00
	00		 call	 DWORD PTR __imp_?_Xlength_error@std@@YAXPBD@Z
$LN21@Reserve:
$LN4@Reserve:

; 1294 : 		else if ((_Size += _Count) <= capacity())

  00027	8b 56 08	 mov	 edx, DWORD PTR [esi+8]
  0002a	03 45 08	 add	 eax, DWORD PTR __Count$[ebp]
  0002d	2b d1		 sub	 edx, ecx
  0002f	c1 fa 04	 sar	 edx, 4
  00032	3b c2		 cmp	 eax, edx
  00034	76 10		 jbe	 SHORT $LN1@Reserve

; 1295 : 			;
; 1296 : 		else
; 1297 : 			reserve(_Grow_to(_Size));

  00036	50		 push	 eax
  00037	8b ce		 mov	 ecx, esi
  00039	e8 00 00 00 00	 call	 ?_Grow_to@?$vector@VioHashString@@V?$allocator@VioHashString@@@std@@@std@@IBEII@Z ; std::vector<ioHashString,std::allocator<ioHashString> >::_Grow_to
  0003e	50		 push	 eax
  0003f	8b ce		 mov	 ecx, esi
  00041	e8 00 00 00 00	 call	 ?reserve@?$vector@VioHashString@@V?$allocator@VioHashString@@@std@@@std@@QAEXI@Z ; std::vector<ioHashString,std::allocator<ioHashString> >::reserve
$LN1@Reserve:
  00046	5e		 pop	 esi

; 1298 : 		}

  00047	5d		 pop	 ebp
  00048	c2 04 00	 ret	 4
$LN20@Reserve:
?_Reserve@?$vector@VioHashString@@V?$allocator@VioHashString@@@std@@@std@@IAEXI@Z ENDP ; std::vector<ioHashString,std::allocator<ioHashString> >::_Reserve
_TEXT	ENDS
PUBLIC	??0?$vector@UForceInfo@@V?$allocator@UForceInfo@@@std@@@std@@QAE@ABV01@@Z ; std::vector<ForceInfo,std::allocator<ForceInfo> >::vector<ForceInfo,std::allocator<ForceInfo> >
;	COMDAT xdata$x
; File c:\program files (x86)\microsoft visual studio 10.0\vc\include\xutility
xdata$x	SEGMENT
__catchsym$??0?$vector@UForceInfo@@V?$allocator@UForceInfo@@@std@@@std@@QAE@ABV01@@Z$2 DD 040H
	DD	00H
	DD	00H
	DD	FLAT:__catch$??0?$vector@UForceInfo@@V?$allocator@UForceInfo@@@std@@@std@@QAE@ABV01@@Z$0
__unwindtable$??0?$vector@UForceInfo@@V?$allocator@UForceInfo@@@std@@@std@@QAE@ABV01@@Z DD 0ffffffffH
	DD	00H
	DD	0ffffffffH
	DD	00H
__tryblocktable$??0?$vector@UForceInfo@@V?$allocator@UForceInfo@@@std@@@std@@QAE@ABV01@@Z DD 00H
	DD	00H
	DD	01H
	DD	01H
	DD	FLAT:__catchsym$??0?$vector@UForceInfo@@V?$allocator@UForceInfo@@@std@@@std@@QAE@ABV01@@Z$2
__ehfuncinfo$??0?$vector@UForceInfo@@V?$allocator@UForceInfo@@@std@@@std@@QAE@ABV01@@Z DD 019930522H
	DD	02H
	DD	FLAT:__unwindtable$??0?$vector@UForceInfo@@V?$allocator@UForceInfo@@@std@@@std@@QAE@ABV01@@Z
	DD	01H
	DD	FLAT:__tryblocktable$??0?$vector@UForceInfo@@V?$allocator@UForceInfo@@@std@@@std@@QAE@ABV01@@Z
	DD	2 DUP(00H)
	DD	00H
	DD	01H
; Function compile flags: /Ogsp
; File c:\program files (x86)\microsoft visual studio 10.0\vc\include\vector
xdata$x	ENDS
;	COMDAT ??0?$vector@UForceInfo@@V?$allocator@UForceInfo@@@std@@@std@@QAE@ABV01@@Z
_TEXT	SEGMENT
_this$ = -20						; size = 4
__$EHRec$ = -16						; size = 16
__Cat$559812 = 8					; size = 1
__Right$ = 8						; size = 4
??0?$vector@UForceInfo@@V?$allocator@UForceInfo@@@std@@@std@@QAE@ABV01@@Z PROC ; std::vector<ForceInfo,std::allocator<ForceInfo> >::vector<ForceInfo,std::allocator<ForceInfo> >, COMDAT
; _this$ = ecx

; 535  : 		{	// construct by copying _Right

  00000	6a 08		 push	 8
  00002	b8 00 00 00 00	 mov	 eax, __ehhandler$??0?$vector@UForceInfo@@V?$allocator@UForceInfo@@@std@@@std@@QAE@ABV01@@Z
  00007	e8 00 00 00 00	 call	 __EH_prolog3_catch
  0000c	8b f1		 mov	 esi, ecx
  0000e	89 75 ec	 mov	 DWORD PTR _this$[ebp], esi

; 536  : 		if (_Buy(_Right.size()))

  00011	8b 7d 08	 mov	 edi, DWORD PTR __Right$[ebp]
  00014	33 db		 xor	 ebx, ebx
  00016	89 1e		 mov	 DWORD PTR [esi], ebx
  00018	89 5e 04	 mov	 DWORD PTR [esi+4], ebx
  0001b	89 5e 08	 mov	 DWORD PTR [esi+8], ebx
  0001e	8b 47 04	 mov	 eax, DWORD PTR [edi+4]
  00021	2b 07		 sub	 eax, DWORD PTR [edi]
  00023	6a 0c		 push	 12			; 0000000cH
  00025	59		 pop	 ecx
  00026	99		 cdq
  00027	f7 f9		 idiv	 ecx
  00029	8b ce		 mov	 ecx, esi
  0002b	50		 push	 eax
  0002c	e8 00 00 00 00	 call	 ?_Buy@?$vector@UForceInfo@@V?$allocator@UForceInfo@@@std@@@std@@IAE_NI@Z ; std::vector<ForceInfo,std::allocator<ForceInfo> >::_Buy
  00031	84 c0		 test	 al, al
  00033	74 1f		 je	 SHORT $LN7@vector

; 537  : 			_TRY_BEGIN
; 538  : 			this->_Mylast = _Ucopy(_Right.begin(), _Right.end(),
; 539  : 				this->_Myfirst);

  00035	ff 75 08	 push	 DWORD PTR __Cat$559812[ebp]
  00038	8b 0e		 mov	 ecx, DWORD PTR [esi]
  0003a	8b 47 04	 mov	 eax, DWORD PTR [edi+4]
  0003d	8b 3f		 mov	 edi, DWORD PTR [edi]
  0003f	8d 56 0c	 lea	 edx, DWORD PTR [esi+12]
  00042	52		 push	 edx
  00043	51		 push	 ecx
  00044	50		 push	 eax
  00045	57		 push	 edi
  00046	89 5d fc	 mov	 DWORD PTR __$EHRec$[ebp+12], ebx
  00049	e8 00 00 00 00	 call	 ??$_Uninit_copy@V?$_Vector_const_iterator@V?$_Vector_val@UForceInfo@@V?$allocator@UForceInfo@@@std@@@std@@@std@@PAUForceInfo@@V?$allocator@UForceInfo@@@2@@std@@YAPAUForceInfo@@V?$_Vector_const_iterator@V?$_Vector_val@UForceInfo@@V?$allocator@UForceInfo@@@std@@@std@@@0@0PAU1@AAV?$allocator@UForceInfo@@@0@U_Nonscalar_ptr_iterator_tag@0@@Z ; std::_Uninit_copy<std::_Vector_const_iterator<std::_Vector_val<ForceInfo,std::allocator<ForceInfo> > >,ForceInfo *,std::allocator<ForceInfo> >
  0004e	83 c4 14	 add	 esp, 20			; 00000014H
  00051	89 46 04	 mov	 DWORD PTR [esi+4], eax
$LN7@vector:

; 543  : 			_CATCH_END
; 544  : 		}

  00054	8b c6		 mov	 eax, esi
  00056	e8 00 00 00 00	 call	 __EH_epilog3
  0005b	c2 04 00	 ret	 4
__catch$??0?$vector@UForceInfo@@V?$allocator@UForceInfo@@@std@@@std@@QAE@ABV01@@Z$0:

; 540  : 			_CATCH_ALL
; 541  : 			_Tidy();

  0005e	8b 4d ec	 mov	 ecx, DWORD PTR _this$[ebp]
  00061	e8 00 00 00 00	 call	 ?_Tidy@?$vector@UForceInfo@@V?$allocator@UForceInfo@@@std@@@std@@IAEXXZ ; std::vector<ForceInfo,std::allocator<ForceInfo> >::_Tidy

; 542  : 			_RERAISE;

  00066	33 db		 xor	 ebx, ebx
  00068	53		 push	 ebx
  00069	53		 push	 ebx
  0006a	e8 00 00 00 00	 call	 __CxxThrowException@8
$LN38@vector:
$LN37@vector:
  0006f	cc		 int	 3
_TEXT	ENDS
;	COMDAT text$x
text$x	SEGMENT
__ehhandler$??0?$vector@UForceInfo@@V?$allocator@UForceInfo@@@std@@@std@@QAE@ABV01@@Z:
  00000	8b 54 24 08	 mov	 edx, DWORD PTR [esp+8]
  00004	8d 42 0c	 lea	 eax, DWORD PTR [edx+12]
  00007	8b 4a e8	 mov	 ecx, DWORD PTR [edx-24]
  0000a	33 c8		 xor	 ecx, eax
  0000c	e8 00 00 00 00	 call	 @__security_check_cookie@4
  00011	b8 00 00 00 00	 mov	 eax, OFFSET __ehfuncinfo$??0?$vector@UForceInfo@@V?$allocator@UForceInfo@@@std@@@std@@QAE@ABV01@@Z
  00016	e9 00 00 00 00	 jmp	 ___CxxFrameHandler3
text$x	ENDS
??0?$vector@UForceInfo@@V?$allocator@UForceInfo@@@std@@@std@@QAE@ABV01@@Z ENDP ; std::vector<ForceInfo,std::allocator<ForceInfo> >::vector<ForceInfo,std::allocator<ForceInfo> >
PUBLIC	??1?$vector@UForceInfo@@V?$allocator@UForceInfo@@@std@@@std@@QAE@XZ ; std::vector<ForceInfo,std::allocator<ForceInfo> >::~vector<ForceInfo,std::allocator<ForceInfo> >
; Function compile flags: /Ogsp
;	COMDAT ??1?$vector@UForceInfo@@V?$allocator@UForceInfo@@@std@@@std@@QAE@XZ
_TEXT	SEGMENT
??1?$vector@UForceInfo@@V?$allocator@UForceInfo@@@std@@@std@@QAE@XZ PROC ; std::vector<ForceInfo,std::allocator<ForceInfo> >::~vector<ForceInfo,std::allocator<ForceInfo> >, COMDAT
; _this$ = ecx

; 705  : 		_Tidy();

  00000	e9 00 00 00 00	 jmp	 ?_Tidy@?$vector@UForceInfo@@V?$allocator@UForceInfo@@@std@@@std@@IAEXXZ ; std::vector<ForceInfo,std::allocator<ForceInfo> >::_Tidy
??1?$vector@UForceInfo@@V?$allocator@UForceInfo@@@std@@@std@@QAE@XZ ENDP ; std::vector<ForceInfo,std::allocator<ForceInfo> >::~vector<ForceInfo,std::allocator<ForceInfo> >
_TEXT	ENDS
PUBLIC	?erase@?$vector@VioHashString@@V?$allocator@VioHashString@@@std@@@std@@QAE?AV?$_Vector_iterator@V?$_Vector_val@VioHashString@@V?$allocator@VioHashString@@@std@@@std@@@2@V?$_Vector_const_iterator@V?$_Vector_val@VioHashString@@V?$allocator@VioHashString@@@std@@@std@@@2@0@Z ; std::vector<ioHashString,std::allocator<ioHashString> >::erase
; Function compile flags: /Ogsp
;	COMDAT ?erase@?$vector@VioHashString@@V?$allocator@VioHashString@@@std@@@std@@QAE?AV?$_Vector_iterator@V?$_Vector_val@VioHashString@@V?$allocator@VioHashString@@@std@@@std@@@2@V?$_Vector_const_iterator@V?$_Vector_val@VioHashString@@V?$allocator@VioHashString@@@std@@@std@@@2@0@Z
_TEXT	SEGMENT
$T559966 = -4						; size = 4
___$ReturnUdt$ = 8					; size = 4
__First_arg$ = 12					; size = 4
__Cat$559910 = 16					; size = 1
__Last_arg$ = 16					; size = 4
?erase@?$vector@VioHashString@@V?$allocator@VioHashString@@@std@@@std@@QAE?AV?$_Vector_iterator@V?$_Vector_val@VioHashString@@V?$allocator@VioHashString@@@std@@@std@@@2@V?$_Vector_const_iterator@V?$_Vector_val@VioHashString@@V?$allocator@VioHashString@@@std@@@std@@@2@0@Z PROC ; std::vector<ioHashString,std::allocator<ioHashString> >::erase, COMDAT
; _this$ = ecx

; 1190 : 		{	// erase [_First, _Last)

  00000	55		 push	 ebp
  00001	8b ec		 mov	 ebp, esp
  00003	51		 push	 ecx

; 1191 : 		iterator _First = _Make_iter(_First_arg);

  00004	8b 45 08	 mov	 eax, DWORD PTR ___$ReturnUdt$[ebp]
  00007	56		 push	 esi
  00008	8b f1		 mov	 esi, ecx
  0000a	8b 4d 0c	 mov	 ecx, DWORD PTR __First_arg$[ebp]
  0000d	89 08		 mov	 DWORD PTR [eax], ecx

; 1192 : 		iterator _Last = _Make_iter(_Last_arg);
; 1193 : 
; 1194 : 		if (_First != _Last)

  0000f	3b 4d 10	 cmp	 ecx, DWORD PTR __Last_arg$[ebp]
  00012	74 38		 je	 SHORT $LN1@erase

; 1195 : 			{	// worth doing, copy down over hole
; 1196 :  #if _ITERATOR_DEBUG_LEVEL == 2
; 1197 : 			if (_Last < _First || _VICONT(_First) != this
; 1198 : 				|| _VIPTR(_First) < this->_Myfirst
; 1199 : 				|| this->_Mylast < _VIPTR(_Last))
; 1200 : 				_DEBUG_ERROR("vector erase iterator outside range");
; 1201 : 			pointer _Ptr = _Move(_VIPTR(_Last), this->_Mylast,
; 1202 : 				_VIPTR(_First));
; 1203 : 			_Orphan_range(_VIPTR(_First), this->_Mylast);
; 1204 : 
; 1205 :  #else /* _ITERATOR_DEBUG_LEVEL == 2 */
; 1206 : 			pointer _Ptr = _Move(_VIPTR(_Last), this->_Mylast,
; 1207 : 				_VIPTR(_First));

  00014	8b 46 04	 mov	 eax, DWORD PTR [esi+4]
  00017	53		 push	 ebx
  00018	57		 push	 edi
  00019	ff 75 10	 push	 DWORD PTR __Cat$559910[ebp]
  0001c	51		 push	 ecx
  0001d	50		 push	 eax
  0001e	ff 75 10	 push	 DWORD PTR __Last_arg$[ebp]
  00021	e8 00 00 00 00	 call	 ??$_Move@PAVioHashString@@PAV1@@std@@YAPAVioHashString@@PAV1@00U_Nonscalar_ptr_iterator_tag@0@@Z ; std::_Move<ioHashString *,ioHashString *>

; 1208 :  #endif /* _ITERATOR_DEBUG_LEVEL == 2 */
; 1209 : 
; 1210 : 			_Destroy(_Ptr, this->_Mylast);

  00026	8b 7e 04	 mov	 edi, DWORD PTR [esi+4]
  00029	8b d8		 mov	 ebx, eax
  0002b	83 c4 10	 add	 esp, 16			; 00000010H
  0002e	89 5d fc	 mov	 DWORD PTR $T559966[ebp], ebx
  00031	3b df		 cmp	 ebx, edi
  00033	74 12		 je	 SHORT $LN36@erase
$LL52@erase:
  00035	8b 4d fc	 mov	 ecx, DWORD PTR $T559966[ebp]
  00038	ff 15 00 00 00
	00		 call	 DWORD PTR __imp_??1ioHashString@@QAE@XZ
  0003e	83 45 fc 10	 add	 DWORD PTR $T559966[ebp], 16 ; 00000010H
  00042	39 7d fc	 cmp	 DWORD PTR $T559966[ebp], edi
  00045	75 ee		 jne	 SHORT $LL52@erase
$LN36@erase:

; 1211 : 			this->_Mylast = _Ptr;

  00047	5f		 pop	 edi
  00048	89 5e 04	 mov	 DWORD PTR [esi+4], ebx
  0004b	5b		 pop	 ebx
$LN1@erase:

; 1212 : 			}
; 1213 : 		return (_First);

  0004c	8b 45 08	 mov	 eax, DWORD PTR ___$ReturnUdt$[ebp]
  0004f	5e		 pop	 esi

; 1214 : 		}

  00050	c9		 leave
  00051	c2 0c 00	 ret	 12			; 0000000cH
?erase@?$vector@VioHashString@@V?$allocator@VioHashString@@@std@@@std@@QAE?AV?$_Vector_iterator@V?$_Vector_val@VioHashString@@V?$allocator@VioHashString@@@std@@@std@@@2@V?$_Vector_const_iterator@V?$_Vector_val@VioHashString@@V?$allocator@VioHashString@@@std@@@std@@@2@0@Z ENDP ; std::vector<ioHashString,std::allocator<ioHashString> >::erase
_TEXT	ENDS
PUBLIC	?_Tidy@?$vector@VioHashString@@V?$allocator@VioHashString@@@std@@@std@@IAEXXZ ; std::vector<ioHashString,std::allocator<ioHashString> >::_Tidy
; Function compile flags: /Ogsp
;	COMDAT ?_Tidy@?$vector@VioHashString@@V?$allocator@VioHashString@@@std@@@std@@IAEXXZ
_TEXT	SEGMENT
?_Tidy@?$vector@VioHashString@@V?$allocator@VioHashString@@@std@@@std@@IAEXXZ PROC ; std::vector<ioHashString,std::allocator<ioHashString> >::_Tidy, COMDAT
; _this$ = ecx

; 1301 : 		{	// free all storage

  00000	56		 push	 esi
  00001	8b f1		 mov	 esi, ecx

; 1302 : 		if (this->_Myfirst != 0)

  00003	83 3e 00	 cmp	 DWORD PTR [esi], 0
  00006	74 28		 je	 SHORT $LN24@Tidy@2

; 1303 : 			{	// something to free, destroy and deallocate it
; 1304 : 			this->_Orphan_all();

  00008	53		 push	 ebx
  00009	57		 push	 edi
  0000a	ff 15 00 00 00
	00		 call	 DWORD PTR __imp_?_Orphan_all@_Container_base0@std@@QAEXXZ

; 1305 : 			_Destroy(this->_Myfirst, this->_Mylast);

  00010	8b 5e 04	 mov	 ebx, DWORD PTR [esi+4]
  00013	8b 3e		 mov	 edi, DWORD PTR [esi]
  00015	eb 0b		 jmp	 SHORT $LN28@Tidy@2
$LL12@Tidy@2:
  00017	8b cf		 mov	 ecx, edi
  00019	ff 15 00 00 00
	00		 call	 DWORD PTR __imp_??1ioHashString@@QAE@XZ
  0001f	83 c7 10	 add	 edi, 16			; 00000010H
$LN28@Tidy@2:
  00022	3b fb		 cmp	 edi, ebx
  00024	75 f1		 jne	 SHORT $LL12@Tidy@2

; 1306 : 			this->_Alval.deallocate(this->_Myfirst,
; 1307 : 				this->_Myend - this->_Myfirst);

  00026	ff 36		 push	 DWORD PTR [esi]
  00028	e8 00 00 00 00	 call	 ??3@YAXPAX@Z		; operator delete
  0002d	59		 pop	 ecx
  0002e	5f		 pop	 edi
  0002f	5b		 pop	 ebx
$LN24@Tidy@2:

; 1308 : 			}
; 1309 : 		this->_Myfirst = 0;

  00030	33 c0		 xor	 eax, eax
  00032	89 06		 mov	 DWORD PTR [esi], eax

; 1310 : 		this->_Mylast = 0;

  00034	89 46 04	 mov	 DWORD PTR [esi+4], eax

; 1311 : 		this->_Myend = 0;

  00037	89 46 08	 mov	 DWORD PTR [esi+8], eax
  0003a	5e		 pop	 esi

; 1312 : 		}

  0003b	c3		 ret	 0
?_Tidy@?$vector@VioHashString@@V?$allocator@VioHashString@@@std@@@std@@IAEXXZ ENDP ; std::vector<ioHashString,std::allocator<ioHashString> >::_Tidy
_TEXT	ENDS
PUBLIC	?_Tidy@?$vector@UWeaponInfo@@V?$allocator@UWeaponInfo@@@std@@@std@@IAEXXZ ; std::vector<WeaponInfo,std::allocator<WeaponInfo> >::_Tidy
; Function compile flags: /Ogsp
;	COMDAT ?_Tidy@?$vector@UWeaponInfo@@V?$allocator@UWeaponInfo@@@std@@@std@@IAEXXZ
_TEXT	SEGMENT
?_Tidy@?$vector@UWeaponInfo@@V?$allocator@UWeaponInfo@@@std@@@std@@IAEXXZ PROC ; std::vector<WeaponInfo,std::allocator<WeaponInfo> >::_Tidy, COMDAT
; _this$ = ecx

; 1301 : 		{	// free all storage

  00000	56		 push	 esi
  00001	8b f1		 mov	 esi, ecx

; 1302 : 		if (this->_Myfirst != 0)

  00003	83 3e 00	 cmp	 DWORD PTR [esi], 0
  00006	74 1e		 je	 SHORT $LN6@Tidy@3

; 1303 : 			{	// something to free, destroy and deallocate it
; 1304 : 			this->_Orphan_all();

  00008	ff 15 00 00 00
	00		 call	 DWORD PTR __imp_?_Orphan_all@_Container_base0@std@@QAEXXZ

; 1305 : 			_Destroy(this->_Myfirst, this->_Mylast);

  0000e	8d 46 0c	 lea	 eax, DWORD PTR [esi+12]
  00011	50		 push	 eax
  00012	ff 76 04	 push	 DWORD PTR [esi+4]
  00015	ff 36		 push	 DWORD PTR [esi]
  00017	e8 00 00 00 00	 call	 ??$_Destroy_range@V?$allocator@UWeaponInfo@@@std@@@std@@YAXPAUWeaponInfo@@0AAV?$allocator@UWeaponInfo@@@0@@Z ; std::_Destroy_range<std::allocator<WeaponInfo> >

; 1306 : 			this->_Alval.deallocate(this->_Myfirst,
; 1307 : 				this->_Myend - this->_Myfirst);

  0001c	ff 36		 push	 DWORD PTR [esi]
  0001e	e8 00 00 00 00	 call	 ??3@YAXPAX@Z		; operator delete
  00023	83 c4 10	 add	 esp, 16			; 00000010H
$LN6@Tidy@3:

; 1308 : 			}
; 1309 : 		this->_Myfirst = 0;

  00026	83 26 00	 and	 DWORD PTR [esi], 0

; 1310 : 		this->_Mylast = 0;

  00029	83 66 04 00	 and	 DWORD PTR [esi+4], 0

; 1311 : 		this->_Myend = 0;

  0002d	83 66 08 00	 and	 DWORD PTR [esi+8], 0
  00031	5e		 pop	 esi

; 1312 : 		}

  00032	c3		 ret	 0
?_Tidy@?$vector@UWeaponInfo@@V?$allocator@UWeaponInfo@@@std@@@std@@IAEXXZ ENDP ; std::vector<WeaponInfo,std::allocator<WeaponInfo> >::_Tidy
_TEXT	ENDS
PUBLIC	?push_back@?$vector@VioHashString@@V?$allocator@VioHashString@@@std@@@std@@QAEXABVioHashString@@@Z ; std::vector<ioHashString,std::allocator<ioHashString> >::push_back
; Function compile flags: /Ogsp
;	COMDAT ?push_back@?$vector@VioHashString@@V?$allocator@VioHashString@@@std@@@std@@QAEXABVioHashString@@@Z
_TEXT	SEGMENT
__Val$ = 8						; size = 4
?push_back@?$vector@VioHashString@@V?$allocator@VioHashString@@@std@@@std@@QAEXABVioHashString@@@Z PROC ; std::vector<ioHashString,std::allocator<ioHashString> >::push_back, COMDAT
; _this$ = ecx

; 976  : 		{	// insert element at end

  00000	55		 push	 ebp
  00001	8b ec		 mov	 ebp, esp
  00003	56		 push	 esi
  00004	8b f1		 mov	 esi, ecx

; 977  : 		if (_Inside(_STD addressof(_Val)))

  00006	8b 46 04	 mov	 eax, DWORD PTR [esi+4]
  00009	57		 push	 edi
  0000a	8b 7d 08	 mov	 edi, DWORD PTR __Val$[ebp]
  0000d	3b f8		 cmp	 edi, eax
  0000f	73 29		 jae	 SHORT $LN4@push_back
  00011	8b 0e		 mov	 ecx, DWORD PTR [esi]
  00013	3b cf		 cmp	 ecx, edi
  00015	77 23		 ja	 SHORT $LN4@push_back

; 978  : 			{	// push back an element
; 979  : 			size_type _Idx = _STD addressof(_Val) - this->_Myfirst;

  00017	2b f9		 sub	 edi, ecx

; 980  : 			if (this->_Mylast == this->_Myend)

  00019	3b 46 08	 cmp	 eax, DWORD PTR [esi+8]
  0001c	75 09		 jne	 SHORT $LN3@push_back

; 981  : 				_Reserve(1);

  0001e	6a 01		 push	 1
  00020	8b ce		 mov	 ecx, esi
  00022	e8 00 00 00 00	 call	 ?_Reserve@?$vector@VioHashString@@V?$allocator@VioHashString@@@std@@@std@@IAEXI@Z ; std::vector<ioHashString,std::allocator<ioHashString> >::_Reserve
$LN3@push_back:

; 982  : 			_Orphan_range(this->_Mylast, this->_Mylast);
; 983  : 			_Cons_val(this->_Alval,
; 984  : 				this->_Mylast,
; 985  : 				this->_Myfirst[_Idx]);

  00027	83 e7 f0	 and	 edi, -16		; fffffff0H
  0002a	03 3e		 add	 edi, DWORD PTR [esi]
  0002c	8d 4e 0c	 lea	 ecx, DWORD PTR [esi+12]
  0002f	57		 push	 edi
  00030	ff 76 04	 push	 DWORD PTR [esi+4]
  00033	e8 00 00 00 00	 call	 ??$construct@AAVioHashString@@@?$allocator@VioHashString@@@std@@QAEXPAVioHashString@@AAV2@@Z ; std::allocator<ioHashString>::construct<ioHashString &>

; 986  : 			++this->_Mylast;
; 987  : 			}
; 988  : 		else

  00038	eb 19		 jmp	 SHORT $LN30@push_back
$LN4@push_back:

; 989  : 			{	// push back a non-element
; 990  : 			if (this->_Mylast == this->_Myend)

  0003a	3b 46 08	 cmp	 eax, DWORD PTR [esi+8]
  0003d	75 09		 jne	 SHORT $LN1@push_back

; 991  : 				_Reserve(1);

  0003f	6a 01		 push	 1
  00041	8b ce		 mov	 ecx, esi
  00043	e8 00 00 00 00	 call	 ?_Reserve@?$vector@VioHashString@@V?$allocator@VioHashString@@@std@@@std@@IAEXI@Z ; std::vector<ioHashString,std::allocator<ioHashString> >::_Reserve
$LN1@push_back:

; 992  : 			_Orphan_range(this->_Mylast, this->_Mylast);
; 993  : 			_Cons_val(this->_Alval,
; 994  : 				this->_Mylast,
; 995  : 				_Val);

  00048	57		 push	 edi
  00049	ff 76 04	 push	 DWORD PTR [esi+4]
  0004c	e8 00 00 00 00	 call	 ??$_Construct@VioHashString@@ABV1@@std@@YAXPAVioHashString@@ABV1@@Z ; std::_Construct<ioHashString,ioHashString const &>
  00051	59		 pop	 ecx
  00052	59		 pop	 ecx
$LN30@push_back:

; 996  : 			++this->_Mylast;

  00053	83 46 04 10	 add	 DWORD PTR [esi+4], 16	; 00000010H
  00057	5f		 pop	 edi
  00058	5e		 pop	 esi

; 997  : 			}
; 998  : 		}

  00059	5d		 pop	 ebp
  0005a	c2 04 00	 ret	 4
?push_back@?$vector@VioHashString@@V?$allocator@VioHashString@@@std@@@std@@QAEXABVioHashString@@@Z ENDP ; std::vector<ioHashString,std::allocator<ioHashString> >::push_back
_TEXT	ENDS
PUBLIC	??0?$vector@UWeaponInfo@@V?$allocator@UWeaponInfo@@@std@@@std@@QAE@ABV01@@Z ; std::vector<WeaponInfo,std::allocator<WeaponInfo> >::vector<WeaponInfo,std::allocator<WeaponInfo> >
;	COMDAT xdata$x
; File c:\program files (x86)\microsoft visual studio 10.0\vc\include\xutility
xdata$x	SEGMENT
__catchsym$??0?$vector@UWeaponInfo@@V?$allocator@UWeaponInfo@@@std@@@std@@QAE@ABV01@@Z$2 DD 040H
	DD	00H
	DD	00H
	DD	FLAT:__catch$??0?$vector@UWeaponInfo@@V?$allocator@UWeaponInfo@@@std@@@std@@QAE@ABV01@@Z$0
__unwindtable$??0?$vector@UWeaponInfo@@V?$allocator@UWeaponInfo@@@std@@@std@@QAE@ABV01@@Z DD 0ffffffffH
	DD	00H
	DD	0ffffffffH
	DD	00H
__tryblocktable$??0?$vector@UWeaponInfo@@V?$allocator@UWeaponInfo@@@std@@@std@@QAE@ABV01@@Z DD 00H
	DD	00H
	DD	01H
	DD	01H
	DD	FLAT:__catchsym$??0?$vector@UWeaponInfo@@V?$allocator@UWeaponInfo@@@std@@@std@@QAE@ABV01@@Z$2
__ehfuncinfo$??0?$vector@UWeaponInfo@@V?$allocator@UWeaponInfo@@@std@@@std@@QAE@ABV01@@Z DD 019930522H
	DD	02H
	DD	FLAT:__unwindtable$??0?$vector@UWeaponInfo@@V?$allocator@UWeaponInfo@@@std@@@std@@QAE@ABV01@@Z
	DD	01H
	DD	FLAT:__tryblocktable$??0?$vector@UWeaponInfo@@V?$allocator@UWeaponInfo@@@std@@@std@@QAE@ABV01@@Z
	DD	2 DUP(00H)
	DD	00H
	DD	01H
; Function compile flags: /Ogsp
; File c:\program files (x86)\microsoft visual studio 10.0\vc\include\vector
xdata$x	ENDS
;	COMDAT ??0?$vector@UWeaponInfo@@V?$allocator@UWeaponInfo@@@std@@@std@@QAE@ABV01@@Z
_TEXT	SEGMENT
_this$ = -20						; size = 4
__$EHRec$ = -16						; size = 16
__Cat$560258 = 8					; size = 1
__Right$ = 8						; size = 4
??0?$vector@UWeaponInfo@@V?$allocator@UWeaponInfo@@@std@@@std@@QAE@ABV01@@Z PROC ; std::vector<WeaponInfo,std::allocator<WeaponInfo> >::vector<WeaponInfo,std::allocator<WeaponInfo> >, COMDAT
; _this$ = ecx

; 535  : 		{	// construct by copying _Right

  00000	6a 08		 push	 8
  00002	b8 00 00 00 00	 mov	 eax, __ehhandler$??0?$vector@UWeaponInfo@@V?$allocator@UWeaponInfo@@@std@@@std@@QAE@ABV01@@Z
  00007	e8 00 00 00 00	 call	 __EH_prolog3_catch
  0000c	8b f1		 mov	 esi, ecx
  0000e	89 75 ec	 mov	 DWORD PTR _this$[ebp], esi

; 536  : 		if (_Buy(_Right.size()))

  00011	8b 7d 08	 mov	 edi, DWORD PTR __Right$[ebp]
  00014	33 db		 xor	 ebx, ebx
  00016	89 1e		 mov	 DWORD PTR [esi], ebx
  00018	89 5e 04	 mov	 DWORD PTR [esi+4], ebx
  0001b	89 5e 08	 mov	 DWORD PTR [esi+8], ebx
  0001e	8b 47 04	 mov	 eax, DWORD PTR [edi+4]
  00021	2b 07		 sub	 eax, DWORD PTR [edi]
  00023	6a 28		 push	 40			; 00000028H
  00025	59		 pop	 ecx
  00026	99		 cdq
  00027	f7 f9		 idiv	 ecx
  00029	8b ce		 mov	 ecx, esi
  0002b	50		 push	 eax
  0002c	e8 00 00 00 00	 call	 ?_Buy@?$vector@UWeaponInfo@@V?$allocator@UWeaponInfo@@@std@@@std@@IAE_NI@Z ; std::vector<WeaponInfo,std::allocator<WeaponInfo> >::_Buy
  00031	84 c0		 test	 al, al
  00033	74 1f		 je	 SHORT $LN7@vector@2

; 537  : 			_TRY_BEGIN
; 538  : 			this->_Mylast = _Ucopy(_Right.begin(), _Right.end(),
; 539  : 				this->_Myfirst);

  00035	ff 75 08	 push	 DWORD PTR __Cat$560258[ebp]
  00038	8b 0e		 mov	 ecx, DWORD PTR [esi]
  0003a	8b 47 04	 mov	 eax, DWORD PTR [edi+4]
  0003d	8b 3f		 mov	 edi, DWORD PTR [edi]
  0003f	8d 56 0c	 lea	 edx, DWORD PTR [esi+12]
  00042	52		 push	 edx
  00043	51		 push	 ecx
  00044	50		 push	 eax
  00045	57		 push	 edi
  00046	89 5d fc	 mov	 DWORD PTR __$EHRec$[ebp+12], ebx
  00049	e8 00 00 00 00	 call	 ??$_Uninit_copy@V?$_Vector_const_iterator@V?$_Vector_val@UWeaponInfo@@V?$allocator@UWeaponInfo@@@std@@@std@@@std@@PAUWeaponInfo@@V?$allocator@UWeaponInfo@@@2@@std@@YAPAUWeaponInfo@@V?$_Vector_const_iterator@V?$_Vector_val@UWeaponInfo@@V?$allocator@UWeaponInfo@@@std@@@std@@@0@0PAU1@AAV?$allocator@UWeaponInfo@@@0@U_Nonscalar_ptr_iterator_tag@0@@Z ; std::_Uninit_copy<std::_Vector_const_iterator<std::_Vector_val<WeaponInfo,std::allocator<WeaponInfo> > >,WeaponInfo *,std::allocator<WeaponInfo> >
  0004e	83 c4 14	 add	 esp, 20			; 00000014H
  00051	89 46 04	 mov	 DWORD PTR [esi+4], eax
$LN7@vector@2:

; 543  : 			_CATCH_END
; 544  : 		}

  00054	8b c6		 mov	 eax, esi
  00056	e8 00 00 00 00	 call	 __EH_epilog3
  0005b	c2 04 00	 ret	 4
__catch$??0?$vector@UWeaponInfo@@V?$allocator@UWeaponInfo@@@std@@@std@@QAE@ABV01@@Z$0:

; 540  : 			_CATCH_ALL
; 541  : 			_Tidy();

  0005e	8b 4d ec	 mov	 ecx, DWORD PTR _this$[ebp]
  00061	e8 00 00 00 00	 call	 ?_Tidy@?$vector@UWeaponInfo@@V?$allocator@UWeaponInfo@@@std@@@std@@IAEXXZ ; std::vector<WeaponInfo,std::allocator<WeaponInfo> >::_Tidy

; 542  : 			_RERAISE;

  00066	33 db		 xor	 ebx, ebx
  00068	53		 push	 ebx
  00069	53		 push	 ebx
  0006a	e8 00 00 00 00	 call	 __CxxThrowException@8
$LN38@vector@2:
$LN37@vector@2:
  0006f	cc		 int	 3
_TEXT	ENDS
;	COMDAT text$x
text$x	SEGMENT
__ehhandler$??0?$vector@UWeaponInfo@@V?$allocator@UWeaponInfo@@@std@@@std@@QAE@ABV01@@Z:
  00000	8b 54 24 08	 mov	 edx, DWORD PTR [esp+8]
  00004	8d 42 0c	 lea	 eax, DWORD PTR [edx+12]
  00007	8b 4a e8	 mov	 ecx, DWORD PTR [edx-24]
  0000a	33 c8		 xor	 ecx, eax
  0000c	e8 00 00 00 00	 call	 @__security_check_cookie@4
  00011	b8 00 00 00 00	 mov	 eax, OFFSET __ehfuncinfo$??0?$vector@UWeaponInfo@@V?$allocator@UWeaponInfo@@@std@@@std@@QAE@ABV01@@Z
  00016	e9 00 00 00 00	 jmp	 ___CxxFrameHandler3
text$x	ENDS
??0?$vector@UWeaponInfo@@V?$allocator@UWeaponInfo@@@std@@@std@@QAE@ABV01@@Z ENDP ; std::vector<WeaponInfo,std::allocator<WeaponInfo> >::vector<WeaponInfo,std::allocator<WeaponInfo> >
PUBLIC	??0?$vector@VioHashString@@V?$allocator@VioHashString@@@std@@@std@@QAE@ABV01@@Z ; std::vector<ioHashString,std::allocator<ioHashString> >::vector<ioHashString,std::allocator<ioHashString> >
;	COMDAT xdata$x
; File c:\program files (x86)\microsoft visual studio 10.0\vc\include\xutility
xdata$x	SEGMENT
__catchsym$??0?$vector@VioHashString@@V?$allocator@VioHashString@@@std@@@std@@QAE@ABV01@@Z$2 DD 040H
	DD	00H
	DD	00H
	DD	FLAT:__catch$??0?$vector@VioHashString@@V?$allocator@VioHashString@@@std@@@std@@QAE@ABV01@@Z$0
__unwindtable$??0?$vector@VioHashString@@V?$allocator@VioHashString@@@std@@@std@@QAE@ABV01@@Z DD 0ffffffffH
	DD	00H
	DD	0ffffffffH
	DD	00H
__tryblocktable$??0?$vector@VioHashString@@V?$allocator@VioHashString@@@std@@@std@@QAE@ABV01@@Z DD 00H
	DD	00H
	DD	01H
	DD	01H
	DD	FLAT:__catchsym$??0?$vector@VioHashString@@V?$allocator@VioHashString@@@std@@@std@@QAE@ABV01@@Z$2
__ehfuncinfo$??0?$vector@VioHashString@@V?$allocator@VioHashString@@@std@@@std@@QAE@ABV01@@Z DD 019930522H
	DD	02H
	DD	FLAT:__unwindtable$??0?$vector@VioHashString@@V?$allocator@VioHashString@@@std@@@std@@QAE@ABV01@@Z
	DD	01H
	DD	FLAT:__tryblocktable$??0?$vector@VioHashString@@V?$allocator@VioHashString@@@std@@@std@@QAE@ABV01@@Z
	DD	2 DUP(00H)
	DD	00H
	DD	01H
; Function compile flags: /Ogsp
; File c:\program files (x86)\microsoft visual studio 10.0\vc\include\vector
xdata$x	ENDS
;	COMDAT ??0?$vector@VioHashString@@V?$allocator@VioHashString@@@std@@@std@@QAE@ABV01@@Z
_TEXT	SEGMENT
_this$ = -20						; size = 4
__$EHRec$ = -16						; size = 16
__Cat$560352 = 8					; size = 1
__Right$ = 8						; size = 4
??0?$vector@VioHashString@@V?$allocator@VioHashString@@@std@@@std@@QAE@ABV01@@Z PROC ; std::vector<ioHashString,std::allocator<ioHashString> >::vector<ioHashString,std::allocator<ioHashString> >, COMDAT
; _this$ = ecx

; 535  : 		{	// construct by copying _Right

  00000	6a 08		 push	 8
  00002	b8 00 00 00 00	 mov	 eax, __ehhandler$??0?$vector@VioHashString@@V?$allocator@VioHashString@@@std@@@std@@QAE@ABV01@@Z
  00007	e8 00 00 00 00	 call	 __EH_prolog3_catch
  0000c	8b f1		 mov	 esi, ecx
  0000e	89 75 ec	 mov	 DWORD PTR _this$[ebp], esi

; 536  : 		if (_Buy(_Right.size()))

  00011	8b 7d 08	 mov	 edi, DWORD PTR __Right$[ebp]
  00014	33 db		 xor	 ebx, ebx
  00016	89 1e		 mov	 DWORD PTR [esi], ebx
  00018	89 5e 04	 mov	 DWORD PTR [esi+4], ebx
  0001b	89 5e 08	 mov	 DWORD PTR [esi+8], ebx
  0001e	8b 47 04	 mov	 eax, DWORD PTR [edi+4]
  00021	2b 07		 sub	 eax, DWORD PTR [edi]
  00023	c1 f8 04	 sar	 eax, 4
  00026	50		 push	 eax
  00027	e8 00 00 00 00	 call	 ?_Buy@?$vector@VioHashString@@V?$allocator@VioHashString@@@std@@@std@@IAE_NI@Z ; std::vector<ioHashString,std::allocator<ioHashString> >::_Buy
  0002c	84 c0		 test	 al, al
  0002e	74 1f		 je	 SHORT $LN7@vector@3

; 537  : 			_TRY_BEGIN
; 538  : 			this->_Mylast = _Ucopy(_Right.begin(), _Right.end(),
; 539  : 				this->_Myfirst);

  00030	ff 75 08	 push	 DWORD PTR __Cat$560352[ebp]
  00033	8b 0e		 mov	 ecx, DWORD PTR [esi]
  00035	8b 47 04	 mov	 eax, DWORD PTR [edi+4]
  00038	8b 3f		 mov	 edi, DWORD PTR [edi]
  0003a	8d 56 0c	 lea	 edx, DWORD PTR [esi+12]
  0003d	52		 push	 edx
  0003e	51		 push	 ecx
  0003f	50		 push	 eax
  00040	57		 push	 edi
  00041	89 5d fc	 mov	 DWORD PTR __$EHRec$[ebp+12], ebx
  00044	e8 00 00 00 00	 call	 ??$_Uninit_copy@V?$_Vector_const_iterator@V?$_Vector_val@VioHashString@@V?$allocator@VioHashString@@@std@@@std@@@std@@PAVioHashString@@V?$allocator@VioHashString@@@2@@std@@YAPAVioHashString@@V?$_Vector_const_iterator@V?$_Vector_val@VioHashString@@V?$allocator@VioHashString@@@std@@@std@@@0@0PAV1@AAV?$allocator@VioHashString@@@0@U_Nonscalar_ptr_iterator_tag@0@@Z ; std::_Uninit_copy<std::_Vector_const_iterator<std::_Vector_val<ioHashString,std::allocator<ioHashString> > >,ioHashString *,std::allocator<ioHashString> >
  00049	83 c4 14	 add	 esp, 20			; 00000014H
  0004c	89 46 04	 mov	 DWORD PTR [esi+4], eax
$LN7@vector@3:

; 543  : 			_CATCH_END
; 544  : 		}

  0004f	8b c6		 mov	 eax, esi
  00051	e8 00 00 00 00	 call	 __EH_epilog3
  00056	c2 04 00	 ret	 4
__catch$??0?$vector@VioHashString@@V?$allocator@VioHashString@@@std@@@std@@QAE@ABV01@@Z$0:

; 540  : 			_CATCH_ALL
; 541  : 			_Tidy();

  00059	8b 4d ec	 mov	 ecx, DWORD PTR _this$[ebp]
  0005c	e8 00 00 00 00	 call	 ?_Tidy@?$vector@VioHashString@@V?$allocator@VioHashString@@@std@@@std@@IAEXXZ ; std::vector<ioHashString,std::allocator<ioHashString> >::_Tidy

; 542  : 			_RERAISE;

  00061	33 db		 xor	 ebx, ebx
  00063	53		 push	 ebx
  00064	53		 push	 ebx
  00065	e8 00 00 00 00	 call	 __CxxThrowException@8
$LN38@vector@3:
$LN37@vector@3:
  0006a	cc		 int	 3
_TEXT	ENDS
;	COMDAT text$x
text$x	SEGMENT
__ehhandler$??0?$vector@VioHashString@@V?$allocator@VioHashString@@@std@@@std@@QAE@ABV01@@Z:
  00000	8b 54 24 08	 mov	 edx, DWORD PTR [esp+8]
  00004	8d 42 0c	 lea	 eax, DWORD PTR [edx+12]
  00007	8b 4a e8	 mov	 ecx, DWORD PTR [edx-24]
  0000a	33 c8		 xor	 ecx, eax
  0000c	e8 00 00 00 00	 call	 @__security_check_cookie@4
  00011	b8 00 00 00 00	 mov	 eax, OFFSET __ehfuncinfo$??0?$vector@VioHashString@@V?$allocator@VioHashString@@@std@@@std@@QAE@ABV01@@Z
  00016	e9 00 00 00 00	 jmp	 ___CxxFrameHandler3
text$x	ENDS
??0?$vector@VioHashString@@V?$allocator@VioHashString@@@std@@@std@@QAE@ABV01@@Z ENDP ; std::vector<ioHashString,std::allocator<ioHashString> >::vector<ioHashString,std::allocator<ioHashString> >
PUBLIC	??1?$vector@VioHashString@@V?$allocator@VioHashString@@@std@@@std@@QAE@XZ ; std::vector<ioHashString,std::allocator<ioHashString> >::~vector<ioHashString,std::allocator<ioHashString> >
; Function compile flags: /Ogsp
;	COMDAT ??1?$vector@VioHashString@@V?$allocator@VioHashString@@@std@@@std@@QAE@XZ
_TEXT	SEGMENT
??1?$vector@VioHashString@@V?$allocator@VioHashString@@@std@@@std@@QAE@XZ PROC ; std::vector<ioHashString,std::allocator<ioHashString> >::~vector<ioHashString,std::allocator<ioHashString> >, COMDAT
; _this$ = ecx

; 705  : 		_Tidy();

  00000	e9 00 00 00 00	 jmp	 ?_Tidy@?$vector@VioHashString@@V?$allocator@VioHashString@@@std@@@std@@IAEXXZ ; std::vector<ioHashString,std::allocator<ioHashString> >::_Tidy
??1?$vector@VioHashString@@V?$allocator@VioHashString@@@std@@@std@@QAE@XZ ENDP ; std::vector<ioHashString,std::allocator<ioHashString> >::~vector<ioHashString,std::allocator<ioHashString> >
_TEXT	ENDS
PUBLIC	?clear@?$vector@VioHashString@@V?$allocator@VioHashString@@@std@@@std@@QAEXXZ ; std::vector<ioHashString,std::allocator<ioHashString> >::clear
; Function compile flags: /Ogsp
;	COMDAT ?clear@?$vector@VioHashString@@V?$allocator@VioHashString@@@std@@@std@@QAEXXZ
_TEXT	SEGMENT
$T560382 = -4						; size = 4
?clear@?$vector@VioHashString@@V?$allocator@VioHashString@@@std@@@std@@QAEXXZ PROC ; std::vector<ioHashString,std::allocator<ioHashString> >::clear, COMDAT
; _this$ = ecx

; 1217 : 		{	// erase all

  00000	55		 push	 ebp
  00001	8b ec		 mov	 ebp, esp
  00003	51		 push	 ecx

; 1218 : 		erase(begin(), end());

  00004	8b 41 04	 mov	 eax, DWORD PTR [ecx+4]
  00007	8b 11		 mov	 edx, DWORD PTR [ecx]
  00009	50		 push	 eax
  0000a	52		 push	 edx
  0000b	8d 45 fc	 lea	 eax, DWORD PTR $T560382[ebp]
  0000e	50		 push	 eax
  0000f	e8 00 00 00 00	 call	 ?erase@?$vector@VioHashString@@V?$allocator@VioHashString@@@std@@@std@@QAE?AV?$_Vector_iterator@V?$_Vector_val@VioHashString@@V?$allocator@VioHashString@@@std@@@std@@@2@V?$_Vector_const_iterator@V?$_Vector_val@VioHashString@@V?$allocator@VioHashString@@@std@@@std@@@2@0@Z ; std::vector<ioHashString,std::allocator<ioHashString> >::erase

; 1219 : 		}

  00014	c9		 leave
  00015	c3		 ret	 0
?clear@?$vector@VioHashString@@V?$allocator@VioHashString@@@std@@@std@@QAEXXZ ENDP ; std::vector<ioHashString,std::allocator<ioHashString> >::clear
_TEXT	ENDS
PUBLIC	??1?$vector@UWeaponInfo@@V?$allocator@UWeaponInfo@@@std@@@std@@QAE@XZ ; std::vector<WeaponInfo,std::allocator<WeaponInfo> >::~vector<WeaponInfo,std::allocator<WeaponInfo> >
; Function compile flags: /Ogsp
;	COMDAT ??1?$vector@UWeaponInfo@@V?$allocator@UWeaponInfo@@@std@@@std@@QAE@XZ
_TEXT	SEGMENT
??1?$vector@UWeaponInfo@@V?$allocator@UWeaponInfo@@@std@@@std@@QAE@XZ PROC ; std::vector<WeaponInfo,std::allocator<WeaponInfo> >::~vector<WeaponInfo,std::allocator<WeaponInfo> >, COMDAT
; _this$ = ecx

; 705  : 		_Tidy();

  00000	e9 00 00 00 00	 jmp	 ?_Tidy@?$vector@UWeaponInfo@@V?$allocator@UWeaponInfo@@@std@@@std@@IAEXXZ ; std::vector<WeaponInfo,std::allocator<WeaponInfo> >::_Tidy
??1?$vector@UWeaponInfo@@V?$allocator@UWeaponInfo@@@std@@@std@@QAE@XZ ENDP ; std::vector<WeaponInfo,std::allocator<WeaponInfo> >::~vector<WeaponInfo,std::allocator<WeaponInfo> >
_TEXT	ENDS
PUBLIC	??0AttackAttribute@@QAE@ABU0@@Z			; AttackAttribute::AttackAttribute
;	COMDAT xdata$x
xdata$x	SEGMENT
__unwindtable$??0AttackAttribute@@QAE@ABU0@@Z DD 0ffffffffH
	DD	FLAT:__unwindfunclet$??0AttackAttribute@@QAE@ABU0@@Z$0
	DD	00H
	DD	FLAT:__unwindfunclet$??0AttackAttribute@@QAE@ABU0@@Z$1
	DD	01H
	DD	FLAT:__unwindfunclet$??0AttackAttribute@@QAE@ABU0@@Z$2
__ehfuncinfo$??0AttackAttribute@@QAE@ABU0@@Z DD 019930522H
	DD	03H
	DD	FLAT:__unwindtable$??0AttackAttribute@@QAE@ABU0@@Z
	DD	2 DUP(00H)
	DD	2 DUP(00H)
	DD	00H
	DD	01H
; Function compile flags: /Ogsp
xdata$x	ENDS
;	COMDAT ??0AttackAttribute@@QAE@ABU0@@Z
_TEXT	SEGMENT
_this$ = -16						; size = 4
__$EHRec$ = -12						; size = 12
___that$ = 8						; size = 4
??0AttackAttribute@@QAE@ABU0@@Z PROC			; AttackAttribute::AttackAttribute, COMDAT
; _this$ = ecx
  00000	6a 04		 push	 4
  00002	b8 00 00 00 00	 mov	 eax, __ehhandler$??0AttackAttribute@@QAE@ABU0@@Z
  00007	e8 00 00 00 00	 call	 __EH_prolog3
  0000c	8b f1		 mov	 esi, ecx
  0000e	89 75 f0	 mov	 DWORD PTR _this$[ebp], esi
  00011	8b 7d 08	 mov	 edi, DWORD PTR ___that$[ebp]
  00014	8b 1d 00 00 00
	00		 mov	 ebx, DWORD PTR __imp_??0ioHashString@@QAE@ABV0@@Z
  0001a	57		 push	 edi
  0001b	ff d3		 call	 ebx
  0001d	d9 47 10	 fld	 DWORD PTR [edi+16]
  00020	83 65 fc 00	 and	 DWORD PTR __$EHRec$[ebp+8], 0
  00024	d9 5e 10	 fstp	 DWORD PTR [esi+16]
  00027	8d 47 14	 lea	 eax, DWORD PTR [edi+20]
  0002a	50		 push	 eax
  0002b	8d 4e 14	 lea	 ecx, DWORD PTR [esi+20]
  0002e	ff d3		 call	 ebx
  00030	d9 47 24	 fld	 DWORD PTR [edi+36]
  00033	8d 47 28	 lea	 eax, DWORD PTR [edi+40]
  00036	d9 5e 24	 fstp	 DWORD PTR [esi+36]
  00039	50		 push	 eax
  0003a	8d 4e 28	 lea	 ecx, DWORD PTR [esi+40]
  0003d	c6 45 fc 01	 mov	 BYTE PTR __$EHRec$[ebp+8], 1
  00041	e8 00 00 00 00	 call	 ??0?$vector@UWeaponInfo@@V?$allocator@UWeaponInfo@@@std@@@std@@QAE@ABV01@@Z ; std::vector<WeaponInfo,std::allocator<WeaponInfo> >::vector<WeaponInfo,std::allocator<WeaponInfo> >
  00046	8d 47 38	 lea	 eax, DWORD PTR [edi+56]
  00049	50		 push	 eax
  0004a	8d 4e 38	 lea	 ecx, DWORD PTR [esi+56]
  0004d	c6 45 fc 02	 mov	 BYTE PTR __$EHRec$[ebp+8], 2
  00051	e8 00 00 00 00	 call	 ??0?$vector@UForceInfo@@V?$allocator@UForceInfo@@@std@@@std@@QAE@ABV01@@Z ; std::vector<ForceInfo,std::allocator<ForceInfo> >::vector<ForceInfo,std::allocator<ForceInfo> >
  00056	8b 47 48	 mov	 eax, DWORD PTR [edi+72]
  00059	89 46 48	 mov	 DWORD PTR [esi+72], eax
  0005c	8b 47 4c	 mov	 eax, DWORD PTR [edi+76]
  0005f	89 46 4c	 mov	 DWORD PTR [esi+76], eax
  00062	8b c6		 mov	 eax, esi
  00064	e8 00 00 00 00	 call	 __EH_epilog3
  00069	c2 04 00	 ret	 4
_TEXT	ENDS
;	COMDAT text$x
text$x	SEGMENT
__unwindfunclet$??0AttackAttribute@@QAE@ABU0@@Z$0:
  00000	8b 4d f0	 mov	 ecx, DWORD PTR _this$[ebp]
  00003	ff 25 00 00 00
	00		 jmp	 DWORD PTR __imp_??1ioHashString@@QAE@XZ
__unwindfunclet$??0AttackAttribute@@QAE@ABU0@@Z$1:
  00009	8b 4d f0	 mov	 ecx, DWORD PTR _this$[ebp]
  0000c	83 c1 14	 add	 ecx, 20			; 00000014H
  0000f	ff 25 00 00 00
	00		 jmp	 DWORD PTR __imp_??1ioHashString@@QAE@XZ
__unwindfunclet$??0AttackAttribute@@QAE@ABU0@@Z$2:
  00015	8b 4d f0	 mov	 ecx, DWORD PTR _this$[ebp]
  00018	83 c1 28	 add	 ecx, 40			; 00000028H
  0001b	e9 00 00 00 00	 jmp	 ??1?$vector@UWeaponInfo@@V?$allocator@UWeaponInfo@@@std@@@std@@QAE@XZ ; std::vector<WeaponInfo,std::allocator<WeaponInfo> >::~vector<WeaponInfo,std::allocator<WeaponInfo> >
__ehhandler$??0AttackAttribute@@QAE@ABU0@@Z:
  00020	8b 54 24 08	 mov	 edx, DWORD PTR [esp+8]
  00024	8d 42 0c	 lea	 eax, DWORD PTR [edx+12]
  00027	8b 4a ec	 mov	 ecx, DWORD PTR [edx-20]
  0002a	33 c8		 xor	 ecx, eax
  0002c	e8 00 00 00 00	 call	 @__security_check_cookie@4
  00031	b8 00 00 00 00	 mov	 eax, OFFSET __ehfuncinfo$??0AttackAttribute@@QAE@ABU0@@Z
  00036	e9 00 00 00 00	 jmp	 ___CxxFrameHandler3
text$x	ENDS
??0AttackAttribute@@QAE@ABU0@@Z ENDP			; AttackAttribute::AttackAttribute
PUBLIC	??0AttackAttribute@@QAE@XZ			; AttackAttribute::AttackAttribute
EXTRN	?Init@AttackAttribute@@QAEXXZ:PROC		; AttackAttribute::Init
;	COMDAT xdata$x
; File c:\program files (x86)\microsoft visual studio 10.0\vc\include\xmemory
xdata$x	SEGMENT
__unwindtable$??0AttackAttribute@@QAE@XZ DD 0ffffffffH
	DD	FLAT:__unwindfunclet$??0AttackAttribute@@QAE@XZ$0
	DD	00H
	DD	FLAT:__unwindfunclet$??0AttackAttribute@@QAE@XZ$1
	DD	01H
	DD	FLAT:__unwindfunclet$??0AttackAttribute@@QAE@XZ$2
	DD	02H
	DD	FLAT:__unwindfunclet$??0AttackAttribute@@QAE@XZ$3
__ehfuncinfo$??0AttackAttribute@@QAE@XZ DD 019930522H
	DD	04H
	DD	FLAT:__unwindtable$??0AttackAttribute@@QAE@XZ
	DD	2 DUP(00H)
	DD	2 DUP(00H)
	DD	00H
	DD	01H
; Function compile flags: /Ogsp
; File d:\lost saga for developer\youtube\tutorial\source\src\lsclient\ioattackattribute.h
xdata$x	ENDS
;	COMDAT ??0AttackAttribute@@QAE@XZ
_TEXT	SEGMENT
_this$ = -16						; size = 4
__$EHRec$ = -12						; size = 12
??0AttackAttribute@@QAE@XZ PROC				; AttackAttribute::AttackAttribute, COMDAT
; _this$ = ecx

; 107  : 	AttackAttribute()

  00000	6a 04		 push	 4
  00002	b8 00 00 00 00	 mov	 eax, __ehhandler$??0AttackAttribute@@QAE@XZ
  00007	e8 00 00 00 00	 call	 __EH_prolog3
  0000c	8b f1		 mov	 esi, ecx
  0000e	89 75 f0	 mov	 DWORD PTR _this$[ebp], esi
  00011	8b 3d 00 00 00
	00		 mov	 edi, DWORD PTR __imp_??0ioHashString@@QAE@XZ
  00017	ff d7		 call	 edi
  00019	33 db		 xor	 ebx, ebx
  0001b	8d 4e 14	 lea	 ecx, DWORD PTR [esi+20]
  0001e	89 5d fc	 mov	 DWORD PTR __$EHRec$[ebp+8], ebx
  00021	ff d7		 call	 edi
  00023	89 5e 28	 mov	 DWORD PTR [esi+40], ebx
  00026	89 5e 2c	 mov	 DWORD PTR [esi+44], ebx
  00029	89 5e 30	 mov	 DWORD PTR [esi+48], ebx
  0002c	89 5e 38	 mov	 DWORD PTR [esi+56], ebx
  0002f	89 5e 3c	 mov	 DWORD PTR [esi+60], ebx
  00032	89 5e 40	 mov	 DWORD PTR [esi+64], ebx

; 108  : 	{
; 109  : 		Init();

  00035	8b ce		 mov	 ecx, esi
  00037	c6 45 fc 03	 mov	 BYTE PTR __$EHRec$[ebp+8], 3
  0003b	e8 00 00 00 00	 call	 ?Init@AttackAttribute@@QAEXXZ ; AttackAttribute::Init

; 110  : 	}

  00040	8b c6		 mov	 eax, esi
  00042	e8 00 00 00 00	 call	 __EH_epilog3
  00047	c3		 ret	 0
_TEXT	ENDS
;	COMDAT text$x
text$x	SEGMENT
__unwindfunclet$??0AttackAttribute@@QAE@XZ$0:
  00000	8b 4d f0	 mov	 ecx, DWORD PTR _this$[ebp]
  00003	ff 25 00 00 00
	00		 jmp	 DWORD PTR __imp_??1ioHashString@@QAE@XZ
__unwindfunclet$??0AttackAttribute@@QAE@XZ$1:
  00009	8b 4d f0	 mov	 ecx, DWORD PTR _this$[ebp]
  0000c	83 c1 14	 add	 ecx, 20			; 00000014H
  0000f	ff 25 00 00 00
	00		 jmp	 DWORD PTR __imp_??1ioHashString@@QAE@XZ
__unwindfunclet$??0AttackAttribute@@QAE@XZ$2:
  00015	8b 4d f0	 mov	 ecx, DWORD PTR _this$[ebp]
  00018	83 c1 28	 add	 ecx, 40			; 00000028H
  0001b	e9 00 00 00 00	 jmp	 ??1?$vector@UWeaponInfo@@V?$allocator@UWeaponInfo@@@std@@@std@@QAE@XZ ; std::vector<WeaponInfo,std::allocator<WeaponInfo> >::~vector<WeaponInfo,std::allocator<WeaponInfo> >
__unwindfunclet$??0AttackAttribute@@QAE@XZ$3:
  00020	8b 4d f0	 mov	 ecx, DWORD PTR _this$[ebp]
  00023	83 c1 38	 add	 ecx, 56			; 00000038H
  00026	e9 00 00 00 00	 jmp	 ??1?$vector@UForceInfo@@V?$allocator@UForceInfo@@@std@@@std@@QAE@XZ ; std::vector<ForceInfo,std::allocator<ForceInfo> >::~vector<ForceInfo,std::allocator<ForceInfo> >
__ehhandler$??0AttackAttribute@@QAE@XZ:
  0002b	8b 54 24 08	 mov	 edx, DWORD PTR [esp+8]
  0002f	8d 42 0c	 lea	 eax, DWORD PTR [edx+12]
  00032	8b 4a ec	 mov	 ecx, DWORD PTR [edx-20]
  00035	33 c8		 xor	 ecx, eax
  00037	e8 00 00 00 00	 call	 @__security_check_cookie@4
  0003c	b8 00 00 00 00	 mov	 eax, OFFSET __ehfuncinfo$??0AttackAttribute@@QAE@XZ
  00041	e9 00 00 00 00	 jmp	 ___CxxFrameHandler3
text$x	ENDS
??0AttackAttribute@@QAE@XZ ENDP				; AttackAttribute::AttackAttribute
PUBLIC	??1AttackAttribute@@QAE@XZ			; AttackAttribute::~AttackAttribute
;	COMDAT xdata$x
xdata$x	SEGMENT
__unwindtable$??1AttackAttribute@@QAE@XZ DD 0ffffffffH
	DD	FLAT:__unwindfunclet$??1AttackAttribute@@QAE@XZ$0
	DD	00H
	DD	FLAT:__unwindfunclet$??1AttackAttribute@@QAE@XZ$1
	DD	01H
	DD	FLAT:__unwindfunclet$??1AttackAttribute@@QAE@XZ$2
__ehfuncinfo$??1AttackAttribute@@QAE@XZ DD 019930522H
	DD	03H
	DD	FLAT:__unwindtable$??1AttackAttribute@@QAE@XZ
	DD	2 DUP(00H)
	DD	2 DUP(00H)
	DD	00H
	DD	01H
; Function compile flags: /Ogsp
xdata$x	ENDS
;	COMDAT ??1AttackAttribute@@QAE@XZ
_TEXT	SEGMENT
_this$ = -16						; size = 4
__$EHRec$ = -12						; size = 12
??1AttackAttribute@@QAE@XZ PROC				; AttackAttribute::~AttackAttribute, COMDAT
; _this$ = ecx
  00000	6a 04		 push	 4
  00002	b8 00 00 00 00	 mov	 eax, __ehhandler$??1AttackAttribute@@QAE@XZ
  00007	e8 00 00 00 00	 call	 __EH_prolog3
  0000c	8b f1		 mov	 esi, ecx
  0000e	89 75 f0	 mov	 DWORD PTR _this$[ebp], esi
  00011	8d 4e 38	 lea	 ecx, DWORD PTR [esi+56]
  00014	c7 45 fc 02 00
	00 00		 mov	 DWORD PTR __$EHRec$[ebp+8], 2
  0001b	e8 00 00 00 00	 call	 ?_Tidy@?$vector@UForceInfo@@V?$allocator@UForceInfo@@@std@@@std@@IAEXXZ ; std::vector<ForceInfo,std::allocator<ForceInfo> >::_Tidy
  00020	8d 4e 28	 lea	 ecx, DWORD PTR [esi+40]
  00023	c6 45 fc 01	 mov	 BYTE PTR __$EHRec$[ebp+8], 1
  00027	e8 00 00 00 00	 call	 ?_Tidy@?$vector@UWeaponInfo@@V?$allocator@UWeaponInfo@@@std@@@std@@IAEXXZ ; std::vector<WeaponInfo,std::allocator<WeaponInfo> >::_Tidy
  0002c	8b 3d 00 00 00
	00		 mov	 edi, DWORD PTR __imp_??1ioHashString@@QAE@XZ
  00032	8d 4e 14	 lea	 ecx, DWORD PTR [esi+20]
  00035	c6 45 fc 00	 mov	 BYTE PTR __$EHRec$[ebp+8], 0
  00039	ff d7		 call	 edi
  0003b	83 4d fc ff	 or	 DWORD PTR __$EHRec$[ebp+8], -1
  0003f	8b ce		 mov	 ecx, esi
  00041	ff d7		 call	 edi
  00043	e8 00 00 00 00	 call	 __EH_epilog3
  00048	c3		 ret	 0
_TEXT	ENDS
;	COMDAT text$x
text$x	SEGMENT
__unwindfunclet$??1AttackAttribute@@QAE@XZ$0:
  00000	8b 4d f0	 mov	 ecx, DWORD PTR _this$[ebp]
  00003	ff 25 00 00 00
	00		 jmp	 DWORD PTR __imp_??1ioHashString@@QAE@XZ
__unwindfunclet$??1AttackAttribute@@QAE@XZ$1:
  00009	8b 4d f0	 mov	 ecx, DWORD PTR _this$[ebp]
  0000c	83 c1 14	 add	 ecx, 20			; 00000014H
  0000f	ff 25 00 00 00
	00		 jmp	 DWORD PTR __imp_??1ioHashString@@QAE@XZ
__unwindfunclet$??1AttackAttribute@@QAE@XZ$2:
  00015	8b 4d f0	 mov	 ecx, DWORD PTR _this$[ebp]
  00018	83 c1 28	 add	 ecx, 40			; 00000028H
  0001b	e9 00 00 00 00	 jmp	 ??1?$vector@UWeaponInfo@@V?$allocator@UWeaponInfo@@@std@@@std@@QAE@XZ ; std::vector<WeaponInfo,std::allocator<WeaponInfo> >::~vector<WeaponInfo,std::allocator<WeaponInfo> >
__ehhandler$??1AttackAttribute@@QAE@XZ:
  00020	8b 54 24 08	 mov	 edx, DWORD PTR [esp+8]
  00024	8d 42 0c	 lea	 eax, DWORD PTR [edx+12]
  00027	8b 4a ec	 mov	 ecx, DWORD PTR [edx-20]
  0002a	33 c8		 xor	 ecx, eax
  0002c	e8 00 00 00 00	 call	 @__security_check_cookie@4
  00031	b8 00 00 00 00	 mov	 eax, OFFSET __ehfuncinfo$??1AttackAttribute@@QAE@XZ
  00036	e9 00 00 00 00	 jmp	 ___CxxFrameHandler3
text$x	ENDS
??1AttackAttribute@@QAE@XZ ENDP				; AttackAttribute::~AttackAttribute
PUBLIC	??1GrapplingSkillWoundedInfo@@QAE@XZ		; GrapplingSkillWoundedInfo::~GrapplingSkillWoundedInfo
;	COMDAT xdata$x
xdata$x	SEGMENT
__unwindtable$??1GrapplingSkillWoundedInfo@@QAE@XZ DD 0ffffffffH
	DD	FLAT:__unwindfunclet$??1GrapplingSkillWoundedInfo@@QAE@XZ$0
	DD	00H
	DD	FLAT:__unwindfunclet$??1GrapplingSkillWoundedInfo@@QAE@XZ$1
	DD	01H
	DD	FLAT:__unwindfunclet$??1GrapplingSkillWoundedInfo@@QAE@XZ$2
	DD	02H
	DD	FLAT:__unwindfunclet$??1GrapplingSkillWoundedInfo@@QAE@XZ$3
__ehfuncinfo$??1GrapplingSkillWoundedInfo@@QAE@XZ DD 019930522H
	DD	04H
	DD	FLAT:__unwindtable$??1GrapplingSkillWoundedInfo@@QAE@XZ
	DD	2 DUP(00H)
	DD	2 DUP(00H)
	DD	00H
	DD	01H
; Function compile flags: /Ogsp
xdata$x	ENDS
;	COMDAT ??1GrapplingSkillWoundedInfo@@QAE@XZ
_TEXT	SEGMENT
_this$ = -16						; size = 4
__$EHRec$ = -12						; size = 12
??1GrapplingSkillWoundedInfo@@QAE@XZ PROC		; GrapplingSkillWoundedInfo::~GrapplingSkillWoundedInfo, COMDAT
; _this$ = ecx
  00000	6a 04		 push	 4
  00002	b8 00 00 00 00	 mov	 eax, __ehhandler$??1GrapplingSkillWoundedInfo@@QAE@XZ
  00007	e8 00 00 00 00	 call	 __EH_prolog3
  0000c	8b f1		 mov	 esi, ecx
  0000e	89 75 f0	 mov	 DWORD PTR _this$[ebp], esi
  00011	8d 4e 4c	 lea	 ecx, DWORD PTR [esi+76]
  00014	c7 45 fc 03 00
	00 00		 mov	 DWORD PTR __$EHRec$[ebp+8], 3
  0001b	e8 00 00 00 00	 call	 ?_Tidy@?$vector@VioHashString@@V?$allocator@VioHashString@@@std@@@std@@IAEXXZ ; std::vector<ioHashString,std::allocator<ioHashString> >::_Tidy
  00020	8d 4e 3c	 lea	 ecx, DWORD PTR [esi+60]
  00023	c6 45 fc 02	 mov	 BYTE PTR __$EHRec$[ebp+8], 2
  00027	e8 00 00 00 00	 call	 ?_Tidy@?$vector@VioHashString@@V?$allocator@VioHashString@@@std@@@std@@IAEXXZ ; std::vector<ioHashString,std::allocator<ioHashString> >::_Tidy
  0002c	8d 4e 2c	 lea	 ecx, DWORD PTR [esi+44]
  0002f	c6 45 fc 01	 mov	 BYTE PTR __$EHRec$[ebp+8], 1
  00033	e8 00 00 00 00	 call	 ?_Tidy@?$vector@VioHashString@@V?$allocator@VioHashString@@@std@@@std@@IAEXXZ ; std::vector<ioHashString,std::allocator<ioHashString> >::_Tidy
  00038	8b 3d 00 00 00
	00		 mov	 edi, DWORD PTR __imp_??1ioHashString@@QAE@XZ
  0003e	8d 4e 14	 lea	 ecx, DWORD PTR [esi+20]
  00041	c6 45 fc 00	 mov	 BYTE PTR __$EHRec$[ebp+8], 0
  00045	ff d7		 call	 edi
  00047	83 4d fc ff	 or	 DWORD PTR __$EHRec$[ebp+8], -1
  0004b	8d 4e 04	 lea	 ecx, DWORD PTR [esi+4]
  0004e	ff d7		 call	 edi
  00050	e8 00 00 00 00	 call	 __EH_epilog3
  00055	c3		 ret	 0
_TEXT	ENDS
;	COMDAT text$x
text$x	SEGMENT
__unwindfunclet$??1GrapplingSkillWoundedInfo@@QAE@XZ$0:
  00000	8b 4d f0	 mov	 ecx, DWORD PTR _this$[ebp]
  00003	83 c1 04	 add	 ecx, 4
  00006	ff 25 00 00 00
	00		 jmp	 DWORD PTR __imp_??1ioHashString@@QAE@XZ
__unwindfunclet$??1GrapplingSkillWoundedInfo@@QAE@XZ$1:
  0000c	8b 4d f0	 mov	 ecx, DWORD PTR _this$[ebp]
  0000f	83 c1 14	 add	 ecx, 20			; 00000014H
  00012	ff 25 00 00 00
	00		 jmp	 DWORD PTR __imp_??1ioHashString@@QAE@XZ
__unwindfunclet$??1GrapplingSkillWoundedInfo@@QAE@XZ$2:
  00018	8b 4d f0	 mov	 ecx, DWORD PTR _this$[ebp]
  0001b	83 c1 2c	 add	 ecx, 44			; 0000002cH
  0001e	e9 00 00 00 00	 jmp	 ??1?$vector@VioHashString@@V?$allocator@VioHashString@@@std@@@std@@QAE@XZ ; std::vector<ioHashString,std::allocator<ioHashString> >::~vector<ioHashString,std::allocator<ioHashString> >
__unwindfunclet$??1GrapplingSkillWoundedInfo@@QAE@XZ$3:
  00023	8b 4d f0	 mov	 ecx, DWORD PTR _this$[ebp]
  00026	83 c1 3c	 add	 ecx, 60			; 0000003cH
  00029	e9 00 00 00 00	 jmp	 ??1?$vector@VioHashString@@V?$allocator@VioHashString@@@std@@@std@@QAE@XZ ; std::vector<ioHashString,std::allocator<ioHashString> >::~vector<ioHashString,std::allocator<ioHashString> >
__ehhandler$??1GrapplingSkillWoundedInfo@@QAE@XZ:
  0002e	8b 54 24 08	 mov	 edx, DWORD PTR [esp+8]
  00032	8d 42 0c	 lea	 eax, DWORD PTR [edx+12]
  00035	8b 4a ec	 mov	 ecx, DWORD PTR [edx-20]
  00038	33 c8		 xor	 ecx, eax
  0003a	e8 00 00 00 00	 call	 @__security_check_cookie@4
  0003f	b8 00 00 00 00	 mov	 eax, OFFSET __ehfuncinfo$??1GrapplingSkillWoundedInfo@@QAE@XZ
  00044	e9 00 00 00 00	 jmp	 ___CxxFrameHandler3
text$x	ENDS
??1GrapplingSkillWoundedInfo@@QAE@XZ ENDP		; GrapplingSkillWoundedInfo::~GrapplingSkillWoundedInfo
PUBLIC	??0StGrapInfo@ioGrapplingBlowLoopSkill@@QAE@XZ	; ioGrapplingBlowLoopSkill::StGrapInfo::StGrapInfo
;	COMDAT xdata$x
xdata$x	SEGMENT
__unwindtable$??0StGrapInfo@ioGrapplingBlowLoopSkill@@QAE@XZ DD 0ffffffffH
	DD	FLAT:__unwindfunclet$??0StGrapInfo@ioGrapplingBlowLoopSkill@@QAE@XZ$0
	DD	00H
	DD	FLAT:__unwindfunclet$??0StGrapInfo@ioGrapplingBlowLoopSkill@@QAE@XZ$1
__ehfuncinfo$??0StGrapInfo@ioGrapplingBlowLoopSkill@@QAE@XZ DD 019930522H
	DD	02H
	DD	FLAT:__unwindtable$??0StGrapInfo@ioGrapplingBlowLoopSkill@@QAE@XZ
	DD	2 DUP(00H)
	DD	2 DUP(00H)
	DD	00H
	DD	01H
; Function compile flags: /Ogsp
xdata$x	ENDS
;	COMDAT ??0StGrapInfo@ioGrapplingBlowLoopSkill@@QAE@XZ
_TEXT	SEGMENT
_this$ = -16						; size = 4
__$EHRec$ = -12						; size = 12
??0StGrapInfo@ioGrapplingBlowLoopSkill@@QAE@XZ PROC	; ioGrapplingBlowLoopSkill::StGrapInfo::StGrapInfo, COMDAT
; _this$ = ecx
  00000	6a 04		 push	 4
  00002	b8 00 00 00 00	 mov	 eax, __ehhandler$??0StGrapInfo@ioGrapplingBlowLoopSkill@@QAE@XZ
  00007	e8 00 00 00 00	 call	 __EH_prolog3
  0000c	8b f1		 mov	 esi, ecx
  0000e	89 75 f0	 mov	 DWORD PTR _this$[ebp], esi
  00011	8b 3d 00 00 00
	00		 mov	 edi, DWORD PTR __imp_??0ioHashString@@QAE@XZ
  00017	ff d7		 call	 edi
  00019	83 65 fc 00	 and	 DWORD PTR __$EHRec$[ebp+8], 0
  0001d	8d 4e 14	 lea	 ecx, DWORD PTR [esi+20]
  00020	ff d7		 call	 edi
  00022	8d 4e 30	 lea	 ecx, DWORD PTR [esi+48]
  00025	c6 45 fc 01	 mov	 BYTE PTR __$EHRec$[ebp+8], 1
  00029	e8 00 00 00 00	 call	 ??0AttackAttribute@@QAE@XZ ; AttackAttribute::AttackAttribute
  0002e	8b c6		 mov	 eax, esi
  00030	e8 00 00 00 00	 call	 __EH_epilog3
  00035	c3		 ret	 0
_TEXT	ENDS
;	COMDAT text$x
text$x	SEGMENT
__unwindfunclet$??0StGrapInfo@ioGrapplingBlowLoopSkill@@QAE@XZ$0:
  00000	8b 4d f0	 mov	 ecx, DWORD PTR _this$[ebp]
  00003	ff 25 00 00 00
	00		 jmp	 DWORD PTR __imp_??1ioHashString@@QAE@XZ
__unwindfunclet$??0StGrapInfo@ioGrapplingBlowLoopSkill@@QAE@XZ$1:
  00009	8b 4d f0	 mov	 ecx, DWORD PTR _this$[ebp]
  0000c	83 c1 14	 add	 ecx, 20			; 00000014H
  0000f	ff 25 00 00 00
	00		 jmp	 DWORD PTR __imp_??1ioHashString@@QAE@XZ
__ehhandler$??0StGrapInfo@ioGrapplingBlowLoopSkill@@QAE@XZ:
  00015	8b 54 24 08	 mov	 edx, DWORD PTR [esp+8]
  00019	8d 42 0c	 lea	 eax, DWORD PTR [edx+12]
  0001c	8b 4a ec	 mov	 ecx, DWORD PTR [edx-20]
  0001f	33 c8		 xor	 ecx, eax
  00021	e8 00 00 00 00	 call	 @__security_check_cookie@4
  00026	b8 00 00 00 00	 mov	 eax, OFFSET __ehfuncinfo$??0StGrapInfo@ioGrapplingBlowLoopSkill@@QAE@XZ
  0002b	e9 00 00 00 00	 jmp	 ___CxxFrameHandler3
text$x	ENDS
??0StGrapInfo@ioGrapplingBlowLoopSkill@@QAE@XZ ENDP	; ioGrapplingBlowLoopSkill::StGrapInfo::StGrapInfo
PUBLIC	??1StGrapInfo@ioGrapplingBlowLoopSkill@@QAE@XZ	; ioGrapplingBlowLoopSkill::StGrapInfo::~StGrapInfo
;	COMDAT xdata$x
xdata$x	SEGMENT
__unwindtable$??1StGrapInfo@ioGrapplingBlowLoopSkill@@QAE@XZ DD 0ffffffffH
	DD	FLAT:__unwindfunclet$??1StGrapInfo@ioGrapplingBlowLoopSkill@@QAE@XZ$0
	DD	00H
	DD	FLAT:__unwindfunclet$??1StGrapInfo@ioGrapplingBlowLoopSkill@@QAE@XZ$1
__ehfuncinfo$??1StGrapInfo@ioGrapplingBlowLoopSkill@@QAE@XZ DD 019930522H
	DD	02H
	DD	FLAT:__unwindtable$??1StGrapInfo@ioGrapplingBlowLoopSkill@@QAE@XZ
	DD	2 DUP(00H)
	DD	2 DUP(00H)
	DD	00H
	DD	01H
; Function compile flags: /Ogsp
xdata$x	ENDS
;	COMDAT ??1StGrapInfo@ioGrapplingBlowLoopSkill@@QAE@XZ
_TEXT	SEGMENT
_this$ = -16						; size = 4
__$EHRec$ = -12						; size = 12
??1StGrapInfo@ioGrapplingBlowLoopSkill@@QAE@XZ PROC	; ioGrapplingBlowLoopSkill::StGrapInfo::~StGrapInfo, COMDAT
; _this$ = ecx
  00000	6a 04		 push	 4
  00002	b8 00 00 00 00	 mov	 eax, __ehhandler$??1StGrapInfo@ioGrapplingBlowLoopSkill@@QAE@XZ
  00007	e8 00 00 00 00	 call	 __EH_prolog3
  0000c	8b f1		 mov	 esi, ecx
  0000e	89 75 f0	 mov	 DWORD PTR _this$[ebp], esi
  00011	8d 4e 30	 lea	 ecx, DWORD PTR [esi+48]
  00014	c7 45 fc 01 00
	00 00		 mov	 DWORD PTR __$EHRec$[ebp+8], 1
  0001b	e8 00 00 00 00	 call	 ??1AttackAttribute@@QAE@XZ
  00020	8b 3d 00 00 00
	00		 mov	 edi, DWORD PTR __imp_??1ioHashString@@QAE@XZ
  00026	8d 4e 14	 lea	 ecx, DWORD PTR [esi+20]
  00029	c6 45 fc 00	 mov	 BYTE PTR __$EHRec$[ebp+8], 0
  0002d	ff d7		 call	 edi
  0002f	83 4d fc ff	 or	 DWORD PTR __$EHRec$[ebp+8], -1
  00033	8b ce		 mov	 ecx, esi
  00035	ff d7		 call	 edi
  00037	e8 00 00 00 00	 call	 __EH_epilog3
  0003c	c3		 ret	 0
_TEXT	ENDS
;	COMDAT text$x
text$x	SEGMENT
__unwindfunclet$??1StGrapInfo@ioGrapplingBlowLoopSkill@@QAE@XZ$0:
  00000	8b 4d f0	 mov	 ecx, DWORD PTR _this$[ebp]
  00003	ff 25 00 00 00
	00		 jmp	 DWORD PTR __imp_??1ioHashString@@QAE@XZ
__unwindfunclet$??1StGrapInfo@ioGrapplingBlowLoopSkill@@QAE@XZ$1:
  00009	8b 4d f0	 mov	 ecx, DWORD PTR _this$[ebp]
  0000c	83 c1 14	 add	 ecx, 20			; 00000014H
  0000f	ff 25 00 00 00
	00		 jmp	 DWORD PTR __imp_??1ioHashString@@QAE@XZ
__ehhandler$??1StGrapInfo@ioGrapplingBlowLoopSkill@@QAE@XZ:
  00015	8b 54 24 08	 mov	 edx, DWORD PTR [esp+8]
  00019	8d 42 0c	 lea	 eax, DWORD PTR [edx+12]
  0001c	8b 4a ec	 mov	 ecx, DWORD PTR [edx-20]
  0001f	33 c8		 xor	 ecx, eax
  00021	e8 00 00 00 00	 call	 @__security_check_cookie@4
  00026	b8 00 00 00 00	 mov	 eax, OFFSET __ehfuncinfo$??1StGrapInfo@ioGrapplingBlowLoopSkill@@QAE@XZ
  0002b	e9 00 00 00 00	 jmp	 ___CxxFrameHandler3
text$x	ENDS
??1StGrapInfo@ioGrapplingBlowLoopSkill@@QAE@XZ ENDP	; ioGrapplingBlowLoopSkill::StGrapInfo::~StGrapInfo
PUBLIC	_szTargetName$GSCopy$
PUBLIC	_this$GSCopy$
PUBLIC	__$ArrayPad$
PUBLIC	?SetSkillGrapplingState@ioGrapplingBlowLoopSkill@@UAE_NPAVioBaseChar@@ABVioHashString@@@Z ; ioGrapplingBlowLoopSkill::SetSkillGrapplingState
EXTRN	?SetSkillGrapplingState@ioBaseChar@@QAEXABVioHashString@@UGrapplingSkillWoundedInfo@@0@Z:PROC ; ioBaseChar::SetSkillGrapplingState
EXTRN	?IsNetworkMode@ioPlayStage@@QAE_NXZ:PROC	; ioPlayStage::IsNetworkMode
EXTRN	?IsNetworkPlaying@P2PNetwork@@YA_NXZ:PROC	; P2PNetwork::IsNetworkPlaying
;	COMDAT xdata$x
; File d:\lost saga for developer\youtube\tutorial\source\src\lsclient\iobasechar.h
xdata$x	SEGMENT
__unwindtable$?SetSkillGrapplingState@ioGrapplingBlowLoopSkill@@UAE_NPAVioBaseChar@@ABVioHashString@@@Z DD 0ffffffffH
	DD	FLAT:__unwindfunclet$?SetSkillGrapplingState@ioGrapplingBlowLoopSkill@@UAE_NPAVioBaseChar@@ABVioHashString@@@Z$0
__ehfuncinfo$?SetSkillGrapplingState@ioGrapplingBlowLoopSkill@@UAE_NPAVioBaseChar@@ABVioHashString@@@Z DD 019930522H
	DD	01H
	DD	FLAT:__unwindtable$?SetSkillGrapplingState@ioGrapplingBlowLoopSkill@@UAE_NPAVioBaseChar@@ABVioHashString@@@Z
	DD	2 DUP(00H)
	DD	2 DUP(00H)
	DD	00H
	DD	01H
; Function compile flags: /Ogsp
; File d:\lost saga for developer\youtube\tutorial\source\src\lsclient\iograpplingblowloopskill.cpp
xdata$x	ENDS
;	COMDAT ?SetSkillGrapplingState@ioGrapplingBlowLoopSkill@@UAE_NPAVioBaseChar@@ABVioHashString@@@Z
_TEXT	SEGMENT
_qtCharRot$551250 = -32840				; size = 16
tv229 = -32824						; size = 4
_this$GSCopy$ = -32820					; size = 4
$T560604 = -32820					; size = 4
_szTargetName$GSCopy$ = -32816				; size = 4
_pTarget$ = -32816					; size = 4
_bNPC$ = -32810						; size = 1
_bAttackerNPC$ = -32809					; size = 1
_kPacket$551240 = -32808				; size = 32792
__$ArrayPad$ = -16					; size = 4
__$EHRec$ = -12						; size = 12
_pChar$ = 8						; size = 4
_szTargetName$ = 12					; size = 4
?SetSkillGrapplingState@ioGrapplingBlowLoopSkill@@UAE_NPAVioBaseChar@@ABVioHashString@@@Z PROC ; ioGrapplingBlowLoopSkill::SetSkillGrapplingState, COMDAT
; _this$ = ecx

; 651  : {

  00000	55		 push	 ebp
  00001	8b ec		 mov	 ebp, esp
  00003	6a ff		 push	 -1
  00005	68 00 00 00 00	 push	 __ehhandler$?SetSkillGrapplingState@ioGrapplingBlowLoopSkill@@UAE_NPAVioBaseChar@@ABVioHashString@@@Z
  0000a	64 a1 00 00 00
	00		 mov	 eax, DWORD PTR fs:0
  00010	50		 push	 eax
  00011	b8 3c 80 00 00	 mov	 eax, 32828		; 0000803cH
  00016	e8 00 00 00 00	 call	 __chkstk
  0001b	a1 00 00 00 00	 mov	 eax, DWORD PTR ___security_cookie
  00020	33 c5		 xor	 eax, ebp
  00022	89 45 f0	 mov	 DWORD PTR __$ArrayPad$[ebp], eax
  00025	53		 push	 ebx
  00026	56		 push	 esi
  00027	57		 push	 edi
  00028	50		 push	 eax
  00029	8d 45 f4	 lea	 eax, DWORD PTR __$EHRec$[ebp]
  0002c	64 a3 00 00 00
	00		 mov	 DWORD PTR fs:0, eax
  00032	8b 5d 08	 mov	 ebx, DWORD PTR _pChar$[ebp]
  00035	8b 45 0c	 mov	 eax, DWORD PTR _szTargetName$[ebp]
  00038	8b f9		 mov	 edi, ecx

; 691  : 	{
; 692  : 		D3DXQUATERNION qtCharRot = pChar->GetTargetRot();

  0003a	89 bd cc 7f ff
	ff		 mov	 DWORD PTR _this$GSCopy$[ebp], edi
  00040	89 85 d0 7f ff
	ff		 mov	 DWORD PTR _szTargetName$GSCopy$[ebp], eax
  00046	85 db		 test	 ebx, ebx
  00048	75 07		 jne	 SHORT $LN9@SetSkillGr
$LN30@SetSkillGr:

; 652  : 	if( !pChar ) return false;

  0004a	32 c0		 xor	 al, al
  0004c	e9 95 01 00 00	 jmp	 $LN10@SetSkillGr
$LN9@SetSkillGr:

; 653  : 	if( m_SkillState != SS_ACTION )		return false;

  00051	83 bf fc 10 00
	00 02		 cmp	 DWORD PTR [edi+4348], 2
  00058	75 f0		 jne	 SHORT $LN30@SetSkillGr

; 654  : 
; 655  : 	// 충돌처리 후 체크된 타겟을 m_GrapplingTargetName로 지정한다.
; 656  : 	m_GrapplingTargetName = szTargetName;

  0005a	8d 8f 70 11 00
	00		 lea	 ecx, DWORD PTR [edi+4464]
  00060	50		 push	 eax
  00061	89 8d c8 7f ff
	ff		 mov	 DWORD PTR tv229[ebp], ecx
  00067	ff 15 00 00 00
	00		 call	 DWORD PTR __imp_??4ioHashString@@QAEAAV0@ABV0@@Z

; 657  : 
; 658  : 	//SetSkillLoopState( pChar );
; 659  : 	SetSkillLoopState_MultiJump( pChar, m_nCurJumpCnt );

  0006d	ff b7 e8 10 00
	00		 push	 DWORD PTR [edi+4328]
  00073	8b cf		 mov	 ecx, edi
  00075	53		 push	 ebx
  00076	e8 00 00 00 00	 call	 ?SetSkillLoopState_MultiJump@ioGrapplingBlowLoopSkill@@IAEXPAVioBaseChar@@H@Z ; ioGrapplingBlowLoopSkill::SetSkillLoopState_MultiJump

; 660  : 	m_nCurJumpCnt++;

  0007b	ff 87 e8 10 00
	00		 inc	 DWORD PTR [edi+4328]

; 661  : 
; 662  : 	if( pChar->IsNeedSendNetwork() )

  00081	8b 03		 mov	 eax, DWORD PTR [ebx]
  00083	8b cb		 mov	 ecx, ebx
  00085	ff 90 04 01 00
	00		 call	 DWORD PTR [eax+260]
  0008b	84 c0		 test	 al, al
  0008d	0f 84 84 00 00
	00		 je	 $LN7@SetSkillGr

; 663  : 	{
; 664  : 		SP2Packet kPacket( CUPK_SKILL_EXTRA_INFO );

  00093	68 39 41 00 00	 push	 16697			; 00004139H
  00098	8d 8d d8 7f ff
	ff		 lea	 ecx, DWORD PTR _kPacket$551240[ebp]
  0009e	e8 00 00 00 00	 call	 ??0SP2Packet@@QAE@K@Z	; SP2Packet::SP2Packet
  000a3	83 65 fc 00	 and	 DWORD PTR __$EHRec$[ebp+8], 0

; 665  : 		kPacket << pChar->GetCharName();

  000a7	8d 83 d4 02 00
	00		 lea	 eax, DWORD PTR [ebx+724]
  000ad	50		 push	 eax
  000ae	8d 8d d8 7f ff
	ff		 lea	 ecx, DWORD PTR _kPacket$551240[ebp]
  000b4	e8 00 00 00 00	 call	 ??6SP2Packet@@QAEAAV0@ABVioHashString@@@Z ; SP2Packet::operator<<

; 666  : 		kPacket << GetName();

  000b9	83 c7 24	 add	 edi, 36			; 00000024H
  000bc	57		 push	 edi
  000bd	8d 8d d8 7f ff
	ff		 lea	 ecx, DWORD PTR _kPacket$551240[ebp]
  000c3	e8 00 00 00 00	 call	 ??6SP2Packet@@QAEAAV0@ABVioHashString@@@Z ; SP2Packet::operator<<

; 667  : 		kPacket << SS_LOOP;

  000c8	6a 03		 push	 3
  000ca	8d 8d d8 7f ff
	ff		 lea	 ecx, DWORD PTR _kPacket$551240[ebp]
  000d0	e8 00 00 00 00	 call	 ??6SP2Packet@@QAEAAV0@H@Z ; SP2Packet::operator<<

; 668  : 		kPacket << pChar->GetTargetRot();

  000d5	8d 83 a4 06 00
	00		 lea	 eax, DWORD PTR [ebx+1700]
  000db	50		 push	 eax
  000dc	8d 8d d8 7f ff
	ff		 lea	 ecx, DWORD PTR _kPacket$551240[ebp]
  000e2	e8 00 00 00 00	 call	 ??6SP2Packet@@QAEAAV0@ABUD3DXQUATERNION@@@Z ; SP2Packet::operator<<

; 669  : 		kPacket << szTargetName;

  000e7	ff b5 d0 7f ff
	ff		 push	 DWORD PTR _szTargetName$GSCopy$[ebp]
  000ed	8d 8d d8 7f ff
	ff		 lea	 ecx, DWORD PTR _kPacket$551240[ebp]
  000f3	e8 00 00 00 00	 call	 ??6SP2Packet@@QAEAAV0@ABVioHashString@@@Z ; SP2Packet::operator<<

; 670  : 		P2PNetwork::SendToAllPlayingUser( kPacket );

  000f8	8d 85 d8 7f ff
	ff		 lea	 eax, DWORD PTR _kPacket$551240[ebp]
  000fe	6a 00		 push	 0
  00100	50		 push	 eax
  00101	e8 00 00 00 00	 call	 ?SendToAllPlayingUser@P2PNetwork@@YAXAAVSP2Packet@@PAVioBaseChar@@@Z ; P2PNetwork::SendToAllPlayingUser

; 671  : 	}

  00106	83 4d fc ff	 or	 DWORD PTR __$EHRec$[ebp+8], -1
  0010a	59		 pop	 ecx
  0010b	59		 pop	 ecx
  0010c	8d 8d d8 7f ff
	ff		 lea	 ecx, DWORD PTR _kPacket$551240[ebp]
  00112	e8 00 00 00 00	 call	 ??1SP2Packet@@UAE@XZ	; SP2Packet::~SP2Packet
$LN7@SetSkillGr:

; 672  : 
; 673  : 	ioBaseChar *pTarget = pChar->GetBaseChar( m_GrapplingTargetName );

  00117	ff b5 c8 7f ff
	ff		 push	 DWORD PTR tv229[ebp]
  0011d	8b cb		 mov	 ecx, ebx
  0011f	e8 00 00 00 00	 call	 ?GetBaseChar@ioBaseChar@@QAEPAV1@ABVioHashString@@@Z ; ioBaseChar::GetBaseChar
  00124	89 85 d0 7f ff
	ff		 mov	 DWORD PTR _pTarget$[ebp], eax

; 674  : 	if( !pTarget ) return false;

  0012a	85 c0		 test	 eax, eax
  0012c	0f 84 18 ff ff
	ff		 je	 $LN30@SetSkillGr

; 675  : 
; 676  : 	// for NPC
; 677  : 	bool bNPC = false;
; 678  : 	bool bAttackerNPC = false;
; 679  : 	if( ToNpcChar( pTarget ) )

  00132	50		 push	 eax
  00133	c6 85 d6 7f ff
	ff 00		 mov	 BYTE PTR _bNPC$[ebp], 0
  0013a	c6 85 d7 7f ff
	ff 00		 mov	 BYTE PTR _bAttackerNPC$[ebp], 0
  00141	e8 00 00 00 00	 call	 ?ToNpcChar@@YAPAVioNpcChar@@PAVioGameEntity@@@Z ; ToNpcChar
  00146	59		 pop	 ecx
  00147	85 c0		 test	 eax, eax
  00149	74 07		 je	 SHORT $LN5@SetSkillGr

; 680  : 	{
; 681  : 		bNPC = true;

  0014b	c6 85 d6 7f ff
	ff 01		 mov	 BYTE PTR _bNPC$[ebp], 1
$LN5@SetSkillGr:

; 682  : 	}
; 683  : 
; 684  : 	if( ToNpcChar( pChar ) )

  00152	53		 push	 ebx
  00153	e8 00 00 00 00	 call	 ?ToNpcChar@@YAPAVioNpcChar@@PAVioGameEntity@@@Z ; ToNpcChar
  00158	59		 pop	 ecx
  00159	85 c0		 test	 eax, eax
  0015b	74 07		 je	 SHORT $LN4@SetSkillGr

; 685  : 	{
; 686  : 		bAttackerNPC = true;

  0015d	c6 85 d7 7f ff
	ff 01		 mov	 BYTE PTR _bAttackerNPC$[ebp], 1
$LN4@SetSkillGr:

; 687  : 	}
; 688  : 
; 689  : 	// local or 훈련소 or NPC
; 690  : 	if( !P2PNetwork::IsNetworkPlaying() || !pChar->GetCreator()->IsNetworkMode() || (bNPC || bAttackerNPC) )

  00164	e8 00 00 00 00	 call	 ?IsNetworkPlaying@P2PNetwork@@YA_NXZ ; P2PNetwork::IsNetworkPlaying
  00169	84 c0		 test	 al, al
  0016b	74 21		 je	 SHORT $LN1@SetSkillGr
  0016d	8b 8b 44 03 00
	00		 mov	 ecx, DWORD PTR [ebx+836]
  00173	e8 00 00 00 00	 call	 ?IsNetworkMode@ioPlayStage@@QAE_NXZ ; ioPlayStage::IsNetworkMode
  00178	84 c0		 test	 al, al
  0017a	74 12		 je	 SHORT $LN1@SetSkillGr
  0017c	80 bd d6 7f ff
	ff 00		 cmp	 BYTE PTR _bNPC$[ebp], 0
  00183	75 09		 jne	 SHORT $LN1@SetSkillGr
  00185	80 bd d7 7f ff
	ff 00		 cmp	 BYTE PTR _bAttackerNPC$[ebp], 0
  0018c	74 56		 je	 SHORT $LN3@SetSkillGr
$LN1@SetSkillGr:

; 693  : 		pTarget->SetTargetRotToRotate( qtCharRot, true, false );

  0018e	8b 8d d0 7f ff
	ff		 mov	 ecx, DWORD PTR _pTarget$[ebp]
  00194	8d b3 a4 06 00
	00		 lea	 esi, DWORD PTR [ebx+1700]
  0019a	8d bd b8 7f ff
	ff		 lea	 edi, DWORD PTR _qtCharRot$551250[ebp]
  001a0	a5		 movsd
  001a1	a5		 movsd
  001a2	6a 00		 push	 0
  001a4	a5		 movsd
  001a5	6a 01		 push	 1
  001a7	8d 85 b8 7f ff
	ff		 lea	 eax, DWORD PTR _qtCharRot$551250[ebp]
  001ad	50		 push	 eax
  001ae	a5		 movsd
  001af	e8 00 00 00 00	 call	 ?SetTargetRotToRotate@ioBaseChar@@QAEXABUD3DXQUATERNION@@_N1@Z ; ioBaseChar::SetTargetRotToRotate

; 694  : 		pTarget->SetSkillGrapplingState( pChar->GetCharName(), GetSkillWoundGrapplingInfo(), GetName() );

  001b4	8b 8d cc 7f ff
	ff		 mov	 ecx, DWORD PTR _this$GSCopy$[ebp]
  001ba	8d 41 24	 lea	 eax, DWORD PTR [ecx+36]
  001bd	50		 push	 eax
  001be	8b 01		 mov	 eax, DWORD PTR [ecx]
  001c0	83 ec 5c	 sub	 esp, 92			; 0000005cH
  001c3	8b d4		 mov	 edx, esp
  001c5	89 a5 cc 7f ff
	ff		 mov	 DWORD PTR $T560604[ebp], esp
  001cb	52		 push	 edx
  001cc	ff 90 a4 00 00
	00		 call	 DWORD PTR [eax+164]
  001d2	8b 8d d0 7f ff
	ff		 mov	 ecx, DWORD PTR _pTarget$[ebp]
  001d8	81 c3 d4 02 00
	00		 add	 ebx, 724		; 000002d4H
  001de	53		 push	 ebx
  001df	e8 00 00 00 00	 call	 ?SetSkillGrapplingState@ioBaseChar@@QAEXABVioHashString@@UGrapplingSkillWoundedInfo@@0@Z ; ioBaseChar::SetSkillGrapplingState
$LN3@SetSkillGr:

; 695  : 	}
; 696  : 
; 697  : 	return true;

  001e4	b0 01		 mov	 al, 1
$LN10@SetSkillGr:

; 698  : }

  001e6	8b 4d f4	 mov	 ecx, DWORD PTR __$EHRec$[ebp]
  001e9	64 89 0d 00 00
	00 00		 mov	 DWORD PTR fs:0, ecx
  001f0	59		 pop	 ecx
  001f1	5f		 pop	 edi
  001f2	5e		 pop	 esi
  001f3	5b		 pop	 ebx
  001f4	8b 4d f0	 mov	 ecx, DWORD PTR __$ArrayPad$[ebp]
  001f7	33 cd		 xor	 ecx, ebp
  001f9	e8 00 00 00 00	 call	 @__security_check_cookie@4
  001fe	c9		 leave
  001ff	c2 08 00	 ret	 8
_TEXT	ENDS
;	COMDAT text$x
text$x	SEGMENT
__unwindfunclet$?SetSkillGrapplingState@ioGrapplingBlowLoopSkill@@UAE_NPAVioBaseChar@@ABVioHashString@@@Z$0:
  00000	8d 8d d8 7f ff
	ff		 lea	 ecx, DWORD PTR _kPacket$551240[ebp]
  00006	e9 00 00 00 00	 jmp	 ??1SP2Packet@@UAE@XZ	; SP2Packet::~SP2Packet
__ehhandler$?SetSkillGrapplingState@ioGrapplingBlowLoopSkill@@UAE_NPAVioBaseChar@@ABVioHashString@@@Z:
  0000b	8b 54 24 08	 mov	 edx, DWORD PTR [esp+8]
  0000f	8d 42 0c	 lea	 eax, DWORD PTR [edx+12]
  00012	8b 8a b4 7f ff
	ff		 mov	 ecx, DWORD PTR [edx-32844]
  00018	33 c8		 xor	 ecx, eax
  0001a	e8 00 00 00 00	 call	 @__security_check_cookie@4
  0001f	8b 4a fc	 mov	 ecx, DWORD PTR [edx-4]
  00022	33 c8		 xor	 ecx, eax
  00024	e8 00 00 00 00	 call	 @__security_check_cookie@4
  00029	b8 00 00 00 00	 mov	 eax, OFFSET __ehfuncinfo$?SetSkillGrapplingState@ioGrapplingBlowLoopSkill@@UAE_NPAVioBaseChar@@ABVioHashString@@@Z
  0002e	e9 00 00 00 00	 jmp	 ___CxxFrameHandler3
text$x	ENDS
?SetSkillGrapplingState@ioGrapplingBlowLoopSkill@@UAE_NPAVioBaseChar@@ABVioHashString@@@Z ENDP ; ioGrapplingBlowLoopSkill::SetSkillGrapplingState
PUBLIC	_pStage$GSCopy$
PUBLIC	?ApplyExtraSkillInfo@ioGrapplingBlowLoopSkill@@UAEXPAVioBaseChar@@PAVioPlayStage@@AAVSP2Packet@@@Z ; ioGrapplingBlowLoopSkill::ApplyExtraSkillInfo
EXTRN	??5SP2Packet@@QAEAAV0@AAVioHashString@@@Z:PROC	; SP2Packet::operator>>
EXTRN	??5SP2Packet@@QAEAAV0@AAUD3DXVECTOR3@@@Z:PROC	; SP2Packet::operator>>
EXTRN	??5SP2Packet@@QAEAAV0@AAUD3DXQUATERNION@@@Z:PROC ; SP2Packet::operator>>
EXTRN	??5SP2Packet@@QAEAAV0@AAH@Z:PROC		; SP2Packet::operator>>
;	COMDAT xdata$x
; File c:\program files (x86)\microsoft directx sdk (june 2010)\include\d3dx9math.h
xdata$x	SEGMENT
__unwindtable$?ApplyExtraSkillInfo@ioGrapplingBlowLoopSkill@@UAEXPAVioBaseChar@@PAVioPlayStage@@AAVSP2Packet@@@Z DD 0ffffffffH
	DD	FLAT:__unwindfunclet$?ApplyExtraSkillInfo@ioGrapplingBlowLoopSkill@@UAEXPAVioBaseChar@@PAVioPlayStage@@AAVSP2Packet@@@Z$0
__ehfuncinfo$?ApplyExtraSkillInfo@ioGrapplingBlowLoopSkill@@UAEXPAVioBaseChar@@PAVioPlayStage@@AAVSP2Packet@@@Z DD 019930522H
	DD	01H
	DD	FLAT:__unwindtable$?ApplyExtraSkillInfo@ioGrapplingBlowLoopSkill@@UAEXPAVioBaseChar@@PAVioPlayStage@@AAVSP2Packet@@@Z
	DD	2 DUP(00H)
	DD	2 DUP(00H)
	DD	00H
	DD	01H
; Function compile flags: /Ogsp
; File d:\lost saga for developer\youtube\tutorial\source\src\lsclient\iograpplingblowloopskill.cpp
xdata$x	ENDS
;	COMDAT ?ApplyExtraSkillInfo@ioGrapplingBlowLoopSkill@@UAEXPAVioBaseChar@@PAVioPlayStage@@AAVSP2Packet@@@Z
_TEXT	SEGMENT
_qtCharRot$ = -56					; size = 16
_iState$ = -40						; size = 4
_pStage$GSCopy$ = -36					; size = 4
_nKey$551307 = -36					; size = 4
$T560643 = -36						; size = 4
_szTargetName$551297 = -32				; size = 16
_vPos$551304 = -28					; size = 12
__$EHRec$ = -12						; size = 12
_pChar$ = 8						; size = 4
_pStage$ = 12						; size = 4
_rkPacket$ = 16						; size = 4
?ApplyExtraSkillInfo@ioGrapplingBlowLoopSkill@@UAEXPAVioBaseChar@@PAVioPlayStage@@AAVSP2Packet@@@Z PROC ; ioGrapplingBlowLoopSkill::ApplyExtraSkillInfo, COMDAT
; _this$ = ecx

; 746  : {

  00000	6a 2c		 push	 44			; 0000002cH
  00002	b8 00 00 00 00	 mov	 eax, __ehhandler$?ApplyExtraSkillInfo@ioGrapplingBlowLoopSkill@@UAEXPAVioBaseChar@@PAVioPlayStage@@AAVSP2Packet@@@Z
  00007	e8 00 00 00 00	 call	 __EH_prolog3_GS
  0000c	8b 5d 08	 mov	 ebx, DWORD PTR _pChar$[ebp]
  0000f	8b 45 0c	 mov	 eax, DWORD PTR _pStage$[ebp]
  00012	8b 7d 10	 mov	 edi, DWORD PTR _rkPacket$[ebp]
  00015	8b f1		 mov	 esi, ecx

; 759  : 	{
; 760  : 	case SS_ACTION:
; 761  : 		{
; 762  : 			AttackSkillFire( pChar );

  00017	89 45 dc	 mov	 DWORD PTR _pStage$GSCopy$[ebp], eax
  0001a	85 db		 test	 ebx, ebx
  0001c	0f 84 56 01 00
	00		 je	 $LN9@ApplyExtra

; 747  : 	if( !pChar ) return;
; 748  : 	if( !pStage ) return;

  00022	85 c0		 test	 eax, eax
  00024	0f 84 4e 01 00
	00		 je	 $LN9@ApplyExtra

; 749  : 
; 750  : 	int iState;
; 751  : 	rkPacket >> iState;

  0002a	8d 45 d8	 lea	 eax, DWORD PTR _iState$[ebp]
  0002d	50		 push	 eax
  0002e	8b cf		 mov	 ecx, edi
  00030	e8 00 00 00 00	 call	 ??5SP2Packet@@QAEAAV0@AAH@Z ; SP2Packet::operator>>

; 752  : 
; 753  : 	D3DXQUATERNION qtCharRot;
; 754  : 	rkPacket >> qtCharRot;

  00035	8d 45 c8	 lea	 eax, DWORD PTR _qtCharRot$[ebp]
  00038	50		 push	 eax
  00039	8b cf		 mov	 ecx, edi
  0003b	e8 00 00 00 00	 call	 ??5SP2Packet@@QAEAAV0@AAUD3DXQUATERNION@@@Z ; SP2Packet::operator>>

; 755  : 
; 756  : 	pChar->SetTargetRotToRotate( qtCharRot, true, false );

  00040	6a 00		 push	 0
  00042	6a 01		 push	 1
  00044	8d 45 c8	 lea	 eax, DWORD PTR _qtCharRot$[ebp]
  00047	50		 push	 eax
  00048	8b cb		 mov	 ecx, ebx
  0004a	e8 00 00 00 00	 call	 ?SetTargetRotToRotate@ioBaseChar@@QAEXABUD3DXQUATERNION@@_N1@Z ; ioBaseChar::SetTargetRotToRotate

; 757  : 
; 758  : 	switch( iState )

  0004f	8b 45 d8	 mov	 eax, DWORD PTR _iState$[ebp]
  00052	48		 dec	 eax
  00053	48		 dec	 eax
  00054	0f 84 13 01 00
	00		 je	 $LN8@ApplyExtra
  0005a	48		 dec	 eax
  0005b	74 7b		 je	 SHORT $LN7@ApplyExtra
  0005d	48		 dec	 eax
  0005e	48		 dec	 eax
  0005f	74 68		 je	 SHORT $LN1@ApplyExtra
  00061	83 e8 03	 sub	 eax, 3
  00064	74 34		 je	 SHORT $LN4@ApplyExtra
  00066	48		 dec	 eax
  00067	0f 85 0b 01 00
	00		 jne	 $LN9@ApplyExtra

; 793  : 	case SS_KEY_CHANGE:
; 794  : 		{
; 795  : 			int nKey;
; 796  : 			rkPacket >> nKey;

  0006d	8d 45 dc	 lea	 eax, DWORD PTR _nKey$551307[ebp]
  00070	50		 push	 eax
  00071	8b cf		 mov	 ecx, edi
  00073	e8 00 00 00 00	 call	 ??5SP2Packet@@QAEAAV0@AAH@Z ; SP2Packet::operator>>

; 797  : 			m_PreDirKey = (ioUserKeyInput::DirKeyInput)nKey;

  00078	8b 45 dc	 mov	 eax, DWORD PTR _nKey$551307[ebp]
  0007b	89 86 4c 12 00
	00		 mov	 DWORD PTR [esi+4684], eax

; 798  : 			rkPacket >> nKey;

  00081	8d 45 dc	 lea	 eax, DWORD PTR _nKey$551307[ebp]
  00084	50		 push	 eax
  00085	8b cf		 mov	 ecx, edi
  00087	e8 00 00 00 00	 call	 ??5SP2Packet@@QAEAAV0@AAH@Z ; SP2Packet::operator>>

; 799  : 			m_CurDirKey = (ioUserKeyInput::DirKeyInput)nKey;

  0008c	8b 45 dc	 mov	 eax, DWORD PTR _nKey$551307[ebp]
  0008f	89 86 48 12 00
	00		 mov	 DWORD PTR [esi+4680], eax

; 800  : 		}
; 801  : 		break;

  00095	e9 de 00 00 00	 jmp	 $LN9@ApplyExtra
$LN4@ApplyExtra:

; 781  : 	case SS_PRE_LOOP:
; 782  : 		break;
; 783  : 	case SS_JUMP_RESERVED:
; 784  : 		{
; 785  : 			D3DXVECTOR3 vPos;
; 786  : 			rkPacket >> vPos;

  0009a	8d 45 e4	 lea	 eax, DWORD PTR _vPos$551304[ebp]
  0009d	50		 push	 eax
  0009e	8b cf		 mov	 ecx, edi
  000a0	e8 00 00 00 00	 call	 ??5SP2Packet@@QAEAAV0@AAUD3DXVECTOR3@@@Z ; SP2Packet::operator>>

; 787  : 			m_bReserveJumping = true;
; 788  : 			if( m_SkillState == SS_LAND_ATTACK )

  000a5	83 be fc 10 00
	00 04		 cmp	 DWORD PTR [esi+4348], 4
  000ac	c6 86 54 12 00
	00 01		 mov	 BYTE PTR [esi+4692], 1
  000b3	0f 85 bf 00 00
	00		 jne	 $LN9@ApplyExtra

; 789  : 				pChar->SetWorldPosition( vPos );

  000b9	8b 03		 mov	 eax, DWORD PTR [ebx]
  000bb	8d 4d e4	 lea	 ecx, DWORD PTR _vPos$551304[ebp]
  000be	51		 push	 ecx
  000bf	8b cb		 mov	 ecx, ebx
  000c1	ff 50 44	 call	 DWORD PTR [eax+68]

; 790  : 		}
; 791  : 
; 792  : 		break;

  000c4	e9 af 00 00 00	 jmp	 $LN9@ApplyExtra
$LN1@ApplyExtra:

; 802  : 	case SS_END:
; 803  : 		SetSkillEndState(  pChar, false );

  000c9	6a 00		 push	 0
  000cb	53		 push	 ebx
  000cc	8b ce		 mov	 ecx, esi
  000ce	e8 00 00 00 00	 call	 ?SetSkillEndState@ioGrapplingBlowLoopSkill@@IAEXPAVioBaseChar@@_N@Z ; ioGrapplingBlowLoopSkill::SetSkillEndState

; 804  : 		break;

  000d3	e9 a0 00 00 00	 jmp	 $LN9@ApplyExtra
$LN7@ApplyExtra:

; 763  : 		}
; 764  : 		break;
; 765  : 	case SS_LOOP:
; 766  : 		{
; 767  : 			ioHashString szTargetName;

  000d8	8d 4d e0	 lea	 ecx, DWORD PTR _szTargetName$551297[ebp]
  000db	ff 15 00 00 00
	00		 call	 DWORD PTR __imp_??0ioHashString@@QAE@XZ
  000e1	83 65 fc 00	 and	 DWORD PTR __$EHRec$[ebp+8], 0

; 768  : 			rkPacket >> m_GrapplingTargetName;

  000e5	8d 86 70 11 00
	00		 lea	 eax, DWORD PTR [esi+4464]
  000eb	50		 push	 eax
  000ec	8b cf		 mov	 ecx, edi
  000ee	e8 00 00 00 00	 call	 ??5SP2Packet@@QAEAAV0@AAVioHashString@@@Z ; SP2Packet::operator>>

; 769  : 
; 770  : 			SetSkillLoopState_MultiJump( pChar, m_nCurJumpCnt );

  000f3	ff b6 e8 10 00
	00		 push	 DWORD PTR [esi+4328]
  000f9	8b ce		 mov	 ecx, esi
  000fb	53		 push	 ebx
  000fc	e8 00 00 00 00	 call	 ?SetSkillLoopState_MultiJump@ioGrapplingBlowLoopSkill@@IAEXPAVioBaseChar@@H@Z ; ioGrapplingBlowLoopSkill::SetSkillLoopState_MultiJump

; 771  : 			m_nCurJumpCnt++;
; 772  : 
; 773  : 			ioBaseChar *pTarget = pStage->GetBaseChar( m_GrapplingTargetName );

  00101	8b 4d dc	 mov	 ecx, DWORD PTR _pStage$GSCopy$[ebp]
  00104	ff 86 e8 10 00
	00		 inc	 DWORD PTR [esi+4328]
  0010a	8d 86 70 11 00
	00		 lea	 eax, DWORD PTR [esi+4464]
  00110	50		 push	 eax
  00111	e8 00 00 00 00	 call	 ?GetBaseChar@ioPlayStage@@QAEPAVioBaseChar@@ABVioHashString@@@Z ; ioPlayStage::GetBaseChar
  00116	8b f8		 mov	 edi, eax

; 774  : 			if( pTarget && pTarget->IsNeedProcess() )

  00118	85 ff		 test	 edi, edi
  0011a	74 42		 je	 SHORT $LN6@ApplyExtra
  0011c	8b 07		 mov	 eax, DWORD PTR [edi]
  0011e	8b cf		 mov	 ecx, edi
  00120	ff 90 00 01 00
	00		 call	 DWORD PTR [eax+256]
  00126	84 c0		 test	 al, al
  00128	74 34		 je	 SHORT $LN6@ApplyExtra

; 775  : 			{
; 776  : 				pTarget->SetTargetRotToRotate( qtCharRot, true, false );

  0012a	6a 00		 push	 0
  0012c	6a 01		 push	 1
  0012e	8d 45 c8	 lea	 eax, DWORD PTR _qtCharRot$[ebp]
  00131	50		 push	 eax
  00132	8b cf		 mov	 ecx, edi
  00134	e8 00 00 00 00	 call	 ?SetTargetRotToRotate@ioBaseChar@@QAEXABUD3DXQUATERNION@@_N1@Z ; ioBaseChar::SetTargetRotToRotate

; 777  : 				pTarget->SetSkillGrapplingState( pChar->GetCharName(), GetSkillWoundGrapplingInfo(), GetName() );

  00139	8d 46 24	 lea	 eax, DWORD PTR [esi+36]
  0013c	50		 push	 eax
  0013d	8b 06		 mov	 eax, DWORD PTR [esi]
  0013f	83 ec 5c	 sub	 esp, 92			; 0000005cH
  00142	8b cc		 mov	 ecx, esp
  00144	89 65 dc	 mov	 DWORD PTR $T560643[ebp], esp
  00147	51		 push	 ecx
  00148	8b ce		 mov	 ecx, esi
  0014a	ff 90 a4 00 00
	00		 call	 DWORD PTR [eax+164]
  00150	81 c3 d4 02 00
	00		 add	 ebx, 724		; 000002d4H
  00156	53		 push	 ebx
  00157	8b cf		 mov	 ecx, edi
  00159	e8 00 00 00 00	 call	 ?SetSkillGrapplingState@ioBaseChar@@QAEXABVioHashString@@UGrapplingSkillWoundedInfo@@0@Z ; ioBaseChar::SetSkillGrapplingState
$LN6@ApplyExtra:

; 778  : 			}
; 779  : 		}

  0015e	83 4d fc ff	 or	 DWORD PTR __$EHRec$[ebp+8], -1
  00162	8d 4d e0	 lea	 ecx, DWORD PTR _szTargetName$551297[ebp]
  00165	ff 15 00 00 00
	00		 call	 DWORD PTR __imp_??1ioHashString@@QAE@XZ

; 780  : 		break;

  0016b	eb 0b		 jmp	 SHORT $LN9@ApplyExtra
$LN8@ApplyExtra:

; 759  : 	{
; 760  : 	case SS_ACTION:
; 761  : 		{
; 762  : 			AttackSkillFire( pChar );

  0016d	8b 06		 mov	 eax, DWORD PTR [esi]
  0016f	53		 push	 ebx
  00170	8b ce		 mov	 ecx, esi
  00172	ff 90 8c 01 00
	00		 call	 DWORD PTR [eax+396]
$LN9@ApplyExtra:

; 805  : 	}
; 806  : }

  00178	e8 00 00 00 00	 call	 __EH_epilog3_GS
  0017d	c2 0c 00	 ret	 12			; 0000000cH
_TEXT	ENDS
;	COMDAT text$x
text$x	SEGMENT
__unwindfunclet$?ApplyExtraSkillInfo@ioGrapplingBlowLoopSkill@@UAEXPAVioBaseChar@@PAVioPlayStage@@AAVSP2Packet@@@Z$0:
  00000	8d 4d e0	 lea	 ecx, DWORD PTR _szTargetName$551297[ebp]
  00003	ff 25 00 00 00
	00		 jmp	 DWORD PTR __imp_??1ioHashString@@QAE@XZ
__ehhandler$?ApplyExtraSkillInfo@ioGrapplingBlowLoopSkill@@UAEXPAVioBaseChar@@PAVioPlayStage@@AAVSP2Packet@@@Z:
  00009	8b 54 24 08	 mov	 edx, DWORD PTR [esp+8]
  0000d	8d 42 0c	 lea	 eax, DWORD PTR [edx+12]
  00010	8b 4a c4	 mov	 ecx, DWORD PTR [edx-60]
  00013	33 c8		 xor	 ecx, eax
  00015	e8 00 00 00 00	 call	 @__security_check_cookie@4
  0001a	8b 4a fc	 mov	 ecx, DWORD PTR [edx-4]
  0001d	33 c8		 xor	 ecx, eax
  0001f	e8 00 00 00 00	 call	 @__security_check_cookie@4
  00024	b8 00 00 00 00	 mov	 eax, OFFSET __ehfuncinfo$?ApplyExtraSkillInfo@ioGrapplingBlowLoopSkill@@UAEXPAVioBaseChar@@PAVioPlayStage@@AAVSP2Packet@@@Z
  00029	e9 00 00 00 00	 jmp	 ___CxxFrameHandler3
text$x	ENDS
?ApplyExtraSkillInfo@ioGrapplingBlowLoopSkill@@UAEXPAVioBaseChar@@PAVioPlayStage@@AAVSP2Packet@@@Z ENDP ; ioGrapplingBlowLoopSkill::ApplyExtraSkillInfo
PUBLIC	??0StGrapInfo@ioGrapplingBlowLoopSkill@@QAE@ABU01@@Z ; ioGrapplingBlowLoopSkill::StGrapInfo::StGrapInfo
;	COMDAT xdata$x
xdata$x	SEGMENT
__unwindtable$??0StGrapInfo@ioGrapplingBlowLoopSkill@@QAE@ABU01@@Z DD 0ffffffffH
	DD	FLAT:__unwindfunclet$??0StGrapInfo@ioGrapplingBlowLoopSkill@@QAE@ABU01@@Z$0
	DD	00H
	DD	FLAT:__unwindfunclet$??0StGrapInfo@ioGrapplingBlowLoopSkill@@QAE@ABU01@@Z$1
__ehfuncinfo$??0StGrapInfo@ioGrapplingBlowLoopSkill@@QAE@ABU01@@Z DD 019930522H
	DD	02H
	DD	FLAT:__unwindtable$??0StGrapInfo@ioGrapplingBlowLoopSkill@@QAE@ABU01@@Z
	DD	2 DUP(00H)
	DD	2 DUP(00H)
	DD	00H
	DD	01H
; Function compile flags: /Ogsp
xdata$x	ENDS
;	COMDAT ??0StGrapInfo@ioGrapplingBlowLoopSkill@@QAE@ABU01@@Z
_TEXT	SEGMENT
_this$ = -16						; size = 4
__$EHRec$ = -12						; size = 12
___that$ = 8						; size = 4
??0StGrapInfo@ioGrapplingBlowLoopSkill@@QAE@ABU01@@Z PROC ; ioGrapplingBlowLoopSkill::StGrapInfo::StGrapInfo, COMDAT
; _this$ = ecx
  00000	6a 04		 push	 4
  00002	b8 00 00 00 00	 mov	 eax, __ehhandler$??0StGrapInfo@ioGrapplingBlowLoopSkill@@QAE@ABU01@@Z
  00007	e8 00 00 00 00	 call	 __EH_prolog3
  0000c	8b f1		 mov	 esi, ecx
  0000e	89 75 f0	 mov	 DWORD PTR _this$[ebp], esi
  00011	8b 7d 08	 mov	 edi, DWORD PTR ___that$[ebp]
  00014	8b 1d 00 00 00
	00		 mov	 ebx, DWORD PTR __imp_??0ioHashString@@QAE@ABV0@@Z
  0001a	57		 push	 edi
  0001b	ff d3		 call	 ebx
  0001d	d9 47 10	 fld	 DWORD PTR [edi+16]
  00020	83 65 fc 00	 and	 DWORD PTR __$EHRec$[ebp+8], 0
  00024	d9 5e 10	 fstp	 DWORD PTR [esi+16]
  00027	8d 47 14	 lea	 eax, DWORD PTR [edi+20]
  0002a	50		 push	 eax
  0002b	8d 4e 14	 lea	 ecx, DWORD PTR [esi+20]
  0002e	ff d3		 call	 ebx
  00030	d9 47 24	 fld	 DWORD PTR [edi+36]
  00033	d9 5e 24	 fstp	 DWORD PTR [esi+36]
  00036	83 c7 30	 add	 edi, 48			; 00000030H
  00039	d9 47 f8	 fld	 DWORD PTR [edi-8]
  0003c	57		 push	 edi
  0003d	d9 5e 28	 fstp	 DWORD PTR [esi+40]
  00040	8b 47 fc	 mov	 eax, DWORD PTR [edi-4]
  00043	8d 4e 30	 lea	 ecx, DWORD PTR [esi+48]
  00046	c6 45 fc 01	 mov	 BYTE PTR __$EHRec$[ebp+8], 1
  0004a	89 46 2c	 mov	 DWORD PTR [esi+44], eax
  0004d	e8 00 00 00 00	 call	 ??0AttackAttribute@@QAE@ABU0@@Z
  00052	8b c6		 mov	 eax, esi
  00054	e8 00 00 00 00	 call	 __EH_epilog3
  00059	c2 04 00	 ret	 4
_TEXT	ENDS
;	COMDAT text$x
text$x	SEGMENT
__unwindfunclet$??0StGrapInfo@ioGrapplingBlowLoopSkill@@QAE@ABU01@@Z$0:
  00000	8b 4d f0	 mov	 ecx, DWORD PTR _this$[ebp]
  00003	ff 25 00 00 00
	00		 jmp	 DWORD PTR __imp_??1ioHashString@@QAE@XZ
__unwindfunclet$??0StGrapInfo@ioGrapplingBlowLoopSkill@@QAE@ABU01@@Z$1:
  00009	8b 4d f0	 mov	 ecx, DWORD PTR _this$[ebp]
  0000c	83 c1 14	 add	 ecx, 20			; 00000014H
  0000f	ff 25 00 00 00
	00		 jmp	 DWORD PTR __imp_??1ioHashString@@QAE@XZ
__ehhandler$??0StGrapInfo@ioGrapplingBlowLoopSkill@@QAE@ABU01@@Z:
  00015	8b 54 24 08	 mov	 edx, DWORD PTR [esp+8]
  00019	8d 42 0c	 lea	 eax, DWORD PTR [edx+12]
  0001c	8b 4a ec	 mov	 ecx, DWORD PTR [edx-20]
  0001f	33 c8		 xor	 ecx, eax
  00021	e8 00 00 00 00	 call	 @__security_check_cookie@4
  00026	b8 00 00 00 00	 mov	 eax, OFFSET __ehfuncinfo$??0StGrapInfo@ioGrapplingBlowLoopSkill@@QAE@ABU01@@Z
  0002b	e9 00 00 00 00	 jmp	 ___CxxFrameHandler3
text$x	ENDS
??0StGrapInfo@ioGrapplingBlowLoopSkill@@QAE@ABU01@@Z ENDP ; ioGrapplingBlowLoopSkill::StGrapInfo::StGrapInfo
PUBLIC	??_GStGrapInfo@ioGrapplingBlowLoopSkill@@QAEPAXI@Z ; ioGrapplingBlowLoopSkill::StGrapInfo::`scalar deleting destructor'
; Function compile flags: /Ogsp
;	COMDAT ??_GStGrapInfo@ioGrapplingBlowLoopSkill@@QAEPAXI@Z
_TEXT	SEGMENT
___flags$ = 8						; size = 4
??_GStGrapInfo@ioGrapplingBlowLoopSkill@@QAEPAXI@Z PROC	; ioGrapplingBlowLoopSkill::StGrapInfo::`scalar deleting destructor', COMDAT
; _this$ = ecx
  00000	55		 push	 ebp
  00001	8b ec		 mov	 ebp, esp
  00003	56		 push	 esi
  00004	8b f1		 mov	 esi, ecx
  00006	e8 00 00 00 00	 call	 ??1StGrapInfo@ioGrapplingBlowLoopSkill@@QAE@XZ
  0000b	f6 45 08 01	 test	 BYTE PTR ___flags$[ebp], 1
  0000f	74 07		 je	 SHORT $LN1@scalar@5
  00011	56		 push	 esi
  00012	e8 00 00 00 00	 call	 ??3@YAXPAX@Z		; operator delete
  00017	59		 pop	 ecx
$LN1@scalar@5:
  00018	8b c6		 mov	 eax, esi
  0001a	5e		 pop	 esi
  0001b	5d		 pop	 ebp
  0001c	c2 04 00	 ret	 4
??_GStGrapInfo@ioGrapplingBlowLoopSkill@@QAEPAXI@Z ENDP	; ioGrapplingBlowLoopSkill::StGrapInfo::`scalar deleting destructor'
_TEXT	ENDS
PUBLIC	?construct@?$allocator@UStGrapInfo@ioGrapplingBlowLoopSkill@@@std@@QAEXPAUStGrapInfo@ioGrapplingBlowLoopSkill@@$$QAU34@@Z ; std::allocator<ioGrapplingBlowLoopSkill::StGrapInfo>::construct
;	COMDAT xdata$x
; File c:\program files (x86)\microsoft visual studio 10.0\vc\include\utility
xdata$x	SEGMENT
__unwindtable$?construct@?$allocator@UStGrapInfo@ioGrapplingBlowLoopSkill@@@std@@QAEXPAUStGrapInfo@ioGrapplingBlowLoopSkill@@$$QAU34@@Z DD 0ffffffffH
	DD	FLAT:__unwindfunclet$?construct@?$allocator@UStGrapInfo@ioGrapplingBlowLoopSkill@@@std@@QAEXPAUStGrapInfo@ioGrapplingBlowLoopSkill@@$$QAU34@@Z$0
__ehfuncinfo$?construct@?$allocator@UStGrapInfo@ioGrapplingBlowLoopSkill@@@std@@QAEXPAUStGrapInfo@ioGrapplingBlowLoopSkill@@$$QAU34@@Z DD 019930522H
	DD	01H
	DD	FLAT:__unwindtable$?construct@?$allocator@UStGrapInfo@ioGrapplingBlowLoopSkill@@@std@@QAEXPAUStGrapInfo@ioGrapplingBlowLoopSkill@@$$QAU34@@Z
	DD	2 DUP(00H)
	DD	2 DUP(00H)
	DD	00H
	DD	01H
; Function compile flags: /Ogsp
; File c:\program files (x86)\microsoft visual studio 10.0\vc\include\xmemory
xdata$x	ENDS
;	COMDAT ?construct@?$allocator@UStGrapInfo@ioGrapplingBlowLoopSkill@@@std@@QAEXPAUStGrapInfo@ioGrapplingBlowLoopSkill@@$$QAU34@@Z
_TEXT	SEGMENT
$T560684 = -16						; size = 4
__$EHRec$ = -12						; size = 12
__Ptr$ = 8						; size = 4
__Val$ = 12						; size = 4
?construct@?$allocator@UStGrapInfo@ioGrapplingBlowLoopSkill@@@std@@QAEXPAUStGrapInfo@ioGrapplingBlowLoopSkill@@$$QAU34@@Z PROC ; std::allocator<ioGrapplingBlowLoopSkill::StGrapInfo>::construct, COMDAT
; _this$ = ecx

; 201  : 		{	// construct object at _Ptr with value _Val

  00000	6a 04		 push	 4
  00002	b8 00 00 00 00	 mov	 eax, __ehhandler$?construct@?$allocator@UStGrapInfo@ioGrapplingBlowLoopSkill@@@std@@QAEXPAUStGrapInfo@ioGrapplingBlowLoopSkill@@$$QAU34@@Z
  00007	e8 00 00 00 00	 call	 __EH_prolog3

; 202  : 		::new ((void _FARQ *)_Ptr) _Ty(_STD forward<_Ty>(_Val));

  0000c	8b 4d 08	 mov	 ecx, DWORD PTR __Ptr$[ebp]
  0000f	89 4d f0	 mov	 DWORD PTR $T560684[ebp], ecx
  00012	83 65 fc 00	 and	 DWORD PTR __$EHRec$[ebp+8], 0
  00016	85 c9		 test	 ecx, ecx
  00018	74 08		 je	 SHORT $LN3@construct@4
  0001a	ff 75 0c	 push	 DWORD PTR __Val$[ebp]
  0001d	e8 00 00 00 00	 call	 ??0StGrapInfo@ioGrapplingBlowLoopSkill@@QAE@ABU01@@Z
$LN3@construct@4:

; 203  : 		}

  00022	e8 00 00 00 00	 call	 __EH_epilog3
  00027	c2 08 00	 ret	 8
_TEXT	ENDS
;	COMDAT text$x
text$x	SEGMENT
__unwindfunclet$?construct@?$allocator@UStGrapInfo@ioGrapplingBlowLoopSkill@@@std@@QAEXPAUStGrapInfo@ioGrapplingBlowLoopSkill@@$$QAU34@@Z$0:
  00000	ff 75 08	 push	 DWORD PTR __Ptr$[ebp]
  00003	ff 75 f0	 push	 DWORD PTR $T560684[ebp]
  00006	e8 00 00 00 00	 call	 ??3@YAXPAX0@Z		; operator delete
  0000b	59		 pop	 ecx
  0000c	59		 pop	 ecx
  0000d	c3		 ret	 0
__ehhandler$?construct@?$allocator@UStGrapInfo@ioGrapplingBlowLoopSkill@@@std@@QAEXPAUStGrapInfo@ioGrapplingBlowLoopSkill@@$$QAU34@@Z:
  0000e	8b 54 24 08	 mov	 edx, DWORD PTR [esp+8]
  00012	8d 42 0c	 lea	 eax, DWORD PTR [edx+12]
  00015	8b 4a ec	 mov	 ecx, DWORD PTR [edx-20]
  00018	33 c8		 xor	 ecx, eax
  0001a	e8 00 00 00 00	 call	 @__security_check_cookie@4
  0001f	b8 00 00 00 00	 mov	 eax, OFFSET __ehfuncinfo$?construct@?$allocator@UStGrapInfo@ioGrapplingBlowLoopSkill@@@std@@QAEXPAUStGrapInfo@ioGrapplingBlowLoopSkill@@$$QAU34@@Z
  00024	e9 00 00 00 00	 jmp	 ___CxxFrameHandler3
text$x	ENDS
?construct@?$allocator@UStGrapInfo@ioGrapplingBlowLoopSkill@@@std@@QAEXPAUStGrapInfo@ioGrapplingBlowLoopSkill@@$$QAU34@@Z ENDP ; std::allocator<ioGrapplingBlowLoopSkill::StGrapInfo>::construct
PUBLIC	??$construct@AAUStGrapInfo@ioGrapplingBlowLoopSkill@@@?$allocator@UStGrapInfo@ioGrapplingBlowLoopSkill@@@std@@QAEXPAUStGrapInfo@ioGrapplingBlowLoopSkill@@AAU23@@Z ; std::allocator<ioGrapplingBlowLoopSkill::StGrapInfo>::construct<ioGrapplingBlowLoopSkill::StGrapInfo &>
;	COMDAT xdata$x
; File c:\program files (x86)\microsoft visual studio 10.0\vc\include\utility
xdata$x	SEGMENT
__unwindtable$??$construct@AAUStGrapInfo@ioGrapplingBlowLoopSkill@@@?$allocator@UStGrapInfo@ioGrapplingBlowLoopSkill@@@std@@QAEXPAUStGrapInfo@ioGrapplingBlowLoopSkill@@AAU23@@Z DD 0ffffffffH
	DD	FLAT:__unwindfunclet$??$construct@AAUStGrapInfo@ioGrapplingBlowLoopSkill@@@?$allocator@UStGrapInfo@ioGrapplingBlowLoopSkill@@@std@@QAEXPAUStGrapInfo@ioGrapplingBlowLoopSkill@@AAU23@@Z$0
__ehfuncinfo$??$construct@AAUStGrapInfo@ioGrapplingBlowLoopSkill@@@?$allocator@UStGrapInfo@ioGrapplingBlowLoopSkill@@@std@@QAEXPAUStGrapInfo@ioGrapplingBlowLoopSkill@@AAU23@@Z DD 019930522H
	DD	01H
	DD	FLAT:__unwindtable$??$construct@AAUStGrapInfo@ioGrapplingBlowLoopSkill@@@?$allocator@UStGrapInfo@ioGrapplingBlowLoopSkill@@@std@@QAEXPAUStGrapInfo@ioGrapplingBlowLoopSkill@@AAU23@@Z
	DD	2 DUP(00H)
	DD	2 DUP(00H)
	DD	00H
	DD	01H
; Function compile flags: /Ogsp
; File c:\program files (x86)\microsoft visual studio 10.0\vc\include\xmemory
xdata$x	ENDS
;	COMDAT ??$construct@AAUStGrapInfo@ioGrapplingBlowLoopSkill@@@?$allocator@UStGrapInfo@ioGrapplingBlowLoopSkill@@@std@@QAEXPAUStGrapInfo@ioGrapplingBlowLoopSkill@@AAU23@@Z
_TEXT	SEGMENT
$T560703 = -16						; size = 4
__$EHRec$ = -12						; size = 12
__Ptr$ = 8						; size = 4
__Val$ = 12						; size = 4
??$construct@AAUStGrapInfo@ioGrapplingBlowLoopSkill@@@?$allocator@UStGrapInfo@ioGrapplingBlowLoopSkill@@@std@@QAEXPAUStGrapInfo@ioGrapplingBlowLoopSkill@@AAU23@@Z PROC ; std::allocator<ioGrapplingBlowLoopSkill::StGrapInfo>::construct<ioGrapplingBlowLoopSkill::StGrapInfo &>, COMDAT
; _this$ = ecx

; 206  : 		void construct(pointer _Ptr, _Other&& _Val)

  00000	6a 04		 push	 4
  00002	b8 00 00 00 00	 mov	 eax, __ehhandler$??$construct@AAUStGrapInfo@ioGrapplingBlowLoopSkill@@@?$allocator@UStGrapInfo@ioGrapplingBlowLoopSkill@@@std@@QAEXPAUStGrapInfo@ioGrapplingBlowLoopSkill@@AAU23@@Z
  00007	e8 00 00 00 00	 call	 __EH_prolog3

; 207  : 		{	// construct object at _Ptr with value _Val
; 208  : 		::new ((void _FARQ *)_Ptr) _Ty(_STD forward<_Other>(_Val));

  0000c	8b 4d 08	 mov	 ecx, DWORD PTR __Ptr$[ebp]
  0000f	89 4d f0	 mov	 DWORD PTR $T560703[ebp], ecx
  00012	83 65 fc 00	 and	 DWORD PTR __$EHRec$[ebp+8], 0
  00016	85 c9		 test	 ecx, ecx
  00018	74 08		 je	 SHORT $LN3@construct@5
  0001a	ff 75 0c	 push	 DWORD PTR __Val$[ebp]
  0001d	e8 00 00 00 00	 call	 ??0StGrapInfo@ioGrapplingBlowLoopSkill@@QAE@ABU01@@Z
$LN3@construct@5:

; 209  : 		}

  00022	e8 00 00 00 00	 call	 __EH_epilog3
  00027	c2 08 00	 ret	 8
_TEXT	ENDS
;	COMDAT text$x
text$x	SEGMENT
__unwindfunclet$??$construct@AAUStGrapInfo@ioGrapplingBlowLoopSkill@@@?$allocator@UStGrapInfo@ioGrapplingBlowLoopSkill@@@std@@QAEXPAUStGrapInfo@ioGrapplingBlowLoopSkill@@AAU23@@Z$0:
  00000	ff 75 08	 push	 DWORD PTR __Ptr$[ebp]
  00003	ff 75 f0	 push	 DWORD PTR $T560703[ebp]
  00006	e8 00 00 00 00	 call	 ??3@YAXPAX0@Z		; operator delete
  0000b	59		 pop	 ecx
  0000c	59		 pop	 ecx
  0000d	c3		 ret	 0
__ehhandler$??$construct@AAUStGrapInfo@ioGrapplingBlowLoopSkill@@@?$allocator@UStGrapInfo@ioGrapplingBlowLoopSkill@@@std@@QAEXPAUStGrapInfo@ioGrapplingBlowLoopSkill@@AAU23@@Z:
  0000e	8b 54 24 08	 mov	 edx, DWORD PTR [esp+8]
  00012	8d 42 0c	 lea	 eax, DWORD PTR [edx+12]
  00015	8b 4a ec	 mov	 ecx, DWORD PTR [edx-20]
  00018	33 c8		 xor	 ecx, eax
  0001a	e8 00 00 00 00	 call	 @__security_check_cookie@4
  0001f	b8 00 00 00 00	 mov	 eax, OFFSET __ehfuncinfo$??$construct@AAUStGrapInfo@ioGrapplingBlowLoopSkill@@@?$allocator@UStGrapInfo@ioGrapplingBlowLoopSkill@@@std@@QAEXPAUStGrapInfo@ioGrapplingBlowLoopSkill@@AAU23@@Z
  00024	e9 00 00 00 00	 jmp	 ___CxxFrameHandler3
text$x	ENDS
??$construct@AAUStGrapInfo@ioGrapplingBlowLoopSkill@@@?$allocator@UStGrapInfo@ioGrapplingBlowLoopSkill@@@std@@QAEXPAUStGrapInfo@ioGrapplingBlowLoopSkill@@AAU23@@Z ENDP ; std::allocator<ioGrapplingBlowLoopSkill::StGrapInfo>::construct<ioGrapplingBlowLoopSkill::StGrapInfo &>
PUBLIC	??$_Construct@UStGrapInfo@ioGrapplingBlowLoopSkill@@ABU12@@std@@YAXPAUStGrapInfo@ioGrapplingBlowLoopSkill@@ABU12@@Z ; std::_Construct<ioGrapplingBlowLoopSkill::StGrapInfo,ioGrapplingBlowLoopSkill::StGrapInfo const &>
;	COMDAT xdata$x
; File c:\program files (x86)\microsoft visual studio 10.0\vc\include\utility
xdata$x	SEGMENT
__unwindtable$??$_Construct@UStGrapInfo@ioGrapplingBlowLoopSkill@@ABU12@@std@@YAXPAUStGrapInfo@ioGrapplingBlowLoopSkill@@ABU12@@Z DD 0ffffffffH
	DD	FLAT:__unwindfunclet$??$_Construct@UStGrapInfo@ioGrapplingBlowLoopSkill@@ABU12@@std@@YAXPAUStGrapInfo@ioGrapplingBlowLoopSkill@@ABU12@@Z$0
__ehfuncinfo$??$_Construct@UStGrapInfo@ioGrapplingBlowLoopSkill@@ABU12@@std@@YAXPAUStGrapInfo@ioGrapplingBlowLoopSkill@@ABU12@@Z DD 019930522H
	DD	01H
	DD	FLAT:__unwindtable$??$_Construct@UStGrapInfo@ioGrapplingBlowLoopSkill@@ABU12@@std@@YAXPAUStGrapInfo@ioGrapplingBlowLoopSkill@@ABU12@@Z
	DD	2 DUP(00H)
	DD	2 DUP(00H)
	DD	00H
	DD	01H
; Function compile flags: /Ogsp
; File c:\program files (x86)\microsoft visual studio 10.0\vc\include\xmemory
xdata$x	ENDS
;	COMDAT ??$_Construct@UStGrapInfo@ioGrapplingBlowLoopSkill@@ABU12@@std@@YAXPAUStGrapInfo@ioGrapplingBlowLoopSkill@@ABU12@@Z
_TEXT	SEGMENT
$T560722 = -16						; size = 4
__$EHRec$ = -12						; size = 12
__Vptr$ = 8						; size = 4
__Ptr$ = 8						; size = 4
__Val$ = 12						; size = 4
??$_Construct@UStGrapInfo@ioGrapplingBlowLoopSkill@@ABU12@@std@@YAXPAUStGrapInfo@ioGrapplingBlowLoopSkill@@ABU12@@Z PROC ; std::_Construct<ioGrapplingBlowLoopSkill::StGrapInfo,ioGrapplingBlowLoopSkill::StGrapInfo const &>, COMDAT

; 46   : 	{	// construct object at _Ptr with value _Val

  00000	6a 04		 push	 4
  00002	b8 00 00 00 00	 mov	 eax, __ehhandler$??$_Construct@UStGrapInfo@ioGrapplingBlowLoopSkill@@ABU12@@std@@YAXPAUStGrapInfo@ioGrapplingBlowLoopSkill@@ABU12@@Z
  00007	e8 00 00 00 00	 call	 __EH_prolog3

; 47   : 	void _FARQ *_Vptr = _Ptr;

  0000c	8b 4d 08	 mov	 ecx, DWORD PTR __Ptr$[ebp]
  0000f	89 4d 08	 mov	 DWORD PTR __Vptr$[ebp], ecx

; 48   : 	::new (_Vptr) _Ty1(_STD forward<_Ty2>(_Val));

  00012	89 4d f0	 mov	 DWORD PTR $T560722[ebp], ecx
  00015	83 65 fc 00	 and	 DWORD PTR __$EHRec$[ebp+8], 0
  00019	85 c9		 test	 ecx, ecx
  0001b	74 08		 je	 SHORT $LN3@Construct@4
  0001d	ff 75 0c	 push	 DWORD PTR __Val$[ebp]
  00020	e8 00 00 00 00	 call	 ??0StGrapInfo@ioGrapplingBlowLoopSkill@@QAE@ABU01@@Z
$LN3@Construct@4:

; 49   : 	}

  00025	e8 00 00 00 00	 call	 __EH_epilog3
  0002a	c3		 ret	 0
_TEXT	ENDS
;	COMDAT text$x
text$x	SEGMENT
__unwindfunclet$??$_Construct@UStGrapInfo@ioGrapplingBlowLoopSkill@@ABU12@@std@@YAXPAUStGrapInfo@ioGrapplingBlowLoopSkill@@ABU12@@Z$0:
  00000	ff 75 08	 push	 DWORD PTR __Vptr$[ebp]
  00003	ff 75 f0	 push	 DWORD PTR $T560722[ebp]
  00006	e8 00 00 00 00	 call	 ??3@YAXPAX0@Z		; operator delete
  0000b	59		 pop	 ecx
  0000c	59		 pop	 ecx
  0000d	c3		 ret	 0
__ehhandler$??$_Construct@UStGrapInfo@ioGrapplingBlowLoopSkill@@ABU12@@std@@YAXPAUStGrapInfo@ioGrapplingBlowLoopSkill@@ABU12@@Z:
  0000e	8b 54 24 08	 mov	 edx, DWORD PTR [esp+8]
  00012	8d 42 0c	 lea	 eax, DWORD PTR [edx+12]
  00015	8b 4a ec	 mov	 ecx, DWORD PTR [edx-20]
  00018	33 c8		 xor	 ecx, eax
  0001a	e8 00 00 00 00	 call	 @__security_check_cookie@4
  0001f	b8 00 00 00 00	 mov	 eax, OFFSET __ehfuncinfo$??$_Construct@UStGrapInfo@ioGrapplingBlowLoopSkill@@ABU12@@std@@YAXPAUStGrapInfo@ioGrapplingBlowLoopSkill@@ABU12@@Z
  00024	e9 00 00 00 00	 jmp	 ___CxxFrameHandler3
text$x	ENDS
??$_Construct@UStGrapInfo@ioGrapplingBlowLoopSkill@@ABU12@@std@@YAXPAUStGrapInfo@ioGrapplingBlowLoopSkill@@ABU12@@Z ENDP ; std::_Construct<ioGrapplingBlowLoopSkill::StGrapInfo,ioGrapplingBlowLoopSkill::StGrapInfo const &>
PUBLIC	??$_Cons_val@V?$allocator@UStGrapInfo@ioGrapplingBlowLoopSkill@@@std@@UStGrapInfo@ioGrapplingBlowLoopSkill@@U34@@std@@YAXAAV?$allocator@UStGrapInfo@ioGrapplingBlowLoopSkill@@@0@PAUStGrapInfo@ioGrapplingBlowLoopSkill@@$$QAU23@@Z ; std::_Cons_val<std::allocator<ioGrapplingBlowLoopSkill::StGrapInfo>,ioGrapplingBlowLoopSkill::StGrapInfo,ioGrapplingBlowLoopSkill::StGrapInfo>
;	COMDAT xdata$x
; File c:\program files (x86)\microsoft visual studio 10.0\vc\include\utility
xdata$x	SEGMENT
__unwindtable$??$_Cons_val@V?$allocator@UStGrapInfo@ioGrapplingBlowLoopSkill@@@std@@UStGrapInfo@ioGrapplingBlowLoopSkill@@U34@@std@@YAXAAV?$allocator@UStGrapInfo@ioGrapplingBlowLoopSkill@@@0@PAUStGrapInfo@ioGrapplingBlowLoopSkill@@$$QAU23@@Z DD 0ffffffffH
	DD	FLAT:__unwindfunclet$??$_Cons_val@V?$allocator@UStGrapInfo@ioGrapplingBlowLoopSkill@@@std@@UStGrapInfo@ioGrapplingBlowLoopSkill@@U34@@std@@YAXAAV?$allocator@UStGrapInfo@ioGrapplingBlowLoopSkill@@@0@PAUStGrapInfo@ioGrapplingBlowLoopSkill@@$$QAU23@@Z$0
__ehfuncinfo$??$_Cons_val@V?$allocator@UStGrapInfo@ioGrapplingBlowLoopSkill@@@std@@UStGrapInfo@ioGrapplingBlowLoopSkill@@U34@@std@@YAXAAV?$allocator@UStGrapInfo@ioGrapplingBlowLoopSkill@@@0@PAUStGrapInfo@ioGrapplingBlowLoopSkill@@$$QAU23@@Z DD 019930522H
	DD	01H
	DD	FLAT:__unwindtable$??$_Cons_val@V?$allocator@UStGrapInfo@ioGrapplingBlowLoopSkill@@@std@@UStGrapInfo@ioGrapplingBlowLoopSkill@@U34@@std@@YAXAAV?$allocator@UStGrapInfo@ioGrapplingBlowLoopSkill@@@0@PAUStGrapInfo@ioGrapplingBlowLoopSkill@@$$QAU23@@Z
	DD	2 DUP(00H)
	DD	2 DUP(00H)
	DD	00H
	DD	01H
; Function compile flags: /Ogsp
; File c:\program files (x86)\microsoft visual studio 10.0\vc\include\xmemory
xdata$x	ENDS
;	COMDAT ??$_Cons_val@V?$allocator@UStGrapInfo@ioGrapplingBlowLoopSkill@@@std@@UStGrapInfo@ioGrapplingBlowLoopSkill@@U34@@std@@YAXAAV?$allocator@UStGrapInfo@ioGrapplingBlowLoopSkill@@@0@PAUStGrapInfo@ioGrapplingBlowLoopSkill@@$$QAU23@@Z
_TEXT	SEGMENT
$T560758 = -16						; size = 4
__$EHRec$ = -12						; size = 12
__Alval$ = 8						; size = 4
__Pdest$ = 12						; size = 4
__Src$ = 16						; size = 4
??$_Cons_val@V?$allocator@UStGrapInfo@ioGrapplingBlowLoopSkill@@@std@@UStGrapInfo@ioGrapplingBlowLoopSkill@@U34@@std@@YAXAAV?$allocator@UStGrapInfo@ioGrapplingBlowLoopSkill@@@0@PAUStGrapInfo@ioGrapplingBlowLoopSkill@@$$QAU23@@Z PROC ; std::_Cons_val<std::allocator<ioGrapplingBlowLoopSkill::StGrapInfo>,ioGrapplingBlowLoopSkill::StGrapInfo,ioGrapplingBlowLoopSkill::StGrapInfo>, COMDAT

; 279  : 	{	// construct using allocator

  00000	6a 04		 push	 4
  00002	b8 00 00 00 00	 mov	 eax, __ehhandler$??$_Cons_val@V?$allocator@UStGrapInfo@ioGrapplingBlowLoopSkill@@@std@@UStGrapInfo@ioGrapplingBlowLoopSkill@@U34@@std@@YAXAAV?$allocator@UStGrapInfo@ioGrapplingBlowLoopSkill@@@0@PAUStGrapInfo@ioGrapplingBlowLoopSkill@@$$QAU23@@Z
  00007	e8 00 00 00 00	 call	 __EH_prolog3

; 280  : 	_Alval.construct(_Pdest, _STD forward<_Ty2>(_Src));

  0000c	8b 4d 0c	 mov	 ecx, DWORD PTR __Pdest$[ebp]
  0000f	89 4d f0	 mov	 DWORD PTR $T560758[ebp], ecx
  00012	83 65 fc 00	 and	 DWORD PTR __$EHRec$[ebp+8], 0
  00016	85 c9		 test	 ecx, ecx
  00018	74 08		 je	 SHORT $LN7@Cons_val@2
  0001a	ff 75 10	 push	 DWORD PTR __Src$[ebp]
  0001d	e8 00 00 00 00	 call	 ??0StGrapInfo@ioGrapplingBlowLoopSkill@@QAE@ABU01@@Z
$LN7@Cons_val@2:

; 281  : 	}

  00022	e8 00 00 00 00	 call	 __EH_epilog3
  00027	c3		 ret	 0
_TEXT	ENDS
;	COMDAT text$x
text$x	SEGMENT
__unwindfunclet$??$_Cons_val@V?$allocator@UStGrapInfo@ioGrapplingBlowLoopSkill@@@std@@UStGrapInfo@ioGrapplingBlowLoopSkill@@U34@@std@@YAXAAV?$allocator@UStGrapInfo@ioGrapplingBlowLoopSkill@@@0@PAUStGrapInfo@ioGrapplingBlowLoopSkill@@$$QAU23@@Z$0:
  00000	ff 75 0c	 push	 DWORD PTR __Pdest$[ebp]
  00003	ff 75 f0	 push	 DWORD PTR $T560758[ebp]
  00006	e8 00 00 00 00	 call	 ??3@YAXPAX0@Z		; operator delete
  0000b	59		 pop	 ecx
  0000c	59		 pop	 ecx
  0000d	c3		 ret	 0
__ehhandler$??$_Cons_val@V?$allocator@UStGrapInfo@ioGrapplingBlowLoopSkill@@@std@@UStGrapInfo@ioGrapplingBlowLoopSkill@@U34@@std@@YAXAAV?$allocator@UStGrapInfo@ioGrapplingBlowLoopSkill@@@0@PAUStGrapInfo@ioGrapplingBlowLoopSkill@@$$QAU23@@Z:
  0000e	8b 54 24 08	 mov	 edx, DWORD PTR [esp+8]
  00012	8d 42 0c	 lea	 eax, DWORD PTR [edx+12]
  00015	8b 4a ec	 mov	 ecx, DWORD PTR [edx-20]
  00018	33 c8		 xor	 ecx, eax
  0001a	e8 00 00 00 00	 call	 @__security_check_cookie@4
  0001f	b8 00 00 00 00	 mov	 eax, OFFSET __ehfuncinfo$??$_Cons_val@V?$allocator@UStGrapInfo@ioGrapplingBlowLoopSkill@@@std@@UStGrapInfo@ioGrapplingBlowLoopSkill@@U34@@std@@YAXAAV?$allocator@UStGrapInfo@ioGrapplingBlowLoopSkill@@@0@PAUStGrapInfo@ioGrapplingBlowLoopSkill@@$$QAU23@@Z
  00024	e9 00 00 00 00	 jmp	 ___CxxFrameHandler3
text$x	ENDS
??$_Cons_val@V?$allocator@UStGrapInfo@ioGrapplingBlowLoopSkill@@@std@@UStGrapInfo@ioGrapplingBlowLoopSkill@@U34@@std@@YAXAAV?$allocator@UStGrapInfo@ioGrapplingBlowLoopSkill@@@0@PAUStGrapInfo@ioGrapplingBlowLoopSkill@@$$QAU23@@Z ENDP ; std::_Cons_val<std::allocator<ioGrapplingBlowLoopSkill::StGrapInfo>,ioGrapplingBlowLoopSkill::StGrapInfo,ioGrapplingBlowLoopSkill::StGrapInfo>
PUBLIC	??$_Destroy@UStGrapInfo@ioGrapplingBlowLoopSkill@@@std@@YAXPAUStGrapInfo@ioGrapplingBlowLoopSkill@@@Z ; std::_Destroy<ioGrapplingBlowLoopSkill::StGrapInfo>
; Function compile flags: /Ogsp
;	COMDAT ??$_Destroy@UStGrapInfo@ioGrapplingBlowLoopSkill@@@std@@YAXPAUStGrapInfo@ioGrapplingBlowLoopSkill@@@Z
_TEXT	SEGMENT
__Ptr$ = 8						; size = 4
??$_Destroy@UStGrapInfo@ioGrapplingBlowLoopSkill@@@std@@YAXPAUStGrapInfo@ioGrapplingBlowLoopSkill@@@Z PROC ; std::_Destroy<ioGrapplingBlowLoopSkill::StGrapInfo>, COMDAT

; 62   : 	{	// destroy object at _Ptr

  00000	55		 push	 ebp
  00001	8b ec		 mov	 ebp, esp

; 63   : 	_Ptr->~_Ty();

  00003	8b 4d 08	 mov	 ecx, DWORD PTR __Ptr$[ebp]

; 64   : 	}

  00006	5d		 pop	 ebp

; 63   : 	_Ptr->~_Ty();

  00007	e9 00 00 00 00	 jmp	 ??1StGrapInfo@ioGrapplingBlowLoopSkill@@QAE@XZ
??$_Destroy@UStGrapInfo@ioGrapplingBlowLoopSkill@@@std@@YAXPAUStGrapInfo@ioGrapplingBlowLoopSkill@@@Z ENDP ; std::_Destroy<ioGrapplingBlowLoopSkill::StGrapInfo>
_TEXT	ENDS
PUBLIC	??$_Cons_val@V?$allocator@UStGrapInfo@ioGrapplingBlowLoopSkill@@@std@@UStGrapInfo@ioGrapplingBlowLoopSkill@@AAU34@@std@@YAXAAV?$allocator@UStGrapInfo@ioGrapplingBlowLoopSkill@@@0@PAUStGrapInfo@ioGrapplingBlowLoopSkill@@AAU23@@Z ; std::_Cons_val<std::allocator<ioGrapplingBlowLoopSkill::StGrapInfo>,ioGrapplingBlowLoopSkill::StGrapInfo,ioGrapplingBlowLoopSkill::StGrapInfo &>
;	COMDAT xdata$x
; File c:\program files (x86)\microsoft visual studio 10.0\vc\include\utility
xdata$x	SEGMENT
__unwindtable$??$_Cons_val@V?$allocator@UStGrapInfo@ioGrapplingBlowLoopSkill@@@std@@UStGrapInfo@ioGrapplingBlowLoopSkill@@AAU34@@std@@YAXAAV?$allocator@UStGrapInfo@ioGrapplingBlowLoopSkill@@@0@PAUStGrapInfo@ioGrapplingBlowLoopSkill@@AAU23@@Z DD 0ffffffffH
	DD	FLAT:__unwindfunclet$??$_Cons_val@V?$allocator@UStGrapInfo@ioGrapplingBlowLoopSkill@@@std@@UStGrapInfo@ioGrapplingBlowLoopSkill@@AAU34@@std@@YAXAAV?$allocator@UStGrapInfo@ioGrapplingBlowLoopSkill@@@0@PAUStGrapInfo@ioGrapplingBlowLoopSkill@@AAU23@@Z$0
__ehfuncinfo$??$_Cons_val@V?$allocator@UStGrapInfo@ioGrapplingBlowLoopSkill@@@std@@UStGrapInfo@ioGrapplingBlowLoopSkill@@AAU34@@std@@YAXAAV?$allocator@UStGrapInfo@ioGrapplingBlowLoopSkill@@@0@PAUStGrapInfo@ioGrapplingBlowLoopSkill@@AAU23@@Z DD 019930522H
	DD	01H
	DD	FLAT:__unwindtable$??$_Cons_val@V?$allocator@UStGrapInfo@ioGrapplingBlowLoopSkill@@@std@@UStGrapInfo@ioGrapplingBlowLoopSkill@@AAU34@@std@@YAXAAV?$allocator@UStGrapInfo@ioGrapplingBlowLoopSkill@@@0@PAUStGrapInfo@ioGrapplingBlowLoopSkill@@AAU23@@Z
	DD	2 DUP(00H)
	DD	2 DUP(00H)
	DD	00H
	DD	01H
; Function compile flags: /Ogsp
; File c:\program files (x86)\microsoft visual studio 10.0\vc\include\xmemory
xdata$x	ENDS
;	COMDAT ??$_Cons_val@V?$allocator@UStGrapInfo@ioGrapplingBlowLoopSkill@@@std@@UStGrapInfo@ioGrapplingBlowLoopSkill@@AAU34@@std@@YAXAAV?$allocator@UStGrapInfo@ioGrapplingBlowLoopSkill@@@0@PAUStGrapInfo@ioGrapplingBlowLoopSkill@@AAU23@@Z
_TEXT	SEGMENT
$T560798 = -16						; size = 4
__$EHRec$ = -12						; size = 12
__Alval$ = 8						; size = 4
__Pdest$ = 12						; size = 4
__Src$ = 16						; size = 4
??$_Cons_val@V?$allocator@UStGrapInfo@ioGrapplingBlowLoopSkill@@@std@@UStGrapInfo@ioGrapplingBlowLoopSkill@@AAU34@@std@@YAXAAV?$allocator@UStGrapInfo@ioGrapplingBlowLoopSkill@@@0@PAUStGrapInfo@ioGrapplingBlowLoopSkill@@AAU23@@Z PROC ; std::_Cons_val<std::allocator<ioGrapplingBlowLoopSkill::StGrapInfo>,ioGrapplingBlowLoopSkill::StGrapInfo,ioGrapplingBlowLoopSkill::StGrapInfo &>, COMDAT

; 279  : 	{	// construct using allocator

  00000	6a 04		 push	 4
  00002	b8 00 00 00 00	 mov	 eax, __ehhandler$??$_Cons_val@V?$allocator@UStGrapInfo@ioGrapplingBlowLoopSkill@@@std@@UStGrapInfo@ioGrapplingBlowLoopSkill@@AAU34@@std@@YAXAAV?$allocator@UStGrapInfo@ioGrapplingBlowLoopSkill@@@0@PAUStGrapInfo@ioGrapplingBlowLoopSkill@@AAU23@@Z
  00007	e8 00 00 00 00	 call	 __EH_prolog3

; 280  : 	_Alval.construct(_Pdest, _STD forward<_Ty2>(_Src));

  0000c	8b 4d 0c	 mov	 ecx, DWORD PTR __Pdest$[ebp]
  0000f	89 4d f0	 mov	 DWORD PTR $T560798[ebp], ecx
  00012	83 65 fc 00	 and	 DWORD PTR __$EHRec$[ebp+8], 0
  00016	85 c9		 test	 ecx, ecx
  00018	74 08		 je	 SHORT $LN7@Cons_val@3
  0001a	ff 75 10	 push	 DWORD PTR __Src$[ebp]
  0001d	e8 00 00 00 00	 call	 ??0StGrapInfo@ioGrapplingBlowLoopSkill@@QAE@ABU01@@Z
$LN7@Cons_val@3:

; 281  : 	}

  00022	e8 00 00 00 00	 call	 __EH_epilog3
  00027	c3		 ret	 0
_TEXT	ENDS
;	COMDAT text$x
text$x	SEGMENT
__unwindfunclet$??$_Cons_val@V?$allocator@UStGrapInfo@ioGrapplingBlowLoopSkill@@@std@@UStGrapInfo@ioGrapplingBlowLoopSkill@@AAU34@@std@@YAXAAV?$allocator@UStGrapInfo@ioGrapplingBlowLoopSkill@@@0@PAUStGrapInfo@ioGrapplingBlowLoopSkill@@AAU23@@Z$0:
  00000	ff 75 0c	 push	 DWORD PTR __Pdest$[ebp]
  00003	ff 75 f0	 push	 DWORD PTR $T560798[ebp]
  00006	e8 00 00 00 00	 call	 ??3@YAXPAX0@Z		; operator delete
  0000b	59		 pop	 ecx
  0000c	59		 pop	 ecx
  0000d	c3		 ret	 0
__ehhandler$??$_Cons_val@V?$allocator@UStGrapInfo@ioGrapplingBlowLoopSkill@@@std@@UStGrapInfo@ioGrapplingBlowLoopSkill@@AAU34@@std@@YAXAAV?$allocator@UStGrapInfo@ioGrapplingBlowLoopSkill@@@0@PAUStGrapInfo@ioGrapplingBlowLoopSkill@@AAU23@@Z:
  0000e	8b 54 24 08	 mov	 edx, DWORD PTR [esp+8]
  00012	8d 42 0c	 lea	 eax, DWORD PTR [edx+12]
  00015	8b 4a ec	 mov	 ecx, DWORD PTR [edx-20]
  00018	33 c8		 xor	 ecx, eax
  0001a	e8 00 00 00 00	 call	 @__security_check_cookie@4
  0001f	b8 00 00 00 00	 mov	 eax, OFFSET __ehfuncinfo$??$_Cons_val@V?$allocator@UStGrapInfo@ioGrapplingBlowLoopSkill@@@std@@UStGrapInfo@ioGrapplingBlowLoopSkill@@AAU34@@std@@YAXAAV?$allocator@UStGrapInfo@ioGrapplingBlowLoopSkill@@@0@PAUStGrapInfo@ioGrapplingBlowLoopSkill@@AAU23@@Z
  00024	e9 00 00 00 00	 jmp	 ___CxxFrameHandler3
text$x	ENDS
??$_Cons_val@V?$allocator@UStGrapInfo@ioGrapplingBlowLoopSkill@@@std@@UStGrapInfo@ioGrapplingBlowLoopSkill@@AAU34@@std@@YAXAAV?$allocator@UStGrapInfo@ioGrapplingBlowLoopSkill@@@0@PAUStGrapInfo@ioGrapplingBlowLoopSkill@@AAU23@@Z ENDP ; std::_Cons_val<std::allocator<ioGrapplingBlowLoopSkill::StGrapInfo>,ioGrapplingBlowLoopSkill::StGrapInfo,ioGrapplingBlowLoopSkill::StGrapInfo &>
PUBLIC	?construct@?$allocator@UStGrapInfo@ioGrapplingBlowLoopSkill@@@std@@QAEXPAUStGrapInfo@ioGrapplingBlowLoopSkill@@ABU34@@Z ; std::allocator<ioGrapplingBlowLoopSkill::StGrapInfo>::construct
; Function compile flags: /Ogsp
;	COMDAT ?construct@?$allocator@UStGrapInfo@ioGrapplingBlowLoopSkill@@@std@@QAEXPAUStGrapInfo@ioGrapplingBlowLoopSkill@@ABU34@@Z
_TEXT	SEGMENT
__Ptr$ = 8						; size = 4
__Val$ = 12						; size = 4
?construct@?$allocator@UStGrapInfo@ioGrapplingBlowLoopSkill@@@std@@QAEXPAUStGrapInfo@ioGrapplingBlowLoopSkill@@ABU34@@Z PROC ; std::allocator<ioGrapplingBlowLoopSkill::StGrapInfo>::construct, COMDAT
; _this$ = ecx

; 196  : 		{	// construct object at _Ptr with value _Val

  00000	55		 push	 ebp
  00001	8b ec		 mov	 ebp, esp

; 197  : 		_Construct(_Ptr, _Val);

  00003	ff 75 0c	 push	 DWORD PTR __Val$[ebp]
  00006	ff 75 08	 push	 DWORD PTR __Ptr$[ebp]
  00009	e8 00 00 00 00	 call	 ??$_Construct@UStGrapInfo@ioGrapplingBlowLoopSkill@@ABU12@@std@@YAXPAUStGrapInfo@ioGrapplingBlowLoopSkill@@ABU12@@Z ; std::_Construct<ioGrapplingBlowLoopSkill::StGrapInfo,ioGrapplingBlowLoopSkill::StGrapInfo const &>
  0000e	59		 pop	 ecx
  0000f	59		 pop	 ecx

; 198  : 		}

  00010	5d		 pop	 ebp
  00011	c2 08 00	 ret	 8
?construct@?$allocator@UStGrapInfo@ioGrapplingBlowLoopSkill@@@std@@QAEXPAUStGrapInfo@ioGrapplingBlowLoopSkill@@ABU34@@Z ENDP ; std::allocator<ioGrapplingBlowLoopSkill::StGrapInfo>::construct
_TEXT	ENDS
PUBLIC	?destroy@?$allocator@UStGrapInfo@ioGrapplingBlowLoopSkill@@@std@@QAEXPAUStGrapInfo@ioGrapplingBlowLoopSkill@@@Z ; std::allocator<ioGrapplingBlowLoopSkill::StGrapInfo>::destroy
; Function compile flags: /Ogsp
;	COMDAT ?destroy@?$allocator@UStGrapInfo@ioGrapplingBlowLoopSkill@@@std@@QAEXPAUStGrapInfo@ioGrapplingBlowLoopSkill@@@Z
_TEXT	SEGMENT
__Ptr$ = 8						; size = 4
?destroy@?$allocator@UStGrapInfo@ioGrapplingBlowLoopSkill@@@std@@QAEXPAUStGrapInfo@ioGrapplingBlowLoopSkill@@@Z PROC ; std::allocator<ioGrapplingBlowLoopSkill::StGrapInfo>::destroy, COMDAT
; _this$ = ecx

; 212  : 		{	// destroy object at _Ptr

  00000	55		 push	 ebp
  00001	8b ec		 mov	 ebp, esp

; 213  : 		_Destroy(_Ptr);

  00003	8b 4d 08	 mov	 ecx, DWORD PTR __Ptr$[ebp]
  00006	e8 00 00 00 00	 call	 ??1StGrapInfo@ioGrapplingBlowLoopSkill@@QAE@XZ

; 214  : 		}

  0000b	5d		 pop	 ebp
  0000c	c2 04 00	 ret	 4
?destroy@?$allocator@UStGrapInfo@ioGrapplingBlowLoopSkill@@@std@@QAEXPAUStGrapInfo@ioGrapplingBlowLoopSkill@@@Z ENDP ; std::allocator<ioGrapplingBlowLoopSkill::StGrapInfo>::destroy
_TEXT	ENDS
PUBLIC	??$_Cons_val@V?$allocator@UStGrapInfo@ioGrapplingBlowLoopSkill@@@std@@UStGrapInfo@ioGrapplingBlowLoopSkill@@ABU34@@std@@YAXAAV?$allocator@UStGrapInfo@ioGrapplingBlowLoopSkill@@@0@PAUStGrapInfo@ioGrapplingBlowLoopSkill@@ABU23@@Z ; std::_Cons_val<std::allocator<ioGrapplingBlowLoopSkill::StGrapInfo>,ioGrapplingBlowLoopSkill::StGrapInfo,ioGrapplingBlowLoopSkill::StGrapInfo const &>
; Function compile flags: /Ogsp
;	COMDAT ??$_Cons_val@V?$allocator@UStGrapInfo@ioGrapplingBlowLoopSkill@@@std@@UStGrapInfo@ioGrapplingBlowLoopSkill@@ABU34@@std@@YAXAAV?$allocator@UStGrapInfo@ioGrapplingBlowLoopSkill@@@0@PAUStGrapInfo@ioGrapplingBlowLoopSkill@@ABU23@@Z
_TEXT	SEGMENT
__Alval$ = 8						; size = 4
__Pdest$ = 12						; size = 4
__Src$ = 16						; size = 4
??$_Cons_val@V?$allocator@UStGrapInfo@ioGrapplingBlowLoopSkill@@@std@@UStGrapInfo@ioGrapplingBlowLoopSkill@@ABU34@@std@@YAXAAV?$allocator@UStGrapInfo@ioGrapplingBlowLoopSkill@@@0@PAUStGrapInfo@ioGrapplingBlowLoopSkill@@ABU23@@Z PROC ; std::_Cons_val<std::allocator<ioGrapplingBlowLoopSkill::StGrapInfo>,ioGrapplingBlowLoopSkill::StGrapInfo,ioGrapplingBlowLoopSkill::StGrapInfo const &>, COMDAT

; 279  : 	{	// construct using allocator

  00000	55		 push	 ebp
  00001	8b ec		 mov	 ebp, esp

; 280  : 	_Alval.construct(_Pdest, _STD forward<_Ty2>(_Src));

  00003	ff 75 10	 push	 DWORD PTR __Src$[ebp]
  00006	ff 75 0c	 push	 DWORD PTR __Pdest$[ebp]
  00009	e8 00 00 00 00	 call	 ??$_Construct@UStGrapInfo@ioGrapplingBlowLoopSkill@@ABU12@@std@@YAXPAUStGrapInfo@ioGrapplingBlowLoopSkill@@ABU12@@Z ; std::_Construct<ioGrapplingBlowLoopSkill::StGrapInfo,ioGrapplingBlowLoopSkill::StGrapInfo const &>
  0000e	59		 pop	 ecx
  0000f	59		 pop	 ecx

; 281  : 	}

  00010	5d		 pop	 ebp
  00011	c3		 ret	 0
??$_Cons_val@V?$allocator@UStGrapInfo@ioGrapplingBlowLoopSkill@@@std@@UStGrapInfo@ioGrapplingBlowLoopSkill@@ABU34@@std@@YAXAAV?$allocator@UStGrapInfo@ioGrapplingBlowLoopSkill@@@0@PAUStGrapInfo@ioGrapplingBlowLoopSkill@@ABU23@@Z ENDP ; std::_Cons_val<std::allocator<ioGrapplingBlowLoopSkill::StGrapInfo>,ioGrapplingBlowLoopSkill::StGrapInfo,ioGrapplingBlowLoopSkill::StGrapInfo const &>
_TEXT	ENDS
PUBLIC	??$_Dest_val@V?$allocator@UStGrapInfo@ioGrapplingBlowLoopSkill@@@std@@UStGrapInfo@ioGrapplingBlowLoopSkill@@@std@@YAXAAV?$allocator@UStGrapInfo@ioGrapplingBlowLoopSkill@@@0@PAUStGrapInfo@ioGrapplingBlowLoopSkill@@@Z ; std::_Dest_val<std::allocator<ioGrapplingBlowLoopSkill::StGrapInfo>,ioGrapplingBlowLoopSkill::StGrapInfo>
; Function compile flags: /Ogsp
;	COMDAT ??$_Dest_val@V?$allocator@UStGrapInfo@ioGrapplingBlowLoopSkill@@@std@@UStGrapInfo@ioGrapplingBlowLoopSkill@@@std@@YAXAAV?$allocator@UStGrapInfo@ioGrapplingBlowLoopSkill@@@0@PAUStGrapInfo@ioGrapplingBlowLoopSkill@@@Z
_TEXT	SEGMENT
__Alval$ = 8						; size = 4
__Pdest$ = 12						; size = 4
??$_Dest_val@V?$allocator@UStGrapInfo@ioGrapplingBlowLoopSkill@@@std@@UStGrapInfo@ioGrapplingBlowLoopSkill@@@std@@YAXAAV?$allocator@UStGrapInfo@ioGrapplingBlowLoopSkill@@@0@PAUStGrapInfo@ioGrapplingBlowLoopSkill@@@Z PROC ; std::_Dest_val<std::allocator<ioGrapplingBlowLoopSkill::StGrapInfo>,ioGrapplingBlowLoopSkill::StGrapInfo>, COMDAT

; 286  : 	{	// destroy using allocator

  00000	55		 push	 ebp
  00001	8b ec		 mov	 ebp, esp

; 287  : 	_Alval.destroy(_Pdest);

  00003	8b 4d 0c	 mov	 ecx, DWORD PTR __Pdest$[ebp]

; 288  : 	}

  00006	5d		 pop	 ebp

; 287  : 	_Alval.destroy(_Pdest);

  00007	e9 00 00 00 00	 jmp	 ??1StGrapInfo@ioGrapplingBlowLoopSkill@@QAE@XZ
??$_Dest_val@V?$allocator@UStGrapInfo@ioGrapplingBlowLoopSkill@@@std@@UStGrapInfo@ioGrapplingBlowLoopSkill@@@std@@YAXAAV?$allocator@UStGrapInfo@ioGrapplingBlowLoopSkill@@@0@PAUStGrapInfo@ioGrapplingBlowLoopSkill@@@Z ENDP ; std::_Dest_val<std::allocator<ioGrapplingBlowLoopSkill::StGrapInfo>,ioGrapplingBlowLoopSkill::StGrapInfo>
_TEXT	ENDS
PUBLIC	??$_Destroy_range@V?$allocator@UStGrapInfo@ioGrapplingBlowLoopSkill@@@std@@@std@@YAXPAUStGrapInfo@ioGrapplingBlowLoopSkill@@0AAV?$allocator@UStGrapInfo@ioGrapplingBlowLoopSkill@@@0@U_Nonscalar_ptr_iterator_tag@0@@Z ; std::_Destroy_range<std::allocator<ioGrapplingBlowLoopSkill::StGrapInfo> >
; Function compile flags: /Ogsp
;	COMDAT ??$_Destroy_range@V?$allocator@UStGrapInfo@ioGrapplingBlowLoopSkill@@@std@@@std@@YAXPAUStGrapInfo@ioGrapplingBlowLoopSkill@@0AAV?$allocator@UStGrapInfo@ioGrapplingBlowLoopSkill@@@0@U_Nonscalar_ptr_iterator_tag@0@@Z
_TEXT	SEGMENT
__First$ = 8						; size = 4
__Last$ = 12						; size = 4
__Al$ = 16						; size = 4
___formal$ = 20						; size = 1
??$_Destroy_range@V?$allocator@UStGrapInfo@ioGrapplingBlowLoopSkill@@@std@@@std@@YAXPAUStGrapInfo@ioGrapplingBlowLoopSkill@@0AAV?$allocator@UStGrapInfo@ioGrapplingBlowLoopSkill@@@0@U_Nonscalar_ptr_iterator_tag@0@@Z PROC ; std::_Destroy_range<std::allocator<ioGrapplingBlowLoopSkill::StGrapInfo> >, COMDAT

; 95   : 	{	// destroy [_First, _Last), arbitrary type

  00000	55		 push	 ebp
  00001	8b ec		 mov	 ebp, esp
  00003	56		 push	 esi

; 96   : 	for (; _First != _Last; ++_First)

  00004	8b 75 08	 mov	 esi, DWORD PTR __First$[ebp]
  00007	eb 0a		 jmp	 SHORT $LN17@Destroy_ra@5
$LL3@Destroy_ra@5:

; 97   : 		_Dest_val(_Al, _First);

  00009	8b ce		 mov	 ecx, esi
  0000b	e8 00 00 00 00	 call	 ??1StGrapInfo@ioGrapplingBlowLoopSkill@@QAE@XZ
  00010	83 ee 80	 sub	 esi, -128		; ffffff80H
$LN17@Destroy_ra@5:

; 96   : 	for (; _First != _Last; ++_First)

  00013	3b 75 0c	 cmp	 esi, DWORD PTR __Last$[ebp]
  00016	75 f1		 jne	 SHORT $LL3@Destroy_ra@5
  00018	5e		 pop	 esi

; 98   : 	}

  00019	5d		 pop	 ebp
  0001a	c3		 ret	 0
??$_Destroy_range@V?$allocator@UStGrapInfo@ioGrapplingBlowLoopSkill@@@std@@@std@@YAXPAUStGrapInfo@ioGrapplingBlowLoopSkill@@0AAV?$allocator@UStGrapInfo@ioGrapplingBlowLoopSkill@@@0@U_Nonscalar_ptr_iterator_tag@0@@Z ENDP ; std::_Destroy_range<std::allocator<ioGrapplingBlowLoopSkill::StGrapInfo> >
_TEXT	ENDS
PUBLIC	??$_Uninit_copy@V?$_Vector_const_iterator@V?$_Vector_val@UStGrapInfo@ioGrapplingBlowLoopSkill@@V?$allocator@UStGrapInfo@ioGrapplingBlowLoopSkill@@@std@@@std@@@std@@PAUStGrapInfo@ioGrapplingBlowLoopSkill@@V?$allocator@UStGrapInfo@ioGrapplingBlowLoopSkill@@@2@@std@@YAPAUStGrapInfo@ioGrapplingBlowLoopSkill@@V?$_Vector_const_iterator@V?$_Vector_val@UStGrapInfo@ioGrapplingBlowLoopSkill@@V?$allocator@UStGrapInfo@ioGrapplingBlowLoopSkill@@@std@@@std@@@0@0PAU12@AAV?$allocator@UStGrapInfo@ioGrapplingBlowLoopSkill@@@0@U_Nonscalar_ptr_iterator_tag@0@@Z ; std::_Uninit_copy<std::_Vector_const_iterator<std::_Vector_val<ioGrapplingBlowLoopSkill::StGrapInfo,std::allocator<ioGrapplingBlowLoopSkill::StGrapInfo> > >,ioGrapplingBlowLoopSkill::StGrapInfo *,std::allocator<ioGrapplingBlowLoopSkill::StGrapInfo> >
;	COMDAT xdata$x
; File c:\program files (x86)\microsoft visual studio 10.0\vc\include\vector
xdata$x	SEGMENT
__catchsym$??$_Uninit_copy@V?$_Vector_const_iterator@V?$_Vector_val@UStGrapInfo@ioGrapplingBlowLoopSkill@@V?$allocator@UStGrapInfo@ioGrapplingBlowLoopSkill@@@std@@@std@@@std@@PAUStGrapInfo@ioGrapplingBlowLoopSkill@@V?$allocator@UStGrapInfo@ioGrapplingBlowLoopSkill@@@2@@std@@YAPAUStGrapInfo@ioGrapplingBlowLoopSkill@@V?$_Vector_const_iterator@V?$_Vector_val@UStGrapInfo@ioGrapplingBlowLoopSkill@@V?$allocator@UStGrapInfo@ioGrapplingBlowLoopSkill@@@std@@@std@@@0@0PAU12@AAV?$allocator@UStGrapInfo@ioGrapplingBlowLoopSkill@@@0@U_Nonscalar_ptr_iterator_tag@0@@Z$2 DD 040H
	DD	00H
	DD	00H
	DD	FLAT:__catch$??$_Uninit_copy@V?$_Vector_const_iterator@V?$_Vector_val@UStGrapInfo@ioGrapplingBlowLoopSkill@@V?$allocator@UStGrapInfo@ioGrapplingBlowLoopSkill@@@std@@@std@@@std@@PAUStGrapInfo@ioGrapplingBlowLoopSkill@@V?$allocator@UStGrapInfo@ioGrapplingBlowLoopSkill@@@2@@std@@YAPAUStGrapInfo@ioGrapplingBlowLoopSkill@@V?$_Vector_const_iterator@V?$_Vector_val@UStGrapInfo@ioGrapplingBlowLoopSkill@@V?$allocator@UStGrapInfo@ioGrapplingBlowLoopSkill@@@std@@@std@@@0@0PAU12@AAV?$allocator@UStGrapInfo@ioGrapplingBlowLoopSkill@@@0@U_Nonscalar_ptr_iterator_tag@0@@Z$0
__unwindtable$??$_Uninit_copy@V?$_Vector_const_iterator@V?$_Vector_val@UStGrapInfo@ioGrapplingBlowLoopSkill@@V?$allocator@UStGrapInfo@ioGrapplingBlowLoopSkill@@@std@@@std@@@std@@PAUStGrapInfo@ioGrapplingBlowLoopSkill@@V?$allocator@UStGrapInfo@ioGrapplingBlowLoopSkill@@@2@@std@@YAPAUStGrapInfo@ioGrapplingBlowLoopSkill@@V?$_Vector_const_iterator@V?$_Vector_val@UStGrapInfo@ioGrapplingBlowLoopSkill@@V?$allocator@UStGrapInfo@ioGrapplingBlowLoopSkill@@@std@@@std@@@0@0PAU12@AAV?$allocator@UStGrapInfo@ioGrapplingBlowLoopSkill@@@0@U_Nonscalar_ptr_iterator_tag@0@@Z DD 0ffffffffH
	DD	00H
	DD	0ffffffffH
	DD	00H
__tryblocktable$??$_Uninit_copy@V?$_Vector_const_iterator@V?$_Vector_val@UStGrapInfo@ioGrapplingBlowLoopSkill@@V?$allocator@UStGrapInfo@ioGrapplingBlowLoopSkill@@@std@@@std@@@std@@PAUStGrapInfo@ioGrapplingBlowLoopSkill@@V?$allocator@UStGrapInfo@ioGrapplingBlowLoopSkill@@@2@@std@@YAPAUStGrapInfo@ioGrapplingBlowLoopSkill@@V?$_Vector_const_iterator@V?$_Vector_val@UStGrapInfo@ioGrapplingBlowLoopSkill@@V?$allocator@UStGrapInfo@ioGrapplingBlowLoopSkill@@@std@@@std@@@0@0PAU12@AAV?$allocator@UStGrapInfo@ioGrapplingBlowLoopSkill@@@0@U_Nonscalar_ptr_iterator_tag@0@@Z DD 00H
	DD	00H
	DD	01H
	DD	01H
	DD	FLAT:__catchsym$??$_Uninit_copy@V?$_Vector_const_iterator@V?$_Vector_val@UStGrapInfo@ioGrapplingBlowLoopSkill@@V?$allocator@UStGrapInfo@ioGrapplingBlowLoopSkill@@@std@@@std@@@std@@PAUStGrapInfo@ioGrapplingBlowLoopSkill@@V?$allocator@UStGrapInfo@ioGrapplingBlowLoopSkill@@@2@@std@@YAPAUStGrapInfo@ioGrapplingBlowLoopSkill@@V?$_Vector_const_iterator@V?$_Vector_val@UStGrapInfo@ioGrapplingBlowLoopSkill@@V?$allocator@UStGrapInfo@ioGrapplingBlowLoopSkill@@@std@@@std@@@0@0PAU12@AAV?$allocator@UStGrapInfo@ioGrapplingBlowLoopSkill@@@0@U_Nonscalar_ptr_iterator_tag@0@@Z$2
__ehfuncinfo$??$_Uninit_copy@V?$_Vector_const_iterator@V?$_Vector_val@UStGrapInfo@ioGrapplingBlowLoopSkill@@V?$allocator@UStGrapInfo@ioGrapplingBlowLoopSkill@@@std@@@std@@@std@@PAUStGrapInfo@ioGrapplingBlowLoopSkill@@V?$allocator@UStGrapInfo@ioGrapplingBlowLoopSkill@@@2@@std@@YAPAUStGrapInfo@ioGrapplingBlowLoopSkill@@V?$_Vector_const_iterator@V?$_Vector_val@UStGrapInfo@ioGrapplingBlowLoopSkill@@V?$allocator@UStGrapInfo@ioGrapplingBlowLoopSkill@@@std@@@std@@@0@0PAU12@AAV?$allocator@UStGrapInfo@ioGrapplingBlowLoopSkill@@@0@U_Nonscalar_ptr_iterator_tag@0@@Z DD 019930522H
	DD	02H
	DD	FLAT:__unwindtable$??$_Uninit_copy@V?$_Vector_const_iterator@V?$_Vector_val@UStGrapInfo@ioGrapplingBlowLoopSkill@@V?$allocator@UStGrapInfo@ioGrapplingBlowLoopSkill@@@std@@@std@@@std@@PAUStGrapInfo@ioGrapplingBlowLoopSkill@@V?$allocator@UStGrapInfo@ioGrapplingBlowLoopSkill@@@2@@std@@YAPAUStGrapInfo@ioGrapplingBlowLoopSkill@@V?$_Vector_const_iterator@V?$_Vector_val@UStGrapInfo@ioGrapplingBlowLoopSkill@@V?$allocator@UStGrapInfo@ioGrapplingBlowLoopSkill@@@std@@@std@@@0@0PAU12@AAV?$allocator@UStGrapInfo@ioGrapplingBlowLoopSkill@@@0@U_Nonscalar_ptr_iterator_tag@0@@Z
	DD	01H
	DD	FLAT:__tryblocktable$??$_Uninit_copy@V?$_Vector_const_iterator@V?$_Vector_val@UStGrapInfo@ioGrapplingBlowLoopSkill@@V?$allocator@UStGrapInfo@ioGrapplingBlowLoopSkill@@@std@@@std@@@std@@PAUStGrapInfo@ioGrapplingBlowLoopSkill@@V?$allocator@UStGrapInfo@ioGrapplingBlowLoopSkill@@@2@@std@@YAPAUStGrapInfo@ioGrapplingBlowLoopSkill@@V?$_Vector_const_iterator@V?$_Vector_val@UStGrapInfo@ioGrapplingBlowLoopSkill@@V?$allocator@UStGrapInfo@ioGrapplingBlowLoopSkill@@@std@@@std@@@0@0PAU12@AAV?$allocator@UStGrapInfo@ioGrapplingBlowLoopSkill@@@0@U_Nonscalar_ptr_iterator_tag@0@@Z
	DD	2 DUP(00H)
	DD	00H
	DD	01H
; Function compile flags: /Ogsp
; File c:\program files (x86)\microsoft visual studio 10.0\vc\include\memory
xdata$x	ENDS
;	COMDAT ??$_Uninit_copy@V?$_Vector_const_iterator@V?$_Vector_val@UStGrapInfo@ioGrapplingBlowLoopSkill@@V?$allocator@UStGrapInfo@ioGrapplingBlowLoopSkill@@@std@@@std@@@std@@PAUStGrapInfo@ioGrapplingBlowLoopSkill@@V?$allocator@UStGrapInfo@ioGrapplingBlowLoopSkill@@@2@@std@@YAPAUStGrapInfo@ioGrapplingBlowLoopSkill@@V?$_Vector_const_iterator@V?$_Vector_val@UStGrapInfo@ioGrapplingBlowLoopSkill@@V?$allocator@UStGrapInfo@ioGrapplingBlowLoopSkill@@@std@@@std@@@0@0PAU12@AAV?$allocator@UStGrapInfo@ioGrapplingBlowLoopSkill@@@0@U_Nonscalar_ptr_iterator_tag@0@@Z
_TEXT	SEGMENT
__Next$ = -20						; size = 4
__$EHRec$ = -16						; size = 16
__First$ = 8						; size = 4
__Last$ = 12						; size = 4
__Dest$ = 16						; size = 4
__Al$ = 20						; size = 4
___formal$ = 24						; size = 1
??$_Uninit_copy@V?$_Vector_const_iterator@V?$_Vector_val@UStGrapInfo@ioGrapplingBlowLoopSkill@@V?$allocator@UStGrapInfo@ioGrapplingBlowLoopSkill@@@std@@@std@@@std@@PAUStGrapInfo@ioGrapplingBlowLoopSkill@@V?$allocator@UStGrapInfo@ioGrapplingBlowLoopSkill@@@2@@std@@YAPAUStGrapInfo@ioGrapplingBlowLoopSkill@@V?$_Vector_const_iterator@V?$_Vector_val@UStGrapInfo@ioGrapplingBlowLoopSkill@@V?$allocator@UStGrapInfo@ioGrapplingBlowLoopSkill@@@std@@@std@@@0@0PAU12@AAV?$allocator@UStGrapInfo@ioGrapplingBlowLoopSkill@@@0@U_Nonscalar_ptr_iterator_tag@0@@Z PROC ; std::_Uninit_copy<std::_Vector_const_iterator<std::_Vector_val<ioGrapplingBlowLoopSkill::StGrapInfo,std::allocator<ioGrapplingBlowLoopSkill::StGrapInfo> > >,ioGrapplingBlowLoopSkill::StGrapInfo *,std::allocator<ioGrapplingBlowLoopSkill::StGrapInfo> >, COMDAT

; 369  : 	{	// copy [_First, _Last) to raw _Dest, using _Al, arbitrary type

  00000	6a 08		 push	 8
  00002	b8 00 00 00 00	 mov	 eax, __ehhandler$??$_Uninit_copy@V?$_Vector_const_iterator@V?$_Vector_val@UStGrapInfo@ioGrapplingBlowLoopSkill@@V?$allocator@UStGrapInfo@ioGrapplingBlowLoopSkill@@@std@@@std@@@std@@PAUStGrapInfo@ioGrapplingBlowLoopSkill@@V?$allocator@UStGrapInfo@ioGrapplingBlowLoopSkill@@@2@@std@@YAPAUStGrapInfo@ioGrapplingBlowLoopSkill@@V?$_Vector_const_iterator@V?$_Vector_val@UStGrapInfo@ioGrapplingBlowLoopSkill@@V?$allocator@UStGrapInfo@ioGrapplingBlowLoopSkill@@@std@@@std@@@0@0PAU12@AAV?$allocator@UStGrapInfo@ioGrapplingBlowLoopSkill@@@0@U_Nonscalar_ptr_iterator_tag@0@@Z
  00007	e8 00 00 00 00	 call	 __EH_prolog3_catch

; 370  : 	_DEBUG_RANGE(_First, _Last);
; 371  : 	_DEBUG_POINTER(_Dest);
; 372  : 	_FwdIt _Next = _Dest;

  0000c	8b 45 10	 mov	 eax, DWORD PTR __Dest$[ebp]

; 373  : 
; 374  : 	_TRY_BEGIN

  0000f	83 65 fc 00	 and	 DWORD PTR __$EHRec$[ebp+12], 0
  00013	89 45 ec	 mov	 DWORD PTR __Next$[ebp], eax
  00016	be 80 00 00 00	 mov	 esi, 128		; 00000080H

; 375  : 	for (; _First != _Last; ++_Dest, ++_First)

$LL14@Uninit_cop@4:
  0001b	8b 45 08	 mov	 eax, DWORD PTR __First$[ebp]
  0001e	3b 45 0c	 cmp	 eax, DWORD PTR __Last$[ebp]
  00021	74 37		 je	 SHORT $LN4@Uninit_cop@4

; 376  : 		_Cons_val(_Al, _Dest, *_First);

  00023	50		 push	 eax
  00024	ff 75 10	 push	 DWORD PTR __Dest$[ebp]
  00027	e8 00 00 00 00	 call	 ??$_Construct@UStGrapInfo@ioGrapplingBlowLoopSkill@@ABU12@@std@@YAXPAUStGrapInfo@ioGrapplingBlowLoopSkill@@ABU12@@Z ; std::_Construct<ioGrapplingBlowLoopSkill::StGrapInfo,ioGrapplingBlowLoopSkill::StGrapInfo const &>
  0002c	01 75 10	 add	 DWORD PTR __Dest$[ebp], esi
  0002f	01 75 08	 add	 DWORD PTR __First$[ebp], esi
  00032	59		 pop	 ecx
  00033	59		 pop	 ecx
  00034	eb e5		 jmp	 SHORT $LL14@Uninit_cop@4
__catch$??$_Uninit_copy@V?$_Vector_const_iterator@V?$_Vector_val@UStGrapInfo@ioGrapplingBlowLoopSkill@@V?$allocator@UStGrapInfo@ioGrapplingBlowLoopSkill@@@std@@@std@@@std@@PAUStGrapInfo@ioGrapplingBlowLoopSkill@@V?$allocator@UStGrapInfo@ioGrapplingBlowLoopSkill@@@2@@std@@YAPAUStGrapInfo@ioGrapplingBlowLoopSkill@@V?$_Vector_const_iterator@V?$_Vector_val@UStGrapInfo@ioGrapplingBlowLoopSkill@@V?$allocator@UStGrapInfo@ioGrapplingBlowLoopSkill@@@std@@@std@@@0@0PAU12@AAV?$allocator@UStGrapInfo@ioGrapplingBlowLoopSkill@@@0@U_Nonscalar_ptr_iterator_tag@0@@Z$0:

; 377  : 	_CATCH_ALL
; 378  : 	for (; _Next != _Dest; ++_Next)

  00036	8b 7d ec	 mov	 edi, DWORD PTR __Next$[ebp]
  00039	3b 7d 10	 cmp	 edi, DWORD PTR __Dest$[ebp]
  0003c	74 13		 je	 SHORT $LN1@Uninit_cop@4
  0003e	be 80 00 00 00	 mov	 esi, 128		; 00000080H
$LL3@Uninit_cop@4:

; 379  : 		_Dest_val(_Al, _Next);

  00043	8b cf		 mov	 ecx, edi
  00045	e8 00 00 00 00	 call	 ??1StGrapInfo@ioGrapplingBlowLoopSkill@@QAE@XZ
  0004a	03 fe		 add	 edi, esi
  0004c	3b 7d 10	 cmp	 edi, DWORD PTR __Dest$[ebp]
  0004f	75 f2		 jne	 SHORT $LL3@Uninit_cop@4
$LN1@Uninit_cop@4:

; 380  : 	_RERAISE;

  00051	6a 00		 push	 0
  00053	6a 00		 push	 0
  00055	e8 00 00 00 00	 call	 __CxxThrowException@8
$LN45@Uninit_cop@4:
$LN4@Uninit_cop@4:

; 381  : 	_CATCH_END
; 382  : 	return (_Dest);

  0005a	8b 45 10	 mov	 eax, DWORD PTR __Dest$[ebp]

; 383  : 	}

  0005d	e8 00 00 00 00	 call	 __EH_epilog3
  00062	c3		 ret	 0
$LN44@Uninit_cop@4:
_TEXT	ENDS
;	COMDAT text$x
text$x	SEGMENT
__ehhandler$??$_Uninit_copy@V?$_Vector_const_iterator@V?$_Vector_val@UStGrapInfo@ioGrapplingBlowLoopSkill@@V?$allocator@UStGrapInfo@ioGrapplingBlowLoopSkill@@@std@@@std@@@std@@PAUStGrapInfo@ioGrapplingBlowLoopSkill@@V?$allocator@UStGrapInfo@ioGrapplingBlowLoopSkill@@@2@@std@@YAPAUStGrapInfo@ioGrapplingBlowLoopSkill@@V?$_Vector_const_iterator@V?$_Vector_val@UStGrapInfo@ioGrapplingBlowLoopSkill@@V?$allocator@UStGrapInfo@ioGrapplingBlowLoopSkill@@@std@@@std@@@0@0PAU12@AAV?$allocator@UStGrapInfo@ioGrapplingBlowLoopSkill@@@0@U_Nonscalar_ptr_iterator_tag@0@@Z:
  00000	8b 54 24 08	 mov	 edx, DWORD PTR [esp+8]
  00004	8d 42 0c	 lea	 eax, DWORD PTR [edx+12]
  00007	8b 4a e8	 mov	 ecx, DWORD PTR [edx-24]
  0000a	33 c8		 xor	 ecx, eax
  0000c	e8 00 00 00 00	 call	 @__security_check_cookie@4
  00011	b8 00 00 00 00	 mov	 eax, OFFSET __ehfuncinfo$??$_Uninit_copy@V?$_Vector_const_iterator@V?$_Vector_val@UStGrapInfo@ioGrapplingBlowLoopSkill@@V?$allocator@UStGrapInfo@ioGrapplingBlowLoopSkill@@@std@@@std@@@std@@PAUStGrapInfo@ioGrapplingBlowLoopSkill@@V?$allocator@UStGrapInfo@ioGrapplingBlowLoopSkill@@@2@@std@@YAPAUStGrapInfo@ioGrapplingBlowLoopSkill@@V?$_Vector_const_iterator@V?$_Vector_val@UStGrapInfo@ioGrapplingBlowLoopSkill@@V?$allocator@UStGrapInfo@ioGrapplingBlowLoopSkill@@@std@@@std@@@0@0PAU12@AAV?$allocator@UStGrapInfo@ioGrapplingBlowLoopSkill@@@0@U_Nonscalar_ptr_iterator_tag@0@@Z
  00016	e9 00 00 00 00	 jmp	 ___CxxFrameHandler3
text$x	ENDS
??$_Uninit_copy@V?$_Vector_const_iterator@V?$_Vector_val@UStGrapInfo@ioGrapplingBlowLoopSkill@@V?$allocator@UStGrapInfo@ioGrapplingBlowLoopSkill@@@std@@@std@@@std@@PAUStGrapInfo@ioGrapplingBlowLoopSkill@@V?$allocator@UStGrapInfo@ioGrapplingBlowLoopSkill@@@2@@std@@YAPAUStGrapInfo@ioGrapplingBlowLoopSkill@@V?$_Vector_const_iterator@V?$_Vector_val@UStGrapInfo@ioGrapplingBlowLoopSkill@@V?$allocator@UStGrapInfo@ioGrapplingBlowLoopSkill@@@std@@@std@@@0@0PAU12@AAV?$allocator@UStGrapInfo@ioGrapplingBlowLoopSkill@@@0@U_Nonscalar_ptr_iterator_tag@0@@Z ENDP ; std::_Uninit_copy<std::_Vector_const_iterator<std::_Vector_val<ioGrapplingBlowLoopSkill::StGrapInfo,std::allocator<ioGrapplingBlowLoopSkill::StGrapInfo> > >,ioGrapplingBlowLoopSkill::StGrapInfo *,std::allocator<ioGrapplingBlowLoopSkill::StGrapInfo> >
PUBLIC	??$_Uninit_move@PAUStGrapInfo@ioGrapplingBlowLoopSkill@@PAU12@V?$allocator@UStGrapInfo@ioGrapplingBlowLoopSkill@@@std@@U12@@std@@YAPAUStGrapInfo@ioGrapplingBlowLoopSkill@@PAU12@00AAV?$allocator@UStGrapInfo@ioGrapplingBlowLoopSkill@@@0@0U_Nonscalar_ptr_iterator_tag@0@@Z ; std::_Uninit_move<ioGrapplingBlowLoopSkill::StGrapInfo *,ioGrapplingBlowLoopSkill::StGrapInfo *,std::allocator<ioGrapplingBlowLoopSkill::StGrapInfo>,ioGrapplingBlowLoopSkill::StGrapInfo>
;	COMDAT xdata$x
; File c:\program files (x86)\microsoft visual studio 10.0\vc\include\vector
xdata$x	SEGMENT
__catchsym$??$_Uninit_move@PAUStGrapInfo@ioGrapplingBlowLoopSkill@@PAU12@V?$allocator@UStGrapInfo@ioGrapplingBlowLoopSkill@@@std@@U12@@std@@YAPAUStGrapInfo@ioGrapplingBlowLoopSkill@@PAU12@00AAV?$allocator@UStGrapInfo@ioGrapplingBlowLoopSkill@@@0@0U_Nonscalar_ptr_iterator_tag@0@@Z$2 DD 040H
	DD	00H
	DD	00H
	DD	FLAT:__catch$??$_Uninit_move@PAUStGrapInfo@ioGrapplingBlowLoopSkill@@PAU12@V?$allocator@UStGrapInfo@ioGrapplingBlowLoopSkill@@@std@@U12@@std@@YAPAUStGrapInfo@ioGrapplingBlowLoopSkill@@PAU12@00AAV?$allocator@UStGrapInfo@ioGrapplingBlowLoopSkill@@@0@0U_Nonscalar_ptr_iterator_tag@0@@Z$0
__unwindtable$??$_Uninit_move@PAUStGrapInfo@ioGrapplingBlowLoopSkill@@PAU12@V?$allocator@UStGrapInfo@ioGrapplingBlowLoopSkill@@@std@@U12@@std@@YAPAUStGrapInfo@ioGrapplingBlowLoopSkill@@PAU12@00AAV?$allocator@UStGrapInfo@ioGrapplingBlowLoopSkill@@@0@0U_Nonscalar_ptr_iterator_tag@0@@Z DD 0ffffffffH
	DD	00H
	DD	0ffffffffH
	DD	00H
__tryblocktable$??$_Uninit_move@PAUStGrapInfo@ioGrapplingBlowLoopSkill@@PAU12@V?$allocator@UStGrapInfo@ioGrapplingBlowLoopSkill@@@std@@U12@@std@@YAPAUStGrapInfo@ioGrapplingBlowLoopSkill@@PAU12@00AAV?$allocator@UStGrapInfo@ioGrapplingBlowLoopSkill@@@0@0U_Nonscalar_ptr_iterator_tag@0@@Z DD 00H
	DD	00H
	DD	01H
	DD	01H
	DD	FLAT:__catchsym$??$_Uninit_move@PAUStGrapInfo@ioGrapplingBlowLoopSkill@@PAU12@V?$allocator@UStGrapInfo@ioGrapplingBlowLoopSkill@@@std@@U12@@std@@YAPAUStGrapInfo@ioGrapplingBlowLoopSkill@@PAU12@00AAV?$allocator@UStGrapInfo@ioGrapplingBlowLoopSkill@@@0@0U_Nonscalar_ptr_iterator_tag@0@@Z$2
__ehfuncinfo$??$_Uninit_move@PAUStGrapInfo@ioGrapplingBlowLoopSkill@@PAU12@V?$allocator@UStGrapInfo@ioGrapplingBlowLoopSkill@@@std@@U12@@std@@YAPAUStGrapInfo@ioGrapplingBlowLoopSkill@@PAU12@00AAV?$allocator@UStGrapInfo@ioGrapplingBlowLoopSkill@@@0@0U_Nonscalar_ptr_iterator_tag@0@@Z DD 019930522H
	DD	02H
	DD	FLAT:__unwindtable$??$_Uninit_move@PAUStGrapInfo@ioGrapplingBlowLoopSkill@@PAU12@V?$allocator@UStGrapInfo@ioGrapplingBlowLoopSkill@@@std@@U12@@std@@YAPAUStGrapInfo@ioGrapplingBlowLoopSkill@@PAU12@00AAV?$allocator@UStGrapInfo@ioGrapplingBlowLoopSkill@@@0@0U_Nonscalar_ptr_iterator_tag@0@@Z
	DD	01H
	DD	FLAT:__tryblocktable$??$_Uninit_move@PAUStGrapInfo@ioGrapplingBlowLoopSkill@@PAU12@V?$allocator@UStGrapInfo@ioGrapplingBlowLoopSkill@@@std@@U12@@std@@YAPAUStGrapInfo@ioGrapplingBlowLoopSkill@@PAU12@00AAV?$allocator@UStGrapInfo@ioGrapplingBlowLoopSkill@@@0@0U_Nonscalar_ptr_iterator_tag@0@@Z
	DD	2 DUP(00H)
	DD	00H
	DD	01H
; Function compile flags: /Ogsp
; File c:\program files (x86)\microsoft visual studio 10.0\vc\include\memory
xdata$x	ENDS
;	COMDAT ??$_Uninit_move@PAUStGrapInfo@ioGrapplingBlowLoopSkill@@PAU12@V?$allocator@UStGrapInfo@ioGrapplingBlowLoopSkill@@@std@@U12@@std@@YAPAUStGrapInfo@ioGrapplingBlowLoopSkill@@PAU12@00AAV?$allocator@UStGrapInfo@ioGrapplingBlowLoopSkill@@@0@0U_Nonscalar_ptr_iterator_tag@0@@Z
_TEXT	SEGMENT
__Next$ = -20						; size = 4
__$EHRec$ = -16						; size = 16
__First$ = 8						; size = 4
__Last$ = 12						; size = 4
__Dest$ = 16						; size = 4
__Al$ = 20						; size = 4
___formal$ = 24						; size = 4
___formal$ = 28						; size = 1
??$_Uninit_move@PAUStGrapInfo@ioGrapplingBlowLoopSkill@@PAU12@V?$allocator@UStGrapInfo@ioGrapplingBlowLoopSkill@@@std@@U12@@std@@YAPAUStGrapInfo@ioGrapplingBlowLoopSkill@@PAU12@00AAV?$allocator@UStGrapInfo@ioGrapplingBlowLoopSkill@@@0@0U_Nonscalar_ptr_iterator_tag@0@@Z PROC ; std::_Uninit_move<ioGrapplingBlowLoopSkill::StGrapInfo *,ioGrapplingBlowLoopSkill::StGrapInfo *,std::allocator<ioGrapplingBlowLoopSkill::StGrapInfo>,ioGrapplingBlowLoopSkill::StGrapInfo>, COMDAT

; 424  : 	{	// move [_First, _Last) to raw _Dest, using _Al, arbitrary type

  00000	6a 08		 push	 8
  00002	b8 00 00 00 00	 mov	 eax, __ehhandler$??$_Uninit_move@PAUStGrapInfo@ioGrapplingBlowLoopSkill@@PAU12@V?$allocator@UStGrapInfo@ioGrapplingBlowLoopSkill@@@std@@U12@@std@@YAPAUStGrapInfo@ioGrapplingBlowLoopSkill@@PAU12@00AAV?$allocator@UStGrapInfo@ioGrapplingBlowLoopSkill@@@0@0U_Nonscalar_ptr_iterator_tag@0@@Z
  00007	e8 00 00 00 00	 call	 __EH_prolog3_catch

; 425  : 	_DEBUG_RANGE(_First, _Last);
; 426  : 	_DEBUG_POINTER(_Dest);
; 427  : 	_FwdIt _Next = _Dest;

  0000c	8b 45 10	 mov	 eax, DWORD PTR __Dest$[ebp]

; 428  : 
; 429  : 	_TRY_BEGIN

  0000f	83 65 fc 00	 and	 DWORD PTR __$EHRec$[ebp+12], 0
  00013	8b 7d 08	 mov	 edi, DWORD PTR __First$[ebp]
  00016	89 45 ec	 mov	 DWORD PTR __Next$[ebp], eax
  00019	be 80 00 00 00	 mov	 esi, 128		; 00000080H
$LL6@Uninit_mov@2:

; 430  : 	for (; _First != _Last; ++_Dest, ++_First)

  0001e	3b 7d 0c	 cmp	 edi, DWORD PTR __Last$[ebp]
  00021	74 3a		 je	 SHORT $LN4@Uninit_mov@2

; 431  : 		_Cons_val(_Al, _Dest, (_Valty &&)*_First);

  00023	57		 push	 edi
  00024	ff 75 10	 push	 DWORD PTR __Dest$[ebp]
  00027	ff 75 14	 push	 DWORD PTR __Al$[ebp]
  0002a	e8 00 00 00 00	 call	 ??$_Cons_val@V?$allocator@UStGrapInfo@ioGrapplingBlowLoopSkill@@@std@@UStGrapInfo@ioGrapplingBlowLoopSkill@@U34@@std@@YAXAAV?$allocator@UStGrapInfo@ioGrapplingBlowLoopSkill@@@0@PAUStGrapInfo@ioGrapplingBlowLoopSkill@@$$QAU23@@Z ; std::_Cons_val<std::allocator<ioGrapplingBlowLoopSkill::StGrapInfo>,ioGrapplingBlowLoopSkill::StGrapInfo,ioGrapplingBlowLoopSkill::StGrapInfo>
  0002f	01 75 10	 add	 DWORD PTR __Dest$[ebp], esi
  00032	83 c4 0c	 add	 esp, 12			; 0000000cH
  00035	03 fe		 add	 edi, esi
  00037	eb e5		 jmp	 SHORT $LL6@Uninit_mov@2
__catch$??$_Uninit_move@PAUStGrapInfo@ioGrapplingBlowLoopSkill@@PAU12@V?$allocator@UStGrapInfo@ioGrapplingBlowLoopSkill@@@std@@U12@@std@@YAPAUStGrapInfo@ioGrapplingBlowLoopSkill@@PAU12@00AAV?$allocator@UStGrapInfo@ioGrapplingBlowLoopSkill@@@0@0U_Nonscalar_ptr_iterator_tag@0@@Z$0:

; 432  : 	_CATCH_ALL
; 433  : 	for (; _Next != _Dest; ++_Next)

  00039	8b 7d ec	 mov	 edi, DWORD PTR __Next$[ebp]
  0003c	3b 7d 10	 cmp	 edi, DWORD PTR __Dest$[ebp]
  0003f	74 13		 je	 SHORT $LN1@Uninit_mov@2
  00041	be 80 00 00 00	 mov	 esi, 128		; 00000080H
$LL3@Uninit_mov@2:

; 434  : 		_Dest_val(_Al, _Next);

  00046	8b cf		 mov	 ecx, edi
  00048	e8 00 00 00 00	 call	 ??1StGrapInfo@ioGrapplingBlowLoopSkill@@QAE@XZ
  0004d	03 fe		 add	 edi, esi
  0004f	3b 7d 10	 cmp	 edi, DWORD PTR __Dest$[ebp]
  00052	75 f2		 jne	 SHORT $LL3@Uninit_mov@2
$LN1@Uninit_mov@2:

; 435  : 	_RERAISE;

  00054	6a 00		 push	 0
  00056	6a 00		 push	 0
  00058	e8 00 00 00 00	 call	 __CxxThrowException@8
$LN29@Uninit_mov@2:
$LN4@Uninit_mov@2:

; 436  : 	_CATCH_END
; 437  : 	return (_Dest);

  0005d	8b 45 10	 mov	 eax, DWORD PTR __Dest$[ebp]

; 438  : 	}

  00060	e8 00 00 00 00	 call	 __EH_epilog3
  00065	c3		 ret	 0
$LN28@Uninit_mov@2:
_TEXT	ENDS
;	COMDAT text$x
text$x	SEGMENT
__ehhandler$??$_Uninit_move@PAUStGrapInfo@ioGrapplingBlowLoopSkill@@PAU12@V?$allocator@UStGrapInfo@ioGrapplingBlowLoopSkill@@@std@@U12@@std@@YAPAUStGrapInfo@ioGrapplingBlowLoopSkill@@PAU12@00AAV?$allocator@UStGrapInfo@ioGrapplingBlowLoopSkill@@@0@0U_Nonscalar_ptr_iterator_tag@0@@Z:
  00000	8b 54 24 08	 mov	 edx, DWORD PTR [esp+8]
  00004	8d 42 0c	 lea	 eax, DWORD PTR [edx+12]
  00007	8b 4a e8	 mov	 ecx, DWORD PTR [edx-24]
  0000a	33 c8		 xor	 ecx, eax
  0000c	e8 00 00 00 00	 call	 @__security_check_cookie@4
  00011	b8 00 00 00 00	 mov	 eax, OFFSET __ehfuncinfo$??$_Uninit_move@PAUStGrapInfo@ioGrapplingBlowLoopSkill@@PAU12@V?$allocator@UStGrapInfo@ioGrapplingBlowLoopSkill@@@std@@U12@@std@@YAPAUStGrapInfo@ioGrapplingBlowLoopSkill@@PAU12@00AAV?$allocator@UStGrapInfo@ioGrapplingBlowLoopSkill@@@0@0U_Nonscalar_ptr_iterator_tag@0@@Z
  00016	e9 00 00 00 00	 jmp	 ___CxxFrameHandler3
text$x	ENDS
??$_Uninit_move@PAUStGrapInfo@ioGrapplingBlowLoopSkill@@PAU12@V?$allocator@UStGrapInfo@ioGrapplingBlowLoopSkill@@@std@@U12@@std@@YAPAUStGrapInfo@ioGrapplingBlowLoopSkill@@PAU12@00AAV?$allocator@UStGrapInfo@ioGrapplingBlowLoopSkill@@@0@0U_Nonscalar_ptr_iterator_tag@0@@Z ENDP ; std::_Uninit_move<ioGrapplingBlowLoopSkill::StGrapInfo *,ioGrapplingBlowLoopSkill::StGrapInfo *,std::allocator<ioGrapplingBlowLoopSkill::StGrapInfo>,ioGrapplingBlowLoopSkill::StGrapInfo>
PUBLIC	??$_Destroy_range@V?$allocator@UStGrapInfo@ioGrapplingBlowLoopSkill@@@std@@@std@@YAXPAUStGrapInfo@ioGrapplingBlowLoopSkill@@0AAV?$allocator@UStGrapInfo@ioGrapplingBlowLoopSkill@@@0@@Z ; std::_Destroy_range<std::allocator<ioGrapplingBlowLoopSkill::StGrapInfo> >
; Function compile flags: /Ogsp
; File c:\program files (x86)\microsoft visual studio 10.0\vc\include\xmemory
;	COMDAT ??$_Destroy_range@V?$allocator@UStGrapInfo@ioGrapplingBlowLoopSkill@@@std@@@std@@YAXPAUStGrapInfo@ioGrapplingBlowLoopSkill@@0AAV?$allocator@UStGrapInfo@ioGrapplingBlowLoopSkill@@@0@@Z
_TEXT	SEGMENT
__First$ = 8						; size = 4
__Last$ = 12						; size = 4
__Al$ = 16						; size = 4
??$_Destroy_range@V?$allocator@UStGrapInfo@ioGrapplingBlowLoopSkill@@@std@@@std@@YAXPAUStGrapInfo@ioGrapplingBlowLoopSkill@@0AAV?$allocator@UStGrapInfo@ioGrapplingBlowLoopSkill@@@0@@Z PROC ; std::_Destroy_range<std::allocator<ioGrapplingBlowLoopSkill::StGrapInfo> >, COMDAT

; 87   : 	{	// destroy [_First, _Last)

  00000	55		 push	 ebp
  00001	8b ec		 mov	 ebp, esp
  00003	56		 push	 esi

; 88   : 	_Destroy_range(_First, _Last, _Al, _Ptr_cat(_First, _Last));

  00004	8b 75 08	 mov	 esi, DWORD PTR __First$[ebp]
  00007	eb 0a		 jmp	 SHORT $LN21@Destroy_ra@6
$LL7@Destroy_ra@6:
  00009	8b ce		 mov	 ecx, esi
  0000b	e8 00 00 00 00	 call	 ??1StGrapInfo@ioGrapplingBlowLoopSkill@@QAE@XZ
  00010	83 ee 80	 sub	 esi, -128		; ffffff80H
$LN21@Destroy_ra@6:
  00013	3b 75 0c	 cmp	 esi, DWORD PTR __Last$[ebp]
  00016	75 f1		 jne	 SHORT $LL7@Destroy_ra@6
  00018	5e		 pop	 esi

; 89   : 	}

  00019	5d		 pop	 ebp
  0001a	c3		 ret	 0
??$_Destroy_range@V?$allocator@UStGrapInfo@ioGrapplingBlowLoopSkill@@@std@@@std@@YAXPAUStGrapInfo@ioGrapplingBlowLoopSkill@@0AAV?$allocator@UStGrapInfo@ioGrapplingBlowLoopSkill@@@0@@Z ENDP ; std::_Destroy_range<std::allocator<ioGrapplingBlowLoopSkill::StGrapInfo> >
_TEXT	ENDS
PUBLIC	??$_Uninitialized_copy@V?$_Vector_const_iterator@V?$_Vector_val@UStGrapInfo@ioGrapplingBlowLoopSkill@@V?$allocator@UStGrapInfo@ioGrapplingBlowLoopSkill@@@std@@@std@@@std@@PAUStGrapInfo@ioGrapplingBlowLoopSkill@@V?$allocator@UStGrapInfo@ioGrapplingBlowLoopSkill@@@2@@std@@YAPAUStGrapInfo@ioGrapplingBlowLoopSkill@@V?$_Vector_const_iterator@V?$_Vector_val@UStGrapInfo@ioGrapplingBlowLoopSkill@@V?$allocator@UStGrapInfo@ioGrapplingBlowLoopSkill@@@std@@@std@@@0@0PAU12@AAV?$allocator@UStGrapInfo@ioGrapplingBlowLoopSkill@@@0@@Z ; std::_Uninitialized_copy<std::_Vector_const_iterator<std::_Vector_val<ioGrapplingBlowLoopSkill::StGrapInfo,std::allocator<ioGrapplingBlowLoopSkill::StGrapInfo> > >,ioGrapplingBlowLoopSkill::StGrapInfo *,std::allocator<ioGrapplingBlowLoopSkill::StGrapInfo> >
; Function compile flags: /Ogsp
; File c:\program files (x86)\microsoft visual studio 10.0\vc\include\memory
;	COMDAT ??$_Uninitialized_copy@V?$_Vector_const_iterator@V?$_Vector_val@UStGrapInfo@ioGrapplingBlowLoopSkill@@V?$allocator@UStGrapInfo@ioGrapplingBlowLoopSkill@@@std@@@std@@@std@@PAUStGrapInfo@ioGrapplingBlowLoopSkill@@V?$allocator@UStGrapInfo@ioGrapplingBlowLoopSkill@@@2@@std@@YAPAUStGrapInfo@ioGrapplingBlowLoopSkill@@V?$_Vector_const_iterator@V?$_Vector_val@UStGrapInfo@ioGrapplingBlowLoopSkill@@V?$allocator@UStGrapInfo@ioGrapplingBlowLoopSkill@@@std@@@std@@@0@0PAU12@AAV?$allocator@UStGrapInfo@ioGrapplingBlowLoopSkill@@@0@@Z
_TEXT	SEGMENT
__Cat$561079 = -4					; size = 1
__First$ = 8						; size = 4
__Last$ = 12						; size = 4
__Dest$ = 16						; size = 4
__Al$ = 20						; size = 4
??$_Uninitialized_copy@V?$_Vector_const_iterator@V?$_Vector_val@UStGrapInfo@ioGrapplingBlowLoopSkill@@V?$allocator@UStGrapInfo@ioGrapplingBlowLoopSkill@@@std@@@std@@@std@@PAUStGrapInfo@ioGrapplingBlowLoopSkill@@V?$allocator@UStGrapInfo@ioGrapplingBlowLoopSkill@@@2@@std@@YAPAUStGrapInfo@ioGrapplingBlowLoopSkill@@V?$_Vector_const_iterator@V?$_Vector_val@UStGrapInfo@ioGrapplingBlowLoopSkill@@V?$allocator@UStGrapInfo@ioGrapplingBlowLoopSkill@@@std@@@std@@@0@0PAU12@AAV?$allocator@UStGrapInfo@ioGrapplingBlowLoopSkill@@@0@@Z PROC ; std::_Uninitialized_copy<std::_Vector_const_iterator<std::_Vector_val<ioGrapplingBlowLoopSkill::StGrapInfo,std::allocator<ioGrapplingBlowLoopSkill::StGrapInfo> > >,ioGrapplingBlowLoopSkill::StGrapInfo *,std::allocator<ioGrapplingBlowLoopSkill::StGrapInfo> >, COMDAT

; 412  : 	{	// copy [_First, _Last) to raw _Dest, using _Al

  00000	55		 push	 ebp
  00001	8b ec		 mov	 ebp, esp
  00003	51		 push	 ecx

; 413  : 	return (_Uninit_copy(_First, _Last, _Dest, _Al,
; 414  : 		_Ptr_cat(_First, _Dest)));

  00004	ff 75 fc	 push	 DWORD PTR __Cat$561079[ebp]
  00007	ff 75 14	 push	 DWORD PTR __Al$[ebp]
  0000a	ff 75 10	 push	 DWORD PTR __Dest$[ebp]
  0000d	ff 75 0c	 push	 DWORD PTR __Last$[ebp]
  00010	ff 75 08	 push	 DWORD PTR __First$[ebp]
  00013	e8 00 00 00 00	 call	 ??$_Uninit_copy@V?$_Vector_const_iterator@V?$_Vector_val@UStGrapInfo@ioGrapplingBlowLoopSkill@@V?$allocator@UStGrapInfo@ioGrapplingBlowLoopSkill@@@std@@@std@@@std@@PAUStGrapInfo@ioGrapplingBlowLoopSkill@@V?$allocator@UStGrapInfo@ioGrapplingBlowLoopSkill@@@2@@std@@YAPAUStGrapInfo@ioGrapplingBlowLoopSkill@@V?$_Vector_const_iterator@V?$_Vector_val@UStGrapInfo@ioGrapplingBlowLoopSkill@@V?$allocator@UStGrapInfo@ioGrapplingBlowLoopSkill@@@std@@@std@@@0@0PAU12@AAV?$allocator@UStGrapInfo@ioGrapplingBlowLoopSkill@@@0@U_Nonscalar_ptr_iterator_tag@0@@Z ; std::_Uninit_copy<std::_Vector_const_iterator<std::_Vector_val<ioGrapplingBlowLoopSkill::StGrapInfo,std::allocator<ioGrapplingBlowLoopSkill::StGrapInfo> > >,ioGrapplingBlowLoopSkill::StGrapInfo *,std::allocator<ioGrapplingBlowLoopSkill::StGrapInfo> >
  00018	83 c4 14	 add	 esp, 20			; 00000014H

; 415  : 	}

  0001b	c9		 leave
  0001c	c3		 ret	 0
??$_Uninitialized_copy@V?$_Vector_const_iterator@V?$_Vector_val@UStGrapInfo@ioGrapplingBlowLoopSkill@@V?$allocator@UStGrapInfo@ioGrapplingBlowLoopSkill@@@std@@@std@@@std@@PAUStGrapInfo@ioGrapplingBlowLoopSkill@@V?$allocator@UStGrapInfo@ioGrapplingBlowLoopSkill@@@2@@std@@YAPAUStGrapInfo@ioGrapplingBlowLoopSkill@@V?$_Vector_const_iterator@V?$_Vector_val@UStGrapInfo@ioGrapplingBlowLoopSkill@@V?$allocator@UStGrapInfo@ioGrapplingBlowLoopSkill@@@std@@@std@@@0@0PAU12@AAV?$allocator@UStGrapInfo@ioGrapplingBlowLoopSkill@@@0@@Z ENDP ; std::_Uninitialized_copy<std::_Vector_const_iterator<std::_Vector_val<ioGrapplingBlowLoopSkill::StGrapInfo,std::allocator<ioGrapplingBlowLoopSkill::StGrapInfo> > >,ioGrapplingBlowLoopSkill::StGrapInfo *,std::allocator<ioGrapplingBlowLoopSkill::StGrapInfo> >
_TEXT	ENDS
PUBLIC	??$_Uninitialized_move@PAUStGrapInfo@ioGrapplingBlowLoopSkill@@PAU12@V?$allocator@UStGrapInfo@ioGrapplingBlowLoopSkill@@@std@@@std@@YAPAUStGrapInfo@ioGrapplingBlowLoopSkill@@PAU12@00AAV?$allocator@UStGrapInfo@ioGrapplingBlowLoopSkill@@@0@@Z ; std::_Uninitialized_move<ioGrapplingBlowLoopSkill::StGrapInfo *,ioGrapplingBlowLoopSkill::StGrapInfo *,std::allocator<ioGrapplingBlowLoopSkill::StGrapInfo> >
; Function compile flags: /Ogsp
;	COMDAT ??$_Uninitialized_move@PAUStGrapInfo@ioGrapplingBlowLoopSkill@@PAU12@V?$allocator@UStGrapInfo@ioGrapplingBlowLoopSkill@@@std@@@std@@YAPAUStGrapInfo@ioGrapplingBlowLoopSkill@@PAU12@00AAV?$allocator@UStGrapInfo@ioGrapplingBlowLoopSkill@@@0@@Z
_TEXT	SEGMENT
__Cat$561086 = -4					; size = 1
__First$ = 8						; size = 4
__Last$ = 12						; size = 4
__Dest$ = 16						; size = 4
__Al$ = 20						; size = 4
??$_Uninitialized_move@PAUStGrapInfo@ioGrapplingBlowLoopSkill@@PAU12@V?$allocator@UStGrapInfo@ioGrapplingBlowLoopSkill@@@std@@@std@@YAPAUStGrapInfo@ioGrapplingBlowLoopSkill@@PAU12@00AAV?$allocator@UStGrapInfo@ioGrapplingBlowLoopSkill@@@0@@Z PROC ; std::_Uninitialized_move<ioGrapplingBlowLoopSkill::StGrapInfo *,ioGrapplingBlowLoopSkill::StGrapInfo *,std::allocator<ioGrapplingBlowLoopSkill::StGrapInfo> >, COMDAT

; 469  : 	{	// move [_First, _Last) to raw _Dest, using _Al

  00000	55		 push	 ebp
  00001	8b ec		 mov	 ebp, esp
  00003	51		 push	 ecx

; 470  : 	return (_Uninit_move(_First, _Last, _Dest, _Al,
; 471  : 		_Val_type(_First), _Ptr_cat(_First, _Dest)));

  00004	ff 75 fc	 push	 DWORD PTR __Cat$561086[ebp]
  00007	6a 00		 push	 0
  00009	ff 75 14	 push	 DWORD PTR __Al$[ebp]
  0000c	ff 75 10	 push	 DWORD PTR __Dest$[ebp]
  0000f	ff 75 0c	 push	 DWORD PTR __Last$[ebp]
  00012	ff 75 08	 push	 DWORD PTR __First$[ebp]
  00015	e8 00 00 00 00	 call	 ??$_Uninit_move@PAUStGrapInfo@ioGrapplingBlowLoopSkill@@PAU12@V?$allocator@UStGrapInfo@ioGrapplingBlowLoopSkill@@@std@@U12@@std@@YAPAUStGrapInfo@ioGrapplingBlowLoopSkill@@PAU12@00AAV?$allocator@UStGrapInfo@ioGrapplingBlowLoopSkill@@@0@0U_Nonscalar_ptr_iterator_tag@0@@Z ; std::_Uninit_move<ioGrapplingBlowLoopSkill::StGrapInfo *,ioGrapplingBlowLoopSkill::StGrapInfo *,std::allocator<ioGrapplingBlowLoopSkill::StGrapInfo>,ioGrapplingBlowLoopSkill::StGrapInfo>
  0001a	83 c4 18	 add	 esp, 24			; 00000018H

; 472  : 	}

  0001d	c9		 leave
  0001e	c3		 ret	 0
??$_Uninitialized_move@PAUStGrapInfo@ioGrapplingBlowLoopSkill@@PAU12@V?$allocator@UStGrapInfo@ioGrapplingBlowLoopSkill@@@std@@@std@@YAPAUStGrapInfo@ioGrapplingBlowLoopSkill@@PAU12@00AAV?$allocator@UStGrapInfo@ioGrapplingBlowLoopSkill@@@0@@Z ENDP ; std::_Uninitialized_move<ioGrapplingBlowLoopSkill::StGrapInfo *,ioGrapplingBlowLoopSkill::StGrapInfo *,std::allocator<ioGrapplingBlowLoopSkill::StGrapInfo> >
_TEXT	ENDS
PUBLIC	?_Destroy@?$vector@UStGrapInfo@ioGrapplingBlowLoopSkill@@V?$allocator@UStGrapInfo@ioGrapplingBlowLoopSkill@@@std@@@std@@IAEXPAUStGrapInfo@ioGrapplingBlowLoopSkill@@0@Z ; std::vector<ioGrapplingBlowLoopSkill::StGrapInfo,std::allocator<ioGrapplingBlowLoopSkill::StGrapInfo> >::_Destroy
; Function compile flags: /Ogsp
; File c:\program files (x86)\microsoft visual studio 10.0\vc\include\vector
;	COMDAT ?_Destroy@?$vector@UStGrapInfo@ioGrapplingBlowLoopSkill@@V?$allocator@UStGrapInfo@ioGrapplingBlowLoopSkill@@@std@@@std@@IAEXPAUStGrapInfo@ioGrapplingBlowLoopSkill@@0@Z
_TEXT	SEGMENT
__First$ = 8						; size = 4
__Last$ = 12						; size = 4
?_Destroy@?$vector@UStGrapInfo@ioGrapplingBlowLoopSkill@@V?$allocator@UStGrapInfo@ioGrapplingBlowLoopSkill@@@std@@@std@@IAEXPAUStGrapInfo@ioGrapplingBlowLoopSkill@@0@Z PROC ; std::vector<ioGrapplingBlowLoopSkill::StGrapInfo,std::allocator<ioGrapplingBlowLoopSkill::StGrapInfo> >::_Destroy, COMDAT
; _this$ = ecx

; 1269 : 		{	// destroy [_First, _Last) using allocator

  00000	55		 push	 ebp
  00001	8b ec		 mov	 ebp, esp
  00003	56		 push	 esi

; 1270 : 		_Destroy_range(_First, _Last, this->_Alval);

  00004	8b 75 08	 mov	 esi, DWORD PTR __First$[ebp]
  00007	eb 0a		 jmp	 SHORT $LN23@Destroy@2
$LL9@Destroy@2:
  00009	8b ce		 mov	 ecx, esi
  0000b	e8 00 00 00 00	 call	 ??1StGrapInfo@ioGrapplingBlowLoopSkill@@QAE@XZ
  00010	83 ee 80	 sub	 esi, -128		; ffffff80H
$LN23@Destroy@2:
  00013	3b 75 0c	 cmp	 esi, DWORD PTR __Last$[ebp]
  00016	75 f1		 jne	 SHORT $LL9@Destroy@2
  00018	5e		 pop	 esi

; 1271 : 		}

  00019	5d		 pop	 ebp
  0001a	c2 08 00	 ret	 8
?_Destroy@?$vector@UStGrapInfo@ioGrapplingBlowLoopSkill@@V?$allocator@UStGrapInfo@ioGrapplingBlowLoopSkill@@@std@@@std@@IAEXPAUStGrapInfo@ioGrapplingBlowLoopSkill@@0@Z ENDP ; std::vector<ioGrapplingBlowLoopSkill::StGrapInfo,std::allocator<ioGrapplingBlowLoopSkill::StGrapInfo> >::_Destroy
_TEXT	ENDS
PUBLIC	??$_Ucopy@V?$_Vector_const_iterator@V?$_Vector_val@UStGrapInfo@ioGrapplingBlowLoopSkill@@V?$allocator@UStGrapInfo@ioGrapplingBlowLoopSkill@@@std@@@std@@@std@@@?$vector@UStGrapInfo@ioGrapplingBlowLoopSkill@@V?$allocator@UStGrapInfo@ioGrapplingBlowLoopSkill@@@std@@@std@@IAEPAUStGrapInfo@ioGrapplingBlowLoopSkill@@V?$_Vector_const_iterator@V?$_Vector_val@UStGrapInfo@ioGrapplingBlowLoopSkill@@V?$allocator@UStGrapInfo@ioGrapplingBlowLoopSkill@@@std@@@std@@@1@0PAU23@@Z ; std::vector<ioGrapplingBlowLoopSkill::StGrapInfo,std::allocator<ioGrapplingBlowLoopSkill::StGrapInfo> >::_Ucopy<std::_Vector_const_iterator<std::_Vector_val<ioGrapplingBlowLoopSkill::StGrapInfo,std::allocator<ioGrapplingBlowLoopSkill::StGrapInfo> > > >
; Function compile flags: /Ogsp
;	COMDAT ??$_Ucopy@V?$_Vector_const_iterator@V?$_Vector_val@UStGrapInfo@ioGrapplingBlowLoopSkill@@V?$allocator@UStGrapInfo@ioGrapplingBlowLoopSkill@@@std@@@std@@@std@@@?$vector@UStGrapInfo@ioGrapplingBlowLoopSkill@@V?$allocator@UStGrapInfo@ioGrapplingBlowLoopSkill@@@std@@@std@@IAEPAUStGrapInfo@ioGrapplingBlowLoopSkill@@V?$_Vector_const_iterator@V?$_Vector_val@UStGrapInfo@ioGrapplingBlowLoopSkill@@V?$allocator@UStGrapInfo@ioGrapplingBlowLoopSkill@@@std@@@std@@@1@0PAU23@@Z
_TEXT	SEGMENT
__First$ = 8						; size = 4
__Last$ = 12						; size = 4
__Cat$561178 = 16					; size = 1
__Ptr$ = 16						; size = 4
??$_Ucopy@V?$_Vector_const_iterator@V?$_Vector_val@UStGrapInfo@ioGrapplingBlowLoopSkill@@V?$allocator@UStGrapInfo@ioGrapplingBlowLoopSkill@@@std@@@std@@@std@@@?$vector@UStGrapInfo@ioGrapplingBlowLoopSkill@@V?$allocator@UStGrapInfo@ioGrapplingBlowLoopSkill@@@std@@@std@@IAEPAUStGrapInfo@ioGrapplingBlowLoopSkill@@V?$_Vector_const_iterator@V?$_Vector_val@UStGrapInfo@ioGrapplingBlowLoopSkill@@V?$allocator@UStGrapInfo@ioGrapplingBlowLoopSkill@@@std@@@std@@@1@0PAU23@@Z PROC ; std::vector<ioGrapplingBlowLoopSkill::StGrapInfo,std::allocator<ioGrapplingBlowLoopSkill::StGrapInfo> >::_Ucopy<std::_Vector_const_iterator<std::_Vector_val<ioGrapplingBlowLoopSkill::StGrapInfo,std::allocator<ioGrapplingBlowLoopSkill::StGrapInfo> > > >, COMDAT
; _this$ = ecx

; 1315 : 		pointer _Ucopy(_Iter _First, _Iter _Last, pointer _Ptr)

  00000	55		 push	 ebp
  00001	8b ec		 mov	 ebp, esp

; 1316 : 		{	// copy initializing [_First, _Last), using allocator
; 1317 : 		return (_Uninitialized_copy(_First, _Last,
; 1318 : 			_Ptr, this->_Alval));

  00003	ff 75 10	 push	 DWORD PTR __Cat$561178[ebp]
  00006	83 c1 0c	 add	 ecx, 12			; 0000000cH
  00009	51		 push	 ecx
  0000a	ff 75 10	 push	 DWORD PTR __Ptr$[ebp]
  0000d	ff 75 0c	 push	 DWORD PTR __Last$[ebp]
  00010	ff 75 08	 push	 DWORD PTR __First$[ebp]
  00013	e8 00 00 00 00	 call	 ??$_Uninit_copy@V?$_Vector_const_iterator@V?$_Vector_val@UStGrapInfo@ioGrapplingBlowLoopSkill@@V?$allocator@UStGrapInfo@ioGrapplingBlowLoopSkill@@@std@@@std@@@std@@PAUStGrapInfo@ioGrapplingBlowLoopSkill@@V?$allocator@UStGrapInfo@ioGrapplingBlowLoopSkill@@@2@@std@@YAPAUStGrapInfo@ioGrapplingBlowLoopSkill@@V?$_Vector_const_iterator@V?$_Vector_val@UStGrapInfo@ioGrapplingBlowLoopSkill@@V?$allocator@UStGrapInfo@ioGrapplingBlowLoopSkill@@@std@@@std@@@0@0PAU12@AAV?$allocator@UStGrapInfo@ioGrapplingBlowLoopSkill@@@0@U_Nonscalar_ptr_iterator_tag@0@@Z ; std::_Uninit_copy<std::_Vector_const_iterator<std::_Vector_val<ioGrapplingBlowLoopSkill::StGrapInfo,std::allocator<ioGrapplingBlowLoopSkill::StGrapInfo> > >,ioGrapplingBlowLoopSkill::StGrapInfo *,std::allocator<ioGrapplingBlowLoopSkill::StGrapInfo> >
  00018	83 c4 14	 add	 esp, 20			; 00000014H

; 1319 : 		}

  0001b	5d		 pop	 ebp
  0001c	c2 0c 00	 ret	 12			; 0000000cH
??$_Ucopy@V?$_Vector_const_iterator@V?$_Vector_val@UStGrapInfo@ioGrapplingBlowLoopSkill@@V?$allocator@UStGrapInfo@ioGrapplingBlowLoopSkill@@@std@@@std@@@std@@@?$vector@UStGrapInfo@ioGrapplingBlowLoopSkill@@V?$allocator@UStGrapInfo@ioGrapplingBlowLoopSkill@@@std@@@std@@IAEPAUStGrapInfo@ioGrapplingBlowLoopSkill@@V?$_Vector_const_iterator@V?$_Vector_val@UStGrapInfo@ioGrapplingBlowLoopSkill@@V?$allocator@UStGrapInfo@ioGrapplingBlowLoopSkill@@@std@@@std@@@1@0PAU23@@Z ENDP ; std::vector<ioGrapplingBlowLoopSkill::StGrapInfo,std::allocator<ioGrapplingBlowLoopSkill::StGrapInfo> >::_Ucopy<std::_Vector_const_iterator<std::_Vector_val<ioGrapplingBlowLoopSkill::StGrapInfo,std::allocator<ioGrapplingBlowLoopSkill::StGrapInfo> > > >
_TEXT	ENDS
PUBLIC	??$_Umove@PAUStGrapInfo@ioGrapplingBlowLoopSkill@@@?$vector@UStGrapInfo@ioGrapplingBlowLoopSkill@@V?$allocator@UStGrapInfo@ioGrapplingBlowLoopSkill@@@std@@@std@@IAEPAUStGrapInfo@ioGrapplingBlowLoopSkill@@PAU23@00@Z ; std::vector<ioGrapplingBlowLoopSkill::StGrapInfo,std::allocator<ioGrapplingBlowLoopSkill::StGrapInfo> >::_Umove<ioGrapplingBlowLoopSkill::StGrapInfo *>
; Function compile flags: /Ogsp
;	COMDAT ??$_Umove@PAUStGrapInfo@ioGrapplingBlowLoopSkill@@@?$vector@UStGrapInfo@ioGrapplingBlowLoopSkill@@V?$allocator@UStGrapInfo@ioGrapplingBlowLoopSkill@@@std@@@std@@IAEPAUStGrapInfo@ioGrapplingBlowLoopSkill@@PAU23@00@Z
_TEXT	SEGMENT
__First$ = 8						; size = 4
__Last$ = 12						; size = 4
__Ptr$ = 16						; size = 4
??$_Umove@PAUStGrapInfo@ioGrapplingBlowLoopSkill@@@?$vector@UStGrapInfo@ioGrapplingBlowLoopSkill@@V?$allocator@UStGrapInfo@ioGrapplingBlowLoopSkill@@@std@@@std@@IAEPAUStGrapInfo@ioGrapplingBlowLoopSkill@@PAU23@00@Z PROC ; std::vector<ioGrapplingBlowLoopSkill::StGrapInfo,std::allocator<ioGrapplingBlowLoopSkill::StGrapInfo> >::_Umove<ioGrapplingBlowLoopSkill::StGrapInfo *>, COMDAT
; _this$ = ecx

; 1322 : 		pointer _Umove(_Iter _First, _Iter _Last, pointer _Ptr)

  00000	55		 push	 ebp
  00001	8b ec		 mov	 ebp, esp

; 1323 : 		{	// move initializing [_First, _Last), using allocator
; 1324 : 		return (_Uninitialized_move(_First, _Last,
; 1325 : 			_Ptr, this->_Alval));

  00003	83 c1 0c	 add	 ecx, 12			; 0000000cH
  00006	51		 push	 ecx
  00007	ff 75 10	 push	 DWORD PTR __Ptr$[ebp]
  0000a	ff 75 0c	 push	 DWORD PTR __Last$[ebp]
  0000d	ff 75 08	 push	 DWORD PTR __First$[ebp]
  00010	e8 00 00 00 00	 call	 ??$_Uninitialized_move@PAUStGrapInfo@ioGrapplingBlowLoopSkill@@PAU12@V?$allocator@UStGrapInfo@ioGrapplingBlowLoopSkill@@@std@@@std@@YAPAUStGrapInfo@ioGrapplingBlowLoopSkill@@PAU12@00AAV?$allocator@UStGrapInfo@ioGrapplingBlowLoopSkill@@@0@@Z ; std::_Uninitialized_move<ioGrapplingBlowLoopSkill::StGrapInfo *,ioGrapplingBlowLoopSkill::StGrapInfo *,std::allocator<ioGrapplingBlowLoopSkill::StGrapInfo> >
  00015	83 c4 10	 add	 esp, 16			; 00000010H

; 1326 : 		}

  00018	5d		 pop	 ebp
  00019	c2 0c 00	 ret	 12			; 0000000cH
??$_Umove@PAUStGrapInfo@ioGrapplingBlowLoopSkill@@@?$vector@UStGrapInfo@ioGrapplingBlowLoopSkill@@V?$allocator@UStGrapInfo@ioGrapplingBlowLoopSkill@@@std@@@std@@IAEPAUStGrapInfo@ioGrapplingBlowLoopSkill@@PAU23@00@Z ENDP ; std::vector<ioGrapplingBlowLoopSkill::StGrapInfo,std::allocator<ioGrapplingBlowLoopSkill::StGrapInfo> >::_Umove<ioGrapplingBlowLoopSkill::StGrapInfo *>
_TEXT	ENDS
PUBLIC	?_Tidy@?$vector@UStGrapInfo@ioGrapplingBlowLoopSkill@@V?$allocator@UStGrapInfo@ioGrapplingBlowLoopSkill@@@std@@@std@@IAEXXZ ; std::vector<ioGrapplingBlowLoopSkill::StGrapInfo,std::allocator<ioGrapplingBlowLoopSkill::StGrapInfo> >::_Tidy
; Function compile flags: /Ogsp
;	COMDAT ?_Tidy@?$vector@UStGrapInfo@ioGrapplingBlowLoopSkill@@V?$allocator@UStGrapInfo@ioGrapplingBlowLoopSkill@@@std@@@std@@IAEXXZ
_TEXT	SEGMENT
?_Tidy@?$vector@UStGrapInfo@ioGrapplingBlowLoopSkill@@V?$allocator@UStGrapInfo@ioGrapplingBlowLoopSkill@@@std@@@std@@IAEXXZ PROC ; std::vector<ioGrapplingBlowLoopSkill::StGrapInfo,std::allocator<ioGrapplingBlowLoopSkill::StGrapInfo> >::_Tidy, COMDAT
; _this$ = ecx

; 1301 : 		{	// free all storage

  00000	56		 push	 esi
  00001	8b f1		 mov	 esi, ecx

; 1302 : 		if (this->_Myfirst != 0)

  00003	83 3e 00	 cmp	 DWORD PTR [esi], 0
  00006	74 27		 je	 SHORT $LN24@Tidy@4

; 1303 : 			{	// something to free, destroy and deallocate it
; 1304 : 			this->_Orphan_all();

  00008	53		 push	 ebx
  00009	57		 push	 edi
  0000a	ff 15 00 00 00
	00		 call	 DWORD PTR __imp_?_Orphan_all@_Container_base0@std@@QAEXXZ

; 1305 : 			_Destroy(this->_Myfirst, this->_Mylast);

  00010	8b 5e 04	 mov	 ebx, DWORD PTR [esi+4]
  00013	8b 3e		 mov	 edi, DWORD PTR [esi]
  00015	eb 0a		 jmp	 SHORT $LN28@Tidy@4
$LL12@Tidy@4:
  00017	8b cf		 mov	 ecx, edi
  00019	e8 00 00 00 00	 call	 ??1StGrapInfo@ioGrapplingBlowLoopSkill@@QAE@XZ
  0001e	83 ef 80	 sub	 edi, -128		; ffffff80H
$LN28@Tidy@4:
  00021	3b fb		 cmp	 edi, ebx
  00023	75 f2		 jne	 SHORT $LL12@Tidy@4

; 1306 : 			this->_Alval.deallocate(this->_Myfirst,
; 1307 : 				this->_Myend - this->_Myfirst);

  00025	ff 36		 push	 DWORD PTR [esi]
  00027	e8 00 00 00 00	 call	 ??3@YAXPAX@Z		; operator delete
  0002c	59		 pop	 ecx
  0002d	5f		 pop	 edi
  0002e	5b		 pop	 ebx
$LN24@Tidy@4:

; 1308 : 			}
; 1309 : 		this->_Myfirst = 0;

  0002f	33 c0		 xor	 eax, eax
  00031	89 06		 mov	 DWORD PTR [esi], eax

; 1310 : 		this->_Mylast = 0;

  00033	89 46 04	 mov	 DWORD PTR [esi+4], eax

; 1311 : 		this->_Myend = 0;

  00036	89 46 08	 mov	 DWORD PTR [esi+8], eax
  00039	5e		 pop	 esi

; 1312 : 		}

  0003a	c3		 ret	 0
?_Tidy@?$vector@UStGrapInfo@ioGrapplingBlowLoopSkill@@V?$allocator@UStGrapInfo@ioGrapplingBlowLoopSkill@@@std@@@std@@IAEXXZ ENDP ; std::vector<ioGrapplingBlowLoopSkill::StGrapInfo,std::allocator<ioGrapplingBlowLoopSkill::StGrapInfo> >::_Tidy
_TEXT	ENDS
PUBLIC	?reserve@?$vector@UStGrapInfo@ioGrapplingBlowLoopSkill@@V?$allocator@UStGrapInfo@ioGrapplingBlowLoopSkill@@@std@@@std@@QAEXI@Z ; std::vector<ioGrapplingBlowLoopSkill::StGrapInfo,std::allocator<ioGrapplingBlowLoopSkill::StGrapInfo> >::reserve
;	COMDAT xdata$x
; File c:\program files (x86)\microsoft visual studio 10.0\vc\include\xmemory
xdata$x	SEGMENT
__catchsym$?reserve@?$vector@UStGrapInfo@ioGrapplingBlowLoopSkill@@V?$allocator@UStGrapInfo@ioGrapplingBlowLoopSkill@@@std@@@std@@QAEXI@Z$2 DD 040H
	DD	00H
	DD	00H
	DD	FLAT:__catch$?reserve@?$vector@UStGrapInfo@ioGrapplingBlowLoopSkill@@V?$allocator@UStGrapInfo@ioGrapplingBlowLoopSkill@@@std@@@std@@QAEXI@Z$0
__unwindtable$?reserve@?$vector@UStGrapInfo@ioGrapplingBlowLoopSkill@@V?$allocator@UStGrapInfo@ioGrapplingBlowLoopSkill@@@std@@@std@@QAEXI@Z DD 0ffffffffH
	DD	00H
	DD	0ffffffffH
	DD	00H
__tryblocktable$?reserve@?$vector@UStGrapInfo@ioGrapplingBlowLoopSkill@@V?$allocator@UStGrapInfo@ioGrapplingBlowLoopSkill@@@std@@@std@@QAEXI@Z DD 00H
	DD	00H
	DD	01H
	DD	01H
	DD	FLAT:__catchsym$?reserve@?$vector@UStGrapInfo@ioGrapplingBlowLoopSkill@@V?$allocator@UStGrapInfo@ioGrapplingBlowLoopSkill@@@std@@@std@@QAEXI@Z$2
__ehfuncinfo$?reserve@?$vector@UStGrapInfo@ioGrapplingBlowLoopSkill@@V?$allocator@UStGrapInfo@ioGrapplingBlowLoopSkill@@@std@@@std@@QAEXI@Z DD 019930522H
	DD	02H
	DD	FLAT:__unwindtable$?reserve@?$vector@UStGrapInfo@ioGrapplingBlowLoopSkill@@V?$allocator@UStGrapInfo@ioGrapplingBlowLoopSkill@@@std@@@std@@QAEXI@Z
	DD	01H
	DD	FLAT:__tryblocktable$?reserve@?$vector@UStGrapInfo@ioGrapplingBlowLoopSkill@@V?$allocator@UStGrapInfo@ioGrapplingBlowLoopSkill@@@std@@@std@@QAEXI@Z
	DD	2 DUP(00H)
	DD	00H
	DD	01H
; Function compile flags: /Ogsp
; File c:\program files (x86)\microsoft visual studio 10.0\vc\include\vector
xdata$x	ENDS
;	COMDAT ?reserve@?$vector@UStGrapInfo@ioGrapplingBlowLoopSkill@@V?$allocator@UStGrapInfo@ioGrapplingBlowLoopSkill@@@std@@@std@@QAEXI@Z
_TEXT	SEGMENT
tv300 = -24						; size = 4
__Ptr$551888 = -20					; size = 4
__$EHRec$ = -16						; size = 16
$T561383 = 8						; size = 4
__Count$ = 8						; size = 4
?reserve@?$vector@UStGrapInfo@ioGrapplingBlowLoopSkill@@V?$allocator@UStGrapInfo@ioGrapplingBlowLoopSkill@@@std@@@std@@QAEXI@Z PROC ; std::vector<ioGrapplingBlowLoopSkill::StGrapInfo,std::allocator<ioGrapplingBlowLoopSkill::StGrapInfo> >::reserve, COMDAT
; _this$ = ecx

; 746  : 		{	// determine new minimum length of allocated storage

  00000	6a 0c		 push	 12			; 0000000cH
  00002	b8 00 00 00 00	 mov	 eax, __ehhandler$?reserve@?$vector@UStGrapInfo@ioGrapplingBlowLoopSkill@@V?$allocator@UStGrapInfo@ioGrapplingBlowLoopSkill@@@std@@@std@@QAEXI@Z
  00007	e8 00 00 00 00	 call	 __EH_prolog3_catch
  0000c	8b f1		 mov	 esi, ecx

; 747  : 		if (max_size() < _Count)

  0000e	8b 5d 08	 mov	 ebx, DWORD PTR __Count$[ebp]
  00011	81 fb ff ff ff
	01		 cmp	 ebx, 33554431		; 01ffffffH
  00017	76 0b		 jbe	 SHORT $LN5@reserve@2

; 748  : 			_Xlen();	// result too long

  00019	68 00 00 00 00	 push	 OFFSET ??_C@_0BD@OLBABOEK@vector?$DMT?$DO?5too?5long?$AA@
  0001e	ff 15 00 00 00
	00		 call	 DWORD PTR __imp_?_Xlength_error@std@@YAXPBD@Z
$LN59@reserve@2:
$LN5@reserve@2:

; 749  : 		else if (capacity() < _Count)

  00024	8b 46 08	 mov	 eax, DWORD PTR [esi+8]
  00027	2b 06		 sub	 eax, DWORD PTR [esi]
  00029	c1 f8 07	 sar	 eax, 7
  0002c	3b c3		 cmp	 eax, ebx
  0002e	73 79		 jae	 SHORT $LN3@reserve@2

; 750  : 			{	// not enough room, reallocate
; 751  : 			pointer _Ptr = this->_Alval.allocate(_Count);

  00030	6a 00		 push	 0
  00032	53		 push	 ebx
  00033	e8 00 00 00 00	 call	 ??$_Allocate@UStGrapInfo@ioGrapplingBlowLoopSkill@@@std@@YAPAUStGrapInfo@ioGrapplingBlowLoopSkill@@IPAU12@@Z ; std::_Allocate<ioGrapplingBlowLoopSkill::StGrapInfo>

; 752  : 
; 753  : 			_TRY_BEGIN
; 754  : 			_Umove(this->_Myfirst, this->_Mylast, _Ptr);

  00038	8b 0e		 mov	 ecx, DWORD PTR [esi]
  0003a	83 65 fc 00	 and	 DWORD PTR __$EHRec$[ebp+12], 0
  0003e	8d 56 0c	 lea	 edx, DWORD PTR [esi+12]
  00041	52		 push	 edx
  00042	89 45 ec	 mov	 DWORD PTR __Ptr$551888[ebp], eax
  00045	ff 75 ec	 push	 DWORD PTR __Ptr$551888[ebp]
  00048	8b 46 04	 mov	 eax, DWORD PTR [esi+4]
  0004b	50		 push	 eax
  0004c	51		 push	 ecx
  0004d	e8 00 00 00 00	 call	 ??$_Uninitialized_move@PAUStGrapInfo@ioGrapplingBlowLoopSkill@@PAU12@V?$allocator@UStGrapInfo@ioGrapplingBlowLoopSkill@@@std@@@std@@YAPAUStGrapInfo@ioGrapplingBlowLoopSkill@@PAU12@00AAV?$allocator@UStGrapInfo@ioGrapplingBlowLoopSkill@@@0@@Z ; std::_Uninitialized_move<ioGrapplingBlowLoopSkill::StGrapInfo *,ioGrapplingBlowLoopSkill::StGrapInfo *,std::allocator<ioGrapplingBlowLoopSkill::StGrapInfo> >

; 758  : 			_CATCH_END
; 759  : 
; 760  : 			size_type _Size = size();

  00052	8b 4e 04	 mov	 ecx, DWORD PTR [esi+4]
  00055	8b 06		 mov	 eax, DWORD PTR [esi]
  00057	83 4d fc ff	 or	 DWORD PTR __$EHRec$[ebp+12], -1
  0005b	8b f9		 mov	 edi, ecx
  0005d	83 c4 18	 add	 esp, 24			; 00000018H
  00060	2b f8		 sub	 edi, eax
  00062	89 4d e8	 mov	 DWORD PTR tv300[ebp], ecx
  00065	85 c0		 test	 eax, eax
  00067	74 23		 je	 SHORT $LN51@reserve@2

; 761  : 			if (this->_Myfirst != 0)
; 762  : 				{	// destroy and deallocate old array
; 763  : 				_Destroy(this->_Myfirst, this->_Mylast);

  00069	89 45 08	 mov	 DWORD PTR $T561383[ebp], eax
  0006c	3b c1		 cmp	 eax, ecx
  0006e	74 14		 je	 SHORT $LN37@reserve@2
$LN39@reserve@2:
  00070	8b 4d 08	 mov	 ecx, DWORD PTR $T561383[ebp]
  00073	e8 00 00 00 00	 call	 ??1StGrapInfo@ioGrapplingBlowLoopSkill@@QAE@XZ
  00078	83 6d 08 80	 sub	 DWORD PTR $T561383[ebp], -128 ; ffffff80H
  0007c	8b 45 08	 mov	 eax, DWORD PTR $T561383[ebp]
  0007f	3b 45 e8	 cmp	 eax, DWORD PTR tv300[ebp]
  00082	75 ec		 jne	 SHORT $LN39@reserve@2
$LN37@reserve@2:

; 764  : 				this->_Alval.deallocate(this->_Myfirst,
; 765  : 					this->_Myend - this->_Myfirst);

  00084	ff 36		 push	 DWORD PTR [esi]
  00086	e8 00 00 00 00	 call	 ??3@YAXPAX@Z		; operator delete
  0008b	59		 pop	 ecx
$LN51@reserve@2:

; 766  : 				}
; 767  : 
; 768  : 			this->_Orphan_all();

  0008c	8b ce		 mov	 ecx, esi
  0008e	ff 15 00 00 00
	00		 call	 DWORD PTR __imp_?_Orphan_all@_Container_base0@std@@QAEXXZ

; 769  : 			this->_Myend = _Ptr + _Count;

  00094	8b 45 ec	 mov	 eax, DWORD PTR __Ptr$551888[ebp]
  00097	c1 e3 07	 shl	 ebx, 7
  0009a	03 d8		 add	 ebx, eax

; 770  : 			this->_Mylast = _Ptr + _Size;

  0009c	83 e7 80	 and	 edi, -128		; ffffff80H
  0009f	03 f8		 add	 edi, eax
  000a1	89 5e 08	 mov	 DWORD PTR [esi+8], ebx
  000a4	89 7e 04	 mov	 DWORD PTR [esi+4], edi

; 771  : 			this->_Myfirst = _Ptr;

  000a7	89 06		 mov	 DWORD PTR [esi], eax
$LN3@reserve@2:

; 772  : 			}
; 773  : 		}

  000a9	e8 00 00 00 00	 call	 __EH_epilog3
  000ae	c2 04 00	 ret	 4
__catch$?reserve@?$vector@UStGrapInfo@ioGrapplingBlowLoopSkill@@V?$allocator@UStGrapInfo@ioGrapplingBlowLoopSkill@@@std@@@std@@QAEXI@Z$0:

; 755  : 			_CATCH_ALL
; 756  : 			this->_Alval.deallocate(_Ptr, _Count);

  000b1	ff 75 ec	 push	 DWORD PTR __Ptr$551888[ebp]
  000b4	e8 00 00 00 00	 call	 ??3@YAXPAX@Z		; operator delete
  000b9	59		 pop	 ecx

; 757  : 			_RERAISE;

  000ba	6a 00		 push	 0
  000bc	6a 00		 push	 0
  000be	e8 00 00 00 00	 call	 __CxxThrowException@8
$LN60@reserve@2:
$LN58@reserve@2:
  000c3	cc		 int	 3
_TEXT	ENDS
;	COMDAT text$x
text$x	SEGMENT
__ehhandler$?reserve@?$vector@UStGrapInfo@ioGrapplingBlowLoopSkill@@V?$allocator@UStGrapInfo@ioGrapplingBlowLoopSkill@@@std@@@std@@QAEXI@Z:
  00000	8b 54 24 08	 mov	 edx, DWORD PTR [esp+8]
  00004	8d 42 0c	 lea	 eax, DWORD PTR [edx+12]
  00007	8b 4a e4	 mov	 ecx, DWORD PTR [edx-28]
  0000a	33 c8		 xor	 ecx, eax
  0000c	e8 00 00 00 00	 call	 @__security_check_cookie@4
  00011	b8 00 00 00 00	 mov	 eax, OFFSET __ehfuncinfo$?reserve@?$vector@UStGrapInfo@ioGrapplingBlowLoopSkill@@V?$allocator@UStGrapInfo@ioGrapplingBlowLoopSkill@@@std@@@std@@QAEXI@Z
  00016	e9 00 00 00 00	 jmp	 ___CxxFrameHandler3
text$x	ENDS
?reserve@?$vector@UStGrapInfo@ioGrapplingBlowLoopSkill@@V?$allocator@UStGrapInfo@ioGrapplingBlowLoopSkill@@@std@@@std@@QAEXI@Z ENDP ; std::vector<ioGrapplingBlowLoopSkill::StGrapInfo,std::allocator<ioGrapplingBlowLoopSkill::StGrapInfo> >::reserve
PUBLIC	??0?$vector@UStGrapInfo@ioGrapplingBlowLoopSkill@@V?$allocator@UStGrapInfo@ioGrapplingBlowLoopSkill@@@std@@@std@@QAE@ABV01@@Z ; std::vector<ioGrapplingBlowLoopSkill::StGrapInfo,std::allocator<ioGrapplingBlowLoopSkill::StGrapInfo> >::vector<ioGrapplingBlowLoopSkill::StGrapInfo,std::allocator<ioGrapplingBlowLoopSkill::StGrapInfo> >
;	COMDAT xdata$x
; File c:\program files (x86)\microsoft visual studio 10.0\vc\include\xutility
xdata$x	SEGMENT
__catchsym$??0?$vector@UStGrapInfo@ioGrapplingBlowLoopSkill@@V?$allocator@UStGrapInfo@ioGrapplingBlowLoopSkill@@@std@@@std@@QAE@ABV01@@Z$2 DD 040H
	DD	00H
	DD	00H
	DD	FLAT:__catch$??0?$vector@UStGrapInfo@ioGrapplingBlowLoopSkill@@V?$allocator@UStGrapInfo@ioGrapplingBlowLoopSkill@@@std@@@std@@QAE@ABV01@@Z$0
__unwindtable$??0?$vector@UStGrapInfo@ioGrapplingBlowLoopSkill@@V?$allocator@UStGrapInfo@ioGrapplingBlowLoopSkill@@@std@@@std@@QAE@ABV01@@Z DD 0ffffffffH
	DD	00H
	DD	0ffffffffH
	DD	00H
__tryblocktable$??0?$vector@UStGrapInfo@ioGrapplingBlowLoopSkill@@V?$allocator@UStGrapInfo@ioGrapplingBlowLoopSkill@@@std@@@std@@QAE@ABV01@@Z DD 00H
	DD	00H
	DD	01H
	DD	01H
	DD	FLAT:__catchsym$??0?$vector@UStGrapInfo@ioGrapplingBlowLoopSkill@@V?$allocator@UStGrapInfo@ioGrapplingBlowLoopSkill@@@std@@@std@@QAE@ABV01@@Z$2
__ehfuncinfo$??0?$vector@UStGrapInfo@ioGrapplingBlowLoopSkill@@V?$allocator@UStGrapInfo@ioGrapplingBlowLoopSkill@@@std@@@std@@QAE@ABV01@@Z DD 019930522H
	DD	02H
	DD	FLAT:__unwindtable$??0?$vector@UStGrapInfo@ioGrapplingBlowLoopSkill@@V?$allocator@UStGrapInfo@ioGrapplingBlowLoopSkill@@@std@@@std@@QAE@ABV01@@Z
	DD	01H
	DD	FLAT:__tryblocktable$??0?$vector@UStGrapInfo@ioGrapplingBlowLoopSkill@@V?$allocator@UStGrapInfo@ioGrapplingBlowLoopSkill@@@std@@@std@@QAE@ABV01@@Z
	DD	2 DUP(00H)
	DD	00H
	DD	01H
; Function compile flags: /Ogsp
; File c:\program files (x86)\microsoft visual studio 10.0\vc\include\vector
xdata$x	ENDS
;	COMDAT ??0?$vector@UStGrapInfo@ioGrapplingBlowLoopSkill@@V?$allocator@UStGrapInfo@ioGrapplingBlowLoopSkill@@@std@@@std@@QAE@ABV01@@Z
_TEXT	SEGMENT
_this$ = -20						; size = 4
__$EHRec$ = -16						; size = 16
__Cat$561527 = 8					; size = 1
__Right$ = 8						; size = 4
??0?$vector@UStGrapInfo@ioGrapplingBlowLoopSkill@@V?$allocator@UStGrapInfo@ioGrapplingBlowLoopSkill@@@std@@@std@@QAE@ABV01@@Z PROC ; std::vector<ioGrapplingBlowLoopSkill::StGrapInfo,std::allocator<ioGrapplingBlowLoopSkill::StGrapInfo> >::vector<ioGrapplingBlowLoopSkill::StGrapInfo,std::allocator<ioGrapplingBlowLoopSkill::StGrapInfo> >, COMDAT
; _this$ = ecx

; 535  : 		{	// construct by copying _Right

  00000	6a 08		 push	 8
  00002	b8 00 00 00 00	 mov	 eax, __ehhandler$??0?$vector@UStGrapInfo@ioGrapplingBlowLoopSkill@@V?$allocator@UStGrapInfo@ioGrapplingBlowLoopSkill@@@std@@@std@@QAE@ABV01@@Z
  00007	e8 00 00 00 00	 call	 __EH_prolog3_catch
  0000c	8b f1		 mov	 esi, ecx
  0000e	89 75 ec	 mov	 DWORD PTR _this$[ebp], esi

; 536  : 		if (_Buy(_Right.size()))

  00011	8b 7d 08	 mov	 edi, DWORD PTR __Right$[ebp]
  00014	33 db		 xor	 ebx, ebx
  00016	89 1e		 mov	 DWORD PTR [esi], ebx
  00018	89 5e 04	 mov	 DWORD PTR [esi+4], ebx
  0001b	89 5e 08	 mov	 DWORD PTR [esi+8], ebx
  0001e	8b 47 04	 mov	 eax, DWORD PTR [edi+4]
  00021	2b 07		 sub	 eax, DWORD PTR [edi]
  00023	c1 f8 07	 sar	 eax, 7
  00026	50		 push	 eax
  00027	e8 00 00 00 00	 call	 ?_Buy@?$vector@UStGrapInfo@ioGrapplingBlowLoopSkill@@V?$allocator@UStGrapInfo@ioGrapplingBlowLoopSkill@@@std@@@std@@IAE_NI@Z ; std::vector<ioGrapplingBlowLoopSkill::StGrapInfo,std::allocator<ioGrapplingBlowLoopSkill::StGrapInfo> >::_Buy
  0002c	84 c0		 test	 al, al
  0002e	74 1f		 je	 SHORT $LN7@vector@4

; 537  : 			_TRY_BEGIN
; 538  : 			this->_Mylast = _Ucopy(_Right.begin(), _Right.end(),
; 539  : 				this->_Myfirst);

  00030	ff 75 08	 push	 DWORD PTR __Cat$561527[ebp]
  00033	8b 0e		 mov	 ecx, DWORD PTR [esi]
  00035	8b 47 04	 mov	 eax, DWORD PTR [edi+4]
  00038	8b 3f		 mov	 edi, DWORD PTR [edi]
  0003a	8d 56 0c	 lea	 edx, DWORD PTR [esi+12]
  0003d	52		 push	 edx
  0003e	51		 push	 ecx
  0003f	50		 push	 eax
  00040	57		 push	 edi
  00041	89 5d fc	 mov	 DWORD PTR __$EHRec$[ebp+12], ebx
  00044	e8 00 00 00 00	 call	 ??$_Uninit_copy@V?$_Vector_const_iterator@V?$_Vector_val@UStGrapInfo@ioGrapplingBlowLoopSkill@@V?$allocator@UStGrapInfo@ioGrapplingBlowLoopSkill@@@std@@@std@@@std@@PAUStGrapInfo@ioGrapplingBlowLoopSkill@@V?$allocator@UStGrapInfo@ioGrapplingBlowLoopSkill@@@2@@std@@YAPAUStGrapInfo@ioGrapplingBlowLoopSkill@@V?$_Vector_const_iterator@V?$_Vector_val@UStGrapInfo@ioGrapplingBlowLoopSkill@@V?$allocator@UStGrapInfo@ioGrapplingBlowLoopSkill@@@std@@@std@@@0@0PAU12@AAV?$allocator@UStGrapInfo@ioGrapplingBlowLoopSkill@@@0@U_Nonscalar_ptr_iterator_tag@0@@Z ; std::_Uninit_copy<std::_Vector_const_iterator<std::_Vector_val<ioGrapplingBlowLoopSkill::StGrapInfo,std::allocator<ioGrapplingBlowLoopSkill::StGrapInfo> > >,ioGrapplingBlowLoopSkill::StGrapInfo *,std::allocator<ioGrapplingBlowLoopSkill::StGrapInfo> >
  00049	83 c4 14	 add	 esp, 20			; 00000014H
  0004c	89 46 04	 mov	 DWORD PTR [esi+4], eax
$LN7@vector@4:

; 543  : 			_CATCH_END
; 544  : 		}

  0004f	8b c6		 mov	 eax, esi
  00051	e8 00 00 00 00	 call	 __EH_epilog3
  00056	c2 04 00	 ret	 4
__catch$??0?$vector@UStGrapInfo@ioGrapplingBlowLoopSkill@@V?$allocator@UStGrapInfo@ioGrapplingBlowLoopSkill@@@std@@@std@@QAE@ABV01@@Z$0:

; 540  : 			_CATCH_ALL
; 541  : 			_Tidy();

  00059	8b 4d ec	 mov	 ecx, DWORD PTR _this$[ebp]
  0005c	e8 00 00 00 00	 call	 ?_Tidy@?$vector@UStGrapInfo@ioGrapplingBlowLoopSkill@@V?$allocator@UStGrapInfo@ioGrapplingBlowLoopSkill@@@std@@@std@@IAEXXZ ; std::vector<ioGrapplingBlowLoopSkill::StGrapInfo,std::allocator<ioGrapplingBlowLoopSkill::StGrapInfo> >::_Tidy

; 542  : 			_RERAISE;

  00061	33 db		 xor	 ebx, ebx
  00063	53		 push	 ebx
  00064	53		 push	 ebx
  00065	e8 00 00 00 00	 call	 __CxxThrowException@8
$LN38@vector@4:
$LN37@vector@4:
  0006a	cc		 int	 3
_TEXT	ENDS
;	COMDAT text$x
text$x	SEGMENT
__ehhandler$??0?$vector@UStGrapInfo@ioGrapplingBlowLoopSkill@@V?$allocator@UStGrapInfo@ioGrapplingBlowLoopSkill@@@std@@@std@@QAE@ABV01@@Z:
  00000	8b 54 24 08	 mov	 edx, DWORD PTR [esp+8]
  00004	8d 42 0c	 lea	 eax, DWORD PTR [edx+12]
  00007	8b 4a e8	 mov	 ecx, DWORD PTR [edx-24]
  0000a	33 c8		 xor	 ecx, eax
  0000c	e8 00 00 00 00	 call	 @__security_check_cookie@4
  00011	b8 00 00 00 00	 mov	 eax, OFFSET __ehfuncinfo$??0?$vector@UStGrapInfo@ioGrapplingBlowLoopSkill@@V?$allocator@UStGrapInfo@ioGrapplingBlowLoopSkill@@@std@@@std@@QAE@ABV01@@Z
  00016	e9 00 00 00 00	 jmp	 ___CxxFrameHandler3
text$x	ENDS
??0?$vector@UStGrapInfo@ioGrapplingBlowLoopSkill@@V?$allocator@UStGrapInfo@ioGrapplingBlowLoopSkill@@@std@@@std@@QAE@ABV01@@Z ENDP ; std::vector<ioGrapplingBlowLoopSkill::StGrapInfo,std::allocator<ioGrapplingBlowLoopSkill::StGrapInfo> >::vector<ioGrapplingBlowLoopSkill::StGrapInfo,std::allocator<ioGrapplingBlowLoopSkill::StGrapInfo> >
PUBLIC	??1?$vector@UStGrapInfo@ioGrapplingBlowLoopSkill@@V?$allocator@UStGrapInfo@ioGrapplingBlowLoopSkill@@@std@@@std@@QAE@XZ ; std::vector<ioGrapplingBlowLoopSkill::StGrapInfo,std::allocator<ioGrapplingBlowLoopSkill::StGrapInfo> >::~vector<ioGrapplingBlowLoopSkill::StGrapInfo,std::allocator<ioGrapplingBlowLoopSkill::StGrapInfo> >
; Function compile flags: /Ogsp
;	COMDAT ??1?$vector@UStGrapInfo@ioGrapplingBlowLoopSkill@@V?$allocator@UStGrapInfo@ioGrapplingBlowLoopSkill@@@std@@@std@@QAE@XZ
_TEXT	SEGMENT
??1?$vector@UStGrapInfo@ioGrapplingBlowLoopSkill@@V?$allocator@UStGrapInfo@ioGrapplingBlowLoopSkill@@@std@@@std@@QAE@XZ PROC ; std::vector<ioGrapplingBlowLoopSkill::StGrapInfo,std::allocator<ioGrapplingBlowLoopSkill::StGrapInfo> >::~vector<ioGrapplingBlowLoopSkill::StGrapInfo,std::allocator<ioGrapplingBlowLoopSkill::StGrapInfo> >, COMDAT
; _this$ = ecx

; 705  : 		_Tidy();

  00000	e9 00 00 00 00	 jmp	 ?_Tidy@?$vector@UStGrapInfo@ioGrapplingBlowLoopSkill@@V?$allocator@UStGrapInfo@ioGrapplingBlowLoopSkill@@@std@@@std@@IAEXXZ ; std::vector<ioGrapplingBlowLoopSkill::StGrapInfo,std::allocator<ioGrapplingBlowLoopSkill::StGrapInfo> >::_Tidy
??1?$vector@UStGrapInfo@ioGrapplingBlowLoopSkill@@V?$allocator@UStGrapInfo@ioGrapplingBlowLoopSkill@@@std@@@std@@QAE@XZ ENDP ; std::vector<ioGrapplingBlowLoopSkill::StGrapInfo,std::allocator<ioGrapplingBlowLoopSkill::StGrapInfo> >::~vector<ioGrapplingBlowLoopSkill::StGrapInfo,std::allocator<ioGrapplingBlowLoopSkill::StGrapInfo> >
_TEXT	ENDS
PUBLIC	?_Reserve@?$vector@UStGrapInfo@ioGrapplingBlowLoopSkill@@V?$allocator@UStGrapInfo@ioGrapplingBlowLoopSkill@@@std@@@std@@IAEXI@Z ; std::vector<ioGrapplingBlowLoopSkill::StGrapInfo,std::allocator<ioGrapplingBlowLoopSkill::StGrapInfo> >::_Reserve
; Function compile flags: /Ogsp
;	COMDAT ?_Reserve@?$vector@UStGrapInfo@ioGrapplingBlowLoopSkill@@V?$allocator@UStGrapInfo@ioGrapplingBlowLoopSkill@@@std@@@std@@IAEXI@Z
_TEXT	SEGMENT
__Count$ = 8						; size = 4
?_Reserve@?$vector@UStGrapInfo@ioGrapplingBlowLoopSkill@@V?$allocator@UStGrapInfo@ioGrapplingBlowLoopSkill@@@std@@@std@@IAEXI@Z PROC ; std::vector<ioGrapplingBlowLoopSkill::StGrapInfo,std::allocator<ioGrapplingBlowLoopSkill::StGrapInfo> >::_Reserve, COMDAT
; _this$ = ecx

; 1290 : 		{	// ensure room for _Count new elements, grow exponentially

  00000	55		 push	 ebp
  00001	8b ec		 mov	 ebp, esp
  00003	56		 push	 esi
  00004	8b f1		 mov	 esi, ecx

; 1291 : 		size_type _Size = size();

  00006	8b 0e		 mov	 ecx, DWORD PTR [esi]
  00008	8b 46 04	 mov	 eax, DWORD PTR [esi+4]
  0000b	2b c1		 sub	 eax, ecx

; 1292 : 		if (max_size() - _Count < _Size)

  0000d	ba ff ff ff 01	 mov	 edx, 33554431		; 01ffffffH
  00012	2b 55 08	 sub	 edx, DWORD PTR __Count$[ebp]
  00015	c1 f8 07	 sar	 eax, 7
  00018	3b d0		 cmp	 edx, eax
  0001a	73 0b		 jae	 SHORT $LN4@Reserve@2

; 1293 : 			_Xlen();

  0001c	68 00 00 00 00	 push	 OFFSET ??_C@_0BD@OLBABOEK@vector?$DMT?$DO?5too?5long?$AA@
  00021	ff 15 00 00 00
	00		 call	 DWORD PTR __imp_?_Xlength_error@std@@YAXPBD@Z
$LN21@Reserve@2:
$LN4@Reserve@2:

; 1294 : 		else if ((_Size += _Count) <= capacity())

  00027	8b 56 08	 mov	 edx, DWORD PTR [esi+8]
  0002a	03 45 08	 add	 eax, DWORD PTR __Count$[ebp]
  0002d	2b d1		 sub	 edx, ecx
  0002f	c1 fa 07	 sar	 edx, 7
  00032	3b c2		 cmp	 eax, edx
  00034	76 10		 jbe	 SHORT $LN1@Reserve@2

; 1295 : 			;
; 1296 : 		else
; 1297 : 			reserve(_Grow_to(_Size));

  00036	50		 push	 eax
  00037	8b ce		 mov	 ecx, esi
  00039	e8 00 00 00 00	 call	 ?_Grow_to@?$vector@UStGrapInfo@ioGrapplingBlowLoopSkill@@V?$allocator@UStGrapInfo@ioGrapplingBlowLoopSkill@@@std@@@std@@IBEII@Z ; std::vector<ioGrapplingBlowLoopSkill::StGrapInfo,std::allocator<ioGrapplingBlowLoopSkill::StGrapInfo> >::_Grow_to
  0003e	50		 push	 eax
  0003f	8b ce		 mov	 ecx, esi
  00041	e8 00 00 00 00	 call	 ?reserve@?$vector@UStGrapInfo@ioGrapplingBlowLoopSkill@@V?$allocator@UStGrapInfo@ioGrapplingBlowLoopSkill@@@std@@@std@@QAEXI@Z ; std::vector<ioGrapplingBlowLoopSkill::StGrapInfo,std::allocator<ioGrapplingBlowLoopSkill::StGrapInfo> >::reserve
$LN1@Reserve@2:
  00046	5e		 pop	 esi

; 1298 : 		}

  00047	5d		 pop	 ebp
  00048	c2 04 00	 ret	 4
$LN20@Reserve@2:
?_Reserve@?$vector@UStGrapInfo@ioGrapplingBlowLoopSkill@@V?$allocator@UStGrapInfo@ioGrapplingBlowLoopSkill@@@std@@@std@@IAEXI@Z ENDP ; std::vector<ioGrapplingBlowLoopSkill::StGrapInfo,std::allocator<ioGrapplingBlowLoopSkill::StGrapInfo> >::_Reserve
_TEXT	ENDS
PUBLIC	??_7ioGrapplingBlowLoopSkill@@6B@		; ioGrapplingBlowLoopSkill::`vftable'
PUBLIC	??0ioGrapplingBlowLoopSkill@@QAE@XZ		; ioGrapplingBlowLoopSkill::ioGrapplingBlowLoopSkill
PUBLIC	??_R4ioGrapplingBlowLoopSkill@@6B@		; ioGrapplingBlowLoopSkill::`RTTI Complete Object Locator'
PUBLIC	??_R0?AVioGrapplingBlowLoopSkill@@@8		; ioGrapplingBlowLoopSkill `RTTI Type Descriptor'
PUBLIC	??_R3ioGrapplingBlowLoopSkill@@8		; ioGrapplingBlowLoopSkill::`RTTI Class Hierarchy Descriptor'
PUBLIC	??_R2ioGrapplingBlowLoopSkill@@8		; ioGrapplingBlowLoopSkill::`RTTI Base Class Array'
PUBLIC	??_R1A@?0A@EA@ioGrapplingBlowLoopSkill@@8	; ioGrapplingBlowLoopSkill::`RTTI Base Class Descriptor at (0,-1,0,64)'
PUBLIC	??_R1A@?0A@EA@ioAttackSkill@@8			; ioAttackSkill::`RTTI Base Class Descriptor at (0,-1,0,64)'
PUBLIC	??_R0?AVioAttackSkill@@@8			; ioAttackSkill `RTTI Type Descriptor'
PUBLIC	??_R3ioAttackSkill@@8				; ioAttackSkill::`RTTI Class Hierarchy Descriptor'
PUBLIC	??_R2ioAttackSkill@@8				; ioAttackSkill::`RTTI Base Class Array'
PUBLIC	??_R1A@?0A@EA@ioSkill@@8			; ioSkill::`RTTI Base Class Descriptor at (0,-1,0,64)'
PUBLIC	??_R0?AVioSkill@@@8				; ioSkill `RTTI Type Descriptor'
PUBLIC	??_R3ioSkill@@8					; ioSkill::`RTTI Class Hierarchy Descriptor'
PUBLIC	??_R2ioSkill@@8					; ioSkill::`RTTI Base Class Array'
PUBLIC	?LoadProperty@ioGrapplingBlowLoopSkill@@UAEXAAVioINILoader@@@Z ; ioGrapplingBlowLoopSkill::LoadProperty
PUBLIC	?Clone@ioGrapplingBlowLoopSkill@@UAEPAVioSkill@@XZ ; ioGrapplingBlowLoopSkill::Clone
PUBLIC	?GetDefenseSkillBreakeType@ioSkill@@UBE?AW4DefenseBreakType@@XZ ; ioSkill::GetDefenseSkillBreakeType
PUBLIC	?GetSkillEndNextJumpAmt@ioSkill@@UBEMXZ		; ioSkill::GetSkillEndNextJumpAmt
PUBLIC	?GetSkillEndNextLandRate@ioSkill@@UBEMXZ	; ioSkill::GetSkillEndNextLandRate
PUBLIC	?GetSkillEndNextJumpMustEnable@ioSkill@@UAE?AW4SkillEndJumpType@@XZ ; ioSkill::GetSkillEndNextJumpMustEnable
PUBLIC	?EnableChangeGrapplingTargetPos@ioSkill@@UBE_NXZ ; ioSkill::EnableChangeGrapplingTargetPos
PUBLIC	?IsInvisibleBottomCircle@ioSkill@@UAE_NPAVioBaseChar@@@Z ; ioSkill::IsInvisibleBottomCircle
PUBLIC	?IsCanJumpingSkill@ioSkill@@UBE_NXZ		; ioSkill::IsCanJumpingSkill
PUBLIC	?IsCanJumpingSkillOnBlowWound@ioSkill@@UBE_NXZ	; ioSkill::IsCanJumpingSkillOnBlowWound
PUBLIC	?IsCanDownSkill@ioSkill@@UBE_NXZ		; ioSkill::IsCanDownSkill
PUBLIC	?IsCanBlowWoundSkill@ioSkill@@UBE_NXZ		; ioSkill::IsCanBlowWoundSkill
PUBLIC	?IsCanWoundSkill@ioSkill@@UBE_NXZ		; ioSkill::IsCanWoundSkill
PUBLIC	?IsUseActiveCnt@ioSkill@@UBE_NXZ		; ioSkill::IsUseActiveCnt
PUBLIC	?GetMaxActiveCnt@ioSkill@@UBEHPAVioBaseChar@@@Z	; ioSkill::GetMaxActiveCnt
PUBLIC	?GetCurActiveCnt@ioSkill@@UBEHPAVioBaseChar@@@Z	; ioSkill::GetCurActiveCnt
EXTRN	??1ioAttackSkill@@UAE@XZ:PROC			; ioAttackSkill::~ioAttackSkill
EXTRN	??0ioAttackSkill@@QAE@XZ:PROC			; ioAttackSkill::ioAttackSkill
EXTRN	?GetTypeID@ioAttackSkill@@UBEHXZ:PROC		; ioAttackSkill::GetTypeID
EXTRN	?IsCanSwitchSkill@ioSkill@@UBE_NXZ:PROC		; ioSkill::IsCanSwitchSkill
EXTRN	?IsCanSemiSwitchSkill@ioSkill@@UBE_NXZ:PROC	; ioSkill::IsCanSemiSwitchSkill
EXTRN	?IsCanCancelBySkill@ioSkill@@UBE_NPAVioBaseChar@@AAH@Z:PROC ; ioSkill::IsCanCancelBySkill
EXTRN	?IsCanUseZeroHP@ioSkill@@UBE_NPAVioBaseChar@@@Z:PROC ; ioSkill::IsCanUseZeroHP
EXTRN	?IsCanUseSkillWithCrown@ioSkill@@UAE_NPAVioBaseChar@@@Z:PROC ; ioSkill::IsCanUseSkillWithCrown
EXTRN	?IsCanUseBoss@ioSkill@@UBE_NPAVioBaseChar@@@Z:PROC ; ioSkill::IsCanUseBoss
EXTRN	?IsCanUseFootball@ioSkill@@UBE_NXZ:PROC		; ioSkill::IsCanUseFootball
EXTRN	?IsCanUseGangSiMode@ioSkill@@UBE_NXZ:PROC	; ioSkill::IsCanUseGangSiMode
EXTRN	?IsCanUseByWeaponType@ioSkill@@UBE_NPAVioBaseChar@@@Z:PROC ; ioSkill::IsCanUseByWeaponType
EXTRN	?IsCanUseThunderBirdHold@ioSkill@@UBE_NPAVioBaseChar@@@Z:PROC ; ioSkill::IsCanUseThunderBirdHold
EXTRN	?IsCanUseLimitHP@ioSkill@@UBE_NPAVioBaseChar@@@Z:PROC ; ioSkill::IsCanUseLimitHP
EXTRN	?IsCanUseSkill@ioAttackSkill@@UAE_NPAVioBaseChar@@_N@Z:PROC ; ioAttackSkill::IsCanUseSkill
EXTRN	?IsOnOffEnable@ioSkill@@UAE_NXZ:PROC		; ioSkill::IsOnOffEnable
EXTRN	?IsCanDefenseStateSkill@ioSkill@@UAE_NXZ:PROC	; ioSkill::IsCanDefenseStateSkill
EXTRN	?SetDefenseStateSkill@ioSkill@@UAEXPAVioBaseChar@@@Z:PROC ; ioSkill::SetDefenseStateSkill
EXTRN	?HasBuff@ioSkill@@UBE_NH@Z:PROC			; ioSkill::HasBuff
EXTRN	?GetBuffType@ioSkill@@UAEHH@Z:PROC		; ioSkill::GetBuffType
EXTRN	?IsCharSkipState@ioSkill@@UBE?AW4SkillCharColType@@XZ:PROC ; ioSkill::IsCharSkipState
EXTRN	?IsEntityCollisionSkipState@ioSkill@@UBE_NXZ:PROC ; ioSkill::IsEntityCollisionSkipState
EXTRN	?IsEndState@ioSkill@@UBE_NXZ:PROC		; ioSkill::IsEndState
EXTRN	?IsAttackEndState@ioAttackSkill@@UBE_NXZ:PROC	; ioAttackSkill::IsAttackEndState
EXTRN	?IsJumpState@ioSkill@@UBE_NXZ:PROC		; ioSkill::IsJumpState
EXTRN	?IsDownState@ioSkill@@UBE_NXZ:PROC		; ioSkill::IsDownState
EXTRN	?IsCanSendControl@ioSkill@@UBE_NXZ:PROC		; ioSkill::IsCanSendControl
EXTRN	?IsSkipState@ioSkill@@UBE_NXZ:PROC		; ioSkill::IsSkipState
EXTRN	?GetSkillMoveRate@ioSkill@@UBEMXZ:PROC		; ioSkill::GetSkillMoveRate
EXTRN	?GetGrapplingTargetPos@ioSkill@@UAE?AUD3DXVECTOR3@@PAVioBaseChar@@0@Z:PROC ; ioSkill::GetGrapplingTargetPos
EXTRN	?GetSkillWoundGrapplingInfo@ioSkill@@UAE?AUGrapplingSkillWoundedInfo@@XZ:PROC ; ioSkill::GetSkillWoundGrapplingInfo
EXTRN	?SetCreateWeaponDependency@ioSkill@@UAEXPAVioBaseChar@@PAVioPlayStage@@@Z:PROC ; ioSkill::SetCreateWeaponDependency
EXTRN	?SetNextSkillState@ioSkill@@UAEXPAVioBaseChar@@PAVioWeapon@@@Z:PROC ; ioSkill::SetNextSkillState
EXTRN	?OnSkillEndByWounded@ioSkill@@UAEXPAVioBaseChar@@@Z:PROC ; ioSkill::OnSkillEndByWounded
EXTRN	?OnProcessNotUseSkill@ioSkill@@UAEXPAVioBaseChar@@PAVioPlayStage@@@Z:PROC ; ioSkill::OnProcessNotUseSkill
EXTRN	?OnSkillItemRelease@ioSkill@@UAEXPAVioBaseChar@@@Z:PROC ; ioSkill::OnSkillItemRelease
EXTRN	?ApplyEquipSlotSkillExtraInfo@ioSkill@@UAEXPAVioBaseChar@@PAVioPlayStage@@AAVSP2Packet@@@Z:PROC ; ioSkill::ApplyEquipSlotSkillExtraInfo
EXTRN	?ApplyExtraPassiveSkillInfo@ioSkill@@UAEXPAVioBaseChar@@PAVioPlayStage@@AAVSP2Packet@@@Z:PROC ; ioSkill::ApplyExtraPassiveSkillInfo
EXTRN	?StartPreDelayEffect@ioAttackSkill@@UAEXPAVioBaseChar@@@Z:PROC ; ioAttackSkill::StartPreDelayEffect
EXTRN	?EndPreDelayEffect@ioAttackSkill@@UAEXPAVioBaseChar@@@Z:PROC ; ioAttackSkill::EndPreDelayEffect
EXTRN	?IsUseAutoTargetValue@ioAttackSkill@@UAE_NXZ:PROC ; ioAttackSkill::IsUseAutoTargetValue
EXTRN	?IsAutoTargetDownState@ioSkill@@UAE_NXZ:PROC	; ioSkill::IsAutoTargetDownState
EXTRN	?CheckUseBuff@ioSkill@@UAE_NPAVioBaseChar@@@Z:PROC ; ioSkill::CheckUseBuff
EXTRN	?CheckUseActiveCount@ioSkill@@UAE_NXZ:PROC	; ioSkill::CheckUseActiveCount
EXTRN	?CheckAniRotate@ioSkill@@UAEXPAVioBaseChar@@@Z:PROC ; ioSkill::CheckAniRotate
EXTRN	?IsEnableDashCheck@ioSkill@@UAE_NPAVioBaseChar@@@Z:PROC ; ioSkill::IsEnableDashCheck
EXTRN	?IsEnableMultiActive@ioSkill@@UAE_NPAVioBaseChar@@@Z:PROC ; ioSkill::IsEnableMultiActive
EXTRN	?GetAutoTargetValue@ioSkill@@UAEXAAM00@Z:PROC	; ioSkill::GetAutoTargetValue
EXTRN	?GetSkillGravityRate@ioSkill@@UAEMXZ:PROC	; ioSkill::GetSkillGravityRate
EXTRN	?GetSkillMotionName@ioSkill@@UBEABVioHashString@@XZ:PROC ; ioSkill::GetSkillMotionName
EXTRN	?HasSkillMotion@ioSkill@@UBE_NXZ:PROC		; ioSkill::HasSkillMotion
EXTRN	?GetSkillMotionRate@ioSkill@@UBEMXZ:PROC	; ioSkill::GetSkillMotionRate
EXTRN	?IsPreDelayProtect@ioSkill@@UBE_NXZ:PROC	; ioSkill::IsPreDelayProtect
EXTRN	?GetPreDelayAniName@ioSkill@@UBEABVioHashString@@XZ:PROC ; ioSkill::GetPreDelayAniName
EXTRN	?GetPreDelayTime@ioSkill@@UBEKXZ:PROC		; ioSkill::GetPreDelayTime
EXTRN	?GetPreDelayOwnerEffect@ioSkill@@UBEABVioHashString@@XZ:PROC ; ioSkill::GetPreDelayOwnerEffect
EXTRN	?GetPreDelayOtherEffect@ioSkill@@UBEABVioHashString@@XZ:PROC ; ioSkill::GetPreDelayOtherEffect
EXTRN	?SetCancelSkill@ioSkill@@UAEXPAVioBaseChar@@@Z:PROC ; ioSkill::SetCancelSkill
EXTRN	?ClearAirJump@ioSkill@@MAEXXZ:PROC		; ioSkill::ClearAirJump
EXTRN	?SetAirJump@ioSkill@@MAEXPAVioBaseChar@@HM@Z:PROC ; ioSkill::SetAirJump
EXTRN	?CheckAirJump@ioSkill@@MAEXPAVioBaseChar@@@Z:PROC ; ioSkill::CheckAirJump
EXTRN	?UseActiveCount@ioSkill@@UAE_NPAVioBaseChar@@@Z:PROC ; ioSkill::UseActiveCount
EXTRN	?GetMaxActiveCount@ioSkill@@UAEHPAVioBaseChar@@@Z:PROC ; ioSkill::GetMaxActiveCount
EXTRN	?GetCurActiveCount@ioSkill@@UAEHPAVioBaseChar@@@Z:PROC ; ioSkill::GetCurActiveCount
EXTRN	?HideHPGauge@ioSkill@@UAE_NXZ:PROC		; ioSkill::HideHPGauge
EXTRN	?SetInfoByApplyWeapon@ioSkill@@UAEXPAVioBaseChar@@0K_N@Z:PROC ; ioSkill::SetInfoByApplyWeapon
EXTRN	?SetCollisionByApplySkill@ioSkill@@UAEXXZ:PROC	; ioSkill::SetCollisionByApplySkill
EXTRN	?SetChargingRateForWeapon@ioSkill@@UAEXPAVioWeapon@@@Z:PROC ; ioSkill::SetChargingRateForWeapon
EXTRN	?CheckExceptionCamera@ioSkill@@UAE_NXZ:PROC	; ioSkill::CheckExceptionCamera
EXTRN	?GetExceptionCameraPos@ioSkill@@UAE?AUD3DXVECTOR3@@PAVioBaseChar@@@Z:PROC ; ioSkill::GetExceptionCameraPos
EXTRN	?IsFixedExceptionCamera@ioSkill@@UAE_NXZ:PROC	; ioSkill::IsFixedExceptionCamera
EXTRN	??_EioGrapplingBlowLoopSkill@@UAEPAXI@Z:PROC	; ioGrapplingBlowLoopSkill::`vector deleting destructor'
EXTRN	?StartPreDelayAnimation@ioAttackSkill@@MAE_NPAVioBaseChar@@@Z:PROC ; ioAttackSkill::StartPreDelayAnimation
EXTRN	?GetAttackTimeRate@ioAttackSkill@@MBEMXZ:PROC	; ioAttackSkill::GetAttackTimeRate
EXTRN	?GetAttackEndTimeRate@ioAttackSkill@@MBEMXZ:PROC ; ioAttackSkill::GetAttackEndTimeRate
EXTRN	?LoadNormalAttribute@ioAttackSkill@@MAEXAAVioINILoader@@@Z:PROC ; ioAttackSkill::LoadNormalAttribute
EXTRN	?LoadDownAttribute@ioAttackSkill@@MAEXAAVioINILoader@@@Z:PROC ; ioAttackSkill::LoadDownAttribute
EXTRN	?LoadJumpAttribute@ioAttackSkill@@MAEXAAVioINILoader@@@Z:PROC ; ioAttackSkill::LoadJumpAttribute
EXTRN	?GetAttribute@ioAttackSkill@@UAEAAUAttackAttribute@@XZ:PROC ; ioAttackSkill::GetAttribute
EXTRN	?GetAttributeConst@ioAttackSkill@@UBEABUAttackAttribute@@XZ:PROC ; ioAttackSkill::GetAttributeConst
EXTRN	?IsCanStateEscape@ioAttackSkill@@UBE_NXZ:PROC	; ioAttackSkill::IsCanStateEscape
EXTRN	?IsCanStateEscapeOnStand@ioAttackSkill@@UBE_NPAVioBaseChar@@@Z:PROC ; ioAttackSkill::IsCanStateEscapeOnStand
EXTRN	?IsCanStateEscapeOnAir@ioAttackSkill@@UBE_NPAVioBaseChar@@@Z:PROC ; ioAttackSkill::IsCanStateEscapeOnAir
EXTRN	?IsCanStateEscapeOnDown@ioAttackSkill@@UBE_NPAVioBaseChar@@@Z:PROC ; ioAttackSkill::IsCanStateEscapeOnDown
;	COMDAT ??_R2ioSkill@@8
; File c:\program files (x86)\microsoft visual studio 10.0\vc\include\xmemory
rdata$r	SEGMENT
??_R2ioSkill@@8 DD FLAT:??_R1A@?0A@EA@ioSkill@@8	; ioSkill::`RTTI Base Class Array'
rdata$r	ENDS
;	COMDAT ??_R3ioSkill@@8
rdata$r	SEGMENT
??_R3ioSkill@@8 DD 00H					; ioSkill::`RTTI Class Hierarchy Descriptor'
	DD	00H
	DD	01H
	DD	FLAT:??_R2ioSkill@@8
rdata$r	ENDS
;	COMDAT ??_R0?AVioSkill@@@8
_DATA	SEGMENT
??_R0?AVioSkill@@@8 DD FLAT:??_7type_info@@6B@		; ioSkill `RTTI Type Descriptor'
	DD	00H
	DB	'.?AVioSkill@@', 00H
_DATA	ENDS
;	COMDAT ??_R1A@?0A@EA@ioSkill@@8
rdata$r	SEGMENT
??_R1A@?0A@EA@ioSkill@@8 DD FLAT:??_R0?AVioSkill@@@8	; ioSkill::`RTTI Base Class Descriptor at (0,-1,0,64)'
	DD	00H
	DD	00H
	DD	0ffffffffH
	DD	00H
	DD	040H
	DD	FLAT:??_R3ioSkill@@8
rdata$r	ENDS
;	COMDAT ??_R2ioAttackSkill@@8
rdata$r	SEGMENT
??_R2ioAttackSkill@@8 DD FLAT:??_R1A@?0A@EA@ioAttackSkill@@8 ; ioAttackSkill::`RTTI Base Class Array'
	DD	FLAT:??_R1A@?0A@EA@ioSkill@@8
rdata$r	ENDS
;	COMDAT ??_R3ioAttackSkill@@8
rdata$r	SEGMENT
??_R3ioAttackSkill@@8 DD 00H				; ioAttackSkill::`RTTI Class Hierarchy Descriptor'
	DD	00H
	DD	02H
	DD	FLAT:??_R2ioAttackSkill@@8
rdata$r	ENDS
;	COMDAT ??_R0?AVioAttackSkill@@@8
_DATA	SEGMENT
??_R0?AVioAttackSkill@@@8 DD FLAT:??_7type_info@@6B@	; ioAttackSkill `RTTI Type Descriptor'
	DD	00H
	DB	'.?AVioAttackSkill@@', 00H
_DATA	ENDS
;	COMDAT ??_R1A@?0A@EA@ioAttackSkill@@8
rdata$r	SEGMENT
??_R1A@?0A@EA@ioAttackSkill@@8 DD FLAT:??_R0?AVioAttackSkill@@@8 ; ioAttackSkill::`RTTI Base Class Descriptor at (0,-1,0,64)'
	DD	01H
	DD	00H
	DD	0ffffffffH
	DD	00H
	DD	040H
	DD	FLAT:??_R3ioAttackSkill@@8
rdata$r	ENDS
;	COMDAT ??_R1A@?0A@EA@ioGrapplingBlowLoopSkill@@8
rdata$r	SEGMENT
??_R1A@?0A@EA@ioGrapplingBlowLoopSkill@@8 DD FLAT:??_R0?AVioGrapplingBlowLoopSkill@@@8 ; ioGrapplingBlowLoopSkill::`RTTI Base Class Descriptor at (0,-1,0,64)'
	DD	02H
	DD	00H
	DD	0ffffffffH
	DD	00H
	DD	040H
	DD	FLAT:??_R3ioGrapplingBlowLoopSkill@@8
rdata$r	ENDS
;	COMDAT ??_R2ioGrapplingBlowLoopSkill@@8
rdata$r	SEGMENT
??_R2ioGrapplingBlowLoopSkill@@8 DD FLAT:??_R1A@?0A@EA@ioGrapplingBlowLoopSkill@@8 ; ioGrapplingBlowLoopSkill::`RTTI Base Class Array'
	DD	FLAT:??_R1A@?0A@EA@ioAttackSkill@@8
	DD	FLAT:??_R1A@?0A@EA@ioSkill@@8
rdata$r	ENDS
;	COMDAT ??_R3ioGrapplingBlowLoopSkill@@8
rdata$r	SEGMENT
??_R3ioGrapplingBlowLoopSkill@@8 DD 00H			; ioGrapplingBlowLoopSkill::`RTTI Class Hierarchy Descriptor'
	DD	00H
	DD	03H
	DD	FLAT:??_R2ioGrapplingBlowLoopSkill@@8
rdata$r	ENDS
;	COMDAT ??_R0?AVioGrapplingBlowLoopSkill@@@8
_DATA	SEGMENT
??_R0?AVioGrapplingBlowLoopSkill@@@8 DD FLAT:??_7type_info@@6B@ ; ioGrapplingBlowLoopSkill `RTTI Type Descriptor'
	DD	00H
	DB	'.?AVioGrapplingBlowLoopSkill@@', 00H
_DATA	ENDS
;	COMDAT ??_R4ioGrapplingBlowLoopSkill@@6B@
rdata$r	SEGMENT
??_R4ioGrapplingBlowLoopSkill@@6B@ DD 00H		; ioGrapplingBlowLoopSkill::`RTTI Complete Object Locator'
	DD	00H
	DD	00H
	DD	FLAT:??_R0?AVioGrapplingBlowLoopSkill@@@8
	DD	FLAT:??_R3ioGrapplingBlowLoopSkill@@8
rdata$r	ENDS
;	COMDAT ??_7ioGrapplingBlowLoopSkill@@6B@
CONST	SEGMENT
??_7ioGrapplingBlowLoopSkill@@6B@ DD FLAT:??_R4ioGrapplingBlowLoopSkill@@6B@ ; ioGrapplingBlowLoopSkill::`vftable'
	DD	FLAT:?LoadProperty@ioGrapplingBlowLoopSkill@@UAEXAAVioINILoader@@@Z
	DD	FLAT:?Clone@ioGrapplingBlowLoopSkill@@UAEPAVioSkill@@XZ
	DD	FLAT:?GetTypeID@ioAttackSkill@@UBEHXZ
	DD	FLAT:?IsProtected@ioGrapplingBlowLoopSkill@@UBE_NH@Z
	DD	FLAT:?IsCanSwitchSkill@ioSkill@@UBE_NXZ
	DD	FLAT:?IsCanSemiSwitchSkill@ioSkill@@UBE_NXZ
	DD	FLAT:?IsCanCancelBySkill@ioSkill@@UBE_NPAVioBaseChar@@AAH@Z
	DD	FLAT:?IsCanUseZeroHP@ioSkill@@UBE_NPAVioBaseChar@@@Z
	DD	FLAT:?IsCanUseSkillWithCrown@ioSkill@@UAE_NPAVioBaseChar@@@Z
	DD	FLAT:?IsCanUseBoss@ioSkill@@UBE_NPAVioBaseChar@@@Z
	DD	FLAT:?IsCanUseFootball@ioSkill@@UBE_NXZ
	DD	FLAT:?IsCanUseGangSiMode@ioSkill@@UBE_NXZ
	DD	FLAT:?IsCanUseByWeaponType@ioSkill@@UBE_NPAVioBaseChar@@@Z
	DD	FLAT:?IsCanUseThunderBirdHold@ioSkill@@UBE_NPAVioBaseChar@@@Z
	DD	FLAT:?IsCanUseLimitHP@ioSkill@@UBE_NPAVioBaseChar@@@Z
	DD	FLAT:?IsCanUseSkill@ioAttackSkill@@UAE_NPAVioBaseChar@@_N@Z
	DD	FLAT:?IsOnOffEnable@ioSkill@@UAE_NXZ
	DD	FLAT:?IsCanDefenseStateSkill@ioSkill@@UAE_NXZ
	DD	FLAT:?SetDefenseStateSkill@ioSkill@@UAEXPAVioBaseChar@@@Z
	DD	FLAT:?GetDefenseSkillBreakeType@ioSkill@@UBE?AW4DefenseBreakType@@XZ
	DD	FLAT:?HasBuff@ioSkill@@UBE_NH@Z
	DD	FLAT:?GetBuffType@ioSkill@@UAEHH@Z
	DD	FLAT:?IsEnableReserve@ioGrapplingBlowLoopSkill@@UBE_NXZ
	DD	FLAT:?IsSkillMotionEnd@ioGrapplingBlowLoopSkill@@UBE_NKPAVioBaseChar@@@Z
	DD	FLAT:?IsCharSkipState@ioSkill@@UBE?AW4SkillCharColType@@XZ
	DD	FLAT:?IsEntityCollisionSkipState@ioSkill@@UBE_NXZ
	DD	FLAT:?GetSkillEndNextJumpAmt@ioSkill@@UBEMXZ
	DD	FLAT:?GetSkillEndNextLandRate@ioSkill@@UBEMXZ
	DD	FLAT:?GetSkillEndNextJumpMustEnable@ioSkill@@UAE?AW4SkillEndJumpType@@XZ
	DD	FLAT:?IsEndState@ioSkill@@UBE_NXZ
	DD	FLAT:?IsAttackEndState@ioAttackSkill@@UBE_NXZ
	DD	FLAT:?IsJumpState@ioSkill@@UBE_NXZ
	DD	FLAT:?IsDownState@ioSkill@@UBE_NXZ
	DD	FLAT:?IsNoDropState@ioGrapplingBlowLoopSkill@@UBE_NXZ
	DD	FLAT:?IsCanSendControl@ioSkill@@UBE_NXZ
	DD	FLAT:?IsSkipState@ioSkill@@UBE_NXZ
	DD	FLAT:?GetSkillMoveRate@ioSkill@@UBEMXZ
	DD	FLAT:?SetSkillGrapplingState@ioGrapplingBlowLoopSkill@@UAE_NPAVioBaseChar@@ABVioHashString@@@Z
	DD	FLAT:?GetGrapplingTargetPos@ioSkill@@UAE?AUD3DXVECTOR3@@PAVioBaseChar@@0@Z
	DD	FLAT:?GetGrapplingTargetPos@ioGrapplingBlowLoopSkill@@UAE?AUD3DXVECTOR3@@PAVioBaseChar@@@Z
	DD	FLAT:?EnableChangeGrapplingTargetPos@ioSkill@@UBE_NXZ
	DD	FLAT:?GetSkillWoundGrapplingInfo@ioSkill@@UAE?AUGrapplingSkillWoundedInfo@@XZ
	DD	FLAT:?SetCreateWeaponDependency@ioSkill@@UAEXPAVioBaseChar@@PAVioPlayStage@@@Z
	DD	FLAT:?SetNextSkillState@ioSkill@@UAEXPAVioBaseChar@@PAVioWeapon@@@Z
	DD	FLAT:?OnSkillStart@ioGrapplingBlowLoopSkill@@UAE_NPAVioBaseChar@@@Z
	DD	FLAT:?OnProcessState@ioGrapplingBlowLoopSkill@@UAEXPAVioBaseChar@@PAVioPlayStage@@@Z
	DD	FLAT:?OnSkillEndByWounded@ioSkill@@UAEXPAVioBaseChar@@@Z
	DD	FLAT:?OnSkillEnd@ioGrapplingBlowLoopSkill@@UAEXPAVioBaseChar@@@Z
	DD	FLAT:?OnProcessNotUseSkill@ioSkill@@UAEXPAVioBaseChar@@PAVioPlayStage@@@Z
	DD	FLAT:?OnSkillItemRelease@ioSkill@@UAEXPAVioBaseChar@@@Z
	DD	FLAT:?ApplyAttributeToWeapon@ioGrapplingBlowLoopSkill@@UAEXPAVioWeapon@@PAVioPlayStage@@@Z
	DD	FLAT:?ApplyExtraSkillInfo@ioGrapplingBlowLoopSkill@@UAEXPAVioBaseChar@@PAVioPlayStage@@AAVSP2Packet@@@Z
	DD	FLAT:?ApplyEquipSlotSkillExtraInfo@ioSkill@@UAEXPAVioBaseChar@@PAVioPlayStage@@AAVSP2Packet@@@Z
	DD	FLAT:?ApplyExtraPassiveSkillInfo@ioSkill@@UAEXPAVioBaseChar@@PAVioPlayStage@@AAVSP2Packet@@@Z
	DD	FLAT:?StartPreDelayEffect@ioAttackSkill@@UAEXPAVioBaseChar@@@Z
	DD	FLAT:?EndPreDelayEffect@ioAttackSkill@@UAEXPAVioBaseChar@@@Z
	DD	FLAT:?IsUseAutoTargetValue@ioAttackSkill@@UAE_NXZ
	DD	FLAT:?IsAutoTargetDownState@ioSkill@@UAE_NXZ
	DD	FLAT:?CheckUseBuff@ioSkill@@UAE_NPAVioBaseChar@@@Z
	DD	FLAT:?CheckUseItemMesh@ioGrapplingBlowLoopSkill@@UAE_NXZ
	DD	FLAT:?CheckUseActiveCount@ioSkill@@UAE_NXZ
	DD	FLAT:?CheckAniRotate@ioSkill@@UAEXPAVioBaseChar@@@Z
	DD	FLAT:?IsEnableDashCheck@ioSkill@@UAE_NPAVioBaseChar@@@Z
	DD	FLAT:?IsEnableMultiActive@ioSkill@@UAE_NPAVioBaseChar@@@Z
	DD	FLAT:?IsInvisibleBottomCircle@ioSkill@@UAE_NPAVioBaseChar@@@Z
	DD	FLAT:?GetAutoTargetValue@ioSkill@@UAEXAAM00@Z
	DD	FLAT:?IsCanJumpingSkill@ioSkill@@UBE_NXZ
	DD	FLAT:?IsCanJumpingSkillOnBlowWound@ioSkill@@UBE_NXZ
	DD	FLAT:?IsCanDownSkill@ioSkill@@UBE_NXZ
	DD	FLAT:?IsCanBlowWoundSkill@ioSkill@@UBE_NXZ
	DD	FLAT:?IsCanWoundSkill@ioSkill@@UBE_NXZ
	DD	FLAT:?GetSkillGravityRate@ioSkill@@UAEMXZ
	DD	FLAT:?GetSkillMotionName@ioSkill@@UBEABVioHashString@@XZ
	DD	FLAT:?HasSkillMotion@ioSkill@@UBE_NXZ
	DD	FLAT:?GetSkillMotionRate@ioSkill@@UBEMXZ
	DD	FLAT:?IsPreDelayProtect@ioSkill@@UBE_NXZ
	DD	FLAT:?GetPreDelayAniName@ioSkill@@UBEABVioHashString@@XZ
	DD	FLAT:?GetPreDelayTime@ioSkill@@UBEKXZ
	DD	FLAT:?GetPreDelayOwnerEffect@ioSkill@@UBEABVioHashString@@XZ
	DD	FLAT:?GetPreDelayOtherEffect@ioSkill@@UBEABVioHashString@@XZ
	DD	FLAT:?SetCancelSkill@ioSkill@@UAEXPAVioBaseChar@@@Z
	DD	FLAT:?ClearAirJump@ioSkill@@MAEXXZ
	DD	FLAT:?SetAirJump@ioSkill@@MAEXPAVioBaseChar@@HM@Z
	DD	FLAT:?CheckAirJump@ioSkill@@MAEXPAVioBaseChar@@@Z
	DD	FLAT:?UseActiveCount@ioSkill@@UAE_NPAVioBaseChar@@@Z
	DD	FLAT:?GetMaxActiveCount@ioSkill@@UAEHPAVioBaseChar@@@Z
	DD	FLAT:?GetCurActiveCount@ioSkill@@UAEHPAVioBaseChar@@@Z
	DD	FLAT:?HideHPGauge@ioSkill@@UAE_NXZ
	DD	FLAT:?SetInfoByApplyWeapon@ioSkill@@UAEXPAVioBaseChar@@0K_N@Z
	DD	FLAT:?SetCollisionByApplySkill@ioSkill@@UAEXXZ
	DD	FLAT:?SetChargingRateForWeapon@ioSkill@@UAEXPAVioWeapon@@@Z
	DD	FLAT:?CheckExceptionCamera@ioSkill@@UAE_NXZ
	DD	FLAT:?GetExceptionCameraPos@ioSkill@@UAE?AUD3DXVECTOR3@@PAVioBaseChar@@@Z
	DD	FLAT:?IsFixedExceptionCamera@ioSkill@@UAE_NXZ
	DD	FLAT:?IsUseActiveCnt@ioSkill@@UBE_NXZ
	DD	FLAT:?GetMaxActiveCnt@ioSkill@@UBEHPAVioBaseChar@@@Z
	DD	FLAT:?GetCurActiveCnt@ioSkill@@UBEHPAVioBaseChar@@@Z
	DD	FLAT:??_EioGrapplingBlowLoopSkill@@UAEPAXI@Z
	DD	FLAT:?StartPreDelayAnimation@ioAttackSkill@@MAE_NPAVioBaseChar@@@Z
	DD	FLAT:?AttackSkillFire@ioGrapplingBlowLoopSkill@@MAEXPAVioBaseChar@@@Z
	DD	FLAT:?GetAttackTimeRate@ioAttackSkill@@MBEMXZ
	DD	FLAT:?GetAttackEndTimeRate@ioAttackSkill@@MBEMXZ
	DD	FLAT:?LoadNormalAttribute@ioAttackSkill@@MAEXAAVioINILoader@@@Z
	DD	FLAT:?LoadDownAttribute@ioAttackSkill@@MAEXAAVioINILoader@@@Z
	DD	FLAT:?LoadJumpAttribute@ioAttackSkill@@MAEXAAVioINILoader@@@Z
	DD	FLAT:?GetAttribute@ioAttackSkill@@UAEAAUAttackAttribute@@XZ
	DD	FLAT:?GetAttributeConst@ioAttackSkill@@UBEABUAttackAttribute@@XZ
	DD	FLAT:?IsCanStateEscape@ioAttackSkill@@UBE_NXZ
	DD	FLAT:?IsCanStateEscapeOnStand@ioAttackSkill@@UBE_NPAVioBaseChar@@@Z
	DD	FLAT:?IsCanStateEscapeOnAir@ioAttackSkill@@UBE_NPAVioBaseChar@@@Z
	DD	FLAT:?IsCanStateEscapeOnDown@ioAttackSkill@@UBE_NPAVioBaseChar@@@Z
CONST	ENDS
;	COMDAT xdata$x
xdata$x	SEGMENT
__ehfuncinfo$??0ioGrapplingBlowLoopSkill@@QAE@XZ DD 019930522H
	DD	08H
	DD	FLAT:__unwindtable$??0ioGrapplingBlowLoopSkill@@QAE@XZ
	DD	2 DUP(00H)
	DD	2 DUP(00H)
	DD	00H
	DD	01H
__unwindtable$??0ioGrapplingBlowLoopSkill@@QAE@XZ DD 0ffffffffH
	DD	FLAT:__unwindfunclet$??0ioGrapplingBlowLoopSkill@@QAE@XZ$0
	DD	00H
	DD	FLAT:__unwindfunclet$??0ioGrapplingBlowLoopSkill@@QAE@XZ$1
	DD	01H
	DD	FLAT:__unwindfunclet$??0ioGrapplingBlowLoopSkill@@QAE@XZ$2
	DD	02H
	DD	FLAT:__unwindfunclet$??0ioGrapplingBlowLoopSkill@@QAE@XZ$3
	DD	03H
	DD	FLAT:__unwindfunclet$??0ioGrapplingBlowLoopSkill@@QAE@XZ$4
	DD	04H
	DD	FLAT:__unwindfunclet$??0ioGrapplingBlowLoopSkill@@QAE@XZ$5
	DD	05H
	DD	FLAT:__unwindfunclet$??0ioGrapplingBlowLoopSkill@@QAE@XZ$6
	DD	06H
	DD	FLAT:__unwindfunclet$??0ioGrapplingBlowLoopSkill@@QAE@XZ$7
; Function compile flags: /Ogsp
; File d:\lost saga for developer\youtube\tutorial\source\src\lsclient\iograpplingblowloopskill.cpp
xdata$x	ENDS
;	COMDAT ??0ioGrapplingBlowLoopSkill@@QAE@XZ
_TEXT	SEGMENT
_this$ = -16						; size = 4
__$EHRec$ = -12						; size = 12
??0ioGrapplingBlowLoopSkill@@QAE@XZ PROC		; ioGrapplingBlowLoopSkill::ioGrapplingBlowLoopSkill, COMDAT
; _this$ = ecx

; 13   : {

  00000	6a 04		 push	 4
  00002	b8 00 00 00 00	 mov	 eax, __ehhandler$??0ioGrapplingBlowLoopSkill@@QAE@XZ
  00007	e8 00 00 00 00	 call	 __EH_prolog3
  0000c	8b f1		 mov	 esi, ecx
  0000e	89 75 f0	 mov	 DWORD PTR _this$[ebp], esi
  00011	e8 00 00 00 00	 call	 ??0ioAttackSkill@@QAE@XZ ; ioAttackSkill::ioAttackSkill
  00016	33 ff		 xor	 edi, edi
  00018	c7 06 00 00 00
	00		 mov	 DWORD PTR [esi], OFFSET ??_7ioGrapplingBlowLoopSkill@@6B@
  0001e	89 7d fc	 mov	 DWORD PTR __$EHRec$[ebp+8], edi
  00021	89 be ec 10 00
	00		 mov	 DWORD PTR [esi+4332], edi
  00027	89 be f0 10 00
	00		 mov	 DWORD PTR [esi+4336], edi
  0002d	89 be f4 10 00
	00		 mov	 DWORD PTR [esi+4340], edi
  00033	8d 8e 10 11 00
	00		 lea	 ecx, DWORD PTR [esi+4368]
  00039	c6 45 fc 01	 mov	 BYTE PTR __$EHRec$[ebp+8], 1
  0003d	e8 00 00 00 00	 call	 ??0?$CEncrypt@M@@QAE@XZ	; CEncrypt<float>::CEncrypt<float>
  00042	8d 8e 40 11 00
	00		 lea	 ecx, DWORD PTR [esi+4416]
  00048	c6 45 fc 02	 mov	 BYTE PTR __$EHRec$[ebp+8], 2
  0004c	e8 00 00 00 00	 call	 ??0?$CEncrypt@M@@QAE@XZ	; CEncrypt<float>::CEncrypt<float>
  00051	8b 1d 00 00 00
	00		 mov	 ebx, DWORD PTR __imp_??0ioHashString@@QAE@XZ
  00057	8d 8e 70 11 00
	00		 lea	 ecx, DWORD PTR [esi+4464]
  0005d	c6 45 fc 03	 mov	 BYTE PTR __$EHRec$[ebp+8], 3
  00061	ff d3		 call	 ebx
  00063	8d 8e 80 11 00
	00		 lea	 ecx, DWORD PTR [esi+4480]
  00069	c6 45 fc 04	 mov	 BYTE PTR __$EHRec$[ebp+8], 4
  0006d	e8 00 00 00 00	 call	 ??0?$CEncrypt@M@@QAE@XZ	; CEncrypt<float>::CEncrypt<float>
  00072	8d 8e b0 11 00
	00		 lea	 ecx, DWORD PTR [esi+4528]
  00078	c6 45 fc 05	 mov	 BYTE PTR __$EHRec$[ebp+8], 5
  0007c	e8 00 00 00 00	 call	 ??0?$CEncrypt@M@@QAE@XZ	; CEncrypt<float>::CEncrypt<float>
  00081	8d 8e e0 11 00
	00		 lea	 ecx, DWORD PTR [esi+4576]
  00087	c6 45 fc 06	 mov	 BYTE PTR __$EHRec$[ebp+8], 6
  0008b	e8 00 00 00 00	 call	 ??0?$CEncrypt@M@@QAE@XZ	; CEncrypt<float>::CEncrypt<float>
  00090	8d 8e 1c 12 00
	00		 lea	 ecx, DWORD PTR [esi+4636]
  00096	c6 45 fc 07	 mov	 BYTE PTR __$EHRec$[ebp+8], 7
  0009a	ff d3		 call	 ebx
  0009c	89 be 38 12 00
	00		 mov	 DWORD PTR [esi+4664], edi
  000a2	89 be 3c 12 00
	00		 mov	 DWORD PTR [esi+4668], edi
  000a8	89 be 40 12 00
	00		 mov	 DWORD PTR [esi+4672], edi

; 14   : 	m_SkillState = SS_NONE;

  000ae	89 be fc 10 00
	00		 mov	 DWORD PTR [esi+4348], edi

; 15   : 
; 16   : 	m_dwSkillLoopStartTime = 0;

  000b4	89 be 00 11 00
	00		 mov	 DWORD PTR [esi+4352], edi

; 17   : 	m_dwSkillLoopEndTime = 0;

  000ba	89 be 04 11 00
	00		 mov	 DWORD PTR [esi+4356], edi

; 18   : 
; 19   : 	m_dwPreLoopStartTime = 0;

  000c0	89 be 30 12 00
	00		 mov	 DWORD PTR [esi+4656], edi

; 20   : }

  000c6	8b c6		 mov	 eax, esi
  000c8	e8 00 00 00 00	 call	 __EH_epilog3
  000cd	c3		 ret	 0
_TEXT	ENDS
;	COMDAT text$x
text$x	SEGMENT
__unwindfunclet$??0ioGrapplingBlowLoopSkill@@QAE@XZ$0:
  00000	8b 4d f0	 mov	 ecx, DWORD PTR _this$[ebp]
  00003	e9 00 00 00 00	 jmp	 ??1ioAttackSkill@@UAE@XZ ; ioAttackSkill::~ioAttackSkill
__unwindfunclet$??0ioGrapplingBlowLoopSkill@@QAE@XZ$1:
  00008	8b 4d f0	 mov	 ecx, DWORD PTR _this$[ebp]
  0000b	81 c1 ec 10 00
	00		 add	 ecx, 4332		; 000010ecH
  00011	e9 00 00 00 00	 jmp	 ??1?$vector@UStGrapInfo@ioGrapplingBlowLoopSkill@@V?$allocator@UStGrapInfo@ioGrapplingBlowLoopSkill@@@std@@@std@@QAE@XZ ; std::vector<ioGrapplingBlowLoopSkill::StGrapInfo,std::allocator<ioGrapplingBlowLoopSkill::StGrapInfo> >::~vector<ioGrapplingBlowLoopSkill::StGrapInfo,std::allocator<ioGrapplingBlowLoopSkill::StGrapInfo> >
__unwindfunclet$??0ioGrapplingBlowLoopSkill@@QAE@XZ$2:
  00016	8b 4d f0	 mov	 ecx, DWORD PTR _this$[ebp]
  00019	81 c1 10 11 00
	00		 add	 ecx, 4368		; 00001110H
  0001f	e9 00 00 00 00	 jmp	 ??1?$CEncrypt@M@@UAE@XZ	; CEncrypt<float>::~CEncrypt<float>
__unwindfunclet$??0ioGrapplingBlowLoopSkill@@QAE@XZ$3:
  00024	8b 4d f0	 mov	 ecx, DWORD PTR _this$[ebp]
  00027	81 c1 40 11 00
	00		 add	 ecx, 4416		; 00001140H
  0002d	e9 00 00 00 00	 jmp	 ??1?$CEncrypt@M@@UAE@XZ	; CEncrypt<float>::~CEncrypt<float>
__unwindfunclet$??0ioGrapplingBlowLoopSkill@@QAE@XZ$4:
  00032	8b 4d f0	 mov	 ecx, DWORD PTR _this$[ebp]
  00035	81 c1 70 11 00
	00		 add	 ecx, 4464		; 00001170H
  0003b	ff 25 00 00 00
	00		 jmp	 DWORD PTR __imp_??1ioHashString@@QAE@XZ
__unwindfunclet$??0ioGrapplingBlowLoopSkill@@QAE@XZ$5:
  00041	8b 4d f0	 mov	 ecx, DWORD PTR _this$[ebp]
  00044	81 c1 80 11 00
	00		 add	 ecx, 4480		; 00001180H
  0004a	e9 00 00 00 00	 jmp	 ??1?$CEncrypt@M@@UAE@XZ	; CEncrypt<float>::~CEncrypt<float>
__unwindfunclet$??0ioGrapplingBlowLoopSkill@@QAE@XZ$6:
  0004f	8b 4d f0	 mov	 ecx, DWORD PTR _this$[ebp]
  00052	81 c1 b0 11 00
	00		 add	 ecx, 4528		; 000011b0H
  00058	e9 00 00 00 00	 jmp	 ??1?$CEncrypt@M@@UAE@XZ	; CEncrypt<float>::~CEncrypt<float>
__unwindfunclet$??0ioGrapplingBlowLoopSkill@@QAE@XZ$7:
  0005d	8b 4d f0	 mov	 ecx, DWORD PTR _this$[ebp]
  00060	81 c1 e0 11 00
	00		 add	 ecx, 4576		; 000011e0H
  00066	e9 00 00 00 00	 jmp	 ??1?$CEncrypt@M@@UAE@XZ	; CEncrypt<float>::~CEncrypt<float>
__ehhandler$??0ioGrapplingBlowLoopSkill@@QAE@XZ:
  0006b	8b 54 24 08	 mov	 edx, DWORD PTR [esp+8]
  0006f	8d 42 0c	 lea	 eax, DWORD PTR [edx+12]
  00072	8b 4a ec	 mov	 ecx, DWORD PTR [edx-20]
  00075	33 c8		 xor	 ecx, eax
  00077	e8 00 00 00 00	 call	 @__security_check_cookie@4
  0007c	b8 00 00 00 00	 mov	 eax, OFFSET __ehfuncinfo$??0ioGrapplingBlowLoopSkill@@QAE@XZ
  00081	e9 00 00 00 00	 jmp	 ___CxxFrameHandler3
text$x	ENDS
??0ioGrapplingBlowLoopSkill@@QAE@XZ ENDP		; ioGrapplingBlowLoopSkill::ioGrapplingBlowLoopSkill
; Function compile flags: /Ogsp
; File d:\lost saga for developer\youtube\tutorial\source\src\lsclient\ioskill.h
;	COMDAT ?GetDefenseSkillBreakeType@ioSkill@@UBE?AW4DefenseBreakType@@XZ
_TEXT	SEGMENT
?GetDefenseSkillBreakeType@ioSkill@@UBE?AW4DefenseBreakType@@XZ PROC ; ioSkill::GetDefenseSkillBreakeType, COMDAT
; _this$ = ecx

; 327  : 	virtual DefenseBreakType GetDefenseSkillBreakeType() const { return m_eDefenseSkillBreakType; }

  00000	8b 81 30 0e 00
	00		 mov	 eax, DWORD PTR [ecx+3632]
  00006	c3		 ret	 0
?GetDefenseSkillBreakeType@ioSkill@@UBE?AW4DefenseBreakType@@XZ ENDP ; ioSkill::GetDefenseSkillBreakeType
; Function compile flags: /Ogsp
_TEXT	ENDS
;	COMDAT ?GetSkillEndNextJumpAmt@ioSkill@@UBEMXZ
_TEXT	SEGMENT
?GetSkillEndNextJumpAmt@ioSkill@@UBEMXZ PROC		; ioSkill::GetSkillEndNextJumpAmt, COMDAT
; _this$ = ecx

; 335  : 	virtual float GetSkillEndNextJumpAmt() const { return m_fSkillEndNextJumpAmt; }

  00000	d9 81 4c 05 00
	00		 fld	 DWORD PTR [ecx+1356]
  00006	c3		 ret	 0
?GetSkillEndNextJumpAmt@ioSkill@@UBEMXZ ENDP		; ioSkill::GetSkillEndNextJumpAmt
; Function compile flags: /Ogsp
_TEXT	ENDS
;	COMDAT ?GetSkillEndNextLandRate@ioSkill@@UBEMXZ
_TEXT	SEGMENT
?GetSkillEndNextLandRate@ioSkill@@UBEMXZ PROC		; ioSkill::GetSkillEndNextLandRate, COMDAT
; _this$ = ecx

; 336  : 	virtual float GetSkillEndNextLandRate() const { return m_fSkillEndNextLandRate; }

  00000	d9 81 50 05 00
	00		 fld	 DWORD PTR [ecx+1360]
  00006	c3		 ret	 0
?GetSkillEndNextLandRate@ioSkill@@UBEMXZ ENDP		; ioSkill::GetSkillEndNextLandRate
; Function compile flags: /Ogsp
_TEXT	ENDS
;	COMDAT ?GetSkillEndNextJumpMustEnable@ioSkill@@UAE?AW4SkillEndJumpType@@XZ
_TEXT	SEGMENT
?GetSkillEndNextJumpMustEnable@ioSkill@@UAE?AW4SkillEndJumpType@@XZ PROC ; ioSkill::GetSkillEndNextJumpMustEnable, COMDAT
; _this$ = ecx

; 337  : 	virtual SkillEndJumpType GetSkillEndNextJumpMustEnable(){ return SEJT_DEFAULT; }

  00000	33 c0		 xor	 eax, eax
  00002	c3		 ret	 0
?GetSkillEndNextJumpMustEnable@ioSkill@@UAE?AW4SkillEndJumpType@@XZ ENDP ; ioSkill::GetSkillEndNextJumpMustEnable
; Function compile flags: /Ogsp
_TEXT	ENDS
;	COMDAT ?EnableChangeGrapplingTargetPos@ioSkill@@UBE_NXZ
_TEXT	SEGMENT
?EnableChangeGrapplingTargetPos@ioSkill@@UBE_NXZ PROC	; ioSkill::EnableChangeGrapplingTargetPos, COMDAT
; _this$ = ecx

; 355  : 	virtual bool EnableChangeGrapplingTargetPos() const { return m_bChangeGrapplingTargetPos; }

  00000	8a 81 40 09 00
	00		 mov	 al, BYTE PTR [ecx+2368]
  00006	c3		 ret	 0
?EnableChangeGrapplingTargetPos@ioSkill@@UBE_NXZ ENDP	; ioSkill::EnableChangeGrapplingTargetPos
; Function compile flags: /Ogsp
_TEXT	ENDS
;	COMDAT ?IsInvisibleBottomCircle@ioSkill@@UAE_NPAVioBaseChar@@@Z
_TEXT	SEGMENT
_pChar$ = 8						; size = 4
?IsInvisibleBottomCircle@ioSkill@@UAE_NPAVioBaseChar@@@Z PROC ; ioSkill::IsInvisibleBottomCircle, COMDAT
; _this$ = ecx

; 393  : 	virtual bool IsInvisibleBottomCircle( ioBaseChar *pChar ) { return false; }

  00000	32 c0		 xor	 al, al
  00002	c2 04 00	 ret	 4
?IsInvisibleBottomCircle@ioSkill@@UAE_NPAVioBaseChar@@@Z ENDP ; ioSkill::IsInvisibleBottomCircle
; Function compile flags: /Ogsp
_TEXT	ENDS
;	COMDAT ?IsUseActiveCnt@ioSkill@@UBE_NXZ
_TEXT	SEGMENT
?IsUseActiveCnt@ioSkill@@UBE_NXZ PROC			; ioSkill::IsUseActiveCnt, COMDAT
; _this$ = ecx

; 544  : 	virtual bool IsUseActiveCnt() const { return false; }

  00000	32 c0		 xor	 al, al
  00002	c3		 ret	 0
?IsUseActiveCnt@ioSkill@@UBE_NXZ ENDP			; ioSkill::IsUseActiveCnt
; Function compile flags: /Ogsp
_TEXT	ENDS
;	COMDAT ?GetMaxActiveCnt@ioSkill@@UBEHPAVioBaseChar@@@Z
_TEXT	SEGMENT
_pChar$ = 8						; size = 4
?GetMaxActiveCnt@ioSkill@@UBEHPAVioBaseChar@@@Z PROC	; ioSkill::GetMaxActiveCnt, COMDAT
; _this$ = ecx

; 545  : 	virtual int GetMaxActiveCnt( ioBaseChar *pChar ) const { return 0; }

  00000	33 c0		 xor	 eax, eax
  00002	c2 04 00	 ret	 4
?GetMaxActiveCnt@ioSkill@@UBEHPAVioBaseChar@@@Z ENDP	; ioSkill::GetMaxActiveCnt
; Function compile flags: /Ogsp
_TEXT	ENDS
;	COMDAT ?GetCurActiveCnt@ioSkill@@UBEHPAVioBaseChar@@@Z
_TEXT	SEGMENT
_pChar$ = 8						; size = 4
?GetCurActiveCnt@ioSkill@@UBEHPAVioBaseChar@@@Z PROC	; ioSkill::GetCurActiveCnt, COMDAT
; _this$ = ecx

; 546  : 	virtual int GetCurActiveCnt( ioBaseChar *pChar ) const { return 0; }

  00000	33 c0		 xor	 eax, eax
  00002	c2 04 00	 ret	 4
?GetCurActiveCnt@ioSkill@@UBEHPAVioBaseChar@@@Z ENDP	; ioSkill::GetCurActiveCnt
; Function compile flags: /Ogsp
_TEXT	ENDS
;	COMDAT ?IsCanJumpingSkill@ioSkill@@UBE_NXZ
_TEXT	SEGMENT
_value$561680 = -1					; size = 1
?IsCanJumpingSkill@ioSkill@@UBE_NXZ PROC		; ioSkill::IsCanJumpingSkill, COMDAT
; _this$ = ecx

; 431  : 	virtual bool IsCanJumpingSkill() const { return m_bEnableJumpingSkill; }

  00000	55		 push	 ebp
  00001	8b ec		 mov	 ebp, esp
  00003	51		 push	 ecx
  00004	8d 45 ff	 lea	 eax, DWORD PTR _value$561680[ebp]
  00007	50		 push	 eax
  00008	81 c1 9c 03 00
	00		 add	 ecx, 924		; 0000039cH
  0000e	e8 00 00 00 00	 call	 ?DecryptValueToPool@?$CEncrypt@_N@@QAEXPA_N@Z ; CEncrypt<bool>::DecryptValueToPool
  00013	8a 45 ff	 mov	 al, BYTE PTR _value$561680[ebp]
  00016	c9		 leave
  00017	c3		 ret	 0
?IsCanJumpingSkill@ioSkill@@UBE_NXZ ENDP		; ioSkill::IsCanJumpingSkill
; Function compile flags: /Ogsp
_TEXT	ENDS
;	COMDAT ?IsCanJumpingSkillOnBlowWound@ioSkill@@UBE_NXZ
_TEXT	SEGMENT
_value$561687 = -1					; size = 1
?IsCanJumpingSkillOnBlowWound@ioSkill@@UBE_NXZ PROC	; ioSkill::IsCanJumpingSkillOnBlowWound, COMDAT
; _this$ = ecx

; 432  : 	virtual bool IsCanJumpingSkillOnBlowWound() const { return m_bEnableJumpingSkillOnBlowWound; }

  00000	55		 push	 ebp
  00001	8b ec		 mov	 ebp, esp
  00003	51		 push	 ecx
  00004	8d 45 ff	 lea	 eax, DWORD PTR _value$561687[ebp]
  00007	50		 push	 eax
  00008	81 c1 cc 03 00
	00		 add	 ecx, 972		; 000003ccH
  0000e	e8 00 00 00 00	 call	 ?DecryptValueToPool@?$CEncrypt@_N@@QAEXPA_N@Z ; CEncrypt<bool>::DecryptValueToPool
  00013	8a 45 ff	 mov	 al, BYTE PTR _value$561687[ebp]
  00016	c9		 leave
  00017	c3		 ret	 0
?IsCanJumpingSkillOnBlowWound@ioSkill@@UBE_NXZ ENDP	; ioSkill::IsCanJumpingSkillOnBlowWound
; Function compile flags: /Ogsp
_TEXT	ENDS
;	COMDAT ?IsCanDownSkill@ioSkill@@UBE_NXZ
_TEXT	SEGMENT
_value$561694 = -1					; size = 1
?IsCanDownSkill@ioSkill@@UBE_NXZ PROC			; ioSkill::IsCanDownSkill, COMDAT
; _this$ = ecx

; 437  : 	virtual bool IsCanDownSkill() const { return m_bEnableDownSkill; }

  00000	55		 push	 ebp
  00001	8b ec		 mov	 ebp, esp
  00003	51		 push	 ecx
  00004	8d 45 ff	 lea	 eax, DWORD PTR _value$561694[ebp]
  00007	50		 push	 eax
  00008	81 c1 5c 04 00
	00		 add	 ecx, 1116		; 0000045cH
  0000e	e8 00 00 00 00	 call	 ?DecryptValueToPool@?$CEncrypt@_N@@QAEXPA_N@Z ; CEncrypt<bool>::DecryptValueToPool
  00013	8a 45 ff	 mov	 al, BYTE PTR _value$561694[ebp]
  00016	c9		 leave
  00017	c3		 ret	 0
?IsCanDownSkill@ioSkill@@UBE_NXZ ENDP			; ioSkill::IsCanDownSkill
; Function compile flags: /Ogsp
_TEXT	ENDS
;	COMDAT ?IsCanBlowWoundSkill@ioSkill@@UBE_NXZ
_TEXT	SEGMENT
_value$561701 = -1					; size = 1
?IsCanBlowWoundSkill@ioSkill@@UBE_NXZ PROC		; ioSkill::IsCanBlowWoundSkill, COMDAT
; _this$ = ecx

; 440  : 	virtual bool IsCanBlowWoundSkill() const { return m_bEnableBlowWoundSkill; }

  00000	55		 push	 ebp
  00001	8b ec		 mov	 ebp, esp
  00003	51		 push	 ecx
  00004	8d 45 ff	 lea	 eax, DWORD PTR _value$561701[ebp]
  00007	50		 push	 eax
  00008	81 c1 8c 04 00
	00		 add	 ecx, 1164		; 0000048cH
  0000e	e8 00 00 00 00	 call	 ?DecryptValueToPool@?$CEncrypt@_N@@QAEXPA_N@Z ; CEncrypt<bool>::DecryptValueToPool
  00013	8a 45 ff	 mov	 al, BYTE PTR _value$561701[ebp]
  00016	c9		 leave
  00017	c3		 ret	 0
?IsCanBlowWoundSkill@ioSkill@@UBE_NXZ ENDP		; ioSkill::IsCanBlowWoundSkill
; Function compile flags: /Ogsp
_TEXT	ENDS
;	COMDAT ?IsCanWoundSkill@ioSkill@@UBE_NXZ
_TEXT	SEGMENT
_value$561708 = -1					; size = 1
?IsCanWoundSkill@ioSkill@@UBE_NXZ PROC			; ioSkill::IsCanWoundSkill, COMDAT
; _this$ = ecx

; 446  : 	virtual bool IsCanWoundSkill() const { return m_bEnableWoundSkill; }

  00000	55		 push	 ebp
  00001	8b ec		 mov	 ebp, esp
  00003	51		 push	 ecx
  00004	8d 45 ff	 lea	 eax, DWORD PTR _value$561708[ebp]
  00007	50		 push	 eax
  00008	81 c1 54 05 00
	00		 add	 ecx, 1364		; 00000554H
  0000e	e8 00 00 00 00	 call	 ?DecryptValueToPool@?$CEncrypt@_N@@QAEXPA_N@Z ; CEncrypt<bool>::DecryptValueToPool
  00013	8a 45 ff	 mov	 al, BYTE PTR _value$561708[ebp]
  00016	c9		 leave
  00017	c3		 ret	 0
?IsCanWoundSkill@ioSkill@@UBE_NXZ ENDP			; ioSkill::IsCanWoundSkill
_TEXT	ENDS
PUBLIC	??0ioGrapplingBlowLoopSkill@@QAE@ABV0@@Z	; ioGrapplingBlowLoopSkill::ioGrapplingBlowLoopSkill
EXTRN	??0ioAttackSkill@@QAE@ABV0@@Z:PROC		; ioAttackSkill::ioAttackSkill
;	COMDAT xdata$x
; File d:\lost saga for developer\youtube\tutorial\source\src\lsclient\iograpplingblowloopskill.cpp
xdata$x	SEGMENT
__ehfuncinfo$??0ioGrapplingBlowLoopSkill@@QAE@ABV0@@Z DD 019930522H
	DD	09H
	DD	FLAT:__unwindtable$??0ioGrapplingBlowLoopSkill@@QAE@ABV0@@Z
	DD	2 DUP(00H)
	DD	2 DUP(00H)
	DD	00H
	DD	01H
__unwindtable$??0ioGrapplingBlowLoopSkill@@QAE@ABV0@@Z DD 0ffffffffH
	DD	FLAT:__unwindfunclet$??0ioGrapplingBlowLoopSkill@@QAE@ABV0@@Z$0
	DD	00H
	DD	FLAT:__unwindfunclet$??0ioGrapplingBlowLoopSkill@@QAE@ABV0@@Z$1
	DD	01H
	DD	FLAT:__unwindfunclet$??0ioGrapplingBlowLoopSkill@@QAE@ABV0@@Z$2
	DD	02H
	DD	FLAT:__unwindfunclet$??0ioGrapplingBlowLoopSkill@@QAE@ABV0@@Z$3
	DD	03H
	DD	FLAT:__unwindfunclet$??0ioGrapplingBlowLoopSkill@@QAE@ABV0@@Z$4
	DD	04H
	DD	FLAT:__unwindfunclet$??0ioGrapplingBlowLoopSkill@@QAE@ABV0@@Z$5
	DD	05H
	DD	FLAT:__unwindfunclet$??0ioGrapplingBlowLoopSkill@@QAE@ABV0@@Z$6
	DD	06H
	DD	FLAT:__unwindfunclet$??0ioGrapplingBlowLoopSkill@@QAE@ABV0@@Z$7
	DD	07H
	DD	FLAT:__unwindfunclet$??0ioGrapplingBlowLoopSkill@@QAE@ABV0@@Z$8
; Function compile flags: /Ogsp
xdata$x	ENDS
;	COMDAT ??0ioGrapplingBlowLoopSkill@@QAE@ABV0@@Z
_TEXT	SEGMENT
_this$ = -16						; size = 4
__$EHRec$ = -12						; size = 12
_rhs$ = 8						; size = 4
??0ioGrapplingBlowLoopSkill@@QAE@ABV0@@Z PROC		; ioGrapplingBlowLoopSkill::ioGrapplingBlowLoopSkill, COMDAT
; _this$ = ecx

; 41   : {

  00000	6a 04		 push	 4
  00002	b8 00 00 00 00	 mov	 eax, __ehhandler$??0ioGrapplingBlowLoopSkill@@QAE@ABV0@@Z
  00007	e8 00 00 00 00	 call	 __EH_prolog3
  0000c	8b f1		 mov	 esi, ecx
  0000e	89 75 f0	 mov	 DWORD PTR _this$[ebp], esi
  00011	8b 7d 08	 mov	 edi, DWORD PTR _rhs$[ebp]
  00014	57		 push	 edi
  00015	e8 00 00 00 00	 call	 ??0ioAttackSkill@@QAE@ABV0@@Z ; ioAttackSkill::ioAttackSkill
  0001a	c7 06 00 00 00
	00		 mov	 DWORD PTR [esi], OFFSET ??_7ioGrapplingBlowLoopSkill@@6B@
  00020	8b 87 e4 10 00
	00		 mov	 eax, DWORD PTR [edi+4324]
  00026	89 86 e4 10 00
	00		 mov	 DWORD PTR [esi+4324], eax
  0002c	8d 87 ec 10 00
	00		 lea	 eax, DWORD PTR [edi+4332]
  00032	33 db		 xor	 ebx, ebx
  00034	50		 push	 eax
  00035	8d 8e ec 10 00
	00		 lea	 ecx, DWORD PTR [esi+4332]
  0003b	89 5d fc	 mov	 DWORD PTR __$EHRec$[ebp+8], ebx
  0003e	e8 00 00 00 00	 call	 ??0?$vector@UStGrapInfo@ioGrapplingBlowLoopSkill@@V?$allocator@UStGrapInfo@ioGrapplingBlowLoopSkill@@@std@@@std@@QAE@ABV01@@Z ; std::vector<ioGrapplingBlowLoopSkill::StGrapInfo,std::allocator<ioGrapplingBlowLoopSkill::StGrapInfo> >::vector<ioGrapplingBlowLoopSkill::StGrapInfo,std::allocator<ioGrapplingBlowLoopSkill::StGrapInfo> >
  00043	8b 87 08 11 00
	00		 mov	 eax, DWORD PTR [edi+4360]
  00049	89 86 08 11 00
	00		 mov	 DWORD PTR [esi+4360], eax
  0004f	8b 87 0c 11 00
	00		 mov	 eax, DWORD PTR [edi+4364]
  00055	89 86 0c 11 00
	00		 mov	 DWORD PTR [esi+4364], eax
  0005b	8d 87 10 11 00
	00		 lea	 eax, DWORD PTR [edi+4368]
  00061	50		 push	 eax
  00062	8d 8e 10 11 00
	00		 lea	 ecx, DWORD PTR [esi+4368]
  00068	c6 45 fc 01	 mov	 BYTE PTR __$EHRec$[ebp+8], 1
  0006c	e8 00 00 00 00	 call	 ??0?$CEncrypt@M@@QAE@ABV0@@Z ; CEncrypt<float>::CEncrypt<float>
  00071	8d 87 40 11 00
	00		 lea	 eax, DWORD PTR [edi+4416]
  00077	50		 push	 eax
  00078	8d 8e 40 11 00
	00		 lea	 ecx, DWORD PTR [esi+4416]
  0007e	c6 45 fc 02	 mov	 BYTE PTR __$EHRec$[ebp+8], 2
  00082	e8 00 00 00 00	 call	 ??0?$CEncrypt@M@@QAE@ABV0@@Z ; CEncrypt<float>::CEncrypt<float>
  00087	8d 8e 70 11 00
	00		 lea	 ecx, DWORD PTR [esi+4464]
  0008d	c6 45 fc 03	 mov	 BYTE PTR __$EHRec$[ebp+8], 3
  00091	ff 15 00 00 00
	00		 call	 DWORD PTR __imp_??0ioHashString@@QAE@XZ
  00097	8d 87 80 11 00
	00		 lea	 eax, DWORD PTR [edi+4480]
  0009d	50		 push	 eax
  0009e	8d 8e 80 11 00
	00		 lea	 ecx, DWORD PTR [esi+4480]
  000a4	c6 45 fc 04	 mov	 BYTE PTR __$EHRec$[ebp+8], 4
  000a8	e8 00 00 00 00	 call	 ??0?$CEncrypt@M@@QAE@ABV0@@Z ; CEncrypt<float>::CEncrypt<float>
  000ad	8d 87 b0 11 00
	00		 lea	 eax, DWORD PTR [edi+4528]
  000b3	50		 push	 eax
  000b4	8d 8e b0 11 00
	00		 lea	 ecx, DWORD PTR [esi+4528]
  000ba	c6 45 fc 05	 mov	 BYTE PTR __$EHRec$[ebp+8], 5
  000be	e8 00 00 00 00	 call	 ??0?$CEncrypt@M@@QAE@ABV0@@Z ; CEncrypt<float>::CEncrypt<float>
  000c3	8d 87 e0 11 00
	00		 lea	 eax, DWORD PTR [edi+4576]
  000c9	50		 push	 eax
  000ca	8d 8e e0 11 00
	00		 lea	 ecx, DWORD PTR [esi+4576]
  000d0	c6 45 fc 06	 mov	 BYTE PTR __$EHRec$[ebp+8], 6
  000d4	e8 00 00 00 00	 call	 ??0?$CEncrypt@M@@QAE@ABV0@@Z ; CEncrypt<float>::CEncrypt<float>
  000d9	d9 87 10 12 00
	00		 fld	 DWORD PTR [edi+4624]
  000df	d9 9e 10 12 00
	00		 fstp	 DWORD PTR [esi+4624]
  000e5	8d 8e 1c 12 00
	00		 lea	 ecx, DWORD PTR [esi+4636]
  000eb	d9 87 14 12 00
	00		 fld	 DWORD PTR [edi+4628]
  000f1	c6 45 fc 07	 mov	 BYTE PTR __$EHRec$[ebp+8], 7
  000f5	d9 9e 14 12 00
	00		 fstp	 DWORD PTR [esi+4628]
  000fb	8a 87 18 12 00
	00		 mov	 al, BYTE PTR [edi+4632]
  00101	88 86 18 12 00
	00		 mov	 BYTE PTR [esi+4632], al
  00107	8d 87 1c 12 00
	00		 lea	 eax, DWORD PTR [edi+4636]
  0010d	50		 push	 eax
  0010e	ff 15 00 00 00
	00		 call	 DWORD PTR __imp_??0ioHashString@@QAE@ABV0@@Z
  00114	d9 87 2c 12 00
	00		 fld	 DWORD PTR [edi+4652]
  0011a	d9 9e 2c 12 00
	00		 fstp	 DWORD PTR [esi+4652]
  00120	8b 87 34 12 00
	00		 mov	 eax, DWORD PTR [edi+4660]
  00126	89 86 34 12 00
	00		 mov	 DWORD PTR [esi+4660], eax
  0012c	8d 87 38 12 00
	00		 lea	 eax, DWORD PTR [edi+4664]
  00132	50		 push	 eax
  00133	8d 8e 38 12 00
	00		 lea	 ecx, DWORD PTR [esi+4664]
  00139	c6 45 fc 08	 mov	 BYTE PTR __$EHRec$[ebp+8], 8
  0013d	e8 00 00 00 00	 call	 ??0?$vector@VioHashString@@V?$allocator@VioHashString@@@std@@@std@@QAE@ABV01@@Z ; std::vector<ioHashString,std::allocator<ioHashString> >::vector<ioHashString,std::allocator<ioHashString> >
  00142	8b 87 50 12 00
	00		 mov	 eax, DWORD PTR [edi+4688]
  00148	89 86 50 12 00
	00		 mov	 DWORD PTR [esi+4688], eax

; 42   : 	m_SkillState = SS_NONE;

  0014e	89 9e fc 10 00
	00		 mov	 DWORD PTR [esi+4348], ebx

; 43   : 
; 44   : 	m_dwSkillLoopStartTime = 0;

  00154	89 9e 00 11 00
	00		 mov	 DWORD PTR [esi+4352], ebx

; 45   : 	m_dwSkillLoopEndTime = 0;

  0015a	89 9e 04 11 00
	00		 mov	 DWORD PTR [esi+4356], ebx

; 46   : 
; 47   : 	m_nCurJumpCnt = 0;

  00160	89 9e e8 10 00
	00		 mov	 DWORD PTR [esi+4328], ebx

; 48   : }

  00166	8b c6		 mov	 eax, esi
  00168	e8 00 00 00 00	 call	 __EH_epilog3
  0016d	c2 04 00	 ret	 4
_TEXT	ENDS
;	COMDAT text$x
text$x	SEGMENT
__unwindfunclet$??0ioGrapplingBlowLoopSkill@@QAE@ABV0@@Z$0:
  00000	8b 4d f0	 mov	 ecx, DWORD PTR _this$[ebp]
  00003	e9 00 00 00 00	 jmp	 ??1ioAttackSkill@@UAE@XZ ; ioAttackSkill::~ioAttackSkill
__unwindfunclet$??0ioGrapplingBlowLoopSkill@@QAE@ABV0@@Z$1:
  00008	8b 4d f0	 mov	 ecx, DWORD PTR _this$[ebp]
  0000b	81 c1 ec 10 00
	00		 add	 ecx, 4332		; 000010ecH
  00011	e9 00 00 00 00	 jmp	 ??1?$vector@UStGrapInfo@ioGrapplingBlowLoopSkill@@V?$allocator@UStGrapInfo@ioGrapplingBlowLoopSkill@@@std@@@std@@QAE@XZ ; std::vector<ioGrapplingBlowLoopSkill::StGrapInfo,std::allocator<ioGrapplingBlowLoopSkill::StGrapInfo> >::~vector<ioGrapplingBlowLoopSkill::StGrapInfo,std::allocator<ioGrapplingBlowLoopSkill::StGrapInfo> >
__unwindfunclet$??0ioGrapplingBlowLoopSkill@@QAE@ABV0@@Z$2:
  00016	8b 4d f0	 mov	 ecx, DWORD PTR _this$[ebp]
  00019	81 c1 10 11 00
	00		 add	 ecx, 4368		; 00001110H
  0001f	e9 00 00 00 00	 jmp	 ??1?$CEncrypt@M@@UAE@XZ	; CEncrypt<float>::~CEncrypt<float>
__unwindfunclet$??0ioGrapplingBlowLoopSkill@@QAE@ABV0@@Z$3:
  00024	8b 4d f0	 mov	 ecx, DWORD PTR _this$[ebp]
  00027	81 c1 40 11 00
	00		 add	 ecx, 4416		; 00001140H
  0002d	e9 00 00 00 00	 jmp	 ??1?$CEncrypt@M@@UAE@XZ	; CEncrypt<float>::~CEncrypt<float>
__unwindfunclet$??0ioGrapplingBlowLoopSkill@@QAE@ABV0@@Z$4:
  00032	8b 4d f0	 mov	 ecx, DWORD PTR _this$[ebp]
  00035	81 c1 70 11 00
	00		 add	 ecx, 4464		; 00001170H
  0003b	ff 25 00 00 00
	00		 jmp	 DWORD PTR __imp_??1ioHashString@@QAE@XZ
__unwindfunclet$??0ioGrapplingBlowLoopSkill@@QAE@ABV0@@Z$5:
  00041	8b 4d f0	 mov	 ecx, DWORD PTR _this$[ebp]
  00044	81 c1 80 11 00
	00		 add	 ecx, 4480		; 00001180H
  0004a	e9 00 00 00 00	 jmp	 ??1?$CEncrypt@M@@UAE@XZ	; CEncrypt<float>::~CEncrypt<float>
__unwindfunclet$??0ioGrapplingBlowLoopSkill@@QAE@ABV0@@Z$6:
  0004f	8b 4d f0	 mov	 ecx, DWORD PTR _this$[ebp]
  00052	81 c1 b0 11 00
	00		 add	 ecx, 4528		; 000011b0H
  00058	e9 00 00 00 00	 jmp	 ??1?$CEncrypt@M@@UAE@XZ	; CEncrypt<float>::~CEncrypt<float>
__unwindfunclet$??0ioGrapplingBlowLoopSkill@@QAE@ABV0@@Z$7:
  0005d	8b 4d f0	 mov	 ecx, DWORD PTR _this$[ebp]
  00060	81 c1 e0 11 00
	00		 add	 ecx, 4576		; 000011e0H
  00066	e9 00 00 00 00	 jmp	 ??1?$CEncrypt@M@@UAE@XZ	; CEncrypt<float>::~CEncrypt<float>
__unwindfunclet$??0ioGrapplingBlowLoopSkill@@QAE@ABV0@@Z$8:
  0006b	8b 4d f0	 mov	 ecx, DWORD PTR _this$[ebp]
  0006e	81 c1 1c 12 00
	00		 add	 ecx, 4636		; 0000121cH
  00074	ff 25 00 00 00
	00		 jmp	 DWORD PTR __imp_??1ioHashString@@QAE@XZ
__ehhandler$??0ioGrapplingBlowLoopSkill@@QAE@ABV0@@Z:
  0007a	8b 54 24 08	 mov	 edx, DWORD PTR [esp+8]
  0007e	8d 42 0c	 lea	 eax, DWORD PTR [edx+12]
  00081	8b 4a ec	 mov	 ecx, DWORD PTR [edx-20]
  00084	33 c8		 xor	 ecx, eax
  00086	e8 00 00 00 00	 call	 @__security_check_cookie@4
  0008b	b8 00 00 00 00	 mov	 eax, OFFSET __ehfuncinfo$??0ioGrapplingBlowLoopSkill@@QAE@ABV0@@Z
  00090	e9 00 00 00 00	 jmp	 ___CxxFrameHandler3
text$x	ENDS
??0ioGrapplingBlowLoopSkill@@QAE@ABV0@@Z ENDP		; ioGrapplingBlowLoopSkill::ioGrapplingBlowLoopSkill
PUBLIC	??1ioGrapplingBlowLoopSkill@@UAE@XZ		; ioGrapplingBlowLoopSkill::~ioGrapplingBlowLoopSkill
;	COMDAT xdata$x
; File c:\program files (x86)\microsoft visual studio 10.0\vc\include\vector
xdata$x	SEGMENT
__ehfuncinfo$??1ioGrapplingBlowLoopSkill@@UAE@XZ DD 019930522H
	DD	09H
	DD	FLAT:__unwindtable$??1ioGrapplingBlowLoopSkill@@UAE@XZ
	DD	2 DUP(00H)
	DD	2 DUP(00H)
	DD	00H
	DD	01H
__unwindtable$??1ioGrapplingBlowLoopSkill@@UAE@XZ DD 0ffffffffH
	DD	FLAT:__unwindfunclet$??1ioGrapplingBlowLoopSkill@@UAE@XZ$0
	DD	00H
	DD	FLAT:__unwindfunclet$??1ioGrapplingBlowLoopSkill@@UAE@XZ$1
	DD	01H
	DD	FLAT:__unwindfunclet$??1ioGrapplingBlowLoopSkill@@UAE@XZ$2
	DD	02H
	DD	FLAT:__unwindfunclet$??1ioGrapplingBlowLoopSkill@@UAE@XZ$3
	DD	03H
	DD	FLAT:__unwindfunclet$??1ioGrapplingBlowLoopSkill@@UAE@XZ$4
	DD	04H
	DD	FLAT:__unwindfunclet$??1ioGrapplingBlowLoopSkill@@UAE@XZ$5
	DD	05H
	DD	FLAT:__unwindfunclet$??1ioGrapplingBlowLoopSkill@@UAE@XZ$6
	DD	06H
	DD	FLAT:__unwindfunclet$??1ioGrapplingBlowLoopSkill@@UAE@XZ$7
	DD	07H
	DD	FLAT:__unwindfunclet$??1ioGrapplingBlowLoopSkill@@UAE@XZ$8
; Function compile flags: /Ogsp
; File d:\lost saga for developer\youtube\tutorial\source\src\lsclient\iograpplingblowloopskill.cpp
xdata$x	ENDS
;	COMDAT ??1ioGrapplingBlowLoopSkill@@UAE@XZ
_TEXT	SEGMENT
_this$ = -16						; size = 4
__$EHRec$ = -12						; size = 12
??1ioGrapplingBlowLoopSkill@@UAE@XZ PROC		; ioGrapplingBlowLoopSkill::~ioGrapplingBlowLoopSkill, COMDAT
; _this$ = ecx

; 51   : {

  00000	6a 04		 push	 4
  00002	b8 00 00 00 00	 mov	 eax, __ehhandler$??1ioGrapplingBlowLoopSkill@@UAE@XZ
  00007	e8 00 00 00 00	 call	 __EH_prolog3
  0000c	8b f1		 mov	 esi, ecx
  0000e	89 75 f0	 mov	 DWORD PTR _this$[ebp], esi
  00011	c7 06 00 00 00
	00		 mov	 DWORD PTR [esi], OFFSET ??_7ioGrapplingBlowLoopSkill@@6B@

; 52   : }

  00017	8d 8e 38 12 00
	00		 lea	 ecx, DWORD PTR [esi+4664]
  0001d	c7 45 fc 08 00
	00 00		 mov	 DWORD PTR __$EHRec$[ebp+8], 8
  00024	e8 00 00 00 00	 call	 ?_Tidy@?$vector@VioHashString@@V?$allocator@VioHashString@@@std@@@std@@IAEXXZ ; std::vector<ioHashString,std::allocator<ioHashString> >::_Tidy
  00029	8b 1d 00 00 00
	00		 mov	 ebx, DWORD PTR __imp_??1ioHashString@@QAE@XZ
  0002f	8d 8e 1c 12 00
	00		 lea	 ecx, DWORD PTR [esi+4636]
  00035	c6 45 fc 07	 mov	 BYTE PTR __$EHRec$[ebp+8], 7
  00039	ff d3		 call	 ebx
  0003b	bf 00 00 00 00	 mov	 edi, OFFSET ??_7?$CEncrypt@M@@6B@
  00040	8d 8e ec 11 00
	00		 lea	 ecx, DWORD PTR [esi+4588]
  00046	c6 45 fc 06	 mov	 BYTE PTR __$EHRec$[ebp+8], 6
  0004a	89 be e0 11 00
	00		 mov	 DWORD PTR [esi+4576], edi
  00050	e8 00 00 00 00	 call	 ??1ccddaabb@@UAE@XZ	; ccddaabb::~ccddaabb
  00055	8d 8e bc 11 00
	00		 lea	 ecx, DWORD PTR [esi+4540]
  0005b	c6 45 fc 05	 mov	 BYTE PTR __$EHRec$[ebp+8], 5
  0005f	89 be b0 11 00
	00		 mov	 DWORD PTR [esi+4528], edi
  00065	e8 00 00 00 00	 call	 ??1ccddaabb@@UAE@XZ	; ccddaabb::~ccddaabb
  0006a	8d 8e 8c 11 00
	00		 lea	 ecx, DWORD PTR [esi+4492]
  00070	c6 45 fc 04	 mov	 BYTE PTR __$EHRec$[ebp+8], 4
  00074	89 be 80 11 00
	00		 mov	 DWORD PTR [esi+4480], edi
  0007a	e8 00 00 00 00	 call	 ??1ccddaabb@@UAE@XZ	; ccddaabb::~ccddaabb
  0007f	8d 8e 70 11 00
	00		 lea	 ecx, DWORD PTR [esi+4464]
  00085	c6 45 fc 03	 mov	 BYTE PTR __$EHRec$[ebp+8], 3
  00089	ff d3		 call	 ebx
  0008b	8d 8e 4c 11 00
	00		 lea	 ecx, DWORD PTR [esi+4428]
  00091	c6 45 fc 02	 mov	 BYTE PTR __$EHRec$[ebp+8], 2
  00095	89 be 40 11 00
	00		 mov	 DWORD PTR [esi+4416], edi
  0009b	e8 00 00 00 00	 call	 ??1ccddaabb@@UAE@XZ	; ccddaabb::~ccddaabb
  000a0	8d 8e 1c 11 00
	00		 lea	 ecx, DWORD PTR [esi+4380]
  000a6	c6 45 fc 01	 mov	 BYTE PTR __$EHRec$[ebp+8], 1
  000aa	89 be 10 11 00
	00		 mov	 DWORD PTR [esi+4368], edi
  000b0	e8 00 00 00 00	 call	 ??1ccddaabb@@UAE@XZ	; ccddaabb::~ccddaabb
  000b5	8d 8e ec 10 00
	00		 lea	 ecx, DWORD PTR [esi+4332]
  000bb	c6 45 fc 00	 mov	 BYTE PTR __$EHRec$[ebp+8], 0
  000bf	e8 00 00 00 00	 call	 ?_Tidy@?$vector@UStGrapInfo@ioGrapplingBlowLoopSkill@@V?$allocator@UStGrapInfo@ioGrapplingBlowLoopSkill@@@std@@@std@@IAEXXZ ; std::vector<ioGrapplingBlowLoopSkill::StGrapInfo,std::allocator<ioGrapplingBlowLoopSkill::StGrapInfo> >::_Tidy
  000c4	83 4d fc ff	 or	 DWORD PTR __$EHRec$[ebp+8], -1
  000c8	8b ce		 mov	 ecx, esi
  000ca	e8 00 00 00 00	 call	 ??1ioAttackSkill@@UAE@XZ ; ioAttackSkill::~ioAttackSkill
  000cf	e8 00 00 00 00	 call	 __EH_epilog3
  000d4	c3		 ret	 0
_TEXT	ENDS
;	COMDAT text$x
text$x	SEGMENT
__unwindfunclet$??1ioGrapplingBlowLoopSkill@@UAE@XZ$0:
  00000	8b 4d f0	 mov	 ecx, DWORD PTR _this$[ebp]
  00003	e9 00 00 00 00	 jmp	 ??1ioAttackSkill@@UAE@XZ ; ioAttackSkill::~ioAttackSkill
__unwindfunclet$??1ioGrapplingBlowLoopSkill@@UAE@XZ$1:
  00008	8b 4d f0	 mov	 ecx, DWORD PTR _this$[ebp]
  0000b	81 c1 ec 10 00
	00		 add	 ecx, 4332		; 000010ecH
  00011	e9 00 00 00 00	 jmp	 ??1?$vector@UStGrapInfo@ioGrapplingBlowLoopSkill@@V?$allocator@UStGrapInfo@ioGrapplingBlowLoopSkill@@@std@@@std@@QAE@XZ ; std::vector<ioGrapplingBlowLoopSkill::StGrapInfo,std::allocator<ioGrapplingBlowLoopSkill::StGrapInfo> >::~vector<ioGrapplingBlowLoopSkill::StGrapInfo,std::allocator<ioGrapplingBlowLoopSkill::StGrapInfo> >
__unwindfunclet$??1ioGrapplingBlowLoopSkill@@UAE@XZ$2:
  00016	8b 4d f0	 mov	 ecx, DWORD PTR _this$[ebp]
  00019	81 c1 10 11 00
	00		 add	 ecx, 4368		; 00001110H
  0001f	e9 00 00 00 00	 jmp	 ??1?$CEncrypt@M@@UAE@XZ	; CEncrypt<float>::~CEncrypt<float>
__unwindfunclet$??1ioGrapplingBlowLoopSkill@@UAE@XZ$3:
  00024	8b 4d f0	 mov	 ecx, DWORD PTR _this$[ebp]
  00027	81 c1 40 11 00
	00		 add	 ecx, 4416		; 00001140H
  0002d	e9 00 00 00 00	 jmp	 ??1?$CEncrypt@M@@UAE@XZ	; CEncrypt<float>::~CEncrypt<float>
__unwindfunclet$??1ioGrapplingBlowLoopSkill@@UAE@XZ$4:
  00032	8b 4d f0	 mov	 ecx, DWORD PTR _this$[ebp]
  00035	81 c1 70 11 00
	00		 add	 ecx, 4464		; 00001170H
  0003b	ff 25 00 00 00
	00		 jmp	 DWORD PTR __imp_??1ioHashString@@QAE@XZ
__unwindfunclet$??1ioGrapplingBlowLoopSkill@@UAE@XZ$5:
  00041	8b 4d f0	 mov	 ecx, DWORD PTR _this$[ebp]
  00044	81 c1 80 11 00
	00		 add	 ecx, 4480		; 00001180H
  0004a	e9 00 00 00 00	 jmp	 ??1?$CEncrypt@M@@UAE@XZ	; CEncrypt<float>::~CEncrypt<float>
__unwindfunclet$??1ioGrapplingBlowLoopSkill@@UAE@XZ$6:
  0004f	8b 4d f0	 mov	 ecx, DWORD PTR _this$[ebp]
  00052	81 c1 b0 11 00
	00		 add	 ecx, 4528		; 000011b0H
  00058	e9 00 00 00 00	 jmp	 ??1?$CEncrypt@M@@UAE@XZ	; CEncrypt<float>::~CEncrypt<float>
__unwindfunclet$??1ioGrapplingBlowLoopSkill@@UAE@XZ$7:
  0005d	8b 4d f0	 mov	 ecx, DWORD PTR _this$[ebp]
  00060	81 c1 e0 11 00
	00		 add	 ecx, 4576		; 000011e0H
  00066	e9 00 00 00 00	 jmp	 ??1?$CEncrypt@M@@UAE@XZ	; CEncrypt<float>::~CEncrypt<float>
__unwindfunclet$??1ioGrapplingBlowLoopSkill@@UAE@XZ$8:
  0006b	8b 4d f0	 mov	 ecx, DWORD PTR _this$[ebp]
  0006e	81 c1 1c 12 00
	00		 add	 ecx, 4636		; 0000121cH
  00074	ff 25 00 00 00
	00		 jmp	 DWORD PTR __imp_??1ioHashString@@QAE@XZ
__ehhandler$??1ioGrapplingBlowLoopSkill@@UAE@XZ:
  0007a	8b 54 24 08	 mov	 edx, DWORD PTR [esp+8]
  0007e	8d 42 0c	 lea	 eax, DWORD PTR [edx+12]
  00081	8b 4a ec	 mov	 ecx, DWORD PTR [edx-20]
  00084	33 c8		 xor	 ecx, eax
  00086	e8 00 00 00 00	 call	 @__security_check_cookie@4
  0008b	b8 00 00 00 00	 mov	 eax, OFFSET __ehfuncinfo$??1ioGrapplingBlowLoopSkill@@UAE@XZ
  00090	e9 00 00 00 00	 jmp	 ___CxxFrameHandler3
text$x	ENDS
??1ioGrapplingBlowLoopSkill@@UAE@XZ ENDP		; ioGrapplingBlowLoopSkill::~ioGrapplingBlowLoopSkill
;	COMDAT xdata$x
xdata$x	SEGMENT
__unwindtable$?Clone@ioGrapplingBlowLoopSkill@@UAEPAVioSkill@@XZ DD 0ffffffffH
	DD	FLAT:__unwindfunclet$?Clone@ioGrapplingBlowLoopSkill@@UAEPAVioSkill@@XZ$0
__ehfuncinfo$?Clone@ioGrapplingBlowLoopSkill@@UAEPAVioSkill@@XZ DD 019930522H
	DD	01H
	DD	FLAT:__unwindtable$?Clone@ioGrapplingBlowLoopSkill@@UAEPAVioSkill@@XZ
	DD	2 DUP(00H)
	DD	2 DUP(00H)
	DD	00H
	DD	01H
; Function compile flags: /Ogsp
xdata$x	ENDS
;	COMDAT ?Clone@ioGrapplingBlowLoopSkill@@UAEPAVioSkill@@XZ
_TEXT	SEGMENT
$T561790 = -16						; size = 4
__$EHRec$ = -12						; size = 12
?Clone@ioGrapplingBlowLoopSkill@@UAEPAVioSkill@@XZ PROC	; ioGrapplingBlowLoopSkill::Clone, COMDAT
; _this$ = ecx

; 151  : {

  00000	6a 04		 push	 4
  00002	b8 00 00 00 00	 mov	 eax, __ehhandler$?Clone@ioGrapplingBlowLoopSkill@@UAEPAVioSkill@@XZ
  00007	e8 00 00 00 00	 call	 __EH_prolog3
  0000c	8b f1		 mov	 esi, ecx

; 152  : 	return new ioGrapplingBlowLoopSkill( *this );

  0000e	68 58 12 00 00	 push	 4696			; 00001258H
  00013	e8 00 00 00 00	 call	 ??2@YAPAXI@Z		; operator new
  00018	59		 pop	 ecx
  00019	8b c8		 mov	 ecx, eax
  0001b	89 4d f0	 mov	 DWORD PTR $T561790[ebp], ecx
  0001e	33 c0		 xor	 eax, eax
  00020	89 45 fc	 mov	 DWORD PTR __$EHRec$[ebp+8], eax
  00023	3b c8		 cmp	 ecx, eax
  00025	74 06		 je	 SHORT $LN3@Clone
  00027	56		 push	 esi
  00028	e8 00 00 00 00	 call	 ??0ioGrapplingBlowLoopSkill@@QAE@ABV0@@Z ; ioGrapplingBlowLoopSkill::ioGrapplingBlowLoopSkill
$LN3@Clone:

; 153  : }

  0002d	e8 00 00 00 00	 call	 __EH_epilog3
  00032	c3		 ret	 0
_TEXT	ENDS
;	COMDAT text$x
text$x	SEGMENT
__unwindfunclet$?Clone@ioGrapplingBlowLoopSkill@@UAEPAVioSkill@@XZ$0:
  00000	ff 75 f0	 push	 DWORD PTR $T561790[ebp]
  00003	e8 00 00 00 00	 call	 ??3@YAXPAX@Z		; operator delete
  00008	59		 pop	 ecx
  00009	c3		 ret	 0
__ehhandler$?Clone@ioGrapplingBlowLoopSkill@@UAEPAVioSkill@@XZ:
  0000a	8b 54 24 08	 mov	 edx, DWORD PTR [esp+8]
  0000e	8d 42 0c	 lea	 eax, DWORD PTR [edx+12]
  00011	8b 4a ec	 mov	 ecx, DWORD PTR [edx-20]
  00014	33 c8		 xor	 ecx, eax
  00016	e8 00 00 00 00	 call	 @__security_check_cookie@4
  0001b	b8 00 00 00 00	 mov	 eax, OFFSET __ehfuncinfo$?Clone@ioGrapplingBlowLoopSkill@@UAEPAVioSkill@@XZ
  00020	e9 00 00 00 00	 jmp	 ___CxxFrameHandler3
text$x	ENDS
?Clone@ioGrapplingBlowLoopSkill@@UAEPAVioSkill@@XZ ENDP	; ioGrapplingBlowLoopSkill::Clone
PUBLIC	?push_back@?$vector@UStGrapInfo@ioGrapplingBlowLoopSkill@@V?$allocator@UStGrapInfo@ioGrapplingBlowLoopSkill@@@std@@@std@@QAEXABUStGrapInfo@ioGrapplingBlowLoopSkill@@@Z ; std::vector<ioGrapplingBlowLoopSkill::StGrapInfo,std::allocator<ioGrapplingBlowLoopSkill::StGrapInfo> >::push_back
; Function compile flags: /Ogsp
; File c:\program files (x86)\microsoft visual studio 10.0\vc\include\vector
;	COMDAT ?push_back@?$vector@UStGrapInfo@ioGrapplingBlowLoopSkill@@V?$allocator@UStGrapInfo@ioGrapplingBlowLoopSkill@@@std@@@std@@QAEXABUStGrapInfo@ioGrapplingBlowLoopSkill@@@Z
_TEXT	SEGMENT
__Val$ = 8						; size = 4
?push_back@?$vector@UStGrapInfo@ioGrapplingBlowLoopSkill@@V?$allocator@UStGrapInfo@ioGrapplingBlowLoopSkill@@@std@@@std@@QAEXABUStGrapInfo@ioGrapplingBlowLoopSkill@@@Z PROC ; std::vector<ioGrapplingBlowLoopSkill::StGrapInfo,std::allocator<ioGrapplingBlowLoopSkill::StGrapInfo> >::push_back, COMDAT
; _this$ = ecx

; 976  : 		{	// insert element at end

  00000	55		 push	 ebp
  00001	8b ec		 mov	 ebp, esp
  00003	56		 push	 esi
  00004	8b f1		 mov	 esi, ecx

; 977  : 		if (_Inside(_STD addressof(_Val)))

  00006	8b 46 04	 mov	 eax, DWORD PTR [esi+4]
  00009	57		 push	 edi
  0000a	8b 7d 08	 mov	 edi, DWORD PTR __Val$[ebp]
  0000d	3b f8		 cmp	 edi, eax
  0000f	73 2d		 jae	 SHORT $LN4@push_back@2
  00011	8b 0e		 mov	 ecx, DWORD PTR [esi]
  00013	3b cf		 cmp	 ecx, edi
  00015	77 27		 ja	 SHORT $LN4@push_back@2

; 978  : 			{	// push back an element
; 979  : 			size_type _Idx = _STD addressof(_Val) - this->_Myfirst;

  00017	2b f9		 sub	 edi, ecx

; 980  : 			if (this->_Mylast == this->_Myend)

  00019	3b 46 08	 cmp	 eax, DWORD PTR [esi+8]
  0001c	75 09		 jne	 SHORT $LN3@push_back@2

; 981  : 				_Reserve(1);

  0001e	6a 01		 push	 1
  00020	8b ce		 mov	 ecx, esi
  00022	e8 00 00 00 00	 call	 ?_Reserve@?$vector@UStGrapInfo@ioGrapplingBlowLoopSkill@@V?$allocator@UStGrapInfo@ioGrapplingBlowLoopSkill@@@std@@@std@@IAEXI@Z ; std::vector<ioGrapplingBlowLoopSkill::StGrapInfo,std::allocator<ioGrapplingBlowLoopSkill::StGrapInfo> >::_Reserve
$LN3@push_back@2:

; 982  : 			_Orphan_range(this->_Mylast, this->_Mylast);
; 983  : 			_Cons_val(this->_Alval,
; 984  : 				this->_Mylast,
; 985  : 				this->_Myfirst[_Idx]);

  00027	83 e7 80	 and	 edi, -128		; ffffff80H
  0002a	03 3e		 add	 edi, DWORD PTR [esi]
  0002c	8d 46 0c	 lea	 eax, DWORD PTR [esi+12]
  0002f	57		 push	 edi
  00030	ff 76 04	 push	 DWORD PTR [esi+4]
  00033	50		 push	 eax
  00034	e8 00 00 00 00	 call	 ??$_Cons_val@V?$allocator@UStGrapInfo@ioGrapplingBlowLoopSkill@@@std@@UStGrapInfo@ioGrapplingBlowLoopSkill@@AAU34@@std@@YAXAAV?$allocator@UStGrapInfo@ioGrapplingBlowLoopSkill@@@0@PAUStGrapInfo@ioGrapplingBlowLoopSkill@@AAU23@@Z ; std::_Cons_val<std::allocator<ioGrapplingBlowLoopSkill::StGrapInfo>,ioGrapplingBlowLoopSkill::StGrapInfo,ioGrapplingBlowLoopSkill::StGrapInfo &>
  00039	83 c4 0c	 add	 esp, 12			; 0000000cH

; 986  : 			++this->_Mylast;
; 987  : 			}
; 988  : 		else

  0003c	eb 19		 jmp	 SHORT $LN26@push_back@2
$LN4@push_back@2:

; 989  : 			{	// push back a non-element
; 990  : 			if (this->_Mylast == this->_Myend)

  0003e	3b 46 08	 cmp	 eax, DWORD PTR [esi+8]
  00041	75 09		 jne	 SHORT $LN1@push_back@2

; 991  : 				_Reserve(1);

  00043	6a 01		 push	 1
  00045	8b ce		 mov	 ecx, esi
  00047	e8 00 00 00 00	 call	 ?_Reserve@?$vector@UStGrapInfo@ioGrapplingBlowLoopSkill@@V?$allocator@UStGrapInfo@ioGrapplingBlowLoopSkill@@@std@@@std@@IAEXI@Z ; std::vector<ioGrapplingBlowLoopSkill::StGrapInfo,std::allocator<ioGrapplingBlowLoopSkill::StGrapInfo> >::_Reserve
$LN1@push_back@2:

; 992  : 			_Orphan_range(this->_Mylast, this->_Mylast);
; 993  : 			_Cons_val(this->_Alval,
; 994  : 				this->_Mylast,
; 995  : 				_Val);

  0004c	57		 push	 edi
  0004d	ff 76 04	 push	 DWORD PTR [esi+4]
  00050	e8 00 00 00 00	 call	 ??$_Construct@UStGrapInfo@ioGrapplingBlowLoopSkill@@ABU12@@std@@YAXPAUStGrapInfo@ioGrapplingBlowLoopSkill@@ABU12@@Z ; std::_Construct<ioGrapplingBlowLoopSkill::StGrapInfo,ioGrapplingBlowLoopSkill::StGrapInfo const &>
  00055	59		 pop	 ecx
  00056	59		 pop	 ecx
$LN26@push_back@2:

; 996  : 			++this->_Mylast;

  00057	83 6e 04 80	 sub	 DWORD PTR [esi+4], -128	; ffffff80H
  0005b	5f		 pop	 edi
  0005c	5e		 pop	 esi

; 997  : 			}
; 998  : 		}

  0005d	5d		 pop	 ebp
  0005e	c2 04 00	 ret	 4
?push_back@?$vector@UStGrapInfo@ioGrapplingBlowLoopSkill@@V?$allocator@UStGrapInfo@ioGrapplingBlowLoopSkill@@@std@@@std@@QAEXABUStGrapInfo@ioGrapplingBlowLoopSkill@@@Z ENDP ; std::vector<ioGrapplingBlowLoopSkill::StGrapInfo,std::allocator<ioGrapplingBlowLoopSkill::StGrapInfo> >::push_back
; Function compile flags: /Ogsp
_TEXT	ENDS
;	COMDAT ??_GioGrapplingBlowLoopSkill@@UAEPAXI@Z
_TEXT	SEGMENT
___flags$ = 8						; size = 4
??_GioGrapplingBlowLoopSkill@@UAEPAXI@Z PROC		; ioGrapplingBlowLoopSkill::`scalar deleting destructor', COMDAT
; _this$ = ecx
  00000	55		 push	 ebp
  00001	8b ec		 mov	 ebp, esp
  00003	56		 push	 esi
  00004	8b f1		 mov	 esi, ecx
  00006	e8 00 00 00 00	 call	 ??1ioGrapplingBlowLoopSkill@@UAE@XZ ; ioGrapplingBlowLoopSkill::~ioGrapplingBlowLoopSkill
  0000b	f6 45 08 01	 test	 BYTE PTR ___flags$[ebp], 1
  0000f	74 07		 je	 SHORT $LN1@scalar@6
  00011	56		 push	 esi
  00012	e8 00 00 00 00	 call	 ??3@YAXPAX@Z		; operator delete
  00017	59		 pop	 ecx
$LN1@scalar@6:
  00018	8b c6		 mov	 eax, esi
  0001a	5e		 pop	 esi
  0001b	5d		 pop	 ebp
  0001c	c2 04 00	 ret	 4
??_GioGrapplingBlowLoopSkill@@UAEPAXI@Z ENDP		; ioGrapplingBlowLoopSkill::`scalar deleting destructor'
_TEXT	ENDS
PUBLIC	??_C@_00CNPNBAHC@?$AA@				; `string'
PUBLIC	_rkLoader$GSCopy$
EXTRN	?LoadAttackAttribute@@YAXPBDAAUAttackAttribute@@AAVioINILoader@@@Z:PROC ; LoadAttackAttribute
EXTRN	__imp_??4ioHashString@@QAEAAV0@PBD@Z:PROC
EXTRN	__imp__wsprintfA:PROC
EXTRN	?LoadProperty@ioAttackSkill@@UAEXAAVioINILoader@@@Z:PROC ; ioAttackSkill::LoadProperty
EXTRN	__ftol2_sse:PROC
EXTRN	_memset:PROC
;	COMDAT ??_C@_00CNPNBAHC@?$AA@
; File d:\lost saga for developer\youtube\tutorial\source\src\lsclient\stringprotect.h
CONST	SEGMENT
??_C@_00CNPNBAHC@?$AA@ DB 00H				; `string'
CONST	ENDS
;	COMDAT xdata$x
xdata$x	SEGMENT
__unwindtable$?LoadProperty@ioGrapplingBlowLoopSkill@@UAEXAAVioINILoader@@@Z DD 0ffffffffH
	DD	FLAT:__unwindfunclet$?LoadProperty@ioGrapplingBlowLoopSkill@@UAEXAAVioINILoader@@@Z$0
	DD	0ffffffffH
	DD	FLAT:__unwindfunclet$?LoadProperty@ioGrapplingBlowLoopSkill@@UAEXAAVioINILoader@@@Z$1
	DD	0ffffffffH
	DD	FLAT:__unwindfunclet$?LoadProperty@ioGrapplingBlowLoopSkill@@UAEXAAVioINILoader@@@Z$2
__ehfuncinfo$?LoadProperty@ioGrapplingBlowLoopSkill@@UAEXAAVioINILoader@@@Z DD 019930522H
	DD	03H
	DD	FLAT:__unwindtable$?LoadProperty@ioGrapplingBlowLoopSkill@@UAEXAAVioINILoader@@@Z
	DD	2 DUP(00H)
	DD	2 DUP(00H)
	DD	00H
	DD	01H
; Function compile flags: /Ogsp
; File d:\lost saga for developer\youtube\tutorial\source\src\lsclient\iograpplingblowloopskill.cpp
xdata$x	ENDS
;	COMDAT ?LoadProperty@ioGrapplingBlowLoopSkill@@UAEXAAVioINILoader@@@Z
_TEXT	SEGMENT
_Info$549953 = -1460					; size = 128
$T561842 = -1332					; size = 16
_szBuffName$549947 = -1316				; size = 16
tv22696 = -1300						; size = 4
tv22692 = -1300						; size = 4
tv22656 = -1300						; size = 4
tv22626 = -1300						; size = 4
tv22608 = -1300						; size = 4
tv18666 = -1300						; size = 4
_iBuffCnt$ = -1300					; size = 4
tv22688 = -1296						; size = 4
tv18327 = -1296						; size = 4
$T562753 = -1296					; size = 4
_iLoopBuffCnt$ = -1296					; size = 4
_value$562234 = -1292					; size = 4
_value$561973 = -1288					; size = 4
_value$562103 = -1284					; size = 4
_value$562364 = -1280					; size = 4
_value$562494 = -1276					; size = 4
tv22768 = -1272						; size = 4
_i$563772 = -1272					; size = 4
_i$563131 = -1272					; size = 4
_rkLoader$GSCopy$ = -1268				; size = 4
_szBuf$ = -1264						; size = 260
_szKey$ = -1004						; size = 260
___encStr$550567 = -744					; size = 29
__k$561991 = -708					; size = 29
___encStr$550414 = -672					; size = 35
___encStr$549957 = -632					; size = 25
___encStr$550262 = -600					; size = 30
___encStr$550109 = -564					; size = 30
__k$561861 = -528					; size = 28
__k$563049 = -496					; size = 21
__k$563423 = -468					; size = 21
__k$562394 = -440					; size = 26
__k$562264 = -408					; size = 26
__k$562524 = -376					; size = 24
__k$562649 = -348					; size = 24
__k$562907 = -320					; size = 17
__k$562782 = -296					; size = 17
__k$562121 = -272					; size = 22
__k$564014 = -244					; size = 20
__k$563156 = -220					; size = 19
___encStr$549606 = -196					; size = 19
__k$563673 = -172					; size = 18
__k$563548 = -148					; size = 18
__k$563797 = -124					; size = 18
___encStr$550871 = -100					; size = 18
___encStr$549798 = -76					; size = 16
__k$563294 = -56					; size = 16
___encStr$550719 = -36					; size = 14
__$EHRec$ = -12						; size = 12
_rkLoader$ = 8						; size = 4
?LoadProperty@ioGrapplingBlowLoopSkill@@UAEXAAVioINILoader@@@Z PROC ; ioGrapplingBlowLoopSkill::LoadProperty, COMDAT
; _this$ = ecx

; 55   : {

  00000	68 a8 05 00 00	 push	 1448			; 000005a8H
  00005	b8 00 00 00 00	 mov	 eax, __ehhandler$?LoadProperty@ioGrapplingBlowLoopSkill@@UAEXAAVioINILoader@@@Z
  0000a	e8 00 00 00 00	 call	 __EH_prolog3_GS
  0000f	8b 45 08	 mov	 eax, DWORD PTR _rkLoader$[ebp]

; 56   : 	ioAttackSkill::LoadProperty( rkLoader );

  00012	50		 push	 eax
  00013	8b f1		 mov	 esi, ecx

; 139  : 
; 140  : 		wsprintf_e( szKey, "jump_move_speed%d", i+1 );

  00015	89 85 0c fb ff
	ff		 mov	 DWORD PTR _rkLoader$GSCopy$[ebp], eax
  0001b	e8 00 00 00 00	 call	 ?LoadProperty@ioAttackSkill@@UAEXAAVioINILoader@@@Z ; ioAttackSkill::LoadProperty
  00020	bf 03 01 00 00	 mov	 edi, 259		; 00000103H
  00025	33 db		 xor	 ebx, ebx
  00027	57		 push	 edi
  00028	8d 85 11 fb ff
	ff		 lea	 eax, DWORD PTR _szBuf$[ebp+1]
  0002e	53		 push	 ebx
  0002f	50		 push	 eax
  00030	88 9d 10 fb ff
	ff		 mov	 BYTE PTR _szBuf$[ebp], bl
  00036	e8 00 00 00 00	 call	 _memset
  0003b	57		 push	 edi
  0003c	8d 85 15 fc ff
	ff		 lea	 eax, DWORD PTR _szKey$[ebp+1]
  00042	53		 push	 ebx
  00043	50		 push	 eax
  00044	88 9d 14 fc ff
	ff		 mov	 BYTE PTR _szKey$[ebp], bl
  0004a	e8 00 00 00 00	 call	 _memset
  0004f	83 c4 18	 add	 esp, 24			; 00000018H
  00052	6a 06		 push	 6
  00054	c7 85 f0 fd ff
	ff 9e 87 82 86	 mov	 DWORD PTR __k$561861[ebp], -2038265954 ; 8682879eH
  0005e	c7 85 f4 fd ff
	ff 81 b3 9f 8b	 mov	 DWORD PTR __k$561861[ebp+4], -1952468095 ; 8b9fb381H
  00068	c7 85 f8 fd ff
	ff 9f 8b 8e 9e	 mov	 DWORD PTR __k$561861[ebp+8], -1634825313 ; 9e8e8b9fH
  00072	c7 85 fc fd ff
	ff b2 80 84 85	 mov	 DWORD PTR __k$561861[ebp+12], -2054913870 ; 858480b2H
  0007c	c7 85 00 fe ff
	ff 9d b3 8c 8b	 mov	 DWORD PTR __k$561861[ebp+16], -1953713251 ; 8b8cb39dH
  00086	c7 85 04 fe ff
	ff 9d b3 99 8b	 mov	 DWORD PTR __k$561861[ebp+20], -1952861283 ; 8b99b39dH
  00090	8d 85 f0 fd ff
	ff		 lea	 eax, DWORD PTR __k$561861[ebp]
  00096	c7 85 08 fe ff
	ff 83 8b 8e 00	 mov	 DWORD PTR __k$561861[ebp+24], 9341827 ; 008e8b83H
  000a0	59		 pop	 ecx
  000a1	bf ed ec eb ea	 mov	 edi, -353637139		; eaebecedH
$LL1010@LoadProper:

; 57   : 
; 58   : 	char szBuf[MAX_PATH] = "";
; 59   : 	char szKey[MAX_PATH] = "";
; 60   : 
; 61   : 	/*rkLoader.LoadString_e( "skill_loop_motion", "", szBuf, MAX_PATH );
; 62   : 	m_SkillLoopMotion = szBuf;
; 63   : 
; 64   : 	m_fSkillLoopMotionRate = rkLoader.LoadFloat_e( "skill_loop_motion_rate", FLOAT1 );*/
; 65   : 
; 66   : 	m_fTargetLoopGapRange = rkLoader.LoadFloat_e( "skill_target_loop_gap_range", 0.0f );

  000a6	31 38		 xor	 DWORD PTR [eax], edi
  000a8	83 c0 04	 add	 eax, 4
  000ab	49		 dec	 ecx
  000ac	75 f8		 jne	 SHORT $LL1010@LoadProper
  000ae	6a 18		 push	 24			; 00000018H
  000b0	58		 pop	 eax
$LL1007@LoadProper:
  000b1	8b c8		 mov	 ecx, eax
  000b3	81 e1 03 00 00
	80		 and	 ecx, -2147483645	; 80000003H
  000b9	79 05		 jns	 SHORT $LN2915@LoadProper
  000bb	49		 dec	 ecx
  000bc	83 c9 fc	 or	 ecx, -4			; fffffffcH
  000bf	41		 inc	 ecx
$LN2915@LoadProper:
  000c0	b2 ed		 mov	 dl, -19			; ffffffedH
  000c2	2a d1		 sub	 dl, cl
  000c4	30 94 05 f0 fd
	ff ff		 xor	 BYTE PTR __k$561861[ebp+eax], dl
  000cb	40		 inc	 eax
  000cc	83 f8 1b	 cmp	 eax, 27			; 0000001bH
  000cf	7c e0		 jl	 SHORT $LL1007@LoadProper
  000d1	0f 57 c0	 xorps	 xmm0, xmm0
  000d4	51		 push	 ecx
  000d5	8b 8d 0c fb ff
	ff		 mov	 ecx, DWORD PTR _rkLoader$GSCopy$[ebp]
  000db	8d 85 f0 fd ff
	ff		 lea	 eax, DWORD PTR __k$561861[ebp]
  000e1	f3 0f 11 04 24	 movss	 DWORD PTR [esp], xmm0
  000e6	50		 push	 eax
  000e7	ff 15 00 00 00
	00		 call	 DWORD PTR __imp_?LoadFloat@ioINILoader@@QAEMPBDM@Z
  000ed	d9 9d f8 fa ff
	ff		 fstp	 DWORD PTR _value$561973[ebp]
  000f3	8d 85 f8 fa ff
	ff		 lea	 eax, DWORD PTR _value$561973[ebp]
  000f9	50		 push	 eax
  000fa	8d 8e 10 11 00
	00		 lea	 ecx, DWORD PTR [esi+4368]
  00100	e8 00 00 00 00	 call	 ?EncryptValueToPool@?$CEncrypt@M@@AAEXPBD@Z ; CEncrypt<float>::EncryptValueToPool
  00105	6a 07		 push	 7

; 67   : 	m_fTargetLoopGapHeight = rkLoader.LoadFloat_e( "skill_target_loop_gap_height", 0.f );

  00107	c7 85 3c fd ff
	ff 9e 87 82 86	 mov	 DWORD PTR __k$561991[ebp], -2038265954 ; 8682879eH
  00111	c7 85 40 fd ff
	ff 81 b3 9f 8b	 mov	 DWORD PTR __k$561991[ebp+4], -1952468095 ; 8b9fb381H
  0011b	c7 85 44 fd ff
	ff 9f 8b 8e 9e	 mov	 DWORD PTR __k$561991[ebp+8], -1634825313 ; 9e8e8b9fH
  00125	c7 85 48 fd ff
	ff b2 80 84 85	 mov	 DWORD PTR __k$561991[ebp+12], -2054913870 ; 858480b2H
  0012f	c7 85 4c fd ff
	ff 9d b3 8c 8b	 mov	 DWORD PTR __k$561991[ebp+16], -1953713251 ; 8b8cb39dH
  00139	c7 85 50 fd ff
	ff 9d b3 83 8f	 mov	 DWORD PTR __k$561991[ebp+20], -1887194211 ; 8f83b39dH
  00143	c7 85 54 fd ff
	ff 84 8b 83 9e	 mov	 DWORD PTR __k$561991[ebp+24], -1635546236 ; 9e838b84H
  0014d	8d 85 3c fd ff
	ff		 lea	 eax, DWORD PTR __k$561991[ebp]
  00153	88 9d 58 fd ff
	ff		 mov	 BYTE PTR __k$561991[ebp+28], bl
  00159	59		 pop	 ecx
$LL1118@LoadProper:
  0015a	31 38		 xor	 DWORD PTR [eax], edi
  0015c	83 c0 04	 add	 eax, 4
  0015f	49		 dec	 ecx
  00160	75 f8		 jne	 SHORT $LL1118@LoadProper
  00162	0f 57 c0	 xorps	 xmm0, xmm0
  00165	51		 push	 ecx
  00166	8b 8d 0c fb ff
	ff		 mov	 ecx, DWORD PTR _rkLoader$GSCopy$[ebp]
  0016c	8d 85 3c fd ff
	ff		 lea	 eax, DWORD PTR __k$561991[ebp]
  00172	f3 0f 11 04 24	 movss	 DWORD PTR [esp], xmm0
  00177	50		 push	 eax
  00178	ff 15 00 00 00
	00		 call	 DWORD PTR __imp_?LoadFloat@ioINILoader@@QAEMPBDM@Z
  0017e	d9 9d fc fa ff
	ff		 fstp	 DWORD PTR _value$562103[ebp]
  00184	8d 85 fc fa ff
	ff		 lea	 eax, DWORD PTR _value$562103[ebp]
  0018a	50		 push	 eax
  0018b	8d 8e 40 11 00
	00		 lea	 ecx, DWORD PTR [esi+4416]
  00191	e8 00 00 00 00	 call	 ?EncryptValueToPool@?$CEncrypt@M@@AAEXPBD@Z ; CEncrypt<float>::EncryptValueToPool
  00196	6a 05		 push	 5

; 68   : 
; 69   : 	m_fGrapplingRange = rkLoader.LoadFloat_e( "skill_grappling_range", 0.0f );

  00198	c7 85 f0 fe ff
	ff 9e 87 82 86	 mov	 DWORD PTR __k$562121[ebp], -2038265954 ; 8682879eH
  001a2	c7 85 f4 fe ff
	ff 81 b3 8c 98	 mov	 DWORD PTR __k$562121[ebp+4], -1735609471 ; 988cb381H
  001ac	c7 85 f8 fe ff
	ff 8c 9c 9b 86	 mov	 DWORD PTR __k$562121[ebp+8], -2036622196 ; 869b9c8cH
  001b6	c7 85 fc fe ff
	ff 84 82 8c b5	 mov	 DWORD PTR __k$562121[ebp+12], -1249082748 ; b58c8284H
  001c0	c7 85 00 ff ff
	ff 9f 8d 85 8d	 mov	 DWORD PTR __k$562121[ebp+16], -1920627297 ; 8d858d9fH
  001ca	8d 85 f0 fe ff
	ff		 lea	 eax, DWORD PTR __k$562121[ebp]
  001d0	66 c7 85 04 ff
	ff ff 88 00	 mov	 WORD PTR __k$562121[ebp+20], 136 ; 00000088H
  001d9	59		 pop	 ecx
$LL1226@LoadProper:
  001da	31 38		 xor	 DWORD PTR [eax], edi
  001dc	83 c0 04	 add	 eax, 4
  001df	49		 dec	 ecx
  001e0	75 f8		 jne	 SHORT $LL1226@LoadProper
  001e2	0f 57 c0	 xorps	 xmm0, xmm0
  001e5	80 b5 04 ff ff
	ff ed		 xor	 BYTE PTR __k$562121[ebp+20], -19 ; ffffffedH
  001ec	51		 push	 ecx
  001ed	8b 8d 0c fb ff
	ff		 mov	 ecx, DWORD PTR _rkLoader$GSCopy$[ebp]
  001f3	8d 85 f0 fe ff
	ff		 lea	 eax, DWORD PTR __k$562121[ebp]
  001f9	f3 0f 11 04 24	 movss	 DWORD PTR [esp], xmm0
  001fe	50		 push	 eax
  001ff	ff 15 00 00 00
	00		 call	 DWORD PTR __imp_?LoadFloat@ioINILoader@@QAEMPBDM@Z
  00205	d9 9d f4 fa ff
	ff		 fstp	 DWORD PTR _value$562234[ebp]
  0020b	8d 85 f4 fa ff
	ff		 lea	 eax, DWORD PTR _value$562234[ebp]
  00211	50		 push	 eax
  00212	8d 8e 80 11 00
	00		 lea	 ecx, DWORD PTR [esi+4480]
  00218	e8 00 00 00 00	 call	 ?EncryptValueToPool@?$CEncrypt@M@@AAEXPBD@Z ; CEncrypt<float>::EncryptValueToPool
  0021d	6a 06		 push	 6

; 70   : 	m_fGrapplingMinAngle = rkLoader.LoadFloat_e( "skill_grappling_min_angle", 0.0f );

  0021f	c7 85 68 fe ff
	ff 9e 87 82 86	 mov	 DWORD PTR __k$562264[ebp], -2038265954 ; 8682879eH
  00229	c7 85 6c fe ff
	ff 81 b3 8c 98	 mov	 DWORD PTR __k$562264[ebp+4], -1735609471 ; 988cb381H
  00233	c7 85 70 fe ff
	ff 8c 9c 9b 86	 mov	 DWORD PTR __k$562264[ebp+8], -2036622196 ; 869b9c8cH
  0023d	c7 85 74 fe ff
	ff 84 82 8c b5	 mov	 DWORD PTR __k$562264[ebp+12], -1249082748 ; b58c8284H
  00247	c7 85 78 fe ff
	ff 80 85 85 b5	 mov	 DWORD PTR __k$562264[ebp+16], -1249540736 ; b5858580H
  00251	c7 85 7c fe ff
	ff 8c 82 8c 86	 mov	 DWORD PTR __k$562264[ebp+20], -2037611892 ; 868c828cH
  0025b	8d 85 68 fe ff
	ff		 lea	 eax, DWORD PTR __k$562264[ebp]
  00261	66 c7 85 80 fe
	ff ff 88 00	 mov	 WORD PTR __k$562264[ebp+24], 136 ; 00000088H
  0026a	59		 pop	 ecx
$LL1334@LoadProper:
  0026b	31 38		 xor	 DWORD PTR [eax], edi
  0026d	83 c0 04	 add	 eax, 4
  00270	49		 dec	 ecx
  00271	75 f8		 jne	 SHORT $LL1334@LoadProper
  00273	0f 57 c0	 xorps	 xmm0, xmm0
  00276	80 b5 80 fe ff
	ff ed		 xor	 BYTE PTR __k$562264[ebp+24], -19 ; ffffffedH
  0027d	51		 push	 ecx
  0027e	8b 8d 0c fb ff
	ff		 mov	 ecx, DWORD PTR _rkLoader$GSCopy$[ebp]
  00284	8d 85 68 fe ff
	ff		 lea	 eax, DWORD PTR __k$562264[ebp]
  0028a	f3 0f 11 04 24	 movss	 DWORD PTR [esp], xmm0
  0028f	50		 push	 eax
  00290	ff 15 00 00 00
	00		 call	 DWORD PTR __imp_?LoadFloat@ioINILoader@@QAEMPBDM@Z
  00296	d9 9d 00 fb ff
	ff		 fstp	 DWORD PTR _value$562364[ebp]
  0029c	8d 85 00 fb ff
	ff		 lea	 eax, DWORD PTR _value$562364[ebp]
  002a2	50		 push	 eax
  002a3	8d 8e b0 11 00
	00		 lea	 ecx, DWORD PTR [esi+4528]
  002a9	e8 00 00 00 00	 call	 ?EncryptValueToPool@?$CEncrypt@M@@AAEXPBD@Z ; CEncrypt<float>::EncryptValueToPool
  002ae	6a 06		 push	 6

; 71   : 	m_fGrapplingMaxAngle = rkLoader.LoadFloat_e( "skill_grappling_max_angle", 0.0f );

  002b0	c7 85 48 fe ff
	ff 9e 87 82 86	 mov	 DWORD PTR __k$562394[ebp], -2038265954 ; 8682879eH
  002ba	c7 85 4c fe ff
	ff 81 b3 8c 98	 mov	 DWORD PTR __k$562394[ebp+4], -1735609471 ; 988cb381H
  002c4	c7 85 50 fe ff
	ff 8c 9c 9b 86	 mov	 DWORD PTR __k$562394[ebp+8], -2036622196 ; 869b9c8cH
  002ce	c7 85 54 fe ff
	ff 84 82 8c b5	 mov	 DWORD PTR __k$562394[ebp+12], -1249082748 ; b58c8284H
  002d8	c7 85 58 fe ff
	ff 80 8d 93 b5	 mov	 DWORD PTR __k$562394[ebp+16], -1248621184 ; b5938d80H
  002e2	c7 85 5c fe ff
	ff 8c 82 8c 86	 mov	 DWORD PTR __k$562394[ebp+20], -2037611892 ; 868c828cH
  002ec	8d 85 48 fe ff
	ff		 lea	 eax, DWORD PTR __k$562394[ebp]
  002f2	66 c7 85 60 fe
	ff ff 88 00	 mov	 WORD PTR __k$562394[ebp+24], 136 ; 00000088H
  002fb	59		 pop	 ecx
$LL1442@LoadProper:
  002fc	31 38		 xor	 DWORD PTR [eax], edi
  002fe	83 c0 04	 add	 eax, 4
  00301	49		 dec	 ecx
  00302	75 f8		 jne	 SHORT $LL1442@LoadProper
  00304	0f 57 c0	 xorps	 xmm0, xmm0
  00307	80 b5 60 fe ff
	ff ed		 xor	 BYTE PTR __k$562394[ebp+24], -19 ; ffffffedH
  0030e	51		 push	 ecx
  0030f	8b 8d 0c fb ff
	ff		 mov	 ecx, DWORD PTR _rkLoader$GSCopy$[ebp]
  00315	8d 85 48 fe ff
	ff		 lea	 eax, DWORD PTR __k$562394[ebp]
  0031b	f3 0f 11 04 24	 movss	 DWORD PTR [esp], xmm0
  00320	50		 push	 eax
  00321	ff 15 00 00 00
	00		 call	 DWORD PTR __imp_?LoadFloat@ioINILoader@@QAEMPBDM@Z
  00327	d9 9d 04 fb ff
	ff		 fstp	 DWORD PTR _value$562494[ebp]
  0032d	8d 85 04 fb ff
	ff		 lea	 eax, DWORD PTR _value$562494[ebp]
  00333	50		 push	 eax
  00334	8d 8e e0 11 00
	00		 lea	 ecx, DWORD PTR [esi+4576]
  0033a	e8 00 00 00 00	 call	 ?EncryptValueToPool@?$CEncrypt@M@@AAEXPBD@Z ; CEncrypt<float>::EncryptValueToPool
  0033f	6a 05		 push	 5

; 72   : 
; 73   : 	m_dwLoopRotateTime = rkLoader.LoadInt_e( "skill_loop_rotate_speed", 0 );

  00341	c7 85 88 fe ff
	ff 9e 87 82 86	 mov	 DWORD PTR __k$562524[ebp], -2038265954 ; 8682879eH
  0034b	c7 85 8c fe ff
	ff 81 b3 87 85	 mov	 DWORD PTR __k$562524[ebp+4], -2054704255 ; 8587b381H
  00355	c7 85 90 fe ff
	ff 82 9c b4 98	 mov	 DWORD PTR __k$562524[ebp+8], -1732993918 ; 98b49c82H
  0035f	c7 85 94 fe ff
	ff 82 98 8a 9e	 mov	 DWORD PTR __k$562524[ebp+12], -1635084158 ; 9e8a9882H
  00369	c7 85 98 fe ff
	ff 88 b3 98 9a	 mov	 DWORD PTR __k$562524[ebp+16], -1701268600 ; 9a98b388H
  00373	8d 85 88 fe ff
	ff		 lea	 eax, DWORD PTR __k$562524[ebp]
  00379	c7 85 9c fe ff
	ff 88 89 8f 00	 mov	 DWORD PTR __k$562524[ebp+20], 9406856 ; 008f8988H
  00383	59		 pop	 ecx
$LL1550@LoadProper:
  00384	31 38		 xor	 DWORD PTR [eax], edi
  00386	83 c0 04	 add	 eax, 4
  00389	49		 dec	 ecx
  0038a	75 f8		 jne	 SHORT $LL1550@LoadProper
  0038c	6a 14		 push	 20			; 00000014H
  0038e	58		 pop	 eax
$LL1547@LoadProper:
  0038f	8b c8		 mov	 ecx, eax
  00391	81 e1 03 00 00
	80		 and	 ecx, -2147483645	; 80000003H
  00397	79 05		 jns	 SHORT $LN2916@LoadProper
  00399	49		 dec	 ecx
  0039a	83 c9 fc	 or	 ecx, -4			; fffffffcH
  0039d	41		 inc	 ecx
$LN2916@LoadProper:
  0039e	b2 ed		 mov	 dl, -19			; ffffffedH
  003a0	2a d1		 sub	 dl, cl
  003a2	30 94 05 88 fe
	ff ff		 xor	 BYTE PTR __k$562524[ebp+eax], dl
  003a9	40		 inc	 eax
  003aa	83 f8 17	 cmp	 eax, 23			; 00000017H
  003ad	7c e0		 jl	 SHORT $LL1547@LoadProper
  003af	8b 8d 0c fb ff
	ff		 mov	 ecx, DWORD PTR _rkLoader$GSCopy$[ebp]
  003b5	53		 push	 ebx
  003b6	8d 85 88 fe ff
	ff		 lea	 eax, DWORD PTR __k$562524[ebp]
  003bc	50		 push	 eax
  003bd	ff 15 00 00 00
	00		 call	 DWORD PTR __imp_?LoadInt@ioINILoader@@QAEHPBDH@Z
  003c3	89 86 0c 11 00
	00		 mov	 DWORD PTR [esi+4364], eax
  003c9	6a 05		 push	 5

; 74   : 	m_dwSkillLoopProtectTime = rkLoader.LoadInt_e( "skill_loop_protect_time", 0 );

  003cb	c7 85 a4 fe ff
	ff 9e 87 82 86	 mov	 DWORD PTR __k$562649[ebp], -2038265954 ; 8682879eH
  003d5	c7 85 a8 fe ff
	ff 81 b3 87 85	 mov	 DWORD PTR __k$562649[ebp+4], -2054704255 ; 8587b381H
  003df	c7 85 ac fe ff
	ff 82 9c b4 9a	 mov	 DWORD PTR __k$562649[ebp+8], -1699439486 ; 9ab49c82H
  003e9	c7 85 b0 fe ff
	ff 9f 83 9f 8f	 mov	 DWORD PTR __k$562649[ebp+12], -1885371489 ; 8f9f839fH
  003f3	c7 85 b4 fe ff
	ff 8e 98 b4 9e	 mov	 DWORD PTR __k$562649[ebp+16], -1632331634 ; 9eb4988eH
  003fd	8d 85 a4 fe ff
	ff		 lea	 eax, DWORD PTR __k$562649[ebp]
  00403	c7 85 b8 fe ff
	ff 84 81 8e 00	 mov	 DWORD PTR __k$562649[ebp+20], 9339268 ; 008e8184H
  0040d	59		 pop	 ecx
$LL1656@LoadProper:
  0040e	31 38		 xor	 DWORD PTR [eax], edi
  00410	83 c0 04	 add	 eax, 4
  00413	49		 dec	 ecx
  00414	75 f8		 jne	 SHORT $LL1656@LoadProper
  00416	6a 14		 push	 20			; 00000014H
  00418	58		 pop	 eax
$LL1653@LoadProper:
  00419	8b c8		 mov	 ecx, eax
  0041b	81 e1 03 00 00
	80		 and	 ecx, -2147483645	; 80000003H
  00421	79 05		 jns	 SHORT $LN2917@LoadProper
  00423	49		 dec	 ecx
  00424	83 c9 fc	 or	 ecx, -4			; fffffffcH
  00427	41		 inc	 ecx
$LN2917@LoadProper:
  00428	b2 ed		 mov	 dl, -19			; ffffffedH
  0042a	2a d1		 sub	 dl, cl
  0042c	30 94 05 a4 fe
	ff ff		 xor	 BYTE PTR __k$562649[ebp+eax], dl
  00433	40		 inc	 eax
  00434	83 f8 17	 cmp	 eax, 23			; 00000017H
  00437	7c e0		 jl	 SHORT $LL1653@LoadProper
  00439	8b 8d 0c fb ff
	ff		 mov	 ecx, DWORD PTR _rkLoader$GSCopy$[ebp]
  0043f	53		 push	 ebx
  00440	8d 85 a4 fe ff
	ff		 lea	 eax, DWORD PTR __k$562649[ebp]
  00446	50		 push	 eax
  00447	ff 15 00 00 00
	00		 call	 DWORD PTR __imp_?LoadInt@ioINILoader@@QAEHPBDH@Z
  0044d	89 86 08 11 00
	00		 mov	 DWORD PTR [esi+4360], eax

; 75   : 
; 76   : 	m_fCharHeightRate = rkLoader.LoadFloat_e( "char_height_rate", FLOAT05 );

  00453	b8 05 00 00 00	 mov	 eax, 5
  00458	8b d0		 mov	 edx, eax
  0045a	b8 0a 00 00 00	 mov	 eax, 10			; 0000000aH
  0045f	6a 04		 push	 4
  00461	89 85 f0 fa ff
	ff		 mov	 DWORD PTR $T562753[ebp], eax
  00467	c7 85 d8 fe ff
	ff 8e 84 8a 98	 mov	 DWORD PTR __k$562782[ebp], -1735752562 ; 988a848eH
  00471	c7 85 dc fe ff
	ff b2 84 8e 83	 mov	 DWORD PTR __k$562782[ebp+4], -2087811918 ; 838e84b2H
  0047b	c7 85 e0 fe ff
	ff 8a 84 9f b5	 mov	 DWORD PTR __k$562782[ebp+8], -1247837046 ; b59f848aH
  00485	c7 85 e4 fe ff
	ff 9f 8d 9f 8f	 mov	 DWORD PTR __k$562782[ebp+12], -1885368929 ; 8f9f8d9fH
  0048f	8d 8d d8 fe ff
	ff		 lea	 ecx, DWORD PTR __k$562782[ebp]
  00495	88 9d e8 fe ff
	ff		 mov	 BYTE PTR __k$562782[ebp+16], bl
  0049b	58		 pop	 eax
$LL1766@LoadProper:
  0049c	31 39		 xor	 DWORD PTR [ecx], edi
  0049e	83 c1 04	 add	 ecx, 4
  004a1	48		 dec	 eax
  004a2	75 f8		 jne	 SHORT $LL1766@LoadProper
  004a4	89 95 ec fa ff
	ff		 mov	 DWORD PTR tv22696[ebp], edx
  004aa	db 85 ec fa ff
	ff		 fild	 DWORD PTR tv22696[ebp]
  004b0	85 d2		 test	 edx, edx
  004b2	79 06		 jns	 SHORT $LN2918@LoadProper
  004b4	d8 05 00 00 00
	00		 fadd	 DWORD PTR __real@4f800000
$LN2918@LoadProper:
  004ba	8b 85 f0 fa ff
	ff		 mov	 eax, DWORD PTR $T562753[ebp]
  004c0	db 85 f0 fa ff
	ff		 fild	 DWORD PTR $T562753[ebp]
  004c6	85 c0		 test	 eax, eax
  004c8	79 06		 jns	 SHORT $LN2919@LoadProper
  004ca	d8 05 00 00 00
	00		 fadd	 DWORD PTR __real@4f800000
$LN2919@LoadProper:
  004d0	de f9		 fdivp	 ST(1), ST(0)
  004d2	51		 push	 ecx
  004d3	8b 8d 0c fb ff
	ff		 mov	 ecx, DWORD PTR _rkLoader$GSCopy$[ebp]
  004d9	8d 85 d8 fe ff
	ff		 lea	 eax, DWORD PTR __k$562782[ebp]
  004df	d9 9d f0 fa ff
	ff		 fstp	 DWORD PTR tv22688[ebp]
  004e5	d9 85 f0 fa ff
	ff		 fld	 DWORD PTR tv22688[ebp]
  004eb	d9 1c 24	 fstp	 DWORD PTR [esp]
  004ee	50		 push	 eax
  004ef	ff 15 00 00 00
	00		 call	 DWORD PTR __imp_?LoadFloat@ioINILoader@@QAEMPBDM@Z
  004f5	d9 9e 14 12 00
	00		 fstp	 DWORD PTR [esi+4628]
  004fb	6a 04		 push	 4

; 77   : 	m_fCharJumpPower = rkLoader.LoadFloat_e( "skill_jump_power", 0.0f );

  004fd	c7 85 c0 fe ff
	ff 9e 87 82 86	 mov	 DWORD PTR __k$562907[ebp], -2038265954 ; 8682879eH
  00507	c7 85 c4 fe ff
	ff 81 b3 81 9f	 mov	 DWORD PTR __k$562907[ebp+4], -1618889855 ; 9f81b381H
  00511	c7 85 c8 fe ff
	ff 80 9c b4 9a	 mov	 DWORD PTR __k$562907[ebp+8], -1699439488 ; 9ab49c80H
  0051b	c7 85 cc fe ff
	ff 82 9b 8e 98	 mov	 DWORD PTR __k$562907[ebp+12], -1735484542 ; 988e9b82H
  00525	8d 85 c0 fe ff
	ff		 lea	 eax, DWORD PTR __k$562907[ebp]
  0052b	88 9d d0 fe ff
	ff		 mov	 BYTE PTR __k$562907[ebp+16], bl
  00531	59		 pop	 ecx
$LL1872@LoadProper:
  00532	31 38		 xor	 DWORD PTR [eax], edi
  00534	83 c0 04	 add	 eax, 4
  00537	49		 dec	 ecx
  00538	75 f8		 jne	 SHORT $LL1872@LoadProper
  0053a	0f 57 c0	 xorps	 xmm0, xmm0
  0053d	51		 push	 ecx
  0053e	8b 8d 0c fb ff
	ff		 mov	 ecx, DWORD PTR _rkLoader$GSCopy$[ebp]
  00544	8d 85 c0 fe ff
	ff		 lea	 eax, DWORD PTR __k$562907[ebp]
  0054a	f3 0f 11 04 24	 movss	 DWORD PTR [esp], xmm0
  0054f	50		 push	 eax
  00550	ff 15 00 00 00
	00		 call	 DWORD PTR __imp_?LoadFloat@ioINILoader@@QAEMPBDM@Z
  00556	d9 9e 10 12 00
	00		 fstp	 DWORD PTR [esi+4624]
  0055c	6a 05		 push	 5

; 78   : 
; 79   : 	//
; 80   : 	int iBuffCnt = rkLoader.LoadInt_e( "blow_cancel_buff_cnt", 0 );

  0055e	c7 85 10 fe ff
	ff 8f 80 84 9d	 mov	 DWORD PTR __k$563049[ebp], -1652260721 ; 9d84808fH
  00568	c7 85 14 fe ff
	ff b2 8f 8a 84	 mov	 DWORD PTR __k$563049[ebp+4], -2071294030 ; 848a8fb2H
  00572	c7 85 18 fe ff
	ff 8e 89 87 b5	 mov	 DWORD PTR __k$563049[ebp+8], -1249408626 ; b587898eH
  0057c	c7 85 1c fe ff
	ff 8f 99 8d 8c	 mov	 DWORD PTR __k$563049[ebp+12], -1936877169 ; 8c8d998fH
  00586	c7 85 20 fe ff
	ff b2 8f 85 9e	 mov	 DWORD PTR __k$563049[ebp+16], -1635414094 ; 9e858fb2H
  00590	8d 85 10 fe ff
	ff		 lea	 eax, DWORD PTR __k$563049[ebp]
  00596	88 9d 24 fe ff
	ff		 mov	 BYTE PTR __k$563049[ebp+20], bl
  0059c	59		 pop	 ecx
$LL1978@LoadProper:
  0059d	31 38		 xor	 DWORD PTR [eax], edi
  0059f	83 c0 04	 add	 eax, 4
  005a2	49		 dec	 ecx
  005a3	75 f8		 jne	 SHORT $LL1978@LoadProper
  005a5	8b 8d 0c fb ff
	ff		 mov	 ecx, DWORD PTR _rkLoader$GSCopy$[ebp]
  005ab	53		 push	 ebx
  005ac	8d 85 10 fe ff
	ff		 lea	 eax, DWORD PTR __k$563049[ebp]
  005b2	50		 push	 eax
  005b3	ff 15 00 00 00
	00		 call	 DWORD PTR __imp_?LoadInt@ioINILoader@@QAEHPBDH@Z

; 81   : 	for( int i=0; i < iBuffCnt; ++i )

  005b9	8b 3d 00 00 00
	00		 mov	 edi, DWORD PTR __imp__wsprintfA
  005bf	33 c9		 xor	 ecx, ecx
  005c1	89 85 ec fa ff
	ff		 mov	 DWORD PTR _iBuffCnt$[ebp], eax
  005c7	3b c3		 cmp	 eax, ebx
  005c9	0f 8e 13 01 00
	00		 jle	 $LN899@LoadProper
$LL901@LoadProper:

; 82   : 	{
; 83   : 		wsprintf_e( szKey, "blow_cancel_buff%d", i+1 );

  005cf	6a 04		 push	 4
  005d1	c7 85 3c ff ff
	ff 8f 80 84 9d	 mov	 DWORD PTR ___encStr$549606[ebp], -1652260721 ; 9d84808fH
  005db	c7 85 40 ff ff
	ff b2 8f 8a 84	 mov	 DWORD PTR ___encStr$549606[ebp+4], -2071294030 ; 848a8fb2H
  005e5	c7 85 44 ff ff
	ff 8e 89 87 b5	 mov	 DWORD PTR ___encStr$549606[ebp+8], -1249408626 ; b587898eH
  005ef	c7 85 48 ff ff
	ff 8f 99 8d 8c	 mov	 DWORD PTR ___encStr$549606[ebp+12], -1936877169 ; 8c8d998fH
  005f9	66 c7 85 4c ff
	ff ff c8 88	 mov	 WORD PTR ___encStr$549606[ebp+16], 35016 ; 000088c8H
  00602	8d 85 3c ff ff
	ff		 lea	 eax, DWORD PTR ___encStr$549606[ebp]
  00608	88 9d 4e ff ff
	ff		 mov	 BYTE PTR ___encStr$549606[ebp+18], bl
  0060e	5a		 pop	 edx
$LL1986@LoadProper:
  0060f	81 30 ed ec eb
	ea		 xor	 DWORD PTR [eax], -353637139 ; eaebecedH
  00615	83 c0 04	 add	 eax, 4
  00618	4a		 dec	 edx
  00619	75 f4		 jne	 SHORT $LL1986@LoadProper
  0061b	c7 85 08 fb ff
	ff 10 00 00 00	 mov	 DWORD PTR _i$563131[ebp], 16 ; 00000010H
$LL1983@LoadProper:
  00625	8b 85 08 fb ff
	ff		 mov	 eax, DWORD PTR _i$563131[ebp]
  0062b	25 03 00 00 80	 and	 eax, -2147483645	; 80000003H
  00630	79 05		 jns	 SHORT $LN2920@LoadProper
  00632	48		 dec	 eax
  00633	83 c8 fc	 or	 eax, -4			; fffffffcH
  00636	40		 inc	 eax
$LN2920@LoadProper:
  00637	b2 ed		 mov	 dl, -19			; ffffffedH
  00639	2a d0		 sub	 dl, al
  0063b	8b 85 08 fb ff
	ff		 mov	 eax, DWORD PTR _i$563131[ebp]
  00641	30 94 05 3c ff
	ff ff		 xor	 BYTE PTR ___encStr$549606[ebp+eax], dl
  00648	ff 85 08 fb ff
	ff		 inc	 DWORD PTR _i$563131[ebp]
  0064e	83 bd 08 fb ff
	ff 12		 cmp	 DWORD PTR _i$563131[ebp], 18 ; 00000012H
  00655	7c ce		 jl	 SHORT $LL1983@LoadProper
  00657	8d 41 01	 lea	 eax, DWORD PTR [ecx+1]
  0065a	50		 push	 eax
  0065b	89 85 f0 fa ff
	ff		 mov	 DWORD PTR tv18327[ebp], eax
  00661	8d 85 3c ff ff
	ff		 lea	 eax, DWORD PTR ___encStr$549606[ebp]
  00667	50		 push	 eax
  00668	8d 85 14 fc ff
	ff		 lea	 eax, DWORD PTR _szKey$[ebp]
  0066e	50		 push	 eax
  0066f	ff d7		 call	 edi

; 84   : 		rkLoader.LoadString( szKey, "", szBuf, MAX_PATH );

  00671	8b 8d 0c fb ff
	ff		 mov	 ecx, DWORD PTR _rkLoader$GSCopy$[ebp]
  00677	83 c4 0c	 add	 esp, 12			; 0000000cH
  0067a	68 04 01 00 00	 push	 260			; 00000104H
  0067f	8d 85 10 fb ff
	ff		 lea	 eax, DWORD PTR _szBuf$[ebp]
  00685	50		 push	 eax
  00686	68 00 00 00 00	 push	 OFFSET ??_C@_00CNPNBAHC@?$AA@
  0068b	8d 85 14 fc ff
	ff		 lea	 eax, DWORD PTR _szKey$[ebp]
  00691	50		 push	 eax
  00692	ff 15 00 00 00
	00		 call	 DWORD PTR __imp_?LoadStringA@ioINILoader@@QAEXPBD0PADH@Z

; 85   : 
; 86   : 		m_SkillGrapplingInfo.m_SwingCancelBuff.push_back( szBuf );

  00698	8d 85 10 fb ff
	ff		 lea	 eax, DWORD PTR _szBuf$[ebp]
  0069e	50		 push	 eax
  0069f	8d 8d cc fa ff
	ff		 lea	 ecx, DWORD PTR $T561842[ebp]
  006a5	ff 15 00 00 00
	00		 call	 DWORD PTR __imp_??0ioHashString@@QAE@PBD@Z
  006ab	8d 85 cc fa ff
	ff		 lea	 eax, DWORD PTR $T561842[ebp]
  006b1	50		 push	 eax
  006b2	8d 8e 30 09 00
	00		 lea	 ecx, DWORD PTR [esi+2352]
  006b8	89 5d fc	 mov	 DWORD PTR __$EHRec$[ebp+8], ebx
  006bb	e8 00 00 00 00	 call	 ?push_back@?$vector@VioHashString@@V?$allocator@VioHashString@@@std@@@std@@QAEXABVioHashString@@@Z ; std::vector<ioHashString,std::allocator<ioHashString> >::push_back
  006c0	83 4d fc ff	 or	 DWORD PTR __$EHRec$[ebp+8], -1
  006c4	8d 8d cc fa ff
	ff		 lea	 ecx, DWORD PTR $T561842[ebp]
  006ca	ff 15 00 00 00
	00		 call	 DWORD PTR __imp_??1ioHashString@@QAE@XZ
  006d0	8b 8d f0 fa ff
	ff		 mov	 ecx, DWORD PTR tv18327[ebp]
  006d6	3b 8d ec fa ff
	ff		 cmp	 ecx, DWORD PTR _iBuffCnt$[ebp]
  006dc	0f 8c ed fe ff
	ff		 jl	 $LL901@LoadProper
$LN899@LoadProper:

; 87   : 	}
; 88   : 
; 89   : 	//
; 90   : 	m_bUsePreLoopState = rkLoader.LoadBool_e( "use_pre_loop_state", false );

  006e2	6a 04		 push	 4
  006e4	c7 85 24 ff ff
	ff 98 9f 8e b5	 mov	 DWORD PTR __k$563156[ebp], -1248944232 ; b58e9f98H
  006ee	c7 85 28 ff ff
	ff 9d 9e 8e b5	 mov	 DWORD PTR __k$563156[ebp+4], -1248944483 ; b58e9e9dH
  006f8	c7 85 2c ff ff
	ff 81 83 84 9a	 mov	 DWORD PTR __k$563156[ebp+8], -1702591615 ; 9a848381H
  00702	c7 85 30 ff ff
	ff b2 9f 9f 8b	 mov	 DWORD PTR __k$563156[ebp+12], -1952473166 ; 8b9f9fb2H
  0070c	66 c7 85 34 ff
	ff ff 99 89	 mov	 WORD PTR __k$563156[ebp+16], 35225 ; 00008999H
  00715	8d 85 24 ff ff
	ff		 lea	 eax, DWORD PTR __k$563156[ebp]
  0071b	88 9d 36 ff ff
	ff		 mov	 BYTE PTR __k$563156[ebp+18], bl
  00721	59		 pop	 ecx
$LL2092@LoadProper:
  00722	81 30 ed ec eb
	ea		 xor	 DWORD PTR [eax], -353637139 ; eaebecedH
  00728	83 c0 04	 add	 eax, 4
  0072b	49		 dec	 ecx
  0072c	75 f4		 jne	 SHORT $LL2092@LoadProper
  0072e	6a 10		 push	 16			; 00000010H
  00730	58		 pop	 eax
$LL2089@LoadProper:
  00731	8b c8		 mov	 ecx, eax
  00733	81 e1 03 00 00
	80		 and	 ecx, -2147483645	; 80000003H
  00739	79 05		 jns	 SHORT $LN2921@LoadProper
  0073b	49		 dec	 ecx
  0073c	83 c9 fc	 or	 ecx, -4			; fffffffcH
  0073f	41		 inc	 ecx
$LN2921@LoadProper:
  00740	b2 ed		 mov	 dl, -19			; ffffffedH
  00742	2a d1		 sub	 dl, cl
  00744	30 94 05 24 ff
	ff ff		 xor	 BYTE PTR __k$563156[ebp+eax], dl
  0074b	40		 inc	 eax
  0074c	83 f8 12	 cmp	 eax, 18			; 00000012H
  0074f	7c e0		 jl	 SHORT $LL2089@LoadProper
  00751	8b 8d 0c fb ff
	ff		 mov	 ecx, DWORD PTR _rkLoader$GSCopy$[ebp]
  00757	53		 push	 ebx
  00758	8d 85 24 ff ff
	ff		 lea	 eax, DWORD PTR __k$563156[ebp]
  0075e	50		 push	 eax
  0075f	ff 15 00 00 00
	00		 call	 DWORD PTR __imp_?LoadBool@ioINILoader@@QAE_NPBD_N@Z
  00765	88 86 18 12 00
	00		 mov	 BYTE PTR [esi+4632], al
  0076b	6a 03		 push	 3

; 91   : 
; 92   : 	rkLoader.LoadString_e( "pre_loop_motion", "", szBuf, MAX_PATH );

  0076d	c7 45 c8 9d 9e
	8e b5		 mov	 DWORD PTR __k$563294[ebp], -1248944483 ; b58e9e9dH
  00774	c7 45 cc 81 83
	84 9a		 mov	 DWORD PTR __k$563294[ebp+4], -1702591615 ; 9a848381H
  0077b	c7 45 d0 b2 81
	84 9e		 mov	 DWORD PTR __k$563294[ebp+8], -1635483214 ; 9e8481b2H
  00782	8d 45 c8	 lea	 eax, DWORD PTR __k$563294[ebp]
  00785	c7 45 d4 84 83
	85 00		 mov	 DWORD PTR __k$563294[ebp+12], 8749956 ; 00858384H
  0078c	59		 pop	 ecx
$LL2198@LoadProper:
  0078d	81 30 ed ec eb
	ea		 xor	 DWORD PTR [eax], -353637139 ; eaebecedH
  00793	83 c0 04	 add	 eax, 4
  00796	49		 dec	 ecx
  00797	75 f4		 jne	 SHORT $LL2198@LoadProper
  00799	6a 0c		 push	 12			; 0000000cH
  0079b	58		 pop	 eax
$LL2195@LoadProper:
  0079c	8b c8		 mov	 ecx, eax
  0079e	81 e1 03 00 00
	80		 and	 ecx, -2147483645	; 80000003H
  007a4	79 05		 jns	 SHORT $LN2922@LoadProper
  007a6	49		 dec	 ecx
  007a7	83 c9 fc	 or	 ecx, -4			; fffffffcH
  007aa	41		 inc	 ecx
$LN2922@LoadProper:
  007ab	b2 ed		 mov	 dl, -19			; ffffffedH
  007ad	2a d1		 sub	 dl, cl
  007af	30 54 05 c8	 xor	 BYTE PTR __k$563294[ebp+eax], dl
  007b3	40		 inc	 eax
  007b4	83 f8 0f	 cmp	 eax, 15			; 0000000fH
  007b7	7c e3		 jl	 SHORT $LL2195@LoadProper
  007b9	8b 8d 0c fb ff
	ff		 mov	 ecx, DWORD PTR _rkLoader$GSCopy$[ebp]
  007bf	68 04 01 00 00	 push	 260			; 00000104H
  007c4	8d 85 10 fb ff
	ff		 lea	 eax, DWORD PTR _szBuf$[ebp]
  007ca	50		 push	 eax
  007cb	68 00 00 00 00	 push	 OFFSET ??_C@_00CNPNBAHC@?$AA@
  007d0	8d 45 c8	 lea	 eax, DWORD PTR __k$563294[ebp]
  007d3	50		 push	 eax
  007d4	ff 15 00 00 00
	00		 call	 DWORD PTR __imp_?LoadStringA@ioINILoader@@QAEXPBD0PADH@Z

; 93   : 	m_PreLoopMotion = szBuf;

  007da	8d 85 10 fb ff
	ff		 lea	 eax, DWORD PTR _szBuf$[ebp]
  007e0	50		 push	 eax
  007e1	8d 8e 1c 12 00
	00		 lea	 ecx, DWORD PTR [esi+4636]
  007e7	ff 15 00 00 00
	00		 call	 DWORD PTR __imp_??4ioHashString@@QAEAAV0@PBD@Z

; 94   : 	m_fPreLoopMotionRate = rkLoader.LoadFloat_e( "pre_loop_motion_rate", FLOAT1 );

  007ed	b8 01 00 00 00	 mov	 eax, 1
  007f2	6a 05		 push	 5
  007f4	c7 85 2c fe ff
	ff 9d 9e 8e b5	 mov	 DWORD PTR __k$563423[ebp], -1248944483 ; b58e9e9dH
  007fe	c7 85 30 fe ff
	ff 81 83 84 9a	 mov	 DWORD PTR __k$563423[ebp+4], -1702591615 ; 9a848381H
  00808	c7 85 34 fe ff
	ff b2 81 84 9e	 mov	 DWORD PTR __k$563423[ebp+8], -1635483214 ; 9e8481b2H
  00812	c7 85 38 fe ff
	ff 84 83 85 b5	 mov	 DWORD PTR __k$563423[ebp+12], -1249541244 ; b5858384H
  0081c	c7 85 3c fe ff
	ff 9f 8d 9f 8f	 mov	 DWORD PTR __k$563423[ebp+16], -1885368929 ; 8f9f8d9fH
  00826	8d 8d 2c fe ff
	ff		 lea	 ecx, DWORD PTR __k$563423[ebp]
  0082c	88 9d 40 fe ff
	ff		 mov	 BYTE PTR __k$563423[ebp+20], bl
  00832	5a		 pop	 edx
$LL2306@LoadProper:
  00833	81 31 ed ec eb
	ea		 xor	 DWORD PTR [ecx], -353637139 ; eaebecedH
  00839	83 c1 04	 add	 ecx, 4
  0083c	4a		 dec	 edx
  0083d	75 f4		 jne	 SHORT $LL2306@LoadProper
  0083f	89 85 ec fa ff
	ff		 mov	 DWORD PTR tv22656[ebp], eax
  00845	db 85 ec fa ff
	ff		 fild	 DWORD PTR tv22656[ebp]
  0084b	85 c0		 test	 eax, eax
  0084d	79 06		 jns	 SHORT $LN2923@LoadProper
  0084f	d8 05 00 00 00
	00		 fadd	 DWORD PTR __real@4f800000
$LN2923@LoadProper:
  00855	51		 push	 ecx
  00856	8b 8d 0c fb ff
	ff		 mov	 ecx, DWORD PTR _rkLoader$GSCopy$[ebp]
  0085c	d9 1c 24	 fstp	 DWORD PTR [esp]
  0085f	8d 85 2c fe ff
	ff		 lea	 eax, DWORD PTR __k$563423[ebp]
  00865	50		 push	 eax
  00866	ff 15 00 00 00
	00		 call	 DWORD PTR __imp_?LoadFloat@ioINILoader@@QAEMPBDM@Z
  0086c	d9 9e 2c 12 00
	00		 fstp	 DWORD PTR [esi+4652]
  00872	6a 04		 push	 4

; 95   : 
; 96   : 	m_dwPreLoopDuration = (DWORD)rkLoader.LoadInt_e( "pre_loop_duration", 0 );

  00874	c7 85 6c ff ff
	ff 9d 9e 8e b5	 mov	 DWORD PTR __k$563548[ebp], -1248944483 ; b58e9e9dH
  0087e	c7 85 70 ff ff
	ff 81 83 84 9a	 mov	 DWORD PTR __k$563548[ebp+4], -1702591615 ; 9a848381H
  00888	c7 85 74 ff ff
	ff b2 88 9e 98	 mov	 DWORD PTR __k$563548[ebp+8], -1734440782 ; 989e88b2H
  00892	c7 85 78 ff ff
	ff 8c 98 82 85	 mov	 DWORD PTR __k$563548[ebp+12], -2055038836 ; 8582988cH
  0089c	8d 85 6c ff ff
	ff		 lea	 eax, DWORD PTR __k$563548[ebp]
  008a2	66 c7 85 7c ff
	ff ff 83 00	 mov	 WORD PTR __k$563548[ebp+16], 131 ; 00000083H
  008ab	59		 pop	 ecx
$LL2412@LoadProper:
  008ac	81 30 ed ec eb
	ea		 xor	 DWORD PTR [eax], -353637139 ; eaebecedH
  008b2	83 c0 04	 add	 eax, 4
  008b5	49		 dec	 ecx
  008b6	75 f4		 jne	 SHORT $LL2412@LoadProper
  008b8	8b 8d 0c fb ff
	ff		 mov	 ecx, DWORD PTR _rkLoader$GSCopy$[ebp]
  008be	80 b5 7c ff ff
	ff ed		 xor	 BYTE PTR __k$563548[ebp+16], -19 ; ffffffedH
  008c5	53		 push	 ebx
  008c6	8d 85 6c ff ff
	ff		 lea	 eax, DWORD PTR __k$563548[ebp]
  008cc	50		 push	 eax
  008cd	ff 15 00 00 00
	00		 call	 DWORD PTR __imp_?LoadInt@ioINILoader@@QAEHPBDH@Z

; 97   : 
; 98   : 	m_vPreLoopBuffList.clear();

  008d3	8d 8e 38 12 00
	00		 lea	 ecx, DWORD PTR [esi+4664]
  008d9	89 86 34 12 00
	00		 mov	 DWORD PTR [esi+4660], eax
  008df	e8 00 00 00 00	 call	 ?clear@?$vector@VioHashString@@V?$allocator@VioHashString@@@std@@@std@@QAEXXZ ; std::vector<ioHashString,std::allocator<ioHashString> >::clear
  008e4	6a 04		 push	 4

; 99   : 
; 100  : 	int iLoopBuffCnt = rkLoader.LoadInt_e( "pre_loop_buff_cnt", 0 );

  008e6	c7 85 54 ff ff
	ff 9d 9e 8e b5	 mov	 DWORD PTR __k$563673[ebp], -1248944483 ; b58e9e9dH
  008f0	c7 85 58 ff ff
	ff 81 83 84 9a	 mov	 DWORD PTR __k$563673[ebp+4], -1702591615 ; 9a848381H
  008fa	c7 85 5c ff ff
	ff b2 8e 9e 8c	 mov	 DWORD PTR __k$563673[ebp+8], -1935765838 ; 8c9e8eb2H
  00904	c7 85 60 ff ff
	ff 8b b3 88 84	 mov	 DWORD PTR __k$563673[ebp+12], -2071415925 ; 8488b38bH
  0090e	8d 85 54 ff ff
	ff		 lea	 eax, DWORD PTR __k$563673[ebp]
  00914	66 c7 85 64 ff
	ff ff 99 00	 mov	 WORD PTR __k$563673[ebp+16], 153 ; 00000099H
  0091d	59		 pop	 ecx
$LL2518@LoadProper:
  0091e	81 30 ed ec eb
	ea		 xor	 DWORD PTR [eax], -353637139 ; eaebecedH
  00924	83 c0 04	 add	 eax, 4
  00927	49		 dec	 ecx
  00928	75 f4		 jne	 SHORT $LL2518@LoadProper
  0092a	8b 8d 0c fb ff
	ff		 mov	 ecx, DWORD PTR _rkLoader$GSCopy$[ebp]
  00930	80 b5 64 ff ff
	ff ed		 xor	 BYTE PTR __k$563673[ebp+16], -19 ; ffffffedH
  00937	53		 push	 ebx
  00938	8d 85 54 ff ff
	ff		 lea	 eax, DWORD PTR __k$563673[ebp]
  0093e	50		 push	 eax
  0093f	ff 15 00 00 00
	00		 call	 DWORD PTR __imp_?LoadInt@ioINILoader@@QAEHPBDH@Z
  00945	89 85 f0 fa ff
	ff		 mov	 DWORD PTR _iLoopBuffCnt$[ebp], eax

; 101  : 	if( iLoopBuffCnt > 0 )

  0094b	3b c3		 cmp	 eax, ebx
  0094d	0f 8e 0d 01 00
	00		 jle	 $LN796@LoadProper

; 102  : 	{
; 103  : 		m_vPreLoopBuffList.reserve( iLoopBuffCnt );

  00953	50		 push	 eax
  00954	8d 8e 38 12 00
	00		 lea	 ecx, DWORD PTR [esi+4664]
  0095a	e8 00 00 00 00	 call	 ?reserve@?$vector@VioHashString@@V?$allocator@VioHashString@@@std@@@std@@QAEXI@Z ; std::vector<ioHashString,std::allocator<ioHashString> >::reserve

; 104  : 
; 105  : 		for( int i=0; i < iLoopBuffCnt; ++i )

  0095f	33 c9		 xor	 ecx, ecx
  00961	39 9d f0 fa ff
	ff		 cmp	 DWORD PTR _iLoopBuffCnt$[ebp], ebx
  00967	0f 8e f3 00 00
	00		 jle	 $LN796@LoadProper
$LL798@LoadProper:

; 106  : 		{
; 107  : 			wsprintf_e( szKey, "pre_loop_buff%d", i+1 );

  0096d	6a 03		 push	 3
  0096f	c7 45 b4 9d 9e
	8e b5		 mov	 DWORD PTR ___encStr$549798[ebp], -1248944483 ; b58e9e9dH
  00976	c7 45 b8 81 83
	84 9a		 mov	 DWORD PTR ___encStr$549798[ebp+4], -1702591615 ; 9a848381H
  0097d	c7 45 bc b2 8e
	9e 8c		 mov	 DWORD PTR ___encStr$549798[ebp+8], -1935765838 ; 8c9e8eb2H
  00984	8d 45 b4	 lea	 eax, DWORD PTR ___encStr$549798[ebp]
  00987	c7 45 c0 8b c9
	8f 00		 mov	 DWORD PTR ___encStr$549798[ebp+12], 9423243 ; 008fc98bH
  0098e	5a		 pop	 edx
$LL2526@LoadProper:
  0098f	81 30 ed ec eb
	ea		 xor	 DWORD PTR [eax], -353637139 ; eaebecedH
  00995	83 c0 04	 add	 eax, 4
  00998	4a		 dec	 edx
  00999	75 f4		 jne	 SHORT $LL2526@LoadProper
  0099b	c7 85 08 fb ff
	ff 0c 00 00 00	 mov	 DWORD PTR _i$563772[ebp], 12 ; 0000000cH
$LL2523@LoadProper:
  009a5	8b 85 08 fb ff
	ff		 mov	 eax, DWORD PTR _i$563772[ebp]
  009ab	25 03 00 00 80	 and	 eax, -2147483645	; 80000003H
  009b0	79 05		 jns	 SHORT $LN2924@LoadProper
  009b2	48		 dec	 eax
  009b3	83 c8 fc	 or	 eax, -4			; fffffffcH
  009b6	40		 inc	 eax
$LN2924@LoadProper:
  009b7	b2 ed		 mov	 dl, -19			; ffffffedH
  009b9	2a d0		 sub	 dl, al
  009bb	8b 85 08 fb ff
	ff		 mov	 eax, DWORD PTR _i$563772[ebp]
  009c1	30 54 05 b4	 xor	 BYTE PTR ___encStr$549798[ebp+eax], dl
  009c5	ff 85 08 fb ff
	ff		 inc	 DWORD PTR _i$563772[ebp]
  009cb	83 bd 08 fb ff
	ff 0f		 cmp	 DWORD PTR _i$563772[ebp], 15 ; 0000000fH
  009d2	7c d1		 jl	 SHORT $LL2523@LoadProper
  009d4	8d 41 01	 lea	 eax, DWORD PTR [ecx+1]
  009d7	50		 push	 eax
  009d8	89 85 ec fa ff
	ff		 mov	 DWORD PTR tv18666[ebp], eax
  009de	8d 45 b4	 lea	 eax, DWORD PTR ___encStr$549798[ebp]
  009e1	50		 push	 eax
  009e2	8d 85 14 fc ff
	ff		 lea	 eax, DWORD PTR _szKey$[ebp]
  009e8	50		 push	 eax
  009e9	ff d7		 call	 edi

; 108  : 			rkLoader.LoadString( szKey, "", szBuf, MAX_PATH );

  009eb	8b 8d 0c fb ff
	ff		 mov	 ecx, DWORD PTR _rkLoader$GSCopy$[ebp]
  009f1	83 c4 0c	 add	 esp, 12			; 0000000cH
  009f4	68 04 01 00 00	 push	 260			; 00000104H
  009f9	8d 85 10 fb ff
	ff		 lea	 eax, DWORD PTR _szBuf$[ebp]
  009ff	50		 push	 eax
  00a00	68 00 00 00 00	 push	 OFFSET ??_C@_00CNPNBAHC@?$AA@
  00a05	8d 85 14 fc ff
	ff		 lea	 eax, DWORD PTR _szKey$[ebp]
  00a0b	50		 push	 eax
  00a0c	ff 15 00 00 00
	00		 call	 DWORD PTR __imp_?LoadStringA@ioINILoader@@QAEXPBD0PADH@Z

; 109  : 
; 110  : 			ioHashString szBuffName = szBuf;

  00a12	8d 85 10 fb ff
	ff		 lea	 eax, DWORD PTR _szBuf$[ebp]
  00a18	50		 push	 eax
  00a19	8d 8d dc fa ff
	ff		 lea	 ecx, DWORD PTR _szBuffName$549947[ebp]
  00a1f	ff 15 00 00 00
	00		 call	 DWORD PTR __imp_??0ioHashString@@QAE@PBD@Z

; 111  : 
; 112  : 			m_vPreLoopBuffList.push_back( szBuffName );

  00a25	8d 85 dc fa ff
	ff		 lea	 eax, DWORD PTR _szBuffName$549947[ebp]
  00a2b	50		 push	 eax
  00a2c	8d 8e 38 12 00
	00		 lea	 ecx, DWORD PTR [esi+4664]
  00a32	c7 45 fc 01 00
	00 00		 mov	 DWORD PTR __$EHRec$[ebp+8], 1
  00a39	e8 00 00 00 00	 call	 ?push_back@?$vector@VioHashString@@V?$allocator@VioHashString@@@std@@@std@@QAEXABVioHashString@@@Z ; std::vector<ioHashString,std::allocator<ioHashString> >::push_back

; 113  : 		}

  00a3e	83 4d fc ff	 or	 DWORD PTR __$EHRec$[ebp+8], -1
  00a42	8d 8d dc fa ff
	ff		 lea	 ecx, DWORD PTR _szBuffName$549947[ebp]
  00a48	ff 15 00 00 00
	00		 call	 DWORD PTR __imp_??1ioHashString@@QAE@XZ
  00a4e	8b 8d ec fa ff
	ff		 mov	 ecx, DWORD PTR tv18666[ebp]
  00a54	3b 8d f0 fa ff
	ff		 cmp	 ecx, DWORD PTR _iLoopBuffCnt$[ebp]
  00a5a	0f 8c 0d ff ff
	ff		 jl	 $LL798@LoadProper
$LN796@LoadProper:

; 114  : 	}
; 115  : 
; 116  : 	//////////////////////////////////////////////////////////////////////////
; 117  : 	m_nMaxJmnpCnt = rkLoader.LoadInt_e( "max_grap_jump_cnt", 0 );

  00a60	6a 04		 push	 4
  00a62	c7 45 84 80 8d
	93 b5		 mov	 DWORD PTR __k$563797[ebp], -1248621184 ; b5938d80H
  00a69	c7 45 88 8a 9e
	8a 9a		 mov	 DWORD PTR __k$563797[ebp+4], -1702191478 ; 9a8a9e8aH
  00a70	c7 45 8c b2 86
	9e 87		 mov	 DWORD PTR __k$563797[ebp+8], -2019653966 ; 879e86b2H
  00a77	c7 45 90 9d b3
	88 84		 mov	 DWORD PTR __k$563797[ebp+12], -2071415907 ; 8488b39dH
  00a7e	8d 45 84	 lea	 eax, DWORD PTR __k$563797[ebp]
  00a81	66 c7 45 94 99
	00		 mov	 WORD PTR __k$563797[ebp+16], 153 ; 00000099H
  00a87	59		 pop	 ecx
$LL2632@LoadProper:
  00a88	81 30 ed ec eb
	ea		 xor	 DWORD PTR [eax], -353637139 ; eaebecedH
  00a8e	83 c0 04	 add	 eax, 4
  00a91	49		 dec	 ecx
  00a92	75 f4		 jne	 SHORT $LL2632@LoadProper
  00a94	8b 8d 0c fb ff
	ff		 mov	 ecx, DWORD PTR _rkLoader$GSCopy$[ebp]
  00a9a	80 75 94 ed	 xor	 BYTE PTR __k$563797[ebp+16], -19 ; ffffffedH
  00a9e	53		 push	 ebx
  00a9f	8d 45 84	 lea	 eax, DWORD PTR __k$563797[ebp]
  00aa2	50		 push	 eax
  00aa3	ff 15 00 00 00
	00		 call	 DWORD PTR __imp_?LoadInt@ioINILoader@@QAEHPBDH@Z
  00aa9	89 86 e4 10 00
	00		 mov	 DWORD PTR [esi+4324], eax

; 118  : 	for( int i = 0; i < m_nMaxJmnpCnt; i++ )

  00aaf	3b c3		 cmp	 eax, ebx
  00ab1	0f 8e e2 04 00
	00		 jle	 $LN694@LoadProper

; 114  : 	}
; 115  : 
; 116  : 	//////////////////////////////////////////////////////////////////////////
; 117  : 	m_nMaxJmnpCnt = rkLoader.LoadInt_e( "max_grap_jump_cnt", 0 );

  00ab7	c7 85 08 fb ff
	ff 01 00 00 00	 mov	 DWORD PTR tv22768[ebp], 1
$LL696@LoadProper:

; 119  : 	{
; 120  : 		StGrapInfo Info;

  00ac1	8d 8d 4c fa ff
	ff		 lea	 ecx, DWORD PTR _Info$549953[ebp]
  00ac7	e8 00 00 00 00	 call	 ??0StGrapInfo@ioGrapplingBlowLoopSkill@@QAE@XZ
  00acc	6a 06		 push	 6
  00ace	c7 45 fc 02 00
	00 00		 mov	 DWORD PTR __$EHRec$[ebp+8], 2

; 121  : 		wsprintf_e( szKey, "skill_loop_grap_motion%d", i+1 );

  00ad5	c7 85 88 fd ff
	ff 9e 87 82 86	 mov	 DWORD PTR ___encStr$549957[ebp], -2038265954 ; 8682879eH
  00adf	c7 85 8c fd ff
	ff 81 b3 87 85	 mov	 DWORD PTR ___encStr$549957[ebp+4], -2054704255 ; 8587b381H
  00ae9	c7 85 90 fd ff
	ff 82 9c b4 8d	 mov	 DWORD PTR ___encStr$549957[ebp+8], -1917543294 ; 8db49c82H
  00af3	c7 85 94 fd ff
	ff 9f 8d 9b b5	 mov	 DWORD PTR ___encStr$549957[ebp+12], -1248096865 ; b59b8d9fH
  00afd	c7 85 98 fd ff
	ff 80 83 9f 83	 mov	 DWORD PTR ___encStr$549957[ebp+16], -2086698112 ; 839f8380H
  00b07	c7 85 9c fd ff
	ff 82 82 ce 8e	 mov	 DWORD PTR ___encStr$549957[ebp+20], -1899068798 ; 8ece8282H
  00b11	8d 85 88 fd ff
	ff		 lea	 eax, DWORD PTR ___encStr$549957[ebp]
  00b17	88 9d a0 fd ff
	ff		 mov	 BYTE PTR ___encStr$549957[ebp+24], bl
  00b1d	59		 pop	 ecx
$LL2640@LoadProper:
  00b1e	81 30 ed ec eb
	ea		 xor	 DWORD PTR [eax], -353637139 ; eaebecedH
  00b24	83 c0 04	 add	 eax, 4
  00b27	49		 dec	 ecx
  00b28	75 f4		 jne	 SHORT $LL2640@LoadProper
  00b2a	ff b5 08 fb ff
	ff		 push	 DWORD PTR tv22768[ebp]
  00b30	8d 85 88 fd ff
	ff		 lea	 eax, DWORD PTR ___encStr$549957[ebp]
  00b36	50		 push	 eax
  00b37	8d 85 14 fc ff
	ff		 lea	 eax, DWORD PTR _szKey$[ebp]
  00b3d	50		 push	 eax
  00b3e	ff d7		 call	 edi

; 122  : 		rkLoader.LoadString( szKey, "", szBuf, MAX_PATH );

  00b40	8b 8d 0c fb ff
	ff		 mov	 ecx, DWORD PTR _rkLoader$GSCopy$[ebp]
  00b46	83 c4 0c	 add	 esp, 12			; 0000000cH
  00b49	68 04 01 00 00	 push	 260			; 00000104H
  00b4e	8d 85 10 fb ff
	ff		 lea	 eax, DWORD PTR _szBuf$[ebp]
  00b54	50		 push	 eax
  00b55	68 00 00 00 00	 push	 OFFSET ??_C@_00CNPNBAHC@?$AA@
  00b5a	8d 85 14 fc ff
	ff		 lea	 eax, DWORD PTR _szKey$[ebp]
  00b60	50		 push	 eax
  00b61	ff 15 00 00 00
	00		 call	 DWORD PTR __imp_?LoadStringA@ioINILoader@@QAEXPBD0PADH@Z

; 123  : 		Info.m_SkillLoopMotion = szBuf;

  00b67	8d 85 10 fb ff
	ff		 lea	 eax, DWORD PTR _szBuf$[ebp]
  00b6d	50		 push	 eax
  00b6e	8d 8d 4c fa ff
	ff		 lea	 ecx, DWORD PTR _Info$549953[ebp]
  00b74	ff 15 00 00 00
	00		 call	 DWORD PTR __imp_??4ioHashString@@QAEAAV0@PBD@Z
  00b7a	6a 07		 push	 7

; 124  : 		wsprintf_e( szKey, "skill_loop_grap_motion_rate%d", i+1 );

  00b7c	c7 85 cc fd ff
	ff 9e 87 82 86	 mov	 DWORD PTR ___encStr$550109[ebp], -2038265954 ; 8682879eH
  00b86	c7 85 d0 fd ff
	ff 81 b3 87 85	 mov	 DWORD PTR ___encStr$550109[ebp+4], -2054704255 ; 8587b381H
  00b90	c7 85 d4 fd ff
	ff 82 9c b4 8d	 mov	 DWORD PTR ___encStr$550109[ebp+8], -1917543294 ; 8db49c82H
  00b9a	c7 85 d8 fd ff
	ff 9f 8d 9b b5	 mov	 DWORD PTR ___encStr$550109[ebp+12], -1248096865 ; b59b8d9fH
  00ba4	c7 85 dc fd ff
	ff 80 83 9f 83	 mov	 DWORD PTR ___encStr$550109[ebp+16], -2086698112 ; 839f8380H
  00bae	c7 85 e0 fd ff
	ff 82 82 b4 98	 mov	 DWORD PTR ___encStr$550109[ebp+20], -1733000574 ; 98b48282H
  00bb8	c7 85 e4 fd ff
	ff 8c 98 8e cf	 mov	 DWORD PTR ___encStr$550109[ebp+24], -812738420 ; cf8e988cH
  00bc2	8d 85 cc fd ff
	ff		 lea	 eax, DWORD PTR ___encStr$550109[ebp]
  00bc8	66 c7 85 e8 fd
	ff ff 89 00	 mov	 WORD PTR ___encStr$550109[ebp+28], 137 ; 00000089H
  00bd1	59		 pop	 ecx
$LL2648@LoadProper:
  00bd2	81 30 ed ec eb
	ea		 xor	 DWORD PTR [eax], -353637139 ; eaebecedH
  00bd8	83 c0 04	 add	 eax, 4
  00bdb	49		 dec	 ecx
  00bdc	75 f4		 jne	 SHORT $LL2648@LoadProper
  00bde	ff b5 08 fb ff
	ff		 push	 DWORD PTR tv22768[ebp]
  00be4	80 b5 e8 fd ff
	ff ed		 xor	 BYTE PTR ___encStr$550109[ebp+28], -19 ; ffffffedH
  00beb	8d 85 cc fd ff
	ff		 lea	 eax, DWORD PTR ___encStr$550109[ebp]
  00bf1	50		 push	 eax
  00bf2	8d 85 14 fc ff
	ff		 lea	 eax, DWORD PTR _szKey$[ebp]
  00bf8	50		 push	 eax
  00bf9	ff d7		 call	 edi
  00bfb	83 c4 0c	 add	 esp, 12			; 0000000cH

; 125  : 		Info.m_fSkillLoopMotionRate = rkLoader.LoadInt( szKey, FLOAT1 );

  00bfe	b8 01 00 00 00	 mov	 eax, 1
  00c03	89 85 ec fa ff
	ff		 mov	 DWORD PTR tv22626[ebp], eax
  00c09	db 85 ec fa ff
	ff		 fild	 DWORD PTR tv22626[ebp]
  00c0f	85 c0		 test	 eax, eax
  00c11	79 06		 jns	 SHORT $LN2925@LoadProper
  00c13	d8 05 00 00 00
	00		 fadd	 DWORD PTR __real@4f800000
$LN2925@LoadProper:
  00c19	e8 00 00 00 00	 call	 __ftol2_sse
  00c1e	8b 8d 0c fb ff
	ff		 mov	 ecx, DWORD PTR _rkLoader$GSCopy$[ebp]
  00c24	50		 push	 eax
  00c25	8d 85 14 fc ff
	ff		 lea	 eax, DWORD PTR _szKey$[ebp]
  00c2b	50		 push	 eax
  00c2c	ff 15 00 00 00
	00		 call	 DWORD PTR __imp_?LoadInt@ioINILoader@@QAEHPBDH@Z
  00c32	0f 57 c0	 xorps	 xmm0, xmm0
  00c35	f3 0f 2a c0	 cvtsi2ss xmm0, eax
  00c39	6a 07		 push	 7
  00c3b	f3 0f 11 85 5c
	fa ff ff	 movss	 DWORD PTR _Info$549953[ebp+16], xmm0

; 126  : 
; 127  : 		wsprintf_e( szKey, "skill_loop_grap_motion_stun%d", i+1 );

  00c43	c7 85 a8 fd ff
	ff 9e 87 82 86	 mov	 DWORD PTR ___encStr$550262[ebp], -2038265954 ; 8682879eH
  00c4d	c7 85 ac fd ff
	ff 81 b3 87 85	 mov	 DWORD PTR ___encStr$550262[ebp+4], -2054704255 ; 8587b381H
  00c57	c7 85 b0 fd ff
	ff 82 9c b4 8d	 mov	 DWORD PTR ___encStr$550262[ebp+8], -1917543294 ; 8db49c82H
  00c61	c7 85 b4 fd ff
	ff 9f 8d 9b b5	 mov	 DWORD PTR ___encStr$550262[ebp+12], -1248096865 ; b59b8d9fH
  00c6b	c7 85 b8 fd ff
	ff 80 83 9f 83	 mov	 DWORD PTR ___encStr$550262[ebp+16], -2086698112 ; 839f8380H
  00c75	c7 85 bc fd ff
	ff 82 82 b4 99	 mov	 DWORD PTR ___encStr$550262[ebp+20], -1716223358 ; 99b48282H
  00c7f	c7 85 c0 fd ff
	ff 99 99 85 cf	 mov	 DWORD PTR ___encStr$550262[ebp+24], -813327975 ; cf859999H
  00c89	8d 85 a8 fd ff
	ff		 lea	 eax, DWORD PTR ___encStr$550262[ebp]
  00c8f	66 c7 85 c4 fd
	ff ff 89 00	 mov	 WORD PTR ___encStr$550262[ebp+28], 137 ; 00000089H
  00c98	59		 pop	 ecx
$LL2658@LoadProper:
  00c99	81 30 ed ec eb
	ea		 xor	 DWORD PTR [eax], -353637139 ; eaebecedH
  00c9f	83 c0 04	 add	 eax, 4
  00ca2	49		 dec	 ecx
  00ca3	75 f4		 jne	 SHORT $LL2658@LoadProper
  00ca5	ff b5 08 fb ff
	ff		 push	 DWORD PTR tv22768[ebp]
  00cab	80 b5 c4 fd ff
	ff ed		 xor	 BYTE PTR ___encStr$550262[ebp+28], -19 ; ffffffedH
  00cb2	8d 85 a8 fd ff
	ff		 lea	 eax, DWORD PTR ___encStr$550262[ebp]
  00cb8	50		 push	 eax
  00cb9	8d 85 14 fc ff
	ff		 lea	 eax, DWORD PTR _szKey$[ebp]
  00cbf	50		 push	 eax
  00cc0	ff d7		 call	 edi

; 128  : 		rkLoader.LoadString( szKey, "", szBuf, MAX_PATH );

  00cc2	8b 8d 0c fb ff
	ff		 mov	 ecx, DWORD PTR _rkLoader$GSCopy$[ebp]
  00cc8	83 c4 0c	 add	 esp, 12			; 0000000cH
  00ccb	68 04 01 00 00	 push	 260			; 00000104H
  00cd0	8d 85 10 fb ff
	ff		 lea	 eax, DWORD PTR _szBuf$[ebp]
  00cd6	50		 push	 eax
  00cd7	68 00 00 00 00	 push	 OFFSET ??_C@_00CNPNBAHC@?$AA@
  00cdc	8d 85 14 fc ff
	ff		 lea	 eax, DWORD PTR _szKey$[ebp]
  00ce2	50		 push	 eax
  00ce3	ff 15 00 00 00
	00		 call	 DWORD PTR __imp_?LoadStringA@ioINILoader@@QAEXPBD0PADH@Z

; 129  : 		Info.m_SkillLoopMotionStun = szBuf;

  00ce9	8d 85 10 fb ff
	ff		 lea	 eax, DWORD PTR _szBuf$[ebp]
  00cef	50		 push	 eax
  00cf0	8d 8d 60 fa ff
	ff		 lea	 ecx, DWORD PTR _Info$549953[ebp+20]
  00cf6	ff 15 00 00 00
	00		 call	 DWORD PTR __imp_??4ioHashString@@QAEAAV0@PBD@Z
  00cfc	6a 08		 push	 8

; 130  : 		wsprintf_e( szKey, "skill_loop_grap_motion_stun_rate%d", i+1 );

  00cfe	c7 85 60 fd ff
	ff 9e 87 82 86	 mov	 DWORD PTR ___encStr$550414[ebp], -2038265954 ; 8682879eH
  00d08	c7 85 64 fd ff
	ff 81 b3 87 85	 mov	 DWORD PTR ___encStr$550414[ebp+4], -2054704255 ; 8587b381H
  00d12	c7 85 68 fd ff
	ff 82 9c b4 8d	 mov	 DWORD PTR ___encStr$550414[ebp+8], -1917543294 ; 8db49c82H
  00d1c	c7 85 6c fd ff
	ff 9f 8d 9b b5	 mov	 DWORD PTR ___encStr$550414[ebp+12], -1248096865 ; b59b8d9fH
  00d26	c7 85 70 fd ff
	ff 80 83 9f 83	 mov	 DWORD PTR ___encStr$550414[ebp+16], -2086698112 ; 839f8380H
  00d30	c7 85 74 fd ff
	ff 82 82 b4 99	 mov	 DWORD PTR ___encStr$550414[ebp+20], -1716223358 ; 99b48282H
  00d3a	c7 85 78 fd ff
	ff 99 99 85 b5	 mov	 DWORD PTR ___encStr$550414[ebp+24], -1249535591 ; b5859999H
  00d44	c7 85 7c fd ff
	ff 9f 8d 9f 8f	 mov	 DWORD PTR ___encStr$550414[ebp+28], -1885368929 ; 8f9f8d9fH
  00d4e	66 c7 85 80 fd
	ff ff c8 88	 mov	 WORD PTR ___encStr$550414[ebp+32], 35016 ; 000088c8H
  00d57	8d 85 60 fd ff
	ff		 lea	 eax, DWORD PTR ___encStr$550414[ebp]
  00d5d	88 9d 82 fd ff
	ff		 mov	 BYTE PTR ___encStr$550414[ebp+34], bl
  00d63	59		 pop	 ecx
$LL2666@LoadProper:
  00d64	81 30 ed ec eb
	ea		 xor	 DWORD PTR [eax], -353637139 ; eaebecedH
  00d6a	83 c0 04	 add	 eax, 4
  00d6d	49		 dec	 ecx
  00d6e	75 f4		 jne	 SHORT $LL2666@LoadProper
  00d70	6a 20		 push	 32			; 00000020H
  00d72	58		 pop	 eax
$LL2663@LoadProper:
  00d73	8b c8		 mov	 ecx, eax
  00d75	81 e1 03 00 00
	80		 and	 ecx, -2147483645	; 80000003H
  00d7b	79 05		 jns	 SHORT $LN2926@LoadProper
  00d7d	49		 dec	 ecx
  00d7e	83 c9 fc	 or	 ecx, -4			; fffffffcH
  00d81	41		 inc	 ecx
$LN2926@LoadProper:
  00d82	b2 ed		 mov	 dl, -19			; ffffffedH
  00d84	2a d1		 sub	 dl, cl
  00d86	30 94 05 60 fd
	ff ff		 xor	 BYTE PTR ___encStr$550414[ebp+eax], dl
  00d8d	40		 inc	 eax
  00d8e	83 f8 22	 cmp	 eax, 34			; 00000022H
  00d91	7c e0		 jl	 SHORT $LL2663@LoadProper
  00d93	ff b5 08 fb ff
	ff		 push	 DWORD PTR tv22768[ebp]
  00d99	8d 85 60 fd ff
	ff		 lea	 eax, DWORD PTR ___encStr$550414[ebp]
  00d9f	50		 push	 eax
  00da0	8d 85 14 fc ff
	ff		 lea	 eax, DWORD PTR _szKey$[ebp]
  00da6	50		 push	 eax
  00da7	ff d7		 call	 edi
  00da9	83 c4 0c	 add	 esp, 12			; 0000000cH

; 131  : 		Info.m_fSkillLoopMotionRateStun = rkLoader.LoadInt( szKey, FLOAT1 );

  00dac	b8 01 00 00 00	 mov	 eax, 1
  00db1	89 85 ec fa ff
	ff		 mov	 DWORD PTR tv22608[ebp], eax
  00db7	db 85 ec fa ff
	ff		 fild	 DWORD PTR tv22608[ebp]
  00dbd	85 c0		 test	 eax, eax
  00dbf	79 06		 jns	 SHORT $LN2927@LoadProper
  00dc1	d8 05 00 00 00
	00		 fadd	 DWORD PTR __real@4f800000
$LN2927@LoadProper:
  00dc7	e8 00 00 00 00	 call	 __ftol2_sse
  00dcc	8b 8d 0c fb ff
	ff		 mov	 ecx, DWORD PTR _rkLoader$GSCopy$[ebp]
  00dd2	50		 push	 eax
  00dd3	8d 85 14 fc ff
	ff		 lea	 eax, DWORD PTR _szKey$[ebp]
  00dd9	50		 push	 eax
  00dda	ff 15 00 00 00
	00		 call	 DWORD PTR __imp_?LoadInt@ioINILoader@@QAEHPBDH@Z
  00de0	0f 57 c0	 xorps	 xmm0, xmm0
  00de3	f3 0f 2a c0	 cvtsi2ss xmm0, eax
  00de7	6a 07		 push	 7
  00de9	f3 0f 11 85 70
	fa ff ff	 movss	 DWORD PTR _Info$549953[ebp+36], xmm0

; 132  : 
; 133  : 		wsprintf_e( szKey, "skill_loop_grap_jump_power%d", i+1 );

  00df1	c7 85 18 fd ff
	ff 9e 87 82 86	 mov	 DWORD PTR ___encStr$550567[ebp], -2038265954 ; 8682879eH
  00dfb	c7 85 1c fd ff
	ff 81 b3 87 85	 mov	 DWORD PTR ___encStr$550567[ebp+4], -2054704255 ; 8587b381H
  00e05	c7 85 20 fd ff
	ff 82 9c b4 8d	 mov	 DWORD PTR ___encStr$550567[ebp+8], -1917543294 ; 8db49c82H
  00e0f	c7 85 24 fd ff
	ff 9f 8d 9b b5	 mov	 DWORD PTR ___encStr$550567[ebp+12], -1248096865 ; b59b8d9fH
  00e19	c7 85 28 fd ff
	ff 87 99 86 9a	 mov	 DWORD PTR ___encStr$550567[ebp+16], -1702454905 ; 9a869987H
  00e23	c7 85 2c fd ff
	ff b2 9c 84 9d	 mov	 DWORD PTR ___encStr$550567[ebp+20], -1652253518 ; 9d849cb2H
  00e2d	c7 85 30 fd ff
	ff 88 9e ce 8e	 mov	 DWORD PTR ___encStr$550567[ebp+24], -1899061624 ; 8ece9e88H
  00e37	8d 85 18 fd ff
	ff		 lea	 eax, DWORD PTR ___encStr$550567[ebp]
  00e3d	88 9d 34 fd ff
	ff		 mov	 BYTE PTR ___encStr$550567[ebp+28], bl
  00e43	59		 pop	 ecx
$LL2676@LoadProper:
  00e44	81 30 ed ec eb
	ea		 xor	 DWORD PTR [eax], -353637139 ; eaebecedH
  00e4a	83 c0 04	 add	 eax, 4
  00e4d	49		 dec	 ecx
  00e4e	75 f4		 jne	 SHORT $LL2676@LoadProper
  00e50	ff b5 08 fb ff
	ff		 push	 DWORD PTR tv22768[ebp]
  00e56	8d 85 18 fd ff
	ff		 lea	 eax, DWORD PTR ___encStr$550567[ebp]
  00e5c	50		 push	 eax
  00e5d	8d 85 14 fc ff
	ff		 lea	 eax, DWORD PTR _szKey$[ebp]
  00e63	50		 push	 eax
  00e64	ff d7		 call	 edi

; 134  : 		Info.m_fJumpPower = rkLoader.LoadFloat( szKey, 0.f );

  00e66	0f 57 c0	 xorps	 xmm0, xmm0
  00e69	59		 pop	 ecx
  00e6a	59		 pop	 ecx
  00e6b	8b 8d 0c fb ff
	ff		 mov	 ecx, DWORD PTR _rkLoader$GSCopy$[ebp]
  00e71	8d 85 14 fc ff
	ff		 lea	 eax, DWORD PTR _szKey$[ebp]
  00e77	f3 0f 11 04 24	 movss	 DWORD PTR [esp], xmm0
  00e7c	50		 push	 eax
  00e7d	ff 15 00 00 00
	00		 call	 DWORD PTR __imp_?LoadFloat@ioINILoader@@QAEMPBDM@Z
  00e83	d9 9d 74 fa ff
	ff		 fstp	 DWORD PTR _Info$549953[ebp+40]
  00e89	6a 03		 push	 3

; 135  : 
; 136  : 		wsprintf_e( szKey, "land_attack%d", i+1 );

  00e8b	c7 45 dc 81 8d
	85 8e		 mov	 DWORD PTR ___encStr$550719[ebp], -1903850111 ; 8e858d81H
  00e92	c7 45 e0 b2 8d
	9f 9e		 mov	 DWORD PTR ___encStr$550719[ebp+4], -1633710670 ; 9e9f8db2H
  00e99	c7 45 e4 8c 8f
	80 cf		 mov	 DWORD PTR ___encStr$550719[ebp+8], -813658228 ; cf808f8cH
  00ea0	8d 45 dc	 lea	 eax, DWORD PTR ___encStr$550719[ebp]
  00ea3	66 c7 45 e8 89
	00		 mov	 WORD PTR ___encStr$550719[ebp+12], 137 ; 00000089H
  00ea9	59		 pop	 ecx
$LL2684@LoadProper:
  00eaa	81 30 ed ec eb
	ea		 xor	 DWORD PTR [eax], -353637139 ; eaebecedH
  00eb0	83 c0 04	 add	 eax, 4
  00eb3	49		 dec	 ecx
  00eb4	75 f4		 jne	 SHORT $LL2684@LoadProper
  00eb6	ff b5 08 fb ff
	ff		 push	 DWORD PTR tv22768[ebp]
  00ebc	80 75 e8 ed	 xor	 BYTE PTR ___encStr$550719[ebp+12], -19 ; ffffffedH
  00ec0	8d 45 dc	 lea	 eax, DWORD PTR ___encStr$550719[ebp]
  00ec3	50		 push	 eax
  00ec4	8d 85 14 fc ff
	ff		 lea	 eax, DWORD PTR _szKey$[ebp]
  00eca	50		 push	 eax
  00ecb	ff d7		 call	 edi
  00ecd	83 c4 0c	 add	 esp, 12			; 0000000cH

; 137  : 		Info.m_LandAttack.Init();

  00ed0	8d 8d 7c fa ff
	ff		 lea	 ecx, DWORD PTR _Info$549953[ebp+48]
  00ed6	e8 00 00 00 00	 call	 ?Init@AttackAttribute@@QAEXXZ ; AttackAttribute::Init

; 138  : 		LoadAttackAttribute( szKey, Info.m_LandAttack, rkLoader );

  00edb	ff b5 0c fb ff
	ff		 push	 DWORD PTR _rkLoader$GSCopy$[ebp]
  00ee1	8d 85 7c fa ff
	ff		 lea	 eax, DWORD PTR _Info$549953[ebp+48]
  00ee7	50		 push	 eax
  00ee8	8d 85 14 fc ff
	ff		 lea	 eax, DWORD PTR _szKey$[ebp]
  00eee	50		 push	 eax
  00eef	e8 00 00 00 00	 call	 ?LoadAttackAttribute@@YAXPBDAAUAttackAttribute@@AAVioINILoader@@@Z ; LoadAttackAttribute
  00ef4	83 c4 0c	 add	 esp, 12			; 0000000cH
  00ef7	6a 04		 push	 4

; 139  : 
; 140  : 		wsprintf_e( szKey, "jump_move_speed%d", i+1 );

  00ef9	c7 45 9c 87 99
	86 9a		 mov	 DWORD PTR ___encStr$550871[ebp], -1702454905 ; 9a869987H
  00f00	c7 45 a0 b2 81
	84 9c		 mov	 DWORD PTR ___encStr$550871[ebp+4], -1669037646 ; 9c8481b2H
  00f07	c7 45 a4 88 b3
	98 9a		 mov	 DWORD PTR ___encStr$550871[ebp+8], -1701268600 ; 9a98b388H
  00f0e	c7 45 a8 88 89
	8f cf		 mov	 DWORD PTR ___encStr$550871[ebp+12], -812676728 ; cf8f8988H
  00f15	8d 45 9c	 lea	 eax, DWORD PTR ___encStr$550871[ebp]
  00f18	66 c7 45 ac 89
	00		 mov	 WORD PTR ___encStr$550871[ebp+16], 137 ; 00000089H
  00f1e	59		 pop	 ecx
$LL2692@LoadProper:
  00f1f	81 30 ed ec eb
	ea		 xor	 DWORD PTR [eax], -353637139 ; eaebecedH
  00f25	83 c0 04	 add	 eax, 4
  00f28	49		 dec	 ecx
  00f29	75 f4		 jne	 SHORT $LL2692@LoadProper
  00f2b	ff b5 08 fb ff
	ff		 push	 DWORD PTR tv22768[ebp]
  00f31	80 75 ac ed	 xor	 BYTE PTR ___encStr$550871[ebp+16], -19 ; ffffffedH
  00f35	8d 45 9c	 lea	 eax, DWORD PTR ___encStr$550871[ebp]
  00f38	50		 push	 eax
  00f39	8d 85 14 fc ff
	ff		 lea	 eax, DWORD PTR _szKey$[ebp]
  00f3f	50		 push	 eax
  00f40	ff d7		 call	 edi

; 141  : 		Info.m_dwJumpMoveSpeed = (DWORD)rkLoader.LoadInt( szKey, 0 );

  00f42	8b 8d 0c fb ff
	ff		 mov	 ecx, DWORD PTR _rkLoader$GSCopy$[ebp]
  00f48	83 c4 0c	 add	 esp, 12			; 0000000cH
  00f4b	53		 push	 ebx
  00f4c	8d 85 14 fc ff
	ff		 lea	 eax, DWORD PTR _szKey$[ebp]
  00f52	50		 push	 eax
  00f53	ff 15 00 00 00
	00		 call	 DWORD PTR __imp_?LoadInt@ioINILoader@@QAEHPBDH@Z
  00f59	89 85 78 fa ff
	ff		 mov	 DWORD PTR _Info$549953[ebp+44], eax

; 142  : 
; 143  : 		m_vGrapJumpInfo.push_back( Info );

  00f5f	8d 85 4c fa ff
	ff		 lea	 eax, DWORD PTR _Info$549953[ebp]
  00f65	50		 push	 eax
  00f66	8d 8e ec 10 00
	00		 lea	 ecx, DWORD PTR [esi+4332]
  00f6c	e8 00 00 00 00	 call	 ?push_back@?$vector@UStGrapInfo@ioGrapplingBlowLoopSkill@@V?$allocator@UStGrapInfo@ioGrapplingBlowLoopSkill@@@std@@@std@@QAEXABUStGrapInfo@ioGrapplingBlowLoopSkill@@@Z ; std::vector<ioGrapplingBlowLoopSkill::StGrapInfo,std::allocator<ioGrapplingBlowLoopSkill::StGrapInfo> >::push_back

; 144  : 	}

  00f71	83 4d fc ff	 or	 DWORD PTR __$EHRec$[ebp+8], -1
  00f75	8d 8d 4c fa ff
	ff		 lea	 ecx, DWORD PTR _Info$549953[ebp]
  00f7b	e8 00 00 00 00	 call	 ??1StGrapInfo@ioGrapplingBlowLoopSkill@@QAE@XZ
  00f80	ff 85 08 fb ff
	ff		 inc	 DWORD PTR tv22768[ebp]
  00f86	8b 85 08 fb ff
	ff		 mov	 eax, DWORD PTR tv22768[ebp]
  00f8c	48		 dec	 eax
  00f8d	3b 86 e4 10 00
	00		 cmp	 eax, DWORD PTR [esi+4324]
  00f93	0f 8c 28 fb ff
	ff		 jl	 $LL696@LoadProper
$LN694@LoadProper:

; 145  : 
; 146  : 	m_dwRotateSpeed = (DWORD)rkLoader.LoadInt_e( "attack_rotate_speed", 0 );

  00f99	6a 04		 push	 4
  00f9b	c7 85 0c ff ff
	ff 8c 98 9f 8b	 mov	 DWORD PTR __k$564014[ebp], -1952474996 ; 8b9f988cH
  00fa5	c7 85 10 ff ff
	ff 8e 87 b4 98	 mov	 DWORD PTR __k$564014[ebp+4], -1732999282 ; 98b4878eH
  00faf	c7 85 14 ff ff
	ff 82 98 8a 9e	 mov	 DWORD PTR __k$564014[ebp+8], -1635084158 ; 9e8a9882H
  00fb9	c7 85 18 ff ff
	ff 88 b3 98 9a	 mov	 DWORD PTR __k$564014[ebp+12], -1701268600 ; 9a98b388H
  00fc3	8d 85 0c ff ff
	ff		 lea	 eax, DWORD PTR __k$564014[ebp]
  00fc9	c7 85 1c ff ff
	ff 88 89 8f 00	 mov	 DWORD PTR __k$564014[ebp+16], 9406856 ; 008f8988H
  00fd3	59		 pop	 ecx
$LL2798@LoadProper:
  00fd4	81 30 ed ec eb
	ea		 xor	 DWORD PTR [eax], -353637139 ; eaebecedH
  00fda	83 c0 04	 add	 eax, 4
  00fdd	49		 dec	 ecx
  00fde	75 f4		 jne	 SHORT $LL2798@LoadProper
  00fe0	6a 10		 push	 16			; 00000010H
  00fe2	5f		 pop	 edi
$LL2795@LoadProper:
  00fe3	8b c7		 mov	 eax, edi
  00fe5	25 03 00 00 80	 and	 eax, -2147483645	; 80000003H
  00fea	79 05		 jns	 SHORT $LN2928@LoadProper
  00fec	48		 dec	 eax
  00fed	83 c8 fc	 or	 eax, -4			; fffffffcH
  00ff0	40		 inc	 eax
$LN2928@LoadProper:
  00ff1	b1 ed		 mov	 cl, -19			; ffffffedH
  00ff3	2a c8		 sub	 cl, al
  00ff5	30 8c 3d 0c ff
	ff ff		 xor	 BYTE PTR __k$564014[ebp+edi], cl
  00ffc	47		 inc	 edi
  00ffd	83 ff 13	 cmp	 edi, 19			; 00000013H
  01000	7c e1		 jl	 SHORT $LL2795@LoadProper
  01002	8b 8d 0c fb ff
	ff		 mov	 ecx, DWORD PTR _rkLoader$GSCopy$[ebp]
  01008	53		 push	 ebx
  01009	8d 85 0c ff ff
	ff		 lea	 eax, DWORD PTR __k$564014[ebp]
  0100f	50		 push	 eax
  01010	ff 15 00 00 00
	00		 call	 DWORD PTR __imp_?LoadInt@ioINILoader@@QAEHPBDH@Z
  01016	89 86 50 12 00
	00		 mov	 DWORD PTR [esi+4688], eax

; 147  : 	//m_dwJumpMoveSpeed = (DWORD)rkLoader.LoadInt_e( "jump_move_speed", 0 );
; 148  : }

  0101c	e8 00 00 00 00	 call	 __EH_epilog3_GS
  01021	c2 04 00	 ret	 4
_TEXT	ENDS
;	COMDAT text$x
text$x	SEGMENT
__unwindfunclet$?LoadProperty@ioGrapplingBlowLoopSkill@@UAEXAAVioINILoader@@@Z$0:
  00000	8d 8d cc fa ff
	ff		 lea	 ecx, DWORD PTR $T561842[ebp]
  00006	ff 25 00 00 00
	00		 jmp	 DWORD PTR __imp_??1ioHashString@@QAE@XZ
__unwindfunclet$?LoadProperty@ioGrapplingBlowLoopSkill@@UAEXAAVioINILoader@@@Z$1:
  0000c	8d 8d dc fa ff
	ff		 lea	 ecx, DWORD PTR _szBuffName$549947[ebp]
  00012	ff 25 00 00 00
	00		 jmp	 DWORD PTR __imp_??1ioHashString@@QAE@XZ
__unwindfunclet$?LoadProperty@ioGrapplingBlowLoopSkill@@UAEXAAVioINILoader@@@Z$2:
  00018	8d 8d 4c fa ff
	ff		 lea	 ecx, DWORD PTR _Info$549953[ebp]
  0001e	e9 00 00 00 00	 jmp	 ??1StGrapInfo@ioGrapplingBlowLoopSkill@@QAE@XZ
__ehhandler$?LoadProperty@ioGrapplingBlowLoopSkill@@UAEXAAVioINILoader@@@Z:
  00023	8b 54 24 08	 mov	 edx, DWORD PTR [esp+8]
  00027	8d 42 0c	 lea	 eax, DWORD PTR [edx+12]
  0002a	8b 8a 48 fa ff
	ff		 mov	 ecx, DWORD PTR [edx-1464]
  00030	33 c8		 xor	 ecx, eax
  00032	e8 00 00 00 00	 call	 @__security_check_cookie@4
  00037	8b 4a fc	 mov	 ecx, DWORD PTR [edx-4]
  0003a	33 c8		 xor	 ecx, eax
  0003c	e8 00 00 00 00	 call	 @__security_check_cookie@4
  00041	b8 00 00 00 00	 mov	 eax, OFFSET __ehfuncinfo$?LoadProperty@ioGrapplingBlowLoopSkill@@UAEXAAVioINILoader@@@Z
  00046	e9 00 00 00 00	 jmp	 ___CxxFrameHandler3
text$x	ENDS
?LoadProperty@ioGrapplingBlowLoopSkill@@UAEXAAVioINILoader@@@Z ENDP ; ioGrapplingBlowLoopSkill::LoadProperty
END
