; Listing generated by Microsoft (R) Optimizing Compiler Version 16.00.30319.01 

	TITLE	D:\Lost Saga For Developer\Youtube\Tutorial\Source\src\LSClient\ioGrapplingSwing2Skill.cpp
	.686P
	.XMM
	include listing.inc
	.model	flat

INCLUDELIB MSVCRT
INCLUDELIB OLDNAMES

PUBLIC	?_EEM_DS@?$deque@UD3DXVECTOR3@@V?$allocator@UD3DXVECTOR3@@@std@@@std@@2HB ; std::deque<D3DXVECTOR3,std::allocator<D3DXVECTOR3> >::_EEM_DS
;	COMDAT ?_EEM_DS@?$deque@UD3DXVECTOR3@@V?$allocator@UD3DXVECTOR3@@@std@@@std@@2HB
CONST	SEGMENT
?_EEM_DS@?$deque@UD3DXVECTOR3@@V?$allocator@UD3DXVECTOR3@@@std@@@std@@2HB DD 01H ; std::deque<D3DXVECTOR3,std::allocator<D3DXVECTOR3> >::_EEM_DS
CONST	ENDS
PUBLIC	?return1@@YAIXZ					; return1
; Function compile flags: /Ogsp
; File d:\lost saga for developer\youtube\tutorial\source\src\lsclient\stdafx.h
;	COMDAT ?return1@@YAIXZ
_TEXT	SEGMENT
?return1@@YAIXZ PROC					; return1, COMDAT

; 17   : 	__forceinline unsigned int return1() { __asm mov eax, 1 };

  00000	b8 01 00 00 00	 mov	 eax, 1
  00005	c3		 ret	 0
?return1@@YAIXZ ENDP					; return1
_TEXT	ENDS
PUBLIC	?return5@@YAIXZ					; return5
; Function compile flags: /Ogsp
;	COMDAT ?return5@@YAIXZ
_TEXT	SEGMENT
?return5@@YAIXZ PROC					; return5, COMDAT

; 18   : 	__forceinline unsigned int return5() { __asm mov eax, 5 };

  00000	b8 05 00 00 00	 mov	 eax, 5
  00005	c3		 ret	 0
?return5@@YAIXZ ENDP					; return5
_TEXT	ENDS
PUBLIC	?return10@@YAIXZ				; return10
; Function compile flags: /Ogsp
;	COMDAT ?return10@@YAIXZ
_TEXT	SEGMENT
?return10@@YAIXZ PROC					; return10, COMDAT

; 21   : 	__forceinline unsigned int return10() { __asm mov eax, 10 };

  00000	b8 0a 00 00 00	 mov	 eax, 10			; 0000000aH
  00005	c3		 ret	 0
?return10@@YAIXZ ENDP					; return10
_TEXT	ENDS
PUBLIC	?return100@@YAIXZ				; return100
; Function compile flags: /Ogsp
;	COMDAT ?return100@@YAIXZ
_TEXT	SEGMENT
?return100@@YAIXZ PROC					; return100, COMDAT

; 25   : 	__forceinline unsigned int return100() { __asm mov eax, 100 };

  00000	b8 64 00 00 00	 mov	 eax, 100		; 00000064H
  00005	c3		 ret	 0
?return100@@YAIXZ ENDP					; return100
_TEXT	ENDS
PUBLIC	?return360@@YAIXZ				; return360
; Function compile flags: /Ogsp
;	COMDAT ?return360@@YAIXZ
_TEXT	SEGMENT
?return360@@YAIXZ PROC					; return360, COMDAT

; 27   : 	__forceinline unsigned int return360() { __asm mov eax, 360 };

  00000	b8 68 01 00 00	 mov	 eax, 360		; 00000168H
  00005	c3		 ret	 0
?return360@@YAIXZ ENDP					; return360
_TEXT	ENDS
PUBLIC	?GetState@ioBaseChar@@QBE?AW4CharState@@XZ	; ioBaseChar::GetState
; Function compile flags: /Ogsp
; File d:\lost saga for developer\youtube\tutorial\source\src\lsclient\iobasechar.h
;	COMDAT ?GetState@ioBaseChar@@QBE?AW4CharState@@XZ
_TEXT	SEGMENT
?GetState@ioBaseChar@@QBE?AW4CharState@@XZ PROC		; ioBaseChar::GetState, COMDAT
; _this$ = ecx

; 2156 : 	inline CharState GetState() const { return m_CharState; }	

  00000	8a 81 10 03 00
	00		 mov	 al, BYTE PTR [ecx+784]
  00006	c3		 ret	 0
?GetState@ioBaseChar@@QBE?AW4CharState@@XZ ENDP		; ioBaseChar::GetState
_TEXT	ENDS
PUBLIC	?GetCharName@ioBaseChar@@QBEABVioHashString@@XZ	; ioBaseChar::GetCharName
; Function compile flags: /Ogsp
;	COMDAT ?GetCharName@ioBaseChar@@QBEABVioHashString@@XZ
_TEXT	SEGMENT
?GetCharName@ioBaseChar@@QBEABVioHashString@@XZ PROC	; ioBaseChar::GetCharName, COMDAT
; _this$ = ecx

; 2594 : 	inline const ioHashString& GetCharName() const { return m_Name; }

  00000	8d 81 d4 02 00
	00		 lea	 eax, DWORD PTR [ecx+724]
  00006	c3		 ret	 0
?GetCharName@ioBaseChar@@QBEABVioHashString@@XZ ENDP	; ioBaseChar::GetCharName
_TEXT	ENDS
PUBLIC	?GetTargetRot@ioBaseChar@@QBEABUD3DXQUATERNION@@XZ ; ioBaseChar::GetTargetRot
; Function compile flags: /Ogsp
;	COMDAT ?GetTargetRot@ioBaseChar@@QBEABUD3DXQUATERNION@@XZ
_TEXT	SEGMENT
?GetTargetRot@ioBaseChar@@QBEABUD3DXQUATERNION@@XZ PROC	; ioBaseChar::GetTargetRot, COMDAT
; _this$ = ecx

; 2599 : 	inline const D3DXQUATERNION& GetTargetRot() const { return m_qtTargetRot; }

  00000	8d 81 a4 06 00
	00		 lea	 eax, DWORD PTR [ecx+1700]
  00006	c3		 ret	 0
?GetTargetRot@ioBaseChar@@QBEABUD3DXQUATERNION@@XZ ENDP	; ioBaseChar::GetTargetRot
_TEXT	ENDS
PUBLIC	_acosf
EXTRN	__fltused:DWORD
EXTRN	__CIacos:PROC
; Function compile flags: /Ogsp
; File c:\program files (x86)\microsoft visual studio 10.0\vc\include\math.h
;	COMDAT _acosf
_TEXT	SEGMENT
tv69 = 8						; size = 4
__X$ = 8						; size = 4
_acosf	PROC						; COMDAT

; 400  :         {return ((float)acos((double)_X)); }

  00000	55		 push	 ebp
  00001	8b ec		 mov	 ebp, esp
  00003	d9 45 08	 fld	 DWORD PTR __X$[ebp]
  00006	e8 00 00 00 00	 call	 __CIacos
  0000b	d9 5d 08	 fstp	 DWORD PTR tv69[ebp]
  0000e	d9 45 08	 fld	 DWORD PTR tv69[ebp]
  00011	5d		 pop	 ebp
  00012	c3		 ret	 0
_acosf	ENDP
_TEXT	ENDS
PUBLIC	??_7bad_alloc@std@@6B@				; std::bad_alloc::`vftable'
PUBLIC	??0bad_alloc@std@@QAE@PBD@Z			; std::bad_alloc::bad_alloc
PUBLIC	??_R4bad_alloc@std@@6B@				; std::bad_alloc::`RTTI Complete Object Locator'
PUBLIC	??_R0?AVbad_alloc@std@@@8			; std::bad_alloc `RTTI Type Descriptor'
PUBLIC	??_R3bad_alloc@std@@8				; std::bad_alloc::`RTTI Class Hierarchy Descriptor'
PUBLIC	??_R2bad_alloc@std@@8				; std::bad_alloc::`RTTI Base Class Array'
PUBLIC	??_R1A@?0A@EA@bad_alloc@std@@8			; std::bad_alloc::`RTTI Base Class Descriptor at (0,-1,0,64)'
PUBLIC	??_R1A@?0A@EA@exception@std@@8			; std::exception::`RTTI Base Class Descriptor at (0,-1,0,64)'
PUBLIC	??_R0?AVexception@std@@@8			; std::exception `RTTI Type Descriptor'
PUBLIC	??_R3exception@std@@8				; std::exception::`RTTI Class Hierarchy Descriptor'
PUBLIC	??_R2exception@std@@8				; std::exception::`RTTI Base Class Array'
EXTRN	__imp_??0exception@std@@QAE@ABQBD@Z:PROC
EXTRN	??_7type_info@@6B@:QWORD			; type_info::`vftable'
EXTRN	??_Ebad_alloc@std@@UAEPAXI@Z:PROC		; std::bad_alloc::`vector deleting destructor'
EXTRN	?what@exception@std@@UBEPBDXZ:PROC		; std::exception::what
;	COMDAT ??_R2exception@std@@8
; File c:\program files (x86)\microsoft visual studio 10.0\vc\include\exception
rdata$r	SEGMENT
??_R2exception@std@@8 DD FLAT:??_R1A@?0A@EA@exception@std@@8 ; std::exception::`RTTI Base Class Array'
rdata$r	ENDS
;	COMDAT ??_R3exception@std@@8
rdata$r	SEGMENT
??_R3exception@std@@8 DD 00H				; std::exception::`RTTI Class Hierarchy Descriptor'
	DD	00H
	DD	01H
	DD	FLAT:??_R2exception@std@@8
rdata$r	ENDS
;	COMDAT ??_R0?AVexception@std@@@8
_DATA	SEGMENT
??_R0?AVexception@std@@@8 DD FLAT:??_7type_info@@6B@	; std::exception `RTTI Type Descriptor'
	DD	00H
	DB	'.?AVexception@std@@', 00H
_DATA	ENDS
;	COMDAT ??_R1A@?0A@EA@exception@std@@8
rdata$r	SEGMENT
??_R1A@?0A@EA@exception@std@@8 DD FLAT:??_R0?AVexception@std@@@8 ; std::exception::`RTTI Base Class Descriptor at (0,-1,0,64)'
	DD	00H
	DD	00H
	DD	0ffffffffH
	DD	00H
	DD	040H
	DD	FLAT:??_R3exception@std@@8
rdata$r	ENDS
;	COMDAT ??_R1A@?0A@EA@bad_alloc@std@@8
rdata$r	SEGMENT
??_R1A@?0A@EA@bad_alloc@std@@8 DD FLAT:??_R0?AVbad_alloc@std@@@8 ; std::bad_alloc::`RTTI Base Class Descriptor at (0,-1,0,64)'
	DD	01H
	DD	00H
	DD	0ffffffffH
	DD	00H
	DD	040H
	DD	FLAT:??_R3bad_alloc@std@@8
rdata$r	ENDS
;	COMDAT ??_R2bad_alloc@std@@8
rdata$r	SEGMENT
??_R2bad_alloc@std@@8 DD FLAT:??_R1A@?0A@EA@bad_alloc@std@@8 ; std::bad_alloc::`RTTI Base Class Array'
	DD	FLAT:??_R1A@?0A@EA@exception@std@@8
rdata$r	ENDS
;	COMDAT ??_R3bad_alloc@std@@8
rdata$r	SEGMENT
??_R3bad_alloc@std@@8 DD 00H				; std::bad_alloc::`RTTI Class Hierarchy Descriptor'
	DD	00H
	DD	02H
	DD	FLAT:??_R2bad_alloc@std@@8
rdata$r	ENDS
;	COMDAT ??_R0?AVbad_alloc@std@@@8
_DATA	SEGMENT
??_R0?AVbad_alloc@std@@@8 DD FLAT:??_7type_info@@6B@	; std::bad_alloc `RTTI Type Descriptor'
	DD	00H
	DB	'.?AVbad_alloc@std@@', 00H
_DATA	ENDS
;	COMDAT ??_R4bad_alloc@std@@6B@
rdata$r	SEGMENT
??_R4bad_alloc@std@@6B@ DD 00H				; std::bad_alloc::`RTTI Complete Object Locator'
	DD	00H
	DD	00H
	DD	FLAT:??_R0?AVbad_alloc@std@@@8
	DD	FLAT:??_R3bad_alloc@std@@8
rdata$r	ENDS
;	COMDAT ??_7bad_alloc@std@@6B@
CONST	SEGMENT
??_7bad_alloc@std@@6B@ DD FLAT:??_R4bad_alloc@std@@6B@	; std::bad_alloc::`vftable'
	DD	FLAT:??_Ebad_alloc@std@@UAEPAXI@Z
	DD	FLAT:?what@exception@std@@UBEPBDXZ
; Function compile flags: /Ogsp
CONST	ENDS
;	COMDAT ??0bad_alloc@std@@QAE@PBD@Z
_TEXT	SEGMENT
__Message$ = 8						; size = 4
??0bad_alloc@std@@QAE@PBD@Z PROC			; std::bad_alloc::bad_alloc, COMDAT
; _this$ = ecx

; 345  : 		{	// construct from message string

  00000	55		 push	 ebp
  00001	8b ec		 mov	 ebp, esp
  00003	56		 push	 esi
  00004	8d 45 08	 lea	 eax, DWORD PTR __Message$[ebp]
  00007	50		 push	 eax
  00008	8b f1		 mov	 esi, ecx
  0000a	ff 15 00 00 00
	00		 call	 DWORD PTR __imp_??0exception@std@@QAE@ABQBD@Z
  00010	c7 06 00 00 00
	00		 mov	 DWORD PTR [esi], OFFSET ??_7bad_alloc@std@@6B@

; 346  : 		}

  00016	8b c6		 mov	 eax, esi
  00018	5e		 pop	 esi
  00019	5d		 pop	 ebp
  0001a	c2 04 00	 ret	 4
??0bad_alloc@std@@QAE@PBD@Z ENDP			; std::bad_alloc::bad_alloc
_TEXT	ENDS
PUBLIC	??1bad_alloc@std@@UAE@XZ			; std::bad_alloc::~bad_alloc
EXTRN	__imp_??1exception@std@@UAE@XZ:PROC
; Function compile flags: /Ogsp
;	COMDAT ??1bad_alloc@std@@UAE@XZ
_TEXT	SEGMENT
??1bad_alloc@std@@UAE@XZ PROC				; std::bad_alloc::~bad_alloc, COMDAT
; _this$ = ecx

; 354  : 		{	// destroy the object

  00000	c7 01 00 00 00
	00		 mov	 DWORD PTR [ecx], OFFSET ??_7bad_alloc@std@@6B@

; 355  : 		}

  00006	ff 25 00 00 00
	00		 jmp	 DWORD PTR __imp_??1exception@std@@UAE@XZ
??1bad_alloc@std@@UAE@XZ ENDP				; std::bad_alloc::~bad_alloc
_TEXT	ENDS
EXTRN	??3@YAXPAX@Z:PROC				; operator delete
; Function compile flags: /Ogsp
;	COMDAT ??_Gbad_alloc@std@@UAEPAXI@Z
_TEXT	SEGMENT
___flags$ = 8						; size = 4
??_Gbad_alloc@std@@UAEPAXI@Z PROC			; std::bad_alloc::`scalar deleting destructor', COMDAT
; _this$ = ecx
  00000	55		 push	 ebp
  00001	8b ec		 mov	 ebp, esp
  00003	56		 push	 esi
  00004	8b f1		 mov	 esi, ecx
  00006	c7 06 00 00 00
	00		 mov	 DWORD PTR [esi], OFFSET ??_7bad_alloc@std@@6B@
  0000c	ff 15 00 00 00
	00		 call	 DWORD PTR __imp_??1exception@std@@UAE@XZ
  00012	f6 45 08 01	 test	 BYTE PTR ___flags$[ebp], 1
  00016	74 07		 je	 SHORT $LN1@scalar
  00018	56		 push	 esi
  00019	e8 00 00 00 00	 call	 ??3@YAXPAX@Z		; operator delete
  0001e	59		 pop	 ecx
$LN1@scalar:
  0001f	8b c6		 mov	 eax, esi
  00021	5e		 pop	 esi
  00022	5d		 pop	 ebp
  00023	c2 04 00	 ret	 4
??_Gbad_alloc@std@@UAEPAXI@Z ENDP			; std::bad_alloc::`scalar deleting destructor'
_TEXT	ENDS
PUBLIC	??2@YAPAXIPAX@Z					; operator new
; Function compile flags: /Ogsp
; File c:\program files (x86)\microsoft visual studio 10.0\vc\include\new
;	COMDAT ??2@YAPAXIPAX@Z
_TEXT	SEGMENT
___formal$ = 8						; size = 4
__Where$ = 12						; size = 4
??2@YAPAXIPAX@Z PROC					; operator new, COMDAT

; 56   : 	{	// construct array with placement at _Where

  00000	55		 push	 ebp
  00001	8b ec		 mov	 ebp, esp

; 57   : 	return (_Where);

  00003	8b 45 0c	 mov	 eax, DWORD PTR __Where$[ebp]

; 58   : 	}

  00006	5d		 pop	 ebp
  00007	c3		 ret	 0
??2@YAPAXIPAX@Z ENDP					; operator new
_TEXT	ENDS
PUBLIC	??3@YAXPAX0@Z					; operator delete
; Function compile flags: /Ogsp
;	COMDAT ??3@YAXPAX0@Z
_TEXT	SEGMENT
___formal$ = 8						; size = 4
___formal$ = 12						; size = 4
??3@YAXPAX0@Z PROC					; operator delete, COMDAT

; 62   : 	}

  00000	c3		 ret	 0
??3@YAXPAX0@Z ENDP					; operator delete
_TEXT	ENDS
PUBLIC	?GetCreator@ioBaseChar@@QAEPAVioPlayStage@@XZ	; ioBaseChar::GetCreator
; Function compile flags: /Ogsp
; File d:\lost saga for developer\youtube\tutorial\source\src\lsclient\iobasechar.h
;	COMDAT ?GetCreator@ioBaseChar@@QAEPAVioPlayStage@@XZ
_TEXT	SEGMENT
?GetCreator@ioBaseChar@@QAEPAVioPlayStage@@XZ PROC	; ioBaseChar::GetCreator, COMDAT
; _this$ = ecx

; 4013 : 	inline ioPlayStage* GetCreator() { return m_pCreator; }

  00000	8b 81 44 03 00
	00		 mov	 eax, DWORD PTR [ecx+836]
  00006	c3		 ret	 0
?GetCreator@ioBaseChar@@QAEPAVioPlayStage@@XZ ENDP	; ioBaseChar::GetCreator
_TEXT	ENDS
PUBLIC	?GetType@ioGrowthUpInfo@@QBE?AW4GrowthType@@XZ	; ioGrowthUpInfo::GetType
; Function compile flags: /Ogsp
; File d:\lost saga for developer\youtube\tutorial\source\src\lsclient\iogrowthupinfo.h
;	COMDAT ?GetType@ioGrowthUpInfo@@QBE?AW4GrowthType@@XZ
_TEXT	SEGMENT
?GetType@ioGrowthUpInfo@@QBE?AW4GrowthType@@XZ PROC	; ioGrowthUpInfo::GetType, COMDAT
; _this$ = ecx

; 23   : 	inline GrowthType GetType() const { return m_GrowthType; }

  00000	8b 41 04	 mov	 eax, DWORD PTR [ecx+4]
  00003	c3		 ret	 0
?GetType@ioGrowthUpInfo@@QBE?AW4GrowthType@@XZ ENDP	; ioGrowthUpInfo::GetType
_TEXT	ENDS
PUBLIC	??_R0?AVioGrowthUpInfo@@@8			; ioGrowthUpInfo `RTTI Type Descriptor'
PUBLIC	??_R0?AVioGrowthNormalUpInfo@@@8		; ioGrowthNormalUpInfo `RTTI Type Descriptor'
PUBLIC	?ToNormalUpInfo@@YAPAVioGrowthNormalUpInfo@@PAVioGrowthUpInfo@@@Z ; ToNormalUpInfo
EXTRN	___RTDynamicCast:PROC
;	COMDAT ??_R0?AVioGrowthUpInfo@@@8
_DATA	SEGMENT
??_R0?AVioGrowthUpInfo@@@8 DD FLAT:??_7type_info@@6B@	; ioGrowthUpInfo `RTTI Type Descriptor'
	DD	00H
	DB	'.?AVioGrowthUpInfo@@', 00H
_DATA	ENDS
;	COMDAT ??_R0?AVioGrowthNormalUpInfo@@@8
_DATA	SEGMENT
??_R0?AVioGrowthNormalUpInfo@@@8 DD FLAT:??_7type_info@@6B@ ; ioGrowthNormalUpInfo `RTTI Type Descriptor'
	DD	00H
	DB	'.?AVioGrowthNormalUpInfo@@', 00H
; Function compile flags: /Ogsp
_DATA	ENDS
;	COMDAT ?ToNormalUpInfo@@YAPAVioGrowthNormalUpInfo@@PAVioGrowthUpInfo@@@Z
_TEXT	SEGMENT
_pUpInfo$ = 8						; size = 4
?ToNormalUpInfo@@YAPAVioGrowthNormalUpInfo@@PAVioGrowthUpInfo@@@Z PROC ; ToNormalUpInfo, COMDAT

; 59   : {

  00000	55		 push	 ebp
  00001	8b ec		 mov	 ebp, esp

; 60   : 	if( !pUpInfo || pUpInfo->GetType() == GT_NONE )

  00003	8b 4d 08	 mov	 ecx, DWORD PTR _pUpInfo$[ebp]
  00006	85 c9		 test	 ecx, ecx
  00008	74 39		 je	 SHORT $LN6@ToNormalUp
  0000a	8b 41 04	 mov	 eax, DWORD PTR [ecx+4]
  0000d	85 c0		 test	 eax, eax
  0000f	74 32		 je	 SHORT $LN6@ToNormalUp

; 62   : 
; 63   : 	if( pUpInfo->GetType() == GT_CHAR_ATTACK || pUpInfo->GetType() == GT_SKILL_ATTACK )

  00011	83 f8 01	 cmp	 eax, 1
  00014	74 2d		 je	 SHORT $LN6@ToNormalUp
  00016	83 f8 07	 cmp	 eax, 7
  00019	74 28		 je	 SHORT $LN6@ToNormalUp

; 64   : 		return NULL;
; 65   : 	if( pUpInfo->GetType() == GT_BLOW_PUSH )

  0001b	83 f8 1e	 cmp	 eax, 30			; 0000001eH

; 66   : 		return NULL;

  0001e	74 23		 je	 SHORT $LN6@ToNormalUp

; 67   : 	if( pUpInfo->GetType() == GT_TELEPORT_ANI_RATE )

  00020	83 f8 20	 cmp	 eax, 32			; 00000020H

; 68   : 		return NULL;

  00023	74 1e		 je	 SHORT $LN6@ToNormalUp

; 69   : 	if( pUpInfo->GetType() == GT_SKILL_ATTACK_FORCE )

  00025	83 f8 1c	 cmp	 eax, 28			; 0000001cH

; 70   : 		return NULL;

  00028	74 19		 je	 SHORT $LN6@ToNormalUp

; 71   : 
; 72   : 	return dynamic_cast< ioGrowthNormalUpInfo* >( pUpInfo );

  0002a	6a 00		 push	 0
  0002c	68 00 00 00 00	 push	 OFFSET ??_R0?AVioGrowthNormalUpInfo@@@8
  00031	68 00 00 00 00	 push	 OFFSET ??_R0?AVioGrowthUpInfo@@@8
  00036	6a 00		 push	 0
  00038	51		 push	 ecx
  00039	e8 00 00 00 00	 call	 ___RTDynamicCast
  0003e	83 c4 14	 add	 esp, 20			; 00000014H

; 73   : }

  00041	5d		 pop	 ebp
  00042	c3		 ret	 0
$LN6@ToNormalUp:

; 61   : 		return NULL;

  00043	33 c0		 xor	 eax, eax

; 73   : }

  00045	5d		 pop	 ebp
  00046	c3		 ret	 0
?ToNormalUpInfo@@YAPAVioGrowthNormalUpInfo@@PAVioGrowthUpInfo@@@Z ENDP ; ToNormalUpInfo
_TEXT	ENDS
PUBLIC	?_Adopt@_Iterator_base0@std@@QAEXPBX@Z		; std::_Iterator_base0::_Adopt
; Function compile flags: /Ogsp
; File c:\program files (x86)\microsoft visual studio 10.0\vc\include\xutility
;	COMDAT ?_Adopt@_Iterator_base0@std@@QAEXPBX@Z
_TEXT	SEGMENT
___formal$ = 8						; size = 4
?_Adopt@_Iterator_base0@std@@QAEXPBX@Z PROC		; std::_Iterator_base0::_Adopt, COMDAT
; _this$ = ecx

; 49   : 		}

  00000	c2 04 00	 ret	 4
?_Adopt@_Iterator_base0@std@@QAEXPBX@Z ENDP		; std::_Iterator_base0::_Adopt
_TEXT	ENDS
PUBLIC	?ApplyAttributeToWeapon@ioGrapplingSwing2Skill@@UAEXPAVioWeapon@@PAVioPlayStage@@@Z ; ioGrapplingSwing2Skill::ApplyAttributeToWeapon
EXTRN	__imp_?IsEmpty@ioHashString@@QBE_NXZ:PROC
EXTRN	?ApplyAttributeToWeapon@ioSkill@@UAEXPAVioWeapon@@PAVioPlayStage@@@Z:PROC ; ioSkill::ApplyAttributeToWeapon
; Function compile flags: /Ogsp
; File d:\lost saga for developer\youtube\tutorial\source\src\lsclient\iograpplingswing2skill.cpp
;	COMDAT ?ApplyAttributeToWeapon@ioGrapplingSwing2Skill@@UAEXPAVioWeapon@@PAVioPlayStage@@@Z
_TEXT	SEGMENT
_pWeapon$ = 8						; size = 4
_pStage$ = 12						; size = 4
?ApplyAttributeToWeapon@ioGrapplingSwing2Skill@@UAEXPAVioWeapon@@PAVioPlayStage@@@Z PROC ; ioGrapplingSwing2Skill::ApplyAttributeToWeapon, COMDAT
; _this$ = ecx

; 587  : {

  00000	55		 push	 ebp
  00001	8b ec		 mov	 ebp, esp
  00003	56		 push	 esi

; 588  : 	ioSkill::ApplyAttributeToWeapon( pWeapon, pStage );

  00004	8b 75 08	 mov	 esi, DWORD PTR _pWeapon$[ebp]
  00007	57		 push	 edi
  00008	ff 75 0c	 push	 DWORD PTR _pStage$[ebp]
  0000b	8b f9		 mov	 edi, ecx
  0000d	56		 push	 esi
  0000e	e8 00 00 00 00	 call	 ?ApplyAttributeToWeapon@ioSkill@@UAEXPAVioWeapon@@PAVioPlayStage@@@Z ; ioSkill::ApplyAttributeToWeapon

; 589  : 
; 590  : 	if( pWeapon && pWeapon->CheckGrapplingState() == GPT_WRESTLING && !m_GrapplingTargetName.IsEmpty() )

  00013	85 f6		 test	 esi, esi
  00015	0f 84 b5 00 00
	00		 je	 $LN1@ApplyAttri
  0001b	8b 06		 mov	 eax, DWORD PTR [esi]
  0001d	53		 push	 ebx
  0001e	8b ce		 mov	 ecx, esi
  00020	ff 90 ec 00 00
	00		 call	 DWORD PTR [eax+236]
  00026	83 f8 01	 cmp	 eax, 1
  00029	75 18		 jne	 SHORT $LN9@ApplyAttri
  0002b	8d 9f 68 11 00
	00		 lea	 ebx, DWORD PTR [edi+4456]
  00031	8b cb		 mov	 ecx, ebx
  00033	ff 15 00 00 00
	00		 call	 DWORD PTR __imp_?IsEmpty@ioHashString@@QBE_NXZ
  00039	84 c0		 test	 al, al
  0003b	75 06		 jne	 SHORT $LN9@ApplyAttri
$LN14@ApplyAttri:

; 591  : 		pWeapon->SetGrapplingTargetName( m_GrapplingTargetName );

  0003d	53		 push	 ebx
  0003e	e9 85 00 00 00	 jmp	 $LN13@ApplyAttri
$LN9@ApplyAttri:

; 592  : 	else if( pWeapon && pWeapon->CheckGrapplingState() == GPT_WRESTLING_ALL && !m_GrapplingTargetName.IsEmpty() )

  00043	8b 06		 mov	 eax, DWORD PTR [esi]
  00045	8b ce		 mov	 ecx, esi
  00047	ff 90 ec 00 00
	00		 call	 DWORD PTR [eax+236]
  0004d	83 f8 03	 cmp	 eax, 3
  00050	75 12		 jne	 SHORT $LN7@ApplyAttri
  00052	8d 9f 68 11 00
	00		 lea	 ebx, DWORD PTR [edi+4456]
  00058	8b cb		 mov	 ecx, ebx
  0005a	ff 15 00 00 00
	00		 call	 DWORD PTR __imp_?IsEmpty@ioHashString@@QBE_NXZ
  00060	84 c0		 test	 al, al

; 593  : 		pWeapon->SetGrapplingTargetName( m_GrapplingTargetName );

  00062	74 d9		 je	 SHORT $LN14@ApplyAttri
$LN7@ApplyAttri:

; 594  : 	else if( pWeapon && pWeapon->CheckGrapplingState() == GPT_NO_CHANGE && !m_GrapplingTargetName.IsEmpty() )

  00064	8b 06		 mov	 eax, DWORD PTR [esi]
  00066	8b ce		 mov	 ecx, esi
  00068	ff 90 ec 00 00
	00		 call	 DWORD PTR [eax+236]
  0006e	83 f8 06	 cmp	 eax, 6
  00071	75 12		 jne	 SHORT $LN5@ApplyAttri
  00073	8d 9f 68 11 00
	00		 lea	 ebx, DWORD PTR [edi+4456]
  00079	8b cb		 mov	 ecx, ebx
  0007b	ff 15 00 00 00
	00		 call	 DWORD PTR __imp_?IsEmpty@ioHashString@@QBE_NXZ
  00081	84 c0		 test	 al, al

; 595  : 		pWeapon->SetGrapplingTargetName( m_GrapplingTargetName );

  00083	74 b8		 je	 SHORT $LN14@ApplyAttri
$LN5@ApplyAttri:

; 596  : 	else if( pWeapon && pWeapon->CheckGrapplingState() == GPT_NO_CHANGE2 && !m_GrapplingTargetName.IsEmpty() )

  00085	8b 06		 mov	 eax, DWORD PTR [esi]
  00087	8b ce		 mov	 ecx, esi
  00089	ff 90 ec 00 00
	00		 call	 DWORD PTR [eax+236]
  0008f	83 f8 08	 cmp	 eax, 8
  00092	75 12		 jne	 SHORT $LN3@ApplyAttri
  00094	8d 9f 68 11 00
	00		 lea	 ebx, DWORD PTR [edi+4456]
  0009a	8b cb		 mov	 ecx, ebx
  0009c	ff 15 00 00 00
	00		 call	 DWORD PTR __imp_?IsEmpty@ioHashString@@QBE_NXZ
  000a2	84 c0		 test	 al, al

; 597  : 		pWeapon->SetGrapplingTargetName( m_GrapplingTargetName );

  000a4	74 97		 je	 SHORT $LN14@ApplyAttri
$LN3@ApplyAttri:

; 598  : 	else if( pWeapon && pWeapon->CheckGrapplingState() == GPT_EXCEPT && !m_GrapplingTargetName.IsEmpty() )

  000a6	8b 06		 mov	 eax, DWORD PTR [esi]
  000a8	8b ce		 mov	 ecx, esi
  000aa	ff 90 ec 00 00
	00		 call	 DWORD PTR [eax+236]
  000b0	83 f8 09	 cmp	 eax, 9
  000b3	75 1a		 jne	 SHORT $LN12@ApplyAttri
  000b5	81 c7 68 11 00
	00		 add	 edi, 4456		; 00001168H
  000bb	8b cf		 mov	 ecx, edi
  000bd	ff 15 00 00 00
	00		 call	 DWORD PTR __imp_?IsEmpty@ioHashString@@QBE_NXZ
  000c3	84 c0		 test	 al, al
  000c5	75 08		 jne	 SHORT $LN12@ApplyAttri

; 599  : 		pWeapon->SetGrapplingTargetName( m_GrapplingTargetName );

  000c7	57		 push	 edi
$LN13@ApplyAttri:
  000c8	8b 06		 mov	 eax, DWORD PTR [esi]
  000ca	8b ce		 mov	 ecx, esi
  000cc	ff 50 3c	 call	 DWORD PTR [eax+60]
$LN12@ApplyAttri:
  000cf	5b		 pop	 ebx
$LN1@ApplyAttri:
  000d0	5f		 pop	 edi
  000d1	5e		 pop	 esi

; 600  : }

  000d2	5d		 pop	 ebp
  000d3	c2 08 00	 ret	 8
?ApplyAttributeToWeapon@ioGrapplingSwing2Skill@@UAEXPAVioWeapon@@PAVioPlayStage@@@Z ENDP ; ioGrapplingSwing2Skill::ApplyAttributeToWeapon
_TEXT	ENDS
PUBLIC	?IsSkillMotionEnd@ioGrapplingSwing2Skill@@UBE_NKPAVioBaseChar@@@Z ; ioGrapplingSwing2Skill::IsSkillMotionEnd
EXTRN	__imp_?GetLoopSec@ioFrameTimer@@QBEKXZ:PROC
EXTRN	__imp_?GetSingleton@ioFrameTimer@@SAAAV1@XZ:PROC
; Function compile flags: /Ogsp
;	COMDAT ?IsSkillMotionEnd@ioGrapplingSwing2Skill@@UBE_NKPAVioBaseChar@@@Z
_TEXT	SEGMENT
_dwActionStop$ = 8					; size = 4
_pOwner$ = 12						; size = 4
?IsSkillMotionEnd@ioGrapplingSwing2Skill@@UBE_NKPAVioBaseChar@@@Z PROC ; ioGrapplingSwing2Skill::IsSkillMotionEnd, COMDAT
; _this$ = ecx

; 667  : {

  00000	55		 push	 ebp
  00001	8b ec		 mov	 ebp, esp
  00003	56		 push	 esi
  00004	8b f1		 mov	 esi, ecx

; 668  : 	DWORD dwCurTime = FRAMEGETTIME();

  00006	ff 15 00 00 00
	00		 call	 DWORD PTR __imp_?GetSingleton@ioFrameTimer@@SAAAV1@XZ
  0000c	8b c8		 mov	 ecx, eax
  0000e	ff 15 00 00 00
	00		 call	 DWORD PTR __imp_?GetLoopSec@ioFrameTimer@@QBEKXZ

; 669  : 
; 670  : 	if( m_dwPreDelayStartTime > 0 )

  00014	83 be 20 02 00
	00 00		 cmp	 DWORD PTR [esi+544], 0

; 671  : 		return false;

  0001b	77 24		 ja	 SHORT $LN4@IsSkillMot

; 672  : 
; 673  : 	switch( m_SkillState )

  0001d	8b 8e e4 10 00
	00		 mov	 ecx, DWORD PTR [esi+4324]
  00023	85 c9		 test	 ecx, ecx
  00025	7e 1a		 jle	 SHORT $LN4@IsSkillMot
  00027	83 f9 03	 cmp	 ecx, 3
  0002a	7e 15		 jle	 SHORT $LN4@IsSkillMot
  0002c	83 f9 05	 cmp	 ecx, 5
  0002f	75 10		 jne	 SHORT $LN4@IsSkillMot

; 674  : 	{
; 675  : 	case SS_LOOP:
; 676  : 	case SS_ACTION:
; 677  : 	case SS_GRAP_LOOP:
; 678  : 		return false;
; 679  : 	case SS_END:
; 680  : 		if( m_dwMotionEndTime + dwActionStop < dwCurTime )

  00031	8b 8e d8 02 00
	00		 mov	 ecx, DWORD PTR [esi+728]
  00037	03 4d 08	 add	 ecx, DWORD PTR _dwActionStop$[ebp]
  0003a	3b c8		 cmp	 ecx, eax
  0003c	0f 92 c0	 setb	 al

; 681  : 		{
; 682  : 			return true;
; 683  : 		}
; 684  : 		return false;

  0003f	eb 02		 jmp	 SHORT $LN7@IsSkillMot
$LN4@IsSkillMot:

; 685  : 	}
; 686  : 
; 687  : 	return false;

  00041	32 c0		 xor	 al, al
$LN7@IsSkillMot:
  00043	5e		 pop	 esi

; 688  : }

  00044	5d		 pop	 ebp
  00045	c2 08 00	 ret	 8
?IsSkillMotionEnd@ioGrapplingSwing2Skill@@UBE_NKPAVioBaseChar@@@Z ENDP ; ioGrapplingSwing2Skill::IsSkillMotionEnd
_TEXT	ENDS
PUBLIC	?CheckUseItemMesh@ioGrapplingSwing2Skill@@UAE_NXZ ; ioGrapplingSwing2Skill::CheckUseItemMesh
; Function compile flags: /Ogsp
;	COMDAT ?CheckUseItemMesh@ioGrapplingSwing2Skill@@UAE_NXZ
_TEXT	SEGMENT
?CheckUseItemMesh@ioGrapplingSwing2Skill@@UAE_NXZ PROC	; ioGrapplingSwing2Skill::CheckUseItemMesh, COMDAT
; _this$ = ecx

; 971  : 	return m_bUseItemMesh;

  00000	8a 81 08 0f 00
	00		 mov	 al, BYTE PTR [ecx+3848]

; 972  : }

  00006	c3		 ret	 0
?CheckUseItemMesh@ioGrapplingSwing2Skill@@UAE_NXZ ENDP	; ioGrapplingSwing2Skill::CheckUseItemMesh
_TEXT	ENDS
PUBLIC	?SetEndState@ioGrapplingSwing2Skill@@IAEXPAVioBaseChar@@@Z ; ioGrapplingSwing2Skill::SetEndState
; Function compile flags: /Ogsp
;	COMDAT ?SetEndState@ioGrapplingSwing2Skill@@IAEXPAVioBaseChar@@@Z
_TEXT	SEGMENT
_pChar$ = 8						; size = 4
?SetEndState@ioGrapplingSwing2Skill@@IAEXPAVioBaseChar@@@Z PROC ; ioGrapplingSwing2Skill::SetEndState, COMDAT
; _this$ = ecx

; 1042 : 	if( m_SkillState == SS_END )	return;

  00000	8d 81 e4 10 00
	00		 lea	 eax, DWORD PTR [ecx+4324]
  00006	6a 05		 push	 5
  00008	59		 pop	 ecx
  00009	39 08		 cmp	 DWORD PTR [eax], ecx
  0000b	74 02		 je	 SHORT $LN2@SetEndStat

; 1043 : 
; 1044 : 	m_SkillState = SS_END;

  0000d	89 08		 mov	 DWORD PTR [eax], ecx
$LN2@SetEndStat:

; 1045 : }

  0000f	c2 04 00	 ret	 4
?SetEndState@ioGrapplingSwing2Skill@@IAEXPAVioBaseChar@@@Z ENDP ; ioGrapplingSwing2Skill::SetEndState
_TEXT	ENDS
PUBLIC	?capacity@?$vector@VioHashString@@V?$allocator@VioHashString@@@std@@@std@@QBEIXZ ; std::vector<ioHashString,std::allocator<ioHashString> >::capacity
; Function compile flags: /Ogsp
; File c:\program files (x86)\microsoft visual studio 10.0\vc\include\vector
;	COMDAT ?capacity@?$vector@VioHashString@@V?$allocator@VioHashString@@@std@@@std@@QBEIXZ
_TEXT	SEGMENT
?capacity@?$vector@VioHashString@@V?$allocator@VioHashString@@@std@@@std@@QBEIXZ PROC ; std::vector<ioHashString,std::allocator<ioHashString> >::capacity, COMDAT
; _this$ = ecx

; 777  : 		return (this->_Myend - this->_Myfirst);

  00000	8b 41 08	 mov	 eax, DWORD PTR [ecx+8]
  00003	2b 01		 sub	 eax, DWORD PTR [ecx]
  00005	c1 f8 04	 sar	 eax, 4

; 778  : 		}

  00008	c3		 ret	 0
?capacity@?$vector@VioHashString@@V?$allocator@VioHashString@@@std@@@std@@QBEIXZ ENDP ; std::vector<ioHashString,std::allocator<ioHashString> >::capacity
_TEXT	ENDS
PUBLIC	?_Inside@?$vector@VioHashString@@V?$allocator@VioHashString@@@std@@@std@@IBE_NPBVioHashString@@@Z ; std::vector<ioHashString,std::allocator<ioHashString> >::_Inside
; Function compile flags: /Ogsp
;	COMDAT ?_Inside@?$vector@VioHashString@@V?$allocator@VioHashString@@@std@@@std@@IBE_NPBVioHashString@@@Z
_TEXT	SEGMENT
__Ptr$ = 8						; size = 4
?_Inside@?$vector@VioHashString@@V?$allocator@VioHashString@@@std@@@std@@IBE_NPBVioHashString@@@Z PROC ; std::vector<ioHashString,std::allocator<ioHashString> >::_Inside, COMDAT
; _this$ = ecx

; 1285 : 		{	// test if _Ptr points inside vector

  00000	55		 push	 ebp
  00001	8b ec		 mov	 ebp, esp

; 1286 : 		return (_Ptr < this->_Mylast && this->_Myfirst <= _Ptr);

  00003	8b 45 08	 mov	 eax, DWORD PTR __Ptr$[ebp]
  00006	3b 41 04	 cmp	 eax, DWORD PTR [ecx+4]
  00009	73 09		 jae	 SHORT $LN3@Inside
  0000b	39 01		 cmp	 DWORD PTR [ecx], eax
  0000d	77 05		 ja	 SHORT $LN3@Inside
  0000f	33 c0		 xor	 eax, eax
  00011	40		 inc	 eax
  00012	eb 02		 jmp	 SHORT $LN4@Inside
$LN3@Inside:
  00014	33 c0		 xor	 eax, eax
$LN4@Inside:

; 1287 : 		}

  00016	5d		 pop	 ebp
  00017	c2 04 00	 ret	 4
?_Inside@?$vector@VioHashString@@V?$allocator@VioHashString@@@std@@@std@@IBE_NPBVioHashString@@@Z ENDP ; std::vector<ioHashString,std::allocator<ioHashString> >::_Inside
_TEXT	ENDS
PUBLIC	?_Orphan_range@?$vector@VioHashString@@V?$allocator@VioHashString@@@std@@@std@@IBEXPAVioHashString@@0@Z ; std::vector<ioHashString,std::allocator<ioHashString> >::_Orphan_range
; Function compile flags: /Ogsp
;	COMDAT ?_Orphan_range@?$vector@VioHashString@@V?$allocator@VioHashString@@@std@@@std@@IBEXPAVioHashString@@0@Z
_TEXT	SEGMENT
___formal$ = 8						; size = 4
___formal$ = 12						; size = 4
?_Orphan_range@?$vector@VioHashString@@V?$allocator@VioHashString@@@std@@@std@@IBEXPAVioHashString@@0@Z PROC ; std::vector<ioHashString,std::allocator<ioHashString> >::_Orphan_range, COMDAT
; _this$ = ecx

; 1454 : 		}

  00000	c2 08 00	 ret	 8
?_Orphan_range@?$vector@VioHashString@@V?$allocator@VioHashString@@@std@@@std@@IBEXPAVioHashString@@0@Z ENDP ; std::vector<ioHashString,std::allocator<ioHashString> >::_Orphan_range
_TEXT	ENDS
PUBLIC	??0D3DXVECTOR3@@QAE@XZ				; D3DXVECTOR3::D3DXVECTOR3
; Function compile flags: /Ogsp
; File c:\program files (x86)\microsoft directx sdk (june 2010)\include\d3dx9math.h
;	COMDAT ??0D3DXVECTOR3@@QAE@XZ
_TEXT	SEGMENT
??0D3DXVECTOR3@@QAE@XZ PROC				; D3DXVECTOR3::D3DXVECTOR3, COMDAT
; _this$ = ecx

; 165  :     D3DXVECTOR3() {};

  00000	8b c1		 mov	 eax, ecx
  00002	c3		 ret	 0
??0D3DXVECTOR3@@QAE@XZ ENDP				; D3DXVECTOR3::D3DXVECTOR3
_TEXT	ENDS
PUBLIC	??0D3DXQUATERNION@@QAE@XZ			; D3DXQUATERNION::D3DXQUATERNION
; Function compile flags: /Ogsp
;	COMDAT ??0D3DXQUATERNION@@QAE@XZ
_TEXT	SEGMENT
??0D3DXQUATERNION@@QAE@XZ PROC				; D3DXQUATERNION::D3DXQUATERNION, COMDAT
; _this$ = ecx

; 429  :     D3DXQUATERNION() {}

  00000	8b c1		 mov	 eax, ecx
  00002	c3		 ret	 0
??0D3DXQUATERNION@@QAE@XZ ENDP				; D3DXQUATERNION::D3DXQUATERNION
_TEXT	ENDS
PUBLIC	??0D3DXVECTOR3@@QAE@MMM@Z			; D3DXVECTOR3::D3DXVECTOR3
; Function compile flags: /Ogsp
; File c:\program files (x86)\microsoft directx sdk (june 2010)\include\d3dx9math.inl
;	COMDAT ??0D3DXVECTOR3@@QAE@MMM@Z
_TEXT	SEGMENT
_fx$ = 8						; size = 4
_fy$ = 12						; size = 4
_fz$ = 16						; size = 4
??0D3DXVECTOR3@@QAE@MMM@Z PROC				; D3DXVECTOR3::D3DXVECTOR3, COMDAT
; _this$ = ecx

; 303  : {

  00000	55		 push	 ebp
  00001	8b ec		 mov	 ebp, esp

; 304  :     x = fx;

  00003	f3 0f 10 45 08	 movss	 xmm0, DWORD PTR _fx$[ebp]
  00008	8b c1		 mov	 eax, ecx
  0000a	f3 0f 11 00	 movss	 DWORD PTR [eax], xmm0

; 305  :     y = fy;

  0000e	f3 0f 10 45 0c	 movss	 xmm0, DWORD PTR _fy$[ebp]
  00013	f3 0f 11 40 04	 movss	 DWORD PTR [eax+4], xmm0

; 306  :     z = fz;

  00018	f3 0f 10 45 10	 movss	 xmm0, DWORD PTR _fz$[ebp]
  0001d	f3 0f 11 40 08	 movss	 DWORD PTR [eax+8], xmm0

; 307  : }

  00022	5d		 pop	 ebp
  00023	c2 0c 00	 ret	 12			; 0000000cH
??0D3DXVECTOR3@@QAE@MMM@Z ENDP				; D3DXVECTOR3::D3DXVECTOR3
_TEXT	ENDS
PUBLIC	??YD3DXVECTOR3@@QAEAAU0@ABU0@@Z			; D3DXVECTOR3::operator+=
; Function compile flags: /Ogsp
;	COMDAT ??YD3DXVECTOR3@@QAEAAU0@ABU0@@Z
_TEXT	SEGMENT
_v$ = 8							; size = 4
??YD3DXVECTOR3@@QAEAAU0@ABU0@@Z PROC			; D3DXVECTOR3::operator+=, COMDAT
; _this$ = ecx

; 327  : {

  00000	55		 push	 ebp
  00001	8b ec		 mov	 ebp, esp
  00003	8b c1		 mov	 eax, ecx

; 328  :     x += v.x;

  00005	8b 4d 08	 mov	 ecx, DWORD PTR _v$[ebp]
  00008	f3 0f 10 01	 movss	 xmm0, DWORD PTR [ecx]
  0000c	f3 0f 10 08	 movss	 xmm1, DWORD PTR [eax]
  00010	0f 5a c0	 cvtps2pd xmm0, xmm0
  00013	0f 5a c9	 cvtps2pd xmm1, xmm1
  00016	f2 0f 58 c1	 addsd	 xmm0, xmm1

; 329  :     y += v.y;

  0001a	f3 0f 10 48 04	 movss	 xmm1, DWORD PTR [eax+4]
  0001f	66 0f 5a c0	 cvtpd2ps xmm0, xmm0
  00023	f3 0f 11 00	 movss	 DWORD PTR [eax], xmm0
  00027	f3 0f 10 41 04	 movss	 xmm0, DWORD PTR [ecx+4]
  0002c	0f 5a c0	 cvtps2pd xmm0, xmm0
  0002f	0f 5a c9	 cvtps2pd xmm1, xmm1
  00032	f2 0f 58 c1	 addsd	 xmm0, xmm1

; 330  :     z += v.z;

  00036	f3 0f 10 48 08	 movss	 xmm1, DWORD PTR [eax+8]
  0003b	66 0f 5a c0	 cvtpd2ps xmm0, xmm0
  0003f	f3 0f 11 40 04	 movss	 DWORD PTR [eax+4], xmm0
  00044	f3 0f 10 41 08	 movss	 xmm0, DWORD PTR [ecx+8]
  00049	0f 5a c0	 cvtps2pd xmm0, xmm0
  0004c	0f 5a c9	 cvtps2pd xmm1, xmm1
  0004f	f2 0f 58 c1	 addsd	 xmm0, xmm1
  00053	66 0f 5a c0	 cvtpd2ps xmm0, xmm0
  00057	f3 0f 11 40 08	 movss	 DWORD PTR [eax+8], xmm0

; 331  :     return *this;
; 332  : }

  0005c	5d		 pop	 ebp
  0005d	c2 04 00	 ret	 4
??YD3DXVECTOR3@@QAEAAU0@ABU0@@Z ENDP			; D3DXVECTOR3::operator+=
_TEXT	ENDS
PUBLIC	__mask@@NegFloat@
PUBLIC	??GD3DXVECTOR3@@QBE?AU0@XZ			; D3DXVECTOR3::operator-
;	COMDAT __mask@@NegFloat@
CONST	SEGMENT
__mask@@NegFloat@ DB 00H, 00H, 00H, 080H, 00H, 00H, 00H, 080H, 00H, 00H, 00H
	DB	080H, 00H, 00H, 00H, 080H
; Function compile flags: /Ogsp
CONST	ENDS
;	COMDAT ??GD3DXVECTOR3@@QBE?AU0@XZ
_TEXT	SEGMENT
___$ReturnUdt$ = 8					; size = 4
??GD3DXVECTOR3@@QBE?AU0@XZ PROC				; D3DXVECTOR3::operator-, COMDAT
; _this$ = ecx

; 372  : {

  00000	55		 push	 ebp
  00001	8b ec		 mov	 ebp, esp

; 373  :     return D3DXVECTOR3(-x, -y, -z);

  00003	f3 0f 10 05 00
	00 00 00	 movss	 xmm0, DWORD PTR __mask@@NegFloat@
  0000b	8b 45 08	 mov	 eax, DWORD PTR ___$ReturnUdt$[ebp]
  0000e	f3 0f 10 09	 movss	 xmm1, DWORD PTR [ecx]
  00012	0f 57 c8	 xorps	 xmm1, xmm0
  00015	f3 0f 11 08	 movss	 DWORD PTR [eax], xmm1
  00019	f3 0f 10 49 04	 movss	 xmm1, DWORD PTR [ecx+4]
  0001e	0f 57 c8	 xorps	 xmm1, xmm0
  00021	f3 0f 11 48 04	 movss	 DWORD PTR [eax+4], xmm1
  00026	f3 0f 10 49 08	 movss	 xmm1, DWORD PTR [ecx+8]
  0002b	0f 57 c8	 xorps	 xmm1, xmm0
  0002e	f3 0f 11 48 08	 movss	 DWORD PTR [eax+8], xmm1

; 374  : }

  00033	5d		 pop	 ebp
  00034	c2 04 00	 ret	 4
??GD3DXVECTOR3@@QBE?AU0@XZ ENDP				; D3DXVECTOR3::operator-
_TEXT	ENDS
PUBLIC	??D@YA?AUD3DXVECTOR3@@MABU0@@Z			; operator*
; Function compile flags: /Ogsp
;	COMDAT ??D@YA?AUD3DXVECTOR3@@MABU0@@Z
_TEXT	SEGMENT
___$ReturnUdt$ = 8					; size = 4
_f$ = 12						; size = 4
_v$ = 16						; size = 4
??D@YA?AUD3DXVECTOR3@@MABU0@@Z PROC			; operator*, COMDAT

; 406  : {

  00000	55		 push	 ebp
  00001	8b ec		 mov	 ebp, esp

; 407  :     return D3DXVECTOR3(f * v.x, f * v.y, f * v.z);

  00003	8b 4d 10	 mov	 ecx, DWORD PTR _v$[ebp]
  00006	f3 0f 10 4d 0c	 movss	 xmm1, DWORD PTR _f$[ebp]
  0000b	f3 0f 10 01	 movss	 xmm0, DWORD PTR [ecx]
  0000f	8b 45 08	 mov	 eax, DWORD PTR ___$ReturnUdt$[ebp]
  00012	0f 5a c0	 cvtps2pd xmm0, xmm0
  00015	0f 5a c9	 cvtps2pd xmm1, xmm1
  00018	f2 0f 59 c1	 mulsd	 xmm0, xmm1
  0001c	f3 0f 10 4d 0c	 movss	 xmm1, DWORD PTR _f$[ebp]
  00021	66 0f 5a c0	 cvtpd2ps xmm0, xmm0
  00025	f3 0f 11 00	 movss	 DWORD PTR [eax], xmm0
  00029	f3 0f 10 41 04	 movss	 xmm0, DWORD PTR [ecx+4]
  0002e	0f 5a c0	 cvtps2pd xmm0, xmm0
  00031	0f 5a c9	 cvtps2pd xmm1, xmm1
  00034	f2 0f 59 c1	 mulsd	 xmm0, xmm1
  00038	f3 0f 10 4d 0c	 movss	 xmm1, DWORD PTR _f$[ebp]
  0003d	66 0f 5a c0	 cvtpd2ps xmm0, xmm0
  00041	f3 0f 11 40 04	 movss	 DWORD PTR [eax+4], xmm0
  00046	f3 0f 10 41 08	 movss	 xmm0, DWORD PTR [ecx+8]
  0004b	0f 5a c0	 cvtps2pd xmm0, xmm0
  0004e	0f 5a c9	 cvtps2pd xmm1, xmm1
  00051	f2 0f 59 c1	 mulsd	 xmm0, xmm1
  00055	66 0f 5a c0	 cvtpd2ps xmm0, xmm0
  00059	f3 0f 11 40 08	 movss	 DWORD PTR [eax+8], xmm0

; 408  : }

  0005e	5d		 pop	 ebp
  0005f	c3		 ret	 0
??D@YA?AUD3DXVECTOR3@@MABU0@@Z ENDP			; operator*
_TEXT	ENDS
PUBLIC	??8D3DXVECTOR3@@QBEHABU0@@Z			; D3DXVECTOR3::operator==
; Function compile flags: /Ogsp
;	COMDAT ??8D3DXVECTOR3@@QBEHABU0@@Z
_TEXT	SEGMENT
_v$ = 8							; size = 4
??8D3DXVECTOR3@@QBEHABU0@@Z PROC			; D3DXVECTOR3::operator==, COMDAT
; _this$ = ecx

; 413  : {

  00000	55		 push	 ebp
  00001	8b ec		 mov	 ebp, esp

; 414  :     return x == v.x && y == v.y && z == v.z;

  00003	8b 55 08	 mov	 edx, DWORD PTR _v$[ebp]
  00006	f3 0f 10 01	 movss	 xmm0, DWORD PTR [ecx]
  0000a	f3 0f 10 0a	 movss	 xmm1, DWORD PTR [edx]
  0000e	0f 5a c0	 cvtps2pd xmm0, xmm0
  00011	0f 5a c9	 cvtps2pd xmm1, xmm1
  00014	66 0f 2e c1	 ucomisd xmm0, xmm1
  00018	9f		 lahf
  00019	f6 c4 44	 test	 ah, 68			; 00000044H
  0001c	7a 39		 jp	 SHORT $LN3@operator
  0001e	f3 0f 10 41 04	 movss	 xmm0, DWORD PTR [ecx+4]
  00023	f3 0f 10 4a 04	 movss	 xmm1, DWORD PTR [edx+4]
  00028	0f 5a c0	 cvtps2pd xmm0, xmm0
  0002b	0f 5a c9	 cvtps2pd xmm1, xmm1
  0002e	66 0f 2e c1	 ucomisd xmm0, xmm1
  00032	9f		 lahf
  00033	f6 c4 44	 test	 ah, 68			; 00000044H
  00036	7a 1f		 jp	 SHORT $LN3@operator
  00038	f3 0f 10 41 08	 movss	 xmm0, DWORD PTR [ecx+8]
  0003d	f3 0f 10 4a 08	 movss	 xmm1, DWORD PTR [edx+8]
  00042	0f 5a c0	 cvtps2pd xmm0, xmm0
  00045	0f 5a c9	 cvtps2pd xmm1, xmm1
  00048	66 0f 2e c1	 ucomisd xmm0, xmm1
  0004c	9f		 lahf
  0004d	f6 c4 44	 test	 ah, 68			; 00000044H
  00050	7a 05		 jp	 SHORT $LN3@operator
  00052	33 c0		 xor	 eax, eax
  00054	40		 inc	 eax
  00055	eb 02		 jmp	 SHORT $LN4@operator
$LN3@operator:
  00057	33 c0		 xor	 eax, eax
$LN4@operator:

; 415  : }

  00059	5d		 pop	 ebp
  0005a	c2 04 00	 ret	 4
??8D3DXVECTOR3@@QBEHABU0@@Z ENDP			; D3DXVECTOR3::operator==
_TEXT	ENDS
PUBLIC	?D3DXVec3Dot@@YAMPBUD3DXVECTOR3@@0@Z		; D3DXVec3Dot
; Function compile flags: /Ogsp
;	COMDAT ?D3DXVec3Dot@@YAMPBUD3DXVECTOR3@@0@Z
_TEXT	SEGMENT
tv188 = 8						; size = 4
_pV1$ = 8						; size = 4
_pV2$ = 12						; size = 4
?D3DXVec3Dot@@YAMPBUD3DXVECTOR3@@0@Z PROC		; D3DXVec3Dot, COMDAT

; 1736 : {

  00000	55		 push	 ebp
  00001	8b ec		 mov	 ebp, esp

; 1737 : #ifdef D3DX_DEBUG
; 1738 :     if(!pV1 || !pV2)
; 1739 :         return 0.0f;
; 1740 : #endif
; 1741 : 
; 1742 :     return pV1->x * pV2->x + pV1->y * pV2->y + pV1->z * pV2->z;

  00003	8b 45 08	 mov	 eax, DWORD PTR _pV1$[ebp]
  00006	8b 4d 0c	 mov	 ecx, DWORD PTR _pV2$[ebp]
  00009	d9 40 04	 fld	 DWORD PTR [eax+4]
  0000c	d8 49 04	 fmul	 DWORD PTR [ecx+4]
  0000f	d9 00		 fld	 DWORD PTR [eax]
  00011	d8 09		 fmul	 DWORD PTR [ecx]
  00013	de c1		 faddp	 ST(1), ST(0)
  00015	d9 40 08	 fld	 DWORD PTR [eax+8]
  00018	d8 49 08	 fmul	 DWORD PTR [ecx+8]
  0001b	de c1		 faddp	 ST(1), ST(0)
  0001d	d9 5d 08	 fstp	 DWORD PTR tv188[ebp]
  00020	d9 45 08	 fld	 DWORD PTR tv188[ebp]

; 1743 : }

  00023	5d		 pop	 ebp
  00024	c3		 ret	 0
?D3DXVec3Dot@@YAMPBUD3DXVECTOR3@@0@Z ENDP		; D3DXVec3Dot
_TEXT	ENDS
PUBLIC	?D3DXVec3Cross@@YAPAUD3DXVECTOR3@@PAU1@PBU1@1@Z	; D3DXVec3Cross
; Function compile flags: /Ogsp
;	COMDAT ?D3DXVec3Cross@@YAPAUD3DXVECTOR3@@PAU1@PBU1@1@Z
_TEXT	SEGMENT
_v$ = -12						; size = 12
_pOut$ = 8						; size = 4
_pV1$ = 12						; size = 4
_pV2$ = 16						; size = 4
?D3DXVec3Cross@@YAPAUD3DXVECTOR3@@PAU1@PBU1@1@Z PROC	; D3DXVec3Cross, COMDAT

; 1747 : {

  00000	55		 push	 ebp
  00001	8b ec		 mov	 ebp, esp
  00003	83 ec 0c	 sub	 esp, 12			; 0000000cH

; 1757 :     v.z = pV1->x * pV2->y - pV1->y * pV2->x;
; 1758 : 
; 1759 :     *pOut = v;

  00006	56		 push	 esi
  00007	57		 push	 edi

; 1748 :     D3DXVECTOR3 v;
; 1749 : 
; 1750 : #ifdef D3DX_DEBUG
; 1751 :     if(!pOut || !pV1 || !pV2)
; 1752 :         return NULL;
; 1753 : #endif
; 1754 : 
; 1755 :     v.x = pV1->y * pV2->z - pV1->z * pV2->y;

  00008	8b 45 0c	 mov	 eax, DWORD PTR _pV1$[ebp]
  0000b	f3 0f 10 40 04	 movss	 xmm0, DWORD PTR [eax+4]
  00010	f3 0f 10 50 08	 movss	 xmm2, DWORD PTR [eax+8]
  00015	8b 4d 10	 mov	 ecx, DWORD PTR _pV2$[ebp]
  00018	f3 0f 10 49 08	 movss	 xmm1, DWORD PTR [ecx+8]
  0001d	f3 0f 10 59 04	 movss	 xmm3, DWORD PTR [ecx+4]
  00022	0f 5a e8	 cvtps2pd xmm5, xmm0
  00025	0f 5a e1	 cvtps2pd xmm4, xmm1
  00028	0f 5a f2	 cvtps2pd xmm6, xmm2
  0002b	f2 0f 59 e5	 mulsd	 xmm4, xmm5

; 1756 :     v.y = pV1->z * pV2->x - pV1->x * pV2->z;

  0002f	0f 5a d2	 cvtps2pd xmm2, xmm2
  00032	0f 5a c9	 cvtps2pd xmm1, xmm1
  00035	0f 5a eb	 cvtps2pd xmm5, xmm3
  00038	f2 0f 59 ee	 mulsd	 xmm5, xmm6
  0003c	f2 0f 5c e5	 subsd	 xmm4, xmm5
  00040	f3 0f 10 28	 movss	 xmm5, DWORD PTR [eax]

; 1757 :     v.z = pV1->x * pV2->y - pV1->y * pV2->x;
; 1758 : 
; 1759 :     *pOut = v;

  00044	8b 45 08	 mov	 eax, DWORD PTR _pOut$[ebp]
  00047	66 0f 5a e4	 cvtpd2ps xmm4, xmm4
  0004b	f3 0f 11 65 f4	 movss	 DWORD PTR _v$[ebp], xmm4
  00050	f3 0f 10 21	 movss	 xmm4, DWORD PTR [ecx]
  00054	0f 5a f4	 cvtps2pd xmm6, xmm4
  00057	f2 0f 59 f2	 mulsd	 xmm6, xmm2
  0005b	0f 5a d5	 cvtps2pd xmm2, xmm5
  0005e	f2 0f 59 d1	 mulsd	 xmm2, xmm1
  00062	f2 0f 5c f2	 subsd	 xmm6, xmm2
  00066	66 0f 5a ce	 cvtpd2ps xmm1, xmm6
  0006a	f3 0f 11 4d f8	 movss	 DWORD PTR _v$[ebp+4], xmm1
  0006f	0f 5a c0	 cvtps2pd xmm0, xmm0
  00072	0f 5a d3	 cvtps2pd xmm2, xmm3
  00075	0f 5a cd	 cvtps2pd xmm1, xmm5
  00078	f2 0f 59 ca	 mulsd	 xmm1, xmm2
  0007c	8d 75 f4	 lea	 esi, DWORD PTR _v$[ebp]
  0007f	8b f8		 mov	 edi, eax
  00081	0f 5a d4	 cvtps2pd xmm2, xmm4
  00084	f2 0f 59 d0	 mulsd	 xmm2, xmm0
  00088	f2 0f 5c ca	 subsd	 xmm1, xmm2
  0008c	66 0f 5a c1	 cvtpd2ps xmm0, xmm1
  00090	f3 0f 11 45 fc	 movss	 DWORD PTR _v$[ebp+8], xmm0
  00095	a5		 movsd
  00096	a5		 movsd
  00097	a5		 movsd
  00098	5f		 pop	 edi
  00099	5e		 pop	 esi

; 1760 :     return pOut;
; 1761 : }

  0009a	c9		 leave
  0009b	c3		 ret	 0
?D3DXVec3Cross@@YAPAUD3DXVECTOR3@@PAU1@PBU1@1@Z ENDP	; D3DXVec3Cross
_TEXT	ENDS
PUBLIC	__real@3f91df46a2526c7a
PUBLIC	??$DEGtoRAD@M@@YAMM@Z				; DEGtoRAD<float>
;	COMDAT __real@3f91df46a2526c7a
; File d:\lost saga for developer\youtube\tutorial\source\src\lsclient\veryoftenusedefine.h
CONST	SEGMENT
__real@3f91df46a2526c7a DQ 03f91df46a2526c7ar	; 0.0174533
; Function compile flags: /Ogsp
CONST	ENDS
;	COMDAT ??$DEGtoRAD@M@@YAMM@Z
_TEXT	SEGMENT
tv129 = 8						; size = 4
_val$ = 8						; size = 4
??$DEGtoRAD@M@@YAMM@Z PROC				; DEGtoRAD<float>, COMDAT

; 20   : type  DEGtoRAD (type val) {return (type) (val * 0.0174532925199);}

  00000	55		 push	 ebp
  00001	8b ec		 mov	 ebp, esp
  00003	d9 45 08	 fld	 DWORD PTR _val$[ebp]
  00006	dc 0d 00 00 00
	00		 fmul	 QWORD PTR __real@3f91df46a2526c7a
  0000c	d9 5d 08	 fstp	 DWORD PTR tv129[ebp]
  0000f	d9 45 08	 fld	 DWORD PTR tv129[ebp]
  00012	5d		 pop	 ebp
  00013	c3		 ret	 0
??$DEGtoRAD@M@@YAMM@Z ENDP				; DEGtoRAD<float>
_TEXT	ENDS
PUBLIC	??$addressof@$$CBVioHashString@@@std@@YAPBVioHashString@@ABV1@@Z ; std::addressof<ioHashString const >
; Function compile flags: /Ogsp
; File c:\program files (x86)\microsoft visual studio 10.0\vc\include\xmemory
;	COMDAT ??$addressof@$$CBVioHashString@@@std@@YAPBVioHashString@@ABV1@@Z
_TEXT	SEGMENT
__Val$ = 8						; size = 4
??$addressof@$$CBVioHashString@@@std@@YAPBVioHashString@@ABV1@@Z PROC ; std::addressof<ioHashString const >, COMDAT

; 110  : 	{	// return address of _Val

  00000	55		 push	 ebp
  00001	8b ec		 mov	 ebp, esp

; 111  : 	return ((_Ty *) &(char&)_Val);

  00003	8b 45 08	 mov	 eax, DWORD PTR __Val$[ebp]

; 112  : 	}

  00006	5d		 pop	 ebp
  00007	c3		 ret	 0
??$addressof@$$CBVioHashString@@@std@@YAPBVioHashString@@ABV1@@Z ENDP ; std::addressof<ioHashString const >
_TEXT	ENDS
PUBLIC	??$_Copy_impl@PAVioHashString@@PAV1@@std@@YAPAVioHashString@@PAV1@00U_Nonscalar_ptr_iterator_tag@0@@Z ; std::_Copy_impl<ioHashString *,ioHashString *>
EXTRN	__imp_??4ioHashString@@QAEAAV0@ABV0@@Z:PROC
; Function compile flags: /Ogsp
; File c:\program files (x86)\microsoft visual studio 10.0\vc\include\xutility
;	COMDAT ??$_Copy_impl@PAVioHashString@@PAV1@@std@@YAPAVioHashString@@PAV1@00U_Nonscalar_ptr_iterator_tag@0@@Z
_TEXT	SEGMENT
__First$ = 8						; size = 4
__Last$ = 12						; size = 4
__Dest$ = 16						; size = 4
___formal$ = 20						; size = 1
??$_Copy_impl@PAVioHashString@@PAV1@@std@@YAPAVioHashString@@PAV1@00U_Nonscalar_ptr_iterator_tag@0@@Z PROC ; std::_Copy_impl<ioHashString *,ioHashString *>, COMDAT

; 2142 : 	{	// copy [_First, _Last) to [_Dest, ...), arbitrary iterators

  00000	55		 push	 ebp
  00001	8b ec		 mov	 ebp, esp
  00003	56		 push	 esi

; 2143 : 	for (; _First != _Last; ++_Dest, ++_First)

  00004	8b 75 08	 mov	 esi, DWORD PTR __First$[ebp]
  00007	eb 11		 jmp	 SHORT $LN9@Copy_impl
$LL3@Copy_impl:

; 2144 : 		*_Dest = *_First;

  00009	8b 4d 10	 mov	 ecx, DWORD PTR __Dest$[ebp]
  0000c	56		 push	 esi
  0000d	ff 15 00 00 00
	00		 call	 DWORD PTR __imp_??4ioHashString@@QAEAAV0@ABV0@@Z
  00013	83 45 10 10	 add	 DWORD PTR __Dest$[ebp], 16 ; 00000010H
  00017	83 c6 10	 add	 esi, 16			; 00000010H
$LN9@Copy_impl:

; 2143 : 	for (; _First != _Last; ++_Dest, ++_First)

  0001a	3b 75 0c	 cmp	 esi, DWORD PTR __Last$[ebp]
  0001d	75 ea		 jne	 SHORT $LL3@Copy_impl

; 2145 : 	return (_Dest);

  0001f	8b 45 10	 mov	 eax, DWORD PTR __Dest$[ebp]
  00022	5e		 pop	 esi

; 2146 : 	}

  00023	5d		 pop	 ebp
  00024	c3		 ret	 0
??$_Copy_impl@PAVioHashString@@PAV1@@std@@YAPAVioHashString@@PAV1@00U_Nonscalar_ptr_iterator_tag@0@@Z ENDP ; std::_Copy_impl<ioHashString *,ioHashString *>
_TEXT	ENDS
PUBLIC	??$_Val_type@PAVioHashString@@@std@@YAPAVioHashString@@PAV1@@Z ; std::_Val_type<ioHashString *>
; Function compile flags: /Ogsp
;	COMDAT ??$_Val_type@PAVioHashString@@@std@@YAPAVioHashString@@PAV1@@Z
_TEXT	SEGMENT
___formal$ = 8						; size = 4
??$_Val_type@PAVioHashString@@@std@@YAPAVioHashString@@PAV1@@Z PROC ; std::_Val_type<ioHashString *>, COMDAT

; 790  : 	return (0);

  00000	33 c0		 xor	 eax, eax

; 791  : 	}

  00002	c3		 ret	 0
??$_Val_type@PAVioHashString@@@std@@YAPAVioHashString@@PAV1@@Z ENDP ; std::_Val_type<ioHashString *>
_TEXT	ENDS
PUBLIC	??$forward@VioHashString@@@std@@YA$$QAVioHashString@@AAV1@@Z ; std::forward<ioHashString>
; Function compile flags: /Ogsp
; File c:\program files (x86)\microsoft visual studio 10.0\vc\include\utility
;	COMDAT ??$forward@VioHashString@@@std@@YA$$QAVioHashString@@AAV1@@Z
_TEXT	SEGMENT
__Arg$ = 8						; size = 4
??$forward@VioHashString@@@std@@YA$$QAVioHashString@@AAV1@@Z PROC ; std::forward<ioHashString>, COMDAT

; 78   : 	{	// forward _Arg, given explicitly specified type parameter

  00000	55		 push	 ebp
  00001	8b ec		 mov	 ebp, esp

; 79   : 	return ((_Ty&&)_Arg);

  00003	8b 45 08	 mov	 eax, DWORD PTR __Arg$[ebp]

; 80   : 	}

  00006	5d		 pop	 ebp
  00007	c3		 ret	 0
??$forward@VioHashString@@@std@@YA$$QAVioHashString@@AAV1@@Z ENDP ; std::forward<ioHashString>
_TEXT	ENDS
PUBLIC	?_DECSTR@@YAXPADH@Z				; _DECSTR
; Function compile flags: /Ogsp
; File d:\lost saga for developer\youtube\tutorial\source\src\lsclient\stringprotect.h
;	COMDAT ?_DECSTR@@YAXPADH@Z
_TEXT	SEGMENT
_s$ = 8							; size = 4
_l$ = 12						; size = 4
?_DECSTR@@YAXPADH@Z PROC				; _DECSTR, COMDAT

; 40   : __forceinline void _DECSTR(char* s, int l){int i=0,l4=(l-1)/4,*p=(int*)s;s[l-1]=0;for(;i<l4;++i)*(p++)^=0xEAEBECED;for(i=l4*4;i<l-1;++i)s[i]^=0xED-i%4;}

  00000	55		 push	 ebp
  00001	8b ec		 mov	 ebp, esp
  00003	8b 4d 0c	 mov	 ecx, DWORD PTR _l$[ebp]
  00006	56		 push	 esi
  00007	8b 75 08	 mov	 esi, DWORD PTR _s$[ebp]
  0000a	57		 push	 edi
  0000b	8d 79 ff	 lea	 edi, DWORD PTR [ecx-1]
  0000e	8b c7		 mov	 eax, edi
  00010	99		 cdq
  00011	83 e2 03	 and	 edx, 3
  00014	03 c2		 add	 eax, edx
  00016	c1 f8 02	 sar	 eax, 2
  00019	8b d6		 mov	 edx, esi
  0001b	c6 44 0e ff 00	 mov	 BYTE PTR [esi+ecx-1], 0
  00020	85 c0		 test	 eax, eax
  00022	7e 0e		 jle	 SHORT $LN4@DECSTR
  00024	8b c8		 mov	 ecx, eax
$LL6@DECSTR:
  00026	81 32 ed ec eb
	ea		 xor	 DWORD PTR [edx], -353637139 ; eaebecedH
  0002c	83 c2 04	 add	 edx, 4
  0002f	49		 dec	 ecx
  00030	75 f4		 jne	 SHORT $LL6@DECSTR
$LN4@DECSTR:
  00032	c1 e0 02	 shl	 eax, 2
  00035	eb 17		 jmp	 SHORT $LN14@DECSTR
$LL3@DECSTR:
  00037	8b c8		 mov	 ecx, eax
  00039	81 e1 03 00 00
	80		 and	 ecx, -2147483645	; 80000003H
  0003f	79 05		 jns	 SHORT $LN13@DECSTR
  00041	49		 dec	 ecx
  00042	83 c9 fc	 or	 ecx, -4			; fffffffcH
  00045	41		 inc	 ecx
$LN13@DECSTR:
  00046	b2 ed		 mov	 dl, -19			; ffffffedH
  00048	2a d1		 sub	 dl, cl
  0004a	30 14 30	 xor	 BYTE PTR [eax+esi], dl
  0004d	40		 inc	 eax
$LN14@DECSTR:
  0004e	3b c7		 cmp	 eax, edi
  00050	7c e5		 jl	 SHORT $LL3@DECSTR
  00052	5f		 pop	 edi
  00053	5e		 pop	 esi
  00054	5d		 pop	 ebp
  00055	c3		 ret	 0
?_DECSTR@@YAXPADH@Z ENDP				; _DECSTR
_TEXT	ENDS
PUBLIC	?return57@@YAIXZ				; return57
; Function compile flags: /Ogsp
; File d:\lost saga for developer\youtube\tutorial\source\src\lsclient\veryoftenusedefine.h
;	COMDAT ?return57@@YAIXZ
_TEXT	SEGMENT
?return57@@YAIXZ PROC					; return57, COMDAT

; 15   : __forceinline unsigned int return57() { __asm mov eax, 57 };

  00000	b8 39 00 00 00	 mov	 eax, 57			; 00000039H
  00005	c3		 ret	 0
?return57@@YAIXZ ENDP					; return57
_TEXT	ENDS
PUBLIC	?GetGroup@ioGameEntity@@QBEPAVioEntityGroup@@XZ	; ioGameEntity::GetGroup
; Function compile flags: /Ogsp
; File d:\lost saga for developer\youtube\tutorial\source\src\lsclient\iogameentity.h
;	COMDAT ?GetGroup@ioGameEntity@@QBEPAVioEntityGroup@@XZ
_TEXT	SEGMENT
?GetGroup@ioGameEntity@@QBEPAVioEntityGroup@@XZ PROC	; ioGameEntity::GetGroup, COMDAT
; _this$ = ecx

; 166  : 	inline ioEntityGroup* GetGroup() const { return m_pGroup; }

  00000	8b 41 04	 mov	 eax, DWORD PTR [ecx+4]
  00003	c3		 ret	 0
?GetGroup@ioGameEntity@@QBEPAVioEntityGroup@@XZ ENDP	; ioGameEntity::GetGroup
_TEXT	ENDS
PUBLIC	??_R0?AVioGameEntity@@@8			; ioGameEntity `RTTI Type Descriptor'
PUBLIC	??_R0?AVioPlayEntity@@@8			; ioPlayEntity `RTTI Type Descriptor'
PUBLIC	?ToPlayEntity@@YAPAVioPlayEntity@@PAVioGameEntity@@@Z ; ToPlayEntity
;	COMDAT ??_R0?AVioGameEntity@@@8
; File d:\lost saga for developer\youtube\tutorial\source\src\lsclient\ioplayentity.h
_DATA	SEGMENT
??_R0?AVioGameEntity@@@8 DD FLAT:??_7type_info@@6B@	; ioGameEntity `RTTI Type Descriptor'
	DD	00H
	DB	'.?AVioGameEntity@@', 00H
_DATA	ENDS
;	COMDAT ??_R0?AVioPlayEntity@@@8
_DATA	SEGMENT
??_R0?AVioPlayEntity@@@8 DD FLAT:??_7type_info@@6B@	; ioPlayEntity `RTTI Type Descriptor'
	DD	00H
	DB	'.?AVioPlayEntity@@', 00H
; Function compile flags: /Ogsp
_DATA	ENDS
;	COMDAT ?ToPlayEntity@@YAPAVioPlayEntity@@PAVioGameEntity@@@Z
_TEXT	SEGMENT
_pObj$ = 8						; size = 4
?ToPlayEntity@@YAPAVioPlayEntity@@PAVioGameEntity@@@Z PROC ; ToPlayEntity, COMDAT

; 121  : {

  00000	55		 push	 ebp
  00001	8b ec		 mov	 ebp, esp
  00003	56		 push	 esi

; 122  : 	if( !pObj || pObj->GetTypeID() != ioGameEntity::GET_PLAY_ENTITY )

  00004	8b 75 08	 mov	 esi, DWORD PTR _pObj$[ebp]
  00007	85 f6		 test	 esi, esi
  00009	74 25		 je	 SHORT $LN1@ToPlayEnti
  0000b	8b 06		 mov	 eax, DWORD PTR [esi]
  0000d	8b ce		 mov	 ecx, esi
  0000f	ff 50 10	 call	 DWORD PTR [eax+16]
  00012	83 f8 01	 cmp	 eax, 1
  00015	75 19		 jne	 SHORT $LN1@ToPlayEnti

; 124  : 
; 125  : 	return dynamic_cast< ioPlayEntity* >( pObj );

  00017	6a 00		 push	 0
  00019	68 00 00 00 00	 push	 OFFSET ??_R0?AVioPlayEntity@@@8
  0001e	68 00 00 00 00	 push	 OFFSET ??_R0?AVioGameEntity@@@8
  00023	6a 00		 push	 0
  00025	56		 push	 esi
  00026	e8 00 00 00 00	 call	 ___RTDynamicCast
  0002b	83 c4 14	 add	 esp, 20			; 00000014H
  0002e	eb 02		 jmp	 SHORT $LN3@ToPlayEnti
$LN1@ToPlayEnti:

; 123  : 		return NULL;

  00030	33 c0		 xor	 eax, eax
$LN3@ToPlayEnti:
  00032	5e		 pop	 esi

; 126  : }

  00033	5d		 pop	 ebp
  00034	c3		 ret	 0
?ToPlayEntity@@YAPAVioPlayEntity@@PAVioGameEntity@@@Z ENDP ; ToPlayEntity
_TEXT	ENDS
PUBLIC	?GetGrapplingCheckDelay@ioApplication@@QBEKXZ	; ioApplication::GetGrapplingCheckDelay
; Function compile flags: /Ogsp
; File d:\lost saga for developer\youtube\tutorial\source\src\lsclient\ioapplication.h
;	COMDAT ?GetGrapplingCheckDelay@ioApplication@@QBEKXZ
_TEXT	SEGMENT
?GetGrapplingCheckDelay@ioApplication@@QBEKXZ PROC	; ioApplication::GetGrapplingCheckDelay, COMDAT
; _this$ = ecx

; 944  : 	inline DWORD GetGrapplingCheckDelay() const { return m_dwGrapplingCheckDelay; }

  00000	8b 81 1c 06 00
	00		 mov	 eax, DWORD PTR [ecx+1564]
  00006	c3		 ret	 0
?GetGrapplingCheckDelay@ioApplication@@QBEKXZ ENDP	; ioApplication::GetGrapplingCheckDelay
_TEXT	ENDS
PUBLIC	?GetOwnerItem@ioSkill@@QBEPAVioItem@@XZ		; ioSkill::GetOwnerItem
; Function compile flags: /Ogsp
; File d:\lost saga for developer\youtube\tutorial\source\src\lsclient\ioskill.h
;	COMDAT ?GetOwnerItem@ioSkill@@QBEPAVioItem@@XZ
_TEXT	SEGMENT
?GetOwnerItem@ioSkill@@QBEPAVioItem@@XZ PROC		; ioSkill::GetOwnerItem, COMDAT
; _this$ = ecx

; 397  : 	inline ioItem *GetOwnerItem() const { return m_pOwnerItem; }

  00000	8b 81 a4 02 00
	00		 mov	 eax, DWORD PTR [ecx+676]
  00006	c3		 ret	 0
?GetOwnerItem@ioSkill@@QBEPAVioItem@@XZ ENDP		; ioSkill::GetOwnerItem
_TEXT	ENDS
PUBLIC	?GetName@ioSkill@@QBEABVioHashString@@XZ	; ioSkill::GetName
; Function compile flags: /Ogsp
;	COMDAT ?GetName@ioSkill@@QBEABVioHashString@@XZ
_TEXT	SEGMENT
?GetName@ioSkill@@QBEABVioHashString@@XZ PROC		; ioSkill::GetName, COMDAT
; _this$ = ecx

; 414  : 	inline const ioHashString& GetName() const { return m_Name; }

  00000	8d 41 24	 lea	 eax, DWORD PTR [ecx+36]
  00003	c3		 ret	 0
?GetName@ioSkill@@QBEABVioHashString@@XZ ENDP		; ioSkill::GetName
_TEXT	ENDS
PUBLIC	?size@?$vector@VioHashString@@V?$allocator@VioHashString@@@std@@@std@@QBEIXZ ; std::vector<ioHashString,std::allocator<ioHashString> >::size
; Function compile flags: /Ogsp
; File c:\program files (x86)\microsoft visual studio 10.0\vc\include\vector
;	COMDAT ?size@?$vector@VioHashString@@V?$allocator@VioHashString@@@std@@@std@@QBEIXZ
_TEXT	SEGMENT
?size@?$vector@VioHashString@@V?$allocator@VioHashString@@@std@@@std@@QBEIXZ PROC ; std::vector<ioHashString,std::allocator<ioHashString> >::size, COMDAT
; _this$ = ecx

; 879  : 		return (this->_Mylast - this->_Myfirst);

  00000	8b 41 04	 mov	 eax, DWORD PTR [ecx+4]
  00003	2b 01		 sub	 eax, DWORD PTR [ecx]
  00005	c1 f8 04	 sar	 eax, 4

; 880  : 		}

  00008	c3		 ret	 0
?size@?$vector@VioHashString@@V?$allocator@VioHashString@@@std@@@std@@QBEIXZ ENDP ; std::vector<ioHashString,std::allocator<ioHashString> >::size
_TEXT	ENDS
PUBLIC	??_7?$CEncrypt@M@@6B@				; CEncrypt<float>::`vftable'
PUBLIC	??1?$CEncrypt@M@@UAE@XZ				; CEncrypt<float>::~CEncrypt<float>
PUBLIC	??_R4?$CEncrypt@M@@6B@				; CEncrypt<float>::`RTTI Complete Object Locator'
PUBLIC	??_R0?AV?$CEncrypt@M@@@8			; CEncrypt<float> `RTTI Type Descriptor'
PUBLIC	??_R3?$CEncrypt@M@@8				; CEncrypt<float>::`RTTI Class Hierarchy Descriptor'
PUBLIC	??_R2?$CEncrypt@M@@8				; CEncrypt<float>::`RTTI Base Class Array'
PUBLIC	??_R1A@?0A@EA@?$CEncrypt@M@@8			; CEncrypt<float>::`RTTI Base Class Descriptor at (0,-1,0,64)'
EXTRN	??1ccddaabb@@UAE@XZ:PROC			; ccddaabb::~ccddaabb
EXTRN	??_E?$CEncrypt@M@@UAEPAXI@Z:PROC		; CEncrypt<float>::`vector deleting destructor'
;	COMDAT ??_R1A@?0A@EA@?$CEncrypt@M@@8
; File d:\lost saga for developer\youtube\tutorial\source\src\lsclient\encryptvalue.h
rdata$r	SEGMENT
??_R1A@?0A@EA@?$CEncrypt@M@@8 DD FLAT:??_R0?AV?$CEncrypt@M@@@8 ; CEncrypt<float>::`RTTI Base Class Descriptor at (0,-1,0,64)'
	DD	00H
	DD	00H
	DD	0ffffffffH
	DD	00H
	DD	040H
	DD	FLAT:??_R3?$CEncrypt@M@@8
rdata$r	ENDS
;	COMDAT ??_R2?$CEncrypt@M@@8
rdata$r	SEGMENT
??_R2?$CEncrypt@M@@8 DD FLAT:??_R1A@?0A@EA@?$CEncrypt@M@@8 ; CEncrypt<float>::`RTTI Base Class Array'
rdata$r	ENDS
;	COMDAT ??_R3?$CEncrypt@M@@8
rdata$r	SEGMENT
??_R3?$CEncrypt@M@@8 DD 00H				; CEncrypt<float>::`RTTI Class Hierarchy Descriptor'
	DD	00H
	DD	01H
	DD	FLAT:??_R2?$CEncrypt@M@@8
rdata$r	ENDS
;	COMDAT ??_R0?AV?$CEncrypt@M@@@8
_DATA	SEGMENT
??_R0?AV?$CEncrypt@M@@@8 DD FLAT:??_7type_info@@6B@	; CEncrypt<float> `RTTI Type Descriptor'
	DD	00H
	DB	'.?AV?$CEncrypt@M@@', 00H
_DATA	ENDS
;	COMDAT ??_R4?$CEncrypt@M@@6B@
rdata$r	SEGMENT
??_R4?$CEncrypt@M@@6B@ DD 00H				; CEncrypt<float>::`RTTI Complete Object Locator'
	DD	00H
	DD	00H
	DD	FLAT:??_R0?AV?$CEncrypt@M@@@8
	DD	FLAT:??_R3?$CEncrypt@M@@8
rdata$r	ENDS
;	COMDAT ??_7?$CEncrypt@M@@6B@
CONST	SEGMENT
??_7?$CEncrypt@M@@6B@ DD FLAT:??_R4?$CEncrypt@M@@6B@	; CEncrypt<float>::`vftable'
	DD	FLAT:??_E?$CEncrypt@M@@UAEPAXI@Z
; Function compile flags: /Ogsp
CONST	ENDS
;	COMDAT ??1?$CEncrypt@M@@UAE@XZ
_TEXT	SEGMENT
??1?$CEncrypt@M@@UAE@XZ PROC				; CEncrypt<float>::~CEncrypt<float>, COMDAT
; _this$ = ecx

; 127  : 	{

  00000	c7 01 00 00 00
	00		 mov	 DWORD PTR [ecx], OFFSET ??_7?$CEncrypt@M@@6B@

; 128  : 	}

  00006	83 c1 0c	 add	 ecx, 12			; 0000000cH
  00009	e9 00 00 00 00	 jmp	 ??1ccddaabb@@UAE@XZ	; ccddaabb::~ccddaabb
??1?$CEncrypt@M@@UAE@XZ ENDP				; CEncrypt<float>::~CEncrypt<float>
_TEXT	ENDS
PUBLIC	??_7?$CEncrypt@K@@6B@				; CEncrypt<unsigned long>::`vftable'
PUBLIC	??1?$CEncrypt@K@@UAE@XZ				; CEncrypt<unsigned long>::~CEncrypt<unsigned long>
PUBLIC	??_R4?$CEncrypt@K@@6B@				; CEncrypt<unsigned long>::`RTTI Complete Object Locator'
PUBLIC	??_R0?AV?$CEncrypt@K@@@8			; CEncrypt<unsigned long> `RTTI Type Descriptor'
PUBLIC	??_R3?$CEncrypt@K@@8				; CEncrypt<unsigned long>::`RTTI Class Hierarchy Descriptor'
PUBLIC	??_R2?$CEncrypt@K@@8				; CEncrypt<unsigned long>::`RTTI Base Class Array'
PUBLIC	??_R1A@?0A@EA@?$CEncrypt@K@@8			; CEncrypt<unsigned long>::`RTTI Base Class Descriptor at (0,-1,0,64)'
EXTRN	??_E?$CEncrypt@K@@UAEPAXI@Z:PROC		; CEncrypt<unsigned long>::`vector deleting destructor'
;	COMDAT ??_R1A@?0A@EA@?$CEncrypt@K@@8
rdata$r	SEGMENT
??_R1A@?0A@EA@?$CEncrypt@K@@8 DD FLAT:??_R0?AV?$CEncrypt@K@@@8 ; CEncrypt<unsigned long>::`RTTI Base Class Descriptor at (0,-1,0,64)'
	DD	00H
	DD	00H
	DD	0ffffffffH
	DD	00H
	DD	040H
	DD	FLAT:??_R3?$CEncrypt@K@@8
rdata$r	ENDS
;	COMDAT ??_R2?$CEncrypt@K@@8
rdata$r	SEGMENT
??_R2?$CEncrypt@K@@8 DD FLAT:??_R1A@?0A@EA@?$CEncrypt@K@@8 ; CEncrypt<unsigned long>::`RTTI Base Class Array'
rdata$r	ENDS
;	COMDAT ??_R3?$CEncrypt@K@@8
rdata$r	SEGMENT
??_R3?$CEncrypt@K@@8 DD 00H				; CEncrypt<unsigned long>::`RTTI Class Hierarchy Descriptor'
	DD	00H
	DD	01H
	DD	FLAT:??_R2?$CEncrypt@K@@8
rdata$r	ENDS
;	COMDAT ??_R0?AV?$CEncrypt@K@@@8
_DATA	SEGMENT
??_R0?AV?$CEncrypt@K@@@8 DD FLAT:??_7type_info@@6B@	; CEncrypt<unsigned long> `RTTI Type Descriptor'
	DD	00H
	DB	'.?AV?$CEncrypt@K@@', 00H
_DATA	ENDS
;	COMDAT ??_R4?$CEncrypt@K@@6B@
rdata$r	SEGMENT
??_R4?$CEncrypt@K@@6B@ DD 00H				; CEncrypt<unsigned long>::`RTTI Complete Object Locator'
	DD	00H
	DD	00H
	DD	FLAT:??_R0?AV?$CEncrypt@K@@@8
	DD	FLAT:??_R3?$CEncrypt@K@@8
rdata$r	ENDS
;	COMDAT ??_7?$CEncrypt@K@@6B@
CONST	SEGMENT
??_7?$CEncrypt@K@@6B@ DD FLAT:??_R4?$CEncrypt@K@@6B@	; CEncrypt<unsigned long>::`vftable'
	DD	FLAT:??_E?$CEncrypt@K@@UAEPAXI@Z
; Function compile flags: /Ogsp
CONST	ENDS
;	COMDAT ??1?$CEncrypt@K@@UAE@XZ
_TEXT	SEGMENT
??1?$CEncrypt@K@@UAE@XZ PROC				; CEncrypt<unsigned long>::~CEncrypt<unsigned long>, COMDAT
; _this$ = ecx

; 127  : 	{

  00000	c7 01 00 00 00
	00		 mov	 DWORD PTR [ecx], OFFSET ??_7?$CEncrypt@K@@6B@

; 128  : 	}

  00006	83 c1 0c	 add	 ecx, 12			; 0000000cH
  00009	e9 00 00 00 00	 jmp	 ??1ccddaabb@@UAE@XZ	; ccddaabb::~ccddaabb
??1?$CEncrypt@K@@UAE@XZ ENDP				; CEncrypt<unsigned long>::~CEncrypt<unsigned long>
_TEXT	ENDS
PUBLIC	??_7?$CEncrypt@_N@@6B@				; CEncrypt<bool>::`vftable'
PUBLIC	??1?$CEncrypt@_N@@UAE@XZ			; CEncrypt<bool>::~CEncrypt<bool>
PUBLIC	??_R4?$CEncrypt@_N@@6B@				; CEncrypt<bool>::`RTTI Complete Object Locator'
PUBLIC	??_R0?AV?$CEncrypt@_N@@@8			; CEncrypt<bool> `RTTI Type Descriptor'
PUBLIC	??_R3?$CEncrypt@_N@@8				; CEncrypt<bool>::`RTTI Class Hierarchy Descriptor'
PUBLIC	??_R2?$CEncrypt@_N@@8				; CEncrypt<bool>::`RTTI Base Class Array'
PUBLIC	??_R1A@?0A@EA@?$CEncrypt@_N@@8			; CEncrypt<bool>::`RTTI Base Class Descriptor at (0,-1,0,64)'
EXTRN	??_E?$CEncrypt@_N@@UAEPAXI@Z:PROC		; CEncrypt<bool>::`vector deleting destructor'
;	COMDAT ??_R1A@?0A@EA@?$CEncrypt@_N@@8
rdata$r	SEGMENT
??_R1A@?0A@EA@?$CEncrypt@_N@@8 DD FLAT:??_R0?AV?$CEncrypt@_N@@@8 ; CEncrypt<bool>::`RTTI Base Class Descriptor at (0,-1,0,64)'
	DD	00H
	DD	00H
	DD	0ffffffffH
	DD	00H
	DD	040H
	DD	FLAT:??_R3?$CEncrypt@_N@@8
rdata$r	ENDS
;	COMDAT ??_R2?$CEncrypt@_N@@8
rdata$r	SEGMENT
??_R2?$CEncrypt@_N@@8 DD FLAT:??_R1A@?0A@EA@?$CEncrypt@_N@@8 ; CEncrypt<bool>::`RTTI Base Class Array'
rdata$r	ENDS
;	COMDAT ??_R3?$CEncrypt@_N@@8
rdata$r	SEGMENT
??_R3?$CEncrypt@_N@@8 DD 00H				; CEncrypt<bool>::`RTTI Class Hierarchy Descriptor'
	DD	00H
	DD	01H
	DD	FLAT:??_R2?$CEncrypt@_N@@8
rdata$r	ENDS
;	COMDAT ??_R0?AV?$CEncrypt@_N@@@8
_DATA	SEGMENT
??_R0?AV?$CEncrypt@_N@@@8 DD FLAT:??_7type_info@@6B@	; CEncrypt<bool> `RTTI Type Descriptor'
	DD	00H
	DB	'.?AV?$CEncrypt@_N@@', 00H
_DATA	ENDS
;	COMDAT ??_R4?$CEncrypt@_N@@6B@
rdata$r	SEGMENT
??_R4?$CEncrypt@_N@@6B@ DD 00H				; CEncrypt<bool>::`RTTI Complete Object Locator'
	DD	00H
	DD	00H
	DD	FLAT:??_R0?AV?$CEncrypt@_N@@@8
	DD	FLAT:??_R3?$CEncrypt@_N@@8
rdata$r	ENDS
;	COMDAT ??_7?$CEncrypt@_N@@6B@
CONST	SEGMENT
??_7?$CEncrypt@_N@@6B@ DD FLAT:??_R4?$CEncrypt@_N@@6B@	; CEncrypt<bool>::`vftable'
	DD	FLAT:??_E?$CEncrypt@_N@@UAEPAXI@Z
; Function compile flags: /Ogsp
CONST	ENDS
;	COMDAT ??1?$CEncrypt@_N@@UAE@XZ
_TEXT	SEGMENT
??1?$CEncrypt@_N@@UAE@XZ PROC				; CEncrypt<bool>::~CEncrypt<bool>, COMDAT
; _this$ = ecx

; 127  : 	{

  00000	c7 01 00 00 00
	00		 mov	 DWORD PTR [ecx], OFFSET ??_7?$CEncrypt@_N@@6B@

; 128  : 	}

  00006	83 c1 0c	 add	 ecx, 12			; 0000000cH
  00009	e9 00 00 00 00	 jmp	 ??1ccddaabb@@UAE@XZ	; ccddaabb::~ccddaabb
??1?$CEncrypt@_N@@UAE@XZ ENDP				; CEncrypt<bool>::~CEncrypt<bool>
; Function compile flags: /Ogsp
_TEXT	ENDS
;	COMDAT ??_G?$CEncrypt@M@@UAEPAXI@Z
_TEXT	SEGMENT
___flags$ = 8						; size = 4
??_G?$CEncrypt@M@@UAEPAXI@Z PROC			; CEncrypt<float>::`scalar deleting destructor', COMDAT
; _this$ = ecx
  00000	55		 push	 ebp
  00001	8b ec		 mov	 ebp, esp
  00003	56		 push	 esi
  00004	8b f1		 mov	 esi, ecx
  00006	8d 4e 0c	 lea	 ecx, DWORD PTR [esi+12]
  00009	c7 06 00 00 00
	00		 mov	 DWORD PTR [esi], OFFSET ??_7?$CEncrypt@M@@6B@
  0000f	e8 00 00 00 00	 call	 ??1ccddaabb@@UAE@XZ	; ccddaabb::~ccddaabb
  00014	f6 45 08 01	 test	 BYTE PTR ___flags$[ebp], 1
  00018	74 07		 je	 SHORT $LN1@scalar@2
  0001a	56		 push	 esi
  0001b	e8 00 00 00 00	 call	 ??3@YAXPAX@Z		; operator delete
  00020	59		 pop	 ecx
$LN1@scalar@2:
  00021	8b c6		 mov	 eax, esi
  00023	5e		 pop	 esi
  00024	5d		 pop	 ebp
  00025	c2 04 00	 ret	 4
??_G?$CEncrypt@M@@UAEPAXI@Z ENDP			; CEncrypt<float>::`scalar deleting destructor'
; Function compile flags: /Ogsp
_TEXT	ENDS
;	COMDAT ??_G?$CEncrypt@K@@UAEPAXI@Z
_TEXT	SEGMENT
___flags$ = 8						; size = 4
??_G?$CEncrypt@K@@UAEPAXI@Z PROC			; CEncrypt<unsigned long>::`scalar deleting destructor', COMDAT
; _this$ = ecx
  00000	55		 push	 ebp
  00001	8b ec		 mov	 ebp, esp
  00003	56		 push	 esi
  00004	8b f1		 mov	 esi, ecx
  00006	8d 4e 0c	 lea	 ecx, DWORD PTR [esi+12]
  00009	c7 06 00 00 00
	00		 mov	 DWORD PTR [esi], OFFSET ??_7?$CEncrypt@K@@6B@
  0000f	e8 00 00 00 00	 call	 ??1ccddaabb@@UAE@XZ	; ccddaabb::~ccddaabb
  00014	f6 45 08 01	 test	 BYTE PTR ___flags$[ebp], 1
  00018	74 07		 je	 SHORT $LN1@scalar@3
  0001a	56		 push	 esi
  0001b	e8 00 00 00 00	 call	 ??3@YAXPAX@Z		; operator delete
  00020	59		 pop	 ecx
$LN1@scalar@3:
  00021	8b c6		 mov	 eax, esi
  00023	5e		 pop	 esi
  00024	5d		 pop	 ebp
  00025	c2 04 00	 ret	 4
??_G?$CEncrypt@K@@UAEPAXI@Z ENDP			; CEncrypt<unsigned long>::`scalar deleting destructor'
; Function compile flags: /Ogsp
_TEXT	ENDS
;	COMDAT ??_G?$CEncrypt@_N@@UAEPAXI@Z
_TEXT	SEGMENT
___flags$ = 8						; size = 4
??_G?$CEncrypt@_N@@UAEPAXI@Z PROC			; CEncrypt<bool>::`scalar deleting destructor', COMDAT
; _this$ = ecx
  00000	55		 push	 ebp
  00001	8b ec		 mov	 ebp, esp
  00003	56		 push	 esi
  00004	8b f1		 mov	 esi, ecx
  00006	8d 4e 0c	 lea	 ecx, DWORD PTR [esi+12]
  00009	c7 06 00 00 00
	00		 mov	 DWORD PTR [esi], OFFSET ??_7?$CEncrypt@_N@@6B@
  0000f	e8 00 00 00 00	 call	 ??1ccddaabb@@UAE@XZ	; ccddaabb::~ccddaabb
  00014	f6 45 08 01	 test	 BYTE PTR ___flags$[ebp], 1
  00018	74 07		 je	 SHORT $LN1@scalar@4
  0001a	56		 push	 esi
  0001b	e8 00 00 00 00	 call	 ??3@YAXPAX@Z		; operator delete
  00020	59		 pop	 ecx
$LN1@scalar@4:
  00021	8b c6		 mov	 eax, esi
  00023	5e		 pop	 esi
  00024	5d		 pop	 ebp
  00025	c2 04 00	 ret	 4
??_G?$CEncrypt@_N@@UAEPAXI@Z ENDP			; CEncrypt<bool>::`scalar deleting destructor'
_TEXT	ENDS
PUBLIC	??1?$_Vector_val@VioHashString@@V?$allocator@VioHashString@@@std@@@std@@QAE@XZ ; std::_Vector_val<ioHashString,std::allocator<ioHashString> >::~_Vector_val<ioHashString,std::allocator<ioHashString> >
; Function compile flags: /Ogsp
; File c:\program files (x86)\microsoft visual studio 10.0\vc\include\vector
;	COMDAT ??1?$_Vector_val@VioHashString@@V?$allocator@VioHashString@@@std@@@std@@QAE@XZ
_TEXT	SEGMENT
??1?$_Vector_val@VioHashString@@V?$allocator@VioHashString@@@std@@@std@@QAE@XZ PROC ; std::_Vector_val<ioHashString,std::allocator<ioHashString> >::~_Vector_val<ioHashString,std::allocator<ioHashString> >, COMDAT
; _this$ = ecx

; 434  : 		}

  00000	c3		 ret	 0
??1?$_Vector_val@VioHashString@@V?$allocator@VioHashString@@@std@@@std@@QAE@XZ ENDP ; std::_Vector_val<ioHashString,std::allocator<ioHashString> >::~_Vector_val<ioHashString,std::allocator<ioHashString> >
_TEXT	ENDS
PUBLIC	??0?$allocator@VioHashString@@@std@@QAE@XZ	; std::allocator<ioHashString>::allocator<ioHashString>
; Function compile flags: /Ogsp
; File c:\program files (x86)\microsoft visual studio 10.0\vc\include\xmemory
;	COMDAT ??0?$allocator@VioHashString@@@std@@QAE@XZ
_TEXT	SEGMENT
??0?$allocator@VioHashString@@@std@@QAE@XZ PROC		; std::allocator<ioHashString>::allocator<ioHashString>, COMDAT
; _this$ = ecx

; 161  : 	_ALLOCATOR() _THROW0()

  00000	8b c1		 mov	 eax, ecx

; 162  : 		{	// construct default allocator (do nothing)
; 163  : 		}

  00002	c3		 ret	 0
??0?$allocator@VioHashString@@@std@@QAE@XZ ENDP		; std::allocator<ioHashString>::allocator<ioHashString>
_TEXT	ENDS
PUBLIC	??0?$allocator@VioHashString@@@std@@QAE@ABV01@@Z ; std::allocator<ioHashString>::allocator<ioHashString>
; Function compile flags: /Ogsp
;	COMDAT ??0?$allocator@VioHashString@@@std@@QAE@ABV01@@Z
_TEXT	SEGMENT
___formal$ = 8						; size = 4
??0?$allocator@VioHashString@@@std@@QAE@ABV01@@Z PROC	; std::allocator<ioHashString>::allocator<ioHashString>, COMDAT
; _this$ = ecx

; 165  : 	_ALLOCATOR(const _ALLOCATOR<_Ty>&) _THROW0()

  00000	8b c1		 mov	 eax, ecx

; 166  : 		{	// construct by copying (do nothing)
; 167  : 		}

  00002	c2 04 00	 ret	 4
??0?$allocator@VioHashString@@@std@@QAE@ABV01@@Z ENDP	; std::allocator<ioHashString>::allocator<ioHashString>
_TEXT	ENDS
PUBLIC	?EncryptValueToPool@?$CEncrypt@M@@AAEXPBD@Z	; CEncrypt<float>::EncryptValueToPool
EXTRN	?EncryptByte@ccddaabb@@QAEXPBDPADH@Z:PROC	; ccddaabb::EncryptByte
; Function compile flags: /Ogsp
; File d:\lost saga for developer\youtube\tutorial\source\src\lsclient\encryptvalue.h
;	COMDAT ?EncryptValueToPool@?$CEncrypt@M@@AAEXPBD@Z
_TEXT	SEGMENT
_value$ = 8						; size = 4
?EncryptValueToPool@?$CEncrypt@M@@AAEXPBD@Z PROC	; CEncrypt<float>::EncryptValueToPool, COMDAT
; _this$ = ecx

; 67   : 	{

  00000	55		 push	 ebp
  00001	8b ec		 mov	 ebp, esp

; 68   : 		m_RC5.EncryptByte( value, m_MemPool, max(m_ValueSize, DEFAULT_ENCRYPT) );

  00003	0f b7 41 06	 movzx	 eax, WORD PTR [ecx+6]
  00007	83 f8 04	 cmp	 eax, 4
  0000a	77 03		 ja	 SHORT $LN4@EncryptVal
  0000c	6a 04		 push	 4
  0000e	58		 pop	 eax
$LN4@EncryptVal:
  0000f	50		 push	 eax
  00010	8d 41 1c	 lea	 eax, DWORD PTR [ecx+28]
  00013	50		 push	 eax
  00014	ff 75 08	 push	 DWORD PTR _value$[ebp]
  00017	83 c1 0c	 add	 ecx, 12			; 0000000cH
  0001a	e8 00 00 00 00	 call	 ?EncryptByte@ccddaabb@@QAEXPBDPADH@Z ; ccddaabb::EncryptByte

; 69   : 		
; 70   : 	}

  0001f	5d		 pop	 ebp
  00020	c2 04 00	 ret	 4
?EncryptValueToPool@?$CEncrypt@M@@AAEXPBD@Z ENDP	; CEncrypt<float>::EncryptValueToPool
_TEXT	ENDS
PUBLIC	?Init@?$CEncrypt@M@@AAEXXZ			; CEncrypt<float>::Init
EXTRN	?Setup@ccddaabb@@QAEXPBDHH@Z:PROC		; ccddaabb::Setup
EXTRN	__imp__rand:PROC
EXTRN	__imp__timeGetTime@0:PROC
EXTRN	__imp__GetCurrentProcessId@0:PROC
; Function compile flags: /Ogsp
;	COMDAT ?Init@?$CEncrypt@M@@AAEXXZ
_TEXT	SEGMENT
_pid$ = -8						; size = 4
_tick$ = -4						; size = 4
?Init@?$CEncrypt@M@@AAEXXZ PROC				; CEncrypt<float>::Init, COMDAT
; _this$ = ecx

; 73   : 	{

  00000	55		 push	 ebp
  00001	8b ec		 mov	 ebp, esp
  00003	51		 push	 ecx
  00004	51		 push	 ecx
  00005	53		 push	 ebx
  00006	56		 push	 esi
  00007	57		 push	 edi
  00008	8b f1		 mov	 esi, ecx

; 74   : 		DWORD pid = GetCurrentProcessId();

  0000a	ff 15 00 00 00
	00		 call	 DWORD PTR __imp__GetCurrentProcessId@0
  00010	89 45 f8	 mov	 DWORD PTR _pid$[ebp], eax

; 75   : 		DWORD tick = timeGetTime();

  00013	ff 15 00 00 00
	00		 call	 DWORD PTR __imp__timeGetTime@0

; 76   : 		m_ValueSize    = sizeof(type);
; 77   : 		m_MemPoolPos   = (unsigned short)( rand()+pid+tick )%(MAX_MEM_POOL-m_ValueSize);

  00019	8b 3d 00 00 00
	00		 mov	 edi, DWORD PTR __imp__rand
  0001f	89 45 fc	 mov	 DWORD PTR _tick$[ebp], eax
  00022	6a 04		 push	 4
  00024	58		 pop	 eax
  00025	66 89 46 06	 mov	 WORD PTR [esi+6], ax
  00029	ff d7		 call	 edi
  0002b	03 45 f8	 add	 eax, DWORD PTR _pid$[ebp]
  0002e	0f b7 4e 06	 movzx	 ecx, WORD PTR [esi+6]
  00032	03 45 fc	 add	 eax, DWORD PTR _tick$[ebp]
  00035	6a 0c		 push	 12			; 0000000cH
  00037	0f b7 c0	 movzx	 eax, ax
  0003a	5b		 pop	 ebx
  0003b	99		 cdq
  0003c	2b d9		 sub	 ebx, ecx
  0003e	f7 fb		 idiv	 ebx
  00040	66 89 56 04	 mov	 WORD PTR [esi+4], dx

; 78   : 		m_EncryptSeed  = (char)( rand()+pid+tick )%256;

  00044	ff d7		 call	 edi
  00046	02 45 f8	 add	 al, BYTE PTR _pid$[ebp]
  00049	02 45 fc	 add	 al, BYTE PTR _tick$[ebp]
  0004c	0f be c0	 movsx	 eax, al
  0004f	25 ff 00 00 80	 and	 eax, -2147483393	; 800000ffH
  00054	79 07		 jns	 SHORT $LN8@Init
  00056	48		 dec	 eax
  00057	0d 00 ff ff ff	 or	 eax, -256		; ffffff00H
  0005c	40		 inc	 eax
$LN8@Init:
  0005d	88 46 08	 mov	 BYTE PTR [esi+8], al

; 79   : 
; 80   : 		for (int i = 0; i < MAX_MEM_POOL ; i++)

  00060	33 db		 xor	 ebx, ebx
$LL3@Init:

; 81   : 			m_MemPool[i] = (char)( rand()+pid+tick )%256; // 

  00062	ff d7		 call	 edi
  00064	02 45 f8	 add	 al, BYTE PTR _pid$[ebp]
  00067	02 45 fc	 add	 al, BYTE PTR _tick$[ebp]
  0006a	0f be c0	 movsx	 eax, al
  0006d	25 ff 00 00 80	 and	 eax, -2147483393	; 800000ffH
  00072	79 07		 jns	 SHORT $LN9@Init
  00074	48		 dec	 eax
  00075	0d 00 ff ff ff	 or	 eax, -256		; ffffff00H
  0007a	40		 inc	 eax
$LN9@Init:
  0007b	88 44 1e 1c	 mov	 BYTE PTR [esi+ebx+28], al
  0007f	43		 inc	 ebx
  00080	83 fb 0c	 cmp	 ebx, 12			; 0000000cH
  00083	7c dd		 jl	 SHORT $LL3@Init

; 82   : 
; 83   : 		//UJ 130913, : szKey  
; 84   : 		//char szKey[ccddaabb::KEY_SIZE];//="";
; 85   : 		//for (int i = 0; i < ccddaabb::KEY_SIZE  ; i++)
; 86   : 		//	szKey[i] = (char)( rand()+pid+tick )%256; // 
; 87   : 		m_RC5.Setup( NULL, pid, tick );

  00085	ff 75 fc	 push	 DWORD PTR _tick$[ebp]
  00088	8d 4e 0c	 lea	 ecx, DWORD PTR [esi+12]
  0008b	ff 75 f8	 push	 DWORD PTR _pid$[ebp]
  0008e	6a 00		 push	 0
  00090	e8 00 00 00 00	 call	 ?Setup@ccddaabb@@QAEXPBDHH@Z ; ccddaabb::Setup
  00095	5f		 pop	 edi
  00096	5e		 pop	 esi
  00097	5b		 pop	 ebx

; 88   : 
; 89   : #ifdef _NOTUSE
; 90   : 		m_value        = 0;
; 91   : 		EncryptValueToPool((char*)&m_value);
; 92   : 		Debug();
; 93   : #endif
; 94   : 	}

  00098	c9		 leave
  00099	c3		 ret	 0
?Init@?$CEncrypt@M@@AAEXXZ ENDP				; CEncrypt<float>::Init
_TEXT	ENDS
PUBLIC	?DecryptValueToPool@?$CEncrypt@M@@QAEXPAM@Z	; CEncrypt<float>::DecryptValueToPool
EXTRN	?DecryptByte@ccddaabb@@QBEXPBDPADH@Z:PROC	; ccddaabb::DecryptByte
; Function compile flags: /Ogsp
;	COMDAT ?DecryptValueToPool@?$CEncrypt@M@@QAEXPAM@Z
_TEXT	SEGMENT
_value$ = 8						; size = 4
?DecryptValueToPool@?$CEncrypt@M@@QAEXPAM@Z PROC	; CEncrypt<float>::DecryptValueToPool, COMDAT
; _this$ = ecx

; 1648 : 	{

  00000	55		 push	 ebp
  00001	8b ec		 mov	 ebp, esp
  00003	56		 push	 esi

; 1649 : 		m_RC5.DecryptByte( m_MemPool, m_TempMem, 4 );

  00004	8d 71 28	 lea	 esi, DWORD PTR [ecx+40]
  00007	6a 04		 push	 4
  00009	8d 41 1c	 lea	 eax, DWORD PTR [ecx+28]
  0000c	56		 push	 esi
  0000d	50		 push	 eax
  0000e	83 c1 0c	 add	 ecx, 12			; 0000000cH
  00011	e8 00 00 00 00	 call	 ?DecryptByte@ccddaabb@@QBEXPBDPADH@Z ; ccddaabb::DecryptByte

; 1650 : 		*value = *((float*)m_TempMem);

  00016	d9 06		 fld	 DWORD PTR [esi]
  00018	8b 45 08	 mov	 eax, DWORD PTR _value$[ebp]
  0001b	d9 18		 fstp	 DWORD PTR [eax]
  0001d	5e		 pop	 esi

; 1651 : 	}

  0001e	5d		 pop	 ebp
  0001f	c2 04 00	 ret	 4
?DecryptValueToPool@?$CEncrypt@M@@QAEXPAM@Z ENDP	; CEncrypt<float>::DecryptValueToPool
_TEXT	ENDS
PUBLIC	?EncryptValueToPool@?$CEncrypt@K@@AAEXPBD@Z	; CEncrypt<unsigned long>::EncryptValueToPool
; Function compile flags: /Ogsp
;	COMDAT ?EncryptValueToPool@?$CEncrypt@K@@AAEXPBD@Z
_TEXT	SEGMENT
_value$ = 8						; size = 4
?EncryptValueToPool@?$CEncrypt@K@@AAEXPBD@Z PROC	; CEncrypt<unsigned long>::EncryptValueToPool, COMDAT
; _this$ = ecx

; 67   : 	{

  00000	55		 push	 ebp
  00001	8b ec		 mov	 ebp, esp

; 68   : 		m_RC5.EncryptByte( value, m_MemPool, max(m_ValueSize, DEFAULT_ENCRYPT) );

  00003	0f b7 41 06	 movzx	 eax, WORD PTR [ecx+6]
  00007	83 f8 04	 cmp	 eax, 4
  0000a	77 03		 ja	 SHORT $LN4@EncryptVal@2
  0000c	6a 04		 push	 4
  0000e	58		 pop	 eax
$LN4@EncryptVal@2:
  0000f	50		 push	 eax
  00010	8d 41 1c	 lea	 eax, DWORD PTR [ecx+28]
  00013	50		 push	 eax
  00014	ff 75 08	 push	 DWORD PTR _value$[ebp]
  00017	83 c1 0c	 add	 ecx, 12			; 0000000cH
  0001a	e8 00 00 00 00	 call	 ?EncryptByte@ccddaabb@@QAEXPBDPADH@Z ; ccddaabb::EncryptByte

; 69   : 		
; 70   : 	}

  0001f	5d		 pop	 ebp
  00020	c2 04 00	 ret	 4
?EncryptValueToPool@?$CEncrypt@K@@AAEXPBD@Z ENDP	; CEncrypt<unsigned long>::EncryptValueToPool
_TEXT	ENDS
PUBLIC	?Init@?$CEncrypt@K@@AAEXXZ			; CEncrypt<unsigned long>::Init
; Function compile flags: /Ogsp
;	COMDAT ?Init@?$CEncrypt@K@@AAEXXZ
_TEXT	SEGMENT
_pid$ = -8						; size = 4
_tick$ = -4						; size = 4
?Init@?$CEncrypt@K@@AAEXXZ PROC				; CEncrypt<unsigned long>::Init, COMDAT
; _this$ = ecx

; 73   : 	{

  00000	55		 push	 ebp
  00001	8b ec		 mov	 ebp, esp
  00003	51		 push	 ecx
  00004	51		 push	 ecx
  00005	53		 push	 ebx
  00006	56		 push	 esi
  00007	57		 push	 edi
  00008	8b f1		 mov	 esi, ecx

; 74   : 		DWORD pid = GetCurrentProcessId();

  0000a	ff 15 00 00 00
	00		 call	 DWORD PTR __imp__GetCurrentProcessId@0
  00010	89 45 f8	 mov	 DWORD PTR _pid$[ebp], eax

; 75   : 		DWORD tick = timeGetTime();

  00013	ff 15 00 00 00
	00		 call	 DWORD PTR __imp__timeGetTime@0

; 76   : 		m_ValueSize    = sizeof(type);
; 77   : 		m_MemPoolPos   = (unsigned short)( rand()+pid+tick )%(MAX_MEM_POOL-m_ValueSize);

  00019	8b 3d 00 00 00
	00		 mov	 edi, DWORD PTR __imp__rand
  0001f	89 45 fc	 mov	 DWORD PTR _tick$[ebp], eax
  00022	6a 04		 push	 4
  00024	58		 pop	 eax
  00025	66 89 46 06	 mov	 WORD PTR [esi+6], ax
  00029	ff d7		 call	 edi
  0002b	03 45 f8	 add	 eax, DWORD PTR _pid$[ebp]
  0002e	0f b7 4e 06	 movzx	 ecx, WORD PTR [esi+6]
  00032	03 45 fc	 add	 eax, DWORD PTR _tick$[ebp]
  00035	6a 0c		 push	 12			; 0000000cH
  00037	0f b7 c0	 movzx	 eax, ax
  0003a	5b		 pop	 ebx
  0003b	99		 cdq
  0003c	2b d9		 sub	 ebx, ecx
  0003e	f7 fb		 idiv	 ebx
  00040	66 89 56 04	 mov	 WORD PTR [esi+4], dx

; 78   : 		m_EncryptSeed  = (char)( rand()+pid+tick )%256;

  00044	ff d7		 call	 edi
  00046	02 45 f8	 add	 al, BYTE PTR _pid$[ebp]
  00049	02 45 fc	 add	 al, BYTE PTR _tick$[ebp]
  0004c	0f be c0	 movsx	 eax, al
  0004f	25 ff 00 00 80	 and	 eax, -2147483393	; 800000ffH
  00054	79 07		 jns	 SHORT $LN8@Init@2
  00056	48		 dec	 eax
  00057	0d 00 ff ff ff	 or	 eax, -256		; ffffff00H
  0005c	40		 inc	 eax
$LN8@Init@2:
  0005d	88 46 08	 mov	 BYTE PTR [esi+8], al

; 79   : 
; 80   : 		for (int i = 0; i < MAX_MEM_POOL ; i++)

  00060	33 db		 xor	 ebx, ebx
$LL3@Init@2:

; 81   : 			m_MemPool[i] = (char)( rand()+pid+tick )%256; // 

  00062	ff d7		 call	 edi
  00064	02 45 f8	 add	 al, BYTE PTR _pid$[ebp]
  00067	02 45 fc	 add	 al, BYTE PTR _tick$[ebp]
  0006a	0f be c0	 movsx	 eax, al
  0006d	25 ff 00 00 80	 and	 eax, -2147483393	; 800000ffH
  00072	79 07		 jns	 SHORT $LN9@Init@2
  00074	48		 dec	 eax
  00075	0d 00 ff ff ff	 or	 eax, -256		; ffffff00H
  0007a	40		 inc	 eax
$LN9@Init@2:
  0007b	88 44 1e 1c	 mov	 BYTE PTR [esi+ebx+28], al
  0007f	43		 inc	 ebx
  00080	83 fb 0c	 cmp	 ebx, 12			; 0000000cH
  00083	7c dd		 jl	 SHORT $LL3@Init@2

; 82   : 
; 83   : 		//UJ 130913, : szKey  
; 84   : 		//char szKey[ccddaabb::KEY_SIZE];//="";
; 85   : 		//for (int i = 0; i < ccddaabb::KEY_SIZE  ; i++)
; 86   : 		//	szKey[i] = (char)( rand()+pid+tick )%256; // 
; 87   : 		m_RC5.Setup( NULL, pid, tick );

  00085	ff 75 fc	 push	 DWORD PTR _tick$[ebp]
  00088	8d 4e 0c	 lea	 ecx, DWORD PTR [esi+12]
  0008b	ff 75 f8	 push	 DWORD PTR _pid$[ebp]
  0008e	6a 00		 push	 0
  00090	e8 00 00 00 00	 call	 ?Setup@ccddaabb@@QAEXPBDHH@Z ; ccddaabb::Setup
  00095	5f		 pop	 edi
  00096	5e		 pop	 esi
  00097	5b		 pop	 ebx

; 88   : 
; 89   : #ifdef _NOTUSE
; 90   : 		m_value        = 0;
; 91   : 		EncryptValueToPool((char*)&m_value);
; 92   : 		Debug();
; 93   : #endif
; 94   : 	}

  00098	c9		 leave
  00099	c3		 ret	 0
?Init@?$CEncrypt@K@@AAEXXZ ENDP				; CEncrypt<unsigned long>::Init
_TEXT	ENDS
PUBLIC	?DecryptValueToPool@?$CEncrypt@K@@QAEXPAK@Z	; CEncrypt<unsigned long>::DecryptValueToPool
; Function compile flags: /Ogsp
;	COMDAT ?DecryptValueToPool@?$CEncrypt@K@@QAEXPAK@Z
_TEXT	SEGMENT
_value$ = 8						; size = 4
?DecryptValueToPool@?$CEncrypt@K@@QAEXPAK@Z PROC	; CEncrypt<unsigned long>::DecryptValueToPool, COMDAT
; _this$ = ecx

; 1256 : 	{

  00000	55		 push	 ebp
  00001	8b ec		 mov	 ebp, esp
  00003	56		 push	 esi

; 1257 : 		m_RC5.DecryptByte( m_MemPool, m_TempMem, 4 );

  00004	8d 71 28	 lea	 esi, DWORD PTR [ecx+40]
  00007	6a 04		 push	 4
  00009	8d 41 1c	 lea	 eax, DWORD PTR [ecx+28]
  0000c	56		 push	 esi
  0000d	50		 push	 eax
  0000e	83 c1 0c	 add	 ecx, 12			; 0000000cH
  00011	e8 00 00 00 00	 call	 ?DecryptByte@ccddaabb@@QBEXPBDPADH@Z ; ccddaabb::DecryptByte

; 1258 : 		*value = *((DWORD*)m_TempMem);

  00016	8b 06		 mov	 eax, DWORD PTR [esi]
  00018	8b 4d 08	 mov	 ecx, DWORD PTR _value$[ebp]
  0001b	89 01		 mov	 DWORD PTR [ecx], eax
  0001d	5e		 pop	 esi

; 1259 : 	}

  0001e	5d		 pop	 ebp
  0001f	c2 04 00	 ret	 4
?DecryptValueToPool@?$CEncrypt@K@@QAEXPAK@Z ENDP	; CEncrypt<unsigned long>::DecryptValueToPool
_TEXT	ENDS
PUBLIC	?EncryptValueToPool@?$CEncrypt@_N@@AAEXPBD@Z	; CEncrypt<bool>::EncryptValueToPool
; Function compile flags: /Ogsp
;	COMDAT ?EncryptValueToPool@?$CEncrypt@_N@@AAEXPBD@Z
_TEXT	SEGMENT
_value$ = 8						; size = 4
?EncryptValueToPool@?$CEncrypt@_N@@AAEXPBD@Z PROC	; CEncrypt<bool>::EncryptValueToPool, COMDAT
; _this$ = ecx

; 67   : 	{

  00000	55		 push	 ebp
  00001	8b ec		 mov	 ebp, esp

; 68   : 		m_RC5.EncryptByte( value, m_MemPool, max(m_ValueSize, DEFAULT_ENCRYPT) );

  00003	0f b7 41 06	 movzx	 eax, WORD PTR [ecx+6]
  00007	83 f8 04	 cmp	 eax, 4
  0000a	77 03		 ja	 SHORT $LN4@EncryptVal@3
  0000c	6a 04		 push	 4
  0000e	58		 pop	 eax
$LN4@EncryptVal@3:
  0000f	50		 push	 eax
  00010	8d 41 1c	 lea	 eax, DWORD PTR [ecx+28]
  00013	50		 push	 eax
  00014	ff 75 08	 push	 DWORD PTR _value$[ebp]
  00017	83 c1 0c	 add	 ecx, 12			; 0000000cH
  0001a	e8 00 00 00 00	 call	 ?EncryptByte@ccddaabb@@QAEXPBDPADH@Z ; ccddaabb::EncryptByte

; 69   : 		
; 70   : 	}

  0001f	5d		 pop	 ebp
  00020	c2 04 00	 ret	 4
?EncryptValueToPool@?$CEncrypt@_N@@AAEXPBD@Z ENDP	; CEncrypt<bool>::EncryptValueToPool
_TEXT	ENDS
PUBLIC	?Init@?$CEncrypt@_N@@AAEXXZ			; CEncrypt<bool>::Init
; Function compile flags: /Ogsp
;	COMDAT ?Init@?$CEncrypt@_N@@AAEXXZ
_TEXT	SEGMENT
_pid$ = -8						; size = 4
_tick$ = -4						; size = 4
?Init@?$CEncrypt@_N@@AAEXXZ PROC			; CEncrypt<bool>::Init, COMDAT
; _this$ = ecx

; 73   : 	{

  00000	55		 push	 ebp
  00001	8b ec		 mov	 ebp, esp
  00003	51		 push	 ecx
  00004	51		 push	 ecx
  00005	53		 push	 ebx
  00006	56		 push	 esi
  00007	57		 push	 edi
  00008	8b f1		 mov	 esi, ecx

; 74   : 		DWORD pid = GetCurrentProcessId();

  0000a	ff 15 00 00 00
	00		 call	 DWORD PTR __imp__GetCurrentProcessId@0
  00010	89 45 f8	 mov	 DWORD PTR _pid$[ebp], eax

; 75   : 		DWORD tick = timeGetTime();

  00013	ff 15 00 00 00
	00		 call	 DWORD PTR __imp__timeGetTime@0

; 76   : 		m_ValueSize    = sizeof(type);
; 77   : 		m_MemPoolPos   = (unsigned short)( rand()+pid+tick )%(MAX_MEM_POOL-m_ValueSize);

  00019	8b 3d 00 00 00
	00		 mov	 edi, DWORD PTR __imp__rand
  0001f	89 45 fc	 mov	 DWORD PTR _tick$[ebp], eax
  00022	33 c0		 xor	 eax, eax
  00024	40		 inc	 eax
  00025	66 89 46 06	 mov	 WORD PTR [esi+6], ax
  00029	ff d7		 call	 edi
  0002b	03 45 f8	 add	 eax, DWORD PTR _pid$[ebp]
  0002e	0f b7 4e 06	 movzx	 ecx, WORD PTR [esi+6]
  00032	03 45 fc	 add	 eax, DWORD PTR _tick$[ebp]
  00035	6a 0c		 push	 12			; 0000000cH
  00037	0f b7 c0	 movzx	 eax, ax
  0003a	5b		 pop	 ebx
  0003b	99		 cdq
  0003c	2b d9		 sub	 ebx, ecx
  0003e	f7 fb		 idiv	 ebx
  00040	66 89 56 04	 mov	 WORD PTR [esi+4], dx

; 78   : 		m_EncryptSeed  = (char)( rand()+pid+tick )%256;

  00044	ff d7		 call	 edi
  00046	02 45 f8	 add	 al, BYTE PTR _pid$[ebp]
  00049	02 45 fc	 add	 al, BYTE PTR _tick$[ebp]
  0004c	0f be c0	 movsx	 eax, al
  0004f	25 ff 00 00 80	 and	 eax, -2147483393	; 800000ffH
  00054	79 07		 jns	 SHORT $LN8@Init@3
  00056	48		 dec	 eax
  00057	0d 00 ff ff ff	 or	 eax, -256		; ffffff00H
  0005c	40		 inc	 eax
$LN8@Init@3:
  0005d	88 46 08	 mov	 BYTE PTR [esi+8], al

; 79   : 
; 80   : 		for (int i = 0; i < MAX_MEM_POOL ; i++)

  00060	33 db		 xor	 ebx, ebx
$LL3@Init@3:

; 81   : 			m_MemPool[i] = (char)( rand()+pid+tick )%256; // 

  00062	ff d7		 call	 edi
  00064	02 45 f8	 add	 al, BYTE PTR _pid$[ebp]
  00067	02 45 fc	 add	 al, BYTE PTR _tick$[ebp]
  0006a	0f be c0	 movsx	 eax, al
  0006d	25 ff 00 00 80	 and	 eax, -2147483393	; 800000ffH
  00072	79 07		 jns	 SHORT $LN9@Init@3
  00074	48		 dec	 eax
  00075	0d 00 ff ff ff	 or	 eax, -256		; ffffff00H
  0007a	40		 inc	 eax
$LN9@Init@3:
  0007b	88 44 1e 1c	 mov	 BYTE PTR [esi+ebx+28], al
  0007f	43		 inc	 ebx
  00080	83 fb 0c	 cmp	 ebx, 12			; 0000000cH
  00083	7c dd		 jl	 SHORT $LL3@Init@3

; 82   : 
; 83   : 		//UJ 130913, : szKey  
; 84   : 		//char szKey[ccddaabb::KEY_SIZE];//="";
; 85   : 		//for (int i = 0; i < ccddaabb::KEY_SIZE  ; i++)
; 86   : 		//	szKey[i] = (char)( rand()+pid+tick )%256; // 
; 87   : 		m_RC5.Setup( NULL, pid, tick );

  00085	ff 75 fc	 push	 DWORD PTR _tick$[ebp]
  00088	8d 4e 0c	 lea	 ecx, DWORD PTR [esi+12]
  0008b	ff 75 f8	 push	 DWORD PTR _pid$[ebp]
  0008e	6a 00		 push	 0
  00090	e8 00 00 00 00	 call	 ?Setup@ccddaabb@@QAEXPBDHH@Z ; ccddaabb::Setup
  00095	5f		 pop	 edi
  00096	5e		 pop	 esi
  00097	5b		 pop	 ebx

; 88   : 
; 89   : #ifdef _NOTUSE
; 90   : 		m_value        = 0;
; 91   : 		EncryptValueToPool((char*)&m_value);
; 92   : 		Debug();
; 93   : #endif
; 94   : 	}

  00098	c9		 leave
  00099	c3		 ret	 0
?Init@?$CEncrypt@_N@@AAEXXZ ENDP			; CEncrypt<bool>::Init
_TEXT	ENDS
PUBLIC	?DecryptValueToPool@?$CEncrypt@_N@@QAEXPA_N@Z	; CEncrypt<bool>::DecryptValueToPool
; Function compile flags: /Ogsp
;	COMDAT ?DecryptValueToPool@?$CEncrypt@_N@@QAEXPA_N@Z
_TEXT	SEGMENT
_value$ = 8						; size = 4
?DecryptValueToPool@?$CEncrypt@_N@@QAEXPA_N@Z PROC	; CEncrypt<bool>::DecryptValueToPool, COMDAT
; _this$ = ecx

; 219  : 	{

  00000	55		 push	 ebp
  00001	8b ec		 mov	 ebp, esp
  00003	56		 push	 esi

; 220  : 		m_RC5.DecryptByte( m_MemPool, m_TempMem, 4 );

  00004	8d 71 28	 lea	 esi, DWORD PTR [ecx+40]
  00007	6a 04		 push	 4
  00009	8d 41 1c	 lea	 eax, DWORD PTR [ecx+28]
  0000c	56		 push	 esi
  0000d	50		 push	 eax
  0000e	83 c1 0c	 add	 ecx, 12			; 0000000cH
  00011	e8 00 00 00 00	 call	 ?DecryptByte@ccddaabb@@QBEXPBDPADH@Z ; ccddaabb::DecryptByte

; 221  : 		*value = *((bool*)m_TempMem);

  00016	8a 06		 mov	 al, BYTE PTR [esi]
  00018	8b 4d 08	 mov	 ecx, DWORD PTR _value$[ebp]
  0001b	88 01		 mov	 BYTE PTR [ecx], al
  0001d	5e		 pop	 esi

; 222  : 	}

  0001e	5d		 pop	 ebp
  0001f	c2 04 00	 ret	 4
?DecryptValueToPool@?$CEncrypt@_N@@QAEXPA_N@Z ENDP	; CEncrypt<bool>::DecryptValueToPool
_TEXT	ENDS
PUBLIC	?DecryptValueToPool@?$CEncrypt@W4TeamType@@@@QAEXPAW4TeamType@@@Z ; CEncrypt<enum TeamType>::DecryptValueToPool
; Function compile flags: /Ogsp
;	COMDAT ?DecryptValueToPool@?$CEncrypt@W4TeamType@@@@QAEXPAW4TeamType@@@Z
_TEXT	SEGMENT
_value$ = 8						; size = 4
?DecryptValueToPool@?$CEncrypt@W4TeamType@@@@QAEXPAW4TeamType@@@Z PROC ; CEncrypt<enum TeamType>::DecryptValueToPool, COMDAT
; _this$ = ecx

; 2959 : 	{

  00000	55		 push	 ebp
  00001	8b ec		 mov	 ebp, esp
  00003	56		 push	 esi

; 2960 : 		m_RC5.DecryptByte( m_MemPool, m_TempMem, sizeof(TeamType) );

  00004	8d 71 28	 lea	 esi, DWORD PTR [ecx+40]
  00007	6a 04		 push	 4
  00009	8d 41 1c	 lea	 eax, DWORD PTR [ecx+28]
  0000c	56		 push	 esi
  0000d	50		 push	 eax
  0000e	83 c1 0c	 add	 ecx, 12			; 0000000cH
  00011	e8 00 00 00 00	 call	 ?DecryptByte@ccddaabb@@QBEXPBDPADH@Z ; ccddaabb::DecryptByte

; 2961 : 		*value = *((TeamType*)m_TempMem);

  00016	8b 06		 mov	 eax, DWORD PTR [esi]
  00018	8b 4d 08	 mov	 ecx, DWORD PTR _value$[ebp]
  0001b	89 01		 mov	 DWORD PTR [ecx], eax
  0001d	5e		 pop	 esi

; 2962 : 	}

  0001e	5d		 pop	 ebp
  0001f	c2 04 00	 ret	 4
?DecryptValueToPool@?$CEncrypt@W4TeamType@@@@QAEXPAW4TeamType@@@Z ENDP ; CEncrypt<enum TeamType>::DecryptValueToPool
_TEXT	ENDS
PUBLIC	??_C@_0BD@OLBABOEK@vector?$DMT?$DO?5too?5long?$AA@ ; `string'
PUBLIC	?_Xlen@?$vector@VioHashString@@V?$allocator@VioHashString@@@std@@@std@@IBEXXZ ; std::vector<ioHashString,std::allocator<ioHashString> >::_Xlen
EXTRN	__imp_?_Xlength_error@std@@YAXPBD@Z:PROC
;	COMDAT ??_C@_0BD@OLBABOEK@vector?$DMT?$DO?5too?5long?$AA@
; File c:\program files (x86)\microsoft visual studio 10.0\vc\include\vector
CONST	SEGMENT
??_C@_0BD@OLBABOEK@vector?$DMT?$DO?5too?5long?$AA@ DB 'vector<T> too long'
	DB	00H						; `string'
; Function compile flags: /Ogsp
CONST	ENDS
;	COMDAT ?_Xlen@?$vector@VioHashString@@V?$allocator@VioHashString@@@std@@@std@@IBEXXZ
_TEXT	SEGMENT
?_Xlen@?$vector@VioHashString@@V?$allocator@VioHashString@@@std@@@std@@IBEXXZ PROC ; std::vector<ioHashString,std::allocator<ioHashString> >::_Xlen, COMDAT
; _this$ = ecx

; 1427 : 		_Xlength_error("vector<T> too long");

  00000	68 00 00 00 00	 push	 OFFSET ??_C@_0BD@OLBABOEK@vector?$DMT?$DO?5too?5long?$AA@
  00005	ff 15 00 00 00
	00		 call	 DWORD PTR __imp_?_Xlength_error@std@@YAXPBD@Z
$LN4@Xlen:
$LN3@Xlen:
  0000b	cc		 int	 3
?_Xlen@?$vector@VioHashString@@V?$allocator@VioHashString@@@std@@@std@@IBEXXZ ENDP ; std::vector<ioHashString,std::allocator<ioHashString> >::_Xlen
_TEXT	ENDS
PUBLIC	?deallocate@?$allocator@VioHashString@@@std@@QAEXPAVioHashString@@I@Z ; std::allocator<ioHashString>::deallocate
; Function compile flags: /Ogsp
; File c:\program files (x86)\microsoft visual studio 10.0\vc\include\xmemory
;	COMDAT ?deallocate@?$allocator@VioHashString@@@std@@QAEXPAVioHashString@@I@Z
_TEXT	SEGMENT
__Ptr$ = 8						; size = 4
___formal$ = 12						; size = 4
?deallocate@?$allocator@VioHashString@@@std@@QAEXPAVioHashString@@I@Z PROC ; std::allocator<ioHashString>::deallocate, COMDAT
; _this$ = ecx

; 181  : 		{	// deallocate object at _Ptr, ignore size

  00000	55		 push	 ebp
  00001	8b ec		 mov	 ebp, esp

; 182  : 		::operator delete(_Ptr);

  00003	ff 75 08	 push	 DWORD PTR __Ptr$[ebp]
  00006	e8 00 00 00 00	 call	 ??3@YAXPAX@Z		; operator delete
  0000b	59		 pop	 ecx

; 183  : 		}

  0000c	5d		 pop	 ebp
  0000d	c2 08 00	 ret	 8
?deallocate@?$allocator@VioHashString@@@std@@QAEXPAVioHashString@@I@Z ENDP ; std::allocator<ioHashString>::deallocate
_TEXT	ENDS
PUBLIC	??0?$_Vector_const_iterator@V?$_Vector_val@VioHashString@@V?$allocator@VioHashString@@@std@@@std@@@std@@QAE@PAVioHashString@@PBU_Container_base0@1@@Z ; std::_Vector_const_iterator<std::_Vector_val<ioHashString,std::allocator<ioHashString> > >::_Vector_const_iterator<std::_Vector_val<ioHashString,std::allocator<ioHashString> > >
; Function compile flags: /Ogsp
; File c:\program files (x86)\microsoft visual studio 10.0\vc\include\vector
;	COMDAT ??0?$_Vector_const_iterator@V?$_Vector_val@VioHashString@@V?$allocator@VioHashString@@@std@@@std@@@std@@QAE@PAVioHashString@@PBU_Container_base0@1@@Z
_TEXT	SEGMENT
__Parg$ = 8						; size = 4
__Pvector$ = 12						; size = 4
??0?$_Vector_const_iterator@V?$_Vector_val@VioHashString@@V?$allocator@VioHashString@@@std@@@std@@@std@@QAE@PAVioHashString@@PBU_Container_base0@1@@Z PROC ; std::_Vector_const_iterator<std::_Vector_val<ioHashString,std::allocator<ioHashString> > >::_Vector_const_iterator<std::_Vector_val<ioHashString,std::allocator<ioHashString> > >, COMDAT
; _this$ = ecx

; 45   : 		{	// construct with pointer _Parg

  00000	55		 push	 ebp
  00001	8b ec		 mov	 ebp, esp
  00003	8b c1		 mov	 eax, ecx
  00005	8b 4d 08	 mov	 ecx, DWORD PTR __Parg$[ebp]
  00008	89 08		 mov	 DWORD PTR [eax], ecx

; 46   : 		this->_Adopt(_Pvector);
; 47   : 		}

  0000a	5d		 pop	 ebp
  0000b	c2 08 00	 ret	 8
??0?$_Vector_const_iterator@V?$_Vector_val@VioHashString@@V?$allocator@VioHashString@@@std@@@std@@@std@@QAE@PAVioHashString@@PBU_Container_base0@1@@Z ENDP ; std::_Vector_const_iterator<std::_Vector_val<ioHashString,std::allocator<ioHashString> > >::_Vector_const_iterator<std::_Vector_val<ioHashString,std::allocator<ioHashString> > >
_TEXT	ENDS
PUBLIC	??0?$_Vector_iterator@V?$_Vector_val@VioHashString@@V?$allocator@VioHashString@@@std@@@std@@@std@@QAE@PAVioHashString@@PBU_Container_base0@1@@Z ; std::_Vector_iterator<std::_Vector_val<ioHashString,std::allocator<ioHashString> > >::_Vector_iterator<std::_Vector_val<ioHashString,std::allocator<ioHashString> > >
; Function compile flags: /Ogsp
;	COMDAT ??0?$_Vector_iterator@V?$_Vector_val@VioHashString@@V?$allocator@VioHashString@@@std@@@std@@@std@@QAE@PAVioHashString@@PBU_Container_base0@1@@Z
_TEXT	SEGMENT
__Parg$ = 8						; size = 4
__Pvector$ = 12						; size = 4
??0?$_Vector_iterator@V?$_Vector_val@VioHashString@@V?$allocator@VioHashString@@@std@@@std@@@std@@QAE@PAVioHashString@@PBU_Container_base0@1@@Z PROC ; std::_Vector_iterator<std::_Vector_val<ioHashString,std::allocator<ioHashString> > >::_Vector_iterator<std::_Vector_val<ioHashString,std::allocator<ioHashString> > >, COMDAT
; _this$ = ecx

; 304  : 		{	// construct with pointer _Parg

  00000	55		 push	 ebp
  00001	8b ec		 mov	 ebp, esp
  00003	8b c1		 mov	 eax, ecx
  00005	8b 4d 08	 mov	 ecx, DWORD PTR __Parg$[ebp]
  00008	89 08		 mov	 DWORD PTR [eax], ecx

; 305  : 		}

  0000a	5d		 pop	 ebp
  0000b	c2 08 00	 ret	 8
??0?$_Vector_iterator@V?$_Vector_val@VioHashString@@V?$allocator@VioHashString@@@std@@@std@@@std@@QAE@PAVioHashString@@PBU_Container_base0@1@@Z ENDP ; std::_Vector_iterator<std::_Vector_val<ioHashString,std::allocator<ioHashString> > >::_Vector_iterator<std::_Vector_val<ioHashString,std::allocator<ioHashString> > >
_TEXT	ENDS
PUBLIC	?max_size@?$allocator@VioHashString@@@std@@QBEIXZ ; std::allocator<ioHashString>::max_size
; Function compile flags: /Ogsp
; File c:\program files (x86)\microsoft visual studio 10.0\vc\include\xmemory
;	COMDAT ?max_size@?$allocator@VioHashString@@@std@@QBEIXZ
_TEXT	SEGMENT
?max_size@?$allocator@VioHashString@@@std@@QBEIXZ PROC	; std::allocator<ioHashString>::max_size, COMDAT
; _this$ = ecx

; 218  : 		_SIZT _Count = (_SIZT)(-1) / sizeof (_Ty);
; 219  : 		return (0 < _Count ? _Count : 1);

  00000	b8 ff ff ff 0f	 mov	 eax, 268435455		; 0fffffffH

; 220  : 		}

  00005	c3		 ret	 0
?max_size@?$allocator@VioHashString@@@std@@QBEIXZ ENDP	; std::allocator<ioHashString>::max_size
_TEXT	ENDS
PUBLIC	?_Compat@?$_Vector_const_iterator@V?$_Vector_val@VioHashString@@V?$allocator@VioHashString@@@std@@@std@@@std@@QBEXABV12@@Z ; std::_Vector_const_iterator<std::_Vector_val<ioHashString,std::allocator<ioHashString> > >::_Compat
; Function compile flags: /Ogsp
; File c:\program files (x86)\microsoft visual studio 10.0\vc\include\vector
;	COMDAT ?_Compat@?$_Vector_const_iterator@V?$_Vector_val@VioHashString@@V?$allocator@VioHashString@@@std@@@std@@@std@@QBEXABV12@@Z
_TEXT	SEGMENT
___formal$ = 8						; size = 4
?_Compat@?$_Vector_const_iterator@V?$_Vector_val@VioHashString@@V?$allocator@VioHashString@@@std@@@std@@@std@@QBEXABV12@@Z PROC ; std::_Vector_const_iterator<std::_Vector_val<ioHashString,std::allocator<ioHashString> > >::_Compat, COMDAT
; _this$ = ecx

; 253  : 		}

  00000	c2 04 00	 ret	 4
?_Compat@?$_Vector_const_iterator@V?$_Vector_val@VioHashString@@V?$allocator@VioHashString@@@std@@@std@@@std@@QBEXABV12@@Z ENDP ; std::_Vector_const_iterator<std::_Vector_val<ioHashString,std::allocator<ioHashString> > >::_Compat
_TEXT	ENDS
PUBLIC	__TI2?AVbad_alloc@std@@
PUBLIC	??$_Allocate@VioHashString@@@std@@YAPAVioHashString@@IPAV1@@Z ; std::_Allocate<ioHashString>
PUBLIC	__CTA2?AVbad_alloc@std@@
PUBLIC	__CT??_R0?AVbad_alloc@std@@@8??0bad_alloc@std@@QAE@ABV01@@Z12
PUBLIC	??0bad_alloc@std@@QAE@ABV01@@Z			; std::bad_alloc::bad_alloc
PUBLIC	__CT??_R0?AVexception@std@@@8??0exception@std@@QAE@ABV01@@Z12
EXTRN	??2@YAPAXI@Z:PROC				; operator new
EXTRN	__CxxThrowException@8:PROC
EXTRN	??0exception@std@@QAE@ABV01@@Z:PROC		; std::exception::exception
;	COMDAT __CT??_R0?AVexception@std@@@8??0exception@std@@QAE@ABV01@@Z12
; File c:\program files (x86)\microsoft visual studio 10.0\vc\include\exception
xdata$x	SEGMENT
__CT??_R0?AVexception@std@@@8??0exception@std@@QAE@ABV01@@Z12 DD 00H
	DD	FLAT:??_R0?AVexception@std@@@8
	DD	00H
	DD	0ffffffffH
	ORG $+4
	DD	0cH
	DD	FLAT:??0exception@std@@QAE@ABV01@@Z
xdata$x	ENDS
;	COMDAT __CT??_R0?AVbad_alloc@std@@@8??0bad_alloc@std@@QAE@ABV01@@Z12
xdata$x	SEGMENT
__CT??_R0?AVbad_alloc@std@@@8??0bad_alloc@std@@QAE@ABV01@@Z12 DD 00H
	DD	FLAT:??_R0?AVbad_alloc@std@@@8
	DD	00H
	DD	0ffffffffH
	ORG $+4
	DD	0cH
	DD	FLAT:??0bad_alloc@std@@QAE@ABV01@@Z
xdata$x	ENDS
;	COMDAT __CTA2?AVbad_alloc@std@@
xdata$x	SEGMENT
__CTA2?AVbad_alloc@std@@ DD 02H
	DD	FLAT:__CT??_R0?AVbad_alloc@std@@@8??0bad_alloc@std@@QAE@ABV01@@Z12
	DD	FLAT:__CT??_R0?AVexception@std@@@8??0exception@std@@QAE@ABV01@@Z12
xdata$x	ENDS
;	COMDAT __TI2?AVbad_alloc@std@@
xdata$x	SEGMENT
__TI2?AVbad_alloc@std@@ DD 00H
	DD	FLAT:??1bad_alloc@std@@UAE@XZ
	DD	00H
	DD	FLAT:__CTA2?AVbad_alloc@std@@
; Function compile flags: /Ogsp
; File c:\program files (x86)\microsoft visual studio 10.0\vc\include\xmemory
xdata$x	ENDS
;	COMDAT ??$_Allocate@VioHashString@@@std@@YAPAVioHashString@@IPAV1@@Z
_TEXT	SEGMENT
$T538727 = -12						; size = 12
$T538732 = 8						; size = 4
__Count$ = 8						; size = 4
___formal$ = 12						; size = 4
??$_Allocate@VioHashString@@@std@@YAPAVioHashString@@IPAV1@@Z PROC ; std::_Allocate<ioHashString>, COMDAT

; 30   : 	{	// allocate storage for _Count elements of type _Ty

  00000	55		 push	 ebp
  00001	8b ec		 mov	 ebp, esp

; 31   : 	void *_Ptr = 0;
; 32   : 
; 33   : 	if (_Count <= 0)

  00003	8b 4d 08	 mov	 ecx, DWORD PTR __Count$[ebp]
  00006	83 ec 0c	 sub	 esp, 12			; 0000000cH
  00009	33 c0		 xor	 eax, eax
  0000b	85 c9		 test	 ecx, ecx

; 34   : 		_Count = 0;
; 35   : 	else if (((_SIZT)(-1) / sizeof (_Ty) < _Count)

  0000d	74 3c		 je	 SHORT $LN5@Allocate

; 36   : 		|| (_Ptr = ::operator new(_Count * sizeof (_Ty))) == 0)

  0000f	81 f9 ff ff ff
	0f		 cmp	 ecx, 268435455		; 0fffffffH
  00015	77 0e		 ja	 SHORT $LN1@Allocate
  00017	c1 e1 04	 shl	 ecx, 4
  0001a	51		 push	 ecx
  0001b	e8 00 00 00 00	 call	 ??2@YAPAXI@Z		; operator new
  00020	59		 pop	 ecx
  00021	85 c0		 test	 eax, eax

; 38   : 
; 39   : 	return ((_Ty _FARQ *)_Ptr);

  00023	75 26		 jne	 SHORT $LN5@Allocate
$LN1@Allocate:

; 37   : 		_THROW_NCEE(bad_alloc, 0);

  00025	83 65 08 00	 and	 DWORD PTR $T538732[ebp], 0
  00029	8d 45 08	 lea	 eax, DWORD PTR $T538732[ebp]
  0002c	50		 push	 eax
  0002d	8d 4d f4	 lea	 ecx, DWORD PTR $T538727[ebp]
  00030	ff 15 00 00 00
	00		 call	 DWORD PTR __imp_??0exception@std@@QAE@ABQBD@Z
  00036	68 00 00 00 00	 push	 OFFSET __TI2?AVbad_alloc@std@@
  0003b	8d 45 f4	 lea	 eax, DWORD PTR $T538727[ebp]
  0003e	50		 push	 eax
  0003f	c7 45 f4 00 00
	00 00		 mov	 DWORD PTR $T538727[ebp], OFFSET ??_7bad_alloc@std@@6B@
  00046	e8 00 00 00 00	 call	 __CxxThrowException@8
$LN10@Allocate:
$LN5@Allocate:

; 40   : 	}

  0004b	c9		 leave
  0004c	c3		 ret	 0
$LN9@Allocate:
??$_Allocate@VioHashString@@@std@@YAPAVioHashString@@IPAV1@@Z ENDP ; std::_Allocate<ioHashString>
_TEXT	ENDS
EXTRN	__imp_??0exception@std@@QAE@ABV01@@Z:PROC
; Function compile flags: /Ogsp
;	COMDAT ??0bad_alloc@std@@QAE@ABV01@@Z
_TEXT	SEGMENT
___that$ = 8						; size = 4
??0bad_alloc@std@@QAE@ABV01@@Z PROC			; std::bad_alloc::bad_alloc, COMDAT
; _this$ = ecx
  00000	55		 push	 ebp
  00001	8b ec		 mov	 ebp, esp
  00003	56		 push	 esi
  00004	ff 75 08	 push	 DWORD PTR ___that$[ebp]
  00007	8b f1		 mov	 esi, ecx
  00009	ff 15 00 00 00
	00		 call	 DWORD PTR __imp_??0exception@std@@QAE@ABV01@@Z
  0000f	c7 06 00 00 00
	00		 mov	 DWORD PTR [esi], OFFSET ??_7bad_alloc@std@@6B@
  00015	8b c6		 mov	 eax, esi
  00017	5e		 pop	 esi
  00018	5d		 pop	 ebp
  00019	c2 04 00	 ret	 4
??0bad_alloc@std@@QAE@ABV01@@Z ENDP			; std::bad_alloc::bad_alloc
_TEXT	ENDS
PUBLIC	??$forward@ABVioHashString@@@std@@YAABVioHashString@@ABV1@@Z ; std::forward<ioHashString const &>
; Function compile flags: /Ogsp
; File c:\program files (x86)\microsoft visual studio 10.0\vc\include\utility
;	COMDAT ??$forward@ABVioHashString@@@std@@YAABVioHashString@@ABV1@@Z
_TEXT	SEGMENT
__Arg$ = 8						; size = 4
??$forward@ABVioHashString@@@std@@YAABVioHashString@@ABV1@@Z PROC ; std::forward<ioHashString const &>, COMDAT

; 78   : 	{	// forward _Arg, given explicitly specified type parameter

  00000	55		 push	 ebp
  00001	8b ec		 mov	 ebp, esp

; 79   : 	return ((_Ty&&)_Arg);

  00003	8b 45 08	 mov	 eax, DWORD PTR __Arg$[ebp]

; 80   : 	}

  00006	5d		 pop	 ebp
  00007	c3		 ret	 0
??$forward@ABVioHashString@@@std@@YAABVioHashString@@ABV1@@Z ENDP ; std::forward<ioHashString const &>
_TEXT	ENDS
PUBLIC	??$forward@AAVioHashString@@@std@@YAAAVioHashString@@AAV1@@Z ; std::forward<ioHashString &>
; Function compile flags: /Ogsp
;	COMDAT ??$forward@AAVioHashString@@@std@@YAAAVioHashString@@AAV1@@Z
_TEXT	SEGMENT
__Arg$ = 8						; size = 4
??$forward@AAVioHashString@@@std@@YAAAVioHashString@@AAV1@@Z PROC ; std::forward<ioHashString &>, COMDAT

; 78   : 	{	// forward _Arg, given explicitly specified type parameter

  00000	55		 push	 ebp
  00001	8b ec		 mov	 ebp, esp

; 79   : 	return ((_Ty&&)_Arg);

  00003	8b 45 08	 mov	 eax, DWORD PTR __Arg$[ebp]

; 80   : 	}

  00006	5d		 pop	 ebp
  00007	c3		 ret	 0
??$forward@AAVioHashString@@@std@@YAAAVioHashString@@AAV1@@Z ENDP ; std::forward<ioHashString &>
_TEXT	ENDS
PUBLIC	??$_Ptr_cat@VioHashString@@V1@@std@@YA?AU_Nonscalar_ptr_iterator_tag@0@PAVioHashString@@0@Z ; std::_Ptr_cat<ioHashString,ioHashString>
; Function compile flags: /Ogsp
; File c:\program files (x86)\microsoft visual studio 10.0\vc\include\xutility
;	COMDAT ??$_Ptr_cat@VioHashString@@V1@@std@@YA?AU_Nonscalar_ptr_iterator_tag@0@PAVioHashString@@0@Z
_TEXT	SEGMENT
__Cat$ = -1						; size = 1
___formal$ = 8						; size = 4
___formal$ = 12						; size = 4
??$_Ptr_cat@VioHashString@@V1@@std@@YA?AU_Nonscalar_ptr_iterator_tag@0@PAVioHashString@@0@Z PROC ; std::_Ptr_cat<ioHashString,ioHashString>, COMDAT

; 516  : 	{	// return pointer category from pointers

  00000	55		 push	 ebp
  00001	8b ec		 mov	 ebp, esp
  00003	51		 push	 ecx

; 517  : 	typename _Ptr_cat_helper<_Elem1, _Elem2>::_Type _Cat;
; 518  : 	return (_Cat);

  00004	8a 45 ff	 mov	 al, BYTE PTR __Cat$[ebp]

; 519  : 	}

  00007	c9		 leave
  00008	c3		 ret	 0
??$_Ptr_cat@VioHashString@@V1@@std@@YA?AU_Nonscalar_ptr_iterator_tag@0@PAVioHashString@@0@Z ENDP ; std::_Ptr_cat<ioHashString,ioHashString>
_TEXT	ENDS
PUBLIC	??$_Ptr_cat@V?$_Vector_const_iterator@V?$_Vector_val@VioHashString@@V?$allocator@VioHashString@@@std@@@std@@@std@@PAVioHashString@@@std@@YA?AU_Nonscalar_ptr_iterator_tag@0@AAV?$_Vector_const_iterator@V?$_Vector_val@VioHashString@@V?$allocator@VioHashString@@@std@@@std@@@0@AAPAVioHashString@@@Z ; std::_Ptr_cat<std::_Vector_const_iterator<std::_Vector_val<ioHashString,std::allocator<ioHashString> > >,ioHashString *>
; Function compile flags: /Ogsp
;	COMDAT ??$_Ptr_cat@V?$_Vector_const_iterator@V?$_Vector_val@VioHashString@@V?$allocator@VioHashString@@@std@@@std@@@std@@PAVioHashString@@@std@@YA?AU_Nonscalar_ptr_iterator_tag@0@AAV?$_Vector_const_iterator@V?$_Vector_val@VioHashString@@V?$allocator@VioHashString@@@std@@@std@@@0@AAPAVioHashString@@@Z
_TEXT	SEGMENT
__Cat$ = -1						; size = 1
___formal$ = 8						; size = 4
___formal$ = 12						; size = 4
??$_Ptr_cat@V?$_Vector_const_iterator@V?$_Vector_val@VioHashString@@V?$allocator@VioHashString@@@std@@@std@@@std@@PAVioHashString@@@std@@YA?AU_Nonscalar_ptr_iterator_tag@0@AAV?$_Vector_const_iterator@V?$_Vector_val@VioHashString@@V?$allocator@VioHashString@@@std@@@std@@@0@AAPAVioHashString@@@Z PROC ; std::_Ptr_cat<std::_Vector_const_iterator<std::_Vector_val<ioHashString,std::allocator<ioHashString> > >,ioHashString *>, COMDAT

; 485  : 	{	// return pointer category from arbitrary arguments

  00000	55		 push	 ebp
  00001	8b ec		 mov	 ebp, esp
  00003	51		 push	 ecx

; 486  : 	_Nonscalar_ptr_iterator_tag _Cat;
; 487  : 	return (_Cat);

  00004	8a 45 ff	 mov	 al, BYTE PTR __Cat$[ebp]

; 488  : 	}

  00007	c9		 leave
  00008	c3		 ret	 0
??$_Ptr_cat@V?$_Vector_const_iterator@V?$_Vector_val@VioHashString@@V?$allocator@VioHashString@@@std@@@std@@@std@@PAVioHashString@@@std@@YA?AU_Nonscalar_ptr_iterator_tag@0@AAV?$_Vector_const_iterator@V?$_Vector_val@VioHashString@@V?$allocator@VioHashString@@@std@@@std@@@0@AAPAVioHashString@@@Z ENDP ; std::_Ptr_cat<std::_Vector_const_iterator<std::_Vector_val<ioHashString,std::allocator<ioHashString> > >,ioHashString *>
_TEXT	ENDS
PUBLIC	??$move@AAVioHashString@@@std@@YA$$QAVioHashString@@AAV1@@Z ; std::move<ioHashString &>
; Function compile flags: /Ogsp
; File c:\program files (x86)\microsoft visual studio 10.0\vc\include\utility
;	COMDAT ??$move@AAVioHashString@@@std@@YA$$QAVioHashString@@AAV1@@Z
_TEXT	SEGMENT
__Arg$ = 8						; size = 4
??$move@AAVioHashString@@@std@@YA$$QAVioHashString@@AAV1@@Z PROC ; std::move<ioHashString &>, COMDAT

; 86   : 	{	// forward _Arg as movable

  00000	55		 push	 ebp
  00001	8b ec		 mov	 ebp, esp

; 87   : 	return ((typename tr1::_Remove_reference<_Ty>::_Type&&)_Arg);

  00003	8b 45 08	 mov	 eax, DWORD PTR __Arg$[ebp]

; 88   : 	}

  00006	5d		 pop	 ebp
  00007	c3		 ret	 0
??$move@AAVioHashString@@@std@@YA$$QAVioHashString@@AAV1@@Z ENDP ; std::move<ioHashString &>
_TEXT	ENDS
PUBLIC	??D?$_Vector_const_iterator@V?$_Vector_val@VioHashString@@V?$allocator@VioHashString@@@std@@@std@@@std@@QBEABVioHashString@@XZ ; std::_Vector_const_iterator<std::_Vector_val<ioHashString,std::allocator<ioHashString> > >::operator*
; Function compile flags: /Ogsp
; File c:\program files (x86)\microsoft visual studio 10.0\vc\include\vector
;	COMDAT ??D?$_Vector_const_iterator@V?$_Vector_val@VioHashString@@V?$allocator@VioHashString@@@std@@@std@@@std@@QBEABVioHashString@@XZ
_TEXT	SEGMENT
??D?$_Vector_const_iterator@V?$_Vector_val@VioHashString@@V?$allocator@VioHashString@@@std@@@std@@@std@@QBEABVioHashString@@XZ PROC ; std::_Vector_const_iterator<std::_Vector_val<ioHashString,std::allocator<ioHashString> > >::operator*, COMDAT
; _this$ = ecx

; 64   :  #if _ITERATOR_DEBUG_LEVEL == 2
; 65   : 		if (this->_Getcont() == 0
; 66   : 			|| this->_Ptr == 0
; 67   : 			|| this->_Ptr < ((_Myvec *)this->_Getcont())->_Myfirst
; 68   : 			|| ((_Myvec *)this->_Getcont())->_Mylast <= this->_Ptr)
; 69   : 			{	// report error
; 70   : 			_DEBUG_ERROR("vector iterator not dereferencable");
; 71   : 			_SCL_SECURE_OUT_OF_RANGE;
; 72   : 			}
; 73   : 
; 74   :  #elif _ITERATOR_DEBUG_LEVEL == 1
; 75   : 		_SCL_SECURE_VALIDATE(this->_Getcont() != 0);
; 76   : 		_SCL_SECURE_VALIDATE_RANGE(
; 77   : 			this->_Ptr != 0
; 78   : 			&& ((_Myvec *)this->_Getcont())->_Myfirst <= this->_Ptr
; 79   : 			&& this->_Ptr < ((_Myvec *)this->_Getcont())->_Mylast);
; 80   :  #endif /* _ITERATOR_DEBUG_LEVEL */
; 81   : 
; 82   : 		__analysis_assume(this->_Ptr != 0);
; 83   : 
; 84   : 		return (*this->_Ptr);

  00000	8b 01		 mov	 eax, DWORD PTR [ecx]

; 85   : 		}

  00002	c3		 ret	 0
??D?$_Vector_const_iterator@V?$_Vector_val@VioHashString@@V?$allocator@VioHashString@@@std@@@std@@@std@@QBEABVioHashString@@XZ ENDP ; std::_Vector_const_iterator<std::_Vector_val<ioHashString,std::allocator<ioHashString> > >::operator*
_TEXT	ENDS
PUBLIC	??E?$_Vector_const_iterator@V?$_Vector_val@VioHashString@@V?$allocator@VioHashString@@@std@@@std@@@std@@QAEAAV01@XZ ; std::_Vector_const_iterator<std::_Vector_val<ioHashString,std::allocator<ioHashString> > >::operator++
; Function compile flags: /Ogsp
;	COMDAT ??E?$_Vector_const_iterator@V?$_Vector_val@VioHashString@@V?$allocator@VioHashString@@@std@@@std@@@std@@QAEAAV01@XZ
_TEXT	SEGMENT
??E?$_Vector_const_iterator@V?$_Vector_val@VioHashString@@V?$allocator@VioHashString@@@std@@@std@@@std@@QAEAAV01@XZ PROC ; std::_Vector_const_iterator<std::_Vector_val<ioHashString,std::allocator<ioHashString> > >::operator++, COMDAT
; _this$ = ecx

; 93   : 		{	// preincrement

  00000	8b c1		 mov	 eax, ecx

; 94   :  #if _ITERATOR_DEBUG_LEVEL == 2
; 95   : 		if (this->_Getcont() == 0
; 96   : 			|| this->_Ptr == 0
; 97   : 			|| ((_Myvec *)this->_Getcont())->_Mylast <= this->_Ptr)
; 98   : 			{	// report error
; 99   : 			_DEBUG_ERROR("vector iterator not incrementable");
; 100  : 			_SCL_SECURE_OUT_OF_RANGE;
; 101  : 			}
; 102  : 
; 103  :  #elif _ITERATOR_DEBUG_LEVEL == 1
; 104  : 		_SCL_SECURE_VALIDATE(this->_Getcont() != 0);
; 105  : 		_SCL_SECURE_VALIDATE_RANGE(
; 106  : 			this->_Ptr != 0
; 107  : 			&& this->_Ptr < ((_Myvec *)this->_Getcont())->_Mylast);
; 108  :  #endif /* _ITERATOR_DEBUG_LEVEL */
; 109  : 
; 110  : 		++this->_Ptr;

  00002	83 00 10	 add	 DWORD PTR [eax], 16	; 00000010H

; 111  : 		return (*this);
; 112  : 		}

  00005	c3		 ret	 0
??E?$_Vector_const_iterator@V?$_Vector_val@VioHashString@@V?$allocator@VioHashString@@@std@@@std@@@std@@QAEAAV01@XZ ENDP ; std::_Vector_const_iterator<std::_Vector_val<ioHashString,std::allocator<ioHashString> > >::operator++
_TEXT	ENDS
PUBLIC	??_GioHashString@@QAEPAXI@Z			; ioHashString::`scalar deleting destructor'
EXTRN	__imp_??1ioHashString@@QAE@XZ:PROC
; Function compile flags: /Ogsp
;	COMDAT ??_GioHashString@@QAEPAXI@Z
_TEXT	SEGMENT
___flags$ = 8						; size = 4
??_GioHashString@@QAEPAXI@Z PROC			; ioHashString::`scalar deleting destructor', COMDAT
; _this$ = ecx
  00000	55		 push	 ebp
  00001	8b ec		 mov	 ebp, esp
  00003	56		 push	 esi
  00004	8b f1		 mov	 esi, ecx
  00006	ff 15 00 00 00
	00		 call	 DWORD PTR __imp_??1ioHashString@@QAE@XZ
  0000c	f6 45 08 01	 test	 BYTE PTR ___flags$[ebp], 1
  00010	74 07		 je	 SHORT $LN1@scalar@5
  00012	56		 push	 esi
  00013	e8 00 00 00 00	 call	 ??3@YAXPAX@Z		; operator delete
  00018	59		 pop	 ecx
$LN1@scalar@5:
  00019	8b c6		 mov	 eax, esi
  0001b	5e		 pop	 esi
  0001c	5d		 pop	 ebp
  0001d	c2 04 00	 ret	 4
??_GioHashString@@QAEPAXI@Z ENDP			; ioHashString::`scalar deleting destructor'
_TEXT	ENDS
PUBLIC	??$_Construct@VioHashString@@ABV1@@std@@YAXPAVioHashString@@ABV1@@Z ; std::_Construct<ioHashString,ioHashString const &>
EXTRN	__imp_??0ioHashString@@QAE@ABV0@@Z:PROC
EXTRN	___CxxFrameHandler3:PROC
EXTRN	@__security_check_cookie@4:PROC
EXTRN	__EH_epilog3:PROC
EXTRN	__EH_prolog3:PROC
;	COMDAT xdata$x
; File c:\program files (x86)\microsoft visual studio 10.0\vc\include\utility
xdata$x	SEGMENT
__unwindtable$??$_Construct@VioHashString@@ABV1@@std@@YAXPAVioHashString@@ABV1@@Z DD 0ffffffffH
	DD	FLAT:__unwindfunclet$??$_Construct@VioHashString@@ABV1@@std@@YAXPAVioHashString@@ABV1@@Z$0
__ehfuncinfo$??$_Construct@VioHashString@@ABV1@@std@@YAXPAVioHashString@@ABV1@@Z DD 019930522H
	DD	01H
	DD	FLAT:__unwindtable$??$_Construct@VioHashString@@ABV1@@std@@YAXPAVioHashString@@ABV1@@Z
	DD	2 DUP(00H)
	DD	2 DUP(00H)
	DD	00H
	DD	01H
; Function compile flags: /Ogsp
; File c:\program files (x86)\microsoft visual studio 10.0\vc\include\xmemory
xdata$x	ENDS
;	COMDAT ??$_Construct@VioHashString@@ABV1@@std@@YAXPAVioHashString@@ABV1@@Z
_TEXT	SEGMENT
$T538759 = -16						; size = 4
__$EHRec$ = -12						; size = 12
__Vptr$ = 8						; size = 4
__Ptr$ = 8						; size = 4
__Val$ = 12						; size = 4
??$_Construct@VioHashString@@ABV1@@std@@YAXPAVioHashString@@ABV1@@Z PROC ; std::_Construct<ioHashString,ioHashString const &>, COMDAT

; 46   : 	{	// construct object at _Ptr with value _Val

  00000	6a 04		 push	 4
  00002	b8 00 00 00 00	 mov	 eax, __ehhandler$??$_Construct@VioHashString@@ABV1@@std@@YAXPAVioHashString@@ABV1@@Z
  00007	e8 00 00 00 00	 call	 __EH_prolog3

; 47   : 	void _FARQ *_Vptr = _Ptr;

  0000c	8b 4d 08	 mov	 ecx, DWORD PTR __Ptr$[ebp]
  0000f	89 4d 08	 mov	 DWORD PTR __Vptr$[ebp], ecx

; 48   : 	::new (_Vptr) _Ty1(_STD forward<_Ty2>(_Val));

  00012	89 4d f0	 mov	 DWORD PTR $T538759[ebp], ecx
  00015	83 65 fc 00	 and	 DWORD PTR __$EHRec$[ebp+8], 0
  00019	85 c9		 test	 ecx, ecx
  0001b	74 09		 je	 SHORT $LN3@Construct
  0001d	ff 75 0c	 push	 DWORD PTR __Val$[ebp]
  00020	ff 15 00 00 00
	00		 call	 DWORD PTR __imp_??0ioHashString@@QAE@ABV0@@Z
$LN3@Construct:

; 49   : 	}

  00026	e8 00 00 00 00	 call	 __EH_epilog3
  0002b	c3		 ret	 0
_TEXT	ENDS
;	COMDAT text$x
text$x	SEGMENT
__unwindfunclet$??$_Construct@VioHashString@@ABV1@@std@@YAXPAVioHashString@@ABV1@@Z$0:
  00000	ff 75 08	 push	 DWORD PTR __Vptr$[ebp]
  00003	ff 75 f0	 push	 DWORD PTR $T538759[ebp]
  00006	e8 00 00 00 00	 call	 ??3@YAXPAX0@Z		; operator delete
  0000b	59		 pop	 ecx
  0000c	59		 pop	 ecx
  0000d	c3		 ret	 0
__ehhandler$??$_Construct@VioHashString@@ABV1@@std@@YAXPAVioHashString@@ABV1@@Z:
  0000e	8b 54 24 08	 mov	 edx, DWORD PTR [esp+8]
  00012	8d 42 0c	 lea	 eax, DWORD PTR [edx+12]
  00015	8b 4a ec	 mov	 ecx, DWORD PTR [edx-20]
  00018	33 c8		 xor	 ecx, eax
  0001a	e8 00 00 00 00	 call	 @__security_check_cookie@4
  0001f	b8 00 00 00 00	 mov	 eax, OFFSET __ehfuncinfo$??$_Construct@VioHashString@@ABV1@@std@@YAXPAVioHashString@@ABV1@@Z
  00024	e9 00 00 00 00	 jmp	 ___CxxFrameHandler3
text$x	ENDS
??$_Construct@VioHashString@@ABV1@@std@@YAXPAVioHashString@@ABV1@@Z ENDP ; std::_Construct<ioHashString,ioHashString const &>
PUBLIC	??_R0?AVioBaseChar@@@8				; ioBaseChar `RTTI Type Descriptor'
PUBLIC	?ToBaseChar@@YAPAVioBaseChar@@PAVioGameEntity@@@Z ; ToBaseChar
;	COMDAT ??_R0?AVioBaseChar@@@8
; File d:\lost saga for developer\youtube\tutorial\source\src\lsclient\iobasechar.h
_DATA	SEGMENT
??_R0?AVioBaseChar@@@8 DD FLAT:??_7type_info@@6B@	; ioBaseChar `RTTI Type Descriptor'
	DD	00H
	DB	'.?AVioBaseChar@@', 00H
; Function compile flags: /Ogsp
_DATA	ENDS
;	COMDAT ?ToBaseChar@@YAPAVioBaseChar@@PAVioGameEntity@@@Z
_TEXT	SEGMENT
_pObj$ = 8						; size = 4
?ToBaseChar@@YAPAVioBaseChar@@PAVioGameEntity@@@Z PROC	; ToBaseChar, COMDAT

; 4326 : {

  00000	55		 push	 ebp
  00001	8b ec		 mov	 ebp, esp
  00003	56		 push	 esi

; 4327 : 	ioPlayEntity *pPlay = ToPlayEntity( pObj );

  00004	ff 75 08	 push	 DWORD PTR _pObj$[ebp]
  00007	e8 00 00 00 00	 call	 ?ToPlayEntity@@YAPAVioPlayEntity@@PAVioGameEntity@@@Z ; ToPlayEntity
  0000c	8b f0		 mov	 esi, eax
  0000e	59		 pop	 ecx

; 4328 : 	if( !pPlay || pPlay->GetSubType() != ioPlayEntity::PST_CHAR )

  0000f	85 f6		 test	 esi, esi
  00011	74 25		 je	 SHORT $LN1@ToBaseChar
  00013	8b 06		 mov	 eax, DWORD PTR [esi]
  00015	8b ce		 mov	 ecx, esi
  00017	ff 90 a4 00 00
	00		 call	 DWORD PTR [eax+164]
  0001d	85 c0		 test	 eax, eax
  0001f	75 17		 jne	 SHORT $LN1@ToBaseChar

; 4330 : 
; 4331 : 	return dynamic_cast< ioBaseChar* >( pPlay );

  00021	50		 push	 eax
  00022	68 00 00 00 00	 push	 OFFSET ??_R0?AVioBaseChar@@@8
  00027	68 00 00 00 00	 push	 OFFSET ??_R0?AVioPlayEntity@@@8
  0002c	50		 push	 eax
  0002d	56		 push	 esi
  0002e	e8 00 00 00 00	 call	 ___RTDynamicCast
  00033	83 c4 14	 add	 esp, 20			; 00000014H
  00036	eb 02		 jmp	 SHORT $LN3@ToBaseChar
$LN1@ToBaseChar:

; 4329 : 		return NULL;

  00038	33 c0		 xor	 eax, eax
$LN3@ToBaseChar:
  0003a	5e		 pop	 esi

; 4332 : }

  0003b	5d		 pop	 ebp
  0003c	c3		 ret	 0
?ToBaseChar@@YAPAVioBaseChar@@PAVioGameEntity@@@Z ENDP	; ToBaseChar
_TEXT	ENDS
PUBLIC	??_R0?AVioNpcChar@@@8				; ioNpcChar `RTTI Type Descriptor'
PUBLIC	?ToNpcChar@@YAPAVioNpcChar@@PAVioGameEntity@@@Z	; ToNpcChar
;	COMDAT ??_R0?AVioNpcChar@@@8
; File d:\lost saga for developer\youtube\tutorial\source\src\lsclient\ionpcchar.h
_DATA	SEGMENT
??_R0?AVioNpcChar@@@8 DD FLAT:??_7type_info@@6B@	; ioNpcChar `RTTI Type Descriptor'
	DD	00H
	DB	'.?AVioNpcChar@@', 00H
; Function compile flags: /Ogsp
_DATA	ENDS
;	COMDAT ?ToNpcChar@@YAPAVioNpcChar@@PAVioGameEntity@@@Z
_TEXT	SEGMENT
_pObj$ = 8						; size = 4
?ToNpcChar@@YAPAVioNpcChar@@PAVioGameEntity@@@Z PROC	; ToNpcChar, COMDAT

; 361  : {

  00000	55		 push	 ebp
  00001	8b ec		 mov	 ebp, esp
  00003	56		 push	 esi

; 362  : 	ioBaseChar *pChar = ToBaseChar( pObj );

  00004	ff 75 08	 push	 DWORD PTR _pObj$[ebp]
  00007	e8 00 00 00 00	 call	 ?ToBaseChar@@YAPAVioBaseChar@@PAVioGameEntity@@@Z ; ToBaseChar
  0000c	8b f0		 mov	 esi, eax
  0000e	59		 pop	 ecx

; 363  : 	if( !pChar || pChar->GetControlType() != CONTROL_AI )

  0000f	85 f6		 test	 esi, esi
  00011	74 28		 je	 SHORT $LN1@ToNpcChar
  00013	8b 06		 mov	 eax, DWORD PTR [esi]
  00015	8b ce		 mov	 ecx, esi
  00017	ff 90 ec 00 00
	00		 call	 DWORD PTR [eax+236]
  0001d	83 f8 02	 cmp	 eax, 2
  00020	75 19		 jne	 SHORT $LN1@ToNpcChar

; 365  : 
; 366  : 	return dynamic_cast< ioNpcChar* >(pChar);

  00022	6a 00		 push	 0
  00024	68 00 00 00 00	 push	 OFFSET ??_R0?AVioNpcChar@@@8
  00029	68 00 00 00 00	 push	 OFFSET ??_R0?AVioBaseChar@@@8
  0002e	6a 00		 push	 0
  00030	56		 push	 esi
  00031	e8 00 00 00 00	 call	 ___RTDynamicCast
  00036	83 c4 14	 add	 esp, 20			; 00000014H
  00039	eb 02		 jmp	 SHORT $LN3@ToNpcChar
$LN1@ToNpcChar:

; 364  : 		return NULL;

  0003b	33 c0		 xor	 eax, eax
$LN3@ToNpcChar:
  0003d	5e		 pop	 esi

; 367  : }

  0003e	5d		 pop	 ebp
  0003f	c3		 ret	 0
?ToNpcChar@@YAPAVioNpcChar@@PAVioGameEntity@@@Z ENDP	; ToNpcChar
_TEXT	ENDS
PUBLIC	__$ArrayPad$
PUBLIC	?AttackSkillFire@ioGrapplingSwing2Skill@@MAEXPAVioBaseChar@@@Z ; ioGrapplingSwing2Skill::AttackSkillFire
EXTRN	??1SP2Packet@@UAE@XZ:PROC			; SP2Packet::~SP2Packet
EXTRN	?SendToAllPlayingUser@P2PNetwork@@YAXAAVSP2Packet@@PAVioBaseChar@@@Z:PROC ; P2PNetwork::SendToAllPlayingUser
EXTRN	??6SP2Packet@@QAEAAV0@ABUD3DXQUATERNION@@@Z:PROC ; SP2Packet::operator<<
EXTRN	??6SP2Packet@@QAEAAV0@H@Z:PROC			; SP2Packet::operator<<
EXTRN	??6SP2Packet@@QAEAAV0@ABVioHashString@@@Z:PROC	; SP2Packet::operator<<
EXTRN	??0SP2Packet@@QAE@K@Z:PROC			; SP2Packet::SP2Packet
EXTRN	?SetSkillMoveEnable@ioBaseChar@@QAEX_N0@Z:PROC	; ioBaseChar::SetSkillMoveEnable
EXTRN	?ChangeSkillWeaponMesh@ioBaseChar@@QAE_NPAVioSkill@@ABVioHashString@@_N@Z:PROC ; ioBaseChar::ChangeSkillWeaponMesh
EXTRN	?AttackSkillFire@ioAttackSkill@@MAEXPAVioBaseChar@@@Z:PROC ; ioAttackSkill::AttackSkillFire
EXTRN	___security_cookie:DWORD
EXTRN	__chkstk:PROC
;	COMDAT xdata$x
; File d:\lost saga for developer\youtube\tutorial\source\src\lsclient\iobasechar.h
xdata$x	SEGMENT
__unwindtable$?AttackSkillFire@ioGrapplingSwing2Skill@@MAEXPAVioBaseChar@@@Z DD 0ffffffffH
	DD	FLAT:__unwindfunclet$?AttackSkillFire@ioGrapplingSwing2Skill@@MAEXPAVioBaseChar@@@Z$0
__ehfuncinfo$?AttackSkillFire@ioGrapplingSwing2Skill@@MAEXPAVioBaseChar@@@Z DD 019930522H
	DD	01H
	DD	FLAT:__unwindtable$?AttackSkillFire@ioGrapplingSwing2Skill@@MAEXPAVioBaseChar@@@Z
	DD	2 DUP(00H)
	DD	2 DUP(00H)
	DD	00H
	DD	01H
; Function compile flags: /Ogsp
; File d:\lost saga for developer\youtube\tutorial\source\src\lsclient\iograpplingswing2skill.cpp
xdata$x	ENDS
;	COMDAT ?AttackSkillFire@ioGrapplingSwing2Skill@@MAEXPAVioBaseChar@@@Z
_TEXT	SEGMENT
_kPacket$533003 = -32808				; size = 32792
__$ArrayPad$ = -16					; size = 4
__$EHRec$ = -12						; size = 12
_pChar$ = 8						; size = 4
?AttackSkillFire@ioGrapplingSwing2Skill@@MAEXPAVioBaseChar@@@Z PROC ; ioGrapplingSwing2Skill::AttackSkillFire, COMDAT
; _this$ = ecx

; 393  : {

  00000	55		 push	 ebp
  00001	8b ec		 mov	 ebp, esp
  00003	6a ff		 push	 -1
  00005	68 00 00 00 00	 push	 __ehhandler$?AttackSkillFire@ioGrapplingSwing2Skill@@MAEXPAVioBaseChar@@@Z
  0000a	64 a1 00 00 00
	00		 mov	 eax, DWORD PTR fs:0
  00010	50		 push	 eax
  00011	b8 1c 80 00 00	 mov	 eax, 32796		; 0000801cH
  00016	e8 00 00 00 00	 call	 __chkstk
  0001b	a1 00 00 00 00	 mov	 eax, DWORD PTR ___security_cookie
  00020	33 c5		 xor	 eax, ebp
  00022	89 45 f0	 mov	 DWORD PTR __$ArrayPad$[ebp], eax
  00025	53		 push	 ebx
  00026	56		 push	 esi
  00027	57		 push	 edi
  00028	50		 push	 eax
  00029	8d 45 f4	 lea	 eax, DWORD PTR __$EHRec$[ebp]
  0002c	64 a3 00 00 00
	00		 mov	 DWORD PTR fs:0, eax
  00032	8b 7d 08	 mov	 edi, DWORD PTR _pChar$[ebp]

; 394  : 	ioAttackSkill::AttackSkillFire( pChar );

  00035	57		 push	 edi
  00036	8b f1		 mov	 esi, ecx
  00038	e8 00 00 00 00	 call	 ?AttackSkillFire@ioAttackSkill@@MAEXPAVioBaseChar@@@Z ; ioAttackSkill::AttackSkillFire

; 395  : 
; 396  : 	m_SkillState = SS_ACTION;
; 397  : 
; 398  : 	if( !pChar ) return;

  0003d	33 db		 xor	 ebx, ebx
  0003f	c7 86 e4 10 00
	00 02 00 00 00	 mov	 DWORD PTR [esi+4324], 2
  00049	3b fb		 cmp	 edi, ebx
  0004b	0f 84 d1 00 00
	00		 je	 $LN1@AttackSkil

; 399  : 	ioPlayStage *pStage = pChar->GetCreator();
; 400  : 	if( !pStage ) return;

  00051	39 9f 44 03 00
	00		 cmp	 DWORD PTR [edi+836], ebx
  00057	0f 84 c5 00 00
	00		 je	 $LN1@AttackSkil

; 401  : 
; 402  : 	//   
; 403  : 	if( !m_bSetHandMesh && m_bUseItemMesh && !m_HandMesh.IsEmpty() )

  0005d	38 9e 0a 0f 00
	00		 cmp	 BYTE PTR [esi+3850], bl
  00063	75 36		 jne	 SHORT $LN2@AttackSkil
  00065	38 9e 08 0f 00
	00		 cmp	 BYTE PTR [esi+3848], bl
  0006b	74 2e		 je	 SHORT $LN2@AttackSkil
  0006d	8d 8e f8 0e 00
	00		 lea	 ecx, DWORD PTR [esi+3832]
  00073	ff 15 00 00 00
	00		 call	 DWORD PTR __imp_?IsEmpty@ioHashString@@QBE_NXZ
  00079	84 c0		 test	 al, al
  0007b	75 1e		 jne	 SHORT $LN2@AttackSkil

; 404  : 	{
; 405  : 		pChar->ChangeSkillWeaponMesh( this, m_HandMesh, m_bVisibleEquipMesh );

  0007d	0f b6 86 09 0f
	00 00		 movzx	 eax, BYTE PTR [esi+3849]
  00084	50		 push	 eax
  00085	8d 86 f8 0e 00
	00		 lea	 eax, DWORD PTR [esi+3832]
  0008b	50		 push	 eax
  0008c	56		 push	 esi
  0008d	8b cf		 mov	 ecx, edi
  0008f	e8 00 00 00 00	 call	 ?ChangeSkillWeaponMesh@ioBaseChar@@QAE_NPAVioSkill@@ABVioHashString@@_N@Z ; ioBaseChar::ChangeSkillWeaponMesh

; 406  : 		m_bSetHandMesh = true;

  00094	c6 86 0a 0f 00
	00 01		 mov	 BYTE PTR [esi+3850], 1
$LN2@AttackSkil:

; 407  : 	}
; 408  : 
; 409  : 	pChar->SetSkillMoveEnable( false, false );

  0009b	53		 push	 ebx
  0009c	53		 push	 ebx
  0009d	8b cf		 mov	 ecx, edi
  0009f	e8 00 00 00 00	 call	 ?SetSkillMoveEnable@ioBaseChar@@QAEX_N0@Z ; ioBaseChar::SetSkillMoveEnable

; 410  : 
; 411  : 	if( pChar->IsNeedSendNetwork() )

  000a4	8b 07		 mov	 eax, DWORD PTR [edi]
  000a6	8b cf		 mov	 ecx, edi
  000a8	ff 90 04 01 00
	00		 call	 DWORD PTR [eax+260]
  000ae	84 c0		 test	 al, al
  000b0	74 70		 je	 SHORT $LN1@AttackSkil

; 412  : 	{
; 413  : 		SP2Packet kPacket( CUPK_SKILL_EXTRA_INFO );

  000b2	68 39 41 00 00	 push	 16697			; 00004139H
  000b7	8d 8d d8 7f ff
	ff		 lea	 ecx, DWORD PTR _kPacket$533003[ebp]
  000bd	e8 00 00 00 00	 call	 ??0SP2Packet@@QAE@K@Z	; SP2Packet::SP2Packet

; 414  : 		kPacket << pChar->GetCharName();

  000c2	8d 87 d4 02 00
	00		 lea	 eax, DWORD PTR [edi+724]
  000c8	50		 push	 eax
  000c9	8d 8d d8 7f ff
	ff		 lea	 ecx, DWORD PTR _kPacket$533003[ebp]
  000cf	89 5d fc	 mov	 DWORD PTR __$EHRec$[ebp+8], ebx
  000d2	e8 00 00 00 00	 call	 ??6SP2Packet@@QAEAAV0@ABVioHashString@@@Z ; SP2Packet::operator<<

; 415  : 		kPacket << GetName();

  000d7	83 c6 24	 add	 esi, 36			; 00000024H
  000da	56		 push	 esi
  000db	8d 8d d8 7f ff
	ff		 lea	 ecx, DWORD PTR _kPacket$533003[ebp]
  000e1	e8 00 00 00 00	 call	 ??6SP2Packet@@QAEAAV0@ABVioHashString@@@Z ; SP2Packet::operator<<

; 416  : 		kPacket << SSC_ATTACK;

  000e6	53		 push	 ebx
  000e7	8d 8d d8 7f ff
	ff		 lea	 ecx, DWORD PTR _kPacket$533003[ebp]
  000ed	e8 00 00 00 00	 call	 ??6SP2Packet@@QAEAAV0@H@Z ; SP2Packet::operator<<

; 417  : 		kPacket << pChar->GetTargetRot();

  000f2	81 c7 a4 06 00
	00		 add	 edi, 1700		; 000006a4H
  000f8	57		 push	 edi
  000f9	8d 8d d8 7f ff
	ff		 lea	 ecx, DWORD PTR _kPacket$533003[ebp]
  000ff	e8 00 00 00 00	 call	 ??6SP2Packet@@QAEAAV0@ABUD3DXQUATERNION@@@Z ; SP2Packet::operator<<

; 418  : 		P2PNetwork::SendToAllPlayingUser( kPacket );

  00104	8d 85 d8 7f ff
	ff		 lea	 eax, DWORD PTR _kPacket$533003[ebp]
  0010a	53		 push	 ebx
  0010b	50		 push	 eax
  0010c	e8 00 00 00 00	 call	 ?SendToAllPlayingUser@P2PNetwork@@YAXAAVSP2Packet@@PAVioBaseChar@@@Z ; P2PNetwork::SendToAllPlayingUser

; 419  : 	}

  00111	83 4d fc ff	 or	 DWORD PTR __$EHRec$[ebp+8], -1
  00115	59		 pop	 ecx
  00116	59		 pop	 ecx
  00117	8d 8d d8 7f ff
	ff		 lea	 ecx, DWORD PTR _kPacket$533003[ebp]
  0011d	e8 00 00 00 00	 call	 ??1SP2Packet@@UAE@XZ	; SP2Packet::~SP2Packet
$LN1@AttackSkil:

; 420  : }

  00122	8b 4d f4	 mov	 ecx, DWORD PTR __$EHRec$[ebp]
  00125	64 89 0d 00 00
	00 00		 mov	 DWORD PTR fs:0, ecx
  0012c	59		 pop	 ecx
  0012d	5f		 pop	 edi
  0012e	5e		 pop	 esi
  0012f	5b		 pop	 ebx
  00130	8b 4d f0	 mov	 ecx, DWORD PTR __$ArrayPad$[ebp]
  00133	33 cd		 xor	 ecx, ebp
  00135	e8 00 00 00 00	 call	 @__security_check_cookie@4
  0013a	c9		 leave
  0013b	c2 04 00	 ret	 4
_TEXT	ENDS
;	COMDAT text$x
text$x	SEGMENT
__unwindfunclet$?AttackSkillFire@ioGrapplingSwing2Skill@@MAEXPAVioBaseChar@@@Z$0:
  00000	8d 8d d8 7f ff
	ff		 lea	 ecx, DWORD PTR _kPacket$533003[ebp]
  00006	e9 00 00 00 00	 jmp	 ??1SP2Packet@@UAE@XZ	; SP2Packet::~SP2Packet
__ehhandler$?AttackSkillFire@ioGrapplingSwing2Skill@@MAEXPAVioBaseChar@@@Z:
  0000b	8b 54 24 08	 mov	 edx, DWORD PTR [esp+8]
  0000f	8d 42 0c	 lea	 eax, DWORD PTR [edx+12]
  00012	8b 8a d4 7f ff
	ff		 mov	 ecx, DWORD PTR [edx-32812]
  00018	33 c8		 xor	 ecx, eax
  0001a	e8 00 00 00 00	 call	 @__security_check_cookie@4
  0001f	8b 4a fc	 mov	 ecx, DWORD PTR [edx-4]
  00022	33 c8		 xor	 ecx, eax
  00024	e8 00 00 00 00	 call	 @__security_check_cookie@4
  00029	b8 00 00 00 00	 mov	 eax, OFFSET __ehfuncinfo$?AttackSkillFire@ioGrapplingSwing2Skill@@MAEXPAVioBaseChar@@@Z
  0002e	e9 00 00 00 00	 jmp	 ___CxxFrameHandler3
text$x	ENDS
?AttackSkillFire@ioGrapplingSwing2Skill@@MAEXPAVioBaseChar@@@Z ENDP ; ioGrapplingSwing2Skill::AttackSkillFire
PUBLIC	__real@00000000
PUBLIC	__real@4f800000
PUBLIC	?SetGrapLoopState@ioGrapplingSwing2Skill@@IAEXPAVioBaseChar@@@Z ; ioGrapplingSwing2Skill::SetGrapLoopState
EXTRN	__imp_?SetLoopAni@ioEntityGroup@@QAE_NHMMMM@Z:PROC
EXTRN	__imp_?GetAnimationIdx@ioEntityGroup@@QAEHABVioHashString@@@Z:PROC
EXTRN	__imp_?ClearAllLoopAni@ioEntityGroup@@QAEXM_N@Z:PROC
EXTRN	__imp_?ClearAllActionAni@ioEntityGroup@@QAEXM_N@Z:PROC
;	COMDAT __real@00000000
; File d:\lost saga for developer\youtube\tutorial\source\src\lsclient\stdafx.h
CONST	SEGMENT
__real@00000000 DD 000000000r			; 0
CONST	ENDS
;	COMDAT __real@4f800000
CONST	SEGMENT
__real@4f800000 DD 04f800000r			; 4.29497e+009
; Function compile flags: /Ogsp
; File d:\lost saga for developer\youtube\tutorial\source\src\lsclient\iograpplingswing2skill.cpp
CONST	ENDS
;	COMDAT ?SetGrapLoopState@ioGrapplingSwing2Skill@@IAEXPAVioBaseChar@@@Z
_TEXT	SEGMENT
tv200 = -4						; size = 4
tv221 = 8						; size = 4
tv216 = 8						; size = 4
tv211 = 8						; size = 4
tv197 = 8						; size = 4
tv195 = 8						; size = 4
tv192 = 8						; size = 4
_fAniRate$ = 8						; size = 4
_pChar$ = 8						; size = 4
?SetGrapLoopState@ioGrapplingSwing2Skill@@IAEXPAVioBaseChar@@@Z PROC ; ioGrapplingSwing2Skill::SetGrapLoopState, COMDAT
; _this$ = ecx

; 423  : {

  00000	55		 push	 ebp
  00001	8b ec		 mov	 ebp, esp
  00003	51		 push	 ecx

; 424  : 	if( !pChar ) return;

  00004	8b 45 08	 mov	 eax, DWORD PTR _pChar$[ebp]
  00007	56		 push	 esi
  00008	8b f1		 mov	 esi, ecx
  0000a	85 c0		 test	 eax, eax
  0000c	0f 84 2b 01 00
	00		 je	 $LN5@SetGrapLoo

; 425  : 	if( m_SkillState != SS_ACTION )

  00012	83 be e4 10 00
	00 02		 cmp	 DWORD PTR [esi+4324], 2
  00019	0f 85 1e 01 00
	00		 jne	 $LN5@SetGrapLoo

; 426  : 		return;
; 427  : 
; 428  : 	ioEntityGroup *pGrp = pChar->GetGroup();

  0001f	57		 push	 edi
  00020	8b 78 04	 mov	 edi, DWORD PTR [eax+4]

; 429  : 	if( !pGrp ) return;

  00023	85 ff		 test	 edi, edi
  00025	0f 84 11 01 00
	00		 je	 $LN21@SetGrapLoo

; 430  : 
; 431  : 	pGrp->ClearAllActionAni( FLOAT100, true );

  0002b	b8 64 00 00 00	 mov	 eax, 100		; 00000064H
  00030	89 45 08	 mov	 DWORD PTR tv221[ebp], eax
  00033	db 45 08	 fild	 DWORD PTR tv221[ebp]
  00036	6a 01		 push	 1
  00038	85 c0		 test	 eax, eax
  0003a	79 06		 jns	 SHORT $LN22@SetGrapLoo
  0003c	d8 05 00 00 00
	00		 fadd	 DWORD PTR __real@4f800000
$LN22@SetGrapLoo:
  00042	51		 push	 ecx
  00043	8b cf		 mov	 ecx, edi
  00045	d9 1c 24	 fstp	 DWORD PTR [esp]
  00048	ff 15 00 00 00
	00		 call	 DWORD PTR __imp_?ClearAllActionAni@ioEntityGroup@@QAEXM_N@Z

; 432  : 	pGrp->ClearAllLoopAni( FLOAT100, true );

  0004e	b8 64 00 00 00	 mov	 eax, 100		; 00000064H
  00053	89 45 08	 mov	 DWORD PTR tv216[ebp], eax
  00056	db 45 08	 fild	 DWORD PTR tv216[ebp]
  00059	6a 01		 push	 1
  0005b	85 c0		 test	 eax, eax
  0005d	79 06		 jns	 SHORT $LN23@SetGrapLoo
  0005f	d8 05 00 00 00
	00		 fadd	 DWORD PTR __real@4f800000
$LN23@SetGrapLoo:
  00065	51		 push	 ecx
  00066	8b cf		 mov	 ecx, edi
  00068	d9 1c 24	 fstp	 DWORD PTR [esp]
  0006b	ff 15 00 00 00
	00		 call	 DWORD PTR __imp_?ClearAllLoopAni@ioEntityGroup@@QAEXM_N@Z

; 433  : 
; 434  : 	float fAniRate = FLOAT1;

  00071	b8 01 00 00 00	 mov	 eax, 1
  00076	89 45 08	 mov	 DWORD PTR tv211[ebp], eax
  00079	db 45 08	 fild	 DWORD PTR tv211[ebp]
  0007c	85 c0		 test	 eax, eax
  0007e	79 06		 jns	 SHORT $LN24@SetGrapLoo
  00080	d8 05 00 00 00
	00		 fadd	 DWORD PTR __real@4f800000
$LN24@SetGrapLoo:

; 435  : 	if( m_fSkillGrapLoopMotionRate > 0.0f )

  00086	f3 0f 10 86 fc
	10 00 00	 movss	 xmm0, DWORD PTR [esi+4348]
  0008e	d9 5d 08	 fstp	 DWORD PTR _fAniRate$[ebp]
  00091	0f 2f 05 00 00
	00 00		 comiss	 xmm0, DWORD PTR __real@00000000
  00098	76 05		 jbe	 SHORT $LN1@SetGrapLoo

; 436  : 		fAniRate = m_fSkillGrapLoopMotionRate;

  0009a	f3 0f 11 45 08	 movss	 DWORD PTR _fAniRate$[ebp], xmm0
$LN1@SetGrapLoo:
  0009f	53		 push	 ebx

; 437  : 
; 438  : 	int iAniID = pGrp->GetAnimationIdx( m_SkillGrapLoopMotion );

  000a0	8d 86 ec 10 00
	00		 lea	 eax, DWORD PTR [esi+4332]
  000a6	50		 push	 eax
  000a7	8b cf		 mov	 ecx, edi
  000a9	ff 15 00 00 00
	00		 call	 DWORD PTR __imp_?GetAnimationIdx@ioEntityGroup@@QAEHABVioHashString@@@Z
  000af	8b c8		 mov	 ecx, eax

; 439  : 	pGrp->SetLoopAni( iAniID, FLOAT100, FLOAT1, FLOAT1/fAniRate );

  000b1	b8 01 00 00 00	 mov	 eax, 1
  000b6	8b d0		 mov	 edx, eax
  000b8	b8 01 00 00 00	 mov	 eax, 1
  000bd	8b d8		 mov	 ebx, eax
  000bf	b8 64 00 00 00	 mov	 eax, 100		; 00000064H
  000c4	0f 57 c0	 xorps	 xmm0, xmm0
  000c7	83 ec 10	 sub	 esp, 16			; 00000010H
  000ca	89 55 fc	 mov	 DWORD PTR tv200[ebp], edx
  000cd	db 45 fc	 fild	 DWORD PTR tv200[ebp]
  000d0	f3 0f 11 44 24
	0c		 movss	 DWORD PTR [esp+12], xmm0
  000d6	85 d2		 test	 edx, edx
  000d8	79 06		 jns	 SHORT $LN25@SetGrapLoo
  000da	d8 05 00 00 00
	00		 fadd	 DWORD PTR __real@4f800000
$LN25@SetGrapLoo:
  000e0	d8 75 08	 fdiv	 DWORD PTR _fAniRate$[ebp]
  000e3	d9 5d 08	 fstp	 DWORD PTR tv197[ebp]
  000e6	d9 45 08	 fld	 DWORD PTR tv197[ebp]
  000e9	d9 5c 24 08	 fstp	 DWORD PTR [esp+8]
  000ed	89 5d 08	 mov	 DWORD PTR tv195[ebp], ebx
  000f0	db 45 08	 fild	 DWORD PTR tv195[ebp]
  000f3	85 db		 test	 ebx, ebx
  000f5	79 06		 jns	 SHORT $LN26@SetGrapLoo
  000f7	d8 05 00 00 00
	00		 fadd	 DWORD PTR __real@4f800000
$LN26@SetGrapLoo:
  000fd	89 45 08	 mov	 DWORD PTR tv192[ebp], eax
  00100	d9 5c 24 04	 fstp	 DWORD PTR [esp+4]
  00104	db 45 08	 fild	 DWORD PTR tv192[ebp]
  00107	85 c0		 test	 eax, eax
  00109	79 06		 jns	 SHORT $LN27@SetGrapLoo
  0010b	d8 05 00 00 00
	00		 fadd	 DWORD PTR __real@4f800000
$LN27@SetGrapLoo:
  00111	d9 1c 24	 fstp	 DWORD PTR [esp]
  00114	51		 push	 ecx
  00115	8b cf		 mov	 ecx, edi
  00117	ff 15 00 00 00
	00		 call	 DWORD PTR __imp_?SetLoopAni@ioEntityGroup@@QAE_NHMMMM@Z

; 440  : 
; 441  : 	m_SkillState = SS_GRAP_LOOP;

  0011d	c7 86 e4 10 00
	00 03 00 00 00	 mov	 DWORD PTR [esi+4324], 3

; 442  : 	m_SkillGrapLoopStartTime = FRAMEGETTIME();

  00127	ff 15 00 00 00
	00		 call	 DWORD PTR __imp_?GetSingleton@ioFrameTimer@@SAAAV1@XZ
  0012d	8b c8		 mov	 ecx, eax
  0012f	ff 15 00 00 00
	00		 call	 DWORD PTR __imp_?GetLoopSec@ioFrameTimer@@QBEKXZ
  00135	89 86 a0 13 00
	00		 mov	 DWORD PTR [esi+5024], eax
  0013b	5b		 pop	 ebx
$LN21@SetGrapLoo:
  0013c	5f		 pop	 edi
$LN5@SetGrapLoo:
  0013d	5e		 pop	 esi

; 443  : }

  0013e	c9		 leave
  0013f	c2 04 00	 ret	 4
?SetGrapLoopState@ioGrapplingSwing2Skill@@IAEXPAVioBaseChar@@@Z ENDP ; ioGrapplingSwing2Skill::SetGrapLoopState
_TEXT	ENDS
PUBLIC	__real@408f400000000000
PUBLIC	_pChar$GSCopy$
PUBLIC	__$ArrayPad$
PUBLIC	?ProcessLoopDir@ioGrapplingSwing2Skill@@IAEXPAVioBaseChar@@@Z ; ioGrapplingSwing2Skill::ProcessLoopDir
EXTRN	?SetTargetRotToRotate@ioBaseChar@@QAEXABUD3DXQUATERNION@@_N1@Z:PROC ; ioBaseChar::SetTargetRotToRotate
EXTRN	__imp_?CalcDirectionQuaternion@ioMath@@SAXAAUD3DXQUATERNION@@ABUD3DXVECTOR3@@@Z:PROC
EXTRN	__imp_??D@YA?AUD3DXVECTOR3@@ABUD3DXQUATERNION@@ABU0@@Z:PROC
EXTRN	_D3DXQuaternionRotationAxis@12:PROC
EXTRN	__imp_?UNIT_Y@ioMath@@2UD3DXVECTOR3@@A:BYTE
EXTRN	__imp_?ArrangeHead@ioMath@@SAMM@Z:PROC
EXTRN	__imp_?GetSecPerFrame@ioFrameTimer@@QBEMXZ:PROC
;	COMDAT __real@408f400000000000
; File c:\program files (x86)\microsoft directx sdk (june 2010)\include\d3dx9math.inl
CONST	SEGMENT
__real@408f400000000000 DQ 0408f400000000000r	; 1000
; Function compile flags: /Ogsp
; File d:\lost saga for developer\youtube\tutorial\source\src\lsclient\iograpplingswing2skill.cpp
CONST	ENDS
;	COMDAT ?ProcessLoopDir@ioGrapplingSwing2Skill@@IAEXPAVioBaseChar@@@Z
_TEXT	SEGMENT
_qtCharRot$ = -84					; size = 16
tv359 = -68						; size = 4
tv317 = -68						; size = 4
_qtNewRot$ = -64					; size = 16
_pChar$GSCopy$ = -48					; size = 4
tv364 = -44						; size = 4
tv356 = -44						; size = 4
_fRotateAngle$ = -44					; size = 4
_fRate$ = -44						; size = 4
_fTimePerSec$ = -44					; size = 4
_vAxis$ = -40						; size = 12
_vDir$ = -28						; size = 12
$T533222 = -16						; size = 12
$T533221 = -16						; size = 12
$T533219 = -16						; size = 12
$T533211 = -16						; size = 12
__$ArrayPad$ = -4					; size = 4
_pChar$ = 8						; size = 4
?ProcessLoopDir@ioGrapplingSwing2Skill@@IAEXPAVioBaseChar@@@Z PROC ; ioGrapplingSwing2Skill::ProcessLoopDir, COMDAT
; _this$ = ecx

; 775  : {

  00000	55		 push	 ebp
  00001	8b ec		 mov	 ebp, esp
  00003	83 ec 54	 sub	 esp, 84			; 00000054H
  00006	a1 00 00 00 00	 mov	 eax, DWORD PTR ___security_cookie
  0000b	33 c5		 xor	 eax, ebp
  0000d	89 45 fc	 mov	 DWORD PTR __$ArrayPad$[ebp], eax
  00010	8b 45 08	 mov	 eax, DWORD PTR _pChar$[ebp]
  00013	53		 push	 ebx
  00014	8b d9		 mov	 ebx, ecx

; 776  : 	if( m_dwLoopRotateTime == 0 )

  00016	83 bb 2c 11 00
	00 00		 cmp	 DWORD PTR [ebx+4396], 0
  0001d	56		 push	 esi

; 777  : 		return;
; 778  : 
; 779  : 	//  
; 780  : 	float fTimePerSec = g_FrameTimer.GetSecPerFrame();

  0001e	89 45 d0	 mov	 DWORD PTR _pChar$GSCopy$[ebp], eax
  00021	0f 84 87 01 00
	00		 je	 $LN3@ProcessLoo
  00027	57		 push	 edi
  00028	ff 15 00 00 00
	00		 call	 DWORD PTR __imp_?GetSingleton@ioFrameTimer@@SAAAV1@XZ
  0002e	8b c8		 mov	 ecx, eax
  00030	ff 15 00 00 00
	00		 call	 DWORD PTR __imp_?GetSecPerFrame@ioFrameTimer@@QBEMXZ
  00036	d9 5d d4	 fstp	 DWORD PTR _fTimePerSec$[ebp]

; 781  : 
; 782  : 	float fRate = (fTimePerSec*1000) / m_dwLoopRotateTime;

  00039	d9 45 d4	 fld	 DWORD PTR _fTimePerSec$[ebp]
  0003c	8b 83 2c 11 00
	00		 mov	 eax, DWORD PTR [ebx+4396]
  00042	dc 0d 00 00 00
	00		 fmul	 QWORD PTR __real@408f400000000000
  00048	db 83 2c 11 00
	00		 fild	 DWORD PTR [ebx+4396]
  0004e	85 c0		 test	 eax, eax
  00050	79 06		 jns	 SHORT $LN25@ProcessLoo
  00052	d8 05 00 00 00
	00		 fadd	 DWORD PTR __real@4f800000
$LN25@ProcessLoo:
  00058	de f9		 fdivp	 ST(1), ST(0)
  0005a	d9 5d d4	 fstp	 DWORD PTR _fRate$[ebp]

; 783  : 	float fRotateAngle = FLOAT360 * fRate;

  0005d	b8 68 01 00 00	 mov	 eax, 360		; 00000168H

; 784  : 
; 785  : 	fRotateAngle = ioMath::ArrangeHead( fRotateAngle );

  00062	89 45 bc	 mov	 DWORD PTR tv359[ebp], eax
  00065	db 45 bc	 fild	 DWORD PTR tv359[ebp]
  00068	85 c0		 test	 eax, eax
  0006a	79 06		 jns	 SHORT $LN26@ProcessLoo
  0006c	d8 05 00 00 00
	00		 fadd	 DWORD PTR __real@4f800000
$LN26@ProcessLoo:
  00072	d8 4d d4	 fmul	 DWORD PTR _fRate$[ebp]
  00075	51		 push	 ecx
  00076	d9 5d d4	 fstp	 DWORD PTR tv356[ebp]
  00079	d9 45 d4	 fld	 DWORD PTR tv356[ebp]
  0007c	d9 1c 24	 fstp	 DWORD PTR [esp]
  0007f	ff 15 00 00 00
	00		 call	 DWORD PTR __imp_?ArrangeHead@ioMath@@SAMM@Z

; 786  : 
; 787  : 	D3DXQUATERNION	qtNewRot;
; 788  : 	D3DXVECTOR3 vAxis = ioMath::UNIT_Y;
; 789  : 
; 790  : 	if( m_bReverseLoopRotate )

  00085	80 bb 34 11 00
	00 00		 cmp	 BYTE PTR [ebx+4404], 0
  0008c	d9 5d d4	 fstp	 DWORD PTR _fRotateAngle$[ebp]
  0008f	a1 00 00 00 00	 mov	 eax, DWORD PTR __imp_?UNIT_Y@ioMath@@2UD3DXVECTOR3@@A
  00094	f3 0f 10 05 00
	00 00 00	 movss	 xmm0, DWORD PTR __mask@@NegFloat@
  0009c	8b f0		 mov	 esi, eax
  0009e	8d 7d d8	 lea	 edi, DWORD PTR _vAxis$[ebp]
  000a1	a5		 movsd
  000a2	a5		 movsd
  000a3	59		 pop	 ecx
  000a4	a5		 movsd
  000a5	74 2f		 je	 SHORT $LN1@ProcessLoo

; 791  : 		vAxis = -ioMath::UNIT_Y;

  000a7	f3 0f 10 08	 movss	 xmm1, DWORD PTR [eax]
  000ab	0f 57 c8	 xorps	 xmm1, xmm0
  000ae	f3 0f 11 4d f0	 movss	 DWORD PTR $T533211[ebp], xmm1
  000b3	f3 0f 10 48 04	 movss	 xmm1, DWORD PTR [eax+4]
  000b8	0f 57 c8	 xorps	 xmm1, xmm0
  000bb	f3 0f 11 4d f4	 movss	 DWORD PTR $T533211[ebp+4], xmm1
  000c0	f3 0f 10 48 08	 movss	 xmm1, DWORD PTR [eax+8]
  000c5	0f 57 c8	 xorps	 xmm1, xmm0
  000c8	f3 0f 11 4d f8	 movss	 DWORD PTR $T533211[ebp+8], xmm1
  000cd	8d 75 f0	 lea	 esi, DWORD PTR $T533211[ebp]
  000d0	8d 7d d8	 lea	 edi, DWORD PTR _vAxis$[ebp]
  000d3	a5		 movsd
  000d4	a5		 movsd
  000d5	a5		 movsd
$LN1@ProcessLoo:

; 792  : 
; 793  : 	D3DXQuaternionRotationAxis( &qtNewRot, &vAxis, DEGtoRAD(fRotateAngle));

  000d6	f3 0f 10 45 d4	 movss	 xmm0, DWORD PTR _fRotateAngle$[ebp]
  000db	0f 5a c0	 cvtps2pd xmm0, xmm0
  000de	f2 0f 59 05 00
	00 00 00	 mulsd	 xmm0, QWORD PTR __real@3f91df46a2526c7a
  000e6	51		 push	 ecx
  000e7	66 0f 5a c0	 cvtpd2ps xmm0, xmm0
  000eb	f3 0f 11 04 24	 movss	 DWORD PTR [esp], xmm0
  000f0	8d 45 d8	 lea	 eax, DWORD PTR _vAxis$[ebp]
  000f3	50		 push	 eax
  000f4	8d 45 c0	 lea	 eax, DWORD PTR _qtNewRot$[ebp]
  000f7	50		 push	 eax
  000f8	e8 00 00 00 00	 call	 _D3DXQuaternionRotationAxis@12

; 794  : 
; 795  : 	D3DXQUATERNION qtCharRot = pChar->GetTargetRot();

  000fd	8b 5d d0	 mov	 ebx, DWORD PTR _pChar$GSCopy$[ebp]
  00100	8d b3 a4 06 00
	00		 lea	 esi, DWORD PTR [ebx+1700]
  00106	8d 7d ac	 lea	 edi, DWORD PTR _qtCharRot$[ebp]
  00109	a5		 movsd
  0010a	a5		 movsd
  0010b	a5		 movsd
  0010c	a5		 movsd

; 796  : 	D3DXVECTOR3 vDir = qtCharRot * D3DXVECTOR3( 0.0, 0.0, -FLOAT1 );

  0010d	b8 01 00 00 00	 mov	 eax, 1
  00112	0f 57 c0	 xorps	 xmm0, xmm0
  00115	89 45 bc	 mov	 DWORD PTR tv317[ebp], eax
  00118	db 45 bc	 fild	 DWORD PTR tv317[ebp]
  0011b	f3 0f 11 45 f0	 movss	 DWORD PTR $T533219[ebp], xmm0
  00120	f3 0f 11 45 f4	 movss	 DWORD PTR $T533219[ebp+4], xmm0
  00125	85 c0		 test	 eax, eax
  00127	79 06		 jns	 SHORT $LN27@ProcessLoo
  00129	d8 05 00 00 00
	00		 fadd	 DWORD PTR __real@4f800000
$LN27@ProcessLoo:
  0012f	8b 35 00 00 00
	00		 mov	 esi, DWORD PTR __imp_??D@YA?AUD3DXVECTOR3@@ABUD3DXQUATERNION@@ABU0@@Z
  00135	d9 e0		 fchs
  00137	8d 45 f0	 lea	 eax, DWORD PTR $T533219[ebp]
  0013a	d9 5d f8	 fstp	 DWORD PTR $T533219[ebp+8]
  0013d	50		 push	 eax
  0013e	8d 45 ac	 lea	 eax, DWORD PTR _qtCharRot$[ebp]
  00141	50		 push	 eax
  00142	8d 45 e4	 lea	 eax, DWORD PTR _vDir$[ebp]
  00145	50		 push	 eax
  00146	ff d6		 call	 esi

; 797  : 	vDir = qtNewRot * vDir;

  00148	8d 45 e4	 lea	 eax, DWORD PTR _vDir$[ebp]
  0014b	50		 push	 eax
  0014c	8d 45 c0	 lea	 eax, DWORD PTR _qtNewRot$[ebp]
  0014f	50		 push	 eax
  00150	8d 45 f0	 lea	 eax, DWORD PTR $T533221[ebp]
  00153	50		 push	 eax
  00154	ff d6		 call	 esi

; 798  : 
; 799  : 	ioMath::CalcDirectionQuaternion( qtNewRot, -vDir );

  00156	f3 0f 10 05 00
	00 00 00	 movss	 xmm0, DWORD PTR __mask@@NegFloat@
  0015e	8b f0		 mov	 esi, eax
  00160	8d 7d e4	 lea	 edi, DWORD PTR _vDir$[ebp]
  00163	a5		 movsd
  00164	a5		 movsd
  00165	a5		 movsd
  00166	f3 0f 10 4d e4	 movss	 xmm1, DWORD PTR _vDir$[ebp]
  0016b	0f 57 c8	 xorps	 xmm1, xmm0
  0016e	f3 0f 11 4d f0	 movss	 DWORD PTR $T533222[ebp], xmm1
  00173	f3 0f 10 4d e8	 movss	 xmm1, DWORD PTR _vDir$[ebp+4]
  00178	0f 57 c8	 xorps	 xmm1, xmm0
  0017b	8d 45 f0	 lea	 eax, DWORD PTR $T533222[ebp]
  0017e	50		 push	 eax
  0017f	f3 0f 11 4d f4	 movss	 DWORD PTR $T533222[ebp+4], xmm1
  00184	f3 0f 10 4d ec	 movss	 xmm1, DWORD PTR _vDir$[ebp+8]
  00189	8d 45 c0	 lea	 eax, DWORD PTR _qtNewRot$[ebp]
  0018c	0f 57 c8	 xorps	 xmm1, xmm0
  0018f	50		 push	 eax
  00190	f3 0f 11 4d f8	 movss	 DWORD PTR $T533222[ebp+8], xmm1
  00195	ff 15 00 00 00
	00		 call	 DWORD PTR __imp_?CalcDirectionQuaternion@ioMath@@SAXAAUD3DXQUATERNION@@ABUD3DXVECTOR3@@@Z
  0019b	83 c4 20	 add	 esp, 32			; 00000020H

; 800  : 	pChar->SetTargetRotToRotate( qtNewRot, true, true );

  0019e	6a 01		 push	 1
  001a0	6a 01		 push	 1
  001a2	8d 45 c0	 lea	 eax, DWORD PTR _qtNewRot$[ebp]
  001a5	50		 push	 eax
  001a6	8b cb		 mov	 ecx, ebx
  001a8	e8 00 00 00 00	 call	 ?SetTargetRotToRotate@ioBaseChar@@QAEXABUD3DXQUATERNION@@_N1@Z ; ioBaseChar::SetTargetRotToRotate
  001ad	5f		 pop	 edi
$LN3@ProcessLoo:

; 801  : }

  001ae	8b 4d fc	 mov	 ecx, DWORD PTR __$ArrayPad$[ebp]
  001b1	5e		 pop	 esi
  001b2	33 cd		 xor	 ecx, ebp
  001b4	5b		 pop	 ebx
  001b5	e8 00 00 00 00	 call	 @__security_check_cookie@4
  001ba	c9		 leave
  001bb	c2 04 00	 ret	 4
?ProcessLoopDir@ioGrapplingSwing2Skill@@IAEXPAVioBaseChar@@@Z ENDP ; ioGrapplingSwing2Skill::ProcessLoopDir
_TEXT	ENDS
PUBLIC	__real@3f800000
PUBLIC	?CheckNormalMoveAni@ioGrapplingSwing2Skill@@IAEXPAVioBaseChar@@@Z ; ioGrapplingSwing2Skill::CheckNormalMoveAni
EXTRN	?IsSettedDirection@ioBaseChar@@QBE_NXZ:PROC	; ioBaseChar::IsSettedDirection
;	COMDAT __real@3f800000
; File d:\lost saga for developer\youtube\tutorial\source\src\lsclient\stdafx.h
CONST	SEGMENT
__real@3f800000 DD 03f800000r			; 1
; Function compile flags: /Ogsp
; File d:\lost saga for developer\youtube\tutorial\source\src\lsclient\iograpplingswing2skill.cpp
CONST	ENDS
;	COMDAT ?CheckNormalMoveAni@ioGrapplingSwing2Skill@@IAEXPAVioBaseChar@@@Z
_TEXT	SEGMENT
tv208 = 8						; size = 4
tv203 = 8						; size = 4
tv198 = 8						; size = 4
tv175 = 8						; size = 4
tv165 = 8						; size = 4
tv141 = 8						; size = 4
_pChar$ = 8						; size = 4
?CheckNormalMoveAni@ioGrapplingSwing2Skill@@IAEXPAVioBaseChar@@@Z PROC ; ioGrapplingSwing2Skill::CheckNormalMoveAni, COMDAT
; _this$ = ecx

; 1001 : {

  00000	55		 push	 ebp
  00001	8b ec		 mov	 ebp, esp
  00003	53		 push	 ebx

; 1002 : 	if( !pChar ) return;

  00004	8b 5d 08	 mov	 ebx, DWORD PTR _pChar$[ebp]
  00007	56		 push	 esi
  00008	8b f1		 mov	 esi, ecx
  0000a	85 db		 test	 ebx, ebx
  0000c	0f 84 91 01 00
	00		 je	 $LN2@CheckNorma

; 1003 : 
; 1004 : 	DWORD dwCurTime = FRAMEGETTIME();

  00012	57		 push	 edi
  00013	ff 15 00 00 00
	00		 call	 DWORD PTR __imp_?GetSingleton@ioFrameTimer@@SAAAV1@XZ
  00019	8b c8		 mov	 ecx, eax
  0001b	ff 15 00 00 00
	00		 call	 DWORD PTR __imp_?GetLoopSec@ioFrameTimer@@QBEKXZ

; 1005 : 	ioEntityGroup *pGrp = pChar->GetGroup();

  00021	8b 7b 04	 mov	 edi, DWORD PTR [ebx+4]

; 1006 : 	int iAniID = 0;
; 1007 : 
; 1008 : 	if( pChar->IsSettedDirection() )

  00024	8b cb		 mov	 ecx, ebx
  00026	e8 00 00 00 00	 call	 ?IsSettedDirection@ioBaseChar@@QBE_NXZ ; ioBaseChar::IsSettedDirection
  0002b	84 c0		 test	 al, al
  0002d	0f 84 ba 00 00
	00		 je	 $LN6@CheckNorma

; 1009 : 	{	
; 1010 : 		if( !m_bSetMoveAni )

  00033	80 be a8 12 00
	00 00		 cmp	 BYTE PTR [esi+4776], 0
  0003a	0f 85 62 01 00
	00		 jne	 $LN24@CheckNorma

; 1011 : 		{	
; 1012 : 			iAniID = pGrp->GetAnimationIdx( m_LoopMoveAnimation );

  00040	8d 86 34 12 00
	00		 lea	 eax, DWORD PTR [esi+4660]
  00046	50		 push	 eax
  00047	8b cf		 mov	 ecx, edi
  00049	ff 15 00 00 00
	00		 call	 DWORD PTR __imp_?GetAnimationIdx@ioEntityGroup@@QAEHABVioHashString@@@Z
  0004f	8b d8		 mov	 ebx, eax

; 1013 : 			if( iAniID == -1 )

  00051	83 fb ff	 cmp	 ebx, -1
  00054	0f 84 48 01 00
	00		 je	 $LN24@CheckNorma

; 1014 : 				return;
; 1015 : 
; 1016 : 			pGrp->ClearAllActionAni( FLOAT100, true );

  0005a	b8 64 00 00 00	 mov	 eax, 100		; 00000064H
  0005f	89 45 08	 mov	 DWORD PTR tv208[ebp], eax
  00062	db 45 08	 fild	 DWORD PTR tv208[ebp]
  00065	6a 01		 push	 1
  00067	85 c0		 test	 eax, eax
  00069	79 06		 jns	 SHORT $LN25@CheckNorma
  0006b	d8 05 00 00 00
	00		 fadd	 DWORD PTR __real@4f800000
$LN25@CheckNorma:
  00071	51		 push	 ecx
  00072	8b cf		 mov	 ecx, edi
  00074	d9 1c 24	 fstp	 DWORD PTR [esp]
  00077	ff 15 00 00 00
	00		 call	 DWORD PTR __imp_?ClearAllActionAni@ioEntityGroup@@QAEXM_N@Z

; 1017 : 			pGrp->ClearAllLoopAni( FLOAT100, true );

  0007d	b8 64 00 00 00	 mov	 eax, 100		; 00000064H
  00082	89 45 08	 mov	 DWORD PTR tv203[ebp], eax
  00085	db 45 08	 fild	 DWORD PTR tv203[ebp]
  00088	6a 01		 push	 1
  0008a	85 c0		 test	 eax, eax
  0008c	79 06		 jns	 SHORT $LN26@CheckNorma
  0008e	d8 05 00 00 00
	00		 fadd	 DWORD PTR __real@4f800000
$LN26@CheckNorma:
  00094	51		 push	 ecx
  00095	8b cf		 mov	 ecx, edi
  00097	d9 1c 24	 fstp	 DWORD PTR [esp]
  0009a	ff 15 00 00 00
	00		 call	 DWORD PTR __imp_?ClearAllLoopAni@ioEntityGroup@@QAEXM_N@Z

; 1018 : 
; 1019 : 			pGrp->SetLoopAni( iAniID, FLOAT100 );	

  000a0	b8 64 00 00 00	 mov	 eax, 100		; 00000064H
  000a5	0f 57 c0	 xorps	 xmm0, xmm0
  000a8	83 ec 10	 sub	 esp, 16			; 00000010H
  000ab	f3 0f 11 44 24
	0c		 movss	 DWORD PTR [esp+12], xmm0
  000b1	f3 0f 10 05 00
	00 00 00	 movss	 xmm0, DWORD PTR __real@3f800000
  000b9	89 45 08	 mov	 DWORD PTR tv198[ebp], eax
  000bc	db 45 08	 fild	 DWORD PTR tv198[ebp]
  000bf	f3 0f 11 44 24
	08		 movss	 DWORD PTR [esp+8], xmm0
  000c5	f3 0f 11 44 24
	04		 movss	 DWORD PTR [esp+4], xmm0
  000cb	85 c0		 test	 eax, eax
  000cd	79 06		 jns	 SHORT $LN27@CheckNorma
  000cf	d8 05 00 00 00
	00		 fadd	 DWORD PTR __real@4f800000
$LN27@CheckNorma:
  000d5	d9 1c 24	 fstp	 DWORD PTR [esp]
  000d8	53		 push	 ebx
  000d9	8b cf		 mov	 ecx, edi
  000db	ff 15 00 00 00
	00		 call	 DWORD PTR __imp_?SetLoopAni@ioEntityGroup@@QAE_NHMMMM@Z

; 1020 : 			m_bSetMoveAni = true;

  000e1	c6 86 a8 12 00
	00 01		 mov	 BYTE PTR [esi+4776], 1

; 1021 : 		}
; 1022 : 	}
; 1023 : 	else

  000e8	e9 b5 00 00 00	 jmp	 $LN24@CheckNorma
$LN6@CheckNorma:

; 1024 : 	{
; 1025 : 		if( m_bSetMoveAni )

  000ed	80 be a8 12 00
	00 00		 cmp	 BYTE PTR [esi+4776], 0
  000f4	0f 84 a8 00 00
	00		 je	 $LN24@CheckNorma

; 1026 : 		{
; 1027 : 			iAniID = pGrp->GetAnimationIdx( m_LoopDelayAnimation );

  000fa	8d 86 f4 11 00
	00		 lea	 eax, DWORD PTR [esi+4596]
  00100	50		 push	 eax
  00101	8b cf		 mov	 ecx, edi
  00103	ff 15 00 00 00
	00		 call	 DWORD PTR __imp_?GetAnimationIdx@ioEntityGroup@@QAEHABVioHashString@@@Z
  00109	8b d8		 mov	 ebx, eax

; 1028 : 			if( iAniID == -1 )

  0010b	83 fb ff	 cmp	 ebx, -1
  0010e	0f 84 8e 00 00
	00		 je	 $LN24@CheckNorma

; 1029 : 				return;
; 1030 : 
; 1031 : 			pGrp->ClearAllActionAni( FLOAT100, true );

  00114	b8 64 00 00 00	 mov	 eax, 100		; 00000064H
  00119	89 45 08	 mov	 DWORD PTR tv175[ebp], eax
  0011c	db 45 08	 fild	 DWORD PTR tv175[ebp]
  0011f	6a 01		 push	 1
  00121	85 c0		 test	 eax, eax
  00123	79 06		 jns	 SHORT $LN28@CheckNorma
  00125	d8 05 00 00 00
	00		 fadd	 DWORD PTR __real@4f800000
$LN28@CheckNorma:
  0012b	51		 push	 ecx
  0012c	8b cf		 mov	 ecx, edi
  0012e	d9 1c 24	 fstp	 DWORD PTR [esp]
  00131	ff 15 00 00 00
	00		 call	 DWORD PTR __imp_?ClearAllActionAni@ioEntityGroup@@QAEXM_N@Z

; 1032 : 			pGrp->ClearAllLoopAni( FLOAT100, true );

  00137	b8 64 00 00 00	 mov	 eax, 100		; 00000064H
  0013c	89 45 08	 mov	 DWORD PTR tv165[ebp], eax
  0013f	db 45 08	 fild	 DWORD PTR tv165[ebp]
  00142	6a 01		 push	 1
  00144	85 c0		 test	 eax, eax
  00146	79 06		 jns	 SHORT $LN29@CheckNorma
  00148	d8 05 00 00 00
	00		 fadd	 DWORD PTR __real@4f800000
$LN29@CheckNorma:
  0014e	51		 push	 ecx
  0014f	8b cf		 mov	 ecx, edi
  00151	d9 1c 24	 fstp	 DWORD PTR [esp]
  00154	ff 15 00 00 00
	00		 call	 DWORD PTR __imp_?ClearAllLoopAni@ioEntityGroup@@QAEXM_N@Z

; 1033 : 
; 1034 : 			pGrp->SetLoopAni( iAniID, FLOAT100 );

  0015a	b8 64 00 00 00	 mov	 eax, 100		; 00000064H
  0015f	0f 57 c0	 xorps	 xmm0, xmm0
  00162	83 ec 10	 sub	 esp, 16			; 00000010H
  00165	f3 0f 11 44 24
	0c		 movss	 DWORD PTR [esp+12], xmm0
  0016b	f3 0f 10 05 00
	00 00 00	 movss	 xmm0, DWORD PTR __real@3f800000
  00173	89 45 08	 mov	 DWORD PTR tv141[ebp], eax
  00176	db 45 08	 fild	 DWORD PTR tv141[ebp]
  00179	f3 0f 11 44 24
	08		 movss	 DWORD PTR [esp+8], xmm0
  0017f	f3 0f 11 44 24
	04		 movss	 DWORD PTR [esp+4], xmm0
  00185	85 c0		 test	 eax, eax
  00187	79 06		 jns	 SHORT $LN30@CheckNorma
  00189	d8 05 00 00 00
	00		 fadd	 DWORD PTR __real@4f800000
$LN30@CheckNorma:
  0018f	d9 1c 24	 fstp	 DWORD PTR [esp]
  00192	53		 push	 ebx
  00193	8b cf		 mov	 ecx, edi
  00195	ff 15 00 00 00
	00		 call	 DWORD PTR __imp_?SetLoopAni@ioEntityGroup@@QAE_NHMMMM@Z

; 1035 : 			m_bSetMoveAni = false;

  0019b	c6 86 a8 12 00
	00 00		 mov	 BYTE PTR [esi+4776], 0
$LN24@CheckNorma:
  001a2	5f		 pop	 edi
$LN2@CheckNorma:
  001a3	5e		 pop	 esi
  001a4	5b		 pop	 ebx

; 1036 : 		}
; 1037 : 	}
; 1038 : }

  001a5	5d		 pop	 ebp
  001a6	c2 04 00	 ret	 4
?CheckNormalMoveAni@ioGrapplingSwing2Skill@@IAEXPAVioBaseChar@@@Z ENDP ; ioGrapplingSwing2Skill::CheckNormalMoveAni
_TEXT	ENDS
PUBLIC	??K?$CEncrypt@M@@QAEMABM@Z			; CEncrypt<float>::operator/
; Function compile flags: /Ogsp
; File d:\lost saga for developer\youtube\tutorial\source\src\lsclient\encryptvalue.h
;	COMDAT ??K?$CEncrypt@M@@QAEMABM@Z
_TEXT	SEGMENT
_value$ = -4						; size = 4
tv130 = 8						; size = 4
_inValue$ = 8						; size = 4
??K?$CEncrypt@M@@QAEMABM@Z PROC				; CEncrypt<float>::operator/, COMDAT
; _this$ = ecx

; 1695 : 	{

  00000	55		 push	 ebp
  00001	8b ec		 mov	 ebp, esp
  00003	51		 push	 ecx

; 1696 : 		type value;
; 1697 : 		DecryptValueToPool(&value);

  00004	8d 45 fc	 lea	 eax, DWORD PTR _value$[ebp]
  00007	50		 push	 eax
  00008	e8 00 00 00 00	 call	 ?DecryptValueToPool@?$CEncrypt@M@@QAEXPAM@Z ; CEncrypt<float>::DecryptValueToPool

; 1698 : #ifdef _NOTUSE
; 1699 : 		Debug();
; 1700 : #endif
; 1701 : 		return value / inValue;

  0000d	d9 45 fc	 fld	 DWORD PTR _value$[ebp]
  00010	8b 45 08	 mov	 eax, DWORD PTR _inValue$[ebp]
  00013	d8 30		 fdiv	 DWORD PTR [eax]
  00015	d9 5d 08	 fstp	 DWORD PTR tv130[ebp]
  00018	d9 45 08	 fld	 DWORD PTR tv130[ebp]

; 1702 : 	}

  0001b	c9		 leave
  0001c	c2 04 00	 ret	 4
??K?$CEncrypt@M@@QAEMABM@Z ENDP				; CEncrypt<float>::operator/
_TEXT	ENDS
PUBLIC	??M?$CEncrypt@M@@QAE_NABM@Z			; CEncrypt<float>::operator<
; Function compile flags: /Ogsp
;	COMDAT ??M?$CEncrypt@M@@QAE_NABM@Z
_TEXT	SEGMENT
_value$ = -4						; size = 4
_inValue$ = 8						; size = 4
??M?$CEncrypt@M@@QAE_NABM@Z PROC			; CEncrypt<float>::operator<, COMDAT
; _this$ = ecx

; 1791 : 	{

  00000	55		 push	 ebp
  00001	8b ec		 mov	 ebp, esp
  00003	51		 push	 ecx

; 1792 : 		type value;
; 1793 : 		DecryptValueToPool(&value);

  00004	8d 45 fc	 lea	 eax, DWORD PTR _value$[ebp]
  00007	50		 push	 eax
  00008	e8 00 00 00 00	 call	 ?DecryptValueToPool@?$CEncrypt@M@@QAEXPAM@Z ; CEncrypt<float>::DecryptValueToPool

; 1794 : #ifdef _NOTUSE
; 1795 : 		Debug();
; 1796 : #endif
; 1797 : 		return (value < inValue);

  0000d	8b 45 08	 mov	 eax, DWORD PTR _inValue$[ebp]
  00010	f3 0f 10 08	 movss	 xmm1, DWORD PTR [eax]
  00014	f3 0f 10 45 fc	 movss	 xmm0, DWORD PTR _value$[ebp]
  00019	0f 5a c0	 cvtps2pd xmm0, xmm0
  0001c	0f 5a c9	 cvtps2pd xmm1, xmm1
  0001f	33 c0		 xor	 eax, eax
  00021	66 0f 2f c8	 comisd	 xmm1, xmm0
  00025	76 01		 jbe	 SHORT $LN4@operator@2
  00027	40		 inc	 eax
$LN4@operator@2:

; 1798 : 	} 

  00028	c9		 leave
  00029	c2 04 00	 ret	 4
??M?$CEncrypt@M@@QAE_NABM@Z ENDP			; CEncrypt<float>::operator<
_TEXT	ENDS
PUBLIC	??N?$CEncrypt@K@@QAE_NABH@Z			; CEncrypt<unsigned long>::operator<=
; Function compile flags: /Ogsp
;	COMDAT ??N?$CEncrypt@K@@QAE_NABH@Z
_TEXT	SEGMENT
_value$ = -4						; size = 4
_inValue$ = 8						; size = 4
??N?$CEncrypt@K@@QAE_NABH@Z PROC			; CEncrypt<unsigned long>::operator<=, COMDAT
; _this$ = ecx

; 1020 : 	{

  00000	55		 push	 ebp
  00001	8b ec		 mov	 ebp, esp
  00003	51		 push	 ecx

; 1021 : 		
; 1022 : 		type value;
; 1023 : 		DecryptValueToPool(&value);

  00004	8d 45 fc	 lea	 eax, DWORD PTR _value$[ebp]
  00007	50		 push	 eax
  00008	e8 00 00 00 00	 call	 ?DecryptValueToPool@?$CEncrypt@K@@QAEXPAK@Z ; CEncrypt<unsigned long>::DecryptValueToPool

; 1024 : #ifdef _NOTUSE
; 1025 : 		Debug();
; 1026 : #endif
; 1027 : 		return (value <= inValue);

  0000d	8b 45 08	 mov	 eax, DWORD PTR _inValue$[ebp]
  00010	8b 00		 mov	 eax, DWORD PTR [eax]
  00012	3b 45 fc	 cmp	 eax, DWORD PTR _value$[ebp]
  00015	1b c0		 sbb	 eax, eax
  00017	40		 inc	 eax

; 1028 : 	}		

  00018	c9		 leave
  00019	c2 04 00	 ret	 4
??N?$CEncrypt@K@@QAE_NABH@Z ENDP			; CEncrypt<unsigned long>::operator<=
_TEXT	ENDS
PUBLIC	??H?$CEncrypt@K@@QAEKABK@Z			; CEncrypt<unsigned long>::operator+
; Function compile flags: /Ogsp
;	COMDAT ??H?$CEncrypt@K@@QAEKABK@Z
_TEXT	SEGMENT
_value$ = -4						; size = 4
_inValue$ = 8						; size = 4
??H?$CEncrypt@K@@QAEKABK@Z PROC				; CEncrypt<unsigned long>::operator+, COMDAT
; _this$ = ecx

; 1285 : 	{

  00000	55		 push	 ebp
  00001	8b ec		 mov	 ebp, esp
  00003	51		 push	 ecx

; 1286 : 		type value;
; 1287 : 		DecryptValueToPool(&value);

  00004	8d 45 fc	 lea	 eax, DWORD PTR _value$[ebp]
  00007	50		 push	 eax
  00008	e8 00 00 00 00	 call	 ?DecryptValueToPool@?$CEncrypt@K@@QAEXPAK@Z ; CEncrypt<unsigned long>::DecryptValueToPool

; 1288 : #ifdef _NOTUSE
; 1289 : 		Debug();
; 1290 : #endif
; 1291 : 		return value + inValue;

  0000d	8b 45 08	 mov	 eax, DWORD PTR _inValue$[ebp]
  00010	8b 00		 mov	 eax, DWORD PTR [eax]
  00012	03 45 fc	 add	 eax, DWORD PTR _value$[ebp]

; 1292 : 	}

  00015	c9		 leave
  00016	c2 04 00	 ret	 4
??H?$CEncrypt@K@@QAEKABK@Z ENDP				; CEncrypt<unsigned long>::operator+
_TEXT	ENDS
PUBLIC	??4?$CEncrypt@K@@QAEKM@Z			; CEncrypt<unsigned long>::operator=
EXTRN	__ftol2:PROC
; Function compile flags: /Ogsp
;	COMDAT ??4?$CEncrypt@K@@QAEKM@Z
_TEXT	SEGMENT
_value$ = 8						; size = 4
_inValue$ = 8						; size = 4
??4?$CEncrypt@K@@QAEKM@Z PROC				; CEncrypt<unsigned long>::operator=, COMDAT
; _this$ = ecx

; 1654 : 	{	

  00000	55		 push	 ebp
  00001	8b ec		 mov	 ebp, esp

; 1655 : 		type value = inValue;

  00003	d9 45 08	 fld	 DWORD PTR _inValue$[ebp]
  00006	56		 push	 esi
  00007	8b f1		 mov	 esi, ecx
  00009	e8 00 00 00 00	 call	 __ftol2
  0000e	89 45 08	 mov	 DWORD PTR _value$[ebp], eax

; 1656 : 		EncryptValueToPool((char*)&value);

  00011	8d 45 08	 lea	 eax, DWORD PTR _value$[ebp]
  00014	50		 push	 eax
  00015	8b ce		 mov	 ecx, esi
  00017	e8 00 00 00 00	 call	 ?EncryptValueToPool@?$CEncrypt@K@@AAEXPBD@Z ; CEncrypt<unsigned long>::EncryptValueToPool

; 1657 : #ifdef _NOTUSE
; 1658 : 		m_value = inValue;
; 1659 : 		Debug();
; 1660 : #endif
; 1661 : 		return value;

  0001c	8b 45 08	 mov	 eax, DWORD PTR _value$[ebp]
  0001f	5e		 pop	 esi

; 1662 : 	}

  00020	5d		 pop	 ebp
  00021	c2 04 00	 ret	 4
??4?$CEncrypt@K@@QAEKM@Z ENDP				; CEncrypt<unsigned long>::operator=
_TEXT	ENDS
PUBLIC	__$ArrayPad$
PUBLIC	??$LoadBool_e@$0P@@ioINILoader@@QAE_NAAY0P@$$CBD_N@Z ; ioINILoader::LoadBool_e<15>
EXTRN	__imp_?LoadBool@ioINILoader@@QAE_NPBD_N@Z:PROC
; Function compile flags: /Ogsp
; File d:\lost saga for developer\youtube\tutorial\source\src\io3dengine\ioiniloader.h
;	COMDAT ??$LoadBool_e@$0P@@ioINILoader@@QAE_NAAY0P@$$CBD_N@Z
_TEXT	SEGMENT
__k$ = -24						; size = 15
__$ArrayPad$ = -4					; size = 4
_k$ = 8							; size = 4
_b$ = 12						; size = 1
??$LoadBool_e@$0P@@ioINILoader@@QAE_NAAY0P@$$CBD_N@Z PROC ; ioINILoader::LoadBool_e<15>, COMDAT
; _this$ = ecx

; 101  : 	{

  00000	55		 push	 ebp
  00001	8b ec		 mov	 ebp, esp
  00003	83 ec 18	 sub	 esp, 24			; 00000018H
  00006	a1 00 00 00 00	 mov	 eax, DWORD PTR ___security_cookie
  0000b	33 c5		 xor	 eax, ebp
  0000d	89 45 fc	 mov	 DWORD PTR __$ArrayPad$[ebp], eax
  00010	8b 45 08	 mov	 eax, DWORD PTR _k$[ebp]

; 102  : 		_ENCSTR(k, _k);

  00013	8a 10		 mov	 dl, BYTE PTR [eax]
  00015	56		 push	 esi
  00016	8b f1		 mov	 esi, ecx
  00018	84 d2		 test	 dl, dl
  0001a	0f 84 75 01 00
	00		 je	 $LN96@LoadBool_e
  00020	80 f2 ed	 xor	 dl, -19			; ffffffedH
  00023	88 55 e8	 mov	 BYTE PTR __k$[ebp], dl
  00026	8a 50 01	 mov	 dl, BYTE PTR [eax+1]
  00029	84 d2		 test	 dl, dl
  0002b	0f 84 5e 01 00
	00		 je	 $LN95@LoadBool_e
  00031	b1 ec		 mov	 cl, -20			; ffffffecH
  00033	32 d1		 xor	 dl, cl
  00035	88 55 e9	 mov	 BYTE PTR __k$[ebp+1], dl
  00038	8a 50 02	 mov	 dl, BYTE PTR [eax+2]
  0003b	84 d2		 test	 dl, dl
  0003d	0f 84 46 01 00
	00		 je	 $LN94@LoadBool_e
  00043	80 f2 eb	 xor	 dl, -21			; ffffffebH
  00046	88 55 ea	 mov	 BYTE PTR __k$[ebp+2], dl
  00049	8a 50 03	 mov	 dl, BYTE PTR [eax+3]
  0004c	84 d2		 test	 dl, dl
  0004e	0f 84 2f 01 00
	00		 je	 $LN93@LoadBool_e
  00054	80 f2 ea	 xor	 dl, -22			; ffffffeaH
  00057	88 55 eb	 mov	 BYTE PTR __k$[ebp+3], dl
  0005a	8a 50 04	 mov	 dl, BYTE PTR [eax+4]
  0005d	84 d2		 test	 dl, dl
  0005f	0f 84 18 01 00
	00		 je	 $LN92@LoadBool_e
  00065	80 f2 ed	 xor	 dl, -19			; ffffffedH
  00068	88 55 ec	 mov	 BYTE PTR __k$[ebp+4], dl
  0006b	8a 50 05	 mov	 dl, BYTE PTR [eax+5]
  0006e	84 d2		 test	 dl, dl
  00070	0f 84 02 01 00
	00		 je	 $LN91@LoadBool_e
  00076	32 d1		 xor	 dl, cl
  00078	88 55 ed	 mov	 BYTE PTR __k$[ebp+5], dl
  0007b	8a 50 06	 mov	 dl, BYTE PTR [eax+6]
  0007e	84 d2		 test	 dl, dl
  00080	0f 84 ec 00 00
	00		 je	 $LN90@LoadBool_e
  00086	80 f2 eb	 xor	 dl, -21			; ffffffebH
  00089	88 55 ee	 mov	 BYTE PTR __k$[ebp+6], dl
  0008c	8a 50 07	 mov	 dl, BYTE PTR [eax+7]
  0008f	84 d2		 test	 dl, dl
  00091	0f 84 d5 00 00
	00		 je	 $LN89@LoadBool_e
  00097	80 f2 ea	 xor	 dl, -22			; ffffffeaH
  0009a	88 55 ef	 mov	 BYTE PTR __k$[ebp+7], dl
  0009d	8a 50 08	 mov	 dl, BYTE PTR [eax+8]
  000a0	84 d2		 test	 dl, dl
  000a2	0f 84 be 00 00
	00		 je	 $LN88@LoadBool_e
  000a8	80 f2 ed	 xor	 dl, -19			; ffffffedH
  000ab	88 55 f0	 mov	 BYTE PTR __k$[ebp+8], dl
  000ae	8a 50 09	 mov	 dl, BYTE PTR [eax+9]
  000b1	84 d2		 test	 dl, dl
  000b3	0f 84 a8 00 00
	00		 je	 $LN87@LoadBool_e
  000b9	32 d1		 xor	 dl, cl
  000bb	88 55 f1	 mov	 BYTE PTR __k$[ebp+9], dl
  000be	8a 50 0a	 mov	 dl, BYTE PTR [eax+10]
  000c1	84 d2		 test	 dl, dl
  000c3	0f 84 92 00 00
	00		 je	 $LN86@LoadBool_e
  000c9	80 f2 eb	 xor	 dl, -21			; ffffffebH
  000cc	88 55 f2	 mov	 BYTE PTR __k$[ebp+10], dl
  000cf	8a 50 0b	 mov	 dl, BYTE PTR [eax+11]
  000d2	84 d2		 test	 dl, dl
  000d4	74 7f		 je	 SHORT $LN85@LoadBool_e
  000d6	80 f2 ea	 xor	 dl, -22			; ffffffeaH
  000d9	88 55 f3	 mov	 BYTE PTR __k$[ebp+11], dl
  000dc	8a 50 0c	 mov	 dl, BYTE PTR [eax+12]
  000df	84 d2		 test	 dl, dl
  000e1	74 6c		 je	 SHORT $LN84@LoadBool_e
  000e3	80 f2 ed	 xor	 dl, -19			; ffffffedH
  000e6	88 55 f4	 mov	 BYTE PTR __k$[ebp+12], dl
  000e9	8a 50 0d	 mov	 dl, BYTE PTR [eax+13]
  000ec	84 d2		 test	 dl, dl
  000ee	74 5a		 je	 SHORT $LN83@LoadBool_e
  000f0	32 d1		 xor	 dl, cl
  000f2	80 78 0e 00	 cmp	 BYTE PTR [eax+14], 0
  000f6	88 55 f5	 mov	 BYTE PTR __k$[ebp+13], dl
  000f9	0f 84 9a 00 00
	00		 je	 $LN1@LoadBool_e
  000ff	8a 50 0f	 mov	 dl, BYTE PTR [eax+15]
  00102	84 d2		 test	 dl, dl
  00104	74 3e		 je	 SHORT $LN81@LoadBool_e
  00106	80 f2 ea	 xor	 dl, -22			; ffffffeaH
  00109	88 55 f7	 mov	 BYTE PTR __k$[ebp+15], dl
  0010c	8a 50 10	 mov	 dl, BYTE PTR [eax+16]
  0010f	84 d2		 test	 dl, dl
  00111	74 2b		 je	 SHORT $LN80@LoadBool_e
  00113	80 f2 ed	 xor	 dl, -19			; ffffffedH
  00116	88 55 f8	 mov	 BYTE PTR __k$[ebp+16], dl
  00119	8a 50 11	 mov	 dl, BYTE PTR [eax+17]
  0011c	84 d2		 test	 dl, dl
  0011e	74 19		 je	 SHORT $LN79@LoadBool_e
  00120	8a 40 12	 mov	 al, BYTE PTR [eax+18]
  00123	32 d1		 xor	 dl, cl
  00125	88 55 f9	 mov	 BYTE PTR __k$[ebp+17], dl
  00128	84 c0		 test	 al, al
  0012a	74 07		 je	 SHORT $LN78@LoadBool_e
  0012c	34 eb		 xor	 al, -21			; ffffffebH
  0012e	88 45 fa	 mov	 BYTE PTR __k$[ebp+18], al
  00131	eb 66		 jmp	 SHORT $LN1@LoadBool_e
$LN78@LoadBool_e:
  00133	c6 45 fa eb	 mov	 BYTE PTR __k$[ebp+18], -21 ; ffffffebH
  00137	eb 60		 jmp	 SHORT $LN1@LoadBool_e
$LN79@LoadBool_e:
  00139	88 4d f9	 mov	 BYTE PTR __k$[ebp+17], cl
  0013c	eb 5b		 jmp	 SHORT $LN1@LoadBool_e
$LN80@LoadBool_e:
  0013e	c6 45 f8 ed	 mov	 BYTE PTR __k$[ebp+16], -19 ; ffffffedH
  00142	eb 55		 jmp	 SHORT $LN1@LoadBool_e
$LN81@LoadBool_e:
  00144	c6 45 f7 ea	 mov	 BYTE PTR __k$[ebp+15], -22 ; ffffffeaH
  00148	eb 4f		 jmp	 SHORT $LN1@LoadBool_e
$LN83@LoadBool_e:
  0014a	88 4d f5	 mov	 BYTE PTR __k$[ebp+13], cl
  0014d	eb 4a		 jmp	 SHORT $LN1@LoadBool_e
$LN84@LoadBool_e:
  0014f	c6 45 f4 ed	 mov	 BYTE PTR __k$[ebp+12], -19 ; ffffffedH
  00153	eb 44		 jmp	 SHORT $LN1@LoadBool_e
$LN85@LoadBool_e:
  00155	c6 45 f3 ea	 mov	 BYTE PTR __k$[ebp+11], -22 ; ffffffeaH
  00159	eb 3e		 jmp	 SHORT $LN1@LoadBool_e
$LN86@LoadBool_e:
  0015b	c6 45 f2 eb	 mov	 BYTE PTR __k$[ebp+10], -21 ; ffffffebH
  0015f	eb 38		 jmp	 SHORT $LN1@LoadBool_e
$LN87@LoadBool_e:
  00161	88 4d f1	 mov	 BYTE PTR __k$[ebp+9], cl
  00164	eb 33		 jmp	 SHORT $LN1@LoadBool_e
$LN88@LoadBool_e:
  00166	c6 45 f0 ed	 mov	 BYTE PTR __k$[ebp+8], -19 ; ffffffedH
  0016a	eb 2d		 jmp	 SHORT $LN1@LoadBool_e
$LN89@LoadBool_e:
  0016c	c6 45 ef ea	 mov	 BYTE PTR __k$[ebp+7], -22 ; ffffffeaH
  00170	eb 27		 jmp	 SHORT $LN1@LoadBool_e
$LN90@LoadBool_e:
  00172	c6 45 ee eb	 mov	 BYTE PTR __k$[ebp+6], -21 ; ffffffebH
  00176	eb 21		 jmp	 SHORT $LN1@LoadBool_e
$LN91@LoadBool_e:
  00178	88 4d ed	 mov	 BYTE PTR __k$[ebp+5], cl
  0017b	eb 1c		 jmp	 SHORT $LN1@LoadBool_e
$LN92@LoadBool_e:
  0017d	c6 45 ec ed	 mov	 BYTE PTR __k$[ebp+4], -19 ; ffffffedH
  00181	eb 16		 jmp	 SHORT $LN1@LoadBool_e
$LN93@LoadBool_e:
  00183	c6 45 eb ea	 mov	 BYTE PTR __k$[ebp+3], -22 ; ffffffeaH
  00187	eb 10		 jmp	 SHORT $LN1@LoadBool_e
$LN94@LoadBool_e:
  00189	c6 45 ea eb	 mov	 BYTE PTR __k$[ebp+2], -21 ; ffffffebH
  0018d	eb 0a		 jmp	 SHORT $LN1@LoadBool_e
$LN95@LoadBool_e:
  0018f	c6 45 e9 ec	 mov	 BYTE PTR __k$[ebp+1], -20 ; ffffffecH
  00193	eb 04		 jmp	 SHORT $LN1@LoadBool_e
$LN96@LoadBool_e:
  00195	c6 45 e8 ed	 mov	 BYTE PTR __k$[ebp], -19	; ffffffedH
$LN1@LoadBool_e:
  00199	6a 03		 push	 3
  0019b	8d 45 e8	 lea	 eax, DWORD PTR __k$[ebp]
  0019e	c6 45 f6 00	 mov	 BYTE PTR __k$[ebp+14], 0
  001a2	5a		 pop	 edx
$LL104@LoadBool_e:
  001a3	81 30 ed ec eb
	ea		 xor	 DWORD PTR [eax], -353637139 ; eaebecedH
  001a9	83 c0 04	 add	 eax, 4
  001ac	4a		 dec	 edx
  001ad	75 f4		 jne	 SHORT $LL104@LoadBool_e
  001af	6a 0c		 push	 12			; 0000000cH
  001b1	58		 pop	 eax
$LL101@LoadBool_e:
  001b2	8b c8		 mov	 ecx, eax
  001b4	81 e1 03 00 00
	80		 and	 ecx, -2147483645	; 80000003H
  001ba	79 05		 jns	 SHORT $LN111@LoadBool_e
  001bc	49		 dec	 ecx
  001bd	83 c9 fc	 or	 ecx, -4			; fffffffcH
  001c0	41		 inc	 ecx
$LN111@LoadBool_e:
  001c1	b2 ed		 mov	 dl, -19			; ffffffedH
  001c3	2a d1		 sub	 dl, cl
  001c5	30 54 05 e8	 xor	 BYTE PTR __k$[ebp+eax], dl
  001c9	40		 inc	 eax
  001ca	83 f8 0e	 cmp	 eax, 14			; 0000000eH
  001cd	7c e3		 jl	 SHORT $LL101@LoadBool_e

; 103  : 		return LoadBool(_k, b);

  001cf	ff 75 0c	 push	 DWORD PTR _b$[ebp]
  001d2	8d 45 e8	 lea	 eax, DWORD PTR __k$[ebp]
  001d5	50		 push	 eax
  001d6	8b ce		 mov	 ecx, esi
  001d8	ff 15 00 00 00
	00		 call	 DWORD PTR __imp_?LoadBool@ioINILoader@@QAE_NPBD_N@Z

; 104  : 	}

  001de	8b 4d fc	 mov	 ecx, DWORD PTR __$ArrayPad$[ebp]
  001e1	33 cd		 xor	 ecx, ebp
  001e3	5e		 pop	 esi
  001e4	e8 00 00 00 00	 call	 @__security_check_cookie@4
  001e9	c9		 leave
  001ea	c2 08 00	 ret	 8
??$LoadBool_e@$0P@@ioINILoader@@QAE_NAAY0P@$$CBD_N@Z ENDP ; ioINILoader::LoadBool_e<15>
_TEXT	ENDS
PUBLIC	__$ArrayPad$
PUBLIC	??$LoadFloat_e@$0P@@ioINILoader@@QAEMAAY0P@$$CBDM@Z ; ioINILoader::LoadFloat_e<15>
EXTRN	__imp_?LoadFloat@ioINILoader@@QAEMPBDM@Z:PROC
; Function compile flags: /Ogsp
;	COMDAT ??$LoadFloat_e@$0P@@ioINILoader@@QAEMAAY0P@$$CBDM@Z
_TEXT	SEGMENT
__k$ = -24						; size = 15
__$ArrayPad$ = -4					; size = 4
_k$ = 8							; size = 4
_f$ = 12						; size = 4
??$LoadFloat_e@$0P@@ioINILoader@@QAEMAAY0P@$$CBDM@Z PROC ; ioINILoader::LoadFloat_e<15>, COMDAT
; _this$ = ecx

; 135  : 	{

  00000	55		 push	 ebp
  00001	8b ec		 mov	 ebp, esp
  00003	83 ec 18	 sub	 esp, 24			; 00000018H
  00006	a1 00 00 00 00	 mov	 eax, DWORD PTR ___security_cookie
  0000b	33 c5		 xor	 eax, ebp
  0000d	89 45 fc	 mov	 DWORD PTR __$ArrayPad$[ebp], eax
  00010	8b 45 08	 mov	 eax, DWORD PTR _k$[ebp]

; 136  : 		_ENCSTR(k, _k);

  00013	8a 10		 mov	 dl, BYTE PTR [eax]
  00015	56		 push	 esi
  00016	8b f1		 mov	 esi, ecx
  00018	84 d2		 test	 dl, dl
  0001a	0f 84 75 01 00
	00		 je	 $LN96@LoadFloat_
  00020	80 f2 ed	 xor	 dl, -19			; ffffffedH
  00023	88 55 e8	 mov	 BYTE PTR __k$[ebp], dl
  00026	8a 50 01	 mov	 dl, BYTE PTR [eax+1]
  00029	84 d2		 test	 dl, dl
  0002b	0f 84 5e 01 00
	00		 je	 $LN95@LoadFloat_
  00031	b1 ec		 mov	 cl, -20			; ffffffecH
  00033	32 d1		 xor	 dl, cl
  00035	88 55 e9	 mov	 BYTE PTR __k$[ebp+1], dl
  00038	8a 50 02	 mov	 dl, BYTE PTR [eax+2]
  0003b	84 d2		 test	 dl, dl
  0003d	0f 84 46 01 00
	00		 je	 $LN94@LoadFloat_
  00043	80 f2 eb	 xor	 dl, -21			; ffffffebH
  00046	88 55 ea	 mov	 BYTE PTR __k$[ebp+2], dl
  00049	8a 50 03	 mov	 dl, BYTE PTR [eax+3]
  0004c	84 d2		 test	 dl, dl
  0004e	0f 84 2f 01 00
	00		 je	 $LN93@LoadFloat_
  00054	80 f2 ea	 xor	 dl, -22			; ffffffeaH
  00057	88 55 eb	 mov	 BYTE PTR __k$[ebp+3], dl
  0005a	8a 50 04	 mov	 dl, BYTE PTR [eax+4]
  0005d	84 d2		 test	 dl, dl
  0005f	0f 84 18 01 00
	00		 je	 $LN92@LoadFloat_
  00065	80 f2 ed	 xor	 dl, -19			; ffffffedH
  00068	88 55 ec	 mov	 BYTE PTR __k$[ebp+4], dl
  0006b	8a 50 05	 mov	 dl, BYTE PTR [eax+5]
  0006e	84 d2		 test	 dl, dl
  00070	0f 84 02 01 00
	00		 je	 $LN91@LoadFloat_
  00076	32 d1		 xor	 dl, cl
  00078	88 55 ed	 mov	 BYTE PTR __k$[ebp+5], dl
  0007b	8a 50 06	 mov	 dl, BYTE PTR [eax+6]
  0007e	84 d2		 test	 dl, dl
  00080	0f 84 ec 00 00
	00		 je	 $LN90@LoadFloat_
  00086	80 f2 eb	 xor	 dl, -21			; ffffffebH
  00089	88 55 ee	 mov	 BYTE PTR __k$[ebp+6], dl
  0008c	8a 50 07	 mov	 dl, BYTE PTR [eax+7]
  0008f	84 d2		 test	 dl, dl
  00091	0f 84 d5 00 00
	00		 je	 $LN89@LoadFloat_
  00097	80 f2 ea	 xor	 dl, -22			; ffffffeaH
  0009a	88 55 ef	 mov	 BYTE PTR __k$[ebp+7], dl
  0009d	8a 50 08	 mov	 dl, BYTE PTR [eax+8]
  000a0	84 d2		 test	 dl, dl
  000a2	0f 84 be 00 00
	00		 je	 $LN88@LoadFloat_
  000a8	80 f2 ed	 xor	 dl, -19			; ffffffedH
  000ab	88 55 f0	 mov	 BYTE PTR __k$[ebp+8], dl
  000ae	8a 50 09	 mov	 dl, BYTE PTR [eax+9]
  000b1	84 d2		 test	 dl, dl
  000b3	0f 84 a8 00 00
	00		 je	 $LN87@LoadFloat_
  000b9	32 d1		 xor	 dl, cl
  000bb	88 55 f1	 mov	 BYTE PTR __k$[ebp+9], dl
  000be	8a 50 0a	 mov	 dl, BYTE PTR [eax+10]
  000c1	84 d2		 test	 dl, dl
  000c3	0f 84 92 00 00
	00		 je	 $LN86@LoadFloat_
  000c9	80 f2 eb	 xor	 dl, -21			; ffffffebH
  000cc	88 55 f2	 mov	 BYTE PTR __k$[ebp+10], dl
  000cf	8a 50 0b	 mov	 dl, BYTE PTR [eax+11]
  000d2	84 d2		 test	 dl, dl
  000d4	74 7f		 je	 SHORT $LN85@LoadFloat_
  000d6	80 f2 ea	 xor	 dl, -22			; ffffffeaH
  000d9	88 55 f3	 mov	 BYTE PTR __k$[ebp+11], dl
  000dc	8a 50 0c	 mov	 dl, BYTE PTR [eax+12]
  000df	84 d2		 test	 dl, dl
  000e1	74 6c		 je	 SHORT $LN84@LoadFloat_
  000e3	80 f2 ed	 xor	 dl, -19			; ffffffedH
  000e6	88 55 f4	 mov	 BYTE PTR __k$[ebp+12], dl
  000e9	8a 50 0d	 mov	 dl, BYTE PTR [eax+13]
  000ec	84 d2		 test	 dl, dl
  000ee	74 5a		 je	 SHORT $LN83@LoadFloat_
  000f0	32 d1		 xor	 dl, cl
  000f2	80 78 0e 00	 cmp	 BYTE PTR [eax+14], 0
  000f6	88 55 f5	 mov	 BYTE PTR __k$[ebp+13], dl
  000f9	0f 84 9a 00 00
	00		 je	 $LN1@LoadFloat_
  000ff	8a 50 0f	 mov	 dl, BYTE PTR [eax+15]
  00102	84 d2		 test	 dl, dl
  00104	74 3e		 je	 SHORT $LN81@LoadFloat_
  00106	80 f2 ea	 xor	 dl, -22			; ffffffeaH
  00109	88 55 f7	 mov	 BYTE PTR __k$[ebp+15], dl
  0010c	8a 50 10	 mov	 dl, BYTE PTR [eax+16]
  0010f	84 d2		 test	 dl, dl
  00111	74 2b		 je	 SHORT $LN80@LoadFloat_
  00113	80 f2 ed	 xor	 dl, -19			; ffffffedH
  00116	88 55 f8	 mov	 BYTE PTR __k$[ebp+16], dl
  00119	8a 50 11	 mov	 dl, BYTE PTR [eax+17]
  0011c	84 d2		 test	 dl, dl
  0011e	74 19		 je	 SHORT $LN79@LoadFloat_
  00120	8a 40 12	 mov	 al, BYTE PTR [eax+18]
  00123	32 d1		 xor	 dl, cl
  00125	88 55 f9	 mov	 BYTE PTR __k$[ebp+17], dl
  00128	84 c0		 test	 al, al
  0012a	74 07		 je	 SHORT $LN78@LoadFloat_
  0012c	34 eb		 xor	 al, -21			; ffffffebH
  0012e	88 45 fa	 mov	 BYTE PTR __k$[ebp+18], al
  00131	eb 66		 jmp	 SHORT $LN1@LoadFloat_
$LN78@LoadFloat_:
  00133	c6 45 fa eb	 mov	 BYTE PTR __k$[ebp+18], -21 ; ffffffebH
  00137	eb 60		 jmp	 SHORT $LN1@LoadFloat_
$LN79@LoadFloat_:
  00139	88 4d f9	 mov	 BYTE PTR __k$[ebp+17], cl
  0013c	eb 5b		 jmp	 SHORT $LN1@LoadFloat_
$LN80@LoadFloat_:
  0013e	c6 45 f8 ed	 mov	 BYTE PTR __k$[ebp+16], -19 ; ffffffedH
  00142	eb 55		 jmp	 SHORT $LN1@LoadFloat_
$LN81@LoadFloat_:
  00144	c6 45 f7 ea	 mov	 BYTE PTR __k$[ebp+15], -22 ; ffffffeaH
  00148	eb 4f		 jmp	 SHORT $LN1@LoadFloat_
$LN83@LoadFloat_:
  0014a	88 4d f5	 mov	 BYTE PTR __k$[ebp+13], cl
  0014d	eb 4a		 jmp	 SHORT $LN1@LoadFloat_
$LN84@LoadFloat_:
  0014f	c6 45 f4 ed	 mov	 BYTE PTR __k$[ebp+12], -19 ; ffffffedH
  00153	eb 44		 jmp	 SHORT $LN1@LoadFloat_
$LN85@LoadFloat_:
  00155	c6 45 f3 ea	 mov	 BYTE PTR __k$[ebp+11], -22 ; ffffffeaH
  00159	eb 3e		 jmp	 SHORT $LN1@LoadFloat_
$LN86@LoadFloat_:
  0015b	c6 45 f2 eb	 mov	 BYTE PTR __k$[ebp+10], -21 ; ffffffebH
  0015f	eb 38		 jmp	 SHORT $LN1@LoadFloat_
$LN87@LoadFloat_:
  00161	88 4d f1	 mov	 BYTE PTR __k$[ebp+9], cl
  00164	eb 33		 jmp	 SHORT $LN1@LoadFloat_
$LN88@LoadFloat_:
  00166	c6 45 f0 ed	 mov	 BYTE PTR __k$[ebp+8], -19 ; ffffffedH
  0016a	eb 2d		 jmp	 SHORT $LN1@LoadFloat_
$LN89@LoadFloat_:
  0016c	c6 45 ef ea	 mov	 BYTE PTR __k$[ebp+7], -22 ; ffffffeaH
  00170	eb 27		 jmp	 SHORT $LN1@LoadFloat_
$LN90@LoadFloat_:
  00172	c6 45 ee eb	 mov	 BYTE PTR __k$[ebp+6], -21 ; ffffffebH
  00176	eb 21		 jmp	 SHORT $LN1@LoadFloat_
$LN91@LoadFloat_:
  00178	88 4d ed	 mov	 BYTE PTR __k$[ebp+5], cl
  0017b	eb 1c		 jmp	 SHORT $LN1@LoadFloat_
$LN92@LoadFloat_:
  0017d	c6 45 ec ed	 mov	 BYTE PTR __k$[ebp+4], -19 ; ffffffedH
  00181	eb 16		 jmp	 SHORT $LN1@LoadFloat_
$LN93@LoadFloat_:
  00183	c6 45 eb ea	 mov	 BYTE PTR __k$[ebp+3], -22 ; ffffffeaH
  00187	eb 10		 jmp	 SHORT $LN1@LoadFloat_
$LN94@LoadFloat_:
  00189	c6 45 ea eb	 mov	 BYTE PTR __k$[ebp+2], -21 ; ffffffebH
  0018d	eb 0a		 jmp	 SHORT $LN1@LoadFloat_
$LN95@LoadFloat_:
  0018f	c6 45 e9 ec	 mov	 BYTE PTR __k$[ebp+1], -20 ; ffffffecH
  00193	eb 04		 jmp	 SHORT $LN1@LoadFloat_
$LN96@LoadFloat_:
  00195	c6 45 e8 ed	 mov	 BYTE PTR __k$[ebp], -19	; ffffffedH
$LN1@LoadFloat_:
  00199	6a 03		 push	 3
  0019b	8d 45 e8	 lea	 eax, DWORD PTR __k$[ebp]
  0019e	c6 45 f6 00	 mov	 BYTE PTR __k$[ebp+14], 0
  001a2	5a		 pop	 edx
$LL104@LoadFloat_:
  001a3	81 30 ed ec eb
	ea		 xor	 DWORD PTR [eax], -353637139 ; eaebecedH
  001a9	83 c0 04	 add	 eax, 4
  001ac	4a		 dec	 edx
  001ad	75 f4		 jne	 SHORT $LL104@LoadFloat_
  001af	6a 0c		 push	 12			; 0000000cH
  001b1	58		 pop	 eax
$LL101@LoadFloat_:
  001b2	8b c8		 mov	 ecx, eax
  001b4	81 e1 03 00 00
	80		 and	 ecx, -2147483645	; 80000003H
  001ba	79 05		 jns	 SHORT $LN111@LoadFloat_
  001bc	49		 dec	 ecx
  001bd	83 c9 fc	 or	 ecx, -4			; fffffffcH
  001c0	41		 inc	 ecx
$LN111@LoadFloat_:
  001c1	b2 ed		 mov	 dl, -19			; ffffffedH
  001c3	2a d1		 sub	 dl, cl
  001c5	30 54 05 e8	 xor	 BYTE PTR __k$[ebp+eax], dl
  001c9	40		 inc	 eax
  001ca	83 f8 0e	 cmp	 eax, 14			; 0000000eH
  001cd	7c e3		 jl	 SHORT $LL101@LoadFloat_

; 137  : 		return LoadFloat(_k, f);

  001cf	f3 0f 10 45 0c	 movss	 xmm0, DWORD PTR _f$[ebp]
  001d4	51		 push	 ecx
  001d5	8d 45 e8	 lea	 eax, DWORD PTR __k$[ebp]
  001d8	f3 0f 11 04 24	 movss	 DWORD PTR [esp], xmm0
  001dd	50		 push	 eax
  001de	8b ce		 mov	 ecx, esi
  001e0	ff 15 00 00 00
	00		 call	 DWORD PTR __imp_?LoadFloat@ioINILoader@@QAEMPBDM@Z

; 138  : 	}

  001e6	8b 4d fc	 mov	 ecx, DWORD PTR __$ArrayPad$[ebp]
  001e9	33 cd		 xor	 ecx, ebp
  001eb	5e		 pop	 esi
  001ec	e8 00 00 00 00	 call	 @__security_check_cookie@4
  001f1	c9		 leave
  001f2	c2 08 00	 ret	 8
??$LoadFloat_e@$0P@@ioINILoader@@QAEMAAY0P@$$CBDM@Z ENDP ; ioINILoader::LoadFloat_e<15>
_TEXT	ENDS
PUBLIC	__$ArrayPad$
PUBLIC	??$LoadInt_e@$09@ioINILoader@@QAEHAAY09$$CBDH@Z	; ioINILoader::LoadInt_e<10>
EXTRN	__imp_?LoadInt@ioINILoader@@QAEHPBDH@Z:PROC
; Function compile flags: /Ogsp
;	COMDAT ??$LoadInt_e@$09@ioINILoader@@QAEHAAY09$$CBDH@Z
_TEXT	SEGMENT
__k$ = -20						; size = 10
__$ArrayPad$ = -4					; size = 4
_k$ = 8							; size = 4
_i$ = 12						; size = 4
??$LoadInt_e@$09@ioINILoader@@QAEHAAY09$$CBDH@Z PROC	; ioINILoader::LoadInt_e<10>, COMDAT
; _this$ = ecx

; 118  : 	{

  00000	55		 push	 ebp
  00001	8b ec		 mov	 ebp, esp
  00003	83 ec 14	 sub	 esp, 20			; 00000014H
  00006	a1 00 00 00 00	 mov	 eax, DWORD PTR ___security_cookie
  0000b	33 c5		 xor	 eax, ebp
  0000d	89 45 fc	 mov	 DWORD PTR __$ArrayPad$[ebp], eax
  00010	8b 45 08	 mov	 eax, DWORD PTR _k$[ebp]

; 119  : 		_ENCSTR(k, _k);

  00013	8a 10		 mov	 dl, BYTE PTR [eax]
  00015	84 d2		 test	 dl, dl
  00017	0f 84 0d 01 00
	00		 je	 $LN96@LoadInt_e
  0001d	80 f2 ed	 xor	 dl, -19			; ffffffedH
  00020	88 55 ec	 mov	 BYTE PTR __k$[ebp], dl
  00023	8a 50 01	 mov	 dl, BYTE PTR [eax+1]
  00026	84 d2		 test	 dl, dl
  00028	0f 84 f6 00 00
	00		 je	 $LN95@LoadInt_e
  0002e	80 f2 ec	 xor	 dl, -20			; ffffffecH
  00031	88 55 ed	 mov	 BYTE PTR __k$[ebp+1], dl
  00034	8a 50 02	 mov	 dl, BYTE PTR [eax+2]
  00037	84 d2		 test	 dl, dl
  00039	0f 84 df 00 00
	00		 je	 $LN94@LoadInt_e
  0003f	80 f2 eb	 xor	 dl, -21			; ffffffebH
  00042	88 55 ee	 mov	 BYTE PTR __k$[ebp+2], dl
  00045	8a 50 03	 mov	 dl, BYTE PTR [eax+3]
  00048	84 d2		 test	 dl, dl
  0004a	0f 84 c8 00 00
	00		 je	 $LN93@LoadInt_e
  00050	80 f2 ea	 xor	 dl, -22			; ffffffeaH
  00053	88 55 ef	 mov	 BYTE PTR __k$[ebp+3], dl
  00056	8a 50 04	 mov	 dl, BYTE PTR [eax+4]
  00059	84 d2		 test	 dl, dl
  0005b	0f 84 b1 00 00
	00		 je	 $LN92@LoadInt_e
  00061	80 f2 ed	 xor	 dl, -19			; ffffffedH
  00064	88 55 f0	 mov	 BYTE PTR __k$[ebp+4], dl
  00067	8a 50 05	 mov	 dl, BYTE PTR [eax+5]
  0006a	84 d2		 test	 dl, dl
  0006c	0f 84 9a 00 00
	00		 je	 $LN91@LoadInt_e
  00072	80 f2 ec	 xor	 dl, -20			; ffffffecH
  00075	88 55 f1	 mov	 BYTE PTR __k$[ebp+5], dl
  00078	8a 50 06	 mov	 dl, BYTE PTR [eax+6]
  0007b	84 d2		 test	 dl, dl
  0007d	0f 84 83 00 00
	00		 je	 $LN90@LoadInt_e
  00083	80 f2 eb	 xor	 dl, -21			; ffffffebH
  00086	88 55 f2	 mov	 BYTE PTR __k$[ebp+6], dl
  00089	8a 50 07	 mov	 dl, BYTE PTR [eax+7]
  0008c	84 d2		 test	 dl, dl
  0008e	74 70		 je	 SHORT $LN89@LoadInt_e
  00090	80 f2 ea	 xor	 dl, -22			; ffffffeaH
  00093	88 55 f3	 mov	 BYTE PTR __k$[ebp+7], dl
  00096	8a 50 08	 mov	 dl, BYTE PTR [eax+8]
  00099	84 d2		 test	 dl, dl
  0009b	74 5d		 je	 SHORT $LN88@LoadInt_e
  0009d	80 f2 ed	 xor	 dl, -19			; ffffffedH
  000a0	80 78 09 00	 cmp	 BYTE PTR [eax+9], 0
  000a4	88 55 f4	 mov	 BYTE PTR __k$[ebp+8], dl
  000a7	0f 84 81 00 00
	00		 je	 $LN1@LoadInt_e
  000ad	8a 50 0a	 mov	 dl, BYTE PTR [eax+10]
  000b0	84 d2		 test	 dl, dl
  000b2	74 40		 je	 SHORT $LN86@LoadInt_e
  000b4	80 f2 eb	 xor	 dl, -21			; ffffffebH
  000b7	88 55 f6	 mov	 BYTE PTR __k$[ebp+10], dl
  000ba	8a 50 0b	 mov	 dl, BYTE PTR [eax+11]
  000bd	84 d2		 test	 dl, dl
  000bf	74 2d		 je	 SHORT $LN85@LoadInt_e
  000c1	80 f2 ea	 xor	 dl, -22			; ffffffeaH
  000c4	88 55 f7	 mov	 BYTE PTR __k$[ebp+11], dl
  000c7	8a 50 0c	 mov	 dl, BYTE PTR [eax+12]
  000ca	84 d2		 test	 dl, dl
  000cc	74 1a		 je	 SHORT $LN84@LoadInt_e
  000ce	8a 40 0d	 mov	 al, BYTE PTR [eax+13]
  000d1	80 f2 ed	 xor	 dl, -19			; ffffffedH
  000d4	88 55 f8	 mov	 BYTE PTR __k$[ebp+12], dl
  000d7	84 c0		 test	 al, al
  000d9	74 07		 je	 SHORT $LN83@LoadInt_e
  000db	34 ec		 xor	 al, -20			; ffffffecH
  000dd	88 45 f9	 mov	 BYTE PTR __k$[ebp+13], al
  000e0	eb 4c		 jmp	 SHORT $LN1@LoadInt_e
$LN83@LoadInt_e:
  000e2	c6 45 f9 ec	 mov	 BYTE PTR __k$[ebp+13], -20 ; ffffffecH
  000e6	eb 46		 jmp	 SHORT $LN1@LoadInt_e
$LN84@LoadInt_e:
  000e8	c6 45 f8 ed	 mov	 BYTE PTR __k$[ebp+12], -19 ; ffffffedH
  000ec	eb 40		 jmp	 SHORT $LN1@LoadInt_e
$LN85@LoadInt_e:
  000ee	c6 45 f7 ea	 mov	 BYTE PTR __k$[ebp+11], -22 ; ffffffeaH
  000f2	eb 3a		 jmp	 SHORT $LN1@LoadInt_e
$LN86@LoadInt_e:
  000f4	c6 45 f6 eb	 mov	 BYTE PTR __k$[ebp+10], -21 ; ffffffebH
  000f8	eb 34		 jmp	 SHORT $LN1@LoadInt_e
$LN88@LoadInt_e:
  000fa	c6 45 f4 ed	 mov	 BYTE PTR __k$[ebp+8], -19 ; ffffffedH
  000fe	eb 2e		 jmp	 SHORT $LN1@LoadInt_e
$LN89@LoadInt_e:
  00100	c6 45 f3 ea	 mov	 BYTE PTR __k$[ebp+7], -22 ; ffffffeaH
  00104	eb 28		 jmp	 SHORT $LN1@LoadInt_e
$LN90@LoadInt_e:
  00106	c6 45 f2 eb	 mov	 BYTE PTR __k$[ebp+6], -21 ; ffffffebH
  0010a	eb 22		 jmp	 SHORT $LN1@LoadInt_e
$LN91@LoadInt_e:
  0010c	c6 45 f1 ec	 mov	 BYTE PTR __k$[ebp+5], -20 ; ffffffecH
  00110	eb 1c		 jmp	 SHORT $LN1@LoadInt_e
$LN92@LoadInt_e:
  00112	c6 45 f0 ed	 mov	 BYTE PTR __k$[ebp+4], -19 ; ffffffedH
  00116	eb 16		 jmp	 SHORT $LN1@LoadInt_e
$LN93@LoadInt_e:
  00118	c6 45 ef ea	 mov	 BYTE PTR __k$[ebp+3], -22 ; ffffffeaH
  0011c	eb 10		 jmp	 SHORT $LN1@LoadInt_e
$LN94@LoadInt_e:
  0011e	c6 45 ee eb	 mov	 BYTE PTR __k$[ebp+2], -21 ; ffffffebH
  00122	eb 0a		 jmp	 SHORT $LN1@LoadInt_e
$LN95@LoadInt_e:
  00124	c6 45 ed ec	 mov	 BYTE PTR __k$[ebp+1], -20 ; ffffffecH
  00128	eb 04		 jmp	 SHORT $LN1@LoadInt_e
$LN96@LoadInt_e:
  0012a	c6 45 ec ed	 mov	 BYTE PTR __k$[ebp], -19	; ffffffedH
$LN1@LoadInt_e:
  0012e	6a 02		 push	 2
  00130	8d 45 ec	 lea	 eax, DWORD PTR __k$[ebp]
  00133	c6 45 f5 00	 mov	 BYTE PTR __k$[ebp+9], 0
  00137	5a		 pop	 edx
$LL104@LoadInt_e:
  00138	81 30 ed ec eb
	ea		 xor	 DWORD PTR [eax], -353637139 ; eaebecedH
  0013e	83 c0 04	 add	 eax, 4
  00141	4a		 dec	 edx
  00142	75 f4		 jne	 SHORT $LL104@LoadInt_e

; 120  : 		return LoadInt(_k, i);

  00144	ff 75 0c	 push	 DWORD PTR _i$[ebp]
  00147	80 75 f4 ed	 xor	 BYTE PTR __k$[ebp+8], -19 ; ffffffedH
  0014b	8d 45 ec	 lea	 eax, DWORD PTR __k$[ebp]
  0014e	50		 push	 eax
  0014f	ff 15 00 00 00
	00		 call	 DWORD PTR __imp_?LoadInt@ioINILoader@@QAEHPBDH@Z

; 121  : 	}

  00155	8b 4d fc	 mov	 ecx, DWORD PTR __$ArrayPad$[ebp]
  00158	33 cd		 xor	 ecx, ebp
  0015a	e8 00 00 00 00	 call	 @__security_check_cookie@4
  0015f	c9		 leave
  00160	c2 08 00	 ret	 8
??$LoadInt_e@$09@ioINILoader@@QAEHAAY09$$CBDH@Z ENDP	; ioINILoader::LoadInt_e<10>
_TEXT	ENDS
PUBLIC	_this$GSCopy$
PUBLIC	__$ArrayPad$
PUBLIC	??$LoadString_e@$0BH@@ioINILoader@@QAEXAAY0BH@$$CBDAAY00$$CBDPADH@Z ; ioINILoader::LoadString_e<23>
EXTRN	__imp_?LoadStringA@ioINILoader@@QAEXPBD0PADH@Z:PROC
; Function compile flags: /Ogsp
;	COMDAT ??$LoadString_e@$0BH@@ioINILoader@@QAEXAAY0BH@$$CBDAAY00$$CBDPADH@Z
_TEXT	SEGMENT
_this$GSCopy$ = -36					; size = 4
__k$ = -32						; size = 23
__$ArrayPad$ = -4					; size = 4
_k$ = 8							; size = 4
_d$ = 12						; size = 4
_b$ = 16						; size = 4
_i$ = 20						; size = 4
??$LoadString_e@$0BH@@ioINILoader@@QAEXAAY0BH@$$CBDAAY00$$CBDPADH@Z PROC ; ioINILoader::LoadString_e<23>, COMDAT
; _this$ = ecx

; 161  : 	{

  00000	55		 push	 ebp
  00001	8b ec		 mov	 ebp, esp
  00003	83 ec 24	 sub	 esp, 36			; 00000024H
  00006	a1 00 00 00 00	 mov	 eax, DWORD PTR ___security_cookie
  0000b	33 c5		 xor	 eax, ebp
  0000d	89 45 fc	 mov	 DWORD PTR __$ArrayPad$[ebp], eax
  00010	8b 45 08	 mov	 eax, DWORD PTR _k$[ebp]

; 162  : 		_ENCSTR(k, _k);

  00013	8a 10		 mov	 dl, BYTE PTR [eax]
  00015	53		 push	 ebx
  00016	56		 push	 esi
  00017	8b 75 0c	 mov	 esi, DWORD PTR _d$[ebp]
  0001a	57		 push	 edi
  0001b	8b 7d 10	 mov	 edi, DWORD PTR _b$[ebp]
  0001e	89 4d dc	 mov	 DWORD PTR _this$GSCopy$[ebp], ecx
  00021	84 d2		 test	 dl, dl
  00023	0f 84 2d 02 00
	00		 je	 $LN96@LoadString
  00029	80 f2 ed	 xor	 dl, -19			; ffffffedH
  0002c	88 55 e0	 mov	 BYTE PTR __k$[ebp], dl
  0002f	8a 50 01	 mov	 dl, BYTE PTR [eax+1]
  00032	84 d2		 test	 dl, dl
  00034	0f 84 16 02 00
	00		 je	 $LN95@LoadString
  0003a	b1 ec		 mov	 cl, -20			; ffffffecH
  0003c	32 d1		 xor	 dl, cl
  0003e	88 55 e1	 mov	 BYTE PTR __k$[ebp+1], dl
  00041	8a 50 02	 mov	 dl, BYTE PTR [eax+2]
  00044	84 d2		 test	 dl, dl
  00046	0f 84 fe 01 00
	00		 je	 $LN94@LoadString
  0004c	80 f2 eb	 xor	 dl, -21			; ffffffebH
  0004f	88 55 e2	 mov	 BYTE PTR __k$[ebp+2], dl
  00052	8a 50 03	 mov	 dl, BYTE PTR [eax+3]
  00055	84 d2		 test	 dl, dl
  00057	0f 84 e7 01 00
	00		 je	 $LN93@LoadString
  0005d	b3 ea		 mov	 bl, -22			; ffffffeaH
  0005f	32 d3		 xor	 dl, bl
  00061	88 55 e3	 mov	 BYTE PTR __k$[ebp+3], dl
  00064	8a 50 04	 mov	 dl, BYTE PTR [eax+4]
  00067	84 d2		 test	 dl, dl
  00069	0f 84 cf 01 00
	00		 je	 $LN92@LoadString
  0006f	80 f2 ed	 xor	 dl, -19			; ffffffedH
  00072	88 55 e4	 mov	 BYTE PTR __k$[ebp+4], dl
  00075	8a 50 05	 mov	 dl, BYTE PTR [eax+5]
  00078	84 d2		 test	 dl, dl
  0007a	0f 84 b9 01 00
	00		 je	 $LN91@LoadString
  00080	32 d1		 xor	 dl, cl
  00082	88 55 e5	 mov	 BYTE PTR __k$[ebp+5], dl
  00085	8a 50 06	 mov	 dl, BYTE PTR [eax+6]
  00088	84 d2		 test	 dl, dl
  0008a	0f 84 a3 01 00
	00		 je	 $LN90@LoadString
  00090	80 f2 eb	 xor	 dl, -21			; ffffffebH
  00093	88 55 e6	 mov	 BYTE PTR __k$[ebp+6], dl
  00096	8a 50 07	 mov	 dl, BYTE PTR [eax+7]
  00099	84 d2		 test	 dl, dl
  0009b	0f 84 8d 01 00
	00		 je	 $LN89@LoadString
  000a1	32 d3		 xor	 dl, bl
  000a3	88 55 e7	 mov	 BYTE PTR __k$[ebp+7], dl
  000a6	8a 50 08	 mov	 dl, BYTE PTR [eax+8]
  000a9	84 d2		 test	 dl, dl
  000ab	0f 84 77 01 00
	00		 je	 $LN88@LoadString
  000b1	80 f2 ed	 xor	 dl, -19			; ffffffedH
  000b4	88 55 e8	 mov	 BYTE PTR __k$[ebp+8], dl
  000b7	8a 50 09	 mov	 dl, BYTE PTR [eax+9]
  000ba	84 d2		 test	 dl, dl
  000bc	0f 84 61 01 00
	00		 je	 $LN87@LoadString
  000c2	32 d1		 xor	 dl, cl
  000c4	88 55 e9	 mov	 BYTE PTR __k$[ebp+9], dl
  000c7	8a 50 0a	 mov	 dl, BYTE PTR [eax+10]
  000ca	84 d2		 test	 dl, dl
  000cc	0f 84 4b 01 00
	00		 je	 $LN86@LoadString
  000d2	80 f2 eb	 xor	 dl, -21			; ffffffebH
  000d5	88 55 ea	 mov	 BYTE PTR __k$[ebp+10], dl
  000d8	8a 50 0b	 mov	 dl, BYTE PTR [eax+11]
  000db	84 d2		 test	 dl, dl
  000dd	0f 84 35 01 00
	00		 je	 $LN85@LoadString
  000e3	32 d3		 xor	 dl, bl
  000e5	88 55 eb	 mov	 BYTE PTR __k$[ebp+11], dl
  000e8	8a 50 0c	 mov	 dl, BYTE PTR [eax+12]
  000eb	84 d2		 test	 dl, dl
  000ed	0f 84 1f 01 00
	00		 je	 $LN84@LoadString
  000f3	80 f2 ed	 xor	 dl, -19			; ffffffedH
  000f6	88 55 ec	 mov	 BYTE PTR __k$[ebp+12], dl
  000f9	8a 50 0d	 mov	 dl, BYTE PTR [eax+13]
  000fc	84 d2		 test	 dl, dl
  000fe	0f 84 09 01 00
	00		 je	 $LN83@LoadString
  00104	32 d1		 xor	 dl, cl
  00106	88 55 ed	 mov	 BYTE PTR __k$[ebp+13], dl
  00109	8a 50 0e	 mov	 dl, BYTE PTR [eax+14]
  0010c	84 d2		 test	 dl, dl
  0010e	0f 84 f3 00 00
	00		 je	 $LN82@LoadString
  00114	80 f2 eb	 xor	 dl, -21			; ffffffebH
  00117	88 55 ee	 mov	 BYTE PTR __k$[ebp+14], dl
  0011a	8a 50 0f	 mov	 dl, BYTE PTR [eax+15]
  0011d	84 d2		 test	 dl, dl
  0011f	0f 84 dd 00 00
	00		 je	 $LN81@LoadString
  00125	32 d3		 xor	 dl, bl
  00127	88 55 ef	 mov	 BYTE PTR __k$[ebp+15], dl
  0012a	8a 50 10	 mov	 dl, BYTE PTR [eax+16]
  0012d	84 d2		 test	 dl, dl
  0012f	0f 84 c7 00 00
	00		 je	 $LN80@LoadString
  00135	80 f2 ed	 xor	 dl, -19			; ffffffedH
  00138	88 55 f0	 mov	 BYTE PTR __k$[ebp+16], dl
  0013b	8a 50 11	 mov	 dl, BYTE PTR [eax+17]
  0013e	84 d2		 test	 dl, dl
  00140	0f 84 b1 00 00
	00		 je	 $LN79@LoadString
  00146	32 d1		 xor	 dl, cl
  00148	88 55 f1	 mov	 BYTE PTR __k$[ebp+17], dl
  0014b	8a 50 12	 mov	 dl, BYTE PTR [eax+18]
  0014e	84 d2		 test	 dl, dl
  00150	0f 84 9b 00 00
	00		 je	 $LN78@LoadString
  00156	80 f2 eb	 xor	 dl, -21			; ffffffebH
  00159	88 55 f2	 mov	 BYTE PTR __k$[ebp+18], dl
  0015c	8a 50 13	 mov	 dl, BYTE PTR [eax+19]
  0015f	84 d2		 test	 dl, dl
  00161	0f 84 85 00 00
	00		 je	 $LN77@LoadString
  00167	32 d3		 xor	 dl, bl
  00169	88 55 f3	 mov	 BYTE PTR __k$[ebp+19], dl
  0016c	8a 50 14	 mov	 dl, BYTE PTR [eax+20]
  0016f	84 d2		 test	 dl, dl
  00171	74 73		 je	 SHORT $LN76@LoadString
  00173	80 f2 ed	 xor	 dl, -19			; ffffffedH
  00176	88 55 f4	 mov	 BYTE PTR __k$[ebp+20], dl
  00179	8a 50 15	 mov	 dl, BYTE PTR [eax+21]
  0017c	84 d2		 test	 dl, dl
  0017e	74 61		 je	 SHORT $LN75@LoadString
  00180	32 d1		 xor	 dl, cl
  00182	80 78 16 00	 cmp	 BYTE PTR [eax+22], 0
  00186	88 55 f5	 mov	 BYTE PTR __k$[ebp+21], dl
  00189	0f 84 cb 00 00
	00		 je	 $LN111@LoadString
  0018f	8a 50 17	 mov	 dl, BYTE PTR [eax+23]
  00192	84 d2		 test	 dl, dl
  00194	74 46		 je	 SHORT $LN73@LoadString
  00196	32 d3		 xor	 dl, bl
  00198	88 55 f7	 mov	 BYTE PTR __k$[ebp+23], dl
  0019b	8a 50 18	 mov	 dl, BYTE PTR [eax+24]
  0019e	84 d2		 test	 dl, dl
  001a0	74 34		 je	 SHORT $LN72@LoadString
  001a2	80 f2 ed	 xor	 dl, -19			; ffffffedH
  001a5	88 55 f8	 mov	 BYTE PTR __k$[ebp+24], dl
  001a8	8a 50 19	 mov	 dl, BYTE PTR [eax+25]
  001ab	84 d2		 test	 dl, dl
  001ad	74 1f		 je	 SHORT $LN71@LoadString
  001af	8a 40 1a	 mov	 al, BYTE PTR [eax+26]
  001b2	32 d1		 xor	 dl, cl
  001b4	88 55 f9	 mov	 BYTE PTR __k$[ebp+25], dl
  001b7	84 c0		 test	 al, al
  001b9	74 0a		 je	 SHORT $LN70@LoadString
  001bb	34 eb		 xor	 al, -21			; ffffffebH
  001bd	88 45 fa	 mov	 BYTE PTR __k$[ebp+26], al
  001c0	e9 95 00 00 00	 jmp	 $LN111@LoadString
$LN70@LoadString:
  001c5	c6 45 fa eb	 mov	 BYTE PTR __k$[ebp+26], -21 ; ffffffebH
  001c9	e9 8c 00 00 00	 jmp	 $LN111@LoadString
$LN71@LoadString:
  001ce	88 4d f9	 mov	 BYTE PTR __k$[ebp+25], cl
  001d1	e9 84 00 00 00	 jmp	 $LN111@LoadString
$LN72@LoadString:
  001d6	c6 45 f8 ed	 mov	 BYTE PTR __k$[ebp+24], -19 ; ffffffedH
  001da	eb 7e		 jmp	 SHORT $LN111@LoadString
$LN73@LoadString:
  001dc	88 5d f7	 mov	 BYTE PTR __k$[ebp+23], bl
  001df	eb 79		 jmp	 SHORT $LN111@LoadString
$LN75@LoadString:
  001e1	88 4d f5	 mov	 BYTE PTR __k$[ebp+21], cl
  001e4	eb 74		 jmp	 SHORT $LN111@LoadString
$LN76@LoadString:
  001e6	c6 45 f4 ed	 mov	 BYTE PTR __k$[ebp+20], -19 ; ffffffedH
  001ea	eb 6e		 jmp	 SHORT $LN111@LoadString
$LN77@LoadString:
  001ec	88 5d f3	 mov	 BYTE PTR __k$[ebp+19], bl
  001ef	eb 69		 jmp	 SHORT $LN111@LoadString
$LN78@LoadString:
  001f1	c6 45 f2 eb	 mov	 BYTE PTR __k$[ebp+18], -21 ; ffffffebH
  001f5	eb 63		 jmp	 SHORT $LN111@LoadString
$LN79@LoadString:
  001f7	88 4d f1	 mov	 BYTE PTR __k$[ebp+17], cl
  001fa	eb 5e		 jmp	 SHORT $LN111@LoadString
$LN80@LoadString:
  001fc	c6 45 f0 ed	 mov	 BYTE PTR __k$[ebp+16], -19 ; ffffffedH
  00200	eb 58		 jmp	 SHORT $LN111@LoadString
$LN81@LoadString:
  00202	88 5d ef	 mov	 BYTE PTR __k$[ebp+15], bl
  00205	eb 53		 jmp	 SHORT $LN111@LoadString
$LN82@LoadString:
  00207	c6 45 ee eb	 mov	 BYTE PTR __k$[ebp+14], -21 ; ffffffebH
  0020b	eb 4d		 jmp	 SHORT $LN111@LoadString
$LN83@LoadString:
  0020d	88 4d ed	 mov	 BYTE PTR __k$[ebp+13], cl
  00210	eb 48		 jmp	 SHORT $LN111@LoadString
$LN84@LoadString:
  00212	c6 45 ec ed	 mov	 BYTE PTR __k$[ebp+12], -19 ; ffffffedH
  00216	eb 42		 jmp	 SHORT $LN111@LoadString
$LN85@LoadString:
  00218	88 5d eb	 mov	 BYTE PTR __k$[ebp+11], bl
  0021b	eb 3d		 jmp	 SHORT $LN111@LoadString
$LN86@LoadString:
  0021d	c6 45 ea eb	 mov	 BYTE PTR __k$[ebp+10], -21 ; ffffffebH
  00221	eb 37		 jmp	 SHORT $LN111@LoadString
$LN87@LoadString:
  00223	88 4d e9	 mov	 BYTE PTR __k$[ebp+9], cl
  00226	eb 32		 jmp	 SHORT $LN111@LoadString
$LN88@LoadString:
  00228	c6 45 e8 ed	 mov	 BYTE PTR __k$[ebp+8], -19 ; ffffffedH
  0022c	eb 2c		 jmp	 SHORT $LN111@LoadString
$LN89@LoadString:
  0022e	88 5d e7	 mov	 BYTE PTR __k$[ebp+7], bl
  00231	eb 27		 jmp	 SHORT $LN111@LoadString
$LN90@LoadString:
  00233	c6 45 e6 eb	 mov	 BYTE PTR __k$[ebp+6], -21 ; ffffffebH
  00237	eb 21		 jmp	 SHORT $LN111@LoadString
$LN91@LoadString:
  00239	88 4d e5	 mov	 BYTE PTR __k$[ebp+5], cl
  0023c	eb 1c		 jmp	 SHORT $LN111@LoadString
$LN92@LoadString:
  0023e	c6 45 e4 ed	 mov	 BYTE PTR __k$[ebp+4], -19 ; ffffffedH
  00242	eb 16		 jmp	 SHORT $LN111@LoadString
$LN93@LoadString:
  00244	c6 45 e3 ea	 mov	 BYTE PTR __k$[ebp+3], -22 ; ffffffeaH
  00248	eb 10		 jmp	 SHORT $LN111@LoadString
$LN94@LoadString:
  0024a	c6 45 e2 eb	 mov	 BYTE PTR __k$[ebp+2], -21 ; ffffffebH
  0024e	eb 0a		 jmp	 SHORT $LN111@LoadString
$LN95@LoadString:
  00250	c6 45 e1 ec	 mov	 BYTE PTR __k$[ebp+1], -20 ; ffffffecH
  00254	eb 04		 jmp	 SHORT $LN111@LoadString
$LN96@LoadString:
  00256	c6 45 e0 ed	 mov	 BYTE PTR __k$[ebp], -19	; ffffffedH
$LN111@LoadString:
  0025a	6a 05		 push	 5
  0025c	8d 45 e0	 lea	 eax, DWORD PTR __k$[ebp]
  0025f	c6 45 f6 00	 mov	 BYTE PTR __k$[ebp+22], 0
  00263	5a		 pop	 edx
$LL104@LoadString:
  00264	81 30 ed ec eb
	ea		 xor	 DWORD PTR [eax], -353637139 ; eaebecedH
  0026a	83 c0 04	 add	 eax, 4
  0026d	4a		 dec	 edx
  0026e	75 f4		 jne	 SHORT $LL104@LoadString
  00270	6a 14		 push	 20			; 00000014H
  00272	58		 pop	 eax
$LL101@LoadString:
  00273	8b c8		 mov	 ecx, eax
  00275	81 e1 03 00 00
	80		 and	 ecx, -2147483645	; 80000003H
  0027b	79 05		 jns	 SHORT $LN112@LoadString
  0027d	49		 dec	 ecx
  0027e	83 c9 fc	 or	 ecx, -4			; fffffffcH
  00281	41		 inc	 ecx
$LN112@LoadString:
  00282	b2 ed		 mov	 dl, -19			; ffffffedH
  00284	2a d1		 sub	 dl, cl
  00286	30 54 05 e0	 xor	 BYTE PTR __k$[ebp+eax], dl
  0028a	40		 inc	 eax
  0028b	83 f8 16	 cmp	 eax, 22			; 00000016H
  0028e	7c e3		 jl	 SHORT $LL101@LoadString

; 163  : 		LoadString(_k, d, b, i);

  00290	ff 75 14	 push	 DWORD PTR _i$[ebp]
  00293	8b 4d dc	 mov	 ecx, DWORD PTR _this$GSCopy$[ebp]
  00296	57		 push	 edi
  00297	56		 push	 esi
  00298	8d 45 e0	 lea	 eax, DWORD PTR __k$[ebp]
  0029b	50		 push	 eax
  0029c	ff 15 00 00 00
	00		 call	 DWORD PTR __imp_?LoadStringA@ioINILoader@@QAEXPBD0PADH@Z

; 164  : 	}

  002a2	8b 4d fc	 mov	 ecx, DWORD PTR __$ArrayPad$[ebp]
  002a5	5f		 pop	 edi
  002a6	5e		 pop	 esi
  002a7	33 cd		 xor	 ecx, ebp
  002a9	5b		 pop	 ebx
  002aa	e8 00 00 00 00	 call	 @__security_check_cookie@4
  002af	c9		 leave
  002b0	c2 10 00	 ret	 16			; 00000010H
??$LoadString_e@$0BH@@ioINILoader@@QAEXAAY0BH@$$CBDAAY00$$CBDPADH@Z ENDP ; ioINILoader::LoadString_e<23>
_TEXT	ENDS
PUBLIC	__$ArrayPad$
PUBLIC	??$LoadFloat_e@$0BM@@ioINILoader@@QAEMAAY0BM@$$CBDM@Z ; ioINILoader::LoadFloat_e<28>
; Function compile flags: /Ogsp
;	COMDAT ??$LoadFloat_e@$0BM@@ioINILoader@@QAEMAAY0BM@$$CBDM@Z
_TEXT	SEGMENT
__k$ = -36						; size = 28
__$ArrayPad$ = -4					; size = 4
_k$ = 8							; size = 4
_f$ = 12						; size = 4
??$LoadFloat_e@$0BM@@ioINILoader@@QAEMAAY0BM@$$CBDM@Z PROC ; ioINILoader::LoadFloat_e<28>, COMDAT
; _this$ = ecx

; 135  : 	{

  00000	55		 push	 ebp
  00001	8b ec		 mov	 ebp, esp
  00003	83 ec 24	 sub	 esp, 36			; 00000024H
  00006	a1 00 00 00 00	 mov	 eax, DWORD PTR ___security_cookie
  0000b	33 c5		 xor	 eax, ebp
  0000d	89 45 fc	 mov	 DWORD PTR __$ArrayPad$[ebp], eax
  00010	8b 45 08	 mov	 eax, DWORD PTR _k$[ebp]

; 136  : 		_ENCSTR(k, _k);

  00013	8a 10		 mov	 dl, BYTE PTR [eax]
  00015	53		 push	 ebx
  00016	56		 push	 esi
  00017	8b f1		 mov	 esi, ecx
  00019	84 d2		 test	 dl, dl
  0001b	0f 84 a9 02 00
	00		 je	 $LN96@LoadFloat_@2
  00021	80 f2 ed	 xor	 dl, -19			; ffffffedH
  00024	88 55 dc	 mov	 BYTE PTR __k$[ebp], dl
  00027	8a 50 01	 mov	 dl, BYTE PTR [eax+1]
  0002a	84 d2		 test	 dl, dl
  0002c	0f 84 92 02 00
	00		 je	 $LN95@LoadFloat_@2
  00032	b3 ec		 mov	 bl, -20			; ffffffecH
  00034	32 d3		 xor	 dl, bl
  00036	88 55 dd	 mov	 BYTE PTR __k$[ebp+1], dl
  00039	8a 50 02	 mov	 dl, BYTE PTR [eax+2]
  0003c	84 d2		 test	 dl, dl
  0003e	0f 84 7a 02 00
	00		 je	 $LN94@LoadFloat_@2
  00044	b1 eb		 mov	 cl, -21			; ffffffebH
  00046	32 d1		 xor	 dl, cl
  00048	88 55 de	 mov	 BYTE PTR __k$[ebp+2], dl
  0004b	8a 50 03	 mov	 dl, BYTE PTR [eax+3]
  0004e	84 d2		 test	 dl, dl
  00050	0f 84 62 02 00
	00		 je	 $LN93@LoadFloat_@2
  00056	80 f2 ea	 xor	 dl, -22			; ffffffeaH
  00059	88 55 df	 mov	 BYTE PTR __k$[ebp+3], dl
  0005c	8a 50 04	 mov	 dl, BYTE PTR [eax+4]
  0005f	84 d2		 test	 dl, dl
  00061	0f 84 4b 02 00
	00		 je	 $LN92@LoadFloat_@2
  00067	80 f2 ed	 xor	 dl, -19			; ffffffedH
  0006a	88 55 e0	 mov	 BYTE PTR __k$[ebp+4], dl
  0006d	8a 50 05	 mov	 dl, BYTE PTR [eax+5]
  00070	84 d2		 test	 dl, dl
  00072	0f 84 35 02 00
	00		 je	 $LN91@LoadFloat_@2
  00078	32 d3		 xor	 dl, bl
  0007a	88 55 e1	 mov	 BYTE PTR __k$[ebp+5], dl
  0007d	8a 50 06	 mov	 dl, BYTE PTR [eax+6]
  00080	84 d2		 test	 dl, dl
  00082	0f 84 20 02 00
	00		 je	 $LN90@LoadFloat_@2
  00088	32 d1		 xor	 dl, cl
  0008a	88 55 e2	 mov	 BYTE PTR __k$[ebp+6], dl
  0008d	8a 50 07	 mov	 dl, BYTE PTR [eax+7]
  00090	84 d2		 test	 dl, dl
  00092	0f 84 0a 02 00
	00		 je	 $LN89@LoadFloat_@2
  00098	80 f2 ea	 xor	 dl, -22			; ffffffeaH
  0009b	88 55 e3	 mov	 BYTE PTR __k$[ebp+7], dl
  0009e	8a 50 08	 mov	 dl, BYTE PTR [eax+8]
  000a1	84 d2		 test	 dl, dl
  000a3	0f 84 f3 01 00
	00		 je	 $LN88@LoadFloat_@2
  000a9	80 f2 ed	 xor	 dl, -19			; ffffffedH
  000ac	88 55 e4	 mov	 BYTE PTR __k$[ebp+8], dl
  000af	8a 50 09	 mov	 dl, BYTE PTR [eax+9]
  000b2	84 d2		 test	 dl, dl
  000b4	0f 84 dd 01 00
	00		 je	 $LN87@LoadFloat_@2
  000ba	32 d3		 xor	 dl, bl
  000bc	88 55 e5	 mov	 BYTE PTR __k$[ebp+9], dl
  000bf	8a 50 0a	 mov	 dl, BYTE PTR [eax+10]
  000c2	84 d2		 test	 dl, dl
  000c4	0f 84 c8 01 00
	00		 je	 $LN86@LoadFloat_@2
  000ca	32 d1		 xor	 dl, cl
  000cc	88 55 e6	 mov	 BYTE PTR __k$[ebp+10], dl
  000cf	8a 50 0b	 mov	 dl, BYTE PTR [eax+11]
  000d2	84 d2		 test	 dl, dl
  000d4	0f 84 b2 01 00
	00		 je	 $LN85@LoadFloat_@2
  000da	80 f2 ea	 xor	 dl, -22			; ffffffeaH
  000dd	88 55 e7	 mov	 BYTE PTR __k$[ebp+11], dl
  000e0	8a 50 0c	 mov	 dl, BYTE PTR [eax+12]
  000e3	84 d2		 test	 dl, dl
  000e5	0f 84 9b 01 00
	00		 je	 $LN84@LoadFloat_@2
  000eb	80 f2 ed	 xor	 dl, -19			; ffffffedH
  000ee	88 55 e8	 mov	 BYTE PTR __k$[ebp+12], dl
  000f1	8a 50 0d	 mov	 dl, BYTE PTR [eax+13]
  000f4	84 d2		 test	 dl, dl
  000f6	0f 84 85 01 00
	00		 je	 $LN83@LoadFloat_@2
  000fc	32 d3		 xor	 dl, bl
  000fe	88 55 e9	 mov	 BYTE PTR __k$[ebp+13], dl
  00101	8a 50 0e	 mov	 dl, BYTE PTR [eax+14]
  00104	84 d2		 test	 dl, dl
  00106	0f 84 70 01 00
	00		 je	 $LN82@LoadFloat_@2
  0010c	32 d1		 xor	 dl, cl
  0010e	88 55 ea	 mov	 BYTE PTR __k$[ebp+14], dl
  00111	8a 50 0f	 mov	 dl, BYTE PTR [eax+15]
  00114	84 d2		 test	 dl, dl
  00116	0f 84 5a 01 00
	00		 je	 $LN81@LoadFloat_@2
  0011c	80 f2 ea	 xor	 dl, -22			; ffffffeaH
  0011f	88 55 eb	 mov	 BYTE PTR __k$[ebp+15], dl
  00122	8a 50 10	 mov	 dl, BYTE PTR [eax+16]
  00125	84 d2		 test	 dl, dl
  00127	0f 84 43 01 00
	00		 je	 $LN80@LoadFloat_@2
  0012d	80 f2 ed	 xor	 dl, -19			; ffffffedH
  00130	88 55 ec	 mov	 BYTE PTR __k$[ebp+16], dl
  00133	8a 50 11	 mov	 dl, BYTE PTR [eax+17]
  00136	84 d2		 test	 dl, dl
  00138	0f 84 2d 01 00
	00		 je	 $LN79@LoadFloat_@2
  0013e	32 d3		 xor	 dl, bl
  00140	88 55 ed	 mov	 BYTE PTR __k$[ebp+17], dl
  00143	8a 50 12	 mov	 dl, BYTE PTR [eax+18]
  00146	84 d2		 test	 dl, dl
  00148	0f 84 18 01 00
	00		 je	 $LN78@LoadFloat_@2
  0014e	32 d1		 xor	 dl, cl
  00150	88 55 ee	 mov	 BYTE PTR __k$[ebp+18], dl
  00153	8a 50 13	 mov	 dl, BYTE PTR [eax+19]
  00156	84 d2		 test	 dl, dl
  00158	0f 84 02 01 00
	00		 je	 $LN77@LoadFloat_@2
  0015e	80 f2 ea	 xor	 dl, -22			; ffffffeaH
  00161	88 55 ef	 mov	 BYTE PTR __k$[ebp+19], dl
  00164	8a 50 14	 mov	 dl, BYTE PTR [eax+20]
  00167	84 d2		 test	 dl, dl
  00169	0f 84 eb 00 00
	00		 je	 $LN76@LoadFloat_@2
  0016f	80 f2 ed	 xor	 dl, -19			; ffffffedH
  00172	88 55 f0	 mov	 BYTE PTR __k$[ebp+20], dl
  00175	8a 50 15	 mov	 dl, BYTE PTR [eax+21]
  00178	84 d2		 test	 dl, dl
  0017a	0f 84 d5 00 00
	00		 je	 $LN75@LoadFloat_@2
  00180	32 d3		 xor	 dl, bl
  00182	88 55 f1	 mov	 BYTE PTR __k$[ebp+21], dl
  00185	8a 50 16	 mov	 dl, BYTE PTR [eax+22]
  00188	84 d2		 test	 dl, dl
  0018a	0f 84 c0 00 00
	00		 je	 $LN74@LoadFloat_@2
  00190	32 d1		 xor	 dl, cl
  00192	88 55 f2	 mov	 BYTE PTR __k$[ebp+22], dl
  00195	8a 50 17	 mov	 dl, BYTE PTR [eax+23]
  00198	84 d2		 test	 dl, dl
  0019a	0f 84 aa 00 00
	00		 je	 $LN73@LoadFloat_@2
  001a0	80 f2 ea	 xor	 dl, -22			; ffffffeaH
  001a3	88 55 f3	 mov	 BYTE PTR __k$[ebp+23], dl
  001a6	8a 50 18	 mov	 dl, BYTE PTR [eax+24]
  001a9	84 d2		 test	 dl, dl
  001ab	0f 84 90 00 00
	00		 je	 $LN72@LoadFloat_@2
  001b1	80 f2 ed	 xor	 dl, -19			; ffffffedH
  001b4	88 55 f4	 mov	 BYTE PTR __k$[ebp+24], dl
  001b7	8a 50 19	 mov	 dl, BYTE PTR [eax+25]
  001ba	84 d2		 test	 dl, dl
  001bc	74 7b		 je	 SHORT $LN71@LoadFloat_@2
  001be	32 d3		 xor	 dl, bl
  001c0	88 55 f5	 mov	 BYTE PTR __k$[ebp+25], dl
  001c3	8a 50 1a	 mov	 dl, BYTE PTR [eax+26]
  001c6	84 d2		 test	 dl, dl
  001c8	74 67		 je	 SHORT $LN70@LoadFloat_@2
  001ca	32 d1		 xor	 dl, cl
  001cc	80 78 1b 00	 cmp	 BYTE PTR [eax+27], 0
  001d0	88 55 f6	 mov	 BYTE PTR __k$[ebp+26], dl
  001d3	0f 84 f5 00 00
	00		 je	 $LN1@LoadFloat_@2
  001d9	8a 50 1c	 mov	 dl, BYTE PTR [eax+28]
  001dc	84 d2		 test	 dl, dl
  001de	74 48		 je	 SHORT $LN68@LoadFloat_@2
  001e0	80 f2 ed	 xor	 dl, -19			; ffffffedH
  001e3	88 55 f8	 mov	 BYTE PTR __k$[ebp+28], dl
  001e6	8a 50 1d	 mov	 dl, BYTE PTR [eax+29]
  001e9	84 d2		 test	 dl, dl
  001eb	74 33		 je	 SHORT $LN67@LoadFloat_@2
  001ed	32 d3		 xor	 dl, bl
  001ef	88 55 f9	 mov	 BYTE PTR __k$[ebp+29], dl
  001f2	8a 50 1e	 mov	 dl, BYTE PTR [eax+30]
  001f5	84 d2		 test	 dl, dl
  001f7	74 1f		 je	 SHORT $LN66@LoadFloat_@2
  001f9	8a 40 1f	 mov	 al, BYTE PTR [eax+31]
  001fc	32 d1		 xor	 dl, cl
  001fe	88 55 fa	 mov	 BYTE PTR __k$[ebp+30], dl
  00201	84 c0		 test	 al, al
  00203	74 0a		 je	 SHORT $LN65@LoadFloat_@2
  00205	34 ea		 xor	 al, -22			; ffffffeaH
  00207	88 45 fb	 mov	 BYTE PTR __k$[ebp+31], al
  0020a	e9 bf 00 00 00	 jmp	 $LN1@LoadFloat_@2
$LN65@LoadFloat_@2:
  0020f	c6 45 fb ea	 mov	 BYTE PTR __k$[ebp+31], -22 ; ffffffeaH
  00213	e9 b6 00 00 00	 jmp	 $LN1@LoadFloat_@2
$LN66@LoadFloat_@2:
  00218	88 4d fa	 mov	 BYTE PTR __k$[ebp+30], cl
  0021b	e9 ae 00 00 00	 jmp	 $LN1@LoadFloat_@2
$LN67@LoadFloat_@2:
  00220	88 5d f9	 mov	 BYTE PTR __k$[ebp+29], bl
  00223	e9 a6 00 00 00	 jmp	 $LN1@LoadFloat_@2
$LN68@LoadFloat_@2:
  00228	c6 45 f8 ed	 mov	 BYTE PTR __k$[ebp+28], -19 ; ffffffedH
  0022c	e9 9d 00 00 00	 jmp	 $LN1@LoadFloat_@2
$LN70@LoadFloat_@2:
  00231	88 4d f6	 mov	 BYTE PTR __k$[ebp+26], cl
  00234	e9 95 00 00 00	 jmp	 $LN1@LoadFloat_@2
$LN71@LoadFloat_@2:
  00239	88 5d f5	 mov	 BYTE PTR __k$[ebp+25], bl
  0023c	e9 8d 00 00 00	 jmp	 $LN1@LoadFloat_@2
$LN72@LoadFloat_@2:
  00241	c6 45 f4 ed	 mov	 BYTE PTR __k$[ebp+24], -19 ; ffffffedH
  00245	e9 84 00 00 00	 jmp	 $LN1@LoadFloat_@2
$LN73@LoadFloat_@2:
  0024a	c6 45 f3 ea	 mov	 BYTE PTR __k$[ebp+23], -22 ; ffffffeaH
  0024e	eb 7e		 jmp	 SHORT $LN1@LoadFloat_@2
$LN74@LoadFloat_@2:
  00250	88 4d f2	 mov	 BYTE PTR __k$[ebp+22], cl
  00253	eb 79		 jmp	 SHORT $LN1@LoadFloat_@2
$LN75@LoadFloat_@2:
  00255	88 5d f1	 mov	 BYTE PTR __k$[ebp+21], bl
  00258	eb 74		 jmp	 SHORT $LN1@LoadFloat_@2
$LN76@LoadFloat_@2:
  0025a	c6 45 f0 ed	 mov	 BYTE PTR __k$[ebp+20], -19 ; ffffffedH
  0025e	eb 6e		 jmp	 SHORT $LN1@LoadFloat_@2
$LN77@LoadFloat_@2:
  00260	c6 45 ef ea	 mov	 BYTE PTR __k$[ebp+19], -22 ; ffffffeaH
  00264	eb 68		 jmp	 SHORT $LN1@LoadFloat_@2
$LN78@LoadFloat_@2:
  00266	88 4d ee	 mov	 BYTE PTR __k$[ebp+18], cl
  00269	eb 63		 jmp	 SHORT $LN1@LoadFloat_@2
$LN79@LoadFloat_@2:
  0026b	88 5d ed	 mov	 BYTE PTR __k$[ebp+17], bl
  0026e	eb 5e		 jmp	 SHORT $LN1@LoadFloat_@2
$LN80@LoadFloat_@2:
  00270	c6 45 ec ed	 mov	 BYTE PTR __k$[ebp+16], -19 ; ffffffedH
  00274	eb 58		 jmp	 SHORT $LN1@LoadFloat_@2
$LN81@LoadFloat_@2:
  00276	c6 45 eb ea	 mov	 BYTE PTR __k$[ebp+15], -22 ; ffffffeaH
  0027a	eb 52		 jmp	 SHORT $LN1@LoadFloat_@2
$LN82@LoadFloat_@2:
  0027c	88 4d ea	 mov	 BYTE PTR __k$[ebp+14], cl
  0027f	eb 4d		 jmp	 SHORT $LN1@LoadFloat_@2
$LN83@LoadFloat_@2:
  00281	88 5d e9	 mov	 BYTE PTR __k$[ebp+13], bl
  00284	eb 48		 jmp	 SHORT $LN1@LoadFloat_@2
$LN84@LoadFloat_@2:
  00286	c6 45 e8 ed	 mov	 BYTE PTR __k$[ebp+12], -19 ; ffffffedH
  0028a	eb 42		 jmp	 SHORT $LN1@LoadFloat_@2
$LN85@LoadFloat_@2:
  0028c	c6 45 e7 ea	 mov	 BYTE PTR __k$[ebp+11], -22 ; ffffffeaH
  00290	eb 3c		 jmp	 SHORT $LN1@LoadFloat_@2
$LN86@LoadFloat_@2:
  00292	88 4d e6	 mov	 BYTE PTR __k$[ebp+10], cl
  00295	eb 37		 jmp	 SHORT $LN1@LoadFloat_@2
$LN87@LoadFloat_@2:
  00297	88 5d e5	 mov	 BYTE PTR __k$[ebp+9], bl
  0029a	eb 32		 jmp	 SHORT $LN1@LoadFloat_@2
$LN88@LoadFloat_@2:
  0029c	c6 45 e4 ed	 mov	 BYTE PTR __k$[ebp+8], -19 ; ffffffedH
  002a0	eb 2c		 jmp	 SHORT $LN1@LoadFloat_@2
$LN89@LoadFloat_@2:
  002a2	c6 45 e3 ea	 mov	 BYTE PTR __k$[ebp+7], -22 ; ffffffeaH
  002a6	eb 26		 jmp	 SHORT $LN1@LoadFloat_@2
$LN90@LoadFloat_@2:
  002a8	88 4d e2	 mov	 BYTE PTR __k$[ebp+6], cl
  002ab	eb 21		 jmp	 SHORT $LN1@LoadFloat_@2
$LN91@LoadFloat_@2:
  002ad	88 5d e1	 mov	 BYTE PTR __k$[ebp+5], bl
  002b0	eb 1c		 jmp	 SHORT $LN1@LoadFloat_@2
$LN92@LoadFloat_@2:
  002b2	c6 45 e0 ed	 mov	 BYTE PTR __k$[ebp+4], -19 ; ffffffedH
  002b6	eb 16		 jmp	 SHORT $LN1@LoadFloat_@2
$LN93@LoadFloat_@2:
  002b8	c6 45 df ea	 mov	 BYTE PTR __k$[ebp+3], -22 ; ffffffeaH
  002bc	eb 10		 jmp	 SHORT $LN1@LoadFloat_@2
$LN94@LoadFloat_@2:
  002be	c6 45 de eb	 mov	 BYTE PTR __k$[ebp+2], -21 ; ffffffebH
  002c2	eb 0a		 jmp	 SHORT $LN1@LoadFloat_@2
$LN95@LoadFloat_@2:
  002c4	c6 45 dd ec	 mov	 BYTE PTR __k$[ebp+1], -20 ; ffffffecH
  002c8	eb 04		 jmp	 SHORT $LN1@LoadFloat_@2
$LN96@LoadFloat_@2:
  002ca	c6 45 dc ed	 mov	 BYTE PTR __k$[ebp], -19	; ffffffedH
$LN1@LoadFloat_@2:
  002ce	6a 06		 push	 6
  002d0	8d 45 dc	 lea	 eax, DWORD PTR __k$[ebp]
  002d3	c6 45 f7 00	 mov	 BYTE PTR __k$[ebp+27], 0
  002d7	5a		 pop	 edx
$LL104@LoadFloat_@2:
  002d8	81 30 ed ec eb
	ea		 xor	 DWORD PTR [eax], -353637139 ; eaebecedH
  002de	83 c0 04	 add	 eax, 4
  002e1	4a		 dec	 edx
  002e2	75 f4		 jne	 SHORT $LL104@LoadFloat_@2
  002e4	6a 18		 push	 24			; 00000018H
  002e6	58		 pop	 eax
$LL101@LoadFloat_@2:
  002e7	8b c8		 mov	 ecx, eax
  002e9	81 e1 03 00 00
	80		 and	 ecx, -2147483645	; 80000003H
  002ef	79 05		 jns	 SHORT $LN111@LoadFloat_@2
  002f1	49		 dec	 ecx
  002f2	83 c9 fc	 or	 ecx, -4			; fffffffcH
  002f5	41		 inc	 ecx
$LN111@LoadFloat_@2:
  002f6	b2 ed		 mov	 dl, -19			; ffffffedH
  002f8	2a d1		 sub	 dl, cl
  002fa	30 54 05 dc	 xor	 BYTE PTR __k$[ebp+eax], dl
  002fe	40		 inc	 eax
  002ff	83 f8 1b	 cmp	 eax, 27			; 0000001bH
  00302	7c e3		 jl	 SHORT $LL101@LoadFloat_@2

; 137  : 		return LoadFloat(_k, f);

  00304	f3 0f 10 45 0c	 movss	 xmm0, DWORD PTR _f$[ebp]
  00309	51		 push	 ecx
  0030a	8d 45 dc	 lea	 eax, DWORD PTR __k$[ebp]
  0030d	f3 0f 11 04 24	 movss	 DWORD PTR [esp], xmm0
  00312	50		 push	 eax
  00313	8b ce		 mov	 ecx, esi
  00315	ff 15 00 00 00
	00		 call	 DWORD PTR __imp_?LoadFloat@ioINILoader@@QAEMPBDM@Z

; 138  : 	}

  0031b	8b 4d fc	 mov	 ecx, DWORD PTR __$ArrayPad$[ebp]
  0031e	5e		 pop	 esi
  0031f	33 cd		 xor	 ecx, ebp
  00321	5b		 pop	 ebx
  00322	e8 00 00 00 00	 call	 @__security_check_cookie@4
  00327	c9		 leave
  00328	c2 08 00	 ret	 8
??$LoadFloat_e@$0BM@@ioINILoader@@QAEMAAY0BM@$$CBDM@Z ENDP ; ioINILoader::LoadFloat_e<28>
_TEXT	ENDS
PUBLIC	_this$GSCopy$
PUBLIC	__$ArrayPad$
PUBLIC	??$LoadString_e@$0BD@@ioINILoader@@QAEXAAY0BD@$$CBDAAY00$$CBDPADH@Z ; ioINILoader::LoadString_e<19>
; Function compile flags: /Ogsp
;	COMDAT ??$LoadString_e@$0BD@@ioINILoader@@QAEXAAY0BD@$$CBDAAY00$$CBDPADH@Z
_TEXT	SEGMENT
_this$GSCopy$ = -32					; size = 4
__k$ = -28						; size = 19
__$ArrayPad$ = -4					; size = 4
_k$ = 8							; size = 4
_d$ = 12						; size = 4
_b$ = 16						; size = 4
_i$ = 20						; size = 4
??$LoadString_e@$0BD@@ioINILoader@@QAEXAAY0BD@$$CBDAAY00$$CBDPADH@Z PROC ; ioINILoader::LoadString_e<19>, COMDAT
; _this$ = ecx

; 161  : 	{

  00000	55		 push	 ebp
  00001	8b ec		 mov	 ebp, esp
  00003	83 ec 20	 sub	 esp, 32			; 00000020H
  00006	a1 00 00 00 00	 mov	 eax, DWORD PTR ___security_cookie
  0000b	33 c5		 xor	 eax, ebp
  0000d	89 45 fc	 mov	 DWORD PTR __$ArrayPad$[ebp], eax
  00010	8b 45 08	 mov	 eax, DWORD PTR _k$[ebp]

; 162  : 		_ENCSTR(k, _k);

  00013	8a 10		 mov	 dl, BYTE PTR [eax]
  00015	56		 push	 esi
  00016	8b 75 0c	 mov	 esi, DWORD PTR _d$[ebp]
  00019	57		 push	 edi
  0001a	8b 7d 10	 mov	 edi, DWORD PTR _b$[ebp]
  0001d	89 4d e0	 mov	 DWORD PTR _this$GSCopy$[ebp], ecx
  00020	84 d2		 test	 dl, dl
  00022	0f 84 cf 01 00
	00		 je	 $LN96@LoadString@2
  00028	80 f2 ed	 xor	 dl, -19			; ffffffedH
  0002b	88 55 e4	 mov	 BYTE PTR __k$[ebp], dl
  0002e	8a 50 01	 mov	 dl, BYTE PTR [eax+1]
  00031	84 d2		 test	 dl, dl
  00033	0f 84 b8 01 00
	00		 je	 $LN95@LoadString@2
  00039	b1 ec		 mov	 cl, -20			; ffffffecH
  0003b	32 d1		 xor	 dl, cl
  0003d	88 55 e5	 mov	 BYTE PTR __k$[ebp+1], dl
  00040	8a 50 02	 mov	 dl, BYTE PTR [eax+2]
  00043	84 d2		 test	 dl, dl
  00045	0f 84 a0 01 00
	00		 je	 $LN94@LoadString@2
  0004b	80 f2 eb	 xor	 dl, -21			; ffffffebH
  0004e	88 55 e6	 mov	 BYTE PTR __k$[ebp+2], dl
  00051	8a 50 03	 mov	 dl, BYTE PTR [eax+3]
  00054	84 d2		 test	 dl, dl
  00056	0f 84 89 01 00
	00		 je	 $LN93@LoadString@2
  0005c	80 f2 ea	 xor	 dl, -22			; ffffffeaH
  0005f	88 55 e7	 mov	 BYTE PTR __k$[ebp+3], dl
  00062	8a 50 04	 mov	 dl, BYTE PTR [eax+4]
  00065	84 d2		 test	 dl, dl
  00067	0f 84 72 01 00
	00		 je	 $LN92@LoadString@2
  0006d	80 f2 ed	 xor	 dl, -19			; ffffffedH
  00070	88 55 e8	 mov	 BYTE PTR __k$[ebp+4], dl
  00073	8a 50 05	 mov	 dl, BYTE PTR [eax+5]
  00076	84 d2		 test	 dl, dl
  00078	0f 84 5c 01 00
	00		 je	 $LN91@LoadString@2
  0007e	32 d1		 xor	 dl, cl
  00080	88 55 e9	 mov	 BYTE PTR __k$[ebp+5], dl
  00083	8a 50 06	 mov	 dl, BYTE PTR [eax+6]
  00086	84 d2		 test	 dl, dl
  00088	0f 84 46 01 00
	00		 je	 $LN90@LoadString@2
  0008e	80 f2 eb	 xor	 dl, -21			; ffffffebH
  00091	88 55 ea	 mov	 BYTE PTR __k$[ebp+6], dl
  00094	8a 50 07	 mov	 dl, BYTE PTR [eax+7]
  00097	84 d2		 test	 dl, dl
  00099	0f 84 2f 01 00
	00		 je	 $LN89@LoadString@2
  0009f	80 f2 ea	 xor	 dl, -22			; ffffffeaH
  000a2	88 55 eb	 mov	 BYTE PTR __k$[ebp+7], dl
  000a5	8a 50 08	 mov	 dl, BYTE PTR [eax+8]
  000a8	84 d2		 test	 dl, dl
  000aa	0f 84 18 01 00
	00		 je	 $LN88@LoadString@2
  000b0	80 f2 ed	 xor	 dl, -19			; ffffffedH
  000b3	88 55 ec	 mov	 BYTE PTR __k$[ebp+8], dl
  000b6	8a 50 09	 mov	 dl, BYTE PTR [eax+9]
  000b9	84 d2		 test	 dl, dl
  000bb	0f 84 02 01 00
	00		 je	 $LN87@LoadString@2
  000c1	32 d1		 xor	 dl, cl
  000c3	88 55 ed	 mov	 BYTE PTR __k$[ebp+9], dl
  000c6	8a 50 0a	 mov	 dl, BYTE PTR [eax+10]
  000c9	84 d2		 test	 dl, dl
  000cb	0f 84 ec 00 00
	00		 je	 $LN86@LoadString@2
  000d1	80 f2 eb	 xor	 dl, -21			; ffffffebH
  000d4	88 55 ee	 mov	 BYTE PTR __k$[ebp+10], dl
  000d7	8a 50 0b	 mov	 dl, BYTE PTR [eax+11]
  000da	84 d2		 test	 dl, dl
  000dc	0f 84 d5 00 00
	00		 je	 $LN85@LoadString@2
  000e2	80 f2 ea	 xor	 dl, -22			; ffffffeaH
  000e5	88 55 ef	 mov	 BYTE PTR __k$[ebp+11], dl
  000e8	8a 50 0c	 mov	 dl, BYTE PTR [eax+12]
  000eb	84 d2		 test	 dl, dl
  000ed	0f 84 be 00 00
	00		 je	 $LN84@LoadString@2
  000f3	80 f2 ed	 xor	 dl, -19			; ffffffedH
  000f6	88 55 f0	 mov	 BYTE PTR __k$[ebp+12], dl
  000f9	8a 50 0d	 mov	 dl, BYTE PTR [eax+13]
  000fc	84 d2		 test	 dl, dl
  000fe	0f 84 a8 00 00
	00		 je	 $LN83@LoadString@2
  00104	32 d1		 xor	 dl, cl
  00106	88 55 f1	 mov	 BYTE PTR __k$[ebp+13], dl
  00109	8a 50 0e	 mov	 dl, BYTE PTR [eax+14]
  0010c	84 d2		 test	 dl, dl
  0010e	0f 84 92 00 00
	00		 je	 $LN82@LoadString@2
  00114	80 f2 eb	 xor	 dl, -21			; ffffffebH
  00117	88 55 f2	 mov	 BYTE PTR __k$[ebp+14], dl
  0011a	8a 50 0f	 mov	 dl, BYTE PTR [eax+15]
  0011d	84 d2		 test	 dl, dl
  0011f	74 7f		 je	 SHORT $LN81@LoadString@2
  00121	80 f2 ea	 xor	 dl, -22			; ffffffeaH
  00124	88 55 f3	 mov	 BYTE PTR __k$[ebp+15], dl
  00127	8a 50 10	 mov	 dl, BYTE PTR [eax+16]
  0012a	84 d2		 test	 dl, dl
  0012c	74 6c		 je	 SHORT $LN80@LoadString@2
  0012e	80 f2 ed	 xor	 dl, -19			; ffffffedH
  00131	88 55 f4	 mov	 BYTE PTR __k$[ebp+16], dl
  00134	8a 50 11	 mov	 dl, BYTE PTR [eax+17]
  00137	84 d2		 test	 dl, dl
  00139	74 5a		 je	 SHORT $LN79@LoadString@2
  0013b	32 d1		 xor	 dl, cl
  0013d	80 78 12 00	 cmp	 BYTE PTR [eax+18], 0
  00141	88 55 f5	 mov	 BYTE PTR __k$[ebp+17], dl
  00144	0f 84 b1 00 00
	00		 je	 $LN111@LoadString@2
  0014a	8a 50 13	 mov	 dl, BYTE PTR [eax+19]
  0014d	84 d2		 test	 dl, dl
  0014f	74 3e		 je	 SHORT $LN77@LoadString@2
  00151	80 f2 ea	 xor	 dl, -22			; ffffffeaH
  00154	88 55 f7	 mov	 BYTE PTR __k$[ebp+19], dl
  00157	8a 50 14	 mov	 dl, BYTE PTR [eax+20]
  0015a	84 d2		 test	 dl, dl
  0015c	74 2b		 je	 SHORT $LN76@LoadString@2
  0015e	80 f2 ed	 xor	 dl, -19			; ffffffedH
  00161	88 55 f8	 mov	 BYTE PTR __k$[ebp+20], dl
  00164	8a 50 15	 mov	 dl, BYTE PTR [eax+21]
  00167	84 d2		 test	 dl, dl
  00169	74 19		 je	 SHORT $LN75@LoadString@2
  0016b	8a 40 16	 mov	 al, BYTE PTR [eax+22]
  0016e	32 d1		 xor	 dl, cl
  00170	88 55 f9	 mov	 BYTE PTR __k$[ebp+21], dl
  00173	84 c0		 test	 al, al
  00175	74 07		 je	 SHORT $LN74@LoadString@2
  00177	34 eb		 xor	 al, -21			; ffffffebH
  00179	88 45 fa	 mov	 BYTE PTR __k$[ebp+22], al
  0017c	eb 7d		 jmp	 SHORT $LN111@LoadString@2
$LN74@LoadString@2:
  0017e	c6 45 fa eb	 mov	 BYTE PTR __k$[ebp+22], -21 ; ffffffebH
  00182	eb 77		 jmp	 SHORT $LN111@LoadString@2
$LN75@LoadString@2:
  00184	88 4d f9	 mov	 BYTE PTR __k$[ebp+21], cl
  00187	eb 72		 jmp	 SHORT $LN111@LoadString@2
$LN76@LoadString@2:
  00189	c6 45 f8 ed	 mov	 BYTE PTR __k$[ebp+20], -19 ; ffffffedH
  0018d	eb 6c		 jmp	 SHORT $LN111@LoadString@2
$LN77@LoadString@2:
  0018f	c6 45 f7 ea	 mov	 BYTE PTR __k$[ebp+19], -22 ; ffffffeaH
  00193	eb 66		 jmp	 SHORT $LN111@LoadString@2
$LN79@LoadString@2:
  00195	88 4d f5	 mov	 BYTE PTR __k$[ebp+17], cl
  00198	eb 61		 jmp	 SHORT $LN111@LoadString@2
$LN80@LoadString@2:
  0019a	c6 45 f4 ed	 mov	 BYTE PTR __k$[ebp+16], -19 ; ffffffedH
  0019e	eb 5b		 jmp	 SHORT $LN111@LoadString@2
$LN81@LoadString@2:
  001a0	c6 45 f3 ea	 mov	 BYTE PTR __k$[ebp+15], -22 ; ffffffeaH
  001a4	eb 55		 jmp	 SHORT $LN111@LoadString@2
$LN82@LoadString@2:
  001a6	c6 45 f2 eb	 mov	 BYTE PTR __k$[ebp+14], -21 ; ffffffebH
  001aa	eb 4f		 jmp	 SHORT $LN111@LoadString@2
$LN83@LoadString@2:
  001ac	88 4d f1	 mov	 BYTE PTR __k$[ebp+13], cl
  001af	eb 4a		 jmp	 SHORT $LN111@LoadString@2
$LN84@LoadString@2:
  001b1	c6 45 f0 ed	 mov	 BYTE PTR __k$[ebp+12], -19 ; ffffffedH
  001b5	eb 44		 jmp	 SHORT $LN111@LoadString@2
$LN85@LoadString@2:
  001b7	c6 45 ef ea	 mov	 BYTE PTR __k$[ebp+11], -22 ; ffffffeaH
  001bb	eb 3e		 jmp	 SHORT $LN111@LoadString@2
$LN86@LoadString@2:
  001bd	c6 45 ee eb	 mov	 BYTE PTR __k$[ebp+10], -21 ; ffffffebH
  001c1	eb 38		 jmp	 SHORT $LN111@LoadString@2
$LN87@LoadString@2:
  001c3	88 4d ed	 mov	 BYTE PTR __k$[ebp+9], cl
  001c6	eb 33		 jmp	 SHORT $LN111@LoadString@2
$LN88@LoadString@2:
  001c8	c6 45 ec ed	 mov	 BYTE PTR __k$[ebp+8], -19 ; ffffffedH
  001cc	eb 2d		 jmp	 SHORT $LN111@LoadString@2
$LN89@LoadString@2:
  001ce	c6 45 eb ea	 mov	 BYTE PTR __k$[ebp+7], -22 ; ffffffeaH
  001d2	eb 27		 jmp	 SHORT $LN111@LoadString@2
$LN90@LoadString@2:
  001d4	c6 45 ea eb	 mov	 BYTE PTR __k$[ebp+6], -21 ; ffffffebH
  001d8	eb 21		 jmp	 SHORT $LN111@LoadString@2
$LN91@LoadString@2:
  001da	88 4d e9	 mov	 BYTE PTR __k$[ebp+5], cl
  001dd	eb 1c		 jmp	 SHORT $LN111@LoadString@2
$LN92@LoadString@2:
  001df	c6 45 e8 ed	 mov	 BYTE PTR __k$[ebp+4], -19 ; ffffffedH
  001e3	eb 16		 jmp	 SHORT $LN111@LoadString@2
$LN93@LoadString@2:
  001e5	c6 45 e7 ea	 mov	 BYTE PTR __k$[ebp+3], -22 ; ffffffeaH
  001e9	eb 10		 jmp	 SHORT $LN111@LoadString@2
$LN94@LoadString@2:
  001eb	c6 45 e6 eb	 mov	 BYTE PTR __k$[ebp+2], -21 ; ffffffebH
  001ef	eb 0a		 jmp	 SHORT $LN111@LoadString@2
$LN95@LoadString@2:
  001f1	c6 45 e5 ec	 mov	 BYTE PTR __k$[ebp+1], -20 ; ffffffecH
  001f5	eb 04		 jmp	 SHORT $LN111@LoadString@2
$LN96@LoadString@2:
  001f7	c6 45 e4 ed	 mov	 BYTE PTR __k$[ebp], -19	; ffffffedH
$LN111@LoadString@2:
  001fb	6a 04		 push	 4
  001fd	8d 45 e4	 lea	 eax, DWORD PTR __k$[ebp]
  00200	c6 45 f6 00	 mov	 BYTE PTR __k$[ebp+18], 0
  00204	5a		 pop	 edx
$LL104@LoadString@2:
  00205	81 30 ed ec eb
	ea		 xor	 DWORD PTR [eax], -353637139 ; eaebecedH
  0020b	83 c0 04	 add	 eax, 4
  0020e	4a		 dec	 edx
  0020f	75 f4		 jne	 SHORT $LL104@LoadString@2
  00211	6a 10		 push	 16			; 00000010H
  00213	58		 pop	 eax
$LL101@LoadString@2:
  00214	8b c8		 mov	 ecx, eax
  00216	81 e1 03 00 00
	80		 and	 ecx, -2147483645	; 80000003H
  0021c	79 05		 jns	 SHORT $LN112@LoadString@2
  0021e	49		 dec	 ecx
  0021f	83 c9 fc	 or	 ecx, -4			; fffffffcH
  00222	41		 inc	 ecx
$LN112@LoadString@2:
  00223	b2 ed		 mov	 dl, -19			; ffffffedH
  00225	2a d1		 sub	 dl, cl
  00227	30 54 05 e4	 xor	 BYTE PTR __k$[ebp+eax], dl
  0022b	40		 inc	 eax
  0022c	83 f8 12	 cmp	 eax, 18			; 00000012H
  0022f	7c e3		 jl	 SHORT $LL101@LoadString@2

; 163  : 		LoadString(_k, d, b, i);

  00231	ff 75 14	 push	 DWORD PTR _i$[ebp]
  00234	8b 4d e0	 mov	 ecx, DWORD PTR _this$GSCopy$[ebp]
  00237	57		 push	 edi
  00238	56		 push	 esi
  00239	8d 45 e4	 lea	 eax, DWORD PTR __k$[ebp]
  0023c	50		 push	 eax
  0023d	ff 15 00 00 00
	00		 call	 DWORD PTR __imp_?LoadStringA@ioINILoader@@QAEXPBD0PADH@Z

; 164  : 	}

  00243	8b 4d fc	 mov	 ecx, DWORD PTR __$ArrayPad$[ebp]
  00246	5f		 pop	 edi
  00247	33 cd		 xor	 ecx, ebp
  00249	5e		 pop	 esi
  0024a	e8 00 00 00 00	 call	 @__security_check_cookie@4
  0024f	c9		 leave
  00250	c2 10 00	 ret	 16			; 00000010H
??$LoadString_e@$0BD@@ioINILoader@@QAEXAAY0BD@$$CBDAAY00$$CBDPADH@Z ENDP ; ioINILoader::LoadString_e<19>
_TEXT	ENDS
PUBLIC	__$ArrayPad$
PUBLIC	??$LoadFloat_e@$0BI@@ioINILoader@@QAEMAAY0BI@$$CBDM@Z ; ioINILoader::LoadFloat_e<24>
; Function compile flags: /Ogsp
;	COMDAT ??$LoadFloat_e@$0BI@@ioINILoader@@QAEMAAY0BI@$$CBDM@Z
_TEXT	SEGMENT
__k$ = -32						; size = 24
__$ArrayPad$ = -4					; size = 4
_k$ = 8							; size = 4
_f$ = 12						; size = 4
??$LoadFloat_e@$0BI@@ioINILoader@@QAEMAAY0BI@$$CBDM@Z PROC ; ioINILoader::LoadFloat_e<24>, COMDAT
; _this$ = ecx

; 135  : 	{

  00000	55		 push	 ebp
  00001	8b ec		 mov	 ebp, esp
  00003	83 ec 20	 sub	 esp, 32			; 00000020H
  00006	a1 00 00 00 00	 mov	 eax, DWORD PTR ___security_cookie
  0000b	33 c5		 xor	 eax, ebp
  0000d	89 45 fc	 mov	 DWORD PTR __$ArrayPad$[ebp], eax
  00010	8b 45 08	 mov	 eax, DWORD PTR _k$[ebp]

; 136  : 		_ENCSTR(k, _k);

  00013	8a 10		 mov	 dl, BYTE PTR [eax]
  00015	53		 push	 ebx
  00016	56		 push	 esi
  00017	8b f1		 mov	 esi, ecx
  00019	84 d2		 test	 dl, dl
  0001b	0f 84 45 02 00
	00		 je	 $LN96@LoadFloat_@3
  00021	80 f2 ed	 xor	 dl, -19			; ffffffedH
  00024	88 55 e0	 mov	 BYTE PTR __k$[ebp], dl
  00027	8a 50 01	 mov	 dl, BYTE PTR [eax+1]
  0002a	84 d2		 test	 dl, dl
  0002c	0f 84 2e 02 00
	00		 je	 $LN95@LoadFloat_@3
  00032	b3 ec		 mov	 bl, -20			; ffffffecH
  00034	32 d3		 xor	 dl, bl
  00036	88 55 e1	 mov	 BYTE PTR __k$[ebp+1], dl
  00039	8a 50 02	 mov	 dl, BYTE PTR [eax+2]
  0003c	84 d2		 test	 dl, dl
  0003e	0f 84 16 02 00
	00		 je	 $LN94@LoadFloat_@3
  00044	b1 eb		 mov	 cl, -21			; ffffffebH
  00046	32 d1		 xor	 dl, cl
  00048	88 55 e2	 mov	 BYTE PTR __k$[ebp+2], dl
  0004b	8a 50 03	 mov	 dl, BYTE PTR [eax+3]
  0004e	84 d2		 test	 dl, dl
  00050	0f 84 fe 01 00
	00		 je	 $LN93@LoadFloat_@3
  00056	80 f2 ea	 xor	 dl, -22			; ffffffeaH
  00059	88 55 e3	 mov	 BYTE PTR __k$[ebp+3], dl
  0005c	8a 50 04	 mov	 dl, BYTE PTR [eax+4]
  0005f	84 d2		 test	 dl, dl
  00061	0f 84 e7 01 00
	00		 je	 $LN92@LoadFloat_@3
  00067	80 f2 ed	 xor	 dl, -19			; ffffffedH
  0006a	88 55 e4	 mov	 BYTE PTR __k$[ebp+4], dl
  0006d	8a 50 05	 mov	 dl, BYTE PTR [eax+5]
  00070	84 d2		 test	 dl, dl
  00072	0f 84 d1 01 00
	00		 je	 $LN91@LoadFloat_@3
  00078	32 d3		 xor	 dl, bl
  0007a	88 55 e5	 mov	 BYTE PTR __k$[ebp+5], dl
  0007d	8a 50 06	 mov	 dl, BYTE PTR [eax+6]
  00080	84 d2		 test	 dl, dl
  00082	0f 84 bc 01 00
	00		 je	 $LN90@LoadFloat_@3
  00088	32 d1		 xor	 dl, cl
  0008a	88 55 e6	 mov	 BYTE PTR __k$[ebp+6], dl
  0008d	8a 50 07	 mov	 dl, BYTE PTR [eax+7]
  00090	84 d2		 test	 dl, dl
  00092	0f 84 a6 01 00
	00		 je	 $LN89@LoadFloat_@3
  00098	80 f2 ea	 xor	 dl, -22			; ffffffeaH
  0009b	88 55 e7	 mov	 BYTE PTR __k$[ebp+7], dl
  0009e	8a 50 08	 mov	 dl, BYTE PTR [eax+8]
  000a1	84 d2		 test	 dl, dl
  000a3	0f 84 8f 01 00
	00		 je	 $LN88@LoadFloat_@3
  000a9	80 f2 ed	 xor	 dl, -19			; ffffffedH
  000ac	88 55 e8	 mov	 BYTE PTR __k$[ebp+8], dl
  000af	8a 50 09	 mov	 dl, BYTE PTR [eax+9]
  000b2	84 d2		 test	 dl, dl
  000b4	0f 84 79 01 00
	00		 je	 $LN87@LoadFloat_@3
  000ba	32 d3		 xor	 dl, bl
  000bc	88 55 e9	 mov	 BYTE PTR __k$[ebp+9], dl
  000bf	8a 50 0a	 mov	 dl, BYTE PTR [eax+10]
  000c2	84 d2		 test	 dl, dl
  000c4	0f 84 64 01 00
	00		 je	 $LN86@LoadFloat_@3
  000ca	32 d1		 xor	 dl, cl
  000cc	88 55 ea	 mov	 BYTE PTR __k$[ebp+10], dl
  000cf	8a 50 0b	 mov	 dl, BYTE PTR [eax+11]
  000d2	84 d2		 test	 dl, dl
  000d4	0f 84 4e 01 00
	00		 je	 $LN85@LoadFloat_@3
  000da	80 f2 ea	 xor	 dl, -22			; ffffffeaH
  000dd	88 55 eb	 mov	 BYTE PTR __k$[ebp+11], dl
  000e0	8a 50 0c	 mov	 dl, BYTE PTR [eax+12]
  000e3	84 d2		 test	 dl, dl
  000e5	0f 84 37 01 00
	00		 je	 $LN84@LoadFloat_@3
  000eb	80 f2 ed	 xor	 dl, -19			; ffffffedH
  000ee	88 55 ec	 mov	 BYTE PTR __k$[ebp+12], dl
  000f1	8a 50 0d	 mov	 dl, BYTE PTR [eax+13]
  000f4	84 d2		 test	 dl, dl
  000f6	0f 84 21 01 00
	00		 je	 $LN83@LoadFloat_@3
  000fc	32 d3		 xor	 dl, bl
  000fe	88 55 ed	 mov	 BYTE PTR __k$[ebp+13], dl
  00101	8a 50 0e	 mov	 dl, BYTE PTR [eax+14]
  00104	84 d2		 test	 dl, dl
  00106	0f 84 0c 01 00
	00		 je	 $LN82@LoadFloat_@3
  0010c	32 d1		 xor	 dl, cl
  0010e	88 55 ee	 mov	 BYTE PTR __k$[ebp+14], dl
  00111	8a 50 0f	 mov	 dl, BYTE PTR [eax+15]
  00114	84 d2		 test	 dl, dl
  00116	0f 84 f6 00 00
	00		 je	 $LN81@LoadFloat_@3
  0011c	80 f2 ea	 xor	 dl, -22			; ffffffeaH
  0011f	88 55 ef	 mov	 BYTE PTR __k$[ebp+15], dl
  00122	8a 50 10	 mov	 dl, BYTE PTR [eax+16]
  00125	84 d2		 test	 dl, dl
  00127	0f 84 df 00 00
	00		 je	 $LN80@LoadFloat_@3
  0012d	80 f2 ed	 xor	 dl, -19			; ffffffedH
  00130	88 55 f0	 mov	 BYTE PTR __k$[ebp+16], dl
  00133	8a 50 11	 mov	 dl, BYTE PTR [eax+17]
  00136	84 d2		 test	 dl, dl
  00138	0f 84 c9 00 00
	00		 je	 $LN79@LoadFloat_@3
  0013e	32 d3		 xor	 dl, bl
  00140	88 55 f1	 mov	 BYTE PTR __k$[ebp+17], dl
  00143	8a 50 12	 mov	 dl, BYTE PTR [eax+18]
  00146	84 d2		 test	 dl, dl
  00148	0f 84 b4 00 00
	00		 je	 $LN78@LoadFloat_@3
  0014e	32 d1		 xor	 dl, cl
  00150	88 55 f2	 mov	 BYTE PTR __k$[ebp+18], dl
  00153	8a 50 13	 mov	 dl, BYTE PTR [eax+19]
  00156	84 d2		 test	 dl, dl
  00158	0f 84 9e 00 00
	00		 je	 $LN77@LoadFloat_@3
  0015e	80 f2 ea	 xor	 dl, -22			; ffffffeaH
  00161	88 55 f3	 mov	 BYTE PTR __k$[ebp+19], dl
  00164	8a 50 14	 mov	 dl, BYTE PTR [eax+20]
  00167	84 d2		 test	 dl, dl
  00169	0f 84 87 00 00
	00		 je	 $LN76@LoadFloat_@3
  0016f	80 f2 ed	 xor	 dl, -19			; ffffffedH
  00172	88 55 f4	 mov	 BYTE PTR __k$[ebp+20], dl
  00175	8a 50 15	 mov	 dl, BYTE PTR [eax+21]
  00178	84 d2		 test	 dl, dl
  0017a	74 75		 je	 SHORT $LN75@LoadFloat_@3
  0017c	32 d3		 xor	 dl, bl
  0017e	88 55 f5	 mov	 BYTE PTR __k$[ebp+21], dl
  00181	8a 50 16	 mov	 dl, BYTE PTR [eax+22]
  00184	84 d2		 test	 dl, dl
  00186	74 64		 je	 SHORT $LN74@LoadFloat_@3
  00188	32 d1		 xor	 dl, cl
  0018a	80 78 17 00	 cmp	 BYTE PTR [eax+23], 0
  0018e	88 55 f6	 mov	 BYTE PTR __k$[ebp+22], dl
  00191	0f 84 d3 00 00
	00		 je	 $LN1@LoadFloat_@3
  00197	8a 50 18	 mov	 dl, BYTE PTR [eax+24]
  0019a	84 d2		 test	 dl, dl
  0019c	74 48		 je	 SHORT $LN72@LoadFloat_@3
  0019e	80 f2 ed	 xor	 dl, -19			; ffffffedH
  001a1	88 55 f8	 mov	 BYTE PTR __k$[ebp+24], dl
  001a4	8a 50 19	 mov	 dl, BYTE PTR [eax+25]
  001a7	84 d2		 test	 dl, dl
  001a9	74 33		 je	 SHORT $LN71@LoadFloat_@3
  001ab	32 d3		 xor	 dl, bl
  001ad	88 55 f9	 mov	 BYTE PTR __k$[ebp+25], dl
  001b0	8a 50 1a	 mov	 dl, BYTE PTR [eax+26]
  001b3	84 d2		 test	 dl, dl
  001b5	74 1f		 je	 SHORT $LN70@LoadFloat_@3
  001b7	8a 40 1b	 mov	 al, BYTE PTR [eax+27]
  001ba	32 d1		 xor	 dl, cl
  001bc	88 55 fa	 mov	 BYTE PTR __k$[ebp+26], dl
  001bf	84 c0		 test	 al, al
  001c1	74 0a		 je	 SHORT $LN69@LoadFloat_@3
  001c3	34 ea		 xor	 al, -22			; ffffffeaH
  001c5	88 45 fb	 mov	 BYTE PTR __k$[ebp+27], al
  001c8	e9 9d 00 00 00	 jmp	 $LN1@LoadFloat_@3
$LN69@LoadFloat_@3:
  001cd	c6 45 fb ea	 mov	 BYTE PTR __k$[ebp+27], -22 ; ffffffeaH
  001d1	e9 94 00 00 00	 jmp	 $LN1@LoadFloat_@3
$LN70@LoadFloat_@3:
  001d6	88 4d fa	 mov	 BYTE PTR __k$[ebp+26], cl
  001d9	e9 8c 00 00 00	 jmp	 $LN1@LoadFloat_@3
$LN71@LoadFloat_@3:
  001de	88 5d f9	 mov	 BYTE PTR __k$[ebp+25], bl
  001e1	e9 84 00 00 00	 jmp	 $LN1@LoadFloat_@3
$LN72@LoadFloat_@3:
  001e6	c6 45 f8 ed	 mov	 BYTE PTR __k$[ebp+24], -19 ; ffffffedH
  001ea	eb 7e		 jmp	 SHORT $LN1@LoadFloat_@3
$LN74@LoadFloat_@3:
  001ec	88 4d f6	 mov	 BYTE PTR __k$[ebp+22], cl
  001ef	eb 79		 jmp	 SHORT $LN1@LoadFloat_@3
$LN75@LoadFloat_@3:
  001f1	88 5d f5	 mov	 BYTE PTR __k$[ebp+21], bl
  001f4	eb 74		 jmp	 SHORT $LN1@LoadFloat_@3
$LN76@LoadFloat_@3:
  001f6	c6 45 f4 ed	 mov	 BYTE PTR __k$[ebp+20], -19 ; ffffffedH
  001fa	eb 6e		 jmp	 SHORT $LN1@LoadFloat_@3
$LN77@LoadFloat_@3:
  001fc	c6 45 f3 ea	 mov	 BYTE PTR __k$[ebp+19], -22 ; ffffffeaH
  00200	eb 68		 jmp	 SHORT $LN1@LoadFloat_@3
$LN78@LoadFloat_@3:
  00202	88 4d f2	 mov	 BYTE PTR __k$[ebp+18], cl
  00205	eb 63		 jmp	 SHORT $LN1@LoadFloat_@3
$LN79@LoadFloat_@3:
  00207	88 5d f1	 mov	 BYTE PTR __k$[ebp+17], bl
  0020a	eb 5e		 jmp	 SHORT $LN1@LoadFloat_@3
$LN80@LoadFloat_@3:
  0020c	c6 45 f0 ed	 mov	 BYTE PTR __k$[ebp+16], -19 ; ffffffedH
  00210	eb 58		 jmp	 SHORT $LN1@LoadFloat_@3
$LN81@LoadFloat_@3:
  00212	c6 45 ef ea	 mov	 BYTE PTR __k$[ebp+15], -22 ; ffffffeaH
  00216	eb 52		 jmp	 SHORT $LN1@LoadFloat_@3
$LN82@LoadFloat_@3:
  00218	88 4d ee	 mov	 BYTE PTR __k$[ebp+14], cl
  0021b	eb 4d		 jmp	 SHORT $LN1@LoadFloat_@3
$LN83@LoadFloat_@3:
  0021d	88 5d ed	 mov	 BYTE PTR __k$[ebp+13], bl
  00220	eb 48		 jmp	 SHORT $LN1@LoadFloat_@3
$LN84@LoadFloat_@3:
  00222	c6 45 ec ed	 mov	 BYTE PTR __k$[ebp+12], -19 ; ffffffedH
  00226	eb 42		 jmp	 SHORT $LN1@LoadFloat_@3
$LN85@LoadFloat_@3:
  00228	c6 45 eb ea	 mov	 BYTE PTR __k$[ebp+11], -22 ; ffffffeaH
  0022c	eb 3c		 jmp	 SHORT $LN1@LoadFloat_@3
$LN86@LoadFloat_@3:
  0022e	88 4d ea	 mov	 BYTE PTR __k$[ebp+10], cl
  00231	eb 37		 jmp	 SHORT $LN1@LoadFloat_@3
$LN87@LoadFloat_@3:
  00233	88 5d e9	 mov	 BYTE PTR __k$[ebp+9], bl
  00236	eb 32		 jmp	 SHORT $LN1@LoadFloat_@3
$LN88@LoadFloat_@3:
  00238	c6 45 e8 ed	 mov	 BYTE PTR __k$[ebp+8], -19 ; ffffffedH
  0023c	eb 2c		 jmp	 SHORT $LN1@LoadFloat_@3
$LN89@LoadFloat_@3:
  0023e	c6 45 e7 ea	 mov	 BYTE PTR __k$[ebp+7], -22 ; ffffffeaH
  00242	eb 26		 jmp	 SHORT $LN1@LoadFloat_@3
$LN90@LoadFloat_@3:
  00244	88 4d e6	 mov	 BYTE PTR __k$[ebp+6], cl
  00247	eb 21		 jmp	 SHORT $LN1@LoadFloat_@3
$LN91@LoadFloat_@3:
  00249	88 5d e5	 mov	 BYTE PTR __k$[ebp+5], bl
  0024c	eb 1c		 jmp	 SHORT $LN1@LoadFloat_@3
$LN92@LoadFloat_@3:
  0024e	c6 45 e4 ed	 mov	 BYTE PTR __k$[ebp+4], -19 ; ffffffedH
  00252	eb 16		 jmp	 SHORT $LN1@LoadFloat_@3
$LN93@LoadFloat_@3:
  00254	c6 45 e3 ea	 mov	 BYTE PTR __k$[ebp+3], -22 ; ffffffeaH
  00258	eb 10		 jmp	 SHORT $LN1@LoadFloat_@3
$LN94@LoadFloat_@3:
  0025a	c6 45 e2 eb	 mov	 BYTE PTR __k$[ebp+2], -21 ; ffffffebH
  0025e	eb 0a		 jmp	 SHORT $LN1@LoadFloat_@3
$LN95@LoadFloat_@3:
  00260	c6 45 e1 ec	 mov	 BYTE PTR __k$[ebp+1], -20 ; ffffffecH
  00264	eb 04		 jmp	 SHORT $LN1@LoadFloat_@3
$LN96@LoadFloat_@3:
  00266	c6 45 e0 ed	 mov	 BYTE PTR __k$[ebp], -19	; ffffffedH
$LN1@LoadFloat_@3:
  0026a	6a 05		 push	 5
  0026c	8d 45 e0	 lea	 eax, DWORD PTR __k$[ebp]
  0026f	c6 45 f7 00	 mov	 BYTE PTR __k$[ebp+23], 0
  00273	5a		 pop	 edx
$LL104@LoadFloat_@3:
  00274	81 30 ed ec eb
	ea		 xor	 DWORD PTR [eax], -353637139 ; eaebecedH
  0027a	83 c0 04	 add	 eax, 4
  0027d	4a		 dec	 edx
  0027e	75 f4		 jne	 SHORT $LL104@LoadFloat_@3
  00280	6a 14		 push	 20			; 00000014H
  00282	58		 pop	 eax
$LL101@LoadFloat_@3:
  00283	8b c8		 mov	 ecx, eax
  00285	81 e1 03 00 00
	80		 and	 ecx, -2147483645	; 80000003H
  0028b	79 05		 jns	 SHORT $LN111@LoadFloat_@3
  0028d	49		 dec	 ecx
  0028e	83 c9 fc	 or	 ecx, -4			; fffffffcH
  00291	41		 inc	 ecx
$LN111@LoadFloat_@3:
  00292	b2 ed		 mov	 dl, -19			; ffffffedH
  00294	2a d1		 sub	 dl, cl
  00296	30 54 05 e0	 xor	 BYTE PTR __k$[ebp+eax], dl
  0029a	40		 inc	 eax
  0029b	83 f8 17	 cmp	 eax, 23			; 00000017H
  0029e	7c e3		 jl	 SHORT $LL101@LoadFloat_@3

; 137  : 		return LoadFloat(_k, f);

  002a0	f3 0f 10 45 0c	 movss	 xmm0, DWORD PTR _f$[ebp]
  002a5	51		 push	 ecx
  002a6	8d 45 e0	 lea	 eax, DWORD PTR __k$[ebp]
  002a9	f3 0f 11 04 24	 movss	 DWORD PTR [esp], xmm0
  002ae	50		 push	 eax
  002af	8b ce		 mov	 ecx, esi
  002b1	ff 15 00 00 00
	00		 call	 DWORD PTR __imp_?LoadFloat@ioINILoader@@QAEMPBDM@Z

; 138  : 	}

  002b7	8b 4d fc	 mov	 ecx, DWORD PTR __$ArrayPad$[ebp]
  002ba	5e		 pop	 esi
  002bb	33 cd		 xor	 ecx, ebp
  002bd	5b		 pop	 ebx
  002be	e8 00 00 00 00	 call	 @__security_check_cookie@4
  002c3	c9		 leave
  002c4	c2 08 00	 ret	 8
??$LoadFloat_e@$0BI@@ioINILoader@@QAEMAAY0BI@$$CBDM@Z ENDP ; ioINILoader::LoadFloat_e<24>
_TEXT	ENDS
PUBLIC	_this$GSCopy$
PUBLIC	__$ArrayPad$
PUBLIC	??$LoadString_e@$0BF@@ioINILoader@@QAEXAAY0BF@$$CBDAAY00$$CBDPADH@Z ; ioINILoader::LoadString_e<21>
; Function compile flags: /Ogsp
;	COMDAT ??$LoadString_e@$0BF@@ioINILoader@@QAEXAAY0BF@$$CBDAAY00$$CBDPADH@Z
_TEXT	SEGMENT
_this$GSCopy$ = -36					; size = 4
__k$ = -32						; size = 21
__$ArrayPad$ = -4					; size = 4
_k$ = 8							; size = 4
_d$ = 12						; size = 4
_b$ = 16						; size = 4
_i$ = 20						; size = 4
??$LoadString_e@$0BF@@ioINILoader@@QAEXAAY0BF@$$CBDAAY00$$CBDPADH@Z PROC ; ioINILoader::LoadString_e<21>, COMDAT
; _this$ = ecx

; 161  : 	{

  00000	55		 push	 ebp
  00001	8b ec		 mov	 ebp, esp
  00003	83 ec 24	 sub	 esp, 36			; 00000024H
  00006	a1 00 00 00 00	 mov	 eax, DWORD PTR ___security_cookie
  0000b	33 c5		 xor	 eax, ebp
  0000d	89 45 fc	 mov	 DWORD PTR __$ArrayPad$[ebp], eax
  00010	8b 45 08	 mov	 eax, DWORD PTR _k$[ebp]

; 162  : 		_ENCSTR(k, _k);

  00013	8a 10		 mov	 dl, BYTE PTR [eax]
  00015	53		 push	 ebx
  00016	56		 push	 esi
  00017	8b 75 0c	 mov	 esi, DWORD PTR _d$[ebp]
  0001a	57		 push	 edi
  0001b	8b 7d 10	 mov	 edi, DWORD PTR _b$[ebp]
  0001e	89 4d dc	 mov	 DWORD PTR _this$GSCopy$[ebp], ecx
  00021	84 d2		 test	 dl, dl
  00023	0f 84 f7 01 00
	00		 je	 $LN96@LoadString@3
  00029	80 f2 ed	 xor	 dl, -19			; ffffffedH
  0002c	88 55 e0	 mov	 BYTE PTR __k$[ebp], dl
  0002f	8a 50 01	 mov	 dl, BYTE PTR [eax+1]
  00032	84 d2		 test	 dl, dl
  00034	0f 84 e0 01 00
	00		 je	 $LN95@LoadString@3
  0003a	b1 ec		 mov	 cl, -20			; ffffffecH
  0003c	32 d1		 xor	 dl, cl
  0003e	88 55 e1	 mov	 BYTE PTR __k$[ebp+1], dl
  00041	8a 50 02	 mov	 dl, BYTE PTR [eax+2]
  00044	84 d2		 test	 dl, dl
  00046	0f 84 c8 01 00
	00		 je	 $LN94@LoadString@3
  0004c	b3 eb		 mov	 bl, -21			; ffffffebH
  0004e	32 d3		 xor	 dl, bl
  00050	88 55 e2	 mov	 BYTE PTR __k$[ebp+2], dl
  00053	8a 50 03	 mov	 dl, BYTE PTR [eax+3]
  00056	84 d2		 test	 dl, dl
  00058	0f 84 b0 01 00
	00		 je	 $LN93@LoadString@3
  0005e	80 f2 ea	 xor	 dl, -22			; ffffffeaH
  00061	88 55 e3	 mov	 BYTE PTR __k$[ebp+3], dl
  00064	8a 50 04	 mov	 dl, BYTE PTR [eax+4]
  00067	84 d2		 test	 dl, dl
  00069	0f 84 99 01 00
	00		 je	 $LN92@LoadString@3
  0006f	80 f2 ed	 xor	 dl, -19			; ffffffedH
  00072	88 55 e4	 mov	 BYTE PTR __k$[ebp+4], dl
  00075	8a 50 05	 mov	 dl, BYTE PTR [eax+5]
  00078	84 d2		 test	 dl, dl
  0007a	0f 84 83 01 00
	00		 je	 $LN91@LoadString@3
  00080	32 d1		 xor	 dl, cl
  00082	88 55 e5	 mov	 BYTE PTR __k$[ebp+5], dl
  00085	8a 50 06	 mov	 dl, BYTE PTR [eax+6]
  00088	84 d2		 test	 dl, dl
  0008a	0f 84 6e 01 00
	00		 je	 $LN90@LoadString@3
  00090	32 d3		 xor	 dl, bl
  00092	88 55 e6	 mov	 BYTE PTR __k$[ebp+6], dl
  00095	8a 50 07	 mov	 dl, BYTE PTR [eax+7]
  00098	84 d2		 test	 dl, dl
  0009a	0f 84 58 01 00
	00		 je	 $LN89@LoadString@3
  000a0	80 f2 ea	 xor	 dl, -22			; ffffffeaH
  000a3	88 55 e7	 mov	 BYTE PTR __k$[ebp+7], dl
  000a6	8a 50 08	 mov	 dl, BYTE PTR [eax+8]
  000a9	84 d2		 test	 dl, dl
  000ab	0f 84 41 01 00
	00		 je	 $LN88@LoadString@3
  000b1	80 f2 ed	 xor	 dl, -19			; ffffffedH
  000b4	88 55 e8	 mov	 BYTE PTR __k$[ebp+8], dl
  000b7	8a 50 09	 mov	 dl, BYTE PTR [eax+9]
  000ba	84 d2		 test	 dl, dl
  000bc	0f 84 2b 01 00
	00		 je	 $LN87@LoadString@3
  000c2	32 d1		 xor	 dl, cl
  000c4	88 55 e9	 mov	 BYTE PTR __k$[ebp+9], dl
  000c7	8a 50 0a	 mov	 dl, BYTE PTR [eax+10]
  000ca	84 d2		 test	 dl, dl
  000cc	0f 84 16 01 00
	00		 je	 $LN86@LoadString@3
  000d2	32 d3		 xor	 dl, bl
  000d4	88 55 ea	 mov	 BYTE PTR __k$[ebp+10], dl
  000d7	8a 50 0b	 mov	 dl, BYTE PTR [eax+11]
  000da	84 d2		 test	 dl, dl
  000dc	0f 84 00 01 00
	00		 je	 $LN85@LoadString@3
  000e2	80 f2 ea	 xor	 dl, -22			; ffffffeaH
  000e5	88 55 eb	 mov	 BYTE PTR __k$[ebp+11], dl
  000e8	8a 50 0c	 mov	 dl, BYTE PTR [eax+12]
  000eb	84 d2		 test	 dl, dl
  000ed	0f 84 e9 00 00
	00		 je	 $LN84@LoadString@3
  000f3	80 f2 ed	 xor	 dl, -19			; ffffffedH
  000f6	88 55 ec	 mov	 BYTE PTR __k$[ebp+12], dl
  000f9	8a 50 0d	 mov	 dl, BYTE PTR [eax+13]
  000fc	84 d2		 test	 dl, dl
  000fe	0f 84 d3 00 00
	00		 je	 $LN83@LoadString@3
  00104	32 d1		 xor	 dl, cl
  00106	88 55 ed	 mov	 BYTE PTR __k$[ebp+13], dl
  00109	8a 50 0e	 mov	 dl, BYTE PTR [eax+14]
  0010c	84 d2		 test	 dl, dl
  0010e	0f 84 be 00 00
	00		 je	 $LN82@LoadString@3
  00114	32 d3		 xor	 dl, bl
  00116	88 55 ee	 mov	 BYTE PTR __k$[ebp+14], dl
  00119	8a 50 0f	 mov	 dl, BYTE PTR [eax+15]
  0011c	84 d2		 test	 dl, dl
  0011e	0f 84 a8 00 00
	00		 je	 $LN81@LoadString@3
  00124	80 f2 ea	 xor	 dl, -22			; ffffffeaH
  00127	88 55 ef	 mov	 BYTE PTR __k$[ebp+15], dl
  0012a	8a 50 10	 mov	 dl, BYTE PTR [eax+16]
  0012d	84 d2		 test	 dl, dl
  0012f	0f 84 91 00 00
	00		 je	 $LN80@LoadString@3
  00135	80 f2 ed	 xor	 dl, -19			; ffffffedH
  00138	88 55 f0	 mov	 BYTE PTR __k$[ebp+16], dl
  0013b	8a 50 11	 mov	 dl, BYTE PTR [eax+17]
  0013e	84 d2		 test	 dl, dl
  00140	74 7f		 je	 SHORT $LN79@LoadString@3
  00142	32 d1		 xor	 dl, cl
  00144	88 55 f1	 mov	 BYTE PTR __k$[ebp+17], dl
  00147	8a 50 12	 mov	 dl, BYTE PTR [eax+18]
  0014a	84 d2		 test	 dl, dl
  0014c	74 6e		 je	 SHORT $LN78@LoadString@3
  0014e	32 d3		 xor	 dl, bl
  00150	88 55 f2	 mov	 BYTE PTR __k$[ebp+18], dl
  00153	8a 50 13	 mov	 dl, BYTE PTR [eax+19]
  00156	84 d2		 test	 dl, dl
  00158	74 5c		 je	 SHORT $LN77@LoadString@3
  0015a	80 f2 ea	 xor	 dl, -22			; ffffffeaH
  0015d	80 78 14 00	 cmp	 BYTE PTR [eax+20], 0
  00161	88 55 f3	 mov	 BYTE PTR __k$[ebp+19], dl
  00164	0f 84 ba 00 00
	00		 je	 $LN111@LoadString@3
  0016a	8a 50 15	 mov	 dl, BYTE PTR [eax+21]
  0016d	84 d2		 test	 dl, dl
  0016f	74 40		 je	 SHORT $LN75@LoadString@3
  00171	32 d1		 xor	 dl, cl
  00173	88 55 f5	 mov	 BYTE PTR __k$[ebp+21], dl
  00176	8a 50 16	 mov	 dl, BYTE PTR [eax+22]
  00179	84 d2		 test	 dl, dl
  0017b	74 2f		 je	 SHORT $LN74@LoadString@3
  0017d	32 d3		 xor	 dl, bl
  0017f	88 55 f6	 mov	 BYTE PTR __k$[ebp+22], dl
  00182	8a 50 17	 mov	 dl, BYTE PTR [eax+23]
  00185	84 d2		 test	 dl, dl
  00187	74 1d		 je	 SHORT $LN73@LoadString@3
  00189	8a 40 18	 mov	 al, BYTE PTR [eax+24]
  0018c	80 f2 ea	 xor	 dl, -22			; ffffffeaH
  0018f	88 55 f7	 mov	 BYTE PTR __k$[ebp+23], dl
  00192	84 c0		 test	 al, al
  00194	74 0a		 je	 SHORT $LN72@LoadString@3
  00196	34 ed		 xor	 al, -19			; ffffffedH
  00198	88 45 f8	 mov	 BYTE PTR __k$[ebp+24], al
  0019b	e9 84 00 00 00	 jmp	 $LN111@LoadString@3
$LN72@LoadString@3:
  001a0	c6 45 f8 ed	 mov	 BYTE PTR __k$[ebp+24], -19 ; ffffffedH
  001a4	eb 7e		 jmp	 SHORT $LN111@LoadString@3
$LN73@LoadString@3:
  001a6	c6 45 f7 ea	 mov	 BYTE PTR __k$[ebp+23], -22 ; ffffffeaH
  001aa	eb 78		 jmp	 SHORT $LN111@LoadString@3
$LN74@LoadString@3:
  001ac	88 5d f6	 mov	 BYTE PTR __k$[ebp+22], bl
  001af	eb 73		 jmp	 SHORT $LN111@LoadString@3
$LN75@LoadString@3:
  001b1	88 4d f5	 mov	 BYTE PTR __k$[ebp+21], cl
  001b4	eb 6e		 jmp	 SHORT $LN111@LoadString@3
$LN77@LoadString@3:
  001b6	c6 45 f3 ea	 mov	 BYTE PTR __k$[ebp+19], -22 ; ffffffeaH
  001ba	eb 68		 jmp	 SHORT $LN111@LoadString@3
$LN78@LoadString@3:
  001bc	88 5d f2	 mov	 BYTE PTR __k$[ebp+18], bl
  001bf	eb 63		 jmp	 SHORT $LN111@LoadString@3
$LN79@LoadString@3:
  001c1	88 4d f1	 mov	 BYTE PTR __k$[ebp+17], cl
  001c4	eb 5e		 jmp	 SHORT $LN111@LoadString@3
$LN80@LoadString@3:
  001c6	c6 45 f0 ed	 mov	 BYTE PTR __k$[ebp+16], -19 ; ffffffedH
  001ca	eb 58		 jmp	 SHORT $LN111@LoadString@3
$LN81@LoadString@3:
  001cc	c6 45 ef ea	 mov	 BYTE PTR __k$[ebp+15], -22 ; ffffffeaH
  001d0	eb 52		 jmp	 SHORT $LN111@LoadString@3
$LN82@LoadString@3:
  001d2	88 5d ee	 mov	 BYTE PTR __k$[ebp+14], bl
  001d5	eb 4d		 jmp	 SHORT $LN111@LoadString@3
$LN83@LoadString@3:
  001d7	88 4d ed	 mov	 BYTE PTR __k$[ebp+13], cl
  001da	eb 48		 jmp	 SHORT $LN111@LoadString@3
$LN84@LoadString@3:
  001dc	c6 45 ec ed	 mov	 BYTE PTR __k$[ebp+12], -19 ; ffffffedH
  001e0	eb 42		 jmp	 SHORT $LN111@LoadString@3
$LN85@LoadString@3:
  001e2	c6 45 eb ea	 mov	 BYTE PTR __k$[ebp+11], -22 ; ffffffeaH
  001e6	eb 3c		 jmp	 SHORT $LN111@LoadString@3
$LN86@LoadString@3:
  001e8	88 5d ea	 mov	 BYTE PTR __k$[ebp+10], bl
  001eb	eb 37		 jmp	 SHORT $LN111@LoadString@3
$LN87@LoadString@3:
  001ed	88 4d e9	 mov	 BYTE PTR __k$[ebp+9], cl
  001f0	eb 32		 jmp	 SHORT $LN111@LoadString@3
$LN88@LoadString@3:
  001f2	c6 45 e8 ed	 mov	 BYTE PTR __k$[ebp+8], -19 ; ffffffedH
  001f6	eb 2c		 jmp	 SHORT $LN111@LoadString@3
$LN89@LoadString@3:
  001f8	c6 45 e7 ea	 mov	 BYTE PTR __k$[ebp+7], -22 ; ffffffeaH
  001fc	eb 26		 jmp	 SHORT $LN111@LoadString@3
$LN90@LoadString@3:
  001fe	88 5d e6	 mov	 BYTE PTR __k$[ebp+6], bl
  00201	eb 21		 jmp	 SHORT $LN111@LoadString@3
$LN91@LoadString@3:
  00203	88 4d e5	 mov	 BYTE PTR __k$[ebp+5], cl
  00206	eb 1c		 jmp	 SHORT $LN111@LoadString@3
$LN92@LoadString@3:
  00208	c6 45 e4 ed	 mov	 BYTE PTR __k$[ebp+4], -19 ; ffffffedH
  0020c	eb 16		 jmp	 SHORT $LN111@LoadString@3
$LN93@LoadString@3:
  0020e	c6 45 e3 ea	 mov	 BYTE PTR __k$[ebp+3], -22 ; ffffffeaH
  00212	eb 10		 jmp	 SHORT $LN111@LoadString@3
$LN94@LoadString@3:
  00214	c6 45 e2 eb	 mov	 BYTE PTR __k$[ebp+2], -21 ; ffffffebH
  00218	eb 0a		 jmp	 SHORT $LN111@LoadString@3
$LN95@LoadString@3:
  0021a	c6 45 e1 ec	 mov	 BYTE PTR __k$[ebp+1], -20 ; ffffffecH
  0021e	eb 04		 jmp	 SHORT $LN111@LoadString@3
$LN96@LoadString@3:
  00220	c6 45 e0 ed	 mov	 BYTE PTR __k$[ebp], -19	; ffffffedH
$LN111@LoadString@3:
  00224	6a 05		 push	 5
  00226	8d 45 e0	 lea	 eax, DWORD PTR __k$[ebp]
  00229	c6 45 f4 00	 mov	 BYTE PTR __k$[ebp+20], 0
  0022d	5a		 pop	 edx
$LL104@LoadString@3:
  0022e	81 30 ed ec eb
	ea		 xor	 DWORD PTR [eax], -353637139 ; eaebecedH
  00234	83 c0 04	 add	 eax, 4
  00237	4a		 dec	 edx
  00238	75 f4		 jne	 SHORT $LL104@LoadString@3

; 163  : 		LoadString(_k, d, b, i);

  0023a	ff 75 14	 push	 DWORD PTR _i$[ebp]
  0023d	8b 4d dc	 mov	 ecx, DWORD PTR _this$GSCopy$[ebp]
  00240	57		 push	 edi
  00241	56		 push	 esi
  00242	8d 45 e0	 lea	 eax, DWORD PTR __k$[ebp]
  00245	50		 push	 eax
  00246	ff 15 00 00 00
	00		 call	 DWORD PTR __imp_?LoadStringA@ioINILoader@@QAEXPBD0PADH@Z

; 164  : 	}

  0024c	8b 4d fc	 mov	 ecx, DWORD PTR __$ArrayPad$[ebp]
  0024f	5f		 pop	 edi
  00250	5e		 pop	 esi
  00251	33 cd		 xor	 ecx, ebp
  00253	5b		 pop	 ebx
  00254	e8 00 00 00 00	 call	 @__security_check_cookie@4
  00259	c9		 leave
  0025a	c2 10 00	 ret	 16			; 00000010H
??$LoadString_e@$0BF@@ioINILoader@@QAEXAAY0BF@$$CBDAAY00$$CBDPADH@Z ENDP ; ioINILoader::LoadString_e<21>
_TEXT	ENDS
PUBLIC	__$ArrayPad$
PUBLIC	??$LoadFloat_e@$0BK@@ioINILoader@@QAEMAAY0BK@$$CBDM@Z ; ioINILoader::LoadFloat_e<26>
; Function compile flags: /Ogsp
;	COMDAT ??$LoadFloat_e@$0BK@@ioINILoader@@QAEMAAY0BK@$$CBDM@Z
_TEXT	SEGMENT
__k$ = -36						; size = 26
__$ArrayPad$ = -4					; size = 4
_k$ = 8							; size = 4
_f$ = 12						; size = 4
??$LoadFloat_e@$0BK@@ioINILoader@@QAEMAAY0BK@$$CBDM@Z PROC ; ioINILoader::LoadFloat_e<26>, COMDAT
; _this$ = ecx

; 135  : 	{

  00000	55		 push	 ebp
  00001	8b ec		 mov	 ebp, esp
  00003	83 ec 24	 sub	 esp, 36			; 00000024H
  00006	a1 00 00 00 00	 mov	 eax, DWORD PTR ___security_cookie
  0000b	33 c5		 xor	 eax, ebp
  0000d	89 45 fc	 mov	 DWORD PTR __$ArrayPad$[ebp], eax
  00010	8b 45 08	 mov	 eax, DWORD PTR _k$[ebp]

; 136  : 		_ENCSTR(k, _k);

  00013	8a 10		 mov	 dl, BYTE PTR [eax]
  00015	53		 push	 ebx
  00016	56		 push	 esi
  00017	8b f1		 mov	 esi, ecx
  00019	84 d2		 test	 dl, dl
  0001b	0f 84 79 02 00
	00		 je	 $LN96@LoadFloat_@4
  00021	80 f2 ed	 xor	 dl, -19			; ffffffedH
  00024	88 55 dc	 mov	 BYTE PTR __k$[ebp], dl
  00027	8a 50 01	 mov	 dl, BYTE PTR [eax+1]
  0002a	84 d2		 test	 dl, dl
  0002c	0f 84 62 02 00
	00		 je	 $LN95@LoadFloat_@4
  00032	80 f2 ec	 xor	 dl, -20			; ffffffecH
  00035	88 55 dd	 mov	 BYTE PTR __k$[ebp+1], dl
  00038	8a 50 02	 mov	 dl, BYTE PTR [eax+2]
  0003b	84 d2		 test	 dl, dl
  0003d	0f 84 4b 02 00
	00		 je	 $LN94@LoadFloat_@4
  00043	b1 eb		 mov	 cl, -21			; ffffffebH
  00045	32 d1		 xor	 dl, cl
  00047	88 55 de	 mov	 BYTE PTR __k$[ebp+2], dl
  0004a	8a 50 03	 mov	 dl, BYTE PTR [eax+3]
  0004d	84 d2		 test	 dl, dl
  0004f	0f 84 33 02 00
	00		 je	 $LN93@LoadFloat_@4
  00055	b3 ea		 mov	 bl, -22			; ffffffeaH
  00057	32 d3		 xor	 dl, bl
  00059	88 55 df	 mov	 BYTE PTR __k$[ebp+3], dl
  0005c	8a 50 04	 mov	 dl, BYTE PTR [eax+4]
  0005f	84 d2		 test	 dl, dl
  00061	0f 84 1b 02 00
	00		 je	 $LN92@LoadFloat_@4
  00067	80 f2 ed	 xor	 dl, -19			; ffffffedH
  0006a	88 55 e0	 mov	 BYTE PTR __k$[ebp+4], dl
  0006d	8a 50 05	 mov	 dl, BYTE PTR [eax+5]
  00070	84 d2		 test	 dl, dl
  00072	0f 84 04 02 00
	00		 je	 $LN91@LoadFloat_@4
  00078	80 f2 ec	 xor	 dl, -20			; ffffffecH
  0007b	88 55 e1	 mov	 BYTE PTR __k$[ebp+5], dl
  0007e	8a 50 06	 mov	 dl, BYTE PTR [eax+6]
  00081	84 d2		 test	 dl, dl
  00083	0f 84 ee 01 00
	00		 je	 $LN90@LoadFloat_@4
  00089	32 d1		 xor	 dl, cl
  0008b	88 55 e2	 mov	 BYTE PTR __k$[ebp+6], dl
  0008e	8a 50 07	 mov	 dl, BYTE PTR [eax+7]
  00091	84 d2		 test	 dl, dl
  00093	0f 84 d9 01 00
	00		 je	 $LN89@LoadFloat_@4
  00099	32 d3		 xor	 dl, bl
  0009b	88 55 e3	 mov	 BYTE PTR __k$[ebp+7], dl
  0009e	8a 50 08	 mov	 dl, BYTE PTR [eax+8]
  000a1	84 d2		 test	 dl, dl
  000a3	0f 84 c3 01 00
	00		 je	 $LN88@LoadFloat_@4
  000a9	80 f2 ed	 xor	 dl, -19			; ffffffedH
  000ac	88 55 e4	 mov	 BYTE PTR __k$[ebp+8], dl
  000af	8a 50 09	 mov	 dl, BYTE PTR [eax+9]
  000b2	84 d2		 test	 dl, dl
  000b4	0f 84 ac 01 00
	00		 je	 $LN87@LoadFloat_@4
  000ba	80 f2 ec	 xor	 dl, -20			; ffffffecH
  000bd	88 55 e5	 mov	 BYTE PTR __k$[ebp+9], dl
  000c0	8a 50 0a	 mov	 dl, BYTE PTR [eax+10]
  000c3	84 d2		 test	 dl, dl
  000c5	0f 84 96 01 00
	00		 je	 $LN86@LoadFloat_@4
  000cb	32 d1		 xor	 dl, cl
  000cd	88 55 e6	 mov	 BYTE PTR __k$[ebp+10], dl
  000d0	8a 50 0b	 mov	 dl, BYTE PTR [eax+11]
  000d3	84 d2		 test	 dl, dl
  000d5	0f 84 81 01 00
	00		 je	 $LN85@LoadFloat_@4
  000db	32 d3		 xor	 dl, bl
  000dd	88 55 e7	 mov	 BYTE PTR __k$[ebp+11], dl
  000e0	8a 50 0c	 mov	 dl, BYTE PTR [eax+12]
  000e3	84 d2		 test	 dl, dl
  000e5	0f 84 6b 01 00
	00		 je	 $LN84@LoadFloat_@4
  000eb	80 f2 ed	 xor	 dl, -19			; ffffffedH
  000ee	88 55 e8	 mov	 BYTE PTR __k$[ebp+12], dl
  000f1	8a 50 0d	 mov	 dl, BYTE PTR [eax+13]
  000f4	84 d2		 test	 dl, dl
  000f6	0f 84 54 01 00
	00		 je	 $LN83@LoadFloat_@4
  000fc	80 f2 ec	 xor	 dl, -20			; ffffffecH
  000ff	88 55 e9	 mov	 BYTE PTR __k$[ebp+13], dl
  00102	8a 50 0e	 mov	 dl, BYTE PTR [eax+14]
  00105	84 d2		 test	 dl, dl
  00107	0f 84 3e 01 00
	00		 je	 $LN82@LoadFloat_@4
  0010d	32 d1		 xor	 dl, cl
  0010f	88 55 ea	 mov	 BYTE PTR __k$[ebp+14], dl
  00112	8a 50 0f	 mov	 dl, BYTE PTR [eax+15]
  00115	84 d2		 test	 dl, dl
  00117	0f 84 29 01 00
	00		 je	 $LN81@LoadFloat_@4
  0011d	32 d3		 xor	 dl, bl
  0011f	88 55 eb	 mov	 BYTE PTR __k$[ebp+15], dl
  00122	8a 50 10	 mov	 dl, BYTE PTR [eax+16]
  00125	84 d2		 test	 dl, dl
  00127	0f 84 13 01 00
	00		 je	 $LN80@LoadFloat_@4
  0012d	80 f2 ed	 xor	 dl, -19			; ffffffedH
  00130	88 55 ec	 mov	 BYTE PTR __k$[ebp+16], dl
  00133	8a 50 11	 mov	 dl, BYTE PTR [eax+17]
  00136	84 d2		 test	 dl, dl
  00138	0f 84 fc 00 00
	00		 je	 $LN79@LoadFloat_@4
  0013e	80 f2 ec	 xor	 dl, -20			; ffffffecH
  00141	88 55 ed	 mov	 BYTE PTR __k$[ebp+17], dl
  00144	8a 50 12	 mov	 dl, BYTE PTR [eax+18]
  00147	84 d2		 test	 dl, dl
  00149	0f 84 e6 00 00
	00		 je	 $LN78@LoadFloat_@4
  0014f	32 d1		 xor	 dl, cl
  00151	88 55 ee	 mov	 BYTE PTR __k$[ebp+18], dl
  00154	8a 50 13	 mov	 dl, BYTE PTR [eax+19]
  00157	84 d2		 test	 dl, dl
  00159	0f 84 d1 00 00
	00		 je	 $LN77@LoadFloat_@4
  0015f	32 d3		 xor	 dl, bl
  00161	88 55 ef	 mov	 BYTE PTR __k$[ebp+19], dl
  00164	8a 50 14	 mov	 dl, BYTE PTR [eax+20]
  00167	84 d2		 test	 dl, dl
  00169	0f 84 bb 00 00
	00		 je	 $LN76@LoadFloat_@4
  0016f	80 f2 ed	 xor	 dl, -19			; ffffffedH
  00172	88 55 f0	 mov	 BYTE PTR __k$[ebp+20], dl
  00175	8a 50 15	 mov	 dl, BYTE PTR [eax+21]
  00178	84 d2		 test	 dl, dl
  0017a	0f 84 a4 00 00
	00		 je	 $LN75@LoadFloat_@4
  00180	80 f2 ec	 xor	 dl, -20			; ffffffecH
  00183	88 55 f1	 mov	 BYTE PTR __k$[ebp+21], dl
  00186	8a 50 16	 mov	 dl, BYTE PTR [eax+22]
  00189	84 d2		 test	 dl, dl
  0018b	0f 84 8e 00 00
	00		 je	 $LN74@LoadFloat_@4
  00191	32 d1		 xor	 dl, cl
  00193	88 55 f2	 mov	 BYTE PTR __k$[ebp+22], dl
  00196	8a 50 17	 mov	 dl, BYTE PTR [eax+23]
  00199	84 d2		 test	 dl, dl
  0019b	74 7d		 je	 SHORT $LN73@LoadFloat_@4
  0019d	32 d3		 xor	 dl, bl
  0019f	88 55 f3	 mov	 BYTE PTR __k$[ebp+23], dl
  001a2	8a 50 18	 mov	 dl, BYTE PTR [eax+24]
  001a5	84 d2		 test	 dl, dl
  001a7	74 68		 je	 SHORT $LN72@LoadFloat_@4
  001a9	80 f2 ed	 xor	 dl, -19			; ffffffedH
  001ac	80 78 19 00	 cmp	 BYTE PTR [eax+25], 0
  001b0	88 55 f4	 mov	 BYTE PTR __k$[ebp+24], dl
  001b3	0f 84 e5 00 00
	00		 je	 $LN1@LoadFloat_@4
  001b9	8a 50 1a	 mov	 dl, BYTE PTR [eax+26]
  001bc	84 d2		 test	 dl, dl
  001be	74 49		 je	 SHORT $LN70@LoadFloat_@4
  001c0	32 d1		 xor	 dl, cl
  001c2	88 55 f6	 mov	 BYTE PTR __k$[ebp+26], dl
  001c5	8a 50 1b	 mov	 dl, BYTE PTR [eax+27]
  001c8	84 d2		 test	 dl, dl
  001ca	74 35		 je	 SHORT $LN69@LoadFloat_@4
  001cc	32 d3		 xor	 dl, bl
  001ce	88 55 f7	 mov	 BYTE PTR __k$[ebp+27], dl
  001d1	8a 50 1c	 mov	 dl, BYTE PTR [eax+28]
  001d4	84 d2		 test	 dl, dl
  001d6	74 20		 je	 SHORT $LN68@LoadFloat_@4
  001d8	8a 40 1d	 mov	 al, BYTE PTR [eax+29]
  001db	80 f2 ed	 xor	 dl, -19			; ffffffedH
  001de	88 55 f8	 mov	 BYTE PTR __k$[ebp+28], dl
  001e1	84 c0		 test	 al, al
  001e3	74 0a		 je	 SHORT $LN67@LoadFloat_@4
  001e5	34 ec		 xor	 al, -20			; ffffffecH
  001e7	88 45 f9	 mov	 BYTE PTR __k$[ebp+29], al
  001ea	e9 af 00 00 00	 jmp	 $LN1@LoadFloat_@4
$LN67@LoadFloat_@4:
  001ef	c6 45 f9 ec	 mov	 BYTE PTR __k$[ebp+29], -20 ; ffffffecH
  001f3	e9 a6 00 00 00	 jmp	 $LN1@LoadFloat_@4
$LN68@LoadFloat_@4:
  001f8	c6 45 f8 ed	 mov	 BYTE PTR __k$[ebp+28], -19 ; ffffffedH
  001fc	e9 9d 00 00 00	 jmp	 $LN1@LoadFloat_@4
$LN69@LoadFloat_@4:
  00201	88 5d f7	 mov	 BYTE PTR __k$[ebp+27], bl
  00204	e9 95 00 00 00	 jmp	 $LN1@LoadFloat_@4
$LN70@LoadFloat_@4:
  00209	88 4d f6	 mov	 BYTE PTR __k$[ebp+26], cl
  0020c	e9 8d 00 00 00	 jmp	 $LN1@LoadFloat_@4
$LN72@LoadFloat_@4:
  00211	c6 45 f4 ed	 mov	 BYTE PTR __k$[ebp+24], -19 ; ffffffedH
  00215	e9 84 00 00 00	 jmp	 $LN1@LoadFloat_@4
$LN73@LoadFloat_@4:
  0021a	88 5d f3	 mov	 BYTE PTR __k$[ebp+23], bl
  0021d	eb 7f		 jmp	 SHORT $LN1@LoadFloat_@4
$LN74@LoadFloat_@4:
  0021f	88 4d f2	 mov	 BYTE PTR __k$[ebp+22], cl
  00222	eb 7a		 jmp	 SHORT $LN1@LoadFloat_@4
$LN75@LoadFloat_@4:
  00224	c6 45 f1 ec	 mov	 BYTE PTR __k$[ebp+21], -20 ; ffffffecH
  00228	eb 74		 jmp	 SHORT $LN1@LoadFloat_@4
$LN76@LoadFloat_@4:
  0022a	c6 45 f0 ed	 mov	 BYTE PTR __k$[ebp+20], -19 ; ffffffedH
  0022e	eb 6e		 jmp	 SHORT $LN1@LoadFloat_@4
$LN77@LoadFloat_@4:
  00230	88 5d ef	 mov	 BYTE PTR __k$[ebp+19], bl
  00233	eb 69		 jmp	 SHORT $LN1@LoadFloat_@4
$LN78@LoadFloat_@4:
  00235	88 4d ee	 mov	 BYTE PTR __k$[ebp+18], cl
  00238	eb 64		 jmp	 SHORT $LN1@LoadFloat_@4
$LN79@LoadFloat_@4:
  0023a	c6 45 ed ec	 mov	 BYTE PTR __k$[ebp+17], -20 ; ffffffecH
  0023e	eb 5e		 jmp	 SHORT $LN1@LoadFloat_@4
$LN80@LoadFloat_@4:
  00240	c6 45 ec ed	 mov	 BYTE PTR __k$[ebp+16], -19 ; ffffffedH
  00244	eb 58		 jmp	 SHORT $LN1@LoadFloat_@4
$LN81@LoadFloat_@4:
  00246	88 5d eb	 mov	 BYTE PTR __k$[ebp+15], bl
  00249	eb 53		 jmp	 SHORT $LN1@LoadFloat_@4
$LN82@LoadFloat_@4:
  0024b	88 4d ea	 mov	 BYTE PTR __k$[ebp+14], cl
  0024e	eb 4e		 jmp	 SHORT $LN1@LoadFloat_@4
$LN83@LoadFloat_@4:
  00250	c6 45 e9 ec	 mov	 BYTE PTR __k$[ebp+13], -20 ; ffffffecH
  00254	eb 48		 jmp	 SHORT $LN1@LoadFloat_@4
$LN84@LoadFloat_@4:
  00256	c6 45 e8 ed	 mov	 BYTE PTR __k$[ebp+12], -19 ; ffffffedH
  0025a	eb 42		 jmp	 SHORT $LN1@LoadFloat_@4
$LN85@LoadFloat_@4:
  0025c	88 5d e7	 mov	 BYTE PTR __k$[ebp+11], bl
  0025f	eb 3d		 jmp	 SHORT $LN1@LoadFloat_@4
$LN86@LoadFloat_@4:
  00261	88 4d e6	 mov	 BYTE PTR __k$[ebp+10], cl
  00264	eb 38		 jmp	 SHORT $LN1@LoadFloat_@4
$LN87@LoadFloat_@4:
  00266	c6 45 e5 ec	 mov	 BYTE PTR __k$[ebp+9], -20 ; ffffffecH
  0026a	eb 32		 jmp	 SHORT $LN1@LoadFloat_@4
$LN88@LoadFloat_@4:
  0026c	c6 45 e4 ed	 mov	 BYTE PTR __k$[ebp+8], -19 ; ffffffedH
  00270	eb 2c		 jmp	 SHORT $LN1@LoadFloat_@4
$LN89@LoadFloat_@4:
  00272	88 5d e3	 mov	 BYTE PTR __k$[ebp+7], bl
  00275	eb 27		 jmp	 SHORT $LN1@LoadFloat_@4
$LN90@LoadFloat_@4:
  00277	88 4d e2	 mov	 BYTE PTR __k$[ebp+6], cl
  0027a	eb 22		 jmp	 SHORT $LN1@LoadFloat_@4
$LN91@LoadFloat_@4:
  0027c	c6 45 e1 ec	 mov	 BYTE PTR __k$[ebp+5], -20 ; ffffffecH
  00280	eb 1c		 jmp	 SHORT $LN1@LoadFloat_@4
$LN92@LoadFloat_@4:
  00282	c6 45 e0 ed	 mov	 BYTE PTR __k$[ebp+4], -19 ; ffffffedH
  00286	eb 16		 jmp	 SHORT $LN1@LoadFloat_@4
$LN93@LoadFloat_@4:
  00288	c6 45 df ea	 mov	 BYTE PTR __k$[ebp+3], -22 ; ffffffeaH
  0028c	eb 10		 jmp	 SHORT $LN1@LoadFloat_@4
$LN94@LoadFloat_@4:
  0028e	c6 45 de eb	 mov	 BYTE PTR __k$[ebp+2], -21 ; ffffffebH
  00292	eb 0a		 jmp	 SHORT $LN1@LoadFloat_@4
$LN95@LoadFloat_@4:
  00294	c6 45 dd ec	 mov	 BYTE PTR __k$[ebp+1], -20 ; ffffffecH
  00298	eb 04		 jmp	 SHORT $LN1@LoadFloat_@4
$LN96@LoadFloat_@4:
  0029a	c6 45 dc ed	 mov	 BYTE PTR __k$[ebp], -19	; ffffffedH
$LN1@LoadFloat_@4:
  0029e	6a 06		 push	 6
  002a0	8d 45 dc	 lea	 eax, DWORD PTR __k$[ebp]
  002a3	c6 45 f5 00	 mov	 BYTE PTR __k$[ebp+25], 0
  002a7	5a		 pop	 edx
$LL104@LoadFloat_@4:
  002a8	81 30 ed ec eb
	ea		 xor	 DWORD PTR [eax], -353637139 ; eaebecedH
  002ae	83 c0 04	 add	 eax, 4
  002b1	4a		 dec	 edx
  002b2	75 f4		 jne	 SHORT $LL104@LoadFloat_@4

; 137  : 		return LoadFloat(_k, f);

  002b4	f3 0f 10 45 0c	 movss	 xmm0, DWORD PTR _f$[ebp]
  002b9	80 75 f4 ed	 xor	 BYTE PTR __k$[ebp+24], -19 ; ffffffedH
  002bd	51		 push	 ecx
  002be	8d 45 dc	 lea	 eax, DWORD PTR __k$[ebp]
  002c1	f3 0f 11 04 24	 movss	 DWORD PTR [esp], xmm0
  002c6	50		 push	 eax
  002c7	8b ce		 mov	 ecx, esi
  002c9	ff 15 00 00 00
	00		 call	 DWORD PTR __imp_?LoadFloat@ioINILoader@@QAEMPBDM@Z

; 138  : 	}

  002cf	8b 4d fc	 mov	 ecx, DWORD PTR __$ArrayPad$[ebp]
  002d2	5e		 pop	 esi
  002d3	33 cd		 xor	 ecx, ebp
  002d5	5b		 pop	 ebx
  002d6	e8 00 00 00 00	 call	 @__security_check_cookie@4
  002db	c9		 leave
  002dc	c2 08 00	 ret	 8
??$LoadFloat_e@$0BK@@ioINILoader@@QAEMAAY0BK@$$CBDM@Z ENDP ; ioINILoader::LoadFloat_e<26>
_TEXT	ENDS
PUBLIC	__$ArrayPad$
PUBLIC	??$LoadInt_e@$0BA@@ioINILoader@@QAEHAAY0BA@$$CBDH@Z ; ioINILoader::LoadInt_e<16>
; Function compile flags: /Ogsp
;	COMDAT ??$LoadInt_e@$0BA@@ioINILoader@@QAEHAAY0BA@$$CBDH@Z
_TEXT	SEGMENT
__k$ = -24						; size = 16
__$ArrayPad$ = -4					; size = 4
_k$ = 8							; size = 4
_i$ = 12						; size = 4
??$LoadInt_e@$0BA@@ioINILoader@@QAEHAAY0BA@$$CBDH@Z PROC ; ioINILoader::LoadInt_e<16>, COMDAT
; _this$ = ecx

; 118  : 	{

  00000	55		 push	 ebp
  00001	8b ec		 mov	 ebp, esp
  00003	83 ec 18	 sub	 esp, 24			; 00000018H
  00006	a1 00 00 00 00	 mov	 eax, DWORD PTR ___security_cookie
  0000b	33 c5		 xor	 eax, ebp
  0000d	89 45 fc	 mov	 DWORD PTR __$ArrayPad$[ebp], eax
  00010	8b 45 08	 mov	 eax, DWORD PTR _k$[ebp]

; 119  : 		_ENCSTR(k, _k);

  00013	8a 10		 mov	 dl, BYTE PTR [eax]
  00015	56		 push	 esi
  00016	8b f1		 mov	 esi, ecx
  00018	84 d2		 test	 dl, dl
  0001a	0f 84 8c 01 00
	00		 je	 $LN96@LoadInt_e@2
  00020	80 f2 ed	 xor	 dl, -19			; ffffffedH
  00023	88 55 e8	 mov	 BYTE PTR __k$[ebp], dl
  00026	8a 50 01	 mov	 dl, BYTE PTR [eax+1]
  00029	84 d2		 test	 dl, dl
  0002b	0f 84 75 01 00
	00		 je	 $LN95@LoadInt_e@2
  00031	80 f2 ec	 xor	 dl, -20			; ffffffecH
  00034	88 55 e9	 mov	 BYTE PTR __k$[ebp+1], dl
  00037	8a 50 02	 mov	 dl, BYTE PTR [eax+2]
  0003a	84 d2		 test	 dl, dl
  0003c	0f 84 5e 01 00
	00		 je	 $LN94@LoadInt_e@2
  00042	b1 eb		 mov	 cl, -21			; ffffffebH
  00044	32 d1		 xor	 dl, cl
  00046	88 55 ea	 mov	 BYTE PTR __k$[ebp+2], dl
  00049	8a 50 03	 mov	 dl, BYTE PTR [eax+3]
  0004c	84 d2		 test	 dl, dl
  0004e	0f 84 46 01 00
	00		 je	 $LN93@LoadInt_e@2
  00054	80 f2 ea	 xor	 dl, -22			; ffffffeaH
  00057	88 55 eb	 mov	 BYTE PTR __k$[ebp+3], dl
  0005a	8a 50 04	 mov	 dl, BYTE PTR [eax+4]
  0005d	84 d2		 test	 dl, dl
  0005f	0f 84 2f 01 00
	00		 je	 $LN92@LoadInt_e@2
  00065	80 f2 ed	 xor	 dl, -19			; ffffffedH
  00068	88 55 ec	 mov	 BYTE PTR __k$[ebp+4], dl
  0006b	8a 50 05	 mov	 dl, BYTE PTR [eax+5]
  0006e	84 d2		 test	 dl, dl
  00070	0f 84 18 01 00
	00		 je	 $LN91@LoadInt_e@2
  00076	80 f2 ec	 xor	 dl, -20			; ffffffecH
  00079	88 55 ed	 mov	 BYTE PTR __k$[ebp+5], dl
  0007c	8a 50 06	 mov	 dl, BYTE PTR [eax+6]
  0007f	84 d2		 test	 dl, dl
  00081	0f 84 02 01 00
	00		 je	 $LN90@LoadInt_e@2
  00087	32 d1		 xor	 dl, cl
  00089	88 55 ee	 mov	 BYTE PTR __k$[ebp+6], dl
  0008c	8a 50 07	 mov	 dl, BYTE PTR [eax+7]
  0008f	84 d2		 test	 dl, dl
  00091	0f 84 ec 00 00
	00		 je	 $LN89@LoadInt_e@2
  00097	80 f2 ea	 xor	 dl, -22			; ffffffeaH
  0009a	88 55 ef	 mov	 BYTE PTR __k$[ebp+7], dl
  0009d	8a 50 08	 mov	 dl, BYTE PTR [eax+8]
  000a0	84 d2		 test	 dl, dl
  000a2	0f 84 d5 00 00
	00		 je	 $LN88@LoadInt_e@2
  000a8	80 f2 ed	 xor	 dl, -19			; ffffffedH
  000ab	88 55 f0	 mov	 BYTE PTR __k$[ebp+8], dl
  000ae	8a 50 09	 mov	 dl, BYTE PTR [eax+9]
  000b1	84 d2		 test	 dl, dl
  000b3	0f 84 be 00 00
	00		 je	 $LN87@LoadInt_e@2
  000b9	80 f2 ec	 xor	 dl, -20			; ffffffecH
  000bc	88 55 f1	 mov	 BYTE PTR __k$[ebp+9], dl
  000bf	8a 50 0a	 mov	 dl, BYTE PTR [eax+10]
  000c2	84 d2		 test	 dl, dl
  000c4	0f 84 a8 00 00
	00		 je	 $LN86@LoadInt_e@2
  000ca	32 d1		 xor	 dl, cl
  000cc	88 55 f2	 mov	 BYTE PTR __k$[ebp+10], dl
  000cf	8a 50 0b	 mov	 dl, BYTE PTR [eax+11]
  000d2	84 d2		 test	 dl, dl
  000d4	0f 84 92 00 00
	00		 je	 $LN85@LoadInt_e@2
  000da	80 f2 ea	 xor	 dl, -22			; ffffffeaH
  000dd	88 55 f3	 mov	 BYTE PTR __k$[ebp+11], dl
  000e0	8a 50 0c	 mov	 dl, BYTE PTR [eax+12]
  000e3	84 d2		 test	 dl, dl
  000e5	74 7f		 je	 SHORT $LN84@LoadInt_e@2
  000e7	80 f2 ed	 xor	 dl, -19			; ffffffedH
  000ea	88 55 f4	 mov	 BYTE PTR __k$[ebp+12], dl
  000ed	8a 50 0d	 mov	 dl, BYTE PTR [eax+13]
  000f0	84 d2		 test	 dl, dl
  000f2	74 6c		 je	 SHORT $LN83@LoadInt_e@2
  000f4	80 f2 ec	 xor	 dl, -20			; ffffffecH
  000f7	88 55 f5	 mov	 BYTE PTR __k$[ebp+13], dl
  000fa	8a 50 0e	 mov	 dl, BYTE PTR [eax+14]
  000fd	84 d2		 test	 dl, dl
  000ff	74 5a		 je	 SHORT $LN82@LoadInt_e@2
  00101	32 d1		 xor	 dl, cl
  00103	80 78 0f 00	 cmp	 BYTE PTR [eax+15], 0
  00107	88 55 f6	 mov	 BYTE PTR __k$[ebp+14], dl
  0010a	0f 84 a0 00 00
	00		 je	 $LN1@LoadInt_e@2
  00110	8a 50 10	 mov	 dl, BYTE PTR [eax+16]
  00113	84 d2		 test	 dl, dl
  00115	74 3e		 je	 SHORT $LN80@LoadInt_e@2
  00117	80 f2 ed	 xor	 dl, -19			; ffffffedH
  0011a	88 55 f8	 mov	 BYTE PTR __k$[ebp+16], dl
  0011d	8a 50 11	 mov	 dl, BYTE PTR [eax+17]
  00120	84 d2		 test	 dl, dl
  00122	74 2b		 je	 SHORT $LN79@LoadInt_e@2
  00124	80 f2 ec	 xor	 dl, -20			; ffffffecH
  00127	88 55 f9	 mov	 BYTE PTR __k$[ebp+17], dl
  0012a	8a 50 12	 mov	 dl, BYTE PTR [eax+18]
  0012d	84 d2		 test	 dl, dl
  0012f	74 19		 je	 SHORT $LN78@LoadInt_e@2
  00131	8a 40 13	 mov	 al, BYTE PTR [eax+19]
  00134	32 d1		 xor	 dl, cl
  00136	88 55 fa	 mov	 BYTE PTR __k$[ebp+18], dl
  00139	84 c0		 test	 al, al
  0013b	74 07		 je	 SHORT $LN77@LoadInt_e@2
  0013d	34 ea		 xor	 al, -22			; ffffffeaH
  0013f	88 45 fb	 mov	 BYTE PTR __k$[ebp+19], al
  00142	eb 6c		 jmp	 SHORT $LN1@LoadInt_e@2
$LN77@LoadInt_e@2:
  00144	c6 45 fb ea	 mov	 BYTE PTR __k$[ebp+19], -22 ; ffffffeaH
  00148	eb 66		 jmp	 SHORT $LN1@LoadInt_e@2
$LN78@LoadInt_e@2:
  0014a	88 4d fa	 mov	 BYTE PTR __k$[ebp+18], cl
  0014d	eb 61		 jmp	 SHORT $LN1@LoadInt_e@2
$LN79@LoadInt_e@2:
  0014f	c6 45 f9 ec	 mov	 BYTE PTR __k$[ebp+17], -20 ; ffffffecH
  00153	eb 5b		 jmp	 SHORT $LN1@LoadInt_e@2
$LN80@LoadInt_e@2:
  00155	c6 45 f8 ed	 mov	 BYTE PTR __k$[ebp+16], -19 ; ffffffedH
  00159	eb 55		 jmp	 SHORT $LN1@LoadInt_e@2
$LN82@LoadInt_e@2:
  0015b	88 4d f6	 mov	 BYTE PTR __k$[ebp+14], cl
  0015e	eb 50		 jmp	 SHORT $LN1@LoadInt_e@2
$LN83@LoadInt_e@2:
  00160	c6 45 f5 ec	 mov	 BYTE PTR __k$[ebp+13], -20 ; ffffffecH
  00164	eb 4a		 jmp	 SHORT $LN1@LoadInt_e@2
$LN84@LoadInt_e@2:
  00166	c6 45 f4 ed	 mov	 BYTE PTR __k$[ebp+12], -19 ; ffffffedH
  0016a	eb 44		 jmp	 SHORT $LN1@LoadInt_e@2
$LN85@LoadInt_e@2:
  0016c	c6 45 f3 ea	 mov	 BYTE PTR __k$[ebp+11], -22 ; ffffffeaH
  00170	eb 3e		 jmp	 SHORT $LN1@LoadInt_e@2
$LN86@LoadInt_e@2:
  00172	88 4d f2	 mov	 BYTE PTR __k$[ebp+10], cl
  00175	eb 39		 jmp	 SHORT $LN1@LoadInt_e@2
$LN87@LoadInt_e@2:
  00177	c6 45 f1 ec	 mov	 BYTE PTR __k$[ebp+9], -20 ; ffffffecH
  0017b	eb 33		 jmp	 SHORT $LN1@LoadInt_e@2
$LN88@LoadInt_e@2:
  0017d	c6 45 f0 ed	 mov	 BYTE PTR __k$[ebp+8], -19 ; ffffffedH
  00181	eb 2d		 jmp	 SHORT $LN1@LoadInt_e@2
$LN89@LoadInt_e@2:
  00183	c6 45 ef ea	 mov	 BYTE PTR __k$[ebp+7], -22 ; ffffffeaH
  00187	eb 27		 jmp	 SHORT $LN1@LoadInt_e@2
$LN90@LoadInt_e@2:
  00189	88 4d ee	 mov	 BYTE PTR __k$[ebp+6], cl
  0018c	eb 22		 jmp	 SHORT $LN1@LoadInt_e@2
$LN91@LoadInt_e@2:
  0018e	c6 45 ed ec	 mov	 BYTE PTR __k$[ebp+5], -20 ; ffffffecH
  00192	eb 1c		 jmp	 SHORT $LN1@LoadInt_e@2
$LN92@LoadInt_e@2:
  00194	c6 45 ec ed	 mov	 BYTE PTR __k$[ebp+4], -19 ; ffffffedH
  00198	eb 16		 jmp	 SHORT $LN1@LoadInt_e@2
$LN93@LoadInt_e@2:
  0019a	c6 45 eb ea	 mov	 BYTE PTR __k$[ebp+3], -22 ; ffffffeaH
  0019e	eb 10		 jmp	 SHORT $LN1@LoadInt_e@2
$LN94@LoadInt_e@2:
  001a0	c6 45 ea eb	 mov	 BYTE PTR __k$[ebp+2], -21 ; ffffffebH
  001a4	eb 0a		 jmp	 SHORT $LN1@LoadInt_e@2
$LN95@LoadInt_e@2:
  001a6	c6 45 e9 ec	 mov	 BYTE PTR __k$[ebp+1], -20 ; ffffffecH
  001aa	eb 04		 jmp	 SHORT $LN1@LoadInt_e@2
$LN96@LoadInt_e@2:
  001ac	c6 45 e8 ed	 mov	 BYTE PTR __k$[ebp], -19	; ffffffedH
$LN1@LoadInt_e@2:
  001b0	6a 03		 push	 3
  001b2	8d 45 e8	 lea	 eax, DWORD PTR __k$[ebp]
  001b5	c6 45 f7 00	 mov	 BYTE PTR __k$[ebp+15], 0
  001b9	5a		 pop	 edx
$LL104@LoadInt_e@2:
  001ba	81 30 ed ec eb
	ea		 xor	 DWORD PTR [eax], -353637139 ; eaebecedH
  001c0	83 c0 04	 add	 eax, 4
  001c3	4a		 dec	 edx
  001c4	75 f4		 jne	 SHORT $LL104@LoadInt_e@2
  001c6	6a 0c		 push	 12			; 0000000cH
  001c8	58		 pop	 eax
$LL101@LoadInt_e@2:
  001c9	8b c8		 mov	 ecx, eax
  001cb	81 e1 03 00 00
	80		 and	 ecx, -2147483645	; 80000003H
  001d1	79 05		 jns	 SHORT $LN111@LoadInt_e@2
  001d3	49		 dec	 ecx
  001d4	83 c9 fc	 or	 ecx, -4			; fffffffcH
  001d7	41		 inc	 ecx
$LN111@LoadInt_e@2:
  001d8	b2 ed		 mov	 dl, -19			; ffffffedH
  001da	2a d1		 sub	 dl, cl
  001dc	30 54 05 e8	 xor	 BYTE PTR __k$[ebp+eax], dl
  001e0	40		 inc	 eax
  001e1	83 f8 0f	 cmp	 eax, 15			; 0000000fH
  001e4	7c e3		 jl	 SHORT $LL101@LoadInt_e@2

; 120  : 		return LoadInt(_k, i);

  001e6	ff 75 0c	 push	 DWORD PTR _i$[ebp]
  001e9	8d 45 e8	 lea	 eax, DWORD PTR __k$[ebp]
  001ec	50		 push	 eax
  001ed	8b ce		 mov	 ecx, esi
  001ef	ff 15 00 00 00
	00		 call	 DWORD PTR __imp_?LoadInt@ioINILoader@@QAEHPBDH@Z

; 121  : 	}

  001f5	8b 4d fc	 mov	 ecx, DWORD PTR __$ArrayPad$[ebp]
  001f8	33 cd		 xor	 ecx, ebp
  001fa	5e		 pop	 esi
  001fb	e8 00 00 00 00	 call	 @__security_check_cookie@4
  00200	c9		 leave
  00201	c2 08 00	 ret	 8
??$LoadInt_e@$0BA@@ioINILoader@@QAEHAAY0BA@$$CBDH@Z ENDP ; ioINILoader::LoadInt_e<16>
_TEXT	ENDS
PUBLIC	__$ArrayPad$
PUBLIC	??$LoadInt_e@$0BI@@ioINILoader@@QAEHAAY0BI@$$CBDH@Z ; ioINILoader::LoadInt_e<24>
; Function compile flags: /Ogsp
;	COMDAT ??$LoadInt_e@$0BI@@ioINILoader@@QAEHAAY0BI@$$CBDH@Z
_TEXT	SEGMENT
__k$ = -32						; size = 24
__$ArrayPad$ = -4					; size = 4
_k$ = 8							; size = 4
_i$ = 12						; size = 4
??$LoadInt_e@$0BI@@ioINILoader@@QAEHAAY0BI@$$CBDH@Z PROC ; ioINILoader::LoadInt_e<24>, COMDAT
; _this$ = ecx

; 118  : 	{

  00000	55		 push	 ebp
  00001	8b ec		 mov	 ebp, esp
  00003	83 ec 20	 sub	 esp, 32			; 00000020H
  00006	a1 00 00 00 00	 mov	 eax, DWORD PTR ___security_cookie
  0000b	33 c5		 xor	 eax, ebp
  0000d	89 45 fc	 mov	 DWORD PTR __$ArrayPad$[ebp], eax
  00010	8b 45 08	 mov	 eax, DWORD PTR _k$[ebp]

; 119  : 		_ENCSTR(k, _k);

  00013	8a 10		 mov	 dl, BYTE PTR [eax]
  00015	53		 push	 ebx
  00016	56		 push	 esi
  00017	8b f1		 mov	 esi, ecx
  00019	84 d2		 test	 dl, dl
  0001b	0f 84 45 02 00
	00		 je	 $LN96@LoadInt_e@3
  00021	80 f2 ed	 xor	 dl, -19			; ffffffedH
  00024	88 55 e0	 mov	 BYTE PTR __k$[ebp], dl
  00027	8a 50 01	 mov	 dl, BYTE PTR [eax+1]
  0002a	84 d2		 test	 dl, dl
  0002c	0f 84 2e 02 00
	00		 je	 $LN95@LoadInt_e@3
  00032	b3 ec		 mov	 bl, -20			; ffffffecH
  00034	32 d3		 xor	 dl, bl
  00036	88 55 e1	 mov	 BYTE PTR __k$[ebp+1], dl
  00039	8a 50 02	 mov	 dl, BYTE PTR [eax+2]
  0003c	84 d2		 test	 dl, dl
  0003e	0f 84 16 02 00
	00		 je	 $LN94@LoadInt_e@3
  00044	b1 eb		 mov	 cl, -21			; ffffffebH
  00046	32 d1		 xor	 dl, cl
  00048	88 55 e2	 mov	 BYTE PTR __k$[ebp+2], dl
  0004b	8a 50 03	 mov	 dl, BYTE PTR [eax+3]
  0004e	84 d2		 test	 dl, dl
  00050	0f 84 fe 01 00
	00		 je	 $LN93@LoadInt_e@3
  00056	80 f2 ea	 xor	 dl, -22			; ffffffeaH
  00059	88 55 e3	 mov	 BYTE PTR __k$[ebp+3], dl
  0005c	8a 50 04	 mov	 dl, BYTE PTR [eax+4]
  0005f	84 d2		 test	 dl, dl
  00061	0f 84 e7 01 00
	00		 je	 $LN92@LoadInt_e@3
  00067	80 f2 ed	 xor	 dl, -19			; ffffffedH
  0006a	88 55 e4	 mov	 BYTE PTR __k$[ebp+4], dl
  0006d	8a 50 05	 mov	 dl, BYTE PTR [eax+5]
  00070	84 d2		 test	 dl, dl
  00072	0f 84 d1 01 00
	00		 je	 $LN91@LoadInt_e@3
  00078	32 d3		 xor	 dl, bl
  0007a	88 55 e5	 mov	 BYTE PTR __k$[ebp+5], dl
  0007d	8a 50 06	 mov	 dl, BYTE PTR [eax+6]
  00080	84 d2		 test	 dl, dl
  00082	0f 84 bc 01 00
	00		 je	 $LN90@LoadInt_e@3
  00088	32 d1		 xor	 dl, cl
  0008a	88 55 e6	 mov	 BYTE PTR __k$[ebp+6], dl
  0008d	8a 50 07	 mov	 dl, BYTE PTR [eax+7]
  00090	84 d2		 test	 dl, dl
  00092	0f 84 a6 01 00
	00		 je	 $LN89@LoadInt_e@3
  00098	80 f2 ea	 xor	 dl, -22			; ffffffeaH
  0009b	88 55 e7	 mov	 BYTE PTR __k$[ebp+7], dl
  0009e	8a 50 08	 mov	 dl, BYTE PTR [eax+8]
  000a1	84 d2		 test	 dl, dl
  000a3	0f 84 8f 01 00
	00		 je	 $LN88@LoadInt_e@3
  000a9	80 f2 ed	 xor	 dl, -19			; ffffffedH
  000ac	88 55 e8	 mov	 BYTE PTR __k$[ebp+8], dl
  000af	8a 50 09	 mov	 dl, BYTE PTR [eax+9]
  000b2	84 d2		 test	 dl, dl
  000b4	0f 84 79 01 00
	00		 je	 $LN87@LoadInt_e@3
  000ba	32 d3		 xor	 dl, bl
  000bc	88 55 e9	 mov	 BYTE PTR __k$[ebp+9], dl
  000bf	8a 50 0a	 mov	 dl, BYTE PTR [eax+10]
  000c2	84 d2		 test	 dl, dl
  000c4	0f 84 64 01 00
	00		 je	 $LN86@LoadInt_e@3
  000ca	32 d1		 xor	 dl, cl
  000cc	88 55 ea	 mov	 BYTE PTR __k$[ebp+10], dl
  000cf	8a 50 0b	 mov	 dl, BYTE PTR [eax+11]
  000d2	84 d2		 test	 dl, dl
  000d4	0f 84 4e 01 00
	00		 je	 $LN85@LoadInt_e@3
  000da	80 f2 ea	 xor	 dl, -22			; ffffffeaH
  000dd	88 55 eb	 mov	 BYTE PTR __k$[ebp+11], dl
  000e0	8a 50 0c	 mov	 dl, BYTE PTR [eax+12]
  000e3	84 d2		 test	 dl, dl
  000e5	0f 84 37 01 00
	00		 je	 $LN84@LoadInt_e@3
  000eb	80 f2 ed	 xor	 dl, -19			; ffffffedH
  000ee	88 55 ec	 mov	 BYTE PTR __k$[ebp+12], dl
  000f1	8a 50 0d	 mov	 dl, BYTE PTR [eax+13]
  000f4	84 d2		 test	 dl, dl
  000f6	0f 84 21 01 00
	00		 je	 $LN83@LoadInt_e@3
  000fc	32 d3		 xor	 dl, bl
  000fe	88 55 ed	 mov	 BYTE PTR __k$[ebp+13], dl
  00101	8a 50 0e	 mov	 dl, BYTE PTR [eax+14]
  00104	84 d2		 test	 dl, dl
  00106	0f 84 0c 01 00
	00		 je	 $LN82@LoadInt_e@3
  0010c	32 d1		 xor	 dl, cl
  0010e	88 55 ee	 mov	 BYTE PTR __k$[ebp+14], dl
  00111	8a 50 0f	 mov	 dl, BYTE PTR [eax+15]
  00114	84 d2		 test	 dl, dl
  00116	0f 84 f6 00 00
	00		 je	 $LN81@LoadInt_e@3
  0011c	80 f2 ea	 xor	 dl, -22			; ffffffeaH
  0011f	88 55 ef	 mov	 BYTE PTR __k$[ebp+15], dl
  00122	8a 50 10	 mov	 dl, BYTE PTR [eax+16]
  00125	84 d2		 test	 dl, dl
  00127	0f 84 df 00 00
	00		 je	 $LN80@LoadInt_e@3
  0012d	80 f2 ed	 xor	 dl, -19			; ffffffedH
  00130	88 55 f0	 mov	 BYTE PTR __k$[ebp+16], dl
  00133	8a 50 11	 mov	 dl, BYTE PTR [eax+17]
  00136	84 d2		 test	 dl, dl
  00138	0f 84 c9 00 00
	00		 je	 $LN79@LoadInt_e@3
  0013e	32 d3		 xor	 dl, bl
  00140	88 55 f1	 mov	 BYTE PTR __k$[ebp+17], dl
  00143	8a 50 12	 mov	 dl, BYTE PTR [eax+18]
  00146	84 d2		 test	 dl, dl
  00148	0f 84 b4 00 00
	00		 je	 $LN78@LoadInt_e@3
  0014e	32 d1		 xor	 dl, cl
  00150	88 55 f2	 mov	 BYTE PTR __k$[ebp+18], dl
  00153	8a 50 13	 mov	 dl, BYTE PTR [eax+19]
  00156	84 d2		 test	 dl, dl
  00158	0f 84 9e 00 00
	00		 je	 $LN77@LoadInt_e@3
  0015e	80 f2 ea	 xor	 dl, -22			; ffffffeaH
  00161	88 55 f3	 mov	 BYTE PTR __k$[ebp+19], dl
  00164	8a 50 14	 mov	 dl, BYTE PTR [eax+20]
  00167	84 d2		 test	 dl, dl
  00169	0f 84 87 00 00
	00		 je	 $LN76@LoadInt_e@3
  0016f	80 f2 ed	 xor	 dl, -19			; ffffffedH
  00172	88 55 f4	 mov	 BYTE PTR __k$[ebp+20], dl
  00175	8a 50 15	 mov	 dl, BYTE PTR [eax+21]
  00178	84 d2		 test	 dl, dl
  0017a	74 75		 je	 SHORT $LN75@LoadInt_e@3
  0017c	32 d3		 xor	 dl, bl
  0017e	88 55 f5	 mov	 BYTE PTR __k$[ebp+21], dl
  00181	8a 50 16	 mov	 dl, BYTE PTR [eax+22]
  00184	84 d2		 test	 dl, dl
  00186	74 64		 je	 SHORT $LN74@LoadInt_e@3
  00188	32 d1		 xor	 dl, cl
  0018a	80 78 17 00	 cmp	 BYTE PTR [eax+23], 0
  0018e	88 55 f6	 mov	 BYTE PTR __k$[ebp+22], dl
  00191	0f 84 d3 00 00
	00		 je	 $LN1@LoadInt_e@3
  00197	8a 50 18	 mov	 dl, BYTE PTR [eax+24]
  0019a	84 d2		 test	 dl, dl
  0019c	74 48		 je	 SHORT $LN72@LoadInt_e@3
  0019e	80 f2 ed	 xor	 dl, -19			; ffffffedH
  001a1	88 55 f8	 mov	 BYTE PTR __k$[ebp+24], dl
  001a4	8a 50 19	 mov	 dl, BYTE PTR [eax+25]
  001a7	84 d2		 test	 dl, dl
  001a9	74 33		 je	 SHORT $LN71@LoadInt_e@3
  001ab	32 d3		 xor	 dl, bl
  001ad	88 55 f9	 mov	 BYTE PTR __k$[ebp+25], dl
  001b0	8a 50 1a	 mov	 dl, BYTE PTR [eax+26]
  001b3	84 d2		 test	 dl, dl
  001b5	74 1f		 je	 SHORT $LN70@LoadInt_e@3
  001b7	8a 40 1b	 mov	 al, BYTE PTR [eax+27]
  001ba	32 d1		 xor	 dl, cl
  001bc	88 55 fa	 mov	 BYTE PTR __k$[ebp+26], dl
  001bf	84 c0		 test	 al, al
  001c1	74 0a		 je	 SHORT $LN69@LoadInt_e@3
  001c3	34 ea		 xor	 al, -22			; ffffffeaH
  001c5	88 45 fb	 mov	 BYTE PTR __k$[ebp+27], al
  001c8	e9 9d 00 00 00	 jmp	 $LN1@LoadInt_e@3
$LN69@LoadInt_e@3:
  001cd	c6 45 fb ea	 mov	 BYTE PTR __k$[ebp+27], -22 ; ffffffeaH
  001d1	e9 94 00 00 00	 jmp	 $LN1@LoadInt_e@3
$LN70@LoadInt_e@3:
  001d6	88 4d fa	 mov	 BYTE PTR __k$[ebp+26], cl
  001d9	e9 8c 00 00 00	 jmp	 $LN1@LoadInt_e@3
$LN71@LoadInt_e@3:
  001de	88 5d f9	 mov	 BYTE PTR __k$[ebp+25], bl
  001e1	e9 84 00 00 00	 jmp	 $LN1@LoadInt_e@3
$LN72@LoadInt_e@3:
  001e6	c6 45 f8 ed	 mov	 BYTE PTR __k$[ebp+24], -19 ; ffffffedH
  001ea	eb 7e		 jmp	 SHORT $LN1@LoadInt_e@3
$LN74@LoadInt_e@3:
  001ec	88 4d f6	 mov	 BYTE PTR __k$[ebp+22], cl
  001ef	eb 79		 jmp	 SHORT $LN1@LoadInt_e@3
$LN75@LoadInt_e@3:
  001f1	88 5d f5	 mov	 BYTE PTR __k$[ebp+21], bl
  001f4	eb 74		 jmp	 SHORT $LN1@LoadInt_e@3
$LN76@LoadInt_e@3:
  001f6	c6 45 f4 ed	 mov	 BYTE PTR __k$[ebp+20], -19 ; ffffffedH
  001fa	eb 6e		 jmp	 SHORT $LN1@LoadInt_e@3
$LN77@LoadInt_e@3:
  001fc	c6 45 f3 ea	 mov	 BYTE PTR __k$[ebp+19], -22 ; ffffffeaH
  00200	eb 68		 jmp	 SHORT $LN1@LoadInt_e@3
$LN78@LoadInt_e@3:
  00202	88 4d f2	 mov	 BYTE PTR __k$[ebp+18], cl
  00205	eb 63		 jmp	 SHORT $LN1@LoadInt_e@3
$LN79@LoadInt_e@3:
  00207	88 5d f1	 mov	 BYTE PTR __k$[ebp+17], bl
  0020a	eb 5e		 jmp	 SHORT $LN1@LoadInt_e@3
$LN80@LoadInt_e@3:
  0020c	c6 45 f0 ed	 mov	 BYTE PTR __k$[ebp+16], -19 ; ffffffedH
  00210	eb 58		 jmp	 SHORT $LN1@LoadInt_e@3
$LN81@LoadInt_e@3:
  00212	c6 45 ef ea	 mov	 BYTE PTR __k$[ebp+15], -22 ; ffffffeaH
  00216	eb 52		 jmp	 SHORT $LN1@LoadInt_e@3
$LN82@LoadInt_e@3:
  00218	88 4d ee	 mov	 BYTE PTR __k$[ebp+14], cl
  0021b	eb 4d		 jmp	 SHORT $LN1@LoadInt_e@3
$LN83@LoadInt_e@3:
  0021d	88 5d ed	 mov	 BYTE PTR __k$[ebp+13], bl
  00220	eb 48		 jmp	 SHORT $LN1@LoadInt_e@3
$LN84@LoadInt_e@3:
  00222	c6 45 ec ed	 mov	 BYTE PTR __k$[ebp+12], -19 ; ffffffedH
  00226	eb 42		 jmp	 SHORT $LN1@LoadInt_e@3
$LN85@LoadInt_e@3:
  00228	c6 45 eb ea	 mov	 BYTE PTR __k$[ebp+11], -22 ; ffffffeaH
  0022c	eb 3c		 jmp	 SHORT $LN1@LoadInt_e@3
$LN86@LoadInt_e@3:
  0022e	88 4d ea	 mov	 BYTE PTR __k$[ebp+10], cl
  00231	eb 37		 jmp	 SHORT $LN1@LoadInt_e@3
$LN87@LoadInt_e@3:
  00233	88 5d e9	 mov	 BYTE PTR __k$[ebp+9], bl
  00236	eb 32		 jmp	 SHORT $LN1@LoadInt_e@3
$LN88@LoadInt_e@3:
  00238	c6 45 e8 ed	 mov	 BYTE PTR __k$[ebp+8], -19 ; ffffffedH
  0023c	eb 2c		 jmp	 SHORT $LN1@LoadInt_e@3
$LN89@LoadInt_e@3:
  0023e	c6 45 e7 ea	 mov	 BYTE PTR __k$[ebp+7], -22 ; ffffffeaH
  00242	eb 26		 jmp	 SHORT $LN1@LoadInt_e@3
$LN90@LoadInt_e@3:
  00244	88 4d e6	 mov	 BYTE PTR __k$[ebp+6], cl
  00247	eb 21		 jmp	 SHORT $LN1@LoadInt_e@3
$LN91@LoadInt_e@3:
  00249	88 5d e5	 mov	 BYTE PTR __k$[ebp+5], bl
  0024c	eb 1c		 jmp	 SHORT $LN1@LoadInt_e@3
$LN92@LoadInt_e@3:
  0024e	c6 45 e4 ed	 mov	 BYTE PTR __k$[ebp+4], -19 ; ffffffedH
  00252	eb 16		 jmp	 SHORT $LN1@LoadInt_e@3
$LN93@LoadInt_e@3:
  00254	c6 45 e3 ea	 mov	 BYTE PTR __k$[ebp+3], -22 ; ffffffeaH
  00258	eb 10		 jmp	 SHORT $LN1@LoadInt_e@3
$LN94@LoadInt_e@3:
  0025a	c6 45 e2 eb	 mov	 BYTE PTR __k$[ebp+2], -21 ; ffffffebH
  0025e	eb 0a		 jmp	 SHORT $LN1@LoadInt_e@3
$LN95@LoadInt_e@3:
  00260	c6 45 e1 ec	 mov	 BYTE PTR __k$[ebp+1], -20 ; ffffffecH
  00264	eb 04		 jmp	 SHORT $LN1@LoadInt_e@3
$LN96@LoadInt_e@3:
  00266	c6 45 e0 ed	 mov	 BYTE PTR __k$[ebp], -19	; ffffffedH
$LN1@LoadInt_e@3:
  0026a	6a 05		 push	 5
  0026c	8d 45 e0	 lea	 eax, DWORD PTR __k$[ebp]
  0026f	c6 45 f7 00	 mov	 BYTE PTR __k$[ebp+23], 0
  00273	5a		 pop	 edx
$LL104@LoadInt_e@3:
  00274	81 30 ed ec eb
	ea		 xor	 DWORD PTR [eax], -353637139 ; eaebecedH
  0027a	83 c0 04	 add	 eax, 4
  0027d	4a		 dec	 edx
  0027e	75 f4		 jne	 SHORT $LL104@LoadInt_e@3
  00280	6a 14		 push	 20			; 00000014H
  00282	58		 pop	 eax
$LL101@LoadInt_e@3:
  00283	8b c8		 mov	 ecx, eax
  00285	81 e1 03 00 00
	80		 and	 ecx, -2147483645	; 80000003H
  0028b	79 05		 jns	 SHORT $LN111@LoadInt_e@3
  0028d	49		 dec	 ecx
  0028e	83 c9 fc	 or	 ecx, -4			; fffffffcH
  00291	41		 inc	 ecx
$LN111@LoadInt_e@3:
  00292	b2 ed		 mov	 dl, -19			; ffffffedH
  00294	2a d1		 sub	 dl, cl
  00296	30 54 05 e0	 xor	 BYTE PTR __k$[ebp+eax], dl
  0029a	40		 inc	 eax
  0029b	83 f8 17	 cmp	 eax, 23			; 00000017H
  0029e	7c e3		 jl	 SHORT $LL101@LoadInt_e@3

; 120  : 		return LoadInt(_k, i);

  002a0	ff 75 0c	 push	 DWORD PTR _i$[ebp]
  002a3	8d 45 e0	 lea	 eax, DWORD PTR __k$[ebp]
  002a6	50		 push	 eax
  002a7	8b ce		 mov	 ecx, esi
  002a9	ff 15 00 00 00
	00		 call	 DWORD PTR __imp_?LoadInt@ioINILoader@@QAEHPBDH@Z

; 121  : 	}

  002af	8b 4d fc	 mov	 ecx, DWORD PTR __$ArrayPad$[ebp]
  002b2	5e		 pop	 esi
  002b3	33 cd		 xor	 ecx, ebp
  002b5	5b		 pop	 ebx
  002b6	e8 00 00 00 00	 call	 @__security_check_cookie@4
  002bb	c9		 leave
  002bc	c2 08 00	 ret	 8
??$LoadInt_e@$0BI@@ioINILoader@@QAEHAAY0BI@$$CBDH@Z ENDP ; ioINILoader::LoadInt_e<24>
_TEXT	ENDS
PUBLIC	__$ArrayPad$
PUBLIC	??$LoadInt_e@$0BN@@ioINILoader@@QAEHAAY0BN@$$CBDH@Z ; ioINILoader::LoadInt_e<29>
; Function compile flags: /Ogsp
;	COMDAT ??$LoadInt_e@$0BN@@ioINILoader@@QAEHAAY0BN@$$CBDH@Z
_TEXT	SEGMENT
__k$ = -40						; size = 29
__$ArrayPad$ = -4					; size = 4
_k$ = 8							; size = 4
_i$ = 12						; size = 4
??$LoadInt_e@$0BN@@ioINILoader@@QAEHAAY0BN@$$CBDH@Z PROC ; ioINILoader::LoadInt_e<29>, COMDAT
; _this$ = ecx

; 118  : 	{

  00000	55		 push	 ebp
  00001	8b ec		 mov	 ebp, esp
  00003	83 ec 28	 sub	 esp, 40			; 00000028H
  00006	a1 00 00 00 00	 mov	 eax, DWORD PTR ___security_cookie
  0000b	33 c5		 xor	 eax, ebp
  0000d	89 45 fc	 mov	 DWORD PTR __$ArrayPad$[ebp], eax
  00010	8b 45 08	 mov	 eax, DWORD PTR _k$[ebp]

; 119  : 		_ENCSTR(k, _k);

  00013	8a 10		 mov	 dl, BYTE PTR [eax]
  00015	53		 push	 ebx
  00016	56		 push	 esi
  00017	8b f1		 mov	 esi, ecx
  00019	84 d2		 test	 dl, dl
  0001b	0f 84 c3 02 00
	00		 je	 $LN96@LoadInt_e@4
  00021	80 f2 ed	 xor	 dl, -19			; ffffffedH
  00024	88 55 d8	 mov	 BYTE PTR __k$[ebp], dl
  00027	8a 50 01	 mov	 dl, BYTE PTR [eax+1]
  0002a	84 d2		 test	 dl, dl
  0002c	0f 84 ac 02 00
	00		 je	 $LN95@LoadInt_e@4
  00032	b1 ec		 mov	 cl, -20			; ffffffecH
  00034	32 d1		 xor	 dl, cl
  00036	88 55 d9	 mov	 BYTE PTR __k$[ebp+1], dl
  00039	8a 50 02	 mov	 dl, BYTE PTR [eax+2]
  0003c	84 d2		 test	 dl, dl
  0003e	0f 84 94 02 00
	00		 je	 $LN94@LoadInt_e@4
  00044	b3 eb		 mov	 bl, -21			; ffffffebH
  00046	32 d3		 xor	 dl, bl
  00048	88 55 da	 mov	 BYTE PTR __k$[ebp+2], dl
  0004b	8a 50 03	 mov	 dl, BYTE PTR [eax+3]
  0004e	84 d2		 test	 dl, dl
  00050	0f 84 7c 02 00
	00		 je	 $LN93@LoadInt_e@4
  00056	80 f2 ea	 xor	 dl, -22			; ffffffeaH
  00059	88 55 db	 mov	 BYTE PTR __k$[ebp+3], dl
  0005c	8a 50 04	 mov	 dl, BYTE PTR [eax+4]
  0005f	84 d2		 test	 dl, dl
  00061	0f 84 65 02 00
	00		 je	 $LN92@LoadInt_e@4
  00067	80 f2 ed	 xor	 dl, -19			; ffffffedH
  0006a	88 55 dc	 mov	 BYTE PTR __k$[ebp+4], dl
  0006d	8a 50 05	 mov	 dl, BYTE PTR [eax+5]
  00070	84 d2		 test	 dl, dl
  00072	0f 84 4f 02 00
	00		 je	 $LN91@LoadInt_e@4
  00078	32 d1		 xor	 dl, cl
  0007a	88 55 dd	 mov	 BYTE PTR __k$[ebp+5], dl
  0007d	8a 50 06	 mov	 dl, BYTE PTR [eax+6]
  00080	84 d2		 test	 dl, dl
  00082	0f 84 3a 02 00
	00		 je	 $LN90@LoadInt_e@4
  00088	32 d3		 xor	 dl, bl
  0008a	88 55 de	 mov	 BYTE PTR __k$[ebp+6], dl
  0008d	8a 50 07	 mov	 dl, BYTE PTR [eax+7]
  00090	84 d2		 test	 dl, dl
  00092	0f 84 24 02 00
	00		 je	 $LN89@LoadInt_e@4
  00098	80 f2 ea	 xor	 dl, -22			; ffffffeaH
  0009b	88 55 df	 mov	 BYTE PTR __k$[ebp+7], dl
  0009e	8a 50 08	 mov	 dl, BYTE PTR [eax+8]
  000a1	84 d2		 test	 dl, dl
  000a3	0f 84 0d 02 00
	00		 je	 $LN88@LoadInt_e@4
  000a9	80 f2 ed	 xor	 dl, -19			; ffffffedH
  000ac	88 55 e0	 mov	 BYTE PTR __k$[ebp+8], dl
  000af	8a 50 09	 mov	 dl, BYTE PTR [eax+9]
  000b2	84 d2		 test	 dl, dl
  000b4	0f 84 f7 01 00
	00		 je	 $LN87@LoadInt_e@4
  000ba	32 d1		 xor	 dl, cl
  000bc	88 55 e1	 mov	 BYTE PTR __k$[ebp+9], dl
  000bf	8a 50 0a	 mov	 dl, BYTE PTR [eax+10]
  000c2	84 d2		 test	 dl, dl
  000c4	0f 84 e2 01 00
	00		 je	 $LN86@LoadInt_e@4
  000ca	32 d3		 xor	 dl, bl
  000cc	88 55 e2	 mov	 BYTE PTR __k$[ebp+10], dl
  000cf	8a 50 0b	 mov	 dl, BYTE PTR [eax+11]
  000d2	84 d2		 test	 dl, dl
  000d4	0f 84 cc 01 00
	00		 je	 $LN85@LoadInt_e@4
  000da	80 f2 ea	 xor	 dl, -22			; ffffffeaH
  000dd	88 55 e3	 mov	 BYTE PTR __k$[ebp+11], dl
  000e0	8a 50 0c	 mov	 dl, BYTE PTR [eax+12]
  000e3	84 d2		 test	 dl, dl
  000e5	0f 84 b5 01 00
	00		 je	 $LN84@LoadInt_e@4
  000eb	80 f2 ed	 xor	 dl, -19			; ffffffedH
  000ee	88 55 e4	 mov	 BYTE PTR __k$[ebp+12], dl
  000f1	8a 50 0d	 mov	 dl, BYTE PTR [eax+13]
  000f4	84 d2		 test	 dl, dl
  000f6	0f 84 9f 01 00
	00		 je	 $LN83@LoadInt_e@4
  000fc	32 d1		 xor	 dl, cl
  000fe	88 55 e5	 mov	 BYTE PTR __k$[ebp+13], dl
  00101	8a 50 0e	 mov	 dl, BYTE PTR [eax+14]
  00104	84 d2		 test	 dl, dl
  00106	0f 84 8a 01 00
	00		 je	 $LN82@LoadInt_e@4
  0010c	32 d3		 xor	 dl, bl
  0010e	88 55 e6	 mov	 BYTE PTR __k$[ebp+14], dl
  00111	8a 50 0f	 mov	 dl, BYTE PTR [eax+15]
  00114	84 d2		 test	 dl, dl
  00116	0f 84 74 01 00
	00		 je	 $LN81@LoadInt_e@4
  0011c	80 f2 ea	 xor	 dl, -22			; ffffffeaH
  0011f	88 55 e7	 mov	 BYTE PTR __k$[ebp+15], dl
  00122	8a 50 10	 mov	 dl, BYTE PTR [eax+16]
  00125	84 d2		 test	 dl, dl
  00127	0f 84 5d 01 00
	00		 je	 $LN80@LoadInt_e@4
  0012d	80 f2 ed	 xor	 dl, -19			; ffffffedH
  00130	88 55 e8	 mov	 BYTE PTR __k$[ebp+16], dl
  00133	8a 50 11	 mov	 dl, BYTE PTR [eax+17]
  00136	84 d2		 test	 dl, dl
  00138	0f 84 47 01 00
	00		 je	 $LN79@LoadInt_e@4
  0013e	32 d1		 xor	 dl, cl
  00140	88 55 e9	 mov	 BYTE PTR __k$[ebp+17], dl
  00143	8a 50 12	 mov	 dl, BYTE PTR [eax+18]
  00146	84 d2		 test	 dl, dl
  00148	0f 84 32 01 00
	00		 je	 $LN78@LoadInt_e@4
  0014e	32 d3		 xor	 dl, bl
  00150	88 55 ea	 mov	 BYTE PTR __k$[ebp+18], dl
  00153	8a 50 13	 mov	 dl, BYTE PTR [eax+19]
  00156	84 d2		 test	 dl, dl
  00158	0f 84 1c 01 00
	00		 je	 $LN77@LoadInt_e@4
  0015e	80 f2 ea	 xor	 dl, -22			; ffffffeaH
  00161	88 55 eb	 mov	 BYTE PTR __k$[ebp+19], dl
  00164	8a 50 14	 mov	 dl, BYTE PTR [eax+20]
  00167	84 d2		 test	 dl, dl
  00169	0f 84 05 01 00
	00		 je	 $LN76@LoadInt_e@4
  0016f	80 f2 ed	 xor	 dl, -19			; ffffffedH
  00172	88 55 ec	 mov	 BYTE PTR __k$[ebp+20], dl
  00175	8a 50 15	 mov	 dl, BYTE PTR [eax+21]
  00178	84 d2		 test	 dl, dl
  0017a	0f 84 ef 00 00
	00		 je	 $LN75@LoadInt_e@4
  00180	32 d1		 xor	 dl, cl
  00182	88 55 ed	 mov	 BYTE PTR __k$[ebp+21], dl
  00185	8a 50 16	 mov	 dl, BYTE PTR [eax+22]
  00188	84 d2		 test	 dl, dl
  0018a	0f 84 da 00 00
	00		 je	 $LN74@LoadInt_e@4
  00190	32 d3		 xor	 dl, bl
  00192	88 55 ee	 mov	 BYTE PTR __k$[ebp+22], dl
  00195	8a 50 17	 mov	 dl, BYTE PTR [eax+23]
  00198	84 d2		 test	 dl, dl
  0019a	0f 84 c4 00 00
	00		 je	 $LN73@LoadInt_e@4
  001a0	80 f2 ea	 xor	 dl, -22			; ffffffeaH
  001a3	88 55 ef	 mov	 BYTE PTR __k$[ebp+23], dl
  001a6	8a 50 18	 mov	 dl, BYTE PTR [eax+24]
  001a9	84 d2		 test	 dl, dl
  001ab	0f 84 aa 00 00
	00		 je	 $LN72@LoadInt_e@4
  001b1	80 f2 ed	 xor	 dl, -19			; ffffffedH
  001b4	88 55 f0	 mov	 BYTE PTR __k$[ebp+24], dl
  001b7	8a 50 19	 mov	 dl, BYTE PTR [eax+25]
  001ba	84 d2		 test	 dl, dl
  001bc	0f 84 91 00 00
	00		 je	 $LN71@LoadInt_e@4
  001c2	32 d1		 xor	 dl, cl
  001c4	88 55 f1	 mov	 BYTE PTR __k$[ebp+25], dl
  001c7	8a 50 1a	 mov	 dl, BYTE PTR [eax+26]
  001ca	84 d2		 test	 dl, dl
  001cc	74 7d		 je	 SHORT $LN70@LoadInt_e@4
  001ce	32 d3		 xor	 dl, bl
  001d0	88 55 f2	 mov	 BYTE PTR __k$[ebp+26], dl
  001d3	8a 50 1b	 mov	 dl, BYTE PTR [eax+27]
  001d6	84 d2		 test	 dl, dl
  001d8	74 68		 je	 SHORT $LN69@LoadInt_e@4
  001da	80 f2 ea	 xor	 dl, -22			; ffffffeaH
  001dd	80 78 1c 00	 cmp	 BYTE PTR [eax+28], 0
  001e1	88 55 f3	 mov	 BYTE PTR __k$[ebp+27], dl
  001e4	0f 84 fe 00 00
	00		 je	 $LN1@LoadInt_e@4
  001ea	8a 50 1d	 mov	 dl, BYTE PTR [eax+29]
  001ed	84 d2		 test	 dl, dl
  001ef	74 49		 je	 SHORT $LN67@LoadInt_e@4
  001f1	32 d1		 xor	 dl, cl
  001f3	88 55 f5	 mov	 BYTE PTR __k$[ebp+29], dl
  001f6	8a 50 1e	 mov	 dl, BYTE PTR [eax+30]
  001f9	84 d2		 test	 dl, dl
  001fb	74 35		 je	 SHORT $LN66@LoadInt_e@4
  001fd	32 d3		 xor	 dl, bl
  001ff	88 55 f6	 mov	 BYTE PTR __k$[ebp+30], dl
  00202	8a 50 1f	 mov	 dl, BYTE PTR [eax+31]
  00205	84 d2		 test	 dl, dl
  00207	74 20		 je	 SHORT $LN65@LoadInt_e@4
  00209	8a 40 20	 mov	 al, BYTE PTR [eax+32]
  0020c	80 f2 ea	 xor	 dl, -22			; ffffffeaH
  0020f	88 55 f7	 mov	 BYTE PTR __k$[ebp+31], dl
  00212	84 c0		 test	 al, al
  00214	74 0a		 je	 SHORT $LN64@LoadInt_e@4
  00216	34 ed		 xor	 al, -19			; ffffffedH
  00218	88 45 f8	 mov	 BYTE PTR __k$[ebp+32], al
  0021b	e9 c8 00 00 00	 jmp	 $LN1@LoadInt_e@4
$LN64@LoadInt_e@4:
  00220	c6 45 f8 ed	 mov	 BYTE PTR __k$[ebp+32], -19 ; ffffffedH
  00224	e9 bf 00 00 00	 jmp	 $LN1@LoadInt_e@4
$LN65@LoadInt_e@4:
  00229	c6 45 f7 ea	 mov	 BYTE PTR __k$[ebp+31], -22 ; ffffffeaH
  0022d	e9 b6 00 00 00	 jmp	 $LN1@LoadInt_e@4
$LN66@LoadInt_e@4:
  00232	88 5d f6	 mov	 BYTE PTR __k$[ebp+30], bl
  00235	e9 ae 00 00 00	 jmp	 $LN1@LoadInt_e@4
$LN67@LoadInt_e@4:
  0023a	88 4d f5	 mov	 BYTE PTR __k$[ebp+29], cl
  0023d	e9 a6 00 00 00	 jmp	 $LN1@LoadInt_e@4
$LN69@LoadInt_e@4:
  00242	c6 45 f3 ea	 mov	 BYTE PTR __k$[ebp+27], -22 ; ffffffeaH
  00246	e9 9d 00 00 00	 jmp	 $LN1@LoadInt_e@4
$LN70@LoadInt_e@4:
  0024b	88 5d f2	 mov	 BYTE PTR __k$[ebp+26], bl
  0024e	e9 95 00 00 00	 jmp	 $LN1@LoadInt_e@4
$LN71@LoadInt_e@4:
  00253	88 4d f1	 mov	 BYTE PTR __k$[ebp+25], cl
  00256	e9 8d 00 00 00	 jmp	 $LN1@LoadInt_e@4
$LN72@LoadInt_e@4:
  0025b	c6 45 f0 ed	 mov	 BYTE PTR __k$[ebp+24], -19 ; ffffffedH
  0025f	e9 84 00 00 00	 jmp	 $LN1@LoadInt_e@4
$LN73@LoadInt_e@4:
  00264	c6 45 ef ea	 mov	 BYTE PTR __k$[ebp+23], -22 ; ffffffeaH
  00268	eb 7e		 jmp	 SHORT $LN1@LoadInt_e@4
$LN74@LoadInt_e@4:
  0026a	88 5d ee	 mov	 BYTE PTR __k$[ebp+22], bl
  0026d	eb 79		 jmp	 SHORT $LN1@LoadInt_e@4
$LN75@LoadInt_e@4:
  0026f	88 4d ed	 mov	 BYTE PTR __k$[ebp+21], cl
  00272	eb 74		 jmp	 SHORT $LN1@LoadInt_e@4
$LN76@LoadInt_e@4:
  00274	c6 45 ec ed	 mov	 BYTE PTR __k$[ebp+20], -19 ; ffffffedH
  00278	eb 6e		 jmp	 SHORT $LN1@LoadInt_e@4
$LN77@LoadInt_e@4:
  0027a	c6 45 eb ea	 mov	 BYTE PTR __k$[ebp+19], -22 ; ffffffeaH
  0027e	eb 68		 jmp	 SHORT $LN1@LoadInt_e@4
$LN78@LoadInt_e@4:
  00280	88 5d ea	 mov	 BYTE PTR __k$[ebp+18], bl
  00283	eb 63		 jmp	 SHORT $LN1@LoadInt_e@4
$LN79@LoadInt_e@4:
  00285	88 4d e9	 mov	 BYTE PTR __k$[ebp+17], cl
  00288	eb 5e		 jmp	 SHORT $LN1@LoadInt_e@4
$LN80@LoadInt_e@4:
  0028a	c6 45 e8 ed	 mov	 BYTE PTR __k$[ebp+16], -19 ; ffffffedH
  0028e	eb 58		 jmp	 SHORT $LN1@LoadInt_e@4
$LN81@LoadInt_e@4:
  00290	c6 45 e7 ea	 mov	 BYTE PTR __k$[ebp+15], -22 ; ffffffeaH
  00294	eb 52		 jmp	 SHORT $LN1@LoadInt_e@4
$LN82@LoadInt_e@4:
  00296	88 5d e6	 mov	 BYTE PTR __k$[ebp+14], bl
  00299	eb 4d		 jmp	 SHORT $LN1@LoadInt_e@4
$LN83@LoadInt_e@4:
  0029b	88 4d e5	 mov	 BYTE PTR __k$[ebp+13], cl
  0029e	eb 48		 jmp	 SHORT $LN1@LoadInt_e@4
$LN84@LoadInt_e@4:
  002a0	c6 45 e4 ed	 mov	 BYTE PTR __k$[ebp+12], -19 ; ffffffedH
  002a4	eb 42		 jmp	 SHORT $LN1@LoadInt_e@4
$LN85@LoadInt_e@4:
  002a6	c6 45 e3 ea	 mov	 BYTE PTR __k$[ebp+11], -22 ; ffffffeaH
  002aa	eb 3c		 jmp	 SHORT $LN1@LoadInt_e@4
$LN86@LoadInt_e@4:
  002ac	88 5d e2	 mov	 BYTE PTR __k$[ebp+10], bl
  002af	eb 37		 jmp	 SHORT $LN1@LoadInt_e@4
$LN87@LoadInt_e@4:
  002b1	88 4d e1	 mov	 BYTE PTR __k$[ebp+9], cl
  002b4	eb 32		 jmp	 SHORT $LN1@LoadInt_e@4
$LN88@LoadInt_e@4:
  002b6	c6 45 e0 ed	 mov	 BYTE PTR __k$[ebp+8], -19 ; ffffffedH
  002ba	eb 2c		 jmp	 SHORT $LN1@LoadInt_e@4
$LN89@LoadInt_e@4:
  002bc	c6 45 df ea	 mov	 BYTE PTR __k$[ebp+7], -22 ; ffffffeaH
  002c0	eb 26		 jmp	 SHORT $LN1@LoadInt_e@4
$LN90@LoadInt_e@4:
  002c2	88 5d de	 mov	 BYTE PTR __k$[ebp+6], bl
  002c5	eb 21		 jmp	 SHORT $LN1@LoadInt_e@4
$LN91@LoadInt_e@4:
  002c7	88 4d dd	 mov	 BYTE PTR __k$[ebp+5], cl
  002ca	eb 1c		 jmp	 SHORT $LN1@LoadInt_e@4
$LN92@LoadInt_e@4:
  002cc	c6 45 dc ed	 mov	 BYTE PTR __k$[ebp+4], -19 ; ffffffedH
  002d0	eb 16		 jmp	 SHORT $LN1@LoadInt_e@4
$LN93@LoadInt_e@4:
  002d2	c6 45 db ea	 mov	 BYTE PTR __k$[ebp+3], -22 ; ffffffeaH
  002d6	eb 10		 jmp	 SHORT $LN1@LoadInt_e@4
$LN94@LoadInt_e@4:
  002d8	c6 45 da eb	 mov	 BYTE PTR __k$[ebp+2], -21 ; ffffffebH
  002dc	eb 0a		 jmp	 SHORT $LN1@LoadInt_e@4
$LN95@LoadInt_e@4:
  002de	c6 45 d9 ec	 mov	 BYTE PTR __k$[ebp+1], -20 ; ffffffecH
  002e2	eb 04		 jmp	 SHORT $LN1@LoadInt_e@4
$LN96@LoadInt_e@4:
  002e4	c6 45 d8 ed	 mov	 BYTE PTR __k$[ebp], -19	; ffffffedH
$LN1@LoadInt_e@4:
  002e8	6a 07		 push	 7
  002ea	8d 45 d8	 lea	 eax, DWORD PTR __k$[ebp]
  002ed	c6 45 f4 00	 mov	 BYTE PTR __k$[ebp+28], 0
  002f1	5a		 pop	 edx
$LL104@LoadInt_e@4:
  002f2	81 30 ed ec eb
	ea		 xor	 DWORD PTR [eax], -353637139 ; eaebecedH
  002f8	83 c0 04	 add	 eax, 4
  002fb	4a		 dec	 edx
  002fc	75 f4		 jne	 SHORT $LL104@LoadInt_e@4

; 120  : 		return LoadInt(_k, i);

  002fe	ff 75 0c	 push	 DWORD PTR _i$[ebp]
  00301	8d 45 d8	 lea	 eax, DWORD PTR __k$[ebp]
  00304	50		 push	 eax
  00305	8b ce		 mov	 ecx, esi
  00307	ff 15 00 00 00
	00		 call	 DWORD PTR __imp_?LoadInt@ioINILoader@@QAEHPBDH@Z

; 121  : 	}

  0030d	8b 4d fc	 mov	 ecx, DWORD PTR __$ArrayPad$[ebp]
  00310	5e		 pop	 esi
  00311	33 cd		 xor	 ecx, ebp
  00313	5b		 pop	 ebx
  00314	e8 00 00 00 00	 call	 @__security_check_cookie@4
  00319	c9		 leave
  0031a	c2 08 00	 ret	 8
??$LoadInt_e@$0BN@@ioINILoader@@QAEHAAY0BN@$$CBDH@Z ENDP ; ioINILoader::LoadInt_e<29>
_TEXT	ENDS
PUBLIC	__$ArrayPad$
PUBLIC	??$LoadInt_e@$0BD@@ioINILoader@@QAEHAAY0BD@$$CBDH@Z ; ioINILoader::LoadInt_e<19>
; Function compile flags: /Ogsp
;	COMDAT ??$LoadInt_e@$0BD@@ioINILoader@@QAEHAAY0BD@$$CBDH@Z
_TEXT	SEGMENT
__k$ = -28						; size = 19
__$ArrayPad$ = -4					; size = 4
_k$ = 8							; size = 4
_i$ = 12						; size = 4
??$LoadInt_e@$0BD@@ioINILoader@@QAEHAAY0BD@$$CBDH@Z PROC ; ioINILoader::LoadInt_e<19>, COMDAT
; _this$ = ecx

; 118  : 	{

  00000	55		 push	 ebp
  00001	8b ec		 mov	 ebp, esp
  00003	83 ec 1c	 sub	 esp, 28			; 0000001cH
  00006	a1 00 00 00 00	 mov	 eax, DWORD PTR ___security_cookie
  0000b	33 c5		 xor	 eax, ebp
  0000d	89 45 fc	 mov	 DWORD PTR __$ArrayPad$[ebp], eax
  00010	8b 45 08	 mov	 eax, DWORD PTR _k$[ebp]

; 119  : 		_ENCSTR(k, _k);

  00013	8a 10		 mov	 dl, BYTE PTR [eax]
  00015	56		 push	 esi
  00016	8b f1		 mov	 esi, ecx
  00018	84 d2		 test	 dl, dl
  0001a	0f 84 cf 01 00
	00		 je	 $LN96@LoadInt_e@5
  00020	80 f2 ed	 xor	 dl, -19			; ffffffedH
  00023	88 55 e4	 mov	 BYTE PTR __k$[ebp], dl
  00026	8a 50 01	 mov	 dl, BYTE PTR [eax+1]
  00029	84 d2		 test	 dl, dl
  0002b	0f 84 b8 01 00
	00		 je	 $LN95@LoadInt_e@5
  00031	b1 ec		 mov	 cl, -20			; ffffffecH
  00033	32 d1		 xor	 dl, cl
  00035	88 55 e5	 mov	 BYTE PTR __k$[ebp+1], dl
  00038	8a 50 02	 mov	 dl, BYTE PTR [eax+2]
  0003b	84 d2		 test	 dl, dl
  0003d	0f 84 a0 01 00
	00		 je	 $LN94@LoadInt_e@5
  00043	80 f2 eb	 xor	 dl, -21			; ffffffebH
  00046	88 55 e6	 mov	 BYTE PTR __k$[ebp+2], dl
  00049	8a 50 03	 mov	 dl, BYTE PTR [eax+3]
  0004c	84 d2		 test	 dl, dl
  0004e	0f 84 89 01 00
	00		 je	 $LN93@LoadInt_e@5
  00054	80 f2 ea	 xor	 dl, -22			; ffffffeaH
  00057	88 55 e7	 mov	 BYTE PTR __k$[ebp+3], dl
  0005a	8a 50 04	 mov	 dl, BYTE PTR [eax+4]
  0005d	84 d2		 test	 dl, dl
  0005f	0f 84 72 01 00
	00		 je	 $LN92@LoadInt_e@5
  00065	80 f2 ed	 xor	 dl, -19			; ffffffedH
  00068	88 55 e8	 mov	 BYTE PTR __k$[ebp+4], dl
  0006b	8a 50 05	 mov	 dl, BYTE PTR [eax+5]
  0006e	84 d2		 test	 dl, dl
  00070	0f 84 5c 01 00
	00		 je	 $LN91@LoadInt_e@5
  00076	32 d1		 xor	 dl, cl
  00078	88 55 e9	 mov	 BYTE PTR __k$[ebp+5], dl
  0007b	8a 50 06	 mov	 dl, BYTE PTR [eax+6]
  0007e	84 d2		 test	 dl, dl
  00080	0f 84 46 01 00
	00		 je	 $LN90@LoadInt_e@5
  00086	80 f2 eb	 xor	 dl, -21			; ffffffebH
  00089	88 55 ea	 mov	 BYTE PTR __k$[ebp+6], dl
  0008c	8a 50 07	 mov	 dl, BYTE PTR [eax+7]
  0008f	84 d2		 test	 dl, dl
  00091	0f 84 2f 01 00
	00		 je	 $LN89@LoadInt_e@5
  00097	80 f2 ea	 xor	 dl, -22			; ffffffeaH
  0009a	88 55 eb	 mov	 BYTE PTR __k$[ebp+7], dl
  0009d	8a 50 08	 mov	 dl, BYTE PTR [eax+8]
  000a0	84 d2		 test	 dl, dl
  000a2	0f 84 18 01 00
	00		 je	 $LN88@LoadInt_e@5
  000a8	80 f2 ed	 xor	 dl, -19			; ffffffedH
  000ab	88 55 ec	 mov	 BYTE PTR __k$[ebp+8], dl
  000ae	8a 50 09	 mov	 dl, BYTE PTR [eax+9]
  000b1	84 d2		 test	 dl, dl
  000b3	0f 84 02 01 00
	00		 je	 $LN87@LoadInt_e@5
  000b9	32 d1		 xor	 dl, cl
  000bb	88 55 ed	 mov	 BYTE PTR __k$[ebp+9], dl
  000be	8a 50 0a	 mov	 dl, BYTE PTR [eax+10]
  000c1	84 d2		 test	 dl, dl
  000c3	0f 84 ec 00 00
	00		 je	 $LN86@LoadInt_e@5
  000c9	80 f2 eb	 xor	 dl, -21			; ffffffebH
  000cc	88 55 ee	 mov	 BYTE PTR __k$[ebp+10], dl
  000cf	8a 50 0b	 mov	 dl, BYTE PTR [eax+11]
  000d2	84 d2		 test	 dl, dl
  000d4	0f 84 d5 00 00
	00		 je	 $LN85@LoadInt_e@5
  000da	80 f2 ea	 xor	 dl, -22			; ffffffeaH
  000dd	88 55 ef	 mov	 BYTE PTR __k$[ebp+11], dl
  000e0	8a 50 0c	 mov	 dl, BYTE PTR [eax+12]
  000e3	84 d2		 test	 dl, dl
  000e5	0f 84 be 00 00
	00		 je	 $LN84@LoadInt_e@5
  000eb	80 f2 ed	 xor	 dl, -19			; ffffffedH
  000ee	88 55 f0	 mov	 BYTE PTR __k$[ebp+12], dl
  000f1	8a 50 0d	 mov	 dl, BYTE PTR [eax+13]
  000f4	84 d2		 test	 dl, dl
  000f6	0f 84 a8 00 00
	00		 je	 $LN83@LoadInt_e@5
  000fc	32 d1		 xor	 dl, cl
  000fe	88 55 f1	 mov	 BYTE PTR __k$[ebp+13], dl
  00101	8a 50 0e	 mov	 dl, BYTE PTR [eax+14]
  00104	84 d2		 test	 dl, dl
  00106	0f 84 92 00 00
	00		 je	 $LN82@LoadInt_e@5
  0010c	80 f2 eb	 xor	 dl, -21			; ffffffebH
  0010f	88 55 f2	 mov	 BYTE PTR __k$[ebp+14], dl
  00112	8a 50 0f	 mov	 dl, BYTE PTR [eax+15]
  00115	84 d2		 test	 dl, dl
  00117	74 7f		 je	 SHORT $LN81@LoadInt_e@5
  00119	80 f2 ea	 xor	 dl, -22			; ffffffeaH
  0011c	88 55 f3	 mov	 BYTE PTR __k$[ebp+15], dl
  0011f	8a 50 10	 mov	 dl, BYTE PTR [eax+16]
  00122	84 d2		 test	 dl, dl
  00124	74 6c		 je	 SHORT $LN80@LoadInt_e@5
  00126	80 f2 ed	 xor	 dl, -19			; ffffffedH
  00129	88 55 f4	 mov	 BYTE PTR __k$[ebp+16], dl
  0012c	8a 50 11	 mov	 dl, BYTE PTR [eax+17]
  0012f	84 d2		 test	 dl, dl
  00131	74 5a		 je	 SHORT $LN79@LoadInt_e@5
  00133	32 d1		 xor	 dl, cl
  00135	80 78 12 00	 cmp	 BYTE PTR [eax+18], 0
  00139	88 55 f5	 mov	 BYTE PTR __k$[ebp+17], dl
  0013c	0f 84 b1 00 00
	00		 je	 $LN1@LoadInt_e@5
  00142	8a 50 13	 mov	 dl, BYTE PTR [eax+19]
  00145	84 d2		 test	 dl, dl
  00147	74 3e		 je	 SHORT $LN77@LoadInt_e@5
  00149	80 f2 ea	 xor	 dl, -22			; ffffffeaH
  0014c	88 55 f7	 mov	 BYTE PTR __k$[ebp+19], dl
  0014f	8a 50 14	 mov	 dl, BYTE PTR [eax+20]
  00152	84 d2		 test	 dl, dl
  00154	74 2b		 je	 SHORT $LN76@LoadInt_e@5
  00156	80 f2 ed	 xor	 dl, -19			; ffffffedH
  00159	88 55 f8	 mov	 BYTE PTR __k$[ebp+20], dl
  0015c	8a 50 15	 mov	 dl, BYTE PTR [eax+21]
  0015f	84 d2		 test	 dl, dl
  00161	74 19		 je	 SHORT $LN75@LoadInt_e@5
  00163	8a 40 16	 mov	 al, BYTE PTR [eax+22]
  00166	32 d1		 xor	 dl, cl
  00168	88 55 f9	 mov	 BYTE PTR __k$[ebp+21], dl
  0016b	84 c0		 test	 al, al
  0016d	74 07		 je	 SHORT $LN74@LoadInt_e@5
  0016f	34 eb		 xor	 al, -21			; ffffffebH
  00171	88 45 fa	 mov	 BYTE PTR __k$[ebp+22], al
  00174	eb 7d		 jmp	 SHORT $LN1@LoadInt_e@5
$LN74@LoadInt_e@5:
  00176	c6 45 fa eb	 mov	 BYTE PTR __k$[ebp+22], -21 ; ffffffebH
  0017a	eb 77		 jmp	 SHORT $LN1@LoadInt_e@5
$LN75@LoadInt_e@5:
  0017c	88 4d f9	 mov	 BYTE PTR __k$[ebp+21], cl
  0017f	eb 72		 jmp	 SHORT $LN1@LoadInt_e@5
$LN76@LoadInt_e@5:
  00181	c6 45 f8 ed	 mov	 BYTE PTR __k$[ebp+20], -19 ; ffffffedH
  00185	eb 6c		 jmp	 SHORT $LN1@LoadInt_e@5
$LN77@LoadInt_e@5:
  00187	c6 45 f7 ea	 mov	 BYTE PTR __k$[ebp+19], -22 ; ffffffeaH
  0018b	eb 66		 jmp	 SHORT $LN1@LoadInt_e@5
$LN79@LoadInt_e@5:
  0018d	88 4d f5	 mov	 BYTE PTR __k$[ebp+17], cl
  00190	eb 61		 jmp	 SHORT $LN1@LoadInt_e@5
$LN80@LoadInt_e@5:
  00192	c6 45 f4 ed	 mov	 BYTE PTR __k$[ebp+16], -19 ; ffffffedH
  00196	eb 5b		 jmp	 SHORT $LN1@LoadInt_e@5
$LN81@LoadInt_e@5:
  00198	c6 45 f3 ea	 mov	 BYTE PTR __k$[ebp+15], -22 ; ffffffeaH
  0019c	eb 55		 jmp	 SHORT $LN1@LoadInt_e@5
$LN82@LoadInt_e@5:
  0019e	c6 45 f2 eb	 mov	 BYTE PTR __k$[ebp+14], -21 ; ffffffebH
  001a2	eb 4f		 jmp	 SHORT $LN1@LoadInt_e@5
$LN83@LoadInt_e@5:
  001a4	88 4d f1	 mov	 BYTE PTR __k$[ebp+13], cl
  001a7	eb 4a		 jmp	 SHORT $LN1@LoadInt_e@5
$LN84@LoadInt_e@5:
  001a9	c6 45 f0 ed	 mov	 BYTE PTR __k$[ebp+12], -19 ; ffffffedH
  001ad	eb 44		 jmp	 SHORT $LN1@LoadInt_e@5
$LN85@LoadInt_e@5:
  001af	c6 45 ef ea	 mov	 BYTE PTR __k$[ebp+11], -22 ; ffffffeaH
  001b3	eb 3e		 jmp	 SHORT $LN1@LoadInt_e@5
$LN86@LoadInt_e@5:
  001b5	c6 45 ee eb	 mov	 BYTE PTR __k$[ebp+10], -21 ; ffffffebH
  001b9	eb 38		 jmp	 SHORT $LN1@LoadInt_e@5
$LN87@LoadInt_e@5:
  001bb	88 4d ed	 mov	 BYTE PTR __k$[ebp+9], cl
  001be	eb 33		 jmp	 SHORT $LN1@LoadInt_e@5
$LN88@LoadInt_e@5:
  001c0	c6 45 ec ed	 mov	 BYTE PTR __k$[ebp+8], -19 ; ffffffedH
  001c4	eb 2d		 jmp	 SHORT $LN1@LoadInt_e@5
$LN89@LoadInt_e@5:
  001c6	c6 45 eb ea	 mov	 BYTE PTR __k$[ebp+7], -22 ; ffffffeaH
  001ca	eb 27		 jmp	 SHORT $LN1@LoadInt_e@5
$LN90@LoadInt_e@5:
  001cc	c6 45 ea eb	 mov	 BYTE PTR __k$[ebp+6], -21 ; ffffffebH
  001d0	eb 21		 jmp	 SHORT $LN1@LoadInt_e@5
$LN91@LoadInt_e@5:
  001d2	88 4d e9	 mov	 BYTE PTR __k$[ebp+5], cl
  001d5	eb 1c		 jmp	 SHORT $LN1@LoadInt_e@5
$LN92@LoadInt_e@5:
  001d7	c6 45 e8 ed	 mov	 BYTE PTR __k$[ebp+4], -19 ; ffffffedH
  001db	eb 16		 jmp	 SHORT $LN1@LoadInt_e@5
$LN93@LoadInt_e@5:
  001dd	c6 45 e7 ea	 mov	 BYTE PTR __k$[ebp+3], -22 ; ffffffeaH
  001e1	eb 10		 jmp	 SHORT $LN1@LoadInt_e@5
$LN94@LoadInt_e@5:
  001e3	c6 45 e6 eb	 mov	 BYTE PTR __k$[ebp+2], -21 ; ffffffebH
  001e7	eb 0a		 jmp	 SHORT $LN1@LoadInt_e@5
$LN95@LoadInt_e@5:
  001e9	c6 45 e5 ec	 mov	 BYTE PTR __k$[ebp+1], -20 ; ffffffecH
  001ed	eb 04		 jmp	 SHORT $LN1@LoadInt_e@5
$LN96@LoadInt_e@5:
  001ef	c6 45 e4 ed	 mov	 BYTE PTR __k$[ebp], -19	; ffffffedH
$LN1@LoadInt_e@5:
  001f3	6a 04		 push	 4
  001f5	8d 45 e4	 lea	 eax, DWORD PTR __k$[ebp]
  001f8	c6 45 f6 00	 mov	 BYTE PTR __k$[ebp+18], 0
  001fc	5a		 pop	 edx
$LL104@LoadInt_e@5:
  001fd	81 30 ed ec eb
	ea		 xor	 DWORD PTR [eax], -353637139 ; eaebecedH
  00203	83 c0 04	 add	 eax, 4
  00206	4a		 dec	 edx
  00207	75 f4		 jne	 SHORT $LL104@LoadInt_e@5
  00209	6a 10		 push	 16			; 00000010H
  0020b	58		 pop	 eax
$LL101@LoadInt_e@5:
  0020c	8b c8		 mov	 ecx, eax
  0020e	81 e1 03 00 00
	80		 and	 ecx, -2147483645	; 80000003H
  00214	79 05		 jns	 SHORT $LN111@LoadInt_e@5
  00216	49		 dec	 ecx
  00217	83 c9 fc	 or	 ecx, -4			; fffffffcH
  0021a	41		 inc	 ecx
$LN111@LoadInt_e@5:
  0021b	b2 ed		 mov	 dl, -19			; ffffffedH
  0021d	2a d1		 sub	 dl, cl
  0021f	30 54 05 e4	 xor	 BYTE PTR __k$[ebp+eax], dl
  00223	40		 inc	 eax
  00224	83 f8 12	 cmp	 eax, 18			; 00000012H
  00227	7c e3		 jl	 SHORT $LL101@LoadInt_e@5

; 120  : 		return LoadInt(_k, i);

  00229	ff 75 0c	 push	 DWORD PTR _i$[ebp]
  0022c	8d 45 e4	 lea	 eax, DWORD PTR __k$[ebp]
  0022f	50		 push	 eax
  00230	8b ce		 mov	 ecx, esi
  00232	ff 15 00 00 00
	00		 call	 DWORD PTR __imp_?LoadInt@ioINILoader@@QAEHPBDH@Z

; 121  : 	}

  00238	8b 4d fc	 mov	 ecx, DWORD PTR __$ArrayPad$[ebp]
  0023b	33 cd		 xor	 ecx, ebp
  0023d	5e		 pop	 esi
  0023e	e8 00 00 00 00	 call	 @__security_check_cookie@4
  00243	c9		 leave
  00244	c2 08 00	 ret	 8
??$LoadInt_e@$0BD@@ioINILoader@@QAEHAAY0BD@$$CBDH@Z ENDP ; ioINILoader::LoadInt_e<19>
_TEXT	ENDS
PUBLIC	__$ArrayPad$
PUBLIC	??$LoadBool_e@$0BE@@ioINILoader@@QAE_NAAY0BE@$$CBD_N@Z ; ioINILoader::LoadBool_e<20>
; Function compile flags: /Ogsp
;	COMDAT ??$LoadBool_e@$0BE@@ioINILoader@@QAE_NAAY0BE@$$CBD_N@Z
_TEXT	SEGMENT
__k$ = -28						; size = 20
__$ArrayPad$ = -4					; size = 4
_k$ = 8							; size = 4
_b$ = 12						; size = 1
??$LoadBool_e@$0BE@@ioINILoader@@QAE_NAAY0BE@$$CBD_N@Z PROC ; ioINILoader::LoadBool_e<20>, COMDAT
; _this$ = ecx

; 101  : 	{

  00000	55		 push	 ebp
  00001	8b ec		 mov	 ebp, esp
  00003	83 ec 1c	 sub	 esp, 28			; 0000001cH
  00006	a1 00 00 00 00	 mov	 eax, DWORD PTR ___security_cookie
  0000b	33 c5		 xor	 eax, ebp
  0000d	89 45 fc	 mov	 DWORD PTR __$ArrayPad$[ebp], eax
  00010	8b 45 08	 mov	 eax, DWORD PTR _k$[ebp]

; 102  : 		_ENCSTR(k, _k);

  00013	8a 10		 mov	 dl, BYTE PTR [eax]
  00015	53		 push	 ebx
  00016	56		 push	 esi
  00017	8b f1		 mov	 esi, ecx
  00019	84 d2		 test	 dl, dl
  0001b	0f 84 dd 01 00
	00		 je	 $LN96@LoadBool_e@2
  00021	80 f2 ed	 xor	 dl, -19			; ffffffedH
  00024	88 55 e4	 mov	 BYTE PTR __k$[ebp], dl
  00027	8a 50 01	 mov	 dl, BYTE PTR [eax+1]
  0002a	84 d2		 test	 dl, dl
  0002c	0f 84 c6 01 00
	00		 je	 $LN95@LoadBool_e@2
  00032	b3 ec		 mov	 bl, -20			; ffffffecH
  00034	32 d3		 xor	 dl, bl
  00036	88 55 e5	 mov	 BYTE PTR __k$[ebp+1], dl
  00039	8a 50 02	 mov	 dl, BYTE PTR [eax+2]
  0003c	84 d2		 test	 dl, dl
  0003e	0f 84 ae 01 00
	00		 je	 $LN94@LoadBool_e@2
  00044	b1 eb		 mov	 cl, -21			; ffffffebH
  00046	32 d1		 xor	 dl, cl
  00048	88 55 e6	 mov	 BYTE PTR __k$[ebp+2], dl
  0004b	8a 50 03	 mov	 dl, BYTE PTR [eax+3]
  0004e	84 d2		 test	 dl, dl
  00050	0f 84 96 01 00
	00		 je	 $LN93@LoadBool_e@2
  00056	80 f2 ea	 xor	 dl, -22			; ffffffeaH
  00059	88 55 e7	 mov	 BYTE PTR __k$[ebp+3], dl
  0005c	8a 50 04	 mov	 dl, BYTE PTR [eax+4]
  0005f	84 d2		 test	 dl, dl
  00061	0f 84 7f 01 00
	00		 je	 $LN92@LoadBool_e@2
  00067	80 f2 ed	 xor	 dl, -19			; ffffffedH
  0006a	88 55 e8	 mov	 BYTE PTR __k$[ebp+4], dl
  0006d	8a 50 05	 mov	 dl, BYTE PTR [eax+5]
  00070	84 d2		 test	 dl, dl
  00072	0f 84 69 01 00
	00		 je	 $LN91@LoadBool_e@2
  00078	32 d3		 xor	 dl, bl
  0007a	88 55 e9	 mov	 BYTE PTR __k$[ebp+5], dl
  0007d	8a 50 06	 mov	 dl, BYTE PTR [eax+6]
  00080	84 d2		 test	 dl, dl
  00082	0f 84 54 01 00
	00		 je	 $LN90@LoadBool_e@2
  00088	32 d1		 xor	 dl, cl
  0008a	88 55 ea	 mov	 BYTE PTR __k$[ebp+6], dl
  0008d	8a 50 07	 mov	 dl, BYTE PTR [eax+7]
  00090	84 d2		 test	 dl, dl
  00092	0f 84 3e 01 00
	00		 je	 $LN89@LoadBool_e@2
  00098	80 f2 ea	 xor	 dl, -22			; ffffffeaH
  0009b	88 55 eb	 mov	 BYTE PTR __k$[ebp+7], dl
  0009e	8a 50 08	 mov	 dl, BYTE PTR [eax+8]
  000a1	84 d2		 test	 dl, dl
  000a3	0f 84 27 01 00
	00		 je	 $LN88@LoadBool_e@2
  000a9	80 f2 ed	 xor	 dl, -19			; ffffffedH
  000ac	88 55 ec	 mov	 BYTE PTR __k$[ebp+8], dl
  000af	8a 50 09	 mov	 dl, BYTE PTR [eax+9]
  000b2	84 d2		 test	 dl, dl
  000b4	0f 84 11 01 00
	00		 je	 $LN87@LoadBool_e@2
  000ba	32 d3		 xor	 dl, bl
  000bc	88 55 ed	 mov	 BYTE PTR __k$[ebp+9], dl
  000bf	8a 50 0a	 mov	 dl, BYTE PTR [eax+10]
  000c2	84 d2		 test	 dl, dl
  000c4	0f 84 fc 00 00
	00		 je	 $LN86@LoadBool_e@2
  000ca	32 d1		 xor	 dl, cl
  000cc	88 55 ee	 mov	 BYTE PTR __k$[ebp+10], dl
  000cf	8a 50 0b	 mov	 dl, BYTE PTR [eax+11]
  000d2	84 d2		 test	 dl, dl
  000d4	0f 84 e6 00 00
	00		 je	 $LN85@LoadBool_e@2
  000da	80 f2 ea	 xor	 dl, -22			; ffffffeaH
  000dd	88 55 ef	 mov	 BYTE PTR __k$[ebp+11], dl
  000e0	8a 50 0c	 mov	 dl, BYTE PTR [eax+12]
  000e3	84 d2		 test	 dl, dl
  000e5	0f 84 cf 00 00
	00		 je	 $LN84@LoadBool_e@2
  000eb	80 f2 ed	 xor	 dl, -19			; ffffffedH
  000ee	88 55 f0	 mov	 BYTE PTR __k$[ebp+12], dl
  000f1	8a 50 0d	 mov	 dl, BYTE PTR [eax+13]
  000f4	84 d2		 test	 dl, dl
  000f6	0f 84 b9 00 00
	00		 je	 $LN83@LoadBool_e@2
  000fc	32 d3		 xor	 dl, bl
  000fe	88 55 f1	 mov	 BYTE PTR __k$[ebp+13], dl
  00101	8a 50 0e	 mov	 dl, BYTE PTR [eax+14]
  00104	84 d2		 test	 dl, dl
  00106	0f 84 a4 00 00
	00		 je	 $LN82@LoadBool_e@2
  0010c	32 d1		 xor	 dl, cl
  0010e	88 55 f2	 mov	 BYTE PTR __k$[ebp+14], dl
  00111	8a 50 0f	 mov	 dl, BYTE PTR [eax+15]
  00114	84 d2		 test	 dl, dl
  00116	0f 84 8e 00 00
	00		 je	 $LN81@LoadBool_e@2
  0011c	80 f2 ea	 xor	 dl, -22			; ffffffeaH
  0011f	88 55 f3	 mov	 BYTE PTR __k$[ebp+15], dl
  00122	8a 50 10	 mov	 dl, BYTE PTR [eax+16]
  00125	84 d2		 test	 dl, dl
  00127	74 7b		 je	 SHORT $LN80@LoadBool_e@2
  00129	80 f2 ed	 xor	 dl, -19			; ffffffedH
  0012c	88 55 f4	 mov	 BYTE PTR __k$[ebp+16], dl
  0012f	8a 50 11	 mov	 dl, BYTE PTR [eax+17]
  00132	84 d2		 test	 dl, dl
  00134	74 69		 je	 SHORT $LN79@LoadBool_e@2
  00136	32 d3		 xor	 dl, bl
  00138	88 55 f5	 mov	 BYTE PTR __k$[ebp+17], dl
  0013b	8a 50 12	 mov	 dl, BYTE PTR [eax+18]
  0013e	84 d2		 test	 dl, dl
  00140	74 58		 je	 SHORT $LN78@LoadBool_e@2
  00142	32 d1		 xor	 dl, cl
  00144	80 78 13 00	 cmp	 BYTE PTR [eax+19], 0
  00148	88 55 f6	 mov	 BYTE PTR __k$[ebp+18], dl
  0014b	0f 84 b1 00 00
	00		 je	 $LN1@LoadBool_e@2
  00151	8a 50 14	 mov	 dl, BYTE PTR [eax+20]
  00154	84 d2		 test	 dl, dl
  00156	74 3c		 je	 SHORT $LN76@LoadBool_e@2
  00158	80 f2 ed	 xor	 dl, -19			; ffffffedH
  0015b	88 55 f8	 mov	 BYTE PTR __k$[ebp+20], dl
  0015e	8a 50 15	 mov	 dl, BYTE PTR [eax+21]
  00161	84 d2		 test	 dl, dl
  00163	74 2a		 je	 SHORT $LN75@LoadBool_e@2
  00165	32 d3		 xor	 dl, bl
  00167	88 55 f9	 mov	 BYTE PTR __k$[ebp+21], dl
  0016a	8a 50 16	 mov	 dl, BYTE PTR [eax+22]
  0016d	84 d2		 test	 dl, dl
  0016f	74 19		 je	 SHORT $LN74@LoadBool_e@2
  00171	8a 40 17	 mov	 al, BYTE PTR [eax+23]
  00174	32 d1		 xor	 dl, cl
  00176	88 55 fa	 mov	 BYTE PTR __k$[ebp+22], dl
  00179	84 c0		 test	 al, al
  0017b	74 07		 je	 SHORT $LN73@LoadBool_e@2
  0017d	34 ea		 xor	 al, -22			; ffffffeaH
  0017f	88 45 fb	 mov	 BYTE PTR __k$[ebp+23], al
  00182	eb 7e		 jmp	 SHORT $LN1@LoadBool_e@2
$LN73@LoadBool_e@2:
  00184	c6 45 fb ea	 mov	 BYTE PTR __k$[ebp+23], -22 ; ffffffeaH
  00188	eb 78		 jmp	 SHORT $LN1@LoadBool_e@2
$LN74@LoadBool_e@2:
  0018a	88 4d fa	 mov	 BYTE PTR __k$[ebp+22], cl
  0018d	eb 73		 jmp	 SHORT $LN1@LoadBool_e@2
$LN75@LoadBool_e@2:
  0018f	88 5d f9	 mov	 BYTE PTR __k$[ebp+21], bl
  00192	eb 6e		 jmp	 SHORT $LN1@LoadBool_e@2
$LN76@LoadBool_e@2:
  00194	c6 45 f8 ed	 mov	 BYTE PTR __k$[ebp+20], -19 ; ffffffedH
  00198	eb 68		 jmp	 SHORT $LN1@LoadBool_e@2
$LN78@LoadBool_e@2:
  0019a	88 4d f6	 mov	 BYTE PTR __k$[ebp+18], cl
  0019d	eb 63		 jmp	 SHORT $LN1@LoadBool_e@2
$LN79@LoadBool_e@2:
  0019f	88 5d f5	 mov	 BYTE PTR __k$[ebp+17], bl
  001a2	eb 5e		 jmp	 SHORT $LN1@LoadBool_e@2
$LN80@LoadBool_e@2:
  001a4	c6 45 f4 ed	 mov	 BYTE PTR __k$[ebp+16], -19 ; ffffffedH
  001a8	eb 58		 jmp	 SHORT $LN1@LoadBool_e@2
$LN81@LoadBool_e@2:
  001aa	c6 45 f3 ea	 mov	 BYTE PTR __k$[ebp+15], -22 ; ffffffeaH
  001ae	eb 52		 jmp	 SHORT $LN1@LoadBool_e@2
$LN82@LoadBool_e@2:
  001b0	88 4d f2	 mov	 BYTE PTR __k$[ebp+14], cl
  001b3	eb 4d		 jmp	 SHORT $LN1@LoadBool_e@2
$LN83@LoadBool_e@2:
  001b5	88 5d f1	 mov	 BYTE PTR __k$[ebp+13], bl
  001b8	eb 48		 jmp	 SHORT $LN1@LoadBool_e@2
$LN84@LoadBool_e@2:
  001ba	c6 45 f0 ed	 mov	 BYTE PTR __k$[ebp+12], -19 ; ffffffedH
  001be	eb 42		 jmp	 SHORT $LN1@LoadBool_e@2
$LN85@LoadBool_e@2:
  001c0	c6 45 ef ea	 mov	 BYTE PTR __k$[ebp+11], -22 ; ffffffeaH
  001c4	eb 3c		 jmp	 SHORT $LN1@LoadBool_e@2
$LN86@LoadBool_e@2:
  001c6	88 4d ee	 mov	 BYTE PTR __k$[ebp+10], cl
  001c9	eb 37		 jmp	 SHORT $LN1@LoadBool_e@2
$LN87@LoadBool_e@2:
  001cb	88 5d ed	 mov	 BYTE PTR __k$[ebp+9], bl
  001ce	eb 32		 jmp	 SHORT $LN1@LoadBool_e@2
$LN88@LoadBool_e@2:
  001d0	c6 45 ec ed	 mov	 BYTE PTR __k$[ebp+8], -19 ; ffffffedH
  001d4	eb 2c		 jmp	 SHORT $LN1@LoadBool_e@2
$LN89@LoadBool_e@2:
  001d6	c6 45 eb ea	 mov	 BYTE PTR __k$[ebp+7], -22 ; ffffffeaH
  001da	eb 26		 jmp	 SHORT $LN1@LoadBool_e@2
$LN90@LoadBool_e@2:
  001dc	88 4d ea	 mov	 BYTE PTR __k$[ebp+6], cl
  001df	eb 21		 jmp	 SHORT $LN1@LoadBool_e@2
$LN91@LoadBool_e@2:
  001e1	88 5d e9	 mov	 BYTE PTR __k$[ebp+5], bl
  001e4	eb 1c		 jmp	 SHORT $LN1@LoadBool_e@2
$LN92@LoadBool_e@2:
  001e6	c6 45 e8 ed	 mov	 BYTE PTR __k$[ebp+4], -19 ; ffffffedH
  001ea	eb 16		 jmp	 SHORT $LN1@LoadBool_e@2
$LN93@LoadBool_e@2:
  001ec	c6 45 e7 ea	 mov	 BYTE PTR __k$[ebp+3], -22 ; ffffffeaH
  001f0	eb 10		 jmp	 SHORT $LN1@LoadBool_e@2
$LN94@LoadBool_e@2:
  001f2	c6 45 e6 eb	 mov	 BYTE PTR __k$[ebp+2], -21 ; ffffffebH
  001f6	eb 0a		 jmp	 SHORT $LN1@LoadBool_e@2
$LN95@LoadBool_e@2:
  001f8	c6 45 e5 ec	 mov	 BYTE PTR __k$[ebp+1], -20 ; ffffffecH
  001fc	eb 04		 jmp	 SHORT $LN1@LoadBool_e@2
$LN96@LoadBool_e@2:
  001fe	c6 45 e4 ed	 mov	 BYTE PTR __k$[ebp], -19	; ffffffedH
$LN1@LoadBool_e@2:
  00202	6a 04		 push	 4
  00204	8d 45 e4	 lea	 eax, DWORD PTR __k$[ebp]
  00207	c6 45 f7 00	 mov	 BYTE PTR __k$[ebp+19], 0
  0020b	5a		 pop	 edx
$LL104@LoadBool_e@2:
  0020c	81 30 ed ec eb
	ea		 xor	 DWORD PTR [eax], -353637139 ; eaebecedH
  00212	83 c0 04	 add	 eax, 4
  00215	4a		 dec	 edx
  00216	75 f4		 jne	 SHORT $LL104@LoadBool_e@2
  00218	6a 10		 push	 16			; 00000010H
  0021a	58		 pop	 eax
$LL101@LoadBool_e@2:
  0021b	8b c8		 mov	 ecx, eax
  0021d	81 e1 03 00 00
	80		 and	 ecx, -2147483645	; 80000003H
  00223	79 05		 jns	 SHORT $LN111@LoadBool_e@2
  00225	49		 dec	 ecx
  00226	83 c9 fc	 or	 ecx, -4			; fffffffcH
  00229	41		 inc	 ecx
$LN111@LoadBool_e@2:
  0022a	b2 ed		 mov	 dl, -19			; ffffffedH
  0022c	2a d1		 sub	 dl, cl
  0022e	30 54 05 e4	 xor	 BYTE PTR __k$[ebp+eax], dl
  00232	40		 inc	 eax
  00233	83 f8 13	 cmp	 eax, 19			; 00000013H
  00236	7c e3		 jl	 SHORT $LL101@LoadBool_e@2

; 103  : 		return LoadBool(_k, b);

  00238	ff 75 0c	 push	 DWORD PTR _b$[ebp]
  0023b	8d 45 e4	 lea	 eax, DWORD PTR __k$[ebp]
  0023e	50		 push	 eax
  0023f	8b ce		 mov	 ecx, esi
  00241	ff 15 00 00 00
	00		 call	 DWORD PTR __imp_?LoadBool@ioINILoader@@QAE_NPBD_N@Z

; 104  : 	}

  00247	8b 4d fc	 mov	 ecx, DWORD PTR __$ArrayPad$[ebp]
  0024a	5e		 pop	 esi
  0024b	33 cd		 xor	 ecx, ebp
  0024d	5b		 pop	 ebx
  0024e	e8 00 00 00 00	 call	 @__security_check_cookie@4
  00253	c9		 leave
  00254	c2 08 00	 ret	 8
??$LoadBool_e@$0BE@@ioINILoader@@QAE_NAAY0BE@$$CBD_N@Z ENDP ; ioINILoader::LoadBool_e<20>
_TEXT	ENDS
PUBLIC	__$ArrayPad$
PUBLIC	??$LoadFloat_e@$0BB@@ioINILoader@@QAEMAAY0BB@$$CBDM@Z ; ioINILoader::LoadFloat_e<17>
; Function compile flags: /Ogsp
;	COMDAT ??$LoadFloat_e@$0BB@@ioINILoader@@QAEMAAY0BB@$$CBDM@Z
_TEXT	SEGMENT
__k$ = -28						; size = 17
__$ArrayPad$ = -4					; size = 4
_k$ = 8							; size = 4
_f$ = 12						; size = 4
??$LoadFloat_e@$0BB@@ioINILoader@@QAEMAAY0BB@$$CBDM@Z PROC ; ioINILoader::LoadFloat_e<17>, COMDAT
; _this$ = ecx

; 135  : 	{

  00000	55		 push	 ebp
  00001	8b ec		 mov	 ebp, esp
  00003	83 ec 1c	 sub	 esp, 28			; 0000001cH
  00006	a1 00 00 00 00	 mov	 eax, DWORD PTR ___security_cookie
  0000b	33 c5		 xor	 eax, ebp
  0000d	89 45 fc	 mov	 DWORD PTR __$ArrayPad$[ebp], eax
  00010	8b 45 08	 mov	 eax, DWORD PTR _k$[ebp]

; 136  : 		_ENCSTR(k, _k);

  00013	8a 10		 mov	 dl, BYTE PTR [eax]
  00015	56		 push	 esi
  00016	8b f1		 mov	 esi, ecx
  00018	84 d2		 test	 dl, dl
  0001a	0f 84 a7 01 00
	00		 je	 $LN96@LoadFloat_@5
  00020	80 f2 ed	 xor	 dl, -19			; ffffffedH
  00023	88 55 e4	 mov	 BYTE PTR __k$[ebp], dl
  00026	8a 50 01	 mov	 dl, BYTE PTR [eax+1]
  00029	84 d2		 test	 dl, dl
  0002b	0f 84 90 01 00
	00		 je	 $LN95@LoadFloat_@5
  00031	b1 ec		 mov	 cl, -20			; ffffffecH
  00033	32 d1		 xor	 dl, cl
  00035	88 55 e5	 mov	 BYTE PTR __k$[ebp+1], dl
  00038	8a 50 02	 mov	 dl, BYTE PTR [eax+2]
  0003b	84 d2		 test	 dl, dl
  0003d	0f 84 78 01 00
	00		 je	 $LN94@LoadFloat_@5
  00043	80 f2 eb	 xor	 dl, -21			; ffffffebH
  00046	88 55 e6	 mov	 BYTE PTR __k$[ebp+2], dl
  00049	8a 50 03	 mov	 dl, BYTE PTR [eax+3]
  0004c	84 d2		 test	 dl, dl
  0004e	0f 84 61 01 00
	00		 je	 $LN93@LoadFloat_@5
  00054	80 f2 ea	 xor	 dl, -22			; ffffffeaH
  00057	88 55 e7	 mov	 BYTE PTR __k$[ebp+3], dl
  0005a	8a 50 04	 mov	 dl, BYTE PTR [eax+4]
  0005d	84 d2		 test	 dl, dl
  0005f	0f 84 4a 01 00
	00		 je	 $LN92@LoadFloat_@5
  00065	80 f2 ed	 xor	 dl, -19			; ffffffedH
  00068	88 55 e8	 mov	 BYTE PTR __k$[ebp+4], dl
  0006b	8a 50 05	 mov	 dl, BYTE PTR [eax+5]
  0006e	84 d2		 test	 dl, dl
  00070	0f 84 34 01 00
	00		 je	 $LN91@LoadFloat_@5
  00076	32 d1		 xor	 dl, cl
  00078	88 55 e9	 mov	 BYTE PTR __k$[ebp+5], dl
  0007b	8a 50 06	 mov	 dl, BYTE PTR [eax+6]
  0007e	84 d2		 test	 dl, dl
  00080	0f 84 1e 01 00
	00		 je	 $LN90@LoadFloat_@5
  00086	80 f2 eb	 xor	 dl, -21			; ffffffebH
  00089	88 55 ea	 mov	 BYTE PTR __k$[ebp+6], dl
  0008c	8a 50 07	 mov	 dl, BYTE PTR [eax+7]
  0008f	84 d2		 test	 dl, dl
  00091	0f 84 07 01 00
	00		 je	 $LN89@LoadFloat_@5
  00097	80 f2 ea	 xor	 dl, -22			; ffffffeaH
  0009a	88 55 eb	 mov	 BYTE PTR __k$[ebp+7], dl
  0009d	8a 50 08	 mov	 dl, BYTE PTR [eax+8]
  000a0	84 d2		 test	 dl, dl
  000a2	0f 84 f0 00 00
	00		 je	 $LN88@LoadFloat_@5
  000a8	80 f2 ed	 xor	 dl, -19			; ffffffedH
  000ab	88 55 ec	 mov	 BYTE PTR __k$[ebp+8], dl
  000ae	8a 50 09	 mov	 dl, BYTE PTR [eax+9]
  000b1	84 d2		 test	 dl, dl
  000b3	0f 84 da 00 00
	00		 je	 $LN87@LoadFloat_@5
  000b9	32 d1		 xor	 dl, cl
  000bb	88 55 ed	 mov	 BYTE PTR __k$[ebp+9], dl
  000be	8a 50 0a	 mov	 dl, BYTE PTR [eax+10]
  000c1	84 d2		 test	 dl, dl
  000c3	0f 84 c4 00 00
	00		 je	 $LN86@LoadFloat_@5
  000c9	80 f2 eb	 xor	 dl, -21			; ffffffebH
  000cc	88 55 ee	 mov	 BYTE PTR __k$[ebp+10], dl
  000cf	8a 50 0b	 mov	 dl, BYTE PTR [eax+11]
  000d2	84 d2		 test	 dl, dl
  000d4	0f 84 ad 00 00
	00		 je	 $LN85@LoadFloat_@5
  000da	80 f2 ea	 xor	 dl, -22			; ffffffeaH
  000dd	88 55 ef	 mov	 BYTE PTR __k$[ebp+11], dl
  000e0	8a 50 0c	 mov	 dl, BYTE PTR [eax+12]
  000e3	84 d2		 test	 dl, dl
  000e5	0f 84 96 00 00
	00		 je	 $LN84@LoadFloat_@5
  000eb	80 f2 ed	 xor	 dl, -19			; ffffffedH
  000ee	88 55 f0	 mov	 BYTE PTR __k$[ebp+12], dl
  000f1	8a 50 0d	 mov	 dl, BYTE PTR [eax+13]
  000f4	84 d2		 test	 dl, dl
  000f6	0f 84 80 00 00
	00		 je	 $LN83@LoadFloat_@5
  000fc	32 d1		 xor	 dl, cl
  000fe	88 55 f1	 mov	 BYTE PTR __k$[ebp+13], dl
  00101	8a 50 0e	 mov	 dl, BYTE PTR [eax+14]
  00104	84 d2		 test	 dl, dl
  00106	74 6e		 je	 SHORT $LN82@LoadFloat_@5
  00108	80 f2 eb	 xor	 dl, -21			; ffffffebH
  0010b	88 55 f2	 mov	 BYTE PTR __k$[ebp+14], dl
  0010e	8a 50 0f	 mov	 dl, BYTE PTR [eax+15]
  00111	84 d2		 test	 dl, dl
  00113	74 5b		 je	 SHORT $LN81@LoadFloat_@5
  00115	80 f2 ea	 xor	 dl, -22			; ffffffeaH
  00118	80 78 10 00	 cmp	 BYTE PTR [eax+16], 0
  0011c	88 55 f3	 mov	 BYTE PTR __k$[ebp+15], dl
  0011f	0f 84 a6 00 00
	00		 je	 $LN1@LoadFloat_@5
  00125	8a 50 11	 mov	 dl, BYTE PTR [eax+17]
  00128	84 d2		 test	 dl, dl
  0012a	74 3f		 je	 SHORT $LN79@LoadFloat_@5
  0012c	32 d1		 xor	 dl, cl
  0012e	88 55 f5	 mov	 BYTE PTR __k$[ebp+17], dl
  00131	8a 50 12	 mov	 dl, BYTE PTR [eax+18]
  00134	84 d2		 test	 dl, dl
  00136	74 2d		 je	 SHORT $LN78@LoadFloat_@5
  00138	80 f2 eb	 xor	 dl, -21			; ffffffebH
  0013b	88 55 f6	 mov	 BYTE PTR __k$[ebp+18], dl
  0013e	8a 50 13	 mov	 dl, BYTE PTR [eax+19]
  00141	84 d2		 test	 dl, dl
  00143	74 1a		 je	 SHORT $LN77@LoadFloat_@5
  00145	8a 40 14	 mov	 al, BYTE PTR [eax+20]
  00148	80 f2 ea	 xor	 dl, -22			; ffffffeaH
  0014b	88 55 f7	 mov	 BYTE PTR __k$[ebp+19], dl
  0014e	84 c0		 test	 al, al
  00150	74 07		 je	 SHORT $LN76@LoadFloat_@5
  00152	34 ed		 xor	 al, -19			; ffffffedH
  00154	88 45 f8	 mov	 BYTE PTR __k$[ebp+20], al
  00157	eb 72		 jmp	 SHORT $LN1@LoadFloat_@5
$LN76@LoadFloat_@5:
  00159	c6 45 f8 ed	 mov	 BYTE PTR __k$[ebp+20], -19 ; ffffffedH
  0015d	eb 6c		 jmp	 SHORT $LN1@LoadFloat_@5
$LN77@LoadFloat_@5:
  0015f	c6 45 f7 ea	 mov	 BYTE PTR __k$[ebp+19], -22 ; ffffffeaH
  00163	eb 66		 jmp	 SHORT $LN1@LoadFloat_@5
$LN78@LoadFloat_@5:
  00165	c6 45 f6 eb	 mov	 BYTE PTR __k$[ebp+18], -21 ; ffffffebH
  00169	eb 60		 jmp	 SHORT $LN1@LoadFloat_@5
$LN79@LoadFloat_@5:
  0016b	88 4d f5	 mov	 BYTE PTR __k$[ebp+17], cl
  0016e	eb 5b		 jmp	 SHORT $LN1@LoadFloat_@5
$LN81@LoadFloat_@5:
  00170	c6 45 f3 ea	 mov	 BYTE PTR __k$[ebp+15], -22 ; ffffffeaH
  00174	eb 55		 jmp	 SHORT $LN1@LoadFloat_@5
$LN82@LoadFloat_@5:
  00176	c6 45 f2 eb	 mov	 BYTE PTR __k$[ebp+14], -21 ; ffffffebH
  0017a	eb 4f		 jmp	 SHORT $LN1@LoadFloat_@5
$LN83@LoadFloat_@5:
  0017c	88 4d f1	 mov	 BYTE PTR __k$[ebp+13], cl
  0017f	eb 4a		 jmp	 SHORT $LN1@LoadFloat_@5
$LN84@LoadFloat_@5:
  00181	c6 45 f0 ed	 mov	 BYTE PTR __k$[ebp+12], -19 ; ffffffedH
  00185	eb 44		 jmp	 SHORT $LN1@LoadFloat_@5
$LN85@LoadFloat_@5:
  00187	c6 45 ef ea	 mov	 BYTE PTR __k$[ebp+11], -22 ; ffffffeaH
  0018b	eb 3e		 jmp	 SHORT $LN1@LoadFloat_@5
$LN86@LoadFloat_@5:
  0018d	c6 45 ee eb	 mov	 BYTE PTR __k$[ebp+10], -21 ; ffffffebH
  00191	eb 38		 jmp	 SHORT $LN1@LoadFloat_@5
$LN87@LoadFloat_@5:
  00193	88 4d ed	 mov	 BYTE PTR __k$[ebp+9], cl
  00196	eb 33		 jmp	 SHORT $LN1@LoadFloat_@5
$LN88@LoadFloat_@5:
  00198	c6 45 ec ed	 mov	 BYTE PTR __k$[ebp+8], -19 ; ffffffedH
  0019c	eb 2d		 jmp	 SHORT $LN1@LoadFloat_@5
$LN89@LoadFloat_@5:
  0019e	c6 45 eb ea	 mov	 BYTE PTR __k$[ebp+7], -22 ; ffffffeaH
  001a2	eb 27		 jmp	 SHORT $LN1@LoadFloat_@5
$LN90@LoadFloat_@5:
  001a4	c6 45 ea eb	 mov	 BYTE PTR __k$[ebp+6], -21 ; ffffffebH
  001a8	eb 21		 jmp	 SHORT $LN1@LoadFloat_@5
$LN91@LoadFloat_@5:
  001aa	88 4d e9	 mov	 BYTE PTR __k$[ebp+5], cl
  001ad	eb 1c		 jmp	 SHORT $LN1@LoadFloat_@5
$LN92@LoadFloat_@5:
  001af	c6 45 e8 ed	 mov	 BYTE PTR __k$[ebp+4], -19 ; ffffffedH
  001b3	eb 16		 jmp	 SHORT $LN1@LoadFloat_@5
$LN93@LoadFloat_@5:
  001b5	c6 45 e7 ea	 mov	 BYTE PTR __k$[ebp+3], -22 ; ffffffeaH
  001b9	eb 10		 jmp	 SHORT $LN1@LoadFloat_@5
$LN94@LoadFloat_@5:
  001bb	c6 45 e6 eb	 mov	 BYTE PTR __k$[ebp+2], -21 ; ffffffebH
  001bf	eb 0a		 jmp	 SHORT $LN1@LoadFloat_@5
$LN95@LoadFloat_@5:
  001c1	c6 45 e5 ec	 mov	 BYTE PTR __k$[ebp+1], -20 ; ffffffecH
  001c5	eb 04		 jmp	 SHORT $LN1@LoadFloat_@5
$LN96@LoadFloat_@5:
  001c7	c6 45 e4 ed	 mov	 BYTE PTR __k$[ebp], -19	; ffffffedH
$LN1@LoadFloat_@5:
  001cb	6a 04		 push	 4
  001cd	8d 45 e4	 lea	 eax, DWORD PTR __k$[ebp]
  001d0	c6 45 f4 00	 mov	 BYTE PTR __k$[ebp+16], 0
  001d4	5a		 pop	 edx
$LL104@LoadFloat_@5:
  001d5	81 30 ed ec eb
	ea		 xor	 DWORD PTR [eax], -353637139 ; eaebecedH
  001db	83 c0 04	 add	 eax, 4
  001de	4a		 dec	 edx
  001df	75 f4		 jne	 SHORT $LL104@LoadFloat_@5

; 137  : 		return LoadFloat(_k, f);

  001e1	f3 0f 10 45 0c	 movss	 xmm0, DWORD PTR _f$[ebp]
  001e6	51		 push	 ecx
  001e7	8d 45 e4	 lea	 eax, DWORD PTR __k$[ebp]
  001ea	f3 0f 11 04 24	 movss	 DWORD PTR [esp], xmm0
  001ef	50		 push	 eax
  001f0	8b ce		 mov	 ecx, esi
  001f2	ff 15 00 00 00
	00		 call	 DWORD PTR __imp_?LoadFloat@ioINILoader@@QAEMPBDM@Z

; 138  : 	}

  001f8	8b 4d fc	 mov	 ecx, DWORD PTR __$ArrayPad$[ebp]
  001fb	33 cd		 xor	 ecx, ebp
  001fd	5e		 pop	 esi
  001fe	e8 00 00 00 00	 call	 @__security_check_cookie@4
  00203	c9		 leave
  00204	c2 08 00	 ret	 8
??$LoadFloat_e@$0BB@@ioINILoader@@QAEMAAY0BB@$$CBDM@Z ENDP ; ioINILoader::LoadFloat_e<17>
_TEXT	ENDS
PUBLIC	__$ArrayPad$
PUBLIC	??$LoadBool_e@$0BC@@ioINILoader@@QAE_NAAY0BC@$$CBD_N@Z ; ioINILoader::LoadBool_e<18>
; Function compile flags: /Ogsp
;	COMDAT ??$LoadBool_e@$0BC@@ioINILoader@@QAE_NAAY0BC@$$CBD_N@Z
_TEXT	SEGMENT
__k$ = -28						; size = 18
__$ArrayPad$ = -4					; size = 4
_k$ = 8							; size = 4
_b$ = 12						; size = 1
??$LoadBool_e@$0BC@@ioINILoader@@QAE_NAAY0BC@$$CBD_N@Z PROC ; ioINILoader::LoadBool_e<18>, COMDAT
; _this$ = ecx

; 101  : 	{

  00000	55		 push	 ebp
  00001	8b ec		 mov	 ebp, esp
  00003	83 ec 1c	 sub	 esp, 28			; 0000001cH
  00006	a1 00 00 00 00	 mov	 eax, DWORD PTR ___security_cookie
  0000b	33 c5		 xor	 eax, ebp
  0000d	89 45 fc	 mov	 DWORD PTR __$ArrayPad$[ebp], eax
  00010	8b 45 08	 mov	 eax, DWORD PTR _k$[ebp]

; 102  : 		_ENCSTR(k, _k);

  00013	8a 10		 mov	 dl, BYTE PTR [eax]
  00015	56		 push	 esi
  00016	8b f1		 mov	 esi, ecx
  00018	84 d2		 test	 dl, dl
  0001a	0f 84 be 01 00
	00		 je	 $LN96@LoadBool_e@3
  00020	80 f2 ed	 xor	 dl, -19			; ffffffedH
  00023	88 55 e4	 mov	 BYTE PTR __k$[ebp], dl
  00026	8a 50 01	 mov	 dl, BYTE PTR [eax+1]
  00029	84 d2		 test	 dl, dl
  0002b	0f 84 a7 01 00
	00		 je	 $LN95@LoadBool_e@3
  00031	80 f2 ec	 xor	 dl, -20			; ffffffecH
  00034	88 55 e5	 mov	 BYTE PTR __k$[ebp+1], dl
  00037	8a 50 02	 mov	 dl, BYTE PTR [eax+2]
  0003a	84 d2		 test	 dl, dl
  0003c	0f 84 90 01 00
	00		 je	 $LN94@LoadBool_e@3
  00042	b1 eb		 mov	 cl, -21			; ffffffebH
  00044	32 d1		 xor	 dl, cl
  00046	88 55 e6	 mov	 BYTE PTR __k$[ebp+2], dl
  00049	8a 50 03	 mov	 dl, BYTE PTR [eax+3]
  0004c	84 d2		 test	 dl, dl
  0004e	0f 84 78 01 00
	00		 je	 $LN93@LoadBool_e@3
  00054	80 f2 ea	 xor	 dl, -22			; ffffffeaH
  00057	88 55 e7	 mov	 BYTE PTR __k$[ebp+3], dl
  0005a	8a 50 04	 mov	 dl, BYTE PTR [eax+4]
  0005d	84 d2		 test	 dl, dl
  0005f	0f 84 61 01 00
	00		 je	 $LN92@LoadBool_e@3
  00065	80 f2 ed	 xor	 dl, -19			; ffffffedH
  00068	88 55 e8	 mov	 BYTE PTR __k$[ebp+4], dl
  0006b	8a 50 05	 mov	 dl, BYTE PTR [eax+5]
  0006e	84 d2		 test	 dl, dl
  00070	0f 84 4a 01 00
	00		 je	 $LN91@LoadBool_e@3
  00076	80 f2 ec	 xor	 dl, -20			; ffffffecH
  00079	88 55 e9	 mov	 BYTE PTR __k$[ebp+5], dl
  0007c	8a 50 06	 mov	 dl, BYTE PTR [eax+6]
  0007f	84 d2		 test	 dl, dl
  00081	0f 84 34 01 00
	00		 je	 $LN90@LoadBool_e@3
  00087	32 d1		 xor	 dl, cl
  00089	88 55 ea	 mov	 BYTE PTR __k$[ebp+6], dl
  0008c	8a 50 07	 mov	 dl, BYTE PTR [eax+7]
  0008f	84 d2		 test	 dl, dl
  00091	0f 84 1e 01 00
	00		 je	 $LN89@LoadBool_e@3
  00097	80 f2 ea	 xor	 dl, -22			; ffffffeaH
  0009a	88 55 eb	 mov	 BYTE PTR __k$[ebp+7], dl
  0009d	8a 50 08	 mov	 dl, BYTE PTR [eax+8]
  000a0	84 d2		 test	 dl, dl
  000a2	0f 84 07 01 00
	00		 je	 $LN88@LoadBool_e@3
  000a8	80 f2 ed	 xor	 dl, -19			; ffffffedH
  000ab	88 55 ec	 mov	 BYTE PTR __k$[ebp+8], dl
  000ae	8a 50 09	 mov	 dl, BYTE PTR [eax+9]
  000b1	84 d2		 test	 dl, dl
  000b3	0f 84 f0 00 00
	00		 je	 $LN87@LoadBool_e@3
  000b9	80 f2 ec	 xor	 dl, -20			; ffffffecH
  000bc	88 55 ed	 mov	 BYTE PTR __k$[ebp+9], dl
  000bf	8a 50 0a	 mov	 dl, BYTE PTR [eax+10]
  000c2	84 d2		 test	 dl, dl
  000c4	0f 84 da 00 00
	00		 je	 $LN86@LoadBool_e@3
  000ca	32 d1		 xor	 dl, cl
  000cc	88 55 ee	 mov	 BYTE PTR __k$[ebp+10], dl
  000cf	8a 50 0b	 mov	 dl, BYTE PTR [eax+11]
  000d2	84 d2		 test	 dl, dl
  000d4	0f 84 c4 00 00
	00		 je	 $LN85@LoadBool_e@3
  000da	80 f2 ea	 xor	 dl, -22			; ffffffeaH
  000dd	88 55 ef	 mov	 BYTE PTR __k$[ebp+11], dl
  000e0	8a 50 0c	 mov	 dl, BYTE PTR [eax+12]
  000e3	84 d2		 test	 dl, dl
  000e5	0f 84 ad 00 00
	00		 je	 $LN84@LoadBool_e@3
  000eb	80 f2 ed	 xor	 dl, -19			; ffffffedH
  000ee	88 55 f0	 mov	 BYTE PTR __k$[ebp+12], dl
  000f1	8a 50 0d	 mov	 dl, BYTE PTR [eax+13]
  000f4	84 d2		 test	 dl, dl
  000f6	0f 84 96 00 00
	00		 je	 $LN83@LoadBool_e@3
  000fc	80 f2 ec	 xor	 dl, -20			; ffffffecH
  000ff	88 55 f1	 mov	 BYTE PTR __k$[ebp+13], dl
  00102	8a 50 0e	 mov	 dl, BYTE PTR [eax+14]
  00105	84 d2		 test	 dl, dl
  00107	0f 84 80 00 00
	00		 je	 $LN82@LoadBool_e@3
  0010d	32 d1		 xor	 dl, cl
  0010f	88 55 f2	 mov	 BYTE PTR __k$[ebp+14], dl
  00112	8a 50 0f	 mov	 dl, BYTE PTR [eax+15]
  00115	84 d2		 test	 dl, dl
  00117	74 6e		 je	 SHORT $LN81@LoadBool_e@3
  00119	80 f2 ea	 xor	 dl, -22			; ffffffeaH
  0011c	88 55 f3	 mov	 BYTE PTR __k$[ebp+15], dl
  0011f	8a 50 10	 mov	 dl, BYTE PTR [eax+16]
  00122	84 d2		 test	 dl, dl
  00124	74 5b		 je	 SHORT $LN80@LoadBool_e@3
  00126	80 f2 ed	 xor	 dl, -19			; ffffffedH
  00129	80 78 11 00	 cmp	 BYTE PTR [eax+17], 0
  0012d	88 55 f4	 mov	 BYTE PTR __k$[ebp+16], dl
  00130	0f 84 ac 00 00
	00		 je	 $LN1@LoadBool_e@3
  00136	8a 50 12	 mov	 dl, BYTE PTR [eax+18]
  00139	84 d2		 test	 dl, dl
  0013b	74 3f		 je	 SHORT $LN78@LoadBool_e@3
  0013d	32 d1		 xor	 dl, cl
  0013f	88 55 f6	 mov	 BYTE PTR __k$[ebp+18], dl
  00142	8a 50 13	 mov	 dl, BYTE PTR [eax+19]
  00145	84 d2		 test	 dl, dl
  00147	74 2d		 je	 SHORT $LN77@LoadBool_e@3
  00149	80 f2 ea	 xor	 dl, -22			; ffffffeaH
  0014c	88 55 f7	 mov	 BYTE PTR __k$[ebp+19], dl
  0014f	8a 50 14	 mov	 dl, BYTE PTR [eax+20]
  00152	84 d2		 test	 dl, dl
  00154	74 1a		 je	 SHORT $LN76@LoadBool_e@3
  00156	8a 40 15	 mov	 al, BYTE PTR [eax+21]
  00159	80 f2 ed	 xor	 dl, -19			; ffffffedH
  0015c	88 55 f8	 mov	 BYTE PTR __k$[ebp+20], dl
  0015f	84 c0		 test	 al, al
  00161	74 07		 je	 SHORT $LN75@LoadBool_e@3
  00163	34 ec		 xor	 al, -20			; ffffffecH
  00165	88 45 f9	 mov	 BYTE PTR __k$[ebp+21], al
  00168	eb 78		 jmp	 SHORT $LN1@LoadBool_e@3
$LN75@LoadBool_e@3:
  0016a	c6 45 f9 ec	 mov	 BYTE PTR __k$[ebp+21], -20 ; ffffffecH
  0016e	eb 72		 jmp	 SHORT $LN1@LoadBool_e@3
$LN76@LoadBool_e@3:
  00170	c6 45 f8 ed	 mov	 BYTE PTR __k$[ebp+20], -19 ; ffffffedH
  00174	eb 6c		 jmp	 SHORT $LN1@LoadBool_e@3
$LN77@LoadBool_e@3:
  00176	c6 45 f7 ea	 mov	 BYTE PTR __k$[ebp+19], -22 ; ffffffeaH
  0017a	eb 66		 jmp	 SHORT $LN1@LoadBool_e@3
$LN78@LoadBool_e@3:
  0017c	88 4d f6	 mov	 BYTE PTR __k$[ebp+18], cl
  0017f	eb 61		 jmp	 SHORT $LN1@LoadBool_e@3
$LN80@LoadBool_e@3:
  00181	c6 45 f4 ed	 mov	 BYTE PTR __k$[ebp+16], -19 ; ffffffedH
  00185	eb 5b		 jmp	 SHORT $LN1@LoadBool_e@3
$LN81@LoadBool_e@3:
  00187	c6 45 f3 ea	 mov	 BYTE PTR __k$[ebp+15], -22 ; ffffffeaH
  0018b	eb 55		 jmp	 SHORT $LN1@LoadBool_e@3
$LN82@LoadBool_e@3:
  0018d	88 4d f2	 mov	 BYTE PTR __k$[ebp+14], cl
  00190	eb 50		 jmp	 SHORT $LN1@LoadBool_e@3
$LN83@LoadBool_e@3:
  00192	c6 45 f1 ec	 mov	 BYTE PTR __k$[ebp+13], -20 ; ffffffecH
  00196	eb 4a		 jmp	 SHORT $LN1@LoadBool_e@3
$LN84@LoadBool_e@3:
  00198	c6 45 f0 ed	 mov	 BYTE PTR __k$[ebp+12], -19 ; ffffffedH
  0019c	eb 44		 jmp	 SHORT $LN1@LoadBool_e@3
$LN85@LoadBool_e@3:
  0019e	c6 45 ef ea	 mov	 BYTE PTR __k$[ebp+11], -22 ; ffffffeaH
  001a2	eb 3e		 jmp	 SHORT $LN1@LoadBool_e@3
$LN86@LoadBool_e@3:
  001a4	88 4d ee	 mov	 BYTE PTR __k$[ebp+10], cl
  001a7	eb 39		 jmp	 SHORT $LN1@LoadBool_e@3
$LN87@LoadBool_e@3:
  001a9	c6 45 ed ec	 mov	 BYTE PTR __k$[ebp+9], -20 ; ffffffecH
  001ad	eb 33		 jmp	 SHORT $LN1@LoadBool_e@3
$LN88@LoadBool_e@3:
  001af	c6 45 ec ed	 mov	 BYTE PTR __k$[ebp+8], -19 ; ffffffedH
  001b3	eb 2d		 jmp	 SHORT $LN1@LoadBool_e@3
$LN89@LoadBool_e@3:
  001b5	c6 45 eb ea	 mov	 BYTE PTR __k$[ebp+7], -22 ; ffffffeaH
  001b9	eb 27		 jmp	 SHORT $LN1@LoadBool_e@3
$LN90@LoadBool_e@3:
  001bb	88 4d ea	 mov	 BYTE PTR __k$[ebp+6], cl
  001be	eb 22		 jmp	 SHORT $LN1@LoadBool_e@3
$LN91@LoadBool_e@3:
  001c0	c6 45 e9 ec	 mov	 BYTE PTR __k$[ebp+5], -20 ; ffffffecH
  001c4	eb 1c		 jmp	 SHORT $LN1@LoadBool_e@3
$LN92@LoadBool_e@3:
  001c6	c6 45 e8 ed	 mov	 BYTE PTR __k$[ebp+4], -19 ; ffffffedH
  001ca	eb 16		 jmp	 SHORT $LN1@LoadBool_e@3
$LN93@LoadBool_e@3:
  001cc	c6 45 e7 ea	 mov	 BYTE PTR __k$[ebp+3], -22 ; ffffffeaH
  001d0	eb 10		 jmp	 SHORT $LN1@LoadBool_e@3
$LN94@LoadBool_e@3:
  001d2	c6 45 e6 eb	 mov	 BYTE PTR __k$[ebp+2], -21 ; ffffffebH
  001d6	eb 0a		 jmp	 SHORT $LN1@LoadBool_e@3
$LN95@LoadBool_e@3:
  001d8	c6 45 e5 ec	 mov	 BYTE PTR __k$[ebp+1], -20 ; ffffffecH
  001dc	eb 04		 jmp	 SHORT $LN1@LoadBool_e@3
$LN96@LoadBool_e@3:
  001de	c6 45 e4 ed	 mov	 BYTE PTR __k$[ebp], -19	; ffffffedH
$LN1@LoadBool_e@3:
  001e2	6a 04		 push	 4
  001e4	8d 45 e4	 lea	 eax, DWORD PTR __k$[ebp]
  001e7	c6 45 f5 00	 mov	 BYTE PTR __k$[ebp+17], 0
  001eb	5a		 pop	 edx
$LL104@LoadBool_e@3:
  001ec	81 30 ed ec eb
	ea		 xor	 DWORD PTR [eax], -353637139 ; eaebecedH
  001f2	83 c0 04	 add	 eax, 4
  001f5	4a		 dec	 edx
  001f6	75 f4		 jne	 SHORT $LL104@LoadBool_e@3

; 103  : 		return LoadBool(_k, b);

  001f8	ff 75 0c	 push	 DWORD PTR _b$[ebp]
  001fb	80 75 f4 ed	 xor	 BYTE PTR __k$[ebp+16], -19 ; ffffffedH
  001ff	8d 45 e4	 lea	 eax, DWORD PTR __k$[ebp]
  00202	50		 push	 eax
  00203	8b ce		 mov	 ecx, esi
  00205	ff 15 00 00 00
	00		 call	 DWORD PTR __imp_?LoadBool@ioINILoader@@QAE_NPBD_N@Z

; 104  : 	}

  0020b	8b 4d fc	 mov	 ecx, DWORD PTR __$ArrayPad$[ebp]
  0020e	33 cd		 xor	 ecx, ebp
  00210	5e		 pop	 esi
  00211	e8 00 00 00 00	 call	 @__security_check_cookie@4
  00216	c9		 leave
  00217	c2 08 00	 ret	 8
??$LoadBool_e@$0BC@@ioINILoader@@QAE_NAAY0BC@$$CBD_N@Z ENDP ; ioINILoader::LoadBool_e<18>
_TEXT	ENDS
PUBLIC	__$ArrayPad$
PUBLIC	??$LoadInt_e@$0P@@ioINILoader@@QAEHAAY0P@$$CBDH@Z ; ioINILoader::LoadInt_e<15>
; Function compile flags: /Ogsp
;	COMDAT ??$LoadInt_e@$0P@@ioINILoader@@QAEHAAY0P@$$CBDH@Z
_TEXT	SEGMENT
__k$ = -24						; size = 15
__$ArrayPad$ = -4					; size = 4
_k$ = 8							; size = 4
_i$ = 12						; size = 4
??$LoadInt_e@$0P@@ioINILoader@@QAEHAAY0P@$$CBDH@Z PROC	; ioINILoader::LoadInt_e<15>, COMDAT
; _this$ = ecx

; 118  : 	{

  00000	55		 push	 ebp
  00001	8b ec		 mov	 ebp, esp
  00003	83 ec 18	 sub	 esp, 24			; 00000018H
  00006	a1 00 00 00 00	 mov	 eax, DWORD PTR ___security_cookie
  0000b	33 c5		 xor	 eax, ebp
  0000d	89 45 fc	 mov	 DWORD PTR __$ArrayPad$[ebp], eax
  00010	8b 45 08	 mov	 eax, DWORD PTR _k$[ebp]

; 119  : 		_ENCSTR(k, _k);

  00013	8a 10		 mov	 dl, BYTE PTR [eax]
  00015	56		 push	 esi
  00016	8b f1		 mov	 esi, ecx
  00018	84 d2		 test	 dl, dl
  0001a	0f 84 75 01 00
	00		 je	 $LN96@LoadInt_e@6
  00020	80 f2 ed	 xor	 dl, -19			; ffffffedH
  00023	88 55 e8	 mov	 BYTE PTR __k$[ebp], dl
  00026	8a 50 01	 mov	 dl, BYTE PTR [eax+1]
  00029	84 d2		 test	 dl, dl
  0002b	0f 84 5e 01 00
	00		 je	 $LN95@LoadInt_e@6
  00031	b1 ec		 mov	 cl, -20			; ffffffecH
  00033	32 d1		 xor	 dl, cl
  00035	88 55 e9	 mov	 BYTE PTR __k$[ebp+1], dl
  00038	8a 50 02	 mov	 dl, BYTE PTR [eax+2]
  0003b	84 d2		 test	 dl, dl
  0003d	0f 84 46 01 00
	00		 je	 $LN94@LoadInt_e@6
  00043	80 f2 eb	 xor	 dl, -21			; ffffffebH
  00046	88 55 ea	 mov	 BYTE PTR __k$[ebp+2], dl
  00049	8a 50 03	 mov	 dl, BYTE PTR [eax+3]
  0004c	84 d2		 test	 dl, dl
  0004e	0f 84 2f 01 00
	00		 je	 $LN93@LoadInt_e@6
  00054	80 f2 ea	 xor	 dl, -22			; ffffffeaH
  00057	88 55 eb	 mov	 BYTE PTR __k$[ebp+3], dl
  0005a	8a 50 04	 mov	 dl, BYTE PTR [eax+4]
  0005d	84 d2		 test	 dl, dl
  0005f	0f 84 18 01 00
	00		 je	 $LN92@LoadInt_e@6
  00065	80 f2 ed	 xor	 dl, -19			; ffffffedH
  00068	88 55 ec	 mov	 BYTE PTR __k$[ebp+4], dl
  0006b	8a 50 05	 mov	 dl, BYTE PTR [eax+5]
  0006e	84 d2		 test	 dl, dl
  00070	0f 84 02 01 00
	00		 je	 $LN91@LoadInt_e@6
  00076	32 d1		 xor	 dl, cl
  00078	88 55 ed	 mov	 BYTE PTR __k$[ebp+5], dl
  0007b	8a 50 06	 mov	 dl, BYTE PTR [eax+6]
  0007e	84 d2		 test	 dl, dl
  00080	0f 84 ec 00 00
	00		 je	 $LN90@LoadInt_e@6
  00086	80 f2 eb	 xor	 dl, -21			; ffffffebH
  00089	88 55 ee	 mov	 BYTE PTR __k$[ebp+6], dl
  0008c	8a 50 07	 mov	 dl, BYTE PTR [eax+7]
  0008f	84 d2		 test	 dl, dl
  00091	0f 84 d5 00 00
	00		 je	 $LN89@LoadInt_e@6
  00097	80 f2 ea	 xor	 dl, -22			; ffffffeaH
  0009a	88 55 ef	 mov	 BYTE PTR __k$[ebp+7], dl
  0009d	8a 50 08	 mov	 dl, BYTE PTR [eax+8]
  000a0	84 d2		 test	 dl, dl
  000a2	0f 84 be 00 00
	00		 je	 $LN88@LoadInt_e@6
  000a8	80 f2 ed	 xor	 dl, -19			; ffffffedH
  000ab	88 55 f0	 mov	 BYTE PTR __k$[ebp+8], dl
  000ae	8a 50 09	 mov	 dl, BYTE PTR [eax+9]
  000b1	84 d2		 test	 dl, dl
  000b3	0f 84 a8 00 00
	00		 je	 $LN87@LoadInt_e@6
  000b9	32 d1		 xor	 dl, cl
  000bb	88 55 f1	 mov	 BYTE PTR __k$[ebp+9], dl
  000be	8a 50 0a	 mov	 dl, BYTE PTR [eax+10]
  000c1	84 d2		 test	 dl, dl
  000c3	0f 84 92 00 00
	00		 je	 $LN86@LoadInt_e@6
  000c9	80 f2 eb	 xor	 dl, -21			; ffffffebH
  000cc	88 55 f2	 mov	 BYTE PTR __k$[ebp+10], dl
  000cf	8a 50 0b	 mov	 dl, BYTE PTR [eax+11]
  000d2	84 d2		 test	 dl, dl
  000d4	74 7f		 je	 SHORT $LN85@LoadInt_e@6
  000d6	80 f2 ea	 xor	 dl, -22			; ffffffeaH
  000d9	88 55 f3	 mov	 BYTE PTR __k$[ebp+11], dl
  000dc	8a 50 0c	 mov	 dl, BYTE PTR [eax+12]
  000df	84 d2		 test	 dl, dl
  000e1	74 6c		 je	 SHORT $LN84@LoadInt_e@6
  000e3	80 f2 ed	 xor	 dl, -19			; ffffffedH
  000e6	88 55 f4	 mov	 BYTE PTR __k$[ebp+12], dl
  000e9	8a 50 0d	 mov	 dl, BYTE PTR [eax+13]
  000ec	84 d2		 test	 dl, dl
  000ee	74 5a		 je	 SHORT $LN83@LoadInt_e@6
  000f0	32 d1		 xor	 dl, cl
  000f2	80 78 0e 00	 cmp	 BYTE PTR [eax+14], 0
  000f6	88 55 f5	 mov	 BYTE PTR __k$[ebp+13], dl
  000f9	0f 84 9a 00 00
	00		 je	 $LN1@LoadInt_e@6
  000ff	8a 50 0f	 mov	 dl, BYTE PTR [eax+15]
  00102	84 d2		 test	 dl, dl
  00104	74 3e		 je	 SHORT $LN81@LoadInt_e@6
  00106	80 f2 ea	 xor	 dl, -22			; ffffffeaH
  00109	88 55 f7	 mov	 BYTE PTR __k$[ebp+15], dl
  0010c	8a 50 10	 mov	 dl, BYTE PTR [eax+16]
  0010f	84 d2		 test	 dl, dl
  00111	74 2b		 je	 SHORT $LN80@LoadInt_e@6
  00113	80 f2 ed	 xor	 dl, -19			; ffffffedH
  00116	88 55 f8	 mov	 BYTE PTR __k$[ebp+16], dl
  00119	8a 50 11	 mov	 dl, BYTE PTR [eax+17]
  0011c	84 d2		 test	 dl, dl
  0011e	74 19		 je	 SHORT $LN79@LoadInt_e@6
  00120	8a 40 12	 mov	 al, BYTE PTR [eax+18]
  00123	32 d1		 xor	 dl, cl
  00125	88 55 f9	 mov	 BYTE PTR __k$[ebp+17], dl
  00128	84 c0		 test	 al, al
  0012a	74 07		 je	 SHORT $LN78@LoadInt_e@6
  0012c	34 eb		 xor	 al, -21			; ffffffebH
  0012e	88 45 fa	 mov	 BYTE PTR __k$[ebp+18], al
  00131	eb 66		 jmp	 SHORT $LN1@LoadInt_e@6
$LN78@LoadInt_e@6:
  00133	c6 45 fa eb	 mov	 BYTE PTR __k$[ebp+18], -21 ; ffffffebH
  00137	eb 60		 jmp	 SHORT $LN1@LoadInt_e@6
$LN79@LoadInt_e@6:
  00139	88 4d f9	 mov	 BYTE PTR __k$[ebp+17], cl
  0013c	eb 5b		 jmp	 SHORT $LN1@LoadInt_e@6
$LN80@LoadInt_e@6:
  0013e	c6 45 f8 ed	 mov	 BYTE PTR __k$[ebp+16], -19 ; ffffffedH
  00142	eb 55		 jmp	 SHORT $LN1@LoadInt_e@6
$LN81@LoadInt_e@6:
  00144	c6 45 f7 ea	 mov	 BYTE PTR __k$[ebp+15], -22 ; ffffffeaH
  00148	eb 4f		 jmp	 SHORT $LN1@LoadInt_e@6
$LN83@LoadInt_e@6:
  0014a	88 4d f5	 mov	 BYTE PTR __k$[ebp+13], cl
  0014d	eb 4a		 jmp	 SHORT $LN1@LoadInt_e@6
$LN84@LoadInt_e@6:
  0014f	c6 45 f4 ed	 mov	 BYTE PTR __k$[ebp+12], -19 ; ffffffedH
  00153	eb 44		 jmp	 SHORT $LN1@LoadInt_e@6
$LN85@LoadInt_e@6:
  00155	c6 45 f3 ea	 mov	 BYTE PTR __k$[ebp+11], -22 ; ffffffeaH
  00159	eb 3e		 jmp	 SHORT $LN1@LoadInt_e@6
$LN86@LoadInt_e@6:
  0015b	c6 45 f2 eb	 mov	 BYTE PTR __k$[ebp+10], -21 ; ffffffebH
  0015f	eb 38		 jmp	 SHORT $LN1@LoadInt_e@6
$LN87@LoadInt_e@6:
  00161	88 4d f1	 mov	 BYTE PTR __k$[ebp+9], cl
  00164	eb 33		 jmp	 SHORT $LN1@LoadInt_e@6
$LN88@LoadInt_e@6:
  00166	c6 45 f0 ed	 mov	 BYTE PTR __k$[ebp+8], -19 ; ffffffedH
  0016a	eb 2d		 jmp	 SHORT $LN1@LoadInt_e@6
$LN89@LoadInt_e@6:
  0016c	c6 45 ef ea	 mov	 BYTE PTR __k$[ebp+7], -22 ; ffffffeaH
  00170	eb 27		 jmp	 SHORT $LN1@LoadInt_e@6
$LN90@LoadInt_e@6:
  00172	c6 45 ee eb	 mov	 BYTE PTR __k$[ebp+6], -21 ; ffffffebH
  00176	eb 21		 jmp	 SHORT $LN1@LoadInt_e@6
$LN91@LoadInt_e@6:
  00178	88 4d ed	 mov	 BYTE PTR __k$[ebp+5], cl
  0017b	eb 1c		 jmp	 SHORT $LN1@LoadInt_e@6
$LN92@LoadInt_e@6:
  0017d	c6 45 ec ed	 mov	 BYTE PTR __k$[ebp+4], -19 ; ffffffedH
  00181	eb 16		 jmp	 SHORT $LN1@LoadInt_e@6
$LN93@LoadInt_e@6:
  00183	c6 45 eb ea	 mov	 BYTE PTR __k$[ebp+3], -22 ; ffffffeaH
  00187	eb 10		 jmp	 SHORT $LN1@LoadInt_e@6
$LN94@LoadInt_e@6:
  00189	c6 45 ea eb	 mov	 BYTE PTR __k$[ebp+2], -21 ; ffffffebH
  0018d	eb 0a		 jmp	 SHORT $LN1@LoadInt_e@6
$LN95@LoadInt_e@6:
  0018f	c6 45 e9 ec	 mov	 BYTE PTR __k$[ebp+1], -20 ; ffffffecH
  00193	eb 04		 jmp	 SHORT $LN1@LoadInt_e@6
$LN96@LoadInt_e@6:
  00195	c6 45 e8 ed	 mov	 BYTE PTR __k$[ebp], -19	; ffffffedH
$LN1@LoadInt_e@6:
  00199	6a 03		 push	 3
  0019b	8d 45 e8	 lea	 eax, DWORD PTR __k$[ebp]
  0019e	c6 45 f6 00	 mov	 BYTE PTR __k$[ebp+14], 0
  001a2	5a		 pop	 edx
$LL104@LoadInt_e@6:
  001a3	81 30 ed ec eb
	ea		 xor	 DWORD PTR [eax], -353637139 ; eaebecedH
  001a9	83 c0 04	 add	 eax, 4
  001ac	4a		 dec	 edx
  001ad	75 f4		 jne	 SHORT $LL104@LoadInt_e@6
  001af	6a 0c		 push	 12			; 0000000cH
  001b1	58		 pop	 eax
$LL101@LoadInt_e@6:
  001b2	8b c8		 mov	 ecx, eax
  001b4	81 e1 03 00 00
	80		 and	 ecx, -2147483645	; 80000003H
  001ba	79 05		 jns	 SHORT $LN111@LoadInt_e@6
  001bc	49		 dec	 ecx
  001bd	83 c9 fc	 or	 ecx, -4			; fffffffcH
  001c0	41		 inc	 ecx
$LN111@LoadInt_e@6:
  001c1	b2 ed		 mov	 dl, -19			; ffffffedH
  001c3	2a d1		 sub	 dl, cl
  001c5	30 54 05 e8	 xor	 BYTE PTR __k$[ebp+eax], dl
  001c9	40		 inc	 eax
  001ca	83 f8 0e	 cmp	 eax, 14			; 0000000eH
  001cd	7c e3		 jl	 SHORT $LL101@LoadInt_e@6

; 120  : 		return LoadInt(_k, i);

  001cf	ff 75 0c	 push	 DWORD PTR _i$[ebp]
  001d2	8d 45 e8	 lea	 eax, DWORD PTR __k$[ebp]
  001d5	50		 push	 eax
  001d6	8b ce		 mov	 ecx, esi
  001d8	ff 15 00 00 00
	00		 call	 DWORD PTR __imp_?LoadInt@ioINILoader@@QAEHPBDH@Z

; 121  : 	}

  001de	8b 4d fc	 mov	 ecx, DWORD PTR __$ArrayPad$[ebp]
  001e1	33 cd		 xor	 ecx, ebp
  001e3	5e		 pop	 esi
  001e4	e8 00 00 00 00	 call	 @__security_check_cookie@4
  001e9	c9		 leave
  001ea	c2 08 00	 ret	 8
??$LoadInt_e@$0P@@ioINILoader@@QAEHAAY0P@$$CBDH@Z ENDP	; ioINILoader::LoadInt_e<15>
_TEXT	ENDS
PUBLIC	__$ArrayPad$
PUBLIC	??$LoadInt_e@$0BF@@ioINILoader@@QAEHAAY0BF@$$CBDH@Z ; ioINILoader::LoadInt_e<21>
; Function compile flags: /Ogsp
;	COMDAT ??$LoadInt_e@$0BF@@ioINILoader@@QAEHAAY0BF@$$CBDH@Z
_TEXT	SEGMENT
__k$ = -32						; size = 21
__$ArrayPad$ = -4					; size = 4
_k$ = 8							; size = 4
_i$ = 12						; size = 4
??$LoadInt_e@$0BF@@ioINILoader@@QAEHAAY0BF@$$CBDH@Z PROC ; ioINILoader::LoadInt_e<21>, COMDAT
; _this$ = ecx

; 118  : 	{

  00000	55		 push	 ebp
  00001	8b ec		 mov	 ebp, esp
  00003	83 ec 20	 sub	 esp, 32			; 00000020H
  00006	a1 00 00 00 00	 mov	 eax, DWORD PTR ___security_cookie
  0000b	33 c5		 xor	 eax, ebp
  0000d	89 45 fc	 mov	 DWORD PTR __$ArrayPad$[ebp], eax
  00010	8b 45 08	 mov	 eax, DWORD PTR _k$[ebp]

; 119  : 		_ENCSTR(k, _k);

  00013	8a 10		 mov	 dl, BYTE PTR [eax]
  00015	53		 push	 ebx
  00016	56		 push	 esi
  00017	8b f1		 mov	 esi, ecx
  00019	84 d2		 test	 dl, dl
  0001b	0f 84 f7 01 00
	00		 je	 $LN96@LoadInt_e@7
  00021	80 f2 ed	 xor	 dl, -19			; ffffffedH
  00024	88 55 e0	 mov	 BYTE PTR __k$[ebp], dl
  00027	8a 50 01	 mov	 dl, BYTE PTR [eax+1]
  0002a	84 d2		 test	 dl, dl
  0002c	0f 84 e0 01 00
	00		 je	 $LN95@LoadInt_e@7
  00032	b1 ec		 mov	 cl, -20			; ffffffecH
  00034	32 d1		 xor	 dl, cl
  00036	88 55 e1	 mov	 BYTE PTR __k$[ebp+1], dl
  00039	8a 50 02	 mov	 dl, BYTE PTR [eax+2]
  0003c	84 d2		 test	 dl, dl
  0003e	0f 84 c8 01 00
	00		 je	 $LN94@LoadInt_e@7
  00044	b3 eb		 mov	 bl, -21			; ffffffebH
  00046	32 d3		 xor	 dl, bl
  00048	88 55 e2	 mov	 BYTE PTR __k$[ebp+2], dl
  0004b	8a 50 03	 mov	 dl, BYTE PTR [eax+3]
  0004e	84 d2		 test	 dl, dl
  00050	0f 84 b0 01 00
	00		 je	 $LN93@LoadInt_e@7
  00056	80 f2 ea	 xor	 dl, -22			; ffffffeaH
  00059	88 55 e3	 mov	 BYTE PTR __k$[ebp+3], dl
  0005c	8a 50 04	 mov	 dl, BYTE PTR [eax+4]
  0005f	84 d2		 test	 dl, dl
  00061	0f 84 99 01 00
	00		 je	 $LN92@LoadInt_e@7
  00067	80 f2 ed	 xor	 dl, -19			; ffffffedH
  0006a	88 55 e4	 mov	 BYTE PTR __k$[ebp+4], dl
  0006d	8a 50 05	 mov	 dl, BYTE PTR [eax+5]
  00070	84 d2		 test	 dl, dl
  00072	0f 84 83 01 00
	00		 je	 $LN91@LoadInt_e@7
  00078	32 d1		 xor	 dl, cl
  0007a	88 55 e5	 mov	 BYTE PTR __k$[ebp+5], dl
  0007d	8a 50 06	 mov	 dl, BYTE PTR [eax+6]
  00080	84 d2		 test	 dl, dl
  00082	0f 84 6e 01 00
	00		 je	 $LN90@LoadInt_e@7
  00088	32 d3		 xor	 dl, bl
  0008a	88 55 e6	 mov	 BYTE PTR __k$[ebp+6], dl
  0008d	8a 50 07	 mov	 dl, BYTE PTR [eax+7]
  00090	84 d2		 test	 dl, dl
  00092	0f 84 58 01 00
	00		 je	 $LN89@LoadInt_e@7
  00098	80 f2 ea	 xor	 dl, -22			; ffffffeaH
  0009b	88 55 e7	 mov	 BYTE PTR __k$[ebp+7], dl
  0009e	8a 50 08	 mov	 dl, BYTE PTR [eax+8]
  000a1	84 d2		 test	 dl, dl
  000a3	0f 84 41 01 00
	00		 je	 $LN88@LoadInt_e@7
  000a9	80 f2 ed	 xor	 dl, -19			; ffffffedH
  000ac	88 55 e8	 mov	 BYTE PTR __k$[ebp+8], dl
  000af	8a 50 09	 mov	 dl, BYTE PTR [eax+9]
  000b2	84 d2		 test	 dl, dl
  000b4	0f 84 2b 01 00
	00		 je	 $LN87@LoadInt_e@7
  000ba	32 d1		 xor	 dl, cl
  000bc	88 55 e9	 mov	 BYTE PTR __k$[ebp+9], dl
  000bf	8a 50 0a	 mov	 dl, BYTE PTR [eax+10]
  000c2	84 d2		 test	 dl, dl
  000c4	0f 84 16 01 00
	00		 je	 $LN86@LoadInt_e@7
  000ca	32 d3		 xor	 dl, bl
  000cc	88 55 ea	 mov	 BYTE PTR __k$[ebp+10], dl
  000cf	8a 50 0b	 mov	 dl, BYTE PTR [eax+11]
  000d2	84 d2		 test	 dl, dl
  000d4	0f 84 00 01 00
	00		 je	 $LN85@LoadInt_e@7
  000da	80 f2 ea	 xor	 dl, -22			; ffffffeaH
  000dd	88 55 eb	 mov	 BYTE PTR __k$[ebp+11], dl
  000e0	8a 50 0c	 mov	 dl, BYTE PTR [eax+12]
  000e3	84 d2		 test	 dl, dl
  000e5	0f 84 e9 00 00
	00		 je	 $LN84@LoadInt_e@7
  000eb	80 f2 ed	 xor	 dl, -19			; ffffffedH
  000ee	88 55 ec	 mov	 BYTE PTR __k$[ebp+12], dl
  000f1	8a 50 0d	 mov	 dl, BYTE PTR [eax+13]
  000f4	84 d2		 test	 dl, dl
  000f6	0f 84 d3 00 00
	00		 je	 $LN83@LoadInt_e@7
  000fc	32 d1		 xor	 dl, cl
  000fe	88 55 ed	 mov	 BYTE PTR __k$[ebp+13], dl
  00101	8a 50 0e	 mov	 dl, BYTE PTR [eax+14]
  00104	84 d2		 test	 dl, dl
  00106	0f 84 be 00 00
	00		 je	 $LN82@LoadInt_e@7
  0010c	32 d3		 xor	 dl, bl
  0010e	88 55 ee	 mov	 BYTE PTR __k$[ebp+14], dl
  00111	8a 50 0f	 mov	 dl, BYTE PTR [eax+15]
  00114	84 d2		 test	 dl, dl
  00116	0f 84 a8 00 00
	00		 je	 $LN81@LoadInt_e@7
  0011c	80 f2 ea	 xor	 dl, -22			; ffffffeaH
  0011f	88 55 ef	 mov	 BYTE PTR __k$[ebp+15], dl
  00122	8a 50 10	 mov	 dl, BYTE PTR [eax+16]
  00125	84 d2		 test	 dl, dl
  00127	0f 84 91 00 00
	00		 je	 $LN80@LoadInt_e@7
  0012d	80 f2 ed	 xor	 dl, -19			; ffffffedH
  00130	88 55 f0	 mov	 BYTE PTR __k$[ebp+16], dl
  00133	8a 50 11	 mov	 dl, BYTE PTR [eax+17]
  00136	84 d2		 test	 dl, dl
  00138	74 7f		 je	 SHORT $LN79@LoadInt_e@7
  0013a	32 d1		 xor	 dl, cl
  0013c	88 55 f1	 mov	 BYTE PTR __k$[ebp+17], dl
  0013f	8a 50 12	 mov	 dl, BYTE PTR [eax+18]
  00142	84 d2		 test	 dl, dl
  00144	74 6e		 je	 SHORT $LN78@LoadInt_e@7
  00146	32 d3		 xor	 dl, bl
  00148	88 55 f2	 mov	 BYTE PTR __k$[ebp+18], dl
  0014b	8a 50 13	 mov	 dl, BYTE PTR [eax+19]
  0014e	84 d2		 test	 dl, dl
  00150	74 5c		 je	 SHORT $LN77@LoadInt_e@7
  00152	80 f2 ea	 xor	 dl, -22			; ffffffeaH
  00155	80 78 14 00	 cmp	 BYTE PTR [eax+20], 0
  00159	88 55 f3	 mov	 BYTE PTR __k$[ebp+19], dl
  0015c	0f 84 ba 00 00
	00		 je	 $LN1@LoadInt_e@7
  00162	8a 50 15	 mov	 dl, BYTE PTR [eax+21]
  00165	84 d2		 test	 dl, dl
  00167	74 40		 je	 SHORT $LN75@LoadInt_e@7
  00169	32 d1		 xor	 dl, cl
  0016b	88 55 f5	 mov	 BYTE PTR __k$[ebp+21], dl
  0016e	8a 50 16	 mov	 dl, BYTE PTR [eax+22]
  00171	84 d2		 test	 dl, dl
  00173	74 2f		 je	 SHORT $LN74@LoadInt_e@7
  00175	32 d3		 xor	 dl, bl
  00177	88 55 f6	 mov	 BYTE PTR __k$[ebp+22], dl
  0017a	8a 50 17	 mov	 dl, BYTE PTR [eax+23]
  0017d	84 d2		 test	 dl, dl
  0017f	74 1d		 je	 SHORT $LN73@LoadInt_e@7
  00181	8a 40 18	 mov	 al, BYTE PTR [eax+24]
  00184	80 f2 ea	 xor	 dl, -22			; ffffffeaH
  00187	88 55 f7	 mov	 BYTE PTR __k$[ebp+23], dl
  0018a	84 c0		 test	 al, al
  0018c	74 0a		 je	 SHORT $LN72@LoadInt_e@7
  0018e	34 ed		 xor	 al, -19			; ffffffedH
  00190	88 45 f8	 mov	 BYTE PTR __k$[ebp+24], al
  00193	e9 84 00 00 00	 jmp	 $LN1@LoadInt_e@7
$LN72@LoadInt_e@7:
  00198	c6 45 f8 ed	 mov	 BYTE PTR __k$[ebp+24], -19 ; ffffffedH
  0019c	eb 7e		 jmp	 SHORT $LN1@LoadInt_e@7
$LN73@LoadInt_e@7:
  0019e	c6 45 f7 ea	 mov	 BYTE PTR __k$[ebp+23], -22 ; ffffffeaH
  001a2	eb 78		 jmp	 SHORT $LN1@LoadInt_e@7
$LN74@LoadInt_e@7:
  001a4	88 5d f6	 mov	 BYTE PTR __k$[ebp+22], bl
  001a7	eb 73		 jmp	 SHORT $LN1@LoadInt_e@7
$LN75@LoadInt_e@7:
  001a9	88 4d f5	 mov	 BYTE PTR __k$[ebp+21], cl
  001ac	eb 6e		 jmp	 SHORT $LN1@LoadInt_e@7
$LN77@LoadInt_e@7:
  001ae	c6 45 f3 ea	 mov	 BYTE PTR __k$[ebp+19], -22 ; ffffffeaH
  001b2	eb 68		 jmp	 SHORT $LN1@LoadInt_e@7
$LN78@LoadInt_e@7:
  001b4	88 5d f2	 mov	 BYTE PTR __k$[ebp+18], bl
  001b7	eb 63		 jmp	 SHORT $LN1@LoadInt_e@7
$LN79@LoadInt_e@7:
  001b9	88 4d f1	 mov	 BYTE PTR __k$[ebp+17], cl
  001bc	eb 5e		 jmp	 SHORT $LN1@LoadInt_e@7
$LN80@LoadInt_e@7:
  001be	c6 45 f0 ed	 mov	 BYTE PTR __k$[ebp+16], -19 ; ffffffedH
  001c2	eb 58		 jmp	 SHORT $LN1@LoadInt_e@7
$LN81@LoadInt_e@7:
  001c4	c6 45 ef ea	 mov	 BYTE PTR __k$[ebp+15], -22 ; ffffffeaH
  001c8	eb 52		 jmp	 SHORT $LN1@LoadInt_e@7
$LN82@LoadInt_e@7:
  001ca	88 5d ee	 mov	 BYTE PTR __k$[ebp+14], bl
  001cd	eb 4d		 jmp	 SHORT $LN1@LoadInt_e@7
$LN83@LoadInt_e@7:
  001cf	88 4d ed	 mov	 BYTE PTR __k$[ebp+13], cl
  001d2	eb 48		 jmp	 SHORT $LN1@LoadInt_e@7
$LN84@LoadInt_e@7:
  001d4	c6 45 ec ed	 mov	 BYTE PTR __k$[ebp+12], -19 ; ffffffedH
  001d8	eb 42		 jmp	 SHORT $LN1@LoadInt_e@7
$LN85@LoadInt_e@7:
  001da	c6 45 eb ea	 mov	 BYTE PTR __k$[ebp+11], -22 ; ffffffeaH
  001de	eb 3c		 jmp	 SHORT $LN1@LoadInt_e@7
$LN86@LoadInt_e@7:
  001e0	88 5d ea	 mov	 BYTE PTR __k$[ebp+10], bl
  001e3	eb 37		 jmp	 SHORT $LN1@LoadInt_e@7
$LN87@LoadInt_e@7:
  001e5	88 4d e9	 mov	 BYTE PTR __k$[ebp+9], cl
  001e8	eb 32		 jmp	 SHORT $LN1@LoadInt_e@7
$LN88@LoadInt_e@7:
  001ea	c6 45 e8 ed	 mov	 BYTE PTR __k$[ebp+8], -19 ; ffffffedH
  001ee	eb 2c		 jmp	 SHORT $LN1@LoadInt_e@7
$LN89@LoadInt_e@7:
  001f0	c6 45 e7 ea	 mov	 BYTE PTR __k$[ebp+7], -22 ; ffffffeaH
  001f4	eb 26		 jmp	 SHORT $LN1@LoadInt_e@7
$LN90@LoadInt_e@7:
  001f6	88 5d e6	 mov	 BYTE PTR __k$[ebp+6], bl
  001f9	eb 21		 jmp	 SHORT $LN1@LoadInt_e@7
$LN91@LoadInt_e@7:
  001fb	88 4d e5	 mov	 BYTE PTR __k$[ebp+5], cl
  001fe	eb 1c		 jmp	 SHORT $LN1@LoadInt_e@7
$LN92@LoadInt_e@7:
  00200	c6 45 e4 ed	 mov	 BYTE PTR __k$[ebp+4], -19 ; ffffffedH
  00204	eb 16		 jmp	 SHORT $LN1@LoadInt_e@7
$LN93@LoadInt_e@7:
  00206	c6 45 e3 ea	 mov	 BYTE PTR __k$[ebp+3], -22 ; ffffffeaH
  0020a	eb 10		 jmp	 SHORT $LN1@LoadInt_e@7
$LN94@LoadInt_e@7:
  0020c	c6 45 e2 eb	 mov	 BYTE PTR __k$[ebp+2], -21 ; ffffffebH
  00210	eb 0a		 jmp	 SHORT $LN1@LoadInt_e@7
$LN95@LoadInt_e@7:
  00212	c6 45 e1 ec	 mov	 BYTE PTR __k$[ebp+1], -20 ; ffffffecH
  00216	eb 04		 jmp	 SHORT $LN1@LoadInt_e@7
$LN96@LoadInt_e@7:
  00218	c6 45 e0 ed	 mov	 BYTE PTR __k$[ebp], -19	; ffffffedH
$LN1@LoadInt_e@7:
  0021c	6a 05		 push	 5
  0021e	8d 45 e0	 lea	 eax, DWORD PTR __k$[ebp]
  00221	c6 45 f4 00	 mov	 BYTE PTR __k$[ebp+20], 0
  00225	5a		 pop	 edx
$LL104@LoadInt_e@7:
  00226	81 30 ed ec eb
	ea		 xor	 DWORD PTR [eax], -353637139 ; eaebecedH
  0022c	83 c0 04	 add	 eax, 4
  0022f	4a		 dec	 edx
  00230	75 f4		 jne	 SHORT $LL104@LoadInt_e@7

; 120  : 		return LoadInt(_k, i);

  00232	ff 75 0c	 push	 DWORD PTR _i$[ebp]
  00235	8d 45 e0	 lea	 eax, DWORD PTR __k$[ebp]
  00238	50		 push	 eax
  00239	8b ce		 mov	 ecx, esi
  0023b	ff 15 00 00 00
	00		 call	 DWORD PTR __imp_?LoadInt@ioINILoader@@QAEHPBDH@Z

; 121  : 	}

  00241	8b 4d fc	 mov	 ecx, DWORD PTR __$ArrayPad$[ebp]
  00244	5e		 pop	 esi
  00245	33 cd		 xor	 ecx, ebp
  00247	5b		 pop	 ebx
  00248	e8 00 00 00 00	 call	 @__security_check_cookie@4
  0024d	c9		 leave
  0024e	c2 08 00	 ret	 8
??$LoadInt_e@$0BF@@ioINILoader@@QAEHAAY0BF@$$CBDH@Z ENDP ; ioINILoader::LoadInt_e<21>
_TEXT	ENDS
PUBLIC	__$ArrayPad$
PUBLIC	??$LoadInt_e@$0BG@@ioINILoader@@QAEHAAY0BG@$$CBDH@Z ; ioINILoader::LoadInt_e<22>
; Function compile flags: /Ogsp
;	COMDAT ??$LoadInt_e@$0BG@@ioINILoader@@QAEHAAY0BG@$$CBDH@Z
_TEXT	SEGMENT
__k$ = -32						; size = 22
__$ArrayPad$ = -4					; size = 4
_k$ = 8							; size = 4
_i$ = 12						; size = 4
??$LoadInt_e@$0BG@@ioINILoader@@QAEHAAY0BG@$$CBDH@Z PROC ; ioINILoader::LoadInt_e<22>, COMDAT
; _this$ = ecx

; 118  : 	{

  00000	55		 push	 ebp
  00001	8b ec		 mov	 ebp, esp
  00003	83 ec 20	 sub	 esp, 32			; 00000020H
  00006	a1 00 00 00 00	 mov	 eax, DWORD PTR ___security_cookie
  0000b	33 c5		 xor	 eax, ebp
  0000d	89 45 fc	 mov	 DWORD PTR __$ArrayPad$[ebp], eax
  00010	8b 45 08	 mov	 eax, DWORD PTR _k$[ebp]

; 119  : 		_ENCSTR(k, _k);

  00013	8a 10		 mov	 dl, BYTE PTR [eax]
  00015	53		 push	 ebx
  00016	56		 push	 esi
  00017	8b f1		 mov	 esi, ecx
  00019	84 d2		 test	 dl, dl
  0001b	0f 84 15 02 00
	00		 je	 $LN96@LoadInt_e@8
  00021	80 f2 ed	 xor	 dl, -19			; ffffffedH
  00024	88 55 e0	 mov	 BYTE PTR __k$[ebp], dl
  00027	8a 50 01	 mov	 dl, BYTE PTR [eax+1]
  0002a	84 d2		 test	 dl, dl
  0002c	0f 84 fe 01 00
	00		 je	 $LN95@LoadInt_e@8
  00032	80 f2 ec	 xor	 dl, -20			; ffffffecH
  00035	88 55 e1	 mov	 BYTE PTR __k$[ebp+1], dl
  00038	8a 50 02	 mov	 dl, BYTE PTR [eax+2]
  0003b	84 d2		 test	 dl, dl
  0003d	0f 84 e7 01 00
	00		 je	 $LN94@LoadInt_e@8
  00043	b1 eb		 mov	 cl, -21			; ffffffebH
  00045	32 d1		 xor	 dl, cl
  00047	88 55 e2	 mov	 BYTE PTR __k$[ebp+2], dl
  0004a	8a 50 03	 mov	 dl, BYTE PTR [eax+3]
  0004d	84 d2		 test	 dl, dl
  0004f	0f 84 cf 01 00
	00		 je	 $LN93@LoadInt_e@8
  00055	b3 ea		 mov	 bl, -22			; ffffffeaH
  00057	32 d3		 xor	 dl, bl
  00059	88 55 e3	 mov	 BYTE PTR __k$[ebp+3], dl
  0005c	8a 50 04	 mov	 dl, BYTE PTR [eax+4]
  0005f	84 d2		 test	 dl, dl
  00061	0f 84 b7 01 00
	00		 je	 $LN92@LoadInt_e@8
  00067	80 f2 ed	 xor	 dl, -19			; ffffffedH
  0006a	88 55 e4	 mov	 BYTE PTR __k$[ebp+4], dl
  0006d	8a 50 05	 mov	 dl, BYTE PTR [eax+5]
  00070	84 d2		 test	 dl, dl
  00072	0f 84 a0 01 00
	00		 je	 $LN91@LoadInt_e@8
  00078	80 f2 ec	 xor	 dl, -20			; ffffffecH
  0007b	88 55 e5	 mov	 BYTE PTR __k$[ebp+5], dl
  0007e	8a 50 06	 mov	 dl, BYTE PTR [eax+6]
  00081	84 d2		 test	 dl, dl
  00083	0f 84 8a 01 00
	00		 je	 $LN90@LoadInt_e@8
  00089	32 d1		 xor	 dl, cl
  0008b	88 55 e6	 mov	 BYTE PTR __k$[ebp+6], dl
  0008e	8a 50 07	 mov	 dl, BYTE PTR [eax+7]
  00091	84 d2		 test	 dl, dl
  00093	0f 84 75 01 00
	00		 je	 $LN89@LoadInt_e@8
  00099	32 d3		 xor	 dl, bl
  0009b	88 55 e7	 mov	 BYTE PTR __k$[ebp+7], dl
  0009e	8a 50 08	 mov	 dl, BYTE PTR [eax+8]
  000a1	84 d2		 test	 dl, dl
  000a3	0f 84 5f 01 00
	00		 je	 $LN88@LoadInt_e@8
  000a9	80 f2 ed	 xor	 dl, -19			; ffffffedH
  000ac	88 55 e8	 mov	 BYTE PTR __k$[ebp+8], dl
  000af	8a 50 09	 mov	 dl, BYTE PTR [eax+9]
  000b2	84 d2		 test	 dl, dl
  000b4	0f 84 48 01 00
	00		 je	 $LN87@LoadInt_e@8
  000ba	80 f2 ec	 xor	 dl, -20			; ffffffecH
  000bd	88 55 e9	 mov	 BYTE PTR __k$[ebp+9], dl
  000c0	8a 50 0a	 mov	 dl, BYTE PTR [eax+10]
  000c3	84 d2		 test	 dl, dl
  000c5	0f 84 32 01 00
	00		 je	 $LN86@LoadInt_e@8
  000cb	32 d1		 xor	 dl, cl
  000cd	88 55 ea	 mov	 BYTE PTR __k$[ebp+10], dl
  000d0	8a 50 0b	 mov	 dl, BYTE PTR [eax+11]
  000d3	84 d2		 test	 dl, dl
  000d5	0f 84 1d 01 00
	00		 je	 $LN85@LoadInt_e@8
  000db	32 d3		 xor	 dl, bl
  000dd	88 55 eb	 mov	 BYTE PTR __k$[ebp+11], dl
  000e0	8a 50 0c	 mov	 dl, BYTE PTR [eax+12]
  000e3	84 d2		 test	 dl, dl
  000e5	0f 84 07 01 00
	00		 je	 $LN84@LoadInt_e@8
  000eb	80 f2 ed	 xor	 dl, -19			; ffffffedH
  000ee	88 55 ec	 mov	 BYTE PTR __k$[ebp+12], dl
  000f1	8a 50 0d	 mov	 dl, BYTE PTR [eax+13]
  000f4	84 d2		 test	 dl, dl
  000f6	0f 84 f0 00 00
	00		 je	 $LN83@LoadInt_e@8
  000fc	80 f2 ec	 xor	 dl, -20			; ffffffecH
  000ff	88 55 ed	 mov	 BYTE PTR __k$[ebp+13], dl
  00102	8a 50 0e	 mov	 dl, BYTE PTR [eax+14]
  00105	84 d2		 test	 dl, dl
  00107	0f 84 da 00 00
	00		 je	 $LN82@LoadInt_e@8
  0010d	32 d1		 xor	 dl, cl
  0010f	88 55 ee	 mov	 BYTE PTR __k$[ebp+14], dl
  00112	8a 50 0f	 mov	 dl, BYTE PTR [eax+15]
  00115	84 d2		 test	 dl, dl
  00117	0f 84 c5 00 00
	00		 je	 $LN81@LoadInt_e@8
  0011d	32 d3		 xor	 dl, bl
  0011f	88 55 ef	 mov	 BYTE PTR __k$[ebp+15], dl
  00122	8a 50 10	 mov	 dl, BYTE PTR [eax+16]
  00125	84 d2		 test	 dl, dl
  00127	0f 84 af 00 00
	00		 je	 $LN80@LoadInt_e@8
  0012d	80 f2 ed	 xor	 dl, -19			; ffffffedH
  00130	88 55 f0	 mov	 BYTE PTR __k$[ebp+16], dl
  00133	8a 50 11	 mov	 dl, BYTE PTR [eax+17]
  00136	84 d2		 test	 dl, dl
  00138	0f 84 98 00 00
	00		 je	 $LN79@LoadInt_e@8
  0013e	80 f2 ec	 xor	 dl, -20			; ffffffecH
  00141	88 55 f1	 mov	 BYTE PTR __k$[ebp+17], dl
  00144	8a 50 12	 mov	 dl, BYTE PTR [eax+18]
  00147	84 d2		 test	 dl, dl
  00149	0f 84 82 00 00
	00		 je	 $LN78@LoadInt_e@8
  0014f	32 d1		 xor	 dl, cl
  00151	88 55 f2	 mov	 BYTE PTR __k$[ebp+18], dl
  00154	8a 50 13	 mov	 dl, BYTE PTR [eax+19]
  00157	84 d2		 test	 dl, dl
  00159	74 71		 je	 SHORT $LN77@LoadInt_e@8
  0015b	32 d3		 xor	 dl, bl
  0015d	88 55 f3	 mov	 BYTE PTR __k$[ebp+19], dl
  00160	8a 50 14	 mov	 dl, BYTE PTR [eax+20]
  00163	84 d2		 test	 dl, dl
  00165	74 5f		 je	 SHORT $LN76@LoadInt_e@8
  00167	80 f2 ed	 xor	 dl, -19			; ffffffedH
  0016a	80 78 15 00	 cmp	 BYTE PTR [eax+21], 0
  0016e	88 55 f4	 mov	 BYTE PTR __k$[ebp+20], dl
  00171	0f 84 c3 00 00
	00		 je	 $LN1@LoadInt_e@8
  00177	8a 50 16	 mov	 dl, BYTE PTR [eax+22]
  0017a	84 d2		 test	 dl, dl
  0017c	74 43		 je	 SHORT $LN74@LoadInt_e@8
  0017e	32 d1		 xor	 dl, cl
  00180	88 55 f6	 mov	 BYTE PTR __k$[ebp+22], dl
  00183	8a 50 17	 mov	 dl, BYTE PTR [eax+23]
  00186	84 d2		 test	 dl, dl
  00188	74 32		 je	 SHORT $LN73@LoadInt_e@8
  0018a	32 d3		 xor	 dl, bl
  0018c	88 55 f7	 mov	 BYTE PTR __k$[ebp+23], dl
  0018f	8a 50 18	 mov	 dl, BYTE PTR [eax+24]
  00192	84 d2		 test	 dl, dl
  00194	74 20		 je	 SHORT $LN72@LoadInt_e@8
  00196	8a 40 19	 mov	 al, BYTE PTR [eax+25]
  00199	80 f2 ed	 xor	 dl, -19			; ffffffedH
  0019c	88 55 f8	 mov	 BYTE PTR __k$[ebp+24], dl
  0019f	84 c0		 test	 al, al
  001a1	74 0a		 je	 SHORT $LN71@LoadInt_e@8
  001a3	34 ec		 xor	 al, -20			; ffffffecH
  001a5	88 45 f9	 mov	 BYTE PTR __k$[ebp+25], al
  001a8	e9 8d 00 00 00	 jmp	 $LN1@LoadInt_e@8
$LN71@LoadInt_e@8:
  001ad	c6 45 f9 ec	 mov	 BYTE PTR __k$[ebp+25], -20 ; ffffffecH
  001b1	e9 84 00 00 00	 jmp	 $LN1@LoadInt_e@8
$LN72@LoadInt_e@8:
  001b6	c6 45 f8 ed	 mov	 BYTE PTR __k$[ebp+24], -19 ; ffffffedH
  001ba	eb 7e		 jmp	 SHORT $LN1@LoadInt_e@8
$LN73@LoadInt_e@8:
  001bc	88 5d f7	 mov	 BYTE PTR __k$[ebp+23], bl
  001bf	eb 79		 jmp	 SHORT $LN1@LoadInt_e@8
$LN74@LoadInt_e@8:
  001c1	88 4d f6	 mov	 BYTE PTR __k$[ebp+22], cl
  001c4	eb 74		 jmp	 SHORT $LN1@LoadInt_e@8
$LN76@LoadInt_e@8:
  001c6	c6 45 f4 ed	 mov	 BYTE PTR __k$[ebp+20], -19 ; ffffffedH
  001ca	eb 6e		 jmp	 SHORT $LN1@LoadInt_e@8
$LN77@LoadInt_e@8:
  001cc	88 5d f3	 mov	 BYTE PTR __k$[ebp+19], bl
  001cf	eb 69		 jmp	 SHORT $LN1@LoadInt_e@8
$LN78@LoadInt_e@8:
  001d1	88 4d f2	 mov	 BYTE PTR __k$[ebp+18], cl
  001d4	eb 64		 jmp	 SHORT $LN1@LoadInt_e@8
$LN79@LoadInt_e@8:
  001d6	c6 45 f1 ec	 mov	 BYTE PTR __k$[ebp+17], -20 ; ffffffecH
  001da	eb 5e		 jmp	 SHORT $LN1@LoadInt_e@8
$LN80@LoadInt_e@8:
  001dc	c6 45 f0 ed	 mov	 BYTE PTR __k$[ebp+16], -19 ; ffffffedH
  001e0	eb 58		 jmp	 SHORT $LN1@LoadInt_e@8
$LN81@LoadInt_e@8:
  001e2	88 5d ef	 mov	 BYTE PTR __k$[ebp+15], bl
  001e5	eb 53		 jmp	 SHORT $LN1@LoadInt_e@8
$LN82@LoadInt_e@8:
  001e7	88 4d ee	 mov	 BYTE PTR __k$[ebp+14], cl
  001ea	eb 4e		 jmp	 SHORT $LN1@LoadInt_e@8
$LN83@LoadInt_e@8:
  001ec	c6 45 ed ec	 mov	 BYTE PTR __k$[ebp+13], -20 ; ffffffecH
  001f0	eb 48		 jmp	 SHORT $LN1@LoadInt_e@8
$LN84@LoadInt_e@8:
  001f2	c6 45 ec ed	 mov	 BYTE PTR __k$[ebp+12], -19 ; ffffffedH
  001f6	eb 42		 jmp	 SHORT $LN1@LoadInt_e@8
$LN85@LoadInt_e@8:
  001f8	88 5d eb	 mov	 BYTE PTR __k$[ebp+11], bl
  001fb	eb 3d		 jmp	 SHORT $LN1@LoadInt_e@8
$LN86@LoadInt_e@8:
  001fd	88 4d ea	 mov	 BYTE PTR __k$[ebp+10], cl
  00200	eb 38		 jmp	 SHORT $LN1@LoadInt_e@8
$LN87@LoadInt_e@8:
  00202	c6 45 e9 ec	 mov	 BYTE PTR __k$[ebp+9], -20 ; ffffffecH
  00206	eb 32		 jmp	 SHORT $LN1@LoadInt_e@8
$LN88@LoadInt_e@8:
  00208	c6 45 e8 ed	 mov	 BYTE PTR __k$[ebp+8], -19 ; ffffffedH
  0020c	eb 2c		 jmp	 SHORT $LN1@LoadInt_e@8
$LN89@LoadInt_e@8:
  0020e	88 5d e7	 mov	 BYTE PTR __k$[ebp+7], bl
  00211	eb 27		 jmp	 SHORT $LN1@LoadInt_e@8
$LN90@LoadInt_e@8:
  00213	88 4d e6	 mov	 BYTE PTR __k$[ebp+6], cl
  00216	eb 22		 jmp	 SHORT $LN1@LoadInt_e@8
$LN91@LoadInt_e@8:
  00218	c6 45 e5 ec	 mov	 BYTE PTR __k$[ebp+5], -20 ; ffffffecH
  0021c	eb 1c		 jmp	 SHORT $LN1@LoadInt_e@8
$LN92@LoadInt_e@8:
  0021e	c6 45 e4 ed	 mov	 BYTE PTR __k$[ebp+4], -19 ; ffffffedH
  00222	eb 16		 jmp	 SHORT $LN1@LoadInt_e@8
$LN93@LoadInt_e@8:
  00224	c6 45 e3 ea	 mov	 BYTE PTR __k$[ebp+3], -22 ; ffffffeaH
  00228	eb 10		 jmp	 SHORT $LN1@LoadInt_e@8
$LN94@LoadInt_e@8:
  0022a	c6 45 e2 eb	 mov	 BYTE PTR __k$[ebp+2], -21 ; ffffffebH
  0022e	eb 0a		 jmp	 SHORT $LN1@LoadInt_e@8
$LN95@LoadInt_e@8:
  00230	c6 45 e1 ec	 mov	 BYTE PTR __k$[ebp+1], -20 ; ffffffecH
  00234	eb 04		 jmp	 SHORT $LN1@LoadInt_e@8
$LN96@LoadInt_e@8:
  00236	c6 45 e0 ed	 mov	 BYTE PTR __k$[ebp], -19	; ffffffedH
$LN1@LoadInt_e@8:
  0023a	6a 05		 push	 5
  0023c	8d 45 e0	 lea	 eax, DWORD PTR __k$[ebp]
  0023f	c6 45 f5 00	 mov	 BYTE PTR __k$[ebp+21], 0
  00243	5a		 pop	 edx
$LL104@LoadInt_e@8:
  00244	81 30 ed ec eb
	ea		 xor	 DWORD PTR [eax], -353637139 ; eaebecedH
  0024a	83 c0 04	 add	 eax, 4
  0024d	4a		 dec	 edx
  0024e	75 f4		 jne	 SHORT $LL104@LoadInt_e@8

; 120  : 		return LoadInt(_k, i);

  00250	ff 75 0c	 push	 DWORD PTR _i$[ebp]
  00253	80 75 f4 ed	 xor	 BYTE PTR __k$[ebp+20], -19 ; ffffffedH
  00257	8d 45 e0	 lea	 eax, DWORD PTR __k$[ebp]
  0025a	50		 push	 eax
  0025b	8b ce		 mov	 ecx, esi
  0025d	ff 15 00 00 00
	00		 call	 DWORD PTR __imp_?LoadInt@ioINILoader@@QAEHPBDH@Z

; 121  : 	}

  00263	8b 4d fc	 mov	 ecx, DWORD PTR __$ArrayPad$[ebp]
  00266	5e		 pop	 esi
  00267	33 cd		 xor	 ecx, ebp
  00269	5b		 pop	 ebx
  0026a	e8 00 00 00 00	 call	 @__security_check_cookie@4
  0026f	c9		 leave
  00270	c2 08 00	 ret	 8
??$LoadInt_e@$0BG@@ioINILoader@@QAEHAAY0BG@$$CBDH@Z ENDP ; ioINILoader::LoadInt_e<22>
_TEXT	ENDS
PUBLIC	_this$GSCopy$
PUBLIC	__$ArrayPad$
PUBLIC	??$LoadString_e@$0BA@@ioINILoader@@QAEXAAY0BA@$$CBDAAY00$$CBDPADH@Z ; ioINILoader::LoadString_e<16>
; Function compile flags: /Ogsp
;	COMDAT ??$LoadString_e@$0BA@@ioINILoader@@QAEXAAY0BA@$$CBDAAY00$$CBDPADH@Z
_TEXT	SEGMENT
_this$GSCopy$ = -28					; size = 4
__k$ = -24						; size = 16
__$ArrayPad$ = -4					; size = 4
_k$ = 8							; size = 4
_d$ = 12						; size = 4
_b$ = 16						; size = 4
_i$ = 20						; size = 4
??$LoadString_e@$0BA@@ioINILoader@@QAEXAAY0BA@$$CBDAAY00$$CBDPADH@Z PROC ; ioINILoader::LoadString_e<16>, COMDAT
; _this$ = ecx

; 161  : 	{

  00000	55		 push	 ebp
  00001	8b ec		 mov	 ebp, esp
  00003	83 ec 1c	 sub	 esp, 28			; 0000001cH
  00006	a1 00 00 00 00	 mov	 eax, DWORD PTR ___security_cookie
  0000b	33 c5		 xor	 eax, ebp
  0000d	89 45 fc	 mov	 DWORD PTR __$ArrayPad$[ebp], eax
  00010	8b 45 08	 mov	 eax, DWORD PTR _k$[ebp]

; 162  : 		_ENCSTR(k, _k);

  00013	8a 10		 mov	 dl, BYTE PTR [eax]
  00015	56		 push	 esi
  00016	8b 75 0c	 mov	 esi, DWORD PTR _d$[ebp]
  00019	57		 push	 edi
  0001a	8b 7d 10	 mov	 edi, DWORD PTR _b$[ebp]
  0001d	89 4d e4	 mov	 DWORD PTR _this$GSCopy$[ebp], ecx
  00020	84 d2		 test	 dl, dl
  00022	0f 84 8c 01 00
	00		 je	 $LN96@LoadString@4
  00028	80 f2 ed	 xor	 dl, -19			; ffffffedH
  0002b	88 55 e8	 mov	 BYTE PTR __k$[ebp], dl
  0002e	8a 50 01	 mov	 dl, BYTE PTR [eax+1]
  00031	84 d2		 test	 dl, dl
  00033	0f 84 75 01 00
	00		 je	 $LN95@LoadString@4
  00039	80 f2 ec	 xor	 dl, -20			; ffffffecH
  0003c	88 55 e9	 mov	 BYTE PTR __k$[ebp+1], dl
  0003f	8a 50 02	 mov	 dl, BYTE PTR [eax+2]
  00042	84 d2		 test	 dl, dl
  00044	0f 84 5e 01 00
	00		 je	 $LN94@LoadString@4
  0004a	b1 eb		 mov	 cl, -21			; ffffffebH
  0004c	32 d1		 xor	 dl, cl
  0004e	88 55 ea	 mov	 BYTE PTR __k$[ebp+2], dl
  00051	8a 50 03	 mov	 dl, BYTE PTR [eax+3]
  00054	84 d2		 test	 dl, dl
  00056	0f 84 46 01 00
	00		 je	 $LN93@LoadString@4
  0005c	80 f2 ea	 xor	 dl, -22			; ffffffeaH
  0005f	88 55 eb	 mov	 BYTE PTR __k$[ebp+3], dl
  00062	8a 50 04	 mov	 dl, BYTE PTR [eax+4]
  00065	84 d2		 test	 dl, dl
  00067	0f 84 2f 01 00
	00		 je	 $LN92@LoadString@4
  0006d	80 f2 ed	 xor	 dl, -19			; ffffffedH
  00070	88 55 ec	 mov	 BYTE PTR __k$[ebp+4], dl
  00073	8a 50 05	 mov	 dl, BYTE PTR [eax+5]
  00076	84 d2		 test	 dl, dl
  00078	0f 84 18 01 00
	00		 je	 $LN91@LoadString@4
  0007e	80 f2 ec	 xor	 dl, -20			; ffffffecH
  00081	88 55 ed	 mov	 BYTE PTR __k$[ebp+5], dl
  00084	8a 50 06	 mov	 dl, BYTE PTR [eax+6]
  00087	84 d2		 test	 dl, dl
  00089	0f 84 02 01 00
	00		 je	 $LN90@LoadString@4
  0008f	32 d1		 xor	 dl, cl
  00091	88 55 ee	 mov	 BYTE PTR __k$[ebp+6], dl
  00094	8a 50 07	 mov	 dl, BYTE PTR [eax+7]
  00097	84 d2		 test	 dl, dl
  00099	0f 84 ec 00 00
	00		 je	 $LN89@LoadString@4
  0009f	80 f2 ea	 xor	 dl, -22			; ffffffeaH
  000a2	88 55 ef	 mov	 BYTE PTR __k$[ebp+7], dl
  000a5	8a 50 08	 mov	 dl, BYTE PTR [eax+8]
  000a8	84 d2		 test	 dl, dl
  000aa	0f 84 d5 00 00
	00		 je	 $LN88@LoadString@4
  000b0	80 f2 ed	 xor	 dl, -19			; ffffffedH
  000b3	88 55 f0	 mov	 BYTE PTR __k$[ebp+8], dl
  000b6	8a 50 09	 mov	 dl, BYTE PTR [eax+9]
  000b9	84 d2		 test	 dl, dl
  000bb	0f 84 be 00 00
	00		 je	 $LN87@LoadString@4
  000c1	80 f2 ec	 xor	 dl, -20			; ffffffecH
  000c4	88 55 f1	 mov	 BYTE PTR __k$[ebp+9], dl
  000c7	8a 50 0a	 mov	 dl, BYTE PTR [eax+10]
  000ca	84 d2		 test	 dl, dl
  000cc	0f 84 a8 00 00
	00		 je	 $LN86@LoadString@4
  000d2	32 d1		 xor	 dl, cl
  000d4	88 55 f2	 mov	 BYTE PTR __k$[ebp+10], dl
  000d7	8a 50 0b	 mov	 dl, BYTE PTR [eax+11]
  000da	84 d2		 test	 dl, dl
  000dc	0f 84 92 00 00
	00		 je	 $LN85@LoadString@4
  000e2	80 f2 ea	 xor	 dl, -22			; ffffffeaH
  000e5	88 55 f3	 mov	 BYTE PTR __k$[ebp+11], dl
  000e8	8a 50 0c	 mov	 dl, BYTE PTR [eax+12]
  000eb	84 d2		 test	 dl, dl
  000ed	74 7f		 je	 SHORT $LN84@LoadString@4
  000ef	80 f2 ed	 xor	 dl, -19			; ffffffedH
  000f2	88 55 f4	 mov	 BYTE PTR __k$[ebp+12], dl
  000f5	8a 50 0d	 mov	 dl, BYTE PTR [eax+13]
  000f8	84 d2		 test	 dl, dl
  000fa	74 6c		 je	 SHORT $LN83@LoadString@4
  000fc	80 f2 ec	 xor	 dl, -20			; ffffffecH
  000ff	88 55 f5	 mov	 BYTE PTR __k$[ebp+13], dl
  00102	8a 50 0e	 mov	 dl, BYTE PTR [eax+14]
  00105	84 d2		 test	 dl, dl
  00107	74 5a		 je	 SHORT $LN82@LoadString@4
  00109	32 d1		 xor	 dl, cl
  0010b	80 78 0f 00	 cmp	 BYTE PTR [eax+15], 0
  0010f	88 55 f6	 mov	 BYTE PTR __k$[ebp+14], dl
  00112	0f 84 a0 00 00
	00		 je	 $LN111@LoadString@4
  00118	8a 50 10	 mov	 dl, BYTE PTR [eax+16]
  0011b	84 d2		 test	 dl, dl
  0011d	74 3e		 je	 SHORT $LN80@LoadString@4
  0011f	80 f2 ed	 xor	 dl, -19			; ffffffedH
  00122	88 55 f8	 mov	 BYTE PTR __k$[ebp+16], dl
  00125	8a 50 11	 mov	 dl, BYTE PTR [eax+17]
  00128	84 d2		 test	 dl, dl
  0012a	74 2b		 je	 SHORT $LN79@LoadString@4
  0012c	80 f2 ec	 xor	 dl, -20			; ffffffecH
  0012f	88 55 f9	 mov	 BYTE PTR __k$[ebp+17], dl
  00132	8a 50 12	 mov	 dl, BYTE PTR [eax+18]
  00135	84 d2		 test	 dl, dl
  00137	74 19		 je	 SHORT $LN78@LoadString@4
  00139	8a 40 13	 mov	 al, BYTE PTR [eax+19]
  0013c	32 d1		 xor	 dl, cl
  0013e	88 55 fa	 mov	 BYTE PTR __k$[ebp+18], dl
  00141	84 c0		 test	 al, al
  00143	74 07		 je	 SHORT $LN77@LoadString@4
  00145	34 ea		 xor	 al, -22			; ffffffeaH
  00147	88 45 fb	 mov	 BYTE PTR __k$[ebp+19], al
  0014a	eb 6c		 jmp	 SHORT $LN111@LoadString@4
$LN77@LoadString@4:
  0014c	c6 45 fb ea	 mov	 BYTE PTR __k$[ebp+19], -22 ; ffffffeaH
  00150	eb 66		 jmp	 SHORT $LN111@LoadString@4
$LN78@LoadString@4:
  00152	88 4d fa	 mov	 BYTE PTR __k$[ebp+18], cl
  00155	eb 61		 jmp	 SHORT $LN111@LoadString@4
$LN79@LoadString@4:
  00157	c6 45 f9 ec	 mov	 BYTE PTR __k$[ebp+17], -20 ; ffffffecH
  0015b	eb 5b		 jmp	 SHORT $LN111@LoadString@4
$LN80@LoadString@4:
  0015d	c6 45 f8 ed	 mov	 BYTE PTR __k$[ebp+16], -19 ; ffffffedH
  00161	eb 55		 jmp	 SHORT $LN111@LoadString@4
$LN82@LoadString@4:
  00163	88 4d f6	 mov	 BYTE PTR __k$[ebp+14], cl
  00166	eb 50		 jmp	 SHORT $LN111@LoadString@4
$LN83@LoadString@4:
  00168	c6 45 f5 ec	 mov	 BYTE PTR __k$[ebp+13], -20 ; ffffffecH
  0016c	eb 4a		 jmp	 SHORT $LN111@LoadString@4
$LN84@LoadString@4:
  0016e	c6 45 f4 ed	 mov	 BYTE PTR __k$[ebp+12], -19 ; ffffffedH
  00172	eb 44		 jmp	 SHORT $LN111@LoadString@4
$LN85@LoadString@4:
  00174	c6 45 f3 ea	 mov	 BYTE PTR __k$[ebp+11], -22 ; ffffffeaH
  00178	eb 3e		 jmp	 SHORT $LN111@LoadString@4
$LN86@LoadString@4:
  0017a	88 4d f2	 mov	 BYTE PTR __k$[ebp+10], cl
  0017d	eb 39		 jmp	 SHORT $LN111@LoadString@4
$LN87@LoadString@4:
  0017f	c6 45 f1 ec	 mov	 BYTE PTR __k$[ebp+9], -20 ; ffffffecH
  00183	eb 33		 jmp	 SHORT $LN111@LoadString@4
$LN88@LoadString@4:
  00185	c6 45 f0 ed	 mov	 BYTE PTR __k$[ebp+8], -19 ; ffffffedH
  00189	eb 2d		 jmp	 SHORT $LN111@LoadString@4
$LN89@LoadString@4:
  0018b	c6 45 ef ea	 mov	 BYTE PTR __k$[ebp+7], -22 ; ffffffeaH
  0018f	eb 27		 jmp	 SHORT $LN111@LoadString@4
$LN90@LoadString@4:
  00191	88 4d ee	 mov	 BYTE PTR __k$[ebp+6], cl
  00194	eb 22		 jmp	 SHORT $LN111@LoadString@4
$LN91@LoadString@4:
  00196	c6 45 ed ec	 mov	 BYTE PTR __k$[ebp+5], -20 ; ffffffecH
  0019a	eb 1c		 jmp	 SHORT $LN111@LoadString@4
$LN92@LoadString@4:
  0019c	c6 45 ec ed	 mov	 BYTE PTR __k$[ebp+4], -19 ; ffffffedH
  001a0	eb 16		 jmp	 SHORT $LN111@LoadString@4
$LN93@LoadString@4:
  001a2	c6 45 eb ea	 mov	 BYTE PTR __k$[ebp+3], -22 ; ffffffeaH
  001a6	eb 10		 jmp	 SHORT $LN111@LoadString@4
$LN94@LoadString@4:
  001a8	c6 45 ea eb	 mov	 BYTE PTR __k$[ebp+2], -21 ; ffffffebH
  001ac	eb 0a		 jmp	 SHORT $LN111@LoadString@4
$LN95@LoadString@4:
  001ae	c6 45 e9 ec	 mov	 BYTE PTR __k$[ebp+1], -20 ; ffffffecH
  001b2	eb 04		 jmp	 SHORT $LN111@LoadString@4
$LN96@LoadString@4:
  001b4	c6 45 e8 ed	 mov	 BYTE PTR __k$[ebp], -19	; ffffffedH
$LN111@LoadString@4:
  001b8	6a 03		 push	 3
  001ba	8d 45 e8	 lea	 eax, DWORD PTR __k$[ebp]
  001bd	c6 45 f7 00	 mov	 BYTE PTR __k$[ebp+15], 0
  001c1	5a		 pop	 edx
$LL104@LoadString@4:
  001c2	81 30 ed ec eb
	ea		 xor	 DWORD PTR [eax], -353637139 ; eaebecedH
  001c8	83 c0 04	 add	 eax, 4
  001cb	4a		 dec	 edx
  001cc	75 f4		 jne	 SHORT $LL104@LoadString@4
  001ce	6a 0c		 push	 12			; 0000000cH
  001d0	58		 pop	 eax
$LL101@LoadString@4:
  001d1	8b c8		 mov	 ecx, eax
  001d3	81 e1 03 00 00
	80		 and	 ecx, -2147483645	; 80000003H
  001d9	79 05		 jns	 SHORT $LN112@LoadString@4
  001db	49		 dec	 ecx
  001dc	83 c9 fc	 or	 ecx, -4			; fffffffcH
  001df	41		 inc	 ecx
$LN112@LoadString@4:
  001e0	b2 ed		 mov	 dl, -19			; ffffffedH
  001e2	2a d1		 sub	 dl, cl
  001e4	30 54 05 e8	 xor	 BYTE PTR __k$[ebp+eax], dl
  001e8	40		 inc	 eax
  001e9	83 f8 0f	 cmp	 eax, 15			; 0000000fH
  001ec	7c e3		 jl	 SHORT $LL101@LoadString@4

; 163  : 		LoadString(_k, d, b, i);

  001ee	ff 75 14	 push	 DWORD PTR _i$[ebp]
  001f1	8b 4d e4	 mov	 ecx, DWORD PTR _this$GSCopy$[ebp]
  001f4	57		 push	 edi
  001f5	56		 push	 esi
  001f6	8d 45 e8	 lea	 eax, DWORD PTR __k$[ebp]
  001f9	50		 push	 eax
  001fa	ff 15 00 00 00
	00		 call	 DWORD PTR __imp_?LoadStringA@ioINILoader@@QAEXPBD0PADH@Z

; 164  : 	}

  00200	8b 4d fc	 mov	 ecx, DWORD PTR __$ArrayPad$[ebp]
  00203	5f		 pop	 edi
  00204	33 cd		 xor	 ecx, ebp
  00206	5e		 pop	 esi
  00207	e8 00 00 00 00	 call	 @__security_check_cookie@4
  0020c	c9		 leave
  0020d	c2 10 00	 ret	 16			; 00000010H
??$LoadString_e@$0BA@@ioINILoader@@QAEXAAY0BA@$$CBDAAY00$$CBDPADH@Z ENDP ; ioINILoader::LoadString_e<16>
_TEXT	ENDS
PUBLIC	__$ArrayPad$
PUBLIC	??$LoadFloat_e@$0BF@@ioINILoader@@QAEMAAY0BF@$$CBDM@Z ; ioINILoader::LoadFloat_e<21>
; Function compile flags: /Ogsp
;	COMDAT ??$LoadFloat_e@$0BF@@ioINILoader@@QAEMAAY0BF@$$CBDM@Z
_TEXT	SEGMENT
__k$ = -32						; size = 21
__$ArrayPad$ = -4					; size = 4
_k$ = 8							; size = 4
_f$ = 12						; size = 4
??$LoadFloat_e@$0BF@@ioINILoader@@QAEMAAY0BF@$$CBDM@Z PROC ; ioINILoader::LoadFloat_e<21>, COMDAT
; _this$ = ecx

; 135  : 	{

  00000	55		 push	 ebp
  00001	8b ec		 mov	 ebp, esp
  00003	83 ec 20	 sub	 esp, 32			; 00000020H
  00006	a1 00 00 00 00	 mov	 eax, DWORD PTR ___security_cookie
  0000b	33 c5		 xor	 eax, ebp
  0000d	89 45 fc	 mov	 DWORD PTR __$ArrayPad$[ebp], eax
  00010	8b 45 08	 mov	 eax, DWORD PTR _k$[ebp]

; 136  : 		_ENCSTR(k, _k);

  00013	8a 10		 mov	 dl, BYTE PTR [eax]
  00015	53		 push	 ebx
  00016	56		 push	 esi
  00017	8b f1		 mov	 esi, ecx
  00019	84 d2		 test	 dl, dl
  0001b	0f 84 f7 01 00
	00		 je	 $LN96@LoadFloat_@6
  00021	80 f2 ed	 xor	 dl, -19			; ffffffedH
  00024	88 55 e0	 mov	 BYTE PTR __k$[ebp], dl
  00027	8a 50 01	 mov	 dl, BYTE PTR [eax+1]
  0002a	84 d2		 test	 dl, dl
  0002c	0f 84 e0 01 00
	00		 je	 $LN95@LoadFloat_@6
  00032	b1 ec		 mov	 cl, -20			; ffffffecH
  00034	32 d1		 xor	 dl, cl
  00036	88 55 e1	 mov	 BYTE PTR __k$[ebp+1], dl
  00039	8a 50 02	 mov	 dl, BYTE PTR [eax+2]
  0003c	84 d2		 test	 dl, dl
  0003e	0f 84 c8 01 00
	00		 je	 $LN94@LoadFloat_@6
  00044	b3 eb		 mov	 bl, -21			; ffffffebH
  00046	32 d3		 xor	 dl, bl
  00048	88 55 e2	 mov	 BYTE PTR __k$[ebp+2], dl
  0004b	8a 50 03	 mov	 dl, BYTE PTR [eax+3]
  0004e	84 d2		 test	 dl, dl
  00050	0f 84 b0 01 00
	00		 je	 $LN93@LoadFloat_@6
  00056	80 f2 ea	 xor	 dl, -22			; ffffffeaH
  00059	88 55 e3	 mov	 BYTE PTR __k$[ebp+3], dl
  0005c	8a 50 04	 mov	 dl, BYTE PTR [eax+4]
  0005f	84 d2		 test	 dl, dl
  00061	0f 84 99 01 00
	00		 je	 $LN92@LoadFloat_@6
  00067	80 f2 ed	 xor	 dl, -19			; ffffffedH
  0006a	88 55 e4	 mov	 BYTE PTR __k$[ebp+4], dl
  0006d	8a 50 05	 mov	 dl, BYTE PTR [eax+5]
  00070	84 d2		 test	 dl, dl
  00072	0f 84 83 01 00
	00		 je	 $LN91@LoadFloat_@6
  00078	32 d1		 xor	 dl, cl
  0007a	88 55 e5	 mov	 BYTE PTR __k$[ebp+5], dl
  0007d	8a 50 06	 mov	 dl, BYTE PTR [eax+6]
  00080	84 d2		 test	 dl, dl
  00082	0f 84 6e 01 00
	00		 je	 $LN90@LoadFloat_@6
  00088	32 d3		 xor	 dl, bl
  0008a	88 55 e6	 mov	 BYTE PTR __k$[ebp+6], dl
  0008d	8a 50 07	 mov	 dl, BYTE PTR [eax+7]
  00090	84 d2		 test	 dl, dl
  00092	0f 84 58 01 00
	00		 je	 $LN89@LoadFloat_@6
  00098	80 f2 ea	 xor	 dl, -22			; ffffffeaH
  0009b	88 55 e7	 mov	 BYTE PTR __k$[ebp+7], dl
  0009e	8a 50 08	 mov	 dl, BYTE PTR [eax+8]
  000a1	84 d2		 test	 dl, dl
  000a3	0f 84 41 01 00
	00		 je	 $LN88@LoadFloat_@6
  000a9	80 f2 ed	 xor	 dl, -19			; ffffffedH
  000ac	88 55 e8	 mov	 BYTE PTR __k$[ebp+8], dl
  000af	8a 50 09	 mov	 dl, BYTE PTR [eax+9]
  000b2	84 d2		 test	 dl, dl
  000b4	0f 84 2b 01 00
	00		 je	 $LN87@LoadFloat_@6
  000ba	32 d1		 xor	 dl, cl
  000bc	88 55 e9	 mov	 BYTE PTR __k$[ebp+9], dl
  000bf	8a 50 0a	 mov	 dl, BYTE PTR [eax+10]
  000c2	84 d2		 test	 dl, dl
  000c4	0f 84 16 01 00
	00		 je	 $LN86@LoadFloat_@6
  000ca	32 d3		 xor	 dl, bl
  000cc	88 55 ea	 mov	 BYTE PTR __k$[ebp+10], dl
  000cf	8a 50 0b	 mov	 dl, BYTE PTR [eax+11]
  000d2	84 d2		 test	 dl, dl
  000d4	0f 84 00 01 00
	00		 je	 $LN85@LoadFloat_@6
  000da	80 f2 ea	 xor	 dl, -22			; ffffffeaH
  000dd	88 55 eb	 mov	 BYTE PTR __k$[ebp+11], dl
  000e0	8a 50 0c	 mov	 dl, BYTE PTR [eax+12]
  000e3	84 d2		 test	 dl, dl
  000e5	0f 84 e9 00 00
	00		 je	 $LN84@LoadFloat_@6
  000eb	80 f2 ed	 xor	 dl, -19			; ffffffedH
  000ee	88 55 ec	 mov	 BYTE PTR __k$[ebp+12], dl
  000f1	8a 50 0d	 mov	 dl, BYTE PTR [eax+13]
  000f4	84 d2		 test	 dl, dl
  000f6	0f 84 d3 00 00
	00		 je	 $LN83@LoadFloat_@6
  000fc	32 d1		 xor	 dl, cl
  000fe	88 55 ed	 mov	 BYTE PTR __k$[ebp+13], dl
  00101	8a 50 0e	 mov	 dl, BYTE PTR [eax+14]
  00104	84 d2		 test	 dl, dl
  00106	0f 84 be 00 00
	00		 je	 $LN82@LoadFloat_@6
  0010c	32 d3		 xor	 dl, bl
  0010e	88 55 ee	 mov	 BYTE PTR __k$[ebp+14], dl
  00111	8a 50 0f	 mov	 dl, BYTE PTR [eax+15]
  00114	84 d2		 test	 dl, dl
  00116	0f 84 a8 00 00
	00		 je	 $LN81@LoadFloat_@6
  0011c	80 f2 ea	 xor	 dl, -22			; ffffffeaH
  0011f	88 55 ef	 mov	 BYTE PTR __k$[ebp+15], dl
  00122	8a 50 10	 mov	 dl, BYTE PTR [eax+16]
  00125	84 d2		 test	 dl, dl
  00127	0f 84 91 00 00
	00		 je	 $LN80@LoadFloat_@6
  0012d	80 f2 ed	 xor	 dl, -19			; ffffffedH
  00130	88 55 f0	 mov	 BYTE PTR __k$[ebp+16], dl
  00133	8a 50 11	 mov	 dl, BYTE PTR [eax+17]
  00136	84 d2		 test	 dl, dl
  00138	74 7f		 je	 SHORT $LN79@LoadFloat_@6
  0013a	32 d1		 xor	 dl, cl
  0013c	88 55 f1	 mov	 BYTE PTR __k$[ebp+17], dl
  0013f	8a 50 12	 mov	 dl, BYTE PTR [eax+18]
  00142	84 d2		 test	 dl, dl
  00144	74 6e		 je	 SHORT $LN78@LoadFloat_@6
  00146	32 d3		 xor	 dl, bl
  00148	88 55 f2	 mov	 BYTE PTR __k$[ebp+18], dl
  0014b	8a 50 13	 mov	 dl, BYTE PTR [eax+19]
  0014e	84 d2		 test	 dl, dl
  00150	74 5c		 je	 SHORT $LN77@LoadFloat_@6
  00152	80 f2 ea	 xor	 dl, -22			; ffffffeaH
  00155	80 78 14 00	 cmp	 BYTE PTR [eax+20], 0
  00159	88 55 f3	 mov	 BYTE PTR __k$[ebp+19], dl
  0015c	0f 84 ba 00 00
	00		 je	 $LN1@LoadFloat_@6
  00162	8a 50 15	 mov	 dl, BYTE PTR [eax+21]
  00165	84 d2		 test	 dl, dl
  00167	74 40		 je	 SHORT $LN75@LoadFloat_@6
  00169	32 d1		 xor	 dl, cl
  0016b	88 55 f5	 mov	 BYTE PTR __k$[ebp+21], dl
  0016e	8a 50 16	 mov	 dl, BYTE PTR [eax+22]
  00171	84 d2		 test	 dl, dl
  00173	74 2f		 je	 SHORT $LN74@LoadFloat_@6
  00175	32 d3		 xor	 dl, bl
  00177	88 55 f6	 mov	 BYTE PTR __k$[ebp+22], dl
  0017a	8a 50 17	 mov	 dl, BYTE PTR [eax+23]
  0017d	84 d2		 test	 dl, dl
  0017f	74 1d		 je	 SHORT $LN73@LoadFloat_@6
  00181	8a 40 18	 mov	 al, BYTE PTR [eax+24]
  00184	80 f2 ea	 xor	 dl, -22			; ffffffeaH
  00187	88 55 f7	 mov	 BYTE PTR __k$[ebp+23], dl
  0018a	84 c0		 test	 al, al
  0018c	74 0a		 je	 SHORT $LN72@LoadFloat_@6
  0018e	34 ed		 xor	 al, -19			; ffffffedH
  00190	88 45 f8	 mov	 BYTE PTR __k$[ebp+24], al
  00193	e9 84 00 00 00	 jmp	 $LN1@LoadFloat_@6
$LN72@LoadFloat_@6:
  00198	c6 45 f8 ed	 mov	 BYTE PTR __k$[ebp+24], -19 ; ffffffedH
  0019c	eb 7e		 jmp	 SHORT $LN1@LoadFloat_@6
$LN73@LoadFloat_@6:
  0019e	c6 45 f7 ea	 mov	 BYTE PTR __k$[ebp+23], -22 ; ffffffeaH
  001a2	eb 78		 jmp	 SHORT $LN1@LoadFloat_@6
$LN74@LoadFloat_@6:
  001a4	88 5d f6	 mov	 BYTE PTR __k$[ebp+22], bl
  001a7	eb 73		 jmp	 SHORT $LN1@LoadFloat_@6
$LN75@LoadFloat_@6:
  001a9	88 4d f5	 mov	 BYTE PTR __k$[ebp+21], cl
  001ac	eb 6e		 jmp	 SHORT $LN1@LoadFloat_@6
$LN77@LoadFloat_@6:
  001ae	c6 45 f3 ea	 mov	 BYTE PTR __k$[ebp+19], -22 ; ffffffeaH
  001b2	eb 68		 jmp	 SHORT $LN1@LoadFloat_@6
$LN78@LoadFloat_@6:
  001b4	88 5d f2	 mov	 BYTE PTR __k$[ebp+18], bl
  001b7	eb 63		 jmp	 SHORT $LN1@LoadFloat_@6
$LN79@LoadFloat_@6:
  001b9	88 4d f1	 mov	 BYTE PTR __k$[ebp+17], cl
  001bc	eb 5e		 jmp	 SHORT $LN1@LoadFloat_@6
$LN80@LoadFloat_@6:
  001be	c6 45 f0 ed	 mov	 BYTE PTR __k$[ebp+16], -19 ; ffffffedH
  001c2	eb 58		 jmp	 SHORT $LN1@LoadFloat_@6
$LN81@LoadFloat_@6:
  001c4	c6 45 ef ea	 mov	 BYTE PTR __k$[ebp+15], -22 ; ffffffeaH
  001c8	eb 52		 jmp	 SHORT $LN1@LoadFloat_@6
$LN82@LoadFloat_@6:
  001ca	88 5d ee	 mov	 BYTE PTR __k$[ebp+14], bl
  001cd	eb 4d		 jmp	 SHORT $LN1@LoadFloat_@6
$LN83@LoadFloat_@6:
  001cf	88 4d ed	 mov	 BYTE PTR __k$[ebp+13], cl
  001d2	eb 48		 jmp	 SHORT $LN1@LoadFloat_@6
$LN84@LoadFloat_@6:
  001d4	c6 45 ec ed	 mov	 BYTE PTR __k$[ebp+12], -19 ; ffffffedH
  001d8	eb 42		 jmp	 SHORT $LN1@LoadFloat_@6
$LN85@LoadFloat_@6:
  001da	c6 45 eb ea	 mov	 BYTE PTR __k$[ebp+11], -22 ; ffffffeaH
  001de	eb 3c		 jmp	 SHORT $LN1@LoadFloat_@6
$LN86@LoadFloat_@6:
  001e0	88 5d ea	 mov	 BYTE PTR __k$[ebp+10], bl
  001e3	eb 37		 jmp	 SHORT $LN1@LoadFloat_@6
$LN87@LoadFloat_@6:
  001e5	88 4d e9	 mov	 BYTE PTR __k$[ebp+9], cl
  001e8	eb 32		 jmp	 SHORT $LN1@LoadFloat_@6
$LN88@LoadFloat_@6:
  001ea	c6 45 e8 ed	 mov	 BYTE PTR __k$[ebp+8], -19 ; ffffffedH
  001ee	eb 2c		 jmp	 SHORT $LN1@LoadFloat_@6
$LN89@LoadFloat_@6:
  001f0	c6 45 e7 ea	 mov	 BYTE PTR __k$[ebp+7], -22 ; ffffffeaH
  001f4	eb 26		 jmp	 SHORT $LN1@LoadFloat_@6
$LN90@LoadFloat_@6:
  001f6	88 5d e6	 mov	 BYTE PTR __k$[ebp+6], bl
  001f9	eb 21		 jmp	 SHORT $LN1@LoadFloat_@6
$LN91@LoadFloat_@6:
  001fb	88 4d e5	 mov	 BYTE PTR __k$[ebp+5], cl
  001fe	eb 1c		 jmp	 SHORT $LN1@LoadFloat_@6
$LN92@LoadFloat_@6:
  00200	c6 45 e4 ed	 mov	 BYTE PTR __k$[ebp+4], -19 ; ffffffedH
  00204	eb 16		 jmp	 SHORT $LN1@LoadFloat_@6
$LN93@LoadFloat_@6:
  00206	c6 45 e3 ea	 mov	 BYTE PTR __k$[ebp+3], -22 ; ffffffeaH
  0020a	eb 10		 jmp	 SHORT $LN1@LoadFloat_@6
$LN94@LoadFloat_@6:
  0020c	c6 45 e2 eb	 mov	 BYTE PTR __k$[ebp+2], -21 ; ffffffebH
  00210	eb 0a		 jmp	 SHORT $LN1@LoadFloat_@6
$LN95@LoadFloat_@6:
  00212	c6 45 e1 ec	 mov	 BYTE PTR __k$[ebp+1], -20 ; ffffffecH
  00216	eb 04		 jmp	 SHORT $LN1@LoadFloat_@6
$LN96@LoadFloat_@6:
  00218	c6 45 e0 ed	 mov	 BYTE PTR __k$[ebp], -19	; ffffffedH
$LN1@LoadFloat_@6:
  0021c	6a 05		 push	 5
  0021e	8d 45 e0	 lea	 eax, DWORD PTR __k$[ebp]
  00221	c6 45 f4 00	 mov	 BYTE PTR __k$[ebp+20], 0
  00225	5a		 pop	 edx
$LL104@LoadFloat_@6:
  00226	81 30 ed ec eb
	ea		 xor	 DWORD PTR [eax], -353637139 ; eaebecedH
  0022c	83 c0 04	 add	 eax, 4
  0022f	4a		 dec	 edx
  00230	75 f4		 jne	 SHORT $LL104@LoadFloat_@6

; 137  : 		return LoadFloat(_k, f);

  00232	f3 0f 10 45 0c	 movss	 xmm0, DWORD PTR _f$[ebp]
  00237	51		 push	 ecx
  00238	8d 45 e0	 lea	 eax, DWORD PTR __k$[ebp]
  0023b	f3 0f 11 04 24	 movss	 DWORD PTR [esp], xmm0
  00240	50		 push	 eax
  00241	8b ce		 mov	 ecx, esi
  00243	ff 15 00 00 00
	00		 call	 DWORD PTR __imp_?LoadFloat@ioINILoader@@QAEMPBDM@Z

; 138  : 	}

  00249	8b 4d fc	 mov	 ecx, DWORD PTR __$ArrayPad$[ebp]
  0024c	5e		 pop	 esi
  0024d	33 cd		 xor	 ecx, ebp
  0024f	5b		 pop	 ebx
  00250	e8 00 00 00 00	 call	 @__security_check_cookie@4
  00255	c9		 leave
  00256	c2 08 00	 ret	 8
??$LoadFloat_e@$0BF@@ioINILoader@@QAEMAAY0BF@$$CBDM@Z ENDP ; ioINILoader::LoadFloat_e<21>
_TEXT	ENDS
PUBLIC	_this$GSCopy$
PUBLIC	__$ArrayPad$
PUBLIC	??$LoadString_e@$0P@@ioINILoader@@QAEXAAY0P@$$CBDAAY00$$CBDPADH@Z ; ioINILoader::LoadString_e<15>
; Function compile flags: /Ogsp
;	COMDAT ??$LoadString_e@$0P@@ioINILoader@@QAEXAAY0P@$$CBDAAY00$$CBDPADH@Z
_TEXT	SEGMENT
_this$GSCopy$ = -28					; size = 4
__k$ = -24						; size = 15
__$ArrayPad$ = -4					; size = 4
_k$ = 8							; size = 4
_d$ = 12						; size = 4
_b$ = 16						; size = 4
_i$ = 20						; size = 4
??$LoadString_e@$0P@@ioINILoader@@QAEXAAY0P@$$CBDAAY00$$CBDPADH@Z PROC ; ioINILoader::LoadString_e<15>, COMDAT
; _this$ = ecx

; 161  : 	{

  00000	55		 push	 ebp
  00001	8b ec		 mov	 ebp, esp
  00003	83 ec 1c	 sub	 esp, 28			; 0000001cH
  00006	a1 00 00 00 00	 mov	 eax, DWORD PTR ___security_cookie
  0000b	33 c5		 xor	 eax, ebp
  0000d	89 45 fc	 mov	 DWORD PTR __$ArrayPad$[ebp], eax
  00010	8b 45 08	 mov	 eax, DWORD PTR _k$[ebp]

; 162  : 		_ENCSTR(k, _k);

  00013	8a 10		 mov	 dl, BYTE PTR [eax]
  00015	56		 push	 esi
  00016	8b 75 0c	 mov	 esi, DWORD PTR _d$[ebp]
  00019	57		 push	 edi
  0001a	8b 7d 10	 mov	 edi, DWORD PTR _b$[ebp]
  0001d	89 4d e4	 mov	 DWORD PTR _this$GSCopy$[ebp], ecx
  00020	84 d2		 test	 dl, dl
  00022	0f 84 75 01 00
	00		 je	 $LN96@LoadString@5
  00028	80 f2 ed	 xor	 dl, -19			; ffffffedH
  0002b	88 55 e8	 mov	 BYTE PTR __k$[ebp], dl
  0002e	8a 50 01	 mov	 dl, BYTE PTR [eax+1]
  00031	84 d2		 test	 dl, dl
  00033	0f 84 5e 01 00
	00		 je	 $LN95@LoadString@5
  00039	b1 ec		 mov	 cl, -20			; ffffffecH
  0003b	32 d1		 xor	 dl, cl
  0003d	88 55 e9	 mov	 BYTE PTR __k$[ebp+1], dl
  00040	8a 50 02	 mov	 dl, BYTE PTR [eax+2]
  00043	84 d2		 test	 dl, dl
  00045	0f 84 46 01 00
	00		 je	 $LN94@LoadString@5
  0004b	80 f2 eb	 xor	 dl, -21			; ffffffebH
  0004e	88 55 ea	 mov	 BYTE PTR __k$[ebp+2], dl
  00051	8a 50 03	 mov	 dl, BYTE PTR [eax+3]
  00054	84 d2		 test	 dl, dl
  00056	0f 84 2f 01 00
	00		 je	 $LN93@LoadString@5
  0005c	80 f2 ea	 xor	 dl, -22			; ffffffeaH
  0005f	88 55 eb	 mov	 BYTE PTR __k$[ebp+3], dl
  00062	8a 50 04	 mov	 dl, BYTE PTR [eax+4]
  00065	84 d2		 test	 dl, dl
  00067	0f 84 18 01 00
	00		 je	 $LN92@LoadString@5
  0006d	80 f2 ed	 xor	 dl, -19			; ffffffedH
  00070	88 55 ec	 mov	 BYTE PTR __k$[ebp+4], dl
  00073	8a 50 05	 mov	 dl, BYTE PTR [eax+5]
  00076	84 d2		 test	 dl, dl
  00078	0f 84 02 01 00
	00		 je	 $LN91@LoadString@5
  0007e	32 d1		 xor	 dl, cl
  00080	88 55 ed	 mov	 BYTE PTR __k$[ebp+5], dl
  00083	8a 50 06	 mov	 dl, BYTE PTR [eax+6]
  00086	84 d2		 test	 dl, dl
  00088	0f 84 ec 00 00
	00		 je	 $LN90@LoadString@5
  0008e	80 f2 eb	 xor	 dl, -21			; ffffffebH
  00091	88 55 ee	 mov	 BYTE PTR __k$[ebp+6], dl
  00094	8a 50 07	 mov	 dl, BYTE PTR [eax+7]
  00097	84 d2		 test	 dl, dl
  00099	0f 84 d5 00 00
	00		 je	 $LN89@LoadString@5
  0009f	80 f2 ea	 xor	 dl, -22			; ffffffeaH
  000a2	88 55 ef	 mov	 BYTE PTR __k$[ebp+7], dl
  000a5	8a 50 08	 mov	 dl, BYTE PTR [eax+8]
  000a8	84 d2		 test	 dl, dl
  000aa	0f 84 be 00 00
	00		 je	 $LN88@LoadString@5
  000b0	80 f2 ed	 xor	 dl, -19			; ffffffedH
  000b3	88 55 f0	 mov	 BYTE PTR __k$[ebp+8], dl
  000b6	8a 50 09	 mov	 dl, BYTE PTR [eax+9]
  000b9	84 d2		 test	 dl, dl
  000bb	0f 84 a8 00 00
	00		 je	 $LN87@LoadString@5
  000c1	32 d1		 xor	 dl, cl
  000c3	88 55 f1	 mov	 BYTE PTR __k$[ebp+9], dl
  000c6	8a 50 0a	 mov	 dl, BYTE PTR [eax+10]
  000c9	84 d2		 test	 dl, dl
  000cb	0f 84 92 00 00
	00		 je	 $LN86@LoadString@5
  000d1	80 f2 eb	 xor	 dl, -21			; ffffffebH
  000d4	88 55 f2	 mov	 BYTE PTR __k$[ebp+10], dl
  000d7	8a 50 0b	 mov	 dl, BYTE PTR [eax+11]
  000da	84 d2		 test	 dl, dl
  000dc	74 7f		 je	 SHORT $LN85@LoadString@5
  000de	80 f2 ea	 xor	 dl, -22			; ffffffeaH
  000e1	88 55 f3	 mov	 BYTE PTR __k$[ebp+11], dl
  000e4	8a 50 0c	 mov	 dl, BYTE PTR [eax+12]
  000e7	84 d2		 test	 dl, dl
  000e9	74 6c		 je	 SHORT $LN84@LoadString@5
  000eb	80 f2 ed	 xor	 dl, -19			; ffffffedH
  000ee	88 55 f4	 mov	 BYTE PTR __k$[ebp+12], dl
  000f1	8a 50 0d	 mov	 dl, BYTE PTR [eax+13]
  000f4	84 d2		 test	 dl, dl
  000f6	74 5a		 je	 SHORT $LN83@LoadString@5
  000f8	32 d1		 xor	 dl, cl
  000fa	80 78 0e 00	 cmp	 BYTE PTR [eax+14], 0
  000fe	88 55 f5	 mov	 BYTE PTR __k$[ebp+13], dl
  00101	0f 84 9a 00 00
	00		 je	 $LN111@LoadString@5
  00107	8a 50 0f	 mov	 dl, BYTE PTR [eax+15]
  0010a	84 d2		 test	 dl, dl
  0010c	74 3e		 je	 SHORT $LN81@LoadString@5
  0010e	80 f2 ea	 xor	 dl, -22			; ffffffeaH
  00111	88 55 f7	 mov	 BYTE PTR __k$[ebp+15], dl
  00114	8a 50 10	 mov	 dl, BYTE PTR [eax+16]
  00117	84 d2		 test	 dl, dl
  00119	74 2b		 je	 SHORT $LN80@LoadString@5
  0011b	80 f2 ed	 xor	 dl, -19			; ffffffedH
  0011e	88 55 f8	 mov	 BYTE PTR __k$[ebp+16], dl
  00121	8a 50 11	 mov	 dl, BYTE PTR [eax+17]
  00124	84 d2		 test	 dl, dl
  00126	74 19		 je	 SHORT $LN79@LoadString@5
  00128	8a 40 12	 mov	 al, BYTE PTR [eax+18]
  0012b	32 d1		 xor	 dl, cl
  0012d	88 55 f9	 mov	 BYTE PTR __k$[ebp+17], dl
  00130	84 c0		 test	 al, al
  00132	74 07		 je	 SHORT $LN78@LoadString@5
  00134	34 eb		 xor	 al, -21			; ffffffebH
  00136	88 45 fa	 mov	 BYTE PTR __k$[ebp+18], al
  00139	eb 66		 jmp	 SHORT $LN111@LoadString@5
$LN78@LoadString@5:
  0013b	c6 45 fa eb	 mov	 BYTE PTR __k$[ebp+18], -21 ; ffffffebH
  0013f	eb 60		 jmp	 SHORT $LN111@LoadString@5
$LN79@LoadString@5:
  00141	88 4d f9	 mov	 BYTE PTR __k$[ebp+17], cl
  00144	eb 5b		 jmp	 SHORT $LN111@LoadString@5
$LN80@LoadString@5:
  00146	c6 45 f8 ed	 mov	 BYTE PTR __k$[ebp+16], -19 ; ffffffedH
  0014a	eb 55		 jmp	 SHORT $LN111@LoadString@5
$LN81@LoadString@5:
  0014c	c6 45 f7 ea	 mov	 BYTE PTR __k$[ebp+15], -22 ; ffffffeaH
  00150	eb 4f		 jmp	 SHORT $LN111@LoadString@5
$LN83@LoadString@5:
  00152	88 4d f5	 mov	 BYTE PTR __k$[ebp+13], cl
  00155	eb 4a		 jmp	 SHORT $LN111@LoadString@5
$LN84@LoadString@5:
  00157	c6 45 f4 ed	 mov	 BYTE PTR __k$[ebp+12], -19 ; ffffffedH
  0015b	eb 44		 jmp	 SHORT $LN111@LoadString@5
$LN85@LoadString@5:
  0015d	c6 45 f3 ea	 mov	 BYTE PTR __k$[ebp+11], -22 ; ffffffeaH
  00161	eb 3e		 jmp	 SHORT $LN111@LoadString@5
$LN86@LoadString@5:
  00163	c6 45 f2 eb	 mov	 BYTE PTR __k$[ebp+10], -21 ; ffffffebH
  00167	eb 38		 jmp	 SHORT $LN111@LoadString@5
$LN87@LoadString@5:
  00169	88 4d f1	 mov	 BYTE PTR __k$[ebp+9], cl
  0016c	eb 33		 jmp	 SHORT $LN111@LoadString@5
$LN88@LoadString@5:
  0016e	c6 45 f0 ed	 mov	 BYTE PTR __k$[ebp+8], -19 ; ffffffedH
  00172	eb 2d		 jmp	 SHORT $LN111@LoadString@5
$LN89@LoadString@5:
  00174	c6 45 ef ea	 mov	 BYTE PTR __k$[ebp+7], -22 ; ffffffeaH
  00178	eb 27		 jmp	 SHORT $LN111@LoadString@5
$LN90@LoadString@5:
  0017a	c6 45 ee eb	 mov	 BYTE PTR __k$[ebp+6], -21 ; ffffffebH
  0017e	eb 21		 jmp	 SHORT $LN111@LoadString@5
$LN91@LoadString@5:
  00180	88 4d ed	 mov	 BYTE PTR __k$[ebp+5], cl
  00183	eb 1c		 jmp	 SHORT $LN111@LoadString@5
$LN92@LoadString@5:
  00185	c6 45 ec ed	 mov	 BYTE PTR __k$[ebp+4], -19 ; ffffffedH
  00189	eb 16		 jmp	 SHORT $LN111@LoadString@5
$LN93@LoadString@5:
  0018b	c6 45 eb ea	 mov	 BYTE PTR __k$[ebp+3], -22 ; ffffffeaH
  0018f	eb 10		 jmp	 SHORT $LN111@LoadString@5
$LN94@LoadString@5:
  00191	c6 45 ea eb	 mov	 BYTE PTR __k$[ebp+2], -21 ; ffffffebH
  00195	eb 0a		 jmp	 SHORT $LN111@LoadString@5
$LN95@LoadString@5:
  00197	c6 45 e9 ec	 mov	 BYTE PTR __k$[ebp+1], -20 ; ffffffecH
  0019b	eb 04		 jmp	 SHORT $LN111@LoadString@5
$LN96@LoadString@5:
  0019d	c6 45 e8 ed	 mov	 BYTE PTR __k$[ebp], -19	; ffffffedH
$LN111@LoadString@5:
  001a1	6a 03		 push	 3
  001a3	8d 45 e8	 lea	 eax, DWORD PTR __k$[ebp]
  001a6	c6 45 f6 00	 mov	 BYTE PTR __k$[ebp+14], 0
  001aa	5a		 pop	 edx
$LL104@LoadString@5:
  001ab	81 30 ed ec eb
	ea		 xor	 DWORD PTR [eax], -353637139 ; eaebecedH
  001b1	83 c0 04	 add	 eax, 4
  001b4	4a		 dec	 edx
  001b5	75 f4		 jne	 SHORT $LL104@LoadString@5
  001b7	6a 0c		 push	 12			; 0000000cH
  001b9	58		 pop	 eax
$LL101@LoadString@5:
  001ba	8b c8		 mov	 ecx, eax
  001bc	81 e1 03 00 00
	80		 and	 ecx, -2147483645	; 80000003H
  001c2	79 05		 jns	 SHORT $LN112@LoadString@5
  001c4	49		 dec	 ecx
  001c5	83 c9 fc	 or	 ecx, -4			; fffffffcH
  001c8	41		 inc	 ecx
$LN112@LoadString@5:
  001c9	b2 ed		 mov	 dl, -19			; ffffffedH
  001cb	2a d1		 sub	 dl, cl
  001cd	30 54 05 e8	 xor	 BYTE PTR __k$[ebp+eax], dl
  001d1	40		 inc	 eax
  001d2	83 f8 0e	 cmp	 eax, 14			; 0000000eH
  001d5	7c e3		 jl	 SHORT $LL101@LoadString@5

; 163  : 		LoadString(_k, d, b, i);

  001d7	ff 75 14	 push	 DWORD PTR _i$[ebp]
  001da	8b 4d e4	 mov	 ecx, DWORD PTR _this$GSCopy$[ebp]
  001dd	57		 push	 edi
  001de	56		 push	 esi
  001df	8d 45 e8	 lea	 eax, DWORD PTR __k$[ebp]
  001e2	50		 push	 eax
  001e3	ff 15 00 00 00
	00		 call	 DWORD PTR __imp_?LoadStringA@ioINILoader@@QAEXPBD0PADH@Z

; 164  : 	}

  001e9	8b 4d fc	 mov	 ecx, DWORD PTR __$ArrayPad$[ebp]
  001ec	5f		 pop	 edi
  001ed	33 cd		 xor	 ecx, ebp
  001ef	5e		 pop	 esi
  001f0	e8 00 00 00 00	 call	 @__security_check_cookie@4
  001f5	c9		 leave
  001f6	c2 10 00	 ret	 16			; 00000010H
??$LoadString_e@$0P@@ioINILoader@@QAEXAAY0P@$$CBDAAY00$$CBDPADH@Z ENDP ; ioINILoader::LoadString_e<15>
_TEXT	ENDS
PUBLIC	__$ArrayPad$
PUBLIC	??$LoadFloat_e@$0BE@@ioINILoader@@QAEMAAY0BE@$$CBDM@Z ; ioINILoader::LoadFloat_e<20>
; Function compile flags: /Ogsp
;	COMDAT ??$LoadFloat_e@$0BE@@ioINILoader@@QAEMAAY0BE@$$CBDM@Z
_TEXT	SEGMENT
__k$ = -28						; size = 20
__$ArrayPad$ = -4					; size = 4
_k$ = 8							; size = 4
_f$ = 12						; size = 4
??$LoadFloat_e@$0BE@@ioINILoader@@QAEMAAY0BE@$$CBDM@Z PROC ; ioINILoader::LoadFloat_e<20>, COMDAT
; _this$ = ecx

; 135  : 	{

  00000	55		 push	 ebp
  00001	8b ec		 mov	 ebp, esp
  00003	83 ec 1c	 sub	 esp, 28			; 0000001cH
  00006	a1 00 00 00 00	 mov	 eax, DWORD PTR ___security_cookie
  0000b	33 c5		 xor	 eax, ebp
  0000d	89 45 fc	 mov	 DWORD PTR __$ArrayPad$[ebp], eax
  00010	8b 45 08	 mov	 eax, DWORD PTR _k$[ebp]

; 136  : 		_ENCSTR(k, _k);

  00013	8a 10		 mov	 dl, BYTE PTR [eax]
  00015	53		 push	 ebx
  00016	56		 push	 esi
  00017	8b f1		 mov	 esi, ecx
  00019	84 d2		 test	 dl, dl
  0001b	0f 84 dd 01 00
	00		 je	 $LN96@LoadFloat_@7
  00021	80 f2 ed	 xor	 dl, -19			; ffffffedH
  00024	88 55 e4	 mov	 BYTE PTR __k$[ebp], dl
  00027	8a 50 01	 mov	 dl, BYTE PTR [eax+1]
  0002a	84 d2		 test	 dl, dl
  0002c	0f 84 c6 01 00
	00		 je	 $LN95@LoadFloat_@7
  00032	b3 ec		 mov	 bl, -20			; ffffffecH
  00034	32 d3		 xor	 dl, bl
  00036	88 55 e5	 mov	 BYTE PTR __k$[ebp+1], dl
  00039	8a 50 02	 mov	 dl, BYTE PTR [eax+2]
  0003c	84 d2		 test	 dl, dl
  0003e	0f 84 ae 01 00
	00		 je	 $LN94@LoadFloat_@7
  00044	b1 eb		 mov	 cl, -21			; ffffffebH
  00046	32 d1		 xor	 dl, cl
  00048	88 55 e6	 mov	 BYTE PTR __k$[ebp+2], dl
  0004b	8a 50 03	 mov	 dl, BYTE PTR [eax+3]
  0004e	84 d2		 test	 dl, dl
  00050	0f 84 96 01 00
	00		 je	 $LN93@LoadFloat_@7
  00056	80 f2 ea	 xor	 dl, -22			; ffffffeaH
  00059	88 55 e7	 mov	 BYTE PTR __k$[ebp+3], dl
  0005c	8a 50 04	 mov	 dl, BYTE PTR [eax+4]
  0005f	84 d2		 test	 dl, dl
  00061	0f 84 7f 01 00
	00		 je	 $LN92@LoadFloat_@7
  00067	80 f2 ed	 xor	 dl, -19			; ffffffedH
  0006a	88 55 e8	 mov	 BYTE PTR __k$[ebp+4], dl
  0006d	8a 50 05	 mov	 dl, BYTE PTR [eax+5]
  00070	84 d2		 test	 dl, dl
  00072	0f 84 69 01 00
	00		 je	 $LN91@LoadFloat_@7
  00078	32 d3		 xor	 dl, bl
  0007a	88 55 e9	 mov	 BYTE PTR __k$[ebp+5], dl
  0007d	8a 50 06	 mov	 dl, BYTE PTR [eax+6]
  00080	84 d2		 test	 dl, dl
  00082	0f 84 54 01 00
	00		 je	 $LN90@LoadFloat_@7
  00088	32 d1		 xor	 dl, cl
  0008a	88 55 ea	 mov	 BYTE PTR __k$[ebp+6], dl
  0008d	8a 50 07	 mov	 dl, BYTE PTR [eax+7]
  00090	84 d2		 test	 dl, dl
  00092	0f 84 3e 01 00
	00		 je	 $LN89@LoadFloat_@7
  00098	80 f2 ea	 xor	 dl, -22			; ffffffeaH
  0009b	88 55 eb	 mov	 BYTE PTR __k$[ebp+7], dl
  0009e	8a 50 08	 mov	 dl, BYTE PTR [eax+8]
  000a1	84 d2		 test	 dl, dl
  000a3	0f 84 27 01 00
	00		 je	 $LN88@LoadFloat_@7
  000a9	80 f2 ed	 xor	 dl, -19			; ffffffedH
  000ac	88 55 ec	 mov	 BYTE PTR __k$[ebp+8], dl
  000af	8a 50 09	 mov	 dl, BYTE PTR [eax+9]
  000b2	84 d2		 test	 dl, dl
  000b4	0f 84 11 01 00
	00		 je	 $LN87@LoadFloat_@7
  000ba	32 d3		 xor	 dl, bl
  000bc	88 55 ed	 mov	 BYTE PTR __k$[ebp+9], dl
  000bf	8a 50 0a	 mov	 dl, BYTE PTR [eax+10]
  000c2	84 d2		 test	 dl, dl
  000c4	0f 84 fc 00 00
	00		 je	 $LN86@LoadFloat_@7
  000ca	32 d1		 xor	 dl, cl
  000cc	88 55 ee	 mov	 BYTE PTR __k$[ebp+10], dl
  000cf	8a 50 0b	 mov	 dl, BYTE PTR [eax+11]
  000d2	84 d2		 test	 dl, dl
  000d4	0f 84 e6 00 00
	00		 je	 $LN85@LoadFloat_@7
  000da	80 f2 ea	 xor	 dl, -22			; ffffffeaH
  000dd	88 55 ef	 mov	 BYTE PTR __k$[ebp+11], dl
  000e0	8a 50 0c	 mov	 dl, BYTE PTR [eax+12]
  000e3	84 d2		 test	 dl, dl
  000e5	0f 84 cf 00 00
	00		 je	 $LN84@LoadFloat_@7
  000eb	80 f2 ed	 xor	 dl, -19			; ffffffedH
  000ee	88 55 f0	 mov	 BYTE PTR __k$[ebp+12], dl
  000f1	8a 50 0d	 mov	 dl, BYTE PTR [eax+13]
  000f4	84 d2		 test	 dl, dl
  000f6	0f 84 b9 00 00
	00		 je	 $LN83@LoadFloat_@7
  000fc	32 d3		 xor	 dl, bl
  000fe	88 55 f1	 mov	 BYTE PTR __k$[ebp+13], dl
  00101	8a 50 0e	 mov	 dl, BYTE PTR [eax+14]
  00104	84 d2		 test	 dl, dl
  00106	0f 84 a4 00 00
	00		 je	 $LN82@LoadFloat_@7
  0010c	32 d1		 xor	 dl, cl
  0010e	88 55 f2	 mov	 BYTE PTR __k$[ebp+14], dl
  00111	8a 50 0f	 mov	 dl, BYTE PTR [eax+15]
  00114	84 d2		 test	 dl, dl
  00116	0f 84 8e 00 00
	00		 je	 $LN81@LoadFloat_@7
  0011c	80 f2 ea	 xor	 dl, -22			; ffffffeaH
  0011f	88 55 f3	 mov	 BYTE PTR __k$[ebp+15], dl
  00122	8a 50 10	 mov	 dl, BYTE PTR [eax+16]
  00125	84 d2		 test	 dl, dl
  00127	74 7b		 je	 SHORT $LN80@LoadFloat_@7
  00129	80 f2 ed	 xor	 dl, -19			; ffffffedH
  0012c	88 55 f4	 mov	 BYTE PTR __k$[ebp+16], dl
  0012f	8a 50 11	 mov	 dl, BYTE PTR [eax+17]
  00132	84 d2		 test	 dl, dl
  00134	74 69		 je	 SHORT $LN79@LoadFloat_@7
  00136	32 d3		 xor	 dl, bl
  00138	88 55 f5	 mov	 BYTE PTR __k$[ebp+17], dl
  0013b	8a 50 12	 mov	 dl, BYTE PTR [eax+18]
  0013e	84 d2		 test	 dl, dl
  00140	74 58		 je	 SHORT $LN78@LoadFloat_@7
  00142	32 d1		 xor	 dl, cl
  00144	80 78 13 00	 cmp	 BYTE PTR [eax+19], 0
  00148	88 55 f6	 mov	 BYTE PTR __k$[ebp+18], dl
  0014b	0f 84 b1 00 00
	00		 je	 $LN1@LoadFloat_@7
  00151	8a 50 14	 mov	 dl, BYTE PTR [eax+20]
  00154	84 d2		 test	 dl, dl
  00156	74 3c		 je	 SHORT $LN76@LoadFloat_@7
  00158	80 f2 ed	 xor	 dl, -19			; ffffffedH
  0015b	88 55 f8	 mov	 BYTE PTR __k$[ebp+20], dl
  0015e	8a 50 15	 mov	 dl, BYTE PTR [eax+21]
  00161	84 d2		 test	 dl, dl
  00163	74 2a		 je	 SHORT $LN75@LoadFloat_@7
  00165	32 d3		 xor	 dl, bl
  00167	88 55 f9	 mov	 BYTE PTR __k$[ebp+21], dl
  0016a	8a 50 16	 mov	 dl, BYTE PTR [eax+22]
  0016d	84 d2		 test	 dl, dl
  0016f	74 19		 je	 SHORT $LN74@LoadFloat_@7
  00171	8a 40 17	 mov	 al, BYTE PTR [eax+23]
  00174	32 d1		 xor	 dl, cl
  00176	88 55 fa	 mov	 BYTE PTR __k$[ebp+22], dl
  00179	84 c0		 test	 al, al
  0017b	74 07		 je	 SHORT $LN73@LoadFloat_@7
  0017d	34 ea		 xor	 al, -22			; ffffffeaH
  0017f	88 45 fb	 mov	 BYTE PTR __k$[ebp+23], al
  00182	eb 7e		 jmp	 SHORT $LN1@LoadFloat_@7
$LN73@LoadFloat_@7:
  00184	c6 45 fb ea	 mov	 BYTE PTR __k$[ebp+23], -22 ; ffffffeaH
  00188	eb 78		 jmp	 SHORT $LN1@LoadFloat_@7
$LN74@LoadFloat_@7:
  0018a	88 4d fa	 mov	 BYTE PTR __k$[ebp+22], cl
  0018d	eb 73		 jmp	 SHORT $LN1@LoadFloat_@7
$LN75@LoadFloat_@7:
  0018f	88 5d f9	 mov	 BYTE PTR __k$[ebp+21], bl
  00192	eb 6e		 jmp	 SHORT $LN1@LoadFloat_@7
$LN76@LoadFloat_@7:
  00194	c6 45 f8 ed	 mov	 BYTE PTR __k$[ebp+20], -19 ; ffffffedH
  00198	eb 68		 jmp	 SHORT $LN1@LoadFloat_@7
$LN78@LoadFloat_@7:
  0019a	88 4d f6	 mov	 BYTE PTR __k$[ebp+18], cl
  0019d	eb 63		 jmp	 SHORT $LN1@LoadFloat_@7
$LN79@LoadFloat_@7:
  0019f	88 5d f5	 mov	 BYTE PTR __k$[ebp+17], bl
  001a2	eb 5e		 jmp	 SHORT $LN1@LoadFloat_@7
$LN80@LoadFloat_@7:
  001a4	c6 45 f4 ed	 mov	 BYTE PTR __k$[ebp+16], -19 ; ffffffedH
  001a8	eb 58		 jmp	 SHORT $LN1@LoadFloat_@7
$LN81@LoadFloat_@7:
  001aa	c6 45 f3 ea	 mov	 BYTE PTR __k$[ebp+15], -22 ; ffffffeaH
  001ae	eb 52		 jmp	 SHORT $LN1@LoadFloat_@7
$LN82@LoadFloat_@7:
  001b0	88 4d f2	 mov	 BYTE PTR __k$[ebp+14], cl
  001b3	eb 4d		 jmp	 SHORT $LN1@LoadFloat_@7
$LN83@LoadFloat_@7:
  001b5	88 5d f1	 mov	 BYTE PTR __k$[ebp+13], bl
  001b8	eb 48		 jmp	 SHORT $LN1@LoadFloat_@7
$LN84@LoadFloat_@7:
  001ba	c6 45 f0 ed	 mov	 BYTE PTR __k$[ebp+12], -19 ; ffffffedH
  001be	eb 42		 jmp	 SHORT $LN1@LoadFloat_@7
$LN85@LoadFloat_@7:
  001c0	c6 45 ef ea	 mov	 BYTE PTR __k$[ebp+11], -22 ; ffffffeaH
  001c4	eb 3c		 jmp	 SHORT $LN1@LoadFloat_@7
$LN86@LoadFloat_@7:
  001c6	88 4d ee	 mov	 BYTE PTR __k$[ebp+10], cl
  001c9	eb 37		 jmp	 SHORT $LN1@LoadFloat_@7
$LN87@LoadFloat_@7:
  001cb	88 5d ed	 mov	 BYTE PTR __k$[ebp+9], bl
  001ce	eb 32		 jmp	 SHORT $LN1@LoadFloat_@7
$LN88@LoadFloat_@7:
  001d0	c6 45 ec ed	 mov	 BYTE PTR __k$[ebp+8], -19 ; ffffffedH
  001d4	eb 2c		 jmp	 SHORT $LN1@LoadFloat_@7
$LN89@LoadFloat_@7:
  001d6	c6 45 eb ea	 mov	 BYTE PTR __k$[ebp+7], -22 ; ffffffeaH
  001da	eb 26		 jmp	 SHORT $LN1@LoadFloat_@7
$LN90@LoadFloat_@7:
  001dc	88 4d ea	 mov	 BYTE PTR __k$[ebp+6], cl
  001df	eb 21		 jmp	 SHORT $LN1@LoadFloat_@7
$LN91@LoadFloat_@7:
  001e1	88 5d e9	 mov	 BYTE PTR __k$[ebp+5], bl
  001e4	eb 1c		 jmp	 SHORT $LN1@LoadFloat_@7
$LN92@LoadFloat_@7:
  001e6	c6 45 e8 ed	 mov	 BYTE PTR __k$[ebp+4], -19 ; ffffffedH
  001ea	eb 16		 jmp	 SHORT $LN1@LoadFloat_@7
$LN93@LoadFloat_@7:
  001ec	c6 45 e7 ea	 mov	 BYTE PTR __k$[ebp+3], -22 ; ffffffeaH
  001f0	eb 10		 jmp	 SHORT $LN1@LoadFloat_@7
$LN94@LoadFloat_@7:
  001f2	c6 45 e6 eb	 mov	 BYTE PTR __k$[ebp+2], -21 ; ffffffebH
  001f6	eb 0a		 jmp	 SHORT $LN1@LoadFloat_@7
$LN95@LoadFloat_@7:
  001f8	c6 45 e5 ec	 mov	 BYTE PTR __k$[ebp+1], -20 ; ffffffecH
  001fc	eb 04		 jmp	 SHORT $LN1@LoadFloat_@7
$LN96@LoadFloat_@7:
  001fe	c6 45 e4 ed	 mov	 BYTE PTR __k$[ebp], -19	; ffffffedH
$LN1@LoadFloat_@7:
  00202	6a 04		 push	 4
  00204	8d 45 e4	 lea	 eax, DWORD PTR __k$[ebp]
  00207	c6 45 f7 00	 mov	 BYTE PTR __k$[ebp+19], 0
  0020b	5a		 pop	 edx
$LL104@LoadFloat_@7:
  0020c	81 30 ed ec eb
	ea		 xor	 DWORD PTR [eax], -353637139 ; eaebecedH
  00212	83 c0 04	 add	 eax, 4
  00215	4a		 dec	 edx
  00216	75 f4		 jne	 SHORT $LL104@LoadFloat_@7
  00218	6a 10		 push	 16			; 00000010H
  0021a	58		 pop	 eax
$LL101@LoadFloat_@7:
  0021b	8b c8		 mov	 ecx, eax
  0021d	81 e1 03 00 00
	80		 and	 ecx, -2147483645	; 80000003H
  00223	79 05		 jns	 SHORT $LN111@LoadFloat_@7
  00225	49		 dec	 ecx
  00226	83 c9 fc	 or	 ecx, -4			; fffffffcH
  00229	41		 inc	 ecx
$LN111@LoadFloat_@7:
  0022a	b2 ed		 mov	 dl, -19			; ffffffedH
  0022c	2a d1		 sub	 dl, cl
  0022e	30 54 05 e4	 xor	 BYTE PTR __k$[ebp+eax], dl
  00232	40		 inc	 eax
  00233	83 f8 13	 cmp	 eax, 19			; 00000013H
  00236	7c e3		 jl	 SHORT $LL101@LoadFloat_@7

; 137  : 		return LoadFloat(_k, f);

  00238	f3 0f 10 45 0c	 movss	 xmm0, DWORD PTR _f$[ebp]
  0023d	51		 push	 ecx
  0023e	8d 45 e4	 lea	 eax, DWORD PTR __k$[ebp]
  00241	f3 0f 11 04 24	 movss	 DWORD PTR [esp], xmm0
  00246	50		 push	 eax
  00247	8b ce		 mov	 ecx, esi
  00249	ff 15 00 00 00
	00		 call	 DWORD PTR __imp_?LoadFloat@ioINILoader@@QAEMPBDM@Z

; 138  : 	}

  0024f	8b 4d fc	 mov	 ecx, DWORD PTR __$ArrayPad$[ebp]
  00252	5e		 pop	 esi
  00253	33 cd		 xor	 ecx, ebp
  00255	5b		 pop	 ebx
  00256	e8 00 00 00 00	 call	 @__security_check_cookie@4
  0025b	c9		 leave
  0025c	c2 08 00	 ret	 8
??$LoadFloat_e@$0BE@@ioINILoader@@QAEMAAY0BE@$$CBDM@Z ENDP ; ioINILoader::LoadFloat_e<20>
_TEXT	ENDS
PUBLIC	__$ArrayPad$
PUBLIC	??$LoadInt_e@$0O@@ioINILoader@@QAEHAAY0O@$$CBDH@Z ; ioINILoader::LoadInt_e<14>
; Function compile flags: /Ogsp
;	COMDAT ??$LoadInt_e@$0O@@ioINILoader@@QAEHAAY0O@$$CBDH@Z
_TEXT	SEGMENT
__k$ = -24						; size = 14
__$ArrayPad$ = -4					; size = 4
_k$ = 8							; size = 4
_i$ = 12						; size = 4
??$LoadInt_e@$0O@@ioINILoader@@QAEHAAY0O@$$CBDH@Z PROC	; ioINILoader::LoadInt_e<14>, COMDAT
; _this$ = ecx

; 118  : 	{

  00000	55		 push	 ebp
  00001	8b ec		 mov	 ebp, esp
  00003	83 ec 18	 sub	 esp, 24			; 00000018H
  00006	a1 00 00 00 00	 mov	 eax, DWORD PTR ___security_cookie
  0000b	33 c5		 xor	 eax, ebp
  0000d	89 45 fc	 mov	 DWORD PTR __$ArrayPad$[ebp], eax
  00010	8b 45 08	 mov	 eax, DWORD PTR _k$[ebp]

; 119  : 		_ENCSTR(k, _k);

  00013	8a 10		 mov	 dl, BYTE PTR [eax]
  00015	56		 push	 esi
  00016	8b f1		 mov	 esi, ecx
  00018	84 d2		 test	 dl, dl
  0001a	0f 84 64 01 00
	00		 je	 $LN96@LoadInt_e@9
  00020	80 f2 ed	 xor	 dl, -19			; ffffffedH
  00023	88 55 e8	 mov	 BYTE PTR __k$[ebp], dl
  00026	8a 50 01	 mov	 dl, BYTE PTR [eax+1]
  00029	84 d2		 test	 dl, dl
  0002b	0f 84 4d 01 00
	00		 je	 $LN95@LoadInt_e@9
  00031	80 f2 ec	 xor	 dl, -20			; ffffffecH
  00034	88 55 e9	 mov	 BYTE PTR __k$[ebp+1], dl
  00037	8a 50 02	 mov	 dl, BYTE PTR [eax+2]
  0003a	84 d2		 test	 dl, dl
  0003c	0f 84 36 01 00
	00		 je	 $LN94@LoadInt_e@9
  00042	b1 eb		 mov	 cl, -21			; ffffffebH
  00044	32 d1		 xor	 dl, cl
  00046	88 55 ea	 mov	 BYTE PTR __k$[ebp+2], dl
  00049	8a 50 03	 mov	 dl, BYTE PTR [eax+3]
  0004c	84 d2		 test	 dl, dl
  0004e	0f 84 1e 01 00
	00		 je	 $LN93@LoadInt_e@9
  00054	80 f2 ea	 xor	 dl, -22			; ffffffeaH
  00057	88 55 eb	 mov	 BYTE PTR __k$[ebp+3], dl
  0005a	8a 50 04	 mov	 dl, BYTE PTR [eax+4]
  0005d	84 d2		 test	 dl, dl
  0005f	0f 84 07 01 00
	00		 je	 $LN92@LoadInt_e@9
  00065	80 f2 ed	 xor	 dl, -19			; ffffffedH
  00068	88 55 ec	 mov	 BYTE PTR __k$[ebp+4], dl
  0006b	8a 50 05	 mov	 dl, BYTE PTR [eax+5]
  0006e	84 d2		 test	 dl, dl
  00070	0f 84 f0 00 00
	00		 je	 $LN91@LoadInt_e@9
  00076	80 f2 ec	 xor	 dl, -20			; ffffffecH
  00079	88 55 ed	 mov	 BYTE PTR __k$[ebp+5], dl
  0007c	8a 50 06	 mov	 dl, BYTE PTR [eax+6]
  0007f	84 d2		 test	 dl, dl
  00081	0f 84 da 00 00
	00		 je	 $LN90@LoadInt_e@9
  00087	32 d1		 xor	 dl, cl
  00089	88 55 ee	 mov	 BYTE PTR __k$[ebp+6], dl
  0008c	8a 50 07	 mov	 dl, BYTE PTR [eax+7]
  0008f	84 d2		 test	 dl, dl
  00091	0f 84 c4 00 00
	00		 je	 $LN89@LoadInt_e@9
  00097	80 f2 ea	 xor	 dl, -22			; ffffffeaH
  0009a	88 55 ef	 mov	 BYTE PTR __k$[ebp+7], dl
  0009d	8a 50 08	 mov	 dl, BYTE PTR [eax+8]
  000a0	84 d2		 test	 dl, dl
  000a2	0f 84 ad 00 00
	00		 je	 $LN88@LoadInt_e@9
  000a8	80 f2 ed	 xor	 dl, -19			; ffffffedH
  000ab	88 55 f0	 mov	 BYTE PTR __k$[ebp+8], dl
  000ae	8a 50 09	 mov	 dl, BYTE PTR [eax+9]
  000b1	84 d2		 test	 dl, dl
  000b3	0f 84 96 00 00
	00		 je	 $LN87@LoadInt_e@9
  000b9	80 f2 ec	 xor	 dl, -20			; ffffffecH
  000bc	88 55 f1	 mov	 BYTE PTR __k$[ebp+9], dl
  000bf	8a 50 0a	 mov	 dl, BYTE PTR [eax+10]
  000c2	84 d2		 test	 dl, dl
  000c4	0f 84 80 00 00
	00		 je	 $LN86@LoadInt_e@9
  000ca	32 d1		 xor	 dl, cl
  000cc	88 55 f2	 mov	 BYTE PTR __k$[ebp+10], dl
  000cf	8a 50 0b	 mov	 dl, BYTE PTR [eax+11]
  000d2	84 d2		 test	 dl, dl
  000d4	74 6e		 je	 SHORT $LN85@LoadInt_e@9
  000d6	80 f2 ea	 xor	 dl, -22			; ffffffeaH
  000d9	88 55 f3	 mov	 BYTE PTR __k$[ebp+11], dl
  000dc	8a 50 0c	 mov	 dl, BYTE PTR [eax+12]
  000df	84 d2		 test	 dl, dl
  000e1	74 5b		 je	 SHORT $LN84@LoadInt_e@9
  000e3	80 f2 ed	 xor	 dl, -19			; ffffffedH
  000e6	80 78 0d 00	 cmp	 BYTE PTR [eax+13], 0
  000ea	88 55 f4	 mov	 BYTE PTR __k$[ebp+12], dl
  000ed	0f 84 95 00 00
	00		 je	 $LN1@LoadInt_e@9
  000f3	8a 50 0e	 mov	 dl, BYTE PTR [eax+14]
  000f6	84 d2		 test	 dl, dl
  000f8	74 3f		 je	 SHORT $LN82@LoadInt_e@9
  000fa	32 d1		 xor	 dl, cl
  000fc	88 55 f6	 mov	 BYTE PTR __k$[ebp+14], dl
  000ff	8a 50 0f	 mov	 dl, BYTE PTR [eax+15]
  00102	84 d2		 test	 dl, dl
  00104	74 2d		 je	 SHORT $LN81@LoadInt_e@9
  00106	80 f2 ea	 xor	 dl, -22			; ffffffeaH
  00109	88 55 f7	 mov	 BYTE PTR __k$[ebp+15], dl
  0010c	8a 50 10	 mov	 dl, BYTE PTR [eax+16]
  0010f	84 d2		 test	 dl, dl
  00111	74 1a		 je	 SHORT $LN80@LoadInt_e@9
  00113	8a 40 11	 mov	 al, BYTE PTR [eax+17]
  00116	80 f2 ed	 xor	 dl, -19			; ffffffedH
  00119	88 55 f8	 mov	 BYTE PTR __k$[ebp+16], dl
  0011c	84 c0		 test	 al, al
  0011e	74 07		 je	 SHORT $LN79@LoadInt_e@9
  00120	34 ec		 xor	 al, -20			; ffffffecH
  00122	88 45 f9	 mov	 BYTE PTR __k$[ebp+17], al
  00125	eb 61		 jmp	 SHORT $LN1@LoadInt_e@9
$LN79@LoadInt_e@9:
  00127	c6 45 f9 ec	 mov	 BYTE PTR __k$[ebp+17], -20 ; ffffffecH
  0012b	eb 5b		 jmp	 SHORT $LN1@LoadInt_e@9
$LN80@LoadInt_e@9:
  0012d	c6 45 f8 ed	 mov	 BYTE PTR __k$[ebp+16], -19 ; ffffffedH
  00131	eb 55		 jmp	 SHORT $LN1@LoadInt_e@9
$LN81@LoadInt_e@9:
  00133	c6 45 f7 ea	 mov	 BYTE PTR __k$[ebp+15], -22 ; ffffffeaH
  00137	eb 4f		 jmp	 SHORT $LN1@LoadInt_e@9
$LN82@LoadInt_e@9:
  00139	88 4d f6	 mov	 BYTE PTR __k$[ebp+14], cl
  0013c	eb 4a		 jmp	 SHORT $LN1@LoadInt_e@9
$LN84@LoadInt_e@9:
  0013e	c6 45 f4 ed	 mov	 BYTE PTR __k$[ebp+12], -19 ; ffffffedH
  00142	eb 44		 jmp	 SHORT $LN1@LoadInt_e@9
$LN85@LoadInt_e@9:
  00144	c6 45 f3 ea	 mov	 BYTE PTR __k$[ebp+11], -22 ; ffffffeaH
  00148	eb 3e		 jmp	 SHORT $LN1@LoadInt_e@9
$LN86@LoadInt_e@9:
  0014a	88 4d f2	 mov	 BYTE PTR __k$[ebp+10], cl
  0014d	eb 39		 jmp	 SHORT $LN1@LoadInt_e@9
$LN87@LoadInt_e@9:
  0014f	c6 45 f1 ec	 mov	 BYTE PTR __k$[ebp+9], -20 ; ffffffecH
  00153	eb 33		 jmp	 SHORT $LN1@LoadInt_e@9
$LN88@LoadInt_e@9:
  00155	c6 45 f0 ed	 mov	 BYTE PTR __k$[ebp+8], -19 ; ffffffedH
  00159	eb 2d		 jmp	 SHORT $LN1@LoadInt_e@9
$LN89@LoadInt_e@9:
  0015b	c6 45 ef ea	 mov	 BYTE PTR __k$[ebp+7], -22 ; ffffffeaH
  0015f	eb 27		 jmp	 SHORT $LN1@LoadInt_e@9
$LN90@LoadInt_e@9:
  00161	88 4d ee	 mov	 BYTE PTR __k$[ebp+6], cl
  00164	eb 22		 jmp	 SHORT $LN1@LoadInt_e@9
$LN91@LoadInt_e@9:
  00166	c6 45 ed ec	 mov	 BYTE PTR __k$[ebp+5], -20 ; ffffffecH
  0016a	eb 1c		 jmp	 SHORT $LN1@LoadInt_e@9
$LN92@LoadInt_e@9:
  0016c	c6 45 ec ed	 mov	 BYTE PTR __k$[ebp+4], -19 ; ffffffedH
  00170	eb 16		 jmp	 SHORT $LN1@LoadInt_e@9
$LN93@LoadInt_e@9:
  00172	c6 45 eb ea	 mov	 BYTE PTR __k$[ebp+3], -22 ; ffffffeaH
  00176	eb 10		 jmp	 SHORT $LN1@LoadInt_e@9
$LN94@LoadInt_e@9:
  00178	c6 45 ea eb	 mov	 BYTE PTR __k$[ebp+2], -21 ; ffffffebH
  0017c	eb 0a		 jmp	 SHORT $LN1@LoadInt_e@9
$LN95@LoadInt_e@9:
  0017e	c6 45 e9 ec	 mov	 BYTE PTR __k$[ebp+1], -20 ; ffffffecH
  00182	eb 04		 jmp	 SHORT $LN1@LoadInt_e@9
$LN96@LoadInt_e@9:
  00184	c6 45 e8 ed	 mov	 BYTE PTR __k$[ebp], -19	; ffffffedH
$LN1@LoadInt_e@9:
  00188	6a 03		 push	 3
  0018a	8d 45 e8	 lea	 eax, DWORD PTR __k$[ebp]
  0018d	c6 45 f5 00	 mov	 BYTE PTR __k$[ebp+13], 0
  00191	5a		 pop	 edx
$LL104@LoadInt_e@9:
  00192	81 30 ed ec eb
	ea		 xor	 DWORD PTR [eax], -353637139 ; eaebecedH
  00198	83 c0 04	 add	 eax, 4
  0019b	4a		 dec	 edx
  0019c	75 f4		 jne	 SHORT $LL104@LoadInt_e@9

; 120  : 		return LoadInt(_k, i);

  0019e	ff 75 0c	 push	 DWORD PTR _i$[ebp]
  001a1	80 75 f4 ed	 xor	 BYTE PTR __k$[ebp+12], -19 ; ffffffedH
  001a5	8d 45 e8	 lea	 eax, DWORD PTR __k$[ebp]
  001a8	50		 push	 eax
  001a9	8b ce		 mov	 ecx, esi
  001ab	ff 15 00 00 00
	00		 call	 DWORD PTR __imp_?LoadInt@ioINILoader@@QAEHPBDH@Z

; 121  : 	}

  001b1	8b 4d fc	 mov	 ecx, DWORD PTR __$ArrayPad$[ebp]
  001b4	33 cd		 xor	 ecx, ebp
  001b6	5e		 pop	 esi
  001b7	e8 00 00 00 00	 call	 @__security_check_cookie@4
  001bc	c9		 leave
  001bd	c2 08 00	 ret	 8
??$LoadInt_e@$0O@@ioINILoader@@QAEHAAY0O@$$CBDH@Z ENDP	; ioINILoader::LoadInt_e<14>
_TEXT	ENDS
PUBLIC	__$ArrayPad$
PUBLIC	??$LoadInt_e@$0BE@@ioINILoader@@QAEHAAY0BE@$$CBDH@Z ; ioINILoader::LoadInt_e<20>
; Function compile flags: /Ogsp
;	COMDAT ??$LoadInt_e@$0BE@@ioINILoader@@QAEHAAY0BE@$$CBDH@Z
_TEXT	SEGMENT
__k$ = -28						; size = 20
__$ArrayPad$ = -4					; size = 4
_k$ = 8							; size = 4
_i$ = 12						; size = 4
??$LoadInt_e@$0BE@@ioINILoader@@QAEHAAY0BE@$$CBDH@Z PROC ; ioINILoader::LoadInt_e<20>, COMDAT
; _this$ = ecx

; 118  : 	{

  00000	55		 push	 ebp
  00001	8b ec		 mov	 ebp, esp
  00003	83 ec 1c	 sub	 esp, 28			; 0000001cH
  00006	a1 00 00 00 00	 mov	 eax, DWORD PTR ___security_cookie
  0000b	33 c5		 xor	 eax, ebp
  0000d	89 45 fc	 mov	 DWORD PTR __$ArrayPad$[ebp], eax
  00010	8b 45 08	 mov	 eax, DWORD PTR _k$[ebp]

; 119  : 		_ENCSTR(k, _k);

  00013	8a 10		 mov	 dl, BYTE PTR [eax]
  00015	53		 push	 ebx
  00016	56		 push	 esi
  00017	8b f1		 mov	 esi, ecx
  00019	84 d2		 test	 dl, dl
  0001b	0f 84 dd 01 00
	00		 je	 $LN96@LoadInt_e@10
  00021	80 f2 ed	 xor	 dl, -19			; ffffffedH
  00024	88 55 e4	 mov	 BYTE PTR __k$[ebp], dl
  00027	8a 50 01	 mov	 dl, BYTE PTR [eax+1]
  0002a	84 d2		 test	 dl, dl
  0002c	0f 84 c6 01 00
	00		 je	 $LN95@LoadInt_e@10
  00032	b3 ec		 mov	 bl, -20			; ffffffecH
  00034	32 d3		 xor	 dl, bl
  00036	88 55 e5	 mov	 BYTE PTR __k$[ebp+1], dl
  00039	8a 50 02	 mov	 dl, BYTE PTR [eax+2]
  0003c	84 d2		 test	 dl, dl
  0003e	0f 84 ae 01 00
	00		 je	 $LN94@LoadInt_e@10
  00044	b1 eb		 mov	 cl, -21			; ffffffebH
  00046	32 d1		 xor	 dl, cl
  00048	88 55 e6	 mov	 BYTE PTR __k$[ebp+2], dl
  0004b	8a 50 03	 mov	 dl, BYTE PTR [eax+3]
  0004e	84 d2		 test	 dl, dl
  00050	0f 84 96 01 00
	00		 je	 $LN93@LoadInt_e@10
  00056	80 f2 ea	 xor	 dl, -22			; ffffffeaH
  00059	88 55 e7	 mov	 BYTE PTR __k$[ebp+3], dl
  0005c	8a 50 04	 mov	 dl, BYTE PTR [eax+4]
  0005f	84 d2		 test	 dl, dl
  00061	0f 84 7f 01 00
	00		 je	 $LN92@LoadInt_e@10
  00067	80 f2 ed	 xor	 dl, -19			; ffffffedH
  0006a	88 55 e8	 mov	 BYTE PTR __k$[ebp+4], dl
  0006d	8a 50 05	 mov	 dl, BYTE PTR [eax+5]
  00070	84 d2		 test	 dl, dl
  00072	0f 84 69 01 00
	00		 je	 $LN91@LoadInt_e@10
  00078	32 d3		 xor	 dl, bl
  0007a	88 55 e9	 mov	 BYTE PTR __k$[ebp+5], dl
  0007d	8a 50 06	 mov	 dl, BYTE PTR [eax+6]
  00080	84 d2		 test	 dl, dl
  00082	0f 84 54 01 00
	00		 je	 $LN90@LoadInt_e@10
  00088	32 d1		 xor	 dl, cl
  0008a	88 55 ea	 mov	 BYTE PTR __k$[ebp+6], dl
  0008d	8a 50 07	 mov	 dl, BYTE PTR [eax+7]
  00090	84 d2		 test	 dl, dl
  00092	0f 84 3e 01 00
	00		 je	 $LN89@LoadInt_e@10
  00098	80 f2 ea	 xor	 dl, -22			; ffffffeaH
  0009b	88 55 eb	 mov	 BYTE PTR __k$[ebp+7], dl
  0009e	8a 50 08	 mov	 dl, BYTE PTR [eax+8]
  000a1	84 d2		 test	 dl, dl
  000a3	0f 84 27 01 00
	00		 je	 $LN88@LoadInt_e@10
  000a9	80 f2 ed	 xor	 dl, -19			; ffffffedH
  000ac	88 55 ec	 mov	 BYTE PTR __k$[ebp+8], dl
  000af	8a 50 09	 mov	 dl, BYTE PTR [eax+9]
  000b2	84 d2		 test	 dl, dl
  000b4	0f 84 11 01 00
	00		 je	 $LN87@LoadInt_e@10
  000ba	32 d3		 xor	 dl, bl
  000bc	88 55 ed	 mov	 BYTE PTR __k$[ebp+9], dl
  000bf	8a 50 0a	 mov	 dl, BYTE PTR [eax+10]
  000c2	84 d2		 test	 dl, dl
  000c4	0f 84 fc 00 00
	00		 je	 $LN86@LoadInt_e@10
  000ca	32 d1		 xor	 dl, cl
  000cc	88 55 ee	 mov	 BYTE PTR __k$[ebp+10], dl
  000cf	8a 50 0b	 mov	 dl, BYTE PTR [eax+11]
  000d2	84 d2		 test	 dl, dl
  000d4	0f 84 e6 00 00
	00		 je	 $LN85@LoadInt_e@10
  000da	80 f2 ea	 xor	 dl, -22			; ffffffeaH
  000dd	88 55 ef	 mov	 BYTE PTR __k$[ebp+11], dl
  000e0	8a 50 0c	 mov	 dl, BYTE PTR [eax+12]
  000e3	84 d2		 test	 dl, dl
  000e5	0f 84 cf 00 00
	00		 je	 $LN84@LoadInt_e@10
  000eb	80 f2 ed	 xor	 dl, -19			; ffffffedH
  000ee	88 55 f0	 mov	 BYTE PTR __k$[ebp+12], dl
  000f1	8a 50 0d	 mov	 dl, BYTE PTR [eax+13]
  000f4	84 d2		 test	 dl, dl
  000f6	0f 84 b9 00 00
	00		 je	 $LN83@LoadInt_e@10
  000fc	32 d3		 xor	 dl, bl
  000fe	88 55 f1	 mov	 BYTE PTR __k$[ebp+13], dl
  00101	8a 50 0e	 mov	 dl, BYTE PTR [eax+14]
  00104	84 d2		 test	 dl, dl
  00106	0f 84 a4 00 00
	00		 je	 $LN82@LoadInt_e@10
  0010c	32 d1		 xor	 dl, cl
  0010e	88 55 f2	 mov	 BYTE PTR __k$[ebp+14], dl
  00111	8a 50 0f	 mov	 dl, BYTE PTR [eax+15]
  00114	84 d2		 test	 dl, dl
  00116	0f 84 8e 00 00
	00		 je	 $LN81@LoadInt_e@10
  0011c	80 f2 ea	 xor	 dl, -22			; ffffffeaH
  0011f	88 55 f3	 mov	 BYTE PTR __k$[ebp+15], dl
  00122	8a 50 10	 mov	 dl, BYTE PTR [eax+16]
  00125	84 d2		 test	 dl, dl
  00127	74 7b		 je	 SHORT $LN80@LoadInt_e@10
  00129	80 f2 ed	 xor	 dl, -19			; ffffffedH
  0012c	88 55 f4	 mov	 BYTE PTR __k$[ebp+16], dl
  0012f	8a 50 11	 mov	 dl, BYTE PTR [eax+17]
  00132	84 d2		 test	 dl, dl
  00134	74 69		 je	 SHORT $LN79@LoadInt_e@10
  00136	32 d3		 xor	 dl, bl
  00138	88 55 f5	 mov	 BYTE PTR __k$[ebp+17], dl
  0013b	8a 50 12	 mov	 dl, BYTE PTR [eax+18]
  0013e	84 d2		 test	 dl, dl
  00140	74 58		 je	 SHORT $LN78@LoadInt_e@10
  00142	32 d1		 xor	 dl, cl
  00144	80 78 13 00	 cmp	 BYTE PTR [eax+19], 0
  00148	88 55 f6	 mov	 BYTE PTR __k$[ebp+18], dl
  0014b	0f 84 b1 00 00
	00		 je	 $LN1@LoadInt_e@10
  00151	8a 50 14	 mov	 dl, BYTE PTR [eax+20]
  00154	84 d2		 test	 dl, dl
  00156	74 3c		 je	 SHORT $LN76@LoadInt_e@10
  00158	80 f2 ed	 xor	 dl, -19			; ffffffedH
  0015b	88 55 f8	 mov	 BYTE PTR __k$[ebp+20], dl
  0015e	8a 50 15	 mov	 dl, BYTE PTR [eax+21]
  00161	84 d2		 test	 dl, dl
  00163	74 2a		 je	 SHORT $LN75@LoadInt_e@10
  00165	32 d3		 xor	 dl, bl
  00167	88 55 f9	 mov	 BYTE PTR __k$[ebp+21], dl
  0016a	8a 50 16	 mov	 dl, BYTE PTR [eax+22]
  0016d	84 d2		 test	 dl, dl
  0016f	74 19		 je	 SHORT $LN74@LoadInt_e@10
  00171	8a 40 17	 mov	 al, BYTE PTR [eax+23]
  00174	32 d1		 xor	 dl, cl
  00176	88 55 fa	 mov	 BYTE PTR __k$[ebp+22], dl
  00179	84 c0		 test	 al, al
  0017b	74 07		 je	 SHORT $LN73@LoadInt_e@10
  0017d	34 ea		 xor	 al, -22			; ffffffeaH
  0017f	88 45 fb	 mov	 BYTE PTR __k$[ebp+23], al
  00182	eb 7e		 jmp	 SHORT $LN1@LoadInt_e@10
$LN73@LoadInt_e@10:
  00184	c6 45 fb ea	 mov	 BYTE PTR __k$[ebp+23], -22 ; ffffffeaH
  00188	eb 78		 jmp	 SHORT $LN1@LoadInt_e@10
$LN74@LoadInt_e@10:
  0018a	88 4d fa	 mov	 BYTE PTR __k$[ebp+22], cl
  0018d	eb 73		 jmp	 SHORT $LN1@LoadInt_e@10
$LN75@LoadInt_e@10:
  0018f	88 5d f9	 mov	 BYTE PTR __k$[ebp+21], bl
  00192	eb 6e		 jmp	 SHORT $LN1@LoadInt_e@10
$LN76@LoadInt_e@10:
  00194	c6 45 f8 ed	 mov	 BYTE PTR __k$[ebp+20], -19 ; ffffffedH
  00198	eb 68		 jmp	 SHORT $LN1@LoadInt_e@10
$LN78@LoadInt_e@10:
  0019a	88 4d f6	 mov	 BYTE PTR __k$[ebp+18], cl
  0019d	eb 63		 jmp	 SHORT $LN1@LoadInt_e@10
$LN79@LoadInt_e@10:
  0019f	88 5d f5	 mov	 BYTE PTR __k$[ebp+17], bl
  001a2	eb 5e		 jmp	 SHORT $LN1@LoadInt_e@10
$LN80@LoadInt_e@10:
  001a4	c6 45 f4 ed	 mov	 BYTE PTR __k$[ebp+16], -19 ; ffffffedH
  001a8	eb 58		 jmp	 SHORT $LN1@LoadInt_e@10
$LN81@LoadInt_e@10:
  001aa	c6 45 f3 ea	 mov	 BYTE PTR __k$[ebp+15], -22 ; ffffffeaH
  001ae	eb 52		 jmp	 SHORT $LN1@LoadInt_e@10
$LN82@LoadInt_e@10:
  001b0	88 4d f2	 mov	 BYTE PTR __k$[ebp+14], cl
  001b3	eb 4d		 jmp	 SHORT $LN1@LoadInt_e@10
$LN83@LoadInt_e@10:
  001b5	88 5d f1	 mov	 BYTE PTR __k$[ebp+13], bl
  001b8	eb 48		 jmp	 SHORT $LN1@LoadInt_e@10
$LN84@LoadInt_e@10:
  001ba	c6 45 f0 ed	 mov	 BYTE PTR __k$[ebp+12], -19 ; ffffffedH
  001be	eb 42		 jmp	 SHORT $LN1@LoadInt_e@10
$LN85@LoadInt_e@10:
  001c0	c6 45 ef ea	 mov	 BYTE PTR __k$[ebp+11], -22 ; ffffffeaH
  001c4	eb 3c		 jmp	 SHORT $LN1@LoadInt_e@10
$LN86@LoadInt_e@10:
  001c6	88 4d ee	 mov	 BYTE PTR __k$[ebp+10], cl
  001c9	eb 37		 jmp	 SHORT $LN1@LoadInt_e@10
$LN87@LoadInt_e@10:
  001cb	88 5d ed	 mov	 BYTE PTR __k$[ebp+9], bl
  001ce	eb 32		 jmp	 SHORT $LN1@LoadInt_e@10
$LN88@LoadInt_e@10:
  001d0	c6 45 ec ed	 mov	 BYTE PTR __k$[ebp+8], -19 ; ffffffedH
  001d4	eb 2c		 jmp	 SHORT $LN1@LoadInt_e@10
$LN89@LoadInt_e@10:
  001d6	c6 45 eb ea	 mov	 BYTE PTR __k$[ebp+7], -22 ; ffffffeaH
  001da	eb 26		 jmp	 SHORT $LN1@LoadInt_e@10
$LN90@LoadInt_e@10:
  001dc	88 4d ea	 mov	 BYTE PTR __k$[ebp+6], cl
  001df	eb 21		 jmp	 SHORT $LN1@LoadInt_e@10
$LN91@LoadInt_e@10:
  001e1	88 5d e9	 mov	 BYTE PTR __k$[ebp+5], bl
  001e4	eb 1c		 jmp	 SHORT $LN1@LoadInt_e@10
$LN92@LoadInt_e@10:
  001e6	c6 45 e8 ed	 mov	 BYTE PTR __k$[ebp+4], -19 ; ffffffedH
  001ea	eb 16		 jmp	 SHORT $LN1@LoadInt_e@10
$LN93@LoadInt_e@10:
  001ec	c6 45 e7 ea	 mov	 BYTE PTR __k$[ebp+3], -22 ; ffffffeaH
  001f0	eb 10		 jmp	 SHORT $LN1@LoadInt_e@10
$LN94@LoadInt_e@10:
  001f2	c6 45 e6 eb	 mov	 BYTE PTR __k$[ebp+2], -21 ; ffffffebH
  001f6	eb 0a		 jmp	 SHORT $LN1@LoadInt_e@10
$LN95@LoadInt_e@10:
  001f8	c6 45 e5 ec	 mov	 BYTE PTR __k$[ebp+1], -20 ; ffffffecH
  001fc	eb 04		 jmp	 SHORT $LN1@LoadInt_e@10
$LN96@LoadInt_e@10:
  001fe	c6 45 e4 ed	 mov	 BYTE PTR __k$[ebp], -19	; ffffffedH
$LN1@LoadInt_e@10:
  00202	6a 04		 push	 4
  00204	8d 45 e4	 lea	 eax, DWORD PTR __k$[ebp]
  00207	c6 45 f7 00	 mov	 BYTE PTR __k$[ebp+19], 0
  0020b	5a		 pop	 edx
$LL104@LoadInt_e@10:
  0020c	81 30 ed ec eb
	ea		 xor	 DWORD PTR [eax], -353637139 ; eaebecedH
  00212	83 c0 04	 add	 eax, 4
  00215	4a		 dec	 edx
  00216	75 f4		 jne	 SHORT $LL104@LoadInt_e@10
  00218	6a 10		 push	 16			; 00000010H
  0021a	58		 pop	 eax
$LL101@LoadInt_e@10:
  0021b	8b c8		 mov	 ecx, eax
  0021d	81 e1 03 00 00
	80		 and	 ecx, -2147483645	; 80000003H
  00223	79 05		 jns	 SHORT $LN111@LoadInt_e@10
  00225	49		 dec	 ecx
  00226	83 c9 fc	 or	 ecx, -4			; fffffffcH
  00229	41		 inc	 ecx
$LN111@LoadInt_e@10:
  0022a	b2 ed		 mov	 dl, -19			; ffffffedH
  0022c	2a d1		 sub	 dl, cl
  0022e	30 54 05 e4	 xor	 BYTE PTR __k$[ebp+eax], dl
  00232	40		 inc	 eax
  00233	83 f8 13	 cmp	 eax, 19			; 00000013H
  00236	7c e3		 jl	 SHORT $LL101@LoadInt_e@10

; 120  : 		return LoadInt(_k, i);

  00238	ff 75 0c	 push	 DWORD PTR _i$[ebp]
  0023b	8d 45 e4	 lea	 eax, DWORD PTR __k$[ebp]
  0023e	50		 push	 eax
  0023f	8b ce		 mov	 ecx, esi
  00241	ff 15 00 00 00
	00		 call	 DWORD PTR __imp_?LoadInt@ioINILoader@@QAEHPBDH@Z

; 121  : 	}

  00247	8b 4d fc	 mov	 ecx, DWORD PTR __$ArrayPad$[ebp]
  0024a	5e		 pop	 esi
  0024b	33 cd		 xor	 ecx, ebp
  0024d	5b		 pop	 ebx
  0024e	e8 00 00 00 00	 call	 @__security_check_cookie@4
  00253	c9		 leave
  00254	c2 08 00	 ret	 8
??$LoadInt_e@$0BE@@ioINILoader@@QAEHAAY0BE@$$CBDH@Z ENDP ; ioINILoader::LoadInt_e<20>
_TEXT	ENDS
PUBLIC	??$GetAnimationEventTime_e@$0N@@ioEntityGroup@@QAEMHAAY0N@$$CBD@Z ; ioEntityGroup::GetAnimationEventTime_e<13>
EXTRN	__imp_?GetAnimationEventTime@ioEntityGroup@@QAEMHABVioHashString@@@Z:PROC
EXTRN	__imp_??0ioHashString@@QAE@PBD@Z:PROC
EXTRN	__EH_epilog3_GS:PROC
EXTRN	__EH_prolog3_GS:PROC
;	COMDAT xdata$x
; File d:\lost saga for developer\youtube\tutorial\source\src\lsclient\stringprotect.h
xdata$x	SEGMENT
__unwindtable$??$GetAnimationEventTime_e@$0N@@ioEntityGroup@@QAEMHAAY0N@$$CBD@Z DD 0ffffffffH
	DD	FLAT:__unwindfunclet$??$GetAnimationEventTime_e@$0N@@ioEntityGroup@@QAEMHAAY0N@$$CBD@Z$0
__ehfuncinfo$??$GetAnimationEventTime_e@$0N@@ioEntityGroup@@QAEMHAAY0N@$$CBD@Z DD 019930522H
	DD	01H
	DD	FLAT:__unwindtable$??$GetAnimationEventTime_e@$0N@@ioEntityGroup@@QAEMHAAY0N@$$CBD@Z
	DD	2 DUP(00H)
	DD	2 DUP(00H)
	DD	00H
	DD	01H
; Function compile flags: /Ogsp
; File d:\lost saga for developer\youtube\tutorial\source\src\io3dengine\ioentitygroup.h
xdata$x	ENDS
;	COMDAT ??$GetAnimationEventTime_e@$0N@@ioEntityGroup@@QAEMHAAY0N@$$CBD@Z
_TEXT	SEGMENT
$T539514 = -56						; size = 16
$T539513 = -40						; size = 4
_szEncEventType$ = -36					; size = 13
__$EHRec$ = -12						; size = 12
_id$ = 8						; size = 4
_szEventType$ = 12					; size = 4
??$GetAnimationEventTime_e@$0N@@ioEntityGroup@@QAEMHAAY0N@$$CBD@Z PROC ; ioEntityGroup::GetAnimationEventTime_e<13>, COMDAT
; _this$ = ecx

; 414  : 	{

  00000	6a 2c		 push	 44			; 0000002cH
  00002	b8 00 00 00 00	 mov	 eax, __ehhandler$??$GetAnimationEventTime_e@$0N@@ioEntityGroup@@QAEMHAAY0N@$$CBD@Z
  00007	e8 00 00 00 00	 call	 __EH_prolog3_GS
  0000c	8b 45 0c	 mov	 eax, DWORD PTR _szEventType$[ebp]
  0000f	8b f1		 mov	 esi, ecx

; 415  : 		_ENCSTR(szEventType, szEncEventType);

  00011	8a 08		 mov	 cl, BYTE PTR [eax]
  00013	84 c9		 test	 cl, cl
  00015	0f 84 49 01 00
	00		 je	 $LN96@GetAnimati
  0001b	80 f1 ed	 xor	 cl, -19			; ffffffedH
  0001e	88 4d dc	 mov	 BYTE PTR _szEncEventType$[ebp], cl
  00021	8a 48 01	 mov	 cl, BYTE PTR [eax+1]
  00024	84 c9		 test	 cl, cl
  00026	0f 84 32 01 00
	00		 je	 $LN95@GetAnimati
  0002c	80 f1 ec	 xor	 cl, -20			; ffffffecH
  0002f	88 4d dd	 mov	 BYTE PTR _szEncEventType$[ebp+1], cl
  00032	8a 48 02	 mov	 cl, BYTE PTR [eax+2]
  00035	84 c9		 test	 cl, cl
  00037	0f 84 1b 01 00
	00		 je	 $LN94@GetAnimati
  0003d	b2 eb		 mov	 dl, -21			; ffffffebH
  0003f	32 ca		 xor	 cl, dl
  00041	88 4d de	 mov	 BYTE PTR _szEncEventType$[ebp+2], cl
  00044	8a 48 03	 mov	 cl, BYTE PTR [eax+3]
  00047	84 c9		 test	 cl, cl
  00049	0f 84 03 01 00
	00		 je	 $LN93@GetAnimati
  0004f	80 f1 ea	 xor	 cl, -22			; ffffffeaH
  00052	88 4d df	 mov	 BYTE PTR _szEncEventType$[ebp+3], cl
  00055	8a 48 04	 mov	 cl, BYTE PTR [eax+4]
  00058	84 c9		 test	 cl, cl
  0005a	0f 84 ec 00 00
	00		 je	 $LN92@GetAnimati
  00060	80 f1 ed	 xor	 cl, -19			; ffffffedH
  00063	88 4d e0	 mov	 BYTE PTR _szEncEventType$[ebp+4], cl
  00066	8a 48 05	 mov	 cl, BYTE PTR [eax+5]
  00069	84 c9		 test	 cl, cl
  0006b	0f 84 d5 00 00
	00		 je	 $LN91@GetAnimati
  00071	80 f1 ec	 xor	 cl, -20			; ffffffecH
  00074	88 4d e1	 mov	 BYTE PTR _szEncEventType$[ebp+5], cl
  00077	8a 48 06	 mov	 cl, BYTE PTR [eax+6]
  0007a	84 c9		 test	 cl, cl
  0007c	0f 84 bf 00 00
	00		 je	 $LN90@GetAnimati
  00082	32 ca		 xor	 cl, dl
  00084	88 4d e2	 mov	 BYTE PTR _szEncEventType$[ebp+6], cl
  00087	8a 48 07	 mov	 cl, BYTE PTR [eax+7]
  0008a	84 c9		 test	 cl, cl
  0008c	0f 84 a9 00 00
	00		 je	 $LN89@GetAnimati
  00092	80 f1 ea	 xor	 cl, -22			; ffffffeaH
  00095	88 4d e3	 mov	 BYTE PTR _szEncEventType$[ebp+7], cl
  00098	8a 48 08	 mov	 cl, BYTE PTR [eax+8]
  0009b	84 c9		 test	 cl, cl
  0009d	0f 84 92 00 00
	00		 je	 $LN88@GetAnimati
  000a3	80 f1 ed	 xor	 cl, -19			; ffffffedH
  000a6	88 4d e4	 mov	 BYTE PTR _szEncEventType$[ebp+8], cl
  000a9	8a 48 09	 mov	 cl, BYTE PTR [eax+9]
  000ac	84 c9		 test	 cl, cl
  000ae	74 7f		 je	 SHORT $LN87@GetAnimati
  000b0	80 f1 ec	 xor	 cl, -20			; ffffffecH
  000b3	88 4d e5	 mov	 BYTE PTR _szEncEventType$[ebp+9], cl
  000b6	8a 48 0a	 mov	 cl, BYTE PTR [eax+10]
  000b9	84 c9		 test	 cl, cl
  000bb	74 6d		 je	 SHORT $LN86@GetAnimati
  000bd	32 ca		 xor	 cl, dl
  000bf	88 4d e6	 mov	 BYTE PTR _szEncEventType$[ebp+10], cl
  000c2	8a 48 0b	 mov	 cl, BYTE PTR [eax+11]
  000c5	84 c9		 test	 cl, cl
  000c7	74 5b		 je	 SHORT $LN85@GetAnimati
  000c9	80 f1 ea	 xor	 cl, -22			; ffffffeaH
  000cc	80 78 0c 00	 cmp	 BYTE PTR [eax+12], 0
  000d0	88 4d e7	 mov	 BYTE PTR _szEncEventType$[ebp+11], cl
  000d3	0f 84 8f 00 00
	00		 je	 $LN1@GetAnimati
  000d9	8a 48 0d	 mov	 cl, BYTE PTR [eax+13]
  000dc	84 c9		 test	 cl, cl
  000de	74 3e		 je	 SHORT $LN83@GetAnimati
  000e0	80 f1 ec	 xor	 cl, -20			; ffffffecH
  000e3	88 4d e9	 mov	 BYTE PTR _szEncEventType$[ebp+13], cl
  000e6	8a 48 0e	 mov	 cl, BYTE PTR [eax+14]
  000e9	84 c9		 test	 cl, cl
  000eb	74 2c		 je	 SHORT $LN82@GetAnimati
  000ed	32 ca		 xor	 cl, dl
  000ef	88 4d ea	 mov	 BYTE PTR _szEncEventType$[ebp+14], cl
  000f2	8a 48 0f	 mov	 cl, BYTE PTR [eax+15]
  000f5	84 c9		 test	 cl, cl
  000f7	74 1a		 je	 SHORT $LN81@GetAnimati
  000f9	8a 40 10	 mov	 al, BYTE PTR [eax+16]
  000fc	80 f1 ea	 xor	 cl, -22			; ffffffeaH
  000ff	88 4d eb	 mov	 BYTE PTR _szEncEventType$[ebp+15], cl
  00102	84 c0		 test	 al, al
  00104	74 07		 je	 SHORT $LN80@GetAnimati
  00106	34 ed		 xor	 al, -19			; ffffffedH
  00108	88 45 ec	 mov	 BYTE PTR _szEncEventType$[ebp+16], al
  0010b	eb 5b		 jmp	 SHORT $LN1@GetAnimati
$LN80@GetAnimati:
  0010d	c6 45 ec ed	 mov	 BYTE PTR _szEncEventType$[ebp+16], -19 ; ffffffedH
  00111	eb 55		 jmp	 SHORT $LN1@GetAnimati
$LN81@GetAnimati:
  00113	c6 45 eb ea	 mov	 BYTE PTR _szEncEventType$[ebp+15], -22 ; ffffffeaH
  00117	eb 4f		 jmp	 SHORT $LN1@GetAnimati
$LN82@GetAnimati:
  00119	88 55 ea	 mov	 BYTE PTR _szEncEventType$[ebp+14], dl
  0011c	eb 4a		 jmp	 SHORT $LN1@GetAnimati
$LN83@GetAnimati:
  0011e	c6 45 e9 ec	 mov	 BYTE PTR _szEncEventType$[ebp+13], -20 ; ffffffecH
  00122	eb 44		 jmp	 SHORT $LN1@GetAnimati
$LN85@GetAnimati:
  00124	c6 45 e7 ea	 mov	 BYTE PTR _szEncEventType$[ebp+11], -22 ; ffffffeaH
  00128	eb 3e		 jmp	 SHORT $LN1@GetAnimati
$LN86@GetAnimati:
  0012a	88 55 e6	 mov	 BYTE PTR _szEncEventType$[ebp+10], dl
  0012d	eb 39		 jmp	 SHORT $LN1@GetAnimati
$LN87@GetAnimati:
  0012f	c6 45 e5 ec	 mov	 BYTE PTR _szEncEventType$[ebp+9], -20 ; ffffffecH
  00133	eb 33		 jmp	 SHORT $LN1@GetAnimati
$LN88@GetAnimati:
  00135	c6 45 e4 ed	 mov	 BYTE PTR _szEncEventType$[ebp+8], -19 ; ffffffedH
  00139	eb 2d		 jmp	 SHORT $LN1@GetAnimati
$LN89@GetAnimati:
  0013b	c6 45 e3 ea	 mov	 BYTE PTR _szEncEventType$[ebp+7], -22 ; ffffffeaH
  0013f	eb 27		 jmp	 SHORT $LN1@GetAnimati
$LN90@GetAnimati:
  00141	88 55 e2	 mov	 BYTE PTR _szEncEventType$[ebp+6], dl
  00144	eb 22		 jmp	 SHORT $LN1@GetAnimati
$LN91@GetAnimati:
  00146	c6 45 e1 ec	 mov	 BYTE PTR _szEncEventType$[ebp+5], -20 ; ffffffecH
  0014a	eb 1c		 jmp	 SHORT $LN1@GetAnimati
$LN92@GetAnimati:
  0014c	c6 45 e0 ed	 mov	 BYTE PTR _szEncEventType$[ebp+4], -19 ; ffffffedH
  00150	eb 16		 jmp	 SHORT $LN1@GetAnimati
$LN93@GetAnimati:
  00152	c6 45 df ea	 mov	 BYTE PTR _szEncEventType$[ebp+3], -22 ; ffffffeaH
  00156	eb 10		 jmp	 SHORT $LN1@GetAnimati
$LN94@GetAnimati:
  00158	c6 45 de eb	 mov	 BYTE PTR _szEncEventType$[ebp+2], -21 ; ffffffebH
  0015c	eb 0a		 jmp	 SHORT $LN1@GetAnimati
$LN95@GetAnimati:
  0015e	c6 45 dd ec	 mov	 BYTE PTR _szEncEventType$[ebp+1], -20 ; ffffffecH
  00162	eb 04		 jmp	 SHORT $LN1@GetAnimati
$LN96@GetAnimati:
  00164	c6 45 dc ed	 mov	 BYTE PTR _szEncEventType$[ebp], -19 ; ffffffedH
$LN1@GetAnimati:
  00168	6a 03		 push	 3
  0016a	8d 45 dc	 lea	 eax, DWORD PTR _szEncEventType$[ebp]
  0016d	c6 45 e8 00	 mov	 BYTE PTR _szEncEventType$[ebp+12], 0
  00171	59		 pop	 ecx
$LL105@GetAnimati:
  00172	81 30 ed ec eb
	ea		 xor	 DWORD PTR [eax], -353637139 ; eaebecedH
  00178	83 c0 04	 add	 eax, 4
  0017b	49		 dec	 ecx
  0017c	75 f4		 jne	 SHORT $LL105@GetAnimati

; 416  : 		return GetAnimationEventTime(id, szEncEventType);

  0017e	8d 45 dc	 lea	 eax, DWORD PTR _szEncEventType$[ebp]
  00181	50		 push	 eax
  00182	8d 4d c8	 lea	 ecx, DWORD PTR $T539514[ebp]
  00185	ff 15 00 00 00
	00		 call	 DWORD PTR __imp_??0ioHashString@@QAE@PBD@Z
  0018b	83 65 fc 00	 and	 DWORD PTR __$EHRec$[ebp+8], 0
  0018f	8d 45 c8	 lea	 eax, DWORD PTR $T539514[ebp]
  00192	50		 push	 eax
  00193	ff 75 08	 push	 DWORD PTR _id$[ebp]
  00196	8b ce		 mov	 ecx, esi
  00198	ff 15 00 00 00
	00		 call	 DWORD PTR __imp_?GetAnimationEventTime@ioEntityGroup@@QAEMHABVioHashString@@@Z
  0019e	d9 5d d8	 fstp	 DWORD PTR $T539513[ebp]
  001a1	83 4d fc ff	 or	 DWORD PTR __$EHRec$[ebp+8], -1
  001a5	8d 4d c8	 lea	 ecx, DWORD PTR $T539514[ebp]
  001a8	ff 15 00 00 00
	00		 call	 DWORD PTR __imp_??1ioHashString@@QAE@XZ
  001ae	d9 45 d8	 fld	 DWORD PTR $T539513[ebp]

; 417  : 	}

  001b1	e8 00 00 00 00	 call	 __EH_epilog3_GS
  001b6	c2 08 00	 ret	 8
_TEXT	ENDS
;	COMDAT text$x
text$x	SEGMENT
__unwindfunclet$??$GetAnimationEventTime_e@$0N@@ioEntityGroup@@QAEMHAAY0N@$$CBD@Z$0:
  00000	8d 4d c8	 lea	 ecx, DWORD PTR $T539514[ebp]
  00003	ff 25 00 00 00
	00		 jmp	 DWORD PTR __imp_??1ioHashString@@QAE@XZ
__ehhandler$??$GetAnimationEventTime_e@$0N@@ioEntityGroup@@QAEMHAAY0N@$$CBD@Z:
  00009	8b 54 24 08	 mov	 edx, DWORD PTR [esp+8]
  0000d	8d 42 0c	 lea	 eax, DWORD PTR [edx+12]
  00010	8b 4a c4	 mov	 ecx, DWORD PTR [edx-60]
  00013	33 c8		 xor	 ecx, eax
  00015	e8 00 00 00 00	 call	 @__security_check_cookie@4
  0001a	8b 4a fc	 mov	 ecx, DWORD PTR [edx-4]
  0001d	33 c8		 xor	 ecx, eax
  0001f	e8 00 00 00 00	 call	 @__security_check_cookie@4
  00024	b8 00 00 00 00	 mov	 eax, OFFSET __ehfuncinfo$??$GetAnimationEventTime_e@$0N@@ioEntityGroup@@QAEMHAAY0N@$$CBD@Z
  00029	e9 00 00 00 00	 jmp	 ___CxxFrameHandler3
text$x	ENDS
??$GetAnimationEventTime_e@$0N@@ioEntityGroup@@QAEMHAAY0N@$$CBD@Z ENDP ; ioEntityGroup::GetAnimationEventTime_e<13>
PUBLIC	??$GetAnimationEventTime_e@$0M@@ioEntityGroup@@QAEMHAAY0M@$$CBD@Z ; ioEntityGroup::GetAnimationEventTime_e<12>
;	COMDAT xdata$x
; File d:\lost saga for developer\youtube\tutorial\source\src\lsclient\stringprotect.h
xdata$x	SEGMENT
__unwindtable$??$GetAnimationEventTime_e@$0M@@ioEntityGroup@@QAEMHAAY0M@$$CBD@Z DD 0ffffffffH
	DD	FLAT:__unwindfunclet$??$GetAnimationEventTime_e@$0M@@ioEntityGroup@@QAEMHAAY0M@$$CBD@Z$0
__ehfuncinfo$??$GetAnimationEventTime_e@$0M@@ioEntityGroup@@QAEMHAAY0M@$$CBD@Z DD 019930522H
	DD	01H
	DD	FLAT:__unwindtable$??$GetAnimationEventTime_e@$0M@@ioEntityGroup@@QAEMHAAY0M@$$CBD@Z
	DD	2 DUP(00H)
	DD	2 DUP(00H)
	DD	00H
	DD	01H
; Function compile flags: /Ogsp
; File d:\lost saga for developer\youtube\tutorial\source\src\io3dengine\ioentitygroup.h
xdata$x	ENDS
;	COMDAT ??$GetAnimationEventTime_e@$0M@@ioEntityGroup@@QAEMHAAY0M@$$CBD@Z
_TEXT	SEGMENT
$T539546 = -52						; size = 16
$T539545 = -36						; size = 4
_szEncEventType$ = -32					; size = 12
__$EHRec$ = -12						; size = 12
_id$ = 8						; size = 4
_szEventType$ = 12					; size = 4
??$GetAnimationEventTime_e@$0M@@ioEntityGroup@@QAEMHAAY0M@$$CBD@Z PROC ; ioEntityGroup::GetAnimationEventTime_e<12>, COMDAT
; _this$ = ecx

; 414  : 	{

  00000	6a 28		 push	 40			; 00000028H
  00002	b8 00 00 00 00	 mov	 eax, __ehhandler$??$GetAnimationEventTime_e@$0M@@ioEntityGroup@@QAEMHAAY0M@$$CBD@Z
  00007	e8 00 00 00 00	 call	 __EH_prolog3_GS
  0000c	8b 45 0c	 mov	 eax, DWORD PTR _szEventType$[ebp]
  0000f	8b f1		 mov	 esi, ecx

; 415  : 		_ENCSTR(szEventType, szEncEventType);

  00011	8a 08		 mov	 cl, BYTE PTR [eax]
  00013	84 c9		 test	 cl, cl
  00015	0f 84 36 01 00
	00		 je	 $LN96@GetAnimati@2
  0001b	b2 ed		 mov	 dl, -19			; ffffffedH
  0001d	32 ca		 xor	 cl, dl
  0001f	88 4d e0	 mov	 BYTE PTR _szEncEventType$[ebp], cl
  00022	8a 48 01	 mov	 cl, BYTE PTR [eax+1]
  00025	84 c9		 test	 cl, cl
  00027	0f 84 1e 01 00
	00		 je	 $LN95@GetAnimati@2
  0002d	80 f1 ec	 xor	 cl, -20			; ffffffecH
  00030	88 4d e1	 mov	 BYTE PTR _szEncEventType$[ebp+1], cl
  00033	8a 48 02	 mov	 cl, BYTE PTR [eax+2]
  00036	84 c9		 test	 cl, cl
  00038	0f 84 07 01 00
	00		 je	 $LN94@GetAnimati@2
  0003e	80 f1 eb	 xor	 cl, -21			; ffffffebH
  00041	88 4d e2	 mov	 BYTE PTR _szEncEventType$[ebp+2], cl
  00044	8a 48 03	 mov	 cl, BYTE PTR [eax+3]
  00047	84 c9		 test	 cl, cl
  00049	0f 84 f0 00 00
	00		 je	 $LN93@GetAnimati@2
  0004f	80 f1 ea	 xor	 cl, -22			; ffffffeaH
  00052	88 4d e3	 mov	 BYTE PTR _szEncEventType$[ebp+3], cl
  00055	8a 48 04	 mov	 cl, BYTE PTR [eax+4]
  00058	84 c9		 test	 cl, cl
  0005a	0f 84 da 00 00
	00		 je	 $LN92@GetAnimati@2
  00060	32 ca		 xor	 cl, dl
  00062	88 4d e4	 mov	 BYTE PTR _szEncEventType$[ebp+4], cl
  00065	8a 48 05	 mov	 cl, BYTE PTR [eax+5]
  00068	84 c9		 test	 cl, cl
  0006a	0f 84 c4 00 00
	00		 je	 $LN91@GetAnimati@2
  00070	80 f1 ec	 xor	 cl, -20			; ffffffecH
  00073	88 4d e5	 mov	 BYTE PTR _szEncEventType$[ebp+5], cl
  00076	8a 48 06	 mov	 cl, BYTE PTR [eax+6]
  00079	84 c9		 test	 cl, cl
  0007b	0f 84 ad 00 00
	00		 je	 $LN90@GetAnimati@2
  00081	80 f1 eb	 xor	 cl, -21			; ffffffebH
  00084	88 4d e6	 mov	 BYTE PTR _szEncEventType$[ebp+6], cl
  00087	8a 48 07	 mov	 cl, BYTE PTR [eax+7]
  0008a	84 c9		 test	 cl, cl
  0008c	0f 84 96 00 00
	00		 je	 $LN89@GetAnimati@2
  00092	80 f1 ea	 xor	 cl, -22			; ffffffeaH
  00095	88 4d e7	 mov	 BYTE PTR _szEncEventType$[ebp+7], cl
  00098	8a 48 08	 mov	 cl, BYTE PTR [eax+8]
  0009b	84 c9		 test	 cl, cl
  0009d	0f 84 80 00 00
	00		 je	 $LN88@GetAnimati@2
  000a3	32 ca		 xor	 cl, dl
  000a5	88 4d e8	 mov	 BYTE PTR _szEncEventType$[ebp+8], cl
  000a8	8a 48 09	 mov	 cl, BYTE PTR [eax+9]
  000ab	84 c9		 test	 cl, cl
  000ad	74 6e		 je	 SHORT $LN87@GetAnimati@2
  000af	80 f1 ec	 xor	 cl, -20			; ffffffecH
  000b2	88 4d e9	 mov	 BYTE PTR _szEncEventType$[ebp+9], cl
  000b5	8a 48 0a	 mov	 cl, BYTE PTR [eax+10]
  000b8	84 c9		 test	 cl, cl
  000ba	74 5b		 je	 SHORT $LN86@GetAnimati@2
  000bc	80 f1 eb	 xor	 cl, -21			; ffffffebH
  000bf	80 78 0b 00	 cmp	 BYTE PTR [eax+11], 0
  000c3	88 4d ea	 mov	 BYTE PTR _szEncEventType$[ebp+10], cl
  000c6	0f 84 89 00 00
	00		 je	 $LN1@GetAnimati@2
  000cc	8a 48 0c	 mov	 cl, BYTE PTR [eax+12]
  000cf	84 c9		 test	 cl, cl
  000d1	74 3f		 je	 SHORT $LN84@GetAnimati@2
  000d3	32 ca		 xor	 cl, dl
  000d5	88 4d ec	 mov	 BYTE PTR _szEncEventType$[ebp+12], cl
  000d8	8a 48 0d	 mov	 cl, BYTE PTR [eax+13]
  000db	84 c9		 test	 cl, cl
  000dd	74 2d		 je	 SHORT $LN83@GetAnimati@2
  000df	80 f1 ec	 xor	 cl, -20			; ffffffecH
  000e2	88 4d ed	 mov	 BYTE PTR _szEncEventType$[ebp+13], cl
  000e5	8a 48 0e	 mov	 cl, BYTE PTR [eax+14]
  000e8	84 c9		 test	 cl, cl
  000ea	74 1a		 je	 SHORT $LN82@GetAnimati@2
  000ec	8a 40 0f	 mov	 al, BYTE PTR [eax+15]
  000ef	80 f1 eb	 xor	 cl, -21			; ffffffebH
  000f2	88 4d ee	 mov	 BYTE PTR _szEncEventType$[ebp+14], cl
  000f5	84 c0		 test	 al, al
  000f7	74 07		 je	 SHORT $LN81@GetAnimati@2
  000f9	34 ea		 xor	 al, -22			; ffffffeaH
  000fb	88 45 ef	 mov	 BYTE PTR _szEncEventType$[ebp+15], al
  000fe	eb 55		 jmp	 SHORT $LN1@GetAnimati@2
$LN81@GetAnimati@2:
  00100	c6 45 ef ea	 mov	 BYTE PTR _szEncEventType$[ebp+15], -22 ; ffffffeaH
  00104	eb 4f		 jmp	 SHORT $LN1@GetAnimati@2
$LN82@GetAnimati@2:
  00106	c6 45 ee eb	 mov	 BYTE PTR _szEncEventType$[ebp+14], -21 ; ffffffebH
  0010a	eb 49		 jmp	 SHORT $LN1@GetAnimati@2
$LN83@GetAnimati@2:
  0010c	c6 45 ed ec	 mov	 BYTE PTR _szEncEventType$[ebp+13], -20 ; ffffffecH
  00110	eb 43		 jmp	 SHORT $LN1@GetAnimati@2
$LN84@GetAnimati@2:
  00112	88 55 ec	 mov	 BYTE PTR _szEncEventType$[ebp+12], dl
  00115	eb 3e		 jmp	 SHORT $LN1@GetAnimati@2
$LN86@GetAnimati@2:
  00117	c6 45 ea eb	 mov	 BYTE PTR _szEncEventType$[ebp+10], -21 ; ffffffebH
  0011b	eb 38		 jmp	 SHORT $LN1@GetAnimati@2
$LN87@GetAnimati@2:
  0011d	c6 45 e9 ec	 mov	 BYTE PTR _szEncEventType$[ebp+9], -20 ; ffffffecH
  00121	eb 32		 jmp	 SHORT $LN1@GetAnimati@2
$LN88@GetAnimati@2:
  00123	88 55 e8	 mov	 BYTE PTR _szEncEventType$[ebp+8], dl
  00126	eb 2d		 jmp	 SHORT $LN1@GetAnimati@2
$LN89@GetAnimati@2:
  00128	c6 45 e7 ea	 mov	 BYTE PTR _szEncEventType$[ebp+7], -22 ; ffffffeaH
  0012c	eb 27		 jmp	 SHORT $LN1@GetAnimati@2
$LN90@GetAnimati@2:
  0012e	c6 45 e6 eb	 mov	 BYTE PTR _szEncEventType$[ebp+6], -21 ; ffffffebH
  00132	eb 21		 jmp	 SHORT $LN1@GetAnimati@2
$LN91@GetAnimati@2:
  00134	c6 45 e5 ec	 mov	 BYTE PTR _szEncEventType$[ebp+5], -20 ; ffffffecH
  00138	eb 1b		 jmp	 SHORT $LN1@GetAnimati@2
$LN92@GetAnimati@2:
  0013a	88 55 e4	 mov	 BYTE PTR _szEncEventType$[ebp+4], dl
  0013d	eb 16		 jmp	 SHORT $LN1@GetAnimati@2
$LN93@GetAnimati@2:
  0013f	c6 45 e3 ea	 mov	 BYTE PTR _szEncEventType$[ebp+3], -22 ; ffffffeaH
  00143	eb 10		 jmp	 SHORT $LN1@GetAnimati@2
$LN94@GetAnimati@2:
  00145	c6 45 e2 eb	 mov	 BYTE PTR _szEncEventType$[ebp+2], -21 ; ffffffebH
  00149	eb 0a		 jmp	 SHORT $LN1@GetAnimati@2
$LN95@GetAnimati@2:
  0014b	c6 45 e1 ec	 mov	 BYTE PTR _szEncEventType$[ebp+1], -20 ; ffffffecH
  0014f	eb 04		 jmp	 SHORT $LN1@GetAnimati@2
$LN96@GetAnimati@2:
  00151	c6 45 e0 ed	 mov	 BYTE PTR _szEncEventType$[ebp], -19 ; ffffffedH
$LN1@GetAnimati@2:
  00155	6a 02		 push	 2
  00157	8d 45 e0	 lea	 eax, DWORD PTR _szEncEventType$[ebp]
  0015a	c6 45 eb 00	 mov	 BYTE PTR _szEncEventType$[ebp+11], 0
  0015e	59		 pop	 ecx
$LL105@GetAnimati@2:
  0015f	81 30 ed ec eb
	ea		 xor	 DWORD PTR [eax], -353637139 ; eaebecedH
  00165	83 c0 04	 add	 eax, 4
  00168	49		 dec	 ecx
  00169	75 f4		 jne	 SHORT $LL105@GetAnimati@2
  0016b	6a 08		 push	 8
  0016d	58		 pop	 eax
$LL102@GetAnimati@2:
  0016e	8b c8		 mov	 ecx, eax
  00170	81 e1 03 00 00
	80		 and	 ecx, -2147483645	; 80000003H
  00176	79 05		 jns	 SHORT $LN113@GetAnimati@2
  00178	49		 dec	 ecx
  00179	83 c9 fc	 or	 ecx, -4			; fffffffcH
  0017c	41		 inc	 ecx
$LN113@GetAnimati@2:
  0017d	b2 ed		 mov	 dl, -19			; ffffffedH
  0017f	2a d1		 sub	 dl, cl
  00181	30 54 05 e0	 xor	 BYTE PTR _szEncEventType$[ebp+eax], dl
  00185	40		 inc	 eax
  00186	83 f8 0b	 cmp	 eax, 11			; 0000000bH
  00189	7c e3		 jl	 SHORT $LL102@GetAnimati@2

; 416  : 		return GetAnimationEventTime(id, szEncEventType);

  0018b	8d 45 e0	 lea	 eax, DWORD PTR _szEncEventType$[ebp]
  0018e	50		 push	 eax
  0018f	8d 4d cc	 lea	 ecx, DWORD PTR $T539546[ebp]
  00192	ff 15 00 00 00
	00		 call	 DWORD PTR __imp_??0ioHashString@@QAE@PBD@Z
  00198	83 65 fc 00	 and	 DWORD PTR __$EHRec$[ebp+8], 0
  0019c	8d 45 cc	 lea	 eax, DWORD PTR $T539546[ebp]
  0019f	50		 push	 eax
  001a0	ff 75 08	 push	 DWORD PTR _id$[ebp]
  001a3	8b ce		 mov	 ecx, esi
  001a5	ff 15 00 00 00
	00		 call	 DWORD PTR __imp_?GetAnimationEventTime@ioEntityGroup@@QAEMHABVioHashString@@@Z
  001ab	d9 5d dc	 fstp	 DWORD PTR $T539545[ebp]
  001ae	83 4d fc ff	 or	 DWORD PTR __$EHRec$[ebp+8], -1
  001b2	8d 4d cc	 lea	 ecx, DWORD PTR $T539546[ebp]
  001b5	ff 15 00 00 00
	00		 call	 DWORD PTR __imp_??1ioHashString@@QAE@XZ
  001bb	d9 45 dc	 fld	 DWORD PTR $T539545[ebp]

; 417  : 	}

  001be	e8 00 00 00 00	 call	 __EH_epilog3_GS
  001c3	c2 08 00	 ret	 8
_TEXT	ENDS
;	COMDAT text$x
text$x	SEGMENT
__unwindfunclet$??$GetAnimationEventTime_e@$0M@@ioEntityGroup@@QAEMHAAY0M@$$CBD@Z$0:
  00000	8d 4d cc	 lea	 ecx, DWORD PTR $T539546[ebp]
  00003	ff 25 00 00 00
	00		 jmp	 DWORD PTR __imp_??1ioHashString@@QAE@XZ
__ehhandler$??$GetAnimationEventTime_e@$0M@@ioEntityGroup@@QAEMHAAY0M@$$CBD@Z:
  00009	8b 54 24 08	 mov	 edx, DWORD PTR [esp+8]
  0000d	8d 42 0c	 lea	 eax, DWORD PTR [edx+12]
  00010	8b 4a c8	 mov	 ecx, DWORD PTR [edx-56]
  00013	33 c8		 xor	 ecx, eax
  00015	e8 00 00 00 00	 call	 @__security_check_cookie@4
  0001a	8b 4a fc	 mov	 ecx, DWORD PTR [edx-4]
  0001d	33 c8		 xor	 ecx, eax
  0001f	e8 00 00 00 00	 call	 @__security_check_cookie@4
  00024	b8 00 00 00 00	 mov	 eax, OFFSET __ehfuncinfo$??$GetAnimationEventTime_e@$0M@@ioEntityGroup@@QAEMHAAY0M@$$CBD@Z
  00029	e9 00 00 00 00	 jmp	 ___CxxFrameHandler3
text$x	ENDS
??$GetAnimationEventTime_e@$0M@@ioEntityGroup@@QAEMHAAY0M@$$CBD@Z ENDP ; ioEntityGroup::GetAnimationEventTime_e<12>
PUBLIC	__real@3fd2ee0d320154cb
PUBLIC	__real@41f0000000000000
PUBLIC	??$RADtoDEG@M@@YAMM@Z				; RADtoDEG<float>
;	COMDAT __real@3fd2ee0d320154cb
; File d:\lost saga for developer\youtube\tutorial\source\src\lsclient\veryoftenusedefine.h
CONST	SEGMENT
__real@3fd2ee0d320154cb DQ 03fd2ee0d320154cbr	; 0.29578
CONST	ENDS
;	COMDAT __real@41f0000000000000
CONST	SEGMENT
__real@41f0000000000000 DQ 041f0000000000000r	; 4.29497e+009
; Function compile flags: /Ogsp
CONST	ENDS
;	COMDAT ??$RADtoDEG@M@@YAMM@Z
_TEXT	SEGMENT
tv130 = -4						; size = 4
tv75 = 8						; size = 4
_val$ = 8						; size = 4
??$RADtoDEG@M@@YAMM@Z PROC				; RADtoDEG<float>, COMDAT

; 18   : type  RADtoDEG (type val) {return (type) (val * (return57() + 0.2957795132)); }

  00000	55		 push	 ebp
  00001	8b ec		 mov	 ebp, esp
  00003	51		 push	 ecx
  00004	b8 39 00 00 00	 mov	 eax, 57			; 00000039H
  00009	89 45 fc	 mov	 DWORD PTR tv130[ebp], eax
  0000c	db 45 fc	 fild	 DWORD PTR tv130[ebp]
  0000f	85 c0		 test	 eax, eax
  00011	79 06		 jns	 SHORT $LN5@RADtoDEG
  00013	dc 05 00 00 00
	00		 fadd	 QWORD PTR __real@41f0000000000000
$LN5@RADtoDEG:
  00019	dc 05 00 00 00
	00		 fadd	 QWORD PTR __real@3fd2ee0d320154cb
  0001f	d8 4d 08	 fmul	 DWORD PTR _val$[ebp]
  00022	d9 5d 08	 fstp	 DWORD PTR tv75[ebp]
  00025	d9 45 08	 fld	 DWORD PTR tv75[ebp]
  00028	c9		 leave
  00029	c3		 ret	 0
??$RADtoDEG@M@@YAMM@Z ENDP				; RADtoDEG<float>
_TEXT	ENDS
PUBLIC	??$_Copy_impl@PAVioHashString@@PAV1@@std@@YAPAVioHashString@@PAV1@00@Z ; std::_Copy_impl<ioHashString *,ioHashString *>
; Function compile flags: /Ogsp
; File c:\program files (x86)\microsoft visual studio 10.0\vc\include\xutility
;	COMDAT ??$_Copy_impl@PAVioHashString@@PAV1@@std@@YAPAVioHashString@@PAV1@00@Z
_TEXT	SEGMENT
__Cat$539589 = -4					; size = 1
__First$ = 8						; size = 4
__Last$ = 12						; size = 4
__Dest$ = 16						; size = 4
??$_Copy_impl@PAVioHashString@@PAV1@@std@@YAPAVioHashString@@PAV1@00@Z PROC ; std::_Copy_impl<ioHashString *,ioHashString *>, COMDAT

; 2163 : 	{	// copy [_First, _Last) to [_Dest, ...)

  00000	55		 push	 ebp
  00001	8b ec		 mov	 ebp, esp
  00003	51		 push	 ecx

; 2164 : 	return (_Copy_impl(_First, _Last,
; 2165 : 		_Dest, _Ptr_cat(_First, _Dest)));

  00004	ff 75 fc	 push	 DWORD PTR __Cat$539589[ebp]
  00007	ff 75 10	 push	 DWORD PTR __Dest$[ebp]
  0000a	ff 75 0c	 push	 DWORD PTR __Last$[ebp]
  0000d	ff 75 08	 push	 DWORD PTR __First$[ebp]
  00010	e8 00 00 00 00	 call	 ??$_Copy_impl@PAVioHashString@@PAV1@@std@@YAPAVioHashString@@PAV1@00U_Nonscalar_ptr_iterator_tag@0@@Z ; std::_Copy_impl<ioHashString *,ioHashString *>
  00015	83 c4 10	 add	 esp, 16			; 00000010H

; 2166 : 	}

  00018	c9		 leave
  00019	c3		 ret	 0
??$_Copy_impl@PAVioHashString@@PAV1@@std@@YAPAVioHashString@@PAV1@00@Z ENDP ; std::_Copy_impl<ioHashString *,ioHashString *>
_TEXT	ENDS
PUBLIC	??$construct@AAVioHashString@@@?$allocator@VioHashString@@@std@@QAEXPAVioHashString@@AAV2@@Z ; std::allocator<ioHashString>::construct<ioHashString &>
;	COMDAT xdata$x
; File c:\program files (x86)\microsoft visual studio 10.0\vc\include\utility
xdata$x	SEGMENT
__unwindtable$??$construct@AAVioHashString@@@?$allocator@VioHashString@@@std@@QAEXPAVioHashString@@AAV2@@Z DD 0ffffffffH
	DD	FLAT:__unwindfunclet$??$construct@AAVioHashString@@@?$allocator@VioHashString@@@std@@QAEXPAVioHashString@@AAV2@@Z$0
__ehfuncinfo$??$construct@AAVioHashString@@@?$allocator@VioHashString@@@std@@QAEXPAVioHashString@@AAV2@@Z DD 019930522H
	DD	01H
	DD	FLAT:__unwindtable$??$construct@AAVioHashString@@@?$allocator@VioHashString@@@std@@QAEXPAVioHashString@@AAV2@@Z
	DD	2 DUP(00H)
	DD	2 DUP(00H)
	DD	00H
	DD	01H
; Function compile flags: /Ogsp
; File c:\program files (x86)\microsoft visual studio 10.0\vc\include\xmemory
xdata$x	ENDS
;	COMDAT ??$construct@AAVioHashString@@@?$allocator@VioHashString@@@std@@QAEXPAVioHashString@@AAV2@@Z
_TEXT	SEGMENT
$T539594 = -16						; size = 4
__$EHRec$ = -12						; size = 12
__Ptr$ = 8						; size = 4
__Val$ = 12						; size = 4
??$construct@AAVioHashString@@@?$allocator@VioHashString@@@std@@QAEXPAVioHashString@@AAV2@@Z PROC ; std::allocator<ioHashString>::construct<ioHashString &>, COMDAT
; _this$ = ecx

; 206  : 		void construct(pointer _Ptr, _Other&& _Val)

  00000	6a 04		 push	 4
  00002	b8 00 00 00 00	 mov	 eax, __ehhandler$??$construct@AAVioHashString@@@?$allocator@VioHashString@@@std@@QAEXPAVioHashString@@AAV2@@Z
  00007	e8 00 00 00 00	 call	 __EH_prolog3

; 207  : 		{	// construct object at _Ptr with value _Val
; 208  : 		::new ((void _FARQ *)_Ptr) _Ty(_STD forward<_Other>(_Val));

  0000c	8b 4d 08	 mov	 ecx, DWORD PTR __Ptr$[ebp]
  0000f	89 4d f0	 mov	 DWORD PTR $T539594[ebp], ecx
  00012	83 65 fc 00	 and	 DWORD PTR __$EHRec$[ebp+8], 0
  00016	85 c9		 test	 ecx, ecx
  00018	74 09		 je	 SHORT $LN3@construct
  0001a	ff 75 0c	 push	 DWORD PTR __Val$[ebp]
  0001d	ff 15 00 00 00
	00		 call	 DWORD PTR __imp_??0ioHashString@@QAE@ABV0@@Z
$LN3@construct:

; 209  : 		}

  00023	e8 00 00 00 00	 call	 __EH_epilog3
  00028	c2 08 00	 ret	 8
_TEXT	ENDS
;	COMDAT text$x
text$x	SEGMENT
__unwindfunclet$??$construct@AAVioHashString@@@?$allocator@VioHashString@@@std@@QAEXPAVioHashString@@AAV2@@Z$0:
  00000	ff 75 08	 push	 DWORD PTR __Ptr$[ebp]
  00003	ff 75 f0	 push	 DWORD PTR $T539594[ebp]
  00006	e8 00 00 00 00	 call	 ??3@YAXPAX0@Z		; operator delete
  0000b	59		 pop	 ecx
  0000c	59		 pop	 ecx
  0000d	c3		 ret	 0
__ehhandler$??$construct@AAVioHashString@@@?$allocator@VioHashString@@@std@@QAEXPAVioHashString@@AAV2@@Z:
  0000e	8b 54 24 08	 mov	 edx, DWORD PTR [esp+8]
  00012	8d 42 0c	 lea	 eax, DWORD PTR [edx+12]
  00015	8b 4a ec	 mov	 ecx, DWORD PTR [edx-20]
  00018	33 c8		 xor	 ecx, eax
  0001a	e8 00 00 00 00	 call	 @__security_check_cookie@4
  0001f	b8 00 00 00 00	 mov	 eax, OFFSET __ehfuncinfo$??$construct@AAVioHashString@@@?$allocator@VioHashString@@@std@@QAEXPAVioHashString@@AAV2@@Z
  00024	e9 00 00 00 00	 jmp	 ___CxxFrameHandler3
text$x	ENDS
??$construct@AAVioHashString@@@?$allocator@VioHashString@@@std@@QAEXPAVioHashString@@AAV2@@Z ENDP ; std::allocator<ioHashString>::construct<ioHashString &>
PUBLIC	?construct@?$allocator@VioHashString@@@std@@QAEXPAVioHashString@@$$QAV3@@Z ; std::allocator<ioHashString>::construct
;	COMDAT xdata$x
; File c:\program files (x86)\microsoft visual studio 10.0\vc\include\utility
xdata$x	SEGMENT
__unwindtable$?construct@?$allocator@VioHashString@@@std@@QAEXPAVioHashString@@$$QAV3@@Z DD 0ffffffffH
	DD	FLAT:__unwindfunclet$?construct@?$allocator@VioHashString@@@std@@QAEXPAVioHashString@@$$QAV3@@Z$0
__ehfuncinfo$?construct@?$allocator@VioHashString@@@std@@QAEXPAVioHashString@@$$QAV3@@Z DD 019930522H
	DD	01H
	DD	FLAT:__unwindtable$?construct@?$allocator@VioHashString@@@std@@QAEXPAVioHashString@@$$QAV3@@Z
	DD	2 DUP(00H)
	DD	2 DUP(00H)
	DD	00H
	DD	01H
; Function compile flags: /Ogsp
; File c:\program files (x86)\microsoft visual studio 10.0\vc\include\xmemory
xdata$x	ENDS
;	COMDAT ?construct@?$allocator@VioHashString@@@std@@QAEXPAVioHashString@@$$QAV3@@Z
_TEXT	SEGMENT
$T539613 = -16						; size = 4
__$EHRec$ = -12						; size = 12
__Ptr$ = 8						; size = 4
__Val$ = 12						; size = 4
?construct@?$allocator@VioHashString@@@std@@QAEXPAVioHashString@@$$QAV3@@Z PROC ; std::allocator<ioHashString>::construct, COMDAT
; _this$ = ecx

; 201  : 		{	// construct object at _Ptr with value _Val

  00000	6a 04		 push	 4
  00002	b8 00 00 00 00	 mov	 eax, __ehhandler$?construct@?$allocator@VioHashString@@@std@@QAEXPAVioHashString@@$$QAV3@@Z
  00007	e8 00 00 00 00	 call	 __EH_prolog3

; 202  : 		::new ((void _FARQ *)_Ptr) _Ty(_STD forward<_Ty>(_Val));

  0000c	8b 4d 08	 mov	 ecx, DWORD PTR __Ptr$[ebp]
  0000f	89 4d f0	 mov	 DWORD PTR $T539613[ebp], ecx
  00012	83 65 fc 00	 and	 DWORD PTR __$EHRec$[ebp+8], 0
  00016	85 c9		 test	 ecx, ecx
  00018	74 09		 je	 SHORT $LN3@construct@2
  0001a	ff 75 0c	 push	 DWORD PTR __Val$[ebp]
  0001d	ff 15 00 00 00
	00		 call	 DWORD PTR __imp_??0ioHashString@@QAE@ABV0@@Z
$LN3@construct@2:

; 203  : 		}

  00023	e8 00 00 00 00	 call	 __EH_epilog3
  00028	c2 08 00	 ret	 8
_TEXT	ENDS
;	COMDAT text$x
text$x	SEGMENT
__unwindfunclet$?construct@?$allocator@VioHashString@@@std@@QAEXPAVioHashString@@$$QAV3@@Z$0:
  00000	ff 75 08	 push	 DWORD PTR __Ptr$[ebp]
  00003	ff 75 f0	 push	 DWORD PTR $T539613[ebp]
  00006	e8 00 00 00 00	 call	 ??3@YAXPAX0@Z		; operator delete
  0000b	59		 pop	 ecx
  0000c	59		 pop	 ecx
  0000d	c3		 ret	 0
__ehhandler$?construct@?$allocator@VioHashString@@@std@@QAEXPAVioHashString@@$$QAV3@@Z:
  0000e	8b 54 24 08	 mov	 edx, DWORD PTR [esp+8]
  00012	8d 42 0c	 lea	 eax, DWORD PTR [edx+12]
  00015	8b 4a ec	 mov	 ecx, DWORD PTR [edx-20]
  00018	33 c8		 xor	 ecx, eax
  0001a	e8 00 00 00 00	 call	 @__security_check_cookie@4
  0001f	b8 00 00 00 00	 mov	 eax, OFFSET __ehfuncinfo$?construct@?$allocator@VioHashString@@@std@@QAEXPAVioHashString@@$$QAV3@@Z
  00024	e9 00 00 00 00	 jmp	 ___CxxFrameHandler3
text$x	ENDS
?construct@?$allocator@VioHashString@@@std@@QAEXPAVioHashString@@$$QAV3@@Z ENDP ; std::allocator<ioHashString>::construct
PUBLIC	??0?$CEncrypt@M@@QAE@XZ				; CEncrypt<float>::CEncrypt<float>
EXTRN	??0ccddaabb@@QAE@XZ:PROC			; ccddaabb::ccddaabb
;	COMDAT xdata$x
; File d:\lost saga for developer\youtube\tutorial\source\src\lsclient\encryptvalue.h
xdata$x	SEGMENT
__unwindtable$??0?$CEncrypt@M@@QAE@XZ DD 0ffffffffH
	DD	FLAT:__unwindfunclet$??0?$CEncrypt@M@@QAE@XZ$0
__ehfuncinfo$??0?$CEncrypt@M@@QAE@XZ DD 019930522H
	DD	01H
	DD	FLAT:__unwindtable$??0?$CEncrypt@M@@QAE@XZ
	DD	2 DUP(00H)
	DD	2 DUP(00H)
	DD	00H
	DD	01H
; Function compile flags: /Ogsp
xdata$x	ENDS
;	COMDAT ??0?$CEncrypt@M@@QAE@XZ
_TEXT	SEGMENT
_this$ = -16						; size = 4
__$EHRec$ = -12						; size = 12
??0?$CEncrypt@M@@QAE@XZ PROC				; CEncrypt<float>::CEncrypt<float>, COMDAT
; _this$ = ecx

; 109  : 	CEncrypt()

  00000	6a 04		 push	 4
  00002	b8 00 00 00 00	 mov	 eax, __ehhandler$??0?$CEncrypt@M@@QAE@XZ
  00007	e8 00 00 00 00	 call	 __EH_prolog3
  0000c	8b f1		 mov	 esi, ecx
  0000e	89 75 f0	 mov	 DWORD PTR _this$[ebp], esi
  00011	8d 4e 0c	 lea	 ecx, DWORD PTR [esi+12]
  00014	c7 06 00 00 00
	00		 mov	 DWORD PTR [esi], OFFSET ??_7?$CEncrypt@M@@6B@
  0001a	e8 00 00 00 00	 call	 ??0ccddaabb@@QAE@XZ	; ccddaabb::ccddaabb
  0001f	83 65 fc 00	 and	 DWORD PTR __$EHRec$[ebp+8], 0

; 110  : 	{
; 111  : 		Init();

  00023	8b ce		 mov	 ecx, esi
  00025	e8 00 00 00 00	 call	 ?Init@?$CEncrypt@M@@AAEXXZ ; CEncrypt<float>::Init

; 112  : 	}

  0002a	8b c6		 mov	 eax, esi
  0002c	e8 00 00 00 00	 call	 __EH_epilog3
  00031	c3		 ret	 0
_TEXT	ENDS
;	COMDAT text$x
text$x	SEGMENT
__unwindfunclet$??0?$CEncrypt@M@@QAE@XZ$0:
  00000	8b 4d f0	 mov	 ecx, DWORD PTR _this$[ebp]
  00003	83 c1 0c	 add	 ecx, 12			; 0000000cH
  00006	e9 00 00 00 00	 jmp	 ??1ccddaabb@@UAE@XZ	; ccddaabb::~ccddaabb
__ehhandler$??0?$CEncrypt@M@@QAE@XZ:
  0000b	8b 54 24 08	 mov	 edx, DWORD PTR [esp+8]
  0000f	8d 42 0c	 lea	 eax, DWORD PTR [edx+12]
  00012	8b 4a ec	 mov	 ecx, DWORD PTR [edx-20]
  00015	33 c8		 xor	 ecx, eax
  00017	e8 00 00 00 00	 call	 @__security_check_cookie@4
  0001c	b8 00 00 00 00	 mov	 eax, OFFSET __ehfuncinfo$??0?$CEncrypt@M@@QAE@XZ
  00021	e9 00 00 00 00	 jmp	 ___CxxFrameHandler3
text$x	ENDS
??0?$CEncrypt@M@@QAE@XZ ENDP				; CEncrypt<float>::CEncrypt<float>
PUBLIC	??B?$CEncrypt@M@@QAEMXZ				; CEncrypt<float>::operator float
; Function compile flags: /Ogsp
;	COMDAT ??B?$CEncrypt@M@@QAEMXZ
_TEXT	SEGMENT
_value$ = -4						; size = 4
??B?$CEncrypt@M@@QAEMXZ PROC				; CEncrypt<float>::operator float, COMDAT
; _this$ = ecx

; 134  : 	{

  00000	55		 push	 ebp
  00001	8b ec		 mov	 ebp, esp
  00003	51		 push	 ecx

; 135  : 		type value;
; 136  : 		DecryptValueToPool(&value);

  00004	8d 45 fc	 lea	 eax, DWORD PTR _value$[ebp]
  00007	50		 push	 eax
  00008	e8 00 00 00 00	 call	 ?DecryptValueToPool@?$CEncrypt@M@@QAEXPAM@Z ; CEncrypt<float>::DecryptValueToPool

; 137  : 
; 138  : #ifdef _NOTUSE
; 139  : 		Debug();
; 140  : #endif
; 141  : 		return value;

  0000d	d9 45 fc	 fld	 DWORD PTR _value$[ebp]

; 142  : 	}

  00010	c9		 leave
  00011	c3		 ret	 0
??B?$CEncrypt@M@@QAEMXZ ENDP				; CEncrypt<float>::operator float
_TEXT	ENDS
PUBLIC	??B?$CEncrypt@M@@QBEMXZ				; CEncrypt<float>::operator float
; Function compile flags: /Ogsp
;	COMDAT ??B?$CEncrypt@M@@QBEMXZ
_TEXT	SEGMENT
_value$ = -4						; size = 4
??B?$CEncrypt@M@@QBEMXZ PROC				; CEncrypt<float>::operator float, COMDAT
; _this$ = ecx

; 145  : 	{

  00000	55		 push	 ebp
  00001	8b ec		 mov	 ebp, esp
  00003	51		 push	 ecx

; 146  : 		//UJ 130829, const    --start
; 147  : 		type value;
; 148  : 		CEncrypt<type>* pThis = const_cast<CEncrypt<type>*>(this);
; 149  : 		pThis->DecryptValueToPool(&value);

  00004	8d 45 fc	 lea	 eax, DWORD PTR _value$[ebp]
  00007	50		 push	 eax
  00008	e8 00 00 00 00	 call	 ?DecryptValueToPool@?$CEncrypt@M@@QAEXPAM@Z ; CEncrypt<float>::DecryptValueToPool

; 150  : 		//// const DecryptValueToPool     .
; 151  :  		//type value;
; 152  : 		//char szTempMem[MAX_ENCRYPT];
; 153  : 		//m_RC5.DecryptByte( m_MemPool, szTempMem, max(m_ValueSize, DEFAULT_ENCRYPT) );
; 154  : 		//memcpy( &value, szTempMem, m_ValueSize );
; 155  : 		//UJ --end
; 156  : 
; 157  : #ifdef _NOTUSE
; 158  : 		Debug();
; 159  : #endif
; 160  : 		return value;

  0000d	d9 45 fc	 fld	 DWORD PTR _value$[ebp]

; 161  : 	}

  00010	c9		 leave
  00011	c3		 ret	 0
??B?$CEncrypt@M@@QBEMXZ ENDP				; CEncrypt<float>::operator float
_TEXT	ENDS
PUBLIC	??4?$CEncrypt@M@@QAEMM@Z			; CEncrypt<float>::operator=
; Function compile flags: /Ogsp
;	COMDAT ??4?$CEncrypt@M@@QAEMM@Z
_TEXT	SEGMENT
_value$ = 8						; size = 4
_inValue$ = 8						; size = 4
??4?$CEncrypt@M@@QAEMM@Z PROC				; CEncrypt<float>::operator=, COMDAT
; _this$ = ecx

; 1654 : 	{	

  00000	55		 push	 ebp
  00001	8b ec		 mov	 ebp, esp

; 1655 : 		type value = inValue;

  00003	d9 45 08	 fld	 DWORD PTR _inValue$[ebp]

; 1656 : 		EncryptValueToPool((char*)&value);

  00006	8d 45 08	 lea	 eax, DWORD PTR _value$[ebp]
  00009	50		 push	 eax
  0000a	d9 5d 08	 fstp	 DWORD PTR _value$[ebp]
  0000d	e8 00 00 00 00	 call	 ?EncryptValueToPool@?$CEncrypt@M@@AAEXPBD@Z ; CEncrypt<float>::EncryptValueToPool

; 1657 : #ifdef _NOTUSE
; 1658 : 		m_value = inValue;
; 1659 : 		Debug();
; 1660 : #endif
; 1661 : 		return value;

  00012	d9 45 08	 fld	 DWORD PTR _value$[ebp]

; 1662 : 	}

  00015	5d		 pop	 ebp
  00016	c2 04 00	 ret	 4
??4?$CEncrypt@M@@QAEMM@Z ENDP				; CEncrypt<float>::operator=
_TEXT	ENDS
PUBLIC	??O?$CEncrypt@M@@QAE_NABM@Z			; CEncrypt<float>::operator>
; Function compile flags: /Ogsp
;	COMDAT ??O?$CEncrypt@M@@QAE_NABM@Z
_TEXT	SEGMENT
_value$ = -4						; size = 4
_inValue$ = 8						; size = 4
??O?$CEncrypt@M@@QAE_NABM@Z PROC			; CEncrypt<float>::operator>, COMDAT
; _this$ = ecx

; 1811 : 	{

  00000	55		 push	 ebp
  00001	8b ec		 mov	 ebp, esp
  00003	51		 push	 ecx

; 1812 : 		type value;
; 1813 : 		DecryptValueToPool(&value);

  00004	8d 45 fc	 lea	 eax, DWORD PTR _value$[ebp]
  00007	50		 push	 eax
  00008	e8 00 00 00 00	 call	 ?DecryptValueToPool@?$CEncrypt@M@@QAEXPAM@Z ; CEncrypt<float>::DecryptValueToPool

; 1814 : #ifdef _NOTUSE
; 1815 : 		Debug();
; 1816 : #endif
; 1817 : 		return (value > inValue);

  0000d	8b 45 08	 mov	 eax, DWORD PTR _inValue$[ebp]
  00010	f3 0f 10 08	 movss	 xmm1, DWORD PTR [eax]
  00014	f3 0f 10 45 fc	 movss	 xmm0, DWORD PTR _value$[ebp]
  00019	0f 5a c0	 cvtps2pd xmm0, xmm0
  0001c	0f 5a c9	 cvtps2pd xmm1, xmm1
  0001f	33 c0		 xor	 eax, eax
  00021	66 0f 2f c1	 comisd	 xmm0, xmm1
  00025	76 01		 jbe	 SHORT $LN4@operator@3
  00027	40		 inc	 eax
$LN4@operator@3:

; 1818 : 	}		

  00028	c9		 leave
  00029	c2 04 00	 ret	 4
??O?$CEncrypt@M@@QAE_NABM@Z ENDP			; CEncrypt<float>::operator>
_TEXT	ENDS
PUBLIC	??0?$CEncrypt@K@@QAE@XZ				; CEncrypt<unsigned long>::CEncrypt<unsigned long>
;	COMDAT xdata$x
xdata$x	SEGMENT
__unwindtable$??0?$CEncrypt@K@@QAE@XZ DD 0ffffffffH
	DD	FLAT:__unwindfunclet$??0?$CEncrypt@K@@QAE@XZ$0
__ehfuncinfo$??0?$CEncrypt@K@@QAE@XZ DD 019930522H
	DD	01H
	DD	FLAT:__unwindtable$??0?$CEncrypt@K@@QAE@XZ
	DD	2 DUP(00H)
	DD	2 DUP(00H)
	DD	00H
	DD	01H
; Function compile flags: /Ogsp
xdata$x	ENDS
;	COMDAT ??0?$CEncrypt@K@@QAE@XZ
_TEXT	SEGMENT
_this$ = -16						; size = 4
__$EHRec$ = -12						; size = 12
??0?$CEncrypt@K@@QAE@XZ PROC				; CEncrypt<unsigned long>::CEncrypt<unsigned long>, COMDAT
; _this$ = ecx

; 109  : 	CEncrypt()

  00000	6a 04		 push	 4
  00002	b8 00 00 00 00	 mov	 eax, __ehhandler$??0?$CEncrypt@K@@QAE@XZ
  00007	e8 00 00 00 00	 call	 __EH_prolog3
  0000c	8b f1		 mov	 esi, ecx
  0000e	89 75 f0	 mov	 DWORD PTR _this$[ebp], esi
  00011	8d 4e 0c	 lea	 ecx, DWORD PTR [esi+12]
  00014	c7 06 00 00 00
	00		 mov	 DWORD PTR [esi], OFFSET ??_7?$CEncrypt@K@@6B@
  0001a	e8 00 00 00 00	 call	 ??0ccddaabb@@QAE@XZ	; ccddaabb::ccddaabb
  0001f	83 65 fc 00	 and	 DWORD PTR __$EHRec$[ebp+8], 0

; 110  : 	{
; 111  : 		Init();

  00023	8b ce		 mov	 ecx, esi
  00025	e8 00 00 00 00	 call	 ?Init@?$CEncrypt@K@@AAEXXZ ; CEncrypt<unsigned long>::Init

; 112  : 	}

  0002a	8b c6		 mov	 eax, esi
  0002c	e8 00 00 00 00	 call	 __EH_epilog3
  00031	c3		 ret	 0
_TEXT	ENDS
;	COMDAT text$x
text$x	SEGMENT
__unwindfunclet$??0?$CEncrypt@K@@QAE@XZ$0:
  00000	8b 4d f0	 mov	 ecx, DWORD PTR _this$[ebp]
  00003	83 c1 0c	 add	 ecx, 12			; 0000000cH
  00006	e9 00 00 00 00	 jmp	 ??1ccddaabb@@UAE@XZ	; ccddaabb::~ccddaabb
__ehhandler$??0?$CEncrypt@K@@QAE@XZ:
  0000b	8b 54 24 08	 mov	 edx, DWORD PTR [esp+8]
  0000f	8d 42 0c	 lea	 eax, DWORD PTR [edx+12]
  00012	8b 4a ec	 mov	 ecx, DWORD PTR [edx-20]
  00015	33 c8		 xor	 ecx, eax
  00017	e8 00 00 00 00	 call	 @__security_check_cookie@4
  0001c	b8 00 00 00 00	 mov	 eax, OFFSET __ehfuncinfo$??0?$CEncrypt@K@@QAE@XZ
  00021	e9 00 00 00 00	 jmp	 ___CxxFrameHandler3
text$x	ENDS
??0?$CEncrypt@K@@QAE@XZ ENDP				; CEncrypt<unsigned long>::CEncrypt<unsigned long>
PUBLIC	??B?$CEncrypt@K@@QAEKXZ				; CEncrypt<unsigned long>::operator unsigned long
; Function compile flags: /Ogsp
;	COMDAT ??B?$CEncrypt@K@@QAEKXZ
_TEXT	SEGMENT
_value$ = -4						; size = 4
??B?$CEncrypt@K@@QAEKXZ PROC				; CEncrypt<unsigned long>::operator unsigned long, COMDAT
; _this$ = ecx

; 134  : 	{

  00000	55		 push	 ebp
  00001	8b ec		 mov	 ebp, esp
  00003	51		 push	 ecx

; 135  : 		type value;
; 136  : 		DecryptValueToPool(&value);

  00004	8d 45 fc	 lea	 eax, DWORD PTR _value$[ebp]
  00007	50		 push	 eax
  00008	e8 00 00 00 00	 call	 ?DecryptValueToPool@?$CEncrypt@K@@QAEXPAK@Z ; CEncrypt<unsigned long>::DecryptValueToPool

; 137  : 
; 138  : #ifdef _NOTUSE
; 139  : 		Debug();
; 140  : #endif
; 141  : 		return value;

  0000d	8b 45 fc	 mov	 eax, DWORD PTR _value$[ebp]

; 142  : 	}

  00010	c9		 leave
  00011	c3		 ret	 0
??B?$CEncrypt@K@@QAEKXZ ENDP				; CEncrypt<unsigned long>::operator unsigned long
_TEXT	ENDS
PUBLIC	??B?$CEncrypt@K@@QBEKXZ				; CEncrypt<unsigned long>::operator unsigned long
; Function compile flags: /Ogsp
;	COMDAT ??B?$CEncrypt@K@@QBEKXZ
_TEXT	SEGMENT
_value$ = -4						; size = 4
??B?$CEncrypt@K@@QBEKXZ PROC				; CEncrypt<unsigned long>::operator unsigned long, COMDAT
; _this$ = ecx

; 145  : 	{

  00000	55		 push	 ebp
  00001	8b ec		 mov	 ebp, esp
  00003	51		 push	 ecx

; 146  : 		//UJ 130829, const    --start
; 147  : 		type value;
; 148  : 		CEncrypt<type>* pThis = const_cast<CEncrypt<type>*>(this);
; 149  : 		pThis->DecryptValueToPool(&value);

  00004	8d 45 fc	 lea	 eax, DWORD PTR _value$[ebp]
  00007	50		 push	 eax
  00008	e8 00 00 00 00	 call	 ?DecryptValueToPool@?$CEncrypt@K@@QAEXPAK@Z ; CEncrypt<unsigned long>::DecryptValueToPool

; 150  : 		//// const DecryptValueToPool     .
; 151  :  		//type value;
; 152  : 		//char szTempMem[MAX_ENCRYPT];
; 153  : 		//m_RC5.DecryptByte( m_MemPool, szTempMem, max(m_ValueSize, DEFAULT_ENCRYPT) );
; 154  : 		//memcpy( &value, szTempMem, m_ValueSize );
; 155  : 		//UJ --end
; 156  : 
; 157  : #ifdef _NOTUSE
; 158  : 		Debug();
; 159  : #endif
; 160  : 		return value;

  0000d	8b 45 fc	 mov	 eax, DWORD PTR _value$[ebp]

; 161  : 	}

  00010	c9		 leave
  00011	c3		 ret	 0
??B?$CEncrypt@K@@QBEKXZ ENDP				; CEncrypt<unsigned long>::operator unsigned long
_TEXT	ENDS
PUBLIC	??4?$CEncrypt@K@@QAEKH@Z			; CEncrypt<unsigned long>::operator=
; Function compile flags: /Ogsp
;	COMDAT ??4?$CEncrypt@K@@QAEKH@Z
_TEXT	SEGMENT
_value$ = 8						; size = 4
_inValue$ = 8						; size = 4
??4?$CEncrypt@K@@QAEKH@Z PROC				; CEncrypt<unsigned long>::operator=, COMDAT
; _this$ = ecx

; 843  : 	{

  00000	55		 push	 ebp
  00001	8b ec		 mov	 ebp, esp

; 844  : 		type value = inValue;

  00003	8b 45 08	 mov	 eax, DWORD PTR _inValue$[ebp]
  00006	89 45 08	 mov	 DWORD PTR _value$[ebp], eax

; 845  : 		EncryptValueToPool((char*)&value);

  00009	8d 45 08	 lea	 eax, DWORD PTR _value$[ebp]
  0000c	50		 push	 eax
  0000d	e8 00 00 00 00	 call	 ?EncryptValueToPool@?$CEncrypt@K@@AAEXPBD@Z ; CEncrypt<unsigned long>::EncryptValueToPool

; 846  : #ifdef _NOTUSE
; 847  : 		m_value = inValue;
; 848  : 		Debug();
; 849  : #endif
; 850  : 		return value;

  00012	8b 45 08	 mov	 eax, DWORD PTR _value$[ebp]

; 851  : 	}

  00015	5d		 pop	 ebp
  00016	c2 04 00	 ret	 4
??4?$CEncrypt@K@@QAEKH@Z ENDP				; CEncrypt<unsigned long>::operator=
_TEXT	ENDS
PUBLIC	??4?$CEncrypt@K@@QAEKK@Z			; CEncrypt<unsigned long>::operator=
; Function compile flags: /Ogsp
;	COMDAT ??4?$CEncrypt@K@@QAEKK@Z
_TEXT	SEGMENT
_value$ = 8						; size = 4
_inValue$ = 8						; size = 4
??4?$CEncrypt@K@@QAEKK@Z PROC				; CEncrypt<unsigned long>::operator=, COMDAT
; _this$ = ecx

; 1262 : 	{

  00000	55		 push	 ebp
  00001	8b ec		 mov	 ebp, esp

; 1263 : 		
; 1264 : 		type value = inValue;

  00003	8b 45 08	 mov	 eax, DWORD PTR _inValue$[ebp]
  00006	89 45 08	 mov	 DWORD PTR _value$[ebp], eax

; 1265 : 		EncryptValueToPool((char*)&value);

  00009	8d 45 08	 lea	 eax, DWORD PTR _value$[ebp]
  0000c	50		 push	 eax
  0000d	e8 00 00 00 00	 call	 ?EncryptValueToPool@?$CEncrypt@K@@AAEXPBD@Z ; CEncrypt<unsigned long>::EncryptValueToPool

; 1266 : #ifdef _NOTUSE
; 1267 : 		m_value = inValue;
; 1268 : 		Debug();
; 1269 : #endif
; 1270 : 		return value;

  00012	8b 45 08	 mov	 eax, DWORD PTR _value$[ebp]

; 1271 : 	}

  00015	5d		 pop	 ebp
  00016	c2 04 00	 ret	 4
??4?$CEncrypt@K@@QAEKK@Z ENDP				; CEncrypt<unsigned long>::operator=
_TEXT	ENDS
PUBLIC	??0?$CEncrypt@_N@@QAE@XZ			; CEncrypt<bool>::CEncrypt<bool>
;	COMDAT xdata$x
xdata$x	SEGMENT
__unwindtable$??0?$CEncrypt@_N@@QAE@XZ DD 0ffffffffH
	DD	FLAT:__unwindfunclet$??0?$CEncrypt@_N@@QAE@XZ$0
__ehfuncinfo$??0?$CEncrypt@_N@@QAE@XZ DD 019930522H
	DD	01H
	DD	FLAT:__unwindtable$??0?$CEncrypt@_N@@QAE@XZ
	DD	2 DUP(00H)
	DD	2 DUP(00H)
	DD	00H
	DD	01H
; Function compile flags: /Ogsp
xdata$x	ENDS
;	COMDAT ??0?$CEncrypt@_N@@QAE@XZ
_TEXT	SEGMENT
_this$ = -16						; size = 4
__$EHRec$ = -12						; size = 12
??0?$CEncrypt@_N@@QAE@XZ PROC				; CEncrypt<bool>::CEncrypt<bool>, COMDAT
; _this$ = ecx

; 109  : 	CEncrypt()

  00000	6a 04		 push	 4
  00002	b8 00 00 00 00	 mov	 eax, __ehhandler$??0?$CEncrypt@_N@@QAE@XZ
  00007	e8 00 00 00 00	 call	 __EH_prolog3
  0000c	8b f1		 mov	 esi, ecx
  0000e	89 75 f0	 mov	 DWORD PTR _this$[ebp], esi
  00011	8d 4e 0c	 lea	 ecx, DWORD PTR [esi+12]
  00014	c7 06 00 00 00
	00		 mov	 DWORD PTR [esi], OFFSET ??_7?$CEncrypt@_N@@6B@
  0001a	e8 00 00 00 00	 call	 ??0ccddaabb@@QAE@XZ	; ccddaabb::ccddaabb
  0001f	83 65 fc 00	 and	 DWORD PTR __$EHRec$[ebp+8], 0

; 110  : 	{
; 111  : 		Init();

  00023	8b ce		 mov	 ecx, esi
  00025	e8 00 00 00 00	 call	 ?Init@?$CEncrypt@_N@@AAEXXZ ; CEncrypt<bool>::Init

; 112  : 	}

  0002a	8b c6		 mov	 eax, esi
  0002c	e8 00 00 00 00	 call	 __EH_epilog3
  00031	c3		 ret	 0
_TEXT	ENDS
;	COMDAT text$x
text$x	SEGMENT
__unwindfunclet$??0?$CEncrypt@_N@@QAE@XZ$0:
  00000	8b 4d f0	 mov	 ecx, DWORD PTR _this$[ebp]
  00003	83 c1 0c	 add	 ecx, 12			; 0000000cH
  00006	e9 00 00 00 00	 jmp	 ??1ccddaabb@@UAE@XZ	; ccddaabb::~ccddaabb
__ehhandler$??0?$CEncrypt@_N@@QAE@XZ:
  0000b	8b 54 24 08	 mov	 edx, DWORD PTR [esp+8]
  0000f	8d 42 0c	 lea	 eax, DWORD PTR [edx+12]
  00012	8b 4a ec	 mov	 ecx, DWORD PTR [edx-20]
  00015	33 c8		 xor	 ecx, eax
  00017	e8 00 00 00 00	 call	 @__security_check_cookie@4
  0001c	b8 00 00 00 00	 mov	 eax, OFFSET __ehfuncinfo$??0?$CEncrypt@_N@@QAE@XZ
  00021	e9 00 00 00 00	 jmp	 ___CxxFrameHandler3
text$x	ENDS
??0?$CEncrypt@_N@@QAE@XZ ENDP				; CEncrypt<bool>::CEncrypt<bool>
PUBLIC	??B?$CEncrypt@_N@@QAE_NXZ			; CEncrypt<bool>::operator bool
; Function compile flags: /Ogsp
;	COMDAT ??B?$CEncrypt@_N@@QAE_NXZ
_TEXT	SEGMENT
_value$ = -1						; size = 1
??B?$CEncrypt@_N@@QAE_NXZ PROC				; CEncrypt<bool>::operator bool, COMDAT
; _this$ = ecx

; 134  : 	{

  00000	55		 push	 ebp
  00001	8b ec		 mov	 ebp, esp
  00003	51		 push	 ecx

; 135  : 		type value;
; 136  : 		DecryptValueToPool(&value);

  00004	8d 45 ff	 lea	 eax, DWORD PTR _value$[ebp]
  00007	50		 push	 eax
  00008	e8 00 00 00 00	 call	 ?DecryptValueToPool@?$CEncrypt@_N@@QAEXPA_N@Z ; CEncrypt<bool>::DecryptValueToPool

; 137  : 
; 138  : #ifdef _NOTUSE
; 139  : 		Debug();
; 140  : #endif
; 141  : 		return value;

  0000d	8a 45 ff	 mov	 al, BYTE PTR _value$[ebp]

; 142  : 	}

  00010	c9		 leave
  00011	c3		 ret	 0
??B?$CEncrypt@_N@@QAE_NXZ ENDP				; CEncrypt<bool>::operator bool
_TEXT	ENDS
PUBLIC	??B?$CEncrypt@_N@@QBE_NXZ			; CEncrypt<bool>::operator bool
; Function compile flags: /Ogsp
;	COMDAT ??B?$CEncrypt@_N@@QBE_NXZ
_TEXT	SEGMENT
_value$ = -1						; size = 1
??B?$CEncrypt@_N@@QBE_NXZ PROC				; CEncrypt<bool>::operator bool, COMDAT
; _this$ = ecx

; 145  : 	{

  00000	55		 push	 ebp
  00001	8b ec		 mov	 ebp, esp
  00003	51		 push	 ecx

; 146  : 		//UJ 130829, const    --start
; 147  : 		type value;
; 148  : 		CEncrypt<type>* pThis = const_cast<CEncrypt<type>*>(this);
; 149  : 		pThis->DecryptValueToPool(&value);

  00004	8d 45 ff	 lea	 eax, DWORD PTR _value$[ebp]
  00007	50		 push	 eax
  00008	e8 00 00 00 00	 call	 ?DecryptValueToPool@?$CEncrypt@_N@@QAEXPA_N@Z ; CEncrypt<bool>::DecryptValueToPool

; 150  : 		//// const DecryptValueToPool     .
; 151  :  		//type value;
; 152  : 		//char szTempMem[MAX_ENCRYPT];
; 153  : 		//m_RC5.DecryptByte( m_MemPool, szTempMem, max(m_ValueSize, DEFAULT_ENCRYPT) );
; 154  : 		//memcpy( &value, szTempMem, m_ValueSize );
; 155  : 		//UJ --end
; 156  : 
; 157  : #ifdef _NOTUSE
; 158  : 		Debug();
; 159  : #endif
; 160  : 		return value;

  0000d	8a 45 ff	 mov	 al, BYTE PTR _value$[ebp]

; 161  : 	}

  00010	c9		 leave
  00011	c3		 ret	 0
??B?$CEncrypt@_N@@QBE_NXZ ENDP				; CEncrypt<bool>::operator bool
_TEXT	ENDS
PUBLIC	??4?$CEncrypt@_N@@QAE_N_N@Z			; CEncrypt<bool>::operator=
; Function compile flags: /Ogsp
;	COMDAT ??4?$CEncrypt@_N@@QAE_N_N@Z
_TEXT	SEGMENT
_inValue$ = 8						; size = 1
_value$ = 11						; size = 1
??4?$CEncrypt@_N@@QAE_N_N@Z PROC			; CEncrypt<bool>::operator=, COMDAT
; _this$ = ecx

; 225  : 	{

  00000	55		 push	 ebp
  00001	8b ec		 mov	 ebp, esp

; 226  : 		type value = inValue;

  00003	8a 45 08	 mov	 al, BYTE PTR _inValue$[ebp]
  00006	88 45 0b	 mov	 BYTE PTR _value$[ebp], al

; 227  : 		EncryptValueToPool((char*)&value);

  00009	8d 45 0b	 lea	 eax, DWORD PTR _value$[ebp]
  0000c	50		 push	 eax
  0000d	e8 00 00 00 00	 call	 ?EncryptValueToPool@?$CEncrypt@_N@@AAEXPBD@Z ; CEncrypt<bool>::EncryptValueToPool

; 228  : #ifdef _NOTUSE
; 229  : 		m_value = inValue;
; 230  : 		Debug();
; 231  : #endif
; 232  : 		return value;

  00012	8a 45 0b	 mov	 al, BYTE PTR _value$[ebp]

; 233  : 	}

  00015	5d		 pop	 ebp
  00016	c2 04 00	 ret	 4
??4?$CEncrypt@_N@@QAE_N_N@Z ENDP			; CEncrypt<bool>::operator=
_TEXT	ENDS
PUBLIC	??B?$CEncrypt@W4TeamType@@@@QBE?AW4TeamType@@XZ	; CEncrypt<enum TeamType>::operator enum TeamType
; Function compile flags: /Ogsp
;	COMDAT ??B?$CEncrypt@W4TeamType@@@@QBE?AW4TeamType@@XZ
_TEXT	SEGMENT
_value$ = -4						; size = 4
??B?$CEncrypt@W4TeamType@@@@QBE?AW4TeamType@@XZ PROC	; CEncrypt<enum TeamType>::operator enum TeamType, COMDAT
; _this$ = ecx

; 145  : 	{

  00000	55		 push	 ebp
  00001	8b ec		 mov	 ebp, esp
  00003	51		 push	 ecx

; 146  : 		//UJ 130829, const    --start
; 147  : 		type value;
; 148  : 		CEncrypt<type>* pThis = const_cast<CEncrypt<type>*>(this);
; 149  : 		pThis->DecryptValueToPool(&value);

  00004	8d 45 fc	 lea	 eax, DWORD PTR _value$[ebp]
  00007	50		 push	 eax
  00008	e8 00 00 00 00	 call	 ?DecryptValueToPool@?$CEncrypt@W4TeamType@@@@QAEXPAW4TeamType@@@Z ; CEncrypt<enum TeamType>::DecryptValueToPool

; 150  : 		//// const DecryptValueToPool     .
; 151  :  		//type value;
; 152  : 		//char szTempMem[MAX_ENCRYPT];
; 153  : 		//m_RC5.DecryptByte( m_MemPool, szTempMem, max(m_ValueSize, DEFAULT_ENCRYPT) );
; 154  : 		//memcpy( &value, szTempMem, m_ValueSize );
; 155  : 		//UJ --end
; 156  : 
; 157  : #ifdef _NOTUSE
; 158  : 		Debug();
; 159  : #endif
; 160  : 		return value;

  0000d	8b 45 fc	 mov	 eax, DWORD PTR _value$[ebp]

; 161  : 	}

  00010	c9		 leave
  00011	c3		 ret	 0
??B?$CEncrypt@W4TeamType@@@@QBE?AW4TeamType@@XZ ENDP	; CEncrypt<enum TeamType>::operator enum TeamType
_TEXT	ENDS
PUBLIC	?begin@?$vector@VioHashString@@V?$allocator@VioHashString@@@std@@@std@@QAE?AV?$_Vector_iterator@V?$_Vector_val@VioHashString@@V?$allocator@VioHashString@@@std@@@std@@@2@XZ ; std::vector<ioHashString,std::allocator<ioHashString> >::begin
; Function compile flags: /Ogsp
; File c:\program files (x86)\microsoft visual studio 10.0\vc\include\vector
;	COMDAT ?begin@?$vector@VioHashString@@V?$allocator@VioHashString@@@std@@@std@@QAE?AV?$_Vector_iterator@V?$_Vector_val@VioHashString@@V?$allocator@VioHashString@@@std@@@std@@@2@XZ
_TEXT	SEGMENT
___$ReturnUdt$ = 8					; size = 4
?begin@?$vector@VioHashString@@V?$allocator@VioHashString@@@std@@@std@@QAE?AV?$_Vector_iterator@V?$_Vector_val@VioHashString@@V?$allocator@VioHashString@@@std@@@std@@@2@XZ PROC ; std::vector<ioHashString,std::allocator<ioHashString> >::begin, COMDAT
; _this$ = ecx

; 781  : 		{	// return iterator for beginning of mutable sequence

  00000	55		 push	 ebp
  00001	8b ec		 mov	 ebp, esp

; 782  : 		return (iterator(this->_Myfirst, this));

  00003	8b 09		 mov	 ecx, DWORD PTR [ecx]
  00005	8b 45 08	 mov	 eax, DWORD PTR ___$ReturnUdt$[ebp]
  00008	89 08		 mov	 DWORD PTR [eax], ecx

; 783  : 		}

  0000a	5d		 pop	 ebp
  0000b	c2 04 00	 ret	 4
?begin@?$vector@VioHashString@@V?$allocator@VioHashString@@@std@@@std@@QAE?AV?$_Vector_iterator@V?$_Vector_val@VioHashString@@V?$allocator@VioHashString@@@std@@@std@@@2@XZ ENDP ; std::vector<ioHashString,std::allocator<ioHashString> >::begin
_TEXT	ENDS
PUBLIC	?begin@?$vector@VioHashString@@V?$allocator@VioHashString@@@std@@@std@@QBE?AV?$_Vector_const_iterator@V?$_Vector_val@VioHashString@@V?$allocator@VioHashString@@@std@@@std@@@2@XZ ; std::vector<ioHashString,std::allocator<ioHashString> >::begin
; Function compile flags: /Ogsp
;	COMDAT ?begin@?$vector@VioHashString@@V?$allocator@VioHashString@@@std@@@std@@QBE?AV?$_Vector_const_iterator@V?$_Vector_val@VioHashString@@V?$allocator@VioHashString@@@std@@@std@@@2@XZ
_TEXT	SEGMENT
___$ReturnUdt$ = 8					; size = 4
?begin@?$vector@VioHashString@@V?$allocator@VioHashString@@@std@@@std@@QBE?AV?$_Vector_const_iterator@V?$_Vector_val@VioHashString@@V?$allocator@VioHashString@@@std@@@std@@@2@XZ PROC ; std::vector<ioHashString,std::allocator<ioHashString> >::begin, COMDAT
; _this$ = ecx

; 786  : 		{	// return iterator for beginning of nonmutable sequence

  00000	55		 push	 ebp
  00001	8b ec		 mov	 ebp, esp

; 787  : 		return (const_iterator(this->_Myfirst, this));

  00003	8b 09		 mov	 ecx, DWORD PTR [ecx]
  00005	8b 45 08	 mov	 eax, DWORD PTR ___$ReturnUdt$[ebp]
  00008	89 08		 mov	 DWORD PTR [eax], ecx

; 788  : 		}

  0000a	5d		 pop	 ebp
  0000b	c2 04 00	 ret	 4
?begin@?$vector@VioHashString@@V?$allocator@VioHashString@@@std@@@std@@QBE?AV?$_Vector_const_iterator@V?$_Vector_val@VioHashString@@V?$allocator@VioHashString@@@std@@@std@@@2@XZ ENDP ; std::vector<ioHashString,std::allocator<ioHashString> >::begin
_TEXT	ENDS
PUBLIC	?end@?$vector@VioHashString@@V?$allocator@VioHashString@@@std@@@std@@QAE?AV?$_Vector_iterator@V?$_Vector_val@VioHashString@@V?$allocator@VioHashString@@@std@@@std@@@2@XZ ; std::vector<ioHashString,std::allocator<ioHashString> >::end
; Function compile flags: /Ogsp
;	COMDAT ?end@?$vector@VioHashString@@V?$allocator@VioHashString@@@std@@@std@@QAE?AV?$_Vector_iterator@V?$_Vector_val@VioHashString@@V?$allocator@VioHashString@@@std@@@std@@@2@XZ
_TEXT	SEGMENT
___$ReturnUdt$ = 8					; size = 4
?end@?$vector@VioHashString@@V?$allocator@VioHashString@@@std@@@std@@QAE?AV?$_Vector_iterator@V?$_Vector_val@VioHashString@@V?$allocator@VioHashString@@@std@@@std@@@2@XZ PROC ; std::vector<ioHashString,std::allocator<ioHashString> >::end, COMDAT
; _this$ = ecx

; 791  : 		{	// return iterator for end of mutable sequence

  00000	55		 push	 ebp
  00001	8b ec		 mov	 ebp, esp

; 792  : 		return (iterator(this->_Mylast, this));

  00003	8b 49 04	 mov	 ecx, DWORD PTR [ecx+4]
  00006	8b 45 08	 mov	 eax, DWORD PTR ___$ReturnUdt$[ebp]
  00009	89 08		 mov	 DWORD PTR [eax], ecx

; 793  : 		}

  0000b	5d		 pop	 ebp
  0000c	c2 04 00	 ret	 4
?end@?$vector@VioHashString@@V?$allocator@VioHashString@@@std@@@std@@QAE?AV?$_Vector_iterator@V?$_Vector_val@VioHashString@@V?$allocator@VioHashString@@@std@@@std@@@2@XZ ENDP ; std::vector<ioHashString,std::allocator<ioHashString> >::end
_TEXT	ENDS
PUBLIC	?end@?$vector@VioHashString@@V?$allocator@VioHashString@@@std@@@std@@QBE?AV?$_Vector_const_iterator@V?$_Vector_val@VioHashString@@V?$allocator@VioHashString@@@std@@@std@@@2@XZ ; std::vector<ioHashString,std::allocator<ioHashString> >::end
; Function compile flags: /Ogsp
;	COMDAT ?end@?$vector@VioHashString@@V?$allocator@VioHashString@@@std@@@std@@QBE?AV?$_Vector_const_iterator@V?$_Vector_val@VioHashString@@V?$allocator@VioHashString@@@std@@@std@@@2@XZ
_TEXT	SEGMENT
___$ReturnUdt$ = 8					; size = 4
?end@?$vector@VioHashString@@V?$allocator@VioHashString@@@std@@@std@@QBE?AV?$_Vector_const_iterator@V?$_Vector_val@VioHashString@@V?$allocator@VioHashString@@@std@@@std@@@2@XZ PROC ; std::vector<ioHashString,std::allocator<ioHashString> >::end, COMDAT
; _this$ = ecx

; 796  : 		{	// return iterator for end of nonmutable sequence

  00000	55		 push	 ebp
  00001	8b ec		 mov	 ebp, esp

; 797  : 		return (const_iterator(this->_Mylast, this));

  00003	8b 49 04	 mov	 ecx, DWORD PTR [ecx+4]
  00006	8b 45 08	 mov	 eax, DWORD PTR ___$ReturnUdt$[ebp]
  00009	89 08		 mov	 DWORD PTR [eax], ecx

; 798  : 		}

  0000b	5d		 pop	 ebp
  0000c	c2 04 00	 ret	 4
?end@?$vector@VioHashString@@V?$allocator@VioHashString@@@std@@@std@@QBE?AV?$_Vector_const_iterator@V?$_Vector_val@VioHashString@@V?$allocator@VioHashString@@@std@@@std@@@2@XZ ENDP ; std::vector<ioHashString,std::allocator<ioHashString> >::end
_TEXT	ENDS
PUBLIC	??0?$_Vector_val@VioHashString@@V?$allocator@VioHashString@@@std@@@std@@QAE@V?$allocator@VioHashString@@@1@@Z ; std::_Vector_val<ioHashString,std::allocator<ioHashString> >::_Vector_val<ioHashString,std::allocator<ioHashString> >
; Function compile flags: /Ogsp
;	COMDAT ??0?$_Vector_val@VioHashString@@V?$allocator@VioHashString@@@std@@@std@@QAE@V?$allocator@VioHashString@@@1@@Z
_TEXT	SEGMENT
__Al$ = 8						; size = 1
??0?$_Vector_val@VioHashString@@V?$allocator@VioHashString@@@std@@@std@@QAE@V?$allocator@VioHashString@@@1@@Z PROC ; std::_Vector_val<ioHashString,std::allocator<ioHashString> >::_Vector_val<ioHashString,std::allocator<ioHashString> >, COMDAT
; _this$ = ecx

; 426  : 		{	// construct allocator from _Al

  00000	8b c1		 mov	 eax, ecx

; 427  : 		_Myfirst = 0;

  00002	33 c9		 xor	 ecx, ecx
  00004	89 08		 mov	 DWORD PTR [eax], ecx

; 428  : 		_Mylast = 0;

  00006	89 48 04	 mov	 DWORD PTR [eax+4], ecx

; 429  : 		_Myend = 0;

  00009	89 48 08	 mov	 DWORD PTR [eax+8], ecx

; 430  : 		}

  0000c	c2 04 00	 ret	 4
??0?$_Vector_val@VioHashString@@V?$allocator@VioHashString@@@std@@@std@@QAE@V?$allocator@VioHashString@@@1@@Z ENDP ; std::_Vector_val<ioHashString,std::allocator<ioHashString> >::_Vector_val<ioHashString,std::allocator<ioHashString> >
_TEXT	ENDS
PUBLIC	?_Make_iter@?$vector@VioHashString@@V?$allocator@VioHashString@@@std@@@std@@QBE?AV?$_Vector_iterator@V?$_Vector_val@VioHashString@@V?$allocator@VioHashString@@@std@@@std@@@2@V?$_Vector_const_iterator@V?$_Vector_val@VioHashString@@V?$allocator@VioHashString@@@std@@@std@@@2@@Z ; std::vector<ioHashString,std::allocator<ioHashString> >::_Make_iter
; Function compile flags: /Ogsp
;	COMDAT ?_Make_iter@?$vector@VioHashString@@V?$allocator@VioHashString@@@std@@@std@@QBE?AV?$_Vector_iterator@V?$_Vector_val@VioHashString@@V?$allocator@VioHashString@@@std@@@std@@@2@V?$_Vector_const_iterator@V?$_Vector_val@VioHashString@@V?$allocator@VioHashString@@@std@@@std@@@2@@Z
_TEXT	SEGMENT
___$ReturnUdt$ = 8					; size = 4
__Where$ = 12						; size = 4
?_Make_iter@?$vector@VioHashString@@V?$allocator@VioHashString@@@std@@@std@@QBE?AV?$_Vector_iterator@V?$_Vector_val@VioHashString@@V?$allocator@VioHashString@@@std@@@std@@@2@V?$_Vector_const_iterator@V?$_Vector_val@VioHashString@@V?$allocator@VioHashString@@@std@@@std@@@2@@Z PROC ; std::vector<ioHashString,std::allocator<ioHashString> >::_Make_iter, COMDAT
; _this$ = ecx

; 801  : 		{	// make iterator from const_iterator

  00000	55		 push	 ebp
  00001	8b ec		 mov	 ebp, esp

; 802  : 		return (iterator(_Where._Ptr, this));

  00003	8b 45 08	 mov	 eax, DWORD PTR ___$ReturnUdt$[ebp]
  00006	8b 4d 0c	 mov	 ecx, DWORD PTR __Where$[ebp]
  00009	89 08		 mov	 DWORD PTR [eax], ecx

; 803  : 		}

  0000b	5d		 pop	 ebp
  0000c	c2 08 00	 ret	 8
?_Make_iter@?$vector@VioHashString@@V?$allocator@VioHashString@@@std@@@std@@QBE?AV?$_Vector_iterator@V?$_Vector_val@VioHashString@@V?$allocator@VioHashString@@@std@@@std@@@2@V?$_Vector_const_iterator@V?$_Vector_val@VioHashString@@V?$allocator@VioHashString@@@std@@@std@@@2@@Z ENDP ; std::vector<ioHashString,std::allocator<ioHashString> >::_Make_iter
_TEXT	ENDS
PUBLIC	?max_size@?$vector@VioHashString@@V?$allocator@VioHashString@@@std@@@std@@QBEIXZ ; std::vector<ioHashString,std::allocator<ioHashString> >::max_size
; Function compile flags: /Ogsp
;	COMDAT ?max_size@?$vector@VioHashString@@V?$allocator@VioHashString@@@std@@@std@@QBEIXZ
_TEXT	SEGMENT
?max_size@?$vector@VioHashString@@V?$allocator@VioHashString@@@std@@@std@@QBEIXZ PROC ; std::vector<ioHashString,std::allocator<ioHashString> >::max_size, COMDAT
; _this$ = ecx

; 884  : 		return (this->_Alval.max_size());

  00000	b8 ff ff ff 0f	 mov	 eax, 268435455		; 0fffffffH

; 885  : 		}

  00005	c3		 ret	 0
?max_size@?$vector@VioHashString@@V?$allocator@VioHashString@@@std@@@std@@QBEIXZ ENDP ; std::vector<ioHashString,std::allocator<ioHashString> >::max_size
_TEXT	ENDS
PUBLIC	?allocate@?$allocator@VioHashString@@@std@@QAEPAVioHashString@@I@Z ; std::allocator<ioHashString>::allocate
; Function compile flags: /Ogsp
; File c:\program files (x86)\microsoft visual studio 10.0\vc\include\xmemory
;	COMDAT ?allocate@?$allocator@VioHashString@@@std@@QAEPAVioHashString@@I@Z
_TEXT	SEGMENT
__Count$ = 8						; size = 4
?allocate@?$allocator@VioHashString@@@std@@QAEPAVioHashString@@I@Z PROC ; std::allocator<ioHashString>::allocate, COMDAT
; _this$ = ecx

; 186  : 		{	// allocate array of _Count elements

  00000	55		 push	 ebp
  00001	8b ec		 mov	 ebp, esp

; 187  : 		return (_Allocate(_Count, (pointer)0));

  00003	6a 00		 push	 0
  00005	ff 75 08	 push	 DWORD PTR __Count$[ebp]
  00008	e8 00 00 00 00	 call	 ??$_Allocate@VioHashString@@@std@@YAPAVioHashString@@IPAV1@@Z ; std::_Allocate<ioHashString>
  0000d	59		 pop	 ecx
  0000e	59		 pop	 ecx

; 188  : 		}

  0000f	5d		 pop	 ebp
  00010	c2 04 00	 ret	 4
?allocate@?$allocator@VioHashString@@@std@@QAEPAVioHashString@@I@Z ENDP ; std::allocator<ioHashString>::allocate
_TEXT	ENDS
PUBLIC	??8?$_Vector_const_iterator@V?$_Vector_val@VioHashString@@V?$allocator@VioHashString@@@std@@@std@@@std@@QBE_NABV01@@Z ; std::_Vector_const_iterator<std::_Vector_val<ioHashString,std::allocator<ioHashString> > >::operator==
; Function compile flags: /Ogsp
; File c:\program files (x86)\microsoft visual studio 10.0\vc\include\vector
;	COMDAT ??8?$_Vector_const_iterator@V?$_Vector_val@VioHashString@@V?$allocator@VioHashString@@@std@@@std@@@std@@QBE_NABV01@@Z
_TEXT	SEGMENT
__Right$ = 8						; size = 4
??8?$_Vector_const_iterator@V?$_Vector_val@VioHashString@@V?$allocator@VioHashString@@@std@@@std@@@std@@QBE_NABV01@@Z PROC ; std::_Vector_const_iterator<std::_Vector_val<ioHashString,std::allocator<ioHashString> > >::operator==, COMDAT
; _this$ = ecx

; 201  : 		{	// test for iterator equality

  00000	55		 push	 ebp
  00001	8b ec		 mov	 ebp, esp

; 202  : 		_Compat(_Right);
; 203  : 		return (this->_Ptr == _Right._Ptr);

  00003	8b 01		 mov	 eax, DWORD PTR [ecx]
  00005	8b 4d 08	 mov	 ecx, DWORD PTR __Right$[ebp]
  00008	2b 01		 sub	 eax, DWORD PTR [ecx]
  0000a	f7 d8		 neg	 eax
  0000c	1b c0		 sbb	 eax, eax
  0000e	40		 inc	 eax

; 204  : 		}

  0000f	5d		 pop	 ebp
  00010	c2 04 00	 ret	 4
??8?$_Vector_const_iterator@V?$_Vector_val@VioHashString@@V?$allocator@VioHashString@@@std@@@std@@@std@@QBE_NABV01@@Z ENDP ; std::_Vector_const_iterator<std::_Vector_val<ioHashString,std::allocator<ioHashString> > >::operator==
_TEXT	ENDS
PUBLIC	??$_Move@PAVioHashString@@PAV1@@std@@YAPAVioHashString@@PAV1@00U_Nonscalar_ptr_iterator_tag@0@@Z ; std::_Move<ioHashString *,ioHashString *>
; Function compile flags: /Ogsp
; File c:\program files (x86)\microsoft visual studio 10.0\vc\include\xutility
;	COMDAT ??$_Move@PAVioHashString@@PAV1@@std@@YAPAVioHashString@@PAV1@00U_Nonscalar_ptr_iterator_tag@0@@Z
_TEXT	SEGMENT
__First$ = 8						; size = 4
__Last$ = 12						; size = 4
__Dest$ = 16						; size = 4
___formal$ = 20						; size = 1
??$_Move@PAVioHashString@@PAV1@@std@@YAPAVioHashString@@PAV1@00U_Nonscalar_ptr_iterator_tag@0@@Z PROC ; std::_Move<ioHashString *,ioHashString *>, COMDAT

; 2512 : 	{	// move [_First, _Last) to [_Dest, ...), arbitrary iterators

  00000	55		 push	 ebp
  00001	8b ec		 mov	 ebp, esp
  00003	56		 push	 esi

; 2513 : 	for (; _First != _Last; ++_Dest, ++_First)

  00004	8b 75 08	 mov	 esi, DWORD PTR __First$[ebp]
  00007	eb 11		 jmp	 SHORT $LN11@Move
$LL3@Move:

; 2514 : 		*_Dest = _STD move(*_First);

  00009	8b 4d 10	 mov	 ecx, DWORD PTR __Dest$[ebp]
  0000c	56		 push	 esi
  0000d	ff 15 00 00 00
	00		 call	 DWORD PTR __imp_??4ioHashString@@QAEAAV0@ABV0@@Z
  00013	83 45 10 10	 add	 DWORD PTR __Dest$[ebp], 16 ; 00000010H
  00017	83 c6 10	 add	 esi, 16			; 00000010H
$LN11@Move:

; 2513 : 	for (; _First != _Last; ++_Dest, ++_First)

  0001a	3b 75 0c	 cmp	 esi, DWORD PTR __Last$[ebp]
  0001d	75 ea		 jne	 SHORT $LL3@Move

; 2515 : 	return (_Dest);

  0001f	8b 45 10	 mov	 eax, DWORD PTR __Dest$[ebp]
  00022	5e		 pop	 esi

; 2516 : 	}

  00023	5d		 pop	 ebp
  00024	c3		 ret	 0
??$_Move@PAVioHashString@@PAV1@@std@@YAPAVioHashString@@PAV1@00U_Nonscalar_ptr_iterator_tag@0@@Z ENDP ; std::_Move<ioHashString *,ioHashString *>
_TEXT	ENDS
PUBLIC	??$_Destroy@VioHashString@@@std@@YAXPAVioHashString@@@Z ; std::_Destroy<ioHashString>
; Function compile flags: /Ogsp
; File c:\program files (x86)\microsoft visual studio 10.0\vc\include\xmemory
;	COMDAT ??$_Destroy@VioHashString@@@std@@YAXPAVioHashString@@@Z
_TEXT	SEGMENT
__Ptr$ = 8						; size = 4
??$_Destroy@VioHashString@@@std@@YAXPAVioHashString@@@Z PROC ; std::_Destroy<ioHashString>, COMDAT

; 62   : 	{	// destroy object at _Ptr

  00000	55		 push	 ebp
  00001	8b ec		 mov	 ebp, esp

; 63   : 	_Ptr->~_Ty();

  00003	8b 4d 08	 mov	 ecx, DWORD PTR __Ptr$[ebp]

; 64   : 	}

  00006	5d		 pop	 ebp

; 63   : 	_Ptr->~_Ty();

  00007	ff 25 00 00 00
	00		 jmp	 DWORD PTR __imp_??1ioHashString@@QAE@XZ
??$_Destroy@VioHashString@@@std@@YAXPAVioHashString@@@Z ENDP ; std::_Destroy<ioHashString>
_TEXT	ENDS
PUBLIC	?construct@?$allocator@VioHashString@@@std@@QAEXPAVioHashString@@ABV3@@Z ; std::allocator<ioHashString>::construct
; Function compile flags: /Ogsp
;	COMDAT ?construct@?$allocator@VioHashString@@@std@@QAEXPAVioHashString@@ABV3@@Z
_TEXT	SEGMENT
__Ptr$ = 8						; size = 4
__Val$ = 12						; size = 4
?construct@?$allocator@VioHashString@@@std@@QAEXPAVioHashString@@ABV3@@Z PROC ; std::allocator<ioHashString>::construct, COMDAT
; _this$ = ecx

; 196  : 		{	// construct object at _Ptr with value _Val

  00000	55		 push	 ebp
  00001	8b ec		 mov	 ebp, esp

; 197  : 		_Construct(_Ptr, _Val);

  00003	ff 75 0c	 push	 DWORD PTR __Val$[ebp]
  00006	ff 75 08	 push	 DWORD PTR __Ptr$[ebp]
  00009	e8 00 00 00 00	 call	 ??$_Construct@VioHashString@@ABV1@@std@@YAXPAVioHashString@@ABV1@@Z ; std::_Construct<ioHashString,ioHashString const &>
  0000e	59		 pop	 ecx
  0000f	59		 pop	 ecx

; 198  : 		}

  00010	5d		 pop	 ebp
  00011	c2 08 00	 ret	 8
?construct@?$allocator@VioHashString@@@std@@QAEXPAVioHashString@@ABV3@@Z ENDP ; std::allocator<ioHashString>::construct
_TEXT	ENDS
PUBLIC	?ClearData@ioGrapplingSwing2Skill@@IAEXXZ	; ioGrapplingSwing2Skill::ClearData
EXTRN	__imp_?VEC3_ZERO@ioMath@@2UD3DXVECTOR3@@A:BYTE
; Function compile flags: /Ogsp
; File d:\lost saga for developer\youtube\tutorial\source\src\lsclient\iograpplingswing2skill.cpp
;	COMDAT ?ClearData@ioGrapplingSwing2Skill@@IAEXXZ
_TEXT	SEGMENT
tv155 = -4						; size = 4
_value$539812 = -4					; size = 4
_value$539808 = -4					; size = 4
?ClearData@ioGrapplingSwing2Skill@@IAEXXZ PROC		; ioGrapplingSwing2Skill::ClearData, COMDAT
; _this$ = ecx

; 53   : {

  00000	55		 push	 ebp
  00001	8b ec		 mov	 ebp, esp
  00003	51		 push	 ecx

; 54   : 	m_SkillState = SS_NONE;

  00004	33 c0		 xor	 eax, eax
  00006	53		 push	 ebx
  00007	8b d9		 mov	 ebx, ecx
  00009	56		 push	 esi
  0000a	57		 push	 edi
  0000b	89 83 e4 10 00
	00		 mov	 DWORD PTR [ebx+4324], eax

; 55   : 
; 56   : 	m_bTargetRot = false;

  00011	88 83 e0 11 00
	00		 mov	 BYTE PTR [ebx+4576], al

; 57   : 	m_CurDirKey = ioUserKeyInput::DKI_NONE;

  00017	89 83 f0 11 00
	00		 mov	 DWORD PTR [ebx+4592], eax

; 58   : 	m_vCurMoveDir = ioMath::VEC3_ZERO;

  0001d	8b 35 00 00 00
	00		 mov	 esi, DWORD PTR __imp_?VEC3_ZERO@ioMath@@2UD3DXVECTOR3@@A
  00023	8d bb e4 11 00
	00		 lea	 edi, DWORD PTR [ebx+4580]
  00029	a5		 movsd
  0002a	a5		 movsd
  0002b	a5		 movsd

; 59   : 
; 60   : 	m_bSetHandMesh = false;

  0002c	88 83 0a 0f 00
	00		 mov	 BYTE PTR [ebx+3850], al

; 61   : 
; 62   : 	m_dwLoopStartTime = 0;

  00032	89 83 a4 12 00
	00		 mov	 DWORD PTR [ebx+4772], eax

; 63   : 	m_bSetMoveAni = false;

  00038	88 83 a8 12 00
	00		 mov	 BYTE PTR [ebx+4776], al

; 64   : 
; 65   : 	//  
; 66   : 	m_dwCheckTime			= 0;

  0003e	89 83 3c 13 00
	00		 mov	 DWORD PTR [ebx+4924], eax

; 67   : 	m_fTicGaugeRateByGrowth	= FLOAT1;

  00044	b8 01 00 00 00	 mov	 eax, 1
  00049	89 45 fc	 mov	 DWORD PTR tv155[ebp], eax
  0004c	db 45 fc	 fild	 DWORD PTR tv155[ebp]
  0004f	85 c0		 test	 eax, eax
  00051	79 06		 jns	 SHORT $LN9@ClearData
  00053	d8 05 00 00 00
	00		 fadd	 DWORD PTR __real@4f800000
$LN9@ClearData:
  00059	8d 45 fc	 lea	 eax, DWORD PTR _value$539808[ebp]
  0005c	d9 5d fc	 fstp	 DWORD PTR _value$539808[ebp]
  0005f	50		 push	 eax
  00060	8d 8b 40 13 00
	00		 lea	 ecx, DWORD PTR [ebx+4928]
  00066	e8 00 00 00 00	 call	 ?EncryptValueToPool@?$CEncrypt@M@@AAEXPBD@Z ; CEncrypt<float>::EncryptValueToPool

; 68   : 	m_dwTicTimeByGrowth		= 0;

  0006b	83 65 fc 00	 and	 DWORD PTR _value$539812[ebp], 0
  0006f	8d 45 fc	 lea	 eax, DWORD PTR _value$539812[ebp]
  00072	50		 push	 eax
  00073	8d 8b 70 13 00
	00		 lea	 ecx, DWORD PTR [ebx+4976]
  00079	e8 00 00 00 00	 call	 ?EncryptValueToPool@?$CEncrypt@K@@AAEXPBD@Z ; CEncrypt<unsigned long>::EncryptValueToPool

; 69   : 	
; 70   : 	m_SkillGrapLoopStartTime = 0;

  0007e	83 a3 a0 13 00
	00 00		 and	 DWORD PTR [ebx+5024], 0
  00085	5f		 pop	 edi
  00086	5e		 pop	 esi
  00087	5b		 pop	 ebx

; 71   : }

  00088	c9		 leave
  00089	c3		 ret	 0
?ClearData@ioGrapplingSwing2Skill@@IAEXXZ ENDP		; ioGrapplingSwing2Skill::ClearData
_TEXT	ENDS
PUBLIC	?OnSkillEnd@ioGrapplingSwing2Skill@@UAEXPAVioBaseChar@@@Z ; ioGrapplingSwing2Skill::OnSkillEnd
EXTRN	?RestoreSkillWeaponMesh@ioBaseChar@@QAE_NPAVioSkill@@ABVioHashString@@_N2@Z:PROC ; ioBaseChar::RestoreSkillWeaponMesh
EXTRN	?ShowWeaponItemMesh@ioBaseChar@@QAEX_N0@Z:PROC	; ioBaseChar::ShowWeaponItemMesh
EXTRN	?OnSkillEnd@ioAttackSkill@@UAEXPAVioBaseChar@@@Z:PROC ; ioAttackSkill::OnSkillEnd
; Function compile flags: /Ogsp
;	COMDAT ?OnSkillEnd@ioGrapplingSwing2Skill@@UAEXPAVioBaseChar@@@Z
_TEXT	SEGMENT
_pChar$ = 8						; size = 4
?OnSkillEnd@ioGrapplingSwing2Skill@@UAEXPAVioBaseChar@@@Z PROC ; ioGrapplingSwing2Skill::OnSkillEnd, COMDAT
; _this$ = ecx

; 368  : {

  00000	55		 push	 ebp
  00001	8b ec		 mov	 ebp, esp
  00003	53		 push	 ebx
  00004	56		 push	 esi
  00005	57		 push	 edi

; 369  : 	ioAttackSkill::OnSkillEnd( pChar );

  00006	ff 75 08	 push	 DWORD PTR _pChar$[ebp]
  00009	8b d9		 mov	 ebx, ecx
  0000b	e8 00 00 00 00	 call	 ?OnSkillEnd@ioAttackSkill@@UAEXPAVioBaseChar@@@Z ; ioAttackSkill::OnSkillEnd

; 370  : 
; 371  : 	//  
; 372  : 	if( m_bUseItemMesh )
; 373  : 	{
; 374  : 		pChar->ShowWeaponItemMesh( true );

  00010	33 ff		 xor	 edi, edi
  00012	80 bb 08 0f 00
	00 00		 cmp	 BYTE PTR [ebx+3848], 0
  00019	74 0b		 je	 SHORT $LN2@OnSkillEnd
  0001b	8b 4d 08	 mov	 ecx, DWORD PTR _pChar$[ebp]
  0001e	57		 push	 edi
  0001f	6a 01		 push	 1
  00021	e8 00 00 00 00	 call	 ?ShowWeaponItemMesh@ioBaseChar@@QAEX_N0@Z ; ioBaseChar::ShowWeaponItemMesh
$LN2@OnSkillEnd:

; 375  : 	}
; 376  : 
; 377  : 	//      
; 378  : 	m_bSetHandMesh = false;
; 379  : 	if( !m_HandMesh.IsEmpty() )

  00026	8d b3 f8 0e 00
	00		 lea	 esi, DWORD PTR [ebx+3832]
  0002c	8b ce		 mov	 ecx, esi
  0002e	c6 83 0a 0f 00
	00 00		 mov	 BYTE PTR [ebx+3850], 0
  00035	ff 15 00 00 00
	00		 call	 DWORD PTR __imp_?IsEmpty@ioHashString@@QBE_NXZ
  0003b	84 c0		 test	 al, al
  0003d	75 13		 jne	 SHORT $LN6@OnSkillEnd

; 380  : 		pChar->RestoreSkillWeaponMesh( this, m_HandMesh, m_bVisibleEquipMesh );

  0003f	0f b6 83 09 0f
	00 00		 movzx	 eax, BYTE PTR [ebx+3849]
  00046	8b 4d 08	 mov	 ecx, DWORD PTR _pChar$[ebp]
  00049	57		 push	 edi
  0004a	50		 push	 eax
  0004b	56		 push	 esi
  0004c	53		 push	 ebx
  0004d	e8 00 00 00 00	 call	 ?RestoreSkillWeaponMesh@ioBaseChar@@QAE_NPAVioSkill@@ABVioHashString@@_N2@Z ; ioBaseChar::RestoreSkillWeaponMesh
$LN6@OnSkillEnd:

; 381  : 
; 382  : 	pChar->SetSkillMoveEnable( false, false );

  00052	8b 4d 08	 mov	 ecx, DWORD PTR _pChar$[ebp]
  00055	57		 push	 edi
  00056	57		 push	 edi
  00057	e8 00 00 00 00	 call	 ?SetSkillMoveEnable@ioBaseChar@@QAEX_N0@Z ; ioBaseChar::SetSkillMoveEnable

; 383  : 	m_SkillState = SS_NONE;

  0005c	89 bb e4 10 00
	00		 mov	 DWORD PTR [ebx+4324], edi

; 384  : 
; 385  : 	m_bTargetRot = false;
; 386  : 	m_CurDirKey = ioUserKeyInput::DKI_NONE;

  00062	89 bb f0 11 00
	00		 mov	 DWORD PTR [ebx+4592], edi
  00068	c6 83 e0 11 00
	00 00		 mov	 BYTE PTR [ebx+4576], 0

; 387  : 	m_vCurMoveDir = ioMath::VEC3_ZERO;

  0006f	8b 35 00 00 00
	00		 mov	 esi, DWORD PTR __imp_?VEC3_ZERO@ioMath@@2UD3DXVECTOR3@@A
  00075	8d bb e4 11 00
	00		 lea	 edi, DWORD PTR [ebx+4580]
  0007b	a5		 movsd
  0007c	a5		 movsd

; 388  : 
; 389  : 	ClearData();

  0007d	8b cb		 mov	 ecx, ebx
  0007f	a5		 movsd
  00080	e8 00 00 00 00	 call	 ?ClearData@ioGrapplingSwing2Skill@@IAEXXZ ; ioGrapplingSwing2Skill::ClearData
  00085	5f		 pop	 edi
  00086	5e		 pop	 esi
  00087	5b		 pop	 ebx

; 390  : }

  00088	5d		 pop	 ebp
  00089	c2 04 00	 ret	 4
?OnSkillEnd@ioGrapplingSwing2Skill@@UAEXPAVioBaseChar@@@Z ENDP ; ioGrapplingSwing2Skill::OnSkillEnd
_TEXT	ENDS
PUBLIC	___$ReturnUdt$GSCopy$
PUBLIC	__$ArrayPad$
PUBLIC	?GetGrapplingTargetPos@ioGrapplingSwing2Skill@@UAE?AUD3DXVECTOR3@@PAVioBaseChar@@@Z ; ioGrapplingSwing2Skill::GetGrapplingTargetPos
EXTRN	_D3DXVec3Normalize@8:PROC
EXTRN	?GetMidPositionByRate@ioGameEntity@@QBE?AUD3DXVECTOR3@@M@Z:PROC ; ioGameEntity::GetMidPositionByRate
; Function compile flags: /Ogsp
;	COMDAT ?GetGrapplingTargetPos@ioGrapplingSwing2Skill@@UAE?AUD3DXVECTOR3@@PAVioBaseChar@@@Z
_TEXT	SEGMENT
___$ReturnUdt$GSCopy$ = -48				; size = 4
tv370 = -44						; size = 4
_value$539848 = -44					; size = 4
_value$539830 = -44					; size = 4
_value$539852 = -44					; size = 4
$T533142 = -40						; size = 12
_vDir$533140 = -28					; size = 12
_vPos$533138 = -16					; size = 12
__$ArrayPad$ = -4					; size = 4
___$ReturnUdt$ = 8					; size = 4
_pChar$ = 12						; size = 4
?GetGrapplingTargetPos@ioGrapplingSwing2Skill@@UAE?AUD3DXVECTOR3@@PAVioBaseChar@@@Z PROC ; ioGrapplingSwing2Skill::GetGrapplingTargetPos, COMDAT
; _this$ = ecx

; 650  : {

  00000	55		 push	 ebp
  00001	8b ec		 mov	 ebp, esp
  00003	83 ec 30	 sub	 esp, 48			; 00000030H
  00006	a1 00 00 00 00	 mov	 eax, DWORD PTR ___security_cookie
  0000b	33 c5		 xor	 eax, ebp
  0000d	89 45 fc	 mov	 DWORD PTR __$ArrayPad$[ebp], eax
  00010	8b 45 08	 mov	 eax, DWORD PTR ___$ReturnUdt$[ebp]
  00013	53		 push	 ebx
  00014	56		 push	 esi
  00015	57		 push	 edi
  00016	8b 7d 0c	 mov	 edi, DWORD PTR _pChar$[ebp]

; 658  : 			vPos += m_fTargetLoopGapRange * vDir;

  00019	89 45 d0	 mov	 DWORD PTR ___$ReturnUdt$GSCopy$[ebp], eax
  0001c	8b f1		 mov	 esi, ecx
  0001e	8d 45 d4	 lea	 eax, DWORD PTR _value$539830[ebp]
  00021	50		 push	 eax
  00022	8d 8e 38 11 00
	00		 lea	 ecx, DWORD PTR [esi+4408]
  00028	e8 00 00 00 00	 call	 ?DecryptValueToPool@?$CEncrypt@M@@QAEXPAM@Z ; CEncrypt<float>::DecryptValueToPool
  0002d	f3 0f 10 45 d4	 movss	 xmm0, DWORD PTR _value$539830[ebp]
  00032	0f 2f 05 00 00
	00 00		 comiss	 xmm0, DWORD PTR __real@00000000
  00039	0f 86 2d 01 00
	00		 jbe	 $LN2@GetGrappli

; 651  : 	if( m_fTargetLoopGapRange > 0.0f )
; 652  : 	{
; 653  : 		D3DXVECTOR3 vPos = pChar->GetMidPositionByRate( m_fCharHeightRate );

  0003f	f3 0f 10 86 78
	11 00 00	 movss	 xmm0, DWORD PTR [esi+4472]
  00047	51		 push	 ecx
  00048	8d 45 f0	 lea	 eax, DWORD PTR _vPos$533138[ebp]
  0004b	f3 0f 11 04 24	 movss	 DWORD PTR [esp], xmm0
  00050	50		 push	 eax
  00051	8b cf		 mov	 ecx, edi
  00053	e8 00 00 00 00	 call	 ?GetMidPositionByRate@ioGameEntity@@QBE?AUD3DXVECTOR3@@M@Z ; ioGameEntity::GetMidPositionByRate

; 654  : 		D3DXVECTOR3 vDir = pChar->GetTargetRot() * D3DXVECTOR3( 0.0f, 0.0f, -FLOAT1 );

  00058	b8 01 00 00 00	 mov	 eax, 1
  0005d	0f 57 c0	 xorps	 xmm0, xmm0
  00060	89 45 d4	 mov	 DWORD PTR tv370[ebp], eax
  00063	db 45 d4	 fild	 DWORD PTR tv370[ebp]
  00066	f3 0f 11 45 d8	 movss	 DWORD PTR $T533142[ebp], xmm0
  0006b	f3 0f 11 45 dc	 movss	 DWORD PTR $T533142[ebp+4], xmm0
  00070	85 c0		 test	 eax, eax
  00072	79 06		 jns	 SHORT $LN29@GetGrappli
  00074	d8 05 00 00 00
	00		 fadd	 DWORD PTR __real@4f800000
$LN29@GetGrappli:
  0007a	8d 45 d8	 lea	 eax, DWORD PTR $T533142[ebp]
  0007d	d9 e0		 fchs
  0007f	50		 push	 eax
  00080	d9 5d e0	 fstp	 DWORD PTR $T533142[ebp+8]
  00083	81 c7 a4 06 00
	00		 add	 edi, 1700		; 000006a4H
  00089	8d 45 e4	 lea	 eax, DWORD PTR _vDir$533140[ebp]
  0008c	57		 push	 edi
  0008d	50		 push	 eax
  0008e	ff 15 00 00 00
	00		 call	 DWORD PTR __imp_??D@YA?AUD3DXVECTOR3@@ABUD3DXQUATERNION@@ABU0@@Z
  00094	83 c4 0c	 add	 esp, 12			; 0000000cH

; 655  : 		D3DXVec3Normalize( &vDir, &vDir );

  00097	8d 45 e4	 lea	 eax, DWORD PTR _vDir$533140[ebp]
  0009a	50		 push	 eax
  0009b	50		 push	 eax
  0009c	e8 00 00 00 00	 call	 _D3DXVec3Normalize@8

; 656  : 
; 657  : 		if( m_fTargetLoopGapRange > 0.0f )

  000a1	8d 45 d4	 lea	 eax, DWORD PTR _value$539848[ebp]
  000a4	50		 push	 eax
  000a5	8d 8e 38 11 00
	00		 lea	 ecx, DWORD PTR [esi+4408]
  000ab	e8 00 00 00 00	 call	 ?DecryptValueToPool@?$CEncrypt@M@@QAEXPAM@Z ; CEncrypt<float>::DecryptValueToPool
  000b0	f3 0f 10 45 d4	 movss	 xmm0, DWORD PTR _value$539848[ebp]
  000b5	0f 2f 05 00 00
	00 00		 comiss	 xmm0, DWORD PTR __real@00000000
  000bc	0f 86 a5 00 00
	00		 jbe	 $LN25@GetGrappli

; 658  : 			vPos += m_fTargetLoopGapRange * vDir;

  000c2	8d 45 d4	 lea	 eax, DWORD PTR _value$539852[ebp]
  000c5	50		 push	 eax
  000c6	8d 8e 38 11 00
	00		 lea	 ecx, DWORD PTR [esi+4408]
  000cc	e8 00 00 00 00	 call	 ?DecryptValueToPool@?$CEncrypt@M@@QAEXPAM@Z ; CEncrypt<float>::DecryptValueToPool
  000d1	f3 0f 10 4d d4	 movss	 xmm1, DWORD PTR _value$539852[ebp]
  000d6	f3 0f 10 45 e4	 movss	 xmm0, DWORD PTR _vDir$533140[ebp]
  000db	f3 0f 10 55 d4	 movss	 xmm2, DWORD PTR _value$539852[ebp]
  000e0	f3 0f 10 5d d4	 movss	 xmm3, DWORD PTR _value$539852[ebp]
  000e5	0f 5a c0	 cvtps2pd xmm0, xmm0
  000e8	0f 5a c9	 cvtps2pd xmm1, xmm1
  000eb	f2 0f 59 c1	 mulsd	 xmm0, xmm1
  000ef	f3 0f 10 4d e8	 movss	 xmm1, DWORD PTR _vDir$533140[ebp+4]
  000f4	66 0f 5a c0	 cvtpd2ps xmm0, xmm0
  000f8	0f 5a c9	 cvtps2pd xmm1, xmm1
  000fb	0f 5a d2	 cvtps2pd xmm2, xmm2
  000fe	f2 0f 59 ca	 mulsd	 xmm1, xmm2
  00102	f3 0f 10 55 ec	 movss	 xmm2, DWORD PTR _vDir$533140[ebp+8]
  00107	f3 0f 5a c0	 cvtss2sd xmm0, xmm0
  0010b	0f 5a db	 cvtps2pd xmm3, xmm3
  0010e	0f 5a d2	 cvtps2pd xmm2, xmm2
  00111	f2 0f 59 d3	 mulsd	 xmm2, xmm3
  00115	f3 0f 10 5d f0	 movss	 xmm3, DWORD PTR _vPos$533138[ebp]
  0011a	0f 5a db	 cvtps2pd xmm3, xmm3
  0011d	f2 0f 58 c3	 addsd	 xmm0, xmm3
  00121	66 0f 5a c0	 cvtpd2ps xmm0, xmm0
  00125	f3 0f 11 45 f0	 movss	 DWORD PTR _vPos$533138[ebp], xmm0
  0012a	f3 0f 10 45 f4	 movss	 xmm0, DWORD PTR _vPos$533138[ebp+4]
  0012f	0f 5a c0	 cvtps2pd xmm0, xmm0
  00132	66 0f 5a c9	 cvtpd2ps xmm1, xmm1
  00136	f3 0f 5a c9	 cvtss2sd xmm1, xmm1
  0013a	f2 0f 58 c1	 addsd	 xmm0, xmm1
  0013e	66 0f 5a c0	 cvtpd2ps xmm0, xmm0
  00142	f3 0f 11 45 f4	 movss	 DWORD PTR _vPos$533138[ebp+4], xmm0
  00147	f3 0f 10 45 f8	 movss	 xmm0, DWORD PTR _vPos$533138[ebp+8]
  0014c	66 0f 5a d2	 cvtpd2ps xmm2, xmm2
  00150	0f 5a c0	 cvtps2pd xmm0, xmm0
  00153	0f 57 c9	 xorps	 xmm1, xmm1
  00156	f3 0f 5a ca	 cvtss2sd xmm1, xmm2
  0015a	f2 0f 58 c1	 addsd	 xmm0, xmm1
  0015e	66 0f 5a c0	 cvtpd2ps xmm0, xmm0
  00162	f3 0f 11 45 f8	 movss	 DWORD PTR _vPos$533138[ebp+8], xmm0
$LN25@GetGrappli:

; 659  : 
; 660  : 		return vPos;

  00167	8d 75 f0	 lea	 esi, DWORD PTR _vPos$533138[ebp]
  0016a	eb 06		 jmp	 SHORT $LN30@GetGrappli
$LN2@GetGrappli:

; 661  : 	}
; 662  : 
; 663  : 	return ioMath::VEC3_ZERO;

  0016c	8b 35 00 00 00
	00		 mov	 esi, DWORD PTR __imp_?VEC3_ZERO@ioMath@@2UD3DXVECTOR3@@A
$LN30@GetGrappli:
  00172	8b 45 d0	 mov	 eax, DWORD PTR ___$ReturnUdt$GSCopy$[ebp]

; 664  : }

  00175	8b 4d fc	 mov	 ecx, DWORD PTR __$ArrayPad$[ebp]
  00178	8b f8		 mov	 edi, eax
  0017a	a5		 movsd
  0017b	a5		 movsd
  0017c	a5		 movsd
  0017d	5f		 pop	 edi
  0017e	5e		 pop	 esi
  0017f	33 cd		 xor	 ecx, ebp
  00181	5b		 pop	 ebx
  00182	e8 00 00 00 00	 call	 @__security_check_cookie@4
  00187	c9		 leave
  00188	c2 08 00	 ret	 8
?GetGrapplingTargetPos@ioGrapplingSwing2Skill@@UAE?AUD3DXVECTOR3@@PAVioBaseChar@@@Z ENDP ; ioGrapplingSwing2Skill::GetGrapplingTargetPos
_TEXT	ENDS
PUBLIC	?IsProtected@ioGrapplingSwing2Skill@@UBE_NH@Z	; ioGrapplingSwing2Skill::IsProtected
; Function compile flags: /Ogsp
;	COMDAT ?IsProtected@ioGrapplingSwing2Skill@@UBE_NH@Z
_TEXT	SEGMENT
_value$539880 = -1					; size = 1
_value$539885 = 8					; size = 4
_iDefenseBreakType$ = 8					; size = 4
?IsProtected@ioGrapplingSwing2Skill@@UBE_NH@Z PROC	; ioGrapplingSwing2Skill::IsProtected, COMDAT
; _this$ = ecx

; 804  : {

  00000	55		 push	 ebp
  00001	8b ec		 mov	 ebp, esp
  00003	51		 push	 ecx
  00004	56		 push	 esi
  00005	8b f1		 mov	 esi, ecx

; 805  : 	if( m_bDisableSkillProtect )

  00007	8d 45 ff	 lea	 eax, DWORD PTR _value$539880[ebp]
  0000a	50		 push	 eax
  0000b	8d 8e a8 00 00
	00		 lea	 ecx, DWORD PTR [esi+168]
  00011	e8 00 00 00 00	 call	 ?DecryptValueToPool@?$CEncrypt@_N@@QAEXPA_N@Z ; CEncrypt<bool>::DecryptValueToPool
  00016	80 7d ff 00	 cmp	 BYTE PTR _value$539880[ebp], 0
  0001a	74 04		 je	 SHORT $LN10@IsProtecte
$LN18@IsProtecte:

; 806  : 		return false;

  0001c	32 c0		 xor	 al, al
  0001e	eb 71		 jmp	 SHORT $LN1@IsProtecte
$LN10@IsProtecte:

; 807  : 
; 808  : 	if( DBT_NONE != (DefenseBreakType)m_ProtectCancelType )

  00020	8b 86 a4 00 00
	00		 mov	 eax, DWORD PTR [esi+164]
  00026	85 c0		 test	 eax, eax
  00028	74 05		 je	 SHORT $LN8@IsProtecte

; 809  : 	{
; 810  : 		if( iDefenseBreakType == m_ProtectCancelType )   //   

  0002a	39 45 08	 cmp	 DWORD PTR _iDefenseBreakType$[ebp], eax

; 811  : 			return false;

  0002d	74 ed		 je	 SHORT $LN18@IsProtecte
$LN8@IsProtecte:
  0002f	57		 push	 edi

; 812  : 	}
; 813  : 
; 814  : 	DWORD dwCurTime = FRAMEGETTIME();

  00030	ff 15 00 00 00
	00		 call	 DWORD PTR __imp_?GetSingleton@ioFrameTimer@@SAAAV1@XZ
  00036	8b c8		 mov	 ecx, eax
  00038	ff 15 00 00 00
	00		 call	 DWORD PTR __imp_?GetLoopSec@ioFrameTimer@@QBEKXZ
  0003e	8b f8		 mov	 edi, eax

; 815  : 
; 816  : 	if( IsPreDelayProtect() )

  00040	8b 06		 mov	 eax, DWORD PTR [esi]
  00042	8b ce		 mov	 ecx, esi
  00044	ff 90 2c 01 00
	00		 call	 DWORD PTR [eax+300]
  0004a	84 c0		 test	 al, al
  0004c	74 0d		 je	 SHORT $LN6@IsProtecte

; 817  : 	{
; 818  : 		if( m_dwPreDelayStartTime != 0 )

  0004e	83 be 20 02 00
	00 00		 cmp	 DWORD PTR [esi+544], 0
  00055	74 04		 je	 SHORT $LN6@IsProtecte

; 819  : 			return true;

  00057	b0 01		 mov	 al, 1
  00059	eb 35		 jmp	 SHORT $LN17@IsProtecte
$LN6@IsProtecte:

; 820  : 	}
; 821  : 
; 822  : 	switch( m_SkillState )

  0005b	8b 86 e4 10 00
	00		 mov	 eax, DWORD PTR [esi+4324]
  00061	48		 dec	 eax
  00062	74 0e		 je	 SHORT $LN2@IsProtecte
  00064	48		 dec	 eax
  00065	74 07		 je	 SHORT $LN3@IsProtecte
  00067	48		 dec	 eax
  00068	74 08		 je	 SHORT $LN2@IsProtecte
  0006a	48		 dec	 eax
  0006b	48		 dec	 eax
  0006c	74 04		 je	 SHORT $LN2@IsProtecte
$LN3@IsProtecte:

; 830  : 			return false;
; 831  : 
; 832  : 		return true;
; 833  : 	}
; 834  : 
; 835  : 	return false;

  0006e	32 c0		 xor	 al, al
  00070	eb 1e		 jmp	 SHORT $LN17@IsProtecte
$LN2@IsProtecte:

; 823  : 	{
; 824  : 	case SS_ACTION:
; 825  : 		return false;
; 826  : 	case SS_LOOP:
; 827  : 	case SS_GRAP_LOOP:
; 828  : 	case SS_END:
; 829  : 		if( m_dwSkillStartTime + m_dwSkillProtectTime < dwCurTime )

  00072	8d 45 08	 lea	 eax, DWORD PTR _value$539885[ebp]
  00075	50		 push	 eax
  00076	8d 8e 94 0e 00
	00		 lea	 ecx, DWORD PTR [esi+3732]
  0007c	e8 00 00 00 00	 call	 ?DecryptValueToPool@?$CEncrypt@K@@QAEXPAK@Z ; CEncrypt<unsigned long>::DecryptValueToPool
  00081	8b 86 28 11 00
	00		 mov	 eax, DWORD PTR [esi+4392]
  00087	03 45 08	 add	 eax, DWORD PTR _value$539885[ebp]
  0008a	3b c7		 cmp	 eax, edi
  0008c	1a c0		 sbb	 al, al
  0008e	fe c0		 inc	 al
$LN17@IsProtecte:
  00090	5f		 pop	 edi
$LN1@IsProtecte:
  00091	5e		 pop	 esi

; 836  : }

  00092	c9		 leave
  00093	c2 04 00	 ret	 4
?IsProtected@ioGrapplingSwing2Skill@@UBE_NH@Z ENDP	; ioGrapplingSwing2Skill::IsProtected
_TEXT	ENDS
PUBLIC	?IsEnableReserve@ioGrapplingSwing2Skill@@UBE_NXZ ; ioGrapplingSwing2Skill::IsEnableReserve
; Function compile flags: /Ogsp
;	COMDAT ?IsEnableReserve@ioGrapplingSwing2Skill@@UBE_NXZ
_TEXT	SEGMENT
_value$539894 = -4					; size = 4
?IsEnableReserve@ioGrapplingSwing2Skill@@UBE_NXZ PROC	; ioGrapplingSwing2Skill::IsEnableReserve, COMDAT
; _this$ = ecx

; 839  : {

  00000	55		 push	 ebp
  00001	8b ec		 mov	 ebp, esp
  00003	51		 push	 ecx
  00004	56		 push	 esi
  00005	8b f1		 mov	 esi, ecx

; 840  : 	if( m_dwPreDelayStartTime != 0 )

  00007	83 be 20 02 00
	00 00		 cmp	 DWORD PTR [esi+544], 0

; 841  : 		return false;

  0000e	75 46		 jne	 SHORT $LN2@IsEnableRe

; 842  : 
; 843  : 	switch( m_SkillState )

  00010	83 be e4 10 00
	00 05		 cmp	 DWORD PTR [esi+4324], 5
  00017	75 3d		 jne	 SHORT $LN2@IsEnableRe

; 844  : 	{
; 845  : 	case SS_END:
; 846  : 		if( m_dwEnableReserveTime == 0 || m_dwMotionStartTime >= m_dwEnableReserveTime )

  00019	83 be dc 02 00
	00 00		 cmp	 DWORD PTR [esi+732], 0
  00020	74 34		 je	 SHORT $LN2@IsEnableRe
  00022	8d 45 fc	 lea	 eax, DWORD PTR _value$539894[ebp]
  00025	50		 push	 eax
  00026	8d 8e a8 02 00
	00		 lea	 ecx, DWORD PTR [esi+680]
  0002c	e8 00 00 00 00	 call	 ?DecryptValueToPool@?$CEncrypt@K@@QAEXPAK@Z ; CEncrypt<unsigned long>::DecryptValueToPool
  00031	8b 45 fc	 mov	 eax, DWORD PTR _value$539894[ebp]
  00034	3b 86 dc 02 00
	00		 cmp	 eax, DWORD PTR [esi+732]
  0003a	73 1a		 jae	 SHORT $LN2@IsEnableRe

; 848  : 
; 849  : 		if( m_dwEnableReserveTime < FRAMEGETTIME() )

  0003c	ff 15 00 00 00
	00		 call	 DWORD PTR __imp_?GetSingleton@ioFrameTimer@@SAAAV1@XZ
  00042	8b c8		 mov	 ecx, eax
  00044	ff 15 00 00 00
	00		 call	 DWORD PTR __imp_?GetLoopSec@ioFrameTimer@@QBEKXZ
  0004a	39 86 dc 02 00
	00		 cmp	 DWORD PTR [esi+732], eax
  00050	73 04		 jae	 SHORT $LN2@IsEnableRe

; 850  : 			return true;

  00052	b0 01		 mov	 al, 1
  00054	eb 02		 jmp	 SHORT $LN8@IsEnableRe
$LN2@IsEnableRe:

; 847  : 			return false;

  00056	32 c0		 xor	 al, al
$LN8@IsEnableRe:
  00058	5e		 pop	 esi

; 851  : 		break;
; 852  : 	}
; 853  : 
; 854  : 	return false;
; 855  : }

  00059	c9		 leave
  0005a	c3		 ret	 0
?IsEnableReserve@ioGrapplingSwing2Skill@@UBE_NXZ ENDP	; ioGrapplingSwing2Skill::IsEnableReserve
_TEXT	ENDS
PUBLIC	__$ArrayPad$
PUBLIC	?CheckKeyInput@ioGrapplingSwing2Skill@@IAEXPAVioBaseChar@@@Z ; ioGrapplingSwing2Skill::CheckKeyInput
EXTRN	??6SP2Packet@@QAEAAV0@ABUD3DXVECTOR3@@@Z:PROC	; SP2Packet::operator<<
EXTRN	?CheckCurDirKey@ioBaseChar@@QAE?AW4DirKeyInput@ioUserKeyInput@@XZ:PROC ; ioBaseChar::CheckCurDirKey
;	COMDAT xdata$x
; File d:\lost saga for developer\youtube\tutorial\source\src\lsclient\iobasechar.h
xdata$x	SEGMENT
__unwindtable$?CheckKeyInput@ioGrapplingSwing2Skill@@IAEXPAVioBaseChar@@@Z DD 0ffffffffH
	DD	FLAT:__unwindfunclet$?CheckKeyInput@ioGrapplingSwing2Skill@@IAEXPAVioBaseChar@@@Z$0
__ehfuncinfo$?CheckKeyInput@ioGrapplingSwing2Skill@@IAEXPAVioBaseChar@@@Z DD 019930522H
	DD	01H
	DD	FLAT:__unwindtable$?CheckKeyInput@ioGrapplingSwing2Skill@@IAEXPAVioBaseChar@@@Z
	DD	2 DUP(00H)
	DD	2 DUP(00H)
	DD	00H
	DD	01H
; Function compile flags: /Ogsp
; File d:\lost saga for developer\youtube\tutorial\source\src\lsclient\iograpplingswing2skill.cpp
xdata$x	ENDS
;	COMDAT ?CheckKeyInput@ioGrapplingSwing2Skill@@IAEXPAVioBaseChar@@@Z
_TEXT	SEGMENT
_value$539904 = -32812					; size = 4
_kPacket$533264 = -32808				; size = 32792
__$ArrayPad$ = -16					; size = 4
__$EHRec$ = -12						; size = 12
_pOwner$ = 8						; size = 4
?CheckKeyInput@ioGrapplingSwing2Skill@@IAEXPAVioBaseChar@@@Z PROC ; ioGrapplingSwing2Skill::CheckKeyInput, COMDAT
; _this$ = ecx

; 858  : {

  00000	55		 push	 ebp
  00001	8b ec		 mov	 ebp, esp
  00003	6a ff		 push	 -1
  00005	68 00 00 00 00	 push	 __ehhandler$?CheckKeyInput@ioGrapplingSwing2Skill@@IAEXPAVioBaseChar@@@Z
  0000a	64 a1 00 00 00
	00		 mov	 eax, DWORD PTR fs:0
  00010	50		 push	 eax
  00011	b8 20 80 00 00	 mov	 eax, 32800		; 00008020H
  00016	e8 00 00 00 00	 call	 __chkstk
  0001b	a1 00 00 00 00	 mov	 eax, DWORD PTR ___security_cookie
  00020	33 c5		 xor	 eax, ebp
  00022	89 45 f0	 mov	 DWORD PTR __$ArrayPad$[ebp], eax
  00025	56		 push	 esi
  00026	57		 push	 edi
  00027	50		 push	 eax
  00028	8d 45 f4	 lea	 eax, DWORD PTR __$EHRec$[ebp]
  0002b	64 a3 00 00 00
	00		 mov	 DWORD PTR fs:0, eax
  00031	8b 7d 08	 mov	 edi, DWORD PTR _pOwner$[ebp]
  00034	8b f1		 mov	 esi, ecx

; 859  : 	if( !pOwner ) return;

  00036	85 ff		 test	 edi, edi
  00038	0f 84 f9 00 00
	00		 je	 $LN1@CheckKeyIn

; 860  : 	if( !pOwner->IsNeedProcess() ) return;

  0003e	8b 07		 mov	 eax, DWORD PTR [edi]
  00040	8b cf		 mov	 ecx, edi
  00042	ff 90 00 01 00
	00		 call	 DWORD PTR [eax+256]
  00048	84 c0		 test	 al, al
  0004a	0f 84 e7 00 00
	00		 je	 $LN1@CheckKeyIn

; 861  : 	if( m_dwMoveRotateTime <= 0 ) return;

  00050	8d 85 d4 7f ff
	ff		 lea	 eax, DWORD PTR _value$539904[ebp]
  00056	50		 push	 eax
  00057	8d 8e b0 11 00
	00		 lea	 ecx, DWORD PTR [esi+4528]
  0005d	e8 00 00 00 00	 call	 ?DecryptValueToPool@?$CEncrypt@K@@QAEXPAK@Z ; CEncrypt<unsigned long>::DecryptValueToPool
  00062	83 bd d4 7f ff
	ff 00		 cmp	 DWORD PTR _value$539904[ebp], 0
  00069	0f 86 c8 00 00
	00		 jbe	 $LN1@CheckKeyIn

; 862  : 
; 863  : 	ioUserKeyInput::DirKeyInput eNewDirKey = pOwner->CheckCurDirKey();

  0006f	8b cf		 mov	 ecx, edi
  00071	e8 00 00 00 00	 call	 ?CheckCurDirKey@ioBaseChar@@QAE?AW4DirKeyInput@ioUserKeyInput@@XZ ; ioBaseChar::CheckCurDirKey

; 864  : 	if( eNewDirKey != m_CurDirKey )

  00076	3b 86 f0 11 00
	00		 cmp	 eax, DWORD PTR [esi+4592]
  0007c	0f 84 b5 00 00
	00		 je	 $LN1@CheckKeyIn

; 865  : 	{
; 866  : 		m_bTargetRot = false;

  00082	c6 86 e0 11 00
	00 00		 mov	 BYTE PTR [esi+4576], 0

; 867  : 		m_CurDirKey = eNewDirKey;

  00089	89 86 f0 11 00
	00		 mov	 DWORD PTR [esi+4592], eax

; 868  : 
; 869  : 		if( pOwner->IsNeedSendNetwork() )

  0008f	8b 07		 mov	 eax, DWORD PTR [edi]
  00091	8b cf		 mov	 ecx, edi
  00093	ff 90 04 01 00
	00		 call	 DWORD PTR [eax+260]
  00099	84 c0		 test	 al, al
  0009b	0f 84 96 00 00
	00		 je	 $LN1@CheckKeyIn

; 870  : 		{
; 871  : 			SP2Packet kPacket( CUPK_SKILL_EXTRA_INFO );

  000a1	68 39 41 00 00	 push	 16697			; 00004139H
  000a6	8d 8d d8 7f ff
	ff		 lea	 ecx, DWORD PTR _kPacket$533264[ebp]
  000ac	e8 00 00 00 00	 call	 ??0SP2Packet@@QAE@K@Z	; SP2Packet::SP2Packet
  000b1	83 65 fc 00	 and	 DWORD PTR __$EHRec$[ebp+8], 0

; 872  : 			kPacket << pOwner->GetCharName();

  000b5	8d 87 d4 02 00
	00		 lea	 eax, DWORD PTR [edi+724]
  000bb	50		 push	 eax
  000bc	8d 8d d8 7f ff
	ff		 lea	 ecx, DWORD PTR _kPacket$533264[ebp]
  000c2	e8 00 00 00 00	 call	 ??6SP2Packet@@QAEAAV0@ABVioHashString@@@Z ; SP2Packet::operator<<

; 873  : 			kPacket << GetName();

  000c7	8d 46 24	 lea	 eax, DWORD PTR [esi+36]
  000ca	50		 push	 eax
  000cb	8d 8d d8 7f ff
	ff		 lea	 ecx, DWORD PTR _kPacket$533264[ebp]
  000d1	e8 00 00 00 00	 call	 ??6SP2Packet@@QAEAAV0@ABVioHashString@@@Z ; SP2Packet::operator<<

; 874  : 			kPacket << SSC_KEY;

  000d6	6a 04		 push	 4
  000d8	8d 8d d8 7f ff
	ff		 lea	 ecx, DWORD PTR _kPacket$533264[ebp]
  000de	e8 00 00 00 00	 call	 ??6SP2Packet@@QAEAAV0@H@Z ; SP2Packet::operator<<

; 875  : 			kPacket << pOwner->GetTargetRot();

  000e3	81 c7 a4 06 00
	00		 add	 edi, 1700		; 000006a4H
  000e9	57		 push	 edi
  000ea	8d 8d d8 7f ff
	ff		 lea	 ecx, DWORD PTR _kPacket$533264[ebp]
  000f0	e8 00 00 00 00	 call	 ??6SP2Packet@@QAEAAV0@ABUD3DXQUATERNION@@@Z ; SP2Packet::operator<<

; 876  : 			kPacket << (int)m_CurDirKey;

  000f5	ff b6 f0 11 00
	00		 push	 DWORD PTR [esi+4592]
  000fb	8d 8d d8 7f ff
	ff		 lea	 ecx, DWORD PTR _kPacket$533264[ebp]
  00101	e8 00 00 00 00	 call	 ??6SP2Packet@@QAEAAV0@H@Z ; SP2Packet::operator<<

; 877  : 			kPacket << m_vCurMoveDir;

  00106	81 c6 e4 11 00
	00		 add	 esi, 4580		; 000011e4H
  0010c	56		 push	 esi
  0010d	8d 8d d8 7f ff
	ff		 lea	 ecx, DWORD PTR _kPacket$533264[ebp]
  00113	e8 00 00 00 00	 call	 ??6SP2Packet@@QAEAAV0@ABUD3DXVECTOR3@@@Z ; SP2Packet::operator<<

; 878  : 			P2PNetwork::SendToAllPlayingUser( kPacket );

  00118	8d 85 d8 7f ff
	ff		 lea	 eax, DWORD PTR _kPacket$533264[ebp]
  0011e	6a 00		 push	 0
  00120	50		 push	 eax
  00121	e8 00 00 00 00	 call	 ?SendToAllPlayingUser@P2PNetwork@@YAXAAVSP2Packet@@PAVioBaseChar@@@Z ; P2PNetwork::SendToAllPlayingUser

; 879  : 		}

  00126	83 4d fc ff	 or	 DWORD PTR __$EHRec$[ebp+8], -1
  0012a	59		 pop	 ecx
  0012b	59		 pop	 ecx
  0012c	8d 8d d8 7f ff
	ff		 lea	 ecx, DWORD PTR _kPacket$533264[ebp]
  00132	e8 00 00 00 00	 call	 ??1SP2Packet@@UAE@XZ	; SP2Packet::~SP2Packet
$LN1@CheckKeyIn:

; 880  : 	}
; 881  : }

  00137	8b 4d f4	 mov	 ecx, DWORD PTR __$EHRec$[ebp]
  0013a	64 89 0d 00 00
	00 00		 mov	 DWORD PTR fs:0, ecx
  00141	59		 pop	 ecx
  00142	5f		 pop	 edi
  00143	5e		 pop	 esi
  00144	8b 4d f0	 mov	 ecx, DWORD PTR __$ArrayPad$[ebp]
  00147	33 cd		 xor	 ecx, ebp
  00149	e8 00 00 00 00	 call	 @__security_check_cookie@4
  0014e	c9		 leave
  0014f	c2 04 00	 ret	 4
_TEXT	ENDS
;	COMDAT text$x
text$x	SEGMENT
__unwindfunclet$?CheckKeyInput@ioGrapplingSwing2Skill@@IAEXPAVioBaseChar@@@Z$0:
  00000	8d 8d d8 7f ff
	ff		 lea	 ecx, DWORD PTR _kPacket$533264[ebp]
  00006	e9 00 00 00 00	 jmp	 ??1SP2Packet@@UAE@XZ	; SP2Packet::~SP2Packet
__ehhandler$?CheckKeyInput@ioGrapplingSwing2Skill@@IAEXPAVioBaseChar@@@Z:
  0000b	8b 54 24 08	 mov	 edx, DWORD PTR [esp+8]
  0000f	8d 42 0c	 lea	 eax, DWORD PTR [edx+12]
  00012	8b 8a d4 7f ff
	ff		 mov	 ecx, DWORD PTR [edx-32812]
  00018	33 c8		 xor	 ecx, eax
  0001a	e8 00 00 00 00	 call	 @__security_check_cookie@4
  0001f	8b 4a fc	 mov	 ecx, DWORD PTR [edx-4]
  00022	33 c8		 xor	 ecx, eax
  00024	e8 00 00 00 00	 call	 @__security_check_cookie@4
  00029	b8 00 00 00 00	 mov	 eax, OFFSET __ehfuncinfo$?CheckKeyInput@ioGrapplingSwing2Skill@@IAEXPAVioBaseChar@@@Z
  0002e	e9 00 00 00 00	 jmp	 ___CxxFrameHandler3
text$x	ENDS
?CheckKeyInput@ioGrapplingSwing2Skill@@IAEXPAVioBaseChar@@@Z ENDP ; ioGrapplingSwing2Skill::CheckKeyInput
PUBLIC	__real@4066800000000000
PUBLIC	__real@4046800000000000
PUBLIC	_pOwner$GSCopy$
PUBLIC	__$ArrayPad$
PUBLIC	?ProcessRotate@ioGrapplingSwing2Skill@@IAEXPAVioBaseChar@@@Z ; ioGrapplingSwing2Skill::ProcessRotate
EXTRN	?SetMoveDirByRotate@ioBaseChar@@QAEXABUD3DXQUATERNION@@@Z:PROC ; ioBaseChar::SetMoveDirByRotate
EXTRN	_D3DXQuaternionRotationYawPitchRoll@16:PROC
EXTRN	__imp_?GetCurFrameGap@ioFrameTimer@@QBEMXZ:PROC
;	COMDAT __real@4066800000000000
; File c:\program files (x86)\microsoft directx sdk (june 2010)\include\d3dx9math.inl
CONST	SEGMENT
__real@4066800000000000 DQ 04066800000000000r	; 180
CONST	ENDS
;	COMDAT __real@4046800000000000
CONST	SEGMENT
__real@4046800000000000 DQ 04046800000000000r	; 45
; Function compile flags: /Ogsp
; File d:\lost saga for developer\youtube\tutorial\source\src\lsclient\iograpplingswing2skill.cpp
CONST	ENDS
;	COMDAT ?ProcessRotate@ioGrapplingSwing2Skill@@IAEXPAVioBaseChar@@@Z
_TEXT	SEGMENT
tv684 = -116						; size = 4
tv663 = -116						; size = 4
_qtRotate$ = -112					; size = 16
_qtNewRot$ = -96					; size = 16
_fDotValue$ = -80					; size = 4
_pOwner$GSCopy$ = -76					; size = 4
tv703 = -72						; size = 4
tv691 = -72						; size = 4
_value$539941 = -72					; size = 4
_fGapAngle$ = -72					; size = 4
_fYawR$ = -72						; size = 4
tv741 = -68						; size = 4
tv739 = -68						; size = 4
tv735 = -68						; size = 4
_value$539929 = -68					; size = 4
_fRotateAngle$ = -68					; size = 4
_fFrameGap$ = -68					; size = 4
_vAxis$ = -64						; size = 12
_vNewDir$ = -52						; size = 12
_v$539987 = -40						; size = 12
$T533312 = -40						; size = 12
$T533306 = -40						; size = 12
$T533286 = -40						; size = 12
_vCurMoveDir$ = -28					; size = 12
_vTargetDir$ = -16					; size = 12
__$ArrayPad$ = -4					; size = 4
_pOwner$ = 8						; size = 4
?ProcessRotate@ioGrapplingSwing2Skill@@IAEXPAVioBaseChar@@@Z PROC ; ioGrapplingSwing2Skill::ProcessRotate, COMDAT
; _this$ = ecx

; 884  : {

  00000	55		 push	 ebp
  00001	8b ec		 mov	 ebp, esp
  00003	83 ec 74	 sub	 esp, 116		; 00000074H
  00006	a1 00 00 00 00	 mov	 eax, DWORD PTR ___security_cookie
  0000b	33 c5		 xor	 eax, ebp
  0000d	89 45 fc	 mov	 DWORD PTR __$ArrayPad$[ebp], eax
  00010	8b 45 08	 mov	 eax, DWORD PTR _pOwner$[ebp]
  00013	53		 push	 ebx
  00014	8b d9		 mov	 ebx, ecx

; 950  : 
; 951  : 	D3DXVECTOR3 vNewDir = qtNewRot * vCurMoveDir;

  00016	89 45 b4	 mov	 DWORD PTR _pOwner$GSCopy$[ebp], eax
  00019	85 c0		 test	 eax, eax
  0001b	0f 84 f9 03 00
	00		 je	 $LN3@ProcessRot

; 885  : 	if( !pOwner ) return;
; 886  : 	if( m_dwMoveRotateTime <= 0 ) return;

  00021	57		 push	 edi
  00022	8d 45 bc	 lea	 eax, DWORD PTR _value$539929[ebp]
  00025	50		 push	 eax
  00026	8d 8b b0 11 00
	00		 lea	 ecx, DWORD PTR [ebx+4528]
  0002c	e8 00 00 00 00	 call	 ?DecryptValueToPool@?$CEncrypt@K@@QAEXPAK@Z ; CEncrypt<unsigned long>::DecryptValueToPool
  00031	83 7d bc 00	 cmp	 DWORD PTR _value$539929[ebp], 0
  00035	0f 86 de 03 00
	00		 jbe	 $LN67@ProcessRot

; 887  : 
; 888  : 	if( m_vCurMoveDir == ioMath::VEC3_ZERO )

  0003b	8b 0d 00 00 00
	00		 mov	 ecx, DWORD PTR __imp_?VEC3_ZERO@ioMath@@2UD3DXVECTOR3@@A
  00041	f3 0f 10 09	 movss	 xmm1, DWORD PTR [ecx]
  00045	56		 push	 esi
  00046	8d b3 e4 11 00
	00		 lea	 esi, DWORD PTR [ebx+4580]
  0004c	f3 0f 10 06	 movss	 xmm0, DWORD PTR [esi]
  00050	0f 5a c0	 cvtps2pd xmm0, xmm0
  00053	0f 5a c9	 cvtps2pd xmm1, xmm1
  00056	66 0f 2e c1	 ucomisd xmm0, xmm1
  0005a	9f		 lahf
  0005b	f6 c4 44	 test	 ah, 68			; 00000044H
  0005e	7a 38		 jp	 SHORT $LN25@ProcessRot
  00060	f3 0f 10 46 04	 movss	 xmm0, DWORD PTR [esi+4]
  00065	f3 0f 10 49 04	 movss	 xmm1, DWORD PTR [ecx+4]
  0006a	0f 5a c0	 cvtps2pd xmm0, xmm0
  0006d	0f 5a c9	 cvtps2pd xmm1, xmm1
  00070	66 0f 2e c1	 ucomisd xmm0, xmm1
  00074	9f		 lahf
  00075	f6 c4 44	 test	 ah, 68			; 00000044H
  00078	7a 1e		 jp	 SHORT $LN25@ProcessRot
  0007a	f3 0f 10 46 08	 movss	 xmm0, DWORD PTR [esi+8]
  0007f	f3 0f 10 49 08	 movss	 xmm1, DWORD PTR [ecx+8]
  00084	0f 5a c0	 cvtps2pd xmm0, xmm0
  00087	0f 5a c9	 cvtps2pd xmm1, xmm1
  0008a	66 0f 2e c1	 ucomisd xmm0, xmm1
  0008e	9f		 lahf
  0008f	f6 c4 44	 test	 ah, 68			; 00000044H
  00092	0f 8b 80 03 00
	00		 jnp	 $LN68@ProcessRot
$LN25@ProcessRot:

; 889  : 		return;
; 890  : 	if( m_bTargetRot ) return;

  00098	80 bb e0 11 00
	00 00		 cmp	 BYTE PTR [ebx+4576], 0
  0009f	0f 85 73 03 00
	00		 jne	 $LN68@ProcessRot

; 891  : 
; 892  : 	if( m_CurDirKey == ioUserKeyInput::DKI_NONE )

  000a5	83 bb f0 11 00
	00 00		 cmp	 DWORD PTR [ebx+4592], 0
  000ac	0f 84 66 03 00
	00		 je	 $LN68@ProcessRot

; 893  : 		return;
; 894  : 
; 895  : 	float fFrameGap = g_FrameTimer.GetCurFrameGap();

  000b2	ff 15 00 00 00
	00		 call	 DWORD PTR __imp_?GetSingleton@ioFrameTimer@@SAAAV1@XZ
  000b8	8b c8		 mov	 ecx, eax
  000ba	ff 15 00 00 00
	00		 call	 DWORD PTR __imp_?GetCurFrameGap@ioFrameTimer@@QBEMXZ
  000c0	d9 5d bc	 fstp	 DWORD PTR _fFrameGap$[ebp]

; 896  : 	float fRate = fFrameGap / m_dwMoveRotateTime;

  000c3	8d 45 b8	 lea	 eax, DWORD PTR _value$539941[ebp]
  000c6	50		 push	 eax
  000c7	8d 8b b0 11 00
	00		 lea	 ecx, DWORD PTR [ebx+4528]
  000cd	e8 00 00 00 00	 call	 ?DecryptValueToPool@?$CEncrypt@K@@QAEXPAK@Z ; CEncrypt<unsigned long>::DecryptValueToPool

; 897  : 	float fRotateAngle = FLOAT360 * fRate;

  000d2	b8 68 01 00 00	 mov	 eax, 360		; 00000168H
  000d7	d9 45 bc	 fld	 DWORD PTR _fFrameGap$[ebp]
  000da	8b 4d b8	 mov	 ecx, DWORD PTR _value$539941[ebp]
  000dd	db 45 b8	 fild	 DWORD PTR _value$539941[ebp]
  000e0	85 c9		 test	 ecx, ecx
  000e2	79 06		 jns	 SHORT $LN69@ProcessRot
  000e4	d8 05 00 00 00
	00		 fadd	 DWORD PTR __real@4f800000
$LN69@ProcessRot:

; 896  : 	float fRate = fFrameGap / m_dwMoveRotateTime;

  000ea	de f9		 fdivp	 ST(1), ST(0)

; 897  : 	float fRotateAngle = FLOAT360 * fRate;

  000ec	d9 5d bc	 fstp	 DWORD PTR tv739[ebp]
  000ef	d9 45 bc	 fld	 DWORD PTR tv739[ebp]
  000f2	89 45 bc	 mov	 DWORD PTR tv735[ebp], eax
  000f5	db 45 bc	 fild	 DWORD PTR tv735[ebp]
  000f8	85 c0		 test	 eax, eax
  000fa	79 06		 jns	 SHORT $LN70@ProcessRot
  000fc	d8 05 00 00 00
	00		 fadd	 DWORD PTR __real@4f800000
$LN70@ProcessRot:

; 898  : 
; 899  : 	D3DXVECTOR3 vCurMoveDir = m_vCurMoveDir;

  00102	8d 7d e4	 lea	 edi, DWORD PTR _vCurMoveDir$[ebp]
  00105	de c9		 fmulp	 ST(1), ST(0)
  00107	a5		 movsd

; 900  : 	D3DXVec3Normalize( &vCurMoveDir, &vCurMoveDir );

  00108	8d 45 e4	 lea	 eax, DWORD PTR _vCurMoveDir$[ebp]
  0010b	d9 5d bc	 fstp	 DWORD PTR _fRotateAngle$[ebp]
  0010e	a5		 movsd
  0010f	50		 push	 eax
  00110	50		 push	 eax
  00111	a5		 movsd
  00112	e8 00 00 00 00	 call	 _D3DXVec3Normalize@8

; 901  : 
; 902  : 
; 903  : 	//    
; 904  : 	float fYawD = 180.0f + 45.0f * ( m_CurDirKey - ioUserKeyInput::DKI_UP );

  00117	8b 83 f0 11 00
	00		 mov	 eax, DWORD PTR [ebx+4592]
  0011d	0f 57 c0	 xorps	 xmm0, xmm0
  00120	48		 dec	 eax
  00121	f3 0f 2a c0	 cvtsi2ss xmm0, eax
  00125	0f 5a c0	 cvtps2pd xmm0, xmm0
  00128	f2 0f 59 05 00
	00 00 00	 mulsd	 xmm0, QWORD PTR __real@4046800000000000
  00130	f2 0f 58 05 00
	00 00 00	 addsd	 xmm0, QWORD PTR __real@4066800000000000

; 905  : 	fYawD = ioMath::ArrangeHead( fYawD );

  00138	51		 push	 ecx
  00139	66 0f 5a c0	 cvtpd2ps xmm0, xmm0
  0013d	f3 0f 11 04 24	 movss	 DWORD PTR [esp], xmm0
  00142	ff 15 00 00 00
	00		 call	 DWORD PTR __imp_?ArrangeHead@ioMath@@SAMM@Z

; 906  : 
; 907  : 	float fYawR = DEGtoRAD( fYawD );

  00148	dc 0d 00 00 00
	00		 fmul	 QWORD PTR __real@3f91df46a2526c7a

; 908  : 	D3DXQUATERNION qtRotate;
; 909  : 	D3DXQuaternionRotationYawPitchRoll( &qtRotate, fYawR, 0.0f, 0.0f );

  0014e	0f 57 c0	 xorps	 xmm0, xmm0
  00151	f3 0f 11 04 24	 movss	 DWORD PTR [esp], xmm0
  00156	51		 push	 ecx
  00157	d9 5d b8	 fstp	 DWORD PTR _fYawR$[ebp]
  0015a	51		 push	 ecx
  0015b	f3 0f 11 44 24
	04		 movss	 DWORD PTR [esp+4], xmm0
  00161	f3 0f 10 45 b8	 movss	 xmm0, DWORD PTR _fYawR$[ebp]
  00166	8d 45 90	 lea	 eax, DWORD PTR _qtRotate$[ebp]
  00169	f3 0f 11 04 24	 movss	 DWORD PTR [esp], xmm0
  0016e	50		 push	 eax
  0016f	e8 00 00 00 00	 call	 _D3DXQuaternionRotationYawPitchRoll@16

; 910  : 
; 911  : 	D3DXVECTOR3 vTargetDir = qtRotate * D3DXVECTOR3(0.0f, 0.0f, -FLOAT1);

  00174	b8 01 00 00 00	 mov	 eax, 1
  00179	0f 57 c0	 xorps	 xmm0, xmm0
  0017c	89 45 b8	 mov	 DWORD PTR tv703[ebp], eax
  0017f	db 45 b8	 fild	 DWORD PTR tv703[ebp]
  00182	f3 0f 11 45 d8	 movss	 DWORD PTR $T533286[ebp], xmm0
  00187	f3 0f 11 45 dc	 movss	 DWORD PTR $T533286[ebp+4], xmm0
  0018c	85 c0		 test	 eax, eax
  0018e	79 06		 jns	 SHORT $LN71@ProcessRot
  00190	d8 05 00 00 00
	00		 fadd	 DWORD PTR __real@4f800000
$LN71@ProcessRot:
  00196	8d 45 d8	 lea	 eax, DWORD PTR $T533286[ebp]
  00199	d9 e0		 fchs
  0019b	50		 push	 eax
  0019c	d9 5d e0	 fstp	 DWORD PTR $T533286[ebp+8]
  0019f	8d 45 90	 lea	 eax, DWORD PTR _qtRotate$[ebp]
  001a2	50		 push	 eax
  001a3	8d 45 f0	 lea	 eax, DWORD PTR _vTargetDir$[ebp]
  001a6	50		 push	 eax
  001a7	ff 15 00 00 00
	00		 call	 DWORD PTR __imp_??D@YA?AUD3DXVECTOR3@@ABUD3DXQUATERNION@@ABU0@@Z
  001ad	83 c4 0c	 add	 esp, 12			; 0000000cH

; 912  : 	D3DXVec3Normalize( &vTargetDir, &vTargetDir );

  001b0	8d 45 f0	 lea	 eax, DWORD PTR _vTargetDir$[ebp]
  001b3	50		 push	 eax
  001b4	50		 push	 eax
  001b5	e8 00 00 00 00	 call	 _D3DXVec3Normalize@8

; 913  : 
; 914  : 	float fDotValue = D3DXVec3Dot( &vCurMoveDir, &vTargetDir );

  001ba	d9 45 e8	 fld	 DWORD PTR _vCurMoveDir$[ebp+4]
  001bd	d8 4d f4	 fmul	 DWORD PTR _vTargetDir$[ebp+4]
  001c0	d9 45 e4	 fld	 DWORD PTR _vCurMoveDir$[ebp]
  001c3	d8 4d f0	 fmul	 DWORD PTR _vTargetDir$[ebp]
  001c6	de c1		 faddp	 ST(1), ST(0)
  001c8	d9 45 ec	 fld	 DWORD PTR _vCurMoveDir$[ebp+8]
  001cb	d8 4d f8	 fmul	 DWORD PTR _vTargetDir$[ebp+8]
  001ce	de c1		 faddp	 ST(1), ST(0)
  001d0	d9 5d b0	 fstp	 DWORD PTR _fDotValue$[ebp]

; 915  : 	float fGapAngle = RADtoDEG( acosf(fDotValue) );

  001d3	d9 45 b0	 fld	 DWORD PTR _fDotValue$[ebp]
  001d6	e8 00 00 00 00	 call	 __CIacos
  001db	d9 5d b8	 fstp	 DWORD PTR tv691[ebp]
  001de	d9 45 b8	 fld	 DWORD PTR tv691[ebp]
  001e1	51		 push	 ecx
  001e2	d9 1c 24	 fstp	 DWORD PTR [esp]
  001e5	e8 00 00 00 00	 call	 ??$RADtoDEG@M@@YAMM@Z	; RADtoDEG<float>
  001ea	d9 5d b8	 fstp	 DWORD PTR _fGapAngle$[ebp]
  001ed	59		 pop	 ecx

; 916  : 
; 917  : 	if( fDotValue >= FLOAT1 )

  001ee	b8 01 00 00 00	 mov	 eax, 1
  001f3	d9 45 b0	 fld	 DWORD PTR _fDotValue$[ebp]
  001f6	89 45 8c	 mov	 DWORD PTR tv684[ebp], eax
  001f9	db 45 8c	 fild	 DWORD PTR tv684[ebp]
  001fc	85 c0		 test	 eax, eax
  001fe	79 06		 jns	 SHORT $LN72@ProcessRot
  00200	d8 05 00 00 00
	00		 fadd	 DWORD PTR __real@4f800000
$LN72@ProcessRot:
  00206	d9 c9		 fxch	 ST(1)
  00208	df f1		 fcomip	 ST(1)
  0020a	dd d8		 fstp	 ST(0)
  0020c	72 2c		 jb	 SHORT $LN13@ProcessRot

; 918  : 	{
; 919  : 		m_vCurMoveDir = vTargetDir;

  0020e	8d bb e4 11 00
	00		 lea	 edi, DWORD PTR [ebx+4580]

; 920  : 
; 921  : 		switch( m_SkillLoopType )

  00214	8b 9b e8 10 00
	00		 mov	 ebx, DWORD PTR [ebx+4328]
  0021a	4b		 dec	 ebx
  0021b	8d 75 f0	 lea	 esi, DWORD PTR _vTargetDir$[ebp]
  0021e	a5		 movsd
  0021f	a5		 movsd
  00220	a5		 movsd
  00221	74 0f		 je	 SHORT $LN10@ProcessRot
  00223	4b		 dec	 ebx
  00224	0f 85 ee 01 00
	00		 jne	 $LN68@ProcessRot

; 925  : 			break;
; 926  : 		case SLT_STOP:
; 927  : 			pOwner->SetTargetRotToRotate( qtRotate, true );

  0022a	8d 45 90	 lea	 eax, DWORD PTR _qtRotate$[ebp]

; 928  : 			break;

  0022d	e9 cb 01 00 00	 jmp	 $LN77@ProcessRot
$LN10@ProcessRot:

; 922  : 		{
; 923  : 		case SLT_NORMAL:
; 924  : 			pOwner->SetMoveDirByRotate( qtRotate );

  00232	8d 45 90	 lea	 eax, DWORD PTR _qtRotate$[ebp]

; 929  : 		}
; 930  : 
; 931  : 		return;

  00235	e9 d5 01 00 00	 jmp	 $LN74@ProcessRot
$LN13@ProcessRot:

; 932  : 	}
; 933  : 
; 934  : 	D3DXVECTOR3 vAxis;
; 935  : 	if( fDotValue <= -FLOAT1 )

  0023a	b8 01 00 00 00	 mov	 eax, 1
  0023f	d9 45 b0	 fld	 DWORD PTR _fDotValue$[ebp]
  00242	89 45 8c	 mov	 DWORD PTR tv663[ebp], eax
  00245	db 45 8c	 fild	 DWORD PTR tv663[ebp]
  00248	85 c0		 test	 eax, eax
  0024a	79 06		 jns	 SHORT $LN73@ProcessRot
  0024c	d8 05 00 00 00
	00		 fadd	 DWORD PTR __real@4f800000
$LN73@ProcessRot:
  00252	f3 0f 10 05 00
	00 00 00	 movss	 xmm0, DWORD PTR __mask@@NegFloat@
  0025a	d9 e0		 fchs
  0025c	df f1		 fcomip	 ST(1)
  0025e	dd d8		 fstp	 ST(0)
  00260	72 11		 jb	 SHORT $LN8@ProcessRot

; 936  : 	{
; 937  : 		vAxis = ioMath::UNIT_Y;

  00262	8b 35 00 00 00
	00		 mov	 esi, DWORD PTR __imp_?UNIT_Y@ioMath@@2UD3DXVECTOR3@@A
  00268	8d 7d c0	 lea	 edi, DWORD PTR _vAxis$[ebp]
  0026b	a5		 movsd
  0026c	a5		 movsd
  0026d	a5		 movsd

; 938  : 	}
; 939  : 	else

  0026e	e9 cd 00 00 00	 jmp	 $LN7@ProcessRot
$LN8@ProcessRot:

; 940  : 	{
; 941  : 		D3DXVec3Cross( &vAxis, &vTargetDir, &vCurMoveDir );

  00273	f3 0f 10 55 ec	 movss	 xmm2, DWORD PTR _vCurMoveDir$[ebp+8]
  00278	f3 0f 10 4d f4	 movss	 xmm1, DWORD PTR _vTargetDir$[ebp+4]
  0027d	f3 0f 10 5d f8	 movss	 xmm3, DWORD PTR _vTargetDir$[ebp+8]
  00282	f3 0f 10 65 f0	 movss	 xmm4, DWORD PTR _vTargetDir$[ebp]
  00287	f3 0f 10 6d e4	 movss	 xmm5, DWORD PTR _vCurMoveDir$[ebp]
  0028c	0f 5a d2	 cvtps2pd xmm2, xmm2
  0028f	0f 5a db	 cvtps2pd xmm3, xmm3
  00292	0f 5a c9	 cvtps2pd xmm1, xmm1
  00295	f2 0f 59 ca	 mulsd	 xmm1, xmm2
  00299	f3 0f 10 55 e8	 movss	 xmm2, DWORD PTR _vCurMoveDir$[ebp+4]
  0029e	0f 5a d2	 cvtps2pd xmm2, xmm2
  002a1	f2 0f 59 d3	 mulsd	 xmm2, xmm3
  002a5	f3 0f 10 5d e4	 movss	 xmm3, DWORD PTR _vCurMoveDir$[ebp]
  002aa	f2 0f 5c ca	 subsd	 xmm1, xmm2
  002ae	f3 0f 10 55 f8	 movss	 xmm2, DWORD PTR _vTargetDir$[ebp+8]
  002b3	0f 5a db	 cvtps2pd xmm3, xmm3
  002b6	0f 5a d2	 cvtps2pd xmm2, xmm2
  002b9	f2 0f 59 d3	 mulsd	 xmm2, xmm3
  002bd	f3 0f 10 5d ec	 movss	 xmm3, DWORD PTR _vCurMoveDir$[ebp+8]
  002c2	0f 5a db	 cvtps2pd xmm3, xmm3
  002c5	0f 5a e4	 cvtps2pd xmm4, xmm4
  002c8	f2 0f 59 dc	 mulsd	 xmm3, xmm4
  002cc	f3 0f 10 65 f0	 movss	 xmm4, DWORD PTR _vTargetDir$[ebp]
  002d1	f2 0f 5c d3	 subsd	 xmm2, xmm3
  002d5	f3 0f 10 5d e8	 movss	 xmm3, DWORD PTR _vCurMoveDir$[ebp+4]
  002da	0f 5a db	 cvtps2pd xmm3, xmm3
  002dd	0f 5a e4	 cvtps2pd xmm4, xmm4
  002e0	f2 0f 59 dc	 mulsd	 xmm3, xmm4
  002e4	f3 0f 10 65 f4	 movss	 xmm4, DWORD PTR _vTargetDir$[ebp+4]
  002e9	0f 5a e4	 cvtps2pd xmm4, xmm4
  002ec	0f 5a ed	 cvtps2pd xmm5, xmm5
  002ef	f2 0f 59 e5	 mulsd	 xmm4, xmm5
  002f3	f2 0f 5c dc	 subsd	 xmm3, xmm4
  002f7	f2 0f 5a c9	 cvtsd2ss xmm1, xmm1
  002fb	f3 0f 11 4d d8	 movss	 DWORD PTR _v$539987[ebp], xmm1
  00300	f2 0f 5a d2	 cvtsd2ss xmm2, xmm2
  00304	f3 0f 11 55 dc	 movss	 DWORD PTR _v$539987[ebp+4], xmm2
  00309	f2 0f 5a db	 cvtsd2ss xmm3, xmm3
  0030d	f3 0f 11 5d e0	 movss	 DWORD PTR _v$539987[ebp+8], xmm3
  00312	8d 75 d8	 lea	 esi, DWORD PTR _v$539987[ebp]
  00315	8d 7d c0	 lea	 edi, DWORD PTR _vAxis$[ebp]
  00318	a5		 movsd
  00319	a5		 movsd

; 942  : 		D3DXVec3Normalize( &vAxis, &-vAxis );

  0031a	8d 45 d8	 lea	 eax, DWORD PTR $T533306[ebp]
  0031d	50		 push	 eax
  0031e	a5		 movsd
  0031f	8d 45 c0	 lea	 eax, DWORD PTR _vAxis$[ebp]
  00322	0f 57 c8	 xorps	 xmm1, xmm0
  00325	0f 57 d0	 xorps	 xmm2, xmm0
  00328	0f 57 d8	 xorps	 xmm3, xmm0
  0032b	50		 push	 eax
  0032c	f3 0f 11 4d d8	 movss	 DWORD PTR $T533306[ebp], xmm1
  00331	f3 0f 11 55 dc	 movss	 DWORD PTR $T533306[ebp+4], xmm2
  00336	f3 0f 11 5d e0	 movss	 DWORD PTR $T533306[ebp+8], xmm3
  0033b	e8 00 00 00 00	 call	 _D3DXVec3Normalize@8
$LN7@ProcessRot:

; 943  : 	}
; 944  : 
; 945  : 	D3DXQUATERNION qtNewRot;
; 946  : 	if( fGapAngle < fRotateAngle )

  00340	f3 0f 10 45 b8	 movss	 xmm0, DWORD PTR _fGapAngle$[ebp]
  00345	f3 0f 10 4d bc	 movss	 xmm1, DWORD PTR _fRotateAngle$[ebp]
  0034a	0f 5a c0	 cvtps2pd xmm0, xmm0
  0034d	0f 5a c9	 cvtps2pd xmm1, xmm1
  00350	66 0f 2f c8	 comisd	 xmm1, xmm0

; 947  : 		D3DXQuaternionRotationAxis( &qtNewRot, &vAxis, DEGtoRAD(fGapAngle) );

  00354	51		 push	 ecx
  00355	8d 45 c0	 lea	 eax, DWORD PTR _vAxis$[ebp]
  00358	76 07		 jbe	 SHORT $LN6@ProcessRot
  0035a	f3 0f 10 45 b8	 movss	 xmm0, DWORD PTR _fGapAngle$[ebp]

; 948  : 	else

  0035f	eb 05		 jmp	 SHORT $LN75@ProcessRot
$LN6@ProcessRot:

; 949  : 		D3DXQuaternionRotationAxis( &qtNewRot, &vAxis, DEGtoRAD(fRotateAngle) );

  00361	f3 0f 10 45 bc	 movss	 xmm0, DWORD PTR _fRotateAngle$[ebp]
$LN75@ProcessRot:
  00366	0f 5a c0	 cvtps2pd xmm0, xmm0
  00369	f2 0f 59 05 00
	00 00 00	 mulsd	 xmm0, QWORD PTR __real@3f91df46a2526c7a
  00371	f2 0f 5a c0	 cvtsd2ss xmm0, xmm0
  00375	f3 0f 11 04 24	 movss	 DWORD PTR [esp], xmm0
  0037a	50		 push	 eax
  0037b	8d 45 a0	 lea	 eax, DWORD PTR _qtNewRot$[ebp]
  0037e	50		 push	 eax
  0037f	e8 00 00 00 00	 call	 _D3DXQuaternionRotationAxis@12

; 950  : 
; 951  : 	D3DXVECTOR3 vNewDir = qtNewRot * vCurMoveDir;

  00384	8d 45 e4	 lea	 eax, DWORD PTR _vCurMoveDir$[ebp]
  00387	50		 push	 eax
  00388	8d 45 a0	 lea	 eax, DWORD PTR _qtNewRot$[ebp]
  0038b	50		 push	 eax
  0038c	8d 45 cc	 lea	 eax, DWORD PTR _vNewDir$[ebp]
  0038f	50		 push	 eax
  00390	ff 15 00 00 00
	00		 call	 DWORD PTR __imp_??D@YA?AUD3DXVECTOR3@@ABUD3DXQUATERNION@@ABU0@@Z
  00396	83 c4 0c	 add	 esp, 12			; 0000000cH

; 952  : 	D3DXVec3Normalize( &vNewDir, &vNewDir );

  00399	8d 45 cc	 lea	 eax, DWORD PTR _vNewDir$[ebp]
  0039c	50		 push	 eax
  0039d	50		 push	 eax
  0039e	e8 00 00 00 00	 call	 _D3DXVec3Normalize@8

; 953  : 
; 954  : 	m_vCurMoveDir = vNewDir;
; 955  : 
; 956  : 	ioMath::CalcDirectionQuaternion( qtNewRot, -vNewDir );

  003a3	f3 0f 10 4d cc	 movss	 xmm1, DWORD PTR _vNewDir$[ebp]
  003a8	8d 75 cc	 lea	 esi, DWORD PTR _vNewDir$[ebp]
  003ab	8d bb e4 11 00
	00		 lea	 edi, DWORD PTR [ebx+4580]
  003b1	a5		 movsd
  003b2	a5		 movsd
  003b3	a5		 movsd
  003b4	f3 0f 10 05 00
	00 00 00	 movss	 xmm0, DWORD PTR __mask@@NegFloat@
  003bc	0f 57 c8	 xorps	 xmm1, xmm0
  003bf	f3 0f 11 4d d8	 movss	 DWORD PTR $T533312[ebp], xmm1
  003c4	f3 0f 10 4d d0	 movss	 xmm1, DWORD PTR _vNewDir$[ebp+4]
  003c9	0f 57 c8	 xorps	 xmm1, xmm0
  003cc	8d 45 d8	 lea	 eax, DWORD PTR $T533312[ebp]
  003cf	50		 push	 eax
  003d0	f3 0f 11 4d dc	 movss	 DWORD PTR $T533312[ebp+4], xmm1
  003d5	f3 0f 10 4d d4	 movss	 xmm1, DWORD PTR _vNewDir$[ebp+8]
  003da	8d 45 a0	 lea	 eax, DWORD PTR _qtNewRot$[ebp]
  003dd	0f 57 c8	 xorps	 xmm1, xmm0
  003e0	50		 push	 eax
  003e1	f3 0f 11 4d e0	 movss	 DWORD PTR $T533312[ebp+8], xmm1
  003e6	ff 15 00 00 00
	00		 call	 DWORD PTR __imp_?CalcDirectionQuaternion@ioMath@@SAXAAUD3DXQUATERNION@@ABUD3DXVECTOR3@@@Z

; 957  : 
; 958  : 	switch( m_SkillLoopType )

  003ec	8b 9b e8 10 00
	00		 mov	 ebx, DWORD PTR [ebx+4328]
  003f2	4b		 dec	 ebx
  003f3	59		 pop	 ecx
  003f4	59		 pop	 ecx
  003f5	74 15		 je	 SHORT $LN2@ProcessRot
  003f7	4b		 dec	 ebx
  003f8	75 1e		 jne	 SHORT $LN68@ProcessRot

; 962  : 		break;
; 963  : 	case SLT_STOP:
; 964  : 		pOwner->SetTargetRotToRotate( qtNewRot, true );

  003fa	8d 45 a0	 lea	 eax, DWORD PTR _qtNewRot$[ebp]
$LN77@ProcessRot:
  003fd	8b 4d b4	 mov	 ecx, DWORD PTR _pOwner$GSCopy$[ebp]
  00400	6a 00		 push	 0
  00402	6a 01		 push	 1
  00404	50		 push	 eax
  00405	e8 00 00 00 00	 call	 ?SetTargetRotToRotate@ioBaseChar@@QAEXABUD3DXQUATERNION@@_N1@Z ; ioBaseChar::SetTargetRotToRotate

; 965  : 		break;

  0040a	eb 0c		 jmp	 SHORT $LN68@ProcessRot
$LN2@ProcessRot:

; 959  : 	{
; 960  : 	case SLT_NORMAL:
; 961  : 		pOwner->SetMoveDirByRotate( qtNewRot );

  0040c	8d 45 a0	 lea	 eax, DWORD PTR _qtNewRot$[ebp]
$LN74@ProcessRot:
  0040f	8b 4d b4	 mov	 ecx, DWORD PTR _pOwner$GSCopy$[ebp]
  00412	50		 push	 eax
  00413	e8 00 00 00 00	 call	 ?SetMoveDirByRotate@ioBaseChar@@QAEXABUD3DXQUATERNION@@@Z ; ioBaseChar::SetMoveDirByRotate
$LN68@ProcessRot:
  00418	5e		 pop	 esi
$LN67@ProcessRot:
  00419	5f		 pop	 edi
$LN3@ProcessRot:

; 966  : 	}	
; 967  : }

  0041a	8b 4d fc	 mov	 ecx, DWORD PTR __$ArrayPad$[ebp]
  0041d	33 cd		 xor	 ecx, ebp
  0041f	5b		 pop	 ebx
  00420	e8 00 00 00 00	 call	 @__security_check_cookie@4
  00425	c9		 leave
  00426	c2 04 00	 ret	 4
?ProcessRotate@ioGrapplingSwing2Skill@@IAEXPAVioBaseChar@@@Z ENDP ; ioGrapplingSwing2Skill::ProcessRotate
_TEXT	ENDS
PUBLIC	?SetLoopState@ioGrapplingSwing2Skill@@IAEXPAVioBaseChar@@@Z ; ioGrapplingSwing2Skill::SetLoopState
EXTRN	__imp_?Clear@ioHashString@@QAEXXZ:PROC
; Function compile flags: /Ogsp
;	COMDAT ?SetLoopState@ioGrapplingSwing2Skill@@IAEXPAVioBaseChar@@@Z
_TEXT	SEGMENT
_iCurSkillAniID$ = -12					; size = 4
tv219 = -8						; size = 4
tv211 = -8						; size = 4
tv206 = -8						; size = 4
tv198 = -8						; size = 4
tv195 = -8						; size = 4
tv193 = -8						; size = 4
tv167 = -8						; size = 4
_value$540053 = -8					; size = 4
_value$540057 = -8					; size = 4
_fAniRate$ = -4						; size = 4
_pChar$ = 8						; size = 4
?SetLoopState@ioGrapplingSwing2Skill@@IAEXPAVioBaseChar@@@Z PROC ; ioGrapplingSwing2Skill::SetLoopState, COMDAT
; _this$ = ecx

; 975  : {

  00000	55		 push	 ebp
  00001	8b ec		 mov	 ebp, esp
  00003	83 ec 0c	 sub	 esp, 12			; 0000000cH
  00006	53		 push	 ebx

; 976  : 	if( !pChar )	return;

  00007	8b 5d 08	 mov	 ebx, DWORD PTR _pChar$[ebp]
  0000a	56		 push	 esi
  0000b	8b f1		 mov	 esi, ecx
  0000d	85 db		 test	 ebx, ebx
  0000f	0f 84 5a 01 00
	00		 je	 $LN4@SetLoopSta

; 977  : 
; 978  : 	m_SkillState = SS_LOOP;

  00015	57		 push	 edi
  00016	33 ff		 xor	 edi, edi
  00018	47		 inc	 edi
  00019	89 be e4 10 00
	00		 mov	 DWORD PTR [esi+4324], edi

; 979  : 	DWORD dwCurTime = FRAMEGETTIME();

  0001f	ff 15 00 00 00
	00		 call	 DWORD PTR __imp_?GetSingleton@ioFrameTimer@@SAAAV1@XZ
  00025	8b c8		 mov	 ecx, eax
  00027	ff 15 00 00 00
	00		 call	 DWORD PTR __imp_?GetLoopSec@ioFrameTimer@@QBEKXZ

; 980  : 	m_dwLoopStartTime = dwCurTime;

  0002d	89 86 a4 12 00
	00		 mov	 DWORD PTR [esi+4772], eax

; 981  : 
; 982  : 	ioEntityGroup *pGrp = pChar->GetGroup();

  00033	8b 5b 04	 mov	 ebx, DWORD PTR [ebx+4]

; 983  : 
; 984  : 	int iCurSkillAniID = pGrp->GetAnimationIdx( m_LoopDelayAnimation );

  00036	8d 86 f4 11 00
	00		 lea	 eax, DWORD PTR [esi+4596]
  0003c	50		 push	 eax
  0003d	8b cb		 mov	 ecx, ebx
  0003f	ff 15 00 00 00
	00		 call	 DWORD PTR __imp_?GetAnimationIdx@ioEntityGroup@@QAEHABVioHashString@@@Z
  00045	89 45 f4	 mov	 DWORD PTR _iCurSkillAniID$[ebp], eax

; 985  : 	if( iCurSkillAniID == -1 )	return;

  00048	83 f8 ff	 cmp	 eax, -1
  0004b	0f 84 1d 01 00
	00		 je	 $LN27@SetLoopSta

; 986  : 
; 987  : 	float fAniRate = FLOAT1;

  00051	b8 01 00 00 00	 mov	 eax, 1
  00056	89 45 f8	 mov	 DWORD PTR tv219[ebp], eax
  00059	db 45 f8	 fild	 DWORD PTR tv219[ebp]
  0005c	85 c0		 test	 eax, eax
  0005e	79 06		 jns	 SHORT $LN28@SetLoopSta
  00060	d8 05 00 00 00
	00		 fadd	 DWORD PTR __real@4f800000
$LN28@SetLoopSta:

; 988  : 	if( m_fLoopDelayAnimationRate > 0.0f )

  00066	8d 45 f8	 lea	 eax, DWORD PTR _value$540053[ebp]
  00069	d9 5d fc	 fstp	 DWORD PTR _fAniRate$[ebp]
  0006c	8d 8e 04 12 00
	00		 lea	 ecx, DWORD PTR [esi+4612]
  00072	50		 push	 eax
  00073	e8 00 00 00 00	 call	 ?DecryptValueToPool@?$CEncrypt@M@@QAEXPAM@Z ; CEncrypt<float>::DecryptValueToPool
  00078	f3 0f 10 45 f8	 movss	 xmm0, DWORD PTR _value$540053[ebp]
  0007d	0f 2f 05 00 00
	00 00		 comiss	 xmm0, DWORD PTR __real@00000000
  00084	76 19		 jbe	 SHORT $LN1@SetLoopSta

; 989  : 		fAniRate = m_fLoopDelayAnimationRate;

  00086	8d 45 f8	 lea	 eax, DWORD PTR _value$540057[ebp]
  00089	50		 push	 eax
  0008a	8d 8e 04 12 00
	00		 lea	 ecx, DWORD PTR [esi+4612]
  00090	e8 00 00 00 00	 call	 ?DecryptValueToPool@?$CEncrypt@M@@QAEXPAM@Z ; CEncrypt<float>::DecryptValueToPool
  00095	f3 0f 10 45 f8	 movss	 xmm0, DWORD PTR _value$540057[ebp]
  0009a	f3 0f 11 45 fc	 movss	 DWORD PTR _fAniRate$[ebp], xmm0
$LN1@SetLoopSta:

; 990  : 
; 991  : 	pGrp->ClearAllLoopAni( FLOAT100, true );

  0009f	b8 64 00 00 00	 mov	 eax, 100		; 00000064H
  000a4	89 45 f8	 mov	 DWORD PTR tv211[ebp], eax
  000a7	db 45 f8	 fild	 DWORD PTR tv211[ebp]
  000aa	57		 push	 edi
  000ab	85 c0		 test	 eax, eax
  000ad	79 06		 jns	 SHORT $LN29@SetLoopSta
  000af	d8 05 00 00 00
	00		 fadd	 DWORD PTR __real@4f800000
$LN29@SetLoopSta:
  000b5	51		 push	 ecx
  000b6	8b cb		 mov	 ecx, ebx
  000b8	d9 1c 24	 fstp	 DWORD PTR [esp]
  000bb	ff 15 00 00 00
	00		 call	 DWORD PTR __imp_?ClearAllLoopAni@ioEntityGroup@@QAEXM_N@Z

; 992  : 	pGrp->ClearAllActionAni( FLOAT100, true );

  000c1	b8 64 00 00 00	 mov	 eax, 100		; 00000064H
  000c6	89 45 f8	 mov	 DWORD PTR tv206[ebp], eax
  000c9	db 45 f8	 fild	 DWORD PTR tv206[ebp]
  000cc	57		 push	 edi
  000cd	85 c0		 test	 eax, eax
  000cf	79 06		 jns	 SHORT $LN30@SetLoopSta
  000d1	d8 05 00 00 00
	00		 fadd	 DWORD PTR __real@4f800000
$LN30@SetLoopSta:
  000d7	51		 push	 ecx
  000d8	8b cb		 mov	 ecx, ebx
  000da	d9 1c 24	 fstp	 DWORD PTR [esp]
  000dd	ff 15 00 00 00
	00		 call	 DWORD PTR __imp_?ClearAllActionAni@ioEntityGroup@@QAEXM_N@Z

; 993  : 	pGrp->SetLoopAni( iCurSkillAniID, FLOAT100, FLOAT1, FLOAT1/fAniRate );

  000e3	b8 01 00 00 00	 mov	 eax, 1
  000e8	8b c8		 mov	 ecx, eax
  000ea	b8 01 00 00 00	 mov	 eax, 1
  000ef	8b d0		 mov	 edx, eax
  000f1	b8 64 00 00 00	 mov	 eax, 100		; 00000064H
  000f6	0f 57 c0	 xorps	 xmm0, xmm0
  000f9	83 ec 10	 sub	 esp, 16			; 00000010H
  000fc	89 4d f8	 mov	 DWORD PTR tv198[ebp], ecx
  000ff	db 45 f8	 fild	 DWORD PTR tv198[ebp]
  00102	f3 0f 11 44 24
	0c		 movss	 DWORD PTR [esp+12], xmm0
  00108	85 c9		 test	 ecx, ecx
  0010a	79 06		 jns	 SHORT $LN31@SetLoopSta
  0010c	d8 05 00 00 00
	00		 fadd	 DWORD PTR __real@4f800000
$LN31@SetLoopSta:
  00112	d8 75 fc	 fdiv	 DWORD PTR _fAniRate$[ebp]
  00115	d9 5d f8	 fstp	 DWORD PTR tv195[ebp]
  00118	d9 45 f8	 fld	 DWORD PTR tv195[ebp]
  0011b	d9 5c 24 08	 fstp	 DWORD PTR [esp+8]
  0011f	89 55 f8	 mov	 DWORD PTR tv193[ebp], edx
  00122	db 45 f8	 fild	 DWORD PTR tv193[ebp]
  00125	85 d2		 test	 edx, edx
  00127	79 06		 jns	 SHORT $LN32@SetLoopSta
  00129	d8 05 00 00 00
	00		 fadd	 DWORD PTR __real@4f800000
$LN32@SetLoopSta:
  0012f	d9 5c 24 04	 fstp	 DWORD PTR [esp+4]
  00133	89 45 f8	 mov	 DWORD PTR tv167[ebp], eax
  00136	db 45 f8	 fild	 DWORD PTR tv167[ebp]
  00139	85 c0		 test	 eax, eax
  0013b	79 06		 jns	 SHORT $LN33@SetLoopSta
  0013d	d8 05 00 00 00
	00		 fadd	 DWORD PTR __real@4f800000
$LN33@SetLoopSta:
  00143	d9 1c 24	 fstp	 DWORD PTR [esp]
  00146	ff 75 f4	 push	 DWORD PTR _iCurSkillAniID$[ebp]
  00149	8b cb		 mov	 ecx, ebx
  0014b	ff 15 00 00 00
	00		 call	 DWORD PTR __imp_?SetLoopAni@ioEntityGroup@@QAE_NHMMMM@Z

; 994  : 
; 995  : 	pChar->SetSkillMoveEnable( true, true );

  00151	8b 4d 08	 mov	 ecx, DWORD PTR _pChar$[ebp]
  00154	57		 push	 edi
  00155	57		 push	 edi
  00156	e8 00 00 00 00	 call	 ?SetSkillMoveEnable@ioBaseChar@@QAEX_N0@Z ; ioBaseChar::SetSkillMoveEnable

; 996  : 	m_GrapplingTargetName.Clear();

  0015b	8d 8e 68 11 00
	00		 lea	 ecx, DWORD PTR [esi+4456]
  00161	ff 15 00 00 00
	00		 call	 DWORD PTR __imp_?Clear@ioHashString@@QAEXXZ

; 997  : 	m_bSetMoveAni = false;

  00167	c6 86 a8 12 00
	00 00		 mov	 BYTE PTR [esi+4776], 0
$LN27@SetLoopSta:
  0016e	5f		 pop	 edi
$LN4@SetLoopSta:
  0016f	5e		 pop	 esi
  00170	5b		 pop	 ebx

; 998  : }

  00171	c9		 leave
  00172	c2 04 00	 ret	 4
?SetLoopState@ioGrapplingSwing2Skill@@IAEXPAVioBaseChar@@@Z ENDP ; ioGrapplingSwing2Skill::SetLoopState
_TEXT	ENDS
PUBLIC	??0?$CEncrypt@K@@QAE@ABV0@@Z			; CEncrypt<unsigned long>::CEncrypt<unsigned long>
;	COMDAT xdata$x
; File d:\lost saga for developer\youtube\tutorial\source\src\lsclient\encryptvalue.h
xdata$x	SEGMENT
__unwindtable$??0?$CEncrypt@K@@QAE@ABV0@@Z DD 0ffffffffH
	DD	FLAT:__unwindfunclet$??0?$CEncrypt@K@@QAE@ABV0@@Z$0
__ehfuncinfo$??0?$CEncrypt@K@@QAE@ABV0@@Z DD 019930522H
	DD	01H
	DD	FLAT:__unwindtable$??0?$CEncrypt@K@@QAE@ABV0@@Z
	DD	2 DUP(00H)
	DD	2 DUP(00H)
	DD	00H
	DD	01H
; Function compile flags: /Ogsp
xdata$x	ENDS
;	COMDAT ??0?$CEncrypt@K@@QAE@ABV0@@Z
_TEXT	SEGMENT
_this$ = -16						; size = 4
__$EHRec$ = -12						; size = 12
_value$540097 = 8					; size = 4
_value$540092 = 8					; size = 4
_inValue$ = 8						; size = 4
??0?$CEncrypt@K@@QAE@ABV0@@Z PROC			; CEncrypt<unsigned long>::CEncrypt<unsigned long>, COMDAT
; _this$ = ecx

; 120  : 	CEncrypt( const CEncrypt<type> &inValue )   //     

  00000	6a 04		 push	 4
  00002	b8 00 00 00 00	 mov	 eax, __ehhandler$??0?$CEncrypt@K@@QAE@ABV0@@Z
  00007	e8 00 00 00 00	 call	 __EH_prolog3
  0000c	8b f1		 mov	 esi, ecx
  0000e	89 75 f0	 mov	 DWORD PTR _this$[ebp], esi
  00011	8d 4e 0c	 lea	 ecx, DWORD PTR [esi+12]
  00014	c7 06 00 00 00
	00		 mov	 DWORD PTR [esi], OFFSET ??_7?$CEncrypt@K@@6B@
  0001a	e8 00 00 00 00	 call	 ??0ccddaabb@@QAE@XZ	; ccddaabb::ccddaabb
  0001f	83 65 fc 00	 and	 DWORD PTR __$EHRec$[ebp+8], 0

; 121  : 	{
; 122  : 		Init();

  00023	8b ce		 mov	 ecx, esi
  00025	e8 00 00 00 00	 call	 ?Init@?$CEncrypt@K@@AAEXXZ ; CEncrypt<unsigned long>::Init

; 123  : 		*this = inValue;

  0002a	8b 4d 08	 mov	 ecx, DWORD PTR _inValue$[ebp]
  0002d	8d 45 08	 lea	 eax, DWORD PTR _value$540092[ebp]
  00030	50		 push	 eax
  00031	e8 00 00 00 00	 call	 ?DecryptValueToPool@?$CEncrypt@K@@QAEXPAK@Z ; CEncrypt<unsigned long>::DecryptValueToPool
  00036	8b 45 08	 mov	 eax, DWORD PTR _value$540092[ebp]
  00039	89 45 08	 mov	 DWORD PTR _value$540097[ebp], eax
  0003c	8d 45 08	 lea	 eax, DWORD PTR _value$540097[ebp]
  0003f	50		 push	 eax
  00040	8b ce		 mov	 ecx, esi
  00042	e8 00 00 00 00	 call	 ?EncryptValueToPool@?$CEncrypt@K@@AAEXPBD@Z ; CEncrypt<unsigned long>::EncryptValueToPool

; 124  : 	}

  00047	8b c6		 mov	 eax, esi
  00049	e8 00 00 00 00	 call	 __EH_epilog3
  0004e	c2 04 00	 ret	 4
_TEXT	ENDS
;	COMDAT text$x
text$x	SEGMENT
__unwindfunclet$??0?$CEncrypt@K@@QAE@ABV0@@Z$0:
  00000	8b 4d f0	 mov	 ecx, DWORD PTR _this$[ebp]
  00003	83 c1 0c	 add	 ecx, 12			; 0000000cH
  00006	e9 00 00 00 00	 jmp	 ??1ccddaabb@@UAE@XZ	; ccddaabb::~ccddaabb
__ehhandler$??0?$CEncrypt@K@@QAE@ABV0@@Z:
  0000b	8b 54 24 08	 mov	 edx, DWORD PTR [esp+8]
  0000f	8d 42 0c	 lea	 eax, DWORD PTR [edx+12]
  00012	8b 4a ec	 mov	 ecx, DWORD PTR [edx-20]
  00015	33 c8		 xor	 ecx, eax
  00017	e8 00 00 00 00	 call	 @__security_check_cookie@4
  0001c	b8 00 00 00 00	 mov	 eax, OFFSET __ehfuncinfo$??0?$CEncrypt@K@@QAE@ABV0@@Z
  00021	e9 00 00 00 00	 jmp	 ___CxxFrameHandler3
text$x	ENDS
??0?$CEncrypt@K@@QAE@ABV0@@Z ENDP			; CEncrypt<unsigned long>::CEncrypt<unsigned long>
PUBLIC	??0?$CEncrypt@_N@@QAE@ABV0@@Z			; CEncrypt<bool>::CEncrypt<bool>
;	COMDAT xdata$x
xdata$x	SEGMENT
__unwindtable$??0?$CEncrypt@_N@@QAE@ABV0@@Z DD 0ffffffffH
	DD	FLAT:__unwindfunclet$??0?$CEncrypt@_N@@QAE@ABV0@@Z$0
__ehfuncinfo$??0?$CEncrypt@_N@@QAE@ABV0@@Z DD 019930522H
	DD	01H
	DD	FLAT:__unwindtable$??0?$CEncrypt@_N@@QAE@ABV0@@Z
	DD	2 DUP(00H)
	DD	2 DUP(00H)
	DD	00H
	DD	01H
; Function compile flags: /Ogsp
xdata$x	ENDS
;	COMDAT ??0?$CEncrypt@_N@@QAE@ABV0@@Z
_TEXT	SEGMENT
_this$ = -16						; size = 4
__$EHRec$ = -12						; size = 12
_inValue$ = 8						; size = 4
_value$540116 = 11					; size = 1
_value$540111 = 11					; size = 1
??0?$CEncrypt@_N@@QAE@ABV0@@Z PROC			; CEncrypt<bool>::CEncrypt<bool>, COMDAT
; _this$ = ecx

; 120  : 	CEncrypt( const CEncrypt<type> &inValue )   //     

  00000	6a 04		 push	 4
  00002	b8 00 00 00 00	 mov	 eax, __ehhandler$??0?$CEncrypt@_N@@QAE@ABV0@@Z
  00007	e8 00 00 00 00	 call	 __EH_prolog3
  0000c	8b f1		 mov	 esi, ecx
  0000e	89 75 f0	 mov	 DWORD PTR _this$[ebp], esi
  00011	8d 4e 0c	 lea	 ecx, DWORD PTR [esi+12]
  00014	c7 06 00 00 00
	00		 mov	 DWORD PTR [esi], OFFSET ??_7?$CEncrypt@_N@@6B@
  0001a	e8 00 00 00 00	 call	 ??0ccddaabb@@QAE@XZ	; ccddaabb::ccddaabb
  0001f	83 65 fc 00	 and	 DWORD PTR __$EHRec$[ebp+8], 0

; 121  : 	{
; 122  : 		Init();

  00023	8b ce		 mov	 ecx, esi
  00025	e8 00 00 00 00	 call	 ?Init@?$CEncrypt@_N@@AAEXXZ ; CEncrypt<bool>::Init

; 123  : 		*this = inValue;

  0002a	8b 4d 08	 mov	 ecx, DWORD PTR _inValue$[ebp]
  0002d	8d 45 0b	 lea	 eax, DWORD PTR _value$540111[ebp]
  00030	50		 push	 eax
  00031	e8 00 00 00 00	 call	 ?DecryptValueToPool@?$CEncrypt@_N@@QAEXPA_N@Z ; CEncrypt<bool>::DecryptValueToPool
  00036	8a 45 0b	 mov	 al, BYTE PTR _value$540111[ebp]
  00039	88 45 0b	 mov	 BYTE PTR _value$540116[ebp], al
  0003c	8d 45 0b	 lea	 eax, DWORD PTR _value$540116[ebp]
  0003f	50		 push	 eax
  00040	8b ce		 mov	 ecx, esi
  00042	e8 00 00 00 00	 call	 ?EncryptValueToPool@?$CEncrypt@_N@@AAEXPBD@Z ; CEncrypt<bool>::EncryptValueToPool

; 124  : 	}

  00047	8b c6		 mov	 eax, esi
  00049	e8 00 00 00 00	 call	 __EH_epilog3
  0004e	c2 04 00	 ret	 4
_TEXT	ENDS
;	COMDAT text$x
text$x	SEGMENT
__unwindfunclet$??0?$CEncrypt@_N@@QAE@ABV0@@Z$0:
  00000	8b 4d f0	 mov	 ecx, DWORD PTR _this$[ebp]
  00003	83 c1 0c	 add	 ecx, 12			; 0000000cH
  00006	e9 00 00 00 00	 jmp	 ??1ccddaabb@@UAE@XZ	; ccddaabb::~ccddaabb
__ehhandler$??0?$CEncrypt@_N@@QAE@ABV0@@Z:
  0000b	8b 54 24 08	 mov	 edx, DWORD PTR [esp+8]
  0000f	8d 42 0c	 lea	 eax, DWORD PTR [edx+12]
  00012	8b 4a ec	 mov	 ecx, DWORD PTR [edx-20]
  00015	33 c8		 xor	 ecx, eax
  00017	e8 00 00 00 00	 call	 @__security_check_cookie@4
  0001c	b8 00 00 00 00	 mov	 eax, OFFSET __ehfuncinfo$??0?$CEncrypt@_N@@QAE@ABV0@@Z
  00021	e9 00 00 00 00	 jmp	 ___CxxFrameHandler3
text$x	ENDS
??0?$CEncrypt@_N@@QAE@ABV0@@Z ENDP			; CEncrypt<bool>::CEncrypt<bool>
PUBLIC	?_Grow_to@?$vector@VioHashString@@V?$allocator@VioHashString@@@std@@@std@@IBEII@Z ; std::vector<ioHashString,std::allocator<ioHashString> >::_Grow_to
; Function compile flags: /Ogsp
; File c:\program files (x86)\microsoft visual studio 10.0\vc\include\vector
;	COMDAT ?_Grow_to@?$vector@VioHashString@@V?$allocator@VioHashString@@@std@@@std@@IBEII@Z
_TEXT	SEGMENT
__Count$ = 8						; size = 4
?_Grow_to@?$vector@VioHashString@@V?$allocator@VioHashString@@@std@@@std@@IBEII@Z PROC ; std::vector<ioHashString,std::allocator<ioHashString> >::_Grow_to, COMDAT
; _this$ = ecx

; 1274 : 		{	// grow by 50% or at least to _Count

  00000	55		 push	 ebp
  00001	8b ec		 mov	 ebp, esp

; 1275 : 		size_type _Capacity = capacity();

  00003	8b 41 08	 mov	 eax, DWORD PTR [ecx+8]
  00006	2b 01		 sub	 eax, DWORD PTR [ecx]

; 1276 : 
; 1277 : 		_Capacity = max_size() - _Capacity / 2 < _Capacity
; 1278 : 			? 0 : _Capacity + _Capacity / 2;	// try to grow by 50%

  00008	ba ff ff ff 0f	 mov	 edx, 268435455		; 0fffffffH
  0000d	c1 f8 04	 sar	 eax, 4
  00010	8b c8		 mov	 ecx, eax
  00012	d1 e9		 shr	 ecx, 1
  00014	2b d1		 sub	 edx, ecx
  00016	3b d0		 cmp	 edx, eax
  00018	73 04		 jae	 SHORT $LN4@Grow_to
  0001a	33 c0		 xor	 eax, eax
  0001c	eb 02		 jmp	 SHORT $LN5@Grow_to
$LN4@Grow_to:
  0001e	03 c1		 add	 eax, ecx
$LN5@Grow_to:

; 1279 : 		if (_Capacity < _Count)

  00020	3b 45 08	 cmp	 eax, DWORD PTR __Count$[ebp]

; 1280 : 			_Capacity = _Count;

  00023	0f 42 45 08	 cmovb	 eax, DWORD PTR __Count$[ebp]

; 1281 : 		return (_Capacity);
; 1282 : 		}

  00027	5d		 pop	 ebp
  00028	c2 04 00	 ret	 4
?_Grow_to@?$vector@VioHashString@@V?$allocator@VioHashString@@@std@@@std@@IBEII@Z ENDP ; std::vector<ioHashString,std::allocator<ioHashString> >::_Grow_to
_TEXT	ENDS
PUBLIC	??$_Cons_val@V?$allocator@VioHashString@@@std@@VioHashString@@AAV3@@std@@YAXAAV?$allocator@VioHashString@@@0@PAVioHashString@@AAV2@@Z ; std::_Cons_val<std::allocator<ioHashString>,ioHashString,ioHashString &>
; Function compile flags: /Ogsp
; File c:\program files (x86)\microsoft visual studio 10.0\vc\include\xmemory
;	COMDAT ??$_Cons_val@V?$allocator@VioHashString@@@std@@VioHashString@@AAV3@@std@@YAXAAV?$allocator@VioHashString@@@0@PAVioHashString@@AAV2@@Z
_TEXT	SEGMENT
__Alval$ = 8						; size = 4
__Pdest$ = 12						; size = 4
__Src$ = 16						; size = 4
??$_Cons_val@V?$allocator@VioHashString@@@std@@VioHashString@@AAV3@@std@@YAXAAV?$allocator@VioHashString@@@0@PAVioHashString@@AAV2@@Z PROC ; std::_Cons_val<std::allocator<ioHashString>,ioHashString,ioHashString &>, COMDAT

; 279  : 	{	// construct using allocator

  00000	55		 push	 ebp
  00001	8b ec		 mov	 ebp, esp

; 280  : 	_Alval.construct(_Pdest, _STD forward<_Ty2>(_Src));

  00003	ff 75 10	 push	 DWORD PTR __Src$[ebp]
  00006	8b 4d 08	 mov	 ecx, DWORD PTR __Alval$[ebp]
  00009	ff 75 0c	 push	 DWORD PTR __Pdest$[ebp]
  0000c	e8 00 00 00 00	 call	 ??$construct@AAVioHashString@@@?$allocator@VioHashString@@@std@@QAEXPAVioHashString@@AAV2@@Z ; std::allocator<ioHashString>::construct<ioHashString &>

; 281  : 	}

  00011	5d		 pop	 ebp
  00012	c3		 ret	 0
??$_Cons_val@V?$allocator@VioHashString@@@std@@VioHashString@@AAV3@@std@@YAXAAV?$allocator@VioHashString@@@0@PAVioHashString@@AAV2@@Z ENDP ; std::_Cons_val<std::allocator<ioHashString>,ioHashString,ioHashString &>
_TEXT	ENDS
PUBLIC	??$_Cons_val@V?$allocator@VioHashString@@@std@@VioHashString@@V3@@std@@YAXAAV?$allocator@VioHashString@@@0@PAVioHashString@@$$QAV2@@Z ; std::_Cons_val<std::allocator<ioHashString>,ioHashString,ioHashString>
; Function compile flags: /Ogsp
;	COMDAT ??$_Cons_val@V?$allocator@VioHashString@@@std@@VioHashString@@V3@@std@@YAXAAV?$allocator@VioHashString@@@0@PAVioHashString@@$$QAV2@@Z
_TEXT	SEGMENT
__Alval$ = 8						; size = 4
__Pdest$ = 12						; size = 4
__Src$ = 16						; size = 4
??$_Cons_val@V?$allocator@VioHashString@@@std@@VioHashString@@V3@@std@@YAXAAV?$allocator@VioHashString@@@0@PAVioHashString@@$$QAV2@@Z PROC ; std::_Cons_val<std::allocator<ioHashString>,ioHashString,ioHashString>, COMDAT

; 279  : 	{	// construct using allocator

  00000	55		 push	 ebp
  00001	8b ec		 mov	 ebp, esp

; 280  : 	_Alval.construct(_Pdest, _STD forward<_Ty2>(_Src));

  00003	ff 75 10	 push	 DWORD PTR __Src$[ebp]
  00006	8b 4d 08	 mov	 ecx, DWORD PTR __Alval$[ebp]
  00009	ff 75 0c	 push	 DWORD PTR __Pdest$[ebp]
  0000c	e8 00 00 00 00	 call	 ?construct@?$allocator@VioHashString@@@std@@QAEXPAVioHashString@@$$QAV3@@Z ; std::allocator<ioHashString>::construct

; 281  : 	}

  00011	5d		 pop	 ebp
  00012	c3		 ret	 0
??$_Cons_val@V?$allocator@VioHashString@@@std@@VioHashString@@V3@@std@@YAXAAV?$allocator@VioHashString@@@0@PAVioHashString@@$$QAV2@@Z ENDP ; std::_Cons_val<std::allocator<ioHashString>,ioHashString,ioHashString>
_TEXT	ENDS
PUBLIC	?GetTeam@ioPlayEntity@@QBE?AW4TeamType@@XZ	; ioPlayEntity::GetTeam
; Function compile flags: /Ogsp
; File d:\lost saga for developer\youtube\tutorial\source\src\lsclient\ioplayentity.h
;	COMDAT ?GetTeam@ioPlayEntity@@QBE?AW4TeamType@@XZ
_TEXT	SEGMENT
_value$540162 = -4					; size = 4
?GetTeam@ioPlayEntity@@QBE?AW4TeamType@@XZ PROC		; ioPlayEntity::GetTeam, COMDAT
; _this$ = ecx

; 107  : 	inline TeamType GetTeam() const { return m_TeamType; }

  00000	55		 push	 ebp
  00001	8b ec		 mov	 ebp, esp
  00003	51		 push	 ecx
  00004	8d 45 fc	 lea	 eax, DWORD PTR _value$540162[ebp]
  00007	50		 push	 eax
  00008	81 c1 90 00 00
	00		 add	 ecx, 144		; 00000090H
  0000e	e8 00 00 00 00	 call	 ?DecryptValueToPool@?$CEncrypt@W4TeamType@@@@QAEXPAW4TeamType@@@Z ; CEncrypt<enum TeamType>::DecryptValueToPool
  00013	8b 45 fc	 mov	 eax, DWORD PTR _value$540162[ebp]
  00016	c9		 leave
  00017	c3		 ret	 0
?GetTeam@ioPlayEntity@@QBE?AW4TeamType@@XZ ENDP		; ioPlayEntity::GetTeam
_TEXT	ENDS
PUBLIC	??0?$vector@VioHashString@@V?$allocator@VioHashString@@@std@@@std@@QAE@XZ ; std::vector<ioHashString,std::allocator<ioHashString> >::vector<ioHashString,std::allocator<ioHashString> >
; Function compile flags: /Ogsp
; File c:\program files (x86)\microsoft visual studio 10.0\vc\include\vector
;	COMDAT ??0?$vector@VioHashString@@V?$allocator@VioHashString@@@std@@@std@@QAE@XZ
_TEXT	SEGMENT
??0?$vector@VioHashString@@V?$allocator@VioHashString@@@std@@@std@@QAE@XZ PROC ; std::vector<ioHashString,std::allocator<ioHashString> >::vector<ioHashString,std::allocator<ioHashString> >, COMDAT
; _this$ = ecx

; 507  : 		{	// construct empty vector

  00000	8b c1		 mov	 eax, ecx
  00002	33 c9		 xor	 ecx, ecx
  00004	89 08		 mov	 DWORD PTR [eax], ecx
  00006	89 48 04	 mov	 DWORD PTR [eax+4], ecx
  00009	89 48 08	 mov	 DWORD PTR [eax+8], ecx

; 508  : 		}

  0000c	c3		 ret	 0
??0?$vector@VioHashString@@V?$allocator@VioHashString@@@std@@@std@@QAE@XZ ENDP ; std::vector<ioHashString,std::allocator<ioHashString> >::vector<ioHashString,std::allocator<ioHashString> >
_TEXT	ENDS
PUBLIC	??0?$CEncrypt@M@@QAE@ABM@Z			; CEncrypt<float>::CEncrypt<float>
;	COMDAT xdata$x
; File d:\lost saga for developer\youtube\tutorial\source\src\lsclient\encryptvalue.h
xdata$x	SEGMENT
__unwindtable$??0?$CEncrypt@M@@QAE@ABM@Z DD 0ffffffffH
	DD	FLAT:__unwindfunclet$??0?$CEncrypt@M@@QAE@ABM@Z$0
__ehfuncinfo$??0?$CEncrypt@M@@QAE@ABM@Z DD 019930522H
	DD	01H
	DD	FLAT:__unwindtable$??0?$CEncrypt@M@@QAE@ABM@Z
	DD	2 DUP(00H)
	DD	2 DUP(00H)
	DD	00H
	DD	01H
; Function compile flags: /Ogsp
xdata$x	ENDS
;	COMDAT ??0?$CEncrypt@M@@QAE@ABM@Z
_TEXT	SEGMENT
_this$ = -16						; size = 4
__$EHRec$ = -12						; size = 12
_value$540187 = 8					; size = 4
_inValue$ = 8						; size = 4
??0?$CEncrypt@M@@QAE@ABM@Z PROC				; CEncrypt<float>::CEncrypt<float>, COMDAT
; _this$ = ecx

; 114  : 	CEncrypt( const type &inValue )        //     

  00000	6a 04		 push	 4
  00002	b8 00 00 00 00	 mov	 eax, __ehhandler$??0?$CEncrypt@M@@QAE@ABM@Z
  00007	e8 00 00 00 00	 call	 __EH_prolog3
  0000c	8b f1		 mov	 esi, ecx
  0000e	89 75 f0	 mov	 DWORD PTR _this$[ebp], esi
  00011	8d 4e 0c	 lea	 ecx, DWORD PTR [esi+12]
  00014	c7 06 00 00 00
	00		 mov	 DWORD PTR [esi], OFFSET ??_7?$CEncrypt@M@@6B@
  0001a	e8 00 00 00 00	 call	 ??0ccddaabb@@QAE@XZ	; ccddaabb::ccddaabb
  0001f	83 65 fc 00	 and	 DWORD PTR __$EHRec$[ebp+8], 0

; 115  : 	{
; 116  : 		Init();

  00023	8b ce		 mov	 ecx, esi
  00025	e8 00 00 00 00	 call	 ?Init@?$CEncrypt@M@@AAEXXZ ; CEncrypt<float>::Init

; 117  : 		*this = inValue;

  0002a	8b 45 08	 mov	 eax, DWORD PTR _inValue$[ebp]
  0002d	f3 0f 10 00	 movss	 xmm0, DWORD PTR [eax]
  00031	8d 45 08	 lea	 eax, DWORD PTR _value$540187[ebp]
  00034	50		 push	 eax
  00035	8b ce		 mov	 ecx, esi
  00037	f3 0f 11 45 08	 movss	 DWORD PTR _value$540187[ebp], xmm0
  0003c	e8 00 00 00 00	 call	 ?EncryptValueToPool@?$CEncrypt@M@@AAEXPBD@Z ; CEncrypt<float>::EncryptValueToPool

; 118  : 	}

  00041	8b c6		 mov	 eax, esi
  00043	e8 00 00 00 00	 call	 __EH_epilog3
  00048	c2 04 00	 ret	 4
_TEXT	ENDS
;	COMDAT text$x
text$x	SEGMENT
__unwindfunclet$??0?$CEncrypt@M@@QAE@ABM@Z$0:
  00000	8b 4d f0	 mov	 ecx, DWORD PTR _this$[ebp]
  00003	83 c1 0c	 add	 ecx, 12			; 0000000cH
  00006	e9 00 00 00 00	 jmp	 ??1ccddaabb@@UAE@XZ	; ccddaabb::~ccddaabb
__ehhandler$??0?$CEncrypt@M@@QAE@ABM@Z:
  0000b	8b 54 24 08	 mov	 edx, DWORD PTR [esp+8]
  0000f	8d 42 0c	 lea	 eax, DWORD PTR [edx+12]
  00012	8b 4a ec	 mov	 ecx, DWORD PTR [edx-20]
  00015	33 c8		 xor	 ecx, eax
  00017	e8 00 00 00 00	 call	 @__security_check_cookie@4
  0001c	b8 00 00 00 00	 mov	 eax, OFFSET __ehfuncinfo$??0?$CEncrypt@M@@QAE@ABM@Z
  00021	e9 00 00 00 00	 jmp	 ___CxxFrameHandler3
text$x	ENDS
??0?$CEncrypt@M@@QAE@ABM@Z ENDP				; CEncrypt<float>::CEncrypt<float>
PUBLIC	??0?$CEncrypt@M@@QAE@ABV0@@Z			; CEncrypt<float>::CEncrypt<float>
;	COMDAT xdata$x
xdata$x	SEGMENT
__unwindtable$??0?$CEncrypt@M@@QAE@ABV0@@Z DD 0ffffffffH
	DD	FLAT:__unwindfunclet$??0?$CEncrypt@M@@QAE@ABV0@@Z$0
__ehfuncinfo$??0?$CEncrypt@M@@QAE@ABV0@@Z DD 019930522H
	DD	01H
	DD	FLAT:__unwindtable$??0?$CEncrypt@M@@QAE@ABV0@@Z
	DD	2 DUP(00H)
	DD	2 DUP(00H)
	DD	00H
	DD	01H
; Function compile flags: /Ogsp
xdata$x	ENDS
;	COMDAT ??0?$CEncrypt@M@@QAE@ABV0@@Z
_TEXT	SEGMENT
_this$ = -16						; size = 4
__$EHRec$ = -12						; size = 12
_value$540206 = 8					; size = 4
_value$540201 = 8					; size = 4
_inValue$ = 8						; size = 4
??0?$CEncrypt@M@@QAE@ABV0@@Z PROC			; CEncrypt<float>::CEncrypt<float>, COMDAT
; _this$ = ecx

; 120  : 	CEncrypt( const CEncrypt<type> &inValue )   //     

  00000	6a 04		 push	 4
  00002	b8 00 00 00 00	 mov	 eax, __ehhandler$??0?$CEncrypt@M@@QAE@ABV0@@Z
  00007	e8 00 00 00 00	 call	 __EH_prolog3
  0000c	8b f1		 mov	 esi, ecx
  0000e	89 75 f0	 mov	 DWORD PTR _this$[ebp], esi
  00011	8d 4e 0c	 lea	 ecx, DWORD PTR [esi+12]
  00014	c7 06 00 00 00
	00		 mov	 DWORD PTR [esi], OFFSET ??_7?$CEncrypt@M@@6B@
  0001a	e8 00 00 00 00	 call	 ??0ccddaabb@@QAE@XZ	; ccddaabb::ccddaabb
  0001f	83 65 fc 00	 and	 DWORD PTR __$EHRec$[ebp+8], 0

; 121  : 	{
; 122  : 		Init();

  00023	8b ce		 mov	 ecx, esi
  00025	e8 00 00 00 00	 call	 ?Init@?$CEncrypt@M@@AAEXXZ ; CEncrypt<float>::Init

; 123  : 		*this = inValue;

  0002a	8b 4d 08	 mov	 ecx, DWORD PTR _inValue$[ebp]
  0002d	8d 45 08	 lea	 eax, DWORD PTR _value$540201[ebp]
  00030	50		 push	 eax
  00031	e8 00 00 00 00	 call	 ?DecryptValueToPool@?$CEncrypt@M@@QAEXPAM@Z ; CEncrypt<float>::DecryptValueToPool
  00036	f3 0f 10 45 08	 movss	 xmm0, DWORD PTR _value$540201[ebp]
  0003b	8d 45 08	 lea	 eax, DWORD PTR _value$540206[ebp]
  0003e	50		 push	 eax
  0003f	8b ce		 mov	 ecx, esi
  00041	f3 0f 11 45 08	 movss	 DWORD PTR _value$540206[ebp], xmm0
  00046	e8 00 00 00 00	 call	 ?EncryptValueToPool@?$CEncrypt@M@@AAEXPBD@Z ; CEncrypt<float>::EncryptValueToPool

; 124  : 	}

  0004b	8b c6		 mov	 eax, esi
  0004d	e8 00 00 00 00	 call	 __EH_epilog3
  00052	c2 04 00	 ret	 4
_TEXT	ENDS
;	COMDAT text$x
text$x	SEGMENT
__unwindfunclet$??0?$CEncrypt@M@@QAE@ABV0@@Z$0:
  00000	8b 4d f0	 mov	 ecx, DWORD PTR _this$[ebp]
  00003	83 c1 0c	 add	 ecx, 12			; 0000000cH
  00006	e9 00 00 00 00	 jmp	 ??1ccddaabb@@UAE@XZ	; ccddaabb::~ccddaabb
__ehhandler$??0?$CEncrypt@M@@QAE@ABV0@@Z:
  0000b	8b 54 24 08	 mov	 edx, DWORD PTR [esp+8]
  0000f	8d 42 0c	 lea	 eax, DWORD PTR [edx+12]
  00012	8b 4a ec	 mov	 ecx, DWORD PTR [edx-20]
  00015	33 c8		 xor	 ecx, eax
  00017	e8 00 00 00 00	 call	 @__security_check_cookie@4
  0001c	b8 00 00 00 00	 mov	 eax, OFFSET __ehfuncinfo$??0?$CEncrypt@M@@QAE@ABV0@@Z
  00021	e9 00 00 00 00	 jmp	 ___CxxFrameHandler3
text$x	ENDS
??0?$CEncrypt@M@@QAE@ABV0@@Z ENDP			; CEncrypt<float>::CEncrypt<float>
PUBLIC	?_Buy@?$vector@VioHashString@@V?$allocator@VioHashString@@@std@@@std@@IAE_NI@Z ; std::vector<ioHashString,std::allocator<ioHashString> >::_Buy
; Function compile flags: /Ogsp
; File c:\program files (x86)\microsoft visual studio 10.0\vc\include\vector
;	COMDAT ?_Buy@?$vector@VioHashString@@V?$allocator@VioHashString@@@std@@@std@@IAE_NI@Z
_TEXT	SEGMENT
__Capacity$ = 8						; size = 4
?_Buy@?$vector@VioHashString@@V?$allocator@VioHashString@@@std@@@std@@IAE_NI@Z PROC ; std::vector<ioHashString,std::allocator<ioHashString> >::_Buy, COMDAT
; _this$ = ecx

; 1250 : 		{	// allocate array with _Capacity elements

  00000	55		 push	 ebp
  00001	8b ec		 mov	 ebp, esp
  00003	56		 push	 esi

; 1251 : 		this->_Myfirst = 0;

  00004	33 c0		 xor	 eax, eax
  00006	57		 push	 edi

; 1252 : 		this->_Mylast = 0;
; 1253 : 		this->_Myend = 0;
; 1254 : 
; 1255 : 		if (_Capacity == 0)

  00007	8b 7d 08	 mov	 edi, DWORD PTR __Capacity$[ebp]
  0000a	8b f1		 mov	 esi, ecx
  0000c	89 06		 mov	 DWORD PTR [esi], eax
  0000e	89 46 04	 mov	 DWORD PTR [esi+4], eax
  00011	89 46 08	 mov	 DWORD PTR [esi+8], eax
  00014	3b f8		 cmp	 edi, eax
  00016	75 04		 jne	 SHORT $LN4@Buy

; 1256 : 			return (false);

  00018	32 c0		 xor	 al, al
  0001a	eb 2b		 jmp	 SHORT $LN5@Buy
$LN4@Buy:

; 1257 : 		else if (max_size() < _Capacity)

  0001c	81 ff ff ff ff
	0f		 cmp	 edi, 268435455		; 0fffffffH
  00022	76 0b		 jbe	 SHORT $LN2@Buy

; 1258 : 			_Xlen();	// result too long

  00024	68 00 00 00 00	 push	 OFFSET ??_C@_0BD@OLBABOEK@vector?$DMT?$DO?5too?5long?$AA@
  00029	ff 15 00 00 00
	00		 call	 DWORD PTR __imp_?_Xlength_error@std@@YAXPBD@Z
$LN19@Buy:
$LN2@Buy:

; 1259 : 		else
; 1260 : 			{	// nonempty array, allocate storage
; 1261 : 			this->_Myfirst = this->_Alval.allocate(_Capacity);

  0002f	50		 push	 eax
  00030	57		 push	 edi
  00031	e8 00 00 00 00	 call	 ??$_Allocate@VioHashString@@@std@@YAPAVioHashString@@IPAV1@@Z ; std::_Allocate<ioHashString>

; 1262 : 			this->_Mylast = this->_Myfirst;
; 1263 : 			this->_Myend = this->_Myfirst + _Capacity;

  00036	c1 e7 04	 shl	 edi, 4
  00039	03 f8		 add	 edi, eax
  0003b	59		 pop	 ecx
  0003c	89 06		 mov	 DWORD PTR [esi], eax
  0003e	89 46 04	 mov	 DWORD PTR [esi+4], eax
  00041	59		 pop	 ecx
  00042	89 7e 08	 mov	 DWORD PTR [esi+8], edi

; 1264 : 			}
; 1265 : 		return (true);

  00045	b0 01		 mov	 al, 1
$LN5@Buy:
  00047	5f		 pop	 edi
  00048	5e		 pop	 esi

; 1266 : 		}

  00049	5d		 pop	 ebp
  0004a	c2 04 00	 ret	 4
$LN18@Buy:
?_Buy@?$vector@VioHashString@@V?$allocator@VioHashString@@@std@@@std@@IAE_NI@Z ENDP ; std::vector<ioHashString,std::allocator<ioHashString> >::_Buy
_TEXT	ENDS
PUBLIC	??9?$_Vector_const_iterator@V?$_Vector_val@VioHashString@@V?$allocator@VioHashString@@@std@@@std@@@std@@QBE_NABV01@@Z ; std::_Vector_const_iterator<std::_Vector_val<ioHashString,std::allocator<ioHashString> > >::operator!=
; Function compile flags: /Ogsp
;	COMDAT ??9?$_Vector_const_iterator@V?$_Vector_val@VioHashString@@V?$allocator@VioHashString@@@std@@@std@@@std@@QBE_NABV01@@Z
_TEXT	SEGMENT
__Right$ = 8						; size = 4
??9?$_Vector_const_iterator@V?$_Vector_val@VioHashString@@V?$allocator@VioHashString@@@std@@@std@@@std@@QBE_NABV01@@Z PROC ; std::_Vector_const_iterator<std::_Vector_val<ioHashString,std::allocator<ioHashString> > >::operator!=, COMDAT
; _this$ = ecx

; 207  : 		{	// test for iterator inequality

  00000	55		 push	 ebp
  00001	8b ec		 mov	 ebp, esp

; 208  : 		return (!(*this == _Right));

  00003	8b 01		 mov	 eax, DWORD PTR [ecx]
  00005	8b 55 08	 mov	 edx, DWORD PTR __Right$[ebp]
  00008	33 c9		 xor	 ecx, ecx
  0000a	3b 02		 cmp	 eax, DWORD PTR [edx]
  0000c	0f 95 c0	 setne	 al

; 209  : 		}

  0000f	5d		 pop	 ebp
  00010	c2 04 00	 ret	 4
??9?$_Vector_const_iterator@V?$_Vector_val@VioHashString@@V?$allocator@VioHashString@@@std@@@std@@@std@@QBE_NABV01@@Z ENDP ; std::_Vector_const_iterator<std::_Vector_val<ioHashString,std::allocator<ioHashString> > >::operator!=
_TEXT	ENDS
PUBLIC	??$_Move@PAVioHashString@@PAV1@@std@@YAPAVioHashString@@PAV1@00@Z ; std::_Move<ioHashString *,ioHashString *>
; Function compile flags: /Ogsp
; File c:\program files (x86)\microsoft visual studio 10.0\vc\include\xutility
;	COMDAT ??$_Move@PAVioHashString@@PAV1@@std@@YAPAVioHashString@@PAV1@00@Z
_TEXT	SEGMENT
__Cat$540256 = -4					; size = 1
__First$ = 8						; size = 4
__Last$ = 12						; size = 4
__Dest$ = 16						; size = 4
??$_Move@PAVioHashString@@PAV1@@std@@YAPAVioHashString@@PAV1@00@Z PROC ; std::_Move<ioHashString *,ioHashString *>, COMDAT

; 2533 : 	{	// move [_First, _Last) to [_Dest, ...), unchecked

  00000	55		 push	 ebp
  00001	8b ec		 mov	 ebp, esp
  00003	51		 push	 ecx

; 2534 : 	return (_Move(_First, _Last,
; 2535 : 		_Dest, _Ptr_cat(_First, _Dest)));

  00004	ff 75 fc	 push	 DWORD PTR __Cat$540256[ebp]
  00007	ff 75 10	 push	 DWORD PTR __Dest$[ebp]
  0000a	ff 75 0c	 push	 DWORD PTR __Last$[ebp]
  0000d	ff 75 08	 push	 DWORD PTR __First$[ebp]
  00010	e8 00 00 00 00	 call	 ??$_Move@PAVioHashString@@PAV1@@std@@YAPAVioHashString@@PAV1@00U_Nonscalar_ptr_iterator_tag@0@@Z ; std::_Move<ioHashString *,ioHashString *>
  00015	83 c4 10	 add	 esp, 16			; 00000010H

; 2536 : 	}

  00018	c9		 leave
  00019	c3		 ret	 0
??$_Move@PAVioHashString@@PAV1@@std@@YAPAVioHashString@@PAV1@00@Z ENDP ; std::_Move<ioHashString *,ioHashString *>
_TEXT	ENDS
PUBLIC	?destroy@?$allocator@VioHashString@@@std@@QAEXPAVioHashString@@@Z ; std::allocator<ioHashString>::destroy
; Function compile flags: /Ogsp
; File c:\program files (x86)\microsoft visual studio 10.0\vc\include\xmemory
;	COMDAT ?destroy@?$allocator@VioHashString@@@std@@QAEXPAVioHashString@@@Z
_TEXT	SEGMENT
__Ptr$ = 8						; size = 4
?destroy@?$allocator@VioHashString@@@std@@QAEXPAVioHashString@@@Z PROC ; std::allocator<ioHashString>::destroy, COMDAT
; _this$ = ecx

; 212  : 		{	// destroy object at _Ptr

  00000	55		 push	 ebp
  00001	8b ec		 mov	 ebp, esp

; 213  : 		_Destroy(_Ptr);

  00003	8b 4d 08	 mov	 ecx, DWORD PTR __Ptr$[ebp]
  00006	ff 15 00 00 00
	00		 call	 DWORD PTR __imp_??1ioHashString@@QAE@XZ

; 214  : 		}

  0000c	5d		 pop	 ebp
  0000d	c2 04 00	 ret	 4
?destroy@?$allocator@VioHashString@@@std@@QAEXPAVioHashString@@@Z ENDP ; std::allocator<ioHashString>::destroy
_TEXT	ENDS
PUBLIC	??$_Cons_val@V?$allocator@VioHashString@@@std@@VioHashString@@ABV3@@std@@YAXAAV?$allocator@VioHashString@@@0@PAVioHashString@@ABV2@@Z ; std::_Cons_val<std::allocator<ioHashString>,ioHashString,ioHashString const &>
; Function compile flags: /Ogsp
;	COMDAT ??$_Cons_val@V?$allocator@VioHashString@@@std@@VioHashString@@ABV3@@std@@YAXAAV?$allocator@VioHashString@@@0@PAVioHashString@@ABV2@@Z
_TEXT	SEGMENT
__Alval$ = 8						; size = 4
__Pdest$ = 12						; size = 4
__Src$ = 16						; size = 4
??$_Cons_val@V?$allocator@VioHashString@@@std@@VioHashString@@ABV3@@std@@YAXAAV?$allocator@VioHashString@@@0@PAVioHashString@@ABV2@@Z PROC ; std::_Cons_val<std::allocator<ioHashString>,ioHashString,ioHashString const &>, COMDAT

; 279  : 	{	// construct using allocator

  00000	55		 push	 ebp
  00001	8b ec		 mov	 ebp, esp

; 280  : 	_Alval.construct(_Pdest, _STD forward<_Ty2>(_Src));

  00003	ff 75 10	 push	 DWORD PTR __Src$[ebp]
  00006	ff 75 0c	 push	 DWORD PTR __Pdest$[ebp]
  00009	e8 00 00 00 00	 call	 ??$_Construct@VioHashString@@ABV1@@std@@YAXPAVioHashString@@ABV1@@Z ; std::_Construct<ioHashString,ioHashString const &>
  0000e	59		 pop	 ecx
  0000f	59		 pop	 ecx

; 281  : 	}

  00010	5d		 pop	 ebp
  00011	c3		 ret	 0
??$_Cons_val@V?$allocator@VioHashString@@@std@@VioHashString@@ABV3@@std@@YAXAAV?$allocator@VioHashString@@@0@PAVioHashString@@ABV2@@Z ENDP ; std::_Cons_val<std::allocator<ioHashString>,ioHashString,ioHashString const &>
_TEXT	ENDS
PUBLIC	_pChar$GSCopy$
PUBLIC	?OnSkillStart@ioGrapplingSwing2Skill@@UAE_NPAVioBaseChar@@@Z ; ioGrapplingSwing2Skill::OnSkillStart
EXTRN	?ReduceNeedGaugeBySkill@ioBaseChar@@QAEMPAVioSkill@@M@Z:PROC ; ioBaseChar::ReduceNeedGaugeBySkill
EXTRN	?GetNeedGauge@ioSkill@@QAEMABVioHashString@@@Z:PROC ; ioSkill::GetNeedGauge
EXTRN	?GetValue@ioGrowthNormalUpInfo@@QAEMPAVioPlayStage@@@Z:PROC ; ioGrowthNormalUpInfo::GetValue
EXTRN	?GetGrowthUpInfoByType@ioSkill@@QAEPAVioGrowthUpInfo@@HABVioHashString@@@Z:PROC ; ioSkill::GetGrowthUpInfoByType
EXTRN	?OnSkillStart@ioAttackSkill@@UAE_NPAVioBaseChar@@@Z:PROC ; ioAttackSkill::OnSkillStart
;	COMDAT xdata$x
; File d:\lost saga for developer\youtube\tutorial\source\src\lsclient\iobasechar.h
xdata$x	SEGMENT
__unwindtable$?OnSkillStart@ioGrapplingSwing2Skill@@UAE_NPAVioBaseChar@@@Z DD 0ffffffffH
	DD	FLAT:__unwindfunclet$?OnSkillStart@ioGrapplingSwing2Skill@@UAE_NPAVioBaseChar@@@Z$0
	DD	00H
	DD	FLAT:__unwindfunclet$?OnSkillStart@ioGrapplingSwing2Skill@@UAE_NPAVioBaseChar@@@Z$1
__ehfuncinfo$?OnSkillStart@ioGrapplingSwing2Skill@@UAE_NPAVioBaseChar@@@Z DD 019930522H
	DD	02H
	DD	FLAT:__unwindtable$?OnSkillStart@ioGrapplingSwing2Skill@@UAE_NPAVioBaseChar@@@Z
	DD	2 DUP(00H)
	DD	2 DUP(00H)
	DD	00H
	DD	01H
; Function compile flags: /Ogsp
; File d:\lost saga for developer\youtube\tutorial\source\src\lsclient\iograpplingswing2skill.cpp
xdata$x	ENDS
;	COMDAT ?OnSkillStart@ioGrapplingSwing2Skill@@UAE_NPAVioBaseChar@@@Z
_TEXT	SEGMENT
tv449 = -160						; size = 4
tv437 = -160						; size = 4
tv429 = -160						; size = 4
_value$540372 = -160					; size = 4
_value$540297 = -156					; size = 4
_pStage$532921 = -156					; size = 4
_pChar$GSCopy$ = -152					; size = 4
_value$540335 = -152					; size = 4
$T540360 = -152						; size = 4
_value$540322 = -152					; size = 4
_value$540312 = -145					; size = 1
$T540364 = -144						; size = 4
$T540287 = -144						; size = 4
tv481 = -140						; size = 4
tv460 = -140						; size = 4
tv433 = -140						; size = 4
_value$540368 = -140					; size = 4
_value$540347 = -140					; size = 4
_value$540343 = -140					; size = 4
$T540283 = -140						; size = 4
$T540282 = -140						; size = 4
$T532931 = -136						; size = 48
$T532930 = -88						; size = 48
$T532919 = -40						; size = 12
$T532918 = -28						; size = 12
__$EHRec$ = -12						; size = 12
_pChar$ = 8						; size = 4
?OnSkillStart@ioGrapplingSwing2Skill@@UAE_NPAVioBaseChar@@@Z PROC ; ioGrapplingSwing2Skill::OnSkillStart, COMDAT
; _this$ = ecx

; 175  : {

  00000	68 94 00 00 00	 push	 148			; 00000094H
  00005	b8 00 00 00 00	 mov	 eax, __ehhandler$?OnSkillStart@ioGrapplingSwing2Skill@@UAE_NPAVioBaseChar@@@Z
  0000a	e8 00 00 00 00	 call	 __EH_prolog3_GS
  0000f	8b 75 08	 mov	 esi, DWORD PTR _pChar$[ebp]

; 228  : 	{	
; 229  : 		SetLoopState( pChar );

  00012	33 ff		 xor	 edi, edi
  00014	8b d9		 mov	 ebx, ecx
  00016	89 b5 68 ff ff
	ff		 mov	 DWORD PTR _pChar$GSCopy$[ebp], esi
  0001c	89 bd 70 ff ff
	ff		 mov	 DWORD PTR $T540287[ebp], edi
  00022	e8 00 00 00 00	 call	 ?ClearData@ioGrapplingSwing2Skill@@IAEXXZ ; ioGrapplingSwing2Skill::ClearData
  00027	8d 8b 68 11 00
	00		 lea	 ecx, DWORD PTR [ebx+4456]
  0002d	89 bb e4 10 00
	00		 mov	 DWORD PTR [ebx+4324], edi
  00033	ff 15 00 00 00
	00		 call	 DWORD PTR __imp_?Clear@ioHashString@@QAEXXZ
  00039	56		 push	 esi
  0003a	8b cb		 mov	 ecx, ebx
  0003c	e8 00 00 00 00	 call	 ?OnSkillStart@ioAttackSkill@@UAE_NPAVioBaseChar@@@Z ; ioAttackSkill::OnSkillStart
  00041	84 c0		 test	 al, al
  00043	0f 84 29 03 00
	00		 je	 $LN10@OnSkillSta
$LN9@OnSkillSta:

; 176  : 	ClearData();
; 177  : 	m_SkillState = SS_NONE;
; 178  : 	m_GrapplingTargetName.Clear();
; 179  : 
; 180  : 	if( !ioAttackSkill::OnSkillStart( pChar ) )
; 181  : 		return false;
; 182  : 
; 183  : 	m_bSetHandMesh = false;

  00049	c6 83 0a 0f 00
	00 00		 mov	 BYTE PTR [ebx+3850], 0

; 184  : 	m_dwSkillStartTime = m_dwCheckTime = FRAMEGETTIME();

  00050	ff 15 00 00 00
	00		 call	 DWORD PTR __imp_?GetSingleton@ioFrameTimer@@SAAAV1@XZ
  00056	8b c8		 mov	 ecx, eax
  00058	ff 15 00 00 00
	00		 call	 DWORD PTR __imp_?GetLoopSec@ioFrameTimer@@QBEKXZ
  0005e	89 83 3c 13 00
	00		 mov	 DWORD PTR [ebx+4924], eax
  00064	89 85 64 ff ff
	ff		 mov	 DWORD PTR _value$540297[ebp], eax
  0006a	8d 85 64 ff ff
	ff		 lea	 eax, DWORD PTR _value$540297[ebp]
  00070	50		 push	 eax
  00071	8d 8b 94 0e 00
	00		 lea	 ecx, DWORD PTR [ebx+3732]
  00077	e8 00 00 00 00	 call	 ?EncryptValueToPool@?$CEncrypt@K@@AAEXPBD@Z ; CEncrypt<unsigned long>::EncryptValueToPool

; 185  : 	//    
; 186  : 	if( m_bUseItemMesh )

  0007c	80 bb 08 0f 00
	00 00		 cmp	 BYTE PTR [ebx+3848], 0
  00083	74 09		 je	 SHORT $LN8@OnSkillSta

; 187  : 	{
; 188  : 		pChar->ShowWeaponItemMesh( false );

  00085	57		 push	 edi
  00086	57		 push	 edi
  00087	8b ce		 mov	 ecx, esi
  00089	e8 00 00 00 00	 call	 ?ShowWeaponItemMesh@ioBaseChar@@QAEX_N0@Z ; ioBaseChar::ShowWeaponItemMesh
$LN8@OnSkillSta:

; 189  : 	}
; 190  : 
; 191  : 	m_bTargetRot = false;

  0008e	c6 83 e0 11 00
	00 00		 mov	 BYTE PTR [ebx+4576], 0

; 192  : 	m_CurDirKey = ioUserKeyInput::DKI_NONE;

  00095	89 bb f0 11 00
	00		 mov	 DWORD PTR [ebx+4592], edi

; 193  : 
; 194  : 	if( pChar )

  0009b	3b f7		 cmp	 esi, edi
  0009d	74 58		 je	 SHORT $LN7@OnSkillSta

; 195  : 	{
; 196  : 		m_vCurMoveDir = pChar->GetTargetRot() * D3DXVECTOR3( 0.0f, 0.0f, -FLOAT1 );

  0009f	b8 01 00 00 00	 mov	 eax, 1
  000a4	0f 57 c0	 xorps	 xmm0, xmm0
  000a7	89 85 74 ff ff
	ff		 mov	 DWORD PTR tv481[ebp], eax
  000ad	db 85 74 ff ff
	ff		 fild	 DWORD PTR tv481[ebp]
  000b3	f3 0f 11 45 e4	 movss	 DWORD PTR $T532918[ebp], xmm0
  000b8	f3 0f 11 45 e8	 movss	 DWORD PTR $T532918[ebp+4], xmm0
  000bd	85 c0		 test	 eax, eax
  000bf	79 06		 jns	 SHORT $LN68@OnSkillSta
  000c1	d8 05 00 00 00
	00		 fadd	 DWORD PTR __real@4f800000
$LN68@OnSkillSta:
  000c7	8d 45 e4	 lea	 eax, DWORD PTR $T532918[ebp]
  000ca	d9 e0		 fchs
  000cc	50		 push	 eax
  000cd	d9 5d ec	 fstp	 DWORD PTR $T532918[ebp+8]
  000d0	81 c6 a4 06 00
	00		 add	 esi, 1700		; 000006a4H
  000d6	8d 45 d8	 lea	 eax, DWORD PTR $T532919[ebp]
  000d9	56		 push	 esi
  000da	50		 push	 eax
  000db	ff 15 00 00 00
	00		 call	 DWORD PTR __imp_??D@YA?AUD3DXVECTOR3@@ABUD3DXQUATERNION@@ABU0@@Z
  000e1	8d bb e4 11 00
	00		 lea	 edi, DWORD PTR [ebx+4580]
  000e7	8b f0		 mov	 esi, eax
  000e9	a5		 movsd
  000ea	a5		 movsd
  000eb	a5		 movsd
  000ec	8b b5 68 ff ff
	ff		 mov	 esi, DWORD PTR _pChar$GSCopy$[ebp]
  000f2	83 c4 0c	 add	 esp, 12			; 0000000cH
  000f5	33 ff		 xor	 edi, edi
$LN7@OnSkillSta:

; 197  : 	}
; 198  : 
; 199  : 	//   .
; 200  : 	if( !m_bDisableGrowth )

  000f7	8d 85 6f ff ff
	ff		 lea	 eax, DWORD PTR _value$540312[ebp]
  000fd	50		 push	 eax
  000fe	8d 8b ac 12 00
	00		 lea	 ecx, DWORD PTR [ebx+4780]
  00104	e8 00 00 00 00	 call	 ?DecryptValueToPool@?$CEncrypt@_N@@QAEXPA_N@Z ; CEncrypt<bool>::DecryptValueToPool
  00109	80 bd 6f ff ff
	ff 00		 cmp	 BYTE PTR _value$540312[ebp], 0
  00110	0f 85 17 02 00
	00		 jne	 $LN3@OnSkillSta

; 201  : 	{
; 202  : 		ioPlayStage *pStage = pChar->GetCreator();

  00116	8b 86 44 03 00
	00		 mov	 eax, DWORD PTR [esi+836]
  0011c	89 85 64 ff ff
	ff		 mov	 DWORD PTR _pStage$532921[ebp], eax

; 203  : 		if( pStage )

  00122	3b c7		 cmp	 eax, edi
  00124	0f 84 03 02 00
	00		 je	 $LN3@OnSkillSta

; 204  : 		{
; 205  : 			ioGrowthNormalUpInfo *pUpInfo = NULL;
; 206  : 
; 207  : 			pUpInfo = ToNormalUpInfo( GetGrowthUpInfoByType(GT_SKILL_COOL_TIME, pChar->GetCharName()) );

  0012a	8d 86 d4 02 00
	00		 lea	 eax, DWORD PTR [esi+724]
  00130	50		 push	 eax
  00131	6a 08		 push	 8
  00133	8b cb		 mov	 ecx, ebx
  00135	e8 00 00 00 00	 call	 ?GetGrowthUpInfoByType@ioSkill@@QAEPAVioGrowthUpInfo@@HABVioHashString@@@Z ; ioSkill::GetGrowthUpInfoByType
  0013a	50		 push	 eax
  0013b	e8 00 00 00 00	 call	 ?ToNormalUpInfo@@YAPAVioGrowthNormalUpInfo@@PAVioGrowthUpInfo@@@Z ; ToNormalUpInfo
  00140	59		 pop	 ecx

; 208  : 			if( pUpInfo )

  00141	3b c7		 cmp	 eax, edi
  00143	74 25		 je	 SHORT $LN34@OnSkillSta

; 209  : 				m_fTicGaugeRateByGrowth = pUpInfo->GetValue(pStage);

  00145	ff b5 64 ff ff
	ff		 push	 DWORD PTR _pStage$532921[ebp]
  0014b	8b c8		 mov	 ecx, eax
  0014d	e8 00 00 00 00	 call	 ?GetValue@ioGrowthNormalUpInfo@@QAEMPAVioPlayStage@@@Z ; ioGrowthNormalUpInfo::GetValue
  00152	d9 9d 68 ff ff
	ff		 fstp	 DWORD PTR _value$540322[ebp]
  00158	8d 85 68 ff ff
	ff		 lea	 eax, DWORD PTR _value$540322[ebp]
  0015e	50		 push	 eax
  0015f	8d 8b 40 13 00
	00		 lea	 ecx, DWORD PTR [ebx+4928]
  00165	e8 00 00 00 00	 call	 ?EncryptValueToPool@?$CEncrypt@M@@AAEXPBD@Z ; CEncrypt<float>::EncryptValueToPool
$LN34@OnSkillSta:

; 210  : 
; 211  : 			m_fTicGaugeRateByGrowth = min( m_fTicGaugeRateByGrowth, FLOAT100 );

  0016a	b8 64 00 00 00	 mov	 eax, 100		; 00000064H
  0016f	89 85 74 ff ff
	ff		 mov	 DWORD PTR tv460[ebp], eax
  00175	db 85 74 ff ff
	ff		 fild	 DWORD PTR tv460[ebp]
  0017b	85 c0		 test	 eax, eax
  0017d	79 06		 jns	 SHORT $LN69@OnSkillSta
  0017f	d8 05 00 00 00
	00		 fadd	 DWORD PTR __real@4f800000
$LN69@OnSkillSta:
  00185	8d 85 68 ff ff
	ff		 lea	 eax, DWORD PTR _value$540335[ebp]
  0018b	d9 9d 74 ff ff
	ff		 fstp	 DWORD PTR $T540282[ebp]
  00191	8d bb 40 13 00
	00		 lea	 edi, DWORD PTR [ebx+4928]
  00197	50		 push	 eax
  00198	8b cf		 mov	 ecx, edi
  0019a	e8 00 00 00 00	 call	 ?DecryptValueToPool@?$CEncrypt@M@@QAEXPAM@Z ; CEncrypt<float>::DecryptValueToPool
  0019f	d9 85 68 ff ff
	ff		 fld	 DWORD PTR _value$540335[ebp]
  001a5	d9 85 74 ff ff
	ff		 fld	 DWORD PTR $T540282[ebp]
  001ab	df f1		 fcomip	 ST(1)
  001ad	dd d8		 fstp	 ST(0)
  001af	76 19		 jbe	 SHORT $LN12@OnSkillSta
  001b1	57		 push	 edi
  001b2	8d 4d a8	 lea	 ecx, DWORD PTR $T532930[ebp]
  001b5	e8 00 00 00 00	 call	 ??0?$CEncrypt@M@@QAE@ABV0@@Z ; CEncrypt<float>::CEncrypt<float>
  001ba	83 65 fc 00	 and	 DWORD PTR __$EHRec$[ebp+8], 0
  001be	c7 85 70 ff ff
	ff 01 00 00 00	 mov	 DWORD PTR $T540287[ebp], 1
  001c8	eb 44		 jmp	 SHORT $LN13@OnSkillSta
$LN12@OnSkillSta:
  001ca	b8 64 00 00 00	 mov	 eax, 100		; 00000064H
  001cf	89 85 60 ff ff
	ff		 mov	 DWORD PTR tv449[ebp], eax
  001d5	db 85 60 ff ff
	ff		 fild	 DWORD PTR tv449[ebp]
  001db	85 c0		 test	 eax, eax
  001dd	79 06		 jns	 SHORT $LN70@OnSkillSta
  001df	d8 05 00 00 00
	00		 fadd	 DWORD PTR __real@4f800000
$LN70@OnSkillSta:
  001e5	8d 85 74 ff ff
	ff		 lea	 eax, DWORD PTR $T540283[ebp]
  001eb	d9 9d 74 ff ff
	ff		 fstp	 DWORD PTR $T540283[ebp]
  001f1	50		 push	 eax
  001f2	8d 8d 78 ff ff
	ff		 lea	 ecx, DWORD PTR $T532931[ebp]
  001f8	e8 00 00 00 00	 call	 ??0?$CEncrypt@M@@QAE@ABM@Z ; CEncrypt<float>::CEncrypt<float>
  001fd	c7 45 fc 01 00
	00 00		 mov	 DWORD PTR __$EHRec$[ebp+8], 1
  00204	c7 85 70 ff ff
	ff 02 00 00 00	 mov	 DWORD PTR $T540287[ebp], 2
$LN13@OnSkillSta:
  0020e	8d 8d 74 ff ff
	ff		 lea	 ecx, DWORD PTR _value$540343[ebp]
  00214	51		 push	 ecx
  00215	8b c8		 mov	 ecx, eax
  00217	e8 00 00 00 00	 call	 ?DecryptValueToPool@?$CEncrypt@M@@QAEXPAM@Z ; CEncrypt<float>::DecryptValueToPool
  0021c	f3 0f 10 85 74
	ff ff ff	 movss	 xmm0, DWORD PTR _value$540343[ebp]
  00224	8d 85 74 ff ff
	ff		 lea	 eax, DWORD PTR _value$540347[ebp]
  0022a	50		 push	 eax
  0022b	8b cf		 mov	 ecx, edi
  0022d	f3 0f 11 85 74
	ff ff ff	 movss	 DWORD PTR _value$540347[ebp], xmm0
  00235	e8 00 00 00 00	 call	 ?EncryptValueToPool@?$CEncrypt@M@@AAEXPBD@Z ; CEncrypt<float>::EncryptValueToPool
  0023a	83 65 fc 00	 and	 DWORD PTR __$EHRec$[ebp+8], 0
  0023e	f6 85 70 ff ff
	ff 02		 test	 BYTE PTR $T540287[ebp], 2
  00245	74 19		 je	 SHORT $LN18@OnSkillSta
  00247	83 a5 70 ff ff
	ff fd		 and	 DWORD PTR $T540287[ebp], -3 ; fffffffdH
  0024e	8d 4d 84	 lea	 ecx, DWORD PTR $T532931[ebp+12]
  00251	c7 85 78 ff ff
	ff 00 00 00 00	 mov	 DWORD PTR $T532931[ebp], OFFSET ??_7?$CEncrypt@M@@6B@
  0025b	e8 00 00 00 00	 call	 ??1ccddaabb@@UAE@XZ	; ccddaabb::~ccddaabb
$LN18@OnSkillSta:
  00260	83 4d fc ff	 or	 DWORD PTR __$EHRec$[ebp+8], -1
  00264	f6 85 70 ff ff
	ff 01		 test	 BYTE PTR $T540287[ebp], 1
  0026b	74 0f		 je	 SHORT $LN19@OnSkillSta
  0026d	8d 4d b4	 lea	 ecx, DWORD PTR $T532930[ebp+12]
  00270	c7 45 a8 00 00
	00 00		 mov	 DWORD PTR $T532930[ebp], OFFSET ??_7?$CEncrypt@M@@6B@
  00277	e8 00 00 00 00	 call	 ??1ccddaabb@@UAE@XZ	; ccddaabb::~ccddaabb
$LN19@OnSkillSta:

; 212  : 			m_fTicGaugeRateByGrowth = FLOAT1 + ( m_fTicGaugeRateByGrowth/FLOAT100 );

  0027c	b8 64 00 00 00	 mov	 eax, 100		; 00000064H
  00281	89 85 68 ff ff
	ff		 mov	 DWORD PTR $T540360[ebp], eax
  00287	b8 01 00 00 00	 mov	 eax, 1
  0028c	89 85 70 ff ff
	ff		 mov	 DWORD PTR $T540364[ebp], eax
  00292	8d 85 74 ff ff
	ff		 lea	 eax, DWORD PTR _value$540368[ebp]
  00298	50		 push	 eax
  00299	8b cf		 mov	 ecx, edi
  0029b	e8 00 00 00 00	 call	 ?DecryptValueToPool@?$CEncrypt@M@@QAEXPAM@Z ; CEncrypt<float>::DecryptValueToPool
  002a0	d9 85 74 ff ff
	ff		 fld	 DWORD PTR _value$540368[ebp]
  002a6	8b 85 68 ff ff
	ff		 mov	 eax, DWORD PTR $T540360[ebp]
  002ac	db 85 68 ff ff
	ff		 fild	 DWORD PTR $T540360[ebp]
  002b2	85 c0		 test	 eax, eax
  002b4	79 06		 jns	 SHORT $LN71@OnSkillSta
  002b6	d8 05 00 00 00
	00		 fadd	 DWORD PTR __real@4f800000
$LN71@OnSkillSta:
  002bc	de f9		 fdivp	 ST(1), ST(0)
  002be	8b 85 70 ff ff
	ff		 mov	 eax, DWORD PTR $T540364[ebp]
  002c4	d9 9d 74 ff ff
	ff		 fstp	 DWORD PTR tv433[ebp]
  002ca	d9 85 74 ff ff
	ff		 fld	 DWORD PTR tv433[ebp]
  002d0	db 85 70 ff ff
	ff		 fild	 DWORD PTR $T540364[ebp]
  002d6	85 c0		 test	 eax, eax
  002d8	79 06		 jns	 SHORT $LN72@OnSkillSta
  002da	d8 05 00 00 00
	00		 fadd	 DWORD PTR __real@4f800000
$LN72@OnSkillSta:
  002e0	de c1		 faddp	 ST(1), ST(0)
  002e2	8d 85 60 ff ff
	ff		 lea	 eax, DWORD PTR _value$540372[ebp]
  002e8	50		 push	 eax
  002e9	8b cf		 mov	 ecx, edi
  002eb	d9 9d 60 ff ff
	ff		 fstp	 DWORD PTR _value$540372[ebp]
  002f1	e8 00 00 00 00	 call	 ?EncryptValueToPool@?$CEncrypt@M@@AAEXPBD@Z ; CEncrypt<float>::EncryptValueToPool

; 213  : 
; 214  : 
; 215  : 			pUpInfo = ToNormalUpInfo( GetGrowthUpInfoByType(GT_BUFF_TIC_TIME, pChar->GetCharName()) );

  002f6	8d 86 d4 02 00
	00		 lea	 eax, DWORD PTR [esi+724]
  002fc	50		 push	 eax
  002fd	6a 10		 push	 16			; 00000010H
  002ff	8b cb		 mov	 ecx, ebx
  00301	e8 00 00 00 00	 call	 ?GetGrowthUpInfoByType@ioSkill@@QAEPAVioGrowthUpInfo@@HABVioHashString@@@Z ; ioSkill::GetGrowthUpInfoByType
  00306	50		 push	 eax
  00307	e8 00 00 00 00	 call	 ?ToNormalUpInfo@@YAPAVioGrowthNormalUpInfo@@PAVioGrowthUpInfo@@@Z ; ToNormalUpInfo
  0030c	59		 pop	 ecx

; 216  : 			if( pUpInfo )

  0030d	85 c0		 test	 eax, eax
  0030f	74 1c		 je	 SHORT $LN3@OnSkillSta

; 217  : 				m_dwTicTimeByGrowth = pUpInfo->GetValue(pStage);			

  00311	ff b5 64 ff ff
	ff		 push	 DWORD PTR _pStage$532921[ebp]
  00317	8b c8		 mov	 ecx, eax
  00319	e8 00 00 00 00	 call	 ?GetValue@ioGrowthNormalUpInfo@@QAEMPAVioPlayStage@@@Z ; ioGrowthNormalUpInfo::GetValue
  0031e	51		 push	 ecx
  0031f	8d 8b 70 13 00
	00		 lea	 ecx, DWORD PTR [ebx+4976]
  00325	d9 1c 24	 fstp	 DWORD PTR [esp]
  00328	e8 00 00 00 00	 call	 ??4?$CEncrypt@K@@QAEKM@Z ; CEncrypt<unsigned long>::operator=
$LN3@OnSkillSta:

; 218  : 		}
; 219  : 	}
; 220  : 
; 221  : 	if( !m_bReduceGauge )

  0032d	80 bb 50 03 00
	00 00		 cmp	 BYTE PTR [ebx+848], 0
  00334	75 23		 jne	 SHORT $LN2@OnSkillSta

; 222  : 	{
; 223  : 		float fCurGauge = pChar->ReduceNeedGaugeBySkill( this, GetNeedGauge(pChar->GetCharName()) );

  00336	8d 86 d4 02 00
	00		 lea	 eax, DWORD PTR [esi+724]
  0033c	50		 push	 eax
  0033d	8b cb		 mov	 ecx, ebx
  0033f	e8 00 00 00 00	 call	 ?GetNeedGauge@ioSkill@@QAEMABVioHashString@@@Z ; ioSkill::GetNeedGauge
  00344	51		 push	 ecx
  00345	d9 1c 24	 fstp	 DWORD PTR [esp]
  00348	53		 push	 ebx
  00349	8b ce		 mov	 ecx, esi
  0034b	e8 00 00 00 00	 call	 ?ReduceNeedGaugeBySkill@ioBaseChar@@QAEMPAVioSkill@@M@Z ; ioBaseChar::ReduceNeedGaugeBySkill
  00350	dd d8		 fstp	 ST(0)

; 224  : 		m_bReduceGauge = true;

  00352	c6 83 50 03 00
	00 01		 mov	 BYTE PTR [ebx+848], 1
$LN2@OnSkillSta:

; 225  : 	}
; 226  : 	
; 227  : 	if( !StartPreDelayAnimation( pChar ) )	// Delay Animation 

  00359	8b 03		 mov	 eax, DWORD PTR [ebx]
  0035b	56		 push	 esi
  0035c	8b cb		 mov	 ecx, ebx
  0035e	ff 90 88 01 00
	00		 call	 DWORD PTR [eax+392]
  00364	84 c0		 test	 al, al
  00366	75 08		 jne	 SHORT $LN1@OnSkillSta

; 228  : 	{	
; 229  : 		SetLoopState( pChar );

  00368	56		 push	 esi
  00369	8b cb		 mov	 ecx, ebx
  0036b	e8 00 00 00 00	 call	 ?SetLoopState@ioGrapplingSwing2Skill@@IAEXPAVioBaseChar@@@Z ; ioGrapplingSwing2Skill::SetLoopState
$LN1@OnSkillSta:

; 230  : 	}	
; 231  : 	return true;

  00370	b0 01		 mov	 al, 1
$LN10@OnSkillSta:

; 232  : }

  00372	e8 00 00 00 00	 call	 __EH_epilog3_GS
  00377	c2 04 00	 ret	 4
_TEXT	ENDS
;	COMDAT text$x
text$x	SEGMENT
__unwindfunclet$?OnSkillStart@ioGrapplingSwing2Skill@@UAE_NPAVioBaseChar@@@Z$0:
  00000	8b 85 70 ff ff
	ff		 mov	 eax, DWORD PTR $T540287[ebp]
  00006	83 e0 01	 and	 eax, 1
  00009	0f 84 0f 00 00
	00		 je	 $LN15@OnSkillSta
  0000f	83 a5 70 ff ff
	ff fe		 and	 DWORD PTR $T540287[ebp], -2 ; fffffffeH
  00016	8d 4d a8	 lea	 ecx, DWORD PTR $T532930[ebp]
  00019	e9 00 00 00 00	 jmp	 ??1?$CEncrypt@M@@UAE@XZ	; CEncrypt<float>::~CEncrypt<float>
$LN15@OnSkillSta:
  0001e	c3		 ret	 0
__unwindfunclet$?OnSkillStart@ioGrapplingSwing2Skill@@UAE_NPAVioBaseChar@@@Z$1:
  0001f	8b 85 70 ff ff
	ff		 mov	 eax, DWORD PTR $T540287[ebp]
  00025	83 e0 02	 and	 eax, 2
  00028	0f 84 12 00 00
	00		 je	 $LN17@OnSkillSta
  0002e	83 a5 70 ff ff
	ff fd		 and	 DWORD PTR $T540287[ebp], -3 ; fffffffdH
  00035	8d 8d 78 ff ff
	ff		 lea	 ecx, DWORD PTR $T532931[ebp]
  0003b	e9 00 00 00 00	 jmp	 ??1?$CEncrypt@M@@UAE@XZ	; CEncrypt<float>::~CEncrypt<float>
$LN17@OnSkillSta:
  00040	c3		 ret	 0
__ehhandler$?OnSkillStart@ioGrapplingSwing2Skill@@UAE_NPAVioBaseChar@@@Z:
  00041	8b 54 24 08	 mov	 edx, DWORD PTR [esp+8]
  00045	8d 42 0c	 lea	 eax, DWORD PTR [edx+12]
  00048	8b 8a 5c ff ff
	ff		 mov	 ecx, DWORD PTR [edx-164]
  0004e	33 c8		 xor	 ecx, eax
  00050	e8 00 00 00 00	 call	 @__security_check_cookie@4
  00055	8b 4a fc	 mov	 ecx, DWORD PTR [edx-4]
  00058	33 c8		 xor	 ecx, eax
  0005a	e8 00 00 00 00	 call	 @__security_check_cookie@4
  0005f	b8 00 00 00 00	 mov	 eax, OFFSET __ehfuncinfo$?OnSkillStart@ioGrapplingSwing2Skill@@UAE_NPAVioBaseChar@@@Z
  00064	e9 00 00 00 00	 jmp	 ___CxxFrameHandler3
text$x	ENDS
?OnSkillStart@ioGrapplingSwing2Skill@@UAE_NPAVioBaseChar@@@Z ENDP ; ioGrapplingSwing2Skill::OnSkillStart
PUBLIC	?CheckSwingMove@ioGrapplingSwing2Skill@@IAEXPAVioBaseChar@@@Z ; ioGrapplingSwing2Skill::CheckSwingMove
EXTRN	?SetCurMoveSpeed@ioBaseChar@@QAEXM@Z:PROC	; ioBaseChar::SetCurMoveSpeed
; Function compile flags: /Ogsp
;	COMDAT ?CheckSwingMove@ioGrapplingSwing2Skill@@IAEXPAVioBaseChar@@@Z
_TEXT	SEGMENT
_value$540398 = 8					; size = 4
_pChar$ = 8						; size = 4
?CheckSwingMove@ioGrapplingSwing2Skill@@IAEXPAVioBaseChar@@@Z PROC ; ioGrapplingSwing2Skill::CheckSwingMove, COMDAT
; _this$ = ecx

; 357  : {

  00000	55		 push	 ebp
  00001	8b ec		 mov	 ebp, esp
  00003	56		 push	 esi
  00004	57		 push	 edi

; 358  : 	if( !pChar )

  00005	8b 7d 08	 mov	 edi, DWORD PTR _pChar$[ebp]
  00008	8b f1		 mov	 esi, ecx
  0000a	85 ff		 test	 edi, edi
  0000c	74 2f		 je	 SHORT $LN2@CheckSwing

; 359  : 		return;
; 360  : 
; 361  : 	CheckKeyInput( pChar );

  0000e	57		 push	 edi
  0000f	e8 00 00 00 00	 call	 ?CheckKeyInput@ioGrapplingSwing2Skill@@IAEXPAVioBaseChar@@@Z ; ioGrapplingSwing2Skill::CheckKeyInput

; 362  : 	ProcessRotate( pChar );

  00014	57		 push	 edi
  00015	8b ce		 mov	 ecx, esi
  00017	e8 00 00 00 00	 call	 ?ProcessRotate@ioGrapplingSwing2Skill@@IAEXPAVioBaseChar@@@Z ; ioGrapplingSwing2Skill::ProcessRotate

; 363  : 
; 364  : 	pChar->SetCurMoveSpeed( m_fMoveSpeed );

  0001c	8d 45 08	 lea	 eax, DWORD PTR _value$540398[ebp]
  0001f	50		 push	 eax
  00020	8d 8e 80 11 00
	00		 lea	 ecx, DWORD PTR [esi+4480]
  00026	e8 00 00 00 00	 call	 ?DecryptValueToPool@?$CEncrypt@M@@QAEXPAM@Z ; CEncrypt<float>::DecryptValueToPool
  0002b	f3 0f 10 45 08	 movss	 xmm0, DWORD PTR _value$540398[ebp]
  00030	51		 push	 ecx
  00031	8b cf		 mov	 ecx, edi
  00033	f3 0f 11 04 24	 movss	 DWORD PTR [esp], xmm0
  00038	e8 00 00 00 00	 call	 ?SetCurMoveSpeed@ioBaseChar@@QAEXM@Z ; ioBaseChar::SetCurMoveSpeed
$LN2@CheckSwing:
  0003d	5f		 pop	 edi
  0003e	5e		 pop	 esi

; 365  : }

  0003f	5d		 pop	 ebp
  00040	c2 04 00	 ret	 4
?CheckSwingMove@ioGrapplingSwing2Skill@@IAEXPAVioBaseChar@@@Z ENDP ; ioGrapplingSwing2Skill::CheckSwingMove
_TEXT	ENDS
PUBLIC	??$_Dest_val@V?$allocator@VioHashString@@@std@@VioHashString@@@std@@YAXAAV?$allocator@VioHashString@@@0@PAVioHashString@@@Z ; std::_Dest_val<std::allocator<ioHashString>,ioHashString>
; Function compile flags: /Ogsp
; File c:\program files (x86)\microsoft visual studio 10.0\vc\include\xmemory
;	COMDAT ??$_Dest_val@V?$allocator@VioHashString@@@std@@VioHashString@@@std@@YAXAAV?$allocator@VioHashString@@@0@PAVioHashString@@@Z
_TEXT	SEGMENT
__Alval$ = 8						; size = 4
__Pdest$ = 12						; size = 4
??$_Dest_val@V?$allocator@VioHashString@@@std@@VioHashString@@@std@@YAXAAV?$allocator@VioHashString@@@0@PAVioHashString@@@Z PROC ; std::_Dest_val<std::allocator<ioHashString>,ioHashString>, COMDAT

; 286  : 	{	// destroy using allocator

  00000	55		 push	 ebp
  00001	8b ec		 mov	 ebp, esp

; 287  : 	_Alval.destroy(_Pdest);

  00003	8b 4d 0c	 mov	 ecx, DWORD PTR __Pdest$[ebp]

; 288  : 	}

  00006	5d		 pop	 ebp

; 287  : 	_Alval.destroy(_Pdest);

  00007	ff 25 00 00 00
	00		 jmp	 DWORD PTR __imp_??1ioHashString@@QAE@XZ
??$_Dest_val@V?$allocator@VioHashString@@@std@@VioHashString@@@std@@YAXAAV?$allocator@VioHashString@@@0@PAVioHashString@@@Z ENDP ; std::_Dest_val<std::allocator<ioHashString>,ioHashString>
_TEXT	ENDS
PUBLIC	??$_Uninit_copy@PAVioHashString@@PAV1@V?$allocator@VioHashString@@@std@@@std@@YAPAVioHashString@@PAV1@00AAV?$allocator@VioHashString@@@0@U_Nonscalar_ptr_iterator_tag@0@@Z ; std::_Uninit_copy<ioHashString *,ioHashString *,std::allocator<ioHashString> >
EXTRN	__EH_prolog3_catch:PROC
;	COMDAT xdata$x
; File c:\program files (x86)\microsoft visual studio 10.0\vc\include\vector
xdata$x	SEGMENT
__catchsym$??$_Uninit_copy@PAVioHashString@@PAV1@V?$allocator@VioHashString@@@std@@@std@@YAPAVioHashString@@PAV1@00AAV?$allocator@VioHashString@@@0@U_Nonscalar_ptr_iterator_tag@0@@Z$2 DD 040H
	DD	00H
	DD	00H
	DD	FLAT:__catch$??$_Uninit_copy@PAVioHashString@@PAV1@V?$allocator@VioHashString@@@std@@@std@@YAPAVioHashString@@PAV1@00AAV?$allocator@VioHashString@@@0@U_Nonscalar_ptr_iterator_tag@0@@Z$0
__unwindtable$??$_Uninit_copy@PAVioHashString@@PAV1@V?$allocator@VioHashString@@@std@@@std@@YAPAVioHashString@@PAV1@00AAV?$allocator@VioHashString@@@0@U_Nonscalar_ptr_iterator_tag@0@@Z DD 0ffffffffH
	DD	00H
	DD	0ffffffffH
	DD	00H
__tryblocktable$??$_Uninit_copy@PAVioHashString@@PAV1@V?$allocator@VioHashString@@@std@@@std@@YAPAVioHashString@@PAV1@00AAV?$allocator@VioHashString@@@0@U_Nonscalar_ptr_iterator_tag@0@@Z DD 00H
	DD	00H
	DD	01H
	DD	01H
	DD	FLAT:__catchsym$??$_Uninit_copy@PAVioHashString@@PAV1@V?$allocator@VioHashString@@@std@@@std@@YAPAVioHashString@@PAV1@00AAV?$allocator@VioHashString@@@0@U_Nonscalar_ptr_iterator_tag@0@@Z$2
__ehfuncinfo$??$_Uninit_copy@PAVioHashString@@PAV1@V?$allocator@VioHashString@@@std@@@std@@YAPAVioHashString@@PAV1@00AAV?$allocator@VioHashString@@@0@U_Nonscalar_ptr_iterator_tag@0@@Z DD 019930522H
	DD	02H
	DD	FLAT:__unwindtable$??$_Uninit_copy@PAVioHashString@@PAV1@V?$allocator@VioHashString@@@std@@@std@@YAPAVioHashString@@PAV1@00AAV?$allocator@VioHashString@@@0@U_Nonscalar_ptr_iterator_tag@0@@Z
	DD	01H
	DD	FLAT:__tryblocktable$??$_Uninit_copy@PAVioHashString@@PAV1@V?$allocator@VioHashString@@@std@@@std@@YAPAVioHashString@@PAV1@00AAV?$allocator@VioHashString@@@0@U_Nonscalar_ptr_iterator_tag@0@@Z
	DD	2 DUP(00H)
	DD	00H
	DD	01H
; Function compile flags: /Ogsp
; File c:\program files (x86)\microsoft visual studio 10.0\vc\include\memory
xdata$x	ENDS
;	COMDAT ??$_Uninit_copy@PAVioHashString@@PAV1@V?$allocator@VioHashString@@@std@@@std@@YAPAVioHashString@@PAV1@00AAV?$allocator@VioHashString@@@0@U_Nonscalar_ptr_iterator_tag@0@@Z
_TEXT	SEGMENT
__Next$ = -20						; size = 4
__$EHRec$ = -16						; size = 16
__First$ = 8						; size = 4
__Last$ = 12						; size = 4
__Dest$ = 16						; size = 4
__Al$ = 20						; size = 4
___formal$ = 24						; size = 1
??$_Uninit_copy@PAVioHashString@@PAV1@V?$allocator@VioHashString@@@std@@@std@@YAPAVioHashString@@PAV1@00AAV?$allocator@VioHashString@@@0@U_Nonscalar_ptr_iterator_tag@0@@Z PROC ; std::_Uninit_copy<ioHashString *,ioHashString *,std::allocator<ioHashString> >, COMDAT

; 369  : 	{	// copy [_First, _Last) to raw _Dest, using _Al, arbitrary type

  00000	6a 08		 push	 8
  00002	b8 00 00 00 00	 mov	 eax, __ehhandler$??$_Uninit_copy@PAVioHashString@@PAV1@V?$allocator@VioHashString@@@std@@@std@@YAPAVioHashString@@PAV1@00AAV?$allocator@VioHashString@@@0@U_Nonscalar_ptr_iterator_tag@0@@Z
  00007	e8 00 00 00 00	 call	 __EH_prolog3_catch

; 370  : 	_DEBUG_RANGE(_First, _Last);
; 371  : 	_DEBUG_POINTER(_Dest);
; 372  : 	_FwdIt _Next = _Dest;

  0000c	8b 45 10	 mov	 eax, DWORD PTR __Dest$[ebp]

; 373  : 
; 374  : 	_TRY_BEGIN

  0000f	83 65 fc 00	 and	 DWORD PTR __$EHRec$[ebp+12], 0
  00013	8b 75 08	 mov	 esi, DWORD PTR __First$[ebp]
  00016	89 45 ec	 mov	 DWORD PTR __Next$[ebp], eax
$LL6@Uninit_cop:

; 375  : 	for (; _First != _Last; ++_Dest, ++_First)

  00019	3b 75 0c	 cmp	 esi, DWORD PTR __Last$[ebp]
  0001c	74 33		 je	 SHORT $LN4@Uninit_cop

; 376  : 		_Cons_val(_Al, _Dest, *_First);

  0001e	8b 4d 14	 mov	 ecx, DWORD PTR __Al$[ebp]
  00021	56		 push	 esi
  00022	ff 75 10	 push	 DWORD PTR __Dest$[ebp]
  00025	e8 00 00 00 00	 call	 ??$construct@AAVioHashString@@@?$allocator@VioHashString@@@std@@QAEXPAVioHashString@@AAV2@@Z ; std::allocator<ioHashString>::construct<ioHashString &>
  0002a	83 45 10 10	 add	 DWORD PTR __Dest$[ebp], 16 ; 00000010H
  0002e	83 c6 10	 add	 esi, 16			; 00000010H
  00031	eb e6		 jmp	 SHORT $LL6@Uninit_cop
__catch$??$_Uninit_copy@PAVioHashString@@PAV1@V?$allocator@VioHashString@@@std@@@std@@YAPAVioHashString@@PAV1@00AAV?$allocator@VioHashString@@@0@U_Nonscalar_ptr_iterator_tag@0@@Z$0:

; 377  : 	_CATCH_ALL
; 378  : 	for (; _Next != _Dest; ++_Next)

  00033	8b 75 ec	 mov	 esi, DWORD PTR __Next$[ebp]
  00036	eb 0b		 jmp	 SHORT $LN33@Uninit_cop
$LL3@Uninit_cop:

; 379  : 		_Dest_val(_Al, _Next);

  00038	8b ce		 mov	 ecx, esi
  0003a	ff 15 00 00 00
	00		 call	 DWORD PTR __imp_??1ioHashString@@QAE@XZ
  00040	83 c6 10	 add	 esi, 16			; 00000010H
$LN33@Uninit_cop:

; 377  : 	_CATCH_ALL
; 378  : 	for (; _Next != _Dest; ++_Next)

  00043	3b 75 10	 cmp	 esi, DWORD PTR __Dest$[ebp]
  00046	75 f0		 jne	 SHORT $LL3@Uninit_cop

; 380  : 	_RERAISE;

  00048	6a 00		 push	 0
  0004a	6a 00		 push	 0
  0004c	e8 00 00 00 00	 call	 __CxxThrowException@8
$LN34@Uninit_cop:
$LN4@Uninit_cop:

; 381  : 	_CATCH_END
; 382  : 	return (_Dest);

  00051	8b 45 10	 mov	 eax, DWORD PTR __Dest$[ebp]

; 383  : 	}

  00054	e8 00 00 00 00	 call	 __EH_epilog3
  00059	c3		 ret	 0
$LN32@Uninit_cop:
_TEXT	ENDS
;	COMDAT text$x
text$x	SEGMENT
__ehhandler$??$_Uninit_copy@PAVioHashString@@PAV1@V?$allocator@VioHashString@@@std@@@std@@YAPAVioHashString@@PAV1@00AAV?$allocator@VioHashString@@@0@U_Nonscalar_ptr_iterator_tag@0@@Z:
  00000	8b 54 24 08	 mov	 edx, DWORD PTR [esp+8]
  00004	8d 42 0c	 lea	 eax, DWORD PTR [edx+12]
  00007	8b 4a e8	 mov	 ecx, DWORD PTR [edx-24]
  0000a	33 c8		 xor	 ecx, eax
  0000c	e8 00 00 00 00	 call	 @__security_check_cookie@4
  00011	b8 00 00 00 00	 mov	 eax, OFFSET __ehfuncinfo$??$_Uninit_copy@PAVioHashString@@PAV1@V?$allocator@VioHashString@@@std@@@std@@YAPAVioHashString@@PAV1@00AAV?$allocator@VioHashString@@@0@U_Nonscalar_ptr_iterator_tag@0@@Z
  00016	e9 00 00 00 00	 jmp	 ___CxxFrameHandler3
text$x	ENDS
??$_Uninit_copy@PAVioHashString@@PAV1@V?$allocator@VioHashString@@@std@@@std@@YAPAVioHashString@@PAV1@00AAV?$allocator@VioHashString@@@0@U_Nonscalar_ptr_iterator_tag@0@@Z ENDP ; std::_Uninit_copy<ioHashString *,ioHashString *,std::allocator<ioHashString> >
PUBLIC	??$_Uninit_move@PAVioHashString@@PAV1@V?$allocator@VioHashString@@@std@@V1@@std@@YAPAVioHashString@@PAV1@00AAV?$allocator@VioHashString@@@0@0U_Nonscalar_ptr_iterator_tag@0@@Z ; std::_Uninit_move<ioHashString *,ioHashString *,std::allocator<ioHashString>,ioHashString>
;	COMDAT xdata$x
; File c:\program files (x86)\microsoft visual studio 10.0\vc\include\vector
xdata$x	SEGMENT
__catchsym$??$_Uninit_move@PAVioHashString@@PAV1@V?$allocator@VioHashString@@@std@@V1@@std@@YAPAVioHashString@@PAV1@00AAV?$allocator@VioHashString@@@0@0U_Nonscalar_ptr_iterator_tag@0@@Z$2 DD 040H
	DD	00H
	DD	00H
	DD	FLAT:__catch$??$_Uninit_move@PAVioHashString@@PAV1@V?$allocator@VioHashString@@@std@@V1@@std@@YAPAVioHashString@@PAV1@00AAV?$allocator@VioHashString@@@0@0U_Nonscalar_ptr_iterator_tag@0@@Z$0
__unwindtable$??$_Uninit_move@PAVioHashString@@PAV1@V?$allocator@VioHashString@@@std@@V1@@std@@YAPAVioHashString@@PAV1@00AAV?$allocator@VioHashString@@@0@0U_Nonscalar_ptr_iterator_tag@0@@Z DD 0ffffffffH
	DD	00H
	DD	0ffffffffH
	DD	00H
__tryblocktable$??$_Uninit_move@PAVioHashString@@PAV1@V?$allocator@VioHashString@@@std@@V1@@std@@YAPAVioHashString@@PAV1@00AAV?$allocator@VioHashString@@@0@0U_Nonscalar_ptr_iterator_tag@0@@Z DD 00H
	DD	00H
	DD	01H
	DD	01H
	DD	FLAT:__catchsym$??$_Uninit_move@PAVioHashString@@PAV1@V?$allocator@VioHashString@@@std@@V1@@std@@YAPAVioHashString@@PAV1@00AAV?$allocator@VioHashString@@@0@0U_Nonscalar_ptr_iterator_tag@0@@Z$2
__ehfuncinfo$??$_Uninit_move@PAVioHashString@@PAV1@V?$allocator@VioHashString@@@std@@V1@@std@@YAPAVioHashString@@PAV1@00AAV?$allocator@VioHashString@@@0@0U_Nonscalar_ptr_iterator_tag@0@@Z DD 019930522H
	DD	02H
	DD	FLAT:__unwindtable$??$_Uninit_move@PAVioHashString@@PAV1@V?$allocator@VioHashString@@@std@@V1@@std@@YAPAVioHashString@@PAV1@00AAV?$allocator@VioHashString@@@0@0U_Nonscalar_ptr_iterator_tag@0@@Z
	DD	01H
	DD	FLAT:__tryblocktable$??$_Uninit_move@PAVioHashString@@PAV1@V?$allocator@VioHashString@@@std@@V1@@std@@YAPAVioHashString@@PAV1@00AAV?$allocator@VioHashString@@@0@0U_Nonscalar_ptr_iterator_tag@0@@Z
	DD	2 DUP(00H)
	DD	00H
	DD	01H
; Function compile flags: /Ogsp
; File c:\program files (x86)\microsoft visual studio 10.0\vc\include\memory
xdata$x	ENDS
;	COMDAT ??$_Uninit_move@PAVioHashString@@PAV1@V?$allocator@VioHashString@@@std@@V1@@std@@YAPAVioHashString@@PAV1@00AAV?$allocator@VioHashString@@@0@0U_Nonscalar_ptr_iterator_tag@0@@Z
_TEXT	SEGMENT
__Next$ = -20						; size = 4
__$EHRec$ = -16						; size = 16
__First$ = 8						; size = 4
__Last$ = 12						; size = 4
__Dest$ = 16						; size = 4
__Al$ = 20						; size = 4
___formal$ = 24						; size = 4
___formal$ = 28						; size = 1
??$_Uninit_move@PAVioHashString@@PAV1@V?$allocator@VioHashString@@@std@@V1@@std@@YAPAVioHashString@@PAV1@00AAV?$allocator@VioHashString@@@0@0U_Nonscalar_ptr_iterator_tag@0@@Z PROC ; std::_Uninit_move<ioHashString *,ioHashString *,std::allocator<ioHashString>,ioHashString>, COMDAT

; 424  : 	{	// move [_First, _Last) to raw _Dest, using _Al, arbitrary type

  00000	6a 08		 push	 8
  00002	b8 00 00 00 00	 mov	 eax, __ehhandler$??$_Uninit_move@PAVioHashString@@PAV1@V?$allocator@VioHashString@@@std@@V1@@std@@YAPAVioHashString@@PAV1@00AAV?$allocator@VioHashString@@@0@0U_Nonscalar_ptr_iterator_tag@0@@Z
  00007	e8 00 00 00 00	 call	 __EH_prolog3_catch

; 425  : 	_DEBUG_RANGE(_First, _Last);
; 426  : 	_DEBUG_POINTER(_Dest);
; 427  : 	_FwdIt _Next = _Dest;

  0000c	8b 45 10	 mov	 eax, DWORD PTR __Dest$[ebp]

; 428  : 
; 429  : 	_TRY_BEGIN

  0000f	83 65 fc 00	 and	 DWORD PTR __$EHRec$[ebp+12], 0
  00013	8b 75 08	 mov	 esi, DWORD PTR __First$[ebp]
  00016	89 45 ec	 mov	 DWORD PTR __Next$[ebp], eax
$LL6@Uninit_mov:

; 430  : 	for (; _First != _Last; ++_Dest, ++_First)

  00019	3b 75 0c	 cmp	 esi, DWORD PTR __Last$[ebp]
  0001c	74 33		 je	 SHORT $LN4@Uninit_mov

; 431  : 		_Cons_val(_Al, _Dest, (_Valty &&)*_First);

  0001e	8b 4d 14	 mov	 ecx, DWORD PTR __Al$[ebp]
  00021	56		 push	 esi
  00022	ff 75 10	 push	 DWORD PTR __Dest$[ebp]
  00025	e8 00 00 00 00	 call	 ?construct@?$allocator@VioHashString@@@std@@QAEXPAVioHashString@@$$QAV3@@Z ; std::allocator<ioHashString>::construct
  0002a	83 45 10 10	 add	 DWORD PTR __Dest$[ebp], 16 ; 00000010H
  0002e	83 c6 10	 add	 esi, 16			; 00000010H
  00031	eb e6		 jmp	 SHORT $LL6@Uninit_mov
__catch$??$_Uninit_move@PAVioHashString@@PAV1@V?$allocator@VioHashString@@@std@@V1@@std@@YAPAVioHashString@@PAV1@00AAV?$allocator@VioHashString@@@0@0U_Nonscalar_ptr_iterator_tag@0@@Z$0:

; 432  : 	_CATCH_ALL
; 433  : 	for (; _Next != _Dest; ++_Next)

  00033	8b 75 ec	 mov	 esi, DWORD PTR __Next$[ebp]
  00036	eb 0b		 jmp	 SHORT $LN33@Uninit_mov
$LL3@Uninit_mov:

; 434  : 		_Dest_val(_Al, _Next);

  00038	8b ce		 mov	 ecx, esi
  0003a	ff 15 00 00 00
	00		 call	 DWORD PTR __imp_??1ioHashString@@QAE@XZ
  00040	83 c6 10	 add	 esi, 16			; 00000010H
$LN33@Uninit_mov:

; 432  : 	_CATCH_ALL
; 433  : 	for (; _Next != _Dest; ++_Next)

  00043	3b 75 10	 cmp	 esi, DWORD PTR __Dest$[ebp]
  00046	75 f0		 jne	 SHORT $LL3@Uninit_mov

; 435  : 	_RERAISE;

  00048	6a 00		 push	 0
  0004a	6a 00		 push	 0
  0004c	e8 00 00 00 00	 call	 __CxxThrowException@8
$LN34@Uninit_mov:
$LN4@Uninit_mov:

; 436  : 	_CATCH_END
; 437  : 	return (_Dest);

  00051	8b 45 10	 mov	 eax, DWORD PTR __Dest$[ebp]

; 438  : 	}

  00054	e8 00 00 00 00	 call	 __EH_epilog3
  00059	c3		 ret	 0
$LN32@Uninit_mov:
_TEXT	ENDS
;	COMDAT text$x
text$x	SEGMENT
__ehhandler$??$_Uninit_move@PAVioHashString@@PAV1@V?$allocator@VioHashString@@@std@@V1@@std@@YAPAVioHashString@@PAV1@00AAV?$allocator@VioHashString@@@0@0U_Nonscalar_ptr_iterator_tag@0@@Z:
  00000	8b 54 24 08	 mov	 edx, DWORD PTR [esp+8]
  00004	8d 42 0c	 lea	 eax, DWORD PTR [edx+12]
  00007	8b 4a e8	 mov	 ecx, DWORD PTR [edx-24]
  0000a	33 c8		 xor	 ecx, eax
  0000c	e8 00 00 00 00	 call	 @__security_check_cookie@4
  00011	b8 00 00 00 00	 mov	 eax, OFFSET __ehfuncinfo$??$_Uninit_move@PAVioHashString@@PAV1@V?$allocator@VioHashString@@@std@@V1@@std@@YAPAVioHashString@@PAV1@00AAV?$allocator@VioHashString@@@0@0U_Nonscalar_ptr_iterator_tag@0@@Z
  00016	e9 00 00 00 00	 jmp	 ___CxxFrameHandler3
text$x	ENDS
??$_Uninit_move@PAVioHashString@@PAV1@V?$allocator@VioHashString@@@std@@V1@@std@@YAPAVioHashString@@PAV1@00AAV?$allocator@VioHashString@@@0@0U_Nonscalar_ptr_iterator_tag@0@@Z ENDP ; std::_Uninit_move<ioHashString *,ioHashString *,std::allocator<ioHashString>,ioHashString>
PUBLIC	??$_Destroy_range@V?$allocator@VioHashString@@@std@@@std@@YAXPAVioHashString@@0AAV?$allocator@VioHashString@@@0@U_Nonscalar_ptr_iterator_tag@0@@Z ; std::_Destroy_range<std::allocator<ioHashString> >
; Function compile flags: /Ogsp
; File c:\program files (x86)\microsoft visual studio 10.0\vc\include\xmemory
;	COMDAT ??$_Destroy_range@V?$allocator@VioHashString@@@std@@@std@@YAXPAVioHashString@@0AAV?$allocator@VioHashString@@@0@U_Nonscalar_ptr_iterator_tag@0@@Z
_TEXT	SEGMENT
__First$ = 8						; size = 4
__Last$ = 12						; size = 4
__Al$ = 16						; size = 4
___formal$ = 20						; size = 1
??$_Destroy_range@V?$allocator@VioHashString@@@std@@@std@@YAXPAVioHashString@@0AAV?$allocator@VioHashString@@@0@U_Nonscalar_ptr_iterator_tag@0@@Z PROC ; std::_Destroy_range<std::allocator<ioHashString> >, COMDAT

; 95   : 	{	// destroy [_First, _Last), arbitrary type

  00000	55		 push	 ebp
  00001	8b ec		 mov	 ebp, esp
  00003	56		 push	 esi

; 96   : 	for (; _First != _Last; ++_First)

  00004	8b 75 08	 mov	 esi, DWORD PTR __First$[ebp]
  00007	eb 0b		 jmp	 SHORT $LN17@Destroy_ra
$LL3@Destroy_ra:

; 97   : 		_Dest_val(_Al, _First);

  00009	8b ce		 mov	 ecx, esi
  0000b	ff 15 00 00 00
	00		 call	 DWORD PTR __imp_??1ioHashString@@QAE@XZ
  00011	83 c6 10	 add	 esi, 16			; 00000010H
$LN17@Destroy_ra:

; 96   : 	for (; _First != _Last; ++_First)

  00014	3b 75 0c	 cmp	 esi, DWORD PTR __Last$[ebp]
  00017	75 f0		 jne	 SHORT $LL3@Destroy_ra
  00019	5e		 pop	 esi

; 98   : 	}

  0001a	5d		 pop	 ebp
  0001b	c3		 ret	 0
??$_Destroy_range@V?$allocator@VioHashString@@@std@@@std@@YAXPAVioHashString@@0AAV?$allocator@VioHashString@@@0@U_Nonscalar_ptr_iterator_tag@0@@Z ENDP ; std::_Destroy_range<std::allocator<ioHashString> >
_TEXT	ENDS
PUBLIC	??$_Uninit_copy@V?$_Vector_const_iterator@V?$_Vector_val@VioHashString@@V?$allocator@VioHashString@@@std@@@std@@@std@@PAVioHashString@@V?$allocator@VioHashString@@@2@@std@@YAPAVioHashString@@V?$_Vector_const_iterator@V?$_Vector_val@VioHashString@@V?$allocator@VioHashString@@@std@@@std@@@0@0PAV1@AAV?$allocator@VioHashString@@@0@U_Nonscalar_ptr_iterator_tag@0@@Z ; std::_Uninit_copy<std::_Vector_const_iterator<std::_Vector_val<ioHashString,std::allocator<ioHashString> > >,ioHashString *,std::allocator<ioHashString> >
;	COMDAT xdata$x
; File c:\program files (x86)\microsoft visual studio 10.0\vc\include\vector
xdata$x	SEGMENT
__catchsym$??$_Uninit_copy@V?$_Vector_const_iterator@V?$_Vector_val@VioHashString@@V?$allocator@VioHashString@@@std@@@std@@@std@@PAVioHashString@@V?$allocator@VioHashString@@@2@@std@@YAPAVioHashString@@V?$_Vector_const_iterator@V?$_Vector_val@VioHashString@@V?$allocator@VioHashString@@@std@@@std@@@0@0PAV1@AAV?$allocator@VioHashString@@@0@U_Nonscalar_ptr_iterator_tag@0@@Z$2 DD 040H
	DD	00H
	DD	00H
	DD	FLAT:__catch$??$_Uninit_copy@V?$_Vector_const_iterator@V?$_Vector_val@VioHashString@@V?$allocator@VioHashString@@@std@@@std@@@std@@PAVioHashString@@V?$allocator@VioHashString@@@2@@std@@YAPAVioHashString@@V?$_Vector_const_iterator@V?$_Vector_val@VioHashString@@V?$allocator@VioHashString@@@std@@@std@@@0@0PAV1@AAV?$allocator@VioHashString@@@0@U_Nonscalar_ptr_iterator_tag@0@@Z$0
__unwindtable$??$_Uninit_copy@V?$_Vector_const_iterator@V?$_Vector_val@VioHashString@@V?$allocator@VioHashString@@@std@@@std@@@std@@PAVioHashString@@V?$allocator@VioHashString@@@2@@std@@YAPAVioHashString@@V?$_Vector_const_iterator@V?$_Vector_val@VioHashString@@V?$allocator@VioHashString@@@std@@@std@@@0@0PAV1@AAV?$allocator@VioHashString@@@0@U_Nonscalar_ptr_iterator_tag@0@@Z DD 0ffffffffH
	DD	00H
	DD	0ffffffffH
	DD	00H
__tryblocktable$??$_Uninit_copy@V?$_Vector_const_iterator@V?$_Vector_val@VioHashString@@V?$allocator@VioHashString@@@std@@@std@@@std@@PAVioHashString@@V?$allocator@VioHashString@@@2@@std@@YAPAVioHashString@@V?$_Vector_const_iterator@V?$_Vector_val@VioHashString@@V?$allocator@VioHashString@@@std@@@std@@@0@0PAV1@AAV?$allocator@VioHashString@@@0@U_Nonscalar_ptr_iterator_tag@0@@Z DD 00H
	DD	00H
	DD	01H
	DD	01H
	DD	FLAT:__catchsym$??$_Uninit_copy@V?$_Vector_const_iterator@V?$_Vector_val@VioHashString@@V?$allocator@VioHashString@@@std@@@std@@@std@@PAVioHashString@@V?$allocator@VioHashString@@@2@@std@@YAPAVioHashString@@V?$_Vector_const_iterator@V?$_Vector_val@VioHashString@@V?$allocator@VioHashString@@@std@@@std@@@0@0PAV1@AAV?$allocator@VioHashString@@@0@U_Nonscalar_ptr_iterator_tag@0@@Z$2
__ehfuncinfo$??$_Uninit_copy@V?$_Vector_const_iterator@V?$_Vector_val@VioHashString@@V?$allocator@VioHashString@@@std@@@std@@@std@@PAVioHashString@@V?$allocator@VioHashString@@@2@@std@@YAPAVioHashString@@V?$_Vector_const_iterator@V?$_Vector_val@VioHashString@@V?$allocator@VioHashString@@@std@@@std@@@0@0PAV1@AAV?$allocator@VioHashString@@@0@U_Nonscalar_ptr_iterator_tag@0@@Z DD 019930522H
	DD	02H
	DD	FLAT:__unwindtable$??$_Uninit_copy@V?$_Vector_const_iterator@V?$_Vector_val@VioHashString@@V?$allocator@VioHashString@@@std@@@std@@@std@@PAVioHashString@@V?$allocator@VioHashString@@@2@@std@@YAPAVioHashString@@V?$_Vector_const_iterator@V?$_Vector_val@VioHashString@@V?$allocator@VioHashString@@@std@@@std@@@0@0PAV1@AAV?$allocator@VioHashString@@@0@U_Nonscalar_ptr_iterator_tag@0@@Z
	DD	01H
	DD	FLAT:__tryblocktable$??$_Uninit_copy@V?$_Vector_const_iterator@V?$_Vector_val@VioHashString@@V?$allocator@VioHashString@@@std@@@std@@@std@@PAVioHashString@@V?$allocator@VioHashString@@@2@@std@@YAPAVioHashString@@V?$_Vector_const_iterator@V?$_Vector_val@VioHashString@@V?$allocator@VioHashString@@@std@@@std@@@0@0PAV1@AAV?$allocator@VioHashString@@@0@U_Nonscalar_ptr_iterator_tag@0@@Z
	DD	2 DUP(00H)
	DD	00H
	DD	01H
; Function compile flags: /Ogsp
; File c:\program files (x86)\microsoft visual studio 10.0\vc\include\memory
xdata$x	ENDS
;	COMDAT ??$_Uninit_copy@V?$_Vector_const_iterator@V?$_Vector_val@VioHashString@@V?$allocator@VioHashString@@@std@@@std@@@std@@PAVioHashString@@V?$allocator@VioHashString@@@2@@std@@YAPAVioHashString@@V?$_Vector_const_iterator@V?$_Vector_val@VioHashString@@V?$allocator@VioHashString@@@std@@@std@@@0@0PAV1@AAV?$allocator@VioHashString@@@0@U_Nonscalar_ptr_iterator_tag@0@@Z
_TEXT	SEGMENT
__Next$ = -20						; size = 4
__$EHRec$ = -16						; size = 16
__First$ = 8						; size = 4
__Last$ = 12						; size = 4
__Dest$ = 16						; size = 4
__Al$ = 20						; size = 4
___formal$ = 24						; size = 1
??$_Uninit_copy@V?$_Vector_const_iterator@V?$_Vector_val@VioHashString@@V?$allocator@VioHashString@@@std@@@std@@@std@@PAVioHashString@@V?$allocator@VioHashString@@@2@@std@@YAPAVioHashString@@V?$_Vector_const_iterator@V?$_Vector_val@VioHashString@@V?$allocator@VioHashString@@@std@@@std@@@0@0PAV1@AAV?$allocator@VioHashString@@@0@U_Nonscalar_ptr_iterator_tag@0@@Z PROC ; std::_Uninit_copy<std::_Vector_const_iterator<std::_Vector_val<ioHashString,std::allocator<ioHashString> > >,ioHashString *,std::allocator<ioHashString> >, COMDAT

; 369  : 	{	// copy [_First, _Last) to raw _Dest, using _Al, arbitrary type

  00000	6a 08		 push	 8
  00002	b8 00 00 00 00	 mov	 eax, __ehhandler$??$_Uninit_copy@V?$_Vector_const_iterator@V?$_Vector_val@VioHashString@@V?$allocator@VioHashString@@@std@@@std@@@std@@PAVioHashString@@V?$allocator@VioHashString@@@2@@std@@YAPAVioHashString@@V?$_Vector_const_iterator@V?$_Vector_val@VioHashString@@V?$allocator@VioHashString@@@std@@@std@@@0@0PAV1@AAV?$allocator@VioHashString@@@0@U_Nonscalar_ptr_iterator_tag@0@@Z
  00007	e8 00 00 00 00	 call	 __EH_prolog3_catch

; 370  : 	_DEBUG_RANGE(_First, _Last);
; 371  : 	_DEBUG_POINTER(_Dest);
; 372  : 	_FwdIt _Next = _Dest;

  0000c	8b 45 10	 mov	 eax, DWORD PTR __Dest$[ebp]

; 373  : 
; 374  : 	_TRY_BEGIN

  0000f	83 65 fc 00	 and	 DWORD PTR __$EHRec$[ebp+12], 0
  00013	89 45 ec	 mov	 DWORD PTR __Next$[ebp], eax

; 375  : 	for (; _First != _Last; ++_Dest, ++_First)

$LL14@Uninit_cop@2:
  00016	8b 45 08	 mov	 eax, DWORD PTR __First$[ebp]
  00019	3b 45 0c	 cmp	 eax, DWORD PTR __Last$[ebp]
  0001c	74 33		 je	 SHORT $LN4@Uninit_cop@2

; 376  : 		_Cons_val(_Al, _Dest, *_First);

  0001e	50		 push	 eax
  0001f	ff 75 10	 push	 DWORD PTR __Dest$[ebp]
  00022	e8 00 00 00 00	 call	 ??$_Construct@VioHashString@@ABV1@@std@@YAXPAVioHashString@@ABV1@@Z ; std::_Construct<ioHashString,ioHashString const &>
  00027	83 45 10 10	 add	 DWORD PTR __Dest$[ebp], 16 ; 00000010H
  0002b	83 45 08 10	 add	 DWORD PTR __First$[ebp], 16 ; 00000010H
  0002f	59		 pop	 ecx
  00030	59		 pop	 ecx
  00031	eb e3		 jmp	 SHORT $LL14@Uninit_cop@2
__catch$??$_Uninit_copy@V?$_Vector_const_iterator@V?$_Vector_val@VioHashString@@V?$allocator@VioHashString@@@std@@@std@@@std@@PAVioHashString@@V?$allocator@VioHashString@@@2@@std@@YAPAVioHashString@@V?$_Vector_const_iterator@V?$_Vector_val@VioHashString@@V?$allocator@VioHashString@@@std@@@std@@@0@0PAV1@AAV?$allocator@VioHashString@@@0@U_Nonscalar_ptr_iterator_tag@0@@Z$0:

; 377  : 	_CATCH_ALL
; 378  : 	for (; _Next != _Dest; ++_Next)

  00033	8b 75 ec	 mov	 esi, DWORD PTR __Next$[ebp]
  00036	eb 0b		 jmp	 SHORT $LN45@Uninit_cop@2
$LL3@Uninit_cop@2:

; 379  : 		_Dest_val(_Al, _Next);

  00038	8b ce		 mov	 ecx, esi
  0003a	ff 15 00 00 00
	00		 call	 DWORD PTR __imp_??1ioHashString@@QAE@XZ
  00040	83 c6 10	 add	 esi, 16			; 00000010H
$LN45@Uninit_cop@2:

; 377  : 	_CATCH_ALL
; 378  : 	for (; _Next != _Dest; ++_Next)

  00043	3b 75 10	 cmp	 esi, DWORD PTR __Dest$[ebp]
  00046	75 f0		 jne	 SHORT $LL3@Uninit_cop@2

; 380  : 	_RERAISE;

  00048	6a 00		 push	 0
  0004a	6a 00		 push	 0
  0004c	e8 00 00 00 00	 call	 __CxxThrowException@8
$LN46@Uninit_cop@2:
$LN4@Uninit_cop@2:

; 381  : 	_CATCH_END
; 382  : 	return (_Dest);

  00051	8b 45 10	 mov	 eax, DWORD PTR __Dest$[ebp]

; 383  : 	}

  00054	e8 00 00 00 00	 call	 __EH_epilog3
  00059	c3		 ret	 0
$LN44@Uninit_cop@2:
_TEXT	ENDS
;	COMDAT text$x
text$x	SEGMENT
__ehhandler$??$_Uninit_copy@V?$_Vector_const_iterator@V?$_Vector_val@VioHashString@@V?$allocator@VioHashString@@@std@@@std@@@std@@PAVioHashString@@V?$allocator@VioHashString@@@2@@std@@YAPAVioHashString@@V?$_Vector_const_iterator@V?$_Vector_val@VioHashString@@V?$allocator@VioHashString@@@std@@@std@@@0@0PAV1@AAV?$allocator@VioHashString@@@0@U_Nonscalar_ptr_iterator_tag@0@@Z:
  00000	8b 54 24 08	 mov	 edx, DWORD PTR [esp+8]
  00004	8d 42 0c	 lea	 eax, DWORD PTR [edx+12]
  00007	8b 4a e8	 mov	 ecx, DWORD PTR [edx-24]
  0000a	33 c8		 xor	 ecx, eax
  0000c	e8 00 00 00 00	 call	 @__security_check_cookie@4
  00011	b8 00 00 00 00	 mov	 eax, OFFSET __ehfuncinfo$??$_Uninit_copy@V?$_Vector_const_iterator@V?$_Vector_val@VioHashString@@V?$allocator@VioHashString@@@std@@@std@@@std@@PAVioHashString@@V?$allocator@VioHashString@@@2@@std@@YAPAVioHashString@@V?$_Vector_const_iterator@V?$_Vector_val@VioHashString@@V?$allocator@VioHashString@@@std@@@std@@@0@0PAV1@AAV?$allocator@VioHashString@@@0@U_Nonscalar_ptr_iterator_tag@0@@Z
  00016	e9 00 00 00 00	 jmp	 ___CxxFrameHandler3
text$x	ENDS
??$_Uninit_copy@V?$_Vector_const_iterator@V?$_Vector_val@VioHashString@@V?$allocator@VioHashString@@@std@@@std@@@std@@PAVioHashString@@V?$allocator@VioHashString@@@2@@std@@YAPAVioHashString@@V?$_Vector_const_iterator@V?$_Vector_val@VioHashString@@V?$allocator@VioHashString@@@std@@@std@@@0@0PAV1@AAV?$allocator@VioHashString@@@0@U_Nonscalar_ptr_iterator_tag@0@@Z ENDP ; std::_Uninit_copy<std::_Vector_const_iterator<std::_Vector_val<ioHashString,std::allocator<ioHashString> > >,ioHashString *,std::allocator<ioHashString> >
PUBLIC	??$_Uninitialized_copy@PAVioHashString@@PAV1@V?$allocator@VioHashString@@@std@@@std@@YAPAVioHashString@@PAV1@00AAV?$allocator@VioHashString@@@0@@Z ; std::_Uninitialized_copy<ioHashString *,ioHashString *,std::allocator<ioHashString> >
; Function compile flags: /Ogsp
;	COMDAT ??$_Uninitialized_copy@PAVioHashString@@PAV1@V?$allocator@VioHashString@@@std@@@std@@YAPAVioHashString@@PAV1@00AAV?$allocator@VioHashString@@@0@@Z
_TEXT	SEGMENT
__Cat$540658 = -4					; size = 1
__First$ = 8						; size = 4
__Last$ = 12						; size = 4
__Dest$ = 16						; size = 4
__Al$ = 20						; size = 4
??$_Uninitialized_copy@PAVioHashString@@PAV1@V?$allocator@VioHashString@@@std@@@std@@YAPAVioHashString@@PAV1@00AAV?$allocator@VioHashString@@@0@@Z PROC ; std::_Uninitialized_copy<ioHashString *,ioHashString *,std::allocator<ioHashString> >, COMDAT

; 412  : 	{	// copy [_First, _Last) to raw _Dest, using _Al

  00000	55		 push	 ebp
  00001	8b ec		 mov	 ebp, esp
  00003	51		 push	 ecx

; 413  : 	return (_Uninit_copy(_First, _Last, _Dest, _Al,
; 414  : 		_Ptr_cat(_First, _Dest)));

  00004	ff 75 fc	 push	 DWORD PTR __Cat$540658[ebp]
  00007	ff 75 14	 push	 DWORD PTR __Al$[ebp]
  0000a	ff 75 10	 push	 DWORD PTR __Dest$[ebp]
  0000d	ff 75 0c	 push	 DWORD PTR __Last$[ebp]
  00010	ff 75 08	 push	 DWORD PTR __First$[ebp]
  00013	e8 00 00 00 00	 call	 ??$_Uninit_copy@PAVioHashString@@PAV1@V?$allocator@VioHashString@@@std@@@std@@YAPAVioHashString@@PAV1@00AAV?$allocator@VioHashString@@@0@U_Nonscalar_ptr_iterator_tag@0@@Z ; std::_Uninit_copy<ioHashString *,ioHashString *,std::allocator<ioHashString> >
  00018	83 c4 14	 add	 esp, 20			; 00000014H

; 415  : 	}

  0001b	c9		 leave
  0001c	c3		 ret	 0
??$_Uninitialized_copy@PAVioHashString@@PAV1@V?$allocator@VioHashString@@@std@@@std@@YAPAVioHashString@@PAV1@00AAV?$allocator@VioHashString@@@0@@Z ENDP ; std::_Uninitialized_copy<ioHashString *,ioHashString *,std::allocator<ioHashString> >
_TEXT	ENDS
PUBLIC	??$_Uninitialized_move@PAVioHashString@@PAV1@V?$allocator@VioHashString@@@std@@@std@@YAPAVioHashString@@PAV1@00AAV?$allocator@VioHashString@@@0@@Z ; std::_Uninitialized_move<ioHashString *,ioHashString *,std::allocator<ioHashString> >
; Function compile flags: /Ogsp
;	COMDAT ??$_Uninitialized_move@PAVioHashString@@PAV1@V?$allocator@VioHashString@@@std@@@std@@YAPAVioHashString@@PAV1@00AAV?$allocator@VioHashString@@@0@@Z
_TEXT	SEGMENT
__Cat$540665 = -4					; size = 1
__First$ = 8						; size = 4
__Last$ = 12						; size = 4
__Dest$ = 16						; size = 4
__Al$ = 20						; size = 4
??$_Uninitialized_move@PAVioHashString@@PAV1@V?$allocator@VioHashString@@@std@@@std@@YAPAVioHashString@@PAV1@00AAV?$allocator@VioHashString@@@0@@Z PROC ; std::_Uninitialized_move<ioHashString *,ioHashString *,std::allocator<ioHashString> >, COMDAT

; 469  : 	{	// move [_First, _Last) to raw _Dest, using _Al

  00000	55		 push	 ebp
  00001	8b ec		 mov	 ebp, esp
  00003	51		 push	 ecx

; 470  : 	return (_Uninit_move(_First, _Last, _Dest, _Al,
; 471  : 		_Val_type(_First), _Ptr_cat(_First, _Dest)));

  00004	ff 75 fc	 push	 DWORD PTR __Cat$540665[ebp]
  00007	6a 00		 push	 0
  00009	ff 75 14	 push	 DWORD PTR __Al$[ebp]
  0000c	ff 75 10	 push	 DWORD PTR __Dest$[ebp]
  0000f	ff 75 0c	 push	 DWORD PTR __Last$[ebp]
  00012	ff 75 08	 push	 DWORD PTR __First$[ebp]
  00015	e8 00 00 00 00	 call	 ??$_Uninit_move@PAVioHashString@@PAV1@V?$allocator@VioHashString@@@std@@V1@@std@@YAPAVioHashString@@PAV1@00AAV?$allocator@VioHashString@@@0@0U_Nonscalar_ptr_iterator_tag@0@@Z ; std::_Uninit_move<ioHashString *,ioHashString *,std::allocator<ioHashString>,ioHashString>
  0001a	83 c4 18	 add	 esp, 24			; 00000018H

; 472  : 	}

  0001d	c9		 leave
  0001e	c3		 ret	 0
??$_Uninitialized_move@PAVioHashString@@PAV1@V?$allocator@VioHashString@@@std@@@std@@YAPAVioHashString@@PAV1@00AAV?$allocator@VioHashString@@@0@@Z ENDP ; std::_Uninitialized_move<ioHashString *,ioHashString *,std::allocator<ioHashString> >
_TEXT	ENDS
PUBLIC	??$_Destroy_range@V?$allocator@VioHashString@@@std@@@std@@YAXPAVioHashString@@0AAV?$allocator@VioHashString@@@0@@Z ; std::_Destroy_range<std::allocator<ioHashString> >
; Function compile flags: /Ogsp
; File c:\program files (x86)\microsoft visual studio 10.0\vc\include\xmemory
;	COMDAT ??$_Destroy_range@V?$allocator@VioHashString@@@std@@@std@@YAXPAVioHashString@@0AAV?$allocator@VioHashString@@@0@@Z
_TEXT	SEGMENT
__First$ = 8						; size = 4
__Last$ = 12						; size = 4
__Al$ = 16						; size = 4
??$_Destroy_range@V?$allocator@VioHashString@@@std@@@std@@YAXPAVioHashString@@0AAV?$allocator@VioHashString@@@0@@Z PROC ; std::_Destroy_range<std::allocator<ioHashString> >, COMDAT

; 87   : 	{	// destroy [_First, _Last)

  00000	55		 push	 ebp
  00001	8b ec		 mov	 ebp, esp
  00003	56		 push	 esi

; 88   : 	_Destroy_range(_First, _Last, _Al, _Ptr_cat(_First, _Last));

  00004	8b 75 08	 mov	 esi, DWORD PTR __First$[ebp]
  00007	eb 0b		 jmp	 SHORT $LN21@Destroy_ra@2
$LL7@Destroy_ra@2:
  00009	8b ce		 mov	 ecx, esi
  0000b	ff 15 00 00 00
	00		 call	 DWORD PTR __imp_??1ioHashString@@QAE@XZ
  00011	83 c6 10	 add	 esi, 16			; 00000010H
$LN21@Destroy_ra@2:
  00014	3b 75 0c	 cmp	 esi, DWORD PTR __Last$[ebp]
  00017	75 f0		 jne	 SHORT $LL7@Destroy_ra@2
  00019	5e		 pop	 esi

; 89   : 	}

  0001a	5d		 pop	 ebp
  0001b	c3		 ret	 0
??$_Destroy_range@V?$allocator@VioHashString@@@std@@@std@@YAXPAVioHashString@@0AAV?$allocator@VioHashString@@@0@@Z ENDP ; std::_Destroy_range<std::allocator<ioHashString> >
_TEXT	ENDS
PUBLIC	??$_Uninitialized_copy@V?$_Vector_const_iterator@V?$_Vector_val@VioHashString@@V?$allocator@VioHashString@@@std@@@std@@@std@@PAVioHashString@@V?$allocator@VioHashString@@@2@@std@@YAPAVioHashString@@V?$_Vector_const_iterator@V?$_Vector_val@VioHashString@@V?$allocator@VioHashString@@@std@@@std@@@0@0PAV1@AAV?$allocator@VioHashString@@@0@@Z ; std::_Uninitialized_copy<std::_Vector_const_iterator<std::_Vector_val<ioHashString,std::allocator<ioHashString> > >,ioHashString *,std::allocator<ioHashString> >
; Function compile flags: /Ogsp
; File c:\program files (x86)\microsoft visual studio 10.0\vc\include\memory
;	COMDAT ??$_Uninitialized_copy@V?$_Vector_const_iterator@V?$_Vector_val@VioHashString@@V?$allocator@VioHashString@@@std@@@std@@@std@@PAVioHashString@@V?$allocator@VioHashString@@@2@@std@@YAPAVioHashString@@V?$_Vector_const_iterator@V?$_Vector_val@VioHashString@@V?$allocator@VioHashString@@@std@@@std@@@0@0PAV1@AAV?$allocator@VioHashString@@@0@@Z
_TEXT	SEGMENT
__Cat$540730 = -4					; size = 1
__First$ = 8						; size = 4
__Last$ = 12						; size = 4
__Dest$ = 16						; size = 4
__Al$ = 20						; size = 4
??$_Uninitialized_copy@V?$_Vector_const_iterator@V?$_Vector_val@VioHashString@@V?$allocator@VioHashString@@@std@@@std@@@std@@PAVioHashString@@V?$allocator@VioHashString@@@2@@std@@YAPAVioHashString@@V?$_Vector_const_iterator@V?$_Vector_val@VioHashString@@V?$allocator@VioHashString@@@std@@@std@@@0@0PAV1@AAV?$allocator@VioHashString@@@0@@Z PROC ; std::_Uninitialized_copy<std::_Vector_const_iterator<std::_Vector_val<ioHashString,std::allocator<ioHashString> > >,ioHashString *,std::allocator<ioHashString> >, COMDAT

; 412  : 	{	// copy [_First, _Last) to raw _Dest, using _Al

  00000	55		 push	 ebp
  00001	8b ec		 mov	 ebp, esp
  00003	51		 push	 ecx

; 413  : 	return (_Uninit_copy(_First, _Last, _Dest, _Al,
; 414  : 		_Ptr_cat(_First, _Dest)));

  00004	ff 75 fc	 push	 DWORD PTR __Cat$540730[ebp]
  00007	ff 75 14	 push	 DWORD PTR __Al$[ebp]
  0000a	ff 75 10	 push	 DWORD PTR __Dest$[ebp]
  0000d	ff 75 0c	 push	 DWORD PTR __Last$[ebp]
  00010	ff 75 08	 push	 DWORD PTR __First$[ebp]
  00013	e8 00 00 00 00	 call	 ??$_Uninit_copy@V?$_Vector_const_iterator@V?$_Vector_val@VioHashString@@V?$allocator@VioHashString@@@std@@@std@@@std@@PAVioHashString@@V?$allocator@VioHashString@@@2@@std@@YAPAVioHashString@@V?$_Vector_const_iterator@V?$_Vector_val@VioHashString@@V?$allocator@VioHashString@@@std@@@std@@@0@0PAV1@AAV?$allocator@VioHashString@@@0@U_Nonscalar_ptr_iterator_tag@0@@Z ; std::_Uninit_copy<std::_Vector_const_iterator<std::_Vector_val<ioHashString,std::allocator<ioHashString> > >,ioHashString *,std::allocator<ioHashString> >
  00018	83 c4 14	 add	 esp, 20			; 00000014H

; 415  : 	}

  0001b	c9		 leave
  0001c	c3		 ret	 0
??$_Uninitialized_copy@V?$_Vector_const_iterator@V?$_Vector_val@VioHashString@@V?$allocator@VioHashString@@@std@@@std@@@std@@PAVioHashString@@V?$allocator@VioHashString@@@2@@std@@YAPAVioHashString@@V?$_Vector_const_iterator@V?$_Vector_val@VioHashString@@V?$allocator@VioHashString@@@std@@@std@@@0@0PAV1@AAV?$allocator@VioHashString@@@0@@Z ENDP ; std::_Uninitialized_copy<std::_Vector_const_iterator<std::_Vector_val<ioHashString,std::allocator<ioHashString> > >,ioHashString *,std::allocator<ioHashString> >
_TEXT	ENDS
PUBLIC	??$_Ucopy@PAVioHashString@@@?$vector@VioHashString@@V?$allocator@VioHashString@@@std@@@std@@IAEPAVioHashString@@PAV2@00@Z ; std::vector<ioHashString,std::allocator<ioHashString> >::_Ucopy<ioHashString *>
; Function compile flags: /Ogsp
; File c:\program files (x86)\microsoft visual studio 10.0\vc\include\vector
;	COMDAT ??$_Ucopy@PAVioHashString@@@?$vector@VioHashString@@V?$allocator@VioHashString@@@std@@@std@@IAEPAVioHashString@@PAV2@00@Z
_TEXT	SEGMENT
__First$ = 8						; size = 4
__Last$ = 12						; size = 4
__Cat$540743 = 16					; size = 1
__Ptr$ = 16						; size = 4
??$_Ucopy@PAVioHashString@@@?$vector@VioHashString@@V?$allocator@VioHashString@@@std@@@std@@IAEPAVioHashString@@PAV2@00@Z PROC ; std::vector<ioHashString,std::allocator<ioHashString> >::_Ucopy<ioHashString *>, COMDAT
; _this$ = ecx

; 1315 : 		pointer _Ucopy(_Iter _First, _Iter _Last, pointer _Ptr)

  00000	55		 push	 ebp
  00001	8b ec		 mov	 ebp, esp

; 1316 : 		{	// copy initializing [_First, _Last), using allocator
; 1317 : 		return (_Uninitialized_copy(_First, _Last,
; 1318 : 			_Ptr, this->_Alval));

  00003	ff 75 10	 push	 DWORD PTR __Cat$540743[ebp]
  00006	83 c1 0c	 add	 ecx, 12			; 0000000cH
  00009	51		 push	 ecx
  0000a	ff 75 10	 push	 DWORD PTR __Ptr$[ebp]
  0000d	ff 75 0c	 push	 DWORD PTR __Last$[ebp]
  00010	ff 75 08	 push	 DWORD PTR __First$[ebp]
  00013	e8 00 00 00 00	 call	 ??$_Uninit_copy@PAVioHashString@@PAV1@V?$allocator@VioHashString@@@std@@@std@@YAPAVioHashString@@PAV1@00AAV?$allocator@VioHashString@@@0@U_Nonscalar_ptr_iterator_tag@0@@Z ; std::_Uninit_copy<ioHashString *,ioHashString *,std::allocator<ioHashString> >
  00018	83 c4 14	 add	 esp, 20			; 00000014H

; 1319 : 		}

  0001b	5d		 pop	 ebp
  0001c	c2 0c 00	 ret	 12			; 0000000cH
??$_Ucopy@PAVioHashString@@@?$vector@VioHashString@@V?$allocator@VioHashString@@@std@@@std@@IAEPAVioHashString@@PAV2@00@Z ENDP ; std::vector<ioHashString,std::allocator<ioHashString> >::_Ucopy<ioHashString *>
_TEXT	ENDS
PUBLIC	??$_Umove@PAVioHashString@@@?$vector@VioHashString@@V?$allocator@VioHashString@@@std@@@std@@IAEPAVioHashString@@PAV2@00@Z ; std::vector<ioHashString,std::allocator<ioHashString> >::_Umove<ioHashString *>
; Function compile flags: /Ogsp
;	COMDAT ??$_Umove@PAVioHashString@@@?$vector@VioHashString@@V?$allocator@VioHashString@@@std@@@std@@IAEPAVioHashString@@PAV2@00@Z
_TEXT	SEGMENT
__First$ = 8						; size = 4
__Last$ = 12						; size = 4
__Ptr$ = 16						; size = 4
??$_Umove@PAVioHashString@@@?$vector@VioHashString@@V?$allocator@VioHashString@@@std@@@std@@IAEPAVioHashString@@PAV2@00@Z PROC ; std::vector<ioHashString,std::allocator<ioHashString> >::_Umove<ioHashString *>, COMDAT
; _this$ = ecx

; 1322 : 		pointer _Umove(_Iter _First, _Iter _Last, pointer _Ptr)

  00000	55		 push	 ebp
  00001	8b ec		 mov	 ebp, esp

; 1323 : 		{	// move initializing [_First, _Last), using allocator
; 1324 : 		return (_Uninitialized_move(_First, _Last,
; 1325 : 			_Ptr, this->_Alval));

  00003	83 c1 0c	 add	 ecx, 12			; 0000000cH
  00006	51		 push	 ecx
  00007	ff 75 10	 push	 DWORD PTR __Ptr$[ebp]
  0000a	ff 75 0c	 push	 DWORD PTR __Last$[ebp]
  0000d	ff 75 08	 push	 DWORD PTR __First$[ebp]
  00010	e8 00 00 00 00	 call	 ??$_Uninitialized_move@PAVioHashString@@PAV1@V?$allocator@VioHashString@@@std@@@std@@YAPAVioHashString@@PAV1@00AAV?$allocator@VioHashString@@@0@@Z ; std::_Uninitialized_move<ioHashString *,ioHashString *,std::allocator<ioHashString> >
  00015	83 c4 10	 add	 esp, 16			; 00000010H

; 1326 : 		}

  00018	5d		 pop	 ebp
  00019	c2 0c 00	 ret	 12			; 0000000cH
??$_Umove@PAVioHashString@@@?$vector@VioHashString@@V?$allocator@VioHashString@@@std@@@std@@IAEPAVioHashString@@PAV2@00@Z ENDP ; std::vector<ioHashString,std::allocator<ioHashString> >::_Umove<ioHashString *>
_TEXT	ENDS
PUBLIC	?_Destroy@?$vector@VioHashString@@V?$allocator@VioHashString@@@std@@@std@@IAEXPAVioHashString@@0@Z ; std::vector<ioHashString,std::allocator<ioHashString> >::_Destroy
; Function compile flags: /Ogsp
;	COMDAT ?_Destroy@?$vector@VioHashString@@V?$allocator@VioHashString@@@std@@@std@@IAEXPAVioHashString@@0@Z
_TEXT	SEGMENT
__First$ = 8						; size = 4
__Last$ = 12						; size = 4
?_Destroy@?$vector@VioHashString@@V?$allocator@VioHashString@@@std@@@std@@IAEXPAVioHashString@@0@Z PROC ; std::vector<ioHashString,std::allocator<ioHashString> >::_Destroy, COMDAT
; _this$ = ecx

; 1269 : 		{	// destroy [_First, _Last) using allocator

  00000	55		 push	 ebp
  00001	8b ec		 mov	 ebp, esp
  00003	56		 push	 esi

; 1270 : 		_Destroy_range(_First, _Last, this->_Alval);

  00004	8b 75 08	 mov	 esi, DWORD PTR __First$[ebp]
  00007	eb 0b		 jmp	 SHORT $LN23@Destroy
$LL9@Destroy:
  00009	8b ce		 mov	 ecx, esi
  0000b	ff 15 00 00 00
	00		 call	 DWORD PTR __imp_??1ioHashString@@QAE@XZ
  00011	83 c6 10	 add	 esi, 16			; 00000010H
$LN23@Destroy:
  00014	3b 75 0c	 cmp	 esi, DWORD PTR __Last$[ebp]
  00017	75 f0		 jne	 SHORT $LL9@Destroy
  00019	5e		 pop	 esi

; 1271 : 		}

  0001a	5d		 pop	 ebp
  0001b	c2 08 00	 ret	 8
?_Destroy@?$vector@VioHashString@@V?$allocator@VioHashString@@@std@@@std@@IAEXPAVioHashString@@0@Z ENDP ; std::vector<ioHashString,std::allocator<ioHashString> >::_Destroy
_TEXT	ENDS
PUBLIC	??$_Ucopy@V?$_Vector_const_iterator@V?$_Vector_val@VioHashString@@V?$allocator@VioHashString@@@std@@@std@@@std@@@?$vector@VioHashString@@V?$allocator@VioHashString@@@std@@@std@@IAEPAVioHashString@@V?$_Vector_const_iterator@V?$_Vector_val@VioHashString@@V?$allocator@VioHashString@@@std@@@std@@@1@0PAV2@@Z ; std::vector<ioHashString,std::allocator<ioHashString> >::_Ucopy<std::_Vector_const_iterator<std::_Vector_val<ioHashString,std::allocator<ioHashString> > > >
; Function compile flags: /Ogsp
;	COMDAT ??$_Ucopy@V?$_Vector_const_iterator@V?$_Vector_val@VioHashString@@V?$allocator@VioHashString@@@std@@@std@@@std@@@?$vector@VioHashString@@V?$allocator@VioHashString@@@std@@@std@@IAEPAVioHashString@@V?$_Vector_const_iterator@V?$_Vector_val@VioHashString@@V?$allocator@VioHashString@@@std@@@std@@@1@0PAV2@@Z
_TEXT	SEGMENT
__First$ = 8						; size = 4
__Last$ = 12						; size = 4
__Cat$540833 = 16					; size = 1
__Ptr$ = 16						; size = 4
??$_Ucopy@V?$_Vector_const_iterator@V?$_Vector_val@VioHashString@@V?$allocator@VioHashString@@@std@@@std@@@std@@@?$vector@VioHashString@@V?$allocator@VioHashString@@@std@@@std@@IAEPAVioHashString@@V?$_Vector_const_iterator@V?$_Vector_val@VioHashString@@V?$allocator@VioHashString@@@std@@@std@@@1@0PAV2@@Z PROC ; std::vector<ioHashString,std::allocator<ioHashString> >::_Ucopy<std::_Vector_const_iterator<std::_Vector_val<ioHashString,std::allocator<ioHashString> > > >, COMDAT
; _this$ = ecx

; 1315 : 		pointer _Ucopy(_Iter _First, _Iter _Last, pointer _Ptr)

  00000	55		 push	 ebp
  00001	8b ec		 mov	 ebp, esp

; 1316 : 		{	// copy initializing [_First, _Last), using allocator
; 1317 : 		return (_Uninitialized_copy(_First, _Last,
; 1318 : 			_Ptr, this->_Alval));

  00003	ff 75 10	 push	 DWORD PTR __Cat$540833[ebp]
  00006	83 c1 0c	 add	 ecx, 12			; 0000000cH
  00009	51		 push	 ecx
  0000a	ff 75 10	 push	 DWORD PTR __Ptr$[ebp]
  0000d	ff 75 0c	 push	 DWORD PTR __Last$[ebp]
  00010	ff 75 08	 push	 DWORD PTR __First$[ebp]
  00013	e8 00 00 00 00	 call	 ??$_Uninit_copy@V?$_Vector_const_iterator@V?$_Vector_val@VioHashString@@V?$allocator@VioHashString@@@std@@@std@@@std@@PAVioHashString@@V?$allocator@VioHashString@@@2@@std@@YAPAVioHashString@@V?$_Vector_const_iterator@V?$_Vector_val@VioHashString@@V?$allocator@VioHashString@@@std@@@std@@@0@0PAV1@AAV?$allocator@VioHashString@@@0@U_Nonscalar_ptr_iterator_tag@0@@Z ; std::_Uninit_copy<std::_Vector_const_iterator<std::_Vector_val<ioHashString,std::allocator<ioHashString> > >,ioHashString *,std::allocator<ioHashString> >
  00018	83 c4 14	 add	 esp, 20			; 00000014H

; 1319 : 		}

  0001b	5d		 pop	 ebp
  0001c	c2 0c 00	 ret	 12			; 0000000cH
??$_Ucopy@V?$_Vector_const_iterator@V?$_Vector_val@VioHashString@@V?$allocator@VioHashString@@@std@@@std@@@std@@@?$vector@VioHashString@@V?$allocator@VioHashString@@@std@@@std@@IAEPAVioHashString@@V?$_Vector_const_iterator@V?$_Vector_val@VioHashString@@V?$allocator@VioHashString@@@std@@@std@@@1@0PAV2@@Z ENDP ; std::vector<ioHashString,std::allocator<ioHashString> >::_Ucopy<std::_Vector_const_iterator<std::_Vector_val<ioHashString,std::allocator<ioHashString> > > >
_TEXT	ENDS
PUBLIC	?reserve@?$vector@VioHashString@@V?$allocator@VioHashString@@@std@@@std@@QAEXI@Z ; std::vector<ioHashString,std::allocator<ioHashString> >::reserve
EXTRN	__imp_?_Orphan_all@_Container_base0@std@@QAEXXZ:PROC
;	COMDAT xdata$x
; File c:\program files (x86)\microsoft visual studio 10.0\vc\include\xmemory
xdata$x	SEGMENT
__catchsym$?reserve@?$vector@VioHashString@@V?$allocator@VioHashString@@@std@@@std@@QAEXI@Z$2 DD 040H
	DD	00H
	DD	00H
	DD	FLAT:__catch$?reserve@?$vector@VioHashString@@V?$allocator@VioHashString@@@std@@@std@@QAEXI@Z$0
__unwindtable$?reserve@?$vector@VioHashString@@V?$allocator@VioHashString@@@std@@@std@@QAEXI@Z DD 0ffffffffH
	DD	00H
	DD	0ffffffffH
	DD	00H
__tryblocktable$?reserve@?$vector@VioHashString@@V?$allocator@VioHashString@@@std@@@std@@QAEXI@Z DD 00H
	DD	00H
	DD	01H
	DD	01H
	DD	FLAT:__catchsym$?reserve@?$vector@VioHashString@@V?$allocator@VioHashString@@@std@@@std@@QAEXI@Z$2
__ehfuncinfo$?reserve@?$vector@VioHashString@@V?$allocator@VioHashString@@@std@@@std@@QAEXI@Z DD 019930522H
	DD	02H
	DD	FLAT:__unwindtable$?reserve@?$vector@VioHashString@@V?$allocator@VioHashString@@@std@@@std@@QAEXI@Z
	DD	01H
	DD	FLAT:__tryblocktable$?reserve@?$vector@VioHashString@@V?$allocator@VioHashString@@@std@@@std@@QAEXI@Z
	DD	2 DUP(00H)
	DD	00H
	DD	01H
; Function compile flags: /Ogsp
; File c:\program files (x86)\microsoft visual studio 10.0\vc\include\vector
xdata$x	ENDS
;	COMDAT ?reserve@?$vector@VioHashString@@V?$allocator@VioHashString@@@std@@@std@@QAEXI@Z
_TEXT	SEGMENT
tv300 = -24						; size = 4
__Ptr$533571 = -20					; size = 4
__$EHRec$ = -16						; size = 16
$T540931 = 8						; size = 4
__Count$ = 8						; size = 4
?reserve@?$vector@VioHashString@@V?$allocator@VioHashString@@@std@@@std@@QAEXI@Z PROC ; std::vector<ioHashString,std::allocator<ioHashString> >::reserve, COMDAT
; _this$ = ecx

; 746  : 		{	// determine new minimum length of allocated storage

  00000	6a 0c		 push	 12			; 0000000cH
  00002	b8 00 00 00 00	 mov	 eax, __ehhandler$?reserve@?$vector@VioHashString@@V?$allocator@VioHashString@@@std@@@std@@QAEXI@Z
  00007	e8 00 00 00 00	 call	 __EH_prolog3_catch
  0000c	8b f1		 mov	 esi, ecx

; 747  : 		if (max_size() < _Count)

  0000e	8b 5d 08	 mov	 ebx, DWORD PTR __Count$[ebp]
  00011	81 fb ff ff ff
	0f		 cmp	 ebx, 268435455		; 0fffffffH
  00017	76 0b		 jbe	 SHORT $LN5@reserve

; 748  : 			_Xlen();	// result too long

  00019	68 00 00 00 00	 push	 OFFSET ??_C@_0BD@OLBABOEK@vector?$DMT?$DO?5too?5long?$AA@
  0001e	ff 15 00 00 00
	00		 call	 DWORD PTR __imp_?_Xlength_error@std@@YAXPBD@Z
$LN59@reserve:
$LN5@reserve:

; 749  : 		else if (capacity() < _Count)

  00024	8b 46 08	 mov	 eax, DWORD PTR [esi+8]
  00027	2b 06		 sub	 eax, DWORD PTR [esi]
  00029	c1 f8 04	 sar	 eax, 4
  0002c	3b c3		 cmp	 eax, ebx
  0002e	73 7a		 jae	 SHORT $LN3@reserve

; 750  : 			{	// not enough room, reallocate
; 751  : 			pointer _Ptr = this->_Alval.allocate(_Count);

  00030	6a 00		 push	 0
  00032	53		 push	 ebx
  00033	e8 00 00 00 00	 call	 ??$_Allocate@VioHashString@@@std@@YAPAVioHashString@@IPAV1@@Z ; std::_Allocate<ioHashString>

; 752  : 
; 753  : 			_TRY_BEGIN
; 754  : 			_Umove(this->_Myfirst, this->_Mylast, _Ptr);

  00038	8b 0e		 mov	 ecx, DWORD PTR [esi]
  0003a	83 65 fc 00	 and	 DWORD PTR __$EHRec$[ebp+12], 0
  0003e	8d 56 0c	 lea	 edx, DWORD PTR [esi+12]
  00041	52		 push	 edx
  00042	89 45 ec	 mov	 DWORD PTR __Ptr$533571[ebp], eax
  00045	ff 75 ec	 push	 DWORD PTR __Ptr$533571[ebp]
  00048	8b 46 04	 mov	 eax, DWORD PTR [esi+4]
  0004b	50		 push	 eax
  0004c	51		 push	 ecx
  0004d	e8 00 00 00 00	 call	 ??$_Uninitialized_move@PAVioHashString@@PAV1@V?$allocator@VioHashString@@@std@@@std@@YAPAVioHashString@@PAV1@00AAV?$allocator@VioHashString@@@0@@Z ; std::_Uninitialized_move<ioHashString *,ioHashString *,std::allocator<ioHashString> >

; 758  : 			_CATCH_END
; 759  : 
; 760  : 			size_type _Size = size();

  00052	8b 4e 04	 mov	 ecx, DWORD PTR [esi+4]
  00055	8b 06		 mov	 eax, DWORD PTR [esi]
  00057	83 4d fc ff	 or	 DWORD PTR __$EHRec$[ebp+12], -1
  0005b	8b f9		 mov	 edi, ecx
  0005d	83 c4 18	 add	 esp, 24			; 00000018H
  00060	2b f8		 sub	 edi, eax
  00062	89 4d e8	 mov	 DWORD PTR tv300[ebp], ecx
  00065	85 c0		 test	 eax, eax
  00067	74 24		 je	 SHORT $LN51@reserve

; 761  : 			if (this->_Myfirst != 0)
; 762  : 				{	// destroy and deallocate old array
; 763  : 				_Destroy(this->_Myfirst, this->_Mylast);

  00069	89 45 08	 mov	 DWORD PTR $T540931[ebp], eax
  0006c	3b c1		 cmp	 eax, ecx
  0006e	74 15		 je	 SHORT $LN37@reserve
$LN39@reserve:
  00070	8b 4d 08	 mov	 ecx, DWORD PTR $T540931[ebp]
  00073	ff 15 00 00 00
	00		 call	 DWORD PTR __imp_??1ioHashString@@QAE@XZ
  00079	83 45 08 10	 add	 DWORD PTR $T540931[ebp], 16 ; 00000010H
  0007d	8b 45 08	 mov	 eax, DWORD PTR $T540931[ebp]
  00080	3b 45 e8	 cmp	 eax, DWORD PTR tv300[ebp]
  00083	75 eb		 jne	 SHORT $LN39@reserve
$LN37@reserve:

; 764  : 				this->_Alval.deallocate(this->_Myfirst,
; 765  : 					this->_Myend - this->_Myfirst);

  00085	ff 36		 push	 DWORD PTR [esi]
  00087	e8 00 00 00 00	 call	 ??3@YAXPAX@Z		; operator delete
  0008c	59		 pop	 ecx
$LN51@reserve:

; 766  : 				}
; 767  : 
; 768  : 			this->_Orphan_all();

  0008d	8b ce		 mov	 ecx, esi
  0008f	ff 15 00 00 00
	00		 call	 DWORD PTR __imp_?_Orphan_all@_Container_base0@std@@QAEXXZ

; 769  : 			this->_Myend = _Ptr + _Count;

  00095	8b 45 ec	 mov	 eax, DWORD PTR __Ptr$533571[ebp]
  00098	c1 e3 04	 shl	 ebx, 4
  0009b	03 d8		 add	 ebx, eax

; 770  : 			this->_Mylast = _Ptr + _Size;

  0009d	83 e7 f0	 and	 edi, -16		; fffffff0H
  000a0	03 f8		 add	 edi, eax
  000a2	89 5e 08	 mov	 DWORD PTR [esi+8], ebx
  000a5	89 7e 04	 mov	 DWORD PTR [esi+4], edi

; 771  : 			this->_Myfirst = _Ptr;

  000a8	89 06		 mov	 DWORD PTR [esi], eax
$LN3@reserve:

; 772  : 			}
; 773  : 		}

  000aa	e8 00 00 00 00	 call	 __EH_epilog3
  000af	c2 04 00	 ret	 4
__catch$?reserve@?$vector@VioHashString@@V?$allocator@VioHashString@@@std@@@std@@QAEXI@Z$0:

; 755  : 			_CATCH_ALL
; 756  : 			this->_Alval.deallocate(_Ptr, _Count);

  000b2	ff 75 ec	 push	 DWORD PTR __Ptr$533571[ebp]
  000b5	e8 00 00 00 00	 call	 ??3@YAXPAX@Z		; operator delete
  000ba	59		 pop	 ecx

; 757  : 			_RERAISE;

  000bb	6a 00		 push	 0
  000bd	6a 00		 push	 0
  000bf	e8 00 00 00 00	 call	 __CxxThrowException@8
$LN60@reserve:
$LN58@reserve:
  000c4	cc		 int	 3
_TEXT	ENDS
;	COMDAT text$x
text$x	SEGMENT
__ehhandler$?reserve@?$vector@VioHashString@@V?$allocator@VioHashString@@@std@@@std@@QAEXI@Z:
  00000	8b 54 24 08	 mov	 edx, DWORD PTR [esp+8]
  00004	8d 42 0c	 lea	 eax, DWORD PTR [edx+12]
  00007	8b 4a e4	 mov	 ecx, DWORD PTR [edx-28]
  0000a	33 c8		 xor	 ecx, eax
  0000c	e8 00 00 00 00	 call	 @__security_check_cookie@4
  00011	b8 00 00 00 00	 mov	 eax, OFFSET __ehfuncinfo$?reserve@?$vector@VioHashString@@V?$allocator@VioHashString@@@std@@@std@@QAEXI@Z
  00016	e9 00 00 00 00	 jmp	 ___CxxFrameHandler3
text$x	ENDS
?reserve@?$vector@VioHashString@@V?$allocator@VioHashString@@@std@@@std@@QAEXI@Z ENDP ; std::vector<ioHashString,std::allocator<ioHashString> >::reserve
PUBLIC	?erase@?$vector@VioHashString@@V?$allocator@VioHashString@@@std@@@std@@QAE?AV?$_Vector_iterator@V?$_Vector_val@VioHashString@@V?$allocator@VioHashString@@@std@@@std@@@2@V?$_Vector_const_iterator@V?$_Vector_val@VioHashString@@V?$allocator@VioHashString@@@std@@@std@@@2@0@Z ; std::vector<ioHashString,std::allocator<ioHashString> >::erase
; Function compile flags: /Ogsp
;	COMDAT ?erase@?$vector@VioHashString@@V?$allocator@VioHashString@@@std@@@std@@QAE?AV?$_Vector_iterator@V?$_Vector_val@VioHashString@@V?$allocator@VioHashString@@@std@@@std@@@2@V?$_Vector_const_iterator@V?$_Vector_val@VioHashString@@V?$allocator@VioHashString@@@std@@@std@@@2@0@Z
_TEXT	SEGMENT
$T541126 = -4						; size = 4
___$ReturnUdt$ = 8					; size = 4
__First_arg$ = 12					; size = 4
__Cat$541071 = 16					; size = 1
__Last_arg$ = 16					; size = 4
?erase@?$vector@VioHashString@@V?$allocator@VioHashString@@@std@@@std@@QAE?AV?$_Vector_iterator@V?$_Vector_val@VioHashString@@V?$allocator@VioHashString@@@std@@@std@@@2@V?$_Vector_const_iterator@V?$_Vector_val@VioHashString@@V?$allocator@VioHashString@@@std@@@std@@@2@0@Z PROC ; std::vector<ioHashString,std::allocator<ioHashString> >::erase, COMDAT
; _this$ = ecx

; 1190 : 		{	// erase [_First, _Last)

  00000	55		 push	 ebp
  00001	8b ec		 mov	 ebp, esp
  00003	51		 push	 ecx

; 1191 : 		iterator _First = _Make_iter(_First_arg);

  00004	8b 45 08	 mov	 eax, DWORD PTR ___$ReturnUdt$[ebp]
  00007	56		 push	 esi
  00008	8b f1		 mov	 esi, ecx
  0000a	8b 4d 0c	 mov	 ecx, DWORD PTR __First_arg$[ebp]
  0000d	89 08		 mov	 DWORD PTR [eax], ecx

; 1192 : 		iterator _Last = _Make_iter(_Last_arg);
; 1193 : 
; 1194 : 		if (_First != _Last)

  0000f	3b 4d 10	 cmp	 ecx, DWORD PTR __Last_arg$[ebp]
  00012	74 38		 je	 SHORT $LN1@erase

; 1195 : 			{	// worth doing, copy down over hole
; 1196 :  #if _ITERATOR_DEBUG_LEVEL == 2
; 1197 : 			if (_Last < _First || _VICONT(_First) != this
; 1198 : 				|| _VIPTR(_First) < this->_Myfirst
; 1199 : 				|| this->_Mylast < _VIPTR(_Last))
; 1200 : 				_DEBUG_ERROR("vector erase iterator outside range");
; 1201 : 			pointer _Ptr = _Move(_VIPTR(_Last), this->_Mylast,
; 1202 : 				_VIPTR(_First));
; 1203 : 			_Orphan_range(_VIPTR(_First), this->_Mylast);
; 1204 : 
; 1205 :  #else /* _ITERATOR_DEBUG_LEVEL == 2 */
; 1206 : 			pointer _Ptr = _Move(_VIPTR(_Last), this->_Mylast,
; 1207 : 				_VIPTR(_First));

  00014	8b 46 04	 mov	 eax, DWORD PTR [esi+4]
  00017	53		 push	 ebx
  00018	57		 push	 edi
  00019	ff 75 10	 push	 DWORD PTR __Cat$541071[ebp]
  0001c	51		 push	 ecx
  0001d	50		 push	 eax
  0001e	ff 75 10	 push	 DWORD PTR __Last_arg$[ebp]
  00021	e8 00 00 00 00	 call	 ??$_Move@PAVioHashString@@PAV1@@std@@YAPAVioHashString@@PAV1@00U_Nonscalar_ptr_iterator_tag@0@@Z ; std::_Move<ioHashString *,ioHashString *>

; 1208 :  #endif /* _ITERATOR_DEBUG_LEVEL == 2 */
; 1209 : 
; 1210 : 			_Destroy(_Ptr, this->_Mylast);

  00026	8b 7e 04	 mov	 edi, DWORD PTR [esi+4]
  00029	8b d8		 mov	 ebx, eax
  0002b	83 c4 10	 add	 esp, 16			; 00000010H
  0002e	89 5d fc	 mov	 DWORD PTR $T541126[ebp], ebx
  00031	3b df		 cmp	 ebx, edi
  00033	74 12		 je	 SHORT $LN36@erase
$LL52@erase:
  00035	8b 4d fc	 mov	 ecx, DWORD PTR $T541126[ebp]
  00038	ff 15 00 00 00
	00		 call	 DWORD PTR __imp_??1ioHashString@@QAE@XZ
  0003e	83 45 fc 10	 add	 DWORD PTR $T541126[ebp], 16 ; 00000010H
  00042	39 7d fc	 cmp	 DWORD PTR $T541126[ebp], edi
  00045	75 ee		 jne	 SHORT $LL52@erase
$LN36@erase:

; 1211 : 			this->_Mylast = _Ptr;

  00047	5f		 pop	 edi
  00048	89 5e 04	 mov	 DWORD PTR [esi+4], ebx
  0004b	5b		 pop	 ebx
$LN1@erase:

; 1212 : 			}
; 1213 : 		return (_First);

  0004c	8b 45 08	 mov	 eax, DWORD PTR ___$ReturnUdt$[ebp]
  0004f	5e		 pop	 esi

; 1214 : 		}

  00050	c9		 leave
  00051	c2 0c 00	 ret	 12			; 0000000cH
?erase@?$vector@VioHashString@@V?$allocator@VioHashString@@@std@@@std@@QAE?AV?$_Vector_iterator@V?$_Vector_val@VioHashString@@V?$allocator@VioHashString@@@std@@@std@@@2@V?$_Vector_const_iterator@V?$_Vector_val@VioHashString@@V?$allocator@VioHashString@@@std@@@std@@@2@0@Z ENDP ; std::vector<ioHashString,std::allocator<ioHashString> >::erase
_TEXT	ENDS
PUBLIC	?_Tidy@?$vector@VioHashString@@V?$allocator@VioHashString@@@std@@@std@@IAEXXZ ; std::vector<ioHashString,std::allocator<ioHashString> >::_Tidy
; Function compile flags: /Ogsp
;	COMDAT ?_Tidy@?$vector@VioHashString@@V?$allocator@VioHashString@@@std@@@std@@IAEXXZ
_TEXT	SEGMENT
?_Tidy@?$vector@VioHashString@@V?$allocator@VioHashString@@@std@@@std@@IAEXXZ PROC ; std::vector<ioHashString,std::allocator<ioHashString> >::_Tidy, COMDAT
; _this$ = ecx

; 1301 : 		{	// free all storage

  00000	56		 push	 esi
  00001	8b f1		 mov	 esi, ecx

; 1302 : 		if (this->_Myfirst != 0)

  00003	83 3e 00	 cmp	 DWORD PTR [esi], 0
  00006	74 28		 je	 SHORT $LN24@Tidy

; 1303 : 			{	// something to free, destroy and deallocate it
; 1304 : 			this->_Orphan_all();

  00008	53		 push	 ebx
  00009	57		 push	 edi
  0000a	ff 15 00 00 00
	00		 call	 DWORD PTR __imp_?_Orphan_all@_Container_base0@std@@QAEXXZ

; 1305 : 			_Destroy(this->_Myfirst, this->_Mylast);

  00010	8b 5e 04	 mov	 ebx, DWORD PTR [esi+4]
  00013	8b 3e		 mov	 edi, DWORD PTR [esi]
  00015	eb 0b		 jmp	 SHORT $LN28@Tidy
$LL12@Tidy:
  00017	8b cf		 mov	 ecx, edi
  00019	ff 15 00 00 00
	00		 call	 DWORD PTR __imp_??1ioHashString@@QAE@XZ
  0001f	83 c7 10	 add	 edi, 16			; 00000010H
$LN28@Tidy:
  00022	3b fb		 cmp	 edi, ebx
  00024	75 f1		 jne	 SHORT $LL12@Tidy

; 1306 : 			this->_Alval.deallocate(this->_Myfirst,
; 1307 : 				this->_Myend - this->_Myfirst);

  00026	ff 36		 push	 DWORD PTR [esi]
  00028	e8 00 00 00 00	 call	 ??3@YAXPAX@Z		; operator delete
  0002d	59		 pop	 ecx
  0002e	5f		 pop	 edi
  0002f	5b		 pop	 ebx
$LN24@Tidy:

; 1308 : 			}
; 1309 : 		this->_Myfirst = 0;

  00030	33 c0		 xor	 eax, eax
  00032	89 06		 mov	 DWORD PTR [esi], eax

; 1310 : 		this->_Mylast = 0;

  00034	89 46 04	 mov	 DWORD PTR [esi+4], eax

; 1311 : 		this->_Myend = 0;

  00037	89 46 08	 mov	 DWORD PTR [esi+8], eax
  0003a	5e		 pop	 esi

; 1312 : 		}

  0003b	c3		 ret	 0
?_Tidy@?$vector@VioHashString@@V?$allocator@VioHashString@@@std@@@std@@IAEXXZ ENDP ; std::vector<ioHashString,std::allocator<ioHashString> >::_Tidy
_TEXT	ENDS
PUBLIC	?_Reserve@?$vector@VioHashString@@V?$allocator@VioHashString@@@std@@@std@@IAEXI@Z ; std::vector<ioHashString,std::allocator<ioHashString> >::_Reserve
; Function compile flags: /Ogsp
;	COMDAT ?_Reserve@?$vector@VioHashString@@V?$allocator@VioHashString@@@std@@@std@@IAEXI@Z
_TEXT	SEGMENT
__Count$ = 8						; size = 4
?_Reserve@?$vector@VioHashString@@V?$allocator@VioHashString@@@std@@@std@@IAEXI@Z PROC ; std::vector<ioHashString,std::allocator<ioHashString> >::_Reserve, COMDAT
; _this$ = ecx

; 1290 : 		{	// ensure room for _Count new elements, grow exponentially

  00000	55		 push	 ebp
  00001	8b ec		 mov	 ebp, esp
  00003	56		 push	 esi
  00004	8b f1		 mov	 esi, ecx

; 1291 : 		size_type _Size = size();

  00006	8b 0e		 mov	 ecx, DWORD PTR [esi]
  00008	8b 46 04	 mov	 eax, DWORD PTR [esi+4]
  0000b	2b c1		 sub	 eax, ecx

; 1292 : 		if (max_size() - _Count < _Size)

  0000d	ba ff ff ff 0f	 mov	 edx, 268435455		; 0fffffffH
  00012	2b 55 08	 sub	 edx, DWORD PTR __Count$[ebp]
  00015	c1 f8 04	 sar	 eax, 4
  00018	3b d0		 cmp	 edx, eax
  0001a	73 0b		 jae	 SHORT $LN4@Reserve

; 1293 : 			_Xlen();

  0001c	68 00 00 00 00	 push	 OFFSET ??_C@_0BD@OLBABOEK@vector?$DMT?$DO?5too?5long?$AA@
  00021	ff 15 00 00 00
	00		 call	 DWORD PTR __imp_?_Xlength_error@std@@YAXPBD@Z
$LN21@Reserve:
$LN4@Reserve:

; 1294 : 		else if ((_Size += _Count) <= capacity())

  00027	8b 56 08	 mov	 edx, DWORD PTR [esi+8]
  0002a	03 45 08	 add	 eax, DWORD PTR __Count$[ebp]
  0002d	2b d1		 sub	 edx, ecx
  0002f	c1 fa 04	 sar	 edx, 4
  00032	3b c2		 cmp	 eax, edx
  00034	76 10		 jbe	 SHORT $LN1@Reserve

; 1295 : 			;
; 1296 : 		else
; 1297 : 			reserve(_Grow_to(_Size));

  00036	50		 push	 eax
  00037	8b ce		 mov	 ecx, esi
  00039	e8 00 00 00 00	 call	 ?_Grow_to@?$vector@VioHashString@@V?$allocator@VioHashString@@@std@@@std@@IBEII@Z ; std::vector<ioHashString,std::allocator<ioHashString> >::_Grow_to
  0003e	50		 push	 eax
  0003f	8b ce		 mov	 ecx, esi
  00041	e8 00 00 00 00	 call	 ?reserve@?$vector@VioHashString@@V?$allocator@VioHashString@@@std@@@std@@QAEXI@Z ; std::vector<ioHashString,std::allocator<ioHashString> >::reserve
$LN1@Reserve:
  00046	5e		 pop	 esi

; 1298 : 		}

  00047	5d		 pop	 ebp
  00048	c2 04 00	 ret	 4
$LN20@Reserve:
?_Reserve@?$vector@VioHashString@@V?$allocator@VioHashString@@@std@@@std@@IAEXI@Z ENDP ; std::vector<ioHashString,std::allocator<ioHashString> >::_Reserve
_TEXT	ENDS
PUBLIC	??0?$vector@VioHashString@@V?$allocator@VioHashString@@@std@@@std@@QAE@ABV01@@Z ; std::vector<ioHashString,std::allocator<ioHashString> >::vector<ioHashString,std::allocator<ioHashString> >
;	COMDAT xdata$x
; File c:\program files (x86)\microsoft visual studio 10.0\vc\include\xutility
xdata$x	SEGMENT
__catchsym$??0?$vector@VioHashString@@V?$allocator@VioHashString@@@std@@@std@@QAE@ABV01@@Z$2 DD 040H
	DD	00H
	DD	00H
	DD	FLAT:__catch$??0?$vector@VioHashString@@V?$allocator@VioHashString@@@std@@@std@@QAE@ABV01@@Z$0
__unwindtable$??0?$vector@VioHashString@@V?$allocator@VioHashString@@@std@@@std@@QAE@ABV01@@Z DD 0ffffffffH
	DD	00H
	DD	0ffffffffH
	DD	00H
__tryblocktable$??0?$vector@VioHashString@@V?$allocator@VioHashString@@@std@@@std@@QAE@ABV01@@Z DD 00H
	DD	00H
	DD	01H
	DD	01H
	DD	FLAT:__catchsym$??0?$vector@VioHashString@@V?$allocator@VioHashString@@@std@@@std@@QAE@ABV01@@Z$2
__ehfuncinfo$??0?$vector@VioHashString@@V?$allocator@VioHashString@@@std@@@std@@QAE@ABV01@@Z DD 019930522H
	DD	02H
	DD	FLAT:__unwindtable$??0?$vector@VioHashString@@V?$allocator@VioHashString@@@std@@@std@@QAE@ABV01@@Z
	DD	01H
	DD	FLAT:__tryblocktable$??0?$vector@VioHashString@@V?$allocator@VioHashString@@@std@@@std@@QAE@ABV01@@Z
	DD	2 DUP(00H)
	DD	00H
	DD	01H
; Function compile flags: /Ogsp
; File c:\program files (x86)\microsoft visual studio 10.0\vc\include\vector
xdata$x	ENDS
;	COMDAT ??0?$vector@VioHashString@@V?$allocator@VioHashString@@@std@@@std@@QAE@ABV01@@Z
_TEXT	SEGMENT
_this$ = -20						; size = 4
__$EHRec$ = -16						; size = 16
__Cat$541387 = 8					; size = 1
__Right$ = 8						; size = 4
??0?$vector@VioHashString@@V?$allocator@VioHashString@@@std@@@std@@QAE@ABV01@@Z PROC ; std::vector<ioHashString,std::allocator<ioHashString> >::vector<ioHashString,std::allocator<ioHashString> >, COMDAT
; _this$ = ecx

; 535  : 		{	// construct by copying _Right

  00000	6a 08		 push	 8
  00002	b8 00 00 00 00	 mov	 eax, __ehhandler$??0?$vector@VioHashString@@V?$allocator@VioHashString@@@std@@@std@@QAE@ABV01@@Z
  00007	e8 00 00 00 00	 call	 __EH_prolog3_catch
  0000c	8b f1		 mov	 esi, ecx
  0000e	89 75 ec	 mov	 DWORD PTR _this$[ebp], esi

; 536  : 		if (_Buy(_Right.size()))

  00011	8b 7d 08	 mov	 edi, DWORD PTR __Right$[ebp]
  00014	33 db		 xor	 ebx, ebx
  00016	89 1e		 mov	 DWORD PTR [esi], ebx
  00018	89 5e 04	 mov	 DWORD PTR [esi+4], ebx
  0001b	89 5e 08	 mov	 DWORD PTR [esi+8], ebx
  0001e	8b 47 04	 mov	 eax, DWORD PTR [edi+4]
  00021	2b 07		 sub	 eax, DWORD PTR [edi]
  00023	c1 f8 04	 sar	 eax, 4
  00026	50		 push	 eax
  00027	e8 00 00 00 00	 call	 ?_Buy@?$vector@VioHashString@@V?$allocator@VioHashString@@@std@@@std@@IAE_NI@Z ; std::vector<ioHashString,std::allocator<ioHashString> >::_Buy
  0002c	84 c0		 test	 al, al
  0002e	74 1f		 je	 SHORT $LN7@vector

; 537  : 			_TRY_BEGIN
; 538  : 			this->_Mylast = _Ucopy(_Right.begin(), _Right.end(),
; 539  : 				this->_Myfirst);

  00030	ff 75 08	 push	 DWORD PTR __Cat$541387[ebp]
  00033	8b 0e		 mov	 ecx, DWORD PTR [esi]
  00035	8b 47 04	 mov	 eax, DWORD PTR [edi+4]
  00038	8b 3f		 mov	 edi, DWORD PTR [edi]
  0003a	8d 56 0c	 lea	 edx, DWORD PTR [esi+12]
  0003d	52		 push	 edx
  0003e	51		 push	 ecx
  0003f	50		 push	 eax
  00040	57		 push	 edi
  00041	89 5d fc	 mov	 DWORD PTR __$EHRec$[ebp+12], ebx
  00044	e8 00 00 00 00	 call	 ??$_Uninit_copy@V?$_Vector_const_iterator@V?$_Vector_val@VioHashString@@V?$allocator@VioHashString@@@std@@@std@@@std@@PAVioHashString@@V?$allocator@VioHashString@@@2@@std@@YAPAVioHashString@@V?$_Vector_const_iterator@V?$_Vector_val@VioHashString@@V?$allocator@VioHashString@@@std@@@std@@@0@0PAV1@AAV?$allocator@VioHashString@@@0@U_Nonscalar_ptr_iterator_tag@0@@Z ; std::_Uninit_copy<std::_Vector_const_iterator<std::_Vector_val<ioHashString,std::allocator<ioHashString> > >,ioHashString *,std::allocator<ioHashString> >
  00049	83 c4 14	 add	 esp, 20			; 00000014H
  0004c	89 46 04	 mov	 DWORD PTR [esi+4], eax
$LN7@vector:

; 543  : 			_CATCH_END
; 544  : 		}

  0004f	8b c6		 mov	 eax, esi
  00051	e8 00 00 00 00	 call	 __EH_epilog3
  00056	c2 04 00	 ret	 4
__catch$??0?$vector@VioHashString@@V?$allocator@VioHashString@@@std@@@std@@QAE@ABV01@@Z$0:

; 540  : 			_CATCH_ALL
; 541  : 			_Tidy();

  00059	8b 4d ec	 mov	 ecx, DWORD PTR _this$[ebp]
  0005c	e8 00 00 00 00	 call	 ?_Tidy@?$vector@VioHashString@@V?$allocator@VioHashString@@@std@@@std@@IAEXXZ ; std::vector<ioHashString,std::allocator<ioHashString> >::_Tidy

; 542  : 			_RERAISE;

  00061	33 db		 xor	 ebx, ebx
  00063	53		 push	 ebx
  00064	53		 push	 ebx
  00065	e8 00 00 00 00	 call	 __CxxThrowException@8
$LN38@vector:
$LN37@vector:
  0006a	cc		 int	 3
_TEXT	ENDS
;	COMDAT text$x
text$x	SEGMENT
__ehhandler$??0?$vector@VioHashString@@V?$allocator@VioHashString@@@std@@@std@@QAE@ABV01@@Z:
  00000	8b 54 24 08	 mov	 edx, DWORD PTR [esp+8]
  00004	8d 42 0c	 lea	 eax, DWORD PTR [edx+12]
  00007	8b 4a e8	 mov	 ecx, DWORD PTR [edx-24]
  0000a	33 c8		 xor	 ecx, eax
  0000c	e8 00 00 00 00	 call	 @__security_check_cookie@4
  00011	b8 00 00 00 00	 mov	 eax, OFFSET __ehfuncinfo$??0?$vector@VioHashString@@V?$allocator@VioHashString@@@std@@@std@@QAE@ABV01@@Z
  00016	e9 00 00 00 00	 jmp	 ___CxxFrameHandler3
text$x	ENDS
??0?$vector@VioHashString@@V?$allocator@VioHashString@@@std@@@std@@QAE@ABV01@@Z ENDP ; std::vector<ioHashString,std::allocator<ioHashString> >::vector<ioHashString,std::allocator<ioHashString> >
PUBLIC	??1?$vector@VioHashString@@V?$allocator@VioHashString@@@std@@@std@@QAE@XZ ; std::vector<ioHashString,std::allocator<ioHashString> >::~vector<ioHashString,std::allocator<ioHashString> >
; Function compile flags: /Ogsp
;	COMDAT ??1?$vector@VioHashString@@V?$allocator@VioHashString@@@std@@@std@@QAE@XZ
_TEXT	SEGMENT
??1?$vector@VioHashString@@V?$allocator@VioHashString@@@std@@@std@@QAE@XZ PROC ; std::vector<ioHashString,std::allocator<ioHashString> >::~vector<ioHashString,std::allocator<ioHashString> >, COMDAT
; _this$ = ecx

; 705  : 		_Tidy();

  00000	e9 00 00 00 00	 jmp	 ?_Tidy@?$vector@VioHashString@@V?$allocator@VioHashString@@@std@@@std@@IAEXXZ ; std::vector<ioHashString,std::allocator<ioHashString> >::_Tidy
??1?$vector@VioHashString@@V?$allocator@VioHashString@@@std@@@std@@QAE@XZ ENDP ; std::vector<ioHashString,std::allocator<ioHashString> >::~vector<ioHashString,std::allocator<ioHashString> >
_TEXT	ENDS
PUBLIC	?clear@?$vector@VioHashString@@V?$allocator@VioHashString@@@std@@@std@@QAEXXZ ; std::vector<ioHashString,std::allocator<ioHashString> >::clear
; Function compile flags: /Ogsp
;	COMDAT ?clear@?$vector@VioHashString@@V?$allocator@VioHashString@@@std@@@std@@QAEXXZ
_TEXT	SEGMENT
$T541417 = -4						; size = 4
?clear@?$vector@VioHashString@@V?$allocator@VioHashString@@@std@@@std@@QAEXXZ PROC ; std::vector<ioHashString,std::allocator<ioHashString> >::clear, COMDAT
; _this$ = ecx

; 1217 : 		{	// erase all

  00000	55		 push	 ebp
  00001	8b ec		 mov	 ebp, esp
  00003	51		 push	 ecx

; 1218 : 		erase(begin(), end());

  00004	8b 41 04	 mov	 eax, DWORD PTR [ecx+4]
  00007	8b 11		 mov	 edx, DWORD PTR [ecx]
  00009	50		 push	 eax
  0000a	52		 push	 edx
  0000b	8d 45 fc	 lea	 eax, DWORD PTR $T541417[ebp]
  0000e	50		 push	 eax
  0000f	e8 00 00 00 00	 call	 ?erase@?$vector@VioHashString@@V?$allocator@VioHashString@@@std@@@std@@QAE?AV?$_Vector_iterator@V?$_Vector_val@VioHashString@@V?$allocator@VioHashString@@@std@@@std@@@2@V?$_Vector_const_iterator@V?$_Vector_val@VioHashString@@V?$allocator@VioHashString@@@std@@@std@@@2@0@Z ; std::vector<ioHashString,std::allocator<ioHashString> >::erase

; 1219 : 		}

  00014	c9		 leave
  00015	c3		 ret	 0
?clear@?$vector@VioHashString@@V?$allocator@VioHashString@@@std@@@std@@QAEXXZ ENDP ; std::vector<ioHashString,std::allocator<ioHashString> >::clear
_TEXT	ENDS
PUBLIC	??0GrapplingSkillWoundedInfo@@QAE@ABU0@@Z	; GrapplingSkillWoundedInfo::GrapplingSkillWoundedInfo
;	COMDAT xdata$x
xdata$x	SEGMENT
__unwindtable$??0GrapplingSkillWoundedInfo@@QAE@ABU0@@Z DD 0ffffffffH
	DD	FLAT:__unwindfunclet$??0GrapplingSkillWoundedInfo@@QAE@ABU0@@Z$0
	DD	00H
	DD	FLAT:__unwindfunclet$??0GrapplingSkillWoundedInfo@@QAE@ABU0@@Z$1
	DD	01H
	DD	FLAT:__unwindfunclet$??0GrapplingSkillWoundedInfo@@QAE@ABU0@@Z$2
	DD	02H
	DD	FLAT:__unwindfunclet$??0GrapplingSkillWoundedInfo@@QAE@ABU0@@Z$3
__ehfuncinfo$??0GrapplingSkillWoundedInfo@@QAE@ABU0@@Z DD 019930522H
	DD	04H
	DD	FLAT:__unwindtable$??0GrapplingSkillWoundedInfo@@QAE@ABU0@@Z
	DD	2 DUP(00H)
	DD	2 DUP(00H)
	DD	00H
	DD	01H
; Function compile flags: /Ogsp
xdata$x	ENDS
;	COMDAT ??0GrapplingSkillWoundedInfo@@QAE@ABU0@@Z
_TEXT	SEGMENT
_this$ = -16						; size = 4
__$EHRec$ = -12						; size = 12
___that$ = 8						; size = 4
??0GrapplingSkillWoundedInfo@@QAE@ABU0@@Z PROC		; GrapplingSkillWoundedInfo::GrapplingSkillWoundedInfo, COMDAT
; _this$ = ecx
  00000	6a 04		 push	 4
  00002	b8 00 00 00 00	 mov	 eax, __ehhandler$??0GrapplingSkillWoundedInfo@@QAE@ABU0@@Z
  00007	e8 00 00 00 00	 call	 __EH_prolog3
  0000c	8b f1		 mov	 esi, ecx
  0000e	89 75 f0	 mov	 DWORD PTR _this$[ebp], esi
  00011	8b 7d 08	 mov	 edi, DWORD PTR ___that$[ebp]
  00014	8a 07		 mov	 al, BYTE PTR [edi]
  00016	8b 1d 00 00 00
	00		 mov	 ebx, DWORD PTR __imp_??0ioHashString@@QAE@ABV0@@Z
  0001c	88 06		 mov	 BYTE PTR [esi], al
  0001e	8d 47 04	 lea	 eax, DWORD PTR [edi+4]
  00021	50		 push	 eax
  00022	8d 4e 04	 lea	 ecx, DWORD PTR [esi+4]
  00025	ff d3		 call	 ebx
  00027	83 65 fc 00	 and	 DWORD PTR __$EHRec$[ebp+8], 0
  0002b	8d 47 14	 lea	 eax, DWORD PTR [edi+20]
  0002e	50		 push	 eax
  0002f	8d 4e 14	 lea	 ecx, DWORD PTR [esi+20]
  00032	ff d3		 call	 ebx
  00034	d9 47 24	 fld	 DWORD PTR [edi+36]
  00037	d9 5e 24	 fstp	 DWORD PTR [esi+36]
  0003a	8b 47 28	 mov	 eax, DWORD PTR [edi+40]
  0003d	89 46 28	 mov	 DWORD PTR [esi+40], eax
  00040	8d 47 2c	 lea	 eax, DWORD PTR [edi+44]
  00043	50		 push	 eax
  00044	8d 4e 2c	 lea	 ecx, DWORD PTR [esi+44]
  00047	c6 45 fc 01	 mov	 BYTE PTR __$EHRec$[ebp+8], 1
  0004b	e8 00 00 00 00	 call	 ??0?$vector@VioHashString@@V?$allocator@VioHashString@@@std@@@std@@QAE@ABV01@@Z ; std::vector<ioHashString,std::allocator<ioHashString> >::vector<ioHashString,std::allocator<ioHashString> >
  00050	8d 47 3c	 lea	 eax, DWORD PTR [edi+60]
  00053	50		 push	 eax
  00054	8d 4e 3c	 lea	 ecx, DWORD PTR [esi+60]
  00057	c6 45 fc 02	 mov	 BYTE PTR __$EHRec$[ebp+8], 2
  0005b	e8 00 00 00 00	 call	 ??0?$vector@VioHashString@@V?$allocator@VioHashString@@@std@@@std@@QAE@ABV01@@Z ; std::vector<ioHashString,std::allocator<ioHashString> >::vector<ioHashString,std::allocator<ioHashString> >
  00060	83 c7 4c	 add	 edi, 76			; 0000004cH
  00063	57		 push	 edi
  00064	8d 4e 4c	 lea	 ecx, DWORD PTR [esi+76]
  00067	c6 45 fc 03	 mov	 BYTE PTR __$EHRec$[ebp+8], 3
  0006b	e8 00 00 00 00	 call	 ??0?$vector@VioHashString@@V?$allocator@VioHashString@@@std@@@std@@QAE@ABV01@@Z ; std::vector<ioHashString,std::allocator<ioHashString> >::vector<ioHashString,std::allocator<ioHashString> >
  00070	8b c6		 mov	 eax, esi
  00072	e8 00 00 00 00	 call	 __EH_epilog3
  00077	c2 04 00	 ret	 4
_TEXT	ENDS
;	COMDAT text$x
text$x	SEGMENT
__unwindfunclet$??0GrapplingSkillWoundedInfo@@QAE@ABU0@@Z$0:
  00000	8b 4d f0	 mov	 ecx, DWORD PTR _this$[ebp]
  00003	83 c1 04	 add	 ecx, 4
  00006	ff 25 00 00 00
	00		 jmp	 DWORD PTR __imp_??1ioHashString@@QAE@XZ
__unwindfunclet$??0GrapplingSkillWoundedInfo@@QAE@ABU0@@Z$1:
  0000c	8b 4d f0	 mov	 ecx, DWORD PTR _this$[ebp]
  0000f	83 c1 14	 add	 ecx, 20			; 00000014H
  00012	ff 25 00 00 00
	00		 jmp	 DWORD PTR __imp_??1ioHashString@@QAE@XZ
__unwindfunclet$??0GrapplingSkillWoundedInfo@@QAE@ABU0@@Z$2:
  00018	8b 4d f0	 mov	 ecx, DWORD PTR _this$[ebp]
  0001b	83 c1 2c	 add	 ecx, 44			; 0000002cH
  0001e	e9 00 00 00 00	 jmp	 ??1?$vector@VioHashString@@V?$allocator@VioHashString@@@std@@@std@@QAE@XZ ; std::vector<ioHashString,std::allocator<ioHashString> >::~vector<ioHashString,std::allocator<ioHashString> >
__unwindfunclet$??0GrapplingSkillWoundedInfo@@QAE@ABU0@@Z$3:
  00023	8b 4d f0	 mov	 ecx, DWORD PTR _this$[ebp]
  00026	83 c1 3c	 add	 ecx, 60			; 0000003cH
  00029	e9 00 00 00 00	 jmp	 ??1?$vector@VioHashString@@V?$allocator@VioHashString@@@std@@@std@@QAE@XZ ; std::vector<ioHashString,std::allocator<ioHashString> >::~vector<ioHashString,std::allocator<ioHashString> >
__ehhandler$??0GrapplingSkillWoundedInfo@@QAE@ABU0@@Z:
  0002e	8b 54 24 08	 mov	 edx, DWORD PTR [esp+8]
  00032	8d 42 0c	 lea	 eax, DWORD PTR [edx+12]
  00035	8b 4a ec	 mov	 ecx, DWORD PTR [edx-20]
  00038	33 c8		 xor	 ecx, eax
  0003a	e8 00 00 00 00	 call	 @__security_check_cookie@4
  0003f	b8 00 00 00 00	 mov	 eax, OFFSET __ehfuncinfo$??0GrapplingSkillWoundedInfo@@QAE@ABU0@@Z
  00044	e9 00 00 00 00	 jmp	 ___CxxFrameHandler3
text$x	ENDS
??0GrapplingSkillWoundedInfo@@QAE@ABU0@@Z ENDP		; GrapplingSkillWoundedInfo::GrapplingSkillWoundedInfo
PUBLIC	??4?$vector@VioHashString@@V?$allocator@VioHashString@@@std@@@std@@QAEAAV01@ABV01@@Z ; std::vector<ioHashString,std::allocator<ioHashString> >::operator=
; Function compile flags: /Ogsp
;	COMDAT ??4?$vector@VioHashString@@V?$allocator@VioHashString@@@std@@@std@@QAEAAV01@ABV01@@Z
_TEXT	SEGMENT
tv555 = 8						; size = 4
__Cat$541853 = 8					; size = 1
__Cat$541724 = 8					; size = 1
__Cat$541698 = 8					; size = 1
__Cat$541581 = 8					; size = 1
$T541636 = 8						; size = 4
$T541548 = 8						; size = 4
__Right$ = 8						; size = 4
??4?$vector@VioHashString@@V?$allocator@VioHashString@@@std@@@std@@QAEAAV01@ABV01@@Z PROC ; std::vector<ioHashString,std::allocator<ioHashString> >::operator=, COMDAT
; _this$ = ecx

; 709  : 		{	// assign _Right

  00000	55		 push	 ebp
  00001	8b ec		 mov	 ebp, esp
  00003	56		 push	 esi
  00004	57		 push	 edi

; 710  : 		if (this != &_Right)

  00005	8b 7d 08	 mov	 edi, DWORD PTR __Right$[ebp]
  00008	8b f1		 mov	 esi, ecx
  0000a	3b f7		 cmp	 esi, edi
  0000c	0f 84 fd 00 00
	00		 je	 $LN1@operator@4

; 711  : 			{	// worth doing
; 712  : 			this->_Orphan_all();

  00012	53		 push	 ebx
  00013	ff 15 00 00 00
	00		 call	 DWORD PTR __imp_?_Orphan_all@_Container_base0@std@@QAEXXZ

; 713  : 
; 714  : 			if (_Right.size() == 0)

  00019	8b 5f 04	 mov	 ebx, DWORD PTR [edi+4]

; 715  : 				clear();	// new sequence empty, erase existing sequence

  0001c	8b 46 04	 mov	 eax, DWORD PTR [esi+4]
  0001f	8b cb		 mov	 ecx, ebx
  00021	2b 0f		 sub	 ecx, DWORD PTR [edi]
  00023	c1 f9 04	 sar	 ecx, 4
  00026	85 c9		 test	 ecx, ecx
  00028	75 14		 jne	 SHORT $LN8@operator@4
  0002a	8b 0e		 mov	 ecx, DWORD PTR [esi]
  0002c	50		 push	 eax
  0002d	51		 push	 ecx
  0002e	8d 45 08	 lea	 eax, DWORD PTR $T541548[ebp]
  00031	50		 push	 eax
  00032	8b ce		 mov	 ecx, esi
  00034	e8 00 00 00 00	 call	 ?erase@?$vector@VioHashString@@V?$allocator@VioHashString@@@std@@@std@@QAE?AV?$_Vector_iterator@V?$_Vector_val@VioHashString@@V?$allocator@VioHashString@@@std@@@std@@@2@V?$_Vector_const_iterator@V?$_Vector_val@VioHashString@@V?$allocator@VioHashString@@@std@@@std@@@2@0@Z ; std::vector<ioHashString,std::allocator<ioHashString> >::erase

; 716  : 			else if (_Right.size() <= size())

  00039	e9 d0 00 00 00	 jmp	 $LN113@operator@4
$LN8@operator@4:
  0003e	8b 16		 mov	 edx, DWORD PTR [esi]
  00040	89 45 08	 mov	 DWORD PTR tv555[ebp], eax
  00043	2b c2		 sub	 eax, edx
  00045	c1 f8 04	 sar	 eax, 4
  00048	3b c8		 cmp	 ecx, eax
  0004a	77 3a		 ja	 SHORT $LN6@operator@4

; 717  : 				{	// enough elements, copy new and destroy old
; 718  : 				pointer _Ptr = _STD _Copy_impl(_Right._Myfirst, _Right._Mylast,
; 719  : 					this->_Myfirst);	// copy new

  0004c	ff 75 08	 push	 DWORD PTR __Cat$541581[ebp]
  0004f	52		 push	 edx
  00050	53		 push	 ebx
  00051	ff 37		 push	 DWORD PTR [edi]
  00053	e8 00 00 00 00	 call	 ??$_Copy_impl@PAVioHashString@@PAV1@@std@@YAPAVioHashString@@PAV1@00U_Nonscalar_ptr_iterator_tag@0@@Z ; std::_Copy_impl<ioHashString *,ioHashString *>

; 720  : 				_Destroy(_Ptr, this->_Mylast);	// destroy old

  00058	8b 5e 04	 mov	 ebx, DWORD PTR [esi+4]
  0005b	83 c4 10	 add	 esp, 16			; 00000010H
  0005e	89 45 08	 mov	 DWORD PTR $T541636[ebp], eax
  00061	3b c3		 cmp	 eax, ebx
  00063	74 12		 je	 SHORT $LN46@operator@4
$LL112@operator@4:
  00065	8b 4d 08	 mov	 ecx, DWORD PTR $T541636[ebp]
  00068	ff 15 00 00 00
	00		 call	 DWORD PTR __imp_??1ioHashString@@QAE@XZ
  0006e	83 45 08 10	 add	 DWORD PTR $T541636[ebp], 16 ; 00000010H
  00072	39 5d 08	 cmp	 DWORD PTR $T541636[ebp], ebx
  00075	75 ee		 jne	 SHORT $LL112@operator@4
$LN46@operator@4:

; 721  : 				this->_Mylast = this->_Myfirst + _Right.size();

  00077	8b 47 04	 mov	 eax, DWORD PTR [edi+4]
  0007a	2b 07		 sub	 eax, DWORD PTR [edi]
  0007c	83 e0 f0	 and	 eax, -16		; fffffff0H
  0007f	03 06		 add	 eax, DWORD PTR [esi]

; 722  : 				}
; 723  : 			else if (_Right.size() <= capacity())

  00081	e9 85 00 00 00	 jmp	 $LN114@operator@4
$LN6@operator@4:
  00086	8b 5e 08	 mov	 ebx, DWORD PTR [esi+8]
  00089	2b da		 sub	 ebx, edx
  0008b	c1 fb 04	 sar	 ebx, 4
  0008e	3b cb		 cmp	 ecx, ebx
  00090	77 2c		 ja	 SHORT $LN4@operator@4

; 724  : 				{	// enough room, copy and construct new
; 725  : 				pointer _Ptr = _Right._Myfirst + size();
; 726  : 				_STD _Copy_impl(_Right._Myfirst, _Ptr, this->_Myfirst);

  00092	ff 75 08	 push	 DWORD PTR __Cat$541698[ebp]
  00095	8b 0f		 mov	 ecx, DWORD PTR [edi]
  00097	03 c0		 add	 eax, eax
  00099	52		 push	 edx
  0009a	8d 1c c1	 lea	 ebx, DWORD PTR [ecx+eax*8]
  0009d	53		 push	 ebx
  0009e	51		 push	 ecx
  0009f	e8 00 00 00 00	 call	 ??$_Copy_impl@PAVioHashString@@PAV1@@std@@YAPAVioHashString@@PAV1@00U_Nonscalar_ptr_iterator_tag@0@@Z ; std::_Copy_impl<ioHashString *,ioHashString *>

; 727  : 				this->_Mylast = _Ucopy(_Ptr, _Right._Mylast, this->_Mylast);

  000a4	ff 75 08	 push	 DWORD PTR __Cat$541724[ebp]
  000a7	8b 46 04	 mov	 eax, DWORD PTR [esi+4]
  000aa	8b 7f 04	 mov	 edi, DWORD PTR [edi+4]
  000ad	8d 4e 0c	 lea	 ecx, DWORD PTR [esi+12]
  000b0	51		 push	 ecx
  000b1	50		 push	 eax
  000b2	57		 push	 edi
  000b3	53		 push	 ebx
  000b4	e8 00 00 00 00	 call	 ??$_Uninit_copy@PAVioHashString@@PAV1@V?$allocator@VioHashString@@@std@@@std@@YAPAVioHashString@@PAV1@00AAV?$allocator@VioHashString@@@0@U_Nonscalar_ptr_iterator_tag@0@@Z ; std::_Uninit_copy<ioHashString *,ioHashString *,std::allocator<ioHashString> >
  000b9	83 c4 24	 add	 esp, 36			; 00000024H

; 728  : 				}
; 729  : 			else

  000bc	eb 4d		 jmp	 SHORT $LN114@operator@4
$LN4@operator@4:

; 730  : 				{	// not enough room, allocate new array and construct new
; 731  : 				if (this->_Myfirst != 0)

  000be	85 d2		 test	 edx, edx
  000c0	74 1c		 je	 SHORT $LN98@operator@4

; 732  : 					{	// discard old array
; 733  : 					_Destroy(this->_Myfirst, this->_Mylast);

  000c2	8b da		 mov	 ebx, edx
  000c4	eb 0b		 jmp	 SHORT $LN115@operator@4
$LL86@operator@4:
  000c6	8b cb		 mov	 ecx, ebx
  000c8	ff 15 00 00 00
	00		 call	 DWORD PTR __imp_??1ioHashString@@QAE@XZ
  000ce	83 c3 10	 add	 ebx, 16			; 00000010H
$LN115@operator@4:
  000d1	3b 5d 08	 cmp	 ebx, DWORD PTR tv555[ebp]
  000d4	75 f0		 jne	 SHORT $LL86@operator@4

; 734  : 					this->_Alval.deallocate(this->_Myfirst,
; 735  : 						this->_Myend - this->_Myfirst);

  000d6	ff 36		 push	 DWORD PTR [esi]
  000d8	e8 00 00 00 00	 call	 ??3@YAXPAX@Z		; operator delete
  000dd	59		 pop	 ecx
$LN98@operator@4:

; 736  : 					}
; 737  : 				if (_Buy(_Right.size()))

  000de	8b 47 04	 mov	 eax, DWORD PTR [edi+4]
  000e1	2b 07		 sub	 eax, DWORD PTR [edi]
  000e3	8b ce		 mov	 ecx, esi
  000e5	c1 f8 04	 sar	 eax, 4
  000e8	50		 push	 eax
  000e9	e8 00 00 00 00	 call	 ?_Buy@?$vector@VioHashString@@V?$allocator@VioHashString@@@std@@@std@@IAE_NI@Z ; std::vector<ioHashString,std::allocator<ioHashString> >::_Buy
  000ee	84 c0		 test	 al, al
  000f0	74 1c		 je	 SHORT $LN113@operator@4

; 738  : 					this->_Mylast = _Ucopy(_Right._Myfirst, _Right._Mylast,
; 739  : 						this->_Myfirst);

  000f2	ff 75 08	 push	 DWORD PTR __Cat$541853[ebp]
  000f5	8b 06		 mov	 eax, DWORD PTR [esi]
  000f7	8b 4f 04	 mov	 ecx, DWORD PTR [edi+4]
  000fa	8b 3f		 mov	 edi, DWORD PTR [edi]
  000fc	8d 56 0c	 lea	 edx, DWORD PTR [esi+12]
  000ff	52		 push	 edx
  00100	50		 push	 eax
  00101	51		 push	 ecx
  00102	57		 push	 edi
  00103	e8 00 00 00 00	 call	 ??$_Uninit_copy@PAVioHashString@@PAV1@V?$allocator@VioHashString@@@std@@@std@@YAPAVioHashString@@PAV1@00AAV?$allocator@VioHashString@@@0@U_Nonscalar_ptr_iterator_tag@0@@Z ; std::_Uninit_copy<ioHashString *,ioHashString *,std::allocator<ioHashString> >
  00108	83 c4 14	 add	 esp, 20			; 00000014H
$LN114@operator@4:
  0010b	89 46 04	 mov	 DWORD PTR [esi+4], eax
$LN113@operator@4:
  0010e	5b		 pop	 ebx
$LN1@operator@4:
  0010f	5f		 pop	 edi

; 740  : 				}
; 741  : 			}
; 742  : 		return (*this);

  00110	8b c6		 mov	 eax, esi
  00112	5e		 pop	 esi

; 743  : 		}

  00113	5d		 pop	 ebp
  00114	c2 04 00	 ret	 4
??4?$vector@VioHashString@@V?$allocator@VioHashString@@@std@@@std@@QAEAAV01@ABV01@@Z ENDP ; std::vector<ioHashString,std::allocator<ioHashString> >::operator=
_TEXT	ENDS
PUBLIC	?push_back@?$vector@VioHashString@@V?$allocator@VioHashString@@@std@@@std@@QAEXABVioHashString@@@Z ; std::vector<ioHashString,std::allocator<ioHashString> >::push_back
; Function compile flags: /Ogsp
;	COMDAT ?push_back@?$vector@VioHashString@@V?$allocator@VioHashString@@@std@@@std@@QAEXABVioHashString@@@Z
_TEXT	SEGMENT
__Val$ = 8						; size = 4
?push_back@?$vector@VioHashString@@V?$allocator@VioHashString@@@std@@@std@@QAEXABVioHashString@@@Z PROC ; std::vector<ioHashString,std::allocator<ioHashString> >::push_back, COMDAT
; _this$ = ecx

; 976  : 		{	// insert element at end

  00000	55		 push	 ebp
  00001	8b ec		 mov	 ebp, esp
  00003	56		 push	 esi
  00004	8b f1		 mov	 esi, ecx

; 977  : 		if (_Inside(_STD addressof(_Val)))

  00006	8b 46 04	 mov	 eax, DWORD PTR [esi+4]
  00009	57		 push	 edi
  0000a	8b 7d 08	 mov	 edi, DWORD PTR __Val$[ebp]
  0000d	3b f8		 cmp	 edi, eax
  0000f	73 29		 jae	 SHORT $LN4@push_back
  00011	8b 0e		 mov	 ecx, DWORD PTR [esi]
  00013	3b cf		 cmp	 ecx, edi
  00015	77 23		 ja	 SHORT $LN4@push_back

; 978  : 			{	// push back an element
; 979  : 			size_type _Idx = _STD addressof(_Val) - this->_Myfirst;

  00017	2b f9		 sub	 edi, ecx

; 980  : 			if (this->_Mylast == this->_Myend)

  00019	3b 46 08	 cmp	 eax, DWORD PTR [esi+8]
  0001c	75 09		 jne	 SHORT $LN3@push_back

; 981  : 				_Reserve(1);

  0001e	6a 01		 push	 1
  00020	8b ce		 mov	 ecx, esi
  00022	e8 00 00 00 00	 call	 ?_Reserve@?$vector@VioHashString@@V?$allocator@VioHashString@@@std@@@std@@IAEXI@Z ; std::vector<ioHashString,std::allocator<ioHashString> >::_Reserve
$LN3@push_back:

; 982  : 			_Orphan_range(this->_Mylast, this->_Mylast);
; 983  : 			_Cons_val(this->_Alval,
; 984  : 				this->_Mylast,
; 985  : 				this->_Myfirst[_Idx]);

  00027	83 e7 f0	 and	 edi, -16		; fffffff0H
  0002a	03 3e		 add	 edi, DWORD PTR [esi]
  0002c	8d 4e 0c	 lea	 ecx, DWORD PTR [esi+12]
  0002f	57		 push	 edi
  00030	ff 76 04	 push	 DWORD PTR [esi+4]
  00033	e8 00 00 00 00	 call	 ??$construct@AAVioHashString@@@?$allocator@VioHashString@@@std@@QAEXPAVioHashString@@AAV2@@Z ; std::allocator<ioHashString>::construct<ioHashString &>

; 986  : 			++this->_Mylast;
; 987  : 			}
; 988  : 		else

  00038	eb 19		 jmp	 SHORT $LN30@push_back
$LN4@push_back:

; 989  : 			{	// push back a non-element
; 990  : 			if (this->_Mylast == this->_Myend)

  0003a	3b 46 08	 cmp	 eax, DWORD PTR [esi+8]
  0003d	75 09		 jne	 SHORT $LN1@push_back

; 991  : 				_Reserve(1);

  0003f	6a 01		 push	 1
  00041	8b ce		 mov	 ecx, esi
  00043	e8 00 00 00 00	 call	 ?_Reserve@?$vector@VioHashString@@V?$allocator@VioHashString@@@std@@@std@@IAEXI@Z ; std::vector<ioHashString,std::allocator<ioHashString> >::_Reserve
$LN1@push_back:

; 992  : 			_Orphan_range(this->_Mylast, this->_Mylast);
; 993  : 			_Cons_val(this->_Alval,
; 994  : 				this->_Mylast,
; 995  : 				_Val);

  00048	57		 push	 edi
  00049	ff 76 04	 push	 DWORD PTR [esi+4]
  0004c	e8 00 00 00 00	 call	 ??$_Construct@VioHashString@@ABV1@@std@@YAXPAVioHashString@@ABV1@@Z ; std::_Construct<ioHashString,ioHashString const &>
  00051	59		 pop	 ecx
  00052	59		 pop	 ecx
$LN30@push_back:

; 996  : 			++this->_Mylast;

  00053	83 46 04 10	 add	 DWORD PTR [esi+4], 16	; 00000010H
  00057	5f		 pop	 edi
  00058	5e		 pop	 esi

; 997  : 			}
; 998  : 		}

  00059	5d		 pop	 ebp
  0005a	c2 04 00	 ret	 4
?push_back@?$vector@VioHashString@@V?$allocator@VioHashString@@@std@@@std@@QAEXABVioHashString@@@Z ENDP ; std::vector<ioHashString,std::allocator<ioHashString> >::push_back
_TEXT	ENDS
PUBLIC	?Init@GrapplingSkillWoundedInfo@@QAEXXZ		; GrapplingSkillWoundedInfo::Init
; Function compile flags: /Ogsp
; File d:\lost saga for developer\youtube\tutorial\source\src\lsclient\playentityhelpstruct.h
;	COMDAT ?Init@GrapplingSkillWoundedInfo@@QAEXXZ
_TEXT	SEGMENT
tv358 = -4						; size = 4
$T542140 = -4						; size = 4
$T542060 = -4						; size = 4
$T541980 = -4						; size = 4
?Init@GrapplingSkillWoundedInfo@@QAEXXZ PROC		; GrapplingSkillWoundedInfo::Init, COMDAT
; _this$ = ecx

; 1172 : 	{

  00000	55		 push	 ebp
  00001	8b ec		 mov	 ebp, esp
  00003	51		 push	 ecx
  00004	56		 push	 esi
  00005	8b f1		 mov	 esi, ecx

; 1173 : 		m_bReverseTargetRot = false;
; 1174 : 		m_GrapplingLoopMotion.Clear();

  00007	8d 4e 04	 lea	 ecx, DWORD PTR [esi+4]
  0000a	c6 06 00	 mov	 BYTE PTR [esi], 0
  0000d	ff 15 00 00 00
	00		 call	 DWORD PTR __imp_?Clear@ioHashString@@QAEXXZ

; 1175 : 		m_fGrapplingLoopMotionRate = FLOAT1;

  00013	b8 01 00 00 00	 mov	 eax, 1
  00018	89 45 fc	 mov	 DWORD PTR tv358[ebp], eax
  0001b	db 45 fc	 fild	 DWORD PTR tv358[ebp]
  0001e	85 c0		 test	 eax, eax
  00020	79 06		 jns	 SHORT $LN59@Init@4
  00022	d8 05 00 00 00
	00		 fadd	 DWORD PTR __real@4f800000
$LN59@Init@4:

; 1176 : 
; 1177 : 		m_GrapplingColType = GCT_NONE;

  00028	83 66 28 00	 and	 DWORD PTR [esi+40], 0
  0002c	d9 5e 24	 fstp	 DWORD PTR [esi+36]

; 1178 : 
; 1179 : 		m_SwingBuff.clear();

  0002f	8d 4e 2c	 lea	 ecx, DWORD PTR [esi+44]
  00032	8b 41 04	 mov	 eax, DWORD PTR [ecx+4]
  00035	8b 11		 mov	 edx, DWORD PTR [ecx]
  00037	50		 push	 eax
  00038	52		 push	 edx
  00039	8d 45 fc	 lea	 eax, DWORD PTR $T541980[ebp]
  0003c	50		 push	 eax
  0003d	e8 00 00 00 00	 call	 ?erase@?$vector@VioHashString@@V?$allocator@VioHashString@@@std@@@std@@QAE?AV?$_Vector_iterator@V?$_Vector_val@VioHashString@@V?$allocator@VioHashString@@@std@@@std@@@2@V?$_Vector_const_iterator@V?$_Vector_val@VioHashString@@V?$allocator@VioHashString@@@std@@@std@@@2@0@Z ; std::vector<ioHashString,std::allocator<ioHashString> >::erase

; 1180 : 		m_SwingWoundBuff.clear();

  00042	8d 4e 3c	 lea	 ecx, DWORD PTR [esi+60]
  00045	8b 41 04	 mov	 eax, DWORD PTR [ecx+4]
  00048	8b 11		 mov	 edx, DWORD PTR [ecx]
  0004a	50		 push	 eax
  0004b	52		 push	 edx
  0004c	8d 45 fc	 lea	 eax, DWORD PTR $T542060[ebp]
  0004f	50		 push	 eax
  00050	e8 00 00 00 00	 call	 ?erase@?$vector@VioHashString@@V?$allocator@VioHashString@@@std@@@std@@QAE?AV?$_Vector_iterator@V?$_Vector_val@VioHashString@@V?$allocator@VioHashString@@@std@@@std@@@2@V?$_Vector_const_iterator@V?$_Vector_val@VioHashString@@V?$allocator@VioHashString@@@std@@@std@@@2@0@Z ; std::vector<ioHashString,std::allocator<ioHashString> >::erase

; 1181 : 		m_SwingCancelBuff.clear();

  00055	8d 4e 4c	 lea	 ecx, DWORD PTR [esi+76]
  00058	8b 41 04	 mov	 eax, DWORD PTR [ecx+4]
  0005b	8b 11		 mov	 edx, DWORD PTR [ecx]
  0005d	50		 push	 eax
  0005e	52		 push	 edx
  0005f	8d 45 fc	 lea	 eax, DWORD PTR $T542140[ebp]
  00062	50		 push	 eax
  00063	e8 00 00 00 00	 call	 ?erase@?$vector@VioHashString@@V?$allocator@VioHashString@@@std@@@std@@QAE?AV?$_Vector_iterator@V?$_Vector_val@VioHashString@@V?$allocator@VioHashString@@@std@@@std@@@2@V?$_Vector_const_iterator@V?$_Vector_val@VioHashString@@V?$allocator@VioHashString@@@std@@@std@@@2@0@Z ; std::vector<ioHashString,std::allocator<ioHashString> >::erase
  00068	5e		 pop	 esi

; 1182 : 	}

  00069	c9		 leave
  0006a	c3		 ret	 0
?Init@GrapplingSkillWoundedInfo@@QAEXXZ ENDP		; GrapplingSkillWoundedInfo::Init
_TEXT	ENDS
PUBLIC	??1GrapplingSkillWoundedInfo@@QAE@XZ		; GrapplingSkillWoundedInfo::~GrapplingSkillWoundedInfo
;	COMDAT xdata$x
xdata$x	SEGMENT
__unwindtable$??1GrapplingSkillWoundedInfo@@QAE@XZ DD 0ffffffffH
	DD	FLAT:__unwindfunclet$??1GrapplingSkillWoundedInfo@@QAE@XZ$0
	DD	00H
	DD	FLAT:__unwindfunclet$??1GrapplingSkillWoundedInfo@@QAE@XZ$1
	DD	01H
	DD	FLAT:__unwindfunclet$??1GrapplingSkillWoundedInfo@@QAE@XZ$2
	DD	02H
	DD	FLAT:__unwindfunclet$??1GrapplingSkillWoundedInfo@@QAE@XZ$3
__ehfuncinfo$??1GrapplingSkillWoundedInfo@@QAE@XZ DD 019930522H
	DD	04H
	DD	FLAT:__unwindtable$??1GrapplingSkillWoundedInfo@@QAE@XZ
	DD	2 DUP(00H)
	DD	2 DUP(00H)
	DD	00H
	DD	01H
; Function compile flags: /Ogsp
xdata$x	ENDS
;	COMDAT ??1GrapplingSkillWoundedInfo@@QAE@XZ
_TEXT	SEGMENT
_this$ = -16						; size = 4
__$EHRec$ = -12						; size = 12
??1GrapplingSkillWoundedInfo@@QAE@XZ PROC		; GrapplingSkillWoundedInfo::~GrapplingSkillWoundedInfo, COMDAT
; _this$ = ecx
  00000	6a 04		 push	 4
  00002	b8 00 00 00 00	 mov	 eax, __ehhandler$??1GrapplingSkillWoundedInfo@@QAE@XZ
  00007	e8 00 00 00 00	 call	 __EH_prolog3
  0000c	8b f1		 mov	 esi, ecx
  0000e	89 75 f0	 mov	 DWORD PTR _this$[ebp], esi
  00011	8d 4e 4c	 lea	 ecx, DWORD PTR [esi+76]
  00014	c7 45 fc 03 00
	00 00		 mov	 DWORD PTR __$EHRec$[ebp+8], 3
  0001b	e8 00 00 00 00	 call	 ?_Tidy@?$vector@VioHashString@@V?$allocator@VioHashString@@@std@@@std@@IAEXXZ ; std::vector<ioHashString,std::allocator<ioHashString> >::_Tidy
  00020	8d 4e 3c	 lea	 ecx, DWORD PTR [esi+60]
  00023	c6 45 fc 02	 mov	 BYTE PTR __$EHRec$[ebp+8], 2
  00027	e8 00 00 00 00	 call	 ?_Tidy@?$vector@VioHashString@@V?$allocator@VioHashString@@@std@@@std@@IAEXXZ ; std::vector<ioHashString,std::allocator<ioHashString> >::_Tidy
  0002c	8d 4e 2c	 lea	 ecx, DWORD PTR [esi+44]
  0002f	c6 45 fc 01	 mov	 BYTE PTR __$EHRec$[ebp+8], 1
  00033	e8 00 00 00 00	 call	 ?_Tidy@?$vector@VioHashString@@V?$allocator@VioHashString@@@std@@@std@@IAEXXZ ; std::vector<ioHashString,std::allocator<ioHashString> >::_Tidy
  00038	8b 3d 00 00 00
	00		 mov	 edi, DWORD PTR __imp_??1ioHashString@@QAE@XZ
  0003e	8d 4e 14	 lea	 ecx, DWORD PTR [esi+20]
  00041	c6 45 fc 00	 mov	 BYTE PTR __$EHRec$[ebp+8], 0
  00045	ff d7		 call	 edi
  00047	83 4d fc ff	 or	 DWORD PTR __$EHRec$[ebp+8], -1
  0004b	8d 4e 04	 lea	 ecx, DWORD PTR [esi+4]
  0004e	ff d7		 call	 edi
  00050	e8 00 00 00 00	 call	 __EH_epilog3
  00055	c3		 ret	 0
_TEXT	ENDS
;	COMDAT text$x
text$x	SEGMENT
__unwindfunclet$??1GrapplingSkillWoundedInfo@@QAE@XZ$0:
  00000	8b 4d f0	 mov	 ecx, DWORD PTR _this$[ebp]
  00003	83 c1 04	 add	 ecx, 4
  00006	ff 25 00 00 00
	00		 jmp	 DWORD PTR __imp_??1ioHashString@@QAE@XZ
__unwindfunclet$??1GrapplingSkillWoundedInfo@@QAE@XZ$1:
  0000c	8b 4d f0	 mov	 ecx, DWORD PTR _this$[ebp]
  0000f	83 c1 14	 add	 ecx, 20			; 00000014H
  00012	ff 25 00 00 00
	00		 jmp	 DWORD PTR __imp_??1ioHashString@@QAE@XZ
__unwindfunclet$??1GrapplingSkillWoundedInfo@@QAE@XZ$2:
  00018	8b 4d f0	 mov	 ecx, DWORD PTR _this$[ebp]
  0001b	83 c1 2c	 add	 ecx, 44			; 0000002cH
  0001e	e9 00 00 00 00	 jmp	 ??1?$vector@VioHashString@@V?$allocator@VioHashString@@@std@@@std@@QAE@XZ ; std::vector<ioHashString,std::allocator<ioHashString> >::~vector<ioHashString,std::allocator<ioHashString> >
__unwindfunclet$??1GrapplingSkillWoundedInfo@@QAE@XZ$3:
  00023	8b 4d f0	 mov	 ecx, DWORD PTR _this$[ebp]
  00026	83 c1 3c	 add	 ecx, 60			; 0000003cH
  00029	e9 00 00 00 00	 jmp	 ??1?$vector@VioHashString@@V?$allocator@VioHashString@@@std@@@std@@QAE@XZ ; std::vector<ioHashString,std::allocator<ioHashString> >::~vector<ioHashString,std::allocator<ioHashString> >
__ehhandler$??1GrapplingSkillWoundedInfo@@QAE@XZ:
  0002e	8b 54 24 08	 mov	 edx, DWORD PTR [esp+8]
  00032	8d 42 0c	 lea	 eax, DWORD PTR [edx+12]
  00035	8b 4a ec	 mov	 ecx, DWORD PTR [edx-20]
  00038	33 c8		 xor	 ecx, eax
  0003a	e8 00 00 00 00	 call	 @__security_check_cookie@4
  0003f	b8 00 00 00 00	 mov	 eax, OFFSET __ehfuncinfo$??1GrapplingSkillWoundedInfo@@QAE@XZ
  00044	e9 00 00 00 00	 jmp	 ___CxxFrameHandler3
text$x	ENDS
??1GrapplingSkillWoundedInfo@@QAE@XZ ENDP		; GrapplingSkillWoundedInfo::~GrapplingSkillWoundedInfo
PUBLIC	??_7ioGrapplingSwing2Skill@@6B@			; ioGrapplingSwing2Skill::`vftable'
PUBLIC	??0ioGrapplingSwing2Skill@@QAE@ABV0@@Z		; ioGrapplingSwing2Skill::ioGrapplingSwing2Skill
PUBLIC	??_R4ioGrapplingSwing2Skill@@6B@		; ioGrapplingSwing2Skill::`RTTI Complete Object Locator'
PUBLIC	??_R0?AVioGrapplingSwing2Skill@@@8		; ioGrapplingSwing2Skill `RTTI Type Descriptor'
PUBLIC	??_R3ioGrapplingSwing2Skill@@8			; ioGrapplingSwing2Skill::`RTTI Class Hierarchy Descriptor'
PUBLIC	??_R2ioGrapplingSwing2Skill@@8			; ioGrapplingSwing2Skill::`RTTI Base Class Array'
PUBLIC	??_R1A@?0A@EA@ioGrapplingSwing2Skill@@8		; ioGrapplingSwing2Skill::`RTTI Base Class Descriptor at (0,-1,0,64)'
PUBLIC	??_R1A@?0A@EA@ioAttackSkill@@8			; ioAttackSkill::`RTTI Base Class Descriptor at (0,-1,0,64)'
PUBLIC	??_R0?AVioAttackSkill@@@8			; ioAttackSkill `RTTI Type Descriptor'
PUBLIC	??_R3ioAttackSkill@@8				; ioAttackSkill::`RTTI Class Hierarchy Descriptor'
PUBLIC	??_R2ioAttackSkill@@8				; ioAttackSkill::`RTTI Base Class Array'
PUBLIC	??_R1A@?0A@EA@ioSkill@@8			; ioSkill::`RTTI Base Class Descriptor at (0,-1,0,64)'
PUBLIC	??_R0?AVioSkill@@@8				; ioSkill `RTTI Type Descriptor'
PUBLIC	??_R3ioSkill@@8					; ioSkill::`RTTI Class Hierarchy Descriptor'
PUBLIC	??_R2ioSkill@@8					; ioSkill::`RTTI Base Class Array'
PUBLIC	?LoadProperty@ioGrapplingSwing2Skill@@UAEXAAVioINILoader@@@Z ; ioGrapplingSwing2Skill::LoadProperty
PUBLIC	?Clone@ioGrapplingSwing2Skill@@UAEPAVioSkill@@XZ ; ioGrapplingSwing2Skill::Clone
PUBLIC	?GetDefenseSkillBreakeType@ioSkill@@UBE?AW4DefenseBreakType@@XZ ; ioSkill::GetDefenseSkillBreakeType
PUBLIC	?GetSkillEndNextJumpAmt@ioSkill@@UBEMXZ		; ioSkill::GetSkillEndNextJumpAmt
PUBLIC	?GetSkillEndNextLandRate@ioSkill@@UBEMXZ	; ioSkill::GetSkillEndNextLandRate
PUBLIC	?GetSkillEndNextJumpMustEnable@ioSkill@@UAE?AW4SkillEndJumpType@@XZ ; ioSkill::GetSkillEndNextJumpMustEnable
PUBLIC	?SetSkillGrapplingState@ioGrapplingSwing2Skill@@UAE_NPAVioBaseChar@@ABVioHashString@@@Z ; ioGrapplingSwing2Skill::SetSkillGrapplingState
PUBLIC	?EnableChangeGrapplingTargetPos@ioSkill@@UBE_NXZ ; ioSkill::EnableChangeGrapplingTargetPos
PUBLIC	?OnProcessState@ioGrapplingSwing2Skill@@UAEXPAVioBaseChar@@PAVioPlayStage@@@Z ; ioGrapplingSwing2Skill::OnProcessState
PUBLIC	?ApplyExtraSkillInfo@ioGrapplingSwing2Skill@@UAEXPAVioBaseChar@@PAVioPlayStage@@AAVSP2Packet@@@Z ; ioGrapplingSwing2Skill::ApplyExtraSkillInfo
PUBLIC	?IsInvisibleBottomCircle@ioSkill@@UAE_NPAVioBaseChar@@@Z ; ioSkill::IsInvisibleBottomCircle
PUBLIC	?IsCanJumpingSkill@ioSkill@@UBE_NXZ		; ioSkill::IsCanJumpingSkill
PUBLIC	?IsCanJumpingSkillOnBlowWound@ioSkill@@UBE_NXZ	; ioSkill::IsCanJumpingSkillOnBlowWound
PUBLIC	?IsCanDownSkill@ioSkill@@UBE_NXZ		; ioSkill::IsCanDownSkill
PUBLIC	?IsCanBlowWoundSkill@ioSkill@@UBE_NXZ		; ioSkill::IsCanBlowWoundSkill
PUBLIC	?IsCanWoundSkill@ioSkill@@UBE_NXZ		; ioSkill::IsCanWoundSkill
PUBLIC	?IsUseActiveCnt@ioSkill@@UBE_NXZ		; ioSkill::IsUseActiveCnt
PUBLIC	?GetMaxActiveCnt@ioSkill@@UBEHPAVioBaseChar@@@Z	; ioSkill::GetMaxActiveCnt
PUBLIC	?GetCurActiveCnt@ioSkill@@UBEHPAVioBaseChar@@@Z	; ioSkill::GetCurActiveCnt
EXTRN	??1ioAttackSkill@@UAE@XZ:PROC			; ioAttackSkill::~ioAttackSkill
EXTRN	__imp_??0ioHashString@@QAE@XZ:PROC
EXTRN	??0ioAttackSkill@@QAE@ABV0@@Z:PROC		; ioAttackSkill::ioAttackSkill
EXTRN	?GetTypeID@ioAttackSkill@@UBEHXZ:PROC		; ioAttackSkill::GetTypeID
EXTRN	?IsCanSwitchSkill@ioSkill@@UBE_NXZ:PROC		; ioSkill::IsCanSwitchSkill
EXTRN	?IsCanSemiSwitchSkill@ioSkill@@UBE_NXZ:PROC	; ioSkill::IsCanSemiSwitchSkill
EXTRN	?IsCanCancelBySkill@ioSkill@@UBE_NPAVioBaseChar@@AAH@Z:PROC ; ioSkill::IsCanCancelBySkill
EXTRN	?IsCanUseZeroHP@ioSkill@@UBE_NPAVioBaseChar@@@Z:PROC ; ioSkill::IsCanUseZeroHP
EXTRN	?IsCanUseSkillWithCrown@ioSkill@@UAE_NPAVioBaseChar@@@Z:PROC ; ioSkill::IsCanUseSkillWithCrown
EXTRN	?IsCanUseBoss@ioSkill@@UBE_NPAVioBaseChar@@@Z:PROC ; ioSkill::IsCanUseBoss
EXTRN	?IsCanUseFootball@ioSkill@@UBE_NXZ:PROC		; ioSkill::IsCanUseFootball
EXTRN	?IsCanUseGangSiMode@ioSkill@@UBE_NXZ:PROC	; ioSkill::IsCanUseGangSiMode
EXTRN	?IsCanUseByWeaponType@ioSkill@@UBE_NPAVioBaseChar@@@Z:PROC ; ioSkill::IsCanUseByWeaponType
EXTRN	?IsCanUseThunderBirdHold@ioSkill@@UBE_NPAVioBaseChar@@@Z:PROC ; ioSkill::IsCanUseThunderBirdHold
EXTRN	?IsCanUseLimitHP@ioSkill@@UBE_NPAVioBaseChar@@@Z:PROC ; ioSkill::IsCanUseLimitHP
EXTRN	?IsCanUseSkill@ioAttackSkill@@UAE_NPAVioBaseChar@@_N@Z:PROC ; ioAttackSkill::IsCanUseSkill
EXTRN	?IsOnOffEnable@ioSkill@@UAE_NXZ:PROC		; ioSkill::IsOnOffEnable
EXTRN	?IsCanDefenseStateSkill@ioSkill@@UAE_NXZ:PROC	; ioSkill::IsCanDefenseStateSkill
EXTRN	?SetDefenseStateSkill@ioSkill@@UAEXPAVioBaseChar@@@Z:PROC ; ioSkill::SetDefenseStateSkill
EXTRN	?HasBuff@ioSkill@@UBE_NH@Z:PROC			; ioSkill::HasBuff
EXTRN	?GetBuffType@ioSkill@@UAEHH@Z:PROC		; ioSkill::GetBuffType
EXTRN	?IsCharSkipState@ioSkill@@UBE?AW4SkillCharColType@@XZ:PROC ; ioSkill::IsCharSkipState
EXTRN	?IsEntityCollisionSkipState@ioSkill@@UBE_NXZ:PROC ; ioSkill::IsEntityCollisionSkipState
EXTRN	?IsEndState@ioSkill@@UBE_NXZ:PROC		; ioSkill::IsEndState
EXTRN	?IsAttackEndState@ioAttackSkill@@UBE_NXZ:PROC	; ioAttackSkill::IsAttackEndState
EXTRN	?IsJumpState@ioSkill@@UBE_NXZ:PROC		; ioSkill::IsJumpState
EXTRN	?IsDownState@ioSkill@@UBE_NXZ:PROC		; ioSkill::IsDownState
EXTRN	?IsNoDropState@ioSkill@@UBE_NXZ:PROC		; ioSkill::IsNoDropState
EXTRN	?IsCanSendControl@ioSkill@@UBE_NXZ:PROC		; ioSkill::IsCanSendControl
EXTRN	?IsSkipState@ioSkill@@UBE_NXZ:PROC		; ioSkill::IsSkipState
EXTRN	?GetSkillMoveRate@ioSkill@@UBEMXZ:PROC		; ioSkill::GetSkillMoveRate
EXTRN	?GetGrapplingTargetPos@ioSkill@@UAE?AUD3DXVECTOR3@@PAVioBaseChar@@0@Z:PROC ; ioSkill::GetGrapplingTargetPos
EXTRN	?GetSkillWoundGrapplingInfo@ioSkill@@UAE?AUGrapplingSkillWoundedInfo@@XZ:PROC ; ioSkill::GetSkillWoundGrapplingInfo
EXTRN	?SetCreateWeaponDependency@ioSkill@@UAEXPAVioBaseChar@@PAVioPlayStage@@@Z:PROC ; ioSkill::SetCreateWeaponDependency
EXTRN	?SetNextSkillState@ioSkill@@UAEXPAVioBaseChar@@PAVioWeapon@@@Z:PROC ; ioSkill::SetNextSkillState
EXTRN	?OnSkillEndByWounded@ioSkill@@UAEXPAVioBaseChar@@@Z:PROC ; ioSkill::OnSkillEndByWounded
EXTRN	?OnProcessNotUseSkill@ioSkill@@UAEXPAVioBaseChar@@PAVioPlayStage@@@Z:PROC ; ioSkill::OnProcessNotUseSkill
EXTRN	?OnSkillItemRelease@ioSkill@@UAEXPAVioBaseChar@@@Z:PROC ; ioSkill::OnSkillItemRelease
EXTRN	?ApplyEquipSlotSkillExtraInfo@ioSkill@@UAEXPAVioBaseChar@@PAVioPlayStage@@AAVSP2Packet@@@Z:PROC ; ioSkill::ApplyEquipSlotSkillExtraInfo
EXTRN	?ApplyExtraPassiveSkillInfo@ioSkill@@UAEXPAVioBaseChar@@PAVioPlayStage@@AAVSP2Packet@@@Z:PROC ; ioSkill::ApplyExtraPassiveSkillInfo
EXTRN	?StartPreDelayEffect@ioAttackSkill@@UAEXPAVioBaseChar@@@Z:PROC ; ioAttackSkill::StartPreDelayEffect
EXTRN	?EndPreDelayEffect@ioAttackSkill@@UAEXPAVioBaseChar@@@Z:PROC ; ioAttackSkill::EndPreDelayEffect
EXTRN	?IsUseAutoTargetValue@ioAttackSkill@@UAE_NXZ:PROC ; ioAttackSkill::IsUseAutoTargetValue
EXTRN	?IsAutoTargetDownState@ioSkill@@UAE_NXZ:PROC	; ioSkill::IsAutoTargetDownState
EXTRN	?CheckUseBuff@ioSkill@@UAE_NPAVioBaseChar@@@Z:PROC ; ioSkill::CheckUseBuff
EXTRN	?CheckUseActiveCount@ioSkill@@UAE_NXZ:PROC	; ioSkill::CheckUseActiveCount
EXTRN	?CheckAniRotate@ioSkill@@UAEXPAVioBaseChar@@@Z:PROC ; ioSkill::CheckAniRotate
EXTRN	?IsEnableDashCheck@ioSkill@@UAE_NPAVioBaseChar@@@Z:PROC ; ioSkill::IsEnableDashCheck
EXTRN	?IsEnableMultiActive@ioSkill@@UAE_NPAVioBaseChar@@@Z:PROC ; ioSkill::IsEnableMultiActive
EXTRN	?GetAutoTargetValue@ioSkill@@UAEXAAM00@Z:PROC	; ioSkill::GetAutoTargetValue
EXTRN	?GetSkillGravityRate@ioSkill@@UAEMXZ:PROC	; ioSkill::GetSkillGravityRate
EXTRN	?GetSkillMotionName@ioSkill@@UBEABVioHashString@@XZ:PROC ; ioSkill::GetSkillMotionName
EXTRN	?HasSkillMotion@ioSkill@@UBE_NXZ:PROC		; ioSkill::HasSkillMotion
EXTRN	?GetSkillMotionRate@ioSkill@@UBEMXZ:PROC	; ioSkill::GetSkillMotionRate
EXTRN	?IsPreDelayProtect@ioSkill@@UBE_NXZ:PROC	; ioSkill::IsPreDelayProtect
EXTRN	?GetPreDelayAniName@ioSkill@@UBEABVioHashString@@XZ:PROC ; ioSkill::GetPreDelayAniName
EXTRN	?GetPreDelayTime@ioSkill@@UBEKXZ:PROC		; ioSkill::GetPreDelayTime
EXTRN	?GetPreDelayOwnerEffect@ioSkill@@UBEABVioHashString@@XZ:PROC ; ioSkill::GetPreDelayOwnerEffect
EXTRN	?GetPreDelayOtherEffect@ioSkill@@UBEABVioHashString@@XZ:PROC ; ioSkill::GetPreDelayOtherEffect
EXTRN	?SetCancelSkill@ioSkill@@UAEXPAVioBaseChar@@@Z:PROC ; ioSkill::SetCancelSkill
EXTRN	?ClearAirJump@ioSkill@@MAEXXZ:PROC		; ioSkill::ClearAirJump
EXTRN	?SetAirJump@ioSkill@@MAEXPAVioBaseChar@@HM@Z:PROC ; ioSkill::SetAirJump
EXTRN	?CheckAirJump@ioSkill@@MAEXPAVioBaseChar@@@Z:PROC ; ioSkill::CheckAirJump
EXTRN	?UseActiveCount@ioSkill@@UAE_NPAVioBaseChar@@@Z:PROC ; ioSkill::UseActiveCount
EXTRN	?GetMaxActiveCount@ioSkill@@UAEHPAVioBaseChar@@@Z:PROC ; ioSkill::GetMaxActiveCount
EXTRN	?GetCurActiveCount@ioSkill@@UAEHPAVioBaseChar@@@Z:PROC ; ioSkill::GetCurActiveCount
EXTRN	?HideHPGauge@ioSkill@@UAE_NXZ:PROC		; ioSkill::HideHPGauge
EXTRN	?SetInfoByApplyWeapon@ioSkill@@UAEXPAVioBaseChar@@0K_N@Z:PROC ; ioSkill::SetInfoByApplyWeapon
EXTRN	?SetCollisionByApplySkill@ioSkill@@UAEXXZ:PROC	; ioSkill::SetCollisionByApplySkill
EXTRN	?SetChargingRateForWeapon@ioSkill@@UAEXPAVioWeapon@@@Z:PROC ; ioSkill::SetChargingRateForWeapon
EXTRN	?CheckExceptionCamera@ioSkill@@UAE_NXZ:PROC	; ioSkill::CheckExceptionCamera
EXTRN	?GetExceptionCameraPos@ioSkill@@UAE?AUD3DXVECTOR3@@PAVioBaseChar@@@Z:PROC ; ioSkill::GetExceptionCameraPos
EXTRN	?IsFixedExceptionCamera@ioSkill@@UAE_NXZ:PROC	; ioSkill::IsFixedExceptionCamera
EXTRN	??_EioGrapplingSwing2Skill@@UAEPAXI@Z:PROC	; ioGrapplingSwing2Skill::`vector deleting destructor'
EXTRN	?StartPreDelayAnimation@ioAttackSkill@@MAE_NPAVioBaseChar@@@Z:PROC ; ioAttackSkill::StartPreDelayAnimation
EXTRN	?GetAttackTimeRate@ioAttackSkill@@MBEMXZ:PROC	; ioAttackSkill::GetAttackTimeRate
EXTRN	?GetAttackEndTimeRate@ioAttackSkill@@MBEMXZ:PROC ; ioAttackSkill::GetAttackEndTimeRate
EXTRN	?LoadNormalAttribute@ioAttackSkill@@MAEXAAVioINILoader@@@Z:PROC ; ioAttackSkill::LoadNormalAttribute
EXTRN	?LoadDownAttribute@ioAttackSkill@@MAEXAAVioINILoader@@@Z:PROC ; ioAttackSkill::LoadDownAttribute
EXTRN	?LoadJumpAttribute@ioAttackSkill@@MAEXAAVioINILoader@@@Z:PROC ; ioAttackSkill::LoadJumpAttribute
EXTRN	?GetAttribute@ioAttackSkill@@UAEAAUAttackAttribute@@XZ:PROC ; ioAttackSkill::GetAttribute
EXTRN	?GetAttributeConst@ioAttackSkill@@UBEABUAttackAttribute@@XZ:PROC ; ioAttackSkill::GetAttributeConst
EXTRN	?IsCanStateEscape@ioAttackSkill@@UBE_NXZ:PROC	; ioAttackSkill::IsCanStateEscape
EXTRN	?IsCanStateEscapeOnStand@ioAttackSkill@@UBE_NPAVioBaseChar@@@Z:PROC ; ioAttackSkill::IsCanStateEscapeOnStand
EXTRN	?IsCanStateEscapeOnAir@ioAttackSkill@@UBE_NPAVioBaseChar@@@Z:PROC ; ioAttackSkill::IsCanStateEscapeOnAir
EXTRN	?IsCanStateEscapeOnDown@ioAttackSkill@@UBE_NPAVioBaseChar@@@Z:PROC ; ioAttackSkill::IsCanStateEscapeOnDown
;	COMDAT ??_R2ioSkill@@8
; File c:\program files (x86)\microsoft directx sdk (june 2010)\include\d3dx9math.h
rdata$r	SEGMENT
??_R2ioSkill@@8 DD FLAT:??_R1A@?0A@EA@ioSkill@@8	; ioSkill::`RTTI Base Class Array'
rdata$r	ENDS
;	COMDAT ??_R3ioSkill@@8
rdata$r	SEGMENT
??_R3ioSkill@@8 DD 00H					; ioSkill::`RTTI Class Hierarchy Descriptor'
	DD	00H
	DD	01H
	DD	FLAT:??_R2ioSkill@@8
rdata$r	ENDS
;	COMDAT ??_R0?AVioSkill@@@8
_DATA	SEGMENT
??_R0?AVioSkill@@@8 DD FLAT:??_7type_info@@6B@		; ioSkill `RTTI Type Descriptor'
	DD	00H
	DB	'.?AVioSkill@@', 00H
_DATA	ENDS
;	COMDAT ??_R1A@?0A@EA@ioSkill@@8
rdata$r	SEGMENT
??_R1A@?0A@EA@ioSkill@@8 DD FLAT:??_R0?AVioSkill@@@8	; ioSkill::`RTTI Base Class Descriptor at (0,-1,0,64)'
	DD	00H
	DD	00H
	DD	0ffffffffH
	DD	00H
	DD	040H
	DD	FLAT:??_R3ioSkill@@8
rdata$r	ENDS
;	COMDAT ??_R2ioAttackSkill@@8
rdata$r	SEGMENT
??_R2ioAttackSkill@@8 DD FLAT:??_R1A@?0A@EA@ioAttackSkill@@8 ; ioAttackSkill::`RTTI Base Class Array'
	DD	FLAT:??_R1A@?0A@EA@ioSkill@@8
rdata$r	ENDS
;	COMDAT ??_R3ioAttackSkill@@8
rdata$r	SEGMENT
??_R3ioAttackSkill@@8 DD 00H				; ioAttackSkill::`RTTI Class Hierarchy Descriptor'
	DD	00H
	DD	02H
	DD	FLAT:??_R2ioAttackSkill@@8
rdata$r	ENDS
;	COMDAT ??_R0?AVioAttackSkill@@@8
_DATA	SEGMENT
??_R0?AVioAttackSkill@@@8 DD FLAT:??_7type_info@@6B@	; ioAttackSkill `RTTI Type Descriptor'
	DD	00H
	DB	'.?AVioAttackSkill@@', 00H
_DATA	ENDS
;	COMDAT ??_R1A@?0A@EA@ioAttackSkill@@8
rdata$r	SEGMENT
??_R1A@?0A@EA@ioAttackSkill@@8 DD FLAT:??_R0?AVioAttackSkill@@@8 ; ioAttackSkill::`RTTI Base Class Descriptor at (0,-1,0,64)'
	DD	01H
	DD	00H
	DD	0ffffffffH
	DD	00H
	DD	040H
	DD	FLAT:??_R3ioAttackSkill@@8
rdata$r	ENDS
;	COMDAT ??_R1A@?0A@EA@ioGrapplingSwing2Skill@@8
rdata$r	SEGMENT
??_R1A@?0A@EA@ioGrapplingSwing2Skill@@8 DD FLAT:??_R0?AVioGrapplingSwing2Skill@@@8 ; ioGrapplingSwing2Skill::`RTTI Base Class Descriptor at (0,-1,0,64)'
	DD	02H
	DD	00H
	DD	0ffffffffH
	DD	00H
	DD	040H
	DD	FLAT:??_R3ioGrapplingSwing2Skill@@8
rdata$r	ENDS
;	COMDAT ??_R2ioGrapplingSwing2Skill@@8
rdata$r	SEGMENT
??_R2ioGrapplingSwing2Skill@@8 DD FLAT:??_R1A@?0A@EA@ioGrapplingSwing2Skill@@8 ; ioGrapplingSwing2Skill::`RTTI Base Class Array'
	DD	FLAT:??_R1A@?0A@EA@ioAttackSkill@@8
	DD	FLAT:??_R1A@?0A@EA@ioSkill@@8
rdata$r	ENDS
;	COMDAT ??_R3ioGrapplingSwing2Skill@@8
rdata$r	SEGMENT
??_R3ioGrapplingSwing2Skill@@8 DD 00H			; ioGrapplingSwing2Skill::`RTTI Class Hierarchy Descriptor'
	DD	00H
	DD	03H
	DD	FLAT:??_R2ioGrapplingSwing2Skill@@8
rdata$r	ENDS
;	COMDAT ??_R0?AVioGrapplingSwing2Skill@@@8
_DATA	SEGMENT
??_R0?AVioGrapplingSwing2Skill@@@8 DD FLAT:??_7type_info@@6B@ ; ioGrapplingSwing2Skill `RTTI Type Descriptor'
	DD	00H
	DB	'.?AVioGrapplingSwing2Skill@@', 00H
_DATA	ENDS
;	COMDAT ??_R4ioGrapplingSwing2Skill@@6B@
rdata$r	SEGMENT
??_R4ioGrapplingSwing2Skill@@6B@ DD 00H			; ioGrapplingSwing2Skill::`RTTI Complete Object Locator'
	DD	00H
	DD	00H
	DD	FLAT:??_R0?AVioGrapplingSwing2Skill@@@8
	DD	FLAT:??_R3ioGrapplingSwing2Skill@@8
rdata$r	ENDS
;	COMDAT ??_7ioGrapplingSwing2Skill@@6B@
CONST	SEGMENT
??_7ioGrapplingSwing2Skill@@6B@ DD FLAT:??_R4ioGrapplingSwing2Skill@@6B@ ; ioGrapplingSwing2Skill::`vftable'
	DD	FLAT:?LoadProperty@ioGrapplingSwing2Skill@@UAEXAAVioINILoader@@@Z
	DD	FLAT:?Clone@ioGrapplingSwing2Skill@@UAEPAVioSkill@@XZ
	DD	FLAT:?GetTypeID@ioAttackSkill@@UBEHXZ
	DD	FLAT:?IsProtected@ioGrapplingSwing2Skill@@UBE_NH@Z
	DD	FLAT:?IsCanSwitchSkill@ioSkill@@UBE_NXZ
	DD	FLAT:?IsCanSemiSwitchSkill@ioSkill@@UBE_NXZ
	DD	FLAT:?IsCanCancelBySkill@ioSkill@@UBE_NPAVioBaseChar@@AAH@Z
	DD	FLAT:?IsCanUseZeroHP@ioSkill@@UBE_NPAVioBaseChar@@@Z
	DD	FLAT:?IsCanUseSkillWithCrown@ioSkill@@UAE_NPAVioBaseChar@@@Z
	DD	FLAT:?IsCanUseBoss@ioSkill@@UBE_NPAVioBaseChar@@@Z
	DD	FLAT:?IsCanUseFootball@ioSkill@@UBE_NXZ
	DD	FLAT:?IsCanUseGangSiMode@ioSkill@@UBE_NXZ
	DD	FLAT:?IsCanUseByWeaponType@ioSkill@@UBE_NPAVioBaseChar@@@Z
	DD	FLAT:?IsCanUseThunderBirdHold@ioSkill@@UBE_NPAVioBaseChar@@@Z
	DD	FLAT:?IsCanUseLimitHP@ioSkill@@UBE_NPAVioBaseChar@@@Z
	DD	FLAT:?IsCanUseSkill@ioAttackSkill@@UAE_NPAVioBaseChar@@_N@Z
	DD	FLAT:?IsOnOffEnable@ioSkill@@UAE_NXZ
	DD	FLAT:?IsCanDefenseStateSkill@ioSkill@@UAE_NXZ
	DD	FLAT:?SetDefenseStateSkill@ioSkill@@UAEXPAVioBaseChar@@@Z
	DD	FLAT:?GetDefenseSkillBreakeType@ioSkill@@UBE?AW4DefenseBreakType@@XZ
	DD	FLAT:?HasBuff@ioSkill@@UBE_NH@Z
	DD	FLAT:?GetBuffType@ioSkill@@UAEHH@Z
	DD	FLAT:?IsEnableReserve@ioGrapplingSwing2Skill@@UBE_NXZ
	DD	FLAT:?IsSkillMotionEnd@ioGrapplingSwing2Skill@@UBE_NKPAVioBaseChar@@@Z
	DD	FLAT:?IsCharSkipState@ioSkill@@UBE?AW4SkillCharColType@@XZ
	DD	FLAT:?IsEntityCollisionSkipState@ioSkill@@UBE_NXZ
	DD	FLAT:?GetSkillEndNextJumpAmt@ioSkill@@UBEMXZ
	DD	FLAT:?GetSkillEndNextLandRate@ioSkill@@UBEMXZ
	DD	FLAT:?GetSkillEndNextJumpMustEnable@ioSkill@@UAE?AW4SkillEndJumpType@@XZ
	DD	FLAT:?IsEndState@ioSkill@@UBE_NXZ
	DD	FLAT:?IsAttackEndState@ioAttackSkill@@UBE_NXZ
	DD	FLAT:?IsJumpState@ioSkill@@UBE_NXZ
	DD	FLAT:?IsDownState@ioSkill@@UBE_NXZ
	DD	FLAT:?IsNoDropState@ioSkill@@UBE_NXZ
	DD	FLAT:?IsCanSendControl@ioSkill@@UBE_NXZ
	DD	FLAT:?IsSkipState@ioSkill@@UBE_NXZ
	DD	FLAT:?GetSkillMoveRate@ioSkill@@UBEMXZ
	DD	FLAT:?SetSkillGrapplingState@ioGrapplingSwing2Skill@@UAE_NPAVioBaseChar@@ABVioHashString@@@Z
	DD	FLAT:?GetGrapplingTargetPos@ioSkill@@UAE?AUD3DXVECTOR3@@PAVioBaseChar@@0@Z
	DD	FLAT:?GetGrapplingTargetPos@ioGrapplingSwing2Skill@@UAE?AUD3DXVECTOR3@@PAVioBaseChar@@@Z
	DD	FLAT:?EnableChangeGrapplingTargetPos@ioSkill@@UBE_NXZ
	DD	FLAT:?GetSkillWoundGrapplingInfo@ioSkill@@UAE?AUGrapplingSkillWoundedInfo@@XZ
	DD	FLAT:?SetCreateWeaponDependency@ioSkill@@UAEXPAVioBaseChar@@PAVioPlayStage@@@Z
	DD	FLAT:?SetNextSkillState@ioSkill@@UAEXPAVioBaseChar@@PAVioWeapon@@@Z
	DD	FLAT:?OnSkillStart@ioGrapplingSwing2Skill@@UAE_NPAVioBaseChar@@@Z
	DD	FLAT:?OnProcessState@ioGrapplingSwing2Skill@@UAEXPAVioBaseChar@@PAVioPlayStage@@@Z
	DD	FLAT:?OnSkillEndByWounded@ioSkill@@UAEXPAVioBaseChar@@@Z
	DD	FLAT:?OnSkillEnd@ioGrapplingSwing2Skill@@UAEXPAVioBaseChar@@@Z
	DD	FLAT:?OnProcessNotUseSkill@ioSkill@@UAEXPAVioBaseChar@@PAVioPlayStage@@@Z
	DD	FLAT:?OnSkillItemRelease@ioSkill@@UAEXPAVioBaseChar@@@Z
	DD	FLAT:?ApplyAttributeToWeapon@ioGrapplingSwing2Skill@@UAEXPAVioWeapon@@PAVioPlayStage@@@Z
	DD	FLAT:?ApplyExtraSkillInfo@ioGrapplingSwing2Skill@@UAEXPAVioBaseChar@@PAVioPlayStage@@AAVSP2Packet@@@Z
	DD	FLAT:?ApplyEquipSlotSkillExtraInfo@ioSkill@@UAEXPAVioBaseChar@@PAVioPlayStage@@AAVSP2Packet@@@Z
	DD	FLAT:?ApplyExtraPassiveSkillInfo@ioSkill@@UAEXPAVioBaseChar@@PAVioPlayStage@@AAVSP2Packet@@@Z
	DD	FLAT:?StartPreDelayEffect@ioAttackSkill@@UAEXPAVioBaseChar@@@Z
	DD	FLAT:?EndPreDelayEffect@ioAttackSkill@@UAEXPAVioBaseChar@@@Z
	DD	FLAT:?IsUseAutoTargetValue@ioAttackSkill@@UAE_NXZ
	DD	FLAT:?IsAutoTargetDownState@ioSkill@@UAE_NXZ
	DD	FLAT:?CheckUseBuff@ioSkill@@UAE_NPAVioBaseChar@@@Z
	DD	FLAT:?CheckUseItemMesh@ioGrapplingSwing2Skill@@UAE_NXZ
	DD	FLAT:?CheckUseActiveCount@ioSkill@@UAE_NXZ
	DD	FLAT:?CheckAniRotate@ioSkill@@UAEXPAVioBaseChar@@@Z
	DD	FLAT:?IsEnableDashCheck@ioSkill@@UAE_NPAVioBaseChar@@@Z
	DD	FLAT:?IsEnableMultiActive@ioSkill@@UAE_NPAVioBaseChar@@@Z
	DD	FLAT:?IsInvisibleBottomCircle@ioSkill@@UAE_NPAVioBaseChar@@@Z
	DD	FLAT:?GetAutoTargetValue@ioSkill@@UAEXAAM00@Z
	DD	FLAT:?IsCanJumpingSkill@ioSkill@@UBE_NXZ
	DD	FLAT:?IsCanJumpingSkillOnBlowWound@ioSkill@@UBE_NXZ
	DD	FLAT:?IsCanDownSkill@ioSkill@@UBE_NXZ
	DD	FLAT:?IsCanBlowWoundSkill@ioSkill@@UBE_NXZ
	DD	FLAT:?IsCanWoundSkill@ioSkill@@UBE_NXZ
	DD	FLAT:?GetSkillGravityRate@ioSkill@@UAEMXZ
	DD	FLAT:?GetSkillMotionName@ioSkill@@UBEABVioHashString@@XZ
	DD	FLAT:?HasSkillMotion@ioSkill@@UBE_NXZ
	DD	FLAT:?GetSkillMotionRate@ioSkill@@UBEMXZ
	DD	FLAT:?IsPreDelayProtect@ioSkill@@UBE_NXZ
	DD	FLAT:?GetPreDelayAniName@ioSkill@@UBEABVioHashString@@XZ
	DD	FLAT:?GetPreDelayTime@ioSkill@@UBEKXZ
	DD	FLAT:?GetPreDelayOwnerEffect@ioSkill@@UBEABVioHashString@@XZ
	DD	FLAT:?GetPreDelayOtherEffect@ioSkill@@UBEABVioHashString@@XZ
	DD	FLAT:?SetCancelSkill@ioSkill@@UAEXPAVioBaseChar@@@Z
	DD	FLAT:?ClearAirJump@ioSkill@@MAEXXZ
	DD	FLAT:?SetAirJump@ioSkill@@MAEXPAVioBaseChar@@HM@Z
	DD	FLAT:?CheckAirJump@ioSkill@@MAEXPAVioBaseChar@@@Z
	DD	FLAT:?UseActiveCount@ioSkill@@UAE_NPAVioBaseChar@@@Z
	DD	FLAT:?GetMaxActiveCount@ioSkill@@UAEHPAVioBaseChar@@@Z
	DD	FLAT:?GetCurActiveCount@ioSkill@@UAEHPAVioBaseChar@@@Z
	DD	FLAT:?HideHPGauge@ioSkill@@UAE_NXZ
	DD	FLAT:?SetInfoByApplyWeapon@ioSkill@@UAEXPAVioBaseChar@@0K_N@Z
	DD	FLAT:?SetCollisionByApplySkill@ioSkill@@UAEXXZ
	DD	FLAT:?SetChargingRateForWeapon@ioSkill@@UAEXPAVioWeapon@@@Z
	DD	FLAT:?CheckExceptionCamera@ioSkill@@UAE_NXZ
	DD	FLAT:?GetExceptionCameraPos@ioSkill@@UAE?AUD3DXVECTOR3@@PAVioBaseChar@@@Z
	DD	FLAT:?IsFixedExceptionCamera@ioSkill@@UAE_NXZ
	DD	FLAT:?IsUseActiveCnt@ioSkill@@UBE_NXZ
	DD	FLAT:?GetMaxActiveCnt@ioSkill@@UBEHPAVioBaseChar@@@Z
	DD	FLAT:?GetCurActiveCnt@ioSkill@@UBEHPAVioBaseChar@@@Z
	DD	FLAT:??_EioGrapplingSwing2Skill@@UAEPAXI@Z
	DD	FLAT:?StartPreDelayAnimation@ioAttackSkill@@MAE_NPAVioBaseChar@@@Z
	DD	FLAT:?AttackSkillFire@ioGrapplingSwing2Skill@@MAEXPAVioBaseChar@@@Z
	DD	FLAT:?GetAttackTimeRate@ioAttackSkill@@MBEMXZ
	DD	FLAT:?GetAttackEndTimeRate@ioAttackSkill@@MBEMXZ
	DD	FLAT:?LoadNormalAttribute@ioAttackSkill@@MAEXAAVioINILoader@@@Z
	DD	FLAT:?LoadDownAttribute@ioAttackSkill@@MAEXAAVioINILoader@@@Z
	DD	FLAT:?LoadJumpAttribute@ioAttackSkill@@MAEXAAVioINILoader@@@Z
	DD	FLAT:?GetAttribute@ioAttackSkill@@UAEAAUAttackAttribute@@XZ
	DD	FLAT:?GetAttributeConst@ioAttackSkill@@UBEABUAttackAttribute@@XZ
	DD	FLAT:?IsCanStateEscape@ioAttackSkill@@UBE_NXZ
	DD	FLAT:?IsCanStateEscapeOnStand@ioAttackSkill@@UBE_NPAVioBaseChar@@@Z
	DD	FLAT:?IsCanStateEscapeOnAir@ioAttackSkill@@UBE_NPAVioBaseChar@@@Z
	DD	FLAT:?IsCanStateEscapeOnDown@ioAttackSkill@@UBE_NPAVioBaseChar@@@Z
CONST	ENDS
;	COMDAT xdata$x
xdata$x	SEGMENT
__ehfuncinfo$??0ioGrapplingSwing2Skill@@QAE@ABV0@@Z DD 019930522H
	DD	014H
	DD	FLAT:__unwindtable$??0ioGrapplingSwing2Skill@@QAE@ABV0@@Z
	DD	2 DUP(00H)
	DD	2 DUP(00H)
	DD	00H
	DD	01H
__unwindtable$??0ioGrapplingSwing2Skill@@QAE@ABV0@@Z DD 0ffffffffH
	DD	FLAT:__unwindfunclet$??0ioGrapplingSwing2Skill@@QAE@ABV0@@Z$0
	DD	00H
	DD	FLAT:__unwindfunclet$??0ioGrapplingSwing2Skill@@QAE@ABV0@@Z$1
	DD	01H
	DD	FLAT:__unwindfunclet$??0ioGrapplingSwing2Skill@@QAE@ABV0@@Z$2
	DD	02H
	DD	FLAT:__unwindfunclet$??0ioGrapplingSwing2Skill@@QAE@ABV0@@Z$3
	DD	03H
	DD	FLAT:__unwindfunclet$??0ioGrapplingSwing2Skill@@QAE@ABV0@@Z$4
	DD	04H
	DD	FLAT:__unwindfunclet$??0ioGrapplingSwing2Skill@@QAE@ABV0@@Z$5
	DD	05H
	DD	FLAT:__unwindfunclet$??0ioGrapplingSwing2Skill@@QAE@ABV0@@Z$6
	DD	06H
	DD	FLAT:__unwindfunclet$??0ioGrapplingSwing2Skill@@QAE@ABV0@@Z$7
	DD	07H
	DD	FLAT:__unwindfunclet$??0ioGrapplingSwing2Skill@@QAE@ABV0@@Z$8
	DD	08H
	DD	FLAT:__unwindfunclet$??0ioGrapplingSwing2Skill@@QAE@ABV0@@Z$9
	DD	09H
	DD	FLAT:__unwindfunclet$??0ioGrapplingSwing2Skill@@QAE@ABV0@@Z$10
	DD	0aH
	DD	FLAT:__unwindfunclet$??0ioGrapplingSwing2Skill@@QAE@ABV0@@Z$11
	DD	0bH
	DD	FLAT:__unwindfunclet$??0ioGrapplingSwing2Skill@@QAE@ABV0@@Z$12
	DD	0cH
	DD	FLAT:__unwindfunclet$??0ioGrapplingSwing2Skill@@QAE@ABV0@@Z$13
	DD	0dH
	DD	FLAT:__unwindfunclet$??0ioGrapplingSwing2Skill@@QAE@ABV0@@Z$14
	DD	0eH
	DD	FLAT:__unwindfunclet$??0ioGrapplingSwing2Skill@@QAE@ABV0@@Z$15
	DD	0fH
	DD	FLAT:__unwindfunclet$??0ioGrapplingSwing2Skill@@QAE@ABV0@@Z$16
	DD	010H
	DD	FLAT:__unwindfunclet$??0ioGrapplingSwing2Skill@@QAE@ABV0@@Z$17
	DD	011H
	DD	FLAT:__unwindfunclet$??0ioGrapplingSwing2Skill@@QAE@ABV0@@Z$18
	DD	012H
	DD	FLAT:__unwindfunclet$??0ioGrapplingSwing2Skill@@QAE@ABV0@@Z$19
; Function compile flags: /Ogsp
; File d:\lost saga for developer\youtube\tutorial\source\src\lsclient\iograpplingswing2skill.cpp
xdata$x	ENDS
;	COMDAT ??0ioGrapplingSwing2Skill@@QAE@ABV0@@Z
_TEXT	SEGMENT
_this$ = -16						; size = 4
__$EHRec$ = -12						; size = 12
_rhs$ = 8						; size = 4
??0ioGrapplingSwing2Skill@@QAE@ABV0@@Z PROC		; ioGrapplingSwing2Skill::ioGrapplingSwing2Skill, COMDAT
; _this$ = ecx

; 44   : {

  00000	6a 04		 push	 4
  00002	b8 00 00 00 00	 mov	 eax, __ehhandler$??0ioGrapplingSwing2Skill@@QAE@ABV0@@Z
  00007	e8 00 00 00 00	 call	 __EH_prolog3
  0000c	8b f1		 mov	 esi, ecx
  0000e	89 75 f0	 mov	 DWORD PTR _this$[ebp], esi
  00011	8b 7d 08	 mov	 edi, DWORD PTR _rhs$[ebp]
  00014	57		 push	 edi
  00015	e8 00 00 00 00	 call	 ??0ioAttackSkill@@QAE@ABV0@@Z ; ioAttackSkill::ioAttackSkill
  0001a	8b 1d 00 00 00
	00		 mov	 ebx, DWORD PTR __imp_??0ioHashString@@QAE@ABV0@@Z
  00020	83 65 fc 00	 and	 DWORD PTR __$EHRec$[ebp+8], 0
  00024	c7 06 00 00 00
	00		 mov	 DWORD PTR [esi], OFFSET ??_7ioGrapplingSwing2Skill@@6B@
  0002a	8b 87 e8 10 00
	00		 mov	 eax, DWORD PTR [edi+4328]
  00030	89 86 e8 10 00
	00		 mov	 DWORD PTR [esi+4328], eax
  00036	8d 87 ec 10 00
	00		 lea	 eax, DWORD PTR [edi+4332]
  0003c	50		 push	 eax
  0003d	8d 8e ec 10 00
	00		 lea	 ecx, DWORD PTR [esi+4332]
  00043	ff d3		 call	 ebx
  00045	d9 87 fc 10 00
	00		 fld	 DWORD PTR [edi+4348]
  0004b	8d 87 00 11 00
	00		 lea	 eax, DWORD PTR [edi+4352]
  00051	d9 9e fc 10 00
	00		 fstp	 DWORD PTR [esi+4348]
  00057	50		 push	 eax
  00058	8d 8e 00 11 00
	00		 lea	 ecx, DWORD PTR [esi+4352]
  0005e	c6 45 fc 01	 mov	 BYTE PTR __$EHRec$[ebp+8], 1
  00062	ff d3		 call	 ebx
  00064	d9 87 10 11 00
	00		 fld	 DWORD PTR [edi+4368]
  0006a	8d 87 14 11 00
	00		 lea	 eax, DWORD PTR [edi+4372]
  00070	d9 9e 10 11 00
	00		 fstp	 DWORD PTR [esi+4368]
  00076	50		 push	 eax
  00077	8d 8e 14 11 00
	00		 lea	 ecx, DWORD PTR [esi+4372]
  0007d	c6 45 fc 02	 mov	 BYTE PTR __$EHRec$[ebp+8], 2
  00081	ff d3		 call	 ebx
  00083	d9 87 24 11 00
	00		 fld	 DWORD PTR [edi+4388]
  00089	d9 9e 24 11 00
	00		 fstp	 DWORD PTR [esi+4388]
  0008f	8b 87 28 11 00
	00		 mov	 eax, DWORD PTR [edi+4392]
  00095	89 86 28 11 00
	00		 mov	 DWORD PTR [esi+4392], eax
  0009b	8b 87 2c 11 00
	00		 mov	 eax, DWORD PTR [edi+4396]
  000a1	89 86 2c 11 00
	00		 mov	 DWORD PTR [esi+4396], eax
  000a7	8b 87 30 11 00
	00		 mov	 eax, DWORD PTR [edi+4400]
  000ad	89 86 30 11 00
	00		 mov	 DWORD PTR [esi+4400], eax
  000b3	8a 87 34 11 00
	00		 mov	 al, BYTE PTR [edi+4404]
  000b9	88 86 34 11 00
	00		 mov	 BYTE PTR [esi+4404], al
  000bf	8d 87 38 11 00
	00		 lea	 eax, DWORD PTR [edi+4408]
  000c5	50		 push	 eax
  000c6	8d 8e 38 11 00
	00		 lea	 ecx, DWORD PTR [esi+4408]
  000cc	c6 45 fc 03	 mov	 BYTE PTR __$EHRec$[ebp+8], 3
  000d0	e8 00 00 00 00	 call	 ??0?$CEncrypt@M@@QAE@ABV0@@Z ; CEncrypt<float>::CEncrypt<float>
  000d5	8d 8e 68 11 00
	00		 lea	 ecx, DWORD PTR [esi+4456]
  000db	c6 45 fc 04	 mov	 BYTE PTR __$EHRec$[ebp+8], 4
  000df	ff 15 00 00 00
	00		 call	 DWORD PTR __imp_??0ioHashString@@QAE@XZ
  000e5	d9 87 78 11 00
	00		 fld	 DWORD PTR [edi+4472]
  000eb	d9 9e 78 11 00
	00		 fstp	 DWORD PTR [esi+4472]
  000f1	8a 87 7c 11 00
	00		 mov	 al, BYTE PTR [edi+4476]
  000f7	88 86 7c 11 00
	00		 mov	 BYTE PTR [esi+4476], al
  000fd	8d 87 80 11 00
	00		 lea	 eax, DWORD PTR [edi+4480]
  00103	50		 push	 eax
  00104	8d 8e 80 11 00
	00		 lea	 ecx, DWORD PTR [esi+4480]
  0010a	c6 45 fc 05	 mov	 BYTE PTR __$EHRec$[ebp+8], 5
  0010e	e8 00 00 00 00	 call	 ??0?$CEncrypt@M@@QAE@ABV0@@Z ; CEncrypt<float>::CEncrypt<float>
  00113	8d 87 b0 11 00
	00		 lea	 eax, DWORD PTR [edi+4528]
  00119	50		 push	 eax
  0011a	8d 8e b0 11 00
	00		 lea	 ecx, DWORD PTR [esi+4528]
  00120	c6 45 fc 06	 mov	 BYTE PTR __$EHRec$[ebp+8], 6
  00124	e8 00 00 00 00	 call	 ??0?$CEncrypt@K@@QAE@ABV0@@Z ; CEncrypt<unsigned long>::CEncrypt<unsigned long>
  00129	8d 87 f4 11 00
	00		 lea	 eax, DWORD PTR [edi+4596]
  0012f	50		 push	 eax
  00130	8d 8e f4 11 00
	00		 lea	 ecx, DWORD PTR [esi+4596]
  00136	c6 45 fc 07	 mov	 BYTE PTR __$EHRec$[ebp+8], 7
  0013a	ff d3		 call	 ebx
  0013c	8d 87 04 12 00
	00		 lea	 eax, DWORD PTR [edi+4612]
  00142	50		 push	 eax
  00143	8d 8e 04 12 00
	00		 lea	 ecx, DWORD PTR [esi+4612]
  00149	c6 45 fc 08	 mov	 BYTE PTR __$EHRec$[ebp+8], 8
  0014d	e8 00 00 00 00	 call	 ??0?$CEncrypt@M@@QAE@ABV0@@Z ; CEncrypt<float>::CEncrypt<float>
  00152	8d 87 34 12 00
	00		 lea	 eax, DWORD PTR [edi+4660]
  00158	c6 45 fc 09	 mov	 BYTE PTR __$EHRec$[ebp+8], 9
  0015c	50		 push	 eax
  0015d	8d 8e 34 12 00
	00		 lea	 ecx, DWORD PTR [esi+4660]
  00163	ff d3		 call	 ebx
  00165	8d 87 44 12 00
	00		 lea	 eax, DWORD PTR [edi+4676]
  0016b	50		 push	 eax
  0016c	8d 8e 44 12 00
	00		 lea	 ecx, DWORD PTR [esi+4676]
  00172	c6 45 fc 0a	 mov	 BYTE PTR __$EHRec$[ebp+8], 10 ; 0000000aH
  00176	e8 00 00 00 00	 call	 ??0?$CEncrypt@M@@QAE@ABV0@@Z ; CEncrypt<float>::CEncrypt<float>
  0017b	8d 87 74 12 00
	00		 lea	 eax, DWORD PTR [edi+4724]
  00181	50		 push	 eax
  00182	8d 8e 74 12 00
	00		 lea	 ecx, DWORD PTR [esi+4724]
  00188	c6 45 fc 0b	 mov	 BYTE PTR __$EHRec$[ebp+8], 11 ; 0000000bH
  0018c	e8 00 00 00 00	 call	 ??0?$CEncrypt@K@@QAE@ABV0@@Z ; CEncrypt<unsigned long>::CEncrypt<unsigned long>
  00191	8d 87 ac 12 00
	00		 lea	 eax, DWORD PTR [edi+4780]
  00197	50		 push	 eax
  00198	8d 8e ac 12 00
	00		 lea	 ecx, DWORD PTR [esi+4780]
  0019e	c6 45 fc 0c	 mov	 BYTE PTR __$EHRec$[ebp+8], 12 ; 0000000cH
  001a2	e8 00 00 00 00	 call	 ??0?$CEncrypt@_N@@QAE@ABV0@@Z ; CEncrypt<bool>::CEncrypt<bool>
  001a7	8d 87 dc 12 00
	00		 lea	 eax, DWORD PTR [edi+4828]
  001ad	50		 push	 eax
  001ae	8d 8e dc 12 00
	00		 lea	 ecx, DWORD PTR [esi+4828]
  001b4	c6 45 fc 0d	 mov	 BYTE PTR __$EHRec$[ebp+8], 13 ; 0000000dH
  001b8	e8 00 00 00 00	 call	 ??0?$CEncrypt@M@@QAE@ABV0@@Z ; CEncrypt<float>::CEncrypt<float>
  001bd	8d 87 0c 13 00
	00		 lea	 eax, DWORD PTR [edi+4876]
  001c3	50		 push	 eax
  001c4	8d 8e 0c 13 00
	00		 lea	 ecx, DWORD PTR [esi+4876]
  001ca	c6 45 fc 0e	 mov	 BYTE PTR __$EHRec$[ebp+8], 14 ; 0000000eH
  001ce	e8 00 00 00 00	 call	 ??0?$CEncrypt@K@@QAE@ABV0@@Z ; CEncrypt<unsigned long>::CEncrypt<unsigned long>
  001d3	8d 8e 40 13 00
	00		 lea	 ecx, DWORD PTR [esi+4928]
  001d9	c6 45 fc 0f	 mov	 BYTE PTR __$EHRec$[ebp+8], 15 ; 0000000fH
  001dd	e8 00 00 00 00	 call	 ??0?$CEncrypt@M@@QAE@XZ	; CEncrypt<float>::CEncrypt<float>
  001e2	8d 8e 70 13 00
	00		 lea	 ecx, DWORD PTR [esi+4976]
  001e8	c6 45 fc 10	 mov	 BYTE PTR __$EHRec$[ebp+8], 16 ; 00000010H
  001ec	e8 00 00 00 00	 call	 ??0?$CEncrypt@K@@QAE@XZ	; CEncrypt<unsigned long>::CEncrypt<unsigned long>
  001f1	8d 87 a4 13 00
	00		 lea	 eax, DWORD PTR [edi+5028]
  001f7	50		 push	 eax
  001f8	8d 8e a4 13 00
	00		 lea	 ecx, DWORD PTR [esi+5028]
  001fe	c6 45 fc 11	 mov	 BYTE PTR __$EHRec$[ebp+8], 17 ; 00000011H
  00202	e8 00 00 00 00	 call	 ??0GrapplingSkillWoundedInfo@@QAE@ABU0@@Z
  00207	81 c7 00 14 00
	00		 add	 edi, 5120		; 00001400H
  0020d	57		 push	 edi
  0020e	8d 8e 00 14 00
	00		 lea	 ecx, DWORD PTR [esi+5120]
  00214	c6 45 fc 12	 mov	 BYTE PTR __$EHRec$[ebp+8], 18 ; 00000012H
  00218	e8 00 00 00 00	 call	 ??0GrapplingSkillWoundedInfo@@QAE@ABU0@@Z

; 45   : 	ClearData();

  0021d	8b ce		 mov	 ecx, esi
  0021f	c6 45 fc 13	 mov	 BYTE PTR __$EHRec$[ebp+8], 19 ; 00000013H
  00223	e8 00 00 00 00	 call	 ?ClearData@ioGrapplingSwing2Skill@@IAEXXZ ; ioGrapplingSwing2Skill::ClearData

; 46   : }

  00228	8b c6		 mov	 eax, esi
  0022a	e8 00 00 00 00	 call	 __EH_epilog3
  0022f	c2 04 00	 ret	 4
_TEXT	ENDS
;	COMDAT text$x
text$x	SEGMENT
__unwindfunclet$??0ioGrapplingSwing2Skill@@QAE@ABV0@@Z$0:
  00000	8b 4d f0	 mov	 ecx, DWORD PTR _this$[ebp]
  00003	e9 00 00 00 00	 jmp	 ??1ioAttackSkill@@UAE@XZ ; ioAttackSkill::~ioAttackSkill
__unwindfunclet$??0ioGrapplingSwing2Skill@@QAE@ABV0@@Z$1:
  00008	8b 4d f0	 mov	 ecx, DWORD PTR _this$[ebp]
  0000b	81 c1 ec 10 00
	00		 add	 ecx, 4332		; 000010ecH
  00011	ff 25 00 00 00
	00		 jmp	 DWORD PTR __imp_??1ioHashString@@QAE@XZ
__unwindfunclet$??0ioGrapplingSwing2Skill@@QAE@ABV0@@Z$2:
  00017	8b 4d f0	 mov	 ecx, DWORD PTR _this$[ebp]
  0001a	81 c1 00 11 00
	00		 add	 ecx, 4352		; 00001100H
  00020	ff 25 00 00 00
	00		 jmp	 DWORD PTR __imp_??1ioHashString@@QAE@XZ
__unwindfunclet$??0ioGrapplingSwing2Skill@@QAE@ABV0@@Z$3:
  00026	8b 4d f0	 mov	 ecx, DWORD PTR _this$[ebp]
  00029	81 c1 14 11 00
	00		 add	 ecx, 4372		; 00001114H
  0002f	ff 25 00 00 00
	00		 jmp	 DWORD PTR __imp_??1ioHashString@@QAE@XZ
__unwindfunclet$??0ioGrapplingSwing2Skill@@QAE@ABV0@@Z$4:
  00035	8b 4d f0	 mov	 ecx, DWORD PTR _this$[ebp]
  00038	81 c1 38 11 00
	00		 add	 ecx, 4408		; 00001138H
  0003e	e9 00 00 00 00	 jmp	 ??1?$CEncrypt@M@@UAE@XZ	; CEncrypt<float>::~CEncrypt<float>
__unwindfunclet$??0ioGrapplingSwing2Skill@@QAE@ABV0@@Z$5:
  00043	8b 4d f0	 mov	 ecx, DWORD PTR _this$[ebp]
  00046	81 c1 68 11 00
	00		 add	 ecx, 4456		; 00001168H
  0004c	ff 25 00 00 00
	00		 jmp	 DWORD PTR __imp_??1ioHashString@@QAE@XZ
__unwindfunclet$??0ioGrapplingSwing2Skill@@QAE@ABV0@@Z$6:
  00052	8b 4d f0	 mov	 ecx, DWORD PTR _this$[ebp]
  00055	81 c1 80 11 00
	00		 add	 ecx, 4480		; 00001180H
  0005b	e9 00 00 00 00	 jmp	 ??1?$CEncrypt@M@@UAE@XZ	; CEncrypt<float>::~CEncrypt<float>
__unwindfunclet$??0ioGrapplingSwing2Skill@@QAE@ABV0@@Z$7:
  00060	8b 4d f0	 mov	 ecx, DWORD PTR _this$[ebp]
  00063	81 c1 b0 11 00
	00		 add	 ecx, 4528		; 000011b0H
  00069	e9 00 00 00 00	 jmp	 ??1?$CEncrypt@K@@UAE@XZ	; CEncrypt<unsigned long>::~CEncrypt<unsigned long>
__unwindfunclet$??0ioGrapplingSwing2Skill@@QAE@ABV0@@Z$8:
  0006e	8b 4d f0	 mov	 ecx, DWORD PTR _this$[ebp]
  00071	81 c1 f4 11 00
	00		 add	 ecx, 4596		; 000011f4H
  00077	ff 25 00 00 00
	00		 jmp	 DWORD PTR __imp_??1ioHashString@@QAE@XZ
__unwindfunclet$??0ioGrapplingSwing2Skill@@QAE@ABV0@@Z$9:
  0007d	8b 4d f0	 mov	 ecx, DWORD PTR _this$[ebp]
  00080	81 c1 04 12 00
	00		 add	 ecx, 4612		; 00001204H
  00086	e9 00 00 00 00	 jmp	 ??1?$CEncrypt@M@@UAE@XZ	; CEncrypt<float>::~CEncrypt<float>
__unwindfunclet$??0ioGrapplingSwing2Skill@@QAE@ABV0@@Z$10:
  0008b	8b 4d f0	 mov	 ecx, DWORD PTR _this$[ebp]
  0008e	81 c1 34 12 00
	00		 add	 ecx, 4660		; 00001234H
  00094	ff 25 00 00 00
	00		 jmp	 DWORD PTR __imp_??1ioHashString@@QAE@XZ
__unwindfunclet$??0ioGrapplingSwing2Skill@@QAE@ABV0@@Z$11:
  0009a	8b 4d f0	 mov	 ecx, DWORD PTR _this$[ebp]
  0009d	81 c1 44 12 00
	00		 add	 ecx, 4676		; 00001244H
  000a3	e9 00 00 00 00	 jmp	 ??1?$CEncrypt@M@@UAE@XZ	; CEncrypt<float>::~CEncrypt<float>
__unwindfunclet$??0ioGrapplingSwing2Skill@@QAE@ABV0@@Z$12:
  000a8	8b 4d f0	 mov	 ecx, DWORD PTR _this$[ebp]
  000ab	81 c1 74 12 00
	00		 add	 ecx, 4724		; 00001274H
  000b1	e9 00 00 00 00	 jmp	 ??1?$CEncrypt@K@@UAE@XZ	; CEncrypt<unsigned long>::~CEncrypt<unsigned long>
__unwindfunclet$??0ioGrapplingSwing2Skill@@QAE@ABV0@@Z$13:
  000b6	8b 4d f0	 mov	 ecx, DWORD PTR _this$[ebp]
  000b9	81 c1 ac 12 00
	00		 add	 ecx, 4780		; 000012acH
  000bf	e9 00 00 00 00	 jmp	 ??1?$CEncrypt@_N@@UAE@XZ ; CEncrypt<bool>::~CEncrypt<bool>
__unwindfunclet$??0ioGrapplingSwing2Skill@@QAE@ABV0@@Z$14:
  000c4	8b 4d f0	 mov	 ecx, DWORD PTR _this$[ebp]
  000c7	81 c1 dc 12 00
	00		 add	 ecx, 4828		; 000012dcH
  000cd	e9 00 00 00 00	 jmp	 ??1?$CEncrypt@M@@UAE@XZ	; CEncrypt<float>::~CEncrypt<float>
__unwindfunclet$??0ioGrapplingSwing2Skill@@QAE@ABV0@@Z$15:
  000d2	8b 4d f0	 mov	 ecx, DWORD PTR _this$[ebp]
  000d5	81 c1 0c 13 00
	00		 add	 ecx, 4876		; 0000130cH
  000db	e9 00 00 00 00	 jmp	 ??1?$CEncrypt@K@@UAE@XZ	; CEncrypt<unsigned long>::~CEncrypt<unsigned long>
__unwindfunclet$??0ioGrapplingSwing2Skill@@QAE@ABV0@@Z$16:
  000e0	8b 4d f0	 mov	 ecx, DWORD PTR _this$[ebp]
  000e3	81 c1 40 13 00
	00		 add	 ecx, 4928		; 00001340H
  000e9	e9 00 00 00 00	 jmp	 ??1?$CEncrypt@M@@UAE@XZ	; CEncrypt<float>::~CEncrypt<float>
__unwindfunclet$??0ioGrapplingSwing2Skill@@QAE@ABV0@@Z$17:
  000ee	8b 4d f0	 mov	 ecx, DWORD PTR _this$[ebp]
  000f1	81 c1 70 13 00
	00		 add	 ecx, 4976		; 00001370H
  000f7	e9 00 00 00 00	 jmp	 ??1?$CEncrypt@K@@UAE@XZ	; CEncrypt<unsigned long>::~CEncrypt<unsigned long>
__unwindfunclet$??0ioGrapplingSwing2Skill@@QAE@ABV0@@Z$18:
  000fc	8b 4d f0	 mov	 ecx, DWORD PTR _this$[ebp]
  000ff	81 c1 a4 13 00
	00		 add	 ecx, 5028		; 000013a4H
  00105	e9 00 00 00 00	 jmp	 ??1GrapplingSkillWoundedInfo@@QAE@XZ
__unwindfunclet$??0ioGrapplingSwing2Skill@@QAE@ABV0@@Z$19:
  0010a	8b 4d f0	 mov	 ecx, DWORD PTR _this$[ebp]
  0010d	81 c1 00 14 00
	00		 add	 ecx, 5120		; 00001400H
  00113	e9 00 00 00 00	 jmp	 ??1GrapplingSkillWoundedInfo@@QAE@XZ
__ehhandler$??0ioGrapplingSwing2Skill@@QAE@ABV0@@Z:
  00118	8b 54 24 08	 mov	 edx, DWORD PTR [esp+8]
  0011c	8d 42 0c	 lea	 eax, DWORD PTR [edx+12]
  0011f	8b 4a ec	 mov	 ecx, DWORD PTR [edx-20]
  00122	33 c8		 xor	 ecx, eax
  00124	e8 00 00 00 00	 call	 @__security_check_cookie@4
  00129	b8 00 00 00 00	 mov	 eax, OFFSET __ehfuncinfo$??0ioGrapplingSwing2Skill@@QAE@ABV0@@Z
  0012e	e9 00 00 00 00	 jmp	 ___CxxFrameHandler3
text$x	ENDS
??0ioGrapplingSwing2Skill@@QAE@ABV0@@Z ENDP		; ioGrapplingSwing2Skill::ioGrapplingSwing2Skill
; Function compile flags: /Ogsp
; File d:\lost saga for developer\youtube\tutorial\source\src\lsclient\ioskill.h
;	COMDAT ?GetDefenseSkillBreakeType@ioSkill@@UBE?AW4DefenseBreakType@@XZ
_TEXT	SEGMENT
?GetDefenseSkillBreakeType@ioSkill@@UBE?AW4DefenseBreakType@@XZ PROC ; ioSkill::GetDefenseSkillBreakeType, COMDAT
; _this$ = ecx

; 327  : 	virtual DefenseBreakType GetDefenseSkillBreakeType() const { return m_eDefenseSkillBreakType; }

  00000	8b 81 30 0e 00
	00		 mov	 eax, DWORD PTR [ecx+3632]
  00006	c3		 ret	 0
?GetDefenseSkillBreakeType@ioSkill@@UBE?AW4DefenseBreakType@@XZ ENDP ; ioSkill::GetDefenseSkillBreakeType
; Function compile flags: /Ogsp
_TEXT	ENDS
;	COMDAT ?GetSkillEndNextJumpAmt@ioSkill@@UBEMXZ
_TEXT	SEGMENT
?GetSkillEndNextJumpAmt@ioSkill@@UBEMXZ PROC		; ioSkill::GetSkillEndNextJumpAmt, COMDAT
; _this$ = ecx

; 335  : 	virtual float GetSkillEndNextJumpAmt() const { return m_fSkillEndNextJumpAmt; }

  00000	d9 81 4c 05 00
	00		 fld	 DWORD PTR [ecx+1356]
  00006	c3		 ret	 0
?GetSkillEndNextJumpAmt@ioSkill@@UBEMXZ ENDP		; ioSkill::GetSkillEndNextJumpAmt
; Function compile flags: /Ogsp
_TEXT	ENDS
;	COMDAT ?GetSkillEndNextLandRate@ioSkill@@UBEMXZ
_TEXT	SEGMENT
?GetSkillEndNextLandRate@ioSkill@@UBEMXZ PROC		; ioSkill::GetSkillEndNextLandRate, COMDAT
; _this$ = ecx

; 336  : 	virtual float GetSkillEndNextLandRate() const { return m_fSkillEndNextLandRate; }

  00000	d9 81 50 05 00
	00		 fld	 DWORD PTR [ecx+1360]
  00006	c3		 ret	 0
?GetSkillEndNextLandRate@ioSkill@@UBEMXZ ENDP		; ioSkill::GetSkillEndNextLandRate
; Function compile flags: /Ogsp
_TEXT	ENDS
;	COMDAT ?GetSkillEndNextJumpMustEnable@ioSkill@@UAE?AW4SkillEndJumpType@@XZ
_TEXT	SEGMENT
?GetSkillEndNextJumpMustEnable@ioSkill@@UAE?AW4SkillEndJumpType@@XZ PROC ; ioSkill::GetSkillEndNextJumpMustEnable, COMDAT
; _this$ = ecx

; 337  : 	virtual SkillEndJumpType GetSkillEndNextJumpMustEnable(){ return SEJT_DEFAULT; }

  00000	33 c0		 xor	 eax, eax
  00002	c3		 ret	 0
?GetSkillEndNextJumpMustEnable@ioSkill@@UAE?AW4SkillEndJumpType@@XZ ENDP ; ioSkill::GetSkillEndNextJumpMustEnable
; Function compile flags: /Ogsp
_TEXT	ENDS
;	COMDAT ?EnableChangeGrapplingTargetPos@ioSkill@@UBE_NXZ
_TEXT	SEGMENT
?EnableChangeGrapplingTargetPos@ioSkill@@UBE_NXZ PROC	; ioSkill::EnableChangeGrapplingTargetPos, COMDAT
; _this$ = ecx

; 355  : 	virtual bool EnableChangeGrapplingTargetPos() const { return m_bChangeGrapplingTargetPos; }

  00000	8a 81 40 09 00
	00		 mov	 al, BYTE PTR [ecx+2368]
  00006	c3		 ret	 0
?EnableChangeGrapplingTargetPos@ioSkill@@UBE_NXZ ENDP	; ioSkill::EnableChangeGrapplingTargetPos
; Function compile flags: /Ogsp
_TEXT	ENDS
;	COMDAT ?IsInvisibleBottomCircle@ioSkill@@UAE_NPAVioBaseChar@@@Z
_TEXT	SEGMENT
_pChar$ = 8						; size = 4
?IsInvisibleBottomCircle@ioSkill@@UAE_NPAVioBaseChar@@@Z PROC ; ioSkill::IsInvisibleBottomCircle, COMDAT
; _this$ = ecx

; 393  : 	virtual bool IsInvisibleBottomCircle( ioBaseChar *pChar ) { return false; }

  00000	32 c0		 xor	 al, al
  00002	c2 04 00	 ret	 4
?IsInvisibleBottomCircle@ioSkill@@UAE_NPAVioBaseChar@@@Z ENDP ; ioSkill::IsInvisibleBottomCircle
; Function compile flags: /Ogsp
_TEXT	ENDS
;	COMDAT ?IsUseActiveCnt@ioSkill@@UBE_NXZ
_TEXT	SEGMENT
?IsUseActiveCnt@ioSkill@@UBE_NXZ PROC			; ioSkill::IsUseActiveCnt, COMDAT
; _this$ = ecx

; 544  : 	virtual bool IsUseActiveCnt() const { return false; }

  00000	32 c0		 xor	 al, al
  00002	c3		 ret	 0
?IsUseActiveCnt@ioSkill@@UBE_NXZ ENDP			; ioSkill::IsUseActiveCnt
; Function compile flags: /Ogsp
_TEXT	ENDS
;	COMDAT ?GetMaxActiveCnt@ioSkill@@UBEHPAVioBaseChar@@@Z
_TEXT	SEGMENT
_pChar$ = 8						; size = 4
?GetMaxActiveCnt@ioSkill@@UBEHPAVioBaseChar@@@Z PROC	; ioSkill::GetMaxActiveCnt, COMDAT
; _this$ = ecx

; 545  : 	virtual int GetMaxActiveCnt( ioBaseChar *pChar ) const { return 0; }

  00000	33 c0		 xor	 eax, eax
  00002	c2 04 00	 ret	 4
?GetMaxActiveCnt@ioSkill@@UBEHPAVioBaseChar@@@Z ENDP	; ioSkill::GetMaxActiveCnt
; Function compile flags: /Ogsp
_TEXT	ENDS
;	COMDAT ?GetCurActiveCnt@ioSkill@@UBEHPAVioBaseChar@@@Z
_TEXT	SEGMENT
_pChar$ = 8						; size = 4
?GetCurActiveCnt@ioSkill@@UBEHPAVioBaseChar@@@Z PROC	; ioSkill::GetCurActiveCnt, COMDAT
; _this$ = ecx

; 546  : 	virtual int GetCurActiveCnt( ioBaseChar *pChar ) const { return 0; }

  00000	33 c0		 xor	 eax, eax
  00002	c2 04 00	 ret	 4
?GetCurActiveCnt@ioSkill@@UBEHPAVioBaseChar@@@Z ENDP	; ioSkill::GetCurActiveCnt
; Function compile flags: /Ogsp
_TEXT	ENDS
;	COMDAT ?IsCanJumpingSkill@ioSkill@@UBE_NXZ
_TEXT	SEGMENT
_value$542259 = -1					; size = 1
?IsCanJumpingSkill@ioSkill@@UBE_NXZ PROC		; ioSkill::IsCanJumpingSkill, COMDAT
; _this$ = ecx

; 431  : 	virtual bool IsCanJumpingSkill() const { return m_bEnableJumpingSkill; }

  00000	55		 push	 ebp
  00001	8b ec		 mov	 ebp, esp
  00003	51		 push	 ecx
  00004	8d 45 ff	 lea	 eax, DWORD PTR _value$542259[ebp]
  00007	50		 push	 eax
  00008	81 c1 9c 03 00
	00		 add	 ecx, 924		; 0000039cH
  0000e	e8 00 00 00 00	 call	 ?DecryptValueToPool@?$CEncrypt@_N@@QAEXPA_N@Z ; CEncrypt<bool>::DecryptValueToPool
  00013	8a 45 ff	 mov	 al, BYTE PTR _value$542259[ebp]
  00016	c9		 leave
  00017	c3		 ret	 0
?IsCanJumpingSkill@ioSkill@@UBE_NXZ ENDP		; ioSkill::IsCanJumpingSkill
; Function compile flags: /Ogsp
_TEXT	ENDS
;	COMDAT ?IsCanJumpingSkillOnBlowWound@ioSkill@@UBE_NXZ
_TEXT	SEGMENT
_value$542266 = -1					; size = 1
?IsCanJumpingSkillOnBlowWound@ioSkill@@UBE_NXZ PROC	; ioSkill::IsCanJumpingSkillOnBlowWound, COMDAT
; _this$ = ecx

; 432  : 	virtual bool IsCanJumpingSkillOnBlowWound() const { return m_bEnableJumpingSkillOnBlowWound; }

  00000	55		 push	 ebp
  00001	8b ec		 mov	 ebp, esp
  00003	51		 push	 ecx
  00004	8d 45 ff	 lea	 eax, DWORD PTR _value$542266[ebp]
  00007	50		 push	 eax
  00008	81 c1 cc 03 00
	00		 add	 ecx, 972		; 000003ccH
  0000e	e8 00 00 00 00	 call	 ?DecryptValueToPool@?$CEncrypt@_N@@QAEXPA_N@Z ; CEncrypt<bool>::DecryptValueToPool
  00013	8a 45 ff	 mov	 al, BYTE PTR _value$542266[ebp]
  00016	c9		 leave
  00017	c3		 ret	 0
?IsCanJumpingSkillOnBlowWound@ioSkill@@UBE_NXZ ENDP	; ioSkill::IsCanJumpingSkillOnBlowWound
; Function compile flags: /Ogsp
_TEXT	ENDS
;	COMDAT ?IsCanDownSkill@ioSkill@@UBE_NXZ
_TEXT	SEGMENT
_value$542273 = -1					; size = 1
?IsCanDownSkill@ioSkill@@UBE_NXZ PROC			; ioSkill::IsCanDownSkill, COMDAT
; _this$ = ecx

; 437  : 	virtual bool IsCanDownSkill() const { return m_bEnableDownSkill; }

  00000	55		 push	 ebp
  00001	8b ec		 mov	 ebp, esp
  00003	51		 push	 ecx
  00004	8d 45 ff	 lea	 eax, DWORD PTR _value$542273[ebp]
  00007	50		 push	 eax
  00008	81 c1 5c 04 00
	00		 add	 ecx, 1116		; 0000045cH
  0000e	e8 00 00 00 00	 call	 ?DecryptValueToPool@?$CEncrypt@_N@@QAEXPA_N@Z ; CEncrypt<bool>::DecryptValueToPool
  00013	8a 45 ff	 mov	 al, BYTE PTR _value$542273[ebp]
  00016	c9		 leave
  00017	c3		 ret	 0
?IsCanDownSkill@ioSkill@@UBE_NXZ ENDP			; ioSkill::IsCanDownSkill
; Function compile flags: /Ogsp
_TEXT	ENDS
;	COMDAT ?IsCanBlowWoundSkill@ioSkill@@UBE_NXZ
_TEXT	SEGMENT
_value$542280 = -1					; size = 1
?IsCanBlowWoundSkill@ioSkill@@UBE_NXZ PROC		; ioSkill::IsCanBlowWoundSkill, COMDAT
; _this$ = ecx

; 440  : 	virtual bool IsCanBlowWoundSkill() const { return m_bEnableBlowWoundSkill; }

  00000	55		 push	 ebp
  00001	8b ec		 mov	 ebp, esp
  00003	51		 push	 ecx
  00004	8d 45 ff	 lea	 eax, DWORD PTR _value$542280[ebp]
  00007	50		 push	 eax
  00008	81 c1 8c 04 00
	00		 add	 ecx, 1164		; 0000048cH
  0000e	e8 00 00 00 00	 call	 ?DecryptValueToPool@?$CEncrypt@_N@@QAEXPA_N@Z ; CEncrypt<bool>::DecryptValueToPool
  00013	8a 45 ff	 mov	 al, BYTE PTR _value$542280[ebp]
  00016	c9		 leave
  00017	c3		 ret	 0
?IsCanBlowWoundSkill@ioSkill@@UBE_NXZ ENDP		; ioSkill::IsCanBlowWoundSkill
; Function compile flags: /Ogsp
_TEXT	ENDS
;	COMDAT ?IsCanWoundSkill@ioSkill@@UBE_NXZ
_TEXT	SEGMENT
_value$542287 = -1					; size = 1
?IsCanWoundSkill@ioSkill@@UBE_NXZ PROC			; ioSkill::IsCanWoundSkill, COMDAT
; _this$ = ecx

; 446  : 	virtual bool IsCanWoundSkill() const { return m_bEnableWoundSkill; }

  00000	55		 push	 ebp
  00001	8b ec		 mov	 ebp, esp
  00003	51		 push	 ecx
  00004	8d 45 ff	 lea	 eax, DWORD PTR _value$542287[ebp]
  00007	50		 push	 eax
  00008	81 c1 54 05 00
	00		 add	 ecx, 1364		; 00000554H
  0000e	e8 00 00 00 00	 call	 ?DecryptValueToPool@?$CEncrypt@_N@@QAEXPA_N@Z ; CEncrypt<bool>::DecryptValueToPool
  00013	8a 45 ff	 mov	 al, BYTE PTR _value$542287[ebp]
  00016	c9		 leave
  00017	c3		 ret	 0
?IsCanWoundSkill@ioSkill@@UBE_NXZ ENDP			; ioSkill::IsCanWoundSkill
_TEXT	ENDS
PUBLIC	??1ioGrapplingSwing2Skill@@UAE@XZ		; ioGrapplingSwing2Skill::~ioGrapplingSwing2Skill
;	COMDAT xdata$x
; File d:\lost saga for developer\youtube\tutorial\source\src\lsclient\encryptvalue.h
xdata$x	SEGMENT
__ehfuncinfo$??1ioGrapplingSwing2Skill@@UAE@XZ DD 019930522H
	DD	013H
	DD	FLAT:__unwindtable$??1ioGrapplingSwing2Skill@@UAE@XZ
	DD	2 DUP(00H)
	DD	2 DUP(00H)
	DD	00H
	DD	01H
__unwindtable$??1ioGrapplingSwing2Skill@@UAE@XZ DD 0ffffffffH
	DD	FLAT:__unwindfunclet$??1ioGrapplingSwing2Skill@@UAE@XZ$0
	DD	00H
	DD	FLAT:__unwindfunclet$??1ioGrapplingSwing2Skill@@UAE@XZ$1
	DD	01H
	DD	FLAT:__unwindfunclet$??1ioGrapplingSwing2Skill@@UAE@XZ$2
	DD	02H
	DD	FLAT:__unwindfunclet$??1ioGrapplingSwing2Skill@@UAE@XZ$3
	DD	03H
	DD	FLAT:__unwindfunclet$??1ioGrapplingSwing2Skill@@UAE@XZ$4
	DD	04H
	DD	FLAT:__unwindfunclet$??1ioGrapplingSwing2Skill@@UAE@XZ$5
	DD	05H
	DD	FLAT:__unwindfunclet$??1ioGrapplingSwing2Skill@@UAE@XZ$6
	DD	06H
	DD	FLAT:__unwindfunclet$??1ioGrapplingSwing2Skill@@UAE@XZ$7
	DD	07H
	DD	FLAT:__unwindfunclet$??1ioGrapplingSwing2Skill@@UAE@XZ$8
	DD	08H
	DD	FLAT:__unwindfunclet$??1ioGrapplingSwing2Skill@@UAE@XZ$9
	DD	09H
	DD	FLAT:__unwindfunclet$??1ioGrapplingSwing2Skill@@UAE@XZ$10
	DD	0aH
	DD	FLAT:__unwindfunclet$??1ioGrapplingSwing2Skill@@UAE@XZ$11
	DD	0bH
	DD	FLAT:__unwindfunclet$??1ioGrapplingSwing2Skill@@UAE@XZ$12
	DD	0cH
	DD	FLAT:__unwindfunclet$??1ioGrapplingSwing2Skill@@UAE@XZ$13
	DD	0dH
	DD	FLAT:__unwindfunclet$??1ioGrapplingSwing2Skill@@UAE@XZ$14
	DD	0eH
	DD	FLAT:__unwindfunclet$??1ioGrapplingSwing2Skill@@UAE@XZ$15
	DD	0fH
	DD	FLAT:__unwindfunclet$??1ioGrapplingSwing2Skill@@UAE@XZ$16
	DD	010H
	DD	FLAT:__unwindfunclet$??1ioGrapplingSwing2Skill@@UAE@XZ$17
	DD	011H
	DD	FLAT:__unwindfunclet$??1ioGrapplingSwing2Skill@@UAE@XZ$18
; Function compile flags: /Ogsp
; File d:\lost saga for developer\youtube\tutorial\source\src\lsclient\iograpplingswing2skill.cpp
xdata$x	ENDS
;	COMDAT ??1ioGrapplingSwing2Skill@@UAE@XZ
_TEXT	SEGMENT
_this$ = -16						; size = 4
__$EHRec$ = -12						; size = 12
??1ioGrapplingSwing2Skill@@UAE@XZ PROC			; ioGrapplingSwing2Skill::~ioGrapplingSwing2Skill, COMDAT
; _this$ = ecx

; 49   : {

  00000	6a 04		 push	 4
  00002	b8 00 00 00 00	 mov	 eax, __ehhandler$??1ioGrapplingSwing2Skill@@UAE@XZ
  00007	e8 00 00 00 00	 call	 __EH_prolog3
  0000c	8b f1		 mov	 esi, ecx
  0000e	89 75 f0	 mov	 DWORD PTR _this$[ebp], esi
  00011	c7 06 00 00 00
	00		 mov	 DWORD PTR [esi], OFFSET ??_7ioGrapplingSwing2Skill@@6B@

; 50   : }

  00017	8d 8e 00 14 00
	00		 lea	 ecx, DWORD PTR [esi+5120]
  0001d	c7 45 fc 12 00
	00 00		 mov	 DWORD PTR __$EHRec$[ebp+8], 18 ; 00000012H
  00024	e8 00 00 00 00	 call	 ??1GrapplingSkillWoundedInfo@@QAE@XZ
  00029	8d 8e a4 13 00
	00		 lea	 ecx, DWORD PTR [esi+5028]
  0002f	c6 45 fc 11	 mov	 BYTE PTR __$EHRec$[ebp+8], 17 ; 00000011H
  00033	e8 00 00 00 00	 call	 ??1GrapplingSkillWoundedInfo@@QAE@XZ
  00038	bf 00 00 00 00	 mov	 edi, OFFSET ??_7?$CEncrypt@K@@6B@
  0003d	8d 8e 7c 13 00
	00		 lea	 ecx, DWORD PTR [esi+4988]
  00043	c6 45 fc 10	 mov	 BYTE PTR __$EHRec$[ebp+8], 16 ; 00000010H
  00047	89 be 70 13 00
	00		 mov	 DWORD PTR [esi+4976], edi
  0004d	e8 00 00 00 00	 call	 ??1ccddaabb@@UAE@XZ	; ccddaabb::~ccddaabb
  00052	bb 00 00 00 00	 mov	 ebx, OFFSET ??_7?$CEncrypt@M@@6B@
  00057	8d 8e 4c 13 00
	00		 lea	 ecx, DWORD PTR [esi+4940]
  0005d	c6 45 fc 0f	 mov	 BYTE PTR __$EHRec$[ebp+8], 15 ; 0000000fH
  00061	89 9e 40 13 00
	00		 mov	 DWORD PTR [esi+4928], ebx
  00067	e8 00 00 00 00	 call	 ??1ccddaabb@@UAE@XZ	; ccddaabb::~ccddaabb
  0006c	8d 8e 18 13 00
	00		 lea	 ecx, DWORD PTR [esi+4888]
  00072	c6 45 fc 0e	 mov	 BYTE PTR __$EHRec$[ebp+8], 14 ; 0000000eH
  00076	89 be 0c 13 00
	00		 mov	 DWORD PTR [esi+4876], edi
  0007c	e8 00 00 00 00	 call	 ??1ccddaabb@@UAE@XZ	; ccddaabb::~ccddaabb
  00081	8d 8e e8 12 00
	00		 lea	 ecx, DWORD PTR [esi+4840]
  00087	c6 45 fc 0d	 mov	 BYTE PTR __$EHRec$[ebp+8], 13 ; 0000000dH
  0008b	89 9e dc 12 00
	00		 mov	 DWORD PTR [esi+4828], ebx
  00091	e8 00 00 00 00	 call	 ??1ccddaabb@@UAE@XZ	; ccddaabb::~ccddaabb
  00096	8d 8e b8 12 00
	00		 lea	 ecx, DWORD PTR [esi+4792]
  0009c	c6 45 fc 0c	 mov	 BYTE PTR __$EHRec$[ebp+8], 12 ; 0000000cH
  000a0	c7 86 ac 12 00
	00 00 00 00 00	 mov	 DWORD PTR [esi+4780], OFFSET ??_7?$CEncrypt@_N@@6B@
  000aa	e8 00 00 00 00	 call	 ??1ccddaabb@@UAE@XZ	; ccddaabb::~ccddaabb
  000af	8d 8e 80 12 00
	00		 lea	 ecx, DWORD PTR [esi+4736]
  000b5	c6 45 fc 0b	 mov	 BYTE PTR __$EHRec$[ebp+8], 11 ; 0000000bH
  000b9	89 be 74 12 00
	00		 mov	 DWORD PTR [esi+4724], edi
  000bf	e8 00 00 00 00	 call	 ??1ccddaabb@@UAE@XZ	; ccddaabb::~ccddaabb
  000c4	8d 8e 50 12 00
	00		 lea	 ecx, DWORD PTR [esi+4688]
  000ca	c6 45 fc 0a	 mov	 BYTE PTR __$EHRec$[ebp+8], 10 ; 0000000aH
  000ce	89 9e 44 12 00
	00		 mov	 DWORD PTR [esi+4676], ebx
  000d4	e8 00 00 00 00	 call	 ??1ccddaabb@@UAE@XZ	; ccddaabb::~ccddaabb
  000d9	8b 3d 00 00 00
	00		 mov	 edi, DWORD PTR __imp_??1ioHashString@@QAE@XZ
  000df	8d 8e 34 12 00
	00		 lea	 ecx, DWORD PTR [esi+4660]
  000e5	c6 45 fc 09	 mov	 BYTE PTR __$EHRec$[ebp+8], 9
  000e9	ff d7		 call	 edi
  000eb	8d 8e 10 12 00
	00		 lea	 ecx, DWORD PTR [esi+4624]
  000f1	c6 45 fc 08	 mov	 BYTE PTR __$EHRec$[ebp+8], 8
  000f5	89 9e 04 12 00
	00		 mov	 DWORD PTR [esi+4612], ebx
  000fb	e8 00 00 00 00	 call	 ??1ccddaabb@@UAE@XZ	; ccddaabb::~ccddaabb
  00100	8d 8e f4 11 00
	00		 lea	 ecx, DWORD PTR [esi+4596]
  00106	c6 45 fc 07	 mov	 BYTE PTR __$EHRec$[ebp+8], 7
  0010a	ff d7		 call	 edi
  0010c	8d 8e bc 11 00
	00		 lea	 ecx, DWORD PTR [esi+4540]
  00112	c6 45 fc 06	 mov	 BYTE PTR __$EHRec$[ebp+8], 6
  00116	c7 86 b0 11 00
	00 00 00 00 00	 mov	 DWORD PTR [esi+4528], OFFSET ??_7?$CEncrypt@K@@6B@
  00120	e8 00 00 00 00	 call	 ??1ccddaabb@@UAE@XZ	; ccddaabb::~ccddaabb
  00125	8d 8e 8c 11 00
	00		 lea	 ecx, DWORD PTR [esi+4492]
  0012b	c6 45 fc 05	 mov	 BYTE PTR __$EHRec$[ebp+8], 5
  0012f	89 9e 80 11 00
	00		 mov	 DWORD PTR [esi+4480], ebx
  00135	e8 00 00 00 00	 call	 ??1ccddaabb@@UAE@XZ	; ccddaabb::~ccddaabb
  0013a	8d 8e 68 11 00
	00		 lea	 ecx, DWORD PTR [esi+4456]
  00140	c6 45 fc 04	 mov	 BYTE PTR __$EHRec$[ebp+8], 4
  00144	ff d7		 call	 edi
  00146	c6 45 fc 03	 mov	 BYTE PTR __$EHRec$[ebp+8], 3
  0014a	89 9e 38 11 00
	00		 mov	 DWORD PTR [esi+4408], ebx
  00150	8d 8e 44 11 00
	00		 lea	 ecx, DWORD PTR [esi+4420]
  00156	e8 00 00 00 00	 call	 ??1ccddaabb@@UAE@XZ	; ccddaabb::~ccddaabb
  0015b	8d 8e 14 11 00
	00		 lea	 ecx, DWORD PTR [esi+4372]
  00161	c6 45 fc 02	 mov	 BYTE PTR __$EHRec$[ebp+8], 2
  00165	ff d7		 call	 edi
  00167	8d 8e 00 11 00
	00		 lea	 ecx, DWORD PTR [esi+4352]
  0016d	c6 45 fc 01	 mov	 BYTE PTR __$EHRec$[ebp+8], 1
  00171	ff d7		 call	 edi
  00173	8d 8e ec 10 00
	00		 lea	 ecx, DWORD PTR [esi+4332]
  00179	c6 45 fc 00	 mov	 BYTE PTR __$EHRec$[ebp+8], 0
  0017d	ff d7		 call	 edi
  0017f	83 4d fc ff	 or	 DWORD PTR __$EHRec$[ebp+8], -1
  00183	8b ce		 mov	 ecx, esi
  00185	e8 00 00 00 00	 call	 ??1ioAttackSkill@@UAE@XZ ; ioAttackSkill::~ioAttackSkill
  0018a	e8 00 00 00 00	 call	 __EH_epilog3
  0018f	c3		 ret	 0
_TEXT	ENDS
;	COMDAT text$x
text$x	SEGMENT
__unwindfunclet$??1ioGrapplingSwing2Skill@@UAE@XZ$0:
  00000	8b 4d f0	 mov	 ecx, DWORD PTR _this$[ebp]
  00003	e9 00 00 00 00	 jmp	 ??1ioAttackSkill@@UAE@XZ ; ioAttackSkill::~ioAttackSkill
__unwindfunclet$??1ioGrapplingSwing2Skill@@UAE@XZ$1:
  00008	8b 4d f0	 mov	 ecx, DWORD PTR _this$[ebp]
  0000b	81 c1 ec 10 00
	00		 add	 ecx, 4332		; 000010ecH
  00011	ff 25 00 00 00
	00		 jmp	 DWORD PTR __imp_??1ioHashString@@QAE@XZ
__unwindfunclet$??1ioGrapplingSwing2Skill@@UAE@XZ$2:
  00017	8b 4d f0	 mov	 ecx, DWORD PTR _this$[ebp]
  0001a	81 c1 00 11 00
	00		 add	 ecx, 4352		; 00001100H
  00020	ff 25 00 00 00
	00		 jmp	 DWORD PTR __imp_??1ioHashString@@QAE@XZ
__unwindfunclet$??1ioGrapplingSwing2Skill@@UAE@XZ$3:
  00026	8b 4d f0	 mov	 ecx, DWORD PTR _this$[ebp]
  00029	81 c1 14 11 00
	00		 add	 ecx, 4372		; 00001114H
  0002f	ff 25 00 00 00
	00		 jmp	 DWORD PTR __imp_??1ioHashString@@QAE@XZ
__unwindfunclet$??1ioGrapplingSwing2Skill@@UAE@XZ$4:
  00035	8b 4d f0	 mov	 ecx, DWORD PTR _this$[ebp]
  00038	81 c1 38 11 00
	00		 add	 ecx, 4408		; 00001138H
  0003e	e9 00 00 00 00	 jmp	 ??1?$CEncrypt@M@@UAE@XZ	; CEncrypt<float>::~CEncrypt<float>
__unwindfunclet$??1ioGrapplingSwing2Skill@@UAE@XZ$5:
  00043	8b 4d f0	 mov	 ecx, DWORD PTR _this$[ebp]
  00046	81 c1 68 11 00
	00		 add	 ecx, 4456		; 00001168H
  0004c	ff 25 00 00 00
	00		 jmp	 DWORD PTR __imp_??1ioHashString@@QAE@XZ
__unwindfunclet$??1ioGrapplingSwing2Skill@@UAE@XZ$6:
  00052	8b 4d f0	 mov	 ecx, DWORD PTR _this$[ebp]
  00055	81 c1 80 11 00
	00		 add	 ecx, 4480		; 00001180H
  0005b	e9 00 00 00 00	 jmp	 ??1?$CEncrypt@M@@UAE@XZ	; CEncrypt<float>::~CEncrypt<float>
__unwindfunclet$??1ioGrapplingSwing2Skill@@UAE@XZ$7:
  00060	8b 4d f0	 mov	 ecx, DWORD PTR _this$[ebp]
  00063	81 c1 b0 11 00
	00		 add	 ecx, 4528		; 000011b0H
  00069	e9 00 00 00 00	 jmp	 ??1?$CEncrypt@K@@UAE@XZ	; CEncrypt<unsigned long>::~CEncrypt<unsigned long>
__unwindfunclet$??1ioGrapplingSwing2Skill@@UAE@XZ$8:
  0006e	8b 4d f0	 mov	 ecx, DWORD PTR _this$[ebp]
  00071	81 c1 f4 11 00
	00		 add	 ecx, 4596		; 000011f4H
  00077	ff 25 00 00 00
	00		 jmp	 DWORD PTR __imp_??1ioHashString@@QAE@XZ
__unwindfunclet$??1ioGrapplingSwing2Skill@@UAE@XZ$9:
  0007d	8b 4d f0	 mov	 ecx, DWORD PTR _this$[ebp]
  00080	81 c1 04 12 00
	00		 add	 ecx, 4612		; 00001204H
  00086	e9 00 00 00 00	 jmp	 ??1?$CEncrypt@M@@UAE@XZ	; CEncrypt<float>::~CEncrypt<float>
__unwindfunclet$??1ioGrapplingSwing2Skill@@UAE@XZ$10:
  0008b	8b 4d f0	 mov	 ecx, DWORD PTR _this$[ebp]
  0008e	81 c1 34 12 00
	00		 add	 ecx, 4660		; 00001234H
  00094	ff 25 00 00 00
	00		 jmp	 DWORD PTR __imp_??1ioHashString@@QAE@XZ
__unwindfunclet$??1ioGrapplingSwing2Skill@@UAE@XZ$11:
  0009a	8b 4d f0	 mov	 ecx, DWORD PTR _this$[ebp]
  0009d	81 c1 44 12 00
	00		 add	 ecx, 4676		; 00001244H
  000a3	e9 00 00 00 00	 jmp	 ??1?$CEncrypt@M@@UAE@XZ	; CEncrypt<float>::~CEncrypt<float>
__unwindfunclet$??1ioGrapplingSwing2Skill@@UAE@XZ$12:
  000a8	8b 4d f0	 mov	 ecx, DWORD PTR _this$[ebp]
  000ab	81 c1 74 12 00
	00		 add	 ecx, 4724		; 00001274H
  000b1	e9 00 00 00 00	 jmp	 ??1?$CEncrypt@K@@UAE@XZ	; CEncrypt<unsigned long>::~CEncrypt<unsigned long>
__unwindfunclet$??1ioGrapplingSwing2Skill@@UAE@XZ$13:
  000b6	8b 4d f0	 mov	 ecx, DWORD PTR _this$[ebp]
  000b9	81 c1 ac 12 00
	00		 add	 ecx, 4780		; 000012acH
  000bf	e9 00 00 00 00	 jmp	 ??1?$CEncrypt@_N@@UAE@XZ ; CEncrypt<bool>::~CEncrypt<bool>
__unwindfunclet$??1ioGrapplingSwing2Skill@@UAE@XZ$14:
  000c4	8b 4d f0	 mov	 ecx, DWORD PTR _this$[ebp]
  000c7	81 c1 dc 12 00
	00		 add	 ecx, 4828		; 000012dcH
  000cd	e9 00 00 00 00	 jmp	 ??1?$CEncrypt@M@@UAE@XZ	; CEncrypt<float>::~CEncrypt<float>
__unwindfunclet$??1ioGrapplingSwing2Skill@@UAE@XZ$15:
  000d2	8b 4d f0	 mov	 ecx, DWORD PTR _this$[ebp]
  000d5	81 c1 0c 13 00
	00		 add	 ecx, 4876		; 0000130cH
  000db	e9 00 00 00 00	 jmp	 ??1?$CEncrypt@K@@UAE@XZ	; CEncrypt<unsigned long>::~CEncrypt<unsigned long>
__unwindfunclet$??1ioGrapplingSwing2Skill@@UAE@XZ$16:
  000e0	8b 4d f0	 mov	 ecx, DWORD PTR _this$[ebp]
  000e3	81 c1 40 13 00
	00		 add	 ecx, 4928		; 00001340H
  000e9	e9 00 00 00 00	 jmp	 ??1?$CEncrypt@M@@UAE@XZ	; CEncrypt<float>::~CEncrypt<float>
__unwindfunclet$??1ioGrapplingSwing2Skill@@UAE@XZ$17:
  000ee	8b 4d f0	 mov	 ecx, DWORD PTR _this$[ebp]
  000f1	81 c1 70 13 00
	00		 add	 ecx, 4976		; 00001370H
  000f7	e9 00 00 00 00	 jmp	 ??1?$CEncrypt@K@@UAE@XZ	; CEncrypt<unsigned long>::~CEncrypt<unsigned long>
__unwindfunclet$??1ioGrapplingSwing2Skill@@UAE@XZ$18:
  000fc	8b 4d f0	 mov	 ecx, DWORD PTR _this$[ebp]
  000ff	81 c1 a4 13 00
	00		 add	 ecx, 5028		; 000013a4H
  00105	e9 00 00 00 00	 jmp	 ??1GrapplingSkillWoundedInfo@@QAE@XZ
__ehhandler$??1ioGrapplingSwing2Skill@@UAE@XZ:
  0010a	8b 54 24 08	 mov	 edx, DWORD PTR [esp+8]
  0010e	8d 42 0c	 lea	 eax, DWORD PTR [edx+12]
  00111	8b 4a ec	 mov	 ecx, DWORD PTR [edx-20]
  00114	33 c8		 xor	 ecx, eax
  00116	e8 00 00 00 00	 call	 @__security_check_cookie@4
  0011b	b8 00 00 00 00	 mov	 eax, OFFSET __ehfuncinfo$??1ioGrapplingSwing2Skill@@UAE@XZ
  00120	e9 00 00 00 00	 jmp	 ___CxxFrameHandler3
text$x	ENDS
??1ioGrapplingSwing2Skill@@UAE@XZ ENDP			; ioGrapplingSwing2Skill::~ioGrapplingSwing2Skill
PUBLIC	??_C@_00CNPNBAHC@?$AA@				; `string'
EXTRN	__imp__wsprintfA:PROC
EXTRN	__imp_??4ioHashString@@QAEAAV0@PBD@Z:PROC
EXTRN	?LoadProperty@ioAttackSkill@@UAEXAAVioINILoader@@@Z:PROC ; ioAttackSkill::LoadProperty
EXTRN	_memset:PROC
;	COMDAT ??_C@_00CNPNBAHC@?$AA@
; File d:\lost saga for developer\youtube\tutorial\source\src\lsclient\stringprotect.h
CONST	SEGMENT
??_C@_00CNPNBAHC@?$AA@ DB 00H				; `string'
CONST	ENDS
;	COMDAT xdata$x
xdata$x	SEGMENT
__ehfuncinfo$?LoadProperty@ioGrapplingSwing2Skill@@UAEXAAVioINILoader@@@Z DD 019930522H
	DD	05H
	DD	FLAT:__unwindtable$?LoadProperty@ioGrapplingSwing2Skill@@UAEXAAVioINILoader@@@Z
	DD	2 DUP(00H)
	DD	2 DUP(00H)
	DD	00H
	DD	01H
__unwindtable$?LoadProperty@ioGrapplingSwing2Skill@@UAEXAAVioINILoader@@@Z DD 0ffffffffH
	DD	FLAT:__unwindfunclet$?LoadProperty@ioGrapplingSwing2Skill@@UAEXAAVioINILoader@@@Z$0
	DD	0ffffffffH
	DD	FLAT:__unwindfunclet$?LoadProperty@ioGrapplingSwing2Skill@@UAEXAAVioINILoader@@@Z$1
	DD	0ffffffffH
	DD	FLAT:__unwindfunclet$?LoadProperty@ioGrapplingSwing2Skill@@UAEXAAVioINILoader@@@Z$2
	DD	0ffffffffH
	DD	FLAT:__unwindfunclet$?LoadProperty@ioGrapplingSwing2Skill@@UAEXAAVioINILoader@@@Z$3
	DD	0ffffffffH
	DD	FLAT:__unwindfunclet$?LoadProperty@ioGrapplingSwing2Skill@@UAEXAAVioINILoader@@@Z$4
; Function compile flags: /Ogsp
; File d:\lost saga for developer\youtube\tutorial\source\src\lsclient\iograpplingswing2skill.cpp
xdata$x	ENDS
;	COMDAT ?LoadProperty@ioGrapplingSwing2Skill@@UAEXAAVioINILoader@@@Z
_TEXT	SEGMENT
$T542376 = -1488					; size = 16
$T542375 = -1472					; size = 16
$T542379 = -1456					; size = 16
$T542377 = -1440					; size = 16
$T542378 = -1424					; size = 16
tv31008 = -1408						; size = 4
_iBuffCnt$ = -1408					; size = 4
_value$542773 = -1404					; size = 4
_value$542642 = -1400					; size = 4
_value$543157 = -1396					; size = 4
tv31069 = -1392						; size = 4
tv31046 = -1392						; size = 4
tv31035 = -1392						; size = 4
tv31004 = -1392						; size = 4
tv31000 = -1392						; size = 4
tv30944 = -1392						; size = 4
tv30927 = -1392						; size = 4
tv25954 = -1392						; size = 4
tv25290 = -1392						; size = 4
_i$545709 = -1392					; size = 4
_i$545202 = -1392					; size = 4
_i$545065 = -1392					; size = 4
$T544299 = -1392					; size = 4
_i$543363 = -1392					; size = 4
_i$542922 = -1392					; size = 4
_value$542512 = -1385					; size = 1
_szKey$ = -1384						; size = 260
_szBuf$ = -1124						; size = 260
__k$543945 = -864					; size = 29
__k$542932 = -828					; size = 28
__k$543057 = -796					; size = 28
__k$543557 = -764					; size = 26
__k$545355 = -732					; size = 21
__k$544965 = -704					; size = 21
__k$543428 = -676					; size = 21
__k$546009 = -648					; size = 21
__k$543820 = -620					; size = 24
__k$544690 = -592					; size = 24
__k$543374 = -564					; size = 24
__k$542803 = -536					; size = 23
__k$545102 = -508					; size = 22
__k$544565 = -480					; size = 17
__k$544315 = -456					; size = 17
__k$544279 = -432					; size = 20
__k$545609 = -408					; size = 20
__k$545872 = -384					; size = 20
___encStr$532390 = -360					; size = 20
__k$543187 = -336					; size = 19
___encStr$532753 = -312					; size = 19
__k$544070 = -288					; size = 19
___encStr$532229 = -264					; size = 19
__k$544440 = -240					; size = 18
___encStr$532596 = -216					; size = 18
__k$545243 = -192					; size = 16
__k$543682 = -172					; size = 16
___encStr$532067 = -152					; size = 13
__k$542400 = -132					; size = 15
__k$542530 = -112					; size = 15
__k$544828 = -92					; size = 15
__k$545480 = -72					; size = 15
__k$545734 = -52					; size = 14
__k$542660 = -32					; size = 10
__$EHRec$ = -12						; size = 12
_rkLoader$ = 8						; size = 4
?LoadProperty@ioGrapplingSwing2Skill@@UAEXAAVioINILoader@@@Z PROC ; ioGrapplingSwing2Skill::LoadProperty, COMDAT
; _this$ = ecx

; 74   : {

  00000	68 c4 05 00 00	 push	 1476			; 000005c4H
  00005	b8 00 00 00 00	 mov	 eax, __ehhandler$?LoadProperty@ioGrapplingSwing2Skill@@UAEXAAVioINILoader@@@Z
  0000a	e8 00 00 00 00	 call	 __EH_prolog3_GS
  0000f	8b 7d 08	 mov	 edi, DWORD PTR _rkLoader$[ebp]

; 75   : 	ioAttackSkill::LoadProperty( rkLoader );

  00012	57		 push	 edi
  00013	8b f1		 mov	 esi, ecx
  00015	e8 00 00 00 00	 call	 ?LoadProperty@ioAttackSkill@@UAEXAAVioINILoader@@@Z ; ioAttackSkill::LoadProperty

; 76   : 
; 77   : 	char szBuf[MAX_PATH] = "";

  0001a	33 db		 xor	 ebx, ebx
  0001c	68 03 01 00 00	 push	 259			; 00000103H
  00021	8d 85 9d fb ff
	ff		 lea	 eax, DWORD PTR _szBuf$[ebp+1]
  00027	53		 push	 ebx
  00028	50		 push	 eax
  00029	88 9d 9c fb ff
	ff		 mov	 BYTE PTR _szBuf$[ebp], bl
  0002f	e8 00 00 00 00	 call	 _memset

; 78   : 	char szKey[MAX_PATH] = "";

  00034	68 03 01 00 00	 push	 259			; 00000103H
  00039	8d 85 99 fa ff
	ff		 lea	 eax, DWORD PTR _szKey$[ebp+1]
  0003f	53		 push	 ebx
  00040	50		 push	 eax
  00041	88 9d 98 fa ff
	ff		 mov	 BYTE PTR _szKey$[ebp], bl
  00047	e8 00 00 00 00	 call	 _memset
  0004c	83 c4 18	 add	 esp, 24			; 00000018H

; 79   : 
; 80   : 	m_bDisableGrowth= rkLoader.LoadBool_e( "disable_growth", false );

  0004f	6a 03		 push	 3
  00051	c7 85 7c ff ff
	ff 89 85 98 8b	 mov	 DWORD PTR __k$542400[ebp], -1952938615 ; 8b988589H
  0005b	c7 45 80 8f 80
	8e b5		 mov	 DWORD PTR __k$542400[ebp+4], -1248952177 ; b58e808fH
  00062	c7 45 84 8a 9e
	84 9d		 mov	 DWORD PTR __k$542400[ebp+8], -1652253046 ; 9d849e8aH
  00069	66 c7 45 88 99
	84		 mov	 WORD PTR __k$542400[ebp+12], 33945 ; 00008499H
  0006f	8d 85 7c ff ff
	ff		 lea	 eax, DWORD PTR __k$542400[ebp]
  00075	88 5d 8a	 mov	 BYTE PTR __k$542400[ebp+14], bl
  00078	59		 pop	 ecx
$LL621@LoadProper:
  00079	81 30 ed ec eb
	ea		 xor	 DWORD PTR [eax], -353637139 ; eaebecedH
  0007f	83 c0 04	 add	 eax, 4
  00082	49		 dec	 ecx
  00083	75 f4		 jne	 SHORT $LL621@LoadProper
  00085	6a 0c		 push	 12			; 0000000cH
  00087	58		 pop	 eax
$LL618@LoadProper:
  00088	8b c8		 mov	 ecx, eax
  0008a	81 e1 03 00 00
	80		 and	 ecx, -2147483645	; 80000003H
  00090	79 05		 jns	 SHORT $LN3805@LoadProper
  00092	49		 dec	 ecx
  00093	83 c9 fc	 or	 ecx, -4			; fffffffcH
  00096	41		 inc	 ecx
$LN3805@LoadProper:
  00097	b2 ed		 mov	 dl, -19			; ffffffedH
  00099	2a d1		 sub	 dl, cl
  0009b	30 94 05 7c ff
	ff ff		 xor	 BYTE PTR __k$542400[ebp+eax], dl
  000a2	40		 inc	 eax
  000a3	83 f8 0e	 cmp	 eax, 14			; 0000000eH
  000a6	7c e0		 jl	 SHORT $LL618@LoadProper
  000a8	53		 push	 ebx
  000a9	8d 85 7c ff ff
	ff		 lea	 eax, DWORD PTR __k$542400[ebp]
  000af	50		 push	 eax
  000b0	8b cf		 mov	 ecx, edi
  000b2	ff 15 00 00 00
	00		 call	 DWORD PTR __imp_?LoadBool@ioINILoader@@QAE_NPBD_N@Z
  000b8	88 85 97 fa ff
	ff		 mov	 BYTE PTR _value$542512[ebp], al
  000be	8d 85 97 fa ff
	ff		 lea	 eax, DWORD PTR _value$542512[ebp]
  000c4	50		 push	 eax
  000c5	8d 8e ac 12 00
	00		 lea	 ecx, DWORD PTR [esi+4780]
  000cb	e8 00 00 00 00	 call	 ?EncryptValueToPool@?$CEncrypt@_N@@AAEXPBD@Z ; CEncrypt<bool>::EncryptValueToPool
  000d0	6a 03		 push	 3

; 81   : 	m_fGuagePerTic	= rkLoader.LoadFloat_e( "gauge_per_tick", 0.0f );

  000d2	c7 45 90 8a 8d
	9e 8d		 mov	 DWORD PTR __k$542530[ebp], -1918988918 ; 8d9e8d8aH
  000d9	c7 45 94 88 b3
	9b 8f		 mov	 DWORD PTR __k$542530[ebp+4], -1885621368 ; 8f9bb388H
  000e0	c7 45 98 9f b3
	9f 83		 mov	 DWORD PTR __k$542530[ebp+8], -2086685793 ; 839fb39fH
  000e7	66 c7 45 9c 8e
	87		 mov	 WORD PTR __k$542530[ebp+12], 34702 ; 0000878eH
  000ed	8d 45 90	 lea	 eax, DWORD PTR __k$542530[ebp]
  000f0	88 5d 9e	 mov	 BYTE PTR __k$542530[ebp+14], bl
  000f3	59		 pop	 ecx
$LL729@LoadProper:
  000f4	81 30 ed ec eb
	ea		 xor	 DWORD PTR [eax], -353637139 ; eaebecedH
  000fa	83 c0 04	 add	 eax, 4
  000fd	49		 dec	 ecx
  000fe	75 f4		 jne	 SHORT $LL729@LoadProper
  00100	6a 0c		 push	 12			; 0000000cH
  00102	58		 pop	 eax
$LL726@LoadProper:
  00103	8b c8		 mov	 ecx, eax
  00105	81 e1 03 00 00
	80		 and	 ecx, -2147483645	; 80000003H
  0010b	79 05		 jns	 SHORT $LN3806@LoadProper
  0010d	49		 dec	 ecx
  0010e	83 c9 fc	 or	 ecx, -4			; fffffffcH
  00111	41		 inc	 ecx
$LN3806@LoadProper:
  00112	b2 ed		 mov	 dl, -19			; ffffffedH
  00114	2a d1		 sub	 dl, cl
  00116	30 54 05 90	 xor	 BYTE PTR __k$542530[ebp+eax], dl
  0011a	40		 inc	 eax
  0011b	83 f8 0e	 cmp	 eax, 14			; 0000000eH
  0011e	7c e3		 jl	 SHORT $LL726@LoadProper
  00120	0f 57 c0	 xorps	 xmm0, xmm0
  00123	51		 push	 ecx
  00124	8d 45 90	 lea	 eax, DWORD PTR __k$542530[ebp]
  00127	f3 0f 11 04 24	 movss	 DWORD PTR [esp], xmm0
  0012c	50		 push	 eax
  0012d	8b cf		 mov	 ecx, edi
  0012f	ff 15 00 00 00
	00		 call	 DWORD PTR __imp_?LoadFloat@ioINILoader@@QAEMPBDM@Z
  00135	d9 9d 88 fa ff
	ff		 fstp	 DWORD PTR _value$542642[ebp]
  0013b	8d 85 88 fa ff
	ff		 lea	 eax, DWORD PTR _value$542642[ebp]
  00141	50		 push	 eax
  00142	8d 8e dc 12 00
	00		 lea	 ecx, DWORD PTR [esi+4828]
  00148	e8 00 00 00 00	 call	 ?EncryptValueToPool@?$CEncrypt@M@@AAEXPBD@Z ; CEncrypt<float>::EncryptValueToPool
  0014d	6a 02		 push	 2

; 82   : 	m_dwTicTime		= (DWORD)rkLoader.LoadInt_e( "tick_time", 0 );

  0014f	c7 45 e0 99 85
	88 81		 mov	 DWORD PTR __k$542660[ebp], -2121759335 ; 81888599H
  00156	c7 45 e4 b2 98
	82 87		 mov	 DWORD PTR __k$542660[ebp+4], -2021484366 ; 878298b2H
  0015d	8d 45 e0	 lea	 eax, DWORD PTR __k$542660[ebp]
  00160	66 c7 45 e8 88
	00		 mov	 WORD PTR __k$542660[ebp+8], 136 ; 00000088H
  00166	59		 pop	 ecx
$LL837@LoadProper:
  00167	81 30 ed ec eb
	ea		 xor	 DWORD PTR [eax], -353637139 ; eaebecedH
  0016d	83 c0 04	 add	 eax, 4
  00170	49		 dec	 ecx
  00171	75 f4		 jne	 SHORT $LL837@LoadProper
  00173	80 75 e8 ed	 xor	 BYTE PTR __k$542660[ebp+8], -19 ; ffffffedH
  00177	53		 push	 ebx
  00178	8d 45 e0	 lea	 eax, DWORD PTR __k$542660[ebp]
  0017b	50		 push	 eax
  0017c	8b cf		 mov	 ecx, edi
  0017e	ff 15 00 00 00
	00		 call	 DWORD PTR __imp_?LoadInt@ioINILoader@@QAEHPBDH@Z
  00184	89 85 84 fa ff
	ff		 mov	 DWORD PTR _value$542773[ebp], eax
  0018a	8d 85 84 fa ff
	ff		 lea	 eax, DWORD PTR _value$542773[ebp]
  00190	50		 push	 eax
  00191	8d 8e 0c 13 00
	00		 lea	 ecx, DWORD PTR [esi+4876]
  00197	e8 00 00 00 00	 call	 ?EncryptValueToPool@?$CEncrypt@K@@AAEXPBD@Z ; CEncrypt<unsigned long>::EncryptValueToPool
  0019c	6a 05		 push	 5

; 83   : 
; 84   : 	rkLoader.LoadString_e( "skill_grap_loop_motion", "", szBuf, MAX_PATH );

  0019e	c7 85 e8 fd ff
	ff 9e 87 82 86	 mov	 DWORD PTR __k$542803[ebp], -2038265954 ; 8682879eH
  001a8	c7 85 ec fd ff
	ff 81 b3 8c 98	 mov	 DWORD PTR __k$542803[ebp+4], -1735609471 ; 988cb381H
  001b2	c7 85 f0 fd ff
	ff 8c 9c b4 86	 mov	 DWORD PTR __k$542803[ebp+8], -2034983796 ; 86b49c8cH
  001bc	c7 85 f4 fd ff
	ff 82 83 9b b5	 mov	 DWORD PTR __k$542803[ebp+12], -1248099454 ; b59b8382H
  001c6	c7 85 f8 fd ff
	ff 80 83 9f 83	 mov	 DWORD PTR __k$542803[ebp+16], -2086698112 ; 839f8380H
  001d0	66 c7 85 fc fd
	ff ff 82 82	 mov	 WORD PTR __k$542803[ebp+20], 33410 ; 00008282H
  001d9	8d 85 e8 fd ff
	ff		 lea	 eax, DWORD PTR __k$542803[ebp]
  001df	88 9d fe fd ff
	ff		 mov	 BYTE PTR __k$542803[ebp+22], bl
  001e5	59		 pop	 ecx
$LL945@LoadProper:
  001e6	81 30 ed ec eb
	ea		 xor	 DWORD PTR [eax], -353637139 ; eaebecedH
  001ec	83 c0 04	 add	 eax, 4
  001ef	49		 dec	 ecx
  001f0	75 f4		 jne	 SHORT $LL945@LoadProper
  001f2	6a 14		 push	 20			; 00000014H
  001f4	58		 pop	 eax
$LL942@LoadProper:
  001f5	8b c8		 mov	 ecx, eax
  001f7	81 e1 03 00 00
	80		 and	 ecx, -2147483645	; 80000003H
  001fd	79 05		 jns	 SHORT $LN3807@LoadProper
  001ff	49		 dec	 ecx
  00200	83 c9 fc	 or	 ecx, -4			; fffffffcH
  00203	41		 inc	 ecx
$LN3807@LoadProper:
  00204	b2 ed		 mov	 dl, -19			; ffffffedH
  00206	2a d1		 sub	 dl, cl
  00208	30 94 05 e8 fd
	ff ff		 xor	 BYTE PTR __k$542803[ebp+eax], dl
  0020f	40		 inc	 eax
  00210	83 f8 16	 cmp	 eax, 22			; 00000016H
  00213	7c e0		 jl	 SHORT $LL942@LoadProper
  00215	68 04 01 00 00	 push	 260			; 00000104H
  0021a	8d 85 9c fb ff
	ff		 lea	 eax, DWORD PTR _szBuf$[ebp]
  00220	50		 push	 eax
  00221	68 00 00 00 00	 push	 OFFSET ??_C@_00CNPNBAHC@?$AA@
  00226	8d 85 e8 fd ff
	ff		 lea	 eax, DWORD PTR __k$542803[ebp]
  0022c	50		 push	 eax
  0022d	8b cf		 mov	 ecx, edi
  0022f	ff 15 00 00 00
	00		 call	 DWORD PTR __imp_?LoadStringA@ioINILoader@@QAEXPBD0PADH@Z

; 85   : 	m_SkillGrapLoopMotion = szBuf;

  00235	8d 85 9c fb ff
	ff		 lea	 eax, DWORD PTR _szBuf$[ebp]
  0023b	50		 push	 eax
  0023c	8d 8e ec 10 00
	00		 lea	 ecx, DWORD PTR [esi+4332]
  00242	ff 15 00 00 00
	00		 call	 DWORD PTR __imp_??4ioHashString@@QAEAAV0@PBD@Z

; 86   : 	m_fSkillGrapLoopMotionRate = rkLoader.LoadFloat_e( "skill_grap_loop_motion_rate", FLOAT1 );

  00248	b8 01 00 00 00	 mov	 eax, 1
  0024d	6a 06		 push	 6
  0024f	c7 85 c4 fc ff
	ff 9e 87 82 86	 mov	 DWORD PTR __k$542932[ebp], -2038265954 ; 8682879eH
  00259	c7 85 c8 fc ff
	ff 81 b3 8c 98	 mov	 DWORD PTR __k$542932[ebp+4], -1735609471 ; 988cb381H
  00263	c7 85 cc fc ff
	ff 8c 9c b4 86	 mov	 DWORD PTR __k$542932[ebp+8], -2034983796 ; 86b49c8cH
  0026d	c7 85 d0 fc ff
	ff 82 83 9b b5	 mov	 DWORD PTR __k$542932[ebp+12], -1248099454 ; b59b8382H
  00277	c7 85 d4 fc ff
	ff 80 83 9f 83	 mov	 DWORD PTR __k$542932[ebp+16], -2086698112 ; 839f8380H
  00281	c7 85 d8 fc ff
	ff 82 82 b4 98	 mov	 DWORD PTR __k$542932[ebp+20], -1733000574 ; 98b48282H
  0028b	8d 8d c4 fc ff
	ff		 lea	 ecx, DWORD PTR __k$542932[ebp]
  00291	c7 85 dc fc ff
	ff 8c 98 8e 00	 mov	 DWORD PTR __k$542932[ebp+24], 9345164 ; 008e988cH
  0029b	5a		 pop	 edx
$LL1053@LoadProper:
  0029c	81 31 ed ec eb
	ea		 xor	 DWORD PTR [ecx], -353637139 ; eaebecedH
  002a2	83 c1 04	 add	 ecx, 4
  002a5	4a		 dec	 edx
  002a6	75 f4		 jne	 SHORT $LL1053@LoadProper
  002a8	c7 85 90 fa ff
	ff 18 00 00 00	 mov	 DWORD PTR _i$542922[ebp], 24 ; 00000018H
$LL1050@LoadProper:
  002b2	8b 8d 90 fa ff
	ff		 mov	 ecx, DWORD PTR _i$542922[ebp]
  002b8	81 e1 03 00 00
	80		 and	 ecx, -2147483645	; 80000003H
  002be	79 05		 jns	 SHORT $LN3808@LoadProper
  002c0	49		 dec	 ecx
  002c1	83 c9 fc	 or	 ecx, -4			; fffffffcH
  002c4	41		 inc	 ecx
$LN3808@LoadProper:
  002c5	b2 ed		 mov	 dl, -19			; ffffffedH
  002c7	2a d1		 sub	 dl, cl
  002c9	8b 8d 90 fa ff
	ff		 mov	 ecx, DWORD PTR _i$542922[ebp]
  002cf	30 94 0d c4 fc
	ff ff		 xor	 BYTE PTR __k$542932[ebp+ecx], dl
  002d6	ff 85 90 fa ff
	ff		 inc	 DWORD PTR _i$542922[ebp]
  002dc	83 bd 90 fa ff
	ff 1b		 cmp	 DWORD PTR _i$542922[ebp], 27 ; 0000001bH
  002e3	7c cd		 jl	 SHORT $LL1050@LoadProper
  002e5	89 85 90 fa ff
	ff		 mov	 DWORD PTR tv31069[ebp], eax
  002eb	db 85 90 fa ff
	ff		 fild	 DWORD PTR tv31069[ebp]
  002f1	85 c0		 test	 eax, eax
  002f3	79 06		 jns	 SHORT $LN3809@LoadProper
  002f5	d8 05 00 00 00
	00		 fadd	 DWORD PTR __real@4f800000
$LN3809@LoadProper:
  002fb	51		 push	 ecx
  002fc	8d 85 c4 fc ff
	ff		 lea	 eax, DWORD PTR __k$542932[ebp]
  00302	d9 1c 24	 fstp	 DWORD PTR [esp]
  00305	50		 push	 eax
  00306	8b cf		 mov	 ecx, edi
  00308	ff 15 00 00 00
	00		 call	 DWORD PTR __imp_?LoadFloat@ioINILoader@@QAEMPBDM@Z
  0030e	d9 9e fc 10 00
	00		 fstp	 DWORD PTR [esi+4348]
  00314	6a 06		 push	 6

; 87   : 
; 88   : 	m_fTargetLoopGapRange = rkLoader.LoadFloat_e( "skill_target_loop_gap_range", 0.0f );

  00316	c7 85 e4 fc ff
	ff 9e 87 82 86	 mov	 DWORD PTR __k$543057[ebp], -2038265954 ; 8682879eH
  00320	c7 85 e8 fc ff
	ff 81 b3 9f 8b	 mov	 DWORD PTR __k$543057[ebp+4], -1952468095 ; 8b9fb381H
  0032a	c7 85 ec fc ff
	ff 9f 8b 8e 9e	 mov	 DWORD PTR __k$543057[ebp+8], -1634825313 ; 9e8e8b9fH
  00334	c7 85 f0 fc ff
	ff b2 80 84 85	 mov	 DWORD PTR __k$543057[ebp+12], -2054913870 ; 858480b2H
  0033e	c7 85 f4 fc ff
	ff 9d b3 8c 8b	 mov	 DWORD PTR __k$543057[ebp+16], -1953713251 ; 8b8cb39dH
  00348	c7 85 f8 fc ff
	ff 9d b3 99 8b	 mov	 DWORD PTR __k$543057[ebp+20], -1952861283 ; 8b99b39dH
  00352	8d 85 e4 fc ff
	ff		 lea	 eax, DWORD PTR __k$543057[ebp]
  00358	c7 85 fc fc ff
	ff 83 8b 8e 00	 mov	 DWORD PTR __k$543057[ebp+24], 9341827 ; 008e8b83H
  00362	59		 pop	 ecx
$LL1159@LoadProper:
  00363	81 30 ed ec eb
	ea		 xor	 DWORD PTR [eax], -353637139 ; eaebecedH
  00369	83 c0 04	 add	 eax, 4
  0036c	49		 dec	 ecx
  0036d	75 f4		 jne	 SHORT $LL1159@LoadProper
  0036f	6a 18		 push	 24			; 00000018H
  00371	58		 pop	 eax
$LL1156@LoadProper:
  00372	8b c8		 mov	 ecx, eax
  00374	81 e1 03 00 00
	80		 and	 ecx, -2147483645	; 80000003H
  0037a	79 05		 jns	 SHORT $LN3810@LoadProper
  0037c	49		 dec	 ecx
  0037d	83 c9 fc	 or	 ecx, -4			; fffffffcH
  00380	41		 inc	 ecx
$LN3810@LoadProper:
  00381	b2 ed		 mov	 dl, -19			; ffffffedH
  00383	2a d1		 sub	 dl, cl
  00385	30 94 05 e4 fc
	ff ff		 xor	 BYTE PTR __k$543057[ebp+eax], dl
  0038c	40		 inc	 eax
  0038d	83 f8 1b	 cmp	 eax, 27			; 0000001bH
  00390	7c e0		 jl	 SHORT $LL1156@LoadProper
  00392	0f 57 c0	 xorps	 xmm0, xmm0
  00395	51		 push	 ecx
  00396	8d 85 e4 fc ff
	ff		 lea	 eax, DWORD PTR __k$543057[ebp]
  0039c	f3 0f 11 04 24	 movss	 DWORD PTR [esp], xmm0
  003a1	50		 push	 eax
  003a2	8b cf		 mov	 ecx, edi
  003a4	ff 15 00 00 00
	00		 call	 DWORD PTR __imp_?LoadFloat@ioINILoader@@QAEMPBDM@Z
  003aa	d9 9d 8c fa ff
	ff		 fstp	 DWORD PTR _value$543157[ebp]
  003b0	8d 85 8c fa ff
	ff		 lea	 eax, DWORD PTR _value$543157[ebp]
  003b6	50		 push	 eax
  003b7	8d 8e 38 11 00
	00		 lea	 ecx, DWORD PTR [esi+4408]
  003bd	e8 00 00 00 00	 call	 ?EncryptValueToPool@?$CEncrypt@M@@AAEXPBD@Z ; CEncrypt<float>::EncryptValueToPool
  003c2	6a 04		 push	 4

; 89   : 
; 90   : 	rkLoader.LoadString_e( "skill_swing_motion", "", szBuf, MAX_PATH );

  003c4	c7 85 b0 fe ff
	ff 9e 87 82 86	 mov	 DWORD PTR __k$543187[ebp], -2038265954 ; 8682879eH
  003ce	c7 85 b4 fe ff
	ff 81 b3 98 9d	 mov	 DWORD PTR __k$543187[ebp+4], -1650936959 ; 9d98b381H
  003d8	c7 85 b8 fe ff
	ff 84 82 8c b5	 mov	 DWORD PTR __k$543187[ebp+8], -1249082748 ; b58c8284H
  003e2	c7 85 bc fe ff
	ff 80 83 9f 83	 mov	 DWORD PTR __k$543187[ebp+12], -2086698112 ; 839f8380H
  003ec	66 c7 85 c0 fe
	ff ff 82 82	 mov	 WORD PTR __k$543187[ebp+16], 33410 ; 00008282H
  003f5	8d 85 b0 fe ff
	ff		 lea	 eax, DWORD PTR __k$543187[ebp]
  003fb	88 9d c2 fe ff
	ff		 mov	 BYTE PTR __k$543187[ebp+18], bl
  00401	59		 pop	 ecx
$LL1267@LoadProper:
  00402	81 30 ed ec eb
	ea		 xor	 DWORD PTR [eax], -353637139 ; eaebecedH
  00408	83 c0 04	 add	 eax, 4
  0040b	49		 dec	 ecx
  0040c	75 f4		 jne	 SHORT $LL1267@LoadProper
  0040e	6a 10		 push	 16			; 00000010H
  00410	58		 pop	 eax
$LL1264@LoadProper:
  00411	8b c8		 mov	 ecx, eax
  00413	81 e1 03 00 00
	80		 and	 ecx, -2147483645	; 80000003H
  00419	79 05		 jns	 SHORT $LN3811@LoadProper
  0041b	49		 dec	 ecx
  0041c	83 c9 fc	 or	 ecx, -4			; fffffffcH
  0041f	41		 inc	 ecx
$LN3811@LoadProper:
  00420	b2 ed		 mov	 dl, -19			; ffffffedH
  00422	2a d1		 sub	 dl, cl
  00424	30 94 05 b0 fe
	ff ff		 xor	 BYTE PTR __k$543187[ebp+eax], dl
  0042b	40		 inc	 eax
  0042c	83 f8 12	 cmp	 eax, 18			; 00000012H
  0042f	7c e0		 jl	 SHORT $LL1264@LoadProper
  00431	68 04 01 00 00	 push	 260			; 00000104H
  00436	8d 85 9c fb ff
	ff		 lea	 eax, DWORD PTR _szBuf$[ebp]
  0043c	50		 push	 eax
  0043d	68 00 00 00 00	 push	 OFFSET ??_C@_00CNPNBAHC@?$AA@
  00442	8d 85 b0 fe ff
	ff		 lea	 eax, DWORD PTR __k$543187[ebp]
  00448	50		 push	 eax
  00449	8b cf		 mov	 ecx, edi
  0044b	ff 15 00 00 00
	00		 call	 DWORD PTR __imp_?LoadStringA@ioINILoader@@QAEXPBD0PADH@Z

; 91   : 	m_SkillSwingMotion = szBuf;

  00451	8d 85 9c fb ff
	ff		 lea	 eax, DWORD PTR _szBuf$[ebp]
  00457	50		 push	 eax
  00458	8d 8e 00 11 00
	00		 lea	 ecx, DWORD PTR [esi+4352]
  0045e	ff 15 00 00 00
	00		 call	 DWORD PTR __imp_??4ioHashString@@QAEAAV0@PBD@Z

; 92   : 	m_fSkillSwingMotionRate = rkLoader.LoadFloat_e( "skill_swing_motion_rate", FLOAT1 );

  00464	b8 01 00 00 00	 mov	 eax, 1
  00469	6a 05		 push	 5
  0046b	c7 85 cc fd ff
	ff 9e 87 82 86	 mov	 DWORD PTR __k$543374[ebp], -2038265954 ; 8682879eH
  00475	c7 85 d0 fd ff
	ff 81 b3 98 9d	 mov	 DWORD PTR __k$543374[ebp+4], -1650936959 ; 9d98b381H
  0047f	c7 85 d4 fd ff
	ff 84 82 8c b5	 mov	 DWORD PTR __k$543374[ebp+8], -1249082748 ; b58c8284H
  00489	c7 85 d8 fd ff
	ff 80 83 9f 83	 mov	 DWORD PTR __k$543374[ebp+12], -2086698112 ; 839f8380H
  00493	c7 85 dc fd ff
	ff 82 82 b4 98	 mov	 DWORD PTR __k$543374[ebp+16], -1733000574 ; 98b48282H
  0049d	8d 8d cc fd ff
	ff		 lea	 ecx, DWORD PTR __k$543374[ebp]
  004a3	c7 85 e0 fd ff
	ff 8c 98 8e 00	 mov	 DWORD PTR __k$543374[ebp+20], 9345164 ; 008e988cH
  004ad	5a		 pop	 edx
$LL1375@LoadProper:
  004ae	81 31 ed ec eb
	ea		 xor	 DWORD PTR [ecx], -353637139 ; eaebecedH
  004b4	83 c1 04	 add	 ecx, 4
  004b7	4a		 dec	 edx
  004b8	75 f4		 jne	 SHORT $LL1375@LoadProper
  004ba	c7 85 90 fa ff
	ff 14 00 00 00	 mov	 DWORD PTR _i$543363[ebp], 20 ; 00000014H
$LL1372@LoadProper:
  004c4	8b 8d 90 fa ff
	ff		 mov	 ecx, DWORD PTR _i$543363[ebp]
  004ca	81 e1 03 00 00
	80		 and	 ecx, -2147483645	; 80000003H
  004d0	79 05		 jns	 SHORT $LN3812@LoadProper
  004d2	49		 dec	 ecx
  004d3	83 c9 fc	 or	 ecx, -4			; fffffffcH
  004d6	41		 inc	 ecx
$LN3812@LoadProper:
  004d7	b2 ed		 mov	 dl, -19			; ffffffedH
  004d9	2a d1		 sub	 dl, cl
  004db	8b 8d 90 fa ff
	ff		 mov	 ecx, DWORD PTR _i$543363[ebp]
  004e1	30 94 0d cc fd
	ff ff		 xor	 BYTE PTR __k$543374[ebp+ecx], dl
  004e8	ff 85 90 fa ff
	ff		 inc	 DWORD PTR _i$543363[ebp]
  004ee	83 bd 90 fa ff
	ff 17		 cmp	 DWORD PTR _i$543363[ebp], 23 ; 00000017H
  004f5	7c cd		 jl	 SHORT $LL1372@LoadProper
  004f7	89 85 90 fa ff
	ff		 mov	 DWORD PTR tv31046[ebp], eax
  004fd	db 85 90 fa ff
	ff		 fild	 DWORD PTR tv31046[ebp]
  00503	85 c0		 test	 eax, eax
  00505	79 06		 jns	 SHORT $LN3813@LoadProper
  00507	d8 05 00 00 00
	00		 fadd	 DWORD PTR __real@4f800000
$LN3813@LoadProper:
  0050d	51		 push	 ecx
  0050e	8d 85 cc fd ff
	ff		 lea	 eax, DWORD PTR __k$543374[ebp]
  00514	d9 1c 24	 fstp	 DWORD PTR [esp]
  00517	50		 push	 eax
  00518	8b cf		 mov	 ecx, edi
  0051a	ff 15 00 00 00
	00		 call	 DWORD PTR __imp_?LoadFloat@ioINILoader@@QAEMPBDM@Z
  00520	d9 9e 10 11 00
	00		 fstp	 DWORD PTR [esi+4368]
  00526	6a 05		 push	 5

; 93   : 
; 94   : 	rkLoader.LoadString_e( "skill_swinged_motion", "", szBuf, MAX_PATH );

  00528	c7 85 5c fd ff
	ff 9e 87 82 86	 mov	 DWORD PTR __k$543428[ebp], -2038265954 ; 8682879eH
  00532	c7 85 60 fd ff
	ff 81 b3 98 9d	 mov	 DWORD PTR __k$543428[ebp+4], -1650936959 ; 9d98b381H
  0053c	c7 85 64 fd ff
	ff 84 82 8c 8f	 mov	 DWORD PTR __k$543428[ebp+8], -1886616956 ; 8f8c8284H
  00546	c7 85 68 fd ff
	ff 89 b3 86 85	 mov	 DWORD PTR __k$543428[ebp+12], -2054769783 ; 8586b389H
  00550	c7 85 6c fd ff
	ff 99 85 84 84	 mov	 DWORD PTR __k$543428[ebp+16], -2071689831 ; 84848599H
  0055a	8d 85 5c fd ff
	ff		 lea	 eax, DWORD PTR __k$543428[ebp]
  00560	88 9d 70 fd ff
	ff		 mov	 BYTE PTR __k$543428[ebp+20], bl
  00566	59		 pop	 ecx
$LL1481@LoadProper:
  00567	81 30 ed ec eb
	ea		 xor	 DWORD PTR [eax], -353637139 ; eaebecedH
  0056d	83 c0 04	 add	 eax, 4
  00570	49		 dec	 ecx
  00571	75 f4		 jne	 SHORT $LL1481@LoadProper
  00573	68 04 01 00 00	 push	 260			; 00000104H
  00578	8d 85 9c fb ff
	ff		 lea	 eax, DWORD PTR _szBuf$[ebp]
  0057e	50		 push	 eax
  0057f	68 00 00 00 00	 push	 OFFSET ??_C@_00CNPNBAHC@?$AA@
  00584	8d 85 5c fd ff
	ff		 lea	 eax, DWORD PTR __k$543428[ebp]
  0058a	50		 push	 eax
  0058b	8b cf		 mov	 ecx, edi
  0058d	ff 15 00 00 00
	00		 call	 DWORD PTR __imp_?LoadStringA@ioINILoader@@QAEXPBD0PADH@Z

; 95   : 	m_SkillSwingedMotion = szBuf;

  00593	8d 85 9c fb ff
	ff		 lea	 eax, DWORD PTR _szBuf$[ebp]
  00599	50		 push	 eax
  0059a	8d 8e 14 11 00
	00		 lea	 ecx, DWORD PTR [esi+4372]
  005a0	ff 15 00 00 00
	00		 call	 DWORD PTR __imp_??4ioHashString@@QAEAAV0@PBD@Z

; 96   : 	m_fSkillSwingedMotionRate = rkLoader.LoadFloat_e( "skill_swinged_motion_rate", FLOAT1 );

  005a6	b8 01 00 00 00	 mov	 eax, 1
  005ab	6a 06		 push	 6
  005ad	c7 85 04 fd ff
	ff 9e 87 82 86	 mov	 DWORD PTR __k$543557[ebp], -2038265954 ; 8682879eH
  005b7	c7 85 08 fd ff
	ff 81 b3 98 9d	 mov	 DWORD PTR __k$543557[ebp+4], -1650936959 ; 9d98b381H
  005c1	c7 85 0c fd ff
	ff 84 82 8c 8f	 mov	 DWORD PTR __k$543557[ebp+8], -1886616956 ; 8f8c8284H
  005cb	c7 85 10 fd ff
	ff 89 b3 86 85	 mov	 DWORD PTR __k$543557[ebp+12], -2054769783 ; 8586b389H
  005d5	c7 85 14 fd ff
	ff 99 85 84 84	 mov	 DWORD PTR __k$543557[ebp+16], -2071689831 ; 84848599H
  005df	c7 85 18 fd ff
	ff b2 9e 8a 9e	 mov	 DWORD PTR __k$543557[ebp+20], -1635082574 ; 9e8a9eb2H
  005e9	8d 8d 04 fd ff
	ff		 lea	 ecx, DWORD PTR __k$543557[ebp]
  005ef	66 c7 85 1c fd
	ff ff 88 00	 mov	 WORD PTR __k$543557[ebp+24], 136 ; 00000088H
  005f8	5a		 pop	 edx
$LL1589@LoadProper:
  005f9	81 31 ed ec eb
	ea		 xor	 DWORD PTR [ecx], -353637139 ; eaebecedH
  005ff	83 c1 04	 add	 ecx, 4
  00602	4a		 dec	 edx
  00603	75 f4		 jne	 SHORT $LL1589@LoadProper
  00605	80 b5 1c fd ff
	ff ed		 xor	 BYTE PTR __k$543557[ebp+24], -19 ; ffffffedH
  0060c	89 85 90 fa ff
	ff		 mov	 DWORD PTR tv31035[ebp], eax
  00612	db 85 90 fa ff
	ff		 fild	 DWORD PTR tv31035[ebp]
  00618	85 c0		 test	 eax, eax
  0061a	79 06		 jns	 SHORT $LN3814@LoadProper
  0061c	d8 05 00 00 00
	00		 fadd	 DWORD PTR __real@4f800000
$LN3814@LoadProper:
  00622	51		 push	 ecx
  00623	8d 85 04 fd ff
	ff		 lea	 eax, DWORD PTR __k$543557[ebp]
  00629	d9 1c 24	 fstp	 DWORD PTR [esp]
  0062c	50		 push	 eax
  0062d	8b cf		 mov	 ecx, edi
  0062f	ff 15 00 00 00
	00		 call	 DWORD PTR __imp_?LoadFloat@ioINILoader@@QAEMPBDM@Z
  00635	d9 9e 24 11 00
	00		 fstp	 DWORD PTR [esi+4388]
  0063b	6a 03		 push	 3

; 97   : 
; 98   : 	m_SkillLoopType = (SkillLoopType)rkLoader.LoadInt_e( "skill_loop_type", SLT_NORMAL );

  0063d	c7 85 54 ff ff
	ff 9e 87 82 86	 mov	 DWORD PTR __k$543682[ebp], -2038265954 ; 8682879eH
  00647	c7 85 58 ff ff
	ff 81 b3 87 85	 mov	 DWORD PTR __k$543682[ebp+4], -2054704255 ; 8587b381H
  00651	c7 85 5c ff ff
	ff 82 9c b4 9e	 mov	 DWORD PTR __k$543682[ebp+8], -1632330622 ; 9eb49c82H
  0065b	8d 85 54 ff ff
	ff		 lea	 eax, DWORD PTR __k$543682[ebp]
  00661	c7 85 60 ff ff
	ff 94 9c 8e 00	 mov	 DWORD PTR __k$543682[ebp+12], 9346196 ; 008e9c94H
  0066b	59		 pop	 ecx
$LL1695@LoadProper:
  0066c	81 30 ed ec eb
	ea		 xor	 DWORD PTR [eax], -353637139 ; eaebecedH
  00672	83 c0 04	 add	 eax, 4
  00675	49		 dec	 ecx
  00676	75 f4		 jne	 SHORT $LL1695@LoadProper
  00678	6a 0c		 push	 12			; 0000000cH
  0067a	58		 pop	 eax
$LL1692@LoadProper:
  0067b	8b c8		 mov	 ecx, eax
  0067d	81 e1 03 00 00
	80		 and	 ecx, -2147483645	; 80000003H
  00683	79 05		 jns	 SHORT $LN3815@LoadProper
  00685	49		 dec	 ecx
  00686	83 c9 fc	 or	 ecx, -4			; fffffffcH
  00689	41		 inc	 ecx
$LN3815@LoadProper:
  0068a	b2 ed		 mov	 dl, -19			; ffffffedH
  0068c	2a d1		 sub	 dl, cl
  0068e	30 94 05 54 ff
	ff ff		 xor	 BYTE PTR __k$543682[ebp+eax], dl
  00695	40		 inc	 eax
  00696	83 f8 0f	 cmp	 eax, 15			; 0000000fH
  00699	7c e0		 jl	 SHORT $LL1692@LoadProper
  0069b	6a 01		 push	 1
  0069d	8d 85 54 ff ff
	ff		 lea	 eax, DWORD PTR __k$543682[ebp]
  006a3	50		 push	 eax
  006a4	8b cf		 mov	 ecx, edi
  006a6	ff 15 00 00 00
	00		 call	 DWORD PTR __imp_?LoadInt@ioINILoader@@QAEHPBDH@Z
  006ac	89 86 e8 10 00
	00		 mov	 DWORD PTR [esi+4328], eax
  006b2	6a 05		 push	 5

; 99   : 	m_dwLoopRotateTime = rkLoader.LoadInt_e( "skill_loop_rotate_speed", 0 );

  006b4	c7 85 94 fd ff
	ff 9e 87 82 86	 mov	 DWORD PTR __k$543820[ebp], -2038265954 ; 8682879eH
  006be	c7 85 98 fd ff
	ff 81 b3 87 85	 mov	 DWORD PTR __k$543820[ebp+4], -2054704255 ; 8587b381H
  006c8	c7 85 9c fd ff
	ff 82 9c b4 98	 mov	 DWORD PTR __k$543820[ebp+8], -1732993918 ; 98b49c82H
  006d2	c7 85 a0 fd ff
	ff 82 98 8a 9e	 mov	 DWORD PTR __k$543820[ebp+12], -1635084158 ; 9e8a9882H
  006dc	c7 85 a4 fd ff
	ff 88 b3 98 9a	 mov	 DWORD PTR __k$543820[ebp+16], -1701268600 ; 9a98b388H
  006e6	8d 85 94 fd ff
	ff		 lea	 eax, DWORD PTR __k$543820[ebp]
  006ec	c7 85 a8 fd ff
	ff 88 89 8f 00	 mov	 DWORD PTR __k$543820[ebp+20], 9406856 ; 008f8988H
  006f6	59		 pop	 ecx
$LL1801@LoadProper:
  006f7	81 30 ed ec eb
	ea		 xor	 DWORD PTR [eax], -353637139 ; eaebecedH
  006fd	83 c0 04	 add	 eax, 4
  00700	49		 dec	 ecx
  00701	75 f4		 jne	 SHORT $LL1801@LoadProper
  00703	6a 14		 push	 20			; 00000014H
  00705	58		 pop	 eax
$LL1798@LoadProper:
  00706	8b c8		 mov	 ecx, eax
  00708	81 e1 03 00 00
	80		 and	 ecx, -2147483645	; 80000003H
  0070e	79 05		 jns	 SHORT $LN3816@LoadProper
  00710	49		 dec	 ecx
  00711	83 c9 fc	 or	 ecx, -4			; fffffffcH
  00714	41		 inc	 ecx
$LN3816@LoadProper:
  00715	b2 ed		 mov	 dl, -19			; ffffffedH
  00717	2a d1		 sub	 dl, cl
  00719	30 94 05 94 fd
	ff ff		 xor	 BYTE PTR __k$543820[ebp+eax], dl
  00720	40		 inc	 eax
  00721	83 f8 17	 cmp	 eax, 23			; 00000017H
  00724	7c e0		 jl	 SHORT $LL1798@LoadProper
  00726	53		 push	 ebx
  00727	8d 85 94 fd ff
	ff		 lea	 eax, DWORD PTR __k$543820[ebp]
  0072d	50		 push	 eax
  0072e	8b cf		 mov	 ecx, edi
  00730	ff 15 00 00 00
	00		 call	 DWORD PTR __imp_?LoadInt@ioINILoader@@QAEHPBDH@Z
  00736	89 86 2c 11 00
	00		 mov	 DWORD PTR [esi+4396], eax
  0073c	6a 07		 push	 7

; 100  : 	m_dwEnableSwingTime = rkLoader.LoadInt_e( "skill_loop_swing_enable_time", 0 );

  0073e	c7 85 a0 fc ff
	ff 9e 87 82 86	 mov	 DWORD PTR __k$543945[ebp], -2038265954 ; 8682879eH
  00748	c7 85 a4 fc ff
	ff 81 b3 87 85	 mov	 DWORD PTR __k$543945[ebp+4], -2054704255 ; 8587b381H
  00752	c7 85 a8 fc ff
	ff 82 9c b4 99	 mov	 DWORD PTR __k$543945[ebp+8], -1716216702 ; 99b49c82H
  0075c	c7 85 ac fc ff
	ff 9a 85 85 8d	 mov	 DWORD PTR __k$543945[ebp+12], -1920629350 ; 8d85859aH
  00766	c7 85 b0 fc ff
	ff b2 89 85 8b	 mov	 DWORD PTR __k$543945[ebp+16], -1954182734 ; 8b8589b2H
  00770	c7 85 b4 fc ff
	ff 8f 80 8e b5	 mov	 DWORD PTR __k$543945[ebp+20], -1248952177 ; b58e808fH
  0077a	c7 85 b8 fc ff
	ff 99 85 86 8f	 mov	 DWORD PTR __k$543945[ebp+24], -1887009383 ; 8f868599H
  00784	8d 85 a0 fc ff
	ff		 lea	 eax, DWORD PTR __k$543945[ebp]
  0078a	88 9d bc fc ff
	ff		 mov	 BYTE PTR __k$543945[ebp+28], bl
  00790	59		 pop	 ecx
$LL1907@LoadProper:
  00791	81 30 ed ec eb
	ea		 xor	 DWORD PTR [eax], -353637139 ; eaebecedH
  00797	83 c0 04	 add	 eax, 4
  0079a	49		 dec	 ecx
  0079b	75 f4		 jne	 SHORT $LL1907@LoadProper
  0079d	53		 push	 ebx
  0079e	8d 85 a0 fc ff
	ff		 lea	 eax, DWORD PTR __k$543945[ebp]
  007a4	50		 push	 eax
  007a5	8b cf		 mov	 ecx, edi
  007a7	ff 15 00 00 00
	00		 call	 DWORD PTR __imp_?LoadInt@ioINILoader@@QAEHPBDH@Z
  007ad	89 86 30 11 00
	00		 mov	 DWORD PTR [esi+4400], eax
  007b3	6a 04		 push	 4

; 101  : 
; 102  : 	m_dwSkillProtectTime = rkLoader.LoadInt_e( "skill_protect_time", 0 );

  007b5	c7 85 e0 fe ff
	ff 9e 87 82 86	 mov	 DWORD PTR __k$544070[ebp], -2038265954 ; 8682879eH
  007bf	c7 85 e4 fe ff
	ff 81 b3 9b 98	 mov	 DWORD PTR __k$544070[ebp+4], -1734626431 ; 989bb381H
  007c9	c7 85 e8 fe ff
	ff 82 98 8e 89	 mov	 DWORD PTR __k$544070[ebp+8], -1987143550 ; 898e9882H
  007d3	c7 85 ec fe ff
	ff 99 b3 9f 83	 mov	 DWORD PTR __k$544070[ebp+12], -2086685799 ; 839fb399H
  007dd	66 c7 85 f0 fe
	ff ff 80 89	 mov	 WORD PTR __k$544070[ebp+16], 35200 ; 00008980H
  007e6	8d 85 e0 fe ff
	ff		 lea	 eax, DWORD PTR __k$544070[ebp]
  007ec	88 9d f2 fe ff
	ff		 mov	 BYTE PTR __k$544070[ebp+18], bl
  007f2	59		 pop	 ecx
$LL2013@LoadProper:
  007f3	81 30 ed ec eb
	ea		 xor	 DWORD PTR [eax], -353637139 ; eaebecedH
  007f9	83 c0 04	 add	 eax, 4
  007fc	49		 dec	 ecx
  007fd	75 f4		 jne	 SHORT $LL2013@LoadProper
  007ff	6a 10		 push	 16			; 00000010H
  00801	58		 pop	 eax
$LL2010@LoadProper:
  00802	8b c8		 mov	 ecx, eax
  00804	81 e1 03 00 00
	80		 and	 ecx, -2147483645	; 80000003H
  0080a	79 05		 jns	 SHORT $LN3817@LoadProper
  0080c	49		 dec	 ecx
  0080d	83 c9 fc	 or	 ecx, -4			; fffffffcH
  00810	41		 inc	 ecx
$LN3817@LoadProper:
  00811	b2 ed		 mov	 dl, -19			; ffffffedH
  00813	2a d1		 sub	 dl, cl
  00815	30 94 05 e0 fe
	ff ff		 xor	 BYTE PTR __k$544070[ebp+eax], dl
  0081c	40		 inc	 eax
  0081d	83 f8 12	 cmp	 eax, 18			; 00000012H
  00820	7c e0		 jl	 SHORT $LL2010@LoadProper
  00822	53		 push	 ebx
  00823	8d 85 e0 fe ff
	ff		 lea	 eax, DWORD PTR __k$544070[ebp]
  00829	50		 push	 eax
  0082a	8b cf		 mov	 ecx, edi
  0082c	ff 15 00 00 00
	00		 call	 DWORD PTR __imp_?LoadInt@ioINILoader@@QAEHPBDH@Z
  00832	89 86 28 11 00
	00		 mov	 DWORD PTR [esi+4392], eax
  00838	6a 04		 push	 4

; 103  : 
; 104  : 	m_bReverseLoopRotate = rkLoader.LoadBool_e( "reverse_loop_rotate", false );

  0083a	c7 85 50 fe ff
	ff 9f 89 9d 8f	 mov	 DWORD PTR __k$544279[ebp], -1885501025 ; 8f9d899fH
  00844	c7 85 54 fe ff
	ff 9f 9f 8e b5	 mov	 DWORD PTR __k$544279[ebp+4], -1248944225 ; b58e9f9fH
  0084e	c7 85 58 fe ff
	ff 81 83 84 9a	 mov	 DWORD PTR __k$544279[ebp+8], -1702591615 ; 9a848381H
  00858	c7 85 5c fe ff
	ff b2 9e 84 9e	 mov	 DWORD PTR __k$544279[ebp+12], -1635475790 ; 9e849eb2H
  00862	8d 85 50 fe ff
	ff		 lea	 eax, DWORD PTR __k$544279[ebp]
  00868	c7 85 60 fe ff
	ff 8c 98 8e 00	 mov	 DWORD PTR __k$544279[ebp+16], 9345164 ; 008e988cH
  00872	59		 pop	 ecx
$LL2119@LoadProper:
  00873	81 30 ed ec eb
	ea		 xor	 DWORD PTR [eax], -353637139 ; eaebecedH
  00879	83 c0 04	 add	 eax, 4
  0087c	49		 dec	 ecx
  0087d	75 f4		 jne	 SHORT $LL2119@LoadProper
  0087f	6a 10		 push	 16			; 00000010H
  00881	58		 pop	 eax
$LL2116@LoadProper:
  00882	8b c8		 mov	 ecx, eax
  00884	81 e1 03 00 00
	80		 and	 ecx, -2147483645	; 80000003H
  0088a	79 05		 jns	 SHORT $LN3818@LoadProper
  0088c	49		 dec	 ecx
  0088d	83 c9 fc	 or	 ecx, -4			; fffffffcH
  00890	41		 inc	 ecx
$LN3818@LoadProper:
  00891	b2 ed		 mov	 dl, -19			; ffffffedH
  00893	2a d1		 sub	 dl, cl
  00895	30 94 05 50 fe
	ff ff		 xor	 BYTE PTR __k$544279[ebp+eax], dl
  0089c	40		 inc	 eax
  0089d	83 f8 13	 cmp	 eax, 19			; 00000013H
  008a0	7c e0		 jl	 SHORT $LL2116@LoadProper
  008a2	53		 push	 ebx
  008a3	8d 85 50 fe ff
	ff		 lea	 eax, DWORD PTR __k$544279[ebp]
  008a9	50		 push	 eax
  008aa	8b cf		 mov	 ecx, edi
  008ac	ff 15 00 00 00
	00		 call	 DWORD PTR __imp_?LoadBool@ioINILoader@@QAE_NPBD_N@Z
  008b2	88 86 34 11 00
	00		 mov	 BYTE PTR [esi+4404], al

; 105  : 
; 106  : 	m_fCharHeightRate = rkLoader.LoadFloat_e( "char_height_rate", FLOAT05 );

  008b8	b8 05 00 00 00	 mov	 eax, 5
  008bd	8b d0		 mov	 edx, eax
  008bf	b8 0a 00 00 00	 mov	 eax, 10			; 0000000aH
  008c4	6a 04		 push	 4
  008c6	89 85 90 fa ff
	ff		 mov	 DWORD PTR $T544299[ebp], eax
  008cc	c7 85 38 fe ff
	ff 8e 84 8a 98	 mov	 DWORD PTR __k$544315[ebp], -1735752562 ; 988a848eH
  008d6	c7 85 3c fe ff
	ff b2 84 8e 83	 mov	 DWORD PTR __k$544315[ebp+4], -2087811918 ; 838e84b2H
  008e0	c7 85 40 fe ff
	ff 8a 84 9f b5	 mov	 DWORD PTR __k$544315[ebp+8], -1247837046 ; b59f848aH
  008ea	c7 85 44 fe ff
	ff 9f 8d 9f 8f	 mov	 DWORD PTR __k$544315[ebp+12], -1885368929 ; 8f9f8d9fH
  008f4	8d 8d 38 fe ff
	ff		 lea	 ecx, DWORD PTR __k$544315[ebp]
  008fa	88 9d 48 fe ff
	ff		 mov	 BYTE PTR __k$544315[ebp+16], bl
  00900	58		 pop	 eax
$LL2229@LoadProper:
  00901	81 31 ed ec eb
	ea		 xor	 DWORD PTR [ecx], -353637139 ; eaebecedH
  00907	83 c1 04	 add	 ecx, 4
  0090a	48		 dec	 eax
  0090b	75 f4		 jne	 SHORT $LL2229@LoadProper
  0090d	89 95 80 fa ff
	ff		 mov	 DWORD PTR tv31008[ebp], edx
  00913	db 85 80 fa ff
	ff		 fild	 DWORD PTR tv31008[ebp]
  00919	85 d2		 test	 edx, edx
  0091b	79 06		 jns	 SHORT $LN3819@LoadProper
  0091d	d8 05 00 00 00
	00		 fadd	 DWORD PTR __real@4f800000
$LN3819@LoadProper:
  00923	8b 85 90 fa ff
	ff		 mov	 eax, DWORD PTR $T544299[ebp]
  00929	db 85 90 fa ff
	ff		 fild	 DWORD PTR $T544299[ebp]
  0092f	85 c0		 test	 eax, eax
  00931	79 06		 jns	 SHORT $LN3820@LoadProper
  00933	d8 05 00 00 00
	00		 fadd	 DWORD PTR __real@4f800000
$LN3820@LoadProper:
  00939	de f9		 fdivp	 ST(1), ST(0)
  0093b	51		 push	 ecx
  0093c	8d 85 38 fe ff
	ff		 lea	 eax, DWORD PTR __k$544315[ebp]
  00942	8b cf		 mov	 ecx, edi
  00944	d9 9d 90 fa ff
	ff		 fstp	 DWORD PTR tv31000[ebp]
  0094a	d9 85 90 fa ff
	ff		 fld	 DWORD PTR tv31000[ebp]
  00950	d9 1c 24	 fstp	 DWORD PTR [esp]
  00953	50		 push	 eax
  00954	ff 15 00 00 00
	00		 call	 DWORD PTR __imp_?LoadFloat@ioINILoader@@QAEMPBDM@Z
  0095a	d9 9e 78 11 00
	00		 fstp	 DWORD PTR [esi+4472]
  00960	6a 04		 push	 4

; 107  : 
; 108  : 	m_bEnableSwingMove = rkLoader.LoadBool_e( "enable_swing_move", false );

  00962	c7 85 10 ff ff
	ff 88 82 8a 88	 mov	 DWORD PTR __k$544440[ebp], -2004188536 ; 888a8288H
  0096c	c7 85 14 ff ff
	ff 81 89 b4 99	 mov	 DWORD PTR __k$544440[ebp+4], -1716221567 ; 99b48981H
  00976	c7 85 18 ff ff
	ff 9a 85 85 8d	 mov	 DWORD PTR __k$544440[ebp+8], -1920629350 ; 8d85859aH
  00980	c7 85 1c ff ff
	ff b2 81 84 9c	 mov	 DWORD PTR __k$544440[ebp+12], -1669037646 ; 9c8481b2H
  0098a	8d 85 10 ff ff
	ff		 lea	 eax, DWORD PTR __k$544440[ebp]
  00990	66 c7 85 20 ff
	ff ff 88 00	 mov	 WORD PTR __k$544440[ebp+16], 136 ; 00000088H
  00999	59		 pop	 ecx
$LL2335@LoadProper:
  0099a	81 30 ed ec eb
	ea		 xor	 DWORD PTR [eax], -353637139 ; eaebecedH
  009a0	83 c0 04	 add	 eax, 4
  009a3	49		 dec	 ecx
  009a4	75 f4		 jne	 SHORT $LL2335@LoadProper
  009a6	80 b5 20 ff ff
	ff ed		 xor	 BYTE PTR __k$544440[ebp+16], -19 ; ffffffedH
  009ad	53		 push	 ebx
  009ae	8d 85 10 ff ff
	ff		 lea	 eax, DWORD PTR __k$544440[ebp]
  009b4	50		 push	 eax
  009b5	8b cf		 mov	 ecx, edi
  009b7	ff 15 00 00 00
	00		 call	 DWORD PTR __imp_?LoadBool@ioINILoader@@QAE_NPBD_N@Z
  009bd	88 86 7c 11 00
	00		 mov	 BYTE PTR [esi+4476], al
  009c3	6a 04		 push	 4

; 109  : 	m_fMoveSpeed = rkLoader.LoadFloat_e( "swing_move_speed", 0.0f );

  009c5	c7 85 20 fe ff
	ff 9e 9b 82 84	 mov	 DWORD PTR __k$544565[ebp], -2071815266 ; 84829b9eH
  009cf	c7 85 24 fe ff
	ff 8a b3 86 85	 mov	 DWORD PTR __k$544565[ebp+4], -2054769782 ; 8586b38aH
  009d9	c7 85 28 fe ff
	ff 9b 89 b4 99	 mov	 DWORD PTR __k$544565[ebp+8], -1716221541 ; 99b4899bH
  009e3	c7 85 2c fe ff
	ff 9d 89 8e 8e	 mov	 DWORD PTR __k$544565[ebp+12], -1903261283 ; 8e8e899dH
  009ed	8d 85 20 fe ff
	ff		 lea	 eax, DWORD PTR __k$544565[ebp]
  009f3	88 9d 30 fe ff
	ff		 mov	 BYTE PTR __k$544565[ebp+16], bl
  009f9	59		 pop	 ecx
$LL2441@LoadProper:
  009fa	81 30 ed ec eb
	ea		 xor	 DWORD PTR [eax], -353637139 ; eaebecedH
  00a00	83 c0 04	 add	 eax, 4
  00a03	49		 dec	 ecx
  00a04	75 f4		 jne	 SHORT $LL2441@LoadProper
  00a06	0f 57 c0	 xorps	 xmm0, xmm0
  00a09	51		 push	 ecx
  00a0a	8d 85 20 fe ff
	ff		 lea	 eax, DWORD PTR __k$544565[ebp]
  00a10	f3 0f 11 04 24	 movss	 DWORD PTR [esp], xmm0
  00a15	50		 push	 eax
  00a16	8b cf		 mov	 ecx, edi
  00a18	ff 15 00 00 00
	00		 call	 DWORD PTR __imp_?LoadFloat@ioINILoader@@QAEMPBDM@Z
  00a1e	51		 push	 ecx
  00a1f	8d 8e 80 11 00
	00		 lea	 ecx, DWORD PTR [esi+4480]
  00a25	d9 1c 24	 fstp	 DWORD PTR [esp]
  00a28	e8 00 00 00 00	 call	 ??4?$CEncrypt@M@@QAEMM@Z ; CEncrypt<float>::operator=
  00a2d	dd d8		 fstp	 ST(0)
  00a2f	6a 05		 push	 5

; 110  : 	m_dwMoveRotateTime = (DWORD)rkLoader.LoadInt_e( "swing_move_rotate_speed", 0 );

  00a31	c7 85 b0 fd ff
	ff 9e 9b 82 84	 mov	 DWORD PTR __k$544690[ebp], -2071815266 ; 84829b9eH
  00a3b	c7 85 b4 fd ff
	ff 8a b3 86 85	 mov	 DWORD PTR __k$544690[ebp+4], -2054769782 ; 8586b38aH
  00a45	c7 85 b8 fd ff
	ff 9b 89 b4 98	 mov	 DWORD PTR __k$544690[ebp+8], -1732998757 ; 98b4899bH
  00a4f	c7 85 bc fd ff
	ff 82 98 8a 9e	 mov	 DWORD PTR __k$544690[ebp+12], -1635084158 ; 9e8a9882H
  00a59	c7 85 c0 fd ff
	ff 88 b3 98 9a	 mov	 DWORD PTR __k$544690[ebp+16], -1701268600 ; 9a98b388H
  00a63	8d 85 b0 fd ff
	ff		 lea	 eax, DWORD PTR __k$544690[ebp]
  00a69	c7 85 c4 fd ff
	ff 88 89 8f 00	 mov	 DWORD PTR __k$544690[ebp+20], 9406856 ; 008f8988H
  00a73	59		 pop	 ecx
$LL2547@LoadProper:
  00a74	81 30 ed ec eb
	ea		 xor	 DWORD PTR [eax], -353637139 ; eaebecedH
  00a7a	83 c0 04	 add	 eax, 4
  00a7d	49		 dec	 ecx
  00a7e	75 f4		 jne	 SHORT $LL2547@LoadProper
  00a80	6a 14		 push	 20			; 00000014H
  00a82	58		 pop	 eax
$LL2544@LoadProper:
  00a83	8b c8		 mov	 ecx, eax
  00a85	81 e1 03 00 00
	80		 and	 ecx, -2147483645	; 80000003H
  00a8b	79 05		 jns	 SHORT $LN3821@LoadProper
  00a8d	49		 dec	 ecx
  00a8e	83 c9 fc	 or	 ecx, -4			; fffffffcH
  00a91	41		 inc	 ecx
$LN3821@LoadProper:
  00a92	b2 ed		 mov	 dl, -19			; ffffffedH
  00a94	2a d1		 sub	 dl, cl
  00a96	30 94 05 b0 fd
	ff ff		 xor	 BYTE PTR __k$544690[ebp+eax], dl
  00a9d	40		 inc	 eax
  00a9e	83 f8 17	 cmp	 eax, 23			; 00000017H
  00aa1	7c e0		 jl	 SHORT $LL2544@LoadProper
  00aa3	53		 push	 ebx
  00aa4	8d 85 b0 fd ff
	ff		 lea	 eax, DWORD PTR __k$544690[ebp]
  00aaa	50		 push	 eax
  00aab	8b cf		 mov	 ecx, edi
  00aad	ff 15 00 00 00
	00		 call	 DWORD PTR __imp_?LoadInt@ioINILoader@@QAEHPBDH@Z
  00ab3	50		 push	 eax
  00ab4	8d 8e b0 11 00
	00		 lea	 ecx, DWORD PTR [esi+4528]
  00aba	e8 00 00 00 00	 call	 ??4?$CEncrypt@K@@QAEKK@Z ; CEncrypt<unsigned long>::operator=
  00abf	6a 03		 push	 3

; 111  : 
; 112  : 	int i;
; 113  : 	int iBuffCnt = rkLoader.LoadInt_e( "swing_buff_cnt", 0 );

  00ac1	c7 45 a4 9e 9b
	82 84		 mov	 DWORD PTR __k$544828[ebp], -2071815266 ; 84829b9eH
  00ac8	c7 45 a8 8a b3
	89 9f		 mov	 DWORD PTR __k$544828[ebp+4], -1618365558 ; 9f89b38aH
  00acf	c7 45 ac 8b 8a
	b4 89		 mov	 DWORD PTR __k$544828[ebp+8], -1984656757 ; 89b48a8bH
  00ad6	66 c7 45 b0 83
	98		 mov	 WORD PTR __k$544828[ebp+12], 39043 ; 00009883H
  00adc	8d 45 a4	 lea	 eax, DWORD PTR __k$544828[ebp]
  00adf	88 5d b2	 mov	 BYTE PTR __k$544828[ebp+14], bl
  00ae2	59		 pop	 ecx
$LL2653@LoadProper:
  00ae3	81 30 ed ec eb
	ea		 xor	 DWORD PTR [eax], -353637139 ; eaebecedH
  00ae9	83 c0 04	 add	 eax, 4
  00aec	49		 dec	 ecx
  00aed	75 f4		 jne	 SHORT $LL2653@LoadProper
  00aef	6a 0c		 push	 12			; 0000000cH
  00af1	58		 pop	 eax
$LL2650@LoadProper:
  00af2	8b c8		 mov	 ecx, eax
  00af4	81 e1 03 00 00
	80		 and	 ecx, -2147483645	; 80000003H
  00afa	79 05		 jns	 SHORT $LN3822@LoadProper
  00afc	49		 dec	 ecx
  00afd	83 c9 fc	 or	 ecx, -4			; fffffffcH
  00b00	41		 inc	 ecx
$LN3822@LoadProper:
  00b01	b2 ed		 mov	 dl, -19			; ffffffedH
  00b03	2a d1		 sub	 dl, cl
  00b05	30 54 05 a4	 xor	 BYTE PTR __k$544828[ebp+eax], dl
  00b09	40		 inc	 eax
  00b0a	83 f8 0e	 cmp	 eax, 14			; 0000000eH
  00b0d	7c e3		 jl	 SHORT $LL2650@LoadProper
  00b0f	53		 push	 ebx
  00b10	8d 45 a4	 lea	 eax, DWORD PTR __k$544828[ebp]
  00b13	50		 push	 eax
  00b14	8b cf		 mov	 ecx, edi
  00b16	ff 15 00 00 00
	00		 call	 DWORD PTR __imp_?LoadInt@ioINILoader@@QAEHPBDH@Z

; 114  : 	for( i=0; i < iBuffCnt; ++i )

  00b1c	33 c9		 xor	 ecx, ecx
  00b1e	89 85 80 fa ff
	ff		 mov	 DWORD PTR _iBuffCnt$[ebp], eax
  00b24	3b c3		 cmp	 eax, ebx
  00b26	0f 8e c4 00 00
	00		 jle	 $LN508@LoadProper
$LL510@LoadProper:

; 115  : 	{
; 116  : 		wsprintf_e( szKey, "swing_buff%d", i+1 );

  00b2c	6a 03		 push	 3
  00b2e	c7 85 68 ff ff
	ff 9e 9b 82 84	 mov	 DWORD PTR ___encStr$532067[ebp], -2071815266 ; 84829b9eH
  00b38	c7 85 6c ff ff
	ff 8a b3 89 9f	 mov	 DWORD PTR ___encStr$532067[ebp+4], -1618365558 ; 9f89b38aH
  00b42	c7 85 70 ff ff
	ff 8b 8a ce 8e	 mov	 DWORD PTR ___encStr$532067[ebp+8], -1899066741 ; 8ece8a8bH
  00b4c	8d 85 68 ff ff
	ff		 lea	 eax, DWORD PTR ___encStr$532067[ebp]
  00b52	88 9d 74 ff ff
	ff		 mov	 BYTE PTR ___encStr$532067[ebp+12], bl
  00b58	5a		 pop	 edx
$LL2661@LoadProper:
  00b59	81 30 ed ec eb
	ea		 xor	 DWORD PTR [eax], -353637139 ; eaebecedH
  00b5f	83 c0 04	 add	 eax, 4
  00b62	4a		 dec	 edx
  00b63	75 f4		 jne	 SHORT $LL2661@LoadProper
  00b65	8d 41 01	 lea	 eax, DWORD PTR [ecx+1]
  00b68	50		 push	 eax
  00b69	89 85 90 fa ff
	ff		 mov	 DWORD PTR tv25290[ebp], eax
  00b6f	8d 85 68 ff ff
	ff		 lea	 eax, DWORD PTR ___encStr$532067[ebp]
  00b75	50		 push	 eax
  00b76	8d 85 98 fa ff
	ff		 lea	 eax, DWORD PTR _szKey$[ebp]
  00b7c	50		 push	 eax
  00b7d	ff 15 00 00 00
	00		 call	 DWORD PTR __imp__wsprintfA
  00b83	83 c4 0c	 add	 esp, 12			; 0000000cH

; 117  : 		rkLoader.LoadString( szKey, "", szBuf, MAX_PATH );

  00b86	68 04 01 00 00	 push	 260			; 00000104H
  00b8b	8d 85 9c fb ff
	ff		 lea	 eax, DWORD PTR _szBuf$[ebp]
  00b91	50		 push	 eax
  00b92	68 00 00 00 00	 push	 OFFSET ??_C@_00CNPNBAHC@?$AA@
  00b97	8d 85 98 fa ff
	ff		 lea	 eax, DWORD PTR _szKey$[ebp]
  00b9d	50		 push	 eax
  00b9e	8b cf		 mov	 ecx, edi
  00ba0	ff 15 00 00 00
	00		 call	 DWORD PTR __imp_?LoadStringA@ioINILoader@@QAEXPBD0PADH@Z

; 118  : 
; 119  : 		m_SkillGrapplingInfo.m_SwingBuff.push_back( szBuf );

  00ba6	8d 85 9c fb ff
	ff		 lea	 eax, DWORD PTR _szBuf$[ebp]
  00bac	50		 push	 eax
  00bad	8d 8d 40 fa ff
	ff		 lea	 ecx, DWORD PTR $T542375[ebp]
  00bb3	ff 15 00 00 00
	00		 call	 DWORD PTR __imp_??0ioHashString@@QAE@PBD@Z
  00bb9	8d 85 40 fa ff
	ff		 lea	 eax, DWORD PTR $T542375[ebp]
  00bbf	50		 push	 eax
  00bc0	8d 8e 10 09 00
	00		 lea	 ecx, DWORD PTR [esi+2320]
  00bc6	89 5d fc	 mov	 DWORD PTR __$EHRec$[ebp+8], ebx
  00bc9	e8 00 00 00 00	 call	 ?push_back@?$vector@VioHashString@@V?$allocator@VioHashString@@@std@@@std@@QAEXABVioHashString@@@Z ; std::vector<ioHashString,std::allocator<ioHashString> >::push_back
  00bce	83 4d fc ff	 or	 DWORD PTR __$EHRec$[ebp+8], -1
  00bd2	8d 8d 40 fa ff
	ff		 lea	 ecx, DWORD PTR $T542375[ebp]
  00bd8	ff 15 00 00 00
	00		 call	 DWORD PTR __imp_??1ioHashString@@QAE@XZ
  00bde	8b 8d 90 fa ff
	ff		 mov	 ecx, DWORD PTR tv25290[ebp]
  00be4	3b 8d 80 fa ff
	ff		 cmp	 ecx, DWORD PTR _iBuffCnt$[ebp]
  00bea	0f 8c 3c ff ff
	ff		 jl	 $LL510@LoadProper
$LN508@LoadProper:

; 120  : 	}
; 121  : 
; 122  : 	iBuffCnt = rkLoader.LoadInt_e( "swing_wound_buff_cnt", 0 );

  00bf0	6a 05		 push	 5
  00bf2	c7 85 40 fd ff
	ff 9e 9b 82 84	 mov	 DWORD PTR __k$544965[ebp], -2071815266 ; 84829b9eH
  00bfc	c7 85 44 fd ff
	ff 8a b3 9c 85	 mov	 DWORD PTR __k$544965[ebp+4], -2053327990 ; 859cb38aH
  00c06	c7 85 48 fd ff
	ff 98 82 8f b5	 mov	 DWORD PTR __k$544965[ebp+8], -1248886120 ; b58f8298H
  00c10	c7 85 4c fd ff
	ff 8f 99 8d 8c	 mov	 DWORD PTR __k$544965[ebp+12], -1936877169 ; 8c8d998fH
  00c1a	c7 85 50 fd ff
	ff b2 8f 85 9e	 mov	 DWORD PTR __k$544965[ebp+16], -1635414094 ; 9e858fb2H
  00c24	8d 85 40 fd ff
	ff		 lea	 eax, DWORD PTR __k$544965[ebp]
  00c2a	88 9d 54 fd ff
	ff		 mov	 BYTE PTR __k$544965[ebp+20], bl
  00c30	59		 pop	 ecx
$LL2767@LoadProper:
  00c31	81 30 ed ec eb
	ea		 xor	 DWORD PTR [eax], -353637139 ; eaebecedH
  00c37	83 c0 04	 add	 eax, 4
  00c3a	49		 dec	 ecx
  00c3b	75 f4		 jne	 SHORT $LL2767@LoadProper
  00c3d	53		 push	 ebx
  00c3e	8d 85 40 fd ff
	ff		 lea	 eax, DWORD PTR __k$544965[ebp]
  00c44	50		 push	 eax
  00c45	8b cf		 mov	 ecx, edi
  00c47	ff 15 00 00 00
	00		 call	 DWORD PTR __imp_?LoadInt@ioINILoader@@QAEHPBDH@Z

; 123  : 	for( i=0; i < iBuffCnt; ++i )

  00c4d	33 c9		 xor	 ecx, ecx
  00c4f	89 85 80 fa ff
	ff		 mov	 DWORD PTR _iBuffCnt$[ebp], eax
  00c55	3b c3		 cmp	 eax, ebx
  00c57	0f 8e 17 01 00
	00		 jle	 $LN406@LoadProper
$LL408@LoadProper:

; 124  : 	{
; 125  : 		wsprintf_e( szKey, "swing_wound_buff%d", i+1 );

  00c5d	6a 04		 push	 4
  00c5f	c7 85 f8 fe ff
	ff 9e 9b 82 84	 mov	 DWORD PTR ___encStr$532229[ebp], -2071815266 ; 84829b9eH
  00c69	c7 85 fc fe ff
	ff 8a b3 9c 85	 mov	 DWORD PTR ___encStr$532229[ebp+4], -2053327990 ; 859cb38aH
  00c73	c7 85 00 ff ff
	ff 98 82 8f b5	 mov	 DWORD PTR ___encStr$532229[ebp+8], -1248886120 ; b58f8298H
  00c7d	c7 85 04 ff ff
	ff 8f 99 8d 8c	 mov	 DWORD PTR ___encStr$532229[ebp+12], -1936877169 ; 8c8d998fH
  00c87	66 c7 85 08 ff
	ff ff c8 88	 mov	 WORD PTR ___encStr$532229[ebp+16], 35016 ; 000088c8H
  00c90	8d 85 f8 fe ff
	ff		 lea	 eax, DWORD PTR ___encStr$532229[ebp]
  00c96	88 9d 0a ff ff
	ff		 mov	 BYTE PTR ___encStr$532229[ebp+18], bl
  00c9c	5a		 pop	 edx
$LL2775@LoadProper:
  00c9d	81 30 ed ec eb
	ea		 xor	 DWORD PTR [eax], -353637139 ; eaebecedH
  00ca3	83 c0 04	 add	 eax, 4
  00ca6	4a		 dec	 edx
  00ca7	75 f4		 jne	 SHORT $LL2775@LoadProper
  00ca9	c7 85 90 fa ff
	ff 10 00 00 00	 mov	 DWORD PTR _i$545065[ebp], 16 ; 00000010H
$LL2772@LoadProper:
  00cb3	8b 85 90 fa ff
	ff		 mov	 eax, DWORD PTR _i$545065[ebp]
  00cb9	25 03 00 00 80	 and	 eax, -2147483645	; 80000003H
  00cbe	79 05		 jns	 SHORT $LN3823@LoadProper
  00cc0	48		 dec	 eax
  00cc1	83 c8 fc	 or	 eax, -4			; fffffffcH
  00cc4	40		 inc	 eax
$LN3823@LoadProper:
  00cc5	b2 ed		 mov	 dl, -19			; ffffffedH
  00cc7	2a d0		 sub	 dl, al
  00cc9	8b 85 90 fa ff
	ff		 mov	 eax, DWORD PTR _i$545065[ebp]
  00ccf	30 94 05 f8 fe
	ff ff		 xor	 BYTE PTR ___encStr$532229[ebp+eax], dl
  00cd6	ff 85 90 fa ff
	ff		 inc	 DWORD PTR _i$545065[ebp]
  00cdc	83 bd 90 fa ff
	ff 12		 cmp	 DWORD PTR _i$545065[ebp], 18 ; 00000012H
  00ce3	7c ce		 jl	 SHORT $LL2772@LoadProper
  00ce5	8d 41 01	 lea	 eax, DWORD PTR [ecx+1]
  00ce8	50		 push	 eax
  00ce9	89 85 90 fa ff
	ff		 mov	 DWORD PTR tv25290[ebp], eax
  00cef	8d 85 f8 fe ff
	ff		 lea	 eax, DWORD PTR ___encStr$532229[ebp]
  00cf5	50		 push	 eax
  00cf6	8d 85 98 fa ff
	ff		 lea	 eax, DWORD PTR _szKey$[ebp]
  00cfc	50		 push	 eax
  00cfd	ff 15 00 00 00
	00		 call	 DWORD PTR __imp__wsprintfA
  00d03	83 c4 0c	 add	 esp, 12			; 0000000cH

; 126  : 		rkLoader.LoadString( szKey, "", szBuf, MAX_PATH );

  00d06	68 04 01 00 00	 push	 260			; 00000104H
  00d0b	8d 85 9c fb ff
	ff		 lea	 eax, DWORD PTR _szBuf$[ebp]
  00d11	50		 push	 eax
  00d12	68 00 00 00 00	 push	 OFFSET ??_C@_00CNPNBAHC@?$AA@
  00d17	8d 85 98 fa ff
	ff		 lea	 eax, DWORD PTR _szKey$[ebp]
  00d1d	50		 push	 eax
  00d1e	8b cf		 mov	 ecx, edi
  00d20	ff 15 00 00 00
	00		 call	 DWORD PTR __imp_?LoadStringA@ioINILoader@@QAEXPBD0PADH@Z

; 127  : 
; 128  : 		m_SkillGrapplingInfo.m_SwingWoundBuff.push_back( szBuf );

  00d26	8d 85 9c fb ff
	ff		 lea	 eax, DWORD PTR _szBuf$[ebp]
  00d2c	50		 push	 eax
  00d2d	8d 8d 30 fa ff
	ff		 lea	 ecx, DWORD PTR $T542376[ebp]
  00d33	ff 15 00 00 00
	00		 call	 DWORD PTR __imp_??0ioHashString@@QAE@PBD@Z
  00d39	8d 85 30 fa ff
	ff		 lea	 eax, DWORD PTR $T542376[ebp]
  00d3f	50		 push	 eax
  00d40	8d 8e 20 09 00
	00		 lea	 ecx, DWORD PTR [esi+2336]
  00d46	c7 45 fc 01 00
	00 00		 mov	 DWORD PTR __$EHRec$[ebp+8], 1
  00d4d	e8 00 00 00 00	 call	 ?push_back@?$vector@VioHashString@@V?$allocator@VioHashString@@@std@@@std@@QAEXABVioHashString@@@Z ; std::vector<ioHashString,std::allocator<ioHashString> >::push_back
  00d52	83 4d fc ff	 or	 DWORD PTR __$EHRec$[ebp+8], -1
  00d56	8d 8d 30 fa ff
	ff		 lea	 ecx, DWORD PTR $T542376[ebp]
  00d5c	ff 15 00 00 00
	00		 call	 DWORD PTR __imp_??1ioHashString@@QAE@XZ
  00d62	8b 8d 90 fa ff
	ff		 mov	 ecx, DWORD PTR tv25290[ebp]
  00d68	3b 8d 80 fa ff
	ff		 cmp	 ecx, DWORD PTR _iBuffCnt$[ebp]
  00d6e	0f 8c e9 fe ff
	ff		 jl	 $LL408@LoadProper
$LN406@LoadProper:

; 129  : 	}
; 130  : 
; 131  : 	iBuffCnt = rkLoader.LoadInt_e( "swing_cancel_buff_cnt", 0 );

  00d74	6a 05		 push	 5
  00d76	c7 85 04 fe ff
	ff 9e 9b 82 84	 mov	 DWORD PTR __k$545102[ebp], -2071815266 ; 84829b9eH
  00d80	c7 85 08 fe ff
	ff 8a b3 88 8b	 mov	 DWORD PTR __k$545102[ebp+4], -1953975414 ; 8b88b38aH
  00d8a	c7 85 0c fe ff
	ff 83 8f 8e 86	 mov	 DWORD PTR __k$545102[ebp+8], -2037477501 ; 868e8f83H
  00d94	c7 85 10 fe ff
	ff b2 8e 9e 8c	 mov	 DWORD PTR __k$545102[ebp+12], -1935765838 ; 8c9e8eb2H
  00d9e	c7 85 14 fe ff
	ff 8b b3 88 84	 mov	 DWORD PTR __k$545102[ebp+16], -2071415925 ; 8488b38bH
  00da8	8d 85 04 fe ff
	ff		 lea	 eax, DWORD PTR __k$545102[ebp]
  00dae	66 c7 85 18 fe
	ff ff 99 00	 mov	 WORD PTR __k$545102[ebp+20], 153 ; 00000099H
  00db7	59		 pop	 ecx
$LL2881@LoadProper:
  00db8	81 30 ed ec eb
	ea		 xor	 DWORD PTR [eax], -353637139 ; eaebecedH
  00dbe	83 c0 04	 add	 eax, 4
  00dc1	49		 dec	 ecx
  00dc2	75 f4		 jne	 SHORT $LL2881@LoadProper
  00dc4	80 b5 18 fe ff
	ff ed		 xor	 BYTE PTR __k$545102[ebp+20], -19 ; ffffffedH
  00dcb	53		 push	 ebx
  00dcc	8d 85 04 fe ff
	ff		 lea	 eax, DWORD PTR __k$545102[ebp]
  00dd2	50		 push	 eax
  00dd3	8b cf		 mov	 ecx, edi
  00dd5	ff 15 00 00 00
	00		 call	 DWORD PTR __imp_?LoadInt@ioINILoader@@QAEHPBDH@Z

; 132  : 	for( i=0; i < iBuffCnt; ++i )

  00ddb	33 c9		 xor	 ecx, ecx
  00ddd	89 85 80 fa ff
	ff		 mov	 DWORD PTR _iBuffCnt$[ebp], eax
  00de3	3b c3		 cmp	 eax, ebx
  00de5	0f 8e 12 01 00
	00		 jle	 $LN304@LoadProper
$LL306@LoadProper:

; 133  : 	{
; 134  : 		wsprintf_e( szKey, "swing_cancel_buff%d", i+1 );

  00deb	6a 04		 push	 4
  00ded	c7 85 98 fe ff
	ff 9e 9b 82 84	 mov	 DWORD PTR ___encStr$532390[ebp], -2071815266 ; 84829b9eH
  00df7	c7 85 9c fe ff
	ff 8a b3 88 8b	 mov	 DWORD PTR ___encStr$532390[ebp+4], -1953975414 ; 8b88b38aH
  00e01	c7 85 a0 fe ff
	ff 83 8f 8e 86	 mov	 DWORD PTR ___encStr$532390[ebp+8], -2037477501 ; 868e8f83H
  00e0b	c7 85 a4 fe ff
	ff b2 8e 9e 8c	 mov	 DWORD PTR ___encStr$532390[ebp+12], -1935765838 ; 8c9e8eb2H
  00e15	8d 85 98 fe ff
	ff		 lea	 eax, DWORD PTR ___encStr$532390[ebp]
  00e1b	c7 85 a8 fe ff
	ff 8b c9 8f 00	 mov	 DWORD PTR ___encStr$532390[ebp+16], 9423243 ; 008fc98bH
  00e25	5a		 pop	 edx
$LL2889@LoadProper:
  00e26	81 30 ed ec eb
	ea		 xor	 DWORD PTR [eax], -353637139 ; eaebecedH
  00e2c	83 c0 04	 add	 eax, 4
  00e2f	4a		 dec	 edx
  00e30	75 f4		 jne	 SHORT $LL2889@LoadProper
  00e32	c7 85 90 fa ff
	ff 10 00 00 00	 mov	 DWORD PTR _i$545202[ebp], 16 ; 00000010H
$LL2886@LoadProper:
  00e3c	8b 85 90 fa ff
	ff		 mov	 eax, DWORD PTR _i$545202[ebp]
  00e42	25 03 00 00 80	 and	 eax, -2147483645	; 80000003H
  00e47	79 05		 jns	 SHORT $LN3824@LoadProper
  00e49	48		 dec	 eax
  00e4a	83 c8 fc	 or	 eax, -4			; fffffffcH
  00e4d	40		 inc	 eax
$LN3824@LoadProper:
  00e4e	b2 ed		 mov	 dl, -19			; ffffffedH
  00e50	2a d0		 sub	 dl, al
  00e52	8b 85 90 fa ff
	ff		 mov	 eax, DWORD PTR _i$545202[ebp]
  00e58	30 94 05 98 fe
	ff ff		 xor	 BYTE PTR ___encStr$532390[ebp+eax], dl
  00e5f	ff 85 90 fa ff
	ff		 inc	 DWORD PTR _i$545202[ebp]
  00e65	83 bd 90 fa ff
	ff 13		 cmp	 DWORD PTR _i$545202[ebp], 19 ; 00000013H
  00e6c	7c ce		 jl	 SHORT $LL2886@LoadProper
  00e6e	8d 41 01	 lea	 eax, DWORD PTR [ecx+1]
  00e71	50		 push	 eax
  00e72	89 85 90 fa ff
	ff		 mov	 DWORD PTR tv25290[ebp], eax
  00e78	8d 85 98 fe ff
	ff		 lea	 eax, DWORD PTR ___encStr$532390[ebp]
  00e7e	50		 push	 eax
  00e7f	8d 85 98 fa ff
	ff		 lea	 eax, DWORD PTR _szKey$[ebp]
  00e85	50		 push	 eax
  00e86	ff 15 00 00 00
	00		 call	 DWORD PTR __imp__wsprintfA
  00e8c	83 c4 0c	 add	 esp, 12			; 0000000cH

; 135  : 		rkLoader.LoadString( szKey, "", szBuf, MAX_PATH );

  00e8f	68 04 01 00 00	 push	 260			; 00000104H
  00e94	8d 85 9c fb ff
	ff		 lea	 eax, DWORD PTR _szBuf$[ebp]
  00e9a	50		 push	 eax
  00e9b	68 00 00 00 00	 push	 OFFSET ??_C@_00CNPNBAHC@?$AA@
  00ea0	8d 85 98 fa ff
	ff		 lea	 eax, DWORD PTR _szKey$[ebp]
  00ea6	50		 push	 eax
  00ea7	8b cf		 mov	 ecx, edi
  00ea9	ff 15 00 00 00
	00		 call	 DWORD PTR __imp_?LoadStringA@ioINILoader@@QAEXPBD0PADH@Z

; 136  : 
; 137  : 		m_SkillGrapplingInfo.m_SwingCancelBuff.push_back( szBuf );

  00eaf	8d 85 9c fb ff
	ff		 lea	 eax, DWORD PTR _szBuf$[ebp]
  00eb5	50		 push	 eax
  00eb6	8d 8d 60 fa ff
	ff		 lea	 ecx, DWORD PTR $T542377[ebp]
  00ebc	ff 15 00 00 00
	00		 call	 DWORD PTR __imp_??0ioHashString@@QAE@PBD@Z
  00ec2	8d 85 60 fa ff
	ff		 lea	 eax, DWORD PTR $T542377[ebp]
  00ec8	50		 push	 eax
  00ec9	8d 8e 30 09 00
	00		 lea	 ecx, DWORD PTR [esi+2352]
  00ecf	c7 45 fc 02 00
	00 00		 mov	 DWORD PTR __$EHRec$[ebp+8], 2
  00ed6	e8 00 00 00 00	 call	 ?push_back@?$vector@VioHashString@@V?$allocator@VioHashString@@@std@@@std@@QAEXABVioHashString@@@Z ; std::vector<ioHashString,std::allocator<ioHashString> >::push_back
  00edb	83 4d fc ff	 or	 DWORD PTR __$EHRec$[ebp+8], -1
  00edf	8d 8d 60 fa ff
	ff		 lea	 ecx, DWORD PTR $T542377[ebp]
  00ee5	ff 15 00 00 00
	00		 call	 DWORD PTR __imp_??1ioHashString@@QAE@XZ
  00eeb	8b 8d 90 fa ff
	ff		 mov	 ecx, DWORD PTR tv25290[ebp]
  00ef1	3b 8d 80 fa ff
	ff		 cmp	 ecx, DWORD PTR _iBuffCnt$[ebp]
  00ef7	0f 8c ee fe ff
	ff		 jl	 $LL306@LoadProper
$LN304@LoadProper:

; 138  : 	}
; 139  : 
; 140  : 	//loop motion
; 141  : 	rkLoader.LoadString_e( "delay_animation", "", szBuf, MAX_PATH );	

  00efd	6a 03		 push	 3
  00eff	c7 85 40 ff ff
	ff 89 89 87 8b	 mov	 DWORD PTR __k$545243[ebp], -1954051703 ; 8b878989H
  00f09	c7 85 44 ff ff
	ff 94 b3 8a 84	 mov	 DWORD PTR __k$545243[ebp+4], -2071284844 ; 848ab394H
  00f13	c7 85 48 ff ff
	ff 84 81 8a 9e	 mov	 DWORD PTR __k$545243[ebp+8], -1635090044 ; 9e8a8184H
  00f1d	8d 85 40 ff ff
	ff		 lea	 eax, DWORD PTR __k$545243[ebp]
  00f23	c7 85 4c ff ff
	ff 84 83 85 00	 mov	 DWORD PTR __k$545243[ebp+12], 8749956 ; 00858384H
  00f2d	59		 pop	 ecx
$LL2995@LoadProper:
  00f2e	81 30 ed ec eb
	ea		 xor	 DWORD PTR [eax], -353637139 ; eaebecedH
  00f34	83 c0 04	 add	 eax, 4
  00f37	49		 dec	 ecx
  00f38	75 f4		 jne	 SHORT $LL2995@LoadProper
  00f3a	6a 0c		 push	 12			; 0000000cH
  00f3c	58		 pop	 eax
$LL2992@LoadProper:
  00f3d	8b c8		 mov	 ecx, eax
  00f3f	81 e1 03 00 00
	80		 and	 ecx, -2147483645	; 80000003H
  00f45	79 05		 jns	 SHORT $LN3825@LoadProper
  00f47	49		 dec	 ecx
  00f48	83 c9 fc	 or	 ecx, -4			; fffffffcH
  00f4b	41		 inc	 ecx
$LN3825@LoadProper:
  00f4c	b2 ed		 mov	 dl, -19			; ffffffedH
  00f4e	2a d1		 sub	 dl, cl
  00f50	30 94 05 40 ff
	ff ff		 xor	 BYTE PTR __k$545243[ebp+eax], dl
  00f57	40		 inc	 eax
  00f58	83 f8 0f	 cmp	 eax, 15			; 0000000fH
  00f5b	7c e0		 jl	 SHORT $LL2992@LoadProper
  00f5d	68 04 01 00 00	 push	 260			; 00000104H
  00f62	8d 85 9c fb ff
	ff		 lea	 eax, DWORD PTR _szBuf$[ebp]
  00f68	50		 push	 eax
  00f69	68 00 00 00 00	 push	 OFFSET ??_C@_00CNPNBAHC@?$AA@
  00f6e	8d 85 40 ff ff
	ff		 lea	 eax, DWORD PTR __k$545243[ebp]
  00f74	50		 push	 eax
  00f75	8b cf		 mov	 ecx, edi
  00f77	ff 15 00 00 00
	00		 call	 DWORD PTR __imp_?LoadStringA@ioINILoader@@QAEXPBD0PADH@Z

; 142  : 	m_LoopDelayAnimation = szBuf;

  00f7d	8d 85 9c fb ff
	ff		 lea	 eax, DWORD PTR _szBuf$[ebp]
  00f83	50		 push	 eax
  00f84	8d 8e f4 11 00
	00		 lea	 ecx, DWORD PTR [esi+4596]
  00f8a	ff 15 00 00 00
	00		 call	 DWORD PTR __imp_??4ioHashString@@QAEAAV0@PBD@Z

; 143  : 	m_fLoopDelayAnimationRate = rkLoader.LoadFloat_e( "delay_animation_rate", FLOAT1 );

  00f90	b8 01 00 00 00	 mov	 eax, 1
  00f95	6a 05		 push	 5
  00f97	c7 85 24 fd ff
	ff 89 89 87 8b	 mov	 DWORD PTR __k$545355[ebp], -1954051703 ; 8b878989H
  00fa1	c7 85 28 fd ff
	ff 94 b3 8a 84	 mov	 DWORD PTR __k$545355[ebp+4], -2071284844 ; 848ab394H
  00fab	c7 85 2c fd ff
	ff 84 81 8a 9e	 mov	 DWORD PTR __k$545355[ebp+8], -1635090044 ; 9e8a8184H
  00fb5	c7 85 30 fd ff
	ff 84 83 85 b5	 mov	 DWORD PTR __k$545355[ebp+12], -1249541244 ; b5858384H
  00fbf	c7 85 34 fd ff
	ff 9f 8d 9f 8f	 mov	 DWORD PTR __k$545355[ebp+16], -1885368929 ; 8f9f8d9fH
  00fc9	8d 8d 24 fd ff
	ff		 lea	 ecx, DWORD PTR __k$545355[ebp]
  00fcf	88 9d 38 fd ff
	ff		 mov	 BYTE PTR __k$545355[ebp+20], bl
  00fd5	5a		 pop	 edx
$LL3103@LoadProper:
  00fd6	81 31 ed ec eb
	ea		 xor	 DWORD PTR [ecx], -353637139 ; eaebecedH
  00fdc	83 c1 04	 add	 ecx, 4
  00fdf	4a		 dec	 edx
  00fe0	75 f4		 jne	 SHORT $LL3103@LoadProper
  00fe2	89 85 90 fa ff
	ff		 mov	 DWORD PTR tv30944[ebp], eax
  00fe8	db 85 90 fa ff
	ff		 fild	 DWORD PTR tv30944[ebp]
  00fee	85 c0		 test	 eax, eax
  00ff0	79 06		 jns	 SHORT $LN3826@LoadProper
  00ff2	d8 05 00 00 00
	00		 fadd	 DWORD PTR __real@4f800000
$LN3826@LoadProper:
  00ff8	51		 push	 ecx
  00ff9	8d 85 24 fd ff
	ff		 lea	 eax, DWORD PTR __k$545355[ebp]
  00fff	d9 1c 24	 fstp	 DWORD PTR [esp]
  01002	50		 push	 eax
  01003	8b cf		 mov	 ecx, edi
  01005	ff 15 00 00 00
	00		 call	 DWORD PTR __imp_?LoadFloat@ioINILoader@@QAEMPBDM@Z
  0100b	51		 push	 ecx
  0100c	8d 8e 04 12 00
	00		 lea	 ecx, DWORD PTR [esi+4612]
  01012	d9 1c 24	 fstp	 DWORD PTR [esp]
  01015	e8 00 00 00 00	 call	 ??4?$CEncrypt@M@@QAEMM@Z ; CEncrypt<float>::operator=
  0101a	dd d8		 fstp	 ST(0)
  0101c	6a 03		 push	 3

; 144  : 	
; 145  : 	rkLoader.LoadString_e( "move_animation", "", szBuf, MAX_PATH );

  0101e	c7 45 b8 80 83
	9d 8f		 mov	 DWORD PTR __k$545480[ebp], -1885502592 ; 8f9d8380H
  01025	c7 45 bc b2 8d
	85 83		 mov	 DWORD PTR __k$545480[ebp+4], -2088399438 ; 83858db2H
  0102c	c7 45 c0 80 8d
	9f 83		 mov	 DWORD PTR __k$545480[ebp+8], -2086695552 ; 839f8d80H
  01033	66 c7 45 c4 82
	82		 mov	 WORD PTR __k$545480[ebp+12], 33410 ; 00008282H
  01039	8d 45 b8	 lea	 eax, DWORD PTR __k$545480[ebp]
  0103c	88 5d c6	 mov	 BYTE PTR __k$545480[ebp+14], bl
  0103f	59		 pop	 ecx
$LL3209@LoadProper:
  01040	81 30 ed ec eb
	ea		 xor	 DWORD PTR [eax], -353637139 ; eaebecedH
  01046	83 c0 04	 add	 eax, 4
  01049	49		 dec	 ecx
  0104a	75 f4		 jne	 SHORT $LL3209@LoadProper
  0104c	6a 0c		 push	 12			; 0000000cH
  0104e	58		 pop	 eax
$LL3206@LoadProper:
  0104f	8b c8		 mov	 ecx, eax
  01051	81 e1 03 00 00
	80		 and	 ecx, -2147483645	; 80000003H
  01057	79 05		 jns	 SHORT $LN3827@LoadProper
  01059	49		 dec	 ecx
  0105a	83 c9 fc	 or	 ecx, -4			; fffffffcH
  0105d	41		 inc	 ecx
$LN3827@LoadProper:
  0105e	b2 ed		 mov	 dl, -19			; ffffffedH
  01060	2a d1		 sub	 dl, cl
  01062	30 54 05 b8	 xor	 BYTE PTR __k$545480[ebp+eax], dl
  01066	40		 inc	 eax
  01067	83 f8 0e	 cmp	 eax, 14			; 0000000eH
  0106a	7c e3		 jl	 SHORT $LL3206@LoadProper
  0106c	68 04 01 00 00	 push	 260			; 00000104H
  01071	8d 85 9c fb ff
	ff		 lea	 eax, DWORD PTR _szBuf$[ebp]
  01077	50		 push	 eax
  01078	68 00 00 00 00	 push	 OFFSET ??_C@_00CNPNBAHC@?$AA@
  0107d	8d 45 b8	 lea	 eax, DWORD PTR __k$545480[ebp]
  01080	50		 push	 eax
  01081	8b cf		 mov	 ecx, edi
  01083	ff 15 00 00 00
	00		 call	 DWORD PTR __imp_?LoadStringA@ioINILoader@@QAEXPBD0PADH@Z

; 146  : 	m_LoopMoveAnimation	= szBuf;

  01089	8d 85 9c fb ff
	ff		 lea	 eax, DWORD PTR _szBuf$[ebp]
  0108f	50		 push	 eax
  01090	8d 8e 34 12 00
	00		 lea	 ecx, DWORD PTR [esi+4660]
  01096	ff 15 00 00 00
	00		 call	 DWORD PTR __imp_??4ioHashString@@QAEAAV0@PBD@Z

; 147  : 	m_fLoopMoveAnimationRate = rkLoader.LoadFloat_e( "move_animation_rate", FLOAT1 );

  0109c	b8 01 00 00 00	 mov	 eax, 1
  010a1	6a 04		 push	 4
  010a3	c7 85 68 fe ff
	ff 80 83 9d 8f	 mov	 DWORD PTR __k$545609[ebp], -1885502592 ; 8f9d8380H
  010ad	c7 85 6c fe ff
	ff b2 8d 85 83	 mov	 DWORD PTR __k$545609[ebp+4], -2088399438 ; 83858db2H
  010b7	c7 85 70 fe ff
	ff 80 8d 9f 83	 mov	 DWORD PTR __k$545609[ebp+8], -2086695552 ; 839f8d80H
  010c1	c7 85 74 fe ff
	ff 82 82 b4 98	 mov	 DWORD PTR __k$545609[ebp+12], -1733000574 ; 98b48282H
  010cb	8d 8d 68 fe ff
	ff		 lea	 ecx, DWORD PTR __k$545609[ebp]
  010d1	c7 85 78 fe ff
	ff 8c 98 8e 00	 mov	 DWORD PTR __k$545609[ebp+16], 9345164 ; 008e988cH
  010db	5a		 pop	 edx
$LL3317@LoadProper:
  010dc	81 31 ed ec eb
	ea		 xor	 DWORD PTR [ecx], -353637139 ; eaebecedH
  010e2	83 c1 04	 add	 ecx, 4
  010e5	4a		 dec	 edx
  010e6	75 f4		 jne	 SHORT $LL3317@LoadProper
  010e8	c7 85 90 fa ff
	ff 10 00 00 00	 mov	 DWORD PTR _i$545709[ebp], 16 ; 00000010H
$LL3314@LoadProper:
  010f2	8b 8d 90 fa ff
	ff		 mov	 ecx, DWORD PTR _i$545709[ebp]
  010f8	81 e1 03 00 00
	80		 and	 ecx, -2147483645	; 80000003H
  010fe	79 05		 jns	 SHORT $LN3828@LoadProper
  01100	49		 dec	 ecx
  01101	83 c9 fc	 or	 ecx, -4			; fffffffcH
  01104	41		 inc	 ecx
$LN3828@LoadProper:
  01105	b2 ed		 mov	 dl, -19			; ffffffedH
  01107	2a d1		 sub	 dl, cl
  01109	8b 8d 90 fa ff
	ff		 mov	 ecx, DWORD PTR _i$545709[ebp]
  0110f	30 94 0d 68 fe
	ff ff		 xor	 BYTE PTR __k$545609[ebp+ecx], dl
  01116	ff 85 90 fa ff
	ff		 inc	 DWORD PTR _i$545709[ebp]
  0111c	83 bd 90 fa ff
	ff 13		 cmp	 DWORD PTR _i$545709[ebp], 19 ; 00000013H
  01123	7c cd		 jl	 SHORT $LL3314@LoadProper
  01125	89 85 90 fa ff
	ff		 mov	 DWORD PTR tv30927[ebp], eax
  0112b	db 85 90 fa ff
	ff		 fild	 DWORD PTR tv30927[ebp]
  01131	85 c0		 test	 eax, eax
  01133	79 06		 jns	 SHORT $LN3829@LoadProper
  01135	d8 05 00 00 00
	00		 fadd	 DWORD PTR __real@4f800000
$LN3829@LoadProper:
  0113b	51		 push	 ecx
  0113c	8d 85 68 fe ff
	ff		 lea	 eax, DWORD PTR __k$545609[ebp]
  01142	d9 1c 24	 fstp	 DWORD PTR [esp]
  01145	50		 push	 eax
  01146	8b cf		 mov	 ecx, edi
  01148	ff 15 00 00 00
	00		 call	 DWORD PTR __imp_?LoadFloat@ioINILoader@@QAEMPBDM@Z
  0114e	51		 push	 ecx
  0114f	8d 8e 44 12 00
	00		 lea	 ecx, DWORD PTR [esi+4676]
  01155	d9 1c 24	 fstp	 DWORD PTR [esp]
  01158	e8 00 00 00 00	 call	 ??4?$CEncrypt@M@@QAEMM@Z ; CEncrypt<float>::operator=
  0115d	dd d8		 fstp	 ST(0)
  0115f	6a 03		 push	 3

; 148  : 	m_dwLoopDuration = rkLoader.LoadInt_e( "move_duration", 0 );

  01161	c7 45 cc 80 83
	9d 8f		 mov	 DWORD PTR __k$545734[ebp], -1885502592 ; 8f9d8380H
  01168	c7 45 d0 b2 88
	9e 98		 mov	 DWORD PTR __k$545734[ebp+4], -1734440782 ; 989e88b2H
  0116f	c7 45 d4 8c 98
	82 85		 mov	 DWORD PTR __k$545734[ebp+8], -2055038836 ; 8582988cH
  01176	8d 45 cc	 lea	 eax, DWORD PTR __k$545734[ebp]
  01179	66 c7 45 d8 83
	00		 mov	 WORD PTR __k$545734[ebp+12], 131 ; 00000083H
  0117f	59		 pop	 ecx
$LL3423@LoadProper:
  01180	81 30 ed ec eb
	ea		 xor	 DWORD PTR [eax], -353637139 ; eaebecedH
  01186	83 c0 04	 add	 eax, 4
  01189	49		 dec	 ecx
  0118a	75 f4		 jne	 SHORT $LL3423@LoadProper
  0118c	80 75 d8 ed	 xor	 BYTE PTR __k$545734[ebp+12], -19 ; ffffffedH
  01190	53		 push	 ebx
  01191	8d 45 cc	 lea	 eax, DWORD PTR __k$545734[ebp]
  01194	50		 push	 eax
  01195	8b cf		 mov	 ecx, edi
  01197	ff 15 00 00 00
	00		 call	 DWORD PTR __imp_?LoadInt@ioINILoader@@QAEHPBDH@Z
  0119d	50		 push	 eax
  0119e	8d 8e 74 12 00
	00		 lea	 ecx, DWORD PTR [esi+4724]
  011a4	e8 00 00 00 00	 call	 ??4?$CEncrypt@K@@QAEKH@Z ; CEncrypt<unsigned long>::operator=
  011a9	6a 04		 push	 4

; 149  : 
; 150  : 	iBuffCnt = rkLoader.LoadInt_e( "swing_team_buff_cnt", 0 );

  011ab	c7 85 80 fe ff
	ff 9e 9b 82 84	 mov	 DWORD PTR __k$545872[ebp], -2071815266 ; 84829b9eH
  011b5	c7 85 84 fe ff
	ff 8a b3 9f 8f	 mov	 DWORD PTR __k$545872[ebp+4], -1885359222 ; 8f9fb38aH
  011bf	c7 85 88 fe ff
	ff 8c 81 b4 88	 mov	 DWORD PTR __k$545872[ebp+8], -2001436276 ; 88b4818cH
  011c9	c7 85 8c fe ff
	ff 98 8a 8d b5	 mov	 DWORD PTR __k$545872[ebp+12], -1249015144 ; b58d8a98H
  011d3	8d 85 80 fe ff
	ff		 lea	 eax, DWORD PTR __k$545872[ebp]
  011d9	c7 85 90 fe ff
	ff 8e 82 9f 00	 mov	 DWORD PTR __k$545872[ebp+16], 10453646 ; 009f828eH
  011e3	59		 pop	 ecx
$LL3529@LoadProper:
  011e4	81 30 ed ec eb
	ea		 xor	 DWORD PTR [eax], -353637139 ; eaebecedH
  011ea	83 c0 04	 add	 eax, 4
  011ed	49		 dec	 ecx
  011ee	75 f4		 jne	 SHORT $LL3529@LoadProper
  011f0	6a 10		 push	 16			; 00000010H
  011f2	58		 pop	 eax
$LL3526@LoadProper:
  011f3	8b c8		 mov	 ecx, eax
  011f5	81 e1 03 00 00
	80		 and	 ecx, -2147483645	; 80000003H
  011fb	79 05		 jns	 SHORT $LN3830@LoadProper
  011fd	49		 dec	 ecx
  011fe	83 c9 fc	 or	 ecx, -4			; fffffffcH
  01201	41		 inc	 ecx
$LN3830@LoadProper:
  01202	b2 ed		 mov	 dl, -19			; ffffffedH
  01204	2a d1		 sub	 dl, cl
  01206	30 94 05 80 fe
	ff ff		 xor	 BYTE PTR __k$545872[ebp+eax], dl
  0120d	40		 inc	 eax
  0120e	83 f8 13	 cmp	 eax, 19			; 00000013H
  01211	7c e0		 jl	 SHORT $LL3526@LoadProper
  01213	53		 push	 ebx
  01214	8d 85 80 fe ff
	ff		 lea	 eax, DWORD PTR __k$545872[ebp]
  0121a	50		 push	 eax
  0121b	8b cf		 mov	 ecx, edi
  0121d	ff 15 00 00 00
	00		 call	 DWORD PTR __imp_?LoadInt@ioINILoader@@QAEHPBDH@Z

; 151  : 	for( i=0; i < iBuffCnt; ++i )

  01223	33 c9		 xor	 ecx, ecx
  01225	89 85 80 fa ff
	ff		 mov	 DWORD PTR _iBuffCnt$[ebp], eax
  0122b	3b c3		 cmp	 eax, ebx
  0122d	0f 8e dc 00 00
	00		 jle	 $LN202@LoadProper
$LL204@LoadProper:

; 152  : 	{
; 153  : 		wsprintf_e( szKey, "swing_team_buff%d", i+1 );

  01233	6a 04		 push	 4
  01235	c7 85 28 ff ff
	ff 9e 9b 82 84	 mov	 DWORD PTR ___encStr$532596[ebp], -2071815266 ; 84829b9eH
  0123f	c7 85 2c ff ff
	ff 8a b3 9f 8f	 mov	 DWORD PTR ___encStr$532596[ebp+4], -1885359222 ; 8f9fb38aH
  01249	c7 85 30 ff ff
	ff 8c 81 b4 88	 mov	 DWORD PTR ___encStr$532596[ebp+8], -2001436276 ; 88b4818cH
  01253	c7 85 34 ff ff
	ff 98 8a 8d cf	 mov	 DWORD PTR ___encStr$532596[ebp+12], -812807528 ; cf8d8a98H
  0125d	8d 85 28 ff ff
	ff		 lea	 eax, DWORD PTR ___encStr$532596[ebp]
  01263	66 c7 85 38 ff
	ff ff 89 00	 mov	 WORD PTR ___encStr$532596[ebp+16], 137 ; 00000089H
  0126c	5a		 pop	 edx
$LL3537@LoadProper:
  0126d	81 30 ed ec eb
	ea		 xor	 DWORD PTR [eax], -353637139 ; eaebecedH
  01273	83 c0 04	 add	 eax, 4
  01276	4a		 dec	 edx
  01277	75 f4		 jne	 SHORT $LL3537@LoadProper
  01279	80 b5 38 ff ff
	ff ed		 xor	 BYTE PTR ___encStr$532596[ebp+16], -19 ; ffffffedH
  01280	8d 41 01	 lea	 eax, DWORD PTR [ecx+1]
  01283	50		 push	 eax
  01284	89 85 90 fa ff
	ff		 mov	 DWORD PTR tv25290[ebp], eax
  0128a	8d 85 28 ff ff
	ff		 lea	 eax, DWORD PTR ___encStr$532596[ebp]
  01290	50		 push	 eax
  01291	8d 85 98 fa ff
	ff		 lea	 eax, DWORD PTR _szKey$[ebp]
  01297	50		 push	 eax
  01298	ff 15 00 00 00
	00		 call	 DWORD PTR __imp__wsprintfA
  0129e	83 c4 0c	 add	 esp, 12			; 0000000cH

; 154  : 		rkLoader.LoadString( szKey, "", szBuf, MAX_PATH );

  012a1	68 04 01 00 00	 push	 260			; 00000104H
  012a6	8d 85 9c fb ff
	ff		 lea	 eax, DWORD PTR _szBuf$[ebp]
  012ac	50		 push	 eax
  012ad	68 00 00 00 00	 push	 OFFSET ??_C@_00CNPNBAHC@?$AA@
  012b2	8d 85 98 fa ff
	ff		 lea	 eax, DWORD PTR _szKey$[ebp]
  012b8	50		 push	 eax
  012b9	8b cf		 mov	 ecx, edi
  012bb	ff 15 00 00 00
	00		 call	 DWORD PTR __imp_?LoadStringA@ioINILoader@@QAEXPBD0PADH@Z

; 155  : 
; 156  : 		m_SkillGrapplingTeamInfo.m_SwingBuff.push_back( szBuf );

  012c1	8d 85 9c fb ff
	ff		 lea	 eax, DWORD PTR _szBuf$[ebp]
  012c7	50		 push	 eax
  012c8	8d 8d 70 fa ff
	ff		 lea	 ecx, DWORD PTR $T542378[ebp]
  012ce	ff 15 00 00 00
	00		 call	 DWORD PTR __imp_??0ioHashString@@QAE@PBD@Z
  012d4	8d 85 70 fa ff
	ff		 lea	 eax, DWORD PTR $T542378[ebp]
  012da	50		 push	 eax
  012db	8d 8e d0 13 00
	00		 lea	 ecx, DWORD PTR [esi+5072]
  012e1	c7 45 fc 03 00
	00 00		 mov	 DWORD PTR __$EHRec$[ebp+8], 3
  012e8	e8 00 00 00 00	 call	 ?push_back@?$vector@VioHashString@@V?$allocator@VioHashString@@@std@@@std@@QAEXABVioHashString@@@Z ; std::vector<ioHashString,std::allocator<ioHashString> >::push_back
  012ed	83 4d fc ff	 or	 DWORD PTR __$EHRec$[ebp+8], -1
  012f1	8d 8d 70 fa ff
	ff		 lea	 ecx, DWORD PTR $T542378[ebp]
  012f7	ff 15 00 00 00
	00		 call	 DWORD PTR __imp_??1ioHashString@@QAE@XZ
  012fd	8b 8d 90 fa ff
	ff		 mov	 ecx, DWORD PTR tv25290[ebp]
  01303	3b 8d 80 fa ff
	ff		 cmp	 ecx, DWORD PTR _iBuffCnt$[ebp]
  01309	0f 8c 24 ff ff
	ff		 jl	 $LL204@LoadProper
$LN202@LoadProper:

; 157  : 	}
; 158  : 
; 159  : 	iBuffCnt = rkLoader.LoadInt_e( "swing_enemy_buff_cnt", 0 );

  0130f	6a 05		 push	 5
  01311	c7 85 78 fd ff
	ff 9e 9b 82 84	 mov	 DWORD PTR __k$546009[ebp], -2071815266 ; 84829b9eH
  0131b	c7 85 7c fd ff
	ff 8a b3 8e 84	 mov	 DWORD PTR __k$546009[ebp+4], -2071022710 ; 848eb38aH
  01325	c7 85 80 fd ff
	ff 88 81 92 b5	 mov	 DWORD PTR __k$546009[ebp+8], -1248689784 ; b5928188H
  0132f	c7 85 84 fd ff
	ff 8f 99 8d 8c	 mov	 DWORD PTR __k$546009[ebp+12], -1936877169 ; 8c8d998fH
  01339	c7 85 88 fd ff
	ff b2 8f 85 9e	 mov	 DWORD PTR __k$546009[ebp+16], -1635414094 ; 9e858fb2H
  01343	8d 85 78 fd ff
	ff		 lea	 eax, DWORD PTR __k$546009[ebp]
  01349	88 9d 8c fd ff
	ff		 mov	 BYTE PTR __k$546009[ebp+20], bl
  0134f	59		 pop	 ecx
$LL3643@LoadProper:
  01350	81 30 ed ec eb
	ea		 xor	 DWORD PTR [eax], -353637139 ; eaebecedH
  01356	83 c0 04	 add	 eax, 4
  01359	49		 dec	 ecx
  0135a	75 f4		 jne	 SHORT $LL3643@LoadProper
  0135c	53		 push	 ebx
  0135d	8d 85 78 fd ff
	ff		 lea	 eax, DWORD PTR __k$546009[ebp]
  01363	50		 push	 eax
  01364	8b cf		 mov	 ecx, edi
  01366	ff 15 00 00 00
	00		 call	 DWORD PTR __imp_?LoadInt@ioINILoader@@QAEHPBDH@Z

; 160  : 	for( i=0; i < iBuffCnt; ++i )

  0136c	33 c9		 xor	 ecx, ecx
  0136e	89 85 80 fa ff
	ff		 mov	 DWORD PTR _iBuffCnt$[ebp], eax
  01374	3b c3		 cmp	 eax, ebx
  01376	0f 8e ff 00 00
	00		 jle	 $LN100@LoadProper

; 161  : 	{
; 162  : 		wsprintf_e( szKey, "swing_enemy_buff%d", i+1 );

  0137c	81 c6 2c 14 00
	00		 add	 esi, 5164		; 0000142cH
  01382	89 b5 90 fa ff
	ff		 mov	 DWORD PTR tv25954[ebp], esi
$LL102@LoadProper:
  01388	6a 04		 push	 4
  0138a	c7 85 c8 fe ff
	ff 9e 9b 82 84	 mov	 DWORD PTR ___encStr$532753[ebp], -2071815266 ; 84829b9eH
  01394	c7 85 cc fe ff
	ff 8a b3 8e 84	 mov	 DWORD PTR ___encStr$532753[ebp+4], -2071022710 ; 848eb38aH
  0139e	c7 85 d0 fe ff
	ff 88 81 92 b5	 mov	 DWORD PTR ___encStr$532753[ebp+8], -1248689784 ; b5928188H
  013a8	c7 85 d4 fe ff
	ff 8f 99 8d 8c	 mov	 DWORD PTR ___encStr$532753[ebp+12], -1936877169 ; 8c8d998fH
  013b2	66 c7 85 d8 fe
	ff ff c8 88	 mov	 WORD PTR ___encStr$532753[ebp+16], 35016 ; 000088c8H
  013bb	8d 85 c8 fe ff
	ff		 lea	 eax, DWORD PTR ___encStr$532753[ebp]
  013c1	88 9d da fe ff
	ff		 mov	 BYTE PTR ___encStr$532753[ebp+18], bl
  013c7	5a		 pop	 edx
$LL3651@LoadProper:
  013c8	81 30 ed ec eb
	ea		 xor	 DWORD PTR [eax], -353637139 ; eaebecedH
  013ce	83 c0 04	 add	 eax, 4
  013d1	4a		 dec	 edx
  013d2	75 f4		 jne	 SHORT $LL3651@LoadProper
  013d4	6a 10		 push	 16			; 00000010H
  013d6	5e		 pop	 esi
$LL3648@LoadProper:
  013d7	8b c6		 mov	 eax, esi
  013d9	25 03 00 00 80	 and	 eax, -2147483645	; 80000003H
  013de	79 05		 jns	 SHORT $LN3831@LoadProper
  013e0	48		 dec	 eax
  013e1	83 c8 fc	 or	 eax, -4			; fffffffcH
  013e4	40		 inc	 eax
$LN3831@LoadProper:
  013e5	b2 ed		 mov	 dl, -19			; ffffffedH
  013e7	2a d0		 sub	 dl, al
  013e9	30 94 35 c8 fe
	ff ff		 xor	 BYTE PTR ___encStr$532753[ebp+esi], dl
  013f0	46		 inc	 esi
  013f1	83 fe 12	 cmp	 esi, 18			; 00000012H
  013f4	7c e1		 jl	 SHORT $LL3648@LoadProper
  013f6	8d 71 01	 lea	 esi, DWORD PTR [ecx+1]
  013f9	56		 push	 esi
  013fa	8d 85 c8 fe ff
	ff		 lea	 eax, DWORD PTR ___encStr$532753[ebp]
  01400	50		 push	 eax
  01401	8d 85 98 fa ff
	ff		 lea	 eax, DWORD PTR _szKey$[ebp]
  01407	50		 push	 eax
  01408	ff 15 00 00 00
	00		 call	 DWORD PTR __imp__wsprintfA
  0140e	83 c4 0c	 add	 esp, 12			; 0000000cH

; 163  : 		rkLoader.LoadString( szKey, "", szBuf, MAX_PATH );

  01411	68 04 01 00 00	 push	 260			; 00000104H
  01416	8d 85 9c fb ff
	ff		 lea	 eax, DWORD PTR _szBuf$[ebp]
  0141c	50		 push	 eax
  0141d	68 00 00 00 00	 push	 OFFSET ??_C@_00CNPNBAHC@?$AA@
  01422	8d 85 98 fa ff
	ff		 lea	 eax, DWORD PTR _szKey$[ebp]
  01428	50		 push	 eax
  01429	8b cf		 mov	 ecx, edi
  0142b	ff 15 00 00 00
	00		 call	 DWORD PTR __imp_?LoadStringA@ioINILoader@@QAEXPBD0PADH@Z

; 164  : 
; 165  : 		m_SkillGrapplingEnemyInfo.m_SwingBuff.push_back( szBuf );

  01431	8d 85 9c fb ff
	ff		 lea	 eax, DWORD PTR _szBuf$[ebp]
  01437	50		 push	 eax
  01438	8d 8d 50 fa ff
	ff		 lea	 ecx, DWORD PTR $T542379[ebp]
  0143e	ff 15 00 00 00
	00		 call	 DWORD PTR __imp_??0ioHashString@@QAE@PBD@Z
  01444	8b 8d 90 fa ff
	ff		 mov	 ecx, DWORD PTR tv25954[ebp]
  0144a	8d 85 50 fa ff
	ff		 lea	 eax, DWORD PTR $T542379[ebp]
  01450	50		 push	 eax
  01451	c7 45 fc 04 00
	00 00		 mov	 DWORD PTR __$EHRec$[ebp+8], 4
  01458	e8 00 00 00 00	 call	 ?push_back@?$vector@VioHashString@@V?$allocator@VioHashString@@@std@@@std@@QAEXABVioHashString@@@Z ; std::vector<ioHashString,std::allocator<ioHashString> >::push_back
  0145d	83 4d fc ff	 or	 DWORD PTR __$EHRec$[ebp+8], -1
  01461	8d 8d 50 fa ff
	ff		 lea	 ecx, DWORD PTR $T542379[ebp]
  01467	ff 15 00 00 00
	00		 call	 DWORD PTR __imp_??1ioHashString@@QAE@XZ
  0146d	8b ce		 mov	 ecx, esi
  0146f	3b 8d 80 fa ff
	ff		 cmp	 ecx, DWORD PTR _iBuffCnt$[ebp]
  01475	0f 8c 0d ff ff
	ff		 jl	 $LL102@LoadProper
$LN100@LoadProper:

; 166  : 	}
; 167  : }

  0147b	e8 00 00 00 00	 call	 __EH_epilog3_GS
  01480	c2 04 00	 ret	 4
_TEXT	ENDS
;	COMDAT text$x
text$x	SEGMENT
__unwindfunclet$?LoadProperty@ioGrapplingSwing2Skill@@UAEXAAVioINILoader@@@Z$0:
  00000	8d 8d 40 fa ff
	ff		 lea	 ecx, DWORD PTR $T542375[ebp]
  00006	ff 25 00 00 00
	00		 jmp	 DWORD PTR __imp_??1ioHashString@@QAE@XZ
__unwindfunclet$?LoadProperty@ioGrapplingSwing2Skill@@UAEXAAVioINILoader@@@Z$1:
  0000c	8d 8d 30 fa ff
	ff		 lea	 ecx, DWORD PTR $T542376[ebp]
  00012	ff 25 00 00 00
	00		 jmp	 DWORD PTR __imp_??1ioHashString@@QAE@XZ
__unwindfunclet$?LoadProperty@ioGrapplingSwing2Skill@@UAEXAAVioINILoader@@@Z$2:
  00018	8d 8d 60 fa ff
	ff		 lea	 ecx, DWORD PTR $T542377[ebp]
  0001e	ff 25 00 00 00
	00		 jmp	 DWORD PTR __imp_??1ioHashString@@QAE@XZ
__unwindfunclet$?LoadProperty@ioGrapplingSwing2Skill@@UAEXAAVioINILoader@@@Z$3:
  00024	8d 8d 70 fa ff
	ff		 lea	 ecx, DWORD PTR $T542378[ebp]
  0002a	ff 25 00 00 00
	00		 jmp	 DWORD PTR __imp_??1ioHashString@@QAE@XZ
__unwindfunclet$?LoadProperty@ioGrapplingSwing2Skill@@UAEXAAVioINILoader@@@Z$4:
  00030	8d 8d 50 fa ff
	ff		 lea	 ecx, DWORD PTR $T542379[ebp]
  00036	ff 25 00 00 00
	00		 jmp	 DWORD PTR __imp_??1ioHashString@@QAE@XZ
__ehhandler$?LoadProperty@ioGrapplingSwing2Skill@@UAEXAAVioINILoader@@@Z:
  0003c	8b 54 24 08	 mov	 edx, DWORD PTR [esp+8]
  00040	8d 42 0c	 lea	 eax, DWORD PTR [edx+12]
  00043	8b 8a 2c fa ff
	ff		 mov	 ecx, DWORD PTR [edx-1492]
  00049	33 c8		 xor	 ecx, eax
  0004b	e8 00 00 00 00	 call	 @__security_check_cookie@4
  00050	8b 4a fc	 mov	 ecx, DWORD PTR [edx-4]
  00053	33 c8		 xor	 ecx, eax
  00055	e8 00 00 00 00	 call	 @__security_check_cookie@4
  0005a	b8 00 00 00 00	 mov	 eax, OFFSET __ehfuncinfo$?LoadProperty@ioGrapplingSwing2Skill@@UAEXAAVioINILoader@@@Z
  0005f	e9 00 00 00 00	 jmp	 ___CxxFrameHandler3
text$x	ENDS
?LoadProperty@ioGrapplingSwing2Skill@@UAEXAAVioINILoader@@@Z ENDP ; ioGrapplingSwing2Skill::LoadProperty
;	COMDAT xdata$x
xdata$x	SEGMENT
__unwindtable$?Clone@ioGrapplingSwing2Skill@@UAEPAVioSkill@@XZ DD 0ffffffffH
	DD	FLAT:__unwindfunclet$?Clone@ioGrapplingSwing2Skill@@UAEPAVioSkill@@XZ$0
__ehfuncinfo$?Clone@ioGrapplingSwing2Skill@@UAEPAVioSkill@@XZ DD 019930522H
	DD	01H
	DD	FLAT:__unwindtable$?Clone@ioGrapplingSwing2Skill@@UAEPAVioSkill@@XZ
	DD	2 DUP(00H)
	DD	2 DUP(00H)
	DD	00H
	DD	01H
; Function compile flags: /Ogsp
xdata$x	ENDS
;	COMDAT ?Clone@ioGrapplingSwing2Skill@@UAEPAVioSkill@@XZ
_TEXT	SEGMENT
$T546307 = -16						; size = 4
__$EHRec$ = -12						; size = 12
?Clone@ioGrapplingSwing2Skill@@UAEPAVioSkill@@XZ PROC	; ioGrapplingSwing2Skill::Clone, COMDAT
; _this$ = ecx

; 170  : {

  00000	6a 04		 push	 4
  00002	b8 00 00 00 00	 mov	 eax, __ehhandler$?Clone@ioGrapplingSwing2Skill@@UAEPAVioSkill@@XZ
  00007	e8 00 00 00 00	 call	 __EH_prolog3
  0000c	8b f1		 mov	 esi, ecx

; 171  : 	return new ioGrapplingSwing2Skill( *this );

  0000e	68 5c 14 00 00	 push	 5212			; 0000145cH
  00013	e8 00 00 00 00	 call	 ??2@YAPAXI@Z		; operator new
  00018	59		 pop	 ecx
  00019	8b c8		 mov	 ecx, eax
  0001b	89 4d f0	 mov	 DWORD PTR $T546307[ebp], ecx
  0001e	33 c0		 xor	 eax, eax
  00020	89 45 fc	 mov	 DWORD PTR __$EHRec$[ebp+8], eax
  00023	3b c8		 cmp	 ecx, eax
  00025	74 06		 je	 SHORT $LN3@Clone
  00027	56		 push	 esi
  00028	e8 00 00 00 00	 call	 ??0ioGrapplingSwing2Skill@@QAE@ABV0@@Z ; ioGrapplingSwing2Skill::ioGrapplingSwing2Skill
$LN3@Clone:

; 172  : }

  0002d	e8 00 00 00 00	 call	 __EH_epilog3
  00032	c3		 ret	 0
_TEXT	ENDS
;	COMDAT text$x
text$x	SEGMENT
__unwindfunclet$?Clone@ioGrapplingSwing2Skill@@UAEPAVioSkill@@XZ$0:
  00000	ff 75 f0	 push	 DWORD PTR $T546307[ebp]
  00003	e8 00 00 00 00	 call	 ??3@YAXPAX@Z		; operator delete
  00008	59		 pop	 ecx
  00009	c3		 ret	 0
__ehhandler$?Clone@ioGrapplingSwing2Skill@@UAEPAVioSkill@@XZ:
  0000a	8b 54 24 08	 mov	 edx, DWORD PTR [esp+8]
  0000e	8d 42 0c	 lea	 eax, DWORD PTR [edx+12]
  00011	8b 4a ec	 mov	 ecx, DWORD PTR [edx-20]
  00014	33 c8		 xor	 ecx, eax
  00016	e8 00 00 00 00	 call	 @__security_check_cookie@4
  0001b	b8 00 00 00 00	 mov	 eax, OFFSET __ehfuncinfo$?Clone@ioGrapplingSwing2Skill@@UAEPAVioSkill@@XZ
  00020	e9 00 00 00 00	 jmp	 ___CxxFrameHandler3
text$x	ENDS
?Clone@ioGrapplingSwing2Skill@@UAEPAVioSkill@@XZ ENDP	; ioGrapplingSwing2Skill::Clone
PUBLIC	__$ArrayPad$
EXTRN	?SetSkillGrapplingState@ioBaseChar@@QAEXABVioHashString@@UGrapplingSkillWoundedInfo@@0@Z:PROC ; ioBaseChar::SetSkillGrapplingState
EXTRN	?IsNetworkMode@ioPlayStage@@QAE_NXZ:PROC	; ioPlayStage::IsNetworkMode
EXTRN	?IsNetworkPlaying@P2PNetwork@@YA_NXZ:PROC	; P2PNetwork::IsNetworkPlaying
EXTRN	?GetBaseChar@ioBaseChar@@QAEPAV1@ABVioHashString@@@Z:PROC ; ioBaseChar::GetBaseChar
;	COMDAT xdata$x
; File d:\lost saga for developer\youtube\tutorial\source\src\lsclient\iobasechar.h
xdata$x	SEGMENT
__unwindtable$?SetSkillGrapplingState@ioGrapplingSwing2Skill@@UAE_NPAVioBaseChar@@ABVioHashString@@@Z DD 0ffffffffH
	DD	FLAT:__unwindfunclet$?SetSkillGrapplingState@ioGrapplingSwing2Skill@@UAE_NPAVioBaseChar@@ABVioHashString@@@Z$0
__ehfuncinfo$?SetSkillGrapplingState@ioGrapplingSwing2Skill@@UAE_NPAVioBaseChar@@ABVioHashString@@@Z DD 019930522H
	DD	01H
	DD	FLAT:__unwindtable$?SetSkillGrapplingState@ioGrapplingSwing2Skill@@UAE_NPAVioBaseChar@@ABVioHashString@@@Z
	DD	2 DUP(00H)
	DD	2 DUP(00H)
	DD	00H
	DD	01H
; Function compile flags: /Ogsp
; File d:\lost saga for developer\youtube\tutorial\source\src\lsclient\iograpplingswing2skill.cpp
xdata$x	ENDS
;	COMDAT ?SetSkillGrapplingState@ioGrapplingSwing2Skill@@UAE_NPAVioBaseChar@@ABVioHashString@@@Z
_TEXT	SEGMENT
$T546320 = -32816					; size = 4
_bNPC$ = -32810						; size = 1
_bAttackerNPC$ = -32809					; size = 1
_kPacket$533119 = -32808				; size = 32792
__$ArrayPad$ = -16					; size = 4
__$EHRec$ = -12						; size = 12
_pChar$ = 8						; size = 4
_szTargetName$ = 12					; size = 4
?SetSkillGrapplingState@ioGrapplingSwing2Skill@@UAE_NPAVioBaseChar@@ABVioHashString@@@Z PROC ; ioGrapplingSwing2Skill::SetSkillGrapplingState, COMDAT
; _this$ = ecx

; 603  : {

  00000	55		 push	 ebp
  00001	8b ec		 mov	 ebp, esp
  00003	6a ff		 push	 -1
  00005	68 00 00 00 00	 push	 __ehhandler$?SetSkillGrapplingState@ioGrapplingSwing2Skill@@UAE_NPAVioBaseChar@@ABVioHashString@@@Z
  0000a	64 a1 00 00 00
	00		 mov	 eax, DWORD PTR fs:0
  00010	50		 push	 eax
  00011	b8 24 80 00 00	 mov	 eax, 32804		; 00008024H
  00016	e8 00 00 00 00	 call	 __chkstk
  0001b	a1 00 00 00 00	 mov	 eax, DWORD PTR ___security_cookie
  00020	33 c5		 xor	 eax, ebp
  00022	89 45 f0	 mov	 DWORD PTR __$ArrayPad$[ebp], eax
  00025	53		 push	 ebx
  00026	56		 push	 esi
  00027	57		 push	 edi
  00028	50		 push	 eax
  00029	8d 45 f4	 lea	 eax, DWORD PTR __$EHRec$[ebp]
  0002c	64 a3 00 00 00
	00		 mov	 DWORD PTR fs:0, eax
  00032	8b 75 08	 mov	 esi, DWORD PTR _pChar$[ebp]
  00035	8b 5d 0c	 mov	 ebx, DWORD PTR _szTargetName$[ebp]
  00038	8b f9		 mov	 edi, ecx

; 604  : 	if( !pChar ) return false;

  0003a	85 f6		 test	 esi, esi
  0003c	75 07		 jne	 SHORT $LN9@SetSkillGr
$LN30@SetSkillGr:
  0003e	32 c0		 xor	 al, al
  00040	e9 5b 01 00 00	 jmp	 $LN10@SetSkillGr
$LN9@SetSkillGr:

; 605  : 	if( m_SkillState != SS_ACTION )		return false;

  00045	83 bf e4 10 00
	00 02		 cmp	 DWORD PTR [edi+4324], 2
  0004c	75 f0		 jne	 SHORT $LN30@SetSkillGr

; 606  : 
; 607  : 	//     m_GrapplingTargetName .
; 608  : 	m_GrapplingTargetName = szTargetName;

  0004e	8d 8f 68 11 00
	00		 lea	 ecx, DWORD PTR [edi+4456]
  00054	53		 push	 ebx
  00055	ff 15 00 00 00
	00		 call	 DWORD PTR __imp_??4ioHashString@@QAEAAV0@ABV0@@Z

; 609  : 
; 610  : 	SetGrapLoopState( pChar );

  0005b	56		 push	 esi
  0005c	8b cf		 mov	 ecx, edi
  0005e	e8 00 00 00 00	 call	 ?SetGrapLoopState@ioGrapplingSwing2Skill@@IAEXPAVioBaseChar@@@Z ; ioGrapplingSwing2Skill::SetGrapLoopState

; 611  : 
; 612  : 	if( pChar->IsNeedSendNetwork() )

  00063	8b 06		 mov	 eax, DWORD PTR [esi]
  00065	8b ce		 mov	 ecx, esi
  00067	ff 90 04 01 00
	00		 call	 DWORD PTR [eax+260]
  0006d	84 c0		 test	 al, al
  0006f	74 7f		 je	 SHORT $LN7@SetSkillGr

; 613  : 	{
; 614  : 		SP2Packet kPacket( CUPK_SKILL_EXTRA_INFO );

  00071	68 39 41 00 00	 push	 16697			; 00004139H
  00076	8d 8d d8 7f ff
	ff		 lea	 ecx, DWORD PTR _kPacket$533119[ebp]
  0007c	e8 00 00 00 00	 call	 ??0SP2Packet@@QAE@K@Z	; SP2Packet::SP2Packet
  00081	83 65 fc 00	 and	 DWORD PTR __$EHRec$[ebp+8], 0

; 615  : 		kPacket << pChar->GetCharName();

  00085	8d 86 d4 02 00
	00		 lea	 eax, DWORD PTR [esi+724]
  0008b	50		 push	 eax
  0008c	8d 8d d8 7f ff
	ff		 lea	 ecx, DWORD PTR _kPacket$533119[ebp]
  00092	e8 00 00 00 00	 call	 ??6SP2Packet@@QAEAAV0@ABVioHashString@@@Z ; SP2Packet::operator<<

; 616  : 		kPacket << GetName();

  00097	8d 47 24	 lea	 eax, DWORD PTR [edi+36]
  0009a	50		 push	 eax
  0009b	8d 8d d8 7f ff
	ff		 lea	 ecx, DWORD PTR _kPacket$533119[ebp]
  000a1	e8 00 00 00 00	 call	 ??6SP2Packet@@QAEAAV0@ABVioHashString@@@Z ; SP2Packet::operator<<

; 617  : 		kPacket << SSC_GRAP_LOOP;

  000a6	6a 01		 push	 1
  000a8	8d 8d d8 7f ff
	ff		 lea	 ecx, DWORD PTR _kPacket$533119[ebp]
  000ae	e8 00 00 00 00	 call	 ??6SP2Packet@@QAEAAV0@H@Z ; SP2Packet::operator<<

; 618  : 		kPacket << pChar->GetTargetRot();

  000b3	8d 86 a4 06 00
	00		 lea	 eax, DWORD PTR [esi+1700]
  000b9	50		 push	 eax
  000ba	8d 8d d8 7f ff
	ff		 lea	 ecx, DWORD PTR _kPacket$533119[ebp]
  000c0	e8 00 00 00 00	 call	 ??6SP2Packet@@QAEAAV0@ABUD3DXQUATERNION@@@Z ; SP2Packet::operator<<

; 619  : 		kPacket << szTargetName;

  000c5	53		 push	 ebx
  000c6	8d 8d d8 7f ff
	ff		 lea	 ecx, DWORD PTR _kPacket$533119[ebp]
  000cc	e8 00 00 00 00	 call	 ??6SP2Packet@@QAEAAV0@ABVioHashString@@@Z ; SP2Packet::operator<<

; 620  : 		P2PNetwork::SendToAllPlayingUser( kPacket );

  000d1	8d 85 d8 7f ff
	ff		 lea	 eax, DWORD PTR _kPacket$533119[ebp]
  000d7	6a 00		 push	 0
  000d9	50		 push	 eax
  000da	e8 00 00 00 00	 call	 ?SendToAllPlayingUser@P2PNetwork@@YAXAAVSP2Packet@@PAVioBaseChar@@@Z ; P2PNetwork::SendToAllPlayingUser

; 621  : 	}

  000df	83 4d fc ff	 or	 DWORD PTR __$EHRec$[ebp+8], -1
  000e3	59		 pop	 ecx
  000e4	59		 pop	 ecx
  000e5	8d 8d d8 7f ff
	ff		 lea	 ecx, DWORD PTR _kPacket$533119[ebp]
  000eb	e8 00 00 00 00	 call	 ??1SP2Packet@@UAE@XZ	; SP2Packet::~SP2Packet
$LN7@SetSkillGr:

; 622  : 
; 623  : 	ioBaseChar *pTarget = pChar->GetBaseChar( m_GrapplingTargetName );

  000f0	8d 87 68 11 00
	00		 lea	 eax, DWORD PTR [edi+4456]
  000f6	50		 push	 eax
  000f7	8b ce		 mov	 ecx, esi
  000f9	e8 00 00 00 00	 call	 ?GetBaseChar@ioBaseChar@@QAEPAV1@ABVioHashString@@@Z ; ioBaseChar::GetBaseChar
  000fe	8b d8		 mov	 ebx, eax

; 624  : 	if( !pTarget ) return false;

  00100	85 db		 test	 ebx, ebx
  00102	0f 84 36 ff ff
	ff		 je	 $LN30@SetSkillGr

; 625  : 
; 626  : 	// for NPC
; 627  : 	bool bNPC = false;
; 628  : 	bool bAttackerNPC = false;
; 629  : 	if( ToNpcChar( pTarget ) )

  00108	53		 push	 ebx
  00109	c6 85 d6 7f ff
	ff 00		 mov	 BYTE PTR _bNPC$[ebp], 0
  00110	c6 85 d7 7f ff
	ff 00		 mov	 BYTE PTR _bAttackerNPC$[ebp], 0
  00117	e8 00 00 00 00	 call	 ?ToNpcChar@@YAPAVioNpcChar@@PAVioGameEntity@@@Z ; ToNpcChar
  0011c	59		 pop	 ecx
  0011d	85 c0		 test	 eax, eax
  0011f	74 07		 je	 SHORT $LN5@SetSkillGr

; 630  : 	{
; 631  : 		bNPC = true;

  00121	c6 85 d6 7f ff
	ff 01		 mov	 BYTE PTR _bNPC$[ebp], 1
$LN5@SetSkillGr:

; 632  : 	}
; 633  : 
; 634  : 	if( ToNpcChar( pChar ) )

  00128	56		 push	 esi
  00129	e8 00 00 00 00	 call	 ?ToNpcChar@@YAPAVioNpcChar@@PAVioGameEntity@@@Z ; ToNpcChar
  0012e	59		 pop	 ecx
  0012f	85 c0		 test	 eax, eax
  00131	74 07		 je	 SHORT $LN4@SetSkillGr

; 635  : 	{
; 636  : 		bAttackerNPC = true;

  00133	c6 85 d7 7f ff
	ff 01		 mov	 BYTE PTR _bAttackerNPC$[ebp], 1
$LN4@SetSkillGr:

; 637  : 	}
; 638  : 
; 639  : 	// local or  or NPC
; 640  : 	if( !P2PNetwork::IsNetworkPlaying() || !pChar->GetCreator()->IsNetworkMode() || (bNPC || bAttackerNPC) )

  0013a	e8 00 00 00 00	 call	 ?IsNetworkPlaying@P2PNetwork@@YA_NXZ ; P2PNetwork::IsNetworkPlaying
  0013f	84 c0		 test	 al, al
  00141	74 21		 je	 SHORT $LN1@SetSkillGr
  00143	8b 8e 44 03 00
	00		 mov	 ecx, DWORD PTR [esi+836]
  00149	e8 00 00 00 00	 call	 ?IsNetworkMode@ioPlayStage@@QAE_NXZ ; ioPlayStage::IsNetworkMode
  0014e	84 c0		 test	 al, al
  00150	74 12		 je	 SHORT $LN1@SetSkillGr
  00152	80 bd d6 7f ff
	ff 00		 cmp	 BYTE PTR _bNPC$[ebp], 0
  00159	75 09		 jne	 SHORT $LN1@SetSkillGr
  0015b	80 bd d7 7f ff
	ff 00		 cmp	 BYTE PTR _bAttackerNPC$[ebp], 0
  00162	74 3a		 je	 SHORT $LN3@SetSkillGr
$LN1@SetSkillGr:

; 641  : 	{
; 642  : 		pTarget->SetTargetRotToRotate( pChar->GetTargetRot(), true, false );

  00164	6a 00		 push	 0
  00166	6a 01		 push	 1
  00168	8d 86 a4 06 00
	00		 lea	 eax, DWORD PTR [esi+1700]
  0016e	50		 push	 eax
  0016f	8b cb		 mov	 ecx, ebx
  00171	e8 00 00 00 00	 call	 ?SetTargetRotToRotate@ioBaseChar@@QAEXABUD3DXQUATERNION@@_N1@Z ; ioBaseChar::SetTargetRotToRotate

; 643  : 		pTarget->SetSkillGrapplingState( pChar->GetCharName(), GetSkillWoundGrapplingInfo(), GetName() );

  00176	8d 47 24	 lea	 eax, DWORD PTR [edi+36]
  00179	50		 push	 eax
  0017a	8b 07		 mov	 eax, DWORD PTR [edi]
  0017c	83 ec 5c	 sub	 esp, 92			; 0000005cH
  0017f	8b cc		 mov	 ecx, esp
  00181	89 a5 d0 7f ff
	ff		 mov	 DWORD PTR $T546320[ebp], esp
  00187	51		 push	 ecx
  00188	8b cf		 mov	 ecx, edi
  0018a	ff 90 a4 00 00
	00		 call	 DWORD PTR [eax+164]
  00190	81 c6 d4 02 00
	00		 add	 esi, 724		; 000002d4H
  00196	56		 push	 esi
  00197	8b cb		 mov	 ecx, ebx
  00199	e8 00 00 00 00	 call	 ?SetSkillGrapplingState@ioBaseChar@@QAEXABVioHashString@@UGrapplingSkillWoundedInfo@@0@Z ; ioBaseChar::SetSkillGrapplingState
$LN3@SetSkillGr:

; 644  : 	}
; 645  : 
; 646  : 	return true;

  0019e	b0 01		 mov	 al, 1
$LN10@SetSkillGr:

; 647  : }

  001a0	8b 4d f4	 mov	 ecx, DWORD PTR __$EHRec$[ebp]
  001a3	64 89 0d 00 00
	00 00		 mov	 DWORD PTR fs:0, ecx
  001aa	59		 pop	 ecx
  001ab	5f		 pop	 edi
  001ac	5e		 pop	 esi
  001ad	5b		 pop	 ebx
  001ae	8b 4d f0	 mov	 ecx, DWORD PTR __$ArrayPad$[ebp]
  001b1	33 cd		 xor	 ecx, ebp
  001b3	e8 00 00 00 00	 call	 @__security_check_cookie@4
  001b8	c9		 leave
  001b9	c2 08 00	 ret	 8
_TEXT	ENDS
;	COMDAT text$x
text$x	SEGMENT
__unwindfunclet$?SetSkillGrapplingState@ioGrapplingSwing2Skill@@UAE_NPAVioBaseChar@@ABVioHashString@@@Z$0:
  00000	8d 8d d8 7f ff
	ff		 lea	 ecx, DWORD PTR _kPacket$533119[ebp]
  00006	e9 00 00 00 00	 jmp	 ??1SP2Packet@@UAE@XZ	; SP2Packet::~SP2Packet
__ehhandler$?SetSkillGrapplingState@ioGrapplingSwing2Skill@@UAE_NPAVioBaseChar@@ABVioHashString@@@Z:
  0000b	8b 54 24 08	 mov	 edx, DWORD PTR [esp+8]
  0000f	8d 42 0c	 lea	 eax, DWORD PTR [edx+12]
  00012	8b 8a cc 7f ff
	ff		 mov	 ecx, DWORD PTR [edx-32820]
  00018	33 c8		 xor	 ecx, eax
  0001a	e8 00 00 00 00	 call	 @__security_check_cookie@4
  0001f	8b 4a fc	 mov	 ecx, DWORD PTR [edx-4]
  00022	33 c8		 xor	 ecx, eax
  00024	e8 00 00 00 00	 call	 @__security_check_cookie@4
  00029	b8 00 00 00 00	 mov	 eax, OFFSET __ehfuncinfo$?SetSkillGrapplingState@ioGrapplingSwing2Skill@@UAE_NPAVioBaseChar@@ABVioHashString@@@Z
  0002e	e9 00 00 00 00	 jmp	 ___CxxFrameHandler3
text$x	ENDS
?SetSkillGrapplingState@ioGrapplingSwing2Skill@@UAE_NPAVioBaseChar@@ABVioHashString@@@Z ENDP ; ioGrapplingSwing2Skill::SetSkillGrapplingState
PUBLIC	?CheckTeam@ioGrapplingSwing2Skill@@IAEXPAVioBaseChar@@0@Z ; ioGrapplingSwing2Skill::CheckTeam
EXTRN	__imp_??8ioHashString@@QBE_NABV0@@Z:PROC
; Function compile flags: /Ogsp
;	COMDAT ?CheckTeam@ioGrapplingSwing2Skill@@IAEXPAVioBaseChar@@0@Z
_TEXT	SEGMENT
_value$546398 = 8					; size = 4
_value$546373 = 8					; size = 4
_pChar$ = 8						; size = 4
_value$546411 = 12					; size = 4
_value$546386 = 12					; size = 4
_pTarget$ = 12						; size = 4
?CheckTeam@ioGrapplingSwing2Skill@@IAEXPAVioBaseChar@@0@Z PROC ; ioGrapplingSwing2Skill::CheckTeam, COMDAT
; _this$ = ecx

; 1048 : {

  00000	55		 push	 ebp
  00001	8b ec		 mov	 ebp, esp
  00003	53		 push	 ebx
  00004	57		 push	 edi

; 1049 : 	if ( !pChar || !pTarget ) return;

  00005	8b 7d 08	 mov	 edi, DWORD PTR _pChar$[ebp]
  00008	8b d9		 mov	 ebx, ecx
  0000a	85 ff		 test	 edi, edi
  0000c	0f 84 94 00 00
	00		 je	 $LN4@CheckTeam
  00012	56		 push	 esi
  00013	8b 75 0c	 mov	 esi, DWORD PTR _pTarget$[ebp]
  00016	85 f6		 test	 esi, esi
  00018	0f 84 87 00 00
	00		 je	 $LN28@CheckTeam

; 1050 : 	if ( pChar->GetCharName() == pTarget->GetCharName() )

  0001e	8d 86 d4 02 00
	00		 lea	 eax, DWORD PTR [esi+724]
  00024	50		 push	 eax
  00025	8d 8f d4 02 00
	00		 lea	 ecx, DWORD PTR [edi+724]
  0002b	ff 15 00 00 00
	00		 call	 DWORD PTR __imp_??8ioHashString@@QBE_NABV0@@Z
  00031	84 c0		 test	 al, al
  00033	75 70		 jne	 SHORT $LN28@CheckTeam

; 1051 : 		return;
; 1052 : 
; 1053 : 	if ( pChar->GetTeam() == pTarget->GetTeam() )

  00035	8d 45 08	 lea	 eax, DWORD PTR _value$546373[ebp]
  00038	50		 push	 eax
  00039	8d 8f 90 00 00
	00		 lea	 ecx, DWORD PTR [edi+144]
  0003f	e8 00 00 00 00	 call	 ?DecryptValueToPool@?$CEncrypt@W4TeamType@@@@QAEXPAW4TeamType@@@Z ; CEncrypt<enum TeamType>::DecryptValueToPool
  00044	8d 45 0c	 lea	 eax, DWORD PTR _value$546386[ebp]
  00047	50		 push	 eax
  00048	8d 8e 90 00 00
	00		 lea	 ecx, DWORD PTR [esi+144]
  0004e	e8 00 00 00 00	 call	 ?DecryptValueToPool@?$CEncrypt@W4TeamType@@@@QAEXPAW4TeamType@@@Z ; CEncrypt<enum TeamType>::DecryptValueToPool
  00053	8b 45 08	 mov	 eax, DWORD PTR _value$546373[ebp]
  00056	3b 45 0c	 cmp	 eax, DWORD PTR _value$546386[ebp]
  00059	75 12		 jne	 SHORT $LN2@CheckTeam

; 1054 : 	{
; 1055 : 		m_SkillGrapplingInfo.m_SwingBuff = m_SkillGrapplingTeamInfo.m_SwingBuff;

  0005b	8d 83 d0 13 00
	00		 lea	 eax, DWORD PTR [ebx+5072]
  00061	50		 push	 eax
  00062	8d 8b 10 09 00
	00		 lea	 ecx, DWORD PTR [ebx+2320]
  00068	e8 00 00 00 00	 call	 ??4?$vector@VioHashString@@V?$allocator@VioHashString@@@std@@@std@@QAEAAV01@ABV01@@Z ; std::vector<ioHashString,std::allocator<ioHashString> >::operator=
$LN2@CheckTeam:

; 1056 : 	}
; 1057 : 
; 1058 : 	if ( pChar->GetTeam() != pTarget->GetTeam() )

  0006d	8d 45 08	 lea	 eax, DWORD PTR _value$546398[ebp]
  00070	50		 push	 eax
  00071	8d 8f 90 00 00
	00		 lea	 ecx, DWORD PTR [edi+144]
  00077	e8 00 00 00 00	 call	 ?DecryptValueToPool@?$CEncrypt@W4TeamType@@@@QAEXPAW4TeamType@@@Z ; CEncrypt<enum TeamType>::DecryptValueToPool
  0007c	8d 45 0c	 lea	 eax, DWORD PTR _value$546411[ebp]
  0007f	50		 push	 eax
  00080	8d 8e 90 00 00
	00		 lea	 ecx, DWORD PTR [esi+144]
  00086	e8 00 00 00 00	 call	 ?DecryptValueToPool@?$CEncrypt@W4TeamType@@@@QAEXPAW4TeamType@@@Z ; CEncrypt<enum TeamType>::DecryptValueToPool
  0008b	8b 45 08	 mov	 eax, DWORD PTR _value$546398[ebp]
  0008e	3b 45 0c	 cmp	 eax, DWORD PTR _value$546411[ebp]
  00091	74 12		 je	 SHORT $LN28@CheckTeam

; 1059 : 	{
; 1060 : 		m_SkillGrapplingInfo.m_SwingBuff = m_SkillGrapplingEnemyInfo.m_SwingBuff;

  00093	8d 83 2c 14 00
	00		 lea	 eax, DWORD PTR [ebx+5164]
  00099	50		 push	 eax
  0009a	8d 8b 10 09 00
	00		 lea	 ecx, DWORD PTR [ebx+2320]
  000a0	e8 00 00 00 00	 call	 ??4?$vector@VioHashString@@V?$allocator@VioHashString@@@std@@@std@@QAEAAV01@ABV01@@Z ; std::vector<ioHashString,std::allocator<ioHashString> >::operator=
$LN28@CheckTeam:
  000a5	5e		 pop	 esi
$LN4@CheckTeam:
  000a6	5f		 pop	 edi
  000a7	5b		 pop	 ebx

; 1061 : 	}
; 1062 : }

  000a8	5d		 pop	 ebp
  000a9	c2 08 00	 ret	 8
?CheckTeam@ioGrapplingSwing2Skill@@IAEXPAVioBaseChar@@0@Z ENDP ; ioGrapplingSwing2Skill::CheckTeam
_TEXT	ENDS
PUBLIC	??0GrapplingSkillWoundedInfo@@QAE@XZ		; GrapplingSkillWoundedInfo::GrapplingSkillWoundedInfo
;	COMDAT xdata$x
; File c:\program files (x86)\microsoft visual studio 10.0\vc\include\xmemory
xdata$x	SEGMENT
__ehfuncinfo$??0GrapplingSkillWoundedInfo@@QAE@XZ DD 019930522H
	DD	05H
	DD	FLAT:__unwindtable$??0GrapplingSkillWoundedInfo@@QAE@XZ
	DD	2 DUP(00H)
	DD	2 DUP(00H)
	DD	00H
	DD	01H
__unwindtable$??0GrapplingSkillWoundedInfo@@QAE@XZ DD 0ffffffffH
	DD	FLAT:__unwindfunclet$??0GrapplingSkillWoundedInfo@@QAE@XZ$0
	DD	00H
	DD	FLAT:__unwindfunclet$??0GrapplingSkillWoundedInfo@@QAE@XZ$1
	DD	01H
	DD	FLAT:__unwindfunclet$??0GrapplingSkillWoundedInfo@@QAE@XZ$2
	DD	02H
	DD	FLAT:__unwindfunclet$??0GrapplingSkillWoundedInfo@@QAE@XZ$3
	DD	03H
	DD	FLAT:__unwindfunclet$??0GrapplingSkillWoundedInfo@@QAE@XZ$4
; Function compile flags: /Ogsp
; File d:\lost saga for developer\youtube\tutorial\source\src\lsclient\playentityhelpstruct.h
xdata$x	ENDS
;	COMDAT ??0GrapplingSkillWoundedInfo@@QAE@XZ
_TEXT	SEGMENT
_this$ = -16						; size = 4
__$EHRec$ = -12						; size = 12
??0GrapplingSkillWoundedInfo@@QAE@XZ PROC		; GrapplingSkillWoundedInfo::GrapplingSkillWoundedInfo, COMDAT
; _this$ = ecx

; 1166 : 	GrapplingSkillWoundedInfo()

  00000	6a 04		 push	 4
  00002	b8 00 00 00 00	 mov	 eax, __ehhandler$??0GrapplingSkillWoundedInfo@@QAE@XZ
  00007	e8 00 00 00 00	 call	 __EH_prolog3
  0000c	8b f1		 mov	 esi, ecx
  0000e	89 75 f0	 mov	 DWORD PTR _this$[ebp], esi
  00011	8b 1d 00 00 00
	00		 mov	 ebx, DWORD PTR __imp_??0ioHashString@@QAE@XZ
  00017	8d 4e 04	 lea	 ecx, DWORD PTR [esi+4]
  0001a	ff d3		 call	 ebx
  0001c	33 ff		 xor	 edi, edi
  0001e	8d 4e 14	 lea	 ecx, DWORD PTR [esi+20]
  00021	89 7d fc	 mov	 DWORD PTR __$EHRec$[ebp+8], edi
  00024	ff d3		 call	 ebx
  00026	89 7e 2c	 mov	 DWORD PTR [esi+44], edi
  00029	89 7e 30	 mov	 DWORD PTR [esi+48], edi
  0002c	89 7e 34	 mov	 DWORD PTR [esi+52], edi
  0002f	89 7e 3c	 mov	 DWORD PTR [esi+60], edi
  00032	89 7e 40	 mov	 DWORD PTR [esi+64], edi
  00035	89 7e 44	 mov	 DWORD PTR [esi+68], edi
  00038	89 7e 4c	 mov	 DWORD PTR [esi+76], edi
  0003b	89 7e 50	 mov	 DWORD PTR [esi+80], edi
  0003e	89 7e 54	 mov	 DWORD PTR [esi+84], edi

; 1167 : 	{
; 1168 : 		Init();

  00041	8b ce		 mov	 ecx, esi
  00043	c6 45 fc 04	 mov	 BYTE PTR __$EHRec$[ebp+8], 4
  00047	e8 00 00 00 00	 call	 ?Init@GrapplingSkillWoundedInfo@@QAEXXZ ; GrapplingSkillWoundedInfo::Init

; 1169 : 	}

  0004c	8b c6		 mov	 eax, esi
  0004e	e8 00 00 00 00	 call	 __EH_epilog3
  00053	c3		 ret	 0
_TEXT	ENDS
;	COMDAT text$x
text$x	SEGMENT
__unwindfunclet$??0GrapplingSkillWoundedInfo@@QAE@XZ$0:
  00000	8b 4d f0	 mov	 ecx, DWORD PTR _this$[ebp]
  00003	83 c1 04	 add	 ecx, 4
  00006	ff 25 00 00 00
	00		 jmp	 DWORD PTR __imp_??1ioHashString@@QAE@XZ
__unwindfunclet$??0GrapplingSkillWoundedInfo@@QAE@XZ$1:
  0000c	8b 4d f0	 mov	 ecx, DWORD PTR _this$[ebp]
  0000f	83 c1 14	 add	 ecx, 20			; 00000014H
  00012	ff 25 00 00 00
	00		 jmp	 DWORD PTR __imp_??1ioHashString@@QAE@XZ
__unwindfunclet$??0GrapplingSkillWoundedInfo@@QAE@XZ$2:
  00018	8b 4d f0	 mov	 ecx, DWORD PTR _this$[ebp]
  0001b	83 c1 2c	 add	 ecx, 44			; 0000002cH
  0001e	e9 00 00 00 00	 jmp	 ??1?$vector@VioHashString@@V?$allocator@VioHashString@@@std@@@std@@QAE@XZ ; std::vector<ioHashString,std::allocator<ioHashString> >::~vector<ioHashString,std::allocator<ioHashString> >
__unwindfunclet$??0GrapplingSkillWoundedInfo@@QAE@XZ$3:
  00023	8b 4d f0	 mov	 ecx, DWORD PTR _this$[ebp]
  00026	83 c1 3c	 add	 ecx, 60			; 0000003cH
  00029	e9 00 00 00 00	 jmp	 ??1?$vector@VioHashString@@V?$allocator@VioHashString@@@std@@@std@@QAE@XZ ; std::vector<ioHashString,std::allocator<ioHashString> >::~vector<ioHashString,std::allocator<ioHashString> >
__unwindfunclet$??0GrapplingSkillWoundedInfo@@QAE@XZ$4:
  0002e	8b 4d f0	 mov	 ecx, DWORD PTR _this$[ebp]
  00031	83 c1 4c	 add	 ecx, 76			; 0000004cH
  00034	e9 00 00 00 00	 jmp	 ??1?$vector@VioHashString@@V?$allocator@VioHashString@@@std@@@std@@QAE@XZ ; std::vector<ioHashString,std::allocator<ioHashString> >::~vector<ioHashString,std::allocator<ioHashString> >
__ehhandler$??0GrapplingSkillWoundedInfo@@QAE@XZ:
  00039	8b 54 24 08	 mov	 edx, DWORD PTR [esp+8]
  0003d	8d 42 0c	 lea	 eax, DWORD PTR [edx+12]
  00040	8b 4a ec	 mov	 ecx, DWORD PTR [edx-20]
  00043	33 c8		 xor	 ecx, eax
  00045	e8 00 00 00 00	 call	 @__security_check_cookie@4
  0004a	b8 00 00 00 00	 mov	 eax, OFFSET __ehfuncinfo$??0GrapplingSkillWoundedInfo@@QAE@XZ
  0004f	e9 00 00 00 00	 jmp	 ___CxxFrameHandler3
text$x	ENDS
??0GrapplingSkillWoundedInfo@@QAE@XZ ENDP		; GrapplingSkillWoundedInfo::GrapplingSkillWoundedInfo
PUBLIC	??0ioGrapplingSwing2Skill@@QAE@XZ		; ioGrapplingSwing2Skill::ioGrapplingSwing2Skill
EXTRN	??0ioAttackSkill@@QAE@XZ:PROC			; ioAttackSkill::ioAttackSkill
;	COMDAT xdata$x
; File c:\program files (x86)\microsoft directx sdk (june 2010)\include\d3dx9math.h
xdata$x	SEGMENT
__ehfuncinfo$??0ioGrapplingSwing2Skill@@QAE@XZ DD 019930522H
	DD	014H
	DD	FLAT:__unwindtable$??0ioGrapplingSwing2Skill@@QAE@XZ
	DD	2 DUP(00H)
	DD	2 DUP(00H)
	DD	00H
	DD	01H
__unwindtable$??0ioGrapplingSwing2Skill@@QAE@XZ DD 0ffffffffH
	DD	FLAT:__unwindfunclet$??0ioGrapplingSwing2Skill@@QAE@XZ$0
	DD	00H
	DD	FLAT:__unwindfunclet$??0ioGrapplingSwing2Skill@@QAE@XZ$1
	DD	01H
	DD	FLAT:__unwindfunclet$??0ioGrapplingSwing2Skill@@QAE@XZ$2
	DD	02H
	DD	FLAT:__unwindfunclet$??0ioGrapplingSwing2Skill@@QAE@XZ$3
	DD	03H
	DD	FLAT:__unwindfunclet$??0ioGrapplingSwing2Skill@@QAE@XZ$4
	DD	04H
	DD	FLAT:__unwindfunclet$??0ioGrapplingSwing2Skill@@QAE@XZ$5
	DD	05H
	DD	FLAT:__unwindfunclet$??0ioGrapplingSwing2Skill@@QAE@XZ$6
	DD	06H
	DD	FLAT:__unwindfunclet$??0ioGrapplingSwing2Skill@@QAE@XZ$7
	DD	07H
	DD	FLAT:__unwindfunclet$??0ioGrapplingSwing2Skill@@QAE@XZ$8
	DD	08H
	DD	FLAT:__unwindfunclet$??0ioGrapplingSwing2Skill@@QAE@XZ$9
	DD	09H
	DD	FLAT:__unwindfunclet$??0ioGrapplingSwing2Skill@@QAE@XZ$10
	DD	0aH
	DD	FLAT:__unwindfunclet$??0ioGrapplingSwing2Skill@@QAE@XZ$11
	DD	0bH
	DD	FLAT:__unwindfunclet$??0ioGrapplingSwing2Skill@@QAE@XZ$12
	DD	0cH
	DD	FLAT:__unwindfunclet$??0ioGrapplingSwing2Skill@@QAE@XZ$13
	DD	0dH
	DD	FLAT:__unwindfunclet$??0ioGrapplingSwing2Skill@@QAE@XZ$14
	DD	0eH
	DD	FLAT:__unwindfunclet$??0ioGrapplingSwing2Skill@@QAE@XZ$15
	DD	0fH
	DD	FLAT:__unwindfunclet$??0ioGrapplingSwing2Skill@@QAE@XZ$16
	DD	010H
	DD	FLAT:__unwindfunclet$??0ioGrapplingSwing2Skill@@QAE@XZ$17
	DD	011H
	DD	FLAT:__unwindfunclet$??0ioGrapplingSwing2Skill@@QAE@XZ$18
	DD	012H
	DD	FLAT:__unwindfunclet$??0ioGrapplingSwing2Skill@@QAE@XZ$19
; Function compile flags: /Ogsp
; File d:\lost saga for developer\youtube\tutorial\source\src\lsclient\iograpplingswing2skill.cpp
xdata$x	ENDS
;	COMDAT ??0ioGrapplingSwing2Skill@@QAE@XZ
_TEXT	SEGMENT
_this$ = -16						; size = 4
__$EHRec$ = -12						; size = 12
??0ioGrapplingSwing2Skill@@QAE@XZ PROC			; ioGrapplingSwing2Skill::ioGrapplingSwing2Skill, COMDAT
; _this$ = ecx

; 12   : {

  00000	6a 04		 push	 4
  00002	b8 00 00 00 00	 mov	 eax, __ehhandler$??0ioGrapplingSwing2Skill@@QAE@XZ
  00007	e8 00 00 00 00	 call	 __EH_prolog3
  0000c	8b f1		 mov	 esi, ecx
  0000e	89 75 f0	 mov	 DWORD PTR _this$[ebp], esi
  00011	e8 00 00 00 00	 call	 ??0ioAttackSkill@@QAE@XZ ; ioAttackSkill::ioAttackSkill
  00016	8b 3d 00 00 00
	00		 mov	 edi, DWORD PTR __imp_??0ioHashString@@QAE@XZ
  0001c	83 65 fc 00	 and	 DWORD PTR __$EHRec$[ebp+8], 0
  00020	8d 8e ec 10 00
	00		 lea	 ecx, DWORD PTR [esi+4332]
  00026	c7 06 00 00 00
	00		 mov	 DWORD PTR [esi], OFFSET ??_7ioGrapplingSwing2Skill@@6B@
  0002c	ff d7		 call	 edi
  0002e	8d 8e 00 11 00
	00		 lea	 ecx, DWORD PTR [esi+4352]
  00034	c6 45 fc 01	 mov	 BYTE PTR __$EHRec$[ebp+8], 1
  00038	ff d7		 call	 edi
  0003a	8d 8e 14 11 00
	00		 lea	 ecx, DWORD PTR [esi+4372]
  00040	c6 45 fc 02	 mov	 BYTE PTR __$EHRec$[ebp+8], 2
  00044	ff d7		 call	 edi
  00046	8d 8e 38 11 00
	00		 lea	 ecx, DWORD PTR [esi+4408]
  0004c	c6 45 fc 03	 mov	 BYTE PTR __$EHRec$[ebp+8], 3
  00050	e8 00 00 00 00	 call	 ??0?$CEncrypt@M@@QAE@XZ	; CEncrypt<float>::CEncrypt<float>
  00055	8d 8e 68 11 00
	00		 lea	 ecx, DWORD PTR [esi+4456]
  0005b	c6 45 fc 04	 mov	 BYTE PTR __$EHRec$[ebp+8], 4
  0005f	ff d7		 call	 edi
  00061	8d 8e 80 11 00
	00		 lea	 ecx, DWORD PTR [esi+4480]
  00067	c6 45 fc 05	 mov	 BYTE PTR __$EHRec$[ebp+8], 5
  0006b	e8 00 00 00 00	 call	 ??0?$CEncrypt@M@@QAE@XZ	; CEncrypt<float>::CEncrypt<float>
  00070	8d 8e b0 11 00
	00		 lea	 ecx, DWORD PTR [esi+4528]
  00076	c6 45 fc 06	 mov	 BYTE PTR __$EHRec$[ebp+8], 6
  0007a	e8 00 00 00 00	 call	 ??0?$CEncrypt@K@@QAE@XZ	; CEncrypt<unsigned long>::CEncrypt<unsigned long>
  0007f	8d 8e f4 11 00
	00		 lea	 ecx, DWORD PTR [esi+4596]
  00085	c6 45 fc 07	 mov	 BYTE PTR __$EHRec$[ebp+8], 7
  00089	ff d7		 call	 edi
  0008b	8d 8e 04 12 00
	00		 lea	 ecx, DWORD PTR [esi+4612]
  00091	c6 45 fc 08	 mov	 BYTE PTR __$EHRec$[ebp+8], 8
  00095	e8 00 00 00 00	 call	 ??0?$CEncrypt@M@@QAE@XZ	; CEncrypt<float>::CEncrypt<float>
  0009a	8d 8e 34 12 00
	00		 lea	 ecx, DWORD PTR [esi+4660]
  000a0	c6 45 fc 09	 mov	 BYTE PTR __$EHRec$[ebp+8], 9
  000a4	ff d7		 call	 edi
  000a6	8d 8e 44 12 00
	00		 lea	 ecx, DWORD PTR [esi+4676]
  000ac	c6 45 fc 0a	 mov	 BYTE PTR __$EHRec$[ebp+8], 10 ; 0000000aH
  000b0	e8 00 00 00 00	 call	 ??0?$CEncrypt@M@@QAE@XZ	; CEncrypt<float>::CEncrypt<float>
  000b5	8d 8e 74 12 00
	00		 lea	 ecx, DWORD PTR [esi+4724]
  000bb	c6 45 fc 0b	 mov	 BYTE PTR __$EHRec$[ebp+8], 11 ; 0000000bH
  000bf	e8 00 00 00 00	 call	 ??0?$CEncrypt@K@@QAE@XZ	; CEncrypt<unsigned long>::CEncrypt<unsigned long>
  000c4	8d 8e ac 12 00
	00		 lea	 ecx, DWORD PTR [esi+4780]
  000ca	c6 45 fc 0c	 mov	 BYTE PTR __$EHRec$[ebp+8], 12 ; 0000000cH
  000ce	e8 00 00 00 00	 call	 ??0?$CEncrypt@_N@@QAE@XZ ; CEncrypt<bool>::CEncrypt<bool>
  000d3	8d 8e dc 12 00
	00		 lea	 ecx, DWORD PTR [esi+4828]
  000d9	c6 45 fc 0d	 mov	 BYTE PTR __$EHRec$[ebp+8], 13 ; 0000000dH
  000dd	e8 00 00 00 00	 call	 ??0?$CEncrypt@M@@QAE@XZ	; CEncrypt<float>::CEncrypt<float>
  000e2	8d 8e 0c 13 00
	00		 lea	 ecx, DWORD PTR [esi+4876]
  000e8	c6 45 fc 0e	 mov	 BYTE PTR __$EHRec$[ebp+8], 14 ; 0000000eH
  000ec	e8 00 00 00 00	 call	 ??0?$CEncrypt@K@@QAE@XZ	; CEncrypt<unsigned long>::CEncrypt<unsigned long>
  000f1	8d 8e 40 13 00
	00		 lea	 ecx, DWORD PTR [esi+4928]
  000f7	c6 45 fc 0f	 mov	 BYTE PTR __$EHRec$[ebp+8], 15 ; 0000000fH
  000fb	e8 00 00 00 00	 call	 ??0?$CEncrypt@M@@QAE@XZ	; CEncrypt<float>::CEncrypt<float>
  00100	8d 8e 70 13 00
	00		 lea	 ecx, DWORD PTR [esi+4976]
  00106	c6 45 fc 10	 mov	 BYTE PTR __$EHRec$[ebp+8], 16 ; 00000010H
  0010a	e8 00 00 00 00	 call	 ??0?$CEncrypt@K@@QAE@XZ	; CEncrypt<unsigned long>::CEncrypt<unsigned long>
  0010f	8d 8e a4 13 00
	00		 lea	 ecx, DWORD PTR [esi+5028]
  00115	c6 45 fc 11	 mov	 BYTE PTR __$EHRec$[ebp+8], 17 ; 00000011H
  00119	e8 00 00 00 00	 call	 ??0GrapplingSkillWoundedInfo@@QAE@XZ ; GrapplingSkillWoundedInfo::GrapplingSkillWoundedInfo
  0011e	8d 8e 00 14 00
	00		 lea	 ecx, DWORD PTR [esi+5120]
  00124	c6 45 fc 12	 mov	 BYTE PTR __$EHRec$[ebp+8], 18 ; 00000012H
  00128	e8 00 00 00 00	 call	 ??0GrapplingSkillWoundedInfo@@QAE@XZ ; GrapplingSkillWoundedInfo::GrapplingSkillWoundedInfo
  0012d	c6 45 fc 13	 mov	 BYTE PTR __$EHRec$[ebp+8], 19 ; 00000013H

; 13   : 	ClearData();

  00131	8b ce		 mov	 ecx, esi
  00133	e8 00 00 00 00	 call	 ?ClearData@ioGrapplingSwing2Skill@@IAEXXZ ; ioGrapplingSwing2Skill::ClearData

; 14   : }

  00138	8b c6		 mov	 eax, esi
  0013a	e8 00 00 00 00	 call	 __EH_epilog3
  0013f	c3		 ret	 0
_TEXT	ENDS
;	COMDAT text$x
text$x	SEGMENT
__unwindfunclet$??0ioGrapplingSwing2Skill@@QAE@XZ$0:
  00000	8b 4d f0	 mov	 ecx, DWORD PTR _this$[ebp]
  00003	e9 00 00 00 00	 jmp	 ??1ioAttackSkill@@UAE@XZ ; ioAttackSkill::~ioAttackSkill
__unwindfunclet$??0ioGrapplingSwing2Skill@@QAE@XZ$1:
  00008	8b 4d f0	 mov	 ecx, DWORD PTR _this$[ebp]
  0000b	81 c1 ec 10 00
	00		 add	 ecx, 4332		; 000010ecH
  00011	ff 25 00 00 00
	00		 jmp	 DWORD PTR __imp_??1ioHashString@@QAE@XZ
__unwindfunclet$??0ioGrapplingSwing2Skill@@QAE@XZ$2:
  00017	8b 4d f0	 mov	 ecx, DWORD PTR _this$[ebp]
  0001a	81 c1 00 11 00
	00		 add	 ecx, 4352		; 00001100H
  00020	ff 25 00 00 00
	00		 jmp	 DWORD PTR __imp_??1ioHashString@@QAE@XZ
__unwindfunclet$??0ioGrapplingSwing2Skill@@QAE@XZ$3:
  00026	8b 4d f0	 mov	 ecx, DWORD PTR _this$[ebp]
  00029	81 c1 14 11 00
	00		 add	 ecx, 4372		; 00001114H
  0002f	ff 25 00 00 00
	00		 jmp	 DWORD PTR __imp_??1ioHashString@@QAE@XZ
__unwindfunclet$??0ioGrapplingSwing2Skill@@QAE@XZ$4:
  00035	8b 4d f0	 mov	 ecx, DWORD PTR _this$[ebp]
  00038	81 c1 38 11 00
	00		 add	 ecx, 4408		; 00001138H
  0003e	e9 00 00 00 00	 jmp	 ??1?$CEncrypt@M@@UAE@XZ	; CEncrypt<float>::~CEncrypt<float>
__unwindfunclet$??0ioGrapplingSwing2Skill@@QAE@XZ$5:
  00043	8b 4d f0	 mov	 ecx, DWORD PTR _this$[ebp]
  00046	81 c1 68 11 00
	00		 add	 ecx, 4456		; 00001168H
  0004c	ff 25 00 00 00
	00		 jmp	 DWORD PTR __imp_??1ioHashString@@QAE@XZ
__unwindfunclet$??0ioGrapplingSwing2Skill@@QAE@XZ$6:
  00052	8b 4d f0	 mov	 ecx, DWORD PTR _this$[ebp]
  00055	81 c1 80 11 00
	00		 add	 ecx, 4480		; 00001180H
  0005b	e9 00 00 00 00	 jmp	 ??1?$CEncrypt@M@@UAE@XZ	; CEncrypt<float>::~CEncrypt<float>
__unwindfunclet$??0ioGrapplingSwing2Skill@@QAE@XZ$7:
  00060	8b 4d f0	 mov	 ecx, DWORD PTR _this$[ebp]
  00063	81 c1 b0 11 00
	00		 add	 ecx, 4528		; 000011b0H
  00069	e9 00 00 00 00	 jmp	 ??1?$CEncrypt@K@@UAE@XZ	; CEncrypt<unsigned long>::~CEncrypt<unsigned long>
__unwindfunclet$??0ioGrapplingSwing2Skill@@QAE@XZ$8:
  0006e	8b 4d f0	 mov	 ecx, DWORD PTR _this$[ebp]
  00071	81 c1 f4 11 00
	00		 add	 ecx, 4596		; 000011f4H
  00077	ff 25 00 00 00
	00		 jmp	 DWORD PTR __imp_??1ioHashString@@QAE@XZ
__unwindfunclet$??0ioGrapplingSwing2Skill@@QAE@XZ$9:
  0007d	8b 4d f0	 mov	 ecx, DWORD PTR _this$[ebp]
  00080	81 c1 04 12 00
	00		 add	 ecx, 4612		; 00001204H
  00086	e9 00 00 00 00	 jmp	 ??1?$CEncrypt@M@@UAE@XZ	; CEncrypt<float>::~CEncrypt<float>
__unwindfunclet$??0ioGrapplingSwing2Skill@@QAE@XZ$10:
  0008b	8b 4d f0	 mov	 ecx, DWORD PTR _this$[ebp]
  0008e	81 c1 34 12 00
	00		 add	 ecx, 4660		; 00001234H
  00094	ff 25 00 00 00
	00		 jmp	 DWORD PTR __imp_??1ioHashString@@QAE@XZ
__unwindfunclet$??0ioGrapplingSwing2Skill@@QAE@XZ$11:
  0009a	8b 4d f0	 mov	 ecx, DWORD PTR _this$[ebp]
  0009d	81 c1 44 12 00
	00		 add	 ecx, 4676		; 00001244H
  000a3	e9 00 00 00 00	 jmp	 ??1?$CEncrypt@M@@UAE@XZ	; CEncrypt<float>::~CEncrypt<float>
__unwindfunclet$??0ioGrapplingSwing2Skill@@QAE@XZ$12:
  000a8	8b 4d f0	 mov	 ecx, DWORD PTR _this$[ebp]
  000ab	81 c1 74 12 00
	00		 add	 ecx, 4724		; 00001274H
  000b1	e9 00 00 00 00	 jmp	 ??1?$CEncrypt@K@@UAE@XZ	; CEncrypt<unsigned long>::~CEncrypt<unsigned long>
__unwindfunclet$??0ioGrapplingSwing2Skill@@QAE@XZ$13:
  000b6	8b 4d f0	 mov	 ecx, DWORD PTR _this$[ebp]
  000b9	81 c1 ac 12 00
	00		 add	 ecx, 4780		; 000012acH
  000bf	e9 00 00 00 00	 jmp	 ??1?$CEncrypt@_N@@UAE@XZ ; CEncrypt<bool>::~CEncrypt<bool>
__unwindfunclet$??0ioGrapplingSwing2Skill@@QAE@XZ$14:
  000c4	8b 4d f0	 mov	 ecx, DWORD PTR _this$[ebp]
  000c7	81 c1 dc 12 00
	00		 add	 ecx, 4828		; 000012dcH
  000cd	e9 00 00 00 00	 jmp	 ??1?$CEncrypt@M@@UAE@XZ	; CEncrypt<float>::~CEncrypt<float>
__unwindfunclet$??0ioGrapplingSwing2Skill@@QAE@XZ$15:
  000d2	8b 4d f0	 mov	 ecx, DWORD PTR _this$[ebp]
  000d5	81 c1 0c 13 00
	00		 add	 ecx, 4876		; 0000130cH
  000db	e9 00 00 00 00	 jmp	 ??1?$CEncrypt@K@@UAE@XZ	; CEncrypt<unsigned long>::~CEncrypt<unsigned long>
__unwindfunclet$??0ioGrapplingSwing2Skill@@QAE@XZ$16:
  000e0	8b 4d f0	 mov	 ecx, DWORD PTR _this$[ebp]
  000e3	81 c1 40 13 00
	00		 add	 ecx, 4928		; 00001340H
  000e9	e9 00 00 00 00	 jmp	 ??1?$CEncrypt@M@@UAE@XZ	; CEncrypt<float>::~CEncrypt<float>
__unwindfunclet$??0ioGrapplingSwing2Skill@@QAE@XZ$17:
  000ee	8b 4d f0	 mov	 ecx, DWORD PTR _this$[ebp]
  000f1	81 c1 70 13 00
	00		 add	 ecx, 4976		; 00001370H
  000f7	e9 00 00 00 00	 jmp	 ??1?$CEncrypt@K@@UAE@XZ	; CEncrypt<unsigned long>::~CEncrypt<unsigned long>
__unwindfunclet$??0ioGrapplingSwing2Skill@@QAE@XZ$18:
  000fc	8b 4d f0	 mov	 ecx, DWORD PTR _this$[ebp]
  000ff	81 c1 a4 13 00
	00		 add	 ecx, 5028		; 000013a4H
  00105	e9 00 00 00 00	 jmp	 ??1GrapplingSkillWoundedInfo@@QAE@XZ
__unwindfunclet$??0ioGrapplingSwing2Skill@@QAE@XZ$19:
  0010a	8b 4d f0	 mov	 ecx, DWORD PTR _this$[ebp]
  0010d	81 c1 00 14 00
	00		 add	 ecx, 5120		; 00001400H
  00113	e9 00 00 00 00	 jmp	 ??1GrapplingSkillWoundedInfo@@QAE@XZ
__ehhandler$??0ioGrapplingSwing2Skill@@QAE@XZ:
  00118	8b 54 24 08	 mov	 edx, DWORD PTR [esp+8]
  0011c	8d 42 0c	 lea	 eax, DWORD PTR [edx+12]
  0011f	8b 4a ec	 mov	 ecx, DWORD PTR [edx-20]
  00122	33 c8		 xor	 ecx, eax
  00124	e8 00 00 00 00	 call	 @__security_check_cookie@4
  00129	b8 00 00 00 00	 mov	 eax, OFFSET __ehfuncinfo$??0ioGrapplingSwing2Skill@@QAE@XZ
  0012e	e9 00 00 00 00	 jmp	 ___CxxFrameHandler3
text$x	ENDS
??0ioGrapplingSwing2Skill@@QAE@XZ ENDP			; ioGrapplingSwing2Skill::ioGrapplingSwing2Skill
; Function compile flags: /Ogsp
;	COMDAT ??_GioGrapplingSwing2Skill@@UAEPAXI@Z
_TEXT	SEGMENT
___flags$ = 8						; size = 4
??_GioGrapplingSwing2Skill@@UAEPAXI@Z PROC		; ioGrapplingSwing2Skill::`scalar deleting destructor', COMDAT
; _this$ = ecx
  00000	55		 push	 ebp
  00001	8b ec		 mov	 ebp, esp
  00003	56		 push	 esi
  00004	8b f1		 mov	 esi, ecx
  00006	e8 00 00 00 00	 call	 ??1ioGrapplingSwing2Skill@@UAE@XZ ; ioGrapplingSwing2Skill::~ioGrapplingSwing2Skill
  0000b	f6 45 08 01	 test	 BYTE PTR ___flags$[ebp], 1
  0000f	74 07		 je	 SHORT $LN1@scalar@6
  00011	56		 push	 esi
  00012	e8 00 00 00 00	 call	 ??3@YAXPAX@Z		; operator delete
  00017	59		 pop	 ecx
$LN1@scalar@6:
  00018	8b c6		 mov	 eax, esi
  0001a	5e		 pop	 esi
  0001b	5d		 pop	 ebp
  0001c	c2 04 00	 ret	 4
??_GioGrapplingSwing2Skill@@UAEPAXI@Z ENDP		; ioGrapplingSwing2Skill::`scalar deleting destructor'
_TEXT	ENDS
PUBLIC	_pChar$GSCopy$
PUBLIC	__$ArrayPad$
PUBLIC	?SetSkillEndState@ioGrapplingSwing2Skill@@IAEXPAVioBaseChar@@_N@Z ; ioGrapplingSwing2Skill::SetSkillEndState
EXTRN	?SetGrapplingWoundSwing@ioBaseChar@@QAEXABVioHashString@@UGrapplingSkillWoundedInfo@@0M@Z:PROC ; ioBaseChar::SetGrapplingWoundSwing
EXTRN	__imp_?GetAnimationFullTime@ioEntityGroup@@QAEMH@Z:PROC
EXTRN	__imp_?SetActionAni@ioEntityGroup@@QAE_NHMMMMMM_N0@Z:PROC
;	COMDAT xdata$x
; File d:\lost saga for developer\youtube\tutorial\source\src\lsclient\iobasechar.h
xdata$x	SEGMENT
__unwindtable$?SetSkillEndState@ioGrapplingSwing2Skill@@IAEXPAVioBaseChar@@_N@Z DD 0ffffffffH
	DD	FLAT:__unwindfunclet$?SetSkillEndState@ioGrapplingSwing2Skill@@IAEXPAVioBaseChar@@_N@Z$2
	DD	0ffffffffH
	DD	FLAT:__unwindfunclet$?SetSkillEndState@ioGrapplingSwing2Skill@@IAEXPAVioBaseChar@@_N@Z$3
	DD	0ffffffffH
	DD	FLAT:__unwindfunclet$?SetSkillEndState@ioGrapplingSwing2Skill@@IAEXPAVioBaseChar@@_N@Z$0
__ehfuncinfo$?SetSkillEndState@ioGrapplingSwing2Skill@@IAEXPAVioBaseChar@@_N@Z DD 019930522H
	DD	03H
	DD	FLAT:__unwindtable$?SetSkillEndState@ioGrapplingSwing2Skill@@IAEXPAVioBaseChar@@_N@Z
	DD	2 DUP(00H)
	DD	2 DUP(00H)
	DD	00H
	DD	01H
; Function compile flags: /Ogsp
; File d:\lost saga for developer\youtube\tutorial\source\src\lsclient\iograpplingswing2skill.cpp
xdata$x	ENDS
;	COMDAT ?SetSkillEndState@ioGrapplingSwing2Skill@@IAEXPAVioBaseChar@@_N@Z
_TEXT	SEGMENT
_pChar$GSCopy$ = -32872					; size = 4
_pGrp$ = -32868						; size = 4
_fAniRate$ = -32864					; size = 4
_iAniID$ = -32860					; size = 4
tv2186 = -32856						; size = 4
tv2183 = -32856						; size = 4
tv2181 = -32856						; size = 4
tv2136 = -32856						; size = 4
_bAttackerNPC$ = -32850					; size = 1
_bNPC$ = -32849						; size = 1
tv2207 = -32848						; size = 4
tv2202 = -32848						; size = 4
tv2197 = -32848						; size = 4
tv2179 = -32848						; size = 4
tv2177 = -32848						; size = 4
tv2158 = -32848						; size = 4
tv2148 = -32848						; size = 4
$T546747 = -32848					; size = 4
$T546621 = -32848					; size = 4
_value$546575 = -32848					; size = 4
$T546568 = -32848					; size = 4
$T546539 = -32848					; size = 4
_kPacket$533051 = -32844				; size = 32792
$T546749 = -52						; size = 16
_szEncEventType$546595 = -52				; size = 13
_szEncEventType$546743 = -32				; size = 12
$T546623 = -32						; size = 16
__$ArrayPad$ = -16					; size = 4
__$EHRec$ = -12						; size = 12
_pChar$ = 8						; size = 4
_bSendNet$ = 12						; size = 1
?SetSkillEndState@ioGrapplingSwing2Skill@@IAEXPAVioBaseChar@@_N@Z PROC ; ioGrapplingSwing2Skill::SetSkillEndState, COMDAT
; _this$ = ecx

; 446  : {

  00000	55		 push	 ebp
  00001	8b ec		 mov	 ebp, esp
  00003	6a ff		 push	 -1
  00005	68 00 00 00 00	 push	 __ehhandler$?SetSkillEndState@ioGrapplingSwing2Skill@@IAEXPAVioBaseChar@@_N@Z
  0000a	64 a1 00 00 00
	00		 mov	 eax, DWORD PTR fs:0
  00010	50		 push	 eax
  00011	b8 5c 80 00 00	 mov	 eax, 32860		; 0000805cH
  00016	e8 00 00 00 00	 call	 __chkstk
  0001b	a1 00 00 00 00	 mov	 eax, DWORD PTR ___security_cookie
  00020	33 c5		 xor	 eax, ebp
  00022	89 45 f0	 mov	 DWORD PTR __$ArrayPad$[ebp], eax
  00025	53		 push	 ebx
  00026	56		 push	 esi
  00027	57		 push	 edi
  00028	50		 push	 eax
  00029	8d 45 f4	 lea	 eax, DWORD PTR __$EHRec$[ebp]
  0002c	64 a3 00 00 00
	00		 mov	 DWORD PTR fs:0, eax
  00032	8b 45 08	 mov	 eax, DWORD PTR _pChar$[ebp]
  00035	8b f1		 mov	 esi, ecx

; 468  : 	m_dwFireMotionEndTime += pGrp->GetAnimationEventTime_e( iAniID, "firemotion_e" ) * fAniRate;

  00037	89 85 98 7f ff
	ff		 mov	 DWORD PTR _pChar$GSCopy$[ebp], eax
  0003d	85 c0		 test	 eax, eax
  0003f	0f 84 94 04 00
	00		 je	 $LN1@SetSkillEn

; 447  : 	if( !pChar ) return;
; 448  : 
; 449  : 	ioEntityGroup *pGrp = pChar->GetGroup();

  00045	8b 78 04	 mov	 edi, DWORD PTR [eax+4]
  00048	89 bd 9c 7f ff
	ff		 mov	 DWORD PTR _pGrp$[ebp], edi

; 450  : 	if( !pGrp ) return;

  0004e	85 ff		 test	 edi, edi
  00050	0f 84 83 04 00
	00		 je	 $LN1@SetSkillEn

; 451  : 
; 452  : 	DWORD dwCurTime = FRAMEGETTIME();

  00056	ff 15 00 00 00
	00		 call	 DWORD PTR __imp_?GetSingleton@ioFrameTimer@@SAAAV1@XZ
  0005c	8b c8		 mov	 ecx, eax
  0005e	ff 15 00 00 00
	00		 call	 DWORD PTR __imp_?GetLoopSec@ioFrameTimer@@QBEKXZ
  00064	8b d8		 mov	 ebx, eax

; 453  : 
; 454  : 	pGrp->ClearAllActionAni( FLOAT100, true );

  00066	b8 64 00 00 00	 mov	 eax, 100		; 00000064H
  0006b	89 85 b0 7f ff
	ff		 mov	 DWORD PTR tv2207[ebp], eax
  00071	db 85 b0 7f ff
	ff		 fild	 DWORD PTR tv2207[ebp]
  00077	6a 01		 push	 1
  00079	85 c0		 test	 eax, eax
  0007b	79 06		 jns	 SHORT $LN273@SetSkillEn
  0007d	d8 05 00 00 00
	00		 fadd	 DWORD PTR __real@4f800000
$LN273@SetSkillEn:
  00083	51		 push	 ecx
  00084	8b cf		 mov	 ecx, edi
  00086	d9 1c 24	 fstp	 DWORD PTR [esp]
  00089	ff 15 00 00 00
	00		 call	 DWORD PTR __imp_?ClearAllActionAni@ioEntityGroup@@QAEXM_N@Z

; 455  : 	pGrp->ClearAllLoopAni( FLOAT100, true );

  0008f	b8 64 00 00 00	 mov	 eax, 100		; 00000064H
  00094	89 85 b0 7f ff
	ff		 mov	 DWORD PTR tv2202[ebp], eax
  0009a	db 85 b0 7f ff
	ff		 fild	 DWORD PTR tv2202[ebp]
  000a0	6a 01		 push	 1
  000a2	85 c0		 test	 eax, eax
  000a4	79 06		 jns	 SHORT $LN274@SetSkillEn
  000a6	d8 05 00 00 00
	00		 fadd	 DWORD PTR __real@4f800000
$LN274@SetSkillEn:
  000ac	51		 push	 ecx
  000ad	8b cf		 mov	 ecx, edi
  000af	d9 1c 24	 fstp	 DWORD PTR [esp]
  000b2	ff 15 00 00 00
	00		 call	 DWORD PTR __imp_?ClearAllLoopAni@ioEntityGroup@@QAEXM_N@Z

; 456  : 
; 457  : 	float fAniRate = FLOAT1;

  000b8	b8 01 00 00 00	 mov	 eax, 1
  000bd	89 85 b0 7f ff
	ff		 mov	 DWORD PTR tv2197[ebp], eax
  000c3	db 85 b0 7f ff
	ff		 fild	 DWORD PTR tv2197[ebp]
  000c9	85 c0		 test	 eax, eax
  000cb	79 06		 jns	 SHORT $LN275@SetSkillEn
  000cd	d8 05 00 00 00
	00		 fadd	 DWORD PTR __real@4f800000
$LN275@SetSkillEn:

; 458  : 	if( m_fSkillSwingMotionRate > 0.0f )

  000d3	f3 0f 10 86 10
	11 00 00	 movss	 xmm0, DWORD PTR [esi+4368]
  000db	d9 9d a0 7f ff
	ff		 fstp	 DWORD PTR _fAniRate$[ebp]
  000e1	0f 2f 05 00 00
	00 00		 comiss	 xmm0, DWORD PTR __real@00000000
  000e8	76 08		 jbe	 SHORT $LN9@SetSkillEn

; 459  : 		fAniRate = m_fSkillSwingMotionRate;

  000ea	f3 0f 11 85 a0
	7f ff ff	 movss	 DWORD PTR _fAniRate$[ebp], xmm0
$LN9@SetSkillEn:

; 460  : 
; 461  : 	int iAniID = pGrp->GetAnimationIdx( m_SkillSwingMotion );

  000f2	8d 86 00 11 00
	00		 lea	 eax, DWORD PTR [esi+4352]
  000f8	50		 push	 eax
  000f9	8b cf		 mov	 ecx, edi
  000fb	ff 15 00 00 00
	00		 call	 DWORD PTR __imp_?GetAnimationIdx@ioEntityGroup@@QAEHABVioHashString@@@Z
  00101	89 85 a4 7f ff
	ff		 mov	 DWORD PTR _iAniID$[ebp], eax

; 462  : 	pGrp->SetActionAni( iAniID, FLOAT100, FLOAT100, FLOAT1, FLOAT1/fAniRate );

  00107	b8 01 00 00 00	 mov	 eax, 1
  0010c	8b c8		 mov	 ecx, eax
  0010e	b8 01 00 00 00	 mov	 eax, 1
  00113	8b d0		 mov	 edx, eax
  00115	b8 64 00 00 00	 mov	 eax, 100		; 00000064H
  0011a	89 85 b0 7f ff
	ff		 mov	 DWORD PTR $T546568[ebp], eax
  00120	b8 64 00 00 00	 mov	 eax, 100		; 00000064H
  00125	0f 57 c0	 xorps	 xmm0, xmm0
  00128	6a 01		 push	 1
  0012a	6a 00		 push	 0
  0012c	83 ec 18	 sub	 esp, 24			; 00000018H
  0012f	89 8d a8 7f ff
	ff		 mov	 DWORD PTR tv2186[ebp], ecx
  00135	db 85 a8 7f ff
	ff		 fild	 DWORD PTR tv2186[ebp]
  0013b	f3 0f 11 44 24
	14		 movss	 DWORD PTR [esp+20], xmm0
  00141	f3 0f 11 44 24
	10		 movss	 DWORD PTR [esp+16], xmm0
  00147	85 c9		 test	 ecx, ecx
  00149	79 06		 jns	 SHORT $LN276@SetSkillEn
  0014b	d8 05 00 00 00
	00		 fadd	 DWORD PTR __real@4f800000
$LN276@SetSkillEn:
  00151	d8 b5 a0 7f ff
	ff		 fdiv	 DWORD PTR _fAniRate$[ebp]
  00157	d9 9d a8 7f ff
	ff		 fstp	 DWORD PTR tv2183[ebp]
  0015d	d9 85 a8 7f ff
	ff		 fld	 DWORD PTR tv2183[ebp]
  00163	d9 5c 24 0c	 fstp	 DWORD PTR [esp+12]
  00167	89 95 a8 7f ff
	ff		 mov	 DWORD PTR tv2181[ebp], edx
  0016d	db 85 a8 7f ff
	ff		 fild	 DWORD PTR tv2181[ebp]
  00173	85 d2		 test	 edx, edx
  00175	79 06		 jns	 SHORT $LN277@SetSkillEn
  00177	d8 05 00 00 00
	00		 fadd	 DWORD PTR __real@4f800000
$LN277@SetSkillEn:
  0017d	8b 8d b0 7f ff
	ff		 mov	 ecx, DWORD PTR $T546568[ebp]
  00183	d9 5c 24 08	 fstp	 DWORD PTR [esp+8]
  00187	db 85 b0 7f ff
	ff		 fild	 DWORD PTR $T546568[ebp]
  0018d	85 c9		 test	 ecx, ecx
  0018f	79 06		 jns	 SHORT $LN278@SetSkillEn
  00191	d8 05 00 00 00
	00		 fadd	 DWORD PTR __real@4f800000
$LN278@SetSkillEn:
  00197	d9 5c 24 04	 fstp	 DWORD PTR [esp+4]
  0019b	89 85 b0 7f ff
	ff		 mov	 DWORD PTR tv2177[ebp], eax
  001a1	db 85 b0 7f ff
	ff		 fild	 DWORD PTR tv2177[ebp]
  001a7	85 c0		 test	 eax, eax
  001a9	79 06		 jns	 SHORT $LN279@SetSkillEn
  001ab	d8 05 00 00 00
	00		 fadd	 DWORD PTR __real@4f800000
$LN279@SetSkillEn:
  001b1	d9 1c 24	 fstp	 DWORD PTR [esp]
  001b4	ff b5 a4 7f ff
	ff		 push	 DWORD PTR _iAniID$[ebp]
  001ba	8b cf		 mov	 ecx, edi
  001bc	ff 15 00 00 00
	00		 call	 DWORD PTR __imp_?SetActionAni@ioEntityGroup@@QAE_NHMMMMMM_N0@Z

; 463  : 
; 464  : 	m_dwMotionStartTime = m_dwMotionEndTime = dwCurTime;

  001c2	8d 85 b0 7f ff
	ff		 lea	 eax, DWORD PTR _value$546575[ebp]
  001c8	50		 push	 eax
  001c9	8d 8e a8 02 00
	00		 lea	 ecx, DWORD PTR [esi+680]
  001cf	89 9e d8 02 00
	00		 mov	 DWORD PTR [esi+728], ebx
  001d5	89 9d b0 7f ff
	ff		 mov	 DWORD PTR _value$546575[ebp], ebx
  001db	e8 00 00 00 00	 call	 ?EncryptValueToPool@?$CEncrypt@K@@AAEXPBD@Z ; CEncrypt<unsigned long>::EncryptValueToPool

; 465  : 	m_dwMotionEndTime += pGrp->GetAnimationFullTime( iAniID ) * fAniRate;

  001e0	ff b5 a4 7f ff
	ff		 push	 DWORD PTR _iAniID$[ebp]
  001e6	8b cf		 mov	 ecx, edi
  001e8	ff 15 00 00 00
	00		 call	 DWORD PTR __imp_?GetAnimationFullTime@ioEntityGroup@@QAEMH@Z
  001ee	d8 8d a0 7f ff
	ff		 fmul	 DWORD PTR _fAniRate$[ebp]
  001f4	8b 86 d8 02 00
	00		 mov	 eax, DWORD PTR [esi+728]
  001fa	db 86 d8 02 00
	00		 fild	 DWORD PTR [esi+728]
  00200	85 c0		 test	 eax, eax
  00202	79 06		 jns	 SHORT $LN280@SetSkillEn
  00204	dc 05 00 00 00
	00		 fadd	 QWORD PTR __real@41f0000000000000
$LN280@SetSkillEn:
  0020a	de c1		 faddp	 ST(1), ST(0)
  0020c	e8 00 00 00 00	 call	 __ftol2
  00211	6a 03		 push	 3
  00213	89 86 d8 02 00
	00		 mov	 DWORD PTR [esi+728], eax

; 466  : 
; 467  : 	m_dwFireMotionEndTime = dwCurTime;

  00219	89 9e 24 02 00
	00		 mov	 DWORD PTR [esi+548], ebx

; 468  : 	m_dwFireMotionEndTime += pGrp->GetAnimationEventTime_e( iAniID, "firemotion_e" ) * fAniRate;

  0021f	c7 45 cc 8b 85
	99 8f		 mov	 DWORD PTR _szEncEventType$546595[ebp], -1885764213 ; 8f99858bH
  00226	c7 45 d0 80 83
	9f 83		 mov	 DWORD PTR _szEncEventType$546595[ebp+4], -2086698112 ; 839f8380H
  0022d	c7 45 d4 82 82
	b4 8f		 mov	 DWORD PTR _szEncEventType$546595[ebp+8], -1883995518 ; 8fb48282H
  00234	8d 45 cc	 lea	 eax, DWORD PTR _szEncEventType$546595[ebp]
  00237	c6 45 d8 00	 mov	 BYTE PTR _szEncEventType$546595[ebp+12], 0
  0023b	59		 pop	 ecx
$LL138@SetSkillEn:
  0023c	81 30 ed ec eb
	ea		 xor	 DWORD PTR [eax], -353637139 ; eaebecedH
  00242	83 c0 04	 add	 eax, 4
  00245	49		 dec	 ecx
  00246	75 f4		 jne	 SHORT $LL138@SetSkillEn
  00248	8d 45 cc	 lea	 eax, DWORD PTR _szEncEventType$546595[ebp]
  0024b	50		 push	 eax
  0024c	8d 4d e0	 lea	 ecx, DWORD PTR $T546623[ebp]
  0024f	ff 15 00 00 00
	00		 call	 DWORD PTR __imp_??0ioHashString@@QAE@PBD@Z
  00255	8b 8d 9c 7f ff
	ff		 mov	 ecx, DWORD PTR _pGrp$[ebp]
  0025b	83 65 fc 00	 and	 DWORD PTR __$EHRec$[ebp+8], 0
  0025f	8d 45 e0	 lea	 eax, DWORD PTR $T546623[ebp]
  00262	50		 push	 eax
  00263	ff b5 a4 7f ff
	ff		 push	 DWORD PTR _iAniID$[ebp]
  00269	ff 15 00 00 00
	00		 call	 DWORD PTR __imp_?GetAnimationEventTime@ioEntityGroup@@QAEMHABVioHashString@@@Z
  0026f	d9 9d b0 7f ff
	ff		 fstp	 DWORD PTR $T546621[ebp]
  00275	83 4d fc ff	 or	 DWORD PTR __$EHRec$[ebp+8], -1
  00279	8d 4d e0	 lea	 ecx, DWORD PTR $T546623[ebp]
  0027c	ff 15 00 00 00
	00		 call	 DWORD PTR __imp_??1ioHashString@@QAE@XZ
  00282	d9 85 b0 7f ff
	ff		 fld	 DWORD PTR $T546621[ebp]
  00288	8b 86 24 02 00
	00		 mov	 eax, DWORD PTR [esi+548]
  0028e	d8 8d a0 7f ff
	ff		 fmul	 DWORD PTR _fAniRate$[ebp]
  00294	db 86 24 02 00
	00		 fild	 DWORD PTR [esi+548]
  0029a	85 c0		 test	 eax, eax
  0029c	79 06		 jns	 SHORT $LN281@SetSkillEn
  0029e	dc 05 00 00 00
	00		 fadd	 QWORD PTR __real@41f0000000000000
$LN281@SetSkillEn:
  002a4	de c1		 faddp	 ST(1), ST(0)
  002a6	e8 00 00 00 00	 call	 __ftol2
  002ab	6a 02		 push	 2

; 469  : 
; 470  : 	// Key Reserve
; 471  : 	m_dwEnableReserveTime = dwCurTime;

  002ad	89 9e dc 02 00
	00		 mov	 DWORD PTR [esi+732], ebx
  002b3	5b		 pop	 ebx
  002b4	89 86 24 02 00
	00		 mov	 DWORD PTR [esi+548], eax

; 472  : 	m_dwEnableReserveTime += pGrp->GetAnimationEventTime_e( iAniID, "key_reserve" );

  002ba	c7 45 e0 86 89
	92 b5		 mov	 DWORD PTR _szEncEventType$546743[ebp], -1248687738 ; b5928986H
  002c1	c7 45 e4 9f 89
	98 8f		 mov	 DWORD PTR _szEncEventType$546743[ebp+4], -1885828705 ; 8f98899fH
  002c8	8d 45 e0	 lea	 eax, DWORD PTR _szEncEventType$546743[ebp]
  002cb	c7 45 e8 9f 9a
	8e 00		 mov	 DWORD PTR _szEncEventType$546743[ebp+8], 9345695 ; 008e9a9fH
  002d2	8b cb		 mov	 ecx, ebx
$LL245@SetSkillEn:
  002d4	81 30 ed ec eb
	ea		 xor	 DWORD PTR [eax], -353637139 ; eaebecedH
  002da	83 c0 04	 add	 eax, 4
  002dd	49		 dec	 ecx
  002de	75 f4		 jne	 SHORT $LL245@SetSkillEn
  002e0	6a 08		 push	 8
  002e2	58		 pop	 eax
$LL242@SetSkillEn:
  002e3	8b c8		 mov	 ecx, eax
  002e5	81 e1 03 00 00
	80		 and	 ecx, -2147483645	; 80000003H
  002eb	79 05		 jns	 SHORT $LN282@SetSkillEn
  002ed	49		 dec	 ecx
  002ee	83 c9 fc	 or	 ecx, -4			; fffffffcH
  002f1	41		 inc	 ecx
$LN282@SetSkillEn:
  002f2	b2 ed		 mov	 dl, -19			; ffffffedH
  002f4	2a d1		 sub	 dl, cl
  002f6	30 54 05 e0	 xor	 BYTE PTR _szEncEventType$546743[ebp+eax], dl
  002fa	40		 inc	 eax
  002fb	83 f8 0b	 cmp	 eax, 11			; 0000000bH
  002fe	7c e3		 jl	 SHORT $LL242@SetSkillEn
  00300	8d 45 e0	 lea	 eax, DWORD PTR _szEncEventType$546743[ebp]
  00303	50		 push	 eax
  00304	8d 4d cc	 lea	 ecx, DWORD PTR $T546749[ebp]
  00307	ff 15 00 00 00
	00		 call	 DWORD PTR __imp_??0ioHashString@@QAE@PBD@Z
  0030d	8b 8d 9c 7f ff
	ff		 mov	 ecx, DWORD PTR _pGrp$[ebp]
  00313	8d 45 cc	 lea	 eax, DWORD PTR $T546749[ebp]
  00316	50		 push	 eax
  00317	ff b5 a4 7f ff
	ff		 push	 DWORD PTR _iAniID$[ebp]
  0031d	c7 45 fc 01 00
	00 00		 mov	 DWORD PTR __$EHRec$[ebp+8], 1
  00324	ff 15 00 00 00
	00		 call	 DWORD PTR __imp_?GetAnimationEventTime@ioEntityGroup@@QAEMHABVioHashString@@@Z
  0032a	d9 9d b0 7f ff
	ff		 fstp	 DWORD PTR $T546747[ebp]
  00330	83 4d fc ff	 or	 DWORD PTR __$EHRec$[ebp+8], -1
  00334	8d 4d cc	 lea	 ecx, DWORD PTR $T546749[ebp]
  00337	ff 15 00 00 00
	00		 call	 DWORD PTR __imp_??1ioHashString@@QAE@XZ
  0033d	db 86 dc 02 00
	00		 fild	 DWORD PTR [esi+732]
  00343	8b 86 dc 02 00
	00		 mov	 eax, DWORD PTR [esi+732]
  00349	85 c0		 test	 eax, eax
  0034b	79 06		 jns	 SHORT $LN283@SetSkillEn
  0034d	d8 05 00 00 00
	00		 fadd	 DWORD PTR __real@4f800000
$LN283@SetSkillEn:
  00353	d8 85 b0 7f ff
	ff		 fadd	 DWORD PTR $T546747[ebp]
  00359	e8 00 00 00 00	 call	 __ftol2

; 473  : 
; 474  : 	m_SkillState = SS_END;
; 475  : 
; 476  : 	if( bSendNet && pChar->IsNeedSendNetwork() )

  0035e	80 7d 0c 00	 cmp	 BYTE PTR _bSendNet$[ebp], 0
  00362	8b bd 98 7f ff
	ff		 mov	 edi, DWORD PTR _pChar$GSCopy$[ebp]
  00368	89 86 dc 02 00
	00		 mov	 DWORD PTR [esi+732], eax
  0036e	c7 86 e4 10 00
	00 05 00 00 00	 mov	 DWORD PTR [esi+4324], 5
  00378	0f 84 80 00 00
	00		 je	 $LN8@SetSkillEn
  0037e	8b 07		 mov	 eax, DWORD PTR [edi]
  00380	8b cf		 mov	 ecx, edi
  00382	ff 90 04 01 00
	00		 call	 DWORD PTR [eax+260]
  00388	84 c0		 test	 al, al
  0038a	74 72		 je	 SHORT $LN8@SetSkillEn

; 477  : 	{
; 478  : 		SP2Packet kPacket( CUPK_SKILL_EXTRA_INFO );

  0038c	68 39 41 00 00	 push	 16697			; 00004139H
  00391	8d 8d b4 7f ff
	ff		 lea	 ecx, DWORD PTR _kPacket$533051[ebp]
  00397	e8 00 00 00 00	 call	 ??0SP2Packet@@QAE@K@Z	; SP2Packet::SP2Packet

; 479  : 		kPacket << pChar->GetCharName();

  0039c	8d 87 d4 02 00
	00		 lea	 eax, DWORD PTR [edi+724]
  003a2	50		 push	 eax
  003a3	8d 8d b4 7f ff
	ff		 lea	 ecx, DWORD PTR _kPacket$533051[ebp]
  003a9	89 5d fc	 mov	 DWORD PTR __$EHRec$[ebp+8], ebx
  003ac	e8 00 00 00 00	 call	 ??6SP2Packet@@QAEAAV0@ABVioHashString@@@Z ; SP2Packet::operator<<

; 480  : 		kPacket << GetName();

  003b1	8d 46 24	 lea	 eax, DWORD PTR [esi+36]
  003b4	50		 push	 eax
  003b5	8d 8d b4 7f ff
	ff		 lea	 ecx, DWORD PTR _kPacket$533051[ebp]
  003bb	e8 00 00 00 00	 call	 ??6SP2Packet@@QAEAAV0@ABVioHashString@@@Z ; SP2Packet::operator<<

; 481  : 		kPacket << SSC_END;

  003c0	6a 03		 push	 3
  003c2	8d 8d b4 7f ff
	ff		 lea	 ecx, DWORD PTR _kPacket$533051[ebp]
  003c8	e8 00 00 00 00	 call	 ??6SP2Packet@@QAEAAV0@H@Z ; SP2Packet::operator<<

; 482  : 		kPacket << pChar->GetTargetRot();

  003cd	8d 87 a4 06 00
	00		 lea	 eax, DWORD PTR [edi+1700]
  003d3	50		 push	 eax
  003d4	8d 8d b4 7f ff
	ff		 lea	 ecx, DWORD PTR _kPacket$533051[ebp]
  003da	e8 00 00 00 00	 call	 ??6SP2Packet@@QAEAAV0@ABUD3DXQUATERNION@@@Z ; SP2Packet::operator<<

; 483  : 		P2PNetwork::SendToAllPlayingUser( kPacket );

  003df	8d 85 b4 7f ff
	ff		 lea	 eax, DWORD PTR _kPacket$533051[ebp]
  003e5	6a 00		 push	 0
  003e7	50		 push	 eax
  003e8	e8 00 00 00 00	 call	 ?SendToAllPlayingUser@P2PNetwork@@YAXAAVSP2Packet@@PAVioBaseChar@@@Z ; P2PNetwork::SendToAllPlayingUser

; 484  : 	}

  003ed	83 4d fc ff	 or	 DWORD PTR __$EHRec$[ebp+8], -1
  003f1	59		 pop	 ecx
  003f2	59		 pop	 ecx
  003f3	8d 8d b4 7f ff
	ff		 lea	 ecx, DWORD PTR _kPacket$533051[ebp]
  003f9	e8 00 00 00 00	 call	 ??1SP2Packet@@UAE@XZ	; SP2Packet::~SP2Packet
$LN8@SetSkillEn:

; 485  : 
; 486  : 
; 487  : 	ioBaseChar *pTarget = pChar->GetBaseChar( m_GrapplingTargetName );

  003fe	8d 86 68 11 00
	00		 lea	 eax, DWORD PTR [esi+4456]
  00404	50		 push	 eax
  00405	8b cf		 mov	 ecx, edi
  00407	e8 00 00 00 00	 call	 ?GetBaseChar@ioBaseChar@@QAEPAV1@ABVioHashString@@@Z ; ioBaseChar::GetBaseChar
  0040c	8b d8		 mov	 ebx, eax

; 488  : 	if( !pTarget ) return;

  0040e	85 db		 test	 ebx, ebx
  00410	0f 84 c3 00 00
	00		 je	 $LN1@SetSkillEn

; 489  : 	CheckTeam( pChar, pTarget );

  00416	53		 push	 ebx
  00417	57		 push	 edi
  00418	8b ce		 mov	 ecx, esi
  0041a	e8 00 00 00 00	 call	 ?CheckTeam@ioGrapplingSwing2Skill@@IAEXPAVioBaseChar@@0@Z ; ioGrapplingSwing2Skill::CheckTeam

; 490  : 	// for NPC
; 491  : 	bool bNPC = false;
; 492  : 	bool bAttackerNPC = false;
; 493  : 	if( ToNpcChar( pTarget ) )

  0041f	53		 push	 ebx
  00420	c6 85 af 7f ff
	ff 00		 mov	 BYTE PTR _bNPC$[ebp], 0
  00427	c6 85 ae 7f ff
	ff 00		 mov	 BYTE PTR _bAttackerNPC$[ebp], 0
  0042e	e8 00 00 00 00	 call	 ?ToNpcChar@@YAPAVioNpcChar@@PAVioGameEntity@@@Z ; ToNpcChar
  00433	59		 pop	 ecx
  00434	85 c0		 test	 eax, eax
  00436	74 07		 je	 SHORT $LN6@SetSkillEn

; 494  : 	{
; 495  : 		bNPC = true;

  00438	c6 85 af 7f ff
	ff 01		 mov	 BYTE PTR _bNPC$[ebp], 1
$LN6@SetSkillEn:

; 496  : 	}
; 497  : 
; 498  : 	if( ToNpcChar( pChar ) )

  0043f	57		 push	 edi
  00440	e8 00 00 00 00	 call	 ?ToNpcChar@@YAPAVioNpcChar@@PAVioGameEntity@@@Z ; ToNpcChar
  00445	59		 pop	 ecx
  00446	85 c0		 test	 eax, eax
  00448	74 07		 je	 SHORT $LN5@SetSkillEn

; 499  : 	{
; 500  : 		bAttackerNPC = true;

  0044a	c6 85 ae 7f ff
	ff 01		 mov	 BYTE PTR _bAttackerNPC$[ebp], 1
$LN5@SetSkillEn:

; 501  : 	}
; 502  : 
; 503  : 	// local or  or NPC
; 504  : 	if( !P2PNetwork::IsNetworkPlaying() || !pChar->GetCreator()->IsNetworkMode() || (bNPC || bAttackerNPC) )

  00451	e8 00 00 00 00	 call	 ?IsNetworkPlaying@P2PNetwork@@YA_NXZ ; P2PNetwork::IsNetworkPlaying
  00456	84 c0		 test	 al, al
  00458	74 21		 je	 SHORT $LN2@SetSkillEn
  0045a	8b 8f 44 03 00
	00		 mov	 ecx, DWORD PTR [edi+836]
  00460	e8 00 00 00 00	 call	 ?IsNetworkMode@ioPlayStage@@QAE_NXZ ; ioPlayStage::IsNetworkMode
  00465	84 c0		 test	 al, al
  00467	74 12		 je	 SHORT $LN2@SetSkillEn
  00469	80 bd af 7f ff
	ff 00		 cmp	 BYTE PTR _bNPC$[ebp], 0
  00470	75 09		 jne	 SHORT $LN2@SetSkillEn
  00472	80 bd ae 7f ff
	ff 00		 cmp	 BYTE PTR _bAttackerNPC$[ebp], 0
  00479	74 5e		 je	 SHORT $LN1@SetSkillEn
$LN2@SetSkillEn:

; 505  : 	{
; 506  : 		if( pTarget->GetState() == CS_GRAPPLING_WOUNDED_SKILL && pTarget->IsNeedProcess() )

  0047b	80 bb 10 03 00
	00 43		 cmp	 BYTE PTR [ebx+784], 67	; 00000043H
  00482	75 55		 jne	 SHORT $LN1@SetSkillEn
  00484	8b 03		 mov	 eax, DWORD PTR [ebx]
  00486	8b cb		 mov	 ecx, ebx
  00488	ff 90 00 01 00
	00		 call	 DWORD PTR [eax+256]
  0048e	84 c0		 test	 al, al
  00490	74 47		 je	 SHORT $LN1@SetSkillEn

; 507  : 		{
; 508  : 			pTarget->SetTargetRotToRotate( pChar->GetTargetRot(), true, false );

  00492	6a 00		 push	 0
  00494	6a 01		 push	 1
  00496	8d 87 a4 06 00
	00		 lea	 eax, DWORD PTR [edi+1700]
  0049c	50		 push	 eax
  0049d	8b cb		 mov	 ecx, ebx
  0049f	e8 00 00 00 00	 call	 ?SetTargetRotToRotate@ioBaseChar@@QAEXABUD3DXQUATERNION@@_N1@Z ; ioBaseChar::SetTargetRotToRotate

; 509  : 			pTarget->SetGrapplingWoundSwing( pChar->GetCharName(), GetSkillWoundGrapplingInfo(),
; 510  : 				m_SkillSwingedMotion, m_fSkillSwingedMotionRate );

  004a4	d9 86 24 11 00
	00		 fld	 DWORD PTR [esi+4388]
  004aa	51		 push	 ecx
  004ab	d9 1c 24	 fstp	 DWORD PTR [esp]
  004ae	8d 86 14 11 00
	00		 lea	 eax, DWORD PTR [esi+4372]
  004b4	50		 push	 eax
  004b5	8b 06		 mov	 eax, DWORD PTR [esi]
  004b7	83 ec 5c	 sub	 esp, 92			; 0000005cH
  004ba	8b cc		 mov	 ecx, esp
  004bc	89 a5 b0 7f ff
	ff		 mov	 DWORD PTR $T546539[ebp], esp
  004c2	51		 push	 ecx
  004c3	8b ce		 mov	 ecx, esi
  004c5	ff 90 a4 00 00
	00		 call	 DWORD PTR [eax+164]
  004cb	81 c7 d4 02 00
	00		 add	 edi, 724		; 000002d4H
  004d1	57		 push	 edi
  004d2	8b cb		 mov	 ecx, ebx
  004d4	e8 00 00 00 00	 call	 ?SetGrapplingWoundSwing@ioBaseChar@@QAEXABVioHashString@@UGrapplingSkillWoundedInfo@@0M@Z ; ioBaseChar::SetGrapplingWoundSwing
$LN1@SetSkillEn:

; 511  : 		}
; 512  : 	}
; 513  : }

  004d9	8b 4d f4	 mov	 ecx, DWORD PTR __$EHRec$[ebp]
  004dc	64 89 0d 00 00
	00 00		 mov	 DWORD PTR fs:0, ecx
  004e3	59		 pop	 ecx
  004e4	5f		 pop	 edi
  004e5	5e		 pop	 esi
  004e6	5b		 pop	 ebx
  004e7	8b 4d f0	 mov	 ecx, DWORD PTR __$ArrayPad$[ebp]
  004ea	33 cd		 xor	 ecx, ebp
  004ec	e8 00 00 00 00	 call	 @__security_check_cookie@4
  004f1	c9		 leave
  004f2	c2 08 00	 ret	 8
_TEXT	ENDS
;	COMDAT text$x
text$x	SEGMENT
__unwindfunclet$?SetSkillEndState@ioGrapplingSwing2Skill@@IAEXPAVioBaseChar@@_N@Z$2:
  00000	8d 4d e0	 lea	 ecx, DWORD PTR $T546623[ebp]
  00003	ff 25 00 00 00
	00		 jmp	 DWORD PTR __imp_??1ioHashString@@QAE@XZ
__unwindfunclet$?SetSkillEndState@ioGrapplingSwing2Skill@@IAEXPAVioBaseChar@@_N@Z$3:
  00009	8d 4d cc	 lea	 ecx, DWORD PTR $T546749[ebp]
  0000c	ff 25 00 00 00
	00		 jmp	 DWORD PTR __imp_??1ioHashString@@QAE@XZ
__unwindfunclet$?SetSkillEndState@ioGrapplingSwing2Skill@@IAEXPAVioBaseChar@@_N@Z$0:
  00012	8d 8d b4 7f ff
	ff		 lea	 ecx, DWORD PTR _kPacket$533051[ebp]
  00018	e9 00 00 00 00	 jmp	 ??1SP2Packet@@UAE@XZ	; SP2Packet::~SP2Packet
__ehhandler$?SetSkillEndState@ioGrapplingSwing2Skill@@IAEXPAVioBaseChar@@_N@Z:
  0001d	8b 54 24 08	 mov	 edx, DWORD PTR [esp+8]
  00021	8d 42 0c	 lea	 eax, DWORD PTR [edx+12]
  00024	8b 8a 94 7f ff
	ff		 mov	 ecx, DWORD PTR [edx-32876]
  0002a	33 c8		 xor	 ecx, eax
  0002c	e8 00 00 00 00	 call	 @__security_check_cookie@4
  00031	8b 4a fc	 mov	 ecx, DWORD PTR [edx-4]
  00034	33 c8		 xor	 ecx, eax
  00036	e8 00 00 00 00	 call	 @__security_check_cookie@4
  0003b	b8 00 00 00 00	 mov	 eax, OFFSET __ehfuncinfo$?SetSkillEndState@ioGrapplingSwing2Skill@@IAEXPAVioBaseChar@@_N@Z
  00040	e9 00 00 00 00	 jmp	 ___CxxFrameHandler3
text$x	ENDS
?SetSkillEndState@ioGrapplingSwing2Skill@@IAEXPAVioBaseChar@@_N@Z ENDP ; ioGrapplingSwing2Skill::SetSkillEndState
PUBLIC	_pChar$GSCopy$
PUBLIC	__$ArrayPad$
PUBLIC	?SetSwingState@ioGrapplingSwing2Skill@@IAEXPAVioBaseChar@@_N@Z ; ioGrapplingSwing2Skill::SetSwingState
;	COMDAT xdata$x
; File d:\lost saga for developer\youtube\tutorial\source\src\lsclient\iobasechar.h
xdata$x	SEGMENT
__unwindtable$?SetSwingState@ioGrapplingSwing2Skill@@IAEXPAVioBaseChar@@_N@Z DD 0ffffffffH
	DD	FLAT:__unwindfunclet$?SetSwingState@ioGrapplingSwing2Skill@@IAEXPAVioBaseChar@@_N@Z$2
	DD	0ffffffffH
	DD	FLAT:__unwindfunclet$?SetSwingState@ioGrapplingSwing2Skill@@IAEXPAVioBaseChar@@_N@Z$3
	DD	0ffffffffH
	DD	FLAT:__unwindfunclet$?SetSwingState@ioGrapplingSwing2Skill@@IAEXPAVioBaseChar@@_N@Z$0
__ehfuncinfo$?SetSwingState@ioGrapplingSwing2Skill@@IAEXPAVioBaseChar@@_N@Z DD 019930522H
	DD	03H
	DD	FLAT:__unwindtable$?SetSwingState@ioGrapplingSwing2Skill@@IAEXPAVioBaseChar@@_N@Z
	DD	2 DUP(00H)
	DD	2 DUP(00H)
	DD	00H
	DD	01H
; Function compile flags: /Ogsp
; File d:\lost saga for developer\youtube\tutorial\source\src\lsclient\iograpplingswing2skill.cpp
xdata$x	ENDS
;	COMDAT ?SetSwingState@ioGrapplingSwing2Skill@@IAEXPAVioBaseChar@@_N@Z
_TEXT	SEGMENT
_pChar$GSCopy$ = -32872					; size = 4
_pGrp$ = -32868						; size = 4
_fAniRate$ = -32864					; size = 4
_iAniID$ = -32860					; size = 4
tv2186 = -32856						; size = 4
tv2183 = -32856						; size = 4
tv2181 = -32856						; size = 4
tv2136 = -32856						; size = 4
_bAttackerNPC$ = -32850					; size = 1
_bNPC$ = -32849						; size = 1
tv2207 = -32848						; size = 4
tv2202 = -32848						; size = 4
tv2197 = -32848						; size = 4
tv2179 = -32848						; size = 4
tv2177 = -32848						; size = 4
tv2158 = -32848						; size = 4
tv2148 = -32848						; size = 4
$T547097 = -32848					; size = 4
$T546949 = -32848					; size = 4
_value$546929 = -32848					; size = 4
$T546921 = -32848					; size = 4
$T546892 = -32848					; size = 4
_kPacket$533084 = -32844				; size = 32792
$T547098 = -52						; size = 16
_szEncEventType$546963 = -52				; size = 13
_szEncEventType$547111 = -32				; size = 12
$T546950 = -32						; size = 16
__$ArrayPad$ = -16					; size = 4
__$EHRec$ = -12						; size = 12
_pChar$ = 8						; size = 4
_bSendNet$ = 12						; size = 1
?SetSwingState@ioGrapplingSwing2Skill@@IAEXPAVioBaseChar@@_N@Z PROC ; ioGrapplingSwing2Skill::SetSwingState, COMDAT
; _this$ = ecx

; 517  : {

  00000	55		 push	 ebp
  00001	8b ec		 mov	 ebp, esp
  00003	6a ff		 push	 -1
  00005	68 00 00 00 00	 push	 __ehhandler$?SetSwingState@ioGrapplingSwing2Skill@@IAEXPAVioBaseChar@@_N@Z
  0000a	64 a1 00 00 00
	00		 mov	 eax, DWORD PTR fs:0
  00010	50		 push	 eax
  00011	b8 5c 80 00 00	 mov	 eax, 32860		; 0000805cH
  00016	e8 00 00 00 00	 call	 __chkstk
  0001b	a1 00 00 00 00	 mov	 eax, DWORD PTR ___security_cookie
  00020	33 c5		 xor	 eax, ebp
  00022	89 45 f0	 mov	 DWORD PTR __$ArrayPad$[ebp], eax
  00025	53		 push	 ebx
  00026	56		 push	 esi
  00027	57		 push	 edi
  00028	50		 push	 eax
  00029	8d 45 f4	 lea	 eax, DWORD PTR __$EHRec$[ebp]
  0002c	64 a3 00 00 00
	00		 mov	 DWORD PTR fs:0, eax
  00032	8b 45 08	 mov	 eax, DWORD PTR _pChar$[ebp]
  00035	8b f1		 mov	 esi, ecx

; 539  : 	m_dwFireMotionEndTime += pGrp->GetAnimationEventTime_e( iAniID, "firemotion_e" ) * fAniRate;

  00037	89 85 98 7f ff
	ff		 mov	 DWORD PTR _pChar$GSCopy$[ebp], eax
  0003d	85 c0		 test	 eax, eax
  0003f	0f 84 8f 04 00
	00		 je	 $LN1@SetSwingSt

; 518  : 	if( !pChar ) return;
; 519  : 
; 520  : 	ioEntityGroup *pGrp = pChar->GetGroup();

  00045	8b 78 04	 mov	 edi, DWORD PTR [eax+4]
  00048	89 bd 9c 7f ff
	ff		 mov	 DWORD PTR _pGrp$[ebp], edi

; 521  : 	if( !pGrp ) return;

  0004e	85 ff		 test	 edi, edi
  00050	0f 84 7e 04 00
	00		 je	 $LN1@SetSwingSt

; 522  : 
; 523  : 	DWORD dwCurTime = FRAMEGETTIME();

  00056	ff 15 00 00 00
	00		 call	 DWORD PTR __imp_?GetSingleton@ioFrameTimer@@SAAAV1@XZ
  0005c	8b c8		 mov	 ecx, eax
  0005e	ff 15 00 00 00
	00		 call	 DWORD PTR __imp_?GetLoopSec@ioFrameTimer@@QBEKXZ
  00064	8b d8		 mov	 ebx, eax

; 524  : 
; 525  : 	pGrp->ClearAllActionAni( FLOAT100, true );

  00066	b8 64 00 00 00	 mov	 eax, 100		; 00000064H
  0006b	89 85 b0 7f ff
	ff		 mov	 DWORD PTR tv2207[ebp], eax
  00071	db 85 b0 7f ff
	ff		 fild	 DWORD PTR tv2207[ebp]
  00077	6a 01		 push	 1
  00079	85 c0		 test	 eax, eax
  0007b	79 06		 jns	 SHORT $LN273@SetSwingSt
  0007d	d8 05 00 00 00
	00		 fadd	 DWORD PTR __real@4f800000
$LN273@SetSwingSt:
  00083	51		 push	 ecx
  00084	8b cf		 mov	 ecx, edi
  00086	d9 1c 24	 fstp	 DWORD PTR [esp]
  00089	ff 15 00 00 00
	00		 call	 DWORD PTR __imp_?ClearAllActionAni@ioEntityGroup@@QAEXM_N@Z

; 526  : 	pGrp->ClearAllLoopAni( FLOAT100, true );

  0008f	b8 64 00 00 00	 mov	 eax, 100		; 00000064H
  00094	89 85 b0 7f ff
	ff		 mov	 DWORD PTR tv2202[ebp], eax
  0009a	db 85 b0 7f ff
	ff		 fild	 DWORD PTR tv2202[ebp]
  000a0	6a 01		 push	 1
  000a2	85 c0		 test	 eax, eax
  000a4	79 06		 jns	 SHORT $LN274@SetSwingSt
  000a6	d8 05 00 00 00
	00		 fadd	 DWORD PTR __real@4f800000
$LN274@SetSwingSt:
  000ac	51		 push	 ecx
  000ad	8b cf		 mov	 ecx, edi
  000af	d9 1c 24	 fstp	 DWORD PTR [esp]
  000b2	ff 15 00 00 00
	00		 call	 DWORD PTR __imp_?ClearAllLoopAni@ioEntityGroup@@QAEXM_N@Z

; 527  : 
; 528  : 	float fAniRate = FLOAT1;

  000b8	b8 01 00 00 00	 mov	 eax, 1
  000bd	89 85 b0 7f ff
	ff		 mov	 DWORD PTR tv2197[ebp], eax
  000c3	db 85 b0 7f ff
	ff		 fild	 DWORD PTR tv2197[ebp]
  000c9	85 c0		 test	 eax, eax
  000cb	79 06		 jns	 SHORT $LN275@SetSwingSt
  000cd	d8 05 00 00 00
	00		 fadd	 DWORD PTR __real@4f800000
$LN275@SetSwingSt:

; 529  : 	if( m_fSkillSwingMotionRate > 0.0f )

  000d3	f3 0f 10 86 10
	11 00 00	 movss	 xmm0, DWORD PTR [esi+4368]
  000db	d9 9d a0 7f ff
	ff		 fstp	 DWORD PTR _fAniRate$[ebp]
  000e1	0f 2f 05 00 00
	00 00		 comiss	 xmm0, DWORD PTR __real@00000000
  000e8	76 08		 jbe	 SHORT $LN9@SetSwingSt

; 530  : 		fAniRate = m_fSkillSwingMotionRate;

  000ea	f3 0f 11 85 a0
	7f ff ff	 movss	 DWORD PTR _fAniRate$[ebp], xmm0
$LN9@SetSwingSt:

; 531  : 
; 532  : 	int iAniID = pGrp->GetAnimationIdx( m_SkillSwingMotion );

  000f2	8d 86 00 11 00
	00		 lea	 eax, DWORD PTR [esi+4352]
  000f8	50		 push	 eax
  000f9	8b cf		 mov	 ecx, edi
  000fb	ff 15 00 00 00
	00		 call	 DWORD PTR __imp_?GetAnimationIdx@ioEntityGroup@@QAEHABVioHashString@@@Z
  00101	89 85 a4 7f ff
	ff		 mov	 DWORD PTR _iAniID$[ebp], eax

; 533  : 	pGrp->SetActionAni( iAniID, FLOAT100, FLOAT100, FLOAT1, FLOAT1/fAniRate );

  00107	b8 01 00 00 00	 mov	 eax, 1
  0010c	8b c8		 mov	 ecx, eax
  0010e	b8 01 00 00 00	 mov	 eax, 1
  00113	8b d0		 mov	 edx, eax
  00115	b8 64 00 00 00	 mov	 eax, 100		; 00000064H
  0011a	89 85 b0 7f ff
	ff		 mov	 DWORD PTR $T546921[ebp], eax
  00120	b8 64 00 00 00	 mov	 eax, 100		; 00000064H
  00125	0f 57 c0	 xorps	 xmm0, xmm0
  00128	6a 01		 push	 1
  0012a	6a 00		 push	 0
  0012c	83 ec 18	 sub	 esp, 24			; 00000018H
  0012f	89 8d a8 7f ff
	ff		 mov	 DWORD PTR tv2186[ebp], ecx
  00135	db 85 a8 7f ff
	ff		 fild	 DWORD PTR tv2186[ebp]
  0013b	f3 0f 11 44 24
	14		 movss	 DWORD PTR [esp+20], xmm0
  00141	f3 0f 11 44 24
	10		 movss	 DWORD PTR [esp+16], xmm0
  00147	85 c9		 test	 ecx, ecx
  00149	79 06		 jns	 SHORT $LN276@SetSwingSt
  0014b	d8 05 00 00 00
	00		 fadd	 DWORD PTR __real@4f800000
$LN276@SetSwingSt:
  00151	d8 b5 a0 7f ff
	ff		 fdiv	 DWORD PTR _fAniRate$[ebp]
  00157	d9 9d a8 7f ff
	ff		 fstp	 DWORD PTR tv2183[ebp]
  0015d	d9 85 a8 7f ff
	ff		 fld	 DWORD PTR tv2183[ebp]
  00163	d9 5c 24 0c	 fstp	 DWORD PTR [esp+12]
  00167	89 95 a8 7f ff
	ff		 mov	 DWORD PTR tv2181[ebp], edx
  0016d	db 85 a8 7f ff
	ff		 fild	 DWORD PTR tv2181[ebp]
  00173	85 d2		 test	 edx, edx
  00175	79 06		 jns	 SHORT $LN277@SetSwingSt
  00177	d8 05 00 00 00
	00		 fadd	 DWORD PTR __real@4f800000
$LN277@SetSwingSt:
  0017d	8b 8d b0 7f ff
	ff		 mov	 ecx, DWORD PTR $T546921[ebp]
  00183	d9 5c 24 08	 fstp	 DWORD PTR [esp+8]
  00187	db 85 b0 7f ff
	ff		 fild	 DWORD PTR $T546921[ebp]
  0018d	85 c9		 test	 ecx, ecx
  0018f	79 06		 jns	 SHORT $LN278@SetSwingSt
  00191	d8 05 00 00 00
	00		 fadd	 DWORD PTR __real@4f800000
$LN278@SetSwingSt:
  00197	d9 5c 24 04	 fstp	 DWORD PTR [esp+4]
  0019b	89 85 b0 7f ff
	ff		 mov	 DWORD PTR tv2177[ebp], eax
  001a1	db 85 b0 7f ff
	ff		 fild	 DWORD PTR tv2177[ebp]
  001a7	85 c0		 test	 eax, eax
  001a9	79 06		 jns	 SHORT $LN279@SetSwingSt
  001ab	d8 05 00 00 00
	00		 fadd	 DWORD PTR __real@4f800000
$LN279@SetSwingSt:
  001b1	d9 1c 24	 fstp	 DWORD PTR [esp]
  001b4	ff b5 a4 7f ff
	ff		 push	 DWORD PTR _iAniID$[ebp]
  001ba	8b cf		 mov	 ecx, edi
  001bc	ff 15 00 00 00
	00		 call	 DWORD PTR __imp_?SetActionAni@ioEntityGroup@@QAE_NHMMMMMM_N0@Z

; 534  : 
; 535  : 	m_dwMotionStartTime = m_dwMotionEndTime = dwCurTime;

  001c2	8d 85 b0 7f ff
	ff		 lea	 eax, DWORD PTR _value$546929[ebp]
  001c8	50		 push	 eax
  001c9	8d 8e a8 02 00
	00		 lea	 ecx, DWORD PTR [esi+680]
  001cf	89 9e d8 02 00
	00		 mov	 DWORD PTR [esi+728], ebx
  001d5	89 9d b0 7f ff
	ff		 mov	 DWORD PTR _value$546929[ebp], ebx
  001db	e8 00 00 00 00	 call	 ?EncryptValueToPool@?$CEncrypt@K@@AAEXPBD@Z ; CEncrypt<unsigned long>::EncryptValueToPool

; 536  : 	m_dwMotionEndTime += pGrp->GetAnimationFullTime( iAniID ) * fAniRate;

  001e0	ff b5 a4 7f ff
	ff		 push	 DWORD PTR _iAniID$[ebp]
  001e6	8b cf		 mov	 ecx, edi
  001e8	ff 15 00 00 00
	00		 call	 DWORD PTR __imp_?GetAnimationFullTime@ioEntityGroup@@QAEMH@Z
  001ee	d8 8d a0 7f ff
	ff		 fmul	 DWORD PTR _fAniRate$[ebp]
  001f4	8b 86 d8 02 00
	00		 mov	 eax, DWORD PTR [esi+728]
  001fa	db 86 d8 02 00
	00		 fild	 DWORD PTR [esi+728]
  00200	85 c0		 test	 eax, eax
  00202	79 06		 jns	 SHORT $LN280@SetSwingSt
  00204	dc 05 00 00 00
	00		 fadd	 QWORD PTR __real@41f0000000000000
$LN280@SetSwingSt:
  0020a	de c1		 faddp	 ST(1), ST(0)
  0020c	e8 00 00 00 00	 call	 __ftol2
  00211	6a 03		 push	 3
  00213	89 86 d8 02 00
	00		 mov	 DWORD PTR [esi+728], eax

; 537  : 
; 538  : 	m_dwFireMotionEndTime = dwCurTime;

  00219	89 9e 24 02 00
	00		 mov	 DWORD PTR [esi+548], ebx

; 539  : 	m_dwFireMotionEndTime += pGrp->GetAnimationEventTime_e( iAniID, "firemotion_e" ) * fAniRate;

  0021f	c7 45 cc 8b 85
	99 8f		 mov	 DWORD PTR _szEncEventType$546963[ebp], -1885764213 ; 8f99858bH
  00226	c7 45 d0 80 83
	9f 83		 mov	 DWORD PTR _szEncEventType$546963[ebp+4], -2086698112 ; 839f8380H
  0022d	c7 45 d4 82 82
	b4 8f		 mov	 DWORD PTR _szEncEventType$546963[ebp+8], -1883995518 ; 8fb48282H
  00234	8d 45 cc	 lea	 eax, DWORD PTR _szEncEventType$546963[ebp]
  00237	c6 45 d8 00	 mov	 BYTE PTR _szEncEventType$546963[ebp+12], 0
  0023b	59		 pop	 ecx
$LL138@SetSwingSt:
  0023c	81 30 ed ec eb
	ea		 xor	 DWORD PTR [eax], -353637139 ; eaebecedH
  00242	83 c0 04	 add	 eax, 4
  00245	49		 dec	 ecx
  00246	75 f4		 jne	 SHORT $LL138@SetSwingSt
  00248	8d 45 cc	 lea	 eax, DWORD PTR _szEncEventType$546963[ebp]
  0024b	50		 push	 eax
  0024c	8d 4d e0	 lea	 ecx, DWORD PTR $T546950[ebp]
  0024f	ff 15 00 00 00
	00		 call	 DWORD PTR __imp_??0ioHashString@@QAE@PBD@Z
  00255	8b 8d 9c 7f ff
	ff		 mov	 ecx, DWORD PTR _pGrp$[ebp]
  0025b	83 65 fc 00	 and	 DWORD PTR __$EHRec$[ebp+8], 0
  0025f	8d 45 e0	 lea	 eax, DWORD PTR $T546950[ebp]
  00262	50		 push	 eax
  00263	ff b5 a4 7f ff
	ff		 push	 DWORD PTR _iAniID$[ebp]
  00269	ff 15 00 00 00
	00		 call	 DWORD PTR __imp_?GetAnimationEventTime@ioEntityGroup@@QAEMHABVioHashString@@@Z
  0026f	d9 9d b0 7f ff
	ff		 fstp	 DWORD PTR $T546949[ebp]
  00275	83 4d fc ff	 or	 DWORD PTR __$EHRec$[ebp+8], -1
  00279	8d 4d e0	 lea	 ecx, DWORD PTR $T546950[ebp]
  0027c	ff 15 00 00 00
	00		 call	 DWORD PTR __imp_??1ioHashString@@QAE@XZ
  00282	d9 85 b0 7f ff
	ff		 fld	 DWORD PTR $T546949[ebp]
  00288	8b 86 24 02 00
	00		 mov	 eax, DWORD PTR [esi+548]
  0028e	d8 8d a0 7f ff
	ff		 fmul	 DWORD PTR _fAniRate$[ebp]
  00294	db 86 24 02 00
	00		 fild	 DWORD PTR [esi+548]
  0029a	85 c0		 test	 eax, eax
  0029c	79 06		 jns	 SHORT $LN281@SetSwingSt
  0029e	dc 05 00 00 00
	00		 fadd	 QWORD PTR __real@41f0000000000000
$LN281@SetSwingSt:
  002a4	de c1		 faddp	 ST(1), ST(0)
  002a6	e8 00 00 00 00	 call	 __ftol2
  002ab	6a 02		 push	 2

; 540  : 
; 541  : 	// Key Reserve
; 542  : 	m_dwEnableReserveTime = dwCurTime;

  002ad	89 9e dc 02 00
	00		 mov	 DWORD PTR [esi+732], ebx
  002b3	5b		 pop	 ebx
  002b4	89 86 24 02 00
	00		 mov	 DWORD PTR [esi+548], eax

; 543  : 	m_dwEnableReserveTime += pGrp->GetAnimationEventTime_e( iAniID, "key_reserve" );

  002ba	c7 45 e0 86 89
	92 b5		 mov	 DWORD PTR _szEncEventType$547111[ebp], -1248687738 ; b5928986H
  002c1	c7 45 e4 9f 89
	98 8f		 mov	 DWORD PTR _szEncEventType$547111[ebp+4], -1885828705 ; 8f98899fH
  002c8	8d 45 e0	 lea	 eax, DWORD PTR _szEncEventType$547111[ebp]
  002cb	c7 45 e8 9f 9a
	8e 00		 mov	 DWORD PTR _szEncEventType$547111[ebp+8], 9345695 ; 008e9a9fH
  002d2	8b cb		 mov	 ecx, ebx
$LL245@SetSwingSt:
  002d4	81 30 ed ec eb
	ea		 xor	 DWORD PTR [eax], -353637139 ; eaebecedH
  002da	83 c0 04	 add	 eax, 4
  002dd	49		 dec	 ecx
  002de	75 f4		 jne	 SHORT $LL245@SetSwingSt
  002e0	6a 08		 push	 8
  002e2	58		 pop	 eax
$LL242@SetSwingSt:
  002e3	8b c8		 mov	 ecx, eax
  002e5	81 e1 03 00 00
	80		 and	 ecx, -2147483645	; 80000003H
  002eb	79 05		 jns	 SHORT $LN282@SetSwingSt
  002ed	49		 dec	 ecx
  002ee	83 c9 fc	 or	 ecx, -4			; fffffffcH
  002f1	41		 inc	 ecx
$LN282@SetSwingSt:
  002f2	b2 ed		 mov	 dl, -19			; ffffffedH
  002f4	2a d1		 sub	 dl, cl
  002f6	30 54 05 e0	 xor	 BYTE PTR _szEncEventType$547111[ebp+eax], dl
  002fa	40		 inc	 eax
  002fb	83 f8 0b	 cmp	 eax, 11			; 0000000bH
  002fe	7c e3		 jl	 SHORT $LL242@SetSwingSt
  00300	8d 45 e0	 lea	 eax, DWORD PTR _szEncEventType$547111[ebp]
  00303	50		 push	 eax
  00304	8d 4d cc	 lea	 ecx, DWORD PTR $T547098[ebp]
  00307	ff 15 00 00 00
	00		 call	 DWORD PTR __imp_??0ioHashString@@QAE@PBD@Z
  0030d	8b 8d 9c 7f ff
	ff		 mov	 ecx, DWORD PTR _pGrp$[ebp]
  00313	8d 45 cc	 lea	 eax, DWORD PTR $T547098[ebp]
  00316	50		 push	 eax
  00317	ff b5 a4 7f ff
	ff		 push	 DWORD PTR _iAniID$[ebp]
  0031d	c7 45 fc 01 00
	00 00		 mov	 DWORD PTR __$EHRec$[ebp+8], 1
  00324	ff 15 00 00 00
	00		 call	 DWORD PTR __imp_?GetAnimationEventTime@ioEntityGroup@@QAEMHABVioHashString@@@Z
  0032a	d9 9d b0 7f ff
	ff		 fstp	 DWORD PTR $T547097[ebp]
  00330	83 4d fc ff	 or	 DWORD PTR __$EHRec$[ebp+8], -1
  00334	8d 4d cc	 lea	 ecx, DWORD PTR $T547098[ebp]
  00337	ff 15 00 00 00
	00		 call	 DWORD PTR __imp_??1ioHashString@@QAE@XZ
  0033d	db 86 dc 02 00
	00		 fild	 DWORD PTR [esi+732]
  00343	8b 86 dc 02 00
	00		 mov	 eax, DWORD PTR [esi+732]
  00349	85 c0		 test	 eax, eax
  0034b	79 06		 jns	 SHORT $LN283@SetSwingSt
  0034d	d8 05 00 00 00
	00		 fadd	 DWORD PTR __real@4f800000
$LN283@SetSwingSt:
  00353	d8 85 b0 7f ff
	ff		 fadd	 DWORD PTR $T547097[ebp]
  00359	e8 00 00 00 00	 call	 __ftol2

; 544  : 
; 545  : 	m_SkillState = SS_SWING;
; 546  : 
; 547  : 	if( bSendNet && pChar->IsNeedSendNetwork() )

  0035e	80 7d 0c 00	 cmp	 BYTE PTR _bSendNet$[ebp], 0
  00362	8b bd 98 7f ff
	ff		 mov	 edi, DWORD PTR _pChar$GSCopy$[ebp]
  00368	89 86 dc 02 00
	00		 mov	 DWORD PTR [esi+732], eax
  0036e	c7 86 e4 10 00
	00 04 00 00 00	 mov	 DWORD PTR [esi+4324], 4
  00378	74 7f		 je	 SHORT $LN8@SetSwingSt
  0037a	8b 07		 mov	 eax, DWORD PTR [edi]
  0037c	8b cf		 mov	 ecx, edi
  0037e	ff 90 04 01 00
	00		 call	 DWORD PTR [eax+260]
  00384	84 c0		 test	 al, al
  00386	74 71		 je	 SHORT $LN8@SetSwingSt

; 548  : 	{
; 549  : 		SP2Packet kPacket( CUPK_SKILL_EXTRA_INFO );

  00388	68 39 41 00 00	 push	 16697			; 00004139H
  0038d	8d 8d b4 7f ff
	ff		 lea	 ecx, DWORD PTR _kPacket$533084[ebp]
  00393	e8 00 00 00 00	 call	 ??0SP2Packet@@QAE@K@Z	; SP2Packet::SP2Packet

; 550  : 		kPacket << pChar->GetCharName();

  00398	8d 87 d4 02 00
	00		 lea	 eax, DWORD PTR [edi+724]
  0039e	50		 push	 eax
  0039f	8d 8d b4 7f ff
	ff		 lea	 ecx, DWORD PTR _kPacket$533084[ebp]
  003a5	89 5d fc	 mov	 DWORD PTR __$EHRec$[ebp+8], ebx
  003a8	e8 00 00 00 00	 call	 ??6SP2Packet@@QAEAAV0@ABVioHashString@@@Z ; SP2Packet::operator<<

; 551  : 		kPacket << GetName();

  003ad	8d 46 24	 lea	 eax, DWORD PTR [esi+36]
  003b0	50		 push	 eax
  003b1	8d 8d b4 7f ff
	ff		 lea	 ecx, DWORD PTR _kPacket$533084[ebp]
  003b7	e8 00 00 00 00	 call	 ??6SP2Packet@@QAEAAV0@ABVioHashString@@@Z ; SP2Packet::operator<<

; 552  : 		kPacket << SSC_SWING;

  003bc	53		 push	 ebx
  003bd	8d 8d b4 7f ff
	ff		 lea	 ecx, DWORD PTR _kPacket$533084[ebp]
  003c3	e8 00 00 00 00	 call	 ??6SP2Packet@@QAEAAV0@H@Z ; SP2Packet::operator<<

; 553  : 		kPacket << pChar->GetTargetRot();

  003c8	8d 87 a4 06 00
	00		 lea	 eax, DWORD PTR [edi+1700]
  003ce	50		 push	 eax
  003cf	8d 8d b4 7f ff
	ff		 lea	 ecx, DWORD PTR _kPacket$533084[ebp]
  003d5	e8 00 00 00 00	 call	 ??6SP2Packet@@QAEAAV0@ABUD3DXQUATERNION@@@Z ; SP2Packet::operator<<

; 554  : 		P2PNetwork::SendToAllPlayingUser( kPacket );

  003da	8d 85 b4 7f ff
	ff		 lea	 eax, DWORD PTR _kPacket$533084[ebp]
  003e0	6a 00		 push	 0
  003e2	50		 push	 eax
  003e3	e8 00 00 00 00	 call	 ?SendToAllPlayingUser@P2PNetwork@@YAXAAVSP2Packet@@PAVioBaseChar@@@Z ; P2PNetwork::SendToAllPlayingUser

; 555  : 	}

  003e8	83 4d fc ff	 or	 DWORD PTR __$EHRec$[ebp+8], -1
  003ec	59		 pop	 ecx
  003ed	59		 pop	 ecx
  003ee	8d 8d b4 7f ff
	ff		 lea	 ecx, DWORD PTR _kPacket$533084[ebp]
  003f4	e8 00 00 00 00	 call	 ??1SP2Packet@@UAE@XZ	; SP2Packet::~SP2Packet
$LN8@SetSwingSt:

; 556  : 
; 557  : 
; 558  : 	ioBaseChar *pTarget = pChar->GetBaseChar( m_GrapplingTargetName );

  003f9	8d 86 68 11 00
	00		 lea	 eax, DWORD PTR [esi+4456]
  003ff	50		 push	 eax
  00400	8b cf		 mov	 ecx, edi
  00402	e8 00 00 00 00	 call	 ?GetBaseChar@ioBaseChar@@QAEPAV1@ABVioHashString@@@Z ; ioBaseChar::GetBaseChar
  00407	8b d8		 mov	 ebx, eax

; 559  : 	if( !pTarget ) return;

  00409	85 db		 test	 ebx, ebx
  0040b	0f 84 c3 00 00
	00		 je	 $LN1@SetSwingSt

; 560  : 	CheckTeam( pChar, pTarget );

  00411	53		 push	 ebx
  00412	57		 push	 edi
  00413	8b ce		 mov	 ecx, esi
  00415	e8 00 00 00 00	 call	 ?CheckTeam@ioGrapplingSwing2Skill@@IAEXPAVioBaseChar@@0@Z ; ioGrapplingSwing2Skill::CheckTeam

; 561  : 	// for NPC
; 562  : 	bool bNPC = false;
; 563  : 	bool bAttackerNPC = false;
; 564  : 	if( ToNpcChar( pTarget ) )

  0041a	53		 push	 ebx
  0041b	c6 85 af 7f ff
	ff 00		 mov	 BYTE PTR _bNPC$[ebp], 0
  00422	c6 85 ae 7f ff
	ff 00		 mov	 BYTE PTR _bAttackerNPC$[ebp], 0
  00429	e8 00 00 00 00	 call	 ?ToNpcChar@@YAPAVioNpcChar@@PAVioGameEntity@@@Z ; ToNpcChar
  0042e	59		 pop	 ecx
  0042f	85 c0		 test	 eax, eax
  00431	74 07		 je	 SHORT $LN6@SetSwingSt

; 565  : 	{
; 566  : 		bNPC = true;

  00433	c6 85 af 7f ff
	ff 01		 mov	 BYTE PTR _bNPC$[ebp], 1
$LN6@SetSwingSt:

; 567  : 	}
; 568  : 
; 569  : 	if( ToNpcChar( pChar ) )

  0043a	57		 push	 edi
  0043b	e8 00 00 00 00	 call	 ?ToNpcChar@@YAPAVioNpcChar@@PAVioGameEntity@@@Z ; ToNpcChar
  00440	59		 pop	 ecx
  00441	85 c0		 test	 eax, eax
  00443	74 07		 je	 SHORT $LN5@SetSwingSt

; 570  : 	{
; 571  : 		bAttackerNPC = true;

  00445	c6 85 ae 7f ff
	ff 01		 mov	 BYTE PTR _bAttackerNPC$[ebp], 1
$LN5@SetSwingSt:

; 572  : 	}
; 573  : 
; 574  : 	// local or  or NPC
; 575  : 	if( !P2PNetwork::IsNetworkPlaying() || !pChar->GetCreator()->IsNetworkMode() || (bNPC || bAttackerNPC) )

  0044c	e8 00 00 00 00	 call	 ?IsNetworkPlaying@P2PNetwork@@YA_NXZ ; P2PNetwork::IsNetworkPlaying
  00451	84 c0		 test	 al, al
  00453	74 21		 je	 SHORT $LN2@SetSwingSt
  00455	8b 8f 44 03 00
	00		 mov	 ecx, DWORD PTR [edi+836]
  0045b	e8 00 00 00 00	 call	 ?IsNetworkMode@ioPlayStage@@QAE_NXZ ; ioPlayStage::IsNetworkMode
  00460	84 c0		 test	 al, al
  00462	74 12		 je	 SHORT $LN2@SetSwingSt
  00464	80 bd af 7f ff
	ff 00		 cmp	 BYTE PTR _bNPC$[ebp], 0
  0046b	75 09		 jne	 SHORT $LN2@SetSwingSt
  0046d	80 bd ae 7f ff
	ff 00		 cmp	 BYTE PTR _bAttackerNPC$[ebp], 0
  00474	74 5e		 je	 SHORT $LN1@SetSwingSt
$LN2@SetSwingSt:

; 576  : 	{
; 577  : 		if( pTarget->GetState() == CS_GRAPPLING_WOUNDED_SKILL && pTarget->IsNeedProcess() )

  00476	80 bb 10 03 00
	00 43		 cmp	 BYTE PTR [ebx+784], 67	; 00000043H
  0047d	75 55		 jne	 SHORT $LN1@SetSwingSt
  0047f	8b 03		 mov	 eax, DWORD PTR [ebx]
  00481	8b cb		 mov	 ecx, ebx
  00483	ff 90 00 01 00
	00		 call	 DWORD PTR [eax+256]
  00489	84 c0		 test	 al, al
  0048b	74 47		 je	 SHORT $LN1@SetSwingSt

; 578  : 		{
; 579  : 			pTarget->SetTargetRotToRotate( pChar->GetTargetRot(), true, false );

  0048d	6a 00		 push	 0
  0048f	6a 01		 push	 1
  00491	8d 87 a4 06 00
	00		 lea	 eax, DWORD PTR [edi+1700]
  00497	50		 push	 eax
  00498	8b cb		 mov	 ecx, ebx
  0049a	e8 00 00 00 00	 call	 ?SetTargetRotToRotate@ioBaseChar@@QAEXABUD3DXQUATERNION@@_N1@Z ; ioBaseChar::SetTargetRotToRotate

; 580  : 			pTarget->SetGrapplingWoundSwing( pChar->GetCharName(), GetSkillWoundGrapplingInfo(),
; 581  : 				m_SkillSwingedMotion, m_fSkillSwingedMotionRate );

  0049f	d9 86 24 11 00
	00		 fld	 DWORD PTR [esi+4388]
  004a5	51		 push	 ecx
  004a6	d9 1c 24	 fstp	 DWORD PTR [esp]
  004a9	8d 86 14 11 00
	00		 lea	 eax, DWORD PTR [esi+4372]
  004af	50		 push	 eax
  004b0	8b 06		 mov	 eax, DWORD PTR [esi]
  004b2	83 ec 5c	 sub	 esp, 92			; 0000005cH
  004b5	8b cc		 mov	 ecx, esp
  004b7	89 a5 b0 7f ff
	ff		 mov	 DWORD PTR $T546892[ebp], esp
  004bd	51		 push	 ecx
  004be	8b ce		 mov	 ecx, esi
  004c0	ff 90 a4 00 00
	00		 call	 DWORD PTR [eax+164]
  004c6	81 c7 d4 02 00
	00		 add	 edi, 724		; 000002d4H
  004cc	57		 push	 edi
  004cd	8b cb		 mov	 ecx, ebx
  004cf	e8 00 00 00 00	 call	 ?SetGrapplingWoundSwing@ioBaseChar@@QAEXABVioHashString@@UGrapplingSkillWoundedInfo@@0M@Z ; ioBaseChar::SetGrapplingWoundSwing
$LN1@SetSwingSt:

; 582  : 		}
; 583  : 	}
; 584  : }

  004d4	8b 4d f4	 mov	 ecx, DWORD PTR __$EHRec$[ebp]
  004d7	64 89 0d 00 00
	00 00		 mov	 DWORD PTR fs:0, ecx
  004de	59		 pop	 ecx
  004df	5f		 pop	 edi
  004e0	5e		 pop	 esi
  004e1	5b		 pop	 ebx
  004e2	8b 4d f0	 mov	 ecx, DWORD PTR __$ArrayPad$[ebp]
  004e5	33 cd		 xor	 ecx, ebp
  004e7	e8 00 00 00 00	 call	 @__security_check_cookie@4
  004ec	c9		 leave
  004ed	c2 08 00	 ret	 8
_TEXT	ENDS
;	COMDAT text$x
text$x	SEGMENT
__unwindfunclet$?SetSwingState@ioGrapplingSwing2Skill@@IAEXPAVioBaseChar@@_N@Z$2:
  00000	8d 4d e0	 lea	 ecx, DWORD PTR $T546950[ebp]
  00003	ff 25 00 00 00
	00		 jmp	 DWORD PTR __imp_??1ioHashString@@QAE@XZ
__unwindfunclet$?SetSwingState@ioGrapplingSwing2Skill@@IAEXPAVioBaseChar@@_N@Z$3:
  00009	8d 4d cc	 lea	 ecx, DWORD PTR $T547098[ebp]
  0000c	ff 25 00 00 00
	00		 jmp	 DWORD PTR __imp_??1ioHashString@@QAE@XZ
__unwindfunclet$?SetSwingState@ioGrapplingSwing2Skill@@IAEXPAVioBaseChar@@_N@Z$0:
  00012	8d 8d b4 7f ff
	ff		 lea	 ecx, DWORD PTR _kPacket$533084[ebp]
  00018	e9 00 00 00 00	 jmp	 ??1SP2Packet@@UAE@XZ	; SP2Packet::~SP2Packet
__ehhandler$?SetSwingState@ioGrapplingSwing2Skill@@IAEXPAVioBaseChar@@_N@Z:
  0001d	8b 54 24 08	 mov	 edx, DWORD PTR [esp+8]
  00021	8d 42 0c	 lea	 eax, DWORD PTR [edx+12]
  00024	8b 8a 94 7f ff
	ff		 mov	 ecx, DWORD PTR [edx-32876]
  0002a	33 c8		 xor	 ecx, eax
  0002c	e8 00 00 00 00	 call	 @__security_check_cookie@4
  00031	8b 4a fc	 mov	 ecx, DWORD PTR [edx-4]
  00034	33 c8		 xor	 ecx, eax
  00036	e8 00 00 00 00	 call	 @__security_check_cookie@4
  0003b	b8 00 00 00 00	 mov	 eax, OFFSET __ehfuncinfo$?SetSwingState@ioGrapplingSwing2Skill@@IAEXPAVioBaseChar@@_N@Z
  00040	e9 00 00 00 00	 jmp	 ___CxxFrameHandler3
text$x	ENDS
?SetSwingState@ioGrapplingSwing2Skill@@IAEXPAVioBaseChar@@_N@Z ENDP ; ioGrapplingSwing2Skill::SetSwingState
PUBLIC	_pStage$GSCopy$
EXTRN	??5SP2Packet@@QAEAAV0@AAVioHashString@@@Z:PROC	; SP2Packet::operator>>
EXTRN	?GetBaseChar@ioPlayStage@@QAEPAVioBaseChar@@ABVioHashString@@@Z:PROC ; ioPlayStage::GetBaseChar
EXTRN	??5SP2Packet@@QAEAAV0@AAUD3DXVECTOR3@@@Z:PROC	; SP2Packet::operator>>
EXTRN	??5SP2Packet@@QAEAAV0@AAUD3DXQUATERNION@@@Z:PROC ; SP2Packet::operator>>
EXTRN	??5SP2Packet@@QAEAAV0@AAH@Z:PROC		; SP2Packet::operator>>
;	COMDAT xdata$x
; File c:\program files (x86)\microsoft directx sdk (june 2010)\include\d3dx9math.inl
xdata$x	SEGMENT
__unwindtable$?ApplyExtraSkillInfo@ioGrapplingSwing2Skill@@UAEXPAVioBaseChar@@PAVioPlayStage@@AAVSP2Packet@@@Z DD 0ffffffffH
	DD	FLAT:__unwindfunclet$?ApplyExtraSkillInfo@ioGrapplingSwing2Skill@@UAEXPAVioBaseChar@@PAVioPlayStage@@AAVSP2Packet@@@Z$0
__ehfuncinfo$?ApplyExtraSkillInfo@ioGrapplingSwing2Skill@@UAEXPAVioBaseChar@@PAVioPlayStage@@AAVSP2Packet@@@Z DD 019930522H
	DD	01H
	DD	FLAT:__unwindtable$?ApplyExtraSkillInfo@ioGrapplingSwing2Skill@@UAEXPAVioBaseChar@@PAVioPlayStage@@AAVSP2Packet@@@Z
	DD	2 DUP(00H)
	DD	2 DUP(00H)
	DD	00H
	DD	01H
; Function compile flags: /Ogsp
; File d:\lost saga for developer\youtube\tutorial\source\src\lsclient\iograpplingswing2skill.cpp
xdata$x	ENDS
;	COMDAT ?ApplyExtraSkillInfo@ioGrapplingSwing2Skill@@UAEXPAVioBaseChar@@PAVioPlayStage@@AAVSP2Packet@@@Z
_TEXT	SEGMENT
_szTargetName$533176 = -88				; size = 16
_qtNewRot$533197 = -72					; size = 16
_qtRot$ = -56						; size = 16
_iState$ = -40						; size = 4
$T547246 = -36						; size = 4
$T547245 = -36						; size = 4
_pStage$GSCopy$ = -32					; size = 4
_iDir$533195 = -32					; size = 4
$T533198 = -28						; size = 12
__$EHRec$ = -12						; size = 12
_pChar$ = 8						; size = 4
_pStage$ = 12						; size = 4
_rkPacket$ = 16						; size = 4
?ApplyExtraSkillInfo@ioGrapplingSwing2Skill@@UAEXPAVioBaseChar@@PAVioPlayStage@@AAVSP2Packet@@@Z PROC ; ioGrapplingSwing2Skill::ApplyExtraSkillInfo, COMDAT
; _this$ = ecx

; 691  : {

  00000	6a 4c		 push	 76			; 0000004cH
  00002	b8 00 00 00 00	 mov	 eax, __ehhandler$?ApplyExtraSkillInfo@ioGrapplingSwing2Skill@@UAEXPAVioBaseChar@@PAVioPlayStage@@AAVSP2Packet@@@Z
  00007	e8 00 00 00 00	 call	 __EH_prolog3_GS
  0000c	8b 7d 08	 mov	 edi, DWORD PTR _pChar$[ebp]
  0000f	8b 45 0c	 mov	 eax, DWORD PTR _pStage$[ebp]
  00012	8b 5d 10	 mov	 ebx, DWORD PTR _rkPacket$[ebp]
  00015	8b f1		 mov	 esi, ecx

; 704  : 	{
; 705  : 	case SSC_GRAP_LOOP:
; 706  : 		{
; 707  : 			ioHashString szTargetName;

  00017	89 45 e0	 mov	 DWORD PTR _pStage$GSCopy$[ebp], eax
  0001a	85 ff		 test	 edi, edi
  0001c	0f 84 05 02 00
	00		 je	 $LN11@ApplyExtra

; 692  : 	if( !pChar ) return;
; 693  : 	if( !pStage ) return;

  00022	85 c0		 test	 eax, eax
  00024	0f 84 fd 01 00
	00		 je	 $LN11@ApplyExtra

; 694  : 
; 695  : 	int iState;
; 696  : 	rkPacket >> iState;

  0002a	8d 45 d8	 lea	 eax, DWORD PTR _iState$[ebp]
  0002d	50		 push	 eax
  0002e	8b cb		 mov	 ecx, ebx
  00030	e8 00 00 00 00	 call	 ??5SP2Packet@@QAEAAV0@AAH@Z ; SP2Packet::operator>>

; 697  : 
; 698  : 	D3DXQUATERNION qtRot;
; 699  : 	rkPacket >> qtRot;

  00035	8d 45 c8	 lea	 eax, DWORD PTR _qtRot$[ebp]
  00038	50		 push	 eax
  00039	8b cb		 mov	 ecx, ebx
  0003b	e8 00 00 00 00	 call	 ??5SP2Packet@@QAEAAV0@AAUD3DXQUATERNION@@@Z ; SP2Packet::operator>>

; 700  : 
; 701  : 	pChar->SetTargetRotToRotate( qtRot, true, false );

  00040	6a 00		 push	 0
  00042	6a 01		 push	 1
  00044	8d 45 c8	 lea	 eax, DWORD PTR _qtRot$[ebp]
  00047	50		 push	 eax
  00048	8b cf		 mov	 ecx, edi
  0004a	e8 00 00 00 00	 call	 ?SetTargetRotToRotate@ioBaseChar@@QAEXABUD3DXQUATERNION@@_N1@Z ; ioBaseChar::SetTargetRotToRotate

; 702  : 
; 703  : 	switch( iState )

  0004f	8b 45 d8	 mov	 eax, DWORD PTR _iState$[ebp]
  00052	33 c9		 xor	 ecx, ecx
  00054	2b c1		 sub	 eax, ecx
  00056	0f 84 c0 01 00
	00		 je	 $LN8@ApplyExtra
  0005c	48		 dec	 eax
  0005d	0f 84 30 01 00
	00		 je	 $LN10@ApplyExtra
  00063	48		 dec	 eax
  00064	0f 84 92 00 00
	00		 je	 $LN7@ApplyExtra
  0006a	48		 dec	 eax
  0006b	74 77		 je	 SHORT $LN4@ApplyExtra
  0006d	48		 dec	 eax
  0006e	0f 85 b3 01 00
	00		 jne	 $LN11@ApplyExtra

; 757  : 	case SSC_KEY:
; 758  : 		{
; 759  : 			int iDir;
; 760  : 			rkPacket >> iDir;

  00074	8d 45 e0	 lea	 eax, DWORD PTR _iDir$533195[ebp]
  00077	50		 push	 eax
  00078	8b cb		 mov	 ecx, ebx
  0007a	e8 00 00 00 00	 call	 ??5SP2Packet@@QAEAAV0@AAH@Z ; SP2Packet::operator>>

; 761  : 			m_CurDirKey = (ioUserKeyInput::DirKeyInput)iDir;

  0007f	8b 45 e0	 mov	 eax, DWORD PTR _iDir$533195[ebp]
  00082	89 86 f0 11 00
	00		 mov	 DWORD PTR [esi+4592], eax

; 762  : 
; 763  : 			rkPacket >> m_vCurMoveDir;

  00088	81 c6 e4 11 00
	00		 add	 esi, 4580		; 000011e4H
  0008e	56		 push	 esi
  0008f	8b cb		 mov	 ecx, ebx
  00091	e8 00 00 00 00	 call	 ??5SP2Packet@@QAEAAV0@AAUD3DXVECTOR3@@@Z ; SP2Packet::operator>>

; 764  : 
; 765  : 			D3DXQUATERNION qtNewRot;
; 766  : 			ioMath::CalcDirectionQuaternion( qtNewRot, -m_vCurMoveDir );

  00096	f3 0f 10 05 00
	00 00 00	 movss	 xmm0, DWORD PTR __mask@@NegFloat@
  0009e	f3 0f 10 0e	 movss	 xmm1, DWORD PTR [esi]
  000a2	0f 57 c8	 xorps	 xmm1, xmm0
  000a5	f3 0f 11 4d e4	 movss	 DWORD PTR $T533198[ebp], xmm1
  000aa	f3 0f 10 4e 04	 movss	 xmm1, DWORD PTR [esi+4]
  000af	0f 57 c8	 xorps	 xmm1, xmm0
  000b2	8d 45 e4	 lea	 eax, DWORD PTR $T533198[ebp]
  000b5	50		 push	 eax
  000b6	f3 0f 11 4d e8	 movss	 DWORD PTR $T533198[ebp+4], xmm1
  000bb	f3 0f 10 4e 08	 movss	 xmm1, DWORD PTR [esi+8]
  000c0	8d 45 b8	 lea	 eax, DWORD PTR _qtNewRot$533197[ebp]
  000c3	0f 57 c8	 xorps	 xmm1, xmm0
  000c6	50		 push	 eax
  000c7	f3 0f 11 4d ec	 movss	 DWORD PTR $T533198[ebp+8], xmm1
  000cc	ff 15 00 00 00
	00		 call	 DWORD PTR __imp_?CalcDirectionQuaternion@ioMath@@SAXAAUD3DXQUATERNION@@ABUD3DXVECTOR3@@@Z
  000d2	59		 pop	 ecx
  000d3	59		 pop	 ecx

; 767  : 			pChar->SetMoveDirByRotate( qtNewRot );

  000d4	8d 45 b8	 lea	 eax, DWORD PTR _qtNewRot$533197[ebp]
  000d7	50		 push	 eax
  000d8	8b cf		 mov	 ecx, edi
  000da	e8 00 00 00 00	 call	 ?SetMoveDirByRotate@ioBaseChar@@QAEXABUD3DXQUATERNION@@@Z ; ioBaseChar::SetMoveDirByRotate

; 768  : 		}
; 769  : 		break;

  000df	e9 43 01 00 00	 jmp	 $LN11@ApplyExtra
$LN4@ApplyExtra:

; 741  : 	case SSC_END:
; 742  : 		{
; 743  : 			if( m_SkillState != SS_END )

  000e4	83 be e4 10 00
	00 05		 cmp	 DWORD PTR [esi+4324], 5
  000eb	0f 84 36 01 00
	00		 je	 $LN11@ApplyExtra

; 744  : 			{
; 745  : 				SetSkillEndState( pChar, false );

  000f1	51		 push	 ecx
  000f2	57		 push	 edi
  000f3	8b ce		 mov	 ecx, esi
  000f5	e8 00 00 00 00	 call	 ?SetSkillEndState@ioGrapplingSwing2Skill@@IAEXPAVioBaseChar@@_N@Z ; ioGrapplingSwing2Skill::SetSkillEndState

; 746  : 
; 747  : 				ioBaseChar *pTarget = pStage->GetBaseChar( m_GrapplingTargetName );
; 748  : 				if( pTarget && pTarget->IsNeedProcess() && pTarget->GetState() == CS_GRAPPLING_WOUNDED_SKILL )
; 749  : 				{
; 750  : 					pTarget->SetTargetRotToRotate( pChar->GetTargetRot(), true, false );
; 751  : 					pTarget->SetGrapplingWoundSwing( pChar->GetCharName(), GetSkillWoundGrapplingInfo(),
; 752  : 						m_SkillSwingedMotion, m_fSkillSwingedMotionRate );
; 753  : 				}
; 754  : 			}
; 755  : 		}
; 756  : 		break;

  000fa	eb 16		 jmp	 SHORT $LN46@ApplyExtra
$LN7@ApplyExtra:

; 723  : 		}
; 724  : 		break;
; 725  : 	case SSC_SWING:
; 726  : 		{
; 727  : 			if( m_SkillState != SS_END )

  000fc	83 be e4 10 00
	00 05		 cmp	 DWORD PTR [esi+4324], 5
  00103	0f 84 1e 01 00
	00		 je	 $LN11@ApplyExtra

; 728  : 			{
; 729  : 				SetSwingState( pChar, false );

  00109	51		 push	 ecx
  0010a	57		 push	 edi
  0010b	8b ce		 mov	 ecx, esi
  0010d	e8 00 00 00 00	 call	 ?SetSwingState@ioGrapplingSwing2Skill@@IAEXPAVioBaseChar@@_N@Z ; ioGrapplingSwing2Skill::SetSwingState
$LN46@ApplyExtra:

; 730  : 
; 731  : 				ioBaseChar *pTarget = pStage->GetBaseChar( m_GrapplingTargetName );

  00112	8b 4d e0	 mov	 ecx, DWORD PTR _pStage$GSCopy$[ebp]
  00115	8d 86 68 11 00
	00		 lea	 eax, DWORD PTR [esi+4456]
  0011b	50		 push	 eax
  0011c	e8 00 00 00 00	 call	 ?GetBaseChar@ioPlayStage@@QAEPAVioBaseChar@@ABVioHashString@@@Z ; ioPlayStage::GetBaseChar
  00121	8b d8		 mov	 ebx, eax

; 732  : 				if( pTarget && pTarget->IsNeedProcess() && pTarget->GetState() == CS_GRAPPLING_WOUNDED_SKILL )

  00123	85 db		 test	 ebx, ebx
  00125	0f 84 fc 00 00
	00		 je	 $LN11@ApplyExtra
  0012b	8b 03		 mov	 eax, DWORD PTR [ebx]
  0012d	8b cb		 mov	 ecx, ebx
  0012f	ff 90 00 01 00
	00		 call	 DWORD PTR [eax+256]
  00135	84 c0		 test	 al, al
  00137	0f 84 ea 00 00
	00		 je	 $LN11@ApplyExtra
  0013d	80 bb 10 03 00
	00 43		 cmp	 BYTE PTR [ebx+784], 67	; 00000043H
  00144	0f 85 dd 00 00
	00		 jne	 $LN11@ApplyExtra

; 733  : 				{
; 734  : 					pTarget->SetTargetRotToRotate( pChar->GetTargetRot(), true, false );

  0014a	6a 00		 push	 0
  0014c	6a 01		 push	 1
  0014e	8d 87 a4 06 00
	00		 lea	 eax, DWORD PTR [edi+1700]
  00154	50		 push	 eax
  00155	8b cb		 mov	 ecx, ebx
  00157	e8 00 00 00 00	 call	 ?SetTargetRotToRotate@ioBaseChar@@QAEXABUD3DXQUATERNION@@_N1@Z ; ioBaseChar::SetTargetRotToRotate

; 735  : 					pTarget->SetGrapplingWoundSwing( pChar->GetCharName(), GetSkillWoundGrapplingInfo(),
; 736  : 						m_SkillSwingedMotion, m_fSkillSwingedMotionRate );

  0015c	d9 86 24 11 00
	00		 fld	 DWORD PTR [esi+4388]
  00162	51		 push	 ecx
  00163	d9 1c 24	 fstp	 DWORD PTR [esp]
  00166	8d 86 14 11 00
	00		 lea	 eax, DWORD PTR [esi+4372]
  0016c	50		 push	 eax
  0016d	8b 06		 mov	 eax, DWORD PTR [esi]
  0016f	83 ec 5c	 sub	 esp, 92			; 0000005cH
  00172	8b cc		 mov	 ecx, esp
  00174	89 65 dc	 mov	 DWORD PTR $T547246[ebp], esp
  00177	51		 push	 ecx
  00178	8b ce		 mov	 ecx, esi
  0017a	ff 90 a4 00 00
	00		 call	 DWORD PTR [eax+164]
  00180	81 c7 d4 02 00
	00		 add	 edi, 724		; 000002d4H
  00186	57		 push	 edi
  00187	8b cb		 mov	 ecx, ebx
  00189	e8 00 00 00 00	 call	 ?SetGrapplingWoundSwing@ioBaseChar@@QAEXABVioHashString@@UGrapplingSkillWoundedInfo@@0M@Z ; ioBaseChar::SetGrapplingWoundSwing

; 737  : 				}
; 738  : 			}
; 739  : 		}
; 740  : 		break;

  0018e	e9 94 00 00 00	 jmp	 $LN11@ApplyExtra
$LN10@ApplyExtra:

; 704  : 	{
; 705  : 	case SSC_GRAP_LOOP:
; 706  : 		{
; 707  : 			ioHashString szTargetName;

  00193	8d 4d a8	 lea	 ecx, DWORD PTR _szTargetName$533176[ebp]
  00196	ff 15 00 00 00
	00		 call	 DWORD PTR __imp_??0ioHashString@@QAE@XZ
  0019c	83 65 fc 00	 and	 DWORD PTR __$EHRec$[ebp+8], 0

; 708  : 			rkPacket >> m_GrapplingTargetName;

  001a0	8d 86 68 11 00
	00		 lea	 eax, DWORD PTR [esi+4456]
  001a6	50		 push	 eax
  001a7	8b cb		 mov	 ecx, ebx
  001a9	e8 00 00 00 00	 call	 ??5SP2Packet@@QAEAAV0@AAVioHashString@@@Z ; SP2Packet::operator>>

; 709  : 
; 710  : 			SetGrapLoopState( pChar );

  001ae	57		 push	 edi
  001af	8b ce		 mov	 ecx, esi
  001b1	e8 00 00 00 00	 call	 ?SetGrapLoopState@ioGrapplingSwing2Skill@@IAEXPAVioBaseChar@@@Z ; ioGrapplingSwing2Skill::SetGrapLoopState

; 711  : 
; 712  : 			ioBaseChar *pTarget = pStage->GetBaseChar( m_GrapplingTargetName );

  001b6	8b 4d e0	 mov	 ecx, DWORD PTR _pStage$GSCopy$[ebp]
  001b9	8d 86 68 11 00
	00		 lea	 eax, DWORD PTR [esi+4456]
  001bf	50		 push	 eax
  001c0	e8 00 00 00 00	 call	 ?GetBaseChar@ioPlayStage@@QAEPAVioBaseChar@@ABVioHashString@@@Z ; ioPlayStage::GetBaseChar
  001c5	8b d8		 mov	 ebx, eax

; 713  : 			if( pTarget && pTarget->IsNeedProcess() )

  001c7	85 db		 test	 ebx, ebx
  001c9	74 42		 je	 SHORT $LN9@ApplyExtra
  001cb	8b 03		 mov	 eax, DWORD PTR [ebx]
  001cd	8b cb		 mov	 ecx, ebx
  001cf	ff 90 00 01 00
	00		 call	 DWORD PTR [eax+256]
  001d5	84 c0		 test	 al, al
  001d7	74 34		 je	 SHORT $LN9@ApplyExtra

; 714  : 			{
; 715  : 				pTarget->SetTargetRotToRotate( qtRot, true, false );

  001d9	6a 00		 push	 0
  001db	6a 01		 push	 1
  001dd	8d 45 c8	 lea	 eax, DWORD PTR _qtRot$[ebp]
  001e0	50		 push	 eax
  001e1	8b cb		 mov	 ecx, ebx
  001e3	e8 00 00 00 00	 call	 ?SetTargetRotToRotate@ioBaseChar@@QAEXABUD3DXQUATERNION@@_N1@Z ; ioBaseChar::SetTargetRotToRotate

; 716  : 				pTarget->SetSkillGrapplingState( pChar->GetCharName(), GetSkillWoundGrapplingInfo(), GetName() );

  001e8	8d 46 24	 lea	 eax, DWORD PTR [esi+36]
  001eb	50		 push	 eax
  001ec	8b 06		 mov	 eax, DWORD PTR [esi]
  001ee	83 ec 5c	 sub	 esp, 92			; 0000005cH
  001f1	8b cc		 mov	 ecx, esp
  001f3	89 65 dc	 mov	 DWORD PTR $T547245[ebp], esp
  001f6	51		 push	 ecx
  001f7	8b ce		 mov	 ecx, esi
  001f9	ff 90 a4 00 00
	00		 call	 DWORD PTR [eax+164]
  001ff	81 c7 d4 02 00
	00		 add	 edi, 724		; 000002d4H
  00205	57		 push	 edi
  00206	8b cb		 mov	 ecx, ebx
  00208	e8 00 00 00 00	 call	 ?SetSkillGrapplingState@ioBaseChar@@QAEXABVioHashString@@UGrapplingSkillWoundedInfo@@0@Z ; ioBaseChar::SetSkillGrapplingState
$LN9@ApplyExtra:

; 717  : 			}
; 718  : 		}

  0020d	83 4d fc ff	 or	 DWORD PTR __$EHRec$[ebp+8], -1
  00211	8d 4d a8	 lea	 ecx, DWORD PTR _szTargetName$533176[ebp]
  00214	ff 15 00 00 00
	00		 call	 DWORD PTR __imp_??1ioHashString@@QAE@XZ

; 719  : 		break;

  0021a	eb 0b		 jmp	 SHORT $LN11@ApplyExtra
$LN8@ApplyExtra:

; 720  : 	case SSC_ATTACK:
; 721  : 		{
; 722  : 			AttackSkillFire( pChar );

  0021c	8b 06		 mov	 eax, DWORD PTR [esi]
  0021e	57		 push	 edi
  0021f	8b ce		 mov	 ecx, esi
  00221	ff 90 8c 01 00
	00		 call	 DWORD PTR [eax+396]
$LN11@ApplyExtra:

; 770  : 	}
; 771  : 
; 772  : }

  00227	e8 00 00 00 00	 call	 __EH_epilog3_GS
  0022c	c2 0c 00	 ret	 12			; 0000000cH
_TEXT	ENDS
;	COMDAT text$x
text$x	SEGMENT
__unwindfunclet$?ApplyExtraSkillInfo@ioGrapplingSwing2Skill@@UAEXPAVioBaseChar@@PAVioPlayStage@@AAVSP2Packet@@@Z$0:
  00000	8d 4d a8	 lea	 ecx, DWORD PTR _szTargetName$533176[ebp]
  00003	ff 25 00 00 00
	00		 jmp	 DWORD PTR __imp_??1ioHashString@@QAE@XZ
__ehhandler$?ApplyExtraSkillInfo@ioGrapplingSwing2Skill@@UAEXPAVioBaseChar@@PAVioPlayStage@@AAVSP2Packet@@@Z:
  00009	8b 54 24 08	 mov	 edx, DWORD PTR [esp+8]
  0000d	8d 42 0c	 lea	 eax, DWORD PTR [edx+12]
  00010	8b 4a a4	 mov	 ecx, DWORD PTR [edx-92]
  00013	33 c8		 xor	 ecx, eax
  00015	e8 00 00 00 00	 call	 @__security_check_cookie@4
  0001a	8b 4a fc	 mov	 ecx, DWORD PTR [edx-4]
  0001d	33 c8		 xor	 ecx, eax
  0001f	e8 00 00 00 00	 call	 @__security_check_cookie@4
  00024	b8 00 00 00 00	 mov	 eax, OFFSET __ehfuncinfo$?ApplyExtraSkillInfo@ioGrapplingSwing2Skill@@UAEXPAVioBaseChar@@PAVioPlayStage@@AAVSP2Packet@@@Z
  00029	e9 00 00 00 00	 jmp	 ___CxxFrameHandler3
text$x	ENDS
?ApplyExtraSkillInfo@ioGrapplingSwing2Skill@@UAEXPAVioBaseChar@@PAVioPlayStage@@AAVSP2Packet@@@Z ENDP ; ioGrapplingSwing2Skill::ApplyExtraSkillInfo
EXTRN	?ReduceCurSkillGaugeBySkill@ioBaseChar@@QAEMPAVioItem@@M@Z:PROC ; ioBaseChar::ReduceCurSkillGaugeBySkill
EXTRN	?IsAttackKey@ioBaseChar@@QBE_NXZ:PROC		; ioBaseChar::IsAttackKey
EXTRN	?GetSingleton@ioApplication@@SAAAV1@XZ:PROC	; ioApplication::GetSingleton
; Function compile flags: /Ogsp
;	COMDAT ?OnProcessState@ioGrapplingSwing2Skill@@UAEXPAVioBaseChar@@PAVioPlayStage@@@Z
_TEXT	SEGMENT
_fCurTicGauge$ = -20					; size = 4
_value$547326 = -16					; size = 4
_value$547318 = -12					; size = 4
_iTickGap$ = -12					; size = 4
_value$547314 = -8					; size = 4
_value$547322 = -8					; size = 4
_dwCurTime$ = -4					; size = 4
_value$547334 = 8					; size = 4
_pChar$ = 8						; size = 4
_pTarget$532966 = 12					; size = 4
_pStage$ = 12						; size = 4
?OnProcessState@ioGrapplingSwing2Skill@@UAEXPAVioBaseChar@@PAVioPlayStage@@@Z PROC ; ioGrapplingSwing2Skill::OnProcessState, COMDAT
; _this$ = ecx

; 235  : {

  00000	55		 push	 ebp
  00001	8b ec		 mov	 ebp, esp
  00003	83 ec 14	 sub	 esp, 20			; 00000014H
  00006	53		 push	 ebx
  00007	56		 push	 esi
  00008	57		 push	 edi
  00009	8b f1		 mov	 esi, ecx

; 236  : 	DWORD dwCurTime = FRAMEGETTIME();

  0000b	ff 15 00 00 00
	00		 call	 DWORD PTR __imp_?GetSingleton@ioFrameTimer@@SAAAV1@XZ
  00011	8b c8		 mov	 ecx, eax
  00013	ff 15 00 00 00
	00		 call	 DWORD PTR __imp_?GetLoopSec@ioFrameTimer@@QBEKXZ
  00019	89 45 fc	 mov	 DWORD PTR _dwCurTime$[ebp], eax

; 237  : 
; 238  : 	float	fCurTicGauge	= m_fGuagePerTic / m_fTicGaugeRateByGrowth;

  0001c	8d 45 f8	 lea	 eax, DWORD PTR _value$547314[ebp]
  0001f	50		 push	 eax
  00020	8d 8e 40 13 00
	00		 lea	 ecx, DWORD PTR [esi+4928]
  00026	e8 00 00 00 00	 call	 ?DecryptValueToPool@?$CEncrypt@M@@QAEXPAM@Z ; CEncrypt<float>::DecryptValueToPool
  0002b	8d 45 f4	 lea	 eax, DWORD PTR _value$547318[ebp]
  0002e	50		 push	 eax
  0002f	8d 8e dc 12 00
	00		 lea	 ecx, DWORD PTR [esi+4828]
  00035	e8 00 00 00 00	 call	 ?DecryptValueToPool@?$CEncrypt@M@@QAEXPAM@Z ; CEncrypt<float>::DecryptValueToPool

; 239  : 	int		iTickGap		= (int)( dwCurTime - m_dwCheckTime );

  0003a	8b 45 fc	 mov	 eax, DWORD PTR _dwCurTime$[ebp]
  0003d	2b 86 3c 13 00
	00		 sub	 eax, DWORD PTR [esi+4924]
  00043	f3 0f 10 45 f4	 movss	 xmm0, DWORD PTR _value$547318[ebp]
  00048	f3 0f 10 4d f8	 movss	 xmm1, DWORD PTR _value$547314[ebp]
  0004d	0f 5a c0	 cvtps2pd xmm0, xmm0
  00050	89 45 f4	 mov	 DWORD PTR _iTickGap$[ebp], eax
  00053	0f 5a c9	 cvtps2pd xmm1, xmm1

; 240  : 	int		iCurTicTime		= m_dwTicTime + m_dwTicTimeByGrowth;

  00056	8d 45 f8	 lea	 eax, DWORD PTR _value$547322[ebp]
  00059	f2 0f 5e c1	 divsd	 xmm0, xmm1
  0005d	66 0f 5a c0	 cvtpd2ps xmm0, xmm0
  00061	50		 push	 eax
  00062	8d 8e 70 13 00
	00		 lea	 ecx, DWORD PTR [esi+4976]
  00068	f3 0f 11 45 ec	 movss	 DWORD PTR _fCurTicGauge$[ebp], xmm0
  0006d	e8 00 00 00 00	 call	 ?DecryptValueToPool@?$CEncrypt@K@@QAEXPAK@Z ; CEncrypt<unsigned long>::DecryptValueToPool
  00072	8d 45 f0	 lea	 eax, DWORD PTR _value$547326[ebp]
  00075	50		 push	 eax
  00076	8d 8e 0c 13 00
	00		 lea	 ecx, DWORD PTR [esi+4876]
  0007c	e8 00 00 00 00	 call	 ?DecryptValueToPool@?$CEncrypt@K@@QAEXPAK@Z ; CEncrypt<unsigned long>::DecryptValueToPool

; 241  : 
; 242  : 	int iSlot = GetOwnerItem()->GetType() - 1;

  00081	8b 8e a4 02 00
	00		 mov	 ecx, DWORD PTR [esi+676]
  00087	8b 5d f0	 mov	 ebx, DWORD PTR _value$547326[ebp]
  0008a	8b 01		 mov	 eax, DWORD PTR [ecx]
  0008c	03 5d f8	 add	 ebx, DWORD PTR _value$547322[ebp]
  0008f	ff 50 08	 call	 DWORD PTR [eax+8]

; 243  : 
; 244  : 	switch( m_SkillState )

  00092	8b 86 e4 10 00
	00		 mov	 eax, DWORD PTR [esi+4324]
  00098	8b 7d 08	 mov	 edi, DWORD PTR _pChar$[ebp]
  0009b	33 c9		 xor	 ecx, ecx
  0009d	2b c1		 sub	 eax, ecx
  0009f	0f 84 6c 01 00
	00		 je	 $LN24@OnProcessS
  000a5	48		 dec	 eax
  000a6	0f 84 09 01 00
	00		 je	 $LN22@OnProcessS
  000ac	48		 dec	 eax
  000ad	74 0a		 je	 SHORT $LN19@OnProcessS
  000af	48		 dec	 eax
  000b0	74 3c		 je	 SHORT $LN17@OnProcessS
  000b2	48		 dec	 eax
  000b3	0f 85 87 01 00
	00		 jne	 $LN57@OnProcessS
$LN19@OnProcessS:

; 271  : 	case SS_ACTION:
; 272  : 		{
; 273  : 			if ( m_dwMotionEndTime > 0 && m_dwMotionEndTime < dwCurTime )

  000b9	8b 86 d8 02 00
	00		 mov	 eax, DWORD PTR [esi+728]
  000bf	3b c1		 cmp	 eax, ecx
  000c1	0f 86 79 01 00
	00		 jbe	 $LN57@OnProcessS
  000c7	3b 45 fc	 cmp	 eax, DWORD PTR _dwCurTime$[ebp]
  000ca	0f 83 70 01 00
	00		 jae	 $LN57@OnProcessS

; 274  : 			{
; 275  : 				pChar->SetTargetRotToRotate( pChar->GetTargetRot(), true, false );

  000d0	51		 push	 ecx
  000d1	6a 01		 push	 1
  000d3	8d 87 a4 06 00
	00		 lea	 eax, DWORD PTR [edi+1700]
  000d9	50		 push	 eax
  000da	8b cf		 mov	 ecx, edi
  000dc	e8 00 00 00 00	 call	 ?SetTargetRotToRotate@ioBaseChar@@QAEXABUD3DXQUATERNION@@_N1@Z ; ioBaseChar::SetTargetRotToRotate

; 276  : 				SetLoopState( pChar );

  000e1	57		 push	 edi
  000e2	8b ce		 mov	 ecx, esi
  000e4	e8 00 00 00 00	 call	 ?SetLoopState@ioGrapplingSwing2Skill@@IAEXPAVioBaseChar@@@Z ; ioGrapplingSwing2Skill::SetLoopState

; 277  : 			}
; 278  : 		}
; 279  : 		break;

  000e9	e9 52 01 00 00	 jmp	 $LN57@OnProcessS
$LN17@OnProcessS:

; 280  : 	case SS_GRAP_LOOP:
; 281  : 		{
; 282  : 			// Target  
; 283  : 			ioBaseChar *pTarget = pStage->GetBaseChar( m_GrapplingTargetName );

  000ee	8b 4d 0c	 mov	 ecx, DWORD PTR _pStage$[ebp]
  000f1	8d 86 68 11 00
	00		 lea	 eax, DWORD PTR [esi+4456]
  000f7	50		 push	 eax
  000f8	e8 00 00 00 00	 call	 ?GetBaseChar@ioPlayStage@@QAEPAVioBaseChar@@ABVioHashString@@@Z ; ioPlayStage::GetBaseChar
  000fd	89 45 0c	 mov	 DWORD PTR _pTarget$532966[ebp], eax

; 284  : 			if( pTarget )

  00100	85 c0		 test	 eax, eax
  00102	74 3b		 je	 SHORT $LN56@OnProcessS

; 285  : 			{
; 286  : 				if( m_SkillGrapLoopStartTime + g_App.GetGrapplingCheckDelay() < dwCurTime &&
; 287  : 					pTarget->GetState() != CS_GRAPPLING_WOUNDED_SKILL )

  00104	e8 00 00 00 00	 call	 ?GetSingleton@ioApplication@@SAAAV1@XZ ; ioApplication::GetSingleton
  00109	8b 8e a0 13 00
	00		 mov	 ecx, DWORD PTR [esi+5024]
  0010f	03 88 1c 06 00
	00		 add	 ecx, DWORD PTR [eax+1564]
  00115	3b 4d fc	 cmp	 ecx, DWORD PTR _dwCurTime$[ebp]
  00118	73 25		 jae	 SHORT $LN56@OnProcessS
  0011a	8b 45 0c	 mov	 eax, DWORD PTR _pTarget$532966[ebp]
  0011d	80 b8 10 03 00
	00 43		 cmp	 BYTE PTR [eax+784], 67	; 00000043H
  00124	74 19		 je	 SHORT $LN56@OnProcessS

; 288  : 				{
; 289  : 					pChar->SetTargetRotToRotate( pChar->GetTargetRot(), true, false );

  00126	6a 00		 push	 0
  00128	6a 01		 push	 1
  0012a	8d 87 a4 06 00
	00		 lea	 eax, DWORD PTR [edi+1700]
  00130	50		 push	 eax
  00131	8b cf		 mov	 ecx, edi
  00133	e8 00 00 00 00	 call	 ?SetTargetRotToRotate@ioBaseChar@@QAEXABUD3DXQUATERNION@@_N1@Z ; ioBaseChar::SetTargetRotToRotate

; 290  : 					SetSkillEndState( pChar, true );

  00138	6a 01		 push	 1

; 291  : 					return;

  0013a	e9 7b 01 00 00	 jmp	 $LN58@OnProcessS
$LN56@OnProcessS:

; 292  : 				}
; 293  : 			}
; 294  : 			
; 295  : 			//  
; 296  : 			if( m_SkillGrapLoopStartTime + m_dwEnableSwingTime < dwCurTime )

  0013f	8b 86 a0 13 00
	00		 mov	 eax, DWORD PTR [esi+5024]
  00145	03 86 30 11 00
	00		 add	 eax, DWORD PTR [esi+4400]
  0014b	3b 45 fc	 cmp	 eax, DWORD PTR _dwCurTime$[ebp]
  0014e	73 3a		 jae	 SHORT $LN13@OnProcessS

; 297  : 			{
; 298  : 				if( pChar->IsNeedProcess() && pChar->IsAttackKey() )

  00150	8b 07		 mov	 eax, DWORD PTR [edi]
  00152	8b cf		 mov	 ecx, edi
  00154	ff 90 00 01 00
	00		 call	 DWORD PTR [eax+256]
  0015a	84 c0		 test	 al, al
  0015c	74 2c		 je	 SHORT $LN13@OnProcessS
  0015e	8b cf		 mov	 ecx, edi
  00160	e8 00 00 00 00	 call	 ?IsAttackKey@ioBaseChar@@QBE_NXZ ; ioBaseChar::IsAttackKey
  00165	84 c0		 test	 al, al
  00167	74 21		 je	 SHORT $LN13@OnProcessS

; 299  : 				{
; 300  : 					pChar->SetTargetRotToRotate( pChar->GetTargetRot(), true, false );

  00169	6a 00		 push	 0
  0016b	6a 01		 push	 1
  0016d	8d 87 a4 06 00
	00		 lea	 eax, DWORD PTR [edi+1700]
  00173	50		 push	 eax
  00174	8b cf		 mov	 ecx, edi
  00176	e8 00 00 00 00	 call	 ?SetTargetRotToRotate@ioBaseChar@@QAEXABUD3DXQUATERNION@@_N1@Z ; ioBaseChar::SetTargetRotToRotate

; 301  : 					SetSwingState( pChar, true );

  0017b	6a 01		 push	 1
  0017d	57		 push	 edi
  0017e	8b ce		 mov	 ecx, esi
  00180	e8 00 00 00 00	 call	 ?SetSwingState@ioGrapplingSwing2Skill@@IAEXPAVioBaseChar@@_N@Z ; ioGrapplingSwing2Skill::SetSwingState

; 302  : 					return;

  00185	e9 38 01 00 00	 jmp	 $LN1@OnProcessS
$LN13@OnProcessS:

; 303  : 				}
; 304  : 			}
; 305  : 
; 306  : 			if( m_bEnableSwingMove )

  0018a	80 be 7c 11 00
	00 00		 cmp	 BYTE PTR [esi+4476], 0
  00191	74 08		 je	 SHORT $LN12@OnProcessS

; 307  : 				CheckSwingMove( pChar );

  00193	57		 push	 edi
  00194	8b ce		 mov	 ecx, esi
  00196	e8 00 00 00 00	 call	 ?CheckSwingMove@ioGrapplingSwing2Skill@@IAEXPAVioBaseChar@@@Z ; ioGrapplingSwing2Skill::CheckSwingMove
$LN12@OnProcessS:

; 308  : 
; 309  : 			if( m_SkillLoopType == SLT_NORMAL )	

  0019b	83 be e8 10 00
	00 01		 cmp	 DWORD PTR [esi+4328], 1
  001a2	0f 85 98 00 00
	00		 jne	 $LN57@OnProcessS

; 310  : 				ProcessLoopDir( pChar );

  001a8	57		 push	 edi
  001a9	8b ce		 mov	 ecx, esi
  001ab	e8 00 00 00 00	 call	 ?ProcessLoopDir@ioGrapplingSwing2Skill@@IAEXPAVioBaseChar@@@Z ; ioGrapplingSwing2Skill::ProcessLoopDir

; 311  : 		}
; 312  : 		break;

  001b0	e9 8b 00 00 00	 jmp	 $LN57@OnProcessS
$LN22@OnProcessS:

; 254  : 			}
; 255  : 		}
; 256  : 		break;
; 257  : 	case SS_LOOP:
; 258  : 		{
; 259  : 			CheckNormalMoveAni( pChar );

  001b5	57		 push	 edi
  001b6	8b ce		 mov	 ecx, esi
  001b8	e8 00 00 00 00	 call	 ?CheckNormalMoveAni@ioGrapplingSwing2Skill@@IAEXPAVioBaseChar@@@Z ; ioGrapplingSwing2Skill::CheckNormalMoveAni

; 260  : 			if( m_dwLoopStartTime > 0 && m_dwLoopStartTime + m_dwLoopDuration < dwCurTime )

  001bd	83 be a4 12 00
	00 00		 cmp	 DWORD PTR [esi+4772], 0
  001c4	76 25		 jbe	 SHORT $LN21@OnProcessS
  001c6	8d 45 08	 lea	 eax, DWORD PTR _value$547334[ebp]
  001c9	50		 push	 eax
  001ca	8d 8e 74 12 00
	00		 lea	 ecx, DWORD PTR [esi+4724]
  001d0	e8 00 00 00 00	 call	 ?DecryptValueToPool@?$CEncrypt@K@@QAEXPAK@Z ; CEncrypt<unsigned long>::DecryptValueToPool
  001d5	8b 86 a4 12 00
	00		 mov	 eax, DWORD PTR [esi+4772]
  001db	03 45 08	 add	 eax, DWORD PTR _value$547334[ebp]
  001de	3b 45 fc	 cmp	 eax, DWORD PTR _dwCurTime$[ebp]
  001e1	73 08		 jae	 SHORT $LN21@OnProcessS

; 261  : 			{
; 262  : 				SetEndState( pChar );

  001e3	57		 push	 edi
  001e4	8b ce		 mov	 ecx, esi
  001e6	e8 00 00 00 00	 call	 ?SetEndState@ioGrapplingSwing2Skill@@IAEXPAVioBaseChar@@@Z ; ioGrapplingSwing2Skill::SetEndState
$LN21@OnProcessS:

; 263  : 			}
; 264  : 
; 265  : 			if ( pChar->IsNeedProcess() && pChar->IsAttackKey() )

  001eb	8b 07		 mov	 eax, DWORD PTR [edi]
  001ed	8b cf		 mov	 ecx, edi
  001ef	ff 90 00 01 00
	00		 call	 DWORD PTR [eax+256]
  001f5	84 c0		 test	 al, al
  001f7	74 47		 je	 SHORT $LN57@OnProcessS
  001f9	8b cf		 mov	 ecx, edi
  001fb	e8 00 00 00 00	 call	 ?IsAttackKey@ioBaseChar@@QBE_NXZ ; ioBaseChar::IsAttackKey
  00200	84 c0		 test	 al, al
  00202	74 3c		 je	 SHORT $LN57@OnProcessS

; 266  : 			{
; 267  : 				AttackSkillFire( pChar );

  00204	8b 06		 mov	 eax, DWORD PTR [esi]
  00206	57		 push	 edi
  00207	8b ce		 mov	 ecx, esi
  00209	ff 90 8c 01 00
	00		 call	 DWORD PTR [eax+396]

; 268  : 			}			
; 269  : 		}
; 270  : 		break;

  0020f	eb 2f		 jmp	 SHORT $LN57@OnProcessS
$LN24@OnProcessS:

; 245  : 	{
; 246  : 	case SS_NONE:
; 247  : 		{
; 248  : 			DWORD dwPreDelay = GetPreDelayTime();

  00211	8b 06		 mov	 eax, DWORD PTR [esi]
  00213	8b ce		 mov	 ecx, esi
  00215	ff 90 34 01 00
	00		 call	 DWORD PTR [eax+308]

; 249  : 			if( m_dwPreDelayStartTime + dwPreDelay < dwCurTime )

  0021b	8d 8e 20 02 00
	00		 lea	 ecx, DWORD PTR [esi+544]
  00221	8b 11		 mov	 edx, DWORD PTR [ecx]
  00223	03 d0		 add	 edx, eax
  00225	3b 55 fc	 cmp	 edx, DWORD PTR _dwCurTime$[ebp]
  00228	73 16		 jae	 SHORT $LN57@OnProcessS

; 250  : 			{
; 251  : 				m_dwPreDelayStartTime = 0;

  0022a	83 21 00	 and	 DWORD PTR [ecx], 0

; 252  : 				SetLoopState( pChar );

  0022d	57		 push	 edi
  0022e	8b ce		 mov	 ecx, esi
  00230	e8 00 00 00 00	 call	 ?SetLoopState@ioGrapplingSwing2Skill@@IAEXPAVioBaseChar@@@Z ; ioGrapplingSwing2Skill::SetLoopState

; 253  : 				EndPreDelayEffect( pChar );

  00235	8b 06		 mov	 eax, DWORD PTR [esi]
  00237	57		 push	 edi
  00238	8b ce		 mov	 ecx, esi
  0023a	ff 90 dc 00 00
	00		 call	 DWORD PTR [eax+220]
$LN57@OnProcessS:

; 313  : 	case SS_SWING:
; 314  : 		{
; 315  : 			if ( m_dwMotionEndTime > 0 && m_dwMotionEndTime < dwCurTime )
; 316  : 			{
; 317  : 				pChar->SetTargetRotToRotate( pChar->GetTargetRot(), true, false );
; 318  : 				SetLoopState( pChar );
; 319  : 			}
; 320  : 		}
; 321  : 		break;
; 322  : 	case SS_END:
; 323  : 		break;
; 324  : 	}
; 325  : 
; 326  : 	if( m_SkillState != SS_END )

  00240	83 be e4 10 00
	00 05		 cmp	 DWORD PTR [esi+4324], 5
  00247	74 79		 je	 SHORT $LN1@OnProcessS

; 327  : 	{
; 328  : 		if( iTickGap >= iCurTicTime )

  00249	39 5d f4	 cmp	 DWORD PTR _iTickGap$[ebp], ebx
  0024c	7c 74		 jl	 SHORT $LN1@OnProcessS

; 329  : 		{
; 330  : 			m_dwCheckTime = dwCurTime - ( iTickGap - iCurTicTime );

  0024e	2b 5d f4	 sub	 ebx, DWORD PTR _iTickGap$[ebp]

; 331  : 			
; 332  : 			if( fCurTicGauge != 0.0f )

  00251	f3 0f 10 45 ec	 movss	 xmm0, DWORD PTR _fCurTicGauge$[ebp]
  00256	03 5d fc	 add	 ebx, DWORD PTR _dwCurTime$[ebp]
  00259	0f 2e 05 00 00
	00 00		 ucomiss xmm0, DWORD PTR __real@00000000
  00260	9f		 lahf
  00261	89 9e 3c 13 00
	00		 mov	 DWORD PTR [esi+4924], ebx
  00267	f6 c4 44	 test	 ah, 68			; 00000044H
  0026a	7b 56		 jnp	 SHORT $LN1@OnProcessS

; 333  : 			{
; 334  : 				//      .
; 335  : 				if( pChar->ReduceCurSkillGaugeBySkill( GetOwnerItem(), fCurTicGauge ) <= 0.0f )

  0026c	8b 86 a4 02 00
	00		 mov	 eax, DWORD PTR [esi+676]
  00272	51		 push	 ecx
  00273	f3 0f 11 04 24	 movss	 DWORD PTR [esp], xmm0
  00278	50		 push	 eax
  00279	8b cf		 mov	 ecx, edi
  0027b	e8 00 00 00 00	 call	 ?ReduceCurSkillGaugeBySkill@ioBaseChar@@QAEMPAVioItem@@M@Z ; ioBaseChar::ReduceCurSkillGaugeBySkill
  00280	d9 ee		 fldz
  00282	df f1		 fcomip	 ST(1)
  00284	dd d8		 fstp	 ST(0)
  00286	72 3a		 jb	 SHORT $LN1@OnProcessS

; 336  : 				{
; 337  : 					if( m_SkillState != SS_END && m_SkillState != SS_GRAP_LOOP )

  00288	8b 86 e4 10 00
	00		 mov	 eax, DWORD PTR [esi+4324]
  0028e	83 f8 05	 cmp	 eax, 5
  00291	74 0f		 je	 SHORT $LN3@OnProcessS
  00293	83 f8 03	 cmp	 eax, 3
  00296	74 0f		 je	 SHORT $LN60@OnProcessS

; 338  : 					{
; 339  : 						SetEndState( pChar );

  00298	57		 push	 edi
  00299	8b ce		 mov	 ecx, esi
  0029b	e8 00 00 00 00	 call	 ?SetEndState@ioGrapplingSwing2Skill@@IAEXPAVioBaseChar@@@Z ; ioGrapplingSwing2Skill::SetEndState

; 340  : 						return;

  002a0	eb 20		 jmp	 SHORT $LN1@OnProcessS
$LN3@OnProcessS:

; 341  : 					}
; 342  : 					if ( m_SkillState == SS_GRAP_LOOP )

  002a2	83 f8 03	 cmp	 eax, 3
  002a5	75 1b		 jne	 SHORT $LN1@OnProcessS
$LN60@OnProcessS:

; 343  : 					{
; 344  : 						if ( m_SkillGrapLoopStartTime + m_dwEnableSwingTime < dwCurTime )

  002a7	8b 86 a0 13 00
	00		 mov	 eax, DWORD PTR [esi+5024]
  002ad	03 86 30 11 00
	00		 add	 eax, DWORD PTR [esi+4400]
  002b3	3b 45 fc	 cmp	 eax, DWORD PTR _dwCurTime$[ebp]
  002b6	73 0a		 jae	 SHORT $LN1@OnProcessS

; 345  : 						{
; 346  : 							SetSkillEndState( pChar, false );

  002b8	6a 00		 push	 0
$LN58@OnProcessS:
  002ba	57		 push	 edi
  002bb	8b ce		 mov	 ecx, esi
  002bd	e8 00 00 00 00	 call	 ?SetSkillEndState@ioGrapplingSwing2Skill@@IAEXPAVioBaseChar@@_N@Z ; ioGrapplingSwing2Skill::SetSkillEndState
$LN1@OnProcessS:
  002c2	5f		 pop	 edi
  002c3	5e		 pop	 esi
  002c4	5b		 pop	 ebx

; 347  : 							return;
; 348  : 						}
; 349  : 					}
; 350  : 				}
; 351  : 			}
; 352  : 		}
; 353  : 	}
; 354  : }

  002c5	c9		 leave
  002c6	c2 08 00	 ret	 8
?OnProcessState@ioGrapplingSwing2Skill@@UAEXPAVioBaseChar@@PAVioPlayStage@@@Z ENDP ; ioGrapplingSwing2Skill::OnProcessState
_TEXT	ENDS
END
