; Listing generated by Microsoft (R) Optimizing Compiler Version 16.00.30319.01 

	TITLE	D:\Lost Saga For Developer\Youtube\Tutorial\Source\src\LSClient\ioGuildChatMgr.cpp
	.686P
	.XMM
	include listing.inc
	.model	flat

INCLUDELIB MSVCRT
INCLUDELIB OLDNAMES

PUBLIC	?ms_Singleton@?$Singleton@VioGuildChatMgr@@@@1PAVioGuildChatMgr@@A ; Singleton<ioGuildChatMgr>::ms_Singleton
;	COMDAT ?ms_Singleton@?$Singleton@VioGuildChatMgr@@@@1PAVioGuildChatMgr@@A
_BSS	SEGMENT
?ms_Singleton@?$Singleton@VioGuildChatMgr@@@@1PAVioGuildChatMgr@@A DD 01H DUP (?) ; Singleton<ioGuildChatMgr>::ms_Singleton
_BSS	ENDS
PUBLIC	??0tagChatInfo@@QAE@XZ				; tagChatInfo::tagChatInfo
EXTRN	__imp_??1ioHashString@@QAE@XZ:PROC
EXTRN	??1ioComplexStringPrinter@@QAE@XZ:PROC		; ioComplexStringPrinter::~ioComplexStringPrinter
EXTRN	__imp_?Clear@ioHashString@@QAEXXZ:PROC
EXTRN	?ClearList@ioComplexStringPrinter@@QAEXXZ:PROC	; ioComplexStringPrinter::ClearList
EXTRN	__imp_??0ioHashString@@QAE@XZ:PROC
EXTRN	??0ioComplexStringPrinter@@QAE@XZ:PROC		; ioComplexStringPrinter::ioComplexStringPrinter
EXTRN	___CxxFrameHandler3:PROC
EXTRN	@__security_check_cookie@4:PROC
EXTRN	__EH_epilog3:PROC
EXTRN	__EH_prolog3:PROC
;	COMDAT xdata$x
; File d:\lost saga for developer\youtube\tutorial\source\src\lsclient\gui\iochannelmanager.h
xdata$x	SEGMENT
__unwindtable$??0tagChatInfo@@QAE@XZ DD 0ffffffffH
	DD	FLAT:__unwindfunclet$??0tagChatInfo@@QAE@XZ$0
	DD	00H
	DD	FLAT:__unwindfunclet$??0tagChatInfo@@QAE@XZ$1
	DD	01H
	DD	FLAT:__unwindfunclet$??0tagChatInfo@@QAE@XZ$2
__ehfuncinfo$??0tagChatInfo@@QAE@XZ DD 019930522H
	DD	03H
	DD	FLAT:__unwindtable$??0tagChatInfo@@QAE@XZ
	DD	2 DUP(00H)
	DD	2 DUP(00H)
	DD	00H
	DD	01H
; Function compile flags: /Ogsp
xdata$x	ENDS
;	COMDAT ??0tagChatInfo@@QAE@XZ
_TEXT	SEGMENT
_this$ = -16						; size = 4
__$EHRec$ = -12						; size = 12
??0tagChatInfo@@QAE@XZ PROC				; tagChatInfo::tagChatInfo, COMDAT
; _this$ = ecx

; 17   : 	tagChatInfo()

  00000	6a 04		 push	 4
  00002	b8 00 00 00 00	 mov	 eax, __ehhandler$??0tagChatInfo@@QAE@XZ
  00007	e8 00 00 00 00	 call	 __EH_prolog3
  0000c	8b f1		 mov	 esi, ecx
  0000e	89 75 f0	 mov	 DWORD PTR _this$[ebp], esi
  00011	e8 00 00 00 00	 call	 ??0ioComplexStringPrinter@@QAE@XZ ; ioComplexStringPrinter::ioComplexStringPrinter
  00016	83 65 fc 00	 and	 DWORD PTR __$EHRec$[ebp+8], 0
  0001a	8d 4e 20	 lea	 ecx, DWORD PTR [esi+32]
  0001d	e8 00 00 00 00	 call	 ??0ioComplexStringPrinter@@QAE@XZ ; ioComplexStringPrinter::ioComplexStringPrinter
  00022	8d 4e 40	 lea	 ecx, DWORD PTR [esi+64]
  00025	c6 45 fc 01	 mov	 BYTE PTR __$EHRec$[ebp+8], 1
  00029	ff 15 00 00 00
	00		 call	 DWORD PTR __imp_??0ioHashString@@QAE@XZ

; 18   : 	{
; 19   : 		m_Printer.ClearList();

  0002f	8b ce		 mov	 ecx, esi
  00031	c6 45 fc 02	 mov	 BYTE PTR __$EHRec$[ebp+8], 2
  00035	e8 00 00 00 00	 call	 ?ClearList@ioComplexStringPrinter@@QAEXXZ ; ioComplexStringPrinter::ClearList

; 20   : 		m_OverPrinter.ClearList();

  0003a	8d 4e 20	 lea	 ecx, DWORD PTR [esi+32]
  0003d	e8 00 00 00 00	 call	 ?ClearList@ioComplexStringPrinter@@QAEXXZ ; ioComplexStringPrinter::ClearList

; 21   : 		m_szID.Clear();

  00042	8d 4e 40	 lea	 ecx, DWORD PTR [esi+64]
  00045	ff 15 00 00 00
	00		 call	 DWORD PTR __imp_?Clear@ioHashString@@QAEXXZ

; 22   : 		m_Index  = 0;

  0004b	83 66 50 00	 and	 DWORD PTR [esi+80], 0

; 23   : 		m_bFirst = false;

  0004f	c6 46 54 00	 mov	 BYTE PTR [esi+84], 0

; 24   : 	}

  00053	8b c6		 mov	 eax, esi
  00055	e8 00 00 00 00	 call	 __EH_epilog3
  0005a	c3		 ret	 0
_TEXT	ENDS
;	COMDAT text$x
text$x	SEGMENT
__unwindfunclet$??0tagChatInfo@@QAE@XZ$0:
  00000	8b 4d f0	 mov	 ecx, DWORD PTR _this$[ebp]
  00003	e9 00 00 00 00	 jmp	 ??1ioComplexStringPrinter@@QAE@XZ ; ioComplexStringPrinter::~ioComplexStringPrinter
__unwindfunclet$??0tagChatInfo@@QAE@XZ$1:
  00008	8b 4d f0	 mov	 ecx, DWORD PTR _this$[ebp]
  0000b	83 c1 20	 add	 ecx, 32			; 00000020H
  0000e	e9 00 00 00 00	 jmp	 ??1ioComplexStringPrinter@@QAE@XZ ; ioComplexStringPrinter::~ioComplexStringPrinter
__unwindfunclet$??0tagChatInfo@@QAE@XZ$2:
  00013	8b 4d f0	 mov	 ecx, DWORD PTR _this$[ebp]
  00016	83 c1 40	 add	 ecx, 64			; 00000040H
  00019	ff 25 00 00 00
	00		 jmp	 DWORD PTR __imp_??1ioHashString@@QAE@XZ
__ehhandler$??0tagChatInfo@@QAE@XZ:
  0001f	8b 54 24 08	 mov	 edx, DWORD PTR [esp+8]
  00023	8d 42 0c	 lea	 eax, DWORD PTR [edx+12]
  00026	8b 4a ec	 mov	 ecx, DWORD PTR [edx-20]
  00029	33 c8		 xor	 ecx, eax
  0002b	e8 00 00 00 00	 call	 @__security_check_cookie@4
  00030	b8 00 00 00 00	 mov	 eax, OFFSET __ehfuncinfo$??0tagChatInfo@@QAE@XZ
  00035	e9 00 00 00 00	 jmp	 ___CxxFrameHandler3
text$x	ENDS
??0tagChatInfo@@QAE@XZ ENDP				; tagChatInfo::tagChatInfo
PUBLIC	??1tagChatInfo@@QAE@XZ				; tagChatInfo::~tagChatInfo
;	COMDAT xdata$x
xdata$x	SEGMENT
__unwindtable$??1tagChatInfo@@QAE@XZ DD 0ffffffffH
	DD	FLAT:__unwindfunclet$??1tagChatInfo@@QAE@XZ$0
	DD	00H
	DD	FLAT:__unwindfunclet$??1tagChatInfo@@QAE@XZ$1
__ehfuncinfo$??1tagChatInfo@@QAE@XZ DD 019930522H
	DD	02H
	DD	FLAT:__unwindtable$??1tagChatInfo@@QAE@XZ
	DD	2 DUP(00H)
	DD	2 DUP(00H)
	DD	00H
	DD	01H
; Function compile flags: /Ogsp
xdata$x	ENDS
;	COMDAT ??1tagChatInfo@@QAE@XZ
_TEXT	SEGMENT
_this$ = -16						; size = 4
__$EHRec$ = -12						; size = 12
??1tagChatInfo@@QAE@XZ PROC				; tagChatInfo::~tagChatInfo, COMDAT
; _this$ = ecx
  00000	6a 04		 push	 4
  00002	b8 00 00 00 00	 mov	 eax, __ehhandler$??1tagChatInfo@@QAE@XZ
  00007	e8 00 00 00 00	 call	 __EH_prolog3
  0000c	8b f1		 mov	 esi, ecx
  0000e	89 75 f0	 mov	 DWORD PTR _this$[ebp], esi
  00011	8d 4e 40	 lea	 ecx, DWORD PTR [esi+64]
  00014	c7 45 fc 01 00
	00 00		 mov	 DWORD PTR __$EHRec$[ebp+8], 1
  0001b	ff 15 00 00 00
	00		 call	 DWORD PTR __imp_??1ioHashString@@QAE@XZ
  00021	8d 4e 20	 lea	 ecx, DWORD PTR [esi+32]
  00024	c6 45 fc 00	 mov	 BYTE PTR __$EHRec$[ebp+8], 0
  00028	e8 00 00 00 00	 call	 ??1ioComplexStringPrinter@@QAE@XZ ; ioComplexStringPrinter::~ioComplexStringPrinter
  0002d	83 4d fc ff	 or	 DWORD PTR __$EHRec$[ebp+8], -1
  00031	8b ce		 mov	 ecx, esi
  00033	e8 00 00 00 00	 call	 ??1ioComplexStringPrinter@@QAE@XZ ; ioComplexStringPrinter::~ioComplexStringPrinter
  00038	e8 00 00 00 00	 call	 __EH_epilog3
  0003d	c3		 ret	 0
_TEXT	ENDS
;	COMDAT text$x
text$x	SEGMENT
__unwindfunclet$??1tagChatInfo@@QAE@XZ$0:
  00000	8b 4d f0	 mov	 ecx, DWORD PTR _this$[ebp]
  00003	e9 00 00 00 00	 jmp	 ??1ioComplexStringPrinter@@QAE@XZ ; ioComplexStringPrinter::~ioComplexStringPrinter
__unwindfunclet$??1tagChatInfo@@QAE@XZ$1:
  00008	8b 4d f0	 mov	 ecx, DWORD PTR _this$[ebp]
  0000b	83 c1 20	 add	 ecx, 32			; 00000020H
  0000e	e9 00 00 00 00	 jmp	 ??1ioComplexStringPrinter@@QAE@XZ ; ioComplexStringPrinter::~ioComplexStringPrinter
__ehhandler$??1tagChatInfo@@QAE@XZ:
  00013	8b 54 24 08	 mov	 edx, DWORD PTR [esp+8]
  00017	8d 42 0c	 lea	 eax, DWORD PTR [edx+12]
  0001a	8b 4a ec	 mov	 ecx, DWORD PTR [edx-20]
  0001d	33 c8		 xor	 ecx, eax
  0001f	e8 00 00 00 00	 call	 @__security_check_cookie@4
  00024	b8 00 00 00 00	 mov	 eax, OFFSET __ehfuncinfo$??1tagChatInfo@@QAE@XZ
  00029	e9 00 00 00 00	 jmp	 ___CxxFrameHandler3
text$x	ENDS
??1tagChatInfo@@QAE@XZ ENDP				; tagChatInfo::~tagChatInfo
PUBLIC	?IsUpdate@ioGuildChatMgr@@QAE_NXZ		; ioGuildChatMgr::IsUpdate
EXTRN	?IsGuild@ioGuildInfo@@QAE_NXZ:PROC		; ioGuildInfo::IsGuild
EXTRN	?GetSingleton@ioGuildInfo@@SAAAV1@XZ:PROC	; ioGuildInfo::GetSingleton
; Function compile flags: /Ogsp
; File d:\lost saga for developer\youtube\tutorial\source\src\lsclient\ioguildchatmgr.cpp
;	COMDAT ?IsUpdate@ioGuildChatMgr@@QAE_NXZ
_TEXT	SEGMENT
?IsUpdate@ioGuildChatMgr@@QAE_NXZ PROC			; ioGuildChatMgr::IsUpdate, COMDAT
; _this$ = ecx

; 35   : {

  00000	56		 push	 esi
  00001	8b f1		 mov	 esi, ecx

; 36   : 	if( !g_GuildInfo.IsGuild() )

  00003	e8 00 00 00 00	 call	 ?GetSingleton@ioGuildInfo@@SAAAV1@XZ ; ioGuildInfo::GetSingleton
  00008	8b c8		 mov	 ecx, eax
  0000a	e8 00 00 00 00	 call	 ?IsGuild@ioGuildInfo@@QAE_NXZ ; ioGuildInfo::IsGuild
  0000f	84 c0		 test	 al, al
  00011	75 03		 jne	 SHORT $LN1@IsUpdate

; 37   : 		m_bUpdate = false;

  00013	88 46 14	 mov	 BYTE PTR [esi+20], al
$LN1@IsUpdate:

; 38   : 	return m_bUpdate;

  00016	8a 46 14	 mov	 al, BYTE PTR [esi+20]
  00019	5e		 pop	 esi

; 39   : }

  0001a	c3		 ret	 0
?IsUpdate@ioGuildChatMgr@@QAE_NXZ ENDP			; ioGuildChatMgr::IsUpdate
_TEXT	ENDS
PUBLIC	?AddSentenceIndex@ioGuildChatMgr@@QAEXXZ	; ioGuildChatMgr::AddSentenceIndex
; Function compile flags: /Ogsp
;	COMDAT ?AddSentenceIndex@ioGuildChatMgr@@QAEXXZ
_TEXT	SEGMENT
?AddSentenceIndex@ioGuildChatMgr@@QAEXXZ PROC		; ioGuildChatMgr::AddSentenceIndex, COMDAT
; _this$ = ecx

; 104  : 	m_dwSentenceIndexer++;

  00000	ff 41 18	 inc	 DWORD PTR [ecx+24]

; 105  : }

  00003	c3		 ret	 0
?AddSentenceIndex@ioGuildChatMgr@@QAEXXZ ENDP		; ioGuildChatMgr::AddSentenceIndex
_TEXT	ENDS
PUBLIC	?empty@?$basic_string@DU?$char_traits@D@std@@V?$allocator@D@2@@std@@QBE_NXZ ; std::basic_string<char,std::char_traits<char>,std::allocator<char> >::empty
; Function compile flags: /Ogsp
; File c:\program files (x86)\microsoft visual studio 10.0\vc\include\xstring
;	COMDAT ?empty@?$basic_string@DU?$char_traits@D@std@@V?$allocator@D@2@@std@@QBE_NXZ
_TEXT	SEGMENT
?empty@?$basic_string@DU?$char_traits@D@std@@V?$allocator@D@2@@std@@QBE_NXZ PROC ; std::basic_string<char,std::char_traits<char>,std::allocator<char> >::empty, COMDAT
; _this$ = ecx

; 1551 : 		return (this->_Mysize == 0);

  00000	33 c0		 xor	 eax, eax
  00002	39 41 10	 cmp	 DWORD PTR [ecx+16], eax
  00005	0f 94 c0	 sete	 al

; 1552 : 		}

  00008	c3		 ret	 0
?empty@?$basic_string@DU?$char_traits@D@std@@V?$allocator@D@2@@std@@QBE_NXZ ENDP ; std::basic_string<char,std::char_traits<char>,std::allocator<char> >::empty
_TEXT	ENDS
PUBLIC	?size@?$vector@PAUtagChatInfo@@V?$allocator@PAUtagChatInfo@@@std@@@std@@QBEIXZ ; std::vector<tagChatInfo *,std::allocator<tagChatInfo *> >::size
; Function compile flags: /Ogsp
; File c:\program files (x86)\microsoft visual studio 10.0\vc\include\vector
;	COMDAT ?size@?$vector@PAUtagChatInfo@@V?$allocator@PAUtagChatInfo@@@std@@@std@@QBEIXZ
_TEXT	SEGMENT
?size@?$vector@PAUtagChatInfo@@V?$allocator@PAUtagChatInfo@@@std@@@std@@QBEIXZ PROC ; std::vector<tagChatInfo *,std::allocator<tagChatInfo *> >::size, COMDAT
; _this$ = ecx

; 879  : 		return (this->_Mylast - this->_Myfirst);

  00000	8b 41 04	 mov	 eax, DWORD PTR [ecx+4]
  00003	2b 01		 sub	 eax, DWORD PTR [ecx]
  00005	c1 f8 02	 sar	 eax, 2

; 880  : 		}

  00008	c3		 ret	 0
?size@?$vector@PAUtagChatInfo@@V?$allocator@PAUtagChatInfo@@@std@@@std@@QBEIXZ ENDP ; std::vector<tagChatInfo *,std::allocator<tagChatInfo *> >::size
_TEXT	ENDS
PUBLIC	??A?$vector@PAUtagChatInfo@@V?$allocator@PAUtagChatInfo@@@std@@@std@@QAEAAPAUtagChatInfo@@I@Z ; std::vector<tagChatInfo *,std::allocator<tagChatInfo *> >::operator[]
; Function compile flags: /Ogsp
;	COMDAT ??A?$vector@PAUtagChatInfo@@V?$allocator@PAUtagChatInfo@@@std@@@std@@QAEAAPAUtagChatInfo@@I@Z
_TEXT	SEGMENT
__Pos$ = 8						; size = 4
??A?$vector@PAUtagChatInfo@@V?$allocator@PAUtagChatInfo@@@std@@@std@@QAEAAPAUtagChatInfo@@I@Z PROC ; std::vector<tagChatInfo *,std::allocator<tagChatInfo *> >::operator[], COMDAT
; _this$ = ecx

; 928  : 		{	// subscript mutable sequence

  00000	55		 push	 ebp
  00001	8b ec		 mov	 ebp, esp

; 929  :  #if _ITERATOR_DEBUG_LEVEL == 2
; 930  : 		if (size() <= _Pos)
; 931  : 			{	// report error
; 932  : 			_DEBUG_ERROR("vector subscript out of range");
; 933  : 			_SCL_SECURE_OUT_OF_RANGE;
; 934  : 			}
; 935  : 
; 936  :  #elif _ITERATOR_DEBUG_LEVEL == 1
; 937  : 		_SCL_SECURE_VALIDATE_RANGE(_Pos < size());
; 938  :  #endif /* _ITERATOR_DEBUG_LEVEL */
; 939  : 
; 940  : 		return (*(this->_Myfirst + _Pos));

  00003	8b 01		 mov	 eax, DWORD PTR [ecx]
  00005	8b 4d 08	 mov	 ecx, DWORD PTR __Pos$[ebp]
  00008	8d 04 88	 lea	 eax, DWORD PTR [eax+ecx*4]

; 941  : 		}

  0000b	5d		 pop	 ebp
  0000c	c2 04 00	 ret	 4
??A?$vector@PAUtagChatInfo@@V?$allocator@PAUtagChatInfo@@@std@@@std@@QAEAAPAUtagChatInfo@@I@Z ENDP ; std::vector<tagChatInfo *,std::allocator<tagChatInfo *> >::operator[]
_TEXT	ENDS
PUBLIC	??0?$Singleton@VioGuildChatMgr@@@@QAE@XZ	; Singleton<ioGuildChatMgr>::Singleton<ioGuildChatMgr>
; Function compile flags: /Ogsp
; File d:\lost saga for developer\youtube\tutorial\source\src\io3dengine\iosingleton.h
;	COMDAT ??0?$Singleton@VioGuildChatMgr@@@@QAE@XZ
_TEXT	SEGMENT
??0?$Singleton@VioGuildChatMgr@@@@QAE@XZ PROC		; Singleton<ioGuildChatMgr>::Singleton<ioGuildChatMgr>, COMDAT
; _this$ = ecx

; 27   : 	Singleton()

  00000	8b c1		 mov	 eax, ecx

; 28   : 	{
; 29   : 		assert( !ms_Singleton );
; 30   : 		int offset = (int)(T*)1 - (int)(Singleton <T>*)(T*)1;
; 31   : 		ms_Singleton = (T*)((int)this + offset);

  00002	8d 48 fc	 lea	 ecx, DWORD PTR [eax-4]
  00005	89 0d 00 00 00
	00		 mov	 DWORD PTR ?ms_Singleton@?$Singleton@VioGuildChatMgr@@@@1PAVioGuildChatMgr@@A, ecx ; Singleton<ioGuildChatMgr>::ms_Singleton

; 32   : 	}

  0000b	c3		 ret	 0
??0?$Singleton@VioGuildChatMgr@@@@QAE@XZ ENDP		; Singleton<ioGuildChatMgr>::Singleton<ioGuildChatMgr>
_TEXT	ENDS
PUBLIC	??1?$Singleton@VioGuildChatMgr@@@@QAE@XZ	; Singleton<ioGuildChatMgr>::~Singleton<ioGuildChatMgr>
; Function compile flags: /Ogsp
;	COMDAT ??1?$Singleton@VioGuildChatMgr@@@@QAE@XZ
_TEXT	SEGMENT
??1?$Singleton@VioGuildChatMgr@@@@QAE@XZ PROC		; Singleton<ioGuildChatMgr>::~Singleton<ioGuildChatMgr>, COMDAT
; _this$ = ecx

; 36   : 		assert( ms_Singleton );
; 37   : 		ms_Singleton = 0;

  00000	83 25 00 00 00
	00 00		 and	 DWORD PTR ?ms_Singleton@?$Singleton@VioGuildChatMgr@@@@1PAVioGuildChatMgr@@A, 0 ; Singleton<ioGuildChatMgr>::ms_Singleton

; 38   : 	}

  00007	c3		 ret	 0
??1?$Singleton@VioGuildChatMgr@@@@QAE@XZ ENDP		; Singleton<ioGuildChatMgr>::~Singleton<ioGuildChatMgr>
_TEXT	ENDS
PUBLIC	??_7bad_alloc@std@@6B@				; std::bad_alloc::`vftable'
PUBLIC	??0bad_alloc@std@@QAE@PBD@Z			; std::bad_alloc::bad_alloc
PUBLIC	??_R4bad_alloc@std@@6B@				; std::bad_alloc::`RTTI Complete Object Locator'
PUBLIC	??_R0?AVbad_alloc@std@@@8			; std::bad_alloc `RTTI Type Descriptor'
PUBLIC	??_R3bad_alloc@std@@8				; std::bad_alloc::`RTTI Class Hierarchy Descriptor'
PUBLIC	??_R2bad_alloc@std@@8				; std::bad_alloc::`RTTI Base Class Array'
PUBLIC	??_R1A@?0A@EA@bad_alloc@std@@8			; std::bad_alloc::`RTTI Base Class Descriptor at (0,-1,0,64)'
PUBLIC	??_R1A@?0A@EA@exception@std@@8			; std::exception::`RTTI Base Class Descriptor at (0,-1,0,64)'
PUBLIC	??_R0?AVexception@std@@@8			; std::exception `RTTI Type Descriptor'
PUBLIC	??_R3exception@std@@8				; std::exception::`RTTI Class Hierarchy Descriptor'
PUBLIC	??_R2exception@std@@8				; std::exception::`RTTI Base Class Array'
EXTRN	__imp_??0exception@std@@QAE@ABQBD@Z:PROC
EXTRN	??_7type_info@@6B@:QWORD			; type_info::`vftable'
EXTRN	??_Ebad_alloc@std@@UAEPAXI@Z:PROC		; std::bad_alloc::`vector deleting destructor'
EXTRN	?what@exception@std@@UBEPBDXZ:PROC		; std::exception::what
;	COMDAT ??_R2exception@std@@8
; File c:\program files (x86)\microsoft visual studio 10.0\vc\include\exception
rdata$r	SEGMENT
??_R2exception@std@@8 DD FLAT:??_R1A@?0A@EA@exception@std@@8 ; std::exception::`RTTI Base Class Array'
rdata$r	ENDS
;	COMDAT ??_R3exception@std@@8
rdata$r	SEGMENT
??_R3exception@std@@8 DD 00H				; std::exception::`RTTI Class Hierarchy Descriptor'
	DD	00H
	DD	01H
	DD	FLAT:??_R2exception@std@@8
rdata$r	ENDS
;	COMDAT ??_R0?AVexception@std@@@8
_DATA	SEGMENT
??_R0?AVexception@std@@@8 DD FLAT:??_7type_info@@6B@	; std::exception `RTTI Type Descriptor'
	DD	00H
	DB	'.?AVexception@std@@', 00H
_DATA	ENDS
;	COMDAT ??_R1A@?0A@EA@exception@std@@8
rdata$r	SEGMENT
??_R1A@?0A@EA@exception@std@@8 DD FLAT:??_R0?AVexception@std@@@8 ; std::exception::`RTTI Base Class Descriptor at (0,-1,0,64)'
	DD	00H
	DD	00H
	DD	0ffffffffH
	DD	00H
	DD	040H
	DD	FLAT:??_R3exception@std@@8
rdata$r	ENDS
;	COMDAT ??_R1A@?0A@EA@bad_alloc@std@@8
rdata$r	SEGMENT
??_R1A@?0A@EA@bad_alloc@std@@8 DD FLAT:??_R0?AVbad_alloc@std@@@8 ; std::bad_alloc::`RTTI Base Class Descriptor at (0,-1,0,64)'
	DD	01H
	DD	00H
	DD	0ffffffffH
	DD	00H
	DD	040H
	DD	FLAT:??_R3bad_alloc@std@@8
rdata$r	ENDS
;	COMDAT ??_R2bad_alloc@std@@8
rdata$r	SEGMENT
??_R2bad_alloc@std@@8 DD FLAT:??_R1A@?0A@EA@bad_alloc@std@@8 ; std::bad_alloc::`RTTI Base Class Array'
	DD	FLAT:??_R1A@?0A@EA@exception@std@@8
rdata$r	ENDS
;	COMDAT ??_R3bad_alloc@std@@8
rdata$r	SEGMENT
??_R3bad_alloc@std@@8 DD 00H				; std::bad_alloc::`RTTI Class Hierarchy Descriptor'
	DD	00H
	DD	02H
	DD	FLAT:??_R2bad_alloc@std@@8
rdata$r	ENDS
;	COMDAT ??_R0?AVbad_alloc@std@@@8
_DATA	SEGMENT
??_R0?AVbad_alloc@std@@@8 DD FLAT:??_7type_info@@6B@	; std::bad_alloc `RTTI Type Descriptor'
	DD	00H
	DB	'.?AVbad_alloc@std@@', 00H
_DATA	ENDS
;	COMDAT ??_R4bad_alloc@std@@6B@
rdata$r	SEGMENT
??_R4bad_alloc@std@@6B@ DD 00H				; std::bad_alloc::`RTTI Complete Object Locator'
	DD	00H
	DD	00H
	DD	FLAT:??_R0?AVbad_alloc@std@@@8
	DD	FLAT:??_R3bad_alloc@std@@8
rdata$r	ENDS
;	COMDAT ??_7bad_alloc@std@@6B@
CONST	SEGMENT
??_7bad_alloc@std@@6B@ DD FLAT:??_R4bad_alloc@std@@6B@	; std::bad_alloc::`vftable'
	DD	FLAT:??_Ebad_alloc@std@@UAEPAXI@Z
	DD	FLAT:?what@exception@std@@UBEPBDXZ
; Function compile flags: /Ogsp
CONST	ENDS
;	COMDAT ??0bad_alloc@std@@QAE@PBD@Z
_TEXT	SEGMENT
__Message$ = 8						; size = 4
??0bad_alloc@std@@QAE@PBD@Z PROC			; std::bad_alloc::bad_alloc, COMDAT
; _this$ = ecx

; 345  : 		{	// construct from message string

  00000	55		 push	 ebp
  00001	8b ec		 mov	 ebp, esp
  00003	56		 push	 esi
  00004	8d 45 08	 lea	 eax, DWORD PTR __Message$[ebp]
  00007	50		 push	 eax
  00008	8b f1		 mov	 esi, ecx
  0000a	ff 15 00 00 00
	00		 call	 DWORD PTR __imp_??0exception@std@@QAE@ABQBD@Z
  00010	c7 06 00 00 00
	00		 mov	 DWORD PTR [esi], OFFSET ??_7bad_alloc@std@@6B@

; 346  : 		}

  00016	8b c6		 mov	 eax, esi
  00018	5e		 pop	 esi
  00019	5d		 pop	 ebp
  0001a	c2 04 00	 ret	 4
??0bad_alloc@std@@QAE@PBD@Z ENDP			; std::bad_alloc::bad_alloc
_TEXT	ENDS
PUBLIC	?GetSingleton@?$Singleton@VioGuildChatMgr@@@@SAAAVioGuildChatMgr@@XZ ; Singleton<ioGuildChatMgr>::GetSingleton
; Function compile flags: /Ogsp
; File d:\lost saga for developer\youtube\tutorial\source\src\io3dengine\iosingleton.h
;	COMDAT ?GetSingleton@?$Singleton@VioGuildChatMgr@@@@SAAAVioGuildChatMgr@@XZ
_TEXT	SEGMENT
?GetSingleton@?$Singleton@VioGuildChatMgr@@@@SAAAVioGuildChatMgr@@XZ PROC ; Singleton<ioGuildChatMgr>::GetSingleton, COMDAT

; 42   : 		assert( ms_Singleton );
; 43   : 		return (*ms_Singleton);

  00000	a1 00 00 00 00	 mov	 eax, DWORD PTR ?ms_Singleton@?$Singleton@VioGuildChatMgr@@@@1PAVioGuildChatMgr@@A ; Singleton<ioGuildChatMgr>::ms_Singleton

; 44   : 	}

  00005	c3		 ret	 0
?GetSingleton@?$Singleton@VioGuildChatMgr@@@@SAAAVioGuildChatMgr@@XZ ENDP ; Singleton<ioGuildChatMgr>::GetSingleton
_TEXT	ENDS
PUBLIC	??1bad_alloc@std@@UAE@XZ			; std::bad_alloc::~bad_alloc
EXTRN	__imp_??1exception@std@@UAE@XZ:PROC
; Function compile flags: /Ogsp
; File c:\program files (x86)\microsoft visual studio 10.0\vc\include\exception
;	COMDAT ??1bad_alloc@std@@UAE@XZ
_TEXT	SEGMENT
??1bad_alloc@std@@UAE@XZ PROC				; std::bad_alloc::~bad_alloc, COMDAT
; _this$ = ecx

; 354  : 		{	// destroy the object

  00000	c7 01 00 00 00
	00		 mov	 DWORD PTR [ecx], OFFSET ??_7bad_alloc@std@@6B@

; 355  : 		}

  00006	ff 25 00 00 00
	00		 jmp	 DWORD PTR __imp_??1exception@std@@UAE@XZ
??1bad_alloc@std@@UAE@XZ ENDP				; std::bad_alloc::~bad_alloc
_TEXT	ENDS
EXTRN	??3@YAXPAX@Z:PROC				; operator delete
; Function compile flags: /Ogsp
;	COMDAT ??_Gbad_alloc@std@@UAEPAXI@Z
_TEXT	SEGMENT
___flags$ = 8						; size = 4
??_Gbad_alloc@std@@UAEPAXI@Z PROC			; std::bad_alloc::`scalar deleting destructor', COMDAT
; _this$ = ecx
  00000	55		 push	 ebp
  00001	8b ec		 mov	 ebp, esp
  00003	56		 push	 esi
  00004	8b f1		 mov	 esi, ecx
  00006	c7 06 00 00 00
	00		 mov	 DWORD PTR [esi], OFFSET ??_7bad_alloc@std@@6B@
  0000c	ff 15 00 00 00
	00		 call	 DWORD PTR __imp_??1exception@std@@UAE@XZ
  00012	f6 45 08 01	 test	 BYTE PTR ___flags$[ebp], 1
  00016	74 07		 je	 SHORT $LN1@scalar
  00018	56		 push	 esi
  00019	e8 00 00 00 00	 call	 ??3@YAXPAX@Z		; operator delete
  0001e	59		 pop	 ecx
$LN1@scalar:
  0001f	8b c6		 mov	 eax, esi
  00021	5e		 pop	 esi
  00022	5d		 pop	 ebp
  00023	c2 04 00	 ret	 4
??_Gbad_alloc@std@@UAEPAXI@Z ENDP			; std::bad_alloc::`scalar deleting destructor'
_TEXT	ENDS
PUBLIC	?_Inside@?$vector@PAUtagChatInfo@@V?$allocator@PAUtagChatInfo@@@std@@@std@@IBE_NPBQAUtagChatInfo@@@Z ; std::vector<tagChatInfo *,std::allocator<tagChatInfo *> >::_Inside
; Function compile flags: /Ogsp
; File c:\program files (x86)\microsoft visual studio 10.0\vc\include\vector
;	COMDAT ?_Inside@?$vector@PAUtagChatInfo@@V?$allocator@PAUtagChatInfo@@@std@@@std@@IBE_NPBQAUtagChatInfo@@@Z
_TEXT	SEGMENT
__Ptr$ = 8						; size = 4
?_Inside@?$vector@PAUtagChatInfo@@V?$allocator@PAUtagChatInfo@@@std@@@std@@IBE_NPBQAUtagChatInfo@@@Z PROC ; std::vector<tagChatInfo *,std::allocator<tagChatInfo *> >::_Inside, COMDAT
; _this$ = ecx

; 1285 : 		{	// test if _Ptr points inside vector

  00000	55		 push	 ebp
  00001	8b ec		 mov	 ebp, esp

; 1286 : 		return (_Ptr < this->_Mylast && this->_Myfirst <= _Ptr);

  00003	8b 45 08	 mov	 eax, DWORD PTR __Ptr$[ebp]
  00006	3b 41 04	 cmp	 eax, DWORD PTR [ecx+4]
  00009	73 09		 jae	 SHORT $LN3@Inside
  0000b	39 01		 cmp	 DWORD PTR [ecx], eax
  0000d	77 05		 ja	 SHORT $LN3@Inside
  0000f	33 c0		 xor	 eax, eax
  00011	40		 inc	 eax
  00012	eb 02		 jmp	 SHORT $LN4@Inside
$LN3@Inside:
  00014	33 c0		 xor	 eax, eax
$LN4@Inside:

; 1287 : 		}

  00016	5d		 pop	 ebp
  00017	c2 04 00	 ret	 4
?_Inside@?$vector@PAUtagChatInfo@@V?$allocator@PAUtagChatInfo@@@std@@@std@@IBE_NPBQAUtagChatInfo@@@Z ENDP ; std::vector<tagChatInfo *,std::allocator<tagChatInfo *> >::_Inside
_TEXT	ENDS
PUBLIC	?_Orphan_range@?$vector@PAUtagChatInfo@@V?$allocator@PAUtagChatInfo@@@std@@@std@@IBEXPAPAUtagChatInfo@@0@Z ; std::vector<tagChatInfo *,std::allocator<tagChatInfo *> >::_Orphan_range
; Function compile flags: /Ogsp
;	COMDAT ?_Orphan_range@?$vector@PAUtagChatInfo@@V?$allocator@PAUtagChatInfo@@@std@@@std@@IBEXPAPAUtagChatInfo@@0@Z
_TEXT	SEGMENT
___formal$ = 8						; size = 4
___formal$ = 12						; size = 4
?_Orphan_range@?$vector@PAUtagChatInfo@@V?$allocator@PAUtagChatInfo@@@std@@@std@@IBEXPAPAUtagChatInfo@@0@Z PROC ; std::vector<tagChatInfo *,std::allocator<tagChatInfo *> >::_Orphan_range, COMDAT
; _this$ = ecx

; 1454 : 		}

  00000	c2 08 00	 ret	 8
?_Orphan_range@?$vector@PAUtagChatInfo@@V?$allocator@PAUtagChatInfo@@@std@@@std@@IBEXPAPAUtagChatInfo@@0@Z ENDP ; std::vector<tagChatInfo *,std::allocator<tagChatInfo *> >::_Orphan_range
_TEXT	ENDS
PUBLIC	??1?$_Vector_val@PAUtagChatInfo@@V?$allocator@PAUtagChatInfo@@@std@@@std@@QAE@XZ ; std::_Vector_val<tagChatInfo *,std::allocator<tagChatInfo *> >::~_Vector_val<tagChatInfo *,std::allocator<tagChatInfo *> >
; Function compile flags: /Ogsp
;	COMDAT ??1?$_Vector_val@PAUtagChatInfo@@V?$allocator@PAUtagChatInfo@@@std@@@std@@QAE@XZ
_TEXT	SEGMENT
??1?$_Vector_val@PAUtagChatInfo@@V?$allocator@PAUtagChatInfo@@@std@@@std@@QAE@XZ PROC ; std::_Vector_val<tagChatInfo *,std::allocator<tagChatInfo *> >::~_Vector_val<tagChatInfo *,std::allocator<tagChatInfo *> >, COMDAT
; _this$ = ecx

; 434  : 		}

  00000	c3		 ret	 0
??1?$_Vector_val@PAUtagChatInfo@@V?$allocator@PAUtagChatInfo@@@std@@@std@@QAE@XZ ENDP ; std::_Vector_val<tagChatInfo *,std::allocator<tagChatInfo *> >::~_Vector_val<tagChatInfo *,std::allocator<tagChatInfo *> >
_TEXT	ENDS
PUBLIC	??0?$allocator@PAUtagChatInfo@@@std@@QAE@XZ	; std::allocator<tagChatInfo *>::allocator<tagChatInfo *>
; Function compile flags: /Ogsp
; File c:\program files (x86)\microsoft visual studio 10.0\vc\include\xmemory
;	COMDAT ??0?$allocator@PAUtagChatInfo@@@std@@QAE@XZ
_TEXT	SEGMENT
??0?$allocator@PAUtagChatInfo@@@std@@QAE@XZ PROC	; std::allocator<tagChatInfo *>::allocator<tagChatInfo *>, COMDAT
; _this$ = ecx

; 161  : 	_ALLOCATOR() _THROW0()

  00000	8b c1		 mov	 eax, ecx

; 162  : 		{	// construct default allocator (do nothing)
; 163  : 		}

  00002	c3		 ret	 0
??0?$allocator@PAUtagChatInfo@@@std@@QAE@XZ ENDP	; std::allocator<tagChatInfo *>::allocator<tagChatInfo *>
_TEXT	ENDS
PUBLIC	??2@YAPAXIPAX@Z					; operator new
; Function compile flags: /Ogsp
; File c:\program files (x86)\microsoft visual studio 10.0\vc\include\new
;	COMDAT ??2@YAPAXIPAX@Z
_TEXT	SEGMENT
___formal$ = 8						; size = 4
__Where$ = 12						; size = 4
??2@YAPAXIPAX@Z PROC					; operator new, COMDAT

; 56   : 	{	// construct array with placement at _Where

  00000	55		 push	 ebp
  00001	8b ec		 mov	 ebp, esp

; 57   : 	return (_Where);

  00003	8b 45 0c	 mov	 eax, DWORD PTR __Where$[ebp]

; 58   : 	}

  00006	5d		 pop	 ebp
  00007	c3		 ret	 0
??2@YAPAXIPAX@Z ENDP					; operator new
_TEXT	ENDS
PUBLIC	??3@YAXPAX0@Z					; operator delete
; Function compile flags: /Ogsp
;	COMDAT ??3@YAXPAX0@Z
_TEXT	SEGMENT
___formal$ = 8						; size = 4
___formal$ = 12						; size = 4
??3@YAXPAX0@Z PROC					; operator delete, COMDAT

; 62   : 	}

  00000	c3		 ret	 0
??3@YAXPAX0@Z ENDP					; operator delete
_TEXT	ENDS
PUBLIC	??0?$_Vector_const_iterator@V?$_Vector_val@PAUtagChatInfo@@V?$allocator@PAUtagChatInfo@@@std@@@std@@@std@@QAE@XZ ; std::_Vector_const_iterator<std::_Vector_val<tagChatInfo *,std::allocator<tagChatInfo *> > >::_Vector_const_iterator<std::_Vector_val<tagChatInfo *,std::allocator<tagChatInfo *> > >
; Function compile flags: /Ogsp
; File c:\program files (x86)\microsoft visual studio 10.0\vc\include\vector
;	COMDAT ??0?$_Vector_const_iterator@V?$_Vector_val@PAUtagChatInfo@@V?$allocator@PAUtagChatInfo@@@std@@@std@@@std@@QAE@XZ
_TEXT	SEGMENT
??0?$_Vector_const_iterator@V?$_Vector_val@PAUtagChatInfo@@V?$allocator@PAUtagChatInfo@@@std@@@std@@@std@@QAE@XZ PROC ; std::_Vector_const_iterator<std::_Vector_val<tagChatInfo *,std::allocator<tagChatInfo *> > >::_Vector_const_iterator<std::_Vector_val<tagChatInfo *,std::allocator<tagChatInfo *> > >, COMDAT
; _this$ = ecx

; 40   : 		{	// construct with null pointer

  00000	8b c1		 mov	 eax, ecx
  00002	83 20 00	 and	 DWORD PTR [eax], 0

; 41   : 		}

  00005	c3		 ret	 0
??0?$_Vector_const_iterator@V?$_Vector_val@PAUtagChatInfo@@V?$allocator@PAUtagChatInfo@@@std@@@std@@@std@@QAE@XZ ENDP ; std::_Vector_const_iterator<std::_Vector_val<tagChatInfo *,std::allocator<tagChatInfo *> > >::_Vector_const_iterator<std::_Vector_val<tagChatInfo *,std::allocator<tagChatInfo *> > >
_TEXT	ENDS
PUBLIC	??D?$_Vector_const_iterator@V?$_Vector_val@PAUtagChatInfo@@V?$allocator@PAUtagChatInfo@@@std@@@std@@@std@@QBEABQAUtagChatInfo@@XZ ; std::_Vector_const_iterator<std::_Vector_val<tagChatInfo *,std::allocator<tagChatInfo *> > >::operator*
; Function compile flags: /Ogsp
;	COMDAT ??D?$_Vector_const_iterator@V?$_Vector_val@PAUtagChatInfo@@V?$allocator@PAUtagChatInfo@@@std@@@std@@@std@@QBEABQAUtagChatInfo@@XZ
_TEXT	SEGMENT
??D?$_Vector_const_iterator@V?$_Vector_val@PAUtagChatInfo@@V?$allocator@PAUtagChatInfo@@@std@@@std@@@std@@QBEABQAUtagChatInfo@@XZ PROC ; std::_Vector_const_iterator<std::_Vector_val<tagChatInfo *,std::allocator<tagChatInfo *> > >::operator*, COMDAT
; _this$ = ecx

; 64   :  #if _ITERATOR_DEBUG_LEVEL == 2
; 65   : 		if (this->_Getcont() == 0
; 66   : 			|| this->_Ptr == 0
; 67   : 			|| this->_Ptr < ((_Myvec *)this->_Getcont())->_Myfirst
; 68   : 			|| ((_Myvec *)this->_Getcont())->_Mylast <= this->_Ptr)
; 69   : 			{	// report error
; 70   : 			_DEBUG_ERROR("vector iterator not dereferencable");
; 71   : 			_SCL_SECURE_OUT_OF_RANGE;
; 72   : 			}
; 73   : 
; 74   :  #elif _ITERATOR_DEBUG_LEVEL == 1
; 75   : 		_SCL_SECURE_VALIDATE(this->_Getcont() != 0);
; 76   : 		_SCL_SECURE_VALIDATE_RANGE(
; 77   : 			this->_Ptr != 0
; 78   : 			&& ((_Myvec *)this->_Getcont())->_Myfirst <= this->_Ptr
; 79   : 			&& this->_Ptr < ((_Myvec *)this->_Getcont())->_Mylast);
; 80   :  #endif /* _ITERATOR_DEBUG_LEVEL */
; 81   : 
; 82   : 		__analysis_assume(this->_Ptr != 0);
; 83   : 
; 84   : 		return (*this->_Ptr);

  00000	8b 01		 mov	 eax, DWORD PTR [ecx]

; 85   : 		}

  00002	c3		 ret	 0
??D?$_Vector_const_iterator@V?$_Vector_val@PAUtagChatInfo@@V?$allocator@PAUtagChatInfo@@@std@@@std@@@std@@QBEABQAUtagChatInfo@@XZ ENDP ; std::_Vector_const_iterator<std::_Vector_val<tagChatInfo *,std::allocator<tagChatInfo *> > >::operator*
_TEXT	ENDS
PUBLIC	?capacity@?$vector@PAUtagChatInfo@@V?$allocator@PAUtagChatInfo@@@std@@@std@@QBEIXZ ; std::vector<tagChatInfo *,std::allocator<tagChatInfo *> >::capacity
; Function compile flags: /Ogsp
;	COMDAT ?capacity@?$vector@PAUtagChatInfo@@V?$allocator@PAUtagChatInfo@@@std@@@std@@QBEIXZ
_TEXT	SEGMENT
?capacity@?$vector@PAUtagChatInfo@@V?$allocator@PAUtagChatInfo@@@std@@@std@@QBEIXZ PROC ; std::vector<tagChatInfo *,std::allocator<tagChatInfo *> >::capacity, COMDAT
; _this$ = ecx

; 777  : 		return (this->_Myend - this->_Myfirst);

  00000	8b 41 08	 mov	 eax, DWORD PTR [ecx+8]
  00003	2b 01		 sub	 eax, DWORD PTR [ecx]
  00005	c1 f8 02	 sar	 eax, 2

; 778  : 		}

  00008	c3		 ret	 0
?capacity@?$vector@PAUtagChatInfo@@V?$allocator@PAUtagChatInfo@@@std@@@std@@QBEIXZ ENDP ; std::vector<tagChatInfo *,std::allocator<tagChatInfo *> >::capacity
_TEXT	ENDS
PUBLIC	??_C@_0BD@OLBABOEK@vector?$DMT?$DO?5too?5long?$AA@ ; `string'
PUBLIC	?_Xlen@?$vector@PAUtagChatInfo@@V?$allocator@PAUtagChatInfo@@@std@@@std@@IBEXXZ ; std::vector<tagChatInfo *,std::allocator<tagChatInfo *> >::_Xlen
EXTRN	__imp_?_Xlength_error@std@@YAXPBD@Z:PROC
;	COMDAT ??_C@_0BD@OLBABOEK@vector?$DMT?$DO?5too?5long?$AA@
CONST	SEGMENT
??_C@_0BD@OLBABOEK@vector?$DMT?$DO?5too?5long?$AA@ DB 'vector<T> too long'
	DB	00H						; `string'
; Function compile flags: /Ogsp
CONST	ENDS
;	COMDAT ?_Xlen@?$vector@PAUtagChatInfo@@V?$allocator@PAUtagChatInfo@@@std@@@std@@IBEXXZ
_TEXT	SEGMENT
?_Xlen@?$vector@PAUtagChatInfo@@V?$allocator@PAUtagChatInfo@@@std@@@std@@IBEXXZ PROC ; std::vector<tagChatInfo *,std::allocator<tagChatInfo *> >::_Xlen, COMDAT
; _this$ = ecx

; 1427 : 		_Xlength_error("vector<T> too long");

  00000	68 00 00 00 00	 push	 OFFSET ??_C@_0BD@OLBABOEK@vector?$DMT?$DO?5too?5long?$AA@
  00005	ff 15 00 00 00
	00		 call	 DWORD PTR __imp_?_Xlength_error@std@@YAXPBD@Z
$LN4@Xlen:
$LN3@Xlen:
  0000b	cc		 int	 3
?_Xlen@?$vector@PAUtagChatInfo@@V?$allocator@PAUtagChatInfo@@@std@@@std@@IBEXXZ ENDP ; std::vector<tagChatInfo *,std::allocator<tagChatInfo *> >::_Xlen
_TEXT	ENDS
PUBLIC	??0?$allocator@PAUtagChatInfo@@@std@@QAE@ABV01@@Z ; std::allocator<tagChatInfo *>::allocator<tagChatInfo *>
; Function compile flags: /Ogsp
; File c:\program files (x86)\microsoft visual studio 10.0\vc\include\xmemory
;	COMDAT ??0?$allocator@PAUtagChatInfo@@@std@@QAE@ABV01@@Z
_TEXT	SEGMENT
___formal$ = 8						; size = 4
??0?$allocator@PAUtagChatInfo@@@std@@QAE@ABV01@@Z PROC	; std::allocator<tagChatInfo *>::allocator<tagChatInfo *>, COMDAT
; _this$ = ecx

; 165  : 	_ALLOCATOR(const _ALLOCATOR<_Ty>&) _THROW0()

  00000	8b c1		 mov	 eax, ecx

; 166  : 		{	// construct by copying (do nothing)
; 167  : 		}

  00002	c2 04 00	 ret	 4
??0?$allocator@PAUtagChatInfo@@@std@@QAE@ABV01@@Z ENDP	; std::allocator<tagChatInfo *>::allocator<tagChatInfo *>
_TEXT	ENDS
PUBLIC	?deallocate@?$allocator@PAUtagChatInfo@@@std@@QAEXPAPAUtagChatInfo@@I@Z ; std::allocator<tagChatInfo *>::deallocate
; Function compile flags: /Ogsp
;	COMDAT ?deallocate@?$allocator@PAUtagChatInfo@@@std@@QAEXPAPAUtagChatInfo@@I@Z
_TEXT	SEGMENT
__Ptr$ = 8						; size = 4
___formal$ = 12						; size = 4
?deallocate@?$allocator@PAUtagChatInfo@@@std@@QAEXPAPAUtagChatInfo@@I@Z PROC ; std::allocator<tagChatInfo *>::deallocate, COMDAT
; _this$ = ecx

; 181  : 		{	// deallocate object at _Ptr, ignore size

  00000	55		 push	 ebp
  00001	8b ec		 mov	 ebp, esp

; 182  : 		::operator delete(_Ptr);

  00003	ff 75 08	 push	 DWORD PTR __Ptr$[ebp]
  00006	e8 00 00 00 00	 call	 ??3@YAXPAX@Z		; operator delete
  0000b	59		 pop	 ecx

; 183  : 		}

  0000c	5d		 pop	 ebp
  0000d	c2 08 00	 ret	 8
?deallocate@?$allocator@PAUtagChatInfo@@@std@@QAEXPAPAUtagChatInfo@@I@Z ENDP ; std::allocator<tagChatInfo *>::deallocate
_TEXT	ENDS
PUBLIC	??E?$_Vector_const_iterator@V?$_Vector_val@PAUtagChatInfo@@V?$allocator@PAUtagChatInfo@@@std@@@std@@@std@@QAEAAV01@XZ ; std::_Vector_const_iterator<std::_Vector_val<tagChatInfo *,std::allocator<tagChatInfo *> > >::operator++
; Function compile flags: /Ogsp
; File c:\program files (x86)\microsoft visual studio 10.0\vc\include\vector
;	COMDAT ??E?$_Vector_const_iterator@V?$_Vector_val@PAUtagChatInfo@@V?$allocator@PAUtagChatInfo@@@std@@@std@@@std@@QAEAAV01@XZ
_TEXT	SEGMENT
??E?$_Vector_const_iterator@V?$_Vector_val@PAUtagChatInfo@@V?$allocator@PAUtagChatInfo@@@std@@@std@@@std@@QAEAAV01@XZ PROC ; std::_Vector_const_iterator<std::_Vector_val<tagChatInfo *,std::allocator<tagChatInfo *> > >::operator++, COMDAT
; _this$ = ecx

; 93   : 		{	// preincrement

  00000	8b c1		 mov	 eax, ecx

; 94   :  #if _ITERATOR_DEBUG_LEVEL == 2
; 95   : 		if (this->_Getcont() == 0
; 96   : 			|| this->_Ptr == 0
; 97   : 			|| ((_Myvec *)this->_Getcont())->_Mylast <= this->_Ptr)
; 98   : 			{	// report error
; 99   : 			_DEBUG_ERROR("vector iterator not incrementable");
; 100  : 			_SCL_SECURE_OUT_OF_RANGE;
; 101  : 			}
; 102  : 
; 103  :  #elif _ITERATOR_DEBUG_LEVEL == 1
; 104  : 		_SCL_SECURE_VALIDATE(this->_Getcont() != 0);
; 105  : 		_SCL_SECURE_VALIDATE_RANGE(
; 106  : 			this->_Ptr != 0
; 107  : 			&& this->_Ptr < ((_Myvec *)this->_Getcont())->_Mylast);
; 108  :  #endif /* _ITERATOR_DEBUG_LEVEL */
; 109  : 
; 110  : 		++this->_Ptr;

  00002	83 00 04	 add	 DWORD PTR [eax], 4

; 111  : 		return (*this);
; 112  : 		}

  00005	c3		 ret	 0
??E?$_Vector_const_iterator@V?$_Vector_val@PAUtagChatInfo@@V?$allocator@PAUtagChatInfo@@@std@@@std@@@std@@QAEAAV01@XZ ENDP ; std::_Vector_const_iterator<std::_Vector_val<tagChatInfo *,std::allocator<tagChatInfo *> > >::operator++
_TEXT	ENDS
PUBLIC	?_Compat@?$_Vector_const_iterator@V?$_Vector_val@PAUtagChatInfo@@V?$allocator@PAUtagChatInfo@@@std@@@std@@@std@@QBEXABV12@@Z ; std::_Vector_const_iterator<std::_Vector_val<tagChatInfo *,std::allocator<tagChatInfo *> > >::_Compat
; Function compile flags: /Ogsp
;	COMDAT ?_Compat@?$_Vector_const_iterator@V?$_Vector_val@PAUtagChatInfo@@V?$allocator@PAUtagChatInfo@@@std@@@std@@@std@@QBEXABV12@@Z
_TEXT	SEGMENT
___formal$ = 8						; size = 4
?_Compat@?$_Vector_const_iterator@V?$_Vector_val@PAUtagChatInfo@@V?$allocator@PAUtagChatInfo@@@std@@@std@@@std@@QBEXABV12@@Z PROC ; std::_Vector_const_iterator<std::_Vector_val<tagChatInfo *,std::allocator<tagChatInfo *> > >::_Compat, COMDAT
; _this$ = ecx

; 253  : 		}

  00000	c2 04 00	 ret	 4
?_Compat@?$_Vector_const_iterator@V?$_Vector_val@PAUtagChatInfo@@V?$allocator@PAUtagChatInfo@@@std@@@std@@@std@@QBEXABV12@@Z ENDP ; std::_Vector_const_iterator<std::_Vector_val<tagChatInfo *,std::allocator<tagChatInfo *> > >::_Compat
_TEXT	ENDS
PUBLIC	?max_size@?$allocator@PAUtagChatInfo@@@std@@QBEIXZ ; std::allocator<tagChatInfo *>::max_size
; Function compile flags: /Ogsp
; File c:\program files (x86)\microsoft visual studio 10.0\vc\include\xmemory
;	COMDAT ?max_size@?$allocator@PAUtagChatInfo@@@std@@QBEIXZ
_TEXT	SEGMENT
?max_size@?$allocator@PAUtagChatInfo@@@std@@QBEIXZ PROC	; std::allocator<tagChatInfo *>::max_size, COMDAT
; _this$ = ecx

; 218  : 		_SIZT _Count = (_SIZT)(-1) / sizeof (_Ty);
; 219  : 		return (0 < _Count ? _Count : 1);

  00000	b8 ff ff ff 3f	 mov	 eax, 1073741823		; 3fffffffH

; 220  : 		}

  00005	c3		 ret	 0
?max_size@?$allocator@PAUtagChatInfo@@@std@@QBEIXZ ENDP	; std::allocator<tagChatInfo *>::max_size
_TEXT	ENDS
PUBLIC	??$addressof@QAUtagChatInfo@@@std@@YAPBQAUtagChatInfo@@ABQAU1@@Z ; std::addressof<tagChatInfo * const>
; Function compile flags: /Ogsp
;	COMDAT ??$addressof@QAUtagChatInfo@@@std@@YAPBQAUtagChatInfo@@ABQAU1@@Z
_TEXT	SEGMENT
__Val$ = 8						; size = 4
??$addressof@QAUtagChatInfo@@@std@@YAPBQAUtagChatInfo@@ABQAU1@@Z PROC ; std::addressof<tagChatInfo * const>, COMDAT

; 110  : 	{	// return address of _Val

  00000	55		 push	 ebp
  00001	8b ec		 mov	 ebp, esp

; 111  : 	return ((_Ty *) &(char&)_Val);

  00003	8b 45 08	 mov	 eax, DWORD PTR __Val$[ebp]

; 112  : 	}

  00006	5d		 pop	 ebp
  00007	c3		 ret	 0
??$addressof@QAUtagChatInfo@@@std@@YAPBQAUtagChatInfo@@ABQAU1@@Z ENDP ; std::addressof<tagChatInfo * const>
_TEXT	ENDS
PUBLIC	__TI2?AVbad_alloc@std@@
PUBLIC	??$_Allocate@PAUtagChatInfo@@@std@@YAPAPAUtagChatInfo@@IPAPAU1@@Z ; std::_Allocate<tagChatInfo *>
PUBLIC	__CTA2?AVbad_alloc@std@@
PUBLIC	__CT??_R0?AVbad_alloc@std@@@8??0bad_alloc@std@@QAE@ABV01@@Z12
PUBLIC	??0bad_alloc@std@@QAE@ABV01@@Z			; std::bad_alloc::bad_alloc
PUBLIC	__CT??_R0?AVexception@std@@@8??0exception@std@@QAE@ABV01@@Z12
EXTRN	??2@YAPAXI@Z:PROC				; operator new
EXTRN	__CxxThrowException@8:PROC
EXTRN	??0exception@std@@QAE@ABV01@@Z:PROC		; std::exception::exception
;	COMDAT __CT??_R0?AVexception@std@@@8??0exception@std@@QAE@ABV01@@Z12
; File c:\program files (x86)\microsoft visual studio 10.0\vc\include\exception
xdata$x	SEGMENT
__CT??_R0?AVexception@std@@@8??0exception@std@@QAE@ABV01@@Z12 DD 00H
	DD	FLAT:??_R0?AVexception@std@@@8
	DD	00H
	DD	0ffffffffH
	ORG $+4
	DD	0cH
	DD	FLAT:??0exception@std@@QAE@ABV01@@Z
xdata$x	ENDS
;	COMDAT __CT??_R0?AVbad_alloc@std@@@8??0bad_alloc@std@@QAE@ABV01@@Z12
xdata$x	SEGMENT
__CT??_R0?AVbad_alloc@std@@@8??0bad_alloc@std@@QAE@ABV01@@Z12 DD 00H
	DD	FLAT:??_R0?AVbad_alloc@std@@@8
	DD	00H
	DD	0ffffffffH
	ORG $+4
	DD	0cH
	DD	FLAT:??0bad_alloc@std@@QAE@ABV01@@Z
xdata$x	ENDS
;	COMDAT __CTA2?AVbad_alloc@std@@
xdata$x	SEGMENT
__CTA2?AVbad_alloc@std@@ DD 02H
	DD	FLAT:__CT??_R0?AVbad_alloc@std@@@8??0bad_alloc@std@@QAE@ABV01@@Z12
	DD	FLAT:__CT??_R0?AVexception@std@@@8??0exception@std@@QAE@ABV01@@Z12
xdata$x	ENDS
;	COMDAT __TI2?AVbad_alloc@std@@
xdata$x	SEGMENT
__TI2?AVbad_alloc@std@@ DD 00H
	DD	FLAT:??1bad_alloc@std@@UAE@XZ
	DD	00H
	DD	FLAT:__CTA2?AVbad_alloc@std@@
; Function compile flags: /Ogsp
; File c:\program files (x86)\microsoft visual studio 10.0\vc\include\xmemory
xdata$x	ENDS
;	COMDAT ??$_Allocate@PAUtagChatInfo@@@std@@YAPAPAUtagChatInfo@@IPAPAU1@@Z
_TEXT	SEGMENT
$T508453 = -12						; size = 12
$T508458 = 8						; size = 4
__Count$ = 8						; size = 4
___formal$ = 12						; size = 4
??$_Allocate@PAUtagChatInfo@@@std@@YAPAPAUtagChatInfo@@IPAPAU1@@Z PROC ; std::_Allocate<tagChatInfo *>, COMDAT

; 30   : 	{	// allocate storage for _Count elements of type _Ty

  00000	55		 push	 ebp
  00001	8b ec		 mov	 ebp, esp

; 31   : 	void *_Ptr = 0;
; 32   : 
; 33   : 	if (_Count <= 0)

  00003	8b 4d 08	 mov	 ecx, DWORD PTR __Count$[ebp]
  00006	83 ec 0c	 sub	 esp, 12			; 0000000cH
  00009	33 c0		 xor	 eax, eax
  0000b	85 c9		 test	 ecx, ecx

; 34   : 		_Count = 0;
; 35   : 	else if (((_SIZT)(-1) / sizeof (_Ty) < _Count)

  0000d	74 3e		 je	 SHORT $LN5@Allocate

; 36   : 		|| (_Ptr = ::operator new(_Count * sizeof (_Ty))) == 0)

  0000f	81 f9 ff ff ff
	3f		 cmp	 ecx, 1073741823		; 3fffffffH
  00015	77 10		 ja	 SHORT $LN1@Allocate
  00017	8b c1		 mov	 eax, ecx
  00019	c1 e0 02	 shl	 eax, 2
  0001c	50		 push	 eax
  0001d	e8 00 00 00 00	 call	 ??2@YAPAXI@Z		; operator new
  00022	59		 pop	 ecx
  00023	85 c0		 test	 eax, eax

; 38   : 
; 39   : 	return ((_Ty _FARQ *)_Ptr);

  00025	75 26		 jne	 SHORT $LN5@Allocate
$LN1@Allocate:

; 37   : 		_THROW_NCEE(bad_alloc, 0);

  00027	83 65 08 00	 and	 DWORD PTR $T508458[ebp], 0
  0002b	8d 45 08	 lea	 eax, DWORD PTR $T508458[ebp]
  0002e	50		 push	 eax
  0002f	8d 4d f4	 lea	 ecx, DWORD PTR $T508453[ebp]
  00032	ff 15 00 00 00
	00		 call	 DWORD PTR __imp_??0exception@std@@QAE@ABQBD@Z
  00038	68 00 00 00 00	 push	 OFFSET __TI2?AVbad_alloc@std@@
  0003d	8d 45 f4	 lea	 eax, DWORD PTR $T508453[ebp]
  00040	50		 push	 eax
  00041	c7 45 f4 00 00
	00 00		 mov	 DWORD PTR $T508453[ebp], OFFSET ??_7bad_alloc@std@@6B@
  00048	e8 00 00 00 00	 call	 __CxxThrowException@8
$LN10@Allocate:
$LN5@Allocate:

; 40   : 	}

  0004d	c9		 leave
  0004e	c3		 ret	 0
$LN9@Allocate:
??$_Allocate@PAUtagChatInfo@@@std@@YAPAPAUtagChatInfo@@IPAPAU1@@Z ENDP ; std::_Allocate<tagChatInfo *>
_TEXT	ENDS
PUBLIC	?length@?$char_traits@D@std@@SAIPBD@Z		; std::char_traits<char>::length
; Function compile flags: /Ogsp
; File c:\program files (x86)\microsoft visual studio 10.0\vc\include\iosfwd
;	COMDAT ?length@?$char_traits@D@std@@SAIPBD@Z
_TEXT	SEGMENT
__First$ = 8						; size = 4
?length@?$char_traits@D@std@@SAIPBD@Z PROC		; std::char_traits<char>::length, COMDAT

; 490  : 		{	// find length of null-terminated string

  00000	55		 push	 ebp
  00001	8b ec		 mov	 ebp, esp

; 491  : 		return (_CSTD strlen(_First));

  00003	8b 45 08	 mov	 eax, DWORD PTR __First$[ebp]
  00006	8d 50 01	 lea	 edx, DWORD PTR [eax+1]
$LL3@length:
  00009	8a 08		 mov	 cl, BYTE PTR [eax]
  0000b	40		 inc	 eax
  0000c	84 c9		 test	 cl, cl
  0000e	75 f9		 jne	 SHORT $LL3@length
  00010	2b c2		 sub	 eax, edx

; 492  : 		}

  00012	5d		 pop	 ebp
  00013	c3		 ret	 0
?length@?$char_traits@D@std@@SAIPBD@Z ENDP		; std::char_traits<char>::length
_TEXT	ENDS
PUBLIC	?copy@?$char_traits@D@std@@SAPADPADPBDI@Z	; std::char_traits<char>::copy
EXTRN	_memcpy:PROC
; Function compile flags: /Ogsp
;	COMDAT ?copy@?$char_traits@D@std@@SAPADPADPBDI@Z
_TEXT	SEGMENT
__First1$ = 8						; size = 4
__First2$ = 12						; size = 4
__Count$ = 16						; size = 4
?copy@?$char_traits@D@std@@SAPADPADPBDI@Z PROC		; std::char_traits<char>::copy, COMDAT

; 496  : 		{	// copy [_First1, _First1 + _Count) to [_First2, ...)

  00000	55		 push	 ebp
  00001	8b ec		 mov	 ebp, esp

; 498  : 		}

  00003	5d		 pop	 ebp

; 497  : 		return ((_Elem *)_CSTD memcpy(_First1, _First2, _Count));

  00004	e9 00 00 00 00	 jmp	 _memcpy
?copy@?$char_traits@D@std@@SAPADPADPBDI@Z ENDP		; std::char_traits<char>::copy
_TEXT	ENDS
PUBLIC	??$forward@AAPAUtagChatInfo@@@std@@YAAAPAUtagChatInfo@@AAPAU1@@Z ; std::forward<tagChatInfo * &>
; Function compile flags: /Ogsp
; File c:\program files (x86)\microsoft visual studio 10.0\vc\include\utility
;	COMDAT ??$forward@AAPAUtagChatInfo@@@std@@YAAAPAUtagChatInfo@@AAPAU1@@Z
_TEXT	SEGMENT
__Arg$ = 8						; size = 4
??$forward@AAPAUtagChatInfo@@@std@@YAAAPAUtagChatInfo@@AAPAU1@@Z PROC ; std::forward<tagChatInfo * &>, COMDAT

; 78   : 	{	// forward _Arg, given explicitly specified type parameter

  00000	55		 push	 ebp
  00001	8b ec		 mov	 ebp, esp

; 79   : 	return ((_Ty&&)_Arg);

  00003	8b 45 08	 mov	 eax, DWORD PTR __Arg$[ebp]

; 80   : 	}

  00006	5d		 pop	 ebp
  00007	c3		 ret	 0
??$forward@AAPAUtagChatInfo@@@std@@YAAAPAUtagChatInfo@@AAPAU1@@Z ENDP ; std::forward<tagChatInfo * &>
_TEXT	ENDS
PUBLIC	??$construct@AAPAUtagChatInfo@@@?$allocator@PAUtagChatInfo@@@std@@QAEXPAPAUtagChatInfo@@AAPAU2@@Z ; std::allocator<tagChatInfo *>::construct<tagChatInfo * &>
; Function compile flags: /Ogsp
; File c:\program files (x86)\microsoft visual studio 10.0\vc\include\xmemory
;	COMDAT ??$construct@AAPAUtagChatInfo@@@?$allocator@PAUtagChatInfo@@@std@@QAEXPAPAUtagChatInfo@@AAPAU2@@Z
_TEXT	SEGMENT
__Ptr$ = 8						; size = 4
__Val$ = 12						; size = 4
??$construct@AAPAUtagChatInfo@@@?$allocator@PAUtagChatInfo@@@std@@QAEXPAPAUtagChatInfo@@AAPAU2@@Z PROC ; std::allocator<tagChatInfo *>::construct<tagChatInfo * &>, COMDAT
; _this$ = ecx

; 206  : 		void construct(pointer _Ptr, _Other&& _Val)

  00000	55		 push	 ebp
  00001	8b ec		 mov	 ebp, esp

; 207  : 		{	// construct object at _Ptr with value _Val
; 208  : 		::new ((void _FARQ *)_Ptr) _Ty(_STD forward<_Other>(_Val));

  00003	8b 45 08	 mov	 eax, DWORD PTR __Ptr$[ebp]
  00006	85 c0		 test	 eax, eax
  00008	74 07		 je	 SHORT $LN3@construct
  0000a	8b 4d 0c	 mov	 ecx, DWORD PTR __Val$[ebp]
  0000d	8b 09		 mov	 ecx, DWORD PTR [ecx]
  0000f	89 08		 mov	 DWORD PTR [eax], ecx
$LN3@construct:

; 209  : 		}

  00011	5d		 pop	 ebp
  00012	c2 08 00	 ret	 8
??$construct@AAPAUtagChatInfo@@@?$allocator@PAUtagChatInfo@@@std@@QAEXPAPAUtagChatInfo@@AAPAU2@@Z ENDP ; std::allocator<tagChatInfo *>::construct<tagChatInfo * &>
_TEXT	ENDS
PUBLIC	??$forward@ABQAUtagChatInfo@@@std@@YAABQAUtagChatInfo@@ABQAU1@@Z ; std::forward<tagChatInfo * const &>
; Function compile flags: /Ogsp
; File c:\program files (x86)\microsoft visual studio 10.0\vc\include\utility
;	COMDAT ??$forward@ABQAUtagChatInfo@@@std@@YAABQAUtagChatInfo@@ABQAU1@@Z
_TEXT	SEGMENT
__Arg$ = 8						; size = 4
??$forward@ABQAUtagChatInfo@@@std@@YAABQAUtagChatInfo@@ABQAU1@@Z PROC ; std::forward<tagChatInfo * const &>, COMDAT

; 78   : 	{	// forward _Arg, given explicitly specified type parameter

  00000	55		 push	 ebp
  00001	8b ec		 mov	 ebp, esp

; 79   : 	return ((_Ty&&)_Arg);

  00003	8b 45 08	 mov	 eax, DWORD PTR __Arg$[ebp]

; 80   : 	}

  00006	5d		 pop	 ebp
  00007	c3		 ret	 0
??$forward@ABQAUtagChatInfo@@@std@@YAABQAUtagChatInfo@@ABQAU1@@Z ENDP ; std::forward<tagChatInfo * const &>
_TEXT	ENDS
PUBLIC	??$_Ptr_cat@PAUtagChatInfo@@PAU1@@std@@YA?AU_Scalar_ptr_iterator_tag@0@PAPAUtagChatInfo@@0@Z ; std::_Ptr_cat<tagChatInfo *,tagChatInfo *>
; Function compile flags: /Ogsp
; File c:\program files (x86)\microsoft visual studio 10.0\vc\include\xutility
;	COMDAT ??$_Ptr_cat@PAUtagChatInfo@@PAU1@@std@@YA?AU_Scalar_ptr_iterator_tag@0@PAPAUtagChatInfo@@0@Z
_TEXT	SEGMENT
__Cat$ = -1						; size = 1
___formal$ = 8						; size = 4
___formal$ = 12						; size = 4
??$_Ptr_cat@PAUtagChatInfo@@PAU1@@std@@YA?AU_Scalar_ptr_iterator_tag@0@PAPAUtagChatInfo@@0@Z PROC ; std::_Ptr_cat<tagChatInfo *,tagChatInfo *>, COMDAT

; 516  : 	{	// return pointer category from pointers

  00000	55		 push	 ebp
  00001	8b ec		 mov	 ebp, esp
  00003	51		 push	 ecx

; 517  : 	typename _Ptr_cat_helper<_Elem1, _Elem2>::_Type _Cat;
; 518  : 	return (_Cat);

  00004	8a 45 ff	 mov	 al, BYTE PTR __Cat$[ebp]

; 519  : 	}

  00007	c9		 leave
  00008	c3		 ret	 0
??$_Ptr_cat@PAUtagChatInfo@@PAU1@@std@@YA?AU_Scalar_ptr_iterator_tag@0@PAPAUtagChatInfo@@0@Z ENDP ; std::_Ptr_cat<tagChatInfo *,tagChatInfo *>
_TEXT	ENDS
PUBLIC	??$_Move@PAPAUtagChatInfo@@PAPAU1@@std@@YAPAPAUtagChatInfo@@PAPAU1@00U_Scalar_ptr_iterator_tag@0@@Z ; std::_Move<tagChatInfo * *,tagChatInfo * *>
EXTRN	__imp__memmove:PROC
; Function compile flags: /Ogsp
;	COMDAT ??$_Move@PAPAUtagChatInfo@@PAPAU1@@std@@YAPAPAUtagChatInfo@@PAPAU1@00U_Scalar_ptr_iterator_tag@0@@Z
_TEXT	SEGMENT
__First$ = 8						; size = 4
__Last$ = 12						; size = 4
__Dest$ = 16						; size = 4
___formal$ = 20						; size = 1
??$_Move@PAPAUtagChatInfo@@PAPAU1@@std@@YAPAPAUtagChatInfo@@PAPAU1@00U_Scalar_ptr_iterator_tag@0@@Z PROC ; std::_Move<tagChatInfo * *,tagChatInfo * *>, COMDAT

; 2522 : 	{	// move [_First, _Last) to [_Dest, ...), pointers to scalars

  00000	55		 push	 ebp
  00001	8b ec		 mov	 ebp, esp
  00003	56		 push	 esi

; 2523 : 	ptrdiff_t _Count = _Last - _First;

  00004	8b 75 0c	 mov	 esi, DWORD PTR __Last$[ebp]
  00007	2b 75 08	 sub	 esi, DWORD PTR __First$[ebp]
  0000a	57		 push	 edi

; 2524 : 	_CSTD memmove(&*_Dest, &*_First,
; 2525 : 		_Count * sizeof (*_First));

  0000b	8b 7d 10	 mov	 edi, DWORD PTR __Dest$[ebp]
  0000e	c1 fe 02	 sar	 esi, 2
  00011	c1 e6 02	 shl	 esi, 2
  00014	56		 push	 esi
  00015	ff 75 08	 push	 DWORD PTR __First$[ebp]
  00018	57		 push	 edi
  00019	ff 15 00 00 00
	00		 call	 DWORD PTR __imp__memmove
  0001f	83 c4 0c	 add	 esp, 12			; 0000000cH

; 2526 : 	return (_Dest + _Count);

  00022	8d 04 3e	 lea	 eax, DWORD PTR [esi+edi]
  00025	5f		 pop	 edi
  00026	5e		 pop	 esi

; 2527 : 	}

  00027	5d		 pop	 ebp
  00028	c3		 ret	 0
??$_Move@PAPAUtagChatInfo@@PAPAU1@@std@@YAPAPAUtagChatInfo@@PAPAU1@00U_Scalar_ptr_iterator_tag@0@@Z ENDP ; std::_Move<tagChatInfo * *,tagChatInfo * *>
_TEXT	ENDS
PUBLIC	?assign@?$char_traits@D@std@@SAXAADABD@Z	; std::char_traits<char>::assign
; Function compile flags: /Ogsp
; File c:\program files (x86)\microsoft visual studio 10.0\vc\include\iosfwd
;	COMDAT ?assign@?$char_traits@D@std@@SAXAADABD@Z
_TEXT	SEGMENT
__Left$ = 8						; size = 4
__Right$ = 12						; size = 4
?assign@?$char_traits@D@std@@SAXAADABD@Z PROC		; std::char_traits<char>::assign, COMDAT

; 526  : 		{	// assign an element

  00000	55		 push	 ebp
  00001	8b ec		 mov	 ebp, esp

; 527  : 		_Left = _Right;

  00003	8b 45 0c	 mov	 eax, DWORD PTR __Right$[ebp]
  00006	8a 00		 mov	 al, BYTE PTR [eax]
  00008	8b 4d 08	 mov	 ecx, DWORD PTR __Left$[ebp]
  0000b	88 01		 mov	 BYTE PTR [ecx], al

; 528  : 		}

  0000d	5d		 pop	 ebp
  0000e	c3		 ret	 0
?assign@?$char_traits@D@std@@SAXAADABD@Z ENDP		; std::char_traits<char>::assign
_TEXT	ENDS
PUBLIC	??$_Destroy_range@V?$allocator@PAUtagChatInfo@@@std@@@std@@YAXPAPAUtagChatInfo@@0AAV?$allocator@PAUtagChatInfo@@@0@U_Scalar_ptr_iterator_tag@0@@Z ; std::_Destroy_range<std::allocator<tagChatInfo *> >
; Function compile flags: /Ogsp
; File c:\program files (x86)\microsoft visual studio 10.0\vc\include\xmemory
;	COMDAT ??$_Destroy_range@V?$allocator@PAUtagChatInfo@@@std@@@std@@YAXPAPAUtagChatInfo@@0AAV?$allocator@PAUtagChatInfo@@@0@U_Scalar_ptr_iterator_tag@0@@Z
_TEXT	SEGMENT
__First$ = 8						; size = 4
__Last$ = 12						; size = 4
__Al$ = 16						; size = 4
___formal$ = 20						; size = 1
??$_Destroy_range@V?$allocator@PAUtagChatInfo@@@std@@@std@@YAXPAPAUtagChatInfo@@0AAV?$allocator@PAUtagChatInfo@@@0@U_Scalar_ptr_iterator_tag@0@@Z PROC ; std::_Destroy_range<std::allocator<tagChatInfo *> >, COMDAT

; 105  : 	}

  00000	c3		 ret	 0
??$_Destroy_range@V?$allocator@PAUtagChatInfo@@@std@@@std@@YAXPAPAUtagChatInfo@@0AAV?$allocator@PAUtagChatInfo@@@0@U_Scalar_ptr_iterator_tag@0@@Z ENDP ; std::_Destroy_range<std::allocator<tagChatInfo *> >
_TEXT	ENDS
PUBLIC	??$_Construct@PAUtagChatInfo@@ABQAU1@@std@@YAXPAPAUtagChatInfo@@ABQAU1@@Z ; std::_Construct<tagChatInfo *,tagChatInfo * const &>
; Function compile flags: /Ogsp
;	COMDAT ??$_Construct@PAUtagChatInfo@@ABQAU1@@std@@YAXPAPAUtagChatInfo@@ABQAU1@@Z
_TEXT	SEGMENT
__Ptr$ = 8						; size = 4
__Val$ = 12						; size = 4
??$_Construct@PAUtagChatInfo@@ABQAU1@@std@@YAXPAPAUtagChatInfo@@ABQAU1@@Z PROC ; std::_Construct<tagChatInfo *,tagChatInfo * const &>, COMDAT

; 46   : 	{	// construct object at _Ptr with value _Val

  00000	55		 push	 ebp
  00001	8b ec		 mov	 ebp, esp

; 47   : 	void _FARQ *_Vptr = _Ptr;
; 48   : 	::new (_Vptr) _Ty1(_STD forward<_Ty2>(_Val));

  00003	8b 45 08	 mov	 eax, DWORD PTR __Ptr$[ebp]
  00006	85 c0		 test	 eax, eax
  00008	74 07		 je	 SHORT $LN3@Construct
  0000a	8b 4d 0c	 mov	 ecx, DWORD PTR __Val$[ebp]
  0000d	8b 09		 mov	 ecx, DWORD PTR [ecx]
  0000f	89 08		 mov	 DWORD PTR [eax], ecx
$LN3@Construct:

; 49   : 	}

  00011	5d		 pop	 ebp
  00012	c3		 ret	 0
??$_Construct@PAUtagChatInfo@@ABQAU1@@std@@YAXPAPAUtagChatInfo@@ABQAU1@@Z ENDP ; std::_Construct<tagChatInfo *,tagChatInfo * const &>
_TEXT	ENDS
PUBLIC	??$_Val_type@PAPAUtagChatInfo@@@std@@YAPAPAUtagChatInfo@@PAPAU1@@Z ; std::_Val_type<tagChatInfo * *>
; Function compile flags: /Ogsp
; File c:\program files (x86)\microsoft visual studio 10.0\vc\include\xutility
;	COMDAT ??$_Val_type@PAPAUtagChatInfo@@@std@@YAPAPAUtagChatInfo@@PAPAU1@@Z
_TEXT	SEGMENT
___formal$ = 8						; size = 4
??$_Val_type@PAPAUtagChatInfo@@@std@@YAPAPAUtagChatInfo@@PAPAU1@@Z PROC ; std::_Val_type<tagChatInfo * *>, COMDAT

; 790  : 	return (0);

  00000	33 c0		 xor	 eax, eax

; 791  : 	}

  00002	c3		 ret	 0
??$_Val_type@PAPAUtagChatInfo@@@std@@YAPAPAUtagChatInfo@@PAPAU1@@Z ENDP ; std::_Val_type<tagChatInfo * *>
_TEXT	ENDS
PUBLIC	??$_Uninit_move@PAUtagChatInfo@@PAU1@PAU1@@std@@YAPAPAUtagChatInfo@@PAPAU1@00AAV?$allocator@PAUtagChatInfo@@@0@0U_Scalar_ptr_iterator_tag@0@@Z ; std::_Uninit_move<tagChatInfo *,tagChatInfo *,tagChatInfo *>
; Function compile flags: /Ogsp
; File c:\program files (x86)\microsoft visual studio 10.0\vc\include\memory
;	COMDAT ??$_Uninit_move@PAUtagChatInfo@@PAU1@PAU1@@std@@YAPAPAUtagChatInfo@@PAPAU1@00AAV?$allocator@PAUtagChatInfo@@@0@0U_Scalar_ptr_iterator_tag@0@@Z
_TEXT	SEGMENT
__First$ = 8						; size = 4
__Last$ = 12						; size = 4
__Dest$ = 16						; size = 4
___formal$ = 20						; size = 4
___formal$ = 24						; size = 4
___formal$ = 28						; size = 1
??$_Uninit_move@PAUtagChatInfo@@PAU1@PAU1@@std@@YAPAPAUtagChatInfo@@PAPAU1@00AAV?$allocator@PAUtagChatInfo@@@0@0U_Scalar_ptr_iterator_tag@0@@Z PROC ; std::_Uninit_move<tagChatInfo *,tagChatInfo *,tagChatInfo *>, COMDAT

; 456  : 	{	// move [_First, _Last) to raw _Dest, scalar type

  00000	55		 push	 ebp
  00001	8b ec		 mov	 ebp, esp
  00003	56		 push	 esi

; 457  : 	_DEBUG_RANGE(_First, _Last);
; 458  : 	_DEBUG_POINTER(_Dest);
; 459  : 	size_t _Count = (size_t)(_Last - _First);

  00004	8b 75 0c	 mov	 esi, DWORD PTR __Last$[ebp]
  00007	2b 75 08	 sub	 esi, DWORD PTR __First$[ebp]
  0000a	c1 fe 02	 sar	 esi, 2

; 460  : 	return ((_Ty2 *)_CSTD memmove(&*_Dest, &*_First,
; 461  : 		_Count * sizeof (*_First)) + _Count);	// NB: non-overlapping move

  0000d	c1 e6 02	 shl	 esi, 2
  00010	56		 push	 esi
  00011	ff 75 08	 push	 DWORD PTR __First$[ebp]
  00014	ff 75 10	 push	 DWORD PTR __Dest$[ebp]
  00017	ff 15 00 00 00
	00		 call	 DWORD PTR __imp__memmove
  0001d	83 c4 0c	 add	 esp, 12			; 0000000cH
  00020	03 c6		 add	 eax, esi
  00022	5e		 pop	 esi

; 462  : 	}

  00023	5d		 pop	 ebp
  00024	c3		 ret	 0
??$_Uninit_move@PAUtagChatInfo@@PAU1@PAU1@@std@@YAPAPAUtagChatInfo@@PAPAU1@00AAV?$allocator@PAUtagChatInfo@@@0@0U_Scalar_ptr_iterator_tag@0@@Z ENDP ; std::_Uninit_move<tagChatInfo *,tagChatInfo *,tagChatInfo *>
_TEXT	ENDS
PUBLIC	?_Adopt@_Iterator_base0@std@@QAEXPBX@Z		; std::_Iterator_base0::_Adopt
; Function compile flags: /Ogsp
; File c:\program files (x86)\microsoft visual studio 10.0\vc\include\xutility
;	COMDAT ?_Adopt@_Iterator_base0@std@@QAEXPBX@Z
_TEXT	SEGMENT
___formal$ = 8						; size = 4
?_Adopt@_Iterator_base0@std@@QAEXPBX@Z PROC		; std::_Iterator_base0::_Adopt, COMDAT
; _this$ = ecx

; 49   : 		}

  00000	c2 04 00	 ret	 4
?_Adopt@_Iterator_base0@std@@QAEXPBX@Z ENDP		; std::_Iterator_base0::_Adopt
_TEXT	ENDS
PUBLIC	?GuildChatAlarm@Setting@@SA_NXZ			; Setting::GuildChatAlarm
EXTRN	?m_Option@Setting@@1USettingOption@@A:BYTE	; Setting::m_Option
; Function compile flags: /Ogsp
; File d:\lost saga for developer\youtube\tutorial\source\src\lsclient\setting.h
;	COMDAT ?GuildChatAlarm@Setting@@SA_NXZ
_TEXT	SEGMENT
?GuildChatAlarm@Setting@@SA_NXZ PROC			; Setting::GuildChatAlarm, COMDAT

; 323  : 	static bool GuildChatAlarm(){ return m_Option.m_bGuildChatAlarm; }

  00000	a0 49 00 00 00	 mov	 al, BYTE PTR ?m_Option@Setting@@1USettingOption@@A+73
  00005	c3		 ret	 0
?GuildChatAlarm@Setting@@SA_NXZ ENDP			; Setting::GuildChatAlarm
_TEXT	ENDS
PUBLIC	?GetPublicID@ioMyInfo@@QBEABVioHashString@@XZ	; ioMyInfo::GetPublicID
; Function compile flags: /Ogsp
; File d:\lost saga for developer\youtube\tutorial\source\src\lsclient\iomyinfo.h
;	COMDAT ?GetPublicID@ioMyInfo@@QBEABVioHashString@@XZ
_TEXT	SEGMENT
?GetPublicID@ioMyInfo@@QBEABVioHashString@@XZ PROC	; ioMyInfo::GetPublicID, COMDAT
; _this$ = ecx

; 517  : 	const ioHashString& GetPublicID() const { return m_user_data.m_public_id; }    

  00000	8d 41 1c	 lea	 eax, DWORD PTR [ecx+28]
  00003	c3		 ret	 0
?GetPublicID@ioMyInfo@@QBEABVioHashString@@XZ ENDP	; ioMyInfo::GetPublicID
_TEXT	ENDS
PUBLIC	?GetGuildJoinUser@ioGuildData@@QAEKXZ		; ioGuildData::GetGuildJoinUser
; Function compile flags: /Ogsp
; File d:\lost saga for developer\youtube\tutorial\source\src\lsclient\ioguildinfo.h
;	COMDAT ?GetGuildJoinUser@ioGuildData@@QAEKXZ
_TEXT	SEGMENT
?GetGuildJoinUser@ioGuildData@@QAEKXZ PROC		; ioGuildData::GetGuildJoinUser, COMDAT
; _this$ = ecx

; 94   : 	inline DWORD GetGuildJoinUser(){ return m_dwGuildJoinUser; }

  00000	8b 41 14	 mov	 eax, DWORD PTR [ecx+20]
  00003	c3		 ret	 0
?GetGuildJoinUser@ioGuildData@@QAEKXZ ENDP		; ioGuildData::GetGuildJoinUser
_TEXT	ENDS
PUBLIC	?GetGuildIndex@ioGuildInfo@@QAEKXZ		; ioGuildInfo::GetGuildIndex
; Function compile flags: /Ogsp
;	COMDAT ?GetGuildIndex@ioGuildInfo@@QAEKXZ
_TEXT	SEGMENT
?GetGuildIndex@ioGuildInfo@@QAEKXZ PROC			; ioGuildInfo::GetGuildIndex, COMDAT
; _this$ = ecx

; 302  : 	inline DWORD GetGuildIndex(){ return m_dwGuildIndex; }

  00000	8b 81 90 00 00
	00		 mov	 eax, DWORD PTR [ecx+144]
  00006	c3		 ret	 0
?GetGuildIndex@ioGuildInfo@@QAEKXZ ENDP			; ioGuildInfo::GetGuildIndex
_TEXT	ENDS
PUBLIC	?size@?$basic_string@DU?$char_traits@D@std@@V?$allocator@D@2@@std@@QBEIXZ ; std::basic_string<char,std::char_traits<char>,std::allocator<char> >::size
; Function compile flags: /Ogsp
; File c:\program files (x86)\microsoft visual studio 10.0\vc\include\xstring
;	COMDAT ?size@?$basic_string@DU?$char_traits@D@std@@V?$allocator@D@2@@std@@QBEIXZ
_TEXT	SEGMENT
?size@?$basic_string@DU?$char_traits@D@std@@V?$allocator@D@2@@std@@QBEIXZ PROC ; std::basic_string<char,std::char_traits<char>,std::allocator<char> >::size, COMDAT
; _this$ = ecx

; 1512 : 		return (this->_Mysize);

  00000	8b 41 10	 mov	 eax, DWORD PTR [ecx+16]

; 1513 : 		}

  00003	c3		 ret	 0
?size@?$basic_string@DU?$char_traits@D@std@@V?$allocator@D@2@@std@@QBEIXZ ENDP ; std::basic_string<char,std::char_traits<char>,std::allocator<char> >::size
_TEXT	ENDS
PUBLIC	?empty@?$vector@UtagTextPiece@ioComplexStringPrinter@@V?$allocator@UtagTextPiece@ioComplexStringPrinter@@@std@@@std@@QBE_NXZ ; std::vector<ioComplexStringPrinter::tagTextPiece,std::allocator<ioComplexStringPrinter::tagTextPiece> >::empty
; Function compile flags: /Ogsp
; File c:\program files (x86)\microsoft visual studio 10.0\vc\include\vector
;	COMDAT ?empty@?$vector@UtagTextPiece@ioComplexStringPrinter@@V?$allocator@UtagTextPiece@ioComplexStringPrinter@@@std@@@std@@QBE_NXZ
_TEXT	SEGMENT
?empty@?$vector@UtagTextPiece@ioComplexStringPrinter@@V?$allocator@UtagTextPiece@ioComplexStringPrinter@@@std@@@std@@QBE_NXZ PROC ; std::vector<ioComplexStringPrinter::tagTextPiece,std::allocator<ioComplexStringPrinter::tagTextPiece> >::empty, COMDAT
; _this$ = ecx

; 889  : 		return (this->_Myfirst == this->_Mylast);

  00000	8b 01		 mov	 eax, DWORD PTR [ecx]
  00002	2b 41 04	 sub	 eax, DWORD PTR [ecx+4]
  00005	f7 d8		 neg	 eax
  00007	1b c0		 sbb	 eax, eax
  00009	40		 inc	 eax

; 890  : 		}

  0000a	c3		 ret	 0
?empty@?$vector@UtagTextPiece@ioComplexStringPrinter@@V?$allocator@UtagTextPiece@ioComplexStringPrinter@@@std@@@std@@QBE_NXZ ENDP ; std::vector<ioComplexStringPrinter::tagTextPiece,std::allocator<ioComplexStringPrinter::tagTextPiece> >::empty
_TEXT	ENDS
PUBLIC	?_Myptr@?$basic_string@DU?$char_traits@D@std@@V?$allocator@D@2@@std@@QBEPBDXZ ; std::basic_string<char,std::char_traits<char>,std::allocator<char> >::_Myptr
; Function compile flags: /Ogsp
; File c:\program files (x86)\microsoft visual studio 10.0\vc\include\xstring
;	COMDAT ?_Myptr@?$basic_string@DU?$char_traits@D@std@@V?$allocator@D@2@@std@@QBEPBDXZ
_TEXT	SEGMENT
?_Myptr@?$basic_string@DU?$char_traits@D@std@@V?$allocator@D@2@@std@@QBEPBDXZ PROC ; std::basic_string<char,std::char_traits<char>,std::allocator<char> >::_Myptr, COMDAT
; _this$ = ecx

; 2010 : 		return (this->_BUF_SIZE <= this->_Myres ? this->_Bx._Ptr
; 2011 : 			: this->_Bx._Buf);

  00000	83 79 14 10	 cmp	 DWORD PTR [ecx+20], 16	; 00000010H
  00004	72 03		 jb	 SHORT $LN3@Myptr
  00006	8b 01		 mov	 eax, DWORD PTR [ecx]

; 2012 : 		}

  00008	c3		 ret	 0
$LN3@Myptr:

; 2010 : 		return (this->_BUF_SIZE <= this->_Myres ? this->_Bx._Ptr
; 2011 : 			: this->_Bx._Buf);

  00009	8b c1		 mov	 eax, ecx

; 2012 : 		}

  0000b	c3		 ret	 0
?_Myptr@?$basic_string@DU?$char_traits@D@std@@V?$allocator@D@2@@std@@QBEPBDXZ ENDP ; std::basic_string<char,std::char_traits<char>,std::allocator<char> >::_Myptr
_TEXT	ENDS
PUBLIC	??1?$_String_val@DV?$allocator@D@std@@@std@@QAE@XZ ; std::_String_val<char,std::allocator<char> >::~_String_val<char,std::allocator<char> >
; Function compile flags: /Ogsp
;	COMDAT ??1?$_String_val@DV?$allocator@D@std@@@std@@QAE@XZ
_TEXT	SEGMENT
??1?$_String_val@DV?$allocator@D@std@@@std@@QAE@XZ PROC	; std::_String_val<char,std::allocator<char> >::~_String_val<char,std::allocator<char> >, COMDAT
; _this$ = ecx

; 459  : 		}

  00000	c3		 ret	 0
??1?$_String_val@DV?$allocator@D@std@@@std@@QAE@XZ ENDP	; std::_String_val<char,std::allocator<char> >::~_String_val<char,std::allocator<char> >
_TEXT	ENDS
PUBLIC	??0?$allocator@D@std@@QAE@XZ			; std::allocator<char>::allocator<char>
; Function compile flags: /Ogsp
; File c:\program files (x86)\microsoft visual studio 10.0\vc\include\xmemory
;	COMDAT ??0?$allocator@D@std@@QAE@XZ
_TEXT	SEGMENT
??0?$allocator@D@std@@QAE@XZ PROC			; std::allocator<char>::allocator<char>, COMDAT
; _this$ = ecx

; 161  : 	_ALLOCATOR() _THROW0()

  00000	8b c1		 mov	 eax, ecx

; 162  : 		{	// construct default allocator (do nothing)
; 163  : 		}

  00002	c3		 ret	 0
??0?$allocator@D@std@@QAE@XZ ENDP			; std::allocator<char>::allocator<char>
_TEXT	ENDS
PUBLIC	??0?$allocator@D@std@@QAE@ABV01@@Z		; std::allocator<char>::allocator<char>
; Function compile flags: /Ogsp
;	COMDAT ??0?$allocator@D@std@@QAE@ABV01@@Z
_TEXT	SEGMENT
___formal$ = 8						; size = 4
??0?$allocator@D@std@@QAE@ABV01@@Z PROC			; std::allocator<char>::allocator<char>, COMDAT
; _this$ = ecx

; 165  : 	_ALLOCATOR(const _ALLOCATOR<_Ty>&) _THROW0()

  00000	8b c1		 mov	 eax, ecx

; 166  : 		{	// construct by copying (do nothing)
; 167  : 		}

  00002	c2 04 00	 ret	 4
??0?$allocator@D@std@@QAE@ABV01@@Z ENDP			; std::allocator<char>::allocator<char>
_TEXT	ENDS
PUBLIC	?_Myptr@?$basic_string@DU?$char_traits@D@std@@V?$allocator@D@2@@std@@QAEPADXZ ; std::basic_string<char,std::char_traits<char>,std::allocator<char> >::_Myptr
; Function compile flags: /Ogsp
; File c:\program files (x86)\microsoft visual studio 10.0\vc\include\xstring
;	COMDAT ?_Myptr@?$basic_string@DU?$char_traits@D@std@@V?$allocator@D@2@@std@@QAEPADXZ
_TEXT	SEGMENT
?_Myptr@?$basic_string@DU?$char_traits@D@std@@V?$allocator@D@2@@std@@QAEPADXZ PROC ; std::basic_string<char,std::char_traits<char>,std::allocator<char> >::_Myptr, COMDAT
; _this$ = ecx

; 2004 : 		return (this->_BUF_SIZE <= this->_Myres ? this->_Bx._Ptr
; 2005 : 			: this->_Bx._Buf);

  00000	83 79 14 10	 cmp	 DWORD PTR [ecx+20], 16	; 00000010H
  00004	72 03		 jb	 SHORT $LN3@Myptr@2
  00006	8b 01		 mov	 eax, DWORD PTR [ecx]

; 2006 : 		}

  00008	c3		 ret	 0
$LN3@Myptr@2:

; 2004 : 		return (this->_BUF_SIZE <= this->_Myres ? this->_Bx._Ptr
; 2005 : 			: this->_Bx._Buf);

  00009	8b c1		 mov	 eax, ecx

; 2006 : 		}

  0000b	c3		 ret	 0
?_Myptr@?$basic_string@DU?$char_traits@D@std@@V?$allocator@D@2@@std@@QAEPADXZ ENDP ; std::basic_string<char,std::char_traits<char>,std::allocator<char> >::_Myptr
_TEXT	ENDS
PUBLIC	??_C@_0BA@JFNIOLAK@string?5too?5long?$AA@	; `string'
PUBLIC	?_Xlen@?$basic_string@DU?$char_traits@D@std@@V?$allocator@D@2@@std@@QBEXXZ ; std::basic_string<char,std::char_traits<char>,std::allocator<char> >::_Xlen
;	COMDAT ??_C@_0BA@JFNIOLAK@string?5too?5long?$AA@
CONST	SEGMENT
??_C@_0BA@JFNIOLAK@string?5too?5long?$AA@ DB 'string too long', 00H ; `string'
; Function compile flags: /Ogsp
CONST	ENDS
;	COMDAT ?_Xlen@?$basic_string@DU?$char_traits@D@std@@V?$allocator@D@2@@std@@QBEXXZ
_TEXT	SEGMENT
?_Xlen@?$basic_string@DU?$char_traits@D@std@@V?$allocator@D@2@@std@@QBEXXZ PROC ; std::basic_string<char,std::char_traits<char>,std::allocator<char> >::_Xlen, COMDAT
; _this$ = ecx

; 2016 : 		_Xlength_error("string too long");

  00000	68 00 00 00 00	 push	 OFFSET ??_C@_0BA@JFNIOLAK@string?5too?5long?$AA@
  00005	ff 15 00 00 00
	00		 call	 DWORD PTR __imp_?_Xlength_error@std@@YAXPBD@Z
$LN4@Xlen@2:
$LN3@Xlen@2:
  0000b	cc		 int	 3
?_Xlen@?$basic_string@DU?$char_traits@D@std@@V?$allocator@D@2@@std@@QBEXXZ ENDP ; std::basic_string<char,std::char_traits<char>,std::allocator<char> >::_Xlen
_TEXT	ENDS
PUBLIC	??_C@_0BI@CFPLBAOH@invalid?5string?5position?$AA@ ; `string'
PUBLIC	?_Xran@?$basic_string@DU?$char_traits@D@std@@V?$allocator@D@2@@std@@QBEXXZ ; std::basic_string<char,std::char_traits<char>,std::allocator<char> >::_Xran
EXTRN	__imp_?_Xout_of_range@std@@YAXPBD@Z:PROC
;	COMDAT ??_C@_0BI@CFPLBAOH@invalid?5string?5position?$AA@
CONST	SEGMENT
??_C@_0BI@CFPLBAOH@invalid?5string?5position?$AA@ DB 'invalid string posi'
	DB	'tion', 00H					; `string'
; Function compile flags: /Ogsp
CONST	ENDS
;	COMDAT ?_Xran@?$basic_string@DU?$char_traits@D@std@@V?$allocator@D@2@@std@@QBEXXZ
_TEXT	SEGMENT
?_Xran@?$basic_string@DU?$char_traits@D@std@@V?$allocator@D@2@@std@@QBEXXZ PROC ; std::basic_string<char,std::char_traits<char>,std::allocator<char> >::_Xran, COMDAT
; _this$ = ecx

; 2021 : 		_Xout_of_range("invalid string position");

  00000	68 00 00 00 00	 push	 OFFSET ??_C@_0BI@CFPLBAOH@invalid?5string?5position?$AA@
  00005	ff 15 00 00 00
	00		 call	 DWORD PTR __imp_?_Xout_of_range@std@@YAXPBD@Z
$LN4@Xran:
$LN3@Xran:
  0000b	cc		 int	 3
?_Xran@?$basic_string@DU?$char_traits@D@std@@V?$allocator@D@2@@std@@QBEXXZ ENDP ; std::basic_string<char,std::char_traits<char>,std::allocator<char> >::_Xran
_TEXT	ENDS
PUBLIC	?deallocate@?$allocator@D@std@@QAEXPADI@Z	; std::allocator<char>::deallocate
; Function compile flags: /Ogsp
; File c:\program files (x86)\microsoft visual studio 10.0\vc\include\xmemory
;	COMDAT ?deallocate@?$allocator@D@std@@QAEXPADI@Z
_TEXT	SEGMENT
__Ptr$ = 8						; size = 4
___formal$ = 12						; size = 4
?deallocate@?$allocator@D@std@@QAEXPADI@Z PROC		; std::allocator<char>::deallocate, COMDAT
; _this$ = ecx

; 181  : 		{	// deallocate object at _Ptr, ignore size

  00000	55		 push	 ebp
  00001	8b ec		 mov	 ebp, esp

; 182  : 		::operator delete(_Ptr);

  00003	ff 75 08	 push	 DWORD PTR __Ptr$[ebp]
  00006	e8 00 00 00 00	 call	 ??3@YAXPAX@Z		; operator delete
  0000b	59		 pop	 ecx

; 183  : 		}

  0000c	5d		 pop	 ebp
  0000d	c2 08 00	 ret	 8
?deallocate@?$allocator@D@std@@QAEXPADI@Z ENDP		; std::allocator<char>::deallocate
_TEXT	ENDS
PUBLIC	?_Inside@?$basic_string@DU?$char_traits@D@std@@V?$allocator@D@2@@std@@QAE_NPBD@Z ; std::basic_string<char,std::char_traits<char>,std::allocator<char> >::_Inside
; Function compile flags: /Ogsp
; File c:\program files (x86)\microsoft visual studio 10.0\vc\include\xstring
;	COMDAT ?_Inside@?$basic_string@DU?$char_traits@D@std@@V?$allocator@D@2@@std@@QAE_NPBD@Z
_TEXT	SEGMENT
__Ptr$ = 8						; size = 4
?_Inside@?$basic_string@DU?$char_traits@D@std@@V?$allocator@D@2@@std@@QAE_NPBD@Z PROC ; std::basic_string<char,std::char_traits<char>,std::allocator<char> >::_Inside, COMDAT
; _this$ = ecx

; 1973 : 		{	// test if _Ptr points inside string

  00000	55		 push	 ebp
  00001	8b ec		 mov	 ebp, esp

; 1974 : 		if (_Ptr == 0 || _Ptr < _Myptr() || _Myptr() + this->_Mysize <= _Ptr)

  00003	83 7d 08 00	 cmp	 DWORD PTR __Ptr$[ebp], 0
  00007	74 2c		 je	 SHORT $LN2@Inside@2
  00009	8b 51 14	 mov	 edx, DWORD PTR [ecx+20]
  0000c	83 fa 10	 cmp	 edx, 16			; 00000010H
  0000f	72 04		 jb	 SHORT $LN8@Inside@2
  00011	8b 01		 mov	 eax, DWORD PTR [ecx]
  00013	eb 02		 jmp	 SHORT $LN9@Inside@2
$LN8@Inside@2:
  00015	8b c1		 mov	 eax, ecx
$LN9@Inside@2:
  00017	39 45 08	 cmp	 DWORD PTR __Ptr$[ebp], eax
  0001a	72 19		 jb	 SHORT $LN2@Inside@2
  0001c	83 fa 10	 cmp	 edx, 16			; 00000010H
  0001f	72 04		 jb	 SHORT $LN12@Inside@2
  00021	8b 01		 mov	 eax, DWORD PTR [ecx]
  00023	eb 02		 jmp	 SHORT $LN13@Inside@2
$LN12@Inside@2:
  00025	8b c1		 mov	 eax, ecx
$LN13@Inside@2:
  00027	8b 49 10	 mov	 ecx, DWORD PTR [ecx+16]
  0002a	03 c8		 add	 ecx, eax
  0002c	3b 4d 08	 cmp	 ecx, DWORD PTR __Ptr$[ebp]
  0002f	76 04		 jbe	 SHORT $LN2@Inside@2

; 1976 : 		else
; 1977 : 			return (true);

  00031	b0 01		 mov	 al, 1
  00033	eb 02		 jmp	 SHORT $LN1@Inside@2
$LN2@Inside@2:

; 1975 : 			return (false);	// don't ask

  00035	32 c0		 xor	 al, al
$LN1@Inside@2:

; 1978 : 		}

  00037	5d		 pop	 ebp
  00038	c2 04 00	 ret	 4
?_Inside@?$basic_string@DU?$char_traits@D@std@@V?$allocator@D@2@@std@@QAE_NPBD@Z ENDP ; std::basic_string<char,std::char_traits<char>,std::allocator<char> >::_Inside
_TEXT	ENDS
PUBLIC	?max_size@?$allocator@D@std@@QBEIXZ		; std::allocator<char>::max_size
; Function compile flags: /Ogsp
; File c:\program files (x86)\microsoft visual studio 10.0\vc\include\xmemory
;	COMDAT ?max_size@?$allocator@D@std@@QBEIXZ
_TEXT	SEGMENT
?max_size@?$allocator@D@std@@QBEIXZ PROC		; std::allocator<char>::max_size, COMDAT
; _this$ = ecx

; 218  : 		_SIZT _Count = (_SIZT)(-1) / sizeof (_Ty);
; 219  : 		return (0 < _Count ? _Count : 1);

  00000	83 c8 ff	 or	 eax, -1

; 220  : 		}

  00003	c3		 ret	 0
?max_size@?$allocator@D@std@@QBEIXZ ENDP		; std::allocator<char>::max_size
_TEXT	ENDS
PUBLIC	??$_Allocate@D@std@@YAPADIPAD@Z			; std::_Allocate<char>
; Function compile flags: /Ogsp
;	COMDAT ??$_Allocate@D@std@@YAPADIPAD@Z
_TEXT	SEGMENT
$T508588 = -12						; size = 12
$T508592 = 8						; size = 4
__Count$ = 8						; size = 4
___formal$ = 12						; size = 4
??$_Allocate@D@std@@YAPADIPAD@Z PROC			; std::_Allocate<char>, COMDAT

; 30   : 	{	// allocate storage for _Count elements of type _Ty

  00000	55		 push	 ebp
  00001	8b ec		 mov	 ebp, esp

; 31   : 	void *_Ptr = 0;

  00003	33 c0		 xor	 eax, eax
  00005	83 ec 0c	 sub	 esp, 12			; 0000000cH

; 32   : 
; 33   : 	if (_Count <= 0)

  00008	39 45 08	 cmp	 DWORD PTR __Count$[ebp], eax

; 34   : 		_Count = 0;
; 35   : 	else if (((_SIZT)(-1) / sizeof (_Ty) < _Count)

  0000b	76 39		 jbe	 SHORT $LN5@Allocate@2

; 36   : 		|| (_Ptr = ::operator new(_Count * sizeof (_Ty))) == 0)

  0000d	83 7d 08 ff	 cmp	 DWORD PTR __Count$[ebp], -1
  00011	77 0d		 ja	 SHORT $LN1@Allocate@2
  00013	ff 75 08	 push	 DWORD PTR __Count$[ebp]
  00016	e8 00 00 00 00	 call	 ??2@YAPAXI@Z		; operator new
  0001b	59		 pop	 ecx
  0001c	85 c0		 test	 eax, eax

; 38   : 
; 39   : 	return ((_Ty _FARQ *)_Ptr);

  0001e	75 26		 jne	 SHORT $LN5@Allocate@2
$LN1@Allocate@2:

; 37   : 		_THROW_NCEE(bad_alloc, 0);

  00020	83 65 08 00	 and	 DWORD PTR $T508592[ebp], 0
  00024	8d 45 08	 lea	 eax, DWORD PTR $T508592[ebp]
  00027	50		 push	 eax
  00028	8d 4d f4	 lea	 ecx, DWORD PTR $T508588[ebp]
  0002b	ff 15 00 00 00
	00		 call	 DWORD PTR __imp_??0exception@std@@QAE@ABQBD@Z
  00031	68 00 00 00 00	 push	 OFFSET __TI2?AVbad_alloc@std@@
  00036	8d 45 f4	 lea	 eax, DWORD PTR $T508588[ebp]
  00039	50		 push	 eax
  0003a	c7 45 f4 00 00
	00 00		 mov	 DWORD PTR $T508588[ebp], OFFSET ??_7bad_alloc@std@@6B@
  00041	e8 00 00 00 00	 call	 __CxxThrowException@8
$LN10@Allocate@2:
$LN5@Allocate@2:

; 40   : 	}

  00046	c9		 leave
  00047	c3		 ret	 0
$LN9@Allocate@2:
??$_Allocate@D@std@@YAPADIPAD@Z ENDP			; std::_Allocate<char>
_TEXT	ENDS
EXTRN	__imp_??0exception@std@@QAE@ABV01@@Z:PROC
; Function compile flags: /Ogsp
;	COMDAT ??0bad_alloc@std@@QAE@ABV01@@Z
_TEXT	SEGMENT
___that$ = 8						; size = 4
??0bad_alloc@std@@QAE@ABV01@@Z PROC			; std::bad_alloc::bad_alloc, COMDAT
; _this$ = ecx
  00000	55		 push	 ebp
  00001	8b ec		 mov	 ebp, esp
  00003	56		 push	 esi
  00004	ff 75 08	 push	 DWORD PTR ___that$[ebp]
  00007	8b f1		 mov	 esi, ecx
  00009	ff 15 00 00 00
	00		 call	 DWORD PTR __imp_??0exception@std@@QAE@ABV01@@Z
  0000f	c7 06 00 00 00
	00		 mov	 DWORD PTR [esi], OFFSET ??_7bad_alloc@std@@6B@
  00015	8b c6		 mov	 eax, esi
  00017	5e		 pop	 esi
  00018	5d		 pop	 ebp
  00019	c2 04 00	 ret	 4
??0bad_alloc@std@@QAE@ABV01@@Z ENDP			; std::bad_alloc::bad_alloc
_TEXT	ENDS
PUBLIC	?GetChatInfoSize@ioGuildChatMgr@@QAEHXZ		; ioGuildChatMgr::GetChatInfoSize
; Function compile flags: /Ogsp
; File d:\lost saga for developer\youtube\tutorial\source\src\lsclient\ioguildchatmgr.h
;	COMDAT ?GetChatInfoSize@ioGuildChatMgr@@QAEHXZ
_TEXT	SEGMENT
?GetChatInfoSize@ioGuildChatMgr@@QAEHXZ PROC		; ioGuildChatMgr::GetChatInfoSize, COMDAT
; _this$ = ecx

; 24   : 	int  GetChatInfoSize(){ return m_vChatInfo.size(); }

  00000	8b 41 08	 mov	 eax, DWORD PTR [ecx+8]
  00003	2b 41 04	 sub	 eax, DWORD PTR [ecx+4]
  00006	c1 f8 02	 sar	 eax, 2
  00009	c3		 ret	 0
?GetChatInfoSize@ioGuildChatMgr@@QAEHXZ ENDP		; ioGuildChatMgr::GetChatInfoSize
_TEXT	ENDS
PUBLIC	?GetSingleton@ioGuildChatMgr@@SAAAV1@XZ		; ioGuildChatMgr::GetSingleton
; Function compile flags: /Ogsp
; File d:\lost saga for developer\youtube\tutorial\source\src\lsclient\ioguildchatmgr.cpp
;	COMDAT ?GetSingleton@ioGuildChatMgr@@SAAAV1@XZ
_TEXT	SEGMENT
?GetSingleton@ioGuildChatMgr@@SAAAV1@XZ PROC		; ioGuildChatMgr::GetSingleton, COMDAT

; 21   : 	return Singleton< ioGuildChatMgr >::GetSingleton();

  00000	a1 00 00 00 00	 mov	 eax, DWORD PTR ?ms_Singleton@?$Singleton@VioGuildChatMgr@@@@1PAVioGuildChatMgr@@A ; Singleton<ioGuildChatMgr>::ms_Singleton

; 22   : }

  00005	c3		 ret	 0
?GetSingleton@ioGuildChatMgr@@SAAAV1@XZ ENDP		; ioGuildChatMgr::GetSingleton
_TEXT	ENDS
PUBLIC	??_GtagChatInfo@@QAEPAXI@Z			; tagChatInfo::`scalar deleting destructor'
; Function compile flags: /Ogsp
;	COMDAT ??_GtagChatInfo@@QAEPAXI@Z
_TEXT	SEGMENT
___flags$ = 8						; size = 4
??_GtagChatInfo@@QAEPAXI@Z PROC				; tagChatInfo::`scalar deleting destructor', COMDAT
; _this$ = ecx
  00000	55		 push	 ebp
  00001	8b ec		 mov	 ebp, esp
  00003	56		 push	 esi
  00004	8b f1		 mov	 esi, ecx
  00006	e8 00 00 00 00	 call	 ??1tagChatInfo@@QAE@XZ
  0000b	f6 45 08 01	 test	 BYTE PTR ___flags$[ebp], 1
  0000f	74 07		 je	 SHORT $LN1@scalar@2
  00011	56		 push	 esi
  00012	e8 00 00 00 00	 call	 ??3@YAXPAX@Z		; operator delete
  00017	59		 pop	 ecx
$LN1@scalar@2:
  00018	8b c6		 mov	 eax, esi
  0001a	5e		 pop	 esi
  0001b	5d		 pop	 ebp
  0001c	c2 04 00	 ret	 4
??_GtagChatInfo@@QAEPAXI@Z ENDP				; tagChatInfo::`scalar deleting destructor'
_TEXT	ENDS
PUBLIC	??_C@_05JAKGOCLP@?5?1?5?$CFs?$AA@		; `string'
PUBLIC	??_C@_02DKCKIIND@?$CFs?$AA@			; `string'
PUBLIC	_szName$GSCopy$
PUBLIC	?GetUserNameA@ioGuildChatMgr@@QAEXPADH@Z	; ioGuildChatMgr::GetUserNameA
EXTRN	__imp__sprintf:PROC
EXTRN	__imp_?c_str@ioHashString@@QBEPBDXZ:PROC
EXTRN	__imp_?IsEmpty@ioHashString@@QBE_NXZ:PROC
EXTRN	?GetUserInfo@ioGuildData@@QAEXHAAVioHashString@@AA_N@Z:PROC ; ioGuildData::GetUserInfo
EXTRN	?GetGuildData@ioGuildInfo@@QAEPAVioGuildData@@K_N@Z:PROC ; ioGuildInfo::GetGuildData
EXTRN	__EH_epilog3_GS:PROC
EXTRN	__EH_prolog3_GS:PROC
EXTRN	_memset:PROC
;	COMDAT ??_C@_05JAKGOCLP@?5?1?5?$CFs?$AA@
; File d:\lost saga for developer\youtube\tutorial\source\src\lsclient\ioguildinfo.h
CONST	SEGMENT
??_C@_05JAKGOCLP@?5?1?5?$CFs?$AA@ DB ' / %s', 00H	; `string'
CONST	ENDS
;	COMDAT ??_C@_02DKCKIIND@?$CFs?$AA@
CONST	SEGMENT
??_C@_02DKCKIIND@?$CFs?$AA@ DB '%s', 00H		; `string'
CONST	ENDS
;	COMDAT xdata$x
xdata$x	SEGMENT
__unwindtable$?GetUserNameA@ioGuildChatMgr@@QAEXPADH@Z DD 0ffffffffH
	DD	FLAT:__unwindfunclet$?GetUserNameA@ioGuildChatMgr@@QAEXPADH@Z$0
__ehfuncinfo$?GetUserNameA@ioGuildChatMgr@@QAEXPADH@Z DD 019930522H
	DD	01H
	DD	FLAT:__unwindtable$?GetUserNameA@ioGuildChatMgr@@QAEXPADH@Z
	DD	2 DUP(00H)
	DD	2 DUP(00H)
	DD	00H
	DD	01H
; Function compile flags: /Ogsp
; File d:\lost saga for developer\youtube\tutorial\source\src\lsclient\ioguildchatmgr.cpp
xdata$x	ENDS
;	COMDAT ?GetUserNameA@ioGuildChatMgr@@QAEXPADH@Z
_TEXT	SEGMENT
tv170 = -316						; size = 4
_iSize$507341 = -312					; size = 4
_pGuildData$ = -308					; size = 4
_szUserID$507347 = -304					; size = 16
_szName$GSCopy$ = -288					; size = 4
_i$507342 = -284					; size = 4
_bOnline$507346 = -277					; size = 1
_szBuf$ = -276						; size = 260
__$EHRec$ = -12						; size = 12
_szName$ = 8						; size = 4
_iMaxSize$ = 12						; size = 4
?GetUserNameA@ioGuildChatMgr@@QAEXPADH@Z PROC		; ioGuildChatMgr::GetUserNameA, COMDAT
; _this$ = ecx

; 42   : {

  00000	68 30 01 00 00	 push	 304			; 00000130H
  00005	b8 00 00 00 00	 mov	 eax, __ehhandler$?GetUserNameA@ioGuildChatMgr@@QAEXPADH@Z
  0000a	e8 00 00 00 00	 call	 __EH_prolog3_GS

; 48   : 		for(int i = 0;i < iSize;i++)

  0000f	8b 45 08	 mov	 eax, DWORD PTR _szName$[ebp]
  00012	68 03 01 00 00	 push	 259			; 00000103H
  00017	89 85 e0 fe ff
	ff		 mov	 DWORD PTR _szName$GSCopy$[ebp], eax
  0001d	33 f6		 xor	 esi, esi
  0001f	8d 85 ed fe ff
	ff		 lea	 eax, DWORD PTR _szBuf$[ebp+1]
  00025	56		 push	 esi
  00026	50		 push	 eax
  00027	c6 85 ec fe ff
	ff 00		 mov	 BYTE PTR _szBuf$[ebp], 0
  0002e	e8 00 00 00 00	 call	 _memset
  00033	83 c4 0c	 add	 esp, 12			; 0000000cH
  00036	e8 00 00 00 00	 call	 ?GetSingleton@ioGuildInfo@@SAAAV1@XZ ; ioGuildInfo::GetSingleton
  0003b	8b 80 90 00 00
	00		 mov	 eax, DWORD PTR [eax+144]
  00041	56		 push	 esi
  00042	50		 push	 eax
  00043	e8 00 00 00 00	 call	 ?GetSingleton@ioGuildInfo@@SAAAV1@XZ ; ioGuildInfo::GetSingleton
  00048	8b c8		 mov	 ecx, eax
  0004a	e8 00 00 00 00	 call	 ?GetGuildData@ioGuildInfo@@QAEPAVioGuildData@@K_N@Z ; ioGuildInfo::GetGuildData
  0004f	89 85 cc fe ff
	ff		 mov	 DWORD PTR _pGuildData$[ebp], eax
  00055	3b c6		 cmp	 eax, esi
  00057	0f 84 30 01 00
	00		 je	 $LN6@GetUserNam

; 43   : 	char szBuf[MAX_PATH] = "";    
; 44   : 	ioGuildData *pGuildData = g_GuildInfo.GetGuildData( g_GuildInfo.GetGuildIndex() );
; 45   : 	if( pGuildData )
; 46   : 	{
; 47   : 		int iSize = pGuildData->GetGuildJoinUser();

  0005d	8b 40 14	 mov	 eax, DWORD PTR [eax+20]
  00060	89 85 c8 fe ff
	ff		 mov	 DWORD PTR _iSize$507341[ebp], eax

; 48   : 		for(int i = 0;i < iSize;i++)

  00066	89 b5 e4 fe ff
	ff		 mov	 DWORD PTR _i$507342[ebp], esi
  0006c	3b c6		 cmp	 eax, esi
  0006e	0f 8e 19 01 00
	00		 jle	 $LN6@GetUserNam
  00074	8b 1d 00 00 00
	00		 mov	 ebx, DWORD PTR __imp_??1ioHashString@@QAE@XZ
$LN8@GetUserNam:

; 49   : 		{
; 50   : 			bool bOnline = false;
; 51   : 			ioHashString szUserID;

  0007a	8d 8d d0 fe ff
	ff		 lea	 ecx, DWORD PTR _szUserID$507347[ebp]
  00080	c6 85 eb fe ff
	ff 00		 mov	 BYTE PTR _bOnline$507346[ebp], 0
  00087	ff 15 00 00 00
	00		 call	 DWORD PTR __imp_??0ioHashString@@QAE@XZ

; 52   : 			pGuildData->GetUserInfo( i, szUserID, bOnline );

  0008d	8b 8d cc fe ff
	ff		 mov	 ecx, DWORD PTR _pGuildData$[ebp]
  00093	83 65 fc 00	 and	 DWORD PTR __$EHRec$[ebp+8], 0
  00097	8d 85 eb fe ff
	ff		 lea	 eax, DWORD PTR _bOnline$507346[ebp]
  0009d	50		 push	 eax
  0009e	8d 85 d0 fe ff
	ff		 lea	 eax, DWORD PTR _szUserID$507347[ebp]
  000a4	50		 push	 eax
  000a5	ff b5 e4 fe ff
	ff		 push	 DWORD PTR _i$507342[ebp]
  000ab	e8 00 00 00 00	 call	 ?GetUserInfo@ioGuildData@@QAEXHAAVioHashString@@AA_N@Z ; ioGuildData::GetUserInfo

; 53   : 			if( szUserID.IsEmpty() ) continue;

  000b0	8d 8d d0 fe ff
	ff		 lea	 ecx, DWORD PTR _szUserID$507347[ebp]
  000b6	ff 15 00 00 00
	00		 call	 DWORD PTR __imp_?IsEmpty@ioHashString@@QBE_NXZ
  000bc	84 c0		 test	 al, al
  000be	0f 85 97 00 00
	00		 jne	 $LN26@GetUserNam

; 54   : 			if( !bOnline ) continue;

  000c4	38 85 eb fe ff
	ff		 cmp	 BYTE PTR _bOnline$507346[ebp], al
  000ca	0f 84 8b 00 00
	00		 je	 $LN26@GetUserNam

; 55   : 
; 56   : 			if( strlen( szBuf ) == 0 )

  000d0	8d 85 ec fe ff
	ff		 lea	 eax, DWORD PTR _szBuf$[ebp]
  000d6	8d 50 01	 lea	 edx, DWORD PTR [eax+1]
$LL20@GetUserNam:
  000d9	8a 08		 mov	 cl, BYTE PTR [eax]
  000db	40		 inc	 eax
  000dc	84 c9		 test	 cl, cl
  000de	75 f9		 jne	 SHORT $LL20@GetUserNam
  000e0	2b c2		 sub	 eax, edx

; 57   : 				sprintf( szBuf, "%s", szUserID.c_str() );

  000e2	8d 8d d0 fe ff
	ff		 lea	 ecx, DWORD PTR _szUserID$507347[ebp]
  000e8	75 0e		 jne	 SHORT $LN3@GetUserNam
  000ea	ff 15 00 00 00
	00		 call	 DWORD PTR __imp_?c_str@ioHashString@@QBEPBDXZ
  000f0	50		 push	 eax
  000f1	68 00 00 00 00	 push	 OFFSET ??_C@_02DKCKIIND@?$CFs?$AA@

; 58   : 			else

  000f6	eb 0c		 jmp	 SHORT $LN27@GetUserNam
$LN3@GetUserNam:

; 59   : 				sprintf( szBuf, " / %s", szUserID.c_str() );

  000f8	ff 15 00 00 00
	00		 call	 DWORD PTR __imp_?c_str@ioHashString@@QBEPBDXZ
  000fe	50		 push	 eax
  000ff	68 00 00 00 00	 push	 OFFSET ??_C@_05JAKGOCLP@?5?1?5?$CFs?$AA@
$LN27@GetUserNam:
  00104	8d 85 ec fe ff
	ff		 lea	 eax, DWORD PTR _szBuf$[ebp]
  0010a	50		 push	 eax
  0010b	ff 15 00 00 00
	00		 call	 DWORD PTR __imp__sprintf

; 60   : 
; 61   : 			strcat( szName, szBuf );

  00111	8d 85 ec fe ff
	ff		 lea	 eax, DWORD PTR _szBuf$[ebp]
  00117	83 c4 0c	 add	 esp, 12			; 0000000cH
  0011a	8b d0		 mov	 edx, eax
$LL21@GetUserNam:
  0011c	8a 08		 mov	 cl, BYTE PTR [eax]
  0011e	40		 inc	 eax
  0011f	84 c9		 test	 cl, cl
  00121	75 f9		 jne	 SHORT $LL21@GetUserNam
  00123	8b bd e0 fe ff
	ff		 mov	 edi, DWORD PTR _szName$GSCopy$[ebp]
  00129	2b c2		 sub	 eax, edx
  0012b	4f		 dec	 edi
$LL22@GetUserNam:
  0012c	8a 4f 01	 mov	 cl, BYTE PTR [edi+1]
  0012f	47		 inc	 edi
  00130	84 c9		 test	 cl, cl
  00132	75 f8		 jne	 SHORT $LL22@GetUserNam
  00134	8b c8		 mov	 ecx, eax
  00136	c1 e9 02	 shr	 ecx, 2
  00139	8b f2		 mov	 esi, edx
  0013b	f3 a5		 rep movsd
  0013d	8b c8		 mov	 ecx, eax

; 62   : 			if( (int)strlen( szName ) >= iMaxSize )

  0013f	8b 85 e0 fe ff
	ff		 mov	 eax, DWORD PTR _szName$GSCopy$[ebp]
  00145	83 e1 03	 and	 ecx, 3
  00148	f3 a4		 rep movsb
  0014a	8d 48 01	 lea	 ecx, DWORD PTR [eax+1]
$LL23@GetUserNam:
  0014d	8a 10		 mov	 dl, BYTE PTR [eax]
  0014f	40		 inc	 eax
  00150	84 d2		 test	 dl, dl
  00152	75 f9		 jne	 SHORT $LL23@GetUserNam
  00154	2b c1		 sub	 eax, ecx
  00156	3b 45 0c	 cmp	 eax, DWORD PTR _iMaxSize$[ebp]
  00159	7d 26		 jge	 SHORT $LN18@GetUserNam
$LN26@GetUserNam:

; 64   : 		}

  0015b	83 4d fc ff	 or	 DWORD PTR __$EHRec$[ebp+8], -1
  0015f	8d 8d d0 fe ff
	ff		 lea	 ecx, DWORD PTR _szUserID$507347[ebp]
  00165	ff d3		 call	 ebx
  00167	ff 85 e4 fe ff
	ff		 inc	 DWORD PTR _i$507342[ebp]
  0016d	8b 85 e4 fe ff
	ff		 mov	 eax, DWORD PTR _i$507342[ebp]
  00173	3b 85 c8 fe ff
	ff		 cmp	 eax, DWORD PTR _iSize$507341[ebp]
  00179	0f 8c fb fe ff
	ff		 jl	 $LN8@GetUserNam

; 62   : 			if( (int)strlen( szName ) >= iMaxSize )

  0017f	eb 0c		 jmp	 SHORT $LN6@GetUserNam
$LN18@GetUserNam:

; 63   : 				break;

  00181	83 4d fc ff	 or	 DWORD PTR __$EHRec$[ebp+8], -1
  00185	8d 8d d0 fe ff
	ff		 lea	 ecx, DWORD PTR _szUserID$507347[ebp]
  0018b	ff d3		 call	 ebx
$LN6@GetUserNam:

; 65   : 	}
; 66   : }

  0018d	e8 00 00 00 00	 call	 __EH_epilog3_GS
  00192	c2 08 00	 ret	 8
_TEXT	ENDS
;	COMDAT text$x
text$x	SEGMENT
__unwindfunclet$?GetUserNameA@ioGuildChatMgr@@QAEXPADH@Z$0:
  00000	8d 8d d0 fe ff
	ff		 lea	 ecx, DWORD PTR _szUserID$507347[ebp]
  00006	ff 25 00 00 00
	00		 jmp	 DWORD PTR __imp_??1ioHashString@@QAE@XZ
__ehhandler$?GetUserNameA@ioGuildChatMgr@@QAEXPADH@Z:
  0000c	8b 54 24 08	 mov	 edx, DWORD PTR [esp+8]
  00010	8d 42 0c	 lea	 eax, DWORD PTR [edx+12]
  00013	8b 8a c0 fe ff
	ff		 mov	 ecx, DWORD PTR [edx-320]
  00019	33 c8		 xor	 ecx, eax
  0001b	e8 00 00 00 00	 call	 @__security_check_cookie@4
  00020	8b 4a fc	 mov	 ecx, DWORD PTR [edx-4]
  00023	33 c8		 xor	 ecx, eax
  00025	e8 00 00 00 00	 call	 @__security_check_cookie@4
  0002a	b8 00 00 00 00	 mov	 eax, OFFSET __ehfuncinfo$?GetUserNameA@ioGuildChatMgr@@QAEXPADH@Z
  0002f	e9 00 00 00 00	 jmp	 ___CxxFrameHandler3
text$x	ENDS
?GetUserNameA@ioGuildChatMgr@@QAEXPADH@Z ENDP		; ioGuildChatMgr::GetUserNameA
PUBLIC	?GetUserSize@ioGuildChatMgr@@QAEHXZ		; ioGuildChatMgr::GetUserSize
EXTRN	?GetOnlineUserSize@ioGuildData@@QAEHXZ:PROC	; ioGuildData::GetOnlineUserSize
; Function compile flags: /Ogsp
;	COMDAT ?GetUserSize@ioGuildChatMgr@@QAEHXZ
_TEXT	SEGMENT
?GetUserSize@ioGuildChatMgr@@QAEHXZ PROC		; ioGuildChatMgr::GetUserSize, COMDAT
; _this$ = ecx

; 70   : 	ioGuildData *pGuildData = g_GuildInfo.GetGuildData( g_GuildInfo.GetGuildIndex() );

  00000	e8 00 00 00 00	 call	 ?GetSingleton@ioGuildInfo@@SAAAV1@XZ ; ioGuildInfo::GetSingleton
  00005	8b 80 90 00 00
	00		 mov	 eax, DWORD PTR [eax+144]
  0000b	6a 00		 push	 0
  0000d	50		 push	 eax
  0000e	e8 00 00 00 00	 call	 ?GetSingleton@ioGuildInfo@@SAAAV1@XZ ; ioGuildInfo::GetSingleton
  00013	8b c8		 mov	 ecx, eax
  00015	e8 00 00 00 00	 call	 ?GetGuildData@ioGuildInfo@@QAEPAVioGuildData@@K_N@Z ; ioGuildInfo::GetGuildData

; 71   : 	if( pGuildData )

  0001a	85 c0		 test	 eax, eax
  0001c	74 07		 je	 SHORT $LN1@GetUserSiz

; 72   : 	{
; 73   : 		return pGuildData->GetOnlineUserSize();

  0001e	8b c8		 mov	 ecx, eax
  00020	e9 00 00 00 00	 jmp	 ?GetOnlineUserSize@ioGuildData@@QAEHXZ ; ioGuildData::GetOnlineUserSize
$LN1@GetUserSiz:

; 74   : 	}
; 75   : 	return 0;

  00025	33 c0		 xor	 eax, eax

; 76   : }

  00027	c3		 ret	 0
?GetUserSize@ioGuildChatMgr@@QAEHXZ ENDP		; ioGuildChatMgr::GetUserSize
_TEXT	ENDS
PUBLIC	?GetChatInfo@ioGuildChatMgr@@QAEPAUtagChatInfo@@H@Z ; ioGuildChatMgr::GetChatInfo
; Function compile flags: /Ogsp
;	COMDAT ?GetChatInfo@ioGuildChatMgr@@QAEPAUtagChatInfo@@H@Z
_TEXT	SEGMENT
_iArray$ = 8						; size = 4
?GetChatInfo@ioGuildChatMgr@@QAEPAUtagChatInfo@@H@Z PROC ; ioGuildChatMgr::GetChatInfo, COMDAT
; _this$ = ecx

; 79   : {

  00000	55		 push	 ebp
  00001	8b ec		 mov	 ebp, esp

; 80   : 	if( !COMPARE( iArray, 0, (int)m_vChatInfo.size() ) )

  00003	8b 45 08	 mov	 eax, DWORD PTR _iArray$[ebp]
  00006	85 c0		 test	 eax, eax
  00008	78 15		 js	 SHORT $LN1@GetChatInf
  0000a	8b 51 08	 mov	 edx, DWORD PTR [ecx+8]
  0000d	2b 51 04	 sub	 edx, DWORD PTR [ecx+4]
  00010	c1 fa 02	 sar	 edx, 2
  00013	3b c2		 cmp	 eax, edx
  00015	7d 08		 jge	 SHORT $LN1@GetChatInf

; 82   : 	return m_vChatInfo[iArray];

  00017	8b 49 04	 mov	 ecx, DWORD PTR [ecx+4]
  0001a	8b 04 81	 mov	 eax, DWORD PTR [ecx+eax*4]
  0001d	eb 02		 jmp	 SHORT $LN3@GetChatInf
$LN1@GetChatInf:

; 81   : 		return NULL;

  0001f	33 c0		 xor	 eax, eax
$LN3@GetChatInf:

; 83   : }

  00021	5d		 pop	 ebp
  00022	c2 04 00	 ret	 4
?GetChatInfo@ioGuildChatMgr@@QAEPAUtagChatInfo@@H@Z ENDP ; ioGuildChatMgr::GetChatInfo
_TEXT	ENDS
PUBLIC	?IsMannerTrialChatHaveID@ioGuildChatMgr@@QAE_NABVioHashString@@@Z ; ioGuildChatMgr::IsMannerTrialChatHaveID
EXTRN	__imp_??8ioHashString@@QBE_NABV0@@Z:PROC
; Function compile flags: /Ogsp
;	COMDAT ?IsMannerTrialChatHaveID@ioGuildChatMgr@@QAE_NABVioHashString@@@Z
_TEXT	SEGMENT
_rszID$ = 8						; size = 4
?IsMannerTrialChatHaveID@ioGuildChatMgr@@QAE_NABVioHashString@@@Z PROC ; ioGuildChatMgr::IsMannerTrialChatHaveID, COMDAT
; _this$ = ecx

; 108  : {

  00000	55		 push	 ebp
  00001	8b ec		 mov	 ebp, esp
  00003	53		 push	 ebx
  00004	56		 push	 esi
  00005	57		 push	 edi
  00006	8b f9		 mov	 edi, ecx

; 109  : 	enum { MAX_CHECK_CHAT = 20, };
; 110  : 
; 111  : 	int iSize = GetChatInfoSize();

  00008	8b 77 08	 mov	 esi, DWORD PTR [edi+8]
  0000b	2b 77 04	 sub	 esi, DWORD PTR [edi+4]

; 112  : 	int iStart = 0;

  0000e	33 c0		 xor	 eax, eax
  00010	c1 fe 02	 sar	 esi, 2

; 113  : 	if( iSize > MAX_CHECK_CHAT )

  00013	83 fe 14	 cmp	 esi, 20			; 00000014H
  00016	7e 03		 jle	 SHORT $LN6@IsMannerTr

; 114  : 		iStart = iSize - MAX_CHECK_CHAT;

  00018	8d 46 ec	 lea	 eax, DWORD PTR [esi-20]
$LN6@IsMannerTr:

; 115  : 
; 116  : 	for( int i = iStart; i < iSize; i++ )

  0001b	8b d8		 mov	 ebx, eax
  0001d	3b c6		 cmp	 eax, esi
  0001f	7d 22		 jge	 SHORT $LN3@IsMannerTr
$LL5@IsMannerTr:

; 117  : 	{
; 118  : 		ChatInfo *pChatInfo = GetChatInfo( i );

  00021	53		 push	 ebx
  00022	8b cf		 mov	 ecx, edi
  00024	e8 00 00 00 00	 call	 ?GetChatInfo@ioGuildChatMgr@@QAEPAUtagChatInfo@@H@Z ; ioGuildChatMgr::GetChatInfo

; 119  : 		if( !pChatInfo ) continue;

  00029	85 c0		 test	 eax, eax
  0002b	74 11		 je	 SHORT $LN4@IsMannerTr

; 120  : 		if( rszID == pChatInfo->m_szID )

  0002d	8b 4d 08	 mov	 ecx, DWORD PTR _rszID$[ebp]
  00030	83 c0 40	 add	 eax, 64			; 00000040H
  00033	50		 push	 eax
  00034	ff 15 00 00 00
	00		 call	 DWORD PTR __imp_??8ioHashString@@QBE_NABV0@@Z
  0003a	84 c0		 test	 al, al
  0003c	75 0e		 jne	 SHORT $LN14@IsMannerTr
$LN4@IsMannerTr:

; 115  : 
; 116  : 	for( int i = iStart; i < iSize; i++ )

  0003e	43		 inc	 ebx
  0003f	3b de		 cmp	 ebx, esi
  00041	7c de		 jl	 SHORT $LL5@IsMannerTr
$LN3@IsMannerTr:

; 123  : 		}
; 124  : 	}
; 125  : 
; 126  : 	return false;

  00043	32 c0		 xor	 al, al
$LN7@IsMannerTr:
  00045	5f		 pop	 edi
  00046	5e		 pop	 esi
  00047	5b		 pop	 ebx

; 127  : }

  00048	5d		 pop	 ebp
  00049	c2 04 00	 ret	 4
$LN14@IsMannerTr:

; 121  : 		{
; 122  : 			return true;

  0004c	b0 01		 mov	 al, 1
  0004e	eb f5		 jmp	 SHORT $LN7@IsMannerTr
?IsMannerTrialChatHaveID@ioGuildChatMgr@@QAE_NABVioHashString@@@Z ENDP ; ioGuildChatMgr::IsMannerTrialChatHaveID
_TEXT	ENDS
PUBLIC	??_R0?AVioWnd@@@8				; ioWnd `RTTI Type Descriptor'
PUBLIC	??_R0?AVMessengerPopup@@@8			; MessengerPopup `RTTI Type Descriptor'
PUBLIC	?ShowChatPopup@ioGuildChatMgr@@QAEXVioHashString@@0@Z ; ioGuildChatMgr::ShowChatPopup
EXTRN	?ShowPopup@MessengerPopup@@QAEXHVioHashString@@0H@Z:PROC ; MessengerPopup::ShowPopup
EXTRN	__imp_??0ioHashString@@QAE@ABV0@@Z:PROC
EXTRN	__imp_?FindWnd@ioGUIManager@@QAEPAVioWnd@@K@Z:PROC
EXTRN	?GetSingleton@ioSP2GUIManager@@SAAAV1@XZ:PROC	; ioSP2GUIManager::GetSingleton
EXTRN	?IsBroadcastModeType@ioBattleRoomMgr@@QAE_NXZ:PROC ; ioBattleRoomMgr::IsBroadcastModeType
EXTRN	?IsTournamentModeType@ioBattleRoomMgr@@QAE_NXZ:PROC ; ioBattleRoomMgr::IsTournamentModeType
EXTRN	?IsBattleRoom@ioBattleRoomMgr@@QAE_NXZ:PROC	; ioBattleRoomMgr::IsBattleRoom
EXTRN	?GetSingleton@ioBattleRoomMgr@@SAAAV1@XZ:PROC	; ioBattleRoomMgr::GetSingleton
EXTRN	___RTDynamicCast:PROC
;	COMDAT ??_R0?AVioWnd@@@8
; File d:\lost saga for developer\youtube\tutorial\source\src\lsclient\setting.h
_DATA	SEGMENT
??_R0?AVioWnd@@@8 DD FLAT:??_7type_info@@6B@		; ioWnd `RTTI Type Descriptor'
	DD	00H
	DB	'.?AVioWnd@@', 00H
_DATA	ENDS
;	COMDAT ??_R0?AVMessengerPopup@@@8
_DATA	SEGMENT
??_R0?AVMessengerPopup@@@8 DD FLAT:??_7type_info@@6B@	; MessengerPopup `RTTI Type Descriptor'
	DD	00H
	DB	'.?AVMessengerPopup@@', 00H
_DATA	ENDS
;	COMDAT xdata$x
xdata$x	SEGMENT
__unwindtable$?ShowChatPopup@ioGuildChatMgr@@QAEXVioHashString@@0@Z DD 0ffffffffH
	DD	FLAT:__unwindfunclet$?ShowChatPopup@ioGuildChatMgr@@QAEXVioHashString@@0@Z$0
	DD	00H
	DD	FLAT:__unwindfunclet$?ShowChatPopup@ioGuildChatMgr@@QAEXVioHashString@@0@Z$1
	DD	01H
	DD	FLAT:__unwindfunclet$?ShowChatPopup@ioGuildChatMgr@@QAEXVioHashString@@0@Z$2
__ehfuncinfo$?ShowChatPopup@ioGuildChatMgr@@QAEXVioHashString@@0@Z DD 019930522H
	DD	03H
	DD	FLAT:__unwindtable$?ShowChatPopup@ioGuildChatMgr@@QAEXVioHashString@@0@Z
	DD	2 DUP(00H)
	DD	2 DUP(00H)
	DD	00H
	DD	01H
; Function compile flags: /Ogsp
; File d:\lost saga for developer\youtube\tutorial\source\src\lsclient\ioguildchatmgr.cpp
xdata$x	ENDS
;	COMDAT ?ShowChatPopup@ioGuildChatMgr@@QAEXVioHashString@@0@Z
_TEXT	SEGMENT
$T508682 = -20						; size = 4
$T508681 = -16						; size = 4
__$EHRec$ = -12						; size = 12
_szID$ = 8						; size = 16
_szChat$ = 24						; size = 16
?ShowChatPopup@ioGuildChatMgr@@QAEXVioHashString@@0@Z PROC ; ioGuildChatMgr::ShowChatPopup, COMDAT
; _this$ = ecx

; 158  : {

  00000	6a 08		 push	 8
  00002	b8 00 00 00 00	 mov	 eax, __ehhandler$?ShowChatPopup@ioGuildChatMgr@@QAEXVioHashString@@0@Z
  00007	e8 00 00 00 00	 call	 __EH_prolog3

; 159  : 	if( !Setting::GuildChatAlarm() ) return;

  0000c	33 db		 xor	 ebx, ebx
  0000e	c7 45 fc 01 00
	00 00		 mov	 DWORD PTR __$EHRec$[ebp+8], 1
  00015	38 1d 49 00 00
	00		 cmp	 BYTE PTR ?m_Option@Setting@@1USettingOption@@A+73, bl
  0001b	0f 84 92 00 00
	00		 je	 $LN15@ShowChatPo

; 160  : 	if( g_BattleRoomMgr.IsBattleRoom() )

  00021	e8 00 00 00 00	 call	 ?GetSingleton@ioBattleRoomMgr@@SAAAV1@XZ ; ioBattleRoomMgr::GetSingleton
  00026	8b c8		 mov	 ecx, eax
  00028	e8 00 00 00 00	 call	 ?IsBattleRoom@ioBattleRoomMgr@@QAE_NXZ ; ioBattleRoomMgr::IsBattleRoom
  0002d	84 c0		 test	 al, al
  0002f	74 20		 je	 SHORT $LN3@ShowChatPo

; 161  : 	{
; 162  : 		if( g_BattleRoomMgr.IsTournamentModeType() || g_BattleRoomMgr.IsBroadcastModeType() ) 

  00031	e8 00 00 00 00	 call	 ?GetSingleton@ioBattleRoomMgr@@SAAAV1@XZ ; ioBattleRoomMgr::GetSingleton
  00036	8b c8		 mov	 ecx, eax
  00038	e8 00 00 00 00	 call	 ?IsTournamentModeType@ioBattleRoomMgr@@QAE_NXZ ; ioBattleRoomMgr::IsTournamentModeType
  0003d	84 c0		 test	 al, al
  0003f	75 72		 jne	 SHORT $LN15@ShowChatPo
  00041	e8 00 00 00 00	 call	 ?GetSingleton@ioBattleRoomMgr@@SAAAV1@XZ ; ioBattleRoomMgr::GetSingleton
  00046	8b c8		 mov	 ecx, eax
  00048	e8 00 00 00 00	 call	 ?IsBroadcastModeType@ioBattleRoomMgr@@QAE_NXZ ; ioBattleRoomMgr::IsBroadcastModeType
  0004d	84 c0		 test	 al, al

; 163  : 			return;

  0004f	75 62		 jne	 SHORT $LN15@ShowChatPo
$LN3@ShowChatPo:

; 164  : 	}
; 165  : 
; 166  : 	MessengerPopup *pPopup = dynamic_cast<MessengerPopup*>(g_GUIMgr.FindWnd( MESSENGER_POPUP ));

  00051	53		 push	 ebx
  00052	68 00 00 00 00	 push	 OFFSET ??_R0?AVMessengerPopup@@@8
  00057	68 00 00 00 00	 push	 OFFSET ??_R0?AVioWnd@@@8
  0005c	53		 push	 ebx
  0005d	68 81 17 00 00	 push	 6017			; 00001781H
  00062	e8 00 00 00 00	 call	 ?GetSingleton@ioSP2GUIManager@@SAAAV1@XZ ; ioSP2GUIManager::GetSingleton
  00067	8b c8		 mov	 ecx, eax
  00069	ff 15 00 00 00
	00		 call	 DWORD PTR __imp_?FindWnd@ioGUIManager@@QAEPAVioWnd@@K@Z
  0006f	50		 push	 eax
  00070	e8 00 00 00 00	 call	 ___RTDynamicCast
  00075	8b f8		 mov	 edi, eax
  00077	83 c4 14	 add	 esp, 20			; 00000014H

; 167  : 	if( !pPopup )	return;

  0007a	3b fb		 cmp	 edi, ebx
  0007c	74 35		 je	 SHORT $LN15@ShowChatPo

; 168  : 
; 169  : 	pPopup->ShowPopup( MessengerPopup::GUILD_POPUP, szID, szChat );

  0007e	8b 35 00 00 00
	00		 mov	 esi, DWORD PTR __imp_??0ioHashString@@QAE@ABV0@@Z
  00084	6a ff		 push	 -1
  00086	83 ec 10	 sub	 esp, 16			; 00000010H
  00089	8d 45 18	 lea	 eax, DWORD PTR _szChat$[ebp]
  0008c	8b cc		 mov	 ecx, esp
  0008e	89 65 f0	 mov	 DWORD PTR $T508681[ebp], esp
  00091	50		 push	 eax
  00092	ff d6		 call	 esi
  00094	83 ec 10	 sub	 esp, 16			; 00000010H
  00097	8d 45 08	 lea	 eax, DWORD PTR _szID$[ebp]
  0009a	8b cc		 mov	 ecx, esp
  0009c	89 65 ec	 mov	 DWORD PTR $T508682[ebp], esp
  0009f	50		 push	 eax
  000a0	c6 45 fc 02	 mov	 BYTE PTR __$EHRec$[ebp+8], 2
  000a4	ff d6		 call	 esi
  000a6	6a 04		 push	 4
  000a8	8b cf		 mov	 ecx, edi
  000aa	c6 45 fc 01	 mov	 BYTE PTR __$EHRec$[ebp+8], 1
  000ae	e8 00 00 00 00	 call	 ?ShowPopup@MessengerPopup@@QAEXHVioHashString@@0H@Z ; MessengerPopup::ShowPopup
$LN15@ShowChatPo:

; 170  : }

  000b3	8b 35 00 00 00
	00		 mov	 esi, DWORD PTR __imp_??1ioHashString@@QAE@XZ
  000b9	8d 4d 08	 lea	 ecx, DWORD PTR _szID$[ebp]
  000bc	88 5d fc	 mov	 BYTE PTR __$EHRec$[ebp+8], bl
  000bf	ff d6		 call	 esi
  000c1	83 4d fc ff	 or	 DWORD PTR __$EHRec$[ebp+8], -1
  000c5	8d 4d 18	 lea	 ecx, DWORD PTR _szChat$[ebp]
  000c8	ff d6		 call	 esi
  000ca	e8 00 00 00 00	 call	 __EH_epilog3
  000cf	c2 20 00	 ret	 32			; 00000020H
_TEXT	ENDS
;	COMDAT text$x
text$x	SEGMENT
__unwindfunclet$?ShowChatPopup@ioGuildChatMgr@@QAEXVioHashString@@0@Z$0:
  00000	8d 4d 18	 lea	 ecx, DWORD PTR _szChat$[ebp]
  00003	ff 25 00 00 00
	00		 jmp	 DWORD PTR __imp_??1ioHashString@@QAE@XZ
__unwindfunclet$?ShowChatPopup@ioGuildChatMgr@@QAEXVioHashString@@0@Z$1:
  00009	8d 4d 08	 lea	 ecx, DWORD PTR _szID$[ebp]
  0000c	ff 25 00 00 00
	00		 jmp	 DWORD PTR __imp_??1ioHashString@@QAE@XZ
__unwindfunclet$?ShowChatPopup@ioGuildChatMgr@@QAEXVioHashString@@0@Z$2:
  00012	8b 4d f0	 mov	 ecx, DWORD PTR $T508681[ebp]
  00015	ff 25 00 00 00
	00		 jmp	 DWORD PTR __imp_??1ioHashString@@QAE@XZ
__ehhandler$?ShowChatPopup@ioGuildChatMgr@@QAEXVioHashString@@0@Z:
  0001b	8b 54 24 08	 mov	 edx, DWORD PTR [esp+8]
  0001f	8d 42 0c	 lea	 eax, DWORD PTR [edx+12]
  00022	8b 4a e8	 mov	 ecx, DWORD PTR [edx-24]
  00025	33 c8		 xor	 ecx, eax
  00027	e8 00 00 00 00	 call	 @__security_check_cookie@4
  0002c	b8 00 00 00 00	 mov	 eax, OFFSET __ehfuncinfo$?ShowChatPopup@ioGuildChatMgr@@QAEXVioHashString@@0@Z
  00031	e9 00 00 00 00	 jmp	 ___CxxFrameHandler3
text$x	ENDS
?ShowChatPopup@ioGuildChatMgr@@QAEXVioHashString@@0@Z ENDP ; ioGuildChatMgr::ShowChatPopup
PUBLIC	??0?$_Vector_iterator@V?$_Vector_val@PAUtagChatInfo@@V?$allocator@PAUtagChatInfo@@@std@@@std@@@std@@QAE@XZ ; std::_Vector_iterator<std::_Vector_val<tagChatInfo *,std::allocator<tagChatInfo *> > >::_Vector_iterator<std::_Vector_val<tagChatInfo *,std::allocator<tagChatInfo *> > >
; Function compile flags: /Ogsp
; File c:\program files (x86)\microsoft visual studio 10.0\vc\include\vector
;	COMDAT ??0?$_Vector_iterator@V?$_Vector_val@PAUtagChatInfo@@V?$allocator@PAUtagChatInfo@@@std@@@std@@@std@@QAE@XZ
_TEXT	SEGMENT
??0?$_Vector_iterator@V?$_Vector_val@PAUtagChatInfo@@V?$allocator@PAUtagChatInfo@@@std@@@std@@@std@@QAE@XZ PROC ; std::_Vector_iterator<std::_Vector_val<tagChatInfo *,std::allocator<tagChatInfo *> > >::_Vector_iterator<std::_Vector_val<tagChatInfo *,std::allocator<tagChatInfo *> > >, COMDAT
; _this$ = ecx

; 298  : 	_Vector_iterator()

  00000	8b c1		 mov	 eax, ecx
  00002	83 20 00	 and	 DWORD PTR [eax], 0

; 299  : 		{	// construct with null vector pointer
; 300  : 		}

  00005	c3		 ret	 0
??0?$_Vector_iterator@V?$_Vector_val@PAUtagChatInfo@@V?$allocator@PAUtagChatInfo@@@std@@@std@@@std@@QAE@XZ ENDP ; std::_Vector_iterator<std::_Vector_val<tagChatInfo *,std::allocator<tagChatInfo *> > >::_Vector_iterator<std::_Vector_val<tagChatInfo *,std::allocator<tagChatInfo *> > >
_TEXT	ENDS
PUBLIC	??D?$_Vector_iterator@V?$_Vector_val@PAUtagChatInfo@@V?$allocator@PAUtagChatInfo@@@std@@@std@@@std@@QBEAAPAUtagChatInfo@@XZ ; std::_Vector_iterator<std::_Vector_val<tagChatInfo *,std::allocator<tagChatInfo *> > >::operator*
; Function compile flags: /Ogsp
;	COMDAT ??D?$_Vector_iterator@V?$_Vector_val@PAUtagChatInfo@@V?$allocator@PAUtagChatInfo@@@std@@@std@@@std@@QBEAAPAUtagChatInfo@@XZ
_TEXT	SEGMENT
??D?$_Vector_iterator@V?$_Vector_val@PAUtagChatInfo@@V?$allocator@PAUtagChatInfo@@@std@@@std@@@std@@QBEAAPAUtagChatInfo@@XZ PROC ; std::_Vector_iterator<std::_Vector_val<tagChatInfo *,std::allocator<tagChatInfo *> > >::operator*, COMDAT
; _this$ = ecx

; 322  : 		return ((reference)**(_Mybase *)this);

  00000	8b 01		 mov	 eax, DWORD PTR [ecx]

; 323  : 		}

  00002	c3		 ret	 0
??D?$_Vector_iterator@V?$_Vector_val@PAUtagChatInfo@@V?$allocator@PAUtagChatInfo@@@std@@@std@@@std@@QBEAAPAUtagChatInfo@@XZ ENDP ; std::_Vector_iterator<std::_Vector_val<tagChatInfo *,std::allocator<tagChatInfo *> > >::operator*
_TEXT	ENDS
PUBLIC	??0?$_Vector_val@PAUtagChatInfo@@V?$allocator@PAUtagChatInfo@@@std@@@std@@QAE@V?$allocator@PAUtagChatInfo@@@1@@Z ; std::_Vector_val<tagChatInfo *,std::allocator<tagChatInfo *> >::_Vector_val<tagChatInfo *,std::allocator<tagChatInfo *> >
; Function compile flags: /Ogsp
;	COMDAT ??0?$_Vector_val@PAUtagChatInfo@@V?$allocator@PAUtagChatInfo@@@std@@@std@@QAE@V?$allocator@PAUtagChatInfo@@@1@@Z
_TEXT	SEGMENT
__Al$ = 8						; size = 1
??0?$_Vector_val@PAUtagChatInfo@@V?$allocator@PAUtagChatInfo@@@std@@@std@@QAE@V?$allocator@PAUtagChatInfo@@@1@@Z PROC ; std::_Vector_val<tagChatInfo *,std::allocator<tagChatInfo *> >::_Vector_val<tagChatInfo *,std::allocator<tagChatInfo *> >, COMDAT
; _this$ = ecx

; 426  : 		{	// construct allocator from _Al

  00000	8b c1		 mov	 eax, ecx

; 427  : 		_Myfirst = 0;

  00002	33 c9		 xor	 ecx, ecx
  00004	89 08		 mov	 DWORD PTR [eax], ecx

; 428  : 		_Mylast = 0;

  00006	89 48 04	 mov	 DWORD PTR [eax+4], ecx

; 429  : 		_Myend = 0;

  00009	89 48 08	 mov	 DWORD PTR [eax+8], ecx

; 430  : 		}

  0000c	c2 04 00	 ret	 4
??0?$_Vector_val@PAUtagChatInfo@@V?$allocator@PAUtagChatInfo@@@std@@@std@@QAE@V?$allocator@PAUtagChatInfo@@@1@@Z ENDP ; std::_Vector_val<tagChatInfo *,std::allocator<tagChatInfo *> >::_Vector_val<tagChatInfo *,std::allocator<tagChatInfo *> >
_TEXT	ENDS
PUBLIC	??E?$_Vector_iterator@V?$_Vector_val@PAUtagChatInfo@@V?$allocator@PAUtagChatInfo@@@std@@@std@@@std@@QAEAAV01@XZ ; std::_Vector_iterator<std::_Vector_val<tagChatInfo *,std::allocator<tagChatInfo *> > >::operator++
; Function compile flags: /Ogsp
;	COMDAT ??E?$_Vector_iterator@V?$_Vector_val@PAUtagChatInfo@@V?$allocator@PAUtagChatInfo@@@std@@@std@@@std@@QAEAAV01@XZ
_TEXT	SEGMENT
??E?$_Vector_iterator@V?$_Vector_val@PAUtagChatInfo@@V?$allocator@PAUtagChatInfo@@@std@@@std@@@std@@QAEAAV01@XZ PROC ; std::_Vector_iterator<std::_Vector_val<tagChatInfo *,std::allocator<tagChatInfo *> > >::operator++, COMDAT
; _this$ = ecx

; 331  : 		{	// preincrement

  00000	8b c1		 mov	 eax, ecx

; 332  : 		++*(_Mybase *)this;

  00002	83 00 04	 add	 DWORD PTR [eax], 4

; 333  : 		return (*this);
; 334  : 		}

  00005	c3		 ret	 0
??E?$_Vector_iterator@V?$_Vector_val@PAUtagChatInfo@@V?$allocator@PAUtagChatInfo@@@std@@@std@@@std@@QAEAAV01@XZ ENDP ; std::_Vector_iterator<std::_Vector_val<tagChatInfo *,std::allocator<tagChatInfo *> > >::operator++
_TEXT	ENDS
PUBLIC	??8?$_Vector_const_iterator@V?$_Vector_val@PAUtagChatInfo@@V?$allocator@PAUtagChatInfo@@@std@@@std@@@std@@QBE_NABV01@@Z ; std::_Vector_const_iterator<std::_Vector_val<tagChatInfo *,std::allocator<tagChatInfo *> > >::operator==
; Function compile flags: /Ogsp
;	COMDAT ??8?$_Vector_const_iterator@V?$_Vector_val@PAUtagChatInfo@@V?$allocator@PAUtagChatInfo@@@std@@@std@@@std@@QBE_NABV01@@Z
_TEXT	SEGMENT
__Right$ = 8						; size = 4
??8?$_Vector_const_iterator@V?$_Vector_val@PAUtagChatInfo@@V?$allocator@PAUtagChatInfo@@@std@@@std@@@std@@QBE_NABV01@@Z PROC ; std::_Vector_const_iterator<std::_Vector_val<tagChatInfo *,std::allocator<tagChatInfo *> > >::operator==, COMDAT
; _this$ = ecx

; 201  : 		{	// test for iterator equality

  00000	55		 push	 ebp
  00001	8b ec		 mov	 ebp, esp

; 202  : 		_Compat(_Right);
; 203  : 		return (this->_Ptr == _Right._Ptr);

  00003	8b 01		 mov	 eax, DWORD PTR [ecx]
  00005	8b 4d 08	 mov	 ecx, DWORD PTR __Right$[ebp]
  00008	2b 01		 sub	 eax, DWORD PTR [ecx]
  0000a	f7 d8		 neg	 eax
  0000c	1b c0		 sbb	 eax, eax
  0000e	40		 inc	 eax

; 204  : 		}

  0000f	5d		 pop	 ebp
  00010	c2 04 00	 ret	 4
??8?$_Vector_const_iterator@V?$_Vector_val@PAUtagChatInfo@@V?$allocator@PAUtagChatInfo@@@std@@@std@@@std@@QBE_NABV01@@Z ENDP ; std::_Vector_const_iterator<std::_Vector_val<tagChatInfo *,std::allocator<tagChatInfo *> > >::operator==
_TEXT	ENDS
PUBLIC	?max_size@?$vector@PAUtagChatInfo@@V?$allocator@PAUtagChatInfo@@@std@@@std@@QBEIXZ ; std::vector<tagChatInfo *,std::allocator<tagChatInfo *> >::max_size
; Function compile flags: /Ogsp
;	COMDAT ?max_size@?$vector@PAUtagChatInfo@@V?$allocator@PAUtagChatInfo@@@std@@@std@@QBEIXZ
_TEXT	SEGMENT
?max_size@?$vector@PAUtagChatInfo@@V?$allocator@PAUtagChatInfo@@@std@@@std@@QBEIXZ PROC ; std::vector<tagChatInfo *,std::allocator<tagChatInfo *> >::max_size, COMDAT
; _this$ = ecx

; 884  : 		return (this->_Alval.max_size());

  00000	b8 ff ff ff 3f	 mov	 eax, 1073741823		; 3fffffffH

; 885  : 		}

  00005	c3		 ret	 0
?max_size@?$vector@PAUtagChatInfo@@V?$allocator@PAUtagChatInfo@@@std@@@std@@QBEIXZ ENDP ; std::vector<tagChatInfo *,std::allocator<tagChatInfo *> >::max_size
_TEXT	ENDS
PUBLIC	?_Grow_to@?$vector@PAUtagChatInfo@@V?$allocator@PAUtagChatInfo@@@std@@@std@@IBEII@Z ; std::vector<tagChatInfo *,std::allocator<tagChatInfo *> >::_Grow_to
; Function compile flags: /Ogsp
;	COMDAT ?_Grow_to@?$vector@PAUtagChatInfo@@V?$allocator@PAUtagChatInfo@@@std@@@std@@IBEII@Z
_TEXT	SEGMENT
__Count$ = 8						; size = 4
?_Grow_to@?$vector@PAUtagChatInfo@@V?$allocator@PAUtagChatInfo@@@std@@@std@@IBEII@Z PROC ; std::vector<tagChatInfo *,std::allocator<tagChatInfo *> >::_Grow_to, COMDAT
; _this$ = ecx

; 1274 : 		{	// grow by 50% or at least to _Count

  00000	55		 push	 ebp
  00001	8b ec		 mov	 ebp, esp

; 1275 : 		size_type _Capacity = capacity();

  00003	8b 41 08	 mov	 eax, DWORD PTR [ecx+8]
  00006	2b 01		 sub	 eax, DWORD PTR [ecx]

; 1276 : 
; 1277 : 		_Capacity = max_size() - _Capacity / 2 < _Capacity
; 1278 : 			? 0 : _Capacity + _Capacity / 2;	// try to grow by 50%

  00008	ba ff ff ff 3f	 mov	 edx, 1073741823		; 3fffffffH
  0000d	c1 f8 02	 sar	 eax, 2
  00010	8b c8		 mov	 ecx, eax
  00012	d1 e9		 shr	 ecx, 1
  00014	2b d1		 sub	 edx, ecx
  00016	3b d0		 cmp	 edx, eax
  00018	73 04		 jae	 SHORT $LN4@Grow_to
  0001a	33 c0		 xor	 eax, eax
  0001c	eb 02		 jmp	 SHORT $LN5@Grow_to
$LN4@Grow_to:
  0001e	03 c1		 add	 eax, ecx
$LN5@Grow_to:

; 1279 : 		if (_Capacity < _Count)

  00020	3b 45 08	 cmp	 eax, DWORD PTR __Count$[ebp]

; 1280 : 			_Capacity = _Count;

  00023	0f 42 45 08	 cmovb	 eax, DWORD PTR __Count$[ebp]

; 1281 : 		return (_Capacity);
; 1282 : 		}

  00027	5d		 pop	 ebp
  00028	c2 04 00	 ret	 4
?_Grow_to@?$vector@PAUtagChatInfo@@V?$allocator@PAUtagChatInfo@@@std@@@std@@IBEII@Z ENDP ; std::vector<tagChatInfo *,std::allocator<tagChatInfo *> >::_Grow_to
_TEXT	ENDS
PUBLIC	??0?$_Vector_const_iterator@V?$_Vector_val@PAUtagChatInfo@@V?$allocator@PAUtagChatInfo@@@std@@@std@@@std@@QAE@PAPAUtagChatInfo@@PBU_Container_base0@1@@Z ; std::_Vector_const_iterator<std::_Vector_val<tagChatInfo *,std::allocator<tagChatInfo *> > >::_Vector_const_iterator<std::_Vector_val<tagChatInfo *,std::allocator<tagChatInfo *> > >
; Function compile flags: /Ogsp
;	COMDAT ??0?$_Vector_const_iterator@V?$_Vector_val@PAUtagChatInfo@@V?$allocator@PAUtagChatInfo@@@std@@@std@@@std@@QAE@PAPAUtagChatInfo@@PBU_Container_base0@1@@Z
_TEXT	SEGMENT
__Parg$ = 8						; size = 4
__Pvector$ = 12						; size = 4
??0?$_Vector_const_iterator@V?$_Vector_val@PAUtagChatInfo@@V?$allocator@PAUtagChatInfo@@@std@@@std@@@std@@QAE@PAPAUtagChatInfo@@PBU_Container_base0@1@@Z PROC ; std::_Vector_const_iterator<std::_Vector_val<tagChatInfo *,std::allocator<tagChatInfo *> > >::_Vector_const_iterator<std::_Vector_val<tagChatInfo *,std::allocator<tagChatInfo *> > >, COMDAT
; _this$ = ecx

; 45   : 		{	// construct with pointer _Parg

  00000	55		 push	 ebp
  00001	8b ec		 mov	 ebp, esp
  00003	8b c1		 mov	 eax, ecx
  00005	8b 4d 08	 mov	 ecx, DWORD PTR __Parg$[ebp]
  00008	89 08		 mov	 DWORD PTR [eax], ecx

; 46   : 		this->_Adopt(_Pvector);
; 47   : 		}

  0000a	5d		 pop	 ebp
  0000b	c2 08 00	 ret	 8
??0?$_Vector_const_iterator@V?$_Vector_val@PAUtagChatInfo@@V?$allocator@PAUtagChatInfo@@@std@@@std@@@std@@QAE@PAPAUtagChatInfo@@PBU_Container_base0@1@@Z ENDP ; std::_Vector_const_iterator<std::_Vector_val<tagChatInfo *,std::allocator<tagChatInfo *> > >::_Vector_const_iterator<std::_Vector_val<tagChatInfo *,std::allocator<tagChatInfo *> > >
_TEXT	ENDS
PUBLIC	?allocate@?$allocator@PAUtagChatInfo@@@std@@QAEPAPAUtagChatInfo@@I@Z ; std::allocator<tagChatInfo *>::allocate
; Function compile flags: /Ogsp
; File c:\program files (x86)\microsoft visual studio 10.0\vc\include\xmemory
;	COMDAT ?allocate@?$allocator@PAUtagChatInfo@@@std@@QAEPAPAUtagChatInfo@@I@Z
_TEXT	SEGMENT
__Count$ = 8						; size = 4
?allocate@?$allocator@PAUtagChatInfo@@@std@@QAEPAPAUtagChatInfo@@I@Z PROC ; std::allocator<tagChatInfo *>::allocate, COMDAT
; _this$ = ecx

; 186  : 		{	// allocate array of _Count elements

  00000	55		 push	 ebp
  00001	8b ec		 mov	 ebp, esp

; 187  : 		return (_Allocate(_Count, (pointer)0));

  00003	6a 00		 push	 0
  00005	ff 75 08	 push	 DWORD PTR __Count$[ebp]
  00008	e8 00 00 00 00	 call	 ??$_Allocate@PAUtagChatInfo@@@std@@YAPAPAUtagChatInfo@@IPAPAU1@@Z ; std::_Allocate<tagChatInfo *>
  0000d	59		 pop	 ecx
  0000e	59		 pop	 ecx

; 188  : 		}

  0000f	5d		 pop	 ebp
  00010	c2 04 00	 ret	 4
?allocate@?$allocator@PAUtagChatInfo@@@std@@QAEPAPAUtagChatInfo@@I@Z ENDP ; std::allocator<tagChatInfo *>::allocate
_TEXT	ENDS
PUBLIC	??$_Cons_val@V?$allocator@PAUtagChatInfo@@@std@@PAUtagChatInfo@@AAPAU3@@std@@YAXAAV?$allocator@PAUtagChatInfo@@@0@PAPAUtagChatInfo@@AAPAU2@@Z ; std::_Cons_val<std::allocator<tagChatInfo *>,tagChatInfo *,tagChatInfo * &>
; Function compile flags: /Ogsp
;	COMDAT ??$_Cons_val@V?$allocator@PAUtagChatInfo@@@std@@PAUtagChatInfo@@AAPAU3@@std@@YAXAAV?$allocator@PAUtagChatInfo@@@0@PAPAUtagChatInfo@@AAPAU2@@Z
_TEXT	SEGMENT
__Alval$ = 8						; size = 4
__Pdest$ = 12						; size = 4
__Src$ = 16						; size = 4
??$_Cons_val@V?$allocator@PAUtagChatInfo@@@std@@PAUtagChatInfo@@AAPAU3@@std@@YAXAAV?$allocator@PAUtagChatInfo@@@0@PAPAUtagChatInfo@@AAPAU2@@Z PROC ; std::_Cons_val<std::allocator<tagChatInfo *>,tagChatInfo *,tagChatInfo * &>, COMDAT

; 279  : 	{	// construct using allocator

  00000	55		 push	 ebp
  00001	8b ec		 mov	 ebp, esp

; 280  : 	_Alval.construct(_Pdest, _STD forward<_Ty2>(_Src));

  00003	8b 45 0c	 mov	 eax, DWORD PTR __Pdest$[ebp]
  00006	85 c0		 test	 eax, eax
  00008	74 07		 je	 SHORT $LN7@Cons_val
  0000a	8b 4d 10	 mov	 ecx, DWORD PTR __Src$[ebp]
  0000d	8b 09		 mov	 ecx, DWORD PTR [ecx]
  0000f	89 08		 mov	 DWORD PTR [eax], ecx
$LN7@Cons_val:

; 281  : 	}

  00011	5d		 pop	 ebp
  00012	c3		 ret	 0
??$_Cons_val@V?$allocator@PAUtagChatInfo@@@std@@PAUtagChatInfo@@AAPAU3@@std@@YAXAAV?$allocator@PAUtagChatInfo@@@0@PAPAUtagChatInfo@@AAPAU2@@Z ENDP ; std::_Cons_val<std::allocator<tagChatInfo *>,tagChatInfo *,tagChatInfo * &>
_TEXT	ENDS
PUBLIC	??$_Move@PAPAUtagChatInfo@@PAPAU1@@std@@YAPAPAUtagChatInfo@@PAPAU1@00@Z ; std::_Move<tagChatInfo * *,tagChatInfo * *>
; Function compile flags: /Ogsp
; File c:\program files (x86)\microsoft visual studio 10.0\vc\include\xutility
;	COMDAT ??$_Move@PAPAUtagChatInfo@@PAPAU1@@std@@YAPAPAUtagChatInfo@@PAPAU1@00@Z
_TEXT	SEGMENT
__Cat$508799 = -4					; size = 1
__First$ = 8						; size = 4
__Last$ = 12						; size = 4
__Dest$ = 16						; size = 4
??$_Move@PAPAUtagChatInfo@@PAPAU1@@std@@YAPAPAUtagChatInfo@@PAPAU1@00@Z PROC ; std::_Move<tagChatInfo * *,tagChatInfo * *>, COMDAT

; 2533 : 	{	// move [_First, _Last) to [_Dest, ...), unchecked

  00000	55		 push	 ebp
  00001	8b ec		 mov	 ebp, esp
  00003	51		 push	 ecx

; 2534 : 	return (_Move(_First, _Last,
; 2535 : 		_Dest, _Ptr_cat(_First, _Dest)));

  00004	ff 75 fc	 push	 DWORD PTR __Cat$508799[ebp]
  00007	ff 75 10	 push	 DWORD PTR __Dest$[ebp]
  0000a	ff 75 0c	 push	 DWORD PTR __Last$[ebp]
  0000d	ff 75 08	 push	 DWORD PTR __First$[ebp]
  00010	e8 00 00 00 00	 call	 ??$_Move@PAPAUtagChatInfo@@PAPAU1@@std@@YAPAPAUtagChatInfo@@PAPAU1@00U_Scalar_ptr_iterator_tag@0@@Z ; std::_Move<tagChatInfo * *,tagChatInfo * *>
  00015	83 c4 10	 add	 esp, 16			; 00000010H

; 2536 : 	}

  00018	c9		 leave
  00019	c3		 ret	 0
??$_Move@PAPAUtagChatInfo@@PAPAU1@@std@@YAPAPAUtagChatInfo@@PAPAU1@00@Z ENDP ; std::_Move<tagChatInfo * *,tagChatInfo * *>
_TEXT	ENDS
PUBLIC	??$_Destroy_range@V?$allocator@PAUtagChatInfo@@@std@@@std@@YAXPAPAUtagChatInfo@@0AAV?$allocator@PAUtagChatInfo@@@0@@Z ; std::_Destroy_range<std::allocator<tagChatInfo *> >
; Function compile flags: /Ogsp
; File c:\program files (x86)\microsoft visual studio 10.0\vc\include\xmemory
;	COMDAT ??$_Destroy_range@V?$allocator@PAUtagChatInfo@@@std@@@std@@YAXPAPAUtagChatInfo@@0AAV?$allocator@PAUtagChatInfo@@@0@@Z
_TEXT	SEGMENT
__First$ = 8						; size = 4
__Last$ = 12						; size = 4
__Al$ = 16						; size = 4
??$_Destroy_range@V?$allocator@PAUtagChatInfo@@@std@@@std@@YAXPAPAUtagChatInfo@@0AAV?$allocator@PAUtagChatInfo@@@0@@Z PROC ; std::_Destroy_range<std::allocator<tagChatInfo *> >, COMDAT

; 88   : 	_Destroy_range(_First, _Last, _Al, _Ptr_cat(_First, _Last));
; 89   : 	}

  00000	c3		 ret	 0
??$_Destroy_range@V?$allocator@PAUtagChatInfo@@@std@@@std@@YAXPAPAUtagChatInfo@@0AAV?$allocator@PAUtagChatInfo@@@0@@Z ENDP ; std::_Destroy_range<std::allocator<tagChatInfo *> >
_TEXT	ENDS
PUBLIC	?construct@?$allocator@PAUtagChatInfo@@@std@@QAEXPAPAUtagChatInfo@@ABQAU3@@Z ; std::allocator<tagChatInfo *>::construct
; Function compile flags: /Ogsp
;	COMDAT ?construct@?$allocator@PAUtagChatInfo@@@std@@QAEXPAPAUtagChatInfo@@ABQAU3@@Z
_TEXT	SEGMENT
__Ptr$ = 8						; size = 4
__Val$ = 12						; size = 4
?construct@?$allocator@PAUtagChatInfo@@@std@@QAEXPAPAUtagChatInfo@@ABQAU3@@Z PROC ; std::allocator<tagChatInfo *>::construct, COMDAT
; _this$ = ecx

; 196  : 		{	// construct object at _Ptr with value _Val

  00000	55		 push	 ebp
  00001	8b ec		 mov	 ebp, esp

; 197  : 		_Construct(_Ptr, _Val);

  00003	8b 45 08	 mov	 eax, DWORD PTR __Ptr$[ebp]
  00006	85 c0		 test	 eax, eax
  00008	74 07		 je	 SHORT $LN5@construct@2
  0000a	8b 4d 0c	 mov	 ecx, DWORD PTR __Val$[ebp]
  0000d	8b 09		 mov	 ecx, DWORD PTR [ecx]
  0000f	89 08		 mov	 DWORD PTR [eax], ecx
$LN5@construct@2:

; 198  : 		}

  00011	5d		 pop	 ebp
  00012	c2 08 00	 ret	 8
?construct@?$allocator@PAUtagChatInfo@@@std@@QAEXPAPAUtagChatInfo@@ABQAU3@@Z ENDP ; std::allocator<tagChatInfo *>::construct
_TEXT	ENDS
PUBLIC	??$_Uninitialized_move@PAPAUtagChatInfo@@PAPAU1@V?$allocator@PAUtagChatInfo@@@std@@@std@@YAPAPAUtagChatInfo@@PAPAU1@00AAV?$allocator@PAUtagChatInfo@@@0@@Z ; std::_Uninitialized_move<tagChatInfo * *,tagChatInfo * *,std::allocator<tagChatInfo *> >
; Function compile flags: /Ogsp
; File c:\program files (x86)\microsoft visual studio 10.0\vc\include\memory
;	COMDAT ??$_Uninitialized_move@PAPAUtagChatInfo@@PAPAU1@V?$allocator@PAUtagChatInfo@@@std@@@std@@YAPAPAUtagChatInfo@@PAPAU1@00AAV?$allocator@PAUtagChatInfo@@@0@@Z
_TEXT	SEGMENT
__First$ = 8						; size = 4
__Last$ = 12						; size = 4
__Dest$ = 16						; size = 4
__Al$ = 20						; size = 4
??$_Uninitialized_move@PAPAUtagChatInfo@@PAPAU1@V?$allocator@PAUtagChatInfo@@@std@@@std@@YAPAPAUtagChatInfo@@PAPAU1@00AAV?$allocator@PAUtagChatInfo@@@0@@Z PROC ; std::_Uninitialized_move<tagChatInfo * *,tagChatInfo * *,std::allocator<tagChatInfo *> >, COMDAT

; 469  : 	{	// move [_First, _Last) to raw _Dest, using _Al

  00000	55		 push	 ebp
  00001	8b ec		 mov	 ebp, esp
  00003	56		 push	 esi

; 470  : 	return (_Uninit_move(_First, _Last, _Dest, _Al,
; 471  : 		_Val_type(_First), _Ptr_cat(_First, _Dest)));

  00004	8b 75 0c	 mov	 esi, DWORD PTR __Last$[ebp]
  00007	2b 75 08	 sub	 esi, DWORD PTR __First$[ebp]
  0000a	c1 fe 02	 sar	 esi, 2
  0000d	c1 e6 02	 shl	 esi, 2
  00010	56		 push	 esi
  00011	ff 75 08	 push	 DWORD PTR __First$[ebp]
  00014	ff 75 10	 push	 DWORD PTR __Dest$[ebp]
  00017	ff 15 00 00 00
	00		 call	 DWORD PTR __imp__memmove
  0001d	83 c4 0c	 add	 esp, 12			; 0000000cH
  00020	03 c6		 add	 eax, esi
  00022	5e		 pop	 esi

; 472  : 	}

  00023	5d		 pop	 ebp
  00024	c3		 ret	 0
??$_Uninitialized_move@PAPAUtagChatInfo@@PAPAU1@V?$allocator@PAUtagChatInfo@@@std@@@std@@YAPAPAUtagChatInfo@@PAPAU1@00AAV?$allocator@PAUtagChatInfo@@@0@@Z ENDP ; std::_Uninitialized_move<tagChatInfo * *,tagChatInfo * *,std::allocator<tagChatInfo *> >
_TEXT	ENDS
PUBLIC	?IsEmpty@ioComplexStringPrinter@@QBE_NXZ	; ioComplexStringPrinter::IsEmpty
; Function compile flags: /Ogsp
; File d:\lost saga for developer\youtube\tutorial\source\src\lsclient\iocomplexstringprinter.h
;	COMDAT ?IsEmpty@ioComplexStringPrinter@@QBE_NXZ
_TEXT	SEGMENT
?IsEmpty@ioComplexStringPrinter@@QBE_NXZ PROC		; ioComplexStringPrinter::IsEmpty, COMDAT
; _this$ = ecx

; 124  : 	inline bool IsEmpty() const { return m_vPieceList.empty(); }

  00000	8b 41 0c	 mov	 eax, DWORD PTR [ecx+12]
  00003	2b 41 10	 sub	 eax, DWORD PTR [ecx+16]
  00006	f7 d8		 neg	 eax
  00008	1b c0		 sbb	 eax, eax
  0000a	40		 inc	 eax
  0000b	c3		 ret	 0
?IsEmpty@ioComplexStringPrinter@@QBE_NXZ ENDP		; ioComplexStringPrinter::IsEmpty
_TEXT	ENDS
PUBLIC	?c_str@?$basic_string@DU?$char_traits@D@std@@V?$allocator@D@2@@std@@QBEPBDXZ ; std::basic_string<char,std::char_traits<char>,std::allocator<char> >::c_str
; Function compile flags: /Ogsp
; File c:\program files (x86)\microsoft visual studio 10.0\vc\include\xstring
;	COMDAT ?c_str@?$basic_string@DU?$char_traits@D@std@@V?$allocator@D@2@@std@@QBEPBDXZ
_TEXT	SEGMENT
?c_str@?$basic_string@DU?$char_traits@D@std@@V?$allocator@D@2@@std@@QBEPBDXZ PROC ; std::basic_string<char,std::char_traits<char>,std::allocator<char> >::c_str, COMDAT
; _this$ = ecx

; 1497 : 		return (_Myptr());

  00000	83 79 14 10	 cmp	 DWORD PTR [ecx+20], 16	; 00000010H
  00004	72 03		 jb	 SHORT $LN5@c_str
  00006	8b 01		 mov	 eax, DWORD PTR [ecx]

; 1498 : 		}

  00008	c3		 ret	 0

; 1497 : 		return (_Myptr());

$LN5@c_str:
  00009	8b c1		 mov	 eax, ecx

; 1498 : 		}

  0000b	c3		 ret	 0
?c_str@?$basic_string@DU?$char_traits@D@std@@V?$allocator@D@2@@std@@QBEPBDXZ ENDP ; std::basic_string<char,std::char_traits<char>,std::allocator<char> >::c_str
_TEXT	ENDS
PUBLIC	??0?$_String_val@DV?$allocator@D@std@@@std@@QAE@V?$allocator@D@1@@Z ; std::_String_val<char,std::allocator<char> >::_String_val<char,std::allocator<char> >
; Function compile flags: /Ogsp
;	COMDAT ??0?$_String_val@DV?$allocator@D@std@@@std@@QAE@V?$allocator@D@1@@Z
_TEXT	SEGMENT
__Al$ = 8						; size = 1
??0?$_String_val@DV?$allocator@D@std@@@std@@QAE@V?$allocator@D@1@@Z PROC ; std::_String_val<char,std::allocator<char> >::_String_val<char,std::allocator<char> >, COMDAT
; _this$ = ecx

; 454  : 		{	// construct allocator from _Al

  00000	8b c1		 mov	 eax, ecx

; 455  : 		}

  00002	c2 04 00	 ret	 4
??0?$_String_val@DV?$allocator@D@std@@@std@@QAE@V?$allocator@D@1@@Z ENDP ; std::_String_val<char,std::allocator<char> >::_String_val<char,std::allocator<char> >
_TEXT	ENDS
PUBLIC	?_Eos@?$basic_string@DU?$char_traits@D@std@@V?$allocator@D@2@@std@@QAEXI@Z ; std::basic_string<char,std::char_traits<char>,std::allocator<char> >::_Eos
; Function compile flags: /Ogsp
;	COMDAT ?_Eos@?$basic_string@DU?$char_traits@D@std@@V?$allocator@D@2@@std@@QAEXI@Z
_TEXT	SEGMENT
__Newsize$ = 8						; size = 4
?_Eos@?$basic_string@DU?$char_traits@D@std@@V?$allocator@D@2@@std@@QAEXI@Z PROC ; std::basic_string<char,std::char_traits<char>,std::allocator<char> >::_Eos, COMDAT
; _this$ = ecx

; 1953 : 		{	// set new length and null terminator

  00000	55		 push	 ebp
  00001	8b ec		 mov	 ebp, esp

; 1954 : 		_Traits::assign(_Myptr()[this->_Mysize = _Newsize], _Elem());

  00003	83 79 14 10	 cmp	 DWORD PTR [ecx+20], 16	; 00000010H
  00007	8b 45 08	 mov	 eax, DWORD PTR __Newsize$[ebp]
  0000a	89 41 10	 mov	 DWORD PTR [ecx+16], eax
  0000d	72 02		 jb	 SHORT $LN5@Eos
  0000f	8b 09		 mov	 ecx, DWORD PTR [ecx]
$LN5@Eos:
  00011	c6 04 01 00	 mov	 BYTE PTR [ecx+eax], 0

; 1955 : 		}

  00015	5d		 pop	 ebp
  00016	c2 04 00	 ret	 4
?_Eos@?$basic_string@DU?$char_traits@D@std@@V?$allocator@D@2@@std@@QAEXI@Z ENDP ; std::basic_string<char,std::char_traits<char>,std::allocator<char> >::_Eos
_TEXT	ENDS
PUBLIC	?max_size@?$basic_string@DU?$char_traits@D@std@@V?$allocator@D@2@@std@@QBEIXZ ; std::basic_string<char,std::char_traits<char>,std::allocator<char> >::max_size
; Function compile flags: /Ogsp
;	COMDAT ?max_size@?$basic_string@DU?$char_traits@D@std@@V?$allocator@D@2@@std@@QBEIXZ
_TEXT	SEGMENT
?max_size@?$basic_string@DU?$char_traits@D@std@@V?$allocator@D@2@@std@@QBEIXZ PROC ; std::basic_string<char,std::char_traits<char>,std::allocator<char> >::max_size, COMDAT
; _this$ = ecx

; 1517 : 		size_type _Num = this->_Alval.max_size();
; 1518 : 		return (_Num <= 1 ? 1 : _Num - 1);

  00000	6a fe		 push	 -2			; fffffffeH
  00002	58		 pop	 eax

; 1519 : 		}

  00003	c3		 ret	 0
?max_size@?$basic_string@DU?$char_traits@D@std@@V?$allocator@D@2@@std@@QBEIXZ ENDP ; std::basic_string<char,std::char_traits<char>,std::allocator<char> >::max_size
_TEXT	ENDS
PUBLIC	?allocate@?$allocator@D@std@@QAEPADI@Z		; std::allocator<char>::allocate
; Function compile flags: /Ogsp
; File c:\program files (x86)\microsoft visual studio 10.0\vc\include\xmemory
;	COMDAT ?allocate@?$allocator@D@std@@QAEPADI@Z
_TEXT	SEGMENT
__Count$ = 8						; size = 4
?allocate@?$allocator@D@std@@QAEPADI@Z PROC		; std::allocator<char>::allocate, COMDAT
; _this$ = ecx

; 186  : 		{	// allocate array of _Count elements

  00000	55		 push	 ebp
  00001	8b ec		 mov	 ebp, esp

; 187  : 		return (_Allocate(_Count, (pointer)0));

  00003	6a 00		 push	 0
  00005	ff 75 08	 push	 DWORD PTR __Count$[ebp]
  00008	e8 00 00 00 00	 call	 ??$_Allocate@D@std@@YAPADIPAD@Z ; std::_Allocate<char>
  0000d	59		 pop	 ecx
  0000e	59		 pop	 ecx

; 188  : 		}

  0000f	5d		 pop	 ebp
  00010	c2 04 00	 ret	 4
?allocate@?$allocator@D@std@@QAEPADI@Z ENDP		; std::allocator<char>::allocate
_TEXT	ENDS
PUBLIC	??0?$vector@PAUtagChatInfo@@V?$allocator@PAUtagChatInfo@@@std@@@std@@QAE@XZ ; std::vector<tagChatInfo *,std::allocator<tagChatInfo *> >::vector<tagChatInfo *,std::allocator<tagChatInfo *> >
; Function compile flags: /Ogsp
; File c:\program files (x86)\microsoft visual studio 10.0\vc\include\vector
;	COMDAT ??0?$vector@PAUtagChatInfo@@V?$allocator@PAUtagChatInfo@@@std@@@std@@QAE@XZ
_TEXT	SEGMENT
??0?$vector@PAUtagChatInfo@@V?$allocator@PAUtagChatInfo@@@std@@@std@@QAE@XZ PROC ; std::vector<tagChatInfo *,std::allocator<tagChatInfo *> >::vector<tagChatInfo *,std::allocator<tagChatInfo *> >, COMDAT
; _this$ = ecx

; 507  : 		{	// construct empty vector

  00000	8b c1		 mov	 eax, ecx
  00002	33 c9		 xor	 ecx, ecx
  00004	89 08		 mov	 DWORD PTR [eax], ecx
  00006	89 48 04	 mov	 DWORD PTR [eax+4], ecx
  00009	89 48 08	 mov	 DWORD PTR [eax+8], ecx

; 508  : 		}

  0000c	c3		 ret	 0
??0?$vector@PAUtagChatInfo@@V?$allocator@PAUtagChatInfo@@@std@@@std@@QAE@XZ ENDP ; std::vector<tagChatInfo *,std::allocator<tagChatInfo *> >::vector<tagChatInfo *,std::allocator<tagChatInfo *> >
_TEXT	ENDS
PUBLIC	??E?$_Vector_iterator@V?$_Vector_val@PAUtagChatInfo@@V?$allocator@PAUtagChatInfo@@@std@@@std@@@std@@QAE?AV01@H@Z ; std::_Vector_iterator<std::_Vector_val<tagChatInfo *,std::allocator<tagChatInfo *> > >::operator++
; Function compile flags: /Ogsp
;	COMDAT ??E?$_Vector_iterator@V?$_Vector_val@PAUtagChatInfo@@V?$allocator@PAUtagChatInfo@@@std@@@std@@@std@@QAE?AV01@H@Z
_TEXT	SEGMENT
___$ReturnUdt$ = 8					; size = 4
___formal$ = 12						; size = 4
??E?$_Vector_iterator@V?$_Vector_val@PAUtagChatInfo@@V?$allocator@PAUtagChatInfo@@@std@@@std@@@std@@QAE?AV01@H@Z PROC ; std::_Vector_iterator<std::_Vector_val<tagChatInfo *,std::allocator<tagChatInfo *> > >::operator++, COMDAT
; _this$ = ecx

; 337  : 		{	// postincrement

  00000	55		 push	 ebp
  00001	8b ec		 mov	 ebp, esp

; 338  : 		_Myiter _Tmp = *this;

  00003	8b 11		 mov	 edx, DWORD PTR [ecx]
  00005	8b 45 08	 mov	 eax, DWORD PTR ___$ReturnUdt$[ebp]
  00008	89 10		 mov	 DWORD PTR [eax], edx

; 339  : 		++*this;

  0000a	83 c2 04	 add	 edx, 4
  0000d	89 11		 mov	 DWORD PTR [ecx], edx

; 340  : 		return (_Tmp);
; 341  : 		}

  0000f	5d		 pop	 ebp
  00010	c2 08 00	 ret	 8
??E?$_Vector_iterator@V?$_Vector_val@PAUtagChatInfo@@V?$allocator@PAUtagChatInfo@@@std@@@std@@@std@@QAE?AV01@H@Z ENDP ; std::_Vector_iterator<std::_Vector_val<tagChatInfo *,std::allocator<tagChatInfo *> > >::operator++
_TEXT	ENDS
PUBLIC	??9?$_Vector_const_iterator@V?$_Vector_val@PAUtagChatInfo@@V?$allocator@PAUtagChatInfo@@@std@@@std@@@std@@QBE_NABV01@@Z ; std::_Vector_const_iterator<std::_Vector_val<tagChatInfo *,std::allocator<tagChatInfo *> > >::operator!=
; Function compile flags: /Ogsp
;	COMDAT ??9?$_Vector_const_iterator@V?$_Vector_val@PAUtagChatInfo@@V?$allocator@PAUtagChatInfo@@@std@@@std@@@std@@QBE_NABV01@@Z
_TEXT	SEGMENT
__Right$ = 8						; size = 4
??9?$_Vector_const_iterator@V?$_Vector_val@PAUtagChatInfo@@V?$allocator@PAUtagChatInfo@@@std@@@std@@@std@@QBE_NABV01@@Z PROC ; std::_Vector_const_iterator<std::_Vector_val<tagChatInfo *,std::allocator<tagChatInfo *> > >::operator!=, COMDAT
; _this$ = ecx

; 207  : 		{	// test for iterator inequality

  00000	55		 push	 ebp
  00001	8b ec		 mov	 ebp, esp

; 208  : 		return (!(*this == _Right));

  00003	8b 01		 mov	 eax, DWORD PTR [ecx]
  00005	8b 55 08	 mov	 edx, DWORD PTR __Right$[ebp]
  00008	33 c9		 xor	 ecx, ecx
  0000a	3b 02		 cmp	 eax, DWORD PTR [edx]
  0000c	0f 95 c0	 setne	 al

; 209  : 		}

  0000f	5d		 pop	 ebp
  00010	c2 04 00	 ret	 4
??9?$_Vector_const_iterator@V?$_Vector_val@PAUtagChatInfo@@V?$allocator@PAUtagChatInfo@@@std@@@std@@@std@@QBE_NABV01@@Z ENDP ; std::_Vector_const_iterator<std::_Vector_val<tagChatInfo *,std::allocator<tagChatInfo *> > >::operator!=
_TEXT	ENDS
PUBLIC	??0?$_Vector_iterator@V?$_Vector_val@PAUtagChatInfo@@V?$allocator@PAUtagChatInfo@@@std@@@std@@@std@@QAE@PAPAUtagChatInfo@@PBU_Container_base0@1@@Z ; std::_Vector_iterator<std::_Vector_val<tagChatInfo *,std::allocator<tagChatInfo *> > >::_Vector_iterator<std::_Vector_val<tagChatInfo *,std::allocator<tagChatInfo *> > >
; Function compile flags: /Ogsp
;	COMDAT ??0?$_Vector_iterator@V?$_Vector_val@PAUtagChatInfo@@V?$allocator@PAUtagChatInfo@@@std@@@std@@@std@@QAE@PAPAUtagChatInfo@@PBU_Container_base0@1@@Z
_TEXT	SEGMENT
__Parg$ = 8						; size = 4
__Pvector$ = 12						; size = 4
??0?$_Vector_iterator@V?$_Vector_val@PAUtagChatInfo@@V?$allocator@PAUtagChatInfo@@@std@@@std@@@std@@QAE@PAPAUtagChatInfo@@PBU_Container_base0@1@@Z PROC ; std::_Vector_iterator<std::_Vector_val<tagChatInfo *,std::allocator<tagChatInfo *> > >::_Vector_iterator<std::_Vector_val<tagChatInfo *,std::allocator<tagChatInfo *> > >, COMDAT
; _this$ = ecx

; 304  : 		{	// construct with pointer _Parg

  00000	55		 push	 ebp
  00001	8b ec		 mov	 ebp, esp
  00003	8b c1		 mov	 eax, ecx
  00005	8b 4d 08	 mov	 ecx, DWORD PTR __Parg$[ebp]
  00008	89 08		 mov	 DWORD PTR [eax], ecx

; 305  : 		}

  0000a	5d		 pop	 ebp
  0000b	c2 08 00	 ret	 8
??0?$_Vector_iterator@V?$_Vector_val@PAUtagChatInfo@@V?$allocator@PAUtagChatInfo@@@std@@@std@@@std@@QAE@PAPAUtagChatInfo@@PBU_Container_base0@1@@Z ENDP ; std::_Vector_iterator<std::_Vector_val<tagChatInfo *,std::allocator<tagChatInfo *> > >::_Vector_iterator<std::_Vector_val<tagChatInfo *,std::allocator<tagChatInfo *> > >
_TEXT	ENDS
PUBLIC	?_Make_iter@?$vector@PAUtagChatInfo@@V?$allocator@PAUtagChatInfo@@@std@@@std@@QBE?AV?$_Vector_iterator@V?$_Vector_val@PAUtagChatInfo@@V?$allocator@PAUtagChatInfo@@@std@@@std@@@2@V?$_Vector_const_iterator@V?$_Vector_val@PAUtagChatInfo@@V?$allocator@PAUtagChatInfo@@@std@@@std@@@2@@Z ; std::vector<tagChatInfo *,std::allocator<tagChatInfo *> >::_Make_iter
; Function compile flags: /Ogsp
;	COMDAT ?_Make_iter@?$vector@PAUtagChatInfo@@V?$allocator@PAUtagChatInfo@@@std@@@std@@QBE?AV?$_Vector_iterator@V?$_Vector_val@PAUtagChatInfo@@V?$allocator@PAUtagChatInfo@@@std@@@std@@@2@V?$_Vector_const_iterator@V?$_Vector_val@PAUtagChatInfo@@V?$allocator@PAUtagChatInfo@@@std@@@std@@@2@@Z
_TEXT	SEGMENT
___$ReturnUdt$ = 8					; size = 4
__Where$ = 12						; size = 4
?_Make_iter@?$vector@PAUtagChatInfo@@V?$allocator@PAUtagChatInfo@@@std@@@std@@QBE?AV?$_Vector_iterator@V?$_Vector_val@PAUtagChatInfo@@V?$allocator@PAUtagChatInfo@@@std@@@std@@@2@V?$_Vector_const_iterator@V?$_Vector_val@PAUtagChatInfo@@V?$allocator@PAUtagChatInfo@@@std@@@std@@@2@@Z PROC ; std::vector<tagChatInfo *,std::allocator<tagChatInfo *> >::_Make_iter, COMDAT
; _this$ = ecx

; 801  : 		{	// make iterator from const_iterator

  00000	55		 push	 ebp
  00001	8b ec		 mov	 ebp, esp

; 802  : 		return (iterator(_Where._Ptr, this));

  00003	8b 45 08	 mov	 eax, DWORD PTR ___$ReturnUdt$[ebp]
  00006	8b 4d 0c	 mov	 ecx, DWORD PTR __Where$[ebp]
  00009	89 08		 mov	 DWORD PTR [eax], ecx

; 803  : 		}

  0000b	5d		 pop	 ebp
  0000c	c2 08 00	 ret	 8
?_Make_iter@?$vector@PAUtagChatInfo@@V?$allocator@PAUtagChatInfo@@@std@@@std@@QBE?AV?$_Vector_iterator@V?$_Vector_val@PAUtagChatInfo@@V?$allocator@PAUtagChatInfo@@@std@@@std@@@2@V?$_Vector_const_iterator@V?$_Vector_val@PAUtagChatInfo@@V?$allocator@PAUtagChatInfo@@@std@@@std@@@2@@Z ENDP ; std::vector<tagChatInfo *,std::allocator<tagChatInfo *> >::_Make_iter
_TEXT	ENDS
PUBLIC	?_Destroy@?$vector@PAUtagChatInfo@@V?$allocator@PAUtagChatInfo@@@std@@@std@@IAEXPAPAUtagChatInfo@@0@Z ; std::vector<tagChatInfo *,std::allocator<tagChatInfo *> >::_Destroy
; Function compile flags: /Ogsp
;	COMDAT ?_Destroy@?$vector@PAUtagChatInfo@@V?$allocator@PAUtagChatInfo@@@std@@@std@@IAEXPAPAUtagChatInfo@@0@Z
_TEXT	SEGMENT
__First$ = 8						; size = 4
__Last$ = 12						; size = 4
?_Destroy@?$vector@PAUtagChatInfo@@V?$allocator@PAUtagChatInfo@@@std@@@std@@IAEXPAPAUtagChatInfo@@0@Z PROC ; std::vector<tagChatInfo *,std::allocator<tagChatInfo *> >::_Destroy, COMDAT
; _this$ = ecx

; 1270 : 		_Destroy_range(_First, _Last, this->_Alval);
; 1271 : 		}

  00000	c2 08 00	 ret	 8
?_Destroy@?$vector@PAUtagChatInfo@@V?$allocator@PAUtagChatInfo@@@std@@@std@@IAEXPAPAUtagChatInfo@@0@Z ENDP ; std::vector<tagChatInfo *,std::allocator<tagChatInfo *> >::_Destroy
_TEXT	ENDS
PUBLIC	??$_Cons_val@V?$allocator@PAUtagChatInfo@@@std@@PAUtagChatInfo@@ABQAU3@@std@@YAXAAV?$allocator@PAUtagChatInfo@@@0@PAPAUtagChatInfo@@ABQAU2@@Z ; std::_Cons_val<std::allocator<tagChatInfo *>,tagChatInfo *,tagChatInfo * const &>
; Function compile flags: /Ogsp
; File c:\program files (x86)\microsoft visual studio 10.0\vc\include\xmemory
;	COMDAT ??$_Cons_val@V?$allocator@PAUtagChatInfo@@@std@@PAUtagChatInfo@@ABQAU3@@std@@YAXAAV?$allocator@PAUtagChatInfo@@@0@PAPAUtagChatInfo@@ABQAU2@@Z
_TEXT	SEGMENT
__Alval$ = 8						; size = 4
__Pdest$ = 12						; size = 4
__Src$ = 16						; size = 4
??$_Cons_val@V?$allocator@PAUtagChatInfo@@@std@@PAUtagChatInfo@@ABQAU3@@std@@YAXAAV?$allocator@PAUtagChatInfo@@@0@PAPAUtagChatInfo@@ABQAU2@@Z PROC ; std::_Cons_val<std::allocator<tagChatInfo *>,tagChatInfo *,tagChatInfo * const &>, COMDAT

; 279  : 	{	// construct using allocator

  00000	55		 push	 ebp
  00001	8b ec		 mov	 ebp, esp

; 280  : 	_Alval.construct(_Pdest, _STD forward<_Ty2>(_Src));

  00003	8b 45 0c	 mov	 eax, DWORD PTR __Pdest$[ebp]
  00006	85 c0		 test	 eax, eax
  00008	74 07		 je	 SHORT $LN9@Cons_val@2
  0000a	8b 4d 10	 mov	 ecx, DWORD PTR __Src$[ebp]
  0000d	8b 09		 mov	 ecx, DWORD PTR [ecx]
  0000f	89 08		 mov	 DWORD PTR [eax], ecx
$LN9@Cons_val@2:

; 281  : 	}

  00011	5d		 pop	 ebp
  00012	c3		 ret	 0
??$_Cons_val@V?$allocator@PAUtagChatInfo@@@std@@PAUtagChatInfo@@ABQAU3@@std@@YAXAAV?$allocator@PAUtagChatInfo@@@0@PAPAUtagChatInfo@@ABQAU2@@Z ENDP ; std::_Cons_val<std::allocator<tagChatInfo *>,tagChatInfo *,tagChatInfo * const &>
_TEXT	ENDS
PUBLIC	??$_Umove@PAPAUtagChatInfo@@@?$vector@PAUtagChatInfo@@V?$allocator@PAUtagChatInfo@@@std@@@std@@IAEPAPAUtagChatInfo@@PAPAU2@00@Z ; std::vector<tagChatInfo *,std::allocator<tagChatInfo *> >::_Umove<tagChatInfo * *>
; Function compile flags: /Ogsp
; File c:\program files (x86)\microsoft visual studio 10.0\vc\include\vector
;	COMDAT ??$_Umove@PAPAUtagChatInfo@@@?$vector@PAUtagChatInfo@@V?$allocator@PAUtagChatInfo@@@std@@@std@@IAEPAPAUtagChatInfo@@PAPAU2@00@Z
_TEXT	SEGMENT
__First$ = 8						; size = 4
__Last$ = 12						; size = 4
__Ptr$ = 16						; size = 4
??$_Umove@PAPAUtagChatInfo@@@?$vector@PAUtagChatInfo@@V?$allocator@PAUtagChatInfo@@@std@@@std@@IAEPAPAUtagChatInfo@@PAPAU2@00@Z PROC ; std::vector<tagChatInfo *,std::allocator<tagChatInfo *> >::_Umove<tagChatInfo * *>, COMDAT
; _this$ = ecx

; 1322 : 		pointer _Umove(_Iter _First, _Iter _Last, pointer _Ptr)

  00000	55		 push	 ebp
  00001	8b ec		 mov	 ebp, esp

; 1323 : 		{	// move initializing [_First, _Last), using allocator
; 1324 : 		return (_Uninitialized_move(_First, _Last,
; 1325 : 			_Ptr, this->_Alval));

  00003	83 c1 0c	 add	 ecx, 12			; 0000000cH
  00006	51		 push	 ecx
  00007	ff 75 10	 push	 DWORD PTR __Ptr$[ebp]
  0000a	ff 75 0c	 push	 DWORD PTR __Last$[ebp]
  0000d	ff 75 08	 push	 DWORD PTR __First$[ebp]
  00010	e8 00 00 00 00	 call	 ??$_Uninitialized_move@PAPAUtagChatInfo@@PAPAU1@V?$allocator@PAUtagChatInfo@@@std@@@std@@YAPAPAUtagChatInfo@@PAPAU1@00AAV?$allocator@PAUtagChatInfo@@@0@@Z ; std::_Uninitialized_move<tagChatInfo * *,tagChatInfo * *,std::allocator<tagChatInfo *> >
  00015	83 c4 10	 add	 esp, 16			; 00000010H

; 1326 : 		}

  00018	5d		 pop	 ebp
  00019	c2 0c 00	 ret	 12			; 0000000cH
??$_Umove@PAPAUtagChatInfo@@@?$vector@PAUtagChatInfo@@V?$allocator@PAUtagChatInfo@@@std@@@std@@IAEPAPAUtagChatInfo@@PAPAU2@00@Z ENDP ; std::vector<tagChatInfo *,std::allocator<tagChatInfo *> >::_Umove<tagChatInfo * *>
_TEXT	ENDS
PUBLIC	?_Tidy@?$basic_string@DU?$char_traits@D@std@@V?$allocator@D@2@@std@@QAEX_NI@Z ; std::basic_string<char,std::char_traits<char>,std::allocator<char> >::_Tidy
; Function compile flags: /Ogsp
; File c:\program files (x86)\microsoft visual studio 10.0\vc\include\xstring
;	COMDAT ?_Tidy@?$basic_string@DU?$char_traits@D@std@@V?$allocator@D@2@@std@@QAEX_NI@Z
_TEXT	SEGMENT
__Built$ = 8						; size = 1
__Newsize$ = 12						; size = 4
?_Tidy@?$basic_string@DU?$char_traits@D@std@@V?$allocator@D@2@@std@@QAEX_NI@Z PROC ; std::basic_string<char,std::char_traits<char>,std::allocator<char> >::_Tidy, COMDAT
; _this$ = ecx

; 1988 : 		{	// initialize buffer, deallocating any storage

  00000	55		 push	 ebp
  00001	8b ec		 mov	 ebp, esp

; 1989 : 		if (!_Built)

  00003	80 7d 08 00	 cmp	 BYTE PTR __Built$[ebp], 0
  00007	56		 push	 esi
  00008	57		 push	 edi
  00009	8b 7d 0c	 mov	 edi, DWORD PTR __Newsize$[ebp]
  0000c	8b f1		 mov	 esi, ecx
  0000e	74 20		 je	 SHORT $LN9@Tidy

; 1990 : 			;
; 1991 : 		else if (this->_BUF_SIZE <= this->_Myres)

  00010	83 7e 14 10	 cmp	 DWORD PTR [esi+20], 16	; 00000010H
  00014	72 1a		 jb	 SHORT $LN9@Tidy

; 1992 : 			{	// copy any leftovers to small buffer and deallocate
; 1993 : 			_Elem *_Ptr = this->_Bx._Ptr;

  00016	53		 push	 ebx
  00017	8b 1e		 mov	 ebx, DWORD PTR [esi]

; 1994 : 			if (0 < _Newsize)

  00019	85 ff		 test	 edi, edi
  0001b	74 0b		 je	 SHORT $LN7@Tidy

; 1995 : 				_Traits::copy(this->_Bx._Buf, _Ptr, _Newsize);

  0001d	57		 push	 edi
  0001e	53		 push	 ebx
  0001f	56		 push	 esi
  00020	e8 00 00 00 00	 call	 _memcpy
  00025	83 c4 0c	 add	 esp, 12			; 0000000cH
$LN7@Tidy:

; 1996 : 			this->_Alval.deallocate(_Ptr, this->_Myres + 1);

  00028	53		 push	 ebx
  00029	e8 00 00 00 00	 call	 ??3@YAXPAX@Z		; operator delete
  0002e	59		 pop	 ecx
  0002f	5b		 pop	 ebx
$LN9@Tidy:

; 1997 : 			}
; 1998 : 		this->_Myres = this->_BUF_SIZE - 1;
; 1999 : 		_Eos(_Newsize);

  00030	89 7e 10	 mov	 DWORD PTR [esi+16], edi
  00033	c7 46 14 0f 00
	00 00		 mov	 DWORD PTR [esi+20], 15	; 0000000fH
  0003a	c6 04 37 00	 mov	 BYTE PTR [edi+esi], 0
  0003e	5f		 pop	 edi
  0003f	5e		 pop	 esi

; 2000 : 		}

  00040	5d		 pop	 ebp
  00041	c2 08 00	 ret	 8
?_Tidy@?$basic_string@DU?$char_traits@D@std@@V?$allocator@D@2@@std@@QAEX_NI@Z ENDP ; std::basic_string<char,std::char_traits<char>,std::allocator<char> >::_Tidy
_TEXT	ENDS
PUBLIC	?_Copy@?$basic_string@DU?$char_traits@D@std@@V?$allocator@D@2@@std@@QAEXII@Z ; std::basic_string<char,std::char_traits<char>,std::allocator<char> >::_Copy
EXTRN	__EH_prolog3_catch:PROC
;	COMDAT xdata$x
; File c:\program files (x86)\microsoft visual studio 10.0\vc\include\iosfwd
xdata$x	SEGMENT
__catchsym$?_Copy@?$basic_string@DU?$char_traits@D@std@@V?$allocator@D@2@@std@@QAEXII@Z$5 DD 040H
	DD	00H
	DD	00H
	DD	FLAT:__catch$?_Copy@?$basic_string@DU?$char_traits@D@std@@V?$allocator@D@2@@std@@QAEXII@Z$0
__catchsym$?_Copy@?$basic_string@DU?$char_traits@D@std@@V?$allocator@D@2@@std@@QAEXII@Z$4 DD 040H
	DD	00H
	DD	00H
	DD	FLAT:__catch$?_Copy@?$basic_string@DU?$char_traits@D@std@@V?$allocator@D@2@@std@@QAEXII@Z$1
__unwindtable$?_Copy@?$basic_string@DU?$char_traits@D@std@@V?$allocator@D@2@@std@@QAEXII@Z DD 0ffffffffH
	DD	00H
	DD	0ffffffffH
	DD	00H
	DD	01H
	DD	00H
	DD	01H
	DD	00H
__ehfuncinfo$?_Copy@?$basic_string@DU?$char_traits@D@std@@V?$allocator@D@2@@std@@QAEXII@Z DD 019930522H
	DD	04H
	DD	FLAT:__unwindtable$?_Copy@?$basic_string@DU?$char_traits@D@std@@V?$allocator@D@2@@std@@QAEXII@Z
	DD	02H
	DD	FLAT:__tryblocktable$?_Copy@?$basic_string@DU?$char_traits@D@std@@V?$allocator@D@2@@std@@QAEXII@Z
	DD	2 DUP(00H)
	DD	00H
	DD	01H
__tryblocktable$?_Copy@?$basic_string@DU?$char_traits@D@std@@V?$allocator@D@2@@std@@QAEXII@Z DD 02H
	DD	02H
	DD	03H
	DD	01H
	DD	FLAT:__catchsym$?_Copy@?$basic_string@DU?$char_traits@D@std@@V?$allocator@D@2@@std@@QAEXII@Z$4
	DD	00H
	DD	00H
	DD	03H
	DD	01H
	DD	FLAT:__catchsym$?_Copy@?$basic_string@DU?$char_traits@D@std@@V?$allocator@D@2@@std@@QAEXII@Z$5
; Function compile flags: /Ogsp
; File c:\program files (x86)\microsoft visual studio 10.0\vc\include\xstring
xdata$x	ENDS
;	COMDAT ?_Copy@?$basic_string@DU?$char_traits@D@std@@V?$allocator@D@2@@std@@QAEXII@Z
_TEXT	SEGMENT
_this$ = -24						; size = 4
tv296 = -20						; size = 4
__Newres$ = -20						; size = 4
__$EHRec$ = -16						; size = 16
__Ptr$ = 8						; size = 4
__Newsize$ = 8						; size = 4
__Oldlen$ = 12						; size = 4
?_Copy@?$basic_string@DU?$char_traits@D@std@@V?$allocator@D@2@@std@@QAEXII@Z PROC ; std::basic_string<char,std::char_traits<char>,std::allocator<char> >::_Copy, COMDAT
; _this$ = ecx

; 1919 : 		{	// copy _Oldlen elements to newly allocated buffer

  00000	6a 0c		 push	 12			; 0000000cH
  00002	b8 00 00 00 00	 mov	 eax, __ehhandler$?_Copy@?$basic_string@DU?$char_traits@D@std@@V?$allocator@D@2@@std@@QAEXII@Z
  00007	e8 00 00 00 00	 call	 __EH_prolog3_catch
  0000c	8b f1		 mov	 esi, ecx
  0000e	89 75 e8	 mov	 DWORD PTR _this$[ebp], esi

; 1920 : 		size_type _Newres = _Newsize | this->_ALLOC_MASK;

  00011	8b 7d 08	 mov	 edi, DWORD PTR __Newsize$[ebp]
  00014	83 cf 0f	 or	 edi, 15			; 0000000fH

; 1921 : 		if (max_size() < _Newres)

  00017	83 ff fe	 cmp	 edi, -2			; fffffffeH
  0001a	76 05		 jbe	 SHORT $LN9@Copy

; 1922 : 			_Newres = _Newsize;	// undo roundup if too big

  0001c	8b 7d 08	 mov	 edi, DWORD PTR __Newsize$[ebp]
  0001f	eb 27		 jmp	 SHORT $LN5@Copy
$LN9@Copy:

; 1923 : 		else if (this->_Myres / 2 <= _Newres / 3)

  00021	33 d2		 xor	 edx, edx
  00023	6a 03		 push	 3
  00025	8b c7		 mov	 eax, edi
  00027	5b		 pop	 ebx
  00028	f7 f3		 div	 ebx
  0002a	8b 4e 14	 mov	 ecx, DWORD PTR [esi+20]
  0002d	89 4d ec	 mov	 DWORD PTR tv296[ebp], ecx
  00030	d1 6d ec	 shr	 DWORD PTR tv296[ebp], 1
  00033	8b 55 ec	 mov	 edx, DWORD PTR tv296[ebp]
  00036	3b d0		 cmp	 edx, eax
  00038	76 0e		 jbe	 SHORT $LN5@Copy

; 1924 : 			;
; 1925 : 		else if (this->_Myres <= max_size() - this->_Myres / 2)

  0003a	6a fe		 push	 -2			; fffffffeH
  0003c	5f		 pop	 edi
  0003d	8b c7		 mov	 eax, edi
  0003f	2b c2		 sub	 eax, edx
  00041	3b c8		 cmp	 ecx, eax
  00043	77 03		 ja	 SHORT $LN5@Copy

; 1926 : 			_Newres = this->_Myres
; 1927 : 				+ this->_Myres / 2;	// grow exponentially if possible

  00045	8d 3c 0a	 lea	 edi, DWORD PTR [edx+ecx]
$LN5@Copy:

; 1928 : 		else
; 1929 : 			_Newres = max_size();	// settle for max_size()
; 1930 : 
; 1931 : 		_Elem *_Ptr;
; 1932 : 		_TRY_BEGIN

  00048	83 65 fc 00	 and	 DWORD PTR __$EHRec$[ebp+12], 0

; 1933 : 			_Ptr = this->_Alval.allocate(_Newres + 1);

  0004c	8d 47 01	 lea	 eax, DWORD PTR [edi+1]
  0004f	6a 00		 push	 0
  00051	50		 push	 eax
  00052	e8 00 00 00 00	 call	 ??$_Allocate@D@std@@YAPADIPAD@Z ; std::_Allocate<char>
  00057	59		 pop	 ecx
  00058	59		 pop	 ecx
  00059	89 45 08	 mov	 DWORD PTR __Ptr$[ebp], eax
  0005c	eb 27		 jmp	 SHORT $LN19@Copy
__catch$?_Copy@?$basic_string@DU?$char_traits@D@std@@V?$allocator@D@2@@std@@QAEXII@Z$0:

; 1934 : 		_CATCH_ALL
; 1935 : 			_Newres = _Newsize;	// allocation failed, undo roundup and retry

  0005e	8b 45 08	 mov	 eax, DWORD PTR __Newsize$[ebp]
  00061	89 65 f0	 mov	 DWORD PTR __$EHRec$[ebp], esp
  00064	89 45 ec	 mov	 DWORD PTR __Newres$[ebp], eax

; 1936 : 			_TRY_BEGIN
; 1937 : 				_Ptr = this->_Alval.allocate(_Newres + 1);

  00067	40		 inc	 eax
  00068	6a 00		 push	 0
  0006a	50		 push	 eax
  0006b	c6 45 fc 02	 mov	 BYTE PTR __$EHRec$[ebp+12], 2
  0006f	e8 00 00 00 00	 call	 ??$_Allocate@D@std@@YAPADIPAD@Z ; std::_Allocate<char>
  00074	59		 pop	 ecx
  00075	89 45 08	 mov	 DWORD PTR __Ptr$[ebp], eax
  00078	59		 pop	 ecx

; 1941 : 			_CATCH_END
; 1942 : 		_CATCH_END

  00079	b8 00 00 00 00	 mov	 eax, $LN63@Copy
  0007e	c3		 ret	 0
$LN63@Copy:
  0007f	8b 75 e8	 mov	 esi, DWORD PTR _this$[ebp]
  00082	8b 7d ec	 mov	 edi, DWORD PTR __Newres$[ebp]
$LN19@Copy:

; 1943 : 
; 1944 : 		if (0 < _Oldlen)

  00085	8b 5d 0c	 mov	 ebx, DWORD PTR __Oldlen$[ebp]
  00088	85 db		 test	 ebx, ebx
  0008a	74 19		 je	 SHORT $LN52@Copy

; 1945 : 			_Traits::copy(_Ptr, _Myptr(), _Oldlen);	// copy existing elements

  0008c	83 7e 14 10	 cmp	 DWORD PTR [esi+20], 16	; 00000010H
  00090	72 04		 jb	 SHORT $LN50@Copy
  00092	8b 06		 mov	 eax, DWORD PTR [esi]
  00094	eb 02		 jmp	 SHORT $LN51@Copy
$LN50@Copy:
  00096	8b c6		 mov	 eax, esi
$LN51@Copy:
  00098	53		 push	 ebx
  00099	50		 push	 eax
  0009a	ff 75 08	 push	 DWORD PTR __Ptr$[ebp]
  0009d	e8 00 00 00 00	 call	 _memcpy
  000a2	83 c4 0c	 add	 esp, 12			; 0000000cH
$LN52@Copy:

; 1946 : 		_Tidy(true);

  000a5	6a 00		 push	 0
  000a7	6a 01		 push	 1
  000a9	8b ce		 mov	 ecx, esi
  000ab	e8 00 00 00 00	 call	 ?_Tidy@?$basic_string@DU?$char_traits@D@std@@V?$allocator@D@2@@std@@QAEX_NI@Z ; std::basic_string<char,std::char_traits<char>,std::allocator<char> >::_Tidy

; 1947 : 		this->_Bx._Ptr = _Ptr;

  000b0	8b 45 08	 mov	 eax, DWORD PTR __Ptr$[ebp]
  000b3	89 06		 mov	 DWORD PTR [esi], eax

; 1948 : 		this->_Myres = _Newres;
; 1949 : 		_Eos(_Oldlen);

  000b5	83 ff 10	 cmp	 edi, 16			; 00000010H
  000b8	89 7e 14	 mov	 DWORD PTR [esi+20], edi
  000bb	89 5e 10	 mov	 DWORD PTR [esi+16], ebx
  000be	0f 42 c6	 cmovb	 eax, esi
  000c1	c6 04 18 00	 mov	 BYTE PTR [eax+ebx], 0

; 1950 : 		}

  000c5	e8 00 00 00 00	 call	 __EH_epilog3
  000ca	c2 08 00	 ret	 8
__catch$?_Copy@?$basic_string@DU?$char_traits@D@std@@V?$allocator@D@2@@std@@QAEXII@Z$1:

; 1938 : 			_CATCH_ALL
; 1939 : 			_Tidy(true);	// failed again, discard storage and reraise

  000cd	8b 4d e8	 mov	 ecx, DWORD PTR _this$[ebp]
  000d0	33 f6		 xor	 esi, esi
  000d2	56		 push	 esi
  000d3	6a 01		 push	 1
  000d5	e8 00 00 00 00	 call	 ?_Tidy@?$basic_string@DU?$char_traits@D@std@@V?$allocator@D@2@@std@@QAEX_NI@Z ; std::basic_string<char,std::char_traits<char>,std::allocator<char> >::_Tidy

; 1940 : 			_RERAISE;

  000da	56		 push	 esi
  000db	56		 push	 esi
  000dc	e8 00 00 00 00	 call	 __CxxThrowException@8
$LN67@Copy:
$LN66@Copy:
  000e1	cc		 int	 3
_TEXT	ENDS
;	COMDAT text$x
text$x	SEGMENT
__ehhandler$?_Copy@?$basic_string@DU?$char_traits@D@std@@V?$allocator@D@2@@std@@QAEXII@Z:
  00000	8b 54 24 08	 mov	 edx, DWORD PTR [esp+8]
  00004	8d 42 0c	 lea	 eax, DWORD PTR [edx+12]
  00007	8b 4a e4	 mov	 ecx, DWORD PTR [edx-28]
  0000a	33 c8		 xor	 ecx, eax
  0000c	e8 00 00 00 00	 call	 @__security_check_cookie@4
  00011	b8 00 00 00 00	 mov	 eax, OFFSET __ehfuncinfo$?_Copy@?$basic_string@DU?$char_traits@D@std@@V?$allocator@D@2@@std@@QAEXII@Z
  00016	e9 00 00 00 00	 jmp	 ___CxxFrameHandler3
text$x	ENDS
?_Copy@?$basic_string@DU?$char_traits@D@std@@V?$allocator@D@2@@std@@QAEXII@Z ENDP ; std::basic_string<char,std::char_traits<char>,std::allocator<char> >::_Copy
PUBLIC	?begin@?$vector@PAUtagChatInfo@@V?$allocator@PAUtagChatInfo@@@std@@@std@@QAE?AV?$_Vector_iterator@V?$_Vector_val@PAUtagChatInfo@@V?$allocator@PAUtagChatInfo@@@std@@@std@@@2@XZ ; std::vector<tagChatInfo *,std::allocator<tagChatInfo *> >::begin
; Function compile flags: /Ogsp
; File c:\program files (x86)\microsoft visual studio 10.0\vc\include\vector
;	COMDAT ?begin@?$vector@PAUtagChatInfo@@V?$allocator@PAUtagChatInfo@@@std@@@std@@QAE?AV?$_Vector_iterator@V?$_Vector_val@PAUtagChatInfo@@V?$allocator@PAUtagChatInfo@@@std@@@std@@@2@XZ
_TEXT	SEGMENT
___$ReturnUdt$ = 8					; size = 4
?begin@?$vector@PAUtagChatInfo@@V?$allocator@PAUtagChatInfo@@@std@@@std@@QAE?AV?$_Vector_iterator@V?$_Vector_val@PAUtagChatInfo@@V?$allocator@PAUtagChatInfo@@@std@@@std@@@2@XZ PROC ; std::vector<tagChatInfo *,std::allocator<tagChatInfo *> >::begin, COMDAT
; _this$ = ecx

; 781  : 		{	// return iterator for beginning of mutable sequence

  00000	55		 push	 ebp
  00001	8b ec		 mov	 ebp, esp

; 782  : 		return (iterator(this->_Myfirst, this));

  00003	8b 09		 mov	 ecx, DWORD PTR [ecx]
  00005	8b 45 08	 mov	 eax, DWORD PTR ___$ReturnUdt$[ebp]
  00008	89 08		 mov	 DWORD PTR [eax], ecx

; 783  : 		}

  0000a	5d		 pop	 ebp
  0000b	c2 04 00	 ret	 4
?begin@?$vector@PAUtagChatInfo@@V?$allocator@PAUtagChatInfo@@@std@@@std@@QAE?AV?$_Vector_iterator@V?$_Vector_val@PAUtagChatInfo@@V?$allocator@PAUtagChatInfo@@@std@@@std@@@2@XZ ENDP ; std::vector<tagChatInfo *,std::allocator<tagChatInfo *> >::begin
_TEXT	ENDS
PUBLIC	?end@?$vector@PAUtagChatInfo@@V?$allocator@PAUtagChatInfo@@@std@@@std@@QAE?AV?$_Vector_iterator@V?$_Vector_val@PAUtagChatInfo@@V?$allocator@PAUtagChatInfo@@@std@@@std@@@2@XZ ; std::vector<tagChatInfo *,std::allocator<tagChatInfo *> >::end
; Function compile flags: /Ogsp
;	COMDAT ?end@?$vector@PAUtagChatInfo@@V?$allocator@PAUtagChatInfo@@@std@@@std@@QAE?AV?$_Vector_iterator@V?$_Vector_val@PAUtagChatInfo@@V?$allocator@PAUtagChatInfo@@@std@@@std@@@2@XZ
_TEXT	SEGMENT
___$ReturnUdt$ = 8					; size = 4
?end@?$vector@PAUtagChatInfo@@V?$allocator@PAUtagChatInfo@@@std@@@std@@QAE?AV?$_Vector_iterator@V?$_Vector_val@PAUtagChatInfo@@V?$allocator@PAUtagChatInfo@@@std@@@std@@@2@XZ PROC ; std::vector<tagChatInfo *,std::allocator<tagChatInfo *> >::end, COMDAT
; _this$ = ecx

; 791  : 		{	// return iterator for end of mutable sequence

  00000	55		 push	 ebp
  00001	8b ec		 mov	 ebp, esp

; 792  : 		return (iterator(this->_Mylast, this));

  00003	8b 49 04	 mov	 ecx, DWORD PTR [ecx+4]
  00006	8b 45 08	 mov	 eax, DWORD PTR ___$ReturnUdt$[ebp]
  00009	89 08		 mov	 DWORD PTR [eax], ecx

; 793  : 		}

  0000b	5d		 pop	 ebp
  0000c	c2 04 00	 ret	 4
?end@?$vector@PAUtagChatInfo@@V?$allocator@PAUtagChatInfo@@@std@@@std@@QAE?AV?$_Vector_iterator@V?$_Vector_val@PAUtagChatInfo@@V?$allocator@PAUtagChatInfo@@@std@@@std@@@2@XZ ENDP ; std::vector<tagChatInfo *,std::allocator<tagChatInfo *> >::end
_TEXT	ENDS
PUBLIC	?erase@?$vector@PAUtagChatInfo@@V?$allocator@PAUtagChatInfo@@@std@@@std@@QAE?AV?$_Vector_iterator@V?$_Vector_val@PAUtagChatInfo@@V?$allocator@PAUtagChatInfo@@@std@@@std@@@2@V?$_Vector_const_iterator@V?$_Vector_val@PAUtagChatInfo@@V?$allocator@PAUtagChatInfo@@@std@@@std@@@2@0@Z ; std::vector<tagChatInfo *,std::allocator<tagChatInfo *> >::erase
; Function compile flags: /Ogsp
;	COMDAT ?erase@?$vector@PAUtagChatInfo@@V?$allocator@PAUtagChatInfo@@@std@@@std@@QAE?AV?$_Vector_iterator@V?$_Vector_val@PAUtagChatInfo@@V?$allocator@PAUtagChatInfo@@@std@@@std@@@2@V?$_Vector_const_iterator@V?$_Vector_val@PAUtagChatInfo@@V?$allocator@PAUtagChatInfo@@@std@@@std@@@2@0@Z
_TEXT	SEGMENT
___$ReturnUdt$ = 8					; size = 4
__First_arg$ = 12					; size = 4
__Cat$509294 = 16					; size = 1
__Last_arg$ = 16					; size = 4
?erase@?$vector@PAUtagChatInfo@@V?$allocator@PAUtagChatInfo@@@std@@@std@@QAE?AV?$_Vector_iterator@V?$_Vector_val@PAUtagChatInfo@@V?$allocator@PAUtagChatInfo@@@std@@@std@@@2@V?$_Vector_const_iterator@V?$_Vector_val@PAUtagChatInfo@@V?$allocator@PAUtagChatInfo@@@std@@@std@@@2@0@Z PROC ; std::vector<tagChatInfo *,std::allocator<tagChatInfo *> >::erase, COMDAT
; _this$ = ecx

; 1190 : 		{	// erase [_First, _Last)

  00000	55		 push	 ebp
  00001	8b ec		 mov	 ebp, esp

; 1191 : 		iterator _First = _Make_iter(_First_arg);

  00003	8b 45 0c	 mov	 eax, DWORD PTR __First_arg$[ebp]
  00006	56		 push	 esi
  00007	57		 push	 edi
  00008	8b 7d 08	 mov	 edi, DWORD PTR ___$ReturnUdt$[ebp]
  0000b	8b f1		 mov	 esi, ecx
  0000d	89 07		 mov	 DWORD PTR [edi], eax

; 1192 : 		iterator _Last = _Make_iter(_Last_arg);
; 1193 : 
; 1194 : 		if (_First != _Last)

  0000f	3b 45 10	 cmp	 eax, DWORD PTR __Last_arg$[ebp]
  00012	74 16		 je	 SHORT $LN1@erase

; 1195 : 			{	// worth doing, copy down over hole
; 1196 :  #if _ITERATOR_DEBUG_LEVEL == 2
; 1197 : 			if (_Last < _First || _VICONT(_First) != this
; 1198 : 				|| _VIPTR(_First) < this->_Myfirst
; 1199 : 				|| this->_Mylast < _VIPTR(_Last))
; 1200 : 				_DEBUG_ERROR("vector erase iterator outside range");
; 1201 : 			pointer _Ptr = _Move(_VIPTR(_Last), this->_Mylast,
; 1202 : 				_VIPTR(_First));
; 1203 : 			_Orphan_range(_VIPTR(_First), this->_Mylast);
; 1204 : 
; 1205 :  #else /* _ITERATOR_DEBUG_LEVEL == 2 */
; 1206 : 			pointer _Ptr = _Move(_VIPTR(_Last), this->_Mylast,
; 1207 : 				_VIPTR(_First));

  00014	ff 75 10	 push	 DWORD PTR __Cat$509294[ebp]
  00017	8b 4e 04	 mov	 ecx, DWORD PTR [esi+4]
  0001a	50		 push	 eax
  0001b	51		 push	 ecx
  0001c	ff 75 10	 push	 DWORD PTR __Last_arg$[ebp]
  0001f	e8 00 00 00 00	 call	 ??$_Move@PAPAUtagChatInfo@@PAPAU1@@std@@YAPAPAUtagChatInfo@@PAPAU1@00U_Scalar_ptr_iterator_tag@0@@Z ; std::_Move<tagChatInfo * *,tagChatInfo * *>
  00024	83 c4 10	 add	 esp, 16			; 00000010H

; 1208 :  #endif /* _ITERATOR_DEBUG_LEVEL == 2 */
; 1209 : 
; 1210 : 			_Destroy(_Ptr, this->_Mylast);
; 1211 : 			this->_Mylast = _Ptr;

  00027	89 46 04	 mov	 DWORD PTR [esi+4], eax
$LN1@erase:

; 1212 : 			}
; 1213 : 		return (_First);

  0002a	8b c7		 mov	 eax, edi
  0002c	5f		 pop	 edi
  0002d	5e		 pop	 esi

; 1214 : 		}

  0002e	5d		 pop	 ebp
  0002f	c2 0c 00	 ret	 12			; 0000000cH
?erase@?$vector@PAUtagChatInfo@@V?$allocator@PAUtagChatInfo@@@std@@@std@@QAE?AV?$_Vector_iterator@V?$_Vector_val@PAUtagChatInfo@@V?$allocator@PAUtagChatInfo@@@std@@@std@@@2@V?$_Vector_const_iterator@V?$_Vector_val@PAUtagChatInfo@@V?$allocator@PAUtagChatInfo@@@std@@@std@@@2@0@Z ENDP ; std::vector<tagChatInfo *,std::allocator<tagChatInfo *> >::erase
_TEXT	ENDS
PUBLIC	?_Tidy@?$vector@PAUtagChatInfo@@V?$allocator@PAUtagChatInfo@@@std@@@std@@IAEXXZ ; std::vector<tagChatInfo *,std::allocator<tagChatInfo *> >::_Tidy
EXTRN	__imp_?_Orphan_all@_Container_base0@std@@QAEXXZ:PROC
; Function compile flags: /Ogsp
;	COMDAT ?_Tidy@?$vector@PAUtagChatInfo@@V?$allocator@PAUtagChatInfo@@@std@@@std@@IAEXXZ
_TEXT	SEGMENT
?_Tidy@?$vector@PAUtagChatInfo@@V?$allocator@PAUtagChatInfo@@@std@@@std@@IAEXXZ PROC ; std::vector<tagChatInfo *,std::allocator<tagChatInfo *> >::_Tidy, COMDAT
; _this$ = ecx

; 1301 : 		{	// free all storage

  00000	56		 push	 esi
  00001	8b f1		 mov	 esi, ecx

; 1302 : 		if (this->_Myfirst != 0)

  00003	83 3e 00	 cmp	 DWORD PTR [esi], 0
  00006	74 0e		 je	 SHORT $LN12@Tidy@2

; 1303 : 			{	// something to free, destroy and deallocate it
; 1304 : 			this->_Orphan_all();

  00008	ff 15 00 00 00
	00		 call	 DWORD PTR __imp_?_Orphan_all@_Container_base0@std@@QAEXXZ

; 1305 : 			_Destroy(this->_Myfirst, this->_Mylast);
; 1306 : 			this->_Alval.deallocate(this->_Myfirst,
; 1307 : 				this->_Myend - this->_Myfirst);

  0000e	ff 36		 push	 DWORD PTR [esi]
  00010	e8 00 00 00 00	 call	 ??3@YAXPAX@Z		; operator delete
  00015	59		 pop	 ecx
$LN12@Tidy@2:

; 1308 : 			}
; 1309 : 		this->_Myfirst = 0;

  00016	83 26 00	 and	 DWORD PTR [esi], 0

; 1310 : 		this->_Mylast = 0;

  00019	83 66 04 00	 and	 DWORD PTR [esi+4], 0

; 1311 : 		this->_Myend = 0;

  0001d	83 66 08 00	 and	 DWORD PTR [esi+8], 0
  00021	5e		 pop	 esi

; 1312 : 		}

  00022	c3		 ret	 0
?_Tidy@?$vector@PAUtagChatInfo@@V?$allocator@PAUtagChatInfo@@@std@@@std@@IAEXXZ ENDP ; std::vector<tagChatInfo *,std::allocator<tagChatInfo *> >::_Tidy
_TEXT	ENDS
PUBLIC	?reserve@?$vector@PAUtagChatInfo@@V?$allocator@PAUtagChatInfo@@@std@@@std@@QAEXI@Z ; std::vector<tagChatInfo *,std::allocator<tagChatInfo *> >::reserve
; Function compile flags: /Ogsp
;	COMDAT ?reserve@?$vector@PAUtagChatInfo@@V?$allocator@PAUtagChatInfo@@@std@@@std@@QAEXI@Z
_TEXT	SEGMENT
__Count$ = 8						; size = 4
?reserve@?$vector@PAUtagChatInfo@@V?$allocator@PAUtagChatInfo@@@std@@@std@@QAEXI@Z PROC ; std::vector<tagChatInfo *,std::allocator<tagChatInfo *> >::reserve, COMDAT
; _this$ = ecx

; 746  : 		{	// determine new minimum length of allocated storage

  00000	55		 push	 ebp
  00001	8b ec		 mov	 ebp, esp

; 747  : 		if (max_size() < _Count)

  00003	81 7d 08 ff ff
	ff 3f		 cmp	 DWORD PTR __Count$[ebp], 1073741823 ; 3fffffffH
  0000a	56		 push	 esi
  0000b	8b f1		 mov	 esi, ecx
  0000d	76 0b		 jbe	 SHORT $LN5@reserve

; 748  : 			_Xlen();	// result too long

  0000f	68 00 00 00 00	 push	 OFFSET ??_C@_0BD@OLBABOEK@vector?$DMT?$DO?5too?5long?$AA@
  00014	ff 15 00 00 00
	00		 call	 DWORD PTR __imp_?_Xlength_error@std@@YAXPBD@Z
$LN43@reserve:
$LN5@reserve:

; 749  : 		else if (capacity() < _Count)

  0001a	8b 46 08	 mov	 eax, DWORD PTR [esi+8]
  0001d	2b 06		 sub	 eax, DWORD PTR [esi]
  0001f	c1 f8 02	 sar	 eax, 2
  00022	3b 45 08	 cmp	 eax, DWORD PTR __Count$[ebp]
  00025	73 52		 jae	 SHORT $LN3@reserve

; 750  : 			{	// not enough room, reallocate
; 751  : 			pointer _Ptr = this->_Alval.allocate(_Count);

  00027	53		 push	 ebx
  00028	57		 push	 edi
  00029	6a 00		 push	 0
  0002b	ff 75 08	 push	 DWORD PTR __Count$[ebp]
  0002e	e8 00 00 00 00	 call	 ??$_Allocate@PAUtagChatInfo@@@std@@YAPAPAUtagChatInfo@@IPAPAU1@@Z ; std::_Allocate<tagChatInfo *>

; 752  : 
; 753  : 			_TRY_BEGIN
; 754  : 			_Umove(this->_Myfirst, this->_Mylast, _Ptr);

  00033	8b 0e		 mov	 ecx, DWORD PTR [esi]
  00035	8d 56 0c	 lea	 edx, DWORD PTR [esi+12]
  00038	52		 push	 edx
  00039	8b d8		 mov	 ebx, eax
  0003b	8b 46 04	 mov	 eax, DWORD PTR [esi+4]
  0003e	53		 push	 ebx
  0003f	50		 push	 eax
  00040	51		 push	 ecx
  00041	e8 00 00 00 00	 call	 ??$_Uninitialized_move@PAPAUtagChatInfo@@PAPAU1@V?$allocator@PAUtagChatInfo@@@std@@@std@@YAPAPAUtagChatInfo@@PAPAU1@00AAV?$allocator@PAUtagChatInfo@@@0@@Z ; std::_Uninitialized_move<tagChatInfo * *,tagChatInfo * *,std::allocator<tagChatInfo *> >

; 755  : 			_CATCH_ALL
; 756  : 			this->_Alval.deallocate(_Ptr, _Count);
; 757  : 			_RERAISE;
; 758  : 			_CATCH_END
; 759  : 
; 760  : 			size_type _Size = size();

  00046	8b 06		 mov	 eax, DWORD PTR [esi]
  00048	8b 7e 04	 mov	 edi, DWORD PTR [esi+4]
  0004b	2b f8		 sub	 edi, eax
  0004d	83 c4 18	 add	 esp, 24			; 00000018H
  00050	c1 ff 02	 sar	 edi, 2

; 761  : 			if (this->_Myfirst != 0)

  00053	85 c0		 test	 eax, eax
  00055	74 07		 je	 SHORT $LN39@reserve

; 762  : 				{	// destroy and deallocate old array
; 763  : 				_Destroy(this->_Myfirst, this->_Mylast);
; 764  : 				this->_Alval.deallocate(this->_Myfirst,
; 765  : 					this->_Myend - this->_Myfirst);

  00057	50		 push	 eax
  00058	e8 00 00 00 00	 call	 ??3@YAXPAX@Z		; operator delete
  0005d	59		 pop	 ecx
$LN39@reserve:

; 766  : 				}
; 767  : 
; 768  : 			this->_Orphan_all();

  0005e	8b ce		 mov	 ecx, esi
  00060	ff 15 00 00 00
	00		 call	 DWORD PTR __imp_?_Orphan_all@_Container_base0@std@@QAEXXZ

; 769  : 			this->_Myend = _Ptr + _Count;

  00066	8b 45 08	 mov	 eax, DWORD PTR __Count$[ebp]
  00069	8d 04 83	 lea	 eax, DWORD PTR [ebx+eax*4]
  0006c	89 46 08	 mov	 DWORD PTR [esi+8], eax

; 770  : 			this->_Mylast = _Ptr + _Size;

  0006f	8d 04 bb	 lea	 eax, DWORD PTR [ebx+edi*4]
  00072	5f		 pop	 edi

; 771  : 			this->_Myfirst = _Ptr;

  00073	89 1e		 mov	 DWORD PTR [esi], ebx
  00075	89 46 04	 mov	 DWORD PTR [esi+4], eax
  00078	5b		 pop	 ebx
$LN3@reserve:
  00079	5e		 pop	 esi

; 772  : 			}
; 773  : 		}

  0007a	5d		 pop	 ebp
  0007b	c2 04 00	 ret	 4
$LN42@reserve:
?reserve@?$vector@PAUtagChatInfo@@V?$allocator@PAUtagChatInfo@@@std@@@std@@QAEXI@Z ENDP ; std::vector<tagChatInfo *,std::allocator<tagChatInfo *> >::reserve
_TEXT	ENDS
PUBLIC	??0?$basic_string@DU?$char_traits@D@std@@V?$allocator@D@2@@std@@QAE@XZ ; std::basic_string<char,std::char_traits<char>,std::allocator<char> >::basic_string<char,std::char_traits<char>,std::allocator<char> >
; Function compile flags: /Ogsp
; File c:\program files (x86)\microsoft visual studio 10.0\vc\include\xstring
;	COMDAT ??0?$basic_string@DU?$char_traits@D@std@@V?$allocator@D@2@@std@@QAE@XZ
_TEXT	SEGMENT
??0?$basic_string@DU?$char_traits@D@std@@V?$allocator@D@2@@std@@QAE@XZ PROC ; std::basic_string<char,std::char_traits<char>,std::allocator<char> >::basic_string<char,std::char_traits<char>,std::allocator<char> >, COMDAT
; _this$ = ecx

; 550  : 		{	// construct empty string

  00000	8b c1		 mov	 eax, ecx

; 551  : 		_Tidy();

  00002	83 60 10 00	 and	 DWORD PTR [eax+16], 0
  00006	c7 40 14 0f 00
	00 00		 mov	 DWORD PTR [eax+20], 15	; 0000000fH
  0000d	c6 00 00	 mov	 BYTE PTR [eax], 0

; 552  : 		}

  00010	c3		 ret	 0
??0?$basic_string@DU?$char_traits@D@std@@V?$allocator@D@2@@std@@QAE@XZ ENDP ; std::basic_string<char,std::char_traits<char>,std::allocator<char> >::basic_string<char,std::char_traits<char>,std::allocator<char> >
_TEXT	ENDS
PUBLIC	??1?$basic_string@DU?$char_traits@D@std@@V?$allocator@D@2@@std@@QAE@XZ ; std::basic_string<char,std::char_traits<char>,std::allocator<char> >::~basic_string<char,std::char_traits<char>,std::allocator<char> >
; Function compile flags: /Ogsp
;	COMDAT ??1?$basic_string@DU?$char_traits@D@std@@V?$allocator@D@2@@std@@QAE@XZ
_TEXT	SEGMENT
??1?$basic_string@DU?$char_traits@D@std@@V?$allocator@D@2@@std@@QAE@XZ PROC ; std::basic_string<char,std::char_traits<char>,std::allocator<char> >::~basic_string<char,std::char_traits<char>,std::allocator<char> >, COMDAT
; _this$ = ecx

; 754  : 		_Tidy(true);

  00000	6a 00		 push	 0
  00002	6a 01		 push	 1
  00004	e8 00 00 00 00	 call	 ?_Tidy@?$basic_string@DU?$char_traits@D@std@@V?$allocator@D@2@@std@@QAEX_NI@Z ; std::basic_string<char,std::char_traits<char>,std::allocator<char> >::_Tidy

; 755  : 		}

  00009	c3		 ret	 0
??1?$basic_string@DU?$char_traits@D@std@@V?$allocator@D@2@@std@@QAE@XZ ENDP ; std::basic_string<char,std::char_traits<char>,std::allocator<char> >::~basic_string<char,std::char_traits<char>,std::allocator<char> >
_TEXT	ENDS
PUBLIC	?_Grow@?$basic_string@DU?$char_traits@D@std@@V?$allocator@D@2@@std@@QAE_NI_N@Z ; std::basic_string<char,std::char_traits<char>,std::allocator<char> >::_Grow
; Function compile flags: /Ogsp
;	COMDAT ?_Grow@?$basic_string@DU?$char_traits@D@std@@V?$allocator@D@2@@std@@QAE_NI_N@Z
_TEXT	SEGMENT
__Newsize$ = 8						; size = 4
__Trim$ = 12						; size = 1
?_Grow@?$basic_string@DU?$char_traits@D@std@@V?$allocator@D@2@@std@@QAE_NI_N@Z PROC ; std::basic_string<char,std::char_traits<char>,std::allocator<char> >::_Grow, COMDAT
; _this$ = ecx

; 1959 : 		{	// ensure buffer is big enough, trim to size if _Trim is true

  00000	55		 push	 ebp
  00001	8b ec		 mov	 ebp, esp
  00003	56		 push	 esi

; 1960 : 		if (max_size() < _Newsize)

  00004	8b 75 08	 mov	 esi, DWORD PTR __Newsize$[ebp]
  00007	83 fe fe	 cmp	 esi, -2			; fffffffeH
  0000a	76 0b		 jbe	 SHORT $LN6@Grow

; 1961 : 			_Xlen();	// result too long

  0000c	68 00 00 00 00	 push	 OFFSET ??_C@_0BA@JFNIOLAK@string?5too?5long?$AA@
  00011	ff 15 00 00 00
	00		 call	 DWORD PTR __imp_?_Xlength_error@std@@YAXPBD@Z
$LN31@Grow:
$LN6@Grow:

; 1962 : 		if (this->_Myres < _Newsize)

  00017	8b 41 14	 mov	 eax, DWORD PTR [ecx+20]
  0001a	3b c6		 cmp	 eax, esi
  0001c	73 0b		 jae	 SHORT $LN5@Grow

; 1963 : 			_Copy(_Newsize, this->_Mysize);	// reallocate to grow

  0001e	ff 71 10	 push	 DWORD PTR [ecx+16]
  00021	56		 push	 esi
  00022	e8 00 00 00 00	 call	 ?_Copy@?$basic_string@DU?$char_traits@D@std@@V?$allocator@D@2@@std@@QAEXII@Z ; std::basic_string<char,std::char_traits<char>,std::allocator<char> >::_Copy
  00027	eb 2e		 jmp	 SHORT $LN28@Grow
$LN5@Grow:

; 1964 : 		else if (_Trim && _Newsize < this->_BUF_SIZE)

  00029	33 d2		 xor	 edx, edx
  0002b	38 55 0c	 cmp	 BYTE PTR __Trim$[ebp], dl
  0002e	74 17		 je	 SHORT $LN3@Grow
  00030	83 fe 10	 cmp	 esi, 16			; 00000010H
  00033	73 12		 jae	 SHORT $LN3@Grow

; 1965 : 			_Tidy(true,	// copy and deallocate if trimming to small string
; 1966 : 				_Newsize < this->_Mysize ? _Newsize : this->_Mysize);

  00035	8b 41 10	 mov	 eax, DWORD PTR [ecx+16]
  00038	3b f0		 cmp	 esi, eax
  0003a	0f 42 c6	 cmovb	 eax, esi
  0003d	50		 push	 eax
  0003e	6a 01		 push	 1
  00040	e8 00 00 00 00	 call	 ?_Tidy@?$basic_string@DU?$char_traits@D@std@@V?$allocator@D@2@@std@@QAEX_NI@Z ; std::basic_string<char,std::char_traits<char>,std::allocator<char> >::_Tidy
  00045	eb 10		 jmp	 SHORT $LN28@Grow
$LN3@Grow:

; 1967 : 		else if (_Newsize == 0)

  00047	3b f2		 cmp	 esi, edx
  00049	75 0c		 jne	 SHORT $LN28@Grow

; 1968 : 			_Eos(0);	// new size is zero, just null terminate

  0004b	89 51 10	 mov	 DWORD PTR [ecx+16], edx
  0004e	83 f8 10	 cmp	 eax, 16			; 00000010H
  00051	72 02		 jb	 SHORT $LN26@Grow
  00053	8b 09		 mov	 ecx, DWORD PTR [ecx]
$LN26@Grow:
  00055	88 11		 mov	 BYTE PTR [ecx], dl
$LN28@Grow:

; 1969 : 		return (0 < _Newsize);	// return true only if more work to do

  00057	33 c0		 xor	 eax, eax
  00059	3b c6		 cmp	 eax, esi
  0005b	1b c0		 sbb	 eax, eax
  0005d	f7 d8		 neg	 eax
  0005f	5e		 pop	 esi

; 1970 : 		}

  00060	5d		 pop	 ebp
  00061	c2 08 00	 ret	 8
$LN30@Grow:
?_Grow@?$basic_string@DU?$char_traits@D@std@@V?$allocator@D@2@@std@@QAE_NI_N@Z ENDP ; std::basic_string<char,std::char_traits<char>,std::allocator<char> >::_Grow
_TEXT	ENDS
PUBLIC	?append@?$basic_string@DU?$char_traits@D@std@@V?$allocator@D@2@@std@@QAEAAV12@ABV12@II@Z ; std::basic_string<char,std::char_traits<char>,std::allocator<char> >::append
; Function compile flags: /Ogsp
;	COMDAT ?append@?$basic_string@DU?$char_traits@D@std@@V?$allocator@D@2@@std@@QAEAAV12@ABV12@II@Z
_TEXT	SEGMENT
__Right$ = 8						; size = 4
__Roff$ = 12						; size = 4
__Count$ = 16						; size = 4
?append@?$basic_string@DU?$char_traits@D@std@@V?$allocator@D@2@@std@@QAEAAV12@ABV12@II@Z PROC ; std::basic_string<char,std::char_traits<char>,std::allocator<char> >::append, COMDAT
; _this$ = ecx

; 799  : 		{	// append _Right [_Roff, _Roff + _Count)

  00000	55		 push	 ebp
  00001	8b ec		 mov	 ebp, esp

; 800  : 		if (_Right.size() < _Roff)

  00003	8b 45 08	 mov	 eax, DWORD PTR __Right$[ebp]
  00006	8b 40 10	 mov	 eax, DWORD PTR [eax+16]
  00009	53		 push	 ebx
  0000a	56		 push	 esi
  0000b	8b f1		 mov	 esi, ecx
  0000d	3b 45 0c	 cmp	 eax, DWORD PTR __Roff$[ebp]
  00010	73 0b		 jae	 SHORT $LN4@append

; 801  : 			_Xran();	// _Roff off end

  00012	68 00 00 00 00	 push	 OFFSET ??_C@_0BI@CFPLBAOH@invalid?5string?5position?$AA@
  00017	ff 15 00 00 00
	00		 call	 DWORD PTR __imp_?_Xout_of_range@std@@YAXPBD@Z
$LN36@append:
$LN4@append:

; 802  : 		size_type _Num = _Right.size() - _Roff;

  0001d	2b 45 0c	 sub	 eax, DWORD PTR __Roff$[ebp]

; 803  : 		if (_Num < _Count)

  00020	8b 5d 10	 mov	 ebx, DWORD PTR __Count$[ebp]
  00023	3b c3		 cmp	 eax, ebx

; 804  : 			_Count = _Num;	// trim _Count to size

  00025	0f 42 d8	 cmovb	 ebx, eax

; 805  : 		if (npos - this->_Mysize <= _Count)

  00028	8b 46 10	 mov	 eax, DWORD PTR [esi+16]
  0002b	83 c9 ff	 or	 ecx, -1
  0002e	2b c8		 sub	 ecx, eax
  00030	3b cb		 cmp	 ecx, ebx
  00032	77 0b		 ja	 SHORT $LN2@append

; 806  : 			_Xlen();	// result too long

  00034	68 00 00 00 00	 push	 OFFSET ??_C@_0BA@JFNIOLAK@string?5too?5long?$AA@
  00039	ff 15 00 00 00
	00		 call	 DWORD PTR __imp_?_Xlength_error@std@@YAXPBD@Z
$LN37@append:
$LN2@append:

; 807  : 
; 808  : 		if (0 < _Count && _Grow(_Num = this->_Mysize + _Count))

  0003f	85 db		 test	 ebx, ebx
  00041	74 50		 je	 SHORT $LN32@append
  00043	57		 push	 edi
  00044	8d 3c 18	 lea	 edi, DWORD PTR [eax+ebx]
  00047	6a 00		 push	 0
  00049	57		 push	 edi
  0004a	8b ce		 mov	 ecx, esi
  0004c	e8 00 00 00 00	 call	 ?_Grow@?$basic_string@DU?$char_traits@D@std@@V?$allocator@D@2@@std@@QAE_NI_N@Z ; std::basic_string<char,std::char_traits<char>,std::allocator<char> >::_Grow
  00051	84 c0		 test	 al, al
  00053	74 3d		 je	 SHORT $LN34@append

; 809  : 			{	// make room and append new stuff
; 810  : 			_Traits::copy(_Myptr() + this->_Mysize,
; 811  : 				_Right._Myptr() + _Roff, _Count);

  00055	8b 45 08	 mov	 eax, DWORD PTR __Right$[ebp]
  00058	83 78 14 10	 cmp	 DWORD PTR [eax+20], 16	; 00000010H
  0005c	72 02		 jb	 SHORT $LN18@append
  0005e	8b 00		 mov	 eax, DWORD PTR [eax]
$LN18@append:
  00060	83 7e 14 10	 cmp	 DWORD PTR [esi+20], 16	; 00000010H
  00064	72 04		 jb	 SHORT $LN22@append
  00066	8b 0e		 mov	 ecx, DWORD PTR [esi]
  00068	eb 02		 jmp	 SHORT $LN23@append
$LN22@append:
  0006a	8b ce		 mov	 ecx, esi
$LN23@append:
  0006c	03 45 0c	 add	 eax, DWORD PTR __Roff$[ebp]
  0006f	53		 push	 ebx
  00070	50		 push	 eax
  00071	8b 46 10	 mov	 eax, DWORD PTR [esi+16]
  00074	03 c1		 add	 eax, ecx
  00076	50		 push	 eax
  00077	e8 00 00 00 00	 call	 _memcpy
  0007c	83 c4 0c	 add	 esp, 12			; 0000000cH

; 812  : 			_Eos(_Num);

  0007f	83 7e 14 10	 cmp	 DWORD PTR [esi+20], 16	; 00000010H
  00083	89 7e 10	 mov	 DWORD PTR [esi+16], edi
  00086	72 04		 jb	 SHORT $LN30@append
  00088	8b 06		 mov	 eax, DWORD PTR [esi]
  0008a	eb 02		 jmp	 SHORT $LN31@append
$LN30@append:
  0008c	8b c6		 mov	 eax, esi
$LN31@append:
  0008e	c6 04 38 00	 mov	 BYTE PTR [eax+edi], 0
$LN34@append:
  00092	5f		 pop	 edi
$LN32@append:

; 813  : 			}
; 814  : 		return (*this);

  00093	8b c6		 mov	 eax, esi
  00095	5e		 pop	 esi
  00096	5b		 pop	 ebx

; 815  : 		}

  00097	5d		 pop	 ebp
  00098	c2 0c 00	 ret	 12			; 0000000cH
$LN35@append:
?append@?$basic_string@DU?$char_traits@D@std@@V?$allocator@D@2@@std@@QAEAAV12@ABV12@II@Z ENDP ; std::basic_string<char,std::char_traits<char>,std::allocator<char> >::append
_TEXT	ENDS
PUBLIC	??1?$vector@PAUtagChatInfo@@V?$allocator@PAUtagChatInfo@@@std@@@std@@QAE@XZ ; std::vector<tagChatInfo *,std::allocator<tagChatInfo *> >::~vector<tagChatInfo *,std::allocator<tagChatInfo *> >
; Function compile flags: /Ogsp
; File c:\program files (x86)\microsoft visual studio 10.0\vc\include\vector
;	COMDAT ??1?$vector@PAUtagChatInfo@@V?$allocator@PAUtagChatInfo@@@std@@@std@@QAE@XZ
_TEXT	SEGMENT
??1?$vector@PAUtagChatInfo@@V?$allocator@PAUtagChatInfo@@@std@@@std@@QAE@XZ PROC ; std::vector<tagChatInfo *,std::allocator<tagChatInfo *> >::~vector<tagChatInfo *,std::allocator<tagChatInfo *> >, COMDAT
; _this$ = ecx

; 705  : 		_Tidy();

  00000	e9 00 00 00 00	 jmp	 ?_Tidy@?$vector@PAUtagChatInfo@@V?$allocator@PAUtagChatInfo@@@std@@@std@@IAEXXZ ; std::vector<tagChatInfo *,std::allocator<tagChatInfo *> >::_Tidy
??1?$vector@PAUtagChatInfo@@V?$allocator@PAUtagChatInfo@@@std@@@std@@QAE@XZ ENDP ; std::vector<tagChatInfo *,std::allocator<tagChatInfo *> >::~vector<tagChatInfo *,std::allocator<tagChatInfo *> >
_TEXT	ENDS
PUBLIC	?clear@?$vector@PAUtagChatInfo@@V?$allocator@PAUtagChatInfo@@@std@@@std@@QAEXXZ ; std::vector<tagChatInfo *,std::allocator<tagChatInfo *> >::clear
; Function compile flags: /Ogsp
;	COMDAT ?clear@?$vector@PAUtagChatInfo@@V?$allocator@PAUtagChatInfo@@@std@@@std@@QAEXXZ
_TEXT	SEGMENT
$T509642 = -4						; size = 4
?clear@?$vector@PAUtagChatInfo@@V?$allocator@PAUtagChatInfo@@@std@@@std@@QAEXXZ PROC ; std::vector<tagChatInfo *,std::allocator<tagChatInfo *> >::clear, COMDAT
; _this$ = ecx

; 1217 : 		{	// erase all

  00000	55		 push	 ebp
  00001	8b ec		 mov	 ebp, esp
  00003	51		 push	 ecx

; 1218 : 		erase(begin(), end());

  00004	8b 41 04	 mov	 eax, DWORD PTR [ecx+4]
  00007	8b 11		 mov	 edx, DWORD PTR [ecx]
  00009	50		 push	 eax
  0000a	52		 push	 edx
  0000b	8d 45 fc	 lea	 eax, DWORD PTR $T509642[ebp]
  0000e	50		 push	 eax
  0000f	e8 00 00 00 00	 call	 ?erase@?$vector@PAUtagChatInfo@@V?$allocator@PAUtagChatInfo@@@std@@@std@@QAE?AV?$_Vector_iterator@V?$_Vector_val@PAUtagChatInfo@@V?$allocator@PAUtagChatInfo@@@std@@@std@@@2@V?$_Vector_const_iterator@V?$_Vector_val@PAUtagChatInfo@@V?$allocator@PAUtagChatInfo@@@std@@@std@@@2@0@Z ; std::vector<tagChatInfo *,std::allocator<tagChatInfo *> >::erase

; 1219 : 		}

  00014	c9		 leave
  00015	c3		 ret	 0
?clear@?$vector@PAUtagChatInfo@@V?$allocator@PAUtagChatInfo@@@std@@@std@@QAEXXZ ENDP ; std::vector<tagChatInfo *,std::allocator<tagChatInfo *> >::clear
_TEXT	ENDS
PUBLIC	?_Reserve@?$vector@PAUtagChatInfo@@V?$allocator@PAUtagChatInfo@@@std@@@std@@IAEXI@Z ; std::vector<tagChatInfo *,std::allocator<tagChatInfo *> >::_Reserve
; Function compile flags: /Ogsp
;	COMDAT ?_Reserve@?$vector@PAUtagChatInfo@@V?$allocator@PAUtagChatInfo@@@std@@@std@@IAEXI@Z
_TEXT	SEGMENT
__Count$ = 8						; size = 4
?_Reserve@?$vector@PAUtagChatInfo@@V?$allocator@PAUtagChatInfo@@@std@@@std@@IAEXI@Z PROC ; std::vector<tagChatInfo *,std::allocator<tagChatInfo *> >::_Reserve, COMDAT
; _this$ = ecx

; 1290 : 		{	// ensure room for _Count new elements, grow exponentially

  00000	55		 push	 ebp
  00001	8b ec		 mov	 ebp, esp
  00003	56		 push	 esi
  00004	8b f1		 mov	 esi, ecx

; 1291 : 		size_type _Size = size();

  00006	8b 0e		 mov	 ecx, DWORD PTR [esi]
  00008	8b 46 04	 mov	 eax, DWORD PTR [esi+4]
  0000b	2b c1		 sub	 eax, ecx

; 1292 : 		if (max_size() - _Count < _Size)

  0000d	ba ff ff ff 3f	 mov	 edx, 1073741823		; 3fffffffH
  00012	2b 55 08	 sub	 edx, DWORD PTR __Count$[ebp]
  00015	c1 f8 02	 sar	 eax, 2
  00018	3b d0		 cmp	 edx, eax
  0001a	73 0b		 jae	 SHORT $LN4@Reserve

; 1293 : 			_Xlen();

  0001c	68 00 00 00 00	 push	 OFFSET ??_C@_0BD@OLBABOEK@vector?$DMT?$DO?5too?5long?$AA@
  00021	ff 15 00 00 00
	00		 call	 DWORD PTR __imp_?_Xlength_error@std@@YAXPBD@Z
$LN21@Reserve:
$LN4@Reserve:

; 1294 : 		else if ((_Size += _Count) <= capacity())

  00027	8b 56 08	 mov	 edx, DWORD PTR [esi+8]
  0002a	03 45 08	 add	 eax, DWORD PTR __Count$[ebp]
  0002d	2b d1		 sub	 edx, ecx
  0002f	c1 fa 02	 sar	 edx, 2
  00032	3b c2		 cmp	 eax, edx
  00034	76 10		 jbe	 SHORT $LN1@Reserve

; 1295 : 			;
; 1296 : 		else
; 1297 : 			reserve(_Grow_to(_Size));

  00036	50		 push	 eax
  00037	8b ce		 mov	 ecx, esi
  00039	e8 00 00 00 00	 call	 ?_Grow_to@?$vector@PAUtagChatInfo@@V?$allocator@PAUtagChatInfo@@@std@@@std@@IBEII@Z ; std::vector<tagChatInfo *,std::allocator<tagChatInfo *> >::_Grow_to
  0003e	50		 push	 eax
  0003f	8b ce		 mov	 ecx, esi
  00041	e8 00 00 00 00	 call	 ?reserve@?$vector@PAUtagChatInfo@@V?$allocator@PAUtagChatInfo@@@std@@@std@@QAEXI@Z ; std::vector<tagChatInfo *,std::allocator<tagChatInfo *> >::reserve
$LN1@Reserve:
  00046	5e		 pop	 esi

; 1298 : 		}

  00047	5d		 pop	 ebp
  00048	c2 04 00	 ret	 4
$LN20@Reserve:
?_Reserve@?$vector@PAUtagChatInfo@@V?$allocator@PAUtagChatInfo@@@std@@@std@@IAEXI@Z ENDP ; std::vector<tagChatInfo *,std::allocator<tagChatInfo *> >::_Reserve
_TEXT	ENDS
PUBLIC	?append@?$basic_string@DU?$char_traits@D@std@@V?$allocator@D@2@@std@@QAEAAV12@ABV12@@Z ; std::basic_string<char,std::char_traits<char>,std::allocator<char> >::append
; Function compile flags: /Ogsp
; File c:\program files (x86)\microsoft visual studio 10.0\vc\include\xstring
;	COMDAT ?append@?$basic_string@DU?$char_traits@D@std@@V?$allocator@D@2@@std@@QAEAAV12@ABV12@@Z
_TEXT	SEGMENT
__Right$ = 8						; size = 4
?append@?$basic_string@DU?$char_traits@D@std@@V?$allocator@D@2@@std@@QAEAAV12@ABV12@@Z PROC ; std::basic_string<char,std::char_traits<char>,std::allocator<char> >::append, COMDAT
; _this$ = ecx

; 793  : 		{	// append _Right

  00000	55		 push	 ebp
  00001	8b ec		 mov	 ebp, esp

; 794  : 		return (append(_Right, 0, npos));

  00003	6a ff		 push	 -1
  00005	6a 00		 push	 0
  00007	ff 75 08	 push	 DWORD PTR __Right$[ebp]
  0000a	e8 00 00 00 00	 call	 ?append@?$basic_string@DU?$char_traits@D@std@@V?$allocator@D@2@@std@@QAEAAV12@ABV12@II@Z ; std::basic_string<char,std::char_traits<char>,std::allocator<char> >::append

; 795  : 		}

  0000f	5d		 pop	 ebp
  00010	c2 04 00	 ret	 4
?append@?$basic_string@DU?$char_traits@D@std@@V?$allocator@D@2@@std@@QAEAAV12@ABV12@@Z ENDP ; std::basic_string<char,std::char_traits<char>,std::allocator<char> >::append
_TEXT	ENDS
PUBLIC	?append@?$basic_string@DU?$char_traits@D@std@@V?$allocator@D@2@@std@@QAEAAV12@PBDI@Z ; std::basic_string<char,std::char_traits<char>,std::allocator<char> >::append
; Function compile flags: /Ogsp
;	COMDAT ?append@?$basic_string@DU?$char_traits@D@std@@V?$allocator@D@2@@std@@QAEAAV12@PBDI@Z
_TEXT	SEGMENT
__Ptr$ = 8						; size = 4
__Count$ = 12						; size = 4
?append@?$basic_string@DU?$char_traits@D@std@@V?$allocator@D@2@@std@@QAEAAV12@PBDI@Z PROC ; std::basic_string<char,std::char_traits<char>,std::allocator<char> >::append, COMDAT
; _this$ = ecx

; 818  : 		{	// append [_Ptr, _Ptr + _Count)

  00000	55		 push	 ebp
  00001	8b ec		 mov	 ebp, esp
  00003	56		 push	 esi
  00004	57		 push	 edi

; 819  :  #if _ITERATOR_DEBUG_LEVEL == 2
; 820  : 		if (_Count != 0)
; 821  : 			_DEBUG_POINTER(_Ptr);
; 822  :  #endif /* _ITERATOR_DEBUG_LEVEL == 2 */
; 823  : 
; 824  : 		if (_Inside(_Ptr))

  00005	8b 7d 08	 mov	 edi, DWORD PTR __Ptr$[ebp]
  00008	57		 push	 edi
  00009	8b f1		 mov	 esi, ecx
  0000b	e8 00 00 00 00	 call	 ?_Inside@?$basic_string@DU?$char_traits@D@std@@V?$allocator@D@2@@std@@QAE_NPBD@Z ; std::basic_string<char,std::char_traits<char>,std::allocator<char> >::_Inside
  00010	84 c0		 test	 al, al
  00012	74 1c		 je	 SHORT $LN3@append@2

; 825  : 			return (append(*this, _Ptr - _Myptr(), _Count));	// substring

  00014	83 7e 14 10	 cmp	 DWORD PTR [esi+20], 16	; 00000010H
  00018	72 04		 jb	 SHORT $LN8@append@2
  0001a	8b 06		 mov	 eax, DWORD PTR [esi]
  0001c	eb 02		 jmp	 SHORT $LN9@append@2
$LN8@append@2:
  0001e	8b c6		 mov	 eax, esi
$LN9@append@2:
  00020	ff 75 0c	 push	 DWORD PTR __Count$[ebp]
  00023	2b f8		 sub	 edi, eax
  00025	57		 push	 edi
  00026	56		 push	 esi
  00027	8b ce		 mov	 ecx, esi
  00029	e8 00 00 00 00	 call	 ?append@?$basic_string@DU?$char_traits@D@std@@V?$allocator@D@2@@std@@QAEAAV12@ABV12@II@Z ; std::basic_string<char,std::char_traits<char>,std::allocator<char> >::append
  0002e	eb 64		 jmp	 SHORT $LN4@append@2
$LN3@append@2:

; 826  : 		if (npos - this->_Mysize <= _Count)

  00030	8b 46 10	 mov	 eax, DWORD PTR [esi+16]
  00033	83 c9 ff	 or	 ecx, -1
  00036	53		 push	 ebx
  00037	8b 5d 0c	 mov	 ebx, DWORD PTR __Count$[ebp]
  0003a	2b c8		 sub	 ecx, eax
  0003c	3b cb		 cmp	 ecx, ebx
  0003e	77 0b		 ja	 SHORT $LN2@append@2

; 827  : 			_Xlen();	// result too long

  00040	68 00 00 00 00	 push	 OFFSET ??_C@_0BA@JFNIOLAK@string?5too?5long?$AA@
  00045	ff 15 00 00 00
	00		 call	 DWORD PTR __imp_?_Xlength_error@std@@YAXPBD@Z
$LN28@append@2:
$LN2@append@2:

; 828  : 
; 829  : 		size_type _Num;
; 830  : 		if (0 < _Count && _Grow(_Num = this->_Mysize + _Count))

  0004b	85 db		 test	 ebx, ebx
  0004d	74 42		 je	 SHORT $LN25@append@2
  0004f	8d 3c 18	 lea	 edi, DWORD PTR [eax+ebx]
  00052	6a 00		 push	 0
  00054	57		 push	 edi
  00055	8b ce		 mov	 ecx, esi
  00057	e8 00 00 00 00	 call	 ?_Grow@?$basic_string@DU?$char_traits@D@std@@V?$allocator@D@2@@std@@QAE_NI_N@Z ; std::basic_string<char,std::char_traits<char>,std::allocator<char> >::_Grow
  0005c	84 c0		 test	 al, al
  0005e	74 31		 je	 SHORT $LN25@append@2

; 831  : 			{	// make room and append new stuff
; 832  : 			_Traits::copy(_Myptr() + this->_Mysize, _Ptr, _Count);

  00060	83 7e 14 10	 cmp	 DWORD PTR [esi+20], 16	; 00000010H
  00064	72 04		 jb	 SHORT $LN15@append@2
  00066	8b 06		 mov	 eax, DWORD PTR [esi]
  00068	eb 02		 jmp	 SHORT $LN16@append@2
$LN15@append@2:
  0006a	8b c6		 mov	 eax, esi
$LN16@append@2:
  0006c	8b 4e 10	 mov	 ecx, DWORD PTR [esi+16]
  0006f	53		 push	 ebx
  00070	ff 75 08	 push	 DWORD PTR __Ptr$[ebp]
  00073	03 c8		 add	 ecx, eax
  00075	51		 push	 ecx
  00076	e8 00 00 00 00	 call	 _memcpy
  0007b	83 c4 0c	 add	 esp, 12			; 0000000cH

; 833  : 			_Eos(_Num);

  0007e	83 7e 14 10	 cmp	 DWORD PTR [esi+20], 16	; 00000010H
  00082	89 7e 10	 mov	 DWORD PTR [esi+16], edi
  00085	72 04		 jb	 SHORT $LN23@append@2
  00087	8b 06		 mov	 eax, DWORD PTR [esi]
  00089	eb 02		 jmp	 SHORT $LN24@append@2
$LN23@append@2:
  0008b	8b c6		 mov	 eax, esi
$LN24@append@2:
  0008d	c6 04 38 00	 mov	 BYTE PTR [eax+edi], 0
$LN25@append@2:

; 834  : 			}
; 835  : 		return (*this);

  00091	8b c6		 mov	 eax, esi
  00093	5b		 pop	 ebx
$LN4@append@2:
  00094	5f		 pop	 edi
  00095	5e		 pop	 esi

; 836  : 		}

  00096	5d		 pop	 ebp
  00097	c2 08 00	 ret	 8
$LN27@append@2:
?append@?$basic_string@DU?$char_traits@D@std@@V?$allocator@D@2@@std@@QAEAAV12@PBDI@Z ENDP ; std::basic_string<char,std::char_traits<char>,std::allocator<char> >::append
_TEXT	ENDS
PUBLIC	?append@?$basic_string@DU?$char_traits@D@std@@V?$allocator@D@2@@std@@QAEAAV12@PBD@Z ; std::basic_string<char,std::char_traits<char>,std::allocator<char> >::append
; Function compile flags: /Ogsp
;	COMDAT ?append@?$basic_string@DU?$char_traits@D@std@@V?$allocator@D@2@@std@@QAEAAV12@PBD@Z
_TEXT	SEGMENT
__Ptr$ = 8						; size = 4
?append@?$basic_string@DU?$char_traits@D@std@@V?$allocator@D@2@@std@@QAEAAV12@PBD@Z PROC ; std::basic_string<char,std::char_traits<char>,std::allocator<char> >::append, COMDAT
; _this$ = ecx

; 839  : 		{	// append [_Ptr, <null>)

  00000	55		 push	 ebp
  00001	8b ec		 mov	 ebp, esp

; 840  : 		_DEBUG_POINTER(_Ptr);
; 841  : 		return (append(_Ptr, _Traits::length(_Ptr)));

  00003	8b 45 08	 mov	 eax, DWORD PTR __Ptr$[ebp]
  00006	8d 50 01	 lea	 edx, DWORD PTR [eax+1]
  00009	53		 push	 ebx
$LL5@append@3:
  0000a	8a 18		 mov	 bl, BYTE PTR [eax]
  0000c	40		 inc	 eax
  0000d	84 db		 test	 bl, bl
  0000f	75 f9		 jne	 SHORT $LL5@append@3
  00011	2b c2		 sub	 eax, edx
  00013	50		 push	 eax
  00014	ff 75 08	 push	 DWORD PTR __Ptr$[ebp]
  00017	e8 00 00 00 00	 call	 ?append@?$basic_string@DU?$char_traits@D@std@@V?$allocator@D@2@@std@@QAEAAV12@PBDI@Z ; std::basic_string<char,std::char_traits<char>,std::allocator<char> >::append
  0001c	5b		 pop	 ebx

; 842  : 		}

  0001d	5d		 pop	 ebp
  0001e	c2 04 00	 ret	 4
?append@?$basic_string@DU?$char_traits@D@std@@V?$allocator@D@2@@std@@QAEAAV12@PBD@Z ENDP ; std::basic_string<char,std::char_traits<char>,std::allocator<char> >::append
_TEXT	ENDS
PUBLIC	??_7ioGuildChatMgr@@6B@				; ioGuildChatMgr::`vftable'
PUBLIC	??0ioGuildChatMgr@@QAE@XZ			; ioGuildChatMgr::ioGuildChatMgr
PUBLIC	??_R4ioGuildChatMgr@@6B@			; ioGuildChatMgr::`RTTI Complete Object Locator'
PUBLIC	??_R0?AVioGuildChatMgr@@@8			; ioGuildChatMgr `RTTI Type Descriptor'
PUBLIC	??_R3ioGuildChatMgr@@8				; ioGuildChatMgr::`RTTI Class Hierarchy Descriptor'
PUBLIC	??_R2ioGuildChatMgr@@8				; ioGuildChatMgr::`RTTI Base Class Array'
PUBLIC	??_R1A@?0A@EA@ioGuildChatMgr@@8			; ioGuildChatMgr::`RTTI Base Class Descriptor at (0,-1,0,64)'
PUBLIC	??_R13?0A@EA@?$Singleton@VioGuildChatMgr@@@@8	; Singleton<ioGuildChatMgr>::`RTTI Base Class Descriptor at (4,-1,0,64)'
PUBLIC	??_R0?AV?$Singleton@VioGuildChatMgr@@@@@8	; Singleton<ioGuildChatMgr> `RTTI Type Descriptor'
PUBLIC	??_R3?$Singleton@VioGuildChatMgr@@@@8		; Singleton<ioGuildChatMgr>::`RTTI Class Hierarchy Descriptor'
PUBLIC	??_R2?$Singleton@VioGuildChatMgr@@@@8		; Singleton<ioGuildChatMgr>::`RTTI Base Class Array'
PUBLIC	??_R1A@?0A@EA@?$Singleton@VioGuildChatMgr@@@@8	; Singleton<ioGuildChatMgr>::`RTTI Base Class Descriptor at (0,-1,0,64)'
EXTRN	??_EioGuildChatMgr@@UAEPAXI@Z:PROC		; ioGuildChatMgr::`vector deleting destructor'
;	COMDAT ??_R1A@?0A@EA@?$Singleton@VioGuildChatMgr@@@@8
; File c:\program files (x86)\microsoft visual studio 10.0\vc\include\xmemory
rdata$r	SEGMENT
??_R1A@?0A@EA@?$Singleton@VioGuildChatMgr@@@@8 DD FLAT:??_R0?AV?$Singleton@VioGuildChatMgr@@@@@8 ; Singleton<ioGuildChatMgr>::`RTTI Base Class Descriptor at (0,-1,0,64)'
	DD	00H
	DD	00H
	DD	0ffffffffH
	DD	00H
	DD	040H
	DD	FLAT:??_R3?$Singleton@VioGuildChatMgr@@@@8
rdata$r	ENDS
;	COMDAT ??_R2?$Singleton@VioGuildChatMgr@@@@8
rdata$r	SEGMENT
??_R2?$Singleton@VioGuildChatMgr@@@@8 DD FLAT:??_R1A@?0A@EA@?$Singleton@VioGuildChatMgr@@@@8 ; Singleton<ioGuildChatMgr>::`RTTI Base Class Array'
rdata$r	ENDS
;	COMDAT ??_R3?$Singleton@VioGuildChatMgr@@@@8
rdata$r	SEGMENT
??_R3?$Singleton@VioGuildChatMgr@@@@8 DD 00H		; Singleton<ioGuildChatMgr>::`RTTI Class Hierarchy Descriptor'
	DD	00H
	DD	01H
	DD	FLAT:??_R2?$Singleton@VioGuildChatMgr@@@@8
rdata$r	ENDS
;	COMDAT ??_R0?AV?$Singleton@VioGuildChatMgr@@@@@8
_DATA	SEGMENT
??_R0?AV?$Singleton@VioGuildChatMgr@@@@@8 DD FLAT:??_7type_info@@6B@ ; Singleton<ioGuildChatMgr> `RTTI Type Descriptor'
	DD	00H
	DB	'.?AV?$Singleton@VioGuildChatMgr@@@@', 00H
_DATA	ENDS
;	COMDAT ??_R13?0A@EA@?$Singleton@VioGuildChatMgr@@@@8
rdata$r	SEGMENT
??_R13?0A@EA@?$Singleton@VioGuildChatMgr@@@@8 DD FLAT:??_R0?AV?$Singleton@VioGuildChatMgr@@@@@8 ; Singleton<ioGuildChatMgr>::`RTTI Base Class Descriptor at (4,-1,0,64)'
	DD	00H
	DD	04H
	DD	0ffffffffH
	DD	00H
	DD	040H
	DD	FLAT:??_R3?$Singleton@VioGuildChatMgr@@@@8
rdata$r	ENDS
;	COMDAT ??_R1A@?0A@EA@ioGuildChatMgr@@8
rdata$r	SEGMENT
??_R1A@?0A@EA@ioGuildChatMgr@@8 DD FLAT:??_R0?AVioGuildChatMgr@@@8 ; ioGuildChatMgr::`RTTI Base Class Descriptor at (0,-1,0,64)'
	DD	01H
	DD	00H
	DD	0ffffffffH
	DD	00H
	DD	040H
	DD	FLAT:??_R3ioGuildChatMgr@@8
rdata$r	ENDS
;	COMDAT ??_R2ioGuildChatMgr@@8
rdata$r	SEGMENT
??_R2ioGuildChatMgr@@8 DD FLAT:??_R1A@?0A@EA@ioGuildChatMgr@@8 ; ioGuildChatMgr::`RTTI Base Class Array'
	DD	FLAT:??_R13?0A@EA@?$Singleton@VioGuildChatMgr@@@@8
rdata$r	ENDS
;	COMDAT ??_R3ioGuildChatMgr@@8
rdata$r	SEGMENT
??_R3ioGuildChatMgr@@8 DD 00H				; ioGuildChatMgr::`RTTI Class Hierarchy Descriptor'
	DD	00H
	DD	02H
	DD	FLAT:??_R2ioGuildChatMgr@@8
rdata$r	ENDS
;	COMDAT ??_R0?AVioGuildChatMgr@@@8
_DATA	SEGMENT
??_R0?AVioGuildChatMgr@@@8 DD FLAT:??_7type_info@@6B@	; ioGuildChatMgr `RTTI Type Descriptor'
	DD	00H
	DB	'.?AVioGuildChatMgr@@', 00H
_DATA	ENDS
;	COMDAT ??_R4ioGuildChatMgr@@6B@
rdata$r	SEGMENT
??_R4ioGuildChatMgr@@6B@ DD 00H				; ioGuildChatMgr::`RTTI Complete Object Locator'
	DD	00H
	DD	00H
	DD	FLAT:??_R0?AVioGuildChatMgr@@@8
	DD	FLAT:??_R3ioGuildChatMgr@@8
rdata$r	ENDS
;	COMDAT ??_7ioGuildChatMgr@@6B@
CONST	SEGMENT
??_7ioGuildChatMgr@@6B@ DD FLAT:??_R4ioGuildChatMgr@@6B@ ; ioGuildChatMgr::`vftable'
	DD	FLAT:??_EioGuildChatMgr@@UAEPAXI@Z
; Function compile flags: /Ogsp
; File d:\lost saga for developer\youtube\tutorial\source\src\lsclient\ioguildchatmgr.cpp
CONST	ENDS
;	COMDAT ??0ioGuildChatMgr@@QAE@XZ
_TEXT	SEGMENT
??0ioGuildChatMgr@@QAE@XZ PROC				; ioGuildChatMgr::ioGuildChatMgr, COMDAT
; _this$ = ecx

; 10   : {

  00000	8b c1		 mov	 eax, ecx
  00002	a3 00 00 00 00	 mov	 DWORD PTR ?ms_Singleton@?$Singleton@VioGuildChatMgr@@@@1PAVioGuildChatMgr@@A, eax ; Singleton<ioGuildChatMgr>::ms_Singleton
  00007	33 c9		 xor	 ecx, ecx
  00009	c7 00 00 00 00
	00		 mov	 DWORD PTR [eax], OFFSET ??_7ioGuildChatMgr@@6B@
  0000f	89 48 04	 mov	 DWORD PTR [eax+4], ecx
  00012	89 48 08	 mov	 DWORD PTR [eax+8], ecx
  00015	89 48 0c	 mov	 DWORD PTR [eax+12], ecx
  00018	88 48 14	 mov	 BYTE PTR [eax+20], cl

; 11   : 	m_dwSentenceIndexer = 0;

  0001b	89 48 18	 mov	 DWORD PTR [eax+24], ecx

; 12   : }

  0001e	c3		 ret	 0
??0ioGuildChatMgr@@QAE@XZ ENDP				; ioGuildChatMgr::ioGuildChatMgr
_TEXT	ENDS
PUBLIC	?ClearChatInfoList@ioGuildChatMgr@@QAEXXZ	; ioGuildChatMgr::ClearChatInfoList
; Function compile flags: /Ogsp
;	COMDAT ?ClearChatInfoList@ioGuildChatMgr@@QAEXXZ
_TEXT	SEGMENT
tv296 = -4						; size = 4
$T510021 = -4						; size = 4
?ClearChatInfoList@ioGuildChatMgr@@QAEXXZ PROC		; ioGuildChatMgr::ClearChatInfoList, COMDAT
; _this$ = ecx

; 25   : {

  00000	55		 push	 ebp
  00001	8b ec		 mov	 ebp, esp
  00003	51		 push	 ecx
  00004	53		 push	 ebx
  00005	56		 push	 esi
  00006	8b d9		 mov	 ebx, ecx

; 26   : 	vChatInfo_iter iter;
; 27   : 	for(iter = m_vChatInfo.begin();iter != m_vChatInfo.end();iter++)

  00008	8b 73 04	 mov	 esi, DWORD PTR [ebx+4]
  0000b	57		 push	 edi
  0000c	eb 1d		 jmp	 SHORT $LN76@ClearChatI
$LL25@ClearChatI:

; 28   : 	{
; 29   : 		SAFEDELETE( *iter );

  0000e	8b 0e		 mov	 ecx, DWORD PTR [esi]
  00010	89 4d fc	 mov	 DWORD PTR tv296[ebp], ecx
  00013	85 c9		 test	 ecx, ecx
  00015	74 11		 je	 SHORT $LN3@ClearChatI
  00017	e8 00 00 00 00	 call	 ??1tagChatInfo@@QAE@XZ
  0001c	ff 75 fc	 push	 DWORD PTR tv296[ebp]
  0001f	e8 00 00 00 00	 call	 ??3@YAXPAX@Z		; operator delete
  00024	83 26 00	 and	 DWORD PTR [esi], 0
  00027	59		 pop	 ecx
$LN3@ClearChatI:

; 26   : 	vChatInfo_iter iter;
; 27   : 	for(iter = m_vChatInfo.begin();iter != m_vChatInfo.end();iter++)

  00028	83 c6 04	 add	 esi, 4
$LN76@ClearChatI:
  0002b	3b 73 08	 cmp	 esi, DWORD PTR [ebx+8]
  0002e	75 de		 jne	 SHORT $LL25@ClearChatI

; 30   : 	}
; 31   : 	m_vChatInfo.clear();

  00030	8b 43 08	 mov	 eax, DWORD PTR [ebx+8]
  00033	8b 4b 04	 mov	 ecx, DWORD PTR [ebx+4]
  00036	50		 push	 eax
  00037	51		 push	 ecx
  00038	8d 45 fc	 lea	 eax, DWORD PTR $T510021[ebp]
  0003b	50		 push	 eax
  0003c	8d 4b 04	 lea	 ecx, DWORD PTR [ebx+4]
  0003f	e8 00 00 00 00	 call	 ?erase@?$vector@PAUtagChatInfo@@V?$allocator@PAUtagChatInfo@@@std@@@std@@QAE?AV?$_Vector_iterator@V?$_Vector_val@PAUtagChatInfo@@V?$allocator@PAUtagChatInfo@@@std@@@std@@@2@V?$_Vector_const_iterator@V?$_Vector_val@PAUtagChatInfo@@V?$allocator@PAUtagChatInfo@@@std@@@std@@@2@0@Z ; std::vector<tagChatInfo *,std::allocator<tagChatInfo *> >::erase
  00044	5f		 pop	 edi
  00045	5e		 pop	 esi
  00046	5b		 pop	 ebx

; 32   : }

  00047	c9		 leave
  00048	c3		 ret	 0
?ClearChatInfoList@ioGuildChatMgr@@QAEXXZ ENDP		; ioGuildChatMgr::ClearChatInfoList
_TEXT	ENDS
PUBLIC	?push_back@?$vector@PAUtagChatInfo@@V?$allocator@PAUtagChatInfo@@@std@@@std@@QAEXABQAUtagChatInfo@@@Z ; std::vector<tagChatInfo *,std::allocator<tagChatInfo *> >::push_back
; Function compile flags: /Ogsp
; File c:\program files (x86)\microsoft visual studio 10.0\vc\include\vector
;	COMDAT ?push_back@?$vector@PAUtagChatInfo@@V?$allocator@PAUtagChatInfo@@@std@@@std@@QAEXABQAUtagChatInfo@@@Z
_TEXT	SEGMENT
__Val$ = 8						; size = 4
?push_back@?$vector@PAUtagChatInfo@@V?$allocator@PAUtagChatInfo@@@std@@@std@@QAEXABQAUtagChatInfo@@@Z PROC ; std::vector<tagChatInfo *,std::allocator<tagChatInfo *> >::push_back, COMDAT
; _this$ = ecx

; 976  : 		{	// insert element at end

  00000	55		 push	 ebp
  00001	8b ec		 mov	 ebp, esp
  00003	56		 push	 esi
  00004	8b f1		 mov	 esi, ecx

; 977  : 		if (_Inside(_STD addressof(_Val)))

  00006	8b 46 04	 mov	 eax, DWORD PTR [esi+4]
  00009	57		 push	 edi
  0000a	8b 7d 08	 mov	 edi, DWORD PTR __Val$[ebp]
  0000d	3b f8		 cmp	 edi, eax
  0000f	73 27		 jae	 SHORT $LN4@push_back
  00011	8b 0e		 mov	 ecx, DWORD PTR [esi]
  00013	3b cf		 cmp	 ecx, edi
  00015	77 21		 ja	 SHORT $LN4@push_back

; 978  : 			{	// push back an element
; 979  : 			size_type _Idx = _STD addressof(_Val) - this->_Myfirst;

  00017	2b f9		 sub	 edi, ecx
  00019	c1 ff 02	 sar	 edi, 2

; 980  : 			if (this->_Mylast == this->_Myend)

  0001c	3b 46 08	 cmp	 eax, DWORD PTR [esi+8]
  0001f	75 09		 jne	 SHORT $LN3@push_back

; 981  : 				_Reserve(1);

  00021	6a 01		 push	 1
  00023	8b ce		 mov	 ecx, esi
  00025	e8 00 00 00 00	 call	 ?_Reserve@?$vector@PAUtagChatInfo@@V?$allocator@PAUtagChatInfo@@@std@@@std@@IAEXI@Z ; std::vector<tagChatInfo *,std::allocator<tagChatInfo *> >::_Reserve
$LN3@push_back:

; 982  : 			_Orphan_range(this->_Mylast, this->_Mylast);
; 983  : 			_Cons_val(this->_Alval,
; 984  : 				this->_Mylast,
; 985  : 				this->_Myfirst[_Idx]);

  0002a	8b 46 04	 mov	 eax, DWORD PTR [esi+4]
  0002d	85 c0		 test	 eax, eax
  0002f	74 20		 je	 SHORT $LN39@push_back
  00031	8b 0e		 mov	 ecx, DWORD PTR [esi]
  00033	8b 0c b9	 mov	 ecx, DWORD PTR [ecx+edi*4]

; 986  : 			++this->_Mylast;
; 987  : 			}
; 988  : 		else

  00036	eb 17		 jmp	 SHORT $LN46@push_back
$LN4@push_back:

; 989  : 			{	// push back a non-element
; 990  : 			if (this->_Mylast == this->_Myend)

  00038	3b 46 08	 cmp	 eax, DWORD PTR [esi+8]
  0003b	75 09		 jne	 SHORT $LN1@push_back

; 991  : 				_Reserve(1);

  0003d	6a 01		 push	 1
  0003f	8b ce		 mov	 ecx, esi
  00041	e8 00 00 00 00	 call	 ?_Reserve@?$vector@PAUtagChatInfo@@V?$allocator@PAUtagChatInfo@@@std@@@std@@IAEXI@Z ; std::vector<tagChatInfo *,std::allocator<tagChatInfo *> >::_Reserve
$LN1@push_back:

; 992  : 			_Orphan_range(this->_Mylast, this->_Mylast);
; 993  : 			_Cons_val(this->_Alval,
; 994  : 				this->_Mylast,
; 995  : 				_Val);

  00046	8b 46 04	 mov	 eax, DWORD PTR [esi+4]
  00049	85 c0		 test	 eax, eax
  0004b	74 04		 je	 SHORT $LN39@push_back
  0004d	8b 0f		 mov	 ecx, DWORD PTR [edi]
$LN46@push_back:
  0004f	89 08		 mov	 DWORD PTR [eax], ecx
$LN39@push_back:

; 996  : 			++this->_Mylast;

  00051	83 46 04 04	 add	 DWORD PTR [esi+4], 4
  00055	5f		 pop	 edi
  00056	5e		 pop	 esi

; 997  : 			}
; 998  : 		}

  00057	5d		 pop	 ebp
  00058	c2 04 00	 ret	 4
?push_back@?$vector@PAUtagChatInfo@@V?$allocator@PAUtagChatInfo@@@std@@@std@@QAEXABQAUtagChatInfo@@@Z ENDP ; std::vector<tagChatInfo *,std::allocator<tagChatInfo *> >::push_back
_TEXT	ENDS
PUBLIC	??Y?$basic_string@DU?$char_traits@D@std@@V?$allocator@D@2@@std@@QAEAAV01@ABV01@@Z ; std::basic_string<char,std::char_traits<char>,std::allocator<char> >::operator+=
; Function compile flags: /Ogsp
; File c:\program files (x86)\microsoft visual studio 10.0\vc\include\xstring
;	COMDAT ??Y?$basic_string@DU?$char_traits@D@std@@V?$allocator@D@2@@std@@QAEAAV01@ABV01@@Z
_TEXT	SEGMENT
__Right$ = 8						; size = 4
??Y?$basic_string@DU?$char_traits@D@std@@V?$allocator@D@2@@std@@QAEAAV01@ABV01@@Z PROC ; std::basic_string<char,std::char_traits<char>,std::allocator<char> >::operator+=, COMDAT
; _this$ = ecx

; 778  : 		{	// append _Right

  00000	55		 push	 ebp
  00001	8b ec		 mov	 ebp, esp

; 779  : 		return (append(_Right));

  00003	6a ff		 push	 -1
  00005	6a 00		 push	 0
  00007	ff 75 08	 push	 DWORD PTR __Right$[ebp]
  0000a	e8 00 00 00 00	 call	 ?append@?$basic_string@DU?$char_traits@D@std@@V?$allocator@D@2@@std@@QAEAAV12@ABV12@II@Z ; std::basic_string<char,std::char_traits<char>,std::allocator<char> >::append

; 780  : 		}

  0000f	5d		 pop	 ebp
  00010	c2 04 00	 ret	 4
??Y?$basic_string@DU?$char_traits@D@std@@V?$allocator@D@2@@std@@QAEAAV01@ABV01@@Z ENDP ; std::basic_string<char,std::char_traits<char>,std::allocator<char> >::operator+=
_TEXT	ENDS
PUBLIC	??Y?$basic_string@DU?$char_traits@D@std@@V?$allocator@D@2@@std@@QAEAAV01@PBD@Z ; std::basic_string<char,std::char_traits<char>,std::allocator<char> >::operator+=
; Function compile flags: /Ogsp
;	COMDAT ??Y?$basic_string@DU?$char_traits@D@std@@V?$allocator@D@2@@std@@QAEAAV01@PBD@Z
_TEXT	SEGMENT
__Ptr$ = 8						; size = 4
??Y?$basic_string@DU?$char_traits@D@std@@V?$allocator@D@2@@std@@QAEAAV01@PBD@Z PROC ; std::basic_string<char,std::char_traits<char>,std::allocator<char> >::operator+=, COMDAT
; _this$ = ecx

; 783  : 		{	// append [_Ptr, <null>)

  00000	55		 push	 ebp
  00001	8b ec		 mov	 ebp, esp

; 785  : 		}

  00003	5d		 pop	 ebp

; 784  : 		return (append(_Ptr));

  00004	e9 00 00 00 00	 jmp	 ?append@?$basic_string@DU?$char_traits@D@std@@V?$allocator@D@2@@std@@QAEAAV12@PBD@Z ; std::basic_string<char,std::char_traits<char>,std::allocator<char> >::append
??Y?$basic_string@DU?$char_traits@D@std@@V?$allocator@D@2@@std@@QAEAAV01@PBD@Z ENDP ; std::basic_string<char,std::char_traits<char>,std::allocator<char> >::operator+=
_TEXT	ENDS
PUBLIC	??1ioGuildChatMgr@@UAE@XZ			; ioGuildChatMgr::~ioGuildChatMgr
;	COMDAT xdata$x
; File d:\lost saga for developer\youtube\tutorial\source\src\io3dengine\iosingleton.h
xdata$x	SEGMENT
__unwindtable$??1ioGuildChatMgr@@UAE@XZ DD 0ffffffffH
	DD	FLAT:__unwindfunclet$??1ioGuildChatMgr@@UAE@XZ$0
	DD	00H
	DD	FLAT:__unwindfunclet$??1ioGuildChatMgr@@UAE@XZ$1
__ehfuncinfo$??1ioGuildChatMgr@@UAE@XZ DD 019930522H
	DD	02H
	DD	FLAT:__unwindtable$??1ioGuildChatMgr@@UAE@XZ
	DD	2 DUP(00H)
	DD	2 DUP(00H)
	DD	00H
	DD	01H
; Function compile flags: /Ogsp
; File d:\lost saga for developer\youtube\tutorial\source\src\lsclient\ioguildchatmgr.cpp
xdata$x	ENDS
;	COMDAT ??1ioGuildChatMgr@@UAE@XZ
_TEXT	SEGMENT
_this$ = -16						; size = 4
__$EHRec$ = -12						; size = 12
??1ioGuildChatMgr@@UAE@XZ PROC				; ioGuildChatMgr::~ioGuildChatMgr, COMDAT
; _this$ = ecx

; 15   : {

  00000	6a 04		 push	 4
  00002	b8 00 00 00 00	 mov	 eax, __ehhandler$??1ioGuildChatMgr@@UAE@XZ
  00007	e8 00 00 00 00	 call	 __EH_prolog3
  0000c	8b f1		 mov	 esi, ecx
  0000e	89 75 f0	 mov	 DWORD PTR _this$[ebp], esi
  00011	c7 06 00 00 00
	00		 mov	 DWORD PTR [esi], OFFSET ??_7ioGuildChatMgr@@6B@
  00017	c7 45 fc 01 00
	00 00		 mov	 DWORD PTR __$EHRec$[ebp+8], 1

; 16   : 	ClearChatInfoList();

  0001e	e8 00 00 00 00	 call	 ?ClearChatInfoList@ioGuildChatMgr@@QAEXXZ ; ioGuildChatMgr::ClearChatInfoList

; 17   : }

  00023	8d 4e 04	 lea	 ecx, DWORD PTR [esi+4]
  00026	c6 45 fc 00	 mov	 BYTE PTR __$EHRec$[ebp+8], 0
  0002a	e8 00 00 00 00	 call	 ?_Tidy@?$vector@PAUtagChatInfo@@V?$allocator@PAUtagChatInfo@@@std@@@std@@IAEXXZ ; std::vector<tagChatInfo *,std::allocator<tagChatInfo *> >::_Tidy
  0002f	83 25 00 00 00
	00 00		 and	 DWORD PTR ?ms_Singleton@?$Singleton@VioGuildChatMgr@@@@1PAVioGuildChatMgr@@A, 0 ; Singleton<ioGuildChatMgr>::ms_Singleton
  00036	e8 00 00 00 00	 call	 __EH_epilog3
  0003b	c3		 ret	 0
_TEXT	ENDS
;	COMDAT text$x
text$x	SEGMENT
__unwindfunclet$??1ioGuildChatMgr@@UAE@XZ$0:
  00000	8b 4d f0	 mov	 ecx, DWORD PTR _this$[ebp]
  00003	83 c1 04	 add	 ecx, 4
  00006	e9 00 00 00 00	 jmp	 ??1?$Singleton@VioGuildChatMgr@@@@QAE@XZ ; Singleton<ioGuildChatMgr>::~Singleton<ioGuildChatMgr>
__unwindfunclet$??1ioGuildChatMgr@@UAE@XZ$1:
  0000b	8b 4d f0	 mov	 ecx, DWORD PTR _this$[ebp]
  0000e	83 c1 04	 add	 ecx, 4
  00011	e9 00 00 00 00	 jmp	 ??1?$vector@PAUtagChatInfo@@V?$allocator@PAUtagChatInfo@@@std@@@std@@QAE@XZ ; std::vector<tagChatInfo *,std::allocator<tagChatInfo *> >::~vector<tagChatInfo *,std::allocator<tagChatInfo *> >
__ehhandler$??1ioGuildChatMgr@@UAE@XZ:
  00016	8b 54 24 08	 mov	 edx, DWORD PTR [esp+8]
  0001a	8d 42 0c	 lea	 eax, DWORD PTR [edx+12]
  0001d	8b 4a ec	 mov	 ecx, DWORD PTR [edx-20]
  00020	33 c8		 xor	 ecx, eax
  00022	e8 00 00 00 00	 call	 @__security_check_cookie@4
  00027	b8 00 00 00 00	 mov	 eax, OFFSET __ehfuncinfo$??1ioGuildChatMgr@@UAE@XZ
  0002c	e9 00 00 00 00	 jmp	 ___CxxFrameHandler3
text$x	ENDS
??1ioGuildChatMgr@@UAE@XZ ENDP				; ioGuildChatMgr::~ioGuildChatMgr
PUBLIC	?SetChatInfo@ioGuildChatMgr@@QAEXAAVioComplexStringPrinter@@PBD_N@Z ; ioGuildChatMgr::SetChatInfo
EXTRN	?sg_bMessenger@MessengerBtn@@2_NA:BYTE		; MessengerBtn::sg_bMessenger
EXTRN	?SetFullTextColor@ioComplexStringPrinter@@QAEXK@Z:PROC ; ioComplexStringPrinter::SetFullTextColor
EXTRN	__imp_??4ioHashString@@QAEAAV0@PBD@Z:PROC
EXTRN	?CopyFullText@ioComplexStringPrinter@@QBEXAAV1@@Z:PROC ; ioComplexStringPrinter::CopyFullText
;	COMDAT xdata$x
xdata$x	SEGMENT
__unwindtable$?SetChatInfo@ioGuildChatMgr@@QAEXAAVioComplexStringPrinter@@PBD_N@Z DD 0ffffffffH
	DD	FLAT:__unwindfunclet$?SetChatInfo@ioGuildChatMgr@@QAEXAAVioComplexStringPrinter@@PBD_N@Z$0
__ehfuncinfo$?SetChatInfo@ioGuildChatMgr@@QAEXAAVioComplexStringPrinter@@PBD_N@Z DD 019930522H
	DD	01H
	DD	FLAT:__unwindtable$?SetChatInfo@ioGuildChatMgr@@QAEXAAVioComplexStringPrinter@@PBD_N@Z
	DD	2 DUP(00H)
	DD	2 DUP(00H)
	DD	00H
	DD	01H
; Function compile flags: /Ogsp
xdata$x	ENDS
;	COMDAT ?SetChatInfo@ioGuildChatMgr@@QAEXAAVioComplexStringPrinter@@PBD_N@Z
_TEXT	SEGMENT
$T510181 = -16						; size = 4
_pChatNode$ = -16					; size = 4
__$EHRec$ = -12						; size = 12
_szChat$ = 8						; size = 4
_szID$ = 12						; size = 4
_bFirst$ = 16						; size = 1
?SetChatInfo@ioGuildChatMgr@@QAEXAAVioComplexStringPrinter@@PBD_N@Z PROC ; ioGuildChatMgr::SetChatInfo, COMDAT
; _this$ = ecx

; 86   : {

  00000	6a 04		 push	 4
  00002	b8 00 00 00 00	 mov	 eax, __ehhandler$?SetChatInfo@ioGuildChatMgr@@QAEXAAVioComplexStringPrinter@@PBD_N@Z
  00007	e8 00 00 00 00	 call	 __EH_prolog3
  0000c	8b f9		 mov	 edi, ecx

; 87   : 	ChatInfo *pChatNode = new ChatInfo;

  0000e	6a 58		 push	 88			; 00000058H
  00010	e8 00 00 00 00	 call	 ??2@YAPAXI@Z		; operator new
  00015	59		 pop	 ecx
  00016	8b c8		 mov	 ecx, eax
  00018	89 4d f0	 mov	 DWORD PTR $T510181[ebp], ecx
  0001b	83 65 fc 00	 and	 DWORD PTR __$EHRec$[ebp+8], 0
  0001f	85 c9		 test	 ecx, ecx
  00021	74 09		 je	 SHORT $LN4@SetChatInf
  00023	e8 00 00 00 00	 call	 ??0tagChatInfo@@QAE@XZ	; tagChatInfo::tagChatInfo
  00028	8b f0		 mov	 esi, eax
  0002a	eb 02		 jmp	 SHORT $LN5@SetChatInf
$LN4@SetChatInf:
  0002c	33 f6		 xor	 esi, esi
$LN5@SetChatInf:
  0002e	83 4d fc ff	 or	 DWORD PTR __$EHRec$[ebp+8], -1
  00032	89 75 f0	 mov	 DWORD PTR _pChatNode$[ebp], esi

; 88   : 	if( !pChatNode ) return;

  00035	85 f6		 test	 esi, esi
  00037	74 50		 je	 SHORT $LN2@SetChatInf

; 89   : 
; 90   : 	pChatNode->m_Index  = m_dwSentenceIndexer;

  00039	8b 47 18	 mov	 eax, DWORD PTR [edi+24]

; 91   : 	pChatNode->m_bFirst = bFirst;
; 92   : 	szChat.CopyFullText( pChatNode->m_Printer );

  0003c	8b 4d 08	 mov	 ecx, DWORD PTR _szChat$[ebp]
  0003f	89 46 50	 mov	 DWORD PTR [esi+80], eax
  00042	8a 45 10	 mov	 al, BYTE PTR _bFirst$[ebp]
  00045	56		 push	 esi
  00046	88 46 54	 mov	 BYTE PTR [esi+84], al
  00049	e8 00 00 00 00	 call	 ?CopyFullText@ioComplexStringPrinter@@QBEXAAV1@@Z ; ioComplexStringPrinter::CopyFullText

; 93   : 	szChat.CopyFullText( pChatNode->m_OverPrinter );

  0004e	8b 4d 08	 mov	 ecx, DWORD PTR _szChat$[ebp]
  00051	8d 5e 20	 lea	 ebx, DWORD PTR [esi+32]
  00054	53		 push	 ebx
  00055	e8 00 00 00 00	 call	 ?CopyFullText@ioComplexStringPrinter@@QBEXAAV1@@Z ; ioComplexStringPrinter::CopyFullText

; 94   : 	pChatNode->m_szID = szID;

  0005a	ff 75 0c	 push	 DWORD PTR _szID$[ebp]
  0005d	8d 4e 40	 lea	 ecx, DWORD PTR [esi+64]
  00060	ff 15 00 00 00
	00		 call	 DWORD PTR __imp_??4ioHashString@@QAEAAV0@PBD@Z

; 95   : 	pChatNode->m_OverPrinter.SetFullTextColor( 0xCE4E00 );    // 

  00066	68 00 4e ce 00	 push	 13520384		; 00ce4e00H
  0006b	8b cb		 mov	 ecx, ebx
  0006d	e8 00 00 00 00	 call	 ?SetFullTextColor@ioComplexStringPrinter@@QAEXK@Z ; ioComplexStringPrinter::SetFullTextColor

; 96   : 
; 97   : 	m_vChatInfo.push_back( pChatNode );

  00072	8d 45 f0	 lea	 eax, DWORD PTR _pChatNode$[ebp]
  00075	50		 push	 eax
  00076	8d 4f 04	 lea	 ecx, DWORD PTR [edi+4]
  00079	e8 00 00 00 00	 call	 ?push_back@?$vector@PAUtagChatInfo@@V?$allocator@PAUtagChatInfo@@@std@@@std@@QAEXABQAUtagChatInfo@@@Z ; std::vector<tagChatInfo *,std::allocator<tagChatInfo *> >::push_back

; 98   : 	m_bUpdate = true;

  0007e	c6 47 14 01	 mov	 BYTE PTR [edi+20], 1

; 99   : 	MessengerBtn::sg_bMessenger = true;	

  00082	c6 05 00 00 00
	00 01		 mov	 BYTE PTR ?sg_bMessenger@MessengerBtn@@2_NA, 1 ; MessengerBtn::sg_bMessenger
$LN2@SetChatInf:

; 100  : }

  00089	e8 00 00 00 00	 call	 __EH_epilog3
  0008e	c2 0c 00	 ret	 12			; 0000000cH
_TEXT	ENDS
;	COMDAT text$x
text$x	SEGMENT
__unwindfunclet$?SetChatInfo@ioGuildChatMgr@@QAEXAAVioComplexStringPrinter@@PBD_N@Z$0:
  00000	ff 75 f0	 push	 DWORD PTR $T510181[ebp]
  00003	e8 00 00 00 00	 call	 ??3@YAXPAX@Z		; operator delete
  00008	59		 pop	 ecx
  00009	c3		 ret	 0
__ehhandler$?SetChatInfo@ioGuildChatMgr@@QAEXAAVioComplexStringPrinter@@PBD_N@Z:
  0000a	8b 54 24 08	 mov	 edx, DWORD PTR [esp+8]
  0000e	8d 42 0c	 lea	 eax, DWORD PTR [edx+12]
  00011	8b 4a ec	 mov	 ecx, DWORD PTR [edx-20]
  00014	33 c8		 xor	 ecx, eax
  00016	e8 00 00 00 00	 call	 @__security_check_cookie@4
  0001b	b8 00 00 00 00	 mov	 eax, OFFSET __ehfuncinfo$?SetChatInfo@ioGuildChatMgr@@QAEXAAVioComplexStringPrinter@@PBD_N@Z
  00020	e9 00 00 00 00	 jmp	 ___CxxFrameHandler3
text$x	ENDS
?SetChatInfo@ioGuildChatMgr@@QAEXAAVioComplexStringPrinter@@PBD_N@Z ENDP ; ioGuildChatMgr::SetChatInfo
PUBLIC	??_C@_01EEMJAFIK@?6?$AA@			; `string'
PUBLIC	_rkChatList$GSCopy$
PUBLIC	?GetMannerTrialChat@ioGuildChatMgr@@QAEXAAVioHashString@@@Z ; ioGuildChatMgr::GetMannerTrialChat
EXTRN	?CopyOnlyText@ioComplexStringPrinter@@QBEXAAV?$basic_string@DU?$char_traits@D@std@@V?$allocator@D@2@@std@@@Z:PROC ; ioComplexStringPrinter::CopyOnlyText
;	COMDAT ??_C@_01EEMJAFIK@?6?$AA@
; File c:\program files (x86)\microsoft visual studio 10.0\vc\include\xstring
CONST	SEGMENT
??_C@_01EEMJAFIK@?6?$AA@ DB 0aH, 00H			; `string'
CONST	ENDS
;	COMDAT xdata$x
xdata$x	SEGMENT
__unwindtable$?GetMannerTrialChat@ioGuildChatMgr@@QAEXAAVioHashString@@@Z DD 0ffffffffH
	DD	FLAT:__unwindfunclet$?GetMannerTrialChat@ioGuildChatMgr@@QAEXAAVioHashString@@@Z$0
	DD	00H
	DD	FLAT:__unwindfunclet$?GetMannerTrialChat@ioGuildChatMgr@@QAEXAAVioHashString@@@Z$1
__ehfuncinfo$?GetMannerTrialChat@ioGuildChatMgr@@QAEXAAVioHashString@@@Z DD 019930522H
	DD	02H
	DD	FLAT:__unwindtable$?GetMannerTrialChat@ioGuildChatMgr@@QAEXAAVioHashString@@@Z
	DD	2 DUP(00H)
	DD	2 DUP(00H)
	DD	00H
	DD	01H
; Function compile flags: /Ogsp
; File d:\lost saga for developer\youtube\tutorial\source\src\lsclient\ioguildchatmgr.cpp
xdata$x	ENDS
;	COMDAT ?GetMannerTrialChat@ioGuildChatMgr@@QAEXAAVioHashString@@@Z
_TEXT	SEGMENT
_rkChatList$GSCopy$ = -80				; size = 4
_i$507409 = -76						; size = 4
_szLine$507416 = -72					; size = 28
_szMerge$ = -44						; size = 28
__$EHRec$ = -12						; size = 12
_rkChatList$ = 8					; size = 4
?GetMannerTrialChat@ioGuildChatMgr@@QAEXAAVioHashString@@@Z PROC ; ioGuildChatMgr::GetMannerTrialChat, COMDAT
; _this$ = ecx

; 130  : {

  00000	6a 44		 push	 68			; 00000044H
  00002	b8 00 00 00 00	 mov	 eax, __ehhandler$?GetMannerTrialChat@ioGuildChatMgr@@QAEXAAVioHashString@@@Z
  00007	e8 00 00 00 00	 call	 __EH_prolog3_GS
  0000c	8b 45 08	 mov	 eax, DWORD PTR _rkChatList$[ebp]

; 131  : 	std::string szMerge;

  0000f	33 db		 xor	 ebx, ebx
  00011	8b f9		 mov	 edi, ecx

; 154  : }

  00013	89 45 b0	 mov	 DWORD PTR _rkChatList$GSCopy$[ebp], eax
  00016	c7 45 e8 0f 00
	00 00		 mov	 DWORD PTR _szMerge$[ebp+20], 15 ; 0000000fH
  0001d	89 5d e4	 mov	 DWORD PTR _szMerge$[ebp+16], ebx
  00020	88 5d d4	 mov	 BYTE PTR _szMerge$[ebp], bl
  00023	8b 77 08	 mov	 esi, DWORD PTR [edi+8]
  00026	2b 77 04	 sub	 esi, DWORD PTR [edi+4]
  00029	33 c0		 xor	 eax, eax
  0002b	c1 fe 02	 sar	 esi, 2
  0002e	89 5d fc	 mov	 DWORD PTR __$EHRec$[ebp+8], ebx
  00031	83 fe 14	 cmp	 esi, 20			; 00000014H
  00034	7e 03		 jle	 SHORT $LN7@GetMannerT

; 132  : 
; 133  : 	enum { MAX_CHECK_CHAT = 20, };
; 134  : 
; 135  : 	int iSize = GetChatInfoSize();
; 136  : 	int iStart = 0;
; 137  : 	if( iSize > MAX_CHECK_CHAT )
; 138  : 		iStart = iSize - MAX_CHECK_CHAT;

  00036	8d 46 ec	 lea	 eax, DWORD PTR [esi-20]
$LN7@GetMannerT:

; 139  : 
; 140  : 	for( int i = iStart; i < iSize; i++ )

  00039	89 45 b4	 mov	 DWORD PTR _i$507409[ebp], eax
  0003c	3b c6		 cmp	 eax, esi
  0003e	0f 8d 81 00 00
	00		 jge	 $LN1@GetMannerT
$LN6@GetMannerT:

; 141  : 	{
; 142  : 		ChatInfo *pChatInfo = GetChatInfo( i );

  00044	ff 75 b4	 push	 DWORD PTR _i$507409[ebp]
  00047	8b cf		 mov	 ecx, edi
  00049	e8 00 00 00 00	 call	 ?GetChatInfo@ioGuildChatMgr@@QAEPAUtagChatInfo@@H@Z ; ioGuildChatMgr::GetChatInfo

; 143  : 		if( !pChatInfo ) continue;

  0004e	3b c3		 cmp	 eax, ebx
  00050	74 50		 je	 SHORT $LN5@GetMannerT

; 144  : 		if( pChatInfo->m_Printer.IsEmpty() ) continue;

  00052	8b 48 0c	 mov	 ecx, DWORD PTR [eax+12]
  00055	3b 48 10	 cmp	 ecx, DWORD PTR [eax+16]
  00058	74 48		 je	 SHORT $LN5@GetMannerT

; 145  : 
; 146  : 		std::string szLine;

  0005a	c7 45 cc 0f 00
	00 00		 mov	 DWORD PTR _szLine$507416[ebp+20], 15 ; 0000000fH
  00061	89 5d c8	 mov	 DWORD PTR _szLine$507416[ebp+16], ebx
  00064	88 5d b8	 mov	 BYTE PTR _szLine$507416[ebp], bl

; 147  : 		pChatInfo->m_Printer.CopyOnlyText( szLine );

  00067	8d 4d b8	 lea	 ecx, DWORD PTR _szLine$507416[ebp]
  0006a	51		 push	 ecx
  0006b	8b c8		 mov	 ecx, eax
  0006d	c6 45 fc 01	 mov	 BYTE PTR __$EHRec$[ebp+8], 1
  00071	e8 00 00 00 00	 call	 ?CopyOnlyText@ioComplexStringPrinter@@QBEXAAV?$basic_string@DU?$char_traits@D@std@@V?$allocator@D@2@@std@@@Z ; ioComplexStringPrinter::CopyOnlyText

; 148  : 		szMerge += szLine;

  00076	6a ff		 push	 -1
  00078	53		 push	 ebx
  00079	8d 45 b8	 lea	 eax, DWORD PTR _szLine$507416[ebp]
  0007c	50		 push	 eax
  0007d	8d 4d d4	 lea	 ecx, DWORD PTR _szMerge$[ebp]
  00080	e8 00 00 00 00	 call	 ?append@?$basic_string@DU?$char_traits@D@std@@V?$allocator@D@2@@std@@QAEAAV12@ABV12@II@Z ; std::basic_string<char,std::char_traits<char>,std::allocator<char> >::append

; 149  : 		szMerge += "\n";

  00085	6a 01		 push	 1
  00087	68 00 00 00 00	 push	 OFFSET ??_C@_01EEMJAFIK@?6?$AA@
  0008c	8d 4d d4	 lea	 ecx, DWORD PTR _szMerge$[ebp]
  0008f	e8 00 00 00 00	 call	 ?append@?$basic_string@DU?$char_traits@D@std@@V?$allocator@D@2@@std@@QAEAAV12@PBDI@Z ; std::basic_string<char,std::char_traits<char>,std::allocator<char> >::append

; 150  : 	}

  00094	53		 push	 ebx
  00095	6a 01		 push	 1
  00097	8d 4d b8	 lea	 ecx, DWORD PTR _szLine$507416[ebp]
  0009a	88 5d fc	 mov	 BYTE PTR __$EHRec$[ebp+8], bl
  0009d	e8 00 00 00 00	 call	 ?_Tidy@?$basic_string@DU?$char_traits@D@std@@V?$allocator@D@2@@std@@QAEX_NI@Z ; std::basic_string<char,std::char_traits<char>,std::allocator<char> >::_Tidy
$LN5@GetMannerT:

; 139  : 
; 140  : 	for( int i = iStart; i < iSize; i++ )

  000a2	ff 45 b4	 inc	 DWORD PTR _i$507409[ebp]
  000a5	39 75 b4	 cmp	 DWORD PTR _i$507409[ebp], esi
  000a8	7c 9a		 jl	 SHORT $LN6@GetMannerT

; 151  : 
; 152  : 	if( !szMerge.empty())

  000aa	39 5d e4	 cmp	 DWORD PTR _szMerge$[ebp+16], ebx
  000ad	74 16		 je	 SHORT $LN1@GetMannerT

; 153  : 		rkChatList = szMerge.c_str();

  000af	83 7d e8 10	 cmp	 DWORD PTR _szMerge$[ebp+20], 16 ; 00000010H
  000b3	8b 45 d4	 mov	 eax, DWORD PTR _szMerge$[ebp]
  000b6	73 03		 jae	 SHORT $LN93@GetMannerT
  000b8	8d 45 d4	 lea	 eax, DWORD PTR _szMerge$[ebp]
$LN93@GetMannerT:
  000bb	8b 4d b0	 mov	 ecx, DWORD PTR _rkChatList$GSCopy$[ebp]
  000be	50		 push	 eax
  000bf	ff 15 00 00 00
	00		 call	 DWORD PTR __imp_??4ioHashString@@QAEAAV0@PBD@Z
$LN1@GetMannerT:

; 154  : }

  000c5	53		 push	 ebx
  000c6	6a 01		 push	 1
  000c8	8d 4d d4	 lea	 ecx, DWORD PTR _szMerge$[ebp]
  000cb	e8 00 00 00 00	 call	 ?_Tidy@?$basic_string@DU?$char_traits@D@std@@V?$allocator@D@2@@std@@QAEX_NI@Z ; std::basic_string<char,std::char_traits<char>,std::allocator<char> >::_Tidy
  000d0	e8 00 00 00 00	 call	 __EH_epilog3_GS
  000d5	c2 04 00	 ret	 4
_TEXT	ENDS
;	COMDAT text$x
text$x	SEGMENT
__unwindfunclet$?GetMannerTrialChat@ioGuildChatMgr@@QAEXAAVioHashString@@@Z$0:
  00000	8d 4d d4	 lea	 ecx, DWORD PTR _szMerge$[ebp]
  00003	e9 00 00 00 00	 jmp	 ??1?$basic_string@DU?$char_traits@D@std@@V?$allocator@D@2@@std@@QAE@XZ ; std::basic_string<char,std::char_traits<char>,std::allocator<char> >::~basic_string<char,std::char_traits<char>,std::allocator<char> >
__unwindfunclet$?GetMannerTrialChat@ioGuildChatMgr@@QAEXAAVioHashString@@@Z$1:
  00008	8d 4d b8	 lea	 ecx, DWORD PTR _szLine$507416[ebp]
  0000b	e9 00 00 00 00	 jmp	 ??1?$basic_string@DU?$char_traits@D@std@@V?$allocator@D@2@@std@@QAE@XZ ; std::basic_string<char,std::char_traits<char>,std::allocator<char> >::~basic_string<char,std::char_traits<char>,std::allocator<char> >
__ehhandler$?GetMannerTrialChat@ioGuildChatMgr@@QAEXAAVioHashString@@@Z:
  00010	8b 54 24 08	 mov	 edx, DWORD PTR [esp+8]
  00014	8d 42 0c	 lea	 eax, DWORD PTR [edx+12]
  00017	8b 4a ac	 mov	 ecx, DWORD PTR [edx-84]
  0001a	33 c8		 xor	 ecx, eax
  0001c	e8 00 00 00 00	 call	 @__security_check_cookie@4
  00021	8b 4a fc	 mov	 ecx, DWORD PTR [edx-4]
  00024	33 c8		 xor	 ecx, eax
  00026	e8 00 00 00 00	 call	 @__security_check_cookie@4
  0002b	b8 00 00 00 00	 mov	 eax, OFFSET __ehfuncinfo$?GetMannerTrialChat@ioGuildChatMgr@@QAEXAAVioHashString@@@Z
  00030	e9 00 00 00 00	 jmp	 ___CxxFrameHandler3
text$x	ENDS
?GetMannerTrialChat@ioGuildChatMgr@@QAEXAAVioHashString@@@Z ENDP ; ioGuildChatMgr::GetMannerTrialChat
PUBLIC	__real@43848000
PUBLIC	__real@3f19999a
PUBLIC	??_C@_0BM@ICIMEFBN@ioGuildChatMgr?3?3AddAnnounce?$AA@ ; `string'
PUBLIC	??_C@_00CNPNBAHC@?$AA@				; `string'
PUBLIC	_this$GSCopy$
PUBLIC	?AddAnnounce@ioGuildChatMgr@@QAEXVioHashString@@@Z ; ioGuildChatMgr::AddAnnounce
EXTRN	?StringCutFun@Help@@YAHMMHPADHPBD@Z:PROC	; Help::StringCutFun
EXTRN	?AddTextPiece@ioComplexStringPrinter@@QAAXMPBDZZ:PROC ; ioComplexStringPrinter::AddTextPiece
EXTRN	?SetTextColor@ioComplexStringPrinter@@QAEXK@Z:PROC ; ioComplexStringPrinter::SetTextColor
EXTRN	__imp_?GetTextWidth@ioFontManager@@QAEMPBDW4TextStyle@@MH@Z:PROC
EXTRN	__imp_?GetSingleton@ioFontManager@@SAAAV1@XZ:PROC
EXTRN	__imp_?SafeSprintf@@YAXPADHPBD1@Z:PROC
EXTRN	__imp_?GetString@ioStringManager@@QAEPADPBD0HW4FileNamePrefix@1@@Z:PROC
EXTRN	__imp_?GetSingleton@ioStringManager@@SAAAV1@XZ:PROC
EXTRN	?SetBkColor@ioComplexStringPrinter@@QAEXHHH@Z:PROC ; ioComplexStringPrinter::SetBkColor
EXTRN	?SetTextStyle@ioComplexStringPrinter@@QAEXW4TextStyle@@@Z:PROC ; ioComplexStringPrinter::SetTextStyle
EXTRN	__fltused:DWORD
;	COMDAT __real@43848000
CONST	SEGMENT
__real@43848000 DD 043848000r			; 265
CONST	ENDS
;	COMDAT __real@3f19999a
CONST	SEGMENT
__real@3f19999a DD 03f19999ar			; 0.6
CONST	ENDS
;	COMDAT ??_C@_0BM@ICIMEFBN@ioGuildChatMgr?3?3AddAnnounce?$AA@
CONST	SEGMENT
??_C@_0BM@ICIMEFBN@ioGuildChatMgr?3?3AddAnnounce?$AA@ DB 'ioGuildChatMgr:'
	DB	':AddAnnounce', 00H				; `string'
CONST	ENDS
;	COMDAT ??_C@_00CNPNBAHC@?$AA@
CONST	SEGMENT
??_C@_00CNPNBAHC@?$AA@ DB 00H				; `string'
CONST	ENDS
;	COMDAT xdata$x
xdata$x	SEGMENT
__unwindtable$?AddAnnounce@ioGuildChatMgr@@QAEXVioHashString@@@Z DD 0ffffffffH
	DD	FLAT:__unwindfunclet$?AddAnnounce@ioGuildChatMgr@@QAEXVioHashString@@@Z$0
	DD	00H
	DD	FLAT:__unwindfunclet$?AddAnnounce@ioGuildChatMgr@@QAEXVioHashString@@@Z$1
__ehfuncinfo$?AddAnnounce@ioGuildChatMgr@@QAEXVioHashString@@@Z DD 019930522H
	DD	02H
	DD	FLAT:__unwindtable$?AddAnnounce@ioGuildChatMgr@@QAEXVioHashString@@@Z
	DD	2 DUP(00H)
	DD	2 DUP(00H)
	DD	00H
	DD	01H
; Function compile flags: /Ogsp
xdata$x	ENDS
;	COMDAT ?AddAnnounce@ioGuildChatMgr@@QAEXVioHashString@@@Z
_TEXT	SEGMENT
_kPrinter$ = -584					; size = 32
tv199 = -552						; size = 4
_this$GSCopy$ = -548					; size = 4
_bFirst$507448 = -544					; size = 1
_iResult$507447 = -540					; size = 4
_szDstChat$507452 = -536				; size = 260
_szSrcChat$ = -276					; size = 260
__$EHRec$ = -12						; size = 12
_szAnnounce$ = 8					; size = 16
?AddAnnounce@ioGuildChatMgr@@QAEXVioHashString@@@Z PROC	; ioGuildChatMgr::AddAnnounce, COMDAT
; _this$ = ecx

; 173  : {

  00000	68 3c 02 00 00	 push	 572			; 0000023cH
  00005	b8 00 00 00 00	 mov	 eax, __ehhandler$?AddAnnounce@ioGuildChatMgr@@QAEXVioHashString@@@Z
  0000a	e8 00 00 00 00	 call	 __EH_prolog3_GS
  0000f	8b c1		 mov	 eax, ecx

; 201  : 		{
; 202  : 			char szDstChat[MAX_PATH];
; 203  : 			memset( szDstChat, 0, sizeof( szDstChat ) );

  00011	89 85 dc fd ff
	ff		 mov	 DWORD PTR _this$GSCopy$[ebp], eax
  00017	33 db		 xor	 ebx, ebx
  00019	ff 40 18	 inc	 DWORD PTR [eax+24]
  0001c	8d 8d b8 fd ff
	ff		 lea	 ecx, DWORD PTR _kPrinter$[ebp]
  00022	89 5d fc	 mov	 DWORD PTR __$EHRec$[ebp+8], ebx
  00025	c6 05 00 00 00
	00 01		 mov	 BYTE PTR ?sg_bMessenger@MessengerBtn@@2_NA, 1 ; MessengerBtn::sg_bMessenger
  0002c	e8 00 00 00 00	 call	 ??0ioComplexStringPrinter@@QAE@XZ ; ioComplexStringPrinter::ioComplexStringPrinter
  00031	53		 push	 ebx
  00032	8d 8d b8 fd ff
	ff		 lea	 ecx, DWORD PTR _kPrinter$[ebp]
  00038	c6 45 fc 01	 mov	 BYTE PTR __$EHRec$[ebp+8], 1
  0003c	e8 00 00 00 00	 call	 ?SetTextStyle@ioComplexStringPrinter@@QAEXW4TextStyle@@@Z ; ioComplexStringPrinter::SetTextStyle
  00041	53		 push	 ebx
  00042	53		 push	 ebx
  00043	53		 push	 ebx
  00044	8d 8d b8 fd ff
	ff		 lea	 ecx, DWORD PTR _kPrinter$[ebp]
  0004a	e8 00 00 00 00	 call	 ?SetBkColor@ioComplexStringPrinter@@QAEXHHH@Z ; ioComplexStringPrinter::SetBkColor
  0004f	8d 4d 08	 lea	 ecx, DWORD PTR _szAnnounce$[ebp]
  00052	ff 15 00 00 00
	00		 call	 DWORD PTR __imp_?c_str@ioHashString@@QBEPBDXZ
  00058	50		 push	 eax
  00059	53		 push	 ebx
  0005a	6a 01		 push	 1
  0005c	bf 00 00 00 00	 mov	 edi, OFFSET ??_C@_00CNPNBAHC@?$AA@
  00061	57		 push	 edi
  00062	68 00 00 00 00	 push	 OFFSET ??_C@_0BM@ICIMEFBN@ioGuildChatMgr?3?3AddAnnounce?$AA@
  00067	ff 15 00 00 00
	00		 call	 DWORD PTR __imp_?GetSingleton@ioStringManager@@SAAAV1@XZ
  0006d	8b c8		 mov	 ecx, eax
  0006f	ff 15 00 00 00
	00		 call	 DWORD PTR __imp_?GetString@ioStringManager@@QAEPADPBD0HW4FileNamePrefix@1@@Z
  00075	50		 push	 eax
  00076	be 04 01 00 00	 mov	 esi, 260		; 00000104H
  0007b	8d 85 ec fe ff
	ff		 lea	 eax, DWORD PTR _szSrcChat$[ebp]
  00081	56		 push	 esi
  00082	50		 push	 eax
  00083	ff 15 00 00 00
	00		 call	 DWORD PTR __imp_?SafeSprintf@@YAXPADHPBD1@Z
  00089	f3 0f 10 05 00
	00 00 00	 movss	 xmm0, DWORD PTR __real@3f19999a
  00091	83 c4 10	 add	 esp, 16			; 00000010H
  00094	53		 push	 ebx
  00095	51		 push	 ecx
  00096	f3 0f 11 04 24	 movss	 DWORD PTR [esp], xmm0
  0009b	8d 85 ec fe ff
	ff		 lea	 eax, DWORD PTR _szSrcChat$[ebp]
  000a1	53		 push	 ebx
  000a2	50		 push	 eax
  000a3	ff 15 00 00 00
	00		 call	 DWORD PTR __imp_?GetSingleton@ioFontManager@@SAAAV1@XZ
  000a9	8b c8		 mov	 ecx, eax
  000ab	ff 15 00 00 00
	00		 call	 DWORD PTR __imp_?GetTextWidth@ioFontManager@@QAEMPBDW4TextStyle@@MH@Z
  000b1	d9 05 00 00 00
	00		 fld	 DWORD PTR __real@43848000
  000b7	df f1		 fcomip	 ST(1)
  000b9	dd d8		 fstp	 ST(0)
  000bb	76 4e		 jbe	 SHORT $LN4@AddAnnounc

; 174  : 	AddSentenceIndex();
; 175  : 
; 176  : 	MessengerBtn::sg_bMessenger = true;	
; 177  : 
; 178  : 	const float fScale = FONT_SIZE_12;
; 179  : 	const float fWidhtSize = 265.0f;
; 180  : 
; 181  : 	ioComplexStringPrinter kPrinter;
; 182  : 	kPrinter.SetTextStyle( TS_NORMAL );
; 183  : 	kPrinter.SetBkColor( 0, 0, 0 );
; 184  : 
; 185  : 	char szSrcChat[MAX_PATH];
; 186  : 	SafeSprintf( szSrcChat, sizeof( szSrcChat ), STR(1), szAnnounce.c_str() );
; 187  : 
; 188  : 	// 1  .
; 189  : 	if( g_FontMgr.GetTextWidth( szSrcChat, TS_NORMAL, fScale ) < fWidhtSize )
; 190  : 	{		
; 191  : 		kPrinter.SetTextColor( TCT_DEFAULT_GRAY );

  000bd	68 6e 6e 6e ff	 push	 -9539986		; ff6e6e6eH
  000c2	8d 8d b8 fd ff
	ff		 lea	 ecx, DWORD PTR _kPrinter$[ebp]
  000c8	e8 00 00 00 00	 call	 ?SetTextColor@ioComplexStringPrinter@@QAEXK@Z ; ioComplexStringPrinter::SetTextColor

; 192  : 		kPrinter.AddTextPiece( fScale, szSrcChat );

  000cd	f3 0f 10 05 00
	00 00 00	 movss	 xmm0, DWORD PTR __real@3f19999a
  000d5	8d 85 ec fe ff
	ff		 lea	 eax, DWORD PTR _szSrcChat$[ebp]
  000db	50		 push	 eax
  000dc	51		 push	 ecx
  000dd	8d 85 b8 fd ff
	ff		 lea	 eax, DWORD PTR _kPrinter$[ebp]
  000e3	f3 0f 11 04 24	 movss	 DWORD PTR [esp], xmm0
  000e8	50		 push	 eax
  000e9	e8 00 00 00 00	 call	 ?AddTextPiece@ioComplexStringPrinter@@QAAXMPBDZZ ; ioComplexStringPrinter::AddTextPiece

; 193  : 		SetChatInfo( kPrinter , "", true );

  000ee	8b 8d dc fd ff
	ff		 mov	 ecx, DWORD PTR _this$GSCopy$[ebp]
  000f4	83 c4 0c	 add	 esp, 12			; 0000000cH
  000f7	6a 01		 push	 1
  000f9	57		 push	 edi
  000fa	8d 85 b8 fd ff
	ff		 lea	 eax, DWORD PTR _kPrinter$[ebp]
  00100	50		 push	 eax
  00101	e8 00 00 00 00	 call	 ?SetChatInfo@ioGuildChatMgr@@QAEXAAVioComplexStringPrinter@@PBD_N@Z ; ioGuildChatMgr::SetChatInfo

; 194  : 	}	
; 195  : 	else

  00106	e9 0a 01 00 00	 jmp	 $LN1@AddAnnounc
$LN4@AddAnnounc:

; 196  : 	{
; 197  : 		int iLen    = strlen( szSrcChat );

  0010b	8d 85 ec fe ff
	ff		 lea	 eax, DWORD PTR _szSrcChat$[ebp]
  00111	8d 50 01	 lea	 edx, DWORD PTR [eax+1]
$LL13@AddAnnounc:
  00114	8a 08		 mov	 cl, BYTE PTR [eax]
  00116	40		 inc	 eax
  00117	3a cb		 cmp	 cl, bl
  00119	75 f9		 jne	 SHORT $LL13@AddAnnounc
  0011b	2b c2		 sub	 eax, edx
  0011d	89 85 d8 fd ff
	ff		 mov	 DWORD PTR tv199[ebp], eax

; 198  : 		int iResult = 0;

  00123	89 9d e4 fd ff
	ff		 mov	 DWORD PTR _iResult$507447[ebp], ebx

; 199  : 		bool bFirst = true;

  00129	c6 85 e0 fd ff
	ff 01		 mov	 BYTE PTR _bFirst$507448[ebp], 1

; 200  : 		while( iResult < iLen )

  00130	3b c3		 cmp	 eax, ebx
  00132	0f 8e dd 00 00
	00		 jle	 $LN1@AddAnnounc
$LL2@AddAnnounc:

; 201  : 		{
; 202  : 			char szDstChat[MAX_PATH];
; 203  : 			memset( szDstChat, 0, sizeof( szDstChat ) );

  00138	56		 push	 esi
  00139	8d 85 e8 fd ff
	ff		 lea	 eax, DWORD PTR _szDstChat$507452[ebp]
  0013f	53		 push	 ebx
  00140	50		 push	 eax
  00141	e8 00 00 00 00	 call	 _memset

; 204  : 			iResult += Help::StringCutFun( fScale, fWidhtSize, TS_NORMAL, szDstChat, sizeof(szDstChat), &szSrcChat[iResult] );

  00146	8b 85 e4 fd ff
	ff		 mov	 eax, DWORD PTR _iResult$507447[ebp]
  0014c	f3 0f 10 05 00
	00 00 00	 movss	 xmm0, DWORD PTR __real@43848000
  00154	83 c4 0c	 add	 esp, 12			; 0000000cH
  00157	8d 84 05 ec fe
	ff ff		 lea	 eax, DWORD PTR _szSrcChat$[ebp+eax]
  0015e	50		 push	 eax
  0015f	56		 push	 esi
  00160	8d 85 e8 fd ff
	ff		 lea	 eax, DWORD PTR _szDstChat$507452[ebp]
  00166	50		 push	 eax
  00167	53		 push	 ebx
  00168	51		 push	 ecx
  00169	51		 push	 ecx
  0016a	f3 0f 11 44 24
	04		 movss	 DWORD PTR [esp+4], xmm0
  00170	f3 0f 10 05 00
	00 00 00	 movss	 xmm0, DWORD PTR __real@3f19999a
  00178	f3 0f 11 04 24	 movss	 DWORD PTR [esp], xmm0
  0017d	e8 00 00 00 00	 call	 ?StringCutFun@Help@@YAHMMHPADHPBD@Z ; Help::StringCutFun
  00182	01 85 e4 fd ff
	ff		 add	 DWORD PTR _iResult$507447[ebp], eax
  00188	83 c4 18	 add	 esp, 24			; 00000018H

; 205  : 
; 206  : 			kPrinter.SetTextStyle( TS_NORMAL );

  0018b	53		 push	 ebx
  0018c	8d 8d b8 fd ff
	ff		 lea	 ecx, DWORD PTR _kPrinter$[ebp]
  00192	e8 00 00 00 00	 call	 ?SetTextStyle@ioComplexStringPrinter@@QAEXW4TextStyle@@@Z ; ioComplexStringPrinter::SetTextStyle

; 207  : 			kPrinter.SetBkColor( 0, 0, 0 );

  00197	53		 push	 ebx
  00198	53		 push	 ebx
  00199	53		 push	 ebx
  0019a	8d 8d b8 fd ff
	ff		 lea	 ecx, DWORD PTR _kPrinter$[ebp]
  001a0	e8 00 00 00 00	 call	 ?SetBkColor@ioComplexStringPrinter@@QAEXHHH@Z ; ioComplexStringPrinter::SetBkColor

; 208  : 			kPrinter.SetTextColor( TCT_DEFAULT_GRAY );

  001a5	68 6e 6e 6e ff	 push	 -9539986		; ff6e6e6eH
  001aa	8d 8d b8 fd ff
	ff		 lea	 ecx, DWORD PTR _kPrinter$[ebp]
  001b0	e8 00 00 00 00	 call	 ?SetTextColor@ioComplexStringPrinter@@QAEXK@Z ; ioComplexStringPrinter::SetTextColor

; 209  : 			kPrinter.AddTextPiece( fScale, szDstChat );

  001b5	f3 0f 10 05 00
	00 00 00	 movss	 xmm0, DWORD PTR __real@3f19999a
  001bd	8d 85 e8 fd ff
	ff		 lea	 eax, DWORD PTR _szDstChat$507452[ebp]
  001c3	50		 push	 eax
  001c4	51		 push	 ecx
  001c5	8d 85 b8 fd ff
	ff		 lea	 eax, DWORD PTR _kPrinter$[ebp]
  001cb	f3 0f 11 04 24	 movss	 DWORD PTR [esp], xmm0
  001d0	50		 push	 eax
  001d1	e8 00 00 00 00	 call	 ?AddTextPiece@ioComplexStringPrinter@@QAAXMPBDZZ ; ioComplexStringPrinter::AddTextPiece

; 210  : 			SetChatInfo( kPrinter ,"", bFirst);

  001d6	8b 8d dc fd ff
	ff		 mov	 ecx, DWORD PTR _this$GSCopy$[ebp]
  001dc	83 c4 0c	 add	 esp, 12			; 0000000cH
  001df	ff b5 e0 fd ff
	ff		 push	 DWORD PTR _bFirst$507448[ebp]
  001e5	8d 85 b8 fd ff
	ff		 lea	 eax, DWORD PTR _kPrinter$[ebp]
  001eb	57		 push	 edi
  001ec	50		 push	 eax
  001ed	e8 00 00 00 00	 call	 ?SetChatInfo@ioGuildChatMgr@@QAEXAAVioComplexStringPrinter@@PBD_N@Z ; ioGuildChatMgr::SetChatInfo

; 211  : 			bFirst = false;
; 212  : 			kPrinter.ClearList();

  001f2	8d 8d b8 fd ff
	ff		 lea	 ecx, DWORD PTR _kPrinter$[ebp]
  001f8	88 9d e0 fd ff
	ff		 mov	 BYTE PTR _bFirst$507448[ebp], bl
  001fe	e8 00 00 00 00	 call	 ?ClearList@ioComplexStringPrinter@@QAEXXZ ; ioComplexStringPrinter::ClearList
  00203	8b 85 d8 fd ff
	ff		 mov	 eax, DWORD PTR tv199[ebp]
  00209	39 85 e4 fd ff
	ff		 cmp	 DWORD PTR _iResult$507447[ebp], eax
  0020f	0f 8c 23 ff ff
	ff		 jl	 $LL2@AddAnnounc
$LN1@AddAnnounc:

; 213  : 		}
; 214  : 	}	
; 215  : }

  00215	8d 8d b8 fd ff
	ff		 lea	 ecx, DWORD PTR _kPrinter$[ebp]
  0021b	88 5d fc	 mov	 BYTE PTR __$EHRec$[ebp+8], bl
  0021e	e8 00 00 00 00	 call	 ??1ioComplexStringPrinter@@QAE@XZ ; ioComplexStringPrinter::~ioComplexStringPrinter
  00223	83 4d fc ff	 or	 DWORD PTR __$EHRec$[ebp+8], -1
  00227	8d 4d 08	 lea	 ecx, DWORD PTR _szAnnounce$[ebp]
  0022a	ff 15 00 00 00
	00		 call	 DWORD PTR __imp_??1ioHashString@@QAE@XZ
  00230	e8 00 00 00 00	 call	 __EH_epilog3_GS
  00235	c2 10 00	 ret	 16			; 00000010H
_TEXT	ENDS
;	COMDAT text$x
text$x	SEGMENT
__unwindfunclet$?AddAnnounce@ioGuildChatMgr@@QAEXVioHashString@@@Z$0:
  00000	8d 4d 08	 lea	 ecx, DWORD PTR _szAnnounce$[ebp]
  00003	ff 25 00 00 00
	00		 jmp	 DWORD PTR __imp_??1ioHashString@@QAE@XZ
__unwindfunclet$?AddAnnounce@ioGuildChatMgr@@QAEXVioHashString@@@Z$1:
  00009	8d 8d b8 fd ff
	ff		 lea	 ecx, DWORD PTR _kPrinter$[ebp]
  0000f	e9 00 00 00 00	 jmp	 ??1ioComplexStringPrinter@@QAE@XZ ; ioComplexStringPrinter::~ioComplexStringPrinter
__ehhandler$?AddAnnounce@ioGuildChatMgr@@QAEXVioHashString@@@Z:
  00014	8b 54 24 08	 mov	 edx, DWORD PTR [esp+8]
  00018	8d 42 0c	 lea	 eax, DWORD PTR [edx+12]
  0001b	8b 8a b4 fd ff
	ff		 mov	 ecx, DWORD PTR [edx-588]
  00021	33 c8		 xor	 ecx, eax
  00023	e8 00 00 00 00	 call	 @__security_check_cookie@4
  00028	8b 4a fc	 mov	 ecx, DWORD PTR [edx-4]
  0002b	33 c8		 xor	 ecx, eax
  0002d	e8 00 00 00 00	 call	 @__security_check_cookie@4
  00032	b8 00 00 00 00	 mov	 eax, OFFSET __ehfuncinfo$?AddAnnounce@ioGuildChatMgr@@QAEXVioHashString@@@Z
  00037	e9 00 00 00 00	 jmp	 ___CxxFrameHandler3
text$x	ENDS
?AddAnnounce@ioGuildChatMgr@@QAEXVioHashString@@@Z ENDP	; ioGuildChatMgr::AddAnnounce
PUBLIC	__real@4070900000000000
PUBLIC	??_C@_0BI@HOJLIAED@ioGuildChatMgr?3?3AddChat?$AA@ ; `string'
PUBLIC	??_C@_0BK@IFKIKNDK@interface?2team_invite?4wav?$AA@ ; `string'
PUBLIC	_szID$GSCopy$
PUBLIC	_this$GSCopy$
PUBLIC	?AddChat@ioGuildChatMgr@@QAEXPBDVioHashString@@@Z ; ioGuildChatMgr::AddChat
EXTRN	?AddTextPiece@ioComplexStringPrinter@@QAEXMPBD0@Z:PROC ; ioComplexStringPrinter::AddTextPiece
EXTRN	__imp_?PlaySoundA@ioSoundManager@@QAEKABVioHashString@@HK@Z:PROC
EXTRN	__imp_?GetSingleton@ioSoundManager@@SAAAV1@XZ:PROC
EXTRN	__imp_??0ioHashString@@QAE@PBD@Z:PROC
;	COMDAT __real@4070900000000000
CONST	SEGMENT
__real@4070900000000000 DQ 04070900000000000r	; 265
CONST	ENDS
;	COMDAT ??_C@_0BI@HOJLIAED@ioGuildChatMgr?3?3AddChat?$AA@
CONST	SEGMENT
??_C@_0BI@HOJLIAED@ioGuildChatMgr?3?3AddChat?$AA@ DB 'ioGuildChatMgr::Add'
	DB	'Chat', 00H					; `string'
CONST	ENDS
;	COMDAT ??_C@_0BK@IFKIKNDK@interface?2team_invite?4wav?$AA@
CONST	SEGMENT
??_C@_0BK@IFKIKNDK@interface?2team_invite?4wav?$AA@ DB 'interface\team_in'
	DB	'vite.wav', 00H				; `string'
CONST	ENDS
;	COMDAT xdata$x
xdata$x	SEGMENT
__unwindtable$?AddChat@ioGuildChatMgr@@QAEXPBDVioHashString@@@Z DD 0ffffffffH
	DD	FLAT:__unwindfunclet$?AddChat@ioGuildChatMgr@@QAEXPBDVioHashString@@@Z$0
	DD	00H
	DD	FLAT:__unwindfunclet$?AddChat@ioGuildChatMgr@@QAEXPBDVioHashString@@@Z$1
	DD	00H
	DD	FLAT:__unwindfunclet$?AddChat@ioGuildChatMgr@@QAEXPBDVioHashString@@@Z$2
__ehfuncinfo$?AddChat@ioGuildChatMgr@@QAEXPBDVioHashString@@@Z DD 019930522H
	DD	03H
	DD	FLAT:__unwindtable$?AddChat@ioGuildChatMgr@@QAEXPBDVioHashString@@@Z
	DD	2 DUP(00H)
	DD	2 DUP(00H)
	DD	00H
	DD	01H
; Function compile flags: /Ogsp
xdata$x	ENDS
;	COMDAT ?AddChat@ioGuildChatMgr@@QAEXPBDVioHashString@@@Z
_TEXT	SEGMENT
$T510493 = -604						; size = 16
_kPrinter$ = -588					; size = 32
tv235 = -556						; size = 4
_this$GSCopy$ = -552					; size = 4
_fIDWidth$ = -548					; size = 4
_szID$GSCopy$ = -544					; size = 4
tv239 = -540						; size = 4
_bFirst$507473 = -540					; size = 1
_szDstChat$507477 = -536				; size = 260
_szSrcChat$ = -276					; size = 260
__$EHRec$ = -12						; size = 12
_szID$ = 8						; size = 4
_szChat$ = 12						; size = 16
?AddChat@ioGuildChatMgr@@QAEXPBDVioHashString@@@Z PROC	; ioGuildChatMgr::AddChat, COMDAT
; _this$ = ecx

; 218  : {

  00000	68 50 02 00 00	 push	 592			; 00000250H
  00005	b8 00 00 00 00	 mov	 eax, __ehhandler$?AddChat@ioGuildChatMgr@@QAEXPBDVioHashString@@@Z
  0000a	e8 00 00 00 00	 call	 __EH_prolog3_GS
  0000f	8b 7d 08	 mov	 edi, DWORD PTR _szID$[ebp]
  00012	8b c1		 mov	 eax, ecx
  00014	89 85 d8 fd ff
	ff		 mov	 DWORD PTR _this$GSCopy$[ebp], eax
  0001a	89 bd e0 fd ff
	ff		 mov	 DWORD PTR _szID$GSCopy$[ebp], edi
  00020	33 db		 xor	 ebx, ebx

; 219  : 	AddSentenceIndex();

  00022	ff 40 18	 inc	 DWORD PTR [eax+24]

; 220  : 
; 221  : 	MessengerBtn::sg_bMessenger = true;
; 222  : 	g_SoundMgr.PlaySound( "interface\\team_invite.wav" );

  00025	68 00 00 00 00	 push	 OFFSET ??_C@_0BK@IFKIKNDK@interface?2team_invite?4wav?$AA@
  0002a	8d 8d a4 fd ff
	ff		 lea	 ecx, DWORD PTR $T510493[ebp]
  00030	89 5d fc	 mov	 DWORD PTR __$EHRec$[ebp+8], ebx
  00033	c6 05 00 00 00
	00 01		 mov	 BYTE PTR ?sg_bMessenger@MessengerBtn@@2_NA, 1 ; MessengerBtn::sg_bMessenger
  0003a	ff 15 00 00 00
	00		 call	 DWORD PTR __imp_??0ioHashString@@QAE@PBD@Z
  00040	6a 04		 push	 4
  00042	8d 85 a4 fd ff
	ff		 lea	 eax, DWORD PTR $T510493[ebp]
  00048	53		 push	 ebx
  00049	50		 push	 eax
  0004a	c6 45 fc 01	 mov	 BYTE PTR __$EHRec$[ebp+8], 1
  0004e	ff 15 00 00 00
	00		 call	 DWORD PTR __imp_?GetSingleton@ioSoundManager@@SAAAV1@XZ
  00054	8b c8		 mov	 ecx, eax
  00056	ff 15 00 00 00
	00		 call	 DWORD PTR __imp_?PlaySoundA@ioSoundManager@@QAEKABVioHashString@@HK@Z
  0005c	8d 8d a4 fd ff
	ff		 lea	 ecx, DWORD PTR $T510493[ebp]
  00062	88 5d fc	 mov	 BYTE PTR __$EHRec$[ebp+8], bl
  00065	ff 15 00 00 00
	00		 call	 DWORD PTR __imp_??1ioHashString@@QAE@XZ

; 223  : 
; 224  : 	const float fScale = FONT_SIZE_12;
; 225  : 	const float fWidhtSize = 265.0f;
; 226  : 	float fIDWidth = 0.0f;
; 227  : 
; 228  : 	ioComplexStringPrinter kPrinter;

  0006b	8d 8d b4 fd ff
	ff		 lea	 ecx, DWORD PTR _kPrinter$[ebp]
  00071	e8 00 00 00 00	 call	 ??0ioComplexStringPrinter@@QAE@XZ ; ioComplexStringPrinter::ioComplexStringPrinter

; 229  : 	kPrinter.SetTextStyle( TS_NORMAL );

  00076	53		 push	 ebx
  00077	8d 8d b4 fd ff
	ff		 lea	 ecx, DWORD PTR _kPrinter$[ebp]
  0007d	c6 45 fc 02	 mov	 BYTE PTR __$EHRec$[ebp+8], 2
  00081	e8 00 00 00 00	 call	 ?SetTextStyle@ioComplexStringPrinter@@QAEXW4TextStyle@@@Z ; ioComplexStringPrinter::SetTextStyle

; 230  : 	kPrinter.SetBkColor( 0, 0, 0 );

  00086	53		 push	 ebx
  00087	53		 push	 ebx
  00088	53		 push	 ebx
  00089	8d 8d b4 fd ff
	ff		 lea	 ecx, DWORD PTR _kPrinter$[ebp]
  0008f	e8 00 00 00 00	 call	 ?SetBkColor@ioComplexStringPrinter@@QAEXHHH@Z ; ioComplexStringPrinter::SetBkColor

; 231  : 
; 232  : 	char szSrcChat[MAX_PATH];
; 233  : 	memset( szSrcChat, 0, sizeof( szSrcChat ) );

  00094	be 04 01 00 00	 mov	 esi, 260		; 00000104H
  00099	56		 push	 esi
  0009a	8d 85 ec fe ff
	ff		 lea	 eax, DWORD PTR _szSrcChat$[ebp]
  000a0	53		 push	 ebx
  000a1	50		 push	 eax
  000a2	e8 00 00 00 00	 call	 _memset
  000a7	83 c4 0c	 add	 esp, 12			; 0000000cH

; 234  : 	sprintf( szSrcChat, "%s", szChat.c_str() );

  000aa	8d 4d 0c	 lea	 ecx, DWORD PTR _szChat$[ebp]
  000ad	ff 15 00 00 00
	00		 call	 DWORD PTR __imp_?c_str@ioHashString@@QBEPBDXZ
  000b3	50		 push	 eax
  000b4	8d 85 ec fe ff
	ff		 lea	 eax, DWORD PTR _szSrcChat$[ebp]
  000ba	68 00 00 00 00	 push	 OFFSET ??_C@_02DKCKIIND@?$CFs?$AA@
  000bf	50		 push	 eax
  000c0	ff 15 00 00 00
	00		 call	 DWORD PTR __imp__sprintf

; 235  : 
; 236  : 	fIDWidth = g_FontMgr.GetTextWidth( szID, TS_NORMAL, fScale );

  000c6	f3 0f 10 05 00
	00 00 00	 movss	 xmm0, DWORD PTR __real@3f19999a
  000ce	83 c4 0c	 add	 esp, 12			; 0000000cH
  000d1	53		 push	 ebx
  000d2	51		 push	 ecx
  000d3	f3 0f 11 04 24	 movss	 DWORD PTR [esp], xmm0
  000d8	53		 push	 ebx
  000d9	57		 push	 edi
  000da	8b 3d 00 00 00
	00		 mov	 edi, DWORD PTR __imp_?GetSingleton@ioFontManager@@SAAAV1@XZ
  000e0	ff d7		 call	 edi
  000e2	8b c8		 mov	 ecx, eax
  000e4	ff 15 00 00 00
	00		 call	 DWORD PTR __imp_?GetTextWidth@ioFontManager@@QAEMPBDW4TextStyle@@MH@Z
  000ea	d9 9d dc fd ff
	ff		 fstp	 DWORD PTR _fIDWidth$[ebp]

; 237  : 	kPrinter.SetTextColor( TCT_DEFAULT_DARKGRAY );

  000f0	68 3a 3a 3a ff	 push	 -12961222		; ff3a3a3aH
  000f5	8d 8d b4 fd ff
	ff		 lea	 ecx, DWORD PTR _kPrinter$[ebp]
  000fb	e8 00 00 00 00	 call	 ?SetTextColor@ioComplexStringPrinter@@QAEXK@Z ; ioComplexStringPrinter::SetTextColor

; 238  : 	kPrinter.AddTextPiece( fScale, STR(1), szID );

  00100	ff b5 e0 fd ff
	ff		 push	 DWORD PTR _szID$GSCopy$[ebp]
  00106	53		 push	 ebx
  00107	6a 01		 push	 1
  00109	68 00 00 00 00	 push	 OFFSET ??_C@_00CNPNBAHC@?$AA@
  0010e	68 00 00 00 00	 push	 OFFSET ??_C@_0BI@HOJLIAED@ioGuildChatMgr?3?3AddChat?$AA@
  00113	ff 15 00 00 00
	00		 call	 DWORD PTR __imp_?GetSingleton@ioStringManager@@SAAAV1@XZ
  00119	8b c8		 mov	 ecx, eax
  0011b	ff 15 00 00 00
	00		 call	 DWORD PTR __imp_?GetString@ioStringManager@@QAEPADPBD0HW4FileNamePrefix@1@@Z
  00121	f3 0f 10 05 00
	00 00 00	 movss	 xmm0, DWORD PTR __real@3f19999a
  00129	50		 push	 eax
  0012a	51		 push	 ecx
  0012b	8d 8d b4 fd ff
	ff		 lea	 ecx, DWORD PTR _kPrinter$[ebp]
  00131	f3 0f 11 04 24	 movss	 DWORD PTR [esp], xmm0
  00136	e8 00 00 00 00	 call	 ?AddTextPiece@ioComplexStringPrinter@@QAEXMPBD0@Z ; ioComplexStringPrinter::AddTextPiece

; 239  : 
; 240  : 	// 1  .
; 241  : 	if( g_FontMgr.GetTextWidth( szSrcChat, TS_NORMAL, fScale ) < fWidhtSize - fIDWidth )

  0013b	53		 push	 ebx
  0013c	51		 push	 ecx
  0013d	f3 0f 10 05 00
	00 00 00	 movss	 xmm0, DWORD PTR __real@3f19999a
  00145	f3 0f 11 04 24	 movss	 DWORD PTR [esp], xmm0
  0014a	8d 85 ec fe ff
	ff		 lea	 eax, DWORD PTR _szSrcChat$[ebp]
  00150	53		 push	 ebx
  00151	50		 push	 eax
  00152	ff d7		 call	 edi
  00154	8b c8		 mov	 ecx, eax
  00156	ff 15 00 00 00
	00		 call	 DWORD PTR __imp_?GetTextWidth@ioFontManager@@QAEMPBDW4TextStyle@@MH@Z
  0015c	d9 85 dc fd ff
	ff		 fld	 DWORD PTR _fIDWidth$[ebp]
  00162	dc 2d 00 00 00
	00		 fsubr	 QWORD PTR __real@4070900000000000
  00168	d9 9d e4 fd ff
	ff		 fstp	 DWORD PTR tv239[ebp]
  0016e	d9 85 e4 fd ff
	ff		 fld	 DWORD PTR tv239[ebp]
  00174	df f1		 fcomip	 ST(1)
  00176	dd d8		 fstp	 ST(0)
  00178	76 53		 jbe	 SHORT $LN4@AddChat

; 242  : 	{		
; 243  : 		kPrinter.SetTextColor( TCT_DEFAULT_GRAY );

  0017a	68 6e 6e 6e ff	 push	 -9539986		; ff6e6e6eH
  0017f	8d 8d b4 fd ff
	ff		 lea	 ecx, DWORD PTR _kPrinter$[ebp]
  00185	e8 00 00 00 00	 call	 ?SetTextColor@ioComplexStringPrinter@@QAEXK@Z ; ioComplexStringPrinter::SetTextColor

; 244  : 		kPrinter.AddTextPiece( fScale, szSrcChat );

  0018a	f3 0f 10 05 00
	00 00 00	 movss	 xmm0, DWORD PTR __real@3f19999a
  00192	8d 85 ec fe ff
	ff		 lea	 eax, DWORD PTR _szSrcChat$[ebp]
  00198	50		 push	 eax
  00199	51		 push	 ecx
  0019a	8d 85 b4 fd ff
	ff		 lea	 eax, DWORD PTR _kPrinter$[ebp]
  001a0	f3 0f 11 04 24	 movss	 DWORD PTR [esp], xmm0
  001a5	50		 push	 eax
  001a6	e8 00 00 00 00	 call	 ?AddTextPiece@ioComplexStringPrinter@@QAAXMPBDZZ ; ioComplexStringPrinter::AddTextPiece

; 245  : 		SetChatInfo( kPrinter , szID, true );

  001ab	8b 8d d8 fd ff
	ff		 mov	 ecx, DWORD PTR _this$GSCopy$[ebp]
  001b1	83 c4 0c	 add	 esp, 12			; 0000000cH
  001b4	6a 01		 push	 1
  001b6	ff b5 e0 fd ff
	ff		 push	 DWORD PTR _szID$GSCopy$[ebp]
  001bc	8d 85 b4 fd ff
	ff		 lea	 eax, DWORD PTR _kPrinter$[ebp]
  001c2	50		 push	 eax
  001c3	e8 00 00 00 00	 call	 ?SetChatInfo@ioGuildChatMgr@@QAEXAAVioComplexStringPrinter@@PBD_N@Z ; ioGuildChatMgr::SetChatInfo

; 246  : 	}	
; 247  : 	else

  001c8	e9 19 01 00 00	 jmp	 $LN1@AddChat
$LN4@AddChat:

; 248  : 	{
; 249  : 		int iLen    = strlen( szSrcChat );

  001cd	8d 85 ec fe ff
	ff		 lea	 eax, DWORD PTR _szSrcChat$[ebp]
  001d3	8d 50 01	 lea	 edx, DWORD PTR [eax+1]
$LL14@AddChat:
  001d6	8a 08		 mov	 cl, BYTE PTR [eax]
  001d8	40		 inc	 eax
  001d9	3a cb		 cmp	 cl, bl
  001db	75 f9		 jne	 SHORT $LL14@AddChat
  001dd	2b c2		 sub	 eax, edx

; 250  : 		int iResult = 0;

  001df	33 ff		 xor	 edi, edi
  001e1	89 85 d4 fd ff
	ff		 mov	 DWORD PTR tv235[ebp], eax

; 251  : 		bool bFirst = true;

  001e7	c6 85 e4 fd ff
	ff 01		 mov	 BYTE PTR _bFirst$507473[ebp], 1

; 252  : 		while( iResult < iLen )

  001ee	3b c3		 cmp	 eax, ebx
  001f0	0f 8e f0 00 00
	00		 jle	 $LN1@AddChat
$LL2@AddChat:

; 253  : 		{
; 254  : 			char szDstChat[MAX_PATH];
; 255  : 			memset( szDstChat, 0, sizeof( szDstChat ) );

  001f6	56		 push	 esi
  001f7	8d 85 e8 fd ff
	ff		 lea	 eax, DWORD PTR _szDstChat$507477[ebp]
  001fd	53		 push	 ebx
  001fe	50		 push	 eax
  001ff	e8 00 00 00 00	 call	 _memset

; 256  : 			iResult += Help::StringCutFun( fScale, fWidhtSize - fIDWidth, TS_NORMAL, szDstChat, sizeof(szDstChat), &szSrcChat[iResult] );

  00204	f3 0f 10 85 dc
	fd ff ff	 movss	 xmm0, DWORD PTR _fIDWidth$[ebp]
  0020c	f2 0f 10 0d 00
	00 00 00	 movsd	 xmm1, QWORD PTR __real@4070900000000000
  00214	83 c4 0c	 add	 esp, 12			; 0000000cH
  00217	8d 84 3d ec fe
	ff ff		 lea	 eax, DWORD PTR _szSrcChat$[ebp+edi]
  0021e	50		 push	 eax
  0021f	56		 push	 esi
  00220	8d 85 e8 fd ff
	ff		 lea	 eax, DWORD PTR _szDstChat$507477[ebp]
  00226	50		 push	 eax
  00227	0f 5a c0	 cvtps2pd xmm0, xmm0
  0022a	53		 push	 ebx
  0022b	51		 push	 ecx
  0022c	f2 0f 5c c8	 subsd	 xmm1, xmm0
  00230	51		 push	 ecx
  00231	66 0f 5a c1	 cvtpd2ps xmm0, xmm1
  00235	f3 0f 11 44 24
	04		 movss	 DWORD PTR [esp+4], xmm0
  0023b	f3 0f 10 05 00
	00 00 00	 movss	 xmm0, DWORD PTR __real@3f19999a
  00243	f3 0f 11 04 24	 movss	 DWORD PTR [esp], xmm0
  00248	e8 00 00 00 00	 call	 ?StringCutFun@Help@@YAHMMHPADHPBD@Z ; Help::StringCutFun

; 257  : 
; 258  : 			fIDWidth = 0.0f;

  0024d	0f 57 c0	 xorps	 xmm0, xmm0
  00250	83 c4 18	 add	 esp, 24			; 00000018H

; 259  : 			kPrinter.SetTextStyle( TS_NORMAL );

  00253	53		 push	 ebx
  00254	8d 8d b4 fd ff
	ff		 lea	 ecx, DWORD PTR _kPrinter$[ebp]
  0025a	03 f8		 add	 edi, eax
  0025c	f3 0f 11 85 dc
	fd ff ff	 movss	 DWORD PTR _fIDWidth$[ebp], xmm0
  00264	e8 00 00 00 00	 call	 ?SetTextStyle@ioComplexStringPrinter@@QAEXW4TextStyle@@@Z ; ioComplexStringPrinter::SetTextStyle

; 260  : 			kPrinter.SetBkColor( 0, 0, 0 );

  00269	53		 push	 ebx
  0026a	53		 push	 ebx
  0026b	53		 push	 ebx
  0026c	8d 8d b4 fd ff
	ff		 lea	 ecx, DWORD PTR _kPrinter$[ebp]
  00272	e8 00 00 00 00	 call	 ?SetBkColor@ioComplexStringPrinter@@QAEXHHH@Z ; ioComplexStringPrinter::SetBkColor

; 261  : 			kPrinter.SetTextColor( TCT_DEFAULT_GRAY );

  00277	68 6e 6e 6e ff	 push	 -9539986		; ff6e6e6eH
  0027c	8d 8d b4 fd ff
	ff		 lea	 ecx, DWORD PTR _kPrinter$[ebp]
  00282	e8 00 00 00 00	 call	 ?SetTextColor@ioComplexStringPrinter@@QAEXK@Z ; ioComplexStringPrinter::SetTextColor

; 262  : 			kPrinter.AddTextPiece( fScale, szDstChat );

  00287	f3 0f 10 05 00
	00 00 00	 movss	 xmm0, DWORD PTR __real@3f19999a
  0028f	8d 85 e8 fd ff
	ff		 lea	 eax, DWORD PTR _szDstChat$507477[ebp]
  00295	50		 push	 eax
  00296	51		 push	 ecx
  00297	8d 85 b4 fd ff
	ff		 lea	 eax, DWORD PTR _kPrinter$[ebp]
  0029d	f3 0f 11 04 24	 movss	 DWORD PTR [esp], xmm0
  002a2	50		 push	 eax
  002a3	e8 00 00 00 00	 call	 ?AddTextPiece@ioComplexStringPrinter@@QAAXMPBDZZ ; ioComplexStringPrinter::AddTextPiece

; 263  : 			SetChatInfo( kPrinter , szID, bFirst );

  002a8	8b 8d d8 fd ff
	ff		 mov	 ecx, DWORD PTR _this$GSCopy$[ebp]
  002ae	83 c4 0c	 add	 esp, 12			; 0000000cH
  002b1	ff b5 e4 fd ff
	ff		 push	 DWORD PTR _bFirst$507473[ebp]
  002b7	8d 85 b4 fd ff
	ff		 lea	 eax, DWORD PTR _kPrinter$[ebp]
  002bd	ff b5 e0 fd ff
	ff		 push	 DWORD PTR _szID$GSCopy$[ebp]
  002c3	50		 push	 eax
  002c4	e8 00 00 00 00	 call	 ?SetChatInfo@ioGuildChatMgr@@QAEXAAVioComplexStringPrinter@@PBD_N@Z ; ioGuildChatMgr::SetChatInfo

; 264  : 			bFirst = false;
; 265  : 			kPrinter.ClearList();			

  002c9	8d 8d b4 fd ff
	ff		 lea	 ecx, DWORD PTR _kPrinter$[ebp]
  002cf	88 9d e4 fd ff
	ff		 mov	 BYTE PTR _bFirst$507473[ebp], bl
  002d5	e8 00 00 00 00	 call	 ?ClearList@ioComplexStringPrinter@@QAEXXZ ; ioComplexStringPrinter::ClearList
  002da	3b bd d4 fd ff
	ff		 cmp	 edi, DWORD PTR tv235[ebp]
  002e0	0f 8c 10 ff ff
	ff		 jl	 $LL2@AddChat
$LN1@AddChat:

; 266  : 		}
; 267  : 	}	
; 268  : }

  002e6	8d 8d b4 fd ff
	ff		 lea	 ecx, DWORD PTR _kPrinter$[ebp]
  002ec	88 5d fc	 mov	 BYTE PTR __$EHRec$[ebp+8], bl
  002ef	e8 00 00 00 00	 call	 ??1ioComplexStringPrinter@@QAE@XZ ; ioComplexStringPrinter::~ioComplexStringPrinter
  002f4	83 4d fc ff	 or	 DWORD PTR __$EHRec$[ebp+8], -1
  002f8	8d 4d 0c	 lea	 ecx, DWORD PTR _szChat$[ebp]
  002fb	ff 15 00 00 00
	00		 call	 DWORD PTR __imp_??1ioHashString@@QAE@XZ
  00301	e8 00 00 00 00	 call	 __EH_epilog3_GS
  00306	c2 14 00	 ret	 20			; 00000014H
_TEXT	ENDS
;	COMDAT text$x
text$x	SEGMENT
__unwindfunclet$?AddChat@ioGuildChatMgr@@QAEXPBDVioHashString@@@Z$0:
  00000	8d 4d 0c	 lea	 ecx, DWORD PTR _szChat$[ebp]
  00003	ff 25 00 00 00
	00		 jmp	 DWORD PTR __imp_??1ioHashString@@QAE@XZ
__unwindfunclet$?AddChat@ioGuildChatMgr@@QAEXPBDVioHashString@@@Z$1:
  00009	8d 8d a4 fd ff
	ff		 lea	 ecx, DWORD PTR $T510493[ebp]
  0000f	ff 25 00 00 00
	00		 jmp	 DWORD PTR __imp_??1ioHashString@@QAE@XZ
__unwindfunclet$?AddChat@ioGuildChatMgr@@QAEXPBDVioHashString@@@Z$2:
  00015	8d 8d b4 fd ff
	ff		 lea	 ecx, DWORD PTR _kPrinter$[ebp]
  0001b	e9 00 00 00 00	 jmp	 ??1ioComplexStringPrinter@@QAE@XZ ; ioComplexStringPrinter::~ioComplexStringPrinter
__ehhandler$?AddChat@ioGuildChatMgr@@QAEXPBDVioHashString@@@Z:
  00020	8b 54 24 08	 mov	 edx, DWORD PTR [esp+8]
  00024	8d 42 0c	 lea	 eax, DWORD PTR [edx+12]
  00027	8b 8a a0 fd ff
	ff		 mov	 ecx, DWORD PTR [edx-608]
  0002d	33 c8		 xor	 ecx, eax
  0002f	e8 00 00 00 00	 call	 @__security_check_cookie@4
  00034	8b 4a fc	 mov	 ecx, DWORD PTR [edx-4]
  00037	33 c8		 xor	 ecx, eax
  00039	e8 00 00 00 00	 call	 @__security_check_cookie@4
  0003e	b8 00 00 00 00	 mov	 eax, OFFSET __ehfuncinfo$?AddChat@ioGuildChatMgr@@QAEXPBDVioHashString@@@Z
  00043	e9 00 00 00 00	 jmp	 ___CxxFrameHandler3
text$x	ENDS
?AddChat@ioGuildChatMgr@@QAEXPBDVioHashString@@@Z ENDP	; ioGuildChatMgr::AddChat
PUBLIC	??_C@_0BM@OMKDHKPA@ioGuildChatMgr?3?3OnLoginUser?$AA@ ; `string'
PUBLIC	?OnLoginUser@ioGuildChatMgr@@QAEXVioHashString@@@Z ; ioGuildChatMgr::OnLoginUser
;	COMDAT ??_C@_0BM@OMKDHKPA@ioGuildChatMgr?3?3OnLoginUser?$AA@
CONST	SEGMENT
??_C@_0BM@OMKDHKPA@ioGuildChatMgr?3?3OnLoginUser?$AA@ DB 'ioGuildChatMgr:'
	DB	':OnLoginUser', 00H				; `string'
CONST	ENDS
;	COMDAT xdata$x
xdata$x	SEGMENT
__unwindtable$?OnLoginUser@ioGuildChatMgr@@QAEXVioHashString@@@Z DD 0ffffffffH
	DD	FLAT:__unwindfunclet$?OnLoginUser@ioGuildChatMgr@@QAEXVioHashString@@@Z$0
__ehfuncinfo$?OnLoginUser@ioGuildChatMgr@@QAEXVioHashString@@@Z DD 019930522H
	DD	01H
	DD	FLAT:__unwindtable$?OnLoginUser@ioGuildChatMgr@@QAEXVioHashString@@@Z
	DD	2 DUP(00H)
	DD	2 DUP(00H)
	DD	00H
	DD	01H
; Function compile flags: /Ogsp
xdata$x	ENDS
;	COMDAT ?OnLoginUser@ioGuildChatMgr@@QAEXVioHashString@@@Z
_TEXT	SEGMENT
$T510518 = -280						; size = 4
_szChat$ = -276						; size = 260
__$EHRec$ = -12						; size = 12
_szLoginUser$ = 8					; size = 16
?OnLoginUser@ioGuildChatMgr@@QAEXVioHashString@@@Z PROC	; ioGuildChatMgr::OnLoginUser, COMDAT
; _this$ = ecx

; 271  : {

  00000	68 0c 01 00 00	 push	 268			; 0000010cH
  00005	b8 00 00 00 00	 mov	 eax, __ehhandler$?OnLoginUser@ioGuildChatMgr@@QAEXVioHashString@@@Z
  0000a	e8 00 00 00 00	 call	 __EH_prolog3_GS
  0000f	8b f1		 mov	 esi, ecx
  00011	83 65 fc 00	 and	 DWORD PTR __$EHRec$[ebp+8], 0

; 272  : 	char szChat[MAX_PATH];
; 273  : 	SafeSprintf( szChat, sizeof( szChat ), STR(1), szLoginUser.c_str() );

  00015	8d 4d 08	 lea	 ecx, DWORD PTR _szLoginUser$[ebp]
  00018	ff 15 00 00 00
	00		 call	 DWORD PTR __imp_?c_str@ioHashString@@QBEPBDXZ
  0001e	50		 push	 eax
  0001f	6a 00		 push	 0
  00021	6a 01		 push	 1
  00023	68 00 00 00 00	 push	 OFFSET ??_C@_00CNPNBAHC@?$AA@
  00028	68 00 00 00 00	 push	 OFFSET ??_C@_0BM@OMKDHKPA@ioGuildChatMgr?3?3OnLoginUser?$AA@
  0002d	ff 15 00 00 00
	00		 call	 DWORD PTR __imp_?GetSingleton@ioStringManager@@SAAAV1@XZ
  00033	8b c8		 mov	 ecx, eax
  00035	ff 15 00 00 00
	00		 call	 DWORD PTR __imp_?GetString@ioStringManager@@QAEPADPBD0HW4FileNamePrefix@1@@Z
  0003b	50		 push	 eax
  0003c	8d 85 ec fe ff
	ff		 lea	 eax, DWORD PTR _szChat$[ebp]
  00042	68 04 01 00 00	 push	 260			; 00000104H
  00047	50		 push	 eax
  00048	ff 15 00 00 00
	00		 call	 DWORD PTR __imp_?SafeSprintf@@YAXPADHPBD1@Z

; 274  : 	AddAnnounce( szChat );

  0004e	8d 85 ec fe ff
	ff		 lea	 eax, DWORD PTR _szChat$[ebp]
  00054	8b cc		 mov	 ecx, esp
  00056	89 a5 e8 fe ff
	ff		 mov	 DWORD PTR $T510518[ebp], esp
  0005c	50		 push	 eax
  0005d	ff 15 00 00 00
	00		 call	 DWORD PTR __imp_??0ioHashString@@QAE@PBD@Z
  00063	8b ce		 mov	 ecx, esi
  00065	e8 00 00 00 00	 call	 ?AddAnnounce@ioGuildChatMgr@@QAEXVioHashString@@@Z ; ioGuildChatMgr::AddAnnounce

; 275  : }

  0006a	83 4d fc ff	 or	 DWORD PTR __$EHRec$[ebp+8], -1
  0006e	8d 4d 08	 lea	 ecx, DWORD PTR _szLoginUser$[ebp]
  00071	ff 15 00 00 00
	00		 call	 DWORD PTR __imp_??1ioHashString@@QAE@XZ
  00077	e8 00 00 00 00	 call	 __EH_epilog3_GS
  0007c	c2 10 00	 ret	 16			; 00000010H
_TEXT	ENDS
;	COMDAT text$x
text$x	SEGMENT
__unwindfunclet$?OnLoginUser@ioGuildChatMgr@@QAEXVioHashString@@@Z$0:
  00000	8d 4d 08	 lea	 ecx, DWORD PTR _szLoginUser$[ebp]
  00003	ff 25 00 00 00
	00		 jmp	 DWORD PTR __imp_??1ioHashString@@QAE@XZ
__ehhandler$?OnLoginUser@ioGuildChatMgr@@QAEXVioHashString@@@Z:
  00009	8b 54 24 08	 mov	 edx, DWORD PTR [esp+8]
  0000d	8d 42 0c	 lea	 eax, DWORD PTR [edx+12]
  00010	8b 8a e4 fe ff
	ff		 mov	 ecx, DWORD PTR [edx-284]
  00016	33 c8		 xor	 ecx, eax
  00018	e8 00 00 00 00	 call	 @__security_check_cookie@4
  0001d	8b 4a fc	 mov	 ecx, DWORD PTR [edx-4]
  00020	33 c8		 xor	 ecx, eax
  00022	e8 00 00 00 00	 call	 @__security_check_cookie@4
  00027	b8 00 00 00 00	 mov	 eax, OFFSET __ehfuncinfo$?OnLoginUser@ioGuildChatMgr@@QAEXVioHashString@@@Z
  0002c	e9 00 00 00 00	 jmp	 ___CxxFrameHandler3
text$x	ENDS
?OnLoginUser@ioGuildChatMgr@@QAEXVioHashString@@@Z ENDP	; ioGuildChatMgr::OnLoginUser
PUBLIC	??_C@_0BN@BEPCFIHG@ioGuildChatMgr?3?3OnLogOutUser?$AA@ ; `string'
PUBLIC	?OnLogOutUser@ioGuildChatMgr@@QAEXVioHashString@@@Z ; ioGuildChatMgr::OnLogOutUser
;	COMDAT ??_C@_0BN@BEPCFIHG@ioGuildChatMgr?3?3OnLogOutUser?$AA@
CONST	SEGMENT
??_C@_0BN@BEPCFIHG@ioGuildChatMgr?3?3OnLogOutUser?$AA@ DB 'ioGuildChatMgr'
	DB	'::OnLogOutUser', 00H			; `string'
CONST	ENDS
;	COMDAT xdata$x
xdata$x	SEGMENT
__unwindtable$?OnLogOutUser@ioGuildChatMgr@@QAEXVioHashString@@@Z DD 0ffffffffH
	DD	FLAT:__unwindfunclet$?OnLogOutUser@ioGuildChatMgr@@QAEXVioHashString@@@Z$0
__ehfuncinfo$?OnLogOutUser@ioGuildChatMgr@@QAEXVioHashString@@@Z DD 019930522H
	DD	01H
	DD	FLAT:__unwindtable$?OnLogOutUser@ioGuildChatMgr@@QAEXVioHashString@@@Z
	DD	2 DUP(00H)
	DD	2 DUP(00H)
	DD	00H
	DD	01H
; Function compile flags: /Ogsp
xdata$x	ENDS
;	COMDAT ?OnLogOutUser@ioGuildChatMgr@@QAEXVioHashString@@@Z
_TEXT	SEGMENT
$T510530 = -280						; size = 4
_szChat$ = -276						; size = 260
__$EHRec$ = -12						; size = 12
_szLogOutUser$ = 8					; size = 16
?OnLogOutUser@ioGuildChatMgr@@QAEXVioHashString@@@Z PROC ; ioGuildChatMgr::OnLogOutUser, COMDAT
; _this$ = ecx

; 278  : {

  00000	68 0c 01 00 00	 push	 268			; 0000010cH
  00005	b8 00 00 00 00	 mov	 eax, __ehhandler$?OnLogOutUser@ioGuildChatMgr@@QAEXVioHashString@@@Z
  0000a	e8 00 00 00 00	 call	 __EH_prolog3_GS
  0000f	8b f1		 mov	 esi, ecx
  00011	83 65 fc 00	 and	 DWORD PTR __$EHRec$[ebp+8], 0

; 279  : 	char szChat[MAX_PATH];
; 280  : 	SafeSprintf( szChat, sizeof( szChat ), STR(1), szLogOutUser.c_str() );

  00015	8d 4d 08	 lea	 ecx, DWORD PTR _szLogOutUser$[ebp]
  00018	ff 15 00 00 00
	00		 call	 DWORD PTR __imp_?c_str@ioHashString@@QBEPBDXZ
  0001e	50		 push	 eax
  0001f	6a 00		 push	 0
  00021	6a 01		 push	 1
  00023	68 00 00 00 00	 push	 OFFSET ??_C@_00CNPNBAHC@?$AA@
  00028	68 00 00 00 00	 push	 OFFSET ??_C@_0BN@BEPCFIHG@ioGuildChatMgr?3?3OnLogOutUser?$AA@
  0002d	ff 15 00 00 00
	00		 call	 DWORD PTR __imp_?GetSingleton@ioStringManager@@SAAAV1@XZ
  00033	8b c8		 mov	 ecx, eax
  00035	ff 15 00 00 00
	00		 call	 DWORD PTR __imp_?GetString@ioStringManager@@QAEPADPBD0HW4FileNamePrefix@1@@Z
  0003b	50		 push	 eax
  0003c	8d 85 ec fe ff
	ff		 lea	 eax, DWORD PTR _szChat$[ebp]
  00042	68 04 01 00 00	 push	 260			; 00000104H
  00047	50		 push	 eax
  00048	ff 15 00 00 00
	00		 call	 DWORD PTR __imp_?SafeSprintf@@YAXPADHPBD1@Z

; 281  : 	AddAnnounce( szChat );

  0004e	8d 85 ec fe ff
	ff		 lea	 eax, DWORD PTR _szChat$[ebp]
  00054	8b cc		 mov	 ecx, esp
  00056	89 a5 e8 fe ff
	ff		 mov	 DWORD PTR $T510530[ebp], esp
  0005c	50		 push	 eax
  0005d	ff 15 00 00 00
	00		 call	 DWORD PTR __imp_??0ioHashString@@QAE@PBD@Z
  00063	8b ce		 mov	 ecx, esi
  00065	e8 00 00 00 00	 call	 ?AddAnnounce@ioGuildChatMgr@@QAEXVioHashString@@@Z ; ioGuildChatMgr::AddAnnounce

; 282  : }

  0006a	83 4d fc ff	 or	 DWORD PTR __$EHRec$[ebp+8], -1
  0006e	8d 4d 08	 lea	 ecx, DWORD PTR _szLogOutUser$[ebp]
  00071	ff 15 00 00 00
	00		 call	 DWORD PTR __imp_??1ioHashString@@QAE@XZ
  00077	e8 00 00 00 00	 call	 __EH_epilog3_GS
  0007c	c2 10 00	 ret	 16			; 00000010H
_TEXT	ENDS
;	COMDAT text$x
text$x	SEGMENT
__unwindfunclet$?OnLogOutUser@ioGuildChatMgr@@QAEXVioHashString@@@Z$0:
  00000	8d 4d 08	 lea	 ecx, DWORD PTR _szLogOutUser$[ebp]
  00003	ff 25 00 00 00
	00		 jmp	 DWORD PTR __imp_??1ioHashString@@QAE@XZ
__ehhandler$?OnLogOutUser@ioGuildChatMgr@@QAEXVioHashString@@@Z:
  00009	8b 54 24 08	 mov	 edx, DWORD PTR [esp+8]
  0000d	8d 42 0c	 lea	 eax, DWORD PTR [edx+12]
  00010	8b 8a e4 fe ff
	ff		 mov	 ecx, DWORD PTR [edx-284]
  00016	33 c8		 xor	 ecx, eax
  00018	e8 00 00 00 00	 call	 @__security_check_cookie@4
  0001d	8b 4a fc	 mov	 ecx, DWORD PTR [edx-4]
  00020	33 c8		 xor	 ecx, eax
  00022	e8 00 00 00 00	 call	 @__security_check_cookie@4
  00027	b8 00 00 00 00	 mov	 eax, OFFSET __ehfuncinfo$?OnLogOutUser@ioGuildChatMgr@@QAEXVioHashString@@@Z
  0002c	e9 00 00 00 00	 jmp	 ___CxxFrameHandler3
text$x	ENDS
?OnLogOutUser@ioGuildChatMgr@@QAEXVioHashString@@@Z ENDP ; ioGuildChatMgr::OnLogOutUser
PUBLIC	?OnChat@ioGuildChatMgr@@QAEXVioHashString@@0@Z	; ioGuildChatMgr::OnChat
EXTRN	__imp_??9ioHashString@@QBE_NABV0@@Z:PROC
EXTRN	?GetSingleton@ioMyInfo@@SAAAV1@XZ:PROC		; ioMyInfo::GetSingleton
EXTRN	?IsBlackList@ioBlackListManager@@QAE_NABVioHashString@@@Z:PROC ; ioBlackListManager::IsBlackList
EXTRN	?GetSingleton@ioBlackListManager@@SAAAV1@XZ:PROC ; ioBlackListManager::GetSingleton
;	COMDAT xdata$x
; File d:\lost saga for developer\youtube\tutorial\source\src\lsclient\iomyinfo.h
xdata$x	SEGMENT
__unwindtable$?OnChat@ioGuildChatMgr@@QAEXVioHashString@@0@Z DD 0ffffffffH
	DD	FLAT:__unwindfunclet$?OnChat@ioGuildChatMgr@@QAEXVioHashString@@0@Z$0
	DD	00H
	DD	FLAT:__unwindfunclet$?OnChat@ioGuildChatMgr@@QAEXVioHashString@@0@Z$1
	DD	01H
	DD	FLAT:__unwindfunclet$?OnChat@ioGuildChatMgr@@QAEXVioHashString@@0@Z$2
	DD	01H
	DD	FLAT:__unwindfunclet$?OnChat@ioGuildChatMgr@@QAEXVioHashString@@0@Z$3
__ehfuncinfo$?OnChat@ioGuildChatMgr@@QAEXVioHashString@@0@Z DD 019930522H
	DD	04H
	DD	FLAT:__unwindtable$?OnChat@ioGuildChatMgr@@QAEXVioHashString@@0@Z
	DD	2 DUP(00H)
	DD	2 DUP(00H)
	DD	00H
	DD	01H
; Function compile flags: /Ogsp
; File d:\lost saga for developer\youtube\tutorial\source\src\lsclient\ioguildchatmgr.cpp
xdata$x	ENDS
;	COMDAT ?OnChat@ioGuildChatMgr@@QAEXVioHashString@@0@Z
_TEXT	SEGMENT
$T510543 = -20						; size = 4
$T510542 = -16						; size = 4
$T510541 = -16						; size = 4
__$EHRec$ = -12						; size = 12
_szID$ = 8						; size = 16
_szChat$ = 24						; size = 16
?OnChat@ioGuildChatMgr@@QAEXVioHashString@@0@Z PROC	; ioGuildChatMgr::OnChat, COMDAT
; _this$ = ecx

; 285  : {

  00000	6a 08		 push	 8
  00002	b8 00 00 00 00	 mov	 eax, __ehhandler$?OnChat@ioGuildChatMgr@@QAEXVioHashString@@0@Z
  00007	e8 00 00 00 00	 call	 __EH_prolog3
  0000c	8b f9		 mov	 edi, ecx

; 286  : 	if(g_BlackListManager.IsBlackList(szID)) return;

  0000e	8d 45 08	 lea	 eax, DWORD PTR _szID$[ebp]
  00011	50		 push	 eax
  00012	c7 45 fc 01 00
	00 00		 mov	 DWORD PTR __$EHRec$[ebp+8], 1
  00019	e8 00 00 00 00	 call	 ?GetSingleton@ioBlackListManager@@SAAAV1@XZ ; ioBlackListManager::GetSingleton
  0001e	8b c8		 mov	 ecx, eax
  00020	e8 00 00 00 00	 call	 ?IsBlackList@ioBlackListManager@@QAE_NABVioHashString@@@Z ; ioBlackListManager::IsBlackList
  00025	84 c0		 test	 al, al
  00027	75 6e		 jne	 SHORT $LN1@OnChat

; 287  : 
; 288  : 	AddChat( szID.c_str(), szChat );

  00029	8b 35 00 00 00
	00		 mov	 esi, DWORD PTR __imp_??0ioHashString@@QAE@ABV0@@Z
  0002f	83 ec 10	 sub	 esp, 16			; 00000010H
  00032	8d 45 18	 lea	 eax, DWORD PTR _szChat$[ebp]
  00035	8b cc		 mov	 ecx, esp
  00037	89 65 f0	 mov	 DWORD PTR $T510541[ebp], esp
  0003a	50		 push	 eax
  0003b	ff d6		 call	 esi
  0003d	8d 4d 08	 lea	 ecx, DWORD PTR _szID$[ebp]
  00040	c6 45 fc 02	 mov	 BYTE PTR __$EHRec$[ebp+8], 2
  00044	ff 15 00 00 00
	00		 call	 DWORD PTR __imp_?c_str@ioHashString@@QBEPBDXZ
  0004a	50		 push	 eax
  0004b	8b cf		 mov	 ecx, edi
  0004d	c6 45 fc 01	 mov	 BYTE PTR __$EHRec$[ebp+8], 1
  00051	e8 00 00 00 00	 call	 ?AddChat@ioGuildChatMgr@@QAEXPBDVioHashString@@@Z ; ioGuildChatMgr::AddChat

; 289  : 	if( szID != g_MyInfo.GetPublicID() )

  00056	e8 00 00 00 00	 call	 ?GetSingleton@ioMyInfo@@SAAAV1@XZ ; ioMyInfo::GetSingleton
  0005b	83 c0 1c	 add	 eax, 28			; 0000001cH
  0005e	50		 push	 eax
  0005f	8d 4d 08	 lea	 ecx, DWORD PTR _szID$[ebp]
  00062	ff 15 00 00 00
	00		 call	 DWORD PTR __imp_??9ioHashString@@QBE_NABV0@@Z
  00068	84 c0		 test	 al, al
  0006a	74 2b		 je	 SHORT $LN1@OnChat

; 290  : 		ShowChatPopup(  szID, szChat );

  0006c	83 ec 10	 sub	 esp, 16			; 00000010H
  0006f	8d 45 18	 lea	 eax, DWORD PTR _szChat$[ebp]
  00072	8b cc		 mov	 ecx, esp
  00074	89 65 f0	 mov	 DWORD PTR $T510542[ebp], esp
  00077	50		 push	 eax
  00078	ff d6		 call	 esi
  0007a	83 ec 10	 sub	 esp, 16			; 00000010H
  0007d	8d 45 08	 lea	 eax, DWORD PTR _szID$[ebp]
  00080	8b cc		 mov	 ecx, esp
  00082	89 65 ec	 mov	 DWORD PTR $T510543[ebp], esp
  00085	50		 push	 eax
  00086	c6 45 fc 03	 mov	 BYTE PTR __$EHRec$[ebp+8], 3
  0008a	ff d6		 call	 esi
  0008c	8b cf		 mov	 ecx, edi
  0008e	c6 45 fc 01	 mov	 BYTE PTR __$EHRec$[ebp+8], 1
  00092	e8 00 00 00 00	 call	 ?ShowChatPopup@ioGuildChatMgr@@QAEXVioHashString@@0@Z ; ioGuildChatMgr::ShowChatPopup
$LN1@OnChat:

; 291  : }

  00097	8b 35 00 00 00
	00		 mov	 esi, DWORD PTR __imp_??1ioHashString@@QAE@XZ
  0009d	8d 4d 08	 lea	 ecx, DWORD PTR _szID$[ebp]
  000a0	c6 45 fc 00	 mov	 BYTE PTR __$EHRec$[ebp+8], 0
  000a4	ff d6		 call	 esi
  000a6	83 4d fc ff	 or	 DWORD PTR __$EHRec$[ebp+8], -1
  000aa	8d 4d 18	 lea	 ecx, DWORD PTR _szChat$[ebp]
  000ad	ff d6		 call	 esi
  000af	e8 00 00 00 00	 call	 __EH_epilog3
  000b4	c2 20 00	 ret	 32			; 00000020H
_TEXT	ENDS
;	COMDAT text$x
text$x	SEGMENT
__unwindfunclet$?OnChat@ioGuildChatMgr@@QAEXVioHashString@@0@Z$0:
  00000	8d 4d 18	 lea	 ecx, DWORD PTR _szChat$[ebp]
  00003	ff 25 00 00 00
	00		 jmp	 DWORD PTR __imp_??1ioHashString@@QAE@XZ
__unwindfunclet$?OnChat@ioGuildChatMgr@@QAEXVioHashString@@0@Z$1:
  00009	8d 4d 08	 lea	 ecx, DWORD PTR _szID$[ebp]
  0000c	ff 25 00 00 00
	00		 jmp	 DWORD PTR __imp_??1ioHashString@@QAE@XZ
__unwindfunclet$?OnChat@ioGuildChatMgr@@QAEXVioHashString@@0@Z$2:
  00012	8b 4d f0	 mov	 ecx, DWORD PTR $T510541[ebp]
  00015	ff 25 00 00 00
	00		 jmp	 DWORD PTR __imp_??1ioHashString@@QAE@XZ
__unwindfunclet$?OnChat@ioGuildChatMgr@@QAEXVioHashString@@0@Z$3:
  0001b	8b 4d f0	 mov	 ecx, DWORD PTR $T510542[ebp]
  0001e	ff 25 00 00 00
	00		 jmp	 DWORD PTR __imp_??1ioHashString@@QAE@XZ
__ehhandler$?OnChat@ioGuildChatMgr@@QAEXVioHashString@@0@Z:
  00024	8b 54 24 08	 mov	 edx, DWORD PTR [esp+8]
  00028	8d 42 0c	 lea	 eax, DWORD PTR [edx+12]
  0002b	8b 4a e8	 mov	 ecx, DWORD PTR [edx-24]
  0002e	33 c8		 xor	 ecx, eax
  00030	e8 00 00 00 00	 call	 @__security_check_cookie@4
  00035	b8 00 00 00 00	 mov	 eax, OFFSET __ehfuncinfo$?OnChat@ioGuildChatMgr@@QAEXVioHashString@@0@Z
  0003a	e9 00 00 00 00	 jmp	 ___CxxFrameHandler3
text$x	ENDS
?OnChat@ioGuildChatMgr@@QAEXVioHashString@@0@Z ENDP	; ioGuildChatMgr::OnChat
; Function compile flags: /Ogsp
;	COMDAT ??_GioGuildChatMgr@@UAEPAXI@Z
_TEXT	SEGMENT
___flags$ = 8						; size = 4
??_GioGuildChatMgr@@UAEPAXI@Z PROC			; ioGuildChatMgr::`scalar deleting destructor', COMDAT
; _this$ = ecx
  00000	55		 push	 ebp
  00001	8b ec		 mov	 ebp, esp
  00003	56		 push	 esi
  00004	8b f1		 mov	 esi, ecx
  00006	e8 00 00 00 00	 call	 ??1ioGuildChatMgr@@UAE@XZ ; ioGuildChatMgr::~ioGuildChatMgr
  0000b	f6 45 08 01	 test	 BYTE PTR ___flags$[ebp], 1
  0000f	74 07		 je	 SHORT $LN1@scalar@3
  00011	56		 push	 esi
  00012	e8 00 00 00 00	 call	 ??3@YAXPAX@Z		; operator delete
  00017	59		 pop	 ecx
$LN1@scalar@3:
  00018	8b c6		 mov	 eax, esi
  0001a	5e		 pop	 esi
  0001b	5d		 pop	 ebp
  0001c	c2 04 00	 ret	 4
??_GioGuildChatMgr@@UAEPAXI@Z ENDP			; ioGuildChatMgr::`scalar deleting destructor'
_TEXT	ENDS
END
