; Listing generated by Microsoft (R) Optimizing Compiler Version 16.00.30319.01 

	TITLE	D:\Lost Saga For Developer\Youtube\Tutorial\Source\src\LSClient\ioGuide2Weapon.cpp
	.686P
	.XMM
	include listing.inc
	.model	flat

INCLUDELIB MSVCRT
INCLUDELIB OLDNAMES

PUBLIC	?_EEM_DS@?$deque@UD3DXVECTOR3@@V?$allocator@UD3DXVECTOR3@@@std@@@std@@2HB ; std::deque<D3DXVECTOR3,std::allocator<D3DXVECTOR3> >::_EEM_DS
PUBLIC	?_EEM_DS@?$deque@MV?$allocator@M@std@@@std@@2HB	; std::deque<float,std::allocator<float> >::_EEM_DS
PUBLIC	?_VBITS@?$vector@_NV?$allocator@_N@std@@@std@@2HB ; std::vector<bool,std::allocator<bool> >::_VBITS
PUBLIC	?m_ActionStopType@ioGuide2Weapon@@2W4ActionStopType@@A ; ioGuide2Weapon::m_ActionStopType
PUBLIC	?m_DieActionStopType@ioGuide2Weapon@@2W4ActionStopType@@A ; ioGuide2Weapon::m_DieActionStopType
_BSS	SEGMENT
?m_ActionStopType@ioGuide2Weapon@@2W4ActionStopType@@A DD 01H DUP (?) ; ioGuide2Weapon::m_ActionStopType
?m_DieActionStopType@ioGuide2Weapon@@2W4ActionStopType@@A DD 01H DUP (?) ; ioGuide2Weapon::m_DieActionStopType
_BSS	ENDS
;	COMDAT ?_VBITS@?$vector@_NV?$allocator@_N@std@@@std@@2HB
CONST	SEGMENT
?_VBITS@?$vector@_NV?$allocator@_N@std@@@std@@2HB DD 020H ; std::vector<bool,std::allocator<bool> >::_VBITS
CONST	ENDS
;	COMDAT ?_EEM_DS@?$deque@MV?$allocator@M@std@@@std@@2HB
CONST	SEGMENT
?_EEM_DS@?$deque@MV?$allocator@M@std@@@std@@2HB DD 04H	; std::deque<float,std::allocator<float> >::_EEM_DS
CONST	ENDS
;	COMDAT ?_EEM_DS@?$deque@UD3DXVECTOR3@@V?$allocator@UD3DXVECTOR3@@@std@@@std@@2HB
CONST	SEGMENT
?_EEM_DS@?$deque@UD3DXVECTOR3@@V?$allocator@UD3DXVECTOR3@@@std@@@std@@2HB DD 01H ; std::deque<D3DXVECTOR3,std::allocator<D3DXVECTOR3> >::_EEM_DS
CONST	ENDS
PUBLIC	?return1@@YAIXZ					; return1
; Function compile flags: /Ogsp
; File d:\lost saga for developer\youtube\tutorial\source\src\lsclient\stdafx.h
;	COMDAT ?return1@@YAIXZ
_TEXT	SEGMENT
?return1@@YAIXZ PROC					; return1, COMDAT

; 17   : 	__forceinline unsigned int return1() { __asm mov eax, 1 };

  00000	b8 01 00 00 00	 mov	 eax, 1
  00005	c3		 ret	 0
?return1@@YAIXZ ENDP					; return1
_TEXT	ENDS
PUBLIC	?return5@@YAIXZ					; return5
; Function compile flags: /Ogsp
;	COMDAT ?return5@@YAIXZ
_TEXT	SEGMENT
?return5@@YAIXZ PROC					; return5, COMDAT

; 18   : 	__forceinline unsigned int return5() { __asm mov eax, 5 };

  00000	b8 05 00 00 00	 mov	 eax, 5
  00005	c3		 ret	 0
?return5@@YAIXZ ENDP					; return5
_TEXT	ENDS
PUBLIC	?return10@@YAIXZ				; return10
; Function compile flags: /Ogsp
;	COMDAT ?return10@@YAIXZ
_TEXT	SEGMENT
?return10@@YAIXZ PROC					; return10, COMDAT

; 21   : 	__forceinline unsigned int return10() { __asm mov eax, 10 };

  00000	b8 0a 00 00 00	 mov	 eax, 10			; 0000000aH
  00005	c3		 ret	 0
?return10@@YAIXZ ENDP					; return10
_TEXT	ENDS
PUBLIC	?return1000@@YAIXZ				; return1000
; Function compile flags: /Ogsp
;	COMDAT ?return1000@@YAIXZ
_TEXT	SEGMENT
?return1000@@YAIXZ PROC					; return1000, COMDAT

; 29   : 	__forceinline unsigned int return1000() { __asm mov eax, 1000 };

  00000	b8 e8 03 00 00	 mov	 eax, 1000		; 000003e8H
  00005	c3		 ret	 0
?return1000@@YAIXZ ENDP					; return1000
_TEXT	ENDS
PUBLIC	?GetBlowStopMotionState@ioBaseChar@@QBE_NXZ	; ioBaseChar::GetBlowStopMotionState
; Function compile flags: /Ogsp
; File d:\lost saga for developer\youtube\tutorial\source\src\lsclient\iobasechar.h
;	COMDAT ?GetBlowStopMotionState@ioBaseChar@@QBE_NXZ
_TEXT	SEGMENT
?GetBlowStopMotionState@ioBaseChar@@QBE_NXZ PROC	; ioBaseChar::GetBlowStopMotionState, COMDAT
; _this$ = ecx

; 1566 : 	inline bool GetBlowStopMotionState() const { return m_bBlowStopMotion; }

  00000	8a 81 c7 15 00
	00		 mov	 al, BYTE PTR [ecx+5575]
  00006	c3		 ret	 0
?GetBlowStopMotionState@ioBaseChar@@QBE_NXZ ENDP	; ioBaseChar::GetBlowStopMotionState
_TEXT	ENDS
PUBLIC	?GetBlowFrozenState@ioBaseChar@@QBE_NXZ		; ioBaseChar::GetBlowFrozenState
; Function compile flags: /Ogsp
;	COMDAT ?GetBlowFrozenState@ioBaseChar@@QBE_NXZ
_TEXT	SEGMENT
?GetBlowFrozenState@ioBaseChar@@QBE_NXZ PROC		; ioBaseChar::GetBlowFrozenState, COMDAT
; _this$ = ecx

; 1571 : 	inline bool GetBlowFrozenState() const { return m_bBlowFrozenState; }

  00000	8a 81 c5 15 00
	00		 mov	 al, BYTE PTR [ecx+5573]
  00006	c3		 ret	 0
?GetBlowFrozenState@ioBaseChar@@QBE_NXZ ENDP		; ioBaseChar::GetBlowFrozenState
_TEXT	ENDS
PUBLIC	?GetState@ioBaseChar@@QBE?AW4CharState@@XZ	; ioBaseChar::GetState
; Function compile flags: /Ogsp
;	COMDAT ?GetState@ioBaseChar@@QBE?AW4CharState@@XZ
_TEXT	SEGMENT
?GetState@ioBaseChar@@QBE?AW4CharState@@XZ PROC		; ioBaseChar::GetState, COMDAT
; _this$ = ecx

; 2156 : 	inline CharState GetState() const { return m_CharState; }	

  00000	8a 81 10 03 00
	00		 mov	 al, BYTE PTR [ecx+784]
  00006	c3		 ret	 0
?GetState@ioBaseChar@@QBE?AW4CharState@@XZ ENDP		; ioBaseChar::GetState
_TEXT	ENDS
PUBLIC	?GetCharName@ioBaseChar@@QBEABVioHashString@@XZ	; ioBaseChar::GetCharName
; Function compile flags: /Ogsp
;	COMDAT ?GetCharName@ioBaseChar@@QBEABVioHashString@@XZ
_TEXT	SEGMENT
?GetCharName@ioBaseChar@@QBEABVioHashString@@XZ PROC	; ioBaseChar::GetCharName, COMDAT
; _this$ = ecx

; 2594 : 	inline const ioHashString& GetCharName() const { return m_Name; }

  00000	8d 81 d4 02 00
	00		 lea	 eax, DWORD PTR [ecx+724]
  00006	c3		 ret	 0
?GetCharName@ioBaseChar@@QBEABVioHashString@@XZ ENDP	; ioBaseChar::GetCharName
_TEXT	ENDS
PUBLIC	_acosf
EXTRN	__fltused:DWORD
EXTRN	__CIacos:PROC
; Function compile flags: /Ogsp
; File c:\program files (x86)\microsoft visual studio 10.0\vc\include\math.h
;	COMDAT _acosf
_TEXT	SEGMENT
tv69 = 8						; size = 4
__X$ = 8						; size = 4
_acosf	PROC						; COMDAT

; 400  :         {return ((float)acos((double)_X)); }

  00000	55		 push	 ebp
  00001	8b ec		 mov	 ebp, esp
  00003	d9 45 08	 fld	 DWORD PTR __X$[ebp]
  00006	e8 00 00 00 00	 call	 __CIacos
  0000b	d9 5d 08	 fstp	 DWORD PTR tv69[ebp]
  0000e	d9 45 08	 fld	 DWORD PTR tv69[ebp]
  00011	5d		 pop	 ebp
  00012	c3		 ret	 0
_acosf	ENDP
_TEXT	ENDS
PUBLIC	_sqrtf
EXTRN	__CIsqrt:PROC
; Function compile flags: /Ogsp
;	COMDAT _sqrtf
_TEXT	SEGMENT
tv69 = 8						; size = 4
__X$ = 8						; size = 4
_sqrtf	PROC						; COMDAT

; 434  :         {return ((float)sqrt((double)_X)); }

  00000	55		 push	 ebp
  00001	8b ec		 mov	 ebp, esp
  00003	d9 45 08	 fld	 DWORD PTR __X$[ebp]
  00006	e8 00 00 00 00	 call	 __CIsqrt
  0000b	d9 5d 08	 fstp	 DWORD PTR tv69[ebp]
  0000e	d9 45 08	 fld	 DWORD PTR tv69[ebp]
  00011	5d		 pop	 ebp
  00012	c3		 ret	 0
_sqrtf	ENDP
_TEXT	ENDS
PUBLIC	?acos@@YAMM@Z					; acos
; Function compile flags: /Ogsp
;	COMDAT ?acos@@YAMM@Z
_TEXT	SEGMENT
tv73 = 8						; size = 4
__X$ = 8						; size = 4
?acos@@YAMM@Z PROC					; acos, COMDAT

; 502  :         {return (acosf(_X)); }

  00000	55		 push	 ebp
  00001	8b ec		 mov	 ebp, esp
  00003	d9 45 08	 fld	 DWORD PTR __X$[ebp]
  00006	e8 00 00 00 00	 call	 __CIacos
  0000b	d9 5d 08	 fstp	 DWORD PTR tv73[ebp]
  0000e	d9 45 08	 fld	 DWORD PTR tv73[ebp]
  00011	5d		 pop	 ebp
  00012	c3		 ret	 0
?acos@@YAMM@Z ENDP					; acos
_TEXT	ENDS
PUBLIC	?GetCreator@ioBaseChar@@QAEPAVioPlayStage@@XZ	; ioBaseChar::GetCreator
; Function compile flags: /Ogsp
; File d:\lost saga for developer\youtube\tutorial\source\src\lsclient\iobasechar.h
;	COMDAT ?GetCreator@ioBaseChar@@QAEPAVioPlayStage@@XZ
_TEXT	SEGMENT
?GetCreator@ioBaseChar@@QAEPAVioPlayStage@@XZ PROC	; ioBaseChar::GetCreator, COMDAT
; _this$ = ecx

; 4013 : 	inline ioPlayStage* GetCreator() { return m_pCreator; }

  00000	8b 81 44 03 00
	00		 mov	 eax, DWORD PTR [ecx+836]
  00006	c3		 ret	 0
?GetCreator@ioBaseChar@@QAEPAVioPlayStage@@XZ ENDP	; ioBaseChar::GetCreator
_TEXT	ENDS
PUBLIC	?InitResource@ioGuide2Weapon@@UAE_NXZ		; ioGuide2Weapon::InitResource
; Function compile flags: /Ogsp
; File d:\lost saga for developer\youtube\tutorial\source\src\lsclient\ioguide2weapon.cpp
;	COMDAT ?InitResource@ioGuide2Weapon@@UAE_NXZ
_TEXT	SEGMENT
?InitResource@ioGuide2Weapon@@UAE_NXZ PROC		; ioGuide2Weapon::InitResource, COMDAT
; _this$ = ecx

; 43   : 	return true;

  00000	b0 01		 mov	 al, 1

; 44   : }

  00002	c3		 ret	 0
?InitResource@ioGuide2Weapon@@UAE_NXZ ENDP		; ioGuide2Weapon::InitResource
_TEXT	ENDS
PUBLIC	?SetWeaponIndex@ioGuide2Weapon@@UAEXK@Z		; ioGuide2Weapon::SetWeaponIndex
; Function compile flags: /Ogsp
;	COMDAT ?SetWeaponIndex@ioGuide2Weapon@@UAEXK@Z
_TEXT	SEGMENT
_dwIndex$ = 8						; size = 4
?SetWeaponIndex@ioGuide2Weapon@@UAEXK@Z PROC		; ioGuide2Weapon::SetWeaponIndex, COMDAT
; _this$ = ecx

; 86   : {

  00000	55		 push	 ebp
  00001	8b ec		 mov	 ebp, esp

; 87   : 	m_dwWeaponIdx = dwIndex;

  00003	8b 45 08	 mov	 eax, DWORD PTR _dwIndex$[ebp]
  00006	89 81 b8 04 00
	00		 mov	 DWORD PTR [ecx+1208], eax

; 88   : }

  0000c	5d		 pop	 ebp
  0000d	c2 04 00	 ret	 4
?SetWeaponIndex@ioGuide2Weapon@@UAEXK@Z ENDP		; ioGuide2Weapon::SetWeaponIndex
_TEXT	ENDS
PUBLIC	?SetMoveDir@ioGuide2Weapon@@UAEXABUD3DXVECTOR3@@@Z ; ioGuide2Weapon::SetMoveDir
EXTRN	?SetOrientation@ioWeapon@@QAEXABUD3DXQUATERNION@@@Z:PROC ; ioWeapon::SetOrientation
EXTRN	?ConvertDirToQuaternion@Help@@YA?AUD3DXQUATERNION@@ABUD3DXVECTOR3@@@Z:PROC ; Help::ConvertDirToQuaternion
EXTRN	_D3DXVec3Normalize@8:PROC
; Function compile flags: /Ogsp
;	COMDAT ?SetMoveDir@ioGuide2Weapon@@UAEXABUD3DXVECTOR3@@@Z
_TEXT	SEGMENT
_qtRot$ = -20						; size = 16
_this$ = -4						; size = 4
_vDir$ = 8						; size = 4
?SetMoveDir@ioGuide2Weapon@@UAEXABUD3DXVECTOR3@@@Z PROC	; ioGuide2Weapon::SetMoveDir, COMDAT
; _this$ = ecx

; 160  : {

  00000	55		 push	 ebp
  00001	8b ec		 mov	 ebp, esp
  00003	83 ec 14	 sub	 esp, 20			; 00000014H
  00006	53		 push	 ebx
  00007	56		 push	 esi

; 161  : 	m_vMoveDir = vDir;

  00008	8b 75 08	 mov	 esi, DWORD PTR _vDir$[ebp]
  0000b	57		 push	 edi
  0000c	8d 99 e4 08 00
	00		 lea	 ebx, DWORD PTR [ecx+2276]
  00012	8b fb		 mov	 edi, ebx
  00014	a5		 movsd
  00015	a5		 movsd

; 162  : 	D3DXVec3Normalize( &m_vMoveDir, &m_vMoveDir );

  00016	53		 push	 ebx
  00017	53		 push	 ebx
  00018	89 4d fc	 mov	 DWORD PTR _this$[ebp], ecx
  0001b	a5		 movsd
  0001c	e8 00 00 00 00	 call	 _D3DXVec3Normalize@8

; 163  : 
; 164  : 	D3DXQUATERNION qtRot = Help::ConvertDirToQuaternion( m_vMoveDir );

  00021	8d 45 ec	 lea	 eax, DWORD PTR _qtRot$[ebp]
  00024	53		 push	 ebx
  00025	50		 push	 eax
  00026	e8 00 00 00 00	 call	 ?ConvertDirToQuaternion@Help@@YA?AUD3DXQUATERNION@@ABUD3DXVECTOR3@@@Z ; Help::ConvertDirToQuaternion
  0002b	59		 pop	 ecx
  0002c	59		 pop	 ecx

; 165  : 	SetOrientation( qtRot );

  0002d	8b 4d fc	 mov	 ecx, DWORD PTR _this$[ebp]
  00030	8d 45 ec	 lea	 eax, DWORD PTR _qtRot$[ebp]
  00033	50		 push	 eax
  00034	e8 00 00 00 00	 call	 ?SetOrientation@ioWeapon@@QAEXABUD3DXQUATERNION@@@Z ; ioWeapon::SetOrientation
  00039	5f		 pop	 edi
  0003a	5e		 pop	 esi
  0003b	5b		 pop	 ebx

; 166  : }

  0003c	c9		 leave
  0003d	c2 04 00	 ret	 4
?SetMoveDir@ioGuide2Weapon@@UAEXABUD3DXVECTOR3@@@Z ENDP	; ioGuide2Weapon::SetMoveDir
_TEXT	ENDS
PUBLIC	?GetMoveDir@ioGuide2Weapon@@UAE?AUD3DXVECTOR3@@XZ ; ioGuide2Weapon::GetMoveDir
; Function compile flags: /Ogsp
;	COMDAT ?GetMoveDir@ioGuide2Weapon@@UAE?AUD3DXVECTOR3@@XZ
_TEXT	SEGMENT
___$ReturnUdt$ = 8					; size = 4
?GetMoveDir@ioGuide2Weapon@@UAE?AUD3DXVECTOR3@@XZ PROC	; ioGuide2Weapon::GetMoveDir, COMDAT
; _this$ = ecx

; 169  : {

  00000	55		 push	 ebp
  00001	8b ec		 mov	 ebp, esp

; 170  : 	return m_vMoveDir;

  00003	8b 45 08	 mov	 eax, DWORD PTR ___$ReturnUdt$[ebp]
  00006	56		 push	 esi
  00007	57		 push	 edi
  00008	8d b1 e4 08 00
	00		 lea	 esi, DWORD PTR [ecx+2276]
  0000e	8b f8		 mov	 edi, eax
  00010	a5		 movsd
  00011	a5		 movsd
  00012	a5		 movsd
  00013	5f		 pop	 edi
  00014	5e		 pop	 esi

; 171  : }

  00015	5d		 pop	 ebp
  00016	c2 04 00	 ret	 4
?GetMoveDir@ioGuide2Weapon@@UAE?AUD3DXVECTOR3@@XZ ENDP	; ioGuide2Weapon::GetMoveDir
_TEXT	ENDS
PUBLIC	?SetStartPosition@ioGuide2Weapon@@UAEXABUD3DXVECTOR3@@PAVioPlayStage@@@Z ; ioGuide2Weapon::SetStartPosition
EXTRN	?SetPosition@ioWeapon@@QAEXABUD3DXVECTOR3@@@Z:PROC ; ioWeapon::SetPosition
EXTRN	__imp_??1ioHashString@@QAE@XZ:PROC
EXTRN	__imp_?HasLinkedSystem@ioEffect@@QBE_NXZ:PROC
EXTRN	__imp_?IsEmpty@ioHashString@@QBE_NXZ:PROC
EXTRN	__imp_?GetSkeletonName@ioEffect@@QBE?AVioHashString@@XZ:PROC
EXTRN	___CxxFrameHandler3:PROC
EXTRN	@__security_check_cookie@4:PROC
EXTRN	__EH_epilog3:PROC
EXTRN	__EH_prolog3:PROC
;	COMDAT xdata$x
xdata$x	SEGMENT
__unwindtable$?SetStartPosition@ioGuide2Weapon@@UAEXABUD3DXVECTOR3@@PAVioPlayStage@@@Z DD 0ffffffffH
	DD	FLAT:__unwindfunclet$?SetStartPosition@ioGuide2Weapon@@UAEXABUD3DXVECTOR3@@PAVioPlayStage@@@Z$0
__ehfuncinfo$?SetStartPosition@ioGuide2Weapon@@UAEXABUD3DXVECTOR3@@PAVioPlayStage@@@Z DD 019930522H
	DD	01H
	DD	FLAT:__unwindtable$?SetStartPosition@ioGuide2Weapon@@UAEXABUD3DXVECTOR3@@PAVioPlayStage@@@Z
	DD	2 DUP(00H)
	DD	2 DUP(00H)
	DD	00H
	DD	01H
; Function compile flags: /Ogsp
xdata$x	ENDS
;	COMDAT ?SetStartPosition@ioGuide2Weapon@@UAEXABUD3DXVECTOR3@@PAVioPlayStage@@@Z
_TEXT	SEGMENT
$T586012 = -32						; size = 16
$T586015 = -16						; size = 4
__$EHRec$ = -12						; size = 12
_vPos$ = 8						; size = 4
_pStage$ = 12						; size = 4
?SetStartPosition@ioGuide2Weapon@@UAEXABUD3DXVECTOR3@@PAVioPlayStage@@@Z PROC ; ioGuide2Weapon::SetStartPosition, COMDAT
; _this$ = ecx

; 174  : {

  00000	6a 14		 push	 20			; 00000014H
  00002	b8 00 00 00 00	 mov	 eax, __ehhandler$?SetStartPosition@ioGuide2Weapon@@UAEXABUD3DXVECTOR3@@PAVioPlayStage@@@Z
  00007	e8 00 00 00 00	 call	 __EH_prolog3
  0000c	8b f1		 mov	 esi, ecx
  0000e	83 65 f0 00	 and	 DWORD PTR $T586015[ebp], 0

; 175  : 	if( m_pFireMesh && m_pFireMesh->GetSkeletonName().IsEmpty() && m_pFireMesh->HasLinkedSystem() )

  00012	8b 8e 98 08 00
	00		 mov	 ecx, DWORD PTR [esi+2200]
  00018	85 c9		 test	 ecx, ecx
  0001a	74 35		 je	 SHORT $LN4@SetStartPo
  0001c	8d 45 e0	 lea	 eax, DWORD PTR $T586012[ebp]
  0001f	50		 push	 eax
  00020	ff 15 00 00 00
	00		 call	 DWORD PTR __imp_?GetSkeletonName@ioEffect@@QBE?AVioHashString@@XZ
  00026	83 65 fc 00	 and	 DWORD PTR __$EHRec$[ebp+8], 0
  0002a	8b c8		 mov	 ecx, eax
  0002c	c7 45 f0 01 00
	00 00		 mov	 DWORD PTR $T586015[ebp], 1
  00033	ff 15 00 00 00
	00		 call	 DWORD PTR __imp_?IsEmpty@ioHashString@@QBE_NXZ
  00039	84 c0		 test	 al, al
  0003b	74 14		 je	 SHORT $LN4@SetStartPo
  0003d	8b 8e 98 08 00
	00		 mov	 ecx, DWORD PTR [esi+2200]
  00043	ff 15 00 00 00
	00		 call	 DWORD PTR __imp_?HasLinkedSystem@ioEffect@@QBE_NXZ
  00049	84 c0		 test	 al, al
  0004b	74 04		 je	 SHORT $LN4@SetStartPo
  0004d	b3 01		 mov	 bl, 1
  0004f	eb 02		 jmp	 SHORT $LN5@SetStartPo
$LN4@SetStartPo:
  00051	32 db		 xor	 bl, bl
$LN5@SetStartPo:
  00053	83 4d fc ff	 or	 DWORD PTR __$EHRec$[ebp+8], -1
  00057	f6 45 f0 01	 test	 BYTE PTR $T586015[ebp], 1
  0005b	74 09		 je	 SHORT $LN8@SetStartPo
  0005d	8d 4d e0	 lea	 ecx, DWORD PTR $T586012[ebp]
  00060	ff 15 00 00 00
	00		 call	 DWORD PTR __imp_??1ioHashString@@QAE@XZ
$LN8@SetStartPo:
  00066	84 db		 test	 bl, bl
  00068	75 0a		 jne	 SHORT $LN2@SetStartPo

; 176  : 		return;
; 177  : 
; 178  : 	SetPosition( vPos );

  0006a	ff 75 08	 push	 DWORD PTR _vPos$[ebp]
  0006d	8b ce		 mov	 ecx, esi
  0006f	e8 00 00 00 00	 call	 ?SetPosition@ioWeapon@@QAEXABUD3DXVECTOR3@@@Z ; ioWeapon::SetPosition
$LN2@SetStartPo:

; 179  : }

  00074	e8 00 00 00 00	 call	 __EH_epilog3
  00079	c2 08 00	 ret	 8
_TEXT	ENDS
;	COMDAT text$x
text$x	SEGMENT
__unwindfunclet$?SetStartPosition@ioGuide2Weapon@@UAEXABUD3DXVECTOR3@@PAVioPlayStage@@@Z$0:
  00000	8b 45 f0	 mov	 eax, DWORD PTR $T586015[ebp]
  00003	83 e0 01	 and	 eax, 1
  00006	0f 84 0d 00 00
	00		 je	 $LN7@SetStartPo
  0000c	83 65 f0 fe	 and	 DWORD PTR $T586015[ebp], -2 ; fffffffeH
  00010	8d 4d e0	 lea	 ecx, DWORD PTR $T586012[ebp]
  00013	ff 25 00 00 00
	00		 jmp	 DWORD PTR __imp_??1ioHashString@@QAE@XZ
$LN7@SetStartPo:
  00019	c3		 ret	 0
__ehhandler$?SetStartPosition@ioGuide2Weapon@@UAEXABUD3DXVECTOR3@@PAVioPlayStage@@@Z:
  0001a	8b 54 24 08	 mov	 edx, DWORD PTR [esp+8]
  0001e	8d 42 0c	 lea	 eax, DWORD PTR [edx+12]
  00021	8b 4a dc	 mov	 ecx, DWORD PTR [edx-36]
  00024	33 c8		 xor	 ecx, eax
  00026	e8 00 00 00 00	 call	 @__security_check_cookie@4
  0002b	b8 00 00 00 00	 mov	 eax, OFFSET __ehfuncinfo$?SetStartPosition@ioGuide2Weapon@@UAEXABUD3DXVECTOR3@@PAVioPlayStage@@@Z
  00030	e9 00 00 00 00	 jmp	 ___CxxFrameHandler3
text$x	ENDS
?SetStartPosition@ioGuide2Weapon@@UAEXABUD3DXVECTOR3@@PAVioPlayStage@@@Z ENDP ; ioGuide2Weapon::SetStartPosition
PUBLIC	?DestroyResource@ioGuide2Weapon@@UAEXPAVioPlayStage@@@Z ; ioGuide2Weapon::DestroyResource
EXTRN	__imp_?DestroyEffect@ioEffectFactory@@QAEXPAVioEffect@@@Z:PROC
EXTRN	__imp_?GetSingleton@ioEffectFactory@@SAAAV1@XZ:PROC
; Function compile flags: /Ogsp
;	COMDAT ?DestroyResource@ioGuide2Weapon@@UAEXPAVioPlayStage@@@Z
_TEXT	SEGMENT
_pStage$ = 8						; size = 4
?DestroyResource@ioGuide2Weapon@@UAEXPAVioPlayStage@@@Z PROC ; ioGuide2Weapon::DestroyResource, COMDAT
; _this$ = ecx

; 485  : {

  00000	56		 push	 esi

; 486  : 	if( m_pFireMesh )

  00001	8d b1 98 08 00
	00		 lea	 esi, DWORD PTR [ecx+2200]
  00007	8b 06		 mov	 eax, DWORD PTR [esi]
  00009	85 c0		 test	 eax, eax
  0000b	74 12		 je	 SHORT $LN1@DestroyRes

; 487  : 	{
; 488  : 		g_EffectFactory.DestroyEffect( m_pFireMesh );

  0000d	50		 push	 eax
  0000e	ff 15 00 00 00
	00		 call	 DWORD PTR __imp_?GetSingleton@ioEffectFactory@@SAAAV1@XZ
  00014	8b c8		 mov	 ecx, eax
  00016	ff 15 00 00 00
	00		 call	 DWORD PTR __imp_?DestroyEffect@ioEffectFactory@@QAEXPAVioEffect@@@Z

; 489  : 		m_pFireMesh = NULL;

  0001c	83 26 00	 and	 DWORD PTR [esi], 0
$LN1@DestroyRes:
  0001f	5e		 pop	 esi

; 490  : 	}
; 491  : }

  00020	c2 04 00	 ret	 4
?DestroyResource@ioGuide2Weapon@@UAEXPAVioPlayStage@@@Z ENDP ; ioGuide2Weapon::DestroyResource
_TEXT	ENDS
PUBLIC	?GetLocalAttackBox@ioGuide2Weapon@@UBEABVioOrientBox@@XZ ; ioGuide2Weapon::GetLocalAttackBox
; Function compile flags: /Ogsp
;	COMDAT ?GetLocalAttackBox@ioGuide2Weapon@@UBEABVioOrientBox@@XZ
_TEXT	SEGMENT
?GetLocalAttackBox@ioGuide2Weapon@@UBEABVioOrientBox@@XZ PROC ; ioGuide2Weapon::GetLocalAttackBox, COMDAT
; _this$ = ecx

; 495  : 	return m_LocalAttackBox;

  00000	8d 81 a0 08 00
	00		 lea	 eax, DWORD PTR [ecx+2208]

; 496  : }

  00006	c3		 ret	 0
?GetLocalAttackBox@ioGuide2Weapon@@UBEABVioOrientBox@@XZ ENDP ; ioGuide2Weapon::GetLocalAttackBox
_TEXT	ENDS
PUBLIC	?GetType@ioGuide2Weapon@@UBE?AW4WeaponType@ioWeapon@@XZ ; ioGuide2Weapon::GetType
; Function compile flags: /Ogsp
;	COMDAT ?GetType@ioGuide2Weapon@@UBE?AW4WeaponType@ioWeapon@@XZ
_TEXT	SEGMENT
?GetType@ioGuide2Weapon@@UBE?AW4WeaponType@ioWeapon@@XZ PROC ; ioGuide2Weapon::GetType, COMDAT
; _this$ = ecx

; 500  : 	return WT_GUIDE2;

  00000	6a 3a		 push	 58			; 0000003aH
  00002	58		 pop	 eax

; 501  : }

  00003	c3		 ret	 0
?GetType@ioGuide2Weapon@@UBE?AW4WeaponType@ioWeapon@@XZ ENDP ; ioGuide2Weapon::GetType
_TEXT	ENDS
PUBLIC	?GetActionStopType@ioGuide2Weapon@@UBE?AW4ActionStopType@@XZ ; ioGuide2Weapon::GetActionStopType
; Function compile flags: /Ogsp
;	COMDAT ?GetActionStopType@ioGuide2Weapon@@UBE?AW4ActionStopType@@XZ
_TEXT	SEGMENT
?GetActionStopType@ioGuide2Weapon@@UBE?AW4ActionStopType@@XZ PROC ; ioGuide2Weapon::GetActionStopType, COMDAT
; _this$ = ecx

; 505  : 	return m_ActionStopType;

  00000	a1 00 00 00 00	 mov	 eax, DWORD PTR ?m_ActionStopType@ioGuide2Weapon@@2W4ActionStopType@@A ; ioGuide2Weapon::m_ActionStopType

; 506  : }

  00005	c3		 ret	 0
?GetActionStopType@ioGuide2Weapon@@UBE?AW4ActionStopType@@XZ ENDP ; ioGuide2Weapon::GetActionStopType
_TEXT	ENDS
PUBLIC	?GetDieActionStopType@ioGuide2Weapon@@UBE?AW4ActionStopType@@XZ ; ioGuide2Weapon::GetDieActionStopType
; Function compile flags: /Ogsp
;	COMDAT ?GetDieActionStopType@ioGuide2Weapon@@UBE?AW4ActionStopType@@XZ
_TEXT	SEGMENT
?GetDieActionStopType@ioGuide2Weapon@@UBE?AW4ActionStopType@@XZ PROC ; ioGuide2Weapon::GetDieActionStopType, COMDAT
; _this$ = ecx

; 510  : 	return m_DieActionStopType;

  00000	a1 00 00 00 00	 mov	 eax, DWORD PTR ?m_DieActionStopType@ioGuide2Weapon@@2W4ActionStopType@@A ; ioGuide2Weapon::m_DieActionStopType

; 511  : }

  00005	c3		 ret	 0
?GetDieActionStopType@ioGuide2Weapon@@UBE?AW4ActionStopType@@XZ ENDP ; ioGuide2Weapon::GetDieActionStopType
_TEXT	ENDS
PUBLIC	??0D3DXVECTOR3@@QAE@XZ				; D3DXVECTOR3::D3DXVECTOR3
; Function compile flags: /Ogsp
; File c:\program files (x86)\microsoft directx sdk (june 2010)\include\d3dx9math.h
;	COMDAT ??0D3DXVECTOR3@@QAE@XZ
_TEXT	SEGMENT
??0D3DXVECTOR3@@QAE@XZ PROC				; D3DXVECTOR3::D3DXVECTOR3, COMDAT
; _this$ = ecx

; 165  :     D3DXVECTOR3() {};

  00000	8b c1		 mov	 eax, ecx
  00002	c3		 ret	 0
??0D3DXVECTOR3@@QAE@XZ ENDP				; D3DXVECTOR3::D3DXVECTOR3
_TEXT	ENDS
PUBLIC	??0D3DXQUATERNION@@QAE@XZ			; D3DXQUATERNION::D3DXQUATERNION
; Function compile flags: /Ogsp
;	COMDAT ??0D3DXQUATERNION@@QAE@XZ
_TEXT	SEGMENT
??0D3DXQUATERNION@@QAE@XZ PROC				; D3DXQUATERNION::D3DXQUATERNION, COMDAT
; _this$ = ecx

; 429  :     D3DXQUATERNION() {}

  00000	8b c1		 mov	 eax, ecx
  00002	c3		 ret	 0
??0D3DXQUATERNION@@QAE@XZ ENDP				; D3DXQUATERNION::D3DXQUATERNION
_TEXT	ENDS
PUBLIC	?GetCollisionEnableTime@ioGuide2Weapon@@UBEKXZ	; ioGuide2Weapon::GetCollisionEnableTime
EXTRN	__imp_?GetLoopSec@ioFrameTimer@@QBEKXZ:PROC
EXTRN	__imp_?GetSingleton@ioFrameTimer@@SAAAV1@XZ:PROC
; Function compile flags: /Ogsp
; File d:\lost saga for developer\youtube\tutorial\source\src\lsclient\ioguide2weapon.cpp
;	COMDAT ?GetCollisionEnableTime@ioGuide2Weapon@@UBEKXZ
_TEXT	SEGMENT
?GetCollisionEnableTime@ioGuide2Weapon@@UBEKXZ PROC	; ioGuide2Weapon::GetCollisionEnableTime, COMDAT
; _this$ = ecx

; 678  : {

  00000	56		 push	 esi
  00001	8b f1		 mov	 esi, ecx

; 679  : 	if( m_WeaponState == WS_MOVE || m_WeaponState == WS_TRACING || m_WeaponState == WS_AFTER_COLLISION )

  00003	8b 86 94 08 00
	00		 mov	 eax, DWORD PTR [esi+2196]
  00009	85 c0		 test	 eax, eax
  0000b	74 1b		 je	 SHORT $LN1@GetCollisi
  0000d	83 f8 01	 cmp	 eax, 1
  00010	74 16		 je	 SHORT $LN1@GetCollisi
  00012	83 f8 02	 cmp	 eax, 2
  00015	74 11		 je	 SHORT $LN1@GetCollisi

; 681  : 
; 682  : 	return FRAMEGETTIME() + 1;

  00017	ff 15 00 00 00
	00		 call	 DWORD PTR __imp_?GetSingleton@ioFrameTimer@@SAAAV1@XZ
  0001d	8b c8		 mov	 ecx, eax
  0001f	ff 15 00 00 00
	00		 call	 DWORD PTR __imp_?GetLoopSec@ioFrameTimer@@QBEKXZ
  00025	40		 inc	 eax
  00026	5e		 pop	 esi

; 683  : }

  00027	c3		 ret	 0
$LN1@GetCollisi:

; 680  : 		return m_dwCreatedTime + GetAttribute()->m_dwCollisionDelay;

  00028	8b 06		 mov	 eax, DWORD PTR [esi]
  0002a	ff 90 3c 01 00
	00		 call	 DWORD PTR [eax+316]
  00030	8b 80 c4 01 00
	00		 mov	 eax, DWORD PTR [eax+452]
  00036	03 86 d4 04 00
	00		 add	 eax, DWORD PTR [esi+1236]
  0003c	5e		 pop	 esi

; 683  : }

  0003d	c3		 ret	 0
?GetCollisionEnableTime@ioGuide2Weapon@@UBEKXZ ENDP	; ioGuide2Weapon::GetCollisionEnableTime
_TEXT	ENDS
PUBLIC	?CheckOwnerState@ioGuide2Weapon@@IAE_NXZ	; ioGuide2Weapon::CheckOwnerState
EXTRN	?GetOwner@ioWeapon@@QBEPAVioBaseChar@@XZ:PROC	; ioWeapon::GetOwner
; Function compile flags: /Ogsp
;	COMDAT ?CheckOwnerState@ioGuide2Weapon@@IAE_NXZ
_TEXT	SEGMENT
?CheckOwnerState@ioGuide2Weapon@@IAE_NXZ PROC		; ioGuide2Weapon::CheckOwnerState, COMDAT
; _this$ = ecx

; 698  : 	ioBaseChar *pOwner = GetOwner();

  00000	e8 00 00 00 00	 call	 ?GetOwner@ioWeapon@@QBEPAVioBaseChar@@XZ ; ioWeapon::GetOwner

; 699  : 	if( !pOwner )

  00005	85 c0		 test	 eax, eax
  00007	75 03		 jne	 SHORT $LN2@CheckOwner

; 700  : 		return false;

  00009	32 c0		 xor	 al, al

; 703  : 		return true;
; 704  : 
; 705  : 	return false;
; 706  : }

  0000b	c3		 ret	 0
$LN2@CheckOwner:

; 701  : 
; 702  : 	if( pOwner->GetState() == CS_USING_SKILL )

  0000c	80 b8 10 03 00
	00 07		 cmp	 BYTE PTR [eax+784], 7
  00013	0f 94 c0	 sete	 al

; 703  : 		return true;
; 704  : 
; 705  : 	return false;
; 706  : }

  00016	c3		 ret	 0
?CheckOwnerState@ioGuide2Weapon@@IAE_NXZ ENDP		; ioGuide2Weapon::CheckOwnerState
_TEXT	ENDS
PUBLIC	?CheckDownTargetState@ioGuide2Weapon@@IAE_NPAVioBaseChar@@@Z ; ioGuide2Weapon::CheckDownTargetState
EXTRN	?IsApplyDownState@ioBaseChar@@QAE_N_N@Z:PROC	; ioBaseChar::IsApplyDownState
EXTRN	?IsFloatingState@ioBaseChar@@QBE_NXZ:PROC	; ioBaseChar::IsFloatingState
; Function compile flags: /Ogsp
;	COMDAT ?CheckDownTargetState@ioGuide2Weapon@@IAE_NPAVioBaseChar@@@Z
_TEXT	SEGMENT
_pTarget$ = 8						; size = 4
?CheckDownTargetState@ioGuide2Weapon@@IAE_NPAVioBaseChar@@@Z PROC ; ioGuide2Weapon::CheckDownTargetState, COMDAT
; _this$ = ecx

; 709  : {

  00000	55		 push	 ebp
  00001	8b ec		 mov	 ebp, esp

; 710  : 	if( !pTarget ) return false;

  00003	8b 4d 08	 mov	 ecx, DWORD PTR _pTarget$[ebp]
  00006	33 d2		 xor	 edx, edx
  00008	3b ca		 cmp	 ecx, edx
  0000a	74 23		 je	 SHORT $LN1@CheckDownT

; 711  : 
; 712  : 	CharState eState = pTarget->GetState();

  0000c	8a 81 10 03 00
	00		 mov	 al, BYTE PTR [ecx+784]

; 713  : 
; 714  : 	if( eState == CS_FROZEN && pTarget->GetBlowFrozenState() )

  00012	3c 17		 cmp	 al, 23			; 00000017H
  00014	75 0c		 jne	 SHORT $LN6@CheckDownT
  00016	38 91 c5 15 00
	00		 cmp	 BYTE PTR [ecx+5573], dl
$LN17@CheckDownT:
  0001c	74 11		 je	 SHORT $LN1@CheckDownT
$LN16@CheckDownT:

; 715  : 		return true;

  0001e	b0 01		 mov	 al, 1
  00020	eb 0f		 jmp	 SHORT $LN8@CheckDownT
$LN6@CheckDownT:

; 716  : 
; 717  : 	if( eState == CS_BLOW_WOUNDED && !pTarget->IsFloatingState() )

  00022	3c 0c		 cmp	 al, 12			; 0000000cH
  00024	75 0f		 jne	 SHORT $LN5@CheckDownT
$LN19@CheckDownT:
  00026	e8 00 00 00 00	 call	 ?IsFloatingState@ioBaseChar@@QBE_NXZ ; ioBaseChar::IsFloatingState
  0002b	84 c0		 test	 al, al
  0002d	74 ef		 je	 SHORT $LN16@CheckDownT
$LN1@CheckDownT:

; 731  : 
; 732  : 	return false;

  0002f	32 c0		 xor	 al, al
$LN8@CheckDownT:

; 733  : }

  00031	5d		 pop	 ebp
  00032	c2 04 00	 ret	 4
$LN5@CheckDownT:

; 718  : 		return true;
; 719  : 
; 720  : 	if( eState == CS_BOUND_BLOW_WOUNDED && !pTarget->IsFloatingState() )

  00035	3c 31		 cmp	 al, 49			; 00000031H

; 721  : 		return true;

  00037	74 ed		 je	 SHORT $LN19@CheckDownT

; 722  : 
; 723  : 	if( eState == CS_ETC_STATE && pTarget->IsApplyDownState(false) )

  00039	3c 0f		 cmp	 al, 15			; 0000000fH
  0003b	75 0a		 jne	 SHORT $LN3@CheckDownT
$LN18@CheckDownT:
  0003d	52		 push	 edx
  0003e	e8 00 00 00 00	 call	 ?IsApplyDownState@ioBaseChar@@QAE_N_N@Z ; ioBaseChar::IsApplyDownState
  00043	84 c0		 test	 al, al

; 724  : 		return true;

  00045	eb d5		 jmp	 SHORT $LN17@CheckDownT
$LN3@CheckDownT:

; 725  : 
; 726  : 	if( eState == CS_USING_SKILL && pTarget->IsApplyDownState(false) )

  00047	3c 07		 cmp	 al, 7

; 727  : 		return true;

  00049	74 f2		 je	 SHORT $LN18@CheckDownT

; 728  : 
; 729  : 	if( eState == CS_STOP_MOTION && pTarget->GetBlowStopMotionState() )

  0004b	3c 26		 cmp	 al, 38			; 00000026H
  0004d	75 e0		 jne	 SHORT $LN1@CheckDownT
  0004f	38 91 c7 15 00
	00		 cmp	 BYTE PTR [ecx+5575], dl

; 730  : 		return true;

  00055	eb c5		 jmp	 SHORT $LN17@CheckDownT
?CheckDownTargetState@ioGuide2Weapon@@IAE_NPAVioBaseChar@@@Z ENDP ; ioGuide2Weapon::CheckDownTargetState
_TEXT	ENDS
PUBLIC	?ProcessGuidArrow@ioGuide2Weapon@@IAEXXZ	; ioGuide2Weapon::ProcessGuidArrow
EXTRN	?Process@ioUroborusGuideArrow@@QAEXPAVioBaseChar@@UD3DXVECTOR3@@@Z:PROC ; ioUroborusGuideArrow::Process
; Function compile flags: /Ogsp
;	COMDAT ?ProcessGuidArrow@ioGuide2Weapon@@IAEXXZ
_TEXT	SEGMENT
?ProcessGuidArrow@ioGuide2Weapon@@IAEXXZ PROC		; ioGuide2Weapon::ProcessGuidArrow, COMDAT
; _this$ = ecx

; 736  : {

  00000	53		 push	 ebx
  00001	8b d9		 mov	 ebx, ecx

; 737  : 	if( !m_pGuideArrow )

  00003	83 bb 9c 08 00
	00 00		 cmp	 DWORD PTR [ebx+2204], 0
  0000a	56		 push	 esi
  0000b	57		 push	 edi
  0000c	74 22		 je	 SHORT $LN2@ProcessGui

; 738  : 		return;
; 739  : 
; 740  : 	m_pGuideArrow->Process( GetOwner(), GetPosition() );

  0000e	8b 03		 mov	 eax, DWORD PTR [ebx]
  00010	ff 50 70	 call	 DWORD PTR [eax+112]
  00013	83 ec 0c	 sub	 esp, 12			; 0000000cH
  00016	8b f0		 mov	 esi, eax
  00018	8b fc		 mov	 edi, esp
  0001a	a5		 movsd
  0001b	a5		 movsd
  0001c	8b cb		 mov	 ecx, ebx
  0001e	a5		 movsd
  0001f	e8 00 00 00 00	 call	 ?GetOwner@ioWeapon@@QBEPAVioBaseChar@@XZ ; ioWeapon::GetOwner
  00024	8b 8b 9c 08 00
	00		 mov	 ecx, DWORD PTR [ebx+2204]
  0002a	50		 push	 eax
  0002b	e8 00 00 00 00	 call	 ?Process@ioUroborusGuideArrow@@QAEXPAVioBaseChar@@UD3DXVECTOR3@@@Z ; ioUroborusGuideArrow::Process
$LN2@ProcessGui:

; 741  : }

  00030	5f		 pop	 edi
  00031	5e		 pop	 esi
  00032	5b		 pop	 ebx
  00033	c3		 ret	 0
?ProcessGuidArrow@ioGuide2Weapon@@IAEXXZ ENDP		; ioGuide2Weapon::ProcessGuidArrow
_TEXT	ENDS
PUBLIC	?SetTraceTarget@ioGuide2Weapon@@QAEXAAVioHashString@@@Z ; ioGuide2Weapon::SetTraceTarget
EXTRN	__imp_??4ioHashString@@QAEAAV0@ABV0@@Z:PROC
; Function compile flags: /Ogsp
;	COMDAT ?SetTraceTarget@ioGuide2Weapon@@QAEXAAVioHashString@@@Z
_TEXT	SEGMENT
_szName$ = 8						; size = 4
?SetTraceTarget@ioGuide2Weapon@@QAEXAAVioHashString@@@Z PROC ; ioGuide2Weapon::SetTraceTarget, COMDAT
; _this$ = ecx

; 805  : {

  00000	55		 push	 ebp
  00001	8b ec		 mov	 ebp, esp

; 806  : 	m_TargetName = szName;

  00003	81 c1 fc 08 00
	00		 add	 ecx, 2300		; 000008fcH

; 807  : }

  00009	5d		 pop	 ebp

; 806  : 	m_TargetName = szName;

  0000a	ff 25 00 00 00
	00		 jmp	 DWORD PTR __imp_??4ioHashString@@QAEAAV0@ABV0@@Z
?SetTraceTarget@ioGuide2Weapon@@QAEXAAVioHashString@@@Z ENDP ; ioGuide2Weapon::SetTraceTarget
_TEXT	ENDS
PUBLIC	??0D3DXVECTOR3@@QAE@MMM@Z			; D3DXVECTOR3::D3DXVECTOR3
; Function compile flags: /Ogsp
; File c:\program files (x86)\microsoft directx sdk (june 2010)\include\d3dx9math.inl
;	COMDAT ??0D3DXVECTOR3@@QAE@MMM@Z
_TEXT	SEGMENT
_fx$ = 8						; size = 4
_fy$ = 12						; size = 4
_fz$ = 16						; size = 4
??0D3DXVECTOR3@@QAE@MMM@Z PROC				; D3DXVECTOR3::D3DXVECTOR3, COMDAT
; _this$ = ecx

; 303  : {

  00000	55		 push	 ebp
  00001	8b ec		 mov	 ebp, esp

; 304  :     x = fx;

  00003	f3 0f 10 45 08	 movss	 xmm0, DWORD PTR _fx$[ebp]
  00008	8b c1		 mov	 eax, ecx
  0000a	f3 0f 11 00	 movss	 DWORD PTR [eax], xmm0

; 305  :     y = fy;

  0000e	f3 0f 10 45 0c	 movss	 xmm0, DWORD PTR _fy$[ebp]
  00013	f3 0f 11 40 04	 movss	 DWORD PTR [eax+4], xmm0

; 306  :     z = fz;

  00018	f3 0f 10 45 10	 movss	 xmm0, DWORD PTR _fz$[ebp]
  0001d	f3 0f 11 40 08	 movss	 DWORD PTR [eax+8], xmm0

; 307  : }

  00022	5d		 pop	 ebp
  00023	c2 0c 00	 ret	 12			; 0000000cH
??0D3DXVECTOR3@@QAE@MMM@Z ENDP				; D3DXVECTOR3::D3DXVECTOR3
_TEXT	ENDS
PUBLIC	__mask@@NegFloat@
PUBLIC	??GD3DXVECTOR3@@QBE?AU0@XZ			; D3DXVECTOR3::operator-
;	COMDAT __mask@@NegFloat@
CONST	SEGMENT
__mask@@NegFloat@ DB 00H, 00H, 00H, 080H, 00H, 00H, 00H, 080H, 00H, 00H, 00H
	DB	080H, 00H, 00H, 00H, 080H
; Function compile flags: /Ogsp
CONST	ENDS
;	COMDAT ??GD3DXVECTOR3@@QBE?AU0@XZ
_TEXT	SEGMENT
___$ReturnUdt$ = 8					; size = 4
??GD3DXVECTOR3@@QBE?AU0@XZ PROC				; D3DXVECTOR3::operator-, COMDAT
; _this$ = ecx

; 372  : {

  00000	55		 push	 ebp
  00001	8b ec		 mov	 ebp, esp

; 373  :     return D3DXVECTOR3(-x, -y, -z);

  00003	f3 0f 10 05 00
	00 00 00	 movss	 xmm0, DWORD PTR __mask@@NegFloat@
  0000b	8b 45 08	 mov	 eax, DWORD PTR ___$ReturnUdt$[ebp]
  0000e	f3 0f 10 09	 movss	 xmm1, DWORD PTR [ecx]
  00012	0f 57 c8	 xorps	 xmm1, xmm0
  00015	f3 0f 11 08	 movss	 DWORD PTR [eax], xmm1
  00019	f3 0f 10 49 04	 movss	 xmm1, DWORD PTR [ecx+4]
  0001e	0f 57 c8	 xorps	 xmm1, xmm0
  00021	f3 0f 11 48 04	 movss	 DWORD PTR [eax+4], xmm1
  00026	f3 0f 10 49 08	 movss	 xmm1, DWORD PTR [ecx+8]
  0002b	0f 57 c8	 xorps	 xmm1, xmm0
  0002e	f3 0f 11 48 08	 movss	 DWORD PTR [eax+8], xmm1

; 374  : }

  00033	5d		 pop	 ebp
  00034	c2 04 00	 ret	 4
??GD3DXVECTOR3@@QBE?AU0@XZ ENDP				; D3DXVECTOR3::operator-
_TEXT	ENDS
PUBLIC	??HD3DXVECTOR3@@QBE?AU0@ABU0@@Z			; D3DXVECTOR3::operator+
; Function compile flags: /Ogsp
;	COMDAT ??HD3DXVECTOR3@@QBE?AU0@ABU0@@Z
_TEXT	SEGMENT
___$ReturnUdt$ = 8					; size = 4
_v$ = 12						; size = 4
??HD3DXVECTOR3@@QBE?AU0@ABU0@@Z PROC			; D3DXVECTOR3::operator+, COMDAT
; _this$ = ecx

; 380  : {

  00000	55		 push	 ebp
  00001	8b ec		 mov	 ebp, esp

; 381  :     return D3DXVECTOR3(x + v.x, y + v.y, z + v.z);

  00003	8b 55 0c	 mov	 edx, DWORD PTR _v$[ebp]
  00006	f3 0f 10 02	 movss	 xmm0, DWORD PTR [edx]
  0000a	f3 0f 10 09	 movss	 xmm1, DWORD PTR [ecx]
  0000e	8b 45 08	 mov	 eax, DWORD PTR ___$ReturnUdt$[ebp]
  00011	0f 5a c0	 cvtps2pd xmm0, xmm0
  00014	0f 5a c9	 cvtps2pd xmm1, xmm1
  00017	f2 0f 58 c1	 addsd	 xmm0, xmm1
  0001b	f3 0f 10 49 04	 movss	 xmm1, DWORD PTR [ecx+4]
  00020	66 0f 5a c0	 cvtpd2ps xmm0, xmm0
  00024	f3 0f 11 00	 movss	 DWORD PTR [eax], xmm0
  00028	f3 0f 10 42 04	 movss	 xmm0, DWORD PTR [edx+4]
  0002d	0f 5a c0	 cvtps2pd xmm0, xmm0
  00030	0f 5a c9	 cvtps2pd xmm1, xmm1
  00033	f2 0f 58 c1	 addsd	 xmm0, xmm1
  00037	f3 0f 10 49 08	 movss	 xmm1, DWORD PTR [ecx+8]
  0003c	66 0f 5a c0	 cvtpd2ps xmm0, xmm0
  00040	f3 0f 11 40 04	 movss	 DWORD PTR [eax+4], xmm0
  00045	f3 0f 10 42 08	 movss	 xmm0, DWORD PTR [edx+8]
  0004a	0f 5a c0	 cvtps2pd xmm0, xmm0
  0004d	0f 5a c9	 cvtps2pd xmm1, xmm1
  00050	f2 0f 58 c1	 addsd	 xmm0, xmm1
  00054	66 0f 5a c0	 cvtpd2ps xmm0, xmm0
  00058	f3 0f 11 40 08	 movss	 DWORD PTR [eax+8], xmm0

; 382  : }

  0005d	5d		 pop	 ebp
  0005e	c2 08 00	 ret	 8
??HD3DXVECTOR3@@QBE?AU0@ABU0@@Z ENDP			; D3DXVECTOR3::operator+
_TEXT	ENDS
PUBLIC	??GD3DXVECTOR3@@QBE?AU0@ABU0@@Z			; D3DXVECTOR3::operator-
; Function compile flags: /Ogsp
;	COMDAT ??GD3DXVECTOR3@@QBE?AU0@ABU0@@Z
_TEXT	SEGMENT
___$ReturnUdt$ = 8					; size = 4
_v$ = 12						; size = 4
??GD3DXVECTOR3@@QBE?AU0@ABU0@@Z PROC			; D3DXVECTOR3::operator-, COMDAT
; _this$ = ecx

; 386  : {

  00000	55		 push	 ebp
  00001	8b ec		 mov	 ebp, esp

; 387  :     return D3DXVECTOR3(x - v.x, y - v.y, z - v.z);

  00003	8b 55 0c	 mov	 edx, DWORD PTR _v$[ebp]
  00006	f3 0f 10 01	 movss	 xmm0, DWORD PTR [ecx]
  0000a	f3 0f 10 0a	 movss	 xmm1, DWORD PTR [edx]
  0000e	8b 45 08	 mov	 eax, DWORD PTR ___$ReturnUdt$[ebp]
  00011	0f 5a c0	 cvtps2pd xmm0, xmm0
  00014	0f 5a c9	 cvtps2pd xmm1, xmm1
  00017	f2 0f 5c c1	 subsd	 xmm0, xmm1
  0001b	f3 0f 10 4a 04	 movss	 xmm1, DWORD PTR [edx+4]
  00020	66 0f 5a c0	 cvtpd2ps xmm0, xmm0
  00024	f3 0f 11 00	 movss	 DWORD PTR [eax], xmm0
  00028	f3 0f 10 41 04	 movss	 xmm0, DWORD PTR [ecx+4]
  0002d	0f 5a c0	 cvtps2pd xmm0, xmm0
  00030	0f 5a c9	 cvtps2pd xmm1, xmm1
  00033	f2 0f 5c c1	 subsd	 xmm0, xmm1
  00037	f3 0f 10 4a 08	 movss	 xmm1, DWORD PTR [edx+8]
  0003c	66 0f 5a c0	 cvtpd2ps xmm0, xmm0
  00040	f3 0f 11 40 04	 movss	 DWORD PTR [eax+4], xmm0
  00045	f3 0f 10 41 08	 movss	 xmm0, DWORD PTR [ecx+8]
  0004a	0f 5a c0	 cvtps2pd xmm0, xmm0
  0004d	0f 5a c9	 cvtps2pd xmm1, xmm1
  00050	f2 0f 5c c1	 subsd	 xmm0, xmm1
  00054	66 0f 5a c0	 cvtpd2ps xmm0, xmm0
  00058	f3 0f 11 40 08	 movss	 DWORD PTR [eax+8], xmm0

; 388  : }

  0005d	5d		 pop	 ebp
  0005e	c2 08 00	 ret	 8
??GD3DXVECTOR3@@QBE?AU0@ABU0@@Z ENDP			; D3DXVECTOR3::operator-
_TEXT	ENDS
PUBLIC	??DD3DXVECTOR3@@QBE?AU0@M@Z			; D3DXVECTOR3::operator*
; Function compile flags: /Ogsp
;	COMDAT ??DD3DXVECTOR3@@QBE?AU0@M@Z
_TEXT	SEGMENT
___$ReturnUdt$ = 8					; size = 4
_f$ = 12						; size = 4
??DD3DXVECTOR3@@QBE?AU0@M@Z PROC			; D3DXVECTOR3::operator*, COMDAT
; _this$ = ecx

; 392  : {

  00000	55		 push	 ebp
  00001	8b ec		 mov	 ebp, esp

; 393  :     return D3DXVECTOR3(x * f, y * f, z * f);

  00003	f3 0f 10 4d 0c	 movss	 xmm1, DWORD PTR _f$[ebp]
  00008	f3 0f 10 01	 movss	 xmm0, DWORD PTR [ecx]
  0000c	8b 45 08	 mov	 eax, DWORD PTR ___$ReturnUdt$[ebp]
  0000f	0f 5a c0	 cvtps2pd xmm0, xmm0
  00012	0f 5a c9	 cvtps2pd xmm1, xmm1
  00015	f2 0f 59 c1	 mulsd	 xmm0, xmm1
  00019	f3 0f 10 4d 0c	 movss	 xmm1, DWORD PTR _f$[ebp]
  0001e	66 0f 5a c0	 cvtpd2ps xmm0, xmm0
  00022	f3 0f 11 00	 movss	 DWORD PTR [eax], xmm0
  00026	f3 0f 10 41 04	 movss	 xmm0, DWORD PTR [ecx+4]
  0002b	0f 5a c0	 cvtps2pd xmm0, xmm0
  0002e	0f 5a c9	 cvtps2pd xmm1, xmm1
  00031	f2 0f 59 c1	 mulsd	 xmm0, xmm1
  00035	f3 0f 10 4d 0c	 movss	 xmm1, DWORD PTR _f$[ebp]
  0003a	66 0f 5a c0	 cvtpd2ps xmm0, xmm0
  0003e	f3 0f 11 40 04	 movss	 DWORD PTR [eax+4], xmm0
  00043	f3 0f 10 41 08	 movss	 xmm0, DWORD PTR [ecx+8]
  00048	0f 5a c0	 cvtps2pd xmm0, xmm0
  0004b	0f 5a c9	 cvtps2pd xmm1, xmm1
  0004e	f2 0f 59 c1	 mulsd	 xmm0, xmm1
  00052	66 0f 5a c0	 cvtpd2ps xmm0, xmm0
  00056	f3 0f 11 40 08	 movss	 DWORD PTR [eax+8], xmm0

; 394  : }

  0005b	5d		 pop	 ebp
  0005c	c2 08 00	 ret	 8
??DD3DXVECTOR3@@QBE?AU0@M@Z ENDP			; D3DXVECTOR3::operator*
_TEXT	ENDS
PUBLIC	??9D3DXVECTOR3@@QBEHABU0@@Z			; D3DXVECTOR3::operator!=
; Function compile flags: /Ogsp
;	COMDAT ??9D3DXVECTOR3@@QBEHABU0@@Z
_TEXT	SEGMENT
_v$ = 8							; size = 4
??9D3DXVECTOR3@@QBEHABU0@@Z PROC			; D3DXVECTOR3::operator!=, COMDAT
; _this$ = ecx

; 419  : {

  00000	55		 push	 ebp
  00001	8b ec		 mov	 ebp, esp

; 420  :     return x != v.x || y != v.y || z != v.z;

  00003	8b 55 08	 mov	 edx, DWORD PTR _v$[ebp]
  00006	f3 0f 10 01	 movss	 xmm0, DWORD PTR [ecx]
  0000a	f3 0f 10 0a	 movss	 xmm1, DWORD PTR [edx]
  0000e	0f 5a c0	 cvtps2pd xmm0, xmm0
  00011	0f 5a c9	 cvtps2pd xmm1, xmm1
  00014	66 0f 2e c1	 ucomisd xmm0, xmm1
  00018	9f		 lahf
  00019	f6 c4 44	 test	 ah, 68			; 00000044H
  0001c	7a 38		 jp	 SHORT $LN3@operator
  0001e	f3 0f 10 41 04	 movss	 xmm0, DWORD PTR [ecx+4]
  00023	f3 0f 10 4a 04	 movss	 xmm1, DWORD PTR [edx+4]
  00028	0f 5a c0	 cvtps2pd xmm0, xmm0
  0002b	0f 5a c9	 cvtps2pd xmm1, xmm1
  0002e	66 0f 2e c1	 ucomisd xmm0, xmm1
  00032	9f		 lahf
  00033	f6 c4 44	 test	 ah, 68			; 00000044H
  00036	7a 1e		 jp	 SHORT $LN3@operator
  00038	f3 0f 10 41 08	 movss	 xmm0, DWORD PTR [ecx+8]
  0003d	f3 0f 10 4a 08	 movss	 xmm1, DWORD PTR [edx+8]
  00042	0f 5a c0	 cvtps2pd xmm0, xmm0
  00045	0f 5a c9	 cvtps2pd xmm1, xmm1
  00048	66 0f 2e c1	 ucomisd xmm0, xmm1
  0004c	9f		 lahf
  0004d	f6 c4 44	 test	 ah, 68			; 00000044H
  00050	7a 04		 jp	 SHORT $LN3@operator
  00052	33 c0		 xor	 eax, eax
  00054	eb 03		 jmp	 SHORT $LN4@operator
$LN3@operator:
  00056	33 c0		 xor	 eax, eax
  00058	40		 inc	 eax
$LN4@operator:

; 421  : }

  00059	5d		 pop	 ebp
  0005a	c2 04 00	 ret	 4
??9D3DXVECTOR3@@QBEHABU0@@Z ENDP			; D3DXVECTOR3::operator!=
_TEXT	ENDS
PUBLIC	?D3DXVec3Length@@YAMPBUD3DXVECTOR3@@@Z		; D3DXVec3Length
; Function compile flags: /Ogsp
;	COMDAT ?D3DXVec3Length@@YAMPBUD3DXVECTOR3@@@Z
_TEXT	SEGMENT
tv169 = 8						; size = 4
tv160 = 8						; size = 4
_pV$ = 8						; size = 4
?D3DXVec3Length@@YAMPBUD3DXVECTOR3@@@Z PROC		; D3DXVec3Length, COMDAT

; 1710 : {

  00000	55		 push	 ebp
  00001	8b ec		 mov	 ebp, esp

; 1711 : #ifdef D3DX_DEBUG
; 1712 :     if(!pV)
; 1713 :         return 0.0f;
; 1714 : #endif
; 1715 : 
; 1716 : #ifdef __cplusplus
; 1717 :     return sqrtf(pV->x * pV->x + pV->y * pV->y + pV->z * pV->z);

  00003	8b 45 08	 mov	 eax, DWORD PTR _pV$[ebp]
  00006	d9 40 04	 fld	 DWORD PTR [eax+4]
  00009	d9 00		 fld	 DWORD PTR [eax]
  0000b	d9 40 08	 fld	 DWORD PTR [eax+8]
  0000e	d9 c1		 fld	 ST(1)
  00010	de ca		 fmulp	 ST(2), ST(0)
  00012	d9 c2		 fld	 ST(2)
  00014	de cb		 fmulp	 ST(3), ST(0)
  00016	d9 c9		 fxch	 ST(1)
  00018	de c2		 faddp	 ST(2), ST(0)
  0001a	d9 c0		 fld	 ST(0)
  0001c	de c9		 fmulp	 ST(1), ST(0)
  0001e	de c1		 faddp	 ST(1), ST(0)
  00020	d9 5d 08	 fstp	 DWORD PTR tv169[ebp]
  00023	d9 45 08	 fld	 DWORD PTR tv169[ebp]
  00026	e8 00 00 00 00	 call	 __CIsqrt
  0002b	d9 5d 08	 fstp	 DWORD PTR tv160[ebp]
  0002e	d9 45 08	 fld	 DWORD PTR tv160[ebp]

; 1718 : #else
; 1719 :     return (FLOAT) sqrt(pV->x * pV->x + pV->y * pV->y + pV->z * pV->z);
; 1720 : #endif
; 1721 : }

  00031	5d		 pop	 ebp
  00032	c3		 ret	 0
?D3DXVec3Length@@YAMPBUD3DXVECTOR3@@@Z ENDP		; D3DXVec3Length
_TEXT	ENDS
PUBLIC	?D3DXVec3LengthSq@@YAMPBUD3DXVECTOR3@@@Z	; D3DXVec3LengthSq
; Function compile flags: /Ogsp
;	COMDAT ?D3DXVec3LengthSq@@YAMPBUD3DXVECTOR3@@@Z
_TEXT	SEGMENT
tv165 = 8						; size = 4
_pV$ = 8						; size = 4
?D3DXVec3LengthSq@@YAMPBUD3DXVECTOR3@@@Z PROC		; D3DXVec3LengthSq, COMDAT

; 1725 : {

  00000	55		 push	 ebp
  00001	8b ec		 mov	 ebp, esp

; 1726 : #ifdef D3DX_DEBUG
; 1727 :     if(!pV)
; 1728 :         return 0.0f;
; 1729 : #endif
; 1730 : 
; 1731 :     return pV->x * pV->x + pV->y * pV->y + pV->z * pV->z;

  00003	8b 45 08	 mov	 eax, DWORD PTR _pV$[ebp]
  00006	d9 40 04	 fld	 DWORD PTR [eax+4]
  00009	d9 00		 fld	 DWORD PTR [eax]
  0000b	d9 40 08	 fld	 DWORD PTR [eax+8]
  0000e	d9 c1		 fld	 ST(1)
  00010	de ca		 fmulp	 ST(2), ST(0)
  00012	d9 c2		 fld	 ST(2)
  00014	de cb		 fmulp	 ST(3), ST(0)
  00016	d9 c9		 fxch	 ST(1)
  00018	de c2		 faddp	 ST(2), ST(0)
  0001a	d9 c0		 fld	 ST(0)
  0001c	de c9		 fmulp	 ST(1), ST(0)
  0001e	de c1		 faddp	 ST(1), ST(0)
  00020	d9 5d 08	 fstp	 DWORD PTR tv165[ebp]
  00023	d9 45 08	 fld	 DWORD PTR tv165[ebp]

; 1732 : }

  00026	5d		 pop	 ebp
  00027	c3		 ret	 0
?D3DXVec3LengthSq@@YAMPBUD3DXVECTOR3@@@Z ENDP		; D3DXVec3LengthSq
_TEXT	ENDS
PUBLIC	?D3DXVec3Dot@@YAMPBUD3DXVECTOR3@@0@Z		; D3DXVec3Dot
; Function compile flags: /Ogsp
;	COMDAT ?D3DXVec3Dot@@YAMPBUD3DXVECTOR3@@0@Z
_TEXT	SEGMENT
tv188 = 8						; size = 4
_pV1$ = 8						; size = 4
_pV2$ = 12						; size = 4
?D3DXVec3Dot@@YAMPBUD3DXVECTOR3@@0@Z PROC		; D3DXVec3Dot, COMDAT

; 1736 : {

  00000	55		 push	 ebp
  00001	8b ec		 mov	 ebp, esp

; 1737 : #ifdef D3DX_DEBUG
; 1738 :     if(!pV1 || !pV2)
; 1739 :         return 0.0f;
; 1740 : #endif
; 1741 : 
; 1742 :     return pV1->x * pV2->x + pV1->y * pV2->y + pV1->z * pV2->z;

  00003	8b 45 08	 mov	 eax, DWORD PTR _pV1$[ebp]
  00006	8b 4d 0c	 mov	 ecx, DWORD PTR _pV2$[ebp]
  00009	d9 40 04	 fld	 DWORD PTR [eax+4]
  0000c	d8 49 04	 fmul	 DWORD PTR [ecx+4]
  0000f	d9 00		 fld	 DWORD PTR [eax]
  00011	d8 09		 fmul	 DWORD PTR [ecx]
  00013	de c1		 faddp	 ST(1), ST(0)
  00015	d9 40 08	 fld	 DWORD PTR [eax+8]
  00018	d8 49 08	 fmul	 DWORD PTR [ecx+8]
  0001b	de c1		 faddp	 ST(1), ST(0)
  0001d	d9 5d 08	 fstp	 DWORD PTR tv188[ebp]
  00020	d9 45 08	 fld	 DWORD PTR tv188[ebp]

; 1743 : }

  00023	5d		 pop	 ebp
  00024	c3		 ret	 0
?D3DXVec3Dot@@YAMPBUD3DXVECTOR3@@0@Z ENDP		; D3DXVec3Dot
_TEXT	ENDS
PUBLIC	?D3DXVec3Cross@@YAPAUD3DXVECTOR3@@PAU1@PBU1@1@Z	; D3DXVec3Cross
; Function compile flags: /Ogsp
;	COMDAT ?D3DXVec3Cross@@YAPAUD3DXVECTOR3@@PAU1@PBU1@1@Z
_TEXT	SEGMENT
_v$ = -12						; size = 12
_pOut$ = 8						; size = 4
_pV1$ = 12						; size = 4
_pV2$ = 16						; size = 4
?D3DXVec3Cross@@YAPAUD3DXVECTOR3@@PAU1@PBU1@1@Z PROC	; D3DXVec3Cross, COMDAT

; 1747 : {

  00000	55		 push	 ebp
  00001	8b ec		 mov	 ebp, esp
  00003	83 ec 0c	 sub	 esp, 12			; 0000000cH

; 1757 :     v.z = pV1->x * pV2->y - pV1->y * pV2->x;
; 1758 : 
; 1759 :     *pOut = v;

  00006	56		 push	 esi
  00007	57		 push	 edi

; 1748 :     D3DXVECTOR3 v;
; 1749 : 
; 1750 : #ifdef D3DX_DEBUG
; 1751 :     if(!pOut || !pV1 || !pV2)
; 1752 :         return NULL;
; 1753 : #endif
; 1754 : 
; 1755 :     v.x = pV1->y * pV2->z - pV1->z * pV2->y;

  00008	8b 45 0c	 mov	 eax, DWORD PTR _pV1$[ebp]
  0000b	f3 0f 10 40 04	 movss	 xmm0, DWORD PTR [eax+4]
  00010	f3 0f 10 50 08	 movss	 xmm2, DWORD PTR [eax+8]
  00015	8b 4d 10	 mov	 ecx, DWORD PTR _pV2$[ebp]
  00018	f3 0f 10 49 08	 movss	 xmm1, DWORD PTR [ecx+8]
  0001d	f3 0f 10 59 04	 movss	 xmm3, DWORD PTR [ecx+4]
  00022	0f 5a e8	 cvtps2pd xmm5, xmm0
  00025	0f 5a e1	 cvtps2pd xmm4, xmm1
  00028	0f 5a f2	 cvtps2pd xmm6, xmm2
  0002b	f2 0f 59 e5	 mulsd	 xmm4, xmm5

; 1756 :     v.y = pV1->z * pV2->x - pV1->x * pV2->z;

  0002f	0f 5a d2	 cvtps2pd xmm2, xmm2
  00032	0f 5a c9	 cvtps2pd xmm1, xmm1
  00035	0f 5a eb	 cvtps2pd xmm5, xmm3
  00038	f2 0f 59 ee	 mulsd	 xmm5, xmm6
  0003c	f2 0f 5c e5	 subsd	 xmm4, xmm5
  00040	f3 0f 10 28	 movss	 xmm5, DWORD PTR [eax]

; 1757 :     v.z = pV1->x * pV2->y - pV1->y * pV2->x;
; 1758 : 
; 1759 :     *pOut = v;

  00044	8b 45 08	 mov	 eax, DWORD PTR _pOut$[ebp]
  00047	66 0f 5a e4	 cvtpd2ps xmm4, xmm4
  0004b	f3 0f 11 65 f4	 movss	 DWORD PTR _v$[ebp], xmm4
  00050	f3 0f 10 21	 movss	 xmm4, DWORD PTR [ecx]
  00054	0f 5a f4	 cvtps2pd xmm6, xmm4
  00057	f2 0f 59 f2	 mulsd	 xmm6, xmm2
  0005b	0f 5a d5	 cvtps2pd xmm2, xmm5
  0005e	f2 0f 59 d1	 mulsd	 xmm2, xmm1
  00062	f2 0f 5c f2	 subsd	 xmm6, xmm2
  00066	66 0f 5a ce	 cvtpd2ps xmm1, xmm6
  0006a	f3 0f 11 4d f8	 movss	 DWORD PTR _v$[ebp+4], xmm1
  0006f	0f 5a c0	 cvtps2pd xmm0, xmm0
  00072	0f 5a d3	 cvtps2pd xmm2, xmm3
  00075	0f 5a cd	 cvtps2pd xmm1, xmm5
  00078	f2 0f 59 ca	 mulsd	 xmm1, xmm2
  0007c	8d 75 f4	 lea	 esi, DWORD PTR _v$[ebp]
  0007f	8b f8		 mov	 edi, eax
  00081	0f 5a d4	 cvtps2pd xmm2, xmm4
  00084	f2 0f 59 d0	 mulsd	 xmm2, xmm0
  00088	f2 0f 5c ca	 subsd	 xmm1, xmm2
  0008c	66 0f 5a c1	 cvtpd2ps xmm0, xmm1
  00090	f3 0f 11 45 fc	 movss	 DWORD PTR _v$[ebp+8], xmm0
  00095	a5		 movsd
  00096	a5		 movsd
  00097	a5		 movsd
  00098	5f		 pop	 edi
  00099	5e		 pop	 esi

; 1760 :     return pOut;
; 1761 : }

  0009a	c9		 leave
  0009b	c3		 ret	 0
?D3DXVec3Cross@@YAPAUD3DXVECTOR3@@PAU1@PBU1@1@Z ENDP	; D3DXVec3Cross
_TEXT	ENDS
PUBLIC	?_DECSTR@@YAXPADH@Z				; _DECSTR
; Function compile flags: /Ogsp
; File d:\lost saga for developer\youtube\tutorial\source\src\lsclient\stringprotect.h
;	COMDAT ?_DECSTR@@YAXPADH@Z
_TEXT	SEGMENT
_s$ = 8							; size = 4
_l$ = 12						; size = 4
?_DECSTR@@YAXPADH@Z PROC				; _DECSTR, COMDAT

; 40   : __forceinline void _DECSTR(char* s, int l){int i=0,l4=(l-1)/4,*p=(int*)s;s[l-1]=0;for(;i<l4;++i)*(p++)^=0xEAEBECED;for(i=l4*4;i<l-1;++i)s[i]^=0xED-i%4;}

  00000	55		 push	 ebp
  00001	8b ec		 mov	 ebp, esp
  00003	8b 4d 0c	 mov	 ecx, DWORD PTR _l$[ebp]
  00006	56		 push	 esi
  00007	8b 75 08	 mov	 esi, DWORD PTR _s$[ebp]
  0000a	57		 push	 edi
  0000b	8d 79 ff	 lea	 edi, DWORD PTR [ecx-1]
  0000e	8b c7		 mov	 eax, edi
  00010	99		 cdq
  00011	83 e2 03	 and	 edx, 3
  00014	03 c2		 add	 eax, edx
  00016	c1 f8 02	 sar	 eax, 2
  00019	8b d6		 mov	 edx, esi
  0001b	c6 44 0e ff 00	 mov	 BYTE PTR [esi+ecx-1], 0
  00020	85 c0		 test	 eax, eax
  00022	7e 0e		 jle	 SHORT $LN4@DECSTR
  00024	8b c8		 mov	 ecx, eax
$LL6@DECSTR:
  00026	81 32 ed ec eb
	ea		 xor	 DWORD PTR [edx], -353637139 ; eaebecedH
  0002c	83 c2 04	 add	 edx, 4
  0002f	49		 dec	 ecx
  00030	75 f4		 jne	 SHORT $LL6@DECSTR
$LN4@DECSTR:
  00032	c1 e0 02	 shl	 eax, 2
  00035	eb 17		 jmp	 SHORT $LN14@DECSTR
$LL3@DECSTR:
  00037	8b c8		 mov	 ecx, eax
  00039	81 e1 03 00 00
	80		 and	 ecx, -2147483645	; 80000003H
  0003f	79 05		 jns	 SHORT $LN13@DECSTR
  00041	49		 dec	 ecx
  00042	83 c9 fc	 or	 ecx, -4			; fffffffcH
  00045	41		 inc	 ecx
$LN13@DECSTR:
  00046	b2 ed		 mov	 dl, -19			; ffffffedH
  00048	2a d1		 sub	 dl, cl
  0004a	30 14 30	 xor	 BYTE PTR [eax+esi], dl
  0004d	40		 inc	 eax
$LN14@DECSTR:
  0004e	3b c7		 cmp	 eax, edi
  00050	7c e5		 jl	 SHORT $LL3@DECSTR
  00052	5f		 pop	 edi
  00053	5e		 pop	 esi
  00054	5d		 pop	 ebp
  00055	c3		 ret	 0
?_DECSTR@@YAXPADH@Z ENDP				; _DECSTR
_TEXT	ENDS
PUBLIC	?return57@@YAIXZ				; return57
; Function compile flags: /Ogsp
; File d:\lost saga for developer\youtube\tutorial\source\src\lsclient\veryoftenusedefine.h
;	COMDAT ?return57@@YAIXZ
_TEXT	SEGMENT
?return57@@YAIXZ PROC					; return57, COMDAT

; 15   : __forceinline unsigned int return57() { __asm mov eax, 57 };

  00000	b8 39 00 00 00	 mov	 eax, 57			; 00000039H
  00005	c3		 ret	 0
?return57@@YAIXZ ENDP					; return57
_TEXT	ENDS
PUBLIC	?GetGroup@ioGameEntity@@QBEPAVioEntityGroup@@XZ	; ioGameEntity::GetGroup
; Function compile flags: /Ogsp
; File d:\lost saga for developer\youtube\tutorial\source\src\lsclient\iogameentity.h
;	COMDAT ?GetGroup@ioGameEntity@@QBEPAVioEntityGroup@@XZ
_TEXT	SEGMENT
?GetGroup@ioGameEntity@@QBEPAVioEntityGroup@@XZ PROC	; ioGameEntity::GetGroup, COMDAT
; _this$ = ecx

; 166  : 	inline ioEntityGroup* GetGroup() const { return m_pGroup; }

  00000	8b 41 04	 mov	 eax, DWORD PTR [ecx+4]
  00003	c3		 ret	 0
?GetGroup@ioGameEntity@@QBEPAVioEntityGroup@@XZ ENDP	; ioGameEntity::GetGroup
_TEXT	ENDS
PUBLIC	??_R0?AVioGameEntity@@@8			; ioGameEntity `RTTI Type Descriptor'
PUBLIC	??_R0?AVioPlayEntity@@@8			; ioPlayEntity `RTTI Type Descriptor'
PUBLIC	?ToPlayEntity@@YAPAVioPlayEntity@@PAVioGameEntity@@@Z ; ToPlayEntity
EXTRN	___RTDynamicCast:PROC
EXTRN	??_7type_info@@6B@:QWORD			; type_info::`vftable'
;	COMDAT ??_R0?AVioGameEntity@@@8
; File d:\lost saga for developer\youtube\tutorial\source\src\lsclient\ioplayentity.h
_DATA	SEGMENT
??_R0?AVioGameEntity@@@8 DD FLAT:??_7type_info@@6B@	; ioGameEntity `RTTI Type Descriptor'
	DD	00H
	DB	'.?AVioGameEntity@@', 00H
_DATA	ENDS
;	COMDAT ??_R0?AVioPlayEntity@@@8
_DATA	SEGMENT
??_R0?AVioPlayEntity@@@8 DD FLAT:??_7type_info@@6B@	; ioPlayEntity `RTTI Type Descriptor'
	DD	00H
	DB	'.?AVioPlayEntity@@', 00H
; Function compile flags: /Ogsp
_DATA	ENDS
;	COMDAT ?ToPlayEntity@@YAPAVioPlayEntity@@PAVioGameEntity@@@Z
_TEXT	SEGMENT
_pObj$ = 8						; size = 4
?ToPlayEntity@@YAPAVioPlayEntity@@PAVioGameEntity@@@Z PROC ; ToPlayEntity, COMDAT

; 121  : {

  00000	55		 push	 ebp
  00001	8b ec		 mov	 ebp, esp
  00003	56		 push	 esi

; 122  : 	if( !pObj || pObj->GetTypeID() != ioGameEntity::GET_PLAY_ENTITY )

  00004	8b 75 08	 mov	 esi, DWORD PTR _pObj$[ebp]
  00007	85 f6		 test	 esi, esi
  00009	74 25		 je	 SHORT $LN1@ToPlayEnti
  0000b	8b 06		 mov	 eax, DWORD PTR [esi]
  0000d	8b ce		 mov	 ecx, esi
  0000f	ff 50 10	 call	 DWORD PTR [eax+16]
  00012	83 f8 01	 cmp	 eax, 1
  00015	75 19		 jne	 SHORT $LN1@ToPlayEnti

; 124  : 
; 125  : 	return dynamic_cast< ioPlayEntity* >( pObj );

  00017	6a 00		 push	 0
  00019	68 00 00 00 00	 push	 OFFSET ??_R0?AVioPlayEntity@@@8
  0001e	68 00 00 00 00	 push	 OFFSET ??_R0?AVioGameEntity@@@8
  00023	6a 00		 push	 0
  00025	56		 push	 esi
  00026	e8 00 00 00 00	 call	 ___RTDynamicCast
  0002b	83 c4 14	 add	 esp, 20			; 00000014H
  0002e	eb 02		 jmp	 SHORT $LN3@ToPlayEnti
$LN1@ToPlayEnti:

; 123  : 		return NULL;

  00030	33 c0		 xor	 eax, eax
$LN3@ToPlayEnti:
  00032	5e		 pop	 esi

; 126  : }

  00033	5d		 pop	 ebp
  00034	c3		 ret	 0
?ToPlayEntity@@YAPAVioPlayEntity@@PAVioGameEntity@@@Z ENDP ; ToPlayEntity
_TEXT	ENDS
PUBLIC	??_R0?AVioDummyChar@@@8				; ioDummyChar `RTTI Type Descriptor'
PUBLIC	?ToDummyChar@@YAPAVioDummyChar@@PAVioGameEntity@@@Z ; ToDummyChar
;	COMDAT ??_R0?AVioDummyChar@@@8
; File d:\lost saga for developer\youtube\tutorial\source\src\lsclient\iodummychar.h
_DATA	SEGMENT
??_R0?AVioDummyChar@@@8 DD FLAT:??_7type_info@@6B@	; ioDummyChar `RTTI Type Descriptor'
	DD	00H
	DB	'.?AVioDummyChar@@', 00H
; Function compile flags: /Ogsp
_DATA	ENDS
;	COMDAT ?ToDummyChar@@YAPAVioDummyChar@@PAVioGameEntity@@@Z
_TEXT	SEGMENT
_pObj$ = 8						; size = 4
?ToDummyChar@@YAPAVioDummyChar@@PAVioGameEntity@@@Z PROC ; ToDummyChar, COMDAT

; 758  : {

  00000	55		 push	 ebp
  00001	8b ec		 mov	 ebp, esp
  00003	56		 push	 esi

; 759  : 	ioPlayEntity *pPlay = ToPlayEntity( pObj );

  00004	ff 75 08	 push	 DWORD PTR _pObj$[ebp]
  00007	e8 00 00 00 00	 call	 ?ToPlayEntity@@YAPAVioPlayEntity@@PAVioGameEntity@@@Z ; ToPlayEntity
  0000c	8b f0		 mov	 esi, eax
  0000e	59		 pop	 ecx

; 760  : 	if( !pPlay || pPlay->GetSubType() != ioPlayEntity::PST_DUMMY_CHAR )

  0000f	85 f6		 test	 esi, esi
  00011	74 28		 je	 SHORT $LN1@ToDummyCha
  00013	8b 06		 mov	 eax, DWORD PTR [esi]
  00015	8b ce		 mov	 ecx, esi
  00017	ff 90 a4 00 00
	00		 call	 DWORD PTR [eax+164]
  0001d	83 f8 0a	 cmp	 eax, 10			; 0000000aH
  00020	75 19		 jne	 SHORT $LN1@ToDummyCha

; 762  : 
; 763  : 	return dynamic_cast< ioDummyChar* >( pPlay );

  00022	6a 00		 push	 0
  00024	68 00 00 00 00	 push	 OFFSET ??_R0?AVioDummyChar@@@8
  00029	68 00 00 00 00	 push	 OFFSET ??_R0?AVioPlayEntity@@@8
  0002e	6a 00		 push	 0
  00030	56		 push	 esi
  00031	e8 00 00 00 00	 call	 ___RTDynamicCast
  00036	83 c4 14	 add	 esp, 20			; 00000014H
  00039	eb 02		 jmp	 SHORT $LN3@ToDummyCha
$LN1@ToDummyCha:

; 761  : 		return NULL;

  0003b	33 c0		 xor	 eax, eax
$LN3@ToDummyCha:
  0003d	5e		 pop	 esi

; 764  : }

  0003e	5d		 pop	 ebp
  0003f	c3		 ret	 0
?ToDummyChar@@YAPAVioDummyChar@@PAVioGameEntity@@@Z ENDP ; ToDummyChar
_TEXT	ENDS
PUBLIC	?IsLive@ioWeapon@@QBE_NXZ			; ioWeapon::IsLive
; Function compile flags: /Ogsp
; File d:\lost saga for developer\youtube\tutorial\source\src\lsclient\ioweapon.h
;	COMDAT ?IsLive@ioWeapon@@QBE_NXZ
_TEXT	SEGMENT
?IsLive@ioWeapon@@QBE_NXZ PROC				; ioWeapon::IsLive, COMDAT
; _this$ = ecx

; 533  : 	inline bool IsLive() const { return m_bLive; }

  00000	8a 81 82 05 00
	00		 mov	 al, BYTE PTR [ecx+1410]
  00006	c3		 ret	 0
?IsLive@ioWeapon@@QBE_NXZ ENDP				; ioWeapon::IsLive
_TEXT	ENDS
PUBLIC	?GetOwnerName@ioWeapon@@QBEABVioHashString@@XZ	; ioWeapon::GetOwnerName
; Function compile flags: /Ogsp
;	COMDAT ?GetOwnerName@ioWeapon@@QBEABVioHashString@@XZ
_TEXT	SEGMENT
?GetOwnerName@ioWeapon@@QBEABVioHashString@@XZ PROC	; ioWeapon::GetOwnerName, COMDAT
; _this$ = ecx

; 636  : 	inline const ioHashString& GetOwnerName() const { return m_OwnerName; }

  00000	8d 41 10	 lea	 eax, DWORD PTR [ecx+16]
  00003	c3		 ret	 0
?GetOwnerName@ioWeapon@@QBEABVioHashString@@XZ ENDP	; ioWeapon::GetOwnerName
_TEXT	ENDS
PUBLIC	?GetParentSceneNode@ioWeapon@@QBEPAVioSceneNode@@XZ ; ioWeapon::GetParentSceneNode
; Function compile flags: /Ogsp
;	COMDAT ?GetParentSceneNode@ioWeapon@@QBEPAVioSceneNode@@XZ
_TEXT	SEGMENT
?GetParentSceneNode@ioWeapon@@QBEPAVioSceneNode@@XZ PROC ; ioWeapon::GetParentSceneNode, COMDAT
; _this$ = ecx

; 797  : 	ioSceneNode* GetParentSceneNode() const { return m_pSceneNode; }

  00000	8b 41 04	 mov	 eax, DWORD PTR [ecx+4]
  00003	c3		 ret	 0
?GetParentSceneNode@ioWeapon@@QBEPAVioSceneNode@@XZ ENDP ; ioWeapon::GetParentSceneNode
_TEXT	ENDS
PUBLIC	??_R0?AVioSkill@@@8				; ioSkill `RTTI Type Descriptor'
PUBLIC	??_R0?AVioAttackSkill@@@8			; ioAttackSkill `RTTI Type Descriptor'
PUBLIC	?ToAttackSkill@@YAPAVioAttackSkill@@PAVioSkill@@@Z ; ToAttackSkill
;	COMDAT ??_R0?AVioSkill@@@8
; File d:\lost saga for developer\youtube\tutorial\source\src\lsclient\ioattackskill.h
_DATA	SEGMENT
??_R0?AVioSkill@@@8 DD FLAT:??_7type_info@@6B@		; ioSkill `RTTI Type Descriptor'
	DD	00H
	DB	'.?AVioSkill@@', 00H
_DATA	ENDS
;	COMDAT ??_R0?AVioAttackSkill@@@8
_DATA	SEGMENT
??_R0?AVioAttackSkill@@@8 DD FLAT:??_7type_info@@6B@	; ioAttackSkill `RTTI Type Descriptor'
	DD	00H
	DB	'.?AVioAttackSkill@@', 00H
; Function compile flags: /Ogsp
_DATA	ENDS
;	COMDAT ?ToAttackSkill@@YAPAVioAttackSkill@@PAVioSkill@@@Z
_TEXT	SEGMENT
_pSkill$ = 8						; size = 4
?ToAttackSkill@@YAPAVioAttackSkill@@PAVioSkill@@@Z PROC	; ToAttackSkill, COMDAT

; 103  : {

  00000	55		 push	 ebp
  00001	8b ec		 mov	 ebp, esp
  00003	56		 push	 esi

; 104  : 	if( !pSkill || pSkill->GetTypeID() != ST_ATTACK )

  00004	8b 75 08	 mov	 esi, DWORD PTR _pSkill$[ebp]
  00007	85 f6		 test	 esi, esi
  00009	74 25		 je	 SHORT $LN1@ToAttackSk
  0000b	8b 06		 mov	 eax, DWORD PTR [esi]
  0000d	8b ce		 mov	 ecx, esi
  0000f	ff 50 08	 call	 DWORD PTR [eax+8]
  00012	83 f8 01	 cmp	 eax, 1
  00015	75 19		 jne	 SHORT $LN1@ToAttackSk

; 106  : 
; 107  : 	return dynamic_cast< ioAttackSkill* >( pSkill );

  00017	6a 00		 push	 0
  00019	68 00 00 00 00	 push	 OFFSET ??_R0?AVioAttackSkill@@@8
  0001e	68 00 00 00 00	 push	 OFFSET ??_R0?AVioSkill@@@8
  00023	6a 00		 push	 0
  00025	56		 push	 esi
  00026	e8 00 00 00 00	 call	 ___RTDynamicCast
  0002b	83 c4 14	 add	 esp, 20			; 00000014H
  0002e	eb 02		 jmp	 SHORT $LN3@ToAttackSk
$LN1@ToAttackSk:

; 105  : 		return NULL;

  00030	33 c0		 xor	 eax, eax
$LN3@ToAttackSk:
  00032	5e		 pop	 esi

; 108  : }

  00033	5d		 pop	 ebp
  00034	c3		 ret	 0
?ToAttackSkill@@YAPAVioAttackSkill@@PAVioSkill@@@Z ENDP	; ToAttackSkill
_TEXT	ENDS
PUBLIC	??_R0?AVioWallZone@@@8				; ioWallZone `RTTI Type Descriptor'
PUBLIC	?ToWallZone@@YAPAVioWallZone@@PAVioGameEntity@@@Z ; ToWallZone
;	COMDAT ??_R0?AVioWallZone@@@8
; File d:\lost saga for developer\youtube\tutorial\source\src\lsclient\iowallzone.h
_DATA	SEGMENT
??_R0?AVioWallZone@@@8 DD FLAT:??_7type_info@@6B@	; ioWallZone `RTTI Type Descriptor'
	DD	00H
	DB	'.?AVioWallZone@@', 00H
; Function compile flags: /Ogsp
_DATA	ENDS
;	COMDAT ?ToWallZone@@YAPAVioWallZone@@PAVioGameEntity@@@Z
_TEXT	SEGMENT
_pObj$ = 8						; size = 4
?ToWallZone@@YAPAVioWallZone@@PAVioGameEntity@@@Z PROC	; ToWallZone, COMDAT

; 50   : {

  00000	55		 push	 ebp
  00001	8b ec		 mov	 ebp, esp
  00003	56		 push	 esi

; 51   : 	ioPlayEntity *pPlay = ToPlayEntity( pObj );

  00004	ff 75 08	 push	 DWORD PTR _pObj$[ebp]
  00007	e8 00 00 00 00	 call	 ?ToPlayEntity@@YAPAVioPlayEntity@@PAVioGameEntity@@@Z ; ToPlayEntity
  0000c	8b f0		 mov	 esi, eax
  0000e	59		 pop	 ecx

; 52   : 	if( !pPlay || pPlay->GetSubType() != ioPlayEntity::PST_WALL_ZONE )

  0000f	85 f6		 test	 esi, esi
  00011	74 28		 je	 SHORT $LN1@ToWallZone
  00013	8b 06		 mov	 eax, DWORD PTR [esi]
  00015	8b ce		 mov	 ecx, esi
  00017	ff 90 a4 00 00
	00		 call	 DWORD PTR [eax+164]
  0001d	83 f8 0b	 cmp	 eax, 11			; 0000000bH
  00020	75 19		 jne	 SHORT $LN1@ToWallZone

; 54   : 
; 55   : 	return dynamic_cast< ioWallZone* >( pPlay );

  00022	6a 00		 push	 0
  00024	68 00 00 00 00	 push	 OFFSET ??_R0?AVioWallZone@@@8
  00029	68 00 00 00 00	 push	 OFFSET ??_R0?AVioPlayEntity@@@8
  0002e	6a 00		 push	 0
  00030	56		 push	 esi
  00031	e8 00 00 00 00	 call	 ___RTDynamicCast
  00036	83 c4 14	 add	 esp, 20			; 00000014H
  00039	eb 02		 jmp	 SHORT $LN3@ToWallZone
$LN1@ToWallZone:

; 53   : 		return NULL;

  0003b	33 c0		 xor	 eax, eax
$LN3@ToWallZone:
  0003d	5e		 pop	 esi

; 56   : }

  0003e	5d		 pop	 ebp
  0003f	c3		 ret	 0
?ToWallZone@@YAPAVioWallZone@@PAVioGameEntity@@@Z ENDP	; ToWallZone
_TEXT	ENDS
PUBLIC	??_R0?AVioSymbolStruct@@@8			; ioSymbolStruct `RTTI Type Descriptor'
PUBLIC	?ToSymbolStruct@@YAPAVioSymbolStruct@@PAVioGameEntity@@@Z ; ToSymbolStruct
;	COMDAT ??_R0?AVioSymbolStruct@@@8
; File d:\lost saga for developer\youtube\tutorial\source\src\lsclient\iosymbolstruct.h
_DATA	SEGMENT
??_R0?AVioSymbolStruct@@@8 DD FLAT:??_7type_info@@6B@	; ioSymbolStruct `RTTI Type Descriptor'
	DD	00H
	DB	'.?AVioSymbolStruct@@', 00H
; Function compile flags: /Ogsp
_DATA	ENDS
;	COMDAT ?ToSymbolStruct@@YAPAVioSymbolStruct@@PAVioGameEntity@@@Z
_TEXT	SEGMENT
_pObj$ = 8						; size = 4
?ToSymbolStruct@@YAPAVioSymbolStruct@@PAVioGameEntity@@@Z PROC ; ToSymbolStruct, COMDAT

; 171  : {

  00000	55		 push	 ebp
  00001	8b ec		 mov	 ebp, esp
  00003	56		 push	 esi

; 172  : 	ioPlayEntity *pPlay = ToPlayEntity( pObj );

  00004	ff 75 08	 push	 DWORD PTR _pObj$[ebp]
  00007	e8 00 00 00 00	 call	 ?ToPlayEntity@@YAPAVioPlayEntity@@PAVioGameEntity@@@Z ; ToPlayEntity
  0000c	8b f0		 mov	 esi, eax
  0000e	59		 pop	 ecx

; 173  : 	if( !pPlay || pPlay->GetSubType() != ioPlayEntity::PST_SYMBOL )

  0000f	85 f6		 test	 esi, esi
  00011	74 28		 je	 SHORT $LN1@ToSymbolSt
  00013	8b 06		 mov	 eax, DWORD PTR [esi]
  00015	8b ce		 mov	 ecx, esi
  00017	ff 90 a4 00 00
	00		 call	 DWORD PTR [eax+164]
  0001d	83 f8 01	 cmp	 eax, 1
  00020	75 19		 jne	 SHORT $LN1@ToSymbolSt

; 175  : 
; 176  : 	return dynamic_cast< ioSymbolStruct* >( pPlay );

  00022	6a 00		 push	 0
  00024	68 00 00 00 00	 push	 OFFSET ??_R0?AVioSymbolStruct@@@8
  00029	68 00 00 00 00	 push	 OFFSET ??_R0?AVioPlayEntity@@@8
  0002e	6a 00		 push	 0
  00030	56		 push	 esi
  00031	e8 00 00 00 00	 call	 ___RTDynamicCast
  00036	83 c4 14	 add	 esp, 20			; 00000014H
  00039	eb 02		 jmp	 SHORT $LN3@ToSymbolSt
$LN1@ToSymbolSt:

; 174  : 		return NULL;

  0003b	33 c0		 xor	 eax, eax
$LN3@ToSymbolSt:
  0003d	5e		 pop	 esi

; 177  : }

  0003e	5d		 pop	 ebp
  0003f	c3		 ret	 0
?ToSymbolStruct@@YAPAVioSymbolStruct@@PAVioGameEntity@@@Z ENDP ; ToSymbolStruct
_TEXT	ENDS
PUBLIC	??_R0?AVioBall@@@8				; ioBall `RTTI Type Descriptor'
PUBLIC	?ToBallStruct@@YAPAVioBall@@PAVioGameEntity@@@Z	; ToBallStruct
;	COMDAT ??_R0?AVioBall@@@8
; File d:\lost saga for developer\youtube\tutorial\source\src\lsclient\ioball.h
_DATA	SEGMENT
??_R0?AVioBall@@@8 DD FLAT:??_7type_info@@6B@		; ioBall `RTTI Type Descriptor'
	DD	00H
	DB	'.?AVioBall@@', 00H
; Function compile flags: /Ogsp
_DATA	ENDS
;	COMDAT ?ToBallStruct@@YAPAVioBall@@PAVioGameEntity@@@Z
_TEXT	SEGMENT
_pObj$ = 8						; size = 4
?ToBallStruct@@YAPAVioBall@@PAVioGameEntity@@@Z PROC	; ToBallStruct, COMDAT

; 252  : {

  00000	55		 push	 ebp
  00001	8b ec		 mov	 ebp, esp
  00003	56		 push	 esi

; 253  : 	ioPlayEntity *pPlay = ToPlayEntity( pObj );

  00004	ff 75 08	 push	 DWORD PTR _pObj$[ebp]
  00007	e8 00 00 00 00	 call	 ?ToPlayEntity@@YAPAVioPlayEntity@@PAVioGameEntity@@@Z ; ToPlayEntity
  0000c	8b f0		 mov	 esi, eax
  0000e	59		 pop	 ecx

; 254  : 	if( !pPlay || pPlay->GetSubType() != ioPlayEntity::PST_BALL )

  0000f	85 f6		 test	 esi, esi
  00011	74 28		 je	 SHORT $LN1@ToBallStru
  00013	8b 06		 mov	 eax, DWORD PTR [esi]
  00015	8b ce		 mov	 ecx, esi
  00017	ff 90 a4 00 00
	00		 call	 DWORD PTR [eax+164]
  0001d	83 f8 08	 cmp	 eax, 8
  00020	75 19		 jne	 SHORT $LN1@ToBallStru

; 256  : 
; 257  : 	return dynamic_cast< ioBall* >( pPlay );

  00022	6a 00		 push	 0
  00024	68 00 00 00 00	 push	 OFFSET ??_R0?AVioBall@@@8
  00029	68 00 00 00 00	 push	 OFFSET ??_R0?AVioPlayEntity@@@8
  0002e	6a 00		 push	 0
  00030	56		 push	 esi
  00031	e8 00 00 00 00	 call	 ___RTDynamicCast
  00036	83 c4 14	 add	 esp, 20			; 00000014H
  00039	eb 02		 jmp	 SHORT $LN3@ToBallStru
$LN1@ToBallStru:

; 255  : 		return NULL;

  0003b	33 c0		 xor	 eax, eax
$LN3@ToBallStru:
  0003d	5e		 pop	 esi

; 258  : }

  0003e	5d		 pop	 ebp
  0003f	c3		 ret	 0
?ToBallStruct@@YAPAVioBall@@PAVioGameEntity@@@Z ENDP	; ToBallStruct
_TEXT	ENDS
PUBLIC	??_R0?AVioPushStruct@@@8			; ioPushStruct `RTTI Type Descriptor'
PUBLIC	?ToPushStruct@@YAPAVioPushStruct@@PAVioGameEntity@@@Z ; ToPushStruct
;	COMDAT ??_R0?AVioPushStruct@@@8
; File d:\lost saga for developer\youtube\tutorial\source\src\lsclient\iopushstruct.h
_DATA	SEGMENT
??_R0?AVioPushStruct@@@8 DD FLAT:??_7type_info@@6B@	; ioPushStruct `RTTI Type Descriptor'
	DD	00H
	DB	'.?AVioPushStruct@@', 00H
; Function compile flags: /Ogsp
_DATA	ENDS
;	COMDAT ?ToPushStruct@@YAPAVioPushStruct@@PAVioGameEntity@@@Z
_TEXT	SEGMENT
_pObj$ = 8						; size = 4
?ToPushStruct@@YAPAVioPushStruct@@PAVioGameEntity@@@Z PROC ; ToPushStruct, COMDAT

; 440  : {

  00000	55		 push	 ebp
  00001	8b ec		 mov	 ebp, esp
  00003	56		 push	 esi

; 441  : 	ioPlayEntity *pPlay = ToPlayEntity( pObj );

  00004	ff 75 08	 push	 DWORD PTR _pObj$[ebp]
  00007	e8 00 00 00 00	 call	 ?ToPlayEntity@@YAPAVioPlayEntity@@PAVioGameEntity@@@Z ; ToPlayEntity
  0000c	8b f0		 mov	 esi, eax
  0000e	59		 pop	 ecx

; 442  : 	if( !pPlay || pPlay->GetSubType() != ioPlayEntity::PST_PUSHSTRUCT )

  0000f	85 f6		 test	 esi, esi
  00011	74 28		 je	 SHORT $LN1@ToPushStru
  00013	8b 06		 mov	 eax, DWORD PTR [esi]
  00015	8b ce		 mov	 ecx, esi
  00017	ff 90 a4 00 00
	00		 call	 DWORD PTR [eax+164]
  0001d	83 f8 02	 cmp	 eax, 2
  00020	75 19		 jne	 SHORT $LN1@ToPushStru

; 444  : 
; 445  : 	return dynamic_cast< ioPushStruct* >( pPlay );

  00022	6a 00		 push	 0
  00024	68 00 00 00 00	 push	 OFFSET ??_R0?AVioPushStruct@@@8
  00029	68 00 00 00 00	 push	 OFFSET ??_R0?AVioPlayEntity@@@8
  0002e	6a 00		 push	 0
  00030	56		 push	 esi
  00031	e8 00 00 00 00	 call	 ___RTDynamicCast
  00036	83 c4 14	 add	 esp, 20			; 00000014H
  00039	eb 02		 jmp	 SHORT $LN3@ToPushStru
$LN1@ToPushStru:

; 443  : 		return NULL;

  0003b	33 c0		 xor	 eax, eax
$LN3@ToPushStru:
  0003d	5e		 pop	 esi

; 446  : }

  0003e	5d		 pop	 ebp
  0003f	c3		 ret	 0
?ToPushStruct@@YAPAVioPushStruct@@PAVioGameEntity@@@Z ENDP ; ToPushStruct
_TEXT	ENDS
PUBLIC	??_7?$CEncrypt@M@@6B@				; CEncrypt<float>::`vftable'
PUBLIC	??1?$CEncrypt@M@@UAE@XZ				; CEncrypt<float>::~CEncrypt<float>
PUBLIC	??_R4?$CEncrypt@M@@6B@				; CEncrypt<float>::`RTTI Complete Object Locator'
PUBLIC	??_R0?AV?$CEncrypt@M@@@8			; CEncrypt<float> `RTTI Type Descriptor'
PUBLIC	??_R3?$CEncrypt@M@@8				; CEncrypt<float>::`RTTI Class Hierarchy Descriptor'
PUBLIC	??_R2?$CEncrypt@M@@8				; CEncrypt<float>::`RTTI Base Class Array'
PUBLIC	??_R1A@?0A@EA@?$CEncrypt@M@@8			; CEncrypt<float>::`RTTI Base Class Descriptor at (0,-1,0,64)'
EXTRN	??1ccddaabb@@UAE@XZ:PROC			; ccddaabb::~ccddaabb
EXTRN	??_E?$CEncrypt@M@@UAEPAXI@Z:PROC		; CEncrypt<float>::`vector deleting destructor'
;	COMDAT ??_R1A@?0A@EA@?$CEncrypt@M@@8
; File d:\lost saga for developer\youtube\tutorial\source\src\lsclient\encryptvalue.h
rdata$r	SEGMENT
??_R1A@?0A@EA@?$CEncrypt@M@@8 DD FLAT:??_R0?AV?$CEncrypt@M@@@8 ; CEncrypt<float>::`RTTI Base Class Descriptor at (0,-1,0,64)'
	DD	00H
	DD	00H
	DD	0ffffffffH
	DD	00H
	DD	040H
	DD	FLAT:??_R3?$CEncrypt@M@@8
rdata$r	ENDS
;	COMDAT ??_R2?$CEncrypt@M@@8
rdata$r	SEGMENT
??_R2?$CEncrypt@M@@8 DD FLAT:??_R1A@?0A@EA@?$CEncrypt@M@@8 ; CEncrypt<float>::`RTTI Base Class Array'
rdata$r	ENDS
;	COMDAT ??_R3?$CEncrypt@M@@8
rdata$r	SEGMENT
??_R3?$CEncrypt@M@@8 DD 00H				; CEncrypt<float>::`RTTI Class Hierarchy Descriptor'
	DD	00H
	DD	01H
	DD	FLAT:??_R2?$CEncrypt@M@@8
rdata$r	ENDS
;	COMDAT ??_R0?AV?$CEncrypt@M@@@8
_DATA	SEGMENT
??_R0?AV?$CEncrypt@M@@@8 DD FLAT:??_7type_info@@6B@	; CEncrypt<float> `RTTI Type Descriptor'
	DD	00H
	DB	'.?AV?$CEncrypt@M@@', 00H
_DATA	ENDS
;	COMDAT ??_R4?$CEncrypt@M@@6B@
rdata$r	SEGMENT
??_R4?$CEncrypt@M@@6B@ DD 00H				; CEncrypt<float>::`RTTI Complete Object Locator'
	DD	00H
	DD	00H
	DD	FLAT:??_R0?AV?$CEncrypt@M@@@8
	DD	FLAT:??_R3?$CEncrypt@M@@8
rdata$r	ENDS
;	COMDAT ??_7?$CEncrypt@M@@6B@
CONST	SEGMENT
??_7?$CEncrypt@M@@6B@ DD FLAT:??_R4?$CEncrypt@M@@6B@	; CEncrypt<float>::`vftable'
	DD	FLAT:??_E?$CEncrypt@M@@UAEPAXI@Z
; Function compile flags: /Ogsp
CONST	ENDS
;	COMDAT ??1?$CEncrypt@M@@UAE@XZ
_TEXT	SEGMENT
??1?$CEncrypt@M@@UAE@XZ PROC				; CEncrypt<float>::~CEncrypt<float>, COMDAT
; _this$ = ecx

; 127  : 	{

  00000	c7 01 00 00 00
	00		 mov	 DWORD PTR [ecx], OFFSET ??_7?$CEncrypt@M@@6B@

; 128  : 	}

  00006	83 c1 0c	 add	 ecx, 12			; 0000000cH
  00009	e9 00 00 00 00	 jmp	 ??1ccddaabb@@UAE@XZ	; ccddaabb::~ccddaabb
??1?$CEncrypt@M@@UAE@XZ ENDP				; CEncrypt<float>::~CEncrypt<float>
_TEXT	ENDS
PUBLIC	??_7?$CEncrypt@K@@6B@				; CEncrypt<unsigned long>::`vftable'
PUBLIC	??1?$CEncrypt@K@@UAE@XZ				; CEncrypt<unsigned long>::~CEncrypt<unsigned long>
PUBLIC	??_R4?$CEncrypt@K@@6B@				; CEncrypt<unsigned long>::`RTTI Complete Object Locator'
PUBLIC	??_R0?AV?$CEncrypt@K@@@8			; CEncrypt<unsigned long> `RTTI Type Descriptor'
PUBLIC	??_R3?$CEncrypt@K@@8				; CEncrypt<unsigned long>::`RTTI Class Hierarchy Descriptor'
PUBLIC	??_R2?$CEncrypt@K@@8				; CEncrypt<unsigned long>::`RTTI Base Class Array'
PUBLIC	??_R1A@?0A@EA@?$CEncrypt@K@@8			; CEncrypt<unsigned long>::`RTTI Base Class Descriptor at (0,-1,0,64)'
EXTRN	??_E?$CEncrypt@K@@UAEPAXI@Z:PROC		; CEncrypt<unsigned long>::`vector deleting destructor'
;	COMDAT ??_R1A@?0A@EA@?$CEncrypt@K@@8
rdata$r	SEGMENT
??_R1A@?0A@EA@?$CEncrypt@K@@8 DD FLAT:??_R0?AV?$CEncrypt@K@@@8 ; CEncrypt<unsigned long>::`RTTI Base Class Descriptor at (0,-1,0,64)'
	DD	00H
	DD	00H
	DD	0ffffffffH
	DD	00H
	DD	040H
	DD	FLAT:??_R3?$CEncrypt@K@@8
rdata$r	ENDS
;	COMDAT ??_R2?$CEncrypt@K@@8
rdata$r	SEGMENT
??_R2?$CEncrypt@K@@8 DD FLAT:??_R1A@?0A@EA@?$CEncrypt@K@@8 ; CEncrypt<unsigned long>::`RTTI Base Class Array'
rdata$r	ENDS
;	COMDAT ??_R3?$CEncrypt@K@@8
rdata$r	SEGMENT
??_R3?$CEncrypt@K@@8 DD 00H				; CEncrypt<unsigned long>::`RTTI Class Hierarchy Descriptor'
	DD	00H
	DD	01H
	DD	FLAT:??_R2?$CEncrypt@K@@8
rdata$r	ENDS
;	COMDAT ??_R0?AV?$CEncrypt@K@@@8
_DATA	SEGMENT
??_R0?AV?$CEncrypt@K@@@8 DD FLAT:??_7type_info@@6B@	; CEncrypt<unsigned long> `RTTI Type Descriptor'
	DD	00H
	DB	'.?AV?$CEncrypt@K@@', 00H
_DATA	ENDS
;	COMDAT ??_R4?$CEncrypt@K@@6B@
rdata$r	SEGMENT
??_R4?$CEncrypt@K@@6B@ DD 00H				; CEncrypt<unsigned long>::`RTTI Complete Object Locator'
	DD	00H
	DD	00H
	DD	FLAT:??_R0?AV?$CEncrypt@K@@@8
	DD	FLAT:??_R3?$CEncrypt@K@@8
rdata$r	ENDS
;	COMDAT ??_7?$CEncrypt@K@@6B@
CONST	SEGMENT
??_7?$CEncrypt@K@@6B@ DD FLAT:??_R4?$CEncrypt@K@@6B@	; CEncrypt<unsigned long>::`vftable'
	DD	FLAT:??_E?$CEncrypt@K@@UAEPAXI@Z
; Function compile flags: /Ogsp
CONST	ENDS
;	COMDAT ??1?$CEncrypt@K@@UAE@XZ
_TEXT	SEGMENT
??1?$CEncrypt@K@@UAE@XZ PROC				; CEncrypt<unsigned long>::~CEncrypt<unsigned long>, COMDAT
; _this$ = ecx

; 127  : 	{

  00000	c7 01 00 00 00
	00		 mov	 DWORD PTR [ecx], OFFSET ??_7?$CEncrypt@K@@6B@

; 128  : 	}

  00006	83 c1 0c	 add	 ecx, 12			; 0000000cH
  00009	e9 00 00 00 00	 jmp	 ??1ccddaabb@@UAE@XZ	; ccddaabb::~ccddaabb
??1?$CEncrypt@K@@UAE@XZ ENDP				; CEncrypt<unsigned long>::~CEncrypt<unsigned long>
_TEXT	ENDS
PUBLIC	??_7?$CEncrypt@_N@@6B@				; CEncrypt<bool>::`vftable'
PUBLIC	??1?$CEncrypt@_N@@UAE@XZ			; CEncrypt<bool>::~CEncrypt<bool>
PUBLIC	??_R4?$CEncrypt@_N@@6B@				; CEncrypt<bool>::`RTTI Complete Object Locator'
PUBLIC	??_R0?AV?$CEncrypt@_N@@@8			; CEncrypt<bool> `RTTI Type Descriptor'
PUBLIC	??_R3?$CEncrypt@_N@@8				; CEncrypt<bool>::`RTTI Class Hierarchy Descriptor'
PUBLIC	??_R2?$CEncrypt@_N@@8				; CEncrypt<bool>::`RTTI Base Class Array'
PUBLIC	??_R1A@?0A@EA@?$CEncrypt@_N@@8			; CEncrypt<bool>::`RTTI Base Class Descriptor at (0,-1,0,64)'
EXTRN	??_E?$CEncrypt@_N@@UAEPAXI@Z:PROC		; CEncrypt<bool>::`vector deleting destructor'
;	COMDAT ??_R1A@?0A@EA@?$CEncrypt@_N@@8
rdata$r	SEGMENT
??_R1A@?0A@EA@?$CEncrypt@_N@@8 DD FLAT:??_R0?AV?$CEncrypt@_N@@@8 ; CEncrypt<bool>::`RTTI Base Class Descriptor at (0,-1,0,64)'
	DD	00H
	DD	00H
	DD	0ffffffffH
	DD	00H
	DD	040H
	DD	FLAT:??_R3?$CEncrypt@_N@@8
rdata$r	ENDS
;	COMDAT ??_R2?$CEncrypt@_N@@8
rdata$r	SEGMENT
??_R2?$CEncrypt@_N@@8 DD FLAT:??_R1A@?0A@EA@?$CEncrypt@_N@@8 ; CEncrypt<bool>::`RTTI Base Class Array'
rdata$r	ENDS
;	COMDAT ??_R3?$CEncrypt@_N@@8
rdata$r	SEGMENT
??_R3?$CEncrypt@_N@@8 DD 00H				; CEncrypt<bool>::`RTTI Class Hierarchy Descriptor'
	DD	00H
	DD	01H
	DD	FLAT:??_R2?$CEncrypt@_N@@8
rdata$r	ENDS
;	COMDAT ??_R0?AV?$CEncrypt@_N@@@8
_DATA	SEGMENT
??_R0?AV?$CEncrypt@_N@@@8 DD FLAT:??_7type_info@@6B@	; CEncrypt<bool> `RTTI Type Descriptor'
	DD	00H
	DB	'.?AV?$CEncrypt@_N@@', 00H
_DATA	ENDS
;	COMDAT ??_R4?$CEncrypt@_N@@6B@
rdata$r	SEGMENT
??_R4?$CEncrypt@_N@@6B@ DD 00H				; CEncrypt<bool>::`RTTI Complete Object Locator'
	DD	00H
	DD	00H
	DD	FLAT:??_R0?AV?$CEncrypt@_N@@@8
	DD	FLAT:??_R3?$CEncrypt@_N@@8
rdata$r	ENDS
;	COMDAT ??_7?$CEncrypt@_N@@6B@
CONST	SEGMENT
??_7?$CEncrypt@_N@@6B@ DD FLAT:??_R4?$CEncrypt@_N@@6B@	; CEncrypt<bool>::`vftable'
	DD	FLAT:??_E?$CEncrypt@_N@@UAEPAXI@Z
; Function compile flags: /Ogsp
CONST	ENDS
;	COMDAT ??1?$CEncrypt@_N@@UAE@XZ
_TEXT	SEGMENT
??1?$CEncrypt@_N@@UAE@XZ PROC				; CEncrypt<bool>::~CEncrypt<bool>, COMDAT
; _this$ = ecx

; 127  : 	{

  00000	c7 01 00 00 00
	00		 mov	 DWORD PTR [ecx], OFFSET ??_7?$CEncrypt@_N@@6B@

; 128  : 	}

  00006	83 c1 0c	 add	 ecx, 12			; 0000000cH
  00009	e9 00 00 00 00	 jmp	 ??1ccddaabb@@UAE@XZ	; ccddaabb::~ccddaabb
??1?$CEncrypt@_N@@UAE@XZ ENDP				; CEncrypt<bool>::~CEncrypt<bool>
_TEXT	ENDS
EXTRN	??3@YAXPAX@Z:PROC				; operator delete
; Function compile flags: /Ogsp
;	COMDAT ??_G?$CEncrypt@M@@UAEPAXI@Z
_TEXT	SEGMENT
___flags$ = 8						; size = 4
??_G?$CEncrypt@M@@UAEPAXI@Z PROC			; CEncrypt<float>::`scalar deleting destructor', COMDAT
; _this$ = ecx
  00000	55		 push	 ebp
  00001	8b ec		 mov	 ebp, esp
  00003	56		 push	 esi
  00004	8b f1		 mov	 esi, ecx
  00006	8d 4e 0c	 lea	 ecx, DWORD PTR [esi+12]
  00009	c7 06 00 00 00
	00		 mov	 DWORD PTR [esi], OFFSET ??_7?$CEncrypt@M@@6B@
  0000f	e8 00 00 00 00	 call	 ??1ccddaabb@@UAE@XZ	; ccddaabb::~ccddaabb
  00014	f6 45 08 01	 test	 BYTE PTR ___flags$[ebp], 1
  00018	74 07		 je	 SHORT $LN1@scalar
  0001a	56		 push	 esi
  0001b	e8 00 00 00 00	 call	 ??3@YAXPAX@Z		; operator delete
  00020	59		 pop	 ecx
$LN1@scalar:
  00021	8b c6		 mov	 eax, esi
  00023	5e		 pop	 esi
  00024	5d		 pop	 ebp
  00025	c2 04 00	 ret	 4
??_G?$CEncrypt@M@@UAEPAXI@Z ENDP			; CEncrypt<float>::`scalar deleting destructor'
; Function compile flags: /Ogsp
_TEXT	ENDS
;	COMDAT ??_G?$CEncrypt@K@@UAEPAXI@Z
_TEXT	SEGMENT
___flags$ = 8						; size = 4
??_G?$CEncrypt@K@@UAEPAXI@Z PROC			; CEncrypt<unsigned long>::`scalar deleting destructor', COMDAT
; _this$ = ecx
  00000	55		 push	 ebp
  00001	8b ec		 mov	 ebp, esp
  00003	56		 push	 esi
  00004	8b f1		 mov	 esi, ecx
  00006	8d 4e 0c	 lea	 ecx, DWORD PTR [esi+12]
  00009	c7 06 00 00 00
	00		 mov	 DWORD PTR [esi], OFFSET ??_7?$CEncrypt@K@@6B@
  0000f	e8 00 00 00 00	 call	 ??1ccddaabb@@UAE@XZ	; ccddaabb::~ccddaabb
  00014	f6 45 08 01	 test	 BYTE PTR ___flags$[ebp], 1
  00018	74 07		 je	 SHORT $LN1@scalar@2
  0001a	56		 push	 esi
  0001b	e8 00 00 00 00	 call	 ??3@YAXPAX@Z		; operator delete
  00020	59		 pop	 ecx
$LN1@scalar@2:
  00021	8b c6		 mov	 eax, esi
  00023	5e		 pop	 esi
  00024	5d		 pop	 ebp
  00025	c2 04 00	 ret	 4
??_G?$CEncrypt@K@@UAEPAXI@Z ENDP			; CEncrypt<unsigned long>::`scalar deleting destructor'
; Function compile flags: /Ogsp
_TEXT	ENDS
;	COMDAT ??_G?$CEncrypt@_N@@UAEPAXI@Z
_TEXT	SEGMENT
___flags$ = 8						; size = 4
??_G?$CEncrypt@_N@@UAEPAXI@Z PROC			; CEncrypt<bool>::`scalar deleting destructor', COMDAT
; _this$ = ecx
  00000	55		 push	 ebp
  00001	8b ec		 mov	 ebp, esp
  00003	56		 push	 esi
  00004	8b f1		 mov	 esi, ecx
  00006	8d 4e 0c	 lea	 ecx, DWORD PTR [esi+12]
  00009	c7 06 00 00 00
	00		 mov	 DWORD PTR [esi], OFFSET ??_7?$CEncrypt@_N@@6B@
  0000f	e8 00 00 00 00	 call	 ??1ccddaabb@@UAE@XZ	; ccddaabb::~ccddaabb
  00014	f6 45 08 01	 test	 BYTE PTR ___flags$[ebp], 1
  00018	74 07		 je	 SHORT $LN1@scalar@3
  0001a	56		 push	 esi
  0001b	e8 00 00 00 00	 call	 ??3@YAXPAX@Z		; operator delete
  00020	59		 pop	 ecx
$LN1@scalar@3:
  00021	8b c6		 mov	 eax, esi
  00023	5e		 pop	 esi
  00024	5d		 pop	 ebp
  00025	c2 04 00	 ret	 4
??_G?$CEncrypt@_N@@UAEPAXI@Z ENDP			; CEncrypt<bool>::`scalar deleting destructor'
_TEXT	ENDS
PUBLIC	?EncryptValueToPool@?$CEncrypt@M@@AAEXPBD@Z	; CEncrypt<float>::EncryptValueToPool
EXTRN	?EncryptByte@ccddaabb@@QAEXPBDPADH@Z:PROC	; ccddaabb::EncryptByte
; Function compile flags: /Ogsp
;	COMDAT ?EncryptValueToPool@?$CEncrypt@M@@AAEXPBD@Z
_TEXT	SEGMENT
_value$ = 8						; size = 4
?EncryptValueToPool@?$CEncrypt@M@@AAEXPBD@Z PROC	; CEncrypt<float>::EncryptValueToPool, COMDAT
; _this$ = ecx

; 67   : 	{

  00000	55		 push	 ebp
  00001	8b ec		 mov	 ebp, esp

; 68   : 		m_RC5.EncryptByte( value, m_MemPool, max(m_ValueSize, DEFAULT_ENCRYPT) );

  00003	0f b7 41 06	 movzx	 eax, WORD PTR [ecx+6]
  00007	83 f8 04	 cmp	 eax, 4
  0000a	77 03		 ja	 SHORT $LN4@EncryptVal
  0000c	6a 04		 push	 4
  0000e	58		 pop	 eax
$LN4@EncryptVal:
  0000f	50		 push	 eax
  00010	8d 41 1c	 lea	 eax, DWORD PTR [ecx+28]
  00013	50		 push	 eax
  00014	ff 75 08	 push	 DWORD PTR _value$[ebp]
  00017	83 c1 0c	 add	 ecx, 12			; 0000000cH
  0001a	e8 00 00 00 00	 call	 ?EncryptByte@ccddaabb@@QAEXPBDPADH@Z ; ccddaabb::EncryptByte

; 69   : 		
; 70   : 	}

  0001f	5d		 pop	 ebp
  00020	c2 04 00	 ret	 4
?EncryptValueToPool@?$CEncrypt@M@@AAEXPBD@Z ENDP	; CEncrypt<float>::EncryptValueToPool
_TEXT	ENDS
PUBLIC	?Init@?$CEncrypt@M@@AAEXXZ			; CEncrypt<float>::Init
EXTRN	?Setup@ccddaabb@@QAEXPBDHH@Z:PROC		; ccddaabb::Setup
EXTRN	__imp__rand:PROC
EXTRN	__imp__timeGetTime@0:PROC
EXTRN	__imp__GetCurrentProcessId@0:PROC
; Function compile flags: /Ogsp
;	COMDAT ?Init@?$CEncrypt@M@@AAEXXZ
_TEXT	SEGMENT
_pid$ = -8						; size = 4
_tick$ = -4						; size = 4
?Init@?$CEncrypt@M@@AAEXXZ PROC				; CEncrypt<float>::Init, COMDAT
; _this$ = ecx

; 73   : 	{

  00000	55		 push	 ebp
  00001	8b ec		 mov	 ebp, esp
  00003	51		 push	 ecx
  00004	51		 push	 ecx
  00005	53		 push	 ebx
  00006	56		 push	 esi
  00007	57		 push	 edi
  00008	8b f1		 mov	 esi, ecx

; 74   : 		DWORD pid = GetCurrentProcessId();

  0000a	ff 15 00 00 00
	00		 call	 DWORD PTR __imp__GetCurrentProcessId@0
  00010	89 45 f8	 mov	 DWORD PTR _pid$[ebp], eax

; 75   : 		DWORD tick = timeGetTime();

  00013	ff 15 00 00 00
	00		 call	 DWORD PTR __imp__timeGetTime@0

; 76   : 		m_ValueSize    = sizeof(type);
; 77   : 		m_MemPoolPos   = (unsigned short)( rand()+pid+tick )%(MAX_MEM_POOL-m_ValueSize);

  00019	8b 3d 00 00 00
	00		 mov	 edi, DWORD PTR __imp__rand
  0001f	89 45 fc	 mov	 DWORD PTR _tick$[ebp], eax
  00022	6a 04		 push	 4
  00024	58		 pop	 eax
  00025	66 89 46 06	 mov	 WORD PTR [esi+6], ax
  00029	ff d7		 call	 edi
  0002b	03 45 f8	 add	 eax, DWORD PTR _pid$[ebp]
  0002e	0f b7 4e 06	 movzx	 ecx, WORD PTR [esi+6]
  00032	03 45 fc	 add	 eax, DWORD PTR _tick$[ebp]
  00035	6a 0c		 push	 12			; 0000000cH
  00037	0f b7 c0	 movzx	 eax, ax
  0003a	5b		 pop	 ebx
  0003b	99		 cdq
  0003c	2b d9		 sub	 ebx, ecx
  0003e	f7 fb		 idiv	 ebx
  00040	66 89 56 04	 mov	 WORD PTR [esi+4], dx

; 78   : 		m_EncryptSeed  = (char)( rand()+pid+tick )%256;

  00044	ff d7		 call	 edi
  00046	02 45 f8	 add	 al, BYTE PTR _pid$[ebp]
  00049	02 45 fc	 add	 al, BYTE PTR _tick$[ebp]
  0004c	0f be c0	 movsx	 eax, al
  0004f	25 ff 00 00 80	 and	 eax, -2147483393	; 800000ffH
  00054	79 07		 jns	 SHORT $LN8@Init
  00056	48		 dec	 eax
  00057	0d 00 ff ff ff	 or	 eax, -256		; ffffff00H
  0005c	40		 inc	 eax
$LN8@Init:
  0005d	88 46 08	 mov	 BYTE PTR [esi+8], al

; 79   : 
; 80   : 		for (int i = 0; i < MAX_MEM_POOL ; i++)

  00060	33 db		 xor	 ebx, ebx
$LL3@Init:

; 81   : 			m_MemPool[i] = (char)( rand()+pid+tick )%256; // 

  00062	ff d7		 call	 edi
  00064	02 45 f8	 add	 al, BYTE PTR _pid$[ebp]
  00067	02 45 fc	 add	 al, BYTE PTR _tick$[ebp]
  0006a	0f be c0	 movsx	 eax, al
  0006d	25 ff 00 00 80	 and	 eax, -2147483393	; 800000ffH
  00072	79 07		 jns	 SHORT $LN9@Init
  00074	48		 dec	 eax
  00075	0d 00 ff ff ff	 or	 eax, -256		; ffffff00H
  0007a	40		 inc	 eax
$LN9@Init:
  0007b	88 44 1e 1c	 mov	 BYTE PTR [esi+ebx+28], al
  0007f	43		 inc	 ebx
  00080	83 fb 0c	 cmp	 ebx, 12			; 0000000cH
  00083	7c dd		 jl	 SHORT $LL3@Init

; 82   : 
; 83   : 		//UJ 130913, : szKey  
; 84   : 		//char szKey[ccddaabb::KEY_SIZE];//="";
; 85   : 		//for (int i = 0; i < ccddaabb::KEY_SIZE  ; i++)
; 86   : 		//	szKey[i] = (char)( rand()+pid+tick )%256; // 
; 87   : 		m_RC5.Setup( NULL, pid, tick );

  00085	ff 75 fc	 push	 DWORD PTR _tick$[ebp]
  00088	8d 4e 0c	 lea	 ecx, DWORD PTR [esi+12]
  0008b	ff 75 f8	 push	 DWORD PTR _pid$[ebp]
  0008e	6a 00		 push	 0
  00090	e8 00 00 00 00	 call	 ?Setup@ccddaabb@@QAEXPBDHH@Z ; ccddaabb::Setup
  00095	5f		 pop	 edi
  00096	5e		 pop	 esi
  00097	5b		 pop	 ebx

; 88   : 
; 89   : #ifdef _NOTUSE
; 90   : 		m_value        = 0;
; 91   : 		EncryptValueToPool((char*)&m_value);
; 92   : 		Debug();
; 93   : #endif
; 94   : 	}

  00098	c9		 leave
  00099	c3		 ret	 0
?Init@?$CEncrypt@M@@AAEXXZ ENDP				; CEncrypt<float>::Init
_TEXT	ENDS
PUBLIC	?DecryptValueToPool@?$CEncrypt@M@@QAEXPAM@Z	; CEncrypt<float>::DecryptValueToPool
EXTRN	?DecryptByte@ccddaabb@@QBEXPBDPADH@Z:PROC	; ccddaabb::DecryptByte
; Function compile flags: /Ogsp
;	COMDAT ?DecryptValueToPool@?$CEncrypt@M@@QAEXPAM@Z
_TEXT	SEGMENT
_value$ = 8						; size = 4
?DecryptValueToPool@?$CEncrypt@M@@QAEXPAM@Z PROC	; CEncrypt<float>::DecryptValueToPool, COMDAT
; _this$ = ecx

; 1648 : 	{

  00000	55		 push	 ebp
  00001	8b ec		 mov	 ebp, esp
  00003	56		 push	 esi

; 1649 : 		m_RC5.DecryptByte( m_MemPool, m_TempMem, 4 );

  00004	8d 71 28	 lea	 esi, DWORD PTR [ecx+40]
  00007	6a 04		 push	 4
  00009	8d 41 1c	 lea	 eax, DWORD PTR [ecx+28]
  0000c	56		 push	 esi
  0000d	50		 push	 eax
  0000e	83 c1 0c	 add	 ecx, 12			; 0000000cH
  00011	e8 00 00 00 00	 call	 ?DecryptByte@ccddaabb@@QBEXPBDPADH@Z ; ccddaabb::DecryptByte

; 1650 : 		*value = *((float*)m_TempMem);

  00016	d9 06		 fld	 DWORD PTR [esi]
  00018	8b 45 08	 mov	 eax, DWORD PTR _value$[ebp]
  0001b	d9 18		 fstp	 DWORD PTR [eax]
  0001d	5e		 pop	 esi

; 1651 : 	}

  0001e	5d		 pop	 ebp
  0001f	c2 04 00	 ret	 4
?DecryptValueToPool@?$CEncrypt@M@@QAEXPAM@Z ENDP	; CEncrypt<float>::DecryptValueToPool
_TEXT	ENDS
PUBLIC	?EncryptValueToPool@?$CEncrypt@K@@AAEXPBD@Z	; CEncrypt<unsigned long>::EncryptValueToPool
; Function compile flags: /Ogsp
;	COMDAT ?EncryptValueToPool@?$CEncrypt@K@@AAEXPBD@Z
_TEXT	SEGMENT
_value$ = 8						; size = 4
?EncryptValueToPool@?$CEncrypt@K@@AAEXPBD@Z PROC	; CEncrypt<unsigned long>::EncryptValueToPool, COMDAT
; _this$ = ecx

; 67   : 	{

  00000	55		 push	 ebp
  00001	8b ec		 mov	 ebp, esp

; 68   : 		m_RC5.EncryptByte( value, m_MemPool, max(m_ValueSize, DEFAULT_ENCRYPT) );

  00003	0f b7 41 06	 movzx	 eax, WORD PTR [ecx+6]
  00007	83 f8 04	 cmp	 eax, 4
  0000a	77 03		 ja	 SHORT $LN4@EncryptVal@2
  0000c	6a 04		 push	 4
  0000e	58		 pop	 eax
$LN4@EncryptVal@2:
  0000f	50		 push	 eax
  00010	8d 41 1c	 lea	 eax, DWORD PTR [ecx+28]
  00013	50		 push	 eax
  00014	ff 75 08	 push	 DWORD PTR _value$[ebp]
  00017	83 c1 0c	 add	 ecx, 12			; 0000000cH
  0001a	e8 00 00 00 00	 call	 ?EncryptByte@ccddaabb@@QAEXPBDPADH@Z ; ccddaabb::EncryptByte

; 69   : 		
; 70   : 	}

  0001f	5d		 pop	 ebp
  00020	c2 04 00	 ret	 4
?EncryptValueToPool@?$CEncrypt@K@@AAEXPBD@Z ENDP	; CEncrypt<unsigned long>::EncryptValueToPool
_TEXT	ENDS
PUBLIC	?Init@?$CEncrypt@K@@AAEXXZ			; CEncrypt<unsigned long>::Init
; Function compile flags: /Ogsp
;	COMDAT ?Init@?$CEncrypt@K@@AAEXXZ
_TEXT	SEGMENT
_pid$ = -8						; size = 4
_tick$ = -4						; size = 4
?Init@?$CEncrypt@K@@AAEXXZ PROC				; CEncrypt<unsigned long>::Init, COMDAT
; _this$ = ecx

; 73   : 	{

  00000	55		 push	 ebp
  00001	8b ec		 mov	 ebp, esp
  00003	51		 push	 ecx
  00004	51		 push	 ecx
  00005	53		 push	 ebx
  00006	56		 push	 esi
  00007	57		 push	 edi
  00008	8b f1		 mov	 esi, ecx

; 74   : 		DWORD pid = GetCurrentProcessId();

  0000a	ff 15 00 00 00
	00		 call	 DWORD PTR __imp__GetCurrentProcessId@0
  00010	89 45 f8	 mov	 DWORD PTR _pid$[ebp], eax

; 75   : 		DWORD tick = timeGetTime();

  00013	ff 15 00 00 00
	00		 call	 DWORD PTR __imp__timeGetTime@0

; 76   : 		m_ValueSize    = sizeof(type);
; 77   : 		m_MemPoolPos   = (unsigned short)( rand()+pid+tick )%(MAX_MEM_POOL-m_ValueSize);

  00019	8b 3d 00 00 00
	00		 mov	 edi, DWORD PTR __imp__rand
  0001f	89 45 fc	 mov	 DWORD PTR _tick$[ebp], eax
  00022	6a 04		 push	 4
  00024	58		 pop	 eax
  00025	66 89 46 06	 mov	 WORD PTR [esi+6], ax
  00029	ff d7		 call	 edi
  0002b	03 45 f8	 add	 eax, DWORD PTR _pid$[ebp]
  0002e	0f b7 4e 06	 movzx	 ecx, WORD PTR [esi+6]
  00032	03 45 fc	 add	 eax, DWORD PTR _tick$[ebp]
  00035	6a 0c		 push	 12			; 0000000cH
  00037	0f b7 c0	 movzx	 eax, ax
  0003a	5b		 pop	 ebx
  0003b	99		 cdq
  0003c	2b d9		 sub	 ebx, ecx
  0003e	f7 fb		 idiv	 ebx
  00040	66 89 56 04	 mov	 WORD PTR [esi+4], dx

; 78   : 		m_EncryptSeed  = (char)( rand()+pid+tick )%256;

  00044	ff d7		 call	 edi
  00046	02 45 f8	 add	 al, BYTE PTR _pid$[ebp]
  00049	02 45 fc	 add	 al, BYTE PTR _tick$[ebp]
  0004c	0f be c0	 movsx	 eax, al
  0004f	25 ff 00 00 80	 and	 eax, -2147483393	; 800000ffH
  00054	79 07		 jns	 SHORT $LN8@Init@2
  00056	48		 dec	 eax
  00057	0d 00 ff ff ff	 or	 eax, -256		; ffffff00H
  0005c	40		 inc	 eax
$LN8@Init@2:
  0005d	88 46 08	 mov	 BYTE PTR [esi+8], al

; 79   : 
; 80   : 		for (int i = 0; i < MAX_MEM_POOL ; i++)

  00060	33 db		 xor	 ebx, ebx
$LL3@Init@2:

; 81   : 			m_MemPool[i] = (char)( rand()+pid+tick )%256; // 

  00062	ff d7		 call	 edi
  00064	02 45 f8	 add	 al, BYTE PTR _pid$[ebp]
  00067	02 45 fc	 add	 al, BYTE PTR _tick$[ebp]
  0006a	0f be c0	 movsx	 eax, al
  0006d	25 ff 00 00 80	 and	 eax, -2147483393	; 800000ffH
  00072	79 07		 jns	 SHORT $LN9@Init@2
  00074	48		 dec	 eax
  00075	0d 00 ff ff ff	 or	 eax, -256		; ffffff00H
  0007a	40		 inc	 eax
$LN9@Init@2:
  0007b	88 44 1e 1c	 mov	 BYTE PTR [esi+ebx+28], al
  0007f	43		 inc	 ebx
  00080	83 fb 0c	 cmp	 ebx, 12			; 0000000cH
  00083	7c dd		 jl	 SHORT $LL3@Init@2

; 82   : 
; 83   : 		//UJ 130913, : szKey  
; 84   : 		//char szKey[ccddaabb::KEY_SIZE];//="";
; 85   : 		//for (int i = 0; i < ccddaabb::KEY_SIZE  ; i++)
; 86   : 		//	szKey[i] = (char)( rand()+pid+tick )%256; // 
; 87   : 		m_RC5.Setup( NULL, pid, tick );

  00085	ff 75 fc	 push	 DWORD PTR _tick$[ebp]
  00088	8d 4e 0c	 lea	 ecx, DWORD PTR [esi+12]
  0008b	ff 75 f8	 push	 DWORD PTR _pid$[ebp]
  0008e	6a 00		 push	 0
  00090	e8 00 00 00 00	 call	 ?Setup@ccddaabb@@QAEXPBDHH@Z ; ccddaabb::Setup
  00095	5f		 pop	 edi
  00096	5e		 pop	 esi
  00097	5b		 pop	 ebx

; 88   : 
; 89   : #ifdef _NOTUSE
; 90   : 		m_value        = 0;
; 91   : 		EncryptValueToPool((char*)&m_value);
; 92   : 		Debug();
; 93   : #endif
; 94   : 	}

  00098	c9		 leave
  00099	c3		 ret	 0
?Init@?$CEncrypt@K@@AAEXXZ ENDP				; CEncrypt<unsigned long>::Init
_TEXT	ENDS
PUBLIC	?DecryptValueToPool@?$CEncrypt@K@@QAEXPAK@Z	; CEncrypt<unsigned long>::DecryptValueToPool
; Function compile flags: /Ogsp
;	COMDAT ?DecryptValueToPool@?$CEncrypt@K@@QAEXPAK@Z
_TEXT	SEGMENT
_value$ = 8						; size = 4
?DecryptValueToPool@?$CEncrypt@K@@QAEXPAK@Z PROC	; CEncrypt<unsigned long>::DecryptValueToPool, COMDAT
; _this$ = ecx

; 1256 : 	{

  00000	55		 push	 ebp
  00001	8b ec		 mov	 ebp, esp
  00003	56		 push	 esi

; 1257 : 		m_RC5.DecryptByte( m_MemPool, m_TempMem, 4 );

  00004	8d 71 28	 lea	 esi, DWORD PTR [ecx+40]
  00007	6a 04		 push	 4
  00009	8d 41 1c	 lea	 eax, DWORD PTR [ecx+28]
  0000c	56		 push	 esi
  0000d	50		 push	 eax
  0000e	83 c1 0c	 add	 ecx, 12			; 0000000cH
  00011	e8 00 00 00 00	 call	 ?DecryptByte@ccddaabb@@QBEXPBDPADH@Z ; ccddaabb::DecryptByte

; 1258 : 		*value = *((DWORD*)m_TempMem);

  00016	8b 06		 mov	 eax, DWORD PTR [esi]
  00018	8b 4d 08	 mov	 ecx, DWORD PTR _value$[ebp]
  0001b	89 01		 mov	 DWORD PTR [ecx], eax
  0001d	5e		 pop	 esi

; 1259 : 	}

  0001e	5d		 pop	 ebp
  0001f	c2 04 00	 ret	 4
?DecryptValueToPool@?$CEncrypt@K@@QAEXPAK@Z ENDP	; CEncrypt<unsigned long>::DecryptValueToPool
_TEXT	ENDS
PUBLIC	?EncryptValueToPool@?$CEncrypt@_N@@AAEXPBD@Z	; CEncrypt<bool>::EncryptValueToPool
; Function compile flags: /Ogsp
;	COMDAT ?EncryptValueToPool@?$CEncrypt@_N@@AAEXPBD@Z
_TEXT	SEGMENT
_value$ = 8						; size = 4
?EncryptValueToPool@?$CEncrypt@_N@@AAEXPBD@Z PROC	; CEncrypt<bool>::EncryptValueToPool, COMDAT
; _this$ = ecx

; 67   : 	{

  00000	55		 push	 ebp
  00001	8b ec		 mov	 ebp, esp

; 68   : 		m_RC5.EncryptByte( value, m_MemPool, max(m_ValueSize, DEFAULT_ENCRYPT) );

  00003	0f b7 41 06	 movzx	 eax, WORD PTR [ecx+6]
  00007	83 f8 04	 cmp	 eax, 4
  0000a	77 03		 ja	 SHORT $LN4@EncryptVal@3
  0000c	6a 04		 push	 4
  0000e	58		 pop	 eax
$LN4@EncryptVal@3:
  0000f	50		 push	 eax
  00010	8d 41 1c	 lea	 eax, DWORD PTR [ecx+28]
  00013	50		 push	 eax
  00014	ff 75 08	 push	 DWORD PTR _value$[ebp]
  00017	83 c1 0c	 add	 ecx, 12			; 0000000cH
  0001a	e8 00 00 00 00	 call	 ?EncryptByte@ccddaabb@@QAEXPBDPADH@Z ; ccddaabb::EncryptByte

; 69   : 		
; 70   : 	}

  0001f	5d		 pop	 ebp
  00020	c2 04 00	 ret	 4
?EncryptValueToPool@?$CEncrypt@_N@@AAEXPBD@Z ENDP	; CEncrypt<bool>::EncryptValueToPool
_TEXT	ENDS
PUBLIC	?Init@?$CEncrypt@_N@@AAEXXZ			; CEncrypt<bool>::Init
; Function compile flags: /Ogsp
;	COMDAT ?Init@?$CEncrypt@_N@@AAEXXZ
_TEXT	SEGMENT
_pid$ = -8						; size = 4
_tick$ = -4						; size = 4
?Init@?$CEncrypt@_N@@AAEXXZ PROC			; CEncrypt<bool>::Init, COMDAT
; _this$ = ecx

; 73   : 	{

  00000	55		 push	 ebp
  00001	8b ec		 mov	 ebp, esp
  00003	51		 push	 ecx
  00004	51		 push	 ecx
  00005	53		 push	 ebx
  00006	56		 push	 esi
  00007	57		 push	 edi
  00008	8b f1		 mov	 esi, ecx

; 74   : 		DWORD pid = GetCurrentProcessId();

  0000a	ff 15 00 00 00
	00		 call	 DWORD PTR __imp__GetCurrentProcessId@0
  00010	89 45 f8	 mov	 DWORD PTR _pid$[ebp], eax

; 75   : 		DWORD tick = timeGetTime();

  00013	ff 15 00 00 00
	00		 call	 DWORD PTR __imp__timeGetTime@0

; 76   : 		m_ValueSize    = sizeof(type);
; 77   : 		m_MemPoolPos   = (unsigned short)( rand()+pid+tick )%(MAX_MEM_POOL-m_ValueSize);

  00019	8b 3d 00 00 00
	00		 mov	 edi, DWORD PTR __imp__rand
  0001f	89 45 fc	 mov	 DWORD PTR _tick$[ebp], eax
  00022	33 c0		 xor	 eax, eax
  00024	40		 inc	 eax
  00025	66 89 46 06	 mov	 WORD PTR [esi+6], ax
  00029	ff d7		 call	 edi
  0002b	03 45 f8	 add	 eax, DWORD PTR _pid$[ebp]
  0002e	0f b7 4e 06	 movzx	 ecx, WORD PTR [esi+6]
  00032	03 45 fc	 add	 eax, DWORD PTR _tick$[ebp]
  00035	6a 0c		 push	 12			; 0000000cH
  00037	0f b7 c0	 movzx	 eax, ax
  0003a	5b		 pop	 ebx
  0003b	99		 cdq
  0003c	2b d9		 sub	 ebx, ecx
  0003e	f7 fb		 idiv	 ebx
  00040	66 89 56 04	 mov	 WORD PTR [esi+4], dx

; 78   : 		m_EncryptSeed  = (char)( rand()+pid+tick )%256;

  00044	ff d7		 call	 edi
  00046	02 45 f8	 add	 al, BYTE PTR _pid$[ebp]
  00049	02 45 fc	 add	 al, BYTE PTR _tick$[ebp]
  0004c	0f be c0	 movsx	 eax, al
  0004f	25 ff 00 00 80	 and	 eax, -2147483393	; 800000ffH
  00054	79 07		 jns	 SHORT $LN8@Init@3
  00056	48		 dec	 eax
  00057	0d 00 ff ff ff	 or	 eax, -256		; ffffff00H
  0005c	40		 inc	 eax
$LN8@Init@3:
  0005d	88 46 08	 mov	 BYTE PTR [esi+8], al

; 79   : 
; 80   : 		for (int i = 0; i < MAX_MEM_POOL ; i++)

  00060	33 db		 xor	 ebx, ebx
$LL3@Init@3:

; 81   : 			m_MemPool[i] = (char)( rand()+pid+tick )%256; // 

  00062	ff d7		 call	 edi
  00064	02 45 f8	 add	 al, BYTE PTR _pid$[ebp]
  00067	02 45 fc	 add	 al, BYTE PTR _tick$[ebp]
  0006a	0f be c0	 movsx	 eax, al
  0006d	25 ff 00 00 80	 and	 eax, -2147483393	; 800000ffH
  00072	79 07		 jns	 SHORT $LN9@Init@3
  00074	48		 dec	 eax
  00075	0d 00 ff ff ff	 or	 eax, -256		; ffffff00H
  0007a	40		 inc	 eax
$LN9@Init@3:
  0007b	88 44 1e 1c	 mov	 BYTE PTR [esi+ebx+28], al
  0007f	43		 inc	 ebx
  00080	83 fb 0c	 cmp	 ebx, 12			; 0000000cH
  00083	7c dd		 jl	 SHORT $LL3@Init@3

; 82   : 
; 83   : 		//UJ 130913, : szKey  
; 84   : 		//char szKey[ccddaabb::KEY_SIZE];//="";
; 85   : 		//for (int i = 0; i < ccddaabb::KEY_SIZE  ; i++)
; 86   : 		//	szKey[i] = (char)( rand()+pid+tick )%256; // 
; 87   : 		m_RC5.Setup( NULL, pid, tick );

  00085	ff 75 fc	 push	 DWORD PTR _tick$[ebp]
  00088	8d 4e 0c	 lea	 ecx, DWORD PTR [esi+12]
  0008b	ff 75 f8	 push	 DWORD PTR _pid$[ebp]
  0008e	6a 00		 push	 0
  00090	e8 00 00 00 00	 call	 ?Setup@ccddaabb@@QAEXPBDHH@Z ; ccddaabb::Setup
  00095	5f		 pop	 edi
  00096	5e		 pop	 esi
  00097	5b		 pop	 ebx

; 88   : 
; 89   : #ifdef _NOTUSE
; 90   : 		m_value        = 0;
; 91   : 		EncryptValueToPool((char*)&m_value);
; 92   : 		Debug();
; 93   : #endif
; 94   : 	}

  00098	c9		 leave
  00099	c3		 ret	 0
?Init@?$CEncrypt@_N@@AAEXXZ ENDP			; CEncrypt<bool>::Init
_TEXT	ENDS
PUBLIC	?DecryptValueToPool@?$CEncrypt@_N@@QAEXPA_N@Z	; CEncrypt<bool>::DecryptValueToPool
; Function compile flags: /Ogsp
;	COMDAT ?DecryptValueToPool@?$CEncrypt@_N@@QAEXPA_N@Z
_TEXT	SEGMENT
_value$ = 8						; size = 4
?DecryptValueToPool@?$CEncrypt@_N@@QAEXPA_N@Z PROC	; CEncrypt<bool>::DecryptValueToPool, COMDAT
; _this$ = ecx

; 219  : 	{

  00000	55		 push	 ebp
  00001	8b ec		 mov	 ebp, esp
  00003	56		 push	 esi

; 220  : 		m_RC5.DecryptByte( m_MemPool, m_TempMem, 4 );

  00004	8d 71 28	 lea	 esi, DWORD PTR [ecx+40]
  00007	6a 04		 push	 4
  00009	8d 41 1c	 lea	 eax, DWORD PTR [ecx+28]
  0000c	56		 push	 esi
  0000d	50		 push	 eax
  0000e	83 c1 0c	 add	 ecx, 12			; 0000000cH
  00011	e8 00 00 00 00	 call	 ?DecryptByte@ccddaabb@@QBEXPBDPADH@Z ; ccddaabb::DecryptByte

; 221  : 		*value = *((bool*)m_TempMem);

  00016	8a 06		 mov	 al, BYTE PTR [esi]
  00018	8b 4d 08	 mov	 ecx, DWORD PTR _value$[ebp]
  0001b	88 01		 mov	 BYTE PTR [ecx], al
  0001d	5e		 pop	 esi

; 222  : 	}

  0001e	5d		 pop	 ebp
  0001f	c2 04 00	 ret	 4
?DecryptValueToPool@?$CEncrypt@_N@@QAEXPA_N@Z ENDP	; CEncrypt<bool>::DecryptValueToPool
_TEXT	ENDS
PUBLIC	?DecryptValueToPool@?$CEncrypt@H@@QAEXPAH@Z	; CEncrypt<int>::DecryptValueToPool
; Function compile flags: /Ogsp
;	COMDAT ?DecryptValueToPool@?$CEncrypt@H@@QAEXPAH@Z
_TEXT	SEGMENT
_value$ = 8						; size = 4
?DecryptValueToPool@?$CEncrypt@H@@QAEXPAH@Z PROC	; CEncrypt<int>::DecryptValueToPool, COMDAT
; _this$ = ecx

; 837  : 	{

  00000	55		 push	 ebp
  00001	8b ec		 mov	 ebp, esp
  00003	56		 push	 esi

; 838  : 		m_RC5.DecryptByte( m_MemPool, m_TempMem, 4 );

  00004	8d 71 28	 lea	 esi, DWORD PTR [ecx+40]
  00007	6a 04		 push	 4
  00009	8d 41 1c	 lea	 eax, DWORD PTR [ecx+28]
  0000c	56		 push	 esi
  0000d	50		 push	 eax
  0000e	83 c1 0c	 add	 ecx, 12			; 0000000cH
  00011	e8 00 00 00 00	 call	 ?DecryptByte@ccddaabb@@QBEXPBDPADH@Z ; ccddaabb::DecryptByte

; 839  : 		*value = *((int*)m_TempMem);

  00016	8b 06		 mov	 eax, DWORD PTR [esi]
  00018	8b 4d 08	 mov	 ecx, DWORD PTR _value$[ebp]
  0001b	89 01		 mov	 DWORD PTR [ecx], eax
  0001d	5e		 pop	 esi

; 840  : 	}

  0001e	5d		 pop	 ebp
  0001f	c2 04 00	 ret	 4
?DecryptValueToPool@?$CEncrypt@H@@QAEXPAH@Z ENDP	; CEncrypt<int>::DecryptValueToPool
_TEXT	ENDS
PUBLIC	??_R0?AVioBaseChar@@@8				; ioBaseChar `RTTI Type Descriptor'
PUBLIC	?ToBaseChar@@YAPAVioBaseChar@@PAVioGameEntity@@@Z ; ToBaseChar
;	COMDAT ??_R0?AVioBaseChar@@@8
; File d:\lost saga for developer\youtube\tutorial\source\src\lsclient\iobasechar.h
_DATA	SEGMENT
??_R0?AVioBaseChar@@@8 DD FLAT:??_7type_info@@6B@	; ioBaseChar `RTTI Type Descriptor'
	DD	00H
	DB	'.?AVioBaseChar@@', 00H
; Function compile flags: /Ogsp
_DATA	ENDS
;	COMDAT ?ToBaseChar@@YAPAVioBaseChar@@PAVioGameEntity@@@Z
_TEXT	SEGMENT
_pObj$ = 8						; size = 4
?ToBaseChar@@YAPAVioBaseChar@@PAVioGameEntity@@@Z PROC	; ToBaseChar, COMDAT

; 4326 : {

  00000	55		 push	 ebp
  00001	8b ec		 mov	 ebp, esp
  00003	56		 push	 esi

; 4327 : 	ioPlayEntity *pPlay = ToPlayEntity( pObj );

  00004	ff 75 08	 push	 DWORD PTR _pObj$[ebp]
  00007	e8 00 00 00 00	 call	 ?ToPlayEntity@@YAPAVioPlayEntity@@PAVioGameEntity@@@Z ; ToPlayEntity
  0000c	8b f0		 mov	 esi, eax
  0000e	59		 pop	 ecx

; 4328 : 	if( !pPlay || pPlay->GetSubType() != ioPlayEntity::PST_CHAR )

  0000f	85 f6		 test	 esi, esi
  00011	74 25		 je	 SHORT $LN1@ToBaseChar
  00013	8b 06		 mov	 eax, DWORD PTR [esi]
  00015	8b ce		 mov	 ecx, esi
  00017	ff 90 a4 00 00
	00		 call	 DWORD PTR [eax+164]
  0001d	85 c0		 test	 eax, eax
  0001f	75 17		 jne	 SHORT $LN1@ToBaseChar

; 4330 : 
; 4331 : 	return dynamic_cast< ioBaseChar* >( pPlay );

  00021	50		 push	 eax
  00022	68 00 00 00 00	 push	 OFFSET ??_R0?AVioBaseChar@@@8
  00027	68 00 00 00 00	 push	 OFFSET ??_R0?AVioPlayEntity@@@8
  0002c	50		 push	 eax
  0002d	56		 push	 esi
  0002e	e8 00 00 00 00	 call	 ___RTDynamicCast
  00033	83 c4 14	 add	 esp, 20			; 00000014H
  00036	eb 02		 jmp	 SHORT $LN3@ToBaseChar
$LN1@ToBaseChar:

; 4329 : 		return NULL;

  00038	33 c0		 xor	 eax, eax
$LN3@ToBaseChar:
  0003a	5e		 pop	 esi

; 4332 : }

  0003b	5d		 pop	 ebp
  0003c	c3		 ret	 0
?ToBaseChar@@YAPAVioBaseChar@@PAVioGameEntity@@@Z ENDP	; ToBaseChar
_TEXT	ENDS
PUBLIC	??_C@_0DF@OKHBCONP@ioGuide2Weapon?3?3?$HOioGuide2Weapon?5@ ; `string'
PUBLIC	??_7ioGuide2Weapon@@6B@				; ioGuide2Weapon::`vftable'
PUBLIC	??1ioGuide2Weapon@@UAE@XZ			; ioGuide2Weapon::~ioGuide2Weapon
PUBLIC	??_R4ioGuide2Weapon@@6B@			; ioGuide2Weapon::`RTTI Complete Object Locator'
PUBLIC	??_R0?AVioGuide2Weapon@@@8			; ioGuide2Weapon `RTTI Type Descriptor'
PUBLIC	??_R3ioGuide2Weapon@@8				; ioGuide2Weapon::`RTTI Class Hierarchy Descriptor'
PUBLIC	??_R2ioGuide2Weapon@@8				; ioGuide2Weapon::`RTTI Base Class Array'
PUBLIC	??_R1A@?0A@EA@ioGuide2Weapon@@8			; ioGuide2Weapon::`RTTI Base Class Descriptor at (0,-1,0,64)'
PUBLIC	??_R1A@?0A@EA@ioWeapon@@8			; ioWeapon::`RTTI Base Class Descriptor at (0,-1,0,64)'
PUBLIC	??_R0?AVioWeapon@@@8				; ioWeapon `RTTI Type Descriptor'
PUBLIC	??_R3ioWeapon@@8				; ioWeapon::`RTTI Class Hierarchy Descriptor'
PUBLIC	??_R2ioWeapon@@8				; ioWeapon::`RTTI Base Class Array'
PUBLIC	?SetOwnerChargeScaleRate@ioGuide2Weapon@@UAEXM@Z ; ioGuide2Weapon::SetOwnerChargeScaleRate
PUBLIC	?SetTeam@ioGuide2Weapon@@UAEXPAVioPlayStage@@W4TeamType@@@Z ; ioGuide2Weapon::SetTeam
PUBLIC	?SetWeaponDead@ioGuide2Weapon@@UAEXXZ		; ioGuide2Weapon::SetWeaponDead
PUBLIC	?LoadProperty@ioGuide2Weapon@@UAEXAAVioINILoader@@@Z ; ioGuide2Weapon::LoadProperty
PUBLIC	?Process@ioGuide2Weapon@@UAEXMPAVioPlayStage@@@Z ; ioGuide2Weapon::Process
PUBLIC	?IsCollision@ioGuide2Weapon@@UAE_NPAVioPlayEntity@@_N@Z ; ioGuide2Weapon::IsCollision
PUBLIC	?TestMapCollision@ioGuide2Weapon@@UAE_NPAVioOpcodeShape@@PAVioPlayStage@@PBUD3DXMATRIX@@@Z ; ioGuide2Weapon::TestMapCollision
PUBLIC	?CheckPreCollision@ioGuide2Weapon@@UAEXPAVioPlayEntity@@PAVioPlayStage@@@Z ; ioGuide2Weapon::CheckPreCollision
PUBLIC	?ApplyWeaponSync@ioGuide2Weapon@@UAEXAAVSP2Packet@@PAVioPlayStage@@@Z ; ioGuide2Weapon::ApplyWeaponSync
PUBLIC	?UpdateWorldAttackBox@ioGuide2Weapon@@MAEXM_N@Z	; ioGuide2Weapon::UpdateWorldAttackBox
EXTRN	??1ioWeapon@@UAE@XZ:PROC			; ioWeapon::~ioWeapon
EXTRN	__imp_??1ioOrientBox@@QAE@XZ:PROC
EXTRN	__imp_?PrintTimeAndLog@CLog@@QAAXHPADZZ:PROC
EXTRN	__imp_?LOG@@3VCLog@@A:BYTE
EXTRN	?IsAlreadyCollisioned@ioWeapon@@UAE_NPAVioPlayEntity@@@Z:PROC ; ioWeapon::IsAlreadyCollisioned
EXTRN	?AddCollisionEntity@ioWeapon@@UAEXPAVioPlayEntity@@@Z:PROC ; ioWeapon::AddCollisionEntity
EXTRN	?SetOwnerDamageRate@ioWeapon@@UAEXM@Z:PROC	; ioWeapon::SetOwnerDamageRate
EXTRN	?SetOwnerChargeDamageRate@ioWeapon@@UAEXM@Z:PROC ; ioWeapon::SetOwnerChargeDamageRate
EXTRN	?SetOwnerChargeForceRate@ioWeapon@@UAEXM@Z:PROC	; ioWeapon::SetOwnerChargeForceRate
EXTRN	?SetOwnerChargeRangeRate@ioWeapon@@UAEXM@Z:PROC	; ioWeapon::SetOwnerChargeRangeRate
EXTRN	?SetOwnerChargeSpeedRate@ioWeapon@@UAEXM@Z:PROC	; ioWeapon::SetOwnerChargeSpeedRate
EXTRN	?SetOwnerChargeBlowRate@ioWeapon@@UAEXM@Z:PROC	; ioWeapon::SetOwnerChargeBlowRate
EXTRN	?SetOwnerChargeFloatRate@ioWeapon@@UAEXM@Z:PROC	; ioWeapon::SetOwnerChargeFloatRate
EXTRN	?SetOwnerChargeExplosionRate@ioWeapon@@UAEXM@Z:PROC ; ioWeapon::SetOwnerChargeExplosionRate
EXTRN	?SetOwnerChargeWoundedTimeRate@ioWeapon@@UAEXM@Z:PROC ; ioWeapon::SetOwnerChargeWoundedTimeRate
EXTRN	?SetOwnerChargeLiveTimeRate@ioWeapon@@UAEXM@Z:PROC ; ioWeapon::SetOwnerChargeLiveTimeRate
EXTRN	?SetOwnerChargeBuffLiveTimeRate@ioWeapon@@UAEXM@Z:PROC ; ioWeapon::SetOwnerChargeBuffLiveTimeRate
EXTRN	?SetGrapplingTargetName@ioWeapon@@UAEXABVioHashString@@@Z:PROC ; ioWeapon::SetGrapplingTargetName
EXTRN	?SetCreateItem@ioWeapon@@UAEXABVioHashString@@@Z:PROC ; ioWeapon::SetCreateItem
EXTRN	?CallReserveAreaWeapon@ioWeapon@@UAEXXZ:PROC	; ioWeapon::CallReserveAreaWeapon
EXTRN	?PlayExplosionSound@ioWeapon@@UAEXXZ:PROC	; ioWeapon::PlayExplosionSound
EXTRN	?PlayWoundedSound@ioWeapon@@UAEXPAVioPlayEntity@@@Z:PROC ; ioWeapon::PlayWoundedSound
EXTRN	?PlayDefensedSound@ioWeapon@@UAEXPAVioPlayEntity@@@Z:PROC ; ioWeapon::PlayDefensedSound
EXTRN	?PlayLoopSound@ioWeapon@@UAEXXZ:PROC		; ioWeapon::PlayLoopSound
EXTRN	?StopLoopSound@ioWeapon@@UAEXXZ:PROC		; ioWeapon::StopLoopSound
EXTRN	?GetTargetAirBuffList@ioWeapon@@UBEABV?$vector@UBuffInfoStruct@@V?$allocator@UBuffInfoStruct@@@std@@@std@@XZ:PROC ; ioWeapon::GetTargetAirBuffList
EXTRN	?GetTargetBuffList@ioWeapon@@UBEABV?$vector@UBuffInfoStruct@@V?$allocator@UBuffInfoStruct@@@std@@@std@@XZ:PROC ; ioWeapon::GetTargetBuffList
EXTRN	?GetTargetDownBuffList@ioWeapon@@UBEABV?$vector@UBuffInfoStruct@@V?$allocator@UBuffInfoStruct@@@std@@@std@@XZ:PROC ; ioWeapon::GetTargetDownBuffList
EXTRN	?GetPosition@ioWeapon@@UBEABUD3DXVECTOR3@@XZ:PROC ; ioWeapon::GetPosition
EXTRN	?GetBlowType@ioWeapon@@UBE?AW4BlowTargetType@@XZ:PROC ; ioWeapon::GetBlowType
EXTRN	?GetPushPower@ioWeapon@@UBEMM@Z:PROC		; ioWeapon::GetPushPower
EXTRN	?GetBlowPower@ioWeapon@@UBEMM@Z:PROC		; ioWeapon::GetBlowPower
EXTRN	?GetAirPushPower@ioWeapon@@UBEMM@Z:PROC		; ioWeapon::GetAirPushPower
EXTRN	?GetAirBlowPower@ioWeapon@@UBEMM@Z:PROC		; ioWeapon::GetAirBlowPower
EXTRN	?GetDefensePushPower@ioWeapon@@UBEMM@Z:PROC	; ioWeapon::GetDefensePushPower
EXTRN	?SetSylphid@ioWeapon@@UAEHXZ:PROC		; ioWeapon::SetSylphid
EXTRN	?ApplyExtraReserveWeaponByWeaponInfo@ioWeapon@@UAEXPAV1@@Z:PROC ; ioWeapon::ApplyExtraReserveWeaponByWeaponInfo
EXTRN	?SetResistanceAttr@ioWeapon@@UAEXH@Z:PROC	; ioWeapon::SetResistanceAttr
EXTRN	?SetStartCollisionBox@ioWeapon@@UAEXXZ:PROC	; ioWeapon::SetStartCollisionBox
EXTRN	?SetLiveTime@ioWeapon@@UAEXK@Z:PROC		; ioWeapon::SetLiveTime
EXTRN	?SetMoveSpeed@ioWeapon@@UAEXM@Z:PROC		; ioWeapon::SetMoveSpeed
EXTRN	?SetFloatPower@ioWeapon@@UAEXM@Z:PROC		; ioWeapon::SetFloatPower
EXTRN	?CheckStructAndDummy@ioWeapon@@UAEXPAVioPlayEntity@@PAVioPlayStage@@@Z:PROC ; ioWeapon::CheckStructAndDummy
EXTRN	?GetDamage@ioWeapon@@UAEMPAVioPlayEntity@@@Z:PROC ; ioWeapon::GetDamage
EXTRN	?GetBaseDamage@ioWeapon@@UAEMPAVioPlayEntity@@@Z:PROC ; ioWeapon::GetBaseDamage
EXTRN	?GetPushAngle@ioWeapon@@UBEMXZ:PROC		; ioWeapon::GetPushAngle
EXTRN	?IsResistanceMagic@ioWeapon@@UAEHPAVioBaseChar@@@Z:PROC ; ioWeapon::IsResistanceMagic
EXTRN	?IsResistanceBomb@ioWeapon@@UAEHPAVioBaseChar@@@Z:PROC ; ioWeapon::IsResistanceBomb
EXTRN	?IsCanMineExplosion@ioWeapon@@UAE_NXZ:PROC	; ioWeapon::IsCanMineExplosion
EXTRN	?CheckGrapplingState@ioWeapon@@UAE?AW4GrapplingType@@XZ:PROC ; ioWeapon::CheckGrapplingState
EXTRN	?CheckCurAttribute@ioWeapon@@UAEXPBVioPlayEntity@@@Z:PROC ; ioWeapon::CheckCurAttribute
EXTRN	?CheckItemNotDrop@ioWeapon@@UAE_NPAVioBaseChar@@@Z:PROC ; ioWeapon::CheckItemNotDrop
EXTRN	?GetWorldAttackBoxList@ioWeapon@@UAEXAAV?$vector@VioOrientBox@@V?$allocator@VioOrientBox@@@std@@@std@@@Z:PROC ; ioWeapon::GetWorldAttackBoxList
EXTRN	?GetAttackDir@ioWeapon@@UBE?AUD3DXVECTOR3@@PBVioPlayEntity@@@Z:PROC ; ioWeapon::GetAttackDir
EXTRN	?GetLiveTime@ioWeapon@@UAEKXZ:PROC		; ioWeapon::GetLiveTime
EXTRN	?CheckWeaponCollision@ioWeapon@@UAEXXZ:PROC	; ioWeapon::CheckWeaponCollision
EXTRN	?GetRefreshDuration@ioWeapon@@UAEKXZ:PROC	; ioWeapon::GetRefreshDuration
EXTRN	?GetIgnoreDuration@ioWeapon@@UAEKXZ:PROC	; ioWeapon::GetIgnoreDuration
EXTRN	?GetIgnoreTimeTypeDuration@ioWeapon@@UAEKXZ:PROC ; ioWeapon::GetIgnoreTimeTypeDuration
EXTRN	?GetIgnoreTimeType@ioWeapon@@UAEKXZ:PROC	; ioWeapon::GetIgnoreTimeType
EXTRN	?IsSkillDependency@ioWeapon@@UAE_NABVioHashString@@@Z:PROC ; ioWeapon::IsSkillDependency
EXTRN	?SetSkillDependencyAction@ioWeapon@@UAEXXZ:PROC	; ioWeapon::SetSkillDependencyAction
EXTRN	?GetAttribute@ioWeapon@@MBEPBUWeaponAttribute@@XZ:PROC ; ioWeapon::GetAttribute
EXTRN	?CalcFinalDamage@ioWeapon@@MAEMXZ:PROC		; ioWeapon::CalcFinalDamage
EXTRN	?CalcFinalBoundDamage@ioWeapon@@MAEMXZ:PROC	; ioWeapon::CalcFinalBoundDamage
EXTRN	?CheckPiercing@ioWeapon@@MAE_N_N@Z:PROC		; ioWeapon::CheckPiercing
EXTRN	?ClearCollisionList@ioWeapon@@MAEXXZ:PROC	; ioWeapon::ClearCollisionList
EXTRN	?CheckCreateWeaponList@ioWeapon@@MAEXXZ:PROC	; ioWeapon::CheckCreateWeaponList
EXTRN	?CreateCollisionAreaWeapon@ioWeapon@@MAEXXZ:PROC ; ioWeapon::CreateCollisionAreaWeapon
EXTRN	?SetMapCollision@ioWeapon@@UAEXXZ:PROC		; ioWeapon::SetMapCollision
EXTRN	?IsIgnoreMapCollision@ioWeapon@@UBE_NXZ:PROC	; ioWeapon::IsIgnoreMapCollision
EXTRN	?IsIgnoreTestMapCollision@ioWeapon@@UBE_NXZ:PROC ; ioWeapon::IsIgnoreTestMapCollision
EXTRN	?IsIgnoreMapCollisionEffect@ioWeapon@@UBE_NXZ:PROC ; ioWeapon::IsIgnoreMapCollisionEffect
EXTRN	?AddEffectEvent@ioWeapon@@MAEXPAVioEffect@@@Z:PROC ; ioWeapon::AddEffectEvent
EXTRN	??_EioGuide2Weapon@@UAEPAXI@Z:PROC		; ioGuide2Weapon::`vector deleting destructor'
;	COMDAT ??_R2ioWeapon@@8
; File d:\lost saga for developer\youtube\tutorial\source\src\lsclient\encryptvalue.h
rdata$r	SEGMENT
??_R2ioWeapon@@8 DD FLAT:??_R1A@?0A@EA@ioWeapon@@8	; ioWeapon::`RTTI Base Class Array'
rdata$r	ENDS
;	COMDAT ??_R3ioWeapon@@8
rdata$r	SEGMENT
??_R3ioWeapon@@8 DD 00H					; ioWeapon::`RTTI Class Hierarchy Descriptor'
	DD	00H
	DD	01H
	DD	FLAT:??_R2ioWeapon@@8
rdata$r	ENDS
;	COMDAT ??_R0?AVioWeapon@@@8
_DATA	SEGMENT
??_R0?AVioWeapon@@@8 DD FLAT:??_7type_info@@6B@		; ioWeapon `RTTI Type Descriptor'
	DD	00H
	DB	'.?AVioWeapon@@', 00H
_DATA	ENDS
;	COMDAT ??_R1A@?0A@EA@ioWeapon@@8
rdata$r	SEGMENT
??_R1A@?0A@EA@ioWeapon@@8 DD FLAT:??_R0?AVioWeapon@@@8	; ioWeapon::`RTTI Base Class Descriptor at (0,-1,0,64)'
	DD	00H
	DD	00H
	DD	0ffffffffH
	DD	00H
	DD	040H
	DD	FLAT:??_R3ioWeapon@@8
rdata$r	ENDS
;	COMDAT ??_R1A@?0A@EA@ioGuide2Weapon@@8
rdata$r	SEGMENT
??_R1A@?0A@EA@ioGuide2Weapon@@8 DD FLAT:??_R0?AVioGuide2Weapon@@@8 ; ioGuide2Weapon::`RTTI Base Class Descriptor at (0,-1,0,64)'
	DD	01H
	DD	00H
	DD	0ffffffffH
	DD	00H
	DD	040H
	DD	FLAT:??_R3ioGuide2Weapon@@8
rdata$r	ENDS
;	COMDAT ??_R2ioGuide2Weapon@@8
rdata$r	SEGMENT
??_R2ioGuide2Weapon@@8 DD FLAT:??_R1A@?0A@EA@ioGuide2Weapon@@8 ; ioGuide2Weapon::`RTTI Base Class Array'
	DD	FLAT:??_R1A@?0A@EA@ioWeapon@@8
rdata$r	ENDS
;	COMDAT ??_R3ioGuide2Weapon@@8
rdata$r	SEGMENT
??_R3ioGuide2Weapon@@8 DD 00H				; ioGuide2Weapon::`RTTI Class Hierarchy Descriptor'
	DD	00H
	DD	02H
	DD	FLAT:??_R2ioGuide2Weapon@@8
rdata$r	ENDS
;	COMDAT ??_R0?AVioGuide2Weapon@@@8
_DATA	SEGMENT
??_R0?AVioGuide2Weapon@@@8 DD FLAT:??_7type_info@@6B@	; ioGuide2Weapon `RTTI Type Descriptor'
	DD	00H
	DB	'.?AVioGuide2Weapon@@', 00H
_DATA	ENDS
;	COMDAT ??_R4ioGuide2Weapon@@6B@
rdata$r	SEGMENT
??_R4ioGuide2Weapon@@6B@ DD 00H				; ioGuide2Weapon::`RTTI Complete Object Locator'
	DD	00H
	DD	00H
	DD	FLAT:??_R0?AVioGuide2Weapon@@@8
	DD	FLAT:??_R3ioGuide2Weapon@@8
rdata$r	ENDS
;	COMDAT ??_C@_0DF@OKHBCONP@ioGuide2Weapon?3?3?$HOioGuide2Weapon?5@
CONST	SEGMENT
??_C@_0DF@OKHBCONP@ioGuide2Weapon?3?3?$HOioGuide2Weapon?5@ DB 'ioGuide2We'
	DB	'apon::~ioGuide2Weapon - UnReleased Resouce', 00H ; `string'
CONST	ENDS
;	COMDAT ??_7ioGuide2Weapon@@6B@
CONST	SEGMENT
??_7ioGuide2Weapon@@6B@ DD FLAT:??_R4ioGuide2Weapon@@6B@ ; ioGuide2Weapon::`vftable'
	DD	FLAT:?IsAlreadyCollisioned@ioWeapon@@UAE_NPAVioPlayEntity@@@Z
	DD	FLAT:?AddCollisionEntity@ioWeapon@@UAEXPAVioPlayEntity@@@Z
	DD	FLAT:?SetOwnerDamageRate@ioWeapon@@UAEXM@Z
	DD	FLAT:?SetOwnerChargeDamageRate@ioWeapon@@UAEXM@Z
	DD	FLAT:?SetOwnerChargeForceRate@ioWeapon@@UAEXM@Z
	DD	FLAT:?SetOwnerChargeRangeRate@ioWeapon@@UAEXM@Z
	DD	FLAT:?SetOwnerChargeSpeedRate@ioWeapon@@UAEXM@Z
	DD	FLAT:?SetOwnerChargeBlowRate@ioWeapon@@UAEXM@Z
	DD	FLAT:?SetOwnerChargeFloatRate@ioWeapon@@UAEXM@Z
	DD	FLAT:?SetOwnerChargeScaleRate@ioGuide2Weapon@@UAEXM@Z
	DD	FLAT:?SetOwnerChargeExplosionRate@ioWeapon@@UAEXM@Z
	DD	FLAT:?SetOwnerChargeWoundedTimeRate@ioWeapon@@UAEXM@Z
	DD	FLAT:?SetOwnerChargeLiveTimeRate@ioWeapon@@UAEXM@Z
	DD	FLAT:?SetOwnerChargeBuffLiveTimeRate@ioWeapon@@UAEXM@Z
	DD	FLAT:?SetWeaponIndex@ioGuide2Weapon@@UAEXK@Z
	DD	FLAT:?SetGrapplingTargetName@ioWeapon@@UAEXABVioHashString@@@Z
	DD	FLAT:?SetCreateItem@ioWeapon@@UAEXABVioHashString@@@Z
	DD	FLAT:?SetTeam@ioGuide2Weapon@@UAEXPAVioPlayStage@@W4TeamType@@@Z
	DD	FLAT:?CallReserveAreaWeapon@ioWeapon@@UAEXXZ
	DD	FLAT:?SetWeaponDead@ioGuide2Weapon@@UAEXXZ
	DD	FLAT:?PlayExplosionSound@ioWeapon@@UAEXXZ
	DD	FLAT:?PlayWoundedSound@ioWeapon@@UAEXPAVioPlayEntity@@@Z
	DD	FLAT:?PlayDefensedSound@ioWeapon@@UAEXPAVioPlayEntity@@@Z
	DD	FLAT:?PlayLoopSound@ioWeapon@@UAEXXZ
	DD	FLAT:?StopLoopSound@ioWeapon@@UAEXXZ
	DD	FLAT:?GetTargetAirBuffList@ioWeapon@@UBEABV?$vector@UBuffInfoStruct@@V?$allocator@UBuffInfoStruct@@@std@@@std@@XZ
	DD	FLAT:?GetTargetBuffList@ioWeapon@@UBEABV?$vector@UBuffInfoStruct@@V?$allocator@UBuffInfoStruct@@@std@@@std@@XZ
	DD	FLAT:?GetTargetDownBuffList@ioWeapon@@UBEABV?$vector@UBuffInfoStruct@@V?$allocator@UBuffInfoStruct@@@std@@@std@@XZ
	DD	FLAT:?GetPosition@ioWeapon@@UBEABUD3DXVECTOR3@@XZ
	DD	FLAT:?GetBlowType@ioWeapon@@UBE?AW4BlowTargetType@@XZ
	DD	FLAT:?GetPushPower@ioWeapon@@UBEMM@Z
	DD	FLAT:?GetBlowPower@ioWeapon@@UBEMM@Z
	DD	FLAT:?GetAirPushPower@ioWeapon@@UBEMM@Z
	DD	FLAT:?GetAirBlowPower@ioWeapon@@UBEMM@Z
	DD	FLAT:?GetDefensePushPower@ioWeapon@@UBEMM@Z
	DD	FLAT:?GetCollisionEnableTime@ioGuide2Weapon@@UBEKXZ
	DD	FLAT:?SetSylphid@ioWeapon@@UAEHXZ
	DD	FLAT:?ApplyExtraReserveWeaponByWeaponInfo@ioWeapon@@UAEXPAV1@@Z
	DD	FLAT:?InitResource@ioGuide2Weapon@@UAE_NXZ
	DD	FLAT:?DestroyResource@ioGuide2Weapon@@UAEXPAVioPlayStage@@@Z
	DD	FLAT:?LoadProperty@ioGuide2Weapon@@UAEXAAVioINILoader@@@Z
	DD	FLAT:?SetResistanceAttr@ioWeapon@@UAEXH@Z
	DD	FLAT:?SetStartCollisionBox@ioWeapon@@UAEXXZ
	DD	FLAT:?SetLiveTime@ioWeapon@@UAEXK@Z
	DD	FLAT:?SetMoveDir@ioGuide2Weapon@@UAEXABUD3DXVECTOR3@@@Z
	DD	FLAT:?SetMoveSpeed@ioWeapon@@UAEXM@Z
	DD	FLAT:?SetFloatPower@ioWeapon@@UAEXM@Z
	DD	FLAT:?SetStartPosition@ioGuide2Weapon@@UAEXABUD3DXVECTOR3@@PAVioPlayStage@@@Z
	DD	FLAT:?Process@ioGuide2Weapon@@UAEXMPAVioPlayStage@@@Z
	DD	FLAT:?IsCollision@ioGuide2Weapon@@UAE_NPAVioPlayEntity@@_N@Z
	DD	FLAT:?TestMapCollision@ioGuide2Weapon@@UAE_NPAVioOpcodeShape@@PAVioPlayStage@@PBUD3DXMATRIX@@@Z
	DD	FLAT:?CheckPreCollision@ioGuide2Weapon@@UAEXPAVioPlayEntity@@PAVioPlayStage@@@Z
	DD	FLAT:?CheckStructAndDummy@ioWeapon@@UAEXPAVioPlayEntity@@PAVioPlayStage@@@Z
	DD	FLAT:?GetDamage@ioWeapon@@UAEMPAVioPlayEntity@@@Z
	DD	FLAT:?GetBaseDamage@ioWeapon@@UAEMPAVioPlayEntity@@@Z
	DD	FLAT:?GetPushAngle@ioWeapon@@UBEMXZ
	DD	FLAT:?IsResistanceMagic@ioWeapon@@UAEHPAVioBaseChar@@@Z
	DD	FLAT:?IsResistanceBomb@ioWeapon@@UAEHPAVioBaseChar@@@Z
	DD	FLAT:?IsCanMineExplosion@ioWeapon@@UAE_NXZ
	DD	FLAT:?CheckGrapplingState@ioWeapon@@UAE?AW4GrapplingType@@XZ
	DD	FLAT:?CheckCurAttribute@ioWeapon@@UAEXPBVioPlayEntity@@@Z
	DD	FLAT:?CheckItemNotDrop@ioWeapon@@UAE_NPAVioBaseChar@@@Z
	DD	FLAT:?GetWorldAttackBoxList@ioWeapon@@UAEXAAV?$vector@VioOrientBox@@V?$allocator@VioOrientBox@@@std@@@std@@@Z
	DD	FLAT:?GetAttackDir@ioWeapon@@UBE?AUD3DXVECTOR3@@PBVioPlayEntity@@@Z
	DD	FLAT:?GetLocalAttackBox@ioGuide2Weapon@@UBEABVioOrientBox@@XZ
	DD	FLAT:?GetLiveTime@ioWeapon@@UAEKXZ
	DD	FLAT:?GetMoveDir@ioGuide2Weapon@@UAE?AUD3DXVECTOR3@@XZ
	DD	FLAT:?CheckWeaponCollision@ioWeapon@@UAEXXZ
	DD	FLAT:?GetType@ioGuide2Weapon@@UBE?AW4WeaponType@ioWeapon@@XZ
	DD	FLAT:?GetActionStopType@ioGuide2Weapon@@UBE?AW4ActionStopType@@XZ
	DD	FLAT:?GetDieActionStopType@ioGuide2Weapon@@UBE?AW4ActionStopType@@XZ
	DD	FLAT:?GetRefreshDuration@ioWeapon@@UAEKXZ
	DD	FLAT:?GetIgnoreDuration@ioWeapon@@UAEKXZ
	DD	FLAT:?GetIgnoreTimeTypeDuration@ioWeapon@@UAEKXZ
	DD	FLAT:?GetIgnoreTimeType@ioWeapon@@UAEKXZ
	DD	FLAT:?ApplyWeaponSync@ioGuide2Weapon@@UAEXAAVSP2Packet@@PAVioPlayStage@@@Z
	DD	FLAT:?IsSkillDependency@ioWeapon@@UAE_NABVioHashString@@@Z
	DD	FLAT:?SetSkillDependencyAction@ioWeapon@@UAEXXZ
	DD	FLAT:?UpdateWorldAttackBox@ioGuide2Weapon@@MAEXM_N@Z
	DD	FLAT:?GetAttribute@ioWeapon@@MBEPBUWeaponAttribute@@XZ
	DD	FLAT:?CalcFinalDamage@ioWeapon@@MAEMXZ
	DD	FLAT:?CalcFinalBoundDamage@ioWeapon@@MAEMXZ
	DD	FLAT:?CheckPiercing@ioWeapon@@MAE_N_N@Z
	DD	FLAT:?ClearCollisionList@ioWeapon@@MAEXXZ
	DD	FLAT:?CheckCreateWeaponList@ioWeapon@@MAEXXZ
	DD	FLAT:?CreateCollisionAreaWeapon@ioWeapon@@MAEXXZ
	DD	FLAT:?SetMapCollision@ioWeapon@@UAEXXZ
	DD	FLAT:?IsIgnoreMapCollision@ioWeapon@@UBE_NXZ
	DD	FLAT:?IsIgnoreTestMapCollision@ioWeapon@@UBE_NXZ
	DD	FLAT:?IsIgnoreMapCollisionEffect@ioWeapon@@UBE_NXZ
	DD	FLAT:?AddEffectEvent@ioWeapon@@MAEXPAVioEffect@@@Z
	DD	FLAT:??_EioGuide2Weapon@@UAEPAXI@Z
CONST	ENDS
;	COMDAT xdata$x
xdata$x	SEGMENT
__ehfuncinfo$??1ioGuide2Weapon@@UAE@XZ DD 019930522H
	DD	0dH
	DD	FLAT:__unwindtable$??1ioGuide2Weapon@@UAE@XZ
	DD	2 DUP(00H)
	DD	2 DUP(00H)
	DD	00H
	DD	01H
__unwindtable$??1ioGuide2Weapon@@UAE@XZ DD 0ffffffffH
	DD	FLAT:__unwindfunclet$??1ioGuide2Weapon@@UAE@XZ$0
	DD	00H
	DD	FLAT:__unwindfunclet$??1ioGuide2Weapon@@UAE@XZ$1
	DD	01H
	DD	FLAT:__unwindfunclet$??1ioGuide2Weapon@@UAE@XZ$2
	DD	02H
	DD	FLAT:__unwindfunclet$??1ioGuide2Weapon@@UAE@XZ$3
	DD	03H
	DD	FLAT:__unwindfunclet$??1ioGuide2Weapon@@UAE@XZ$4
	DD	04H
	DD	FLAT:__unwindfunclet$??1ioGuide2Weapon@@UAE@XZ$5
	DD	05H
	DD	FLAT:__unwindfunclet$??1ioGuide2Weapon@@UAE@XZ$6
	DD	06H
	DD	FLAT:__unwindfunclet$??1ioGuide2Weapon@@UAE@XZ$7
	DD	07H
	DD	FLAT:__unwindfunclet$??1ioGuide2Weapon@@UAE@XZ$8
	DD	08H
	DD	FLAT:__unwindfunclet$??1ioGuide2Weapon@@UAE@XZ$9
	DD	09H
	DD	FLAT:__unwindfunclet$??1ioGuide2Weapon@@UAE@XZ$10
	DD	0aH
	DD	FLAT:__unwindfunclet$??1ioGuide2Weapon@@UAE@XZ$11
	DD	0bH
	DD	FLAT:__unwindfunclet$??1ioGuide2Weapon@@UAE@XZ$12
; Function compile flags: /Ogsp
; File d:\lost saga for developer\youtube\tutorial\source\src\lsclient\ioguide2weapon.cpp
xdata$x	ENDS
;	COMDAT ??1ioGuide2Weapon@@UAE@XZ
_TEXT	SEGMENT
_this$ = -16						; size = 4
__$EHRec$ = -12						; size = 12
??1ioGuide2Weapon@@UAE@XZ PROC				; ioGuide2Weapon::~ioGuide2Weapon, COMDAT
; _this$ = ecx

; 32   : {

  00000	6a 04		 push	 4
  00002	b8 00 00 00 00	 mov	 eax, __ehhandler$??1ioGuide2Weapon@@UAE@XZ
  00007	e8 00 00 00 00	 call	 __EH_prolog3
  0000c	8b f1		 mov	 esi, ecx
  0000e	89 75 f0	 mov	 DWORD PTR _this$[ebp], esi
  00011	c7 06 00 00 00
	00		 mov	 DWORD PTR [esi], OFFSET ??_7ioGuide2Weapon@@6B@

; 33   : 	if( m_pFireMesh )

  00017	33 db		 xor	 ebx, ebx
  00019	c7 45 fc 0c 00
	00 00		 mov	 DWORD PTR __$EHRec$[ebp+8], 12 ; 0000000cH
  00020	39 9e 98 08 00
	00		 cmp	 DWORD PTR [esi+2200], ebx
  00026	74 15		 je	 SHORT $LN2@ioGuide2We

; 34   : 	{
; 35   : 		LOG.PrintTimeAndLog( 0, "ioGuide2Weapon::~ioGuide2Weapon - UnReleased Resouce" );

  00028	68 00 00 00 00	 push	 OFFSET ??_C@_0DF@OKHBCONP@ioGuide2Weapon?3?3?$HOioGuide2Weapon?5@
  0002d	53		 push	 ebx
  0002e	ff 35 00 00 00
	00		 push	 DWORD PTR __imp_?LOG@@3VCLog@@A
  00034	ff 15 00 00 00
	00		 call	 DWORD PTR __imp_?PrintTimeAndLog@CLog@@QAAXHPADZZ
  0003a	83 c4 0c	 add	 esp, 12			; 0000000cH
$LN2@ioGuide2We:

; 36   : 	}
; 37   : 
; 38   : 	SAFEDELETE( m_pGuideArrow );

  0003d	8b 8e 9c 08 00
	00		 mov	 ecx, DWORD PTR [esi+2204]
  00043	3b cb		 cmp	 ecx, ebx
  00045	74 0c		 je	 SHORT $LN1@ioGuide2We
  00047	8b 01		 mov	 eax, DWORD PTR [ecx]
  00049	6a 01		 push	 1
  0004b	ff 10		 call	 DWORD PTR [eax]
  0004d	89 9e 9c 08 00
	00		 mov	 DWORD PTR [esi+2204], ebx
$LN1@ioGuide2We:

; 39   : }

  00053	8d 8e 9c 0a 00
	00		 lea	 ecx, DWORD PTR [esi+2716]
  00059	c6 45 fc 0b	 mov	 BYTE PTR __$EHRec$[ebp+8], 11 ; 0000000bH
  0005d	c7 86 90 0a 00
	00 00 00 00 00	 mov	 DWORD PTR [esi+2704], OFFSET ??_7?$CEncrypt@_N@@6B@
  00067	e8 00 00 00 00	 call	 ??1ccddaabb@@UAE@XZ	; ccddaabb::~ccddaabb
  0006c	8b 1d 00 00 00
	00		 mov	 ebx, DWORD PTR __imp_??1ioHashString@@QAE@XZ
  00072	8d 8e 74 0a 00
	00		 lea	 ecx, DWORD PTR [esi+2676]
  00078	c6 45 fc 0a	 mov	 BYTE PTR __$EHRec$[ebp+8], 10 ; 0000000aH
  0007c	ff d3		 call	 ebx
  0007e	8d 8e 64 0a 00
	00		 lea	 ecx, DWORD PTR [esi+2660]
  00084	c6 45 fc 09	 mov	 BYTE PTR __$EHRec$[ebp+8], 9
  00088	ff d3		 call	 ebx
  0008a	8d 8e 3c 0a 00
	00		 lea	 ecx, DWORD PTR [esi+2620]
  00090	c6 45 fc 08	 mov	 BYTE PTR __$EHRec$[ebp+8], 8
  00094	c7 86 30 0a 00
	00 00 00 00 00	 mov	 DWORD PTR [esi+2608], OFFSET ??_7?$CEncrypt@K@@6B@
  0009e	e8 00 00 00 00	 call	 ??1ccddaabb@@UAE@XZ	; ccddaabb::~ccddaabb
  000a3	bf 00 00 00 00	 mov	 edi, OFFSET ??_7?$CEncrypt@M@@6B@
  000a8	8d 8e 0c 0a 00
	00		 lea	 ecx, DWORD PTR [esi+2572]
  000ae	c6 45 fc 07	 mov	 BYTE PTR __$EHRec$[ebp+8], 7
  000b2	89 be 00 0a 00
	00		 mov	 DWORD PTR [esi+2560], edi
  000b8	e8 00 00 00 00	 call	 ??1ccddaabb@@UAE@XZ	; ccddaabb::~ccddaabb
  000bd	8d 8e dc 09 00
	00		 lea	 ecx, DWORD PTR [esi+2524]
  000c3	c6 45 fc 06	 mov	 BYTE PTR __$EHRec$[ebp+8], 6
  000c7	89 be d0 09 00
	00		 mov	 DWORD PTR [esi+2512], edi
  000cd	e8 00 00 00 00	 call	 ??1ccddaabb@@UAE@XZ	; ccddaabb::~ccddaabb
  000d2	8d 8e ac 09 00
	00		 lea	 ecx, DWORD PTR [esi+2476]
  000d8	c6 45 fc 05	 mov	 BYTE PTR __$EHRec$[ebp+8], 5
  000dc	89 be a0 09 00
	00		 mov	 DWORD PTR [esi+2464], edi
  000e2	e8 00 00 00 00	 call	 ??1ccddaabb@@UAE@XZ	; ccddaabb::~ccddaabb
  000e7	8d 8e 7c 09 00
	00		 lea	 ecx, DWORD PTR [esi+2428]
  000ed	c6 45 fc 04	 mov	 BYTE PTR __$EHRec$[ebp+8], 4
  000f1	89 be 70 09 00
	00		 mov	 DWORD PTR [esi+2416], edi
  000f7	e8 00 00 00 00	 call	 ??1ccddaabb@@UAE@XZ	; ccddaabb::~ccddaabb
  000fc	8d 8e 48 09 00
	00		 lea	 ecx, DWORD PTR [esi+2376]
  00102	c6 45 fc 03	 mov	 BYTE PTR __$EHRec$[ebp+8], 3
  00106	89 be 3c 09 00
	00		 mov	 DWORD PTR [esi+2364], edi
  0010c	e8 00 00 00 00	 call	 ??1ccddaabb@@UAE@XZ	; ccddaabb::~ccddaabb
  00111	8d 8e 18 09 00
	00		 lea	 ecx, DWORD PTR [esi+2328]
  00117	c6 45 fc 02	 mov	 BYTE PTR __$EHRec$[ebp+8], 2
  0011b	89 be 0c 09 00
	00		 mov	 DWORD PTR [esi+2316], edi
  00121	e8 00 00 00 00	 call	 ??1ccddaabb@@UAE@XZ	; ccddaabb::~ccddaabb
  00126	8d 8e fc 08 00
	00		 lea	 ecx, DWORD PTR [esi+2300]
  0012c	c6 45 fc 01	 mov	 BYTE PTR __$EHRec$[ebp+8], 1
  00130	ff d3		 call	 ebx
  00132	8d 8e a0 08 00
	00		 lea	 ecx, DWORD PTR [esi+2208]
  00138	c6 45 fc 00	 mov	 BYTE PTR __$EHRec$[ebp+8], 0
  0013c	ff 15 00 00 00
	00		 call	 DWORD PTR __imp_??1ioOrientBox@@QAE@XZ
  00142	83 4d fc ff	 or	 DWORD PTR __$EHRec$[ebp+8], -1
  00146	8b ce		 mov	 ecx, esi
  00148	e8 00 00 00 00	 call	 ??1ioWeapon@@UAE@XZ	; ioWeapon::~ioWeapon
  0014d	e8 00 00 00 00	 call	 __EH_epilog3
  00152	c3		 ret	 0
_TEXT	ENDS
;	COMDAT text$x
text$x	SEGMENT
__unwindfunclet$??1ioGuide2Weapon@@UAE@XZ$0:
  00000	8b 4d f0	 mov	 ecx, DWORD PTR _this$[ebp]
  00003	e9 00 00 00 00	 jmp	 ??1ioWeapon@@UAE@XZ	; ioWeapon::~ioWeapon
__unwindfunclet$??1ioGuide2Weapon@@UAE@XZ$1:
  00008	8b 4d f0	 mov	 ecx, DWORD PTR _this$[ebp]
  0000b	81 c1 a0 08 00
	00		 add	 ecx, 2208		; 000008a0H
  00011	ff 25 00 00 00
	00		 jmp	 DWORD PTR __imp_??1ioOrientBox@@QAE@XZ
__unwindfunclet$??1ioGuide2Weapon@@UAE@XZ$2:
  00017	8b 4d f0	 mov	 ecx, DWORD PTR _this$[ebp]
  0001a	81 c1 fc 08 00
	00		 add	 ecx, 2300		; 000008fcH
  00020	ff 25 00 00 00
	00		 jmp	 DWORD PTR __imp_??1ioHashString@@QAE@XZ
__unwindfunclet$??1ioGuide2Weapon@@UAE@XZ$3:
  00026	8b 4d f0	 mov	 ecx, DWORD PTR _this$[ebp]
  00029	81 c1 0c 09 00
	00		 add	 ecx, 2316		; 0000090cH
  0002f	e9 00 00 00 00	 jmp	 ??1?$CEncrypt@M@@UAE@XZ	; CEncrypt<float>::~CEncrypt<float>
__unwindfunclet$??1ioGuide2Weapon@@UAE@XZ$4:
  00034	8b 4d f0	 mov	 ecx, DWORD PTR _this$[ebp]
  00037	81 c1 3c 09 00
	00		 add	 ecx, 2364		; 0000093cH
  0003d	e9 00 00 00 00	 jmp	 ??1?$CEncrypt@M@@UAE@XZ	; CEncrypt<float>::~CEncrypt<float>
__unwindfunclet$??1ioGuide2Weapon@@UAE@XZ$5:
  00042	8b 4d f0	 mov	 ecx, DWORD PTR _this$[ebp]
  00045	81 c1 70 09 00
	00		 add	 ecx, 2416		; 00000970H
  0004b	e9 00 00 00 00	 jmp	 ??1?$CEncrypt@M@@UAE@XZ	; CEncrypt<float>::~CEncrypt<float>
__unwindfunclet$??1ioGuide2Weapon@@UAE@XZ$6:
  00050	8b 4d f0	 mov	 ecx, DWORD PTR _this$[ebp]
  00053	81 c1 a0 09 00
	00		 add	 ecx, 2464		; 000009a0H
  00059	e9 00 00 00 00	 jmp	 ??1?$CEncrypt@M@@UAE@XZ	; CEncrypt<float>::~CEncrypt<float>
__unwindfunclet$??1ioGuide2Weapon@@UAE@XZ$7:
  0005e	8b 4d f0	 mov	 ecx, DWORD PTR _this$[ebp]
  00061	81 c1 d0 09 00
	00		 add	 ecx, 2512		; 000009d0H
  00067	e9 00 00 00 00	 jmp	 ??1?$CEncrypt@M@@UAE@XZ	; CEncrypt<float>::~CEncrypt<float>
__unwindfunclet$??1ioGuide2Weapon@@UAE@XZ$8:
  0006c	8b 4d f0	 mov	 ecx, DWORD PTR _this$[ebp]
  0006f	81 c1 00 0a 00
	00		 add	 ecx, 2560		; 00000a00H
  00075	e9 00 00 00 00	 jmp	 ??1?$CEncrypt@M@@UAE@XZ	; CEncrypt<float>::~CEncrypt<float>
__unwindfunclet$??1ioGuide2Weapon@@UAE@XZ$9:
  0007a	8b 4d f0	 mov	 ecx, DWORD PTR _this$[ebp]
  0007d	81 c1 30 0a 00
	00		 add	 ecx, 2608		; 00000a30H
  00083	e9 00 00 00 00	 jmp	 ??1?$CEncrypt@K@@UAE@XZ	; CEncrypt<unsigned long>::~CEncrypt<unsigned long>
__unwindfunclet$??1ioGuide2Weapon@@UAE@XZ$10:
  00088	8b 4d f0	 mov	 ecx, DWORD PTR _this$[ebp]
  0008b	81 c1 64 0a 00
	00		 add	 ecx, 2660		; 00000a64H
  00091	ff 25 00 00 00
	00		 jmp	 DWORD PTR __imp_??1ioHashString@@QAE@XZ
__unwindfunclet$??1ioGuide2Weapon@@UAE@XZ$11:
  00097	8b 4d f0	 mov	 ecx, DWORD PTR _this$[ebp]
  0009a	81 c1 74 0a 00
	00		 add	 ecx, 2676		; 00000a74H
  000a0	ff 25 00 00 00
	00		 jmp	 DWORD PTR __imp_??1ioHashString@@QAE@XZ
__unwindfunclet$??1ioGuide2Weapon@@UAE@XZ$12:
  000a6	8b 4d f0	 mov	 ecx, DWORD PTR _this$[ebp]
  000a9	81 c1 90 0a 00
	00		 add	 ecx, 2704		; 00000a90H
  000af	e9 00 00 00 00	 jmp	 ??1?$CEncrypt@_N@@UAE@XZ ; CEncrypt<bool>::~CEncrypt<bool>
__ehhandler$??1ioGuide2Weapon@@UAE@XZ:
  000b4	8b 54 24 08	 mov	 edx, DWORD PTR [esp+8]
  000b8	8d 42 0c	 lea	 eax, DWORD PTR [edx+12]
  000bb	8b 4a ec	 mov	 ecx, DWORD PTR [edx-20]
  000be	33 c8		 xor	 ecx, eax
  000c0	e8 00 00 00 00	 call	 @__security_check_cookie@4
  000c5	b8 00 00 00 00	 mov	 eax, OFFSET __ehfuncinfo$??1ioGuide2Weapon@@UAE@XZ
  000ca	e9 00 00 00 00	 jmp	 ___CxxFrameHandler3
text$x	ENDS
??1ioGuide2Weapon@@UAE@XZ ENDP				; ioGuide2Weapon::~ioGuide2Weapon
PUBLIC	?SetFireMesh@ioGuide2Weapon@@IAE_NABVioHashString@@@Z ; ioGuide2Weapon::SetFireMesh
EXTRN	__imp_?GetCollisionBox@ioEffect@@QBEABVioOrientBox@@XZ:PROC
EXTRN	__imp_??D@YA?AUD3DXVECTOR3@@ABU0@0@Z:PROC
EXTRN	__imp_??D@YA?AUD3DXVECTOR3@@ABUD3DXQUATERNION@@ABU0@@Z:PROC
EXTRN	__imp_?GetBiped@ioEntityGroup@@QAEPAVioBiped@@ABVioHashString@@@Z:PROC
EXTRN	__imp_?GetFirstLinkOffset@ioEffect@@QAE_NAAVioHashString@@AAUD3DXVECTOR3@@AAUD3DXQUATERNION@@@Z:PROC
EXTRN	__imp_??0ioHashString@@QAE@XZ:PROC
EXTRN	__imp_?UNIT_ALL@ioMath@@2UD3DXVECTOR3@@A:BYTE
EXTRN	__imp_?CreateEffect@ioEffectFactory@@QAEPAVioEffect@@ABVioHashString@@@Z:PROC
EXTRN	__EH_epilog3_GS:PROC
EXTRN	__EH_prolog3_GS:PROC
;	COMDAT xdata$x
; File c:\program files (x86)\microsoft directx sdk (june 2010)\include\d3dx9math.inl
xdata$x	SEGMENT
__unwindtable$?SetFireMesh@ioGuide2Weapon@@IAE_NABVioHashString@@@Z DD 0ffffffffH
	DD	FLAT:__unwindfunclet$?SetFireMesh@ioGuide2Weapon@@IAE_NABVioHashString@@@Z$0
	DD	00H
	DD	FLAT:__unwindfunclet$?SetFireMesh@ioGuide2Weapon@@IAE_NABVioHashString@@@Z$1
__ehfuncinfo$?SetFireMesh@ioGuide2Weapon@@IAE_NABVioHashString@@@Z DD 019930522H
	DD	02H
	DD	FLAT:__unwindtable$?SetFireMesh@ioGuide2Weapon@@IAE_NABVioHashString@@@Z
	DD	2 DUP(00H)
	DD	2 DUP(00H)
	DD	00H
	DD	01H
; Function compile flags: /Ogsp
; File d:\lost saga for developer\youtube\tutorial\source\src\lsclient\ioguide2weapon.cpp
xdata$x	ENDS
;	COMDAT ?SetFireMesh@ioGuide2Weapon@@IAE_NABVioHashString@@@Z
_TEXT	SEGMENT
_qtLinkRotOffset$ = -100				; size = 16
_szLinkBiped$ = -84					; size = 16
$T586330 = -68						; size = 4
_pOwner$ = -64						; size = 4
$T586324 = -57						; size = 1
$T586325 = -56						; size = 16
$T583154 = -52						; size = 12
_vLinkPosOffset$ = -40					; size = 12
$T583155 = -28						; size = 12
$T583153 = -28						; size = 12
$T583152 = -28						; size = 12
$T583151 = -28						; size = 12
__$EHRec$ = -12						; size = 12
_szFileName$ = 8					; size = 4
?SetFireMesh@ioGuide2Weapon@@IAE_NABVioHashString@@@Z PROC ; ioGuide2Weapon::SetFireMesh, COMDAT
; _this$ = ecx

; 126  : {

  00000	6a 58		 push	 88			; 00000058H
  00002	b8 00 00 00 00	 mov	 eax, __ehhandler$?SetFireMesh@ioGuide2Weapon@@IAE_NABVioHashString@@@Z
  00007	e8 00 00 00 00	 call	 __EH_prolog3_GS
  0000c	8b 7d 08	 mov	 edi, DWORD PTR _szFileName$[ebp]
  0000f	33 f6		 xor	 esi, esi
  00011	8b d9		 mov	 ebx, ecx
  00013	89 75 bc	 mov	 DWORD PTR $T586330[ebp], esi

; 127  : 	ioBaseChar *pOwner = GetOwner();

  00016	e8 00 00 00 00	 call	 ?GetOwner@ioWeapon@@QBEPAVioBaseChar@@XZ ; ioWeapon::GetOwner
  0001b	89 45 c0	 mov	 DWORD PTR _pOwner$[ebp], eax

; 128  : 	if( !pOwner )	return false;

  0001e	3b c6		 cmp	 eax, esi
  00020	75 07		 jne	 SHORT $LN4@SetFireMes
$LN35@SetFireMes:
  00022	32 c0		 xor	 al, al
  00024	e9 35 02 00 00	 jmp	 $LN5@SetFireMes
$LN4@SetFireMes:

; 129  : 
; 130  : 	m_pFireMesh = g_EffectFactory.CreateEffect( szFileName );

  00029	57		 push	 edi
  0002a	ff 15 00 00 00
	00		 call	 DWORD PTR __imp_?GetSingleton@ioEffectFactory@@SAAAV1@XZ
  00030	8b c8		 mov	 ecx, eax
  00032	ff 15 00 00 00
	00		 call	 DWORD PTR __imp_?CreateEffect@ioEffectFactory@@QAEPAVioEffect@@ABVioHashString@@@Z
  00038	89 83 98 08 00
	00		 mov	 DWORD PTR [ebx+2200], eax

; 131  : 	if( !m_pFireMesh )	return false;

  0003e	3b c6		 cmp	 eax, esi
  00040	74 e0		 je	 SHORT $LN35@SetFireMes

; 132  : 
; 133  : 	GetParentSceneNode()->AttachObject( m_pFireMesh );

  00042	8b 4b 04	 mov	 ecx, DWORD PTR [ebx+4]
  00045	8b 11		 mov	 edx, DWORD PTR [ecx]
  00047	83 c0 14	 add	 eax, 20			; 00000014H
  0004a	50		 push	 eax
  0004b	ff 92 ac 00 00
	00		 call	 DWORD PTR [edx+172]

; 134  : 	GetParentSceneNode()->SetScale( ioMath::UNIT_ALL );

  00051	8b 4b 04	 mov	 ecx, DWORD PTR [ebx+4]
  00054	ff 35 00 00 00
	00		 push	 DWORD PTR __imp_?UNIT_ALL@ioMath@@2UD3DXVECTOR3@@A
  0005a	8b 01		 mov	 eax, DWORD PTR [ecx]
  0005c	ff 50 20	 call	 DWORD PTR [eax+32]

; 135  : 
; 136  : 	ioHashString szLinkBiped;

  0005f	8d 4d ac	 lea	 ecx, DWORD PTR _szLinkBiped$[ebp]
  00062	ff 15 00 00 00
	00		 call	 DWORD PTR __imp_??0ioHashString@@QAE@XZ

; 137  : 	D3DXVECTOR3 vLinkPosOffset;
; 138  : 	D3DXQUATERNION qtLinkRotOffset;
; 139  : 
; 140  : 	if( m_pFireMesh->GetSkeletonName().IsEmpty() && m_pFireMesh->GetFirstLinkOffset(szLinkBiped, vLinkPosOffset, qtLinkRotOffset ) )

  00068	8b 8b 98 08 00
	00		 mov	 ecx, DWORD PTR [ebx+2200]
  0006e	8d 45 c8	 lea	 eax, DWORD PTR $T586325[ebp]
  00071	50		 push	 eax
  00072	89 75 fc	 mov	 DWORD PTR __$EHRec$[ebp+8], esi
  00075	ff 15 00 00 00
	00		 call	 DWORD PTR __imp_?GetSkeletonName@ioEffect@@QBE?AVioHashString@@XZ
  0007b	8b c8		 mov	 ecx, eax
  0007d	c6 45 fc 01	 mov	 BYTE PTR __$EHRec$[ebp+8], 1
  00081	c7 45 bc 01 00
	00 00		 mov	 DWORD PTR $T586330[ebp], 1
  00088	ff 15 00 00 00
	00		 call	 DWORD PTR __imp_?IsEmpty@ioHashString@@QBE_NXZ
  0008e	84 c0		 test	 al, al
  00090	74 20		 je	 SHORT $LN9@SetFireMes
  00092	8b 8b 98 08 00
	00		 mov	 ecx, DWORD PTR [ebx+2200]
  00098	8d 45 9c	 lea	 eax, DWORD PTR _qtLinkRotOffset$[ebp]
  0009b	50		 push	 eax
  0009c	8d 45 d8	 lea	 eax, DWORD PTR _vLinkPosOffset$[ebp]
  0009f	50		 push	 eax
  000a0	8d 45 ac	 lea	 eax, DWORD PTR _szLinkBiped$[ebp]
  000a3	50		 push	 eax
  000a4	ff 15 00 00 00
	00		 call	 DWORD PTR __imp_?GetFirstLinkOffset@ioEffect@@QAE_NAAVioHashString@@AAUD3DXVECTOR3@@AAUD3DXQUATERNION@@@Z
  000aa	c6 45 c7 01	 mov	 BYTE PTR $T586324[ebp], 1
  000ae	84 c0		 test	 al, al
  000b0	75 04		 jne	 SHORT $LN10@SetFireMes
$LN9@SetFireMes:
  000b2	c6 45 c7 00	 mov	 BYTE PTR $T586324[ebp], 0
$LN10@SetFireMes:
  000b6	8d 4d c8	 lea	 ecx, DWORD PTR $T586325[ebp]
  000b9	89 75 fc	 mov	 DWORD PTR __$EHRec$[ebp+8], esi
  000bc	ff 15 00 00 00
	00		 call	 DWORD PTR __imp_??1ioHashString@@QAE@XZ
  000c2	80 7d c7 00	 cmp	 BYTE PTR $T586324[ebp], 0
  000c6	0f 84 4a 01 00
	00		 je	 $LN1@SetFireMes

; 141  : 	{
; 142  : 		ioBiped *pLinked = pOwner->GetGroup()->GetBiped( szLinkBiped );

  000cc	8b 45 c0	 mov	 eax, DWORD PTR _pOwner$[ebp]
  000cf	8b 48 04	 mov	 ecx, DWORD PTR [eax+4]
  000d2	8d 45 ac	 lea	 eax, DWORD PTR _szLinkBiped$[ebp]
  000d5	50		 push	 eax
  000d6	ff 15 00 00 00
	00		 call	 DWORD PTR __imp_?GetBiped@ioEntityGroup@@QAEPAVioBiped@@ABVioHashString@@@Z
  000dc	8b f8		 mov	 edi, eax

; 143  : 		if( pLinked )

  000de	3b fe		 cmp	 edi, esi
  000e0	0f 84 30 01 00
	00		 je	 $LN1@SetFireMes

; 144  : 		{
; 145  : 			vLinkPosOffset = pLinked->GetDerivedOrientation() * vLinkPosOffset + pLinked->GetDerivedPosition();

  000e6	8b 07		 mov	 eax, DWORD PTR [edi]
  000e8	8b cf		 mov	 ecx, edi
  000ea	ff 50 7c	 call	 DWORD PTR [eax+124]
  000ed	8b f0		 mov	 esi, eax
  000ef	8d 45 d8	 lea	 eax, DWORD PTR _vLinkPosOffset$[ebp]
  000f2	50		 push	 eax
  000f3	8b 07		 mov	 eax, DWORD PTR [edi]
  000f5	8b cf		 mov	 ecx, edi
  000f7	ff 50 78	 call	 DWORD PTR [eax+120]
  000fa	50		 push	 eax
  000fb	8d 45 e4	 lea	 eax, DWORD PTR $T583151[ebp]
  000fe	50		 push	 eax
  000ff	ff 15 00 00 00
	00		 call	 DWORD PTR __imp_??D@YA?AUD3DXVECTOR3@@ABUD3DXQUATERNION@@ABU0@@Z
  00105	f3 0f 10 06	 movss	 xmm0, DWORD PTR [esi]
  00109	f3 0f 10 08	 movss	 xmm1, DWORD PTR [eax]
  0010d	f3 0f 10 50 04	 movss	 xmm2, DWORD PTR [eax+4]
  00112	f3 0f 10 58 08	 movss	 xmm3, DWORD PTR [eax+8]

; 146  : 			vLinkPosOffset = vLinkPosOffset * pOwner->GetWorldScale();

  00117	8b 4d c0	 mov	 ecx, DWORD PTR _pOwner$[ebp]
  0011a	0f 5a c9	 cvtps2pd xmm1, xmm1
  0011d	0f 5a c0	 cvtps2pd xmm0, xmm0
  00120	f2 0f 58 c1	 addsd	 xmm0, xmm1
  00124	f3 0f 10 4e 04	 movss	 xmm1, DWORD PTR [esi+4]
  00129	0f 5a d2	 cvtps2pd xmm2, xmm2
  0012c	0f 5a c9	 cvtps2pd xmm1, xmm1
  0012f	f2 0f 58 ca	 addsd	 xmm1, xmm2
  00133	f3 0f 10 56 08	 movss	 xmm2, DWORD PTR [esi+8]
  00138	0f 5a d2	 cvtps2pd xmm2, xmm2
  0013b	0f 5a db	 cvtps2pd xmm3, xmm3
  0013e	f2 0f 58 d3	 addsd	 xmm2, xmm3
  00142	66 0f 5a c0	 cvtpd2ps xmm0, xmm0
  00146	f3 0f 11 45 e4	 movss	 DWORD PTR $T583152[ebp], xmm0
  0014b	66 0f 5a c9	 cvtpd2ps xmm1, xmm1
  0014f	f3 0f 11 4d e8	 movss	 DWORD PTR $T583152[ebp+4], xmm1
  00154	66 0f 5a d2	 cvtpd2ps xmm2, xmm2
  00158	f3 0f 11 55 ec	 movss	 DWORD PTR $T583152[ebp+8], xmm2
  0015d	8d 75 e4	 lea	 esi, DWORD PTR $T583152[ebp]
  00160	8d 7d d8	 lea	 edi, DWORD PTR _vLinkPosOffset$[ebp]
  00163	a5		 movsd
  00164	a5		 movsd
  00165	a5		 movsd
  00166	8b 01		 mov	 eax, DWORD PTR [ecx]
  00168	83 c4 0c	 add	 esp, 12			; 0000000cH
  0016b	ff 50 78	 call	 DWORD PTR [eax+120]
  0016e	50		 push	 eax
  0016f	8d 45 d8	 lea	 eax, DWORD PTR _vLinkPosOffset$[ebp]
  00172	50		 push	 eax
  00173	8d 45 e4	 lea	 eax, DWORD PTR $T583153[ebp]
  00176	50		 push	 eax
  00177	ff 15 00 00 00
	00		 call	 DWORD PTR __imp_??D@YA?AUD3DXVECTOR3@@ABU0@0@Z
  0017d	8b f0		 mov	 esi, eax
  0017f	8d 7d d8	 lea	 edi, DWORD PTR _vLinkPosOffset$[ebp]
  00182	a5		 movsd
  00183	a5		 movsd
  00184	a5		 movsd

; 147  : 			vLinkPosOffset = pOwner->GetWorldOrientation() * vLinkPosOffset + pOwner->GetWorldPosition();

  00185	8b 7d c0	 mov	 edi, DWORD PTR _pOwner$[ebp]
  00188	8b 07		 mov	 eax, DWORD PTR [edi]
  0018a	83 c4 0c	 add	 esp, 12			; 0000000cH
  0018d	8b cf		 mov	 ecx, edi
  0018f	ff 50 70	 call	 DWORD PTR [eax+112]
  00192	8b f0		 mov	 esi, eax
  00194	8d 45 d8	 lea	 eax, DWORD PTR _vLinkPosOffset$[ebp]
  00197	50		 push	 eax
  00198	8b 07		 mov	 eax, DWORD PTR [edi]
  0019a	8b cf		 mov	 ecx, edi
  0019c	ff 50 74	 call	 DWORD PTR [eax+116]
  0019f	50		 push	 eax
  001a0	8d 45 cc	 lea	 eax, DWORD PTR $T583154[ebp]
  001a3	50		 push	 eax
  001a4	ff 15 00 00 00
	00		 call	 DWORD PTR __imp_??D@YA?AUD3DXVECTOR3@@ABUD3DXQUATERNION@@ABU0@@Z
  001aa	f3 0f 10 00	 movss	 xmm0, DWORD PTR [eax]
  001ae	f3 0f 10 0e	 movss	 xmm1, DWORD PTR [esi]
  001b2	f3 0f 10 50 04	 movss	 xmm2, DWORD PTR [eax+4]
  001b7	0f 5a c9	 cvtps2pd xmm1, xmm1
  001ba	0f 5a c0	 cvtps2pd xmm0, xmm0
  001bd	f2 0f 58 c1	 addsd	 xmm0, xmm1
  001c1	f3 0f 10 4e 04	 movss	 xmm1, DWORD PTR [esi+4]
  001c6	0f 5a c9	 cvtps2pd xmm1, xmm1
  001c9	0f 5a d2	 cvtps2pd xmm2, xmm2
  001cc	83 c4 0c	 add	 esp, 12			; 0000000cH
  001cf	66 0f 5a c0	 cvtpd2ps xmm0, xmm0
  001d3	f2 0f 58 ca	 addsd	 xmm1, xmm2
  001d7	f3 0f 10 56 08	 movss	 xmm2, DWORD PTR [esi+8]
  001dc	f3 0f 10 58 08	 movss	 xmm3, DWORD PTR [eax+8]
  001e1	0f 5a d2	 cvtps2pd xmm2, xmm2
  001e4	0f 5a db	 cvtps2pd xmm3, xmm3
  001e7	f2 0f 58 d3	 addsd	 xmm2, xmm3
  001eb	f3 0f 11 45 e4	 movss	 DWORD PTR $T583155[ebp], xmm0
  001f0	66 0f 5a c9	 cvtpd2ps xmm1, xmm1
  001f4	f3 0f 11 4d e8	 movss	 DWORD PTR $T583155[ebp+4], xmm1
  001f9	66 0f 5a d2	 cvtpd2ps xmm2, xmm2
  001fd	f3 0f 11 55 ec	 movss	 DWORD PTR $T583155[ebp+8], xmm2
  00202	8d 75 e4	 lea	 esi, DWORD PTR $T583155[ebp]
  00205	8d 7d d8	 lea	 edi, DWORD PTR _vLinkPosOffset$[ebp]
  00208	a5		 movsd
  00209	a5		 movsd

; 148  : 			SetPosition( vLinkPosOffset );

  0020a	8d 45 d8	 lea	 eax, DWORD PTR _vLinkPosOffset$[ebp]
  0020d	50		 push	 eax
  0020e	8b cb		 mov	 ecx, ebx
  00210	a5		 movsd
  00211	e8 00 00 00 00	 call	 ?SetPosition@ioWeapon@@QAEXABUD3DXVECTOR3@@@Z ; ioWeapon::SetPosition
$LN1@SetFireMes:

; 149  : 		}
; 150  : 	}
; 151  : 
; 152  : 	m_pFireMesh->UpdateBounds( true );

  00216	8b 8b 98 08 00
	00		 mov	 ecx, DWORD PTR [ebx+2200]
  0021c	83 c1 14	 add	 ecx, 20			; 00000014H
  0021f	8b 01		 mov	 eax, DWORD PTR [ecx]
  00221	6a 01		 push	 1
  00223	ff 50 44	 call	 DWORD PTR [eax+68]

; 153  : 	m_LocalAttackBox = m_pFireMesh->GetCollisionBox();

  00226	8b 8b 98 08 00
	00		 mov	 ecx, DWORD PTR [ebx+2200]
  0022c	ff 15 00 00 00
	00		 call	 DWORD PTR __imp_?GetCollisionBox@ioEffect@@QBEABVioOrientBox@@XZ
  00232	6a 11		 push	 17			; 00000011H
  00234	59		 pop	 ecx

; 154  : 
; 155  : 	AddEffectEvent( m_pFireMesh );

  00235	ff b3 98 08 00
	00		 push	 DWORD PTR [ebx+2200]
  0023b	8b f0		 mov	 esi, eax
  0023d	8b 03		 mov	 eax, DWORD PTR [ebx]
  0023f	8d bb a0 08 00
	00		 lea	 edi, DWORD PTR [ebx+2208]
  00245	f3 a5		 rep movsd
  00247	8b cb		 mov	 ecx, ebx
  00249	ff 90 68 01 00
	00		 call	 DWORD PTR [eax+360]

; 156  : 	return true;

  0024f	83 4d fc ff	 or	 DWORD PTR __$EHRec$[ebp+8], -1
  00253	8d 4d ac	 lea	 ecx, DWORD PTR _szLinkBiped$[ebp]
  00256	ff 15 00 00 00
	00		 call	 DWORD PTR __imp_??1ioHashString@@QAE@XZ
  0025c	b0 01		 mov	 al, 1
$LN5@SetFireMes:

; 157  : }

  0025e	e8 00 00 00 00	 call	 __EH_epilog3_GS
  00263	c2 04 00	 ret	 4
_TEXT	ENDS
;	COMDAT text$x
text$x	SEGMENT
__unwindfunclet$?SetFireMesh@ioGuide2Weapon@@IAE_NABVioHashString@@@Z$0:
  00000	8d 4d ac	 lea	 ecx, DWORD PTR _szLinkBiped$[ebp]
  00003	ff 25 00 00 00
	00		 jmp	 DWORD PTR __imp_??1ioHashString@@QAE@XZ
__unwindfunclet$?SetFireMesh@ioGuide2Weapon@@IAE_NABVioHashString@@@Z$1:
  00009	8b 45 bc	 mov	 eax, DWORD PTR $T586330[ebp]
  0000c	83 e0 01	 and	 eax, 1
  0000f	0f 84 0d 00 00
	00		 je	 $LN13@SetFireMes
  00015	83 65 bc fe	 and	 DWORD PTR $T586330[ebp], -2 ; fffffffeH
  00019	8d 4d c8	 lea	 ecx, DWORD PTR $T586325[ebp]
  0001c	ff 25 00 00 00
	00		 jmp	 DWORD PTR __imp_??1ioHashString@@QAE@XZ
$LN13@SetFireMes:
  00022	c3		 ret	 0
__ehhandler$?SetFireMesh@ioGuide2Weapon@@IAE_NABVioHashString@@@Z:
  00023	8b 54 24 08	 mov	 edx, DWORD PTR [esp+8]
  00027	8d 42 0c	 lea	 eax, DWORD PTR [edx+12]
  0002a	8b 4a 98	 mov	 ecx, DWORD PTR [edx-104]
  0002d	33 c8		 xor	 ecx, eax
  0002f	e8 00 00 00 00	 call	 @__security_check_cookie@4
  00034	8b 4a fc	 mov	 ecx, DWORD PTR [edx-4]
  00037	33 c8		 xor	 ecx, eax
  00039	e8 00 00 00 00	 call	 @__security_check_cookie@4
  0003e	b8 00 00 00 00	 mov	 eax, OFFSET __ehfuncinfo$?SetFireMesh@ioGuide2Weapon@@IAE_NABVioHashString@@@Z
  00043	e9 00 00 00 00	 jmp	 ___CxxFrameHandler3
text$x	ENDS
?SetFireMesh@ioGuide2Weapon@@IAE_NABVioHashString@@@Z ENDP ; ioGuide2Weapon::SetFireMesh
PUBLIC	_bMapCollision$GSCopy$
PUBLIC	__$ArrayPad$
EXTRN	?GetWorldAttackBox@ioWeapon@@QBEABVioOrientBox@@_N@Z:PROC ; ioWeapon::GetWorldAttackBox
EXTRN	___security_cookie:DWORD
; Function compile flags: /Ogsp
;	COMDAT ?IsCollision@ioGuide2Weapon@@UAE_NPAVioPlayEntity@@_N@Z
_TEXT	SEGMENT
_bMapCollision$GSCopy$ = -24				; size = 1
_bCollision$ = -20					; size = 1
_vColPoint$ = -16					; size = 12
__$ArrayPad$ = -4					; size = 4
_pEntity$ = 8						; size = 4
_bMapCollision$ = 12					; size = 1
?IsCollision@ioGuide2Weapon@@UAE_NPAVioPlayEntity@@_N@Z PROC ; ioGuide2Weapon::IsCollision, COMDAT
; _this$ = ecx

; 650  : {

  00000	55		 push	 ebp
  00001	8b ec		 mov	 ebp, esp
  00003	83 ec 18	 sub	 esp, 24			; 00000018H
  00006	a1 00 00 00 00	 mov	 eax, DWORD PTR ___security_cookie
  0000b	33 c5		 xor	 eax, ebp
  0000d	89 45 fc	 mov	 DWORD PTR __$ArrayPad$[ebp], eax

; 651  : 	if( m_WeaponState != WS_MOVE && m_WeaponState != WS_TRACING )

  00010	8a 45 0c	 mov	 al, BYTE PTR _bMapCollision$[ebp]
  00013	56		 push	 esi
  00014	8b 75 08	 mov	 esi, DWORD PTR _pEntity$[ebp]
  00017	57		 push	 edi
  00018	8b f9		 mov	 edi, ecx
  0001a	88 45 e8	 mov	 BYTE PTR _bMapCollision$GSCopy$[ebp], al
  0001d	8b 87 94 08 00
	00		 mov	 eax, DWORD PTR [edi+2196]
  00023	85 c0		 test	 eax, eax
  00025	74 09		 je	 SHORT $LN8@IsCollisio
  00027	83 f8 01	 cmp	 eax, 1
  0002a	74 04		 je	 SHORT $LN8@IsCollisio
$LN15@IsCollisio:

; 652  : 		return false;

  0002c	32 c0		 xor	 al, al
  0002e	eb 67		 jmp	 SHORT $LN9@IsCollisio
$LN8@IsCollisio:

; 653  : 
; 654  : 	if( m_WeaponState == WS_AFTER_COLLISION )

  00030	83 f8 02	 cmp	 eax, 2

; 655  : 		return false;

  00033	74 f7		 je	 SHORT $LN15@IsCollisio

; 656  : 
; 657  : 	ioBaseChar *pTarget = ToBaseChar( pEntity );

  00035	56		 push	 esi
  00036	e8 00 00 00 00	 call	 ?ToBaseChar@@YAPAVioBaseChar@@PAVioGameEntity@@@Z ; ToBaseChar
  0003b	59		 pop	 ecx

; 658  : 	if( pTarget && !pTarget->IsNeedProcess() )

  0003c	85 c0		 test	 eax, eax
  0003e	74 67		 je	 SHORT $LN13@IsCollisio
$LN16@IsCollisio:
  00040	8b 10		 mov	 edx, DWORD PTR [eax]
  00042	8b c8		 mov	 ecx, eax
  00044	ff 92 00 01 00
	00		 call	 DWORD PTR [edx+256]
  0004a	84 c0		 test	 al, al
  0004c	74 de		 je	 SHORT $LN15@IsCollisio

; 664  : 	}
; 665  : 
; 666  : 	bool bCollision = false;
; 667  : 
; 668  : 	D3DXVECTOR3 vColPoint( 0.0f, 0.0f, 0.0f );

  0004e	0f 57 c0	 xorps	 xmm0, xmm0
  00051	53		 push	 ebx

; 669  : 	if( pEntity->IsWoundedCollision( GetWorldAttackBox(bMapCollision), &vColPoint ) )

  00052	8b 1e		 mov	 ebx, DWORD PTR [esi]
  00054	8d 45 f0	 lea	 eax, DWORD PTR _vColPoint$[ebp]
  00057	50		 push	 eax
  00058	ff 75 e8	 push	 DWORD PTR _bMapCollision$GSCopy$[ebp]
  0005b	8b cf		 mov	 ecx, edi
  0005d	c6 45 ec 00	 mov	 BYTE PTR _bCollision$[ebp], 0
  00061	f3 0f 11 45 f0	 movss	 DWORD PTR _vColPoint$[ebp], xmm0
  00066	f3 0f 11 45 f4	 movss	 DWORD PTR _vColPoint$[ebp+4], xmm0
  0006b	f3 0f 11 45 f8	 movss	 DWORD PTR _vColPoint$[ebp+8], xmm0
  00070	e8 00 00 00 00	 call	 ?GetWorldAttackBox@ioWeapon@@QBEABVioOrientBox@@_N@Z ; ioWeapon::GetWorldAttackBox
  00075	50		 push	 eax
  00076	8b ce		 mov	 ecx, esi
  00078	ff 93 90 00 00
	00		 call	 DWORD PTR [ebx+144]
  0007e	5b		 pop	 ebx
  0007f	84 c0		 test	 al, al
  00081	74 04		 je	 SHORT $LN14@IsCollisio

; 670  : 		bCollision = true;

  00083	c6 45 ec 01	 mov	 BYTE PTR _bCollision$[ebp], 1
$LN14@IsCollisio:

; 671  : 
; 672  : 	CheckPiercing( bCollision );

  00087	ff 75 ec	 push	 DWORD PTR _bCollision$[ebp]
  0008a	8b 07		 mov	 eax, DWORD PTR [edi]
  0008c	8b cf		 mov	 ecx, edi
  0008e	ff 90 48 01 00
	00		 call	 DWORD PTR [eax+328]

; 673  : 
; 674  : 	return bCollision;

  00094	8a 45 ec	 mov	 al, BYTE PTR _bCollision$[ebp]
$LN9@IsCollisio:

; 675  : }

  00097	8b 4d fc	 mov	 ecx, DWORD PTR __$ArrayPad$[ebp]
  0009a	5f		 pop	 edi
  0009b	33 cd		 xor	 ecx, ebp
  0009d	5e		 pop	 esi
  0009e	e8 00 00 00 00	 call	 @__security_check_cookie@4
  000a3	c9		 leave
  000a4	c2 08 00	 ret	 8
$LN13@IsCollisio:

; 659  : 		return false;
; 660  : 	else if( !pTarget )
; 661  : 	{
; 662  : 		if( !GetOwner() || !GetOwner()->IsNeedProcess() )

  000a7	8b cf		 mov	 ecx, edi
  000a9	e8 00 00 00 00	 call	 ?GetOwner@ioWeapon@@QBEPAVioBaseChar@@XZ ; ioWeapon::GetOwner
  000ae	85 c0		 test	 eax, eax
  000b0	0f 84 76 ff ff
	ff		 je	 $LN15@IsCollisio
  000b6	8b cf		 mov	 ecx, edi
  000b8	e8 00 00 00 00	 call	 ?GetOwner@ioWeapon@@QBEPAVioBaseChar@@XZ ; ioWeapon::GetOwner

; 663  : 			return false;

  000bd	eb 81		 jmp	 SHORT $LN16@IsCollisio
?IsCollision@ioGuide2Weapon@@UAE_NPAVioPlayEntity@@_N@Z ENDP ; ioGuide2Weapon::IsCollision
_TEXT	ENDS
PUBLIC	??D?$CEncrypt@M@@QAEMABM@Z			; CEncrypt<float>::operator*
; Function compile flags: /Ogsp
; File d:\lost saga for developer\youtube\tutorial\source\src\lsclient\encryptvalue.h
;	COMDAT ??D?$CEncrypt@M@@QAEMABM@Z
_TEXT	SEGMENT
_value$ = -4						; size = 4
tv130 = 8						; size = 4
_inValue$ = 8						; size = 4
??D?$CEncrypt@M@@QAEMABM@Z PROC				; CEncrypt<float>::operator*, COMDAT
; _this$ = ecx

; 1685 : 	{	

  00000	55		 push	 ebp
  00001	8b ec		 mov	 ebp, esp
  00003	51		 push	 ecx

; 1686 : 		type value;
; 1687 : 		DecryptValueToPool(&value);

  00004	8d 45 fc	 lea	 eax, DWORD PTR _value$[ebp]
  00007	50		 push	 eax
  00008	e8 00 00 00 00	 call	 ?DecryptValueToPool@?$CEncrypt@M@@QAEXPAM@Z ; CEncrypt<float>::DecryptValueToPool

; 1688 : #ifdef _NOTUSE
; 1689 : 		Debug();
; 1690 : #endif
; 1691 : 		return value * inValue;

  0000d	8b 45 08	 mov	 eax, DWORD PTR _inValue$[ebp]
  00010	d9 00		 fld	 DWORD PTR [eax]
  00012	d8 4d fc	 fmul	 DWORD PTR _value$[ebp]
  00015	d9 5d 08	 fstp	 DWORD PTR tv130[ebp]
  00018	d9 45 08	 fld	 DWORD PTR tv130[ebp]

; 1692 : 	}

  0001b	c9		 leave
  0001c	c2 04 00	 ret	 4
??D?$CEncrypt@M@@QAEMABM@Z ENDP				; CEncrypt<float>::operator*
_TEXT	ENDS
PUBLIC	??O?$CEncrypt@K@@QAE_NABH@Z			; CEncrypt<unsigned long>::operator>
; Function compile flags: /Ogsp
;	COMDAT ??O?$CEncrypt@K@@QAE_NABH@Z
_TEXT	SEGMENT
_value$ = -4						; size = 4
_inValue$ = 8						; size = 4
??O?$CEncrypt@K@@QAE_NABH@Z PROC			; CEncrypt<unsigned long>::operator>, COMDAT
; _this$ = ecx

; 1009 : 	{

  00000	55		 push	 ebp
  00001	8b ec		 mov	 ebp, esp
  00003	51		 push	 ecx

; 1010 : 		
; 1011 : 		type value;
; 1012 : 		DecryptValueToPool(&value);

  00004	8d 45 fc	 lea	 eax, DWORD PTR _value$[ebp]
  00007	50		 push	 eax
  00008	e8 00 00 00 00	 call	 ?DecryptValueToPool@?$CEncrypt@K@@QAEXPAK@Z ; CEncrypt<unsigned long>::DecryptValueToPool

; 1013 : #ifdef _NOTUSE
; 1014 : 		Debug();
; 1015 : #endif
; 1016 : 		return (value > inValue);

  0000d	8b 45 08	 mov	 eax, DWORD PTR _inValue$[ebp]
  00010	8b 00		 mov	 eax, DWORD PTR [eax]
  00012	3b 45 fc	 cmp	 eax, DWORD PTR _value$[ebp]
  00015	1b c0		 sbb	 eax, eax
  00017	f7 d8		 neg	 eax

; 1017 : 	}		

  00019	c9		 leave
  0001a	c2 04 00	 ret	 4
??O?$CEncrypt@K@@QAE_NABH@Z ENDP			; CEncrypt<unsigned long>::operator>
_TEXT	ENDS
PUBLIC	__$ArrayPad$
PUBLIC	??$LoadInt_e@$0BC@@ioINILoader@@QAEHAAY0BC@$$CBDH@Z ; ioINILoader::LoadInt_e<18>
EXTRN	__imp_?LoadInt@ioINILoader@@QAEHPBDH@Z:PROC
; Function compile flags: /Ogsp
; File d:\lost saga for developer\youtube\tutorial\source\src\io3dengine\ioiniloader.h
;	COMDAT ??$LoadInt_e@$0BC@@ioINILoader@@QAEHAAY0BC@$$CBDH@Z
_TEXT	SEGMENT
__k$ = -28						; size = 18
__$ArrayPad$ = -4					; size = 4
_k$ = 8							; size = 4
_i$ = 12						; size = 4
??$LoadInt_e@$0BC@@ioINILoader@@QAEHAAY0BC@$$CBDH@Z PROC ; ioINILoader::LoadInt_e<18>, COMDAT
; _this$ = ecx

; 118  : 	{

  00000	55		 push	 ebp
  00001	8b ec		 mov	 ebp, esp
  00003	83 ec 1c	 sub	 esp, 28			; 0000001cH
  00006	a1 00 00 00 00	 mov	 eax, DWORD PTR ___security_cookie
  0000b	33 c5		 xor	 eax, ebp
  0000d	89 45 fc	 mov	 DWORD PTR __$ArrayPad$[ebp], eax
  00010	8b 45 08	 mov	 eax, DWORD PTR _k$[ebp]

; 119  : 		_ENCSTR(k, _k);

  00013	8a 10		 mov	 dl, BYTE PTR [eax]
  00015	56		 push	 esi
  00016	8b f1		 mov	 esi, ecx
  00018	84 d2		 test	 dl, dl
  0001a	0f 84 be 01 00
	00		 je	 $LN96@LoadInt_e
  00020	80 f2 ed	 xor	 dl, -19			; ffffffedH
  00023	88 55 e4	 mov	 BYTE PTR __k$[ebp], dl
  00026	8a 50 01	 mov	 dl, BYTE PTR [eax+1]
  00029	84 d2		 test	 dl, dl
  0002b	0f 84 a7 01 00
	00		 je	 $LN95@LoadInt_e
  00031	80 f2 ec	 xor	 dl, -20			; ffffffecH
  00034	88 55 e5	 mov	 BYTE PTR __k$[ebp+1], dl
  00037	8a 50 02	 mov	 dl, BYTE PTR [eax+2]
  0003a	84 d2		 test	 dl, dl
  0003c	0f 84 90 01 00
	00		 je	 $LN94@LoadInt_e
  00042	b1 eb		 mov	 cl, -21			; ffffffebH
  00044	32 d1		 xor	 dl, cl
  00046	88 55 e6	 mov	 BYTE PTR __k$[ebp+2], dl
  00049	8a 50 03	 mov	 dl, BYTE PTR [eax+3]
  0004c	84 d2		 test	 dl, dl
  0004e	0f 84 78 01 00
	00		 je	 $LN93@LoadInt_e
  00054	80 f2 ea	 xor	 dl, -22			; ffffffeaH
  00057	88 55 e7	 mov	 BYTE PTR __k$[ebp+3], dl
  0005a	8a 50 04	 mov	 dl, BYTE PTR [eax+4]
  0005d	84 d2		 test	 dl, dl
  0005f	0f 84 61 01 00
	00		 je	 $LN92@LoadInt_e
  00065	80 f2 ed	 xor	 dl, -19			; ffffffedH
  00068	88 55 e8	 mov	 BYTE PTR __k$[ebp+4], dl
  0006b	8a 50 05	 mov	 dl, BYTE PTR [eax+5]
  0006e	84 d2		 test	 dl, dl
  00070	0f 84 4a 01 00
	00		 je	 $LN91@LoadInt_e
  00076	80 f2 ec	 xor	 dl, -20			; ffffffecH
  00079	88 55 e9	 mov	 BYTE PTR __k$[ebp+5], dl
  0007c	8a 50 06	 mov	 dl, BYTE PTR [eax+6]
  0007f	84 d2		 test	 dl, dl
  00081	0f 84 34 01 00
	00		 je	 $LN90@LoadInt_e
  00087	32 d1		 xor	 dl, cl
  00089	88 55 ea	 mov	 BYTE PTR __k$[ebp+6], dl
  0008c	8a 50 07	 mov	 dl, BYTE PTR [eax+7]
  0008f	84 d2		 test	 dl, dl
  00091	0f 84 1e 01 00
	00		 je	 $LN89@LoadInt_e
  00097	80 f2 ea	 xor	 dl, -22			; ffffffeaH
  0009a	88 55 eb	 mov	 BYTE PTR __k$[ebp+7], dl
  0009d	8a 50 08	 mov	 dl, BYTE PTR [eax+8]
  000a0	84 d2		 test	 dl, dl
  000a2	0f 84 07 01 00
	00		 je	 $LN88@LoadInt_e
  000a8	80 f2 ed	 xor	 dl, -19			; ffffffedH
  000ab	88 55 ec	 mov	 BYTE PTR __k$[ebp+8], dl
  000ae	8a 50 09	 mov	 dl, BYTE PTR [eax+9]
  000b1	84 d2		 test	 dl, dl
  000b3	0f 84 f0 00 00
	00		 je	 $LN87@LoadInt_e
  000b9	80 f2 ec	 xor	 dl, -20			; ffffffecH
  000bc	88 55 ed	 mov	 BYTE PTR __k$[ebp+9], dl
  000bf	8a 50 0a	 mov	 dl, BYTE PTR [eax+10]
  000c2	84 d2		 test	 dl, dl
  000c4	0f 84 da 00 00
	00		 je	 $LN86@LoadInt_e
  000ca	32 d1		 xor	 dl, cl
  000cc	88 55 ee	 mov	 BYTE PTR __k$[ebp+10], dl
  000cf	8a 50 0b	 mov	 dl, BYTE PTR [eax+11]
  000d2	84 d2		 test	 dl, dl
  000d4	0f 84 c4 00 00
	00		 je	 $LN85@LoadInt_e
  000da	80 f2 ea	 xor	 dl, -22			; ffffffeaH
  000dd	88 55 ef	 mov	 BYTE PTR __k$[ebp+11], dl
  000e0	8a 50 0c	 mov	 dl, BYTE PTR [eax+12]
  000e3	84 d2		 test	 dl, dl
  000e5	0f 84 ad 00 00
	00		 je	 $LN84@LoadInt_e
  000eb	80 f2 ed	 xor	 dl, -19			; ffffffedH
  000ee	88 55 f0	 mov	 BYTE PTR __k$[ebp+12], dl
  000f1	8a 50 0d	 mov	 dl, BYTE PTR [eax+13]
  000f4	84 d2		 test	 dl, dl
  000f6	0f 84 96 00 00
	00		 je	 $LN83@LoadInt_e
  000fc	80 f2 ec	 xor	 dl, -20			; ffffffecH
  000ff	88 55 f1	 mov	 BYTE PTR __k$[ebp+13], dl
  00102	8a 50 0e	 mov	 dl, BYTE PTR [eax+14]
  00105	84 d2		 test	 dl, dl
  00107	0f 84 80 00 00
	00		 je	 $LN82@LoadInt_e
  0010d	32 d1		 xor	 dl, cl
  0010f	88 55 f2	 mov	 BYTE PTR __k$[ebp+14], dl
  00112	8a 50 0f	 mov	 dl, BYTE PTR [eax+15]
  00115	84 d2		 test	 dl, dl
  00117	74 6e		 je	 SHORT $LN81@LoadInt_e
  00119	80 f2 ea	 xor	 dl, -22			; ffffffeaH
  0011c	88 55 f3	 mov	 BYTE PTR __k$[ebp+15], dl
  0011f	8a 50 10	 mov	 dl, BYTE PTR [eax+16]
  00122	84 d2		 test	 dl, dl
  00124	74 5b		 je	 SHORT $LN80@LoadInt_e
  00126	80 f2 ed	 xor	 dl, -19			; ffffffedH
  00129	80 78 11 00	 cmp	 BYTE PTR [eax+17], 0
  0012d	88 55 f4	 mov	 BYTE PTR __k$[ebp+16], dl
  00130	0f 84 ac 00 00
	00		 je	 $LN1@LoadInt_e
  00136	8a 50 12	 mov	 dl, BYTE PTR [eax+18]
  00139	84 d2		 test	 dl, dl
  0013b	74 3f		 je	 SHORT $LN78@LoadInt_e
  0013d	32 d1		 xor	 dl, cl
  0013f	88 55 f6	 mov	 BYTE PTR __k$[ebp+18], dl
  00142	8a 50 13	 mov	 dl, BYTE PTR [eax+19]
  00145	84 d2		 test	 dl, dl
  00147	74 2d		 je	 SHORT $LN77@LoadInt_e
  00149	80 f2 ea	 xor	 dl, -22			; ffffffeaH
  0014c	88 55 f7	 mov	 BYTE PTR __k$[ebp+19], dl
  0014f	8a 50 14	 mov	 dl, BYTE PTR [eax+20]
  00152	84 d2		 test	 dl, dl
  00154	74 1a		 je	 SHORT $LN76@LoadInt_e
  00156	8a 40 15	 mov	 al, BYTE PTR [eax+21]
  00159	80 f2 ed	 xor	 dl, -19			; ffffffedH
  0015c	88 55 f8	 mov	 BYTE PTR __k$[ebp+20], dl
  0015f	84 c0		 test	 al, al
  00161	74 07		 je	 SHORT $LN75@LoadInt_e
  00163	34 ec		 xor	 al, -20			; ffffffecH
  00165	88 45 f9	 mov	 BYTE PTR __k$[ebp+21], al
  00168	eb 78		 jmp	 SHORT $LN1@LoadInt_e
$LN75@LoadInt_e:
  0016a	c6 45 f9 ec	 mov	 BYTE PTR __k$[ebp+21], -20 ; ffffffecH
  0016e	eb 72		 jmp	 SHORT $LN1@LoadInt_e
$LN76@LoadInt_e:
  00170	c6 45 f8 ed	 mov	 BYTE PTR __k$[ebp+20], -19 ; ffffffedH
  00174	eb 6c		 jmp	 SHORT $LN1@LoadInt_e
$LN77@LoadInt_e:
  00176	c6 45 f7 ea	 mov	 BYTE PTR __k$[ebp+19], -22 ; ffffffeaH
  0017a	eb 66		 jmp	 SHORT $LN1@LoadInt_e
$LN78@LoadInt_e:
  0017c	88 4d f6	 mov	 BYTE PTR __k$[ebp+18], cl
  0017f	eb 61		 jmp	 SHORT $LN1@LoadInt_e
$LN80@LoadInt_e:
  00181	c6 45 f4 ed	 mov	 BYTE PTR __k$[ebp+16], -19 ; ffffffedH
  00185	eb 5b		 jmp	 SHORT $LN1@LoadInt_e
$LN81@LoadInt_e:
  00187	c6 45 f3 ea	 mov	 BYTE PTR __k$[ebp+15], -22 ; ffffffeaH
  0018b	eb 55		 jmp	 SHORT $LN1@LoadInt_e
$LN82@LoadInt_e:
  0018d	88 4d f2	 mov	 BYTE PTR __k$[ebp+14], cl
  00190	eb 50		 jmp	 SHORT $LN1@LoadInt_e
$LN83@LoadInt_e:
  00192	c6 45 f1 ec	 mov	 BYTE PTR __k$[ebp+13], -20 ; ffffffecH
  00196	eb 4a		 jmp	 SHORT $LN1@LoadInt_e
$LN84@LoadInt_e:
  00198	c6 45 f0 ed	 mov	 BYTE PTR __k$[ebp+12], -19 ; ffffffedH
  0019c	eb 44		 jmp	 SHORT $LN1@LoadInt_e
$LN85@LoadInt_e:
  0019e	c6 45 ef ea	 mov	 BYTE PTR __k$[ebp+11], -22 ; ffffffeaH
  001a2	eb 3e		 jmp	 SHORT $LN1@LoadInt_e
$LN86@LoadInt_e:
  001a4	88 4d ee	 mov	 BYTE PTR __k$[ebp+10], cl
  001a7	eb 39		 jmp	 SHORT $LN1@LoadInt_e
$LN87@LoadInt_e:
  001a9	c6 45 ed ec	 mov	 BYTE PTR __k$[ebp+9], -20 ; ffffffecH
  001ad	eb 33		 jmp	 SHORT $LN1@LoadInt_e
$LN88@LoadInt_e:
  001af	c6 45 ec ed	 mov	 BYTE PTR __k$[ebp+8], -19 ; ffffffedH
  001b3	eb 2d		 jmp	 SHORT $LN1@LoadInt_e
$LN89@LoadInt_e:
  001b5	c6 45 eb ea	 mov	 BYTE PTR __k$[ebp+7], -22 ; ffffffeaH
  001b9	eb 27		 jmp	 SHORT $LN1@LoadInt_e
$LN90@LoadInt_e:
  001bb	88 4d ea	 mov	 BYTE PTR __k$[ebp+6], cl
  001be	eb 22		 jmp	 SHORT $LN1@LoadInt_e
$LN91@LoadInt_e:
  001c0	c6 45 e9 ec	 mov	 BYTE PTR __k$[ebp+5], -20 ; ffffffecH
  001c4	eb 1c		 jmp	 SHORT $LN1@LoadInt_e
$LN92@LoadInt_e:
  001c6	c6 45 e8 ed	 mov	 BYTE PTR __k$[ebp+4], -19 ; ffffffedH
  001ca	eb 16		 jmp	 SHORT $LN1@LoadInt_e
$LN93@LoadInt_e:
  001cc	c6 45 e7 ea	 mov	 BYTE PTR __k$[ebp+3], -22 ; ffffffeaH
  001d0	eb 10		 jmp	 SHORT $LN1@LoadInt_e
$LN94@LoadInt_e:
  001d2	c6 45 e6 eb	 mov	 BYTE PTR __k$[ebp+2], -21 ; ffffffebH
  001d6	eb 0a		 jmp	 SHORT $LN1@LoadInt_e
$LN95@LoadInt_e:
  001d8	c6 45 e5 ec	 mov	 BYTE PTR __k$[ebp+1], -20 ; ffffffecH
  001dc	eb 04		 jmp	 SHORT $LN1@LoadInt_e
$LN96@LoadInt_e:
  001de	c6 45 e4 ed	 mov	 BYTE PTR __k$[ebp], -19	; ffffffedH
$LN1@LoadInt_e:
  001e2	6a 04		 push	 4
  001e4	8d 45 e4	 lea	 eax, DWORD PTR __k$[ebp]
  001e7	c6 45 f5 00	 mov	 BYTE PTR __k$[ebp+17], 0
  001eb	5a		 pop	 edx
$LL104@LoadInt_e:
  001ec	81 30 ed ec eb
	ea		 xor	 DWORD PTR [eax], -353637139 ; eaebecedH
  001f2	83 c0 04	 add	 eax, 4
  001f5	4a		 dec	 edx
  001f6	75 f4		 jne	 SHORT $LL104@LoadInt_e

; 120  : 		return LoadInt(_k, i);

  001f8	ff 75 0c	 push	 DWORD PTR _i$[ebp]
  001fb	80 75 f4 ed	 xor	 BYTE PTR __k$[ebp+16], -19 ; ffffffedH
  001ff	8d 45 e4	 lea	 eax, DWORD PTR __k$[ebp]
  00202	50		 push	 eax
  00203	8b ce		 mov	 ecx, esi
  00205	ff 15 00 00 00
	00		 call	 DWORD PTR __imp_?LoadInt@ioINILoader@@QAEHPBDH@Z

; 121  : 	}

  0020b	8b 4d fc	 mov	 ecx, DWORD PTR __$ArrayPad$[ebp]
  0020e	33 cd		 xor	 ecx, ebp
  00210	5e		 pop	 esi
  00211	e8 00 00 00 00	 call	 @__security_check_cookie@4
  00216	c9		 leave
  00217	c2 08 00	 ret	 8
??$LoadInt_e@$0BC@@ioINILoader@@QAEHAAY0BC@$$CBDH@Z ENDP ; ioINILoader::LoadInt_e<18>
_TEXT	ENDS
PUBLIC	__$ArrayPad$
PUBLIC	??$LoadFloat_e@$0M@@ioINILoader@@QAEMAAY0M@$$CBDM@Z ; ioINILoader::LoadFloat_e<12>
EXTRN	__imp_?LoadFloat@ioINILoader@@QAEMPBDM@Z:PROC
; Function compile flags: /Ogsp
;	COMDAT ??$LoadFloat_e@$0M@@ioINILoader@@QAEMAAY0M@$$CBDM@Z
_TEXT	SEGMENT
__k$ = -20						; size = 12
__$ArrayPad$ = -4					; size = 4
_k$ = 8							; size = 4
_f$ = 12						; size = 4
??$LoadFloat_e@$0M@@ioINILoader@@QAEMAAY0M@$$CBDM@Z PROC ; ioINILoader::LoadFloat_e<12>, COMDAT
; _this$ = ecx

; 135  : 	{

  00000	55		 push	 ebp
  00001	8b ec		 mov	 ebp, esp
  00003	83 ec 14	 sub	 esp, 20			; 00000014H
  00006	a1 00 00 00 00	 mov	 eax, DWORD PTR ___security_cookie
  0000b	33 c5		 xor	 eax, ebp
  0000d	89 45 fc	 mov	 DWORD PTR __$ArrayPad$[ebp], eax
  00010	8b 45 08	 mov	 eax, DWORD PTR _k$[ebp]

; 136  : 		_ENCSTR(k, _k);

  00013	8a 10		 mov	 dl, BYTE PTR [eax]
  00015	56		 push	 esi
  00016	8b f1		 mov	 esi, ecx
  00018	84 d2		 test	 dl, dl
  0001a	0f 84 32 01 00
	00		 je	 $LN96@LoadFloat_
  00020	80 f2 ed	 xor	 dl, -19			; ffffffedH
  00023	88 55 ec	 mov	 BYTE PTR __k$[ebp], dl
  00026	8a 50 01	 mov	 dl, BYTE PTR [eax+1]
  00029	84 d2		 test	 dl, dl
  0002b	0f 84 1b 01 00
	00		 je	 $LN95@LoadFloat_
  00031	80 f2 ec	 xor	 dl, -20			; ffffffecH
  00034	88 55 ed	 mov	 BYTE PTR __k$[ebp+1], dl
  00037	8a 50 02	 mov	 dl, BYTE PTR [eax+2]
  0003a	84 d2		 test	 dl, dl
  0003c	0f 84 04 01 00
	00		 je	 $LN94@LoadFloat_
  00042	b1 eb		 mov	 cl, -21			; ffffffebH
  00044	32 d1		 xor	 dl, cl
  00046	88 55 ee	 mov	 BYTE PTR __k$[ebp+2], dl
  00049	8a 50 03	 mov	 dl, BYTE PTR [eax+3]
  0004c	84 d2		 test	 dl, dl
  0004e	0f 84 ec 00 00
	00		 je	 $LN93@LoadFloat_
  00054	80 f2 ea	 xor	 dl, -22			; ffffffeaH
  00057	88 55 ef	 mov	 BYTE PTR __k$[ebp+3], dl
  0005a	8a 50 04	 mov	 dl, BYTE PTR [eax+4]
  0005d	84 d2		 test	 dl, dl
  0005f	0f 84 d5 00 00
	00		 je	 $LN92@LoadFloat_
  00065	80 f2 ed	 xor	 dl, -19			; ffffffedH
  00068	88 55 f0	 mov	 BYTE PTR __k$[ebp+4], dl
  0006b	8a 50 05	 mov	 dl, BYTE PTR [eax+5]
  0006e	84 d2		 test	 dl, dl
  00070	0f 84 be 00 00
	00		 je	 $LN91@LoadFloat_
  00076	80 f2 ec	 xor	 dl, -20			; ffffffecH
  00079	88 55 f1	 mov	 BYTE PTR __k$[ebp+5], dl
  0007c	8a 50 06	 mov	 dl, BYTE PTR [eax+6]
  0007f	84 d2		 test	 dl, dl
  00081	0f 84 a8 00 00
	00		 je	 $LN90@LoadFloat_
  00087	32 d1		 xor	 dl, cl
  00089	88 55 f2	 mov	 BYTE PTR __k$[ebp+6], dl
  0008c	8a 50 07	 mov	 dl, BYTE PTR [eax+7]
  0008f	84 d2		 test	 dl, dl
  00091	0f 84 92 00 00
	00		 je	 $LN89@LoadFloat_
  00097	80 f2 ea	 xor	 dl, -22			; ffffffeaH
  0009a	88 55 f3	 mov	 BYTE PTR __k$[ebp+7], dl
  0009d	8a 50 08	 mov	 dl, BYTE PTR [eax+8]
  000a0	84 d2		 test	 dl, dl
  000a2	74 7f		 je	 SHORT $LN88@LoadFloat_
  000a4	80 f2 ed	 xor	 dl, -19			; ffffffedH
  000a7	88 55 f4	 mov	 BYTE PTR __k$[ebp+8], dl
  000aa	8a 50 09	 mov	 dl, BYTE PTR [eax+9]
  000ad	84 d2		 test	 dl, dl
  000af	74 6c		 je	 SHORT $LN87@LoadFloat_
  000b1	80 f2 ec	 xor	 dl, -20			; ffffffecH
  000b4	88 55 f5	 mov	 BYTE PTR __k$[ebp+9], dl
  000b7	8a 50 0a	 mov	 dl, BYTE PTR [eax+10]
  000ba	84 d2		 test	 dl, dl
  000bc	74 5a		 je	 SHORT $LN86@LoadFloat_
  000be	32 d1		 xor	 dl, cl
  000c0	80 78 0b 00	 cmp	 BYTE PTR [eax+11], 0
  000c4	88 55 f6	 mov	 BYTE PTR __k$[ebp+10], dl
  000c7	0f 84 89 00 00
	00		 je	 $LN1@LoadFloat_
  000cd	8a 50 0c	 mov	 dl, BYTE PTR [eax+12]
  000d0	84 d2		 test	 dl, dl
  000d2	74 3e		 je	 SHORT $LN84@LoadFloat_
  000d4	80 f2 ed	 xor	 dl, -19			; ffffffedH
  000d7	88 55 f8	 mov	 BYTE PTR __k$[ebp+12], dl
  000da	8a 50 0d	 mov	 dl, BYTE PTR [eax+13]
  000dd	84 d2		 test	 dl, dl
  000df	74 2b		 je	 SHORT $LN83@LoadFloat_
  000e1	80 f2 ec	 xor	 dl, -20			; ffffffecH
  000e4	88 55 f9	 mov	 BYTE PTR __k$[ebp+13], dl
  000e7	8a 50 0e	 mov	 dl, BYTE PTR [eax+14]
  000ea	84 d2		 test	 dl, dl
  000ec	74 19		 je	 SHORT $LN82@LoadFloat_
  000ee	8a 40 0f	 mov	 al, BYTE PTR [eax+15]
  000f1	32 d1		 xor	 dl, cl
  000f3	88 55 fa	 mov	 BYTE PTR __k$[ebp+14], dl
  000f6	84 c0		 test	 al, al
  000f8	74 07		 je	 SHORT $LN81@LoadFloat_
  000fa	34 ea		 xor	 al, -22			; ffffffeaH
  000fc	88 45 fb	 mov	 BYTE PTR __k$[ebp+15], al
  000ff	eb 55		 jmp	 SHORT $LN1@LoadFloat_
$LN81@LoadFloat_:
  00101	c6 45 fb ea	 mov	 BYTE PTR __k$[ebp+15], -22 ; ffffffeaH
  00105	eb 4f		 jmp	 SHORT $LN1@LoadFloat_
$LN82@LoadFloat_:
  00107	88 4d fa	 mov	 BYTE PTR __k$[ebp+14], cl
  0010a	eb 4a		 jmp	 SHORT $LN1@LoadFloat_
$LN83@LoadFloat_:
  0010c	c6 45 f9 ec	 mov	 BYTE PTR __k$[ebp+13], -20 ; ffffffecH
  00110	eb 44		 jmp	 SHORT $LN1@LoadFloat_
$LN84@LoadFloat_:
  00112	c6 45 f8 ed	 mov	 BYTE PTR __k$[ebp+12], -19 ; ffffffedH
  00116	eb 3e		 jmp	 SHORT $LN1@LoadFloat_
$LN86@LoadFloat_:
  00118	88 4d f6	 mov	 BYTE PTR __k$[ebp+10], cl
  0011b	eb 39		 jmp	 SHORT $LN1@LoadFloat_
$LN87@LoadFloat_:
  0011d	c6 45 f5 ec	 mov	 BYTE PTR __k$[ebp+9], -20 ; ffffffecH
  00121	eb 33		 jmp	 SHORT $LN1@LoadFloat_
$LN88@LoadFloat_:
  00123	c6 45 f4 ed	 mov	 BYTE PTR __k$[ebp+8], -19 ; ffffffedH
  00127	eb 2d		 jmp	 SHORT $LN1@LoadFloat_
$LN89@LoadFloat_:
  00129	c6 45 f3 ea	 mov	 BYTE PTR __k$[ebp+7], -22 ; ffffffeaH
  0012d	eb 27		 jmp	 SHORT $LN1@LoadFloat_
$LN90@LoadFloat_:
  0012f	88 4d f2	 mov	 BYTE PTR __k$[ebp+6], cl
  00132	eb 22		 jmp	 SHORT $LN1@LoadFloat_
$LN91@LoadFloat_:
  00134	c6 45 f1 ec	 mov	 BYTE PTR __k$[ebp+5], -20 ; ffffffecH
  00138	eb 1c		 jmp	 SHORT $LN1@LoadFloat_
$LN92@LoadFloat_:
  0013a	c6 45 f0 ed	 mov	 BYTE PTR __k$[ebp+4], -19 ; ffffffedH
  0013e	eb 16		 jmp	 SHORT $LN1@LoadFloat_
$LN93@LoadFloat_:
  00140	c6 45 ef ea	 mov	 BYTE PTR __k$[ebp+3], -22 ; ffffffeaH
  00144	eb 10		 jmp	 SHORT $LN1@LoadFloat_
$LN94@LoadFloat_:
  00146	c6 45 ee eb	 mov	 BYTE PTR __k$[ebp+2], -21 ; ffffffebH
  0014a	eb 0a		 jmp	 SHORT $LN1@LoadFloat_
$LN95@LoadFloat_:
  0014c	c6 45 ed ec	 mov	 BYTE PTR __k$[ebp+1], -20 ; ffffffecH
  00150	eb 04		 jmp	 SHORT $LN1@LoadFloat_
$LN96@LoadFloat_:
  00152	c6 45 ec ed	 mov	 BYTE PTR __k$[ebp], -19	; ffffffedH
$LN1@LoadFloat_:
  00156	6a 02		 push	 2
  00158	8d 45 ec	 lea	 eax, DWORD PTR __k$[ebp]
  0015b	c6 45 f7 00	 mov	 BYTE PTR __k$[ebp+11], 0
  0015f	5a		 pop	 edx
$LL104@LoadFloat_:
  00160	81 30 ed ec eb
	ea		 xor	 DWORD PTR [eax], -353637139 ; eaebecedH
  00166	83 c0 04	 add	 eax, 4
  00169	4a		 dec	 edx
  0016a	75 f4		 jne	 SHORT $LL104@LoadFloat_
  0016c	6a 08		 push	 8
  0016e	58		 pop	 eax
$LL101@LoadFloat_:
  0016f	8b c8		 mov	 ecx, eax
  00171	81 e1 03 00 00
	80		 and	 ecx, -2147483645	; 80000003H
  00177	79 05		 jns	 SHORT $LN111@LoadFloat_
  00179	49		 dec	 ecx
  0017a	83 c9 fc	 or	 ecx, -4			; fffffffcH
  0017d	41		 inc	 ecx
$LN111@LoadFloat_:
  0017e	b2 ed		 mov	 dl, -19			; ffffffedH
  00180	2a d1		 sub	 dl, cl
  00182	30 54 05 ec	 xor	 BYTE PTR __k$[ebp+eax], dl
  00186	40		 inc	 eax
  00187	83 f8 0b	 cmp	 eax, 11			; 0000000bH
  0018a	7c e3		 jl	 SHORT $LL101@LoadFloat_

; 137  : 		return LoadFloat(_k, f);

  0018c	f3 0f 10 45 0c	 movss	 xmm0, DWORD PTR _f$[ebp]
  00191	51		 push	 ecx
  00192	8d 45 ec	 lea	 eax, DWORD PTR __k$[ebp]
  00195	f3 0f 11 04 24	 movss	 DWORD PTR [esp], xmm0
  0019a	50		 push	 eax
  0019b	8b ce		 mov	 ecx, esi
  0019d	ff 15 00 00 00
	00		 call	 DWORD PTR __imp_?LoadFloat@ioINILoader@@QAEMPBDM@Z

; 138  : 	}

  001a3	8b 4d fc	 mov	 ecx, DWORD PTR __$ArrayPad$[ebp]
  001a6	33 cd		 xor	 ecx, ebp
  001a8	5e		 pop	 esi
  001a9	e8 00 00 00 00	 call	 @__security_check_cookie@4
  001ae	c9		 leave
  001af	c2 08 00	 ret	 8
??$LoadFloat_e@$0M@@ioINILoader@@QAEMAAY0M@$$CBDM@Z ENDP ; ioINILoader::LoadFloat_e<12>
_TEXT	ENDS
PUBLIC	__$ArrayPad$
PUBLIC	??$LoadFloat_e@$0BD@@ioINILoader@@QAEMAAY0BD@$$CBDM@Z ; ioINILoader::LoadFloat_e<19>
; Function compile flags: /Ogsp
;	COMDAT ??$LoadFloat_e@$0BD@@ioINILoader@@QAEMAAY0BD@$$CBDM@Z
_TEXT	SEGMENT
__k$ = -28						; size = 19
__$ArrayPad$ = -4					; size = 4
_k$ = 8							; size = 4
_f$ = 12						; size = 4
??$LoadFloat_e@$0BD@@ioINILoader@@QAEMAAY0BD@$$CBDM@Z PROC ; ioINILoader::LoadFloat_e<19>, COMDAT
; _this$ = ecx

; 135  : 	{

  00000	55		 push	 ebp
  00001	8b ec		 mov	 ebp, esp
  00003	83 ec 1c	 sub	 esp, 28			; 0000001cH
  00006	a1 00 00 00 00	 mov	 eax, DWORD PTR ___security_cookie
  0000b	33 c5		 xor	 eax, ebp
  0000d	89 45 fc	 mov	 DWORD PTR __$ArrayPad$[ebp], eax
  00010	8b 45 08	 mov	 eax, DWORD PTR _k$[ebp]

; 136  : 		_ENCSTR(k, _k);

  00013	8a 10		 mov	 dl, BYTE PTR [eax]
  00015	56		 push	 esi
  00016	8b f1		 mov	 esi, ecx
  00018	84 d2		 test	 dl, dl
  0001a	0f 84 cf 01 00
	00		 je	 $LN96@LoadFloat_@2
  00020	80 f2 ed	 xor	 dl, -19			; ffffffedH
  00023	88 55 e4	 mov	 BYTE PTR __k$[ebp], dl
  00026	8a 50 01	 mov	 dl, BYTE PTR [eax+1]
  00029	84 d2		 test	 dl, dl
  0002b	0f 84 b8 01 00
	00		 je	 $LN95@LoadFloat_@2
  00031	b1 ec		 mov	 cl, -20			; ffffffecH
  00033	32 d1		 xor	 dl, cl
  00035	88 55 e5	 mov	 BYTE PTR __k$[ebp+1], dl
  00038	8a 50 02	 mov	 dl, BYTE PTR [eax+2]
  0003b	84 d2		 test	 dl, dl
  0003d	0f 84 a0 01 00
	00		 je	 $LN94@LoadFloat_@2
  00043	80 f2 eb	 xor	 dl, -21			; ffffffebH
  00046	88 55 e6	 mov	 BYTE PTR __k$[ebp+2], dl
  00049	8a 50 03	 mov	 dl, BYTE PTR [eax+3]
  0004c	84 d2		 test	 dl, dl
  0004e	0f 84 89 01 00
	00		 je	 $LN93@LoadFloat_@2
  00054	80 f2 ea	 xor	 dl, -22			; ffffffeaH
  00057	88 55 e7	 mov	 BYTE PTR __k$[ebp+3], dl
  0005a	8a 50 04	 mov	 dl, BYTE PTR [eax+4]
  0005d	84 d2		 test	 dl, dl
  0005f	0f 84 72 01 00
	00		 je	 $LN92@LoadFloat_@2
  00065	80 f2 ed	 xor	 dl, -19			; ffffffedH
  00068	88 55 e8	 mov	 BYTE PTR __k$[ebp+4], dl
  0006b	8a 50 05	 mov	 dl, BYTE PTR [eax+5]
  0006e	84 d2		 test	 dl, dl
  00070	0f 84 5c 01 00
	00		 je	 $LN91@LoadFloat_@2
  00076	32 d1		 xor	 dl, cl
  00078	88 55 e9	 mov	 BYTE PTR __k$[ebp+5], dl
  0007b	8a 50 06	 mov	 dl, BYTE PTR [eax+6]
  0007e	84 d2		 test	 dl, dl
  00080	0f 84 46 01 00
	00		 je	 $LN90@LoadFloat_@2
  00086	80 f2 eb	 xor	 dl, -21			; ffffffebH
  00089	88 55 ea	 mov	 BYTE PTR __k$[ebp+6], dl
  0008c	8a 50 07	 mov	 dl, BYTE PTR [eax+7]
  0008f	84 d2		 test	 dl, dl
  00091	0f 84 2f 01 00
	00		 je	 $LN89@LoadFloat_@2
  00097	80 f2 ea	 xor	 dl, -22			; ffffffeaH
  0009a	88 55 eb	 mov	 BYTE PTR __k$[ebp+7], dl
  0009d	8a 50 08	 mov	 dl, BYTE PTR [eax+8]
  000a0	84 d2		 test	 dl, dl
  000a2	0f 84 18 01 00
	00		 je	 $LN88@LoadFloat_@2
  000a8	80 f2 ed	 xor	 dl, -19			; ffffffedH
  000ab	88 55 ec	 mov	 BYTE PTR __k$[ebp+8], dl
  000ae	8a 50 09	 mov	 dl, BYTE PTR [eax+9]
  000b1	84 d2		 test	 dl, dl
  000b3	0f 84 02 01 00
	00		 je	 $LN87@LoadFloat_@2
  000b9	32 d1		 xor	 dl, cl
  000bb	88 55 ed	 mov	 BYTE PTR __k$[ebp+9], dl
  000be	8a 50 0a	 mov	 dl, BYTE PTR [eax+10]
  000c1	84 d2		 test	 dl, dl
  000c3	0f 84 ec 00 00
	00		 je	 $LN86@LoadFloat_@2
  000c9	80 f2 eb	 xor	 dl, -21			; ffffffebH
  000cc	88 55 ee	 mov	 BYTE PTR __k$[ebp+10], dl
  000cf	8a 50 0b	 mov	 dl, BYTE PTR [eax+11]
  000d2	84 d2		 test	 dl, dl
  000d4	0f 84 d5 00 00
	00		 je	 $LN85@LoadFloat_@2
  000da	80 f2 ea	 xor	 dl, -22			; ffffffeaH
  000dd	88 55 ef	 mov	 BYTE PTR __k$[ebp+11], dl
  000e0	8a 50 0c	 mov	 dl, BYTE PTR [eax+12]
  000e3	84 d2		 test	 dl, dl
  000e5	0f 84 be 00 00
	00		 je	 $LN84@LoadFloat_@2
  000eb	80 f2 ed	 xor	 dl, -19			; ffffffedH
  000ee	88 55 f0	 mov	 BYTE PTR __k$[ebp+12], dl
  000f1	8a 50 0d	 mov	 dl, BYTE PTR [eax+13]
  000f4	84 d2		 test	 dl, dl
  000f6	0f 84 a8 00 00
	00		 je	 $LN83@LoadFloat_@2
  000fc	32 d1		 xor	 dl, cl
  000fe	88 55 f1	 mov	 BYTE PTR __k$[ebp+13], dl
  00101	8a 50 0e	 mov	 dl, BYTE PTR [eax+14]
  00104	84 d2		 test	 dl, dl
  00106	0f 84 92 00 00
	00		 je	 $LN82@LoadFloat_@2
  0010c	80 f2 eb	 xor	 dl, -21			; ffffffebH
  0010f	88 55 f2	 mov	 BYTE PTR __k$[ebp+14], dl
  00112	8a 50 0f	 mov	 dl, BYTE PTR [eax+15]
  00115	84 d2		 test	 dl, dl
  00117	74 7f		 je	 SHORT $LN81@LoadFloat_@2
  00119	80 f2 ea	 xor	 dl, -22			; ffffffeaH
  0011c	88 55 f3	 mov	 BYTE PTR __k$[ebp+15], dl
  0011f	8a 50 10	 mov	 dl, BYTE PTR [eax+16]
  00122	84 d2		 test	 dl, dl
  00124	74 6c		 je	 SHORT $LN80@LoadFloat_@2
  00126	80 f2 ed	 xor	 dl, -19			; ffffffedH
  00129	88 55 f4	 mov	 BYTE PTR __k$[ebp+16], dl
  0012c	8a 50 11	 mov	 dl, BYTE PTR [eax+17]
  0012f	84 d2		 test	 dl, dl
  00131	74 5a		 je	 SHORT $LN79@LoadFloat_@2
  00133	32 d1		 xor	 dl, cl
  00135	80 78 12 00	 cmp	 BYTE PTR [eax+18], 0
  00139	88 55 f5	 mov	 BYTE PTR __k$[ebp+17], dl
  0013c	0f 84 b1 00 00
	00		 je	 $LN1@LoadFloat_@2
  00142	8a 50 13	 mov	 dl, BYTE PTR [eax+19]
  00145	84 d2		 test	 dl, dl
  00147	74 3e		 je	 SHORT $LN77@LoadFloat_@2
  00149	80 f2 ea	 xor	 dl, -22			; ffffffeaH
  0014c	88 55 f7	 mov	 BYTE PTR __k$[ebp+19], dl
  0014f	8a 50 14	 mov	 dl, BYTE PTR [eax+20]
  00152	84 d2		 test	 dl, dl
  00154	74 2b		 je	 SHORT $LN76@LoadFloat_@2
  00156	80 f2 ed	 xor	 dl, -19			; ffffffedH
  00159	88 55 f8	 mov	 BYTE PTR __k$[ebp+20], dl
  0015c	8a 50 15	 mov	 dl, BYTE PTR [eax+21]
  0015f	84 d2		 test	 dl, dl
  00161	74 19		 je	 SHORT $LN75@LoadFloat_@2
  00163	8a 40 16	 mov	 al, BYTE PTR [eax+22]
  00166	32 d1		 xor	 dl, cl
  00168	88 55 f9	 mov	 BYTE PTR __k$[ebp+21], dl
  0016b	84 c0		 test	 al, al
  0016d	74 07		 je	 SHORT $LN74@LoadFloat_@2
  0016f	34 eb		 xor	 al, -21			; ffffffebH
  00171	88 45 fa	 mov	 BYTE PTR __k$[ebp+22], al
  00174	eb 7d		 jmp	 SHORT $LN1@LoadFloat_@2
$LN74@LoadFloat_@2:
  00176	c6 45 fa eb	 mov	 BYTE PTR __k$[ebp+22], -21 ; ffffffebH
  0017a	eb 77		 jmp	 SHORT $LN1@LoadFloat_@2
$LN75@LoadFloat_@2:
  0017c	88 4d f9	 mov	 BYTE PTR __k$[ebp+21], cl
  0017f	eb 72		 jmp	 SHORT $LN1@LoadFloat_@2
$LN76@LoadFloat_@2:
  00181	c6 45 f8 ed	 mov	 BYTE PTR __k$[ebp+20], -19 ; ffffffedH
  00185	eb 6c		 jmp	 SHORT $LN1@LoadFloat_@2
$LN77@LoadFloat_@2:
  00187	c6 45 f7 ea	 mov	 BYTE PTR __k$[ebp+19], -22 ; ffffffeaH
  0018b	eb 66		 jmp	 SHORT $LN1@LoadFloat_@2
$LN79@LoadFloat_@2:
  0018d	88 4d f5	 mov	 BYTE PTR __k$[ebp+17], cl
  00190	eb 61		 jmp	 SHORT $LN1@LoadFloat_@2
$LN80@LoadFloat_@2:
  00192	c6 45 f4 ed	 mov	 BYTE PTR __k$[ebp+16], -19 ; ffffffedH
  00196	eb 5b		 jmp	 SHORT $LN1@LoadFloat_@2
$LN81@LoadFloat_@2:
  00198	c6 45 f3 ea	 mov	 BYTE PTR __k$[ebp+15], -22 ; ffffffeaH
  0019c	eb 55		 jmp	 SHORT $LN1@LoadFloat_@2
$LN82@LoadFloat_@2:
  0019e	c6 45 f2 eb	 mov	 BYTE PTR __k$[ebp+14], -21 ; ffffffebH
  001a2	eb 4f		 jmp	 SHORT $LN1@LoadFloat_@2
$LN83@LoadFloat_@2:
  001a4	88 4d f1	 mov	 BYTE PTR __k$[ebp+13], cl
  001a7	eb 4a		 jmp	 SHORT $LN1@LoadFloat_@2
$LN84@LoadFloat_@2:
  001a9	c6 45 f0 ed	 mov	 BYTE PTR __k$[ebp+12], -19 ; ffffffedH
  001ad	eb 44		 jmp	 SHORT $LN1@LoadFloat_@2
$LN85@LoadFloat_@2:
  001af	c6 45 ef ea	 mov	 BYTE PTR __k$[ebp+11], -22 ; ffffffeaH
  001b3	eb 3e		 jmp	 SHORT $LN1@LoadFloat_@2
$LN86@LoadFloat_@2:
  001b5	c6 45 ee eb	 mov	 BYTE PTR __k$[ebp+10], -21 ; ffffffebH
  001b9	eb 38		 jmp	 SHORT $LN1@LoadFloat_@2
$LN87@LoadFloat_@2:
  001bb	88 4d ed	 mov	 BYTE PTR __k$[ebp+9], cl
  001be	eb 33		 jmp	 SHORT $LN1@LoadFloat_@2
$LN88@LoadFloat_@2:
  001c0	c6 45 ec ed	 mov	 BYTE PTR __k$[ebp+8], -19 ; ffffffedH
  001c4	eb 2d		 jmp	 SHORT $LN1@LoadFloat_@2
$LN89@LoadFloat_@2:
  001c6	c6 45 eb ea	 mov	 BYTE PTR __k$[ebp+7], -22 ; ffffffeaH
  001ca	eb 27		 jmp	 SHORT $LN1@LoadFloat_@2
$LN90@LoadFloat_@2:
  001cc	c6 45 ea eb	 mov	 BYTE PTR __k$[ebp+6], -21 ; ffffffebH
  001d0	eb 21		 jmp	 SHORT $LN1@LoadFloat_@2
$LN91@LoadFloat_@2:
  001d2	88 4d e9	 mov	 BYTE PTR __k$[ebp+5], cl
  001d5	eb 1c		 jmp	 SHORT $LN1@LoadFloat_@2
$LN92@LoadFloat_@2:
  001d7	c6 45 e8 ed	 mov	 BYTE PTR __k$[ebp+4], -19 ; ffffffedH
  001db	eb 16		 jmp	 SHORT $LN1@LoadFloat_@2
$LN93@LoadFloat_@2:
  001dd	c6 45 e7 ea	 mov	 BYTE PTR __k$[ebp+3], -22 ; ffffffeaH
  001e1	eb 10		 jmp	 SHORT $LN1@LoadFloat_@2
$LN94@LoadFloat_@2:
  001e3	c6 45 e6 eb	 mov	 BYTE PTR __k$[ebp+2], -21 ; ffffffebH
  001e7	eb 0a		 jmp	 SHORT $LN1@LoadFloat_@2
$LN95@LoadFloat_@2:
  001e9	c6 45 e5 ec	 mov	 BYTE PTR __k$[ebp+1], -20 ; ffffffecH
  001ed	eb 04		 jmp	 SHORT $LN1@LoadFloat_@2
$LN96@LoadFloat_@2:
  001ef	c6 45 e4 ed	 mov	 BYTE PTR __k$[ebp], -19	; ffffffedH
$LN1@LoadFloat_@2:
  001f3	6a 04		 push	 4
  001f5	8d 45 e4	 lea	 eax, DWORD PTR __k$[ebp]
  001f8	c6 45 f6 00	 mov	 BYTE PTR __k$[ebp+18], 0
  001fc	5a		 pop	 edx
$LL104@LoadFloat_@2:
  001fd	81 30 ed ec eb
	ea		 xor	 DWORD PTR [eax], -353637139 ; eaebecedH
  00203	83 c0 04	 add	 eax, 4
  00206	4a		 dec	 edx
  00207	75 f4		 jne	 SHORT $LL104@LoadFloat_@2
  00209	6a 10		 push	 16			; 00000010H
  0020b	58		 pop	 eax
$LL101@LoadFloat_@2:
  0020c	8b c8		 mov	 ecx, eax
  0020e	81 e1 03 00 00
	80		 and	 ecx, -2147483645	; 80000003H
  00214	79 05		 jns	 SHORT $LN111@LoadFloat_@2
  00216	49		 dec	 ecx
  00217	83 c9 fc	 or	 ecx, -4			; fffffffcH
  0021a	41		 inc	 ecx
$LN111@LoadFloat_@2:
  0021b	b2 ed		 mov	 dl, -19			; ffffffedH
  0021d	2a d1		 sub	 dl, cl
  0021f	30 54 05 e4	 xor	 BYTE PTR __k$[ebp+eax], dl
  00223	40		 inc	 eax
  00224	83 f8 12	 cmp	 eax, 18			; 00000012H
  00227	7c e3		 jl	 SHORT $LL101@LoadFloat_@2

; 137  : 		return LoadFloat(_k, f);

  00229	f3 0f 10 45 0c	 movss	 xmm0, DWORD PTR _f$[ebp]
  0022e	51		 push	 ecx
  0022f	8d 45 e4	 lea	 eax, DWORD PTR __k$[ebp]
  00232	f3 0f 11 04 24	 movss	 DWORD PTR [esp], xmm0
  00237	50		 push	 eax
  00238	8b ce		 mov	 ecx, esi
  0023a	ff 15 00 00 00
	00		 call	 DWORD PTR __imp_?LoadFloat@ioINILoader@@QAEMPBDM@Z

; 138  : 	}

  00240	8b 4d fc	 mov	 ecx, DWORD PTR __$ArrayPad$[ebp]
  00243	33 cd		 xor	 ecx, ebp
  00245	5e		 pop	 esi
  00246	e8 00 00 00 00	 call	 @__security_check_cookie@4
  0024b	c9		 leave
  0024c	c2 08 00	 ret	 8
??$LoadFloat_e@$0BD@@ioINILoader@@QAEMAAY0BD@$$CBDM@Z ENDP ; ioINILoader::LoadFloat_e<19>
_TEXT	ENDS
PUBLIC	__$ArrayPad$
PUBLIC	??$LoadInt_e@$0P@@ioINILoader@@QAEHAAY0P@$$CBDH@Z ; ioINILoader::LoadInt_e<15>
; Function compile flags: /Ogsp
;	COMDAT ??$LoadInt_e@$0P@@ioINILoader@@QAEHAAY0P@$$CBDH@Z
_TEXT	SEGMENT
__k$ = -24						; size = 15
__$ArrayPad$ = -4					; size = 4
_k$ = 8							; size = 4
_i$ = 12						; size = 4
??$LoadInt_e@$0P@@ioINILoader@@QAEHAAY0P@$$CBDH@Z PROC	; ioINILoader::LoadInt_e<15>, COMDAT
; _this$ = ecx

; 118  : 	{

  00000	55		 push	 ebp
  00001	8b ec		 mov	 ebp, esp
  00003	83 ec 18	 sub	 esp, 24			; 00000018H
  00006	a1 00 00 00 00	 mov	 eax, DWORD PTR ___security_cookie
  0000b	33 c5		 xor	 eax, ebp
  0000d	89 45 fc	 mov	 DWORD PTR __$ArrayPad$[ebp], eax
  00010	8b 45 08	 mov	 eax, DWORD PTR _k$[ebp]

; 119  : 		_ENCSTR(k, _k);

  00013	8a 10		 mov	 dl, BYTE PTR [eax]
  00015	56		 push	 esi
  00016	8b f1		 mov	 esi, ecx
  00018	84 d2		 test	 dl, dl
  0001a	0f 84 75 01 00
	00		 je	 $LN96@LoadInt_e@2
  00020	80 f2 ed	 xor	 dl, -19			; ffffffedH
  00023	88 55 e8	 mov	 BYTE PTR __k$[ebp], dl
  00026	8a 50 01	 mov	 dl, BYTE PTR [eax+1]
  00029	84 d2		 test	 dl, dl
  0002b	0f 84 5e 01 00
	00		 je	 $LN95@LoadInt_e@2
  00031	b1 ec		 mov	 cl, -20			; ffffffecH
  00033	32 d1		 xor	 dl, cl
  00035	88 55 e9	 mov	 BYTE PTR __k$[ebp+1], dl
  00038	8a 50 02	 mov	 dl, BYTE PTR [eax+2]
  0003b	84 d2		 test	 dl, dl
  0003d	0f 84 46 01 00
	00		 je	 $LN94@LoadInt_e@2
  00043	80 f2 eb	 xor	 dl, -21			; ffffffebH
  00046	88 55 ea	 mov	 BYTE PTR __k$[ebp+2], dl
  00049	8a 50 03	 mov	 dl, BYTE PTR [eax+3]
  0004c	84 d2		 test	 dl, dl
  0004e	0f 84 2f 01 00
	00		 je	 $LN93@LoadInt_e@2
  00054	80 f2 ea	 xor	 dl, -22			; ffffffeaH
  00057	88 55 eb	 mov	 BYTE PTR __k$[ebp+3], dl
  0005a	8a 50 04	 mov	 dl, BYTE PTR [eax+4]
  0005d	84 d2		 test	 dl, dl
  0005f	0f 84 18 01 00
	00		 je	 $LN92@LoadInt_e@2
  00065	80 f2 ed	 xor	 dl, -19			; ffffffedH
  00068	88 55 ec	 mov	 BYTE PTR __k$[ebp+4], dl
  0006b	8a 50 05	 mov	 dl, BYTE PTR [eax+5]
  0006e	84 d2		 test	 dl, dl
  00070	0f 84 02 01 00
	00		 je	 $LN91@LoadInt_e@2
  00076	32 d1		 xor	 dl, cl
  00078	88 55 ed	 mov	 BYTE PTR __k$[ebp+5], dl
  0007b	8a 50 06	 mov	 dl, BYTE PTR [eax+6]
  0007e	84 d2		 test	 dl, dl
  00080	0f 84 ec 00 00
	00		 je	 $LN90@LoadInt_e@2
  00086	80 f2 eb	 xor	 dl, -21			; ffffffebH
  00089	88 55 ee	 mov	 BYTE PTR __k$[ebp+6], dl
  0008c	8a 50 07	 mov	 dl, BYTE PTR [eax+7]
  0008f	84 d2		 test	 dl, dl
  00091	0f 84 d5 00 00
	00		 je	 $LN89@LoadInt_e@2
  00097	80 f2 ea	 xor	 dl, -22			; ffffffeaH
  0009a	88 55 ef	 mov	 BYTE PTR __k$[ebp+7], dl
  0009d	8a 50 08	 mov	 dl, BYTE PTR [eax+8]
  000a0	84 d2		 test	 dl, dl
  000a2	0f 84 be 00 00
	00		 je	 $LN88@LoadInt_e@2
  000a8	80 f2 ed	 xor	 dl, -19			; ffffffedH
  000ab	88 55 f0	 mov	 BYTE PTR __k$[ebp+8], dl
  000ae	8a 50 09	 mov	 dl, BYTE PTR [eax+9]
  000b1	84 d2		 test	 dl, dl
  000b3	0f 84 a8 00 00
	00		 je	 $LN87@LoadInt_e@2
  000b9	32 d1		 xor	 dl, cl
  000bb	88 55 f1	 mov	 BYTE PTR __k$[ebp+9], dl
  000be	8a 50 0a	 mov	 dl, BYTE PTR [eax+10]
  000c1	84 d2		 test	 dl, dl
  000c3	0f 84 92 00 00
	00		 je	 $LN86@LoadInt_e@2
  000c9	80 f2 eb	 xor	 dl, -21			; ffffffebH
  000cc	88 55 f2	 mov	 BYTE PTR __k$[ebp+10], dl
  000cf	8a 50 0b	 mov	 dl, BYTE PTR [eax+11]
  000d2	84 d2		 test	 dl, dl
  000d4	74 7f		 je	 SHORT $LN85@LoadInt_e@2
  000d6	80 f2 ea	 xor	 dl, -22			; ffffffeaH
  000d9	88 55 f3	 mov	 BYTE PTR __k$[ebp+11], dl
  000dc	8a 50 0c	 mov	 dl, BYTE PTR [eax+12]
  000df	84 d2		 test	 dl, dl
  000e1	74 6c		 je	 SHORT $LN84@LoadInt_e@2
  000e3	80 f2 ed	 xor	 dl, -19			; ffffffedH
  000e6	88 55 f4	 mov	 BYTE PTR __k$[ebp+12], dl
  000e9	8a 50 0d	 mov	 dl, BYTE PTR [eax+13]
  000ec	84 d2		 test	 dl, dl
  000ee	74 5a		 je	 SHORT $LN83@LoadInt_e@2
  000f0	32 d1		 xor	 dl, cl
  000f2	80 78 0e 00	 cmp	 BYTE PTR [eax+14], 0
  000f6	88 55 f5	 mov	 BYTE PTR __k$[ebp+13], dl
  000f9	0f 84 9a 00 00
	00		 je	 $LN1@LoadInt_e@2
  000ff	8a 50 0f	 mov	 dl, BYTE PTR [eax+15]
  00102	84 d2		 test	 dl, dl
  00104	74 3e		 je	 SHORT $LN81@LoadInt_e@2
  00106	80 f2 ea	 xor	 dl, -22			; ffffffeaH
  00109	88 55 f7	 mov	 BYTE PTR __k$[ebp+15], dl
  0010c	8a 50 10	 mov	 dl, BYTE PTR [eax+16]
  0010f	84 d2		 test	 dl, dl
  00111	74 2b		 je	 SHORT $LN80@LoadInt_e@2
  00113	80 f2 ed	 xor	 dl, -19			; ffffffedH
  00116	88 55 f8	 mov	 BYTE PTR __k$[ebp+16], dl
  00119	8a 50 11	 mov	 dl, BYTE PTR [eax+17]
  0011c	84 d2		 test	 dl, dl
  0011e	74 19		 je	 SHORT $LN79@LoadInt_e@2
  00120	8a 40 12	 mov	 al, BYTE PTR [eax+18]
  00123	32 d1		 xor	 dl, cl
  00125	88 55 f9	 mov	 BYTE PTR __k$[ebp+17], dl
  00128	84 c0		 test	 al, al
  0012a	74 07		 je	 SHORT $LN78@LoadInt_e@2
  0012c	34 eb		 xor	 al, -21			; ffffffebH
  0012e	88 45 fa	 mov	 BYTE PTR __k$[ebp+18], al
  00131	eb 66		 jmp	 SHORT $LN1@LoadInt_e@2
$LN78@LoadInt_e@2:
  00133	c6 45 fa eb	 mov	 BYTE PTR __k$[ebp+18], -21 ; ffffffebH
  00137	eb 60		 jmp	 SHORT $LN1@LoadInt_e@2
$LN79@LoadInt_e@2:
  00139	88 4d f9	 mov	 BYTE PTR __k$[ebp+17], cl
  0013c	eb 5b		 jmp	 SHORT $LN1@LoadInt_e@2
$LN80@LoadInt_e@2:
  0013e	c6 45 f8 ed	 mov	 BYTE PTR __k$[ebp+16], -19 ; ffffffedH
  00142	eb 55		 jmp	 SHORT $LN1@LoadInt_e@2
$LN81@LoadInt_e@2:
  00144	c6 45 f7 ea	 mov	 BYTE PTR __k$[ebp+15], -22 ; ffffffeaH
  00148	eb 4f		 jmp	 SHORT $LN1@LoadInt_e@2
$LN83@LoadInt_e@2:
  0014a	88 4d f5	 mov	 BYTE PTR __k$[ebp+13], cl
  0014d	eb 4a		 jmp	 SHORT $LN1@LoadInt_e@2
$LN84@LoadInt_e@2:
  0014f	c6 45 f4 ed	 mov	 BYTE PTR __k$[ebp+12], -19 ; ffffffedH
  00153	eb 44		 jmp	 SHORT $LN1@LoadInt_e@2
$LN85@LoadInt_e@2:
  00155	c6 45 f3 ea	 mov	 BYTE PTR __k$[ebp+11], -22 ; ffffffeaH
  00159	eb 3e		 jmp	 SHORT $LN1@LoadInt_e@2
$LN86@LoadInt_e@2:
  0015b	c6 45 f2 eb	 mov	 BYTE PTR __k$[ebp+10], -21 ; ffffffebH
  0015f	eb 38		 jmp	 SHORT $LN1@LoadInt_e@2
$LN87@LoadInt_e@2:
  00161	88 4d f1	 mov	 BYTE PTR __k$[ebp+9], cl
  00164	eb 33		 jmp	 SHORT $LN1@LoadInt_e@2
$LN88@LoadInt_e@2:
  00166	c6 45 f0 ed	 mov	 BYTE PTR __k$[ebp+8], -19 ; ffffffedH
  0016a	eb 2d		 jmp	 SHORT $LN1@LoadInt_e@2
$LN89@LoadInt_e@2:
  0016c	c6 45 ef ea	 mov	 BYTE PTR __k$[ebp+7], -22 ; ffffffeaH
  00170	eb 27		 jmp	 SHORT $LN1@LoadInt_e@2
$LN90@LoadInt_e@2:
  00172	c6 45 ee eb	 mov	 BYTE PTR __k$[ebp+6], -21 ; ffffffebH
  00176	eb 21		 jmp	 SHORT $LN1@LoadInt_e@2
$LN91@LoadInt_e@2:
  00178	88 4d ed	 mov	 BYTE PTR __k$[ebp+5], cl
  0017b	eb 1c		 jmp	 SHORT $LN1@LoadInt_e@2
$LN92@LoadInt_e@2:
  0017d	c6 45 ec ed	 mov	 BYTE PTR __k$[ebp+4], -19 ; ffffffedH
  00181	eb 16		 jmp	 SHORT $LN1@LoadInt_e@2
$LN93@LoadInt_e@2:
  00183	c6 45 eb ea	 mov	 BYTE PTR __k$[ebp+3], -22 ; ffffffeaH
  00187	eb 10		 jmp	 SHORT $LN1@LoadInt_e@2
$LN94@LoadInt_e@2:
  00189	c6 45 ea eb	 mov	 BYTE PTR __k$[ebp+2], -21 ; ffffffebH
  0018d	eb 0a		 jmp	 SHORT $LN1@LoadInt_e@2
$LN95@LoadInt_e@2:
  0018f	c6 45 e9 ec	 mov	 BYTE PTR __k$[ebp+1], -20 ; ffffffecH
  00193	eb 04		 jmp	 SHORT $LN1@LoadInt_e@2
$LN96@LoadInt_e@2:
  00195	c6 45 e8 ed	 mov	 BYTE PTR __k$[ebp], -19	; ffffffedH
$LN1@LoadInt_e@2:
  00199	6a 03		 push	 3
  0019b	8d 45 e8	 lea	 eax, DWORD PTR __k$[ebp]
  0019e	c6 45 f6 00	 mov	 BYTE PTR __k$[ebp+14], 0
  001a2	5a		 pop	 edx
$LL104@LoadInt_e@2:
  001a3	81 30 ed ec eb
	ea		 xor	 DWORD PTR [eax], -353637139 ; eaebecedH
  001a9	83 c0 04	 add	 eax, 4
  001ac	4a		 dec	 edx
  001ad	75 f4		 jne	 SHORT $LL104@LoadInt_e@2
  001af	6a 0c		 push	 12			; 0000000cH
  001b1	58		 pop	 eax
$LL101@LoadInt_e@2:
  001b2	8b c8		 mov	 ecx, eax
  001b4	81 e1 03 00 00
	80		 and	 ecx, -2147483645	; 80000003H
  001ba	79 05		 jns	 SHORT $LN111@LoadInt_e@2
  001bc	49		 dec	 ecx
  001bd	83 c9 fc	 or	 ecx, -4			; fffffffcH
  001c0	41		 inc	 ecx
$LN111@LoadInt_e@2:
  001c1	b2 ed		 mov	 dl, -19			; ffffffedH
  001c3	2a d1		 sub	 dl, cl
  001c5	30 54 05 e8	 xor	 BYTE PTR __k$[ebp+eax], dl
  001c9	40		 inc	 eax
  001ca	83 f8 0e	 cmp	 eax, 14			; 0000000eH
  001cd	7c e3		 jl	 SHORT $LL101@LoadInt_e@2

; 120  : 		return LoadInt(_k, i);

  001cf	ff 75 0c	 push	 DWORD PTR _i$[ebp]
  001d2	8d 45 e8	 lea	 eax, DWORD PTR __k$[ebp]
  001d5	50		 push	 eax
  001d6	8b ce		 mov	 ecx, esi
  001d8	ff 15 00 00 00
	00		 call	 DWORD PTR __imp_?LoadInt@ioINILoader@@QAEHPBDH@Z

; 121  : 	}

  001de	8b 4d fc	 mov	 ecx, DWORD PTR __$ArrayPad$[ebp]
  001e1	33 cd		 xor	 ecx, ebp
  001e3	5e		 pop	 esi
  001e4	e8 00 00 00 00	 call	 @__security_check_cookie@4
  001e9	c9		 leave
  001ea	c2 08 00	 ret	 8
??$LoadInt_e@$0P@@ioINILoader@@QAEHAAY0P@$$CBDH@Z ENDP	; ioINILoader::LoadInt_e<15>
_TEXT	ENDS
PUBLIC	__$ArrayPad$
PUBLIC	??$LoadFloat_e@$0BA@@ioINILoader@@QAEMAAY0BA@$$CBDM@Z ; ioINILoader::LoadFloat_e<16>
; Function compile flags: /Ogsp
;	COMDAT ??$LoadFloat_e@$0BA@@ioINILoader@@QAEMAAY0BA@$$CBDM@Z
_TEXT	SEGMENT
__k$ = -24						; size = 16
__$ArrayPad$ = -4					; size = 4
_k$ = 8							; size = 4
_f$ = 12						; size = 4
??$LoadFloat_e@$0BA@@ioINILoader@@QAEMAAY0BA@$$CBDM@Z PROC ; ioINILoader::LoadFloat_e<16>, COMDAT
; _this$ = ecx

; 135  : 	{

  00000	55		 push	 ebp
  00001	8b ec		 mov	 ebp, esp
  00003	83 ec 18	 sub	 esp, 24			; 00000018H
  00006	a1 00 00 00 00	 mov	 eax, DWORD PTR ___security_cookie
  0000b	33 c5		 xor	 eax, ebp
  0000d	89 45 fc	 mov	 DWORD PTR __$ArrayPad$[ebp], eax
  00010	8b 45 08	 mov	 eax, DWORD PTR _k$[ebp]

; 136  : 		_ENCSTR(k, _k);

  00013	8a 10		 mov	 dl, BYTE PTR [eax]
  00015	56		 push	 esi
  00016	8b f1		 mov	 esi, ecx
  00018	84 d2		 test	 dl, dl
  0001a	0f 84 8c 01 00
	00		 je	 $LN96@LoadFloat_@3
  00020	80 f2 ed	 xor	 dl, -19			; ffffffedH
  00023	88 55 e8	 mov	 BYTE PTR __k$[ebp], dl
  00026	8a 50 01	 mov	 dl, BYTE PTR [eax+1]
  00029	84 d2		 test	 dl, dl
  0002b	0f 84 75 01 00
	00		 je	 $LN95@LoadFloat_@3
  00031	80 f2 ec	 xor	 dl, -20			; ffffffecH
  00034	88 55 e9	 mov	 BYTE PTR __k$[ebp+1], dl
  00037	8a 50 02	 mov	 dl, BYTE PTR [eax+2]
  0003a	84 d2		 test	 dl, dl
  0003c	0f 84 5e 01 00
	00		 je	 $LN94@LoadFloat_@3
  00042	b1 eb		 mov	 cl, -21			; ffffffebH
  00044	32 d1		 xor	 dl, cl
  00046	88 55 ea	 mov	 BYTE PTR __k$[ebp+2], dl
  00049	8a 50 03	 mov	 dl, BYTE PTR [eax+3]
  0004c	84 d2		 test	 dl, dl
  0004e	0f 84 46 01 00
	00		 je	 $LN93@LoadFloat_@3
  00054	80 f2 ea	 xor	 dl, -22			; ffffffeaH
  00057	88 55 eb	 mov	 BYTE PTR __k$[ebp+3], dl
  0005a	8a 50 04	 mov	 dl, BYTE PTR [eax+4]
  0005d	84 d2		 test	 dl, dl
  0005f	0f 84 2f 01 00
	00		 je	 $LN92@LoadFloat_@3
  00065	80 f2 ed	 xor	 dl, -19			; ffffffedH
  00068	88 55 ec	 mov	 BYTE PTR __k$[ebp+4], dl
  0006b	8a 50 05	 mov	 dl, BYTE PTR [eax+5]
  0006e	84 d2		 test	 dl, dl
  00070	0f 84 18 01 00
	00		 je	 $LN91@LoadFloat_@3
  00076	80 f2 ec	 xor	 dl, -20			; ffffffecH
  00079	88 55 ed	 mov	 BYTE PTR __k$[ebp+5], dl
  0007c	8a 50 06	 mov	 dl, BYTE PTR [eax+6]
  0007f	84 d2		 test	 dl, dl
  00081	0f 84 02 01 00
	00		 je	 $LN90@LoadFloat_@3
  00087	32 d1		 xor	 dl, cl
  00089	88 55 ee	 mov	 BYTE PTR __k$[ebp+6], dl
  0008c	8a 50 07	 mov	 dl, BYTE PTR [eax+7]
  0008f	84 d2		 test	 dl, dl
  00091	0f 84 ec 00 00
	00		 je	 $LN89@LoadFloat_@3
  00097	80 f2 ea	 xor	 dl, -22			; ffffffeaH
  0009a	88 55 ef	 mov	 BYTE PTR __k$[ebp+7], dl
  0009d	8a 50 08	 mov	 dl, BYTE PTR [eax+8]
  000a0	84 d2		 test	 dl, dl
  000a2	0f 84 d5 00 00
	00		 je	 $LN88@LoadFloat_@3
  000a8	80 f2 ed	 xor	 dl, -19			; ffffffedH
  000ab	88 55 f0	 mov	 BYTE PTR __k$[ebp+8], dl
  000ae	8a 50 09	 mov	 dl, BYTE PTR [eax+9]
  000b1	84 d2		 test	 dl, dl
  000b3	0f 84 be 00 00
	00		 je	 $LN87@LoadFloat_@3
  000b9	80 f2 ec	 xor	 dl, -20			; ffffffecH
  000bc	88 55 f1	 mov	 BYTE PTR __k$[ebp+9], dl
  000bf	8a 50 0a	 mov	 dl, BYTE PTR [eax+10]
  000c2	84 d2		 test	 dl, dl
  000c4	0f 84 a8 00 00
	00		 je	 $LN86@LoadFloat_@3
  000ca	32 d1		 xor	 dl, cl
  000cc	88 55 f2	 mov	 BYTE PTR __k$[ebp+10], dl
  000cf	8a 50 0b	 mov	 dl, BYTE PTR [eax+11]
  000d2	84 d2		 test	 dl, dl
  000d4	0f 84 92 00 00
	00		 je	 $LN85@LoadFloat_@3
  000da	80 f2 ea	 xor	 dl, -22			; ffffffeaH
  000dd	88 55 f3	 mov	 BYTE PTR __k$[ebp+11], dl
  000e0	8a 50 0c	 mov	 dl, BYTE PTR [eax+12]
  000e3	84 d2		 test	 dl, dl
  000e5	74 7f		 je	 SHORT $LN84@LoadFloat_@3
  000e7	80 f2 ed	 xor	 dl, -19			; ffffffedH
  000ea	88 55 f4	 mov	 BYTE PTR __k$[ebp+12], dl
  000ed	8a 50 0d	 mov	 dl, BYTE PTR [eax+13]
  000f0	84 d2		 test	 dl, dl
  000f2	74 6c		 je	 SHORT $LN83@LoadFloat_@3
  000f4	80 f2 ec	 xor	 dl, -20			; ffffffecH
  000f7	88 55 f5	 mov	 BYTE PTR __k$[ebp+13], dl
  000fa	8a 50 0e	 mov	 dl, BYTE PTR [eax+14]
  000fd	84 d2		 test	 dl, dl
  000ff	74 5a		 je	 SHORT $LN82@LoadFloat_@3
  00101	32 d1		 xor	 dl, cl
  00103	80 78 0f 00	 cmp	 BYTE PTR [eax+15], 0
  00107	88 55 f6	 mov	 BYTE PTR __k$[ebp+14], dl
  0010a	0f 84 a0 00 00
	00		 je	 $LN1@LoadFloat_@3
  00110	8a 50 10	 mov	 dl, BYTE PTR [eax+16]
  00113	84 d2		 test	 dl, dl
  00115	74 3e		 je	 SHORT $LN80@LoadFloat_@3
  00117	80 f2 ed	 xor	 dl, -19			; ffffffedH
  0011a	88 55 f8	 mov	 BYTE PTR __k$[ebp+16], dl
  0011d	8a 50 11	 mov	 dl, BYTE PTR [eax+17]
  00120	84 d2		 test	 dl, dl
  00122	74 2b		 je	 SHORT $LN79@LoadFloat_@3
  00124	80 f2 ec	 xor	 dl, -20			; ffffffecH
  00127	88 55 f9	 mov	 BYTE PTR __k$[ebp+17], dl
  0012a	8a 50 12	 mov	 dl, BYTE PTR [eax+18]
  0012d	84 d2		 test	 dl, dl
  0012f	74 19		 je	 SHORT $LN78@LoadFloat_@3
  00131	8a 40 13	 mov	 al, BYTE PTR [eax+19]
  00134	32 d1		 xor	 dl, cl
  00136	88 55 fa	 mov	 BYTE PTR __k$[ebp+18], dl
  00139	84 c0		 test	 al, al
  0013b	74 07		 je	 SHORT $LN77@LoadFloat_@3
  0013d	34 ea		 xor	 al, -22			; ffffffeaH
  0013f	88 45 fb	 mov	 BYTE PTR __k$[ebp+19], al
  00142	eb 6c		 jmp	 SHORT $LN1@LoadFloat_@3
$LN77@LoadFloat_@3:
  00144	c6 45 fb ea	 mov	 BYTE PTR __k$[ebp+19], -22 ; ffffffeaH
  00148	eb 66		 jmp	 SHORT $LN1@LoadFloat_@3
$LN78@LoadFloat_@3:
  0014a	88 4d fa	 mov	 BYTE PTR __k$[ebp+18], cl
  0014d	eb 61		 jmp	 SHORT $LN1@LoadFloat_@3
$LN79@LoadFloat_@3:
  0014f	c6 45 f9 ec	 mov	 BYTE PTR __k$[ebp+17], -20 ; ffffffecH
  00153	eb 5b		 jmp	 SHORT $LN1@LoadFloat_@3
$LN80@LoadFloat_@3:
  00155	c6 45 f8 ed	 mov	 BYTE PTR __k$[ebp+16], -19 ; ffffffedH
  00159	eb 55		 jmp	 SHORT $LN1@LoadFloat_@3
$LN82@LoadFloat_@3:
  0015b	88 4d f6	 mov	 BYTE PTR __k$[ebp+14], cl
  0015e	eb 50		 jmp	 SHORT $LN1@LoadFloat_@3
$LN83@LoadFloat_@3:
  00160	c6 45 f5 ec	 mov	 BYTE PTR __k$[ebp+13], -20 ; ffffffecH
  00164	eb 4a		 jmp	 SHORT $LN1@LoadFloat_@3
$LN84@LoadFloat_@3:
  00166	c6 45 f4 ed	 mov	 BYTE PTR __k$[ebp+12], -19 ; ffffffedH
  0016a	eb 44		 jmp	 SHORT $LN1@LoadFloat_@3
$LN85@LoadFloat_@3:
  0016c	c6 45 f3 ea	 mov	 BYTE PTR __k$[ebp+11], -22 ; ffffffeaH
  00170	eb 3e		 jmp	 SHORT $LN1@LoadFloat_@3
$LN86@LoadFloat_@3:
  00172	88 4d f2	 mov	 BYTE PTR __k$[ebp+10], cl
  00175	eb 39		 jmp	 SHORT $LN1@LoadFloat_@3
$LN87@LoadFloat_@3:
  00177	c6 45 f1 ec	 mov	 BYTE PTR __k$[ebp+9], -20 ; ffffffecH
  0017b	eb 33		 jmp	 SHORT $LN1@LoadFloat_@3
$LN88@LoadFloat_@3:
  0017d	c6 45 f0 ed	 mov	 BYTE PTR __k$[ebp+8], -19 ; ffffffedH
  00181	eb 2d		 jmp	 SHORT $LN1@LoadFloat_@3
$LN89@LoadFloat_@3:
  00183	c6 45 ef ea	 mov	 BYTE PTR __k$[ebp+7], -22 ; ffffffeaH
  00187	eb 27		 jmp	 SHORT $LN1@LoadFloat_@3
$LN90@LoadFloat_@3:
  00189	88 4d ee	 mov	 BYTE PTR __k$[ebp+6], cl
  0018c	eb 22		 jmp	 SHORT $LN1@LoadFloat_@3
$LN91@LoadFloat_@3:
  0018e	c6 45 ed ec	 mov	 BYTE PTR __k$[ebp+5], -20 ; ffffffecH
  00192	eb 1c		 jmp	 SHORT $LN1@LoadFloat_@3
$LN92@LoadFloat_@3:
  00194	c6 45 ec ed	 mov	 BYTE PTR __k$[ebp+4], -19 ; ffffffedH
  00198	eb 16		 jmp	 SHORT $LN1@LoadFloat_@3
$LN93@LoadFloat_@3:
  0019a	c6 45 eb ea	 mov	 BYTE PTR __k$[ebp+3], -22 ; ffffffeaH
  0019e	eb 10		 jmp	 SHORT $LN1@LoadFloat_@3
$LN94@LoadFloat_@3:
  001a0	c6 45 ea eb	 mov	 BYTE PTR __k$[ebp+2], -21 ; ffffffebH
  001a4	eb 0a		 jmp	 SHORT $LN1@LoadFloat_@3
$LN95@LoadFloat_@3:
  001a6	c6 45 e9 ec	 mov	 BYTE PTR __k$[ebp+1], -20 ; ffffffecH
  001aa	eb 04		 jmp	 SHORT $LN1@LoadFloat_@3
$LN96@LoadFloat_@3:
  001ac	c6 45 e8 ed	 mov	 BYTE PTR __k$[ebp], -19	; ffffffedH
$LN1@LoadFloat_@3:
  001b0	6a 03		 push	 3
  001b2	8d 45 e8	 lea	 eax, DWORD PTR __k$[ebp]
  001b5	c6 45 f7 00	 mov	 BYTE PTR __k$[ebp+15], 0
  001b9	5a		 pop	 edx
$LL104@LoadFloat_@3:
  001ba	81 30 ed ec eb
	ea		 xor	 DWORD PTR [eax], -353637139 ; eaebecedH
  001c0	83 c0 04	 add	 eax, 4
  001c3	4a		 dec	 edx
  001c4	75 f4		 jne	 SHORT $LL104@LoadFloat_@3
  001c6	6a 0c		 push	 12			; 0000000cH
  001c8	58		 pop	 eax
$LL101@LoadFloat_@3:
  001c9	8b c8		 mov	 ecx, eax
  001cb	81 e1 03 00 00
	80		 and	 ecx, -2147483645	; 80000003H
  001d1	79 05		 jns	 SHORT $LN111@LoadFloat_@3
  001d3	49		 dec	 ecx
  001d4	83 c9 fc	 or	 ecx, -4			; fffffffcH
  001d7	41		 inc	 ecx
$LN111@LoadFloat_@3:
  001d8	b2 ed		 mov	 dl, -19			; ffffffedH
  001da	2a d1		 sub	 dl, cl
  001dc	30 54 05 e8	 xor	 BYTE PTR __k$[ebp+eax], dl
  001e0	40		 inc	 eax
  001e1	83 f8 0f	 cmp	 eax, 15			; 0000000fH
  001e4	7c e3		 jl	 SHORT $LL101@LoadFloat_@3

; 137  : 		return LoadFloat(_k, f);

  001e6	f3 0f 10 45 0c	 movss	 xmm0, DWORD PTR _f$[ebp]
  001eb	51		 push	 ecx
  001ec	8d 45 e8	 lea	 eax, DWORD PTR __k$[ebp]
  001ef	f3 0f 11 04 24	 movss	 DWORD PTR [esp], xmm0
  001f4	50		 push	 eax
  001f5	8b ce		 mov	 ecx, esi
  001f7	ff 15 00 00 00
	00		 call	 DWORD PTR __imp_?LoadFloat@ioINILoader@@QAEMPBDM@Z

; 138  : 	}

  001fd	8b 4d fc	 mov	 ecx, DWORD PTR __$ArrayPad$[ebp]
  00200	33 cd		 xor	 ecx, ebp
  00202	5e		 pop	 esi
  00203	e8 00 00 00 00	 call	 @__security_check_cookie@4
  00208	c9		 leave
  00209	c2 08 00	 ret	 8
??$LoadFloat_e@$0BA@@ioINILoader@@QAEMAAY0BA@$$CBDM@Z ENDP ; ioINILoader::LoadFloat_e<16>
_TEXT	ENDS
PUBLIC	__$ArrayPad$
PUBLIC	??$LoadFloat_e@$0BG@@ioINILoader@@QAEMAAY0BG@$$CBDM@Z ; ioINILoader::LoadFloat_e<22>
; Function compile flags: /Ogsp
;	COMDAT ??$LoadFloat_e@$0BG@@ioINILoader@@QAEMAAY0BG@$$CBDM@Z
_TEXT	SEGMENT
__k$ = -32						; size = 22
__$ArrayPad$ = -4					; size = 4
_k$ = 8							; size = 4
_f$ = 12						; size = 4
??$LoadFloat_e@$0BG@@ioINILoader@@QAEMAAY0BG@$$CBDM@Z PROC ; ioINILoader::LoadFloat_e<22>, COMDAT
; _this$ = ecx

; 135  : 	{

  00000	55		 push	 ebp
  00001	8b ec		 mov	 ebp, esp
  00003	83 ec 20	 sub	 esp, 32			; 00000020H
  00006	a1 00 00 00 00	 mov	 eax, DWORD PTR ___security_cookie
  0000b	33 c5		 xor	 eax, ebp
  0000d	89 45 fc	 mov	 DWORD PTR __$ArrayPad$[ebp], eax
  00010	8b 45 08	 mov	 eax, DWORD PTR _k$[ebp]

; 136  : 		_ENCSTR(k, _k);

  00013	8a 10		 mov	 dl, BYTE PTR [eax]
  00015	53		 push	 ebx
  00016	56		 push	 esi
  00017	8b f1		 mov	 esi, ecx
  00019	84 d2		 test	 dl, dl
  0001b	0f 84 15 02 00
	00		 je	 $LN96@LoadFloat_@4
  00021	80 f2 ed	 xor	 dl, -19			; ffffffedH
  00024	88 55 e0	 mov	 BYTE PTR __k$[ebp], dl
  00027	8a 50 01	 mov	 dl, BYTE PTR [eax+1]
  0002a	84 d2		 test	 dl, dl
  0002c	0f 84 fe 01 00
	00		 je	 $LN95@LoadFloat_@4
  00032	80 f2 ec	 xor	 dl, -20			; ffffffecH
  00035	88 55 e1	 mov	 BYTE PTR __k$[ebp+1], dl
  00038	8a 50 02	 mov	 dl, BYTE PTR [eax+2]
  0003b	84 d2		 test	 dl, dl
  0003d	0f 84 e7 01 00
	00		 je	 $LN94@LoadFloat_@4
  00043	b1 eb		 mov	 cl, -21			; ffffffebH
  00045	32 d1		 xor	 dl, cl
  00047	88 55 e2	 mov	 BYTE PTR __k$[ebp+2], dl
  0004a	8a 50 03	 mov	 dl, BYTE PTR [eax+3]
  0004d	84 d2		 test	 dl, dl
  0004f	0f 84 cf 01 00
	00		 je	 $LN93@LoadFloat_@4
  00055	b3 ea		 mov	 bl, -22			; ffffffeaH
  00057	32 d3		 xor	 dl, bl
  00059	88 55 e3	 mov	 BYTE PTR __k$[ebp+3], dl
  0005c	8a 50 04	 mov	 dl, BYTE PTR [eax+4]
  0005f	84 d2		 test	 dl, dl
  00061	0f 84 b7 01 00
	00		 je	 $LN92@LoadFloat_@4
  00067	80 f2 ed	 xor	 dl, -19			; ffffffedH
  0006a	88 55 e4	 mov	 BYTE PTR __k$[ebp+4], dl
  0006d	8a 50 05	 mov	 dl, BYTE PTR [eax+5]
  00070	84 d2		 test	 dl, dl
  00072	0f 84 a0 01 00
	00		 je	 $LN91@LoadFloat_@4
  00078	80 f2 ec	 xor	 dl, -20			; ffffffecH
  0007b	88 55 e5	 mov	 BYTE PTR __k$[ebp+5], dl
  0007e	8a 50 06	 mov	 dl, BYTE PTR [eax+6]
  00081	84 d2		 test	 dl, dl
  00083	0f 84 8a 01 00
	00		 je	 $LN90@LoadFloat_@4
  00089	32 d1		 xor	 dl, cl
  0008b	88 55 e6	 mov	 BYTE PTR __k$[ebp+6], dl
  0008e	8a 50 07	 mov	 dl, BYTE PTR [eax+7]
  00091	84 d2		 test	 dl, dl
  00093	0f 84 75 01 00
	00		 je	 $LN89@LoadFloat_@4
  00099	32 d3		 xor	 dl, bl
  0009b	88 55 e7	 mov	 BYTE PTR __k$[ebp+7], dl
  0009e	8a 50 08	 mov	 dl, BYTE PTR [eax+8]
  000a1	84 d2		 test	 dl, dl
  000a3	0f 84 5f 01 00
	00		 je	 $LN88@LoadFloat_@4
  000a9	80 f2 ed	 xor	 dl, -19			; ffffffedH
  000ac	88 55 e8	 mov	 BYTE PTR __k$[ebp+8], dl
  000af	8a 50 09	 mov	 dl, BYTE PTR [eax+9]
  000b2	84 d2		 test	 dl, dl
  000b4	0f 84 48 01 00
	00		 je	 $LN87@LoadFloat_@4
  000ba	80 f2 ec	 xor	 dl, -20			; ffffffecH
  000bd	88 55 e9	 mov	 BYTE PTR __k$[ebp+9], dl
  000c0	8a 50 0a	 mov	 dl, BYTE PTR [eax+10]
  000c3	84 d2		 test	 dl, dl
  000c5	0f 84 32 01 00
	00		 je	 $LN86@LoadFloat_@4
  000cb	32 d1		 xor	 dl, cl
  000cd	88 55 ea	 mov	 BYTE PTR __k$[ebp+10], dl
  000d0	8a 50 0b	 mov	 dl, BYTE PTR [eax+11]
  000d3	84 d2		 test	 dl, dl
  000d5	0f 84 1d 01 00
	00		 je	 $LN85@LoadFloat_@4
  000db	32 d3		 xor	 dl, bl
  000dd	88 55 eb	 mov	 BYTE PTR __k$[ebp+11], dl
  000e0	8a 50 0c	 mov	 dl, BYTE PTR [eax+12]
  000e3	84 d2		 test	 dl, dl
  000e5	0f 84 07 01 00
	00		 je	 $LN84@LoadFloat_@4
  000eb	80 f2 ed	 xor	 dl, -19			; ffffffedH
  000ee	88 55 ec	 mov	 BYTE PTR __k$[ebp+12], dl
  000f1	8a 50 0d	 mov	 dl, BYTE PTR [eax+13]
  000f4	84 d2		 test	 dl, dl
  000f6	0f 84 f0 00 00
	00		 je	 $LN83@LoadFloat_@4
  000fc	80 f2 ec	 xor	 dl, -20			; ffffffecH
  000ff	88 55 ed	 mov	 BYTE PTR __k$[ebp+13], dl
  00102	8a 50 0e	 mov	 dl, BYTE PTR [eax+14]
  00105	84 d2		 test	 dl, dl
  00107	0f 84 da 00 00
	00		 je	 $LN82@LoadFloat_@4
  0010d	32 d1		 xor	 dl, cl
  0010f	88 55 ee	 mov	 BYTE PTR __k$[ebp+14], dl
  00112	8a 50 0f	 mov	 dl, BYTE PTR [eax+15]
  00115	84 d2		 test	 dl, dl
  00117	0f 84 c5 00 00
	00		 je	 $LN81@LoadFloat_@4
  0011d	32 d3		 xor	 dl, bl
  0011f	88 55 ef	 mov	 BYTE PTR __k$[ebp+15], dl
  00122	8a 50 10	 mov	 dl, BYTE PTR [eax+16]
  00125	84 d2		 test	 dl, dl
  00127	0f 84 af 00 00
	00		 je	 $LN80@LoadFloat_@4
  0012d	80 f2 ed	 xor	 dl, -19			; ffffffedH
  00130	88 55 f0	 mov	 BYTE PTR __k$[ebp+16], dl
  00133	8a 50 11	 mov	 dl, BYTE PTR [eax+17]
  00136	84 d2		 test	 dl, dl
  00138	0f 84 98 00 00
	00		 je	 $LN79@LoadFloat_@4
  0013e	80 f2 ec	 xor	 dl, -20			; ffffffecH
  00141	88 55 f1	 mov	 BYTE PTR __k$[ebp+17], dl
  00144	8a 50 12	 mov	 dl, BYTE PTR [eax+18]
  00147	84 d2		 test	 dl, dl
  00149	0f 84 82 00 00
	00		 je	 $LN78@LoadFloat_@4
  0014f	32 d1		 xor	 dl, cl
  00151	88 55 f2	 mov	 BYTE PTR __k$[ebp+18], dl
  00154	8a 50 13	 mov	 dl, BYTE PTR [eax+19]
  00157	84 d2		 test	 dl, dl
  00159	74 71		 je	 SHORT $LN77@LoadFloat_@4
  0015b	32 d3		 xor	 dl, bl
  0015d	88 55 f3	 mov	 BYTE PTR __k$[ebp+19], dl
  00160	8a 50 14	 mov	 dl, BYTE PTR [eax+20]
  00163	84 d2		 test	 dl, dl
  00165	74 5f		 je	 SHORT $LN76@LoadFloat_@4
  00167	80 f2 ed	 xor	 dl, -19			; ffffffedH
  0016a	80 78 15 00	 cmp	 BYTE PTR [eax+21], 0
  0016e	88 55 f4	 mov	 BYTE PTR __k$[ebp+20], dl
  00171	0f 84 c3 00 00
	00		 je	 $LN1@LoadFloat_@4
  00177	8a 50 16	 mov	 dl, BYTE PTR [eax+22]
  0017a	84 d2		 test	 dl, dl
  0017c	74 43		 je	 SHORT $LN74@LoadFloat_@4
  0017e	32 d1		 xor	 dl, cl
  00180	88 55 f6	 mov	 BYTE PTR __k$[ebp+22], dl
  00183	8a 50 17	 mov	 dl, BYTE PTR [eax+23]
  00186	84 d2		 test	 dl, dl
  00188	74 32		 je	 SHORT $LN73@LoadFloat_@4
  0018a	32 d3		 xor	 dl, bl
  0018c	88 55 f7	 mov	 BYTE PTR __k$[ebp+23], dl
  0018f	8a 50 18	 mov	 dl, BYTE PTR [eax+24]
  00192	84 d2		 test	 dl, dl
  00194	74 20		 je	 SHORT $LN72@LoadFloat_@4
  00196	8a 40 19	 mov	 al, BYTE PTR [eax+25]
  00199	80 f2 ed	 xor	 dl, -19			; ffffffedH
  0019c	88 55 f8	 mov	 BYTE PTR __k$[ebp+24], dl
  0019f	84 c0		 test	 al, al
  001a1	74 0a		 je	 SHORT $LN71@LoadFloat_@4
  001a3	34 ec		 xor	 al, -20			; ffffffecH
  001a5	88 45 f9	 mov	 BYTE PTR __k$[ebp+25], al
  001a8	e9 8d 00 00 00	 jmp	 $LN1@LoadFloat_@4
$LN71@LoadFloat_@4:
  001ad	c6 45 f9 ec	 mov	 BYTE PTR __k$[ebp+25], -20 ; ffffffecH
  001b1	e9 84 00 00 00	 jmp	 $LN1@LoadFloat_@4
$LN72@LoadFloat_@4:
  001b6	c6 45 f8 ed	 mov	 BYTE PTR __k$[ebp+24], -19 ; ffffffedH
  001ba	eb 7e		 jmp	 SHORT $LN1@LoadFloat_@4
$LN73@LoadFloat_@4:
  001bc	88 5d f7	 mov	 BYTE PTR __k$[ebp+23], bl
  001bf	eb 79		 jmp	 SHORT $LN1@LoadFloat_@4
$LN74@LoadFloat_@4:
  001c1	88 4d f6	 mov	 BYTE PTR __k$[ebp+22], cl
  001c4	eb 74		 jmp	 SHORT $LN1@LoadFloat_@4
$LN76@LoadFloat_@4:
  001c6	c6 45 f4 ed	 mov	 BYTE PTR __k$[ebp+20], -19 ; ffffffedH
  001ca	eb 6e		 jmp	 SHORT $LN1@LoadFloat_@4
$LN77@LoadFloat_@4:
  001cc	88 5d f3	 mov	 BYTE PTR __k$[ebp+19], bl
  001cf	eb 69		 jmp	 SHORT $LN1@LoadFloat_@4
$LN78@LoadFloat_@4:
  001d1	88 4d f2	 mov	 BYTE PTR __k$[ebp+18], cl
  001d4	eb 64		 jmp	 SHORT $LN1@LoadFloat_@4
$LN79@LoadFloat_@4:
  001d6	c6 45 f1 ec	 mov	 BYTE PTR __k$[ebp+17], -20 ; ffffffecH
  001da	eb 5e		 jmp	 SHORT $LN1@LoadFloat_@4
$LN80@LoadFloat_@4:
  001dc	c6 45 f0 ed	 mov	 BYTE PTR __k$[ebp+16], -19 ; ffffffedH
  001e0	eb 58		 jmp	 SHORT $LN1@LoadFloat_@4
$LN81@LoadFloat_@4:
  001e2	88 5d ef	 mov	 BYTE PTR __k$[ebp+15], bl
  001e5	eb 53		 jmp	 SHORT $LN1@LoadFloat_@4
$LN82@LoadFloat_@4:
  001e7	88 4d ee	 mov	 BYTE PTR __k$[ebp+14], cl
  001ea	eb 4e		 jmp	 SHORT $LN1@LoadFloat_@4
$LN83@LoadFloat_@4:
  001ec	c6 45 ed ec	 mov	 BYTE PTR __k$[ebp+13], -20 ; ffffffecH
  001f0	eb 48		 jmp	 SHORT $LN1@LoadFloat_@4
$LN84@LoadFloat_@4:
  001f2	c6 45 ec ed	 mov	 BYTE PTR __k$[ebp+12], -19 ; ffffffedH
  001f6	eb 42		 jmp	 SHORT $LN1@LoadFloat_@4
$LN85@LoadFloat_@4:
  001f8	88 5d eb	 mov	 BYTE PTR __k$[ebp+11], bl
  001fb	eb 3d		 jmp	 SHORT $LN1@LoadFloat_@4
$LN86@LoadFloat_@4:
  001fd	88 4d ea	 mov	 BYTE PTR __k$[ebp+10], cl
  00200	eb 38		 jmp	 SHORT $LN1@LoadFloat_@4
$LN87@LoadFloat_@4:
  00202	c6 45 e9 ec	 mov	 BYTE PTR __k$[ebp+9], -20 ; ffffffecH
  00206	eb 32		 jmp	 SHORT $LN1@LoadFloat_@4
$LN88@LoadFloat_@4:
  00208	c6 45 e8 ed	 mov	 BYTE PTR __k$[ebp+8], -19 ; ffffffedH
  0020c	eb 2c		 jmp	 SHORT $LN1@LoadFloat_@4
$LN89@LoadFloat_@4:
  0020e	88 5d e7	 mov	 BYTE PTR __k$[ebp+7], bl
  00211	eb 27		 jmp	 SHORT $LN1@LoadFloat_@4
$LN90@LoadFloat_@4:
  00213	88 4d e6	 mov	 BYTE PTR __k$[ebp+6], cl
  00216	eb 22		 jmp	 SHORT $LN1@LoadFloat_@4
$LN91@LoadFloat_@4:
  00218	c6 45 e5 ec	 mov	 BYTE PTR __k$[ebp+5], -20 ; ffffffecH
  0021c	eb 1c		 jmp	 SHORT $LN1@LoadFloat_@4
$LN92@LoadFloat_@4:
  0021e	c6 45 e4 ed	 mov	 BYTE PTR __k$[ebp+4], -19 ; ffffffedH
  00222	eb 16		 jmp	 SHORT $LN1@LoadFloat_@4
$LN93@LoadFloat_@4:
  00224	c6 45 e3 ea	 mov	 BYTE PTR __k$[ebp+3], -22 ; ffffffeaH
  00228	eb 10		 jmp	 SHORT $LN1@LoadFloat_@4
$LN94@LoadFloat_@4:
  0022a	c6 45 e2 eb	 mov	 BYTE PTR __k$[ebp+2], -21 ; ffffffebH
  0022e	eb 0a		 jmp	 SHORT $LN1@LoadFloat_@4
$LN95@LoadFloat_@4:
  00230	c6 45 e1 ec	 mov	 BYTE PTR __k$[ebp+1], -20 ; ffffffecH
  00234	eb 04		 jmp	 SHORT $LN1@LoadFloat_@4
$LN96@LoadFloat_@4:
  00236	c6 45 e0 ed	 mov	 BYTE PTR __k$[ebp], -19	; ffffffedH
$LN1@LoadFloat_@4:
  0023a	6a 05		 push	 5
  0023c	8d 45 e0	 lea	 eax, DWORD PTR __k$[ebp]
  0023f	c6 45 f5 00	 mov	 BYTE PTR __k$[ebp+21], 0
  00243	5a		 pop	 edx
$LL104@LoadFloat_@4:
  00244	81 30 ed ec eb
	ea		 xor	 DWORD PTR [eax], -353637139 ; eaebecedH
  0024a	83 c0 04	 add	 eax, 4
  0024d	4a		 dec	 edx
  0024e	75 f4		 jne	 SHORT $LL104@LoadFloat_@4

; 137  : 		return LoadFloat(_k, f);

  00250	f3 0f 10 45 0c	 movss	 xmm0, DWORD PTR _f$[ebp]
  00255	80 75 f4 ed	 xor	 BYTE PTR __k$[ebp+20], -19 ; ffffffedH
  00259	51		 push	 ecx
  0025a	8d 45 e0	 lea	 eax, DWORD PTR __k$[ebp]
  0025d	f3 0f 11 04 24	 movss	 DWORD PTR [esp], xmm0
  00262	50		 push	 eax
  00263	8b ce		 mov	 ecx, esi
  00265	ff 15 00 00 00
	00		 call	 DWORD PTR __imp_?LoadFloat@ioINILoader@@QAEMPBDM@Z

; 138  : 	}

  0026b	8b 4d fc	 mov	 ecx, DWORD PTR __$ArrayPad$[ebp]
  0026e	5e		 pop	 esi
  0026f	33 cd		 xor	 ecx, ebp
  00271	5b		 pop	 ebx
  00272	e8 00 00 00 00	 call	 @__security_check_cookie@4
  00277	c9		 leave
  00278	c2 08 00	 ret	 8
??$LoadFloat_e@$0BG@@ioINILoader@@QAEMAAY0BG@$$CBDM@Z ENDP ; ioINILoader::LoadFloat_e<22>
_TEXT	ENDS
PUBLIC	__$ArrayPad$
PUBLIC	??$LoadFloat_e@$0BL@@ioINILoader@@QAEMAAY0BL@$$CBDM@Z ; ioINILoader::LoadFloat_e<27>
; Function compile flags: /Ogsp
;	COMDAT ??$LoadFloat_e@$0BL@@ioINILoader@@QAEMAAY0BL@$$CBDM@Z
_TEXT	SEGMENT
__k$ = -36						; size = 27
__$ArrayPad$ = -4					; size = 4
_k$ = 8							; size = 4
_f$ = 12						; size = 4
??$LoadFloat_e@$0BL@@ioINILoader@@QAEMAAY0BL@$$CBDM@Z PROC ; ioINILoader::LoadFloat_e<27>, COMDAT
; _this$ = ecx

; 135  : 	{

  00000	55		 push	 ebp
  00001	8b ec		 mov	 ebp, esp
  00003	83 ec 24	 sub	 esp, 36			; 00000024H
  00006	a1 00 00 00 00	 mov	 eax, DWORD PTR ___security_cookie
  0000b	33 c5		 xor	 eax, ebp
  0000d	89 45 fc	 mov	 DWORD PTR __$ArrayPad$[ebp], eax
  00010	8b 45 08	 mov	 eax, DWORD PTR _k$[ebp]

; 136  : 		_ENCSTR(k, _k);

  00013	8a 10		 mov	 dl, BYTE PTR [eax]
  00015	53		 push	 ebx
  00016	56		 push	 esi
  00017	8b f1		 mov	 esi, ecx
  00019	84 d2		 test	 dl, dl
  0001b	0f 84 91 02 00
	00		 je	 $LN96@LoadFloat_@5
  00021	80 f2 ed	 xor	 dl, -19			; ffffffedH
  00024	88 55 dc	 mov	 BYTE PTR __k$[ebp], dl
  00027	8a 50 01	 mov	 dl, BYTE PTR [eax+1]
  0002a	84 d2		 test	 dl, dl
  0002c	0f 84 7a 02 00
	00		 je	 $LN95@LoadFloat_@5
  00032	b1 ec		 mov	 cl, -20			; ffffffecH
  00034	32 d1		 xor	 dl, cl
  00036	88 55 dd	 mov	 BYTE PTR __k$[ebp+1], dl
  00039	8a 50 02	 mov	 dl, BYTE PTR [eax+2]
  0003c	84 d2		 test	 dl, dl
  0003e	0f 84 62 02 00
	00		 je	 $LN94@LoadFloat_@5
  00044	80 f2 eb	 xor	 dl, -21			; ffffffebH
  00047	88 55 de	 mov	 BYTE PTR __k$[ebp+2], dl
  0004a	8a 50 03	 mov	 dl, BYTE PTR [eax+3]
  0004d	84 d2		 test	 dl, dl
  0004f	0f 84 4b 02 00
	00		 je	 $LN93@LoadFloat_@5
  00055	b3 ea		 mov	 bl, -22			; ffffffeaH
  00057	32 d3		 xor	 dl, bl
  00059	88 55 df	 mov	 BYTE PTR __k$[ebp+3], dl
  0005c	8a 50 04	 mov	 dl, BYTE PTR [eax+4]
  0005f	84 d2		 test	 dl, dl
  00061	0f 84 33 02 00
	00		 je	 $LN92@LoadFloat_@5
  00067	80 f2 ed	 xor	 dl, -19			; ffffffedH
  0006a	88 55 e0	 mov	 BYTE PTR __k$[ebp+4], dl
  0006d	8a 50 05	 mov	 dl, BYTE PTR [eax+5]
  00070	84 d2		 test	 dl, dl
  00072	0f 84 1d 02 00
	00		 je	 $LN91@LoadFloat_@5
  00078	32 d1		 xor	 dl, cl
  0007a	88 55 e1	 mov	 BYTE PTR __k$[ebp+5], dl
  0007d	8a 50 06	 mov	 dl, BYTE PTR [eax+6]
  00080	84 d2		 test	 dl, dl
  00082	0f 84 07 02 00
	00		 je	 $LN90@LoadFloat_@5
  00088	80 f2 eb	 xor	 dl, -21			; ffffffebH
  0008b	88 55 e2	 mov	 BYTE PTR __k$[ebp+6], dl
  0008e	8a 50 07	 mov	 dl, BYTE PTR [eax+7]
  00091	84 d2		 test	 dl, dl
  00093	0f 84 f1 01 00
	00		 je	 $LN89@LoadFloat_@5
  00099	32 d3		 xor	 dl, bl
  0009b	88 55 e3	 mov	 BYTE PTR __k$[ebp+7], dl
  0009e	8a 50 08	 mov	 dl, BYTE PTR [eax+8]
  000a1	84 d2		 test	 dl, dl
  000a3	0f 84 db 01 00
	00		 je	 $LN88@LoadFloat_@5
  000a9	80 f2 ed	 xor	 dl, -19			; ffffffedH
  000ac	88 55 e4	 mov	 BYTE PTR __k$[ebp+8], dl
  000af	8a 50 09	 mov	 dl, BYTE PTR [eax+9]
  000b2	84 d2		 test	 dl, dl
  000b4	0f 84 c5 01 00
	00		 je	 $LN87@LoadFloat_@5
  000ba	32 d1		 xor	 dl, cl
  000bc	88 55 e5	 mov	 BYTE PTR __k$[ebp+9], dl
  000bf	8a 50 0a	 mov	 dl, BYTE PTR [eax+10]
  000c2	84 d2		 test	 dl, dl
  000c4	0f 84 af 01 00
	00		 je	 $LN86@LoadFloat_@5
  000ca	80 f2 eb	 xor	 dl, -21			; ffffffebH
  000cd	88 55 e6	 mov	 BYTE PTR __k$[ebp+10], dl
  000d0	8a 50 0b	 mov	 dl, BYTE PTR [eax+11]
  000d3	84 d2		 test	 dl, dl
  000d5	0f 84 99 01 00
	00		 je	 $LN85@LoadFloat_@5
  000db	32 d3		 xor	 dl, bl
  000dd	88 55 e7	 mov	 BYTE PTR __k$[ebp+11], dl
  000e0	8a 50 0c	 mov	 dl, BYTE PTR [eax+12]
  000e3	84 d2		 test	 dl, dl
  000e5	0f 84 83 01 00
	00		 je	 $LN84@LoadFloat_@5
  000eb	80 f2 ed	 xor	 dl, -19			; ffffffedH
  000ee	88 55 e8	 mov	 BYTE PTR __k$[ebp+12], dl
  000f1	8a 50 0d	 mov	 dl, BYTE PTR [eax+13]
  000f4	84 d2		 test	 dl, dl
  000f6	0f 84 6d 01 00
	00		 je	 $LN83@LoadFloat_@5
  000fc	32 d1		 xor	 dl, cl
  000fe	88 55 e9	 mov	 BYTE PTR __k$[ebp+13], dl
  00101	8a 50 0e	 mov	 dl, BYTE PTR [eax+14]
  00104	84 d2		 test	 dl, dl
  00106	0f 84 57 01 00
	00		 je	 $LN82@LoadFloat_@5
  0010c	80 f2 eb	 xor	 dl, -21			; ffffffebH
  0010f	88 55 ea	 mov	 BYTE PTR __k$[ebp+14], dl
  00112	8a 50 0f	 mov	 dl, BYTE PTR [eax+15]
  00115	84 d2		 test	 dl, dl
  00117	0f 84 41 01 00
	00		 je	 $LN81@LoadFloat_@5
  0011d	32 d3		 xor	 dl, bl
  0011f	88 55 eb	 mov	 BYTE PTR __k$[ebp+15], dl
  00122	8a 50 10	 mov	 dl, BYTE PTR [eax+16]
  00125	84 d2		 test	 dl, dl
  00127	0f 84 2b 01 00
	00		 je	 $LN80@LoadFloat_@5
  0012d	80 f2 ed	 xor	 dl, -19			; ffffffedH
  00130	88 55 ec	 mov	 BYTE PTR __k$[ebp+16], dl
  00133	8a 50 11	 mov	 dl, BYTE PTR [eax+17]
  00136	84 d2		 test	 dl, dl
  00138	0f 84 15 01 00
	00		 je	 $LN79@LoadFloat_@5
  0013e	32 d1		 xor	 dl, cl
  00140	88 55 ed	 mov	 BYTE PTR __k$[ebp+17], dl
  00143	8a 50 12	 mov	 dl, BYTE PTR [eax+18]
  00146	84 d2		 test	 dl, dl
  00148	0f 84 ff 00 00
	00		 je	 $LN78@LoadFloat_@5
  0014e	80 f2 eb	 xor	 dl, -21			; ffffffebH
  00151	88 55 ee	 mov	 BYTE PTR __k$[ebp+18], dl
  00154	8a 50 13	 mov	 dl, BYTE PTR [eax+19]
  00157	84 d2		 test	 dl, dl
  00159	0f 84 e9 00 00
	00		 je	 $LN77@LoadFloat_@5
  0015f	32 d3		 xor	 dl, bl
  00161	88 55 ef	 mov	 BYTE PTR __k$[ebp+19], dl
  00164	8a 50 14	 mov	 dl, BYTE PTR [eax+20]
  00167	84 d2		 test	 dl, dl
  00169	0f 84 d3 00 00
	00		 je	 $LN76@LoadFloat_@5
  0016f	80 f2 ed	 xor	 dl, -19			; ffffffedH
  00172	88 55 f0	 mov	 BYTE PTR __k$[ebp+20], dl
  00175	8a 50 15	 mov	 dl, BYTE PTR [eax+21]
  00178	84 d2		 test	 dl, dl
  0017a	0f 84 bd 00 00
	00		 je	 $LN75@LoadFloat_@5
  00180	32 d1		 xor	 dl, cl
  00182	88 55 f1	 mov	 BYTE PTR __k$[ebp+21], dl
  00185	8a 50 16	 mov	 dl, BYTE PTR [eax+22]
  00188	84 d2		 test	 dl, dl
  0018a	0f 84 a7 00 00
	00		 je	 $LN74@LoadFloat_@5
  00190	80 f2 eb	 xor	 dl, -21			; ffffffebH
  00193	88 55 f2	 mov	 BYTE PTR __k$[ebp+22], dl
  00196	8a 50 17	 mov	 dl, BYTE PTR [eax+23]
  00199	84 d2		 test	 dl, dl
  0019b	0f 84 91 00 00
	00		 je	 $LN73@LoadFloat_@5
  001a1	32 d3		 xor	 dl, bl
  001a3	88 55 f3	 mov	 BYTE PTR __k$[ebp+23], dl
  001a6	8a 50 18	 mov	 dl, BYTE PTR [eax+24]
  001a9	84 d2		 test	 dl, dl
  001ab	74 7c		 je	 SHORT $LN72@LoadFloat_@5
  001ad	80 f2 ed	 xor	 dl, -19			; ffffffedH
  001b0	88 55 f4	 mov	 BYTE PTR __k$[ebp+24], dl
  001b3	8a 50 19	 mov	 dl, BYTE PTR [eax+25]
  001b6	84 d2		 test	 dl, dl
  001b8	74 67		 je	 SHORT $LN71@LoadFloat_@5
  001ba	32 d1		 xor	 dl, cl
  001bc	80 78 1a 00	 cmp	 BYTE PTR [eax+26], 0
  001c0	88 55 f5	 mov	 BYTE PTR __k$[ebp+25], dl
  001c3	0f 84 ed 00 00
	00		 je	 $LN1@LoadFloat_@5
  001c9	8a 50 1b	 mov	 dl, BYTE PTR [eax+27]
  001cc	84 d2		 test	 dl, dl
  001ce	74 49		 je	 SHORT $LN69@LoadFloat_@5
  001d0	32 d3		 xor	 dl, bl
  001d2	88 55 f7	 mov	 BYTE PTR __k$[ebp+27], dl
  001d5	8a 50 1c	 mov	 dl, BYTE PTR [eax+28]
  001d8	84 d2		 test	 dl, dl
  001da	74 34		 je	 SHORT $LN68@LoadFloat_@5
  001dc	80 f2 ed	 xor	 dl, -19			; ffffffedH
  001df	88 55 f8	 mov	 BYTE PTR __k$[ebp+28], dl
  001e2	8a 50 1d	 mov	 dl, BYTE PTR [eax+29]
  001e5	84 d2		 test	 dl, dl
  001e7	74 1f		 je	 SHORT $LN67@LoadFloat_@5
  001e9	8a 40 1e	 mov	 al, BYTE PTR [eax+30]
  001ec	32 d1		 xor	 dl, cl
  001ee	88 55 f9	 mov	 BYTE PTR __k$[ebp+29], dl
  001f1	84 c0		 test	 al, al
  001f3	74 0a		 je	 SHORT $LN66@LoadFloat_@5
  001f5	34 eb		 xor	 al, -21			; ffffffebH
  001f7	88 45 fa	 mov	 BYTE PTR __k$[ebp+30], al
  001fa	e9 b7 00 00 00	 jmp	 $LN1@LoadFloat_@5
$LN66@LoadFloat_@5:
  001ff	c6 45 fa eb	 mov	 BYTE PTR __k$[ebp+30], -21 ; ffffffebH
  00203	e9 ae 00 00 00	 jmp	 $LN1@LoadFloat_@5
$LN67@LoadFloat_@5:
  00208	88 4d f9	 mov	 BYTE PTR __k$[ebp+29], cl
  0020b	e9 a6 00 00 00	 jmp	 $LN1@LoadFloat_@5
$LN68@LoadFloat_@5:
  00210	c6 45 f8 ed	 mov	 BYTE PTR __k$[ebp+28], -19 ; ffffffedH
  00214	e9 9d 00 00 00	 jmp	 $LN1@LoadFloat_@5
$LN69@LoadFloat_@5:
  00219	88 5d f7	 mov	 BYTE PTR __k$[ebp+27], bl
  0021c	e9 95 00 00 00	 jmp	 $LN1@LoadFloat_@5
$LN71@LoadFloat_@5:
  00221	88 4d f5	 mov	 BYTE PTR __k$[ebp+25], cl
  00224	e9 8d 00 00 00	 jmp	 $LN1@LoadFloat_@5
$LN72@LoadFloat_@5:
  00229	c6 45 f4 ed	 mov	 BYTE PTR __k$[ebp+24], -19 ; ffffffedH
  0022d	e9 84 00 00 00	 jmp	 $LN1@LoadFloat_@5
$LN73@LoadFloat_@5:
  00232	88 5d f3	 mov	 BYTE PTR __k$[ebp+23], bl
  00235	eb 7f		 jmp	 SHORT $LN1@LoadFloat_@5
$LN74@LoadFloat_@5:
  00237	c6 45 f2 eb	 mov	 BYTE PTR __k$[ebp+22], -21 ; ffffffebH
  0023b	eb 79		 jmp	 SHORT $LN1@LoadFloat_@5
$LN75@LoadFloat_@5:
  0023d	88 4d f1	 mov	 BYTE PTR __k$[ebp+21], cl
  00240	eb 74		 jmp	 SHORT $LN1@LoadFloat_@5
$LN76@LoadFloat_@5:
  00242	c6 45 f0 ed	 mov	 BYTE PTR __k$[ebp+20], -19 ; ffffffedH
  00246	eb 6e		 jmp	 SHORT $LN1@LoadFloat_@5
$LN77@LoadFloat_@5:
  00248	88 5d ef	 mov	 BYTE PTR __k$[ebp+19], bl
  0024b	eb 69		 jmp	 SHORT $LN1@LoadFloat_@5
$LN78@LoadFloat_@5:
  0024d	c6 45 ee eb	 mov	 BYTE PTR __k$[ebp+18], -21 ; ffffffebH
  00251	eb 63		 jmp	 SHORT $LN1@LoadFloat_@5
$LN79@LoadFloat_@5:
  00253	88 4d ed	 mov	 BYTE PTR __k$[ebp+17], cl
  00256	eb 5e		 jmp	 SHORT $LN1@LoadFloat_@5
$LN80@LoadFloat_@5:
  00258	c6 45 ec ed	 mov	 BYTE PTR __k$[ebp+16], -19 ; ffffffedH
  0025c	eb 58		 jmp	 SHORT $LN1@LoadFloat_@5
$LN81@LoadFloat_@5:
  0025e	88 5d eb	 mov	 BYTE PTR __k$[ebp+15], bl
  00261	eb 53		 jmp	 SHORT $LN1@LoadFloat_@5
$LN82@LoadFloat_@5:
  00263	c6 45 ea eb	 mov	 BYTE PTR __k$[ebp+14], -21 ; ffffffebH
  00267	eb 4d		 jmp	 SHORT $LN1@LoadFloat_@5
$LN83@LoadFloat_@5:
  00269	88 4d e9	 mov	 BYTE PTR __k$[ebp+13], cl
  0026c	eb 48		 jmp	 SHORT $LN1@LoadFloat_@5
$LN84@LoadFloat_@5:
  0026e	c6 45 e8 ed	 mov	 BYTE PTR __k$[ebp+12], -19 ; ffffffedH
  00272	eb 42		 jmp	 SHORT $LN1@LoadFloat_@5
$LN85@LoadFloat_@5:
  00274	88 5d e7	 mov	 BYTE PTR __k$[ebp+11], bl
  00277	eb 3d		 jmp	 SHORT $LN1@LoadFloat_@5
$LN86@LoadFloat_@5:
  00279	c6 45 e6 eb	 mov	 BYTE PTR __k$[ebp+10], -21 ; ffffffebH
  0027d	eb 37		 jmp	 SHORT $LN1@LoadFloat_@5
$LN87@LoadFloat_@5:
  0027f	88 4d e5	 mov	 BYTE PTR __k$[ebp+9], cl
  00282	eb 32		 jmp	 SHORT $LN1@LoadFloat_@5
$LN88@LoadFloat_@5:
  00284	c6 45 e4 ed	 mov	 BYTE PTR __k$[ebp+8], -19 ; ffffffedH
  00288	eb 2c		 jmp	 SHORT $LN1@LoadFloat_@5
$LN89@LoadFloat_@5:
  0028a	88 5d e3	 mov	 BYTE PTR __k$[ebp+7], bl
  0028d	eb 27		 jmp	 SHORT $LN1@LoadFloat_@5
$LN90@LoadFloat_@5:
  0028f	c6 45 e2 eb	 mov	 BYTE PTR __k$[ebp+6], -21 ; ffffffebH
  00293	eb 21		 jmp	 SHORT $LN1@LoadFloat_@5
$LN91@LoadFloat_@5:
  00295	88 4d e1	 mov	 BYTE PTR __k$[ebp+5], cl
  00298	eb 1c		 jmp	 SHORT $LN1@LoadFloat_@5
$LN92@LoadFloat_@5:
  0029a	c6 45 e0 ed	 mov	 BYTE PTR __k$[ebp+4], -19 ; ffffffedH
  0029e	eb 16		 jmp	 SHORT $LN1@LoadFloat_@5
$LN93@LoadFloat_@5:
  002a0	c6 45 df ea	 mov	 BYTE PTR __k$[ebp+3], -22 ; ffffffeaH
  002a4	eb 10		 jmp	 SHORT $LN1@LoadFloat_@5
$LN94@LoadFloat_@5:
  002a6	c6 45 de eb	 mov	 BYTE PTR __k$[ebp+2], -21 ; ffffffebH
  002aa	eb 0a		 jmp	 SHORT $LN1@LoadFloat_@5
$LN95@LoadFloat_@5:
  002ac	c6 45 dd ec	 mov	 BYTE PTR __k$[ebp+1], -20 ; ffffffecH
  002b0	eb 04		 jmp	 SHORT $LN1@LoadFloat_@5
$LN96@LoadFloat_@5:
  002b2	c6 45 dc ed	 mov	 BYTE PTR __k$[ebp], -19	; ffffffedH
$LN1@LoadFloat_@5:
  002b6	6a 06		 push	 6
  002b8	8d 45 dc	 lea	 eax, DWORD PTR __k$[ebp]
  002bb	c6 45 f6 00	 mov	 BYTE PTR __k$[ebp+26], 0
  002bf	5a		 pop	 edx
$LL104@LoadFloat_@5:
  002c0	81 30 ed ec eb
	ea		 xor	 DWORD PTR [eax], -353637139 ; eaebecedH
  002c6	83 c0 04	 add	 eax, 4
  002c9	4a		 dec	 edx
  002ca	75 f4		 jne	 SHORT $LL104@LoadFloat_@5
  002cc	6a 18		 push	 24			; 00000018H
  002ce	58		 pop	 eax
$LL101@LoadFloat_@5:
  002cf	8b c8		 mov	 ecx, eax
  002d1	81 e1 03 00 00
	80		 and	 ecx, -2147483645	; 80000003H
  002d7	79 05		 jns	 SHORT $LN111@LoadFloat_@5
  002d9	49		 dec	 ecx
  002da	83 c9 fc	 or	 ecx, -4			; fffffffcH
  002dd	41		 inc	 ecx
$LN111@LoadFloat_@5:
  002de	b2 ed		 mov	 dl, -19			; ffffffedH
  002e0	2a d1		 sub	 dl, cl
  002e2	30 54 05 dc	 xor	 BYTE PTR __k$[ebp+eax], dl
  002e6	40		 inc	 eax
  002e7	83 f8 1a	 cmp	 eax, 26			; 0000001aH
  002ea	7c e3		 jl	 SHORT $LL101@LoadFloat_@5

; 137  : 		return LoadFloat(_k, f);

  002ec	f3 0f 10 45 0c	 movss	 xmm0, DWORD PTR _f$[ebp]
  002f1	51		 push	 ecx
  002f2	8d 45 dc	 lea	 eax, DWORD PTR __k$[ebp]
  002f5	f3 0f 11 04 24	 movss	 DWORD PTR [esp], xmm0
  002fa	50		 push	 eax
  002fb	8b ce		 mov	 ecx, esi
  002fd	ff 15 00 00 00
	00		 call	 DWORD PTR __imp_?LoadFloat@ioINILoader@@QAEMPBDM@Z

; 138  : 	}

  00303	8b 4d fc	 mov	 ecx, DWORD PTR __$ArrayPad$[ebp]
  00306	5e		 pop	 esi
  00307	33 cd		 xor	 ecx, ebp
  00309	5b		 pop	 ebx
  0030a	e8 00 00 00 00	 call	 @__security_check_cookie@4
  0030f	c9		 leave
  00310	c2 08 00	 ret	 8
??$LoadFloat_e@$0BL@@ioINILoader@@QAEMAAY0BL@$$CBDM@Z ENDP ; ioINILoader::LoadFloat_e<27>
_TEXT	ENDS
PUBLIC	_this$GSCopy$
PUBLIC	__$ArrayPad$
PUBLIC	??$LoadString_e@$0BA@@ioINILoader@@QAEXAAY0BA@$$CBDAAY00$$CBDPADH@Z ; ioINILoader::LoadString_e<16>
EXTRN	__imp_?LoadStringA@ioINILoader@@QAEXPBD0PADH@Z:PROC
; Function compile flags: /Ogsp
;	COMDAT ??$LoadString_e@$0BA@@ioINILoader@@QAEXAAY0BA@$$CBDAAY00$$CBDPADH@Z
_TEXT	SEGMENT
_this$GSCopy$ = -28					; size = 4
__k$ = -24						; size = 16
__$ArrayPad$ = -4					; size = 4
_k$ = 8							; size = 4
_d$ = 12						; size = 4
_b$ = 16						; size = 4
_i$ = 20						; size = 4
??$LoadString_e@$0BA@@ioINILoader@@QAEXAAY0BA@$$CBDAAY00$$CBDPADH@Z PROC ; ioINILoader::LoadString_e<16>, COMDAT
; _this$ = ecx

; 161  : 	{

  00000	55		 push	 ebp
  00001	8b ec		 mov	 ebp, esp
  00003	83 ec 1c	 sub	 esp, 28			; 0000001cH
  00006	a1 00 00 00 00	 mov	 eax, DWORD PTR ___security_cookie
  0000b	33 c5		 xor	 eax, ebp
  0000d	89 45 fc	 mov	 DWORD PTR __$ArrayPad$[ebp], eax
  00010	8b 45 08	 mov	 eax, DWORD PTR _k$[ebp]

; 162  : 		_ENCSTR(k, _k);

  00013	8a 10		 mov	 dl, BYTE PTR [eax]
  00015	56		 push	 esi
  00016	8b 75 0c	 mov	 esi, DWORD PTR _d$[ebp]
  00019	57		 push	 edi
  0001a	8b 7d 10	 mov	 edi, DWORD PTR _b$[ebp]
  0001d	89 4d e4	 mov	 DWORD PTR _this$GSCopy$[ebp], ecx
  00020	84 d2		 test	 dl, dl
  00022	0f 84 8c 01 00
	00		 je	 $LN96@LoadString
  00028	80 f2 ed	 xor	 dl, -19			; ffffffedH
  0002b	88 55 e8	 mov	 BYTE PTR __k$[ebp], dl
  0002e	8a 50 01	 mov	 dl, BYTE PTR [eax+1]
  00031	84 d2		 test	 dl, dl
  00033	0f 84 75 01 00
	00		 je	 $LN95@LoadString
  00039	80 f2 ec	 xor	 dl, -20			; ffffffecH
  0003c	88 55 e9	 mov	 BYTE PTR __k$[ebp+1], dl
  0003f	8a 50 02	 mov	 dl, BYTE PTR [eax+2]
  00042	84 d2		 test	 dl, dl
  00044	0f 84 5e 01 00
	00		 je	 $LN94@LoadString
  0004a	b1 eb		 mov	 cl, -21			; ffffffebH
  0004c	32 d1		 xor	 dl, cl
  0004e	88 55 ea	 mov	 BYTE PTR __k$[ebp+2], dl
  00051	8a 50 03	 mov	 dl, BYTE PTR [eax+3]
  00054	84 d2		 test	 dl, dl
  00056	0f 84 46 01 00
	00		 je	 $LN93@LoadString
  0005c	80 f2 ea	 xor	 dl, -22			; ffffffeaH
  0005f	88 55 eb	 mov	 BYTE PTR __k$[ebp+3], dl
  00062	8a 50 04	 mov	 dl, BYTE PTR [eax+4]
  00065	84 d2		 test	 dl, dl
  00067	0f 84 2f 01 00
	00		 je	 $LN92@LoadString
  0006d	80 f2 ed	 xor	 dl, -19			; ffffffedH
  00070	88 55 ec	 mov	 BYTE PTR __k$[ebp+4], dl
  00073	8a 50 05	 mov	 dl, BYTE PTR [eax+5]
  00076	84 d2		 test	 dl, dl
  00078	0f 84 18 01 00
	00		 je	 $LN91@LoadString
  0007e	80 f2 ec	 xor	 dl, -20			; ffffffecH
  00081	88 55 ed	 mov	 BYTE PTR __k$[ebp+5], dl
  00084	8a 50 06	 mov	 dl, BYTE PTR [eax+6]
  00087	84 d2		 test	 dl, dl
  00089	0f 84 02 01 00
	00		 je	 $LN90@LoadString
  0008f	32 d1		 xor	 dl, cl
  00091	88 55 ee	 mov	 BYTE PTR __k$[ebp+6], dl
  00094	8a 50 07	 mov	 dl, BYTE PTR [eax+7]
  00097	84 d2		 test	 dl, dl
  00099	0f 84 ec 00 00
	00		 je	 $LN89@LoadString
  0009f	80 f2 ea	 xor	 dl, -22			; ffffffeaH
  000a2	88 55 ef	 mov	 BYTE PTR __k$[ebp+7], dl
  000a5	8a 50 08	 mov	 dl, BYTE PTR [eax+8]
  000a8	84 d2		 test	 dl, dl
  000aa	0f 84 d5 00 00
	00		 je	 $LN88@LoadString
  000b0	80 f2 ed	 xor	 dl, -19			; ffffffedH
  000b3	88 55 f0	 mov	 BYTE PTR __k$[ebp+8], dl
  000b6	8a 50 09	 mov	 dl, BYTE PTR [eax+9]
  000b9	84 d2		 test	 dl, dl
  000bb	0f 84 be 00 00
	00		 je	 $LN87@LoadString
  000c1	80 f2 ec	 xor	 dl, -20			; ffffffecH
  000c4	88 55 f1	 mov	 BYTE PTR __k$[ebp+9], dl
  000c7	8a 50 0a	 mov	 dl, BYTE PTR [eax+10]
  000ca	84 d2		 test	 dl, dl
  000cc	0f 84 a8 00 00
	00		 je	 $LN86@LoadString
  000d2	32 d1		 xor	 dl, cl
  000d4	88 55 f2	 mov	 BYTE PTR __k$[ebp+10], dl
  000d7	8a 50 0b	 mov	 dl, BYTE PTR [eax+11]
  000da	84 d2		 test	 dl, dl
  000dc	0f 84 92 00 00
	00		 je	 $LN85@LoadString
  000e2	80 f2 ea	 xor	 dl, -22			; ffffffeaH
  000e5	88 55 f3	 mov	 BYTE PTR __k$[ebp+11], dl
  000e8	8a 50 0c	 mov	 dl, BYTE PTR [eax+12]
  000eb	84 d2		 test	 dl, dl
  000ed	74 7f		 je	 SHORT $LN84@LoadString
  000ef	80 f2 ed	 xor	 dl, -19			; ffffffedH
  000f2	88 55 f4	 mov	 BYTE PTR __k$[ebp+12], dl
  000f5	8a 50 0d	 mov	 dl, BYTE PTR [eax+13]
  000f8	84 d2		 test	 dl, dl
  000fa	74 6c		 je	 SHORT $LN83@LoadString
  000fc	80 f2 ec	 xor	 dl, -20			; ffffffecH
  000ff	88 55 f5	 mov	 BYTE PTR __k$[ebp+13], dl
  00102	8a 50 0e	 mov	 dl, BYTE PTR [eax+14]
  00105	84 d2		 test	 dl, dl
  00107	74 5a		 je	 SHORT $LN82@LoadString
  00109	32 d1		 xor	 dl, cl
  0010b	80 78 0f 00	 cmp	 BYTE PTR [eax+15], 0
  0010f	88 55 f6	 mov	 BYTE PTR __k$[ebp+14], dl
  00112	0f 84 a0 00 00
	00		 je	 $LN111@LoadString
  00118	8a 50 10	 mov	 dl, BYTE PTR [eax+16]
  0011b	84 d2		 test	 dl, dl
  0011d	74 3e		 je	 SHORT $LN80@LoadString
  0011f	80 f2 ed	 xor	 dl, -19			; ffffffedH
  00122	88 55 f8	 mov	 BYTE PTR __k$[ebp+16], dl
  00125	8a 50 11	 mov	 dl, BYTE PTR [eax+17]
  00128	84 d2		 test	 dl, dl
  0012a	74 2b		 je	 SHORT $LN79@LoadString
  0012c	80 f2 ec	 xor	 dl, -20			; ffffffecH
  0012f	88 55 f9	 mov	 BYTE PTR __k$[ebp+17], dl
  00132	8a 50 12	 mov	 dl, BYTE PTR [eax+18]
  00135	84 d2		 test	 dl, dl
  00137	74 19		 je	 SHORT $LN78@LoadString
  00139	8a 40 13	 mov	 al, BYTE PTR [eax+19]
  0013c	32 d1		 xor	 dl, cl
  0013e	88 55 fa	 mov	 BYTE PTR __k$[ebp+18], dl
  00141	84 c0		 test	 al, al
  00143	74 07		 je	 SHORT $LN77@LoadString
  00145	34 ea		 xor	 al, -22			; ffffffeaH
  00147	88 45 fb	 mov	 BYTE PTR __k$[ebp+19], al
  0014a	eb 6c		 jmp	 SHORT $LN111@LoadString
$LN77@LoadString:
  0014c	c6 45 fb ea	 mov	 BYTE PTR __k$[ebp+19], -22 ; ffffffeaH
  00150	eb 66		 jmp	 SHORT $LN111@LoadString
$LN78@LoadString:
  00152	88 4d fa	 mov	 BYTE PTR __k$[ebp+18], cl
  00155	eb 61		 jmp	 SHORT $LN111@LoadString
$LN79@LoadString:
  00157	c6 45 f9 ec	 mov	 BYTE PTR __k$[ebp+17], -20 ; ffffffecH
  0015b	eb 5b		 jmp	 SHORT $LN111@LoadString
$LN80@LoadString:
  0015d	c6 45 f8 ed	 mov	 BYTE PTR __k$[ebp+16], -19 ; ffffffedH
  00161	eb 55		 jmp	 SHORT $LN111@LoadString
$LN82@LoadString:
  00163	88 4d f6	 mov	 BYTE PTR __k$[ebp+14], cl
  00166	eb 50		 jmp	 SHORT $LN111@LoadString
$LN83@LoadString:
  00168	c6 45 f5 ec	 mov	 BYTE PTR __k$[ebp+13], -20 ; ffffffecH
  0016c	eb 4a		 jmp	 SHORT $LN111@LoadString
$LN84@LoadString:
  0016e	c6 45 f4 ed	 mov	 BYTE PTR __k$[ebp+12], -19 ; ffffffedH
  00172	eb 44		 jmp	 SHORT $LN111@LoadString
$LN85@LoadString:
  00174	c6 45 f3 ea	 mov	 BYTE PTR __k$[ebp+11], -22 ; ffffffeaH
  00178	eb 3e		 jmp	 SHORT $LN111@LoadString
$LN86@LoadString:
  0017a	88 4d f2	 mov	 BYTE PTR __k$[ebp+10], cl
  0017d	eb 39		 jmp	 SHORT $LN111@LoadString
$LN87@LoadString:
  0017f	c6 45 f1 ec	 mov	 BYTE PTR __k$[ebp+9], -20 ; ffffffecH
  00183	eb 33		 jmp	 SHORT $LN111@LoadString
$LN88@LoadString:
  00185	c6 45 f0 ed	 mov	 BYTE PTR __k$[ebp+8], -19 ; ffffffedH
  00189	eb 2d		 jmp	 SHORT $LN111@LoadString
$LN89@LoadString:
  0018b	c6 45 ef ea	 mov	 BYTE PTR __k$[ebp+7], -22 ; ffffffeaH
  0018f	eb 27		 jmp	 SHORT $LN111@LoadString
$LN90@LoadString:
  00191	88 4d ee	 mov	 BYTE PTR __k$[ebp+6], cl
  00194	eb 22		 jmp	 SHORT $LN111@LoadString
$LN91@LoadString:
  00196	c6 45 ed ec	 mov	 BYTE PTR __k$[ebp+5], -20 ; ffffffecH
  0019a	eb 1c		 jmp	 SHORT $LN111@LoadString
$LN92@LoadString:
  0019c	c6 45 ec ed	 mov	 BYTE PTR __k$[ebp+4], -19 ; ffffffedH
  001a0	eb 16		 jmp	 SHORT $LN111@LoadString
$LN93@LoadString:
  001a2	c6 45 eb ea	 mov	 BYTE PTR __k$[ebp+3], -22 ; ffffffeaH
  001a6	eb 10		 jmp	 SHORT $LN111@LoadString
$LN94@LoadString:
  001a8	c6 45 ea eb	 mov	 BYTE PTR __k$[ebp+2], -21 ; ffffffebH
  001ac	eb 0a		 jmp	 SHORT $LN111@LoadString
$LN95@LoadString:
  001ae	c6 45 e9 ec	 mov	 BYTE PTR __k$[ebp+1], -20 ; ffffffecH
  001b2	eb 04		 jmp	 SHORT $LN111@LoadString
$LN96@LoadString:
  001b4	c6 45 e8 ed	 mov	 BYTE PTR __k$[ebp], -19	; ffffffedH
$LN111@LoadString:
  001b8	6a 03		 push	 3
  001ba	8d 45 e8	 lea	 eax, DWORD PTR __k$[ebp]
  001bd	c6 45 f7 00	 mov	 BYTE PTR __k$[ebp+15], 0
  001c1	5a		 pop	 edx
$LL104@LoadString:
  001c2	81 30 ed ec eb
	ea		 xor	 DWORD PTR [eax], -353637139 ; eaebecedH
  001c8	83 c0 04	 add	 eax, 4
  001cb	4a		 dec	 edx
  001cc	75 f4		 jne	 SHORT $LL104@LoadString
  001ce	6a 0c		 push	 12			; 0000000cH
  001d0	58		 pop	 eax
$LL101@LoadString:
  001d1	8b c8		 mov	 ecx, eax
  001d3	81 e1 03 00 00
	80		 and	 ecx, -2147483645	; 80000003H
  001d9	79 05		 jns	 SHORT $LN112@LoadString
  001db	49		 dec	 ecx
  001dc	83 c9 fc	 or	 ecx, -4			; fffffffcH
  001df	41		 inc	 ecx
$LN112@LoadString:
  001e0	b2 ed		 mov	 dl, -19			; ffffffedH
  001e2	2a d1		 sub	 dl, cl
  001e4	30 54 05 e8	 xor	 BYTE PTR __k$[ebp+eax], dl
  001e8	40		 inc	 eax
  001e9	83 f8 0f	 cmp	 eax, 15			; 0000000fH
  001ec	7c e3		 jl	 SHORT $LL101@LoadString

; 163  : 		LoadString(_k, d, b, i);

  001ee	ff 75 14	 push	 DWORD PTR _i$[ebp]
  001f1	8b 4d e4	 mov	 ecx, DWORD PTR _this$GSCopy$[ebp]
  001f4	57		 push	 edi
  001f5	56		 push	 esi
  001f6	8d 45 e8	 lea	 eax, DWORD PTR __k$[ebp]
  001f9	50		 push	 eax
  001fa	ff 15 00 00 00
	00		 call	 DWORD PTR __imp_?LoadStringA@ioINILoader@@QAEXPBD0PADH@Z

; 164  : 	}

  00200	8b 4d fc	 mov	 ecx, DWORD PTR __$ArrayPad$[ebp]
  00203	5f		 pop	 edi
  00204	33 cd		 xor	 ecx, ebp
  00206	5e		 pop	 esi
  00207	e8 00 00 00 00	 call	 @__security_check_cookie@4
  0020c	c9		 leave
  0020d	c2 10 00	 ret	 16			; 00000010H
??$LoadString_e@$0BA@@ioINILoader@@QAEXAAY0BA@$$CBDAAY00$$CBDPADH@Z ENDP ; ioINILoader::LoadString_e<16>
_TEXT	ENDS
PUBLIC	_this$GSCopy$
PUBLIC	__$ArrayPad$
PUBLIC	??$LoadString_e@$0BB@@ioINILoader@@QAEXAAY0BB@$$CBDAAY00$$CBDPADH@Z ; ioINILoader::LoadString_e<17>
; Function compile flags: /Ogsp
;	COMDAT ??$LoadString_e@$0BB@@ioINILoader@@QAEXAAY0BB@$$CBDAAY00$$CBDPADH@Z
_TEXT	SEGMENT
_this$GSCopy$ = -32					; size = 4
__k$ = -28						; size = 17
__$ArrayPad$ = -4					; size = 4
_k$ = 8							; size = 4
_d$ = 12						; size = 4
_b$ = 16						; size = 4
_i$ = 20						; size = 4
??$LoadString_e@$0BB@@ioINILoader@@QAEXAAY0BB@$$CBDAAY00$$CBDPADH@Z PROC ; ioINILoader::LoadString_e<17>, COMDAT
; _this$ = ecx

; 161  : 	{

  00000	55		 push	 ebp
  00001	8b ec		 mov	 ebp, esp
  00003	83 ec 20	 sub	 esp, 32			; 00000020H
  00006	a1 00 00 00 00	 mov	 eax, DWORD PTR ___security_cookie
  0000b	33 c5		 xor	 eax, ebp
  0000d	89 45 fc	 mov	 DWORD PTR __$ArrayPad$[ebp], eax
  00010	8b 45 08	 mov	 eax, DWORD PTR _k$[ebp]

; 162  : 		_ENCSTR(k, _k);

  00013	8a 10		 mov	 dl, BYTE PTR [eax]
  00015	56		 push	 esi
  00016	8b 75 0c	 mov	 esi, DWORD PTR _d$[ebp]
  00019	57		 push	 edi
  0001a	8b 7d 10	 mov	 edi, DWORD PTR _b$[ebp]
  0001d	89 4d e0	 mov	 DWORD PTR _this$GSCopy$[ebp], ecx
  00020	84 d2		 test	 dl, dl
  00022	0f 84 a7 01 00
	00		 je	 $LN96@LoadString@2
  00028	80 f2 ed	 xor	 dl, -19			; ffffffedH
  0002b	88 55 e4	 mov	 BYTE PTR __k$[ebp], dl
  0002e	8a 50 01	 mov	 dl, BYTE PTR [eax+1]
  00031	84 d2		 test	 dl, dl
  00033	0f 84 90 01 00
	00		 je	 $LN95@LoadString@2
  00039	b1 ec		 mov	 cl, -20			; ffffffecH
  0003b	32 d1		 xor	 dl, cl
  0003d	88 55 e5	 mov	 BYTE PTR __k$[ebp+1], dl
  00040	8a 50 02	 mov	 dl, BYTE PTR [eax+2]
  00043	84 d2		 test	 dl, dl
  00045	0f 84 78 01 00
	00		 je	 $LN94@LoadString@2
  0004b	80 f2 eb	 xor	 dl, -21			; ffffffebH
  0004e	88 55 e6	 mov	 BYTE PTR __k$[ebp+2], dl
  00051	8a 50 03	 mov	 dl, BYTE PTR [eax+3]
  00054	84 d2		 test	 dl, dl
  00056	0f 84 61 01 00
	00		 je	 $LN93@LoadString@2
  0005c	80 f2 ea	 xor	 dl, -22			; ffffffeaH
  0005f	88 55 e7	 mov	 BYTE PTR __k$[ebp+3], dl
  00062	8a 50 04	 mov	 dl, BYTE PTR [eax+4]
  00065	84 d2		 test	 dl, dl
  00067	0f 84 4a 01 00
	00		 je	 $LN92@LoadString@2
  0006d	80 f2 ed	 xor	 dl, -19			; ffffffedH
  00070	88 55 e8	 mov	 BYTE PTR __k$[ebp+4], dl
  00073	8a 50 05	 mov	 dl, BYTE PTR [eax+5]
  00076	84 d2		 test	 dl, dl
  00078	0f 84 34 01 00
	00		 je	 $LN91@LoadString@2
  0007e	32 d1		 xor	 dl, cl
  00080	88 55 e9	 mov	 BYTE PTR __k$[ebp+5], dl
  00083	8a 50 06	 mov	 dl, BYTE PTR [eax+6]
  00086	84 d2		 test	 dl, dl
  00088	0f 84 1e 01 00
	00		 je	 $LN90@LoadString@2
  0008e	80 f2 eb	 xor	 dl, -21			; ffffffebH
  00091	88 55 ea	 mov	 BYTE PTR __k$[ebp+6], dl
  00094	8a 50 07	 mov	 dl, BYTE PTR [eax+7]
  00097	84 d2		 test	 dl, dl
  00099	0f 84 07 01 00
	00		 je	 $LN89@LoadString@2
  0009f	80 f2 ea	 xor	 dl, -22			; ffffffeaH
  000a2	88 55 eb	 mov	 BYTE PTR __k$[ebp+7], dl
  000a5	8a 50 08	 mov	 dl, BYTE PTR [eax+8]
  000a8	84 d2		 test	 dl, dl
  000aa	0f 84 f0 00 00
	00		 je	 $LN88@LoadString@2
  000b0	80 f2 ed	 xor	 dl, -19			; ffffffedH
  000b3	88 55 ec	 mov	 BYTE PTR __k$[ebp+8], dl
  000b6	8a 50 09	 mov	 dl, BYTE PTR [eax+9]
  000b9	84 d2		 test	 dl, dl
  000bb	0f 84 da 00 00
	00		 je	 $LN87@LoadString@2
  000c1	32 d1		 xor	 dl, cl
  000c3	88 55 ed	 mov	 BYTE PTR __k$[ebp+9], dl
  000c6	8a 50 0a	 mov	 dl, BYTE PTR [eax+10]
  000c9	84 d2		 test	 dl, dl
  000cb	0f 84 c4 00 00
	00		 je	 $LN86@LoadString@2
  000d1	80 f2 eb	 xor	 dl, -21			; ffffffebH
  000d4	88 55 ee	 mov	 BYTE PTR __k$[ebp+10], dl
  000d7	8a 50 0b	 mov	 dl, BYTE PTR [eax+11]
  000da	84 d2		 test	 dl, dl
  000dc	0f 84 ad 00 00
	00		 je	 $LN85@LoadString@2
  000e2	80 f2 ea	 xor	 dl, -22			; ffffffeaH
  000e5	88 55 ef	 mov	 BYTE PTR __k$[ebp+11], dl
  000e8	8a 50 0c	 mov	 dl, BYTE PTR [eax+12]
  000eb	84 d2		 test	 dl, dl
  000ed	0f 84 96 00 00
	00		 je	 $LN84@LoadString@2
  000f3	80 f2 ed	 xor	 dl, -19			; ffffffedH
  000f6	88 55 f0	 mov	 BYTE PTR __k$[ebp+12], dl
  000f9	8a 50 0d	 mov	 dl, BYTE PTR [eax+13]
  000fc	84 d2		 test	 dl, dl
  000fe	0f 84 80 00 00
	00		 je	 $LN83@LoadString@2
  00104	32 d1		 xor	 dl, cl
  00106	88 55 f1	 mov	 BYTE PTR __k$[ebp+13], dl
  00109	8a 50 0e	 mov	 dl, BYTE PTR [eax+14]
  0010c	84 d2		 test	 dl, dl
  0010e	74 6e		 je	 SHORT $LN82@LoadString@2
  00110	80 f2 eb	 xor	 dl, -21			; ffffffebH
  00113	88 55 f2	 mov	 BYTE PTR __k$[ebp+14], dl
  00116	8a 50 0f	 mov	 dl, BYTE PTR [eax+15]
  00119	84 d2		 test	 dl, dl
  0011b	74 5b		 je	 SHORT $LN81@LoadString@2
  0011d	80 f2 ea	 xor	 dl, -22			; ffffffeaH
  00120	80 78 10 00	 cmp	 BYTE PTR [eax+16], 0
  00124	88 55 f3	 mov	 BYTE PTR __k$[ebp+15], dl
  00127	0f 84 a6 00 00
	00		 je	 $LN111@LoadString@2
  0012d	8a 50 11	 mov	 dl, BYTE PTR [eax+17]
  00130	84 d2		 test	 dl, dl
  00132	74 3f		 je	 SHORT $LN79@LoadString@2
  00134	32 d1		 xor	 dl, cl
  00136	88 55 f5	 mov	 BYTE PTR __k$[ebp+17], dl
  00139	8a 50 12	 mov	 dl, BYTE PTR [eax+18]
  0013c	84 d2		 test	 dl, dl
  0013e	74 2d		 je	 SHORT $LN78@LoadString@2
  00140	80 f2 eb	 xor	 dl, -21			; ffffffebH
  00143	88 55 f6	 mov	 BYTE PTR __k$[ebp+18], dl
  00146	8a 50 13	 mov	 dl, BYTE PTR [eax+19]
  00149	84 d2		 test	 dl, dl
  0014b	74 1a		 je	 SHORT $LN77@LoadString@2
  0014d	8a 40 14	 mov	 al, BYTE PTR [eax+20]
  00150	80 f2 ea	 xor	 dl, -22			; ffffffeaH
  00153	88 55 f7	 mov	 BYTE PTR __k$[ebp+19], dl
  00156	84 c0		 test	 al, al
  00158	74 07		 je	 SHORT $LN76@LoadString@2
  0015a	34 ed		 xor	 al, -19			; ffffffedH
  0015c	88 45 f8	 mov	 BYTE PTR __k$[ebp+20], al
  0015f	eb 72		 jmp	 SHORT $LN111@LoadString@2
$LN76@LoadString@2:
  00161	c6 45 f8 ed	 mov	 BYTE PTR __k$[ebp+20], -19 ; ffffffedH
  00165	eb 6c		 jmp	 SHORT $LN111@LoadString@2
$LN77@LoadString@2:
  00167	c6 45 f7 ea	 mov	 BYTE PTR __k$[ebp+19], -22 ; ffffffeaH
  0016b	eb 66		 jmp	 SHORT $LN111@LoadString@2
$LN78@LoadString@2:
  0016d	c6 45 f6 eb	 mov	 BYTE PTR __k$[ebp+18], -21 ; ffffffebH
  00171	eb 60		 jmp	 SHORT $LN111@LoadString@2
$LN79@LoadString@2:
  00173	88 4d f5	 mov	 BYTE PTR __k$[ebp+17], cl
  00176	eb 5b		 jmp	 SHORT $LN111@LoadString@2
$LN81@LoadString@2:
  00178	c6 45 f3 ea	 mov	 BYTE PTR __k$[ebp+15], -22 ; ffffffeaH
  0017c	eb 55		 jmp	 SHORT $LN111@LoadString@2
$LN82@LoadString@2:
  0017e	c6 45 f2 eb	 mov	 BYTE PTR __k$[ebp+14], -21 ; ffffffebH
  00182	eb 4f		 jmp	 SHORT $LN111@LoadString@2
$LN83@LoadString@2:
  00184	88 4d f1	 mov	 BYTE PTR __k$[ebp+13], cl
  00187	eb 4a		 jmp	 SHORT $LN111@LoadString@2
$LN84@LoadString@2:
  00189	c6 45 f0 ed	 mov	 BYTE PTR __k$[ebp+12], -19 ; ffffffedH
  0018d	eb 44		 jmp	 SHORT $LN111@LoadString@2
$LN85@LoadString@2:
  0018f	c6 45 ef ea	 mov	 BYTE PTR __k$[ebp+11], -22 ; ffffffeaH
  00193	eb 3e		 jmp	 SHORT $LN111@LoadString@2
$LN86@LoadString@2:
  00195	c6 45 ee eb	 mov	 BYTE PTR __k$[ebp+10], -21 ; ffffffebH
  00199	eb 38		 jmp	 SHORT $LN111@LoadString@2
$LN87@LoadString@2:
  0019b	88 4d ed	 mov	 BYTE PTR __k$[ebp+9], cl
  0019e	eb 33		 jmp	 SHORT $LN111@LoadString@2
$LN88@LoadString@2:
  001a0	c6 45 ec ed	 mov	 BYTE PTR __k$[ebp+8], -19 ; ffffffedH
  001a4	eb 2d		 jmp	 SHORT $LN111@LoadString@2
$LN89@LoadString@2:
  001a6	c6 45 eb ea	 mov	 BYTE PTR __k$[ebp+7], -22 ; ffffffeaH
  001aa	eb 27		 jmp	 SHORT $LN111@LoadString@2
$LN90@LoadString@2:
  001ac	c6 45 ea eb	 mov	 BYTE PTR __k$[ebp+6], -21 ; ffffffebH
  001b0	eb 21		 jmp	 SHORT $LN111@LoadString@2
$LN91@LoadString@2:
  001b2	88 4d e9	 mov	 BYTE PTR __k$[ebp+5], cl
  001b5	eb 1c		 jmp	 SHORT $LN111@LoadString@2
$LN92@LoadString@2:
  001b7	c6 45 e8 ed	 mov	 BYTE PTR __k$[ebp+4], -19 ; ffffffedH
  001bb	eb 16		 jmp	 SHORT $LN111@LoadString@2
$LN93@LoadString@2:
  001bd	c6 45 e7 ea	 mov	 BYTE PTR __k$[ebp+3], -22 ; ffffffeaH
  001c1	eb 10		 jmp	 SHORT $LN111@LoadString@2
$LN94@LoadString@2:
  001c3	c6 45 e6 eb	 mov	 BYTE PTR __k$[ebp+2], -21 ; ffffffebH
  001c7	eb 0a		 jmp	 SHORT $LN111@LoadString@2
$LN95@LoadString@2:
  001c9	c6 45 e5 ec	 mov	 BYTE PTR __k$[ebp+1], -20 ; ffffffecH
  001cd	eb 04		 jmp	 SHORT $LN111@LoadString@2
$LN96@LoadString@2:
  001cf	c6 45 e4 ed	 mov	 BYTE PTR __k$[ebp], -19	; ffffffedH
$LN111@LoadString@2:
  001d3	6a 04		 push	 4
  001d5	8d 45 e4	 lea	 eax, DWORD PTR __k$[ebp]
  001d8	c6 45 f4 00	 mov	 BYTE PTR __k$[ebp+16], 0
  001dc	5a		 pop	 edx
$LL104@LoadString@2:
  001dd	81 30 ed ec eb
	ea		 xor	 DWORD PTR [eax], -353637139 ; eaebecedH
  001e3	83 c0 04	 add	 eax, 4
  001e6	4a		 dec	 edx
  001e7	75 f4		 jne	 SHORT $LL104@LoadString@2

; 163  : 		LoadString(_k, d, b, i);

  001e9	ff 75 14	 push	 DWORD PTR _i$[ebp]
  001ec	8b 4d e0	 mov	 ecx, DWORD PTR _this$GSCopy$[ebp]
  001ef	57		 push	 edi
  001f0	56		 push	 esi
  001f1	8d 45 e4	 lea	 eax, DWORD PTR __k$[ebp]
  001f4	50		 push	 eax
  001f5	ff 15 00 00 00
	00		 call	 DWORD PTR __imp_?LoadStringA@ioINILoader@@QAEXPBD0PADH@Z

; 164  : 	}

  001fb	8b 4d fc	 mov	 ecx, DWORD PTR __$ArrayPad$[ebp]
  001fe	5f		 pop	 edi
  001ff	33 cd		 xor	 ecx, ebp
  00201	5e		 pop	 esi
  00202	e8 00 00 00 00	 call	 @__security_check_cookie@4
  00207	c9		 leave
  00208	c2 10 00	 ret	 16			; 00000010H
??$LoadString_e@$0BB@@ioINILoader@@QAEXAAY0BB@$$CBDAAY00$$CBDPADH@Z ENDP ; ioINILoader::LoadString_e<17>
_TEXT	ENDS
PUBLIC	__$ArrayPad$
PUBLIC	??$LoadBool_e@$0O@@ioINILoader@@QAE_NAAY0O@$$CBD_N@Z ; ioINILoader::LoadBool_e<14>
EXTRN	__imp_?LoadBool@ioINILoader@@QAE_NPBD_N@Z:PROC
; Function compile flags: /Ogsp
;	COMDAT ??$LoadBool_e@$0O@@ioINILoader@@QAE_NAAY0O@$$CBD_N@Z
_TEXT	SEGMENT
__k$ = -24						; size = 14
__$ArrayPad$ = -4					; size = 4
_k$ = 8							; size = 4
_b$ = 12						; size = 1
??$LoadBool_e@$0O@@ioINILoader@@QAE_NAAY0O@$$CBD_N@Z PROC ; ioINILoader::LoadBool_e<14>, COMDAT
; _this$ = ecx

; 101  : 	{

  00000	55		 push	 ebp
  00001	8b ec		 mov	 ebp, esp
  00003	83 ec 18	 sub	 esp, 24			; 00000018H
  00006	a1 00 00 00 00	 mov	 eax, DWORD PTR ___security_cookie
  0000b	33 c5		 xor	 eax, ebp
  0000d	89 45 fc	 mov	 DWORD PTR __$ArrayPad$[ebp], eax
  00010	8b 45 08	 mov	 eax, DWORD PTR _k$[ebp]

; 102  : 		_ENCSTR(k, _k);

  00013	8a 10		 mov	 dl, BYTE PTR [eax]
  00015	56		 push	 esi
  00016	8b f1		 mov	 esi, ecx
  00018	84 d2		 test	 dl, dl
  0001a	0f 84 64 01 00
	00		 je	 $LN96@LoadBool_e
  00020	80 f2 ed	 xor	 dl, -19			; ffffffedH
  00023	88 55 e8	 mov	 BYTE PTR __k$[ebp], dl
  00026	8a 50 01	 mov	 dl, BYTE PTR [eax+1]
  00029	84 d2		 test	 dl, dl
  0002b	0f 84 4d 01 00
	00		 je	 $LN95@LoadBool_e
  00031	80 f2 ec	 xor	 dl, -20			; ffffffecH
  00034	88 55 e9	 mov	 BYTE PTR __k$[ebp+1], dl
  00037	8a 50 02	 mov	 dl, BYTE PTR [eax+2]
  0003a	84 d2		 test	 dl, dl
  0003c	0f 84 36 01 00
	00		 je	 $LN94@LoadBool_e
  00042	b1 eb		 mov	 cl, -21			; ffffffebH
  00044	32 d1		 xor	 dl, cl
  00046	88 55 ea	 mov	 BYTE PTR __k$[ebp+2], dl
  00049	8a 50 03	 mov	 dl, BYTE PTR [eax+3]
  0004c	84 d2		 test	 dl, dl
  0004e	0f 84 1e 01 00
	00		 je	 $LN93@LoadBool_e
  00054	80 f2 ea	 xor	 dl, -22			; ffffffeaH
  00057	88 55 eb	 mov	 BYTE PTR __k$[ebp+3], dl
  0005a	8a 50 04	 mov	 dl, BYTE PTR [eax+4]
  0005d	84 d2		 test	 dl, dl
  0005f	0f 84 07 01 00
	00		 je	 $LN92@LoadBool_e
  00065	80 f2 ed	 xor	 dl, -19			; ffffffedH
  00068	88 55 ec	 mov	 BYTE PTR __k$[ebp+4], dl
  0006b	8a 50 05	 mov	 dl, BYTE PTR [eax+5]
  0006e	84 d2		 test	 dl, dl
  00070	0f 84 f0 00 00
	00		 je	 $LN91@LoadBool_e
  00076	80 f2 ec	 xor	 dl, -20			; ffffffecH
  00079	88 55 ed	 mov	 BYTE PTR __k$[ebp+5], dl
  0007c	8a 50 06	 mov	 dl, BYTE PTR [eax+6]
  0007f	84 d2		 test	 dl, dl
  00081	0f 84 da 00 00
	00		 je	 $LN90@LoadBool_e
  00087	32 d1		 xor	 dl, cl
  00089	88 55 ee	 mov	 BYTE PTR __k$[ebp+6], dl
  0008c	8a 50 07	 mov	 dl, BYTE PTR [eax+7]
  0008f	84 d2		 test	 dl, dl
  00091	0f 84 c4 00 00
	00		 je	 $LN89@LoadBool_e
  00097	80 f2 ea	 xor	 dl, -22			; ffffffeaH
  0009a	88 55 ef	 mov	 BYTE PTR __k$[ebp+7], dl
  0009d	8a 50 08	 mov	 dl, BYTE PTR [eax+8]
  000a0	84 d2		 test	 dl, dl
  000a2	0f 84 ad 00 00
	00		 je	 $LN88@LoadBool_e
  000a8	80 f2 ed	 xor	 dl, -19			; ffffffedH
  000ab	88 55 f0	 mov	 BYTE PTR __k$[ebp+8], dl
  000ae	8a 50 09	 mov	 dl, BYTE PTR [eax+9]
  000b1	84 d2		 test	 dl, dl
  000b3	0f 84 96 00 00
	00		 je	 $LN87@LoadBool_e
  000b9	80 f2 ec	 xor	 dl, -20			; ffffffecH
  000bc	88 55 f1	 mov	 BYTE PTR __k$[ebp+9], dl
  000bf	8a 50 0a	 mov	 dl, BYTE PTR [eax+10]
  000c2	84 d2		 test	 dl, dl
  000c4	0f 84 80 00 00
	00		 je	 $LN86@LoadBool_e
  000ca	32 d1		 xor	 dl, cl
  000cc	88 55 f2	 mov	 BYTE PTR __k$[ebp+10], dl
  000cf	8a 50 0b	 mov	 dl, BYTE PTR [eax+11]
  000d2	84 d2		 test	 dl, dl
  000d4	74 6e		 je	 SHORT $LN85@LoadBool_e
  000d6	80 f2 ea	 xor	 dl, -22			; ffffffeaH
  000d9	88 55 f3	 mov	 BYTE PTR __k$[ebp+11], dl
  000dc	8a 50 0c	 mov	 dl, BYTE PTR [eax+12]
  000df	84 d2		 test	 dl, dl
  000e1	74 5b		 je	 SHORT $LN84@LoadBool_e
  000e3	80 f2 ed	 xor	 dl, -19			; ffffffedH
  000e6	80 78 0d 00	 cmp	 BYTE PTR [eax+13], 0
  000ea	88 55 f4	 mov	 BYTE PTR __k$[ebp+12], dl
  000ed	0f 84 95 00 00
	00		 je	 $LN1@LoadBool_e
  000f3	8a 50 0e	 mov	 dl, BYTE PTR [eax+14]
  000f6	84 d2		 test	 dl, dl
  000f8	74 3f		 je	 SHORT $LN82@LoadBool_e
  000fa	32 d1		 xor	 dl, cl
  000fc	88 55 f6	 mov	 BYTE PTR __k$[ebp+14], dl
  000ff	8a 50 0f	 mov	 dl, BYTE PTR [eax+15]
  00102	84 d2		 test	 dl, dl
  00104	74 2d		 je	 SHORT $LN81@LoadBool_e
  00106	80 f2 ea	 xor	 dl, -22			; ffffffeaH
  00109	88 55 f7	 mov	 BYTE PTR __k$[ebp+15], dl
  0010c	8a 50 10	 mov	 dl, BYTE PTR [eax+16]
  0010f	84 d2		 test	 dl, dl
  00111	74 1a		 je	 SHORT $LN80@LoadBool_e
  00113	8a 40 11	 mov	 al, BYTE PTR [eax+17]
  00116	80 f2 ed	 xor	 dl, -19			; ffffffedH
  00119	88 55 f8	 mov	 BYTE PTR __k$[ebp+16], dl
  0011c	84 c0		 test	 al, al
  0011e	74 07		 je	 SHORT $LN79@LoadBool_e
  00120	34 ec		 xor	 al, -20			; ffffffecH
  00122	88 45 f9	 mov	 BYTE PTR __k$[ebp+17], al
  00125	eb 61		 jmp	 SHORT $LN1@LoadBool_e
$LN79@LoadBool_e:
  00127	c6 45 f9 ec	 mov	 BYTE PTR __k$[ebp+17], -20 ; ffffffecH
  0012b	eb 5b		 jmp	 SHORT $LN1@LoadBool_e
$LN80@LoadBool_e:
  0012d	c6 45 f8 ed	 mov	 BYTE PTR __k$[ebp+16], -19 ; ffffffedH
  00131	eb 55		 jmp	 SHORT $LN1@LoadBool_e
$LN81@LoadBool_e:
  00133	c6 45 f7 ea	 mov	 BYTE PTR __k$[ebp+15], -22 ; ffffffeaH
  00137	eb 4f		 jmp	 SHORT $LN1@LoadBool_e
$LN82@LoadBool_e:
  00139	88 4d f6	 mov	 BYTE PTR __k$[ebp+14], cl
  0013c	eb 4a		 jmp	 SHORT $LN1@LoadBool_e
$LN84@LoadBool_e:
  0013e	c6 45 f4 ed	 mov	 BYTE PTR __k$[ebp+12], -19 ; ffffffedH
  00142	eb 44		 jmp	 SHORT $LN1@LoadBool_e
$LN85@LoadBool_e:
  00144	c6 45 f3 ea	 mov	 BYTE PTR __k$[ebp+11], -22 ; ffffffeaH
  00148	eb 3e		 jmp	 SHORT $LN1@LoadBool_e
$LN86@LoadBool_e:
  0014a	88 4d f2	 mov	 BYTE PTR __k$[ebp+10], cl
  0014d	eb 39		 jmp	 SHORT $LN1@LoadBool_e
$LN87@LoadBool_e:
  0014f	c6 45 f1 ec	 mov	 BYTE PTR __k$[ebp+9], -20 ; ffffffecH
  00153	eb 33		 jmp	 SHORT $LN1@LoadBool_e
$LN88@LoadBool_e:
  00155	c6 45 f0 ed	 mov	 BYTE PTR __k$[ebp+8], -19 ; ffffffedH
  00159	eb 2d		 jmp	 SHORT $LN1@LoadBool_e
$LN89@LoadBool_e:
  0015b	c6 45 ef ea	 mov	 BYTE PTR __k$[ebp+7], -22 ; ffffffeaH
  0015f	eb 27		 jmp	 SHORT $LN1@LoadBool_e
$LN90@LoadBool_e:
  00161	88 4d ee	 mov	 BYTE PTR __k$[ebp+6], cl
  00164	eb 22		 jmp	 SHORT $LN1@LoadBool_e
$LN91@LoadBool_e:
  00166	c6 45 ed ec	 mov	 BYTE PTR __k$[ebp+5], -20 ; ffffffecH
  0016a	eb 1c		 jmp	 SHORT $LN1@LoadBool_e
$LN92@LoadBool_e:
  0016c	c6 45 ec ed	 mov	 BYTE PTR __k$[ebp+4], -19 ; ffffffedH
  00170	eb 16		 jmp	 SHORT $LN1@LoadBool_e
$LN93@LoadBool_e:
  00172	c6 45 eb ea	 mov	 BYTE PTR __k$[ebp+3], -22 ; ffffffeaH
  00176	eb 10		 jmp	 SHORT $LN1@LoadBool_e
$LN94@LoadBool_e:
  00178	c6 45 ea eb	 mov	 BYTE PTR __k$[ebp+2], -21 ; ffffffebH
  0017c	eb 0a		 jmp	 SHORT $LN1@LoadBool_e
$LN95@LoadBool_e:
  0017e	c6 45 e9 ec	 mov	 BYTE PTR __k$[ebp+1], -20 ; ffffffecH
  00182	eb 04		 jmp	 SHORT $LN1@LoadBool_e
$LN96@LoadBool_e:
  00184	c6 45 e8 ed	 mov	 BYTE PTR __k$[ebp], -19	; ffffffedH
$LN1@LoadBool_e:
  00188	6a 03		 push	 3
  0018a	8d 45 e8	 lea	 eax, DWORD PTR __k$[ebp]
  0018d	c6 45 f5 00	 mov	 BYTE PTR __k$[ebp+13], 0
  00191	5a		 pop	 edx
$LL104@LoadBool_e:
  00192	81 30 ed ec eb
	ea		 xor	 DWORD PTR [eax], -353637139 ; eaebecedH
  00198	83 c0 04	 add	 eax, 4
  0019b	4a		 dec	 edx
  0019c	75 f4		 jne	 SHORT $LL104@LoadBool_e

; 103  : 		return LoadBool(_k, b);

  0019e	ff 75 0c	 push	 DWORD PTR _b$[ebp]
  001a1	80 75 f4 ed	 xor	 BYTE PTR __k$[ebp+12], -19 ; ffffffedH
  001a5	8d 45 e8	 lea	 eax, DWORD PTR __k$[ebp]
  001a8	50		 push	 eax
  001a9	8b ce		 mov	 ecx, esi
  001ab	ff 15 00 00 00
	00		 call	 DWORD PTR __imp_?LoadBool@ioINILoader@@QAE_NPBD_N@Z

; 104  : 	}

  001b1	8b 4d fc	 mov	 ecx, DWORD PTR __$ArrayPad$[ebp]
  001b4	33 cd		 xor	 ecx, ebp
  001b6	5e		 pop	 esi
  001b7	e8 00 00 00 00	 call	 @__security_check_cookie@4
  001bc	c9		 leave
  001bd	c2 08 00	 ret	 8
??$LoadBool_e@$0O@@ioINILoader@@QAE_NAAY0O@$$CBD_N@Z ENDP ; ioINILoader::LoadBool_e<14>
_TEXT	ENDS
PUBLIC	__real@3fd2ee0d320154cb
PUBLIC	__real@41f0000000000000
PUBLIC	??$RADtoDEG@M@@YAMM@Z				; RADtoDEG<float>
;	COMDAT __real@3fd2ee0d320154cb
; File d:\lost saga for developer\youtube\tutorial\source\src\lsclient\veryoftenusedefine.h
CONST	SEGMENT
__real@3fd2ee0d320154cb DQ 03fd2ee0d320154cbr	; 0.29578
CONST	ENDS
;	COMDAT __real@41f0000000000000
CONST	SEGMENT
__real@41f0000000000000 DQ 041f0000000000000r	; 4.29497e+009
; Function compile flags: /Ogsp
CONST	ENDS
;	COMDAT ??$RADtoDEG@M@@YAMM@Z
_TEXT	SEGMENT
tv130 = -4						; size = 4
tv75 = 8						; size = 4
_val$ = 8						; size = 4
??$RADtoDEG@M@@YAMM@Z PROC				; RADtoDEG<float>, COMDAT

; 18   : type  RADtoDEG (type val) {return (type) (val * (return57() + 0.2957795132)); }

  00000	55		 push	 ebp
  00001	8b ec		 mov	 ebp, esp
  00003	51		 push	 ecx
  00004	b8 39 00 00 00	 mov	 eax, 57			; 00000039H
  00009	89 45 fc	 mov	 DWORD PTR tv130[ebp], eax
  0000c	db 45 fc	 fild	 DWORD PTR tv130[ebp]
  0000f	85 c0		 test	 eax, eax
  00011	79 06		 jns	 SHORT $LN5@RADtoDEG
  00013	dc 05 00 00 00
	00		 fadd	 QWORD PTR __real@41f0000000000000
$LN5@RADtoDEG:
  00019	dc 05 00 00 00
	00		 fadd	 QWORD PTR __real@3fd2ee0d320154cb
  0001f	d8 4d 08	 fmul	 DWORD PTR _val$[ebp]
  00022	d9 5d 08	 fstp	 DWORD PTR tv75[ebp]
  00025	d9 45 08	 fld	 DWORD PTR tv75[ebp]
  00028	c9		 leave
  00029	c3		 ret	 0
??$RADtoDEG@M@@YAMM@Z ENDP				; RADtoDEG<float>
_TEXT	ENDS
PUBLIC	??0?$CEncrypt@M@@QAE@XZ				; CEncrypt<float>::CEncrypt<float>
EXTRN	??0ccddaabb@@QAE@XZ:PROC			; ccddaabb::ccddaabb
;	COMDAT xdata$x
; File d:\lost saga for developer\youtube\tutorial\source\src\lsclient\encryptvalue.h
xdata$x	SEGMENT
__unwindtable$??0?$CEncrypt@M@@QAE@XZ DD 0ffffffffH
	DD	FLAT:__unwindfunclet$??0?$CEncrypt@M@@QAE@XZ$0
__ehfuncinfo$??0?$CEncrypt@M@@QAE@XZ DD 019930522H
	DD	01H
	DD	FLAT:__unwindtable$??0?$CEncrypt@M@@QAE@XZ
	DD	2 DUP(00H)
	DD	2 DUP(00H)
	DD	00H
	DD	01H
; Function compile flags: /Ogsp
xdata$x	ENDS
;	COMDAT ??0?$CEncrypt@M@@QAE@XZ
_TEXT	SEGMENT
_this$ = -16						; size = 4
__$EHRec$ = -12						; size = 12
??0?$CEncrypt@M@@QAE@XZ PROC				; CEncrypt<float>::CEncrypt<float>, COMDAT
; _this$ = ecx

; 109  : 	CEncrypt()

  00000	6a 04		 push	 4
  00002	b8 00 00 00 00	 mov	 eax, __ehhandler$??0?$CEncrypt@M@@QAE@XZ
  00007	e8 00 00 00 00	 call	 __EH_prolog3
  0000c	8b f1		 mov	 esi, ecx
  0000e	89 75 f0	 mov	 DWORD PTR _this$[ebp], esi
  00011	8d 4e 0c	 lea	 ecx, DWORD PTR [esi+12]
  00014	c7 06 00 00 00
	00		 mov	 DWORD PTR [esi], OFFSET ??_7?$CEncrypt@M@@6B@
  0001a	e8 00 00 00 00	 call	 ??0ccddaabb@@QAE@XZ	; ccddaabb::ccddaabb
  0001f	83 65 fc 00	 and	 DWORD PTR __$EHRec$[ebp+8], 0

; 110  : 	{
; 111  : 		Init();

  00023	8b ce		 mov	 ecx, esi
  00025	e8 00 00 00 00	 call	 ?Init@?$CEncrypt@M@@AAEXXZ ; CEncrypt<float>::Init

; 112  : 	}

  0002a	8b c6		 mov	 eax, esi
  0002c	e8 00 00 00 00	 call	 __EH_epilog3
  00031	c3		 ret	 0
_TEXT	ENDS
;	COMDAT text$x
text$x	SEGMENT
__unwindfunclet$??0?$CEncrypt@M@@QAE@XZ$0:
  00000	8b 4d f0	 mov	 ecx, DWORD PTR _this$[ebp]
  00003	83 c1 0c	 add	 ecx, 12			; 0000000cH
  00006	e9 00 00 00 00	 jmp	 ??1ccddaabb@@UAE@XZ	; ccddaabb::~ccddaabb
__ehhandler$??0?$CEncrypt@M@@QAE@XZ:
  0000b	8b 54 24 08	 mov	 edx, DWORD PTR [esp+8]
  0000f	8d 42 0c	 lea	 eax, DWORD PTR [edx+12]
  00012	8b 4a ec	 mov	 ecx, DWORD PTR [edx-20]
  00015	33 c8		 xor	 ecx, eax
  00017	e8 00 00 00 00	 call	 @__security_check_cookie@4
  0001c	b8 00 00 00 00	 mov	 eax, OFFSET __ehfuncinfo$??0?$CEncrypt@M@@QAE@XZ
  00021	e9 00 00 00 00	 jmp	 ___CxxFrameHandler3
text$x	ENDS
??0?$CEncrypt@M@@QAE@XZ ENDP				; CEncrypt<float>::CEncrypt<float>
PUBLIC	??B?$CEncrypt@M@@QAEMXZ				; CEncrypt<float>::operator float
; Function compile flags: /Ogsp
;	COMDAT ??B?$CEncrypt@M@@QAEMXZ
_TEXT	SEGMENT
_value$ = -4						; size = 4
??B?$CEncrypt@M@@QAEMXZ PROC				; CEncrypt<float>::operator float, COMDAT
; _this$ = ecx

; 134  : 	{

  00000	55		 push	 ebp
  00001	8b ec		 mov	 ebp, esp
  00003	51		 push	 ecx

; 135  : 		type value;
; 136  : 		DecryptValueToPool(&value);

  00004	8d 45 fc	 lea	 eax, DWORD PTR _value$[ebp]
  00007	50		 push	 eax
  00008	e8 00 00 00 00	 call	 ?DecryptValueToPool@?$CEncrypt@M@@QAEXPAM@Z ; CEncrypt<float>::DecryptValueToPool

; 137  : 
; 138  : #ifdef _NOTUSE
; 139  : 		Debug();
; 140  : #endif
; 141  : 		return value;

  0000d	d9 45 fc	 fld	 DWORD PTR _value$[ebp]

; 142  : 	}

  00010	c9		 leave
  00011	c3		 ret	 0
??B?$CEncrypt@M@@QAEMXZ ENDP				; CEncrypt<float>::operator float
_TEXT	ENDS
PUBLIC	??4?$CEncrypt@M@@QAEMM@Z			; CEncrypt<float>::operator=
; Function compile flags: /Ogsp
;	COMDAT ??4?$CEncrypt@M@@QAEMM@Z
_TEXT	SEGMENT
_value$ = 8						; size = 4
_inValue$ = 8						; size = 4
??4?$CEncrypt@M@@QAEMM@Z PROC				; CEncrypt<float>::operator=, COMDAT
; _this$ = ecx

; 1654 : 	{	

  00000	55		 push	 ebp
  00001	8b ec		 mov	 ebp, esp

; 1655 : 		type value = inValue;

  00003	d9 45 08	 fld	 DWORD PTR _inValue$[ebp]

; 1656 : 		EncryptValueToPool((char*)&value);

  00006	8d 45 08	 lea	 eax, DWORD PTR _value$[ebp]
  00009	50		 push	 eax
  0000a	d9 5d 08	 fstp	 DWORD PTR _value$[ebp]
  0000d	e8 00 00 00 00	 call	 ?EncryptValueToPool@?$CEncrypt@M@@AAEXPBD@Z ; CEncrypt<float>::EncryptValueToPool

; 1657 : #ifdef _NOTUSE
; 1658 : 		m_value = inValue;
; 1659 : 		Debug();
; 1660 : #endif
; 1661 : 		return value;

  00012	d9 45 08	 fld	 DWORD PTR _value$[ebp]

; 1662 : 	}

  00015	5d		 pop	 ebp
  00016	c2 04 00	 ret	 4
??4?$CEncrypt@M@@QAEMM@Z ENDP				; CEncrypt<float>::operator=
_TEXT	ENDS
PUBLIC	??O?$CEncrypt@M@@QAE_NABM@Z			; CEncrypt<float>::operator>
; Function compile flags: /Ogsp
;	COMDAT ??O?$CEncrypt@M@@QAE_NABM@Z
_TEXT	SEGMENT
_value$ = -4						; size = 4
_inValue$ = 8						; size = 4
??O?$CEncrypt@M@@QAE_NABM@Z PROC			; CEncrypt<float>::operator>, COMDAT
; _this$ = ecx

; 1811 : 	{

  00000	55		 push	 ebp
  00001	8b ec		 mov	 ebp, esp
  00003	51		 push	 ecx

; 1812 : 		type value;
; 1813 : 		DecryptValueToPool(&value);

  00004	8d 45 fc	 lea	 eax, DWORD PTR _value$[ebp]
  00007	50		 push	 eax
  00008	e8 00 00 00 00	 call	 ?DecryptValueToPool@?$CEncrypt@M@@QAEXPAM@Z ; CEncrypt<float>::DecryptValueToPool

; 1814 : #ifdef _NOTUSE
; 1815 : 		Debug();
; 1816 : #endif
; 1817 : 		return (value > inValue);

  0000d	8b 45 08	 mov	 eax, DWORD PTR _inValue$[ebp]
  00010	f3 0f 10 08	 movss	 xmm1, DWORD PTR [eax]
  00014	f3 0f 10 45 fc	 movss	 xmm0, DWORD PTR _value$[ebp]
  00019	0f 5a c0	 cvtps2pd xmm0, xmm0
  0001c	0f 5a c9	 cvtps2pd xmm1, xmm1
  0001f	33 c0		 xor	 eax, eax
  00021	66 0f 2f c1	 comisd	 xmm0, xmm1
  00025	76 01		 jbe	 SHORT $LN4@operator@2
  00027	40		 inc	 eax
$LN4@operator@2:

; 1818 : 	}		

  00028	c9		 leave
  00029	c2 04 00	 ret	 4
??O?$CEncrypt@M@@QAE_NABM@Z ENDP			; CEncrypt<float>::operator>
_TEXT	ENDS
PUBLIC	??0?$CEncrypt@K@@QAE@XZ				; CEncrypt<unsigned long>::CEncrypt<unsigned long>
;	COMDAT xdata$x
xdata$x	SEGMENT
__unwindtable$??0?$CEncrypt@K@@QAE@XZ DD 0ffffffffH
	DD	FLAT:__unwindfunclet$??0?$CEncrypt@K@@QAE@XZ$0
__ehfuncinfo$??0?$CEncrypt@K@@QAE@XZ DD 019930522H
	DD	01H
	DD	FLAT:__unwindtable$??0?$CEncrypt@K@@QAE@XZ
	DD	2 DUP(00H)
	DD	2 DUP(00H)
	DD	00H
	DD	01H
; Function compile flags: /Ogsp
xdata$x	ENDS
;	COMDAT ??0?$CEncrypt@K@@QAE@XZ
_TEXT	SEGMENT
_this$ = -16						; size = 4
__$EHRec$ = -12						; size = 12
??0?$CEncrypt@K@@QAE@XZ PROC				; CEncrypt<unsigned long>::CEncrypt<unsigned long>, COMDAT
; _this$ = ecx

; 109  : 	CEncrypt()

  00000	6a 04		 push	 4
  00002	b8 00 00 00 00	 mov	 eax, __ehhandler$??0?$CEncrypt@K@@QAE@XZ
  00007	e8 00 00 00 00	 call	 __EH_prolog3
  0000c	8b f1		 mov	 esi, ecx
  0000e	89 75 f0	 mov	 DWORD PTR _this$[ebp], esi
  00011	8d 4e 0c	 lea	 ecx, DWORD PTR [esi+12]
  00014	c7 06 00 00 00
	00		 mov	 DWORD PTR [esi], OFFSET ??_7?$CEncrypt@K@@6B@
  0001a	e8 00 00 00 00	 call	 ??0ccddaabb@@QAE@XZ	; ccddaabb::ccddaabb
  0001f	83 65 fc 00	 and	 DWORD PTR __$EHRec$[ebp+8], 0

; 110  : 	{
; 111  : 		Init();

  00023	8b ce		 mov	 ecx, esi
  00025	e8 00 00 00 00	 call	 ?Init@?$CEncrypt@K@@AAEXXZ ; CEncrypt<unsigned long>::Init

; 112  : 	}

  0002a	8b c6		 mov	 eax, esi
  0002c	e8 00 00 00 00	 call	 __EH_epilog3
  00031	c3		 ret	 0
_TEXT	ENDS
;	COMDAT text$x
text$x	SEGMENT
__unwindfunclet$??0?$CEncrypt@K@@QAE@XZ$0:
  00000	8b 4d f0	 mov	 ecx, DWORD PTR _this$[ebp]
  00003	83 c1 0c	 add	 ecx, 12			; 0000000cH
  00006	e9 00 00 00 00	 jmp	 ??1ccddaabb@@UAE@XZ	; ccddaabb::~ccddaabb
__ehhandler$??0?$CEncrypt@K@@QAE@XZ:
  0000b	8b 54 24 08	 mov	 edx, DWORD PTR [esp+8]
  0000f	8d 42 0c	 lea	 eax, DWORD PTR [edx+12]
  00012	8b 4a ec	 mov	 ecx, DWORD PTR [edx-20]
  00015	33 c8		 xor	 ecx, eax
  00017	e8 00 00 00 00	 call	 @__security_check_cookie@4
  0001c	b8 00 00 00 00	 mov	 eax, OFFSET __ehfuncinfo$??0?$CEncrypt@K@@QAE@XZ
  00021	e9 00 00 00 00	 jmp	 ___CxxFrameHandler3
text$x	ENDS
??0?$CEncrypt@K@@QAE@XZ ENDP				; CEncrypt<unsigned long>::CEncrypt<unsigned long>
PUBLIC	??B?$CEncrypt@K@@QAEKXZ				; CEncrypt<unsigned long>::operator unsigned long
; Function compile flags: /Ogsp
;	COMDAT ??B?$CEncrypt@K@@QAEKXZ
_TEXT	SEGMENT
_value$ = -4						; size = 4
??B?$CEncrypt@K@@QAEKXZ PROC				; CEncrypt<unsigned long>::operator unsigned long, COMDAT
; _this$ = ecx

; 134  : 	{

  00000	55		 push	 ebp
  00001	8b ec		 mov	 ebp, esp
  00003	51		 push	 ecx

; 135  : 		type value;
; 136  : 		DecryptValueToPool(&value);

  00004	8d 45 fc	 lea	 eax, DWORD PTR _value$[ebp]
  00007	50		 push	 eax
  00008	e8 00 00 00 00	 call	 ?DecryptValueToPool@?$CEncrypt@K@@QAEXPAK@Z ; CEncrypt<unsigned long>::DecryptValueToPool

; 137  : 
; 138  : #ifdef _NOTUSE
; 139  : 		Debug();
; 140  : #endif
; 141  : 		return value;

  0000d	8b 45 fc	 mov	 eax, DWORD PTR _value$[ebp]

; 142  : 	}

  00010	c9		 leave
  00011	c3		 ret	 0
??B?$CEncrypt@K@@QAEKXZ ENDP				; CEncrypt<unsigned long>::operator unsigned long
_TEXT	ENDS
PUBLIC	??4?$CEncrypt@K@@QAEKK@Z			; CEncrypt<unsigned long>::operator=
; Function compile flags: /Ogsp
;	COMDAT ??4?$CEncrypt@K@@QAEKK@Z
_TEXT	SEGMENT
_value$ = 8						; size = 4
_inValue$ = 8						; size = 4
??4?$CEncrypt@K@@QAEKK@Z PROC				; CEncrypt<unsigned long>::operator=, COMDAT
; _this$ = ecx

; 1262 : 	{

  00000	55		 push	 ebp
  00001	8b ec		 mov	 ebp, esp

; 1263 : 		
; 1264 : 		type value = inValue;

  00003	8b 45 08	 mov	 eax, DWORD PTR _inValue$[ebp]
  00006	89 45 08	 mov	 DWORD PTR _value$[ebp], eax

; 1265 : 		EncryptValueToPool((char*)&value);

  00009	8d 45 08	 lea	 eax, DWORD PTR _value$[ebp]
  0000c	50		 push	 eax
  0000d	e8 00 00 00 00	 call	 ?EncryptValueToPool@?$CEncrypt@K@@AAEXPBD@Z ; CEncrypt<unsigned long>::EncryptValueToPool

; 1266 : #ifdef _NOTUSE
; 1267 : 		m_value = inValue;
; 1268 : 		Debug();
; 1269 : #endif
; 1270 : 		return value;

  00012	8b 45 08	 mov	 eax, DWORD PTR _value$[ebp]

; 1271 : 	}

  00015	5d		 pop	 ebp
  00016	c2 04 00	 ret	 4
??4?$CEncrypt@K@@QAEKK@Z ENDP				; CEncrypt<unsigned long>::operator=
_TEXT	ENDS
PUBLIC	??0?$CEncrypt@_N@@QAE@XZ			; CEncrypt<bool>::CEncrypt<bool>
;	COMDAT xdata$x
xdata$x	SEGMENT
__unwindtable$??0?$CEncrypt@_N@@QAE@XZ DD 0ffffffffH
	DD	FLAT:__unwindfunclet$??0?$CEncrypt@_N@@QAE@XZ$0
__ehfuncinfo$??0?$CEncrypt@_N@@QAE@XZ DD 019930522H
	DD	01H
	DD	FLAT:__unwindtable$??0?$CEncrypt@_N@@QAE@XZ
	DD	2 DUP(00H)
	DD	2 DUP(00H)
	DD	00H
	DD	01H
; Function compile flags: /Ogsp
xdata$x	ENDS
;	COMDAT ??0?$CEncrypt@_N@@QAE@XZ
_TEXT	SEGMENT
_this$ = -16						; size = 4
__$EHRec$ = -12						; size = 12
??0?$CEncrypt@_N@@QAE@XZ PROC				; CEncrypt<bool>::CEncrypt<bool>, COMDAT
; _this$ = ecx

; 109  : 	CEncrypt()

  00000	6a 04		 push	 4
  00002	b8 00 00 00 00	 mov	 eax, __ehhandler$??0?$CEncrypt@_N@@QAE@XZ
  00007	e8 00 00 00 00	 call	 __EH_prolog3
  0000c	8b f1		 mov	 esi, ecx
  0000e	89 75 f0	 mov	 DWORD PTR _this$[ebp], esi
  00011	8d 4e 0c	 lea	 ecx, DWORD PTR [esi+12]
  00014	c7 06 00 00 00
	00		 mov	 DWORD PTR [esi], OFFSET ??_7?$CEncrypt@_N@@6B@
  0001a	e8 00 00 00 00	 call	 ??0ccddaabb@@QAE@XZ	; ccddaabb::ccddaabb
  0001f	83 65 fc 00	 and	 DWORD PTR __$EHRec$[ebp+8], 0

; 110  : 	{
; 111  : 		Init();

  00023	8b ce		 mov	 ecx, esi
  00025	e8 00 00 00 00	 call	 ?Init@?$CEncrypt@_N@@AAEXXZ ; CEncrypt<bool>::Init

; 112  : 	}

  0002a	8b c6		 mov	 eax, esi
  0002c	e8 00 00 00 00	 call	 __EH_epilog3
  00031	c3		 ret	 0
_TEXT	ENDS
;	COMDAT text$x
text$x	SEGMENT
__unwindfunclet$??0?$CEncrypt@_N@@QAE@XZ$0:
  00000	8b 4d f0	 mov	 ecx, DWORD PTR _this$[ebp]
  00003	83 c1 0c	 add	 ecx, 12			; 0000000cH
  00006	e9 00 00 00 00	 jmp	 ??1ccddaabb@@UAE@XZ	; ccddaabb::~ccddaabb
__ehhandler$??0?$CEncrypt@_N@@QAE@XZ:
  0000b	8b 54 24 08	 mov	 edx, DWORD PTR [esp+8]
  0000f	8d 42 0c	 lea	 eax, DWORD PTR [edx+12]
  00012	8b 4a ec	 mov	 ecx, DWORD PTR [edx-20]
  00015	33 c8		 xor	 ecx, eax
  00017	e8 00 00 00 00	 call	 @__security_check_cookie@4
  0001c	b8 00 00 00 00	 mov	 eax, OFFSET __ehfuncinfo$??0?$CEncrypt@_N@@QAE@XZ
  00021	e9 00 00 00 00	 jmp	 ___CxxFrameHandler3
text$x	ENDS
??0?$CEncrypt@_N@@QAE@XZ ENDP				; CEncrypt<bool>::CEncrypt<bool>
PUBLIC	??B?$CEncrypt@_N@@QAE_NXZ			; CEncrypt<bool>::operator bool
; Function compile flags: /Ogsp
;	COMDAT ??B?$CEncrypt@_N@@QAE_NXZ
_TEXT	SEGMENT
_value$ = -1						; size = 1
??B?$CEncrypt@_N@@QAE_NXZ PROC				; CEncrypt<bool>::operator bool, COMDAT
; _this$ = ecx

; 134  : 	{

  00000	55		 push	 ebp
  00001	8b ec		 mov	 ebp, esp
  00003	51		 push	 ecx

; 135  : 		type value;
; 136  : 		DecryptValueToPool(&value);

  00004	8d 45 ff	 lea	 eax, DWORD PTR _value$[ebp]
  00007	50		 push	 eax
  00008	e8 00 00 00 00	 call	 ?DecryptValueToPool@?$CEncrypt@_N@@QAEXPA_N@Z ; CEncrypt<bool>::DecryptValueToPool

; 137  : 
; 138  : #ifdef _NOTUSE
; 139  : 		Debug();
; 140  : #endif
; 141  : 		return value;

  0000d	8a 45 ff	 mov	 al, BYTE PTR _value$[ebp]

; 142  : 	}

  00010	c9		 leave
  00011	c3		 ret	 0
??B?$CEncrypt@_N@@QAE_NXZ ENDP				; CEncrypt<bool>::operator bool
_TEXT	ENDS
PUBLIC	??4?$CEncrypt@_N@@QAE_N_N@Z			; CEncrypt<bool>::operator=
; Function compile flags: /Ogsp
;	COMDAT ??4?$CEncrypt@_N@@QAE_N_N@Z
_TEXT	SEGMENT
_inValue$ = 8						; size = 1
_value$ = 11						; size = 1
??4?$CEncrypt@_N@@QAE_N_N@Z PROC			; CEncrypt<bool>::operator=, COMDAT
; _this$ = ecx

; 225  : 	{

  00000	55		 push	 ebp
  00001	8b ec		 mov	 ebp, esp

; 226  : 		type value = inValue;

  00003	8a 45 08	 mov	 al, BYTE PTR _inValue$[ebp]
  00006	88 45 0b	 mov	 BYTE PTR _value$[ebp], al

; 227  : 		EncryptValueToPool((char*)&value);

  00009	8d 45 0b	 lea	 eax, DWORD PTR _value$[ebp]
  0000c	50		 push	 eax
  0000d	e8 00 00 00 00	 call	 ?EncryptValueToPool@?$CEncrypt@_N@@AAEXPBD@Z ; CEncrypt<bool>::EncryptValueToPool

; 228  : #ifdef _NOTUSE
; 229  : 		m_value = inValue;
; 230  : 		Debug();
; 231  : #endif
; 232  : 		return value;

  00012	8a 45 0b	 mov	 al, BYTE PTR _value$[ebp]

; 233  : 	}

  00015	5d		 pop	 ebp
  00016	c2 04 00	 ret	 4
??4?$CEncrypt@_N@@QAE_N_N@Z ENDP			; CEncrypt<bool>::operator=
_TEXT	ENDS
PUBLIC	??B?$CEncrypt@H@@QBEHXZ				; CEncrypt<int>::operator int
; Function compile flags: /Ogsp
;	COMDAT ??B?$CEncrypt@H@@QBEHXZ
_TEXT	SEGMENT
_value$ = -4						; size = 4
??B?$CEncrypt@H@@QBEHXZ PROC				; CEncrypt<int>::operator int, COMDAT
; _this$ = ecx

; 145  : 	{

  00000	55		 push	 ebp
  00001	8b ec		 mov	 ebp, esp
  00003	51		 push	 ecx

; 146  : 		//UJ 130829, const    --start
; 147  : 		type value;
; 148  : 		CEncrypt<type>* pThis = const_cast<CEncrypt<type>*>(this);
; 149  : 		pThis->DecryptValueToPool(&value);

  00004	8d 45 fc	 lea	 eax, DWORD PTR _value$[ebp]
  00007	50		 push	 eax
  00008	e8 00 00 00 00	 call	 ?DecryptValueToPool@?$CEncrypt@H@@QAEXPAH@Z ; CEncrypt<int>::DecryptValueToPool

; 150  : 		//// const DecryptValueToPool     .
; 151  :  		//type value;
; 152  : 		//char szTempMem[MAX_ENCRYPT];
; 153  : 		//m_RC5.DecryptByte( m_MemPool, szTempMem, max(m_ValueSize, DEFAULT_ENCRYPT) );
; 154  : 		//memcpy( &value, szTempMem, m_ValueSize );
; 155  : 		//UJ --end
; 156  : 
; 157  : #ifdef _NOTUSE
; 158  : 		Debug();
; 159  : #endif
; 160  : 		return value;

  0000d	8b 45 fc	 mov	 eax, DWORD PTR _value$[ebp]

; 161  : 	}

  00010	c9		 leave
  00011	c3		 ret	 0
??B?$CEncrypt@H@@QBEHXZ ENDP				; CEncrypt<int>::operator int
_TEXT	ENDS
PUBLIC	??0ioGuide2Weapon@@QAE@PAVioBaseChar@@PBUWeaponAttribute@@@Z ; ioGuide2Weapon::ioGuide2Weapon
EXTRN	__imp_??0ioOrientBox@@QAE@XZ:PROC
EXTRN	??0ioWeapon@@QAE@PAVioBaseChar@@PBUWeaponAttribute@@@Z:PROC ; ioWeapon::ioWeapon
;	COMDAT xdata$x
; File c:\program files (x86)\microsoft directx sdk (june 2010)\include\d3dx9math.h
xdata$x	SEGMENT
__ehfuncinfo$??0ioGuide2Weapon@@QAE@PAVioBaseChar@@PBUWeaponAttribute@@@Z DD 019930522H
	DD	0cH
	DD	FLAT:__unwindtable$??0ioGuide2Weapon@@QAE@PAVioBaseChar@@PBUWeaponAttribute@@@Z
	DD	2 DUP(00H)
	DD	2 DUP(00H)
	DD	00H
	DD	01H
__unwindtable$??0ioGuide2Weapon@@QAE@PAVioBaseChar@@PBUWeaponAttribute@@@Z DD 0ffffffffH
	DD	FLAT:__unwindfunclet$??0ioGuide2Weapon@@QAE@PAVioBaseChar@@PBUWeaponAttribute@@@Z$0
	DD	00H
	DD	FLAT:__unwindfunclet$??0ioGuide2Weapon@@QAE@PAVioBaseChar@@PBUWeaponAttribute@@@Z$1
	DD	01H
	DD	FLAT:__unwindfunclet$??0ioGuide2Weapon@@QAE@PAVioBaseChar@@PBUWeaponAttribute@@@Z$2
	DD	02H
	DD	FLAT:__unwindfunclet$??0ioGuide2Weapon@@QAE@PAVioBaseChar@@PBUWeaponAttribute@@@Z$3
	DD	03H
	DD	FLAT:__unwindfunclet$??0ioGuide2Weapon@@QAE@PAVioBaseChar@@PBUWeaponAttribute@@@Z$4
	DD	04H
	DD	FLAT:__unwindfunclet$??0ioGuide2Weapon@@QAE@PAVioBaseChar@@PBUWeaponAttribute@@@Z$5
	DD	05H
	DD	FLAT:__unwindfunclet$??0ioGuide2Weapon@@QAE@PAVioBaseChar@@PBUWeaponAttribute@@@Z$6
	DD	06H
	DD	FLAT:__unwindfunclet$??0ioGuide2Weapon@@QAE@PAVioBaseChar@@PBUWeaponAttribute@@@Z$7
	DD	07H
	DD	FLAT:__unwindfunclet$??0ioGuide2Weapon@@QAE@PAVioBaseChar@@PBUWeaponAttribute@@@Z$8
	DD	08H
	DD	FLAT:__unwindfunclet$??0ioGuide2Weapon@@QAE@PAVioBaseChar@@PBUWeaponAttribute@@@Z$9
	DD	09H
	DD	FLAT:__unwindfunclet$??0ioGuide2Weapon@@QAE@PAVioBaseChar@@PBUWeaponAttribute@@@Z$10
	DD	0aH
	DD	FLAT:__unwindfunclet$??0ioGuide2Weapon@@QAE@PAVioBaseChar@@PBUWeaponAttribute@@@Z$11
; Function compile flags: /Ogsp
; File d:\lost saga for developer\youtube\tutorial\source\src\lsclient\ioguide2weapon.cpp
xdata$x	ENDS
;	COMDAT ??0ioGuide2Weapon@@QAE@PAVioBaseChar@@PBUWeaponAttribute@@@Z
_TEXT	SEGMENT
_this$ = -16						; size = 4
__$EHRec$ = -12						; size = 12
_pOwner$ = 8						; size = 4
_pAttr$ = 12						; size = 4
??0ioGuide2Weapon@@QAE@PAVioBaseChar@@PBUWeaponAttribute@@@Z PROC ; ioGuide2Weapon::ioGuide2Weapon, COMDAT
; _this$ = ecx

; 18   : {

  00000	6a 04		 push	 4
  00002	b8 00 00 00 00	 mov	 eax, __ehhandler$??0ioGuide2Weapon@@QAE@PAVioBaseChar@@PBUWeaponAttribute@@@Z
  00007	e8 00 00 00 00	 call	 __EH_prolog3
  0000c	8b f1		 mov	 esi, ecx
  0000e	89 75 f0	 mov	 DWORD PTR _this$[ebp], esi
  00011	ff 75 0c	 push	 DWORD PTR _pAttr$[ebp]
  00014	ff 75 08	 push	 DWORD PTR _pOwner$[ebp]
  00017	e8 00 00 00 00	 call	 ??0ioWeapon@@QAE@PAVioBaseChar@@PBUWeaponAttribute@@@Z ; ioWeapon::ioWeapon
  0001c	33 db		 xor	 ebx, ebx
  0001e	8d 8e a0 08 00
	00		 lea	 ecx, DWORD PTR [esi+2208]
  00024	89 5d fc	 mov	 DWORD PTR __$EHRec$[ebp+8], ebx
  00027	c7 06 00 00 00
	00		 mov	 DWORD PTR [esi], OFFSET ??_7ioGuide2Weapon@@6B@
  0002d	ff 15 00 00 00
	00		 call	 DWORD PTR __imp_??0ioOrientBox@@QAE@XZ
  00033	8b 3d 00 00 00
	00		 mov	 edi, DWORD PTR __imp_??0ioHashString@@QAE@XZ
  00039	8d 8e fc 08 00
	00		 lea	 ecx, DWORD PTR [esi+2300]
  0003f	c6 45 fc 01	 mov	 BYTE PTR __$EHRec$[ebp+8], 1
  00043	ff d7		 call	 edi
  00045	8d 8e 0c 09 00
	00		 lea	 ecx, DWORD PTR [esi+2316]
  0004b	c6 45 fc 02	 mov	 BYTE PTR __$EHRec$[ebp+8], 2
  0004f	e8 00 00 00 00	 call	 ??0?$CEncrypt@M@@QAE@XZ	; CEncrypt<float>::CEncrypt<float>
  00054	8d 8e 3c 09 00
	00		 lea	 ecx, DWORD PTR [esi+2364]
  0005a	c6 45 fc 03	 mov	 BYTE PTR __$EHRec$[ebp+8], 3
  0005e	e8 00 00 00 00	 call	 ??0?$CEncrypt@M@@QAE@XZ	; CEncrypt<float>::CEncrypt<float>
  00063	8d 8e 70 09 00
	00		 lea	 ecx, DWORD PTR [esi+2416]
  00069	c6 45 fc 04	 mov	 BYTE PTR __$EHRec$[ebp+8], 4
  0006d	e8 00 00 00 00	 call	 ??0?$CEncrypt@M@@QAE@XZ	; CEncrypt<float>::CEncrypt<float>
  00072	8d 8e a0 09 00
	00		 lea	 ecx, DWORD PTR [esi+2464]
  00078	c6 45 fc 05	 mov	 BYTE PTR __$EHRec$[ebp+8], 5
  0007c	e8 00 00 00 00	 call	 ??0?$CEncrypt@M@@QAE@XZ	; CEncrypt<float>::CEncrypt<float>
  00081	8d 8e d0 09 00
	00		 lea	 ecx, DWORD PTR [esi+2512]
  00087	c6 45 fc 06	 mov	 BYTE PTR __$EHRec$[ebp+8], 6
  0008b	e8 00 00 00 00	 call	 ??0?$CEncrypt@M@@QAE@XZ	; CEncrypt<float>::CEncrypt<float>
  00090	8d 8e 00 0a 00
	00		 lea	 ecx, DWORD PTR [esi+2560]
  00096	c6 45 fc 07	 mov	 BYTE PTR __$EHRec$[ebp+8], 7
  0009a	e8 00 00 00 00	 call	 ??0?$CEncrypt@M@@QAE@XZ	; CEncrypt<float>::CEncrypt<float>
  0009f	8d 8e 30 0a 00
	00		 lea	 ecx, DWORD PTR [esi+2608]
  000a5	c6 45 fc 08	 mov	 BYTE PTR __$EHRec$[ebp+8], 8
  000a9	e8 00 00 00 00	 call	 ??0?$CEncrypt@K@@QAE@XZ	; CEncrypt<unsigned long>::CEncrypt<unsigned long>
  000ae	8d 8e 64 0a 00
	00		 lea	 ecx, DWORD PTR [esi+2660]
  000b4	c6 45 fc 09	 mov	 BYTE PTR __$EHRec$[ebp+8], 9
  000b8	ff d7		 call	 edi
  000ba	8d 8e 74 0a 00
	00		 lea	 ecx, DWORD PTR [esi+2676]
  000c0	c6 45 fc 0a	 mov	 BYTE PTR __$EHRec$[ebp+8], 10 ; 0000000aH
  000c4	ff d7		 call	 edi
  000c6	8d 8e 90 0a 00
	00		 lea	 ecx, DWORD PTR [esi+2704]
  000cc	c6 45 fc 0b	 mov	 BYTE PTR __$EHRec$[ebp+8], 11 ; 0000000bH
  000d0	e8 00 00 00 00	 call	 ??0?$CEncrypt@_N@@QAE@XZ ; CEncrypt<bool>::CEncrypt<bool>

; 19   : 	//SetPeculiarity( WP_WOUND_NO_SOUND | WP_DEF_NO_SOUND );
; 20   : 
; 21   : 	m_pFireMesh = NULL;
; 22   : 	m_WeaponState = WS_MOVE;
; 23   : 
; 24   : 	m_bResistance = false;
; 25   : 	m_fCurMoveSpeed = 0.0f;

  000d5	0f 57 c0	 xorps	 xmm0, xmm0
  000d8	89 9e 98 08 00
	00		 mov	 DWORD PTR [esi+2200], ebx
  000de	89 9e 94 08 00
	00		 mov	 DWORD PTR [esi+2196], ebx
  000e4	88 9e 3c 06 00
	00		 mov	 BYTE PTR [esi+1596], bl
  000ea	f3 0f 11 86 88
	0a 00 00	 movss	 DWORD PTR [esi+2696], xmm0

; 26   : 	m_fCurMoveRange = 0.0f;

  000f2	f3 0f 11 86 8c
	0a 00 00	 movss	 DWORD PTR [esi+2700], xmm0

; 27   : 
; 28   : 	m_pGuideArrow = NULL;

  000fa	89 9e 9c 08 00
	00		 mov	 DWORD PTR [esi+2204], ebx

; 29   : }

  00100	8b c6		 mov	 eax, esi
  00102	e8 00 00 00 00	 call	 __EH_epilog3
  00107	c2 08 00	 ret	 8
_TEXT	ENDS
;	COMDAT text$x
text$x	SEGMENT
__unwindfunclet$??0ioGuide2Weapon@@QAE@PAVioBaseChar@@PBUWeaponAttribute@@@Z$0:
  00000	8b 4d f0	 mov	 ecx, DWORD PTR _this$[ebp]
  00003	e9 00 00 00 00	 jmp	 ??1ioWeapon@@UAE@XZ	; ioWeapon::~ioWeapon
__unwindfunclet$??0ioGuide2Weapon@@QAE@PAVioBaseChar@@PBUWeaponAttribute@@@Z$1:
  00008	8b 4d f0	 mov	 ecx, DWORD PTR _this$[ebp]
  0000b	81 c1 a0 08 00
	00		 add	 ecx, 2208		; 000008a0H
  00011	ff 25 00 00 00
	00		 jmp	 DWORD PTR __imp_??1ioOrientBox@@QAE@XZ
__unwindfunclet$??0ioGuide2Weapon@@QAE@PAVioBaseChar@@PBUWeaponAttribute@@@Z$2:
  00017	8b 4d f0	 mov	 ecx, DWORD PTR _this$[ebp]
  0001a	81 c1 fc 08 00
	00		 add	 ecx, 2300		; 000008fcH
  00020	ff 25 00 00 00
	00		 jmp	 DWORD PTR __imp_??1ioHashString@@QAE@XZ
__unwindfunclet$??0ioGuide2Weapon@@QAE@PAVioBaseChar@@PBUWeaponAttribute@@@Z$3:
  00026	8b 4d f0	 mov	 ecx, DWORD PTR _this$[ebp]
  00029	81 c1 0c 09 00
	00		 add	 ecx, 2316		; 0000090cH
  0002f	e9 00 00 00 00	 jmp	 ??1?$CEncrypt@M@@UAE@XZ	; CEncrypt<float>::~CEncrypt<float>
__unwindfunclet$??0ioGuide2Weapon@@QAE@PAVioBaseChar@@PBUWeaponAttribute@@@Z$4:
  00034	8b 4d f0	 mov	 ecx, DWORD PTR _this$[ebp]
  00037	81 c1 3c 09 00
	00		 add	 ecx, 2364		; 0000093cH
  0003d	e9 00 00 00 00	 jmp	 ??1?$CEncrypt@M@@UAE@XZ	; CEncrypt<float>::~CEncrypt<float>
__unwindfunclet$??0ioGuide2Weapon@@QAE@PAVioBaseChar@@PBUWeaponAttribute@@@Z$5:
  00042	8b 4d f0	 mov	 ecx, DWORD PTR _this$[ebp]
  00045	81 c1 70 09 00
	00		 add	 ecx, 2416		; 00000970H
  0004b	e9 00 00 00 00	 jmp	 ??1?$CEncrypt@M@@UAE@XZ	; CEncrypt<float>::~CEncrypt<float>
__unwindfunclet$??0ioGuide2Weapon@@QAE@PAVioBaseChar@@PBUWeaponAttribute@@@Z$6:
  00050	8b 4d f0	 mov	 ecx, DWORD PTR _this$[ebp]
  00053	81 c1 a0 09 00
	00		 add	 ecx, 2464		; 000009a0H
  00059	e9 00 00 00 00	 jmp	 ??1?$CEncrypt@M@@UAE@XZ	; CEncrypt<float>::~CEncrypt<float>
__unwindfunclet$??0ioGuide2Weapon@@QAE@PAVioBaseChar@@PBUWeaponAttribute@@@Z$7:
  0005e	8b 4d f0	 mov	 ecx, DWORD PTR _this$[ebp]
  00061	81 c1 d0 09 00
	00		 add	 ecx, 2512		; 000009d0H
  00067	e9 00 00 00 00	 jmp	 ??1?$CEncrypt@M@@UAE@XZ	; CEncrypt<float>::~CEncrypt<float>
__unwindfunclet$??0ioGuide2Weapon@@QAE@PAVioBaseChar@@PBUWeaponAttribute@@@Z$8:
  0006c	8b 4d f0	 mov	 ecx, DWORD PTR _this$[ebp]
  0006f	81 c1 00 0a 00
	00		 add	 ecx, 2560		; 00000a00H
  00075	e9 00 00 00 00	 jmp	 ??1?$CEncrypt@M@@UAE@XZ	; CEncrypt<float>::~CEncrypt<float>
__unwindfunclet$??0ioGuide2Weapon@@QAE@PAVioBaseChar@@PBUWeaponAttribute@@@Z$9:
  0007a	8b 4d f0	 mov	 ecx, DWORD PTR _this$[ebp]
  0007d	81 c1 30 0a 00
	00		 add	 ecx, 2608		; 00000a30H
  00083	e9 00 00 00 00	 jmp	 ??1?$CEncrypt@K@@UAE@XZ	; CEncrypt<unsigned long>::~CEncrypt<unsigned long>
__unwindfunclet$??0ioGuide2Weapon@@QAE@PAVioBaseChar@@PBUWeaponAttribute@@@Z$10:
  00088	8b 4d f0	 mov	 ecx, DWORD PTR _this$[ebp]
  0008b	81 c1 64 0a 00
	00		 add	 ecx, 2660		; 00000a64H
  00091	ff 25 00 00 00
	00		 jmp	 DWORD PTR __imp_??1ioHashString@@QAE@XZ
__unwindfunclet$??0ioGuide2Weapon@@QAE@PAVioBaseChar@@PBUWeaponAttribute@@@Z$11:
  00097	8b 4d f0	 mov	 ecx, DWORD PTR _this$[ebp]
  0009a	81 c1 74 0a 00
	00		 add	 ecx, 2676		; 00000a74H
  000a0	ff 25 00 00 00
	00		 jmp	 DWORD PTR __imp_??1ioHashString@@QAE@XZ
__ehhandler$??0ioGuide2Weapon@@QAE@PAVioBaseChar@@PBUWeaponAttribute@@@Z:
  000a6	8b 54 24 08	 mov	 edx, DWORD PTR [esp+8]
  000aa	8d 42 0c	 lea	 eax, DWORD PTR [edx+12]
  000ad	8b 4a ec	 mov	 ecx, DWORD PTR [edx-20]
  000b0	33 c8		 xor	 ecx, eax
  000b2	e8 00 00 00 00	 call	 @__security_check_cookie@4
  000b7	b8 00 00 00 00	 mov	 eax, OFFSET __ehfuncinfo$??0ioGuide2Weapon@@QAE@PAVioBaseChar@@PBUWeaponAttribute@@@Z
  000bc	e9 00 00 00 00	 jmp	 ___CxxFrameHandler3
text$x	ENDS
??0ioGuide2Weapon@@QAE@PAVioBaseChar@@PBUWeaponAttribute@@@Z ENDP ; ioGuide2Weapon::ioGuide2Weapon
; Function compile flags: /Ogsp
;	COMDAT ??_GioGuide2Weapon@@UAEPAXI@Z
_TEXT	SEGMENT
___flags$ = 8						; size = 4
??_GioGuide2Weapon@@UAEPAXI@Z PROC			; ioGuide2Weapon::`scalar deleting destructor', COMDAT
; _this$ = ecx
  00000	55		 push	 ebp
  00001	8b ec		 mov	 ebp, esp
  00003	56		 push	 esi
  00004	8b f1		 mov	 esi, ecx
  00006	e8 00 00 00 00	 call	 ??1ioGuide2Weapon@@UAE@XZ ; ioGuide2Weapon::~ioGuide2Weapon
  0000b	f6 45 08 01	 test	 BYTE PTR ___flags$[ebp], 1
  0000f	74 07		 je	 SHORT $LN1@scalar@4
  00011	56		 push	 esi
  00012	e8 00 00 00 00	 call	 ??3@YAXPAX@Z		; operator delete
  00017	59		 pop	 ecx
$LN1@scalar@4:
  00018	8b c6		 mov	 eax, esi
  0001a	5e		 pop	 esi
  0001b	5d		 pop	 ebp
  0001c	c2 04 00	 ret	 4
??_GioGuide2Weapon@@UAEPAXI@Z ENDP			; ioGuide2Weapon::`scalar deleting destructor'
_TEXT	ENDS
EXTRN	?GetSingleConvertTeam@ioBaseChar@@QAE?AW4TeamType@@XZ:PROC ; ioBaseChar::GetSingleConvertTeam
EXTRN	?SetTeam@ioWeapon@@UAEXPAVioPlayStage@@W4TeamType@@@Z:PROC ; ioWeapon::SetTeam
;	COMDAT xdata$x
xdata$x	SEGMENT
__unwindtable$?SetTeam@ioGuide2Weapon@@UAEXPAVioPlayStage@@W4TeamType@@@Z DD 0ffffffffH
	DD	FLAT:__unwindfunclet$?SetTeam@ioGuide2Weapon@@UAEXPAVioPlayStage@@W4TeamType@@@Z$0
__ehfuncinfo$?SetTeam@ioGuide2Weapon@@UAEXPAVioPlayStage@@W4TeamType@@@Z DD 019930522H
	DD	01H
	DD	FLAT:__unwindtable$?SetTeam@ioGuide2Weapon@@UAEXPAVioPlayStage@@W4TeamType@@@Z
	DD	2 DUP(00H)
	DD	2 DUP(00H)
	DD	00H
	DD	01H
; Function compile flags: /Ogsp
xdata$x	ENDS
;	COMDAT ?SetTeam@ioGuide2Weapon@@UAEXPAVioPlayStage@@W4TeamType@@@Z
_TEXT	SEGMENT
_szCurWeaponEffect$ = -28				; size = 16
__$EHRec$ = -12						; size = 12
_pStage$ = 8						; size = 4
_eType$ = 12						; size = 4
?SetTeam@ioGuide2Weapon@@UAEXPAVioPlayStage@@W4TeamType@@@Z PROC ; ioGuide2Weapon::SetTeam, COMDAT
; _this$ = ecx

; 91   : {

  00000	6a 10		 push	 16			; 00000010H
  00002	b8 00 00 00 00	 mov	 eax, __ehhandler$?SetTeam@ioGuide2Weapon@@UAEXPAVioPlayStage@@W4TeamType@@@Z
  00007	e8 00 00 00 00	 call	 __EH_prolog3
  0000c	8b f1		 mov	 esi, ecx

; 92   : 	if( !pStage ) return;

  0000e	83 7d 08 00	 cmp	 DWORD PTR _pStage$[ebp], 0
  00012	0f 84 8d 00 00
	00		 je	 $LN9@SetTeam

; 93   : 
; 94   : 	ioWeapon::SetTeam( pStage, eType );

  00018	ff 75 0c	 push	 DWORD PTR _eType$[ebp]
  0001b	ff 75 08	 push	 DWORD PTR _pStage$[ebp]
  0001e	e8 00 00 00 00	 call	 ?SetTeam@ioWeapon@@UAEXPAVioPlayStage@@W4TeamType@@@Z ; ioWeapon::SetTeam

; 95   : 
; 96   : 	DestroyResource();

  00023	8b 06		 mov	 eax, DWORD PTR [esi]
  00025	6a 00		 push	 0
  00027	8b ce		 mov	 ecx, esi
  00029	ff 90 9c 00 00
	00		 call	 DWORD PTR [eax+156]

; 97   : 
; 98   : 	ioHashString szCurWeaponEffect;

  0002f	8d 4d e4	 lea	 ecx, DWORD PTR _szCurWeaponEffect$[ebp]
  00032	ff 15 00 00 00
	00		 call	 DWORD PTR __imp_??0ioHashString@@QAE@XZ
  00038	83 65 fc 00	 and	 DWORD PTR __$EHRec$[ebp+8], 0

; 99   : 
; 100  : 	if( eType == TEAM_BLUE )

  0003c	83 7d 0c 02	 cmp	 DWORD PTR _eType$[ebp], 2
  00040	75 08		 jne	 SHORT $LN7@SetTeam

; 101  : 	{
; 102  : 		szCurWeaponEffect = m_BlueTeamEffect;

  00042	8d 86 74 0a 00
	00		 lea	 eax, DWORD PTR [esi+2676]
  00048	eb 29		 jmp	 SHORT $LN13@SetTeam
$LN7@SetTeam:

; 103  : 	}
; 104  : 	else if( eType == TEAM_RED )

  0004a	83 7d 0c 01	 cmp	 DWORD PTR _eType$[ebp], 1

; 105  : 	{
; 106  : 		szCurWeaponEffect = m_RedTeamEffect;
; 107  : 	}
; 108  : 	else //

  0004e	74 1d		 je	 SHORT $LN3@SetTeam

; 109  : 	{
; 110  : 		ioBaseChar *pOwner = GetOwner();

  00050	8b ce		 mov	 ecx, esi
  00052	e8 00 00 00 00	 call	 ?GetOwner@ioWeapon@@QBEPAVioBaseChar@@XZ ; ioWeapon::GetOwner

; 111  : 		if( pOwner && pOwner->GetSingleConvertTeam() == TEAM_BLUE )

  00057	85 c0		 test	 eax, eax
  00059	74 12		 je	 SHORT $LN3@SetTeam
  0005b	8b c8		 mov	 ecx, eax
  0005d	e8 00 00 00 00	 call	 ?GetSingleConvertTeam@ioBaseChar@@QAE?AW4TeamType@@XZ ; ioBaseChar::GetSingleConvertTeam
  00062	83 f8 02	 cmp	 eax, 2

; 112  : 		{
; 113  : 			szCurWeaponEffect = m_BlueTeamEffect;

  00065	8d 86 74 0a 00
	00		 lea	 eax, DWORD PTR [esi+2676]
  0006b	74 06		 je	 SHORT $LN13@SetTeam
$LN3@SetTeam:

; 114  : 		}
; 115  : 		else
; 116  : 		{
; 117  : 			szCurWeaponEffect = m_RedTeamEffect;

  0006d	8d 86 64 0a 00
	00		 lea	 eax, DWORD PTR [esi+2660]
$LN13@SetTeam:
  00073	50		 push	 eax
  00074	8d 4d e4	 lea	 ecx, DWORD PTR _szCurWeaponEffect$[ebp]
  00077	ff 15 00 00 00
	00		 call	 DWORD PTR __imp_??4ioHashString@@QAEAAV0@ABV0@@Z

; 118  : 		}
; 119  : 	}
; 120  : 
; 121  : 	if( !SetFireMesh( szCurWeaponEffect ) )

  0007d	8d 45 e4	 lea	 eax, DWORD PTR _szCurWeaponEffect$[ebp]
  00080	50		 push	 eax
  00081	8b ce		 mov	 ecx, esi
  00083	e8 00 00 00 00	 call	 ?SetFireMesh@ioGuide2Weapon@@IAE_NABVioHashString@@@Z ; ioGuide2Weapon::SetFireMesh
  00088	84 c0		 test	 al, al
  0008a	75 0c		 jne	 SHORT $LN1@SetTeam

; 122  : 		DestroyResource();

  0008c	8b 06		 mov	 eax, DWORD PTR [esi]
  0008e	6a 00		 push	 0
  00090	8b ce		 mov	 ecx, esi
  00092	ff 90 9c 00 00
	00		 call	 DWORD PTR [eax+156]
$LN1@SetTeam:

; 123  : }

  00098	83 4d fc ff	 or	 DWORD PTR __$EHRec$[ebp+8], -1
  0009c	8d 4d e4	 lea	 ecx, DWORD PTR _szCurWeaponEffect$[ebp]
  0009f	ff 15 00 00 00
	00		 call	 DWORD PTR __imp_??1ioHashString@@QAE@XZ
$LN9@SetTeam:
  000a5	e8 00 00 00 00	 call	 __EH_epilog3
  000aa	c2 08 00	 ret	 8
_TEXT	ENDS
;	COMDAT text$x
text$x	SEGMENT
__unwindfunclet$?SetTeam@ioGuide2Weapon@@UAEXPAVioPlayStage@@W4TeamType@@@Z$0:
  00000	8d 4d e4	 lea	 ecx, DWORD PTR _szCurWeaponEffect$[ebp]
  00003	ff 25 00 00 00
	00		 jmp	 DWORD PTR __imp_??1ioHashString@@QAE@XZ
__ehhandler$?SetTeam@ioGuide2Weapon@@UAEXPAVioPlayStage@@W4TeamType@@@Z:
  00009	8b 54 24 08	 mov	 edx, DWORD PTR [esp+8]
  0000d	8d 42 0c	 lea	 eax, DWORD PTR [edx+12]
  00010	8b 4a e0	 mov	 ecx, DWORD PTR [edx-32]
  00013	33 c8		 xor	 ecx, eax
  00015	e8 00 00 00 00	 call	 @__security_check_cookie@4
  0001a	b8 00 00 00 00	 mov	 eax, OFFSET __ehfuncinfo$?SetTeam@ioGuide2Weapon@@UAEXPAVioPlayStage@@W4TeamType@@@Z
  0001f	e9 00 00 00 00	 jmp	 ___CxxFrameHandler3
text$x	ENDS
?SetTeam@ioGuide2Weapon@@UAEXPAVioPlayStage@@W4TeamType@@@Z ENDP ; ioGuide2Weapon::SetTeam
PUBLIC	__real@00000000
PUBLIC	?GetMoveSpeed@ioGuide2Weapon@@IAEMXZ		; ioGuide2Weapon::GetMoveSpeed
;	COMDAT __real@00000000
; File d:\lost saga for developer\youtube\tutorial\source\src\lsclient\encryptvalue.h
CONST	SEGMENT
__real@00000000 DD 000000000r			; 0
; Function compile flags: /Ogsp
; File d:\lost saga for developer\youtube\tutorial\source\src\lsclient\ioguide2weapon.cpp
CONST	ENDS
;	COMDAT ?GetMoveSpeed@ioGuide2Weapon@@IAEMXZ
_TEXT	SEGMENT
tv172 = -4						; size = 4
_value$586740 = -4					; size = 4
_value$586732 = -4					; size = 4
_value$586736 = -4					; size = 4
?GetMoveSpeed@ioGuide2Weapon@@IAEMXZ PROC		; ioGuide2Weapon::GetMoveSpeed, COMDAT
; _this$ = ecx

; 514  : {

  00000	55		 push	 ebp
  00001	8b ec		 mov	 ebp, esp
  00003	51		 push	 ecx
  00004	53		 push	 ebx
  00005	56		 push	 esi
  00006	57		 push	 edi
  00007	8b f1		 mov	 esi, ecx

; 515  : 	DWORD dwCurTime = FRAMEGETTIME();

  00009	ff 15 00 00 00
	00		 call	 DWORD PTR __imp_?GetSingleton@ioFrameTimer@@SAAAV1@XZ
  0000f	8b c8		 mov	 ecx, eax
  00011	ff 15 00 00 00
	00		 call	 DWORD PTR __imp_?GetLoopSec@ioFrameTimer@@QBEKXZ
  00017	8b d8		 mov	 ebx, eax

; 516  : 	if( m_dwMoveDelayTime > 0 && m_dwCreatedTime+m_dwMoveDelayTime >= dwCurTime )

  00019	8d 45 fc	 lea	 eax, DWORD PTR _value$586732[ebp]
  0001c	50		 push	 eax
  0001d	8d 8e 28 07 00
	00		 lea	 ecx, DWORD PTR [esi+1832]
  00023	e8 00 00 00 00	 call	 ?DecryptValueToPool@?$CEncrypt@K@@QAEXPAK@Z ; CEncrypt<unsigned long>::DecryptValueToPool
  00028	83 7d fc 00	 cmp	 DWORD PTR _value$586732[ebp], 0
  0002c	76 20		 jbe	 SHORT $LN2@GetMoveSpe
  0002e	8d 45 fc	 lea	 eax, DWORD PTR _value$586736[ebp]
  00031	50		 push	 eax
  00032	8d 8e 28 07 00
	00		 lea	 ecx, DWORD PTR [esi+1832]
  00038	e8 00 00 00 00	 call	 ?DecryptValueToPool@?$CEncrypt@K@@QAEXPAK@Z ; CEncrypt<unsigned long>::DecryptValueToPool
  0003d	8b 86 d4 04 00
	00		 mov	 eax, DWORD PTR [esi+1236]
  00043	03 45 fc	 add	 eax, DWORD PTR _value$586736[ebp]
  00046	3b c3		 cmp	 eax, ebx
  00048	72 04		 jb	 SHORT $LN2@GetMoveSpe

; 517  : 		return 0.0f;

  0004a	d9 ee		 fldz
  0004c	eb 49		 jmp	 SHORT $LN3@GetMoveSpe
$LN2@GetMoveSpe:

; 518  : 
; 519  : 	if( m_fCurMoveSpeed == 0.0f )

  0004e	f3 0f 10 86 88
	0a 00 00	 movss	 xmm0, DWORD PTR [esi+2696]
  00056	0f 2e 05 00 00
	00 00		 ucomiss xmm0, DWORD PTR __real@00000000
  0005d	9f		 lahf
  0005e	f6 c4 44	 test	 ah, 68			; 00000044H
  00061	7a 16		 jp	 SHORT $LN1@GetMoveSpe

; 520  : 		m_fCurMoveSpeed = GetAttribute()->m_fMoveSpeed;

  00063	8b 06		 mov	 eax, DWORD PTR [esi]
  00065	8b ce		 mov	 ecx, esi
  00067	ff 90 3c 01 00
	00		 call	 DWORD PTR [eax+316]
  0006d	d9 80 98 01 00
	00		 fld	 DWORD PTR [eax+408]
  00073	d9 9e 88 0a 00
	00		 fstp	 DWORD PTR [esi+2696]
$LN1@GetMoveSpe:

; 521  : 
; 522  : 	return m_fCurMoveSpeed * m_fOwnerChargeSpeedRate;

  00079	8d 45 fc	 lea	 eax, DWORD PTR _value$586740[ebp]
  0007c	50		 push	 eax
  0007d	8d 8e 20 01 00
	00		 lea	 ecx, DWORD PTR [esi+288]
  00083	e8 00 00 00 00	 call	 ?DecryptValueToPool@?$CEncrypt@M@@QAEXPAM@Z ; CEncrypt<float>::DecryptValueToPool
  00088	d9 86 88 0a 00
	00		 fld	 DWORD PTR [esi+2696]
  0008e	d8 4d fc	 fmul	 DWORD PTR _value$586740[ebp]
  00091	d9 5d fc	 fstp	 DWORD PTR tv172[ebp]
  00094	d9 45 fc	 fld	 DWORD PTR tv172[ebp]
$LN3@GetMoveSpe:
  00097	5f		 pop	 edi
  00098	5e		 pop	 esi
  00099	5b		 pop	 ebx

; 523  : }

  0009a	c9		 leave
  0009b	c3		 ret	 0
?GetMoveSpeed@ioGuide2Weapon@@IAEMXZ ENDP		; ioGuide2Weapon::GetMoveSpeed
_TEXT	ENDS
PUBLIC	?GetMaxRange@ioGuide2Weapon@@QAEMXZ		; ioGuide2Weapon::GetMaxRange
; Function compile flags: /Ogsp
;	COMDAT ?GetMaxRange@ioGuide2Weapon@@QAEMXZ
_TEXT	SEGMENT
tv136 = -4						; size = 4
_value$586746 = -4					; size = 4
?GetMaxRange@ioGuide2Weapon@@QAEMXZ PROC		; ioGuide2Weapon::GetMaxRange, COMDAT
; _this$ = ecx

; 526  : {

  00000	55		 push	 ebp
  00001	8b ec		 mov	 ebp, esp
  00003	51		 push	 ecx
  00004	56		 push	 esi
  00005	8b f1		 mov	 esi, ecx

; 527  : 	return GetAttribute()->m_fMoveRange * m_fOwnerChargeRangeRate;

  00007	8d 45 fc	 lea	 eax, DWORD PTR _value$586746[ebp]
  0000a	50		 push	 eax
  0000b	8d 8e f0 00 00
	00		 lea	 ecx, DWORD PTR [esi+240]
  00011	e8 00 00 00 00	 call	 ?DecryptValueToPool@?$CEncrypt@M@@QAEXPAM@Z ; CEncrypt<float>::DecryptValueToPool
  00016	8b 06		 mov	 eax, DWORD PTR [esi]
  00018	8b ce		 mov	 ecx, esi
  0001a	ff 90 3c 01 00
	00		 call	 DWORD PTR [eax+316]
  00020	d9 80 9c 01 00
	00		 fld	 DWORD PTR [eax+412]
  00026	d8 4d fc	 fmul	 DWORD PTR _value$586746[ebp]
  00029	5e		 pop	 esi
  0002a	d9 5d fc	 fstp	 DWORD PTR tv136[ebp]
  0002d	d9 45 fc	 fld	 DWORD PTR tv136[ebp]

; 528  : }

  00030	c9		 leave
  00031	c3		 ret	 0
?GetMaxRange@ioGuide2Weapon@@QAEMXZ ENDP		; ioGuide2Weapon::GetMaxRange
_TEXT	ENDS
PUBLIC	__real@4f800000
PUBLIC	__$ArrayPad$
EXTRN	__imp_?SetNull@ioOrientBox@@QAEXXZ:PROC
EXTRN	__imp_?Transform@ioOrientBox@@QAEXABUD3DXVECTOR3@@0ABUD3DXQUATERNION@@@Z:PROC
EXTRN	?GetOrientation@ioWeapon@@QBEABUD3DXQUATERNION@@XZ:PROC ; ioWeapon::GetOrientation
EXTRN	__imp_?IsNull@ioOrientBox@@QBE_NXZ:PROC
EXTRN	__imp_?SetExtents@ioOrientBox@@QAEXHM@Z:PROC
EXTRN	__imp_?GetExtents@ioOrientBox@@QBEMH@Z:PROC
;	COMDAT __real@4f800000
; File c:\program files (x86)\microsoft directx sdk (june 2010)\include\d3dx9math.inl
CONST	SEGMENT
__real@4f800000 DD 04f800000r			; 4.29497e+009
; Function compile flags: /Ogsp
; File d:\lost saga for developer\youtube\tutorial\source\src\lsclient\ioguide2weapon.cpp
CONST	ENDS
;	COMDAT ?UpdateWorldAttackBox@ioGuide2Weapon@@MAEXM_N@Z
_TEXT	SEGMENT
tv397 = -32						; size = 4
_value$586772 = -32					; size = 4
tv417 = -28						; size = 4
tv399 = -28						; size = 4
_value$586777 = -24					; size = 4
$T586760 = -24						; size = 4
_fMapCollisionRate$ = -24				; size = 4
tv411 = -20						; size = 4
tv405 = -20						; size = 4
_value$586782 = -20					; size = 4
_value$586768 = -20					; size = 4
_vScale$583364 = -16					; size = 12
__$ArrayPad$ = -4					; size = 4
_fTimePerSec$ = 8					; size = 4
_bSetNull$ = 12						; size = 1
?UpdateWorldAttackBox@ioGuide2Weapon@@MAEXM_N@Z PROC	; ioGuide2Weapon::UpdateWorldAttackBox, COMDAT
; _this$ = ecx

; 531  : {

  00000	55		 push	 ebp
  00001	8b ec		 mov	 ebp, esp
  00003	83 ec 20	 sub	 esp, 32			; 00000020H
  00006	a1 00 00 00 00	 mov	 eax, DWORD PTR ___security_cookie
  0000b	33 c5		 xor	 eax, ebp
  0000d	89 45 fc	 mov	 DWORD PTR __$ArrayPad$[ebp], eax
  00010	53		 push	 ebx
  00011	8b d9		 mov	 ebx, ecx

; 532  : 	if( !IsLive() || bSetNull )

  00013	80 bb 82 05 00
	00 00		 cmp	 BYTE PTR [ebx+1410], 0
  0001a	56		 push	 esi
  0001b	57		 push	 edi
  0001c	0f 84 b7 01 00
	00		 je	 $LN4@UpdateWorl
  00022	80 7d 0c 00	 cmp	 BYTE PTR _bSetNull$[ebp], 0
  00026	0f 85 ad 01 00
	00		 jne	 $LN4@UpdateWorl

; 536  : 		return;
; 537  : 	}
; 538  : 
; 539  : 	m_WorldAttackBox = GetLocalAttackBox();

  0002c	8b 03		 mov	 eax, DWORD PTR [ebx]
  0002e	ff 90 00 01 00
	00		 call	 DWORD PTR [eax+256]
  00034	6a 11		 push	 17			; 00000011H
  00036	59		 pop	 ecx
  00037	8b f0		 mov	 esi, eax
  00039	8d bb e8 04 00
	00		 lea	 edi, DWORD PTR [ebx+1256]
  0003f	f3 a5		 rep movsd

; 540  : 	m_WorldAttackBoxForMap = m_WorldAttackBox;

  00041	6a 11		 push	 17			; 00000011H
  00043	8b f0		 mov	 esi, eax

; 541  : 
; 542  : 	float fMapCollisionRate = GetAttribute()->m_fMapCollisionBoxRate;

  00045	8b 03		 mov	 eax, DWORD PTR [ebx]
  00047	59		 pop	 ecx
  00048	8d bb 2c 05 00
	00		 lea	 edi, DWORD PTR [ebx+1324]
  0004e	f3 a5		 rep movsd
  00050	8b cb		 mov	 ecx, ebx
  00052	ff 90 3c 01 00
	00		 call	 DWORD PTR [eax+316]

; 543  : 	m_WorldAttackBoxForMap.SetExtents( 0, m_WorldAttackBox.GetExtents(0)*fMapCollisionRate );

  00058	6a 00		 push	 0
  0005a	d9 80 a8 01 00
	00		 fld	 DWORD PTR [eax+424]
  00060	8d 8b e8 04 00
	00		 lea	 ecx, DWORD PTR [ebx+1256]
  00066	d9 5d e8	 fstp	 DWORD PTR _fMapCollisionRate$[ebp]
  00069	ff 15 00 00 00
	00		 call	 DWORD PTR __imp_?GetExtents@ioOrientBox@@QBEMH@Z
  0006f	d8 4d e8	 fmul	 DWORD PTR _fMapCollisionRate$[ebp]
  00072	8b 35 00 00 00
	00		 mov	 esi, DWORD PTR __imp_?SetExtents@ioOrientBox@@QAEXHM@Z
  00078	51		 push	 ecx
  00079	8d 8b 2c 05 00
	00		 lea	 ecx, DWORD PTR [ebx+1324]
  0007f	d9 5d e4	 fstp	 DWORD PTR tv417[ebp]
  00082	d9 45 e4	 fld	 DWORD PTR tv417[ebp]
  00085	89 4d e4	 mov	 DWORD PTR tv399[ebp], ecx
  00088	d9 1c 24	 fstp	 DWORD PTR [esp]
  0008b	6a 00		 push	 0
  0008d	ff d6		 call	 esi

; 544  : 	m_WorldAttackBoxForMap.SetExtents( 1, m_WorldAttackBox.GetExtents(1)*fMapCollisionRate );

  0008f	6a 01		 push	 1
  00091	8d 8b e8 04 00
	00		 lea	 ecx, DWORD PTR [ebx+1256]
  00097	ff 15 00 00 00
	00		 call	 DWORD PTR __imp_?GetExtents@ioOrientBox@@QBEMH@Z
  0009d	d8 4d e8	 fmul	 DWORD PTR _fMapCollisionRate$[ebp]
  000a0	51		 push	 ecx
  000a1	8b 4d e4	 mov	 ecx, DWORD PTR tv399[ebp]
  000a4	d9 5d ec	 fstp	 DWORD PTR tv411[ebp]
  000a7	d9 45 ec	 fld	 DWORD PTR tv411[ebp]
  000aa	d9 1c 24	 fstp	 DWORD PTR [esp]
  000ad	6a 01		 push	 1
  000af	ff d6		 call	 esi

; 545  : 	m_WorldAttackBoxForMap.SetExtents( 2, m_WorldAttackBox.GetExtents(2)*fMapCollisionRate );

  000b1	6a 02		 push	 2
  000b3	8d 8b e8 04 00
	00		 lea	 ecx, DWORD PTR [ebx+1256]
  000b9	ff 15 00 00 00
	00		 call	 DWORD PTR __imp_?GetExtents@ioOrientBox@@QBEMH@Z
  000bf	d8 4d e8	 fmul	 DWORD PTR _fMapCollisionRate$[ebp]
  000c2	51		 push	 ecx
  000c3	8b 4d e4	 mov	 ecx, DWORD PTR tv399[ebp]
  000c6	d9 5d ec	 fstp	 DWORD PTR tv405[ebp]
  000c9	d9 45 ec	 fld	 DWORD PTR tv405[ebp]
  000cc	d9 1c 24	 fstp	 DWORD PTR [esp]
  000cf	6a 02		 push	 2
  000d1	ff d6		 call	 esi

; 546  : 
; 547  : 	if( !m_WorldAttackBox.IsNull() )

  000d3	8d 8b e8 04 00
	00		 lea	 ecx, DWORD PTR [ebx+1256]
  000d9	ff 15 00 00 00
	00		 call	 DWORD PTR __imp_?IsNull@ioOrientBox@@QBE_NXZ
  000df	84 c0		 test	 al, al
  000e1	0f 85 08 01 00
	00		 jne	 $LN1@UpdateWorl

; 548  : 	{
; 549  : 		if( m_fOwnerChargeScaleRate > FLOAT1 )

  000e7	b8 01 00 00 00	 mov	 eax, 1
  000ec	89 45 e8	 mov	 DWORD PTR $T586760[ebp], eax
  000ef	8d 45 ec	 lea	 eax, DWORD PTR _value$586768[ebp]
  000f2	50		 push	 eax
  000f3	8d 8b b0 01 00
	00		 lea	 ecx, DWORD PTR [ebx+432]
  000f9	e8 00 00 00 00	 call	 ?DecryptValueToPool@?$CEncrypt@M@@QAEXPAM@Z ; CEncrypt<float>::DecryptValueToPool
  000fe	d9 45 ec	 fld	 DWORD PTR _value$586768[ebp]
  00101	8b 45 e8	 mov	 eax, DWORD PTR $T586760[ebp]
  00104	db 45 e8	 fild	 DWORD PTR $T586760[ebp]
  00107	85 c0		 test	 eax, eax
  00109	79 06		 jns	 SHORT $LN25@UpdateWorl
  0010b	d8 05 00 00 00
	00		 fadd	 DWORD PTR __real@4f800000
$LN25@UpdateWorl:
  00111	d9 c9		 fxch	 ST(1)
  00113	df f1		 fcomip	 ST(1)
  00115	dd d8		 fstp	 ST(0)
  00117	0f 86 88 00 00
	00		 jbe	 $LN2@UpdateWorl

; 550  : 		{
; 551  : 			D3DXVECTOR3 vScale( m_fOwnerChargeScaleRate, m_fOwnerChargeScaleRate, m_fOwnerChargeScaleRate );

  0011d	8d 45 e0	 lea	 eax, DWORD PTR _value$586772[ebp]
  00120	50		 push	 eax
  00121	8d 8b b0 01 00
	00		 lea	 ecx, DWORD PTR [ebx+432]
  00127	e8 00 00 00 00	 call	 ?DecryptValueToPool@?$CEncrypt@M@@QAEXPAM@Z ; CEncrypt<float>::DecryptValueToPool
  0012c	8d 45 e8	 lea	 eax, DWORD PTR _value$586777[ebp]
  0012f	50		 push	 eax
  00130	8d 8b b0 01 00
	00		 lea	 ecx, DWORD PTR [ebx+432]
  00136	e8 00 00 00 00	 call	 ?DecryptValueToPool@?$CEncrypt@M@@QAEXPAM@Z ; CEncrypt<float>::DecryptValueToPool
  0013b	8d 45 ec	 lea	 eax, DWORD PTR _value$586782[ebp]
  0013e	50		 push	 eax
  0013f	8d 8b b0 01 00
	00		 lea	 ecx, DWORD PTR [ebx+432]
  00145	e8 00 00 00 00	 call	 ?DecryptValueToPool@?$CEncrypt@M@@QAEXPAM@Z ; CEncrypt<float>::DecryptValueToPool
  0014a	f3 0f 10 45 ec	 movss	 xmm0, DWORD PTR _value$586782[ebp]
  0014f	f3 0f 11 45 f0	 movss	 DWORD PTR _vScale$583364[ebp], xmm0
  00154	f3 0f 10 45 e8	 movss	 xmm0, DWORD PTR _value$586777[ebp]
  00159	f3 0f 11 45 f4	 movss	 DWORD PTR _vScale$583364[ebp+4], xmm0
  0015e	f3 0f 10 45 e0	 movss	 xmm0, DWORD PTR _value$586772[ebp]

; 552  : 			m_WorldAttackBox.Transform( GetPosition(), vScale, GetOrientation() );

  00163	8b cb		 mov	 ecx, ebx
  00165	f3 0f 11 45 f8	 movss	 DWORD PTR _vScale$583364[ebp+8], xmm0
  0016a	e8 00 00 00 00	 call	 ?GetOrientation@ioWeapon@@QBEABUD3DXQUATERNION@@XZ ; ioWeapon::GetOrientation
  0016f	50		 push	 eax
  00170	8d 45 f0	 lea	 eax, DWORD PTR _vScale$583364[ebp]
  00173	50		 push	 eax
  00174	8b 03		 mov	 eax, DWORD PTR [ebx]
  00176	8b cb		 mov	 ecx, ebx
  00178	ff 50 70	 call	 DWORD PTR [eax+112]
  0017b	8b 35 00 00 00
	00		 mov	 esi, DWORD PTR __imp_?Transform@ioOrientBox@@QAEXABUD3DXVECTOR3@@0ABUD3DXQUATERNION@@@Z
  00181	50		 push	 eax
  00182	8d 8b e8 04 00
	00		 lea	 ecx, DWORD PTR [ebx+1256]
  00188	ff d6		 call	 esi

; 553  : 			m_WorldAttackBoxForMap.Transform( GetPosition(), vScale, GetOrientation() );

  0018a	8b cb		 mov	 ecx, ebx
  0018c	e8 00 00 00 00	 call	 ?GetOrientation@ioWeapon@@QBEABUD3DXQUATERNION@@XZ ; ioWeapon::GetOrientation
  00191	50		 push	 eax
  00192	8d 45 f0	 lea	 eax, DWORD PTR _vScale$583364[ebp]
  00195	50		 push	 eax
$LN26@UpdateWorl:
  00196	8b 03		 mov	 eax, DWORD PTR [ebx]
  00198	8b cb		 mov	 ecx, ebx
  0019a	ff 50 70	 call	 DWORD PTR [eax+112]
  0019d	8b 4d e4	 mov	 ecx, DWORD PTR tv399[ebp]
  001a0	50		 push	 eax
  001a1	ff d6		 call	 esi

; 554  : 		}
; 555  : 		else

  001a3	eb 4a		 jmp	 SHORT $LN1@UpdateWorl
$LN2@UpdateWorl:

; 556  : 		{
; 557  : 			m_WorldAttackBox.Transform( GetPosition(), ioMath::UNIT_ALL, GetOrientation() );

  001a5	8b cb		 mov	 ecx, ebx
  001a7	e8 00 00 00 00	 call	 ?GetOrientation@ioWeapon@@QBEABUD3DXQUATERNION@@XZ ; ioWeapon::GetOrientation
  001ac	50		 push	 eax
  001ad	ff 35 00 00 00
	00		 push	 DWORD PTR __imp_?UNIT_ALL@ioMath@@2UD3DXVECTOR3@@A
  001b3	8b 03		 mov	 eax, DWORD PTR [ebx]
  001b5	8b cb		 mov	 ecx, ebx
  001b7	ff 50 70	 call	 DWORD PTR [eax+112]
  001ba	8b 35 00 00 00
	00		 mov	 esi, DWORD PTR __imp_?Transform@ioOrientBox@@QAEXABUD3DXVECTOR3@@0ABUD3DXQUATERNION@@@Z
  001c0	50		 push	 eax
  001c1	8d 8b e8 04 00
	00		 lea	 ecx, DWORD PTR [ebx+1256]
  001c7	ff d6		 call	 esi

; 558  : 			m_WorldAttackBoxForMap.Transform( GetPosition(), ioMath::UNIT_ALL, GetOrientation() );

  001c9	8b cb		 mov	 ecx, ebx
  001cb	e8 00 00 00 00	 call	 ?GetOrientation@ioWeapon@@QBEABUD3DXQUATERNION@@XZ ; ioWeapon::GetOrientation
  001d0	50		 push	 eax
  001d1	ff 35 00 00 00
	00		 push	 DWORD PTR __imp_?UNIT_ALL@ioMath@@2UD3DXVECTOR3@@A
  001d7	eb bd		 jmp	 SHORT $LN26@UpdateWorl
$LN4@UpdateWorl:

; 533  : 	{
; 534  : 		m_WorldAttackBox.SetNull();

  001d9	8b 35 00 00 00
	00		 mov	 esi, DWORD PTR __imp_?SetNull@ioOrientBox@@QAEXXZ
  001df	8d 8b e8 04 00
	00		 lea	 ecx, DWORD PTR [ebx+1256]
  001e5	ff d6		 call	 esi

; 535  : 		m_WorldAttackBoxForMap.SetNull();

  001e7	8d 8b 2c 05 00
	00		 lea	 ecx, DWORD PTR [ebx+1324]
  001ed	ff d6		 call	 esi
$LN1@UpdateWorl:

; 559  : 		}
; 560  : 	}
; 561  : }

  001ef	8b 4d fc	 mov	 ecx, DWORD PTR __$ArrayPad$[ebp]
  001f2	5f		 pop	 edi
  001f3	5e		 pop	 esi
  001f4	33 cd		 xor	 ecx, ebp
  001f6	5b		 pop	 ebx
  001f7	e8 00 00 00 00	 call	 @__security_check_cookie@4
  001fc	c9		 leave
  001fd	c2 08 00	 ret	 8
?UpdateWorldAttackBox@ioGuide2Weapon@@MAEXM_N@Z ENDP	; ioGuide2Weapon::UpdateWorldAttackBox
_TEXT	ENDS
PUBLIC	__$ArrayPad$
; Function compile flags: /Ogsp
;	COMDAT ?SetOwnerChargeScaleRate@ioGuide2Weapon@@UAEXM@Z
_TEXT	SEGMENT
_value$586821 = -28					; size = 4
tv217 = -24						; size = 4
_value$586816 = -24					; size = 4
_value$586826 = -20					; size = 4
_value$586812 = -20					; size = 4
_value$586800 = -20					; size = 4
_vScale$583435 = -16					; size = 12
__$ArrayPad$ = -4					; size = 4
_fRate$ = 8						; size = 4
?SetOwnerChargeScaleRate@ioGuide2Weapon@@UAEXM@Z PROC	; ioGuide2Weapon::SetOwnerChargeScaleRate, COMDAT
; _this$ = ecx

; 686  : {

  00000	55		 push	 ebp
  00001	8b ec		 mov	 ebp, esp
  00003	83 ec 1c	 sub	 esp, 28			; 0000001cH
  00006	a1 00 00 00 00	 mov	 eax, DWORD PTR ___security_cookie
  0000b	33 c5		 xor	 eax, ebp
  0000d	89 45 fc	 mov	 DWORD PTR __$ArrayPad$[ebp], eax

; 687  : 	m_fOwnerChargeScaleRate = fRate;

  00010	f3 0f 10 45 08	 movss	 xmm0, DWORD PTR _fRate$[ebp]
  00015	53		 push	 ebx
  00016	56		 push	 esi
  00017	57		 push	 edi
  00018	8b f9		 mov	 edi, ecx
  0001a	8d 45 ec	 lea	 eax, DWORD PTR _value$586800[ebp]
  0001d	50		 push	 eax
  0001e	8d 8f b0 01 00
	00		 lea	 ecx, DWORD PTR [edi+432]
  00024	f3 0f 11 45 ec	 movss	 DWORD PTR _value$586800[ebp], xmm0
  00029	e8 00 00 00 00	 call	 ?EncryptValueToPool@?$CEncrypt@M@@AAEXPBD@Z ; CEncrypt<float>::EncryptValueToPool

; 688  : 
; 689  : 	if( m_fOwnerChargeScaleRate > FLOAT1 )

  0002e	b8 01 00 00 00	 mov	 eax, 1
  00033	8b d8		 mov	 ebx, eax
  00035	8d 45 ec	 lea	 eax, DWORD PTR _value$586812[ebp]
  00038	50		 push	 eax
  00039	8d 8f b0 01 00
	00		 lea	 ecx, DWORD PTR [edi+432]
  0003f	e8 00 00 00 00	 call	 ?DecryptValueToPool@?$CEncrypt@M@@QAEXPAM@Z ; CEncrypt<float>::DecryptValueToPool
  00044	d9 45 ec	 fld	 DWORD PTR _value$586812[ebp]
  00047	89 5d e8	 mov	 DWORD PTR tv217[ebp], ebx
  0004a	db 45 e8	 fild	 DWORD PTR tv217[ebp]
  0004d	85 db		 test	 ebx, ebx
  0004f	79 06		 jns	 SHORT $LN23@SetOwnerCh
  00051	d8 05 00 00 00
	00		 fadd	 DWORD PTR __real@4f800000
$LN23@SetOwnerCh:
  00057	d9 c9		 fxch	 ST(1)
  00059	df f1		 fcomip	 ST(1)
  0005b	dd d8		 fstp	 ST(0)
  0005d	76 57		 jbe	 SHORT $LN1@SetOwnerCh

; 690  : 	{
; 691  : 		D3DXVECTOR3 vScale( m_fOwnerChargeScaleRate, m_fOwnerChargeScaleRate, m_fOwnerChargeScaleRate );

  0005f	8d 45 e8	 lea	 eax, DWORD PTR _value$586816[ebp]
  00062	50		 push	 eax
  00063	8d 8f b0 01 00
	00		 lea	 ecx, DWORD PTR [edi+432]
  00069	e8 00 00 00 00	 call	 ?DecryptValueToPool@?$CEncrypt@M@@QAEXPAM@Z ; CEncrypt<float>::DecryptValueToPool
  0006e	8d 45 e4	 lea	 eax, DWORD PTR _value$586821[ebp]
  00071	50		 push	 eax
  00072	8d 8f b0 01 00
	00		 lea	 ecx, DWORD PTR [edi+432]
  00078	e8 00 00 00 00	 call	 ?DecryptValueToPool@?$CEncrypt@M@@QAEXPAM@Z ; CEncrypt<float>::DecryptValueToPool
  0007d	8d 45 ec	 lea	 eax, DWORD PTR _value$586826[ebp]
  00080	50		 push	 eax
  00081	8d 8f b0 01 00
	00		 lea	 ecx, DWORD PTR [edi+432]
  00087	e8 00 00 00 00	 call	 ?DecryptValueToPool@?$CEncrypt@M@@QAEXPAM@Z ; CEncrypt<float>::DecryptValueToPool
  0008c	f3 0f 10 45 ec	 movss	 xmm0, DWORD PTR _value$586826[ebp]

; 692  : 		GetParentSceneNode()->SetScale( vScale );

  00091	8b 4f 04	 mov	 ecx, DWORD PTR [edi+4]
  00094	f3 0f 11 45 f0	 movss	 DWORD PTR _vScale$583435[ebp], xmm0
  00099	f3 0f 10 45 e4	 movss	 xmm0, DWORD PTR _value$586821[ebp]
  0009e	f3 0f 11 45 f4	 movss	 DWORD PTR _vScale$583435[ebp+4], xmm0
  000a3	f3 0f 10 45 e8	 movss	 xmm0, DWORD PTR _value$586816[ebp]
  000a8	8d 55 f0	 lea	 edx, DWORD PTR _vScale$583435[ebp]
  000ab	f3 0f 11 45 f8	 movss	 DWORD PTR _vScale$583435[ebp+8], xmm0
  000b0	8b 01		 mov	 eax, DWORD PTR [ecx]
  000b2	52		 push	 edx
  000b3	ff 50 20	 call	 DWORD PTR [eax+32]
$LN1@SetOwnerCh:

; 693  : 	}
; 694  : }

  000b6	8b 4d fc	 mov	 ecx, DWORD PTR __$ArrayPad$[ebp]
  000b9	5f		 pop	 edi
  000ba	5e		 pop	 esi
  000bb	33 cd		 xor	 ecx, ebp
  000bd	5b		 pop	 ebx
  000be	e8 00 00 00 00	 call	 @__security_check_cookie@4
  000c3	c9		 leave
  000c4	c2 04 00	 ret	 4
?SetOwnerChargeScaleRate@ioGuide2Weapon@@UAEXM@Z ENDP	; ioGuide2Weapon::SetOwnerChargeScaleRate
_TEXT	ENDS
PUBLIC	?SetTraceState@ioGuide2Weapon@@QAEXPAVioPlayStage@@@Z ; ioGuide2Weapon::SetTraceState
; Function compile flags: /Ogsp
;	COMDAT ?SetTraceState@ioGuide2Weapon@@QAEXPAVioPlayStage@@@Z
_TEXT	SEGMENT
_value$586843 = -4					; size = 4
_pStage$ = 8						; size = 4
?SetTraceState@ioGuide2Weapon@@QAEXPAVioPlayStage@@@Z PROC ; ioGuide2Weapon::SetTraceState, COMDAT
; _this$ = ecx

; 810  : {

  00000	55		 push	 ebp
  00001	8b ec		 mov	 ebp, esp
  00003	51		 push	 ecx
  00004	56		 push	 esi
  00005	8b f1		 mov	 esi, ecx

; 811  : 	m_WeaponState = WS_TRACING;
; 812  : 	m_dwTraceEndTime = FRAMEGETTIME() + m_dwTraceDuration;

  00007	8d 45 fc	 lea	 eax, DWORD PTR _value$586843[ebp]
  0000a	50		 push	 eax
  0000b	8d 8e 30 0a 00
	00		 lea	 ecx, DWORD PTR [esi+2608]
  00011	c7 86 94 08 00
	00 01 00 00 00	 mov	 DWORD PTR [esi+2196], 1
  0001b	e8 00 00 00 00	 call	 ?DecryptValueToPool@?$CEncrypt@K@@QAEXPAK@Z ; CEncrypt<unsigned long>::DecryptValueToPool
  00020	ff 15 00 00 00
	00		 call	 DWORD PTR __imp_?GetSingleton@ioFrameTimer@@SAAAV1@XZ
  00026	8b c8		 mov	 ecx, eax
  00028	ff 15 00 00 00
	00		 call	 DWORD PTR __imp_?GetLoopSec@ioFrameTimer@@QBEKXZ
  0002e	03 45 fc	 add	 eax, DWORD PTR _value$586843[ebp]
  00031	89 86 60 0a 00
	00		 mov	 DWORD PTR [esi+2656], eax
  00037	5e		 pop	 esi

; 813  : }

  00038	c9		 leave
  00039	c2 04 00	 ret	 4
?SetTraceState@ioGuide2Weapon@@QAEXPAVioPlayStage@@@Z ENDP ; ioGuide2Weapon::SetTraceState
_TEXT	ENDS
PUBLIC	?GetSubSkillType@ioSkill@@QBEHXZ		; ioSkill::GetSubSkillType
; Function compile flags: /Ogsp
; File d:\lost saga for developer\youtube\tutorial\source\src\lsclient\ioskill.h
;	COMDAT ?GetSubSkillType@ioSkill@@QBEHXZ
_TEXT	SEGMENT
_value$586850 = -4					; size = 4
?GetSubSkillType@ioSkill@@QBEHXZ PROC			; ioSkill::GetSubSkillType, COMDAT
; _this$ = ecx

; 399  : 	inline int GetSubSkillType() const { return m_iSubSkillType; }

  00000	55		 push	 ebp
  00001	8b ec		 mov	 ebp, esp
  00003	51		 push	 ecx
  00004	8d 45 fc	 lea	 eax, DWORD PTR _value$586850[ebp]
  00007	50		 push	 eax
  00008	81 c1 20 03 00
	00		 add	 ecx, 800		; 00000320H
  0000e	e8 00 00 00 00	 call	 ?DecryptValueToPool@?$CEncrypt@H@@QAEXPAH@Z ; CEncrypt<int>::DecryptValueToPool
  00013	8b 45 fc	 mov	 eax, DWORD PTR _value$586850[ebp]
  00016	c9		 leave
  00017	c3		 ret	 0
?GetSubSkillType@ioSkill@@QBEHXZ ENDP			; ioSkill::GetSubSkillType
_TEXT	ENDS
PUBLIC	??_R0?AVioGuideAttackSkill@@@8			; ioGuideAttackSkill `RTTI Type Descriptor'
PUBLIC	?ToGuideAttackSkill@@YAPAVioGuideAttackSkill@@PAVioSkill@@@Z ; ToGuideAttackSkill
;	COMDAT ??_R0?AVioGuideAttackSkill@@@8
; File d:\lost saga for developer\youtube\tutorial\source\src\lsclient\encryptvalue.h
_DATA	SEGMENT
??_R0?AVioGuideAttackSkill@@@8 DD FLAT:??_7type_info@@6B@ ; ioGuideAttackSkill `RTTI Type Descriptor'
	DD	00H
	DB	'.?AVioGuideAttackSkill@@', 00H
; Function compile flags: /Ogsp
; File d:\lost saga for developer\youtube\tutorial\source\src\lsclient\ioguideattackskill.h
_DATA	ENDS
;	COMDAT ?ToGuideAttackSkill@@YAPAVioGuideAttackSkill@@PAVioSkill@@@Z
_TEXT	SEGMENT
_value$586863 = -4					; size = 4
_pSkill$ = 8						; size = 4
?ToGuideAttackSkill@@YAPAVioGuideAttackSkill@@PAVioSkill@@@Z PROC ; ToGuideAttackSkill, COMDAT

; 104  : {

  00000	55		 push	 ebp
  00001	8b ec		 mov	 ebp, esp
  00003	51		 push	 ecx
  00004	56		 push	 esi

; 105  : 	ioAttackSkill *pAttack = ToAttackSkill( pSkill );

  00005	ff 75 08	 push	 DWORD PTR _pSkill$[ebp]
  00008	e8 00 00 00 00	 call	 ?ToAttackSkill@@YAPAVioAttackSkill@@PAVioSkill@@@Z ; ToAttackSkill
  0000d	8b f0		 mov	 esi, eax
  0000f	59		 pop	 ecx

; 106  : 	if( !pAttack || pAttack->GetSubSkillType() != AST_GUIDE_ATTACK )

  00010	85 f6		 test	 esi, esi
  00012	74 2e		 je	 SHORT $LN1@ToGuideAtt
  00014	8d 45 fc	 lea	 eax, DWORD PTR _value$586863[ebp]
  00017	50		 push	 eax
  00018	8d 8e 20 03 00
	00		 lea	 ecx, DWORD PTR [esi+800]
  0001e	e8 00 00 00 00	 call	 ?DecryptValueToPool@?$CEncrypt@H@@QAEXPAH@Z ; CEncrypt<int>::DecryptValueToPool
  00023	83 7d fc 3b	 cmp	 DWORD PTR _value$586863[ebp], 59 ; 0000003bH
  00027	75 19		 jne	 SHORT $LN1@ToGuideAtt

; 108  : 
; 109  : 	return dynamic_cast< ioGuideAttackSkill* >(pAttack);

  00029	6a 00		 push	 0
  0002b	68 00 00 00 00	 push	 OFFSET ??_R0?AVioGuideAttackSkill@@@8
  00030	68 00 00 00 00	 push	 OFFSET ??_R0?AVioAttackSkill@@@8
  00035	6a 00		 push	 0
  00037	56		 push	 esi
  00038	e8 00 00 00 00	 call	 ___RTDynamicCast
  0003d	83 c4 14	 add	 esp, 20			; 00000014H
  00040	eb 02		 jmp	 SHORT $LN3@ToGuideAtt
$LN1@ToGuideAtt:

; 107  : 		return NULL;

  00042	33 c0		 xor	 eax, eax
$LN3@ToGuideAtt:
  00044	5e		 pop	 esi

; 110  : }

  00045	c9		 leave
  00046	c3		 ret	 0
?ToGuideAttackSkill@@YAPAVioGuideAttackSkill@@PAVioSkill@@@Z ENDP ; ToGuideAttackSkill
_TEXT	ENDS
PUBLIC	??_C@_00CNPNBAHC@?$AA@				; `string'
EXTRN	?SetMaxArrowRange@ioUroborusGuideArrow@@QAEXM@Z:PROC ; ioUroborusGuideArrow::SetMaxArrowRange
EXTRN	?Initialize@ioUroborusGuideArrow@@QAEXAAVioINILoader@@@Z:PROC ; ioUroborusGuideArrow::Initialize
EXTRN	??0ioUroborusGuideArrow@@QAE@PAVioPlayStage@@@Z:PROC ; ioUroborusGuideArrow::ioUroborusGuideArrow
EXTRN	??2@YAPAXI@Z:PROC				; operator new
EXTRN	__imp_??4ioHashString@@QAEAAV0@PBD@Z:PROC
EXTRN	?LoadProperty@ioWeapon@@UAEXAAVioINILoader@@@Z:PROC ; ioWeapon::LoadProperty
EXTRN	_memset:PROC
;	COMDAT ??_C@_00CNPNBAHC@?$AA@
; File d:\lost saga for developer\youtube\tutorial\source\src\lsclient\encryptvalue.h
CONST	SEGMENT
??_C@_00CNPNBAHC@?$AA@ DB 00H				; `string'
CONST	ENDS
;	COMDAT xdata$x
xdata$x	SEGMENT
__unwindtable$?LoadProperty@ioGuide2Weapon@@UAEXAAVioINILoader@@@Z DD 0ffffffffH
	DD	FLAT:__unwindfunclet$?LoadProperty@ioGuide2Weapon@@UAEXAAVioINILoader@@@Z$0
__ehfuncinfo$?LoadProperty@ioGuide2Weapon@@UAEXAAVioINILoader@@@Z DD 019930522H
	DD	01H
	DD	FLAT:__unwindtable$?LoadProperty@ioGuide2Weapon@@UAEXAAVioINILoader@@@Z
	DD	2 DUP(00H)
	DD	2 DUP(00H)
	DD	00H
	DD	01H
; Function compile flags: /Ogsp
; File d:\lost saga for developer\youtube\tutorial\source\src\lsclient\ioguide2weapon.cpp
xdata$x	ENDS
;	COMDAT ?LoadProperty@ioGuide2Weapon@@UAEXAAVioINILoader@@@Z
_TEXT	SEGMENT
tv10285 = -340						; size = 4
tv10281 = -340						; size = 4
$T586874 = -340						; size = 4
_value$588302 = -333					; size = 1
tv10277 = -332						; size = 4
tv8636 = -332						; size = 4
_value$587919 = -332					; size = 4
_value$587789 = -332					; size = 4
$T587660 = -332						; size = 4
_value$587650 = -332					; size = 4
_value$587521 = -332					; size = 4
_value$587391 = -332					; size = 4
_value$587261 = -332					; size = 4
_value$587131 = -332					; size = 4
_pStage$583104 = -332					; size = 4
_szBuf$ = -328						; size = 260
__k$588189 = -68					; size = 14
__k$587819 = -48					; size = 27
__k$587676 = -44					; size = 22
__k$588061 = -40					; size = 17
__k$588013 = -40					; size = 16
__k$587538 = -40					; size = 16
__k$587278 = -40					; size = 19
__k$586949 = -40					; size = 18
__k$587408 = -36					; size = 15
__k$587148 = -36					; size = 12
__k$587018 = -36					; size = 12
__$EHRec$ = -12						; size = 12
_rkLoader$ = 8						; size = 4
?LoadProperty@ioGuide2Weapon@@UAEXAAVioINILoader@@@Z PROC ; ioGuide2Weapon::LoadProperty, COMDAT
; _this$ = ecx

; 47   : {

  00000	68 48 01 00 00	 push	 328			; 00000148H
  00005	b8 00 00 00 00	 mov	 eax, __ehhandler$?LoadProperty@ioGuide2Weapon@@UAEXAAVioINILoader@@@Z
  0000a	e8 00 00 00 00	 call	 __EH_prolog3_GS
  0000f	8b 7d 08	 mov	 edi, DWORD PTR _rkLoader$[ebp]

; 48   : 	ioWeapon::LoadProperty( rkLoader );

  00012	57		 push	 edi
  00013	8b f1		 mov	 esi, ecx
  00015	e8 00 00 00 00	 call	 ?LoadProperty@ioWeapon@@UAEXAAVioINILoader@@@Z ; ioWeapon::LoadProperty

; 49   : 
; 50   : 	char szBuf[MAX_PATH] = "";

  0001a	33 db		 xor	 ebx, ebx
  0001c	68 03 01 00 00	 push	 259			; 00000103H
  00021	8d 85 b9 fe ff
	ff		 lea	 eax, DWORD PTR _szBuf$[ebp+1]
  00027	53		 push	 ebx
  00028	50		 push	 eax
  00029	88 9d b8 fe ff
	ff		 mov	 BYTE PTR _szBuf$[ebp], bl
  0002f	e8 00 00 00 00	 call	 _memset
  00034	83 c4 0c	 add	 esp, 12			; 0000000cH

; 51   : 
; 52   : 	// Tracing
; 53   : 	m_dwTraceEnableTime = rkLoader.LoadInt_e( "trace_enable_time", 0 );

  00037	6a 04		 push	 4
  00039	c7 45 d8 99 9e
	8a 89		 mov	 DWORD PTR __k$586949[ebp], -1987404135 ; 898a9e99H
  00040	c7 45 dc 88 b3
	8e 84		 mov	 DWORD PTR __k$586949[ebp+4], -2071022712 ; 848eb388H
  00047	c7 45 e0 8c 8e
	87 8f		 mov	 DWORD PTR __k$586949[ebp+8], -1886941556 ; 8f878e8cH
  0004e	c7 45 e4 b2 98
	82 87		 mov	 DWORD PTR __k$586949[ebp+12], -2021484366 ; 878298b2H
  00055	8d 45 d8	 lea	 eax, DWORD PTR __k$586949[ebp]
  00058	66 c7 45 e8 88
	00		 mov	 WORD PTR __k$586949[ebp+16], 136 ; 00000088H
  0005e	59		 pop	 ecx
$LL113@LoadProper:
  0005f	81 30 ed ec eb
	ea		 xor	 DWORD PTR [eax], -353637139 ; eaebecedH
  00065	83 c0 04	 add	 eax, 4
  00068	49		 dec	 ecx
  00069	75 f4		 jne	 SHORT $LL113@LoadProper
  0006b	80 75 e8 ed	 xor	 BYTE PTR __k$586949[ebp+16], -19 ; ffffffedH
  0006f	53		 push	 ebx
  00070	8d 45 d8	 lea	 eax, DWORD PTR __k$586949[ebp]
  00073	50		 push	 eax
  00074	8b cf		 mov	 ecx, edi
  00076	ff 15 00 00 00
	00		 call	 DWORD PTR __imp_?LoadInt@ioINILoader@@QAEHPBDH@Z
  0007c	6a 02		 push	 2
  0007e	89 86 6c 09 00
	00		 mov	 DWORD PTR [esi+2412], eax

; 54   : 
; 55   : 	m_fTraceSpeed = rkLoader.LoadFloat_e( "trace_speed", 0.0f );

  00084	c7 45 dc 99 9e
	8a 89		 mov	 DWORD PTR __k$587018[ebp], -1987404135 ; 898a9e99H
  0008b	c7 45 e0 88 b3
	98 9a		 mov	 DWORD PTR __k$587018[ebp+4], -1701268600 ; 9a98b388H
  00092	8d 45 dc	 lea	 eax, DWORD PTR __k$587018[ebp]
  00095	c7 45 e4 88 89
	8f 00		 mov	 DWORD PTR __k$587018[ebp+8], 9406856 ; 008f8988H
  0009c	59		 pop	 ecx
$LL219@LoadProper:
  0009d	81 30 ed ec eb
	ea		 xor	 DWORD PTR [eax], -353637139 ; eaebecedH
  000a3	83 c0 04	 add	 eax, 4
  000a6	49		 dec	 ecx
  000a7	75 f4		 jne	 SHORT $LL219@LoadProper
  000a9	6a 08		 push	 8
  000ab	58		 pop	 eax
$LL216@LoadProper:
  000ac	8b c8		 mov	 ecx, eax
  000ae	81 e1 03 00 00
	80		 and	 ecx, -2147483645	; 80000003H
  000b4	79 05		 jns	 SHORT $LN1244@LoadProper
  000b6	49		 dec	 ecx
  000b7	83 c9 fc	 or	 ecx, -4			; fffffffcH
  000ba	41		 inc	 ecx
$LN1244@LoadProper:
  000bb	b2 ed		 mov	 dl, -19			; ffffffedH
  000bd	2a d1		 sub	 dl, cl
  000bf	30 54 05 dc	 xor	 BYTE PTR __k$587018[ebp+eax], dl
  000c3	40		 inc	 eax
  000c4	83 f8 0b	 cmp	 eax, 11			; 0000000bH
  000c7	7c e3		 jl	 SHORT $LL216@LoadProper
  000c9	0f 57 c0	 xorps	 xmm0, xmm0
  000cc	51		 push	 ecx
  000cd	8d 45 dc	 lea	 eax, DWORD PTR __k$587018[ebp]
  000d0	f3 0f 11 04 24	 movss	 DWORD PTR [esp], xmm0
  000d5	50		 push	 eax
  000d6	8b cf		 mov	 ecx, edi
  000d8	ff 15 00 00 00
	00		 call	 DWORD PTR __imp_?LoadFloat@ioINILoader@@QAEMPBDM@Z
  000de	d9 9d b4 fe ff
	ff		 fstp	 DWORD PTR _value$587131[ebp]
  000e4	8d 85 b4 fe ff
	ff		 lea	 eax, DWORD PTR _value$587131[ebp]
  000ea	50		 push	 eax
  000eb	8d 8e 70 09 00
	00		 lea	 ecx, DWORD PTR [esi+2416]
  000f1	e8 00 00 00 00	 call	 ?EncryptValueToPool@?$CEncrypt@M@@AAEXPBD@Z ; CEncrypt<float>::EncryptValueToPool
  000f6	6a 02		 push	 2

; 56   : 	m_fTraceRange = rkLoader.LoadFloat_e( "trace_range", 0.0f );

  000f8	c7 45 dc 99 9e
	8a 89		 mov	 DWORD PTR __k$587148[ebp], -1987404135 ; 898a9e99H
  000ff	c7 45 e0 88 b3
	99 8b		 mov	 DWORD PTR __k$587148[ebp+4], -1952861304 ; 8b99b388H
  00106	8d 45 dc	 lea	 eax, DWORD PTR __k$587148[ebp]
  00109	c7 45 e4 83 8b
	8e 00		 mov	 DWORD PTR __k$587148[ebp+8], 9341827 ; 008e8b83H
  00110	59		 pop	 ecx
$LL327@LoadProper:
  00111	81 30 ed ec eb
	ea		 xor	 DWORD PTR [eax], -353637139 ; eaebecedH
  00117	83 c0 04	 add	 eax, 4
  0011a	49		 dec	 ecx
  0011b	75 f4		 jne	 SHORT $LL327@LoadProper
  0011d	6a 08		 push	 8
  0011f	58		 pop	 eax
$LL324@LoadProper:
  00120	8b c8		 mov	 ecx, eax
  00122	81 e1 03 00 00
	80		 and	 ecx, -2147483645	; 80000003H
  00128	79 05		 jns	 SHORT $LN1245@LoadProper
  0012a	49		 dec	 ecx
  0012b	83 c9 fc	 or	 ecx, -4			; fffffffcH
  0012e	41		 inc	 ecx
$LN1245@LoadProper:
  0012f	b2 ed		 mov	 dl, -19			; ffffffedH
  00131	2a d1		 sub	 dl, cl
  00133	30 54 05 dc	 xor	 BYTE PTR __k$587148[ebp+eax], dl
  00137	40		 inc	 eax
  00138	83 f8 0b	 cmp	 eax, 11			; 0000000bH
  0013b	7c e3		 jl	 SHORT $LL324@LoadProper
  0013d	0f 57 c0	 xorps	 xmm0, xmm0
  00140	51		 push	 ecx
  00141	8d 45 dc	 lea	 eax, DWORD PTR __k$587148[ebp]
  00144	f3 0f 11 04 24	 movss	 DWORD PTR [esp], xmm0
  00149	50		 push	 eax
  0014a	8b cf		 mov	 ecx, edi
  0014c	ff 15 00 00 00
	00		 call	 DWORD PTR __imp_?LoadFloat@ioINILoader@@QAEMPBDM@Z
  00152	d9 9d b4 fe ff
	ff		 fstp	 DWORD PTR _value$587261[ebp]
  00158	8d 85 b4 fe ff
	ff		 lea	 eax, DWORD PTR _value$587261[ebp]
  0015e	50		 push	 eax
  0015f	8d 8e a0 09 00
	00		 lea	 ecx, DWORD PTR [esi+2464]
  00165	e8 00 00 00 00	 call	 ?EncryptValueToPool@?$CEncrypt@M@@AAEXPBD@Z ; CEncrypt<float>::EncryptValueToPool
  0016a	6a 04		 push	 4

; 57   : 	m_fTraceRotSpeed = rkLoader.LoadFloat_e( "trace_rotate_speed", 0.0f );

  0016c	c7 45 d8 99 9e
	8a 89		 mov	 DWORD PTR __k$587278[ebp], -1987404135 ; 898a9e99H
  00173	c7 45 dc 88 b3
	99 85		 mov	 DWORD PTR __k$587278[ebp+4], -2053524600 ; 8599b388H
  0017a	c7 45 e0 99 8d
	9f 8f		 mov	 DWORD PTR __k$587278[ebp+8], -1885368935 ; 8f9f8d99H
  00181	c7 45 e4 b2 9f
	9b 8f		 mov	 DWORD PTR __k$587278[ebp+12], -1885626446 ; 8f9b9fb2H
  00188	66 c7 45 e8 88
	88		 mov	 WORD PTR __k$587278[ebp+16], 34952 ; 00008888H
  0018e	8d 45 d8	 lea	 eax, DWORD PTR __k$587278[ebp]
  00191	88 5d ea	 mov	 BYTE PTR __k$587278[ebp+18], bl
  00194	59		 pop	 ecx
$LL435@LoadProper:
  00195	81 30 ed ec eb
	ea		 xor	 DWORD PTR [eax], -353637139 ; eaebecedH
  0019b	83 c0 04	 add	 eax, 4
  0019e	49		 dec	 ecx
  0019f	75 f4		 jne	 SHORT $LL435@LoadProper
  001a1	6a 10		 push	 16			; 00000010H
  001a3	58		 pop	 eax
$LL432@LoadProper:
  001a4	8b c8		 mov	 ecx, eax
  001a6	81 e1 03 00 00
	80		 and	 ecx, -2147483645	; 80000003H
  001ac	79 05		 jns	 SHORT $LN1246@LoadProper
  001ae	49		 dec	 ecx
  001af	83 c9 fc	 or	 ecx, -4			; fffffffcH
  001b2	41		 inc	 ecx
$LN1246@LoadProper:
  001b3	b2 ed		 mov	 dl, -19			; ffffffedH
  001b5	2a d1		 sub	 dl, cl
  001b7	30 54 05 d8	 xor	 BYTE PTR __k$587278[ebp+eax], dl
  001bb	40		 inc	 eax
  001bc	83 f8 12	 cmp	 eax, 18			; 00000012H
  001bf	7c e3		 jl	 SHORT $LL432@LoadProper
  001c1	0f 57 c0	 xorps	 xmm0, xmm0
  001c4	51		 push	 ecx
  001c5	8d 45 d8	 lea	 eax, DWORD PTR __k$587278[ebp]
  001c8	f3 0f 11 04 24	 movss	 DWORD PTR [esp], xmm0
  001cd	50		 push	 eax
  001ce	8b cf		 mov	 ecx, edi
  001d0	ff 15 00 00 00
	00		 call	 DWORD PTR __imp_?LoadFloat@ioINILoader@@QAEMPBDM@Z
  001d6	d9 9d b4 fe ff
	ff		 fstp	 DWORD PTR _value$587391[ebp]
  001dc	8d 85 b4 fe ff
	ff		 lea	 eax, DWORD PTR _value$587391[ebp]
  001e2	50		 push	 eax
  001e3	8d 8e d0 09 00
	00		 lea	 ecx, DWORD PTR [esi+2512]
  001e9	e8 00 00 00 00	 call	 ?EncryptValueToPool@?$CEncrypt@M@@AAEXPBD@Z ; CEncrypt<float>::EncryptValueToPool
  001ee	6a 03		 push	 3

; 58   : 	m_dwTraceDuration = (DWORD)rkLoader.LoadInt_e( "trace_duration", 0 );

  001f0	c7 45 dc 99 9e
	8a 89		 mov	 DWORD PTR __k$587408[ebp], -1987404135 ; 898a9e99H
  001f7	c7 45 e0 88 b3
	8f 9f		 mov	 DWORD PTR __k$587408[ebp+4], -1617972344 ; 9f8fb388H
  001fe	c7 45 e4 9f 8d
	9f 83		 mov	 DWORD PTR __k$587408[ebp+8], -2086695521 ; 839f8d9fH
  00205	66 c7 45 e8 82
	82		 mov	 WORD PTR __k$587408[ebp+12], 33410 ; 00008282H
  0020b	8d 45 dc	 lea	 eax, DWORD PTR __k$587408[ebp]
  0020e	88 5d ea	 mov	 BYTE PTR __k$587408[ebp+14], bl
  00211	59		 pop	 ecx
$LL543@LoadProper:
  00212	81 30 ed ec eb
	ea		 xor	 DWORD PTR [eax], -353637139 ; eaebecedH
  00218	83 c0 04	 add	 eax, 4
  0021b	49		 dec	 ecx
  0021c	75 f4		 jne	 SHORT $LL543@LoadProper
  0021e	6a 0c		 push	 12			; 0000000cH
  00220	58		 pop	 eax
$LL540@LoadProper:
  00221	8b c8		 mov	 ecx, eax
  00223	81 e1 03 00 00
	80		 and	 ecx, -2147483645	; 80000003H
  00229	79 05		 jns	 SHORT $LN1247@LoadProper
  0022b	49		 dec	 ecx
  0022c	83 c9 fc	 or	 ecx, -4			; fffffffcH
  0022f	41		 inc	 ecx
$LN1247@LoadProper:
  00230	b2 ed		 mov	 dl, -19			; ffffffedH
  00232	2a d1		 sub	 dl, cl
  00234	30 54 05 dc	 xor	 BYTE PTR __k$587408[ebp+eax], dl
  00238	40		 inc	 eax
  00239	83 f8 0e	 cmp	 eax, 14			; 0000000eH
  0023c	7c e3		 jl	 SHORT $LL540@LoadProper
  0023e	53		 push	 ebx
  0023f	8d 45 dc	 lea	 eax, DWORD PTR __k$587408[ebp]
  00242	50		 push	 eax
  00243	8b cf		 mov	 ecx, edi
  00245	ff 15 00 00 00
	00		 call	 DWORD PTR __imp_?LoadInt@ioINILoader@@QAEHPBDH@Z
  0024b	89 85 b4 fe ff
	ff		 mov	 DWORD PTR _value$587521[ebp], eax
  00251	8d 85 b4 fe ff
	ff		 lea	 eax, DWORD PTR _value$587521[ebp]
  00257	50		 push	 eax
  00258	8d 8e 30 0a 00
	00		 lea	 ecx, DWORD PTR [esi+2608]
  0025e	e8 00 00 00 00	 call	 ?EncryptValueToPool@?$CEncrypt@K@@AAEXPBD@Z ; CEncrypt<unsigned long>::EncryptValueToPool
  00263	6a 03		 push	 3

; 59   : 	m_fTraceEndRange = rkLoader.LoadFloat_e( "trace_end_range", 0.0f );

  00265	c7 45 d8 99 9e
	8a 89		 mov	 DWORD PTR __k$587538[ebp], -1987404135 ; 898a9e99H
  0026c	c7 45 dc 88 b3
	8e 84		 mov	 DWORD PTR __k$587538[ebp+4], -2071022712 ; 848eb388H
  00273	c7 45 e0 89 b3
	99 8b		 mov	 DWORD PTR __k$587538[ebp+8], -1952861303 ; 8b99b389H
  0027a	8d 45 d8	 lea	 eax, DWORD PTR __k$587538[ebp]
  0027d	c7 45 e4 83 8b
	8e 00		 mov	 DWORD PTR __k$587538[ebp+12], 9341827 ; 008e8b83H
  00284	59		 pop	 ecx
$LL651@LoadProper:
  00285	81 30 ed ec eb
	ea		 xor	 DWORD PTR [eax], -353637139 ; eaebecedH
  0028b	83 c0 04	 add	 eax, 4
  0028e	49		 dec	 ecx
  0028f	75 f4		 jne	 SHORT $LL651@LoadProper
  00291	6a 0c		 push	 12			; 0000000cH
  00293	58		 pop	 eax
$LL648@LoadProper:
  00294	8b c8		 mov	 ecx, eax
  00296	81 e1 03 00 00
	80		 and	 ecx, -2147483645	; 80000003H
  0029c	79 05		 jns	 SHORT $LN1248@LoadProper
  0029e	49		 dec	 ecx
  0029f	83 c9 fc	 or	 ecx, -4			; fffffffcH
  002a2	41		 inc	 ecx
$LN1248@LoadProper:
  002a3	b2 ed		 mov	 dl, -19			; ffffffedH
  002a5	2a d1		 sub	 dl, cl
  002a7	30 54 05 d8	 xor	 BYTE PTR __k$587538[ebp+eax], dl
  002ab	40		 inc	 eax
  002ac	83 f8 0f	 cmp	 eax, 15			; 0000000fH
  002af	7c e3		 jl	 SHORT $LL648@LoadProper
  002b1	0f 57 c0	 xorps	 xmm0, xmm0
  002b4	51		 push	 ecx
  002b5	8d 45 d8	 lea	 eax, DWORD PTR __k$587538[ebp]
  002b8	f3 0f 11 04 24	 movss	 DWORD PTR [esp], xmm0
  002bd	50		 push	 eax
  002be	8b cf		 mov	 ecx, edi
  002c0	ff 15 00 00 00
	00		 call	 DWORD PTR __imp_?LoadFloat@ioINILoader@@QAEMPBDM@Z
  002c6	d9 9d b4 fe ff
	ff		 fstp	 DWORD PTR _value$587650[ebp]
  002cc	8d 85 b4 fe ff
	ff		 lea	 eax, DWORD PTR _value$587650[ebp]
  002d2	50		 push	 eax
  002d3	8d 8e 00 0a 00
	00		 lea	 ecx, DWORD PTR [esi+2560]
  002d9	e8 00 00 00 00	 call	 ?EncryptValueToPool@?$CEncrypt@M@@AAEXPBD@Z ; CEncrypt<float>::EncryptValueToPool

; 60   : 
; 61   : 	m_fTargetTracePosRate = rkLoader.LoadFloat_e( "target_trace_pos_rate", FLOAT05 );

  002de	b8 05 00 00 00	 mov	 eax, 5
  002e3	8b d0		 mov	 edx, eax
  002e5	b8 0a 00 00 00	 mov	 eax, 10			; 0000000aH
  002ea	6a 05		 push	 5
  002ec	89 85 b4 fe ff
	ff		 mov	 DWORD PTR $T587660[ebp], eax
  002f2	c7 45 d4 99 8d
	99 8d		 mov	 DWORD PTR __k$587676[ebp], -1919316583 ; 8d998d99H
  002f9	c7 45 d8 88 98
	b4 9e		 mov	 DWORD PTR __k$587676[ebp+4], -1632331640 ; 9eb49888H
  00300	c7 45 dc 9f 8d
	88 8f		 mov	 DWORD PTR __k$587676[ebp+8], -1886876257 ; 8f888d9fH
  00307	c7 45 e0 b2 9c
	84 99		 mov	 DWORD PTR __k$587676[ebp+12], -1719362382 ; 99849cb2H
  0030e	c7 45 e4 b2 9e
	8a 9e		 mov	 DWORD PTR __k$587676[ebp+16], -1635082574 ; 9e8a9eb2H
  00315	8d 4d d4	 lea	 ecx, DWORD PTR __k$587676[ebp]
  00318	66 c7 45 e8 88
	00		 mov	 WORD PTR __k$587676[ebp+20], 136 ; 00000088H
  0031e	58		 pop	 eax
$LL763@LoadProper:
  0031f	81 31 ed ec eb
	ea		 xor	 DWORD PTR [ecx], -353637139 ; eaebecedH
  00325	83 c1 04	 add	 ecx, 4
  00328	48		 dec	 eax
  00329	75 f4		 jne	 SHORT $LL763@LoadProper
  0032b	80 75 e8 ed	 xor	 BYTE PTR __k$587676[ebp+20], -19 ; ffffffedH
  0032f	89 95 ac fe ff
	ff		 mov	 DWORD PTR tv10285[ebp], edx
  00335	db 85 ac fe ff
	ff		 fild	 DWORD PTR tv10285[ebp]
  0033b	85 d2		 test	 edx, edx
  0033d	79 06		 jns	 SHORT $LN1249@LoadProper
  0033f	d8 05 00 00 00
	00		 fadd	 DWORD PTR __real@4f800000
$LN1249@LoadProper:
  00345	8b 85 b4 fe ff
	ff		 mov	 eax, DWORD PTR $T587660[ebp]
  0034b	db 85 b4 fe ff
	ff		 fild	 DWORD PTR $T587660[ebp]
  00351	85 c0		 test	 eax, eax
  00353	79 06		 jns	 SHORT $LN1250@LoadProper
  00355	d8 05 00 00 00
	00		 fadd	 DWORD PTR __real@4f800000
$LN1250@LoadProper:
  0035b	de f9		 fdivp	 ST(1), ST(0)
  0035d	51		 push	 ecx
  0035e	8d 45 d4	 lea	 eax, DWORD PTR __k$587676[ebp]
  00361	8b cf		 mov	 ecx, edi
  00363	d9 9d b4 fe ff
	ff		 fstp	 DWORD PTR tv10277[ebp]
  00369	d9 85 b4 fe ff
	ff		 fld	 DWORD PTR tv10277[ebp]
  0036f	d9 1c 24	 fstp	 DWORD PTR [esp]
  00372	50		 push	 eax
  00373	ff 15 00 00 00
	00		 call	 DWORD PTR __imp_?LoadFloat@ioINILoader@@QAEMPBDM@Z
  00379	d9 9d b4 fe ff
	ff		 fstp	 DWORD PTR _value$587789[ebp]
  0037f	8d 85 b4 fe ff
	ff		 lea	 eax, DWORD PTR _value$587789[ebp]
  00385	50		 push	 eax
  00386	8d 8e 0c 09 00
	00		 lea	 ecx, DWORD PTR [esi+2316]
  0038c	e8 00 00 00 00	 call	 ?EncryptValueToPool@?$CEncrypt@M@@AAEXPBD@Z ; CEncrypt<float>::EncryptValueToPool
  00391	6a 06		 push	 6

; 62   : 	m_fDownTargetTracePosRate = rkLoader.LoadFloat_e( "down_target_trace_pos_rate", 0.0f );

  00393	c7 45 d0 89 83
	9c 84		 mov	 DWORD PTR __k$587819[ebp], -2070117495 ; 849c8389H
  0039a	c7 45 d4 b2 98
	8a 98		 mov	 DWORD PTR __k$587819[ebp+4], -1735747406 ; 988a98b2H
  003a1	c7 45 d8 8a 89
	9f b5		 mov	 DWORD PTR __k$587819[ebp+8], -1247835766 ; b59f898aH
  003a8	c7 45 dc 99 9e
	8a 89		 mov	 DWORD PTR __k$587819[ebp+12], -1987404135 ; 898a9e99H
  003af	c7 45 e0 88 b3
	9b 85		 mov	 DWORD PTR __k$587819[ebp+16], -2053393528 ; 859bb388H
  003b6	c7 45 e4 9e b3
	99 8b		 mov	 DWORD PTR __k$587819[ebp+20], -1952861282 ; 8b99b39eH
  003bd	66 c7 45 e8 99
	89		 mov	 WORD PTR __k$587819[ebp+24], 35225 ; 00008999H
  003c3	8d 45 d0	 lea	 eax, DWORD PTR __k$587819[ebp]
  003c6	88 5d ea	 mov	 BYTE PTR __k$587819[ebp+26], bl
  003c9	59		 pop	 ecx
$LL871@LoadProper:
  003ca	81 30 ed ec eb
	ea		 xor	 DWORD PTR [eax], -353637139 ; eaebecedH
  003d0	83 c0 04	 add	 eax, 4
  003d3	49		 dec	 ecx
  003d4	75 f4		 jne	 SHORT $LL871@LoadProper
  003d6	6a 18		 push	 24			; 00000018H
  003d8	58		 pop	 eax
$LL868@LoadProper:
  003d9	8b c8		 mov	 ecx, eax
  003db	81 e1 03 00 00
	80		 and	 ecx, -2147483645	; 80000003H
  003e1	79 05		 jns	 SHORT $LN1251@LoadProper
  003e3	49		 dec	 ecx
  003e4	83 c9 fc	 or	 ecx, -4			; fffffffcH
  003e7	41		 inc	 ecx
$LN1251@LoadProper:
  003e8	b2 ed		 mov	 dl, -19			; ffffffedH
  003ea	2a d1		 sub	 dl, cl
  003ec	30 54 05 d0	 xor	 BYTE PTR __k$587819[ebp+eax], dl
  003f0	40		 inc	 eax
  003f1	83 f8 1a	 cmp	 eax, 26			; 0000001aH
  003f4	7c e3		 jl	 SHORT $LL868@LoadProper
  003f6	0f 57 c0	 xorps	 xmm0, xmm0
  003f9	51		 push	 ecx
  003fa	8d 45 d0	 lea	 eax, DWORD PTR __k$587819[ebp]
  003fd	f3 0f 11 04 24	 movss	 DWORD PTR [esp], xmm0
  00402	50		 push	 eax
  00403	8b cf		 mov	 ecx, edi
  00405	ff 15 00 00 00
	00		 call	 DWORD PTR __imp_?LoadFloat@ioINILoader@@QAEMPBDM@Z
  0040b	d9 9d b4 fe ff
	ff		 fstp	 DWORD PTR _value$587919[ebp]
  00411	8d 85 b4 fe ff
	ff		 lea	 eax, DWORD PTR _value$587919[ebp]
  00417	50		 push	 eax
  00418	8d 8e 3c 09 00
	00		 lea	 ecx, DWORD PTR [esi+2364]
  0041e	e8 00 00 00 00	 call	 ?EncryptValueToPool@?$CEncrypt@M@@AAEXPBD@Z ; CEncrypt<float>::EncryptValueToPool
  00423	6a 03		 push	 3

; 63   : 
; 64   : 	rkLoader.LoadString_e( "red_team_effect", "", szBuf, MAX_PATH );

  00425	c7 45 d8 9f 89
	8f b5		 mov	 DWORD PTR __k$588013[ebp], -1248884321 ; b58f899fH
  0042c	c7 45 dc 99 89
	8a 87		 mov	 DWORD PTR __k$588013[ebp+4], -2020963943 ; 878a8999H
  00433	c7 45 e0 b2 89
	8d 8c		 mov	 DWORD PTR __k$588013[ebp+8], -1936881230 ; 8c8d89b2H
  0043a	8d 45 d8	 lea	 eax, DWORD PTR __k$588013[ebp]
  0043d	c7 45 e4 88 8f
	9f 00		 mov	 DWORD PTR __k$588013[ebp+12], 10456968 ; 009f8f88H
  00444	59		 pop	 ecx
$LL979@LoadProper:
  00445	81 30 ed ec eb
	ea		 xor	 DWORD PTR [eax], -353637139 ; eaebecedH
  0044b	83 c0 04	 add	 eax, 4
  0044e	49		 dec	 ecx
  0044f	75 f4		 jne	 SHORT $LL979@LoadProper
  00451	6a 0c		 push	 12			; 0000000cH
  00453	58		 pop	 eax
$LL976@LoadProper:
  00454	8b c8		 mov	 ecx, eax
  00456	81 e1 03 00 00
	80		 and	 ecx, -2147483645	; 80000003H
  0045c	79 05		 jns	 SHORT $LN1252@LoadProper
  0045e	49		 dec	 ecx
  0045f	83 c9 fc	 or	 ecx, -4			; fffffffcH
  00462	41		 inc	 ecx
$LN1252@LoadProper:
  00463	b2 ed		 mov	 dl, -19			; ffffffedH
  00465	2a d1		 sub	 dl, cl
  00467	30 54 05 d8	 xor	 BYTE PTR __k$588013[ebp+eax], dl
  0046b	40		 inc	 eax
  0046c	83 f8 0f	 cmp	 eax, 15			; 0000000fH
  0046f	7c e3		 jl	 SHORT $LL976@LoadProper
  00471	68 04 01 00 00	 push	 260			; 00000104H
  00476	8d 85 b8 fe ff
	ff		 lea	 eax, DWORD PTR _szBuf$[ebp]
  0047c	50		 push	 eax
  0047d	68 00 00 00 00	 push	 OFFSET ??_C@_00CNPNBAHC@?$AA@
  00482	8d 45 d8	 lea	 eax, DWORD PTR __k$588013[ebp]
  00485	50		 push	 eax
  00486	8b cf		 mov	 ecx, edi
  00488	ff 15 00 00 00
	00		 call	 DWORD PTR __imp_?LoadStringA@ioINILoader@@QAEXPBD0PADH@Z

; 65   : 	m_RedTeamEffect = szBuf;

  0048e	8d 85 b8 fe ff
	ff		 lea	 eax, DWORD PTR _szBuf$[ebp]
  00494	50		 push	 eax
  00495	8d 8e 64 0a 00
	00		 lea	 ecx, DWORD PTR [esi+2660]
  0049b	ff 15 00 00 00
	00		 call	 DWORD PTR __imp_??4ioHashString@@QAEAAV0@PBD@Z
  004a1	6a 04		 push	 4

; 66   : 	rkLoader.LoadString_e( "blue_team_effect", "", szBuf, MAX_PATH );

  004a3	c7 45 d8 8f 80
	9e 8f		 mov	 DWORD PTR __k$588061[ebp], -1885437809 ; 8f9e808fH
  004aa	c7 45 dc b2 98
	8e 8b		 mov	 DWORD PTR __k$588061[ebp+4], -1953589070 ; 8b8e98b2H
  004b1	c7 45 e0 80 b3
	8e 8c		 mov	 DWORD PTR __k$588061[ebp+8], -1936804992 ; 8c8eb380H
  004b8	c7 45 e4 8b 89
	88 9e		 mov	 DWORD PTR __k$588061[ebp+12], -1635219061 ; 9e88898bH
  004bf	8d 45 d8	 lea	 eax, DWORD PTR __k$588061[ebp]
  004c2	88 5d e8	 mov	 BYTE PTR __k$588061[ebp+16], bl
  004c5	59		 pop	 ecx
$LL1085@LoadProper:
  004c6	81 30 ed ec eb
	ea		 xor	 DWORD PTR [eax], -353637139 ; eaebecedH
  004cc	83 c0 04	 add	 eax, 4
  004cf	49		 dec	 ecx
  004d0	75 f4		 jne	 SHORT $LL1085@LoadProper
  004d2	68 04 01 00 00	 push	 260			; 00000104H
  004d7	8d 85 b8 fe ff
	ff		 lea	 eax, DWORD PTR _szBuf$[ebp]
  004dd	50		 push	 eax
  004de	68 00 00 00 00	 push	 OFFSET ??_C@_00CNPNBAHC@?$AA@
  004e3	8d 45 d8	 lea	 eax, DWORD PTR __k$588061[ebp]
  004e6	50		 push	 eax
  004e7	8b cf		 mov	 ecx, edi
  004e9	ff 15 00 00 00
	00		 call	 DWORD PTR __imp_?LoadStringA@ioINILoader@@QAEXPBD0PADH@Z

; 67   : 	m_BlueTeamEffect = szBuf;

  004ef	8d 85 b8 fe ff
	ff		 lea	 eax, DWORD PTR _szBuf$[ebp]
  004f5	50		 push	 eax
  004f6	8d 8e 74 0a 00
	00		 lea	 ecx, DWORD PTR [esi+2676]
  004fc	ff 15 00 00 00
	00		 call	 DWORD PTR __imp_??4ioHashString@@QAEAAV0@PBD@Z

; 68   : 
; 69   : 	//
; 70   : 	ioBaseChar *pOwner = GetOwner();

  00502	8b ce		 mov	 ecx, esi
  00504	e8 00 00 00 00	 call	 ?GetOwner@ioWeapon@@QBEPAVioBaseChar@@XZ ; ioWeapon::GetOwner

; 71   : 	if( pOwner )

  00509	3b c3		 cmp	 eax, ebx
  0050b	74 7c		 je	 SHORT $LN2@LoadProper

; 72   : 	{
; 73   : 		ioPlayStage *pStage = pOwner->GetCreator();
; 74   : 
; 75   : 		SAFEDELETE( m_pGuideArrow );

  0050d	8b 8e 9c 08 00
	00		 mov	 ecx, DWORD PTR [esi+2204]
  00513	8b 80 44 03 00
	00		 mov	 eax, DWORD PTR [eax+836]
  00519	89 85 b4 fe ff
	ff		 mov	 DWORD PTR _pStage$583104[ebp], eax
  0051f	3b cb		 cmp	 ecx, ebx
  00521	74 0c		 je	 SHORT $LN1@LoadProper
  00523	8b 01		 mov	 eax, DWORD PTR [ecx]
  00525	6a 01		 push	 1
  00527	ff 10		 call	 DWORD PTR [eax]
  00529	89 9e 9c 08 00
	00		 mov	 DWORD PTR [esi+2204], ebx
$LN1@LoadProper:

; 76   : 		m_pGuideArrow = new ioUroborusGuideArrow( pStage );

  0052f	6a 64		 push	 100			; 00000064H
  00531	e8 00 00 00 00	 call	 ??2@YAPAXI@Z		; operator new
  00536	59		 pop	 ecx
  00537	8b c8		 mov	 ecx, eax
  00539	89 8d ac fe ff
	ff		 mov	 DWORD PTR $T586874[ebp], ecx
  0053f	89 5d fc	 mov	 DWORD PTR __$EHRec$[ebp+8], ebx
  00542	3b cb		 cmp	 ecx, ebx
  00544	74 0d		 je	 SHORT $LN7@LoadProper
  00546	ff b5 b4 fe ff
	ff		 push	 DWORD PTR _pStage$583104[ebp]
  0054c	e8 00 00 00 00	 call	 ??0ioUroborusGuideArrow@@QAE@PAVioPlayStage@@@Z ; ioUroborusGuideArrow::ioUroborusGuideArrow
  00551	eb 02		 jmp	 SHORT $LN8@LoadProper
$LN7@LoadProper:
  00553	33 c0		 xor	 eax, eax
$LN8@LoadProper:
  00555	83 4d fc ff	 or	 DWORD PTR __$EHRec$[ebp+8], -1

; 77   : 
; 78   : 		m_pGuideArrow->Initialize( rkLoader );

  00559	57		 push	 edi
  0055a	8b c8		 mov	 ecx, eax
  0055c	89 86 9c 08 00
	00		 mov	 DWORD PTR [esi+2204], eax
  00562	e8 00 00 00 00	 call	 ?Initialize@ioUroborusGuideArrow@@QAEXAAVioINILoader@@@Z ; ioUroborusGuideArrow::Initialize

; 79   : 		m_pGuideArrow->SetMaxArrowRange( GetMaxRange() );

  00567	8b 86 9c 08 00
	00		 mov	 eax, DWORD PTR [esi+2204]
  0056d	8b ce		 mov	 ecx, esi
  0056f	89 85 b4 fe ff
	ff		 mov	 DWORD PTR tv8636[ebp], eax
  00575	e8 00 00 00 00	 call	 ?GetMaxRange@ioGuide2Weapon@@QAEMXZ ; ioGuide2Weapon::GetMaxRange
  0057a	51		 push	 ecx
  0057b	8b 8d b4 fe ff
	ff		 mov	 ecx, DWORD PTR tv8636[ebp]
  00581	d9 1c 24	 fstp	 DWORD PTR [esp]
  00584	e8 00 00 00 00	 call	 ?SetMaxArrowRange@ioUroborusGuideArrow@@QAEXM@Z ; ioUroborusGuideArrow::SetMaxArrowRange
$LN2@LoadProper:

; 80   : 	}
; 81   : 
; 82   : 	m_bAttachTarget = rkLoader.LoadBool_e( "attach_target", false );

  00589	6a 03		 push	 3
  0058b	c7 45 bc 8c 98
	9f 8b		 mov	 DWORD PTR __k$588189[ebp], -1952474996 ; 8b9f988cH
  00592	c7 45 c0 8e 84
	b4 9e		 mov	 DWORD PTR __k$588189[ebp+4], -1632336754 ; 9eb4848eH
  00599	c7 45 c4 8c 9e
	8c 8f		 mov	 DWORD PTR __k$588189[ebp+8], -1886609780 ; 8f8c9e8cH
  005a0	8d 45 bc	 lea	 eax, DWORD PTR __k$588189[ebp]
  005a3	66 c7 45 c8 99
	00		 mov	 WORD PTR __k$588189[ebp+12], 153 ; 00000099H
  005a9	59		 pop	 ecx
$LL1193@LoadProper:
  005aa	81 30 ed ec eb
	ea		 xor	 DWORD PTR [eax], -353637139 ; eaebecedH
  005b0	83 c0 04	 add	 eax, 4
  005b3	49		 dec	 ecx
  005b4	75 f4		 jne	 SHORT $LL1193@LoadProper
  005b6	80 75 c8 ed	 xor	 BYTE PTR __k$588189[ebp+12], -19 ; ffffffedH
  005ba	53		 push	 ebx
  005bb	8d 45 bc	 lea	 eax, DWORD PTR __k$588189[ebp]
  005be	50		 push	 eax
  005bf	8b cf		 mov	 ecx, edi
  005c1	ff 15 00 00 00
	00		 call	 DWORD PTR __imp_?LoadBool@ioINILoader@@QAE_NPBD_N@Z
  005c7	88 85 b3 fe ff
	ff		 mov	 BYTE PTR _value$588302[ebp], al
  005cd	8d 85 b3 fe ff
	ff		 lea	 eax, DWORD PTR _value$588302[ebp]
  005d3	50		 push	 eax
  005d4	8d 8e 90 0a 00
	00		 lea	 ecx, DWORD PTR [esi+2704]
  005da	e8 00 00 00 00	 call	 ?EncryptValueToPool@?$CEncrypt@_N@@AAEXPBD@Z ; CEncrypt<bool>::EncryptValueToPool

; 83   : }

  005df	e8 00 00 00 00	 call	 __EH_epilog3_GS
  005e4	c2 04 00	 ret	 4
_TEXT	ENDS
;	COMDAT text$x
text$x	SEGMENT
__unwindfunclet$?LoadProperty@ioGuide2Weapon@@UAEXAAVioINILoader@@@Z$0:
  00000	ff b5 ac fe ff
	ff		 push	 DWORD PTR $T586874[ebp]
  00006	e8 00 00 00 00	 call	 ??3@YAXPAX@Z		; operator delete
  0000b	59		 pop	 ecx
  0000c	c3		 ret	 0
__ehhandler$?LoadProperty@ioGuide2Weapon@@UAEXAAVioINILoader@@@Z:
  0000d	8b 54 24 08	 mov	 edx, DWORD PTR [esp+8]
  00011	8d 42 0c	 lea	 eax, DWORD PTR [edx+12]
  00014	8b 8a a8 fe ff
	ff		 mov	 ecx, DWORD PTR [edx-344]
  0001a	33 c8		 xor	 ecx, eax
  0001c	e8 00 00 00 00	 call	 @__security_check_cookie@4
  00021	8b 4a fc	 mov	 ecx, DWORD PTR [edx-4]
  00024	33 c8		 xor	 ecx, eax
  00026	e8 00 00 00 00	 call	 @__security_check_cookie@4
  0002b	b8 00 00 00 00	 mov	 eax, OFFSET __ehfuncinfo$?LoadProperty@ioGuide2Weapon@@UAEXAAVioINILoader@@@Z
  00030	e9 00 00 00 00	 jmp	 ___CxxFrameHandler3
text$x	ENDS
?LoadProperty@ioGuide2Weapon@@UAEXAAVioINILoader@@@Z ENDP ; ioGuide2Weapon::LoadProperty
PUBLIC	__$ArrayPad$
PUBLIC	?SetEndState@ioGuide2Weapon@@QAEX_N@Z		; ioGuide2Weapon::SetEndState
EXTRN	??1SP2Packet@@UAE@XZ:PROC			; SP2Packet::~SP2Packet
EXTRN	?SendToAllPlayingUser@P2PNetwork@@YAXAAVSP2Packet@@PAVioBaseChar@@@Z:PROC ; P2PNetwork::SendToAllPlayingUser
EXTRN	??6SP2Packet@@QAEAAV0@H@Z:PROC			; SP2Packet::operator<<
EXTRN	??6SP2Packet@@QAEAAV0@K@Z:PROC			; SP2Packet::operator<<
EXTRN	??6SP2Packet@@QAEAAV0@ABVioHashString@@@Z:PROC	; SP2Packet::operator<<
EXTRN	??0SP2Packet@@QAE@K@Z:PROC			; SP2Packet::SP2Packet
EXTRN	__imp_?EndEffectGrace@ioEffect@@QAEXXZ:PROC
EXTRN	?SetWorldOrientation@ioMapEffect@@QAEXABUD3DXQUATERNION@@@Z:PROC ; ioMapEffect::SetWorldOrientation
EXTRN	?CreateMapEffect@ioPlayStage@@QAEPAVioMapEffect@@ABVioHashString@@ABUD3DXVECTOR3@@1@Z:PROC ; ioPlayStage::CreateMapEffect
EXTRN	?GetScale@ioWeapon@@QBEABUD3DXVECTOR3@@XZ:PROC	; ioWeapon::GetScale
EXTRN	?GetWeaponEndEffect@ioWeapon@@QBEABVioHashString@@XZ:PROC ; ioWeapon::GetWeaponEndEffect
EXTRN	?SetSkillEndState@ioGuideAttackSkill@@QAEXPAVioBaseChar@@@Z:PROC ; ioGuideAttackSkill::SetSkillEndState
EXTRN	?GetCurActiveSkill@ioBaseChar@@QAEPAVioSkill@@XZ:PROC ; ioBaseChar::GetCurActiveSkill
EXTRN	__chkstk:PROC
;	COMDAT xdata$x
; File d:\lost saga for developer\youtube\tutorial\source\src\lsclient\ioweapon.h
xdata$x	SEGMENT
__unwindtable$?SetEndState@ioGuide2Weapon@@QAEX_N@Z DD 0ffffffffH
	DD	FLAT:__unwindfunclet$?SetEndState@ioGuide2Weapon@@QAEX_N@Z$0
__ehfuncinfo$?SetEndState@ioGuide2Weapon@@QAEX_N@Z DD 019930522H
	DD	01H
	DD	FLAT:__unwindtable$?SetEndState@ioGuide2Weapon@@QAEX_N@Z
	DD	2 DUP(00H)
	DD	2 DUP(00H)
	DD	00H
	DD	01H
; Function compile flags: /Ogsp
; File d:\lost saga for developer\youtube\tutorial\source\src\lsclient\ioguide2weapon.cpp
xdata$x	ENDS
;	COMDAT ?SetEndState@ioGuide2Weapon@@QAEX_N@Z
_TEXT	SEGMENT
_qtRot$583400 = -32832					; size = 16
_pEndEffect$583398 = -32816				; size = 4
_pOwner$ = -32812					; size = 4
_kPacket$583406 = -32808				; size = 32792
__$ArrayPad$ = -16					; size = 4
__$EHRec$ = -12						; size = 12
_bSendNet$ = 8						; size = 1
?SetEndState@ioGuide2Weapon@@QAEX_N@Z PROC		; ioGuide2Weapon::SetEndState, COMDAT
; _this$ = ecx

; 606  : {

  00000	55		 push	 ebp
  00001	8b ec		 mov	 ebp, esp
  00003	6a ff		 push	 -1
  00005	68 00 00 00 00	 push	 __ehhandler$?SetEndState@ioGuide2Weapon@@QAEX_N@Z
  0000a	64 a1 00 00 00
	00		 mov	 eax, DWORD PTR fs:0
  00010	50		 push	 eax
  00011	b8 34 80 00 00	 mov	 eax, 32820		; 00008034H
  00016	e8 00 00 00 00	 call	 __chkstk
  0001b	a1 00 00 00 00	 mov	 eax, DWORD PTR ___security_cookie
  00020	33 c5		 xor	 eax, ebp
  00022	89 45 f0	 mov	 DWORD PTR __$ArrayPad$[ebp], eax
  00025	53		 push	 ebx
  00026	56		 push	 esi
  00027	57		 push	 edi
  00028	50		 push	 eax
  00029	8d 45 f4	 lea	 eax, DWORD PTR __$EHRec$[ebp]
  0002c	64 a3 00 00 00
	00		 mov	 DWORD PTR fs:0, eax

; 607  : 	if( m_WeaponState == WS_END )

  00032	6a 03		 push	 3
  00034	8b d9		 mov	 ebx, ecx
  00036	58		 pop	 eax
  00037	39 83 94 08 00
	00		 cmp	 DWORD PTR [ebx+2196], eax
  0003d	0f 84 46 01 00
	00		 je	 $LN1@SetEndStat

; 608  : 		return;
; 609  : 
; 610  : 	m_WeaponState = WS_END;

  00043	89 83 94 08 00
	00		 mov	 DWORD PTR [ebx+2196], eax

; 611  : 
; 612  : 	ioBaseChar *pOwner = GetOwner();

  00049	e8 00 00 00 00	 call	 ?GetOwner@ioWeapon@@QBEPAVioBaseChar@@XZ ; ioWeapon::GetOwner
  0004e	8b f8		 mov	 edi, eax
  00050	89 bd d4 7f ff
	ff		 mov	 DWORD PTR _pOwner$[ebp], edi

; 613  : 	if( !pOwner ) return;

  00056	85 ff		 test	 edi, edi
  00058	0f 84 2b 01 00
	00		 je	 $LN1@SetEndStat

; 614  : 
; 615  : 	ioGuideAttackSkill *pGuideAttackSkill = ToGuideAttackSkill( pOwner->GetCurActiveSkill() );

  0005e	8b cf		 mov	 ecx, edi
  00060	e8 00 00 00 00	 call	 ?GetCurActiveSkill@ioBaseChar@@QAEPAVioSkill@@XZ ; ioBaseChar::GetCurActiveSkill
  00065	50		 push	 eax
  00066	e8 00 00 00 00	 call	 ?ToGuideAttackSkill@@YAPAVioGuideAttackSkill@@PAVioSkill@@@Z ; ToGuideAttackSkill
  0006b	59		 pop	 ecx

; 616  : 	if( pGuideAttackSkill )

  0006c	85 c0		 test	 eax, eax
  0006e	74 08		 je	 SHORT $LN6@SetEndStat

; 617  : 	{
; 618  : 		pGuideAttackSkill->SetSkillEndState( pOwner );

  00070	57		 push	 edi
  00071	8b c8		 mov	 ecx, eax
  00073	e8 00 00 00 00	 call	 ?SetSkillEndState@ioGuideAttackSkill@@QAEXPAVioBaseChar@@@Z ; ioGuideAttackSkill::SetSkillEndState
$LN6@SetEndStat:

; 619  : 	}
; 620  : 
; 621  : 	ioPlayStage *pStage = pOwner->GetCreator();

  00078	8b b7 44 03 00
	00		 mov	 esi, DWORD PTR [edi+836]

; 622  : 
; 623  : 	if( !GetWeaponEndEffect().IsEmpty() )

  0007e	8b cb		 mov	 ecx, ebx
  00080	e8 00 00 00 00	 call	 ?GetWeaponEndEffect@ioWeapon@@QBEABVioHashString@@XZ ; ioWeapon::GetWeaponEndEffect
  00085	8b c8		 mov	 ecx, eax
  00087	ff 15 00 00 00
	00		 call	 DWORD PTR __imp_?IsEmpty@ioHashString@@QBE_NXZ
  0008d	84 c0		 test	 al, al
  0008f	75 54		 jne	 SHORT $LN4@SetEndStat

; 624  : 	{
; 625  : 		ioMapEffect *pEndEffect = pStage->CreateMapEffect( GetWeaponEndEffect(), GetPosition(), GetScale() );

  00091	8b cb		 mov	 ecx, ebx
  00093	e8 00 00 00 00	 call	 ?GetScale@ioWeapon@@QBEABUD3DXVECTOR3@@XZ ; ioWeapon::GetScale
  00098	50		 push	 eax
  00099	8b 03		 mov	 eax, DWORD PTR [ebx]
  0009b	8b cb		 mov	 ecx, ebx
  0009d	ff 50 70	 call	 DWORD PTR [eax+112]
  000a0	50		 push	 eax
  000a1	8b cb		 mov	 ecx, ebx
  000a3	e8 00 00 00 00	 call	 ?GetWeaponEndEffect@ioWeapon@@QBEABVioHashString@@XZ ; ioWeapon::GetWeaponEndEffect
  000a8	50		 push	 eax
  000a9	8b ce		 mov	 ecx, esi
  000ab	e8 00 00 00 00	 call	 ?CreateMapEffect@ioPlayStage@@QAEPAVioMapEffect@@ABVioHashString@@ABUD3DXVECTOR3@@1@Z ; ioPlayStage::CreateMapEffect
  000b0	89 85 d0 7f ff
	ff		 mov	 DWORD PTR _pEndEffect$583398[ebp], eax

; 626  : 		if( pEndEffect )

  000b6	85 c0		 test	 eax, eax
  000b8	74 2b		 je	 SHORT $LN4@SetEndStat

; 627  : 		{
; 628  : 			D3DXQUATERNION qtRot = GetOrientation();

  000ba	8b cb		 mov	 ecx, ebx
  000bc	e8 00 00 00 00	 call	 ?GetOrientation@ioWeapon@@QBEABUD3DXQUATERNION@@XZ ; ioWeapon::GetOrientation

; 629  : 			pEndEffect->SetWorldOrientation( qtRot );

  000c1	8b 8d d0 7f ff
	ff		 mov	 ecx, DWORD PTR _pEndEffect$583398[ebp]
  000c7	8b f0		 mov	 esi, eax
  000c9	8d bd c0 7f ff
	ff		 lea	 edi, DWORD PTR _qtRot$583400[ebp]
  000cf	a5		 movsd
  000d0	a5		 movsd
  000d1	a5		 movsd
  000d2	8d 85 c0 7f ff
	ff		 lea	 eax, DWORD PTR _qtRot$583400[ebp]
  000d8	50		 push	 eax
  000d9	a5		 movsd
  000da	e8 00 00 00 00	 call	 ?SetWorldOrientation@ioMapEffect@@QAEXABUD3DXQUATERNION@@@Z ; ioMapEffect::SetWorldOrientation
  000df	8b bd d4 7f ff
	ff		 mov	 edi, DWORD PTR _pOwner$[ebp]
$LN4@SetEndStat:

; 630  : 		}
; 631  : 	}
; 632  : 
; 633  : 	if( m_pFireMesh )

  000e5	83 bb 98 08 00
	00 00		 cmp	 DWORD PTR [ebx+2200], 0
  000ec	74 23		 je	 SHORT $LN3@SetEndStat

; 634  : 	{
; 635  : 		SAFEDELETE( m_pGuideArrow );

  000ee	8b 8b 9c 08 00
	00		 mov	 ecx, DWORD PTR [ebx+2204]
  000f4	85 c9		 test	 ecx, ecx
  000f6	74 0d		 je	 SHORT $LN2@SetEndStat
  000f8	8b 01		 mov	 eax, DWORD PTR [ecx]
  000fa	6a 01		 push	 1
  000fc	ff 10		 call	 DWORD PTR [eax]
  000fe	83 a3 9c 08 00
	00 00		 and	 DWORD PTR [ebx+2204], 0
$LN2@SetEndStat:

; 636  : 		m_pFireMesh->EndEffectGrace();

  00105	8b 8b 98 08 00
	00		 mov	 ecx, DWORD PTR [ebx+2200]
  0010b	ff 15 00 00 00
	00		 call	 DWORD PTR __imp_?EndEffectGrace@ioEffect@@QAEXXZ
$LN3@SetEndStat:

; 637  : 	}
; 638  : 
; 639  : 	if( bSendNet && pOwner->IsNeedSendNetwork() )

  00111	80 7d 08 00	 cmp	 BYTE PTR _bSendNet$[ebp], 0
  00115	74 72		 je	 SHORT $LN1@SetEndStat
  00117	8b 07		 mov	 eax, DWORD PTR [edi]
  00119	8b cf		 mov	 ecx, edi
  0011b	ff 90 04 01 00
	00		 call	 DWORD PTR [eax+260]
  00121	84 c0		 test	 al, al
  00123	74 64		 je	 SHORT $LN1@SetEndStat

; 640  : 	{
; 641  : 		SP2Packet kPacket( CUPK_WEAPON_SYNC );

  00125	68 16 42 00 00	 push	 16918			; 00004216H
  0012a	8d 8d d8 7f ff
	ff		 lea	 ecx, DWORD PTR _kPacket$583406[ebp]
  00130	e8 00 00 00 00	 call	 ??0SP2Packet@@QAE@K@Z	; SP2Packet::SP2Packet
  00135	83 65 fc 00	 and	 DWORD PTR __$EHRec$[ebp+8], 0

; 642  : 		kPacket << GetOwnerName();

  00139	8d 43 10	 lea	 eax, DWORD PTR [ebx+16]
  0013c	50		 push	 eax
  0013d	8d 8d d8 7f ff
	ff		 lea	 ecx, DWORD PTR _kPacket$583406[ebp]
  00143	e8 00 00 00 00	 call	 ??6SP2Packet@@QAEAAV0@ABVioHashString@@@Z ; SP2Packet::operator<<

; 643  : 		kPacket << m_dwWeaponIdx;

  00148	ff b3 b8 04 00
	00		 push	 DWORD PTR [ebx+1208]
  0014e	8d 8d d8 7f ff
	ff		 lea	 ecx, DWORD PTR _kPacket$583406[ebp]
  00154	e8 00 00 00 00	 call	 ??6SP2Packet@@QAEAAV0@K@Z ; SP2Packet::operator<<

; 644  : 		kPacket << m_WeaponState;

  00159	ff b3 94 08 00
	00		 push	 DWORD PTR [ebx+2196]
  0015f	8d 8d d8 7f ff
	ff		 lea	 ecx, DWORD PTR _kPacket$583406[ebp]
  00165	e8 00 00 00 00	 call	 ??6SP2Packet@@QAEAAV0@H@Z ; SP2Packet::operator<<

; 645  : 		P2PNetwork::SendToAllPlayingUser( kPacket );

  0016a	8d 85 d8 7f ff
	ff		 lea	 eax, DWORD PTR _kPacket$583406[ebp]
  00170	6a 00		 push	 0
  00172	50		 push	 eax
  00173	e8 00 00 00 00	 call	 ?SendToAllPlayingUser@P2PNetwork@@YAXAAVSP2Packet@@PAVioBaseChar@@@Z ; P2PNetwork::SendToAllPlayingUser

; 646  : 	}

  00178	83 4d fc ff	 or	 DWORD PTR __$EHRec$[ebp+8], -1
  0017c	59		 pop	 ecx
  0017d	59		 pop	 ecx
  0017e	8d 8d d8 7f ff
	ff		 lea	 ecx, DWORD PTR _kPacket$583406[ebp]
  00184	e8 00 00 00 00	 call	 ??1SP2Packet@@UAE@XZ	; SP2Packet::~SP2Packet
$LN1@SetEndStat:

; 647  : }

  00189	8b 4d f4	 mov	 ecx, DWORD PTR __$EHRec$[ebp]
  0018c	64 89 0d 00 00
	00 00		 mov	 DWORD PTR fs:0, ecx
  00193	59		 pop	 ecx
  00194	5f		 pop	 edi
  00195	5e		 pop	 esi
  00196	5b		 pop	 ebx
  00197	8b 4d f0	 mov	 ecx, DWORD PTR __$ArrayPad$[ebp]
  0019a	33 cd		 xor	 ecx, ebp
  0019c	e8 00 00 00 00	 call	 @__security_check_cookie@4
  001a1	c9		 leave
  001a2	c2 04 00	 ret	 4
_TEXT	ENDS
;	COMDAT text$x
text$x	SEGMENT
__unwindfunclet$?SetEndState@ioGuide2Weapon@@QAEX_N@Z$0:
  00000	8d 8d d8 7f ff
	ff		 lea	 ecx, DWORD PTR _kPacket$583406[ebp]
  00006	e9 00 00 00 00	 jmp	 ??1SP2Packet@@UAE@XZ	; SP2Packet::~SP2Packet
__ehhandler$?SetEndState@ioGuide2Weapon@@QAEX_N@Z:
  0000b	8b 54 24 08	 mov	 edx, DWORD PTR [esp+8]
  0000f	8d 42 0c	 lea	 eax, DWORD PTR [edx+12]
  00012	8b 8a bc 7f ff
	ff		 mov	 ecx, DWORD PTR [edx-32836]
  00018	33 c8		 xor	 ecx, eax
  0001a	e8 00 00 00 00	 call	 @__security_check_cookie@4
  0001f	8b 4a fc	 mov	 ecx, DWORD PTR [edx-4]
  00022	33 c8		 xor	 ecx, eax
  00024	e8 00 00 00 00	 call	 @__security_check_cookie@4
  00029	b8 00 00 00 00	 mov	 eax, OFFSET __ehfuncinfo$?SetEndState@ioGuide2Weapon@@QAEX_N@Z
  0002e	e9 00 00 00 00	 jmp	 ___CxxFrameHandler3
text$x	ENDS
?SetEndState@ioGuide2Weapon@@QAEX_N@Z ENDP		; ioGuide2Weapon::SetEndState
; Function compile flags: /Ogsp
;	COMDAT ?CheckPreCollision@ioGuide2Weapon@@UAEXPAVioPlayEntity@@PAVioPlayStage@@@Z
_TEXT	SEGMENT
_pTarget$ = 8						; size = 4
_pStage$ = 12						; size = 4
?CheckPreCollision@ioGuide2Weapon@@UAEXPAVioPlayEntity@@PAVioPlayStage@@@Z PROC ; ioGuide2Weapon::CheckPreCollision, COMDAT
; _this$ = ecx

; 769  : {

  00000	55		 push	 ebp
  00001	8b ec		 mov	 ebp, esp
  00003	53		 push	 ebx
  00004	56		 push	 esi
  00005	57		 push	 edi

; 770  : 	if( pTarget->IsWoundedCollision( GetWorldAttackBox() ) )

  00006	8b 7d 08	 mov	 edi, DWORD PTR _pTarget$[ebp]
  00009	8b 37		 mov	 esi, DWORD PTR [edi]
  0000b	6a 00		 push	 0
  0000d	6a 00		 push	 0
  0000f	8b d9		 mov	 ebx, ecx
  00011	e8 00 00 00 00	 call	 ?GetWorldAttackBox@ioWeapon@@QBEABVioOrientBox@@_N@Z ; ioWeapon::GetWorldAttackBox
  00016	50		 push	 eax
  00017	8b cf		 mov	 ecx, edi
  00019	ff 96 90 00 00
	00		 call	 DWORD PTR [esi+144]
  0001f	84 c0		 test	 al, al
  00021	74 40		 je	 SHORT $LN2@CheckPreCo

; 771  : 	{
; 772  : 		if( ToSymbolStruct(pTarget) || ToPushStruct(pTarget) || ToBallStruct(pTarget) ||
; 773  : 			ToDummyChar(pTarget) || ToWallZone(pTarget) )

  00023	57		 push	 edi
  00024	e8 00 00 00 00	 call	 ?ToSymbolStruct@@YAPAVioSymbolStruct@@PAVioGameEntity@@@Z ; ToSymbolStruct
  00029	59		 pop	 ecx
  0002a	85 c0		 test	 eax, eax
  0002c	75 2c		 jne	 SHORT $LN1@CheckPreCo
  0002e	57		 push	 edi
  0002f	e8 00 00 00 00	 call	 ?ToPushStruct@@YAPAVioPushStruct@@PAVioGameEntity@@@Z ; ToPushStruct
  00034	59		 pop	 ecx
  00035	85 c0		 test	 eax, eax
  00037	75 21		 jne	 SHORT $LN1@CheckPreCo
  00039	57		 push	 edi
  0003a	e8 00 00 00 00	 call	 ?ToBallStruct@@YAPAVioBall@@PAVioGameEntity@@@Z ; ToBallStruct
  0003f	59		 pop	 ecx
  00040	85 c0		 test	 eax, eax
  00042	75 16		 jne	 SHORT $LN1@CheckPreCo
  00044	57		 push	 edi
  00045	e8 00 00 00 00	 call	 ?ToDummyChar@@YAPAVioDummyChar@@PAVioGameEntity@@@Z ; ToDummyChar
  0004a	59		 pop	 ecx
  0004b	85 c0		 test	 eax, eax
  0004d	75 0b		 jne	 SHORT $LN1@CheckPreCo
  0004f	57		 push	 edi
  00050	e8 00 00 00 00	 call	 ?ToWallZone@@YAPAVioWallZone@@PAVioGameEntity@@@Z ; ToWallZone
  00055	59		 pop	 ecx
  00056	85 c0		 test	 eax, eax
  00058	74 09		 je	 SHORT $LN2@CheckPreCo
$LN1@CheckPreCo:

; 774  : 		{
; 775  : 			SetEndState( true );

  0005a	6a 01		 push	 1
  0005c	8b cb		 mov	 ecx, ebx
  0005e	e8 00 00 00 00	 call	 ?SetEndState@ioGuide2Weapon@@QAEX_N@Z ; ioGuide2Weapon::SetEndState
$LN2@CheckPreCo:
  00063	5f		 pop	 edi
  00064	5e		 pop	 esi
  00065	5b		 pop	 ebx

; 776  : 			return;
; 777  : 		}
; 778  : 	}
; 779  : }

  00066	5d		 pop	 ebp
  00067	c2 08 00	 ret	 8
?CheckPreCollision@ioGuide2Weapon@@UAEXPAVioPlayEntity@@PAVioPlayStage@@@Z ENDP ; ioGuide2Weapon::CheckPreCollision
_TEXT	ENDS
EXTRN	?SetWeaponDead@ioWeapon@@UAEXXZ:PROC		; ioWeapon::SetWeaponDead
; Function compile flags: /Ogsp
;	COMDAT ?SetWeaponDead@ioGuide2Weapon@@UAEXXZ
_TEXT	SEGMENT
?SetWeaponDead@ioGuide2Weapon@@UAEXXZ PROC		; ioGuide2Weapon::SetWeaponDead, COMDAT
; _this$ = ecx

; 782  : {

  00000	56		 push	 esi
  00001	8b f1		 mov	 esi, ecx

; 783  : 	if( m_WeaponState != WS_END )

  00003	83 be 94 08 00
	00 03		 cmp	 DWORD PTR [esi+2196], 3
  0000a	74 07		 je	 SHORT $LN1@SetWeaponD

; 784  : 	{
; 785  : 		SetEndState( false );

  0000c	6a 00		 push	 0
  0000e	e8 00 00 00 00	 call	 ?SetEndState@ioGuide2Weapon@@QAEX_N@Z ; ioGuide2Weapon::SetEndState
$LN1@SetWeaponD:

; 786  : 	}
; 787  : 
; 788  : 	ioWeapon::SetWeaponDead();

  00013	8b ce		 mov	 ecx, esi
  00015	5e		 pop	 esi
  00016	e9 00 00 00 00	 jmp	 ?SetWeaponDead@ioWeapon@@UAEXXZ ; ioWeapon::SetWeaponDead
?SetWeaponDead@ioGuide2Weapon@@UAEXXZ ENDP		; ioGuide2Weapon::SetWeaponDead
_TEXT	ENDS
PUBLIC	?SetSkillInfo@ioGuide2Weapon@@IAEXPAVioBaseChar@@@Z ; ioGuide2Weapon::SetSkillInfo
EXTRN	?SetSkillMoveState@ioGuideAttackSkill@@QAEXPAVioBaseChar@@@Z:PROC ; ioGuideAttackSkill::SetSkillMoveState
EXTRN	?SetInfoByWeapon@ioGuideAttackSkill@@QAEXPAVioBaseChar@@UD3DXVECTOR3@@@Z:PROC ; ioGuideAttackSkill::SetInfoByWeapon
; Function compile flags: /Ogsp
;	COMDAT ?SetSkillInfo@ioGuide2Weapon@@IAEXPAVioBaseChar@@@Z
_TEXT	SEGMENT
_pOwner$ = 8						; size = 4
?SetSkillInfo@ioGuide2Weapon@@IAEXPAVioBaseChar@@@Z PROC ; ioGuide2Weapon::SetSkillInfo, COMDAT
; _this$ = ecx

; 792  : {

  00000	55		 push	 ebp
  00001	8b ec		 mov	 ebp, esp

; 793  : 	if( !pOwner )

  00003	83 7d 08 00	 cmp	 DWORD PTR _pOwner$[ebp], 0
  00007	53		 push	 ebx
  00008	56		 push	 esi
  00009	57		 push	 edi
  0000a	8b f1		 mov	 esi, ecx
  0000c	75 07		 jne	 SHORT $LN2@SetSkillIn

; 794  : 		SetEndState( false );

  0000e	6a 00		 push	 0
  00010	e8 00 00 00 00	 call	 ?SetEndState@ioGuide2Weapon@@QAEX_N@Z ; ioGuide2Weapon::SetEndState
$LN2@SetSkillIn:

; 795  : 
; 796  : 	ioGuideAttackSkill *pGuideAttackSkill = ToGuideAttackSkill( pOwner->GetCurActiveSkill() );

  00015	8b 4d 08	 mov	 ecx, DWORD PTR _pOwner$[ebp]
  00018	e8 00 00 00 00	 call	 ?GetCurActiveSkill@ioBaseChar@@QAEPAVioSkill@@XZ ; ioBaseChar::GetCurActiveSkill
  0001d	50		 push	 eax
  0001e	e8 00 00 00 00	 call	 ?ToGuideAttackSkill@@YAPAVioGuideAttackSkill@@PAVioSkill@@@Z ; ToGuideAttackSkill
  00023	8b d8		 mov	 ebx, eax
  00025	59		 pop	 ecx

; 797  : 	if( pGuideAttackSkill )

  00026	85 db		 test	 ebx, ebx
  00028	74 25		 je	 SHORT $LN1@SetSkillIn

; 798  : 	{
; 799  : 		pGuideAttackSkill->SetInfoByWeapon( pOwner, GetPosition() );

  0002a	8b 06		 mov	 eax, DWORD PTR [esi]
  0002c	8b ce		 mov	 ecx, esi
  0002e	ff 50 70	 call	 DWORD PTR [eax+112]
  00031	83 ec 0c	 sub	 esp, 12			; 0000000cH
  00034	8b fc		 mov	 edi, esp
  00036	ff 75 08	 push	 DWORD PTR _pOwner$[ebp]
  00039	8b f0		 mov	 esi, eax
  0003b	a5		 movsd
  0003c	a5		 movsd
  0003d	8b cb		 mov	 ecx, ebx
  0003f	a5		 movsd
  00040	e8 00 00 00 00	 call	 ?SetInfoByWeapon@ioGuideAttackSkill@@QAEXPAVioBaseChar@@UD3DXVECTOR3@@@Z ; ioGuideAttackSkill::SetInfoByWeapon

; 800  : 		pGuideAttackSkill->SetSkillMoveState(pOwner);

  00045	ff 75 08	 push	 DWORD PTR _pOwner$[ebp]
  00048	8b cb		 mov	 ecx, ebx
  0004a	e8 00 00 00 00	 call	 ?SetSkillMoveState@ioGuideAttackSkill@@QAEXPAVioBaseChar@@@Z ; ioGuideAttackSkill::SetSkillMoveState
$LN1@SetSkillIn:

; 801  : 	}
; 802  : }

  0004f	5f		 pop	 edi
  00050	5e		 pop	 esi
  00051	5b		 pop	 ebx
  00052	5d		 pop	 ebp
  00053	c2 04 00	 ret	 4
?SetSkillInfo@ioGuide2Weapon@@IAEXPAVioBaseChar@@@Z ENDP ; ioGuide2Weapon::SetSkillInfo
_TEXT	ENDS
PUBLIC	__$ArrayPad$
PUBLIC	?OnAfterCollision@ioGuide2Weapon@@IAEXMPAVioPlayStage@@@Z ; ioGuide2Weapon::OnAfterCollision
EXTRN	?GetMidPositionByRate@ioGameEntity@@QBE?AUD3DXVECTOR3@@M@Z:PROC ; ioGameEntity::GetMidPositionByRate
EXTRN	?HasBuff@ioBaseChar@@QBE_NH@Z:PROC		; ioBaseChar::HasBuff
EXTRN	?GetBaseChar@ioPlayStage@@QAEPAVioBaseChar@@ABVioHashString@@@Z:PROC ; ioPlayStage::GetBaseChar
; Function compile flags: /Ogsp
;	COMDAT ?OnAfterCollision@ioGuide2Weapon@@IAEXMPAVioPlayStage@@@Z
_TEXT	SEGMENT
tv208 = -24						; size = 4
tv204 = -24						; size = 4
tv200 = -24						; size = 4
_value$588405 = -17					; size = 1
$T583322 = -16						; size = 12
__$ArrayPad$ = -4					; size = 4
_fTimePerSec$ = 8					; size = 4
_pStage$ = 12						; size = 4
?OnAfterCollision@ioGuide2Weapon@@IAEXMPAVioPlayStage@@@Z PROC ; ioGuide2Weapon::OnAfterCollision, COMDAT
; _this$ = ecx

; 444  : {

  00000	55		 push	 ebp
  00001	8b ec		 mov	 ebp, esp
  00003	83 ec 18	 sub	 esp, 24			; 00000018H
  00006	a1 00 00 00 00	 mov	 eax, DWORD PTR ___security_cookie
  0000b	33 c5		 xor	 eax, ebp
  0000d	89 45 fc	 mov	 DWORD PTR __$ArrayPad$[ebp], eax
  00010	56		 push	 esi
  00011	57		 push	 edi
  00012	8b 7d 0c	 mov	 edi, DWORD PTR _pStage$[ebp]
  00015	8b f1		 mov	 esi, ecx

; 445  : 	if( !pStage )

  00017	85 ff		 test	 edi, edi
  00019	75 0c		 jne	 SHORT $LN9@OnAfterCol
$LN22@OnAfterCol:

; 446  : 	{
; 447  : 		SetEndState( false );

  0001b	6a 00		 push	 0
  0001d	e8 00 00 00 00	 call	 ?SetEndState@ioGuide2Weapon@@QAEX_N@Z ; ioGuide2Weapon::SetEndState

; 448  : 		return;

  00022	e9 bb 00 00 00	 jmp	 $LN10@OnAfterCol
$LN9@OnAfterCol:

; 449  : 	}
; 450  : 
; 451  : 	if( !CheckOwnerState() )

  00027	e8 00 00 00 00	 call	 ?CheckOwnerState@ioGuide2Weapon@@IAE_NXZ ; ioGuide2Weapon::CheckOwnerState
  0002c	84 c0		 test	 al, al
  0002e	75 04		 jne	 SHORT $LN8@OnAfterCol

; 452  : 	{
; 453  : 		SetEndState( false );

  00030	8b ce		 mov	 ecx, esi

; 454  : 		return;

  00032	eb e7		 jmp	 SHORT $LN22@OnAfterCol
$LN8@OnAfterCol:

; 455  : 	}
; 456  : 
; 457  : 	if( m_bAttachTarget )

  00034	8d 45 ef	 lea	 eax, DWORD PTR _value$588405[ebp]
  00037	50		 push	 eax
  00038	8d 8e 90 0a 00
	00		 lea	 ecx, DWORD PTR [esi+2704]
  0003e	e8 00 00 00 00	 call	 ?DecryptValueToPool@?$CEncrypt@_N@@QAEXPA_N@Z ; CEncrypt<bool>::DecryptValueToPool
  00043	80 7d ef 00	 cmp	 BYTE PTR _value$588405[ebp], 0
  00047	0f 84 8e 00 00
	00		 je	 $LN1@OnAfterCol

; 458  : 	{
; 459  : 		if( m_TargetName.IsEmpty() )

  0004d	53		 push	 ebx
  0004e	8d 9e fc 08 00
	00		 lea	 ebx, DWORD PTR [esi+2300]
  00054	8b cb		 mov	 ecx, ebx
  00056	ff 15 00 00 00
	00		 call	 DWORD PTR __imp_?IsEmpty@ioHashString@@QBE_NXZ
  0005c	84 c0		 test	 al, al

; 460  : 		{
; 461  : 			SetEndState( false );
; 462  : 		}
; 463  : 		else

  0005e	75 71		 jne	 SHORT $LN4@OnAfterCol

; 464  : 		{
; 465  : 			ioBaseChar *pTarget = pStage->GetBaseChar( m_TargetName );

  00060	53		 push	 ebx
  00061	8b cf		 mov	 ecx, edi
  00063	e8 00 00 00 00	 call	 ?GetBaseChar@ioPlayStage@@QAEPAVioBaseChar@@ABVioHashString@@@Z ; ioPlayStage::GetBaseChar
  00068	8b f8		 mov	 edi, eax

; 466  : 			//   ..
; 467  : 			if( pTarget )

  0006a	85 ff		 test	 edi, edi
  0006c	74 63		 je	 SHORT $LN4@OnAfterCol

; 468  : 			{
; 469  : 				if( pTarget->HasBuff( BT_SKIP_STUN ) )

  0006e	6a 4b		 push	 75			; 0000004bH
  00070	8b cf		 mov	 ecx, edi
  00072	e8 00 00 00 00	 call	 ?HasBuff@ioBaseChar@@QBE_NH@Z ; ioBaseChar::HasBuff
  00077	84 c0		 test	 al, al
  00079	74 4d		 je	 SHORT $LN3@OnAfterCol

; 470  : 					SetPosition( pTarget->GetMidPositionByRate() );

  0007b	b8 05 00 00 00	 mov	 eax, 5
  00080	8b c8		 mov	 ecx, eax
  00082	b8 0a 00 00 00	 mov	 eax, 10			; 0000000aH
  00087	89 4d e8	 mov	 DWORD PTR tv208[ebp], ecx
  0008a	db 45 e8	 fild	 DWORD PTR tv208[ebp]
  0008d	85 c9		 test	 ecx, ecx
  0008f	79 06		 jns	 SHORT $LN19@OnAfterCol
  00091	d8 05 00 00 00
	00		 fadd	 DWORD PTR __real@4f800000
$LN19@OnAfterCol:
  00097	89 45 e8	 mov	 DWORD PTR tv204[ebp], eax
  0009a	db 45 e8	 fild	 DWORD PTR tv204[ebp]
  0009d	85 c0		 test	 eax, eax
  0009f	79 06		 jns	 SHORT $LN20@OnAfterCol
  000a1	d8 05 00 00 00
	00		 fadd	 DWORD PTR __real@4f800000
$LN20@OnAfterCol:
  000a7	de f9		 fdivp	 ST(1), ST(0)
  000a9	51		 push	 ecx
  000aa	8d 45 f0	 lea	 eax, DWORD PTR $T583322[ebp]
  000ad	8b cf		 mov	 ecx, edi
  000af	d9 5d e8	 fstp	 DWORD PTR tv200[ebp]
  000b2	d9 45 e8	 fld	 DWORD PTR tv200[ebp]
  000b5	d9 1c 24	 fstp	 DWORD PTR [esp]
  000b8	50		 push	 eax
  000b9	e8 00 00 00 00	 call	 ?GetMidPositionByRate@ioGameEntity@@QBE?AUD3DXVECTOR3@@M@Z ; ioGameEntity::GetMidPositionByRate
  000be	50		 push	 eax
  000bf	8b ce		 mov	 ecx, esi
  000c1	e8 00 00 00 00	 call	 ?SetPosition@ioWeapon@@QAEXABUD3DXVECTOR3@@@Z ; ioWeapon::SetPosition

; 471  : 				else

  000c6	eb 12		 jmp	 SHORT $LN18@OnAfterCol
$LN3@OnAfterCol:

; 472  : 					SetWeaponDead();

  000c8	8b 06		 mov	 eax, DWORD PTR [esi]
  000ca	8b ce		 mov	 ecx, esi
  000cc	ff 50 4c	 call	 DWORD PTR [eax+76]

; 473  : 			}
; 474  : 			else

  000cf	eb 09		 jmp	 SHORT $LN18@OnAfterCol
$LN4@OnAfterCol:

; 475  : 			{
; 476  : 				SetEndState( false );

  000d1	6a 00		 push	 0
  000d3	8b ce		 mov	 ecx, esi
  000d5	e8 00 00 00 00	 call	 ?SetEndState@ioGuide2Weapon@@QAEX_N@Z ; ioGuide2Weapon::SetEndState
$LN18@OnAfterCol:
  000da	5b		 pop	 ebx
$LN1@OnAfterCol:

; 477  : 			}
; 478  : 		}
; 479  : 	}
; 480  : 
; 481  : 	ProcessGuidArrow();

  000db	8b ce		 mov	 ecx, esi
  000dd	e8 00 00 00 00	 call	 ?ProcessGuidArrow@ioGuide2Weapon@@IAEXXZ ; ioGuide2Weapon::ProcessGuidArrow
$LN10@OnAfterCol:

; 482  : }

  000e2	8b 4d fc	 mov	 ecx, DWORD PTR __$ArrayPad$[ebp]
  000e5	5f		 pop	 edi
  000e6	33 cd		 xor	 ecx, ebp
  000e8	5e		 pop	 esi
  000e9	e8 00 00 00 00	 call	 @__security_check_cookie@4
  000ee	c9		 leave
  000ef	c2 08 00	 ret	 8
?OnAfterCollision@ioGuide2Weapon@@IAEXMPAVioPlayStage@@@Z ENDP ; ioGuide2Weapon::OnAfterCollision
_TEXT	ENDS
PUBLIC	__$ArrayPad$
PUBLIC	?SetAfterCollisionState@ioGuide2Weapon@@QAEX_N@Z ; ioGuide2Weapon::SetAfterCollisionState
;	COMDAT xdata$x
; File d:\lost saga for developer\youtube\tutorial\source\src\lsclient\ioweapon.h
xdata$x	SEGMENT
__unwindtable$?SetAfterCollisionState@ioGuide2Weapon@@QAEX_N@Z DD 0ffffffffH
	DD	FLAT:__unwindfunclet$?SetAfterCollisionState@ioGuide2Weapon@@QAEX_N@Z$0
__ehfuncinfo$?SetAfterCollisionState@ioGuide2Weapon@@QAEX_N@Z DD 019930522H
	DD	01H
	DD	FLAT:__unwindtable$?SetAfterCollisionState@ioGuide2Weapon@@QAEX_N@Z
	DD	2 DUP(00H)
	DD	2 DUP(00H)
	DD	00H
	DD	01H
; Function compile flags: /Ogsp
; File d:\lost saga for developer\youtube\tutorial\source\src\lsclient\ioguide2weapon.cpp
xdata$x	ENDS
;	COMDAT ?SetAfterCollisionState@ioGuide2Weapon@@QAEX_N@Z
_TEXT	SEGMENT
_kPacket$583386 = -32808				; size = 32792
__$ArrayPad$ = -16					; size = 4
__$EHRec$ = -12						; size = 12
_bSendNet$ = 8						; size = 1
?SetAfterCollisionState@ioGuide2Weapon@@QAEX_N@Z PROC	; ioGuide2Weapon::SetAfterCollisionState, COMDAT
; _this$ = ecx

; 582  : {

  00000	55		 push	 ebp
  00001	8b ec		 mov	 ebp, esp
  00003	6a ff		 push	 -1
  00005	68 00 00 00 00	 push	 __ehhandler$?SetAfterCollisionState@ioGuide2Weapon@@QAEX_N@Z
  0000a	64 a1 00 00 00
	00		 mov	 eax, DWORD PTR fs:0
  00010	50		 push	 eax
  00011	b8 1c 80 00 00	 mov	 eax, 32796		; 0000801cH
  00016	e8 00 00 00 00	 call	 __chkstk
  0001b	a1 00 00 00 00	 mov	 eax, DWORD PTR ___security_cookie
  00020	33 c5		 xor	 eax, ebp
  00022	89 45 f0	 mov	 DWORD PTR __$ArrayPad$[ebp], eax
  00025	56		 push	 esi
  00026	50		 push	 eax
  00027	8d 45 f4	 lea	 eax, DWORD PTR __$EHRec$[ebp]
  0002a	64 a3 00 00 00
	00		 mov	 DWORD PTR fs:0, eax

; 583  : 	if( m_WeaponState == WS_AFTER_COLLISION )

  00030	6a 02		 push	 2
  00032	8b f1		 mov	 esi, ecx
  00034	58		 pop	 eax
  00035	39 86 94 08 00
	00		 cmp	 DWORD PTR [esi+2196], eax
  0003b	0f 84 97 00 00
	00		 je	 $LN1@SetAfterCo

; 584  : 		return;
; 585  : 
; 586  : 	m_WeaponState = WS_AFTER_COLLISION;

  00041	89 86 94 08 00
	00		 mov	 DWORD PTR [esi+2196], eax

; 587  : 
; 588  : 	ioBaseChar *pOwner = GetOwner();

  00047	e8 00 00 00 00	 call	 ?GetOwner@ioWeapon@@QBEPAVioBaseChar@@XZ ; ioWeapon::GetOwner

; 589  : 	if( !pOwner )

  0004c	85 c0		 test	 eax, eax
  0004e	0f 84 84 00 00
	00		 je	 $LN1@SetAfterCo

; 590  : 		return;
; 591  : 
; 592  : 	SetSkillInfo( pOwner );

  00054	50		 push	 eax
  00055	8b ce		 mov	 ecx, esi
  00057	e8 00 00 00 00	 call	 ?SetSkillInfo@ioGuide2Weapon@@IAEXPAVioBaseChar@@@Z ; ioGuide2Weapon::SetSkillInfo

; 593  : 
; 594  : 	if( bSendNet )

  0005c	80 7d 08 00	 cmp	 BYTE PTR _bSendNet$[ebp], 0
  00060	74 76		 je	 SHORT $LN1@SetAfterCo

; 595  : 	{
; 596  : 		SP2Packet kPacket( CUPK_WEAPON_SYNC );

  00062	68 16 42 00 00	 push	 16918			; 00004216H
  00067	8d 8d d8 7f ff
	ff		 lea	 ecx, DWORD PTR _kPacket$583386[ebp]
  0006d	e8 00 00 00 00	 call	 ??0SP2Packet@@QAE@K@Z	; SP2Packet::SP2Packet
  00072	83 65 fc 00	 and	 DWORD PTR __$EHRec$[ebp+8], 0

; 597  : 		kPacket << GetOwnerName();

  00076	8d 46 10	 lea	 eax, DWORD PTR [esi+16]
  00079	50		 push	 eax
  0007a	8d 8d d8 7f ff
	ff		 lea	 ecx, DWORD PTR _kPacket$583386[ebp]
  00080	e8 00 00 00 00	 call	 ??6SP2Packet@@QAEAAV0@ABVioHashString@@@Z ; SP2Packet::operator<<

; 598  : 		kPacket << m_dwWeaponIdx;

  00085	ff b6 b8 04 00
	00		 push	 DWORD PTR [esi+1208]
  0008b	8d 8d d8 7f ff
	ff		 lea	 ecx, DWORD PTR _kPacket$583386[ebp]
  00091	e8 00 00 00 00	 call	 ??6SP2Packet@@QAEAAV0@K@Z ; SP2Packet::operator<<

; 599  : 		kPacket << m_WeaponState;

  00096	ff b6 94 08 00
	00		 push	 DWORD PTR [esi+2196]
  0009c	8d 8d d8 7f ff
	ff		 lea	 ecx, DWORD PTR _kPacket$583386[ebp]
  000a2	e8 00 00 00 00	 call	 ??6SP2Packet@@QAEAAV0@H@Z ; SP2Packet::operator<<

; 600  : 		kPacket << m_TargetName;

  000a7	81 c6 fc 08 00
	00		 add	 esi, 2300		; 000008fcH
  000ad	56		 push	 esi
  000ae	8d 8d d8 7f ff
	ff		 lea	 ecx, DWORD PTR _kPacket$583386[ebp]
  000b4	e8 00 00 00 00	 call	 ??6SP2Packet@@QAEAAV0@ABVioHashString@@@Z ; SP2Packet::operator<<

; 601  : 		P2PNetwork::SendToAllPlayingUser( kPacket );

  000b9	8d 85 d8 7f ff
	ff		 lea	 eax, DWORD PTR _kPacket$583386[ebp]
  000bf	6a 00		 push	 0
  000c1	50		 push	 eax
  000c2	e8 00 00 00 00	 call	 ?SendToAllPlayingUser@P2PNetwork@@YAXAAVSP2Packet@@PAVioBaseChar@@@Z ; P2PNetwork::SendToAllPlayingUser

; 602  : 	}

  000c7	83 4d fc ff	 or	 DWORD PTR __$EHRec$[ebp+8], -1
  000cb	59		 pop	 ecx
  000cc	59		 pop	 ecx
  000cd	8d 8d d8 7f ff
	ff		 lea	 ecx, DWORD PTR _kPacket$583386[ebp]
  000d3	e8 00 00 00 00	 call	 ??1SP2Packet@@UAE@XZ	; SP2Packet::~SP2Packet
$LN1@SetAfterCo:

; 603  : }

  000d8	8b 4d f4	 mov	 ecx, DWORD PTR __$EHRec$[ebp]
  000db	64 89 0d 00 00
	00 00		 mov	 DWORD PTR fs:0, ecx
  000e2	59		 pop	 ecx
  000e3	5e		 pop	 esi
  000e4	8b 4d f0	 mov	 ecx, DWORD PTR __$ArrayPad$[ebp]
  000e7	33 cd		 xor	 ecx, ebp
  000e9	e8 00 00 00 00	 call	 @__security_check_cookie@4
  000ee	c9		 leave
  000ef	c2 04 00	 ret	 4
_TEXT	ENDS
;	COMDAT text$x
text$x	SEGMENT
__unwindfunclet$?SetAfterCollisionState@ioGuide2Weapon@@QAEX_N@Z$0:
  00000	8d 8d d8 7f ff
	ff		 lea	 ecx, DWORD PTR _kPacket$583386[ebp]
  00006	e9 00 00 00 00	 jmp	 ??1SP2Packet@@UAE@XZ	; SP2Packet::~SP2Packet
__ehhandler$?SetAfterCollisionState@ioGuide2Weapon@@QAEX_N@Z:
  0000b	8b 54 24 08	 mov	 edx, DWORD PTR [esp+8]
  0000f	8d 42 0c	 lea	 eax, DWORD PTR [edx+12]
  00012	8b 8a dc 7f ff
	ff		 mov	 ecx, DWORD PTR [edx-32804]
  00018	33 c8		 xor	 ecx, eax
  0001a	e8 00 00 00 00	 call	 @__security_check_cookie@4
  0001f	8b 4a fc	 mov	 ecx, DWORD PTR [edx-4]
  00022	33 c8		 xor	 ecx, eax
  00024	e8 00 00 00 00	 call	 @__security_check_cookie@4
  00029	b8 00 00 00 00	 mov	 eax, OFFSET __ehfuncinfo$?SetAfterCollisionState@ioGuide2Weapon@@QAEX_N@Z
  0002e	e9 00 00 00 00	 jmp	 ___CxxFrameHandler3
text$x	ENDS
?SetAfterCollisionState@ioGuide2Weapon@@QAEX_N@Z ENDP	; ioGuide2Weapon::SetAfterCollisionState
PUBLIC	?CheckAfterCollisionState@ioGuide2Weapon@@QAEXPAVioBaseChar@@_N@Z ; ioGuide2Weapon::CheckAfterCollisionState
EXTRN	__imp_?Clear@ioHashString@@QAEXXZ:PROC
; Function compile flags: /Ogsp
;	COMDAT ?CheckAfterCollisionState@ioGuide2Weapon@@QAEXPAVioBaseChar@@_N@Z
_TEXT	SEGMENT
_pChar$ = 8						; size = 4
_bSend$583465 = 12					; size = 1
_bApplyCol$ = 12					; size = 1
?CheckAfterCollisionState@ioGuide2Weapon@@QAEXPAVioBaseChar@@_N@Z PROC ; ioGuide2Weapon::CheckAfterCollisionState, COMDAT
; _this$ = ecx

; 744  : {

  00000	55		 push	 ebp
  00001	8b ec		 mov	 ebp, esp
  00003	53		 push	 ebx
  00004	56		 push	 esi

; 745  : 	if( !pChar )

  00005	8b 75 08	 mov	 esi, DWORD PTR _pChar$[ebp]
  00008	8b d9		 mov	 ebx, ecx
  0000a	85 f6		 test	 esi, esi

; 746  : 	{
; 747  : 		SetEndState( true );
; 748  : 		return;

  0000c	74 49		 je	 SHORT $LN3@CheckAfter

; 749  : 	}
; 750  : 
; 751  : 	if( bApplyCol )

  0000e	80 7d 0c 00	 cmp	 BYTE PTR _bApplyCol$[ebp], 0
  00012	74 43		 je	 SHORT $LN3@CheckAfter

; 752  : 	{
; 753  : 		bool bSend = false;
; 754  : 		if( pChar->IsNeedSendNetwork() )

  00014	8b 06		 mov	 eax, DWORD PTR [esi]
  00016	8b ce		 mov	 ecx, esi
  00018	c6 45 0c 00	 mov	 BYTE PTR _bSend$583465[ebp], 0
  0001c	ff 90 04 01 00
	00		 call	 DWORD PTR [eax+260]
  00022	84 c0		 test	 al, al
  00024	74 04		 je	 SHORT $LN2@CheckAfter

; 755  : 			bSend = true;

  00026	c6 45 0c 01	 mov	 BYTE PTR _bSend$583465[ebp], 1
$LN2@CheckAfter:
  0002a	57		 push	 edi

; 756  : 
; 757  : 		m_TargetName.Clear();

  0002b	8d 8b fc 08 00
	00		 lea	 ecx, DWORD PTR [ebx+2300]
  00031	ff 15 00 00 00
	00		 call	 DWORD PTR __imp_?Clear@ioHashString@@QAEXXZ

; 758  : 		m_TargetName = pChar->GetCharName();

  00037	81 c6 d4 02 00
	00		 add	 esi, 724		; 000002d4H
  0003d	56		 push	 esi
  0003e	8d 8b fc 08 00
	00		 lea	 ecx, DWORD PTR [ebx+2300]
  00044	ff 15 00 00 00
	00		 call	 DWORD PTR __imp_??4ioHashString@@QAEAAV0@ABV0@@Z

; 759  : 
; 760  : 		SetAfterCollisionState( bSend );

  0004a	ff 75 0c	 push	 DWORD PTR _bSend$583465[ebp]
  0004d	8b cb		 mov	 ecx, ebx
  0004f	e8 00 00 00 00	 call	 ?SetAfterCollisionState@ioGuide2Weapon@@QAEX_N@Z ; ioGuide2Weapon::SetAfterCollisionState
  00054	5f		 pop	 edi

; 761  : 	}
; 762  : 	else

  00055	eb 07		 jmp	 SHORT $LN1@CheckAfter
$LN3@CheckAfter:

; 763  : 	{
; 764  : 		SetEndState( true );

  00057	6a 01		 push	 1
  00059	e8 00 00 00 00	 call	 ?SetEndState@ioGuide2Weapon@@QAEX_N@Z ; ioGuide2Weapon::SetEndState
$LN1@CheckAfter:
  0005e	5e		 pop	 esi
  0005f	5b		 pop	 ebx

; 765  : 	}
; 766  : }

  00060	5d		 pop	 ebp
  00061	c2 08 00	 ret	 8
?CheckAfterCollisionState@ioGuide2Weapon@@QAEXPAVioBaseChar@@_N@Z ENDP ; ioGuide2Weapon::CheckAfterCollisionState
_TEXT	ENDS
EXTRN	?GetExplosionEffectName@ioWeapon@@QBEABVioHashString@@XZ:PROC ; ioWeapon::GetExplosionEffectName
EXTRN	__imp_?GetCenter@ioOrientBox@@QBEABUD3DXVECTOR3@@XZ:PROC
; Function compile flags: /Ogsp
;	COMDAT ?TestMapCollision@ioGuide2Weapon@@UAE_NPAVioOpcodeShape@@PAVioPlayStage@@PBUD3DXMATRIX@@@Z
_TEXT	SEGMENT
_pShape$ = 8						; size = 4
_value$588445 = 11					; size = 1
_pStage$ = 12						; size = 4
_pShapeWorldMat$ = 16					; size = 4
?TestMapCollision@ioGuide2Weapon@@UAE_NPAVioOpcodeShape@@PAVioPlayStage@@PBUD3DXMATRIX@@@Z PROC ; ioGuide2Weapon::TestMapCollision, COMDAT
; _this$ = ecx

; 217  : {

  00000	55		 push	 ebp
  00001	8b ec		 mov	 ebp, esp
  00003	56		 push	 esi
  00004	8b f1		 mov	 esi, ecx

; 218  : 	//pShape        TRUE
; 219  : 	//     1   N   TestMapCollision()   
; 220  : 	// 
; 221  : 	if( m_WeaponState != WS_MOVE && m_WeaponState != WS_TRACING && m_WeaponState != WS_AFTER_COLLISION )

  00006	8b 86 94 08 00
	00		 mov	 eax, DWORD PTR [esi+2196]
  0000c	85 c0		 test	 eax, eax
  0000e	74 11		 je	 SHORT $LN10@TestMapCol
  00010	83 f8 01	 cmp	 eax, 1
  00013	74 0c		 je	 SHORT $LN10@TestMapCol
  00015	83 f8 02	 cmp	 eax, 2
  00018	74 07		 je	 SHORT $LN10@TestMapCol

; 222  : 		return true;

  0001a	b0 01		 mov	 al, 1
  0001c	e9 96 00 00 00	 jmp	 $LN6@TestMapCol
$LN10@TestMapCol:
  00021	53		 push	 ebx

; 223  : 
; 224  : 	if( pShape->TestIntersection( pShapeWorldMat, GetWorldAttackBox(true) ) )

  00022	8b 5d 08	 mov	 ebx, DWORD PTR _pShape$[ebp]
  00025	57		 push	 edi
  00026	8b 3b		 mov	 edi, DWORD PTR [ebx]
  00028	6a 01		 push	 1
  0002a	e8 00 00 00 00	 call	 ?GetWorldAttackBox@ioWeapon@@QBEABVioOrientBox@@_N@Z ; ioWeapon::GetWorldAttackBox
  0002f	50		 push	 eax
  00030	ff 75 10	 push	 DWORD PTR _pShapeWorldMat$[ebp]
  00033	8b cb		 mov	 ecx, ebx
  00035	ff 57 24	 call	 DWORD PTR [edi+36]
  00038	84 c0		 test	 al, al
  0003a	74 77		 je	 SHORT $LN4@TestMapCol

; 225  : 	{
; 226  : 		ioBaseChar *pOwner = GetOwner();

  0003c	8b ce		 mov	 ecx, esi
  0003e	e8 00 00 00 00	 call	 ?GetOwner@ioWeapon@@QBEPAVioBaseChar@@XZ ; ioWeapon::GetOwner
  00043	8b f8		 mov	 edi, eax

; 227  : 		if( pOwner )

  00045	85 ff		 test	 edi, edi
  00047	74 66		 je	 SHORT $LN1@TestMapCol

; 228  : 		{
; 229  : 			pStage->CreateMapEffect( GetExplosionEffectName(), GetWorldAttackBox(true).GetCenter(), GetScale() );

  00049	8b ce		 mov	 ecx, esi
  0004b	e8 00 00 00 00	 call	 ?GetScale@ioWeapon@@QBEABUD3DXVECTOR3@@XZ ; ioWeapon::GetScale
  00050	50		 push	 eax
  00051	6a 01		 push	 1
  00053	8b ce		 mov	 ecx, esi
  00055	e8 00 00 00 00	 call	 ?GetWorldAttackBox@ioWeapon@@QBEABVioOrientBox@@_N@Z ; ioWeapon::GetWorldAttackBox
  0005a	8b c8		 mov	 ecx, eax
  0005c	ff 15 00 00 00
	00		 call	 DWORD PTR __imp_?GetCenter@ioOrientBox@@QBEABUD3DXVECTOR3@@XZ
  00062	50		 push	 eax
  00063	8b ce		 mov	 ecx, esi
  00065	e8 00 00 00 00	 call	 ?GetExplosionEffectName@ioWeapon@@QBEABVioHashString@@XZ ; ioWeapon::GetExplosionEffectName
  0006a	8b 4d 0c	 mov	 ecx, DWORD PTR _pStage$[ebp]
  0006d	50		 push	 eax
  0006e	e8 00 00 00 00	 call	 ?CreateMapEffect@ioPlayStage@@QAEPAVioMapEffect@@ABVioHashString@@ABUD3DXVECTOR3@@1@Z ; ioPlayStage::CreateMapEffect

; 230  : 
; 231  : 			PlayWoundedSound( NULL );

  00073	8b 06		 mov	 eax, DWORD PTR [esi]
  00075	6a 00		 push	 0
  00077	8b ce		 mov	 ecx, esi
  00079	ff 50 54	 call	 DWORD PTR [eax+84]

; 232  : 
; 233  : 			if( pOwner->IsNeedProcess() )

  0007c	8b 07		 mov	 eax, DWORD PTR [edi]
  0007e	8b cf		 mov	 ecx, edi
  00080	ff 90 00 01 00
	00		 call	 DWORD PTR [eax+256]
  00086	84 c0		 test	 al, al
  00088	74 09		 je	 SHORT $LN2@TestMapCol

; 234  : 			{
; 235  : 				SetAfterCollisionState( false );

  0008a	6a 00		 push	 0
  0008c	8b ce		 mov	 ecx, esi
  0008e	e8 00 00 00 00	 call	 ?SetAfterCollisionState@ioGuide2Weapon@@QAEX_N@Z ; ioGuide2Weapon::SetAfterCollisionState
$LN2@TestMapCol:

; 236  : 			}
; 237  : 
; 238  : 			if( m_bAttachTarget )

  00093	8d 45 0b	 lea	 eax, DWORD PTR _value$588445[ebp]
  00096	50		 push	 eax
  00097	8d 8e 90 0a 00
	00		 lea	 ecx, DWORD PTR [esi+2704]
  0009d	e8 00 00 00 00	 call	 ?DecryptValueToPool@?$CEncrypt@_N@@QAEXPA_N@Z ; CEncrypt<bool>::DecryptValueToPool
  000a2	80 7d 0b 00	 cmp	 BYTE PTR _value$588445[ebp], 0
  000a6	74 07		 je	 SHORT $LN1@TestMapCol

; 239  : 				SetWeaponDead();

  000a8	8b 06		 mov	 eax, DWORD PTR [esi]
  000aa	8b ce		 mov	 ecx, esi
  000ac	ff 50 4c	 call	 DWORD PTR [eax+76]
$LN1@TestMapCol:

; 240  : 		}
; 241  : 
; 242  : 		return true;

  000af	b0 01		 mov	 al, 1
  000b1	eb 02		 jmp	 SHORT $LN11@TestMapCol
$LN4@TestMapCol:

; 243  : 	}
; 244  : 
; 245  : 	return false;

  000b3	32 c0		 xor	 al, al
$LN11@TestMapCol:
  000b5	5f		 pop	 edi
  000b6	5b		 pop	 ebx
$LN6@TestMapCol:
  000b7	5e		 pop	 esi

; 246  : }

  000b8	5d		 pop	 ebp
  000b9	c2 0c 00	 ret	 12			; 0000000cH
?TestMapCollision@ioGuide2Weapon@@UAE_NPAVioOpcodeShape@@PAVioPlayStage@@PBUD3DXMATRIX@@@Z ENDP ; ioGuide2Weapon::TestMapCollision
_TEXT	ENDS
PUBLIC	__$ArrayPad$
PUBLIC	?OnFloating@ioGuide2Weapon@@IAEXMPAVioPlayStage@@@Z ; ioGuide2Weapon::OnFloating
; Function compile flags: /Ogsp
;	COMDAT ?OnFloating@ioGuide2Weapon@@IAEXMPAVioPlayStage@@@Z
_TEXT	SEGMENT
_pOwner$ = -24						; size = 4
_value$588478 = -20					; size = 4
_fMaxRange$ = -20					; size = 4
_fMoveDist$ = -20					; size = 4
_vNewPos$ = -16						; size = 12
__$ArrayPad$ = -4					; size = 4
_fTimePerSec$ = 8					; size = 4
_pStage$ = 12						; size = 4
?OnFloating@ioGuide2Weapon@@IAEXMPAVioPlayStage@@@Z PROC ; ioGuide2Weapon::OnFloating, COMDAT
; _this$ = ecx

; 249  : {

  00000	55		 push	 ebp
  00001	8b ec		 mov	 ebp, esp
  00003	83 ec 18	 sub	 esp, 24			; 00000018H
  00006	a1 00 00 00 00	 mov	 eax, DWORD PTR ___security_cookie
  0000b	33 c5		 xor	 eax, ebp
  0000d	89 45 fc	 mov	 DWORD PTR __$ArrayPad$[ebp], eax
  00010	53		 push	 ebx
  00011	56		 push	 esi
  00012	8b 75 0c	 mov	 esi, DWORD PTR _pStage$[ebp]
  00015	8b d9		 mov	 ebx, ecx

; 250  : 	if( !CheckOwnerState() )

  00017	e8 00 00 00 00	 call	 ?CheckOwnerState@ioGuide2Weapon@@IAE_NXZ ; ioGuide2Weapon::CheckOwnerState
  0001c	84 c0		 test	 al, al
  0001e	75 0e		 jne	 SHORT $LN6@OnFloating

; 251  : 	{
; 252  : 		SetEndState( false );

  00020	6a 00		 push	 0
  00022	8b cb		 mov	 ecx, ebx
  00024	e8 00 00 00 00	 call	 ?SetEndState@ioGuide2Weapon@@QAEX_N@Z ; ioGuide2Weapon::SetEndState

; 253  : 		return;

  00029	e9 85 01 00 00	 jmp	 $LN7@OnFloating
$LN6@OnFloating:
  0002e	57		 push	 edi

; 254  : 	}
; 255  : 
; 256  : 	if( m_dwCreatedTime + m_dwTraceEnableTime < FRAMEGETTIME() )

  0002f	ff 15 00 00 00
	00		 call	 DWORD PTR __imp_?GetSingleton@ioFrameTimer@@SAAAV1@XZ
  00035	8b c8		 mov	 ecx, eax
  00037	ff 15 00 00 00
	00		 call	 DWORD PTR __imp_?GetLoopSec@ioFrameTimer@@QBEKXZ
  0003d	8b 8b 6c 09 00
	00		 mov	 ecx, DWORD PTR [ebx+2412]
  00043	03 8b d4 04 00
	00		 add	 ecx, DWORD PTR [ebx+1236]
  00049	3b c8		 cmp	 ecx, eax
  0004b	73 27		 jae	 SHORT $LN4@OnFloating

; 257  : 	{
; 258  : 		if( !m_TargetName.IsEmpty() )

  0004d	8d bb fc 08 00
	00		 lea	 edi, DWORD PTR [ebx+2300]
  00053	8b cf		 mov	 ecx, edi
  00055	ff 15 00 00 00
	00		 call	 DWORD PTR __imp_?IsEmpty@ioHashString@@QBE_NXZ
  0005b	84 c0		 test	 al, al
  0005d	75 15		 jne	 SHORT $LN4@OnFloating

; 259  : 		{
; 260  : 			ioBaseChar *pTarget = pStage->GetBaseChar( m_TargetName );

  0005f	57		 push	 edi
  00060	8b ce		 mov	 ecx, esi
  00062	e8 00 00 00 00	 call	 ?GetBaseChar@ioPlayStage@@QAEPAVioBaseChar@@ABVioHashString@@@Z ; ioPlayStage::GetBaseChar

; 261  : 			SetTraceState( pStage );

  00067	56		 push	 esi
  00068	8b cb		 mov	 ecx, ebx
  0006a	e8 00 00 00 00	 call	 ?SetTraceState@ioGuide2Weapon@@QAEXPAVioPlayStage@@@Z ; ioGuide2Weapon::SetTraceState

; 262  : 			return;

  0006f	e9 3e 01 00 00	 jmp	 $LN19@OnFloating
$LN4@OnFloating:

; 263  : 		}
; 264  : 	}
; 265  : 
; 266  : 	ioBaseChar *pOwner = GetOwner();

  00074	8b cb		 mov	 ecx, ebx
  00076	e8 00 00 00 00	 call	 ?GetOwner@ioWeapon@@QBEPAVioBaseChar@@XZ ; ioWeapon::GetOwner

; 267  : 
; 268  : 	float fCurSpeed = GetMoveSpeed();

  0007b	8b cb		 mov	 ecx, ebx
  0007d	89 45 e8	 mov	 DWORD PTR _pOwner$[ebp], eax
  00080	e8 00 00 00 00	 call	 ?GetMoveSpeed@ioGuide2Weapon@@IAEMXZ ; ioGuide2Weapon::GetMoveSpeed

; 269  : 	float fMoveDist = fCurSpeed * fTimePerSec;

  00085	d8 4d 08	 fmul	 DWORD PTR _fTimePerSec$[ebp]

; 270  : 
; 271  : 	m_vPrePos = GetPosition();

  00088	8b 03		 mov	 eax, DWORD PTR [ebx]
  0008a	8b cb		 mov	 ecx, ebx
  0008c	d9 5d ec	 fstp	 DWORD PTR _fMoveDist$[ebp]
  0008f	ff 50 70	 call	 DWORD PTR [eax+112]

; 272  : 	D3DXVECTOR3 vNewPos = m_vPrePos + (m_vMoveDir * fMoveDist);

  00092	f3 0f 10 4d ec	 movss	 xmm1, DWORD PTR _fMoveDist$[ebp]

; 273  : 	m_fCurMoveRange += fMoveDist;

  00097	d9 45 ec	 fld	 DWORD PTR _fMoveDist$[ebp]
  0009a	f3 0f 10 55 ec	 movss	 xmm2, DWORD PTR _fMoveDist$[ebp]
  0009f	d8 83 8c 0a 00
	00		 fadd	 DWORD PTR [ebx+2700]
  000a5	f3 0f 10 5d ec	 movss	 xmm3, DWORD PTR _fMoveDist$[ebp]
  000aa	8b f0		 mov	 esi, eax
  000ac	8d bb f0 08 00
	00		 lea	 edi, DWORD PTR [ebx+2288]
  000b2	a5		 movsd
  000b3	a5		 movsd
  000b4	a5		 movsd
  000b5	f3 0f 10 83 e4
	08 00 00	 movss	 xmm0, DWORD PTR [ebx+2276]
  000bd	0f 5a c0	 cvtps2pd xmm0, xmm0
  000c0	0f 5a c9	 cvtps2pd xmm1, xmm1
  000c3	f2 0f 59 c1	 mulsd	 xmm0, xmm1
  000c7	f3 0f 10 8b e8
	08 00 00	 movss	 xmm1, DWORD PTR [ebx+2280]
  000cf	66 0f 5a c0	 cvtpd2ps xmm0, xmm0
  000d3	0f 5a c9	 cvtps2pd xmm1, xmm1
  000d6	0f 5a d2	 cvtps2pd xmm2, xmm2
  000d9	f2 0f 59 ca	 mulsd	 xmm1, xmm2
  000dd	f3 0f 10 93 ec
	08 00 00	 movss	 xmm2, DWORD PTR [ebx+2284]
  000e5	f3 0f 5a c0	 cvtss2sd xmm0, xmm0
  000e9	0f 5a db	 cvtps2pd xmm3, xmm3
  000ec	0f 5a d2	 cvtps2pd xmm2, xmm2
  000ef	f2 0f 59 d3	 mulsd	 xmm2, xmm3
  000f3	f3 0f 10 9b f0
	08 00 00	 movss	 xmm3, DWORD PTR [ebx+2288]
  000fb	0f 5a db	 cvtps2pd xmm3, xmm3
  000fe	f2 0f 58 d8	 addsd	 xmm3, xmm0
  00102	0f 57 c0	 xorps	 xmm0, xmm0
  00105	66 0f 5a c3	 cvtpd2ps xmm0, xmm3
  00109	f3 0f 11 45 f0	 movss	 DWORD PTR _vNewPos$[ebp], xmm0
  0010e	f3 0f 10 83 f4
	08 00 00	 movss	 xmm0, DWORD PTR [ebx+2292]
  00116	0f 5a c0	 cvtps2pd xmm0, xmm0
  00119	66 0f 5a c9	 cvtpd2ps xmm1, xmm1
  0011d	f3 0f 5a c9	 cvtss2sd xmm1, xmm1
  00121	f2 0f 58 c1	 addsd	 xmm0, xmm1
  00125	66 0f 5a c0	 cvtpd2ps xmm0, xmm0
  00129	f3 0f 11 45 f4	 movss	 DWORD PTR _vNewPos$[ebp+4], xmm0
  0012e	f3 0f 10 83 f8
	08 00 00	 movss	 xmm0, DWORD PTR [ebx+2296]
  00136	d9 9b 8c 0a 00
	00		 fstp	 DWORD PTR [ebx+2700]
  0013c	66 0f 5a d2	 cvtpd2ps xmm2, xmm2
  00140	0f 5a c0	 cvtps2pd xmm0, xmm0
  00143	0f 57 c9	 xorps	 xmm1, xmm1
  00146	f3 0f 5a ca	 cvtss2sd xmm1, xmm2

; 274  : 
; 275  : 	float fMaxRange = GetMaxRange() + m_fGrowthMoveRange;

  0014a	8d 45 ec	 lea	 eax, DWORD PTR _value$588478[ebp]
  0014d	f2 0f 58 c1	 addsd	 xmm0, xmm1
  00151	66 0f 5a c0	 cvtpd2ps xmm0, xmm0
  00155	50		 push	 eax
  00156	8d 8b 60 03 00
	00		 lea	 ecx, DWORD PTR [ebx+864]
  0015c	f3 0f 11 45 f8	 movss	 DWORD PTR _vNewPos$[ebp+8], xmm0
  00161	e8 00 00 00 00	 call	 ?DecryptValueToPool@?$CEncrypt@M@@QAEXPAM@Z ; CEncrypt<float>::DecryptValueToPool
  00166	8b cb		 mov	 ecx, ebx
  00168	e8 00 00 00 00	 call	 ?GetMaxRange@ioGuide2Weapon@@QAEMXZ ; ioGuide2Weapon::GetMaxRange
  0016d	d8 45 ec	 fadd	 DWORD PTR _value$588478[ebp]
  00170	d9 5d ec	 fstp	 DWORD PTR _fMaxRange$[ebp]

; 276  : 	if( m_fCurMoveRange < fMaxRange )

  00173	d9 83 8c 0a 00
	00		 fld	 DWORD PTR [ebx+2700]
  00179	d9 45 ec	 fld	 DWORD PTR _fMaxRange$[ebp]
  0017c	df f1		 fcomip	 ST(1)
  0017e	dd d8		 fstp	 ST(0)
  00180	76 0d		 jbe	 SHORT $LN3@OnFloating

; 277  : 	{
; 278  : 		SetPosition( vNewPos );

  00182	8d 45 f0	 lea	 eax, DWORD PTR _vNewPos$[ebp]
  00185	50		 push	 eax
  00186	8b cb		 mov	 ecx, ebx
  00188	e8 00 00 00 00	 call	 ?SetPosition@ioWeapon@@QAEXABUD3DXVECTOR3@@@Z ; ioWeapon::SetPosition

; 279  : 	}
; 280  : 	else

  0018d	eb 1c		 jmp	 SHORT $LN1@OnFloating
$LN3@OnFloating:

; 281  : 	{
; 282  : 		if( pOwner && pOwner->IsNeedProcess() )

  0018f	8b 4d e8	 mov	 ecx, DWORD PTR _pOwner$[ebp]
  00192	85 c9		 test	 ecx, ecx
  00194	74 15		 je	 SHORT $LN1@OnFloating
  00196	8b 01		 mov	 eax, DWORD PTR [ecx]
  00198	ff 90 00 01 00
	00		 call	 DWORD PTR [eax+256]
  0019e	84 c0		 test	 al, al
  001a0	74 09		 je	 SHORT $LN1@OnFloating

; 283  : 		{
; 284  : 			SetAfterCollisionState( true );

  001a2	6a 01		 push	 1
  001a4	8b cb		 mov	 ecx, ebx
  001a6	e8 00 00 00 00	 call	 ?SetAfterCollisionState@ioGuide2Weapon@@QAEX_N@Z ; ioGuide2Weapon::SetAfterCollisionState
$LN1@OnFloating:

; 285  : 		}
; 286  : 	}
; 287  : 
; 288  : 	ProcessGuidArrow();

  001ab	8b cb		 mov	 ecx, ebx
  001ad	e8 00 00 00 00	 call	 ?ProcessGuidArrow@ioGuide2Weapon@@IAEXXZ ; ioGuide2Weapon::ProcessGuidArrow
$LN19@OnFloating:
  001b2	5f		 pop	 edi
$LN7@OnFloating:

; 289  : }

  001b3	8b 4d fc	 mov	 ecx, DWORD PTR __$ArrayPad$[ebp]
  001b6	5e		 pop	 esi
  001b7	33 cd		 xor	 ecx, ebp
  001b9	5b		 pop	 ebx
  001ba	e8 00 00 00 00	 call	 @__security_check_cookie@4
  001bf	c9		 leave
  001c0	c2 08 00	 ret	 8
?OnFloating@ioGuide2Weapon@@IAEXMPAVioPlayStage@@@Z ENDP ; ioGuide2Weapon::OnFloating
_TEXT	ENDS
PUBLIC	_this$GSCopy$
PUBLIC	__$ArrayPad$
PUBLIC	?OnTracing@ioGuide2Weapon@@IAEXMPAVioPlayStage@@@Z ; ioGuide2Weapon::OnTracing
EXTRN	__imp_?UNIT_X@ioMath@@2UD3DXVECTOR3@@A:BYTE
EXTRN	__imp_?UNIT_Y@ioMath@@2UD3DXVECTOR3@@A:BYTE
EXTRN	?IsEnableTarget@ioBaseChar@@QAE_N_N0@Z:PROC	; ioBaseChar::IsEnableTarget
EXTRN	?IsSystemState@ioBaseChar@@QAE_NXZ:PROC		; ioBaseChar::IsSystemState
; Function compile flags: /Ogsp
;	COMDAT ?OnTracing@ioGuide2Weapon@@IAEXMPAVioPlayStage@@@Z
_TEXT	SEGMENT
_vPreDir$583261 = -252					; size = 12
_v$588713 = -240					; size = 12
_v$588694 = -228					; size = 12
_v$588671 = -216					; size = 12
$T583267 = -204						; size = 12
_v$588756 = -192					; size = 12
$T583260 = -180						; size = 12
_value$588550 = -168					; size = 4
_pTarget$ = -164					; size = 4
tv2815 = -160						; size = 4
tv2811 = -160						; size = 4
tv2773 = -160						; size = 4
_value$588554 = -160					; size = 4
tv2655 = -156						; size = 4
tv2647 = -156						; size = 4
tv2541 = -156						; size = 4
tv2485 = -156						; size = 4
tv2481 = -156						; size = 4
_value$588571 = -152					; size = 4
_value$588515 = -152					; size = 4
_this$GSCopy$ = -148					; size = 4
tv2807 = -144						; size = 4
_fPosRate$583257 = -144					; size = 4
_fRangeSq$583239 = -144					; size = 4
tv2740 = -140						; size = 4
_fTimeGap$583242 = -140					; size = 4
_value$588599 = -136					; size = 4
_value$588519 = -136					; size = 4
_fMoveDist$ = -136					; size = 4
tv2477 = -132						; size = 4
_value$588821 = -132					; size = 4
_value$588817 = -132					; size = 4
_value$588825 = -132					; size = 4
_value$588781 = -132					; size = 4
_fMaxRange$ = -132					; size = 4
_dwCurTime$ = -132					; size = 4
tv2761 = -128						; size = 4
tv2751 = -128						; size = 4
tv2747 = -128						; size = 4
tv2734 = -128						; size = 4
tv2533 = -128						; size = 4
_fGapAngle$583283 = -128				; size = 4
_fCos$583268 = -128					; size = 4
_fCurLoopTimePerSec$583245 = -128			; size = 4
$T583259 = -124						; size = 12
_vAxis$583288 = -112					; size = 12
$T583279 = -100						; size = 12
$T583280 = -88						; size = 12
$T583277 = -76						; size = 12
_vAxis2$583275 = -64					; size = 12
$T583305 = -52						; size = 12
$T583289 = -52						; size = 12
_vLength$583297 = -40					; size = 12
_vCurForce$583262 = -40					; size = 12
$T583237 = -40						; size = 12
_vPos$583295 = -28					; size = 12
_vAxis1$583274 = -28					; size = 12
_vDiff$583236 = -16					; size = 12
__$ArrayPad$ = -4					; size = 4
_fTimePerSec$ = 8					; size = 4
_pStage$ = 12						; size = 4
?OnTracing@ioGuide2Weapon@@IAEXMPAVioPlayStage@@@Z PROC	; ioGuide2Weapon::OnTracing, COMDAT
; _this$ = ecx

; 292  : {

  00000	55		 push	 ebp
  00001	8b ec		 mov	 ebp, esp
  00003	81 ec fc 00 00
	00		 sub	 esp, 252		; 000000fcH
  00009	a1 00 00 00 00	 mov	 eax, DWORD PTR ___security_cookie
  0000e	33 c5		 xor	 eax, ebp
  00010	89 45 fc	 mov	 DWORD PTR __$ArrayPad$[ebp], eax
  00013	53		 push	 ebx
  00014	8b d9		 mov	 ebx, ecx
  00016	57		 push	 edi
  00017	8b 7d 0c	 mov	 edi, DWORD PTR _pStage$[ebp]

; 323  : 				float fCurLoopTimeGap;
; 324  : 				float fCurLoopTimePerSec;
; 325  : 				while( fTimeGap > 0.0f )

  0001a	89 9d 6c ff ff
	ff		 mov	 DWORD PTR _this$GSCopy$[ebp], ebx
  00020	e8 00 00 00 00	 call	 ?CheckOwnerState@ioGuide2Weapon@@IAE_NXZ ; ioGuide2Weapon::CheckOwnerState
  00025	84 c0		 test	 al, al
  00027	75 0e		 jne	 SHORT $LN26@OnTracing

; 293  : 	if( !CheckOwnerState() )
; 294  : 	{
; 295  : 		SetEndState( false );

  00029	6a 00		 push	 0
  0002b	8b cb		 mov	 ecx, ebx
  0002d	e8 00 00 00 00	 call	 ?SetEndState@ioGuide2Weapon@@QAEX_N@Z ; ioGuide2Weapon::SetEndState

; 296  : 		return;

  00032	e9 e7 0c 00 00	 jmp	 $LN27@OnTracing
$LN26@OnTracing:
  00037	56		 push	 esi

; 297  : 	}
; 298  : 
; 299  : 	DWORD dwCurTime = FRAMEGETTIME();

  00038	ff 15 00 00 00
	00		 call	 DWORD PTR __imp_?GetSingleton@ioFrameTimer@@SAAAV1@XZ
  0003e	8b c8		 mov	 ecx, eax
  00040	ff 15 00 00 00
	00		 call	 DWORD PTR __imp_?GetLoopSec@ioFrameTimer@@QBEKXZ

; 300  : 	ioBaseChar *pTarget = pStage->GetBaseChar( m_TargetName );

  00046	8d b3 fc 08 00
	00		 lea	 esi, DWORD PTR [ebx+2300]
  0004c	56		 push	 esi
  0004d	8b cf		 mov	 ecx, edi
  0004f	89 85 7c ff ff
	ff		 mov	 DWORD PTR _dwCurTime$[ebp], eax
  00055	e8 00 00 00 00	 call	 ?GetBaseChar@ioPlayStage@@QAEPAVioBaseChar@@ABVioHashString@@@Z ; ioPlayStage::GetBaseChar
  0005a	8b f8		 mov	 edi, eax
  0005c	89 bd 5c ff ff
	ff		 mov	 DWORD PTR _pTarget$[ebp], edi

; 301  : 		
; 302  : 	if( pTarget )
; 303  : 	{
; 304  : 		if( !m_TargetName.IsEmpty() && pTarget->IsSystemState() )

  00062	8b ce		 mov	 ecx, esi
  00064	85 ff		 test	 edi, edi
  00066	0f 84 64 0b 00
	00		 je	 $LN25@OnTracing
  0006c	ff 15 00 00 00
	00		 call	 DWORD PTR __imp_?IsEmpty@ioHashString@@QBE_NXZ
  00072	84 c0		 test	 al, al
  00074	75 13		 jne	 SHORT $LN178@OnTracing
  00076	8b cf		 mov	 ecx, edi
  00078	e8 00 00 00 00	 call	 ?IsSystemState@ioBaseChar@@QAE_NXZ ; ioBaseChar::IsSystemState
  0007d	84 c0		 test	 al, al
  0007f	74 08		 je	 SHORT $LN178@OnTracing

; 305  : 		{
; 306  : 			m_TargetName.Clear();

  00081	8b ce		 mov	 ecx, esi
  00083	ff 15 00 00 00
	00		 call	 DWORD PTR __imp_?Clear@ioHashString@@QAEXXZ
$LN178@OnTracing:

; 307  : 		}
; 308  : 		
; 309  : 		if( !m_TargetName.IsEmpty() && !pTarget->IsEnableTarget() )

  00089	8b ce		 mov	 ecx, esi
  0008b	ff 15 00 00 00
	00		 call	 DWORD PTR __imp_?IsEmpty@ioHashString@@QBE_NXZ
  00091	84 c0		 test	 al, al
  00093	75 17		 jne	 SHORT $LN179@OnTracing
  00095	6a 01		 push	 1
  00097	6a 01		 push	 1
  00099	8b cf		 mov	 ecx, edi
  0009b	e8 00 00 00 00	 call	 ?IsEnableTarget@ioBaseChar@@QAE_N_N0@Z ; ioBaseChar::IsEnableTarget
  000a0	84 c0		 test	 al, al
  000a2	75 08		 jne	 SHORT $LN179@OnTracing

; 310  : 		{
; 311  : 			m_TargetName.Clear();

  000a4	8b ce		 mov	 ecx, esi
  000a6	ff 15 00 00 00
	00		 call	 DWORD PTR __imp_?Clear@ioHashString@@QAEXXZ
$LN179@OnTracing:

; 312  : 		}
; 313  : 
; 314  : 		if( !m_TargetName.IsEmpty() )

  000ac	8b ce		 mov	 ecx, esi
  000ae	ff 15 00 00 00
	00		 call	 DWORD PTR __imp_?IsEmpty@ioHashString@@QBE_NXZ
  000b4	84 c0		 test	 al, al
  000b6	0f 85 8e 09 00
	00		 jne	 $LN180@OnTracing

; 315  : 		{
; 316  : 			m_vPrePos = GetPosition();

  000bc	8b 03		 mov	 eax, DWORD PTR [ebx]
  000be	8b cb		 mov	 ecx, ebx
  000c0	ff 50 70	 call	 DWORD PTR [eax+112]
  000c3	8d bb f0 08 00
	00		 lea	 edi, DWORD PTR [ebx+2288]
  000c9	8b f0		 mov	 esi, eax
  000cb	a5		 movsd
  000cc	a5		 movsd
  000cd	a5		 movsd

; 317  : 			D3DXVECTOR3 vDiff = pTarget->GetMidPositionByRate() - m_vPrePos;

  000ce	b8 05 00 00 00	 mov	 eax, 5
  000d3	8b c8		 mov	 ecx, eax
  000d5	b8 0a 00 00 00	 mov	 eax, 10			; 0000000aH
  000da	89 8d 60 ff ff
	ff		 mov	 DWORD PTR tv2815[ebp], ecx
  000e0	db 85 60 ff ff
	ff		 fild	 DWORD PTR tv2815[ebp]
  000e6	85 c9		 test	 ecx, ecx
  000e8	79 06		 jns	 SHORT $LN182@OnTracing
  000ea	d8 05 00 00 00
	00		 fadd	 DWORD PTR __real@4f800000
$LN182@OnTracing:
  000f0	89 85 60 ff ff
	ff		 mov	 DWORD PTR tv2811[ebp], eax
  000f6	db 85 60 ff ff
	ff		 fild	 DWORD PTR tv2811[ebp]
  000fc	85 c0		 test	 eax, eax
  000fe	79 06		 jns	 SHORT $LN183@OnTracing
  00100	d8 05 00 00 00
	00		 fadd	 DWORD PTR __real@4f800000
$LN183@OnTracing:
  00106	de f9		 fdivp	 ST(1), ST(0)
  00108	51		 push	 ecx
  00109	8b 8d 5c ff ff
	ff		 mov	 ecx, DWORD PTR _pTarget$[ebp]
  0010f	8d 45 d8	 lea	 eax, DWORD PTR $T583237[ebp]
  00112	d9 9d 70 ff ff
	ff		 fstp	 DWORD PTR tv2807[ebp]
  00118	d9 85 70 ff ff
	ff		 fld	 DWORD PTR tv2807[ebp]
  0011e	d9 1c 24	 fstp	 DWORD PTR [esp]
  00121	50		 push	 eax
  00122	e8 00 00 00 00	 call	 ?GetMidPositionByRate@ioGameEntity@@QBE?AUD3DXVECTOR3@@M@Z ; ioGameEntity::GetMidPositionByRate
  00127	f3 0f 10 40 04	 movss	 xmm0, DWORD PTR [eax+4]
  0012c	f3 0f 10 8b f4
	08 00 00	 movss	 xmm1, DWORD PTR [ebx+2292]
  00134	f3 0f 10 93 f8
	08 00 00	 movss	 xmm2, DWORD PTR [ebx+2296]
  0013c	f3 0f 10 9b f0
	08 00 00	 movss	 xmm3, DWORD PTR [ebx+2288]
  00144	0f 5a c9	 cvtps2pd xmm1, xmm1
  00147	0f 5a d2	 cvtps2pd xmm2, xmm2
  0014a	0f 5a c0	 cvtps2pd xmm0, xmm0
  0014d	f2 0f 5c c1	 subsd	 xmm0, xmm1
  00151	f3 0f 10 48 08	 movss	 xmm1, DWORD PTR [eax+8]
  00156	0f 5a c9	 cvtps2pd xmm1, xmm1
  00159	f2 0f 5c ca	 subsd	 xmm1, xmm2
  0015d	f3 0f 10 10	 movss	 xmm2, DWORD PTR [eax]
  00161	66 0f 5a c0	 cvtpd2ps xmm0, xmm0
  00165	0f 5a d2	 cvtps2pd xmm2, xmm2
  00168	f3 0f 11 45 f4	 movss	 DWORD PTR _vDiff$583236[ebp+4], xmm0

; 318  : 
; 319  : 			float fRangeSq = D3DXVec3LengthSq( & vDiff );

  0016d	f3 0f 5a c0	 cvtss2sd xmm0, xmm0
  00171	0f 5a db	 cvtps2pd xmm3, xmm3
  00174	f2 0f 5c d3	 subsd	 xmm2, xmm3
  00178	66 0f 5a d2	 cvtpd2ps xmm2, xmm2
  0017c	f3 0f 11 55 f0	 movss	 DWORD PTR _vDiff$583236[ebp], xmm2
  00181	f2 0f 59 c0	 mulsd	 xmm0, xmm0
  00185	66 0f 5a c9	 cvtpd2ps xmm1, xmm1
  00189	f3 0f 5a d2	 cvtss2sd xmm2, xmm2
  0018d	f3 0f 11 4d f8	 movss	 DWORD PTR _vDiff$583236[ebp+8], xmm1
  00192	f2 0f 59 d2	 mulsd	 xmm2, xmm2
  00196	f3 0f 5a c9	 cvtss2sd xmm1, xmm1
  0019a	f2 0f 58 d0	 addsd	 xmm2, xmm0
  0019e	f2 0f 59 c9	 mulsd	 xmm1, xmm1

; 320  : 			if( fRangeSq < m_fTraceRange * m_fTraceRange )

  001a2	8d 85 68 ff ff
	ff		 lea	 eax, DWORD PTR _value$588515[ebp]
  001a8	f2 0f 58 d1	 addsd	 xmm2, xmm1
  001ac	66 0f 5a c2	 cvtpd2ps xmm0, xmm2
  001b0	50		 push	 eax
  001b1	8d 8b a0 09 00
	00		 lea	 ecx, DWORD PTR [ebx+2464]
  001b7	f3 0f 11 85 70
	ff ff ff	 movss	 DWORD PTR _fRangeSq$583239[ebp], xmm0
  001bf	e8 00 00 00 00	 call	 ?DecryptValueToPool@?$CEncrypt@M@@QAEXPAM@Z ; CEncrypt<float>::DecryptValueToPool
  001c4	8d 85 78 ff ff
	ff		 lea	 eax, DWORD PTR _value$588519[ebp]
  001ca	50		 push	 eax
  001cb	8d 8b a0 09 00
	00		 lea	 ecx, DWORD PTR [ebx+2464]
  001d1	e8 00 00 00 00	 call	 ?DecryptValueToPool@?$CEncrypt@M@@QAEXPAM@Z ; CEncrypt<float>::DecryptValueToPool
  001d6	f3 0f 10 8d 78
	ff ff ff	 movss	 xmm1, DWORD PTR _value$588519[ebp]
  001de	f3 0f 10 95 68
	ff ff ff	 movss	 xmm2, DWORD PTR _value$588515[ebp]
  001e6	f3 0f 10 85 70
	ff ff ff	 movss	 xmm0, DWORD PTR _fRangeSq$583239[ebp]
  001ee	0f 5a c9	 cvtps2pd xmm1, xmm1
  001f1	0f 5a d2	 cvtps2pd xmm2, xmm2
  001f4	f2 0f 59 ca	 mulsd	 xmm1, xmm2
  001f8	66 0f 5a c9	 cvtpd2ps xmm1, xmm1
  001fc	0f 5a c0	 cvtps2pd xmm0, xmm0
  001ff	f3 0f 5a c9	 cvtss2sd xmm1, xmm1
  00203	66 0f 2f c8	 comisd	 xmm1, xmm0
  00207	0f 86 31 08 00
	00		 jbe	 $LN21@OnTracing

; 321  : 			{
; 322  : 				float fTimeGap = fTimePerSec * FLOAT1000;

  0020d	b8 e8 03 00 00	 mov	 eax, 1000		; 000003e8H
  00212	89 85 60 ff ff
	ff		 mov	 DWORD PTR tv2773[ebp], eax
  00218	db 85 60 ff ff
	ff		 fild	 DWORD PTR tv2773[ebp]
  0021e	85 c0		 test	 eax, eax
  00220	79 06		 jns	 SHORT $LN184@OnTracing
  00222	d8 05 00 00 00
	00		 fadd	 DWORD PTR __real@4f800000
$LN184@OnTracing:
  00228	d8 4d 08	 fmul	 DWORD PTR _fTimePerSec$[ebp]
  0022b	d9 9d 74 ff ff
	ff		 fstp	 DWORD PTR _fTimeGap$583242[ebp]

; 323  : 				float fCurLoopTimeGap;
; 324  : 				float fCurLoopTimePerSec;
; 325  : 				while( fTimeGap > 0.0f )

  00231	d9 ee		 fldz
  00233	d9 85 74 ff ff
	ff		 fld	 DWORD PTR _fTimeGap$583242[ebp]
  00239	df f1		 fcomip	 ST(1)
  0023b	dd d8		 fstp	 ST(0)
  0023d	0f 86 07 08 00
	00		 jbe	 $LN180@OnTracing
  00243	81 c3 e4 08 00
	00		 add	 ebx, 2276		; 000008e4H
$LL20@OnTracing:

; 326  : 				{
; 327  : 					if( fTimeGap > FLOAT10 )

  00249	b8 0a 00 00 00	 mov	 eax, 10			; 0000000aH
  0024e	d9 85 74 ff ff
	ff		 fld	 DWORD PTR _fTimeGap$583242[ebp]
  00254	89 45 80	 mov	 DWORD PTR tv2761[ebp], eax
  00257	db 45 80	 fild	 DWORD PTR tv2761[ebp]
  0025a	85 c0		 test	 eax, eax
  0025c	79 06		 jns	 SHORT $LN185@OnTracing
  0025e	d8 05 00 00 00
	00		 fadd	 DWORD PTR __real@4f800000
$LN185@OnTracing:
  00264	d9 c9		 fxch	 ST(1)
  00266	df f1		 fcomip	 ST(1)
  00268	dd d8		 fstp	 ST(0)
  0026a	76 61		 jbe	 SHORT $LN18@OnTracing

; 328  : 					{
; 329  : 						fCurLoopTimeGap = FLOAT10;

  0026c	b8 0a 00 00 00	 mov	 eax, 10			; 0000000aH

; 330  : 						fCurLoopTimePerSec = FLOAT10 / FLOAT1000;

  00271	b8 0a 00 00 00	 mov	 eax, 10			; 0000000aH
  00276	8b c8		 mov	 ecx, eax
  00278	b8 e8 03 00 00	 mov	 eax, 1000		; 000003e8H
  0027d	89 4d 80	 mov	 DWORD PTR tv2751[ebp], ecx
  00280	db 45 80	 fild	 DWORD PTR tv2751[ebp]
  00283	85 c9		 test	 ecx, ecx
  00285	79 06		 jns	 SHORT $LN186@OnTracing
  00287	d8 05 00 00 00
	00		 fadd	 DWORD PTR __real@4f800000
$LN186@OnTracing:
  0028d	89 45 80	 mov	 DWORD PTR tv2747[ebp], eax
  00290	db 45 80	 fild	 DWORD PTR tv2747[ebp]
  00293	85 c0		 test	 eax, eax
  00295	79 06		 jns	 SHORT $LN187@OnTracing
  00297	d8 05 00 00 00
	00		 fadd	 DWORD PTR __real@4f800000
$LN187@OnTracing:
  0029d	de f9		 fdivp	 ST(1), ST(0)
  0029f	d9 5d 80	 fstp	 DWORD PTR _fCurLoopTimePerSec$583245[ebp]

; 331  : 
; 332  : 						fTimeGap -= FLOAT10;

  002a2	b8 0a 00 00 00	 mov	 eax, 10			; 0000000aH
  002a7	d9 85 74 ff ff
	ff		 fld	 DWORD PTR _fTimeGap$583242[ebp]
  002ad	89 85 74 ff ff
	ff		 mov	 DWORD PTR tv2740[ebp], eax
  002b3	db 85 74 ff ff
	ff		 fild	 DWORD PTR tv2740[ebp]
  002b9	85 c0		 test	 eax, eax
  002bb	79 06		 jns	 SHORT $LN188@OnTracing
  002bd	d8 05 00 00 00
	00		 fadd	 DWORD PTR __real@4f800000
$LN188@OnTracing:
  002c3	de e9		 fsubp	 ST(1), ST(0)
  002c5	d9 9d 74 ff ff
	ff		 fstp	 DWORD PTR _fTimeGap$583242[ebp]

; 333  : 					}
; 334  : 					else

  002cb	eb 2b		 jmp	 SHORT $LN17@OnTracing
$LN18@OnTracing:

; 335  : 					{
; 336  : 						fCurLoopTimeGap = fTimeGap;
; 337  : 						fCurLoopTimePerSec = fTimeGap / FLOAT1000;

  002cd	b8 e8 03 00 00	 mov	 eax, 1000		; 000003e8H
  002d2	d9 85 74 ff ff
	ff		 fld	 DWORD PTR _fTimeGap$583242[ebp]
  002d8	89 45 80	 mov	 DWORD PTR tv2734[ebp], eax
  002db	db 45 80	 fild	 DWORD PTR tv2734[ebp]
  002de	85 c0		 test	 eax, eax
  002e0	79 06		 jns	 SHORT $LN189@OnTracing
  002e2	d8 05 00 00 00
	00		 fadd	 DWORD PTR __real@4f800000
$LN189@OnTracing:
  002e8	de f9		 fdivp	 ST(1), ST(0)

; 338  : 
; 339  : 						fTimeGap = 0.0f;

  002ea	0f 57 c0	 xorps	 xmm0, xmm0
  002ed	f3 0f 11 85 74
	ff ff ff	 movss	 DWORD PTR _fTimeGap$583242[ebp], xmm0
  002f5	d9 5d 80	 fstp	 DWORD PTR _fCurLoopTimePerSec$583245[ebp]
$LN17@OnTracing:

; 340  : 					}
; 341  : 
; 342  : 					float fPosRate = m_fTargetTracePosRate;

  002f8	8b 8d 6c ff ff
	ff		 mov	 ecx, DWORD PTR _this$GSCopy$[ebp]
  002fe	8d 85 58 ff ff
	ff		 lea	 eax, DWORD PTR _value$588550[ebp]
  00304	50		 push	 eax
  00305	81 c1 0c 09 00
	00		 add	 ecx, 2316		; 0000090cH
  0030b	e8 00 00 00 00	 call	 ?DecryptValueToPool@?$CEncrypt@M@@QAEXPAM@Z ; CEncrypt<float>::DecryptValueToPool

; 343  : 					if( CheckDownTargetState( pTarget ) )

  00310	8b b5 6c ff ff
	ff		 mov	 esi, DWORD PTR _this$GSCopy$[ebp]
  00316	f3 0f 10 85 58
	ff ff ff	 movss	 xmm0, DWORD PTR _value$588550[ebp]
  0031e	ff b5 5c ff ff
	ff		 push	 DWORD PTR _pTarget$[ebp]
  00324	8b ce		 mov	 ecx, esi
  00326	f3 0f 11 85 70
	ff ff ff	 movss	 DWORD PTR _fPosRate$583257[ebp], xmm0
  0032e	e8 00 00 00 00	 call	 ?CheckDownTargetState@ioGuide2Weapon@@IAE_NPAVioBaseChar@@@Z ; ioGuide2Weapon::CheckDownTargetState
  00333	84 c0		 test	 al, al
  00335	74 22		 je	 SHORT $LN16@OnTracing

; 344  : 						fPosRate = m_fDownTargetTracePosRate;

  00337	8d 85 60 ff ff
	ff		 lea	 eax, DWORD PTR _value$588554[ebp]
  0033d	50		 push	 eax
  0033e	8d 8e 3c 09 00
	00		 lea	 ecx, DWORD PTR [esi+2364]
  00344	e8 00 00 00 00	 call	 ?DecryptValueToPool@?$CEncrypt@M@@QAEXPAM@Z ; CEncrypt<float>::DecryptValueToPool
  00349	f3 0f 10 85 60
	ff ff ff	 movss	 xmm0, DWORD PTR _value$588554[ebp]
  00351	f3 0f 11 85 70
	ff ff ff	 movss	 DWORD PTR _fPosRate$583257[ebp], xmm0
$LN16@OnTracing:

; 345  : 
; 346  : 					vDiff = pTarget->GetMidPositionByRate(fPosRate) - GetPosition();

  00359	8b 06		 mov	 eax, DWORD PTR [esi]
  0035b	8b ce		 mov	 ecx, esi
  0035d	ff 50 70	 call	 DWORD PTR [eax+112]
  00360	f3 0f 10 85 70
	ff ff ff	 movss	 xmm0, DWORD PTR _fPosRate$583257[ebp]
  00368	51		 push	 ecx
  00369	8b 8d 5c ff ff
	ff		 mov	 ecx, DWORD PTR _pTarget$[ebp]
  0036f	8b f0		 mov	 esi, eax
  00371	8d 45 84	 lea	 eax, DWORD PTR $T583259[ebp]
  00374	f3 0f 11 04 24	 movss	 DWORD PTR [esp], xmm0
  00379	50		 push	 eax
  0037a	e8 00 00 00 00	 call	 ?GetMidPositionByRate@ioGameEntity@@QBE?AUD3DXVECTOR3@@M@Z ; ioGameEntity::GetMidPositionByRate
  0037f	f3 0f 10 00	 movss	 xmm0, DWORD PTR [eax]
  00383	f3 0f 10 0e	 movss	 xmm1, DWORD PTR [esi]
  00387	0f 5a c0	 cvtps2pd xmm0, xmm0
  0038a	0f 5a c9	 cvtps2pd xmm1, xmm1
  0038d	f2 0f 5c c1	 subsd	 xmm0, xmm1
  00391	f3 0f 10 4e 04	 movss	 xmm1, DWORD PTR [esi+4]
  00396	66 0f 5a c0	 cvtpd2ps xmm0, xmm0
  0039a	f3 0f 11 85 4c
	ff ff ff	 movss	 DWORD PTR $T583260[ebp], xmm0
  003a2	f3 0f 10 40 04	 movss	 xmm0, DWORD PTR [eax+4]
  003a7	0f 5a c0	 cvtps2pd xmm0, xmm0
  003aa	0f 5a c9	 cvtps2pd xmm1, xmm1
  003ad	f2 0f 5c c1	 subsd	 xmm0, xmm1
  003b1	f3 0f 10 4e 08	 movss	 xmm1, DWORD PTR [esi+8]
  003b6	66 0f 5a c0	 cvtpd2ps xmm0, xmm0
  003ba	f3 0f 11 85 50
	ff ff ff	 movss	 DWORD PTR $T583260[ebp+4], xmm0
  003c2	f3 0f 10 40 08	 movss	 xmm0, DWORD PTR [eax+8]
  003c7	0f 5a c0	 cvtps2pd xmm0, xmm0
  003ca	0f 5a c9	 cvtps2pd xmm1, xmm1
  003cd	f2 0f 5c c1	 subsd	 xmm0, xmm1
  003d1	66 0f 5a c0	 cvtpd2ps xmm0, xmm0
  003d5	f3 0f 11 85 54
	ff ff ff	 movss	 DWORD PTR $T583260[ebp+8], xmm0
  003dd	8d b5 4c ff ff
	ff		 lea	 esi, DWORD PTR $T583260[ebp]
  003e3	8d 7d f0	 lea	 edi, DWORD PTR _vDiff$583236[ebp]
  003e6	a5		 movsd

; 347  : 					D3DXVec3Normalize( &vDiff, &vDiff );

  003e7	8d 45 f0	 lea	 eax, DWORD PTR _vDiff$583236[ebp]
  003ea	a5		 movsd
  003eb	50		 push	 eax
  003ec	50		 push	 eax
  003ed	a5		 movsd
  003ee	e8 00 00 00 00	 call	 _D3DXVec3Normalize@8

; 348  : 
; 349  : 					D3DXVECTOR3 vPreDir = m_vMoveDir;

  003f3	8b f3		 mov	 esi, ebx
  003f5	8d bd 04 ff ff
	ff		 lea	 edi, DWORD PTR _vPreDir$583261[ebp]
  003fb	a5		 movsd
  003fc	a5		 movsd
  003fd	a5		 movsd

; 350  : 					D3DXVECTOR3 vCurForce = m_vMoveDir * m_fTraceSpeed * fCurLoopTimePerSec;

  003fe	8b b5 6c ff ff
	ff		 mov	 esi, DWORD PTR _this$GSCopy$[ebp]
  00404	8d 85 68 ff ff
	ff		 lea	 eax, DWORD PTR _value$588571[ebp]
  0040a	50		 push	 eax
  0040b	8d 8e 70 09 00
	00		 lea	 ecx, DWORD PTR [esi+2416]
  00411	e8 00 00 00 00	 call	 ?DecryptValueToPool@?$CEncrypt@M@@QAEXPAM@Z ; CEncrypt<float>::DecryptValueToPool
  00416	f3 0f 10 03	 movss	 xmm0, DWORD PTR [ebx]
  0041a	f3 0f 10 8d 68
	ff ff ff	 movss	 xmm1, DWORD PTR _value$588571[ebp]
  00422	f3 0f 10 95 68
	ff ff ff	 movss	 xmm2, DWORD PTR _value$588571[ebp]
  0042a	f3 0f 10 9d 68
	ff ff ff	 movss	 xmm3, DWORD PTR _value$588571[ebp]
  00432	0f 5a c0	 cvtps2pd xmm0, xmm0
  00435	0f 5a c9	 cvtps2pd xmm1, xmm1
  00438	f2 0f 59 c1	 mulsd	 xmm0, xmm1
  0043c	f3 0f 10 4b 04	 movss	 xmm1, DWORD PTR [ebx+4]
  00441	0f 5a d2	 cvtps2pd xmm2, xmm2
  00444	0f 5a c9	 cvtps2pd xmm1, xmm1
  00447	f2 0f 59 ca	 mulsd	 xmm1, xmm2
  0044b	f3 0f 10 53 08	 movss	 xmm2, DWORD PTR [ebx+8]
  00450	66 0f 5a c0	 cvtpd2ps xmm0, xmm0
  00454	0f 5a db	 cvtps2pd xmm3, xmm3
  00457	f3 0f 5a c0	 cvtss2sd xmm0, xmm0
  0045b	0f 5a d2	 cvtps2pd xmm2, xmm2
  0045e	f2 0f 59 d3	 mulsd	 xmm2, xmm3
  00462	f3 0f 10 5d 80	 movss	 xmm3, DWORD PTR _fCurLoopTimePerSec$583245[ebp]
  00467	0f 5a db	 cvtps2pd xmm3, xmm3
  0046a	f2 0f 59 c3	 mulsd	 xmm0, xmm3
  0046e	66 0f 5a c0	 cvtpd2ps xmm0, xmm0
  00472	f3 0f 11 45 d8	 movss	 DWORD PTR _vCurForce$583262[ebp], xmm0
  00477	66 0f 5a c9	 cvtpd2ps xmm1, xmm1
  0047b	0f 57 c0	 xorps	 xmm0, xmm0
  0047e	f3 0f 5a c1	 cvtss2sd xmm0, xmm1
  00482	f3 0f 10 4d 80	 movss	 xmm1, DWORD PTR _fCurLoopTimePerSec$583245[ebp]
  00487	0f 5a c9	 cvtps2pd xmm1, xmm1
  0048a	f2 0f 59 c1	 mulsd	 xmm0, xmm1
  0048e	66 0f 5a d2	 cvtpd2ps xmm2, xmm2
  00492	66 0f 5a c0	 cvtpd2ps xmm0, xmm0
  00496	f3 0f 10 4d 80	 movss	 xmm1, DWORD PTR _fCurLoopTimePerSec$583245[ebp]
  0049b	f3 0f 11 45 dc	 movss	 DWORD PTR _vCurForce$583262[ebp+4], xmm0
  004a0	0f 57 c0	 xorps	 xmm0, xmm0
  004a3	f3 0f 5a c2	 cvtss2sd xmm0, xmm2
  004a7	0f 5a c9	 cvtps2pd xmm1, xmm1

; 351  : 					m_vMoveDir = vCurForce + (vDiff * m_fTraceRotSpeed * fCurLoopTimePerSec);

  004aa	8d 85 78 ff ff
	ff		 lea	 eax, DWORD PTR _value$588599[ebp]
  004b0	f2 0f 59 c1	 mulsd	 xmm0, xmm1
  004b4	66 0f 5a c0	 cvtpd2ps xmm0, xmm0
  004b8	50		 push	 eax
  004b9	8d 8e d0 09 00
	00		 lea	 ecx, DWORD PTR [esi+2512]
  004bf	f3 0f 11 45 e0	 movss	 DWORD PTR _vCurForce$583262[ebp+8], xmm0
  004c4	e8 00 00 00 00	 call	 ?DecryptValueToPool@?$CEncrypt@M@@QAEXPAM@Z ; CEncrypt<float>::DecryptValueToPool
  004c9	f3 0f 10 85 78
	ff ff ff	 movss	 xmm0, DWORD PTR _value$588599[ebp]
  004d1	f3 0f 10 4d f0	 movss	 xmm1, DWORD PTR _vDiff$583236[ebp]
  004d6	f3 0f 10 95 78
	ff ff ff	 movss	 xmm2, DWORD PTR _value$588599[ebp]
  004de	f3 0f 10 9d 78
	ff ff ff	 movss	 xmm3, DWORD PTR _value$588599[ebp]
  004e6	0f 5a c0	 cvtps2pd xmm0, xmm0
  004e9	0f 5a c9	 cvtps2pd xmm1, xmm1
  004ec	f2 0f 59 c1	 mulsd	 xmm0, xmm1
  004f0	f3 0f 10 4d f4	 movss	 xmm1, DWORD PTR _vDiff$583236[ebp+4]
  004f5	f2 0f 5a c0	 cvtsd2ss xmm0, xmm0
  004f9	0f 5a c9	 cvtps2pd xmm1, xmm1
  004fc	0f 5a d2	 cvtps2pd xmm2, xmm2
  004ff	f2 0f 59 ca	 mulsd	 xmm1, xmm2
  00503	f3 0f 10 55 f8	 movss	 xmm2, DWORD PTR _vDiff$583236[ebp+8]
  00508	f3 0f 5a c0	 cvtss2sd xmm0, xmm0
  0050c	0f 5a db	 cvtps2pd xmm3, xmm3
  0050f	0f 5a d2	 cvtps2pd xmm2, xmm2
  00512	f2 0f 59 d3	 mulsd	 xmm2, xmm3
  00516	f3 0f 10 5d 80	 movss	 xmm3, DWORD PTR _fCurLoopTimePerSec$583245[ebp]
  0051b	0f 5a db	 cvtps2pd xmm3, xmm3
  0051e	f2 0f 59 c3	 mulsd	 xmm0, xmm3
  00522	f3 0f 10 5d 80	 movss	 xmm3, DWORD PTR _fCurLoopTimePerSec$583245[ebp]
  00527	66 0f 5a c9	 cvtpd2ps xmm1, xmm1
  0052b	f2 0f 5a c0	 cvtsd2ss xmm0, xmm0
  0052f	f3 0f 5a c9	 cvtss2sd xmm1, xmm1
  00533	0f 5a db	 cvtps2pd xmm3, xmm3
  00536	f2 0f 59 cb	 mulsd	 xmm1, xmm3
  0053a	f3 0f 10 5d 80	 movss	 xmm3, DWORD PTR _fCurLoopTimePerSec$583245[ebp]
  0053f	f3 0f 5a c0	 cvtss2sd xmm0, xmm0
  00543	66 0f 5a d2	 cvtpd2ps xmm2, xmm2
  00547	0f 5a db	 cvtps2pd xmm3, xmm3
  0054a	f3 0f 5a d2	 cvtss2sd xmm2, xmm2
  0054e	f2 0f 59 d3	 mulsd	 xmm2, xmm3
  00552	f3 0f 10 5d d8	 movss	 xmm3, DWORD PTR _vCurForce$583262[ebp]
  00557	66 0f 5a c9	 cvtpd2ps xmm1, xmm1
  0055b	0f 5a db	 cvtps2pd xmm3, xmm3
  0055e	f2 0f 58 c3	 addsd	 xmm0, xmm3
  00562	f2 0f 5a c0	 cvtsd2ss xmm0, xmm0
  00566	f3 0f 11 85 34
	ff ff ff	 movss	 DWORD PTR $T583267[ebp], xmm0
  0056e	0f 57 c0	 xorps	 xmm0, xmm0
  00571	f3 0f 5a c1	 cvtss2sd xmm0, xmm1
  00575	f3 0f 10 4d dc	 movss	 xmm1, DWORD PTR _vCurForce$583262[ebp+4]
  0057a	0f 5a c9	 cvtps2pd xmm1, xmm1
  0057d	f2 0f 58 c1	 addsd	 xmm0, xmm1
  00581	f3 0f 10 4d e0	 movss	 xmm1, DWORD PTR _vCurForce$583262[ebp+8]
  00586	66 0f 5a c0	 cvtpd2ps xmm0, xmm0
  0058a	f3 0f 11 85 38
	ff ff ff	 movss	 DWORD PTR $T583267[ebp+4], xmm0
  00592	0f 57 c0	 xorps	 xmm0, xmm0
  00595	66 0f 5a d2	 cvtpd2ps xmm2, xmm2
  00599	f3 0f 5a c2	 cvtss2sd xmm0, xmm2
  0059d	0f 5a c9	 cvtps2pd xmm1, xmm1
  005a0	f2 0f 58 c1	 addsd	 xmm0, xmm1
  005a4	66 0f 5a c0	 cvtpd2ps xmm0, xmm0
  005a8	f3 0f 11 85 3c
	ff ff ff	 movss	 DWORD PTR $T583267[ebp+8], xmm0
  005b0	8d b5 34 ff ff
	ff		 lea	 esi, DWORD PTR $T583267[ebp]
  005b6	8b fb		 mov	 edi, ebx
  005b8	a5		 movsd
  005b9	a5		 movsd

; 352  : 
; 353  : 					D3DXVec3Normalize( &m_vMoveDir, &m_vMoveDir );

  005ba	53		 push	 ebx
  005bb	53		 push	 ebx
  005bc	a5		 movsd
  005bd	e8 00 00 00 00	 call	 _D3DXVec3Normalize@8

; 354  : 
; 355  : 					float fCos = D3DXVec3Dot( &vPreDir, &m_vMoveDir );

  005c2	d9 85 04 ff ff
	ff		 fld	 DWORD PTR _vPreDir$583261[ebp]
  005c8	d8 0b		 fmul	 DWORD PTR [ebx]
  005ca	d9 85 08 ff ff
	ff		 fld	 DWORD PTR _vPreDir$583261[ebp+4]
  005d0	d8 4b 04	 fmul	 DWORD PTR [ebx+4]
  005d3	de c1		 faddp	 ST(1), ST(0)
  005d5	d9 85 0c ff ff
	ff		 fld	 DWORD PTR _vPreDir$583261[ebp+8]
  005db	d8 4b 08	 fmul	 DWORD PTR [ebx+8]
  005de	de c1		 faddp	 ST(1), ST(0)
  005e0	d9 5d 80	 fstp	 DWORD PTR _fCos$583268[ebp]

; 356  : 					// 0 
; 357  : 					if( fCos >= FLOAT1 )

  005e3	b8 01 00 00 00	 mov	 eax, 1
  005e8	d9 45 80	 fld	 DWORD PTR _fCos$583268[ebp]
  005eb	89 85 64 ff ff
	ff		 mov	 DWORD PTR tv2655[ebp], eax
  005f1	db 85 64 ff ff
	ff		 fild	 DWORD PTR tv2655[ebp]
  005f7	85 c0		 test	 eax, eax
  005f9	79 06		 jns	 SHORT $LN190@OnTracing
  005fb	d8 05 00 00 00
	00		 fadd	 DWORD PTR __real@4f800000
$LN190@OnTracing:
  00601	d9 c9		 fxch	 ST(1)
  00603	df f1		 fcomip	 ST(1)
  00605	dd d8		 fstp	 ST(0)
  00607	0f 83 14 04 00
	00		 jae	 $LN10@OnTracing

; 358  : 					{
; 359  : 						//  
; 360  : 					}
; 361  : 					else if( fCos <= -FLOAT1 ) // 180 

  0060d	b8 01 00 00 00	 mov	 eax, 1
  00612	d9 45 80	 fld	 DWORD PTR _fCos$583268[ebp]
  00615	89 85 64 ff ff
	ff		 mov	 DWORD PTR tv2647[ebp], eax
  0061b	db 85 64 ff ff
	ff		 fild	 DWORD PTR tv2647[ebp]
  00621	85 c0		 test	 eax, eax
  00623	79 06		 jns	 SHORT $LN191@OnTracing
  00625	d8 05 00 00 00
	00		 fadd	 DWORD PTR __real@4f800000
$LN191@OnTracing:
  0062b	d9 e0		 fchs
  0062d	df f1		 fcomip	 ST(1)
  0062f	dd d8		 fstp	 ST(0)
  00631	0f 82 df 02 00
	00		 jb	 $LN13@OnTracing

; 362  : 					{
; 363  : 						D3DXVECTOR3 vAxis1, vAxis2;
; 364  : 						if( m_vMoveDir != ioMath::UNIT_Y )

  00637	8b 0d 00 00 00
	00		 mov	 ecx, DWORD PTR __imp_?UNIT_Y@ioMath@@2UD3DXVECTOR3@@A
  0063d	f3 0f 10 33	 movss	 xmm6, DWORD PTR [ebx]
  00641	f3 0f 10 01	 movss	 xmm0, DWORD PTR [ecx]
  00645	0f 57 c9	 xorps	 xmm1, xmm1
  00648	0f 5a ce	 cvtps2pd xmm1, xmm6
  0064b	0f 5a c0	 cvtps2pd xmm0, xmm0
  0064e	66 0f 2e c8	 ucomisd xmm1, xmm0
  00652	9f		 lahf
  00653	f6 c4 44	 test	 ah, 68			; 00000044H
  00656	7a 38		 jp	 SHORT $LN101@OnTracing
  00658	f3 0f 10 43 04	 movss	 xmm0, DWORD PTR [ebx+4]
  0065d	f3 0f 10 49 04	 movss	 xmm1, DWORD PTR [ecx+4]
  00662	0f 5a c0	 cvtps2pd xmm0, xmm0
  00665	0f 5a c9	 cvtps2pd xmm1, xmm1
  00668	66 0f 2e c1	 ucomisd xmm0, xmm1
  0066c	9f		 lahf
  0066d	f6 c4 44	 test	 ah, 68			; 00000044H
  00670	7a 1e		 jp	 SHORT $LN101@OnTracing
  00672	f3 0f 10 43 08	 movss	 xmm0, DWORD PTR [ebx+8]
  00677	f3 0f 10 49 08	 movss	 xmm1, DWORD PTR [ecx+8]
  0067c	0f 5a c0	 cvtps2pd xmm0, xmm0
  0067f	0f 5a c9	 cvtps2pd xmm1, xmm1
  00682	66 0f 2e c1	 ucomisd xmm0, xmm1
  00686	9f		 lahf
  00687	f6 c4 44	 test	 ah, 68			; 00000044H
  0068a	0f 8b b5 00 00
	00		 jnp	 $LN12@OnTracing
$LN101@OnTracing:

; 365  : 						{
; 366  : 							D3DXVec3Cross( &vAxis1, &m_vMoveDir, &ioMath::UNIT_Y );

  00690	f3 0f 10 51 08	 movss	 xmm2, DWORD PTR [ecx+8]
  00695	f3 0f 10 5b 08	 movss	 xmm3, DWORD PTR [ebx+8]
  0069a	f3 0f 10 43 04	 movss	 xmm0, DWORD PTR [ebx+4]
  0069f	f3 0f 10 61 04	 movss	 xmm4, DWORD PTR [ecx+4]
  006a4	0f 5a ea	 cvtps2pd xmm5, xmm2
  006a7	0f 5a c8	 cvtps2pd xmm1, xmm0
  006aa	f2 0f 59 cd	 mulsd	 xmm1, xmm5
  006ae	0f 5a fc	 cvtps2pd xmm7, xmm4
  006b1	0f 5a d2	 cvtps2pd xmm2, xmm2
  006b4	0f 5a c0	 cvtps2pd xmm0, xmm0
  006b7	0f 5a eb	 cvtps2pd xmm5, xmm3
  006ba	f2 0f 59 ef	 mulsd	 xmm5, xmm7
  006be	f2 0f 5c cd	 subsd	 xmm1, xmm5
  006c2	0f 5a e4	 cvtps2pd xmm4, xmm4
  006c5	66 0f 5a c9	 cvtpd2ps xmm1, xmm1
  006c9	f3 0f 11 8d 28
	ff ff ff	 movss	 DWORD PTR _v$588671[ebp], xmm1
  006d1	8d b5 28 ff ff
	ff		 lea	 esi, DWORD PTR _v$588671[ebp]
  006d7	0f 5a eb	 cvtps2pd xmm5, xmm3
  006da	f3 0f 10 19	 movss	 xmm3, DWORD PTR [ecx]
  006de	0f 5a fb	 cvtps2pd xmm7, xmm3
  006e1	f2 0f 59 ef	 mulsd	 xmm5, xmm7
  006e5	0f 5a db	 cvtps2pd xmm3, xmm3
  006e8	f2 0f 59 c3	 mulsd	 xmm0, xmm3

; 367  : 							D3DXVec3Normalize( &vAxis1, &-vAxis1 );

  006ec	8d 45 b4	 lea	 eax, DWORD PTR $T583277[ebp]
  006ef	0f 5a fe	 cvtps2pd xmm7, xmm6
  006f2	f2 0f 59 fa	 mulsd	 xmm7, xmm2
  006f6	f2 0f 5c ef	 subsd	 xmm5, xmm7
  006fa	0f 57 d2	 xorps	 xmm2, xmm2
  006fd	66 0f 5a d5	 cvtpd2ps xmm2, xmm5
  00701	f3 0f 11 95 2c
	ff ff ff	 movss	 DWORD PTR _v$588671[ebp+4], xmm2
  00709	0f 5a ee	 cvtps2pd xmm5, xmm6
  0070c	f2 0f 59 ec	 mulsd	 xmm5, xmm4
  00710	f2 0f 5c e8	 subsd	 xmm5, xmm0
  00714	f3 0f 10 05 00
	00 00 00	 movss	 xmm0, DWORD PTR __mask@@NegFloat@
  0071c	66 0f 5a dd	 cvtpd2ps xmm3, xmm5
  00720	f3 0f 11 9d 30
	ff ff ff	 movss	 DWORD PTR _v$588671[ebp+8], xmm3
  00728	0f 57 c8	 xorps	 xmm1, xmm0
  0072b	0f 57 d0	 xorps	 xmm2, xmm0
  0072e	0f 57 d8	 xorps	 xmm3, xmm0
  00731	f3 0f 11 4d b4	 movss	 DWORD PTR $T583277[ebp], xmm1
  00736	f3 0f 11 55 b8	 movss	 DWORD PTR $T583277[ebp+4], xmm2
  0073b	f3 0f 11 5d bc	 movss	 DWORD PTR $T583277[ebp+8], xmm3

; 368  : 						}
; 369  : 						else

  00740	e9 b5 00 00 00	 jmp	 $LN195@OnTracing
$LN12@OnTracing:

; 370  : 						{
; 371  : 							D3DXVec3Cross( &vAxis1, &m_vMoveDir, &ioMath::UNIT_X );

  00745	a1 00 00 00 00	 mov	 eax, DWORD PTR __imp_?UNIT_X@ioMath@@2UD3DXVECTOR3@@A
  0074a	f3 0f 10 50 08	 movss	 xmm2, DWORD PTR [eax+8]
  0074f	f3 0f 10 60 04	 movss	 xmm4, DWORD PTR [eax+4]
  00754	f3 0f 10 43 04	 movss	 xmm0, DWORD PTR [ebx+4]
  00759	f3 0f 10 5b 08	 movss	 xmm3, DWORD PTR [ebx+8]
  0075e	0f 5a ea	 cvtps2pd xmm5, xmm2
  00761	0f 5a c8	 cvtps2pd xmm1, xmm0
  00764	0f 5a fc	 cvtps2pd xmm7, xmm4
  00767	f2 0f 59 cd	 mulsd	 xmm1, xmm5
  0076b	0f 5a d2	 cvtps2pd xmm2, xmm2
  0076e	0f 5a e4	 cvtps2pd xmm4, xmm4
  00771	0f 5a eb	 cvtps2pd xmm5, xmm3
  00774	f2 0f 59 ef	 mulsd	 xmm5, xmm7
  00778	f2 0f 5c cd	 subsd	 xmm1, xmm5
  0077c	f3 0f 10 28	 movss	 xmm5, DWORD PTR [eax]
  00780	0f 5a fd	 cvtps2pd xmm7, xmm5
  00783	0f 5a db	 cvtps2pd xmm3, xmm3
  00786	f2 0f 59 df	 mulsd	 xmm3, xmm7
  0078a	0f 5a c0	 cvtps2pd xmm0, xmm0
  0078d	66 0f 5a c9	 cvtpd2ps xmm1, xmm1
  00791	f3 0f 11 8d 1c
	ff ff ff	 movss	 DWORD PTR _v$588694[ebp], xmm1
  00799	0f 5a fe	 cvtps2pd xmm7, xmm6
  0079c	f2 0f 59 fa	 mulsd	 xmm7, xmm2
  007a0	f2 0f 5c df	 subsd	 xmm3, xmm7
  007a4	0f 57 d2	 xorps	 xmm2, xmm2
  007a7	66 0f 5a d3	 cvtpd2ps xmm2, xmm3
  007ab	f3 0f 11 95 20
	ff ff ff	 movss	 DWORD PTR _v$588694[ebp+4], xmm2
  007b3	8d b5 1c ff ff
	ff		 lea	 esi, DWORD PTR _v$588694[ebp]

; 372  : 							D3DXVec3Normalize( &vAxis1, &-vAxis1 );

  007b9	8d 45 9c	 lea	 eax, DWORD PTR $T583279[ebp]
  007bc	0f 5a de	 cvtps2pd xmm3, xmm6
  007bf	f2 0f 59 dc	 mulsd	 xmm3, xmm4
  007c3	0f 5a e5	 cvtps2pd xmm4, xmm5
  007c6	f2 0f 59 c4	 mulsd	 xmm0, xmm4
  007ca	f2 0f 5c d8	 subsd	 xmm3, xmm0
  007ce	f3 0f 10 05 00
	00 00 00	 movss	 xmm0, DWORD PTR __mask@@NegFloat@
  007d6	66 0f 5a db	 cvtpd2ps xmm3, xmm3
  007da	f3 0f 11 9d 24
	ff ff ff	 movss	 DWORD PTR _v$588694[ebp+8], xmm3
  007e2	0f 57 c8	 xorps	 xmm1, xmm0
  007e5	0f 57 d0	 xorps	 xmm2, xmm0
  007e8	0f 57 d8	 xorps	 xmm3, xmm0
  007eb	f3 0f 11 4d 9c	 movss	 DWORD PTR $T583279[ebp], xmm1
  007f0	f3 0f 11 55 a0	 movss	 DWORD PTR $T583279[ebp+4], xmm2
  007f5	f3 0f 11 5d a4	 movss	 DWORD PTR $T583279[ebp+8], xmm3
$LN195@OnTracing:

; 370  : 						{
; 371  : 							D3DXVec3Cross( &vAxis1, &m_vMoveDir, &ioMath::UNIT_X );

  007fa	8d 7d e4	 lea	 edi, DWORD PTR _vAxis1$583274[ebp]
  007fd	a5		 movsd

; 372  : 							D3DXVec3Normalize( &vAxis1, &-vAxis1 );

  007fe	50		 push	 eax
  007ff	a5		 movsd
  00800	8d 45 e4	 lea	 eax, DWORD PTR _vAxis1$583274[ebp]
  00803	50		 push	 eax
  00804	a5		 movsd
  00805	e8 00 00 00 00	 call	 _D3DXVec3Normalize@8

; 373  : 						}
; 374  : 
; 375  : 						D3DXVec3Cross( &vAxis2, &m_vMoveDir, &vAxis1 );

  0080a	f3 0f 10 5d ec	 movss	 xmm3, DWORD PTR _vAxis1$583274[ebp+8]
  0080f	f3 0f 10 43 04	 movss	 xmm0, DWORD PTR [ebx+4]
  00814	f3 0f 10 53 08	 movss	 xmm2, DWORD PTR [ebx+8]
  00819	f3 0f 10 65 e8	 movss	 xmm4, DWORD PTR _vAxis1$583274[ebp+4]
  0081e	0f 5a db	 cvtps2pd xmm3, xmm3
  00821	0f 5a e4	 cvtps2pd xmm4, xmm4
  00824	0f 5a c8	 cvtps2pd xmm1, xmm0
  00827	f2 0f 59 cb	 mulsd	 xmm1, xmm3
  0082b	0f 5a c0	 cvtps2pd xmm0, xmm0
  0082e	8d b5 10 ff ff
	ff		 lea	 esi, DWORD PTR _v$588713[ebp]
  00834	0f 5a da	 cvtps2pd xmm3, xmm2
  00837	f2 0f 59 dc	 mulsd	 xmm3, xmm4
  0083b	f3 0f 10 65 e4	 movss	 xmm4, DWORD PTR _vAxis1$583274[ebp]
  00840	f2 0f 5c cb	 subsd	 xmm1, xmm3
  00844	f3 0f 10 1b	 movss	 xmm3, DWORD PTR [ebx]
  00848	0f 5a e4	 cvtps2pd xmm4, xmm4
  0084b	0f 5a d2	 cvtps2pd xmm2, xmm2
  0084e	f2 0f 59 d4	 mulsd	 xmm2, xmm4
  00852	f3 0f 10 65 ec	 movss	 xmm4, DWORD PTR _vAxis1$583274[ebp+8]
  00857	0f 5a eb	 cvtps2pd xmm5, xmm3
  0085a	0f 5a e4	 cvtps2pd xmm4, xmm4
  0085d	f2 0f 59 e5	 mulsd	 xmm4, xmm5
  00861	f2 0f 5c d4	 subsd	 xmm2, xmm4
  00865	f3 0f 10 65 e8	 movss	 xmm4, DWORD PTR _vAxis1$583274[ebp+4]
  0086a	0f 5a db	 cvtps2pd xmm3, xmm3
  0086d	0f 5a e4	 cvtps2pd xmm4, xmm4
  00870	f2 0f 59 e3	 mulsd	 xmm4, xmm3
  00874	f3 0f 10 5d e4	 movss	 xmm3, DWORD PTR _vAxis1$583274[ebp]
  00879	0f 5a db	 cvtps2pd xmm3, xmm3
  0087c	f2 0f 59 c3	 mulsd	 xmm0, xmm3
  00880	f2 0f 5c e0	 subsd	 xmm4, xmm0

; 376  : 						D3DXVec3Normalize( &vAxis2, &-vAxis2 );

  00884	f3 0f 10 05 00
	00 00 00	 movss	 xmm0, DWORD PTR __mask@@NegFloat@
  0088c	0f 57 db	 xorps	 xmm3, xmm3
  0088f	66 0f 5a c9	 cvtpd2ps xmm1, xmm1
  00893	f3 0f 11 8d 10
	ff ff ff	 movss	 DWORD PTR _v$588713[ebp], xmm1
  0089b	66 0f 5a d2	 cvtpd2ps xmm2, xmm2
  0089f	f3 0f 11 95 14
	ff ff ff	 movss	 DWORD PTR _v$588713[ebp+4], xmm2
  008a7	f2 0f 5a dc	 cvtsd2ss xmm3, xmm4
  008ab	f3 0f 11 9d 18
	ff ff ff	 movss	 DWORD PTR _v$588713[ebp+8], xmm3
  008b3	8d 7d c0	 lea	 edi, DWORD PTR _vAxis2$583275[ebp]
  008b6	a5		 movsd
  008b7	8d 45 a8	 lea	 eax, DWORD PTR $T583280[ebp]
  008ba	a5		 movsd
  008bb	50		 push	 eax
  008bc	8d 45 c0	 lea	 eax, DWORD PTR _vAxis2$583275[ebp]
  008bf	0f 57 c8	 xorps	 xmm1, xmm0
  008c2	0f 57 d0	 xorps	 xmm2, xmm0
  008c5	0f 57 d8	 xorps	 xmm3, xmm0
  008c8	50		 push	 eax
  008c9	a5		 movsd
  008ca	f3 0f 11 4d a8	 movss	 DWORD PTR $T583280[ebp], xmm1
  008cf	f3 0f 11 55 ac	 movss	 DWORD PTR $T583280[ebp+4], xmm2
  008d4	f3 0f 11 5d b0	 movss	 DWORD PTR $T583280[ebp+8], xmm3
  008d9	e8 00 00 00 00	 call	 _D3DXVec3Normalize@8

; 377  : 
; 378  : 						GetParentSceneNode()->Rotate( vAxis2, FLOAT1 );

  008de	8b 85 6c ff ff
	ff		 mov	 eax, DWORD PTR _this$GSCopy$[ebp]
  008e4	8b 48 04	 mov	 ecx, DWORD PTR [eax+4]
  008e7	b8 01 00 00 00	 mov	 eax, 1
  008ec	8b 11		 mov	 edx, DWORD PTR [ecx]
  008ee	89 85 64 ff ff
	ff		 mov	 DWORD PTR tv2541[ebp], eax
  008f4	db 85 64 ff ff
	ff		 fild	 DWORD PTR tv2541[ebp]
  008fa	6a 01		 push	 1
  008fc	85 c0		 test	 eax, eax
  008fe	79 06		 jns	 SHORT $LN192@OnTracing
  00900	d8 05 00 00 00
	00		 fadd	 DWORD PTR __real@4f800000
$LN192@OnTracing:
  00906	51		 push	 ecx
  00907	8d 45 c0	 lea	 eax, DWORD PTR _vAxis2$583275[ebp]
  0090a	d9 1c 24	 fstp	 DWORD PTR [esp]
  0090d	50		 push	 eax
  0090e	ff 52 50	 call	 DWORD PTR [edx+80]

; 379  : 					}
; 380  : 					else // 

  00911	e9 0b 01 00 00	 jmp	 $LN10@OnTracing
$LN13@OnTracing:

; 381  : 					{
; 382  : 						float fGapAngle = RADtoDEG( acos( fCos ) );

  00916	d9 45 80	 fld	 DWORD PTR _fCos$583268[ebp]
  00919	e8 00 00 00 00	 call	 __CIacos
  0091e	d9 5d 80	 fstp	 DWORD PTR tv2533[ebp]
  00921	d9 45 80	 fld	 DWORD PTR tv2533[ebp]
  00924	51		 push	 ecx
  00925	d9 1c 24	 fstp	 DWORD PTR [esp]
  00928	e8 00 00 00 00	 call	 ??$RADtoDEG@M@@YAMM@Z	; RADtoDEG<float>

; 383  : 
; 384  : 						D3DXVECTOR3 vAxis;
; 385  : 						D3DXVec3Cross( &vAxis, &vDiff, &m_vMoveDir );

  0092d	f3 0f 10 55 f4	 movss	 xmm2, DWORD PTR _vDiff$583236[ebp+4]
  00932	d9 5d 80	 fstp	 DWORD PTR _fGapAngle$583283[ebp]
  00935	f3 0f 10 43 08	 movss	 xmm0, DWORD PTR [ebx+8]
  0093a	f3 0f 10 5b 04	 movss	 xmm3, DWORD PTR [ebx+4]
  0093f	f3 0f 10 65 f8	 movss	 xmm4, DWORD PTR _vDiff$583236[ebp+8]
  00944	0f 5a d2	 cvtps2pd xmm2, xmm2
  00947	0f 5a c8	 cvtps2pd xmm1, xmm0
  0094a	f2 0f 59 ca	 mulsd	 xmm1, xmm2
  0094e	0f 5a e4	 cvtps2pd xmm4, xmm4
  00951	0f 5a c0	 cvtps2pd xmm0, xmm0
  00954	8d b5 40 ff ff
	ff		 lea	 esi, DWORD PTR _v$588756[ebp]
  0095a	0f 5a d3	 cvtps2pd xmm2, xmm3
  0095d	f2 0f 59 d4	 mulsd	 xmm2, xmm4
  00961	f3 0f 10 23	 movss	 xmm4, DWORD PTR [ebx]
  00965	f2 0f 5c ca	 subsd	 xmm1, xmm2
  00969	f3 0f 10 55 f8	 movss	 xmm2, DWORD PTR _vDiff$583236[ebp+8]
  0096e	0f 5a d2	 cvtps2pd xmm2, xmm2
  00971	0f 5a ec	 cvtps2pd xmm5, xmm4
  00974	f2 0f 59 d5	 mulsd	 xmm2, xmm5
  00978	f3 0f 10 6d f0	 movss	 xmm5, DWORD PTR _vDiff$583236[ebp]
  0097d	0f 5a ed	 cvtps2pd xmm5, xmm5
  00980	f2 0f 59 c5	 mulsd	 xmm0, xmm5
  00984	f2 0f 5c d0	 subsd	 xmm2, xmm0
  00988	0f 5a e4	 cvtps2pd xmm4, xmm4
  0098b	66 0f 5a c9	 cvtpd2ps xmm1, xmm1
  0098f	f3 0f 11 8d 40
	ff ff ff	 movss	 DWORD PTR _v$588756[ebp], xmm1
  00997	f2 0f 5a d2	 cvtsd2ss xmm2, xmm2
  0099b	0f 5a c3	 cvtps2pd xmm0, xmm3
  0099e	f3 0f 10 5d f0	 movss	 xmm3, DWORD PTR _vDiff$583236[ebp]
  009a3	0f 5a db	 cvtps2pd xmm3, xmm3
  009a6	f2 0f 59 c3	 mulsd	 xmm0, xmm3
  009aa	f3 0f 10 5d f4	 movss	 xmm3, DWORD PTR _vDiff$583236[ebp+4]
  009af	0f 5a db	 cvtps2pd xmm3, xmm3
  009b2	f2 0f 59 dc	 mulsd	 xmm3, xmm4
  009b6	f2 0f 5c c3	 subsd	 xmm0, xmm3
  009ba	f3 0f 11 95 44
	ff ff ff	 movss	 DWORD PTR _v$588756[ebp+4], xmm2
  009c2	8d 7d 90	 lea	 edi, DWORD PTR _vAxis$583288[ebp]
  009c5	59		 pop	 ecx

; 386  : 						D3DXVec3Normalize( &vAxis, &-vAxis );

  009c6	8d 45 cc	 lea	 eax, DWORD PTR $T583289[ebp]
  009c9	66 0f 5a d8	 cvtpd2ps xmm3, xmm0
  009cd	f3 0f 10 05 00
	00 00 00	 movss	 xmm0, DWORD PTR __mask@@NegFloat@
  009d5	f3 0f 11 9d 48
	ff ff ff	 movss	 DWORD PTR _v$588756[ebp+8], xmm3
  009dd	a5		 movsd
  009de	a5		 movsd
  009df	50		 push	 eax
  009e0	8d 45 90	 lea	 eax, DWORD PTR _vAxis$583288[ebp]
  009e3	0f 57 c8	 xorps	 xmm1, xmm0
  009e6	0f 57 d0	 xorps	 xmm2, xmm0
  009e9	0f 57 d8	 xorps	 xmm3, xmm0
  009ec	50		 push	 eax
  009ed	a5		 movsd
  009ee	f3 0f 11 4d cc	 movss	 DWORD PTR $T583289[ebp], xmm1
  009f3	f3 0f 11 55 d0	 movss	 DWORD PTR $T583289[ebp+4], xmm2
  009f8	f3 0f 11 5d d4	 movss	 DWORD PTR $T583289[ebp+8], xmm3
  009fd	e8 00 00 00 00	 call	 _D3DXVec3Normalize@8

; 387  : 
; 388  : 						GetParentSceneNode()->Rotate( vAxis, fGapAngle );

  00a02	8b 85 6c ff ff
	ff		 mov	 eax, DWORD PTR _this$GSCopy$[ebp]
  00a08	8b 48 04	 mov	 ecx, DWORD PTR [eax+4]
  00a0b	f3 0f 10 45 80	 movss	 xmm0, DWORD PTR _fGapAngle$583283[ebp]
  00a10	8b 01		 mov	 eax, DWORD PTR [ecx]
  00a12	6a 01		 push	 1
  00a14	51		 push	 ecx
  00a15	8d 55 90	 lea	 edx, DWORD PTR _vAxis$583288[ebp]
  00a18	f3 0f 11 04 24	 movss	 DWORD PTR [esp], xmm0
  00a1d	52		 push	 edx
  00a1e	ff 50 50	 call	 DWORD PTR [eax+80]
$LN10@OnTracing:

; 323  : 				float fCurLoopTimeGap;
; 324  : 				float fCurLoopTimePerSec;
; 325  : 				while( fTimeGap > 0.0f )

  00a21	f3 0f 10 85 74
	ff ff ff	 movss	 xmm0, DWORD PTR _fTimeGap$583242[ebp]
  00a29	0f 2f 05 00 00
	00 00		 comiss	 xmm0, DWORD PTR __real@00000000
  00a30	0f 87 13 f8 ff
	ff		 ja	 $LL20@OnTracing

; 389  : 					}
; 390  : 				}
; 391  : 			}
; 392  : 			else

  00a36	8b 9d 6c ff ff
	ff		 mov	 ebx, DWORD PTR _this$GSCopy$[ebp]
  00a3c	eb 0c		 jmp	 SHORT $LN180@OnTracing
$LN21@OnTracing:

; 393  : 			{
; 394  : 				m_TargetName.Clear();

  00a3e	8d 8b fc 08 00
	00		 lea	 ecx, DWORD PTR [ebx+2300]
  00a44	ff 15 00 00 00
	00		 call	 DWORD PTR __imp_?Clear@ioHashString@@QAEXXZ
$LN180@OnTracing:

; 395  : 			}
; 396  : 		}
; 397  : 
; 398  : 		if( !m_TargetName.IsEmpty() )

  00a4a	8d 8b fc 08 00
	00		 lea	 ecx, DWORD PTR [ebx+2300]
  00a50	ff 15 00 00 00
	00		 call	 DWORD PTR __imp_?IsEmpty@ioHashString@@QBE_NXZ
  00a56	84 c0		 test	 al, al
  00a58	75 1a		 jne	 SHORT $LN7@OnTracing

; 399  : 		{
; 400  : 			if( m_dwTraceEndTime < dwCurTime )

  00a5a	8b 85 7c ff ff
	ff		 mov	 eax, DWORD PTR _dwCurTime$[ebp]
  00a60	39 83 60 0a 00
	00		 cmp	 DWORD PTR [ebx+2656], eax
  00a66	73 0c		 jae	 SHORT $LN7@OnTracing

; 401  : 			{
; 402  : 				m_TargetName.Clear();

  00a68	8d 8b fc 08 00
	00		 lea	 ecx, DWORD PTR [ebx+2300]
  00a6e	ff 15 00 00 00
	00		 call	 DWORD PTR __imp_?Clear@ioHashString@@QAEXXZ
$LN7@OnTracing:

; 403  : 			}
; 404  : 		}
; 405  : 
; 406  : 		if( !m_TargetName.IsEmpty() && m_fTraceEndRange > 0.0f )

  00a74	8d 8b fc 08 00
	00		 lea	 ecx, DWORD PTR [ebx+2300]
  00a7a	ff 15 00 00 00
	00		 call	 DWORD PTR __imp_?IsEmpty@ioHashString@@QBE_NXZ
  00a80	84 c0		 test	 al, al
  00a82	0f 85 4e 01 00
	00		 jne	 $LN181@OnTracing
  00a88	8d 85 7c ff ff
	ff		 lea	 eax, DWORD PTR _value$588781[ebp]
  00a8e	50		 push	 eax
  00a8f	8d 8b 00 0a 00
	00		 lea	 ecx, DWORD PTR [ebx+2560]
  00a95	e8 00 00 00 00	 call	 ?DecryptValueToPool@?$CEncrypt@M@@QAEXPAM@Z ; CEncrypt<float>::DecryptValueToPool
  00a9a	f3 0f 10 85 7c
	ff ff ff	 movss	 xmm0, DWORD PTR _value$588781[ebp]
  00aa2	0f 2f 05 00 00
	00 00		 comiss	 xmm0, DWORD PTR __real@00000000
  00aa9	0f 86 27 01 00
	00		 jbe	 $LN181@OnTracing

; 407  : 		{
; 408  : 			D3DXVECTOR3 vPos = pTarget->GetMidPositionByRate();

  00aaf	b8 05 00 00 00	 mov	 eax, 5
  00ab4	8b c8		 mov	 ecx, eax
  00ab6	b8 0a 00 00 00	 mov	 eax, 10			; 0000000aH
  00abb	89 8d 64 ff ff
	ff		 mov	 DWORD PTR tv2485[ebp], ecx
  00ac1	db 85 64 ff ff
	ff		 fild	 DWORD PTR tv2485[ebp]
  00ac7	85 c9		 test	 ecx, ecx
  00ac9	79 06		 jns	 SHORT $LN193@OnTracing
  00acb	d8 05 00 00 00
	00		 fadd	 DWORD PTR __real@4f800000
$LN193@OnTracing:
  00ad1	89 85 64 ff ff
	ff		 mov	 DWORD PTR tv2481[ebp], eax
  00ad7	db 85 64 ff ff
	ff		 fild	 DWORD PTR tv2481[ebp]
  00add	85 c0		 test	 eax, eax
  00adf	79 06		 jns	 SHORT $LN194@OnTracing
  00ae1	d8 05 00 00 00
	00		 fadd	 DWORD PTR __real@4f800000
$LN194@OnTracing:
  00ae7	de f9		 fdivp	 ST(1), ST(0)
  00ae9	51		 push	 ecx
  00aea	8b 8d 5c ff ff
	ff		 mov	 ecx, DWORD PTR _pTarget$[ebp]
  00af0	8d 45 e4	 lea	 eax, DWORD PTR _vPos$583295[ebp]
  00af3	d9 9d 7c ff ff
	ff		 fstp	 DWORD PTR tv2477[ebp]
  00af9	d9 85 7c ff ff
	ff		 fld	 DWORD PTR tv2477[ebp]
  00aff	d9 1c 24	 fstp	 DWORD PTR [esp]
  00b02	50		 push	 eax
  00b03	e8 00 00 00 00	 call	 ?GetMidPositionByRate@ioGameEntity@@QBE?AUD3DXVECTOR3@@M@Z ; ioGameEntity::GetMidPositionByRate

; 409  : 			D3DXVECTOR3 vLength = vPos - GetPosition();

  00b08	8b 03		 mov	 eax, DWORD PTR [ebx]
  00b0a	8b cb		 mov	 ecx, ebx
  00b0c	ff 50 70	 call	 DWORD PTR [eax+112]
  00b0f	f3 0f 10 08	 movss	 xmm1, DWORD PTR [eax]
  00b13	f3 0f 10 45 e4	 movss	 xmm0, DWORD PTR _vPos$583295[ebp]
  00b18	0f 5a c0	 cvtps2pd xmm0, xmm0
  00b1b	0f 5a c9	 cvtps2pd xmm1, xmm1
  00b1e	f2 0f 5c c1	 subsd	 xmm0, xmm1
  00b22	f3 0f 10 48 04	 movss	 xmm1, DWORD PTR [eax+4]
  00b27	66 0f 5a c0	 cvtpd2ps xmm0, xmm0
  00b2b	f3 0f 11 45 d8	 movss	 DWORD PTR _vLength$583297[ebp], xmm0
  00b30	f3 0f 10 45 e8	 movss	 xmm0, DWORD PTR _vPos$583295[ebp+4]
  00b35	0f 5a c0	 cvtps2pd xmm0, xmm0
  00b38	0f 5a c9	 cvtps2pd xmm1, xmm1
  00b3b	f2 0f 5c c1	 subsd	 xmm0, xmm1
  00b3f	f3 0f 10 48 08	 movss	 xmm1, DWORD PTR [eax+8]
  00b44	66 0f 5a c0	 cvtpd2ps xmm0, xmm0
  00b48	f3 0f 11 45 dc	 movss	 DWORD PTR _vLength$583297[ebp+4], xmm0
  00b4d	f3 0f 10 45 ec	 movss	 xmm0, DWORD PTR _vPos$583295[ebp+8]
  00b52	0f 5a c0	 cvtps2pd xmm0, xmm0
  00b55	0f 5a c9	 cvtps2pd xmm1, xmm1

; 410  : 			float fLength = D3DXVec3Length( &vLength );
; 411  : 			if( fLength <= m_fTraceEndRange )

  00b58	8d 85 7c ff ff
	ff		 lea	 eax, DWORD PTR _value$588817[ebp]
  00b5e	f2 0f 5c c1	 subsd	 xmm0, xmm1
  00b62	66 0f 5a c0	 cvtpd2ps xmm0, xmm0
  00b66	50		 push	 eax
  00b67	8d 8b 00 0a 00
	00		 lea	 ecx, DWORD PTR [ebx+2560]
  00b6d	f3 0f 11 45 e0	 movss	 DWORD PTR _vLength$583297[ebp+8], xmm0
  00b72	e8 00 00 00 00	 call	 ?DecryptValueToPool@?$CEncrypt@M@@QAEXPAM@Z ; CEncrypt<float>::DecryptValueToPool
  00b77	f3 0f 10 45 dc	 movss	 xmm0, DWORD PTR _vLength$583297[ebp+4]
  00b7c	f3 0f 10 4d d8	 movss	 xmm1, DWORD PTR _vLength$583297[ebp]
  00b81	f3 0f 10 55 e0	 movss	 xmm2, DWORD PTR _vLength$583297[ebp+8]
  00b86	0f 5a c0	 cvtps2pd xmm0, xmm0
  00b89	f2 0f 59 c0	 mulsd	 xmm0, xmm0
  00b8d	0f 5a c9	 cvtps2pd xmm1, xmm1
  00b90	f2 0f 59 c9	 mulsd	 xmm1, xmm1
  00b94	f2 0f 58 c8	 addsd	 xmm1, xmm0
  00b98	0f 57 c0	 xorps	 xmm0, xmm0
  00b9b	0f 5a d2	 cvtps2pd xmm2, xmm2
  00b9e	f2 0f 59 d2	 mulsd	 xmm2, xmm2
  00ba2	f2 0f 58 ca	 addsd	 xmm1, xmm2
  00ba6	f2 0f 5a c1	 cvtsd2ss xmm0, xmm1
  00baa	f3 0f 10 8d 7c
	ff ff ff	 movss	 xmm1, DWORD PTR _value$588817[ebp]
  00bb2	0f 5a c0	 cvtps2pd xmm0, xmm0
  00bb5	f2 0f 51 c0	 sqrtsd	 xmm0, xmm0
  00bb9	66 0f 5a c0	 cvtpd2ps xmm0, xmm0
  00bbd	f3 0f 5a c0	 cvtss2sd xmm0, xmm0
  00bc1	0f 5a c9	 cvtps2pd xmm1, xmm1
  00bc4	66 0f 2f c8	 comisd	 xmm1, xmm0
  00bc8	72 0c		 jb	 SHORT $LN181@OnTracing

; 412  : 			{
; 413  : 				m_TargetName.Clear();

  00bca	8d 8b fc 08 00
	00		 lea	 ecx, DWORD PTR [ebx+2300]
$LN25@OnTracing:

; 414  : 			}
; 415  : 		}
; 416  : 	}
; 417  : 	else
; 418  : 	{
; 419  : 		m_TargetName.Clear();

  00bd0	ff 15 00 00 00
	00		 call	 DWORD PTR __imp_?Clear@ioHashString@@QAEXXZ
$LN181@OnTracing:

; 420  : 	}
; 421  : 
; 422  : 	float fMoveDist = m_fTraceSpeed * fTimePerSec;

  00bd6	8d 85 7c ff ff
	ff		 lea	 eax, DWORD PTR _value$588821[ebp]
  00bdc	50		 push	 eax
  00bdd	8d 8b 70 09 00
	00		 lea	 ecx, DWORD PTR [ebx+2416]
  00be3	e8 00 00 00 00	 call	 ?DecryptValueToPool@?$CEncrypt@M@@QAEXPAM@Z ; CEncrypt<float>::DecryptValueToPool
  00be8	f3 0f 10 85 7c
	ff ff ff	 movss	 xmm0, DWORD PTR _value$588821[ebp]
  00bf0	f3 0f 10 4d 08	 movss	 xmm1, DWORD PTR _fTimePerSec$[ebp]
  00bf5	0f 5a c0	 cvtps2pd xmm0, xmm0
  00bf8	0f 5a c9	 cvtps2pd xmm1, xmm1
  00bfb	f2 0f 59 c1	 mulsd	 xmm0, xmm1

; 423  : 	m_fCurMoveRange += fMoveDist;

  00bff	f3 0f 10 8b 8c
	0a 00 00	 movss	 xmm1, DWORD PTR [ebx+2700]
  00c07	66 0f 5a c0	 cvtpd2ps xmm0, xmm0
  00c0b	f3 0f 11 85 78
	ff ff ff	 movss	 DWORD PTR _fMoveDist$[ebp], xmm0
  00c13	f3 0f 5a c0	 cvtss2sd xmm0, xmm0
  00c17	0f 5a c9	 cvtps2pd xmm1, xmm1
  00c1a	f2 0f 58 c8	 addsd	 xmm1, xmm0

; 424  : 
; 425  : 	float fMaxRange = GetMaxRange() + m_fGrowthMoveRange;

  00c1e	8d 85 7c ff ff
	ff		 lea	 eax, DWORD PTR _value$588825[ebp]
  00c24	0f 57 c0	 xorps	 xmm0, xmm0
  00c27	66 0f 5a c1	 cvtpd2ps xmm0, xmm1
  00c2b	50		 push	 eax
  00c2c	8d 8b 60 03 00
	00		 lea	 ecx, DWORD PTR [ebx+864]
  00c32	f3 0f 11 83 8c
	0a 00 00	 movss	 DWORD PTR [ebx+2700], xmm0
  00c3a	e8 00 00 00 00	 call	 ?DecryptValueToPool@?$CEncrypt@M@@QAEXPAM@Z ; CEncrypt<float>::DecryptValueToPool
  00c3f	8b cb		 mov	 ecx, ebx
  00c41	e8 00 00 00 00	 call	 ?GetMaxRange@ioGuide2Weapon@@QAEMXZ ; ioGuide2Weapon::GetMaxRange
  00c46	d8 85 7c ff ff
	ff		 fadd	 DWORD PTR _value$588825[ebp]
  00c4c	5e		 pop	 esi
  00c4d	d9 9d 7c ff ff
	ff		 fstp	 DWORD PTR _fMaxRange$[ebp]

; 426  : 	if( m_fCurMoveRange < fMaxRange )

  00c53	d9 83 8c 0a 00
	00		 fld	 DWORD PTR [ebx+2700]
  00c59	d9 85 7c ff ff
	ff		 fld	 DWORD PTR _fMaxRange$[ebp]
  00c5f	df f1		 fcomip	 ST(1)
  00c61	dd d8		 fstp	 ST(0)
  00c63	76 79		 jbe	 SHORT $LN3@OnTracing

; 427  : 	{
; 428  : 		GetParentSceneNode()->Translate( m_vMoveDir * fMoveDist );

  00c65	f3 0f 10 8d 78
	ff ff ff	 movss	 xmm1, DWORD PTR _fMoveDist$[ebp]
  00c6d	f3 0f 10 83 e4
	08 00 00	 movss	 xmm0, DWORD PTR [ebx+2276]
  00c75	8b 4b 04	 mov	 ecx, DWORD PTR [ebx+4]
  00c78	0f 5a c0	 cvtps2pd xmm0, xmm0
  00c7b	0f 5a c9	 cvtps2pd xmm1, xmm1
  00c7e	f2 0f 59 c1	 mulsd	 xmm0, xmm1
  00c82	f3 0f 10 8d 78
	ff ff ff	 movss	 xmm1, DWORD PTR _fMoveDist$[ebp]
  00c8a	66 0f 5a c0	 cvtpd2ps xmm0, xmm0
  00c8e	f3 0f 11 45 cc	 movss	 DWORD PTR $T583305[ebp], xmm0
  00c93	f3 0f 10 83 e8
	08 00 00	 movss	 xmm0, DWORD PTR [ebx+2280]
  00c9b	0f 5a c0	 cvtps2pd xmm0, xmm0
  00c9e	0f 5a c9	 cvtps2pd xmm1, xmm1
  00ca1	f2 0f 59 c1	 mulsd	 xmm0, xmm1
  00ca5	f3 0f 10 8d 78
	ff ff ff	 movss	 xmm1, DWORD PTR _fMoveDist$[ebp]
  00cad	66 0f 5a c0	 cvtpd2ps xmm0, xmm0
  00cb1	f3 0f 11 45 d0	 movss	 DWORD PTR $T583305[ebp+4], xmm0
  00cb6	f3 0f 10 83 ec
	08 00 00	 movss	 xmm0, DWORD PTR [ebx+2284]
  00cbe	0f 5a c0	 cvtps2pd xmm0, xmm0
  00cc1	0f 5a c9	 cvtps2pd xmm1, xmm1
  00cc4	f2 0f 59 c1	 mulsd	 xmm0, xmm1
  00cc8	66 0f 5a c0	 cvtpd2ps xmm0, xmm0
  00ccc	6a 01		 push	 1
  00cce	8d 55 cc	 lea	 edx, DWORD PTR $T583305[ebp]
  00cd1	f3 0f 11 45 d4	 movss	 DWORD PTR $T583305[ebp+8], xmm0
  00cd6	8b 01		 mov	 eax, DWORD PTR [ecx]
  00cd8	52		 push	 edx
  00cd9	ff 50 3c	 call	 DWORD PTR [eax+60]

; 429  : 	}
; 430  : 	else

  00cdc	eb 22		 jmp	 SHORT $LN1@OnTracing
$LN3@OnTracing:

; 431  : 	{
; 432  : 		ioBaseChar *pOwner = GetOwner();

  00cde	8b cb		 mov	 ecx, ebx
  00ce0	e8 00 00 00 00	 call	 ?GetOwner@ioWeapon@@QBEPAVioBaseChar@@XZ ; ioWeapon::GetOwner

; 433  : 		if( pOwner && pOwner->IsNeedProcess() )

  00ce5	85 c0		 test	 eax, eax
  00ce7	74 17		 je	 SHORT $LN1@OnTracing
  00ce9	8b 10		 mov	 edx, DWORD PTR [eax]
  00ceb	8b c8		 mov	 ecx, eax
  00ced	ff 92 00 01 00
	00		 call	 DWORD PTR [edx+256]
  00cf3	84 c0		 test	 al, al
  00cf5	74 09		 je	 SHORT $LN1@OnTracing

; 434  : 		{
; 435  : 			SetAfterCollisionState( true );

  00cf7	6a 01		 push	 1
  00cf9	8b cb		 mov	 ecx, ebx
  00cfb	e8 00 00 00 00	 call	 ?SetAfterCollisionState@ioGuide2Weapon@@QAEX_N@Z ; ioGuide2Weapon::SetAfterCollisionState
$LN1@OnTracing:

; 436  : 		}
; 437  : 	}
; 438  : 
; 439  : 	UpdateWorldAttackBox( fTimePerSec, false );

  00d00	f3 0f 10 45 08	 movss	 xmm0, DWORD PTR _fTimePerSec$[ebp]
  00d05	8b 03		 mov	 eax, DWORD PTR [ebx]
  00d07	6a 00		 push	 0
  00d09	51		 push	 ecx
  00d0a	8b cb		 mov	 ecx, ebx
  00d0c	f3 0f 11 04 24	 movss	 DWORD PTR [esp], xmm0
  00d11	ff 90 38 01 00
	00		 call	 DWORD PTR [eax+312]

; 440  : 	ProcessGuidArrow();

  00d17	8b cb		 mov	 ecx, ebx
  00d19	e8 00 00 00 00	 call	 ?ProcessGuidArrow@ioGuide2Weapon@@IAEXXZ ; ioGuide2Weapon::ProcessGuidArrow
$LN27@OnTracing:

; 441  : }

  00d1e	8b 4d fc	 mov	 ecx, DWORD PTR __$ArrayPad$[ebp]
  00d21	5f		 pop	 edi
  00d22	33 cd		 xor	 ecx, ebp
  00d24	5b		 pop	 ebx
  00d25	e8 00 00 00 00	 call	 @__security_check_cookie@4
  00d2a	c9		 leave
  00d2b	c2 08 00	 ret	 8
?OnTracing@ioGuide2Weapon@@IAEXMPAVioPlayStage@@@Z ENDP	; ioGuide2Weapon::OnTracing
_TEXT	ENDS
EXTRN	??5SP2Packet@@QAEAAV0@AAVioHashString@@@Z:PROC	; SP2Packet::operator>>
EXTRN	??5SP2Packet@@QAEAAV0@AAH@Z:PROC		; SP2Packet::operator>>
; Function compile flags: /Ogsp
;	COMDAT ?ApplyWeaponSync@ioGuide2Weapon@@UAEXAAVSP2Packet@@PAVioPlayStage@@@Z
_TEXT	SEGMENT
_iState$ = -4						; size = 4
_rkPacket$ = 8						; size = 4
_pStage$ = 12						; size = 4
?ApplyWeaponSync@ioGuide2Weapon@@UAEXAAVSP2Packet@@PAVioPlayStage@@@Z PROC ; ioGuide2Weapon::ApplyWeaponSync, COMDAT
; _this$ = ecx

; 564  : {

  00000	55		 push	 ebp
  00001	8b ec		 mov	 ebp, esp
  00003	51		 push	 ecx
  00004	57		 push	 edi

; 565  : 	int iState;
; 566  : 	rkPacket >> iState;

  00005	8d 45 fc	 lea	 eax, DWORD PTR _iState$[ebp]
  00008	8b f9		 mov	 edi, ecx
  0000a	8b 4d 08	 mov	 ecx, DWORD PTR _rkPacket$[ebp]
  0000d	50		 push	 eax
  0000e	e8 00 00 00 00	 call	 ??5SP2Packet@@QAEAAV0@AAH@Z ; SP2Packet::operator>>

; 567  : 
; 568  : 	switch( iState )

  00013	8b 45 fc	 mov	 eax, DWORD PTR _iState$[ebp]
  00016	48		 dec	 eax
  00017	48		 dec	 eax
  00018	74 0d		 je	 SHORT $LN2@ApplyWeapo
  0001a	48		 dec	 eax
  0001b	75 2c		 jne	 SHORT $LN3@ApplyWeapo

; 574  : 		break;
; 575  : 	case WS_END:
; 576  : 		SetEndState( false );

  0001d	50		 push	 eax
  0001e	8b cf		 mov	 ecx, edi
  00020	e8 00 00 00 00	 call	 ?SetEndState@ioGuide2Weapon@@QAEX_N@Z ; ioGuide2Weapon::SetEndState

; 577  : 		break;

  00025	eb 22		 jmp	 SHORT $LN3@ApplyWeapo
$LN2@ApplyWeapo:
  00027	56		 push	 esi

; 569  : 	{
; 570  : 	case WS_AFTER_COLLISION:
; 571  : 		m_TargetName.Clear();

  00028	8d b7 fc 08 00
	00		 lea	 esi, DWORD PTR [edi+2300]
  0002e	8b ce		 mov	 ecx, esi
  00030	ff 15 00 00 00
	00		 call	 DWORD PTR __imp_?Clear@ioHashString@@QAEXXZ

; 572  : 		rkPacket >> m_TargetName;

  00036	8b 4d 08	 mov	 ecx, DWORD PTR _rkPacket$[ebp]
  00039	56		 push	 esi
  0003a	e8 00 00 00 00	 call	 ??5SP2Packet@@QAEAAV0@AAVioHashString@@@Z ; SP2Packet::operator>>

; 573  : 		SetAfterCollisionState( false );

  0003f	6a 00		 push	 0
  00041	8b cf		 mov	 ecx, edi
  00043	e8 00 00 00 00	 call	 ?SetAfterCollisionState@ioGuide2Weapon@@QAEX_N@Z ; ioGuide2Weapon::SetAfterCollisionState
  00048	5e		 pop	 esi
$LN3@ApplyWeapo:
  00049	5f		 pop	 edi

; 578  : 	}
; 579  : }

  0004a	c9		 leave
  0004b	c2 08 00	 ret	 8
?ApplyWeaponSync@ioGuide2Weapon@@UAEXAAVSP2Packet@@PAVioPlayStage@@@Z ENDP ; ioGuide2Weapon::ApplyWeaponSync
_TEXT	ENDS
EXTRN	__imp_?IsLive@ioEffect@@QBE_NXZ:PROC
; Function compile flags: /Ogsp
;	COMDAT ?Process@ioGuide2Weapon@@UAEXMPAVioPlayStage@@@Z
_TEXT	SEGMENT
_fTimePerSec$ = 8					; size = 4
tv210 = 12						; size = 4
tv207 = 12						; size = 4
_pStage$ = 12						; size = 4
?Process@ioGuide2Weapon@@UAEXMPAVioPlayStage@@@Z PROC	; ioGuide2Weapon::Process, COMDAT
; _this$ = ecx

; 182  : {

  00000	55		 push	 ebp
  00001	8b ec		 mov	 ebp, esp
  00003	56		 push	 esi
  00004	8b f1		 mov	 esi, ecx

; 183  : 	if( !CheckPiercing() )

  00006	8b 06		 mov	 eax, DWORD PTR [esi]
  00008	6a 00		 push	 0
  0000a	ff 90 48 01 00
	00		 call	 DWORD PTR [eax+328]
  00010	84 c0		 test	 al, al
  00012	0f 84 d2 00 00
	00		 je	 $LN11@Process

; 184  : 		return;
; 185  : 
; 186  : 	switch( m_WeaponState )

  00018	8b 86 94 08 00
	00		 mov	 eax, DWORD PTR [esi+2196]
  0001e	83 e8 00	 sub	 eax, 0
  00021	f3 0f 10 45 08	 movss	 xmm0, DWORD PTR _fTimePerSec$[ebp]
  00026	74 64		 je	 SHORT $LN7@Process
  00028	48		 dec	 eax
  00029	74 4f		 je	 SHORT $LN6@Process
  0002b	48		 dec	 eax
  0002c	74 3a		 je	 SHORT $LN5@Process
  0002e	48		 dec	 eax
  0002f	75 6b		 jne	 SHORT $LN15@Process

; 197  : 	case WS_END:
; 198  : 		if( !m_pFireMesh || !m_pFireMesh->IsLive() )

  00031	8b 8e 98 08 00
	00		 mov	 ecx, DWORD PTR [esi+2200]
  00037	85 c9		 test	 ecx, ecx
  00039	74 0a		 je	 SHORT $LN2@Process
  0003b	ff 15 00 00 00
	00		 call	 DWORD PTR __imp_?IsLive@ioEffect@@QBE_NXZ
  00041	84 c0		 test	 al, al
  00043	75 57		 jne	 SHORT $LN15@Process
$LN2@Process:

; 199  : 		{
; 200  : 			CheckCreateWeaponList();

  00045	8b 06		 mov	 eax, DWORD PTR [esi]
  00047	8b ce		 mov	 ecx, esi
  00049	ff 90 50 01 00
	00		 call	 DWORD PTR [eax+336]

; 201  : 			DestroyResource( pStage );

  0004f	ff 75 0c	 push	 DWORD PTR _pStage$[ebp]
  00052	8b 06		 mov	 eax, DWORD PTR [esi]
  00054	8b ce		 mov	 ecx, esi
  00056	ff 90 9c 00 00
	00		 call	 DWORD PTR [eax+156]

; 202  : 			SetWeaponDead();

  0005c	8b 06		 mov	 eax, DWORD PTR [esi]
  0005e	8b ce		 mov	 ecx, esi
  00060	ff 50 4c	 call	 DWORD PTR [eax+76]

; 203  : 			return;

  00063	e9 82 00 00 00	 jmp	 $LN11@Process
$LN5@Process:

; 194  : 	case WS_AFTER_COLLISION:
; 195  : 		OnAfterCollision( fTimePerSec, pStage );

  00068	ff 75 0c	 push	 DWORD PTR _pStage$[ebp]
  0006b	51		 push	 ecx
  0006c	8b ce		 mov	 ecx, esi
  0006e	f3 0f 11 04 24	 movss	 DWORD PTR [esp], xmm0
  00073	e8 00 00 00 00	 call	 ?OnAfterCollision@ioGuide2Weapon@@IAEXMPAVioPlayStage@@@Z ; ioGuide2Weapon::OnAfterCollision

; 196  : 		break;

  00078	eb 22		 jmp	 SHORT $LN15@Process
$LN6@Process:

; 190  : 		break;
; 191  : 	case WS_TRACING:
; 192  : 		OnTracing( fTimePerSec, pStage );

  0007a	ff 75 0c	 push	 DWORD PTR _pStage$[ebp]
  0007d	51		 push	 ecx
  0007e	8b ce		 mov	 ecx, esi
  00080	f3 0f 11 04 24	 movss	 DWORD PTR [esp], xmm0
  00085	e8 00 00 00 00	 call	 ?OnTracing@ioGuide2Weapon@@IAEXMPAVioPlayStage@@@Z ; ioGuide2Weapon::OnTracing

; 193  : 		break;

  0008a	eb 10		 jmp	 SHORT $LN15@Process
$LN7@Process:

; 187  : 	{
; 188  : 	case WS_MOVE:
; 189  : 		OnFloating( fTimePerSec, pStage );

  0008c	ff 75 0c	 push	 DWORD PTR _pStage$[ebp]
  0008f	51		 push	 ecx
  00090	8b ce		 mov	 ecx, esi
  00092	f3 0f 11 04 24	 movss	 DWORD PTR [esp], xmm0
  00097	e8 00 00 00 00	 call	 ?OnFloating@ioGuide2Weapon@@IAEXMPAVioPlayStage@@@Z ; ioGuide2Weapon::OnFloating
$LN15@Process:

; 204  : 		}
; 205  : 		break;
; 206  : 	}
; 207  : 
; 208  : 	if( m_pFireMesh )

  0009c	8d 8e 98 08 00
	00		 lea	 ecx, DWORD PTR [esi+2200]
  000a2	83 39 00	 cmp	 DWORD PTR [ecx], 0
  000a5	74 2c		 je	 SHORT $LN1@Process

; 209  : 	{
; 210  : 		m_pFireMesh->Update( fTimePerSec * FLOAT1000 );

  000a7	b8 e8 03 00 00	 mov	 eax, 1000		; 000003e8H
  000ac	8b 09		 mov	 ecx, DWORD PTR [ecx]
  000ae	83 c1 14	 add	 ecx, 20			; 00000014H
  000b1	8b 11		 mov	 edx, DWORD PTR [ecx]
  000b3	89 45 0c	 mov	 DWORD PTR tv210[ebp], eax
  000b6	db 45 0c	 fild	 DWORD PTR tv210[ebp]
  000b9	85 c0		 test	 eax, eax
  000bb	79 06		 jns	 SHORT $LN16@Process
  000bd	d8 05 00 00 00
	00		 fadd	 DWORD PTR __real@4f800000
$LN16@Process:
  000c3	d8 4d 08	 fmul	 DWORD PTR _fTimePerSec$[ebp]
  000c6	51		 push	 ecx
  000c7	d9 5d 0c	 fstp	 DWORD PTR tv207[ebp]
  000ca	d9 45 0c	 fld	 DWORD PTR tv207[ebp]
  000cd	d9 1c 24	 fstp	 DWORD PTR [esp]
  000d0	ff 52 40	 call	 DWORD PTR [edx+64]
$LN1@Process:

; 211  : 	}
; 212  : 
; 213  : 	UpdateWorldAttackBox( fTimePerSec, false );

  000d3	f3 0f 10 45 08	 movss	 xmm0, DWORD PTR _fTimePerSec$[ebp]
  000d8	8b 06		 mov	 eax, DWORD PTR [esi]
  000da	6a 00		 push	 0
  000dc	51		 push	 ecx
  000dd	8b ce		 mov	 ecx, esi
  000df	f3 0f 11 04 24	 movss	 DWORD PTR [esp], xmm0
  000e4	ff 90 38 01 00
	00		 call	 DWORD PTR [eax+312]
$LN11@Process:
  000ea	5e		 pop	 esi

; 214  : }

  000eb	5d		 pop	 ebp
  000ec	c2 08 00	 ret	 8
?Process@ioGuide2Weapon@@UAEXMPAVioPlayStage@@@Z ENDP	; ioGuide2Weapon::Process
_TEXT	ENDS
END
