; Listing generated by Microsoft (R) Optimizing Compiler Version 16.00.30319.01 

	TITLE	D:\Lost Saga For Developer\Youtube\Tutorial\Source\src\LSClient\ioGuildInfo.cpp
	.686P
	.XMM
	include listing.inc
	.model	flat

INCLUDELIB MSVCRT
INCLUDELIB OLDNAMES

PUBLIC	?ms_Singleton@?$Singleton@VioGuildInfo@@@@1PAVioGuildInfo@@A ; Singleton<ioGuildInfo>::ms_Singleton
;	COMDAT ?ms_Singleton@?$Singleton@VioGuildInfo@@@@1PAVioGuildInfo@@A
_BSS	SEGMENT
?ms_Singleton@?$Singleton@VioGuildInfo@@@@1PAVioGuildInfo@@A DD 01H DUP (?) ; Singleton<ioGuildInfo>::ms_Singleton
_BSS	ENDS
PUBLIC	?return1@@YAIXZ					; return1
; Function compile flags: /Ogsp
; File d:\lost saga for developer\youtube\tutorial\source\src\lsclient\stdafx.h
;	COMDAT ?return1@@YAIXZ
_TEXT	SEGMENT
?return1@@YAIXZ PROC					; return1, COMDAT

; 17   : 	__forceinline unsigned int return1() { __asm mov eax, 1 };

  00000	b8 01 00 00 00	 mov	 eax, 1
  00005	c3		 ret	 0
?return1@@YAIXZ ENDP					; return1
_TEXT	ENDS
PUBLIC	?GetMaxReserveMarkIndex@ioGuildMarkMgr@@QAEHXZ	; ioGuildMarkMgr::GetMaxReserveMarkIndex
; Function compile flags: /Ogsp
; File d:\lost saga for developer\youtube\tutorial\source\src\lsclient\ioguildmarkmgr.h
;	COMDAT ?GetMaxReserveMarkIndex@ioGuildMarkMgr@@QAEHXZ
_TEXT	SEGMENT
?GetMaxReserveMarkIndex@ioGuildMarkMgr@@QAEHXZ PROC	; ioGuildMarkMgr::GetMaxReserveMarkIndex, COMDAT
; _this$ = ecx

; 91   : 	int GetMaxReserveMarkIndex(){ return m_iMaxReserveMarkIndex; }

  00000	8b 41 6c	 mov	 eax, DWORD PTR [ecx+108]
  00003	c3		 ret	 0
?GetMaxReserveMarkIndex@ioGuildMarkMgr@@QAEHXZ ENDP	; ioGuildMarkMgr::GetMaxReserveMarkIndex
_TEXT	ENDS
PUBLIC	?GetGuildMarkAppDir@ioGuildMarkMgr@@QAEABVioHashString@@XZ ; ioGuildMarkMgr::GetGuildMarkAppDir
; Function compile flags: /Ogsp
;	COMDAT ?GetGuildMarkAppDir@ioGuildMarkMgr@@QAEABVioHashString@@XZ
_TEXT	SEGMENT
?GetGuildMarkAppDir@ioGuildMarkMgr@@QAEABVioHashString@@XZ PROC ; ioGuildMarkMgr::GetGuildMarkAppDir, COMDAT
; _this$ = ecx

; 93   : 	const ioHashString &GetGuildMarkAppDir(){ return m_szAppDirectory; }

  00000	8d 81 a4 00 00
	00		 lea	 eax, DWORD PTR [ecx+164]
  00006	c3		 ret	 0
?GetGuildMarkAppDir@ioGuildMarkMgr@@QAEABVioHashString@@XZ ENDP ; ioGuildMarkMgr::GetGuildMarkAppDir
_TEXT	ENDS
PUBLIC	?return100@@YAIXZ				; return100
; Function compile flags: /Ogsp
; File d:\lost saga for developer\youtube\tutorial\source\src\lsclient\stdafx.h
;	COMDAT ?return100@@YAIXZ
_TEXT	SEGMENT
?return100@@YAIXZ PROC					; return100, COMDAT

; 25   : 	__forceinline unsigned int return100() { __asm mov eax, 100 };

  00000	b8 64 00 00 00	 mov	 eax, 100		; 00000064H
  00005	c3		 ret	 0
?return100@@YAIXZ ENDP					; return100
_TEXT	ENDS
PUBLIC	?ChangeGuildUserList@LobbyGuildUserListWnd@@SAXXZ ; LobbyGuildUserListWnd::ChangeGuildUserList
EXTRN	?sg_bGuildUserListUpdate@LobbyGuildUserListWnd@@2_NA:BYTE ; LobbyGuildUserListWnd::sg_bGuildUserListUpdate
; Function compile flags: /Ogsp
; File d:\lost saga for developer\youtube\tutorial\source\src\lsclient\gui\userlistwnd.h
;	COMDAT ?ChangeGuildUserList@LobbyGuildUserListWnd@@SAXXZ
_TEXT	SEGMENT
?ChangeGuildUserList@LobbyGuildUserListWnd@@SAXXZ PROC	; LobbyGuildUserListWnd::ChangeGuildUserList, COMDAT

; 428  : 	static void ChangeGuildUserList(){ sg_bGuildUserListUpdate = true; }

  00000	c6 05 00 00 00
	00 01		 mov	 BYTE PTR ?sg_bGuildUserListUpdate@LobbyGuildUserListWnd@@2_NA, 1 ; LobbyGuildUserListWnd::sg_bGuildUserListUpdate
  00007	c3		 ret	 0
?ChangeGuildUserList@LobbyGuildUserListWnd@@SAXXZ ENDP	; LobbyGuildUserListWnd::ChangeGuildUserList
_TEXT	ENDS
PUBLIC	?SetGuildIndex@ioGuildData@@QAEXK@Z		; ioGuildData::SetGuildIndex
; Function compile flags: /Ogsp
; File d:\lost saga for developer\youtube\tutorial\source\src\lsclient\ioguildinfo.cpp
;	COMDAT ?SetGuildIndex@ioGuildData@@QAEXK@Z
_TEXT	SEGMENT
_dwGuildIndex$ = 8					; size = 4
?SetGuildIndex@ioGuildData@@QAEXK@Z PROC		; ioGuildData::SetGuildIndex, COMDAT
; _this$ = ecx

; 40   : {

  00000	55		 push	 ebp
  00001	8b ec		 mov	 ebp, esp

; 41   : 	m_dwGuildIndex = dwGuildIndex;

  00003	8b 45 08	 mov	 eax, DWORD PTR _dwGuildIndex$[ebp]
  00006	89 41 04	 mov	 DWORD PTR [ecx+4], eax

; 42   : }

  00009	5d		 pop	 ebp
  0000a	c2 04 00	 ret	 4
?SetGuildIndex@ioGuildData@@QAEXK@Z ENDP		; ioGuildData::SetGuildIndex
_TEXT	ENDS
PUBLIC	??_C@_0P@NLKFMMCE@?$CFs?1?$CFd_?$CFd_l?4jpg?$AA@ ; `string'
PUBLIC	??_C@_0P@CJCFHMGK@?$CFs?1?$CFd_?$CFd_s?4jpg?$AA@ ; `string'
PUBLIC	__$ArrayPad$
PUBLIC	?SetGuildMark@ioGuildData@@QAEXK@Z		; ioGuildData::SetGuildMark
EXTRN	__imp__DeleteFileA@4:PROC
EXTRN	__imp__sprintf:PROC
EXTRN	__imp_?c_str@ioHashString@@QBEPBDXZ:PROC
EXTRN	?GetSingleton@ioGuildMarkMgr@@SAAAV1@XZ:PROC	; ioGuildMarkMgr::GetSingleton
EXTRN	___security_cookie:DWORD
EXTRN	@__security_check_cookie@4:PROC
EXTRN	_memset:PROC
;	COMDAT ??_C@_0P@NLKFMMCE@?$CFs?1?$CFd_?$CFd_l?4jpg?$AA@
; File d:\lost saga for developer\youtube\tutorial\source\src\lsclient\ioguildmarkmgr.h
CONST	SEGMENT
??_C@_0P@NLKFMMCE@?$CFs?1?$CFd_?$CFd_l?4jpg?$AA@ DB '%s/%d_%d_l.jpg', 00H ; `string'
CONST	ENDS
;	COMDAT ??_C@_0P@CJCFHMGK@?$CFs?1?$CFd_?$CFd_s?4jpg?$AA@
CONST	SEGMENT
??_C@_0P@CJCFHMGK@?$CFs?1?$CFd_?$CFd_s?4jpg?$AA@ DB '%s/%d_%d_s.jpg', 00H ; `string'
; Function compile flags: /Ogsp
; File d:\lost saga for developer\youtube\tutorial\source\src\lsclient\ioguildinfo.cpp
CONST	ENDS
;	COMDAT ?SetGuildMark@ioGuildData@@QAEXK@Z
_TEXT	SEGMENT
_szBuf$507953 = -264					; size = 260
__$ArrayPad$ = -4					; size = 4
_dwGuildMark$ = 8					; size = 4
?SetGuildMark@ioGuildData@@QAEXK@Z PROC			; ioGuildData::SetGuildMark, COMDAT
; _this$ = ecx

; 45   : {

  00000	55		 push	 ebp
  00001	8b ec		 mov	 ebp, esp
  00003	81 ec 08 01 00
	00		 sub	 esp, 264		; 00000108H
  00009	a1 00 00 00 00	 mov	 eax, DWORD PTR ___security_cookie
  0000e	33 c5		 xor	 eax, ebp
  00010	89 45 fc	 mov	 DWORD PTR __$ArrayPad$[ebp], eax
  00013	56		 push	 esi
  00014	8b f1		 mov	 esi, ecx

; 46   : 	if( dwGuildMark > m_dwGuildMark )         // 길드 마크는 변경되면 값이 항상 커진다.

  00016	8b 46 08	 mov	 eax, DWORD PTR [esi+8]
  00019	39 45 08	 cmp	 DWORD PTR _dwGuildMark$[ebp], eax
  0001c	0f 86 b0 00 00
	00		 jbe	 $LN3@SetGuildMa

; 47   : 	{
; 48   : 		if( m_dwGuildMark != 0 )

  00022	85 c0		 test	 eax, eax
  00024	0f 84 a2 00 00
	00		 je	 $LN1@SetGuildMa

; 49   : 		{
; 50   : 			//길드마크가 변경되었다 기존 JPG를 삭제하라!!! 
; 51   : 			if( m_dwGuildMark > (DWORD)g_GuildMarkMgr.GetMaxReserveMarkIndex() )

  0002a	e8 00 00 00 00	 call	 ?GetSingleton@ioGuildMarkMgr@@SAAAV1@XZ ; ioGuildMarkMgr::GetSingleton
  0002f	8b 4e 08	 mov	 ecx, DWORD PTR [esi+8]
  00032	3b 48 6c	 cmp	 ecx, DWORD PTR [eax+108]
  00035	0f 86 91 00 00
	00		 jbe	 $LN1@SetGuildMa

; 52   : 			{
; 53   : 				char szBuf[MAX_PATH] = "";

  0003b	53		 push	 ebx
  0003c	57		 push	 edi
  0003d	68 03 01 00 00	 push	 259			; 00000103H
  00042	8d 85 f9 fe ff
	ff		 lea	 eax, DWORD PTR _szBuf$507953[ebp+1]
  00048	6a 00		 push	 0
  0004a	50		 push	 eax
  0004b	c6 85 f8 fe ff
	ff 00		 mov	 BYTE PTR _szBuf$507953[ebp], 0
  00052	e8 00 00 00 00	 call	 _memset
  00057	83 c4 0c	 add	 esp, 12			; 0000000cH

; 54   : 				// 작은 마크 삭제
; 55   : 				sprintf( szBuf, "%s/%d_%d_s.jpg", g_GuildMarkMgr.GetGuildMarkAppDir().c_str() , m_dwGuildIndex, m_dwGuildMark );

  0005a	e8 00 00 00 00	 call	 ?GetSingleton@ioGuildMarkMgr@@SAAAV1@XZ ; ioGuildMarkMgr::GetSingleton
  0005f	ff 76 08	 push	 DWORD PTR [esi+8]
  00062	8d 88 a4 00 00
	00		 lea	 ecx, DWORD PTR [eax+164]
  00068	ff 76 04	 push	 DWORD PTR [esi+4]
  0006b	ff 15 00 00 00
	00		 call	 DWORD PTR __imp_?c_str@ioHashString@@QBEPBDXZ
  00071	8b 3d 00 00 00
	00		 mov	 edi, DWORD PTR __imp__sprintf
  00077	50		 push	 eax
  00078	8d 85 f8 fe ff
	ff		 lea	 eax, DWORD PTR _szBuf$507953[ebp]
  0007e	68 00 00 00 00	 push	 OFFSET ??_C@_0P@CJCFHMGK@?$CFs?1?$CFd_?$CFd_s?4jpg?$AA@
  00083	50		 push	 eax
  00084	ff d7		 call	 edi

; 56   : 				::DeleteFile( szBuf );

  00086	8b 1d 00 00 00
	00		 mov	 ebx, DWORD PTR __imp__DeleteFileA@4
  0008c	83 c4 14	 add	 esp, 20			; 00000014H
  0008f	8d 85 f8 fe ff
	ff		 lea	 eax, DWORD PTR _szBuf$507953[ebp]
  00095	50		 push	 eax
  00096	ff d3		 call	 ebx

; 57   : 
; 58   : 				// 큰 마크 삭제
; 59   : 				sprintf( szBuf, "%s/%d_%d_l.jpg", g_GuildMarkMgr.GetGuildMarkAppDir().c_str() , m_dwGuildIndex, m_dwGuildMark );

  00098	e8 00 00 00 00	 call	 ?GetSingleton@ioGuildMarkMgr@@SAAAV1@XZ ; ioGuildMarkMgr::GetSingleton
  0009d	ff 76 08	 push	 DWORD PTR [esi+8]
  000a0	8d 88 a4 00 00
	00		 lea	 ecx, DWORD PTR [eax+164]
  000a6	ff 76 04	 push	 DWORD PTR [esi+4]
  000a9	ff 15 00 00 00
	00		 call	 DWORD PTR __imp_?c_str@ioHashString@@QBEPBDXZ
  000af	50		 push	 eax
  000b0	8d 85 f8 fe ff
	ff		 lea	 eax, DWORD PTR _szBuf$507953[ebp]
  000b6	68 00 00 00 00	 push	 OFFSET ??_C@_0P@NLKFMMCE@?$CFs?1?$CFd_?$CFd_l?4jpg?$AA@
  000bb	50		 push	 eax
  000bc	ff d7		 call	 edi
  000be	83 c4 14	 add	 esp, 20			; 00000014H

; 60   : 				::DeleteFile( szBuf );

  000c1	8d 85 f8 fe ff
	ff		 lea	 eax, DWORD PTR _szBuf$507953[ebp]
  000c7	50		 push	 eax
  000c8	ff d3		 call	 ebx
  000ca	5f		 pop	 edi
  000cb	5b		 pop	 ebx
$LN1@SetGuildMa:

; 61   : 			}
; 62   : 		}		
; 63   : 		m_dwGuildMark = dwGuildMark;

  000cc	8b 45 08	 mov	 eax, DWORD PTR _dwGuildMark$[ebp]
  000cf	89 46 08	 mov	 DWORD PTR [esi+8], eax
$LN3@SetGuildMa:

; 64   : 	}	
; 65   : }

  000d2	8b 4d fc	 mov	 ecx, DWORD PTR __$ArrayPad$[ebp]
  000d5	33 cd		 xor	 ecx, ebp
  000d7	5e		 pop	 esi
  000d8	e8 00 00 00 00	 call	 @__security_check_cookie@4
  000dd	c9		 leave
  000de	c2 04 00	 ret	 4
?SetGuildMark@ioGuildData@@QAEXK@Z ENDP			; ioGuildData::SetGuildMark
_TEXT	ENDS
PUBLIC	?SetGuildRank@ioGuildData@@QAEXK@Z		; ioGuildData::SetGuildRank
; Function compile flags: /Ogsp
;	COMDAT ?SetGuildRank@ioGuildData@@QAEXK@Z
_TEXT	SEGMENT
_dwGuildRank$ = 8					; size = 4
?SetGuildRank@ioGuildData@@QAEXK@Z PROC			; ioGuildData::SetGuildRank, COMDAT
; _this$ = ecx

; 68   : {

  00000	55		 push	 ebp
  00001	8b ec		 mov	 ebp, esp

; 69   : 	m_dwGuildRank = dwGuildRank;

  00003	8b 45 08	 mov	 eax, DWORD PTR _dwGuildRank$[ebp]
  00006	89 41 0c	 mov	 DWORD PTR [ecx+12], eax

; 70   : }

  00009	5d		 pop	 ebp
  0000a	c2 04 00	 ret	 4
?SetGuildRank@ioGuildData@@QAEXK@Z ENDP			; ioGuildData::SetGuildRank
_TEXT	ENDS
PUBLIC	?SetGuildLevel@ioGuildData@@QAEXK@Z		; ioGuildData::SetGuildLevel
; Function compile flags: /Ogsp
;	COMDAT ?SetGuildLevel@ioGuildData@@QAEXK@Z
_TEXT	SEGMENT
_dwGuildLevel$ = 8					; size = 4
?SetGuildLevel@ioGuildData@@QAEXK@Z PROC		; ioGuildData::SetGuildLevel, COMDAT
; _this$ = ecx

; 73   : {

  00000	55		 push	 ebp
  00001	8b ec		 mov	 ebp, esp

; 74   : 	m_dwGuildLevel = dwGuildLevel;

  00003	8b 45 08	 mov	 eax, DWORD PTR _dwGuildLevel$[ebp]
  00006	89 41 10	 mov	 DWORD PTR [ecx+16], eax

; 75   : }

  00009	5d		 pop	 ebp
  0000a	c2 04 00	 ret	 4
?SetGuildLevel@ioGuildData@@QAEXK@Z ENDP		; ioGuildData::SetGuildLevel
_TEXT	ENDS
PUBLIC	?SetGuildJoinUser@ioGuildData@@QAEXK@Z		; ioGuildData::SetGuildJoinUser
; Function compile flags: /Ogsp
;	COMDAT ?SetGuildJoinUser@ioGuildData@@QAEXK@Z
_TEXT	SEGMENT
_dwGuildJoinUser$ = 8					; size = 4
?SetGuildJoinUser@ioGuildData@@QAEXK@Z PROC		; ioGuildData::SetGuildJoinUser, COMDAT
; _this$ = ecx

; 78   : {

  00000	55		 push	 ebp
  00001	8b ec		 mov	 ebp, esp

; 79   : 	m_dwGuildJoinUser = dwGuildJoinUser;

  00003	8b 45 08	 mov	 eax, DWORD PTR _dwGuildJoinUser$[ebp]
  00006	89 41 14	 mov	 DWORD PTR [ecx+20], eax

; 80   : 	if( m_dwGuildMaxUser <= m_dwGuildJoinUser )

  00009	39 41 18	 cmp	 DWORD PTR [ecx+24], eax
  0000c	77 03		 ja	 SHORT $LN1@SetGuildJo

; 81   : 		m_dwGuildMaxUser = m_dwGuildJoinUser;

  0000e	89 41 18	 mov	 DWORD PTR [ecx+24], eax
$LN1@SetGuildJo:

; 82   : }

  00011	5d		 pop	 ebp
  00012	c2 04 00	 ret	 4
?SetGuildJoinUser@ioGuildData@@QAEXK@Z ENDP		; ioGuildData::SetGuildJoinUser
_TEXT	ENDS
PUBLIC	?SetGuildMaxUser@ioGuildData@@QAEXK@Z		; ioGuildData::SetGuildMaxUser
; Function compile flags: /Ogsp
;	COMDAT ?SetGuildMaxUser@ioGuildData@@QAEXK@Z
_TEXT	SEGMENT
_dwGuildMaxUser$ = 8					; size = 4
?SetGuildMaxUser@ioGuildData@@QAEXK@Z PROC		; ioGuildData::SetGuildMaxUser, COMDAT
; _this$ = ecx

; 85   : {

  00000	55		 push	 ebp
  00001	8b ec		 mov	 ebp, esp

; 86   : 	if( m_dwGuildMaxUser != dwGuildMaxUser )

  00003	8b 45 08	 mov	 eax, DWORD PTR _dwGuildMaxUser$[ebp]
  00006	39 41 18	 cmp	 DWORD PTR [ecx+24], eax
  00009	74 04		 je	 SHORT $LN1@SetGuildMa@2

; 87   : 		m_bUserListUpdate = true;

  0000b	c6 41 74 01	 mov	 BYTE PTR [ecx+116], 1
$LN1@SetGuildMa@2:

; 88   : 	m_dwGuildMaxUser = dwGuildMaxUser;

  0000f	89 41 18	 mov	 DWORD PTR [ecx+24], eax

; 89   : }

  00012	5d		 pop	 ebp
  00013	c2 04 00	 ret	 4
?SetGuildMaxUser@ioGuildData@@QAEXK@Z ENDP		; ioGuildData::SetGuildMaxUser
_TEXT	ENDS
PUBLIC	?SetGuildPoint@ioGuildData@@QAEXK@Z		; ioGuildData::SetGuildPoint
; Function compile flags: /Ogsp
;	COMDAT ?SetGuildPoint@ioGuildData@@QAEXK@Z
_TEXT	SEGMENT
_dwGuildPoint$ = 8					; size = 4
?SetGuildPoint@ioGuildData@@QAEXK@Z PROC		; ioGuildData::SetGuildPoint, COMDAT
; _this$ = ecx

; 92   : {

  00000	55		 push	 ebp
  00001	8b ec		 mov	 ebp, esp

; 93   : 	m_dwGuildPoint = dwGuildPoint;

  00003	8b 45 08	 mov	 eax, DWORD PTR _dwGuildPoint$[ebp]
  00006	89 41 1c	 mov	 DWORD PTR [ecx+28], eax

; 94   : }

  00009	5d		 pop	 ebp
  0000a	c2 04 00	 ret	 4
?SetGuildPoint@ioGuildData@@QAEXK@Z ENDP		; ioGuildData::SetGuildPoint
_TEXT	ENDS
PUBLIC	?SetGuildCurPoint@ioGuildData@@QAEXK@Z		; ioGuildData::SetGuildCurPoint
; Function compile flags: /Ogsp
;	COMDAT ?SetGuildCurPoint@ioGuildData@@QAEXK@Z
_TEXT	SEGMENT
_dwCurGuildPoint$ = 8					; size = 4
?SetGuildCurPoint@ioGuildData@@QAEXK@Z PROC		; ioGuildData::SetGuildCurPoint, COMDAT
; _this$ = ecx

; 97   : {

  00000	55		 push	 ebp
  00001	8b ec		 mov	 ebp, esp

; 98   : 	m_dwCurGuildPoint = dwCurGuildPoint;

  00003	8b 45 08	 mov	 eax, DWORD PTR _dwCurGuildPoint$[ebp]
  00006	89 41 20	 mov	 DWORD PTR [ecx+32], eax

; 99   : }

  00009	5d		 pop	 ebp
  0000a	c2 04 00	 ret	 4
?SetGuildCurPoint@ioGuildData@@QAEXK@Z ENDP		; ioGuildData::SetGuildCurPoint
_TEXT	ENDS
PUBLIC	?SetGuildRegDate@ioGuildData@@QAEXK@Z		; ioGuildData::SetGuildRegDate
; Function compile flags: /Ogsp
;	COMDAT ?SetGuildRegDate@ioGuildData@@QAEXK@Z
_TEXT	SEGMENT
_dwGuildRegDate$ = 8					; size = 4
?SetGuildRegDate@ioGuildData@@QAEXK@Z PROC		; ioGuildData::SetGuildRegDate, COMDAT
; _this$ = ecx

; 102  : {

  00000	55		 push	 ebp
  00001	8b ec		 mov	 ebp, esp

; 103  : 	m_dwGuildRegDate = dwGuildRegDate;

  00003	8b 45 08	 mov	 eax, DWORD PTR _dwGuildRegDate$[ebp]
  00006	89 41 24	 mov	 DWORD PTR [ecx+36], eax

; 104  : }

  00009	5d		 pop	 ebp
  0000a	c2 04 00	 ret	 4
?SetGuildRegDate@ioGuildData@@QAEXK@Z ENDP		; ioGuildData::SetGuildRegDate
_TEXT	ENDS
PUBLIC	?SetGuildBonus@ioGuildData@@QAEXM@Z		; ioGuildData::SetGuildBonus
EXTRN	__fltused:DWORD
; Function compile flags: /Ogsp
;	COMDAT ?SetGuildBonus@ioGuildData@@QAEXM@Z
_TEXT	SEGMENT
_fGuildBonus$ = 8					; size = 4
?SetGuildBonus@ioGuildData@@QAEXM@Z PROC		; ioGuildData::SetGuildBonus, COMDAT
; _this$ = ecx

; 107  : {

  00000	55		 push	 ebp
  00001	8b ec		 mov	 ebp, esp

; 108  : 	m_fGuildBonus = fGuildBonus;

  00003	f3 0f 10 45 08	 movss	 xmm0, DWORD PTR _fGuildBonus$[ebp]
  00008	f3 0f 11 41 28	 movss	 DWORD PTR [ecx+40], xmm0

; 109  : }

  0000d	5d		 pop	 ebp
  0000e	c2 04 00	 ret	 4
?SetGuildBonus@ioGuildData@@QAEXM@Z ENDP		; ioGuildData::SetGuildBonus
_TEXT	ENDS
PUBLIC	?SetGuildName@ioGuildData@@QAEXABVioHashString@@@Z ; ioGuildData::SetGuildName
EXTRN	__imp_??4ioHashString@@QAEAAV0@ABV0@@Z:PROC
; Function compile flags: /Ogsp
;	COMDAT ?SetGuildName@ioGuildData@@QAEXABVioHashString@@@Z
_TEXT	SEGMENT
_szGuildName$ = 8					; size = 4
?SetGuildName@ioGuildData@@QAEXABVioHashString@@@Z PROC	; ioGuildData::SetGuildName, COMDAT
; _this$ = ecx

; 112  : {

  00000	55		 push	 ebp
  00001	8b ec		 mov	 ebp, esp

; 113  : 	m_szGuildName = szGuildName;

  00003	83 c1 2c	 add	 ecx, 44			; 0000002cH

; 114  : }

  00006	5d		 pop	 ebp

; 113  : 	m_szGuildName = szGuildName;

  00007	ff 25 00 00 00
	00		 jmp	 DWORD PTR __imp_??4ioHashString@@QAEAAV0@ABV0@@Z
?SetGuildName@ioGuildData@@QAEXABVioHashString@@@Z ENDP	; ioGuildData::SetGuildName
_TEXT	ENDS
PUBLIC	?SetGuildTitle@ioGuildData@@QAEXABVioHashString@@@Z ; ioGuildData::SetGuildTitle
; Function compile flags: /Ogsp
;	COMDAT ?SetGuildTitle@ioGuildData@@QAEXABVioHashString@@@Z
_TEXT	SEGMENT
_szGuildTitle$ = 8					; size = 4
?SetGuildTitle@ioGuildData@@QAEXABVioHashString@@@Z PROC ; ioGuildData::SetGuildTitle, COMDAT
; _this$ = ecx

; 117  : {

  00000	55		 push	 ebp
  00001	8b ec		 mov	 ebp, esp

; 118  : 	m_szGuildTitle = szGuildTitle;

  00003	83 c1 3c	 add	 ecx, 60			; 0000003cH

; 119  : }

  00006	5d		 pop	 ebp

; 118  : 	m_szGuildTitle = szGuildTitle;

  00007	ff 25 00 00 00
	00		 jmp	 DWORD PTR __imp_??4ioHashString@@QAEAAV0@ABV0@@Z
?SetGuildTitle@ioGuildData@@QAEXABVioHashString@@@Z ENDP ; ioGuildData::SetGuildTitle
_TEXT	ENDS
PUBLIC	?SetGuildRoomOpen@ioGuildData@@QAEXH@Z		; ioGuildData::SetGuildRoomOpen
; Function compile flags: /Ogsp
;	COMDAT ?SetGuildRoomOpen@ioGuildData@@QAEXH@Z
_TEXT	SEGMENT
_bGuildRoomOpen$ = 8					; size = 4
?SetGuildRoomOpen@ioGuildData@@QAEXH@Z PROC		; ioGuildData::SetGuildRoomOpen, COMDAT
; _this$ = ecx

; 122  : {

  00000	55		 push	 ebp
  00001	8b ec		 mov	 ebp, esp

; 123  : 	m_bGuildRoomOpen = bGuildRoomOpen;

  00003	8b 45 08	 mov	 eax, DWORD PTR _bGuildRoomOpen$[ebp]
  00006	89 41 54	 mov	 DWORD PTR [ecx+84], eax

; 124  : }

  00009	5d		 pop	 ebp
  0000a	c2 04 00	 ret	 4
?SetGuildRoomOpen@ioGuildData@@QAEXH@Z ENDP		; ioGuildData::SetGuildRoomOpen
_TEXT	ENDS
PUBLIC	??1GuildUser@ioGuildData@@QAE@XZ		; ioGuildData::GuildUser::~GuildUser
EXTRN	__imp_??1ioHashString@@QAE@XZ:PROC
EXTRN	___CxxFrameHandler3:PROC
EXTRN	__EH_epilog3:PROC
EXTRN	__EH_prolog3:PROC
;	COMDAT xdata$x
xdata$x	SEGMENT
__unwindtable$??1GuildUser@ioGuildData@@QAE@XZ DD 0ffffffffH
	DD	FLAT:__unwindfunclet$??1GuildUser@ioGuildData@@QAE@XZ$0
__ehfuncinfo$??1GuildUser@ioGuildData@@QAE@XZ DD 019930522H
	DD	01H
	DD	FLAT:__unwindtable$??1GuildUser@ioGuildData@@QAE@XZ
	DD	2 DUP(00H)
	DD	2 DUP(00H)
	DD	00H
	DD	01H
; Function compile flags: /Ogsp
xdata$x	ENDS
;	COMDAT ??1GuildUser@ioGuildData@@QAE@XZ
_TEXT	SEGMENT
_this$ = -16						; size = 4
__$EHRec$ = -12						; size = 12
??1GuildUser@ioGuildData@@QAE@XZ PROC			; ioGuildData::GuildUser::~GuildUser, COMDAT
; _this$ = ecx
  00000	6a 04		 push	 4
  00002	b8 00 00 00 00	 mov	 eax, __ehhandler$??1GuildUser@ioGuildData@@QAE@XZ
  00007	e8 00 00 00 00	 call	 __EH_prolog3
  0000c	8b f9		 mov	 edi, ecx
  0000e	89 7d f0	 mov	 DWORD PTR _this$[ebp], edi
  00011	8b 35 00 00 00
	00		 mov	 esi, DWORD PTR __imp_??1ioHashString@@QAE@XZ
  00017	83 65 fc 00	 and	 DWORD PTR __$EHRec$[ebp+8], 0
  0001b	8d 4f 24	 lea	 ecx, DWORD PTR [edi+36]
  0001e	ff d6		 call	 esi
  00020	83 4d fc ff	 or	 DWORD PTR __$EHRec$[ebp+8], -1
  00024	8d 4f 14	 lea	 ecx, DWORD PTR [edi+20]
  00027	ff d6		 call	 esi
  00029	e8 00 00 00 00	 call	 __EH_epilog3
  0002e	c3		 ret	 0
_TEXT	ENDS
;	COMDAT text$x
text$x	SEGMENT
__unwindfunclet$??1GuildUser@ioGuildData@@QAE@XZ$0:
  00000	8b 4d f0	 mov	 ecx, DWORD PTR _this$[ebp]
  00003	83 c1 14	 add	 ecx, 20			; 00000014H
  00006	ff 25 00 00 00
	00		 jmp	 DWORD PTR __imp_??1ioHashString@@QAE@XZ
__ehhandler$??1GuildUser@ioGuildData@@QAE@XZ:
  0000c	8b 54 24 08	 mov	 edx, DWORD PTR [esp+8]
  00010	8d 42 0c	 lea	 eax, DWORD PTR [edx+12]
  00013	8b 4a ec	 mov	 ecx, DWORD PTR [edx-20]
  00016	33 c8		 xor	 ecx, eax
  00018	e8 00 00 00 00	 call	 @__security_check_cookie@4
  0001d	b8 00 00 00 00	 mov	 eax, OFFSET __ehfuncinfo$??1GuildUser@ioGuildData@@QAE@XZ
  00022	e9 00 00 00 00	 jmp	 ___CxxFrameHandler3
text$x	ENDS
??1GuildUser@ioGuildData@@QAE@XZ ENDP			; ioGuildData::GuildUser::~GuildUser
PUBLIC	__$ArrayPad$
PUBLIC	?ProcessTitleSync@ioGuildData@@QAEXXZ		; ioGuildData::ProcessTitleSync
EXTRN	??1SP2Packet@@UAE@XZ:PROC			; SP2Packet::~SP2Packet
EXTRN	?SendToServer@TCPNetwork@@YAXAAVSP2Packet@@@Z:PROC ; TCPNetwork::SendToServer
EXTRN	??6SP2Packet@@QAEAAV0@K@Z:PROC			; SP2Packet::operator<<
EXTRN	??0SP2Packet@@QAE@K@Z:PROC			; SP2Packet::SP2Packet
EXTRN	__imp_?GetLoopSec@ioFrameTimer@@QBEKXZ:PROC
EXTRN	__imp_?GetSingleton@ioFrameTimer@@SAAAV1@XZ:PROC
EXTRN	__chkstk:PROC
;	COMDAT xdata$x
xdata$x	SEGMENT
__unwindtable$?ProcessTitleSync@ioGuildData@@QAEXXZ DD 0ffffffffH
	DD	FLAT:__unwindfunclet$?ProcessTitleSync@ioGuildData@@QAEXXZ$0
__ehfuncinfo$?ProcessTitleSync@ioGuildData@@QAEXXZ DD 019930522H
	DD	01H
	DD	FLAT:__unwindtable$?ProcessTitleSync@ioGuildData@@QAEXXZ
	DD	2 DUP(00H)
	DD	2 DUP(00H)
	DD	00H
	DD	01H
; Function compile flags: /Ogsp
xdata$x	ENDS
;	COMDAT ?ProcessTitleSync@ioGuildData@@QAEXXZ
_TEXT	SEGMENT
_kPacket$508263 = -32808				; size = 32792
__$ArrayPad$ = -16					; size = 4
__$EHRec$ = -12						; size = 12
?ProcessTitleSync@ioGuildData@@QAEXXZ PROC		; ioGuildData::ProcessTitleSync, COMDAT
; _this$ = ecx

; 317  : {

  00000	55		 push	 ebp
  00001	8b ec		 mov	 ebp, esp
  00003	6a ff		 push	 -1
  00005	68 00 00 00 00	 push	 __ehhandler$?ProcessTitleSync@ioGuildData@@QAEXXZ
  0000a	64 a1 00 00 00
	00		 mov	 eax, DWORD PTR fs:0
  00010	50		 push	 eax
  00011	b8 1c 80 00 00	 mov	 eax, 32796		; 0000801cH
  00016	e8 00 00 00 00	 call	 __chkstk
  0001b	a1 00 00 00 00	 mov	 eax, DWORD PTR ___security_cookie
  00020	33 c5		 xor	 eax, ebp
  00022	89 45 f0	 mov	 DWORD PTR __$ArrayPad$[ebp], eax
  00025	56		 push	 esi
  00026	57		 push	 edi
  00027	50		 push	 eax
  00028	8d 45 f4	 lea	 eax, DWORD PTR __$EHRec$[ebp]
  0002b	64 a3 00 00 00
	00		 mov	 DWORD PTR fs:0, eax

; 318  : 	if( m_dwSyncTitleTime == 0 || 
; 319  : 		FRAMEGETTIME() - m_dwSyncTitleTime > 300000 )    //5분에 한번만 동기화

  00031	8b 3d 00 00 00
	00		 mov	 edi, DWORD PTR __imp_?GetSingleton@ioFrameTimer@@SAAAV1@XZ
  00037	8b f1		 mov	 esi, ecx
  00039	83 7e 6c 00	 cmp	 DWORD PTR [esi+108], 0
  0003d	74 14		 je	 SHORT $LN1@ProcessTit
  0003f	ff d7		 call	 edi
  00041	8b c8		 mov	 ecx, eax
  00043	ff 15 00 00 00
	00		 call	 DWORD PTR __imp_?GetLoopSec@ioFrameTimer@@QBEKXZ
  00049	2b 46 6c	 sub	 eax, DWORD PTR [esi+108]
  0004c	3d e0 93 04 00	 cmp	 eax, 300000		; 000493e0H
  00051	76 4b		 jbe	 SHORT $LN2@ProcessTit
$LN1@ProcessTit:

; 320  : 	{
; 321  : 		m_dwSyncTitleTime = FRAMEGETTIME();

  00053	ff d7		 call	 edi
  00055	8b c8		 mov	 ecx, eax
  00057	ff 15 00 00 00
	00		 call	 DWORD PTR __imp_?GetLoopSec@ioFrameTimer@@QBEKXZ

; 322  : 		SP2Packet kPacket( CTPK_GUILD_TITLE_SYNC );

  0005d	68 62 01 00 00	 push	 354			; 00000162H
  00062	8d 8d d8 7f ff
	ff		 lea	 ecx, DWORD PTR _kPacket$508263[ebp]
  00068	89 46 6c	 mov	 DWORD PTR [esi+108], eax
  0006b	e8 00 00 00 00	 call	 ??0SP2Packet@@QAE@K@Z	; SP2Packet::SP2Packet

; 323  : 		kPacket << m_dwGuildIndex;

  00070	ff 76 04	 push	 DWORD PTR [esi+4]
  00073	83 65 fc 00	 and	 DWORD PTR __$EHRec$[ebp+8], 0
  00077	8d 8d d8 7f ff
	ff		 lea	 ecx, DWORD PTR _kPacket$508263[ebp]
  0007d	e8 00 00 00 00	 call	 ??6SP2Packet@@QAEAAV0@K@Z ; SP2Packet::operator<<

; 324  : 		TCPNetwork::SendToServer( kPacket );

  00082	8d 85 d8 7f ff
	ff		 lea	 eax, DWORD PTR _kPacket$508263[ebp]
  00088	50		 push	 eax
  00089	e8 00 00 00 00	 call	 ?SendToServer@TCPNetwork@@YAXAAVSP2Packet@@@Z ; TCPNetwork::SendToServer

; 325  : 	}

  0008e	83 4d fc ff	 or	 DWORD PTR __$EHRec$[ebp+8], -1
  00092	59		 pop	 ecx
  00093	8d 8d d8 7f ff
	ff		 lea	 ecx, DWORD PTR _kPacket$508263[ebp]
  00099	e8 00 00 00 00	 call	 ??1SP2Packet@@UAE@XZ	; SP2Packet::~SP2Packet
$LN2@ProcessTit:

; 326  : }

  0009e	8b 4d f4	 mov	 ecx, DWORD PTR __$EHRec$[ebp]
  000a1	64 89 0d 00 00
	00 00		 mov	 DWORD PTR fs:0, ecx
  000a8	59		 pop	 ecx
  000a9	5f		 pop	 edi
  000aa	5e		 pop	 esi
  000ab	8b 4d f0	 mov	 ecx, DWORD PTR __$ArrayPad$[ebp]
  000ae	33 cd		 xor	 ecx, ebp
  000b0	e8 00 00 00 00	 call	 @__security_check_cookie@4
  000b5	c9		 leave
  000b6	c3		 ret	 0
_TEXT	ENDS
;	COMDAT text$x
text$x	SEGMENT
__unwindfunclet$?ProcessTitleSync@ioGuildData@@QAEXXZ$0:
  00000	8d 8d d8 7f ff
	ff		 lea	 ecx, DWORD PTR _kPacket$508263[ebp]
  00006	e9 00 00 00 00	 jmp	 ??1SP2Packet@@UAE@XZ	; SP2Packet::~SP2Packet
__ehhandler$?ProcessTitleSync@ioGuildData@@QAEXXZ:
  0000b	8b 54 24 08	 mov	 edx, DWORD PTR [esp+8]
  0000f	8d 42 0c	 lea	 eax, DWORD PTR [edx+12]
  00012	8b 8a d8 7f ff
	ff		 mov	 ecx, DWORD PTR [edx-32808]
  00018	33 c8		 xor	 ecx, eax
  0001a	e8 00 00 00 00	 call	 @__security_check_cookie@4
  0001f	8b 4a fc	 mov	 ecx, DWORD PTR [edx-4]
  00022	33 c8		 xor	 ecx, eax
  00024	e8 00 00 00 00	 call	 @__security_check_cookie@4
  00029	b8 00 00 00 00	 mov	 eax, OFFSET __ehfuncinfo$?ProcessTitleSync@ioGuildData@@QAEXXZ
  0002e	e9 00 00 00 00	 jmp	 ___CxxFrameHandler3
text$x	ENDS
?ProcessTitleSync@ioGuildData@@QAEXXZ ENDP		; ioGuildData::ProcessTitleSync
PUBLIC	__$ArrayPad$
PUBLIC	?ProcessUserListSync@ioGuildData@@QAEXXZ	; ioGuildData::ProcessUserListSync
;	COMDAT xdata$x
xdata$x	SEGMENT
__unwindtable$?ProcessUserListSync@ioGuildData@@QAEXXZ DD 0ffffffffH
	DD	FLAT:__unwindfunclet$?ProcessUserListSync@ioGuildData@@QAEXXZ$0
__ehfuncinfo$?ProcessUserListSync@ioGuildData@@QAEXXZ DD 019930522H
	DD	01H
	DD	FLAT:__unwindtable$?ProcessUserListSync@ioGuildData@@QAEXXZ
	DD	2 DUP(00H)
	DD	2 DUP(00H)
	DD	00H
	DD	01H
; Function compile flags: /Ogsp
xdata$x	ENDS
;	COMDAT ?ProcessUserListSync@ioGuildData@@QAEXXZ
_TEXT	SEGMENT
_kPacket$508269 = -32808				; size = 32792
__$ArrayPad$ = -16					; size = 4
__$EHRec$ = -12						; size = 12
?ProcessUserListSync@ioGuildData@@QAEXXZ PROC		; ioGuildData::ProcessUserListSync, COMDAT
; _this$ = ecx

; 329  : {

  00000	55		 push	 ebp
  00001	8b ec		 mov	 ebp, esp
  00003	6a ff		 push	 -1
  00005	68 00 00 00 00	 push	 __ehhandler$?ProcessUserListSync@ioGuildData@@QAEXXZ
  0000a	64 a1 00 00 00
	00		 mov	 eax, DWORD PTR fs:0
  00010	50		 push	 eax
  00011	b8 1c 80 00 00	 mov	 eax, 32796		; 0000801cH
  00016	e8 00 00 00 00	 call	 __chkstk
  0001b	a1 00 00 00 00	 mov	 eax, DWORD PTR ___security_cookie
  00020	33 c5		 xor	 eax, ebp
  00022	89 45 f0	 mov	 DWORD PTR __$ArrayPad$[ebp], eax
  00025	56		 push	 esi
  00026	57		 push	 edi
  00027	50		 push	 eax
  00028	8d 45 f4	 lea	 eax, DWORD PTR __$EHRec$[ebp]
  0002b	64 a3 00 00 00
	00		 mov	 DWORD PTR fs:0, eax

; 330  : 	if( m_dwSyncUserListTime == 0 ||
; 331  : 		FRAMEGETTIME() - m_dwSyncUserListTime > 300000 )    //5분에 한번만 동기화

  00031	8b 3d 00 00 00
	00		 mov	 edi, DWORD PTR __imp_?GetSingleton@ioFrameTimer@@SAAAV1@XZ
  00037	8b f1		 mov	 esi, ecx
  00039	83 7e 70 00	 cmp	 DWORD PTR [esi+112], 0
  0003d	74 14		 je	 SHORT $LN1@ProcessUse
  0003f	ff d7		 call	 edi
  00041	8b c8		 mov	 ecx, eax
  00043	ff 15 00 00 00
	00		 call	 DWORD PTR __imp_?GetLoopSec@ioFrameTimer@@QBEKXZ
  00049	2b 46 70	 sub	 eax, DWORD PTR [esi+112]
  0004c	3d e0 93 04 00	 cmp	 eax, 300000		; 000493e0H
  00051	76 55		 jbe	 SHORT $LN2@ProcessUse
$LN1@ProcessUse:

; 332  : 	{
; 333  : 		m_dwSyncUserListTime = FRAMEGETTIME();

  00053	ff d7		 call	 edi
  00055	8b c8		 mov	 ecx, eax
  00057	ff 15 00 00 00
	00		 call	 DWORD PTR __imp_?GetLoopSec@ioFrameTimer@@QBEKXZ

; 334  : 		SP2Packet kPacket( CTPK_GUILD_USER_LIST );

  0005d	68 71 01 00 00	 push	 369			; 00000171H
  00062	8d 8d d8 7f ff
	ff		 lea	 ecx, DWORD PTR _kPacket$508269[ebp]
  00068	89 46 70	 mov	 DWORD PTR [esi+112], eax
  0006b	e8 00 00 00 00	 call	 ??0SP2Packet@@QAE@K@Z	; SP2Packet::SP2Packet

; 335  : 		kPacket << m_dwGuildIndex << m_dwGuildJoinUser;

  00070	ff 76 14	 push	 DWORD PTR [esi+20]
  00073	83 65 fc 00	 and	 DWORD PTR __$EHRec$[ebp+8], 0
  00077	ff 76 04	 push	 DWORD PTR [esi+4]
  0007a	8d 8d d8 7f ff
	ff		 lea	 ecx, DWORD PTR _kPacket$508269[ebp]
  00080	e8 00 00 00 00	 call	 ??6SP2Packet@@QAEAAV0@K@Z ; SP2Packet::operator<<
  00085	8b c8		 mov	 ecx, eax
  00087	e8 00 00 00 00	 call	 ??6SP2Packet@@QAEAAV0@K@Z ; SP2Packet::operator<<

; 336  : 		TCPNetwork::SendToServer( kPacket );

  0008c	8d 85 d8 7f ff
	ff		 lea	 eax, DWORD PTR _kPacket$508269[ebp]
  00092	50		 push	 eax
  00093	e8 00 00 00 00	 call	 ?SendToServer@TCPNetwork@@YAXAAVSP2Packet@@@Z ; TCPNetwork::SendToServer

; 337  : 	}

  00098	83 4d fc ff	 or	 DWORD PTR __$EHRec$[ebp+8], -1
  0009c	59		 pop	 ecx
  0009d	8d 8d d8 7f ff
	ff		 lea	 ecx, DWORD PTR _kPacket$508269[ebp]
  000a3	e8 00 00 00 00	 call	 ??1SP2Packet@@UAE@XZ	; SP2Packet::~SP2Packet
$LN2@ProcessUse:

; 338  : }

  000a8	8b 4d f4	 mov	 ecx, DWORD PTR __$EHRec$[ebp]
  000ab	64 89 0d 00 00
	00 00		 mov	 DWORD PTR fs:0, ecx
  000b2	59		 pop	 ecx
  000b3	5f		 pop	 edi
  000b4	5e		 pop	 esi
  000b5	8b 4d f0	 mov	 ecx, DWORD PTR __$ArrayPad$[ebp]
  000b8	33 cd		 xor	 ecx, ebp
  000ba	e8 00 00 00 00	 call	 @__security_check_cookie@4
  000bf	c9		 leave
  000c0	c3		 ret	 0
_TEXT	ENDS
;	COMDAT text$x
text$x	SEGMENT
__unwindfunclet$?ProcessUserListSync@ioGuildData@@QAEXXZ$0:
  00000	8d 8d d8 7f ff
	ff		 lea	 ecx, DWORD PTR _kPacket$508269[ebp]
  00006	e9 00 00 00 00	 jmp	 ??1SP2Packet@@UAE@XZ	; SP2Packet::~SP2Packet
__ehhandler$?ProcessUserListSync@ioGuildData@@QAEXXZ:
  0000b	8b 54 24 08	 mov	 edx, DWORD PTR [esp+8]
  0000f	8d 42 0c	 lea	 eax, DWORD PTR [edx+12]
  00012	8b 8a d8 7f ff
	ff		 mov	 ecx, DWORD PTR [edx-32808]
  00018	33 c8		 xor	 ecx, eax
  0001a	e8 00 00 00 00	 call	 @__security_check_cookie@4
  0001f	8b 4a fc	 mov	 ecx, DWORD PTR [edx-4]
  00022	33 c8		 xor	 ecx, eax
  00024	e8 00 00 00 00	 call	 @__security_check_cookie@4
  00029	b8 00 00 00 00	 mov	 eax, OFFSET __ehfuncinfo$?ProcessUserListSync@ioGuildData@@QAEXXZ
  0002e	e9 00 00 00 00	 jmp	 ___CxxFrameHandler3
text$x	ENDS
?ProcessUserListSync@ioGuildData@@QAEXXZ ENDP		; ioGuildData::ProcessUserListSync
PUBLIC	?IsUserListUpdate@ioGuildData@@QAE_NXZ		; ioGuildData::IsUserListUpdate
; Function compile flags: /Ogsp
;	COMDAT ?IsUserListUpdate@ioGuildData@@QAE_NXZ
_TEXT	SEGMENT
?IsUserListUpdate@ioGuildData@@QAE_NXZ PROC		; ioGuildData::IsUserListUpdate, COMDAT
; _this$ = ecx

; 342  : 	bool bReturn = m_bUserListUpdate;

  00000	8a 41 74	 mov	 al, BYTE PTR [ecx+116]

; 343  : 	m_bUserListUpdate = false;

  00003	c6 41 74 00	 mov	 BYTE PTR [ecx+116], 0

; 344  : 	return bReturn;
; 345  : }

  00007	c3		 ret	 0
?IsUserListUpdate@ioGuildData@@QAE_NXZ ENDP		; ioGuildData::IsUserListUpdate
_TEXT	ENDS
PUBLIC	??_7bad_alloc@std@@6B@				; std::bad_alloc::`vftable'
PUBLIC	??0bad_alloc@std@@QAE@PBD@Z			; std::bad_alloc::bad_alloc
PUBLIC	??_R4bad_alloc@std@@6B@				; std::bad_alloc::`RTTI Complete Object Locator'
PUBLIC	??_R0?AVbad_alloc@std@@@8			; std::bad_alloc `RTTI Type Descriptor'
PUBLIC	??_R3bad_alloc@std@@8				; std::bad_alloc::`RTTI Class Hierarchy Descriptor'
PUBLIC	??_R2bad_alloc@std@@8				; std::bad_alloc::`RTTI Base Class Array'
PUBLIC	??_R1A@?0A@EA@bad_alloc@std@@8			; std::bad_alloc::`RTTI Base Class Descriptor at (0,-1,0,64)'
PUBLIC	??_R1A@?0A@EA@exception@std@@8			; std::exception::`RTTI Base Class Descriptor at (0,-1,0,64)'
PUBLIC	??_R0?AVexception@std@@@8			; std::exception `RTTI Type Descriptor'
PUBLIC	??_R3exception@std@@8				; std::exception::`RTTI Class Hierarchy Descriptor'
PUBLIC	??_R2exception@std@@8				; std::exception::`RTTI Base Class Array'
EXTRN	__imp_??0exception@std@@QAE@ABQBD@Z:PROC
EXTRN	??_7type_info@@6B@:QWORD			; type_info::`vftable'
EXTRN	??_Ebad_alloc@std@@UAEPAXI@Z:PROC		; std::bad_alloc::`vector deleting destructor'
EXTRN	?what@exception@std@@UBEPBDXZ:PROC		; std::exception::what
;	COMDAT ??_R2exception@std@@8
; File c:\program files (x86)\microsoft visual studio 10.0\vc\include\exception
rdata$r	SEGMENT
??_R2exception@std@@8 DD FLAT:??_R1A@?0A@EA@exception@std@@8 ; std::exception::`RTTI Base Class Array'
rdata$r	ENDS
;	COMDAT ??_R3exception@std@@8
rdata$r	SEGMENT
??_R3exception@std@@8 DD 00H				; std::exception::`RTTI Class Hierarchy Descriptor'
	DD	00H
	DD	01H
	DD	FLAT:??_R2exception@std@@8
rdata$r	ENDS
;	COMDAT ??_R0?AVexception@std@@@8
_DATA	SEGMENT
??_R0?AVexception@std@@@8 DD FLAT:??_7type_info@@6B@	; std::exception `RTTI Type Descriptor'
	DD	00H
	DB	'.?AVexception@std@@', 00H
_DATA	ENDS
;	COMDAT ??_R1A@?0A@EA@exception@std@@8
rdata$r	SEGMENT
??_R1A@?0A@EA@exception@std@@8 DD FLAT:??_R0?AVexception@std@@@8 ; std::exception::`RTTI Base Class Descriptor at (0,-1,0,64)'
	DD	00H
	DD	00H
	DD	0ffffffffH
	DD	00H
	DD	040H
	DD	FLAT:??_R3exception@std@@8
rdata$r	ENDS
;	COMDAT ??_R1A@?0A@EA@bad_alloc@std@@8
rdata$r	SEGMENT
??_R1A@?0A@EA@bad_alloc@std@@8 DD FLAT:??_R0?AVbad_alloc@std@@@8 ; std::bad_alloc::`RTTI Base Class Descriptor at (0,-1,0,64)'
	DD	01H
	DD	00H
	DD	0ffffffffH
	DD	00H
	DD	040H
	DD	FLAT:??_R3bad_alloc@std@@8
rdata$r	ENDS
;	COMDAT ??_R2bad_alloc@std@@8
rdata$r	SEGMENT
??_R2bad_alloc@std@@8 DD FLAT:??_R1A@?0A@EA@bad_alloc@std@@8 ; std::bad_alloc::`RTTI Base Class Array'
	DD	FLAT:??_R1A@?0A@EA@exception@std@@8
rdata$r	ENDS
;	COMDAT ??_R3bad_alloc@std@@8
rdata$r	SEGMENT
??_R3bad_alloc@std@@8 DD 00H				; std::bad_alloc::`RTTI Class Hierarchy Descriptor'
	DD	00H
	DD	02H
	DD	FLAT:??_R2bad_alloc@std@@8
rdata$r	ENDS
;	COMDAT ??_R0?AVbad_alloc@std@@@8
_DATA	SEGMENT
??_R0?AVbad_alloc@std@@@8 DD FLAT:??_7type_info@@6B@	; std::bad_alloc `RTTI Type Descriptor'
	DD	00H
	DB	'.?AVbad_alloc@std@@', 00H
_DATA	ENDS
;	COMDAT ??_R4bad_alloc@std@@6B@
rdata$r	SEGMENT
??_R4bad_alloc@std@@6B@ DD 00H				; std::bad_alloc::`RTTI Complete Object Locator'
	DD	00H
	DD	00H
	DD	FLAT:??_R0?AVbad_alloc@std@@@8
	DD	FLAT:??_R3bad_alloc@std@@8
rdata$r	ENDS
;	COMDAT ??_7bad_alloc@std@@6B@
CONST	SEGMENT
??_7bad_alloc@std@@6B@ DD FLAT:??_R4bad_alloc@std@@6B@	; std::bad_alloc::`vftable'
	DD	FLAT:??_Ebad_alloc@std@@UAEPAXI@Z
	DD	FLAT:?what@exception@std@@UBEPBDXZ
; Function compile flags: /Ogsp
CONST	ENDS
;	COMDAT ??0bad_alloc@std@@QAE@PBD@Z
_TEXT	SEGMENT
__Message$ = 8						; size = 4
??0bad_alloc@std@@QAE@PBD@Z PROC			; std::bad_alloc::bad_alloc, COMDAT
; _this$ = ecx

; 345  : 		{	// construct from message string

  00000	55		 push	 ebp
  00001	8b ec		 mov	 ebp, esp
  00003	56		 push	 esi
  00004	8d 45 08	 lea	 eax, DWORD PTR __Message$[ebp]
  00007	50		 push	 eax
  00008	8b f1		 mov	 esi, ecx
  0000a	ff 15 00 00 00
	00		 call	 DWORD PTR __imp_??0exception@std@@QAE@ABQBD@Z
  00010	c7 06 00 00 00
	00		 mov	 DWORD PTR [esi], OFFSET ??_7bad_alloc@std@@6B@

; 346  : 		}

  00016	8b c6		 mov	 eax, esi
  00018	5e		 pop	 esi
  00019	5d		 pop	 ebp
  0001a	c2 04 00	 ret	 4
??0bad_alloc@std@@QAE@PBD@Z ENDP			; std::bad_alloc::bad_alloc
_TEXT	ENDS
PUBLIC	??1bad_alloc@std@@UAE@XZ			; std::bad_alloc::~bad_alloc
EXTRN	__imp_??1exception@std@@UAE@XZ:PROC
; Function compile flags: /Ogsp
;	COMDAT ??1bad_alloc@std@@UAE@XZ
_TEXT	SEGMENT
??1bad_alloc@std@@UAE@XZ PROC				; std::bad_alloc::~bad_alloc, COMDAT
; _this$ = ecx

; 354  : 		{	// destroy the object

  00000	c7 01 00 00 00
	00		 mov	 DWORD PTR [ecx], OFFSET ??_7bad_alloc@std@@6B@

; 355  : 		}

  00006	ff 25 00 00 00
	00		 jmp	 DWORD PTR __imp_??1exception@std@@UAE@XZ
??1bad_alloc@std@@UAE@XZ ENDP				; std::bad_alloc::~bad_alloc
_TEXT	ENDS
EXTRN	??3@YAXPAX@Z:PROC				; operator delete
; Function compile flags: /Ogsp
;	COMDAT ??_Gbad_alloc@std@@UAEPAXI@Z
_TEXT	SEGMENT
___flags$ = 8						; size = 4
??_Gbad_alloc@std@@UAEPAXI@Z PROC			; std::bad_alloc::`scalar deleting destructor', COMDAT
; _this$ = ecx
  00000	55		 push	 ebp
  00001	8b ec		 mov	 ebp, esp
  00003	56		 push	 esi
  00004	8b f1		 mov	 esi, ecx
  00006	c7 06 00 00 00
	00		 mov	 DWORD PTR [esi], OFFSET ??_7bad_alloc@std@@6B@
  0000c	ff 15 00 00 00
	00		 call	 DWORD PTR __imp_??1exception@std@@UAE@XZ
  00012	f6 45 08 01	 test	 BYTE PTR ___flags$[ebp], 1
  00016	74 07		 je	 SHORT $LN1@scalar
  00018	56		 push	 esi
  00019	e8 00 00 00 00	 call	 ??3@YAXPAX@Z		; operator delete
  0001e	59		 pop	 ecx
$LN1@scalar:
  0001f	8b c6		 mov	 eax, esi
  00021	5e		 pop	 esi
  00022	5d		 pop	 ebp
  00023	c2 04 00	 ret	 4
??_Gbad_alloc@std@@UAEPAXI@Z ENDP			; std::bad_alloc::`scalar deleting destructor'
_TEXT	ENDS
PUBLIC	??2@YAPAXIPAX@Z					; operator new
; Function compile flags: /Ogsp
; File c:\program files (x86)\microsoft visual studio 10.0\vc\include\new
;	COMDAT ??2@YAPAXIPAX@Z
_TEXT	SEGMENT
___formal$ = 8						; size = 4
__Where$ = 12						; size = 4
??2@YAPAXIPAX@Z PROC					; operator new, COMDAT

; 56   : 	{	// construct array with placement at _Where

  00000	55		 push	 ebp
  00001	8b ec		 mov	 ebp, esp

; 57   : 	return (_Where);

  00003	8b 45 0c	 mov	 eax, DWORD PTR __Where$[ebp]

; 58   : 	}

  00006	5d		 pop	 ebp
  00007	c3		 ret	 0
??2@YAPAXIPAX@Z ENDP					; operator new
_TEXT	ENDS
PUBLIC	??3@YAXPAX0@Z					; operator delete
; Function compile flags: /Ogsp
;	COMDAT ??3@YAXPAX0@Z
_TEXT	SEGMENT
___formal$ = 8						; size = 4
___formal$ = 12						; size = 4
??3@YAXPAX0@Z PROC					; operator delete, COMDAT

; 62   : 	}

  00000	c3		 ret	 0
??3@YAXPAX0@Z ENDP					; operator delete
_TEXT	ENDS
PUBLIC	?length@?$char_traits@D@std@@SAIPBD@Z		; std::char_traits<char>::length
; Function compile flags: /Ogsp
; File c:\program files (x86)\microsoft visual studio 10.0\vc\include\iosfwd
;	COMDAT ?length@?$char_traits@D@std@@SAIPBD@Z
_TEXT	SEGMENT
__First$ = 8						; size = 4
?length@?$char_traits@D@std@@SAIPBD@Z PROC		; std::char_traits<char>::length, COMDAT

; 490  : 		{	// find length of null-terminated string

  00000	55		 push	 ebp
  00001	8b ec		 mov	 ebp, esp

; 491  : 		return (_CSTD strlen(_First));

  00003	8b 45 08	 mov	 eax, DWORD PTR __First$[ebp]
  00006	8d 50 01	 lea	 edx, DWORD PTR [eax+1]
$LL3@length:
  00009	8a 08		 mov	 cl, BYTE PTR [eax]
  0000b	40		 inc	 eax
  0000c	84 c9		 test	 cl, cl
  0000e	75 f9		 jne	 SHORT $LL3@length
  00010	2b c2		 sub	 eax, edx

; 492  : 		}

  00012	5d		 pop	 ebp
  00013	c3		 ret	 0
?length@?$char_traits@D@std@@SAIPBD@Z ENDP		; std::char_traits<char>::length
_TEXT	ENDS
PUBLIC	?copy@?$char_traits@D@std@@SAPADPADPBDI@Z	; std::char_traits<char>::copy
EXTRN	_memcpy:PROC
; Function compile flags: /Ogsp
;	COMDAT ?copy@?$char_traits@D@std@@SAPADPADPBDI@Z
_TEXT	SEGMENT
__First1$ = 8						; size = 4
__First2$ = 12						; size = 4
__Count$ = 16						; size = 4
?copy@?$char_traits@D@std@@SAPADPADPBDI@Z PROC		; std::char_traits<char>::copy, COMDAT

; 496  : 		{	// copy [_First1, _First1 + _Count) to [_First2, ...)

  00000	55		 push	 ebp
  00001	8b ec		 mov	 ebp, esp

; 498  : 		}

  00003	5d		 pop	 ebp

; 497  : 		return ((_Elem *)_CSTD memcpy(_First1, _First2, _Count));

  00004	e9 00 00 00 00	 jmp	 _memcpy
?copy@?$char_traits@D@std@@SAPADPADPBDI@Z ENDP		; std::char_traits<char>::copy
_TEXT	ENDS
PUBLIC	?move@?$char_traits@D@std@@SAPADPADPBDI@Z	; std::char_traits<char>::move
EXTRN	__imp__memmove:PROC
; Function compile flags: /Ogsp
;	COMDAT ?move@?$char_traits@D@std@@SAPADPADPBDI@Z
_TEXT	SEGMENT
__First1$ = 8						; size = 4
__First2$ = 12						; size = 4
__Count$ = 16						; size = 4
?move@?$char_traits@D@std@@SAPADPADPBDI@Z PROC		; std::char_traits<char>::move, COMDAT

; 516  : 		{	// copy [_First1, _First1 + _Count) to [_First2, ...)

  00000	55		 push	 ebp
  00001	8b ec		 mov	 ebp, esp

; 518  : 		}

  00003	5d		 pop	 ebp

; 517  : 		return ((_Elem *)_CSTD memmove(_First1, _First2, _Count));

  00004	ff 25 00 00 00
	00		 jmp	 DWORD PTR __imp__memmove
?move@?$char_traits@D@std@@SAPADPADPBDI@Z ENDP		; std::char_traits<char>::move
_TEXT	ENDS
PUBLIC	?assign@?$char_traits@D@std@@SAXAADABD@Z	; std::char_traits<char>::assign
; Function compile flags: /Ogsp
;	COMDAT ?assign@?$char_traits@D@std@@SAXAADABD@Z
_TEXT	SEGMENT
__Left$ = 8						; size = 4
__Right$ = 12						; size = 4
?assign@?$char_traits@D@std@@SAXAADABD@Z PROC		; std::char_traits<char>::assign, COMDAT

; 526  : 		{	// assign an element

  00000	55		 push	 ebp
  00001	8b ec		 mov	 ebp, esp

; 527  : 		_Left = _Right;

  00003	8b 45 0c	 mov	 eax, DWORD PTR __Right$[ebp]
  00006	8a 00		 mov	 al, BYTE PTR [eax]
  00008	8b 4d 08	 mov	 ecx, DWORD PTR __Left$[ebp]
  0000b	88 01		 mov	 BYTE PTR [ecx], al

; 528  : 		}

  0000d	5d		 pop	 ebp
  0000e	c3		 ret	 0
?assign@?$char_traits@D@std@@SAXAADABD@Z ENDP		; std::char_traits<char>::assign
_TEXT	ENDS
PUBLIC	?_Adopt@_Iterator_base0@std@@QAEXPBX@Z		; std::_Iterator_base0::_Adopt
; Function compile flags: /Ogsp
; File c:\program files (x86)\microsoft visual studio 10.0\vc\include\xutility
;	COMDAT ?_Adopt@_Iterator_base0@std@@QAEXPBX@Z
_TEXT	SEGMENT
___formal$ = 8						; size = 4
?_Adopt@_Iterator_base0@std@@QAEXPBX@Z PROC		; std::_Iterator_base0::_Adopt, COMDAT
; _this$ = ecx

; 49   : 		}

  00000	c2 04 00	 ret	 4
?_Adopt@_Iterator_base0@std@@QAEXPBX@Z ENDP		; std::_Iterator_base0::_Adopt
_TEXT	ENDS
PUBLIC	??1ioINILoader_e@@QAE@XZ			; ioINILoader_e::~ioINILoader_e
EXTRN	__imp_??1ioINILoader@@QAE@XZ:PROC
; Function compile flags: /Ogsp
;	COMDAT ??1ioINILoader_e@@QAE@XZ
_TEXT	SEGMENT
??1ioINILoader_e@@QAE@XZ PROC				; ioINILoader_e::~ioINILoader_e, COMDAT
; _this$ = ecx
  00000	ff 25 00 00 00
	00		 jmp	 DWORD PTR __imp_??1ioINILoader@@QAE@XZ
??1ioINILoader_e@@QAE@XZ ENDP				; ioINILoader_e::~ioINILoader_e
_TEXT	ENDS
PUBLIC	?IsMyGuild@ioGuildInfo@@QAE_NK@Z		; ioGuildInfo::IsMyGuild
; Function compile flags: /Ogsp
; File d:\lost saga for developer\youtube\tutorial\source\src\lsclient\ioguildinfo.cpp
;	COMDAT ?IsMyGuild@ioGuildInfo@@QAE_NK@Z
_TEXT	SEGMENT
_dwGuildIndex$ = 8					; size = 4
?IsMyGuild@ioGuildInfo@@QAE_NK@Z PROC			; ioGuildInfo::IsMyGuild, COMDAT
; _this$ = ecx

; 925  : {

  00000	55		 push	 ebp
  00001	8b ec		 mov	 ebp, esp

; 926  : 	if( m_dwGuildIndex == dwGuildIndex )

  00003	8b 81 90 00 00
	00		 mov	 eax, DWORD PTR [ecx+144]
  00009	3b 45 08	 cmp	 eax, DWORD PTR _dwGuildIndex$[ebp]
  0000c	0f 94 c0	 sete	 al

; 927  : 		return true;
; 928  : 	return false;
; 929  : }

  0000f	5d		 pop	 ebp
  00010	c2 04 00	 ret	 4
?IsMyGuild@ioGuildInfo@@QAE_NK@Z ENDP			; ioGuildInfo::IsMyGuild
_TEXT	ENDS
PUBLIC	?IsGuild@ioGuildInfo@@QAE_NXZ			; ioGuildInfo::IsGuild
; Function compile flags: /Ogsp
;	COMDAT ?IsGuild@ioGuildInfo@@QAE_NXZ
_TEXT	SEGMENT
?IsGuild@ioGuildInfo@@QAE_NXZ PROC			; ioGuildInfo::IsGuild, COMDAT
; _this$ = ecx

; 944  : 	if( m_dwGuildIndex == 0 )

  00000	83 b9 90 00 00
	00 00		 cmp	 DWORD PTR [ecx+144], 0
  00007	0f 95 c0	 setne	 al

; 945  : 		return false;
; 946  : 	return true;
; 947  : }

  0000a	c3		 ret	 0
?IsGuild@ioGuildInfo@@QAE_NXZ ENDP			; ioGuildInfo::IsGuild
_TEXT	ENDS
PUBLIC	??1InvitationUser@ioGuildInfo@@QAE@XZ		; ioGuildInfo::InvitationUser::~InvitationUser
; Function compile flags: /Ogsp
;	COMDAT ??1InvitationUser@ioGuildInfo@@QAE@XZ
_TEXT	SEGMENT
??1InvitationUser@ioGuildInfo@@QAE@XZ PROC		; ioGuildInfo::InvitationUser::~InvitationUser, COMDAT
; _this$ = ecx
  00000	ff 25 00 00 00
	00		 jmp	 DWORD PTR __imp_??1ioHashString@@QAE@XZ
??1InvitationUser@ioGuildInfo@@QAE@XZ ENDP		; ioGuildInfo::InvitationUser::~InvitationUser
_TEXT	ENDS
PUBLIC	?IsGuildMaster@ioGuildInfo@@QAE_NXZ		; ioGuildInfo::IsGuildMaster
EXTRN	__imp_??8ioHashString@@QBE_NABV0@@Z:PROC
EXTRN	__imp_??0ioHashString@@QAE@PBD@Z:PROC
EXTRN	?GetLocal@ioLocalManager@@QAEPAVioLocalParent@@W4LocalType@ioLocalManagerParent@@@Z:PROC ; ioLocalManager::GetLocal
EXTRN	?GetSingleton@ioLocalManager@@SAAAV1@XZ:PROC	; ioLocalManager::GetSingleton
EXTRN	__imp_?GetLocalType@ioLocalManagerParent@@SA?AW4LocalType@1@XZ:PROC
;	COMDAT xdata$x
xdata$x	SEGMENT
__unwindtable$?IsGuildMaster@ioGuildInfo@@QAE_NXZ DD 0ffffffffH
	DD	FLAT:__unwindfunclet$?IsGuildMaster@ioGuildInfo@@QAE_NXZ$0
__ehfuncinfo$?IsGuildMaster@ioGuildInfo@@QAE_NXZ DD 019930522H
	DD	01H
	DD	FLAT:__unwindtable$?IsGuildMaster@ioGuildInfo@@QAE_NXZ
	DD	2 DUP(00H)
	DD	2 DUP(00H)
	DD	00H
	DD	01H
; Function compile flags: /Ogsp
xdata$x	ENDS
;	COMDAT ?IsGuildMaster@ioGuildInfo@@QAE_NXZ
_TEXT	SEGMENT
$T518051 = -28						; size = 16
__$EHRec$ = -12						; size = 12
?IsGuildMaster@ioGuildInfo@@QAE_NXZ PROC		; ioGuildInfo::IsGuildMaster, COMDAT
; _this$ = ecx

; 1193 : {

  00000	6a 10		 push	 16			; 00000010H
  00002	b8 00 00 00 00	 mov	 eax, __ehhandler$?IsGuildMaster@ioGuildInfo@@QAE_NXZ
  00007	e8 00 00 00 00	 call	 __EH_prolog3
  0000c	8b f1		 mov	 esi, ecx

; 1194 : 	ioLocalParent *pLocal = g_LocalMgr.GetLocal( ioLocalManager::GetLocalType() );

  0000e	ff 15 00 00 00
	00		 call	 DWORD PTR __imp_?GetLocalType@ioLocalManagerParent@@SA?AW4LocalType@1@XZ
  00014	50		 push	 eax
  00015	e8 00 00 00 00	 call	 ?GetSingleton@ioLocalManager@@SAAAV1@XZ ; ioLocalManager::GetSingleton
  0001a	8b c8		 mov	 ecx, eax
  0001c	e8 00 00 00 00	 call	 ?GetLocal@ioLocalManager@@QAEPAVioLocalParent@@W4LocalType@ioLocalManagerParent@@@Z ; ioLocalManager::GetLocal

; 1195 : 	if( pLocal )

  00021	85 c0		 test	 eax, eax
  00023	74 38		 je	 SHORT $LN1@IsGuildMas

; 1196 : 	{
; 1197 : 		return ( m_szGuildPosition == pLocal->GetGuildMasterPostion() );

  00025	8b 10		 mov	 edx, DWORD PTR [eax]
  00027	8b c8		 mov	 ecx, eax
  00029	ff 52 5c	 call	 DWORD PTR [edx+92]
  0002c	50		 push	 eax
  0002d	8d 4d e4	 lea	 ecx, DWORD PTR $T518051[ebp]
  00030	ff 15 00 00 00
	00		 call	 DWORD PTR __imp_??0ioHashString@@QAE@PBD@Z
  00036	83 65 fc 00	 and	 DWORD PTR __$EHRec$[ebp+8], 0
  0003a	8d 45 e4	 lea	 eax, DWORD PTR $T518051[ebp]
  0003d	50		 push	 eax
  0003e	8d 8e a4 00 00
	00		 lea	 ecx, DWORD PTR [esi+164]
  00044	ff 15 00 00 00
	00		 call	 DWORD PTR __imp_??8ioHashString@@QBE_NABV0@@Z
  0004a	83 4d fc ff	 or	 DWORD PTR __$EHRec$[ebp+8], -1
  0004e	8d 4d e4	 lea	 ecx, DWORD PTR $T518051[ebp]
  00051	8a d8		 mov	 bl, al
  00053	ff 15 00 00 00
	00		 call	 DWORD PTR __imp_??1ioHashString@@QAE@XZ
  00059	8a c3		 mov	 al, bl
  0005b	eb 02		 jmp	 SHORT $LN2@IsGuildMas
$LN1@IsGuildMas:

; 1198 : 	}
; 1199 : 
; 1200 : 	return false;

  0005d	32 c0		 xor	 al, al
$LN2@IsGuildMas:

; 1201 : }

  0005f	e8 00 00 00 00	 call	 __EH_epilog3
  00064	c3		 ret	 0
_TEXT	ENDS
;	COMDAT text$x
text$x	SEGMENT
__unwindfunclet$?IsGuildMaster@ioGuildInfo@@QAE_NXZ$0:
  00000	8d 4d e4	 lea	 ecx, DWORD PTR $T518051[ebp]
  00003	ff 25 00 00 00
	00		 jmp	 DWORD PTR __imp_??1ioHashString@@QAE@XZ
__ehhandler$?IsGuildMaster@ioGuildInfo@@QAE_NXZ:
  00009	8b 54 24 08	 mov	 edx, DWORD PTR [esp+8]
  0000d	8d 42 0c	 lea	 eax, DWORD PTR [edx+12]
  00010	8b 4a e0	 mov	 ecx, DWORD PTR [edx-32]
  00013	33 c8		 xor	 ecx, eax
  00015	e8 00 00 00 00	 call	 @__security_check_cookie@4
  0001a	b8 00 00 00 00	 mov	 eax, OFFSET __ehfuncinfo$?IsGuildMaster@ioGuildInfo@@QAE_NXZ
  0001f	e9 00 00 00 00	 jmp	 ___CxxFrameHandler3
text$x	ENDS
?IsGuildMaster@ioGuildInfo@@QAE_NXZ ENDP		; ioGuildInfo::IsGuildMaster
PUBLIC	?IsGuildSecondMaster@ioGuildInfo@@QAE_NXZ	; ioGuildInfo::IsGuildSecondMaster
;	COMDAT xdata$x
xdata$x	SEGMENT
__unwindtable$?IsGuildSecondMaster@ioGuildInfo@@QAE_NXZ DD 0ffffffffH
	DD	FLAT:__unwindfunclet$?IsGuildSecondMaster@ioGuildInfo@@QAE_NXZ$0
__ehfuncinfo$?IsGuildSecondMaster@ioGuildInfo@@QAE_NXZ DD 019930522H
	DD	01H
	DD	FLAT:__unwindtable$?IsGuildSecondMaster@ioGuildInfo@@QAE_NXZ
	DD	2 DUP(00H)
	DD	2 DUP(00H)
	DD	00H
	DD	01H
; Function compile flags: /Ogsp
xdata$x	ENDS
;	COMDAT ?IsGuildSecondMaster@ioGuildInfo@@QAE_NXZ
_TEXT	SEGMENT
$T518062 = -28						; size = 16
__$EHRec$ = -12						; size = 12
?IsGuildSecondMaster@ioGuildInfo@@QAE_NXZ PROC		; ioGuildInfo::IsGuildSecondMaster, COMDAT
; _this$ = ecx

; 1204 : {

  00000	6a 10		 push	 16			; 00000010H
  00002	b8 00 00 00 00	 mov	 eax, __ehhandler$?IsGuildSecondMaster@ioGuildInfo@@QAE_NXZ
  00007	e8 00 00 00 00	 call	 __EH_prolog3
  0000c	8b f1		 mov	 esi, ecx

; 1205 : 	ioLocalParent *pLocal = g_LocalMgr.GetLocal( ioLocalManager::GetLocalType() );

  0000e	ff 15 00 00 00
	00		 call	 DWORD PTR __imp_?GetLocalType@ioLocalManagerParent@@SA?AW4LocalType@1@XZ
  00014	50		 push	 eax
  00015	e8 00 00 00 00	 call	 ?GetSingleton@ioLocalManager@@SAAAV1@XZ ; ioLocalManager::GetSingleton
  0001a	8b c8		 mov	 ecx, eax
  0001c	e8 00 00 00 00	 call	 ?GetLocal@ioLocalManager@@QAEPAVioLocalParent@@W4LocalType@ioLocalManagerParent@@@Z ; ioLocalManager::GetLocal

; 1206 : 	if( pLocal )

  00021	85 c0		 test	 eax, eax
  00023	74 38		 je	 SHORT $LN1@IsGuildSec

; 1207 : 	{
; 1208 : 		return ( m_szGuildPosition == pLocal->GetGuildSecondMasterPosition() );

  00025	8b 10		 mov	 edx, DWORD PTR [eax]
  00027	8b c8		 mov	 ecx, eax
  00029	ff 52 60	 call	 DWORD PTR [edx+96]
  0002c	50		 push	 eax
  0002d	8d 4d e4	 lea	 ecx, DWORD PTR $T518062[ebp]
  00030	ff 15 00 00 00
	00		 call	 DWORD PTR __imp_??0ioHashString@@QAE@PBD@Z
  00036	83 65 fc 00	 and	 DWORD PTR __$EHRec$[ebp+8], 0
  0003a	8d 45 e4	 lea	 eax, DWORD PTR $T518062[ebp]
  0003d	50		 push	 eax
  0003e	8d 8e a4 00 00
	00		 lea	 ecx, DWORD PTR [esi+164]
  00044	ff 15 00 00 00
	00		 call	 DWORD PTR __imp_??8ioHashString@@QBE_NABV0@@Z
  0004a	83 4d fc ff	 or	 DWORD PTR __$EHRec$[ebp+8], -1
  0004e	8d 4d e4	 lea	 ecx, DWORD PTR $T518062[ebp]
  00051	8a d8		 mov	 bl, al
  00053	ff 15 00 00 00
	00		 call	 DWORD PTR __imp_??1ioHashString@@QAE@XZ
  00059	8a c3		 mov	 al, bl
  0005b	eb 02		 jmp	 SHORT $LN2@IsGuildSec
$LN1@IsGuildSec:

; 1209 : 	}
; 1210 : 
; 1211 : 	return false;

  0005d	32 c0		 xor	 al, al
$LN2@IsGuildSec:

; 1212 : }

  0005f	e8 00 00 00 00	 call	 __EH_epilog3
  00064	c3		 ret	 0
_TEXT	ENDS
;	COMDAT text$x
text$x	SEGMENT
__unwindfunclet$?IsGuildSecondMaster@ioGuildInfo@@QAE_NXZ$0:
  00000	8d 4d e4	 lea	 ecx, DWORD PTR $T518062[ebp]
  00003	ff 25 00 00 00
	00		 jmp	 DWORD PTR __imp_??1ioHashString@@QAE@XZ
__ehhandler$?IsGuildSecondMaster@ioGuildInfo@@QAE_NXZ:
  00009	8b 54 24 08	 mov	 edx, DWORD PTR [esp+8]
  0000d	8d 42 0c	 lea	 eax, DWORD PTR [edx+12]
  00010	8b 4a e0	 mov	 ecx, DWORD PTR [edx-32]
  00013	33 c8		 xor	 ecx, eax
  00015	e8 00 00 00 00	 call	 @__security_check_cookie@4
  0001a	b8 00 00 00 00	 mov	 eax, OFFSET __ehfuncinfo$?IsGuildSecondMaster@ioGuildInfo@@QAE_NXZ
  0001f	e9 00 00 00 00	 jmp	 ___CxxFrameHandler3
text$x	ENDS
?IsGuildSecondMaster@ioGuildInfo@@QAE_NXZ ENDP		; ioGuildInfo::IsGuildSecondMaster
PUBLIC	?size@?$vector@V?$basic_string@DU?$char_traits@D@std@@V?$allocator@D@2@@std@@V?$allocator@V?$basic_string@DU?$char_traits@D@std@@V?$allocator@D@2@@std@@@2@@std@@QBEIXZ ; std::vector<std::basic_string<char,std::char_traits<char>,std::allocator<char> >,std::allocator<std::basic_string<char,std::char_traits<char>,std::allocator<char> > > >::size
; Function compile flags: /Ogsp
; File c:\program files (x86)\microsoft visual studio 10.0\vc\include\vector
;	COMDAT ?size@?$vector@V?$basic_string@DU?$char_traits@D@std@@V?$allocator@D@2@@std@@V?$allocator@V?$basic_string@DU?$char_traits@D@std@@V?$allocator@D@2@@std@@@2@@std@@QBEIXZ
_TEXT	SEGMENT
?size@?$vector@V?$basic_string@DU?$char_traits@D@std@@V?$allocator@D@2@@std@@V?$allocator@V?$basic_string@DU?$char_traits@D@std@@V?$allocator@D@2@@std@@@2@@std@@QBEIXZ PROC ; std::vector<std::basic_string<char,std::char_traits<char>,std::allocator<char> >,std::allocator<std::basic_string<char,std::char_traits<char>,std::allocator<char> > > >::size, COMDAT
; _this$ = ecx

; 879  : 		return (this->_Mylast - this->_Myfirst);

  00000	8b 41 04	 mov	 eax, DWORD PTR [ecx+4]
  00003	2b 01		 sub	 eax, DWORD PTR [ecx]
  00005	6a 1c		 push	 28			; 0000001cH
  00007	99		 cdq
  00008	59		 pop	 ecx
  00009	f7 f9		 idiv	 ecx

; 880  : 		}

  0000b	c3		 ret	 0
?size@?$vector@V?$basic_string@DU?$char_traits@D@std@@V?$allocator@D@2@@std@@V?$allocator@V?$basic_string@DU?$char_traits@D@std@@V?$allocator@D@2@@std@@@2@@std@@QBEIXZ ENDP ; std::vector<std::basic_string<char,std::char_traits<char>,std::allocator<char> >,std::allocator<std::basic_string<char,std::char_traits<char>,std::allocator<char> > > >::size
_TEXT	ENDS
PUBLIC	??A?$vector@V?$basic_string@DU?$char_traits@D@std@@V?$allocator@D@2@@std@@V?$allocator@V?$basic_string@DU?$char_traits@D@std@@V?$allocator@D@2@@std@@@2@@std@@QAEAAV?$basic_string@DU?$char_traits@D@std@@V?$allocator@D@2@@1@I@Z ; std::vector<std::basic_string<char,std::char_traits<char>,std::allocator<char> >,std::allocator<std::basic_string<char,std::char_traits<char>,std::allocator<char> > > >::operator[]
; Function compile flags: /Ogsp
;	COMDAT ??A?$vector@V?$basic_string@DU?$char_traits@D@std@@V?$allocator@D@2@@std@@V?$allocator@V?$basic_string@DU?$char_traits@D@std@@V?$allocator@D@2@@std@@@2@@std@@QAEAAV?$basic_string@DU?$char_traits@D@std@@V?$allocator@D@2@@1@I@Z
_TEXT	SEGMENT
__Pos$ = 8						; size = 4
??A?$vector@V?$basic_string@DU?$char_traits@D@std@@V?$allocator@D@2@@std@@V?$allocator@V?$basic_string@DU?$char_traits@D@std@@V?$allocator@D@2@@std@@@2@@std@@QAEAAV?$basic_string@DU?$char_traits@D@std@@V?$allocator@D@2@@1@I@Z PROC ; std::vector<std::basic_string<char,std::char_traits<char>,std::allocator<char> >,std::allocator<std::basic_string<char,std::char_traits<char>,std::allocator<char> > > >::operator[], COMDAT
; _this$ = ecx

; 928  : 		{	// subscript mutable sequence

  00000	55		 push	 ebp
  00001	8b ec		 mov	 ebp, esp

; 929  :  #if _ITERATOR_DEBUG_LEVEL == 2
; 930  : 		if (size() <= _Pos)
; 931  : 			{	// report error
; 932  : 			_DEBUG_ERROR("vector subscript out of range");
; 933  : 			_SCL_SECURE_OUT_OF_RANGE;
; 934  : 			}
; 935  : 
; 936  :  #elif _ITERATOR_DEBUG_LEVEL == 1
; 937  : 		_SCL_SECURE_VALIDATE_RANGE(_Pos < size());
; 938  :  #endif /* _ITERATOR_DEBUG_LEVEL */
; 939  : 
; 940  : 		return (*(this->_Myfirst + _Pos));

  00003	8b 45 08	 mov	 eax, DWORD PTR __Pos$[ebp]
  00006	6b c0 1c	 imul	 eax, 28			; 0000001cH
  00009	03 01		 add	 eax, DWORD PTR [ecx]

; 941  : 		}

  0000b	5d		 pop	 ebp
  0000c	c2 04 00	 ret	 4
??A?$vector@V?$basic_string@DU?$char_traits@D@std@@V?$allocator@D@2@@std@@V?$allocator@V?$basic_string@DU?$char_traits@D@std@@V?$allocator@D@2@@std@@@2@@std@@QAEAAV?$basic_string@DU?$char_traits@D@std@@V?$allocator@D@2@@1@I@Z ENDP ; std::vector<std::basic_string<char,std::char_traits<char>,std::allocator<char> >,std::allocator<std::basic_string<char,std::char_traits<char>,std::allocator<char> > > >::operator[]
_TEXT	ENDS
PUBLIC	?empty@?$vector@KV?$allocator@K@std@@@std@@QBE_NXZ ; std::vector<unsigned long,std::allocator<unsigned long> >::empty
; Function compile flags: /Ogsp
;	COMDAT ?empty@?$vector@KV?$allocator@K@std@@@std@@QBE_NXZ
_TEXT	SEGMENT
?empty@?$vector@KV?$allocator@K@std@@@std@@QBE_NXZ PROC	; std::vector<unsigned long,std::allocator<unsigned long> >::empty, COMDAT
; _this$ = ecx

; 889  : 		return (this->_Myfirst == this->_Mylast);

  00000	8b 01		 mov	 eax, DWORD PTR [ecx]
  00002	2b 41 04	 sub	 eax, DWORD PTR [ecx+4]
  00005	f7 d8		 neg	 eax
  00007	1b c0		 sbb	 eax, eax
  00009	40		 inc	 eax

; 890  : 		}

  0000a	c3		 ret	 0
?empty@?$vector@KV?$allocator@K@std@@@std@@QBE_NXZ ENDP	; std::vector<unsigned long,std::allocator<unsigned long> >::empty
_TEXT	ENDS
PUBLIC	?empty@?$vector@VGashaponPresent@@V?$allocator@VGashaponPresent@@@std@@@std@@QBE_NXZ ; std::vector<GashaponPresent,std::allocator<GashaponPresent> >::empty
; Function compile flags: /Ogsp
;	COMDAT ?empty@?$vector@VGashaponPresent@@V?$allocator@VGashaponPresent@@@std@@@std@@QBE_NXZ
_TEXT	SEGMENT
?empty@?$vector@VGashaponPresent@@V?$allocator@VGashaponPresent@@@std@@@std@@QBE_NXZ PROC ; std::vector<GashaponPresent,std::allocator<GashaponPresent> >::empty, COMDAT
; _this$ = ecx

; 889  : 		return (this->_Myfirst == this->_Mylast);

  00000	8b 01		 mov	 eax, DWORD PTR [ecx]
  00002	2b 41 04	 sub	 eax, DWORD PTR [ecx+4]
  00005	f7 d8		 neg	 eax
  00007	1b c0		 sbb	 eax, eax
  00009	40		 inc	 eax

; 890  : 		}

  0000a	c3		 ret	 0
?empty@?$vector@VGashaponPresent@@V?$allocator@VGashaponPresent@@@std@@@std@@QBE_NXZ ENDP ; std::vector<GashaponPresent,std::allocator<GashaponPresent> >::empty
_TEXT	ENDS
PUBLIC	?size@?$vector@UGuildUser@ioGuildData@@V?$allocator@UGuildUser@ioGuildData@@@std@@@std@@QBEIXZ ; std::vector<ioGuildData::GuildUser,std::allocator<ioGuildData::GuildUser> >::size
; Function compile flags: /Ogsp
;	COMDAT ?size@?$vector@UGuildUser@ioGuildData@@V?$allocator@UGuildUser@ioGuildData@@@std@@@std@@QBEIXZ
_TEXT	SEGMENT
?size@?$vector@UGuildUser@ioGuildData@@V?$allocator@UGuildUser@ioGuildData@@@std@@@std@@QBEIXZ PROC ; std::vector<ioGuildData::GuildUser,std::allocator<ioGuildData::GuildUser> >::size, COMDAT
; _this$ = ecx

; 879  : 		return (this->_Mylast - this->_Myfirst);

  00000	8b 41 04	 mov	 eax, DWORD PTR [ecx+4]
  00003	2b 01		 sub	 eax, DWORD PTR [ecx]
  00005	6a 38		 push	 56			; 00000038H
  00007	99		 cdq
  00008	59		 pop	 ecx
  00009	f7 f9		 idiv	 ecx

; 880  : 		}

  0000b	c3		 ret	 0
?size@?$vector@UGuildUser@ioGuildData@@V?$allocator@UGuildUser@ioGuildData@@@std@@@std@@QBEIXZ ENDP ; std::vector<ioGuildData::GuildUser,std::allocator<ioGuildData::GuildUser> >::size
_TEXT	ENDS
PUBLIC	?empty@?$vector@UGuildUser@ioGuildData@@V?$allocator@UGuildUser@ioGuildData@@@std@@@std@@QBE_NXZ ; std::vector<ioGuildData::GuildUser,std::allocator<ioGuildData::GuildUser> >::empty
; Function compile flags: /Ogsp
;	COMDAT ?empty@?$vector@UGuildUser@ioGuildData@@V?$allocator@UGuildUser@ioGuildData@@@std@@@std@@QBE_NXZ
_TEXT	SEGMENT
?empty@?$vector@UGuildUser@ioGuildData@@V?$allocator@UGuildUser@ioGuildData@@@std@@@std@@QBE_NXZ PROC ; std::vector<ioGuildData::GuildUser,std::allocator<ioGuildData::GuildUser> >::empty, COMDAT
; _this$ = ecx

; 889  : 		return (this->_Myfirst == this->_Mylast);

  00000	8b 01		 mov	 eax, DWORD PTR [ecx]
  00002	2b 41 04	 sub	 eax, DWORD PTR [ecx+4]
  00005	f7 d8		 neg	 eax
  00007	1b c0		 sbb	 eax, eax
  00009	40		 inc	 eax

; 890  : 		}

  0000a	c3		 ret	 0
?empty@?$vector@UGuildUser@ioGuildData@@V?$allocator@UGuildUser@ioGuildData@@@std@@@std@@QBE_NXZ ENDP ; std::vector<ioGuildData::GuildUser,std::allocator<ioGuildData::GuildUser> >::empty
_TEXT	ENDS
PUBLIC	??A?$vector@UGuildUser@ioGuildData@@V?$allocator@UGuildUser@ioGuildData@@@std@@@std@@QAEAAUGuildUser@ioGuildData@@I@Z ; std::vector<ioGuildData::GuildUser,std::allocator<ioGuildData::GuildUser> >::operator[]
; Function compile flags: /Ogsp
;	COMDAT ??A?$vector@UGuildUser@ioGuildData@@V?$allocator@UGuildUser@ioGuildData@@@std@@@std@@QAEAAUGuildUser@ioGuildData@@I@Z
_TEXT	SEGMENT
__Pos$ = 8						; size = 4
??A?$vector@UGuildUser@ioGuildData@@V?$allocator@UGuildUser@ioGuildData@@@std@@@std@@QAEAAUGuildUser@ioGuildData@@I@Z PROC ; std::vector<ioGuildData::GuildUser,std::allocator<ioGuildData::GuildUser> >::operator[], COMDAT
; _this$ = ecx

; 928  : 		{	// subscript mutable sequence

  00000	55		 push	 ebp
  00001	8b ec		 mov	 ebp, esp

; 929  :  #if _ITERATOR_DEBUG_LEVEL == 2
; 930  : 		if (size() <= _Pos)
; 931  : 			{	// report error
; 932  : 			_DEBUG_ERROR("vector subscript out of range");
; 933  : 			_SCL_SECURE_OUT_OF_RANGE;
; 934  : 			}
; 935  : 
; 936  :  #elif _ITERATOR_DEBUG_LEVEL == 1
; 937  : 		_SCL_SECURE_VALIDATE_RANGE(_Pos < size());
; 938  :  #endif /* _ITERATOR_DEBUG_LEVEL */
; 939  : 
; 940  : 		return (*(this->_Myfirst + _Pos));

  00003	8b 45 08	 mov	 eax, DWORD PTR __Pos$[ebp]
  00006	6b c0 38	 imul	 eax, 56			; 00000038H
  00009	03 01		 add	 eax, DWORD PTR [ecx]

; 941  : 		}

  0000b	5d		 pop	 ebp
  0000c	c2 04 00	 ret	 4
??A?$vector@UGuildUser@ioGuildData@@V?$allocator@UGuildUser@ioGuildData@@@std@@@std@@QAEAAUGuildUser@ioGuildData@@I@Z ENDP ; std::vector<ioGuildData::GuildUser,std::allocator<ioGuildData::GuildUser> >::operator[]
_TEXT	ENDS
PUBLIC	??0?$Singleton@VioGuildInfo@@@@QAE@XZ		; Singleton<ioGuildInfo>::Singleton<ioGuildInfo>
; Function compile flags: /Ogsp
; File d:\lost saga for developer\youtube\tutorial\source\src\io3dengine\iosingleton.h
;	COMDAT ??0?$Singleton@VioGuildInfo@@@@QAE@XZ
_TEXT	SEGMENT
??0?$Singleton@VioGuildInfo@@@@QAE@XZ PROC		; Singleton<ioGuildInfo>::Singleton<ioGuildInfo>, COMDAT
; _this$ = ecx

; 27   : 	Singleton()

  00000	8b c1		 mov	 eax, ecx

; 28   : 	{
; 29   : 		assert( !ms_Singleton );
; 30   : 		int offset = (int)(T*)1 - (int)(Singleton <T>*)(T*)1;
; 31   : 		ms_Singleton = (T*)((int)this + offset);

  00002	8d 48 fc	 lea	 ecx, DWORD PTR [eax-4]
  00005	89 0d 00 00 00
	00		 mov	 DWORD PTR ?ms_Singleton@?$Singleton@VioGuildInfo@@@@1PAVioGuildInfo@@A, ecx ; Singleton<ioGuildInfo>::ms_Singleton

; 32   : 	}

  0000b	c3		 ret	 0
??0?$Singleton@VioGuildInfo@@@@QAE@XZ ENDP		; Singleton<ioGuildInfo>::Singleton<ioGuildInfo>
_TEXT	ENDS
PUBLIC	??1?$Singleton@VioGuildInfo@@@@QAE@XZ		; Singleton<ioGuildInfo>::~Singleton<ioGuildInfo>
; Function compile flags: /Ogsp
;	COMDAT ??1?$Singleton@VioGuildInfo@@@@QAE@XZ
_TEXT	SEGMENT
??1?$Singleton@VioGuildInfo@@@@QAE@XZ PROC		; Singleton<ioGuildInfo>::~Singleton<ioGuildInfo>, COMDAT
; _this$ = ecx

; 36   : 		assert( ms_Singleton );
; 37   : 		ms_Singleton = 0;

  00000	83 25 00 00 00
	00 00		 and	 DWORD PTR ?ms_Singleton@?$Singleton@VioGuildInfo@@@@1PAVioGuildInfo@@A, 0 ; Singleton<ioGuildInfo>::ms_Singleton

; 38   : 	}

  00007	c3		 ret	 0
??1?$Singleton@VioGuildInfo@@@@QAE@XZ ENDP		; Singleton<ioGuildInfo>::~Singleton<ioGuildInfo>
_TEXT	ENDS
PUBLIC	?GetSingleton@?$Singleton@VioGuildInfo@@@@SAAAVioGuildInfo@@XZ ; Singleton<ioGuildInfo>::GetSingleton
; Function compile flags: /Ogsp
;	COMDAT ?GetSingleton@?$Singleton@VioGuildInfo@@@@SAAAVioGuildInfo@@XZ
_TEXT	SEGMENT
?GetSingleton@?$Singleton@VioGuildInfo@@@@SAAAVioGuildInfo@@XZ PROC ; Singleton<ioGuildInfo>::GetSingleton, COMDAT

; 42   : 		assert( ms_Singleton );
; 43   : 		return (*ms_Singleton);

  00000	a1 00 00 00 00	 mov	 eax, DWORD PTR ?ms_Singleton@?$Singleton@VioGuildInfo@@@@1PAVioGuildInfo@@A ; Singleton<ioGuildInfo>::ms_Singleton

; 44   : 	}

  00005	c3		 ret	 0
?GetSingleton@?$Singleton@VioGuildInfo@@@@SAAAVioGuildInfo@@XZ ENDP ; Singleton<ioGuildInfo>::GetSingleton
_TEXT	ENDS
PUBLIC	?size@?$vector@UInvitationUser@ioGuildInfo@@V?$allocator@UInvitationUser@ioGuildInfo@@@std@@@std@@QBEIXZ ; std::vector<ioGuildInfo::InvitationUser,std::allocator<ioGuildInfo::InvitationUser> >::size
; Function compile flags: /Ogsp
; File c:\program files (x86)\microsoft visual studio 10.0\vc\include\vector
;	COMDAT ?size@?$vector@UInvitationUser@ioGuildInfo@@V?$allocator@UInvitationUser@ioGuildInfo@@@std@@@std@@QBEIXZ
_TEXT	SEGMENT
?size@?$vector@UInvitationUser@ioGuildInfo@@V?$allocator@UInvitationUser@ioGuildInfo@@@std@@@std@@QBEIXZ PROC ; std::vector<ioGuildInfo::InvitationUser,std::allocator<ioGuildInfo::InvitationUser> >::size, COMDAT
; _this$ = ecx

; 879  : 		return (this->_Mylast - this->_Myfirst);

  00000	8b 41 04	 mov	 eax, DWORD PTR [ecx+4]
  00003	2b 01		 sub	 eax, DWORD PTR [ecx]
  00005	6a 14		 push	 20			; 00000014H
  00007	99		 cdq
  00008	59		 pop	 ecx
  00009	f7 f9		 idiv	 ecx

; 880  : 		}

  0000b	c3		 ret	 0
?size@?$vector@UInvitationUser@ioGuildInfo@@V?$allocator@UInvitationUser@ioGuildInfo@@@std@@@std@@QBEIXZ ENDP ; std::vector<ioGuildInfo::InvitationUser,std::allocator<ioGuildInfo::InvitationUser> >::size
_TEXT	ENDS
PUBLIC	??A?$vector@UInvitationUser@ioGuildInfo@@V?$allocator@UInvitationUser@ioGuildInfo@@@std@@@std@@QAEAAUInvitationUser@ioGuildInfo@@I@Z ; std::vector<ioGuildInfo::InvitationUser,std::allocator<ioGuildInfo::InvitationUser> >::operator[]
; Function compile flags: /Ogsp
;	COMDAT ??A?$vector@UInvitationUser@ioGuildInfo@@V?$allocator@UInvitationUser@ioGuildInfo@@@std@@@std@@QAEAAUInvitationUser@ioGuildInfo@@I@Z
_TEXT	SEGMENT
__Pos$ = 8						; size = 4
??A?$vector@UInvitationUser@ioGuildInfo@@V?$allocator@UInvitationUser@ioGuildInfo@@@std@@@std@@QAEAAUInvitationUser@ioGuildInfo@@I@Z PROC ; std::vector<ioGuildInfo::InvitationUser,std::allocator<ioGuildInfo::InvitationUser> >::operator[], COMDAT
; _this$ = ecx

; 928  : 		{	// subscript mutable sequence

  00000	55		 push	 ebp
  00001	8b ec		 mov	 ebp, esp

; 929  :  #if _ITERATOR_DEBUG_LEVEL == 2
; 930  : 		if (size() <= _Pos)
; 931  : 			{	// report error
; 932  : 			_DEBUG_ERROR("vector subscript out of range");
; 933  : 			_SCL_SECURE_OUT_OF_RANGE;
; 934  : 			}
; 935  : 
; 936  :  #elif _ITERATOR_DEBUG_LEVEL == 1
; 937  : 		_SCL_SECURE_VALIDATE_RANGE(_Pos < size());
; 938  :  #endif /* _ITERATOR_DEBUG_LEVEL */
; 939  : 
; 940  : 		return (*(this->_Myfirst + _Pos));

  00003	8b 45 08	 mov	 eax, DWORD PTR __Pos$[ebp]
  00006	6b c0 14	 imul	 eax, 20			; 00000014H
  00009	03 01		 add	 eax, DWORD PTR [ecx]

; 941  : 		}

  0000b	5d		 pop	 ebp
  0000c	c2 04 00	 ret	 4
??A?$vector@UInvitationUser@ioGuildInfo@@V?$allocator@UInvitationUser@ioGuildInfo@@@std@@@std@@QAEAAUInvitationUser@ioGuildInfo@@I@Z ENDP ; std::vector<ioGuildInfo::InvitationUser,std::allocator<ioGuildInfo::InvitationUser> >::operator[]
_TEXT	ENDS
PUBLIC	?size@?$vector@PAUGuildAttendRwardInfo@@V?$allocator@PAUGuildAttendRwardInfo@@@std@@@std@@QBEIXZ ; std::vector<GuildAttendRwardInfo *,std::allocator<GuildAttendRwardInfo *> >::size
; Function compile flags: /Ogsp
;	COMDAT ?size@?$vector@PAUGuildAttendRwardInfo@@V?$allocator@PAUGuildAttendRwardInfo@@@std@@@std@@QBEIXZ
_TEXT	SEGMENT
?size@?$vector@PAUGuildAttendRwardInfo@@V?$allocator@PAUGuildAttendRwardInfo@@@std@@@std@@QBEIXZ PROC ; std::vector<GuildAttendRwardInfo *,std::allocator<GuildAttendRwardInfo *> >::size, COMDAT
; _this$ = ecx

; 879  : 		return (this->_Mylast - this->_Myfirst);

  00000	8b 41 04	 mov	 eax, DWORD PTR [ecx+4]
  00003	2b 01		 sub	 eax, DWORD PTR [ecx]
  00005	c1 f8 02	 sar	 eax, 2

; 880  : 		}

  00008	c3		 ret	 0
?size@?$vector@PAUGuildAttendRwardInfo@@V?$allocator@PAUGuildAttendRwardInfo@@@std@@@std@@QBEIXZ ENDP ; std::vector<GuildAttendRwardInfo *,std::allocator<GuildAttendRwardInfo *> >::size
_TEXT	ENDS
PUBLIC	??A?$vector@PAUGuildAttendRwardInfo@@V?$allocator@PAUGuildAttendRwardInfo@@@std@@@std@@QBEABQAUGuildAttendRwardInfo@@I@Z ; std::vector<GuildAttendRwardInfo *,std::allocator<GuildAttendRwardInfo *> >::operator[]
; Function compile flags: /Ogsp
;	COMDAT ??A?$vector@PAUGuildAttendRwardInfo@@V?$allocator@PAUGuildAttendRwardInfo@@@std@@@std@@QBEABQAUGuildAttendRwardInfo@@I@Z
_TEXT	SEGMENT
__Pos$ = 8						; size = 4
??A?$vector@PAUGuildAttendRwardInfo@@V?$allocator@PAUGuildAttendRwardInfo@@@std@@@std@@QBEABQAUGuildAttendRwardInfo@@I@Z PROC ; std::vector<GuildAttendRwardInfo *,std::allocator<GuildAttendRwardInfo *> >::operator[], COMDAT
; _this$ = ecx

; 912  : 		{	// subscript nonmutable sequence

  00000	55		 push	 ebp
  00001	8b ec		 mov	 ebp, esp

; 913  :  #if _ITERATOR_DEBUG_LEVEL == 2
; 914  : 		if (size() <= _Pos)
; 915  : 			{	// report error
; 916  : 			_DEBUG_ERROR("vector subscript out of range");
; 917  : 			_SCL_SECURE_OUT_OF_RANGE;
; 918  : 			}
; 919  : 
; 920  :  #elif _ITERATOR_DEBUG_LEVEL == 1
; 921  : 		_SCL_SECURE_VALIDATE_RANGE(_Pos < size());
; 922  :  #endif /* _ITERATOR_DEBUG_LEVEL */
; 923  : 
; 924  : 		return (*(this->_Myfirst + _Pos));

  00003	8b 01		 mov	 eax, DWORD PTR [ecx]
  00005	8b 4d 08	 mov	 ecx, DWORD PTR __Pos$[ebp]
  00008	8d 04 88	 lea	 eax, DWORD PTR [eax+ecx*4]

; 925  : 		}

  0000b	5d		 pop	 ebp
  0000c	c2 04 00	 ret	 4
??A?$vector@PAUGuildAttendRwardInfo@@V?$allocator@PAUGuildAttendRwardInfo@@@std@@@std@@QBEABQAUGuildAttendRwardInfo@@I@Z ENDP ; std::vector<GuildAttendRwardInfo *,std::allocator<GuildAttendRwardInfo *> >::operator[]
_TEXT	ENDS
PUBLIC	?size@?$vector@PAUGuildRankRwardInfo@@V?$allocator@PAUGuildRankRwardInfo@@@std@@@std@@QBEIXZ ; std::vector<GuildRankRwardInfo *,std::allocator<GuildRankRwardInfo *> >::size
; Function compile flags: /Ogsp
;	COMDAT ?size@?$vector@PAUGuildRankRwardInfo@@V?$allocator@PAUGuildRankRwardInfo@@@std@@@std@@QBEIXZ
_TEXT	SEGMENT
?size@?$vector@PAUGuildRankRwardInfo@@V?$allocator@PAUGuildRankRwardInfo@@@std@@@std@@QBEIXZ PROC ; std::vector<GuildRankRwardInfo *,std::allocator<GuildRankRwardInfo *> >::size, COMDAT
; _this$ = ecx

; 879  : 		return (this->_Mylast - this->_Myfirst);

  00000	8b 41 04	 mov	 eax, DWORD PTR [ecx+4]
  00003	2b 01		 sub	 eax, DWORD PTR [ecx]
  00005	c1 f8 02	 sar	 eax, 2

; 880  : 		}

  00008	c3		 ret	 0
?size@?$vector@PAUGuildRankRwardInfo@@V?$allocator@PAUGuildRankRwardInfo@@@std@@@std@@QBEIXZ ENDP ; std::vector<GuildRankRwardInfo *,std::allocator<GuildRankRwardInfo *> >::size
_TEXT	ENDS
PUBLIC	??A?$vector@PAUGuildRankRwardInfo@@V?$allocator@PAUGuildRankRwardInfo@@@std@@@std@@QBEABQAUGuildRankRwardInfo@@I@Z ; std::vector<GuildRankRwardInfo *,std::allocator<GuildRankRwardInfo *> >::operator[]
; Function compile flags: /Ogsp
;	COMDAT ??A?$vector@PAUGuildRankRwardInfo@@V?$allocator@PAUGuildRankRwardInfo@@@std@@@std@@QBEABQAUGuildRankRwardInfo@@I@Z
_TEXT	SEGMENT
__Pos$ = 8						; size = 4
??A?$vector@PAUGuildRankRwardInfo@@V?$allocator@PAUGuildRankRwardInfo@@@std@@@std@@QBEABQAUGuildRankRwardInfo@@I@Z PROC ; std::vector<GuildRankRwardInfo *,std::allocator<GuildRankRwardInfo *> >::operator[], COMDAT
; _this$ = ecx

; 912  : 		{	// subscript nonmutable sequence

  00000	55		 push	 ebp
  00001	8b ec		 mov	 ebp, esp

; 913  :  #if _ITERATOR_DEBUG_LEVEL == 2
; 914  : 		if (size() <= _Pos)
; 915  : 			{	// report error
; 916  : 			_DEBUG_ERROR("vector subscript out of range");
; 917  : 			_SCL_SECURE_OUT_OF_RANGE;
; 918  : 			}
; 919  : 
; 920  :  #elif _ITERATOR_DEBUG_LEVEL == 1
; 921  : 		_SCL_SECURE_VALIDATE_RANGE(_Pos < size());
; 922  :  #endif /* _ITERATOR_DEBUG_LEVEL */
; 923  : 
; 924  : 		return (*(this->_Myfirst + _Pos));

  00003	8b 01		 mov	 eax, DWORD PTR [ecx]
  00005	8b 4d 08	 mov	 ecx, DWORD PTR __Pos$[ebp]
  00008	8d 04 88	 lea	 eax, DWORD PTR [eax+ecx*4]

; 925  : 		}

  0000b	5d		 pop	 ebp
  0000c	c2 04 00	 ret	 4
??A?$vector@PAUGuildRankRwardInfo@@V?$allocator@PAUGuildRankRwardInfo@@@std@@@std@@QBEABQAUGuildRankRwardInfo@@I@Z ENDP ; std::vector<GuildRankRwardInfo *,std::allocator<GuildRankRwardInfo *> >::operator[]
_TEXT	ENDS
PUBLIC	??0?$allocator@V?$basic_string@DU?$char_traits@D@std@@V?$allocator@D@2@@std@@@std@@QAE@ABV01@@Z ; std::allocator<std::basic_string<char,std::char_traits<char>,std::allocator<char> > >::allocator<std::basic_string<char,std::char_traits<char>,std::allocator<char> > >
; Function compile flags: /Ogsp
; File c:\program files (x86)\microsoft visual studio 10.0\vc\include\xmemory
;	COMDAT ??0?$allocator@V?$basic_string@DU?$char_traits@D@std@@V?$allocator@D@2@@std@@@std@@QAE@ABV01@@Z
_TEXT	SEGMENT
___formal$ = 8						; size = 4
??0?$allocator@V?$basic_string@DU?$char_traits@D@std@@V?$allocator@D@2@@std@@@std@@QAE@ABV01@@Z PROC ; std::allocator<std::basic_string<char,std::char_traits<char>,std::allocator<char> > >::allocator<std::basic_string<char,std::char_traits<char>,std::allocator<char> > >, COMDAT
; _this$ = ecx

; 165  : 	_ALLOCATOR(const _ALLOCATOR<_Ty>&) _THROW0()

  00000	8b c1		 mov	 eax, ecx

; 166  : 		{	// construct by copying (do nothing)
; 167  : 		}

  00002	c2 04 00	 ret	 4
??0?$allocator@V?$basic_string@DU?$char_traits@D@std@@V?$allocator@D@2@@std@@@std@@QAE@ABV01@@Z ENDP ; std::allocator<std::basic_string<char,std::char_traits<char>,std::allocator<char> > >::allocator<std::basic_string<char,std::char_traits<char>,std::allocator<char> > >
_TEXT	ENDS
PUBLIC	?capacity@?$vector@VGashaponPresent@@V?$allocator@VGashaponPresent@@@std@@@std@@QBEIXZ ; std::vector<GashaponPresent,std::allocator<GashaponPresent> >::capacity
; Function compile flags: /Ogsp
; File c:\program files (x86)\microsoft visual studio 10.0\vc\include\vector
;	COMDAT ?capacity@?$vector@VGashaponPresent@@V?$allocator@VGashaponPresent@@@std@@@std@@QBEIXZ
_TEXT	SEGMENT
?capacity@?$vector@VGashaponPresent@@V?$allocator@VGashaponPresent@@@std@@@std@@QBEIXZ PROC ; std::vector<GashaponPresent,std::allocator<GashaponPresent> >::capacity, COMDAT
; _this$ = ecx

; 777  : 		return (this->_Myend - this->_Myfirst);

  00000	8b 41 08	 mov	 eax, DWORD PTR [ecx+8]
  00003	2b 01		 sub	 eax, DWORD PTR [ecx]
  00005	6a 14		 push	 20			; 00000014H
  00007	99		 cdq
  00008	59		 pop	 ecx
  00009	f7 f9		 idiv	 ecx

; 778  : 		}

  0000b	c3		 ret	 0
?capacity@?$vector@VGashaponPresent@@V?$allocator@VGashaponPresent@@@std@@@std@@QBEIXZ ENDP ; std::vector<GashaponPresent,std::allocator<GashaponPresent> >::capacity
_TEXT	ENDS
PUBLIC	?size@?$vector@VGashaponPresent@@V?$allocator@VGashaponPresent@@@std@@@std@@QBEIXZ ; std::vector<GashaponPresent,std::allocator<GashaponPresent> >::size
; Function compile flags: /Ogsp
;	COMDAT ?size@?$vector@VGashaponPresent@@V?$allocator@VGashaponPresent@@@std@@@std@@QBEIXZ
_TEXT	SEGMENT
?size@?$vector@VGashaponPresent@@V?$allocator@VGashaponPresent@@@std@@@std@@QBEIXZ PROC ; std::vector<GashaponPresent,std::allocator<GashaponPresent> >::size, COMDAT
; _this$ = ecx

; 879  : 		return (this->_Mylast - this->_Myfirst);

  00000	8b 41 04	 mov	 eax, DWORD PTR [ecx+4]
  00003	2b 01		 sub	 eax, DWORD PTR [ecx]
  00005	6a 14		 push	 20			; 00000014H
  00007	99		 cdq
  00008	59		 pop	 ecx
  00009	f7 f9		 idiv	 ecx

; 880  : 		}

  0000b	c3		 ret	 0
?size@?$vector@VGashaponPresent@@V?$allocator@VGashaponPresent@@@std@@@std@@QBEIXZ ENDP ; std::vector<GashaponPresent,std::allocator<GashaponPresent> >::size
_TEXT	ENDS
PUBLIC	?_Inside@?$vector@UGuildUser@ioGuildData@@V?$allocator@UGuildUser@ioGuildData@@@std@@@std@@IBE_NPBUGuildUser@ioGuildData@@@Z ; std::vector<ioGuildData::GuildUser,std::allocator<ioGuildData::GuildUser> >::_Inside
; Function compile flags: /Ogsp
;	COMDAT ?_Inside@?$vector@UGuildUser@ioGuildData@@V?$allocator@UGuildUser@ioGuildData@@@std@@@std@@IBE_NPBUGuildUser@ioGuildData@@@Z
_TEXT	SEGMENT
__Ptr$ = 8						; size = 4
?_Inside@?$vector@UGuildUser@ioGuildData@@V?$allocator@UGuildUser@ioGuildData@@@std@@@std@@IBE_NPBUGuildUser@ioGuildData@@@Z PROC ; std::vector<ioGuildData::GuildUser,std::allocator<ioGuildData::GuildUser> >::_Inside, COMDAT
; _this$ = ecx

; 1285 : 		{	// test if _Ptr points inside vector

  00000	55		 push	 ebp
  00001	8b ec		 mov	 ebp, esp

; 1286 : 		return (_Ptr < this->_Mylast && this->_Myfirst <= _Ptr);

  00003	8b 45 08	 mov	 eax, DWORD PTR __Ptr$[ebp]
  00006	3b 41 04	 cmp	 eax, DWORD PTR [ecx+4]
  00009	73 09		 jae	 SHORT $LN3@Inside
  0000b	39 01		 cmp	 DWORD PTR [ecx], eax
  0000d	77 05		 ja	 SHORT $LN3@Inside
  0000f	33 c0		 xor	 eax, eax
  00011	40		 inc	 eax
  00012	eb 02		 jmp	 SHORT $LN4@Inside
$LN3@Inside:
  00014	33 c0		 xor	 eax, eax
$LN4@Inside:

; 1287 : 		}

  00016	5d		 pop	 ebp
  00017	c2 04 00	 ret	 4
?_Inside@?$vector@UGuildUser@ioGuildData@@V?$allocator@UGuildUser@ioGuildData@@@std@@@std@@IBE_NPBUGuildUser@ioGuildData@@@Z ENDP ; std::vector<ioGuildData::GuildUser,std::allocator<ioGuildData::GuildUser> >::_Inside
_TEXT	ENDS
PUBLIC	?_Orphan_range@?$vector@UGuildUser@ioGuildData@@V?$allocator@UGuildUser@ioGuildData@@@std@@@std@@IBEXPAUGuildUser@ioGuildData@@0@Z ; std::vector<ioGuildData::GuildUser,std::allocator<ioGuildData::GuildUser> >::_Orphan_range
; Function compile flags: /Ogsp
;	COMDAT ?_Orphan_range@?$vector@UGuildUser@ioGuildData@@V?$allocator@UGuildUser@ioGuildData@@@std@@@std@@IBEXPAUGuildUser@ioGuildData@@0@Z
_TEXT	SEGMENT
___formal$ = 8						; size = 4
___formal$ = 12						; size = 4
?_Orphan_range@?$vector@UGuildUser@ioGuildData@@V?$allocator@UGuildUser@ioGuildData@@@std@@@std@@IBEXPAUGuildUser@ioGuildData@@0@Z PROC ; std::vector<ioGuildData::GuildUser,std::allocator<ioGuildData::GuildUser> >::_Orphan_range, COMDAT
; _this$ = ecx

; 1454 : 		}

  00000	c2 08 00	 ret	 8
?_Orphan_range@?$vector@UGuildUser@ioGuildData@@V?$allocator@UGuildUser@ioGuildData@@@std@@@std@@IBEXPAUGuildUser@ioGuildData@@0@Z ENDP ; std::vector<ioGuildData::GuildUser,std::allocator<ioGuildData::GuildUser> >::_Orphan_range
_TEXT	ENDS
PUBLIC	??1?$_Vector_val@UGuildUser@ioGuildData@@V?$allocator@UGuildUser@ioGuildData@@@std@@@std@@QAE@XZ ; std::_Vector_val<ioGuildData::GuildUser,std::allocator<ioGuildData::GuildUser> >::~_Vector_val<ioGuildData::GuildUser,std::allocator<ioGuildData::GuildUser> >
; Function compile flags: /Ogsp
;	COMDAT ??1?$_Vector_val@UGuildUser@ioGuildData@@V?$allocator@UGuildUser@ioGuildData@@@std@@@std@@QAE@XZ
_TEXT	SEGMENT
??1?$_Vector_val@UGuildUser@ioGuildData@@V?$allocator@UGuildUser@ioGuildData@@@std@@@std@@QAE@XZ PROC ; std::_Vector_val<ioGuildData::GuildUser,std::allocator<ioGuildData::GuildUser> >::~_Vector_val<ioGuildData::GuildUser,std::allocator<ioGuildData::GuildUser> >, COMDAT
; _this$ = ecx

; 434  : 		}

  00000	c3		 ret	 0
??1?$_Vector_val@UGuildUser@ioGuildData@@V?$allocator@UGuildUser@ioGuildData@@@std@@@std@@QAE@XZ ENDP ; std::_Vector_val<ioGuildData::GuildUser,std::allocator<ioGuildData::GuildUser> >::~_Vector_val<ioGuildData::GuildUser,std::allocator<ioGuildData::GuildUser> >
_TEXT	ENDS
PUBLIC	??0?$allocator@UGuildUser@ioGuildData@@@std@@QAE@XZ ; std::allocator<ioGuildData::GuildUser>::allocator<ioGuildData::GuildUser>
; Function compile flags: /Ogsp
; File c:\program files (x86)\microsoft visual studio 10.0\vc\include\xmemory
;	COMDAT ??0?$allocator@UGuildUser@ioGuildData@@@std@@QAE@XZ
_TEXT	SEGMENT
??0?$allocator@UGuildUser@ioGuildData@@@std@@QAE@XZ PROC ; std::allocator<ioGuildData::GuildUser>::allocator<ioGuildData::GuildUser>, COMDAT
; _this$ = ecx

; 161  : 	_ALLOCATOR() _THROW0()

  00000	8b c1		 mov	 eax, ecx

; 162  : 		{	// construct default allocator (do nothing)
; 163  : 		}

  00002	c3		 ret	 0
??0?$allocator@UGuildUser@ioGuildData@@@std@@QAE@XZ ENDP ; std::allocator<ioGuildData::GuildUser>::allocator<ioGuildData::GuildUser>
_TEXT	ENDS
PUBLIC	?_Inside@?$vector@PAVioGuildData@@V?$allocator@PAVioGuildData@@@std@@@std@@IBE_NPBQAVioGuildData@@@Z ; std::vector<ioGuildData *,std::allocator<ioGuildData *> >::_Inside
; Function compile flags: /Ogsp
; File c:\program files (x86)\microsoft visual studio 10.0\vc\include\vector
;	COMDAT ?_Inside@?$vector@PAVioGuildData@@V?$allocator@PAVioGuildData@@@std@@@std@@IBE_NPBQAVioGuildData@@@Z
_TEXT	SEGMENT
__Ptr$ = 8						; size = 4
?_Inside@?$vector@PAVioGuildData@@V?$allocator@PAVioGuildData@@@std@@@std@@IBE_NPBQAVioGuildData@@@Z PROC ; std::vector<ioGuildData *,std::allocator<ioGuildData *> >::_Inside, COMDAT
; _this$ = ecx

; 1285 : 		{	// test if _Ptr points inside vector

  00000	55		 push	 ebp
  00001	8b ec		 mov	 ebp, esp

; 1286 : 		return (_Ptr < this->_Mylast && this->_Myfirst <= _Ptr);

  00003	8b 45 08	 mov	 eax, DWORD PTR __Ptr$[ebp]
  00006	3b 41 04	 cmp	 eax, DWORD PTR [ecx+4]
  00009	73 09		 jae	 SHORT $LN3@Inside@2
  0000b	39 01		 cmp	 DWORD PTR [ecx], eax
  0000d	77 05		 ja	 SHORT $LN3@Inside@2
  0000f	33 c0		 xor	 eax, eax
  00011	40		 inc	 eax
  00012	eb 02		 jmp	 SHORT $LN4@Inside@2
$LN3@Inside@2:
  00014	33 c0		 xor	 eax, eax
$LN4@Inside@2:

; 1287 : 		}

  00016	5d		 pop	 ebp
  00017	c2 04 00	 ret	 4
?_Inside@?$vector@PAVioGuildData@@V?$allocator@PAVioGuildData@@@std@@@std@@IBE_NPBQAVioGuildData@@@Z ENDP ; std::vector<ioGuildData *,std::allocator<ioGuildData *> >::_Inside
_TEXT	ENDS
PUBLIC	?_Orphan_range@?$vector@PAVioGuildData@@V?$allocator@PAVioGuildData@@@std@@@std@@IBEXPAPAVioGuildData@@0@Z ; std::vector<ioGuildData *,std::allocator<ioGuildData *> >::_Orphan_range
; Function compile flags: /Ogsp
;	COMDAT ?_Orphan_range@?$vector@PAVioGuildData@@V?$allocator@PAVioGuildData@@@std@@@std@@IBEXPAPAVioGuildData@@0@Z
_TEXT	SEGMENT
___formal$ = 8						; size = 4
___formal$ = 12						; size = 4
?_Orphan_range@?$vector@PAVioGuildData@@V?$allocator@PAVioGuildData@@@std@@@std@@IBEXPAPAVioGuildData@@0@Z PROC ; std::vector<ioGuildData *,std::allocator<ioGuildData *> >::_Orphan_range, COMDAT
; _this$ = ecx

; 1454 : 		}

  00000	c2 08 00	 ret	 8
?_Orphan_range@?$vector@PAVioGuildData@@V?$allocator@PAVioGuildData@@@std@@@std@@IBEXPAPAVioGuildData@@0@Z ENDP ; std::vector<ioGuildData *,std::allocator<ioGuildData *> >::_Orphan_range
_TEXT	ENDS
PUBLIC	??1?$_Vector_val@PAVioGuildData@@V?$allocator@PAVioGuildData@@@std@@@std@@QAE@XZ ; std::_Vector_val<ioGuildData *,std::allocator<ioGuildData *> >::~_Vector_val<ioGuildData *,std::allocator<ioGuildData *> >
; Function compile flags: /Ogsp
;	COMDAT ??1?$_Vector_val@PAVioGuildData@@V?$allocator@PAVioGuildData@@@std@@@std@@QAE@XZ
_TEXT	SEGMENT
??1?$_Vector_val@PAVioGuildData@@V?$allocator@PAVioGuildData@@@std@@@std@@QAE@XZ PROC ; std::_Vector_val<ioGuildData *,std::allocator<ioGuildData *> >::~_Vector_val<ioGuildData *,std::allocator<ioGuildData *> >, COMDAT
; _this$ = ecx

; 434  : 		}

  00000	c3		 ret	 0
??1?$_Vector_val@PAVioGuildData@@V?$allocator@PAVioGuildData@@@std@@@std@@QAE@XZ ENDP ; std::_Vector_val<ioGuildData *,std::allocator<ioGuildData *> >::~_Vector_val<ioGuildData *,std::allocator<ioGuildData *> >
_TEXT	ENDS
PUBLIC	??0?$allocator@PAVioGuildData@@@std@@QAE@XZ	; std::allocator<ioGuildData *>::allocator<ioGuildData *>
; Function compile flags: /Ogsp
; File c:\program files (x86)\microsoft visual studio 10.0\vc\include\xmemory
;	COMDAT ??0?$allocator@PAVioGuildData@@@std@@QAE@XZ
_TEXT	SEGMENT
??0?$allocator@PAVioGuildData@@@std@@QAE@XZ PROC	; std::allocator<ioGuildData *>::allocator<ioGuildData *>, COMDAT
; _this$ = ecx

; 161  : 	_ALLOCATOR() _THROW0()

  00000	8b c1		 mov	 eax, ecx

; 162  : 		{	// construct default allocator (do nothing)
; 163  : 		}

  00002	c3		 ret	 0
??0?$allocator@PAVioGuildData@@@std@@QAE@XZ ENDP	; std::allocator<ioGuildData *>::allocator<ioGuildData *>
_TEXT	ENDS
PUBLIC	?_Inside@?$vector@UInvitationUser@ioGuildInfo@@V?$allocator@UInvitationUser@ioGuildInfo@@@std@@@std@@IBE_NPBUInvitationUser@ioGuildInfo@@@Z ; std::vector<ioGuildInfo::InvitationUser,std::allocator<ioGuildInfo::InvitationUser> >::_Inside
; Function compile flags: /Ogsp
; File c:\program files (x86)\microsoft visual studio 10.0\vc\include\vector
;	COMDAT ?_Inside@?$vector@UInvitationUser@ioGuildInfo@@V?$allocator@UInvitationUser@ioGuildInfo@@@std@@@std@@IBE_NPBUInvitationUser@ioGuildInfo@@@Z
_TEXT	SEGMENT
__Ptr$ = 8						; size = 4
?_Inside@?$vector@UInvitationUser@ioGuildInfo@@V?$allocator@UInvitationUser@ioGuildInfo@@@std@@@std@@IBE_NPBUInvitationUser@ioGuildInfo@@@Z PROC ; std::vector<ioGuildInfo::InvitationUser,std::allocator<ioGuildInfo::InvitationUser> >::_Inside, COMDAT
; _this$ = ecx

; 1285 : 		{	// test if _Ptr points inside vector

  00000	55		 push	 ebp
  00001	8b ec		 mov	 ebp, esp

; 1286 : 		return (_Ptr < this->_Mylast && this->_Myfirst <= _Ptr);

  00003	8b 45 08	 mov	 eax, DWORD PTR __Ptr$[ebp]
  00006	3b 41 04	 cmp	 eax, DWORD PTR [ecx+4]
  00009	73 09		 jae	 SHORT $LN3@Inside@3
  0000b	39 01		 cmp	 DWORD PTR [ecx], eax
  0000d	77 05		 ja	 SHORT $LN3@Inside@3
  0000f	33 c0		 xor	 eax, eax
  00011	40		 inc	 eax
  00012	eb 02		 jmp	 SHORT $LN4@Inside@3
$LN3@Inside@3:
  00014	33 c0		 xor	 eax, eax
$LN4@Inside@3:

; 1287 : 		}

  00016	5d		 pop	 ebp
  00017	c2 04 00	 ret	 4
?_Inside@?$vector@UInvitationUser@ioGuildInfo@@V?$allocator@UInvitationUser@ioGuildInfo@@@std@@@std@@IBE_NPBUInvitationUser@ioGuildInfo@@@Z ENDP ; std::vector<ioGuildInfo::InvitationUser,std::allocator<ioGuildInfo::InvitationUser> >::_Inside
_TEXT	ENDS
PUBLIC	?_Orphan_range@?$vector@UInvitationUser@ioGuildInfo@@V?$allocator@UInvitationUser@ioGuildInfo@@@std@@@std@@IBEXPAUInvitationUser@ioGuildInfo@@0@Z ; std::vector<ioGuildInfo::InvitationUser,std::allocator<ioGuildInfo::InvitationUser> >::_Orphan_range
; Function compile flags: /Ogsp
;	COMDAT ?_Orphan_range@?$vector@UInvitationUser@ioGuildInfo@@V?$allocator@UInvitationUser@ioGuildInfo@@@std@@@std@@IBEXPAUInvitationUser@ioGuildInfo@@0@Z
_TEXT	SEGMENT
___formal$ = 8						; size = 4
___formal$ = 12						; size = 4
?_Orphan_range@?$vector@UInvitationUser@ioGuildInfo@@V?$allocator@UInvitationUser@ioGuildInfo@@@std@@@std@@IBEXPAUInvitationUser@ioGuildInfo@@0@Z PROC ; std::vector<ioGuildInfo::InvitationUser,std::allocator<ioGuildInfo::InvitationUser> >::_Orphan_range, COMDAT
; _this$ = ecx

; 1454 : 		}

  00000	c2 08 00	 ret	 8
?_Orphan_range@?$vector@UInvitationUser@ioGuildInfo@@V?$allocator@UInvitationUser@ioGuildInfo@@@std@@@std@@IBEXPAUInvitationUser@ioGuildInfo@@0@Z ENDP ; std::vector<ioGuildInfo::InvitationUser,std::allocator<ioGuildInfo::InvitationUser> >::_Orphan_range
_TEXT	ENDS
PUBLIC	??1?$_Vector_val@UInvitationUser@ioGuildInfo@@V?$allocator@UInvitationUser@ioGuildInfo@@@std@@@std@@QAE@XZ ; std::_Vector_val<ioGuildInfo::InvitationUser,std::allocator<ioGuildInfo::InvitationUser> >::~_Vector_val<ioGuildInfo::InvitationUser,std::allocator<ioGuildInfo::InvitationUser> >
; Function compile flags: /Ogsp
;	COMDAT ??1?$_Vector_val@UInvitationUser@ioGuildInfo@@V?$allocator@UInvitationUser@ioGuildInfo@@@std@@@std@@QAE@XZ
_TEXT	SEGMENT
??1?$_Vector_val@UInvitationUser@ioGuildInfo@@V?$allocator@UInvitationUser@ioGuildInfo@@@std@@@std@@QAE@XZ PROC ; std::_Vector_val<ioGuildInfo::InvitationUser,std::allocator<ioGuildInfo::InvitationUser> >::~_Vector_val<ioGuildInfo::InvitationUser,std::allocator<ioGuildInfo::InvitationUser> >, COMDAT
; _this$ = ecx

; 434  : 		}

  00000	c3		 ret	 0
??1?$_Vector_val@UInvitationUser@ioGuildInfo@@V?$allocator@UInvitationUser@ioGuildInfo@@@std@@@std@@QAE@XZ ENDP ; std::_Vector_val<ioGuildInfo::InvitationUser,std::allocator<ioGuildInfo::InvitationUser> >::~_Vector_val<ioGuildInfo::InvitationUser,std::allocator<ioGuildInfo::InvitationUser> >
_TEXT	ENDS
PUBLIC	??0?$allocator@UInvitationUser@ioGuildInfo@@@std@@QAE@XZ ; std::allocator<ioGuildInfo::InvitationUser>::allocator<ioGuildInfo::InvitationUser>
; Function compile flags: /Ogsp
; File c:\program files (x86)\microsoft visual studio 10.0\vc\include\xmemory
;	COMDAT ??0?$allocator@UInvitationUser@ioGuildInfo@@@std@@QAE@XZ
_TEXT	SEGMENT
??0?$allocator@UInvitationUser@ioGuildInfo@@@std@@QAE@XZ PROC ; std::allocator<ioGuildInfo::InvitationUser>::allocator<ioGuildInfo::InvitationUser>, COMDAT
; _this$ = ecx

; 161  : 	_ALLOCATOR() _THROW0()

  00000	8b c1		 mov	 eax, ecx

; 162  : 		{	// construct default allocator (do nothing)
; 163  : 		}

  00002	c3		 ret	 0
??0?$allocator@UInvitationUser@ioGuildInfo@@@std@@QAE@XZ ENDP ; std::allocator<ioGuildInfo::InvitationUser>::allocator<ioGuildInfo::InvitationUser>
_TEXT	ENDS
PUBLIC	?_Inside@?$vector@PAUGuildAttendRwardInfo@@V?$allocator@PAUGuildAttendRwardInfo@@@std@@@std@@IBE_NPBQAUGuildAttendRwardInfo@@@Z ; std::vector<GuildAttendRwardInfo *,std::allocator<GuildAttendRwardInfo *> >::_Inside
; Function compile flags: /Ogsp
; File c:\program files (x86)\microsoft visual studio 10.0\vc\include\vector
;	COMDAT ?_Inside@?$vector@PAUGuildAttendRwardInfo@@V?$allocator@PAUGuildAttendRwardInfo@@@std@@@std@@IBE_NPBQAUGuildAttendRwardInfo@@@Z
_TEXT	SEGMENT
__Ptr$ = 8						; size = 4
?_Inside@?$vector@PAUGuildAttendRwardInfo@@V?$allocator@PAUGuildAttendRwardInfo@@@std@@@std@@IBE_NPBQAUGuildAttendRwardInfo@@@Z PROC ; std::vector<GuildAttendRwardInfo *,std::allocator<GuildAttendRwardInfo *> >::_Inside, COMDAT
; _this$ = ecx

; 1285 : 		{	// test if _Ptr points inside vector

  00000	55		 push	 ebp
  00001	8b ec		 mov	 ebp, esp

; 1286 : 		return (_Ptr < this->_Mylast && this->_Myfirst <= _Ptr);

  00003	8b 45 08	 mov	 eax, DWORD PTR __Ptr$[ebp]
  00006	3b 41 04	 cmp	 eax, DWORD PTR [ecx+4]
  00009	73 09		 jae	 SHORT $LN3@Inside@4
  0000b	39 01		 cmp	 DWORD PTR [ecx], eax
  0000d	77 05		 ja	 SHORT $LN3@Inside@4
  0000f	33 c0		 xor	 eax, eax
  00011	40		 inc	 eax
  00012	eb 02		 jmp	 SHORT $LN4@Inside@4
$LN3@Inside@4:
  00014	33 c0		 xor	 eax, eax
$LN4@Inside@4:

; 1287 : 		}

  00016	5d		 pop	 ebp
  00017	c2 04 00	 ret	 4
?_Inside@?$vector@PAUGuildAttendRwardInfo@@V?$allocator@PAUGuildAttendRwardInfo@@@std@@@std@@IBE_NPBQAUGuildAttendRwardInfo@@@Z ENDP ; std::vector<GuildAttendRwardInfo *,std::allocator<GuildAttendRwardInfo *> >::_Inside
_TEXT	ENDS
PUBLIC	?_Orphan_range@?$vector@PAUGuildAttendRwardInfo@@V?$allocator@PAUGuildAttendRwardInfo@@@std@@@std@@IBEXPAPAUGuildAttendRwardInfo@@0@Z ; std::vector<GuildAttendRwardInfo *,std::allocator<GuildAttendRwardInfo *> >::_Orphan_range
; Function compile flags: /Ogsp
;	COMDAT ?_Orphan_range@?$vector@PAUGuildAttendRwardInfo@@V?$allocator@PAUGuildAttendRwardInfo@@@std@@@std@@IBEXPAPAUGuildAttendRwardInfo@@0@Z
_TEXT	SEGMENT
___formal$ = 8						; size = 4
___formal$ = 12						; size = 4
?_Orphan_range@?$vector@PAUGuildAttendRwardInfo@@V?$allocator@PAUGuildAttendRwardInfo@@@std@@@std@@IBEXPAPAUGuildAttendRwardInfo@@0@Z PROC ; std::vector<GuildAttendRwardInfo *,std::allocator<GuildAttendRwardInfo *> >::_Orphan_range, COMDAT
; _this$ = ecx

; 1454 : 		}

  00000	c2 08 00	 ret	 8
?_Orphan_range@?$vector@PAUGuildAttendRwardInfo@@V?$allocator@PAUGuildAttendRwardInfo@@@std@@@std@@IBEXPAPAUGuildAttendRwardInfo@@0@Z ENDP ; std::vector<GuildAttendRwardInfo *,std::allocator<GuildAttendRwardInfo *> >::_Orphan_range
_TEXT	ENDS
PUBLIC	??1?$_Vector_val@PAUGuildAttendRwardInfo@@V?$allocator@PAUGuildAttendRwardInfo@@@std@@@std@@QAE@XZ ; std::_Vector_val<GuildAttendRwardInfo *,std::allocator<GuildAttendRwardInfo *> >::~_Vector_val<GuildAttendRwardInfo *,std::allocator<GuildAttendRwardInfo *> >
; Function compile flags: /Ogsp
;	COMDAT ??1?$_Vector_val@PAUGuildAttendRwardInfo@@V?$allocator@PAUGuildAttendRwardInfo@@@std@@@std@@QAE@XZ
_TEXT	SEGMENT
??1?$_Vector_val@PAUGuildAttendRwardInfo@@V?$allocator@PAUGuildAttendRwardInfo@@@std@@@std@@QAE@XZ PROC ; std::_Vector_val<GuildAttendRwardInfo *,std::allocator<GuildAttendRwardInfo *> >::~_Vector_val<GuildAttendRwardInfo *,std::allocator<GuildAttendRwardInfo *> >, COMDAT
; _this$ = ecx

; 434  : 		}

  00000	c3		 ret	 0
??1?$_Vector_val@PAUGuildAttendRwardInfo@@V?$allocator@PAUGuildAttendRwardInfo@@@std@@@std@@QAE@XZ ENDP ; std::_Vector_val<GuildAttendRwardInfo *,std::allocator<GuildAttendRwardInfo *> >::~_Vector_val<GuildAttendRwardInfo *,std::allocator<GuildAttendRwardInfo *> >
_TEXT	ENDS
PUBLIC	??0?$allocator@PAUGuildAttendRwardInfo@@@std@@QAE@XZ ; std::allocator<GuildAttendRwardInfo *>::allocator<GuildAttendRwardInfo *>
; Function compile flags: /Ogsp
; File c:\program files (x86)\microsoft visual studio 10.0\vc\include\xmemory
;	COMDAT ??0?$allocator@PAUGuildAttendRwardInfo@@@std@@QAE@XZ
_TEXT	SEGMENT
??0?$allocator@PAUGuildAttendRwardInfo@@@std@@QAE@XZ PROC ; std::allocator<GuildAttendRwardInfo *>::allocator<GuildAttendRwardInfo *>, COMDAT
; _this$ = ecx

; 161  : 	_ALLOCATOR() _THROW0()

  00000	8b c1		 mov	 eax, ecx

; 162  : 		{	// construct default allocator (do nothing)
; 163  : 		}

  00002	c3		 ret	 0
??0?$allocator@PAUGuildAttendRwardInfo@@@std@@QAE@XZ ENDP ; std::allocator<GuildAttendRwardInfo *>::allocator<GuildAttendRwardInfo *>
_TEXT	ENDS
PUBLIC	?_Inside@?$vector@PAUGuildRankRwardInfo@@V?$allocator@PAUGuildRankRwardInfo@@@std@@@std@@IBE_NPBQAUGuildRankRwardInfo@@@Z ; std::vector<GuildRankRwardInfo *,std::allocator<GuildRankRwardInfo *> >::_Inside
; Function compile flags: /Ogsp
; File c:\program files (x86)\microsoft visual studio 10.0\vc\include\vector
;	COMDAT ?_Inside@?$vector@PAUGuildRankRwardInfo@@V?$allocator@PAUGuildRankRwardInfo@@@std@@@std@@IBE_NPBQAUGuildRankRwardInfo@@@Z
_TEXT	SEGMENT
__Ptr$ = 8						; size = 4
?_Inside@?$vector@PAUGuildRankRwardInfo@@V?$allocator@PAUGuildRankRwardInfo@@@std@@@std@@IBE_NPBQAUGuildRankRwardInfo@@@Z PROC ; std::vector<GuildRankRwardInfo *,std::allocator<GuildRankRwardInfo *> >::_Inside, COMDAT
; _this$ = ecx

; 1285 : 		{	// test if _Ptr points inside vector

  00000	55		 push	 ebp
  00001	8b ec		 mov	 ebp, esp

; 1286 : 		return (_Ptr < this->_Mylast && this->_Myfirst <= _Ptr);

  00003	8b 45 08	 mov	 eax, DWORD PTR __Ptr$[ebp]
  00006	3b 41 04	 cmp	 eax, DWORD PTR [ecx+4]
  00009	73 09		 jae	 SHORT $LN3@Inside@5
  0000b	39 01		 cmp	 DWORD PTR [ecx], eax
  0000d	77 05		 ja	 SHORT $LN3@Inside@5
  0000f	33 c0		 xor	 eax, eax
  00011	40		 inc	 eax
  00012	eb 02		 jmp	 SHORT $LN4@Inside@5
$LN3@Inside@5:
  00014	33 c0		 xor	 eax, eax
$LN4@Inside@5:

; 1287 : 		}

  00016	5d		 pop	 ebp
  00017	c2 04 00	 ret	 4
?_Inside@?$vector@PAUGuildRankRwardInfo@@V?$allocator@PAUGuildRankRwardInfo@@@std@@@std@@IBE_NPBQAUGuildRankRwardInfo@@@Z ENDP ; std::vector<GuildRankRwardInfo *,std::allocator<GuildRankRwardInfo *> >::_Inside
_TEXT	ENDS
PUBLIC	?_Orphan_range@?$vector@PAUGuildRankRwardInfo@@V?$allocator@PAUGuildRankRwardInfo@@@std@@@std@@IBEXPAPAUGuildRankRwardInfo@@0@Z ; std::vector<GuildRankRwardInfo *,std::allocator<GuildRankRwardInfo *> >::_Orphan_range
; Function compile flags: /Ogsp
;	COMDAT ?_Orphan_range@?$vector@PAUGuildRankRwardInfo@@V?$allocator@PAUGuildRankRwardInfo@@@std@@@std@@IBEXPAPAUGuildRankRwardInfo@@0@Z
_TEXT	SEGMENT
___formal$ = 8						; size = 4
___formal$ = 12						; size = 4
?_Orphan_range@?$vector@PAUGuildRankRwardInfo@@V?$allocator@PAUGuildRankRwardInfo@@@std@@@std@@IBEXPAPAUGuildRankRwardInfo@@0@Z PROC ; std::vector<GuildRankRwardInfo *,std::allocator<GuildRankRwardInfo *> >::_Orphan_range, COMDAT
; _this$ = ecx

; 1454 : 		}

  00000	c2 08 00	 ret	 8
?_Orphan_range@?$vector@PAUGuildRankRwardInfo@@V?$allocator@PAUGuildRankRwardInfo@@@std@@@std@@IBEXPAPAUGuildRankRwardInfo@@0@Z ENDP ; std::vector<GuildRankRwardInfo *,std::allocator<GuildRankRwardInfo *> >::_Orphan_range
_TEXT	ENDS
PUBLIC	??1?$_Vector_val@PAUGuildRankRwardInfo@@V?$allocator@PAUGuildRankRwardInfo@@@std@@@std@@QAE@XZ ; std::_Vector_val<GuildRankRwardInfo *,std::allocator<GuildRankRwardInfo *> >::~_Vector_val<GuildRankRwardInfo *,std::allocator<GuildRankRwardInfo *> >
; Function compile flags: /Ogsp
;	COMDAT ??1?$_Vector_val@PAUGuildRankRwardInfo@@V?$allocator@PAUGuildRankRwardInfo@@@std@@@std@@QAE@XZ
_TEXT	SEGMENT
??1?$_Vector_val@PAUGuildRankRwardInfo@@V?$allocator@PAUGuildRankRwardInfo@@@std@@@std@@QAE@XZ PROC ; std::_Vector_val<GuildRankRwardInfo *,std::allocator<GuildRankRwardInfo *> >::~_Vector_val<GuildRankRwardInfo *,std::allocator<GuildRankRwardInfo *> >, COMDAT
; _this$ = ecx

; 434  : 		}

  00000	c3		 ret	 0
??1?$_Vector_val@PAUGuildRankRwardInfo@@V?$allocator@PAUGuildRankRwardInfo@@@std@@@std@@QAE@XZ ENDP ; std::_Vector_val<GuildRankRwardInfo *,std::allocator<GuildRankRwardInfo *> >::~_Vector_val<GuildRankRwardInfo *,std::allocator<GuildRankRwardInfo *> >
_TEXT	ENDS
PUBLIC	??0?$allocator@PAUGuildRankRwardInfo@@@std@@QAE@XZ ; std::allocator<GuildRankRwardInfo *>::allocator<GuildRankRwardInfo *>
; Function compile flags: /Ogsp
; File c:\program files (x86)\microsoft visual studio 10.0\vc\include\xmemory
;	COMDAT ??0?$allocator@PAUGuildRankRwardInfo@@@std@@QAE@XZ
_TEXT	SEGMENT
??0?$allocator@PAUGuildRankRwardInfo@@@std@@QAE@XZ PROC	; std::allocator<GuildRankRwardInfo *>::allocator<GuildRankRwardInfo *>, COMDAT
; _this$ = ecx

; 161  : 	_ALLOCATOR() _THROW0()

  00000	8b c1		 mov	 eax, ecx

; 162  : 		{	// construct default allocator (do nothing)
; 163  : 		}

  00002	c3		 ret	 0
??0?$allocator@PAUGuildRankRwardInfo@@@std@@QAE@XZ ENDP	; std::allocator<GuildRankRwardInfo *>::allocator<GuildRankRwardInfo *>
_TEXT	ENDS
PUBLIC	??0?$_Vector_const_iterator@V?$_Vector_val@UGuildUser@ioGuildData@@V?$allocator@UGuildUser@ioGuildData@@@std@@@std@@@std@@QAE@XZ ; std::_Vector_const_iterator<std::_Vector_val<ioGuildData::GuildUser,std::allocator<ioGuildData::GuildUser> > >::_Vector_const_iterator<std::_Vector_val<ioGuildData::GuildUser,std::allocator<ioGuildData::GuildUser> > >
; Function compile flags: /Ogsp
; File c:\program files (x86)\microsoft visual studio 10.0\vc\include\vector
;	COMDAT ??0?$_Vector_const_iterator@V?$_Vector_val@UGuildUser@ioGuildData@@V?$allocator@UGuildUser@ioGuildData@@@std@@@std@@@std@@QAE@XZ
_TEXT	SEGMENT
??0?$_Vector_const_iterator@V?$_Vector_val@UGuildUser@ioGuildData@@V?$allocator@UGuildUser@ioGuildData@@@std@@@std@@@std@@QAE@XZ PROC ; std::_Vector_const_iterator<std::_Vector_val<ioGuildData::GuildUser,std::allocator<ioGuildData::GuildUser> > >::_Vector_const_iterator<std::_Vector_val<ioGuildData::GuildUser,std::allocator<ioGuildData::GuildUser> > >, COMDAT
; _this$ = ecx

; 40   : 		{	// construct with null pointer

  00000	8b c1		 mov	 eax, ecx
  00002	83 20 00	 and	 DWORD PTR [eax], 0

; 41   : 		}

  00005	c3		 ret	 0
??0?$_Vector_const_iterator@V?$_Vector_val@UGuildUser@ioGuildData@@V?$allocator@UGuildUser@ioGuildData@@@std@@@std@@@std@@QAE@XZ ENDP ; std::_Vector_const_iterator<std::_Vector_val<ioGuildData::GuildUser,std::allocator<ioGuildData::GuildUser> > >::_Vector_const_iterator<std::_Vector_val<ioGuildData::GuildUser,std::allocator<ioGuildData::GuildUser> > >
_TEXT	ENDS
PUBLIC	??D?$_Vector_const_iterator@V?$_Vector_val@UGuildUser@ioGuildData@@V?$allocator@UGuildUser@ioGuildData@@@std@@@std@@@std@@QBEABUGuildUser@ioGuildData@@XZ ; std::_Vector_const_iterator<std::_Vector_val<ioGuildData::GuildUser,std::allocator<ioGuildData::GuildUser> > >::operator*
; Function compile flags: /Ogsp
;	COMDAT ??D?$_Vector_const_iterator@V?$_Vector_val@UGuildUser@ioGuildData@@V?$allocator@UGuildUser@ioGuildData@@@std@@@std@@@std@@QBEABUGuildUser@ioGuildData@@XZ
_TEXT	SEGMENT
??D?$_Vector_const_iterator@V?$_Vector_val@UGuildUser@ioGuildData@@V?$allocator@UGuildUser@ioGuildData@@@std@@@std@@@std@@QBEABUGuildUser@ioGuildData@@XZ PROC ; std::_Vector_const_iterator<std::_Vector_val<ioGuildData::GuildUser,std::allocator<ioGuildData::GuildUser> > >::operator*, COMDAT
; _this$ = ecx

; 64   :  #if _ITERATOR_DEBUG_LEVEL == 2
; 65   : 		if (this->_Getcont() == 0
; 66   : 			|| this->_Ptr == 0
; 67   : 			|| this->_Ptr < ((_Myvec *)this->_Getcont())->_Myfirst
; 68   : 			|| ((_Myvec *)this->_Getcont())->_Mylast <= this->_Ptr)
; 69   : 			{	// report error
; 70   : 			_DEBUG_ERROR("vector iterator not dereferencable");
; 71   : 			_SCL_SECURE_OUT_OF_RANGE;
; 72   : 			}
; 73   : 
; 74   :  #elif _ITERATOR_DEBUG_LEVEL == 1
; 75   : 		_SCL_SECURE_VALIDATE(this->_Getcont() != 0);
; 76   : 		_SCL_SECURE_VALIDATE_RANGE(
; 77   : 			this->_Ptr != 0
; 78   : 			&& ((_Myvec *)this->_Getcont())->_Myfirst <= this->_Ptr
; 79   : 			&& this->_Ptr < ((_Myvec *)this->_Getcont())->_Mylast);
; 80   :  #endif /* _ITERATOR_DEBUG_LEVEL */
; 81   : 
; 82   : 		__analysis_assume(this->_Ptr != 0);
; 83   : 
; 84   : 		return (*this->_Ptr);

  00000	8b 01		 mov	 eax, DWORD PTR [ecx]

; 85   : 		}

  00002	c3		 ret	 0
??D?$_Vector_const_iterator@V?$_Vector_val@UGuildUser@ioGuildData@@V?$allocator@UGuildUser@ioGuildData@@@std@@@std@@@std@@QBEABUGuildUser@ioGuildData@@XZ ENDP ; std::_Vector_const_iterator<std::_Vector_val<ioGuildData::GuildUser,std::allocator<ioGuildData::GuildUser> > >::operator*
_TEXT	ENDS
PUBLIC	??0?$_Vector_const_iterator@V?$_Vector_val@PAVioGuildData@@V?$allocator@PAVioGuildData@@@std@@@std@@@std@@QAE@XZ ; std::_Vector_const_iterator<std::_Vector_val<ioGuildData *,std::allocator<ioGuildData *> > >::_Vector_const_iterator<std::_Vector_val<ioGuildData *,std::allocator<ioGuildData *> > >
; Function compile flags: /Ogsp
;	COMDAT ??0?$_Vector_const_iterator@V?$_Vector_val@PAVioGuildData@@V?$allocator@PAVioGuildData@@@std@@@std@@@std@@QAE@XZ
_TEXT	SEGMENT
??0?$_Vector_const_iterator@V?$_Vector_val@PAVioGuildData@@V?$allocator@PAVioGuildData@@@std@@@std@@@std@@QAE@XZ PROC ; std::_Vector_const_iterator<std::_Vector_val<ioGuildData *,std::allocator<ioGuildData *> > >::_Vector_const_iterator<std::_Vector_val<ioGuildData *,std::allocator<ioGuildData *> > >, COMDAT
; _this$ = ecx

; 40   : 		{	// construct with null pointer

  00000	8b c1		 mov	 eax, ecx
  00002	83 20 00	 and	 DWORD PTR [eax], 0

; 41   : 		}

  00005	c3		 ret	 0
??0?$_Vector_const_iterator@V?$_Vector_val@PAVioGuildData@@V?$allocator@PAVioGuildData@@@std@@@std@@@std@@QAE@XZ ENDP ; std::_Vector_const_iterator<std::_Vector_val<ioGuildData *,std::allocator<ioGuildData *> > >::_Vector_const_iterator<std::_Vector_val<ioGuildData *,std::allocator<ioGuildData *> > >
_TEXT	ENDS
PUBLIC	??D?$_Vector_const_iterator@V?$_Vector_val@PAVioGuildData@@V?$allocator@PAVioGuildData@@@std@@@std@@@std@@QBEABQAVioGuildData@@XZ ; std::_Vector_const_iterator<std::_Vector_val<ioGuildData *,std::allocator<ioGuildData *> > >::operator*
; Function compile flags: /Ogsp
;	COMDAT ??D?$_Vector_const_iterator@V?$_Vector_val@PAVioGuildData@@V?$allocator@PAVioGuildData@@@std@@@std@@@std@@QBEABQAVioGuildData@@XZ
_TEXT	SEGMENT
??D?$_Vector_const_iterator@V?$_Vector_val@PAVioGuildData@@V?$allocator@PAVioGuildData@@@std@@@std@@@std@@QBEABQAVioGuildData@@XZ PROC ; std::_Vector_const_iterator<std::_Vector_val<ioGuildData *,std::allocator<ioGuildData *> > >::operator*, COMDAT
; _this$ = ecx

; 64   :  #if _ITERATOR_DEBUG_LEVEL == 2
; 65   : 		if (this->_Getcont() == 0
; 66   : 			|| this->_Ptr == 0
; 67   : 			|| this->_Ptr < ((_Myvec *)this->_Getcont())->_Myfirst
; 68   : 			|| ((_Myvec *)this->_Getcont())->_Mylast <= this->_Ptr)
; 69   : 			{	// report error
; 70   : 			_DEBUG_ERROR("vector iterator not dereferencable");
; 71   : 			_SCL_SECURE_OUT_OF_RANGE;
; 72   : 			}
; 73   : 
; 74   :  #elif _ITERATOR_DEBUG_LEVEL == 1
; 75   : 		_SCL_SECURE_VALIDATE(this->_Getcont() != 0);
; 76   : 		_SCL_SECURE_VALIDATE_RANGE(
; 77   : 			this->_Ptr != 0
; 78   : 			&& ((_Myvec *)this->_Getcont())->_Myfirst <= this->_Ptr
; 79   : 			&& this->_Ptr < ((_Myvec *)this->_Getcont())->_Mylast);
; 80   :  #endif /* _ITERATOR_DEBUG_LEVEL */
; 81   : 
; 82   : 		__analysis_assume(this->_Ptr != 0);
; 83   : 
; 84   : 		return (*this->_Ptr);

  00000	8b 01		 mov	 eax, DWORD PTR [ecx]

; 85   : 		}

  00002	c3		 ret	 0
??D?$_Vector_const_iterator@V?$_Vector_val@PAVioGuildData@@V?$allocator@PAVioGuildData@@@std@@@std@@@std@@QBEABQAVioGuildData@@XZ ENDP ; std::_Vector_const_iterator<std::_Vector_val<ioGuildData *,std::allocator<ioGuildData *> > >::operator*
_TEXT	ENDS
PUBLIC	??E?$_Vector_const_iterator@V?$_Vector_val@PAVioGuildData@@V?$allocator@PAVioGuildData@@@std@@@std@@@std@@QAEAAV01@XZ ; std::_Vector_const_iterator<std::_Vector_val<ioGuildData *,std::allocator<ioGuildData *> > >::operator++
; Function compile flags: /Ogsp
;	COMDAT ??E?$_Vector_const_iterator@V?$_Vector_val@PAVioGuildData@@V?$allocator@PAVioGuildData@@@std@@@std@@@std@@QAEAAV01@XZ
_TEXT	SEGMENT
??E?$_Vector_const_iterator@V?$_Vector_val@PAVioGuildData@@V?$allocator@PAVioGuildData@@@std@@@std@@@std@@QAEAAV01@XZ PROC ; std::_Vector_const_iterator<std::_Vector_val<ioGuildData *,std::allocator<ioGuildData *> > >::operator++, COMDAT
; _this$ = ecx

; 93   : 		{	// preincrement

  00000	8b c1		 mov	 eax, ecx

; 94   :  #if _ITERATOR_DEBUG_LEVEL == 2
; 95   : 		if (this->_Getcont() == 0
; 96   : 			|| this->_Ptr == 0
; 97   : 			|| ((_Myvec *)this->_Getcont())->_Mylast <= this->_Ptr)
; 98   : 			{	// report error
; 99   : 			_DEBUG_ERROR("vector iterator not incrementable");
; 100  : 			_SCL_SECURE_OUT_OF_RANGE;
; 101  : 			}
; 102  : 
; 103  :  #elif _ITERATOR_DEBUG_LEVEL == 1
; 104  : 		_SCL_SECURE_VALIDATE(this->_Getcont() != 0);
; 105  : 		_SCL_SECURE_VALIDATE_RANGE(
; 106  : 			this->_Ptr != 0
; 107  : 			&& this->_Ptr < ((_Myvec *)this->_Getcont())->_Mylast);
; 108  :  #endif /* _ITERATOR_DEBUG_LEVEL */
; 109  : 
; 110  : 		++this->_Ptr;

  00002	83 00 04	 add	 DWORD PTR [eax], 4

; 111  : 		return (*this);
; 112  : 		}

  00005	c3		 ret	 0
??E?$_Vector_const_iterator@V?$_Vector_val@PAVioGuildData@@V?$allocator@PAVioGuildData@@@std@@@std@@@std@@QAEAAV01@XZ ENDP ; std::_Vector_const_iterator<std::_Vector_val<ioGuildData *,std::allocator<ioGuildData *> > >::operator++
_TEXT	ENDS
PUBLIC	??D?$_Vector_const_iterator@V?$_Vector_val@PAUGuildRankRwardInfo@@V?$allocator@PAUGuildRankRwardInfo@@@std@@@std@@@std@@QBEABQAUGuildRankRwardInfo@@XZ ; std::_Vector_const_iterator<std::_Vector_val<GuildRankRwardInfo *,std::allocator<GuildRankRwardInfo *> > >::operator*
; Function compile flags: /Ogsp
;	COMDAT ??D?$_Vector_const_iterator@V?$_Vector_val@PAUGuildRankRwardInfo@@V?$allocator@PAUGuildRankRwardInfo@@@std@@@std@@@std@@QBEABQAUGuildRankRwardInfo@@XZ
_TEXT	SEGMENT
??D?$_Vector_const_iterator@V?$_Vector_val@PAUGuildRankRwardInfo@@V?$allocator@PAUGuildRankRwardInfo@@@std@@@std@@@std@@QBEABQAUGuildRankRwardInfo@@XZ PROC ; std::_Vector_const_iterator<std::_Vector_val<GuildRankRwardInfo *,std::allocator<GuildRankRwardInfo *> > >::operator*, COMDAT
; _this$ = ecx

; 64   :  #if _ITERATOR_DEBUG_LEVEL == 2
; 65   : 		if (this->_Getcont() == 0
; 66   : 			|| this->_Ptr == 0
; 67   : 			|| this->_Ptr < ((_Myvec *)this->_Getcont())->_Myfirst
; 68   : 			|| ((_Myvec *)this->_Getcont())->_Mylast <= this->_Ptr)
; 69   : 			{	// report error
; 70   : 			_DEBUG_ERROR("vector iterator not dereferencable");
; 71   : 			_SCL_SECURE_OUT_OF_RANGE;
; 72   : 			}
; 73   : 
; 74   :  #elif _ITERATOR_DEBUG_LEVEL == 1
; 75   : 		_SCL_SECURE_VALIDATE(this->_Getcont() != 0);
; 76   : 		_SCL_SECURE_VALIDATE_RANGE(
; 77   : 			this->_Ptr != 0
; 78   : 			&& ((_Myvec *)this->_Getcont())->_Myfirst <= this->_Ptr
; 79   : 			&& this->_Ptr < ((_Myvec *)this->_Getcont())->_Mylast);
; 80   :  #endif /* _ITERATOR_DEBUG_LEVEL */
; 81   : 
; 82   : 		__analysis_assume(this->_Ptr != 0);
; 83   : 
; 84   : 		return (*this->_Ptr);

  00000	8b 01		 mov	 eax, DWORD PTR [ecx]

; 85   : 		}

  00002	c3		 ret	 0
??D?$_Vector_const_iterator@V?$_Vector_val@PAUGuildRankRwardInfo@@V?$allocator@PAUGuildRankRwardInfo@@@std@@@std@@@std@@QBEABQAUGuildRankRwardInfo@@XZ ENDP ; std::_Vector_const_iterator<std::_Vector_val<GuildRankRwardInfo *,std::allocator<GuildRankRwardInfo *> > >::operator*
_TEXT	ENDS
PUBLIC	??E?$_Vector_const_iterator@V?$_Vector_val@PAUGuildRankRwardInfo@@V?$allocator@PAUGuildRankRwardInfo@@@std@@@std@@@std@@QAEAAV01@XZ ; std::_Vector_const_iterator<std::_Vector_val<GuildRankRwardInfo *,std::allocator<GuildRankRwardInfo *> > >::operator++
; Function compile flags: /Ogsp
;	COMDAT ??E?$_Vector_const_iterator@V?$_Vector_val@PAUGuildRankRwardInfo@@V?$allocator@PAUGuildRankRwardInfo@@@std@@@std@@@std@@QAEAAV01@XZ
_TEXT	SEGMENT
??E?$_Vector_const_iterator@V?$_Vector_val@PAUGuildRankRwardInfo@@V?$allocator@PAUGuildRankRwardInfo@@@std@@@std@@@std@@QAEAAV01@XZ PROC ; std::_Vector_const_iterator<std::_Vector_val<GuildRankRwardInfo *,std::allocator<GuildRankRwardInfo *> > >::operator++, COMDAT
; _this$ = ecx

; 93   : 		{	// preincrement

  00000	8b c1		 mov	 eax, ecx

; 94   :  #if _ITERATOR_DEBUG_LEVEL == 2
; 95   : 		if (this->_Getcont() == 0
; 96   : 			|| this->_Ptr == 0
; 97   : 			|| ((_Myvec *)this->_Getcont())->_Mylast <= this->_Ptr)
; 98   : 			{	// report error
; 99   : 			_DEBUG_ERROR("vector iterator not incrementable");
; 100  : 			_SCL_SECURE_OUT_OF_RANGE;
; 101  : 			}
; 102  : 
; 103  :  #elif _ITERATOR_DEBUG_LEVEL == 1
; 104  : 		_SCL_SECURE_VALIDATE(this->_Getcont() != 0);
; 105  : 		_SCL_SECURE_VALIDATE_RANGE(
; 106  : 			this->_Ptr != 0
; 107  : 			&& this->_Ptr < ((_Myvec *)this->_Getcont())->_Mylast);
; 108  :  #endif /* _ITERATOR_DEBUG_LEVEL */
; 109  : 
; 110  : 		++this->_Ptr;

  00002	83 00 04	 add	 DWORD PTR [eax], 4

; 111  : 		return (*this);
; 112  : 		}

  00005	c3		 ret	 0
??E?$_Vector_const_iterator@V?$_Vector_val@PAUGuildRankRwardInfo@@V?$allocator@PAUGuildRankRwardInfo@@@std@@@std@@@std@@QAEAAV01@XZ ENDP ; std::_Vector_const_iterator<std::_Vector_val<GuildRankRwardInfo *,std::allocator<GuildRankRwardInfo *> > >::operator++
_TEXT	ENDS
PUBLIC	??D?$_Vector_const_iterator@V?$_Vector_val@PAUGuildAttendRwardInfo@@V?$allocator@PAUGuildAttendRwardInfo@@@std@@@std@@@std@@QBEABQAUGuildAttendRwardInfo@@XZ ; std::_Vector_const_iterator<std::_Vector_val<GuildAttendRwardInfo *,std::allocator<GuildAttendRwardInfo *> > >::operator*
; Function compile flags: /Ogsp
;	COMDAT ??D?$_Vector_const_iterator@V?$_Vector_val@PAUGuildAttendRwardInfo@@V?$allocator@PAUGuildAttendRwardInfo@@@std@@@std@@@std@@QBEABQAUGuildAttendRwardInfo@@XZ
_TEXT	SEGMENT
??D?$_Vector_const_iterator@V?$_Vector_val@PAUGuildAttendRwardInfo@@V?$allocator@PAUGuildAttendRwardInfo@@@std@@@std@@@std@@QBEABQAUGuildAttendRwardInfo@@XZ PROC ; std::_Vector_const_iterator<std::_Vector_val<GuildAttendRwardInfo *,std::allocator<GuildAttendRwardInfo *> > >::operator*, COMDAT
; _this$ = ecx

; 64   :  #if _ITERATOR_DEBUG_LEVEL == 2
; 65   : 		if (this->_Getcont() == 0
; 66   : 			|| this->_Ptr == 0
; 67   : 			|| this->_Ptr < ((_Myvec *)this->_Getcont())->_Myfirst
; 68   : 			|| ((_Myvec *)this->_Getcont())->_Mylast <= this->_Ptr)
; 69   : 			{	// report error
; 70   : 			_DEBUG_ERROR("vector iterator not dereferencable");
; 71   : 			_SCL_SECURE_OUT_OF_RANGE;
; 72   : 			}
; 73   : 
; 74   :  #elif _ITERATOR_DEBUG_LEVEL == 1
; 75   : 		_SCL_SECURE_VALIDATE(this->_Getcont() != 0);
; 76   : 		_SCL_SECURE_VALIDATE_RANGE(
; 77   : 			this->_Ptr != 0
; 78   : 			&& ((_Myvec *)this->_Getcont())->_Myfirst <= this->_Ptr
; 79   : 			&& this->_Ptr < ((_Myvec *)this->_Getcont())->_Mylast);
; 80   :  #endif /* _ITERATOR_DEBUG_LEVEL */
; 81   : 
; 82   : 		__analysis_assume(this->_Ptr != 0);
; 83   : 
; 84   : 		return (*this->_Ptr);

  00000	8b 01		 mov	 eax, DWORD PTR [ecx]

; 85   : 		}

  00002	c3		 ret	 0
??D?$_Vector_const_iterator@V?$_Vector_val@PAUGuildAttendRwardInfo@@V?$allocator@PAUGuildAttendRwardInfo@@@std@@@std@@@std@@QBEABQAUGuildAttendRwardInfo@@XZ ENDP ; std::_Vector_const_iterator<std::_Vector_val<GuildAttendRwardInfo *,std::allocator<GuildAttendRwardInfo *> > >::operator*
_TEXT	ENDS
PUBLIC	??E?$_Vector_const_iterator@V?$_Vector_val@PAUGuildAttendRwardInfo@@V?$allocator@PAUGuildAttendRwardInfo@@@std@@@std@@@std@@QAEAAV01@XZ ; std::_Vector_const_iterator<std::_Vector_val<GuildAttendRwardInfo *,std::allocator<GuildAttendRwardInfo *> > >::operator++
; Function compile flags: /Ogsp
;	COMDAT ??E?$_Vector_const_iterator@V?$_Vector_val@PAUGuildAttendRwardInfo@@V?$allocator@PAUGuildAttendRwardInfo@@@std@@@std@@@std@@QAEAAV01@XZ
_TEXT	SEGMENT
??E?$_Vector_const_iterator@V?$_Vector_val@PAUGuildAttendRwardInfo@@V?$allocator@PAUGuildAttendRwardInfo@@@std@@@std@@@std@@QAEAAV01@XZ PROC ; std::_Vector_const_iterator<std::_Vector_val<GuildAttendRwardInfo *,std::allocator<GuildAttendRwardInfo *> > >::operator++, COMDAT
; _this$ = ecx

; 93   : 		{	// preincrement

  00000	8b c1		 mov	 eax, ecx

; 94   :  #if _ITERATOR_DEBUG_LEVEL == 2
; 95   : 		if (this->_Getcont() == 0
; 96   : 			|| this->_Ptr == 0
; 97   : 			|| ((_Myvec *)this->_Getcont())->_Mylast <= this->_Ptr)
; 98   : 			{	// report error
; 99   : 			_DEBUG_ERROR("vector iterator not incrementable");
; 100  : 			_SCL_SECURE_OUT_OF_RANGE;
; 101  : 			}
; 102  : 
; 103  :  #elif _ITERATOR_DEBUG_LEVEL == 1
; 104  : 		_SCL_SECURE_VALIDATE(this->_Getcont() != 0);
; 105  : 		_SCL_SECURE_VALIDATE_RANGE(
; 106  : 			this->_Ptr != 0
; 107  : 			&& this->_Ptr < ((_Myvec *)this->_Getcont())->_Mylast);
; 108  :  #endif /* _ITERATOR_DEBUG_LEVEL */
; 109  : 
; 110  : 		++this->_Ptr;

  00002	83 00 04	 add	 DWORD PTR [eax], 4

; 111  : 		return (*this);
; 112  : 		}

  00005	c3		 ret	 0
??E?$_Vector_const_iterator@V?$_Vector_val@PAUGuildAttendRwardInfo@@V?$allocator@PAUGuildAttendRwardInfo@@@std@@@std@@@std@@QAEAAV01@XZ ENDP ; std::_Vector_const_iterator<std::_Vector_val<GuildAttendRwardInfo *,std::allocator<GuildAttendRwardInfo *> > >::operator++
_TEXT	ENDS
PUBLIC	??_C@_0BD@OLBABOEK@vector?$DMT?$DO?5too?5long?$AA@ ; `string'
PUBLIC	?_Xlen@?$vector@V?$basic_string@DU?$char_traits@D@std@@V?$allocator@D@2@@std@@V?$allocator@V?$basic_string@DU?$char_traits@D@std@@V?$allocator@D@2@@std@@@2@@std@@IBEXXZ ; std::vector<std::basic_string<char,std::char_traits<char>,std::allocator<char> >,std::allocator<std::basic_string<char,std::char_traits<char>,std::allocator<char> > > >::_Xlen
EXTRN	__imp_?_Xlength_error@std@@YAXPBD@Z:PROC
;	COMDAT ??_C@_0BD@OLBABOEK@vector?$DMT?$DO?5too?5long?$AA@
CONST	SEGMENT
??_C@_0BD@OLBABOEK@vector?$DMT?$DO?5too?5long?$AA@ DB 'vector<T> too long'
	DB	00H						; `string'
; Function compile flags: /Ogsp
CONST	ENDS
;	COMDAT ?_Xlen@?$vector@V?$basic_string@DU?$char_traits@D@std@@V?$allocator@D@2@@std@@V?$allocator@V?$basic_string@DU?$char_traits@D@std@@V?$allocator@D@2@@std@@@2@@std@@IBEXXZ
_TEXT	SEGMENT
?_Xlen@?$vector@V?$basic_string@DU?$char_traits@D@std@@V?$allocator@D@2@@std@@V?$allocator@V?$basic_string@DU?$char_traits@D@std@@V?$allocator@D@2@@std@@@2@@std@@IBEXXZ PROC ; std::vector<std::basic_string<char,std::char_traits<char>,std::allocator<char> >,std::allocator<std::basic_string<char,std::char_traits<char>,std::allocator<char> > > >::_Xlen, COMDAT
; _this$ = ecx

; 1427 : 		_Xlength_error("vector<T> too long");

  00000	68 00 00 00 00	 push	 OFFSET ??_C@_0BD@OLBABOEK@vector?$DMT?$DO?5too?5long?$AA@
  00005	ff 15 00 00 00
	00		 call	 DWORD PTR __imp_?_Xlength_error@std@@YAXPBD@Z
$LN4@Xlen:
$LN3@Xlen:
  0000b	cc		 int	 3
?_Xlen@?$vector@V?$basic_string@DU?$char_traits@D@std@@V?$allocator@D@2@@std@@V?$allocator@V?$basic_string@DU?$char_traits@D@std@@V?$allocator@D@2@@std@@@2@@std@@IBEXXZ ENDP ; std::vector<std::basic_string<char,std::char_traits<char>,std::allocator<char> >,std::allocator<std::basic_string<char,std::char_traits<char>,std::allocator<char> > > >::_Xlen
_TEXT	ENDS
PUBLIC	?_Xlen@?$vector@VGashaponPresent@@V?$allocator@VGashaponPresent@@@std@@@std@@IBEXXZ ; std::vector<GashaponPresent,std::allocator<GashaponPresent> >::_Xlen
; Function compile flags: /Ogsp
;	COMDAT ?_Xlen@?$vector@VGashaponPresent@@V?$allocator@VGashaponPresent@@@std@@@std@@IBEXXZ
_TEXT	SEGMENT
?_Xlen@?$vector@VGashaponPresent@@V?$allocator@VGashaponPresent@@@std@@@std@@IBEXXZ PROC ; std::vector<GashaponPresent,std::allocator<GashaponPresent> >::_Xlen, COMDAT
; _this$ = ecx

; 1427 : 		_Xlength_error("vector<T> too long");

  00000	68 00 00 00 00	 push	 OFFSET ??_C@_0BD@OLBABOEK@vector?$DMT?$DO?5too?5long?$AA@
  00005	ff 15 00 00 00
	00		 call	 DWORD PTR __imp_?_Xlength_error@std@@YAXPBD@Z
$LN4@Xlen@2:
$LN3@Xlen@2:
  0000b	cc		 int	 3
?_Xlen@?$vector@VGashaponPresent@@V?$allocator@VGashaponPresent@@@std@@@std@@IBEXXZ ENDP ; std::vector<GashaponPresent,std::allocator<GashaponPresent> >::_Xlen
_TEXT	ENDS
PUBLIC	?capacity@?$vector@UGuildUser@ioGuildData@@V?$allocator@UGuildUser@ioGuildData@@@std@@@std@@QBEIXZ ; std::vector<ioGuildData::GuildUser,std::allocator<ioGuildData::GuildUser> >::capacity
; Function compile flags: /Ogsp
;	COMDAT ?capacity@?$vector@UGuildUser@ioGuildData@@V?$allocator@UGuildUser@ioGuildData@@@std@@@std@@QBEIXZ
_TEXT	SEGMENT
?capacity@?$vector@UGuildUser@ioGuildData@@V?$allocator@UGuildUser@ioGuildData@@@std@@@std@@QBEIXZ PROC ; std::vector<ioGuildData::GuildUser,std::allocator<ioGuildData::GuildUser> >::capacity, COMDAT
; _this$ = ecx

; 777  : 		return (this->_Myend - this->_Myfirst);

  00000	8b 41 08	 mov	 eax, DWORD PTR [ecx+8]
  00003	2b 01		 sub	 eax, DWORD PTR [ecx]
  00005	6a 38		 push	 56			; 00000038H
  00007	99		 cdq
  00008	59		 pop	 ecx
  00009	f7 f9		 idiv	 ecx

; 778  : 		}

  0000b	c3		 ret	 0
?capacity@?$vector@UGuildUser@ioGuildData@@V?$allocator@UGuildUser@ioGuildData@@@std@@@std@@QBEIXZ ENDP ; std::vector<ioGuildData::GuildUser,std::allocator<ioGuildData::GuildUser> >::capacity
_TEXT	ENDS
PUBLIC	?_Xlen@?$vector@UGuildUser@ioGuildData@@V?$allocator@UGuildUser@ioGuildData@@@std@@@std@@IBEXXZ ; std::vector<ioGuildData::GuildUser,std::allocator<ioGuildData::GuildUser> >::_Xlen
; Function compile flags: /Ogsp
;	COMDAT ?_Xlen@?$vector@UGuildUser@ioGuildData@@V?$allocator@UGuildUser@ioGuildData@@@std@@@std@@IBEXXZ
_TEXT	SEGMENT
?_Xlen@?$vector@UGuildUser@ioGuildData@@V?$allocator@UGuildUser@ioGuildData@@@std@@@std@@IBEXXZ PROC ; std::vector<ioGuildData::GuildUser,std::allocator<ioGuildData::GuildUser> >::_Xlen, COMDAT
; _this$ = ecx

; 1427 : 		_Xlength_error("vector<T> too long");

  00000	68 00 00 00 00	 push	 OFFSET ??_C@_0BD@OLBABOEK@vector?$DMT?$DO?5too?5long?$AA@
  00005	ff 15 00 00 00
	00		 call	 DWORD PTR __imp_?_Xlength_error@std@@YAXPBD@Z
$LN4@Xlen@3:
$LN3@Xlen@3:
  0000b	cc		 int	 3
?_Xlen@?$vector@UGuildUser@ioGuildData@@V?$allocator@UGuildUser@ioGuildData@@@std@@@std@@IBEXXZ ENDP ; std::vector<ioGuildData::GuildUser,std::allocator<ioGuildData::GuildUser> >::_Xlen
_TEXT	ENDS
PUBLIC	??0?$allocator@UGuildUser@ioGuildData@@@std@@QAE@ABV01@@Z ; std::allocator<ioGuildData::GuildUser>::allocator<ioGuildData::GuildUser>
; Function compile flags: /Ogsp
; File c:\program files (x86)\microsoft visual studio 10.0\vc\include\xmemory
;	COMDAT ??0?$allocator@UGuildUser@ioGuildData@@@std@@QAE@ABV01@@Z
_TEXT	SEGMENT
___formal$ = 8						; size = 4
??0?$allocator@UGuildUser@ioGuildData@@@std@@QAE@ABV01@@Z PROC ; std::allocator<ioGuildData::GuildUser>::allocator<ioGuildData::GuildUser>, COMDAT
; _this$ = ecx

; 165  : 	_ALLOCATOR(const _ALLOCATOR<_Ty>&) _THROW0()

  00000	8b c1		 mov	 eax, ecx

; 166  : 		{	// construct by copying (do nothing)
; 167  : 		}

  00002	c2 04 00	 ret	 4
??0?$allocator@UGuildUser@ioGuildData@@@std@@QAE@ABV01@@Z ENDP ; std::allocator<ioGuildData::GuildUser>::allocator<ioGuildData::GuildUser>
_TEXT	ENDS
PUBLIC	?deallocate@?$allocator@UGuildUser@ioGuildData@@@std@@QAEXPAUGuildUser@ioGuildData@@I@Z ; std::allocator<ioGuildData::GuildUser>::deallocate
; Function compile flags: /Ogsp
;	COMDAT ?deallocate@?$allocator@UGuildUser@ioGuildData@@@std@@QAEXPAUGuildUser@ioGuildData@@I@Z
_TEXT	SEGMENT
__Ptr$ = 8						; size = 4
___formal$ = 12						; size = 4
?deallocate@?$allocator@UGuildUser@ioGuildData@@@std@@QAEXPAUGuildUser@ioGuildData@@I@Z PROC ; std::allocator<ioGuildData::GuildUser>::deallocate, COMDAT
; _this$ = ecx

; 181  : 		{	// deallocate object at _Ptr, ignore size

  00000	55		 push	 ebp
  00001	8b ec		 mov	 ebp, esp

; 182  : 		::operator delete(_Ptr);

  00003	ff 75 08	 push	 DWORD PTR __Ptr$[ebp]
  00006	e8 00 00 00 00	 call	 ??3@YAXPAX@Z		; operator delete
  0000b	59		 pop	 ecx

; 183  : 		}

  0000c	5d		 pop	 ebp
  0000d	c2 08 00	 ret	 8
?deallocate@?$allocator@UGuildUser@ioGuildData@@@std@@QAEXPAUGuildUser@ioGuildData@@I@Z ENDP ; std::allocator<ioGuildData::GuildUser>::deallocate
_TEXT	ENDS
PUBLIC	?capacity@?$vector@PAVioGuildData@@V?$allocator@PAVioGuildData@@@std@@@std@@QBEIXZ ; std::vector<ioGuildData *,std::allocator<ioGuildData *> >::capacity
; Function compile flags: /Ogsp
; File c:\program files (x86)\microsoft visual studio 10.0\vc\include\vector
;	COMDAT ?capacity@?$vector@PAVioGuildData@@V?$allocator@PAVioGuildData@@@std@@@std@@QBEIXZ
_TEXT	SEGMENT
?capacity@?$vector@PAVioGuildData@@V?$allocator@PAVioGuildData@@@std@@@std@@QBEIXZ PROC ; std::vector<ioGuildData *,std::allocator<ioGuildData *> >::capacity, COMDAT
; _this$ = ecx

; 777  : 		return (this->_Myend - this->_Myfirst);

  00000	8b 41 08	 mov	 eax, DWORD PTR [ecx+8]
  00003	2b 01		 sub	 eax, DWORD PTR [ecx]
  00005	c1 f8 02	 sar	 eax, 2

; 778  : 		}

  00008	c3		 ret	 0
?capacity@?$vector@PAVioGuildData@@V?$allocator@PAVioGuildData@@@std@@@std@@QBEIXZ ENDP ; std::vector<ioGuildData *,std::allocator<ioGuildData *> >::capacity
_TEXT	ENDS
PUBLIC	?size@?$vector@PAVioGuildData@@V?$allocator@PAVioGuildData@@@std@@@std@@QBEIXZ ; std::vector<ioGuildData *,std::allocator<ioGuildData *> >::size
; Function compile flags: /Ogsp
;	COMDAT ?size@?$vector@PAVioGuildData@@V?$allocator@PAVioGuildData@@@std@@@std@@QBEIXZ
_TEXT	SEGMENT
?size@?$vector@PAVioGuildData@@V?$allocator@PAVioGuildData@@@std@@@std@@QBEIXZ PROC ; std::vector<ioGuildData *,std::allocator<ioGuildData *> >::size, COMDAT
; _this$ = ecx

; 879  : 		return (this->_Mylast - this->_Myfirst);

  00000	8b 41 04	 mov	 eax, DWORD PTR [ecx+4]
  00003	2b 01		 sub	 eax, DWORD PTR [ecx]
  00005	c1 f8 02	 sar	 eax, 2

; 880  : 		}

  00008	c3		 ret	 0
?size@?$vector@PAVioGuildData@@V?$allocator@PAVioGuildData@@@std@@@std@@QBEIXZ ENDP ; std::vector<ioGuildData *,std::allocator<ioGuildData *> >::size
_TEXT	ENDS
PUBLIC	?_Xlen@?$vector@PAVioGuildData@@V?$allocator@PAVioGuildData@@@std@@@std@@IBEXXZ ; std::vector<ioGuildData *,std::allocator<ioGuildData *> >::_Xlen
; Function compile flags: /Ogsp
;	COMDAT ?_Xlen@?$vector@PAVioGuildData@@V?$allocator@PAVioGuildData@@@std@@@std@@IBEXXZ
_TEXT	SEGMENT
?_Xlen@?$vector@PAVioGuildData@@V?$allocator@PAVioGuildData@@@std@@@std@@IBEXXZ PROC ; std::vector<ioGuildData *,std::allocator<ioGuildData *> >::_Xlen, COMDAT
; _this$ = ecx

; 1427 : 		_Xlength_error("vector<T> too long");

  00000	68 00 00 00 00	 push	 OFFSET ??_C@_0BD@OLBABOEK@vector?$DMT?$DO?5too?5long?$AA@
  00005	ff 15 00 00 00
	00		 call	 DWORD PTR __imp_?_Xlength_error@std@@YAXPBD@Z
$LN4@Xlen@4:
$LN3@Xlen@4:
  0000b	cc		 int	 3
?_Xlen@?$vector@PAVioGuildData@@V?$allocator@PAVioGuildData@@@std@@@std@@IBEXXZ ENDP ; std::vector<ioGuildData *,std::allocator<ioGuildData *> >::_Xlen
_TEXT	ENDS
PUBLIC	??0?$allocator@PAVioGuildData@@@std@@QAE@ABV01@@Z ; std::allocator<ioGuildData *>::allocator<ioGuildData *>
; Function compile flags: /Ogsp
; File c:\program files (x86)\microsoft visual studio 10.0\vc\include\xmemory
;	COMDAT ??0?$allocator@PAVioGuildData@@@std@@QAE@ABV01@@Z
_TEXT	SEGMENT
___formal$ = 8						; size = 4
??0?$allocator@PAVioGuildData@@@std@@QAE@ABV01@@Z PROC	; std::allocator<ioGuildData *>::allocator<ioGuildData *>, COMDAT
; _this$ = ecx

; 165  : 	_ALLOCATOR(const _ALLOCATOR<_Ty>&) _THROW0()

  00000	8b c1		 mov	 eax, ecx

; 166  : 		{	// construct by copying (do nothing)
; 167  : 		}

  00002	c2 04 00	 ret	 4
??0?$allocator@PAVioGuildData@@@std@@QAE@ABV01@@Z ENDP	; std::allocator<ioGuildData *>::allocator<ioGuildData *>
_TEXT	ENDS
PUBLIC	?deallocate@?$allocator@PAVioGuildData@@@std@@QAEXPAPAVioGuildData@@I@Z ; std::allocator<ioGuildData *>::deallocate
; Function compile flags: /Ogsp
;	COMDAT ?deallocate@?$allocator@PAVioGuildData@@@std@@QAEXPAPAVioGuildData@@I@Z
_TEXT	SEGMENT
__Ptr$ = 8						; size = 4
___formal$ = 12						; size = 4
?deallocate@?$allocator@PAVioGuildData@@@std@@QAEXPAPAVioGuildData@@I@Z PROC ; std::allocator<ioGuildData *>::deallocate, COMDAT
; _this$ = ecx

; 181  : 		{	// deallocate object at _Ptr, ignore size

  00000	55		 push	 ebp
  00001	8b ec		 mov	 ebp, esp

; 182  : 		::operator delete(_Ptr);

  00003	ff 75 08	 push	 DWORD PTR __Ptr$[ebp]
  00006	e8 00 00 00 00	 call	 ??3@YAXPAX@Z		; operator delete
  0000b	59		 pop	 ecx

; 183  : 		}

  0000c	5d		 pop	 ebp
  0000d	c2 08 00	 ret	 8
?deallocate@?$allocator@PAVioGuildData@@@std@@QAEXPAPAVioGuildData@@I@Z ENDP ; std::allocator<ioGuildData *>::deallocate
_TEXT	ENDS
PUBLIC	?capacity@?$vector@UInvitationUser@ioGuildInfo@@V?$allocator@UInvitationUser@ioGuildInfo@@@std@@@std@@QBEIXZ ; std::vector<ioGuildInfo::InvitationUser,std::allocator<ioGuildInfo::InvitationUser> >::capacity
; Function compile flags: /Ogsp
; File c:\program files (x86)\microsoft visual studio 10.0\vc\include\vector
;	COMDAT ?capacity@?$vector@UInvitationUser@ioGuildInfo@@V?$allocator@UInvitationUser@ioGuildInfo@@@std@@@std@@QBEIXZ
_TEXT	SEGMENT
?capacity@?$vector@UInvitationUser@ioGuildInfo@@V?$allocator@UInvitationUser@ioGuildInfo@@@std@@@std@@QBEIXZ PROC ; std::vector<ioGuildInfo::InvitationUser,std::allocator<ioGuildInfo::InvitationUser> >::capacity, COMDAT
; _this$ = ecx

; 777  : 		return (this->_Myend - this->_Myfirst);

  00000	8b 41 08	 mov	 eax, DWORD PTR [ecx+8]
  00003	2b 01		 sub	 eax, DWORD PTR [ecx]
  00005	6a 14		 push	 20			; 00000014H
  00007	99		 cdq
  00008	59		 pop	 ecx
  00009	f7 f9		 idiv	 ecx

; 778  : 		}

  0000b	c3		 ret	 0
?capacity@?$vector@UInvitationUser@ioGuildInfo@@V?$allocator@UInvitationUser@ioGuildInfo@@@std@@@std@@QBEIXZ ENDP ; std::vector<ioGuildInfo::InvitationUser,std::allocator<ioGuildInfo::InvitationUser> >::capacity
_TEXT	ENDS
PUBLIC	?_Xlen@?$vector@UInvitationUser@ioGuildInfo@@V?$allocator@UInvitationUser@ioGuildInfo@@@std@@@std@@IBEXXZ ; std::vector<ioGuildInfo::InvitationUser,std::allocator<ioGuildInfo::InvitationUser> >::_Xlen
; Function compile flags: /Ogsp
;	COMDAT ?_Xlen@?$vector@UInvitationUser@ioGuildInfo@@V?$allocator@UInvitationUser@ioGuildInfo@@@std@@@std@@IBEXXZ
_TEXT	SEGMENT
?_Xlen@?$vector@UInvitationUser@ioGuildInfo@@V?$allocator@UInvitationUser@ioGuildInfo@@@std@@@std@@IBEXXZ PROC ; std::vector<ioGuildInfo::InvitationUser,std::allocator<ioGuildInfo::InvitationUser> >::_Xlen, COMDAT
; _this$ = ecx

; 1427 : 		_Xlength_error("vector<T> too long");

  00000	68 00 00 00 00	 push	 OFFSET ??_C@_0BD@OLBABOEK@vector?$DMT?$DO?5too?5long?$AA@
  00005	ff 15 00 00 00
	00		 call	 DWORD PTR __imp_?_Xlength_error@std@@YAXPBD@Z
$LN4@Xlen@5:
$LN3@Xlen@5:
  0000b	cc		 int	 3
?_Xlen@?$vector@UInvitationUser@ioGuildInfo@@V?$allocator@UInvitationUser@ioGuildInfo@@@std@@@std@@IBEXXZ ENDP ; std::vector<ioGuildInfo::InvitationUser,std::allocator<ioGuildInfo::InvitationUser> >::_Xlen
_TEXT	ENDS
PUBLIC	??0?$allocator@UInvitationUser@ioGuildInfo@@@std@@QAE@ABV01@@Z ; std::allocator<ioGuildInfo::InvitationUser>::allocator<ioGuildInfo::InvitationUser>
; Function compile flags: /Ogsp
; File c:\program files (x86)\microsoft visual studio 10.0\vc\include\xmemory
;	COMDAT ??0?$allocator@UInvitationUser@ioGuildInfo@@@std@@QAE@ABV01@@Z
_TEXT	SEGMENT
___formal$ = 8						; size = 4
??0?$allocator@UInvitationUser@ioGuildInfo@@@std@@QAE@ABV01@@Z PROC ; std::allocator<ioGuildInfo::InvitationUser>::allocator<ioGuildInfo::InvitationUser>, COMDAT
; _this$ = ecx

; 165  : 	_ALLOCATOR(const _ALLOCATOR<_Ty>&) _THROW0()

  00000	8b c1		 mov	 eax, ecx

; 166  : 		{	// construct by copying (do nothing)
; 167  : 		}

  00002	c2 04 00	 ret	 4
??0?$allocator@UInvitationUser@ioGuildInfo@@@std@@QAE@ABV01@@Z ENDP ; std::allocator<ioGuildInfo::InvitationUser>::allocator<ioGuildInfo::InvitationUser>
_TEXT	ENDS
PUBLIC	?deallocate@?$allocator@UInvitationUser@ioGuildInfo@@@std@@QAEXPAUInvitationUser@ioGuildInfo@@I@Z ; std::allocator<ioGuildInfo::InvitationUser>::deallocate
; Function compile flags: /Ogsp
;	COMDAT ?deallocate@?$allocator@UInvitationUser@ioGuildInfo@@@std@@QAEXPAUInvitationUser@ioGuildInfo@@I@Z
_TEXT	SEGMENT
__Ptr$ = 8						; size = 4
___formal$ = 12						; size = 4
?deallocate@?$allocator@UInvitationUser@ioGuildInfo@@@std@@QAEXPAUInvitationUser@ioGuildInfo@@I@Z PROC ; std::allocator<ioGuildInfo::InvitationUser>::deallocate, COMDAT
; _this$ = ecx

; 181  : 		{	// deallocate object at _Ptr, ignore size

  00000	55		 push	 ebp
  00001	8b ec		 mov	 ebp, esp

; 182  : 		::operator delete(_Ptr);

  00003	ff 75 08	 push	 DWORD PTR __Ptr$[ebp]
  00006	e8 00 00 00 00	 call	 ??3@YAXPAX@Z		; operator delete
  0000b	59		 pop	 ecx

; 183  : 		}

  0000c	5d		 pop	 ebp
  0000d	c2 08 00	 ret	 8
?deallocate@?$allocator@UInvitationUser@ioGuildInfo@@@std@@QAEXPAUInvitationUser@ioGuildInfo@@I@Z ENDP ; std::allocator<ioGuildInfo::InvitationUser>::deallocate
_TEXT	ENDS
PUBLIC	?capacity@?$vector@PAUGuildAttendRwardInfo@@V?$allocator@PAUGuildAttendRwardInfo@@@std@@@std@@QBEIXZ ; std::vector<GuildAttendRwardInfo *,std::allocator<GuildAttendRwardInfo *> >::capacity
; Function compile flags: /Ogsp
; File c:\program files (x86)\microsoft visual studio 10.0\vc\include\vector
;	COMDAT ?capacity@?$vector@PAUGuildAttendRwardInfo@@V?$allocator@PAUGuildAttendRwardInfo@@@std@@@std@@QBEIXZ
_TEXT	SEGMENT
?capacity@?$vector@PAUGuildAttendRwardInfo@@V?$allocator@PAUGuildAttendRwardInfo@@@std@@@std@@QBEIXZ PROC ; std::vector<GuildAttendRwardInfo *,std::allocator<GuildAttendRwardInfo *> >::capacity, COMDAT
; _this$ = ecx

; 777  : 		return (this->_Myend - this->_Myfirst);

  00000	8b 41 08	 mov	 eax, DWORD PTR [ecx+8]
  00003	2b 01		 sub	 eax, DWORD PTR [ecx]
  00005	c1 f8 02	 sar	 eax, 2

; 778  : 		}

  00008	c3		 ret	 0
?capacity@?$vector@PAUGuildAttendRwardInfo@@V?$allocator@PAUGuildAttendRwardInfo@@@std@@@std@@QBEIXZ ENDP ; std::vector<GuildAttendRwardInfo *,std::allocator<GuildAttendRwardInfo *> >::capacity
_TEXT	ENDS
PUBLIC	?_Xlen@?$vector@PAUGuildAttendRwardInfo@@V?$allocator@PAUGuildAttendRwardInfo@@@std@@@std@@IBEXXZ ; std::vector<GuildAttendRwardInfo *,std::allocator<GuildAttendRwardInfo *> >::_Xlen
; Function compile flags: /Ogsp
;	COMDAT ?_Xlen@?$vector@PAUGuildAttendRwardInfo@@V?$allocator@PAUGuildAttendRwardInfo@@@std@@@std@@IBEXXZ
_TEXT	SEGMENT
?_Xlen@?$vector@PAUGuildAttendRwardInfo@@V?$allocator@PAUGuildAttendRwardInfo@@@std@@@std@@IBEXXZ PROC ; std::vector<GuildAttendRwardInfo *,std::allocator<GuildAttendRwardInfo *> >::_Xlen, COMDAT
; _this$ = ecx

; 1427 : 		_Xlength_error("vector<T> too long");

  00000	68 00 00 00 00	 push	 OFFSET ??_C@_0BD@OLBABOEK@vector?$DMT?$DO?5too?5long?$AA@
  00005	ff 15 00 00 00
	00		 call	 DWORD PTR __imp_?_Xlength_error@std@@YAXPBD@Z
$LN4@Xlen@6:
$LN3@Xlen@6:
  0000b	cc		 int	 3
?_Xlen@?$vector@PAUGuildAttendRwardInfo@@V?$allocator@PAUGuildAttendRwardInfo@@@std@@@std@@IBEXXZ ENDP ; std::vector<GuildAttendRwardInfo *,std::allocator<GuildAttendRwardInfo *> >::_Xlen
_TEXT	ENDS
PUBLIC	??0?$allocator@PAUGuildAttendRwardInfo@@@std@@QAE@ABV01@@Z ; std::allocator<GuildAttendRwardInfo *>::allocator<GuildAttendRwardInfo *>
; Function compile flags: /Ogsp
; File c:\program files (x86)\microsoft visual studio 10.0\vc\include\xmemory
;	COMDAT ??0?$allocator@PAUGuildAttendRwardInfo@@@std@@QAE@ABV01@@Z
_TEXT	SEGMENT
___formal$ = 8						; size = 4
??0?$allocator@PAUGuildAttendRwardInfo@@@std@@QAE@ABV01@@Z PROC ; std::allocator<GuildAttendRwardInfo *>::allocator<GuildAttendRwardInfo *>, COMDAT
; _this$ = ecx

; 165  : 	_ALLOCATOR(const _ALLOCATOR<_Ty>&) _THROW0()

  00000	8b c1		 mov	 eax, ecx

; 166  : 		{	// construct by copying (do nothing)
; 167  : 		}

  00002	c2 04 00	 ret	 4
??0?$allocator@PAUGuildAttendRwardInfo@@@std@@QAE@ABV01@@Z ENDP ; std::allocator<GuildAttendRwardInfo *>::allocator<GuildAttendRwardInfo *>
_TEXT	ENDS
PUBLIC	?deallocate@?$allocator@PAUGuildAttendRwardInfo@@@std@@QAEXPAPAUGuildAttendRwardInfo@@I@Z ; std::allocator<GuildAttendRwardInfo *>::deallocate
; Function compile flags: /Ogsp
;	COMDAT ?deallocate@?$allocator@PAUGuildAttendRwardInfo@@@std@@QAEXPAPAUGuildAttendRwardInfo@@I@Z
_TEXT	SEGMENT
__Ptr$ = 8						; size = 4
___formal$ = 12						; size = 4
?deallocate@?$allocator@PAUGuildAttendRwardInfo@@@std@@QAEXPAPAUGuildAttendRwardInfo@@I@Z PROC ; std::allocator<GuildAttendRwardInfo *>::deallocate, COMDAT
; _this$ = ecx

; 181  : 		{	// deallocate object at _Ptr, ignore size

  00000	55		 push	 ebp
  00001	8b ec		 mov	 ebp, esp

; 182  : 		::operator delete(_Ptr);

  00003	ff 75 08	 push	 DWORD PTR __Ptr$[ebp]
  00006	e8 00 00 00 00	 call	 ??3@YAXPAX@Z		; operator delete
  0000b	59		 pop	 ecx

; 183  : 		}

  0000c	5d		 pop	 ebp
  0000d	c2 08 00	 ret	 8
?deallocate@?$allocator@PAUGuildAttendRwardInfo@@@std@@QAEXPAPAUGuildAttendRwardInfo@@I@Z ENDP ; std::allocator<GuildAttendRwardInfo *>::deallocate
_TEXT	ENDS
PUBLIC	?capacity@?$vector@PAUGuildRankRwardInfo@@V?$allocator@PAUGuildRankRwardInfo@@@std@@@std@@QBEIXZ ; std::vector<GuildRankRwardInfo *,std::allocator<GuildRankRwardInfo *> >::capacity
; Function compile flags: /Ogsp
; File c:\program files (x86)\microsoft visual studio 10.0\vc\include\vector
;	COMDAT ?capacity@?$vector@PAUGuildRankRwardInfo@@V?$allocator@PAUGuildRankRwardInfo@@@std@@@std@@QBEIXZ
_TEXT	SEGMENT
?capacity@?$vector@PAUGuildRankRwardInfo@@V?$allocator@PAUGuildRankRwardInfo@@@std@@@std@@QBEIXZ PROC ; std::vector<GuildRankRwardInfo *,std::allocator<GuildRankRwardInfo *> >::capacity, COMDAT
; _this$ = ecx

; 777  : 		return (this->_Myend - this->_Myfirst);

  00000	8b 41 08	 mov	 eax, DWORD PTR [ecx+8]
  00003	2b 01		 sub	 eax, DWORD PTR [ecx]
  00005	c1 f8 02	 sar	 eax, 2

; 778  : 		}

  00008	c3		 ret	 0
?capacity@?$vector@PAUGuildRankRwardInfo@@V?$allocator@PAUGuildRankRwardInfo@@@std@@@std@@QBEIXZ ENDP ; std::vector<GuildRankRwardInfo *,std::allocator<GuildRankRwardInfo *> >::capacity
_TEXT	ENDS
PUBLIC	?_Xlen@?$vector@PAUGuildRankRwardInfo@@V?$allocator@PAUGuildRankRwardInfo@@@std@@@std@@IBEXXZ ; std::vector<GuildRankRwardInfo *,std::allocator<GuildRankRwardInfo *> >::_Xlen
; Function compile flags: /Ogsp
;	COMDAT ?_Xlen@?$vector@PAUGuildRankRwardInfo@@V?$allocator@PAUGuildRankRwardInfo@@@std@@@std@@IBEXXZ
_TEXT	SEGMENT
?_Xlen@?$vector@PAUGuildRankRwardInfo@@V?$allocator@PAUGuildRankRwardInfo@@@std@@@std@@IBEXXZ PROC ; std::vector<GuildRankRwardInfo *,std::allocator<GuildRankRwardInfo *> >::_Xlen, COMDAT
; _this$ = ecx

; 1427 : 		_Xlength_error("vector<T> too long");

  00000	68 00 00 00 00	 push	 OFFSET ??_C@_0BD@OLBABOEK@vector?$DMT?$DO?5too?5long?$AA@
  00005	ff 15 00 00 00
	00		 call	 DWORD PTR __imp_?_Xlength_error@std@@YAXPBD@Z
$LN4@Xlen@7:
$LN3@Xlen@7:
  0000b	cc		 int	 3
?_Xlen@?$vector@PAUGuildRankRwardInfo@@V?$allocator@PAUGuildRankRwardInfo@@@std@@@std@@IBEXXZ ENDP ; std::vector<GuildRankRwardInfo *,std::allocator<GuildRankRwardInfo *> >::_Xlen
_TEXT	ENDS
PUBLIC	??0?$allocator@PAUGuildRankRwardInfo@@@std@@QAE@ABV01@@Z ; std::allocator<GuildRankRwardInfo *>::allocator<GuildRankRwardInfo *>
; Function compile flags: /Ogsp
; File c:\program files (x86)\microsoft visual studio 10.0\vc\include\xmemory
;	COMDAT ??0?$allocator@PAUGuildRankRwardInfo@@@std@@QAE@ABV01@@Z
_TEXT	SEGMENT
___formal$ = 8						; size = 4
??0?$allocator@PAUGuildRankRwardInfo@@@std@@QAE@ABV01@@Z PROC ; std::allocator<GuildRankRwardInfo *>::allocator<GuildRankRwardInfo *>, COMDAT
; _this$ = ecx

; 165  : 	_ALLOCATOR(const _ALLOCATOR<_Ty>&) _THROW0()

  00000	8b c1		 mov	 eax, ecx

; 166  : 		{	// construct by copying (do nothing)
; 167  : 		}

  00002	c2 04 00	 ret	 4
??0?$allocator@PAUGuildRankRwardInfo@@@std@@QAE@ABV01@@Z ENDP ; std::allocator<GuildRankRwardInfo *>::allocator<GuildRankRwardInfo *>
_TEXT	ENDS
PUBLIC	?deallocate@?$allocator@PAUGuildRankRwardInfo@@@std@@QAEXPAPAUGuildRankRwardInfo@@I@Z ; std::allocator<GuildRankRwardInfo *>::deallocate
; Function compile flags: /Ogsp
;	COMDAT ?deallocate@?$allocator@PAUGuildRankRwardInfo@@@std@@QAEXPAPAUGuildRankRwardInfo@@I@Z
_TEXT	SEGMENT
__Ptr$ = 8						; size = 4
___formal$ = 12						; size = 4
?deallocate@?$allocator@PAUGuildRankRwardInfo@@@std@@QAEXPAPAUGuildRankRwardInfo@@I@Z PROC ; std::allocator<GuildRankRwardInfo *>::deallocate, COMDAT
; _this$ = ecx

; 181  : 		{	// deallocate object at _Ptr, ignore size

  00000	55		 push	 ebp
  00001	8b ec		 mov	 ebp, esp

; 182  : 		::operator delete(_Ptr);

  00003	ff 75 08	 push	 DWORD PTR __Ptr$[ebp]
  00006	e8 00 00 00 00	 call	 ??3@YAXPAX@Z		; operator delete
  0000b	59		 pop	 ecx

; 183  : 		}

  0000c	5d		 pop	 ebp
  0000d	c2 08 00	 ret	 8
?deallocate@?$allocator@PAUGuildRankRwardInfo@@@std@@QAEXPAPAUGuildRankRwardInfo@@I@Z ENDP ; std::allocator<GuildRankRwardInfo *>::deallocate
_TEXT	ENDS
PUBLIC	??Y?$_Vector_const_iterator@V?$_Vector_val@KV?$allocator@K@std@@@std@@@std@@QAEAAV01@H@Z ; std::_Vector_const_iterator<std::_Vector_val<unsigned long,std::allocator<unsigned long> > >::operator+=
; Function compile flags: /Ogsp
; File c:\program files (x86)\microsoft visual studio 10.0\vc\include\vector
;	COMDAT ??Y?$_Vector_const_iterator@V?$_Vector_val@KV?$allocator@K@std@@@std@@@std@@QAEAAV01@H@Z
_TEXT	SEGMENT
__Off$ = 8						; size = 4
??Y?$_Vector_const_iterator@V?$_Vector_val@KV?$allocator@K@std@@@std@@@std@@QAEAAV01@H@Z PROC ; std::_Vector_const_iterator<std::_Vector_val<unsigned long,std::allocator<unsigned long> > >::operator+=, COMDAT
; _this$ = ecx

; 151  : 		{	// increment by integer

  00000	55		 push	 ebp
  00001	8b ec		 mov	 ebp, esp
  00003	8b c1		 mov	 eax, ecx

; 152  :  #if _ITERATOR_DEBUG_LEVEL == 2
; 153  : 		if (this->_Getcont() == 0
; 154  : 			|| this->_Ptr + _Off < ((_Myvec *)this->_Getcont())->_Myfirst
; 155  : 			|| ((_Myvec *)this->_Getcont())->_Mylast < this->_Ptr + _Off)
; 156  : 			{	// report error
; 157  : 			_DEBUG_ERROR("vector iterator + offset out of range");
; 158  : 			_SCL_SECURE_OUT_OF_RANGE;
; 159  : 			}
; 160  : 
; 161  :  #elif _ITERATOR_DEBUG_LEVEL == 1
; 162  : 		_SCL_SECURE_VALIDATE(this->_Getcont() != 0);
; 163  : 		_SCL_SECURE_VALIDATE_RANGE(
; 164  : 			((_Myvec *)this->_Getcont())->_Myfirst <= this->_Ptr + _Off
; 165  : 			&& this->_Ptr + _Off <= ((_Myvec *)this->_Getcont())->_Mylast);
; 166  :  #endif /* _ITERATOR_DEBUG_LEVEL */
; 167  : 
; 168  : 		_Ptr += _Off;

  00005	8b 4d 08	 mov	 ecx, DWORD PTR __Off$[ebp]
  00008	c1 e1 02	 shl	 ecx, 2
  0000b	01 08		 add	 DWORD PTR [eax], ecx

; 169  : 		return (*this);
; 170  : 		}

  0000d	5d		 pop	 ebp
  0000e	c2 04 00	 ret	 4
??Y?$_Vector_const_iterator@V?$_Vector_val@KV?$allocator@K@std@@@std@@@std@@QAEAAV01@H@Z ENDP ; std::_Vector_const_iterator<std::_Vector_val<unsigned long,std::allocator<unsigned long> > >::operator+=
_TEXT	ENDS
PUBLIC	??0?$_Vector_const_iterator@V?$_Vector_val@UGuildUser@ioGuildData@@V?$allocator@UGuildUser@ioGuildData@@@std@@@std@@@std@@QAE@PAUGuildUser@ioGuildData@@PBU_Container_base0@1@@Z ; std::_Vector_const_iterator<std::_Vector_val<ioGuildData::GuildUser,std::allocator<ioGuildData::GuildUser> > >::_Vector_const_iterator<std::_Vector_val<ioGuildData::GuildUser,std::allocator<ioGuildData::GuildUser> > >
; Function compile flags: /Ogsp
;	COMDAT ??0?$_Vector_const_iterator@V?$_Vector_val@UGuildUser@ioGuildData@@V?$allocator@UGuildUser@ioGuildData@@@std@@@std@@@std@@QAE@PAUGuildUser@ioGuildData@@PBU_Container_base0@1@@Z
_TEXT	SEGMENT
__Parg$ = 8						; size = 4
__Pvector$ = 12						; size = 4
??0?$_Vector_const_iterator@V?$_Vector_val@UGuildUser@ioGuildData@@V?$allocator@UGuildUser@ioGuildData@@@std@@@std@@@std@@QAE@PAUGuildUser@ioGuildData@@PBU_Container_base0@1@@Z PROC ; std::_Vector_const_iterator<std::_Vector_val<ioGuildData::GuildUser,std::allocator<ioGuildData::GuildUser> > >::_Vector_const_iterator<std::_Vector_val<ioGuildData::GuildUser,std::allocator<ioGuildData::GuildUser> > >, COMDAT
; _this$ = ecx

; 45   : 		{	// construct with pointer _Parg

  00000	55		 push	 ebp
  00001	8b ec		 mov	 ebp, esp
  00003	8b c1		 mov	 eax, ecx
  00005	8b 4d 08	 mov	 ecx, DWORD PTR __Parg$[ebp]
  00008	89 08		 mov	 DWORD PTR [eax], ecx

; 46   : 		this->_Adopt(_Pvector);
; 47   : 		}

  0000a	5d		 pop	 ebp
  0000b	c2 08 00	 ret	 8
??0?$_Vector_const_iterator@V?$_Vector_val@UGuildUser@ioGuildData@@V?$allocator@UGuildUser@ioGuildData@@@std@@@std@@@std@@QAE@PAUGuildUser@ioGuildData@@PBU_Container_base0@1@@Z ENDP ; std::_Vector_const_iterator<std::_Vector_val<ioGuildData::GuildUser,std::allocator<ioGuildData::GuildUser> > >::_Vector_const_iterator<std::_Vector_val<ioGuildData::GuildUser,std::allocator<ioGuildData::GuildUser> > >
_TEXT	ENDS
PUBLIC	??E?$_Vector_const_iterator@V?$_Vector_val@UGuildUser@ioGuildData@@V?$allocator@UGuildUser@ioGuildData@@@std@@@std@@@std@@QAEAAV01@XZ ; std::_Vector_const_iterator<std::_Vector_val<ioGuildData::GuildUser,std::allocator<ioGuildData::GuildUser> > >::operator++
; Function compile flags: /Ogsp
;	COMDAT ??E?$_Vector_const_iterator@V?$_Vector_val@UGuildUser@ioGuildData@@V?$allocator@UGuildUser@ioGuildData@@@std@@@std@@@std@@QAEAAV01@XZ
_TEXT	SEGMENT
??E?$_Vector_const_iterator@V?$_Vector_val@UGuildUser@ioGuildData@@V?$allocator@UGuildUser@ioGuildData@@@std@@@std@@@std@@QAEAAV01@XZ PROC ; std::_Vector_const_iterator<std::_Vector_val<ioGuildData::GuildUser,std::allocator<ioGuildData::GuildUser> > >::operator++, COMDAT
; _this$ = ecx

; 93   : 		{	// preincrement

  00000	8b c1		 mov	 eax, ecx

; 94   :  #if _ITERATOR_DEBUG_LEVEL == 2
; 95   : 		if (this->_Getcont() == 0
; 96   : 			|| this->_Ptr == 0
; 97   : 			|| ((_Myvec *)this->_Getcont())->_Mylast <= this->_Ptr)
; 98   : 			{	// report error
; 99   : 			_DEBUG_ERROR("vector iterator not incrementable");
; 100  : 			_SCL_SECURE_OUT_OF_RANGE;
; 101  : 			}
; 102  : 
; 103  :  #elif _ITERATOR_DEBUG_LEVEL == 1
; 104  : 		_SCL_SECURE_VALIDATE(this->_Getcont() != 0);
; 105  : 		_SCL_SECURE_VALIDATE_RANGE(
; 106  : 			this->_Ptr != 0
; 107  : 			&& this->_Ptr < ((_Myvec *)this->_Getcont())->_Mylast);
; 108  :  #endif /* _ITERATOR_DEBUG_LEVEL */
; 109  : 
; 110  : 		++this->_Ptr;

  00002	83 00 38	 add	 DWORD PTR [eax], 56	; 00000038H

; 111  : 		return (*this);
; 112  : 		}

  00005	c3		 ret	 0
??E?$_Vector_const_iterator@V?$_Vector_val@UGuildUser@ioGuildData@@V?$allocator@UGuildUser@ioGuildData@@@std@@@std@@@std@@QAEAAV01@XZ ENDP ; std::_Vector_const_iterator<std::_Vector_val<ioGuildData::GuildUser,std::allocator<ioGuildData::GuildUser> > >::operator++
_TEXT	ENDS
PUBLIC	??Y?$_Vector_const_iterator@V?$_Vector_val@UGuildUser@ioGuildData@@V?$allocator@UGuildUser@ioGuildData@@@std@@@std@@@std@@QAEAAV01@H@Z ; std::_Vector_const_iterator<std::_Vector_val<ioGuildData::GuildUser,std::allocator<ioGuildData::GuildUser> > >::operator+=
; Function compile flags: /Ogsp
;	COMDAT ??Y?$_Vector_const_iterator@V?$_Vector_val@UGuildUser@ioGuildData@@V?$allocator@UGuildUser@ioGuildData@@@std@@@std@@@std@@QAEAAV01@H@Z
_TEXT	SEGMENT
__Off$ = 8						; size = 4
??Y?$_Vector_const_iterator@V?$_Vector_val@UGuildUser@ioGuildData@@V?$allocator@UGuildUser@ioGuildData@@@std@@@std@@@std@@QAEAAV01@H@Z PROC ; std::_Vector_const_iterator<std::_Vector_val<ioGuildData::GuildUser,std::allocator<ioGuildData::GuildUser> > >::operator+=, COMDAT
; _this$ = ecx

; 151  : 		{	// increment by integer

  00000	55		 push	 ebp
  00001	8b ec		 mov	 ebp, esp
  00003	8b c1		 mov	 eax, ecx

; 152  :  #if _ITERATOR_DEBUG_LEVEL == 2
; 153  : 		if (this->_Getcont() == 0
; 154  : 			|| this->_Ptr + _Off < ((_Myvec *)this->_Getcont())->_Myfirst
; 155  : 			|| ((_Myvec *)this->_Getcont())->_Mylast < this->_Ptr + _Off)
; 156  : 			{	// report error
; 157  : 			_DEBUG_ERROR("vector iterator + offset out of range");
; 158  : 			_SCL_SECURE_OUT_OF_RANGE;
; 159  : 			}
; 160  : 
; 161  :  #elif _ITERATOR_DEBUG_LEVEL == 1
; 162  : 		_SCL_SECURE_VALIDATE(this->_Getcont() != 0);
; 163  : 		_SCL_SECURE_VALIDATE_RANGE(
; 164  : 			((_Myvec *)this->_Getcont())->_Myfirst <= this->_Ptr + _Off
; 165  : 			&& this->_Ptr + _Off <= ((_Myvec *)this->_Getcont())->_Mylast);
; 166  :  #endif /* _ITERATOR_DEBUG_LEVEL */
; 167  : 
; 168  : 		_Ptr += _Off;

  00005	8b 4d 08	 mov	 ecx, DWORD PTR __Off$[ebp]
  00008	6b c9 38	 imul	 ecx, 56			; 00000038H
  0000b	01 08		 add	 DWORD PTR [eax], ecx

; 169  : 		return (*this);
; 170  : 		}

  0000d	5d		 pop	 ebp
  0000e	c2 04 00	 ret	 4
??Y?$_Vector_const_iterator@V?$_Vector_val@UGuildUser@ioGuildData@@V?$allocator@UGuildUser@ioGuildData@@@std@@@std@@@std@@QAEAAV01@H@Z ENDP ; std::_Vector_const_iterator<std::_Vector_val<ioGuildData::GuildUser,std::allocator<ioGuildData::GuildUser> > >::operator+=
_TEXT	ENDS
PUBLIC	?_Compat@?$_Vector_const_iterator@V?$_Vector_val@UGuildUser@ioGuildData@@V?$allocator@UGuildUser@ioGuildData@@@std@@@std@@@std@@QBEXABV12@@Z ; std::_Vector_const_iterator<std::_Vector_val<ioGuildData::GuildUser,std::allocator<ioGuildData::GuildUser> > >::_Compat
; Function compile flags: /Ogsp
;	COMDAT ?_Compat@?$_Vector_const_iterator@V?$_Vector_val@UGuildUser@ioGuildData@@V?$allocator@UGuildUser@ioGuildData@@@std@@@std@@@std@@QBEXABV12@@Z
_TEXT	SEGMENT
___formal$ = 8						; size = 4
?_Compat@?$_Vector_const_iterator@V?$_Vector_val@UGuildUser@ioGuildData@@V?$allocator@UGuildUser@ioGuildData@@@std@@@std@@@std@@QBEXABV12@@Z PROC ; std::_Vector_const_iterator<std::_Vector_val<ioGuildData::GuildUser,std::allocator<ioGuildData::GuildUser> > >::_Compat, COMDAT
; _this$ = ecx

; 253  : 		}

  00000	c2 04 00	 ret	 4
?_Compat@?$_Vector_const_iterator@V?$_Vector_val@UGuildUser@ioGuildData@@V?$allocator@UGuildUser@ioGuildData@@@std@@@std@@@std@@QBEXABV12@@Z ENDP ; std::_Vector_const_iterator<std::_Vector_val<ioGuildData::GuildUser,std::allocator<ioGuildData::GuildUser> > >::_Compat
_TEXT	ENDS
PUBLIC	??0?$_Vector_const_iterator@V?$_Vector_val@PAVioGuildData@@V?$allocator@PAVioGuildData@@@std@@@std@@@std@@QAE@PAPAVioGuildData@@PBU_Container_base0@1@@Z ; std::_Vector_const_iterator<std::_Vector_val<ioGuildData *,std::allocator<ioGuildData *> > >::_Vector_const_iterator<std::_Vector_val<ioGuildData *,std::allocator<ioGuildData *> > >
; Function compile flags: /Ogsp
;	COMDAT ??0?$_Vector_const_iterator@V?$_Vector_val@PAVioGuildData@@V?$allocator@PAVioGuildData@@@std@@@std@@@std@@QAE@PAPAVioGuildData@@PBU_Container_base0@1@@Z
_TEXT	SEGMENT
__Parg$ = 8						; size = 4
__Pvector$ = 12						; size = 4
??0?$_Vector_const_iterator@V?$_Vector_val@PAVioGuildData@@V?$allocator@PAVioGuildData@@@std@@@std@@@std@@QAE@PAPAVioGuildData@@PBU_Container_base0@1@@Z PROC ; std::_Vector_const_iterator<std::_Vector_val<ioGuildData *,std::allocator<ioGuildData *> > >::_Vector_const_iterator<std::_Vector_val<ioGuildData *,std::allocator<ioGuildData *> > >, COMDAT
; _this$ = ecx

; 45   : 		{	// construct with pointer _Parg

  00000	55		 push	 ebp
  00001	8b ec		 mov	 ebp, esp
  00003	8b c1		 mov	 eax, ecx
  00005	8b 4d 08	 mov	 ecx, DWORD PTR __Parg$[ebp]
  00008	89 08		 mov	 DWORD PTR [eax], ecx

; 46   : 		this->_Adopt(_Pvector);
; 47   : 		}

  0000a	5d		 pop	 ebp
  0000b	c2 08 00	 ret	 8
??0?$_Vector_const_iterator@V?$_Vector_val@PAVioGuildData@@V?$allocator@PAVioGuildData@@@std@@@std@@@std@@QAE@PAPAVioGuildData@@PBU_Container_base0@1@@Z ENDP ; std::_Vector_const_iterator<std::_Vector_val<ioGuildData *,std::allocator<ioGuildData *> > >::_Vector_const_iterator<std::_Vector_val<ioGuildData *,std::allocator<ioGuildData *> > >
_TEXT	ENDS
PUBLIC	?_Compat@?$_Vector_const_iterator@V?$_Vector_val@PAVioGuildData@@V?$allocator@PAVioGuildData@@@std@@@std@@@std@@QBEXABV12@@Z ; std::_Vector_const_iterator<std::_Vector_val<ioGuildData *,std::allocator<ioGuildData *> > >::_Compat
; Function compile flags: /Ogsp
;	COMDAT ?_Compat@?$_Vector_const_iterator@V?$_Vector_val@PAVioGuildData@@V?$allocator@PAVioGuildData@@@std@@@std@@@std@@QBEXABV12@@Z
_TEXT	SEGMENT
___formal$ = 8						; size = 4
?_Compat@?$_Vector_const_iterator@V?$_Vector_val@PAVioGuildData@@V?$allocator@PAVioGuildData@@@std@@@std@@@std@@QBEXABV12@@Z PROC ; std::_Vector_const_iterator<std::_Vector_val<ioGuildData *,std::allocator<ioGuildData *> > >::_Compat, COMDAT
; _this$ = ecx

; 253  : 		}

  00000	c2 04 00	 ret	 4
?_Compat@?$_Vector_const_iterator@V?$_Vector_val@PAVioGuildData@@V?$allocator@PAVioGuildData@@@std@@@std@@@std@@QBEXABV12@@Z ENDP ; std::_Vector_const_iterator<std::_Vector_val<ioGuildData *,std::allocator<ioGuildData *> > >::_Compat
_TEXT	ENDS
PUBLIC	??0?$_Vector_const_iterator@V?$_Vector_val@PAUGuildRankRwardInfo@@V?$allocator@PAUGuildRankRwardInfo@@@std@@@std@@@std@@QAE@PAPAUGuildRankRwardInfo@@PBU_Container_base0@1@@Z ; std::_Vector_const_iterator<std::_Vector_val<GuildRankRwardInfo *,std::allocator<GuildRankRwardInfo *> > >::_Vector_const_iterator<std::_Vector_val<GuildRankRwardInfo *,std::allocator<GuildRankRwardInfo *> > >
; Function compile flags: /Ogsp
;	COMDAT ??0?$_Vector_const_iterator@V?$_Vector_val@PAUGuildRankRwardInfo@@V?$allocator@PAUGuildRankRwardInfo@@@std@@@std@@@std@@QAE@PAPAUGuildRankRwardInfo@@PBU_Container_base0@1@@Z
_TEXT	SEGMENT
__Parg$ = 8						; size = 4
__Pvector$ = 12						; size = 4
??0?$_Vector_const_iterator@V?$_Vector_val@PAUGuildRankRwardInfo@@V?$allocator@PAUGuildRankRwardInfo@@@std@@@std@@@std@@QAE@PAPAUGuildRankRwardInfo@@PBU_Container_base0@1@@Z PROC ; std::_Vector_const_iterator<std::_Vector_val<GuildRankRwardInfo *,std::allocator<GuildRankRwardInfo *> > >::_Vector_const_iterator<std::_Vector_val<GuildRankRwardInfo *,std::allocator<GuildRankRwardInfo *> > >, COMDAT
; _this$ = ecx

; 45   : 		{	// construct with pointer _Parg

  00000	55		 push	 ebp
  00001	8b ec		 mov	 ebp, esp
  00003	8b c1		 mov	 eax, ecx
  00005	8b 4d 08	 mov	 ecx, DWORD PTR __Parg$[ebp]
  00008	89 08		 mov	 DWORD PTR [eax], ecx

; 46   : 		this->_Adopt(_Pvector);
; 47   : 		}

  0000a	5d		 pop	 ebp
  0000b	c2 08 00	 ret	 8
??0?$_Vector_const_iterator@V?$_Vector_val@PAUGuildRankRwardInfo@@V?$allocator@PAUGuildRankRwardInfo@@@std@@@std@@@std@@QAE@PAPAUGuildRankRwardInfo@@PBU_Container_base0@1@@Z ENDP ; std::_Vector_const_iterator<std::_Vector_val<GuildRankRwardInfo *,std::allocator<GuildRankRwardInfo *> > >::_Vector_const_iterator<std::_Vector_val<GuildRankRwardInfo *,std::allocator<GuildRankRwardInfo *> > >
_TEXT	ENDS
PUBLIC	?_Compat@?$_Vector_const_iterator@V?$_Vector_val@PAUGuildRankRwardInfo@@V?$allocator@PAUGuildRankRwardInfo@@@std@@@std@@@std@@QBEXABV12@@Z ; std::_Vector_const_iterator<std::_Vector_val<GuildRankRwardInfo *,std::allocator<GuildRankRwardInfo *> > >::_Compat
; Function compile flags: /Ogsp
;	COMDAT ?_Compat@?$_Vector_const_iterator@V?$_Vector_val@PAUGuildRankRwardInfo@@V?$allocator@PAUGuildRankRwardInfo@@@std@@@std@@@std@@QBEXABV12@@Z
_TEXT	SEGMENT
___formal$ = 8						; size = 4
?_Compat@?$_Vector_const_iterator@V?$_Vector_val@PAUGuildRankRwardInfo@@V?$allocator@PAUGuildRankRwardInfo@@@std@@@std@@@std@@QBEXABV12@@Z PROC ; std::_Vector_const_iterator<std::_Vector_val<GuildRankRwardInfo *,std::allocator<GuildRankRwardInfo *> > >::_Compat, COMDAT
; _this$ = ecx

; 253  : 		}

  00000	c2 04 00	 ret	 4
?_Compat@?$_Vector_const_iterator@V?$_Vector_val@PAUGuildRankRwardInfo@@V?$allocator@PAUGuildRankRwardInfo@@@std@@@std@@@std@@QBEXABV12@@Z ENDP ; std::_Vector_const_iterator<std::_Vector_val<GuildRankRwardInfo *,std::allocator<GuildRankRwardInfo *> > >::_Compat
_TEXT	ENDS
PUBLIC	??0?$_Vector_const_iterator@V?$_Vector_val@PAUGuildAttendRwardInfo@@V?$allocator@PAUGuildAttendRwardInfo@@@std@@@std@@@std@@QAE@PAPAUGuildAttendRwardInfo@@PBU_Container_base0@1@@Z ; std::_Vector_const_iterator<std::_Vector_val<GuildAttendRwardInfo *,std::allocator<GuildAttendRwardInfo *> > >::_Vector_const_iterator<std::_Vector_val<GuildAttendRwardInfo *,std::allocator<GuildAttendRwardInfo *> > >
; Function compile flags: /Ogsp
;	COMDAT ??0?$_Vector_const_iterator@V?$_Vector_val@PAUGuildAttendRwardInfo@@V?$allocator@PAUGuildAttendRwardInfo@@@std@@@std@@@std@@QAE@PAPAUGuildAttendRwardInfo@@PBU_Container_base0@1@@Z
_TEXT	SEGMENT
__Parg$ = 8						; size = 4
__Pvector$ = 12						; size = 4
??0?$_Vector_const_iterator@V?$_Vector_val@PAUGuildAttendRwardInfo@@V?$allocator@PAUGuildAttendRwardInfo@@@std@@@std@@@std@@QAE@PAPAUGuildAttendRwardInfo@@PBU_Container_base0@1@@Z PROC ; std::_Vector_const_iterator<std::_Vector_val<GuildAttendRwardInfo *,std::allocator<GuildAttendRwardInfo *> > >::_Vector_const_iterator<std::_Vector_val<GuildAttendRwardInfo *,std::allocator<GuildAttendRwardInfo *> > >, COMDAT
; _this$ = ecx

; 45   : 		{	// construct with pointer _Parg

  00000	55		 push	 ebp
  00001	8b ec		 mov	 ebp, esp
  00003	8b c1		 mov	 eax, ecx
  00005	8b 4d 08	 mov	 ecx, DWORD PTR __Parg$[ebp]
  00008	89 08		 mov	 DWORD PTR [eax], ecx

; 46   : 		this->_Adopt(_Pvector);
; 47   : 		}

  0000a	5d		 pop	 ebp
  0000b	c2 08 00	 ret	 8
??0?$_Vector_const_iterator@V?$_Vector_val@PAUGuildAttendRwardInfo@@V?$allocator@PAUGuildAttendRwardInfo@@@std@@@std@@@std@@QAE@PAPAUGuildAttendRwardInfo@@PBU_Container_base0@1@@Z ENDP ; std::_Vector_const_iterator<std::_Vector_val<GuildAttendRwardInfo *,std::allocator<GuildAttendRwardInfo *> > >::_Vector_const_iterator<std::_Vector_val<GuildAttendRwardInfo *,std::allocator<GuildAttendRwardInfo *> > >
_TEXT	ENDS
PUBLIC	?_Compat@?$_Vector_const_iterator@V?$_Vector_val@PAUGuildAttendRwardInfo@@V?$allocator@PAUGuildAttendRwardInfo@@@std@@@std@@@std@@QBEXABV12@@Z ; std::_Vector_const_iterator<std::_Vector_val<GuildAttendRwardInfo *,std::allocator<GuildAttendRwardInfo *> > >::_Compat
; Function compile flags: /Ogsp
;	COMDAT ?_Compat@?$_Vector_const_iterator@V?$_Vector_val@PAUGuildAttendRwardInfo@@V?$allocator@PAUGuildAttendRwardInfo@@@std@@@std@@@std@@QBEXABV12@@Z
_TEXT	SEGMENT
___formal$ = 8						; size = 4
?_Compat@?$_Vector_const_iterator@V?$_Vector_val@PAUGuildAttendRwardInfo@@V?$allocator@PAUGuildAttendRwardInfo@@@std@@@std@@@std@@QBEXABV12@@Z PROC ; std::_Vector_const_iterator<std::_Vector_val<GuildAttendRwardInfo *,std::allocator<GuildAttendRwardInfo *> > >::_Compat, COMDAT
; _this$ = ecx

; 253  : 		}

  00000	c2 04 00	 ret	 4
?_Compat@?$_Vector_const_iterator@V?$_Vector_val@PAUGuildAttendRwardInfo@@V?$allocator@PAUGuildAttendRwardInfo@@@std@@@std@@@std@@QBEXABV12@@Z ENDP ; std::_Vector_const_iterator<std::_Vector_val<GuildAttendRwardInfo *,std::allocator<GuildAttendRwardInfo *> > >::_Compat
_TEXT	ENDS
PUBLIC	??0?$_Vector_const_iterator@V?$_Vector_val@UInvitationUser@ioGuildInfo@@V?$allocator@UInvitationUser@ioGuildInfo@@@std@@@std@@@std@@QAE@PAUInvitationUser@ioGuildInfo@@PBU_Container_base0@1@@Z ; std::_Vector_const_iterator<std::_Vector_val<ioGuildInfo::InvitationUser,std::allocator<ioGuildInfo::InvitationUser> > >::_Vector_const_iterator<std::_Vector_val<ioGuildInfo::InvitationUser,std::allocator<ioGuildInfo::InvitationUser> > >
; Function compile flags: /Ogsp
;	COMDAT ??0?$_Vector_const_iterator@V?$_Vector_val@UInvitationUser@ioGuildInfo@@V?$allocator@UInvitationUser@ioGuildInfo@@@std@@@std@@@std@@QAE@PAUInvitationUser@ioGuildInfo@@PBU_Container_base0@1@@Z
_TEXT	SEGMENT
__Parg$ = 8						; size = 4
__Pvector$ = 12						; size = 4
??0?$_Vector_const_iterator@V?$_Vector_val@UInvitationUser@ioGuildInfo@@V?$allocator@UInvitationUser@ioGuildInfo@@@std@@@std@@@std@@QAE@PAUInvitationUser@ioGuildInfo@@PBU_Container_base0@1@@Z PROC ; std::_Vector_const_iterator<std::_Vector_val<ioGuildInfo::InvitationUser,std::allocator<ioGuildInfo::InvitationUser> > >::_Vector_const_iterator<std::_Vector_val<ioGuildInfo::InvitationUser,std::allocator<ioGuildInfo::InvitationUser> > >, COMDAT
; _this$ = ecx

; 45   : 		{	// construct with pointer _Parg

  00000	55		 push	 ebp
  00001	8b ec		 mov	 ebp, esp
  00003	8b c1		 mov	 eax, ecx
  00005	8b 4d 08	 mov	 ecx, DWORD PTR __Parg$[ebp]
  00008	89 08		 mov	 DWORD PTR [eax], ecx

; 46   : 		this->_Adopt(_Pvector);
; 47   : 		}

  0000a	5d		 pop	 ebp
  0000b	c2 08 00	 ret	 8
??0?$_Vector_const_iterator@V?$_Vector_val@UInvitationUser@ioGuildInfo@@V?$allocator@UInvitationUser@ioGuildInfo@@@std@@@std@@@std@@QAE@PAUInvitationUser@ioGuildInfo@@PBU_Container_base0@1@@Z ENDP ; std::_Vector_const_iterator<std::_Vector_val<ioGuildInfo::InvitationUser,std::allocator<ioGuildInfo::InvitationUser> > >::_Vector_const_iterator<std::_Vector_val<ioGuildInfo::InvitationUser,std::allocator<ioGuildInfo::InvitationUser> > >
_TEXT	ENDS
PUBLIC	??Y?$_Vector_const_iterator@V?$_Vector_val@UInvitationUser@ioGuildInfo@@V?$allocator@UInvitationUser@ioGuildInfo@@@std@@@std@@@std@@QAEAAV01@H@Z ; std::_Vector_const_iterator<std::_Vector_val<ioGuildInfo::InvitationUser,std::allocator<ioGuildInfo::InvitationUser> > >::operator+=
; Function compile flags: /Ogsp
;	COMDAT ??Y?$_Vector_const_iterator@V?$_Vector_val@UInvitationUser@ioGuildInfo@@V?$allocator@UInvitationUser@ioGuildInfo@@@std@@@std@@@std@@QAEAAV01@H@Z
_TEXT	SEGMENT
__Off$ = 8						; size = 4
??Y?$_Vector_const_iterator@V?$_Vector_val@UInvitationUser@ioGuildInfo@@V?$allocator@UInvitationUser@ioGuildInfo@@@std@@@std@@@std@@QAEAAV01@H@Z PROC ; std::_Vector_const_iterator<std::_Vector_val<ioGuildInfo::InvitationUser,std::allocator<ioGuildInfo::InvitationUser> > >::operator+=, COMDAT
; _this$ = ecx

; 151  : 		{	// increment by integer

  00000	55		 push	 ebp
  00001	8b ec		 mov	 ebp, esp
  00003	8b c1		 mov	 eax, ecx

; 152  :  #if _ITERATOR_DEBUG_LEVEL == 2
; 153  : 		if (this->_Getcont() == 0
; 154  : 			|| this->_Ptr + _Off < ((_Myvec *)this->_Getcont())->_Myfirst
; 155  : 			|| ((_Myvec *)this->_Getcont())->_Mylast < this->_Ptr + _Off)
; 156  : 			{	// report error
; 157  : 			_DEBUG_ERROR("vector iterator + offset out of range");
; 158  : 			_SCL_SECURE_OUT_OF_RANGE;
; 159  : 			}
; 160  : 
; 161  :  #elif _ITERATOR_DEBUG_LEVEL == 1
; 162  : 		_SCL_SECURE_VALIDATE(this->_Getcont() != 0);
; 163  : 		_SCL_SECURE_VALIDATE_RANGE(
; 164  : 			((_Myvec *)this->_Getcont())->_Myfirst <= this->_Ptr + _Off
; 165  : 			&& this->_Ptr + _Off <= ((_Myvec *)this->_Getcont())->_Mylast);
; 166  :  #endif /* _ITERATOR_DEBUG_LEVEL */
; 167  : 
; 168  : 		_Ptr += _Off;

  00005	8b 4d 08	 mov	 ecx, DWORD PTR __Off$[ebp]
  00008	6b c9 14	 imul	 ecx, 20			; 00000014H
  0000b	01 08		 add	 DWORD PTR [eax], ecx

; 169  : 		return (*this);
; 170  : 		}

  0000d	5d		 pop	 ebp
  0000e	c2 04 00	 ret	 4
??Y?$_Vector_const_iterator@V?$_Vector_val@UInvitationUser@ioGuildInfo@@V?$allocator@UInvitationUser@ioGuildInfo@@@std@@@std@@@std@@QAEAAV01@H@Z ENDP ; std::_Vector_const_iterator<std::_Vector_val<ioGuildInfo::InvitationUser,std::allocator<ioGuildInfo::InvitationUser> > >::operator+=
_TEXT	ENDS
PUBLIC	??0?$_Vector_const_iterator@V?$_Vector_val@V?$basic_string@DU?$char_traits@D@std@@V?$allocator@D@2@@std@@V?$allocator@V?$basic_string@DU?$char_traits@D@std@@V?$allocator@D@2@@std@@@2@@std@@@std@@QAE@PAV?$basic_string@DU?$char_traits@D@std@@V?$allocator@D@2@@1@PBU_Container_base0@1@@Z ; std::_Vector_const_iterator<std::_Vector_val<std::basic_string<char,std::char_traits<char>,std::allocator<char> >,std::allocator<std::basic_string<char,std::char_traits<char>,std::allocator<char> > > > >::_Vector_const_iterator<std::_Vector_val<std::basic_string<char,std::char_traits<char>,std::allocator<char> >,std::allocator<std::basic_string<char,std::char_traits<char>,std::allocator<char> > > > >
; Function compile flags: /Ogsp
;	COMDAT ??0?$_Vector_const_iterator@V?$_Vector_val@V?$basic_string@DU?$char_traits@D@std@@V?$allocator@D@2@@std@@V?$allocator@V?$basic_string@DU?$char_traits@D@std@@V?$allocator@D@2@@std@@@2@@std@@@std@@QAE@PAV?$basic_string@DU?$char_traits@D@std@@V?$allocator@D@2@@1@PBU_Container_base0@1@@Z
_TEXT	SEGMENT
__Parg$ = 8						; size = 4
__Pvector$ = 12						; size = 4
??0?$_Vector_const_iterator@V?$_Vector_val@V?$basic_string@DU?$char_traits@D@std@@V?$allocator@D@2@@std@@V?$allocator@V?$basic_string@DU?$char_traits@D@std@@V?$allocator@D@2@@std@@@2@@std@@@std@@QAE@PAV?$basic_string@DU?$char_traits@D@std@@V?$allocator@D@2@@1@PBU_Container_base0@1@@Z PROC ; std::_Vector_const_iterator<std::_Vector_val<std::basic_string<char,std::char_traits<char>,std::allocator<char> >,std::allocator<std::basic_string<char,std::char_traits<char>,std::allocator<char> > > > >::_Vector_const_iterator<std::_Vector_val<std::basic_string<char,std::char_traits<char>,std::allocator<char> >,std::allocator<std::basic_string<char,std::char_traits<char>,std::allocator<char> > > > >, COMDAT
; _this$ = ecx

; 45   : 		{	// construct with pointer _Parg

  00000	55		 push	 ebp
  00001	8b ec		 mov	 ebp, esp
  00003	8b c1		 mov	 eax, ecx
  00005	8b 4d 08	 mov	 ecx, DWORD PTR __Parg$[ebp]
  00008	89 08		 mov	 DWORD PTR [eax], ecx

; 46   : 		this->_Adopt(_Pvector);
; 47   : 		}

  0000a	5d		 pop	 ebp
  0000b	c2 08 00	 ret	 8
??0?$_Vector_const_iterator@V?$_Vector_val@V?$basic_string@DU?$char_traits@D@std@@V?$allocator@D@2@@std@@V?$allocator@V?$basic_string@DU?$char_traits@D@std@@V?$allocator@D@2@@std@@@2@@std@@@std@@QAE@PAV?$basic_string@DU?$char_traits@D@std@@V?$allocator@D@2@@1@PBU_Container_base0@1@@Z ENDP ; std::_Vector_const_iterator<std::_Vector_val<std::basic_string<char,std::char_traits<char>,std::allocator<char> >,std::allocator<std::basic_string<char,std::char_traits<char>,std::allocator<char> > > > >::_Vector_const_iterator<std::_Vector_val<std::basic_string<char,std::char_traits<char>,std::allocator<char> >,std::allocator<std::basic_string<char,std::char_traits<char>,std::allocator<char> > > > >
_TEXT	ENDS
PUBLIC	?max_size@?$allocator@V?$basic_string@DU?$char_traits@D@std@@V?$allocator@D@2@@std@@@std@@QBEIXZ ; std::allocator<std::basic_string<char,std::char_traits<char>,std::allocator<char> > >::max_size
; Function compile flags: /Ogsp
; File c:\program files (x86)\microsoft visual studio 10.0\vc\include\xmemory
;	COMDAT ?max_size@?$allocator@V?$basic_string@DU?$char_traits@D@std@@V?$allocator@D@2@@std@@@std@@QBEIXZ
_TEXT	SEGMENT
?max_size@?$allocator@V?$basic_string@DU?$char_traits@D@std@@V?$allocator@D@2@@std@@@std@@QBEIXZ PROC ; std::allocator<std::basic_string<char,std::char_traits<char>,std::allocator<char> > >::max_size, COMDAT
; _this$ = ecx

; 218  : 		_SIZT _Count = (_SIZT)(-1) / sizeof (_Ty);
; 219  : 		return (0 < _Count ? _Count : 1);

  00000	b8 49 92 24 09	 mov	 eax, 153391689		; 09249249H

; 220  : 		}

  00005	c3		 ret	 0
?max_size@?$allocator@V?$basic_string@DU?$char_traits@D@std@@V?$allocator@D@2@@std@@@std@@QBEIXZ ENDP ; std::allocator<std::basic_string<char,std::char_traits<char>,std::allocator<char> > >::max_size
_TEXT	ENDS
PUBLIC	?max_size@?$allocator@VGashaponPresent@@@std@@QBEIXZ ; std::allocator<GashaponPresent>::max_size
; Function compile flags: /Ogsp
;	COMDAT ?max_size@?$allocator@VGashaponPresent@@@std@@QBEIXZ
_TEXT	SEGMENT
?max_size@?$allocator@VGashaponPresent@@@std@@QBEIXZ PROC ; std::allocator<GashaponPresent>::max_size, COMDAT
; _this$ = ecx

; 218  : 		_SIZT _Count = (_SIZT)(-1) / sizeof (_Ty);
; 219  : 		return (0 < _Count ? _Count : 1);

  00000	b8 cc cc cc 0c	 mov	 eax, 214748364		; 0cccccccH

; 220  : 		}

  00005	c3		 ret	 0
?max_size@?$allocator@VGashaponPresent@@@std@@QBEIXZ ENDP ; std::allocator<GashaponPresent>::max_size
_TEXT	ENDS
PUBLIC	?max_size@?$allocator@UGuildUser@ioGuildData@@@std@@QBEIXZ ; std::allocator<ioGuildData::GuildUser>::max_size
; Function compile flags: /Ogsp
;	COMDAT ?max_size@?$allocator@UGuildUser@ioGuildData@@@std@@QBEIXZ
_TEXT	SEGMENT
?max_size@?$allocator@UGuildUser@ioGuildData@@@std@@QBEIXZ PROC ; std::allocator<ioGuildData::GuildUser>::max_size, COMDAT
; _this$ = ecx

; 218  : 		_SIZT _Count = (_SIZT)(-1) / sizeof (_Ty);
; 219  : 		return (0 < _Count ? _Count : 1);

  00000	b8 24 49 92 04	 mov	 eax, 76695844		; 04924924H

; 220  : 		}

  00005	c3		 ret	 0
?max_size@?$allocator@UGuildUser@ioGuildData@@@std@@QBEIXZ ENDP ; std::allocator<ioGuildData::GuildUser>::max_size
_TEXT	ENDS
PUBLIC	?max_size@?$allocator@PAVioGuildData@@@std@@QBEIXZ ; std::allocator<ioGuildData *>::max_size
; Function compile flags: /Ogsp
;	COMDAT ?max_size@?$allocator@PAVioGuildData@@@std@@QBEIXZ
_TEXT	SEGMENT
?max_size@?$allocator@PAVioGuildData@@@std@@QBEIXZ PROC	; std::allocator<ioGuildData *>::max_size, COMDAT
; _this$ = ecx

; 218  : 		_SIZT _Count = (_SIZT)(-1) / sizeof (_Ty);
; 219  : 		return (0 < _Count ? _Count : 1);

  00000	b8 ff ff ff 3f	 mov	 eax, 1073741823		; 3fffffffH

; 220  : 		}

  00005	c3		 ret	 0
?max_size@?$allocator@PAVioGuildData@@@std@@QBEIXZ ENDP	; std::allocator<ioGuildData *>::max_size
_TEXT	ENDS
PUBLIC	?max_size@?$allocator@UInvitationUser@ioGuildInfo@@@std@@QBEIXZ ; std::allocator<ioGuildInfo::InvitationUser>::max_size
; Function compile flags: /Ogsp
;	COMDAT ?max_size@?$allocator@UInvitationUser@ioGuildInfo@@@std@@QBEIXZ
_TEXT	SEGMENT
?max_size@?$allocator@UInvitationUser@ioGuildInfo@@@std@@QBEIXZ PROC ; std::allocator<ioGuildInfo::InvitationUser>::max_size, COMDAT
; _this$ = ecx

; 218  : 		_SIZT _Count = (_SIZT)(-1) / sizeof (_Ty);
; 219  : 		return (0 < _Count ? _Count : 1);

  00000	b8 cc cc cc 0c	 mov	 eax, 214748364		; 0cccccccH

; 220  : 		}

  00005	c3		 ret	 0
?max_size@?$allocator@UInvitationUser@ioGuildInfo@@@std@@QBEIXZ ENDP ; std::allocator<ioGuildInfo::InvitationUser>::max_size
_TEXT	ENDS
PUBLIC	?max_size@?$allocator@PAUGuildAttendRwardInfo@@@std@@QBEIXZ ; std::allocator<GuildAttendRwardInfo *>::max_size
; Function compile flags: /Ogsp
;	COMDAT ?max_size@?$allocator@PAUGuildAttendRwardInfo@@@std@@QBEIXZ
_TEXT	SEGMENT
?max_size@?$allocator@PAUGuildAttendRwardInfo@@@std@@QBEIXZ PROC ; std::allocator<GuildAttendRwardInfo *>::max_size, COMDAT
; _this$ = ecx

; 218  : 		_SIZT _Count = (_SIZT)(-1) / sizeof (_Ty);
; 219  : 		return (0 < _Count ? _Count : 1);

  00000	b8 ff ff ff 3f	 mov	 eax, 1073741823		; 3fffffffH

; 220  : 		}

  00005	c3		 ret	 0
?max_size@?$allocator@PAUGuildAttendRwardInfo@@@std@@QBEIXZ ENDP ; std::allocator<GuildAttendRwardInfo *>::max_size
_TEXT	ENDS
PUBLIC	?max_size@?$allocator@PAUGuildRankRwardInfo@@@std@@QBEIXZ ; std::allocator<GuildRankRwardInfo *>::max_size
; Function compile flags: /Ogsp
;	COMDAT ?max_size@?$allocator@PAUGuildRankRwardInfo@@@std@@QBEIXZ
_TEXT	SEGMENT
?max_size@?$allocator@PAUGuildRankRwardInfo@@@std@@QBEIXZ PROC ; std::allocator<GuildRankRwardInfo *>::max_size, COMDAT
; _this$ = ecx

; 218  : 		_SIZT _Count = (_SIZT)(-1) / sizeof (_Ty);
; 219  : 		return (0 < _Count ? _Count : 1);

  00000	b8 ff ff ff 3f	 mov	 eax, 1073741823		; 3fffffffH

; 220  : 		}

  00005	c3		 ret	 0
?max_size@?$allocator@PAUGuildRankRwardInfo@@@std@@QBEIXZ ENDP ; std::allocator<GuildRankRwardInfo *>::max_size
_TEXT	ENDS
PUBLIC	?_Compat@?$_Vector_const_iterator@V?$_Vector_val@UInvitationUser@ioGuildInfo@@V?$allocator@UInvitationUser@ioGuildInfo@@@std@@@std@@@std@@QBEXABV12@@Z ; std::_Vector_const_iterator<std::_Vector_val<ioGuildInfo::InvitationUser,std::allocator<ioGuildInfo::InvitationUser> > >::_Compat
; Function compile flags: /Ogsp
; File c:\program files (x86)\microsoft visual studio 10.0\vc\include\vector
;	COMDAT ?_Compat@?$_Vector_const_iterator@V?$_Vector_val@UInvitationUser@ioGuildInfo@@V?$allocator@UInvitationUser@ioGuildInfo@@@std@@@std@@@std@@QBEXABV12@@Z
_TEXT	SEGMENT
___formal$ = 8						; size = 4
?_Compat@?$_Vector_const_iterator@V?$_Vector_val@UInvitationUser@ioGuildInfo@@V?$allocator@UInvitationUser@ioGuildInfo@@@std@@@std@@@std@@QBEXABV12@@Z PROC ; std::_Vector_const_iterator<std::_Vector_val<ioGuildInfo::InvitationUser,std::allocator<ioGuildInfo::InvitationUser> > >::_Compat, COMDAT
; _this$ = ecx

; 253  : 		}

  00000	c2 04 00	 ret	 4
?_Compat@?$_Vector_const_iterator@V?$_Vector_val@UInvitationUser@ioGuildInfo@@V?$allocator@UInvitationUser@ioGuildInfo@@@std@@@std@@@std@@QBEXABV12@@Z ENDP ; std::_Vector_const_iterator<std::_Vector_val<ioGuildInfo::InvitationUser,std::allocator<ioGuildInfo::InvitationUser> > >::_Compat
_TEXT	ENDS
PUBLIC	??0?$_Vector_const_iterator@V?$_Vector_val@VGashaponPresent@@V?$allocator@VGashaponPresent@@@std@@@std@@@std@@QAE@PAVGashaponPresent@@PBU_Container_base0@1@@Z ; std::_Vector_const_iterator<std::_Vector_val<GashaponPresent,std::allocator<GashaponPresent> > >::_Vector_const_iterator<std::_Vector_val<GashaponPresent,std::allocator<GashaponPresent> > >
; Function compile flags: /Ogsp
;	COMDAT ??0?$_Vector_const_iterator@V?$_Vector_val@VGashaponPresent@@V?$allocator@VGashaponPresent@@@std@@@std@@@std@@QAE@PAVGashaponPresent@@PBU_Container_base0@1@@Z
_TEXT	SEGMENT
__Parg$ = 8						; size = 4
__Pvector$ = 12						; size = 4
??0?$_Vector_const_iterator@V?$_Vector_val@VGashaponPresent@@V?$allocator@VGashaponPresent@@@std@@@std@@@std@@QAE@PAVGashaponPresent@@PBU_Container_base0@1@@Z PROC ; std::_Vector_const_iterator<std::_Vector_val<GashaponPresent,std::allocator<GashaponPresent> > >::_Vector_const_iterator<std::_Vector_val<GashaponPresent,std::allocator<GashaponPresent> > >, COMDAT
; _this$ = ecx

; 45   : 		{	// construct with pointer _Parg

  00000	55		 push	 ebp
  00001	8b ec		 mov	 ebp, esp
  00003	8b c1		 mov	 eax, ecx
  00005	8b 4d 08	 mov	 ecx, DWORD PTR __Parg$[ebp]
  00008	89 08		 mov	 DWORD PTR [eax], ecx

; 46   : 		this->_Adopt(_Pvector);
; 47   : 		}

  0000a	5d		 pop	 ebp
  0000b	c2 08 00	 ret	 8
??0?$_Vector_const_iterator@V?$_Vector_val@VGashaponPresent@@V?$allocator@VGashaponPresent@@@std@@@std@@@std@@QAE@PAVGashaponPresent@@PBU_Container_base0@1@@Z ENDP ; std::_Vector_const_iterator<std::_Vector_val<GashaponPresent,std::allocator<GashaponPresent> > >::_Vector_const_iterator<std::_Vector_val<GashaponPresent,std::allocator<GashaponPresent> > >
_TEXT	ENDS
PUBLIC	?_Compat@?$_Vector_const_iterator@V?$_Vector_val@VGashaponPresent@@V?$allocator@VGashaponPresent@@@std@@@std@@@std@@QBEXABV12@@Z ; std::_Vector_const_iterator<std::_Vector_val<GashaponPresent,std::allocator<GashaponPresent> > >::_Compat
; Function compile flags: /Ogsp
;	COMDAT ?_Compat@?$_Vector_const_iterator@V?$_Vector_val@VGashaponPresent@@V?$allocator@VGashaponPresent@@@std@@@std@@@std@@QBEXABV12@@Z
_TEXT	SEGMENT
___formal$ = 8						; size = 4
?_Compat@?$_Vector_const_iterator@V?$_Vector_val@VGashaponPresent@@V?$allocator@VGashaponPresent@@@std@@@std@@@std@@QBEXABV12@@Z PROC ; std::_Vector_const_iterator<std::_Vector_val<GashaponPresent,std::allocator<GashaponPresent> > >::_Compat, COMDAT
; _this$ = ecx

; 253  : 		}

  00000	c2 04 00	 ret	 4
?_Compat@?$_Vector_const_iterator@V?$_Vector_val@VGashaponPresent@@V?$allocator@VGashaponPresent@@@std@@@std@@@std@@QBEXABV12@@Z ENDP ; std::_Vector_const_iterator<std::_Vector_val<GashaponPresent,std::allocator<GashaponPresent> > >::_Compat
_TEXT	ENDS
PUBLIC	??$sprintf_s@$0BAE@@@YAHAAY0BAE@DPBDZZ		; sprintf_s<260>
EXTRN	__imp__vsprintf_s:PROC
; Function compile flags: /Ogsp
; File c:\program files (x86)\microsoft visual studio 10.0\vc\include\stdio.h
;	COMDAT ??$sprintf_s@$0BAE@@@YAHAAY0BAE@DPBDZZ
_TEXT	SEGMENT
__Dest$ = 8						; size = 4
__Format$ = 12						; size = 4
??$sprintf_s@$0BAE@@@YAHAAY0BAE@DPBDZZ PROC		; sprintf_s<260>, COMDAT

; 323  : __DEFINE_CPP_OVERLOAD_SECURE_FUNC_0_1_ARGLIST(int, sprintf_s, vsprintf_s, _Deref_post_z_ char, _Dest, _In_z_ _Printf_format_string_ const char *, _Format)

  00000	55		 push	 ebp
  00001	8b ec		 mov	 ebp, esp
  00003	8d 45 10	 lea	 eax, DWORD PTR __Format$[ebp+4]
  00006	50		 push	 eax
  00007	ff 75 0c	 push	 DWORD PTR __Format$[ebp]
  0000a	68 04 01 00 00	 push	 260			; 00000104H
  0000f	ff 75 08	 push	 DWORD PTR __Dest$[ebp]
  00012	ff 15 00 00 00
	00		 call	 DWORD PTR __imp__vsprintf_s
  00018	83 c4 10	 add	 esp, 16			; 00000010H
  0001b	5d		 pop	 ebp
  0001c	c3		 ret	 0
??$sprintf_s@$0BAE@@@YAHAAY0BAE@DPBDZZ ENDP		; sprintf_s<260>
_TEXT	ENDS
PUBLIC	??$addressof@K@std@@YAPAKAAK@Z			; std::addressof<unsigned long>
; Function compile flags: /Ogsp
; File c:\program files (x86)\microsoft visual studio 10.0\vc\include\xmemory
;	COMDAT ??$addressof@K@std@@YAPAKAAK@Z
_TEXT	SEGMENT
__Val$ = 8						; size = 4
??$addressof@K@std@@YAPAKAAK@Z PROC			; std::addressof<unsigned long>, COMDAT

; 110  : 	{	// return address of _Val

  00000	55		 push	 ebp
  00001	8b ec		 mov	 ebp, esp

; 111  : 	return ((_Ty *) &(char&)_Val);

  00003	8b 45 08	 mov	 eax, DWORD PTR __Val$[ebp]

; 112  : 	}

  00006	5d		 pop	 ebp
  00007	c3		 ret	 0
??$addressof@K@std@@YAPAKAAK@Z ENDP			; std::addressof<unsigned long>
_TEXT	ENDS
PUBLIC	??$forward@K@std@@YA$$QAKAAK@Z			; std::forward<unsigned long>
; Function compile flags: /Ogsp
; File c:\program files (x86)\microsoft visual studio 10.0\vc\include\utility
;	COMDAT ??$forward@K@std@@YA$$QAKAAK@Z
_TEXT	SEGMENT
__Arg$ = 8						; size = 4
??$forward@K@std@@YA$$QAKAAK@Z PROC			; std::forward<unsigned long>, COMDAT

; 78   : 	{	// forward _Arg, given explicitly specified type parameter

  00000	55		 push	 ebp
  00001	8b ec		 mov	 ebp, esp

; 79   : 	return ((_Ty&&)_Arg);

  00003	8b 45 08	 mov	 eax, DWORD PTR __Arg$[ebp]

; 80   : 	}

  00006	5d		 pop	 ebp
  00007	c3		 ret	 0
??$forward@K@std@@YA$$QAKAAK@Z ENDP			; std::forward<unsigned long>
_TEXT	ENDS
PUBLIC	??$addressof@$$CBUGuildUser@ioGuildData@@@std@@YAPBUGuildUser@ioGuildData@@ABU12@@Z ; std::addressof<ioGuildData::GuildUser const >
; Function compile flags: /Ogsp
; File c:\program files (x86)\microsoft visual studio 10.0\vc\include\xmemory
;	COMDAT ??$addressof@$$CBUGuildUser@ioGuildData@@@std@@YAPBUGuildUser@ioGuildData@@ABU12@@Z
_TEXT	SEGMENT
__Val$ = 8						; size = 4
??$addressof@$$CBUGuildUser@ioGuildData@@@std@@YAPBUGuildUser@ioGuildData@@ABU12@@Z PROC ; std::addressof<ioGuildData::GuildUser const >, COMDAT

; 110  : 	{	// return address of _Val

  00000	55		 push	 ebp
  00001	8b ec		 mov	 ebp, esp

; 111  : 	return ((_Ty *) &(char&)_Val);

  00003	8b 45 08	 mov	 eax, DWORD PTR __Val$[ebp]

; 112  : 	}

  00006	5d		 pop	 ebp
  00007	c3		 ret	 0
??$addressof@$$CBUGuildUser@ioGuildData@@@std@@YAPBUGuildUser@ioGuildData@@ABU12@@Z ENDP ; std::addressof<ioGuildData::GuildUser const >
_TEXT	ENDS
PUBLIC	??$addressof@QAVioGuildData@@@std@@YAPBQAVioGuildData@@ABQAV1@@Z ; std::addressof<ioGuildData * const>
; Function compile flags: /Ogsp
;	COMDAT ??$addressof@QAVioGuildData@@@std@@YAPBQAVioGuildData@@ABQAV1@@Z
_TEXT	SEGMENT
__Val$ = 8						; size = 4
??$addressof@QAVioGuildData@@@std@@YAPBQAVioGuildData@@ABQAV1@@Z PROC ; std::addressof<ioGuildData * const>, COMDAT

; 110  : 	{	// return address of _Val

  00000	55		 push	 ebp
  00001	8b ec		 mov	 ebp, esp

; 111  : 	return ((_Ty *) &(char&)_Val);

  00003	8b 45 08	 mov	 eax, DWORD PTR __Val$[ebp]

; 112  : 	}

  00006	5d		 pop	 ebp
  00007	c3		 ret	 0
??$addressof@QAVioGuildData@@@std@@YAPBQAVioGuildData@@ABQAV1@@Z ENDP ; std::addressof<ioGuildData * const>
_TEXT	ENDS
PUBLIC	??$addressof@$$CBUInvitationUser@ioGuildInfo@@@std@@YAPBUInvitationUser@ioGuildInfo@@ABU12@@Z ; std::addressof<ioGuildInfo::InvitationUser const >
; Function compile flags: /Ogsp
;	COMDAT ??$addressof@$$CBUInvitationUser@ioGuildInfo@@@std@@YAPBUInvitationUser@ioGuildInfo@@ABU12@@Z
_TEXT	SEGMENT
__Val$ = 8						; size = 4
??$addressof@$$CBUInvitationUser@ioGuildInfo@@@std@@YAPBUInvitationUser@ioGuildInfo@@ABU12@@Z PROC ; std::addressof<ioGuildInfo::InvitationUser const >, COMDAT

; 110  : 	{	// return address of _Val

  00000	55		 push	 ebp
  00001	8b ec		 mov	 ebp, esp

; 111  : 	return ((_Ty *) &(char&)_Val);

  00003	8b 45 08	 mov	 eax, DWORD PTR __Val$[ebp]

; 112  : 	}

  00006	5d		 pop	 ebp
  00007	c3		 ret	 0
??$addressof@$$CBUInvitationUser@ioGuildInfo@@@std@@YAPBUInvitationUser@ioGuildInfo@@ABU12@@Z ENDP ; std::addressof<ioGuildInfo::InvitationUser const >
_TEXT	ENDS
PUBLIC	??$addressof@QAUGuildAttendRwardInfo@@@std@@YAPBQAUGuildAttendRwardInfo@@ABQAU1@@Z ; std::addressof<GuildAttendRwardInfo * const>
; Function compile flags: /Ogsp
;	COMDAT ??$addressof@QAUGuildAttendRwardInfo@@@std@@YAPBQAUGuildAttendRwardInfo@@ABQAU1@@Z
_TEXT	SEGMENT
__Val$ = 8						; size = 4
??$addressof@QAUGuildAttendRwardInfo@@@std@@YAPBQAUGuildAttendRwardInfo@@ABQAU1@@Z PROC ; std::addressof<GuildAttendRwardInfo * const>, COMDAT

; 110  : 	{	// return address of _Val

  00000	55		 push	 ebp
  00001	8b ec		 mov	 ebp, esp

; 111  : 	return ((_Ty *) &(char&)_Val);

  00003	8b 45 08	 mov	 eax, DWORD PTR __Val$[ebp]

; 112  : 	}

  00006	5d		 pop	 ebp
  00007	c3		 ret	 0
??$addressof@QAUGuildAttendRwardInfo@@@std@@YAPBQAUGuildAttendRwardInfo@@ABQAU1@@Z ENDP ; std::addressof<GuildAttendRwardInfo * const>
_TEXT	ENDS
PUBLIC	??$addressof@QAUGuildRankRwardInfo@@@std@@YAPBQAUGuildRankRwardInfo@@ABQAU1@@Z ; std::addressof<GuildRankRwardInfo * const>
; Function compile flags: /Ogsp
;	COMDAT ??$addressof@QAUGuildRankRwardInfo@@@std@@YAPBQAUGuildRankRwardInfo@@ABQAU1@@Z
_TEXT	SEGMENT
__Val$ = 8						; size = 4
??$addressof@QAUGuildRankRwardInfo@@@std@@YAPBQAUGuildRankRwardInfo@@ABQAU1@@Z PROC ; std::addressof<GuildRankRwardInfo * const>, COMDAT

; 110  : 	{	// return address of _Val

  00000	55		 push	 ebp
  00001	8b ec		 mov	 ebp, esp

; 111  : 	return ((_Ty *) &(char&)_Val);

  00003	8b 45 08	 mov	 eax, DWORD PTR __Val$[ebp]

; 112  : 	}

  00006	5d		 pop	 ebp
  00007	c3		 ret	 0
??$addressof@QAUGuildRankRwardInfo@@@std@@YAPBQAUGuildRankRwardInfo@@ABQAU1@@Z ENDP ; std::addressof<GuildRankRwardInfo * const>
_TEXT	ENDS
PUBLIC	__TI2?AVbad_alloc@std@@
PUBLIC	??$_Allocate@V?$basic_string@DU?$char_traits@D@std@@V?$allocator@D@2@@std@@@std@@YAPAV?$basic_string@DU?$char_traits@D@std@@V?$allocator@D@2@@0@IPAV10@@Z ; std::_Allocate<std::basic_string<char,std::char_traits<char>,std::allocator<char> > >
PUBLIC	__CTA2?AVbad_alloc@std@@
PUBLIC	__CT??_R0?AVbad_alloc@std@@@8??0bad_alloc@std@@QAE@ABV01@@Z12
PUBLIC	??0bad_alloc@std@@QAE@ABV01@@Z			; std::bad_alloc::bad_alloc
PUBLIC	__CT??_R0?AVexception@std@@@8??0exception@std@@QAE@ABV01@@Z12
EXTRN	??2@YAPAXI@Z:PROC				; operator new
EXTRN	__CxxThrowException@8:PROC
EXTRN	??0exception@std@@QAE@ABV01@@Z:PROC		; std::exception::exception
;	COMDAT __CT??_R0?AVexception@std@@@8??0exception@std@@QAE@ABV01@@Z12
; File c:\program files (x86)\microsoft visual studio 10.0\vc\include\exception
xdata$x	SEGMENT
__CT??_R0?AVexception@std@@@8??0exception@std@@QAE@ABV01@@Z12 DD 00H
	DD	FLAT:??_R0?AVexception@std@@@8
	DD	00H
	DD	0ffffffffH
	ORG $+4
	DD	0cH
	DD	FLAT:??0exception@std@@QAE@ABV01@@Z
xdata$x	ENDS
;	COMDAT __CT??_R0?AVbad_alloc@std@@@8??0bad_alloc@std@@QAE@ABV01@@Z12
xdata$x	SEGMENT
__CT??_R0?AVbad_alloc@std@@@8??0bad_alloc@std@@QAE@ABV01@@Z12 DD 00H
	DD	FLAT:??_R0?AVbad_alloc@std@@@8
	DD	00H
	DD	0ffffffffH
	ORG $+4
	DD	0cH
	DD	FLAT:??0bad_alloc@std@@QAE@ABV01@@Z
xdata$x	ENDS
;	COMDAT __CTA2?AVbad_alloc@std@@
xdata$x	SEGMENT
__CTA2?AVbad_alloc@std@@ DD 02H
	DD	FLAT:__CT??_R0?AVbad_alloc@std@@@8??0bad_alloc@std@@QAE@ABV01@@Z12
	DD	FLAT:__CT??_R0?AVexception@std@@@8??0exception@std@@QAE@ABV01@@Z12
xdata$x	ENDS
;	COMDAT __TI2?AVbad_alloc@std@@
xdata$x	SEGMENT
__TI2?AVbad_alloc@std@@ DD 00H
	DD	FLAT:??1bad_alloc@std@@UAE@XZ
	DD	00H
	DD	FLAT:__CTA2?AVbad_alloc@std@@
; Function compile flags: /Ogsp
; File c:\program files (x86)\microsoft visual studio 10.0\vc\include\xmemory
xdata$x	ENDS
;	COMDAT ??$_Allocate@V?$basic_string@DU?$char_traits@D@std@@V?$allocator@D@2@@std@@@std@@YAPAV?$basic_string@DU?$char_traits@D@std@@V?$allocator@D@2@@0@IPAV10@@Z
_TEXT	SEGMENT
$T518409 = -12						; size = 12
$T518414 = 8						; size = 4
__Count$ = 8						; size = 4
___formal$ = 12						; size = 4
??$_Allocate@V?$basic_string@DU?$char_traits@D@std@@V?$allocator@D@2@@std@@@std@@YAPAV?$basic_string@DU?$char_traits@D@std@@V?$allocator@D@2@@0@IPAV10@@Z PROC ; std::_Allocate<std::basic_string<char,std::char_traits<char>,std::allocator<char> > >, COMDAT

; 30   : 	{	// allocate storage for _Count elements of type _Ty

  00000	55		 push	 ebp
  00001	8b ec		 mov	 ebp, esp

; 31   : 	void *_Ptr = 0;
; 32   : 
; 33   : 	if (_Count <= 0)

  00003	8b 4d 08	 mov	 ecx, DWORD PTR __Count$[ebp]
  00006	83 ec 0c	 sub	 esp, 12			; 0000000cH
  00009	33 c0		 xor	 eax, eax
  0000b	85 c9		 test	 ecx, ecx

; 34   : 		_Count = 0;
; 35   : 	else if (((_SIZT)(-1) / sizeof (_Ty) < _Count)

  0000d	74 3c		 je	 SHORT $LN5@Allocate

; 36   : 		|| (_Ptr = ::operator new(_Count * sizeof (_Ty))) == 0)

  0000f	81 f9 49 92 24
	09		 cmp	 ecx, 153391689		; 09249249H
  00015	77 0e		 ja	 SHORT $LN1@Allocate
  00017	6b c9 1c	 imul	 ecx, 28			; 0000001cH
  0001a	51		 push	 ecx
  0001b	e8 00 00 00 00	 call	 ??2@YAPAXI@Z		; operator new
  00020	59		 pop	 ecx
  00021	85 c0		 test	 eax, eax

; 38   : 
; 39   : 	return ((_Ty _FARQ *)_Ptr);

  00023	75 26		 jne	 SHORT $LN5@Allocate
$LN1@Allocate:

; 37   : 		_THROW_NCEE(bad_alloc, 0);

  00025	83 65 08 00	 and	 DWORD PTR $T518414[ebp], 0
  00029	8d 45 08	 lea	 eax, DWORD PTR $T518414[ebp]
  0002c	50		 push	 eax
  0002d	8d 4d f4	 lea	 ecx, DWORD PTR $T518409[ebp]
  00030	ff 15 00 00 00
	00		 call	 DWORD PTR __imp_??0exception@std@@QAE@ABQBD@Z
  00036	68 00 00 00 00	 push	 OFFSET __TI2?AVbad_alloc@std@@
  0003b	8d 45 f4	 lea	 eax, DWORD PTR $T518409[ebp]
  0003e	50		 push	 eax
  0003f	c7 45 f4 00 00
	00 00		 mov	 DWORD PTR $T518409[ebp], OFFSET ??_7bad_alloc@std@@6B@
  00046	e8 00 00 00 00	 call	 __CxxThrowException@8
$LN10@Allocate:
$LN5@Allocate:

; 40   : 	}

  0004b	c9		 leave
  0004c	c3		 ret	 0
$LN9@Allocate:
??$_Allocate@V?$basic_string@DU?$char_traits@D@std@@V?$allocator@D@2@@std@@@std@@YAPAV?$basic_string@DU?$char_traits@D@std@@V?$allocator@D@2@@0@IPAV10@@Z ENDP ; std::_Allocate<std::basic_string<char,std::char_traits<char>,std::allocator<char> > >
_TEXT	ENDS
PUBLIC	??$_Allocate@VGashaponPresent@@@std@@YAPAVGashaponPresent@@IPAV1@@Z ; std::_Allocate<GashaponPresent>
; Function compile flags: /Ogsp
;	COMDAT ??$_Allocate@VGashaponPresent@@@std@@YAPAVGashaponPresent@@IPAV1@@Z
_TEXT	SEGMENT
$T518419 = -12						; size = 12
$T518423 = 8						; size = 4
__Count$ = 8						; size = 4
___formal$ = 12						; size = 4
??$_Allocate@VGashaponPresent@@@std@@YAPAVGashaponPresent@@IPAV1@@Z PROC ; std::_Allocate<GashaponPresent>, COMDAT

; 30   : 	{	// allocate storage for _Count elements of type _Ty

  00000	55		 push	 ebp
  00001	8b ec		 mov	 ebp, esp

; 31   : 	void *_Ptr = 0;
; 32   : 
; 33   : 	if (_Count <= 0)

  00003	8b 4d 08	 mov	 ecx, DWORD PTR __Count$[ebp]
  00006	83 ec 0c	 sub	 esp, 12			; 0000000cH
  00009	33 c0		 xor	 eax, eax
  0000b	85 c9		 test	 ecx, ecx

; 34   : 		_Count = 0;
; 35   : 	else if (((_SIZT)(-1) / sizeof (_Ty) < _Count)

  0000d	74 3c		 je	 SHORT $LN5@Allocate@2

; 36   : 		|| (_Ptr = ::operator new(_Count * sizeof (_Ty))) == 0)

  0000f	81 f9 cc cc cc
	0c		 cmp	 ecx, 214748364		; 0cccccccH
  00015	77 0e		 ja	 SHORT $LN1@Allocate@2
  00017	6b c9 14	 imul	 ecx, 20			; 00000014H
  0001a	51		 push	 ecx
  0001b	e8 00 00 00 00	 call	 ??2@YAPAXI@Z		; operator new
  00020	59		 pop	 ecx
  00021	85 c0		 test	 eax, eax

; 38   : 
; 39   : 	return ((_Ty _FARQ *)_Ptr);

  00023	75 26		 jne	 SHORT $LN5@Allocate@2
$LN1@Allocate@2:

; 37   : 		_THROW_NCEE(bad_alloc, 0);

  00025	83 65 08 00	 and	 DWORD PTR $T518423[ebp], 0
  00029	8d 45 08	 lea	 eax, DWORD PTR $T518423[ebp]
  0002c	50		 push	 eax
  0002d	8d 4d f4	 lea	 ecx, DWORD PTR $T518419[ebp]
  00030	ff 15 00 00 00
	00		 call	 DWORD PTR __imp_??0exception@std@@QAE@ABQBD@Z
  00036	68 00 00 00 00	 push	 OFFSET __TI2?AVbad_alloc@std@@
  0003b	8d 45 f4	 lea	 eax, DWORD PTR $T518419[ebp]
  0003e	50		 push	 eax
  0003f	c7 45 f4 00 00
	00 00		 mov	 DWORD PTR $T518419[ebp], OFFSET ??_7bad_alloc@std@@6B@
  00046	e8 00 00 00 00	 call	 __CxxThrowException@8
$LN10@Allocate@2:
$LN5@Allocate@2:

; 40   : 	}

  0004b	c9		 leave
  0004c	c3		 ret	 0
$LN9@Allocate@2:
??$_Allocate@VGashaponPresent@@@std@@YAPAVGashaponPresent@@IPAV1@@Z ENDP ; std::_Allocate<GashaponPresent>
_TEXT	ENDS
PUBLIC	??$_Allocate@UGuildUser@ioGuildData@@@std@@YAPAUGuildUser@ioGuildData@@IPAU12@@Z ; std::_Allocate<ioGuildData::GuildUser>
; Function compile flags: /Ogsp
;	COMDAT ??$_Allocate@UGuildUser@ioGuildData@@@std@@YAPAUGuildUser@ioGuildData@@IPAU12@@Z
_TEXT	SEGMENT
$T518428 = -12						; size = 12
$T518432 = 8						; size = 4
__Count$ = 8						; size = 4
___formal$ = 12						; size = 4
??$_Allocate@UGuildUser@ioGuildData@@@std@@YAPAUGuildUser@ioGuildData@@IPAU12@@Z PROC ; std::_Allocate<ioGuildData::GuildUser>, COMDAT

; 30   : 	{	// allocate storage for _Count elements of type _Ty

  00000	55		 push	 ebp
  00001	8b ec		 mov	 ebp, esp

; 31   : 	void *_Ptr = 0;
; 32   : 
; 33   : 	if (_Count <= 0)

  00003	8b 4d 08	 mov	 ecx, DWORD PTR __Count$[ebp]
  00006	83 ec 0c	 sub	 esp, 12			; 0000000cH
  00009	33 c0		 xor	 eax, eax
  0000b	85 c9		 test	 ecx, ecx

; 34   : 		_Count = 0;
; 35   : 	else if (((_SIZT)(-1) / sizeof (_Ty) < _Count)

  0000d	74 3c		 je	 SHORT $LN5@Allocate@3

; 36   : 		|| (_Ptr = ::operator new(_Count * sizeof (_Ty))) == 0)

  0000f	81 f9 24 49 92
	04		 cmp	 ecx, 76695844		; 04924924H
  00015	77 0e		 ja	 SHORT $LN1@Allocate@3
  00017	6b c9 38	 imul	 ecx, 56			; 00000038H
  0001a	51		 push	 ecx
  0001b	e8 00 00 00 00	 call	 ??2@YAPAXI@Z		; operator new
  00020	59		 pop	 ecx
  00021	85 c0		 test	 eax, eax

; 38   : 
; 39   : 	return ((_Ty _FARQ *)_Ptr);

  00023	75 26		 jne	 SHORT $LN5@Allocate@3
$LN1@Allocate@3:

; 37   : 		_THROW_NCEE(bad_alloc, 0);

  00025	83 65 08 00	 and	 DWORD PTR $T518432[ebp], 0
  00029	8d 45 08	 lea	 eax, DWORD PTR $T518432[ebp]
  0002c	50		 push	 eax
  0002d	8d 4d f4	 lea	 ecx, DWORD PTR $T518428[ebp]
  00030	ff 15 00 00 00
	00		 call	 DWORD PTR __imp_??0exception@std@@QAE@ABQBD@Z
  00036	68 00 00 00 00	 push	 OFFSET __TI2?AVbad_alloc@std@@
  0003b	8d 45 f4	 lea	 eax, DWORD PTR $T518428[ebp]
  0003e	50		 push	 eax
  0003f	c7 45 f4 00 00
	00 00		 mov	 DWORD PTR $T518428[ebp], OFFSET ??_7bad_alloc@std@@6B@
  00046	e8 00 00 00 00	 call	 __CxxThrowException@8
$LN10@Allocate@3:
$LN5@Allocate@3:

; 40   : 	}

  0004b	c9		 leave
  0004c	c3		 ret	 0
$LN9@Allocate@3:
??$_Allocate@UGuildUser@ioGuildData@@@std@@YAPAUGuildUser@ioGuildData@@IPAU12@@Z ENDP ; std::_Allocate<ioGuildData::GuildUser>
_TEXT	ENDS
PUBLIC	??$_Allocate@PAVioGuildData@@@std@@YAPAPAVioGuildData@@IPAPAV1@@Z ; std::_Allocate<ioGuildData *>
; Function compile flags: /Ogsp
;	COMDAT ??$_Allocate@PAVioGuildData@@@std@@YAPAPAVioGuildData@@IPAPAV1@@Z
_TEXT	SEGMENT
$T518437 = -12						; size = 12
$T518441 = 8						; size = 4
__Count$ = 8						; size = 4
___formal$ = 12						; size = 4
??$_Allocate@PAVioGuildData@@@std@@YAPAPAVioGuildData@@IPAPAV1@@Z PROC ; std::_Allocate<ioGuildData *>, COMDAT

; 30   : 	{	// allocate storage for _Count elements of type _Ty

  00000	55		 push	 ebp
  00001	8b ec		 mov	 ebp, esp

; 31   : 	void *_Ptr = 0;
; 32   : 
; 33   : 	if (_Count <= 0)

  00003	8b 4d 08	 mov	 ecx, DWORD PTR __Count$[ebp]
  00006	83 ec 0c	 sub	 esp, 12			; 0000000cH
  00009	33 c0		 xor	 eax, eax
  0000b	85 c9		 test	 ecx, ecx

; 34   : 		_Count = 0;
; 35   : 	else if (((_SIZT)(-1) / sizeof (_Ty) < _Count)

  0000d	74 3e		 je	 SHORT $LN5@Allocate@4

; 36   : 		|| (_Ptr = ::operator new(_Count * sizeof (_Ty))) == 0)

  0000f	81 f9 ff ff ff
	3f		 cmp	 ecx, 1073741823		; 3fffffffH
  00015	77 10		 ja	 SHORT $LN1@Allocate@4
  00017	8b c1		 mov	 eax, ecx
  00019	c1 e0 02	 shl	 eax, 2
  0001c	50		 push	 eax
  0001d	e8 00 00 00 00	 call	 ??2@YAPAXI@Z		; operator new
  00022	59		 pop	 ecx
  00023	85 c0		 test	 eax, eax

; 38   : 
; 39   : 	return ((_Ty _FARQ *)_Ptr);

  00025	75 26		 jne	 SHORT $LN5@Allocate@4
$LN1@Allocate@4:

; 37   : 		_THROW_NCEE(bad_alloc, 0);

  00027	83 65 08 00	 and	 DWORD PTR $T518441[ebp], 0
  0002b	8d 45 08	 lea	 eax, DWORD PTR $T518441[ebp]
  0002e	50		 push	 eax
  0002f	8d 4d f4	 lea	 ecx, DWORD PTR $T518437[ebp]
  00032	ff 15 00 00 00
	00		 call	 DWORD PTR __imp_??0exception@std@@QAE@ABQBD@Z
  00038	68 00 00 00 00	 push	 OFFSET __TI2?AVbad_alloc@std@@
  0003d	8d 45 f4	 lea	 eax, DWORD PTR $T518437[ebp]
  00040	50		 push	 eax
  00041	c7 45 f4 00 00
	00 00		 mov	 DWORD PTR $T518437[ebp], OFFSET ??_7bad_alloc@std@@6B@
  00048	e8 00 00 00 00	 call	 __CxxThrowException@8
$LN10@Allocate@4:
$LN5@Allocate@4:

; 40   : 	}

  0004d	c9		 leave
  0004e	c3		 ret	 0
$LN9@Allocate@4:
??$_Allocate@PAVioGuildData@@@std@@YAPAPAVioGuildData@@IPAPAV1@@Z ENDP ; std::_Allocate<ioGuildData *>
_TEXT	ENDS
PUBLIC	??$_Allocate@UInvitationUser@ioGuildInfo@@@std@@YAPAUInvitationUser@ioGuildInfo@@IPAU12@@Z ; std::_Allocate<ioGuildInfo::InvitationUser>
; Function compile flags: /Ogsp
;	COMDAT ??$_Allocate@UInvitationUser@ioGuildInfo@@@std@@YAPAUInvitationUser@ioGuildInfo@@IPAU12@@Z
_TEXT	SEGMENT
$T518446 = -12						; size = 12
$T518450 = 8						; size = 4
__Count$ = 8						; size = 4
___formal$ = 12						; size = 4
??$_Allocate@UInvitationUser@ioGuildInfo@@@std@@YAPAUInvitationUser@ioGuildInfo@@IPAU12@@Z PROC ; std::_Allocate<ioGuildInfo::InvitationUser>, COMDAT

; 30   : 	{	// allocate storage for _Count elements of type _Ty

  00000	55		 push	 ebp
  00001	8b ec		 mov	 ebp, esp

; 31   : 	void *_Ptr = 0;
; 32   : 
; 33   : 	if (_Count <= 0)

  00003	8b 4d 08	 mov	 ecx, DWORD PTR __Count$[ebp]
  00006	83 ec 0c	 sub	 esp, 12			; 0000000cH
  00009	33 c0		 xor	 eax, eax
  0000b	85 c9		 test	 ecx, ecx

; 34   : 		_Count = 0;
; 35   : 	else if (((_SIZT)(-1) / sizeof (_Ty) < _Count)

  0000d	74 3c		 je	 SHORT $LN5@Allocate@5

; 36   : 		|| (_Ptr = ::operator new(_Count * sizeof (_Ty))) == 0)

  0000f	81 f9 cc cc cc
	0c		 cmp	 ecx, 214748364		; 0cccccccH
  00015	77 0e		 ja	 SHORT $LN1@Allocate@5
  00017	6b c9 14	 imul	 ecx, 20			; 00000014H
  0001a	51		 push	 ecx
  0001b	e8 00 00 00 00	 call	 ??2@YAPAXI@Z		; operator new
  00020	59		 pop	 ecx
  00021	85 c0		 test	 eax, eax

; 38   : 
; 39   : 	return ((_Ty _FARQ *)_Ptr);

  00023	75 26		 jne	 SHORT $LN5@Allocate@5
$LN1@Allocate@5:

; 37   : 		_THROW_NCEE(bad_alloc, 0);

  00025	83 65 08 00	 and	 DWORD PTR $T518450[ebp], 0
  00029	8d 45 08	 lea	 eax, DWORD PTR $T518450[ebp]
  0002c	50		 push	 eax
  0002d	8d 4d f4	 lea	 ecx, DWORD PTR $T518446[ebp]
  00030	ff 15 00 00 00
	00		 call	 DWORD PTR __imp_??0exception@std@@QAE@ABQBD@Z
  00036	68 00 00 00 00	 push	 OFFSET __TI2?AVbad_alloc@std@@
  0003b	8d 45 f4	 lea	 eax, DWORD PTR $T518446[ebp]
  0003e	50		 push	 eax
  0003f	c7 45 f4 00 00
	00 00		 mov	 DWORD PTR $T518446[ebp], OFFSET ??_7bad_alloc@std@@6B@
  00046	e8 00 00 00 00	 call	 __CxxThrowException@8
$LN10@Allocate@5:
$LN5@Allocate@5:

; 40   : 	}

  0004b	c9		 leave
  0004c	c3		 ret	 0
$LN9@Allocate@5:
??$_Allocate@UInvitationUser@ioGuildInfo@@@std@@YAPAUInvitationUser@ioGuildInfo@@IPAU12@@Z ENDP ; std::_Allocate<ioGuildInfo::InvitationUser>
_TEXT	ENDS
PUBLIC	??$_Allocate@PAUGuildAttendRwardInfo@@@std@@YAPAPAUGuildAttendRwardInfo@@IPAPAU1@@Z ; std::_Allocate<GuildAttendRwardInfo *>
; Function compile flags: /Ogsp
;	COMDAT ??$_Allocate@PAUGuildAttendRwardInfo@@@std@@YAPAPAUGuildAttendRwardInfo@@IPAPAU1@@Z
_TEXT	SEGMENT
$T518455 = -12						; size = 12
$T518459 = 8						; size = 4
__Count$ = 8						; size = 4
___formal$ = 12						; size = 4
??$_Allocate@PAUGuildAttendRwardInfo@@@std@@YAPAPAUGuildAttendRwardInfo@@IPAPAU1@@Z PROC ; std::_Allocate<GuildAttendRwardInfo *>, COMDAT

; 30   : 	{	// allocate storage for _Count elements of type _Ty

  00000	55		 push	 ebp
  00001	8b ec		 mov	 ebp, esp

; 31   : 	void *_Ptr = 0;
; 32   : 
; 33   : 	if (_Count <= 0)

  00003	8b 4d 08	 mov	 ecx, DWORD PTR __Count$[ebp]
  00006	83 ec 0c	 sub	 esp, 12			; 0000000cH
  00009	33 c0		 xor	 eax, eax
  0000b	85 c9		 test	 ecx, ecx

; 34   : 		_Count = 0;
; 35   : 	else if (((_SIZT)(-1) / sizeof (_Ty) < _Count)

  0000d	74 3e		 je	 SHORT $LN5@Allocate@6

; 36   : 		|| (_Ptr = ::operator new(_Count * sizeof (_Ty))) == 0)

  0000f	81 f9 ff ff ff
	3f		 cmp	 ecx, 1073741823		; 3fffffffH
  00015	77 10		 ja	 SHORT $LN1@Allocate@6
  00017	8b c1		 mov	 eax, ecx
  00019	c1 e0 02	 shl	 eax, 2
  0001c	50		 push	 eax
  0001d	e8 00 00 00 00	 call	 ??2@YAPAXI@Z		; operator new
  00022	59		 pop	 ecx
  00023	85 c0		 test	 eax, eax

; 38   : 
; 39   : 	return ((_Ty _FARQ *)_Ptr);

  00025	75 26		 jne	 SHORT $LN5@Allocate@6
$LN1@Allocate@6:

; 37   : 		_THROW_NCEE(bad_alloc, 0);

  00027	83 65 08 00	 and	 DWORD PTR $T518459[ebp], 0
  0002b	8d 45 08	 lea	 eax, DWORD PTR $T518459[ebp]
  0002e	50		 push	 eax
  0002f	8d 4d f4	 lea	 ecx, DWORD PTR $T518455[ebp]
  00032	ff 15 00 00 00
	00		 call	 DWORD PTR __imp_??0exception@std@@QAE@ABQBD@Z
  00038	68 00 00 00 00	 push	 OFFSET __TI2?AVbad_alloc@std@@
  0003d	8d 45 f4	 lea	 eax, DWORD PTR $T518455[ebp]
  00040	50		 push	 eax
  00041	c7 45 f4 00 00
	00 00		 mov	 DWORD PTR $T518455[ebp], OFFSET ??_7bad_alloc@std@@6B@
  00048	e8 00 00 00 00	 call	 __CxxThrowException@8
$LN10@Allocate@6:
$LN5@Allocate@6:

; 40   : 	}

  0004d	c9		 leave
  0004e	c3		 ret	 0
$LN9@Allocate@6:
??$_Allocate@PAUGuildAttendRwardInfo@@@std@@YAPAPAUGuildAttendRwardInfo@@IPAPAU1@@Z ENDP ; std::_Allocate<GuildAttendRwardInfo *>
_TEXT	ENDS
PUBLIC	??$_Allocate@PAUGuildRankRwardInfo@@@std@@YAPAPAUGuildRankRwardInfo@@IPAPAU1@@Z ; std::_Allocate<GuildRankRwardInfo *>
; Function compile flags: /Ogsp
;	COMDAT ??$_Allocate@PAUGuildRankRwardInfo@@@std@@YAPAPAUGuildRankRwardInfo@@IPAPAU1@@Z
_TEXT	SEGMENT
$T518464 = -12						; size = 12
$T518468 = 8						; size = 4
__Count$ = 8						; size = 4
___formal$ = 12						; size = 4
??$_Allocate@PAUGuildRankRwardInfo@@@std@@YAPAPAUGuildRankRwardInfo@@IPAPAU1@@Z PROC ; std::_Allocate<GuildRankRwardInfo *>, COMDAT

; 30   : 	{	// allocate storage for _Count elements of type _Ty

  00000	55		 push	 ebp
  00001	8b ec		 mov	 ebp, esp

; 31   : 	void *_Ptr = 0;
; 32   : 
; 33   : 	if (_Count <= 0)

  00003	8b 4d 08	 mov	 ecx, DWORD PTR __Count$[ebp]
  00006	83 ec 0c	 sub	 esp, 12			; 0000000cH
  00009	33 c0		 xor	 eax, eax
  0000b	85 c9		 test	 ecx, ecx

; 34   : 		_Count = 0;
; 35   : 	else if (((_SIZT)(-1) / sizeof (_Ty) < _Count)

  0000d	74 3e		 je	 SHORT $LN5@Allocate@7

; 36   : 		|| (_Ptr = ::operator new(_Count * sizeof (_Ty))) == 0)

  0000f	81 f9 ff ff ff
	3f		 cmp	 ecx, 1073741823		; 3fffffffH
  00015	77 10		 ja	 SHORT $LN1@Allocate@7
  00017	8b c1		 mov	 eax, ecx
  00019	c1 e0 02	 shl	 eax, 2
  0001c	50		 push	 eax
  0001d	e8 00 00 00 00	 call	 ??2@YAPAXI@Z		; operator new
  00022	59		 pop	 ecx
  00023	85 c0		 test	 eax, eax

; 38   : 
; 39   : 	return ((_Ty _FARQ *)_Ptr);

  00025	75 26		 jne	 SHORT $LN5@Allocate@7
$LN1@Allocate@7:

; 37   : 		_THROW_NCEE(bad_alloc, 0);

  00027	83 65 08 00	 and	 DWORD PTR $T518468[ebp], 0
  0002b	8d 45 08	 lea	 eax, DWORD PTR $T518468[ebp]
  0002e	50		 push	 eax
  0002f	8d 4d f4	 lea	 ecx, DWORD PTR $T518464[ebp]
  00032	ff 15 00 00 00
	00		 call	 DWORD PTR __imp_??0exception@std@@QAE@ABQBD@Z
  00038	68 00 00 00 00	 push	 OFFSET __TI2?AVbad_alloc@std@@
  0003d	8d 45 f4	 lea	 eax, DWORD PTR $T518464[ebp]
  00040	50		 push	 eax
  00041	c7 45 f4 00 00
	00 00		 mov	 DWORD PTR $T518464[ebp], OFFSET ??_7bad_alloc@std@@6B@
  00048	e8 00 00 00 00	 call	 __CxxThrowException@8
$LN10@Allocate@7:
$LN5@Allocate@7:

; 40   : 	}

  0004d	c9		 leave
  0004e	c3		 ret	 0
$LN9@Allocate@7:
??$_Allocate@PAUGuildRankRwardInfo@@@std@@YAPAPAUGuildRankRwardInfo@@IPAPAU1@@Z ENDP ; std::_Allocate<GuildRankRwardInfo *>
_TEXT	ENDS
PUBLIC	?construct@?$allocator@K@std@@QAEXPAK$$QAK@Z	; std::allocator<unsigned long>::construct
; Function compile flags: /Ogsp
;	COMDAT ?construct@?$allocator@K@std@@QAEXPAK$$QAK@Z
_TEXT	SEGMENT
__Ptr$ = 8						; size = 4
__Val$ = 12						; size = 4
?construct@?$allocator@K@std@@QAEXPAK$$QAK@Z PROC	; std::allocator<unsigned long>::construct, COMDAT
; _this$ = ecx

; 201  : 		{	// construct object at _Ptr with value _Val

  00000	55		 push	 ebp
  00001	8b ec		 mov	 ebp, esp

; 202  : 		::new ((void _FARQ *)_Ptr) _Ty(_STD forward<_Ty>(_Val));

  00003	8b 45 08	 mov	 eax, DWORD PTR __Ptr$[ebp]
  00006	85 c0		 test	 eax, eax
  00008	74 07		 je	 SHORT $LN3@construct
  0000a	8b 4d 0c	 mov	 ecx, DWORD PTR __Val$[ebp]
  0000d	8b 09		 mov	 ecx, DWORD PTR [ecx]
  0000f	89 08		 mov	 DWORD PTR [eax], ecx
$LN3@construct:

; 203  : 		}

  00011	5d		 pop	 ebp
  00012	c2 08 00	 ret	 8
?construct@?$allocator@K@std@@QAEXPAK$$QAK@Z ENDP	; std::allocator<unsigned long>::construct
_TEXT	ENDS
PUBLIC	??G?$_Vector_const_iterator@V?$_Vector_val@UGuildUser@ioGuildData@@V?$allocator@UGuildUser@ioGuildData@@@std@@@std@@@std@@QBEHABV01@@Z ; std::_Vector_const_iterator<std::_Vector_val<ioGuildData::GuildUser,std::allocator<ioGuildData::GuildUser> > >::operator-
; Function compile flags: /Ogsp
; File c:\program files (x86)\microsoft visual studio 10.0\vc\include\vector
;	COMDAT ??G?$_Vector_const_iterator@V?$_Vector_val@UGuildUser@ioGuildData@@V?$allocator@UGuildUser@ioGuildData@@@std@@@std@@@std@@QBEHABV01@@Z
_TEXT	SEGMENT
__Right$ = 8						; size = 4
??G?$_Vector_const_iterator@V?$_Vector_val@UGuildUser@ioGuildData@@V?$allocator@UGuildUser@ioGuildData@@@std@@@std@@@std@@QBEHABV01@@Z PROC ; std::_Vector_const_iterator<std::_Vector_val<ioGuildData::GuildUser,std::allocator<ioGuildData::GuildUser> > >::operator-, COMDAT
; _this$ = ecx

; 190  : 		{	// return difference of iterators

  00000	55		 push	 ebp
  00001	8b ec		 mov	 ebp, esp

; 191  : 		_Compat(_Right);
; 192  : 		return (this->_Ptr - _Right._Ptr);

  00003	8b 01		 mov	 eax, DWORD PTR [ecx]
  00005	8b 4d 08	 mov	 ecx, DWORD PTR __Right$[ebp]
  00008	2b 01		 sub	 eax, DWORD PTR [ecx]
  0000a	6a 38		 push	 56			; 00000038H
  0000c	99		 cdq
  0000d	59		 pop	 ecx
  0000e	f7 f9		 idiv	 ecx

; 193  : 		}

  00010	5d		 pop	 ebp
  00011	c2 04 00	 ret	 4
??G?$_Vector_const_iterator@V?$_Vector_val@UGuildUser@ioGuildData@@V?$allocator@UGuildUser@ioGuildData@@@std@@@std@@@std@@QBEHABV01@@Z ENDP ; std::_Vector_const_iterator<std::_Vector_val<ioGuildData::GuildUser,std::allocator<ioGuildData::GuildUser> > >::operator-
_TEXT	ENDS
PUBLIC	??$_Copy_impl@PAVGashaponPresent@@PAV1@@std@@YAPAVGashaponPresent@@PAV1@00U_Nonscalar_ptr_iterator_tag@0@@Z ; std::_Copy_impl<GashaponPresent *,GashaponPresent *>
; Function compile flags: /Ogsp
; File c:\program files (x86)\microsoft visual studio 10.0\vc\include\xutility
;	COMDAT ??$_Copy_impl@PAVGashaponPresent@@PAV1@@std@@YAPAVGashaponPresent@@PAV1@00U_Nonscalar_ptr_iterator_tag@0@@Z
_TEXT	SEGMENT
__First$ = 8						; size = 4
__Last$ = 12						; size = 4
__Dest$ = 16						; size = 4
___formal$ = 20						; size = 1
??$_Copy_impl@PAVGashaponPresent@@PAV1@@std@@YAPAVGashaponPresent@@PAV1@00U_Nonscalar_ptr_iterator_tag@0@@Z PROC ; std::_Copy_impl<GashaponPresent *,GashaponPresent *>, COMDAT

; 2142 : 	{	// copy [_First, _Last) to [_Dest, ...), arbitrary iterators

  00000	55		 push	 ebp
  00001	8b ec		 mov	 ebp, esp

; 2143 : 	for (; _First != _Last; ++_Dest, ++_First)

  00003	8b 45 08	 mov	 eax, DWORD PTR __First$[ebp]
  00006	3b 45 0c	 cmp	 eax, DWORD PTR __Last$[ebp]
  00009	74 1a		 je	 SHORT $LN8@Copy_impl
  0000b	56		 push	 esi
  0000c	57		 push	 edi
$LL3@Copy_impl:

; 2144 : 		*_Dest = *_First;

  0000d	8b 7d 10	 mov	 edi, DWORD PTR __Dest$[ebp]
  00010	83 45 10 14	 add	 DWORD PTR __Dest$[ebp], 20 ; 00000014H
  00014	8b f0		 mov	 esi, eax
  00016	6a 05		 push	 5
  00018	83 c0 14	 add	 eax, 20			; 00000014H
  0001b	59		 pop	 ecx
  0001c	f3 a5		 rep movsd
  0001e	3b 45 0c	 cmp	 eax, DWORD PTR __Last$[ebp]
  00021	75 ea		 jne	 SHORT $LL3@Copy_impl
  00023	5f		 pop	 edi
  00024	5e		 pop	 esi
$LN8@Copy_impl:

; 2145 : 	return (_Dest);

  00025	8b 45 10	 mov	 eax, DWORD PTR __Dest$[ebp]

; 2146 : 	}

  00028	5d		 pop	 ebp
  00029	c3		 ret	 0
??$_Copy_impl@PAVGashaponPresent@@PAV1@@std@@YAPAVGashaponPresent@@PAV1@00U_Nonscalar_ptr_iterator_tag@0@@Z ENDP ; std::_Copy_impl<GashaponPresent *,GashaponPresent *>
_TEXT	ENDS
PUBLIC	??$forward@AAUGuildUser@ioGuildData@@@std@@YAAAUGuildUser@ioGuildData@@AAU12@@Z ; std::forward<ioGuildData::GuildUser &>
; Function compile flags: /Ogsp
; File c:\program files (x86)\microsoft visual studio 10.0\vc\include\utility
;	COMDAT ??$forward@AAUGuildUser@ioGuildData@@@std@@YAAAUGuildUser@ioGuildData@@AAU12@@Z
_TEXT	SEGMENT
__Arg$ = 8						; size = 4
??$forward@AAUGuildUser@ioGuildData@@@std@@YAAAUGuildUser@ioGuildData@@AAU12@@Z PROC ; std::forward<ioGuildData::GuildUser &>, COMDAT

; 78   : 	{	// forward _Arg, given explicitly specified type parameter

  00000	55		 push	 ebp
  00001	8b ec		 mov	 ebp, esp

; 79   : 	return ((_Ty&&)_Arg);

  00003	8b 45 08	 mov	 eax, DWORD PTR __Arg$[ebp]

; 80   : 	}

  00006	5d		 pop	 ebp
  00007	c3		 ret	 0
??$forward@AAUGuildUser@ioGuildData@@@std@@YAAAUGuildUser@ioGuildData@@AAU12@@Z ENDP ; std::forward<ioGuildData::GuildUser &>
_TEXT	ENDS
PUBLIC	??$forward@ABUGuildUser@ioGuildData@@@std@@YAABUGuildUser@ioGuildData@@ABU12@@Z ; std::forward<ioGuildData::GuildUser const &>
; Function compile flags: /Ogsp
;	COMDAT ??$forward@ABUGuildUser@ioGuildData@@@std@@YAABUGuildUser@ioGuildData@@ABU12@@Z
_TEXT	SEGMENT
__Arg$ = 8						; size = 4
??$forward@ABUGuildUser@ioGuildData@@@std@@YAABUGuildUser@ioGuildData@@ABU12@@Z PROC ; std::forward<ioGuildData::GuildUser const &>, COMDAT

; 78   : 	{	// forward _Arg, given explicitly specified type parameter

  00000	55		 push	 ebp
  00001	8b ec		 mov	 ebp, esp

; 79   : 	return ((_Ty&&)_Arg);

  00003	8b 45 08	 mov	 eax, DWORD PTR __Arg$[ebp]

; 80   : 	}

  00006	5d		 pop	 ebp
  00007	c3		 ret	 0
??$forward@ABUGuildUser@ioGuildData@@@std@@YAABUGuildUser@ioGuildData@@ABU12@@Z ENDP ; std::forward<ioGuildData::GuildUser const &>
_TEXT	ENDS
PUBLIC	??$_Ptr_cat@UGuildUser@ioGuildData@@U12@@std@@YA?AU_Nonscalar_ptr_iterator_tag@0@PAUGuildUser@ioGuildData@@0@Z ; std::_Ptr_cat<ioGuildData::GuildUser,ioGuildData::GuildUser>
; Function compile flags: /Ogsp
; File c:\program files (x86)\microsoft visual studio 10.0\vc\include\xutility
;	COMDAT ??$_Ptr_cat@UGuildUser@ioGuildData@@U12@@std@@YA?AU_Nonscalar_ptr_iterator_tag@0@PAUGuildUser@ioGuildData@@0@Z
_TEXT	SEGMENT
__Cat$ = -1						; size = 1
___formal$ = 8						; size = 4
___formal$ = 12						; size = 4
??$_Ptr_cat@UGuildUser@ioGuildData@@U12@@std@@YA?AU_Nonscalar_ptr_iterator_tag@0@PAUGuildUser@ioGuildData@@0@Z PROC ; std::_Ptr_cat<ioGuildData::GuildUser,ioGuildData::GuildUser>, COMDAT

; 516  : 	{	// return pointer category from pointers

  00000	55		 push	 ebp
  00001	8b ec		 mov	 ebp, esp
  00003	51		 push	 ecx

; 517  : 	typename _Ptr_cat_helper<_Elem1, _Elem2>::_Type _Cat;
; 518  : 	return (_Cat);

  00004	8a 45 ff	 mov	 al, BYTE PTR __Cat$[ebp]

; 519  : 	}

  00007	c9		 leave
  00008	c3		 ret	 0
??$_Ptr_cat@UGuildUser@ioGuildData@@U12@@std@@YA?AU_Nonscalar_ptr_iterator_tag@0@PAUGuildUser@ioGuildData@@0@Z ENDP ; std::_Ptr_cat<ioGuildData::GuildUser,ioGuildData::GuildUser>
_TEXT	ENDS
PUBLIC	??$forward@AAPAVioGuildData@@@std@@YAAAPAVioGuildData@@AAPAV1@@Z ; std::forward<ioGuildData * &>
; Function compile flags: /Ogsp
; File c:\program files (x86)\microsoft visual studio 10.0\vc\include\utility
;	COMDAT ??$forward@AAPAVioGuildData@@@std@@YAAAPAVioGuildData@@AAPAV1@@Z
_TEXT	SEGMENT
__Arg$ = 8						; size = 4
??$forward@AAPAVioGuildData@@@std@@YAAAPAVioGuildData@@AAPAV1@@Z PROC ; std::forward<ioGuildData * &>, COMDAT

; 78   : 	{	// forward _Arg, given explicitly specified type parameter

  00000	55		 push	 ebp
  00001	8b ec		 mov	 ebp, esp

; 79   : 	return ((_Ty&&)_Arg);

  00003	8b 45 08	 mov	 eax, DWORD PTR __Arg$[ebp]

; 80   : 	}

  00006	5d		 pop	 ebp
  00007	c3		 ret	 0
??$forward@AAPAVioGuildData@@@std@@YAAAPAVioGuildData@@AAPAV1@@Z ENDP ; std::forward<ioGuildData * &>
_TEXT	ENDS
PUBLIC	??$construct@AAPAVioGuildData@@@?$allocator@PAVioGuildData@@@std@@QAEXPAPAVioGuildData@@AAPAV2@@Z ; std::allocator<ioGuildData *>::construct<ioGuildData * &>
; Function compile flags: /Ogsp
; File c:\program files (x86)\microsoft visual studio 10.0\vc\include\xmemory
;	COMDAT ??$construct@AAPAVioGuildData@@@?$allocator@PAVioGuildData@@@std@@QAEXPAPAVioGuildData@@AAPAV2@@Z
_TEXT	SEGMENT
__Ptr$ = 8						; size = 4
__Val$ = 12						; size = 4
??$construct@AAPAVioGuildData@@@?$allocator@PAVioGuildData@@@std@@QAEXPAPAVioGuildData@@AAPAV2@@Z PROC ; std::allocator<ioGuildData *>::construct<ioGuildData * &>, COMDAT
; _this$ = ecx

; 206  : 		void construct(pointer _Ptr, _Other&& _Val)

  00000	55		 push	 ebp
  00001	8b ec		 mov	 ebp, esp

; 207  : 		{	// construct object at _Ptr with value _Val
; 208  : 		::new ((void _FARQ *)_Ptr) _Ty(_STD forward<_Other>(_Val));

  00003	8b 45 08	 mov	 eax, DWORD PTR __Ptr$[ebp]
  00006	85 c0		 test	 eax, eax
  00008	74 07		 je	 SHORT $LN3@construct@2
  0000a	8b 4d 0c	 mov	 ecx, DWORD PTR __Val$[ebp]
  0000d	8b 09		 mov	 ecx, DWORD PTR [ecx]
  0000f	89 08		 mov	 DWORD PTR [eax], ecx
$LN3@construct@2:

; 209  : 		}

  00011	5d		 pop	 ebp
  00012	c2 08 00	 ret	 8
??$construct@AAPAVioGuildData@@@?$allocator@PAVioGuildData@@@std@@QAEXPAPAVioGuildData@@AAPAV2@@Z ENDP ; std::allocator<ioGuildData *>::construct<ioGuildData * &>
_TEXT	ENDS
PUBLIC	??$forward@ABQAVioGuildData@@@std@@YAABQAVioGuildData@@ABQAV1@@Z ; std::forward<ioGuildData * const &>
; Function compile flags: /Ogsp
; File c:\program files (x86)\microsoft visual studio 10.0\vc\include\utility
;	COMDAT ??$forward@ABQAVioGuildData@@@std@@YAABQAVioGuildData@@ABQAV1@@Z
_TEXT	SEGMENT
__Arg$ = 8						; size = 4
??$forward@ABQAVioGuildData@@@std@@YAABQAVioGuildData@@ABQAV1@@Z PROC ; std::forward<ioGuildData * const &>, COMDAT

; 78   : 	{	// forward _Arg, given explicitly specified type parameter

  00000	55		 push	 ebp
  00001	8b ec		 mov	 ebp, esp

; 79   : 	return ((_Ty&&)_Arg);

  00003	8b 45 08	 mov	 eax, DWORD PTR __Arg$[ebp]

; 80   : 	}

  00006	5d		 pop	 ebp
  00007	c3		 ret	 0
??$forward@ABQAVioGuildData@@@std@@YAABQAVioGuildData@@ABQAV1@@Z ENDP ; std::forward<ioGuildData * const &>
_TEXT	ENDS
PUBLIC	??$forward@AAUInvitationUser@ioGuildInfo@@@std@@YAAAUInvitationUser@ioGuildInfo@@AAU12@@Z ; std::forward<ioGuildInfo::InvitationUser &>
; Function compile flags: /Ogsp
;	COMDAT ??$forward@AAUInvitationUser@ioGuildInfo@@@std@@YAAAUInvitationUser@ioGuildInfo@@AAU12@@Z
_TEXT	SEGMENT
__Arg$ = 8						; size = 4
??$forward@AAUInvitationUser@ioGuildInfo@@@std@@YAAAUInvitationUser@ioGuildInfo@@AAU12@@Z PROC ; std::forward<ioGuildInfo::InvitationUser &>, COMDAT

; 78   : 	{	// forward _Arg, given explicitly specified type parameter

  00000	55		 push	 ebp
  00001	8b ec		 mov	 ebp, esp

; 79   : 	return ((_Ty&&)_Arg);

  00003	8b 45 08	 mov	 eax, DWORD PTR __Arg$[ebp]

; 80   : 	}

  00006	5d		 pop	 ebp
  00007	c3		 ret	 0
??$forward@AAUInvitationUser@ioGuildInfo@@@std@@YAAAUInvitationUser@ioGuildInfo@@AAU12@@Z ENDP ; std::forward<ioGuildInfo::InvitationUser &>
_TEXT	ENDS
PUBLIC	??$forward@ABUInvitationUser@ioGuildInfo@@@std@@YAABUInvitationUser@ioGuildInfo@@ABU12@@Z ; std::forward<ioGuildInfo::InvitationUser const &>
; Function compile flags: /Ogsp
;	COMDAT ??$forward@ABUInvitationUser@ioGuildInfo@@@std@@YAABUInvitationUser@ioGuildInfo@@ABU12@@Z
_TEXT	SEGMENT
__Arg$ = 8						; size = 4
??$forward@ABUInvitationUser@ioGuildInfo@@@std@@YAABUInvitationUser@ioGuildInfo@@ABU12@@Z PROC ; std::forward<ioGuildInfo::InvitationUser const &>, COMDAT

; 78   : 	{	// forward _Arg, given explicitly specified type parameter

  00000	55		 push	 ebp
  00001	8b ec		 mov	 ebp, esp

; 79   : 	return ((_Ty&&)_Arg);

  00003	8b 45 08	 mov	 eax, DWORD PTR __Arg$[ebp]

; 80   : 	}

  00006	5d		 pop	 ebp
  00007	c3		 ret	 0
??$forward@ABUInvitationUser@ioGuildInfo@@@std@@YAABUInvitationUser@ioGuildInfo@@ABU12@@Z ENDP ; std::forward<ioGuildInfo::InvitationUser const &>
_TEXT	ENDS
PUBLIC	??$_Ptr_cat@UInvitationUser@ioGuildInfo@@U12@@std@@YA?AU_Nonscalar_ptr_iterator_tag@0@PAUInvitationUser@ioGuildInfo@@0@Z ; std::_Ptr_cat<ioGuildInfo::InvitationUser,ioGuildInfo::InvitationUser>
; Function compile flags: /Ogsp
; File c:\program files (x86)\microsoft visual studio 10.0\vc\include\xutility
;	COMDAT ??$_Ptr_cat@UInvitationUser@ioGuildInfo@@U12@@std@@YA?AU_Nonscalar_ptr_iterator_tag@0@PAUInvitationUser@ioGuildInfo@@0@Z
_TEXT	SEGMENT
__Cat$ = -1						; size = 1
___formal$ = 8						; size = 4
___formal$ = 12						; size = 4
??$_Ptr_cat@UInvitationUser@ioGuildInfo@@U12@@std@@YA?AU_Nonscalar_ptr_iterator_tag@0@PAUInvitationUser@ioGuildInfo@@0@Z PROC ; std::_Ptr_cat<ioGuildInfo::InvitationUser,ioGuildInfo::InvitationUser>, COMDAT

; 516  : 	{	// return pointer category from pointers

  00000	55		 push	 ebp
  00001	8b ec		 mov	 ebp, esp
  00003	51		 push	 ecx

; 517  : 	typename _Ptr_cat_helper<_Elem1, _Elem2>::_Type _Cat;
; 518  : 	return (_Cat);

  00004	8a 45 ff	 mov	 al, BYTE PTR __Cat$[ebp]

; 519  : 	}

  00007	c9		 leave
  00008	c3		 ret	 0
??$_Ptr_cat@UInvitationUser@ioGuildInfo@@U12@@std@@YA?AU_Nonscalar_ptr_iterator_tag@0@PAUInvitationUser@ioGuildInfo@@0@Z ENDP ; std::_Ptr_cat<ioGuildInfo::InvitationUser,ioGuildInfo::InvitationUser>
_TEXT	ENDS
PUBLIC	??$forward@AAPAUGuildAttendRwardInfo@@@std@@YAAAPAUGuildAttendRwardInfo@@AAPAU1@@Z ; std::forward<GuildAttendRwardInfo * &>
; Function compile flags: /Ogsp
; File c:\program files (x86)\microsoft visual studio 10.0\vc\include\utility
;	COMDAT ??$forward@AAPAUGuildAttendRwardInfo@@@std@@YAAAPAUGuildAttendRwardInfo@@AAPAU1@@Z
_TEXT	SEGMENT
__Arg$ = 8						; size = 4
??$forward@AAPAUGuildAttendRwardInfo@@@std@@YAAAPAUGuildAttendRwardInfo@@AAPAU1@@Z PROC ; std::forward<GuildAttendRwardInfo * &>, COMDAT

; 78   : 	{	// forward _Arg, given explicitly specified type parameter

  00000	55		 push	 ebp
  00001	8b ec		 mov	 ebp, esp

; 79   : 	return ((_Ty&&)_Arg);

  00003	8b 45 08	 mov	 eax, DWORD PTR __Arg$[ebp]

; 80   : 	}

  00006	5d		 pop	 ebp
  00007	c3		 ret	 0
??$forward@AAPAUGuildAttendRwardInfo@@@std@@YAAAPAUGuildAttendRwardInfo@@AAPAU1@@Z ENDP ; std::forward<GuildAttendRwardInfo * &>
_TEXT	ENDS
PUBLIC	??$construct@AAPAUGuildAttendRwardInfo@@@?$allocator@PAUGuildAttendRwardInfo@@@std@@QAEXPAPAUGuildAttendRwardInfo@@AAPAU2@@Z ; std::allocator<GuildAttendRwardInfo *>::construct<GuildAttendRwardInfo * &>
; Function compile flags: /Ogsp
; File c:\program files (x86)\microsoft visual studio 10.0\vc\include\xmemory
;	COMDAT ??$construct@AAPAUGuildAttendRwardInfo@@@?$allocator@PAUGuildAttendRwardInfo@@@std@@QAEXPAPAUGuildAttendRwardInfo@@AAPAU2@@Z
_TEXT	SEGMENT
__Ptr$ = 8						; size = 4
__Val$ = 12						; size = 4
??$construct@AAPAUGuildAttendRwardInfo@@@?$allocator@PAUGuildAttendRwardInfo@@@std@@QAEXPAPAUGuildAttendRwardInfo@@AAPAU2@@Z PROC ; std::allocator<GuildAttendRwardInfo *>::construct<GuildAttendRwardInfo * &>, COMDAT
; _this$ = ecx

; 206  : 		void construct(pointer _Ptr, _Other&& _Val)

  00000	55		 push	 ebp
  00001	8b ec		 mov	 ebp, esp

; 207  : 		{	// construct object at _Ptr with value _Val
; 208  : 		::new ((void _FARQ *)_Ptr) _Ty(_STD forward<_Other>(_Val));

  00003	8b 45 08	 mov	 eax, DWORD PTR __Ptr$[ebp]
  00006	85 c0		 test	 eax, eax
  00008	74 07		 je	 SHORT $LN3@construct@3
  0000a	8b 4d 0c	 mov	 ecx, DWORD PTR __Val$[ebp]
  0000d	8b 09		 mov	 ecx, DWORD PTR [ecx]
  0000f	89 08		 mov	 DWORD PTR [eax], ecx
$LN3@construct@3:

; 209  : 		}

  00011	5d		 pop	 ebp
  00012	c2 08 00	 ret	 8
??$construct@AAPAUGuildAttendRwardInfo@@@?$allocator@PAUGuildAttendRwardInfo@@@std@@QAEXPAPAUGuildAttendRwardInfo@@AAPAU2@@Z ENDP ; std::allocator<GuildAttendRwardInfo *>::construct<GuildAttendRwardInfo * &>
_TEXT	ENDS
PUBLIC	??$forward@ABQAUGuildAttendRwardInfo@@@std@@YAABQAUGuildAttendRwardInfo@@ABQAU1@@Z ; std::forward<GuildAttendRwardInfo * const &>
; Function compile flags: /Ogsp
; File c:\program files (x86)\microsoft visual studio 10.0\vc\include\utility
;	COMDAT ??$forward@ABQAUGuildAttendRwardInfo@@@std@@YAABQAUGuildAttendRwardInfo@@ABQAU1@@Z
_TEXT	SEGMENT
__Arg$ = 8						; size = 4
??$forward@ABQAUGuildAttendRwardInfo@@@std@@YAABQAUGuildAttendRwardInfo@@ABQAU1@@Z PROC ; std::forward<GuildAttendRwardInfo * const &>, COMDAT

; 78   : 	{	// forward _Arg, given explicitly specified type parameter

  00000	55		 push	 ebp
  00001	8b ec		 mov	 ebp, esp

; 79   : 	return ((_Ty&&)_Arg);

  00003	8b 45 08	 mov	 eax, DWORD PTR __Arg$[ebp]

; 80   : 	}

  00006	5d		 pop	 ebp
  00007	c3		 ret	 0
??$forward@ABQAUGuildAttendRwardInfo@@@std@@YAABQAUGuildAttendRwardInfo@@ABQAU1@@Z ENDP ; std::forward<GuildAttendRwardInfo * const &>
_TEXT	ENDS
PUBLIC	??$forward@AAPAUGuildRankRwardInfo@@@std@@YAAAPAUGuildRankRwardInfo@@AAPAU1@@Z ; std::forward<GuildRankRwardInfo * &>
; Function compile flags: /Ogsp
;	COMDAT ??$forward@AAPAUGuildRankRwardInfo@@@std@@YAAAPAUGuildRankRwardInfo@@AAPAU1@@Z
_TEXT	SEGMENT
__Arg$ = 8						; size = 4
??$forward@AAPAUGuildRankRwardInfo@@@std@@YAAAPAUGuildRankRwardInfo@@AAPAU1@@Z PROC ; std::forward<GuildRankRwardInfo * &>, COMDAT

; 78   : 	{	// forward _Arg, given explicitly specified type parameter

  00000	55		 push	 ebp
  00001	8b ec		 mov	 ebp, esp

; 79   : 	return ((_Ty&&)_Arg);

  00003	8b 45 08	 mov	 eax, DWORD PTR __Arg$[ebp]

; 80   : 	}

  00006	5d		 pop	 ebp
  00007	c3		 ret	 0
??$forward@AAPAUGuildRankRwardInfo@@@std@@YAAAPAUGuildRankRwardInfo@@AAPAU1@@Z ENDP ; std::forward<GuildRankRwardInfo * &>
_TEXT	ENDS
PUBLIC	??$construct@AAPAUGuildRankRwardInfo@@@?$allocator@PAUGuildRankRwardInfo@@@std@@QAEXPAPAUGuildRankRwardInfo@@AAPAU2@@Z ; std::allocator<GuildRankRwardInfo *>::construct<GuildRankRwardInfo * &>
; Function compile flags: /Ogsp
; File c:\program files (x86)\microsoft visual studio 10.0\vc\include\xmemory
;	COMDAT ??$construct@AAPAUGuildRankRwardInfo@@@?$allocator@PAUGuildRankRwardInfo@@@std@@QAEXPAPAUGuildRankRwardInfo@@AAPAU2@@Z
_TEXT	SEGMENT
__Ptr$ = 8						; size = 4
__Val$ = 12						; size = 4
??$construct@AAPAUGuildRankRwardInfo@@@?$allocator@PAUGuildRankRwardInfo@@@std@@QAEXPAPAUGuildRankRwardInfo@@AAPAU2@@Z PROC ; std::allocator<GuildRankRwardInfo *>::construct<GuildRankRwardInfo * &>, COMDAT
; _this$ = ecx

; 206  : 		void construct(pointer _Ptr, _Other&& _Val)

  00000	55		 push	 ebp
  00001	8b ec		 mov	 ebp, esp

; 207  : 		{	// construct object at _Ptr with value _Val
; 208  : 		::new ((void _FARQ *)_Ptr) _Ty(_STD forward<_Other>(_Val));

  00003	8b 45 08	 mov	 eax, DWORD PTR __Ptr$[ebp]
  00006	85 c0		 test	 eax, eax
  00008	74 07		 je	 SHORT $LN3@construct@4
  0000a	8b 4d 0c	 mov	 ecx, DWORD PTR __Val$[ebp]
  0000d	8b 09		 mov	 ecx, DWORD PTR [ecx]
  0000f	89 08		 mov	 DWORD PTR [eax], ecx
$LN3@construct@4:

; 209  : 		}

  00011	5d		 pop	 ebp
  00012	c2 08 00	 ret	 8
??$construct@AAPAUGuildRankRwardInfo@@@?$allocator@PAUGuildRankRwardInfo@@@std@@QAEXPAPAUGuildRankRwardInfo@@AAPAU2@@Z ENDP ; std::allocator<GuildRankRwardInfo *>::construct<GuildRankRwardInfo * &>
_TEXT	ENDS
PUBLIC	??$forward@ABQAUGuildRankRwardInfo@@@std@@YAABQAUGuildRankRwardInfo@@ABQAU1@@Z ; std::forward<GuildRankRwardInfo * const &>
; Function compile flags: /Ogsp
; File c:\program files (x86)\microsoft visual studio 10.0\vc\include\utility
;	COMDAT ??$forward@ABQAUGuildRankRwardInfo@@@std@@YAABQAUGuildRankRwardInfo@@ABQAU1@@Z
_TEXT	SEGMENT
__Arg$ = 8						; size = 4
??$forward@ABQAUGuildRankRwardInfo@@@std@@YAABQAUGuildRankRwardInfo@@ABQAU1@@Z PROC ; std::forward<GuildRankRwardInfo * const &>, COMDAT

; 78   : 	{	// forward _Arg, given explicitly specified type parameter

  00000	55		 push	 ebp
  00001	8b ec		 mov	 ebp, esp

; 79   : 	return ((_Ty&&)_Arg);

  00003	8b 45 08	 mov	 eax, DWORD PTR __Arg$[ebp]

; 80   : 	}

  00006	5d		 pop	 ebp
  00007	c3		 ret	 0
??$forward@ABQAUGuildRankRwardInfo@@@std@@YAABQAUGuildRankRwardInfo@@ABQAU1@@Z ENDP ; std::forward<GuildRankRwardInfo * const &>
_TEXT	ENDS
PUBLIC	??$_Ptr_cat@PAVioGuildData@@PAV1@@std@@YA?AU_Scalar_ptr_iterator_tag@0@PAPAVioGuildData@@0@Z ; std::_Ptr_cat<ioGuildData *,ioGuildData *>
; Function compile flags: /Ogsp
; File c:\program files (x86)\microsoft visual studio 10.0\vc\include\xutility
;	COMDAT ??$_Ptr_cat@PAVioGuildData@@PAV1@@std@@YA?AU_Scalar_ptr_iterator_tag@0@PAPAVioGuildData@@0@Z
_TEXT	SEGMENT
__Cat$ = -1						; size = 1
___formal$ = 8						; size = 4
___formal$ = 12						; size = 4
??$_Ptr_cat@PAVioGuildData@@PAV1@@std@@YA?AU_Scalar_ptr_iterator_tag@0@PAPAVioGuildData@@0@Z PROC ; std::_Ptr_cat<ioGuildData *,ioGuildData *>, COMDAT

; 516  : 	{	// return pointer category from pointers

  00000	55		 push	 ebp
  00001	8b ec		 mov	 ebp, esp
  00003	51		 push	 ecx

; 517  : 	typename _Ptr_cat_helper<_Elem1, _Elem2>::_Type _Cat;
; 518  : 	return (_Cat);

  00004	8a 45 ff	 mov	 al, BYTE PTR __Cat$[ebp]

; 519  : 	}

  00007	c9		 leave
  00008	c3		 ret	 0
??$_Ptr_cat@PAVioGuildData@@PAV1@@std@@YA?AU_Scalar_ptr_iterator_tag@0@PAPAVioGuildData@@0@Z ENDP ; std::_Ptr_cat<ioGuildData *,ioGuildData *>
_TEXT	ENDS
PUBLIC	??$_Move@PAPAVioGuildData@@PAPAV1@@std@@YAPAPAVioGuildData@@PAPAV1@00U_Scalar_ptr_iterator_tag@0@@Z ; std::_Move<ioGuildData * *,ioGuildData * *>
; Function compile flags: /Ogsp
;	COMDAT ??$_Move@PAPAVioGuildData@@PAPAV1@@std@@YAPAPAVioGuildData@@PAPAV1@00U_Scalar_ptr_iterator_tag@0@@Z
_TEXT	SEGMENT
__First$ = 8						; size = 4
__Last$ = 12						; size = 4
__Dest$ = 16						; size = 4
___formal$ = 20						; size = 1
??$_Move@PAPAVioGuildData@@PAPAV1@@std@@YAPAPAVioGuildData@@PAPAV1@00U_Scalar_ptr_iterator_tag@0@@Z PROC ; std::_Move<ioGuildData * *,ioGuildData * *>, COMDAT

; 2522 : 	{	// move [_First, _Last) to [_Dest, ...), pointers to scalars

  00000	55		 push	 ebp
  00001	8b ec		 mov	 ebp, esp
  00003	56		 push	 esi

; 2523 : 	ptrdiff_t _Count = _Last - _First;

  00004	8b 75 0c	 mov	 esi, DWORD PTR __Last$[ebp]
  00007	2b 75 08	 sub	 esi, DWORD PTR __First$[ebp]
  0000a	57		 push	 edi

; 2524 : 	_CSTD memmove(&*_Dest, &*_First,
; 2525 : 		_Count * sizeof (*_First));

  0000b	8b 7d 10	 mov	 edi, DWORD PTR __Dest$[ebp]
  0000e	c1 fe 02	 sar	 esi, 2
  00011	c1 e6 02	 shl	 esi, 2
  00014	56		 push	 esi
  00015	ff 75 08	 push	 DWORD PTR __First$[ebp]
  00018	57		 push	 edi
  00019	ff 15 00 00 00
	00		 call	 DWORD PTR __imp__memmove
  0001f	83 c4 0c	 add	 esp, 12			; 0000000cH

; 2526 : 	return (_Dest + _Count);

  00022	8d 04 3e	 lea	 eax, DWORD PTR [esi+edi]
  00025	5f		 pop	 edi
  00026	5e		 pop	 esi

; 2527 : 	}

  00027	5d		 pop	 ebp
  00028	c3		 ret	 0
??$_Move@PAPAVioGuildData@@PAPAV1@@std@@YAPAPAVioGuildData@@PAPAV1@00U_Scalar_ptr_iterator_tag@0@@Z ENDP ; std::_Move<ioGuildData * *,ioGuildData * *>
_TEXT	ENDS
PUBLIC	??$_Ptr_cat@PAUGuildAttendRwardInfo@@PAU1@@std@@YA?AU_Scalar_ptr_iterator_tag@0@PAPAUGuildAttendRwardInfo@@0@Z ; std::_Ptr_cat<GuildAttendRwardInfo *,GuildAttendRwardInfo *>
; Function compile flags: /Ogsp
;	COMDAT ??$_Ptr_cat@PAUGuildAttendRwardInfo@@PAU1@@std@@YA?AU_Scalar_ptr_iterator_tag@0@PAPAUGuildAttendRwardInfo@@0@Z
_TEXT	SEGMENT
__Cat$ = -1						; size = 1
___formal$ = 8						; size = 4
___formal$ = 12						; size = 4
??$_Ptr_cat@PAUGuildAttendRwardInfo@@PAU1@@std@@YA?AU_Scalar_ptr_iterator_tag@0@PAPAUGuildAttendRwardInfo@@0@Z PROC ; std::_Ptr_cat<GuildAttendRwardInfo *,GuildAttendRwardInfo *>, COMDAT

; 516  : 	{	// return pointer category from pointers

  00000	55		 push	 ebp
  00001	8b ec		 mov	 ebp, esp
  00003	51		 push	 ecx

; 517  : 	typename _Ptr_cat_helper<_Elem1, _Elem2>::_Type _Cat;
; 518  : 	return (_Cat);

  00004	8a 45 ff	 mov	 al, BYTE PTR __Cat$[ebp]

; 519  : 	}

  00007	c9		 leave
  00008	c3		 ret	 0
??$_Ptr_cat@PAUGuildAttendRwardInfo@@PAU1@@std@@YA?AU_Scalar_ptr_iterator_tag@0@PAPAUGuildAttendRwardInfo@@0@Z ENDP ; std::_Ptr_cat<GuildAttendRwardInfo *,GuildAttendRwardInfo *>
_TEXT	ENDS
PUBLIC	??$_Move@PAPAUGuildAttendRwardInfo@@PAPAU1@@std@@YAPAPAUGuildAttendRwardInfo@@PAPAU1@00U_Scalar_ptr_iterator_tag@0@@Z ; std::_Move<GuildAttendRwardInfo * *,GuildAttendRwardInfo * *>
; Function compile flags: /Ogsp
;	COMDAT ??$_Move@PAPAUGuildAttendRwardInfo@@PAPAU1@@std@@YAPAPAUGuildAttendRwardInfo@@PAPAU1@00U_Scalar_ptr_iterator_tag@0@@Z
_TEXT	SEGMENT
__First$ = 8						; size = 4
__Last$ = 12						; size = 4
__Dest$ = 16						; size = 4
___formal$ = 20						; size = 1
??$_Move@PAPAUGuildAttendRwardInfo@@PAPAU1@@std@@YAPAPAUGuildAttendRwardInfo@@PAPAU1@00U_Scalar_ptr_iterator_tag@0@@Z PROC ; std::_Move<GuildAttendRwardInfo * *,GuildAttendRwardInfo * *>, COMDAT

; 2522 : 	{	// move [_First, _Last) to [_Dest, ...), pointers to scalars

  00000	55		 push	 ebp
  00001	8b ec		 mov	 ebp, esp
  00003	56		 push	 esi

; 2523 : 	ptrdiff_t _Count = _Last - _First;

  00004	8b 75 0c	 mov	 esi, DWORD PTR __Last$[ebp]
  00007	2b 75 08	 sub	 esi, DWORD PTR __First$[ebp]
  0000a	57		 push	 edi

; 2524 : 	_CSTD memmove(&*_Dest, &*_First,
; 2525 : 		_Count * sizeof (*_First));

  0000b	8b 7d 10	 mov	 edi, DWORD PTR __Dest$[ebp]
  0000e	c1 fe 02	 sar	 esi, 2
  00011	c1 e6 02	 shl	 esi, 2
  00014	56		 push	 esi
  00015	ff 75 08	 push	 DWORD PTR __First$[ebp]
  00018	57		 push	 edi
  00019	ff 15 00 00 00
	00		 call	 DWORD PTR __imp__memmove
  0001f	83 c4 0c	 add	 esp, 12			; 0000000cH

; 2526 : 	return (_Dest + _Count);

  00022	8d 04 3e	 lea	 eax, DWORD PTR [esi+edi]
  00025	5f		 pop	 edi
  00026	5e		 pop	 esi

; 2527 : 	}

  00027	5d		 pop	 ebp
  00028	c3		 ret	 0
??$_Move@PAPAUGuildAttendRwardInfo@@PAPAU1@@std@@YAPAPAUGuildAttendRwardInfo@@PAPAU1@00U_Scalar_ptr_iterator_tag@0@@Z ENDP ; std::_Move<GuildAttendRwardInfo * *,GuildAttendRwardInfo * *>
_TEXT	ENDS
PUBLIC	??$_Ptr_cat@PAUGuildRankRwardInfo@@PAU1@@std@@YA?AU_Scalar_ptr_iterator_tag@0@PAPAUGuildRankRwardInfo@@0@Z ; std::_Ptr_cat<GuildRankRwardInfo *,GuildRankRwardInfo *>
; Function compile flags: /Ogsp
;	COMDAT ??$_Ptr_cat@PAUGuildRankRwardInfo@@PAU1@@std@@YA?AU_Scalar_ptr_iterator_tag@0@PAPAUGuildRankRwardInfo@@0@Z
_TEXT	SEGMENT
__Cat$ = -1						; size = 1
___formal$ = 8						; size = 4
___formal$ = 12						; size = 4
??$_Ptr_cat@PAUGuildRankRwardInfo@@PAU1@@std@@YA?AU_Scalar_ptr_iterator_tag@0@PAPAUGuildRankRwardInfo@@0@Z PROC ; std::_Ptr_cat<GuildRankRwardInfo *,GuildRankRwardInfo *>, COMDAT

; 516  : 	{	// return pointer category from pointers

  00000	55		 push	 ebp
  00001	8b ec		 mov	 ebp, esp
  00003	51		 push	 ecx

; 517  : 	typename _Ptr_cat_helper<_Elem1, _Elem2>::_Type _Cat;
; 518  : 	return (_Cat);

  00004	8a 45 ff	 mov	 al, BYTE PTR __Cat$[ebp]

; 519  : 	}

  00007	c9		 leave
  00008	c3		 ret	 0
??$_Ptr_cat@PAUGuildRankRwardInfo@@PAU1@@std@@YA?AU_Scalar_ptr_iterator_tag@0@PAPAUGuildRankRwardInfo@@0@Z ENDP ; std::_Ptr_cat<GuildRankRwardInfo *,GuildRankRwardInfo *>
_TEXT	ENDS
PUBLIC	??$_Move@PAPAUGuildRankRwardInfo@@PAPAU1@@std@@YAPAPAUGuildRankRwardInfo@@PAPAU1@00U_Scalar_ptr_iterator_tag@0@@Z ; std::_Move<GuildRankRwardInfo * *,GuildRankRwardInfo * *>
; Function compile flags: /Ogsp
;	COMDAT ??$_Move@PAPAUGuildRankRwardInfo@@PAPAU1@@std@@YAPAPAUGuildRankRwardInfo@@PAPAU1@00U_Scalar_ptr_iterator_tag@0@@Z
_TEXT	SEGMENT
__First$ = 8						; size = 4
__Last$ = 12						; size = 4
__Dest$ = 16						; size = 4
___formal$ = 20						; size = 1
??$_Move@PAPAUGuildRankRwardInfo@@PAPAU1@@std@@YAPAPAUGuildRankRwardInfo@@PAPAU1@00U_Scalar_ptr_iterator_tag@0@@Z PROC ; std::_Move<GuildRankRwardInfo * *,GuildRankRwardInfo * *>, COMDAT

; 2522 : 	{	// move [_First, _Last) to [_Dest, ...), pointers to scalars

  00000	55		 push	 ebp
  00001	8b ec		 mov	 ebp, esp
  00003	56		 push	 esi

; 2523 : 	ptrdiff_t _Count = _Last - _First;

  00004	8b 75 0c	 mov	 esi, DWORD PTR __Last$[ebp]
  00007	2b 75 08	 sub	 esi, DWORD PTR __First$[ebp]
  0000a	57		 push	 edi

; 2524 : 	_CSTD memmove(&*_Dest, &*_First,
; 2525 : 		_Count * sizeof (*_First));

  0000b	8b 7d 10	 mov	 edi, DWORD PTR __Dest$[ebp]
  0000e	c1 fe 02	 sar	 esi, 2
  00011	c1 e6 02	 shl	 esi, 2
  00014	56		 push	 esi
  00015	ff 75 08	 push	 DWORD PTR __First$[ebp]
  00018	57		 push	 edi
  00019	ff 15 00 00 00
	00		 call	 DWORD PTR __imp__memmove
  0001f	83 c4 0c	 add	 esp, 12			; 0000000cH

; 2526 : 	return (_Dest + _Count);

  00022	8d 04 3e	 lea	 eax, DWORD PTR [esi+edi]
  00025	5f		 pop	 edi
  00026	5e		 pop	 esi

; 2527 : 	}

  00027	5d		 pop	 ebp
  00028	c3		 ret	 0
??$_Move@PAPAUGuildRankRwardInfo@@PAPAU1@@std@@YAPAPAUGuildRankRwardInfo@@PAPAU1@00U_Scalar_ptr_iterator_tag@0@@Z ENDP ; std::_Move<GuildRankRwardInfo * *,GuildRankRwardInfo * *>
_TEXT	ENDS
PUBLIC	??$_Destroy_range@V?$allocator@PAVioGuildData@@@std@@@std@@YAXPAPAVioGuildData@@0AAV?$allocator@PAVioGuildData@@@0@U_Scalar_ptr_iterator_tag@0@@Z ; std::_Destroy_range<std::allocator<ioGuildData *> >
; Function compile flags: /Ogsp
; File c:\program files (x86)\microsoft visual studio 10.0\vc\include\xmemory
;	COMDAT ??$_Destroy_range@V?$allocator@PAVioGuildData@@@std@@@std@@YAXPAPAVioGuildData@@0AAV?$allocator@PAVioGuildData@@@0@U_Scalar_ptr_iterator_tag@0@@Z
_TEXT	SEGMENT
__First$ = 8						; size = 4
__Last$ = 12						; size = 4
__Al$ = 16						; size = 4
___formal$ = 20						; size = 1
??$_Destroy_range@V?$allocator@PAVioGuildData@@@std@@@std@@YAXPAPAVioGuildData@@0AAV?$allocator@PAVioGuildData@@@0@U_Scalar_ptr_iterator_tag@0@@Z PROC ; std::_Destroy_range<std::allocator<ioGuildData *> >, COMDAT

; 105  : 	}

  00000	c3		 ret	 0
??$_Destroy_range@V?$allocator@PAVioGuildData@@@std@@@std@@YAXPAPAVioGuildData@@0AAV?$allocator@PAVioGuildData@@@0@U_Scalar_ptr_iterator_tag@0@@Z ENDP ; std::_Destroy_range<std::allocator<ioGuildData *> >
_TEXT	ENDS
PUBLIC	??$_Destroy_range@V?$allocator@PAUGuildAttendRwardInfo@@@std@@@std@@YAXPAPAUGuildAttendRwardInfo@@0AAV?$allocator@PAUGuildAttendRwardInfo@@@0@U_Scalar_ptr_iterator_tag@0@@Z ; std::_Destroy_range<std::allocator<GuildAttendRwardInfo *> >
; Function compile flags: /Ogsp
;	COMDAT ??$_Destroy_range@V?$allocator@PAUGuildAttendRwardInfo@@@std@@@std@@YAXPAPAUGuildAttendRwardInfo@@0AAV?$allocator@PAUGuildAttendRwardInfo@@@0@U_Scalar_ptr_iterator_tag@0@@Z
_TEXT	SEGMENT
__First$ = 8						; size = 4
__Last$ = 12						; size = 4
__Al$ = 16						; size = 4
___formal$ = 20						; size = 1
??$_Destroy_range@V?$allocator@PAUGuildAttendRwardInfo@@@std@@@std@@YAXPAPAUGuildAttendRwardInfo@@0AAV?$allocator@PAUGuildAttendRwardInfo@@@0@U_Scalar_ptr_iterator_tag@0@@Z PROC ; std::_Destroy_range<std::allocator<GuildAttendRwardInfo *> >, COMDAT

; 105  : 	}

  00000	c3		 ret	 0
??$_Destroy_range@V?$allocator@PAUGuildAttendRwardInfo@@@std@@@std@@YAXPAPAUGuildAttendRwardInfo@@0AAV?$allocator@PAUGuildAttendRwardInfo@@@0@U_Scalar_ptr_iterator_tag@0@@Z ENDP ; std::_Destroy_range<std::allocator<GuildAttendRwardInfo *> >
_TEXT	ENDS
PUBLIC	??$_Destroy_range@V?$allocator@PAUGuildRankRwardInfo@@@std@@@std@@YAXPAPAUGuildRankRwardInfo@@0AAV?$allocator@PAUGuildRankRwardInfo@@@0@U_Scalar_ptr_iterator_tag@0@@Z ; std::_Destroy_range<std::allocator<GuildRankRwardInfo *> >
; Function compile flags: /Ogsp
;	COMDAT ??$_Destroy_range@V?$allocator@PAUGuildRankRwardInfo@@@std@@@std@@YAXPAPAUGuildRankRwardInfo@@0AAV?$allocator@PAUGuildRankRwardInfo@@@0@U_Scalar_ptr_iterator_tag@0@@Z
_TEXT	SEGMENT
__First$ = 8						; size = 4
__Last$ = 12						; size = 4
__Al$ = 16						; size = 4
___formal$ = 20						; size = 1
??$_Destroy_range@V?$allocator@PAUGuildRankRwardInfo@@@std@@@std@@YAXPAPAUGuildRankRwardInfo@@0AAV?$allocator@PAUGuildRankRwardInfo@@@0@U_Scalar_ptr_iterator_tag@0@@Z PROC ; std::_Destroy_range<std::allocator<GuildRankRwardInfo *> >, COMDAT

; 105  : 	}

  00000	c3		 ret	 0
??$_Destroy_range@V?$allocator@PAUGuildRankRwardInfo@@@std@@@std@@YAXPAPAUGuildRankRwardInfo@@0AAV?$allocator@PAUGuildRankRwardInfo@@@0@U_Scalar_ptr_iterator_tag@0@@Z ENDP ; std::_Destroy_range<std::allocator<GuildRankRwardInfo *> >
_TEXT	ENDS
PUBLIC	??$_Construct@PAVioGuildData@@ABQAV1@@std@@YAXPAPAVioGuildData@@ABQAV1@@Z ; std::_Construct<ioGuildData *,ioGuildData * const &>
; Function compile flags: /Ogsp
;	COMDAT ??$_Construct@PAVioGuildData@@ABQAV1@@std@@YAXPAPAVioGuildData@@ABQAV1@@Z
_TEXT	SEGMENT
__Ptr$ = 8						; size = 4
__Val$ = 12						; size = 4
??$_Construct@PAVioGuildData@@ABQAV1@@std@@YAXPAPAVioGuildData@@ABQAV1@@Z PROC ; std::_Construct<ioGuildData *,ioGuildData * const &>, COMDAT

; 46   : 	{	// construct object at _Ptr with value _Val

  00000	55		 push	 ebp
  00001	8b ec		 mov	 ebp, esp

; 47   : 	void _FARQ *_Vptr = _Ptr;
; 48   : 	::new (_Vptr) _Ty1(_STD forward<_Ty2>(_Val));

  00003	8b 45 08	 mov	 eax, DWORD PTR __Ptr$[ebp]
  00006	85 c0		 test	 eax, eax
  00008	74 07		 je	 SHORT $LN3@Construct
  0000a	8b 4d 0c	 mov	 ecx, DWORD PTR __Val$[ebp]
  0000d	8b 09		 mov	 ecx, DWORD PTR [ecx]
  0000f	89 08		 mov	 DWORD PTR [eax], ecx
$LN3@Construct:

; 49   : 	}

  00011	5d		 pop	 ebp
  00012	c3		 ret	 0
??$_Construct@PAVioGuildData@@ABQAV1@@std@@YAXPAPAVioGuildData@@ABQAV1@@Z ENDP ; std::_Construct<ioGuildData *,ioGuildData * const &>
_TEXT	ENDS
PUBLIC	??$_Construct@PAUGuildAttendRwardInfo@@ABQAU1@@std@@YAXPAPAUGuildAttendRwardInfo@@ABQAU1@@Z ; std::_Construct<GuildAttendRwardInfo *,GuildAttendRwardInfo * const &>
; Function compile flags: /Ogsp
;	COMDAT ??$_Construct@PAUGuildAttendRwardInfo@@ABQAU1@@std@@YAXPAPAUGuildAttendRwardInfo@@ABQAU1@@Z
_TEXT	SEGMENT
__Ptr$ = 8						; size = 4
__Val$ = 12						; size = 4
??$_Construct@PAUGuildAttendRwardInfo@@ABQAU1@@std@@YAXPAPAUGuildAttendRwardInfo@@ABQAU1@@Z PROC ; std::_Construct<GuildAttendRwardInfo *,GuildAttendRwardInfo * const &>, COMDAT

; 46   : 	{	// construct object at _Ptr with value _Val

  00000	55		 push	 ebp
  00001	8b ec		 mov	 ebp, esp

; 47   : 	void _FARQ *_Vptr = _Ptr;
; 48   : 	::new (_Vptr) _Ty1(_STD forward<_Ty2>(_Val));

  00003	8b 45 08	 mov	 eax, DWORD PTR __Ptr$[ebp]
  00006	85 c0		 test	 eax, eax
  00008	74 07		 je	 SHORT $LN3@Construct@2
  0000a	8b 4d 0c	 mov	 ecx, DWORD PTR __Val$[ebp]
  0000d	8b 09		 mov	 ecx, DWORD PTR [ecx]
  0000f	89 08		 mov	 DWORD PTR [eax], ecx
$LN3@Construct@2:

; 49   : 	}

  00011	5d		 pop	 ebp
  00012	c3		 ret	 0
??$_Construct@PAUGuildAttendRwardInfo@@ABQAU1@@std@@YAXPAPAUGuildAttendRwardInfo@@ABQAU1@@Z ENDP ; std::_Construct<GuildAttendRwardInfo *,GuildAttendRwardInfo * const &>
_TEXT	ENDS
PUBLIC	??$_Construct@PAUGuildRankRwardInfo@@ABQAU1@@std@@YAXPAPAUGuildRankRwardInfo@@ABQAU1@@Z ; std::_Construct<GuildRankRwardInfo *,GuildRankRwardInfo * const &>
; Function compile flags: /Ogsp
;	COMDAT ??$_Construct@PAUGuildRankRwardInfo@@ABQAU1@@std@@YAXPAPAUGuildRankRwardInfo@@ABQAU1@@Z
_TEXT	SEGMENT
__Ptr$ = 8						; size = 4
__Val$ = 12						; size = 4
??$_Construct@PAUGuildRankRwardInfo@@ABQAU1@@std@@YAXPAPAUGuildRankRwardInfo@@ABQAU1@@Z PROC ; std::_Construct<GuildRankRwardInfo *,GuildRankRwardInfo * const &>, COMDAT

; 46   : 	{	// construct object at _Ptr with value _Val

  00000	55		 push	 ebp
  00001	8b ec		 mov	 ebp, esp

; 47   : 	void _FARQ *_Vptr = _Ptr;
; 48   : 	::new (_Vptr) _Ty1(_STD forward<_Ty2>(_Val));

  00003	8b 45 08	 mov	 eax, DWORD PTR __Ptr$[ebp]
  00006	85 c0		 test	 eax, eax
  00008	74 07		 je	 SHORT $LN3@Construct@3
  0000a	8b 4d 0c	 mov	 ecx, DWORD PTR __Val$[ebp]
  0000d	8b 09		 mov	 ecx, DWORD PTR [ecx]
  0000f	89 08		 mov	 DWORD PTR [eax], ecx
$LN3@Construct@3:

; 49   : 	}

  00011	5d		 pop	 ebp
  00012	c3		 ret	 0
??$_Construct@PAUGuildRankRwardInfo@@ABQAU1@@std@@YAXPAPAUGuildRankRwardInfo@@ABQAU1@@Z ENDP ; std::_Construct<GuildRankRwardInfo *,GuildRankRwardInfo * const &>
_TEXT	ENDS
PUBLIC	??0GuildUser@ioGuildData@@QAE@ABU01@@Z		; ioGuildData::GuildUser::GuildUser
EXTRN	__imp_??0ioHashString@@QAE@ABV0@@Z:PROC
;	COMDAT xdata$x
xdata$x	SEGMENT
__unwindtable$??0GuildUser@ioGuildData@@QAE@ABU01@@Z DD 0ffffffffH
	DD	FLAT:__unwindfunclet$??0GuildUser@ioGuildData@@QAE@ABU01@@Z$0
__ehfuncinfo$??0GuildUser@ioGuildData@@QAE@ABU01@@Z DD 019930522H
	DD	01H
	DD	FLAT:__unwindtable$??0GuildUser@ioGuildData@@QAE@ABU01@@Z
	DD	2 DUP(00H)
	DD	2 DUP(00H)
	DD	00H
	DD	01H
; Function compile flags: /Ogsp
xdata$x	ENDS
;	COMDAT ??0GuildUser@ioGuildData@@QAE@ABU01@@Z
_TEXT	SEGMENT
_this$ = -16						; size = 4
__$EHRec$ = -12						; size = 12
___that$ = 8						; size = 4
??0GuildUser@ioGuildData@@QAE@ABU01@@Z PROC		; ioGuildData::GuildUser::GuildUser, COMDAT
; _this$ = ecx
  00000	6a 04		 push	 4
  00002	b8 00 00 00 00	 mov	 eax, __ehhandler$??0GuildUser@ioGuildData@@QAE@ABU01@@Z
  00007	e8 00 00 00 00	 call	 __EH_prolog3
  0000c	8b f1		 mov	 esi, ecx
  0000e	89 75 f0	 mov	 DWORD PTR _this$[ebp], esi
  00011	8b 7d 08	 mov	 edi, DWORD PTR ___that$[ebp]
  00014	8b 07		 mov	 eax, DWORD PTR [edi]
  00016	8b 1d 00 00 00
	00		 mov	 ebx, DWORD PTR __imp_??0ioHashString@@QAE@ABV0@@Z
  0001c	89 06		 mov	 DWORD PTR [esi], eax
  0001e	8b 47 04	 mov	 eax, DWORD PTR [edi+4]
  00021	89 46 04	 mov	 DWORD PTR [esi+4], eax
  00024	8b 47 08	 mov	 eax, DWORD PTR [edi+8]
  00027	89 46 08	 mov	 DWORD PTR [esi+8], eax
  0002a	8b 47 0c	 mov	 eax, DWORD PTR [edi+12]
  0002d	89 46 0c	 mov	 DWORD PTR [esi+12], eax
  00030	8b 47 10	 mov	 eax, DWORD PTR [edi+16]
  00033	89 46 10	 mov	 DWORD PTR [esi+16], eax
  00036	8d 47 14	 lea	 eax, DWORD PTR [edi+20]
  00039	50		 push	 eax
  0003a	8d 4e 14	 lea	 ecx, DWORD PTR [esi+20]
  0003d	ff d3		 call	 ebx
  0003f	83 65 fc 00	 and	 DWORD PTR __$EHRec$[ebp+8], 0
  00043	8d 47 24	 lea	 eax, DWORD PTR [edi+36]
  00046	50		 push	 eax
  00047	8d 4e 24	 lea	 ecx, DWORD PTR [esi+36]
  0004a	ff d3		 call	 ebx
  0004c	8a 47 34	 mov	 al, BYTE PTR [edi+52]
  0004f	88 46 34	 mov	 BYTE PTR [esi+52], al
  00052	8a 47 35	 mov	 al, BYTE PTR [edi+53]
  00055	88 46 35	 mov	 BYTE PTR [esi+53], al
  00058	8a 47 36	 mov	 al, BYTE PTR [edi+54]
  0005b	88 46 36	 mov	 BYTE PTR [esi+54], al
  0005e	8b c6		 mov	 eax, esi
  00060	e8 00 00 00 00	 call	 __EH_epilog3
  00065	c2 04 00	 ret	 4
_TEXT	ENDS
;	COMDAT text$x
text$x	SEGMENT
__unwindfunclet$??0GuildUser@ioGuildData@@QAE@ABU01@@Z$0:
  00000	8b 4d f0	 mov	 ecx, DWORD PTR _this$[ebp]
  00003	83 c1 14	 add	 ecx, 20			; 00000014H
  00006	ff 25 00 00 00
	00		 jmp	 DWORD PTR __imp_??1ioHashString@@QAE@XZ
__ehhandler$??0GuildUser@ioGuildData@@QAE@ABU01@@Z:
  0000c	8b 54 24 08	 mov	 edx, DWORD PTR [esp+8]
  00010	8d 42 0c	 lea	 eax, DWORD PTR [edx+12]
  00013	8b 4a ec	 mov	 ecx, DWORD PTR [edx-20]
  00016	33 c8		 xor	 ecx, eax
  00018	e8 00 00 00 00	 call	 @__security_check_cookie@4
  0001d	b8 00 00 00 00	 mov	 eax, OFFSET __ehfuncinfo$??0GuildUser@ioGuildData@@QAE@ABU01@@Z
  00022	e9 00 00 00 00	 jmp	 ___CxxFrameHandler3
text$x	ENDS
??0GuildUser@ioGuildData@@QAE@ABU01@@Z ENDP		; ioGuildData::GuildUser::GuildUser
PUBLIC	??4GuildUser@ioGuildData@@QAEAAU01@ABU01@@Z	; ioGuildData::GuildUser::operator=
; Function compile flags: /Ogsp
;	COMDAT ??4GuildUser@ioGuildData@@QAEAAU01@ABU01@@Z
_TEXT	SEGMENT
___that$ = 8						; size = 4
??4GuildUser@ioGuildData@@QAEAAU01@ABU01@@Z PROC	; ioGuildData::GuildUser::operator=, COMDAT
; _this$ = ecx
  00000	55		 push	 ebp
  00001	8b ec		 mov	 ebp, esp
  00003	53		 push	 ebx
  00004	8b 1d 00 00 00
	00		 mov	 ebx, DWORD PTR __imp_??4ioHashString@@QAEAAV0@ABV0@@Z
  0000a	56		 push	 esi
  0000b	8b f1		 mov	 esi, ecx
  0000d	57		 push	 edi
  0000e	8b 7d 08	 mov	 edi, DWORD PTR ___that$[ebp]
  00011	8b 07		 mov	 eax, DWORD PTR [edi]
  00013	89 06		 mov	 DWORD PTR [esi], eax
  00015	8b 47 04	 mov	 eax, DWORD PTR [edi+4]
  00018	89 46 04	 mov	 DWORD PTR [esi+4], eax
  0001b	8b 47 08	 mov	 eax, DWORD PTR [edi+8]
  0001e	89 46 08	 mov	 DWORD PTR [esi+8], eax
  00021	8b 47 0c	 mov	 eax, DWORD PTR [edi+12]
  00024	89 46 0c	 mov	 DWORD PTR [esi+12], eax
  00027	8b 47 10	 mov	 eax, DWORD PTR [edi+16]
  0002a	89 46 10	 mov	 DWORD PTR [esi+16], eax
  0002d	8d 47 14	 lea	 eax, DWORD PTR [edi+20]
  00030	50		 push	 eax
  00031	8d 4e 14	 lea	 ecx, DWORD PTR [esi+20]
  00034	ff d3		 call	 ebx
  00036	8d 47 24	 lea	 eax, DWORD PTR [edi+36]
  00039	50		 push	 eax
  0003a	8d 4e 24	 lea	 ecx, DWORD PTR [esi+36]
  0003d	ff d3		 call	 ebx
  0003f	8a 47 34	 mov	 al, BYTE PTR [edi+52]
  00042	88 46 34	 mov	 BYTE PTR [esi+52], al
  00045	8a 47 35	 mov	 al, BYTE PTR [edi+53]
  00048	88 46 35	 mov	 BYTE PTR [esi+53], al
  0004b	8a 47 36	 mov	 al, BYTE PTR [edi+54]
  0004e	88 46 36	 mov	 BYTE PTR [esi+54], al
  00051	5f		 pop	 edi
  00052	8b c6		 mov	 eax, esi
  00054	5e		 pop	 esi
  00055	5b		 pop	 ebx
  00056	5d		 pop	 ebp
  00057	c2 04 00	 ret	 4
??4GuildUser@ioGuildData@@QAEAAU01@ABU01@@Z ENDP	; ioGuildData::GuildUser::operator=
_TEXT	ENDS
PUBLIC	??0InvitationUser@ioGuildInfo@@QAE@ABU01@@Z	; ioGuildInfo::InvitationUser::InvitationUser
; Function compile flags: /Ogsp
;	COMDAT ??0InvitationUser@ioGuildInfo@@QAE@ABU01@@Z
_TEXT	SEGMENT
___that$ = 8						; size = 4
??0InvitationUser@ioGuildInfo@@QAE@ABU01@@Z PROC	; ioGuildInfo::InvitationUser::InvitationUser, COMDAT
; _this$ = ecx
  00000	55		 push	 ebp
  00001	8b ec		 mov	 ebp, esp
  00003	56		 push	 esi
  00004	57		 push	 edi
  00005	8b 7d 08	 mov	 edi, DWORD PTR ___that$[ebp]
  00008	57		 push	 edi
  00009	8b f1		 mov	 esi, ecx
  0000b	ff 15 00 00 00
	00		 call	 DWORD PTR __imp_??0ioHashString@@QAE@ABV0@@Z
  00011	8b 47 10	 mov	 eax, DWORD PTR [edi+16]
  00014	89 46 10	 mov	 DWORD PTR [esi+16], eax
  00017	5f		 pop	 edi
  00018	8b c6		 mov	 eax, esi
  0001a	5e		 pop	 esi
  0001b	5d		 pop	 ebp
  0001c	c2 04 00	 ret	 4
??0InvitationUser@ioGuildInfo@@QAE@ABU01@@Z ENDP	; ioGuildInfo::InvitationUser::InvitationUser
_TEXT	ENDS
PUBLIC	??4InvitationUser@ioGuildInfo@@QAEAAU01@ABU01@@Z ; ioGuildInfo::InvitationUser::operator=
; Function compile flags: /Ogsp
;	COMDAT ??4InvitationUser@ioGuildInfo@@QAEAAU01@ABU01@@Z
_TEXT	SEGMENT
___that$ = 8						; size = 4
??4InvitationUser@ioGuildInfo@@QAEAAU01@ABU01@@Z PROC	; ioGuildInfo::InvitationUser::operator=, COMDAT
; _this$ = ecx
  00000	55		 push	 ebp
  00001	8b ec		 mov	 ebp, esp
  00003	56		 push	 esi
  00004	57		 push	 edi
  00005	8b 7d 08	 mov	 edi, DWORD PTR ___that$[ebp]
  00008	57		 push	 edi
  00009	8b f1		 mov	 esi, ecx
  0000b	ff 15 00 00 00
	00		 call	 DWORD PTR __imp_??4ioHashString@@QAEAAV0@ABV0@@Z
  00011	8b 47 10	 mov	 eax, DWORD PTR [edi+16]
  00014	89 46 10	 mov	 DWORD PTR [esi+16], eax
  00017	5f		 pop	 edi
  00018	8b c6		 mov	 eax, esi
  0001a	5e		 pop	 esi
  0001b	5d		 pop	 ebp
  0001c	c2 04 00	 ret	 4
??4InvitationUser@ioGuildInfo@@QAEAAU01@ABU01@@Z ENDP	; ioGuildInfo::InvitationUser::operator=
_TEXT	ENDS
PUBLIC	?_Unchecked@?$_Vector_iterator@V?$_Vector_val@UGuildUser@ioGuildData@@V?$allocator@UGuildUser@ioGuildData@@@std@@@std@@@std@@QBEPAUGuildUser@ioGuildData@@XZ ; std::_Vector_iterator<std::_Vector_val<ioGuildData::GuildUser,std::allocator<ioGuildData::GuildUser> > >::_Unchecked
; Function compile flags: /Ogsp
; File c:\program files (x86)\microsoft visual studio 10.0\vc\include\vector
;	COMDAT ?_Unchecked@?$_Vector_iterator@V?$_Vector_val@UGuildUser@ioGuildData@@V?$allocator@UGuildUser@ioGuildData@@@std@@@std@@@std@@QBEPAUGuildUser@ioGuildData@@XZ
_TEXT	SEGMENT
?_Unchecked@?$_Vector_iterator@V?$_Vector_val@UGuildUser@ioGuildData@@V?$allocator@UGuildUser@ioGuildData@@@std@@@std@@@std@@QBEPAUGuildUser@ioGuildData@@XZ PROC ; std::_Vector_iterator<std::_Vector_val<ioGuildData::GuildUser,std::allocator<ioGuildData::GuildUser> > >::_Unchecked, COMDAT
; _this$ = ecx

; 317  : 		return (_Unchecked_type(this->_Ptr));

  00000	8b 01		 mov	 eax, DWORD PTR [ecx]

; 318  : 		}

  00002	c3		 ret	 0
?_Unchecked@?$_Vector_iterator@V?$_Vector_val@UGuildUser@ioGuildData@@V?$allocator@UGuildUser@ioGuildData@@@std@@@std@@@std@@QBEPAUGuildUser@ioGuildData@@XZ ENDP ; std::_Vector_iterator<std::_Vector_val<ioGuildData::GuildUser,std::allocator<ioGuildData::GuildUser> > >::_Unchecked
_TEXT	ENDS
PUBLIC	??$_Ptr_cat@V?$_Vector_const_iterator@V?$_Vector_val@V?$basic_string@DU?$char_traits@D@std@@V?$allocator@D@2@@std@@V?$allocator@V?$basic_string@DU?$char_traits@D@std@@V?$allocator@D@2@@std@@@2@@std@@@std@@PAV?$basic_string@DU?$char_traits@D@std@@V?$allocator@D@2@@2@@std@@YA?AU_Nonscalar_ptr_iterator_tag@0@AAV?$_Vector_const_iterator@V?$_Vector_val@V?$basic_string@DU?$char_traits@D@std@@V?$allocator@D@2@@std@@V?$allocator@V?$basic_string@DU?$char_traits@D@std@@V?$allocator@D@2@@std@@@2@@std@@@0@AAPAV?$basic_string@DU?$char_traits@D@std@@V?$allocator@D@2@@0@@Z ; std::_Ptr_cat<std::_Vector_const_iterator<std::_Vector_val<std::basic_string<char,std::char_traits<char>,std::allocator<char> >,std::allocator<std::basic_string<char,std::char_traits<char>,std::allocator<char> > > > >,std::basic_string<char,std::char_traits<char>,std::allocator<char> > *>
; Function compile flags: /Ogsp
; File c:\program files (x86)\microsoft visual studio 10.0\vc\include\xutility
;	COMDAT ??$_Ptr_cat@V?$_Vector_const_iterator@V?$_Vector_val@V?$basic_string@DU?$char_traits@D@std@@V?$allocator@D@2@@std@@V?$allocator@V?$basic_string@DU?$char_traits@D@std@@V?$allocator@D@2@@std@@@2@@std@@@std@@PAV?$basic_string@DU?$char_traits@D@std@@V?$allocator@D@2@@2@@std@@YA?AU_Nonscalar_ptr_iterator_tag@0@AAV?$_Vector_const_iterator@V?$_Vector_val@V?$basic_string@DU?$char_traits@D@std@@V?$allocator@D@2@@std@@V?$allocator@V?$basic_string@DU?$char_traits@D@std@@V?$allocator@D@2@@std@@@2@@std@@@0@AAPAV?$basic_string@DU?$char_traits@D@std@@V?$allocator@D@2@@0@@Z
_TEXT	SEGMENT
__Cat$ = -1						; size = 1
___formal$ = 8						; size = 4
___formal$ = 12						; size = 4
??$_Ptr_cat@V?$_Vector_const_iterator@V?$_Vector_val@V?$basic_string@DU?$char_traits@D@std@@V?$allocator@D@2@@std@@V?$allocator@V?$basic_string@DU?$char_traits@D@std@@V?$allocator@D@2@@std@@@2@@std@@@std@@PAV?$basic_string@DU?$char_traits@D@std@@V?$allocator@D@2@@2@@std@@YA?AU_Nonscalar_ptr_iterator_tag@0@AAV?$_Vector_const_iterator@V?$_Vector_val@V?$basic_string@DU?$char_traits@D@std@@V?$allocator@D@2@@std@@V?$allocator@V?$basic_string@DU?$char_traits@D@std@@V?$allocator@D@2@@std@@@2@@std@@@0@AAPAV?$basic_string@DU?$char_traits@D@std@@V?$allocator@D@2@@0@@Z PROC ; std::_Ptr_cat<std::_Vector_const_iterator<std::_Vector_val<std::basic_string<char,std::char_traits<char>,std::allocator<char> >,std::allocator<std::basic_string<char,std::char_traits<char>,std::allocator<char> > > > >,std::basic_string<char,std::char_traits<char>,std::allocator<char> > *>, COMDAT

; 485  : 	{	// return pointer category from arbitrary arguments

  00000	55		 push	 ebp
  00001	8b ec		 mov	 ebp, esp
  00003	51		 push	 ecx

; 486  : 	_Nonscalar_ptr_iterator_tag _Cat;
; 487  : 	return (_Cat);

  00004	8a 45 ff	 mov	 al, BYTE PTR __Cat$[ebp]

; 488  : 	}

  00007	c9		 leave
  00008	c3		 ret	 0
??$_Ptr_cat@V?$_Vector_const_iterator@V?$_Vector_val@V?$basic_string@DU?$char_traits@D@std@@V?$allocator@D@2@@std@@V?$allocator@V?$basic_string@DU?$char_traits@D@std@@V?$allocator@D@2@@std@@@2@@std@@@std@@PAV?$basic_string@DU?$char_traits@D@std@@V?$allocator@D@2@@2@@std@@YA?AU_Nonscalar_ptr_iterator_tag@0@AAV?$_Vector_const_iterator@V?$_Vector_val@V?$basic_string@DU?$char_traits@D@std@@V?$allocator@D@2@@std@@V?$allocator@V?$basic_string@DU?$char_traits@D@std@@V?$allocator@D@2@@std@@@2@@std@@@0@AAPAV?$basic_string@DU?$char_traits@D@std@@V?$allocator@D@2@@0@@Z ENDP ; std::_Ptr_cat<std::_Vector_const_iterator<std::_Vector_val<std::basic_string<char,std::char_traits<char>,std::allocator<char> >,std::allocator<std::basic_string<char,std::char_traits<char>,std::allocator<char> > > > >,std::basic_string<char,std::char_traits<char>,std::allocator<char> > *>
_TEXT	ENDS
PUBLIC	??$move@AAUGuildUser@ioGuildData@@@std@@YA$$QAUGuildUser@ioGuildData@@AAU12@@Z ; std::move<ioGuildData::GuildUser &>
; Function compile flags: /Ogsp
; File c:\program files (x86)\microsoft visual studio 10.0\vc\include\utility
;	COMDAT ??$move@AAUGuildUser@ioGuildData@@@std@@YA$$QAUGuildUser@ioGuildData@@AAU12@@Z
_TEXT	SEGMENT
__Arg$ = 8						; size = 4
??$move@AAUGuildUser@ioGuildData@@@std@@YA$$QAUGuildUser@ioGuildData@@AAU12@@Z PROC ; std::move<ioGuildData::GuildUser &>, COMDAT

; 86   : 	{	// forward _Arg as movable

  00000	55		 push	 ebp
  00001	8b ec		 mov	 ebp, esp

; 87   : 	return ((typename tr1::_Remove_reference<_Ty>::_Type&&)_Arg);

  00003	8b 45 08	 mov	 eax, DWORD PTR __Arg$[ebp]

; 88   : 	}

  00006	5d		 pop	 ebp
  00007	c3		 ret	 0
??$move@AAUGuildUser@ioGuildData@@@std@@YA$$QAUGuildUser@ioGuildData@@AAU12@@Z ENDP ; std::move<ioGuildData::GuildUser &>
_TEXT	ENDS
PUBLIC	??$move@AAUInvitationUser@ioGuildInfo@@@std@@YA$$QAUInvitationUser@ioGuildInfo@@AAU12@@Z ; std::move<ioGuildInfo::InvitationUser &>
; Function compile flags: /Ogsp
;	COMDAT ??$move@AAUInvitationUser@ioGuildInfo@@@std@@YA$$QAUInvitationUser@ioGuildInfo@@AAU12@@Z
_TEXT	SEGMENT
__Arg$ = 8						; size = 4
??$move@AAUInvitationUser@ioGuildInfo@@@std@@YA$$QAUInvitationUser@ioGuildInfo@@AAU12@@Z PROC ; std::move<ioGuildInfo::InvitationUser &>, COMDAT

; 86   : 	{	// forward _Arg as movable

  00000	55		 push	 ebp
  00001	8b ec		 mov	 ebp, esp

; 87   : 	return ((typename tr1::_Remove_reference<_Ty>::_Type&&)_Arg);

  00003	8b 45 08	 mov	 eax, DWORD PTR __Arg$[ebp]

; 88   : 	}

  00006	5d		 pop	 ebp
  00007	c3		 ret	 0
??$move@AAUInvitationUser@ioGuildInfo@@@std@@YA$$QAUInvitationUser@ioGuildInfo@@AAU12@@Z ENDP ; std::move<ioGuildInfo::InvitationUser &>
_TEXT	ENDS
PUBLIC	??$move@AAVGashaponPresent@@@std@@YA$$QAVGashaponPresent@@AAV1@@Z ; std::move<GashaponPresent &>
; Function compile flags: /Ogsp
;	COMDAT ??$move@AAVGashaponPresent@@@std@@YA$$QAVGashaponPresent@@AAV1@@Z
_TEXT	SEGMENT
__Arg$ = 8						; size = 4
??$move@AAVGashaponPresent@@@std@@YA$$QAVGashaponPresent@@AAV1@@Z PROC ; std::move<GashaponPresent &>, COMDAT

; 86   : 	{	// forward _Arg as movable

  00000	55		 push	 ebp
  00001	8b ec		 mov	 ebp, esp

; 87   : 	return ((typename tr1::_Remove_reference<_Ty>::_Type&&)_Arg);

  00003	8b 45 08	 mov	 eax, DWORD PTR __Arg$[ebp]

; 88   : 	}

  00006	5d		 pop	 ebp
  00007	c3		 ret	 0
??$move@AAVGashaponPresent@@@std@@YA$$QAVGashaponPresent@@AAV1@@Z ENDP ; std::move<GashaponPresent &>
_TEXT	ENDS
PUBLIC	??$_Val_type@PAUGuildUser@ioGuildData@@@std@@YAPAUGuildUser@ioGuildData@@PAU12@@Z ; std::_Val_type<ioGuildData::GuildUser *>
; Function compile flags: /Ogsp
; File c:\program files (x86)\microsoft visual studio 10.0\vc\include\xutility
;	COMDAT ??$_Val_type@PAUGuildUser@ioGuildData@@@std@@YAPAUGuildUser@ioGuildData@@PAU12@@Z
_TEXT	SEGMENT
___formal$ = 8						; size = 4
??$_Val_type@PAUGuildUser@ioGuildData@@@std@@YAPAUGuildUser@ioGuildData@@PAU12@@Z PROC ; std::_Val_type<ioGuildData::GuildUser *>, COMDAT

; 790  : 	return (0);

  00000	33 c0		 xor	 eax, eax

; 791  : 	}

  00002	c3		 ret	 0
??$_Val_type@PAUGuildUser@ioGuildData@@@std@@YAPAUGuildUser@ioGuildData@@PAU12@@Z ENDP ; std::_Val_type<ioGuildData::GuildUser *>
_TEXT	ENDS
PUBLIC	??$_Val_type@PAPAVioGuildData@@@std@@YAPAPAVioGuildData@@PAPAV1@@Z ; std::_Val_type<ioGuildData * *>
; Function compile flags: /Ogsp
;	COMDAT ??$_Val_type@PAPAVioGuildData@@@std@@YAPAPAVioGuildData@@PAPAV1@@Z
_TEXT	SEGMENT
___formal$ = 8						; size = 4
??$_Val_type@PAPAVioGuildData@@@std@@YAPAPAVioGuildData@@PAPAV1@@Z PROC ; std::_Val_type<ioGuildData * *>, COMDAT

; 790  : 	return (0);

  00000	33 c0		 xor	 eax, eax

; 791  : 	}

  00002	c3		 ret	 0
??$_Val_type@PAPAVioGuildData@@@std@@YAPAPAVioGuildData@@PAPAV1@@Z ENDP ; std::_Val_type<ioGuildData * *>
_TEXT	ENDS
PUBLIC	??$_Uninit_move@PAVioGuildData@@PAV1@PAV1@@std@@YAPAPAVioGuildData@@PAPAV1@00AAV?$allocator@PAVioGuildData@@@0@0U_Scalar_ptr_iterator_tag@0@@Z ; std::_Uninit_move<ioGuildData *,ioGuildData *,ioGuildData *>
; Function compile flags: /Ogsp
; File c:\program files (x86)\microsoft visual studio 10.0\vc\include\memory
;	COMDAT ??$_Uninit_move@PAVioGuildData@@PAV1@PAV1@@std@@YAPAPAVioGuildData@@PAPAV1@00AAV?$allocator@PAVioGuildData@@@0@0U_Scalar_ptr_iterator_tag@0@@Z
_TEXT	SEGMENT
__First$ = 8						; size = 4
__Last$ = 12						; size = 4
__Dest$ = 16						; size = 4
___formal$ = 20						; size = 4
___formal$ = 24						; size = 4
___formal$ = 28						; size = 1
??$_Uninit_move@PAVioGuildData@@PAV1@PAV1@@std@@YAPAPAVioGuildData@@PAPAV1@00AAV?$allocator@PAVioGuildData@@@0@0U_Scalar_ptr_iterator_tag@0@@Z PROC ; std::_Uninit_move<ioGuildData *,ioGuildData *,ioGuildData *>, COMDAT

; 456  : 	{	// move [_First, _Last) to raw _Dest, scalar type

  00000	55		 push	 ebp
  00001	8b ec		 mov	 ebp, esp
  00003	56		 push	 esi

; 457  : 	_DEBUG_RANGE(_First, _Last);
; 458  : 	_DEBUG_POINTER(_Dest);
; 459  : 	size_t _Count = (size_t)(_Last - _First);

  00004	8b 75 0c	 mov	 esi, DWORD PTR __Last$[ebp]
  00007	2b 75 08	 sub	 esi, DWORD PTR __First$[ebp]
  0000a	c1 fe 02	 sar	 esi, 2

; 460  : 	return ((_Ty2 *)_CSTD memmove(&*_Dest, &*_First,
; 461  : 		_Count * sizeof (*_First)) + _Count);	// NB: non-overlapping move

  0000d	c1 e6 02	 shl	 esi, 2
  00010	56		 push	 esi
  00011	ff 75 08	 push	 DWORD PTR __First$[ebp]
  00014	ff 75 10	 push	 DWORD PTR __Dest$[ebp]
  00017	ff 15 00 00 00
	00		 call	 DWORD PTR __imp__memmove
  0001d	83 c4 0c	 add	 esp, 12			; 0000000cH
  00020	03 c6		 add	 eax, esi
  00022	5e		 pop	 esi

; 462  : 	}

  00023	5d		 pop	 ebp
  00024	c3		 ret	 0
??$_Uninit_move@PAVioGuildData@@PAV1@PAV1@@std@@YAPAPAVioGuildData@@PAPAV1@00AAV?$allocator@PAVioGuildData@@@0@0U_Scalar_ptr_iterator_tag@0@@Z ENDP ; std::_Uninit_move<ioGuildData *,ioGuildData *,ioGuildData *>
_TEXT	ENDS
PUBLIC	??$_Val_type@PAUInvitationUser@ioGuildInfo@@@std@@YAPAUInvitationUser@ioGuildInfo@@PAU12@@Z ; std::_Val_type<ioGuildInfo::InvitationUser *>
; Function compile flags: /Ogsp
; File c:\program files (x86)\microsoft visual studio 10.0\vc\include\xutility
;	COMDAT ??$_Val_type@PAUInvitationUser@ioGuildInfo@@@std@@YAPAUInvitationUser@ioGuildInfo@@PAU12@@Z
_TEXT	SEGMENT
___formal$ = 8						; size = 4
??$_Val_type@PAUInvitationUser@ioGuildInfo@@@std@@YAPAUInvitationUser@ioGuildInfo@@PAU12@@Z PROC ; std::_Val_type<ioGuildInfo::InvitationUser *>, COMDAT

; 790  : 	return (0);

  00000	33 c0		 xor	 eax, eax

; 791  : 	}

  00002	c3		 ret	 0
??$_Val_type@PAUInvitationUser@ioGuildInfo@@@std@@YAPAUInvitationUser@ioGuildInfo@@PAU12@@Z ENDP ; std::_Val_type<ioGuildInfo::InvitationUser *>
_TEXT	ENDS
PUBLIC	??$_Val_type@PAPAUGuildAttendRwardInfo@@@std@@YAPAPAUGuildAttendRwardInfo@@PAPAU1@@Z ; std::_Val_type<GuildAttendRwardInfo * *>
; Function compile flags: /Ogsp
;	COMDAT ??$_Val_type@PAPAUGuildAttendRwardInfo@@@std@@YAPAPAUGuildAttendRwardInfo@@PAPAU1@@Z
_TEXT	SEGMENT
___formal$ = 8						; size = 4
??$_Val_type@PAPAUGuildAttendRwardInfo@@@std@@YAPAPAUGuildAttendRwardInfo@@PAPAU1@@Z PROC ; std::_Val_type<GuildAttendRwardInfo * *>, COMDAT

; 790  : 	return (0);

  00000	33 c0		 xor	 eax, eax

; 791  : 	}

  00002	c3		 ret	 0
??$_Val_type@PAPAUGuildAttendRwardInfo@@@std@@YAPAPAUGuildAttendRwardInfo@@PAPAU1@@Z ENDP ; std::_Val_type<GuildAttendRwardInfo * *>
_TEXT	ENDS
PUBLIC	??$_Uninit_move@PAUGuildAttendRwardInfo@@PAU1@PAU1@@std@@YAPAPAUGuildAttendRwardInfo@@PAPAU1@00AAV?$allocator@PAUGuildAttendRwardInfo@@@0@0U_Scalar_ptr_iterator_tag@0@@Z ; std::_Uninit_move<GuildAttendRwardInfo *,GuildAttendRwardInfo *,GuildAttendRwardInfo *>
; Function compile flags: /Ogsp
; File c:\program files (x86)\microsoft visual studio 10.0\vc\include\memory
;	COMDAT ??$_Uninit_move@PAUGuildAttendRwardInfo@@PAU1@PAU1@@std@@YAPAPAUGuildAttendRwardInfo@@PAPAU1@00AAV?$allocator@PAUGuildAttendRwardInfo@@@0@0U_Scalar_ptr_iterator_tag@0@@Z
_TEXT	SEGMENT
__First$ = 8						; size = 4
__Last$ = 12						; size = 4
__Dest$ = 16						; size = 4
___formal$ = 20						; size = 4
___formal$ = 24						; size = 4
___formal$ = 28						; size = 1
??$_Uninit_move@PAUGuildAttendRwardInfo@@PAU1@PAU1@@std@@YAPAPAUGuildAttendRwardInfo@@PAPAU1@00AAV?$allocator@PAUGuildAttendRwardInfo@@@0@0U_Scalar_ptr_iterator_tag@0@@Z PROC ; std::_Uninit_move<GuildAttendRwardInfo *,GuildAttendRwardInfo *,GuildAttendRwardInfo *>, COMDAT

; 456  : 	{	// move [_First, _Last) to raw _Dest, scalar type

  00000	55		 push	 ebp
  00001	8b ec		 mov	 ebp, esp
  00003	56		 push	 esi

; 457  : 	_DEBUG_RANGE(_First, _Last);
; 458  : 	_DEBUG_POINTER(_Dest);
; 459  : 	size_t _Count = (size_t)(_Last - _First);

  00004	8b 75 0c	 mov	 esi, DWORD PTR __Last$[ebp]
  00007	2b 75 08	 sub	 esi, DWORD PTR __First$[ebp]
  0000a	c1 fe 02	 sar	 esi, 2

; 460  : 	return ((_Ty2 *)_CSTD memmove(&*_Dest, &*_First,
; 461  : 		_Count * sizeof (*_First)) + _Count);	// NB: non-overlapping move

  0000d	c1 e6 02	 shl	 esi, 2
  00010	56		 push	 esi
  00011	ff 75 08	 push	 DWORD PTR __First$[ebp]
  00014	ff 75 10	 push	 DWORD PTR __Dest$[ebp]
  00017	ff 15 00 00 00
	00		 call	 DWORD PTR __imp__memmove
  0001d	83 c4 0c	 add	 esp, 12			; 0000000cH
  00020	03 c6		 add	 eax, esi
  00022	5e		 pop	 esi

; 462  : 	}

  00023	5d		 pop	 ebp
  00024	c3		 ret	 0
??$_Uninit_move@PAUGuildAttendRwardInfo@@PAU1@PAU1@@std@@YAPAPAUGuildAttendRwardInfo@@PAPAU1@00AAV?$allocator@PAUGuildAttendRwardInfo@@@0@0U_Scalar_ptr_iterator_tag@0@@Z ENDP ; std::_Uninit_move<GuildAttendRwardInfo *,GuildAttendRwardInfo *,GuildAttendRwardInfo *>
_TEXT	ENDS
PUBLIC	??$_Val_type@PAPAUGuildRankRwardInfo@@@std@@YAPAPAUGuildRankRwardInfo@@PAPAU1@@Z ; std::_Val_type<GuildRankRwardInfo * *>
; Function compile flags: /Ogsp
; File c:\program files (x86)\microsoft visual studio 10.0\vc\include\xutility
;	COMDAT ??$_Val_type@PAPAUGuildRankRwardInfo@@@std@@YAPAPAUGuildRankRwardInfo@@PAPAU1@@Z
_TEXT	SEGMENT
___formal$ = 8						; size = 4
??$_Val_type@PAPAUGuildRankRwardInfo@@@std@@YAPAPAUGuildRankRwardInfo@@PAPAU1@@Z PROC ; std::_Val_type<GuildRankRwardInfo * *>, COMDAT

; 790  : 	return (0);

  00000	33 c0		 xor	 eax, eax

; 791  : 	}

  00002	c3		 ret	 0
??$_Val_type@PAPAUGuildRankRwardInfo@@@std@@YAPAPAUGuildRankRwardInfo@@PAPAU1@@Z ENDP ; std::_Val_type<GuildRankRwardInfo * *>
_TEXT	ENDS
PUBLIC	??$_Uninit_move@PAUGuildRankRwardInfo@@PAU1@PAU1@@std@@YAPAPAUGuildRankRwardInfo@@PAPAU1@00AAV?$allocator@PAUGuildRankRwardInfo@@@0@0U_Scalar_ptr_iterator_tag@0@@Z ; std::_Uninit_move<GuildRankRwardInfo *,GuildRankRwardInfo *,GuildRankRwardInfo *>
; Function compile flags: /Ogsp
; File c:\program files (x86)\microsoft visual studio 10.0\vc\include\memory
;	COMDAT ??$_Uninit_move@PAUGuildRankRwardInfo@@PAU1@PAU1@@std@@YAPAPAUGuildRankRwardInfo@@PAPAU1@00AAV?$allocator@PAUGuildRankRwardInfo@@@0@0U_Scalar_ptr_iterator_tag@0@@Z
_TEXT	SEGMENT
__First$ = 8						; size = 4
__Last$ = 12						; size = 4
__Dest$ = 16						; size = 4
___formal$ = 20						; size = 4
___formal$ = 24						; size = 4
___formal$ = 28						; size = 1
??$_Uninit_move@PAUGuildRankRwardInfo@@PAU1@PAU1@@std@@YAPAPAUGuildRankRwardInfo@@PAPAU1@00AAV?$allocator@PAUGuildRankRwardInfo@@@0@0U_Scalar_ptr_iterator_tag@0@@Z PROC ; std::_Uninit_move<GuildRankRwardInfo *,GuildRankRwardInfo *,GuildRankRwardInfo *>, COMDAT

