; Listing generated by Microsoft (R) Optimizing Compiler Version 16.00.30319.01 

	TITLE	D:\Lost Saga For Developer\Youtube\Tutorial\Source\src\LSClient\ioGuildMarkMgr.cpp
	.686P
	.XMM
	include listing.inc
	.model	flat

INCLUDELIB MSVCRT
INCLUDELIB OLDNAMES

PUBLIC	?ms_Singleton@?$Singleton@VioGuildMarkMgr@@@@1PAVioGuildMarkMgr@@A ; Singleton<ioGuildMarkMgr>::ms_Singleton
;	COMDAT ?ms_Singleton@?$Singleton@VioGuildMarkMgr@@@@1PAVioGuildMarkMgr@@A
_BSS	SEGMENT
?ms_Singleton@?$Singleton@VioGuildMarkMgr@@@@1PAVioGuildMarkMgr@@A DD 01H DUP (?) ; Singleton<ioGuildMarkMgr>::ms_Singleton
_BSS	ENDS
PUBLIC	?Init@CustomMarkData@ioGuildMarkMgr@@QAEXXZ	; ioGuildMarkMgr::CustomMarkData::Init
; Function compile flags: /Ogsp
; File d:\lost saga for developer\youtube\tutorial\source\src\lsclient\ioguildmarkmgr.h
;	COMDAT ?Init@CustomMarkData@ioGuildMarkMgr@@QAEXXZ
_TEXT	SEGMENT
?Init@CustomMarkData@ioGuildMarkMgr@@QAEXXZ PROC	; ioGuildMarkMgr::CustomMarkData::Init, COMDAT
; _this$ = ecx

; 28   : 			m_dwGuildIndex = m_dwGuildMark = 0;

  00000	83 61 04 00	 and	 DWORD PTR [ecx+4], 0
  00004	83 21 00	 and	 DWORD PTR [ecx], 0

; 29   : 		}

  00007	c3		 ret	 0
?Init@CustomMarkData@ioGuildMarkMgr@@QAEXXZ ENDP	; ioGuildMarkMgr::CustomMarkData::Init
_TEXT	ENDS
PUBLIC	?GetMaxReserveMarkIndex@ioGuildMarkMgr@@QAEHXZ	; ioGuildMarkMgr::GetMaxReserveMarkIndex
; Function compile flags: /Ogsp
;	COMDAT ?GetMaxReserveMarkIndex@ioGuildMarkMgr@@QAEHXZ
_TEXT	SEGMENT
?GetMaxReserveMarkIndex@ioGuildMarkMgr@@QAEHXZ PROC	; ioGuildMarkMgr::GetMaxReserveMarkIndex, COMDAT
; _this$ = ecx

; 91   : 	int GetMaxReserveMarkIndex(){ return m_iMaxReserveMarkIndex; }

  00000	8b 41 6c	 mov	 eax, DWORD PTR [ecx+108]
  00003	c3		 ret	 0
?GetMaxReserveMarkIndex@ioGuildMarkMgr@@QAEHXZ ENDP	; ioGuildMarkMgr::GetMaxReserveMarkIndex
_TEXT	ENDS
PUBLIC	??_7ioGuildMarkTask@@6B@			; ioGuildMarkTask::`vftable'
PUBLIC	??0ioGuildMarkTask@@QAE@PBD0KK@Z		; ioGuildMarkTask::ioGuildMarkTask
PUBLIC	??_R4ioGuildMarkTask@@6B@			; ioGuildMarkTask::`RTTI Complete Object Locator'
PUBLIC	??_R0?AVioGuildMarkTask@@@8			; ioGuildMarkTask `RTTI Type Descriptor'
PUBLIC	??_R3ioGuildMarkTask@@8				; ioGuildMarkTask::`RTTI Class Hierarchy Descriptor'
PUBLIC	??_R2ioGuildMarkTask@@8				; ioGuildMarkTask::`RTTI Base Class Array'
PUBLIC	??_R1A@?0A@EA@ioGuildMarkTask@@8		; ioGuildMarkTask::`RTTI Base Class Descriptor at (0,-1,0,64)'
PUBLIC	??_R1A@?0A@EA@IThreadTask@@8			; IThreadTask::`RTTI Base Class Descriptor at (0,-1,0,64)'
PUBLIC	??_R0?AVIThreadTask@@@8				; IThreadTask `RTTI Type Descriptor'
PUBLIC	??_R3IThreadTask@@8				; IThreadTask::`RTTI Class Hierarchy Descriptor'
PUBLIC	??_R2IThreadTask@@8				; IThreadTask::`RTTI Base Class Array'
PUBLIC	?Process@ioGuildMarkTask@@UAEXXZ		; ioGuildMarkTask::Process
PUBLIC	?Done@ioGuildMarkTask@@UAEXXZ			; ioGuildMarkTask::Done
PUBLIC	?GetPriority@ioGuildMarkTask@@UBEHXZ		; ioGuildMarkTask::GetPriority
EXTRN	__imp_??1ioHashString@@QAE@XZ:PROC
EXTRN	__imp_??1IThreadTask@@UAE@XZ:PROC
EXTRN	__imp_??0ioHashString@@QAE@PBD@Z:PROC
EXTRN	__imp_??0IThreadTask@@QAE@XZ:PROC
EXTRN	___CxxFrameHandler3:PROC
EXTRN	@__security_check_cookie@4:PROC
EXTRN	__EH_epilog3:PROC
EXTRN	__EH_prolog3:PROC
EXTRN	??_7type_info@@6B@:QWORD			; type_info::`vftable'
EXTRN	??_EioGuildMarkTask@@UAEPAXI@Z:PROC		; ioGuildMarkTask::`vector deleting destructor'
;	COMDAT ??_R2IThreadTask@@8
; File d:\lost saga for developer\youtube\tutorial\source\src\lsclient\ioguildmarkmgr.cpp
rdata$r	SEGMENT
??_R2IThreadTask@@8 DD FLAT:??_R1A@?0A@EA@IThreadTask@@8 ; IThreadTask::`RTTI Base Class Array'
rdata$r	ENDS
;	COMDAT ??_R3IThreadTask@@8
rdata$r	SEGMENT
??_R3IThreadTask@@8 DD 00H				; IThreadTask::`RTTI Class Hierarchy Descriptor'
	DD	00H
	DD	01H
	DD	FLAT:??_R2IThreadTask@@8
rdata$r	ENDS
;	COMDAT ??_R0?AVIThreadTask@@@8
_DATA	SEGMENT
??_R0?AVIThreadTask@@@8 DD FLAT:??_7type_info@@6B@	; IThreadTask `RTTI Type Descriptor'
	DD	00H
	DB	'.?AVIThreadTask@@', 00H
_DATA	ENDS
;	COMDAT ??_R1A@?0A@EA@IThreadTask@@8
rdata$r	SEGMENT
??_R1A@?0A@EA@IThreadTask@@8 DD FLAT:??_R0?AVIThreadTask@@@8 ; IThreadTask::`RTTI Base Class Descriptor at (0,-1,0,64)'
	DD	00H
	DD	00H
	DD	0ffffffffH
	DD	00H
	DD	040H
	DD	FLAT:??_R3IThreadTask@@8
rdata$r	ENDS
;	COMDAT ??_R1A@?0A@EA@ioGuildMarkTask@@8
rdata$r	SEGMENT
??_R1A@?0A@EA@ioGuildMarkTask@@8 DD FLAT:??_R0?AVioGuildMarkTask@@@8 ; ioGuildMarkTask::`RTTI Base Class Descriptor at (0,-1,0,64)'
	DD	01H
	DD	00H
	DD	0ffffffffH
	DD	00H
	DD	040H
	DD	FLAT:??_R3ioGuildMarkTask@@8
rdata$r	ENDS
;	COMDAT ??_R2ioGuildMarkTask@@8
rdata$r	SEGMENT
??_R2ioGuildMarkTask@@8 DD FLAT:??_R1A@?0A@EA@ioGuildMarkTask@@8 ; ioGuildMarkTask::`RTTI Base Class Array'
	DD	FLAT:??_R1A@?0A@EA@IThreadTask@@8
rdata$r	ENDS
;	COMDAT ??_R3ioGuildMarkTask@@8
rdata$r	SEGMENT
??_R3ioGuildMarkTask@@8 DD 00H				; ioGuildMarkTask::`RTTI Class Hierarchy Descriptor'
	DD	00H
	DD	02H
	DD	FLAT:??_R2ioGuildMarkTask@@8
rdata$r	ENDS
;	COMDAT ??_R0?AVioGuildMarkTask@@@8
_DATA	SEGMENT
??_R0?AVioGuildMarkTask@@@8 DD FLAT:??_7type_info@@6B@	; ioGuildMarkTask `RTTI Type Descriptor'
	DD	00H
	DB	'.?AVioGuildMarkTask@@', 00H
_DATA	ENDS
;	COMDAT ??_R4ioGuildMarkTask@@6B@
rdata$r	SEGMENT
??_R4ioGuildMarkTask@@6B@ DD 00H			; ioGuildMarkTask::`RTTI Complete Object Locator'
	DD	00H
	DD	00H
	DD	FLAT:??_R0?AVioGuildMarkTask@@@8
	DD	FLAT:??_R3ioGuildMarkTask@@8
rdata$r	ENDS
;	COMDAT ??_7ioGuildMarkTask@@6B@
CONST	SEGMENT
??_7ioGuildMarkTask@@6B@ DD FLAT:??_R4ioGuildMarkTask@@6B@ ; ioGuildMarkTask::`vftable'
	DD	FLAT:?Process@ioGuildMarkTask@@UAEXXZ
	DD	FLAT:?Done@ioGuildMarkTask@@UAEXXZ
	DD	FLAT:?GetPriority@ioGuildMarkTask@@UBEHXZ
	DD	FLAT:??_EioGuildMarkTask@@UAEPAXI@Z
CONST	ENDS
;	COMDAT xdata$x
xdata$x	SEGMENT
__unwindtable$??0ioGuildMarkTask@@QAE@PBD0KK@Z DD 0ffffffffH
	DD	FLAT:__unwindfunclet$??0ioGuildMarkTask@@QAE@PBD0KK@Z$0
	DD	00H
	DD	FLAT:__unwindfunclet$??0ioGuildMarkTask@@QAE@PBD0KK@Z$1
__ehfuncinfo$??0ioGuildMarkTask@@QAE@PBD0KK@Z DD 019930522H
	DD	02H
	DD	FLAT:__unwindtable$??0ioGuildMarkTask@@QAE@PBD0KK@Z
	DD	2 DUP(00H)
	DD	2 DUP(00H)
	DD	00H
	DD	01H
; Function compile flags: /Ogsp
xdata$x	ENDS
;	COMDAT ??0ioGuildMarkTask@@QAE@PBD0KK@Z
_TEXT	SEGMENT
_this$ = -16						; size = 4
__$EHRec$ = -12						; size = 12
_szFullName$ = 8					; size = 4
_szFullURL$ = 12					; size = 4
_dwGuildIndex$ = 16					; size = 4
_dwGuildMark$ = 20					; size = 4
??0ioGuildMarkTask@@QAE@PBD0KK@Z PROC			; ioGuildMarkTask::ioGuildMarkTask, COMDAT
; _this$ = ecx

; 38   : {

  00000	6a 04		 push	 4
  00002	b8 00 00 00 00	 mov	 eax, __ehhandler$??0ioGuildMarkTask@@QAE@PBD0KK@Z
  00007	e8 00 00 00 00	 call	 __EH_prolog3
  0000c	8b f1		 mov	 esi, ecx
  0000e	89 75 f0	 mov	 DWORD PTR _this$[ebp], esi
  00011	ff 15 00 00 00
	00		 call	 DWORD PTR __imp_??0IThreadTask@@QAE@XZ
  00017	ff 75 08	 push	 DWORD PTR _szFullName$[ebp]
  0001a	8b 3d 00 00 00
	00		 mov	 edi, DWORD PTR __imp_??0ioHashString@@QAE@PBD@Z
  00020	83 65 fc 00	 and	 DWORD PTR __$EHRec$[ebp+8], 0
  00024	8d 4e 04	 lea	 ecx, DWORD PTR [esi+4]
  00027	c7 06 00 00 00
	00		 mov	 DWORD PTR [esi], OFFSET ??_7ioGuildMarkTask@@6B@
  0002d	ff d7		 call	 edi
  0002f	ff 75 0c	 push	 DWORD PTR _szFullURL$[ebp]
  00032	8d 4e 14	 lea	 ecx, DWORD PTR [esi+20]
  00035	c6 45 fc 01	 mov	 BYTE PTR __$EHRec$[ebp+8], 1
  00039	ff d7		 call	 edi

; 39   : 	m_dwIndex = dwGuildIndex;

  0003b	8b 45 10	 mov	 eax, DWORD PTR _dwGuildIndex$[ebp]
  0003e	89 46 24	 mov	 DWORD PTR [esi+36], eax

; 40   : 	m_dwMark  = dwGuildMark;

  00041	8b 45 14	 mov	 eax, DWORD PTR _dwGuildMark$[ebp]
  00044	89 46 28	 mov	 DWORD PTR [esi+40], eax

; 41   : 	m_bDone = false;

  00047	c6 46 2c 00	 mov	 BYTE PTR [esi+44], 0

; 42   : }

  0004b	8b c6		 mov	 eax, esi
  0004d	e8 00 00 00 00	 call	 __EH_epilog3
  00052	c2 10 00	 ret	 16			; 00000010H
_TEXT	ENDS
;	COMDAT text$x
text$x	SEGMENT
__unwindfunclet$??0ioGuildMarkTask@@QAE@PBD0KK@Z$0:
  00000	8b 4d f0	 mov	 ecx, DWORD PTR _this$[ebp]
  00003	ff 25 00 00 00
	00		 jmp	 DWORD PTR __imp_??1IThreadTask@@UAE@XZ
__unwindfunclet$??0ioGuildMarkTask@@QAE@PBD0KK@Z$1:
  00009	8b 4d f0	 mov	 ecx, DWORD PTR _this$[ebp]
  0000c	83 c1 04	 add	 ecx, 4
  0000f	ff 25 00 00 00
	00		 jmp	 DWORD PTR __imp_??1ioHashString@@QAE@XZ
__ehhandler$??0ioGuildMarkTask@@QAE@PBD0KK@Z:
  00015	8b 54 24 08	 mov	 edx, DWORD PTR [esp+8]
  00019	8d 42 0c	 lea	 eax, DWORD PTR [edx+12]
  0001c	8b 4a ec	 mov	 ecx, DWORD PTR [edx-20]
  0001f	33 c8		 xor	 ecx, eax
  00021	e8 00 00 00 00	 call	 @__security_check_cookie@4
  00026	b8 00 00 00 00	 mov	 eax, OFFSET __ehfuncinfo$??0ioGuildMarkTask@@QAE@PBD0KK@Z
  0002b	e9 00 00 00 00	 jmp	 ___CxxFrameHandler3
text$x	ENDS
??0ioGuildMarkTask@@QAE@PBD0KK@Z ENDP			; ioGuildMarkTask::ioGuildMarkTask
; Function compile flags: /Ogsp
;	COMDAT ?GetPriority@ioGuildMarkTask@@UBEHXZ
_TEXT	SEGMENT
?GetPriority@ioGuildMarkTask@@UBEHXZ PROC		; ioGuildMarkTask::GetPriority, COMDAT
; _this$ = ecx

; 22   : 	virtual int  GetPriority() const { return 1; }

  00000	33 c0		 xor	 eax, eax
  00002	40		 inc	 eax
  00003	c3		 ret	 0
?GetPriority@ioGuildMarkTask@@UBEHXZ ENDP		; ioGuildMarkTask::GetPriority
_TEXT	ENDS
PUBLIC	??1ioGuildMarkTask@@UAE@XZ			; ioGuildMarkTask::~ioGuildMarkTask
;	COMDAT xdata$x
xdata$x	SEGMENT
__unwindtable$??1ioGuildMarkTask@@UAE@XZ DD 0ffffffffH
	DD	FLAT:__unwindfunclet$??1ioGuildMarkTask@@UAE@XZ$0
	DD	00H
	DD	FLAT:__unwindfunclet$??1ioGuildMarkTask@@UAE@XZ$1
__ehfuncinfo$??1ioGuildMarkTask@@UAE@XZ DD 019930522H
	DD	02H
	DD	FLAT:__unwindtable$??1ioGuildMarkTask@@UAE@XZ
	DD	2 DUP(00H)
	DD	2 DUP(00H)
	DD	00H
	DD	01H
; Function compile flags: /Ogsp
xdata$x	ENDS
;	COMDAT ??1ioGuildMarkTask@@UAE@XZ
_TEXT	SEGMENT
_this$ = -16						; size = 4
__$EHRec$ = -12						; size = 12
??1ioGuildMarkTask@@UAE@XZ PROC				; ioGuildMarkTask::~ioGuildMarkTask, COMDAT
; _this$ = ecx

; 45   : {

  00000	6a 04		 push	 4
  00002	b8 00 00 00 00	 mov	 eax, __ehhandler$??1ioGuildMarkTask@@UAE@XZ
  00007	e8 00 00 00 00	 call	 __EH_prolog3
  0000c	8b f1		 mov	 esi, ecx
  0000e	89 75 f0	 mov	 DWORD PTR _this$[ebp], esi
  00011	c7 06 00 00 00
	00		 mov	 DWORD PTR [esi], OFFSET ??_7ioGuildMarkTask@@6B@

; 46   : }

  00017	8b 3d 00 00 00
	00		 mov	 edi, DWORD PTR __imp_??1ioHashString@@QAE@XZ
  0001d	8d 4e 14	 lea	 ecx, DWORD PTR [esi+20]
  00020	c7 45 fc 01 00
	00 00		 mov	 DWORD PTR __$EHRec$[ebp+8], 1
  00027	ff d7		 call	 edi
  00029	8d 4e 04	 lea	 ecx, DWORD PTR [esi+4]
  0002c	c6 45 fc 00	 mov	 BYTE PTR __$EHRec$[ebp+8], 0
  00030	ff d7		 call	 edi
  00032	83 4d fc ff	 or	 DWORD PTR __$EHRec$[ebp+8], -1
  00036	8b ce		 mov	 ecx, esi
  00038	ff 15 00 00 00
	00		 call	 DWORD PTR __imp_??1IThreadTask@@UAE@XZ
  0003e	e8 00 00 00 00	 call	 __EH_epilog3
  00043	c3		 ret	 0
_TEXT	ENDS
;	COMDAT text$x
text$x	SEGMENT
__unwindfunclet$??1ioGuildMarkTask@@UAE@XZ$0:
  00000	8b 4d f0	 mov	 ecx, DWORD PTR _this$[ebp]
  00003	ff 25 00 00 00
	00		 jmp	 DWORD PTR __imp_??1IThreadTask@@UAE@XZ
__unwindfunclet$??1ioGuildMarkTask@@UAE@XZ$1:
  00009	8b 4d f0	 mov	 ecx, DWORD PTR _this$[ebp]
  0000c	83 c1 04	 add	 ecx, 4
  0000f	ff 25 00 00 00
	00		 jmp	 DWORD PTR __imp_??1ioHashString@@QAE@XZ
__ehhandler$??1ioGuildMarkTask@@UAE@XZ:
  00015	8b 54 24 08	 mov	 edx, DWORD PTR [esp+8]
  00019	8d 42 0c	 lea	 eax, DWORD PTR [edx+12]
  0001c	8b 4a ec	 mov	 ecx, DWORD PTR [edx-20]
  0001f	33 c8		 xor	 ecx, eax
  00021	e8 00 00 00 00	 call	 @__security_check_cookie@4
  00026	b8 00 00 00 00	 mov	 eax, OFFSET __ehfuncinfo$??1ioGuildMarkTask@@UAE@XZ
  0002b	e9 00 00 00 00	 jmp	 ___CxxFrameHandler3
text$x	ENDS
??1ioGuildMarkTask@@UAE@XZ ENDP				; ioGuildMarkTask::~ioGuildMarkTask
EXTRN	_URLDownloadToFileA@20:PROC
EXTRN	__imp_?c_str@ioHashString@@QBEPBDXZ:PROC
; Function compile flags: /Ogsp
;	COMDAT ?Process@ioGuildMarkTask@@UAEXXZ
_TEXT	SEGMENT
?Process@ioGuildMarkTask@@UAEXXZ PROC			; ioGuildMarkTask::Process, COMDAT
; _this$ = ecx

; 49   : {

  00000	56		 push	 esi
  00001	8b f1		 mov	 esi, ecx

; 50   : 	HRESULT hr = ::URLDownloadToFile( 0,
; 51   : 									  m_FullURL.c_str(),
; 52   : 									  m_FullName.c_str(),
; 53   : 									  0,
; 54   : 									  NULL );

  00003	6a 00		 push	 0
  00005	6a 00		 push	 0
  00007	8d 4e 04	 lea	 ecx, DWORD PTR [esi+4]
  0000a	ff 15 00 00 00
	00		 call	 DWORD PTR __imp_?c_str@ioHashString@@QBEPBDXZ
  00010	50		 push	 eax
  00011	8d 4e 14	 lea	 ecx, DWORD PTR [esi+20]
  00014	ff 15 00 00 00
	00		 call	 DWORD PTR __imp_?c_str@ioHashString@@QBEPBDXZ
  0001a	50		 push	 eax
  0001b	6a 00		 push	 0
  0001d	e8 00 00 00 00	 call	 _URLDownloadToFileA@20

; 55   : 
; 56   : 	if( FAILED(hr) )

  00022	85 c0		 test	 eax, eax
  00024	0f 99 c0	 setns	 al
  00027	88 46 2c	 mov	 BYTE PTR [esi+44], al
  0002a	5e		 pop	 esi

; 57   : 		m_bDone = false;
; 58   : 	else
; 59   : 		m_bDone = true;
; 60   : }

  0002b	c3		 ret	 0
?Process@ioGuildMarkTask@@UAEXXZ ENDP			; ioGuildMarkTask::Process
_TEXT	ENDS
PUBLIC	?return100@@YAIXZ				; return100
; Function compile flags: /Ogsp
; File d:\lost saga for developer\youtube\tutorial\source\src\lsclient\stdafx.h
;	COMDAT ?return100@@YAIXZ
_TEXT	SEGMENT
?return100@@YAIXZ PROC					; return100, COMDAT

; 25   : 	__forceinline unsigned int return100() { __asm mov eax, 100 };

  00000	b8 64 00 00 00	 mov	 eax, 100		; 00000064H
  00005	c3		 ret	 0
?return100@@YAIXZ ENDP					; return100
_TEXT	ENDS
PUBLIC	??_7bad_alloc@std@@6B@				; std::bad_alloc::`vftable'
PUBLIC	??0bad_alloc@std@@QAE@PBD@Z			; std::bad_alloc::bad_alloc
PUBLIC	??_R4bad_alloc@std@@6B@				; std::bad_alloc::`RTTI Complete Object Locator'
PUBLIC	??_R0?AVbad_alloc@std@@@8			; std::bad_alloc `RTTI Type Descriptor'
PUBLIC	??_R3bad_alloc@std@@8				; std::bad_alloc::`RTTI Class Hierarchy Descriptor'
PUBLIC	??_R2bad_alloc@std@@8				; std::bad_alloc::`RTTI Base Class Array'
PUBLIC	??_R1A@?0A@EA@bad_alloc@std@@8			; std::bad_alloc::`RTTI Base Class Descriptor at (0,-1,0,64)'
PUBLIC	??_R1A@?0A@EA@exception@std@@8			; std::exception::`RTTI Base Class Descriptor at (0,-1,0,64)'
PUBLIC	??_R0?AVexception@std@@@8			; std::exception `RTTI Type Descriptor'
PUBLIC	??_R3exception@std@@8				; std::exception::`RTTI Class Hierarchy Descriptor'
PUBLIC	??_R2exception@std@@8				; std::exception::`RTTI Base Class Array'
EXTRN	__imp_??0exception@std@@QAE@ABQBD@Z:PROC
EXTRN	??_Ebad_alloc@std@@UAEPAXI@Z:PROC		; std::bad_alloc::`vector deleting destructor'
EXTRN	?what@exception@std@@UBEPBDXZ:PROC		; std::exception::what
;	COMDAT ??_R2exception@std@@8
; File c:\program files (x86)\microsoft visual studio 10.0\vc\include\exception
rdata$r	SEGMENT
??_R2exception@std@@8 DD FLAT:??_R1A@?0A@EA@exception@std@@8 ; std::exception::`RTTI Base Class Array'
rdata$r	ENDS
;	COMDAT ??_R3exception@std@@8
rdata$r	SEGMENT
??_R3exception@std@@8 DD 00H				; std::exception::`RTTI Class Hierarchy Descriptor'
	DD	00H
	DD	01H
	DD	FLAT:??_R2exception@std@@8
rdata$r	ENDS
;	COMDAT ??_R0?AVexception@std@@@8
_DATA	SEGMENT
??_R0?AVexception@std@@@8 DD FLAT:??_7type_info@@6B@	; std::exception `RTTI Type Descriptor'
	DD	00H
	DB	'.?AVexception@std@@', 00H
_DATA	ENDS
;	COMDAT ??_R1A@?0A@EA@exception@std@@8
rdata$r	SEGMENT
??_R1A@?0A@EA@exception@std@@8 DD FLAT:??_R0?AVexception@std@@@8 ; std::exception::`RTTI Base Class Descriptor at (0,-1,0,64)'
	DD	00H
	DD	00H
	DD	0ffffffffH
	DD	00H
	DD	040H
	DD	FLAT:??_R3exception@std@@8
rdata$r	ENDS
;	COMDAT ??_R1A@?0A@EA@bad_alloc@std@@8
rdata$r	SEGMENT
??_R1A@?0A@EA@bad_alloc@std@@8 DD FLAT:??_R0?AVbad_alloc@std@@@8 ; std::bad_alloc::`RTTI Base Class Descriptor at (0,-1,0,64)'
	DD	01H
	DD	00H
	DD	0ffffffffH
	DD	00H
	DD	040H
	DD	FLAT:??_R3bad_alloc@std@@8
rdata$r	ENDS
;	COMDAT ??_R2bad_alloc@std@@8
rdata$r	SEGMENT
??_R2bad_alloc@std@@8 DD FLAT:??_R1A@?0A@EA@bad_alloc@std@@8 ; std::bad_alloc::`RTTI Base Class Array'
	DD	FLAT:??_R1A@?0A@EA@exception@std@@8
rdata$r	ENDS
;	COMDAT ??_R3bad_alloc@std@@8
rdata$r	SEGMENT
??_R3bad_alloc@std@@8 DD 00H				; std::bad_alloc::`RTTI Class Hierarchy Descriptor'
	DD	00H
	DD	02H
	DD	FLAT:??_R2bad_alloc@std@@8
rdata$r	ENDS
;	COMDAT ??_R0?AVbad_alloc@std@@@8
_DATA	SEGMENT
??_R0?AVbad_alloc@std@@@8 DD FLAT:??_7type_info@@6B@	; std::bad_alloc `RTTI Type Descriptor'
	DD	00H
	DB	'.?AVbad_alloc@std@@', 00H
_DATA	ENDS
;	COMDAT ??_R4bad_alloc@std@@6B@
rdata$r	SEGMENT
??_R4bad_alloc@std@@6B@ DD 00H				; std::bad_alloc::`RTTI Complete Object Locator'
	DD	00H
	DD	00H
	DD	FLAT:??_R0?AVbad_alloc@std@@@8
	DD	FLAT:??_R3bad_alloc@std@@8
rdata$r	ENDS
;	COMDAT ??_7bad_alloc@std@@6B@
CONST	SEGMENT
??_7bad_alloc@std@@6B@ DD FLAT:??_R4bad_alloc@std@@6B@	; std::bad_alloc::`vftable'
	DD	FLAT:??_Ebad_alloc@std@@UAEPAXI@Z
	DD	FLAT:?what@exception@std@@UBEPBDXZ
; Function compile flags: /Ogsp
CONST	ENDS
;	COMDAT ??0bad_alloc@std@@QAE@PBD@Z
_TEXT	SEGMENT
__Message$ = 8						; size = 4
??0bad_alloc@std@@QAE@PBD@Z PROC			; std::bad_alloc::bad_alloc, COMDAT
; _this$ = ecx

; 345  : 		{	// construct from message string

  00000	55		 push	 ebp
  00001	8b ec		 mov	 ebp, esp
  00003	56		 push	 esi
  00004	8d 45 08	 lea	 eax, DWORD PTR __Message$[ebp]
  00007	50		 push	 eax
  00008	8b f1		 mov	 esi, ecx
  0000a	ff 15 00 00 00
	00		 call	 DWORD PTR __imp_??0exception@std@@QAE@ABQBD@Z
  00010	c7 06 00 00 00
	00		 mov	 DWORD PTR [esi], OFFSET ??_7bad_alloc@std@@6B@

; 346  : 		}

  00016	8b c6		 mov	 eax, esi
  00018	5e		 pop	 esi
  00019	5d		 pop	 ebp
  0001a	c2 04 00	 ret	 4
??0bad_alloc@std@@QAE@PBD@Z ENDP			; std::bad_alloc::bad_alloc
_TEXT	ENDS
PUBLIC	??1bad_alloc@std@@UAE@XZ			; std::bad_alloc::~bad_alloc
EXTRN	__imp_??1exception@std@@UAE@XZ:PROC
; Function compile flags: /Ogsp
;	COMDAT ??1bad_alloc@std@@UAE@XZ
_TEXT	SEGMENT
??1bad_alloc@std@@UAE@XZ PROC				; std::bad_alloc::~bad_alloc, COMDAT
; _this$ = ecx

; 354  : 		{	// destroy the object

  00000	c7 01 00 00 00
	00		 mov	 DWORD PTR [ecx], OFFSET ??_7bad_alloc@std@@6B@

; 355  : 		}

  00006	ff 25 00 00 00
	00		 jmp	 DWORD PTR __imp_??1exception@std@@UAE@XZ
??1bad_alloc@std@@UAE@XZ ENDP				; std::bad_alloc::~bad_alloc
_TEXT	ENDS
EXTRN	??3@YAXPAX@Z:PROC				; operator delete
; Function compile flags: /Ogsp
;	COMDAT ??_Gbad_alloc@std@@UAEPAXI@Z
_TEXT	SEGMENT
___flags$ = 8						; size = 4
??_Gbad_alloc@std@@UAEPAXI@Z PROC			; std::bad_alloc::`scalar deleting destructor', COMDAT
; _this$ = ecx
  00000	55		 push	 ebp
  00001	8b ec		 mov	 ebp, esp
  00003	56		 push	 esi
  00004	8b f1		 mov	 esi, ecx
  00006	c7 06 00 00 00
	00		 mov	 DWORD PTR [esi], OFFSET ??_7bad_alloc@std@@6B@
  0000c	ff 15 00 00 00
	00		 call	 DWORD PTR __imp_??1exception@std@@UAE@XZ
  00012	f6 45 08 01	 test	 BYTE PTR ___flags$[ebp], 1
  00016	74 07		 je	 SHORT $LN1@scalar
  00018	56		 push	 esi
  00019	e8 00 00 00 00	 call	 ??3@YAXPAX@Z		; operator delete
  0001e	59		 pop	 ecx
$LN1@scalar:
  0001f	8b c6		 mov	 eax, esi
  00021	5e		 pop	 esi
  00022	5d		 pop	 ebp
  00023	c2 04 00	 ret	 4
??_Gbad_alloc@std@@UAEPAXI@Z ENDP			; std::bad_alloc::`scalar deleting destructor'
_TEXT	ENDS
PUBLIC	??2@YAPAXIPAX@Z					; operator new
; Function compile flags: /Ogsp
; File c:\program files (x86)\microsoft visual studio 10.0\vc\include\new
;	COMDAT ??2@YAPAXIPAX@Z
_TEXT	SEGMENT
___formal$ = 8						; size = 4
__Where$ = 12						; size = 4
??2@YAPAXIPAX@Z PROC					; operator new, COMDAT

; 56   : 	{	// construct array with placement at _Where

  00000	55		 push	 ebp
  00001	8b ec		 mov	 ebp, esp

; 57   : 	return (_Where);

  00003	8b 45 0c	 mov	 eax, DWORD PTR __Where$[ebp]

; 58   : 	}

  00006	5d		 pop	 ebp
  00007	c3		 ret	 0
??2@YAPAXIPAX@Z ENDP					; operator new
_TEXT	ENDS
PUBLIC	??3@YAXPAX0@Z					; operator delete
; Function compile flags: /Ogsp
;	COMDAT ??3@YAXPAX0@Z
_TEXT	SEGMENT
___formal$ = 8						; size = 4
___formal$ = 12						; size = 4
??3@YAXPAX0@Z PROC					; operator delete, COMDAT

; 62   : 	}

  00000	c3		 ret	 0
??3@YAXPAX0@Z ENDP					; operator delete
_TEXT	ENDS
PUBLIC	?_Adopt@_Iterator_base0@std@@QAEXPBX@Z		; std::_Iterator_base0::_Adopt
; Function compile flags: /Ogsp
; File c:\program files (x86)\microsoft visual studio 10.0\vc\include\xutility
;	COMDAT ?_Adopt@_Iterator_base0@std@@QAEXPBX@Z
_TEXT	SEGMENT
___formal$ = 8						; size = 4
?_Adopt@_Iterator_base0@std@@QAEXPBX@Z PROC		; std::_Iterator_base0::_Adopt, COMDAT
; _this$ = ecx

; 49   : 		}

  00000	c2 04 00	 ret	 4
?_Adopt@_Iterator_base0@std@@QAEXPBX@Z ENDP		; std::_Iterator_base0::_Adopt
_TEXT	ENDS
PUBLIC	?_Getcont@_Iterator_base0@std@@QBEPBU_Container_base0@2@XZ ; std::_Iterator_base0::_Getcont
; Function compile flags: /Ogsp
;	COMDAT ?_Getcont@_Iterator_base0@std@@QBEPBU_Container_base0@2@XZ
_TEXT	SEGMENT
?_Getcont@_Iterator_base0@std@@QBEPBU_Container_base0@2@XZ PROC ; std::_Iterator_base0::_Getcont, COMDAT
; _this$ = ecx

; 53   : 		return (0);

  00000	33 c0		 xor	 eax, eax

; 54   : 		}

  00002	c3		 ret	 0
?_Getcont@_Iterator_base0@std@@QBEPBU_Container_base0@2@XZ ENDP ; std::_Iterator_base0::_Getcont
_TEXT	ENDS
PUBLIC	??1ioINILoader_e@@QAE@XZ			; ioINILoader_e::~ioINILoader_e
EXTRN	__imp_??1ioINILoader@@QAE@XZ:PROC
; Function compile flags: /Ogsp
;	COMDAT ??1ioINILoader_e@@QAE@XZ
_TEXT	SEGMENT
??1ioINILoader_e@@QAE@XZ PROC				; ioINILoader_e::~ioINILoader_e, COMDAT
; _this$ = ecx
  00000	ff 25 00 00 00
	00		 jmp	 DWORD PTR __imp_??1ioINILoader@@QAE@XZ
??1ioINILoader_e@@QAE@XZ ENDP				; ioINILoader_e::~ioINILoader_e
_TEXT	ENDS
PUBLIC	?RenderSmallMarkOutImg@ioGuildMarkMgr@@QAEXPAVioUIRenderImage@@MMW4UIRenderType@@@Z ; ioGuildMarkMgr::RenderSmallMarkOutImg
EXTRN	__fltused:DWORD
; Function compile flags: /Ogsp
; File d:\lost saga for developer\youtube\tutorial\source\src\lsclient\ioguildmarkmgr.cpp
;	COMDAT ?RenderSmallMarkOutImg@ioGuildMarkMgr@@QAEXPAVioUIRenderImage@@MMW4UIRenderType@@@Z
_TEXT	SEGMENT
_m_pImg$ = 8						; size = 4
_fXPos$ = 12						; size = 4
_fYPos$ = 16						; size = 4
_eRenderType$ = 20					; size = 4
?RenderSmallMarkOutImg@ioGuildMarkMgr@@QAEXPAVioUIRenderImage@@MMW4UIRenderType@@@Z PROC ; ioGuildMarkMgr::RenderSmallMarkOutImg, COMDAT
; _this$ = ecx

; 620  : {

  00000	55		 push	 ebp
  00001	8b ec		 mov	 ebp, esp

; 621  : 	if( m_pImg )

  00003	8b 4d 08	 mov	 ecx, DWORD PTR _m_pImg$[ebp]
  00006	33 c0		 xor	 eax, eax
  00008	3b c8		 cmp	 ecx, eax
  0000a	74 21		 je	 SHORT $LN1@RenderSmal

; 622  : 		m_pImg->Render( fXPos, fYPos, eRenderType );

  0000c	f3 0f 10 45 10	 movss	 xmm0, DWORD PTR _fYPos$[ebp]
  00011	8b 11		 mov	 edx, DWORD PTR [ecx]
  00013	50		 push	 eax
  00014	50		 push	 eax
  00015	50		 push	 eax
  00016	ff 75 14	 push	 DWORD PTR _eRenderType$[ebp]
  00019	51		 push	 ecx
  0001a	51		 push	 ecx
  0001b	f3 0f 11 44 24
	04		 movss	 DWORD PTR [esp+4], xmm0
  00021	f3 0f 10 45 0c	 movss	 xmm0, DWORD PTR _fXPos$[ebp]
  00026	f3 0f 11 04 24	 movss	 DWORD PTR [esp], xmm0
  0002b	ff 12		 call	 DWORD PTR [edx]
$LN1@RenderSmal:

; 623  : }

  0002d	5d		 pop	 ebp
  0002e	c2 10 00	 ret	 16			; 00000010H
?RenderSmallMarkOutImg@ioGuildMarkMgr@@QAEXPAVioUIRenderImage@@MMW4UIRenderType@@@Z ENDP ; ioGuildMarkMgr::RenderSmallMarkOutImg
_TEXT	ENDS
PUBLIC	?RenderMark96x96OutImg@ioGuildMarkMgr@@QAEXPAVioUIRenderImage@@MMW4UIRenderType@@@Z ; ioGuildMarkMgr::RenderMark96x96OutImg
; Function compile flags: /Ogsp
;	COMDAT ?RenderMark96x96OutImg@ioGuildMarkMgr@@QAEXPAVioUIRenderImage@@MMW4UIRenderType@@@Z
_TEXT	SEGMENT
_m_pImg$ = 8						; size = 4
_fXPos$ = 12						; size = 4
_fYPos$ = 16						; size = 4
_eRenderType$ = 20					; size = 4
?RenderMark96x96OutImg@ioGuildMarkMgr@@QAEXPAVioUIRenderImage@@MMW4UIRenderType@@@Z PROC ; ioGuildMarkMgr::RenderMark96x96OutImg, COMDAT
; _this$ = ecx

; 686  : {

  00000	55		 push	 ebp
  00001	8b ec		 mov	 ebp, esp
  00003	56		 push	 esi

; 687  : 	if( m_pImg )

  00004	8b 75 08	 mov	 esi, DWORD PTR _m_pImg$[ebp]
  00007	85 f6		 test	 esi, esi
  00009	74 31		 je	 SHORT $LN1@RenderMark

; 688  : 	{
; 689  : 		m_pImg->SetSize( 96, 96 );

  0000b	8b 06		 mov	 eax, DWORD PTR [esi]
  0000d	6a 60		 push	 96			; 00000060H
  0000f	6a 60		 push	 96			; 00000060H
  00011	8b ce		 mov	 ecx, esi
  00013	ff 50 10	 call	 DWORD PTR [eax+16]

; 690  : 		m_pImg->Render( fXPos, fYPos, eRenderType, TFO_BILINEAR );

  00016	f3 0f 10 45 10	 movss	 xmm0, DWORD PTR _fYPos$[ebp]
  0001b	8b 06		 mov	 eax, DWORD PTR [esi]
  0001d	6a 00		 push	 0
  0001f	6a 00		 push	 0
  00021	6a 01		 push	 1
  00023	ff 75 14	 push	 DWORD PTR _eRenderType$[ebp]
  00026	51		 push	 ecx
  00027	51		 push	 ecx
  00028	f3 0f 11 44 24
	04		 movss	 DWORD PTR [esp+4], xmm0
  0002e	f3 0f 10 45 0c	 movss	 xmm0, DWORD PTR _fXPos$[ebp]
  00033	8b ce		 mov	 ecx, esi
  00035	f3 0f 11 04 24	 movss	 DWORD PTR [esp], xmm0
  0003a	ff 10		 call	 DWORD PTR [eax]
$LN1@RenderMark:
  0003c	5e		 pop	 esi

; 691  : 	}
; 692  : }

  0003d	5d		 pop	 ebp
  0003e	c2 10 00	 ret	 16			; 00000010H
?RenderMark96x96OutImg@ioGuildMarkMgr@@QAEXPAVioUIRenderImage@@MMW4UIRenderType@@@Z ENDP ; ioGuildMarkMgr::RenderMark96x96OutImg
_TEXT	ENDS
PUBLIC	??0?$Singleton@VioGuildMarkMgr@@@@QAE@XZ	; Singleton<ioGuildMarkMgr>::Singleton<ioGuildMarkMgr>
; Function compile flags: /Ogsp
; File d:\lost saga for developer\youtube\tutorial\source\src\io3dengine\iosingleton.h
;	COMDAT ??0?$Singleton@VioGuildMarkMgr@@@@QAE@XZ
_TEXT	SEGMENT
??0?$Singleton@VioGuildMarkMgr@@@@QAE@XZ PROC		; Singleton<ioGuildMarkMgr>::Singleton<ioGuildMarkMgr>, COMDAT
; _this$ = ecx

; 27   : 	Singleton()

  00000	8b c1		 mov	 eax, ecx

; 28   : 	{
; 29   : 		assert( !ms_Singleton );
; 30   : 		int offset = (int)(T*)1 - (int)(Singleton <T>*)(T*)1;
; 31   : 		ms_Singleton = (T*)((int)this + offset);

  00002	8d 48 fc	 lea	 ecx, DWORD PTR [eax-4]
  00005	89 0d 00 00 00
	00		 mov	 DWORD PTR ?ms_Singleton@?$Singleton@VioGuildMarkMgr@@@@1PAVioGuildMarkMgr@@A, ecx ; Singleton<ioGuildMarkMgr>::ms_Singleton

; 32   : 	}

  0000b	c3		 ret	 0
??0?$Singleton@VioGuildMarkMgr@@@@QAE@XZ ENDP		; Singleton<ioGuildMarkMgr>::Singleton<ioGuildMarkMgr>
_TEXT	ENDS
PUBLIC	??1?$Singleton@VioGuildMarkMgr@@@@QAE@XZ	; Singleton<ioGuildMarkMgr>::~Singleton<ioGuildMarkMgr>
; Function compile flags: /Ogsp
;	COMDAT ??1?$Singleton@VioGuildMarkMgr@@@@QAE@XZ
_TEXT	SEGMENT
??1?$Singleton@VioGuildMarkMgr@@@@QAE@XZ PROC		; Singleton<ioGuildMarkMgr>::~Singleton<ioGuildMarkMgr>, COMDAT
; _this$ = ecx

; 36   : 		assert( ms_Singleton );
; 37   : 		ms_Singleton = 0;

  00000	83 25 00 00 00
	00 00		 and	 DWORD PTR ?ms_Singleton@?$Singleton@VioGuildMarkMgr@@@@1PAVioGuildMarkMgr@@A, 0 ; Singleton<ioGuildMarkMgr>::ms_Singleton

; 38   : 	}

  00007	c3		 ret	 0
??1?$Singleton@VioGuildMarkMgr@@@@QAE@XZ ENDP		; Singleton<ioGuildMarkMgr>::~Singleton<ioGuildMarkMgr>
_TEXT	ENDS
PUBLIC	?GetSingleton@?$Singleton@VioGuildMarkMgr@@@@SAAAVioGuildMarkMgr@@XZ ; Singleton<ioGuildMarkMgr>::GetSingleton
; Function compile flags: /Ogsp
;	COMDAT ?GetSingleton@?$Singleton@VioGuildMarkMgr@@@@SAAAVioGuildMarkMgr@@XZ
_TEXT	SEGMENT
?GetSingleton@?$Singleton@VioGuildMarkMgr@@@@SAAAVioGuildMarkMgr@@XZ PROC ; Singleton<ioGuildMarkMgr>::GetSingleton, COMDAT

; 42   : 		assert( ms_Singleton );
; 43   : 		return (*ms_Singleton);

  00000	a1 00 00 00 00	 mov	 eax, DWORD PTR ?ms_Singleton@?$Singleton@VioGuildMarkMgr@@@@1PAVioGuildMarkMgr@@A ; Singleton<ioGuildMarkMgr>::ms_Singleton

; 44   : 	}

  00005	c3		 ret	 0
?GetSingleton@?$Singleton@VioGuildMarkMgr@@@@SAAAVioGuildMarkMgr@@XZ ENDP ; Singleton<ioGuildMarkMgr>::GetSingleton
_TEXT	ENDS
PUBLIC	?empty@?$vector@PAUCustomMarkData@ioGuildMarkMgr@@V?$allocator@PAUCustomMarkData@ioGuildMarkMgr@@@std@@@std@@QBE_NXZ ; std::vector<ioGuildMarkMgr::CustomMarkData *,std::allocator<ioGuildMarkMgr::CustomMarkData *> >::empty
; Function compile flags: /Ogsp
; File c:\program files (x86)\microsoft visual studio 10.0\vc\include\vector
;	COMDAT ?empty@?$vector@PAUCustomMarkData@ioGuildMarkMgr@@V?$allocator@PAUCustomMarkData@ioGuildMarkMgr@@@std@@@std@@QBE_NXZ
_TEXT	SEGMENT
?empty@?$vector@PAUCustomMarkData@ioGuildMarkMgr@@V?$allocator@PAUCustomMarkData@ioGuildMarkMgr@@@std@@@std@@QBE_NXZ PROC ; std::vector<ioGuildMarkMgr::CustomMarkData *,std::allocator<ioGuildMarkMgr::CustomMarkData *> >::empty, COMDAT
; _this$ = ecx

; 889  : 		return (this->_Myfirst == this->_Mylast);

  00000	8b 01		 mov	 eax, DWORD PTR [ecx]
  00002	2b 41 04	 sub	 eax, DWORD PTR [ecx+4]
  00005	f7 d8		 neg	 eax
  00007	1b c0		 sbb	 eax, eax
  00009	40		 inc	 eax

; 890  : 		}

  0000a	c3		 ret	 0
?empty@?$vector@PAUCustomMarkData@ioGuildMarkMgr@@V?$allocator@PAUCustomMarkData@ioGuildMarkMgr@@@std@@@std@@QBE_NXZ ENDP ; std::vector<ioGuildMarkMgr::CustomMarkData *,std::allocator<ioGuildMarkMgr::CustomMarkData *> >::empty
_TEXT	ENDS
PUBLIC	??R?$less@K@std@@QBE_NABK0@Z			; std::less<unsigned long>::operator()
; Function compile flags: /Ogsp
; File c:\program files (x86)\microsoft visual studio 10.0\vc\include\xfunctional
;	COMDAT ??R?$less@K@std@@QBE_NABK0@Z
_TEXT	SEGMENT
__Left$ = 8						; size = 4
__Right$ = 12						; size = 4
??R?$less@K@std@@QBE_NABK0@Z PROC			; std::less<unsigned long>::operator(), COMDAT
; _this$ = ecx

; 124  : 		{	// apply operator< to operands

  00000	55		 push	 ebp
  00001	8b ec		 mov	 ebp, esp

; 125  : 		return (_Left < _Right);

  00003	8b 45 08	 mov	 eax, DWORD PTR __Left$[ebp]
  00006	8b 00		 mov	 eax, DWORD PTR [eax]
  00008	8b 4d 0c	 mov	 ecx, DWORD PTR __Right$[ebp]
  0000b	3b 01		 cmp	 eax, DWORD PTR [ecx]
  0000d	1b c0		 sbb	 eax, eax
  0000f	f7 d8		 neg	 eax

; 126  : 		}

  00011	5d		 pop	 ebp
  00012	c2 08 00	 ret	 8
??R?$less@K@std@@QBE_NABK0@Z ENDP			; std::less<unsigned long>::operator()
_TEXT	ENDS
PUBLIC	??0?$allocator@U?$pair@$$CBKPAVioUIRenderImage@@@std@@@std@@QAE@XZ ; std::allocator<std::pair<unsigned long const ,ioUIRenderImage *> >::allocator<std::pair<unsigned long const ,ioUIRenderImage *> >
; Function compile flags: /Ogsp
; File c:\program files (x86)\microsoft visual studio 10.0\vc\include\xmemory
;	COMDAT ??0?$allocator@U?$pair@$$CBKPAVioUIRenderImage@@@std@@@std@@QAE@XZ
_TEXT	SEGMENT
??0?$allocator@U?$pair@$$CBKPAVioUIRenderImage@@@std@@@std@@QAE@XZ PROC ; std::allocator<std::pair<unsigned long const ,ioUIRenderImage *> >::allocator<std::pair<unsigned long const ,ioUIRenderImage *> >, COMDAT
; _this$ = ecx

; 161  : 	_ALLOCATOR() _THROW0()

  00000	8b c1		 mov	 eax, ecx

; 162  : 		{	// construct default allocator (do nothing)
; 163  : 		}

  00002	c3		 ret	 0
??0?$allocator@U?$pair@$$CBKPAVioUIRenderImage@@@std@@@std@@QAE@XZ ENDP ; std::allocator<std::pair<unsigned long const ,ioUIRenderImage *> >::allocator<std::pair<unsigned long const ,ioUIRenderImage *> >
_TEXT	ENDS
PUBLIC	?_Inside@?$vector@PAUCustomMarkData@ioGuildMarkMgr@@V?$allocator@PAUCustomMarkData@ioGuildMarkMgr@@@std@@@std@@IBE_NPBQAUCustomMarkData@ioGuildMarkMgr@@@Z ; std::vector<ioGuildMarkMgr::CustomMarkData *,std::allocator<ioGuildMarkMgr::CustomMarkData *> >::_Inside
; Function compile flags: /Ogsp
; File c:\program files (x86)\microsoft visual studio 10.0\vc\include\vector
;	COMDAT ?_Inside@?$vector@PAUCustomMarkData@ioGuildMarkMgr@@V?$allocator@PAUCustomMarkData@ioGuildMarkMgr@@@std@@@std@@IBE_NPBQAUCustomMarkData@ioGuildMarkMgr@@@Z
_TEXT	SEGMENT
__Ptr$ = 8						; size = 4
?_Inside@?$vector@PAUCustomMarkData@ioGuildMarkMgr@@V?$allocator@PAUCustomMarkData@ioGuildMarkMgr@@@std@@@std@@IBE_NPBQAUCustomMarkData@ioGuildMarkMgr@@@Z PROC ; std::vector<ioGuildMarkMgr::CustomMarkData *,std::allocator<ioGuildMarkMgr::CustomMarkData *> >::_Inside, COMDAT
; _this$ = ecx

; 1285 : 		{	// test if _Ptr points inside vector

  00000	55		 push	 ebp
  00001	8b ec		 mov	 ebp, esp

; 1286 : 		return (_Ptr < this->_Mylast && this->_Myfirst <= _Ptr);

  00003	8b 45 08	 mov	 eax, DWORD PTR __Ptr$[ebp]
  00006	3b 41 04	 cmp	 eax, DWORD PTR [ecx+4]
  00009	73 09		 jae	 SHORT $LN3@Inside
  0000b	39 01		 cmp	 DWORD PTR [ecx], eax
  0000d	77 05		 ja	 SHORT $LN3@Inside
  0000f	33 c0		 xor	 eax, eax
  00011	40		 inc	 eax
  00012	eb 02		 jmp	 SHORT $LN4@Inside
$LN3@Inside:
  00014	33 c0		 xor	 eax, eax
$LN4@Inside:

; 1287 : 		}

  00016	5d		 pop	 ebp
  00017	c2 04 00	 ret	 4
?_Inside@?$vector@PAUCustomMarkData@ioGuildMarkMgr@@V?$allocator@PAUCustomMarkData@ioGuildMarkMgr@@@std@@@std@@IBE_NPBQAUCustomMarkData@ioGuildMarkMgr@@@Z ENDP ; std::vector<ioGuildMarkMgr::CustomMarkData *,std::allocator<ioGuildMarkMgr::CustomMarkData *> >::_Inside
_TEXT	ENDS
PUBLIC	?_Orphan_range@?$vector@PAUCustomMarkData@ioGuildMarkMgr@@V?$allocator@PAUCustomMarkData@ioGuildMarkMgr@@@std@@@std@@IBEXPAPAUCustomMarkData@ioGuildMarkMgr@@0@Z ; std::vector<ioGuildMarkMgr::CustomMarkData *,std::allocator<ioGuildMarkMgr::CustomMarkData *> >::_Orphan_range
; Function compile flags: /Ogsp
;	COMDAT ?_Orphan_range@?$vector@PAUCustomMarkData@ioGuildMarkMgr@@V?$allocator@PAUCustomMarkData@ioGuildMarkMgr@@@std@@@std@@IBEXPAPAUCustomMarkData@ioGuildMarkMgr@@0@Z
_TEXT	SEGMENT
___formal$ = 8						; size = 4
___formal$ = 12						; size = 4
?_Orphan_range@?$vector@PAUCustomMarkData@ioGuildMarkMgr@@V?$allocator@PAUCustomMarkData@ioGuildMarkMgr@@@std@@@std@@IBEXPAPAUCustomMarkData@ioGuildMarkMgr@@0@Z PROC ; std::vector<ioGuildMarkMgr::CustomMarkData *,std::allocator<ioGuildMarkMgr::CustomMarkData *> >::_Orphan_range, COMDAT
; _this$ = ecx

; 1454 : 		}

  00000	c2 08 00	 ret	 8
?_Orphan_range@?$vector@PAUCustomMarkData@ioGuildMarkMgr@@V?$allocator@PAUCustomMarkData@ioGuildMarkMgr@@@std@@@std@@IBEXPAPAUCustomMarkData@ioGuildMarkMgr@@0@Z ENDP ; std::vector<ioGuildMarkMgr::CustomMarkData *,std::allocator<ioGuildMarkMgr::CustomMarkData *> >::_Orphan_range
_TEXT	ENDS
PUBLIC	??1?$_Vector_val@PAUCustomMarkData@ioGuildMarkMgr@@V?$allocator@PAUCustomMarkData@ioGuildMarkMgr@@@std@@@std@@QAE@XZ ; std::_Vector_val<ioGuildMarkMgr::CustomMarkData *,std::allocator<ioGuildMarkMgr::CustomMarkData *> >::~_Vector_val<ioGuildMarkMgr::CustomMarkData *,std::allocator<ioGuildMarkMgr::CustomMarkData *> >
; Function compile flags: /Ogsp
;	COMDAT ??1?$_Vector_val@PAUCustomMarkData@ioGuildMarkMgr@@V?$allocator@PAUCustomMarkData@ioGuildMarkMgr@@@std@@@std@@QAE@XZ
_TEXT	SEGMENT
??1?$_Vector_val@PAUCustomMarkData@ioGuildMarkMgr@@V?$allocator@PAUCustomMarkData@ioGuildMarkMgr@@@std@@@std@@QAE@XZ PROC ; std::_Vector_val<ioGuildMarkMgr::CustomMarkData *,std::allocator<ioGuildMarkMgr::CustomMarkData *> >::~_Vector_val<ioGuildMarkMgr::CustomMarkData *,std::allocator<ioGuildMarkMgr::CustomMarkData *> >, COMDAT
; _this$ = ecx

; 434  : 		}

  00000	c3		 ret	 0
??1?$_Vector_val@PAUCustomMarkData@ioGuildMarkMgr@@V?$allocator@PAUCustomMarkData@ioGuildMarkMgr@@@std@@@std@@QAE@XZ ENDP ; std::_Vector_val<ioGuildMarkMgr::CustomMarkData *,std::allocator<ioGuildMarkMgr::CustomMarkData *> >::~_Vector_val<ioGuildMarkMgr::CustomMarkData *,std::allocator<ioGuildMarkMgr::CustomMarkData *> >
_TEXT	ENDS
PUBLIC	??0?$allocator@PAUCustomMarkData@ioGuildMarkMgr@@@std@@QAE@XZ ; std::allocator<ioGuildMarkMgr::CustomMarkData *>::allocator<ioGuildMarkMgr::CustomMarkData *>
; Function compile flags: /Ogsp
; File c:\program files (x86)\microsoft visual studio 10.0\vc\include\xmemory
;	COMDAT ??0?$allocator@PAUCustomMarkData@ioGuildMarkMgr@@@std@@QAE@XZ
_TEXT	SEGMENT
??0?$allocator@PAUCustomMarkData@ioGuildMarkMgr@@@std@@QAE@XZ PROC ; std::allocator<ioGuildMarkMgr::CustomMarkData *>::allocator<ioGuildMarkMgr::CustomMarkData *>, COMDAT
; _this$ = ecx

; 161  : 	_ALLOCATOR() _THROW0()

  00000	8b c1		 mov	 eax, ecx

; 162  : 		{	// construct default allocator (do nothing)
; 163  : 		}

  00002	c3		 ret	 0
??0?$allocator@PAUCustomMarkData@ioGuildMarkMgr@@@std@@QAE@XZ ENDP ; std::allocator<ioGuildMarkMgr::CustomMarkData *>::allocator<ioGuildMarkMgr::CustomMarkData *>
_TEXT	ENDS
PUBLIC	?_Nextnode@?$_List_val@KV?$allocator@K@std@@@std@@SAAAPAU_Node@?$_List_nod@KV?$allocator@K@std@@@2@PAU342@@Z ; std::_List_val<unsigned long,std::allocator<unsigned long> >::_Nextnode
; Function compile flags: /Ogsp
; File c:\program files (x86)\microsoft visual studio 10.0\vc\include\list
;	COMDAT ?_Nextnode@?$_List_val@KV?$allocator@K@std@@@std@@SAAAPAU_Node@?$_List_nod@KV?$allocator@K@std@@@2@PAU342@@Z
_TEXT	SEGMENT
__Pnode$ = 8						; size = 4
?_Nextnode@?$_List_val@KV?$allocator@K@std@@@std@@SAAAPAU_Node@?$_List_nod@KV?$allocator@K@std@@@2@PAU342@@Z PROC ; std::_List_val<unsigned long,std::allocator<unsigned long> >::_Nextnode, COMDAT

; 560  : 		{	// return reference to successor pointer in node

  00000	55		 push	 ebp
  00001	8b ec		 mov	 ebp, esp

; 561  : 		return ((_Nodepref)(*_Pnode)._Next);

  00003	8b 45 08	 mov	 eax, DWORD PTR __Pnode$[ebp]

; 562  : 		}

  00006	5d		 pop	 ebp
  00007	c3		 ret	 0
?_Nextnode@?$_List_val@KV?$allocator@K@std@@@std@@SAAAPAU_Node@?$_List_nod@KV?$allocator@K@std@@@2@PAU342@@Z ENDP ; std::_List_val<unsigned long,std::allocator<unsigned long> >::_Nextnode
_TEXT	ENDS
PUBLIC	?deallocate@?$allocator@U_Node@?$_List_nod@KV?$allocator@K@std@@@std@@@std@@QAEXPAU_Node@?$_List_nod@KV?$allocator@K@std@@@2@I@Z ; std::allocator<std::_List_nod<unsigned long,std::allocator<unsigned long> >::_Node>::deallocate
; Function compile flags: /Ogsp
; File c:\program files (x86)\microsoft visual studio 10.0\vc\include\xmemory
;	COMDAT ?deallocate@?$allocator@U_Node@?$_List_nod@KV?$allocator@K@std@@@std@@@std@@QAEXPAU_Node@?$_List_nod@KV?$allocator@K@std@@@2@I@Z
_TEXT	SEGMENT
__Ptr$ = 8						; size = 4
___formal$ = 12						; size = 4
?deallocate@?$allocator@U_Node@?$_List_nod@KV?$allocator@K@std@@@std@@@std@@QAEXPAU_Node@?$_List_nod@KV?$allocator@K@std@@@2@I@Z PROC ; std::allocator<std::_List_nod<unsigned long,std::allocator<unsigned long> >::_Node>::deallocate, COMDAT
; _this$ = ecx

; 181  : 		{	// deallocate object at _Ptr, ignore size

  00000	55		 push	 ebp
  00001	8b ec		 mov	 ebp, esp

; 182  : 		::operator delete(_Ptr);

  00003	ff 75 08	 push	 DWORD PTR __Ptr$[ebp]
  00006	e8 00 00 00 00	 call	 ??3@YAXPAX@Z		; operator delete
  0000b	59		 pop	 ecx

; 183  : 		}

  0000c	5d		 pop	 ebp
  0000d	c2 08 00	 ret	 8
?deallocate@?$allocator@U_Node@?$_List_nod@KV?$allocator@K@std@@@std@@@std@@QAEXPAU_Node@?$_List_nod@KV?$allocator@K@std@@@2@I@Z ENDP ; std::allocator<std::_List_nod<unsigned long,std::allocator<unsigned long> >::_Node>::deallocate
_TEXT	ENDS
PUBLIC	??8?$_List_const_iterator@V?$_List_val@KV?$allocator@K@std@@@std@@@std@@QBE_NABV01@@Z ; std::_List_const_iterator<std::_List_val<unsigned long,std::allocator<unsigned long> > >::operator==
; Function compile flags: /Ogsp
; File c:\program files (x86)\microsoft visual studio 10.0\vc\include\list
;	COMDAT ??8?$_List_const_iterator@V?$_List_val@KV?$allocator@K@std@@@std@@@std@@QBE_NABV01@@Z
_TEXT	SEGMENT
__Right$ = 8						; size = 4
??8?$_List_const_iterator@V?$_List_val@KV?$allocator@K@std@@@std@@@std@@QBE_NABV01@@Z PROC ; std::_List_const_iterator<std::_List_val<unsigned long,std::allocator<unsigned long> > >::operator==, COMDAT
; _this$ = ecx

; 281  : 		{	// test for iterator equality

  00000	55		 push	 ebp
  00001	8b ec		 mov	 ebp, esp

; 282  :  #if _ITERATOR_DEBUG_LEVEL == 2
; 283  : 		if (this->_Getcont() == 0
; 284  : 			|| this->_Getcont() != _Right._Getcont())
; 285  : 			{	// report error
; 286  : 			_DEBUG_ERROR("list iterators incompatible");
; 287  : 			_SCL_SECURE_INVALID_ARGUMENT;
; 288  : 			}
; 289  : 
; 290  :  #elif _ITERATOR_DEBUG_LEVEL == 1
; 291  : 		_SCL_SECURE_VALIDATE(this->_Getcont() != 0
; 292  : 			&& this->_Getcont() == _Right._Getcont());
; 293  :  #endif /* _ITERATOR_DEBUG_LEVEL */
; 294  : 
; 295  : 		return (this->_Ptr == _Right._Ptr);

  00003	8b 01		 mov	 eax, DWORD PTR [ecx]
  00005	8b 4d 08	 mov	 ecx, DWORD PTR __Right$[ebp]
  00008	2b 01		 sub	 eax, DWORD PTR [ecx]
  0000a	f7 d8		 neg	 eax
  0000c	1b c0		 sbb	 eax, eax
  0000e	40		 inc	 eax

; 296  : 		}

  0000f	5d		 pop	 ebp
  00010	c2 04 00	 ret	 4
??8?$_List_const_iterator@V?$_List_val@KV?$allocator@K@std@@@std@@@std@@QBE_NABV01@@Z ENDP ; std::_List_const_iterator<std::_List_val<unsigned long,std::allocator<unsigned long> > >::operator==
_TEXT	ENDS
PUBLIC	??8?$_Tree_const_iterator@V?$_Tree_val@V?$_Tmap_traits@KPAVioUIRenderImage@@U?$less@K@std@@V?$allocator@U?$pair@$$CBKPAVioUIRenderImage@@@std@@@3@$0A@@std@@@std@@@std@@QBE_NABV01@@Z ; std::_Tree_const_iterator<std::_Tree_val<std::_Tmap_traits<unsigned long,ioUIRenderImage *,std::less<unsigned long>,std::allocator<std::pair<unsigned long const ,ioUIRenderImage *> >,0> > >::operator==
; Function compile flags: /Ogsp
; File c:\program files (x86)\microsoft visual studio 10.0\vc\include\xtree
;	COMDAT ??8?$_Tree_const_iterator@V?$_Tree_val@V?$_Tmap_traits@KPAVioUIRenderImage@@U?$less@K@std@@V?$allocator@U?$pair@$$CBKPAVioUIRenderImage@@@std@@@3@$0A@@std@@@std@@@std@@QBE_NABV01@@Z
_TEXT	SEGMENT
__Right$ = 8						; size = 4
??8?$_Tree_const_iterator@V?$_Tree_val@V?$_Tmap_traits@KPAVioUIRenderImage@@U?$less@K@std@@V?$allocator@U?$pair@$$CBKPAVioUIRenderImage@@@std@@@3@$0A@@std@@@std@@@std@@QBE_NABV01@@Z PROC ; std::_Tree_const_iterator<std::_Tree_val<std::_Tmap_traits<unsigned long,ioUIRenderImage *,std::less<unsigned long>,std::allocator<std::pair<unsigned long const ,ioUIRenderImage *> >,0> > >::operator==, COMDAT
; _this$ = ecx

; 316  : 		{	// test for iterator equality

  00000	55		 push	 ebp
  00001	8b ec		 mov	 ebp, esp

; 317  :  #if _ITERATOR_DEBUG_LEVEL == 2
; 318  : 		if (this->_Getcont() == 0
; 319  : 			|| this->_Getcont() != _Right._Getcont())
; 320  : 			{	// report error
; 321  : 			_DEBUG_ERROR("map/set iterators incompatible");
; 322  : 			_SCL_SECURE_INVALID_ARGUMENT;
; 323  : 			}
; 324  : 
; 325  :  #elif _ITERATOR_DEBUG_LEVEL == 1
; 326  : 		_SCL_SECURE_VALIDATE(this->_Getcont() != 0
; 327  : 			&& this->_Getcont() == _Right._Getcont());
; 328  :  #endif /* _ITERATOR_DEBUG_LEVEL */
; 329  : 
; 330  : 		return (this->_Ptr == _Right._Ptr);

  00003	8b 01		 mov	 eax, DWORD PTR [ecx]
  00005	8b 4d 08	 mov	 ecx, DWORD PTR __Right$[ebp]
  00008	2b 01		 sub	 eax, DWORD PTR [ecx]
  0000a	f7 d8		 neg	 eax
  0000c	1b c0		 sbb	 eax, eax
  0000e	40		 inc	 eax

; 331  : 		}

  0000f	5d		 pop	 ebp
  00010	c2 04 00	 ret	 4
??8?$_Tree_const_iterator@V?$_Tree_val@V?$_Tmap_traits@KPAVioUIRenderImage@@U?$less@K@std@@V?$allocator@U?$pair@$$CBKPAVioUIRenderImage@@@std@@@3@$0A@@std@@@std@@@std@@QBE_NABV01@@Z ENDP ; std::_Tree_const_iterator<std::_Tree_val<std::_Tmap_traits<unsigned long,ioUIRenderImage *,std::less<unsigned long>,std::allocator<std::pair<unsigned long const ,ioUIRenderImage *> >,0> > >::operator==
_TEXT	ENDS
PUBLIC	?_Mynode@?$_Tree_unchecked_const_iterator@V?$_Tree_val@V?$_Tmap_traits@KPAVioUIRenderImage@@U?$less@K@std@@V?$allocator@U?$pair@$$CBKPAVioUIRenderImage@@@std@@@3@$0A@@std@@@std@@U_Iterator_base0@2@@std@@QBEPAU_Node@?$_Tree_nod@V?$_Tmap_traits@KPAVioUIRenderImage@@U?$less@K@std@@V?$allocator@U?$pair@$$CBKPAVioUIRenderImage@@@std@@@3@$0A@@std@@@2@XZ ; std::_Tree_unchecked_const_iterator<std::_Tree_val<std::_Tmap_traits<unsigned long,ioUIRenderImage *,std::less<unsigned long>,std::allocator<std::pair<unsigned long const ,ioUIRenderImage *> >,0> >,std::_Iterator_base0>::_Mynode
; Function compile flags: /Ogsp
;	COMDAT ?_Mynode@?$_Tree_unchecked_const_iterator@V?$_Tree_val@V?$_Tmap_traits@KPAVioUIRenderImage@@U?$less@K@std@@V?$allocator@U?$pair@$$CBKPAVioUIRenderImage@@@std@@@3@$0A@@std@@@std@@U_Iterator_base0@2@@std@@QBEPAU_Node@?$_Tree_nod@V?$_Tmap_traits@KPAVioUIRenderImage@@U?$less@K@std@@V?$allocator@U?$pair@$$CBKPAVioUIRenderImage@@@std@@@3@$0A@@std@@@2@XZ
_TEXT	SEGMENT
?_Mynode@?$_Tree_unchecked_const_iterator@V?$_Tree_val@V?$_Tmap_traits@KPAVioUIRenderImage@@U?$less@K@std@@V?$allocator@U?$pair@$$CBKPAVioUIRenderImage@@@std@@@3@$0A@@std@@@std@@U_Iterator_base0@2@@std@@QBEPAU_Node@?$_Tree_nod@V?$_Tmap_traits@KPAVioUIRenderImage@@U?$less@K@std@@V?$allocator@U?$pair@$$CBKPAVioUIRenderImage@@@std@@@3@$0A@@std@@@2@XZ PROC ; std::_Tree_unchecked_const_iterator<std::_Tree_val<std::_Tmap_traits<unsigned long,ioUIRenderImage *,std::less<unsigned long>,std::allocator<std::pair<unsigned long const ,ioUIRenderImage *> >,0> >,std::_Iterator_base0>::_Mynode, COMDAT
; _this$ = ecx

; 122  : 		return (_Ptr);

  00000	8b 01		 mov	 eax, DWORD PTR [ecx]

; 123  : 		}

  00002	c3		 ret	 0
?_Mynode@?$_Tree_unchecked_const_iterator@V?$_Tree_val@V?$_Tmap_traits@KPAVioUIRenderImage@@U?$less@K@std@@V?$allocator@U?$pair@$$CBKPAVioUIRenderImage@@@std@@@3@$0A@@std@@@std@@U_Iterator_base0@2@@std@@QBEPAU_Node@?$_Tree_nod@V?$_Tmap_traits@KPAVioUIRenderImage@@U?$less@K@std@@V?$allocator@U?$pair@$$CBKPAVioUIRenderImage@@@std@@@3@$0A@@std@@@2@XZ ENDP ; std::_Tree_unchecked_const_iterator<std::_Tree_val<std::_Tmap_traits<unsigned long,ioUIRenderImage *,std::less<unsigned long>,std::allocator<std::pair<unsigned long const ,ioUIRenderImage *> >,0> >,std::_Iterator_base0>::_Mynode
_TEXT	ENDS
PUBLIC	??0?$_Vector_const_iterator@V?$_Vector_val@PAUCustomMarkData@ioGuildMarkMgr@@V?$allocator@PAUCustomMarkData@ioGuildMarkMgr@@@std@@@std@@@std@@QAE@XZ ; std::_Vector_const_iterator<std::_Vector_val<ioGuildMarkMgr::CustomMarkData *,std::allocator<ioGuildMarkMgr::CustomMarkData *> > >::_Vector_const_iterator<std::_Vector_val<ioGuildMarkMgr::CustomMarkData *,std::allocator<ioGuildMarkMgr::CustomMarkData *> > >
; Function compile flags: /Ogsp
; File c:\program files (x86)\microsoft visual studio 10.0\vc\include\vector
;	COMDAT ??0?$_Vector_const_iterator@V?$_Vector_val@PAUCustomMarkData@ioGuildMarkMgr@@V?$allocator@PAUCustomMarkData@ioGuildMarkMgr@@@std@@@std@@@std@@QAE@XZ
_TEXT	SEGMENT
??0?$_Vector_const_iterator@V?$_Vector_val@PAUCustomMarkData@ioGuildMarkMgr@@V?$allocator@PAUCustomMarkData@ioGuildMarkMgr@@@std@@@std@@@std@@QAE@XZ PROC ; std::_Vector_const_iterator<std::_Vector_val<ioGuildMarkMgr::CustomMarkData *,std::allocator<ioGuildMarkMgr::CustomMarkData *> > >::_Vector_const_iterator<std::_Vector_val<ioGuildMarkMgr::CustomMarkData *,std::allocator<ioGuildMarkMgr::CustomMarkData *> > >, COMDAT
; _this$ = ecx

; 40   : 		{	// construct with null pointer

  00000	8b c1		 mov	 eax, ecx
  00002	83 20 00	 and	 DWORD PTR [eax], 0

; 41   : 		}

  00005	c3		 ret	 0
??0?$_Vector_const_iterator@V?$_Vector_val@PAUCustomMarkData@ioGuildMarkMgr@@V?$allocator@PAUCustomMarkData@ioGuildMarkMgr@@@std@@@std@@@std@@QAE@XZ ENDP ; std::_Vector_const_iterator<std::_Vector_val<ioGuildMarkMgr::CustomMarkData *,std::allocator<ioGuildMarkMgr::CustomMarkData *> > >::_Vector_const_iterator<std::_Vector_val<ioGuildMarkMgr::CustomMarkData *,std::allocator<ioGuildMarkMgr::CustomMarkData *> > >
_TEXT	ENDS
PUBLIC	??D?$_Vector_const_iterator@V?$_Vector_val@PAUCustomMarkData@ioGuildMarkMgr@@V?$allocator@PAUCustomMarkData@ioGuildMarkMgr@@@std@@@std@@@std@@QBEABQAUCustomMarkData@ioGuildMarkMgr@@XZ ; std::_Vector_const_iterator<std::_Vector_val<ioGuildMarkMgr::CustomMarkData *,std::allocator<ioGuildMarkMgr::CustomMarkData *> > >::operator*
; Function compile flags: /Ogsp
;	COMDAT ??D?$_Vector_const_iterator@V?$_Vector_val@PAUCustomMarkData@ioGuildMarkMgr@@V?$allocator@PAUCustomMarkData@ioGuildMarkMgr@@@std@@@std@@@std@@QBEABQAUCustomMarkData@ioGuildMarkMgr@@XZ
_TEXT	SEGMENT
??D?$_Vector_const_iterator@V?$_Vector_val@PAUCustomMarkData@ioGuildMarkMgr@@V?$allocator@PAUCustomMarkData@ioGuildMarkMgr@@@std@@@std@@@std@@QBEABQAUCustomMarkData@ioGuildMarkMgr@@XZ PROC ; std::_Vector_const_iterator<std::_Vector_val<ioGuildMarkMgr::CustomMarkData *,std::allocator<ioGuildMarkMgr::CustomMarkData *> > >::operator*, COMDAT
; _this$ = ecx

; 64   :  #if _ITERATOR_DEBUG_LEVEL == 2
; 65   : 		if (this->_Getcont() == 0
; 66   : 			|| this->_Ptr == 0
; 67   : 			|| this->_Ptr < ((_Myvec *)this->_Getcont())->_Myfirst
; 68   : 			|| ((_Myvec *)this->_Getcont())->_Mylast <= this->_Ptr)
; 69   : 			{	// report error
; 70   : 			_DEBUG_ERROR("vector iterator not dereferencable");
; 71   : 			_SCL_SECURE_OUT_OF_RANGE;
; 72   : 			}
; 73   : 
; 74   :  #elif _ITERATOR_DEBUG_LEVEL == 1
; 75   : 		_SCL_SECURE_VALIDATE(this->_Getcont() != 0);
; 76   : 		_SCL_SECURE_VALIDATE_RANGE(
; 77   : 			this->_Ptr != 0
; 78   : 			&& ((_Myvec *)this->_Getcont())->_Myfirst <= this->_Ptr
; 79   : 			&& this->_Ptr < ((_Myvec *)this->_Getcont())->_Mylast);
; 80   :  #endif /* _ITERATOR_DEBUG_LEVEL */
; 81   : 
; 82   : 		__analysis_assume(this->_Ptr != 0);
; 83   : 
; 84   : 		return (*this->_Ptr);

  00000	8b 01		 mov	 eax, DWORD PTR [ecx]

; 85   : 		}

  00002	c3		 ret	 0
??D?$_Vector_const_iterator@V?$_Vector_val@PAUCustomMarkData@ioGuildMarkMgr@@V?$allocator@PAUCustomMarkData@ioGuildMarkMgr@@@std@@@std@@@std@@QBEABQAUCustomMarkData@ioGuildMarkMgr@@XZ ENDP ; std::_Vector_const_iterator<std::_Vector_val<ioGuildMarkMgr::CustomMarkData *,std::allocator<ioGuildMarkMgr::CustomMarkData *> > >::operator*
_TEXT	ENDS
PUBLIC	?_Isnil@?$_Tree_val@V?$_Tmap_traits@KPAVioUIRenderImage@@U?$less@K@std@@V?$allocator@U?$pair@$$CBKPAVioUIRenderImage@@@std@@@3@$0A@@std@@@std@@SAAADPAU_Node@?$_Tree_nod@V?$_Tmap_traits@KPAVioUIRenderImage@@U?$less@K@std@@V?$allocator@U?$pair@$$CBKPAVioUIRenderImage@@@std@@@3@$0A@@std@@@2@@Z ; std::_Tree_val<std::_Tmap_traits<unsigned long,ioUIRenderImage *,std::less<unsigned long>,std::allocator<std::pair<unsigned long const ,ioUIRenderImage *> >,0> >::_Isnil
; Function compile flags: /Ogsp
; File c:\program files (x86)\microsoft visual studio 10.0\vc\include\xtree
;	COMDAT ?_Isnil@?$_Tree_val@V?$_Tmap_traits@KPAVioUIRenderImage@@U?$less@K@std@@V?$allocator@U?$pair@$$CBKPAVioUIRenderImage@@@std@@@3@$0A@@std@@@std@@SAAADPAU_Node@?$_Tree_nod@V?$_Tmap_traits@KPAVioUIRenderImage@@U?$less@K@std@@V?$allocator@U?$pair@$$CBKPAVioUIRenderImage@@@std@@@3@$0A@@std@@@2@@Z
_TEXT	SEGMENT
__Pnode$ = 8						; size = 4
?_Isnil@?$_Tree_val@V?$_Tmap_traits@KPAVioUIRenderImage@@U?$less@K@std@@V?$allocator@U?$pair@$$CBKPAVioUIRenderImage@@@std@@@3@$0A@@std@@@std@@SAAADPAU_Node@?$_Tree_nod@V?$_Tmap_traits@KPAVioUIRenderImage@@U?$less@K@std@@V?$allocator@U?$pair@$$CBKPAVioUIRenderImage@@@std@@@3@$0A@@std@@@2@@Z PROC ; std::_Tree_val<std::_Tmap_traits<unsigned long,ioUIRenderImage *,std::less<unsigned long>,std::allocator<std::pair<unsigned long const ,ioUIRenderImage *> >,0> >::_Isnil, COMDAT

; 611  : 		{	// return reference to nil flag in node

  00000	55		 push	 ebp
  00001	8b ec		 mov	 ebp, esp

; 612  : 		return ((char&)(*_Pnode)._Isnil);

  00003	8b 45 08	 mov	 eax, DWORD PTR __Pnode$[ebp]
  00006	83 c0 15	 add	 eax, 21			; 00000015H

; 613  : 		}

  00009	5d		 pop	 ebp
  0000a	c3		 ret	 0
?_Isnil@?$_Tree_val@V?$_Tmap_traits@KPAVioUIRenderImage@@U?$less@K@std@@V?$allocator@U?$pair@$$CBKPAVioUIRenderImage@@@std@@@3@$0A@@std@@@std@@SAAADPAU_Node@?$_Tree_nod@V?$_Tmap_traits@KPAVioUIRenderImage@@U?$less@K@std@@V?$allocator@U?$pair@$$CBKPAVioUIRenderImage@@@std@@@3@$0A@@std@@@2@@Z ENDP ; std::_Tree_val<std::_Tmap_traits<unsigned long,ioUIRenderImage *,std::less<unsigned long>,std::allocator<std::pair<unsigned long const ,ioUIRenderImage *> >,0> >::_Isnil
_TEXT	ENDS
PUBLIC	?_Left@?$_Tree_val@V?$_Tmap_traits@KPAVioUIRenderImage@@U?$less@K@std@@V?$allocator@U?$pair@$$CBKPAVioUIRenderImage@@@std@@@3@$0A@@std@@@std@@SAAAPAU_Node@?$_Tree_nod@V?$_Tmap_traits@KPAVioUIRenderImage@@U?$less@K@std@@V?$allocator@U?$pair@$$CBKPAVioUIRenderImage@@@std@@@3@$0A@@std@@@2@PAU342@@Z ; std::_Tree_val<std::_Tmap_traits<unsigned long,ioUIRenderImage *,std::less<unsigned long>,std::allocator<std::pair<unsigned long const ,ioUIRenderImage *> >,0> >::_Left
; Function compile flags: /Ogsp
;	COMDAT ?_Left@?$_Tree_val@V?$_Tmap_traits@KPAVioUIRenderImage@@U?$less@K@std@@V?$allocator@U?$pair@$$CBKPAVioUIRenderImage@@@std@@@3@$0A@@std@@@std@@SAAAPAU_Node@?$_Tree_nod@V?$_Tmap_traits@KPAVioUIRenderImage@@U?$less@K@std@@V?$allocator@U?$pair@$$CBKPAVioUIRenderImage@@@std@@@3@$0A@@std@@@2@PAU342@@Z
_TEXT	SEGMENT
__Pnode$ = 8						; size = 4
?_Left@?$_Tree_val@V?$_Tmap_traits@KPAVioUIRenderImage@@U?$less@K@std@@V?$allocator@U?$pair@$$CBKPAVioUIRenderImage@@@std@@@3@$0A@@std@@@std@@SAAAPAU_Node@?$_Tree_nod@V?$_Tmap_traits@KPAVioUIRenderImage@@U?$less@K@std@@V?$allocator@U?$pair@$$CBKPAVioUIRenderImage@@@std@@@3@$0A@@std@@@2@PAU342@@Z PROC ; std::_Tree_val<std::_Tmap_traits<unsigned long,ioUIRenderImage *,std::less<unsigned long>,std::allocator<std::pair<unsigned long const ,ioUIRenderImage *> >,0> >::_Left, COMDAT

; 621  : 		{	// return reference to left pointer in node

  00000	55		 push	 ebp
  00001	8b ec		 mov	 ebp, esp

; 622  : 		return ((_Nodepref)(*_Pnode)._Left);

  00003	8b 45 08	 mov	 eax, DWORD PTR __Pnode$[ebp]

; 623  : 		}

  00006	5d		 pop	 ebp
  00007	c3		 ret	 0
?_Left@?$_Tree_val@V?$_Tmap_traits@KPAVioUIRenderImage@@U?$less@K@std@@V?$allocator@U?$pair@$$CBKPAVioUIRenderImage@@@std@@@3@$0A@@std@@@std@@SAAAPAU_Node@?$_Tree_nod@V?$_Tmap_traits@KPAVioUIRenderImage@@U?$less@K@std@@V?$allocator@U?$pair@$$CBKPAVioUIRenderImage@@@std@@@3@$0A@@std@@@2@PAU342@@Z ENDP ; std::_Tree_val<std::_Tmap_traits<unsigned long,ioUIRenderImage *,std::less<unsigned long>,std::allocator<std::pair<unsigned long const ,ioUIRenderImage *> >,0> >::_Left
_TEXT	ENDS
PUBLIC	?_Parent@?$_Tree_val@V?$_Tmap_traits@KPAVioUIRenderImage@@U?$less@K@std@@V?$allocator@U?$pair@$$CBKPAVioUIRenderImage@@@std@@@3@$0A@@std@@@std@@SAAAPAU_Node@?$_Tree_nod@V?$_Tmap_traits@KPAVioUIRenderImage@@U?$less@K@std@@V?$allocator@U?$pair@$$CBKPAVioUIRenderImage@@@std@@@3@$0A@@std@@@2@PAU342@@Z ; std::_Tree_val<std::_Tmap_traits<unsigned long,ioUIRenderImage *,std::less<unsigned long>,std::allocator<std::pair<unsigned long const ,ioUIRenderImage *> >,0> >::_Parent
; Function compile flags: /Ogsp
;	COMDAT ?_Parent@?$_Tree_val@V?$_Tmap_traits@KPAVioUIRenderImage@@U?$less@K@std@@V?$allocator@U?$pair@$$CBKPAVioUIRenderImage@@@std@@@3@$0A@@std@@@std@@SAAAPAU_Node@?$_Tree_nod@V?$_Tmap_traits@KPAVioUIRenderImage@@U?$less@K@std@@V?$allocator@U?$pair@$$CBKPAVioUIRenderImage@@@std@@@3@$0A@@std@@@2@PAU342@@Z
_TEXT	SEGMENT
__Pnode$ = 8						; size = 4
?_Parent@?$_Tree_val@V?$_Tmap_traits@KPAVioUIRenderImage@@U?$less@K@std@@V?$allocator@U?$pair@$$CBKPAVioUIRenderImage@@@std@@@3@$0A@@std@@@std@@SAAAPAU_Node@?$_Tree_nod@V?$_Tmap_traits@KPAVioUIRenderImage@@U?$less@K@std@@V?$allocator@U?$pair@$$CBKPAVioUIRenderImage@@@std@@@3@$0A@@std@@@2@PAU342@@Z PROC ; std::_Tree_val<std::_Tmap_traits<unsigned long,ioUIRenderImage *,std::less<unsigned long>,std::allocator<std::pair<unsigned long const ,ioUIRenderImage *> >,0> >::_Parent, COMDAT

; 626  : 		{	// return reference to parent pointer in node

  00000	55		 push	 ebp
  00001	8b ec		 mov	 ebp, esp

; 627  : 		return ((_Nodepref)(*_Pnode)._Parent);

  00003	8b 45 08	 mov	 eax, DWORD PTR __Pnode$[ebp]
  00006	83 c0 04	 add	 eax, 4

; 628  : 		}

  00009	5d		 pop	 ebp
  0000a	c3		 ret	 0
?_Parent@?$_Tree_val@V?$_Tmap_traits@KPAVioUIRenderImage@@U?$less@K@std@@V?$allocator@U?$pair@$$CBKPAVioUIRenderImage@@@std@@@3@$0A@@std@@@std@@SAAAPAU_Node@?$_Tree_nod@V?$_Tmap_traits@KPAVioUIRenderImage@@U?$less@K@std@@V?$allocator@U?$pair@$$CBKPAVioUIRenderImage@@@std@@@3@$0A@@std@@@2@PAU342@@Z ENDP ; std::_Tree_val<std::_Tmap_traits<unsigned long,ioUIRenderImage *,std::less<unsigned long>,std::allocator<std::pair<unsigned long const ,ioUIRenderImage *> >,0> >::_Parent
_TEXT	ENDS
PUBLIC	?_Right@?$_Tree_val@V?$_Tmap_traits@KPAVioUIRenderImage@@U?$less@K@std@@V?$allocator@U?$pair@$$CBKPAVioUIRenderImage@@@std@@@3@$0A@@std@@@std@@SAAAPAU_Node@?$_Tree_nod@V?$_Tmap_traits@KPAVioUIRenderImage@@U?$less@K@std@@V?$allocator@U?$pair@$$CBKPAVioUIRenderImage@@@std@@@3@$0A@@std@@@2@PAU342@@Z ; std::_Tree_val<std::_Tmap_traits<unsigned long,ioUIRenderImage *,std::less<unsigned long>,std::allocator<std::pair<unsigned long const ,ioUIRenderImage *> >,0> >::_Right
; Function compile flags: /Ogsp
;	COMDAT ?_Right@?$_Tree_val@V?$_Tmap_traits@KPAVioUIRenderImage@@U?$less@K@std@@V?$allocator@U?$pair@$$CBKPAVioUIRenderImage@@@std@@@3@$0A@@std@@@std@@SAAAPAU_Node@?$_Tree_nod@V?$_Tmap_traits@KPAVioUIRenderImage@@U?$less@K@std@@V?$allocator@U?$pair@$$CBKPAVioUIRenderImage@@@std@@@3@$0A@@std@@@2@PAU342@@Z
_TEXT	SEGMENT
__Pnode$ = 8						; size = 4
?_Right@?$_Tree_val@V?$_Tmap_traits@KPAVioUIRenderImage@@U?$less@K@std@@V?$allocator@U?$pair@$$CBKPAVioUIRenderImage@@@std@@@3@$0A@@std@@@std@@SAAAPAU_Node@?$_Tree_nod@V?$_Tmap_traits@KPAVioUIRenderImage@@U?$less@K@std@@V?$allocator@U?$pair@$$CBKPAVioUIRenderImage@@@std@@@3@$0A@@std@@@2@PAU342@@Z PROC ; std::_Tree_val<std::_Tmap_traits<unsigned long,ioUIRenderImage *,std::less<unsigned long>,std::allocator<std::pair<unsigned long const ,ioUIRenderImage *> >,0> >::_Right, COMDAT

; 631  : 		{	// return reference to right pointer in node

  00000	55		 push	 ebp
  00001	8b ec		 mov	 ebp, esp

; 632  : 		return ((_Nodepref)(*_Pnode)._Right);

  00003	8b 45 08	 mov	 eax, DWORD PTR __Pnode$[ebp]
  00006	83 c0 08	 add	 eax, 8

; 633  : 		}

  00009	5d		 pop	 ebp
  0000a	c3		 ret	 0
?_Right@?$_Tree_val@V?$_Tmap_traits@KPAVioUIRenderImage@@U?$less@K@std@@V?$allocator@U?$pair@$$CBKPAVioUIRenderImage@@@std@@@3@$0A@@std@@@std@@SAAAPAU_Node@?$_Tree_nod@V?$_Tmap_traits@KPAVioUIRenderImage@@U?$less@K@std@@V?$allocator@U?$pair@$$CBKPAVioUIRenderImage@@@std@@@3@$0A@@std@@@2@PAU342@@Z ENDP ; std::_Tree_val<std::_Tmap_traits<unsigned long,ioUIRenderImage *,std::less<unsigned long>,std::allocator<std::pair<unsigned long const ,ioUIRenderImage *> >,0> >::_Right
_TEXT	ENDS
PUBLIC	?_Myval@?$_Tree_val@V?$_Tmap_traits@KPAVioUIRenderImage@@U?$less@K@std@@V?$allocator@U?$pair@$$CBKPAVioUIRenderImage@@@std@@@3@$0A@@std@@@std@@SAAAU?$pair@$$CBKPAVioUIRenderImage@@@2@PAU_Node@?$_Tree_nod@V?$_Tmap_traits@KPAVioUIRenderImage@@U?$less@K@std@@V?$allocator@U?$pair@$$CBKPAVioUIRenderImage@@@std@@@3@$0A@@std@@@2@@Z ; std::_Tree_val<std::_Tmap_traits<unsigned long,ioUIRenderImage *,std::less<unsigned long>,std::allocator<std::pair<unsigned long const ,ioUIRenderImage *> >,0> >::_Myval
; Function compile flags: /Ogsp
;	COMDAT ?_Myval@?$_Tree_val@V?$_Tmap_traits@KPAVioUIRenderImage@@U?$less@K@std@@V?$allocator@U?$pair@$$CBKPAVioUIRenderImage@@@std@@@3@$0A@@std@@@std@@SAAAU?$pair@$$CBKPAVioUIRenderImage@@@2@PAU_Node@?$_Tree_nod@V?$_Tmap_traits@KPAVioUIRenderImage@@U?$less@K@std@@V?$allocator@U?$pair@$$CBKPAVioUIRenderImage@@@std@@@3@$0A@@std@@@2@@Z
_TEXT	SEGMENT
__Pnode$ = 8						; size = 4
?_Myval@?$_Tree_val@V?$_Tmap_traits@KPAVioUIRenderImage@@U?$less@K@std@@V?$allocator@U?$pair@$$CBKPAVioUIRenderImage@@@std@@@3@$0A@@std@@@std@@SAAAU?$pair@$$CBKPAVioUIRenderImage@@@2@PAU_Node@?$_Tree_nod@V?$_Tmap_traits@KPAVioUIRenderImage@@U?$less@K@std@@V?$allocator@U?$pair@$$CBKPAVioUIRenderImage@@@std@@@3@$0A@@std@@@2@@Z PROC ; std::_Tree_val<std::_Tmap_traits<unsigned long,ioUIRenderImage *,std::less<unsigned long>,std::allocator<std::pair<unsigned long const ,ioUIRenderImage *> >,0> >::_Myval, COMDAT

; 636  : 		{	// return reference to value in node

  00000	55		 push	 ebp
  00001	8b ec		 mov	 ebp, esp

; 637  : 		return ((reference)(*_Pnode)._Myval);

  00003	8b 45 08	 mov	 eax, DWORD PTR __Pnode$[ebp]
  00006	83 c0 0c	 add	 eax, 12			; 0000000cH

; 638  : 		}

  00009	5d		 pop	 ebp
  0000a	c3		 ret	 0
?_Myval@?$_Tree_val@V?$_Tmap_traits@KPAVioUIRenderImage@@U?$less@K@std@@V?$allocator@U?$pair@$$CBKPAVioUIRenderImage@@@std@@@3@$0A@@std@@@std@@SAAAU?$pair@$$CBKPAVioUIRenderImage@@@2@PAU_Node@?$_Tree_nod@V?$_Tmap_traits@KPAVioUIRenderImage@@U?$less@K@std@@V?$allocator@U?$pair@$$CBKPAVioUIRenderImage@@@std@@@3@$0A@@std@@@2@@Z ENDP ; std::_Tree_val<std::_Tmap_traits<unsigned long,ioUIRenderImage *,std::less<unsigned long>,std::allocator<std::pair<unsigned long const ,ioUIRenderImage *> >,0> >::_Myval
_TEXT	ENDS
PUBLIC	??0?$allocator@U?$pair@$$CBKPAVioUIRenderImage@@@std@@@std@@QAE@ABV01@@Z ; std::allocator<std::pair<unsigned long const ,ioUIRenderImage *> >::allocator<std::pair<unsigned long const ,ioUIRenderImage *> >
; Function compile flags: /Ogsp
; File c:\program files (x86)\microsoft visual studio 10.0\vc\include\xmemory
;	COMDAT ??0?$allocator@U?$pair@$$CBKPAVioUIRenderImage@@@std@@@std@@QAE@ABV01@@Z
_TEXT	SEGMENT
___formal$ = 8						; size = 4
??0?$allocator@U?$pair@$$CBKPAVioUIRenderImage@@@std@@@std@@QAE@ABV01@@Z PROC ; std::allocator<std::pair<unsigned long const ,ioUIRenderImage *> >::allocator<std::pair<unsigned long const ,ioUIRenderImage *> >, COMDAT
; _this$ = ecx

; 165  : 	_ALLOCATOR(const _ALLOCATOR<_Ty>&) _THROW0()

  00000	8b c1		 mov	 eax, ecx

; 166  : 		{	// construct by copying (do nothing)
; 167  : 		}

  00002	c2 04 00	 ret	 4
??0?$allocator@U?$pair@$$CBKPAVioUIRenderImage@@@std@@@std@@QAE@ABV01@@Z ENDP ; std::allocator<std::pair<unsigned long const ,ioUIRenderImage *> >::allocator<std::pair<unsigned long const ,ioUIRenderImage *> >
_TEXT	ENDS
PUBLIC	?deallocate@?$allocator@U_Node@?$_Tree_nod@V?$_Tmap_traits@KPAVioUIRenderImage@@U?$less@K@std@@V?$allocator@U?$pair@$$CBKPAVioUIRenderImage@@@std@@@3@$0A@@std@@@std@@@std@@QAEXPAU_Node@?$_Tree_nod@V?$_Tmap_traits@KPAVioUIRenderImage@@U?$less@K@std@@V?$allocator@U?$pair@$$CBKPAVioUIRenderImage@@@std@@@3@$0A@@std@@@2@I@Z ; std::allocator<std::_Tree_nod<std::_Tmap_traits<unsigned long,ioUIRenderImage *,std::less<unsigned long>,std::allocator<std::pair<unsigned long const ,ioUIRenderImage *> >,0> >::_Node>::deallocate
; Function compile flags: /Ogsp
;	COMDAT ?deallocate@?$allocator@U_Node@?$_Tree_nod@V?$_Tmap_traits@KPAVioUIRenderImage@@U?$less@K@std@@V?$allocator@U?$pair@$$CBKPAVioUIRenderImage@@@std@@@3@$0A@@std@@@std@@@std@@QAEXPAU_Node@?$_Tree_nod@V?$_Tmap_traits@KPAVioUIRenderImage@@U?$less@K@std@@V?$allocator@U?$pair@$$CBKPAVioUIRenderImage@@@std@@@3@$0A@@std@@@2@I@Z
_TEXT	SEGMENT
__Ptr$ = 8						; size = 4
___formal$ = 12						; size = 4
?deallocate@?$allocator@U_Node@?$_Tree_nod@V?$_Tmap_traits@KPAVioUIRenderImage@@U?$less@K@std@@V?$allocator@U?$pair@$$CBKPAVioUIRenderImage@@@std@@@3@$0A@@std@@@std@@@std@@QAEXPAU_Node@?$_Tree_nod@V?$_Tmap_traits@KPAVioUIRenderImage@@U?$less@K@std@@V?$allocator@U?$pair@$$CBKPAVioUIRenderImage@@@std@@@3@$0A@@std@@@2@I@Z PROC ; std::allocator<std::_Tree_nod<std::_Tmap_traits<unsigned long,ioUIRenderImage *,std::less<unsigned long>,std::allocator<std::pair<unsigned long const ,ioUIRenderImage *> >,0> >::_Node>::deallocate, COMDAT
; _this$ = ecx

; 181  : 		{	// deallocate object at _Ptr, ignore size

  00000	55		 push	 ebp
  00001	8b ec		 mov	 ebp, esp

; 182  : 		::operator delete(_Ptr);

  00003	ff 75 08	 push	 DWORD PTR __Ptr$[ebp]
  00006	e8 00 00 00 00	 call	 ??3@YAXPAX@Z		; operator delete
  0000b	59		 pop	 ecx

; 183  : 		}

  0000c	5d		 pop	 ebp
  0000d	c2 08 00	 ret	 8
?deallocate@?$allocator@U_Node@?$_Tree_nod@V?$_Tmap_traits@KPAVioUIRenderImage@@U?$less@K@std@@V?$allocator@U?$pair@$$CBKPAVioUIRenderImage@@@std@@@3@$0A@@std@@@std@@@std@@QAEXPAU_Node@?$_Tree_nod@V?$_Tmap_traits@KPAVioUIRenderImage@@U?$less@K@std@@V?$allocator@U?$pair@$$CBKPAVioUIRenderImage@@@std@@@3@$0A@@std@@@2@I@Z ENDP ; std::allocator<std::_Tree_nod<std::_Tmap_traits<unsigned long,ioUIRenderImage *,std::less<unsigned long>,std::allocator<std::pair<unsigned long const ,ioUIRenderImage *> >,0> >::_Node>::deallocate
_TEXT	ENDS
PUBLIC	?capacity@?$vector@PAUCustomMarkData@ioGuildMarkMgr@@V?$allocator@PAUCustomMarkData@ioGuildMarkMgr@@@std@@@std@@QBEIXZ ; std::vector<ioGuildMarkMgr::CustomMarkData *,std::allocator<ioGuildMarkMgr::CustomMarkData *> >::capacity
; Function compile flags: /Ogsp
; File c:\program files (x86)\microsoft visual studio 10.0\vc\include\vector
;	COMDAT ?capacity@?$vector@PAUCustomMarkData@ioGuildMarkMgr@@V?$allocator@PAUCustomMarkData@ioGuildMarkMgr@@@std@@@std@@QBEIXZ
_TEXT	SEGMENT
?capacity@?$vector@PAUCustomMarkData@ioGuildMarkMgr@@V?$allocator@PAUCustomMarkData@ioGuildMarkMgr@@@std@@@std@@QBEIXZ PROC ; std::vector<ioGuildMarkMgr::CustomMarkData *,std::allocator<ioGuildMarkMgr::CustomMarkData *> >::capacity, COMDAT
; _this$ = ecx

; 777  : 		return (this->_Myend - this->_Myfirst);

  00000	8b 41 08	 mov	 eax, DWORD PTR [ecx+8]
  00003	2b 01		 sub	 eax, DWORD PTR [ecx]
  00005	c1 f8 02	 sar	 eax, 2

; 778  : 		}

  00008	c3		 ret	 0
?capacity@?$vector@PAUCustomMarkData@ioGuildMarkMgr@@V?$allocator@PAUCustomMarkData@ioGuildMarkMgr@@@std@@@std@@QBEIXZ ENDP ; std::vector<ioGuildMarkMgr::CustomMarkData *,std::allocator<ioGuildMarkMgr::CustomMarkData *> >::capacity
_TEXT	ENDS
PUBLIC	?size@?$vector@PAUCustomMarkData@ioGuildMarkMgr@@V?$allocator@PAUCustomMarkData@ioGuildMarkMgr@@@std@@@std@@QBEIXZ ; std::vector<ioGuildMarkMgr::CustomMarkData *,std::allocator<ioGuildMarkMgr::CustomMarkData *> >::size
; Function compile flags: /Ogsp
;	COMDAT ?size@?$vector@PAUCustomMarkData@ioGuildMarkMgr@@V?$allocator@PAUCustomMarkData@ioGuildMarkMgr@@@std@@@std@@QBEIXZ
_TEXT	SEGMENT
?size@?$vector@PAUCustomMarkData@ioGuildMarkMgr@@V?$allocator@PAUCustomMarkData@ioGuildMarkMgr@@@std@@@std@@QBEIXZ PROC ; std::vector<ioGuildMarkMgr::CustomMarkData *,std::allocator<ioGuildMarkMgr::CustomMarkData *> >::size, COMDAT
; _this$ = ecx

; 879  : 		return (this->_Mylast - this->_Myfirst);

  00000	8b 41 04	 mov	 eax, DWORD PTR [ecx+4]
  00003	2b 01		 sub	 eax, DWORD PTR [ecx]
  00005	c1 f8 02	 sar	 eax, 2

; 880  : 		}

  00008	c3		 ret	 0
?size@?$vector@PAUCustomMarkData@ioGuildMarkMgr@@V?$allocator@PAUCustomMarkData@ioGuildMarkMgr@@@std@@@std@@QBEIXZ ENDP ; std::vector<ioGuildMarkMgr::CustomMarkData *,std::allocator<ioGuildMarkMgr::CustomMarkData *> >::size
_TEXT	ENDS
PUBLIC	??_C@_0BD@OLBABOEK@vector?$DMT?$DO?5too?5long?$AA@ ; `string'
PUBLIC	?_Xlen@?$vector@PAUCustomMarkData@ioGuildMarkMgr@@V?$allocator@PAUCustomMarkData@ioGuildMarkMgr@@@std@@@std@@IBEXXZ ; std::vector<ioGuildMarkMgr::CustomMarkData *,std::allocator<ioGuildMarkMgr::CustomMarkData *> >::_Xlen
EXTRN	__imp_?_Xlength_error@std@@YAXPBD@Z:PROC
;	COMDAT ??_C@_0BD@OLBABOEK@vector?$DMT?$DO?5too?5long?$AA@
CONST	SEGMENT
??_C@_0BD@OLBABOEK@vector?$DMT?$DO?5too?5long?$AA@ DB 'vector<T> too long'
	DB	00H						; `string'
; Function compile flags: /Ogsp
CONST	ENDS
;	COMDAT ?_Xlen@?$vector@PAUCustomMarkData@ioGuildMarkMgr@@V?$allocator@PAUCustomMarkData@ioGuildMarkMgr@@@std@@@std@@IBEXXZ
_TEXT	SEGMENT
?_Xlen@?$vector@PAUCustomMarkData@ioGuildMarkMgr@@V?$allocator@PAUCustomMarkData@ioGuildMarkMgr@@@std@@@std@@IBEXXZ PROC ; std::vector<ioGuildMarkMgr::CustomMarkData *,std::allocator<ioGuildMarkMgr::CustomMarkData *> >::_Xlen, COMDAT
; _this$ = ecx

; 1427 : 		_Xlength_error("vector<T> too long");

  00000	68 00 00 00 00	 push	 OFFSET ??_C@_0BD@OLBABOEK@vector?$DMT?$DO?5too?5long?$AA@
  00005	ff 15 00 00 00
	00		 call	 DWORD PTR __imp_?_Xlength_error@std@@YAXPBD@Z
$LN4@Xlen:
$LN3@Xlen:
  0000b	cc		 int	 3
?_Xlen@?$vector@PAUCustomMarkData@ioGuildMarkMgr@@V?$allocator@PAUCustomMarkData@ioGuildMarkMgr@@@std@@@std@@IBEXXZ ENDP ; std::vector<ioGuildMarkMgr::CustomMarkData *,std::allocator<ioGuildMarkMgr::CustomMarkData *> >::_Xlen
_TEXT	ENDS
PUBLIC	??0?$allocator@PAUCustomMarkData@ioGuildMarkMgr@@@std@@QAE@ABV01@@Z ; std::allocator<ioGuildMarkMgr::CustomMarkData *>::allocator<ioGuildMarkMgr::CustomMarkData *>
; Function compile flags: /Ogsp
; File c:\program files (x86)\microsoft visual studio 10.0\vc\include\xmemory
;	COMDAT ??0?$allocator@PAUCustomMarkData@ioGuildMarkMgr@@@std@@QAE@ABV01@@Z
_TEXT	SEGMENT
___formal$ = 8						; size = 4
??0?$allocator@PAUCustomMarkData@ioGuildMarkMgr@@@std@@QAE@ABV01@@Z PROC ; std::allocator<ioGuildMarkMgr::CustomMarkData *>::allocator<ioGuildMarkMgr::CustomMarkData *>, COMDAT
; _this$ = ecx

; 165  : 	_ALLOCATOR(const _ALLOCATOR<_Ty>&) _THROW0()

  00000	8b c1		 mov	 eax, ecx

; 166  : 		{	// construct by copying (do nothing)
; 167  : 		}

  00002	c2 04 00	 ret	 4
??0?$allocator@PAUCustomMarkData@ioGuildMarkMgr@@@std@@QAE@ABV01@@Z ENDP ; std::allocator<ioGuildMarkMgr::CustomMarkData *>::allocator<ioGuildMarkMgr::CustomMarkData *>
_TEXT	ENDS
PUBLIC	?deallocate@?$allocator@PAUCustomMarkData@ioGuildMarkMgr@@@std@@QAEXPAPAUCustomMarkData@ioGuildMarkMgr@@I@Z ; std::allocator<ioGuildMarkMgr::CustomMarkData *>::deallocate
; Function compile flags: /Ogsp
;	COMDAT ?deallocate@?$allocator@PAUCustomMarkData@ioGuildMarkMgr@@@std@@QAEXPAPAUCustomMarkData@ioGuildMarkMgr@@I@Z
_TEXT	SEGMENT
__Ptr$ = 8						; size = 4
___formal$ = 12						; size = 4
?deallocate@?$allocator@PAUCustomMarkData@ioGuildMarkMgr@@@std@@QAEXPAPAUCustomMarkData@ioGuildMarkMgr@@I@Z PROC ; std::allocator<ioGuildMarkMgr::CustomMarkData *>::deallocate, COMDAT
; _this$ = ecx

; 181  : 		{	// deallocate object at _Ptr, ignore size

  00000	55		 push	 ebp
  00001	8b ec		 mov	 ebp, esp

; 182  : 		::operator delete(_Ptr);

  00003	ff 75 08	 push	 DWORD PTR __Ptr$[ebp]
  00006	e8 00 00 00 00	 call	 ??3@YAXPAX@Z		; operator delete
  0000b	59		 pop	 ecx

; 183  : 		}

  0000c	5d		 pop	 ebp
  0000d	c2 08 00	 ret	 8
?deallocate@?$allocator@PAUCustomMarkData@ioGuildMarkMgr@@@std@@QAEXPAPAUCustomMarkData@ioGuildMarkMgr@@I@Z ENDP ; std::allocator<ioGuildMarkMgr::CustomMarkData *>::deallocate
_TEXT	ENDS
PUBLIC	?_Prevnode@?$_List_val@KV?$allocator@K@std@@@std@@SAAAPAU_Node@?$_List_nod@KV?$allocator@K@std@@@2@PAU342@@Z ; std::_List_val<unsigned long,std::allocator<unsigned long> >::_Prevnode
; Function compile flags: /Ogsp
; File c:\program files (x86)\microsoft visual studio 10.0\vc\include\list
;	COMDAT ?_Prevnode@?$_List_val@KV?$allocator@K@std@@@std@@SAAAPAU_Node@?$_List_nod@KV?$allocator@K@std@@@2@PAU342@@Z
_TEXT	SEGMENT
__Pnode$ = 8						; size = 4
?_Prevnode@?$_List_val@KV?$allocator@K@std@@@std@@SAAAPAU_Node@?$_List_nod@KV?$allocator@K@std@@@2@PAU342@@Z PROC ; std::_List_val<unsigned long,std::allocator<unsigned long> >::_Prevnode, COMDAT

; 565  : 		{	// return reference to predecessor pointer in node

  00000	55		 push	 ebp
  00001	8b ec		 mov	 ebp, esp

; 566  : 		return ((_Nodepref)(*_Pnode)._Prev);

  00003	8b 45 08	 mov	 eax, DWORD PTR __Pnode$[ebp]
  00006	83 c0 04	 add	 eax, 4

; 567  : 		}

  00009	5d		 pop	 ebp
  0000a	c3		 ret	 0
?_Prevnode@?$_List_val@KV?$allocator@K@std@@@std@@SAAAPAU_Node@?$_List_nod@KV?$allocator@K@std@@@2@PAU342@@Z ENDP ; std::_List_val<unsigned long,std::allocator<unsigned long> >::_Prevnode
_TEXT	ENDS
PUBLIC	?_Mynode@?$_List_unchecked_const_iterator@V?$_List_val@KV?$allocator@K@std@@@std@@U_Iterator_base0@2@@std@@QBEPAU_Node@?$_List_nod@KV?$allocator@K@std@@@2@XZ ; std::_List_unchecked_const_iterator<std::_List_val<unsigned long,std::allocator<unsigned long> >,std::_Iterator_base0>::_Mynode
; Function compile flags: /Ogsp
;	COMDAT ?_Mynode@?$_List_unchecked_const_iterator@V?$_List_val@KV?$allocator@K@std@@@std@@U_Iterator_base0@2@@std@@QBEPAU_Node@?$_List_nod@KV?$allocator@K@std@@@2@XZ
_TEXT	SEGMENT
?_Mynode@?$_List_unchecked_const_iterator@V?$_List_val@KV?$allocator@K@std@@@std@@U_Iterator_base0@2@@std@@QBEPAU_Node@?$_List_nod@KV?$allocator@K@std@@@2@XZ PROC ; std::_List_unchecked_const_iterator<std::_List_val<unsigned long,std::allocator<unsigned long> >,std::_Iterator_base0>::_Mynode, COMDAT
; _this$ = ecx

; 93   : 		return (_Ptr);

  00000	8b 01		 mov	 eax, DWORD PTR [ecx]

; 94   : 		}

  00002	c3		 ret	 0
?_Mynode@?$_List_unchecked_const_iterator@V?$_List_val@KV?$allocator@K@std@@@std@@U_Iterator_base0@2@@std@@QBEPAU_Node@?$_List_nod@KV?$allocator@K@std@@@2@XZ ENDP ; std::_List_unchecked_const_iterator<std::_List_val<unsigned long,std::allocator<unsigned long> >,std::_Iterator_base0>::_Mynode
_TEXT	ENDS
PUBLIC	??D?$_Tree_const_iterator@V?$_Tree_val@V?$_Tmap_traits@KPAVioUIRenderImage@@U?$less@K@std@@V?$allocator@U?$pair@$$CBKPAVioUIRenderImage@@@std@@@3@$0A@@std@@@std@@@std@@QBEABU?$pair@$$CBKPAVioUIRenderImage@@@1@XZ ; std::_Tree_const_iterator<std::_Tree_val<std::_Tmap_traits<unsigned long,ioUIRenderImage *,std::less<unsigned long>,std::allocator<std::pair<unsigned long const ,ioUIRenderImage *> >,0> > >::operator*
; Function compile flags: /Ogsp
; File c:\program files (x86)\microsoft visual studio 10.0\vc\include\xtree
;	COMDAT ??D?$_Tree_const_iterator@V?$_Tree_val@V?$_Tmap_traits@KPAVioUIRenderImage@@U?$less@K@std@@V?$allocator@U?$pair@$$CBKPAVioUIRenderImage@@@std@@@3@$0A@@std@@@std@@@std@@QBEABU?$pair@$$CBKPAVioUIRenderImage@@@1@XZ
_TEXT	SEGMENT
??D?$_Tree_const_iterator@V?$_Tree_val@V?$_Tmap_traits@KPAVioUIRenderImage@@U?$less@K@std@@V?$allocator@U?$pair@$$CBKPAVioUIRenderImage@@@std@@@3@$0A@@std@@@std@@@std@@QBEABU?$pair@$$CBKPAVioUIRenderImage@@@1@XZ PROC ; std::_Tree_const_iterator<std::_Tree_val<std::_Tmap_traits<unsigned long,ioUIRenderImage *,std::less<unsigned long>,std::allocator<std::pair<unsigned long const ,ioUIRenderImage *> >,0> > >::operator*, COMDAT
; _this$ = ecx

; 231  :  #if _ITERATOR_DEBUG_LEVEL == 2
; 232  : 		if (this->_Getcont() == 0
; 233  : 			|| this->_Ptr == 0
; 234  : 			|| this->_Ptr == ((_Mytree *)this->_Getcont())->_Myhead)
; 235  : 			{	// report error
; 236  : 			_DEBUG_ERROR("map/set iterator not dereferencable");
; 237  : 			_SCL_SECURE_OUT_OF_RANGE;
; 238  : 			}
; 239  : 
; 240  :  #elif _ITERATOR_DEBUG_LEVEL == 1
; 241  : 		_SCL_SECURE_VALIDATE(this->_Getcont() != 0 && this->_Ptr != 0);
; 242  : 		_SCL_SECURE_VALIDATE_RANGE(this->_Ptr !=
; 243  : 			((_Mytree *)this->_Getcont())->_Myhead);
; 244  :  #endif /* _ITERATOR_DEBUG_LEVEL */
; 245  : 
; 246  : 		return (_Mytree::_Myval(this->_Ptr));

  00000	8b 01		 mov	 eax, DWORD PTR [ecx]
  00002	83 c0 0c	 add	 eax, 12			; 0000000cH

; 247  : 		}

  00005	c3		 ret	 0
??D?$_Tree_const_iterator@V?$_Tree_val@V?$_Tmap_traits@KPAVioUIRenderImage@@U?$less@K@std@@V?$allocator@U?$pair@$$CBKPAVioUIRenderImage@@@std@@@3@$0A@@std@@@std@@@std@@QBEABU?$pair@$$CBKPAVioUIRenderImage@@@1@XZ ENDP ; std::_Tree_const_iterator<std::_Tree_val<std::_Tmap_traits<unsigned long,ioUIRenderImage *,std::less<unsigned long>,std::allocator<std::pair<unsigned long const ,ioUIRenderImage *> >,0> > >::operator*
_TEXT	ENDS
PUBLIC	??0?$_Tree_unchecked_const_iterator@V?$_Tree_val@V?$_Tmap_traits@KPAVioUIRenderImage@@U?$less@K@std@@V?$allocator@U?$pair@$$CBKPAVioUIRenderImage@@@std@@@3@$0A@@std@@@std@@U_Iterator_base0@2@@std@@QAE@XZ ; std::_Tree_unchecked_const_iterator<std::_Tree_val<std::_Tmap_traits<unsigned long,ioUIRenderImage *,std::less<unsigned long>,std::allocator<std::pair<unsigned long const ,ioUIRenderImage *> >,0> >,std::_Iterator_base0>::_Tree_unchecked_const_iterator<std::_Tree_val<std::_Tmap_traits<unsigned long,ioUIRenderImage *,std::less<unsigned long>,std::allocator<std::pair<unsigned long const ,ioUIRenderImage *> >,0> >,std::_Iterator_base0>
; Function compile flags: /Ogsp
;	COMDAT ??0?$_Tree_unchecked_const_iterator@V?$_Tree_val@V?$_Tmap_traits@KPAVioUIRenderImage@@U?$less@K@std@@V?$allocator@U?$pair@$$CBKPAVioUIRenderImage@@@std@@@3@$0A@@std@@@std@@U_Iterator_base0@2@@std@@QAE@XZ
_TEXT	SEGMENT
??0?$_Tree_unchecked_const_iterator@V?$_Tree_val@V?$_Tmap_traits@KPAVioUIRenderImage@@U?$less@K@std@@V?$allocator@U?$pair@$$CBKPAVioUIRenderImage@@@std@@@3@$0A@@std@@@std@@U_Iterator_base0@2@@std@@QAE@XZ PROC ; std::_Tree_unchecked_const_iterator<std::_Tree_val<std::_Tmap_traits<unsigned long,ioUIRenderImage *,std::less<unsigned long>,std::allocator<std::pair<unsigned long const ,ioUIRenderImage *> >,0> >,std::_Iterator_base0>::_Tree_unchecked_const_iterator<std::_Tree_val<std::_Tmap_traits<unsigned long,ioUIRenderImage *,std::less<unsigned long>,std::allocator<std::pair<unsigned long const ,ioUIRenderImage *> >,0> >,std::_Iterator_base0>, COMDAT
; _this$ = ecx

; 38   : 		{	// construct with null node pointer

  00000	8b c1		 mov	 eax, ecx
  00002	83 20 00	 and	 DWORD PTR [eax], 0

; 39   : 		}

  00005	c3		 ret	 0
??0?$_Tree_unchecked_const_iterator@V?$_Tree_val@V?$_Tmap_traits@KPAVioUIRenderImage@@U?$less@K@std@@V?$allocator@U?$pair@$$CBKPAVioUIRenderImage@@@std@@@3@$0A@@std@@@std@@U_Iterator_base0@2@@std@@QAE@XZ ENDP ; std::_Tree_unchecked_const_iterator<std::_Tree_val<std::_Tmap_traits<unsigned long,ioUIRenderImage *,std::less<unsigned long>,std::allocator<std::pair<unsigned long const ,ioUIRenderImage *> >,0> >,std::_Iterator_base0>::_Tree_unchecked_const_iterator<std::_Tree_val<std::_Tmap_traits<unsigned long,ioUIRenderImage *,std::less<unsigned long>,std::allocator<std::pair<unsigned long const ,ioUIRenderImage *> >,0> >,std::_Iterator_base0>
_TEXT	ENDS
PUBLIC	??0?$_Vector_const_iterator@V?$_Vector_val@PAUCustomMarkData@ioGuildMarkMgr@@V?$allocator@PAUCustomMarkData@ioGuildMarkMgr@@@std@@@std@@@std@@QAE@PAPAUCustomMarkData@ioGuildMarkMgr@@PBU_Container_base0@1@@Z ; std::_Vector_const_iterator<std::_Vector_val<ioGuildMarkMgr::CustomMarkData *,std::allocator<ioGuildMarkMgr::CustomMarkData *> > >::_Vector_const_iterator<std::_Vector_val<ioGuildMarkMgr::CustomMarkData *,std::allocator<ioGuildMarkMgr::CustomMarkData *> > >
; Function compile flags: /Ogsp
; File c:\program files (x86)\microsoft visual studio 10.0\vc\include\vector
;	COMDAT ??0?$_Vector_const_iterator@V?$_Vector_val@PAUCustomMarkData@ioGuildMarkMgr@@V?$allocator@PAUCustomMarkData@ioGuildMarkMgr@@@std@@@std@@@std@@QAE@PAPAUCustomMarkData@ioGuildMarkMgr@@PBU_Container_base0@1@@Z
_TEXT	SEGMENT
__Parg$ = 8						; size = 4
__Pvector$ = 12						; size = 4
??0?$_Vector_const_iterator@V?$_Vector_val@PAUCustomMarkData@ioGuildMarkMgr@@V?$allocator@PAUCustomMarkData@ioGuildMarkMgr@@@std@@@std@@@std@@QAE@PAPAUCustomMarkData@ioGuildMarkMgr@@PBU_Container_base0@1@@Z PROC ; std::_Vector_const_iterator<std::_Vector_val<ioGuildMarkMgr::CustomMarkData *,std::allocator<ioGuildMarkMgr::CustomMarkData *> > >::_Vector_const_iterator<std::_Vector_val<ioGuildMarkMgr::CustomMarkData *,std::allocator<ioGuildMarkMgr::CustomMarkData *> > >, COMDAT
; _this$ = ecx

; 45   : 		{	// construct with pointer _Parg

  00000	55		 push	 ebp
  00001	8b ec		 mov	 ebp, esp
  00003	8b c1		 mov	 eax, ecx
  00005	8b 4d 08	 mov	 ecx, DWORD PTR __Parg$[ebp]
  00008	89 08		 mov	 DWORD PTR [eax], ecx

; 46   : 		this->_Adopt(_Pvector);
; 47   : 		}

  0000a	5d		 pop	 ebp
  0000b	c2 08 00	 ret	 8
??0?$_Vector_const_iterator@V?$_Vector_val@PAUCustomMarkData@ioGuildMarkMgr@@V?$allocator@PAUCustomMarkData@ioGuildMarkMgr@@@std@@@std@@@std@@QAE@PAPAUCustomMarkData@ioGuildMarkMgr@@PBU_Container_base0@1@@Z ENDP ; std::_Vector_const_iterator<std::_Vector_val<ioGuildMarkMgr::CustomMarkData *,std::allocator<ioGuildMarkMgr::CustomMarkData *> > >::_Vector_const_iterator<std::_Vector_val<ioGuildMarkMgr::CustomMarkData *,std::allocator<ioGuildMarkMgr::CustomMarkData *> > >
_TEXT	ENDS
PUBLIC	??E?$_Vector_const_iterator@V?$_Vector_val@PAUCustomMarkData@ioGuildMarkMgr@@V?$allocator@PAUCustomMarkData@ioGuildMarkMgr@@@std@@@std@@@std@@QAEAAV01@XZ ; std::_Vector_const_iterator<std::_Vector_val<ioGuildMarkMgr::CustomMarkData *,std::allocator<ioGuildMarkMgr::CustomMarkData *> > >::operator++
; Function compile flags: /Ogsp
;	COMDAT ??E?$_Vector_const_iterator@V?$_Vector_val@PAUCustomMarkData@ioGuildMarkMgr@@V?$allocator@PAUCustomMarkData@ioGuildMarkMgr@@@std@@@std@@@std@@QAEAAV01@XZ
_TEXT	SEGMENT
??E?$_Vector_const_iterator@V?$_Vector_val@PAUCustomMarkData@ioGuildMarkMgr@@V?$allocator@PAUCustomMarkData@ioGuildMarkMgr@@@std@@@std@@@std@@QAEAAV01@XZ PROC ; std::_Vector_const_iterator<std::_Vector_val<ioGuildMarkMgr::CustomMarkData *,std::allocator<ioGuildMarkMgr::CustomMarkData *> > >::operator++, COMDAT
; _this$ = ecx

; 93   : 		{	// preincrement

  00000	8b c1		 mov	 eax, ecx

; 94   :  #if _ITERATOR_DEBUG_LEVEL == 2
; 95   : 		if (this->_Getcont() == 0
; 96   : 			|| this->_Ptr == 0
; 97   : 			|| ((_Myvec *)this->_Getcont())->_Mylast <= this->_Ptr)
; 98   : 			{	// report error
; 99   : 			_DEBUG_ERROR("vector iterator not incrementable");
; 100  : 			_SCL_SECURE_OUT_OF_RANGE;
; 101  : 			}
; 102  : 
; 103  :  #elif _ITERATOR_DEBUG_LEVEL == 1
; 104  : 		_SCL_SECURE_VALIDATE(this->_Getcont() != 0);
; 105  : 		_SCL_SECURE_VALIDATE_RANGE(
; 106  : 			this->_Ptr != 0
; 107  : 			&& this->_Ptr < ((_Myvec *)this->_Getcont())->_Mylast);
; 108  :  #endif /* _ITERATOR_DEBUG_LEVEL */
; 109  : 
; 110  : 		++this->_Ptr;

  00002	83 00 04	 add	 DWORD PTR [eax], 4

; 111  : 		return (*this);
; 112  : 		}

  00005	c3		 ret	 0
??E?$_Vector_const_iterator@V?$_Vector_val@PAUCustomMarkData@ioGuildMarkMgr@@V?$allocator@PAUCustomMarkData@ioGuildMarkMgr@@@std@@@std@@@std@@QAEAAV01@XZ ENDP ; std::_Vector_const_iterator<std::_Vector_val<ioGuildMarkMgr::CustomMarkData *,std::allocator<ioGuildMarkMgr::CustomMarkData *> > >::operator++
_TEXT	ENDS
PUBLIC	?_Compat@?$_Vector_const_iterator@V?$_Vector_val@PAUCustomMarkData@ioGuildMarkMgr@@V?$allocator@PAUCustomMarkData@ioGuildMarkMgr@@@std@@@std@@@std@@QBEXABV12@@Z ; std::_Vector_const_iterator<std::_Vector_val<ioGuildMarkMgr::CustomMarkData *,std::allocator<ioGuildMarkMgr::CustomMarkData *> > >::_Compat
; Function compile flags: /Ogsp
;	COMDAT ?_Compat@?$_Vector_const_iterator@V?$_Vector_val@PAUCustomMarkData@ioGuildMarkMgr@@V?$allocator@PAUCustomMarkData@ioGuildMarkMgr@@@std@@@std@@@std@@QBEXABV12@@Z
_TEXT	SEGMENT
___formal$ = 8						; size = 4
?_Compat@?$_Vector_const_iterator@V?$_Vector_val@PAUCustomMarkData@ioGuildMarkMgr@@V?$allocator@PAUCustomMarkData@ioGuildMarkMgr@@@std@@@std@@@std@@QBEXABV12@@Z PROC ; std::_Vector_const_iterator<std::_Vector_val<ioGuildMarkMgr::CustomMarkData *,std::allocator<ioGuildMarkMgr::CustomMarkData *> > >::_Compat, COMDAT
; _this$ = ecx

; 253  : 		}

  00000	c2 04 00	 ret	 4
?_Compat@?$_Vector_const_iterator@V?$_Vector_val@PAUCustomMarkData@ioGuildMarkMgr@@V?$allocator@PAUCustomMarkData@ioGuildMarkMgr@@@std@@@std@@@std@@QBEXABV12@@Z ENDP ; std::_Vector_const_iterator<std::_Vector_val<ioGuildMarkMgr::CustomMarkData *,std::allocator<ioGuildMarkMgr::CustomMarkData *> > >::_Compat
_TEXT	ENDS
PUBLIC	?_Color@?$_Tree_val@V?$_Tmap_traits@KPAVioUIRenderImage@@U?$less@K@std@@V?$allocator@U?$pair@$$CBKPAVioUIRenderImage@@@std@@@3@$0A@@std@@@std@@SAAADPAU_Node@?$_Tree_nod@V?$_Tmap_traits@KPAVioUIRenderImage@@U?$less@K@std@@V?$allocator@U?$pair@$$CBKPAVioUIRenderImage@@@std@@@3@$0A@@std@@@2@@Z ; std::_Tree_val<std::_Tmap_traits<unsigned long,ioUIRenderImage *,std::less<unsigned long>,std::allocator<std::pair<unsigned long const ,ioUIRenderImage *> >,0> >::_Color
; Function compile flags: /Ogsp
; File c:\program files (x86)\microsoft visual studio 10.0\vc\include\xtree
;	COMDAT ?_Color@?$_Tree_val@V?$_Tmap_traits@KPAVioUIRenderImage@@U?$less@K@std@@V?$allocator@U?$pair@$$CBKPAVioUIRenderImage@@@std@@@3@$0A@@std@@@std@@SAAADPAU_Node@?$_Tree_nod@V?$_Tmap_traits@KPAVioUIRenderImage@@U?$less@K@std@@V?$allocator@U?$pair@$$CBKPAVioUIRenderImage@@@std@@@3@$0A@@std@@@2@@Z
_TEXT	SEGMENT
__Pnode$ = 8						; size = 4
?_Color@?$_Tree_val@V?$_Tmap_traits@KPAVioUIRenderImage@@U?$less@K@std@@V?$allocator@U?$pair@$$CBKPAVioUIRenderImage@@@std@@@3@$0A@@std@@@std@@SAAADPAU_Node@?$_Tree_nod@V?$_Tmap_traits@KPAVioUIRenderImage@@U?$less@K@std@@V?$allocator@U?$pair@$$CBKPAVioUIRenderImage@@@std@@@3@$0A@@std@@@2@@Z PROC ; std::_Tree_val<std::_Tmap_traits<unsigned long,ioUIRenderImage *,std::less<unsigned long>,std::allocator<std::pair<unsigned long const ,ioUIRenderImage *> >,0> >::_Color, COMDAT

; 606  : 		{	// return reference to color in node

  00000	55		 push	 ebp
  00001	8b ec		 mov	 ebp, esp

; 607  : 		return ((char&)(*_Pnode)._Color);

  00003	8b 45 08	 mov	 eax, DWORD PTR __Pnode$[ebp]
  00006	83 c0 14	 add	 eax, 20			; 00000014H

; 608  : 		}

  00009	5d		 pop	 ebp
  0000a	c3		 ret	 0
?_Color@?$_Tree_val@V?$_Tmap_traits@KPAVioUIRenderImage@@U?$less@K@std@@V?$allocator@U?$pair@$$CBKPAVioUIRenderImage@@@std@@@3@$0A@@std@@@std@@SAAADPAU_Node@?$_Tree_nod@V?$_Tmap_traits@KPAVioUIRenderImage@@U?$less@K@std@@V?$allocator@U?$pair@$$CBKPAVioUIRenderImage@@@std@@@3@$0A@@std@@@2@@Z ENDP ; std::_Tree_val<std::_Tmap_traits<unsigned long,ioUIRenderImage *,std::less<unsigned long>,std::allocator<std::pair<unsigned long const ,ioUIRenderImage *> >,0> >::_Color
_TEXT	ENDS
PUBLIC	?_Min@?$_Tree_val@V?$_Tmap_traits@KPAVioUIRenderImage@@U?$less@K@std@@V?$allocator@U?$pair@$$CBKPAVioUIRenderImage@@@std@@@3@$0A@@std@@@std@@SAPAU_Node@?$_Tree_nod@V?$_Tmap_traits@KPAVioUIRenderImage@@U?$less@K@std@@V?$allocator@U?$pair@$$CBKPAVioUIRenderImage@@@std@@@3@$0A@@std@@@2@PAU342@@Z ; std::_Tree_val<std::_Tmap_traits<unsigned long,ioUIRenderImage *,std::less<unsigned long>,std::allocator<std::pair<unsigned long const ,ioUIRenderImage *> >,0> >::_Min
; Function compile flags: /Ogsp
;	COMDAT ?_Min@?$_Tree_val@V?$_Tmap_traits@KPAVioUIRenderImage@@U?$less@K@std@@V?$allocator@U?$pair@$$CBKPAVioUIRenderImage@@@std@@@3@$0A@@std@@@std@@SAPAU_Node@?$_Tree_nod@V?$_Tmap_traits@KPAVioUIRenderImage@@U?$less@K@std@@V?$allocator@U?$pair@$$CBKPAVioUIRenderImage@@@std@@@3@$0A@@std@@@2@PAU342@@Z
_TEXT	SEGMENT
__Pnode$ = 8						; size = 4
?_Min@?$_Tree_val@V?$_Tmap_traits@KPAVioUIRenderImage@@U?$less@K@std@@V?$allocator@U?$pair@$$CBKPAVioUIRenderImage@@@std@@@3@$0A@@std@@@std@@SAPAU_Node@?$_Tree_nod@V?$_Tmap_traits@KPAVioUIRenderImage@@U?$less@K@std@@V?$allocator@U?$pair@$$CBKPAVioUIRenderImage@@@std@@@3@$0A@@std@@@2@PAU342@@Z PROC ; std::_Tree_val<std::_Tmap_traits<unsigned long,ioUIRenderImage *,std::less<unsigned long>,std::allocator<std::pair<unsigned long const ,ioUIRenderImage *> >,0> >::_Min, COMDAT

; 648  : 		{	// return leftmost node in subtree at _Pnode

  00000	55		 push	 ebp
  00001	8b ec		 mov	 ebp, esp

; 649  : 		while (!_Isnil(_Left(_Pnode)))

  00003	8b 45 08	 mov	 eax, DWORD PTR __Pnode$[ebp]
  00006	eb 02		 jmp	 SHORT $LN14@Min
$LL2@Min:

; 650  : 			_Pnode = _Left(_Pnode);

  00008	8b c1		 mov	 eax, ecx
$LN14@Min:

; 649  : 		while (!_Isnil(_Left(_Pnode)))

  0000a	8b 08		 mov	 ecx, DWORD PTR [eax]
  0000c	80 79 15 00	 cmp	 BYTE PTR [ecx+21], 0
  00010	74 f6		 je	 SHORT $LL2@Min

; 651  : 		return (_Pnode);
; 652  : 		}

  00012	5d		 pop	 ebp
  00013	c3		 ret	 0
?_Min@?$_Tree_val@V?$_Tmap_traits@KPAVioUIRenderImage@@U?$less@K@std@@V?$allocator@U?$pair@$$CBKPAVioUIRenderImage@@@std@@@3@$0A@@std@@@std@@SAPAU_Node@?$_Tree_nod@V?$_Tmap_traits@KPAVioUIRenderImage@@U?$less@K@std@@V?$allocator@U?$pair@$$CBKPAVioUIRenderImage@@@std@@@3@$0A@@std@@@2@PAU342@@Z ENDP ; std::_Tree_val<std::_Tmap_traits<unsigned long,ioUIRenderImage *,std::less<unsigned long>,std::allocator<std::pair<unsigned long const ,ioUIRenderImage *> >,0> >::_Min
_TEXT	ENDS
PUBLIC	?max_size@?$allocator@PAUCustomMarkData@ioGuildMarkMgr@@@std@@QBEIXZ ; std::allocator<ioGuildMarkMgr::CustomMarkData *>::max_size
; Function compile flags: /Ogsp
; File c:\program files (x86)\microsoft visual studio 10.0\vc\include\xmemory
;	COMDAT ?max_size@?$allocator@PAUCustomMarkData@ioGuildMarkMgr@@@std@@QBEIXZ
_TEXT	SEGMENT
?max_size@?$allocator@PAUCustomMarkData@ioGuildMarkMgr@@@std@@QBEIXZ PROC ; std::allocator<ioGuildMarkMgr::CustomMarkData *>::max_size, COMDAT
; _this$ = ecx

; 218  : 		_SIZT _Count = (_SIZT)(-1) / sizeof (_Ty);
; 219  : 		return (0 < _Count ? _Count : 1);

  00000	b8 ff ff ff 3f	 mov	 eax, 1073741823		; 3fffffffH

; 220  : 		}

  00005	c3		 ret	 0
?max_size@?$allocator@PAUCustomMarkData@ioGuildMarkMgr@@@std@@QBEIXZ ENDP ; std::allocator<ioGuildMarkMgr::CustomMarkData *>::max_size
_TEXT	ENDS
PUBLIC	?_Myval@?$_List_val@KV?$allocator@K@std@@@std@@SAAAKPAU_Node@?$_List_nod@KV?$allocator@K@std@@@2@@Z ; std::_List_val<unsigned long,std::allocator<unsigned long> >::_Myval
; Function compile flags: /Ogsp
; File c:\program files (x86)\microsoft visual studio 10.0\vc\include\list
;	COMDAT ?_Myval@?$_List_val@KV?$allocator@K@std@@@std@@SAAAKPAU_Node@?$_List_nod@KV?$allocator@K@std@@@2@@Z
_TEXT	SEGMENT
__Pnode$ = 8						; size = 4
?_Myval@?$_List_val@KV?$allocator@K@std@@@std@@SAAAKPAU_Node@?$_List_nod@KV?$allocator@K@std@@@2@@Z PROC ; std::_List_val<unsigned long,std::allocator<unsigned long> >::_Myval, COMDAT

; 570  : 		{	// return reference to value in node

  00000	55		 push	 ebp
  00001	8b ec		 mov	 ebp, esp

; 571  : 		return ((reference)(*_Pnode)._Myval);

  00003	8b 45 08	 mov	 eax, DWORD PTR __Pnode$[ebp]
  00006	83 c0 08	 add	 eax, 8

; 572  : 		}

  00009	5d		 pop	 ebp
  0000a	c3		 ret	 0
?_Myval@?$_List_val@KV?$allocator@K@std@@@std@@SAAAKPAU_Node@?$_List_nod@KV?$allocator@K@std@@@2@@Z ENDP ; std::_List_val<unsigned long,std::allocator<unsigned long> >::_Myval
_TEXT	ENDS
PUBLIC	??0?$_List_unchecked_const_iterator@V?$_List_val@KV?$allocator@K@std@@@std@@U_Iterator_base0@2@@std@@QAE@PAU_Node@?$_List_nod@KV?$allocator@K@std@@@1@PBV?$_List_val@KV?$allocator@K@std@@@1@@Z ; std::_List_unchecked_const_iterator<std::_List_val<unsigned long,std::allocator<unsigned long> >,std::_Iterator_base0>::_List_unchecked_const_iterator<std::_List_val<unsigned long,std::allocator<unsigned long> >,std::_Iterator_base0>
; Function compile flags: /Ogsp
;	COMDAT ??0?$_List_unchecked_const_iterator@V?$_List_val@KV?$allocator@K@std@@@std@@U_Iterator_base0@2@@std@@QAE@PAU_Node@?$_List_nod@KV?$allocator@K@std@@@1@PBV?$_List_val@KV?$allocator@K@std@@@1@@Z
_TEXT	SEGMENT
__Pnode$ = 8						; size = 4
__Plist$ = 12						; size = 4
??0?$_List_unchecked_const_iterator@V?$_List_val@KV?$allocator@K@std@@@std@@U_Iterator_base0@2@@std@@QAE@PAU_Node@?$_List_nod@KV?$allocator@K@std@@@1@PBV?$_List_val@KV?$allocator@K@std@@@1@@Z PROC ; std::_List_unchecked_const_iterator<std::_List_val<unsigned long,std::allocator<unsigned long> >,std::_Iterator_base0>::_List_unchecked_const_iterator<std::_List_val<unsigned long,std::allocator<unsigned long> >,std::_Iterator_base0>, COMDAT
; _this$ = ecx

; 41   : 		{	// construct with node pointer _Pnode

  00000	55		 push	 ebp
  00001	8b ec		 mov	 ebp, esp
  00003	8b c1		 mov	 eax, ecx
  00005	8b 4d 08	 mov	 ecx, DWORD PTR __Pnode$[ebp]
  00008	89 08		 mov	 DWORD PTR [eax], ecx

; 42   : 		this->_Adopt(_Plist);
; 43   : 		}

  0000a	5d		 pop	 ebp
  0000b	c2 08 00	 ret	 8
??0?$_List_unchecked_const_iterator@V?$_List_val@KV?$allocator@K@std@@@std@@U_Iterator_base0@2@@std@@QAE@PAU_Node@?$_List_nod@KV?$allocator@K@std@@@1@PBV?$_List_val@KV?$allocator@K@std@@@1@@Z ENDP ; std::_List_unchecked_const_iterator<std::_List_val<unsigned long,std::allocator<unsigned long> >,std::_Iterator_base0>::_List_unchecked_const_iterator<std::_List_val<unsigned long,std::allocator<unsigned long> >,std::_Iterator_base0>
_TEXT	ENDS
PUBLIC	??0?$_Tree_unchecked_const_iterator@V?$_Tree_val@V?$_Tmap_traits@KPAVioUIRenderImage@@U?$less@K@std@@V?$allocator@U?$pair@$$CBKPAVioUIRenderImage@@@std@@@3@$0A@@std@@@std@@U_Iterator_base0@2@@std@@QAE@PAU_Node@?$_Tree_nod@V?$_Tmap_traits@KPAVioUIRenderImage@@U?$less@K@std@@V?$allocator@U?$pair@$$CBKPAVioUIRenderImage@@@std@@@3@$0A@@std@@@1@PBV?$_Tree_val@V?$_Tmap_traits@KPAVioUIRenderImage@@U?$less@K@std@@V?$allocator@U?$pair@$$CBKPAVioUIRenderImage@@@std@@@3@$0A@@std@@@1@@Z ; std::_Tree_unchecked_const_iterator<std::_Tree_val<std::_Tmap_traits<unsigned long,ioUIRenderImage *,std::less<unsigned long>,std::allocator<std::pair<unsigned long const ,ioUIRenderImage *> >,0> >,std::_Iterator_base0>::_Tree_unchecked_const_iterator<std::_Tree_val<std::_Tmap_traits<unsigned long,ioUIRenderImage *,std::less<unsigned long>,std::allocator<std::pair<unsigned long const ,ioUIRenderImage *> >,0> >,std::_Iterator_base0>
; Function compile flags: /Ogsp
; File c:\program files (x86)\microsoft visual studio 10.0\vc\include\xtree
;	COMDAT ??0?$_Tree_unchecked_const_iterator@V?$_Tree_val@V?$_Tmap_traits@KPAVioUIRenderImage@@U?$less@K@std@@V?$allocator@U?$pair@$$CBKPAVioUIRenderImage@@@std@@@3@$0A@@std@@@std@@U_Iterator_base0@2@@std@@QAE@PAU_Node@?$_Tree_nod@V?$_Tmap_traits@KPAVioUIRenderImage@@U?$less@K@std@@V?$allocator@U?$pair@$$CBKPAVioUIRenderImage@@@std@@@3@$0A@@std@@@1@PBV?$_Tree_val@V?$_Tmap_traits@KPAVioUIRenderImage@@U?$less@K@std@@V?$allocator@U?$pair@$$CBKPAVioUIRenderImage@@@std@@@3@$0A@@std@@@1@@Z
_TEXT	SEGMENT
__Pnode$ = 8						; size = 4
__Plist$ = 12						; size = 4
??0?$_Tree_unchecked_const_iterator@V?$_Tree_val@V?$_Tmap_traits@KPAVioUIRenderImage@@U?$less@K@std@@V?$allocator@U?$pair@$$CBKPAVioUIRenderImage@@@std@@@3@$0A@@std@@@std@@U_Iterator_base0@2@@std@@QAE@PAU_Node@?$_Tree_nod@V?$_Tmap_traits@KPAVioUIRenderImage@@U?$less@K@std@@V?$allocator@U?$pair@$$CBKPAVioUIRenderImage@@@std@@@3@$0A@@std@@@1@PBV?$_Tree_val@V?$_Tmap_traits@KPAVioUIRenderImage@@U?$less@K@std@@V?$allocator@U?$pair@$$CBKPAVioUIRenderImage@@@std@@@3@$0A@@std@@@1@@Z PROC ; std::_Tree_unchecked_const_iterator<std::_Tree_val<std::_Tmap_traits<unsigned long,ioUIRenderImage *,std::less<unsigned long>,std::allocator<std::pair<unsigned long const ,ioUIRenderImage *> >,0> >,std::_Iterator_base0>::_Tree_unchecked_const_iterator<std::_Tree_val<std::_Tmap_traits<unsigned long,ioUIRenderImage *,std::less<unsigned long>,std::allocator<std::pair<unsigned long const ,ioUIRenderImage *> >,0> >,std::_Iterator_base0>, COMDAT
; _this$ = ecx

; 43   : 		{	// construct with node pointer _Pnode

  00000	55		 push	 ebp
  00001	8b ec		 mov	 ebp, esp
  00003	8b c1		 mov	 eax, ecx
  00005	8b 4d 08	 mov	 ecx, DWORD PTR __Pnode$[ebp]
  00008	89 08		 mov	 DWORD PTR [eax], ecx

; 44   : 		this->_Adopt(_Plist);
; 45   : 		}

  0000a	5d		 pop	 ebp
  0000b	c2 08 00	 ret	 8
??0?$_Tree_unchecked_const_iterator@V?$_Tree_val@V?$_Tmap_traits@KPAVioUIRenderImage@@U?$less@K@std@@V?$allocator@U?$pair@$$CBKPAVioUIRenderImage@@@std@@@3@$0A@@std@@@std@@U_Iterator_base0@2@@std@@QAE@PAU_Node@?$_Tree_nod@V?$_Tmap_traits@KPAVioUIRenderImage@@U?$less@K@std@@V?$allocator@U?$pair@$$CBKPAVioUIRenderImage@@@std@@@3@$0A@@std@@@1@PBV?$_Tree_val@V?$_Tmap_traits@KPAVioUIRenderImage@@U?$less@K@std@@V?$allocator@U?$pair@$$CBKPAVioUIRenderImage@@@std@@@3@$0A@@std@@@1@@Z ENDP ; std::_Tree_unchecked_const_iterator<std::_Tree_val<std::_Tmap_traits<unsigned long,ioUIRenderImage *,std::less<unsigned long>,std::allocator<std::pair<unsigned long const ,ioUIRenderImage *> >,0> >,std::_Iterator_base0>::_Tree_unchecked_const_iterator<std::_Tree_val<std::_Tmap_traits<unsigned long,ioUIRenderImage *,std::less<unsigned long>,std::allocator<std::pair<unsigned long const ,ioUIRenderImage *> >,0> >,std::_Iterator_base0>
_TEXT	ENDS
PUBLIC	?_Max@?$_Tree_val@V?$_Tmap_traits@KPAVioUIRenderImage@@U?$less@K@std@@V?$allocator@U?$pair@$$CBKPAVioUIRenderImage@@@std@@@3@$0A@@std@@@std@@SAPAU_Node@?$_Tree_nod@V?$_Tmap_traits@KPAVioUIRenderImage@@U?$less@K@std@@V?$allocator@U?$pair@$$CBKPAVioUIRenderImage@@@std@@@3@$0A@@std@@@2@PAU342@@Z ; std::_Tree_val<std::_Tmap_traits<unsigned long,ioUIRenderImage *,std::less<unsigned long>,std::allocator<std::pair<unsigned long const ,ioUIRenderImage *> >,0> >::_Max
; Function compile flags: /Ogsp
;	COMDAT ?_Max@?$_Tree_val@V?$_Tmap_traits@KPAVioUIRenderImage@@U?$less@K@std@@V?$allocator@U?$pair@$$CBKPAVioUIRenderImage@@@std@@@3@$0A@@std@@@std@@SAPAU_Node@?$_Tree_nod@V?$_Tmap_traits@KPAVioUIRenderImage@@U?$less@K@std@@V?$allocator@U?$pair@$$CBKPAVioUIRenderImage@@@std@@@3@$0A@@std@@@2@PAU342@@Z
_TEXT	SEGMENT
__Pnode$ = 8						; size = 4
?_Max@?$_Tree_val@V?$_Tmap_traits@KPAVioUIRenderImage@@U?$less@K@std@@V?$allocator@U?$pair@$$CBKPAVioUIRenderImage@@@std@@@3@$0A@@std@@@std@@SAPAU_Node@?$_Tree_nod@V?$_Tmap_traits@KPAVioUIRenderImage@@U?$less@K@std@@V?$allocator@U?$pair@$$CBKPAVioUIRenderImage@@@std@@@3@$0A@@std@@@2@PAU342@@Z PROC ; std::_Tree_val<std::_Tmap_traits<unsigned long,ioUIRenderImage *,std::less<unsigned long>,std::allocator<std::pair<unsigned long const ,ioUIRenderImage *> >,0> >::_Max, COMDAT

; 641  : 		{	// return rightmost node in subtree at _Pnode

  00000	55		 push	 ebp
  00001	8b ec		 mov	 ebp, esp

; 642  : 		while (!_Isnil(_Right(_Pnode)))

  00003	8b 45 08	 mov	 eax, DWORD PTR __Pnode$[ebp]
  00006	eb 02		 jmp	 SHORT $LN14@Max
$LL2@Max:

; 643  : 			_Pnode = _Right(_Pnode);

  00008	8b c1		 mov	 eax, ecx
$LN14@Max:

; 642  : 		while (!_Isnil(_Right(_Pnode)))

  0000a	8b 48 08	 mov	 ecx, DWORD PTR [eax+8]
  0000d	80 79 15 00	 cmp	 BYTE PTR [ecx+21], 0
  00011	74 f5		 je	 SHORT $LL2@Max

; 644  : 		return (_Pnode);
; 645  : 		}

  00013	5d		 pop	 ebp
  00014	c3		 ret	 0
?_Max@?$_Tree_val@V?$_Tmap_traits@KPAVioUIRenderImage@@U?$less@K@std@@V?$allocator@U?$pair@$$CBKPAVioUIRenderImage@@@std@@@3@$0A@@std@@@std@@SAPAU_Node@?$_Tree_nod@V?$_Tmap_traits@KPAVioUIRenderImage@@U?$less@K@std@@V?$allocator@U?$pair@$$CBKPAVioUIRenderImage@@@std@@@3@$0A@@std@@@2@PAU342@@Z ENDP ; std::_Tree_val<std::_Tmap_traits<unsigned long,ioUIRenderImage *,std::less<unsigned long>,std::allocator<std::pair<unsigned long const ,ioUIRenderImage *> >,0> >::_Max
_TEXT	ENDS
PUBLIC	??0?$_Tmap_traits@KPAVioUIRenderImage@@U?$less@K@std@@V?$allocator@U?$pair@$$CBKPAVioUIRenderImage@@@std@@@3@$0A@@std@@QAE@U?$less@K@1@@Z ; std::_Tmap_traits<unsigned long,ioUIRenderImage *,std::less<unsigned long>,std::allocator<std::pair<unsigned long const ,ioUIRenderImage *> >,0>::_Tmap_traits<unsigned long,ioUIRenderImage *,std::less<unsigned long>,std::allocator<std::pair<unsigned long const ,ioUIRenderImage *> >,0>
; Function compile flags: /Ogsp
; File c:\program files (x86)\microsoft visual studio 10.0\vc\include\map
;	COMDAT ??0?$_Tmap_traits@KPAVioUIRenderImage@@U?$less@K@std@@V?$allocator@U?$pair@$$CBKPAVioUIRenderImage@@@std@@@3@$0A@@std@@QAE@U?$less@K@1@@Z
_TEXT	SEGMENT
__Parg$ = 8						; size = 1
??0?$_Tmap_traits@KPAVioUIRenderImage@@U?$less@K@std@@V?$allocator@U?$pair@$$CBKPAVioUIRenderImage@@@std@@@3@$0A@@std@@QAE@U?$less@K@1@@Z PROC ; std::_Tmap_traits<unsigned long,ioUIRenderImage *,std::less<unsigned long>,std::allocator<std::pair<unsigned long const ,ioUIRenderImage *> >,0>::_Tmap_traits<unsigned long,ioUIRenderImage *,std::less<unsigned long>,std::allocator<std::pair<unsigned long const ,ioUIRenderImage *> >,0>, COMDAT
; _this$ = ecx

; 40   : 		{	// construct with specified comparator

  00000	8b c1		 mov	 eax, ecx

; 41   : 		}

  00002	c2 04 00	 ret	 4
??0?$_Tmap_traits@KPAVioUIRenderImage@@U?$less@K@std@@V?$allocator@U?$pair@$$CBKPAVioUIRenderImage@@@std@@@3@$0A@@std@@QAE@U?$less@K@1@@Z ENDP ; std::_Tmap_traits<unsigned long,ioUIRenderImage *,std::less<unsigned long>,std::allocator<std::pair<unsigned long const ,ioUIRenderImage *> >,0>::_Tmap_traits<unsigned long,ioUIRenderImage *,std::less<unsigned long>,std::allocator<std::pair<unsigned long const ,ioUIRenderImage *> >,0>
_TEXT	ENDS
PUBLIC	??$addressof@QAUCustomMarkData@ioGuildMarkMgr@@@std@@YAPBQAUCustomMarkData@ioGuildMarkMgr@@ABQAU12@@Z ; std::addressof<ioGuildMarkMgr::CustomMarkData * const>
; Function compile flags: /Ogsp
; File c:\program files (x86)\microsoft visual studio 10.0\vc\include\xmemory
;	COMDAT ??$addressof@QAUCustomMarkData@ioGuildMarkMgr@@@std@@YAPBQAUCustomMarkData@ioGuildMarkMgr@@ABQAU12@@Z
_TEXT	SEGMENT
__Val$ = 8						; size = 4
??$addressof@QAUCustomMarkData@ioGuildMarkMgr@@@std@@YAPBQAUCustomMarkData@ioGuildMarkMgr@@ABQAU12@@Z PROC ; std::addressof<ioGuildMarkMgr::CustomMarkData * const>, COMDAT

; 110  : 	{	// return address of _Val

  00000	55		 push	 ebp
  00001	8b ec		 mov	 ebp, esp

; 111  : 	return ((_Ty *) &(char&)_Val);

  00003	8b 45 08	 mov	 eax, DWORD PTR __Val$[ebp]

; 112  : 	}

  00006	5d		 pop	 ebp
  00007	c3		 ret	 0
??$addressof@QAUCustomMarkData@ioGuildMarkMgr@@@std@@YAPBQAUCustomMarkData@ioGuildMarkMgr@@ABQAU12@@Z ENDP ; std::addressof<ioGuildMarkMgr::CustomMarkData * const>
_TEXT	ENDS
PUBLIC	??$addressof@U?$pair@$$CBKPAVioUIRenderImage@@@std@@@std@@YAPAU?$pair@$$CBKPAVioUIRenderImage@@@0@AAU10@@Z ; std::addressof<std::pair<unsigned long const ,ioUIRenderImage *> >
; Function compile flags: /Ogsp
;	COMDAT ??$addressof@U?$pair@$$CBKPAVioUIRenderImage@@@std@@@std@@YAPAU?$pair@$$CBKPAVioUIRenderImage@@@0@AAU10@@Z
_TEXT	SEGMENT
__Val$ = 8						; size = 4
??$addressof@U?$pair@$$CBKPAVioUIRenderImage@@@std@@@std@@YAPAU?$pair@$$CBKPAVioUIRenderImage@@@0@AAU10@@Z PROC ; std::addressof<std::pair<unsigned long const ,ioUIRenderImage *> >, COMDAT

; 110  : 	{	// return address of _Val

  00000	55		 push	 ebp
  00001	8b ec		 mov	 ebp, esp

; 111  : 	return ((_Ty *) &(char&)_Val);

  00003	8b 45 08	 mov	 eax, DWORD PTR __Val$[ebp]

; 112  : 	}

  00006	5d		 pop	 ebp
  00007	c3		 ret	 0
??$addressof@U?$pair@$$CBKPAVioUIRenderImage@@@std@@@std@@YAPAU?$pair@$$CBKPAVioUIRenderImage@@@0@AAU10@@Z ENDP ; std::addressof<std::pair<unsigned long const ,ioUIRenderImage *> >
_TEXT	ENDS
PUBLIC	??$_Kfn@$$CBKPAVioUIRenderImage@@@?$_Tmap_traits@KPAVioUIRenderImage@@U?$less@K@std@@V?$allocator@U?$pair@$$CBKPAVioUIRenderImage@@@std@@@3@$0A@@std@@SAABKABU?$pair@$$CBKPAVioUIRenderImage@@@1@@Z ; std::_Tmap_traits<unsigned long,ioUIRenderImage *,std::less<unsigned long>,std::allocator<std::pair<unsigned long const ,ioUIRenderImage *> >,0>::_Kfn<unsigned long const ,ioUIRenderImage *>
; Function compile flags: /Ogsp
; File c:\program files (x86)\microsoft visual studio 10.0\vc\include\map
;	COMDAT ??$_Kfn@$$CBKPAVioUIRenderImage@@@?$_Tmap_traits@KPAVioUIRenderImage@@U?$less@K@std@@V?$allocator@U?$pair@$$CBKPAVioUIRenderImage@@@std@@@3@$0A@@std@@SAABKABU?$pair@$$CBKPAVioUIRenderImage@@@1@@Z
_TEXT	SEGMENT
__Val$ = 8						; size = 4
??$_Kfn@$$CBKPAVioUIRenderImage@@@?$_Tmap_traits@KPAVioUIRenderImage@@U?$less@K@std@@V?$allocator@U?$pair@$$CBKPAVioUIRenderImage@@@std@@@3@$0A@@std@@SAABKABU?$pair@$$CBKPAVioUIRenderImage@@@1@@Z PROC ; std::_Tmap_traits<unsigned long,ioUIRenderImage *,std::less<unsigned long>,std::allocator<std::pair<unsigned long const ,ioUIRenderImage *> >,0>::_Kfn<unsigned long const ,ioUIRenderImage *>, COMDAT

; 66   : 		static const _Kty& _Kfn(const _STD pair<_Ty1, _Ty2>& _Val)

  00000	55		 push	 ebp
  00001	8b ec		 mov	 ebp, esp

; 67   : 		{	// extract key from element value
; 68   : 		return (_Val.first);

  00003	8b 45 08	 mov	 eax, DWORD PTR __Val$[ebp]

; 69   : 		}

  00006	5d		 pop	 ebp
  00007	c3		 ret	 0
??$_Kfn@$$CBKPAVioUIRenderImage@@@?$_Tmap_traits@KPAVioUIRenderImage@@U?$less@K@std@@V?$allocator@U?$pair@$$CBKPAVioUIRenderImage@@@std@@@3@$0A@@std@@SAABKABU?$pair@$$CBKPAVioUIRenderImage@@@1@@Z ENDP ; std::_Tmap_traits<unsigned long,ioUIRenderImage *,std::less<unsigned long>,std::allocator<std::pair<unsigned long const ,ioUIRenderImage *> >,0>::_Kfn<unsigned long const ,ioUIRenderImage *>
_TEXT	ENDS
PUBLIC	??$addressof@K@std@@YAPAKAAK@Z			; std::addressof<unsigned long>
; Function compile flags: /Ogsp
; File c:\program files (x86)\microsoft visual studio 10.0\vc\include\xmemory
;	COMDAT ??$addressof@K@std@@YAPAKAAK@Z
_TEXT	SEGMENT
__Val$ = 8						; size = 4
??$addressof@K@std@@YAPAKAAK@Z PROC			; std::addressof<unsigned long>, COMDAT

; 110  : 	{	// return address of _Val

  00000	55		 push	 ebp
  00001	8b ec		 mov	 ebp, esp

; 111  : 	return ((_Ty *) &(char&)_Val);

  00003	8b 45 08	 mov	 eax, DWORD PTR __Val$[ebp]

; 112  : 	}

  00006	5d		 pop	 ebp
  00007	c3		 ret	 0
??$addressof@K@std@@YAPAKAAK@Z ENDP			; std::addressof<unsigned long>
_TEXT	ENDS
PUBLIC	??$?0K@?$allocator@U_Node@?$_List_nod@KV?$allocator@K@std@@@std@@@std@@QAE@ABV?$allocator@K@1@@Z ; std::allocator<std::_List_nod<unsigned long,std::allocator<unsigned long> >::_Node>::allocator<std::_List_nod<unsigned long,std::allocator<unsigned long> >::_Node><unsigned long>
; Function compile flags: /Ogsp
;	COMDAT ??$?0K@?$allocator@U_Node@?$_List_nod@KV?$allocator@K@std@@@std@@@std@@QAE@ABV?$allocator@K@1@@Z
_TEXT	SEGMENT
___formal$ = 8						; size = 4
??$?0K@?$allocator@U_Node@?$_List_nod@KV?$allocator@K@std@@@std@@@std@@QAE@ABV?$allocator@K@1@@Z PROC ; std::allocator<std::_List_nod<unsigned long,std::allocator<unsigned long> >::_Node>::allocator<std::_List_nod<unsigned long,std::allocator<unsigned long> >::_Node><unsigned long>, COMDAT
; _this$ = ecx

; 170  : 		_ALLOCATOR(const _ALLOCATOR<_Other>&) _THROW0()

  00000	8b c1		 mov	 eax, ecx

; 171  : 		{	// construct from a related allocator (do nothing)
; 172  : 		}

  00002	c2 04 00	 ret	 4
??$?0K@?$allocator@U_Node@?$_List_nod@KV?$allocator@K@std@@@std@@@std@@QAE@ABV?$allocator@K@1@@Z ENDP ; std::allocator<std::_List_nod<unsigned long,std::allocator<unsigned long> >::_Node>::allocator<std::_List_nod<unsigned long,std::allocator<unsigned long> >::_Node><unsigned long>
_TEXT	ENDS
PUBLIC	__TI2?AVbad_alloc@std@@
PUBLIC	??$_Allocate@U_Node@?$_List_nod@KV?$allocator@K@std@@@std@@@std@@YAPAU_Node@?$_List_nod@KV?$allocator@K@std@@@0@IPAU120@@Z ; std::_Allocate<std::_List_nod<unsigned long,std::allocator<unsigned long> >::_Node>
PUBLIC	__CTA2?AVbad_alloc@std@@
PUBLIC	__CT??_R0?AVbad_alloc@std@@@8??0bad_alloc@std@@QAE@ABV01@@Z12
PUBLIC	??0bad_alloc@std@@QAE@ABV01@@Z			; std::bad_alloc::bad_alloc
PUBLIC	__CT??_R0?AVexception@std@@@8??0exception@std@@QAE@ABV01@@Z12
EXTRN	??2@YAPAXI@Z:PROC				; operator new
EXTRN	__CxxThrowException@8:PROC
EXTRN	??0exception@std@@QAE@ABV01@@Z:PROC		; std::exception::exception
;	COMDAT __CT??_R0?AVexception@std@@@8??0exception@std@@QAE@ABV01@@Z12
; File c:\program files (x86)\microsoft visual studio 10.0\vc\include\exception
xdata$x	SEGMENT
__CT??_R0?AVexception@std@@@8??0exception@std@@QAE@ABV01@@Z12 DD 00H
	DD	FLAT:??_R0?AVexception@std@@@8
	DD	00H
	DD	0ffffffffH
	ORG $+4
	DD	0cH
	DD	FLAT:??0exception@std@@QAE@ABV01@@Z
xdata$x	ENDS
;	COMDAT __CT??_R0?AVbad_alloc@std@@@8??0bad_alloc@std@@QAE@ABV01@@Z12
xdata$x	SEGMENT
__CT??_R0?AVbad_alloc@std@@@8??0bad_alloc@std@@QAE@ABV01@@Z12 DD 00H
	DD	FLAT:??_R0?AVbad_alloc@std@@@8
	DD	00H
	DD	0ffffffffH
	ORG $+4
	DD	0cH
	DD	FLAT:??0bad_alloc@std@@QAE@ABV01@@Z
xdata$x	ENDS
;	COMDAT __CTA2?AVbad_alloc@std@@
xdata$x	SEGMENT
__CTA2?AVbad_alloc@std@@ DD 02H
	DD	FLAT:__CT??_R0?AVbad_alloc@std@@@8??0bad_alloc@std@@QAE@ABV01@@Z12
	DD	FLAT:__CT??_R0?AVexception@std@@@8??0exception@std@@QAE@ABV01@@Z12
xdata$x	ENDS
;	COMDAT __TI2?AVbad_alloc@std@@
xdata$x	SEGMENT
__TI2?AVbad_alloc@std@@ DD 00H
	DD	FLAT:??1bad_alloc@std@@UAE@XZ
	DD	00H
	DD	FLAT:__CTA2?AVbad_alloc@std@@
; Function compile flags: /Ogsp
; File c:\program files (x86)\microsoft visual studio 10.0\vc\include\xmemory
xdata$x	ENDS
;	COMDAT ??$_Allocate@U_Node@?$_List_nod@KV?$allocator@K@std@@@std@@@std@@YAPAU_Node@?$_List_nod@KV?$allocator@K@std@@@0@IPAU120@@Z
_TEXT	SEGMENT
$T511670 = -12						; size = 12
$T511675 = 8						; size = 4
__Count$ = 8						; size = 4
___formal$ = 12						; size = 4
??$_Allocate@U_Node@?$_List_nod@KV?$allocator@K@std@@@std@@@std@@YAPAU_Node@?$_List_nod@KV?$allocator@K@std@@@0@IPAU120@@Z PROC ; std::_Allocate<std::_List_nod<unsigned long,std::allocator<unsigned long> >::_Node>, COMDAT

; 30   : 	{	// allocate storage for _Count elements of type _Ty

  00000	55		 push	 ebp
  00001	8b ec		 mov	 ebp, esp

; 31   : 	void *_Ptr = 0;
; 32   : 
; 33   : 	if (_Count <= 0)

  00003	8b 4d 08	 mov	 ecx, DWORD PTR __Count$[ebp]
  00006	83 ec 0c	 sub	 esp, 12			; 0000000cH
  00009	33 c0		 xor	 eax, eax
  0000b	85 c9		 test	 ecx, ecx

; 34   : 		_Count = 0;
; 35   : 	else if (((_SIZT)(-1) / sizeof (_Ty) < _Count)

  0000d	74 3c		 je	 SHORT $LN5@Allocate

; 36   : 		|| (_Ptr = ::operator new(_Count * sizeof (_Ty))) == 0)

  0000f	81 f9 55 55 55
	15		 cmp	 ecx, 357913941		; 15555555H
  00015	77 0e		 ja	 SHORT $LN1@Allocate
  00017	6b c9 0c	 imul	 ecx, 12			; 0000000cH
  0001a	51		 push	 ecx
  0001b	e8 00 00 00 00	 call	 ??2@YAPAXI@Z		; operator new
  00020	59		 pop	 ecx
  00021	85 c0		 test	 eax, eax

; 38   : 
; 39   : 	return ((_Ty _FARQ *)_Ptr);

  00023	75 26		 jne	 SHORT $LN5@Allocate
$LN1@Allocate:

; 37   : 		_THROW_NCEE(bad_alloc, 0);

  00025	83 65 08 00	 and	 DWORD PTR $T511675[ebp], 0
  00029	8d 45 08	 lea	 eax, DWORD PTR $T511675[ebp]
  0002c	50		 push	 eax
  0002d	8d 4d f4	 lea	 ecx, DWORD PTR $T511670[ebp]
  00030	ff 15 00 00 00
	00		 call	 DWORD PTR __imp_??0exception@std@@QAE@ABQBD@Z
  00036	68 00 00 00 00	 push	 OFFSET __TI2?AVbad_alloc@std@@
  0003b	8d 45 f4	 lea	 eax, DWORD PTR $T511670[ebp]
  0003e	50		 push	 eax
  0003f	c7 45 f4 00 00
	00 00		 mov	 DWORD PTR $T511670[ebp], OFFSET ??_7bad_alloc@std@@6B@
  00046	e8 00 00 00 00	 call	 __CxxThrowException@8
$LN10@Allocate:
$LN5@Allocate:

; 40   : 	}

  0004b	c9		 leave
  0004c	c3		 ret	 0
$LN9@Allocate:
??$_Allocate@U_Node@?$_List_nod@KV?$allocator@K@std@@@std@@@std@@YAPAU_Node@?$_List_nod@KV?$allocator@K@std@@@0@IPAU120@@Z ENDP ; std::_Allocate<std::_List_nod<unsigned long,std::allocator<unsigned long> >::_Node>
_TEXT	ENDS
PUBLIC	??$?0U?$pair@$$CBKPAVioUIRenderImage@@@std@@@?$allocator@U_Node@?$_Tree_nod@V?$_Tmap_traits@KPAVioUIRenderImage@@U?$less@K@std@@V?$allocator@U?$pair@$$CBKPAVioUIRenderImage@@@std@@@3@$0A@@std@@@std@@@std@@QAE@ABV?$allocator@U?$pair@$$CBKPAVioUIRenderImage@@@std@@@1@@Z ; std::allocator<std::_Tree_nod<std::_Tmap_traits<unsigned long,ioUIRenderImage *,std::less<unsigned long>,std::allocator<std::pair<unsigned long const ,ioUIRenderImage *> >,0> >::_Node>::allocator<std::_Tree_nod<std::_Tmap_traits<unsigned long,ioUIRenderImage *,std::less<unsigned long>,std::allocator<std::pair<unsigned long const ,ioUIRenderImage *> >,0> >::_Node><std::pair<unsigned long const ,ioUIRenderImage *> >
; Function compile flags: /Ogsp
;	COMDAT ??$?0U?$pair@$$CBKPAVioUIRenderImage@@@std@@@?$allocator@U_Node@?$_Tree_nod@V?$_Tmap_traits@KPAVioUIRenderImage@@U?$less@K@std@@V?$allocator@U?$pair@$$CBKPAVioUIRenderImage@@@std@@@3@$0A@@std@@@std@@@std@@QAE@ABV?$allocator@U?$pair@$$CBKPAVioUIRenderImage@@@std@@@1@@Z
_TEXT	SEGMENT
___formal$ = 8						; size = 4
??$?0U?$pair@$$CBKPAVioUIRenderImage@@@std@@@?$allocator@U_Node@?$_Tree_nod@V?$_Tmap_traits@KPAVioUIRenderImage@@U?$less@K@std@@V?$allocator@U?$pair@$$CBKPAVioUIRenderImage@@@std@@@3@$0A@@std@@@std@@@std@@QAE@ABV?$allocator@U?$pair@$$CBKPAVioUIRenderImage@@@std@@@1@@Z PROC ; std::allocator<std::_Tree_nod<std::_Tmap_traits<unsigned long,ioUIRenderImage *,std::less<unsigned long>,std::allocator<std::pair<unsigned long const ,ioUIRenderImage *> >,0> >::_Node>::allocator<std::_Tree_nod<std::_Tmap_traits<unsigned long,ioUIRenderImage *,std::less<unsigned long>,std::allocator<std::pair<unsigned long const ,ioUIRenderImage *> >,0> >::_Node><std::pair<unsigned long const ,ioUIRenderImage *> >, COMDAT
; _this$ = ecx

; 170  : 		_ALLOCATOR(const _ALLOCATOR<_Other>&) _THROW0()

  00000	8b c1		 mov	 eax, ecx

; 171  : 		{	// construct from a related allocator (do nothing)
; 172  : 		}

  00002	c2 04 00	 ret	 4
??$?0U?$pair@$$CBKPAVioUIRenderImage@@@std@@@?$allocator@U_Node@?$_Tree_nod@V?$_Tmap_traits@KPAVioUIRenderImage@@U?$less@K@std@@V?$allocator@U?$pair@$$CBKPAVioUIRenderImage@@@std@@@3@$0A@@std@@@std@@@std@@QAE@ABV?$allocator@U?$pair@$$CBKPAVioUIRenderImage@@@std@@@1@@Z ENDP ; std::allocator<std::_Tree_nod<std::_Tmap_traits<unsigned long,ioUIRenderImage *,std::less<unsigned long>,std::allocator<std::pair<unsigned long const ,ioUIRenderImage *> >,0> >::_Node>::allocator<std::_Tree_nod<std::_Tmap_traits<unsigned long,ioUIRenderImage *,std::less<unsigned long>,std::allocator<std::pair<unsigned long const ,ioUIRenderImage *> >,0> >::_Node><std::pair<unsigned long const ,ioUIRenderImage *> >
_TEXT	ENDS
PUBLIC	??$_Allocate@U_Node@?$_Tree_nod@V?$_Tmap_traits@KPAVioUIRenderImage@@U?$less@K@std@@V?$allocator@U?$pair@$$CBKPAVioUIRenderImage@@@std@@@3@$0A@@std@@@std@@@std@@YAPAU_Node@?$_Tree_nod@V?$_Tmap_traits@KPAVioUIRenderImage@@U?$less@K@std@@V?$allocator@U?$pair@$$CBKPAVioUIRenderImage@@@std@@@3@$0A@@std@@@0@IPAU120@@Z ; std::_Allocate<std::_Tree_nod<std::_Tmap_traits<unsigned long,ioUIRenderImage *,std::less<unsigned long>,std::allocator<std::pair<unsigned long const ,ioUIRenderImage *> >,0> >::_Node>
; Function compile flags: /Ogsp
;	COMDAT ??$_Allocate@U_Node@?$_Tree_nod@V?$_Tmap_traits@KPAVioUIRenderImage@@U?$less@K@std@@V?$allocator@U?$pair@$$CBKPAVioUIRenderImage@@@std@@@3@$0A@@std@@@std@@@std@@YAPAU_Node@?$_Tree_nod@V?$_Tmap_traits@KPAVioUIRenderImage@@U?$less@K@std@@V?$allocator@U?$pair@$$CBKPAVioUIRenderImage@@@std@@@3@$0A@@std@@@0@IPAU120@@Z
_TEXT	SEGMENT
$T511683 = -12						; size = 12
$T511687 = 8						; size = 4
__Count$ = 8						; size = 4
___formal$ = 12						; size = 4
??$_Allocate@U_Node@?$_Tree_nod@V?$_Tmap_traits@KPAVioUIRenderImage@@U?$less@K@std@@V?$allocator@U?$pair@$$CBKPAVioUIRenderImage@@@std@@@3@$0A@@std@@@std@@@std@@YAPAU_Node@?$_Tree_nod@V?$_Tmap_traits@KPAVioUIRenderImage@@U?$less@K@std@@V?$allocator@U?$pair@$$CBKPAVioUIRenderImage@@@std@@@3@$0A@@std@@@0@IPAU120@@Z PROC ; std::_Allocate<std::_Tree_nod<std::_Tmap_traits<unsigned long,ioUIRenderImage *,std::less<unsigned long>,std::allocator<std::pair<unsigned long const ,ioUIRenderImage *> >,0> >::_Node>, COMDAT

; 30   : 	{	// allocate storage for _Count elements of type _Ty

  00000	55		 push	 ebp
  00001	8b ec		 mov	 ebp, esp

; 31   : 	void *_Ptr = 0;
; 32   : 
; 33   : 	if (_Count <= 0)

  00003	8b 4d 08	 mov	 ecx, DWORD PTR __Count$[ebp]
  00006	83 ec 0c	 sub	 esp, 12			; 0000000cH
  00009	33 c0		 xor	 eax, eax
  0000b	85 c9		 test	 ecx, ecx

; 34   : 		_Count = 0;
; 35   : 	else if (((_SIZT)(-1) / sizeof (_Ty) < _Count)

  0000d	74 3c		 je	 SHORT $LN5@Allocate@2

; 36   : 		|| (_Ptr = ::operator new(_Count * sizeof (_Ty))) == 0)

  0000f	81 f9 aa aa aa
	0a		 cmp	 ecx, 178956970		; 0aaaaaaaH
  00015	77 0e		 ja	 SHORT $LN1@Allocate@2
  00017	6b c9 18	 imul	 ecx, 24			; 00000018H
  0001a	51		 push	 ecx
  0001b	e8 00 00 00 00	 call	 ??2@YAPAXI@Z		; operator new
  00020	59		 pop	 ecx
  00021	85 c0		 test	 eax, eax

; 38   : 
; 39   : 	return ((_Ty _FARQ *)_Ptr);

  00023	75 26		 jne	 SHORT $LN5@Allocate@2
$LN1@Allocate@2:

; 37   : 		_THROW_NCEE(bad_alloc, 0);

  00025	83 65 08 00	 and	 DWORD PTR $T511687[ebp], 0
  00029	8d 45 08	 lea	 eax, DWORD PTR $T511687[ebp]
  0002c	50		 push	 eax
  0002d	8d 4d f4	 lea	 ecx, DWORD PTR $T511683[ebp]
  00030	ff 15 00 00 00
	00		 call	 DWORD PTR __imp_??0exception@std@@QAE@ABQBD@Z
  00036	68 00 00 00 00	 push	 OFFSET __TI2?AVbad_alloc@std@@
  0003b	8d 45 f4	 lea	 eax, DWORD PTR $T511683[ebp]
  0003e	50		 push	 eax
  0003f	c7 45 f4 00 00
	00 00		 mov	 DWORD PTR $T511683[ebp], OFFSET ??_7bad_alloc@std@@6B@
  00046	e8 00 00 00 00	 call	 __CxxThrowException@8
$LN10@Allocate@2:
$LN5@Allocate@2:

; 40   : 	}

  0004b	c9		 leave
  0004c	c3		 ret	 0
$LN9@Allocate@2:
??$_Allocate@U_Node@?$_Tree_nod@V?$_Tmap_traits@KPAVioUIRenderImage@@U?$less@K@std@@V?$allocator@U?$pair@$$CBKPAVioUIRenderImage@@@std@@@3@$0A@@std@@@std@@@std@@YAPAU_Node@?$_Tree_nod@V?$_Tmap_traits@KPAVioUIRenderImage@@U?$less@K@std@@V?$allocator@U?$pair@$$CBKPAVioUIRenderImage@@@std@@@3@$0A@@std@@@0@IPAU120@@Z ENDP ; std::_Allocate<std::_Tree_nod<std::_Tmap_traits<unsigned long,ioUIRenderImage *,std::less<unsigned long>,std::allocator<std::pair<unsigned long const ,ioUIRenderImage *> >,0> >::_Node>
_TEXT	ENDS
PUBLIC	??$_Allocate@PAUCustomMarkData@ioGuildMarkMgr@@@std@@YAPAPAUCustomMarkData@ioGuildMarkMgr@@IPAPAU12@@Z ; std::_Allocate<ioGuildMarkMgr::CustomMarkData *>
; Function compile flags: /Ogsp
;	COMDAT ??$_Allocate@PAUCustomMarkData@ioGuildMarkMgr@@@std@@YAPAPAUCustomMarkData@ioGuildMarkMgr@@IPAPAU12@@Z
_TEXT	SEGMENT
$T511692 = -12						; size = 12
$T511696 = 8						; size = 4
__Count$ = 8						; size = 4
___formal$ = 12						; size = 4
??$_Allocate@PAUCustomMarkData@ioGuildMarkMgr@@@std@@YAPAPAUCustomMarkData@ioGuildMarkMgr@@IPAPAU12@@Z PROC ; std::_Allocate<ioGuildMarkMgr::CustomMarkData *>, COMDAT

; 30   : 	{	// allocate storage for _Count elements of type _Ty

  00000	55		 push	 ebp
  00001	8b ec		 mov	 ebp, esp

; 31   : 	void *_Ptr = 0;
; 32   : 
; 33   : 	if (_Count <= 0)

  00003	8b 4d 08	 mov	 ecx, DWORD PTR __Count$[ebp]
  00006	83 ec 0c	 sub	 esp, 12			; 0000000cH
  00009	33 c0		 xor	 eax, eax
  0000b	85 c9		 test	 ecx, ecx

; 34   : 		_Count = 0;
; 35   : 	else if (((_SIZT)(-1) / sizeof (_Ty) < _Count)

  0000d	74 3e		 je	 SHORT $LN5@Allocate@3

; 36   : 		|| (_Ptr = ::operator new(_Count * sizeof (_Ty))) == 0)

  0000f	81 f9 ff ff ff
	3f		 cmp	 ecx, 1073741823		; 3fffffffH
  00015	77 10		 ja	 SHORT $LN1@Allocate@3
  00017	8b c1		 mov	 eax, ecx
  00019	c1 e0 02	 shl	 eax, 2
  0001c	50		 push	 eax
  0001d	e8 00 00 00 00	 call	 ??2@YAPAXI@Z		; operator new
  00022	59		 pop	 ecx
  00023	85 c0		 test	 eax, eax

; 38   : 
; 39   : 	return ((_Ty _FARQ *)_Ptr);

  00025	75 26		 jne	 SHORT $LN5@Allocate@3
$LN1@Allocate@3:

; 37   : 		_THROW_NCEE(bad_alloc, 0);

  00027	83 65 08 00	 and	 DWORD PTR $T511696[ebp], 0
  0002b	8d 45 08	 lea	 eax, DWORD PTR $T511696[ebp]
  0002e	50		 push	 eax
  0002f	8d 4d f4	 lea	 ecx, DWORD PTR $T511692[ebp]
  00032	ff 15 00 00 00
	00		 call	 DWORD PTR __imp_??0exception@std@@QAE@ABQBD@Z
  00038	68 00 00 00 00	 push	 OFFSET __TI2?AVbad_alloc@std@@
  0003d	8d 45 f4	 lea	 eax, DWORD PTR $T511692[ebp]
  00040	50		 push	 eax
  00041	c7 45 f4 00 00
	00 00		 mov	 DWORD PTR $T511692[ebp], OFFSET ??_7bad_alloc@std@@6B@
  00048	e8 00 00 00 00	 call	 __CxxThrowException@8
$LN10@Allocate@3:
$LN5@Allocate@3:

; 40   : 	}

  0004d	c9		 leave
  0004e	c3		 ret	 0
$LN9@Allocate@3:
??$_Allocate@PAUCustomMarkData@ioGuildMarkMgr@@@std@@YAPAPAUCustomMarkData@ioGuildMarkMgr@@IPAPAU12@@Z ENDP ; std::_Allocate<ioGuildMarkMgr::CustomMarkData *>
_TEXT	ENDS
PUBLIC	?max_size@?$allocator@U?$pair@$$CBKPAVioUIRenderImage@@@std@@@std@@QBEIXZ ; std::allocator<std::pair<unsigned long const ,ioUIRenderImage *> >::max_size
; Function compile flags: /Ogsp
;	COMDAT ?max_size@?$allocator@U?$pair@$$CBKPAVioUIRenderImage@@@std@@@std@@QBEIXZ
_TEXT	SEGMENT
?max_size@?$allocator@U?$pair@$$CBKPAVioUIRenderImage@@@std@@@std@@QBEIXZ PROC ; std::allocator<std::pair<unsigned long const ,ioUIRenderImage *> >::max_size, COMDAT
; _this$ = ecx

; 218  : 		_SIZT _Count = (_SIZT)(-1) / sizeof (_Ty);
; 219  : 		return (0 < _Count ? _Count : 1);

  00000	b8 ff ff ff 1f	 mov	 eax, 536870911		; 1fffffffH

; 220  : 		}

  00005	c3		 ret	 0
?max_size@?$allocator@U?$pair@$$CBKPAVioUIRenderImage@@@std@@@std@@QBEIXZ ENDP ; std::allocator<std::pair<unsigned long const ,ioUIRenderImage *> >::max_size
_TEXT	ENDS
PUBLIC	??F?$_Tree_unchecked_const_iterator@V?$_Tree_val@V?$_Tmap_traits@KPAVioUIRenderImage@@U?$less@K@std@@V?$allocator@U?$pair@$$CBKPAVioUIRenderImage@@@std@@@3@$0A@@std@@@std@@U_Iterator_base0@2@@std@@QAEAAV01@XZ ; std::_Tree_unchecked_const_iterator<std::_Tree_val<std::_Tmap_traits<unsigned long,ioUIRenderImage *,std::less<unsigned long>,std::allocator<std::pair<unsigned long const ,ioUIRenderImage *> >,0> >,std::_Iterator_base0>::operator--
; Function compile flags: /Ogsp
; File c:\program files (x86)\microsoft visual studio 10.0\vc\include\xtree
;	COMDAT ??F?$_Tree_unchecked_const_iterator@V?$_Tree_val@V?$_Tmap_traits@KPAVioUIRenderImage@@U?$less@K@std@@V?$allocator@U?$pair@$$CBKPAVioUIRenderImage@@@std@@@3@$0A@@std@@@std@@U_Iterator_base0@2@@std@@QAEAAV01@XZ
_TEXT	SEGMENT
??F?$_Tree_unchecked_const_iterator@V?$_Tree_val@V?$_Tmap_traits@KPAVioUIRenderImage@@U?$less@K@std@@V?$allocator@U?$pair@$$CBKPAVioUIRenderImage@@@std@@@3@$0A@@std@@@std@@U_Iterator_base0@2@@std@@QAEAAV01@XZ PROC ; std::_Tree_unchecked_const_iterator<std::_Tree_val<std::_Tmap_traits<unsigned long,ioUIRenderImage *,std::less<unsigned long>,std::allocator<std::pair<unsigned long const ,ioUIRenderImage *> >,0> >,std::_Iterator_base0>::operator--, COMDAT
; _this$ = ecx

; 83   : 		{	// predecrement

  00000	8b c1		 mov	 eax, ecx

; 84   : 		if (_Mytree::_Isnil(_Ptr))

  00002	8b 08		 mov	 ecx, DWORD PTR [eax]
  00004	53		 push	 ebx
  00005	32 db		 xor	 bl, bl
  00007	38 59 15	 cmp	 BYTE PTR [ecx+21], bl
  0000a	74 07		 je	 SHORT $LN8@operator

; 85   : 			_Ptr = _Mytree::_Right(_Ptr);	// end() ==> rightmost

  0000c	8b 49 08	 mov	 ecx, DWORD PTR [ecx+8]
  0000f	89 08		 mov	 DWORD PTR [eax], ecx
  00011	5b		 pop	 ebx

; 99   : 			}
; 100  : 		return (*this);
; 101  : 		}

  00012	c3		 ret	 0
$LN8@operator:

; 86   : 		else if (!_Mytree::_Isnil(_Mytree::_Left(_Ptr)))

  00013	8b 11		 mov	 edx, DWORD PTR [ecx]
  00015	38 5a 15	 cmp	 BYTE PTR [edx+21], bl
  00018	74 07		 je	 SHORT $LN44@operator

; 90   : 			{	// climb looking for left subtree
; 91   : 			_Nodeptr _Pnode;
; 92   : 			while (!_Mytree::_Isnil(_Pnode = _Mytree::_Parent(_Ptr))
; 93   : 				&& _Ptr == _Mytree::_Left(_Pnode))

  0001a	8b 51 04	 mov	 edx, DWORD PTR [ecx+4]
  0001d	eb 17		 jmp	 SHORT $LN46@operator

; 87   : 			_Ptr = _Mytree::_Max(
; 88   : 				_Mytree::_Left(_Ptr));	// ==> largest of left subtree

$LL22@operator:
  0001f	8b d1		 mov	 edx, ecx
$LN44@operator:
  00021	8b 4a 08	 mov	 ecx, DWORD PTR [edx+8]
  00024	38 59 15	 cmp	 BYTE PTR [ecx+21], bl
  00027	74 f6		 je	 SHORT $LL22@operator

; 89   : 		else

  00029	eb 17		 jmp	 SHORT $LN45@operator
$LL4@operator:

; 90   : 			{	// climb looking for left subtree
; 91   : 			_Nodeptr _Pnode;
; 92   : 			while (!_Mytree::_Isnil(_Pnode = _Mytree::_Parent(_Ptr))
; 93   : 				&& _Ptr == _Mytree::_Left(_Pnode))

  0002b	8b 08		 mov	 ecx, DWORD PTR [eax]
  0002d	3b 0a		 cmp	 ecx, DWORD PTR [edx]
  0002f	75 0a		 jne	 SHORT $LN3@operator

; 94   : 				_Ptr = _Pnode;	// ==> parent while left subtree

  00031	89 10		 mov	 DWORD PTR [eax], edx
  00033	8b 52 04	 mov	 edx, DWORD PTR [edx+4]
$LN46@operator:

; 90   : 			{	// climb looking for left subtree
; 91   : 			_Nodeptr _Pnode;
; 92   : 			while (!_Mytree::_Isnil(_Pnode = _Mytree::_Parent(_Ptr))
; 93   : 				&& _Ptr == _Mytree::_Left(_Pnode))

  00036	38 5a 15	 cmp	 BYTE PTR [edx+21], bl
  00039	74 f0		 je	 SHORT $LL4@operator
$LN3@operator:

; 95   : 			if (_Mytree::_Isnil(_Ptr))

  0003b	8b 08		 mov	 ecx, DWORD PTR [eax]
  0003d	38 59 15	 cmp	 BYTE PTR [ecx+21], bl
  00040	75 02		 jne	 SHORT $LN1@operator
$LN45@operator:

; 96   : 				;	// begin() shouldn't be decremented, don't move
; 97   : 			else
; 98   : 				_Ptr = _Pnode;	// ==> parent if not head

  00042	89 10		 mov	 DWORD PTR [eax], edx
$LN1@operator:
  00044	5b		 pop	 ebx

; 99   : 			}
; 100  : 		return (*this);
; 101  : 		}

  00045	c3		 ret	 0
??F?$_Tree_unchecked_const_iterator@V?$_Tree_val@V?$_Tmap_traits@KPAVioUIRenderImage@@U?$less@K@std@@V?$allocator@U?$pair@$$CBKPAVioUIRenderImage@@@std@@@3@$0A@@std@@@std@@U_Iterator_base0@2@@std@@QAEAAV01@XZ ENDP ; std::_Tree_unchecked_const_iterator<std::_Tree_val<std::_Tmap_traits<unsigned long,ioUIRenderImage *,std::less<unsigned long>,std::allocator<std::pair<unsigned long const ,ioUIRenderImage *> >,0> >,std::_Iterator_base0>::operator--
_TEXT	ENDS
PUBLIC	??$forward@PAVioUIRenderImage@@@std@@YA$$QAPAVioUIRenderImage@@AAPAV1@@Z ; std::forward<ioUIRenderImage *>
; Function compile flags: /Ogsp
; File c:\program files (x86)\microsoft visual studio 10.0\vc\include\utility
;	COMDAT ??$forward@PAVioUIRenderImage@@@std@@YA$$QAPAVioUIRenderImage@@AAPAV1@@Z
_TEXT	SEGMENT
__Arg$ = 8						; size = 4
??$forward@PAVioUIRenderImage@@@std@@YA$$QAPAVioUIRenderImage@@AAPAV1@@Z PROC ; std::forward<ioUIRenderImage *>, COMDAT

; 78   : 	{	// forward _Arg, given explicitly specified type parameter

  00000	55		 push	 ebp
  00001	8b ec		 mov	 ebp, esp

; 79   : 	return ((_Ty&&)_Arg);

  00003	8b 45 08	 mov	 eax, DWORD PTR __Arg$[ebp]

; 80   : 	}

  00006	5d		 pop	 ebp
  00007	c3		 ret	 0
??$forward@PAVioUIRenderImage@@@std@@YA$$QAPAVioUIRenderImage@@AAPAV1@@Z ENDP ; std::forward<ioUIRenderImage *>
_TEXT	ENDS
PUBLIC	??$forward@U?$pair@$$CBKPAVioUIRenderImage@@@std@@@std@@YA$$QAU?$pair@$$CBKPAVioUIRenderImage@@@0@AAU10@@Z ; std::forward<std::pair<unsigned long const ,ioUIRenderImage *> >
; Function compile flags: /Ogsp
;	COMDAT ??$forward@U?$pair@$$CBKPAVioUIRenderImage@@@std@@@std@@YA$$QAU?$pair@$$CBKPAVioUIRenderImage@@@0@AAU10@@Z
_TEXT	SEGMENT
__Arg$ = 8						; size = 4
??$forward@U?$pair@$$CBKPAVioUIRenderImage@@@std@@@std@@YA$$QAU?$pair@$$CBKPAVioUIRenderImage@@@0@AAU10@@Z PROC ; std::forward<std::pair<unsigned long const ,ioUIRenderImage *> >, COMDAT

; 78   : 	{	// forward _Arg, given explicitly specified type parameter

  00000	55		 push	 ebp
  00001	8b ec		 mov	 ebp, esp

; 79   : 	return ((_Ty&&)_Arg);

  00003	8b 45 08	 mov	 eax, DWORD PTR __Arg$[ebp]

; 80   : 	}

  00006	5d		 pop	 ebp
  00007	c3		 ret	 0
??$forward@U?$pair@$$CBKPAVioUIRenderImage@@@std@@@std@@YA$$QAU?$pair@$$CBKPAVioUIRenderImage@@@0@AAU10@@Z ENDP ; std::forward<std::pair<unsigned long const ,ioUIRenderImage *> >
_TEXT	ENDS
PUBLIC	??$forward@AAPAVioUIRenderImage@@@std@@YAAAPAVioUIRenderImage@@AAPAV1@@Z ; std::forward<ioUIRenderImage * &>
; Function compile flags: /Ogsp
;	COMDAT ??$forward@AAPAVioUIRenderImage@@@std@@YAAAPAVioUIRenderImage@@AAPAV1@@Z
_TEXT	SEGMENT
__Arg$ = 8						; size = 4
??$forward@AAPAVioUIRenderImage@@@std@@YAAAPAVioUIRenderImage@@AAPAV1@@Z PROC ; std::forward<ioUIRenderImage * &>, COMDAT

; 78   : 	{	// forward _Arg, given explicitly specified type parameter

  00000	55		 push	 ebp
  00001	8b ec		 mov	 ebp, esp

; 79   : 	return ((_Ty&&)_Arg);

  00003	8b 45 08	 mov	 eax, DWORD PTR __Arg$[ebp]

; 80   : 	}

  00006	5d		 pop	 ebp
  00007	c3		 ret	 0
??$forward@AAPAVioUIRenderImage@@@std@@YAAAPAVioUIRenderImage@@AAPAV1@@Z ENDP ; std::forward<ioUIRenderImage * &>
_TEXT	ENDS
PUBLIC	??$forward@AAPAUCustomMarkData@ioGuildMarkMgr@@@std@@YAAAPAUCustomMarkData@ioGuildMarkMgr@@AAPAU12@@Z ; std::forward<ioGuildMarkMgr::CustomMarkData * &>
; Function compile flags: /Ogsp
;	COMDAT ??$forward@AAPAUCustomMarkData@ioGuildMarkMgr@@@std@@YAAAPAUCustomMarkData@ioGuildMarkMgr@@AAPAU12@@Z
_TEXT	SEGMENT
__Arg$ = 8						; size = 4
??$forward@AAPAUCustomMarkData@ioGuildMarkMgr@@@std@@YAAAPAUCustomMarkData@ioGuildMarkMgr@@AAPAU12@@Z PROC ; std::forward<ioGuildMarkMgr::CustomMarkData * &>, COMDAT

; 78   : 	{	// forward _Arg, given explicitly specified type parameter

  00000	55		 push	 ebp
  00001	8b ec		 mov	 ebp, esp

; 79   : 	return ((_Ty&&)_Arg);

  00003	8b 45 08	 mov	 eax, DWORD PTR __Arg$[ebp]

; 80   : 	}

  00006	5d		 pop	 ebp
  00007	c3		 ret	 0
??$forward@AAPAUCustomMarkData@ioGuildMarkMgr@@@std@@YAAAPAUCustomMarkData@ioGuildMarkMgr@@AAPAU12@@Z ENDP ; std::forward<ioGuildMarkMgr::CustomMarkData * &>
_TEXT	ENDS
PUBLIC	??$construct@AAPAUCustomMarkData@ioGuildMarkMgr@@@?$allocator@PAUCustomMarkData@ioGuildMarkMgr@@@std@@QAEXPAPAUCustomMarkData@ioGuildMarkMgr@@AAPAU23@@Z ; std::allocator<ioGuildMarkMgr::CustomMarkData *>::construct<ioGuildMarkMgr::CustomMarkData * &>
; Function compile flags: /Ogsp
; File c:\program files (x86)\microsoft visual studio 10.0\vc\include\xmemory
;	COMDAT ??$construct@AAPAUCustomMarkData@ioGuildMarkMgr@@@?$allocator@PAUCustomMarkData@ioGuildMarkMgr@@@std@@QAEXPAPAUCustomMarkData@ioGuildMarkMgr@@AAPAU23@@Z
_TEXT	SEGMENT
__Ptr$ = 8						; size = 4
__Val$ = 12						; size = 4
??$construct@AAPAUCustomMarkData@ioGuildMarkMgr@@@?$allocator@PAUCustomMarkData@ioGuildMarkMgr@@@std@@QAEXPAPAUCustomMarkData@ioGuildMarkMgr@@AAPAU23@@Z PROC ; std::allocator<ioGuildMarkMgr::CustomMarkData *>::construct<ioGuildMarkMgr::CustomMarkData * &>, COMDAT
; _this$ = ecx

; 206  : 		void construct(pointer _Ptr, _Other&& _Val)

  00000	55		 push	 ebp
  00001	8b ec		 mov	 ebp, esp

; 207  : 		{	// construct object at _Ptr with value _Val
; 208  : 		::new ((void _FARQ *)_Ptr) _Ty(_STD forward<_Other>(_Val));

  00003	8b 45 08	 mov	 eax, DWORD PTR __Ptr$[ebp]
  00006	85 c0		 test	 eax, eax
  00008	74 07		 je	 SHORT $LN3@construct
  0000a	8b 4d 0c	 mov	 ecx, DWORD PTR __Val$[ebp]
  0000d	8b 09		 mov	 ecx, DWORD PTR [ecx]
  0000f	89 08		 mov	 DWORD PTR [eax], ecx
$LN3@construct:

; 209  : 		}

  00011	5d		 pop	 ebp
  00012	c2 08 00	 ret	 8
??$construct@AAPAUCustomMarkData@ioGuildMarkMgr@@@?$allocator@PAUCustomMarkData@ioGuildMarkMgr@@@std@@QAEXPAPAUCustomMarkData@ioGuildMarkMgr@@AAPAU23@@Z ENDP ; std::allocator<ioGuildMarkMgr::CustomMarkData *>::construct<ioGuildMarkMgr::CustomMarkData * &>
_TEXT	ENDS
PUBLIC	??$forward@ABQAUCustomMarkData@ioGuildMarkMgr@@@std@@YAABQAUCustomMarkData@ioGuildMarkMgr@@ABQAU12@@Z ; std::forward<ioGuildMarkMgr::CustomMarkData * const &>
; Function compile flags: /Ogsp
; File c:\program files (x86)\microsoft visual studio 10.0\vc\include\utility
;	COMDAT ??$forward@ABQAUCustomMarkData@ioGuildMarkMgr@@@std@@YAABQAUCustomMarkData@ioGuildMarkMgr@@ABQAU12@@Z
_TEXT	SEGMENT
__Arg$ = 8						; size = 4
??$forward@ABQAUCustomMarkData@ioGuildMarkMgr@@@std@@YAABQAUCustomMarkData@ioGuildMarkMgr@@ABQAU12@@Z PROC ; std::forward<ioGuildMarkMgr::CustomMarkData * const &>, COMDAT

; 78   : 	{	// forward _Arg, given explicitly specified type parameter

  00000	55		 push	 ebp
  00001	8b ec		 mov	 ebp, esp

; 79   : 	return ((_Ty&&)_Arg);

  00003	8b 45 08	 mov	 eax, DWORD PTR __Arg$[ebp]

; 80   : 	}

  00006	5d		 pop	 ebp
  00007	c3		 ret	 0
??$forward@ABQAUCustomMarkData@ioGuildMarkMgr@@@std@@YAABQAUCustomMarkData@ioGuildMarkMgr@@ABQAU12@@Z ENDP ; std::forward<ioGuildMarkMgr::CustomMarkData * const &>
_TEXT	ENDS
PUBLIC	??$_Ptr_cat@PAUCustomMarkData@ioGuildMarkMgr@@PAU12@@std@@YA?AU_Scalar_ptr_iterator_tag@0@PAPAUCustomMarkData@ioGuildMarkMgr@@0@Z ; std::_Ptr_cat<ioGuildMarkMgr::CustomMarkData *,ioGuildMarkMgr::CustomMarkData *>
; Function compile flags: /Ogsp
; File c:\program files (x86)\microsoft visual studio 10.0\vc\include\xutility
;	COMDAT ??$_Ptr_cat@PAUCustomMarkData@ioGuildMarkMgr@@PAU12@@std@@YA?AU_Scalar_ptr_iterator_tag@0@PAPAUCustomMarkData@ioGuildMarkMgr@@0@Z
_TEXT	SEGMENT
__Cat$ = -1						; size = 1
___formal$ = 8						; size = 4
___formal$ = 12						; size = 4
??$_Ptr_cat@PAUCustomMarkData@ioGuildMarkMgr@@PAU12@@std@@YA?AU_Scalar_ptr_iterator_tag@0@PAPAUCustomMarkData@ioGuildMarkMgr@@0@Z PROC ; std::_Ptr_cat<ioGuildMarkMgr::CustomMarkData *,ioGuildMarkMgr::CustomMarkData *>, COMDAT

; 516  : 	{	// return pointer category from pointers

  00000	55		 push	 ebp
  00001	8b ec		 mov	 ebp, esp
  00003	51		 push	 ecx

; 517  : 	typename _Ptr_cat_helper<_Elem1, _Elem2>::_Type _Cat;
; 518  : 	return (_Cat);

  00004	8a 45 ff	 mov	 al, BYTE PTR __Cat$[ebp]

; 519  : 	}

  00007	c9		 leave
  00008	c3		 ret	 0
??$_Ptr_cat@PAUCustomMarkData@ioGuildMarkMgr@@PAU12@@std@@YA?AU_Scalar_ptr_iterator_tag@0@PAPAUCustomMarkData@ioGuildMarkMgr@@0@Z ENDP ; std::_Ptr_cat<ioGuildMarkMgr::CustomMarkData *,ioGuildMarkMgr::CustomMarkData *>
_TEXT	ENDS
PUBLIC	??$_Move@PAPAUCustomMarkData@ioGuildMarkMgr@@PAPAU12@@std@@YAPAPAUCustomMarkData@ioGuildMarkMgr@@PAPAU12@00U_Scalar_ptr_iterator_tag@0@@Z ; std::_Move<ioGuildMarkMgr::CustomMarkData * *,ioGuildMarkMgr::CustomMarkData * *>
EXTRN	__imp__memmove:PROC
; Function compile flags: /Ogsp
;	COMDAT ??$_Move@PAPAUCustomMarkData@ioGuildMarkMgr@@PAPAU12@@std@@YAPAPAUCustomMarkData@ioGuildMarkMgr@@PAPAU12@00U_Scalar_ptr_iterator_tag@0@@Z
_TEXT	SEGMENT
__First$ = 8						; size = 4
__Last$ = 12						; size = 4
__Dest$ = 16						; size = 4
___formal$ = 20						; size = 1
??$_Move@PAPAUCustomMarkData@ioGuildMarkMgr@@PAPAU12@@std@@YAPAPAUCustomMarkData@ioGuildMarkMgr@@PAPAU12@00U_Scalar_ptr_iterator_tag@0@@Z PROC ; std::_Move<ioGuildMarkMgr::CustomMarkData * *,ioGuildMarkMgr::CustomMarkData * *>, COMDAT

; 2522 : 	{	// move [_First, _Last) to [_Dest, ...), pointers to scalars

  00000	55		 push	 ebp
  00001	8b ec		 mov	 ebp, esp
  00003	56		 push	 esi

; 2523 : 	ptrdiff_t _Count = _Last - _First;

  00004	8b 75 0c	 mov	 esi, DWORD PTR __Last$[ebp]
  00007	2b 75 08	 sub	 esi, DWORD PTR __First$[ebp]
  0000a	57		 push	 edi

; 2524 : 	_CSTD memmove(&*_Dest, &*_First,
; 2525 : 		_Count * sizeof (*_First));

  0000b	8b 7d 10	 mov	 edi, DWORD PTR __Dest$[ebp]
  0000e	c1 fe 02	 sar	 esi, 2
  00011	c1 e6 02	 shl	 esi, 2
  00014	56		 push	 esi
  00015	ff 75 08	 push	 DWORD PTR __First$[ebp]
  00018	57		 push	 edi
  00019	ff 15 00 00 00
	00		 call	 DWORD PTR __imp__memmove
  0001f	83 c4 0c	 add	 esp, 12			; 0000000cH

; 2526 : 	return (_Dest + _Count);

  00022	8d 04 3e	 lea	 eax, DWORD PTR [esi+edi]
  00025	5f		 pop	 edi
  00026	5e		 pop	 esi

; 2527 : 	}

  00027	5d		 pop	 ebp
  00028	c3		 ret	 0
??$_Move@PAPAUCustomMarkData@ioGuildMarkMgr@@PAPAU12@@std@@YAPAPAUCustomMarkData@ioGuildMarkMgr@@PAPAU12@00U_Scalar_ptr_iterator_tag@0@@Z ENDP ; std::_Move<ioGuildMarkMgr::CustomMarkData * *,ioGuildMarkMgr::CustomMarkData * *>
_TEXT	ENDS
PUBLIC	??$_Destroy_range@V?$allocator@PAUCustomMarkData@ioGuildMarkMgr@@@std@@@std@@YAXPAPAUCustomMarkData@ioGuildMarkMgr@@0AAV?$allocator@PAUCustomMarkData@ioGuildMarkMgr@@@0@U_Scalar_ptr_iterator_tag@0@@Z ; std::_Destroy_range<std::allocator<ioGuildMarkMgr::CustomMarkData *> >
; Function compile flags: /Ogsp
; File c:\program files (x86)\microsoft visual studio 10.0\vc\include\xmemory
;	COMDAT ??$_Destroy_range@V?$allocator@PAUCustomMarkData@ioGuildMarkMgr@@@std@@@std@@YAXPAPAUCustomMarkData@ioGuildMarkMgr@@0AAV?$allocator@PAUCustomMarkData@ioGuildMarkMgr@@@0@U_Scalar_ptr_iterator_tag@0@@Z
_TEXT	SEGMENT
__First$ = 8						; size = 4
__Last$ = 12						; size = 4
__Al$ = 16						; size = 4
___formal$ = 20						; size = 1
??$_Destroy_range@V?$allocator@PAUCustomMarkData@ioGuildMarkMgr@@@std@@@std@@YAXPAPAUCustomMarkData@ioGuildMarkMgr@@0AAV?$allocator@PAUCustomMarkData@ioGuildMarkMgr@@@0@U_Scalar_ptr_iterator_tag@0@@Z PROC ; std::_Destroy_range<std::allocator<ioGuildMarkMgr::CustomMarkData *> >, COMDAT

; 105  : 	}

  00000	c3		 ret	 0
??$_Destroy_range@V?$allocator@PAUCustomMarkData@ioGuildMarkMgr@@@std@@@std@@YAXPAPAUCustomMarkData@ioGuildMarkMgr@@0AAV?$allocator@PAUCustomMarkData@ioGuildMarkMgr@@@0@U_Scalar_ptr_iterator_tag@0@@Z ENDP ; std::_Destroy_range<std::allocator<ioGuildMarkMgr::CustomMarkData *> >
_TEXT	ENDS
PUBLIC	??$_Destroy@U?$pair@$$CBKPAVioUIRenderImage@@@std@@@std@@YAXPAU?$pair@$$CBKPAVioUIRenderImage@@@0@@Z ; std::_Destroy<std::pair<unsigned long const ,ioUIRenderImage *> >
; Function compile flags: /Ogsp
;	COMDAT ??$_Destroy@U?$pair@$$CBKPAVioUIRenderImage@@@std@@@std@@YAXPAU?$pair@$$CBKPAVioUIRenderImage@@@0@@Z
_TEXT	SEGMENT
__Ptr$ = 8						; size = 4
??$_Destroy@U?$pair@$$CBKPAVioUIRenderImage@@@std@@@std@@YAXPAU?$pair@$$CBKPAVioUIRenderImage@@@0@@Z PROC ; std::_Destroy<std::pair<unsigned long const ,ioUIRenderImage *> >, COMDAT

; 63   : 	_Ptr->~_Ty();
; 64   : 	}

  00000	c3		 ret	 0
??$_Destroy@U?$pair@$$CBKPAVioUIRenderImage@@@std@@@std@@YAXPAU?$pair@$$CBKPAVioUIRenderImage@@@0@@Z ENDP ; std::_Destroy<std::pair<unsigned long const ,ioUIRenderImage *> >
_TEXT	ENDS
PUBLIC	??$_Construct@PAUCustomMarkData@ioGuildMarkMgr@@ABQAU12@@std@@YAXPAPAUCustomMarkData@ioGuildMarkMgr@@ABQAU12@@Z ; std::_Construct<ioGuildMarkMgr::CustomMarkData *,ioGuildMarkMgr::CustomMarkData * const &>
; Function compile flags: /Ogsp
;	COMDAT ??$_Construct@PAUCustomMarkData@ioGuildMarkMgr@@ABQAU12@@std@@YAXPAPAUCustomMarkData@ioGuildMarkMgr@@ABQAU12@@Z
_TEXT	SEGMENT
__Ptr$ = 8						; size = 4
__Val$ = 12						; size = 4
??$_Construct@PAUCustomMarkData@ioGuildMarkMgr@@ABQAU12@@std@@YAXPAPAUCustomMarkData@ioGuildMarkMgr@@ABQAU12@@Z PROC ; std::_Construct<ioGuildMarkMgr::CustomMarkData *,ioGuildMarkMgr::CustomMarkData * const &>, COMDAT

; 46   : 	{	// construct object at _Ptr with value _Val

  00000	55		 push	 ebp
  00001	8b ec		 mov	 ebp, esp

; 47   : 	void _FARQ *_Vptr = _Ptr;
; 48   : 	::new (_Vptr) _Ty1(_STD forward<_Ty2>(_Val));

  00003	8b 45 08	 mov	 eax, DWORD PTR __Ptr$[ebp]
  00006	85 c0		 test	 eax, eax
  00008	74 07		 je	 SHORT $LN3@Construct
  0000a	8b 4d 0c	 mov	 ecx, DWORD PTR __Val$[ebp]
  0000d	8b 09		 mov	 ecx, DWORD PTR [ecx]
  0000f	89 08		 mov	 DWORD PTR [eax], ecx
$LN3@Construct:

; 49   : 	}

  00011	5d		 pop	 ebp
  00012	c3		 ret	 0
??$_Construct@PAUCustomMarkData@ioGuildMarkMgr@@ABQAU12@@std@@YAXPAPAUCustomMarkData@ioGuildMarkMgr@@ABQAU12@@Z ENDP ; std::_Construct<ioGuildMarkMgr::CustomMarkData *,ioGuildMarkMgr::CustomMarkData * const &>
_TEXT	ENDS
PUBLIC	??$_Destroy@U_Node@?$_List_nod@KV?$allocator@K@std@@@std@@@std@@YAXPAU_Node@?$_List_nod@KV?$allocator@K@std@@@0@@Z ; std::_Destroy<std::_List_nod<unsigned long,std::allocator<unsigned long> >::_Node>
; Function compile flags: /Ogsp
;	COMDAT ??$_Destroy@U_Node@?$_List_nod@KV?$allocator@K@std@@@std@@@std@@YAXPAU_Node@?$_List_nod@KV?$allocator@K@std@@@0@@Z
_TEXT	SEGMENT
__Ptr$ = 8						; size = 4
??$_Destroy@U_Node@?$_List_nod@KV?$allocator@K@std@@@std@@@std@@YAXPAU_Node@?$_List_nod@KV?$allocator@K@std@@@0@@Z PROC ; std::_Destroy<std::_List_nod<unsigned long,std::allocator<unsigned long> >::_Node>, COMDAT

; 63   : 	_Ptr->~_Ty();
; 64   : 	}

  00000	c3		 ret	 0
??$_Destroy@U_Node@?$_List_nod@KV?$allocator@K@std@@@std@@@std@@YAXPAU_Node@?$_List_nod@KV?$allocator@K@std@@@0@@Z ENDP ; std::_Destroy<std::_List_nod<unsigned long,std::allocator<unsigned long> >::_Node>
_TEXT	ENDS
PUBLIC	??$move@AAV?$_Tree_iterator@V?$_Tree_val@V?$_Tmap_traits@KPAVioUIRenderImage@@U?$less@K@std@@V?$allocator@U?$pair@$$CBKPAVioUIRenderImage@@@std@@@3@$0A@@std@@@std@@@std@@@std@@YA$$QAV?$_Tree_iterator@V?$_Tree_val@V?$_Tmap_traits@KPAVioUIRenderImage@@U?$less@K@std@@V?$allocator@U?$pair@$$CBKPAVioUIRenderImage@@@std@@@3@$0A@@std@@@std@@@0@AAV10@@Z ; std::move<std::_Tree_iterator<std::_Tree_val<std::_Tmap_traits<unsigned long,ioUIRenderImage *,std::less<unsigned long>,std::allocator<std::pair<unsigned long const ,ioUIRenderImage *> >,0> > > &>
; Function compile flags: /Ogsp
; File c:\program files (x86)\microsoft visual studio 10.0\vc\include\utility
;	COMDAT ??$move@AAV?$_Tree_iterator@V?$_Tree_val@V?$_Tmap_traits@KPAVioUIRenderImage@@U?$less@K@std@@V?$allocator@U?$pair@$$CBKPAVioUIRenderImage@@@std@@@3@$0A@@std@@@std@@@std@@@std@@YA$$QAV?$_Tree_iterator@V?$_Tree_val@V?$_Tmap_traits@KPAVioUIRenderImage@@U?$less@K@std@@V?$allocator@U?$pair@$$CBKPAVioUIRenderImage@@@std@@@3@$0A@@std@@@std@@@0@AAV10@@Z
_TEXT	SEGMENT
__Arg$ = 8						; size = 4
??$move@AAV?$_Tree_iterator@V?$_Tree_val@V?$_Tmap_traits@KPAVioUIRenderImage@@U?$less@K@std@@V?$allocator@U?$pair@$$CBKPAVioUIRenderImage@@@std@@@3@$0A@@std@@@std@@@std@@@std@@YA$$QAV?$_Tree_iterator@V?$_Tree_val@V?$_Tmap_traits@KPAVioUIRenderImage@@U?$less@K@std@@V?$allocator@U?$pair@$$CBKPAVioUIRenderImage@@@std@@@3@$0A@@std@@@std@@@0@AAV10@@Z PROC ; std::move<std::_Tree_iterator<std::_Tree_val<std::_Tmap_traits<unsigned long,ioUIRenderImage *,std::less<unsigned long>,std::allocator<std::pair<unsigned long const ,ioUIRenderImage *> >,0> > > &>, COMDAT

; 86   : 	{	// forward _Arg as movable

  00000	55		 push	 ebp
  00001	8b ec		 mov	 ebp, esp

; 87   : 	return ((typename tr1::_Remove_reference<_Ty>::_Type&&)_Arg);

  00003	8b 45 08	 mov	 eax, DWORD PTR __Arg$[ebp]

; 88   : 	}

  00006	5d		 pop	 ebp
  00007	c3		 ret	 0
??$move@AAV?$_Tree_iterator@V?$_Tree_val@V?$_Tmap_traits@KPAVioUIRenderImage@@U?$less@K@std@@V?$allocator@U?$pair@$$CBKPAVioUIRenderImage@@@std@@@3@$0A@@std@@@std@@@std@@@std@@YA$$QAV?$_Tree_iterator@V?$_Tree_val@V?$_Tmap_traits@KPAVioUIRenderImage@@U?$less@K@std@@V?$allocator@U?$pair@$$CBKPAVioUIRenderImage@@@std@@@3@$0A@@std@@@std@@@0@AAV10@@Z ENDP ; std::move<std::_Tree_iterator<std::_Tree_val<std::_Tmap_traits<unsigned long,ioUIRenderImage *,std::less<unsigned long>,std::allocator<std::pair<unsigned long const ,ioUIRenderImage *> >,0> > > &>
_TEXT	ENDS
PUBLIC	?_Rechecked@?$_List_iterator@V?$_List_val@KV?$allocator@K@std@@@std@@@std@@QAEAAV12@V?$_List_unchecked_iterator@V?$_List_val@KV?$allocator@K@std@@@std@@@2@@Z ; std::_List_iterator<std::_List_val<unsigned long,std::allocator<unsigned long> > >::_Rechecked
; Function compile flags: /Ogsp
; File c:\program files (x86)\microsoft visual studio 10.0\vc\include\list
;	COMDAT ?_Rechecked@?$_List_iterator@V?$_List_val@KV?$allocator@K@std@@@std@@@std@@QAEAAV12@V?$_List_unchecked_iterator@V?$_List_val@KV?$allocator@K@std@@@std@@@2@@Z
_TEXT	SEGMENT
__Right$ = 8						; size = 4
?_Rechecked@?$_List_iterator@V?$_List_val@KV?$allocator@K@std@@@std@@@std@@QAEAAV12@V?$_List_unchecked_iterator@V?$_List_val@KV?$allocator@K@std@@@std@@@2@@Z PROC ; std::_List_iterator<std::_List_val<unsigned long,std::allocator<unsigned long> > >::_Rechecked, COMDAT
; _this$ = ecx

; 348  : 		{	// reset from unchecked iterator

  00000	55		 push	 ebp
  00001	8b ec		 mov	 ebp, esp
  00003	8b c1		 mov	 eax, ecx

; 349  : 		this->_Ptr = _Right._Ptr;

  00005	8b 4d 08	 mov	 ecx, DWORD PTR __Right$[ebp]
  00008	89 08		 mov	 DWORD PTR [eax], ecx

; 350  : 		return (*this);
; 351  : 		}

  0000a	5d		 pop	 ebp
  0000b	c2 04 00	 ret	 4
?_Rechecked@?$_List_iterator@V?$_List_val@KV?$allocator@K@std@@@std@@@std@@QAEAAV12@V?$_List_unchecked_iterator@V?$_List_val@KV?$allocator@K@std@@@std@@@2@@Z ENDP ; std::_List_iterator<std::_List_val<unsigned long,std::allocator<unsigned long> > >::_Rechecked
_TEXT	ENDS
PUBLIC	??D?$_List_unchecked_const_iterator@V?$_List_val@KV?$allocator@K@std@@@std@@U_Iterator_base0@2@@std@@QBEABKXZ ; std::_List_unchecked_const_iterator<std::_List_val<unsigned long,std::allocator<unsigned long> >,std::_Iterator_base0>::operator*
; Function compile flags: /Ogsp
;	COMDAT ??D?$_List_unchecked_const_iterator@V?$_List_val@KV?$allocator@K@std@@@std@@U_Iterator_base0@2@@std@@QBEABKXZ
_TEXT	SEGMENT
??D?$_List_unchecked_const_iterator@V?$_List_val@KV?$allocator@K@std@@@std@@U_Iterator_base0@2@@std@@QBEABKXZ PROC ; std::_List_unchecked_const_iterator<std::_List_val<unsigned long,std::allocator<unsigned long> >,std::_Iterator_base0>::operator*, COMDAT
; _this$ = ecx

; 47   : 		return (_Mylist::_Myval(_Ptr));

  00000	8b 01		 mov	 eax, DWORD PTR [ecx]
  00002	83 c0 08	 add	 eax, 8

; 48   : 		}

  00005	c3		 ret	 0
??D?$_List_unchecked_const_iterator@V?$_List_val@KV?$allocator@K@std@@@std@@U_Iterator_base0@2@@std@@QBEABKXZ ENDP ; std::_List_unchecked_const_iterator<std::_List_val<unsigned long,std::allocator<unsigned long> >,std::_Iterator_base0>::operator*
_TEXT	ENDS
PUBLIC	??E?$_List_unchecked_const_iterator@V?$_List_val@KV?$allocator@K@std@@@std@@U_Iterator_base0@2@@std@@QAEAAV01@XZ ; std::_List_unchecked_const_iterator<std::_List_val<unsigned long,std::allocator<unsigned long> >,std::_Iterator_base0>::operator++
; Function compile flags: /Ogsp
;	COMDAT ??E?$_List_unchecked_const_iterator@V?$_List_val@KV?$allocator@K@std@@@std@@U_Iterator_base0@2@@std@@QAEAAV01@XZ
_TEXT	SEGMENT
??E?$_List_unchecked_const_iterator@V?$_List_val@KV?$allocator@K@std@@@std@@U_Iterator_base0@2@@std@@QAEAAV01@XZ PROC ; std::_List_unchecked_const_iterator<std::_List_val<unsigned long,std::allocator<unsigned long> >,std::_Iterator_base0>::operator++, COMDAT
; _this$ = ecx

; 56   : 		{	// preincrement

  00000	8b c1		 mov	 eax, ecx

; 57   : 		_Ptr = _Mylist::_Nextnode(_Ptr);

  00002	8b 08		 mov	 ecx, DWORD PTR [eax]
  00004	8b 09		 mov	 ecx, DWORD PTR [ecx]
  00006	89 08		 mov	 DWORD PTR [eax], ecx

; 58   : 		return (*this);
; 59   : 		}

  00008	c3		 ret	 0
??E?$_List_unchecked_const_iterator@V?$_List_val@KV?$allocator@K@std@@@std@@U_Iterator_base0@2@@std@@QAEAAV01@XZ ENDP ; std::_List_unchecked_const_iterator<std::_List_val<unsigned long,std::allocator<unsigned long> >,std::_Iterator_base0>::operator++
_TEXT	ENDS
PUBLIC	??8?$_List_unchecked_const_iterator@V?$_List_val@KV?$allocator@K@std@@@std@@U_Iterator_base0@2@@std@@QBE_NABV01@@Z ; std::_List_unchecked_const_iterator<std::_List_val<unsigned long,std::allocator<unsigned long> >,std::_Iterator_base0>::operator==
; Function compile flags: /Ogsp
;	COMDAT ??8?$_List_unchecked_const_iterator@V?$_List_val@KV?$allocator@K@std@@@std@@U_Iterator_base0@2@@std@@QBE_NABV01@@Z
_TEXT	SEGMENT
__Right$ = 8						; size = 4
??8?$_List_unchecked_const_iterator@V?$_List_val@KV?$allocator@K@std@@@std@@U_Iterator_base0@2@@std@@QBE_NABV01@@Z PROC ; std::_List_unchecked_const_iterator<std::_List_val<unsigned long,std::allocator<unsigned long> >,std::_Iterator_base0>::operator==, COMDAT
; _this$ = ecx

; 82   : 		{	// test for iterator equality

  00000	55		 push	 ebp
  00001	8b ec		 mov	 ebp, esp

; 83   : 		return (_Ptr == _Right._Ptr);

  00003	8b 01		 mov	 eax, DWORD PTR [ecx]
  00005	8b 4d 08	 mov	 ecx, DWORD PTR __Right$[ebp]
  00008	2b 01		 sub	 eax, DWORD PTR [ecx]
  0000a	f7 d8		 neg	 eax
  0000c	1b c0		 sbb	 eax, eax
  0000e	40		 inc	 eax

; 84   : 		}

  0000f	5d		 pop	 ebp
  00010	c2 04 00	 ret	 4
??8?$_List_unchecked_const_iterator@V?$_List_val@KV?$allocator@K@std@@@std@@U_Iterator_base0@2@@std@@QBE_NABV01@@Z ENDP ; std::_List_unchecked_const_iterator<std::_List_val<unsigned long,std::allocator<unsigned long> >,std::_Iterator_base0>::operator==
_TEXT	ENDS
PUBLIC	??0?$_List_unchecked_iterator@V?$_List_val@KV?$allocator@K@std@@@std@@@std@@QAE@PAU_Node@?$_List_nod@KV?$allocator@K@std@@@1@PBV?$_List_val@KV?$allocator@K@std@@@1@@Z ; std::_List_unchecked_iterator<std::_List_val<unsigned long,std::allocator<unsigned long> > >::_List_unchecked_iterator<std::_List_val<unsigned long,std::allocator<unsigned long> > >
; Function compile flags: /Ogsp
;	COMDAT ??0?$_List_unchecked_iterator@V?$_List_val@KV?$allocator@K@std@@@std@@@std@@QAE@PAU_Node@?$_List_nod@KV?$allocator@K@std@@@1@PBV?$_List_val@KV?$allocator@K@std@@@1@@Z
_TEXT	SEGMENT
__Pnode$ = 8						; size = 4
__Plist$ = 12						; size = 4
??0?$_List_unchecked_iterator@V?$_List_val@KV?$allocator@K@std@@@std@@@std@@QAE@PAU_Node@?$_List_nod@KV?$allocator@K@std@@@1@PBV?$_List_val@KV?$allocator@K@std@@@1@@Z PROC ; std::_List_unchecked_iterator<std::_List_val<unsigned long,std::allocator<unsigned long> > >::_List_unchecked_iterator<std::_List_val<unsigned long,std::allocator<unsigned long> > >, COMDAT
; _this$ = ecx

; 121  : 		{	// construct with node pointer _Pnode

  00000	55		 push	 ebp
  00001	8b ec		 mov	 ebp, esp
  00003	8b c1		 mov	 eax, ecx
  00005	8b 4d 08	 mov	 ecx, DWORD PTR __Pnode$[ebp]
  00008	89 08		 mov	 DWORD PTR [eax], ecx

; 122  : 		}

  0000a	5d		 pop	 ebp
  0000b	c2 08 00	 ret	 8
??0?$_List_unchecked_iterator@V?$_List_val@KV?$allocator@K@std@@@std@@@std@@QAE@PAU_Node@?$_List_nod@KV?$allocator@K@std@@@1@PBV?$_List_val@KV?$allocator@K@std@@@1@@Z ENDP ; std::_List_unchecked_iterator<std::_List_val<unsigned long,std::allocator<unsigned long> > >::_List_unchecked_iterator<std::_List_val<unsigned long,std::allocator<unsigned long> > >
_TEXT	ENDS
PUBLIC	??$_Val_type@PAPAUCustomMarkData@ioGuildMarkMgr@@@std@@YAPAPAUCustomMarkData@ioGuildMarkMgr@@PAPAU12@@Z ; std::_Val_type<ioGuildMarkMgr::CustomMarkData * *>
; Function compile flags: /Ogsp
; File c:\program files (x86)\microsoft visual studio 10.0\vc\include\xutility
;	COMDAT ??$_Val_type@PAPAUCustomMarkData@ioGuildMarkMgr@@@std@@YAPAPAUCustomMarkData@ioGuildMarkMgr@@PAPAU12@@Z
_TEXT	SEGMENT
___formal$ = 8						; size = 4
??$_Val_type@PAPAUCustomMarkData@ioGuildMarkMgr@@@std@@YAPAPAUCustomMarkData@ioGuildMarkMgr@@PAPAU12@@Z PROC ; std::_Val_type<ioGuildMarkMgr::CustomMarkData * *>, COMDAT

; 790  : 	return (0);

  00000	33 c0		 xor	 eax, eax

; 791  : 	}

  00002	c3		 ret	 0
??$_Val_type@PAPAUCustomMarkData@ioGuildMarkMgr@@@std@@YAPAPAUCustomMarkData@ioGuildMarkMgr@@PAPAU12@@Z ENDP ; std::_Val_type<ioGuildMarkMgr::CustomMarkData * *>
_TEXT	ENDS
PUBLIC	??$_Uninit_move@PAUCustomMarkData@ioGuildMarkMgr@@PAU12@PAU12@@std@@YAPAPAUCustomMarkData@ioGuildMarkMgr@@PAPAU12@00AAV?$allocator@PAUCustomMarkData@ioGuildMarkMgr@@@0@0U_Scalar_ptr_iterator_tag@0@@Z ; std::_Uninit_move<ioGuildMarkMgr::CustomMarkData *,ioGuildMarkMgr::CustomMarkData *,ioGuildMarkMgr::CustomMarkData *>
; Function compile flags: /Ogsp
; File c:\program files (x86)\microsoft visual studio 10.0\vc\include\memory
;	COMDAT ??$_Uninit_move@PAUCustomMarkData@ioGuildMarkMgr@@PAU12@PAU12@@std@@YAPAPAUCustomMarkData@ioGuildMarkMgr@@PAPAU12@00AAV?$allocator@PAUCustomMarkData@ioGuildMarkMgr@@@0@0U_Scalar_ptr_iterator_tag@0@@Z
_TEXT	SEGMENT
__First$ = 8						; size = 4
__Last$ = 12						; size = 4
__Dest$ = 16						; size = 4
___formal$ = 20						; size = 4
___formal$ = 24						; size = 4
___formal$ = 28						; size = 1
??$_Uninit_move@PAUCustomMarkData@ioGuildMarkMgr@@PAU12@PAU12@@std@@YAPAPAUCustomMarkData@ioGuildMarkMgr@@PAPAU12@00AAV?$allocator@PAUCustomMarkData@ioGuildMarkMgr@@@0@0U_Scalar_ptr_iterator_tag@0@@Z PROC ; std::_Uninit_move<ioGuildMarkMgr::CustomMarkData *,ioGuildMarkMgr::CustomMarkData *,ioGuildMarkMgr::CustomMarkData *>, COMDAT

; 456  : 	{	// move [_First, _Last) to raw _Dest, scalar type

  00000	55		 push	 ebp
  00001	8b ec		 mov	 ebp, esp
  00003	56		 push	 esi

; 457  : 	_DEBUG_RANGE(_First, _Last);
; 458  : 	_DEBUG_POINTER(_Dest);
; 459  : 	size_t _Count = (size_t)(_Last - _First);

  00004	8b 75 0c	 mov	 esi, DWORD PTR __Last$[ebp]
  00007	2b 75 08	 sub	 esi, DWORD PTR __First$[ebp]
  0000a	c1 fe 02	 sar	 esi, 2

; 460  : 	return ((_Ty2 *)_CSTD memmove(&*_Dest, &*_First,
; 461  : 		_Count * sizeof (*_First)) + _Count);	// NB: non-overlapping move

  0000d	c1 e6 02	 shl	 esi, 2
  00010	56		 push	 esi
  00011	ff 75 08	 push	 DWORD PTR __First$[ebp]
  00014	ff 75 10	 push	 DWORD PTR __Dest$[ebp]
  00017	ff 15 00 00 00
	00		 call	 DWORD PTR __imp__memmove
  0001d	83 c4 0c	 add	 esp, 12			; 0000000cH
  00020	03 c6		 add	 eax, esi
  00022	5e		 pop	 esi

; 462  : 	}

  00023	5d		 pop	 ebp
  00024	c3		 ret	 0
??$_Uninit_move@PAUCustomMarkData@ioGuildMarkMgr@@PAU12@PAU12@@std@@YAPAPAUCustomMarkData@ioGuildMarkMgr@@PAPAU12@00AAV?$allocator@PAUCustomMarkData@ioGuildMarkMgr@@@0@0U_Scalar_ptr_iterator_tag@0@@Z ENDP ; std::_Uninit_move<ioGuildMarkMgr::CustomMarkData *,ioGuildMarkMgr::CustomMarkData *,ioGuildMarkMgr::CustomMarkData *>
_TEXT	ENDS
PUBLIC	??$forward@AAV?$_Tree_iterator@V?$_Tree_val@V?$_Tmap_traits@KPAVioUIRenderImage@@U?$less@K@std@@V?$allocator@U?$pair@$$CBKPAVioUIRenderImage@@@std@@@3@$0A@@std@@@std@@@std@@@std@@YAAAV?$_Tree_iterator@V?$_Tree_val@V?$_Tmap_traits@KPAVioUIRenderImage@@U?$less@K@std@@V?$allocator@U?$pair@$$CBKPAVioUIRenderImage@@@std@@@3@$0A@@std@@@std@@@0@AAV10@@Z ; std::forward<std::_Tree_iterator<std::_Tree_val<std::_Tmap_traits<unsigned long,ioUIRenderImage *,std::less<unsigned long>,std::allocator<std::pair<unsigned long const ,ioUIRenderImage *> >,0> > > &>
; Function compile flags: /Ogsp
; File c:\program files (x86)\microsoft visual studio 10.0\vc\include\utility
;	COMDAT ??$forward@AAV?$_Tree_iterator@V?$_Tree_val@V?$_Tmap_traits@KPAVioUIRenderImage@@U?$less@K@std@@V?$allocator@U?$pair@$$CBKPAVioUIRenderImage@@@std@@@3@$0A@@std@@@std@@@std@@@std@@YAAAV?$_Tree_iterator@V?$_Tree_val@V?$_Tmap_traits@KPAVioUIRenderImage@@U?$less@K@std@@V?$allocator@U?$pair@$$CBKPAVioUIRenderImage@@@std@@@3@$0A@@std@@@std@@@0@AAV10@@Z
_TEXT	SEGMENT
__Arg$ = 8						; size = 4
??$forward@AAV?$_Tree_iterator@V?$_Tree_val@V?$_Tmap_traits@KPAVioUIRenderImage@@U?$less@K@std@@V?$allocator@U?$pair@$$CBKPAVioUIRenderImage@@@std@@@3@$0A@@std@@@std@@@std@@@std@@YAAAV?$_Tree_iterator@V?$_Tree_val@V?$_Tmap_traits@KPAVioUIRenderImage@@U?$less@K@std@@V?$allocator@U?$pair@$$CBKPAVioUIRenderImage@@@std@@@3@$0A@@std@@@std@@@0@AAV10@@Z PROC ; std::forward<std::_Tree_iterator<std::_Tree_val<std::_Tmap_traits<unsigned long,ioUIRenderImage *,std::less<unsigned long>,std::allocator<std::pair<unsigned long const ,ioUIRenderImage *> >,0> > > &>, COMDAT

; 78   : 	{	// forward _Arg, given explicitly specified type parameter

  00000	55		 push	 ebp
  00001	8b ec		 mov	 ebp, esp

; 79   : 	return ((_Ty&&)_Arg);

  00003	8b 45 08	 mov	 eax, DWORD PTR __Arg$[ebp]

; 80   : 	}

  00006	5d		 pop	 ebp
  00007	c3		 ret	 0
??$forward@AAV?$_Tree_iterator@V?$_Tree_val@V?$_Tmap_traits@KPAVioUIRenderImage@@U?$less@K@std@@V?$allocator@U?$pair@$$CBKPAVioUIRenderImage@@@std@@@3@$0A@@std@@@std@@@std@@@std@@YAAAV?$_Tree_iterator@V?$_Tree_val@V?$_Tmap_traits@KPAVioUIRenderImage@@U?$less@K@std@@V?$allocator@U?$pair@$$CBKPAVioUIRenderImage@@@std@@@3@$0A@@std@@@std@@@0@AAV10@@Z ENDP ; std::forward<std::_Tree_iterator<std::_Tree_val<std::_Tmap_traits<unsigned long,ioUIRenderImage *,std::less<unsigned long>,std::allocator<std::pair<unsigned long const ,ioUIRenderImage *> >,0> > > &>
_TEXT	ENDS
PUBLIC	??$forward@$$CBK@std@@YA$$QBKABK@Z		; std::forward<unsigned long const >
; Function compile flags: /Ogsp
;	COMDAT ??$forward@$$CBK@std@@YA$$QBKABK@Z
_TEXT	SEGMENT
__Arg$ = 8						; size = 4
??$forward@$$CBK@std@@YA$$QBKABK@Z PROC			; std::forward<unsigned long const >, COMDAT

; 78   : 	{	// forward _Arg, given explicitly specified type parameter

  00000	55		 push	 ebp
  00001	8b ec		 mov	 ebp, esp

; 79   : 	return ((_Ty&&)_Arg);

  00003	8b 45 08	 mov	 eax, DWORD PTR __Arg$[ebp]

; 80   : 	}

  00006	5d		 pop	 ebp
  00007	c3		 ret	 0
??$forward@$$CBK@std@@YA$$QBKABK@Z ENDP			; std::forward<unsigned long const >
_TEXT	ENDS
PUBLIC	??$move@ABK@std@@YA$$QBKABK@Z			; std::move<unsigned long const &>
; Function compile flags: /Ogsp
;	COMDAT ??$move@ABK@std@@YA$$QBKABK@Z
_TEXT	SEGMENT
__Arg$ = 8						; size = 4
??$move@ABK@std@@YA$$QBKABK@Z PROC			; std::move<unsigned long const &>, COMDAT

; 86   : 	{	// forward _Arg as movable

  00000	55		 push	 ebp
  00001	8b ec		 mov	 ebp, esp

; 87   : 	return ((typename tr1::_Remove_reference<_Ty>::_Type&&)_Arg);

  00003	8b 45 08	 mov	 eax, DWORD PTR __Arg$[ebp]

; 88   : 	}

  00006	5d		 pop	 ebp
  00007	c3		 ret	 0
??$move@ABK@std@@YA$$QBKABK@Z ENDP			; std::move<unsigned long const &>
_TEXT	ENDS
PUBLIC	??$move@AAPAVioUIRenderImage@@@std@@YA$$QAPAVioUIRenderImage@@AAPAV1@@Z ; std::move<ioUIRenderImage * &>
; Function compile flags: /Ogsp
;	COMDAT ??$move@AAPAVioUIRenderImage@@@std@@YA$$QAPAVioUIRenderImage@@AAPAV1@@Z
_TEXT	SEGMENT
__Arg$ = 8						; size = 4
??$move@AAPAVioUIRenderImage@@@std@@YA$$QAPAVioUIRenderImage@@AAPAV1@@Z PROC ; std::move<ioUIRenderImage * &>, COMDAT

; 86   : 	{	// forward _Arg as movable

  00000	55		 push	 ebp
  00001	8b ec		 mov	 ebp, esp

; 87   : 	return ((typename tr1::_Remove_reference<_Ty>::_Type&&)_Arg);

  00003	8b 45 08	 mov	 eax, DWORD PTR __Arg$[ebp]

; 88   : 	}

  00006	5d		 pop	 ebp
  00007	c3		 ret	 0
??$move@AAPAVioUIRenderImage@@@std@@YA$$QAPAVioUIRenderImage@@AAPAV1@@Z ENDP ; std::move<ioUIRenderImage * &>
_TEXT	ENDS
PUBLIC	?_DECSTR@@YAXPADH@Z				; _DECSTR
; Function compile flags: /Ogsp
; File d:\lost saga for developer\youtube\tutorial\source\src\lsclient\stringprotect.h
;	COMDAT ?_DECSTR@@YAXPADH@Z
_TEXT	SEGMENT
_s$ = 8							; size = 4
_l$ = 12						; size = 4
?_DECSTR@@YAXPADH@Z PROC				; _DECSTR, COMDAT

; 40   : __forceinline void _DECSTR(char* s, int l){int i=0,l4=(l-1)/4,*p=(int*)s;s[l-1]=0;for(;i<l4;++i)*(p++)^=0xEAEBECED;for(i=l4*4;i<l-1;++i)s[i]^=0xED-i%4;}

  00000	55		 push	 ebp
  00001	8b ec		 mov	 ebp, esp
  00003	8b 4d 0c	 mov	 ecx, DWORD PTR _l$[ebp]
  00006	56		 push	 esi
  00007	8b 75 08	 mov	 esi, DWORD PTR _s$[ebp]
  0000a	57		 push	 edi
  0000b	8d 79 ff	 lea	 edi, DWORD PTR [ecx-1]
  0000e	8b c7		 mov	 eax, edi
  00010	99		 cdq
  00011	83 e2 03	 and	 edx, 3
  00014	03 c2		 add	 eax, edx
  00016	c1 f8 02	 sar	 eax, 2
  00019	8b d6		 mov	 edx, esi
  0001b	c6 44 0e ff 00	 mov	 BYTE PTR [esi+ecx-1], 0
  00020	85 c0		 test	 eax, eax
  00022	7e 0e		 jle	 SHORT $LN4@DECSTR
  00024	8b c8		 mov	 ecx, eax
$LL6@DECSTR:
  00026	81 32 ed ec eb
	ea		 xor	 DWORD PTR [edx], -353637139 ; eaebecedH
  0002c	83 c2 04	 add	 edx, 4
  0002f	49		 dec	 ecx
  00030	75 f4		 jne	 SHORT $LL6@DECSTR
$LN4@DECSTR:
  00032	c1 e0 02	 shl	 eax, 2
  00035	eb 17		 jmp	 SHORT $LN14@DECSTR
$LL3@DECSTR:
  00037	8b c8		 mov	 ecx, eax
  00039	81 e1 03 00 00
	80		 and	 ecx, -2147483645	; 80000003H
  0003f	79 05		 jns	 SHORT $LN13@DECSTR
  00041	49		 dec	 ecx
  00042	83 c9 fc	 or	 ecx, -4			; fffffffcH
  00045	41		 inc	 ecx
$LN13@DECSTR:
  00046	b2 ed		 mov	 dl, -19			; ffffffedH
  00048	2a d1		 sub	 dl, cl
  0004a	30 14 30	 xor	 BYTE PTR [eax+esi], dl
  0004d	40		 inc	 eax
$LN14@DECSTR:
  0004e	3b c7		 cmp	 eax, edi
  00050	7c e5		 jl	 SHORT $LL3@DECSTR
  00052	5f		 pop	 edi
  00053	5e		 pop	 esi
  00054	5d		 pop	 ebp
  00055	c3		 ret	 0
?_DECSTR@@YAXPADH@Z ENDP				; _DECSTR
_TEXT	ENDS
PUBLIC	??0?$allocator@K@std@@QAE@XZ			; std::allocator<unsigned long>::allocator<unsigned long>
; Function compile flags: /Ogsp
; File c:\program files (x86)\microsoft visual studio 10.0\vc\include\xmemory
;	COMDAT ??0?$allocator@K@std@@QAE@XZ
_TEXT	SEGMENT
??0?$allocator@K@std@@QAE@XZ PROC			; std::allocator<unsigned long>::allocator<unsigned long>, COMDAT
; _this$ = ecx

; 161  : 	_ALLOCATOR() _THROW0()

  00000	8b c1		 mov	 eax, ecx

; 162  : 		{	// construct default allocator (do nothing)
; 163  : 		}

  00002	c3		 ret	 0
??0?$allocator@K@std@@QAE@XZ ENDP			; std::allocator<unsigned long>::allocator<unsigned long>
_TEXT	ENDS
PUBLIC	??0?$allocator@K@std@@QAE@ABV01@@Z		; std::allocator<unsigned long>::allocator<unsigned long>
; Function compile flags: /Ogsp
;	COMDAT ??0?$allocator@K@std@@QAE@ABV01@@Z
_TEXT	SEGMENT
___formal$ = 8						; size = 4
??0?$allocator@K@std@@QAE@ABV01@@Z PROC			; std::allocator<unsigned long>::allocator<unsigned long>, COMDAT
; _this$ = ecx

; 165  : 	_ALLOCATOR(const _ALLOCATOR<_Ty>&) _THROW0()

  00000	8b c1		 mov	 eax, ecx

; 166  : 		{	// construct by copying (do nothing)
; 167  : 		}

  00002	c2 04 00	 ret	 4
??0?$allocator@K@std@@QAE@ABV01@@Z ENDP			; std::allocator<unsigned long>::allocator<unsigned long>
_TEXT	ENDS
PUBLIC	?max_size@?$allocator@K@std@@QBEIXZ		; std::allocator<unsigned long>::max_size
; Function compile flags: /Ogsp
;	COMDAT ?max_size@?$allocator@K@std@@QBEIXZ
_TEXT	SEGMENT
?max_size@?$allocator@K@std@@QBEIXZ PROC		; std::allocator<unsigned long>::max_size, COMDAT
; _this$ = ecx

; 218  : 		_SIZT _Count = (_SIZT)(-1) / sizeof (_Ty);
; 219  : 		return (0 < _Count ? _Count : 1);

  00000	b8 ff ff ff 3f	 mov	 eax, 1073741823		; 3fffffffH

; 220  : 		}

  00005	c3		 ret	 0
?max_size@?$allocator@K@std@@QBEIXZ ENDP		; std::allocator<unsigned long>::max_size
_TEXT	ENDS
EXTRN	__imp_??0exception@std@@QAE@ABV01@@Z:PROC
; Function compile flags: /Ogsp
;	COMDAT ??0bad_alloc@std@@QAE@ABV01@@Z
_TEXT	SEGMENT
___that$ = 8						; size = 4
??0bad_alloc@std@@QAE@ABV01@@Z PROC			; std::bad_alloc::bad_alloc, COMDAT
; _this$ = ecx
  00000	55		 push	 ebp
  00001	8b ec		 mov	 ebp, esp
  00003	56		 push	 esi
  00004	ff 75 08	 push	 DWORD PTR ___that$[ebp]
  00007	8b f1		 mov	 esi, ecx
  00009	ff 15 00 00 00
	00		 call	 DWORD PTR __imp_??0exception@std@@QAE@ABV01@@Z
  0000f	c7 06 00 00 00
	00		 mov	 DWORD PTR [esi], OFFSET ??_7bad_alloc@std@@6B@
  00015	8b c6		 mov	 eax, esi
  00017	5e		 pop	 esi
  00018	5d		 pop	 ebp
  00019	c2 04 00	 ret	 4
??0bad_alloc@std@@QAE@ABV01@@Z ENDP			; std::bad_alloc::bad_alloc
_TEXT	ENDS
PUBLIC	??$forward@AAH@std@@YAAAHAAH@Z			; std::forward<int &>
; Function compile flags: /Ogsp
; File c:\program files (x86)\microsoft visual studio 10.0\vc\include\utility
;	COMDAT ??$forward@AAH@std@@YAAAHAAH@Z
_TEXT	SEGMENT
__Arg$ = 8						; size = 4
??$forward@AAH@std@@YAAAHAAH@Z PROC			; std::forward<int &>, COMDAT

; 78   : 	{	// forward _Arg, given explicitly specified type parameter

  00000	55		 push	 ebp
  00001	8b ec		 mov	 ebp, esp

; 79   : 	return ((_Ty&&)_Arg);

  00003	8b 45 08	 mov	 eax, DWORD PTR __Arg$[ebp]

; 80   : 	}

  00006	5d		 pop	 ebp
  00007	c3		 ret	 0
??$forward@AAH@std@@YAAAHAAH@Z ENDP			; std::forward<int &>
_TEXT	ENDS
PUBLIC	??$forward@AAK@std@@YAAAKAAK@Z			; std::forward<unsigned long &>
; Function compile flags: /Ogsp
;	COMDAT ??$forward@AAK@std@@YAAAKAAK@Z
_TEXT	SEGMENT
__Arg$ = 8						; size = 4
??$forward@AAK@std@@YAAAKAAK@Z PROC			; std::forward<unsigned long &>, COMDAT

; 78   : 	{	// forward _Arg, given explicitly specified type parameter

  00000	55		 push	 ebp
  00001	8b ec		 mov	 ebp, esp

; 79   : 	return ((_Ty&&)_Arg);

  00003	8b 45 08	 mov	 eax, DWORD PTR __Arg$[ebp]

; 80   : 	}

  00006	5d		 pop	 ebp
  00007	c3		 ret	 0
??$forward@AAK@std@@YAAAKAAK@Z ENDP			; std::forward<unsigned long &>
_TEXT	ENDS
PUBLIC	??$forward@ABK@std@@YAABKABK@Z			; std::forward<unsigned long const &>
; Function compile flags: /Ogsp
;	COMDAT ??$forward@ABK@std@@YAABKABK@Z
_TEXT	SEGMENT
__Arg$ = 8						; size = 4
??$forward@ABK@std@@YAABKABK@Z PROC			; std::forward<unsigned long const &>, COMDAT

; 78   : 	{	// forward _Arg, given explicitly specified type parameter

  00000	55		 push	 ebp
  00001	8b ec		 mov	 ebp, esp

; 79   : 	return ((_Ty&&)_Arg);

  00003	8b 45 08	 mov	 eax, DWORD PTR __Arg$[ebp]

; 80   : 	}

  00006	5d		 pop	 ebp
  00007	c3		 ret	 0
??$forward@ABK@std@@YAABKABK@Z ENDP			; std::forward<unsigned long const &>
_TEXT	ENDS
PUBLIC	??$_Move@AAD@std@@YA$$QADAAD@Z			; std::_Move<char &>
; Function compile flags: /Ogsp
;	COMDAT ??$_Move@AAD@std@@YA$$QADAAD@Z
_TEXT	SEGMENT
__Arg$ = 8						; size = 4
??$_Move@AAD@std@@YA$$QADAAD@Z PROC			; std::_Move<char &>, COMDAT

; 94   : 	{	// forward _Arg as movable

  00000	55		 push	 ebp
  00001	8b ec		 mov	 ebp, esp

; 95   : 	return ((typename tr1::_Remove_reference<_Ty>::_Type&&)_Arg);

  00003	8b 45 08	 mov	 eax, DWORD PTR __Arg$[ebp]

; 96   : 	}

  00006	5d		 pop	 ebp
  00007	c3		 ret	 0
??$_Move@AAD@std@@YA$$QADAAD@Z ENDP			; std::_Move<char &>
_TEXT	ENDS
PUBLIC	??$_Construct@KABK@std@@YAXPAKABK@Z		; std::_Construct<unsigned long,unsigned long const &>
; Function compile flags: /Ogsp
; File c:\program files (x86)\microsoft visual studio 10.0\vc\include\xmemory
;	COMDAT ??$_Construct@KABK@std@@YAXPAKABK@Z
_TEXT	SEGMENT
__Ptr$ = 8						; size = 4
__Val$ = 12						; size = 4
??$_Construct@KABK@std@@YAXPAKABK@Z PROC		; std::_Construct<unsigned long,unsigned long const &>, COMDAT

; 46   : 	{	// construct object at _Ptr with value _Val

  00000	55		 push	 ebp
  00001	8b ec		 mov	 ebp, esp

; 47   : 	void _FARQ *_Vptr = _Ptr;
; 48   : 	::new (_Vptr) _Ty1(_STD forward<_Ty2>(_Val));

  00003	8b 45 08	 mov	 eax, DWORD PTR __Ptr$[ebp]
  00006	85 c0		 test	 eax, eax
  00008	74 07		 je	 SHORT $LN3@Construct@2
  0000a	8b 4d 0c	 mov	 ecx, DWORD PTR __Val$[ebp]
  0000d	8b 09		 mov	 ecx, DWORD PTR [ecx]
  0000f	89 08		 mov	 DWORD PTR [eax], ecx
$LN3@Construct@2:

; 49   : 	}

  00011	5d		 pop	 ebp
  00012	c3		 ret	 0
??$_Construct@KABK@std@@YAXPAKABK@Z ENDP		; std::_Construct<unsigned long,unsigned long const &>
_TEXT	ENDS
PUBLIC	??$move@AA_N@std@@YA$$QA_NAA_N@Z		; std::move<bool &>
; Function compile flags: /Ogsp
; File c:\program files (x86)\microsoft visual studio 10.0\vc\include\utility
;	COMDAT ??$move@AA_N@std@@YA$$QA_NAA_N@Z
_TEXT	SEGMENT
__Arg$ = 8						; size = 4
??$move@AA_N@std@@YA$$QA_NAA_N@Z PROC			; std::move<bool &>, COMDAT

; 86   : 	{	// forward _Arg as movable

  00000	55		 push	 ebp
  00001	8b ec		 mov	 ebp, esp

; 87   : 	return ((typename tr1::_Remove_reference<_Ty>::_Type&&)_Arg);

  00003	8b 45 08	 mov	 eax, DWORD PTR __Arg$[ebp]

; 88   : 	}

  00006	5d		 pop	 ebp
  00007	c3		 ret	 0
??$move@AA_N@std@@YA$$QA_NAA_N@Z ENDP			; std::move<bool &>
_TEXT	ENDS
PUBLIC	??$forward@_N@std@@YA$$QA_NAA_N@Z		; std::forward<bool>
; Function compile flags: /Ogsp
;	COMDAT ??$forward@_N@std@@YA$$QA_NAA_N@Z
_TEXT	SEGMENT
__Arg$ = 8						; size = 4
??$forward@_N@std@@YA$$QA_NAA_N@Z PROC			; std::forward<bool>, COMDAT

; 78   : 	{	// forward _Arg, given explicitly specified type parameter

  00000	55		 push	 ebp
  00001	8b ec		 mov	 ebp, esp

; 79   : 	return ((_Ty&&)_Arg);

  00003	8b 45 08	 mov	 eax, DWORD PTR __Arg$[ebp]

; 80   : 	}

  00006	5d		 pop	 ebp
  00007	c3		 ret	 0
??$forward@_N@std@@YA$$QA_NAA_N@Z ENDP			; std::forward<bool>
_TEXT	ENDS
PUBLIC	??0CustomMarkData@ioGuildMarkMgr@@QAE@XZ	; ioGuildMarkMgr::CustomMarkData::CustomMarkData
; Function compile flags: /Ogsp
; File d:\lost saga for developer\youtube\tutorial\source\src\lsclient\ioguildmarkmgr.h
;	COMDAT ??0CustomMarkData@ioGuildMarkMgr@@QAE@XZ
_TEXT	SEGMENT
??0CustomMarkData@ioGuildMarkMgr@@QAE@XZ PROC		; ioGuildMarkMgr::CustomMarkData::CustomMarkData, COMDAT
; _this$ = ecx

; 20   : 		CustomMarkData()

  00000	8b c1		 mov	 eax, ecx

; 21   : 		{
; 22   : 			Init();

  00002	33 c9		 xor	 ecx, ecx
  00004	89 48 04	 mov	 DWORD PTR [eax+4], ecx
  00007	89 08		 mov	 DWORD PTR [eax], ecx

; 23   : 			m_pCustomMark = NULL;

  00009	89 48 08	 mov	 DWORD PTR [eax+8], ecx

; 24   : 		}

  0000c	c3		 ret	 0
??0CustomMarkData@ioGuildMarkMgr@@QAE@XZ ENDP		; ioGuildMarkMgr::CustomMarkData::CustomMarkData
; Function compile flags: /Ogsp
_TEXT	ENDS
;	COMDAT ??_GioGuildMarkTask@@UAEPAXI@Z
_TEXT	SEGMENT
___flags$ = 8						; size = 4
??_GioGuildMarkTask@@UAEPAXI@Z PROC			; ioGuildMarkTask::`scalar deleting destructor', COMDAT
; _this$ = ecx
  00000	55		 push	 ebp
  00001	8b ec		 mov	 ebp, esp
  00003	56		 push	 esi
  00004	8b f1		 mov	 esi, ecx
  00006	e8 00 00 00 00	 call	 ??1ioGuildMarkTask@@UAE@XZ ; ioGuildMarkTask::~ioGuildMarkTask
  0000b	f6 45 08 01	 test	 BYTE PTR ___flags$[ebp], 1
  0000f	74 07		 je	 SHORT $LN1@scalar@2
  00011	56		 push	 esi
  00012	e8 00 00 00 00	 call	 ??3@YAXPAX@Z		; operator delete
  00017	59		 pop	 ecx
$LN1@scalar@2:
  00018	8b c6		 mov	 eax, esi
  0001a	5e		 pop	 esi
  0001b	5d		 pop	 ebp
  0001c	c2 04 00	 ret	 4
??_GioGuildMarkTask@@UAEPAXI@Z ENDP			; ioGuildMarkTask::`scalar deleting destructor'
_TEXT	ENDS
PUBLIC	?GetSingleton@ioGuildMarkMgr@@SAAAV1@XZ		; ioGuildMarkMgr::GetSingleton
; Function compile flags: /Ogsp
; File d:\lost saga for developer\youtube\tutorial\source\src\lsclient\ioguildmarkmgr.cpp
;	COMDAT ?GetSingleton@ioGuildMarkMgr@@SAAAV1@XZ
_TEXT	SEGMENT
?GetSingleton@ioGuildMarkMgr@@SAAAV1@XZ PROC		; ioGuildMarkMgr::GetSingleton, COMDAT

; 89   : 	return Singleton< ioGuildMarkMgr >::GetSingleton();

  00000	a1 00 00 00 00	 mov	 eax, DWORD PTR ?ms_Singleton@?$Singleton@VioGuildMarkMgr@@@@1PAVioGuildMarkMgr@@A ; Singleton<ioGuildMarkMgr>::ms_Singleton

; 90   : }

  00005	c3		 ret	 0
?GetSingleton@ioGuildMarkMgr@@SAAAV1@XZ ENDP		; ioGuildMarkMgr::GetSingleton
_TEXT	ENDS
PUBLIC	??9?$_List_const_iterator@V?$_List_val@KV?$allocator@K@std@@@std@@@std@@QBE_NABV01@@Z ; std::_List_const_iterator<std::_List_val<unsigned long,std::allocator<unsigned long> > >::operator!=
; Function compile flags: /Ogsp
; File c:\program files (x86)\microsoft visual studio 10.0\vc\include\list
;	COMDAT ??9?$_List_const_iterator@V?$_List_val@KV?$allocator@K@std@@@std@@@std@@QBE_NABV01@@Z
_TEXT	SEGMENT
__Right$ = 8						; size = 4
??9?$_List_const_iterator@V?$_List_val@KV?$allocator@K@std@@@std@@@std@@QBE_NABV01@@Z PROC ; std::_List_const_iterator<std::_List_val<unsigned long,std::allocator<unsigned long> > >::operator!=, COMDAT
; _this$ = ecx

; 299  : 		{	// test for iterator inequality

  00000	55		 push	 ebp
  00001	8b ec		 mov	 ebp, esp

; 300  : 		return (!(*this == _Right));

  00003	8b 01		 mov	 eax, DWORD PTR [ecx]
  00005	8b 55 08	 mov	 edx, DWORD PTR __Right$[ebp]
  00008	33 c9		 xor	 ecx, ecx
  0000a	3b 02		 cmp	 eax, DWORD PTR [edx]
  0000c	0f 95 c0	 setne	 al

; 301  : 		}

  0000f	5d		 pop	 ebp
  00010	c2 04 00	 ret	 4
??9?$_List_const_iterator@V?$_List_val@KV?$allocator@K@std@@@std@@@std@@QBE_NABV01@@Z ENDP ; std::_List_const_iterator<std::_List_val<unsigned long,std::allocator<unsigned long> > >::operator!=
_TEXT	ENDS
PUBLIC	??9?$_Tree_const_iterator@V?$_Tree_val@V?$_Tmap_traits@KPAVioUIRenderImage@@U?$less@K@std@@V?$allocator@U?$pair@$$CBKPAVioUIRenderImage@@@std@@@3@$0A@@std@@@std@@@std@@QBE_NABV01@@Z ; std::_Tree_const_iterator<std::_Tree_val<std::_Tmap_traits<unsigned long,ioUIRenderImage *,std::less<unsigned long>,std::allocator<std::pair<unsigned long const ,ioUIRenderImage *> >,0> > >::operator!=
; Function compile flags: /Ogsp
; File c:\program files (x86)\microsoft visual studio 10.0\vc\include\xtree
;	COMDAT ??9?$_Tree_const_iterator@V?$_Tree_val@V?$_Tmap_traits@KPAVioUIRenderImage@@U?$less@K@std@@V?$allocator@U?$pair@$$CBKPAVioUIRenderImage@@@std@@@3@$0A@@std@@@std@@@std@@QBE_NABV01@@Z
_TEXT	SEGMENT
__Right$ = 8						; size = 4
??9?$_Tree_const_iterator@V?$_Tree_val@V?$_Tmap_traits@KPAVioUIRenderImage@@U?$less@K@std@@V?$allocator@U?$pair@$$CBKPAVioUIRenderImage@@@std@@@3@$0A@@std@@@std@@@std@@QBE_NABV01@@Z PROC ; std::_Tree_const_iterator<std::_Tree_val<std::_Tmap_traits<unsigned long,ioUIRenderImage *,std::less<unsigned long>,std::allocator<std::pair<unsigned long const ,ioUIRenderImage *> >,0> > >::operator!=, COMDAT
; _this$ = ecx

; 334  : 		{	// test for iterator inequality

  00000	55		 push	 ebp
  00001	8b ec		 mov	 ebp, esp

; 335  : 		return (!(*this == _Right));

  00003	8b 01		 mov	 eax, DWORD PTR [ecx]
  00005	8b 55 08	 mov	 edx, DWORD PTR __Right$[ebp]
  00008	33 c9		 xor	 ecx, ecx
  0000a	3b 02		 cmp	 eax, DWORD PTR [edx]
  0000c	0f 95 c0	 setne	 al

; 336  : 		}

  0000f	5d		 pop	 ebp
  00010	c2 04 00	 ret	 4
??9?$_Tree_const_iterator@V?$_Tree_val@V?$_Tmap_traits@KPAVioUIRenderImage@@U?$less@K@std@@V?$allocator@U?$pair@$$CBKPAVioUIRenderImage@@@std@@@3@$0A@@std@@@std@@@std@@QBE_NABV01@@Z ENDP ; std::_Tree_const_iterator<std::_Tree_val<std::_Tmap_traits<unsigned long,ioUIRenderImage *,std::less<unsigned long>,std::allocator<std::pair<unsigned long const ,ioUIRenderImage *> >,0> > >::operator!=
_TEXT	ENDS
PUBLIC	??0?$_Vector_iterator@V?$_Vector_val@PAUCustomMarkData@ioGuildMarkMgr@@V?$allocator@PAUCustomMarkData@ioGuildMarkMgr@@@std@@@std@@@std@@QAE@XZ ; std::_Vector_iterator<std::_Vector_val<ioGuildMarkMgr::CustomMarkData *,std::allocator<ioGuildMarkMgr::CustomMarkData *> > >::_Vector_iterator<std::_Vector_val<ioGuildMarkMgr::CustomMarkData *,std::allocator<ioGuildMarkMgr::CustomMarkData *> > >
; Function compile flags: /Ogsp
; File c:\program files (x86)\microsoft visual studio 10.0\vc\include\vector
;	COMDAT ??0?$_Vector_iterator@V?$_Vector_val@PAUCustomMarkData@ioGuildMarkMgr@@V?$allocator@PAUCustomMarkData@ioGuildMarkMgr@@@std@@@std@@@std@@QAE@XZ
_TEXT	SEGMENT
??0?$_Vector_iterator@V?$_Vector_val@PAUCustomMarkData@ioGuildMarkMgr@@V?$allocator@PAUCustomMarkData@ioGuildMarkMgr@@@std@@@std@@@std@@QAE@XZ PROC ; std::_Vector_iterator<std::_Vector_val<ioGuildMarkMgr::CustomMarkData *,std::allocator<ioGuildMarkMgr::CustomMarkData *> > >::_Vector_iterator<std::_Vector_val<ioGuildMarkMgr::CustomMarkData *,std::allocator<ioGuildMarkMgr::CustomMarkData *> > >, COMDAT
; _this$ = ecx

; 298  : 	_Vector_iterator()

  00000	8b c1		 mov	 eax, ecx
  00002	83 20 00	 and	 DWORD PTR [eax], 0

; 299  : 		{	// construct with null vector pointer
; 300  : 		}

  00005	c3		 ret	 0
??0?$_Vector_iterator@V?$_Vector_val@PAUCustomMarkData@ioGuildMarkMgr@@V?$allocator@PAUCustomMarkData@ioGuildMarkMgr@@@std@@@std@@@std@@QAE@XZ ENDP ; std::_Vector_iterator<std::_Vector_val<ioGuildMarkMgr::CustomMarkData *,std::allocator<ioGuildMarkMgr::CustomMarkData *> > >::_Vector_iterator<std::_Vector_val<ioGuildMarkMgr::CustomMarkData *,std::allocator<ioGuildMarkMgr::CustomMarkData *> > >
_TEXT	ENDS
PUBLIC	??D?$_Vector_iterator@V?$_Vector_val@PAUCustomMarkData@ioGuildMarkMgr@@V?$allocator@PAUCustomMarkData@ioGuildMarkMgr@@@std@@@std@@@std@@QBEAAPAUCustomMarkData@ioGuildMarkMgr@@XZ ; std::_Vector_iterator<std::_Vector_val<ioGuildMarkMgr::CustomMarkData *,std::allocator<ioGuildMarkMgr::CustomMarkData *> > >::operator*
; Function compile flags: /Ogsp
;	COMDAT ??D?$_Vector_iterator@V?$_Vector_val@PAUCustomMarkData@ioGuildMarkMgr@@V?$allocator@PAUCustomMarkData@ioGuildMarkMgr@@@std@@@std@@@std@@QBEAAPAUCustomMarkData@ioGuildMarkMgr@@XZ
_TEXT	SEGMENT
??D?$_Vector_iterator@V?$_Vector_val@PAUCustomMarkData@ioGuildMarkMgr@@V?$allocator@PAUCustomMarkData@ioGuildMarkMgr@@@std@@@std@@@std@@QBEAAPAUCustomMarkData@ioGuildMarkMgr@@XZ PROC ; std::_Vector_iterator<std::_Vector_val<ioGuildMarkMgr::CustomMarkData *,std::allocator<ioGuildMarkMgr::CustomMarkData *> > >::operator*, COMDAT
; _this$ = ecx

; 322  : 		return ((reference)**(_Mybase *)this);

  00000	8b 01		 mov	 eax, DWORD PTR [ecx]

; 323  : 		}

  00002	c3		 ret	 0
??D?$_Vector_iterator@V?$_Vector_val@PAUCustomMarkData@ioGuildMarkMgr@@V?$allocator@PAUCustomMarkData@ioGuildMarkMgr@@@std@@@std@@@std@@QBEAAPAUCustomMarkData@ioGuildMarkMgr@@XZ ENDP ; std::_Vector_iterator<std::_Vector_val<ioGuildMarkMgr::CustomMarkData *,std::allocator<ioGuildMarkMgr::CustomMarkData *> > >::operator*
_TEXT	ENDS
PUBLIC	?_Lmost@?$_Tree@V?$_Tmap_traits@KPAVioUIRenderImage@@U?$less@K@std@@V?$allocator@U?$pair@$$CBKPAVioUIRenderImage@@@std@@@3@$0A@@std@@@std@@IBEAAPAU_Node@?$_Tree_nod@V?$_Tmap_traits@KPAVioUIRenderImage@@U?$less@K@std@@V?$allocator@U?$pair@$$CBKPAVioUIRenderImage@@@std@@@3@$0A@@std@@@2@XZ ; std::_Tree<std::_Tmap_traits<unsigned long,ioUIRenderImage *,std::less<unsigned long>,std::allocator<std::pair<unsigned long const ,ioUIRenderImage *> >,0> >::_Lmost
; Function compile flags: /Ogsp
; File c:\program files (x86)\microsoft visual studio 10.0\vc\include\xtree
;	COMDAT ?_Lmost@?$_Tree@V?$_Tmap_traits@KPAVioUIRenderImage@@U?$less@K@std@@V?$allocator@U?$pair@$$CBKPAVioUIRenderImage@@@std@@@3@$0A@@std@@@std@@IBEAAPAU_Node@?$_Tree_nod@V?$_Tmap_traits@KPAVioUIRenderImage@@U?$less@K@std@@V?$allocator@U?$pair@$$CBKPAVioUIRenderImage@@@std@@@3@$0A@@std@@@2@XZ
_TEXT	SEGMENT
?_Lmost@?$_Tree@V?$_Tmap_traits@KPAVioUIRenderImage@@U?$less@K@std@@V?$allocator@U?$pair@$$CBKPAVioUIRenderImage@@@std@@@3@$0A@@std@@@std@@IBEAAPAU_Node@?$_Tree_nod@V?$_Tmap_traits@KPAVioUIRenderImage@@U?$less@K@std@@V?$allocator@U?$pair@$$CBKPAVioUIRenderImage@@@std@@@3@$0A@@std@@@2@XZ PROC ; std::_Tree<std::_Tmap_traits<unsigned long,ioUIRenderImage *,std::less<unsigned long>,std::allocator<std::pair<unsigned long const ,ioUIRenderImage *> >,0> >::_Lmost, COMDAT
; _this$ = ecx

; 1759 : 		return (this->_Left(this->_Myhead));

  00000	8b 41 04	 mov	 eax, DWORD PTR [ecx+4]

; 1760 : 		}

  00003	c3		 ret	 0
?_Lmost@?$_Tree@V?$_Tmap_traits@KPAVioUIRenderImage@@U?$less@K@std@@V?$allocator@U?$pair@$$CBKPAVioUIRenderImage@@@std@@@3@$0A@@std@@@std@@IBEAAPAU_Node@?$_Tree_nod@V?$_Tmap_traits@KPAVioUIRenderImage@@U?$less@K@std@@V?$allocator@U?$pair@$$CBKPAVioUIRenderImage@@@std@@@3@$0A@@std@@@2@XZ ENDP ; std::_Tree<std::_Tmap_traits<unsigned long,ioUIRenderImage *,std::less<unsigned long>,std::allocator<std::pair<unsigned long const ,ioUIRenderImage *> >,0> >::_Lmost
_TEXT	ENDS
PUBLIC	?_Rmost@?$_Tree@V?$_Tmap_traits@KPAVioUIRenderImage@@U?$less@K@std@@V?$allocator@U?$pair@$$CBKPAVioUIRenderImage@@@std@@@3@$0A@@std@@@std@@IBEAAPAU_Node@?$_Tree_nod@V?$_Tmap_traits@KPAVioUIRenderImage@@U?$less@K@std@@V?$allocator@U?$pair@$$CBKPAVioUIRenderImage@@@std@@@3@$0A@@std@@@2@XZ ; std::_Tree<std::_Tmap_traits<unsigned long,ioUIRenderImage *,std::less<unsigned long>,std::allocator<std::pair<unsigned long const ,ioUIRenderImage *> >,0> >::_Rmost
; Function compile flags: /Ogsp
;	COMDAT ?_Rmost@?$_Tree@V?$_Tmap_traits@KPAVioUIRenderImage@@U?$less@K@std@@V?$allocator@U?$pair@$$CBKPAVioUIRenderImage@@@std@@@3@$0A@@std@@@std@@IBEAAPAU_Node@?$_Tree_nod@V?$_Tmap_traits@KPAVioUIRenderImage@@U?$less@K@std@@V?$allocator@U?$pair@$$CBKPAVioUIRenderImage@@@std@@@3@$0A@@std@@@2@XZ
_TEXT	SEGMENT
?_Rmost@?$_Tree@V?$_Tmap_traits@KPAVioUIRenderImage@@U?$less@K@std@@V?$allocator@U?$pair@$$CBKPAVioUIRenderImage@@@std@@@3@$0A@@std@@@std@@IBEAAPAU_Node@?$_Tree_nod@V?$_Tmap_traits@KPAVioUIRenderImage@@U?$less@K@std@@V?$allocator@U?$pair@$$CBKPAVioUIRenderImage@@@std@@@3@$0A@@std@@@2@XZ PROC ; std::_Tree<std::_Tmap_traits<unsigned long,ioUIRenderImage *,std::less<unsigned long>,std::allocator<std::pair<unsigned long const ,ioUIRenderImage *> >,0> >::_Rmost, COMDAT
; _this$ = ecx

; 1784 : 		return (this->_Right(this->_Myhead));

  00000	8b 41 04	 mov	 eax, DWORD PTR [ecx+4]
  00003	83 c0 08	 add	 eax, 8

; 1785 : 		}

  00006	c3		 ret	 0
?_Rmost@?$_Tree@V?$_Tmap_traits@KPAVioUIRenderImage@@U?$less@K@std@@V?$allocator@U?$pair@$$CBKPAVioUIRenderImage@@@std@@@3@$0A@@std@@@std@@IBEAAPAU_Node@?$_Tree_nod@V?$_Tmap_traits@KPAVioUIRenderImage@@U?$less@K@std@@V?$allocator@U?$pair@$$CBKPAVioUIRenderImage@@@std@@@3@$0A@@std@@@2@XZ ENDP ; std::_Tree<std::_Tmap_traits<unsigned long,ioUIRenderImage *,std::less<unsigned long>,std::allocator<std::pair<unsigned long const ,ioUIRenderImage *> >,0> >::_Rmost
_TEXT	ENDS
PUBLIC	?_Root@?$_Tree@V?$_Tmap_traits@KPAVioUIRenderImage@@U?$less@K@std@@V?$allocator@U?$pair@$$CBKPAVioUIRenderImage@@@std@@@3@$0A@@std@@@std@@IBEAAPAU_Node@?$_Tree_nod@V?$_Tmap_traits@KPAVioUIRenderImage@@U?$less@K@std@@V?$allocator@U?$pair@$$CBKPAVioUIRenderImage@@@std@@@3@$0A@@std@@@2@XZ ; std::_Tree<std::_Tmap_traits<unsigned long,ioUIRenderImage *,std::less<unsigned long>,std::allocator<std::pair<unsigned long const ,ioUIRenderImage *> >,0> >::_Root
; Function compile flags: /Ogsp
;	COMDAT ?_Root@?$_Tree@V?$_Tmap_traits@KPAVioUIRenderImage@@U?$less@K@std@@V?$allocator@U?$pair@$$CBKPAVioUIRenderImage@@@std@@@3@$0A@@std@@@std@@IBEAAPAU_Node@?$_Tree_nod@V?$_Tmap_traits@KPAVioUIRenderImage@@U?$less@K@std@@V?$allocator@U?$pair@$$CBKPAVioUIRenderImage@@@std@@@3@$0A@@std@@@2@XZ
_TEXT	SEGMENT
?_Root@?$_Tree@V?$_Tmap_traits@KPAVioUIRenderImage@@U?$less@K@std@@V?$allocator@U?$pair@$$CBKPAVioUIRenderImage@@@std@@@3@$0A@@std@@@std@@IBEAAPAU_Node@?$_Tree_nod@V?$_Tmap_traits@KPAVioUIRenderImage@@U?$less@K@std@@V?$allocator@U?$pair@$$CBKPAVioUIRenderImage@@@std@@@3@$0A@@std@@@2@XZ PROC ; std::_Tree<std::_Tmap_traits<unsigned long,ioUIRenderImage *,std::less<unsigned long>,std::allocator<std::pair<unsigned long const ,ioUIRenderImage *> >,0> >::_Root, COMDAT
; _this$ = ecx

; 1789 : 		return (this->_Parent(this->_Myhead));

  00000	8b 41 04	 mov	 eax, DWORD PTR [ecx+4]
  00003	83 c0 04	 add	 eax, 4

; 1790 : 		}

  00006	c3		 ret	 0
?_Root@?$_Tree@V?$_Tmap_traits@KPAVioUIRenderImage@@U?$less@K@std@@V?$allocator@U?$pair@$$CBKPAVioUIRenderImage@@@std@@@3@$0A@@std@@@std@@IBEAAPAU_Node@?$_Tree_nod@V?$_Tmap_traits@KPAVioUIRenderImage@@U?$less@K@std@@V?$allocator@U?$pair@$$CBKPAVioUIRenderImage@@@std@@@3@$0A@@std@@@2@XZ ENDP ; std::_Tree<std::_Tmap_traits<unsigned long,ioUIRenderImage *,std::less<unsigned long>,std::allocator<std::pair<unsigned long const ,ioUIRenderImage *> >,0> >::_Root
_TEXT	ENDS
PUBLIC	??1?$_Tree_val@V?$_Tmap_traits@KPAVioUIRenderImage@@U?$less@K@std@@V?$allocator@U?$pair@$$CBKPAVioUIRenderImage@@@std@@@3@$0A@@std@@@std@@QAE@XZ ; std::_Tree_val<std::_Tmap_traits<unsigned long,ioUIRenderImage *,std::less<unsigned long>,std::allocator<std::pair<unsigned long const ,ioUIRenderImage *> >,0> >::~_Tree_val<std::_Tmap_traits<unsigned long,ioUIRenderImage *,std::less<unsigned long>,std::allocator<std::pair<unsigned long const ,ioUIRenderImage *> >,0> >
; Function compile flags: /Ogsp
;	COMDAT ??1?$_Tree_val@V?$_Tmap_traits@KPAVioUIRenderImage@@U?$less@K@std@@V?$allocator@U?$pair@$$CBKPAVioUIRenderImage@@@std@@@3@$0A@@std@@@std@@QAE@XZ
_TEXT	SEGMENT
??1?$_Tree_val@V?$_Tmap_traits@KPAVioUIRenderImage@@U?$less@K@std@@V?$allocator@U?$pair@$$CBKPAVioUIRenderImage@@@std@@@3@$0A@@std@@@std@@QAE@XZ PROC ; std::_Tree_val<std::_Tmap_traits<unsigned long,ioUIRenderImage *,std::less<unsigned long>,std::allocator<std::pair<unsigned long const ,ioUIRenderImage *> >,0> >::~_Tree_val<std::_Tmap_traits<unsigned long,ioUIRenderImage *,std::less<unsigned long>,std::allocator<std::pair<unsigned long const ,ioUIRenderImage *> >,0> >, COMDAT
; _this$ = ecx

; 555  : 		this->_Alnod.deallocate(this->_Myhead, 1);

  00000	ff 71 04	 push	 DWORD PTR [ecx+4]
  00003	e8 00 00 00 00	 call	 ??3@YAXPAX@Z		; operator delete
  00008	59		 pop	 ecx

; 556  : 		}

  00009	c3		 ret	 0
??1?$_Tree_val@V?$_Tmap_traits@KPAVioUIRenderImage@@U?$less@K@std@@V?$allocator@U?$pair@$$CBKPAVioUIRenderImage@@@std@@@3@$0A@@std@@@std@@QAE@XZ ENDP ; std::_Tree_val<std::_Tmap_traits<unsigned long,ioUIRenderImage *,std::less<unsigned long>,std::allocator<std::pair<unsigned long const ,ioUIRenderImage *> >,0> >::~_Tree_val<std::_Tmap_traits<unsigned long,ioUIRenderImage *,std::less<unsigned long>,std::allocator<std::pair<unsigned long const ,ioUIRenderImage *> >,0> >
_TEXT	ENDS
PUBLIC	?_Key@?$_Tree_val@V?$_Tmap_traits@KPAVioUIRenderImage@@U?$less@K@std@@V?$allocator@U?$pair@$$CBKPAVioUIRenderImage@@@std@@@3@$0A@@std@@@std@@SAAAKPAU_Node@?$_Tree_nod@V?$_Tmap_traits@KPAVioUIRenderImage@@U?$less@K@std@@V?$allocator@U?$pair@$$CBKPAVioUIRenderImage@@@std@@@3@$0A@@std@@@2@@Z ; std::_Tree_val<std::_Tmap_traits<unsigned long,ioUIRenderImage *,std::less<unsigned long>,std::allocator<std::pair<unsigned long const ,ioUIRenderImage *> >,0> >::_Key
; Function compile flags: /Ogsp
;	COMDAT ?_Key@?$_Tree_val@V?$_Tmap_traits@KPAVioUIRenderImage@@U?$less@K@std@@V?$allocator@U?$pair@$$CBKPAVioUIRenderImage@@@std@@@3@$0A@@std@@@std@@SAAAKPAU_Node@?$_Tree_nod@V?$_Tmap_traits@KPAVioUIRenderImage@@U?$less@K@std@@V?$allocator@U?$pair@$$CBKPAVioUIRenderImage@@@std@@@3@$0A@@std@@@2@@Z
_TEXT	SEGMENT
__Pnode$ = 8						; size = 4
?_Key@?$_Tree_val@V?$_Tmap_traits@KPAVioUIRenderImage@@U?$less@K@std@@V?$allocator@U?$pair@$$CBKPAVioUIRenderImage@@@std@@@3@$0A@@std@@@std@@SAAAKPAU_Node@?$_Tree_nod@V?$_Tmap_traits@KPAVioUIRenderImage@@U?$less@K@std@@V?$allocator@U?$pair@$$CBKPAVioUIRenderImage@@@std@@@3@$0A@@std@@@2@@Z PROC ; std::_Tree_val<std::_Tmap_traits<unsigned long,ioUIRenderImage *,std::less<unsigned long>,std::allocator<std::pair<unsigned long const ,ioUIRenderImage *> >,0> >::_Key, COMDAT

; 616  : 		{	// return reference to key in node

  00000	55		 push	 ebp
  00001	8b ec		 mov	 ebp, esp

; 617  : 		return ((key_type&)_Traits::_Kfn(_Myval(_Pnode)));

  00003	8b 45 08	 mov	 eax, DWORD PTR __Pnode$[ebp]
  00006	83 c0 0c	 add	 eax, 12			; 0000000cH

; 618  : 		}

  00009	5d		 pop	 ebp
  0000a	c3		 ret	 0
?_Key@?$_Tree_val@V?$_Tmap_traits@KPAVioUIRenderImage@@U?$less@K@std@@V?$allocator@U?$pair@$$CBKPAVioUIRenderImage@@@std@@@3@$0A@@std@@@std@@SAAAKPAU_Node@?$_Tree_nod@V?$_Tmap_traits@KPAVioUIRenderImage@@U?$less@K@std@@V?$allocator@U?$pair@$$CBKPAVioUIRenderImage@@@std@@@3@$0A@@std@@@2@@Z ENDP ; std::_Tree_val<std::_Tmap_traits<unsigned long,ioUIRenderImage *,std::less<unsigned long>,std::allocator<std::pair<unsigned long const ,ioUIRenderImage *> >,0> >::_Key
_TEXT	ENDS
PUBLIC	??0?$_Vector_val@PAUCustomMarkData@ioGuildMarkMgr@@V?$allocator@PAUCustomMarkData@ioGuildMarkMgr@@@std@@@std@@QAE@V?$allocator@PAUCustomMarkData@ioGuildMarkMgr@@@1@@Z ; std::_Vector_val<ioGuildMarkMgr::CustomMarkData *,std::allocator<ioGuildMarkMgr::CustomMarkData *> >::_Vector_val<ioGuildMarkMgr::CustomMarkData *,std::allocator<ioGuildMarkMgr::CustomMarkData *> >
; Function compile flags: /Ogsp
; File c:\program files (x86)\microsoft visual studio 10.0\vc\include\vector
;	COMDAT ??0?$_Vector_val@PAUCustomMarkData@ioGuildMarkMgr@@V?$allocator@PAUCustomMarkData@ioGuildMarkMgr@@@std@@@std@@QAE@V?$allocator@PAUCustomMarkData@ioGuildMarkMgr@@@1@@Z
_TEXT	SEGMENT
__Al$ = 8						; size = 1
??0?$_Vector_val@PAUCustomMarkData@ioGuildMarkMgr@@V?$allocator@PAUCustomMarkData@ioGuildMarkMgr@@@std@@@std@@QAE@V?$allocator@PAUCustomMarkData@ioGuildMarkMgr@@@1@@Z PROC ; std::_Vector_val<ioGuildMarkMgr::CustomMarkData *,std::allocator<ioGuildMarkMgr::CustomMarkData *> >::_Vector_val<ioGuildMarkMgr::CustomMarkData *,std::allocator<ioGuildMarkMgr::CustomMarkData *> >, COMDAT
; _this$ = ecx

; 426  : 		{	// construct allocator from _Al

  00000	8b c1		 mov	 eax, ecx

; 427  : 		_Myfirst = 0;

  00002	33 c9		 xor	 ecx, ecx
  00004	89 08		 mov	 DWORD PTR [eax], ecx

; 428  : 		_Mylast = 0;

  00006	89 48 04	 mov	 DWORD PTR [eax+4], ecx

; 429  : 		_Myend = 0;

  00009	89 48 08	 mov	 DWORD PTR [eax+8], ecx

; 430  : 		}

  0000c	c2 04 00	 ret	 4
??0?$_Vector_val@PAUCustomMarkData@ioGuildMarkMgr@@V?$allocator@PAUCustomMarkData@ioGuildMarkMgr@@@std@@@std@@QAE@V?$allocator@PAUCustomMarkData@ioGuildMarkMgr@@@1@@Z ENDP ; std::_Vector_val<ioGuildMarkMgr::CustomMarkData *,std::allocator<ioGuildMarkMgr::CustomMarkData *> >::_Vector_val<ioGuildMarkMgr::CustomMarkData *,std::allocator<ioGuildMarkMgr::CustomMarkData *> >
_TEXT	ENDS
PUBLIC	??1?$_List_val@KV?$allocator@K@std@@@std@@QAE@XZ ; std::_List_val<unsigned long,std::allocator<unsigned long> >::~_List_val<unsigned long,std::allocator<unsigned long> >
; Function compile flags: /Ogsp
; File c:\program files (x86)\microsoft visual studio 10.0\vc\include\list
;	COMDAT ??1?$_List_val@KV?$allocator@K@std@@@std@@QAE@XZ
_TEXT	SEGMENT
??1?$_List_val@KV?$allocator@K@std@@@std@@QAE@XZ PROC	; std::_List_val<unsigned long,std::allocator<unsigned long> >::~_List_val<unsigned long,std::allocator<unsigned long> >, COMDAT
; _this$ = ecx

; 502  : 		this->_Alnod.deallocate(this->_Myhead, 1);

  00000	ff 31		 push	 DWORD PTR [ecx]
  00002	e8 00 00 00 00	 call	 ??3@YAXPAX@Z		; operator delete
  00007	59		 pop	 ecx

; 503  : 		}

  00008	c3		 ret	 0
??1?$_List_val@KV?$allocator@K@std@@@std@@QAE@XZ ENDP	; std::_List_val<unsigned long,std::allocator<unsigned long> >::~_List_val<unsigned long,std::allocator<unsigned long> >
_TEXT	ENDS
PUBLIC	??D?$_Tree_iterator@V?$_Tree_val@V?$_Tmap_traits@KPAVioUIRenderImage@@U?$less@K@std@@V?$allocator@U?$pair@$$CBKPAVioUIRenderImage@@@std@@@3@$0A@@std@@@std@@@std@@QBEAAU?$pair@$$CBKPAVioUIRenderImage@@@1@XZ ; std::_Tree_iterator<std::_Tree_val<std::_Tmap_traits<unsigned long,ioUIRenderImage *,std::less<unsigned long>,std::allocator<std::pair<unsigned long const ,ioUIRenderImage *> >,0> > >::operator*
; Function compile flags: /Ogsp
; File c:\program files (x86)\microsoft visual studio 10.0\vc\include\xtree
;	COMDAT ??D?$_Tree_iterator@V?$_Tree_val@V?$_Tmap_traits@KPAVioUIRenderImage@@U?$less@K@std@@V?$allocator@U?$pair@$$CBKPAVioUIRenderImage@@@std@@@3@$0A@@std@@@std@@@std@@QBEAAU?$pair@$$CBKPAVioUIRenderImage@@@1@XZ
_TEXT	SEGMENT
??D?$_Tree_iterator@V?$_Tree_val@V?$_Tmap_traits@KPAVioUIRenderImage@@U?$less@K@std@@V?$allocator@U?$pair@$$CBKPAVioUIRenderImage@@@std@@@3@$0A@@std@@@std@@@std@@QBEAAU?$pair@$$CBKPAVioUIRenderImage@@@1@XZ PROC ; std::_Tree_iterator<std::_Tree_val<std::_Tmap_traits<unsigned long,ioUIRenderImage *,std::less<unsigned long>,std::allocator<std::pair<unsigned long const ,ioUIRenderImage *> >,0> > >::operator*, COMDAT
; _this$ = ecx

; 396  : 		return ((reference)**(_Mybase *)this);

  00000	8b 01		 mov	 eax, DWORD PTR [ecx]
  00002	83 c0 0c	 add	 eax, 12			; 0000000cH

; 397  : 		}

  00005	c3		 ret	 0
??D?$_Tree_iterator@V?$_Tree_val@V?$_Tmap_traits@KPAVioUIRenderImage@@U?$less@K@std@@V?$allocator@U?$pair@$$CBKPAVioUIRenderImage@@@std@@@3@$0A@@std@@@std@@@std@@QBEAAU?$pair@$$CBKPAVioUIRenderImage@@@1@XZ ENDP ; std::_Tree_iterator<std::_Tree_val<std::_Tmap_traits<unsigned long,ioUIRenderImage *,std::less<unsigned long>,std::allocator<std::pair<unsigned long const ,ioUIRenderImage *> >,0> > >::operator*
_TEXT	ENDS
PUBLIC	??0?$_Tree_const_iterator@V?$_Tree_val@V?$_Tmap_traits@KPAVioUIRenderImage@@U?$less@K@std@@V?$allocator@U?$pair@$$CBKPAVioUIRenderImage@@@std@@@3@$0A@@std@@@std@@@std@@QAE@XZ ; std::_Tree_const_iterator<std::_Tree_val<std::_Tmap_traits<unsigned long,ioUIRenderImage *,std::less<unsigned long>,std::allocator<std::pair<unsigned long const ,ioUIRenderImage *> >,0> > >::_Tree_const_iterator<std::_Tree_val<std::_Tmap_traits<unsigned long,ioUIRenderImage *,std::less<unsigned long>,std::allocator<std::pair<unsigned long const ,ioUIRenderImage *> >,0> > >
; Function compile flags: /Ogsp
;	COMDAT ??0?$_Tree_const_iterator@V?$_Tree_val@V?$_Tmap_traits@KPAVioUIRenderImage@@U?$less@K@std@@V?$allocator@U?$pair@$$CBKPAVioUIRenderImage@@@std@@@3@$0A@@std@@@std@@@std@@QAE@XZ
_TEXT	SEGMENT
??0?$_Tree_const_iterator@V?$_Tree_val@V?$_Tmap_traits@KPAVioUIRenderImage@@U?$less@K@std@@V?$allocator@U?$pair@$$CBKPAVioUIRenderImage@@@std@@@3@$0A@@std@@@std@@@std@@QAE@XZ PROC ; std::_Tree_const_iterator<std::_Tree_val<std::_Tmap_traits<unsigned long,ioUIRenderImage *,std::less<unsigned long>,std::allocator<std::pair<unsigned long const ,ioUIRenderImage *> >,0> > >::_Tree_const_iterator<std::_Tree_val<std::_Tmap_traits<unsigned long,ioUIRenderImage *,std::less<unsigned long>,std::allocator<std::pair<unsigned long const ,ioUIRenderImage *> >,0> > >, COMDAT
; _this$ = ecx

; 208  : 		{	// construct with null node pointer

  00000	8b c1		 mov	 eax, ecx
  00002	83 20 00	 and	 DWORD PTR [eax], 0

; 209  : 		}

  00005	c3		 ret	 0
??0?$_Tree_const_iterator@V?$_Tree_val@V?$_Tmap_traits@KPAVioUIRenderImage@@U?$less@K@std@@V?$allocator@U?$pair@$$CBKPAVioUIRenderImage@@@std@@@3@$0A@@std@@@std@@@std@@QAE@XZ ENDP ; std::_Tree_const_iterator<std::_Tree_val<std::_Tmap_traits<unsigned long,ioUIRenderImage *,std::less<unsigned long>,std::allocator<std::pair<unsigned long const ,ioUIRenderImage *> >,0> > >::_Tree_const_iterator<std::_Tree_val<std::_Tmap_traits<unsigned long,ioUIRenderImage *,std::less<unsigned long>,std::allocator<std::pair<unsigned long const ,ioUIRenderImage *> >,0> > >
_TEXT	ENDS
PUBLIC	??0?$_Vector_iterator@V?$_Vector_val@PAUCustomMarkData@ioGuildMarkMgr@@V?$allocator@PAUCustomMarkData@ioGuildMarkMgr@@@std@@@std@@@std@@QAE@PAPAUCustomMarkData@ioGuildMarkMgr@@PBU_Container_base0@1@@Z ; std::_Vector_iterator<std::_Vector_val<ioGuildMarkMgr::CustomMarkData *,std::allocator<ioGuildMarkMgr::CustomMarkData *> > >::_Vector_iterator<std::_Vector_val<ioGuildMarkMgr::CustomMarkData *,std::allocator<ioGuildMarkMgr::CustomMarkData *> > >
; Function compile flags: /Ogsp
; File c:\program files (x86)\microsoft visual studio 10.0\vc\include\vector
;	COMDAT ??0?$_Vector_iterator@V?$_Vector_val@PAUCustomMarkData@ioGuildMarkMgr@@V?$allocator@PAUCustomMarkData@ioGuildMarkMgr@@@std@@@std@@@std@@QAE@PAPAUCustomMarkData@ioGuildMarkMgr@@PBU_Container_base0@1@@Z
_TEXT	SEGMENT
__Parg$ = 8						; size = 4
__Pvector$ = 12						; size = 4
??0?$_Vector_iterator@V?$_Vector_val@PAUCustomMarkData@ioGuildMarkMgr@@V?$allocator@PAUCustomMarkData@ioGuildMarkMgr@@@std@@@std@@@std@@QAE@PAPAUCustomMarkData@ioGuildMarkMgr@@PBU_Container_base0@1@@Z PROC ; std::_Vector_iterator<std::_Vector_val<ioGuildMarkMgr::CustomMarkData *,std::allocator<ioGuildMarkMgr::CustomMarkData *> > >::_Vector_iterator<std::_Vector_val<ioGuildMarkMgr::CustomMarkData *,std::allocator<ioGuildMarkMgr::CustomMarkData *> > >, COMDAT
; _this$ = ecx

; 304  : 		{	// construct with pointer _Parg

  00000	55		 push	 ebp
  00001	8b ec		 mov	 ebp, esp
  00003	8b c1		 mov	 eax, ecx
  00005	8b 4d 08	 mov	 ecx, DWORD PTR __Parg$[ebp]
  00008	89 08		 mov	 DWORD PTR [eax], ecx

; 305  : 		}

  0000a	5d		 pop	 ebp
  0000b	c2 08 00	 ret	 8
??0?$_Vector_iterator@V?$_Vector_val@PAUCustomMarkData@ioGuildMarkMgr@@V?$allocator@PAUCustomMarkData@ioGuildMarkMgr@@@std@@@std@@@std@@QAE@PAPAUCustomMarkData@ioGuildMarkMgr@@PBU_Container_base0@1@@Z ENDP ; std::_Vector_iterator<std::_Vector_val<ioGuildMarkMgr::CustomMarkData *,std::allocator<ioGuildMarkMgr::CustomMarkData *> > >::_Vector_iterator<std::_Vector_val<ioGuildMarkMgr::CustomMarkData *,std::allocator<ioGuildMarkMgr::CustomMarkData *> > >
_TEXT	ENDS
PUBLIC	??E?$_Vector_iterator@V?$_Vector_val@PAUCustomMarkData@ioGuildMarkMgr@@V?$allocator@PAUCustomMarkData@ioGuildMarkMgr@@@std@@@std@@@std@@QAEAAV01@XZ ; std::_Vector_iterator<std::_Vector_val<ioGuildMarkMgr::CustomMarkData *,std::allocator<ioGuildMarkMgr::CustomMarkData *> > >::operator++
; Function compile flags: /Ogsp
;	COMDAT ??E?$_Vector_iterator@V?$_Vector_val@PAUCustomMarkData@ioGuildMarkMgr@@V?$allocator@PAUCustomMarkData@ioGuildMarkMgr@@@std@@@std@@@std@@QAEAAV01@XZ
_TEXT	SEGMENT
??E?$_Vector_iterator@V?$_Vector_val@PAUCustomMarkData@ioGuildMarkMgr@@V?$allocator@PAUCustomMarkData@ioGuildMarkMgr@@@std@@@std@@@std@@QAEAAV01@XZ PROC ; std::_Vector_iterator<std::_Vector_val<ioGuildMarkMgr::CustomMarkData *,std::allocator<ioGuildMarkMgr::CustomMarkData *> > >::operator++, COMDAT
; _this$ = ecx

; 331  : 		{	// preincrement

  00000	8b c1		 mov	 eax, ecx

; 332  : 		++*(_Mybase *)this;

  00002	83 00 04	 add	 DWORD PTR [eax], 4

; 333  : 		return (*this);
; 334  : 		}

  00005	c3		 ret	 0
??E?$_Vector_iterator@V?$_Vector_val@PAUCustomMarkData@ioGuildMarkMgr@@V?$allocator@PAUCustomMarkData@ioGuildMarkMgr@@@std@@@std@@@std@@QAEAAV01@XZ ENDP ; std::_Vector_iterator<std::_Vector_val<ioGuildMarkMgr::CustomMarkData *,std::allocator<ioGuildMarkMgr::CustomMarkData *> > >::operator++
_TEXT	ENDS
PUBLIC	??8?$_Vector_const_iterator@V?$_Vector_val@PAUCustomMarkData@ioGuildMarkMgr@@V?$allocator@PAUCustomMarkData@ioGuildMarkMgr@@@std@@@std@@@std@@QBE_NABV01@@Z ; std::_Vector_const_iterator<std::_Vector_val<ioGuildMarkMgr::CustomMarkData *,std::allocator<ioGuildMarkMgr::CustomMarkData *> > >::operator==
; Function compile flags: /Ogsp
;	COMDAT ??8?$_Vector_const_iterator@V?$_Vector_val@PAUCustomMarkData@ioGuildMarkMgr@@V?$allocator@PAUCustomMarkData@ioGuildMarkMgr@@@std@@@std@@@std@@QBE_NABV01@@Z
_TEXT	SEGMENT
__Right$ = 8						; size = 4
??8?$_Vector_const_iterator@V?$_Vector_val@PAUCustomMarkData@ioGuildMarkMgr@@V?$allocator@PAUCustomMarkData@ioGuildMarkMgr@@@std@@@std@@@std@@QBE_NABV01@@Z PROC ; std::_Vector_const_iterator<std::_Vector_val<ioGuildMarkMgr::CustomMarkData *,std::allocator<ioGuildMarkMgr::CustomMarkData *> > >::operator==, COMDAT
; _this$ = ecx

; 201  : 		{	// test for iterator equality

  00000	55		 push	 ebp
  00001	8b ec		 mov	 ebp, esp

; 202  : 		_Compat(_Right);
; 203  : 		return (this->_Ptr == _Right._Ptr);

  00003	8b 01		 mov	 eax, DWORD PTR [ecx]
  00005	8b 4d 08	 mov	 ecx, DWORD PTR __Right$[ebp]
  00008	2b 01		 sub	 eax, DWORD PTR [ecx]
  0000a	f7 d8		 neg	 eax
  0000c	1b c0		 sbb	 eax, eax
  0000e	40		 inc	 eax

; 204  : 		}

  0000f	5d		 pop	 ebp
  00010	c2 04 00	 ret	 4
??8?$_Vector_const_iterator@V?$_Vector_val@PAUCustomMarkData@ioGuildMarkMgr@@V?$allocator@PAUCustomMarkData@ioGuildMarkMgr@@@std@@@std@@@std@@QBE_NABV01@@Z ENDP ; std::_Vector_const_iterator<std::_Vector_val<ioGuildMarkMgr::CustomMarkData *,std::allocator<ioGuildMarkMgr::CustomMarkData *> > >::operator==
_TEXT	ENDS
PUBLIC	?_Lbound@?$_Tree@V?$_Tmap_traits@KPAVioUIRenderImage@@U?$less@K@std@@V?$allocator@U?$pair@$$CBKPAVioUIRenderImage@@@std@@@3@$0A@@std@@@std@@IAEPAU_Node@?$_Tree_nod@V?$_Tmap_traits@KPAVioUIRenderImage@@U?$less@K@std@@V?$allocator@U?$pair@$$CBKPAVioUIRenderImage@@@std@@@3@$0A@@std@@@2@ABK@Z ; std::_Tree<std::_Tmap_traits<unsigned long,ioUIRenderImage *,std::less<unsigned long>,std::allocator<std::pair<unsigned long const ,ioUIRenderImage *> >,0> >::_Lbound
; Function compile flags: /Ogsp
; File c:\program files (x86)\microsoft visual studio 10.0\vc\include\xtree
;	COMDAT ?_Lbound@?$_Tree@V?$_Tmap_traits@KPAVioUIRenderImage@@U?$less@K@std@@V?$allocator@U?$pair@$$CBKPAVioUIRenderImage@@@std@@@3@$0A@@std@@@std@@IAEPAU_Node@?$_Tree_nod@V?$_Tmap_traits@KPAVioUIRenderImage@@U?$less@K@std@@V?$allocator@U?$pair@$$CBKPAVioUIRenderImage@@@std@@@3@$0A@@std@@@2@ABK@Z
_TEXT	SEGMENT
__Keyval$ = 8						; size = 4
?_Lbound@?$_Tree@V?$_Tmap_traits@KPAVioUIRenderImage@@U?$less@K@std@@V?$allocator@U?$pair@$$CBKPAVioUIRenderImage@@@std@@@3@$0A@@std@@@std@@IAEPAU_Node@?$_Tree_nod@V?$_Tmap_traits@KPAVioUIRenderImage@@U?$less@K@std@@V?$allocator@U?$pair@$$CBKPAVioUIRenderImage@@@std@@@3@$0A@@std@@@2@ABK@Z PROC ; std::_Tree<std::_Tmap_traits<unsigned long,ioUIRenderImage *,std::less<unsigned long>,std::allocator<std::pair<unsigned long const ,ioUIRenderImage *> >,0> >::_Lbound, COMDAT
; _this$ = ecx

; 1741 : 		{	// find leftmost node not less than _Keyval

  00000	55		 push	 ebp
  00001	8b ec		 mov	 ebp, esp

; 1742 : 		_Nodeptr _Pnode = _Root();

  00003	8b 41 04	 mov	 eax, DWORD PTR [ecx+4]
  00006	8b 48 04	 mov	 ecx, DWORD PTR [eax+4]

; 1743 : 		_Nodeptr _Wherenode = this->_Myhead;	// end() if search fails
; 1744 : 
; 1745 : 		while (!this->_Isnil(_Pnode))

  00009	80 79 15 00	 cmp	 BYTE PTR [ecx+21], 0
  0000d	75 19		 jne	 SHORT $LN3@Lbound
  0000f	8b 55 08	 mov	 edx, DWORD PTR __Keyval$[ebp]
  00012	8b 12		 mov	 edx, DWORD PTR [edx]
$LL4@Lbound:

; 1746 : 			if (_DEBUG_LT_PRED(this->comp, this->_Key(_Pnode), _Keyval))

  00014	39 51 0c	 cmp	 DWORD PTR [ecx+12], edx
  00017	73 05		 jae	 SHORT $LN2@Lbound

; 1747 : 				_Pnode = this->_Right(_Pnode);	// descend right subtree

  00019	8b 49 08	 mov	 ecx, DWORD PTR [ecx+8]

; 1748 : 			else

  0001c	eb 04		 jmp	 SHORT $LN1@Lbound
$LN2@Lbound:

; 1749 : 				{	// _Pnode not less than _Keyval, remember it
; 1750 : 				_Wherenode = _Pnode;

  0001e	8b c1		 mov	 eax, ecx

; 1751 : 				_Pnode = this->_Left(_Pnode);	// descend left subtree

  00020	8b 09		 mov	 ecx, DWORD PTR [ecx]
$LN1@Lbound:

; 1743 : 		_Nodeptr _Wherenode = this->_Myhead;	// end() if search fails
; 1744 : 
; 1745 : 		while (!this->_Isnil(_Pnode))

  00022	80 79 15 00	 cmp	 BYTE PTR [ecx+21], 0
  00026	74 ec		 je	 SHORT $LL4@Lbound
$LN3@Lbound:

; 1752 : 				}
; 1753 : 
; 1754 : 		return (_Wherenode);	// return best remembered candidate
; 1755 : 		}

  00028	5d		 pop	 ebp
  00029	c2 04 00	 ret	 4
?_Lbound@?$_Tree@V?$_Tmap_traits@KPAVioUIRenderImage@@U?$less@K@std@@V?$allocator@U?$pair@$$CBKPAVioUIRenderImage@@@std@@@3@$0A@@std@@@std@@IAEPAU_Node@?$_Tree_nod@V?$_Tmap_traits@KPAVioUIRenderImage@@U?$less@K@std@@V?$allocator@U?$pair@$$CBKPAVioUIRenderImage@@@std@@@3@$0A@@std@@@2@ABK@Z ENDP ; std::_Tree<std::_Tmap_traits<unsigned long,ioUIRenderImage *,std::less<unsigned long>,std::allocator<std::pair<unsigned long const ,ioUIRenderImage *> >,0> >::_Lbound
_TEXT	ENDS
PUBLIC	?max_size@?$vector@PAUCustomMarkData@ioGuildMarkMgr@@V?$allocator@PAUCustomMarkData@ioGuildMarkMgr@@@std@@@std@@QBEIXZ ; std::vector<ioGuildMarkMgr::CustomMarkData *,std::allocator<ioGuildMarkMgr::CustomMarkData *> >::max_size
; Function compile flags: /Ogsp
; File c:\program files (x86)\microsoft visual studio 10.0\vc\include\vector
;	COMDAT ?max_size@?$vector@PAUCustomMarkData@ioGuildMarkMgr@@V?$allocator@PAUCustomMarkData@ioGuildMarkMgr@@@std@@@std@@QBEIXZ
_TEXT	SEGMENT
?max_size@?$vector@PAUCustomMarkData@ioGuildMarkMgr@@V?$allocator@PAUCustomMarkData@ioGuildMarkMgr@@@std@@@std@@QBEIXZ PROC ; std::vector<ioGuildMarkMgr::CustomMarkData *,std::allocator<ioGuildMarkMgr::CustomMarkData *> >::max_size, COMDAT
; _this$ = ecx

; 884  : 		return (this->_Alval.max_size());

  00000	b8 ff ff ff 3f	 mov	 eax, 1073741823		; 3fffffffH

; 885  : 		}

  00005	c3		 ret	 0
?max_size@?$vector@PAUCustomMarkData@ioGuildMarkMgr@@V?$allocator@PAUCustomMarkData@ioGuildMarkMgr@@@std@@@std@@QBEIXZ ENDP ; std::vector<ioGuildMarkMgr::CustomMarkData *,std::allocator<ioGuildMarkMgr::CustomMarkData *> >::max_size
_TEXT	ENDS
PUBLIC	?_Grow_to@?$vector@PAUCustomMarkData@ioGuildMarkMgr@@V?$allocator@PAUCustomMarkData@ioGuildMarkMgr@@@std@@@std@@IBEII@Z ; std::vector<ioGuildMarkMgr::CustomMarkData *,std::allocator<ioGuildMarkMgr::CustomMarkData *> >::_Grow_to
; Function compile flags: /Ogsp
;	COMDAT ?_Grow_to@?$vector@PAUCustomMarkData@ioGuildMarkMgr@@V?$allocator@PAUCustomMarkData@ioGuildMarkMgr@@@std@@@std@@IBEII@Z
_TEXT	SEGMENT
__Count$ = 8						; size = 4
?_Grow_to@?$vector@PAUCustomMarkData@ioGuildMarkMgr@@V?$allocator@PAUCustomMarkData@ioGuildMarkMgr@@@std@@@std@@IBEII@Z PROC ; std::vector<ioGuildMarkMgr::CustomMarkData *,std::allocator<ioGuildMarkMgr::CustomMarkData *> >::_Grow_to, COMDAT
; _this$ = ecx

; 1274 : 		{	// grow by 50% or at least to _Count

  00000	55		 push	 ebp
  00001	8b ec		 mov	 ebp, esp

; 1275 : 		size_type _Capacity = capacity();

  00003	8b 41 08	 mov	 eax, DWORD PTR [ecx+8]
  00006	2b 01		 sub	 eax, DWORD PTR [ecx]

; 1276 : 
; 1277 : 		_Capacity = max_size() - _Capacity / 2 < _Capacity
; 1278 : 			? 0 : _Capacity + _Capacity / 2;	// try to grow by 50%

  00008	ba ff ff ff 3f	 mov	 edx, 1073741823		; 3fffffffH
  0000d	c1 f8 02	 sar	 eax, 2
  00010	8b c8		 mov	 ecx, eax
  00012	d1 e9		 shr	 ecx, 1
  00014	2b d1		 sub	 edx, ecx
  00016	3b d0		 cmp	 edx, eax
  00018	73 04		 jae	 SHORT $LN4@Grow_to
  0001a	33 c0		 xor	 eax, eax
  0001c	eb 02		 jmp	 SHORT $LN5@Grow_to
$LN4@Grow_to:
  0001e	03 c1		 add	 eax, ecx
$LN5@Grow_to:

; 1279 : 		if (_Capacity < _Count)

  00020	3b 45 08	 cmp	 eax, DWORD PTR __Count$[ebp]

; 1280 : 			_Capacity = _Count;

  00023	0f 42 45 08	 cmovb	 eax, DWORD PTR __Count$[ebp]

; 1281 : 		return (_Capacity);
; 1282 : 		}

  00027	5d		 pop	 ebp
  00028	c2 04 00	 ret	 4
?_Grow_to@?$vector@PAUCustomMarkData@ioGuildMarkMgr@@V?$allocator@PAUCustomMarkData@ioGuildMarkMgr@@@std@@@std@@IBEII@Z ENDP ; std::vector<ioGuildMarkMgr::CustomMarkData *,std::allocator<ioGuildMarkMgr::CustomMarkData *> >::_Grow_to
_TEXT	ENDS
PUBLIC	??0?$_List_nod@KV?$allocator@K@std@@@std@@QAE@V?$allocator@K@1@@Z ; std::_List_nod<unsigned long,std::allocator<unsigned long> >::_List_nod<unsigned long,std::allocator<unsigned long> >
; Function compile flags: /Ogsp
; File c:\program files (x86)\microsoft visual studio 10.0\vc\include\list
;	COMDAT ??0?$_List_nod@KV?$allocator@K@std@@@std@@QAE@V?$allocator@K@1@@Z
_TEXT	SEGMENT
__Al$ = 8						; size = 1
??0?$_List_nod@KV?$allocator@K@std@@@std@@QAE@V?$allocator@K@1@@Z PROC ; std::_List_nod<unsigned long,std::allocator<unsigned long> >::_List_nod<unsigned long,std::allocator<unsigned long> >, COMDAT
; _this$ = ecx

; 438  : 		{	// construct allocators from _Al

  00000	8b c1		 mov	 eax, ecx

; 439  : 		}

  00002	c2 04 00	 ret	 4
??0?$_List_nod@KV?$allocator@K@std@@@std@@QAE@V?$allocator@K@1@@Z ENDP ; std::_List_nod<unsigned long,std::allocator<unsigned long> >::_List_nod<unsigned long,std::allocator<unsigned long> >
_TEXT	ENDS
PUBLIC	?allocate@?$allocator@U_Node@?$_List_nod@KV?$allocator@K@std@@@std@@@std@@QAEPAU_Node@?$_List_nod@KV?$allocator@K@std@@@2@I@Z ; std::allocator<std::_List_nod<unsigned long,std::allocator<unsigned long> >::_Node>::allocate
; Function compile flags: /Ogsp
; File c:\program files (x86)\microsoft visual studio 10.0\vc\include\xmemory
;	COMDAT ?allocate@?$allocator@U_Node@?$_List_nod@KV?$allocator@K@std@@@std@@@std@@QAEPAU_Node@?$_List_nod@KV?$allocator@K@std@@@2@I@Z
_TEXT	SEGMENT
__Count$ = 8						; size = 4
?allocate@?$allocator@U_Node@?$_List_nod@KV?$allocator@K@std@@@std@@@std@@QAEPAU_Node@?$_List_nod@KV?$allocator@K@std@@@2@I@Z PROC ; std::allocator<std::_List_nod<unsigned long,std::allocator<unsigned long> >::_Node>::allocate, COMDAT
; _this$ = ecx

; 186  : 		{	// allocate array of _Count elements

  00000	55		 push	 ebp
  00001	8b ec		 mov	 ebp, esp

; 187  : 		return (_Allocate(_Count, (pointer)0));

  00003	6a 00		 push	 0
  00005	ff 75 08	 push	 DWORD PTR __Count$[ebp]
  00008	e8 00 00 00 00	 call	 ??$_Allocate@U_Node@?$_List_nod@KV?$allocator@K@std@@@std@@@std@@YAPAU_Node@?$_List_nod@KV?$allocator@K@std@@@0@IPAU120@@Z ; std::_Allocate<std::_List_nod<unsigned long,std::allocator<unsigned long> >::_Node>
  0000d	59		 pop	 ecx
  0000e	59		 pop	 ecx

; 188  : 		}

  0000f	5d		 pop	 ebp
  00010	c2 04 00	 ret	 4
?allocate@?$allocator@U_Node@?$_List_nod@KV?$allocator@K@std@@@std@@@std@@QAEPAU_Node@?$_List_nod@KV?$allocator@K@std@@@2@I@Z ENDP ; std::allocator<std::_List_nod<unsigned long,std::allocator<unsigned long> >::_Node>::allocate
_TEXT	ENDS
PUBLIC	??0?$_List_const_iterator@V?$_List_val@KV?$allocator@K@std@@@std@@@std@@QAE@PAU_Node@?$_List_nod@KV?$allocator@K@std@@@1@PBV?$_List_val@KV?$allocator@K@std@@@1@@Z ; std::_List_const_iterator<std::_List_val<unsigned long,std::allocator<unsigned long> > >::_List_const_iterator<std::_List_val<unsigned long,std::allocator<unsigned long> > >
; Function compile flags: /Ogsp
; File c:\program files (x86)\microsoft visual studio 10.0\vc\include\list
;	COMDAT ??0?$_List_const_iterator@V?$_List_val@KV?$allocator@K@std@@@std@@@std@@QAE@PAU_Node@?$_List_nod@KV?$allocator@K@std@@@1@PBV?$_List_val@KV?$allocator@K@std@@@1@@Z
_TEXT	SEGMENT
__Pnode$ = 8						; size = 4
__Plist$ = 12						; size = 4
??0?$_List_const_iterator@V?$_List_val@KV?$allocator@K@std@@@std@@@std@@QAE@PAU_Node@?$_List_nod@KV?$allocator@K@std@@@1@PBV?$_List_val@KV?$allocator@K@std@@@1@@Z PROC ; std::_List_const_iterator<std::_List_val<unsigned long,std::allocator<unsigned long> > >::_List_const_iterator<std::_List_val<unsigned long,std::allocator<unsigned long> > >, COMDAT
; _this$ = ecx

; 184  : 		{	// construct with node pointer _Pnode

  00000	55		 push	 ebp
  00001	8b ec		 mov	 ebp, esp
  00003	8b c1		 mov	 eax, ecx
  00005	8b 4d 08	 mov	 ecx, DWORD PTR __Pnode$[ebp]
  00008	89 08		 mov	 DWORD PTR [eax], ecx

; 185  : 		}

  0000a	5d		 pop	 ebp
  0000b	c2 08 00	 ret	 8
??0?$_List_const_iterator@V?$_List_val@KV?$allocator@K@std@@@std@@@std@@QAE@PAU_Node@?$_List_nod@KV?$allocator@K@std@@@1@PBV?$_List_val@KV?$allocator@K@std@@@1@@Z ENDP ; std::_List_const_iterator<std::_List_val<unsigned long,std::allocator<unsigned long> > >::_List_const_iterator<std::_List_val<unsigned long,std::allocator<unsigned long> > >
_TEXT	ENDS
PUBLIC	??0?$_Tree_const_iterator@V?$_Tree_val@V?$_Tmap_traits@KPAVioUIRenderImage@@U?$less@K@std@@V?$allocator@U?$pair@$$CBKPAVioUIRenderImage@@@std@@@3@$0A@@std@@@std@@@std@@QAE@PAU_Node@?$_Tree_nod@V?$_Tmap_traits@KPAVioUIRenderImage@@U?$less@K@std@@V?$allocator@U?$pair@$$CBKPAVioUIRenderImage@@@std@@@3@$0A@@std@@@1@PBV?$_Tree_val@V?$_Tmap_traits@KPAVioUIRenderImage@@U?$less@K@std@@V?$allocator@U?$pair@$$CBKPAVioUIRenderImage@@@std@@@3@$0A@@std@@@1@@Z ; std::_Tree_const_iterator<std::_Tree_val<std::_Tmap_traits<unsigned long,ioUIRenderImage *,std::less<unsigned long>,std::allocator<std::pair<unsigned long const ,ioUIRenderImage *> >,0> > >::_Tree_const_iterator<std::_Tree_val<std::_Tmap_traits<unsigned long,ioUIRenderImage *,std::less<unsigned long>,std::allocator<std::pair<unsigned long const ,ioUIRenderImage *> >,0> > >
; Function compile flags: /Ogsp
; File c:\program files (x86)\microsoft visual studio 10.0\vc\include\xtree
;	COMDAT ??0?$_Tree_const_iterator@V?$_Tree_val@V?$_Tmap_traits@KPAVioUIRenderImage@@U?$less@K@std@@V?$allocator@U?$pair@$$CBKPAVioUIRenderImage@@@std@@@3@$0A@@std@@@std@@@std@@QAE@PAU_Node@?$_Tree_nod@V?$_Tmap_traits@KPAVioUIRenderImage@@U?$less@K@std@@V?$allocator@U?$pair@$$CBKPAVioUIRenderImage@@@std@@@3@$0A@@std@@@1@PBV?$_Tree_val@V?$_Tmap_traits@KPAVioUIRenderImage@@U?$less@K@std@@V?$allocator@U?$pair@$$CBKPAVioUIRenderImage@@@std@@@3@$0A@@std@@@1@@Z
_TEXT	SEGMENT
__Pnode$ = 8						; size = 4
__Plist$ = 12						; size = 4
??0?$_Tree_const_iterator@V?$_Tree_val@V?$_Tmap_traits@KPAVioUIRenderImage@@U?$less@K@std@@V?$allocator@U?$pair@$$CBKPAVioUIRenderImage@@@std@@@3@$0A@@std@@@std@@@std@@QAE@PAU_Node@?$_Tree_nod@V?$_Tmap_traits@KPAVioUIRenderImage@@U?$less@K@std@@V?$allocator@U?$pair@$$CBKPAVioUIRenderImage@@@std@@@3@$0A@@std@@@1@PBV?$_Tree_val@V?$_Tmap_traits@KPAVioUIRenderImage@@U?$less@K@std@@V?$allocator@U?$pair@$$CBKPAVioUIRenderImage@@@std@@@3@$0A@@std@@@1@@Z PROC ; std::_Tree_const_iterator<std::_Tree_val<std::_Tmap_traits<unsigned long,ioUIRenderImage *,std::less<unsigned long>,std::allocator<std::pair<unsigned long const ,ioUIRenderImage *> >,0> > >::_Tree_const_iterator<std::_Tree_val<std::_Tmap_traits<unsigned long,ioUIRenderImage *,std::less<unsigned long>,std::allocator<std::pair<unsigned long const ,ioUIRenderImage *> >,0> > >, COMDAT
; _this$ = ecx

; 213  : 		{	// construct with node pointer _Pnode

  00000	55		 push	 ebp
  00001	8b ec		 mov	 ebp, esp
  00003	8b c1		 mov	 eax, ecx
  00005	8b 4d 08	 mov	 ecx, DWORD PTR __Pnode$[ebp]
  00008	89 08		 mov	 DWORD PTR [eax], ecx

; 214  : 		}

  0000a	5d		 pop	 ebp
  0000b	c2 08 00	 ret	 8
??0?$_Tree_const_iterator@V?$_Tree_val@V?$_Tmap_traits@KPAVioUIRenderImage@@U?$less@K@std@@V?$allocator@U?$pair@$$CBKPAVioUIRenderImage@@@std@@@3@$0A@@std@@@std@@@std@@QAE@PAU_Node@?$_Tree_nod@V?$_Tmap_traits@KPAVioUIRenderImage@@U?$less@K@std@@V?$allocator@U?$pair@$$CBKPAVioUIRenderImage@@@std@@@3@$0A@@std@@@1@PBV?$_Tree_val@V?$_Tmap_traits@KPAVioUIRenderImage@@U?$less@K@std@@V?$allocator@U?$pair@$$CBKPAVioUIRenderImage@@@std@@@3@$0A@@std@@@1@@Z ENDP ; std::_Tree_const_iterator<std::_Tree_val<std::_Tmap_traits<unsigned long,ioUIRenderImage *,std::less<unsigned long>,std::allocator<std::pair<unsigned long const ,ioUIRenderImage *> >,0> > >::_Tree_const_iterator<std::_Tree_val<std::_Tmap_traits<unsigned long,ioUIRenderImage *,std::less<unsigned long>,std::allocator<std::pair<unsigned long const ,ioUIRenderImage *> >,0> > >
_TEXT	ENDS
PUBLIC	??E?$_Tree_unchecked_const_iterator@V?$_Tree_val@V?$_Tmap_traits@KPAVioUIRenderImage@@U?$less@K@std@@V?$allocator@U?$pair@$$CBKPAVioUIRenderImage@@@std@@@3@$0A@@std@@@std@@U_Iterator_base0@2@@std@@QAEAAV01@XZ ; std::_Tree_unchecked_const_iterator<std::_Tree_val<std::_Tmap_traits<unsigned long,ioUIRenderImage *,std::less<unsigned long>,std::allocator<std::pair<unsigned long const ,ioUIRenderImage *> >,0> >,std::_Iterator_base0>::operator++
; Function compile flags: /Ogsp
;	COMDAT ??E?$_Tree_unchecked_const_iterator@V?$_Tree_val@V?$_Tmap_traits@KPAVioUIRenderImage@@U?$less@K@std@@V?$allocator@U?$pair@$$CBKPAVioUIRenderImage@@@std@@@3@$0A@@std@@@std@@U_Iterator_base0@2@@std@@QAEAAV01@XZ
_TEXT	SEGMENT
??E?$_Tree_unchecked_const_iterator@V?$_Tree_val@V?$_Tmap_traits@KPAVioUIRenderImage@@U?$less@K@std@@V?$allocator@U?$pair@$$CBKPAVioUIRenderImage@@@std@@@3@$0A@@std@@@std@@U_Iterator_base0@2@@std@@QAEAAV01@XZ PROC ; std::_Tree_unchecked_const_iterator<std::_Tree_val<std::_Tmap_traits<unsigned long,ioUIRenderImage *,std::less<unsigned long>,std::allocator<std::pair<unsigned long const ,ioUIRenderImage *> >,0> >,std::_Iterator_base0>::operator++, COMDAT
; _this$ = ecx

; 58   : 		{	// preincrement

  00000	8b c1		 mov	 eax, ecx

; 59   : 		if (_Mytree::_Isnil(_Ptr))

  00002	8b 08		 mov	 ecx, DWORD PTR [eax]
  00004	53		 push	 ebx
  00005	32 db		 xor	 bl, bl
  00007	38 59 15	 cmp	 BYTE PTR [ecx+21], bl
  0000a	75 2d		 jne	 SHORT $LN3@operator@2

; 60   : 			;	// end() shouldn't be incremented, don't move
; 61   : 		else if (!_Mytree::_Isnil(_Mytree::_Right(_Ptr)))

  0000c	8b 51 08	 mov	 edx, DWORD PTR [ecx+8]
  0000f	38 5a 15	 cmp	 BYTE PTR [edx+21], bl
  00012	75 0d		 jne	 SHORT $LN34@operator@2

; 62   : 			_Ptr = _Mytree::_Min(
; 63   : 				_Mytree::_Right(_Ptr));	// ==> smallest of right subtree

$LL18@operator@2:
  00014	8b ca		 mov	 ecx, edx
  00016	8b 11		 mov	 edx, DWORD PTR [ecx]
  00018	38 5a 15	 cmp	 BYTE PTR [edx+21], bl
  0001b	74 f7		 je	 SHORT $LL18@operator@2
  0001d	89 08		 mov	 DWORD PTR [eax], ecx
  0001f	5b		 pop	 ebx

; 71   : 			}
; 72   : 		return (*this);
; 73   : 		}

  00020	c3		 ret	 0
$LN34@operator@2:

; 64   : 		else
; 65   : 			{	// climb looking for right subtree
; 66   : 			_Nodeptr _Pnode;
; 67   : 			while (!_Mytree::_Isnil(_Pnode = _Mytree::_Parent(_Ptr))
; 68   : 				&& _Ptr == _Mytree::_Right(_Pnode))

  00021	8b 51 04	 mov	 edx, DWORD PTR [ecx+4]
  00024	eb 0c		 jmp	 SHORT $LN38@operator@2
$LL2@operator@2:
  00026	8b 08		 mov	 ecx, DWORD PTR [eax]
  00028	3b 4a 08	 cmp	 ecx, DWORD PTR [edx+8]
  0002b	75 0a		 jne	 SHORT $LN1@operator@2

; 69   : 				_Ptr = _Pnode;	// ==> parent while right subtree

  0002d	89 10		 mov	 DWORD PTR [eax], edx
  0002f	8b 52 04	 mov	 edx, DWORD PTR [edx+4]
$LN38@operator@2:

; 64   : 		else
; 65   : 			{	// climb looking for right subtree
; 66   : 			_Nodeptr _Pnode;
; 67   : 			while (!_Mytree::_Isnil(_Pnode = _Mytree::_Parent(_Ptr))
; 68   : 				&& _Ptr == _Mytree::_Right(_Pnode))

  00032	38 5a 15	 cmp	 BYTE PTR [edx+21], bl
  00035	74 ef		 je	 SHORT $LL2@operator@2
$LN1@operator@2:

; 70   : 			_Ptr = _Pnode;	// ==> parent (head if end())

  00037	89 10		 mov	 DWORD PTR [eax], edx
$LN3@operator@2:
  00039	5b		 pop	 ebx

; 71   : 			}
; 72   : 		return (*this);
; 73   : 		}

  0003a	c3		 ret	 0
??E?$_Tree_unchecked_const_iterator@V?$_Tree_val@V?$_Tmap_traits@KPAVioUIRenderImage@@U?$less@K@std@@V?$allocator@U?$pair@$$CBKPAVioUIRenderImage@@@std@@@3@$0A@@std@@@std@@U_Iterator_base0@2@@std@@QAEAAV01@XZ ENDP ; std::_Tree_unchecked_const_iterator<std::_Tree_val<std::_Tmap_traits<unsigned long,ioUIRenderImage *,std::less<unsigned long>,std::allocator<std::pair<unsigned long const ,ioUIRenderImage *> >,0> >,std::_Iterator_base0>::operator++
_TEXT	ENDS
PUBLIC	??0?$_Tree_nod@V?$_Tmap_traits@KPAVioUIRenderImage@@U?$less@K@std@@V?$allocator@U?$pair@$$CBKPAVioUIRenderImage@@@std@@@3@$0A@@std@@@std@@QAE@ABU?$less@K@1@V?$allocator@U?$pair@$$CBKPAVioUIRenderImage@@@std@@@1@@Z ; std::_Tree_nod<std::_Tmap_traits<unsigned long,ioUIRenderImage *,std::less<unsigned long>,std::allocator<std::pair<unsigned long const ,ioUIRenderImage *> >,0> >::_Tree_nod<std::_Tmap_traits<unsigned long,ioUIRenderImage *,std::less<unsigned long>,std::allocator<std::pair<unsigned long const ,ioUIRenderImage *> >,0> >
; Function compile flags: /Ogsp
;	COMDAT ??0?$_Tree_nod@V?$_Tmap_traits@KPAVioUIRenderImage@@U?$less@K@std@@V?$allocator@U?$pair@$$CBKPAVioUIRenderImage@@@std@@@3@$0A@@std@@@std@@QAE@ABU?$less@K@1@V?$allocator@U?$pair@$$CBKPAVioUIRenderImage@@@std@@@1@@Z
_TEXT	SEGMENT
__Parg$ = 8						; size = 4
__Al$ = 12						; size = 1
??0?$_Tree_nod@V?$_Tmap_traits@KPAVioUIRenderImage@@U?$less@K@std@@V?$allocator@U?$pair@$$CBKPAVioUIRenderImage@@@std@@@3@$0A@@std@@@std@@QAE@ABU?$less@K@1@V?$allocator@U?$pair@$$CBKPAVioUIRenderImage@@@std@@@1@@Z PROC ; std::_Tree_nod<std::_Tmap_traits<unsigned long,ioUIRenderImage *,std::less<unsigned long>,std::allocator<std::pair<unsigned long const ,ioUIRenderImage *> >,0> >::_Tree_nod<std::_Tmap_traits<unsigned long,ioUIRenderImage *,std::less<unsigned long>,std::allocator<std::pair<unsigned long const ,ioUIRenderImage *> >,0> >, COMDAT
; _this$ = ecx

; 482  : 		{	// construct traits from _Parg and allocators from _Al

  00000	8b c1		 mov	 eax, ecx

; 483  : 		}

  00002	c2 08 00	 ret	 8
??0?$_Tree_nod@V?$_Tmap_traits@KPAVioUIRenderImage@@U?$less@K@std@@V?$allocator@U?$pair@$$CBKPAVioUIRenderImage@@@std@@@3@$0A@@std@@@std@@QAE@ABU?$less@K@1@V?$allocator@U?$pair@$$CBKPAVioUIRenderImage@@@std@@@1@@Z ENDP ; std::_Tree_nod<std::_Tmap_traits<unsigned long,ioUIRenderImage *,std::less<unsigned long>,std::allocator<std::pair<unsigned long const ,ioUIRenderImage *> >,0> >::_Tree_nod<std::_Tmap_traits<unsigned long,ioUIRenderImage *,std::less<unsigned long>,std::allocator<std::pair<unsigned long const ,ioUIRenderImage *> >,0> >
_TEXT	ENDS
PUBLIC	?allocate@?$allocator@U_Node@?$_Tree_nod@V?$_Tmap_traits@KPAVioUIRenderImage@@U?$less@K@std@@V?$allocator@U?$pair@$$CBKPAVioUIRenderImage@@@std@@@3@$0A@@std@@@std@@@std@@QAEPAU_Node@?$_Tree_nod@V?$_Tmap_traits@KPAVioUIRenderImage@@U?$less@K@std@@V?$allocator@U?$pair@$$CBKPAVioUIRenderImage@@@std@@@3@$0A@@std@@@2@I@Z ; std::allocator<std::_Tree_nod<std::_Tmap_traits<unsigned long,ioUIRenderImage *,std::less<unsigned long>,std::allocator<std::pair<unsigned long const ,ioUIRenderImage *> >,0> >::_Node>::allocate
; Function compile flags: /Ogsp
; File c:\program files (x86)\microsoft visual studio 10.0\vc\include\xmemory
;	COMDAT ?allocate@?$allocator@U_Node@?$_Tree_nod@V?$_Tmap_traits@KPAVioUIRenderImage@@U?$less@K@std@@V?$allocator@U?$pair@$$CBKPAVioUIRenderImage@@@std@@@3@$0A@@std@@@std@@@std@@QAEPAU_Node@?$_Tree_nod@V?$_Tmap_traits@KPAVioUIRenderImage@@U?$less@K@std@@V?$allocator@U?$pair@$$CBKPAVioUIRenderImage@@@std@@@3@$0A@@std@@@2@I@Z
_TEXT	SEGMENT
__Count$ = 8						; size = 4
?allocate@?$allocator@U_Node@?$_Tree_nod@V?$_Tmap_traits@KPAVioUIRenderImage@@U?$less@K@std@@V?$allocator@U?$pair@$$CBKPAVioUIRenderImage@@@std@@@3@$0A@@std@@@std@@@std@@QAEPAU_Node@?$_Tree_nod@V?$_Tmap_traits@KPAVioUIRenderImage@@U?$less@K@std@@V?$allocator@U?$pair@$$CBKPAVioUIRenderImage@@@std@@@3@$0A@@std@@@2@I@Z PROC ; std::allocator<std::_Tree_nod<std::_Tmap_traits<unsigned long,ioUIRenderImage *,std::less<unsigned long>,std::allocator<std::pair<unsigned long const ,ioUIRenderImage *> >,0> >::_Node>::allocate, COMDAT
; _this$ = ecx

; 186  : 		{	// allocate array of _Count elements

  00000	55		 push	 ebp
  00001	8b ec		 mov	 ebp, esp

; 187  : 		return (_Allocate(_Count, (pointer)0));

  00003	6a 00		 push	 0
  00005	ff 75 08	 push	 DWORD PTR __Count$[ebp]
  00008	e8 00 00 00 00	 call	 ??$_Allocate@U_Node@?$_Tree_nod@V?$_Tmap_traits@KPAVioUIRenderImage@@U?$less@K@std@@V?$allocator@U?$pair@$$CBKPAVioUIRenderImage@@@std@@@3@$0A@@std@@@std@@@std@@YAPAU_Node@?$_Tree_nod@V?$_Tmap_traits@KPAVioUIRenderImage@@U?$less@K@std@@V?$allocator@U?$pair@$$CBKPAVioUIRenderImage@@@std@@@3@$0A@@std@@@0@IPAU120@@Z ; std::_Allocate<std::_Tree_nod<std::_Tmap_traits<unsigned long,ioUIRenderImage *,std::less<unsigned long>,std::allocator<std::pair<unsigned long const ,ioUIRenderImage *> >,0> >::_Node>
  0000d	59		 pop	 ecx
  0000e	59		 pop	 ecx

; 188  : 		}

  0000f	5d		 pop	 ebp
  00010	c2 04 00	 ret	 4
?allocate@?$allocator@U_Node@?$_Tree_nod@V?$_Tmap_traits@KPAVioUIRenderImage@@U?$less@K@std@@V?$allocator@U?$pair@$$CBKPAVioUIRenderImage@@@std@@@3@$0A@@std@@@std@@@std@@QAEPAU_Node@?$_Tree_nod@V?$_Tmap_traits@KPAVioUIRenderImage@@U?$less@K@std@@V?$allocator@U?$pair@$$CBKPAVioUIRenderImage@@@std@@@3@$0A@@std@@@2@I@Z ENDP ; std::allocator<std::_Tree_nod<std::_Tmap_traits<unsigned long,ioUIRenderImage *,std::less<unsigned long>,std::allocator<std::pair<unsigned long const ,ioUIRenderImage *> >,0> >::_Node>::allocate
_TEXT	ENDS
PUBLIC	?allocate@?$allocator@PAUCustomMarkData@ioGuildMarkMgr@@@std@@QAEPAPAUCustomMarkData@ioGuildMarkMgr@@I@Z ; std::allocator<ioGuildMarkMgr::CustomMarkData *>::allocate
; Function compile flags: /Ogsp
;	COMDAT ?allocate@?$allocator@PAUCustomMarkData@ioGuildMarkMgr@@@std@@QAEPAPAUCustomMarkData@ioGuildMarkMgr@@I@Z
_TEXT	SEGMENT
__Count$ = 8						; size = 4
?allocate@?$allocator@PAUCustomMarkData@ioGuildMarkMgr@@@std@@QAEPAPAUCustomMarkData@ioGuildMarkMgr@@I@Z PROC ; std::allocator<ioGuildMarkMgr::CustomMarkData *>::allocate, COMDAT
; _this$ = ecx

; 186  : 		{	// allocate array of _Count elements

  00000	55		 push	 ebp
  00001	8b ec		 mov	 ebp, esp

; 187  : 		return (_Allocate(_Count, (pointer)0));

  00003	6a 00		 push	 0
  00005	ff 75 08	 push	 DWORD PTR __Count$[ebp]
  00008	e8 00 00 00 00	 call	 ??$_Allocate@PAUCustomMarkData@ioGuildMarkMgr@@@std@@YAPAPAUCustomMarkData@ioGuildMarkMgr@@IPAPAU12@@Z ; std::_Allocate<ioGuildMarkMgr::CustomMarkData *>
  0000d	59		 pop	 ecx
  0000e	59		 pop	 ecx

; 188  : 		}

  0000f	5d		 pop	 ebp
  00010	c2 04 00	 ret	 4
?allocate@?$allocator@PAUCustomMarkData@ioGuildMarkMgr@@@std@@QAEPAPAUCustomMarkData@ioGuildMarkMgr@@I@Z ENDP ; std::allocator<ioGuildMarkMgr::CustomMarkData *>::allocate
_TEXT	ENDS
PUBLIC	?max_size@?$list@KV?$allocator@K@std@@@std@@QBEIXZ ; std::list<unsigned long,std::allocator<unsigned long> >::max_size
; Function compile flags: /Ogsp
; File c:\program files (x86)\microsoft visual studio 10.0\vc\include\list
;	COMDAT ?max_size@?$list@KV?$allocator@K@std@@@std@@QBEIXZ
_TEXT	SEGMENT
?max_size@?$list@KV?$allocator@K@std@@@std@@QBEIXZ PROC	; std::list<unsigned long,std::allocator<unsigned long> >::max_size, COMDAT
; _this$ = ecx

; 882  : 		return (this->_Alval.max_size());

  00000	b8 ff ff ff 3f	 mov	 eax, 1073741823		; 3fffffffH

; 883  : 		}

  00005	c3		 ret	 0
?max_size@?$list@KV?$allocator@K@std@@@std@@QBEIXZ ENDP	; std::list<unsigned long,std::allocator<unsigned long> >::max_size
_TEXT	ENDS
PUBLIC	?_Lrotate@?$_Tree@V?$_Tmap_traits@KPAVioUIRenderImage@@U?$less@K@std@@V?$allocator@U?$pair@$$CBKPAVioUIRenderImage@@@std@@@3@$0A@@std@@@std@@IAEXPAU_Node@?$_Tree_nod@V?$_Tmap_traits@KPAVioUIRenderImage@@U?$less@K@std@@V?$allocator@U?$pair@$$CBKPAVioUIRenderImage@@@std@@@3@$0A@@std@@@2@@Z ; std::_Tree<std::_Tmap_traits<unsigned long,ioUIRenderImage *,std::less<unsigned long>,std::allocator<std::pair<unsigned long const ,ioUIRenderImage *> >,0> >::_Lrotate
; Function compile flags: /Ogsp
; File c:\program files (x86)\microsoft visual studio 10.0\vc\include\xtree
;	COMDAT ?_Lrotate@?$_Tree@V?$_Tmap_traits@KPAVioUIRenderImage@@U?$less@K@std@@V?$allocator@U?$pair@$$CBKPAVioUIRenderImage@@@std@@@3@$0A@@std@@@std@@IAEXPAU_Node@?$_Tree_nod@V?$_Tmap_traits@KPAVioUIRenderImage@@U?$less@K@std@@V?$allocator@U?$pair@$$CBKPAVioUIRenderImage@@@std@@@3@$0A@@std@@@2@@Z
_TEXT	SEGMENT
__Wherenode$ = 8					; size = 4
?_Lrotate@?$_Tree@V?$_Tmap_traits@KPAVioUIRenderImage@@U?$less@K@std@@V?$allocator@U?$pair@$$CBKPAVioUIRenderImage@@@std@@@3@$0A@@std@@@std@@IAEXPAU_Node@?$_Tree_nod@V?$_Tmap_traits@KPAVioUIRenderImage@@U?$less@K@std@@V?$allocator@U?$pair@$$CBKPAVioUIRenderImage@@@std@@@3@$0A@@std@@@2@@Z PROC ; std::_Tree<std::_Tmap_traits<unsigned long,ioUIRenderImage *,std::less<unsigned long>,std::allocator<std::pair<unsigned long const ,ioUIRenderImage *> >,0> >::_Lrotate, COMDAT
; _this$ = ecx

; 1763 : 		{	// promote right node to root of subtree

  00000	55		 push	 ebp
  00001	8b ec		 mov	 ebp, esp

; 1764 : 		_Nodeptr _Pnode = this->_Right(_Wherenode);

  00003	8b 55 08	 mov	 edx, DWORD PTR __Wherenode$[ebp]
  00006	8b 42 08	 mov	 eax, DWORD PTR [edx+8]
  00009	56		 push	 esi

; 1765 : 		this->_Right(_Wherenode) = this->_Left(_Pnode);

  0000a	8b 30		 mov	 esi, DWORD PTR [eax]
  0000c	89 72 08	 mov	 DWORD PTR [edx+8], esi

; 1766 : 
; 1767 : 		if (!this->_Isnil(this->_Left(_Pnode)))

  0000f	8b 30		 mov	 esi, DWORD PTR [eax]
  00011	80 7e 15 00	 cmp	 BYTE PTR [esi+21], 0
  00015	75 03		 jne	 SHORT $LN5@Lrotate

; 1768 : 			this->_Parent(this->_Left(_Pnode)) = _Wherenode;

  00017	89 56 04	 mov	 DWORD PTR [esi+4], edx
$LN5@Lrotate:

; 1769 : 		this->_Parent(_Pnode) = this->_Parent(_Wherenode);

  0001a	8b 72 04	 mov	 esi, DWORD PTR [edx+4]
  0001d	89 70 04	 mov	 DWORD PTR [eax+4], esi

; 1770 : 
; 1771 : 		if (_Wherenode == _Root())

  00020	8b 49 04	 mov	 ecx, DWORD PTR [ecx+4]
  00023	5e		 pop	 esi
  00024	3b 51 04	 cmp	 edx, DWORD PTR [ecx+4]
  00027	75 05		 jne	 SHORT $LN4@Lrotate

; 1772 : 			_Root() = _Pnode;

  00029	89 41 04	 mov	 DWORD PTR [ecx+4], eax

; 1773 : 		else if (_Wherenode == this->_Left(this->_Parent(_Wherenode)))

  0002c	eb 0e		 jmp	 SHORT $LN1@Lrotate
$LN4@Lrotate:
  0002e	8b 4a 04	 mov	 ecx, DWORD PTR [edx+4]
  00031	3b 11		 cmp	 edx, DWORD PTR [ecx]
  00033	75 04		 jne	 SHORT $LN2@Lrotate

; 1774 : 			this->_Left(this->_Parent(_Wherenode)) = _Pnode;

  00035	89 01		 mov	 DWORD PTR [ecx], eax

; 1775 : 		else

  00037	eb 03		 jmp	 SHORT $LN1@Lrotate
$LN2@Lrotate:

; 1776 : 			this->_Right(this->_Parent(_Wherenode)) = _Pnode;

  00039	89 41 08	 mov	 DWORD PTR [ecx+8], eax
$LN1@Lrotate:

; 1777 : 
; 1778 : 		this->_Left(_Pnode) = _Wherenode;

  0003c	89 10		 mov	 DWORD PTR [eax], edx

; 1779 : 		this->_Parent(_Wherenode) = _Pnode;

  0003e	89 42 04	 mov	 DWORD PTR [edx+4], eax

; 1780 : 		}

  00041	5d		 pop	 ebp
  00042	c2 04 00	 ret	 4
?_Lrotate@?$_Tree@V?$_Tmap_traits@KPAVioUIRenderImage@@U?$less@K@std@@V?$allocator@U?$pair@$$CBKPAVioUIRenderImage@@@std@@@3@$0A@@std@@@std@@IAEXPAU_Node@?$_Tree_nod@V?$_Tmap_traits@KPAVioUIRenderImage@@U?$less@K@std@@V?$allocator@U?$pair@$$CBKPAVioUIRenderImage@@@std@@@3@$0A@@std@@@2@@Z ENDP ; std::_Tree<std::_Tmap_traits<unsigned long,ioUIRenderImage *,std::less<unsigned long>,std::allocator<std::pair<unsigned long const ,ioUIRenderImage *> >,0> >::_Lrotate
_TEXT	ENDS
PUBLIC	?_Rrotate@?$_Tree@V?$_Tmap_traits@KPAVioUIRenderImage@@U?$less@K@std@@V?$allocator@U?$pair@$$CBKPAVioUIRenderImage@@@std@@@3@$0A@@std@@@std@@IAEXPAU_Node@?$_Tree_nod@V?$_Tmap_traits@KPAVioUIRenderImage@@U?$less@K@std@@V?$allocator@U?$pair@$$CBKPAVioUIRenderImage@@@std@@@3@$0A@@std@@@2@@Z ; std::_Tree<std::_Tmap_traits<unsigned long,ioUIRenderImage *,std::less<unsigned long>,std::allocator<std::pair<unsigned long const ,ioUIRenderImage *> >,0> >::_Rrotate
; Function compile flags: /Ogsp
;	COMDAT ?_Rrotate@?$_Tree@V?$_Tmap_traits@KPAVioUIRenderImage@@U?$less@K@std@@V?$allocator@U?$pair@$$CBKPAVioUIRenderImage@@@std@@@3@$0A@@std@@@std@@IAEXPAU_Node@?$_Tree_nod@V?$_Tmap_traits@KPAVioUIRenderImage@@U?$less@K@std@@V?$allocator@U?$pair@$$CBKPAVioUIRenderImage@@@std@@@3@$0A@@std@@@2@@Z
_TEXT	SEGMENT
__Wherenode$ = 8					; size = 4
?_Rrotate@?$_Tree@V?$_Tmap_traits@KPAVioUIRenderImage@@U?$less@K@std@@V?$allocator@U?$pair@$$CBKPAVioUIRenderImage@@@std@@@3@$0A@@std@@@std@@IAEXPAU_Node@?$_Tree_nod@V?$_Tmap_traits@KPAVioUIRenderImage@@U?$less@K@std@@V?$allocator@U?$pair@$$CBKPAVioUIRenderImage@@@std@@@3@$0A@@std@@@2@@Z PROC ; std::_Tree<std::_Tmap_traits<unsigned long,ioUIRenderImage *,std::less<unsigned long>,std::allocator<std::pair<unsigned long const ,ioUIRenderImage *> >,0> >::_Rrotate, COMDAT
; _this$ = ecx

; 1793 : 		{	// promote left node to root of subtree

  00000	55		 push	 ebp
  00001	8b ec		 mov	 ebp, esp

; 1794 : 		_Nodeptr _Pnode = this->_Left(_Wherenode);

  00003	8b 55 08	 mov	 edx, DWORD PTR __Wherenode$[ebp]
  00006	8b 02		 mov	 eax, DWORD PTR [edx]
  00008	56		 push	 esi

; 1795 : 		this->_Left(_Wherenode) = this->_Right(_Pnode);

  00009	8b 70 08	 mov	 esi, DWORD PTR [eax+8]
  0000c	89 32		 mov	 DWORD PTR [edx], esi

; 1796 : 
; 1797 : 		if (!this->_Isnil(this->_Right(_Pnode)))

  0000e	8b 70 08	 mov	 esi, DWORD PTR [eax+8]
  00011	80 7e 15 00	 cmp	 BYTE PTR [esi+21], 0
  00015	75 03		 jne	 SHORT $LN5@Rrotate

; 1798 : 			this->_Parent(this->_Right(_Pnode)) = _Wherenode;

  00017	89 56 04	 mov	 DWORD PTR [esi+4], edx
$LN5@Rrotate:

; 1799 : 		this->_Parent(_Pnode) = this->_Parent(_Wherenode);

  0001a	8b 72 04	 mov	 esi, DWORD PTR [edx+4]
  0001d	89 70 04	 mov	 DWORD PTR [eax+4], esi

; 1800 : 
; 1801 : 		if (_Wherenode == _Root())

  00020	8b 49 04	 mov	 ecx, DWORD PTR [ecx+4]
  00023	5e		 pop	 esi
  00024	3b 51 04	 cmp	 edx, DWORD PTR [ecx+4]
  00027	75 05		 jne	 SHORT $LN4@Rrotate

; 1802 : 			_Root() = _Pnode;

  00029	89 41 04	 mov	 DWORD PTR [ecx+4], eax

; 1803 : 		else if (_Wherenode == this->_Right(this->_Parent(_Wherenode)))

  0002c	eb 0f		 jmp	 SHORT $LN1@Rrotate
$LN4@Rrotate:
  0002e	8b 4a 04	 mov	 ecx, DWORD PTR [edx+4]
  00031	3b 51 08	 cmp	 edx, DWORD PTR [ecx+8]
  00034	75 05		 jne	 SHORT $LN2@Rrotate

; 1804 : 			this->_Right(this->_Parent(_Wherenode)) = _Pnode;

  00036	89 41 08	 mov	 DWORD PTR [ecx+8], eax

; 1805 : 		else

  00039	eb 02		 jmp	 SHORT $LN1@Rrotate
$LN2@Rrotate:

; 1806 : 			this->_Left(this->_Parent(_Wherenode)) = _Pnode;

  0003b	89 01		 mov	 DWORD PTR [ecx], eax
$LN1@Rrotate:

; 1807 : 
; 1808 : 		this->_Right(_Pnode) = _Wherenode;

  0003d	89 50 08	 mov	 DWORD PTR [eax+8], edx

; 1809 : 		this->_Parent(_Wherenode) = _Pnode;

  00040	89 42 04	 mov	 DWORD PTR [edx+4], eax

; 1810 : 		}

  00043	5d		 pop	 ebp
  00044	c2 04 00	 ret	 4
?_Rrotate@?$_Tree@V?$_Tmap_traits@KPAVioUIRenderImage@@U?$less@K@std@@V?$allocator@U?$pair@$$CBKPAVioUIRenderImage@@@std@@@3@$0A@@std@@@std@@IAEXPAU_Node@?$_Tree_nod@V?$_Tmap_traits@KPAVioUIRenderImage@@U?$less@K@std@@V?$allocator@U?$pair@$$CBKPAVioUIRenderImage@@@std@@@3@$0A@@std@@@2@@Z ENDP ; std::_Tree<std::_Tmap_traits<unsigned long,ioUIRenderImage *,std::less<unsigned long>,std::allocator<std::pair<unsigned long const ,ioUIRenderImage *> >,0> >::_Rrotate
_TEXT	ENDS
PUBLIC	__$ArrayPad$
PUBLIC	??$SetTitle_e@$08@ioINILoader@@QAEXAAY08$$CBD@Z	; ioINILoader::SetTitle_e<9>
EXTRN	__imp_?SetTitle@ioINILoader@@QAEXPBD@Z:PROC
EXTRN	___security_cookie:DWORD
; Function compile flags: /Ogsp
; File d:\lost saga for developer\youtube\tutorial\source\src\io3dengine\ioiniloader.h
;	COMDAT ??$SetTitle_e@$08@ioINILoader@@QAEXAAY08$$CBD@Z
_TEXT	SEGMENT
__t$ = -20						; size = 9
__$ArrayPad$ = -4					; size = 4
_t$ = 8							; size = 4
??$SetTitle_e@$08@ioINILoader@@QAEXAAY08$$CBD@Z PROC	; ioINILoader::SetTitle_e<9>, COMDAT
; _this$ = ecx

; 188  : 	{

  00000	55		 push	 ebp
  00001	8b ec		 mov	 ebp, esp
  00003	83 ec 14	 sub	 esp, 20			; 00000014H
  00006	a1 00 00 00 00	 mov	 eax, DWORD PTR ___security_cookie
  0000b	33 c5		 xor	 eax, ebp
  0000d	89 45 fc	 mov	 DWORD PTR __$ArrayPad$[ebp], eax
  00010	8b 45 08	 mov	 eax, DWORD PTR _t$[ebp]

; 189  : 		_ENCSTR(t, _t);

  00013	8a 10		 mov	 dl, BYTE PTR [eax]
  00015	84 d2		 test	 dl, dl
  00017	0f 84 ee 00 00
	00		 je	 $LN96@SetTitle_e
  0001d	80 f2 ed	 xor	 dl, -19			; ffffffedH
  00020	88 55 ec	 mov	 BYTE PTR __t$[ebp], dl
  00023	8a 50 01	 mov	 dl, BYTE PTR [eax+1]
  00026	84 d2		 test	 dl, dl
  00028	0f 84 d7 00 00
	00		 je	 $LN95@SetTitle_e
  0002e	80 f2 ec	 xor	 dl, -20			; ffffffecH
  00031	88 55 ed	 mov	 BYTE PTR __t$[ebp+1], dl
  00034	8a 50 02	 mov	 dl, BYTE PTR [eax+2]
  00037	84 d2		 test	 dl, dl
  00039	0f 84 c0 00 00
	00		 je	 $LN94@SetTitle_e
  0003f	80 f2 eb	 xor	 dl, -21			; ffffffebH
  00042	88 55 ee	 mov	 BYTE PTR __t$[ebp+2], dl
  00045	8a 50 03	 mov	 dl, BYTE PTR [eax+3]
  00048	84 d2		 test	 dl, dl
  0004a	0f 84 a9 00 00
	00		 je	 $LN93@SetTitle_e
  00050	80 f2 ea	 xor	 dl, -22			; ffffffeaH
  00053	88 55 ef	 mov	 BYTE PTR __t$[ebp+3], dl
  00056	8a 50 04	 mov	 dl, BYTE PTR [eax+4]
  00059	84 d2		 test	 dl, dl
  0005b	0f 84 92 00 00
	00		 je	 $LN92@SetTitle_e
  00061	80 f2 ed	 xor	 dl, -19			; ffffffedH
  00064	88 55 f0	 mov	 BYTE PTR __t$[ebp+4], dl
  00067	8a 50 05	 mov	 dl, BYTE PTR [eax+5]
  0006a	84 d2		 test	 dl, dl
  0006c	74 7f		 je	 SHORT $LN91@SetTitle_e
  0006e	80 f2 ec	 xor	 dl, -20			; ffffffecH
  00071	88 55 f1	 mov	 BYTE PTR __t$[ebp+5], dl
  00074	8a 50 06	 mov	 dl, BYTE PTR [eax+6]
  00077	84 d2		 test	 dl, dl
  00079	74 6c		 je	 SHORT $LN90@SetTitle_e
  0007b	80 f2 eb	 xor	 dl, -21			; ffffffebH
  0007e	88 55 f2	 mov	 BYTE PTR __t$[ebp+6], dl
  00081	8a 50 07	 mov	 dl, BYTE PTR [eax+7]
  00084	84 d2		 test	 dl, dl
  00086	74 59		 je	 SHORT $LN89@SetTitle_e
  00088	80 f2 ea	 xor	 dl, -22			; ffffffeaH
  0008b	80 78 08 00	 cmp	 BYTE PTR [eax+8], 0
  0008f	88 55 f3	 mov	 BYTE PTR __t$[ebp+7], dl
  00092	74 7b		 je	 SHORT $LN1@SetTitle_e
  00094	8a 50 09	 mov	 dl, BYTE PTR [eax+9]
  00097	84 d2		 test	 dl, dl
  00099	74 40		 je	 SHORT $LN87@SetTitle_e
  0009b	80 f2 ec	 xor	 dl, -20			; ffffffecH
  0009e	88 55 f5	 mov	 BYTE PTR __t$[ebp+9], dl
  000a1	8a 50 0a	 mov	 dl, BYTE PTR [eax+10]
  000a4	84 d2		 test	 dl, dl
  000a6	74 2d		 je	 SHORT $LN86@SetTitle_e
  000a8	80 f2 eb	 xor	 dl, -21			; ffffffebH
  000ab	88 55 f6	 mov	 BYTE PTR __t$[ebp+10], dl
  000ae	8a 50 0b	 mov	 dl, BYTE PTR [eax+11]
  000b1	84 d2		 test	 dl, dl
  000b3	74 1a		 je	 SHORT $LN85@SetTitle_e
  000b5	8a 40 0c	 mov	 al, BYTE PTR [eax+12]
  000b8	80 f2 ea	 xor	 dl, -22			; ffffffeaH
  000bb	88 55 f7	 mov	 BYTE PTR __t$[ebp+11], dl
  000be	84 c0		 test	 al, al
  000c0	74 07		 je	 SHORT $LN84@SetTitle_e
  000c2	34 ed		 xor	 al, -19			; ffffffedH
  000c4	88 45 f8	 mov	 BYTE PTR __t$[ebp+12], al
  000c7	eb 46		 jmp	 SHORT $LN1@SetTitle_e
$LN84@SetTitle_e:
  000c9	c6 45 f8 ed	 mov	 BYTE PTR __t$[ebp+12], -19 ; ffffffedH
  000cd	eb 40		 jmp	 SHORT $LN1@SetTitle_e
$LN85@SetTitle_e:
  000cf	c6 45 f7 ea	 mov	 BYTE PTR __t$[ebp+11], -22 ; ffffffeaH
  000d3	eb 3a		 jmp	 SHORT $LN1@SetTitle_e
$LN86@SetTitle_e:
  000d5	c6 45 f6 eb	 mov	 BYTE PTR __t$[ebp+10], -21 ; ffffffebH
  000d9	eb 34		 jmp	 SHORT $LN1@SetTitle_e
$LN87@SetTitle_e:
  000db	c6 45 f5 ec	 mov	 BYTE PTR __t$[ebp+9], -20 ; ffffffecH
  000df	eb 2e		 jmp	 SHORT $LN1@SetTitle_e
$LN89@SetTitle_e:
  000e1	c6 45 f3 ea	 mov	 BYTE PTR __t$[ebp+7], -22 ; ffffffeaH
  000e5	eb 28		 jmp	 SHORT $LN1@SetTitle_e
$LN90@SetTitle_e:
  000e7	c6 45 f2 eb	 mov	 BYTE PTR __t$[ebp+6], -21 ; ffffffebH
  000eb	eb 22		 jmp	 SHORT $LN1@SetTitle_e
$LN91@SetTitle_e:
  000ed	c6 45 f1 ec	 mov	 BYTE PTR __t$[ebp+5], -20 ; ffffffecH
  000f1	eb 1c		 jmp	 SHORT $LN1@SetTitle_e
$LN92@SetTitle_e:
  000f3	c6 45 f0 ed	 mov	 BYTE PTR __t$[ebp+4], -19 ; ffffffedH
  000f7	eb 16		 jmp	 SHORT $LN1@SetTitle_e
$LN93@SetTitle_e:
  000f9	c6 45 ef ea	 mov	 BYTE PTR __t$[ebp+3], -22 ; ffffffeaH
  000fd	eb 10		 jmp	 SHORT $LN1@SetTitle_e
$LN94@SetTitle_e:
  000ff	c6 45 ee eb	 mov	 BYTE PTR __t$[ebp+2], -21 ; ffffffebH
  00103	eb 0a		 jmp	 SHORT $LN1@SetTitle_e
$LN95@SetTitle_e:
  00105	c6 45 ed ec	 mov	 BYTE PTR __t$[ebp+1], -20 ; ffffffecH
  00109	eb 04		 jmp	 SHORT $LN1@SetTitle_e
$LN96@SetTitle_e:
  0010b	c6 45 ec ed	 mov	 BYTE PTR __t$[ebp], -19	; ffffffedH
$LN1@SetTitle_e:
  0010f	6a 02		 push	 2
  00111	8d 45 ec	 lea	 eax, DWORD PTR __t$[ebp]
  00114	c6 45 f4 00	 mov	 BYTE PTR __t$[ebp+8], 0
  00118	5a		 pop	 edx
$LL104@SetTitle_e:
  00119	81 30 ed ec eb
	ea		 xor	 DWORD PTR [eax], -353637139 ; eaebecedH
  0011f	83 c0 04	 add	 eax, 4
  00122	4a		 dec	 edx
  00123	75 f4		 jne	 SHORT $LL104@SetTitle_e

; 190  : 		SetTitle(_t);

  00125	8d 45 ec	 lea	 eax, DWORD PTR __t$[ebp]
  00128	50		 push	 eax
  00129	ff 15 00 00 00
	00		 call	 DWORD PTR __imp_?SetTitle@ioINILoader@@QAEXPBD@Z

; 191  : 	}

  0012f	8b 4d fc	 mov	 ecx, DWORD PTR __$ArrayPad$[ebp]
  00132	33 cd		 xor	 ecx, ebp
  00134	e8 00 00 00 00	 call	 @__security_check_cookie@4
  00139	c9		 leave
  0013a	c2 04 00	 ret	 4
??$SetTitle_e@$08@ioINILoader@@QAEXAAY08$$CBD@Z ENDP	; ioINILoader::SetTitle_e<9>
_TEXT	ENDS
PUBLIC	__$ArrayPad$
PUBLIC	??$LoadInt_e@$0BH@@ioINILoader@@QAEHAAY0BH@$$CBDH@Z ; ioINILoader::LoadInt_e<23>
EXTRN	__imp_?LoadInt@ioINILoader@@QAEHPBDH@Z:PROC
; Function compile flags: /Ogsp
;	COMDAT ??$LoadInt_e@$0BH@@ioINILoader@@QAEHAAY0BH@$$CBDH@Z
_TEXT	SEGMENT
__k$ = -32						; size = 23
__$ArrayPad$ = -4					; size = 4
_k$ = 8							; size = 4
_i$ = 12						; size = 4
??$LoadInt_e@$0BH@@ioINILoader@@QAEHAAY0BH@$$CBDH@Z PROC ; ioINILoader::LoadInt_e<23>, COMDAT
; _this$ = ecx

; 118  : 	{

  00000	55		 push	 ebp
  00001	8b ec		 mov	 ebp, esp
  00003	83 ec 20	 sub	 esp, 32			; 00000020H
  00006	a1 00 00 00 00	 mov	 eax, DWORD PTR ___security_cookie
  0000b	33 c5		 xor	 eax, ebp
  0000d	89 45 fc	 mov	 DWORD PTR __$ArrayPad$[ebp], eax
  00010	8b 45 08	 mov	 eax, DWORD PTR _k$[ebp]

; 119  : 		_ENCSTR(k, _k);

  00013	8a 10		 mov	 dl, BYTE PTR [eax]
  00015	53		 push	 ebx
  00016	56		 push	 esi
  00017	8b f1		 mov	 esi, ecx
  00019	84 d2		 test	 dl, dl
  0001b	0f 84 2d 02 00
	00		 je	 $LN96@LoadInt_e
  00021	80 f2 ed	 xor	 dl, -19			; ffffffedH
  00024	88 55 e0	 mov	 BYTE PTR __k$[ebp], dl
  00027	8a 50 01	 mov	 dl, BYTE PTR [eax+1]
  0002a	84 d2		 test	 dl, dl
  0002c	0f 84 16 02 00
	00		 je	 $LN95@LoadInt_e
  00032	b1 ec		 mov	 cl, -20			; ffffffecH
  00034	32 d1		 xor	 dl, cl
  00036	88 55 e1	 mov	 BYTE PTR __k$[ebp+1], dl
  00039	8a 50 02	 mov	 dl, BYTE PTR [eax+2]
  0003c	84 d2		 test	 dl, dl
  0003e	0f 84 fe 01 00
	00		 je	 $LN94@LoadInt_e
  00044	80 f2 eb	 xor	 dl, -21			; ffffffebH
  00047	88 55 e2	 mov	 BYTE PTR __k$[ebp+2], dl
  0004a	8a 50 03	 mov	 dl, BYTE PTR [eax+3]
  0004d	84 d2		 test	 dl, dl
  0004f	0f 84 e7 01 00
	00		 je	 $LN93@LoadInt_e
  00055	b3 ea		 mov	 bl, -22			; ffffffeaH
  00057	32 d3		 xor	 dl, bl
  00059	88 55 e3	 mov	 BYTE PTR __k$[ebp+3], dl
  0005c	8a 50 04	 mov	 dl, BYTE PTR [eax+4]
  0005f	84 d2		 test	 dl, dl
  00061	0f 84 cf 01 00
	00		 je	 $LN92@LoadInt_e
  00067	80 f2 ed	 xor	 dl, -19			; ffffffedH
  0006a	88 55 e4	 mov	 BYTE PTR __k$[ebp+4], dl
  0006d	8a 50 05	 mov	 dl, BYTE PTR [eax+5]
  00070	84 d2		 test	 dl, dl
  00072	0f 84 b9 01 00
	00		 je	 $LN91@LoadInt_e
  00078	32 d1		 xor	 dl, cl
  0007a	88 55 e5	 mov	 BYTE PTR __k$[ebp+5], dl
  0007d	8a 50 06	 mov	 dl, BYTE PTR [eax+6]
  00080	84 d2		 test	 dl, dl
  00082	0f 84 a3 01 00
	00		 je	 $LN90@LoadInt_e
  00088	80 f2 eb	 xor	 dl, -21			; ffffffebH
  0008b	88 55 e6	 mov	 BYTE PTR __k$[ebp+6], dl
  0008e	8a 50 07	 mov	 dl, BYTE PTR [eax+7]
  00091	84 d2		 test	 dl, dl
  00093	0f 84 8d 01 00
	00		 je	 $LN89@LoadInt_e
  00099	32 d3		 xor	 dl, bl
  0009b	88 55 e7	 mov	 BYTE PTR __k$[ebp+7], dl
  0009e	8a 50 08	 mov	 dl, BYTE PTR [eax+8]
  000a1	84 d2		 test	 dl, dl
  000a3	0f 84 77 01 00
	00		 je	 $LN88@LoadInt_e
  000a9	80 f2 ed	 xor	 dl, -19			; ffffffedH
  000ac	88 55 e8	 mov	 BYTE PTR __k$[ebp+8], dl
  000af	8a 50 09	 mov	 dl, BYTE PTR [eax+9]
  000b2	84 d2		 test	 dl, dl
  000b4	0f 84 61 01 00
	00		 je	 $LN87@LoadInt_e
  000ba	32 d1		 xor	 dl, cl
  000bc	88 55 e9	 mov	 BYTE PTR __k$[ebp+9], dl
  000bf	8a 50 0a	 mov	 dl, BYTE PTR [eax+10]
  000c2	84 d2		 test	 dl, dl
  000c4	0f 84 4b 01 00
	00		 je	 $LN86@LoadInt_e
  000ca	80 f2 eb	 xor	 dl, -21			; ffffffebH
  000cd	88 55 ea	 mov	 BYTE PTR __k$[ebp+10], dl
  000d0	8a 50 0b	 mov	 dl, BYTE PTR [eax+11]
  000d3	84 d2		 test	 dl, dl
  000d5	0f 84 35 01 00
	00		 je	 $LN85@LoadInt_e
  000db	32 d3		 xor	 dl, bl
  000dd	88 55 eb	 mov	 BYTE PTR __k$[ebp+11], dl
  000e0	8a 50 0c	 mov	 dl, BYTE PTR [eax+12]
  000e3	84 d2		 test	 dl, dl
  000e5	0f 84 1f 01 00
	00		 je	 $LN84@LoadInt_e
  000eb	80 f2 ed	 xor	 dl, -19			; ffffffedH
  000ee	88 55 ec	 mov	 BYTE PTR __k$[ebp+12], dl
  000f1	8a 50 0d	 mov	 dl, BYTE PTR [eax+13]
  000f4	84 d2		 test	 dl, dl
  000f6	0f 84 09 01 00
	00		 je	 $LN83@LoadInt_e
  000fc	32 d1		 xor	 dl, cl
  000fe	88 55 ed	 mov	 BYTE PTR __k$[ebp+13], dl
  00101	8a 50 0e	 mov	 dl, BYTE PTR [eax+14]
  00104	84 d2		 test	 dl, dl
  00106	0f 84 f3 00 00
	00		 je	 $LN82@LoadInt_e
  0010c	80 f2 eb	 xor	 dl, -21			; ffffffebH
  0010f	88 55 ee	 mov	 BYTE PTR __k$[ebp+14], dl
  00112	8a 50 0f	 mov	 dl, BYTE PTR [eax+15]
  00115	84 d2		 test	 dl, dl
  00117	0f 84 dd 00 00
	00		 je	 $LN81@LoadInt_e
  0011d	32 d3		 xor	 dl, bl
  0011f	88 55 ef	 mov	 BYTE PTR __k$[ebp+15], dl
  00122	8a 50 10	 mov	 dl, BYTE PTR [eax+16]
  00125	84 d2		 test	 dl, dl
  00127	0f 84 c7 00 00
	00		 je	 $LN80@LoadInt_e
  0012d	80 f2 ed	 xor	 dl, -19			; ffffffedH
  00130	88 55 f0	 mov	 BYTE PTR __k$[ebp+16], dl
  00133	8a 50 11	 mov	 dl, BYTE PTR [eax+17]
  00136	84 d2		 test	 dl, dl
  00138	0f 84 b1 00 00
	00		 je	 $LN79@LoadInt_e
  0013e	32 d1		 xor	 dl, cl
  00140	88 55 f1	 mov	 BYTE PTR __k$[ebp+17], dl
  00143	8a 50 12	 mov	 dl, BYTE PTR [eax+18]
  00146	84 d2		 test	 dl, dl
  00148	0f 84 9b 00 00
	00		 je	 $LN78@LoadInt_e
  0014e	80 f2 eb	 xor	 dl, -21			; ffffffebH
  00151	88 55 f2	 mov	 BYTE PTR __k$[ebp+18], dl
  00154	8a 50 13	 mov	 dl, BYTE PTR [eax+19]
  00157	84 d2		 test	 dl, dl
  00159	0f 84 85 00 00
	00		 je	 $LN77@LoadInt_e
  0015f	32 d3		 xor	 dl, bl
  00161	88 55 f3	 mov	 BYTE PTR __k$[ebp+19], dl
  00164	8a 50 14	 mov	 dl, BYTE PTR [eax+20]
  00167	84 d2		 test	 dl, dl
  00169	74 73		 je	 SHORT $LN76@LoadInt_e
  0016b	80 f2 ed	 xor	 dl, -19			; ffffffedH
  0016e	88 55 f4	 mov	 BYTE PTR __k$[ebp+20], dl
  00171	8a 50 15	 mov	 dl, BYTE PTR [eax+21]
  00174	84 d2		 test	 dl, dl
  00176	74 61		 je	 SHORT $LN75@LoadInt_e
  00178	32 d1		 xor	 dl, cl
  0017a	80 78 16 00	 cmp	 BYTE PTR [eax+22], 0
  0017e	88 55 f5	 mov	 BYTE PTR __k$[ebp+21], dl
  00181	0f 84 cb 00 00
	00		 je	 $LN1@LoadInt_e
  00187	8a 50 17	 mov	 dl, BYTE PTR [eax+23]
  0018a	84 d2		 test	 dl, dl
  0018c	74 46		 je	 SHORT $LN73@LoadInt_e
  0018e	32 d3		 xor	 dl, bl
  00190	88 55 f7	 mov	 BYTE PTR __k$[ebp+23], dl
  00193	8a 50 18	 mov	 dl, BYTE PTR [eax+24]
  00196	84 d2		 test	 dl, dl
  00198	74 34		 je	 SHORT $LN72@LoadInt_e
  0019a	80 f2 ed	 xor	 dl, -19			; ffffffedH
  0019d	88 55 f8	 mov	 BYTE PTR __k$[ebp+24], dl
  001a0	8a 50 19	 mov	 dl, BYTE PTR [eax+25]
  001a3	84 d2		 test	 dl, dl
  001a5	74 1f		 je	 SHORT $LN71@LoadInt_e
  001a7	8a 40 1a	 mov	 al, BYTE PTR [eax+26]
  001aa	32 d1		 xor	 dl, cl
  001ac	88 55 f9	 mov	 BYTE PTR __k$[ebp+25], dl
  001af	84 c0		 test	 al, al
  001b1	74 0a		 je	 SHORT $LN70@LoadInt_e
  001b3	34 eb		 xor	 al, -21			; ffffffebH
  001b5	88 45 fa	 mov	 BYTE PTR __k$[ebp+26], al
  001b8	e9 95 00 00 00	 jmp	 $LN1@LoadInt_e
$LN70@LoadInt_e:
  001bd	c6 45 fa eb	 mov	 BYTE PTR __k$[ebp+26], -21 ; ffffffebH
  001c1	e9 8c 00 00 00	 jmp	 $LN1@LoadInt_e
$LN71@LoadInt_e:
  001c6	88 4d f9	 mov	 BYTE PTR __k$[ebp+25], cl
  001c9	e9 84 00 00 00	 jmp	 $LN1@LoadInt_e
$LN72@LoadInt_e:
  001ce	c6 45 f8 ed	 mov	 BYTE PTR __k$[ebp+24], -19 ; ffffffedH
  001d2	eb 7e		 jmp	 SHORT $LN1@LoadInt_e
$LN73@LoadInt_e:
  001d4	88 5d f7	 mov	 BYTE PTR __k$[ebp+23], bl
  001d7	eb 79		 jmp	 SHORT $LN1@LoadInt_e
$LN75@LoadInt_e:
  001d9	88 4d f5	 mov	 BYTE PTR __k$[ebp+21], cl
  001dc	eb 74		 jmp	 SHORT $LN1@LoadInt_e
$LN76@LoadInt_e:
  001de	c6 45 f4 ed	 mov	 BYTE PTR __k$[ebp+20], -19 ; ffffffedH
  001e2	eb 6e		 jmp	 SHORT $LN1@LoadInt_e
$LN77@LoadInt_e:
  001e4	88 5d f3	 mov	 BYTE PTR __k$[ebp+19], bl
  001e7	eb 69		 jmp	 SHORT $LN1@LoadInt_e
$LN78@LoadInt_e:
  001e9	c6 45 f2 eb	 mov	 BYTE PTR __k$[ebp+18], -21 ; ffffffebH
  001ed	eb 63		 jmp	 SHORT $LN1@LoadInt_e
$LN79@LoadInt_e:
  001ef	88 4d f1	 mov	 BYTE PTR __k$[ebp+17], cl
  001f2	eb 5e		 jmp	 SHORT $LN1@LoadInt_e
$LN80@LoadInt_e:
  001f4	c6 45 f0 ed	 mov	 BYTE PTR __k$[ebp+16], -19 ; ffffffedH
  001f8	eb 58		 jmp	 SHORT $LN1@LoadInt_e
$LN81@LoadInt_e:
  001fa	88 5d ef	 mov	 BYTE PTR __k$[ebp+15], bl
  001fd	eb 53		 jmp	 SHORT $LN1@LoadInt_e
$LN82@LoadInt_e:
  001ff	c6 45 ee eb	 mov	 BYTE PTR __k$[ebp+14], -21 ; ffffffebH
  00203	eb 4d		 jmp	 SHORT $LN1@LoadInt_e
$LN83@LoadInt_e:
  00205	88 4d ed	 mov	 BYTE PTR __k$[ebp+13], cl
  00208	eb 48		 jmp	 SHORT $LN1@LoadInt_e
$LN84@LoadInt_e:
  0020a	c6 45 ec ed	 mov	 BYTE PTR __k$[ebp+12], -19 ; ffffffedH
  0020e	eb 42		 jmp	 SHORT $LN1@LoadInt_e
$LN85@LoadInt_e:
  00210	88 5d eb	 mov	 BYTE PTR __k$[ebp+11], bl
  00213	eb 3d		 jmp	 SHORT $LN1@LoadInt_e
$LN86@LoadInt_e:
  00215	c6 45 ea eb	 mov	 BYTE PTR __k$[ebp+10], -21 ; ffffffebH
  00219	eb 37		 jmp	 SHORT $LN1@LoadInt_e
$LN87@LoadInt_e:
  0021b	88 4d e9	 mov	 BYTE PTR __k$[ebp+9], cl
  0021e	eb 32		 jmp	 SHORT $LN1@LoadInt_e
$LN88@LoadInt_e:
  00220	c6 45 e8 ed	 mov	 BYTE PTR __k$[ebp+8], -19 ; ffffffedH
  00224	eb 2c		 jmp	 SHORT $LN1@LoadInt_e
$LN89@LoadInt_e:
  00226	88 5d e7	 mov	 BYTE PTR __k$[ebp+7], bl
  00229	eb 27		 jmp	 SHORT $LN1@LoadInt_e
$LN90@LoadInt_e:
  0022b	c6 45 e6 eb	 mov	 BYTE PTR __k$[ebp+6], -21 ; ffffffebH
  0022f	eb 21		 jmp	 SHORT $LN1@LoadInt_e
$LN91@LoadInt_e:
  00231	88 4d e5	 mov	 BYTE PTR __k$[ebp+5], cl
  00234	eb 1c		 jmp	 SHORT $LN1@LoadInt_e
$LN92@LoadInt_e:
  00236	c6 45 e4 ed	 mov	 BYTE PTR __k$[ebp+4], -19 ; ffffffedH
  0023a	eb 16		 jmp	 SHORT $LN1@LoadInt_e
$LN93@LoadInt_e:
  0023c	c6 45 e3 ea	 mov	 BYTE PTR __k$[ebp+3], -22 ; ffffffeaH
  00240	eb 10		 jmp	 SHORT $LN1@LoadInt_e
$LN94@LoadInt_e:
  00242	c6 45 e2 eb	 mov	 BYTE PTR __k$[ebp+2], -21 ; ffffffebH
  00246	eb 0a		 jmp	 SHORT $LN1@LoadInt_e
$LN95@LoadInt_e:
  00248	c6 45 e1 ec	 mov	 BYTE PTR __k$[ebp+1], -20 ; ffffffecH
  0024c	eb 04		 jmp	 SHORT $LN1@LoadInt_e
$LN96@LoadInt_e:
  0024e	c6 45 e0 ed	 mov	 BYTE PTR __k$[ebp], -19	; ffffffedH
$LN1@LoadInt_e:
  00252	6a 05		 push	 5
  00254	8d 45 e0	 lea	 eax, DWORD PTR __k$[ebp]
  00257	c6 45 f6 00	 mov	 BYTE PTR __k$[ebp+22], 0
  0025b	5a		 pop	 edx
$LL104@LoadInt_e:
  0025c	81 30 ed ec eb
	ea		 xor	 DWORD PTR [eax], -353637139 ; eaebecedH
  00262	83 c0 04	 add	 eax, 4
  00265	4a		 dec	 edx
  00266	75 f4		 jne	 SHORT $LL104@LoadInt_e
  00268	6a 14		 push	 20			; 00000014H
  0026a	58		 pop	 eax
$LL101@LoadInt_e:
  0026b	8b c8		 mov	 ecx, eax
  0026d	81 e1 03 00 00
	80		 and	 ecx, -2147483645	; 80000003H
  00273	79 05		 jns	 SHORT $LN111@LoadInt_e
  00275	49		 dec	 ecx
  00276	83 c9 fc	 or	 ecx, -4			; fffffffcH
  00279	41		 inc	 ecx
$LN111@LoadInt_e:
  0027a	b2 ed		 mov	 dl, -19			; ffffffedH
  0027c	2a d1		 sub	 dl, cl
  0027e	30 54 05 e0	 xor	 BYTE PTR __k$[ebp+eax], dl
  00282	40		 inc	 eax
  00283	83 f8 16	 cmp	 eax, 22			; 00000016H
  00286	7c e3		 jl	 SHORT $LL101@LoadInt_e

; 120  : 		return LoadInt(_k, i);

  00288	ff 75 0c	 push	 DWORD PTR _i$[ebp]
  0028b	8d 45 e0	 lea	 eax, DWORD PTR __k$[ebp]
  0028e	50		 push	 eax
  0028f	8b ce		 mov	 ecx, esi
  00291	ff 15 00 00 00
	00		 call	 DWORD PTR __imp_?LoadInt@ioINILoader@@QAEHPBDH@Z

; 121  : 	}

  00297	8b 4d fc	 mov	 ecx, DWORD PTR __$ArrayPad$[ebp]
  0029a	5e		 pop	 esi
  0029b	33 cd		 xor	 ecx, ebp
  0029d	5b		 pop	 ebx
  0029e	e8 00 00 00 00	 call	 @__security_check_cookie@4
  002a3	c9		 leave
  002a4	c2 08 00	 ret	 8
??$LoadInt_e@$0BH@@ioINILoader@@QAEHAAY0BH@$$CBDH@Z ENDP ; ioINILoader::LoadInt_e<23>
_TEXT	ENDS
PUBLIC	__$ArrayPad$
PUBLIC	??$LoadInt_e@$08@ioINILoader@@QAEHAAY08$$CBDH@Z	; ioINILoader::LoadInt_e<9>
; Function compile flags: /Ogsp
;	COMDAT ??$LoadInt_e@$08@ioINILoader@@QAEHAAY08$$CBDH@Z
_TEXT	SEGMENT
__k$ = -20						; size = 9
__$ArrayPad$ = -4					; size = 4
_k$ = 8							; size = 4
_i$ = 12						; size = 4
??$LoadInt_e@$08@ioINILoader@@QAEHAAY08$$CBDH@Z PROC	; ioINILoader::LoadInt_e<9>, COMDAT
; _this$ = ecx

; 118  : 	{

  00000	55		 push	 ebp
  00001	8b ec		 mov	 ebp, esp
  00003	83 ec 14	 sub	 esp, 20			; 00000014H
  00006	a1 00 00 00 00	 mov	 eax, DWORD PTR ___security_cookie
  0000b	33 c5		 xor	 eax, ebp
  0000d	89 45 fc	 mov	 DWORD PTR __$ArrayPad$[ebp], eax
  00010	8b 45 08	 mov	 eax, DWORD PTR _k$[ebp]

; 119  : 		_ENCSTR(k, _k);

  00013	8a 10		 mov	 dl, BYTE PTR [eax]
  00015	84 d2		 test	 dl, dl
  00017	0f 84 ee 00 00
	00		 je	 $LN96@LoadInt_e@2
  0001d	80 f2 ed	 xor	 dl, -19			; ffffffedH
  00020	88 55 ec	 mov	 BYTE PTR __k$[ebp], dl
  00023	8a 50 01	 mov	 dl, BYTE PTR [eax+1]
  00026	84 d2		 test	 dl, dl
  00028	0f 84 d7 00 00
	00		 je	 $LN95@LoadInt_e@2
  0002e	80 f2 ec	 xor	 dl, -20			; ffffffecH
  00031	88 55 ed	 mov	 BYTE PTR __k$[ebp+1], dl
  00034	8a 50 02	 mov	 dl, BYTE PTR [eax+2]
  00037	84 d2		 test	 dl, dl
  00039	0f 84 c0 00 00
	00		 je	 $LN94@LoadInt_e@2
  0003f	80 f2 eb	 xor	 dl, -21			; ffffffebH
  00042	88 55 ee	 mov	 BYTE PTR __k$[ebp+2], dl
  00045	8a 50 03	 mov	 dl, BYTE PTR [eax+3]
  00048	84 d2		 test	 dl, dl
  0004a	0f 84 a9 00 00
	00		 je	 $LN93@LoadInt_e@2
  00050	80 f2 ea	 xor	 dl, -22			; ffffffeaH
  00053	88 55 ef	 mov	 BYTE PTR __k$[ebp+3], dl
  00056	8a 50 04	 mov	 dl, BYTE PTR [eax+4]
  00059	84 d2		 test	 dl, dl
  0005b	0f 84 92 00 00
	00		 je	 $LN92@LoadInt_e@2
  00061	80 f2 ed	 xor	 dl, -19			; ffffffedH
  00064	88 55 f0	 mov	 BYTE PTR __k$[ebp+4], dl
  00067	8a 50 05	 mov	 dl, BYTE PTR [eax+5]
  0006a	84 d2		 test	 dl, dl
  0006c	74 7f		 je	 SHORT $LN91@LoadInt_e@2
  0006e	80 f2 ec	 xor	 dl, -20			; ffffffecH
  00071	88 55 f1	 mov	 BYTE PTR __k$[ebp+5], dl
  00074	8a 50 06	 mov	 dl, BYTE PTR [eax+6]
  00077	84 d2		 test	 dl, dl
  00079	74 6c		 je	 SHORT $LN90@LoadInt_e@2
  0007b	80 f2 eb	 xor	 dl, -21			; ffffffebH
  0007e	88 55 f2	 mov	 BYTE PTR __k$[ebp+6], dl
  00081	8a 50 07	 mov	 dl, BYTE PTR [eax+7]
  00084	84 d2		 test	 dl, dl
  00086	74 59		 je	 SHORT $LN89@LoadInt_e@2
  00088	80 f2 ea	 xor	 dl, -22			; ffffffeaH
  0008b	80 78 08 00	 cmp	 BYTE PTR [eax+8], 0
  0008f	88 55 f3	 mov	 BYTE PTR __k$[ebp+7], dl
  00092	74 7b		 je	 SHORT $LN1@LoadInt_e@2
  00094	8a 50 09	 mov	 dl, BYTE PTR [eax+9]
  00097	84 d2		 test	 dl, dl
  00099	74 40		 je	 SHORT $LN87@LoadInt_e@2
  0009b	80 f2 ec	 xor	 dl, -20			; ffffffecH
  0009e	88 55 f5	 mov	 BYTE PTR __k$[ebp+9], dl
  000a1	8a 50 0a	 mov	 dl, BYTE PTR [eax+10]
  000a4	84 d2		 test	 dl, dl
  000a6	74 2d		 je	 SHORT $LN86@LoadInt_e@2
  000a8	80 f2 eb	 xor	 dl, -21			; ffffffebH
  000ab	88 55 f6	 mov	 BYTE PTR __k$[ebp+10], dl
  000ae	8a 50 0b	 mov	 dl, BYTE PTR [eax+11]
  000b1	84 d2		 test	 dl, dl
  000b3	74 1a		 je	 SHORT $LN85@LoadInt_e@2
  000b5	8a 40 0c	 mov	 al, BYTE PTR [eax+12]
  000b8	80 f2 ea	 xor	 dl, -22			; ffffffeaH
  000bb	88 55 f7	 mov	 BYTE PTR __k$[ebp+11], dl
  000be	84 c0		 test	 al, al
  000c0	74 07		 je	 SHORT $LN84@LoadInt_e@2
  000c2	34 ed		 xor	 al, -19			; ffffffedH
  000c4	88 45 f8	 mov	 BYTE PTR __k$[ebp+12], al
  000c7	eb 46		 jmp	 SHORT $LN1@LoadInt_e@2
$LN84@LoadInt_e@2:
  000c9	c6 45 f8 ed	 mov	 BYTE PTR __k$[ebp+12], -19 ; ffffffedH
  000cd	eb 40		 jmp	 SHORT $LN1@LoadInt_e@2
$LN85@LoadInt_e@2:
  000cf	c6 45 f7 ea	 mov	 BYTE PTR __k$[ebp+11], -22 ; ffffffeaH
  000d3	eb 3a		 jmp	 SHORT $LN1@LoadInt_e@2
$LN86@LoadInt_e@2:
  000d5	c6 45 f6 eb	 mov	 BYTE PTR __k$[ebp+10], -21 ; ffffffebH
  000d9	eb 34		 jmp	 SHORT $LN1@LoadInt_e@2
$LN87@LoadInt_e@2:
  000db	c6 45 f5 ec	 mov	 BYTE PTR __k$[ebp+9], -20 ; ffffffecH
  000df	eb 2e		 jmp	 SHORT $LN1@LoadInt_e@2
$LN89@LoadInt_e@2:
  000e1	c6 45 f3 ea	 mov	 BYTE PTR __k$[ebp+7], -22 ; ffffffeaH
  000e5	eb 28		 jmp	 SHORT $LN1@LoadInt_e@2
$LN90@LoadInt_e@2:
  000e7	c6 45 f2 eb	 mov	 BYTE PTR __k$[ebp+6], -21 ; ffffffebH
  000eb	eb 22		 jmp	 SHORT $LN1@LoadInt_e@2
$LN91@LoadInt_e@2:
  000ed	c6 45 f1 ec	 mov	 BYTE PTR __k$[ebp+5], -20 ; ffffffecH
  000f1	eb 1c		 jmp	 SHORT $LN1@LoadInt_e@2
$LN92@LoadInt_e@2:
  000f3	c6 45 f0 ed	 mov	 BYTE PTR __k$[ebp+4], -19 ; ffffffedH
  000f7	eb 16		 jmp	 SHORT $LN1@LoadInt_e@2
$LN93@LoadInt_e@2:
  000f9	c6 45 ef ea	 mov	 BYTE PTR __k$[ebp+3], -22 ; ffffffeaH
  000fd	eb 10		 jmp	 SHORT $LN1@LoadInt_e@2
$LN94@LoadInt_e@2:
  000ff	c6 45 ee eb	 mov	 BYTE PTR __k$[ebp+2], -21 ; ffffffebH
  00103	eb 0a		 jmp	 SHORT $LN1@LoadInt_e@2
$LN95@LoadInt_e@2:
  00105	c6 45 ed ec	 mov	 BYTE PTR __k$[ebp+1], -20 ; ffffffecH
  00109	eb 04		 jmp	 SHORT $LN1@LoadInt_e@2
$LN96@LoadInt_e@2:
  0010b	c6 45 ec ed	 mov	 BYTE PTR __k$[ebp], -19	; ffffffedH
$LN1@LoadInt_e@2:
  0010f	6a 02		 push	 2
  00111	8d 45 ec	 lea	 eax, DWORD PTR __k$[ebp]
  00114	c6 45 f4 00	 mov	 BYTE PTR __k$[ebp+8], 0
  00118	5a		 pop	 edx
$LL104@LoadInt_e@2:
  00119	81 30 ed ec eb
	ea		 xor	 DWORD PTR [eax], -353637139 ; eaebecedH
  0011f	83 c0 04	 add	 eax, 4
  00122	4a		 dec	 edx
  00123	75 f4		 jne	 SHORT $LL104@LoadInt_e@2

; 120  : 		return LoadInt(_k, i);

  00125	ff 75 0c	 push	 DWORD PTR _i$[ebp]
  00128	8d 45 ec	 lea	 eax, DWORD PTR __k$[ebp]
  0012b	50		 push	 eax
  0012c	ff 15 00 00 00
	00		 call	 DWORD PTR __imp_?LoadInt@ioINILoader@@QAEHPBDH@Z

; 121  : 	}

  00132	8b 4d fc	 mov	 ecx, DWORD PTR __$ArrayPad$[ebp]
  00135	33 cd		 xor	 ecx, ebp
  00137	e8 00 00 00 00	 call	 @__security_check_cookie@4
  0013c	c9		 leave
  0013d	c2 08 00	 ret	 8
??$LoadInt_e@$08@ioINILoader@@QAEHAAY08$$CBDH@Z ENDP	; ioINILoader::LoadInt_e<9>
_TEXT	ENDS
PUBLIC	__$ArrayPad$
PUBLIC	??$LoadString_e@$08@ioINILoader@@QAEXAAY08$$CBDAAY00$$CBDPADH@Z ; ioINILoader::LoadString_e<9>
EXTRN	__imp_?LoadStringA@ioINILoader@@QAEXPBD0PADH@Z:PROC
; Function compile flags: /Ogsp
;	COMDAT ??$LoadString_e@$08@ioINILoader@@QAEXAAY08$$CBDAAY00$$CBDPADH@Z
_TEXT	SEGMENT
__k$ = -20						; size = 9
__$ArrayPad$ = -4					; size = 4
_k$ = 8							; size = 4
_d$ = 12						; size = 4
_b$ = 16						; size = 4
_i$ = 20						; size = 4
??$LoadString_e@$08@ioINILoader@@QAEXAAY08$$CBDAAY00$$CBDPADH@Z PROC ; ioINILoader::LoadString_e<9>, COMDAT
; _this$ = ecx

; 161  : 	{

  00000	55		 push	 ebp
  00001	8b ec		 mov	 ebp, esp
  00003	83 ec 14	 sub	 esp, 20			; 00000014H
  00006	a1 00 00 00 00	 mov	 eax, DWORD PTR ___security_cookie
  0000b	33 c5		 xor	 eax, ebp
  0000d	89 45 fc	 mov	 DWORD PTR __$ArrayPad$[ebp], eax
  00010	8b 45 08	 mov	 eax, DWORD PTR _k$[ebp]

; 162  : 		_ENCSTR(k, _k);

  00013	8a 10		 mov	 dl, BYTE PTR [eax]
  00015	56		 push	 esi
  00016	8b 75 0c	 mov	 esi, DWORD PTR _d$[ebp]
  00019	57		 push	 edi
  0001a	8b 7d 10	 mov	 edi, DWORD PTR _b$[ebp]
  0001d	84 d2		 test	 dl, dl
  0001f	0f 84 ee 00 00
	00		 je	 $LN96@LoadString
  00025	80 f2 ed	 xor	 dl, -19			; ffffffedH
  00028	88 55 ec	 mov	 BYTE PTR __k$[ebp], dl
  0002b	8a 50 01	 mov	 dl, BYTE PTR [eax+1]
  0002e	84 d2		 test	 dl, dl
  00030	0f 84 d7 00 00
	00		 je	 $LN95@LoadString
  00036	80 f2 ec	 xor	 dl, -20			; ffffffecH
  00039	88 55 ed	 mov	 BYTE PTR __k$[ebp+1], dl
  0003c	8a 50 02	 mov	 dl, BYTE PTR [eax+2]
  0003f	84 d2		 test	 dl, dl
  00041	0f 84 c0 00 00
	00		 je	 $LN94@LoadString
  00047	80 f2 eb	 xor	 dl, -21			; ffffffebH
  0004a	88 55 ee	 mov	 BYTE PTR __k$[ebp+2], dl
  0004d	8a 50 03	 mov	 dl, BYTE PTR [eax+3]
  00050	84 d2		 test	 dl, dl
  00052	0f 84 a9 00 00
	00		 je	 $LN93@LoadString
  00058	80 f2 ea	 xor	 dl, -22			; ffffffeaH
  0005b	88 55 ef	 mov	 BYTE PTR __k$[ebp+3], dl
  0005e	8a 50 04	 mov	 dl, BYTE PTR [eax+4]
  00061	84 d2		 test	 dl, dl
  00063	0f 84 92 00 00
	00		 je	 $LN92@LoadString
  00069	80 f2 ed	 xor	 dl, -19			; ffffffedH
  0006c	88 55 f0	 mov	 BYTE PTR __k$[ebp+4], dl
  0006f	8a 50 05	 mov	 dl, BYTE PTR [eax+5]
  00072	84 d2		 test	 dl, dl
  00074	74 7f		 je	 SHORT $LN91@LoadString
  00076	80 f2 ec	 xor	 dl, -20			; ffffffecH
  00079	88 55 f1	 mov	 BYTE PTR __k$[ebp+5], dl
  0007c	8a 50 06	 mov	 dl, BYTE PTR [eax+6]
  0007f	84 d2		 test	 dl, dl
  00081	74 6c		 je	 SHORT $LN90@LoadString
  00083	80 f2 eb	 xor	 dl, -21			; ffffffebH
  00086	88 55 f2	 mov	 BYTE PTR __k$[ebp+6], dl
  00089	8a 50 07	 mov	 dl, BYTE PTR [eax+7]
  0008c	84 d2		 test	 dl, dl
  0008e	74 59		 je	 SHORT $LN89@LoadString
  00090	80 f2 ea	 xor	 dl, -22			; ffffffeaH
  00093	80 78 08 00	 cmp	 BYTE PTR [eax+8], 0
  00097	88 55 f3	 mov	 BYTE PTR __k$[ebp+7], dl
  0009a	74 7b		 je	 SHORT $LN1@LoadString
  0009c	8a 50 09	 mov	 dl, BYTE PTR [eax+9]
  0009f	84 d2		 test	 dl, dl
  000a1	74 40		 je	 SHORT $LN87@LoadString
  000a3	80 f2 ec	 xor	 dl, -20			; ffffffecH
  000a6	88 55 f5	 mov	 BYTE PTR __k$[ebp+9], dl
  000a9	8a 50 0a	 mov	 dl, BYTE PTR [eax+10]
  000ac	84 d2		 test	 dl, dl
  000ae	74 2d		 je	 SHORT $LN86@LoadString
  000b0	80 f2 eb	 xor	 dl, -21			; ffffffebH
  000b3	88 55 f6	 mov	 BYTE PTR __k$[ebp+10], dl
  000b6	8a 50 0b	 mov	 dl, BYTE PTR [eax+11]
  000b9	84 d2		 test	 dl, dl
  000bb	74 1a		 je	 SHORT $LN85@LoadString
  000bd	8a 40 0c	 mov	 al, BYTE PTR [eax+12]
  000c0	80 f2 ea	 xor	 dl, -22			; ffffffeaH
  000c3	88 55 f7	 mov	 BYTE PTR __k$[ebp+11], dl
  000c6	84 c0		 test	 al, al
  000c8	74 07		 je	 SHORT $LN84@LoadString
  000ca	34 ed		 xor	 al, -19			; ffffffedH
  000cc	88 45 f8	 mov	 BYTE PTR __k$[ebp+12], al
  000cf	eb 46		 jmp	 SHORT $LN1@LoadString
$LN84@LoadString:
  000d1	c6 45 f8 ed	 mov	 BYTE PTR __k$[ebp+12], -19 ; ffffffedH
  000d5	eb 40		 jmp	 SHORT $LN1@LoadString
$LN85@LoadString:
  000d7	c6 45 f7 ea	 mov	 BYTE PTR __k$[ebp+11], -22 ; ffffffeaH
  000db	eb 3a		 jmp	 SHORT $LN1@LoadString
$LN86@LoadString:
  000dd	c6 45 f6 eb	 mov	 BYTE PTR __k$[ebp+10], -21 ; ffffffebH
  000e1	eb 34		 jmp	 SHORT $LN1@LoadString
$LN87@LoadString:
  000e3	c6 45 f5 ec	 mov	 BYTE PTR __k$[ebp+9], -20 ; ffffffecH
  000e7	eb 2e		 jmp	 SHORT $LN1@LoadString
$LN89@LoadString:
  000e9	c6 45 f3 ea	 mov	 BYTE PTR __k$[ebp+7], -22 ; ffffffeaH
  000ed	eb 28		 jmp	 SHORT $LN1@LoadString
$LN90@LoadString:
  000ef	c6 45 f2 eb	 mov	 BYTE PTR __k$[ebp+6], -21 ; ffffffebH
  000f3	eb 22		 jmp	 SHORT $LN1@LoadString
$LN91@LoadString:
  000f5	c6 45 f1 ec	 mov	 BYTE PTR __k$[ebp+5], -20 ; ffffffecH
  000f9	eb 1c		 jmp	 SHORT $LN1@LoadString
$LN92@LoadString:
  000fb	c6 45 f0 ed	 mov	 BYTE PTR __k$[ebp+4], -19 ; ffffffedH
  000ff	eb 16		 jmp	 SHORT $LN1@LoadString
$LN93@LoadString:
  00101	c6 45 ef ea	 mov	 BYTE PTR __k$[ebp+3], -22 ; ffffffeaH
  00105	eb 10		 jmp	 SHORT $LN1@LoadString
$LN94@LoadString:
  00107	c6 45 ee eb	 mov	 BYTE PTR __k$[ebp+2], -21 ; ffffffebH
  0010b	eb 0a		 jmp	 SHORT $LN1@LoadString
$LN95@LoadString:
  0010d	c6 45 ed ec	 mov	 BYTE PTR __k$[ebp+1], -20 ; ffffffecH
  00111	eb 04		 jmp	 SHORT $LN1@LoadString
$LN96@LoadString:
  00113	c6 45 ec ed	 mov	 BYTE PTR __k$[ebp], -19	; ffffffedH
$LN1@LoadString:
  00117	6a 02		 push	 2
  00119	8d 45 ec	 lea	 eax, DWORD PTR __k$[ebp]
  0011c	c6 45 f4 00	 mov	 BYTE PTR __k$[ebp+8], 0
  00120	5a		 pop	 edx
$LL104@LoadString:
  00121	81 30 ed ec eb
	ea		 xor	 DWORD PTR [eax], -353637139 ; eaebecedH
  00127	83 c0 04	 add	 eax, 4
  0012a	4a		 dec	 edx
  0012b	75 f4		 jne	 SHORT $LL104@LoadString

; 163  : 		LoadString(_k, d, b, i);

  0012d	ff 75 14	 push	 DWORD PTR _i$[ebp]
  00130	8d 45 ec	 lea	 eax, DWORD PTR __k$[ebp]
  00133	57		 push	 edi
  00134	56		 push	 esi
  00135	50		 push	 eax
  00136	ff 15 00 00 00
	00		 call	 DWORD PTR __imp_?LoadStringA@ioINILoader@@QAEXPBD0PADH@Z

; 164  : 	}

  0013c	8b 4d fc	 mov	 ecx, DWORD PTR __$ArrayPad$[ebp]
  0013f	5f		 pop	 edi
  00140	33 cd		 xor	 ecx, ebp
  00142	5e		 pop	 esi
  00143	e8 00 00 00 00	 call	 @__security_check_cookie@4
  00148	c9		 leave
  00149	c2 10 00	 ret	 16			; 00000010H
??$LoadString_e@$08@ioINILoader@@QAEXAAY08$$CBDAAY00$$CBDPADH@Z ENDP ; ioINILoader::LoadString_e<9>
_TEXT	ENDS
PUBLIC	__$ArrayPad$
PUBLIC	??$SetTitle_e@$06@ioINILoader@@QAEXAAY06$$CBD@Z	; ioINILoader::SetTitle_e<7>
; Function compile flags: /Ogsp
;	COMDAT ??$SetTitle_e@$06@ioINILoader@@QAEXAAY06$$CBD@Z
_TEXT	SEGMENT
__t$ = -16						; size = 7
__$ArrayPad$ = -4					; size = 4
_t$ = 8							; size = 4
??$SetTitle_e@$06@ioINILoader@@QAEXAAY06$$CBD@Z PROC	; ioINILoader::SetTitle_e<7>, COMDAT
; _this$ = ecx

; 188  : 	{

  00000	55		 push	 ebp
  00001	8b ec		 mov	 ebp, esp
  00003	83 ec 10	 sub	 esp, 16			; 00000010H
  00006	a1 00 00 00 00	 mov	 eax, DWORD PTR ___security_cookie
  0000b	33 c5		 xor	 eax, ebp
  0000d	89 45 fc	 mov	 DWORD PTR __$ArrayPad$[ebp], eax
  00010	8b 45 08	 mov	 eax, DWORD PTR _t$[ebp]

; 189  : 		_ENCSTR(t, _t);

  00013	8a 10		 mov	 dl, BYTE PTR [eax]
  00015	56		 push	 esi
  00016	8b f1		 mov	 esi, ecx
  00018	84 d2		 test	 dl, dl
  0001a	0f 84 c0 00 00
	00		 je	 $LN96@SetTitle_e@2
  00020	80 f2 ed	 xor	 dl, -19			; ffffffedH
  00023	88 55 f0	 mov	 BYTE PTR __t$[ebp], dl
  00026	8a 50 01	 mov	 dl, BYTE PTR [eax+1]
  00029	84 d2		 test	 dl, dl
  0002b	0f 84 a9 00 00
	00		 je	 $LN95@SetTitle_e@2
  00031	80 f2 ec	 xor	 dl, -20			; ffffffecH
  00034	88 55 f1	 mov	 BYTE PTR __t$[ebp+1], dl
  00037	8a 50 02	 mov	 dl, BYTE PTR [eax+2]
  0003a	84 d2		 test	 dl, dl
  0003c	0f 84 92 00 00
	00		 je	 $LN94@SetTitle_e@2
  00042	80 f2 eb	 xor	 dl, -21			; ffffffebH
  00045	88 55 f2	 mov	 BYTE PTR __t$[ebp+2], dl
  00048	8a 50 03	 mov	 dl, BYTE PTR [eax+3]
  0004b	84 d2		 test	 dl, dl
  0004d	74 7f		 je	 SHORT $LN93@SetTitle_e@2
  0004f	80 f2 ea	 xor	 dl, -22			; ffffffeaH
  00052	88 55 f3	 mov	 BYTE PTR __t$[ebp+3], dl
  00055	8a 50 04	 mov	 dl, BYTE PTR [eax+4]
  00058	84 d2		 test	 dl, dl
  0005a	74 6c		 je	 SHORT $LN92@SetTitle_e@2
  0005c	80 f2 ed	 xor	 dl, -19			; ffffffedH
  0005f	88 55 f4	 mov	 BYTE PTR __t$[ebp+4], dl
  00062	8a 50 05	 mov	 dl, BYTE PTR [eax+5]
  00065	84 d2		 test	 dl, dl
  00067	74 59		 je	 SHORT $LN91@SetTitle_e@2
  00069	80 f2 ec	 xor	 dl, -20			; ffffffecH
  0006c	80 78 06 00	 cmp	 BYTE PTR [eax+6], 0
  00070	88 55 f5	 mov	 BYTE PTR __t$[ebp+5], dl
  00073	74 6f		 je	 SHORT $LN1@SetTitle_e@2
  00075	8a 50 07	 mov	 dl, BYTE PTR [eax+7]
  00078	84 d2		 test	 dl, dl
  0007a	74 40		 je	 SHORT $LN89@SetTitle_e@2
  0007c	80 f2 ea	 xor	 dl, -22			; ffffffeaH
  0007f	88 55 f7	 mov	 BYTE PTR __t$[ebp+7], dl
  00082	8a 50 08	 mov	 dl, BYTE PTR [eax+8]
  00085	84 d2		 test	 dl, dl
  00087	74 2d		 je	 SHORT $LN88@SetTitle_e@2
  00089	80 f2 ed	 xor	 dl, -19			; ffffffedH
  0008c	88 55 f8	 mov	 BYTE PTR __t$[ebp+8], dl
  0008f	8a 50 09	 mov	 dl, BYTE PTR [eax+9]
  00092	84 d2		 test	 dl, dl
  00094	74 1a		 je	 SHORT $LN87@SetTitle_e@2
  00096	8a 40 0a	 mov	 al, BYTE PTR [eax+10]
  00099	80 f2 ec	 xor	 dl, -20			; ffffffecH
  0009c	88 55 f9	 mov	 BYTE PTR __t$[ebp+9], dl
  0009f	84 c0		 test	 al, al
  000a1	74 07		 je	 SHORT $LN86@SetTitle_e@2
  000a3	34 eb		 xor	 al, -21			; ffffffebH
  000a5	88 45 fa	 mov	 BYTE PTR __t$[ebp+10], al
  000a8	eb 3a		 jmp	 SHORT $LN1@SetTitle_e@2
$LN86@SetTitle_e@2:
  000aa	c6 45 fa eb	 mov	 BYTE PTR __t$[ebp+10], -21 ; ffffffebH
  000ae	eb 34		 jmp	 SHORT $LN1@SetTitle_e@2
$LN87@SetTitle_e@2:
  000b0	c6 45 f9 ec	 mov	 BYTE PTR __t$[ebp+9], -20 ; ffffffecH
  000b4	eb 2e		 jmp	 SHORT $LN1@SetTitle_e@2
$LN88@SetTitle_e@2:
  000b6	c6 45 f8 ed	 mov	 BYTE PTR __t$[ebp+8], -19 ; ffffffedH
  000ba	eb 28		 jmp	 SHORT $LN1@SetTitle_e@2
$LN89@SetTitle_e@2:
  000bc	c6 45 f7 ea	 mov	 BYTE PTR __t$[ebp+7], -22 ; ffffffeaH
  000c0	eb 22		 jmp	 SHORT $LN1@SetTitle_e@2
$LN91@SetTitle_e@2:
  000c2	c6 45 f5 ec	 mov	 BYTE PTR __t$[ebp+5], -20 ; ffffffecH
  000c6	eb 1c		 jmp	 SHORT $LN1@SetTitle_e@2
$LN92@SetTitle_e@2:
  000c8	c6 45 f4 ed	 mov	 BYTE PTR __t$[ebp+4], -19 ; ffffffedH
  000cc	eb 16		 jmp	 SHORT $LN1@SetTitle_e@2
$LN93@SetTitle_e@2:
  000ce	c6 45 f3 ea	 mov	 BYTE PTR __t$[ebp+3], -22 ; ffffffeaH
  000d2	eb 10		 jmp	 SHORT $LN1@SetTitle_e@2
$LN94@SetTitle_e@2:
  000d4	c6 45 f2 eb	 mov	 BYTE PTR __t$[ebp+2], -21 ; ffffffebH
  000d8	eb 0a		 jmp	 SHORT $LN1@SetTitle_e@2
$LN95@SetTitle_e@2:
  000da	c6 45 f1 ec	 mov	 BYTE PTR __t$[ebp+1], -20 ; ffffffecH
  000de	eb 04		 jmp	 SHORT $LN1@SetTitle_e@2
$LN96@SetTitle_e@2:
  000e0	c6 45 f0 ed	 mov	 BYTE PTR __t$[ebp], -19	; ffffffedH
$LN1@SetTitle_e@2:
  000e4	81 75 f0 ed ec
	eb ea		 xor	 DWORD PTR __t$[ebp], -353637139 ; eaebecedH
  000eb	6a 04		 push	 4
  000ed	c6 45 f6 00	 mov	 BYTE PTR __t$[ebp+6], 0
  000f1	58		 pop	 eax
$LL101@SetTitle_e@2:
  000f2	8b c8		 mov	 ecx, eax
  000f4	81 e1 03 00 00
	80		 and	 ecx, -2147483645	; 80000003H
  000fa	79 05		 jns	 SHORT $LN111@SetTitle_e@2
  000fc	49		 dec	 ecx
  000fd	83 c9 fc	 or	 ecx, -4			; fffffffcH
  00100	41		 inc	 ecx
$LN111@SetTitle_e@2:
  00101	b2 ed		 mov	 dl, -19			; ffffffedH
  00103	2a d1		 sub	 dl, cl
  00105	30 54 05 f0	 xor	 BYTE PTR __t$[ebp+eax], dl
  00109	40		 inc	 eax
  0010a	83 f8 06	 cmp	 eax, 6
  0010d	7c e3		 jl	 SHORT $LL101@SetTitle_e@2

; 190  : 		SetTitle(_t);

  0010f	8d 45 f0	 lea	 eax, DWORD PTR __t$[ebp]
  00112	50		 push	 eax
  00113	8b ce		 mov	 ecx, esi
  00115	ff 15 00 00 00
	00		 call	 DWORD PTR __imp_?SetTitle@ioINILoader@@QAEXPBD@Z

; 191  : 	}

  0011b	8b 4d fc	 mov	 ecx, DWORD PTR __$ArrayPad$[ebp]
  0011e	33 cd		 xor	 ecx, ebp
  00120	5e		 pop	 esi
  00121	e8 00 00 00 00	 call	 @__security_check_cookie@4
  00126	c9		 leave
  00127	c2 04 00	 ret	 4
??$SetTitle_e@$06@ioINILoader@@QAEXAAY06$$CBD@Z ENDP	; ioINILoader::SetTitle_e<7>
_TEXT	ENDS
PUBLIC	__$ArrayPad$
PUBLIC	??$LoadInt_e@$0BD@@ioINILoader@@QAEHAAY0BD@$$CBDH@Z ; ioINILoader::LoadInt_e<19>
; Function compile flags: /Ogsp
;	COMDAT ??$LoadInt_e@$0BD@@ioINILoader@@QAEHAAY0BD@$$CBDH@Z
_TEXT	SEGMENT
__k$ = -28						; size = 19
__$ArrayPad$ = -4					; size = 4
_k$ = 8							; size = 4
_i$ = 12						; size = 4
??$LoadInt_e@$0BD@@ioINILoader@@QAEHAAY0BD@$$CBDH@Z PROC ; ioINILoader::LoadInt_e<19>, COMDAT
; _this$ = ecx

; 118  : 	{

  00000	55		 push	 ebp
  00001	8b ec		 mov	 ebp, esp
  00003	83 ec 1c	 sub	 esp, 28			; 0000001cH
  00006	a1 00 00 00 00	 mov	 eax, DWORD PTR ___security_cookie
  0000b	33 c5		 xor	 eax, ebp
  0000d	89 45 fc	 mov	 DWORD PTR __$ArrayPad$[ebp], eax
  00010	8b 45 08	 mov	 eax, DWORD PTR _k$[ebp]

; 119  : 		_ENCSTR(k, _k);

  00013	8a 10		 mov	 dl, BYTE PTR [eax]
  00015	56		 push	 esi
  00016	8b f1		 mov	 esi, ecx
  00018	84 d2		 test	 dl, dl
  0001a	0f 84 cf 01 00
	00		 je	 $LN96@LoadInt_e@3
  00020	80 f2 ed	 xor	 dl, -19			; ffffffedH
  00023	88 55 e4	 mov	 BYTE PTR __k$[ebp], dl
  00026	8a 50 01	 mov	 dl, BYTE PTR [eax+1]
  00029	84 d2		 test	 dl, dl
  0002b	0f 84 b8 01 00
	00		 je	 $LN95@LoadInt_e@3
  00031	b1 ec		 mov	 cl, -20			; ffffffecH
  00033	32 d1		 xor	 dl, cl
  00035	88 55 e5	 mov	 BYTE PTR __k$[ebp+1], dl
  00038	8a 50 02	 mov	 dl, BYTE PTR [eax+2]
  0003b	84 d2		 test	 dl, dl
  0003d	0f 84 a0 01 00
	00		 je	 $LN94@LoadInt_e@3
  00043	80 f2 eb	 xor	 dl, -21			; ffffffebH
  00046	88 55 e6	 mov	 BYTE PTR __k$[ebp+2], dl
  00049	8a 50 03	 mov	 dl, BYTE PTR [eax+3]
  0004c	84 d2		 test	 dl, dl
  0004e	0f 84 89 01 00
	00		 je	 $LN93@LoadInt_e@3
  00054	80 f2 ea	 xor	 dl, -22			; ffffffeaH
  00057	88 55 e7	 mov	 BYTE PTR __k$[ebp+3], dl
  0005a	8a 50 04	 mov	 dl, BYTE PTR [eax+4]
  0005d	84 d2		 test	 dl, dl
  0005f	0f 84 72 01 00
	00		 je	 $LN92@LoadInt_e@3
  00065	80 f2 ed	 xor	 dl, -19			; ffffffedH
  00068	88 55 e8	 mov	 BYTE PTR __k$[ebp+4], dl
  0006b	8a 50 05	 mov	 dl, BYTE PTR [eax+5]
  0006e	84 d2		 test	 dl, dl
  00070	0f 84 5c 01 00
	00		 je	 $LN91@LoadInt_e@3
  00076	32 d1		 xor	 dl, cl
  00078	88 55 e9	 mov	 BYTE PTR __k$[ebp+5], dl
  0007b	8a 50 06	 mov	 dl, BYTE PTR [eax+6]
  0007e	84 d2		 test	 dl, dl
  00080	0f 84 46 01 00
	00		 je	 $LN90@LoadInt_e@3
  00086	80 f2 eb	 xor	 dl, -21			; ffffffebH
  00089	88 55 ea	 mov	 BYTE PTR __k$[ebp+6], dl
  0008c	8a 50 07	 mov	 dl, BYTE PTR [eax+7]
  0008f	84 d2		 test	 dl, dl
  00091	0f 84 2f 01 00
	00		 je	 $LN89@LoadInt_e@3
  00097	80 f2 ea	 xor	 dl, -22			; ffffffeaH
  0009a	88 55 eb	 mov	 BYTE PTR __k$[ebp+7], dl
  0009d	8a 50 08	 mov	 dl, BYTE PTR [eax+8]
  000a0	84 d2		 test	 dl, dl
  000a2	0f 84 18 01 00
	00		 je	 $LN88@LoadInt_e@3
  000a8	80 f2 ed	 xor	 dl, -19			; ffffffedH
  000ab	88 55 ec	 mov	 BYTE PTR __k$[ebp+8], dl
  000ae	8a 50 09	 mov	 dl, BYTE PTR [eax+9]
  000b1	84 d2		 test	 dl, dl
  000b3	0f 84 02 01 00
	00		 je	 $LN87@LoadInt_e@3
  000b9	32 d1		 xor	 dl, cl
  000bb	88 55 ed	 mov	 BYTE PTR __k$[ebp+9], dl
  000be	8a 50 0a	 mov	 dl, BYTE PTR [eax+10]
  000c1	84 d2		 test	 dl, dl
  000c3	0f 84 ec 00 00
	00		 je	 $LN86@LoadInt_e@3
  000c9	80 f2 eb	 xor	 dl, -21			; ffffffebH
  000cc	88 55 ee	 mov	 BYTE PTR __k$[ebp+10], dl
  000cf	8a 50 0b	 mov	 dl, BYTE PTR [eax+11]
  000d2	84 d2		 test	 dl, dl
  000d4	0f 84 d5 00 00
	00		 je	 $LN85@LoadInt_e@3
  000da	80 f2 ea	 xor	 dl, -22			; ffffffeaH
  000dd	88 55 ef	 mov	 BYTE PTR __k$[ebp+11], dl
  000e0	8a 50 0c	 mov	 dl, BYTE PTR [eax+12]
  000e3	84 d2		 test	 dl, dl
  000e5	0f 84 be 00 00
	00		 je	 $LN84@LoadInt_e@3
  000eb	80 f2 ed	 xor	 dl, -19			; ffffffedH
  000ee	88 55 f0	 mov	 BYTE PTR __k$[ebp+12], dl
  000f1	8a 50 0d	 mov	 dl, BYTE PTR [eax+13]
  000f4	84 d2		 test	 dl, dl
  000f6	0f 84 a8 00 00
	00		 je	 $LN83@LoadInt_e@3
  000fc	32 d1		 xor	 dl, cl
  000fe	88 55 f1	 mov	 BYTE PTR __k$[ebp+13], dl
  00101	8a 50 0e	 mov	 dl, BYTE PTR [eax+14]
  00104	84 d2		 test	 dl, dl
  00106	0f 84 92 00 00
	00		 je	 $LN82@LoadInt_e@3
  0010c	80 f2 eb	 xor	 dl, -21			; ffffffebH
  0010f	88 55 f2	 mov	 BYTE PTR __k$[ebp+14], dl
  00112	8a 50 0f	 mov	 dl, BYTE PTR [eax+15]
  00115	84 d2		 test	 dl, dl
  00117	74 7f		 je	 SHORT $LN81@LoadInt_e@3
  00119	80 f2 ea	 xor	 dl, -22			; ffffffeaH
  0011c	88 55 f3	 mov	 BYTE PTR __k$[ebp+15], dl
  0011f	8a 50 10	 mov	 dl, BYTE PTR [eax+16]
  00122	84 d2		 test	 dl, dl
  00124	74 6c		 je	 SHORT $LN80@LoadInt_e@3
  00126	80 f2 ed	 xor	 dl, -19			; ffffffedH
  00129	88 55 f4	 mov	 BYTE PTR __k$[ebp+16], dl
  0012c	8a 50 11	 mov	 dl, BYTE PTR [eax+17]
  0012f	84 d2		 test	 dl, dl
  00131	74 5a		 je	 SHORT $LN79@LoadInt_e@3
  00133	32 d1		 xor	 dl, cl
  00135	80 78 12 00	 cmp	 BYTE PTR [eax+18], 0
  00139	88 55 f5	 mov	 BYTE PTR __k$[ebp+17], dl
  0013c	0f 84 b1 00 00
	00		 je	 $LN1@LoadInt_e@3
  00142	8a 50 13	 mov	 dl, BYTE PTR [eax+19]
  00145	84 d2		 test	 dl, dl
  00147	74 3e		 je	 SHORT $LN77@LoadInt_e@3
  00149	80 f2 ea	 xor	 dl, -22			; ffffffeaH
  0014c	88 55 f7	 mov	 BYTE PTR __k$[ebp+19], dl
  0014f	8a 50 14	 mov	 dl, BYTE PTR [eax+20]
  00152	84 d2		 test	 dl, dl
  00154	74 2b		 je	 SHORT $LN76@LoadInt_e@3
  00156	80 f2 ed	 xor	 dl, -19			; ffffffedH
  00159	88 55 f8	 mov	 BYTE PTR __k$[ebp+20], dl
  0015c	8a 50 15	 mov	 dl, BYTE PTR [eax+21]
  0015f	84 d2		 test	 dl, dl
  00161	74 19		 je	 SHORT $LN75@LoadInt_e@3
  00163	8a 40 16	 mov	 al, BYTE PTR [eax+22]
  00166	32 d1		 xor	 dl, cl
  00168	88 55 f9	 mov	 BYTE PTR __k$[ebp+21], dl
  0016b	84 c0		 test	 al, al
  0016d	74 07		 je	 SHORT $LN74@LoadInt_e@3
  0016f	34 eb		 xor	 al, -21			; ffffffebH
  00171	88 45 fa	 mov	 BYTE PTR __k$[ebp+22], al
  00174	eb 7d		 jmp	 SHORT $LN1@LoadInt_e@3
$LN74@LoadInt_e@3:
  00176	c6 45 fa eb	 mov	 BYTE PTR __k$[ebp+22], -21 ; ffffffebH
  0017a	eb 77		 jmp	 SHORT $LN1@LoadInt_e@3
$LN75@LoadInt_e@3:
  0017c	88 4d f9	 mov	 BYTE PTR __k$[ebp+21], cl
  0017f	eb 72		 jmp	 SHORT $LN1@LoadInt_e@3
$LN76@LoadInt_e@3:
  00181	c6 45 f8 ed	 mov	 BYTE PTR __k$[ebp+20], -19 ; ffffffedH
  00185	eb 6c		 jmp	 SHORT $LN1@LoadInt_e@3
$LN77@LoadInt_e@3:
  00187	c6 45 f7 ea	 mov	 BYTE PTR __k$[ebp+19], -22 ; ffffffeaH
  0018b	eb 66		 jmp	 SHORT $LN1@LoadInt_e@3
$LN79@LoadInt_e@3:
  0018d	88 4d f5	 mov	 BYTE PTR __k$[ebp+17], cl
  00190	eb 61		 jmp	 SHORT $LN1@LoadInt_e@3
$LN80@LoadInt_e@3:
  00192	c6 45 f4 ed	 mov	 BYTE PTR __k$[ebp+16], -19 ; ffffffedH
  00196	eb 5b		 jmp	 SHORT $LN1@LoadInt_e@3
$LN81@LoadInt_e@3:
  00198	c6 45 f3 ea	 mov	 BYTE PTR __k$[ebp+15], -22 ; ffffffeaH
  0019c	eb 55		 jmp	 SHORT $LN1@LoadInt_e@3
$LN82@LoadInt_e@3:
  0019e	c6 45 f2 eb	 mov	 BYTE PTR __k$[ebp+14], -21 ; ffffffebH
  001a2	eb 4f		 jmp	 SHORT $LN1@LoadInt_e@3
$LN83@LoadInt_e@3:
  001a4	88 4d f1	 mov	 BYTE PTR __k$[ebp+13], cl
  001a7	eb 4a		 jmp	 SHORT $LN1@LoadInt_e@3
$LN84@LoadInt_e@3:
  001a9	c6 45 f0 ed	 mov	 BYTE PTR __k$[ebp+12], -19 ; ffffffedH
  001ad	eb 44		 jmp	 SHORT $LN1@LoadInt_e@3
$LN85@LoadInt_e@3:
  001af	c6 45 ef ea	 mov	 BYTE PTR __k$[ebp+11], -22 ; ffffffeaH
  001b3	eb 3e		 jmp	 SHORT $LN1@LoadInt_e@3
$LN86@LoadInt_e@3:
  001b5	c6 45 ee eb	 mov	 BYTE PTR __k$[ebp+10], -21 ; ffffffebH
  001b9	eb 38		 jmp	 SHORT $LN1@LoadInt_e@3
$LN87@LoadInt_e@3:
  001bb	88 4d ed	 mov	 BYTE PTR __k$[ebp+9], cl
  001be	eb 33		 jmp	 SHORT $LN1@LoadInt_e@3
$LN88@LoadInt_e@3:
  001c0	c6 45 ec ed	 mov	 BYTE PTR __k$[ebp+8], -19 ; ffffffedH
  001c4	eb 2d		 jmp	 SHORT $LN1@LoadInt_e@3
$LN89@LoadInt_e@3:
  001c6	c6 45 eb ea	 mov	 BYTE PTR __k$[ebp+7], -22 ; ffffffeaH
  001ca	eb 27		 jmp	 SHORT $LN1@LoadInt_e@3
$LN90@LoadInt_e@3:
  001cc	c6 45 ea eb	 mov	 BYTE PTR __k$[ebp+6], -21 ; ffffffebH
  001d0	eb 21		 jmp	 SHORT $LN1@LoadInt_e@3
$LN91@LoadInt_e@3:
  001d2	88 4d e9	 mov	 BYTE PTR __k$[ebp+5], cl
  001d5	eb 1c		 jmp	 SHORT $LN1@LoadInt_e@3
$LN92@LoadInt_e@3:
  001d7	c6 45 e8 ed	 mov	 BYTE PTR __k$[ebp+4], -19 ; ffffffedH
  001db	eb 16		 jmp	 SHORT $LN1@LoadInt_e@3
$LN93@LoadInt_e@3:
  001dd	c6 45 e7 ea	 mov	 BYTE PTR __k$[ebp+3], -22 ; ffffffeaH
  001e1	eb 10		 jmp	 SHORT $LN1@LoadInt_e@3
$LN94@LoadInt_e@3:
  001e3	c6 45 e6 eb	 mov	 BYTE PTR __k$[ebp+2], -21 ; ffffffebH
  001e7	eb 0a		 jmp	 SHORT $LN1@LoadInt_e@3
$LN95@LoadInt_e@3:
  001e9	c6 45 e5 ec	 mov	 BYTE PTR __k$[ebp+1], -20 ; ffffffecH
  001ed	eb 04		 jmp	 SHORT $LN1@LoadInt_e@3
$LN96@LoadInt_e@3:
  001ef	c6 45 e4 ed	 mov	 BYTE PTR __k$[ebp], -19	; ffffffedH
$LN1@LoadInt_e@3:
  001f3	6a 04		 push	 4
  001f5	8d 45 e4	 lea	 eax, DWORD PTR __k$[ebp]
  001f8	c6 45 f6 00	 mov	 BYTE PTR __k$[ebp+18], 0
  001fc	5a		 pop	 edx
$LL104@LoadInt_e@3:
  001fd	81 30 ed ec eb
	ea		 xor	 DWORD PTR [eax], -353637139 ; eaebecedH
  00203	83 c0 04	 add	 eax, 4
  00206	4a		 dec	 edx
  00207	75 f4		 jne	 SHORT $LL104@LoadInt_e@3
  00209	6a 10		 push	 16			; 00000010H
  0020b	58		 pop	 eax
$LL101@LoadInt_e@3:
  0020c	8b c8		 mov	 ecx, eax
  0020e	81 e1 03 00 00
	80		 and	 ecx, -2147483645	; 80000003H
  00214	79 05		 jns	 SHORT $LN111@LoadInt_e@3
  00216	49		 dec	 ecx
  00217	83 c9 fc	 or	 ecx, -4			; fffffffcH
  0021a	41		 inc	 ecx
$LN111@LoadInt_e@3:
  0021b	b2 ed		 mov	 dl, -19			; ffffffedH
  0021d	2a d1		 sub	 dl, cl
  0021f	30 54 05 e4	 xor	 BYTE PTR __k$[ebp+eax], dl
  00223	40		 inc	 eax
  00224	83 f8 12	 cmp	 eax, 18			; 00000012H
  00227	7c e3		 jl	 SHORT $LL101@LoadInt_e@3

; 120  : 		return LoadInt(_k, i);

  00229	ff 75 0c	 push	 DWORD PTR _i$[ebp]
  0022c	8d 45 e4	 lea	 eax, DWORD PTR __k$[ebp]
  0022f	50		 push	 eax
  00230	8b ce		 mov	 ecx, esi
  00232	ff 15 00 00 00
	00		 call	 DWORD PTR __imp_?LoadInt@ioINILoader@@QAEHPBDH@Z

; 121  : 	}

  00238	8b 4d fc	 mov	 ecx, DWORD PTR __$ArrayPad$[ebp]
  0023b	33 cd		 xor	 ecx, ebp
  0023d	5e		 pop	 esi
  0023e	e8 00 00 00 00	 call	 @__security_check_cookie@4
  00243	c9		 leave
  00244	c2 08 00	 ret	 8
??$LoadInt_e@$0BD@@ioINILoader@@QAEHAAY0BD@$$CBDH@Z ENDP ; ioINILoader::LoadInt_e<19>
_TEXT	ENDS
PUBLIC	__$ArrayPad$
PUBLIC	??$SetTitle_e@$0M@@ioINILoader@@QAEXAAY0M@$$CBD@Z ; ioINILoader::SetTitle_e<12>
; Function compile flags: /Ogsp
;	COMDAT ??$SetTitle_e@$0M@@ioINILoader@@QAEXAAY0M@$$CBD@Z
_TEXT	SEGMENT
__t$ = -20						; size = 12
__$ArrayPad$ = -4					; size = 4
_t$ = 8							; size = 4
??$SetTitle_e@$0M@@ioINILoader@@QAEXAAY0M@$$CBD@Z PROC	; ioINILoader::SetTitle_e<12>, COMDAT
; _this$ = ecx

; 188  : 	{

  00000	55		 push	 ebp
  00001	8b ec		 mov	 ebp, esp
  00003	83 ec 14	 sub	 esp, 20			; 00000014H
  00006	a1 00 00 00 00	 mov	 eax, DWORD PTR ___security_cookie
  0000b	33 c5		 xor	 eax, ebp
  0000d	89 45 fc	 mov	 DWORD PTR __$ArrayPad$[ebp], eax
  00010	8b 45 08	 mov	 eax, DWORD PTR _t$[ebp]

; 189  : 		_ENCSTR(t, _t);

  00013	8a 10		 mov	 dl, BYTE PTR [eax]
  00015	56		 push	 esi
  00016	8b f1		 mov	 esi, ecx
  00018	84 d2		 test	 dl, dl
  0001a	0f 84 32 01 00
	00		 je	 $LN96@SetTitle_e@3
  00020	80 f2 ed	 xor	 dl, -19			; ffffffedH
  00023	88 55 ec	 mov	 BYTE PTR __t$[ebp], dl
  00026	8a 50 01	 mov	 dl, BYTE PTR [eax+1]
  00029	84 d2		 test	 dl, dl
  0002b	0f 84 1b 01 00
	00		 je	 $LN95@SetTitle_e@3
  00031	80 f2 ec	 xor	 dl, -20			; ffffffecH
  00034	88 55 ed	 mov	 BYTE PTR __t$[ebp+1], dl
  00037	8a 50 02	 mov	 dl, BYTE PTR [eax+2]
  0003a	84 d2		 test	 dl, dl
  0003c	0f 84 04 01 00
	00		 je	 $LN94@SetTitle_e@3
  00042	b1 eb		 mov	 cl, -21			; ffffffebH
  00044	32 d1		 xor	 dl, cl
  00046	88 55 ee	 mov	 BYTE PTR __t$[ebp+2], dl
  00049	8a 50 03	 mov	 dl, BYTE PTR [eax+3]
  0004c	84 d2		 test	 dl, dl
  0004e	0f 84 ec 00 00
	00		 je	 $LN93@SetTitle_e@3
  00054	80 f2 ea	 xor	 dl, -22			; ffffffeaH
  00057	88 55 ef	 mov	 BYTE PTR __t$[ebp+3], dl
  0005a	8a 50 04	 mov	 dl, BYTE PTR [eax+4]
  0005d	84 d2		 test	 dl, dl
  0005f	0f 84 d5 00 00
	00		 je	 $LN92@SetTitle_e@3
  00065	80 f2 ed	 xor	 dl, -19			; ffffffedH
  00068	88 55 f0	 mov	 BYTE PTR __t$[ebp+4], dl
  0006b	8a 50 05	 mov	 dl, BYTE PTR [eax+5]
  0006e	84 d2		 test	 dl, dl
  00070	0f 84 be 00 00
	00		 je	 $LN91@SetTitle_e@3
  00076	80 f2 ec	 xor	 dl, -20			; ffffffecH
  00079	88 55 f1	 mov	 BYTE PTR __t$[ebp+5], dl
  0007c	8a 50 06	 mov	 dl, BYTE PTR [eax+6]
  0007f	84 d2		 test	 dl, dl
  00081	0f 84 a8 00 00
	00		 je	 $LN90@SetTitle_e@3
  00087	32 d1		 xor	 dl, cl
  00089	88 55 f2	 mov	 BYTE PTR __t$[ebp+6], dl
  0008c	8a 50 07	 mov	 dl, BYTE PTR [eax+7]
  0008f	84 d2		 test	 dl, dl
  00091	0f 84 92 00 00
	00		 je	 $LN89@SetTitle_e@3
  00097	80 f2 ea	 xor	 dl, -22			; ffffffeaH
  0009a	88 55 f3	 mov	 BYTE PTR __t$[ebp+7], dl
  0009d	8a 50 08	 mov	 dl, BYTE PTR [eax+8]
  000a0	84 d2		 test	 dl, dl
  000a2	74 7f		 je	 SHORT $LN88@SetTitle_e@3
  000a4	80 f2 ed	 xor	 dl, -19			; ffffffedH
  000a7	88 55 f4	 mov	 BYTE PTR __t$[ebp+8], dl
  000aa	8a 50 09	 mov	 dl, BYTE PTR [eax+9]
  000ad	84 d2		 test	 dl, dl
  000af	74 6c		 je	 SHORT $LN87@SetTitle_e@3
  000b1	80 f2 ec	 xor	 dl, -20			; ffffffecH
  000b4	88 55 f5	 mov	 BYTE PTR __t$[ebp+9], dl
  000b7	8a 50 0a	 mov	 dl, BYTE PTR [eax+10]
  000ba	84 d2		 test	 dl, dl
  000bc	74 5a		 je	 SHORT $LN86@SetTitle_e@3
  000be	32 d1		 xor	 dl, cl
  000c0	80 78 0b 00	 cmp	 BYTE PTR [eax+11], 0
  000c4	88 55 f6	 mov	 BYTE PTR __t$[ebp+10], dl
  000c7	0f 84 89 00 00
	00		 je	 $LN1@SetTitle_e@3
  000cd	8a 50 0c	 mov	 dl, BYTE PTR [eax+12]
  000d0	84 d2		 test	 dl, dl
  000d2	74 3e		 je	 SHORT $LN84@SetTitle_e@3
  000d4	80 f2 ed	 xor	 dl, -19			; ffffffedH
  000d7	88 55 f8	 mov	 BYTE PTR __t$[ebp+12], dl
  000da	8a 50 0d	 mov	 dl, BYTE PTR [eax+13]
  000dd	84 d2		 test	 dl, dl
  000df	74 2b		 je	 SHORT $LN83@SetTitle_e@3
  000e1	80 f2 ec	 xor	 dl, -20			; ffffffecH
  000e4	88 55 f9	 mov	 BYTE PTR __t$[ebp+13], dl
  000e7	8a 50 0e	 mov	 dl, BYTE PTR [eax+14]
  000ea	84 d2		 test	 dl, dl
  000ec	74 19		 je	 SHORT $LN82@SetTitle_e@3
  000ee	8a 40 0f	 mov	 al, BYTE PTR [eax+15]
  000f1	32 d1		 xor	 dl, cl
  000f3	88 55 fa	 mov	 BYTE PTR __t$[ebp+14], dl
  000f6	84 c0		 test	 al, al
  000f8	74 07		 je	 SHORT $LN81@SetTitle_e@3
  000fa	34 ea		 xor	 al, -22			; ffffffeaH
  000fc	88 45 fb	 mov	 BYTE PTR __t$[ebp+15], al
  000ff	eb 55		 jmp	 SHORT $LN1@SetTitle_e@3
$LN81@SetTitle_e@3:
  00101	c6 45 fb ea	 mov	 BYTE PTR __t$[ebp+15], -22 ; ffffffeaH
  00105	eb 4f		 jmp	 SHORT $LN1@SetTitle_e@3
$LN82@SetTitle_e@3:
  00107	88 4d fa	 mov	 BYTE PTR __t$[ebp+14], cl
  0010a	eb 4a		 jmp	 SHORT $LN1@SetTitle_e@3
$LN83@SetTitle_e@3:
  0010c	c6 45 f9 ec	 mov	 BYTE PTR __t$[ebp+13], -20 ; ffffffecH
  00110	eb 44		 jmp	 SHORT $LN1@SetTitle_e@3
$LN84@SetTitle_e@3:
  00112	c6 45 f8 ed	 mov	 BYTE PTR __t$[ebp+12], -19 ; ffffffedH
  00116	eb 3e		 jmp	 SHORT $LN1@SetTitle_e@3
$LN86@SetTitle_e@3:
  00118	88 4d f6	 mov	 BYTE PTR __t$[ebp+10], cl
  0011b	eb 39		 jmp	 SHORT $LN1@SetTitle_e@3
$LN87@SetTitle_e@3:
  0011d	c6 45 f5 ec	 mov	 BYTE PTR __t$[ebp+9], -20 ; ffffffecH
  00121	eb 33		 jmp	 SHORT $LN1@SetTitle_e@3
$LN88@SetTitle_e@3:
  00123	c6 45 f4 ed	 mov	 BYTE PTR __t$[ebp+8], -19 ; ffffffedH
  00127	eb 2d		 jmp	 SHORT $LN1@SetTitle_e@3
$LN89@SetTitle_e@3:
  00129	c6 45 f3 ea	 mov	 BYTE PTR __t$[ebp+7], -22 ; ffffffeaH
  0012d	eb 27		 jmp	 SHORT $LN1@SetTitle_e@3
$LN90@SetTitle_e@3:
  0012f	88 4d f2	 mov	 BYTE PTR __t$[ebp+6], cl
  00132	eb 22		 jmp	 SHORT $LN1@SetTitle_e@3
$LN91@SetTitle_e@3:
  00134	c6 45 f1 ec	 mov	 BYTE PTR __t$[ebp+5], -20 ; ffffffecH
  00138	eb 1c		 jmp	 SHORT $LN1@SetTitle_e@3
$LN92@SetTitle_e@3:
  0013a	c6 45 f0 ed	 mov	 BYTE PTR __t$[ebp+4], -19 ; ffffffedH
  0013e	eb 16		 jmp	 SHORT $LN1@SetTitle_e@3
$LN93@SetTitle_e@3:
  00140	c6 45 ef ea	 mov	 BYTE PTR __t$[ebp+3], -22 ; ffffffeaH
  00144	eb 10		 jmp	 SHORT $LN1@SetTitle_e@3
$LN94@SetTitle_e@3:
  00146	c6 45 ee eb	 mov	 BYTE PTR __t$[ebp+2], -21 ; ffffffebH
  0014a	eb 0a		 jmp	 SHORT $LN1@SetTitle_e@3
$LN95@SetTitle_e@3:
  0014c	c6 45 ed ec	 mov	 BYTE PTR __t$[ebp+1], -20 ; ffffffecH
  00150	eb 04		 jmp	 SHORT $LN1@SetTitle_e@3
$LN96@SetTitle_e@3:
  00152	c6 45 ec ed	 mov	 BYTE PTR __t$[ebp], -19	; ffffffedH
$LN1@SetTitle_e@3:
  00156	6a 02		 push	 2
  00158	8d 45 ec	 lea	 eax, DWORD PTR __t$[ebp]
  0015b	c6 45 f7 00	 mov	 BYTE PTR __t$[ebp+11], 0
  0015f	5a		 pop	 edx
$LL104@SetTitle_e@3:
  00160	81 30 ed ec eb
	ea		 xor	 DWORD PTR [eax], -353637139 ; eaebecedH
  00166	83 c0 04	 add	 eax, 4
  00169	4a		 dec	 edx
  0016a	75 f4		 jne	 SHORT $LL104@SetTitle_e@3
  0016c	6a 08		 push	 8
  0016e	58		 pop	 eax
$LL101@SetTitle_e@3:
  0016f	8b c8		 mov	 ecx, eax
  00171	81 e1 03 00 00
	80		 and	 ecx, -2147483645	; 80000003H
  00177	79 05		 jns	 SHORT $LN111@SetTitle_e@3
  00179	49		 dec	 ecx
  0017a	83 c9 fc	 or	 ecx, -4			; fffffffcH
  0017d	41		 inc	 ecx
$LN111@SetTitle_e@3:
  0017e	b2 ed		 mov	 dl, -19			; ffffffedH
  00180	2a d1		 sub	 dl, cl
  00182	30 54 05 ec	 xor	 BYTE PTR __t$[ebp+eax], dl
  00186	40		 inc	 eax
  00187	83 f8 0b	 cmp	 eax, 11			; 0000000bH
  0018a	7c e3		 jl	 SHORT $LL101@SetTitle_e@3

; 190  : 		SetTitle(_t);

  0018c	8d 45 ec	 lea	 eax, DWORD PTR __t$[ebp]
  0018f	50		 push	 eax
  00190	8b ce		 mov	 ecx, esi
  00192	ff 15 00 00 00
	00		 call	 DWORD PTR __imp_?SetTitle@ioINILoader@@QAEXPBD@Z

; 191  : 	}

  00198	8b 4d fc	 mov	 ecx, DWORD PTR __$ArrayPad$[ebp]
  0019b	33 cd		 xor	 ecx, ebp
  0019d	5e		 pop	 esi
  0019e	e8 00 00 00 00	 call	 @__security_check_cookie@4
  001a3	c9		 leave
  001a4	c2 04 00	 ret	 4
??$SetTitle_e@$0M@@ioINILoader@@QAEXAAY0M@$$CBD@Z ENDP	; ioINILoader::SetTitle_e<12>
_TEXT	ENDS
PUBLIC	__$ArrayPad$
PUBLIC	??$LoadInt_e@$0M@@ioINILoader@@QAEHAAY0M@$$CBDH@Z ; ioINILoader::LoadInt_e<12>
; Function compile flags: /Ogsp
;	COMDAT ??$LoadInt_e@$0M@@ioINILoader@@QAEHAAY0M@$$CBDH@Z
_TEXT	SEGMENT
__k$ = -20						; size = 12
__$ArrayPad$ = -4					; size = 4
_k$ = 8							; size = 4
_i$ = 12						; size = 4
??$LoadInt_e@$0M@@ioINILoader@@QAEHAAY0M@$$CBDH@Z PROC	; ioINILoader::LoadInt_e<12>, COMDAT
; _this$ = ecx

; 118  : 	{

  00000	55		 push	 ebp
  00001	8b ec		 mov	 ebp, esp
  00003	83 ec 14	 sub	 esp, 20			; 00000014H
  00006	a1 00 00 00 00	 mov	 eax, DWORD PTR ___security_cookie
  0000b	33 c5		 xor	 eax, ebp
  0000d	89 45 fc	 mov	 DWORD PTR __$ArrayPad$[ebp], eax
  00010	8b 45 08	 mov	 eax, DWORD PTR _k$[ebp]

; 119  : 		_ENCSTR(k, _k);

  00013	8a 10		 mov	 dl, BYTE PTR [eax]
  00015	56		 push	 esi
  00016	8b f1		 mov	 esi, ecx
  00018	84 d2		 test	 dl, dl
  0001a	0f 84 32 01 00
	00		 je	 $LN96@LoadInt_e@4
  00020	80 f2 ed	 xor	 dl, -19			; ffffffedH
  00023	88 55 ec	 mov	 BYTE PTR __k$[ebp], dl
  00026	8a 50 01	 mov	 dl, BYTE PTR [eax+1]
  00029	84 d2		 test	 dl, dl
  0002b	0f 84 1b 01 00
	00		 je	 $LN95@LoadInt_e@4
  00031	80 f2 ec	 xor	 dl, -20			; ffffffecH
  00034	88 55 ed	 mov	 BYTE PTR __k$[ebp+1], dl
  00037	8a 50 02	 mov	 dl, BYTE PTR [eax+2]
  0003a	84 d2		 test	 dl, dl
  0003c	0f 84 04 01 00
	00		 je	 $LN94@LoadInt_e@4
  00042	b1 eb		 mov	 cl, -21			; ffffffebH
  00044	32 d1		 xor	 dl, cl
  00046	88 55 ee	 mov	 BYTE PTR __k$[ebp+2], dl
  00049	8a 50 03	 mov	 dl, BYTE PTR [eax+3]
  0004c	84 d2		 test	 dl, dl
  0004e	0f 84 ec 00 00
	00		 je	 $LN93@LoadInt_e@4
  00054	80 f2 ea	 xor	 dl, -22			; ffffffeaH
  00057	88 55 ef	 mov	 BYTE PTR __k$[ebp+3], dl
  0005a	8a 50 04	 mov	 dl, BYTE PTR [eax+4]
  0005d	84 d2		 test	 dl, dl
  0005f	0f 84 d5 00 00
	00		 je	 $LN92@LoadInt_e@4
  00065	80 f2 ed	 xor	 dl, -19			; ffffffedH
  00068	88 55 f0	 mov	 BYTE PTR __k$[ebp+4], dl
  0006b	8a 50 05	 mov	 dl, BYTE PTR [eax+5]
  0006e	84 d2		 test	 dl, dl
  00070	0f 84 be 00 00
	00		 je	 $LN91@LoadInt_e@4
  00076	80 f2 ec	 xor	 dl, -20			; ffffffecH
  00079	88 55 f1	 mov	 BYTE PTR __k$[ebp+5], dl
  0007c	8a 50 06	 mov	 dl, BYTE PTR [eax+6]
  0007f	84 d2		 test	 dl, dl
  00081	0f 84 a8 00 00
	00		 je	 $LN90@LoadInt_e@4
  00087	32 d1		 xor	 dl, cl
  00089	88 55 f2	 mov	 BYTE PTR __k$[ebp+6], dl
  0008c	8a 50 07	 mov	 dl, BYTE PTR [eax+7]
  0008f	84 d2		 test	 dl, dl
  00091	0f 84 92 00 00
	00		 je	 $LN89@LoadInt_e@4
  00097	80 f2 ea	 xor	 dl, -22			; ffffffeaH
  0009a	88 55 f3	 mov	 BYTE PTR __k$[ebp+7], dl
  0009d	8a 50 08	 mov	 dl, BYTE PTR [eax+8]
  000a0	84 d2		 test	 dl, dl
  000a2	74 7f		 je	 SHORT $LN88@LoadInt_e@4
  000a4	80 f2 ed	 xor	 dl, -19			; ffffffedH
  000a7	88 55 f4	 mov	 BYTE PTR __k$[ebp+8], dl
  000aa	8a 50 09	 mov	 dl, BYTE PTR [eax+9]
  000ad	84 d2		 test	 dl, dl
  000af	74 6c		 je	 SHORT $LN87@LoadInt_e@4
  000b1	80 f2 ec	 xor	 dl, -20			; ffffffecH
  000b4	88 55 f5	 mov	 BYTE PTR __k$[ebp+9], dl
  000b7	8a 50 0a	 mov	 dl, BYTE PTR [eax+10]
  000ba	84 d2		 test	 dl, dl
  000bc	74 5a		 je	 SHORT $LN86@LoadInt_e@4
  000be	32 d1		 xor	 dl, cl
  000c0	80 78 0b 00	 cmp	 BYTE PTR [eax+11], 0
  000c4	88 55 f6	 mov	 BYTE PTR __k$[ebp+10], dl
  000c7	0f 84 89 00 00
	00		 je	 $LN1@LoadInt_e@4
  000cd	8a 50 0c	 mov	 dl, BYTE PTR [eax+12]
  000d0	84 d2		 test	 dl, dl
  000d2	74 3e		 je	 SHORT $LN84@LoadInt_e@4
  000d4	80 f2 ed	 xor	 dl, -19			; ffffffedH
  000d7	88 55 f8	 mov	 BYTE PTR __k$[ebp+12], dl
  000da	8a 50 0d	 mov	 dl, BYTE PTR [eax+13]
  000dd	84 d2		 test	 dl, dl
  000df	74 2b		 je	 SHORT $LN83@LoadInt_e@4
  000e1	80 f2 ec	 xor	 dl, -20			; ffffffecH
  000e4	88 55 f9	 mov	 BYTE PTR __k$[ebp+13], dl
  000e7	8a 50 0e	 mov	 dl, BYTE PTR [eax+14]
  000ea	84 d2		 test	 dl, dl
  000ec	74 19		 je	 SHORT $LN82@LoadInt_e@4
  000ee	8a 40 0f	 mov	 al, BYTE PTR [eax+15]
  000f1	32 d1		 xor	 dl, cl
  000f3	88 55 fa	 mov	 BYTE PTR __k$[ebp+14], dl
  000f6	84 c0		 test	 al, al
  000f8	74 07		 je	 SHORT $LN81@LoadInt_e@4
  000fa	34 ea		 xor	 al, -22			; ffffffeaH
  000fc	88 45 fb	 mov	 BYTE PTR __k$[ebp+15], al
  000ff	eb 55		 jmp	 SHORT $LN1@LoadInt_e@4
$LN81@LoadInt_e@4:
  00101	c6 45 fb ea	 mov	 BYTE PTR __k$[ebp+15], -22 ; ffffffeaH
  00105	eb 4f		 jmp	 SHORT $LN1@LoadInt_e@4
$LN82@LoadInt_e@4:
  00107	88 4d fa	 mov	 BYTE PTR __k$[ebp+14], cl
  0010a	eb 4a		 jmp	 SHORT $LN1@LoadInt_e@4
$LN83@LoadInt_e@4:
  0010c	c6 45 f9 ec	 mov	 BYTE PTR __k$[ebp+13], -20 ; ffffffecH
  00110	eb 44		 jmp	 SHORT $LN1@LoadInt_e@4
$LN84@LoadInt_e@4:
  00112	c6 45 f8 ed	 mov	 BYTE PTR __k$[ebp+12], -19 ; ffffffedH
  00116	eb 3e		 jmp	 SHORT $LN1@LoadInt_e@4
$LN86@LoadInt_e@4:
  00118	88 4d f6	 mov	 BYTE PTR __k$[ebp+10], cl
  0011b	eb 39		 jmp	 SHORT $LN1@LoadInt_e@4
$LN87@LoadInt_e@4:
  0011d	c6 45 f5 ec	 mov	 BYTE PTR __k$[ebp+9], -20 ; ffffffecH
  00121	eb 33		 jmp	 SHORT $LN1@LoadInt_e@4
$LN88@LoadInt_e@4:
  00123	c6 45 f4 ed	 mov	 BYTE PTR __k$[ebp+8], -19 ; ffffffedH
  00127	eb 2d		 jmp	 SHORT $LN1@LoadInt_e@4
$LN89@LoadInt_e@4:
  00129	c6 45 f3 ea	 mov	 BYTE PTR __k$[ebp+7], -22 ; ffffffeaH
  0012d	eb 27		 jmp	 SHORT $LN1@LoadInt_e@4
$LN90@LoadInt_e@4:
  0012f	88 4d f2	 mov	 BYTE PTR __k$[ebp+6], cl
  00132	eb 22		 jmp	 SHORT $LN1@LoadInt_e@4
$LN91@LoadInt_e@4:
  00134	c6 45 f1 ec	 mov	 BYTE PTR __k$[ebp+5], -20 ; ffffffecH
  00138	eb 1c		 jmp	 SHORT $LN1@LoadInt_e@4
$LN92@LoadInt_e@4:
  0013a	c6 45 f0 ed	 mov	 BYTE PTR __k$[ebp+4], -19 ; ffffffedH
  0013e	eb 16		 jmp	 SHORT $LN1@LoadInt_e@4
$LN93@LoadInt_e@4:
  00140	c6 45 ef ea	 mov	 BYTE PTR __k$[ebp+3], -22 ; ffffffeaH
  00144	eb 10		 jmp	 SHORT $LN1@LoadInt_e@4
$LN94@LoadInt_e@4:
  00146	c6 45 ee eb	 mov	 BYTE PTR __k$[ebp+2], -21 ; ffffffebH
  0014a	eb 0a		 jmp	 SHORT $LN1@LoadInt_e@4
$LN95@LoadInt_e@4:
  0014c	c6 45 ed ec	 mov	 BYTE PTR __k$[ebp+1], -20 ; ffffffecH
  00150	eb 04		 jmp	 SHORT $LN1@LoadInt_e@4
$LN96@LoadInt_e@4:
  00152	c6 45 ec ed	 mov	 BYTE PTR __k$[ebp], -19	; ffffffedH
$LN1@LoadInt_e@4:
  00156	6a 02		 push	 2
  00158	8d 45 ec	 lea	 eax, DWORD PTR __k$[ebp]
  0015b	c6 45 f7 00	 mov	 BYTE PTR __k$[ebp+11], 0
  0015f	5a		 pop	 edx
$LL104@LoadInt_e@4:
  00160	81 30 ed ec eb
	ea		 xor	 DWORD PTR [eax], -353637139 ; eaebecedH
  00166	83 c0 04	 add	 eax, 4
  00169	4a		 dec	 edx
  0016a	75 f4		 jne	 SHORT $LL104@LoadInt_e@4
  0016c	6a 08		 push	 8
  0016e	58		 pop	 eax
$LL101@LoadInt_e@4:
  0016f	8b c8		 mov	 ecx, eax
  00171	81 e1 03 00 00
	80		 and	 ecx, -2147483645	; 80000003H
  00177	79 05		 jns	 SHORT $LN111@LoadInt_e@4
  00179	49		 dec	 ecx
  0017a	83 c9 fc	 or	 ecx, -4			; fffffffcH
  0017d	41		 inc	 ecx
$LN111@LoadInt_e@4:
  0017e	b2 ed		 mov	 dl, -19			; ffffffedH
  00180	2a d1		 sub	 dl, cl
  00182	30 54 05 ec	 xor	 BYTE PTR __k$[ebp+eax], dl
  00186	40		 inc	 eax
  00187	83 f8 0b	 cmp	 eax, 11			; 0000000bH
  0018a	7c e3		 jl	 SHORT $LL101@LoadInt_e@4

; 120  : 		return LoadInt(_k, i);

  0018c	ff 75 0c	 push	 DWORD PTR _i$[ebp]
  0018f	8d 45 ec	 lea	 eax, DWORD PTR __k$[ebp]
  00192	50		 push	 eax
  00193	8b ce		 mov	 ecx, esi
  00195	ff 15 00 00 00
	00		 call	 DWORD PTR __imp_?LoadInt@ioINILoader@@QAEHPBDH@Z

; 121  : 	}

  0019b	8b 4d fc	 mov	 ecx, DWORD PTR __$ArrayPad$[ebp]
  0019e	33 cd		 xor	 ecx, ebp
  001a0	5e		 pop	 esi
  001a1	e8 00 00 00 00	 call	 @__security_check_cookie@4
  001a6	c9		 leave
  001a7	c2 08 00	 ret	 8
??$LoadInt_e@$0M@@ioINILoader@@QAEHAAY0M@$$CBDH@Z ENDP	; ioINILoader::LoadInt_e<12>
_TEXT	ENDS
PUBLIC	??$_Cons_val@V?$allocator@PAUCustomMarkData@ioGuildMarkMgr@@@std@@PAUCustomMarkData@ioGuildMarkMgr@@AAPAU34@@std@@YAXAAV?$allocator@PAUCustomMarkData@ioGuildMarkMgr@@@0@PAPAUCustomMarkData@ioGuildMarkMgr@@AAPAU23@@Z ; std::_Cons_val<std::allocator<ioGuildMarkMgr::CustomMarkData *>,ioGuildMarkMgr::CustomMarkData *,ioGuildMarkMgr::CustomMarkData * &>
; Function compile flags: /Ogsp
; File c:\program files (x86)\microsoft visual studio 10.0\vc\include\xmemory
;	COMDAT ??$_Cons_val@V?$allocator@PAUCustomMarkData@ioGuildMarkMgr@@@std@@PAUCustomMarkData@ioGuildMarkMgr@@AAPAU34@@std@@YAXAAV?$allocator@PAUCustomMarkData@ioGuildMarkMgr@@@0@PAPAUCustomMarkData@ioGuildMarkMgr@@AAPAU23@@Z
_TEXT	SEGMENT
__Alval$ = 8						; size = 4
__Pdest$ = 12						; size = 4
__Src$ = 16						; size = 4
??$_Cons_val@V?$allocator@PAUCustomMarkData@ioGuildMarkMgr@@@std@@PAUCustomMarkData@ioGuildMarkMgr@@AAPAU34@@std@@YAXAAV?$allocator@PAUCustomMarkData@ioGuildMarkMgr@@@0@PAPAUCustomMarkData@ioGuildMarkMgr@@AAPAU23@@Z PROC ; std::_Cons_val<std::allocator<ioGuildMarkMgr::CustomMarkData *>,ioGuildMarkMgr::CustomMarkData *,ioGuildMarkMgr::CustomMarkData * &>, COMDAT

; 279  : 	{	// construct using allocator

  00000	55		 push	 ebp
  00001	8b ec		 mov	 ebp, esp

; 280  : 	_Alval.construct(_Pdest, _STD forward<_Ty2>(_Src));

  00003	8b 45 0c	 mov	 eax, DWORD PTR __Pdest$[ebp]
  00006	85 c0		 test	 eax, eax
  00008	74 07		 je	 SHORT $LN7@Cons_val
  0000a	8b 4d 10	 mov	 ecx, DWORD PTR __Src$[ebp]
  0000d	8b 09		 mov	 ecx, DWORD PTR [ecx]
  0000f	89 08		 mov	 DWORD PTR [eax], ecx
$LN7@Cons_val:

; 281  : 	}

  00011	5d		 pop	 ebp
  00012	c3		 ret	 0
??$_Cons_val@V?$allocator@PAUCustomMarkData@ioGuildMarkMgr@@@std@@PAUCustomMarkData@ioGuildMarkMgr@@AAPAU34@@std@@YAXAAV?$allocator@PAUCustomMarkData@ioGuildMarkMgr@@@0@PAPAUCustomMarkData@ioGuildMarkMgr@@AAPAU23@@Z ENDP ; std::_Cons_val<std::allocator<ioGuildMarkMgr::CustomMarkData *>,ioGuildMarkMgr::CustomMarkData *,ioGuildMarkMgr::CustomMarkData * &>
_TEXT	ENDS
PUBLIC	??$_Move@PAPAUCustomMarkData@ioGuildMarkMgr@@PAPAU12@@std@@YAPAPAUCustomMarkData@ioGuildMarkMgr@@PAPAU12@00@Z ; std::_Move<ioGuildMarkMgr::CustomMarkData * *,ioGuildMarkMgr::CustomMarkData * *>
; Function compile flags: /Ogsp
; File c:\program files (x86)\microsoft visual studio 10.0\vc\include\xutility
;	COMDAT ??$_Move@PAPAUCustomMarkData@ioGuildMarkMgr@@PAPAU12@@std@@YAPAPAUCustomMarkData@ioGuildMarkMgr@@PAPAU12@00@Z
_TEXT	SEGMENT
__Cat$512553 = -4					; size = 1
__First$ = 8						; size = 4
__Last$ = 12						; size = 4
__Dest$ = 16						; size = 4
??$_Move@PAPAUCustomMarkData@ioGuildMarkMgr@@PAPAU12@@std@@YAPAPAUCustomMarkData@ioGuildMarkMgr@@PAPAU12@00@Z PROC ; std::_Move<ioGuildMarkMgr::CustomMarkData * *,ioGuildMarkMgr::CustomMarkData * *>, COMDAT

; 2533 : 	{	// move [_First, _Last) to [_Dest, ...), unchecked

  00000	55		 push	 ebp
  00001	8b ec		 mov	 ebp, esp
  00003	51		 push	 ecx

; 2534 : 	return (_Move(_First, _Last,
; 2535 : 		_Dest, _Ptr_cat(_First, _Dest)));

  00004	ff 75 fc	 push	 DWORD PTR __Cat$512553[ebp]
  00007	ff 75 10	 push	 DWORD PTR __Dest$[ebp]
  0000a	ff 75 0c	 push	 DWORD PTR __Last$[ebp]
  0000d	ff 75 08	 push	 DWORD PTR __First$[ebp]
  00010	e8 00 00 00 00	 call	 ??$_Move@PAPAUCustomMarkData@ioGuildMarkMgr@@PAPAU12@@std@@YAPAPAUCustomMarkData@ioGuildMarkMgr@@PAPAU12@00U_Scalar_ptr_iterator_tag@0@@Z ; std::_Move<ioGuildMarkMgr::CustomMarkData * *,ioGuildMarkMgr::CustomMarkData * *>
  00015	83 c4 10	 add	 esp, 16			; 00000010H

; 2536 : 	}

  00018	c9		 leave
  00019	c3		 ret	 0
??$_Move@PAPAUCustomMarkData@ioGuildMarkMgr@@PAPAU12@@std@@YAPAPAUCustomMarkData@ioGuildMarkMgr@@PAPAU12@00@Z ENDP ; std::_Move<ioGuildMarkMgr::CustomMarkData * *,ioGuildMarkMgr::CustomMarkData * *>
_TEXT	ENDS
PUBLIC	??$_Destroy_range@V?$allocator@PAUCustomMarkData@ioGuildMarkMgr@@@std@@@std@@YAXPAPAUCustomMarkData@ioGuildMarkMgr@@0AAV?$allocator@PAUCustomMarkData@ioGuildMarkMgr@@@0@@Z ; std::_Destroy_range<std::allocator<ioGuildMarkMgr::CustomMarkData *> >
; Function compile flags: /Ogsp
; File c:\program files (x86)\microsoft visual studio 10.0\vc\include\xmemory
;	COMDAT ??$_Destroy_range@V?$allocator@PAUCustomMarkData@ioGuildMarkMgr@@@std@@@std@@YAXPAPAUCustomMarkData@ioGuildMarkMgr@@0AAV?$allocator@PAUCustomMarkData@ioGuildMarkMgr@@@0@@Z
_TEXT	SEGMENT
__First$ = 8						; size = 4
__Last$ = 12						; size = 4
__Al$ = 16						; size = 4
??$_Destroy_range@V?$allocator@PAUCustomMarkData@ioGuildMarkMgr@@@std@@@std@@YAXPAPAUCustomMarkData@ioGuildMarkMgr@@0AAV?$allocator@PAUCustomMarkData@ioGuildMarkMgr@@@0@@Z PROC ; std::_Destroy_range<std::allocator<ioGuildMarkMgr::CustomMarkData *> >, COMDAT

; 88   : 	_Destroy_range(_First, _Last, _Al, _Ptr_cat(_First, _Last));
; 89   : 	}

  00000	c3		 ret	 0
??$_Destroy_range@V?$allocator@PAUCustomMarkData@ioGuildMarkMgr@@@std@@@std@@YAXPAPAUCustomMarkData@ioGuildMarkMgr@@0AAV?$allocator@PAUCustomMarkData@ioGuildMarkMgr@@@0@@Z ENDP ; std::_Destroy_range<std::allocator<ioGuildMarkMgr::CustomMarkData *> >
_TEXT	ENDS
PUBLIC	?destroy@?$allocator@U?$pair@$$CBKPAVioUIRenderImage@@@std@@@std@@QAEXPAU?$pair@$$CBKPAVioUIRenderImage@@@2@@Z ; std::allocator<std::pair<unsigned long const ,ioUIRenderImage *> >::destroy
; Function compile flags: /Ogsp
;	COMDAT ?destroy@?$allocator@U?$pair@$$CBKPAVioUIRenderImage@@@std@@@std@@QAEXPAU?$pair@$$CBKPAVioUIRenderImage@@@2@@Z
_TEXT	SEGMENT
__Ptr$ = 8						; size = 4
?destroy@?$allocator@U?$pair@$$CBKPAVioUIRenderImage@@@std@@@std@@QAEXPAU?$pair@$$CBKPAVioUIRenderImage@@@2@@Z PROC ; std::allocator<std::pair<unsigned long const ,ioUIRenderImage *> >::destroy, COMDAT
; _this$ = ecx

; 213  : 		_Destroy(_Ptr);
; 214  : 		}

  00000	c2 04 00	 ret	 4
?destroy@?$allocator@U?$pair@$$CBKPAVioUIRenderImage@@@std@@@std@@QAEXPAU?$pair@$$CBKPAVioUIRenderImage@@@2@@Z ENDP ; std::allocator<std::pair<unsigned long const ,ioUIRenderImage *> >::destroy
_TEXT	ENDS
PUBLIC	?construct@?$allocator@PAUCustomMarkData@ioGuildMarkMgr@@@std@@QAEXPAPAUCustomMarkData@ioGuildMarkMgr@@ABQAU34@@Z ; std::allocator<ioGuildMarkMgr::CustomMarkData *>::construct
; Function compile flags: /Ogsp
;	COMDAT ?construct@?$allocator@PAUCustomMarkData@ioGuildMarkMgr@@@std@@QAEXPAPAUCustomMarkData@ioGuildMarkMgr@@ABQAU34@@Z
_TEXT	SEGMENT
__Ptr$ = 8						; size = 4
__Val$ = 12						; size = 4
?construct@?$allocator@PAUCustomMarkData@ioGuildMarkMgr@@@std@@QAEXPAPAUCustomMarkData@ioGuildMarkMgr@@ABQAU34@@Z PROC ; std::allocator<ioGuildMarkMgr::CustomMarkData *>::construct, COMDAT
; _this$ = ecx

; 196  : 		{	// construct object at _Ptr with value _Val

  00000	55		 push	 ebp
  00001	8b ec		 mov	 ebp, esp

; 197  : 		_Construct(_Ptr, _Val);

  00003	8b 45 08	 mov	 eax, DWORD PTR __Ptr$[ebp]
  00006	85 c0		 test	 eax, eax
  00008	74 07		 je	 SHORT $LN5@construct@2
  0000a	8b 4d 0c	 mov	 ecx, DWORD PTR __Val$[ebp]
  0000d	8b 09		 mov	 ecx, DWORD PTR [ecx]
  0000f	89 08		 mov	 DWORD PTR [eax], ecx
$LN5@construct@2:

; 198  : 		}

  00011	5d		 pop	 ebp
  00012	c2 08 00	 ret	 8
?construct@?$allocator@PAUCustomMarkData@ioGuildMarkMgr@@@std@@QAEXPAPAUCustomMarkData@ioGuildMarkMgr@@ABQAU34@@Z ENDP ; std::allocator<ioGuildMarkMgr::CustomMarkData *>::construct
_TEXT	ENDS
PUBLIC	?destroy@?$allocator@U_Node@?$_List_nod@KV?$allocator@K@std@@@std@@@std@@QAEXPAU_Node@?$_List_nod@KV?$allocator@K@std@@@2@@Z ; std::allocator<std::_List_nod<unsigned long,std::allocator<unsigned long> >::_Node>::destroy
; Function compile flags: /Ogsp
;	COMDAT ?destroy@?$allocator@U_Node@?$_List_nod@KV?$allocator@K@std@@@std@@@std@@QAEXPAU_Node@?$_List_nod@KV?$allocator@K@std@@@2@@Z
_TEXT	SEGMENT
__Ptr$ = 8						; size = 4
?destroy@?$allocator@U_Node@?$_List_nod@KV?$allocator@K@std@@@std@@@std@@QAEXPAU_Node@?$_List_nod@KV?$allocator@K@std@@@2@@Z PROC ; std::allocator<std::_List_nod<unsigned long,std::allocator<unsigned long> >::_Node>::destroy, COMDAT
; _this$ = ecx

; 213  : 		_Destroy(_Ptr);
; 214  : 		}

  00000	c2 04 00	 ret	 4
?destroy@?$allocator@U_Node@?$_List_nod@KV?$allocator@K@std@@@std@@@std@@QAEXPAU_Node@?$_List_nod@KV?$allocator@K@std@@@2@@Z ENDP ; std::allocator<std::_List_nod<unsigned long,std::allocator<unsigned long> >::_Node>::destroy
_TEXT	ENDS
PUBLIC	?max_size@?$_Tree@V?$_Tmap_traits@KPAVioUIRenderImage@@U?$less@K@std@@V?$allocator@U?$pair@$$CBKPAVioUIRenderImage@@@std@@@3@$0A@@std@@@std@@QBEIXZ ; std::_Tree<std::_Tmap_traits<unsigned long,ioUIRenderImage *,std::less<unsigned long>,std::allocator<std::pair<unsigned long const ,ioUIRenderImage *> >,0> >::max_size
; Function compile flags: /Ogsp
; File c:\program files (x86)\microsoft visual studio 10.0\vc\include\xtree
;	COMDAT ?max_size@?$_Tree@V?$_Tmap_traits@KPAVioUIRenderImage@@U?$less@K@std@@V?$allocator@U?$pair@$$CBKPAVioUIRenderImage@@@std@@@3@$0A@@std@@@std@@QBEIXZ
_TEXT	SEGMENT
?max_size@?$_Tree@V?$_Tmap_traits@KPAVioUIRenderImage@@U?$less@K@std@@V?$allocator@U?$pair@$$CBKPAVioUIRenderImage@@@std@@@3@$0A@@std@@@std@@QBEIXZ PROC ; std::_Tree<std::_Tmap_traits<unsigned long,ioUIRenderImage *,std::less<unsigned long>,std::allocator<std::pair<unsigned long const ,ioUIRenderImage *> >,0> >::max_size, COMDAT
; _this$ = ecx

; 874  : 		return (this->_Alval.max_size());

  00000	b8 ff ff ff 1f	 mov	 eax, 536870911		; 1fffffffH

; 875  : 		}

  00005	c3		 ret	 0
?max_size@?$_Tree@V?$_Tmap_traits@KPAVioUIRenderImage@@U?$less@K@std@@V?$allocator@U?$pair@$$CBKPAVioUIRenderImage@@@std@@@3@$0A@@std@@@std@@QBEIXZ ENDP ; std::_Tree<std::_Tmap_traits<unsigned long,ioUIRenderImage *,std::less<unsigned long>,std::allocator<std::pair<unsigned long const ,ioUIRenderImage *> >,0> >::max_size
_TEXT	ENDS
PUBLIC	??F?$_Tree_const_iterator@V?$_Tree_val@V?$_Tmap_traits@KPAVioUIRenderImage@@U?$less@K@std@@V?$allocator@U?$pair@$$CBKPAVioUIRenderImage@@@std@@@3@$0A@@std@@@std@@@std@@QAEAAV01@XZ ; std::_Tree_const_iterator<std::_Tree_val<std::_Tmap_traits<unsigned long,ioUIRenderImage *,std::less<unsigned long>,std::allocator<std::pair<unsigned long const ,ioUIRenderImage *> >,0> > >::operator--
; Function compile flags: /Ogsp
;	COMDAT ??F?$_Tree_const_iterator@V?$_Tree_val@V?$_Tmap_traits@KPAVioUIRenderImage@@U?$less@K@std@@V?$allocator@U?$pair@$$CBKPAVioUIRenderImage@@@std@@@3@$0A@@std@@@std@@@std@@QAEAAV01@XZ
_TEXT	SEGMENT
??F?$_Tree_const_iterator@V?$_Tree_val@V?$_Tmap_traits@KPAVioUIRenderImage@@U?$less@K@std@@V?$allocator@U?$pair@$$CBKPAVioUIRenderImage@@@std@@@3@$0A@@std@@@std@@@std@@QAEAAV01@XZ PROC ; std::_Tree_const_iterator<std::_Tree_val<std::_Tmap_traits<unsigned long,ioUIRenderImage *,std::less<unsigned long>,std::allocator<std::pair<unsigned long const ,ioUIRenderImage *> >,0> > >::operator--, COMDAT
; _this$ = ecx

; 277  : 		{	// predecrement

  00000	56		 push	 esi
  00001	8b f1		 mov	 esi, ecx

; 278  :  #if _ITERATOR_DEBUG_LEVEL == 2
; 279  : 		if (this->_Getcont() == 0
; 280  : 			|| this->_Ptr == 0)
; 281  : 			{	// report error
; 282  : 			_DEBUG_ERROR("map/set iterator not decrementable");
; 283  : 			_SCL_SECURE_OUT_OF_RANGE;
; 284  : 			}
; 285  : 
; 286  : 		_Nodeptr _Ptrsav = this->_Ptr;
; 287  : 		--(*(_Mybase *)this);
; 288  : 		if (_Ptrsav == this->_Ptr)
; 289  : 			{	// report error
; 290  : 			_DEBUG_ERROR("map/set iterator not decrementable");
; 291  : 			_SCL_SECURE_OUT_OF_RANGE;
; 292  : 			}
; 293  : 
; 294  :  #elif _ITERATOR_DEBUG_LEVEL == 1
; 295  : 		_SCL_SECURE_VALIDATE(this->_Getcont() != 0 && this->_Ptr != 0);
; 296  : 
; 297  : 		_Nodeptr _Ptrsav = this->_Ptr;
; 298  : 		--(*(_Mybase *)this);
; 299  : 		_SCL_SECURE_VALIDATE(_Ptrsav != this->_Ptr);
; 300  : 
; 301  :  #else /* _ITERATOR_DEBUG_LEVEL == 0 */
; 302  : 		--(*(_Mybase *)this);

  00003	e8 00 00 00 00	 call	 ??F?$_Tree_unchecked_const_iterator@V?$_Tree_val@V?$_Tmap_traits@KPAVioUIRenderImage@@U?$less@K@std@@V?$allocator@U?$pair@$$CBKPAVioUIRenderImage@@@std@@@3@$0A@@std@@@std@@U_Iterator_base0@2@@std@@QAEAAV01@XZ ; std::_Tree_unchecked_const_iterator<std::_Tree_val<std::_Tmap_traits<unsigned long,ioUIRenderImage *,std::less<unsigned long>,std::allocator<std::pair<unsigned long const ,ioUIRenderImage *> >,0> >,std::_Iterator_base0>::operator--

; 303  :  #endif /* _ITERATOR_DEBUG_LEVEL */
; 304  : 
; 305  : 		return (*this);

  00008	8b c6		 mov	 eax, esi
  0000a	5e		 pop	 esi

; 306  : 		}

  0000b	c3		 ret	 0
??F?$_Tree_const_iterator@V?$_Tree_val@V?$_Tmap_traits@KPAVioUIRenderImage@@U?$less@K@std@@V?$allocator@U?$pair@$$CBKPAVioUIRenderImage@@@std@@@3@$0A@@std@@@std@@@std@@QAEAAV01@XZ ENDP ; std::_Tree_const_iterator<std::_Tree_val<std::_Tmap_traits<unsigned long,ioUIRenderImage *,std::less<unsigned long>,std::allocator<std::pair<unsigned long const ,ioUIRenderImage *> >,0> > >::operator--
_TEXT	ENDS
PUBLIC	??0?$_Pair_base@V?$_Tree_iterator@V?$_Tree_val@V?$_Tmap_traits@KPAVioUIRenderImage@@U?$less@K@std@@V?$allocator@U?$pair@$$CBKPAVioUIRenderImage@@@std@@@3@$0A@@std@@@std@@@std@@_N@std@@QAE@$$QAV?$_Tree_iterator@V?$_Tree_val@V?$_Tmap_traits@KPAVioUIRenderImage@@U?$less@K@std@@V?$allocator@U?$pair@$$CBKPAVioUIRenderImage@@@std@@@3@$0A@@std@@@std@@@1@$$QA_N@Z ; std::_Pair_base<std::_Tree_iterator<std::_Tree_val<std::_Tmap_traits<unsigned long,ioUIRenderImage *,std::less<unsigned long>,std::allocator<std::pair<unsigned long const ,ioUIRenderImage *> >,0> > >,bool>::_Pair_base<std::_Tree_iterator<std::_Tree_val<std::_Tmap_traits<unsigned long,ioUIRenderImage *,std::less<unsigned long>,std::allocator<std::pair<unsigned long const ,ioUIRenderImage *> >,0> > >,bool>
; Function compile flags: /Ogsp
; File c:\program files (x86)\microsoft visual studio 10.0\vc\include\utility
;	COMDAT ??0?$_Pair_base@V?$_Tree_iterator@V?$_Tree_val@V?$_Tmap_traits@KPAVioUIRenderImage@@U?$less@K@std@@V?$allocator@U?$pair@$$CBKPAVioUIRenderImage@@@std@@@3@$0A@@std@@@std@@@std@@_N@std@@QAE@$$QAV?$_Tree_iterator@V?$_Tree_val@V?$_Tmap_traits@KPAVioUIRenderImage@@U?$less@K@std@@V?$allocator@U?$pair@$$CBKPAVioUIRenderImage@@@std@@@3@$0A@@std@@@std@@@1@$$QA_N@Z
_TEXT	SEGMENT
__Val1$ = 8						; size = 4
__Val2$ = 12						; size = 4
??0?$_Pair_base@V?$_Tree_iterator@V?$_Tree_val@V?$_Tmap_traits@KPAVioUIRenderImage@@U?$less@K@std@@V?$allocator@U?$pair@$$CBKPAVioUIRenderImage@@@std@@@3@$0A@@std@@@std@@@std@@_N@std@@QAE@$$QAV?$_Tree_iterator@V?$_Tree_val@V?$_Tmap_traits@KPAVioUIRenderImage@@U?$less@K@std@@V?$allocator@U?$pair@$$CBKPAVioUIRenderImage@@@std@@@3@$0A@@std@@@std@@@1@$$QA_N@Z PROC ; std::_Pair_base<std::_Tree_iterator<std::_Tree_val<std::_Tmap_traits<unsigned long,ioUIRenderImage *,std::less<unsigned long>,std::allocator<std::pair<unsigned long const ,ioUIRenderImage *> >,0> > >,bool>::_Pair_base<std::_Tree_iterator<std::_Tree_val<std::_Tmap_traits<unsigned long,ioUIRenderImage *,std::less<unsigned long>,std::allocator<std::pair<unsigned long const ,ioUIRenderImage *> >,0> > >,bool>, COMDAT
; _this$ = ecx

; 145  : 		{	// construct from specified values

  00000	55		 push	 ebp
  00001	8b ec		 mov	 ebp, esp
  00003	8b c1		 mov	 eax, ecx
  00005	8b 4d 08	 mov	 ecx, DWORD PTR __Val1$[ebp]
  00008	8b 09		 mov	 ecx, DWORD PTR [ecx]
  0000a	89 08		 mov	 DWORD PTR [eax], ecx
  0000c	8b 4d 0c	 mov	 ecx, DWORD PTR __Val2$[ebp]
  0000f	8a 09		 mov	 cl, BYTE PTR [ecx]
  00011	88 48 04	 mov	 BYTE PTR [eax+4], cl

; 146  : 		}

  00014	5d		 pop	 ebp
  00015	c2 08 00	 ret	 8
??0?$_Pair_base@V?$_Tree_iterator@V?$_Tree_val@V?$_Tmap_traits@KPAVioUIRenderImage@@U?$less@K@std@@V?$allocator@U?$pair@$$CBKPAVioUIRenderImage@@@std@@@3@$0A@@std@@@std@@@std@@_N@std@@QAE@$$QAV?$_Tree_iterator@V?$_Tree_val@V?$_Tmap_traits@KPAVioUIRenderImage@@U?$less@K@std@@V?$allocator@U?$pair@$$CBKPAVioUIRenderImage@@@std@@@3@$0A@@std@@@std@@@1@$$QA_N@Z ENDP ; std::_Pair_base<std::_Tree_iterator<std::_Tree_val<std::_Tmap_traits<unsigned long,ioUIRenderImage *,std::less<unsigned long>,std::allocator<std::pair<unsigned long const ,ioUIRenderImage *> >,0> > >,bool>::_Pair_base<std::_Tree_iterator<std::_Tree_val<std::_Tmap_traits<unsigned long,ioUIRenderImage *,std::less<unsigned long>,std::allocator<std::pair<unsigned long const ,ioUIRenderImage *> >,0> > >,bool>
_TEXT	ENDS
PUBLIC	??$_Rechecked@V?$_List_val@KV?$allocator@K@std@@@std@@@std@@YAAAV?$_List_iterator@V?$_List_val@KV?$allocator@K@std@@@std@@@0@AAV10@V?$_List_unchecked_iterator@V?$_List_val@KV?$allocator@K@std@@@std@@@0@@Z ; std::_Rechecked<std::_List_val<unsigned long,std::allocator<unsigned long> > >
; Function compile flags: /Ogsp
; File c:\program files (x86)\microsoft visual studio 10.0\vc\include\list
;	COMDAT ??$_Rechecked@V?$_List_val@KV?$allocator@K@std@@@std@@@std@@YAAAV?$_List_iterator@V?$_List_val@KV?$allocator@K@std@@@std@@@0@AAV10@V?$_List_unchecked_iterator@V?$_List_val@KV?$allocator@K@std@@@std@@@0@@Z
_TEXT	SEGMENT
__Iter$ = 8						; size = 4
__Right$ = 12						; size = 4
??$_Rechecked@V?$_List_val@KV?$allocator@K@std@@@std@@@std@@YAAAV?$_List_iterator@V?$_List_val@KV?$allocator@K@std@@@std@@@0@AAV10@V?$_List_unchecked_iterator@V?$_List_val@KV?$allocator@K@std@@@std@@@0@@Z PROC ; std::_Rechecked<std::_List_val<unsigned long,std::allocator<unsigned long> > >, COMDAT

; 407  : 	{	// convert to checked

  00000	55		 push	 ebp
  00001	8b ec		 mov	 ebp, esp

; 408  : 	return (_Iter._Rechecked(_Right));

  00003	8b 45 08	 mov	 eax, DWORD PTR __Iter$[ebp]
  00006	8b 4d 0c	 mov	 ecx, DWORD PTR __Right$[ebp]
  00009	89 08		 mov	 DWORD PTR [eax], ecx

; 409  : 	}

  0000b	5d		 pop	 ebp
  0000c	c3		 ret	 0
??$_Rechecked@V?$_List_val@KV?$allocator@K@std@@@std@@@std@@YAAAV?$_List_iterator@V?$_List_val@KV?$allocator@K@std@@@std@@@0@AAV10@V?$_List_unchecked_iterator@V?$_List_val@KV?$allocator@K@std@@@std@@@0@@Z ENDP ; std::_Rechecked<std::_List_val<unsigned long,std::allocator<unsigned long> > >
_TEXT	ENDS
PUBLIC	??$encodeString@$0BF@@ioINILoader_e@@AAEPADAAY0BF@$$CBDPAD@Z ; ioINILoader_e::encodeString<21>
; Function compile flags: /Ogsp
; File d:\lost saga for developer\youtube\tutorial\source\src\io3dengine\ioiniloader.h
;	COMDAT ??$encodeString@$0BF@@ioINILoader_e@@AAEPADAAY0BF@$$CBDPAD@Z
_TEXT	SEGMENT
_s$ = 8							; size = 4
_e$ = 12						; size = 4
??$encodeString@$0BF@@ioINILoader_e@@AAEPADAAY0BF@$$CBDPAD@Z PROC ; ioINILoader_e::encodeString<21>, COMDAT
; _this$ = ecx

; 215  : 	{

  00000	55		 push	 ebp
  00001	8b ec		 mov	 ebp, esp

; 216  : 		__ENCSTR(s, e);

  00003	8b 4d 08	 mov	 ecx, DWORD PTR _s$[ebp]
  00006	8a 11		 mov	 dl, BYTE PTR [ecx]
  00008	8b 45 0c	 mov	 eax, DWORD PTR _e$[ebp]
  0000b	53		 push	 ebx
  0000c	84 d2		 test	 dl, dl
  0000e	0f 84 6a 04 00
	00		 je	 $LN96@encodeStri
  00014	80 f2 ed	 xor	 dl, -19			; ffffffedH
  00017	88 10		 mov	 BYTE PTR [eax], dl
  00019	8a 51 01	 mov	 dl, BYTE PTR [ecx+1]
  0001c	84 d2		 test	 dl, dl
  0001e	0f 84 54 04 00
	00		 je	 $LN95@encodeStri
  00024	80 f2 ec	 xor	 dl, -20			; ffffffecH
  00027	88 50 01	 mov	 BYTE PTR [eax+1], dl
  0002a	8a 51 02	 mov	 dl, BYTE PTR [ecx+2]
  0002d	84 d2		 test	 dl, dl
  0002f	0f 84 3d 04 00
	00		 je	 $LN94@encodeStri
  00035	b3 eb		 mov	 bl, -21			; ffffffebH
  00037	32 d3		 xor	 dl, bl
  00039	88 50 02	 mov	 BYTE PTR [eax+2], dl
  0003c	8a 51 03	 mov	 dl, BYTE PTR [ecx+3]
  0003f	84 d2		 test	 dl, dl
  00041	0f 84 25 04 00
	00		 je	 $LN93@encodeStri
  00047	80 f2 ea	 xor	 dl, -22			; ffffffeaH
  0004a	88 50 03	 mov	 BYTE PTR [eax+3], dl
  0004d	8a 51 04	 mov	 dl, BYTE PTR [ecx+4]
  00050	84 d2		 test	 dl, dl
  00052	0f 84 0e 04 00
	00		 je	 $LN92@encodeStri
  00058	80 f2 ed	 xor	 dl, -19			; ffffffedH
  0005b	88 50 04	 mov	 BYTE PTR [eax+4], dl
  0005e	8a 51 05	 mov	 dl, BYTE PTR [ecx+5]
  00061	84 d2		 test	 dl, dl
  00063	0f 84 f7 03 00
	00		 je	 $LN91@encodeStri
  00069	80 f2 ec	 xor	 dl, -20			; ffffffecH
  0006c	88 50 05	 mov	 BYTE PTR [eax+5], dl
  0006f	8a 51 06	 mov	 dl, BYTE PTR [ecx+6]
  00072	84 d2		 test	 dl, dl
  00074	0f 84 e1 03 00
	00		 je	 $LN90@encodeStri
  0007a	32 d3		 xor	 dl, bl
  0007c	88 50 06	 mov	 BYTE PTR [eax+6], dl
  0007f	8a 51 07	 mov	 dl, BYTE PTR [ecx+7]
  00082	84 d2		 test	 dl, dl
  00084	0f 84 cb 03 00
	00		 je	 $LN89@encodeStri
  0008a	80 f2 ea	 xor	 dl, -22			; ffffffeaH
  0008d	88 50 07	 mov	 BYTE PTR [eax+7], dl
  00090	8a 51 08	 mov	 dl, BYTE PTR [ecx+8]
  00093	84 d2		 test	 dl, dl
  00095	0f 84 b4 03 00
	00		 je	 $LN88@encodeStri
  0009b	80 f2 ed	 xor	 dl, -19			; ffffffedH
  0009e	88 50 08	 mov	 BYTE PTR [eax+8], dl
  000a1	8a 51 09	 mov	 dl, BYTE PTR [ecx+9]
  000a4	84 d2		 test	 dl, dl
  000a6	0f 84 9d 03 00
	00		 je	 $LN87@encodeStri
  000ac	80 f2 ec	 xor	 dl, -20			; ffffffecH
  000af	88 50 09	 mov	 BYTE PTR [eax+9], dl
  000b2	8a 51 0a	 mov	 dl, BYTE PTR [ecx+10]
  000b5	84 d2		 test	 dl, dl
  000b7	0f 84 87 03 00
	00		 je	 $LN86@encodeStri
  000bd	32 d3		 xor	 dl, bl
  000bf	88 50 0a	 mov	 BYTE PTR [eax+10], dl
  000c2	8a 51 0b	 mov	 dl, BYTE PTR [ecx+11]
  000c5	84 d2		 test	 dl, dl
  000c7	0f 84 71 03 00
	00		 je	 $LN85@encodeStri
  000cd	80 f2 ea	 xor	 dl, -22			; ffffffeaH
  000d0	88 50 0b	 mov	 BYTE PTR [eax+11], dl
  000d3	8a 51 0c	 mov	 dl, BYTE PTR [ecx+12]
  000d6	84 d2		 test	 dl, dl
  000d8	0f 84 5a 03 00
	00		 je	 $LN84@encodeStri
  000de	80 f2 ed	 xor	 dl, -19			; ffffffedH
  000e1	88 50 0c	 mov	 BYTE PTR [eax+12], dl
  000e4	8a 51 0d	 mov	 dl, BYTE PTR [ecx+13]
  000e7	84 d2		 test	 dl, dl
  000e9	0f 84 43 03 00
	00		 je	 $LN83@encodeStri
  000ef	80 f2 ec	 xor	 dl, -20			; ffffffecH
  000f2	88 50 0d	 mov	 BYTE PTR [eax+13], dl
  000f5	8a 51 0e	 mov	 dl, BYTE PTR [ecx+14]
  000f8	84 d2		 test	 dl, dl
  000fa	0f 84 2d 03 00
	00		 je	 $LN82@encodeStri
  00100	32 d3		 xor	 dl, bl
  00102	88 50 0e	 mov	 BYTE PTR [eax+14], dl
  00105	8a 51 0f	 mov	 dl, BYTE PTR [ecx+15]
  00108	84 d2		 test	 dl, dl
  0010a	0f 84 17 03 00
	00		 je	 $LN81@encodeStri
  00110	80 f2 ea	 xor	 dl, -22			; ffffffeaH
  00113	88 50 0f	 mov	 BYTE PTR [eax+15], dl
  00116	8a 51 10	 mov	 dl, BYTE PTR [ecx+16]
  00119	84 d2		 test	 dl, dl
  0011b	0f 84 00 03 00
	00		 je	 $LN80@encodeStri
  00121	80 f2 ed	 xor	 dl, -19			; ffffffedH
  00124	88 50 10	 mov	 BYTE PTR [eax+16], dl
  00127	8a 51 11	 mov	 dl, BYTE PTR [ecx+17]
  0012a	84 d2		 test	 dl, dl
  0012c	0f 84 e9 02 00
	00		 je	 $LN79@encodeStri
  00132	80 f2 ec	 xor	 dl, -20			; ffffffecH
  00135	88 50 11	 mov	 BYTE PTR [eax+17], dl
  00138	8a 51 12	 mov	 dl, BYTE PTR [ecx+18]
  0013b	84 d2		 test	 dl, dl
  0013d	0f 84 d3 02 00
	00		 je	 $LN78@encodeStri
  00143	32 d3		 xor	 dl, bl
  00145	88 50 12	 mov	 BYTE PTR [eax+18], dl
  00148	8a 51 13	 mov	 dl, BYTE PTR [ecx+19]
  0014b	84 d2		 test	 dl, dl
  0014d	0f 84 bd 02 00
	00		 je	 $LN77@encodeStri
  00153	80 f2 ea	 xor	 dl, -22			; ffffffeaH
  00156	88 50 13	 mov	 BYTE PTR [eax+19], dl
  00159	8a 51 14	 mov	 dl, BYTE PTR [ecx+20]
  0015c	84 d2		 test	 dl, dl
  0015e	0f 84 a6 02 00
	00		 je	 $LN76@encodeStri
  00164	80 f2 ed	 xor	 dl, -19			; ffffffedH
  00167	88 50 14	 mov	 BYTE PTR [eax+20], dl
  0016a	8a 51 15	 mov	 dl, BYTE PTR [ecx+21]
  0016d	84 d2		 test	 dl, dl
  0016f	0f 84 8f 02 00
	00		 je	 $LN75@encodeStri
  00175	80 f2 ec	 xor	 dl, -20			; ffffffecH
  00178	88 50 15	 mov	 BYTE PTR [eax+21], dl
  0017b	8a 51 16	 mov	 dl, BYTE PTR [ecx+22]
  0017e	84 d2		 test	 dl, dl
  00180	0f 84 79 02 00
	00		 je	 $LN74@encodeStri
  00186	32 d3		 xor	 dl, bl
  00188	88 50 16	 mov	 BYTE PTR [eax+22], dl
  0018b	8a 51 17	 mov	 dl, BYTE PTR [ecx+23]
  0018e	84 d2		 test	 dl, dl
  00190	0f 84 60 02 00
	00		 je	 $LN73@encodeStri
  00196	80 f2 ea	 xor	 dl, -22			; ffffffeaH
  00199	88 50 17	 mov	 BYTE PTR [eax+23], dl
  0019c	8a 51 18	 mov	 dl, BYTE PTR [ecx+24]
  0019f	84 d2		 test	 dl, dl
  001a1	0f 84 46 02 00
	00		 je	 $LN72@encodeStri
  001a7	80 f2 ed	 xor	 dl, -19			; ffffffedH
  001aa	88 50 18	 mov	 BYTE PTR [eax+24], dl
  001ad	8a 51 19	 mov	 dl, BYTE PTR [ecx+25]
  001b0	84 d2		 test	 dl, dl
  001b2	0f 84 2c 02 00
	00		 je	 $LN71@encodeStri
  001b8	80 f2 ec	 xor	 dl, -20			; ffffffecH
  001bb	88 50 19	 mov	 BYTE PTR [eax+25], dl
  001be	8a 51 1a	 mov	 dl, BYTE PTR [ecx+26]
  001c1	84 d2		 test	 dl, dl
  001c3	0f 84 13 02 00
	00		 je	 $LN70@encodeStri
  001c9	32 d3		 xor	 dl, bl
  001cb	88 50 1a	 mov	 BYTE PTR [eax+26], dl
  001ce	8a 51 1b	 mov	 dl, BYTE PTR [ecx+27]
  001d1	84 d2		 test	 dl, dl
  001d3	0f 84 fa 01 00
	00		 je	 $LN69@encodeStri
  001d9	80 f2 ea	 xor	 dl, -22			; ffffffeaH
  001dc	88 50 1b	 mov	 BYTE PTR [eax+27], dl
  001df	8a 51 1c	 mov	 dl, BYTE PTR [ecx+28]
  001e2	84 d2		 test	 dl, dl
  001e4	0f 84 e0 01 00
	00		 je	 $LN68@encodeStri
  001ea	80 f2 ed	 xor	 dl, -19			; ffffffedH
  001ed	88 50 1c	 mov	 BYTE PTR [eax+28], dl
  001f0	8a 51 1d	 mov	 dl, BYTE PTR [ecx+29]
  001f3	84 d2		 test	 dl, dl
  001f5	0f 84 c6 01 00
	00		 je	 $LN67@encodeStri
  001fb	80 f2 ec	 xor	 dl, -20			; ffffffecH
  001fe	88 50 1d	 mov	 BYTE PTR [eax+29], dl
  00201	8a 51 1e	 mov	 dl, BYTE PTR [ecx+30]
  00204	84 d2		 test	 dl, dl
  00206	0f 84 ad 01 00
	00		 je	 $LN66@encodeStri
  0020c	32 d3		 xor	 dl, bl
  0020e	88 50 1e	 mov	 BYTE PTR [eax+30], dl
  00211	8a 51 1f	 mov	 dl, BYTE PTR [ecx+31]
  00214	84 d2		 test	 dl, dl
  00216	0f 84 94 01 00
	00		 je	 $LN65@encodeStri
  0021c	80 f2 ea	 xor	 dl, -22			; ffffffeaH
  0021f	88 50 1f	 mov	 BYTE PTR [eax+31], dl
  00222	8a 51 20	 mov	 dl, BYTE PTR [ecx+32]
  00225	84 d2		 test	 dl, dl
  00227	0f 84 7a 01 00
	00		 je	 $LN64@encodeStri
  0022d	80 f2 ed	 xor	 dl, -19			; ffffffedH
  00230	88 50 20	 mov	 BYTE PTR [eax+32], dl
  00233	8a 51 21	 mov	 dl, BYTE PTR [ecx+33]
  00236	84 d2		 test	 dl, dl
  00238	0f 84 60 01 00
	00		 je	 $LN63@encodeStri
  0023e	80 f2 ec	 xor	 dl, -20			; ffffffecH
  00241	88 50 21	 mov	 BYTE PTR [eax+33], dl
  00244	8a 51 22	 mov	 dl, BYTE PTR [ecx+34]
  00247	84 d2		 test	 dl, dl
  00249	0f 84 47 01 00
	00		 je	 $LN62@encodeStri
  0024f	32 d3		 xor	 dl, bl
  00251	88 50 22	 mov	 BYTE PTR [eax+34], dl
  00254	8a 51 23	 mov	 dl, BYTE PTR [ecx+35]
  00257	84 d2		 test	 dl, dl
  00259	0f 84 2e 01 00
	00		 je	 $LN61@encodeStri
  0025f	80 f2 ea	 xor	 dl, -22			; ffffffeaH
  00262	88 50 23	 mov	 BYTE PTR [eax+35], dl
  00265	8a 51 24	 mov	 dl, BYTE PTR [ecx+36]
  00268	84 d2		 test	 dl, dl
  0026a	0f 84 14 01 00
	00		 je	 $LN60@encodeStri
  00270	80 f2 ed	 xor	 dl, -19			; ffffffedH
  00273	88 50 24	 mov	 BYTE PTR [eax+36], dl
  00276	8a 51 25	 mov	 dl, BYTE PTR [ecx+37]
  00279	84 d2		 test	 dl, dl
  0027b	0f 84 fa 00 00
	00		 je	 $LN59@encodeStri
  00281	80 f2 ec	 xor	 dl, -20			; ffffffecH
  00284	88 50 25	 mov	 BYTE PTR [eax+37], dl
  00287	8a 51 26	 mov	 dl, BYTE PTR [ecx+38]
  0028a	84 d2		 test	 dl, dl
  0028c	0f 84 e1 00 00
	00		 je	 $LN58@encodeStri
  00292	32 d3		 xor	 dl, bl
  00294	88 50 26	 mov	 BYTE PTR [eax+38], dl
  00297	8a 51 27	 mov	 dl, BYTE PTR [ecx+39]
  0029a	84 d2		 test	 dl, dl
  0029c	0f 84 c8 00 00
	00		 je	 $LN57@encodeStri
  002a2	80 f2 ea	 xor	 dl, -22			; ffffffeaH
  002a5	88 50 27	 mov	 BYTE PTR [eax+39], dl
  002a8	8a 51 28	 mov	 dl, BYTE PTR [ecx+40]
  002ab	84 d2		 test	 dl, dl
  002ad	0f 84 ae 00 00
	00		 je	 $LN56@encodeStri
  002b3	80 f2 ed	 xor	 dl, -19			; ffffffedH
  002b6	88 50 28	 mov	 BYTE PTR [eax+40], dl
  002b9	8a 51 29	 mov	 dl, BYTE PTR [ecx+41]
  002bc	84 d2		 test	 dl, dl
  002be	0f 84 94 00 00
	00		 je	 $LN55@encodeStri
  002c4	80 f2 ec	 xor	 dl, -20			; ffffffecH
  002c7	88 50 29	 mov	 BYTE PTR [eax+41], dl
  002ca	8a 51 2a	 mov	 dl, BYTE PTR [ecx+42]
  002cd	84 d2		 test	 dl, dl
  002cf	74 7f		 je	 SHORT $LN54@encodeStri
  002d1	32 d3		 xor	 dl, bl
  002d3	88 50 2a	 mov	 BYTE PTR [eax+42], dl
  002d6	8a 51 2b	 mov	 dl, BYTE PTR [ecx+43]
  002d9	84 d2		 test	 dl, dl
  002db	74 6a		 je	 SHORT $LN53@encodeStri
  002dd	80 f2 ea	 xor	 dl, -22			; ffffffeaH
  002e0	88 50 2b	 mov	 BYTE PTR [eax+43], dl
  002e3	8a 51 2c	 mov	 dl, BYTE PTR [ecx+44]
  002e6	84 d2		 test	 dl, dl
  002e8	74 54		 je	 SHORT $LN52@encodeStri
  002ea	80 f2 ed	 xor	 dl, -19			; ffffffedH
  002ed	88 50 2c	 mov	 BYTE PTR [eax+44], dl
  002f0	8a 51 2d	 mov	 dl, BYTE PTR [ecx+45]
  002f3	84 d2		 test	 dl, dl
  002f5	74 3e		 je	 SHORT $LN51@encodeStri
  002f7	80 f2 ec	 xor	 dl, -20			; ffffffecH
  002fa	88 50 2d	 mov	 BYTE PTR [eax+45], dl
  002fd	8a 51 2e	 mov	 dl, BYTE PTR [ecx+46]
  00300	84 d2		 test	 dl, dl
  00302	74 29		 je	 SHORT $LN50@encodeStri
  00304	32 d3		 xor	 dl, bl
  00306	88 50 2e	 mov	 BYTE PTR [eax+46], dl
  00309	8a 51 2f	 mov	 dl, BYTE PTR [ecx+47]
  0030c	84 d2		 test	 dl, dl
  0030e	74 14		 je	 SHORT $LN49@encodeStri
  00310	80 f2 ea	 xor	 dl, -22			; ffffffeaH
  00313	88 50 2f	 mov	 BYTE PTR [eax+47], dl
  00316	8a 49 30	 mov	 cl, BYTE PTR [ecx+48]
  00319	80 f1 ed	 xor	 cl, -19			; ffffffedH
  0031c	88 48 30	 mov	 BYTE PTR [eax+48], cl
  0031f	e9 5d 01 00 00	 jmp	 $LN1@encodeStri
$LN49@encodeStri:
  00324	c6 40 2f ea	 mov	 BYTE PTR [eax+47], -22	; ffffffeaH
  00328	e9 54 01 00 00	 jmp	 $LN1@encodeStri
$LN50@encodeStri:
  0032d	88 58 2e	 mov	 BYTE PTR [eax+46], bl
  00330	e9 4c 01 00 00	 jmp	 $LN1@encodeStri
$LN51@encodeStri:
  00335	c6 40 2d ec	 mov	 BYTE PTR [eax+45], -20	; ffffffecH
  00339	e9 43 01 00 00	 jmp	 $LN1@encodeStri
$LN52@encodeStri:
  0033e	c6 40 2c ed	 mov	 BYTE PTR [eax+44], -19	; ffffffedH
  00342	e9 3a 01 00 00	 jmp	 $LN1@encodeStri
$LN53@encodeStri:
  00347	c6 40 2b ea	 mov	 BYTE PTR [eax+43], -22	; ffffffeaH
  0034b	e9 31 01 00 00	 jmp	 $LN1@encodeStri
$LN54@encodeStri:
  00350	88 58 2a	 mov	 BYTE PTR [eax+42], bl
  00353	e9 29 01 00 00	 jmp	 $LN1@encodeStri
$LN55@encodeStri:
  00358	c6 40 29 ec	 mov	 BYTE PTR [eax+41], -20	; ffffffecH
  0035c	e9 20 01 00 00	 jmp	 $LN1@encodeStri
$LN56@encodeStri:
  00361	c6 40 28 ed	 mov	 BYTE PTR [eax+40], -19	; ffffffedH
  00365	e9 17 01 00 00	 jmp	 $LN1@encodeStri
$LN57@encodeStri:
  0036a	c6 40 27 ea	 mov	 BYTE PTR [eax+39], -22	; ffffffeaH
  0036e	e9 0e 01 00 00	 jmp	 $LN1@encodeStri
$LN58@encodeStri:
  00373	88 58 26	 mov	 BYTE PTR [eax+38], bl
  00376	e9 06 01 00 00	 jmp	 $LN1@encodeStri
$LN59@encodeStri:
  0037b	c6 40 25 ec	 mov	 BYTE PTR [eax+37], -20	; ffffffecH
  0037f	e9 fd 00 00 00	 jmp	 $LN1@encodeStri
$LN60@encodeStri:
  00384	c6 40 24 ed	 mov	 BYTE PTR [eax+36], -19	; ffffffedH
  00388	e9 f4 00 00 00	 jmp	 $LN1@encodeStri
$LN61@encodeStri:
  0038d	c6 40 23 ea	 mov	 BYTE PTR [eax+35], -22	; ffffffeaH
  00391	e9 eb 00 00 00	 jmp	 $LN1@encodeStri
$LN62@encodeStri:
  00396	88 58 22	 mov	 BYTE PTR [eax+34], bl
  00399	e9 e3 00 00 00	 jmp	 $LN1@encodeStri
$LN63@encodeStri:
  0039e	c6 40 21 ec	 mov	 BYTE PTR [eax+33], -20	; ffffffecH
  003a2	e9 da 00 00 00	 jmp	 $LN1@encodeStri
$LN64@encodeStri:
  003a7	c6 40 20 ed	 mov	 BYTE PTR [eax+32], -19	; ffffffedH
  003ab	e9 d1 00 00 00	 jmp	 $LN1@encodeStri
$LN65@encodeStri:
  003b0	c6 40 1f ea	 mov	 BYTE PTR [eax+31], -22	; ffffffeaH
  003b4	e9 c8 00 00 00	 jmp	 $LN1@encodeStri
$LN66@encodeStri:
  003b9	88 58 1e	 mov	 BYTE PTR [eax+30], bl
  003bc	e9 c0 00 00 00	 jmp	 $LN1@encodeStri
$LN67@encodeStri:
  003c1	c6 40 1d ec	 mov	 BYTE PTR [eax+29], -20	; ffffffecH
  003c5	e9 b7 00 00 00	 jmp	 $LN1@encodeStri
$LN68@encodeStri:
  003ca	c6 40 1c ed	 mov	 BYTE PTR [eax+28], -19	; ffffffedH
  003ce	e9 ae 00 00 00	 jmp	 $LN1@encodeStri
$LN69@encodeStri:
  003d3	c6 40 1b ea	 mov	 BYTE PTR [eax+27], -22	; ffffffeaH
  003d7	e9 a5 00 00 00	 jmp	 $LN1@encodeStri
$LN70@encodeStri:
  003dc	88 58 1a	 mov	 BYTE PTR [eax+26], bl
  003df	e9 9d 00 00 00	 jmp	 $LN1@encodeStri
$LN71@encodeStri:
  003e4	c6 40 19 ec	 mov	 BYTE PTR [eax+25], -20	; ffffffecH
  003e8	e9 94 00 00 00	 jmp	 $LN1@encodeStri
$LN72@encodeStri:
  003ed	c6 40 18 ed	 mov	 BYTE PTR [eax+24], -19	; ffffffedH
  003f1	e9 8b 00 00 00	 jmp	 $LN1@encodeStri
$LN73@encodeStri:
  003f6	c6 40 17 ea	 mov	 BYTE PTR [eax+23], -22	; ffffffeaH
  003fa	e9 82 00 00 00	 jmp	 $LN1@encodeStri
$LN74@encodeStri:
  003ff	88 58 16	 mov	 BYTE PTR [eax+22], bl
  00402	eb 7d		 jmp	 SHORT $LN1@encodeStri
$LN75@encodeStri:
  00404	c6 40 15 ec	 mov	 BYTE PTR [eax+21], -20	; ffffffecH
  00408	eb 77		 jmp	 SHORT $LN1@encodeStri
$LN76@encodeStri:
  0040a	c6 40 14 ed	 mov	 BYTE PTR [eax+20], -19	; ffffffedH
  0040e	eb 71		 jmp	 SHORT $LN1@encodeStri
$LN77@encodeStri:
  00410	c6 40 13 ea	 mov	 BYTE PTR [eax+19], -22	; ffffffeaH
  00414	eb 6b		 jmp	 SHORT $LN1@encodeStri
$LN78@encodeStri:
  00416	88 58 12	 mov	 BYTE PTR [eax+18], bl
  00419	eb 66		 jmp	 SHORT $LN1@encodeStri
$LN79@encodeStri:
  0041b	c6 40 11 ec	 mov	 BYTE PTR [eax+17], -20	; ffffffecH
  0041f	eb 60		 jmp	 SHORT $LN1@encodeStri
$LN80@encodeStri:
  00421	c6 40 10 ed	 mov	 BYTE PTR [eax+16], -19	; ffffffedH
  00425	eb 5a		 jmp	 SHORT $LN1@encodeStri
$LN81@encodeStri:
  00427	c6 40 0f ea	 mov	 BYTE PTR [eax+15], -22	; ffffffeaH
  0042b	eb 54		 jmp	 SHORT $LN1@encodeStri
$LN82@encodeStri:
  0042d	88 58 0e	 mov	 BYTE PTR [eax+14], bl
  00430	eb 4f		 jmp	 SHORT $LN1@encodeStri
$LN83@encodeStri:
  00432	c6 40 0d ec	 mov	 BYTE PTR [eax+13], -20	; ffffffecH
  00436	eb 49		 jmp	 SHORT $LN1@encodeStri
$LN84@encodeStri:
  00438	c6 40 0c ed	 mov	 BYTE PTR [eax+12], -19	; ffffffedH
  0043c	eb 43		 jmp	 SHORT $LN1@encodeStri
$LN85@encodeStri:
  0043e	c6 40 0b ea	 mov	 BYTE PTR [eax+11], -22	; ffffffeaH
  00442	eb 3d		 jmp	 SHORT $LN1@encodeStri
$LN86@encodeStri:
  00444	88 58 0a	 mov	 BYTE PTR [eax+10], bl
  00447	eb 38		 jmp	 SHORT $LN1@encodeStri
$LN87@encodeStri:
  00449	c6 40 09 ec	 mov	 BYTE PTR [eax+9], -20	; ffffffecH
  0044d	eb 32		 jmp	 SHORT $LN1@encodeStri
$LN88@encodeStri:
  0044f	c6 40 08 ed	 mov	 BYTE PTR [eax+8], -19	; ffffffedH
  00453	eb 2c		 jmp	 SHORT $LN1@encodeStri
$LN89@encodeStri:
  00455	c6 40 07 ea	 mov	 BYTE PTR [eax+7], -22	; ffffffeaH
  00459	eb 26		 jmp	 SHORT $LN1@encodeStri
$LN90@encodeStri:
  0045b	88 58 06	 mov	 BYTE PTR [eax+6], bl
  0045e	eb 21		 jmp	 SHORT $LN1@encodeStri
$LN91@encodeStri:
  00460	c6 40 05 ec	 mov	 BYTE PTR [eax+5], -20	; ffffffecH
  00464	eb 1b		 jmp	 SHORT $LN1@encodeStri
$LN92@encodeStri:
  00466	c6 40 04 ed	 mov	 BYTE PTR [eax+4], -19	; ffffffedH
  0046a	eb 15		 jmp	 SHORT $LN1@encodeStri
$LN93@encodeStri:
  0046c	c6 40 03 ea	 mov	 BYTE PTR [eax+3], -22	; ffffffeaH
  00470	eb 0f		 jmp	 SHORT $LN1@encodeStri
$LN94@encodeStri:
  00472	c6 40 02 eb	 mov	 BYTE PTR [eax+2], -21	; ffffffebH
  00476	eb 09		 jmp	 SHORT $LN1@encodeStri
$LN95@encodeStri:
  00478	c6 40 01 ec	 mov	 BYTE PTR [eax+1], -20	; ffffffecH
  0047c	eb 03		 jmp	 SHORT $LN1@encodeStri
$LN96@encodeStri:
  0047e	c6 00 ed	 mov	 BYTE PTR [eax], -19	; ffffffedH
$LN1@encodeStri:
  00481	6a 05		 push	 5
  00483	5a		 pop	 edx
  00484	8b c8		 mov	 ecx, eax
  00486	c6 40 14 00	 mov	 BYTE PTR [eax+20], 0
  0048a	5b		 pop	 ebx
$LL104@encodeStri:
  0048b	81 31 ed ec eb
	ea		 xor	 DWORD PTR [ecx], -353637139 ; eaebecedH
  00491	83 c1 04	 add	 ecx, 4
  00494	4a		 dec	 edx
  00495	75 f4		 jne	 SHORT $LL104@encodeStri

; 217  : 		return e;
; 218  : 	}

  00497	5d		 pop	 ebp
  00498	c2 08 00	 ret	 8
??$encodeString@$0BF@@ioINILoader_e@@AAEPADAAY0BF@$$CBDPAD@Z ENDP ; ioINILoader_e::encodeString<21>
_TEXT	ENDS
PUBLIC	??$?0AAHPAVioUIRenderImage@@@?$_Pair_base@$$CBKPAVioUIRenderImage@@@std@@QAE@AAH$$QAPAVioUIRenderImage@@@Z ; std::_Pair_base<unsigned long const ,ioUIRenderImage *>::_Pair_base<unsigned long const ,ioUIRenderImage *><int &,ioUIRenderImage *>
; Function compile flags: /Ogsp
; File c:\program files (x86)\microsoft visual studio 10.0\vc\include\utility
;	COMDAT ??$?0AAHPAVioUIRenderImage@@@?$_Pair_base@$$CBKPAVioUIRenderImage@@@std@@QAE@AAH$$QAPAVioUIRenderImage@@@Z
_TEXT	SEGMENT
__Val1$ = 8						; size = 4
__Val2$ = 12						; size = 4
??$?0AAHPAVioUIRenderImage@@@?$_Pair_base@$$CBKPAVioUIRenderImage@@@std@@QAE@AAH$$QAPAVioUIRenderImage@@@Z PROC ; std::_Pair_base<unsigned long const ,ioUIRenderImage *>::_Pair_base<unsigned long const ,ioUIRenderImage *><int &,ioUIRenderImage *>, COMDAT
; _this$ = ecx

; 163  : 		{	// construct from moved values

  00000	55		 push	 ebp
  00001	8b ec		 mov	 ebp, esp
  00003	8b c1		 mov	 eax, ecx
  00005	8b 4d 08	 mov	 ecx, DWORD PTR __Val1$[ebp]
  00008	8b 09		 mov	 ecx, DWORD PTR [ecx]
  0000a	89 08		 mov	 DWORD PTR [eax], ecx
  0000c	8b 4d 0c	 mov	 ecx, DWORD PTR __Val2$[ebp]
  0000f	8b 09		 mov	 ecx, DWORD PTR [ecx]
  00011	89 48 04	 mov	 DWORD PTR [eax+4], ecx

; 164  : 		}

  00014	5d		 pop	 ebp
  00015	c2 08 00	 ret	 8
??$?0AAHPAVioUIRenderImage@@@?$_Pair_base@$$CBKPAVioUIRenderImage@@@std@@QAE@AAH$$QAPAVioUIRenderImage@@@Z ENDP ; std::_Pair_base<unsigned long const ,ioUIRenderImage *>::_Pair_base<unsigned long const ,ioUIRenderImage *><int &,ioUIRenderImage *>
_TEXT	ENDS
PUBLIC	??$?0AAKAAPAVioUIRenderImage@@@?$_Pair_base@$$CBKPAVioUIRenderImage@@@std@@QAE@AAKAAPAVioUIRenderImage@@@Z ; std::_Pair_base<unsigned long const ,ioUIRenderImage *>::_Pair_base<unsigned long const ,ioUIRenderImage *><unsigned long &,ioUIRenderImage * &>
; Function compile flags: /Ogsp
;	COMDAT ??$?0AAKAAPAVioUIRenderImage@@@?$_Pair_base@$$CBKPAVioUIRenderImage@@@std@@QAE@AAKAAPAVioUIRenderImage@@@Z
_TEXT	SEGMENT
__Val1$ = 8						; size = 4
__Val2$ = 12						; size = 4
??$?0AAKAAPAVioUIRenderImage@@@?$_Pair_base@$$CBKPAVioUIRenderImage@@@std@@QAE@AAKAAPAVioUIRenderImage@@@Z PROC ; std::_Pair_base<unsigned long const ,ioUIRenderImage *>::_Pair_base<unsigned long const ,ioUIRenderImage *><unsigned long &,ioUIRenderImage * &>, COMDAT
; _this$ = ecx

; 163  : 		{	// construct from moved values

  00000	55		 push	 ebp
  00001	8b ec		 mov	 ebp, esp
  00003	8b c1		 mov	 eax, ecx
  00005	8b 4d 08	 mov	 ecx, DWORD PTR __Val1$[ebp]
  00008	8b 09		 mov	 ecx, DWORD PTR [ecx]
  0000a	89 08		 mov	 DWORD PTR [eax], ecx
  0000c	8b 4d 0c	 mov	 ecx, DWORD PTR __Val2$[ebp]
  0000f	8b 09		 mov	 ecx, DWORD PTR [ecx]
  00011	89 48 04	 mov	 DWORD PTR [eax+4], ecx

; 164  : 		}

  00014	5d		 pop	 ebp
  00015	c2 08 00	 ret	 8
??$?0AAKAAPAVioUIRenderImage@@@?$_Pair_base@$$CBKPAVioUIRenderImage@@@std@@QAE@AAKAAPAVioUIRenderImage@@@Z ENDP ; std::_Pair_base<unsigned long const ,ioUIRenderImage *>::_Pair_base<unsigned long const ,ioUIRenderImage *><unsigned long &,ioUIRenderImage * &>
_TEXT	ENDS
PUBLIC	??$_Uninitialized_move@PAPAUCustomMarkData@ioGuildMarkMgr@@PAPAU12@V?$allocator@PAUCustomMarkData@ioGuildMarkMgr@@@std@@@std@@YAPAPAUCustomMarkData@ioGuildMarkMgr@@PAPAU12@00AAV?$allocator@PAUCustomMarkData@ioGuildMarkMgr@@@0@@Z ; std::_Uninitialized_move<ioGuildMarkMgr::CustomMarkData * *,ioGuildMarkMgr::CustomMarkData * *,std::allocator<ioGuildMarkMgr::CustomMarkData *> >
; Function compile flags: /Ogsp
; File c:\program files (x86)\microsoft visual studio 10.0\vc\include\memory
;	COMDAT ??$_Uninitialized_move@PAPAUCustomMarkData@ioGuildMarkMgr@@PAPAU12@V?$allocator@PAUCustomMarkData@ioGuildMarkMgr@@@std@@@std@@YAPAPAUCustomMarkData@ioGuildMarkMgr@@PAPAU12@00AAV?$allocator@PAUCustomMarkData@ioGuildMarkMgr@@@0@@Z
_TEXT	SEGMENT
__First$ = 8						; size = 4
__Last$ = 12						; size = 4
__Dest$ = 16						; size = 4
__Al$ = 20						; size = 4
??$_Uninitialized_move@PAPAUCustomMarkData@ioGuildMarkMgr@@PAPAU12@V?$allocator@PAUCustomMarkData@ioGuildMarkMgr@@@std@@@std@@YAPAPAUCustomMarkData@ioGuildMarkMgr@@PAPAU12@00AAV?$allocator@PAUCustomMarkData@ioGuildMarkMgr@@@0@@Z PROC ; std::_Uninitialized_move<ioGuildMarkMgr::CustomMarkData * *,ioGuildMarkMgr::CustomMarkData * *,std::allocator<ioGuildMarkMgr::CustomMarkData *> >, COMDAT

; 469  : 	{	// move [_First, _Last) to raw _Dest, using _Al

  00000	55		 push	 ebp
  00001	8b ec		 mov	 ebp, esp
  00003	56		 push	 esi

; 470  : 	return (_Uninit_move(_First, _Last, _Dest, _Al,
; 471  : 		_Val_type(_First), _Ptr_cat(_First, _Dest)));

  00004	8b 75 0c	 mov	 esi, DWORD PTR __Last$[ebp]
  00007	2b 75 08	 sub	 esi, DWORD PTR __First$[ebp]
  0000a	c1 fe 02	 sar	 esi, 2
  0000d	c1 e6 02	 shl	 esi, 2
  00010	56		 push	 esi
  00011	ff 75 08	 push	 DWORD PTR __First$[ebp]
  00014	ff 75 10	 push	 DWORD PTR __Dest$[ebp]
  00017	ff 15 00 00 00
	00		 call	 DWORD PTR __imp__memmove
  0001d	83 c4 0c	 add	 esp, 12			; 0000000cH
  00020	03 c6		 add	 eax, esi
  00022	5e		 pop	 esi

; 472  : 	}

  00023	5d		 pop	 ebp
  00024	c3		 ret	 0
??$_Uninitialized_move@PAPAUCustomMarkData@ioGuildMarkMgr@@PAPAU12@V?$allocator@PAUCustomMarkData@ioGuildMarkMgr@@@std@@@std@@YAPAPAUCustomMarkData@ioGuildMarkMgr@@PAPAU12@00AAV?$allocator@PAUCustomMarkData@ioGuildMarkMgr@@@0@@Z ENDP ; std::_Uninitialized_move<ioGuildMarkMgr::CustomMarkData * *,ioGuildMarkMgr::CustomMarkData * *,std::allocator<ioGuildMarkMgr::CustomMarkData *> >
_TEXT	ENDS
PUBLIC	?_Buynode@?$_Tree_val@V?$_Tmap_traits@KPAVioUIRenderImage@@U?$less@K@std@@V?$allocator@U?$pair@$$CBKPAVioUIRenderImage@@@std@@@3@$0A@@std@@@std@@QAEPAU_Node@?$_Tree_nod@V?$_Tmap_traits@KPAVioUIRenderImage@@U?$less@K@std@@V?$allocator@U?$pair@$$CBKPAVioUIRenderImage@@@std@@@3@$0A@@std@@@2@XZ ; std::_Tree_val<std::_Tmap_traits<unsigned long,ioUIRenderImage *,std::less<unsigned long>,std::allocator<std::pair<unsigned long const ,ioUIRenderImage *> >,0> >::_Buynode
; Function compile flags: /Ogsp
; File c:\program files (x86)\microsoft visual studio 10.0\vc\include\xtree
;	COMDAT ?_Buynode@?$_Tree_val@V?$_Tmap_traits@KPAVioUIRenderImage@@U?$less@K@std@@V?$allocator@U?$pair@$$CBKPAVioUIRenderImage@@@std@@@3@$0A@@std@@@std@@QAEPAU_Node@?$_Tree_nod@V?$_Tmap_traits@KPAVioUIRenderImage@@U?$less@K@std@@V?$allocator@U?$pair@$$CBKPAVioUIRenderImage@@@std@@@3@$0A@@std@@@2@XZ
_TEXT	SEGMENT
$T512706 = -16						; size = 12
$T512684 = -4						; size = 4
?_Buynode@?$_Tree_val@V?$_Tmap_traits@KPAVioUIRenderImage@@U?$less@K@std@@V?$allocator@U?$pair@$$CBKPAVioUIRenderImage@@@std@@@3@$0A@@std@@@std@@QAEPAU_Node@?$_Tree_nod@V?$_Tmap_traits@KPAVioUIRenderImage@@U?$less@K@std@@V?$allocator@U?$pair@$$CBKPAVioUIRenderImage@@@std@@@3@$0A@@std@@@2@XZ PROC ; std::_Tree_val<std::_Tmap_traits<unsigned long,ioUIRenderImage *,std::less<unsigned long>,std::allocator<std::pair<unsigned long const ,ioUIRenderImage *> >,0> >::_Buynode, COMDAT
; _this$ = ecx

; 559  : 		{	// allocate a node

  00000	55		 push	 ebp
  00001	8b ec		 mov	 ebp, esp
  00003	83 ec 10	 sub	 esp, 16			; 00000010H
  00006	56		 push	 esi

; 560  : 		_Nodeptr _Wherenode = this->_Alnod.allocate(1);

  00007	6a 18		 push	 24			; 00000018H
  00009	8b f1		 mov	 esi, ecx
  0000b	e8 00 00 00 00	 call	 ??2@YAPAXI@Z		; operator new
  00010	59		 pop	 ecx
  00011	33 c9		 xor	 ecx, ecx
  00013	3b c1		 cmp	 eax, ecx
  00015	74 18		 je	 SHORT $LN5@Buynode

; 561  : 
; 562  : 		this->_Left(_Wherenode) = this->_Myhead;

  00017	8b 56 04	 mov	 edx, DWORD PTR [esi+4]
  0001a	89 10		 mov	 DWORD PTR [eax], edx

; 563  : 		this->_Parent(_Wherenode) = this->_Myhead;

  0001c	8b 56 04	 mov	 edx, DWORD PTR [esi+4]
  0001f	89 50 04	 mov	 DWORD PTR [eax+4], edx

; 564  : 		this->_Right(_Wherenode) = this->_Myhead;

  00022	8b 56 04	 mov	 edx, DWORD PTR [esi+4]
  00025	89 50 08	 mov	 DWORD PTR [eax+8], edx

; 565  : 		this->_Color(_Wherenode) = this->_Red;

  00028	66 89 48 14	 mov	 WORD PTR [eax+20], cx
  0002c	5e		 pop	 esi

; 566  : 		this->_Isnil(_Wherenode) = false;
; 567  : 		return (_Wherenode);
; 568  : 		}

  0002d	c9		 leave
  0002e	c3		 ret	 0

; 560  : 		_Nodeptr _Wherenode = this->_Alnod.allocate(1);

$LN5@Buynode:
  0002f	8d 45 fc	 lea	 eax, DWORD PTR $T512684[ebp]
  00032	89 4d fc	 mov	 DWORD PTR $T512684[ebp], ecx
  00035	50		 push	 eax
  00036	8d 4d f0	 lea	 ecx, DWORD PTR $T512706[ebp]
  00039	ff 15 00 00 00
	00		 call	 DWORD PTR __imp_??0exception@std@@QAE@ABQBD@Z
  0003f	68 00 00 00 00	 push	 OFFSET __TI2?AVbad_alloc@std@@
  00044	8d 45 f0	 lea	 eax, DWORD PTR $T512706[ebp]
  00047	50		 push	 eax
  00048	c7 45 f0 00 00
	00 00		 mov	 DWORD PTR $T512706[ebp], OFFSET ??_7bad_alloc@std@@6B@
  0004f	e8 00 00 00 00	 call	 __CxxThrowException@8
$LN27@Buynode:
$LN26@Buynode:
  00054	cc		 int	 3
?_Buynode@?$_Tree_val@V?$_Tmap_traits@KPAVioUIRenderImage@@U?$less@K@std@@V?$allocator@U?$pair@$$CBKPAVioUIRenderImage@@@std@@@3@$0A@@std@@@std@@QAEPAU_Node@?$_Tree_nod@V?$_Tmap_traits@KPAVioUIRenderImage@@U?$less@K@std@@V?$allocator@U?$pair@$$CBKPAVioUIRenderImage@@@std@@@3@$0A@@std@@@2@XZ ENDP ; std::_Tree_val<std::_Tmap_traits<unsigned long,ioUIRenderImage *,std::less<unsigned long>,std::allocator<std::pair<unsigned long const ,ioUIRenderImage *> >,0> >::_Buynode
_TEXT	ENDS
PUBLIC	?_Unchecked@?$_List_iterator@V?$_List_val@KV?$allocator@K@std@@@std@@@std@@QBE?AV?$_List_unchecked_iterator@V?$_List_val@KV?$allocator@K@std@@@std@@@2@XZ ; std::_List_iterator<std::_List_val<unsigned long,std::allocator<unsigned long> > >::_Unchecked
; Function compile flags: /Ogsp
; File c:\program files (x86)\microsoft visual studio 10.0\vc\include\list
;	COMDAT ?_Unchecked@?$_List_iterator@V?$_List_val@KV?$allocator@K@std@@@std@@@std@@QBE?AV?$_List_unchecked_iterator@V?$_List_val@KV?$allocator@K@std@@@std@@@2@XZ
_TEXT	SEGMENT
___$ReturnUdt$ = 8					; size = 4
?_Unchecked@?$_List_iterator@V?$_List_val@KV?$allocator@K@std@@@std@@@std@@QBE?AV?$_List_unchecked_iterator@V?$_List_val@KV?$allocator@K@std@@@std@@@2@XZ PROC ; std::_List_iterator<std::_List_val<unsigned long,std::allocator<unsigned long> > >::_Unchecked, COMDAT
; _this$ = ecx

; 354  : 		{	// make an unchecked iterator

  00000	55		 push	 ebp
  00001	8b ec		 mov	 ebp, esp

; 355  : 		return (_Unchecked_type(this->_Ptr, (_Mylist *)this->_Getcont()));

  00003	8b 09		 mov	 ecx, DWORD PTR [ecx]
  00005	8b 45 08	 mov	 eax, DWORD PTR ___$ReturnUdt$[ebp]
  00008	89 08		 mov	 DWORD PTR [eax], ecx

; 356  : 		}

  0000a	5d		 pop	 ebp
  0000b	c2 04 00	 ret	 4
?_Unchecked@?$_List_iterator@V?$_List_val@KV?$allocator@K@std@@@std@@@std@@QBE?AV?$_List_unchecked_iterator@V?$_List_val@KV?$allocator@K@std@@@std@@@2@XZ ENDP ; std::_List_iterator<std::_List_val<unsigned long,std::allocator<unsigned long> > >::_Unchecked
_TEXT	ENDS
PUBLIC	??9?$_List_unchecked_const_iterator@V?$_List_val@KV?$allocator@K@std@@@std@@U_Iterator_base0@2@@std@@QBE_NABV01@@Z ; std::_List_unchecked_const_iterator<std::_List_val<unsigned long,std::allocator<unsigned long> >,std::_Iterator_base0>::operator!=
; Function compile flags: /Ogsp
;	COMDAT ??9?$_List_unchecked_const_iterator@V?$_List_val@KV?$allocator@K@std@@@std@@U_Iterator_base0@2@@std@@QBE_NABV01@@Z
_TEXT	SEGMENT
__Right$ = 8						; size = 4
??9?$_List_unchecked_const_iterator@V?$_List_val@KV?$allocator@K@std@@@std@@U_Iterator_base0@2@@std@@QBE_NABV01@@Z PROC ; std::_List_unchecked_const_iterator<std::_List_val<unsigned long,std::allocator<unsigned long> >,std::_Iterator_base0>::operator!=, COMDAT
; _this$ = ecx

; 87   : 		{	// test for iterator inequality

  00000	55		 push	 ebp
  00001	8b ec		 mov	 ebp, esp

; 88   : 		return (!(*this == _Right));

  00003	8b 01		 mov	 eax, DWORD PTR [ecx]
  00005	8b 55 08	 mov	 edx, DWORD PTR __Right$[ebp]
  00008	33 c9		 xor	 ecx, ecx
  0000a	3b 02		 cmp	 eax, DWORD PTR [edx]
  0000c	0f 95 c0	 setne	 al

; 89   : 		}

  0000f	5d		 pop	 ebp
  00010	c2 04 00	 ret	 4
??9?$_List_unchecked_const_iterator@V?$_List_val@KV?$allocator@K@std@@@std@@U_Iterator_base0@2@@std@@QBE_NABV01@@Z ENDP ; std::_List_unchecked_const_iterator<std::_List_val<unsigned long,std::allocator<unsigned long> >,std::_Iterator_base0>::operator!=
_TEXT	ENDS
PUBLIC	??D?$_List_unchecked_iterator@V?$_List_val@KV?$allocator@K@std@@@std@@@std@@QBEAAKXZ ; std::_List_unchecked_iterator<std::_List_val<unsigned long,std::allocator<unsigned long> > >::operator*
; Function compile flags: /Ogsp
;	COMDAT ??D?$_List_unchecked_iterator@V?$_List_val@KV?$allocator@K@std@@@std@@@std@@QBEAAKXZ
_TEXT	SEGMENT
??D?$_List_unchecked_iterator@V?$_List_val@KV?$allocator@K@std@@@std@@@std@@QBEAAKXZ PROC ; std::_List_unchecked_iterator<std::_List_val<unsigned long,std::allocator<unsigned long> > >::operator*, COMDAT
; _this$ = ecx

; 126  : 		return ((reference)**(_Mybase *)this);

  00000	8b 01		 mov	 eax, DWORD PTR [ecx]
  00002	83 c0 08	 add	 eax, 8

; 127  : 		}

  00005	c3		 ret	 0
??D?$_List_unchecked_iterator@V?$_List_val@KV?$allocator@K@std@@@std@@@std@@QBEAAKXZ ENDP ; std::_List_unchecked_iterator<std::_List_val<unsigned long,std::allocator<unsigned long> > >::operator*
_TEXT	ENDS
PUBLIC	??E?$_List_unchecked_iterator@V?$_List_val@KV?$allocator@K@std@@@std@@@std@@QAEAAV01@XZ ; std::_List_unchecked_iterator<std::_List_val<unsigned long,std::allocator<unsigned long> > >::operator++
; Function compile flags: /Ogsp
;	COMDAT ??E?$_List_unchecked_iterator@V?$_List_val@KV?$allocator@K@std@@@std@@@std@@QAEAAV01@XZ
_TEXT	SEGMENT
??E?$_List_unchecked_iterator@V?$_List_val@KV?$allocator@K@std@@@std@@@std@@QAEAAV01@XZ PROC ; std::_List_unchecked_iterator<std::_List_val<unsigned long,std::allocator<unsigned long> > >::operator++, COMDAT
; _this$ = ecx

; 135  : 		{	// preincrement

  00000	8b c1		 mov	 eax, ecx

; 136  : 		++(*(_Mybase *)this);

  00002	8b 08		 mov	 ecx, DWORD PTR [eax]
  00004	8b 09		 mov	 ecx, DWORD PTR [ecx]
  00006	89 08		 mov	 DWORD PTR [eax], ecx

; 137  : 		return (*this);
; 138  : 		}

  00008	c3		 ret	 0
??E?$_List_unchecked_iterator@V?$_List_val@KV?$allocator@K@std@@@std@@@std@@QAEAAV01@XZ ENDP ; std::_List_unchecked_iterator<std::_List_val<unsigned long,std::allocator<unsigned long> > >::operator++
_TEXT	ENDS
PUBLIC	??$?0AAV?$_Tree_iterator@V?$_Tree_val@V?$_Tmap_traits@KPAVioUIRenderImage@@U?$less@K@std@@V?$allocator@U?$pair@$$CBKPAVioUIRenderImage@@@std@@@3@$0A@@std@@@std@@@std@@_N@?$_Pair_base@V?$_Tree_iterator@V?$_Tree_val@V?$_Tmap_traits@KPAVioUIRenderImage@@U?$less@K@std@@V?$allocator@U?$pair@$$CBKPAVioUIRenderImage@@@std@@@3@$0A@@std@@@std@@@std@@_N@std@@QAE@AAV?$_Tree_iterator@V?$_Tree_val@V?$_Tmap_traits@KPAVioUIRenderImage@@U?$less@K@std@@V?$allocator@U?$pair@$$CBKPAVioUIRenderImage@@@std@@@3@$0A@@std@@@std@@@1@$$QA_N@Z ; std::_Pair_base<std::_Tree_iterator<std::_Tree_val<std::_Tmap_traits<unsigned long,ioUIRenderImage *,std::less<unsigned long>,std::allocator<std::pair<unsigned long const ,ioUIRenderImage *> >,0> > >,bool>::_Pair_base<std::_Tree_iterator<std::_Tree_val<std::_Tmap_traits<unsigned long,ioUIRenderImage *,std::less<unsigned long>,std::allocator<std::pair<unsigned long const ,ioUIRenderImage *> >,0> > >,bool><std::_Tree_iterator<std::_Tree_val<std::_Tmap_traits<unsigned long,ioUIRenderImage *,std::less<unsigned long>,std::allocator<std::pair<unsigned long const ,ioUIRenderImage *> >,0> > > &,bool>
; Function compile flags: /Ogsp
; File c:\program files (x86)\microsoft visual studio 10.0\vc\include\utility
;	COMDAT ??$?0AAV?$_Tree_iterator@V?$_Tree_val@V?$_Tmap_traits@KPAVioUIRenderImage@@U?$less@K@std@@V?$allocator@U?$pair@$$CBKPAVioUIRenderImage@@@std@@@3@$0A@@std@@@std@@@std@@_N@?$_Pair_base@V?$_Tree_iterator@V?$_Tree_val@V?$_Tmap_traits@KPAVioUIRenderImage@@U?$less@K@std@@V?$allocator@U?$pair@$$CBKPAVioUIRenderImage@@@std@@@3@$0A@@std@@@std@@@std@@_N@std@@QAE@AAV?$_Tree_iterator@V?$_Tree_val@V?$_Tmap_traits@KPAVioUIRenderImage@@U?$less@K@std@@V?$allocator@U?$pair@$$CBKPAVioUIRenderImage@@@std@@@3@$0A@@std@@@std@@@1@$$QA_N@Z
_TEXT	SEGMENT
__Val1$ = 8						; size = 4
__Val2$ = 12						; size = 4
??$?0AAV?$_Tree_iterator@V?$_Tree_val@V?$_Tmap_traits@KPAVioUIRenderImage@@U?$less@K@std@@V?$allocator@U?$pair@$$CBKPAVioUIRenderImage@@@std@@@3@$0A@@std@@@std@@@std@@_N@?$_Pair_base@V?$_Tree_iterator@V?$_Tree_val@V?$_Tmap_traits@KPAVioUIRenderImage@@U?$less@K@std@@V?$allocator@U?$pair@$$CBKPAVioUIRenderImage@@@std@@@3@$0A@@std@@@std@@@std@@_N@std@@QAE@AAV?$_Tree_iterator@V?$_Tree_val@V?$_Tmap_traits@KPAVioUIRenderImage@@U?$less@K@std@@V?$allocator@U?$pair@$$CBKPAVioUIRenderImage@@@std@@@3@$0A@@std@@@std@@@1@$$QA_N@Z PROC ; std::_Pair_base<std::_Tree_iterator<std::_Tree_val<std::_Tmap_traits<unsigned long,ioUIRenderImage *,std::less<unsigned long>,std::allocator<std::pair<unsigned long const ,ioUIRenderImage *> >,0> > >,bool>::_Pair_base<std::_Tree_iterator<std::_Tree_val<std::_Tmap_traits<unsigned long,ioUIRenderImage *,std::less<unsigned long>,std::allocator<std::pair<unsigned long const ,ioUIRenderImage *> >,0> > >,bool><std::_Tree_iterator<std::_Tree_val<std::_Tmap_traits<unsigned long,ioUIRenderImage *,std::less<unsigned long>,std::allocator<std::pair<unsigned long const ,ioUIRenderImage *> >,0> > > &,bool>, COMDAT
; _this$ = ecx

; 163  : 		{	// construct from moved values

  00000	55		 push	 ebp
  00001	8b ec		 mov	 ebp, esp
  00003	8b c1		 mov	 eax, ecx
  00005	8b 4d 08	 mov	 ecx, DWORD PTR __Val1$[ebp]
  00008	8b 09		 mov	 ecx, DWORD PTR [ecx]
  0000a	89 08		 mov	 DWORD PTR [eax], ecx
  0000c	8b 4d 0c	 mov	 ecx, DWORD PTR __Val2$[ebp]
  0000f	8a 09		 mov	 cl, BYTE PTR [ecx]
  00011	88 48 04	 mov	 BYTE PTR [eax+4], cl

; 164  : 		}

  00014	5d		 pop	 ebp
  00015	c2 08 00	 ret	 8
??$?0AAV?$_Tree_iterator@V?$_Tree_val@V?$_Tmap_traits@KPAVioUIRenderImage@@U?$less@K@std@@V?$allocator@U?$pair@$$CBKPAVioUIRenderImage@@@std@@@3@$0A@@std@@@std@@@std@@_N@?$_Pair_base@V?$_Tree_iterator@V?$_Tree_val@V?$_Tmap_traits@KPAVioUIRenderImage@@U?$less@K@std@@V?$allocator@U?$pair@$$CBKPAVioUIRenderImage@@@std@@@3@$0A@@std@@@std@@@std@@_N@std@@QAE@AAV?$_Tree_iterator@V?$_Tree_val@V?$_Tmap_traits@KPAVioUIRenderImage@@U?$less@K@std@@V?$allocator@U?$pair@$$CBKPAVioUIRenderImage@@@std@@@3@$0A@@std@@@std@@@1@$$QA_N@Z ENDP ; std::_Pair_base<std::_Tree_iterator<std::_Tree_val<std::_Tmap_traits<unsigned long,ioUIRenderImage *,std::less<unsigned long>,std::allocator<std::pair<unsigned long const ,ioUIRenderImage *> >,0> > >,bool>::_Pair_base<std::_Tree_iterator<std::_Tree_val<std::_Tmap_traits<unsigned long,ioUIRenderImage *,std::less<unsigned long>,std::allocator<std::pair<unsigned long const ,ioUIRenderImage *> >,0> > >,bool><std::_Tree_iterator<std::_Tree_val<std::_Tmap_traits<unsigned long,ioUIRenderImage *,std::less<unsigned long>,std::allocator<std::pair<unsigned long const ,ioUIRenderImage *> >,0> > > &,bool>
_TEXT	ENDS
PUBLIC	??0?$_Pair_base@$$CBKPAVioUIRenderImage@@@std@@QAE@$$QBK$$QAPAVioUIRenderImage@@@Z ; std::_Pair_base<unsigned long const ,ioUIRenderImage *>::_Pair_base<unsigned long const ,ioUIRenderImage *>
; Function compile flags: /Ogsp
;	COMDAT ??0?$_Pair_base@$$CBKPAVioUIRenderImage@@@std@@QAE@$$QBK$$QAPAVioUIRenderImage@@@Z
_TEXT	SEGMENT
__Val1$ = 8						; size = 4
__Val2$ = 12						; size = 4
??0?$_Pair_base@$$CBKPAVioUIRenderImage@@@std@@QAE@$$QBK$$QAPAVioUIRenderImage@@@Z PROC ; std::_Pair_base<unsigned long const ,ioUIRenderImage *>::_Pair_base<unsigned long const ,ioUIRenderImage *>, COMDAT
; _this$ = ecx

; 145  : 		{	// construct from specified values

  00000	55		 push	 ebp
  00001	8b ec		 mov	 ebp, esp
  00003	8b c1		 mov	 eax, ecx
  00005	8b 4d 08	 mov	 ecx, DWORD PTR __Val1$[ebp]
  00008	8b 09		 mov	 ecx, DWORD PTR [ecx]
  0000a	89 08		 mov	 DWORD PTR [eax], ecx
  0000c	8b 4d 0c	 mov	 ecx, DWORD PTR __Val2$[ebp]
  0000f	8b 09		 mov	 ecx, DWORD PTR [ecx]
  00011	89 48 04	 mov	 DWORD PTR [eax+4], ecx

; 146  : 		}

  00014	5d		 pop	 ebp
  00015	c2 08 00	 ret	 8
??0?$_Pair_base@$$CBKPAVioUIRenderImage@@@std@@QAE@$$QBK$$QAPAVioUIRenderImage@@@Z ENDP ; std::_Pair_base<unsigned long const ,ioUIRenderImage *>::_Pair_base<unsigned long const ,ioUIRenderImage *>
_TEXT	ENDS
PUBLIC	??$swap@D@std@@YAXAAD0@Z			; std::swap<char>
; Function compile flags: /Ogsp
;	COMDAT ??$swap@D@std@@YAXAAD0@Z
_TEXT	SEGMENT
__Left$ = 8						; size = 4
__Right$ = 12						; size = 4
??$swap@D@std@@YAXAAD0@Z PROC				; std::swap<char>, COMDAT

; 101  : 	{	// exchange values stored at _Left and _Right

  00000	55		 push	 ebp
  00001	8b ec		 mov	 ebp, esp

; 102  : 	_Ty _Tmp = _Move(_Left);

  00003	8b 45 08	 mov	 eax, DWORD PTR __Left$[ebp]
  00006	8a 08		 mov	 cl, BYTE PTR [eax]
  00008	56		 push	 esi

; 103  : 	_Left = _Move(_Right);

  00009	8b 75 0c	 mov	 esi, DWORD PTR __Right$[ebp]
  0000c	8a 16		 mov	 dl, BYTE PTR [esi]
  0000e	88 10		 mov	 BYTE PTR [eax], dl

; 104  : 	_Right = _Move(_Tmp);

  00010	88 0e		 mov	 BYTE PTR [esi], cl
  00012	5e		 pop	 esi

; 105  : 	}

  00013	5d		 pop	 ebp
  00014	c3		 ret	 0
??$swap@D@std@@YAXAAD0@Z ENDP				; std::swap<char>
_TEXT	ENDS
PUBLIC	?construct@?$allocator@K@std@@QAEXPAKABK@Z	; std::allocator<unsigned long>::construct
; Function compile flags: /Ogsp
; File c:\program files (x86)\microsoft visual studio 10.0\vc\include\xmemory
;	COMDAT ?construct@?$allocator@K@std@@QAEXPAKABK@Z
_TEXT	SEGMENT
__Ptr$ = 8						; size = 4
__Val$ = 12						; size = 4
?construct@?$allocator@K@std@@QAEXPAKABK@Z PROC		; std::allocator<unsigned long>::construct, COMDAT
; _this$ = ecx

; 196  : 		{	// construct object at _Ptr with value _Val

  00000	55		 push	 ebp
  00001	8b ec		 mov	 ebp, esp

; 197  : 		_Construct(_Ptr, _Val);

  00003	8b 45 08	 mov	 eax, DWORD PTR __Ptr$[ebp]
  00006	85 c0		 test	 eax, eax
  00008	74 07		 je	 SHORT $LN5@construct@3
  0000a	8b 4d 0c	 mov	 ecx, DWORD PTR __Val$[ebp]
  0000d	8b 09		 mov	 ecx, DWORD PTR [ecx]
  0000f	89 08		 mov	 DWORD PTR [eax], ecx
$LN5@construct@3:

; 198  : 		}

  00011	5d		 pop	 ebp
  00012	c2 08 00	 ret	 8
?construct@?$allocator@K@std@@QAEXPAKABK@Z ENDP		; std::allocator<unsigned long>::construct
_TEXT	ENDS
PUBLIC	??0?$vector@PAUCustomMarkData@ioGuildMarkMgr@@V?$allocator@PAUCustomMarkData@ioGuildMarkMgr@@@std@@@std@@QAE@XZ ; std::vector<ioGuildMarkMgr::CustomMarkData *,std::allocator<ioGuildMarkMgr::CustomMarkData *> >::vector<ioGuildMarkMgr::CustomMarkData *,std::allocator<ioGuildMarkMgr::CustomMarkData *> >
; Function compile flags: /Ogsp
; File c:\program files (x86)\microsoft visual studio 10.0\vc\include\vector
;	COMDAT ??0?$vector@PAUCustomMarkData@ioGuildMarkMgr@@V?$allocator@PAUCustomMarkData@ioGuildMarkMgr@@@std@@@std@@QAE@XZ
_TEXT	SEGMENT
??0?$vector@PAUCustomMarkData@ioGuildMarkMgr@@V?$allocator@PAUCustomMarkData@ioGuildMarkMgr@@@std@@@std@@QAE@XZ PROC ; std::vector<ioGuildMarkMgr::CustomMarkData *,std::allocator<ioGuildMarkMgr::CustomMarkData *> >::vector<ioGuildMarkMgr::CustomMarkData *,std::allocator<ioGuildMarkMgr::CustomMarkData *> >, COMDAT
; _this$ = ecx

; 507  : 		{	// construct empty vector

  00000	8b c1		 mov	 eax, ecx
  00002	33 c9		 xor	 ecx, ecx
  00004	89 08		 mov	 DWORD PTR [eax], ecx
  00006	89 48 04	 mov	 DWORD PTR [eax+4], ecx
  00009	89 48 08	 mov	 DWORD PTR [eax+8], ecx

; 508  : 		}

  0000c	c3		 ret	 0
??0?$vector@PAUCustomMarkData@ioGuildMarkMgr@@V?$allocator@PAUCustomMarkData@ioGuildMarkMgr@@@std@@@std@@QAE@XZ ENDP ; std::vector<ioGuildMarkMgr::CustomMarkData *,std::allocator<ioGuildMarkMgr::CustomMarkData *> >::vector<ioGuildMarkMgr::CustomMarkData *,std::allocator<ioGuildMarkMgr::CustomMarkData *> >
_TEXT	ENDS
PUBLIC	?begin@?$vector@PAUCustomMarkData@ioGuildMarkMgr@@V?$allocator@PAUCustomMarkData@ioGuildMarkMgr@@@std@@@std@@QAE?AV?$_Vector_iterator@V?$_Vector_val@PAUCustomMarkData@ioGuildMarkMgr@@V?$allocator@PAUCustomMarkData@ioGuildMarkMgr@@@std@@@std@@@2@XZ ; std::vector<ioGuildMarkMgr::CustomMarkData *,std::allocator<ioGuildMarkMgr::CustomMarkData *> >::begin
; Function compile flags: /Ogsp
;	COMDAT ?begin@?$vector@PAUCustomMarkData@ioGuildMarkMgr@@V?$allocator@PAUCustomMarkData@ioGuildMarkMgr@@@std@@@std@@QAE?AV?$_Vector_iterator@V?$_Vector_val@PAUCustomMarkData@ioGuildMarkMgr@@V?$allocator@PAUCustomMarkData@ioGuildMarkMgr@@@std@@@std@@@2@XZ
_TEXT	SEGMENT
___$ReturnUdt$ = 8					; size = 4
?begin@?$vector@PAUCustomMarkData@ioGuildMarkMgr@@V?$allocator@PAUCustomMarkData@ioGuildMarkMgr@@@std@@@std@@QAE?AV?$_Vector_iterator@V?$_Vector_val@PAUCustomMarkData@ioGuildMarkMgr@@V?$allocator@PAUCustomMarkData@ioGuildMarkMgr@@@std@@@std@@@2@XZ PROC ; std::vector<ioGuildMarkMgr::CustomMarkData *,std::allocator<ioGuildMarkMgr::CustomMarkData *> >::begin, COMDAT
; _this$ = ecx

; 781  : 		{	// return iterator for beginning of mutable sequence

  00000	55		 push	 ebp
  00001	8b ec		 mov	 ebp, esp

; 782  : 		return (iterator(this->_Myfirst, this));

  00003	8b 09		 mov	 ecx, DWORD PTR [ecx]
  00005	8b 45 08	 mov	 eax, DWORD PTR ___$ReturnUdt$[ebp]
  00008	89 08		 mov	 DWORD PTR [eax], ecx

; 783  : 		}

  0000a	5d		 pop	 ebp
  0000b	c2 04 00	 ret	 4
?begin@?$vector@PAUCustomMarkData@ioGuildMarkMgr@@V?$allocator@PAUCustomMarkData@ioGuildMarkMgr@@@std@@@std@@QAE?AV?$_Vector_iterator@V?$_Vector_val@PAUCustomMarkData@ioGuildMarkMgr@@V?$allocator@PAUCustomMarkData@ioGuildMarkMgr@@@std@@@std@@@2@XZ ENDP ; std::vector<ioGuildMarkMgr::CustomMarkData *,std::allocator<ioGuildMarkMgr::CustomMarkData *> >::begin
_TEXT	ENDS
PUBLIC	?end@?$vector@PAUCustomMarkData@ioGuildMarkMgr@@V?$allocator@PAUCustomMarkData@ioGuildMarkMgr@@@std@@@std@@QAE?AV?$_Vector_iterator@V?$_Vector_val@PAUCustomMarkData@ioGuildMarkMgr@@V?$allocator@PAUCustomMarkData@ioGuildMarkMgr@@@std@@@std@@@2@XZ ; std::vector<ioGuildMarkMgr::CustomMarkData *,std::allocator<ioGuildMarkMgr::CustomMarkData *> >::end
; Function compile flags: /Ogsp
;	COMDAT ?end@?$vector@PAUCustomMarkData@ioGuildMarkMgr@@V?$allocator@PAUCustomMarkData@ioGuildMarkMgr@@@std@@@std@@QAE?AV?$_Vector_iterator@V?$_Vector_val@PAUCustomMarkData@ioGuildMarkMgr@@V?$allocator@PAUCustomMarkData@ioGuildMarkMgr@@@std@@@std@@@2@XZ
_TEXT	SEGMENT
___$ReturnUdt$ = 8					; size = 4
?end@?$vector@PAUCustomMarkData@ioGuildMarkMgr@@V?$allocator@PAUCustomMarkData@ioGuildMarkMgr@@@std@@@std@@QAE?AV?$_Vector_iterator@V?$_Vector_val@PAUCustomMarkData@ioGuildMarkMgr@@V?$allocator@PAUCustomMarkData@ioGuildMarkMgr@@@std@@@std@@@2@XZ PROC ; std::vector<ioGuildMarkMgr::CustomMarkData *,std::allocator<ioGuildMarkMgr::CustomMarkData *> >::end, COMDAT
; _this$ = ecx

; 791  : 		{	// return iterator for end of mutable sequence

  00000	55		 push	 ebp
  00001	8b ec		 mov	 ebp, esp

; 792  : 		return (iterator(this->_Mylast, this));

  00003	8b 49 04	 mov	 ecx, DWORD PTR [ecx+4]
  00006	8b 45 08	 mov	 eax, DWORD PTR ___$ReturnUdt$[ebp]
  00009	89 08		 mov	 DWORD PTR [eax], ecx

; 793  : 		}

  0000b	5d		 pop	 ebp
  0000c	c2 04 00	 ret	 4
?end@?$vector@PAUCustomMarkData@ioGuildMarkMgr@@V?$allocator@PAUCustomMarkData@ioGuildMarkMgr@@@std@@@std@@QAE?AV?$_Vector_iterator@V?$_Vector_val@PAUCustomMarkData@ioGuildMarkMgr@@V?$allocator@PAUCustomMarkData@ioGuildMarkMgr@@@std@@@std@@@2@XZ ENDP ; std::vector<ioGuildMarkMgr::CustomMarkData *,std::allocator<ioGuildMarkMgr::CustomMarkData *> >::end
_TEXT	ENDS
PUBLIC	??0?$_Tree_iterator@V?$_Tree_val@V?$_Tmap_traits@KPAVioUIRenderImage@@U?$less@K@std@@V?$allocator@U?$pair@$$CBKPAVioUIRenderImage@@@std@@@3@$0A@@std@@@std@@@std@@QAE@XZ ; std::_Tree_iterator<std::_Tree_val<std::_Tmap_traits<unsigned long,ioUIRenderImage *,std::less<unsigned long>,std::allocator<std::pair<unsigned long const ,ioUIRenderImage *> >,0> > >::_Tree_iterator<std::_Tree_val<std::_Tmap_traits<unsigned long,ioUIRenderImage *,std::less<unsigned long>,std::allocator<std::pair<unsigned long const ,ioUIRenderImage *> >,0> > >
; Function compile flags: /Ogsp
; File c:\program files (x86)\microsoft visual studio 10.0\vc\include\xtree
;	COMDAT ??0?$_Tree_iterator@V?$_Tree_val@V?$_Tmap_traits@KPAVioUIRenderImage@@U?$less@K@std@@V?$allocator@U?$pair@$$CBKPAVioUIRenderImage@@@std@@@3@$0A@@std@@@std@@@std@@QAE@XZ
_TEXT	SEGMENT
??0?$_Tree_iterator@V?$_Tree_val@V?$_Tmap_traits@KPAVioUIRenderImage@@U?$less@K@std@@V?$allocator@U?$pair@$$CBKPAVioUIRenderImage@@@std@@@3@$0A@@std@@@std@@@std@@QAE@XZ PROC ; std::_Tree_iterator<std::_Tree_val<std::_Tmap_traits<unsigned long,ioUIRenderImage *,std::less<unsigned long>,std::allocator<std::pair<unsigned long const ,ioUIRenderImage *> >,0> > >::_Tree_iterator<std::_Tree_val<std::_Tmap_traits<unsigned long,ioUIRenderImage *,std::less<unsigned long>,std::allocator<std::pair<unsigned long const ,ioUIRenderImage *> >,0> > >, COMDAT
; _this$ = ecx

; 372  : 	_Tree_iterator()

  00000	8b c1		 mov	 eax, ecx
  00002	83 20 00	 and	 DWORD PTR [eax], 0

; 373  : 		{	// construct with null node
; 374  : 		}

  00005	c3		 ret	 0
??0?$_Tree_iterator@V?$_Tree_val@V?$_Tmap_traits@KPAVioUIRenderImage@@U?$less@K@std@@V?$allocator@U?$pair@$$CBKPAVioUIRenderImage@@@std@@@3@$0A@@std@@@std@@@std@@QAE@XZ ENDP ; std::_Tree_iterator<std::_Tree_val<std::_Tmap_traits<unsigned long,ioUIRenderImage *,std::less<unsigned long>,std::allocator<std::pair<unsigned long const ,ioUIRenderImage *> >,0> > >::_Tree_iterator<std::_Tree_val<std::_Tmap_traits<unsigned long,ioUIRenderImage *,std::less<unsigned long>,std::allocator<std::pair<unsigned long const ,ioUIRenderImage *> >,0> > >
_TEXT	ENDS
PUBLIC	??C?$_Tree_iterator@V?$_Tree_val@V?$_Tmap_traits@KPAVioUIRenderImage@@U?$less@K@std@@V?$allocator@U?$pair@$$CBKPAVioUIRenderImage@@@std@@@3@$0A@@std@@@std@@@std@@QBEPAU?$pair@$$CBKPAVioUIRenderImage@@@1@XZ ; std::_Tree_iterator<std::_Tree_val<std::_Tmap_traits<unsigned long,ioUIRenderImage *,std::less<unsigned long>,std::allocator<std::pair<unsigned long const ,ioUIRenderImage *> >,0> > >::operator->
; Function compile flags: /Ogsp
;	COMDAT ??C?$_Tree_iterator@V?$_Tree_val@V?$_Tmap_traits@KPAVioUIRenderImage@@U?$less@K@std@@V?$allocator@U?$pair@$$CBKPAVioUIRenderImage@@@std@@@3@$0A@@std@@@std@@@std@@QBEPAU?$pair@$$CBKPAVioUIRenderImage@@@1@XZ
_TEXT	SEGMENT
??C?$_Tree_iterator@V?$_Tree_val@V?$_Tmap_traits@KPAVioUIRenderImage@@U?$less@K@std@@V?$allocator@U?$pair@$$CBKPAVioUIRenderImage@@@std@@@3@$0A@@std@@@std@@@std@@QBEPAU?$pair@$$CBKPAVioUIRenderImage@@@1@XZ PROC ; std::_Tree_iterator<std::_Tree_val<std::_Tmap_traits<unsigned long,ioUIRenderImage *,std::less<unsigned long>,std::allocator<std::pair<unsigned long const ,ioUIRenderImage *> >,0> > >::operator->, COMDAT
; _this$ = ecx

; 401  : 		return (&**this);

  00000	8b 01		 mov	 eax, DWORD PTR [ecx]
  00002	83 c0 0c	 add	 eax, 12			; 0000000cH

; 402  : 		}

  00005	c3		 ret	 0
??C?$_Tree_iterator@V?$_Tree_val@V?$_Tmap_traits@KPAVioUIRenderImage@@U?$less@K@std@@V?$allocator@U?$pair@$$CBKPAVioUIRenderImage@@@std@@@3@$0A@@std@@@std@@@std@@QBEPAU?$pair@$$CBKPAVioUIRenderImage@@@1@XZ ENDP ; std::_Tree_iterator<std::_Tree_val<std::_Tmap_traits<unsigned long,ioUIRenderImage *,std::less<unsigned long>,std::allocator<std::pair<unsigned long const ,ioUIRenderImage *> >,0> > >::operator->
_TEXT	ENDS
PUBLIC	??E?$_Vector_iterator@V?$_Vector_val@PAUCustomMarkData@ioGuildMarkMgr@@V?$allocator@PAUCustomMarkData@ioGuildMarkMgr@@@std@@@std@@@std@@QAE?AV01@H@Z ; std::_Vector_iterator<std::_Vector_val<ioGuildMarkMgr::CustomMarkData *,std::allocator<ioGuildMarkMgr::CustomMarkData *> > >::operator++
; Function compile flags: /Ogsp
; File c:\program files (x86)\microsoft visual studio 10.0\vc\include\vector
;	COMDAT ??E?$_Vector_iterator@V?$_Vector_val@PAUCustomMarkData@ioGuildMarkMgr@@V?$allocator@PAUCustomMarkData@ioGuildMarkMgr@@@std@@@std@@@std@@QAE?AV01@H@Z
_TEXT	SEGMENT
___$ReturnUdt$ = 8					; size = 4
___formal$ = 12						; size = 4
??E?$_Vector_iterator@V?$_Vector_val@PAUCustomMarkData@ioGuildMarkMgr@@V?$allocator@PAUCustomMarkData@ioGuildMarkMgr@@@std@@@std@@@std@@QAE?AV01@H@Z PROC ; std::_Vector_iterator<std::_Vector_val<ioGuildMarkMgr::CustomMarkData *,std::allocator<ioGuildMarkMgr::CustomMarkData *> > >::operator++, COMDAT
; _this$ = ecx

; 337  : 		{	// postincrement

  00000	55		 push	 ebp
  00001	8b ec		 mov	 ebp, esp

; 338  : 		_Myiter _Tmp = *this;

  00003	8b 11		 mov	 edx, DWORD PTR [ecx]
  00005	8b 45 08	 mov	 eax, DWORD PTR ___$ReturnUdt$[ebp]
  00008	89 10		 mov	 DWORD PTR [eax], edx

; 339  : 		++*this;

  0000a	83 c2 04	 add	 edx, 4
  0000d	89 11		 mov	 DWORD PTR [ecx], edx

; 340  : 		return (_Tmp);
; 341  : 		}

  0000f	5d		 pop	 ebp
  00010	c2 08 00	 ret	 8
??E?$_Vector_iterator@V?$_Vector_val@PAUCustomMarkData@ioGuildMarkMgr@@V?$allocator@PAUCustomMarkData@ioGuildMarkMgr@@@std@@@std@@@std@@QAE?AV01@H@Z ENDP ; std::_Vector_iterator<std::_Vector_val<ioGuildMarkMgr::CustomMarkData *,std::allocator<ioGuildMarkMgr::CustomMarkData *> > >::operator++
_TEXT	ENDS
PUBLIC	??9?$_Vector_const_iterator@V?$_Vector_val@PAUCustomMarkData@ioGuildMarkMgr@@V?$allocator@PAUCustomMarkData@ioGuildMarkMgr@@@std@@@std@@@std@@QBE_NABV01@@Z ; std::_Vector_const_iterator<std::_Vector_val<ioGuildMarkMgr::CustomMarkData *,std::allocator<ioGuildMarkMgr::CustomMarkData *> > >::operator!=
; Function compile flags: /Ogsp
;	COMDAT ??9?$_Vector_const_iterator@V?$_Vector_val@PAUCustomMarkData@ioGuildMarkMgr@@V?$allocator@PAUCustomMarkData@ioGuildMarkMgr@@@std@@@std@@@std@@QBE_NABV01@@Z
_TEXT	SEGMENT
__Right$ = 8						; size = 4
??9?$_Vector_const_iterator@V?$_Vector_val@PAUCustomMarkData@ioGuildMarkMgr@@V?$allocator@PAUCustomMarkData@ioGuildMarkMgr@@@std@@@std@@@std@@QBE_NABV01@@Z PROC ; std::_Vector_const_iterator<std::_Vector_val<ioGuildMarkMgr::CustomMarkData *,std::allocator<ioGuildMarkMgr::CustomMarkData *> > >::operator!=, COMDAT
; _this$ = ecx

; 207  : 		{	// test for iterator inequality

  00000	55		 push	 ebp
  00001	8b ec		 mov	 ebp, esp

; 208  : 		return (!(*this == _Right));

  00003	8b 01		 mov	 eax, DWORD PTR [ecx]
  00005	8b 55 08	 mov	 edx, DWORD PTR __Right$[ebp]
  00008	33 c9		 xor	 ecx, ecx
  0000a	3b 02		 cmp	 eax, DWORD PTR [edx]
  0000c	0f 95 c0	 setne	 al

; 209  : 		}

  0000f	5d		 pop	 ebp
  00010	c2 04 00	 ret	 4
??9?$_Vector_const_iterator@V?$_Vector_val@PAUCustomMarkData@ioGuildMarkMgr@@V?$allocator@PAUCustomMarkData@ioGuildMarkMgr@@@std@@@std@@@std@@QBE_NABV01@@Z ENDP ; std::_Vector_const_iterator<std::_Vector_val<ioGuildMarkMgr::CustomMarkData *,std::allocator<ioGuildMarkMgr::CustomMarkData *> > >::operator!=
_TEXT	ENDS
PUBLIC	?_Make_iter@?$vector@PAUCustomMarkData@ioGuildMarkMgr@@V?$allocator@PAUCustomMarkData@ioGuildMarkMgr@@@std@@@std@@QBE?AV?$_Vector_iterator@V?$_Vector_val@PAUCustomMarkData@ioGuildMarkMgr@@V?$allocator@PAUCustomMarkData@ioGuildMarkMgr@@@std@@@std@@@2@V?$_Vector_const_iterator@V?$_Vector_val@PAUCustomMarkData@ioGuildMarkMgr@@V?$allocator@PAUCustomMarkData@ioGuildMarkMgr@@@std@@@std@@@2@@Z ; std::vector<ioGuildMarkMgr::CustomMarkData *,std::allocator<ioGuildMarkMgr::CustomMarkData *> >::_Make_iter
; Function compile flags: /Ogsp
;	COMDAT ?_Make_iter@?$vector@PAUCustomMarkData@ioGuildMarkMgr@@V?$allocator@PAUCustomMarkData@ioGuildMarkMgr@@@std@@@std@@QBE?AV?$_Vector_iterator@V?$_Vector_val@PAUCustomMarkData@ioGuildMarkMgr@@V?$allocator@PAUCustomMarkData@ioGuildMarkMgr@@@std@@@std@@@2@V?$_Vector_const_iterator@V?$_Vector_val@PAUCustomMarkData@ioGuildMarkMgr@@V?$allocator@PAUCustomMarkData@ioGuildMarkMgr@@@std@@@std@@@2@@Z
_TEXT	SEGMENT
___$ReturnUdt$ = 8					; size = 4
__Where$ = 12						; size = 4
?_Make_iter@?$vector@PAUCustomMarkData@ioGuildMarkMgr@@V?$allocator@PAUCustomMarkData@ioGuildMarkMgr@@@std@@@std@@QBE?AV?$_Vector_iterator@V?$_Vector_val@PAUCustomMarkData@ioGuildMarkMgr@@V?$allocator@PAUCustomMarkData@ioGuildMarkMgr@@@std@@@std@@@2@V?$_Vector_const_iterator@V?$_Vector_val@PAUCustomMarkData@ioGuildMarkMgr@@V?$allocator@PAUCustomMarkData@ioGuildMarkMgr@@@std@@@std@@@2@@Z PROC ; std::vector<ioGuildMarkMgr::CustomMarkData *,std::allocator<ioGuildMarkMgr::CustomMarkData *> >::_Make_iter, COMDAT
; _this$ = ecx

; 801  : 		{	// make iterator from const_iterator

  00000	55		 push	 ebp
  00001	8b ec		 mov	 ebp, esp

; 802  : 		return (iterator(_Where._Ptr, this));

  00003	8b 45 08	 mov	 eax, DWORD PTR ___$ReturnUdt$[ebp]
  00006	8b 4d 0c	 mov	 ecx, DWORD PTR __Where$[ebp]
  00009	89 08		 mov	 DWORD PTR [eax], ecx

; 803  : 		}

  0000b	5d		 pop	 ebp
  0000c	c2 08 00	 ret	 8
?_Make_iter@?$vector@PAUCustomMarkData@ioGuildMarkMgr@@V?$allocator@PAUCustomMarkData@ioGuildMarkMgr@@@std@@@std@@QBE?AV?$_Vector_iterator@V?$_Vector_val@PAUCustomMarkData@ioGuildMarkMgr@@V?$allocator@PAUCustomMarkData@ioGuildMarkMgr@@@std@@@std@@@2@V?$_Vector_const_iterator@V?$_Vector_val@PAUCustomMarkData@ioGuildMarkMgr@@V?$allocator@PAUCustomMarkData@ioGuildMarkMgr@@@std@@@std@@@2@@Z ENDP ; std::vector<ioGuildMarkMgr::CustomMarkData *,std::allocator<ioGuildMarkMgr::CustomMarkData *> >::_Make_iter
_TEXT	ENDS
PUBLIC	?_Destroy@?$vector@PAUCustomMarkData@ioGuildMarkMgr@@V?$allocator@PAUCustomMarkData@ioGuildMarkMgr@@@std@@@std@@IAEXPAPAUCustomMarkData@ioGuildMarkMgr@@0@Z ; std::vector<ioGuildMarkMgr::CustomMarkData *,std::allocator<ioGuildMarkMgr::CustomMarkData *> >::_Destroy
; Function compile flags: /Ogsp
;	COMDAT ?_Destroy@?$vector@PAUCustomMarkData@ioGuildMarkMgr@@V?$allocator@PAUCustomMarkData@ioGuildMarkMgr@@@std@@@std@@IAEXPAPAUCustomMarkData@ioGuildMarkMgr@@0@Z
_TEXT	SEGMENT
__First$ = 8						; size = 4
__Last$ = 12						; size = 4
?_Destroy@?$vector@PAUCustomMarkData@ioGuildMarkMgr@@V?$allocator@PAUCustomMarkData@ioGuildMarkMgr@@@std@@@std@@IAEXPAPAUCustomMarkData@ioGuildMarkMgr@@0@Z PROC ; std::vector<ioGuildMarkMgr::CustomMarkData *,std::allocator<ioGuildMarkMgr::CustomMarkData *> >::_Destroy, COMDAT
; _this$ = ecx

; 1270 : 		_Destroy_range(_First, _Last, this->_Alval);
; 1271 : 		}

  00000	c2 08 00	 ret	 8
?_Destroy@?$vector@PAUCustomMarkData@ioGuildMarkMgr@@V?$allocator@PAUCustomMarkData@ioGuildMarkMgr@@@std@@@std@@IAEXPAPAUCustomMarkData@ioGuildMarkMgr@@0@Z ENDP ; std::vector<ioGuildMarkMgr::CustomMarkData *,std::allocator<ioGuildMarkMgr::CustomMarkData *> >::_Destroy
_TEXT	ENDS
PUBLIC	?_Tidy@?$vector@PAUCustomMarkData@ioGuildMarkMgr@@V?$allocator@PAUCustomMarkData@ioGuildMarkMgr@@@std@@@std@@IAEXXZ ; std::vector<ioGuildMarkMgr::CustomMarkData *,std::allocator<ioGuildMarkMgr::CustomMarkData *> >::_Tidy
EXTRN	__imp_?_Orphan_all@_Container_base0@std@@QAEXXZ:PROC
; Function compile flags: /Ogsp
;	COMDAT ?_Tidy@?$vector@PAUCustomMarkData@ioGuildMarkMgr@@V?$allocator@PAUCustomMarkData@ioGuildMarkMgr@@@std@@@std@@IAEXXZ
_TEXT	SEGMENT
?_Tidy@?$vector@PAUCustomMarkData@ioGuildMarkMgr@@V?$allocator@PAUCustomMarkData@ioGuildMarkMgr@@@std@@@std@@IAEXXZ PROC ; std::vector<ioGuildMarkMgr::CustomMarkData *,std::allocator<ioGuildMarkMgr::CustomMarkData *> >::_Tidy, COMDAT
; _this$ = ecx

; 1301 : 		{	// free all storage

  00000	56		 push	 esi
  00001	8b f1		 mov	 esi, ecx

; 1302 : 		if (this->_Myfirst != 0)

  00003	83 3e 00	 cmp	 DWORD PTR [esi], 0
  00006	74 0e		 je	 SHORT $LN12@Tidy

; 1303 : 			{	// something to free, destroy and deallocate it
; 1304 : 			this->_Orphan_all();

  00008	ff 15 00 00 00
	00		 call	 DWORD PTR __imp_?_Orphan_all@_Container_base0@std@@QAEXXZ

; 1305 : 			_Destroy(this->_Myfirst, this->_Mylast);
; 1306 : 			this->_Alval.deallocate(this->_Myfirst,
; 1307 : 				this->_Myend - this->_Myfirst);

  0000e	ff 36		 push	 DWORD PTR [esi]
  00010	e8 00 00 00 00	 call	 ??3@YAXPAX@Z		; operator delete
  00015	59		 pop	 ecx
$LN12@Tidy:

; 1308 : 			}
; 1309 : 		this->_Myfirst = 0;

  00016	83 26 00	 and	 DWORD PTR [esi], 0

; 1310 : 		this->_Mylast = 0;

  00019	83 66 04 00	 and	 DWORD PTR [esi+4], 0

; 1311 : 		this->_Myend = 0;

  0001d	83 66 08 00	 and	 DWORD PTR [esi+8], 0
  00021	5e		 pop	 esi

; 1312 : 		}

  00022	c3		 ret	 0
?_Tidy@?$vector@PAUCustomMarkData@ioGuildMarkMgr@@V?$allocator@PAUCustomMarkData@ioGuildMarkMgr@@@std@@@std@@IAEXXZ ENDP ; std::vector<ioGuildMarkMgr::CustomMarkData *,std::allocator<ioGuildMarkMgr::CustomMarkData *> >::_Tidy
_TEXT	ENDS
PUBLIC	??0?$_List_val@KV?$allocator@K@std@@@std@@QAE@V?$allocator@K@1@@Z ; std::_List_val<unsigned long,std::allocator<unsigned long> >::_List_val<unsigned long,std::allocator<unsigned long> >
; Function compile flags: /Ogsp
; File c:\program files (x86)\microsoft visual studio 10.0\vc\include\list
;	COMDAT ??0?$_List_val@KV?$allocator@K@std@@@std@@QAE@V?$allocator@K@1@@Z
_TEXT	SEGMENT
$T513047 = -16						; size = 12
$T513031 = -4						; size = 4
__Al$ = 8						; size = 1
??0?$_List_val@KV?$allocator@K@std@@@std@@QAE@V?$allocator@K@1@@Z PROC ; std::_List_val<unsigned long,std::allocator<unsigned long> >::_List_val<unsigned long,std::allocator<unsigned long> >, COMDAT
; _this$ = ecx

; 493  : 		{	// construct base, and allocator from _Al

  00000	55		 push	 ebp
  00001	8b ec		 mov	 ebp, esp
  00003	83 ec 10	 sub	 esp, 16			; 00000010H
  00006	56		 push	 esi
  00007	8b f1		 mov	 esi, ecx

; 494  : 		this->_Mysize = 0;

  00009	83 66 04 00	 and	 DWORD PTR [esi+4], 0

; 495  : 		this->_Myhead = this->_Alnod.allocate(1);

  0000d	6a 0c		 push	 12			; 0000000cH
  0000f	e8 00 00 00 00	 call	 ??2@YAPAXI@Z		; operator new
  00014	59		 pop	 ecx
  00015	85 c0		 test	 eax, eax
  00017	74 10		 je	 SHORT $LN13@List_val
  00019	89 06		 mov	 DWORD PTR [esi], eax

; 496  : 		this->_Nextnode(this->_Myhead) = this->_Myhead;

  0001b	89 00		 mov	 DWORD PTR [eax], eax

; 497  : 		this->_Prevnode(this->_Myhead) = this->_Myhead;

  0001d	8b 06		 mov	 eax, DWORD PTR [esi]
  0001f	89 40 04	 mov	 DWORD PTR [eax+4], eax

; 498  : 		}

  00022	8b c6		 mov	 eax, esi
  00024	5e		 pop	 esi
  00025	c9		 leave
  00026	c2 04 00	 ret	 4

; 495  : 		this->_Myhead = this->_Alnod.allocate(1);

$LN13@List_val:
  00029	83 65 fc 00	 and	 DWORD PTR $T513031[ebp], 0
  0002d	8d 45 fc	 lea	 eax, DWORD PTR $T513031[ebp]
  00030	50		 push	 eax
  00031	8d 4d f0	 lea	 ecx, DWORD PTR $T513047[ebp]
  00034	ff 15 00 00 00
	00		 call	 DWORD PTR __imp_??0exception@std@@QAE@ABQBD@Z
  0003a	68 00 00 00 00	 push	 OFFSET __TI2?AVbad_alloc@std@@
  0003f	8d 45 f0	 lea	 eax, DWORD PTR $T513047[ebp]
  00042	50		 push	 eax
  00043	c7 45 f0 00 00
	00 00		 mov	 DWORD PTR $T513047[ebp], OFFSET ??_7bad_alloc@std@@6B@
  0004a	e8 00 00 00 00	 call	 __CxxThrowException@8
$LN29@List_val:
$LN28@List_val:
  0004f	cc		 int	 3
??0?$_List_val@KV?$allocator@K@std@@@std@@QAE@V?$allocator@K@1@@Z ENDP ; std::_List_val<unsigned long,std::allocator<unsigned long> >::_List_val<unsigned long,std::allocator<unsigned long> >
_TEXT	ENDS
PUBLIC	??0?$_List_iterator@V?$_List_val@KV?$allocator@K@std@@@std@@@std@@QAE@PAU_Node@?$_List_nod@KV?$allocator@K@std@@@1@PBV?$_List_val@KV?$allocator@K@std@@@1@@Z ; std::_List_iterator<std::_List_val<unsigned long,std::allocator<unsigned long> > >::_List_iterator<std::_List_val<unsigned long,std::allocator<unsigned long> > >
; Function compile flags: /Ogsp
;	COMDAT ??0?$_List_iterator@V?$_List_val@KV?$allocator@K@std@@@std@@@std@@QAE@PAU_Node@?$_List_nod@KV?$allocator@K@std@@@1@PBV?$_List_val@KV?$allocator@K@std@@@1@@Z
_TEXT	SEGMENT
__Pnode$ = 8						; size = 4
__Plist$ = 12						; size = 4
??0?$_List_iterator@V?$_List_val@KV?$allocator@K@std@@@std@@@std@@QAE@PAU_Node@?$_List_nod@KV?$allocator@K@std@@@1@PBV?$_List_val@KV?$allocator@K@std@@@1@@Z PROC ; std::_List_iterator<std::_List_val<unsigned long,std::allocator<unsigned long> > >::_List_iterator<std::_List_val<unsigned long,std::allocator<unsigned long> > >, COMDAT
; _this$ = ecx

; 342  : 		{	// construct with node pointer _Pnode

  00000	55		 push	 ebp
  00001	8b ec		 mov	 ebp, esp
  00003	8b c1		 mov	 eax, ecx
  00005	8b 4d 08	 mov	 ecx, DWORD PTR __Pnode$[ebp]
  00008	89 08		 mov	 DWORD PTR [eax], ecx

; 343  : 		}

  0000a	5d		 pop	 ebp
  0000b	c2 08 00	 ret	 8
??0?$_List_iterator@V?$_List_val@KV?$allocator@K@std@@@std@@@std@@QAE@PAU_Node@?$_List_nod@KV?$allocator@K@std@@@1@PBV?$_List_val@KV?$allocator@K@std@@@1@@Z ENDP ; std::_List_iterator<std::_List_val<unsigned long,std::allocator<unsigned long> > >::_List_iterator<std::_List_val<unsigned long,std::allocator<unsigned long> > >
_TEXT	ENDS
PUBLIC	??0?$_Tree_iterator@V?$_Tree_val@V?$_Tmap_traits@KPAVioUIRenderImage@@U?$less@K@std@@V?$allocator@U?$pair@$$CBKPAVioUIRenderImage@@@std@@@3@$0A@@std@@@std@@@std@@QAE@PAU_Node@?$_Tree_nod@V?$_Tmap_traits@KPAVioUIRenderImage@@U?$less@K@std@@V?$allocator@U?$pair@$$CBKPAVioUIRenderImage@@@std@@@3@$0A@@std@@@1@PBV?$_Tree_val@V?$_Tmap_traits@KPAVioUIRenderImage@@U?$less@K@std@@V?$allocator@U?$pair@$$CBKPAVioUIRenderImage@@@std@@@3@$0A@@std@@@1@@Z ; std::_Tree_iterator<std::_Tree_val<std::_Tmap_traits<unsigned long,ioUIRenderImage *,std::less<unsigned long>,std::allocator<std::pair<unsigned long const ,ioUIRenderImage *> >,0> > >::_Tree_iterator<std::_Tree_val<std::_Tmap_traits<unsigned long,ioUIRenderImage *,std::less<unsigned long>,std::allocator<std::pair<unsigned long const ,ioUIRenderImage *> >,0> > >
; Function compile flags: /Ogsp
; File c:\program files (x86)\microsoft visual studio 10.0\vc\include\xtree
;	COMDAT ??0?$_Tree_iterator@V?$_Tree_val@V?$_Tmap_traits@KPAVioUIRenderImage@@U?$less@K@std@@V?$allocator@U?$pair@$$CBKPAVioUIRenderImage@@@std@@@3@$0A@@std@@@std@@@std@@QAE@PAU_Node@?$_Tree_nod@V?$_Tmap_traits@KPAVioUIRenderImage@@U?$less@K@std@@V?$allocator@U?$pair@$$CBKPAVioUIRenderImage@@@std@@@3@$0A@@std@@@1@PBV?$_Tree_val@V?$_Tmap_traits@KPAVioUIRenderImage@@U?$less@K@std@@V?$allocator@U?$pair@$$CBKPAVioUIRenderImage@@@std@@@3@$0A@@std@@@1@@Z
_TEXT	SEGMENT
__Pnode$ = 8						; size = 4
__Plist$ = 12						; size = 4
??0?$_Tree_iterator@V?$_Tree_val@V?$_Tmap_traits@KPAVioUIRenderImage@@U?$less@K@std@@V?$allocator@U?$pair@$$CBKPAVioUIRenderImage@@@std@@@3@$0A@@std@@@std@@@std@@QAE@PAU_Node@?$_Tree_nod@V?$_Tmap_traits@KPAVioUIRenderImage@@U?$less@K@std@@V?$allocator@U?$pair@$$CBKPAVioUIRenderImage@@@std@@@3@$0A@@std@@@1@PBV?$_Tree_val@V?$_Tmap_traits@KPAVioUIRenderImage@@U?$less@K@std@@V?$allocator@U?$pair@$$CBKPAVioUIRenderImage@@@std@@@3@$0A@@std@@@1@@Z PROC ; std::_Tree_iterator<std::_Tree_val<std::_Tmap_traits<unsigned long,ioUIRenderImage *,std::less<unsigned long>,std::allocator<std::pair<unsigned long const ,ioUIRenderImage *> >,0> > >::_Tree_iterator<std::_Tree_val<std::_Tmap_traits<unsigned long,ioUIRenderImage *,std::less<unsigned long>,std::allocator<std::pair<unsigned long const ,ioUIRenderImage *> >,0> > >, COMDAT
; _this$ = ecx

; 378  : 		{	// construct with node pointer _Pnode

  00000	55		 push	 ebp
  00001	8b ec		 mov	 ebp, esp
  00003	8b c1		 mov	 eax, ecx
  00005	8b 4d 08	 mov	 ecx, DWORD PTR __Pnode$[ebp]
  00008	89 08		 mov	 DWORD PTR [eax], ecx

; 379  : 		}

  0000a	5d		 pop	 ebp
  0000b	c2 08 00	 ret	 8
??0?$_Tree_iterator@V?$_Tree_val@V?$_Tmap_traits@KPAVioUIRenderImage@@U?$less@K@std@@V?$allocator@U?$pair@$$CBKPAVioUIRenderImage@@@std@@@3@$0A@@std@@@std@@@std@@QAE@PAU_Node@?$_Tree_nod@V?$_Tmap_traits@KPAVioUIRenderImage@@U?$less@K@std@@V?$allocator@U?$pair@$$CBKPAVioUIRenderImage@@@std@@@3@$0A@@std@@@1@PBV?$_Tree_val@V?$_Tmap_traits@KPAVioUIRenderImage@@U?$less@K@std@@V?$allocator@U?$pair@$$CBKPAVioUIRenderImage@@@std@@@3@$0A@@std@@@1@@Z ENDP ; std::_Tree_iterator<std::_Tree_val<std::_Tmap_traits<unsigned long,ioUIRenderImage *,std::less<unsigned long>,std::allocator<std::pair<unsigned long const ,ioUIRenderImage *> >,0> > >::_Tree_iterator<std::_Tree_val<std::_Tmap_traits<unsigned long,ioUIRenderImage *,std::less<unsigned long>,std::allocator<std::pair<unsigned long const ,ioUIRenderImage *> >,0> > >
_TEXT	ENDS
PUBLIC	??E?$_Tree_const_iterator@V?$_Tree_val@V?$_Tmap_traits@KPAVioUIRenderImage@@U?$less@K@std@@V?$allocator@U?$pair@$$CBKPAVioUIRenderImage@@@std@@@3@$0A@@std@@@std@@@std@@QAEAAV01@XZ ; std::_Tree_const_iterator<std::_Tree_val<std::_Tmap_traits<unsigned long,ioUIRenderImage *,std::less<unsigned long>,std::allocator<std::pair<unsigned long const ,ioUIRenderImage *> >,0> > >::operator++
; Function compile flags: /Ogsp
;	COMDAT ??E?$_Tree_const_iterator@V?$_Tree_val@V?$_Tmap_traits@KPAVioUIRenderImage@@U?$less@K@std@@V?$allocator@U?$pair@$$CBKPAVioUIRenderImage@@@std@@@3@$0A@@std@@@std@@@std@@QAEAAV01@XZ
_TEXT	SEGMENT
??E?$_Tree_const_iterator@V?$_Tree_val@V?$_Tmap_traits@KPAVioUIRenderImage@@U?$less@K@std@@V?$allocator@U?$pair@$$CBKPAVioUIRenderImage@@@std@@@3@$0A@@std@@@std@@@std@@QAEAAV01@XZ PROC ; std::_Tree_const_iterator<std::_Tree_val<std::_Tmap_traits<unsigned long,ioUIRenderImage *,std::less<unsigned long>,std::allocator<std::pair<unsigned long const ,ioUIRenderImage *> >,0> > >::operator++, COMDAT
; _this$ = ecx

; 250  : 		{	// preincrement

  00000	56		 push	 esi
  00001	8b f1		 mov	 esi, ecx

; 251  :  #if _ITERATOR_DEBUG_LEVEL == 2
; 252  : 		if (this->_Getcont() == 0
; 253  : 			|| this->_Ptr == 0
; 254  : 			|| _Mytree::_Isnil(this->_Ptr))
; 255  : 			{	// report error
; 256  : 			_DEBUG_ERROR("map/set iterator not incrementable");
; 257  : 			_SCL_SECURE_OUT_OF_RANGE;
; 258  : 			}
; 259  : 
; 260  :  #elif _ITERATOR_DEBUG_LEVEL == 1
; 261  : 		_SCL_SECURE_VALIDATE(this->_Getcont() != 0 && this->_Ptr != 0);
; 262  : 		_SCL_SECURE_VALIDATE_RANGE(!_Mytree::_Isnil(this->_Ptr));
; 263  :  #endif /* _ITERATOR_DEBUG_LEVEL */
; 264  : 
; 265  : 		++(*(_Mybase *)this);

  00003	e8 00 00 00 00	 call	 ??E?$_Tree_unchecked_const_iterator@V?$_Tree_val@V?$_Tmap_traits@KPAVioUIRenderImage@@U?$less@K@std@@V?$allocator@U?$pair@$$CBKPAVioUIRenderImage@@@std@@@3@$0A@@std@@@std@@U_Iterator_base0@2@@std@@QAEAAV01@XZ ; std::_Tree_unchecked_const_iterator<std::_Tree_val<std::_Tmap_traits<unsigned long,ioUIRenderImage *,std::less<unsigned long>,std::allocator<std::pair<unsigned long const ,ioUIRenderImage *> >,0> >,std::_Iterator_base0>::operator++

; 266  : 		return (*this);

  00008	8b c6		 mov	 eax, esi
  0000a	5e		 pop	 esi

; 267  : 		}

  0000b	c3		 ret	 0
??E?$_Tree_const_iterator@V?$_Tree_val@V?$_Tmap_traits@KPAVioUIRenderImage@@U?$less@K@std@@V?$allocator@U?$pair@$$CBKPAVioUIRenderImage@@@std@@@3@$0A@@std@@@std@@@std@@QAEAAV01@XZ ENDP ; std::_Tree_const_iterator<std::_Tree_val<std::_Tmap_traits<unsigned long,ioUIRenderImage *,std::less<unsigned long>,std::allocator<std::pair<unsigned long const ,ioUIRenderImage *> >,0> > >::operator++
_TEXT	ENDS
PUBLIC	??0?$_Tree_val@V?$_Tmap_traits@KPAVioUIRenderImage@@U?$less@K@std@@V?$allocator@U?$pair@$$CBKPAVioUIRenderImage@@@std@@@3@$0A@@std@@@std@@QAE@ABU?$less@K@1@V?$allocator@U?$pair@$$CBKPAVioUIRenderImage@@@std@@@1@@Z ; std::_Tree_val<std::_Tmap_traits<unsigned long,ioUIRenderImage *,std::less<unsigned long>,std::allocator<std::pair<unsigned long const ,ioUIRenderImage *> >,0> >::_Tree_val<std::_Tmap_traits<unsigned long,ioUIRenderImage *,std::less<unsigned long>,std::allocator<std::pair<unsigned long const ,ioUIRenderImage *> >,0> >
; Function compile flags: /Ogsp
;	COMDAT ??0?$_Tree_val@V?$_Tmap_traits@KPAVioUIRenderImage@@U?$less@K@std@@V?$allocator@U?$pair@$$CBKPAVioUIRenderImage@@@std@@@3@$0A@@std@@@std@@QAE@ABU?$less@K@1@V?$allocator@U?$pair@$$CBKPAVioUIRenderImage@@@std@@@1@@Z
_TEXT	SEGMENT
$T513154 = -16						; size = 12
$T513138 = -4						; size = 4
__Parg$ = 8						; size = 4
__Al$ = 12						; size = 1
??0?$_Tree_val@V?$_Tmap_traits@KPAVioUIRenderImage@@U?$less@K@std@@V?$allocator@U?$pair@$$CBKPAVioUIRenderImage@@@std@@@3@$0A@@std@@@std@@QAE@ABU?$less@K@1@V?$allocator@U?$pair@$$CBKPAVioUIRenderImage@@@std@@@1@@Z PROC ; std::_Tree_val<std::_Tmap_traits<unsigned long,ioUIRenderImage *,std::less<unsigned long>,std::allocator<std::pair<unsigned long const ,ioUIRenderImage *> >,0> >::_Tree_val<std::_Tmap_traits<unsigned long,ioUIRenderImage *,std::less<unsigned long>,std::allocator<std::pair<unsigned long const ,ioUIRenderImage *> >,0> >, COMDAT
; _this$ = ecx

; 542  : 		{	// construct base, and allocator from _Al

  00000	55		 push	 ebp
  00001	8b ec		 mov	 ebp, esp
  00003	83 ec 10	 sub	 esp, 16			; 00000010H
  00006	56		 push	 esi
  00007	8b f1		 mov	 esi, ecx

; 543  : 		this->_Mysize = 0;

  00009	83 66 08 00	 and	 DWORD PTR [esi+8], 0

; 544  : 		this->_Myhead = this->_Alnod.allocate(1);

  0000d	6a 18		 push	 24			; 00000018H
  0000f	e8 00 00 00 00	 call	 ??2@YAPAXI@Z		; operator new
  00014	59		 pop	 ecx
  00015	85 c0		 test	 eax, eax
  00017	74 26		 je	 SHORT $LN15@Tree_val
  00019	89 46 04	 mov	 DWORD PTR [esi+4], eax

; 545  : 
; 546  : 		this->_Left(this->_Myhead) = this->_Myhead;

  0001c	89 00		 mov	 DWORD PTR [eax], eax

; 547  : 		this->_Parent(this->_Myhead) = this->_Myhead;

  0001e	8b 46 04	 mov	 eax, DWORD PTR [esi+4]
  00021	89 40 04	 mov	 DWORD PTR [eax+4], eax

; 548  : 		this->_Right(this->_Myhead) = this->_Myhead;

  00024	8b 46 04	 mov	 eax, DWORD PTR [esi+4]
  00027	89 40 08	 mov	 DWORD PTR [eax+8], eax

; 549  : 		this->_Color(this->_Myhead) = this->_Black;

  0002a	8b 46 04	 mov	 eax, DWORD PTR [esi+4]
  0002d	c6 40 14 01	 mov	 BYTE PTR [eax+20], 1

; 550  : 		this->_Isnil(this->_Myhead) = true;

  00031	8b 46 04	 mov	 eax, DWORD PTR [esi+4]
  00034	c6 40 15 01	 mov	 BYTE PTR [eax+21], 1

; 551  : 		}

  00038	8b c6		 mov	 eax, esi
  0003a	5e		 pop	 esi
  0003b	c9		 leave
  0003c	c2 08 00	 ret	 8

; 544  : 		this->_Myhead = this->_Alnod.allocate(1);

$LN15@Tree_val:
  0003f	83 65 fc 00	 and	 DWORD PTR $T513138[ebp], 0
  00043	8d 45 fc	 lea	 eax, DWORD PTR $T513138[ebp]
  00046	50		 push	 eax
  00047	8d 4d f0	 lea	 ecx, DWORD PTR $T513154[ebp]
  0004a	ff 15 00 00 00
	00		 call	 DWORD PTR __imp_??0exception@std@@QAE@ABQBD@Z
  00050	68 00 00 00 00	 push	 OFFSET __TI2?AVbad_alloc@std@@
  00055	8d 45 f0	 lea	 eax, DWORD PTR $T513154[ebp]
  00058	50		 push	 eax
  00059	c7 45 f0 00 00
	00 00		 mov	 DWORD PTR $T513154[ebp], OFFSET ??_7bad_alloc@std@@6B@
  00060	e8 00 00 00 00	 call	 __CxxThrowException@8
$LN37@Tree_val:
$LN36@Tree_val:
  00065	cc		 int	 3
??0?$_Tree_val@V?$_Tmap_traits@KPAVioUIRenderImage@@U?$less@K@std@@V?$allocator@U?$pair@$$CBKPAVioUIRenderImage@@@std@@@3@$0A@@std@@@std@@QAE@ABU?$less@K@1@V?$allocator@U?$pair@$$CBKPAVioUIRenderImage@@@std@@@1@@Z ENDP ; std::_Tree_val<std::_Tmap_traits<unsigned long,ioUIRenderImage *,std::less<unsigned long>,std::allocator<std::pair<unsigned long const ,ioUIRenderImage *> >,0> >::_Tree_val<std::_Tmap_traits<unsigned long,ioUIRenderImage *,std::less<unsigned long>,std::allocator<std::pair<unsigned long const ,ioUIRenderImage *> >,0> >
_TEXT	ENDS
PUBLIC	??_C@_0BB@MOGOBHAF@list?$DMT?$DO?5too?5long?$AA@ ; `string'
PUBLIC	?_Incsize@?$list@KV?$allocator@K@std@@@std@@QAEXI@Z ; std::list<unsigned long,std::allocator<unsigned long> >::_Incsize
;	COMDAT ??_C@_0BB@MOGOBHAF@list?$DMT?$DO?5too?5long?$AA@
; File c:\program files (x86)\microsoft visual studio 10.0\vc\include\xmemory
CONST	SEGMENT
??_C@_0BB@MOGOBHAF@list?$DMT?$DO?5too?5long?$AA@ DB 'list<T> too long', 00H ; `string'
; Function compile flags: /Ogsp
; File c:\program files (x86)\microsoft visual studio 10.0\vc\include\list
CONST	ENDS
;	COMDAT ?_Incsize@?$list@KV?$allocator@K@std@@@std@@QAEXI@Z
_TEXT	SEGMENT
__Count$ = 8						; size = 4
?_Incsize@?$list@KV?$allocator@K@std@@@std@@QAEXI@Z PROC ; std::list<unsigned long,std::allocator<unsigned long> >::_Incsize, COMDAT
; _this$ = ecx

; 1519 : 		{	// alter element count, with checking

  00000	55		 push	 ebp
  00001	8b ec		 mov	 ebp, esp

; 1520 : 		if (max_size() - this->_Mysize - 1 < _Count)

  00003	8b 41 04	 mov	 eax, DWORD PTR [ecx+4]
  00006	8b 55 08	 mov	 edx, DWORD PTR __Count$[ebp]
  00009	56		 push	 esi
  0000a	be fe ff ff 3f	 mov	 esi, 1073741822		; 3ffffffeH
  0000f	2b f0		 sub	 esi, eax
  00011	3b f2		 cmp	 esi, edx
  00013	5e		 pop	 esi
  00014	73 0b		 jae	 SHORT $LN1@Incsize

; 1521 : 			_Xlength_error("list<T> too long");

  00016	68 00 00 00 00	 push	 OFFSET ??_C@_0BB@MOGOBHAF@list?$DMT?$DO?5too?5long?$AA@
  0001b	ff 15 00 00 00
	00		 call	 DWORD PTR __imp_?_Xlength_error@std@@YAXPBD@Z
$LN11@Incsize:
$LN1@Incsize:

; 1522 : 		this->_Mysize += _Count;

  00021	03 c2		 add	 eax, edx
  00023	89 41 04	 mov	 DWORD PTR [ecx+4], eax

; 1523 : 		}

  00026	5d		 pop	 ebp
  00027	c2 04 00	 ret	 4
$LN10@Incsize:
?_Incsize@?$list@KV?$allocator@K@std@@@std@@QAEXI@Z ENDP ; std::list<unsigned long,std::allocator<unsigned long> >::_Incsize
_TEXT	ENDS
PUBLIC	??E?$_Tree_const_iterator@V?$_Tree_val@V?$_Tmap_traits@KPAVioUIRenderImage@@U?$less@K@std@@V?$allocator@U?$pair@$$CBKPAVioUIRenderImage@@@std@@@3@$0A@@std@@@std@@@std@@QAE?AV01@H@Z ; std::_Tree_const_iterator<std::_Tree_val<std::_Tmap_traits<unsigned long,ioUIRenderImage *,std::less<unsigned long>,std::allocator<std::pair<unsigned long const ,ioUIRenderImage *> >,0> > >::operator++
; Function compile flags: /Ogsp
; File c:\program files (x86)\microsoft visual studio 10.0\vc\include\xtree
;	COMDAT ??E?$_Tree_const_iterator@V?$_Tree_val@V?$_Tmap_traits@KPAVioUIRenderImage@@U?$less@K@std@@V?$allocator@U?$pair@$$CBKPAVioUIRenderImage@@@std@@@3@$0A@@std@@@std@@@std@@QAE?AV01@H@Z
_TEXT	SEGMENT
___$ReturnUdt$ = 8					; size = 4
___formal$ = 12						; size = 4
??E?$_Tree_const_iterator@V?$_Tree_val@V?$_Tmap_traits@KPAVioUIRenderImage@@U?$less@K@std@@V?$allocator@U?$pair@$$CBKPAVioUIRenderImage@@@std@@@3@$0A@@std@@@std@@@std@@QAE?AV01@H@Z PROC ; std::_Tree_const_iterator<std::_Tree_val<std::_Tmap_traits<unsigned long,ioUIRenderImage *,std::less<unsigned long>,std::allocator<std::pair<unsigned long const ,ioUIRenderImage *> >,0> > >::operator++, COMDAT
; _this$ = ecx

; 270  : 		{	// postincrement

  00000	55		 push	 ebp
  00001	8b ec		 mov	 ebp, esp

; 271  : 		_Myiter _Tmp = *this;

  00003	8b 01		 mov	 eax, DWORD PTR [ecx]
  00005	56		 push	 esi
  00006	8b 75 08	 mov	 esi, DWORD PTR ___$ReturnUdt$[ebp]
  00009	89 06		 mov	 DWORD PTR [esi], eax

; 272  : 		++*this;

  0000b	e8 00 00 00 00	 call	 ??E?$_Tree_unchecked_const_iterator@V?$_Tree_val@V?$_Tmap_traits@KPAVioUIRenderImage@@U?$less@K@std@@V?$allocator@U?$pair@$$CBKPAVioUIRenderImage@@@std@@@3@$0A@@std@@@std@@U_Iterator_base0@2@@std@@QAEAAV01@XZ ; std::_Tree_unchecked_const_iterator<std::_Tree_val<std::_Tmap_traits<unsigned long,ioUIRenderImage *,std::less<unsigned long>,std::allocator<std::pair<unsigned long const ,ioUIRenderImage *> >,0> >,std::_Iterator_base0>::operator++

; 273  : 		return (_Tmp);

  00010	8b c6		 mov	 eax, esi
  00012	5e		 pop	 esi

; 274  : 		}

  00013	5d		 pop	 ebp
  00014	c2 08 00	 ret	 8
??E?$_Tree_const_iterator@V?$_Tree_val@V?$_Tmap_traits@KPAVioUIRenderImage@@U?$less@K@std@@V?$allocator@U?$pair@$$CBKPAVioUIRenderImage@@@std@@@3@$0A@@std@@@std@@@std@@QAE?AV01@H@Z ENDP ; std::_Tree_const_iterator<std::_Tree_val<std::_Tmap_traits<unsigned long,ioUIRenderImage *,std::less<unsigned long>,std::allocator<std::pair<unsigned long const ,ioUIRenderImage *> >,0> > >::operator++
_TEXT	ENDS
PUBLIC	??$?0$0BF@@ioINILoader_e@@QAE@AAY0BF@$$CBD_N@Z	; ioINILoader_e::ioINILoader_e<21>
EXTRN	__imp_??0ioINILoader@@QAE@PBD_N@Z:PROC
; Function compile flags: /Ogsp
; File d:\lost saga for developer\youtube\tutorial\source\src\io3dengine\ioiniloader.h
;	COMDAT ??$?0$0BF@@ioINILoader_e@@QAE@AAY0BF@$$CBD_N@Z
_TEXT	SEGMENT
_fn$ = 8						; size = 4
_b$ = 12						; size = 1
??$?0$0BF@@ioINILoader_e@@QAE@AAY0BF@$$CBD_N@Z PROC	; ioINILoader_e::ioINILoader_e<21>, COMDAT
; _this$ = ecx

; 224  : 	{

  00000	55		 push	 ebp
  00001	8b ec		 mov	 ebp, esp
  00003	53		 push	 ebx
  00004	56		 push	 esi
  00005	8b f1		 mov	 esi, ecx
  00007	8b 4d 08	 mov	 ecx, DWORD PTR _fn$[ebp]
  0000a	8a 11		 mov	 dl, BYTE PTR [ecx]
  0000c	8d 86 50 03 00
	00		 lea	 eax, DWORD PTR [esi+848]
  00012	84 d2		 test	 dl, dl
  00014	0f 84 6a 04 00
	00		 je	 $LN99@ioINILoade
  0001a	80 f2 ed	 xor	 dl, -19			; ffffffedH
  0001d	88 10		 mov	 BYTE PTR [eax], dl
  0001f	8a 51 01	 mov	 dl, BYTE PTR [ecx+1]
  00022	84 d2		 test	 dl, dl
  00024	0f 84 54 04 00
	00		 je	 $LN98@ioINILoade
  0002a	80 f2 ec	 xor	 dl, -20			; ffffffecH
  0002d	88 50 01	 mov	 BYTE PTR [eax+1], dl
  00030	8a 51 02	 mov	 dl, BYTE PTR [ecx+2]
  00033	84 d2		 test	 dl, dl
  00035	0f 84 3d 04 00
	00		 je	 $LN97@ioINILoade
  0003b	b3 eb		 mov	 bl, -21			; ffffffebH
  0003d	32 d3		 xor	 dl, bl
  0003f	88 50 02	 mov	 BYTE PTR [eax+2], dl
  00042	8a 51 03	 mov	 dl, BYTE PTR [ecx+3]
  00045	84 d2		 test	 dl, dl
  00047	0f 84 25 04 00
	00		 je	 $LN96@ioINILoade
  0004d	80 f2 ea	 xor	 dl, -22			; ffffffeaH
  00050	88 50 03	 mov	 BYTE PTR [eax+3], dl
  00053	8a 51 04	 mov	 dl, BYTE PTR [ecx+4]
  00056	84 d2		 test	 dl, dl
  00058	0f 84 0e 04 00
	00		 je	 $LN95@ioINILoade
  0005e	80 f2 ed	 xor	 dl, -19			; ffffffedH
  00061	88 50 04	 mov	 BYTE PTR [eax+4], dl
  00064	8a 51 05	 mov	 dl, BYTE PTR [ecx+5]
  00067	84 d2		 test	 dl, dl
  00069	0f 84 f7 03 00
	00		 je	 $LN94@ioINILoade
  0006f	80 f2 ec	 xor	 dl, -20			; ffffffecH
  00072	88 50 05	 mov	 BYTE PTR [eax+5], dl
  00075	8a 51 06	 mov	 dl, BYTE PTR [ecx+6]
  00078	84 d2		 test	 dl, dl
  0007a	0f 84 e1 03 00
	00		 je	 $LN93@ioINILoade
  00080	32 d3		 xor	 dl, bl
  00082	88 50 06	 mov	 BYTE PTR [eax+6], dl
  00085	8a 51 07	 mov	 dl, BYTE PTR [ecx+7]
  00088	84 d2		 test	 dl, dl
  0008a	0f 84 cb 03 00
	00		 je	 $LN92@ioINILoade
  00090	80 f2 ea	 xor	 dl, -22			; ffffffeaH
  00093	88 50 07	 mov	 BYTE PTR [eax+7], dl
  00096	8a 51 08	 mov	 dl, BYTE PTR [ecx+8]
  00099	84 d2		 test	 dl, dl
  0009b	0f 84 b4 03 00
	00		 je	 $LN91@ioINILoade
  000a1	80 f2 ed	 xor	 dl, -19			; ffffffedH
  000a4	88 50 08	 mov	 BYTE PTR [eax+8], dl
  000a7	8a 51 09	 mov	 dl, BYTE PTR [ecx+9]
  000aa	84 d2		 test	 dl, dl
  000ac	0f 84 9d 03 00
	00		 je	 $LN90@ioINILoade
  000b2	80 f2 ec	 xor	 dl, -20			; ffffffecH
  000b5	88 50 09	 mov	 BYTE PTR [eax+9], dl
  000b8	8a 51 0a	 mov	 dl, BYTE PTR [ecx+10]
  000bb	84 d2		 test	 dl, dl
  000bd	0f 84 87 03 00
	00		 je	 $LN89@ioINILoade
  000c3	32 d3		 xor	 dl, bl
  000c5	88 50 0a	 mov	 BYTE PTR [eax+10], dl
  000c8	8a 51 0b	 mov	 dl, BYTE PTR [ecx+11]
  000cb	84 d2		 test	 dl, dl
  000cd	0f 84 71 03 00
	00		 je	 $LN88@ioINILoade
  000d3	80 f2 ea	 xor	 dl, -22			; ffffffeaH
  000d6	88 50 0b	 mov	 BYTE PTR [eax+11], dl
  000d9	8a 51 0c	 mov	 dl, BYTE PTR [ecx+12]
  000dc	84 d2		 test	 dl, dl
  000de	0f 84 5a 03 00
	00		 je	 $LN87@ioINILoade
  000e4	80 f2 ed	 xor	 dl, -19			; ffffffedH
  000e7	88 50 0c	 mov	 BYTE PTR [eax+12], dl
  000ea	8a 51 0d	 mov	 dl, BYTE PTR [ecx+13]
  000ed	84 d2		 test	 dl, dl
  000ef	0f 84 43 03 00
	00		 je	 $LN86@ioINILoade
  000f5	80 f2 ec	 xor	 dl, -20			; ffffffecH
  000f8	88 50 0d	 mov	 BYTE PTR [eax+13], dl
  000fb	8a 51 0e	 mov	 dl, BYTE PTR [ecx+14]
  000fe	84 d2		 test	 dl, dl
  00100	0f 84 2d 03 00
	00		 je	 $LN85@ioINILoade
  00106	32 d3		 xor	 dl, bl
  00108	88 50 0e	 mov	 BYTE PTR [eax+14], dl
  0010b	8a 51 0f	 mov	 dl, BYTE PTR [ecx+15]
  0010e	84 d2		 test	 dl, dl
  00110	0f 84 17 03 00
	00		 je	 $LN84@ioINILoade
  00116	80 f2 ea	 xor	 dl, -22			; ffffffeaH
  00119	88 50 0f	 mov	 BYTE PTR [eax+15], dl
  0011c	8a 51 10	 mov	 dl, BYTE PTR [ecx+16]
  0011f	84 d2		 test	 dl, dl
  00121	0f 84 00 03 00
	00		 je	 $LN83@ioINILoade
  00127	80 f2 ed	 xor	 dl, -19			; ffffffedH
  0012a	88 50 10	 mov	 BYTE PTR [eax+16], dl
  0012d	8a 51 11	 mov	 dl, BYTE PTR [ecx+17]
  00130	84 d2		 test	 dl, dl
  00132	0f 84 e9 02 00
	00		 je	 $LN82@ioINILoade
  00138	80 f2 ec	 xor	 dl, -20			; ffffffecH
  0013b	88 50 11	 mov	 BYTE PTR [eax+17], dl
  0013e	8a 51 12	 mov	 dl, BYTE PTR [ecx+18]
  00141	84 d2		 test	 dl, dl
  00143	0f 84 d3 02 00
	00		 je	 $LN81@ioINILoade
  00149	32 d3		 xor	 dl, bl
  0014b	88 50 12	 mov	 BYTE PTR [eax+18], dl
  0014e	8a 51 13	 mov	 dl, BYTE PTR [ecx+19]
  00151	84 d2		 test	 dl, dl
  00153	0f 84 bd 02 00
	00		 je	 $LN80@ioINILoade
  00159	80 f2 ea	 xor	 dl, -22			; ffffffeaH
  0015c	88 50 13	 mov	 BYTE PTR [eax+19], dl
  0015f	8a 51 14	 mov	 dl, BYTE PTR [ecx+20]
  00162	84 d2		 test	 dl, dl
  00164	0f 84 a6 02 00
	00		 je	 $LN79@ioINILoade
  0016a	80 f2 ed	 xor	 dl, -19			; ffffffedH
  0016d	88 50 14	 mov	 BYTE PTR [eax+20], dl
  00170	8a 51 15	 mov	 dl, BYTE PTR [ecx+21]
  00173	84 d2		 test	 dl, dl
  00175	0f 84 8f 02 00
	00		 je	 $LN78@ioINILoade
  0017b	80 f2 ec	 xor	 dl, -20			; ffffffecH
  0017e	88 50 15	 mov	 BYTE PTR [eax+21], dl
  00181	8a 51 16	 mov	 dl, BYTE PTR [ecx+22]
  00184	84 d2		 test	 dl, dl
  00186	0f 84 79 02 00
	00		 je	 $LN77@ioINILoade
  0018c	32 d3		 xor	 dl, bl
  0018e	88 50 16	 mov	 BYTE PTR [eax+22], dl
  00191	8a 51 17	 mov	 dl, BYTE PTR [ecx+23]
  00194	84 d2		 test	 dl, dl
  00196	0f 84 60 02 00
	00		 je	 $LN76@ioINILoade
  0019c	80 f2 ea	 xor	 dl, -22			; ffffffeaH
  0019f	88 50 17	 mov	 BYTE PTR [eax+23], dl
  001a2	8a 51 18	 mov	 dl, BYTE PTR [ecx+24]
  001a5	84 d2		 test	 dl, dl
  001a7	0f 84 46 02 00
	00		 je	 $LN75@ioINILoade
  001ad	80 f2 ed	 xor	 dl, -19			; ffffffedH
  001b0	88 50 18	 mov	 BYTE PTR [eax+24], dl
  001b3	8a 51 19	 mov	 dl, BYTE PTR [ecx+25]
  001b6	84 d2		 test	 dl, dl
  001b8	0f 84 2c 02 00
	00		 je	 $LN74@ioINILoade
  001be	80 f2 ec	 xor	 dl, -20			; ffffffecH
  001c1	88 50 19	 mov	 BYTE PTR [eax+25], dl
  001c4	8a 51 1a	 mov	 dl, BYTE PTR [ecx+26]
  001c7	84 d2		 test	 dl, dl
  001c9	0f 84 13 02 00
	00		 je	 $LN73@ioINILoade
  001cf	32 d3		 xor	 dl, bl
  001d1	88 50 1a	 mov	 BYTE PTR [eax+26], dl
  001d4	8a 51 1b	 mov	 dl, BYTE PTR [ecx+27]
  001d7	84 d2		 test	 dl, dl
  001d9	0f 84 fa 01 00
	00		 je	 $LN72@ioINILoade
  001df	80 f2 ea	 xor	 dl, -22			; ffffffeaH
  001e2	88 50 1b	 mov	 BYTE PTR [eax+27], dl
  001e5	8a 51 1c	 mov	 dl, BYTE PTR [ecx+28]
  001e8	84 d2		 test	 dl, dl
  001ea	0f 84 e0 01 00
	00		 je	 $LN71@ioINILoade
  001f0	80 f2 ed	 xor	 dl, -19			; ffffffedH
  001f3	88 50 1c	 mov	 BYTE PTR [eax+28], dl
  001f6	8a 51 1d	 mov	 dl, BYTE PTR [ecx+29]
  001f9	84 d2		 test	 dl, dl
  001fb	0f 84 c6 01 00
	00		 je	 $LN70@ioINILoade
  00201	80 f2 ec	 xor	 dl, -20			; ffffffecH
  00204	88 50 1d	 mov	 BYTE PTR [eax+29], dl
  00207	8a 51 1e	 mov	 dl, BYTE PTR [ecx+30]
  0020a	84 d2		 test	 dl, dl
  0020c	0f 84 ad 01 00
	00		 je	 $LN69@ioINILoade
  00212	32 d3		 xor	 dl, bl
  00214	88 50 1e	 mov	 BYTE PTR [eax+30], dl
  00217	8a 51 1f	 mov	 dl, BYTE PTR [ecx+31]
  0021a	84 d2		 test	 dl, dl
  0021c	0f 84 94 01 00
	00		 je	 $LN68@ioINILoade
  00222	80 f2 ea	 xor	 dl, -22			; ffffffeaH
  00225	88 50 1f	 mov	 BYTE PTR [eax+31], dl
  00228	8a 51 20	 mov	 dl, BYTE PTR [ecx+32]
  0022b	84 d2		 test	 dl, dl
  0022d	0f 84 7a 01 00
	00		 je	 $LN67@ioINILoade
  00233	80 f2 ed	 xor	 dl, -19			; ffffffedH
  00236	88 50 20	 mov	 BYTE PTR [eax+32], dl
  00239	8a 51 21	 mov	 dl, BYTE PTR [ecx+33]
  0023c	84 d2		 test	 dl, dl
  0023e	0f 84 60 01 00
	00		 je	 $LN66@ioINILoade
  00244	80 f2 ec	 xor	 dl, -20			; ffffffecH
  00247	88 50 21	 mov	 BYTE PTR [eax+33], dl
  0024a	8a 51 22	 mov	 dl, BYTE PTR [ecx+34]
  0024d	84 d2		 test	 dl, dl
  0024f	0f 84 47 01 00
	00		 je	 $LN65@ioINILoade
  00255	32 d3		 xor	 dl, bl
  00257	88 50 22	 mov	 BYTE PTR [eax+34], dl
  0025a	8a 51 23	 mov	 dl, BYTE PTR [ecx+35]
  0025d	84 d2		 test	 dl, dl
  0025f	0f 84 2e 01 00
	00		 je	 $LN64@ioINILoade
  00265	80 f2 ea	 xor	 dl, -22			; ffffffeaH
  00268	88 50 23	 mov	 BYTE PTR [eax+35], dl
  0026b	8a 51 24	 mov	 dl, BYTE PTR [ecx+36]
  0026e	84 d2		 test	 dl, dl
  00270	0f 84 14 01 00
	00		 je	 $LN63@ioINILoade
  00276	80 f2 ed	 xor	 dl, -19			; ffffffedH
  00279	88 50 24	 mov	 BYTE PTR [eax+36], dl
  0027c	8a 51 25	 mov	 dl, BYTE PTR [ecx+37]
  0027f	84 d2		 test	 dl, dl
  00281	0f 84 fa 00 00
	00		 je	 $LN62@ioINILoade
  00287	80 f2 ec	 xor	 dl, -20			; ffffffecH
  0028a	88 50 25	 mov	 BYTE PTR [eax+37], dl
  0028d	8a 51 26	 mov	 dl, BYTE PTR [ecx+38]
  00290	84 d2		 test	 dl, dl
  00292	0f 84 e1 00 00
	00		 je	 $LN61@ioINILoade
  00298	32 d3		 xor	 dl, bl
  0029a	88 50 26	 mov	 BYTE PTR [eax+38], dl
  0029d	8a 51 27	 mov	 dl, BYTE PTR [ecx+39]
  002a0	84 d2		 test	 dl, dl
  002a2	0f 84 c8 00 00
	00		 je	 $LN60@ioINILoade
  002a8	80 f2 ea	 xor	 dl, -22			; ffffffeaH
  002ab	88 50 27	 mov	 BYTE PTR [eax+39], dl
  002ae	8a 51 28	 mov	 dl, BYTE PTR [ecx+40]
  002b1	84 d2		 test	 dl, dl
  002b3	0f 84 ae 00 00
	00		 je	 $LN59@ioINILoade
  002b9	80 f2 ed	 xor	 dl, -19			; ffffffedH
  002bc	88 50 28	 mov	 BYTE PTR [eax+40], dl
  002bf	8a 51 29	 mov	 dl, BYTE PTR [ecx+41]
  002c2	84 d2		 test	 dl, dl
  002c4	0f 84 94 00 00
	00		 je	 $LN58@ioINILoade
  002ca	80 f2 ec	 xor	 dl, -20			; ffffffecH
  002cd	88 50 29	 mov	 BYTE PTR [eax+41], dl
  002d0	8a 51 2a	 mov	 dl, BYTE PTR [ecx+42]
  002d3	84 d2		 test	 dl, dl
  002d5	74 7f		 je	 SHORT $LN57@ioINILoade
  002d7	32 d3		 xor	 dl, bl
  002d9	88 50 2a	 mov	 BYTE PTR [eax+42], dl
  002dc	8a 51 2b	 mov	 dl, BYTE PTR [ecx+43]
  002df	84 d2		 test	 dl, dl
  002e1	74 6a		 je	 SHORT $LN56@ioINILoade
  002e3	80 f2 ea	 xor	 dl, -22			; ffffffeaH
  002e6	88 50 2b	 mov	 BYTE PTR [eax+43], dl
  002e9	8a 51 2c	 mov	 dl, BYTE PTR [ecx+44]
  002ec	84 d2		 test	 dl, dl
  002ee	74 54		 je	 SHORT $LN55@ioINILoade
  002f0	80 f2 ed	 xor	 dl, -19			; ffffffedH
  002f3	88 50 2c	 mov	 BYTE PTR [eax+44], dl
  002f6	8a 51 2d	 mov	 dl, BYTE PTR [ecx+45]
  002f9	84 d2		 test	 dl, dl
  002fb	74 3e		 je	 SHORT $LN54@ioINILoade
  002fd	80 f2 ec	 xor	 dl, -20			; ffffffecH
  00300	88 50 2d	 mov	 BYTE PTR [eax+45], dl
  00303	8a 51 2e	 mov	 dl, BYTE PTR [ecx+46]
  00306	84 d2		 test	 dl, dl
  00308	74 29		 je	 SHORT $LN53@ioINILoade
  0030a	32 d3		 xor	 dl, bl
  0030c	88 50 2e	 mov	 BYTE PTR [eax+46], dl
  0030f	8a 51 2f	 mov	 dl, BYTE PTR [ecx+47]
  00312	84 d2		 test	 dl, dl
  00314	74 14		 je	 SHORT $LN52@ioINILoade
  00316	80 f2 ea	 xor	 dl, -22			; ffffffeaH
  00319	88 50 2f	 mov	 BYTE PTR [eax+47], dl
  0031c	8a 49 30	 mov	 cl, BYTE PTR [ecx+48]
  0031f	80 f1 ed	 xor	 cl, -19			; ffffffedH
  00322	88 48 30	 mov	 BYTE PTR [eax+48], cl
  00325	e9 5d 01 00 00	 jmp	 $LN4@ioINILoade
$LN52@ioINILoade:
  0032a	c6 40 2f ea	 mov	 BYTE PTR [eax+47], -22	; ffffffeaH
  0032e	e9 54 01 00 00	 jmp	 $LN4@ioINILoade
$LN53@ioINILoade:
  00333	88 58 2e	 mov	 BYTE PTR [eax+46], bl
  00336	e9 4c 01 00 00	 jmp	 $LN4@ioINILoade
$LN54@ioINILoade:
  0033b	c6 40 2d ec	 mov	 BYTE PTR [eax+45], -20	; ffffffecH
  0033f	e9 43 01 00 00	 jmp	 $LN4@ioINILoade
$LN55@ioINILoade:
  00344	c6 40 2c ed	 mov	 BYTE PTR [eax+44], -19	; ffffffedH
  00348	e9 3a 01 00 00	 jmp	 $LN4@ioINILoade
$LN56@ioINILoade:
  0034d	c6 40 2b ea	 mov	 BYTE PTR [eax+43], -22	; ffffffeaH
  00351	e9 31 01 00 00	 jmp	 $LN4@ioINILoade
$LN57@ioINILoade:
  00356	88 58 2a	 mov	 BYTE PTR [eax+42], bl
  00359	e9 29 01 00 00	 jmp	 $LN4@ioINILoade
$LN58@ioINILoade:
  0035e	c6 40 29 ec	 mov	 BYTE PTR [eax+41], -20	; ffffffecH
  00362	e9 20 01 00 00	 jmp	 $LN4@ioINILoade
$LN59@ioINILoade:
  00367	c6 40 28 ed	 mov	 BYTE PTR [eax+40], -19	; ffffffedH
  0036b	e9 17 01 00 00	 jmp	 $LN4@ioINILoade
$LN60@ioINILoade:
  00370	c6 40 27 ea	 mov	 BYTE PTR [eax+39], -22	; ffffffeaH
  00374	e9 0e 01 00 00	 jmp	 $LN4@ioINILoade
$LN61@ioINILoade:
  00379	88 58 26	 mov	 BYTE PTR [eax+38], bl
  0037c	e9 06 01 00 00	 jmp	 $LN4@ioINILoade
$LN62@ioINILoade:
  00381	c6 40 25 ec	 mov	 BYTE PTR [eax+37], -20	; ffffffecH
  00385	e9 fd 00 00 00	 jmp	 $LN4@ioINILoade
$LN63@ioINILoade:
  0038a	c6 40 24 ed	 mov	 BYTE PTR [eax+36], -19	; ffffffedH
  0038e	e9 f4 00 00 00	 jmp	 $LN4@ioINILoade
$LN64@ioINILoade:
  00393	c6 40 23 ea	 mov	 BYTE PTR [eax+35], -22	; ffffffeaH
  00397	e9 eb 00 00 00	 jmp	 $LN4@ioINILoade
$LN65@ioINILoade:
  0039c	88 58 22	 mov	 BYTE PTR [eax+34], bl
  0039f	e9 e3 00 00 00	 jmp	 $LN4@ioINILoade
$LN66@ioINILoade:
  003a4	c6 40 21 ec	 mov	 BYTE PTR [eax+33], -20	; ffffffecH
  003a8	e9 da 00 00 00	 jmp	 $LN4@ioINILoade
$LN67@ioINILoade:
  003ad	c6 40 20 ed	 mov	 BYTE PTR [eax+32], -19	; ffffffedH
  003b1	e9 d1 00 00 00	 jmp	 $LN4@ioINILoade
$LN68@ioINILoade:
  003b6	c6 40 1f ea	 mov	 BYTE PTR [eax+31], -22	; ffffffeaH
  003ba	e9 c8 00 00 00	 jmp	 $LN4@ioINILoade
$LN69@ioINILoade:
  003bf	88 58 1e	 mov	 BYTE PTR [eax+30], bl
  003c2	e9 c0 00 00 00	 jmp	 $LN4@ioINILoade
$LN70@ioINILoade:
  003c7	c6 40 1d ec	 mov	 BYTE PTR [eax+29], -20	; ffffffecH
  003cb	e9 b7 00 00 00	 jmp	 $LN4@ioINILoade
$LN71@ioINILoade:
  003d0	c6 40 1c ed	 mov	 BYTE PTR [eax+28], -19	; ffffffedH
  003d4	e9 ae 00 00 00	 jmp	 $LN4@ioINILoade
$LN72@ioINILoade:
  003d9	c6 40 1b ea	 mov	 BYTE PTR [eax+27], -22	; ffffffeaH
  003dd	e9 a5 00 00 00	 jmp	 $LN4@ioINILoade
$LN73@ioINILoade:
  003e2	88 58 1a	 mov	 BYTE PTR [eax+26], bl
  003e5	e9 9d 00 00 00	 jmp	 $LN4@ioINILoade
$LN74@ioINILoade:
  003ea	c6 40 19 ec	 mov	 BYTE PTR [eax+25], -20	; ffffffecH
  003ee	e9 94 00 00 00	 jmp	 $LN4@ioINILoade
$LN75@ioINILoade:
  003f3	c6 40 18 ed	 mov	 BYTE PTR [eax+24], -19	; ffffffedH
  003f7	e9 8b 00 00 00	 jmp	 $LN4@ioINILoade
$LN76@ioINILoade:
  003fc	c6 40 17 ea	 mov	 BYTE PTR [eax+23], -22	; ffffffeaH
  00400	e9 82 00 00 00	 jmp	 $LN4@ioINILoade
$LN77@ioINILoade:
  00405	88 58 16	 mov	 BYTE PTR [eax+22], bl
  00408	eb 7d		 jmp	 SHORT $LN4@ioINILoade
$LN78@ioINILoade:
  0040a	c6 40 15 ec	 mov	 BYTE PTR [eax+21], -20	; ffffffecH
  0040e	eb 77		 jmp	 SHORT $LN4@ioINILoade
$LN79@ioINILoade:
  00410	c6 40 14 ed	 mov	 BYTE PTR [eax+20], -19	; ffffffedH
  00414	eb 71		 jmp	 SHORT $LN4@ioINILoade
$LN80@ioINILoade:
  00416	c6 40 13 ea	 mov	 BYTE PTR [eax+19], -22	; ffffffeaH
  0041a	eb 6b		 jmp	 SHORT $LN4@ioINILoade
$LN81@ioINILoade:
  0041c	88 58 12	 mov	 BYTE PTR [eax+18], bl
  0041f	eb 66		 jmp	 SHORT $LN4@ioINILoade
$LN82@ioINILoade:
  00421	c6 40 11 ec	 mov	 BYTE PTR [eax+17], -20	; ffffffecH
  00425	eb 60		 jmp	 SHORT $LN4@ioINILoade
$LN83@ioINILoade:
  00427	c6 40 10 ed	 mov	 BYTE PTR [eax+16], -19	; ffffffedH
  0042b	eb 5a		 jmp	 SHORT $LN4@ioINILoade
$LN84@ioINILoade:
  0042d	c6 40 0f ea	 mov	 BYTE PTR [eax+15], -22	; ffffffeaH
  00431	eb 54		 jmp	 SHORT $LN4@ioINILoade
$LN85@ioINILoade:
  00433	88 58 0e	 mov	 BYTE PTR [eax+14], bl
  00436	eb 4f		 jmp	 SHORT $LN4@ioINILoade
$LN86@ioINILoade:
  00438	c6 40 0d ec	 mov	 BYTE PTR [eax+13], -20	; ffffffecH
  0043c	eb 49		 jmp	 SHORT $LN4@ioINILoade
$LN87@ioINILoade:
  0043e	c6 40 0c ed	 mov	 BYTE PTR [eax+12], -19	; ffffffedH
  00442	eb 43		 jmp	 SHORT $LN4@ioINILoade
$LN88@ioINILoade:
  00444	c6 40 0b ea	 mov	 BYTE PTR [eax+11], -22	; ffffffeaH
  00448	eb 3d		 jmp	 SHORT $LN4@ioINILoade
$LN89@ioINILoade:
  0044a	88 58 0a	 mov	 BYTE PTR [eax+10], bl
  0044d	eb 38		 jmp	 SHORT $LN4@ioINILoade
$LN90@ioINILoade:
  0044f	c6 40 09 ec	 mov	 BYTE PTR [eax+9], -20	; ffffffecH
  00453	eb 32		 jmp	 SHORT $LN4@ioINILoade
$LN91@ioINILoade:
  00455	c6 40 08 ed	 mov	 BYTE PTR [eax+8], -19	; ffffffedH
  00459	eb 2c		 jmp	 SHORT $LN4@ioINILoade
$LN92@ioINILoade:
  0045b	c6 40 07 ea	 mov	 BYTE PTR [eax+7], -22	; ffffffeaH
  0045f	eb 26		 jmp	 SHORT $LN4@ioINILoade
$LN93@ioINILoade:
  00461	88 58 06	 mov	 BYTE PTR [eax+6], bl
  00464	eb 21		 jmp	 SHORT $LN4@ioINILoade
$LN94@ioINILoade:
  00466	c6 40 05 ec	 mov	 BYTE PTR [eax+5], -20	; ffffffecH
  0046a	eb 1b		 jmp	 SHORT $LN4@ioINILoade
$LN95@ioINILoade:
  0046c	c6 40 04 ed	 mov	 BYTE PTR [eax+4], -19	; ffffffedH
  00470	eb 15		 jmp	 SHORT $LN4@ioINILoade
$LN96@ioINILoade:
  00472	c6 40 03 ea	 mov	 BYTE PTR [eax+3], -22	; ffffffeaH
  00476	eb 0f		 jmp	 SHORT $LN4@ioINILoade
$LN97@ioINILoade:
  00478	c6 40 02 eb	 mov	 BYTE PTR [eax+2], -21	; ffffffebH
  0047c	eb 09		 jmp	 SHORT $LN4@ioINILoade
$LN98@ioINILoade:
  0047e	c6 40 01 ec	 mov	 BYTE PTR [eax+1], -20	; ffffffecH
  00482	eb 03		 jmp	 SHORT $LN4@ioINILoade
$LN99@ioINILoade:
  00484	c6 00 ed	 mov	 BYTE PTR [eax], -19	; ffffffedH
$LN4@ioINILoade:
  00487	6a 05		 push	 5
  00489	8b c8		 mov	 ecx, eax
  0048b	c6 40 14 00	 mov	 BYTE PTR [eax+20], 0
  0048f	5a		 pop	 edx
$LL107@ioINILoade:
  00490	81 31 ed ec eb
	ea		 xor	 DWORD PTR [ecx], -353637139 ; eaebecedH
  00496	83 c1 04	 add	 ecx, 4
  00499	4a		 dec	 edx
  0049a	75 f4		 jne	 SHORT $LL107@ioINILoade
  0049c	ff 75 0c	 push	 DWORD PTR _b$[ebp]
  0049f	8b ce		 mov	 ecx, esi
  004a1	50		 push	 eax
  004a2	ff 15 00 00 00
	00		 call	 DWORD PTR __imp_??0ioINILoader@@QAE@PBD_N@Z

; 225  : 	}

  004a8	8b c6		 mov	 eax, esi
  004aa	5e		 pop	 esi
  004ab	5b		 pop	 ebx
  004ac	5d		 pop	 ebp
  004ad	c2 08 00	 ret	 8
??$?0$0BF@@ioINILoader_e@@QAE@AAY0BF@$$CBD_N@Z ENDP	; ioINILoader_e::ioINILoader_e<21>
_TEXT	ENDS
PUBLIC	??$?0AAHPAVioUIRenderImage@@@?$pair@$$CBKPAVioUIRenderImage@@@std@@QAE@AAH$$QAPAVioUIRenderImage@@@Z ; std::pair<unsigned long const ,ioUIRenderImage *>::pair<unsigned long const ,ioUIRenderImage *><int &,ioUIRenderImage *>
; Function compile flags: /Ogsp
; File c:\program files (x86)\microsoft visual studio 10.0\vc\include\utility
;	COMDAT ??$?0AAHPAVioUIRenderImage@@@?$pair@$$CBKPAVioUIRenderImage@@@std@@QAE@AAH$$QAPAVioUIRenderImage@@@Z
_TEXT	SEGMENT
__Val1$ = 8						; size = 4
__Val2$ = 12						; size = 4
??$?0AAHPAVioUIRenderImage@@@?$pair@$$CBKPAVioUIRenderImage@@@std@@QAE@AAH$$QAPAVioUIRenderImage@@@Z PROC ; std::pair<unsigned long const ,ioUIRenderImage *>::pair<unsigned long const ,ioUIRenderImage *><int &,ioUIRenderImage *>, COMDAT
; _this$ = ecx

; 247  : 		{	// construct from moved values

  00000	55		 push	 ebp
  00001	8b ec		 mov	 ebp, esp
  00003	8b c1		 mov	 eax, ecx
  00005	8b 4d 08	 mov	 ecx, DWORD PTR __Val1$[ebp]
  00008	8b 09		 mov	 ecx, DWORD PTR [ecx]
  0000a	89 08		 mov	 DWORD PTR [eax], ecx
  0000c	8b 4d 0c	 mov	 ecx, DWORD PTR __Val2$[ebp]
  0000f	8b 09		 mov	 ecx, DWORD PTR [ecx]
  00011	89 48 04	 mov	 DWORD PTR [eax+4], ecx

; 248  : 		}

  00014	5d		 pop	 ebp
  00015	c2 08 00	 ret	 8
??$?0AAHPAVioUIRenderImage@@@?$pair@$$CBKPAVioUIRenderImage@@@std@@QAE@AAH$$QAPAVioUIRenderImage@@@Z ENDP ; std::pair<unsigned long const ,ioUIRenderImage *>::pair<unsigned long const ,ioUIRenderImage *><int &,ioUIRenderImage *>
_TEXT	ENDS
PUBLIC	??$?0AAKAAPAVioUIRenderImage@@@?$pair@$$CBKPAVioUIRenderImage@@@std@@QAE@AAKAAPAVioUIRenderImage@@@Z ; std::pair<unsigned long const ,ioUIRenderImage *>::pair<unsigned long const ,ioUIRenderImage *><unsigned long &,ioUIRenderImage * &>
; Function compile flags: /Ogsp
;	COMDAT ??$?0AAKAAPAVioUIRenderImage@@@?$pair@$$CBKPAVioUIRenderImage@@@std@@QAE@AAKAAPAVioUIRenderImage@@@Z
_TEXT	SEGMENT
__Val1$ = 8						; size = 4
__Val2$ = 12						; size = 4
??$?0AAKAAPAVioUIRenderImage@@@?$pair@$$CBKPAVioUIRenderImage@@@std@@QAE@AAKAAPAVioUIRenderImage@@@Z PROC ; std::pair<unsigned long const ,ioUIRenderImage *>::pair<unsigned long const ,ioUIRenderImage *><unsigned long &,ioUIRenderImage * &>, COMDAT
; _this$ = ecx

; 247  : 		{	// construct from moved values

  00000	55		 push	 ebp
  00001	8b ec		 mov	 ebp, esp
  00003	8b c1		 mov	 eax, ecx
  00005	8b 4d 08	 mov	 ecx, DWORD PTR __Val1$[ebp]
  00008	8b 09		 mov	 ecx, DWORD PTR [ecx]
  0000a	89 08		 mov	 DWORD PTR [eax], ecx
  0000c	8b 4d 0c	 mov	 ecx, DWORD PTR __Val2$[ebp]
  0000f	8b 09		 mov	 ecx, DWORD PTR [ecx]
  00011	89 48 04	 mov	 DWORD PTR [eax+4], ecx

; 248  : 		}

  00014	5d		 pop	 ebp
  00015	c2 08 00	 ret	 8
??$?0AAKAAPAVioUIRenderImage@@@?$pair@$$CBKPAVioUIRenderImage@@@std@@QAE@AAKAAPAVioUIRenderImage@@@Z ENDP ; std::pair<unsigned long const ,ioUIRenderImage *>::pair<unsigned long const ,ioUIRenderImage *><unsigned long &,ioUIRenderImage * &>
_TEXT	ENDS
PUBLIC	??$_Cons_val@V?$allocator@PAUCustomMarkData@ioGuildMarkMgr@@@std@@PAUCustomMarkData@ioGuildMarkMgr@@ABQAU34@@std@@YAXAAV?$allocator@PAUCustomMarkData@ioGuildMarkMgr@@@0@PAPAUCustomMarkData@ioGuildMarkMgr@@ABQAU23@@Z ; std::_Cons_val<std::allocator<ioGuildMarkMgr::CustomMarkData *>,ioGuildMarkMgr::CustomMarkData *,ioGuildMarkMgr::CustomMarkData * const &>
; Function compile flags: /Ogsp
; File c:\program files (x86)\microsoft visual studio 10.0\vc\include\xmemory
;	COMDAT ??$_Cons_val@V?$allocator@PAUCustomMarkData@ioGuildMarkMgr@@@std@@PAUCustomMarkData@ioGuildMarkMgr@@ABQAU34@@std@@YAXAAV?$allocator@PAUCustomMarkData@ioGuildMarkMgr@@@0@PAPAUCustomMarkData@ioGuildMarkMgr@@ABQAU23@@Z
_TEXT	SEGMENT
__Alval$ = 8						; size = 4
__Pdest$ = 12						; size = 4
__Src$ = 16						; size = 4
??$_Cons_val@V?$allocator@PAUCustomMarkData@ioGuildMarkMgr@@@std@@PAUCustomMarkData@ioGuildMarkMgr@@ABQAU34@@std@@YAXAAV?$allocator@PAUCustomMarkData@ioGuildMarkMgr@@@0@PAPAUCustomMarkData@ioGuildMarkMgr@@ABQAU23@@Z PROC ; std::_Cons_val<std::allocator<ioGuildMarkMgr::CustomMarkData *>,ioGuildMarkMgr::CustomMarkData *,ioGuildMarkMgr::CustomMarkData * const &>, COMDAT

; 279  : 	{	// construct using allocator

  00000	55		 push	 ebp
  00001	8b ec		 mov	 ebp, esp

; 280  : 	_Alval.construct(_Pdest, _STD forward<_Ty2>(_Src));

  00003	8b 45 0c	 mov	 eax, DWORD PTR __Pdest$[ebp]
  00006	85 c0		 test	 eax, eax
  00008	74 07		 je	 SHORT $LN9@Cons_val@2
  0000a	8b 4d 10	 mov	 ecx, DWORD PTR __Src$[ebp]
  0000d	8b 09		 mov	 ecx, DWORD PTR [ecx]
  0000f	89 08		 mov	 DWORD PTR [eax], ecx
$LN9@Cons_val@2:

; 281  : 	}

  00011	5d		 pop	 ebp
  00012	c3		 ret	 0
??$_Cons_val@V?$allocator@PAUCustomMarkData@ioGuildMarkMgr@@@std@@PAUCustomMarkData@ioGuildMarkMgr@@ABQAU34@@std@@YAXAAV?$allocator@PAUCustomMarkData@ioGuildMarkMgr@@@0@PAPAUCustomMarkData@ioGuildMarkMgr@@ABQAU23@@Z ENDP ; std::_Cons_val<std::allocator<ioGuildMarkMgr::CustomMarkData *>,ioGuildMarkMgr::CustomMarkData *,ioGuildMarkMgr::CustomMarkData * const &>
_TEXT	ENDS
PUBLIC	??$_Dest_val@V?$allocator@U_Node@?$_List_nod@KV?$allocator@K@std@@@std@@@std@@U_Node@?$_List_nod@KV?$allocator@K@std@@@2@@std@@YAXAAV?$allocator@U_Node@?$_List_nod@KV?$allocator@K@std@@@std@@@0@PAU_Node@?$_List_nod@KV?$allocator@K@std@@@0@@Z ; std::_Dest_val<std::allocator<std::_List_nod<unsigned long,std::allocator<unsigned long> >::_Node>,std::_List_nod<unsigned long,std::allocator<unsigned long> >::_Node>
; Function compile flags: /Ogsp
;	COMDAT ??$_Dest_val@V?$allocator@U_Node@?$_List_nod@KV?$allocator@K@std@@@std@@@std@@U_Node@?$_List_nod@KV?$allocator@K@std@@@2@@std@@YAXAAV?$allocator@U_Node@?$_List_nod@KV?$allocator@K@std@@@std@@@0@PAU_Node@?$_List_nod@KV?$allocator@K@std@@@0@@Z
_TEXT	SEGMENT
__Alval$ = 8						; size = 4
__Pdest$ = 12						; size = 4
??$_Dest_val@V?$allocator@U_Node@?$_List_nod@KV?$allocator@K@std@@@std@@@std@@U_Node@?$_List_nod@KV?$allocator@K@std@@@2@@std@@YAXAAV?$allocator@U_Node@?$_List_nod@KV?$allocator@K@std@@@std@@@0@PAU_Node@?$_List_nod@KV?$allocator@K@std@@@0@@Z PROC ; std::_Dest_val<std::allocator<std::_List_nod<unsigned long,std::allocator<unsigned long> >::_Node>,std::_List_nod<unsigned long,std::allocator<unsigned long> >::_Node>, COMDAT

; 287  : 	_Alval.destroy(_Pdest);
; 288  : 	}

  00000	c3		 ret	 0
??$_Dest_val@V?$allocator@U_Node@?$_List_nod@KV?$allocator@K@std@@@std@@@std@@U_Node@?$_List_nod@KV?$allocator@K@std@@@2@@std@@YAXAAV?$allocator@U_Node@?$_List_nod@KV?$allocator@K@std@@@std@@@0@PAU_Node@?$_List_nod@KV?$allocator@K@std@@@0@@Z ENDP ; std::_Dest_val<std::allocator<std::_List_nod<unsigned long,std::allocator<unsigned long> >::_Node>,std::_List_nod<unsigned long,std::allocator<unsigned long> >::_Node>
_TEXT	ENDS
PUBLIC	??$_Dest_val@V?$allocator@U?$pair@$$CBKPAVioUIRenderImage@@@std@@@std@@U?$pair@$$CBKPAVioUIRenderImage@@@2@@std@@YAXAAV?$allocator@U?$pair@$$CBKPAVioUIRenderImage@@@std@@@0@PAU?$pair@$$CBKPAVioUIRenderImage@@@0@@Z ; std::_Dest_val<std::allocator<std::pair<unsigned long const ,ioUIRenderImage *> >,std::pair<unsigned long const ,ioUIRenderImage *> >
; Function compile flags: /Ogsp
;	COMDAT ??$_Dest_val@V?$allocator@U?$pair@$$CBKPAVioUIRenderImage@@@std@@@std@@U?$pair@$$CBKPAVioUIRenderImage@@@2@@std@@YAXAAV?$allocator@U?$pair@$$CBKPAVioUIRenderImage@@@std@@@0@PAU?$pair@$$CBKPAVioUIRenderImage@@@0@@Z
_TEXT	SEGMENT
__Alval$ = 8						; size = 4
__Pdest$ = 12						; size = 4
??$_Dest_val@V?$allocator@U?$pair@$$CBKPAVioUIRenderImage@@@std@@@std@@U?$pair@$$CBKPAVioUIRenderImage@@@2@@std@@YAXAAV?$allocator@U?$pair@$$CBKPAVioUIRenderImage@@@std@@@0@PAU?$pair@$$CBKPAVioUIRenderImage@@@0@@Z PROC ; std::_Dest_val<std::allocator<std::pair<unsigned long const ,ioUIRenderImage *> >,std::pair<unsigned long const ,ioUIRenderImage *> >, COMDAT

; 287  : 	_Alval.destroy(_Pdest);
; 288  : 	}

  00000	c3		 ret	 0
??$_Dest_val@V?$allocator@U?$pair@$$CBKPAVioUIRenderImage@@@std@@@std@@U?$pair@$$CBKPAVioUIRenderImage@@@2@@std@@YAXAAV?$allocator@U?$pair@$$CBKPAVioUIRenderImage@@@std@@@0@PAU?$pair@$$CBKPAVioUIRenderImage@@@0@@Z ENDP ; std::_Dest_val<std::allocator<std::pair<unsigned long const ,ioUIRenderImage *> >,std::pair<unsigned long const ,ioUIRenderImage *> >
_TEXT	ENDS
PUBLIC	??$_Umove@PAPAUCustomMarkData@ioGuildMarkMgr@@@?$vector@PAUCustomMarkData@ioGuildMarkMgr@@V?$allocator@PAUCustomMarkData@ioGuildMarkMgr@@@std@@@std@@IAEPAPAUCustomMarkData@ioGuildMarkMgr@@PAPAU23@00@Z ; std::vector<ioGuildMarkMgr::CustomMarkData *,std::allocator<ioGuildMarkMgr::CustomMarkData *> >::_Umove<ioGuildMarkMgr::CustomMarkData * *>
; Function compile flags: /Ogsp
; File c:\program files (x86)\microsoft visual studio 10.0\vc\include\vector
;	COMDAT ??$_Umove@PAPAUCustomMarkData@ioGuildMarkMgr@@@?$vector@PAUCustomMarkData@ioGuildMarkMgr@@V?$allocator@PAUCustomMarkData@ioGuildMarkMgr@@@std@@@std@@IAEPAPAUCustomMarkData@ioGuildMarkMgr@@PAPAU23@00@Z
_TEXT	SEGMENT
__First$ = 8						; size = 4
__Last$ = 12						; size = 4
__Ptr$ = 16						; size = 4
??$_Umove@PAPAUCustomMarkData@ioGuildMarkMgr@@@?$vector@PAUCustomMarkData@ioGuildMarkMgr@@V?$allocator@PAUCustomMarkData@ioGuildMarkMgr@@@std@@@std@@IAEPAPAUCustomMarkData@ioGuildMarkMgr@@PAPAU23@00@Z PROC ; std::vector<ioGuildMarkMgr::CustomMarkData *,std::allocator<ioGuildMarkMgr::CustomMarkData *> >::_Umove<ioGuildMarkMgr::CustomMarkData * *>, COMDAT
; _this$ = ecx

; 1322 : 		pointer _Umove(_Iter _First, _Iter _Last, pointer _Ptr)

  00000	55		 push	 ebp
  00001	8b ec		 mov	 ebp, esp

; 1323 : 		{	// move initializing [_First, _Last), using allocator
; 1324 : 		return (_Uninitialized_move(_First, _Last,
; 1325 : 			_Ptr, this->_Alval));

  00003	83 c1 0c	 add	 ecx, 12			; 0000000cH
  00006	51		 push	 ecx
  00007	ff 75 10	 push	 DWORD PTR __Ptr$[ebp]
  0000a	ff 75 0c	 push	 DWORD PTR __Last$[ebp]
  0000d	ff 75 08	 push	 DWORD PTR __First$[ebp]
  00010	e8 00 00 00 00	 call	 ??$_Uninitialized_move@PAPAUCustomMarkData@ioGuildMarkMgr@@PAPAU12@V?$allocator@PAUCustomMarkData@ioGuildMarkMgr@@@std@@@std@@YAPAPAUCustomMarkData@ioGuildMarkMgr@@PAPAU12@00AAV?$allocator@PAUCustomMarkData@ioGuildMarkMgr@@@0@@Z ; std::_Uninitialized_move<ioGuildMarkMgr::CustomMarkData * *,ioGuildMarkMgr::CustomMarkData * *,std::allocator<ioGuildMarkMgr::CustomMarkData *> >
  00015	83 c4 10	 add	 esp, 16			; 00000010H

; 1326 : 		}

  00018	5d		 pop	 ebp
  00019	c2 0c 00	 ret	 12			; 0000000cH
??$_Umove@PAPAUCustomMarkData@ioGuildMarkMgr@@@?$vector@PAUCustomMarkData@ioGuildMarkMgr@@V?$allocator@PAUCustomMarkData@ioGuildMarkMgr@@@std@@@std@@IAEPAPAUCustomMarkData@ioGuildMarkMgr@@PAPAU23@00@Z ENDP ; std::vector<ioGuildMarkMgr::CustomMarkData *,std::allocator<ioGuildMarkMgr::CustomMarkData *> >::_Umove<ioGuildMarkMgr::CustomMarkData * *>
_TEXT	ENDS
PUBLIC	??_C@_0BE@JONHPENG@map?1set?$DMT?$DO?5too?5long?$AA@ ; `string'
PUBLIC	?_Insert@?$_Tree@V?$_Tmap_traits@KPAVioUIRenderImage@@U?$less@K@std@@V?$allocator@U?$pair@$$CBKPAVioUIRenderImage@@@std@@@3@$0A@@std@@@std@@IAE?AV?$_Tree_iterator@V?$_Tree_val@V?$_Tmap_traits@KPAVioUIRenderImage@@U?$less@K@std@@V?$allocator@U?$pair@$$CBKPAVioUIRenderImage@@@std@@@3@$0A@@std@@@std@@@2@_NPAU_Node@?$_Tree_nod@V?$_Tmap_traits@KPAVioUIRenderImage@@U?$less@K@std@@V?$allocator@U?$pair@$$CBKPAVioUIRenderImage@@@std@@@3@$0A@@std@@@2@1@Z ; std::_Tree<std::_Tmap_traits<unsigned long,ioUIRenderImage *,std::less<unsigned long>,std::allocator<std::pair<unsigned long const ,ioUIRenderImage *> >,0> >::_Insert
;	COMDAT ??_C@_0BE@JONHPENG@map?1set?$DMT?$DO?5too?5long?$AA@
; File c:\program files (x86)\microsoft visual studio 10.0\vc\include\xutility
CONST	SEGMENT
??_C@_0BE@JONHPENG@map?1set?$DMT?$DO?5too?5long?$AA@ DB 'map/set<T> too l'
	DB	'ong', 00H					; `string'
; Function compile flags: /Ogsp
; File c:\program files (x86)\microsoft visual studio 10.0\vc\include\xtree
CONST	ENDS
;	COMDAT ?_Insert@?$_Tree@V?$_Tmap_traits@KPAVioUIRenderImage@@U?$less@K@std@@V?$allocator@U?$pair@$$CBKPAVioUIRenderImage@@@std@@@3@$0A@@std@@@std@@IAE?AV?$_Tree_iterator@V?$_Tree_val@V?$_Tmap_traits@KPAVioUIRenderImage@@U?$less@K@std@@V?$allocator@U?$pair@$$CBKPAVioUIRenderImage@@@std@@@3@$0A@@std@@@std@@@2@_NPAU_Node@?$_Tree_nod@V?$_Tmap_traits@KPAVioUIRenderImage@@U?$less@K@std@@V?$allocator@U?$pair@$$CBKPAVioUIRenderImage@@@std@@@3@$0A@@std@@@2@1@Z
_TEXT	SEGMENT
___$ReturnUdt$ = 8					; size = 4
__Addleft$ = 12						; size = 1
__Wherenode$ = 16					; size = 4
__Newnode$ = 20						; size = 4
?_Insert@?$_Tree@V?$_Tmap_traits@KPAVioUIRenderImage@@U?$less@K@std@@V?$allocator@U?$pair@$$CBKPAVioUIRenderImage@@@std@@@3@$0A@@std@@@std@@IAE?AV?$_Tree_iterator@V?$_Tree_val@V?$_Tmap_traits@KPAVioUIRenderImage@@U?$less@K@std@@V?$allocator@U?$pair@$$CBKPAVioUIRenderImage@@@std@@@3@$0A@@std@@@std@@@2@_NPAU_Node@?$_Tree_nod@V?$_Tmap_traits@KPAVioUIRenderImage@@U?$less@K@std@@V?$allocator@U?$pair@$$CBKPAVioUIRenderImage@@@std@@@3@$0A@@std@@@2@1@Z PROC ; std::_Tree<std::_Tmap_traits<unsigned long,ioUIRenderImage *,std::less<unsigned long>,std::allocator<std::pair<unsigned long const ,ioUIRenderImage *> >,0> >::_Insert, COMDAT
; _this$ = ecx

; 1631 : 		{	// add node with value next to _Wherenode, to left if _Addleft

  00000	55		 push	 ebp
  00001	8b ec		 mov	 ebp, esp
  00003	53		 push	 ebx
  00004	56		 push	 esi
  00005	57		 push	 edi
  00006	8b f9		 mov	 edi, ecx

; 1632 : 		if (max_size() - 1 <= this->_Mysize)

  00008	8b 47 08	 mov	 eax, DWORD PTR [edi+8]
  0000b	3d fe ff ff 1f	 cmp	 eax, 536870910		; 1ffffffeH
  00010	72 15		 jb	 SHORT $LN17@Insert

; 1633 : 			{	// tree would get too big, fail
; 1634 : 			_Dest_val(this->_Alval,
; 1635 : 				_STD addressof(this->_Myval(_Newnode)));
; 1636 : 
; 1637 : 			this->_Alnod.deallocate(_Newnode, 1);

  00012	ff 75 14	 push	 DWORD PTR __Newnode$[ebp]
  00015	e8 00 00 00 00	 call	 ??3@YAXPAX@Z		; operator delete

; 1638 : 
; 1639 : 			_Xlength_error("map/set<T> too long");

  0001a	c7 04 24 00 00
	00 00		 mov	 DWORD PTR [esp], OFFSET ??_C@_0BE@JONHPENG@map?1set?$DMT?$DO?5too?5long?$AA@
  00021	ff 15 00 00 00
	00		 call	 DWORD PTR __imp_?_Xlength_error@std@@YAXPBD@Z
$LN188@Insert:
$LN17@Insert:

; 1640 : 			}
; 1641 : 		++this->_Mysize;
; 1642 : 		_Newnode->_Parent = _Wherenode;

  00027	8b 5d 14	 mov	 ebx, DWORD PTR __Newnode$[ebp]
  0002a	40		 inc	 eax
  0002b	89 47 08	 mov	 DWORD PTR [edi+8], eax
  0002e	8b 45 10	 mov	 eax, DWORD PTR __Wherenode$[ebp]
  00031	89 43 04	 mov	 DWORD PTR [ebx+4], eax

; 1643 : 
; 1644 : 		if (_Wherenode == this->_Myhead)

  00034	8b 4f 04	 mov	 ecx, DWORD PTR [edi+4]
  00037	3b c1		 cmp	 eax, ecx
  00039	75 10		 jne	 SHORT $LN16@Insert

; 1645 : 			{	// first node in tree, just set head values
; 1646 : 			_Root() = _Newnode;

  0003b	89 59 04	 mov	 DWORD PTR [ecx+4], ebx

; 1647 : 			_Lmost() = _Newnode;

  0003e	8b 47 04	 mov	 eax, DWORD PTR [edi+4]
  00041	89 18		 mov	 DWORD PTR [eax], ebx

; 1648 : 			_Rmost() = _Newnode;

  00043	8b 47 04	 mov	 eax, DWORD PTR [edi+4]
  00046	89 58 08	 mov	 DWORD PTR [eax+8], ebx
  00049	eb 21		 jmp	 SHORT $LN11@Insert
$LN16@Insert:

; 1649 : 			}
; 1650 : 		else if (_Addleft)

  0004b	80 7d 0c 00	 cmp	 BYTE PTR __Addleft$[ebp], 0
  0004f	74 0d		 je	 SHORT $LN14@Insert

; 1651 : 			{	// add to left of _Wherenode
; 1652 : 			this->_Left(_Wherenode) = _Newnode;

  00051	89 18		 mov	 DWORD PTR [eax], ebx

; 1653 : 			if (_Wherenode == _Lmost())

  00053	8b 4f 04	 mov	 ecx, DWORD PTR [edi+4]
  00056	3b 01		 cmp	 eax, DWORD PTR [ecx]
  00058	75 12		 jne	 SHORT $LN11@Insert

; 1654 : 				_Lmost() = _Newnode;

  0005a	89 19		 mov	 DWORD PTR [ecx], ebx

; 1655 : 			}
; 1656 : 		else

  0005c	eb 0e		 jmp	 SHORT $LN11@Insert
$LN14@Insert:

; 1657 : 			{	// add to right of _Wherenode
; 1658 : 			this->_Right(_Wherenode) = _Newnode;

  0005e	89 58 08	 mov	 DWORD PTR [eax+8], ebx

; 1659 : 			if (_Wherenode == _Rmost())

  00061	8b 4f 04	 mov	 ecx, DWORD PTR [edi+4]
  00064	3b 41 08	 cmp	 eax, DWORD PTR [ecx+8]
  00067	75 03		 jne	 SHORT $LN11@Insert

; 1660 : 				_Rmost() = _Newnode;

  00069	89 59 08	 mov	 DWORD PTR [ecx+8], ebx
$LN11@Insert:

; 1661 : 			}
; 1662 : 
; 1663 : 		for (_Nodeptr _Pnode = _Newnode;
; 1664 : 			this->_Color(this->_Parent(_Pnode)) == this->_Red; )

  0006c	8b 43 04	 mov	 eax, DWORD PTR [ebx+4]
  0006f	8b f3		 mov	 esi, ebx
  00071	e9 93 00 00 00	 jmp	 $LN186@Insert
$LL10@Insert:

; 1665 : 			if (this->_Parent(_Pnode)
; 1666 : 				== this->_Left(this->_Parent(this->_Parent(_Pnode))))

  00076	8b 46 04	 mov	 eax, DWORD PTR [esi+4]
  00079	8b 48 04	 mov	 ecx, DWORD PTR [eax+4]
  0007c	3b 01		 cmp	 eax, DWORD PTR [ecx]
  0007e	75 38		 jne	 SHORT $LN8@Insert

; 1667 : 				{	// fixup red-red in left subtree
; 1668 : 				_Wherenode =
; 1669 : 					this->_Right(this->_Parent(this->_Parent(_Pnode)));

  00080	8b 49 08	 mov	 ecx, DWORD PTR [ecx+8]

; 1670 : 				if (this->_Color(_Wherenode) == this->_Red)

  00083	80 79 14 00	 cmp	 BYTE PTR [ecx+20], 0

; 1671 : 					{	// parent has two red children, blacken both
; 1672 : 					this->_Color(this->_Parent(_Pnode)) = this->_Black;
; 1673 : 					this->_Color(_Wherenode) = this->_Black;
; 1674 : 					this->_Color(this->_Parent(this->_Parent(_Pnode)))
; 1675 : 						= this->_Red;
; 1676 : 					_Pnode = this->_Parent(this->_Parent(_Pnode));
; 1677 : 					}
; 1678 : 				else

  00087	74 37		 je	 SHORT $LN187@Insert

; 1679 : 					{	// parent has red and black children
; 1680 : 					if (_Pnode == this->_Right(this->_Parent(_Pnode)))

  00089	3b 70 08	 cmp	 esi, DWORD PTR [eax+8]
  0008c	75 0a		 jne	 SHORT $LN5@Insert

; 1681 : 						{	// rotate right child to left
; 1682 : 						_Pnode = this->_Parent(_Pnode);

  0008e	8b f0		 mov	 esi, eax

; 1683 : 						_Lrotate(_Pnode);

  00090	56		 push	 esi
  00091	8b cf		 mov	 ecx, edi
  00093	e8 00 00 00 00	 call	 ?_Lrotate@?$_Tree@V?$_Tmap_traits@KPAVioUIRenderImage@@U?$less@K@std@@V?$allocator@U?$pair@$$CBKPAVioUIRenderImage@@@std@@@3@$0A@@std@@@std@@IAEXPAU_Node@?$_Tree_nod@V?$_Tmap_traits@KPAVioUIRenderImage@@U?$less@K@std@@V?$allocator@U?$pair@$$CBKPAVioUIRenderImage@@@std@@@3@$0A@@std@@@2@@Z ; std::_Tree<std::_Tmap_traits<unsigned long,ioUIRenderImage *,std::less<unsigned long>,std::allocator<std::pair<unsigned long const ,ioUIRenderImage *> >,0> >::_Lrotate
$LN5@Insert:

; 1684 : 						}
; 1685 : 					this->_Color(this->_Parent(_Pnode)) =
; 1686 : 						this->_Black;	// propagate red up

  00098	8b 46 04	 mov	 eax, DWORD PTR [esi+4]
  0009b	c6 40 14 01	 mov	 BYTE PTR [eax+20], 1

; 1687 : 					this->_Color(this->_Parent(this->_Parent(_Pnode))) =
; 1688 : 						this->_Red;

  0009f	8b 46 04	 mov	 eax, DWORD PTR [esi+4]
  000a2	8b 40 04	 mov	 eax, DWORD PTR [eax+4]
  000a5	c6 40 14 00	 mov	 BYTE PTR [eax+20], 0

; 1689 : 					_Rrotate(this->_Parent(this->_Parent(_Pnode)));

  000a9	8b 46 04	 mov	 eax, DWORD PTR [esi+4]
  000ac	ff 70 04	 push	 DWORD PTR [eax+4]
  000af	8b cf		 mov	 ecx, edi
  000b1	e8 00 00 00 00	 call	 ?_Rrotate@?$_Tree@V?$_Tmap_traits@KPAVioUIRenderImage@@U?$less@K@std@@V?$allocator@U?$pair@$$CBKPAVioUIRenderImage@@@std@@@3@$0A@@std@@@std@@IAEXPAU_Node@?$_Tree_nod@V?$_Tmap_traits@KPAVioUIRenderImage@@U?$less@K@std@@V?$allocator@U?$pair@$$CBKPAVioUIRenderImage@@@std@@@3@$0A@@std@@@2@@Z ; std::_Tree<std::_Tmap_traits<unsigned long,ioUIRenderImage *,std::less<unsigned long>,std::allocator<std::pair<unsigned long const ,ioUIRenderImage *> >,0> >::_Rrotate

; 1690 : 					}
; 1691 : 				}
; 1692 : 			else

  000b6	eb 4e		 jmp	 SHORT $LN2@Insert
$LN8@Insert:

; 1693 : 				{	// fixup red-red in right subtree
; 1694 : 				_Wherenode =
; 1695 : 					this->_Left(this->_Parent(this->_Parent(_Pnode)));

  000b8	8b 09		 mov	 ecx, DWORD PTR [ecx]

; 1696 : 				if (this->_Color(_Wherenode) == this->_Red)

  000ba	80 79 14 00	 cmp	 BYTE PTR [ecx+20], 0
  000be	75 1a		 jne	 SHORT $LN3@Insert
$LN187@Insert:

; 1697 : 					{	// parent has two red children, blacken both
; 1698 : 					this->_Color(this->_Parent(_Pnode)) = this->_Black;

  000c0	c6 40 14 01	 mov	 BYTE PTR [eax+20], 1

; 1699 : 					this->_Color(_Wherenode) = this->_Black;

  000c4	c6 41 14 01	 mov	 BYTE PTR [ecx+20], 1

; 1700 : 					this->_Color(this->_Parent(this->_Parent(_Pnode))) =
; 1701 : 						this->_Red;

  000c8	8b 46 04	 mov	 eax, DWORD PTR [esi+4]
  000cb	8b 40 04	 mov	 eax, DWORD PTR [eax+4]
  000ce	c6 40 14 00	 mov	 BYTE PTR [eax+20], 0

; 1702 : 					_Pnode = this->_Parent(this->_Parent(_Pnode));

  000d2	8b 46 04	 mov	 eax, DWORD PTR [esi+4]
  000d5	8b 70 04	 mov	 esi, DWORD PTR [eax+4]

; 1703 : 					}
; 1704 : 				else

  000d8	eb 2c		 jmp	 SHORT $LN2@Insert
$LN3@Insert:

; 1705 : 					{	// parent has red and black children
; 1706 : 					if (_Pnode == this->_Left(this->_Parent(_Pnode)))

  000da	3b 30		 cmp	 esi, DWORD PTR [eax]
  000dc	75 0a		 jne	 SHORT $LN1@Insert

; 1707 : 						{	// rotate left child to right
; 1708 : 						_Pnode = this->_Parent(_Pnode);

  000de	8b f0		 mov	 esi, eax

; 1709 : 						_Rrotate(_Pnode);

  000e0	56		 push	 esi
  000e1	8b cf		 mov	 ecx, edi
  000e3	e8 00 00 00 00	 call	 ?_Rrotate@?$_Tree@V?$_Tmap_traits@KPAVioUIRenderImage@@U?$less@K@std@@V?$allocator@U?$pair@$$CBKPAVioUIRenderImage@@@std@@@3@$0A@@std@@@std@@IAEXPAU_Node@?$_Tree_nod@V?$_Tmap_traits@KPAVioUIRenderImage@@U?$less@K@std@@V?$allocator@U?$pair@$$CBKPAVioUIRenderImage@@@std@@@3@$0A@@std@@@2@@Z ; std::_Tree<std::_Tmap_traits<unsigned long,ioUIRenderImage *,std::less<unsigned long>,std::allocator<std::pair<unsigned long const ,ioUIRenderImage *> >,0> >::_Rrotate
$LN1@Insert:

; 1710 : 						}
; 1711 : 					this->_Color(this->_Parent(_Pnode)) =
; 1712 : 						this->_Black;	// propagate red up

  000e8	8b 46 04	 mov	 eax, DWORD PTR [esi+4]
  000eb	c6 40 14 01	 mov	 BYTE PTR [eax+20], 1

; 1713 : 					this->_Color(this->_Parent(this->_Parent(_Pnode))) =
; 1714 : 						this->_Red;

  000ef	8b 46 04	 mov	 eax, DWORD PTR [esi+4]
  000f2	8b 40 04	 mov	 eax, DWORD PTR [eax+4]
  000f5	c6 40 14 00	 mov	 BYTE PTR [eax+20], 0

; 1715 : 					_Lrotate(this->_Parent(this->_Parent(_Pnode)));

  000f9	8b 46 04	 mov	 eax, DWORD PTR [esi+4]
  000fc	ff 70 04	 push	 DWORD PTR [eax+4]
  000ff	8b cf		 mov	 ecx, edi
  00101	e8 00 00 00 00	 call	 ?_Lrotate@?$_Tree@V?$_Tmap_traits@KPAVioUIRenderImage@@U?$less@K@std@@V?$allocator@U?$pair@$$CBKPAVioUIRenderImage@@@std@@@3@$0A@@std@@@std@@IAEXPAU_Node@?$_Tree_nod@V?$_Tmap_traits@KPAVioUIRenderImage@@U?$less@K@std@@V?$allocator@U?$pair@$$CBKPAVioUIRenderImage@@@std@@@3@$0A@@std@@@2@@Z ; std::_Tree<std::_Tmap_traits<unsigned long,ioUIRenderImage *,std::less<unsigned long>,std::allocator<std::pair<unsigned long const ,ioUIRenderImage *> >,0> >::_Lrotate
$LN2@Insert:

; 1661 : 			}
; 1662 : 
; 1663 : 		for (_Nodeptr _Pnode = _Newnode;
; 1664 : 			this->_Color(this->_Parent(_Pnode)) == this->_Red; )

  00106	8b 46 04	 mov	 eax, DWORD PTR [esi+4]
$LN186@Insert:
  00109	80 78 14 00	 cmp	 BYTE PTR [eax+20], 0
  0010d	0f 84 63 ff ff
	ff		 je	 $LL10@Insert

; 1716 : 					}
; 1717 : 				}
; 1718 : 
; 1719 : 		this->_Color(_Root()) = this->_Black;	// root is always black

  00113	8b 47 04	 mov	 eax, DWORD PTR [edi+4]
  00116	8b 40 04	 mov	 eax, DWORD PTR [eax+4]
  00119	5f		 pop	 edi
  0011a	c6 40 14 01	 mov	 BYTE PTR [eax+20], 1

; 1720 : 		return (iterator(_Newnode, this));

  0011e	8b 45 08	 mov	 eax, DWORD PTR ___$ReturnUdt$[ebp]
  00121	5e		 pop	 esi
  00122	89 18		 mov	 DWORD PTR [eax], ebx
  00124	5b		 pop	 ebx

; 1721 : 		}

  00125	5d		 pop	 ebp
  00126	c2 10 00	 ret	 16			; 00000010H
$LN185@Insert:
?_Insert@?$_Tree@V?$_Tmap_traits@KPAVioUIRenderImage@@U?$less@K@std@@V?$allocator@U?$pair@$$CBKPAVioUIRenderImage@@@std@@@3@$0A@@std@@@std@@IAE?AV?$_Tree_iterator@V?$_Tree_val@V?$_Tmap_traits@KPAVioUIRenderImage@@U?$less@K@std@@V?$allocator@U?$pair@$$CBKPAVioUIRenderImage@@@std@@@3@$0A@@std@@@std@@@2@_NPAU_Node@?$_Tree_nod@V?$_Tmap_traits@KPAVioUIRenderImage@@U?$less@K@std@@V?$allocator@U?$pair@$$CBKPAVioUIRenderImage@@@std@@@3@$0A@@std@@@2@1@Z ENDP ; std::_Tree<std::_Tmap_traits<unsigned long,ioUIRenderImage *,std::less<unsigned long>,std::allocator<std::pair<unsigned long const ,ioUIRenderImage *> >,0> >::_Insert
_TEXT	ENDS
PUBLIC	??F?$_Tree_iterator@V?$_Tree_val@V?$_Tmap_traits@KPAVioUIRenderImage@@U?$less@K@std@@V?$allocator@U?$pair@$$CBKPAVioUIRenderImage@@@std@@@3@$0A@@std@@@std@@@std@@QAEAAV01@XZ ; std::_Tree_iterator<std::_Tree_val<std::_Tmap_traits<unsigned long,ioUIRenderImage *,std::less<unsigned long>,std::allocator<std::pair<unsigned long const ,ioUIRenderImage *> >,0> > >::operator--
; Function compile flags: /Ogsp
;	COMDAT ??F?$_Tree_iterator@V?$_Tree_val@V?$_Tmap_traits@KPAVioUIRenderImage@@U?$less@K@std@@V?$allocator@U?$pair@$$CBKPAVioUIRenderImage@@@std@@@3@$0A@@std@@@std@@@std@@QAEAAV01@XZ
_TEXT	SEGMENT
??F?$_Tree_iterator@V?$_Tree_val@V?$_Tmap_traits@KPAVioUIRenderImage@@U?$less@K@std@@V?$allocator@U?$pair@$$CBKPAVioUIRenderImage@@@std@@@3@$0A@@std@@@std@@@std@@QAEAAV01@XZ PROC ; std::_Tree_iterator<std::_Tree_val<std::_Tmap_traits<unsigned long,ioUIRenderImage *,std::less<unsigned long>,std::allocator<std::pair<unsigned long const ,ioUIRenderImage *> >,0> > >::operator--, COMDAT
; _this$ = ecx

; 418  : 		{	// predecrement

  00000	56		 push	 esi
  00001	8b f1		 mov	 esi, ecx

; 419  : 		--(*(_Mybase *)this);

  00003	e8 00 00 00 00	 call	 ??F?$_Tree_unchecked_const_iterator@V?$_Tree_val@V?$_Tmap_traits@KPAVioUIRenderImage@@U?$less@K@std@@V?$allocator@U?$pair@$$CBKPAVioUIRenderImage@@@std@@@3@$0A@@std@@@std@@U_Iterator_base0@2@@std@@QAEAAV01@XZ ; std::_Tree_unchecked_const_iterator<std::_Tree_val<std::_Tmap_traits<unsigned long,ioUIRenderImage *,std::less<unsigned long>,std::allocator<std::pair<unsigned long const ,ioUIRenderImage *> >,0> >,std::_Iterator_base0>::operator--

; 420  : 		return (*this);

  00008	8b c6		 mov	 eax, esi
  0000a	5e		 pop	 esi

; 421  : 		}

  0000b	c3		 ret	 0
??F?$_Tree_iterator@V?$_Tree_val@V?$_Tmap_traits@KPAVioUIRenderImage@@U?$less@K@std@@V?$allocator@U?$pair@$$CBKPAVioUIRenderImage@@@std@@@3@$0A@@std@@@std@@@std@@QAEAAV01@XZ ENDP ; std::_Tree_iterator<std::_Tree_val<std::_Tmap_traits<unsigned long,ioUIRenderImage *,std::less<unsigned long>,std::allocator<std::pair<unsigned long const ,ioUIRenderImage *> >,0> > >::operator--
_TEXT	ENDS
PUBLIC	??0?$pair@V?$_Tree_iterator@V?$_Tree_val@V?$_Tmap_traits@KPAVioUIRenderImage@@U?$less@K@std@@V?$allocator@U?$pair@$$CBKPAVioUIRenderImage@@@std@@@3@$0A@@std@@@std@@@std@@_N@std@@QAE@$$QAV?$_Tree_iterator@V?$_Tree_val@V?$_Tmap_traits@KPAVioUIRenderImage@@U?$less@K@std@@V?$allocator@U?$pair@$$CBKPAVioUIRenderImage@@@std@@@3@$0A@@std@@@std@@@1@$$QA_N@Z ; std::pair<std::_Tree_iterator<std::_Tree_val<std::_Tmap_traits<unsigned long,ioUIRenderImage *,std::less<unsigned long>,std::allocator<std::pair<unsigned long const ,ioUIRenderImage *> >,0> > >,bool>::pair<std::_Tree_iterator<std::_Tree_val<std::_Tmap_traits<unsigned long,ioUIRenderImage *,std::less<unsigned long>,std::allocator<std::pair<unsigned long const ,ioUIRenderImage *> >,0> > >,bool>
; Function compile flags: /Ogsp
; File c:\program files (x86)\microsoft visual studio 10.0\vc\include\utility
;	COMDAT ??0?$pair@V?$_Tree_iterator@V?$_Tree_val@V?$_Tmap_traits@KPAVioUIRenderImage@@U?$less@K@std@@V?$allocator@U?$pair@$$CBKPAVioUIRenderImage@@@std@@@3@$0A@@std@@@std@@@std@@_N@std@@QAE@$$QAV?$_Tree_iterator@V?$_Tree_val@V?$_Tmap_traits@KPAVioUIRenderImage@@U?$less@K@std@@V?$allocator@U?$pair@$$CBKPAVioUIRenderImage@@@std@@@3@$0A@@std@@@std@@@1@$$QA_N@Z
_TEXT	SEGMENT
__Val1$ = 8						; size = 4
__Val2$ = 12						; size = 4
??0?$pair@V?$_Tree_iterator@V?$_Tree_val@V?$_Tmap_traits@KPAVioUIRenderImage@@U?$less@K@std@@V?$allocator@U?$pair@$$CBKPAVioUIRenderImage@@@std@@@3@$0A@@std@@@std@@@std@@_N@std@@QAE@$$QAV?$_Tree_iterator@V?$_Tree_val@V?$_Tmap_traits@KPAVioUIRenderImage@@U?$less@K@std@@V?$allocator@U?$pair@$$CBKPAVioUIRenderImage@@@std@@@3@$0A@@std@@@std@@@1@$$QA_N@Z PROC ; std::pair<std::_Tree_iterator<std::_Tree_val<std::_Tmap_traits<unsigned long,ioUIRenderImage *,std::less<unsigned long>,std::allocator<std::pair<unsigned long const ,ioUIRenderImage *> >,0> > >,bool>::pair<std::_Tree_iterator<std::_Tree_val<std::_Tmap_traits<unsigned long,ioUIRenderImage *,std::less<unsigned long>,std::allocator<std::pair<unsigned long const ,ioUIRenderImage *> >,0> > >,bool>, COMDAT
; _this$ = ecx

; 227  : 		{	// construct from specified values

  00000	55		 push	 ebp
  00001	8b ec		 mov	 ebp, esp
  00003	8b c1		 mov	 eax, ecx
  00005	8b 4d 08	 mov	 ecx, DWORD PTR __Val1$[ebp]
  00008	8b 09		 mov	 ecx, DWORD PTR [ecx]
  0000a	89 08		 mov	 DWORD PTR [eax], ecx
  0000c	8b 4d 0c	 mov	 ecx, DWORD PTR __Val2$[ebp]
  0000f	8a 09		 mov	 cl, BYTE PTR [ecx]
  00011	88 48 04	 mov	 BYTE PTR [eax+4], cl

; 228  : 		}

  00014	5d		 pop	 ebp
  00015	c2 08 00	 ret	 8
??0?$pair@V?$_Tree_iterator@V?$_Tree_val@V?$_Tmap_traits@KPAVioUIRenderImage@@U?$less@K@std@@V?$allocator@U?$pair@$$CBKPAVioUIRenderImage@@@std@@@3@$0A@@std@@@std@@@std@@_N@std@@QAE@$$QAV?$_Tree_iterator@V?$_Tree_val@V?$_Tmap_traits@KPAVioUIRenderImage@@U?$less@K@std@@V?$allocator@U?$pair@$$CBKPAVioUIRenderImage@@@std@@@3@$0A@@std@@@std@@@1@$$QA_N@Z ENDP ; std::pair<std::_Tree_iterator<std::_Tree_val<std::_Tmap_traits<unsigned long,ioUIRenderImage *,std::less<unsigned long>,std::allocator<std::pair<unsigned long const ,ioUIRenderImage *> >,0> > >,bool>::pair<std::_Tree_iterator<std::_Tree_val<std::_Tmap_traits<unsigned long,ioUIRenderImage *,std::less<unsigned long>,std::allocator<std::pair<unsigned long const ,ioUIRenderImage *> >,0> > >,bool>
_TEXT	ENDS
PUBLIC	??$_Unchecked@V?$_List_val@KV?$allocator@K@std@@@std@@@std@@YA?AV?$_List_unchecked_iterator@V?$_List_val@KV?$allocator@K@std@@@std@@@0@V?$_List_iterator@V?$_List_val@KV?$allocator@K@std@@@std@@@0@@Z ; std::_Unchecked<std::_List_val<unsigned long,std::allocator<unsigned long> > >
; Function compile flags: /Ogsp
; File c:\program files (x86)\microsoft visual studio 10.0\vc\include\list
;	COMDAT ??$_Unchecked@V?$_List_val@KV?$allocator@K@std@@@std@@@std@@YA?AV?$_List_unchecked_iterator@V?$_List_val@KV?$allocator@K@std@@@std@@@0@V?$_List_iterator@V?$_List_val@KV?$allocator@K@std@@@std@@@0@@Z
_TEXT	SEGMENT
___$ReturnUdt$ = 8					; size = 4
__Iter$ = 12						; size = 4
??$_Unchecked@V?$_List_val@KV?$allocator@K@std@@@std@@@std@@YA?AV?$_List_unchecked_iterator@V?$_List_val@KV?$allocator@K@std@@@std@@@0@V?$_List_iterator@V?$_List_val@KV?$allocator@K@std@@@std@@@0@@Z PROC ; std::_Unchecked<std::_List_val<unsigned long,std::allocator<unsigned long> > >, COMDAT

; 398  : 	{	// convert to unchecked

  00000	55		 push	 ebp
  00001	8b ec		 mov	 ebp, esp

; 399  : 	return (_Iter._Unchecked());

  00003	8b 45 08	 mov	 eax, DWORD PTR ___$ReturnUdt$[ebp]
  00006	8b 4d 0c	 mov	 ecx, DWORD PTR __Iter$[ebp]
  00009	89 08		 mov	 DWORD PTR [eax], ecx

; 400  : 	}

  0000b	5d		 pop	 ebp
  0000c	c3		 ret	 0
??$_Unchecked@V?$_List_val@KV?$allocator@K@std@@@std@@@std@@YA?AV?$_List_unchecked_iterator@V?$_List_val@KV?$allocator@K@std@@@std@@@0@V?$_List_iterator@V?$_List_val@KV?$allocator@K@std@@@std@@@0@@Z ENDP ; std::_Unchecked<std::_List_val<unsigned long,std::allocator<unsigned long> > >
_TEXT	ENDS
PUBLIC	??$_Find@V?$_List_unchecked_iterator@V?$_List_val@KV?$allocator@K@std@@@std@@@std@@K@std@@YA?AV?$_List_unchecked_iterator@V?$_List_val@KV?$allocator@K@std@@@std@@@0@V10@0ABK@Z ; std::_Find<std::_List_unchecked_iterator<std::_List_val<unsigned long,std::allocator<unsigned long> > >,unsigned long>
; Function compile flags: /Ogsp
; File c:\program files (x86)\microsoft visual studio 10.0\vc\include\algorithm
;	COMDAT ??$_Find@V?$_List_unchecked_iterator@V?$_List_val@KV?$allocator@K@std@@@std@@@std@@K@std@@YA?AV?$_List_unchecked_iterator@V?$_List_val@KV?$allocator@K@std@@@std@@@0@V10@0ABK@Z
_TEXT	SEGMENT
___$ReturnUdt$ = 8					; size = 4
__First$ = 12						; size = 4
__Last$ = 16						; size = 4
__Val$ = 20						; size = 4
??$_Find@V?$_List_unchecked_iterator@V?$_List_val@KV?$allocator@K@std@@@std@@@std@@K@std@@YA?AV?$_List_unchecked_iterator@V?$_List_val@KV?$allocator@K@std@@@std@@@0@V10@0ABK@Z PROC ; std::_Find<std::_List_unchecked_iterator<std::_List_val<unsigned long,std::allocator<unsigned long> > >,unsigned long>, COMDAT

; 39   : 	{	// find first matching _Val

  00000	55		 push	 ebp
  00001	8b ec		 mov	 ebp, esp

; 40   : 	for (; _First != _Last; ++_First)

  00003	8b 4d 0c	 mov	 ecx, DWORD PTR __First$[ebp]
  00006	3b 4d 10	 cmp	 ecx, DWORD PTR __Last$[ebp]
  00009	74 14		 je	 SHORT $LN24@Find
  0000b	8b 45 14	 mov	 eax, DWORD PTR __Val$[ebp]
  0000e	8b 00		 mov	 eax, DWORD PTR [eax]
$LL9@Find:

; 41   : 		if (*_First == _Val)

  00010	39 41 08	 cmp	 DWORD PTR [ecx+8], eax
  00013	74 0a		 je	 SHORT $LN24@Find

; 40   : 	for (; _First != _Last; ++_First)

  00015	8b 09		 mov	 ecx, DWORD PTR [ecx]
  00017	89 4d 0c	 mov	 DWORD PTR __First$[ebp], ecx
  0001a	3b 4d 10	 cmp	 ecx, DWORD PTR __Last$[ebp]
  0001d	75 f1		 jne	 SHORT $LL9@Find
$LN24@Find:

; 42   : 			break;
; 43   : 	return (_First);

  0001f	8b 45 08	 mov	 eax, DWORD PTR ___$ReturnUdt$[ebp]
  00022	89 08		 mov	 DWORD PTR [eax], ecx

; 44   : 	}

  00024	5d		 pop	 ebp
  00025	c3		 ret	 0
??$_Find@V?$_List_unchecked_iterator@V?$_List_val@KV?$allocator@K@std@@@std@@@std@@K@std@@YA?AV?$_List_unchecked_iterator@V?$_List_val@KV?$allocator@K@std@@@std@@@0@V10@0ABK@Z ENDP ; std::_Find<std::_List_unchecked_iterator<std::_List_val<unsigned long,std::allocator<unsigned long> > >,unsigned long>
_TEXT	ENDS
PUBLIC	??$?0AAV?$_Tree_iterator@V?$_Tree_val@V?$_Tmap_traits@KPAVioUIRenderImage@@U?$less@K@std@@V?$allocator@U?$pair@$$CBKPAVioUIRenderImage@@@std@@@3@$0A@@std@@@std@@@std@@_N@?$pair@V?$_Tree_iterator@V?$_Tree_val@V?$_Tmap_traits@KPAVioUIRenderImage@@U?$less@K@std@@V?$allocator@U?$pair@$$CBKPAVioUIRenderImage@@@std@@@3@$0A@@std@@@std@@@std@@_N@std@@QAE@AAV?$_Tree_iterator@V?$_Tree_val@V?$_Tmap_traits@KPAVioUIRenderImage@@U?$less@K@std@@V?$allocator@U?$pair@$$CBKPAVioUIRenderImage@@@std@@@3@$0A@@std@@@std@@@1@$$QA_N@Z ; std::pair<std::_Tree_iterator<std::_Tree_val<std::_Tmap_traits<unsigned long,ioUIRenderImage *,std::less<unsigned long>,std::allocator<std::pair<unsigned long const ,ioUIRenderImage *> >,0> > >,bool>::pair<std::_Tree_iterator<std::_Tree_val<std::_Tmap_traits<unsigned long,ioUIRenderImage *,std::less<unsigned long>,std::allocator<std::pair<unsigned long const ,ioUIRenderImage *> >,0> > >,bool><std::_Tree_iterator<std::_Tree_val<std::_Tmap_traits<unsigned long,ioUIRenderImage *,std::less<unsigned long>,std::allocator<std::pair<unsigned long const ,ioUIRenderImage *> >,0> > > &,bool>
; Function compile flags: /Ogsp
; File c:\program files (x86)\microsoft visual studio 10.0\vc\include\utility
;	COMDAT ??$?0AAV?$_Tree_iterator@V?$_Tree_val@V?$_Tmap_traits@KPAVioUIRenderImage@@U?$less@K@std@@V?$allocator@U?$pair@$$CBKPAVioUIRenderImage@@@std@@@3@$0A@@std@@@std@@@std@@_N@?$pair@V?$_Tree_iterator@V?$_Tree_val@V?$_Tmap_traits@KPAVioUIRenderImage@@U?$less@K@std@@V?$allocator@U?$pair@$$CBKPAVioUIRenderImage@@@std@@@3@$0A@@std@@@std@@@std@@_N@std@@QAE@AAV?$_Tree_iterator@V?$_Tree_val@V?$_Tmap_traits@KPAVioUIRenderImage@@U?$less@K@std@@V?$allocator@U?$pair@$$CBKPAVioUIRenderImage@@@std@@@3@$0A@@std@@@std@@@1@$$QA_N@Z
_TEXT	SEGMENT
__Val1$ = 8						; size = 4
__Val2$ = 12						; size = 4
??$?0AAV?$_Tree_iterator@V?$_Tree_val@V?$_Tmap_traits@KPAVioUIRenderImage@@U?$less@K@std@@V?$allocator@U?$pair@$$CBKPAVioUIRenderImage@@@std@@@3@$0A@@std@@@std@@@std@@_N@?$pair@V?$_Tree_iterator@V?$_Tree_val@V?$_Tmap_traits@KPAVioUIRenderImage@@U?$less@K@std@@V?$allocator@U?$pair@$$CBKPAVioUIRenderImage@@@std@@@3@$0A@@std@@@std@@@std@@_N@std@@QAE@AAV?$_Tree_iterator@V?$_Tree_val@V?$_Tmap_traits@KPAVioUIRenderImage@@U?$less@K@std@@V?$allocator@U?$pair@$$CBKPAVioUIRenderImage@@@std@@@3@$0A@@std@@@std@@@1@$$QA_N@Z PROC ; std::pair<std::_Tree_iterator<std::_Tree_val<std::_Tmap_traits<unsigned long,ioUIRenderImage *,std::less<unsigned long>,std::allocator<std::pair<unsigned long const ,ioUIRenderImage *> >,0> > >,bool>::pair<std::_Tree_iterator<std::_Tree_val<std::_Tmap_traits<unsigned long,ioUIRenderImage *,std::less<unsigned long>,std::allocator<std::pair<unsigned long const ,ioUIRenderImage *> >,0> > >,bool><std::_Tree_iterator<std::_Tree_val<std::_Tmap_traits<unsigned long,ioUIRenderImage *,std::less<unsigned long>,std::allocator<std::pair<unsigned long const ,ioUIRenderImage *> >,0> > > &,bool>, COMDAT
; _this$ = ecx

; 247  : 		{	// construct from moved values

  00000	55		 push	 ebp
  00001	8b ec		 mov	 ebp, esp
  00003	8b c1		 mov	 eax, ecx
  00005	8b 4d 08	 mov	 ecx, DWORD PTR __Val1$[ebp]
  00008	8b 09		 mov	 ecx, DWORD PTR [ecx]
  0000a	89 08		 mov	 DWORD PTR [eax], ecx
  0000c	8b 4d 0c	 mov	 ecx, DWORD PTR __Val2$[ebp]
  0000f	8a 09		 mov	 cl, BYTE PTR [ecx]
  00011	88 48 04	 mov	 BYTE PTR [eax+4], cl

; 248  : 		}

  00014	5d		 pop	 ebp
  00015	c2 08 00	 ret	 8
??$?0AAV?$_Tree_iterator@V?$_Tree_val@V?$_Tmap_traits@KPAVioUIRenderImage@@U?$less@K@std@@V?$allocator@U?$pair@$$CBKPAVioUIRenderImage@@@std@@@3@$0A@@std@@@std@@@std@@_N@?$pair@V?$_Tree_iterator@V?$_Tree_val@V?$_Tmap_traits@KPAVioUIRenderImage@@U?$less@K@std@@V?$allocator@U?$pair@$$CBKPAVioUIRenderImage@@@std@@@3@$0A@@std@@@std@@@std@@_N@std@@QAE@AAV?$_Tree_iterator@V?$_Tree_val@V?$_Tmap_traits@KPAVioUIRenderImage@@U?$less@K@std@@V?$allocator@U?$pair@$$CBKPAVioUIRenderImage@@@std@@@3@$0A@@std@@@std@@@1@$$QA_N@Z ENDP ; std::pair<std::_Tree_iterator<std::_Tree_val<std::_Tmap_traits<unsigned long,ioUIRenderImage *,std::less<unsigned long>,std::allocator<std::pair<unsigned long const ,ioUIRenderImage *> >,0> > >,bool>::pair<std::_Tree_iterator<std::_Tree_val<std::_Tmap_traits<unsigned long,ioUIRenderImage *,std::less<unsigned long>,std::allocator<std::pair<unsigned long const ,ioUIRenderImage *> >,0> > >,bool><std::_Tree_iterator<std::_Tree_val<std::_Tmap_traits<unsigned long,ioUIRenderImage *,std::less<unsigned long>,std::allocator<std::pair<unsigned long const ,ioUIRenderImage *> >,0> > > &,bool>
_TEXT	ENDS
PUBLIC	??$?0$$CBKPAVioUIRenderImage@@@?$pair@$$CBKPAVioUIRenderImage@@@std@@QAE@$$QAU01@@Z ; std::pair<unsigned long const ,ioUIRenderImage *>::pair<unsigned long const ,ioUIRenderImage *><unsigned long const ,ioUIRenderImage *>
; Function compile flags: /Ogsp
;	COMDAT ??$?0$$CBKPAVioUIRenderImage@@@?$pair@$$CBKPAVioUIRenderImage@@@std@@QAE@$$QAU01@@Z
_TEXT	SEGMENT
__Right$ = 8						; size = 4
??$?0$$CBKPAVioUIRenderImage@@@?$pair@$$CBKPAVioUIRenderImage@@@std@@QAE@$$QAU01@@Z PROC ; std::pair<unsigned long const ,ioUIRenderImage *>::pair<unsigned long const ,ioUIRenderImage *><unsigned long const ,ioUIRenderImage *>, COMDAT
; _this$ = ecx

; 255  : 		{	// construct from moved compatible pair

  00000	55		 push	 ebp
  00001	8b ec		 mov	 ebp, esp
  00003	8b c1		 mov	 eax, ecx
  00005	8b 4d 08	 mov	 ecx, DWORD PTR __Right$[ebp]
  00008	8b 11		 mov	 edx, DWORD PTR [ecx]
  0000a	89 10		 mov	 DWORD PTR [eax], edx
  0000c	8b 49 04	 mov	 ecx, DWORD PTR [ecx+4]
  0000f	89 48 04	 mov	 DWORD PTR [eax+4], ecx

; 256  : 		}

  00012	5d		 pop	 ebp
  00013	c2 04 00	 ret	 4
??$?0$$CBKPAVioUIRenderImage@@@?$pair@$$CBKPAVioUIRenderImage@@@std@@QAE@$$QAU01@@Z ENDP ; std::pair<unsigned long const ,ioUIRenderImage *>::pair<unsigned long const ,ioUIRenderImage *><unsigned long const ,ioUIRenderImage *>
_TEXT	ENDS
PUBLIC	??$_Cons_val@V?$allocator@K@std@@KABK@std@@YAXAAV?$allocator@K@0@PAKABK@Z ; std::_Cons_val<std::allocator<unsigned long>,unsigned long,unsigned long const &>
; Function compile flags: /Ogsp
; File c:\program files (x86)\microsoft visual studio 10.0\vc\include\xmemory
;	COMDAT ??$_Cons_val@V?$allocator@K@std@@KABK@std@@YAXAAV?$allocator@K@0@PAKABK@Z
_TEXT	SEGMENT
__Alval$ = 8						; size = 4
__Pdest$ = 12						; size = 4
__Src$ = 16						; size = 4
??$_Cons_val@V?$allocator@K@std@@KABK@std@@YAXAAV?$allocator@K@0@PAKABK@Z PROC ; std::_Cons_val<std::allocator<unsigned long>,unsigned long,unsigned long const &>, COMDAT

; 279  : 	{	// construct using allocator

  00000	55		 push	 ebp
  00001	8b ec		 mov	 ebp, esp

; 280  : 	_Alval.construct(_Pdest, _STD forward<_Ty2>(_Src));

  00003	8b 45 0c	 mov	 eax, DWORD PTR __Pdest$[ebp]
  00006	85 c0		 test	 eax, eax
  00008	74 07		 je	 SHORT $LN9@Cons_val@3
  0000a	8b 4d 10	 mov	 ecx, DWORD PTR __Src$[ebp]
  0000d	8b 09		 mov	 ecx, DWORD PTR [ecx]
  0000f	89 08		 mov	 DWORD PTR [eax], ecx
$LN9@Cons_val@3:

; 281  : 	}

  00011	5d		 pop	 ebp
  00012	c3		 ret	 0
??$_Cons_val@V?$allocator@K@std@@KABK@std@@YAXAAV?$allocator@K@0@PAKABK@Z ENDP ; std::_Cons_val<std::allocator<unsigned long>,unsigned long,unsigned long const &>
_TEXT	ENDS
PUBLIC	?begin@?$_Tree@V?$_Tmap_traits@KPAVioUIRenderImage@@U?$less@K@std@@V?$allocator@U?$pair@$$CBKPAVioUIRenderImage@@@std@@@3@$0A@@std@@@std@@QAE?AV?$_Tree_iterator@V?$_Tree_val@V?$_Tmap_traits@KPAVioUIRenderImage@@U?$less@K@std@@V?$allocator@U?$pair@$$CBKPAVioUIRenderImage@@@std@@@3@$0A@@std@@@std@@@2@XZ ; std::_Tree<std::_Tmap_traits<unsigned long,ioUIRenderImage *,std::less<unsigned long>,std::allocator<std::pair<unsigned long const ,ioUIRenderImage *> >,0> >::begin
; Function compile flags: /Ogsp
; File c:\program files (x86)\microsoft visual studio 10.0\vc\include\xtree
;	COMDAT ?begin@?$_Tree@V?$_Tmap_traits@KPAVioUIRenderImage@@U?$less@K@std@@V?$allocator@U?$pair@$$CBKPAVioUIRenderImage@@@std@@@3@$0A@@std@@@std@@QAE?AV?$_Tree_iterator@V?$_Tree_val@V?$_Tmap_traits@KPAVioUIRenderImage@@U?$less@K@std@@V?$allocator@U?$pair@$$CBKPAVioUIRenderImage@@@std@@@3@$0A@@std@@@std@@@2@XZ
_TEXT	SEGMENT
___$ReturnUdt$ = 8					; size = 4
?begin@?$_Tree@V?$_Tmap_traits@KPAVioUIRenderImage@@U?$less@K@std@@V?$allocator@U?$pair@$$CBKPAVioUIRenderImage@@@std@@@3@$0A@@std@@@std@@QAE?AV?$_Tree_iterator@V?$_Tree_val@V?$_Tmap_traits@KPAVioUIRenderImage@@U?$less@K@std@@V?$allocator@U?$pair@$$CBKPAVioUIRenderImage@@@std@@@3@$0A@@std@@@std@@@2@XZ PROC ; std::_Tree<std::_Tmap_traits<unsigned long,ioUIRenderImage *,std::less<unsigned long>,std::allocator<std::pair<unsigned long const ,ioUIRenderImage *> >,0> >::begin, COMDAT
; _this$ = ecx

; 806  : 		{	// return iterator for beginning of mutable sequence

  00000	55		 push	 ebp
  00001	8b ec		 mov	 ebp, esp

; 807  : 		return (iterator(_Lmost(), this));

  00003	8b 41 04	 mov	 eax, DWORD PTR [ecx+4]
  00006	8b 08		 mov	 ecx, DWORD PTR [eax]
  00008	8b 45 08	 mov	 eax, DWORD PTR ___$ReturnUdt$[ebp]
  0000b	89 08		 mov	 DWORD PTR [eax], ecx

; 808  : 		}

  0000d	5d		 pop	 ebp
  0000e	c2 04 00	 ret	 4
?begin@?$_Tree@V?$_Tmap_traits@KPAVioUIRenderImage@@U?$less@K@std@@V?$allocator@U?$pair@$$CBKPAVioUIRenderImage@@@std@@@3@$0A@@std@@@std@@QAE?AV?$_Tree_iterator@V?$_Tree_val@V?$_Tmap_traits@KPAVioUIRenderImage@@U?$less@K@std@@V?$allocator@U?$pair@$$CBKPAVioUIRenderImage@@@std@@@3@$0A@@std@@@std@@@2@XZ ENDP ; std::_Tree<std::_Tmap_traits<unsigned long,ioUIRenderImage *,std::less<unsigned long>,std::allocator<std::pair<unsigned long const ,ioUIRenderImage *> >,0> >::begin
_TEXT	ENDS
PUBLIC	?end@?$_Tree@V?$_Tmap_traits@KPAVioUIRenderImage@@U?$less@K@std@@V?$allocator@U?$pair@$$CBKPAVioUIRenderImage@@@std@@@3@$0A@@std@@@std@@QAE?AV?$_Tree_iterator@V?$_Tree_val@V?$_Tmap_traits@KPAVioUIRenderImage@@U?$less@K@std@@V?$allocator@U?$pair@$$CBKPAVioUIRenderImage@@@std@@@3@$0A@@std@@@std@@@2@XZ ; std::_Tree<std::_Tmap_traits<unsigned long,ioUIRenderImage *,std::less<unsigned long>,std::allocator<std::pair<unsigned long const ,ioUIRenderImage *> >,0> >::end
; Function compile flags: /Ogsp
;	COMDAT ?end@?$_Tree@V?$_Tmap_traits@KPAVioUIRenderImage@@U?$less@K@std@@V?$allocator@U?$pair@$$CBKPAVioUIRenderImage@@@std@@@3@$0A@@std@@@std@@QAE?AV?$_Tree_iterator@V?$_Tree_val@V?$_Tmap_traits@KPAVioUIRenderImage@@U?$less@K@std@@V?$allocator@U?$pair@$$CBKPAVioUIRenderImage@@@std@@@3@$0A@@std@@@std@@@2@XZ
_TEXT	SEGMENT
___$ReturnUdt$ = 8					; size = 4
?end@?$_Tree@V?$_Tmap_traits@KPAVioUIRenderImage@@U?$less@K@std@@V?$allocator@U?$pair@$$CBKPAVioUIRenderImage@@@std@@@3@$0A@@std@@@std@@QAE?AV?$_Tree_iterator@V?$_Tree_val@V?$_Tmap_traits@KPAVioUIRenderImage@@U?$less@K@std@@V?$allocator@U?$pair@$$CBKPAVioUIRenderImage@@@std@@@3@$0A@@std@@@std@@@2@XZ PROC ; std::_Tree<std::_Tmap_traits<unsigned long,ioUIRenderImage *,std::less<unsigned long>,std::allocator<std::pair<unsigned long const ,ioUIRenderImage *> >,0> >::end, COMDAT
; _this$ = ecx

; 816  : 		{	// return iterator for end of mutable sequence

  00000	55		 push	 ebp
  00001	8b ec		 mov	 ebp, esp

; 817  : 		return (iterator(this->_Myhead, this));

  00003	8b 49 04	 mov	 ecx, DWORD PTR [ecx+4]
  00006	8b 45 08	 mov	 eax, DWORD PTR ___$ReturnUdt$[ebp]
  00009	89 08		 mov	 DWORD PTR [eax], ecx

; 818  : 		}

  0000b	5d		 pop	 ebp
  0000c	c2 04 00	 ret	 4
?end@?$_Tree@V?$_Tmap_traits@KPAVioUIRenderImage@@U?$less@K@std@@V?$allocator@U?$pair@$$CBKPAVioUIRenderImage@@@std@@@3@$0A@@std@@@std@@QAE?AV?$_Tree_iterator@V?$_Tree_val@V?$_Tmap_traits@KPAVioUIRenderImage@@U?$less@K@std@@V?$allocator@U?$pair@$$CBKPAVioUIRenderImage@@@std@@@3@$0A@@std@@@std@@@2@XZ ENDP ; std::_Tree<std::_Tmap_traits<unsigned long,ioUIRenderImage *,std::less<unsigned long>,std::allocator<std::pair<unsigned long const ,ioUIRenderImage *> >,0> >::end
_TEXT	ENDS
PUBLIC	??1?$vector@PAUCustomMarkData@ioGuildMarkMgr@@V?$allocator@PAUCustomMarkData@ioGuildMarkMgr@@@std@@@std@@QAE@XZ ; std::vector<ioGuildMarkMgr::CustomMarkData *,std::allocator<ioGuildMarkMgr::CustomMarkData *> >::~vector<ioGuildMarkMgr::CustomMarkData *,std::allocator<ioGuildMarkMgr::CustomMarkData *> >
; Function compile flags: /Ogsp
; File c:\program files (x86)\microsoft visual studio 10.0\vc\include\vector
;	COMDAT ??1?$vector@PAUCustomMarkData@ioGuildMarkMgr@@V?$allocator@PAUCustomMarkData@ioGuildMarkMgr@@@std@@@std@@QAE@XZ
_TEXT	SEGMENT
??1?$vector@PAUCustomMarkData@ioGuildMarkMgr@@V?$allocator@PAUCustomMarkData@ioGuildMarkMgr@@@std@@@std@@QAE@XZ PROC ; std::vector<ioGuildMarkMgr::CustomMarkData *,std::allocator<ioGuildMarkMgr::CustomMarkData *> >::~vector<ioGuildMarkMgr::CustomMarkData *,std::allocator<ioGuildMarkMgr::CustomMarkData *> >, COMDAT
; _this$ = ecx

; 705  : 		_Tidy();

  00000	e9 00 00 00 00	 jmp	 ?_Tidy@?$vector@PAUCustomMarkData@ioGuildMarkMgr@@V?$allocator@PAUCustomMarkData@ioGuildMarkMgr@@@std@@@std@@IAEXXZ ; std::vector<ioGuildMarkMgr::CustomMarkData *,std::allocator<ioGuildMarkMgr::CustomMarkData *> >::_Tidy
??1?$vector@PAUCustomMarkData@ioGuildMarkMgr@@V?$allocator@PAUCustomMarkData@ioGuildMarkMgr@@@std@@@std@@QAE@XZ ENDP ; std::vector<ioGuildMarkMgr::CustomMarkData *,std::allocator<ioGuildMarkMgr::CustomMarkData *> >::~vector<ioGuildMarkMgr::CustomMarkData *,std::allocator<ioGuildMarkMgr::CustomMarkData *> >
_TEXT	ENDS
PUBLIC	?erase@?$vector@PAUCustomMarkData@ioGuildMarkMgr@@V?$allocator@PAUCustomMarkData@ioGuildMarkMgr@@@std@@@std@@QAE?AV?$_Vector_iterator@V?$_Vector_val@PAUCustomMarkData@ioGuildMarkMgr@@V?$allocator@PAUCustomMarkData@ioGuildMarkMgr@@@std@@@std@@@2@V?$_Vector_const_iterator@V?$_Vector_val@PAUCustomMarkData@ioGuildMarkMgr@@V?$allocator@PAUCustomMarkData@ioGuildMarkMgr@@@std@@@std@@@2@@Z ; std::vector<ioGuildMarkMgr::CustomMarkData *,std::allocator<ioGuildMarkMgr::CustomMarkData *> >::erase
; Function compile flags: /Ogsp
;	COMDAT ?erase@?$vector@PAUCustomMarkData@ioGuildMarkMgr@@V?$allocator@PAUCustomMarkData@ioGuildMarkMgr@@@std@@@std@@QAE?AV?$_Vector_iterator@V?$_Vector_val@PAUCustomMarkData@ioGuildMarkMgr@@V?$allocator@PAUCustomMarkData@ioGuildMarkMgr@@@std@@@std@@@2@V?$_Vector_const_iterator@V?$_Vector_val@PAUCustomMarkData@ioGuildMarkMgr@@V?$allocator@PAUCustomMarkData@ioGuildMarkMgr@@@std@@@std@@@2@@Z
_TEXT	SEGMENT
___$ReturnUdt$ = 8					; size = 4
__Cat$514014 = 12					; size = 1
__Where$ = 12						; size = 4
?erase@?$vector@PAUCustomMarkData@ioGuildMarkMgr@@V?$allocator@PAUCustomMarkData@ioGuildMarkMgr@@@std@@@std@@QAE?AV?$_Vector_iterator@V?$_Vector_val@PAUCustomMarkData@ioGuildMarkMgr@@V?$allocator@PAUCustomMarkData@ioGuildMarkMgr@@@std@@@std@@@2@V?$_Vector_const_iterator@V?$_Vector_val@PAUCustomMarkData@ioGuildMarkMgr@@V?$allocator@PAUCustomMarkData@ioGuildMarkMgr@@@std@@@std@@@2@@Z PROC ; std::vector<ioGuildMarkMgr::CustomMarkData *,std::allocator<ioGuildMarkMgr::CustomMarkData *> >::erase, COMDAT
; _this$ = ecx

; 1179 : 		{	// erase element at where

  00000	55		 push	 ebp
  00001	8b ec		 mov	 ebp, esp

; 1180 : 		_Move(_VIPTR(_Where) + 1, this->_Mylast,
; 1181 : 			_VIPTR(_Where));

  00003	8b 45 0c	 mov	 eax, DWORD PTR __Where$[ebp]
  00006	56		 push	 esi
  00007	ff 75 0c	 push	 DWORD PTR __Cat$514014[ebp]
  0000a	8b f1		 mov	 esi, ecx
  0000c	50		 push	 eax
  0000d	ff 76 04	 push	 DWORD PTR [esi+4]
  00010	83 c0 04	 add	 eax, 4
  00013	50		 push	 eax
  00014	e8 00 00 00 00	 call	 ??$_Move@PAPAUCustomMarkData@ioGuildMarkMgr@@PAPAU12@@std@@YAPAPAUCustomMarkData@ioGuildMarkMgr@@PAPAU12@00U_Scalar_ptr_iterator_tag@0@@Z ; std::_Move<ioGuildMarkMgr::CustomMarkData * *,ioGuildMarkMgr::CustomMarkData * *>

; 1182 : 		_Destroy(this->_Mylast - 1, this->_Mylast);
; 1183 : 		--this->_Mylast;
; 1184 : 		return (_Make_iter(_Where));

  00019	8b 45 08	 mov	 eax, DWORD PTR ___$ReturnUdt$[ebp]
  0001c	8b 4d 0c	 mov	 ecx, DWORD PTR __Where$[ebp]
  0001f	83 c4 10	 add	 esp, 16			; 00000010H
  00022	83 46 04 fc	 add	 DWORD PTR [esi+4], -4	; fffffffcH
  00026	89 08		 mov	 DWORD PTR [eax], ecx
  00028	5e		 pop	 esi

; 1185 : 		}

  00029	5d		 pop	 ebp
  0002a	c2 08 00	 ret	 8
?erase@?$vector@PAUCustomMarkData@ioGuildMarkMgr@@V?$allocator@PAUCustomMarkData@ioGuildMarkMgr@@@std@@@std@@QAE?AV?$_Vector_iterator@V?$_Vector_val@PAUCustomMarkData@ioGuildMarkMgr@@V?$allocator@PAUCustomMarkData@ioGuildMarkMgr@@@std@@@std@@@2@V?$_Vector_const_iterator@V?$_Vector_val@PAUCustomMarkData@ioGuildMarkMgr@@V?$allocator@PAUCustomMarkData@ioGuildMarkMgr@@@std@@@std@@@2@@Z ENDP ; std::vector<ioGuildMarkMgr::CustomMarkData *,std::allocator<ioGuildMarkMgr::CustomMarkData *> >::erase
_TEXT	ENDS
PUBLIC	??0?$list@KV?$allocator@K@std@@@std@@QAE@XZ	; std::list<unsigned long,std::allocator<unsigned long> >::list<unsigned long,std::allocator<unsigned long> >
; Function compile flags: /Ogsp
; File c:\program files (x86)\microsoft visual studio 10.0\vc\include\list
;	COMDAT ??0?$list@KV?$allocator@K@std@@@std@@QAE@XZ
_TEXT	SEGMENT
$T514076 = -4						; size = 4
$T514071 = -4						; size = 4
??0?$list@KV?$allocator@K@std@@@std@@QAE@XZ PROC	; std::list<unsigned long,std::allocator<unsigned long> >::list<unsigned long,std::allocator<unsigned long> >, COMDAT
; _this$ = ecx

; 607  : 		{	// construct empty list

  00000	55		 push	 ebp
  00001	8b ec		 mov	 ebp, esp
  00003	51		 push	 ecx
  00004	56		 push	 esi
  00005	51		 push	 ecx
  00006	89 65 fc	 mov	 DWORD PTR $T514071[ebp], esp
  00009	8b f1		 mov	 esi, ecx
  0000b	89 65 fc	 mov	 DWORD PTR $T514076[ebp], esp
  0000e	e8 00 00 00 00	 call	 ??0?$_List_val@KV?$allocator@K@std@@@std@@QAE@V?$allocator@K@1@@Z ; std::_List_val<unsigned long,std::allocator<unsigned long> >::_List_val<unsigned long,std::allocator<unsigned long> >

; 608  : 		}

  00013	8b c6		 mov	 eax, esi
  00015	5e		 pop	 esi
  00016	c9		 leave
  00017	c3		 ret	 0
??0?$list@KV?$allocator@K@std@@@std@@QAE@XZ ENDP	; std::list<unsigned long,std::allocator<unsigned long> >::list<unsigned long,std::allocator<unsigned long> >
_TEXT	ENDS
PUBLIC	?begin@?$list@KV?$allocator@K@std@@@std@@QAE?AV?$_List_iterator@V?$_List_val@KV?$allocator@K@std@@@std@@@2@XZ ; std::list<unsigned long,std::allocator<unsigned long> >::begin
; Function compile flags: /Ogsp
;	COMDAT ?begin@?$list@KV?$allocator@K@std@@@std@@QAE?AV?$_List_iterator@V?$_List_val@KV?$allocator@K@std@@@std@@@2@XZ
_TEXT	SEGMENT
___$ReturnUdt$ = 8					; size = 4
?begin@?$list@KV?$allocator@K@std@@@std@@QAE?AV?$_List_iterator@V?$_List_val@KV?$allocator@K@std@@@std@@@2@XZ PROC ; std::list<unsigned long,std::allocator<unsigned long> >::begin, COMDAT
; _this$ = ecx

; 781  : 		{	// return iterator for beginning of mutable sequence

  00000	55		 push	 ebp
  00001	8b ec		 mov	 ebp, esp

; 782  : 		return (iterator(this->_Nextnode(this->_Myhead), this));

  00003	8b 01		 mov	 eax, DWORD PTR [ecx]
  00005	8b 08		 mov	 ecx, DWORD PTR [eax]
  00007	8b 45 08	 mov	 eax, DWORD PTR ___$ReturnUdt$[ebp]
  0000a	89 08		 mov	 DWORD PTR [eax], ecx

; 783  : 		}

  0000c	5d		 pop	 ebp
  0000d	c2 04 00	 ret	 4
?begin@?$list@KV?$allocator@K@std@@@std@@QAE?AV?$_List_iterator@V?$_List_val@KV?$allocator@K@std@@@std@@@2@XZ ENDP ; std::list<unsigned long,std::allocator<unsigned long> >::begin
_TEXT	ENDS
PUBLIC	?end@?$list@KV?$allocator@K@std@@@std@@QAE?AV?$_List_iterator@V?$_List_val@KV?$allocator@K@std@@@std@@@2@XZ ; std::list<unsigned long,std::allocator<unsigned long> >::end
; Function compile flags: /Ogsp
;	COMDAT ?end@?$list@KV?$allocator@K@std@@@std@@QAE?AV?$_List_iterator@V?$_List_val@KV?$allocator@K@std@@@std@@@2@XZ
_TEXT	SEGMENT
___$ReturnUdt$ = 8					; size = 4
?end@?$list@KV?$allocator@K@std@@@std@@QAE?AV?$_List_iterator@V?$_List_val@KV?$allocator@K@std@@@std@@@2@XZ PROC ; std::list<unsigned long,std::allocator<unsigned long> >::end, COMDAT
; _this$ = ecx

; 791  : 		{	// return iterator for end of mutable sequence

  00000	55		 push	 ebp
  00001	8b ec		 mov	 ebp, esp

; 792  : 		return (iterator(this->_Myhead, this));

  00003	8b 09		 mov	 ecx, DWORD PTR [ecx]
  00005	8b 45 08	 mov	 eax, DWORD PTR ___$ReturnUdt$[ebp]
  00008	89 08		 mov	 DWORD PTR [eax], ecx

; 793  : 		}

  0000a	5d		 pop	 ebp
  0000b	c2 04 00	 ret	 4
?end@?$list@KV?$allocator@K@std@@@std@@QAE?AV?$_List_iterator@V?$_List_val@KV?$allocator@K@std@@@std@@@2@XZ ENDP ; std::list<unsigned long,std::allocator<unsigned long> >::end
_TEXT	ENDS
PUBLIC	?remove@?$list@KV?$allocator@K@std@@@std@@QAEXABK@Z ; std::list<unsigned long,std::allocator<unsigned long> >::remove
; Function compile flags: /Ogsp
;	COMDAT ?remove@?$list@KV?$allocator@K@std@@@std@@QAEXABK@Z
_TEXT	SEGMENT
__Val$ = 8						; size = 4
__Val_arg$ = 8						; size = 4
?remove@?$list@KV?$allocator@K@std@@@std@@QAEXABK@Z PROC ; std::list<unsigned long,std::allocator<unsigned long> >::remove, COMDAT
; _this$ = ecx

; 1188 : 		{	// erase each element matching _Val

  00000	55		 push	 ebp
  00001	8b ec		 mov	 ebp, esp

; 1189 : 		const _Ty _Val = _Val_arg;	// in case it's removed along the way

  00003	8b 45 08	 mov	 eax, DWORD PTR __Val_arg$[ebp]
  00006	8b 00		 mov	 eax, DWORD PTR [eax]
  00008	53		 push	 ebx
  00009	56		 push	 esi
  0000a	57		 push	 edi
  0000b	8b f9		 mov	 edi, ecx

; 1190 : 		const _Nodeptr _Phead = this->_Myhead;

  0000d	8b 1f		 mov	 ebx, DWORD PTR [edi]

; 1191 : 		_Nodeptr _Pnode = _Phead->_Next;

  0000f	8b 33		 mov	 esi, DWORD PTR [ebx]
  00011	89 45 08	 mov	 DWORD PTR __Val$[ebp], eax
  00014	eb 20		 jmp	 SHORT $LN17@remove
$LL4@remove:

; 1194 : 			if (_Pnode->_Myval == _Val)

  00016	8b 45 08	 mov	 eax, DWORD PTR __Val$[ebp]
  00019	39 46 08	 cmp	 DWORD PTR [esi+8], eax
  0001c	75 16		 jne	 SHORT $LN2@remove

; 1195 : 				{	// match, remove it
; 1196 : 				const _Nodeptr _Pprev = _Pnode->_Prev;

  0001e	8b 46 04	 mov	 eax, DWORD PTR [esi+4]

; 1197 : 				const _Nodeptr _Perase = _Pnode;
; 1198 : 				_Pnode = _Pnode->_Next;
; 1199 : 
; 1200 : 				_Pprev->_Next = _Pnode;
; 1201 : 				_Pnode->_Prev = _Pprev;
; 1202 : 
; 1203 : 				_Dest_val(this->_Alnod, _Perase);
; 1204 : 				this->_Alnod.deallocate(_Perase, 1);

  00021	56		 push	 esi
  00022	8b 36		 mov	 esi, DWORD PTR [esi]
  00024	89 30		 mov	 DWORD PTR [eax], esi
  00026	89 46 04	 mov	 DWORD PTR [esi+4], eax
  00029	e8 00 00 00 00	 call	 ??3@YAXPAX@Z		; operator delete

; 1205 : 				--this->_Mysize;

  0002e	ff 4f 04	 dec	 DWORD PTR [edi+4]
  00031	59		 pop	 ecx

; 1206 : 				}
; 1207 : 			else

  00032	eb 02		 jmp	 SHORT $LN17@remove
$LN2@remove:

; 1208 : 				_Pnode = _Pnode->_Next;

  00034	8b 36		 mov	 esi, DWORD PTR [esi]
$LN17@remove:

; 1192 : 
; 1193 : 		while (_Pnode != _Phead)

  00036	3b f3		 cmp	 esi, ebx
  00038	75 dc		 jne	 SHORT $LL4@remove
  0003a	5f		 pop	 edi
  0003b	5e		 pop	 esi
  0003c	5b		 pop	 ebx

; 1209 : 		}

  0003d	5d		 pop	 ebp
  0003e	c2 04 00	 ret	 4
?remove@?$list@KV?$allocator@K@std@@@std@@QAEXABK@Z ENDP ; std::list<unsigned long,std::allocator<unsigned long> >::remove
_TEXT	ENDS
PUBLIC	??E?$_Tree_iterator@V?$_Tree_val@V?$_Tmap_traits@KPAVioUIRenderImage@@U?$less@K@std@@V?$allocator@U?$pair@$$CBKPAVioUIRenderImage@@@std@@@3@$0A@@std@@@std@@@std@@QAEAAV01@XZ ; std::_Tree_iterator<std::_Tree_val<std::_Tmap_traits<unsigned long,ioUIRenderImage *,std::less<unsigned long>,std::allocator<std::pair<unsigned long const ,ioUIRenderImage *> >,0> > >::operator++
; Function compile flags: /Ogsp
; File c:\program files (x86)\microsoft visual studio 10.0\vc\include\xtree
;	COMDAT ??E?$_Tree_iterator@V?$_Tree_val@V?$_Tmap_traits@KPAVioUIRenderImage@@U?$less@K@std@@V?$allocator@U?$pair@$$CBKPAVioUIRenderImage@@@std@@@3@$0A@@std@@@std@@@std@@QAEAAV01@XZ
_TEXT	SEGMENT
??E?$_Tree_iterator@V?$_Tree_val@V?$_Tmap_traits@KPAVioUIRenderImage@@U?$less@K@std@@V?$allocator@U?$pair@$$CBKPAVioUIRenderImage@@@std@@@3@$0A@@std@@@std@@@std@@QAEAAV01@XZ PROC ; std::_Tree_iterator<std::_Tree_val<std::_Tmap_traits<unsigned long,ioUIRenderImage *,std::less<unsigned long>,std::allocator<std::pair<unsigned long const ,ioUIRenderImage *> >,0> > >::operator++, COMDAT
; _this$ = ecx

; 405  : 		{	// preincrement

  00000	56		 push	 esi
  00001	8b f1		 mov	 esi, ecx

; 406  : 		++(*(_Mybase *)this);

  00003	e8 00 00 00 00	 call	 ??E?$_Tree_unchecked_const_iterator@V?$_Tree_val@V?$_Tmap_traits@KPAVioUIRenderImage@@U?$less@K@std@@V?$allocator@U?$pair@$$CBKPAVioUIRenderImage@@@std@@@3@$0A@@std@@@std@@U_Iterator_base0@2@@std@@QAEAAV01@XZ ; std::_Tree_unchecked_const_iterator<std::_Tree_val<std::_Tmap_traits<unsigned long,ioUIRenderImage *,std::less<unsigned long>,std::allocator<std::pair<unsigned long const ,ioUIRenderImage *> >,0> >,std::_Iterator_base0>::operator++

; 407  : 		return (*this);

  00008	8b c6		 mov	 eax, esi
  0000a	5e		 pop	 esi

; 408  : 		}

  0000b	c3		 ret	 0
??E?$_Tree_iterator@V?$_Tree_val@V?$_Tmap_traits@KPAVioUIRenderImage@@U?$less@K@std@@V?$allocator@U?$pair@$$CBKPAVioUIRenderImage@@@std@@@3@$0A@@std@@@std@@@std@@QAEAAV01@XZ ENDP ; std::_Tree_iterator<std::_Tree_val<std::_Tmap_traits<unsigned long,ioUIRenderImage *,std::less<unsigned long>,std::allocator<std::pair<unsigned long const ,ioUIRenderImage *> >,0> > >::operator++
_TEXT	ENDS
PUBLIC	??0?$_Tree@V?$_Tmap_traits@KPAVioUIRenderImage@@U?$less@K@std@@V?$allocator@U?$pair@$$CBKPAVioUIRenderImage@@@std@@@3@$0A@@std@@@std@@QAE@ABU?$less@K@1@ABV?$allocator@U?$pair@$$CBKPAVioUIRenderImage@@@std@@@1@@Z ; std::_Tree<std::_Tmap_traits<unsigned long,ioUIRenderImage *,std::less<unsigned long>,std::allocator<std::pair<unsigned long const ,ioUIRenderImage *> >,0> >::_Tree<std::_Tmap_traits<unsigned long,ioUIRenderImage *,std::less<unsigned long>,std::allocator<std::pair<unsigned long const ,ioUIRenderImage *> >,0> >
; Function compile flags: /Ogsp
;	COMDAT ??0?$_Tree@V?$_Tmap_traits@KPAVioUIRenderImage@@U?$less@K@std@@V?$allocator@U?$pair@$$CBKPAVioUIRenderImage@@@std@@@3@$0A@@std@@@std@@QAE@ABU?$less@K@1@ABV?$allocator@U?$pair@$$CBKPAVioUIRenderImage@@@std@@@1@@Z
_TEXT	SEGMENT
$T514171 = -4						; size = 4
$T514166 = -4						; size = 4
__Parg$ = 8						; size = 4
__Al$ = 12						; size = 4
??0?$_Tree@V?$_Tmap_traits@KPAVioUIRenderImage@@U?$less@K@std@@V?$allocator@U?$pair@$$CBKPAVioUIRenderImage@@@std@@@3@$0A@@std@@@std@@QAE@ABU?$less@K@1@ABV?$allocator@U?$pair@$$CBKPAVioUIRenderImage@@@std@@@1@@Z PROC ; std::_Tree<std::_Tmap_traits<unsigned long,ioUIRenderImage *,std::less<unsigned long>,std::allocator<std::pair<unsigned long const ,ioUIRenderImage *> >,0> >::_Tree<std::_Tmap_traits<unsigned long,ioUIRenderImage *,std::less<unsigned long>,std::allocator<std::pair<unsigned long const ,ioUIRenderImage *> >,0> >, COMDAT
; _this$ = ecx

; 698  : 		{	// construct empty tree

  00000	55		 push	 ebp
  00001	8b ec		 mov	 ebp, esp
  00003	51		 push	 ecx
  00004	56		 push	 esi
  00005	51		 push	 ecx
  00006	89 65 fc	 mov	 DWORD PTR $T514166[ebp], esp
  00009	89 65 fc	 mov	 DWORD PTR $T514171[ebp], esp
  0000c	ff 75 08	 push	 DWORD PTR __Parg$[ebp]
  0000f	8b f1		 mov	 esi, ecx
  00011	e8 00 00 00 00	 call	 ??0?$_Tree_val@V?$_Tmap_traits@KPAVioUIRenderImage@@U?$less@K@std@@V?$allocator@U?$pair@$$CBKPAVioUIRenderImage@@@std@@@3@$0A@@std@@@std@@QAE@ABU?$less@K@1@V?$allocator@U?$pair@$$CBKPAVioUIRenderImage@@@std@@@1@@Z ; std::_Tree_val<std::_Tmap_traits<unsigned long,ioUIRenderImage *,std::less<unsigned long>,std::allocator<std::pair<unsigned long const ,ioUIRenderImage *> >,0> >::_Tree_val<std::_Tmap_traits<unsigned long,ioUIRenderImage *,std::less<unsigned long>,std::allocator<std::pair<unsigned long const ,ioUIRenderImage *> >,0> >

; 699  : 		}

  00016	8b c6		 mov	 eax, esi
  00018	5e		 pop	 esi
  00019	c9		 leave
  0001a	c2 08 00	 ret	 8
??0?$_Tree@V?$_Tmap_traits@KPAVioUIRenderImage@@U?$less@K@std@@V?$allocator@U?$pair@$$CBKPAVioUIRenderImage@@@std@@@3@$0A@@std@@@std@@QAE@ABU?$less@K@1@ABV?$allocator@U?$pair@$$CBKPAVioUIRenderImage@@@std@@@1@@Z ENDP ; std::_Tree<std::_Tmap_traits<unsigned long,ioUIRenderImage *,std::less<unsigned long>,std::allocator<std::pair<unsigned long const ,ioUIRenderImage *> >,0> >::_Tree<std::_Tmap_traits<unsigned long,ioUIRenderImage *,std::less<unsigned long>,std::allocator<std::pair<unsigned long const ,ioUIRenderImage *> >,0> >
_TEXT	ENDS
PUBLIC	?lower_bound@?$_Tree@V?$_Tmap_traits@KPAVioUIRenderImage@@U?$less@K@std@@V?$allocator@U?$pair@$$CBKPAVioUIRenderImage@@@std@@@3@$0A@@std@@@std@@QAE?AV?$_Tree_iterator@V?$_Tree_val@V?$_Tmap_traits@KPAVioUIRenderImage@@U?$less@K@std@@V?$allocator@U?$pair@$$CBKPAVioUIRenderImage@@@std@@@3@$0A@@std@@@std@@@2@ABK@Z ; std::_Tree<std::_Tmap_traits<unsigned long,ioUIRenderImage *,std::less<unsigned long>,std::allocator<std::pair<unsigned long const ,ioUIRenderImage *> >,0> >::lower_bound
; Function compile flags: /Ogsp
;	COMDAT ?lower_bound@?$_Tree@V?$_Tmap_traits@KPAVioUIRenderImage@@U?$less@K@std@@V?$allocator@U?$pair@$$CBKPAVioUIRenderImage@@@std@@@3@$0A@@std@@@std@@QAE?AV?$_Tree_iterator@V?$_Tree_val@V?$_Tmap_traits@KPAVioUIRenderImage@@U?$less@K@std@@V?$allocator@U?$pair@$$CBKPAVioUIRenderImage@@@std@@@3@$0A@@std@@@std@@@2@ABK@Z
_TEXT	SEGMENT
___$ReturnUdt$ = 8					; size = 4
__Keyval$ = 12						; size = 4
?lower_bound@?$_Tree@V?$_Tmap_traits@KPAVioUIRenderImage@@U?$less@K@std@@V?$allocator@U?$pair@$$CBKPAVioUIRenderImage@@@std@@@3@$0A@@std@@@std@@QAE?AV?$_Tree_iterator@V?$_Tree_val@V?$_Tmap_traits@KPAVioUIRenderImage@@U?$less@K@std@@V?$allocator@U?$pair@$$CBKPAVioUIRenderImage@@@std@@@3@$0A@@std@@@std@@@2@ABK@Z PROC ; std::_Tree<std::_Tmap_traits<unsigned long,ioUIRenderImage *,std::less<unsigned long>,std::allocator<std::pair<unsigned long const ,ioUIRenderImage *> >,0> >::lower_bound, COMDAT
; _this$ = ecx

; 1449 : 		{	// find leftmost node not less than _Keyval in mutable tree

  00000	55		 push	 ebp
  00001	8b ec		 mov	 ebp, esp

; 1450 : 		return (iterator(_Lbound(_Keyval), this));

  00003	ff 75 0c	 push	 DWORD PTR __Keyval$[ebp]
  00006	e8 00 00 00 00	 call	 ?_Lbound@?$_Tree@V?$_Tmap_traits@KPAVioUIRenderImage@@U?$less@K@std@@V?$allocator@U?$pair@$$CBKPAVioUIRenderImage@@@std@@@3@$0A@@std@@@std@@IAEPAU_Node@?$_Tree_nod@V?$_Tmap_traits@KPAVioUIRenderImage@@U?$less@K@std@@V?$allocator@U?$pair@$$CBKPAVioUIRenderImage@@@std@@@3@$0A@@std@@@2@ABK@Z ; std::_Tree<std::_Tmap_traits<unsigned long,ioUIRenderImage *,std::less<unsigned long>,std::allocator<std::pair<unsigned long const ,ioUIRenderImage *> >,0> >::_Lbound
  0000b	8b 4d 08	 mov	 ecx, DWORD PTR ___$ReturnUdt$[ebp]
  0000e	89 01		 mov	 DWORD PTR [ecx], eax
  00010	8b c1		 mov	 eax, ecx

; 1451 : 		}

  00012	5d		 pop	 ebp
  00013	c2 08 00	 ret	 8
?lower_bound@?$_Tree@V?$_Tmap_traits@KPAVioUIRenderImage@@U?$less@K@std@@V?$allocator@U?$pair@$$CBKPAVioUIRenderImage@@@std@@@3@$0A@@std@@@std@@QAE?AV?$_Tree_iterator@V?$_Tree_val@V?$_Tmap_traits@KPAVioUIRenderImage@@U?$less@K@std@@V?$allocator@U?$pair@$$CBKPAVioUIRenderImage@@@std@@@3@$0A@@std@@@std@@@2@ABK@Z ENDP ; std::_Tree<std::_Tmap_traits<unsigned long,ioUIRenderImage *,std::less<unsigned long>,std::allocator<std::pair<unsigned long const ,ioUIRenderImage *> >,0> >::lower_bound
_TEXT	ENDS
PUBLIC	?_Erase@?$_Tree@V?$_Tmap_traits@KPAVioUIRenderImage@@U?$less@K@std@@V?$allocator@U?$pair@$$CBKPAVioUIRenderImage@@@std@@@3@$0A@@std@@@std@@IAEXPAU_Node@?$_Tree_nod@V?$_Tmap_traits@KPAVioUIRenderImage@@U?$less@K@std@@V?$allocator@U?$pair@$$CBKPAVioUIRenderImage@@@std@@@3@$0A@@std@@@2@@Z ; std::_Tree<std::_Tmap_traits<unsigned long,ioUIRenderImage *,std::less<unsigned long>,std::allocator<std::pair<unsigned long const ,ioUIRenderImage *> >,0> >::_Erase
; Function compile flags: /Ogsp
;	COMDAT ?_Erase@?$_Tree@V?$_Tmap_traits@KPAVioUIRenderImage@@U?$less@K@std@@V?$allocator@U?$pair@$$CBKPAVioUIRenderImage@@@std@@@3@$0A@@std@@@std@@IAEXPAU_Node@?$_Tree_nod@V?$_Tmap_traits@KPAVioUIRenderImage@@U?$less@K@std@@V?$allocator@U?$pair@$$CBKPAVioUIRenderImage@@@std@@@3@$0A@@std@@@2@@Z
_TEXT	SEGMENT
__Rootnode$ = 8						; size = 4
?_Erase@?$_Tree@V?$_Tmap_traits@KPAVioUIRenderImage@@U?$less@K@std@@V?$allocator@U?$pair@$$CBKPAVioUIRenderImage@@@std@@@3@$0A@@std@@@std@@IAEXPAU_Node@?$_Tree_nod@V?$_Tmap_traits@KPAVioUIRenderImage@@U?$less@K@std@@V?$allocator@U?$pair@$$CBKPAVioUIRenderImage@@@std@@@3@$0A@@std@@@2@@Z PROC ; std::_Tree<std::_Tmap_traits<unsigned long,ioUIRenderImage *,std::less<unsigned long>,std::allocator<std::pair<unsigned long const ,ioUIRenderImage *> >,0> >::_Erase, COMDAT
; _this$ = ecx

; 1610 : 		{	// free entire subtree, recursively

  00000	55		 push	 ebp
  00001	8b ec		 mov	 ebp, esp
  00003	53		 push	 ebx
  00004	56		 push	 esi
  00005	57		 push	 edi

; 1611 : 		for (_Nodeptr _Pnode = _Rootnode;

  00006	8b 7d 08	 mov	 edi, DWORD PTR __Rootnode$[ebp]

; 1612 : 			!this->_Isnil(_Pnode); _Rootnode = _Pnode)

  00009	80 7f 15 00	 cmp	 BYTE PTR [edi+21], 0
  0000d	8b d9		 mov	 ebx, ecx
  0000f	8b f7		 mov	 esi, edi
  00011	75 1b		 jne	 SHORT $LN1@Erase
$LL3@Erase:

; 1613 : 			{	// free subtrees, then node
; 1614 : 			_Erase(this->_Right(_Pnode));

  00013	ff 76 08	 push	 DWORD PTR [esi+8]
  00016	8b cb		 mov	 ecx, ebx
  00018	e8 00 00 00 00	 call	 ?_Erase@?$_Tree@V?$_Tmap_traits@KPAVioUIRenderImage@@U?$less@K@std@@V?$allocator@U?$pair@$$CBKPAVioUIRenderImage@@@std@@@3@$0A@@std@@@std@@IAEXPAU_Node@?$_Tree_nod@V?$_Tmap_traits@KPAVioUIRenderImage@@U?$less@K@std@@V?$allocator@U?$pair@$$CBKPAVioUIRenderImage@@@std@@@3@$0A@@std@@@2@@Z ; std::_Tree<std::_Tmap_traits<unsigned long,ioUIRenderImage *,std::less<unsigned long>,std::allocator<std::pair<unsigned long const ,ioUIRenderImage *> >,0> >::_Erase

; 1615 : 			_Pnode = this->_Left(_Pnode);

  0001d	8b 36		 mov	 esi, DWORD PTR [esi]

; 1616 : 			_Dest_val(this->_Alval,
; 1617 : 				_STD addressof(this->_Myval(_Rootnode)));
; 1618 : 
; 1619 : 			this->_Alnod.deallocate(_Rootnode, 1);

  0001f	57		 push	 edi
  00020	e8 00 00 00 00	 call	 ??3@YAXPAX@Z		; operator delete
  00025	80 7e 15 00	 cmp	 BYTE PTR [esi+21], 0
  00029	59		 pop	 ecx
  0002a	8b fe		 mov	 edi, esi
  0002c	74 e5		 je	 SHORT $LL3@Erase
$LN1@Erase:
  0002e	5f		 pop	 edi
  0002f	5e		 pop	 esi
  00030	5b		 pop	 ebx

; 1620 : 			}
; 1621 : 		}

  00031	5d		 pop	 ebp
  00032	c2 04 00	 ret	 4
?_Erase@?$_Tree@V?$_Tmap_traits@KPAVioUIRenderImage@@U?$less@K@std@@V?$allocator@U?$pair@$$CBKPAVioUIRenderImage@@@std@@@3@$0A@@std@@@std@@IAEXPAU_Node@?$_Tree_nod@V?$_Tmap_traits@KPAVioUIRenderImage@@U?$less@K@std@@V?$allocator@U?$pair@$$CBKPAVioUIRenderImage@@@std@@@3@$0A@@std@@@2@@Z ENDP ; std::_Tree<std::_Tmap_traits<unsigned long,ioUIRenderImage *,std::less<unsigned long>,std::allocator<std::pair<unsigned long const ,ioUIRenderImage *> >,0> >::_Erase
_TEXT	ENDS
PUBLIC	?erase@?$vector@PAUCustomMarkData@ioGuildMarkMgr@@V?$allocator@PAUCustomMarkData@ioGuildMarkMgr@@@std@@@std@@QAE?AV?$_Vector_iterator@V?$_Vector_val@PAUCustomMarkData@ioGuildMarkMgr@@V?$allocator@PAUCustomMarkData@ioGuildMarkMgr@@@std@@@std@@@2@V?$_Vector_const_iterator@V?$_Vector_val@PAUCustomMarkData@ioGuildMarkMgr@@V?$allocator@PAUCustomMarkData@ioGuildMarkMgr@@@std@@@std@@@2@0@Z ; std::vector<ioGuildMarkMgr::CustomMarkData *,std::allocator<ioGuildMarkMgr::CustomMarkData *> >::erase
; Function compile flags: /Ogsp
; File c:\program files (x86)\microsoft visual studio 10.0\vc\include\vector
;	COMDAT ?erase@?$vector@PAUCustomMarkData@ioGuildMarkMgr@@V?$allocator@PAUCustomMarkData@ioGuildMarkMgr@@@std@@@std@@QAE?AV?$_Vector_iterator@V?$_Vector_val@PAUCustomMarkData@ioGuildMarkMgr@@V?$allocator@PAUCustomMarkData@ioGuildMarkMgr@@@std@@@std@@@2@V?$_Vector_const_iterator@V?$_Vector_val@PAUCustomMarkData@ioGuildMarkMgr@@V?$allocator@PAUCustomMarkData@ioGuildMarkMgr@@@std@@@std@@@2@0@Z
_TEXT	SEGMENT
___$ReturnUdt$ = 8					; size = 4
__First_arg$ = 12					; size = 4
__Cat$514312 = 16					; size = 1
__Last_arg$ = 16					; size = 4
?erase@?$vector@PAUCustomMarkData@ioGuildMarkMgr@@V?$allocator@PAUCustomMarkData@ioGuildMarkMgr@@@std@@@std@@QAE?AV?$_Vector_iterator@V?$_Vector_val@PAUCustomMarkData@ioGuildMarkMgr@@V?$allocator@PAUCustomMarkData@ioGuildMarkMgr@@@std@@@std@@@2@V?$_Vector_const_iterator@V?$_Vector_val@PAUCustomMarkData@ioGuildMarkMgr@@V?$allocator@PAUCustomMarkData@ioGuildMarkMgr@@@std@@@std@@@2@0@Z PROC ; std::vector<ioGuildMarkMgr::CustomMarkData *,std::allocator<ioGuildMarkMgr::CustomMarkData *> >::erase, COMDAT
; _this$ = ecx

; 1190 : 		{	// erase [_First, _Last)

  00000	55		 push	 ebp
  00001	8b ec		 mov	 ebp, esp

; 1191 : 		iterator _First = _Make_iter(_First_arg);

  00003	8b 45 0c	 mov	 eax, DWORD PTR __First_arg$[ebp]
  00006	56		 push	 esi
  00007	57		 push	 edi
  00008	8b 7d 08	 mov	 edi, DWORD PTR ___$ReturnUdt$[ebp]
  0000b	8b f1		 mov	 esi, ecx
  0000d	89 07		 mov	 DWORD PTR [edi], eax

; 1192 : 		iterator _Last = _Make_iter(_Last_arg);
; 1193 : 
; 1194 : 		if (_First != _Last)

  0000f	3b 45 10	 cmp	 eax, DWORD PTR __Last_arg$[ebp]
  00012	74 16		 je	 SHORT $LN1@erase

; 1195 : 			{	// worth doing, copy down over hole
; 1196 :  #if _ITERATOR_DEBUG_LEVEL == 2
; 1197 : 			if (_Last < _First || _VICONT(_First) != this
; 1198 : 				|| _VIPTR(_First) < this->_Myfirst
; 1199 : 				|| this->_Mylast < _VIPTR(_Last))
; 1200 : 				_DEBUG_ERROR("vector erase iterator outside range");
; 1201 : 			pointer _Ptr = _Move(_VIPTR(_Last), this->_Mylast,
; 1202 : 				_VIPTR(_First));
; 1203 : 			_Orphan_range(_VIPTR(_First), this->_Mylast);
; 1204 : 
; 1205 :  #else /* _ITERATOR_DEBUG_LEVEL == 2 */
; 1206 : 			pointer _Ptr = _Move(_VIPTR(_Last), this->_Mylast,
; 1207 : 				_VIPTR(_First));

  00014	ff 75 10	 push	 DWORD PTR __Cat$514312[ebp]
  00017	8b 4e 04	 mov	 ecx, DWORD PTR [esi+4]
  0001a	50		 push	 eax
  0001b	51		 push	 ecx
  0001c	ff 75 10	 push	 DWORD PTR __Last_arg$[ebp]
  0001f	e8 00 00 00 00	 call	 ??$_Move@PAPAUCustomMarkData@ioGuildMarkMgr@@PAPAU12@@std@@YAPAPAUCustomMarkData@ioGuildMarkMgr@@PAPAU12@00U_Scalar_ptr_iterator_tag@0@@Z ; std::_Move<ioGuildMarkMgr::CustomMarkData * *,ioGuildMarkMgr::CustomMarkData * *>
  00024	83 c4 10	 add	 esp, 16			; 00000010H

; 1208 :  #endif /* _ITERATOR_DEBUG_LEVEL == 2 */
; 1209 : 
; 1210 : 			_Destroy(_Ptr, this->_Mylast);
; 1211 : 			this->_Mylast = _Ptr;

  00027	89 46 04	 mov	 DWORD PTR [esi+4], eax
$LN1@erase:

; 1212 : 			}
; 1213 : 		return (_First);

  0002a	8b c7		 mov	 eax, edi
  0002c	5f		 pop	 edi
  0002d	5e		 pop	 esi

; 1214 : 		}

  0002e	5d		 pop	 ebp
  0002f	c2 0c 00	 ret	 12			; 0000000cH
?erase@?$vector@PAUCustomMarkData@ioGuildMarkMgr@@V?$allocator@PAUCustomMarkData@ioGuildMarkMgr@@@std@@@std@@QAE?AV?$_Vector_iterator@V?$_Vector_val@PAUCustomMarkData@ioGuildMarkMgr@@V?$allocator@PAUCustomMarkData@ioGuildMarkMgr@@@std@@@std@@@2@V?$_Vector_const_iterator@V?$_Vector_val@PAUCustomMarkData@ioGuildMarkMgr@@V?$allocator@PAUCustomMarkData@ioGuildMarkMgr@@@std@@@std@@@2@0@Z ENDP ; std::vector<ioGuildMarkMgr::CustomMarkData *,std::allocator<ioGuildMarkMgr::CustomMarkData *> >::erase
_TEXT	ENDS
PUBLIC	?reserve@?$vector@PAUCustomMarkData@ioGuildMarkMgr@@V?$allocator@PAUCustomMarkData@ioGuildMarkMgr@@@std@@@std@@QAEXI@Z ; std::vector<ioGuildMarkMgr::CustomMarkData *,std::allocator<ioGuildMarkMgr::CustomMarkData *> >::reserve
; Function compile flags: /Ogsp
;	COMDAT ?reserve@?$vector@PAUCustomMarkData@ioGuildMarkMgr@@V?$allocator@PAUCustomMarkData@ioGuildMarkMgr@@@std@@@std@@QAEXI@Z
_TEXT	SEGMENT
__Count$ = 8						; size = 4
?reserve@?$vector@PAUCustomMarkData@ioGuildMarkMgr@@V?$allocator@PAUCustomMarkData@ioGuildMarkMgr@@@std@@@std@@QAEXI@Z PROC ; std::vector<ioGuildMarkMgr::CustomMarkData *,std::allocator<ioGuildMarkMgr::CustomMarkData *> >::reserve, COMDAT
; _this$ = ecx

; 746  : 		{	// determine new minimum length of allocated storage

  00000	55		 push	 ebp
  00001	8b ec		 mov	 ebp, esp

; 747  : 		if (max_size() < _Count)

  00003	81 7d 08 ff ff
	ff 3f		 cmp	 DWORD PTR __Count$[ebp], 1073741823 ; 3fffffffH
  0000a	56		 push	 esi
  0000b	8b f1		 mov	 esi, ecx
  0000d	76 0b		 jbe	 SHORT $LN5@reserve

; 748  : 			_Xlen();	// result too long

  0000f	68 00 00 00 00	 push	 OFFSET ??_C@_0BD@OLBABOEK@vector?$DMT?$DO?5too?5long?$AA@
  00014	ff 15 00 00 00
	00		 call	 DWORD PTR __imp_?_Xlength_error@std@@YAXPBD@Z
$LN43@reserve:
$LN5@reserve:

; 749  : 		else if (capacity() < _Count)

  0001a	8b 46 08	 mov	 eax, DWORD PTR [esi+8]
  0001d	2b 06		 sub	 eax, DWORD PTR [esi]
  0001f	c1 f8 02	 sar	 eax, 2
  00022	3b 45 08	 cmp	 eax, DWORD PTR __Count$[ebp]
  00025	73 52		 jae	 SHORT $LN3@reserve

; 750  : 			{	// not enough room, reallocate
; 751  : 			pointer _Ptr = this->_Alval.allocate(_Count);

  00027	53		 push	 ebx
  00028	57		 push	 edi
  00029	6a 00		 push	 0
  0002b	ff 75 08	 push	 DWORD PTR __Count$[ebp]
  0002e	e8 00 00 00 00	 call	 ??$_Allocate@PAUCustomMarkData@ioGuildMarkMgr@@@std@@YAPAPAUCustomMarkData@ioGuildMarkMgr@@IPAPAU12@@Z ; std::_Allocate<ioGuildMarkMgr::CustomMarkData *>

; 752  : 
; 753  : 			_TRY_BEGIN
; 754  : 			_Umove(this->_Myfirst, this->_Mylast, _Ptr);

  00033	8b 0e		 mov	 ecx, DWORD PTR [esi]
  00035	8d 56 0c	 lea	 edx, DWORD PTR [esi+12]
  00038	52		 push	 edx
  00039	8b d8		 mov	 ebx, eax
  0003b	8b 46 04	 mov	 eax, DWORD PTR [esi+4]
  0003e	53		 push	 ebx
  0003f	50		 push	 eax
  00040	51		 push	 ecx
  00041	e8 00 00 00 00	 call	 ??$_Uninitialized_move@PAPAUCustomMarkData@ioGuildMarkMgr@@PAPAU12@V?$allocator@PAUCustomMarkData@ioGuildMarkMgr@@@std@@@std@@YAPAPAUCustomMarkData@ioGuildMarkMgr@@PAPAU12@00AAV?$allocator@PAUCustomMarkData@ioGuildMarkMgr@@@0@@Z ; std::_Uninitialized_move<ioGuildMarkMgr::CustomMarkData * *,ioGuildMarkMgr::CustomMarkData * *,std::allocator<ioGuildMarkMgr::CustomMarkData *> >

; 755  : 			_CATCH_ALL
; 756  : 			this->_Alval.deallocate(_Ptr, _Count);
; 757  : 			_RERAISE;
; 758  : 			_CATCH_END
; 759  : 
; 760  : 			size_type _Size = size();

  00046	8b 06		 mov	 eax, DWORD PTR [esi]
  00048	8b 7e 04	 mov	 edi, DWORD PTR [esi+4]
  0004b	2b f8		 sub	 edi, eax
  0004d	83 c4 18	 add	 esp, 24			; 00000018H
  00050	c1 ff 02	 sar	 edi, 2

; 761  : 			if (this->_Myfirst != 0)

  00053	85 c0		 test	 eax, eax
  00055	74 07		 je	 SHORT $LN39@reserve

; 762  : 				{	// destroy and deallocate old array
; 763  : 				_Destroy(this->_Myfirst, this->_Mylast);
; 764  : 				this->_Alval.deallocate(this->_Myfirst,
; 765  : 					this->_Myend - this->_Myfirst);

  00057	50		 push	 eax
  00058	e8 00 00 00 00	 call	 ??3@YAXPAX@Z		; operator delete
  0005d	59		 pop	 ecx
$LN39@reserve:

; 766  : 				}
; 767  : 
; 768  : 			this->_Orphan_all();

  0005e	8b ce		 mov	 ecx, esi
  00060	ff 15 00 00 00
	00		 call	 DWORD PTR __imp_?_Orphan_all@_Container_base0@std@@QAEXXZ

; 769  : 			this->_Myend = _Ptr + _Count;

  00066	8b 45 08	 mov	 eax, DWORD PTR __Count$[ebp]
  00069	8d 04 83	 lea	 eax, DWORD PTR [ebx+eax*4]
  0006c	89 46 08	 mov	 DWORD PTR [esi+8], eax

; 770  : 			this->_Mylast = _Ptr + _Size;

  0006f	8d 04 bb	 lea	 eax, DWORD PTR [ebx+edi*4]
  00072	5f		 pop	 edi

; 771  : 			this->_Myfirst = _Ptr;

  00073	89 1e		 mov	 DWORD PTR [esi], ebx
  00075	89 46 04	 mov	 DWORD PTR [esi+4], eax
  00078	5b		 pop	 ebx
$LN3@reserve:
  00079	5e		 pop	 esi

; 772  : 			}
; 773  : 		}

  0007a	5d		 pop	 ebp
  0007b	c2 04 00	 ret	 4
$LN42@reserve:
?reserve@?$vector@PAUCustomMarkData@ioGuildMarkMgr@@V?$allocator@PAUCustomMarkData@ioGuildMarkMgr@@@std@@@std@@QAEXI@Z ENDP ; std::vector<ioGuildMarkMgr::CustomMarkData *,std::allocator<ioGuildMarkMgr::CustomMarkData *> >::reserve
_TEXT	ENDS
PUBLIC	?clear@?$list@KV?$allocator@K@std@@@std@@QAEXXZ	; std::list<unsigned long,std::allocator<unsigned long> >::clear
; Function compile flags: /Ogsp
; File c:\program files (x86)\microsoft visual studio 10.0\vc\include\list
;	COMDAT ?clear@?$list@KV?$allocator@K@std@@@std@@QAEXXZ
_TEXT	SEGMENT
?clear@?$list@KV?$allocator@K@std@@@std@@QAEXXZ PROC	; std::list<unsigned long,std::allocator<unsigned long> >::clear, COMDAT
; _this$ = ecx

; 1096 : 		{	// erase all

  00000	56		 push	 esi
  00001	8b f1		 mov	 esi, ecx

; 1097 :  #if _ITERATOR_DEBUG_LEVEL == 2
; 1098 : 		this->_Orphan_ptr(*this, 0);
; 1099 :  #endif /* _ITERATOR_DEBUG_LEVEL == 2 */
; 1100 : 
; 1101 : 		_Nodeptr _Pnext;
; 1102 : 		_Nodeptr _Pnode = this->_Nextnode(this->_Myhead);

  00003	8b 06		 mov	 eax, DWORD PTR [esi]
  00005	8b 08		 mov	 ecx, DWORD PTR [eax]

; 1103 : 		this->_Nextnode(this->_Myhead) = this->_Myhead;

  00007	89 00		 mov	 DWORD PTR [eax], eax

; 1104 : 		this->_Prevnode(this->_Myhead) = this->_Myhead;

  00009	8b 06		 mov	 eax, DWORD PTR [esi]
  0000b	89 40 04	 mov	 DWORD PTR [eax+4], eax

; 1105 : 		this->_Mysize = 0;

  0000e	83 66 04 00	 and	 DWORD PTR [esi+4], 0

; 1106 : 
; 1107 : 		for (; _Pnode != this->_Myhead; _Pnode = _Pnext)

  00012	3b 0e		 cmp	 ecx, DWORD PTR [esi]
  00014	74 11		 je	 SHORT $LN1@clear
  00016	57		 push	 edi
$LL3@clear:

; 1108 : 			{	// delete an element
; 1109 : 			_Pnext = this->_Nextnode(_Pnode);

  00017	8b 39		 mov	 edi, DWORD PTR [ecx]

; 1110 : 
; 1111 : 			_Dest_val(this->_Alnod, _Pnode);
; 1112 : 			this->_Alnod.deallocate(_Pnode, 1);

  00019	51		 push	 ecx
  0001a	e8 00 00 00 00	 call	 ??3@YAXPAX@Z		; operator delete
  0001f	59		 pop	 ecx
  00020	8b cf		 mov	 ecx, edi
  00022	3b 3e		 cmp	 edi, DWORD PTR [esi]
  00024	75 f1		 jne	 SHORT $LL3@clear
  00026	5f		 pop	 edi
$LN1@clear:
  00027	5e		 pop	 esi

; 1113 : 			}
; 1114 : 		}

  00028	c3		 ret	 0
?clear@?$list@KV?$allocator@K@std@@@std@@QAEXXZ ENDP	; std::list<unsigned long,std::allocator<unsigned long> >::clear
_TEXT	ENDS
PUBLIC	?_Buynode@?$_List_val@KV?$allocator@K@std@@@std@@QAEPAU_Node@?$_List_nod@KV?$allocator@K@std@@@2@PAU342@0ABK@Z ; std::_List_val<unsigned long,std::allocator<unsigned long> >::_Buynode
; Function compile flags: /Ogsp
;	COMDAT ?_Buynode@?$_List_val@KV?$allocator@K@std@@@std@@QAEPAU_Node@?$_List_nod@KV?$allocator@K@std@@@2@PAU342@0ABK@Z
_TEXT	SEGMENT
$T514496 = -12						; size = 12
$T514474 = 8						; size = 4
__Next$ = 8						; size = 4
__Prev$ = 12						; size = 4
__Val$ = 16						; size = 4
?_Buynode@?$_List_val@KV?$allocator@K@std@@@std@@QAEPAU_Node@?$_List_nod@KV?$allocator@K@std@@@2@PAU342@0ABK@Z PROC ; std::_List_val<unsigned long,std::allocator<unsigned long> >::_Buynode, COMDAT
; _this$ = ecx

; 507  : 		{	// allocate a node and set links and value

  00000	55		 push	 ebp
  00001	8b ec		 mov	 ebp, esp
  00003	83 ec 0c	 sub	 esp, 12			; 0000000cH

; 508  : 		_Nodeptr _Pnode = this->_Alnod.allocate(1);

  00006	6a 0c		 push	 12			; 0000000cH
  00008	e8 00 00 00 00	 call	 ??2@YAPAXI@Z		; operator new
  0000d	59		 pop	 ecx
  0000e	85 c0		 test	 eax, eax
  00010	74 1d		 je	 SHORT $LN10@Buynode@2

; 509  : 
; 510  : 		_TRY_BEGIN
; 511  : 		this->_Nextnode(_Pnode) = _Next;

  00012	8b 4d 08	 mov	 ecx, DWORD PTR __Next$[ebp]
  00015	89 08		 mov	 DWORD PTR [eax], ecx

; 512  : 		this->_Prevnode(_Pnode) = _Prev;

  00017	8b 4d 0c	 mov	 ecx, DWORD PTR __Prev$[ebp]
  0001a	89 48 04	 mov	 DWORD PTR [eax+4], ecx

; 513  : 		_Cons_val(this->_Alval, _STD addressof(this->_Myval(_Pnode)), _Val);

  0001d	8d 48 08	 lea	 ecx, DWORD PTR [eax+8]
  00020	85 c9		 test	 ecx, ecx
  00022	74 07		 je	 SHORT $LN2@Buynode@2
  00024	8b 55 10	 mov	 edx, DWORD PTR __Val$[ebp]
  00027	8b 12		 mov	 edx, DWORD PTR [edx]
  00029	89 11		 mov	 DWORD PTR [ecx], edx
$LN2@Buynode@2:

; 514  : 		_CATCH_ALL
; 515  : 		this->_Alnod.deallocate(_Pnode, 1);
; 516  : 		_RERAISE;
; 517  : 		_CATCH_END
; 518  : 
; 519  : 		return (_Pnode);
; 520  : 		}

  0002b	c9		 leave
  0002c	c2 0c 00	 ret	 12			; 0000000cH

; 508  : 		_Nodeptr _Pnode = this->_Alnod.allocate(1);

$LN10@Buynode@2:
  0002f	83 65 08 00	 and	 DWORD PTR $T514474[ebp], 0
  00033	8d 45 08	 lea	 eax, DWORD PTR $T514474[ebp]
  00036	50		 push	 eax
  00037	8d 4d f4	 lea	 ecx, DWORD PTR $T514496[ebp]
  0003a	ff 15 00 00 00
	00		 call	 DWORD PTR __imp_??0exception@std@@QAE@ABQBD@Z
  00040	68 00 00 00 00	 push	 OFFSET __TI2?AVbad_alloc@std@@
  00045	8d 45 f4	 lea	 eax, DWORD PTR $T514496[ebp]
  00048	50		 push	 eax
  00049	c7 45 f4 00 00
	00 00		 mov	 DWORD PTR $T514496[ebp], OFFSET ??_7bad_alloc@std@@6B@
  00050	e8 00 00 00 00	 call	 __CxxThrowException@8
$LN46@Buynode@2:
$LN45@Buynode@2:
  00055	cc		 int	 3
?_Buynode@?$_List_val@KV?$allocator@K@std@@@std@@QAEPAU_Node@?$_List_nod@KV?$allocator@K@std@@@2@PAU342@0ABK@Z ENDP ; std::_List_val<unsigned long,std::allocator<unsigned long> >::_Buynode
_TEXT	ENDS
PUBLIC	??_C@_0BM@PAPJHAGI@invalid?5map?1set?$DMT?$DO?5iterator?$AA@ ; `string'
PUBLIC	?erase@?$_Tree@V?$_Tmap_traits@KPAVioUIRenderImage@@U?$less@K@std@@V?$allocator@U?$pair@$$CBKPAVioUIRenderImage@@@std@@@3@$0A@@std@@@std@@QAE?AV?$_Tree_iterator@V?$_Tree_val@V?$_Tmap_traits@KPAVioUIRenderImage@@U?$less@K@std@@V?$allocator@U?$pair@$$CBKPAVioUIRenderImage@@@std@@@3@$0A@@std@@@std@@@2@V?$_Tree_const_iterator@V?$_Tree_val@V?$_Tmap_traits@KPAVioUIRenderImage@@U?$less@K@std@@V?$allocator@U?$pair@$$CBKPAVioUIRenderImage@@@std@@@3@$0A@@std@@@std@@@2@@Z ; std::_Tree<std::_Tmap_traits<unsigned long,ioUIRenderImage *,std::less<unsigned long>,std::allocator<std::pair<unsigned long const ,ioUIRenderImage *> >,0> >::erase
EXTRN	__imp_?_Xout_of_range@std@@YAXPBD@Z:PROC
;	COMDAT ??_C@_0BM@PAPJHAGI@invalid?5map?1set?$DMT?$DO?5iterator?$AA@
; File c:\program files (x86)\microsoft visual studio 10.0\vc\include\xutility
CONST	SEGMENT
??_C@_0BM@PAPJHAGI@invalid?5map?1set?$DMT?$DO?5iterator?$AA@ DB 'invalid '
	DB	'map/set<T> iterator', 00H			; `string'
; Function compile flags: /Ogsp
; File c:\program files (x86)\microsoft visual studio 10.0\vc\include\xtree
CONST	ENDS
;	COMDAT ?erase@?$_Tree@V?$_Tmap_traits@KPAVioUIRenderImage@@U?$less@K@std@@V?$allocator@U?$pair@$$CBKPAVioUIRenderImage@@@std@@@3@$0A@@std@@@std@@QAE?AV?$_Tree_iterator@V?$_Tree_val@V?$_Tmap_traits@KPAVioUIRenderImage@@U?$less@K@std@@V?$allocator@U?$pair@$$CBKPAVioUIRenderImage@@@std@@@3@$0A@@std@@@std@@@2@V?$_Tree_const_iterator@V?$_Tree_val@V?$_Tmap_traits@KPAVioUIRenderImage@@U?$less@K@std@@V?$allocator@U?$pair@$$CBKPAVioUIRenderImage@@@std@@@3@$0A@@std@@@std@@@2@@Z
_TEXT	SEGMENT
_this$ = -4						; size = 4
___$ReturnUdt$ = 8					; size = 4
__Where$ = 12						; size = 4
?erase@?$_Tree@V?$_Tmap_traits@KPAVioUIRenderImage@@U?$less@K@std@@V?$allocator@U?$pair@$$CBKPAVioUIRenderImage@@@std@@@3@$0A@@std@@@std@@QAE?AV?$_Tree_iterator@V?$_Tree_val@V?$_Tmap_traits@KPAVioUIRenderImage@@U?$less@K@std@@V?$allocator@U?$pair@$$CBKPAVioUIRenderImage@@@std@@@3@$0A@@std@@@std@@@2@V?$_Tree_const_iterator@V?$_Tree_val@V?$_Tmap_traits@KPAVioUIRenderImage@@U?$less@K@std@@V?$allocator@U?$pair@$$CBKPAVioUIRenderImage@@@std@@@3@$0A@@std@@@std@@@2@@Z PROC ; std::_Tree<std::_Tmap_traits<unsigned long,ioUIRenderImage *,std::less<unsigned long>,std::allocator<std::pair<unsigned long const ,ioUIRenderImage *> >,0> >::erase, COMDAT
; _this$ = ecx

; 1195 : 		{	// erase element at _Where

  00000	55		 push	 ebp
  00001	8b ec		 mov	 ebp, esp
  00003	51		 push	 ecx
  00004	53		 push	 ebx

; 1196 :  #if _ITERATOR_DEBUG_LEVEL == 2
; 1197 : 		if (_Where._Getcont() != this || this->_Isnil(_Where._Mynode()))
; 1198 : 			_DEBUG_ERROR("map/set erase iterator outside range");
; 1199 : 		_Nodeptr _Erasednode = _Where._Mynode();	// node to erase
; 1200 : 		++_Where;	// save successor iterator for return
; 1201 : 		_Orphan_ptr(*this, _Erasednode);
; 1202 : 
; 1203 :  #else /* _ITERATOR_DEBUG_LEVEL == 2 */
; 1204 : 		if (this->_Isnil(_Where._Mynode()))

  00005	8b 5d 0c	 mov	 ebx, DWORD PTR __Where$[ebp]
  00008	80 7b 15 00	 cmp	 BYTE PTR [ebx+21], 0
  0000c	56		 push	 esi
  0000d	57		 push	 edi
  0000e	89 4d fc	 mov	 DWORD PTR _this$[ebp], ecx
  00011	74 0b		 je	 SHORT $LN40@erase@2

; 1205 : 			_Xout_of_range("invalid map/set<T> iterator");

  00013	68 00 00 00 00	 push	 OFFSET ??_C@_0BM@PAPJHAGI@invalid?5map?1set?$DMT?$DO?5iterator?$AA@
  00018	ff 15 00 00 00
	00		 call	 DWORD PTR __imp_?_Xout_of_range@std@@YAXPBD@Z
$LN329@erase@2:
$LN40@erase@2:

; 1206 : 		_Nodeptr _Erasednode = _Where._Mynode();	// node to erase
; 1207 : 		++_Where;	// save successor iterator for return

  0001e	8d 4d 0c	 lea	 ecx, DWORD PTR __Where$[ebp]
  00021	e8 00 00 00 00	 call	 ??E?$_Tree_unchecked_const_iterator@V?$_Tree_val@V?$_Tmap_traits@KPAVioUIRenderImage@@U?$less@K@std@@V?$allocator@U?$pair@$$CBKPAVioUIRenderImage@@@std@@@3@$0A@@std@@@std@@U_Iterator_base0@2@@std@@QAEAAV01@XZ ; std::_Tree_unchecked_const_iterator<std::_Tree_val<std::_Tmap_traits<unsigned long,ioUIRenderImage *,std::less<unsigned long>,std::allocator<std::pair<unsigned long const ,ioUIRenderImage *> >,0> >,std::_Iterator_base0>::operator++

; 1208 :  #endif /* _ITERATOR_DEBUG_LEVEL == 2 */
; 1209 : 
; 1210 : 		_Nodeptr _Fixnode;	// the node to recolor as needed
; 1211 : 		_Nodeptr _Fixnodeparent;	// parent of _Fixnode (which may be nil)
; 1212 : 		_Nodeptr _Pnode = _Erasednode;
; 1213 : 
; 1214 : 		if (this->_Isnil(this->_Left(_Pnode)))

  00026	8b 13		 mov	 edx, DWORD PTR [ebx]
  00028	80 7a 15 00	 cmp	 BYTE PTR [edx+21], 0
  0002c	74 05		 je	 SHORT $LN39@erase@2

; 1215 : 			_Fixnode = this->_Right(_Pnode);	// stitch up right subtree

  0002e	8b 7b 08	 mov	 edi, DWORD PTR [ebx+8]

; 1216 : 		else if (this->_Isnil(this->_Right(_Pnode)))

  00031	eb 17		 jmp	 SHORT $LN321@erase@2
$LN39@erase@2:
  00033	8b 43 08	 mov	 eax, DWORD PTR [ebx+8]
  00036	80 78 15 00	 cmp	 BYTE PTR [eax+21], 0
  0003a	74 04		 je	 SHORT $LN37@erase@2

; 1217 : 			_Fixnode = this->_Left(_Pnode);	// stitch up left subtree

  0003c	8b fa		 mov	 edi, edx

; 1218 : 		else

  0003e	eb 0a		 jmp	 SHORT $LN321@erase@2
$LN37@erase@2:

; 1219 : 			{	// two subtrees, must lift successor node to replace erased
; 1220 : 			_Pnode = _Where._Mynode();	// _Pnode is successor node

  00040	8b 45 0c	 mov	 eax, DWORD PTR __Where$[ebp]

; 1221 : 			_Fixnode = this->_Right(_Pnode);	// _Fixnode is only subtree

  00043	8b 78 08	 mov	 edi, DWORD PTR [eax+8]

; 1222 : 			}
; 1223 : 
; 1224 : 		if (_Pnode == _Erasednode)

  00046	3b c3		 cmp	 eax, ebx
  00048	75 76		 jne	 SHORT $LN35@erase@2
$LN321@erase@2:

; 1225 : 			{	// at most one subtree, relink it
; 1226 : 			_Fixnodeparent = this->_Parent(_Erasednode);
; 1227 : 			if (!this->_Isnil(_Fixnode))

  0004a	80 7f 15 00	 cmp	 BYTE PTR [edi+21], 0
  0004e	8b 73 04	 mov	 esi, DWORD PTR [ebx+4]
  00051	75 03		 jne	 SHORT $LN34@erase@2

; 1228 : 				this->_Parent(_Fixnode) = _Fixnodeparent;	// link up

  00053	89 77 04	 mov	 DWORD PTR [edi+4], esi
$LN34@erase@2:

; 1229 : 
; 1230 : 			if (_Root() == _Erasednode)

  00056	8b 4d fc	 mov	 ecx, DWORD PTR _this$[ebp]
  00059	8b 41 04	 mov	 eax, DWORD PTR [ecx+4]
  0005c	39 58 04	 cmp	 DWORD PTR [eax+4], ebx
  0005f	75 05		 jne	 SHORT $LN33@erase@2

; 1231 : 				_Root() = _Fixnode;	// link down from root

  00061	89 78 04	 mov	 DWORD PTR [eax+4], edi

; 1232 : 			else if (this->_Left(_Fixnodeparent) == _Erasednode)

  00064	eb 0b		 jmp	 SHORT $LN30@erase@2
$LN33@erase@2:
  00066	39 1e		 cmp	 DWORD PTR [esi], ebx
  00068	75 04		 jne	 SHORT $LN31@erase@2

; 1233 : 				this->_Left(_Fixnodeparent) = _Fixnode;	// link down to left

  0006a	89 3e		 mov	 DWORD PTR [esi], edi

; 1234 : 			else

  0006c	eb 03		 jmp	 SHORT $LN30@erase@2
$LN31@erase@2:

; 1235 : 				this->_Right(_Fixnodeparent) =
; 1236 : 					_Fixnode;	// link down to right

  0006e	89 7e 08	 mov	 DWORD PTR [esi+8], edi
$LN30@erase@2:

; 1237 : 
; 1238 : 			if (_Lmost() == _Erasednode)

  00071	8b 49 04	 mov	 ecx, DWORD PTR [ecx+4]
  00074	39 19		 cmp	 DWORD PTR [ecx], ebx
  00076	75 1c		 jne	 SHORT $LN29@erase@2

; 1239 : 				_Lmost() = this->_Isnil(_Fixnode)
; 1240 : 					? _Fixnodeparent	// smallest is parent of erased node
; 1241 : 					: this->_Min(_Fixnode);	// smallest in relinked subtree

  00078	80 7f 15 00	 cmp	 BYTE PTR [edi+21], 0
  0007c	74 04		 je	 SHORT $LN43@erase@2
  0007e	8b d6		 mov	 edx, esi
  00080	eb 10		 jmp	 SHORT $LN97@erase@2
$LN43@erase@2:
  00082	8b 07		 mov	 eax, DWORD PTR [edi]
  00084	8b d7		 mov	 edx, edi
  00086	eb 04		 jmp	 SHORT $LN323@erase@2
$LL98@erase@2:
  00088	8b d0		 mov	 edx, eax
  0008a	8b 02		 mov	 eax, DWORD PTR [edx]
$LN323@erase@2:
  0008c	80 78 15 00	 cmp	 BYTE PTR [eax+21], 0
  00090	74 f6		 je	 SHORT $LL98@erase@2
$LN97@erase@2:
  00092	89 11		 mov	 DWORD PTR [ecx], edx
$LN29@erase@2:

; 1242 : 
; 1243 : 			if (_Rmost() == _Erasednode)

  00094	8b 45 fc	 mov	 eax, DWORD PTR _this$[ebp]
  00097	8b 48 04	 mov	 ecx, DWORD PTR [eax+4]
  0009a	39 59 08	 cmp	 DWORD PTR [ecx+8], ebx
  0009d	75 7b		 jne	 SHORT $LN185@erase@2

; 1244 : 				_Rmost() = this->_Isnil(_Fixnode)
; 1245 : 					? _Fixnodeparent	// largest is parent of erased node
; 1246 : 					: this->_Max(_Fixnode);	// largest in relinked subtree

  0009f	80 7f 15 00	 cmp	 BYTE PTR [edi+21], 0
  000a3	74 04		 je	 SHORT $LN45@erase@2
  000a5	8b d6		 mov	 edx, esi
  000a7	eb 12		 jmp	 SHORT $LN117@erase@2
$LN45@erase@2:
  000a9	8b 47 08	 mov	 eax, DWORD PTR [edi+8]
  000ac	8b d7		 mov	 edx, edi
  000ae	eb 05		 jmp	 SHORT $LN324@erase@2
$LL118@erase@2:
  000b0	8b d0		 mov	 edx, eax
  000b2	8b 42 08	 mov	 eax, DWORD PTR [edx+8]
$LN324@erase@2:
  000b5	80 78 15 00	 cmp	 BYTE PTR [eax+21], 0
  000b9	74 f5		 je	 SHORT $LL118@erase@2
$LN117@erase@2:
  000bb	89 51 08	 mov	 DWORD PTR [ecx+8], edx

; 1247 : 			}
; 1248 : 		else

  000be	eb 5a		 jmp	 SHORT $LN185@erase@2
$LN35@erase@2:

; 1249 : 			{	// erased has two subtrees, _Pnode is successor to erased
; 1250 : 			this->_Parent(this->_Left(_Erasednode)) =
; 1251 : 				_Pnode;	// link left up

  000c0	89 42 04	 mov	 DWORD PTR [edx+4], eax

; 1252 : 			this->_Left(_Pnode) =
; 1253 : 				this->_Left(_Erasednode);	// link successor down

  000c3	8b 13		 mov	 edx, DWORD PTR [ebx]
  000c5	89 10		 mov	 DWORD PTR [eax], edx

; 1254 : 
; 1255 : 			if (_Pnode == this->_Right(_Erasednode))

  000c7	3b 43 08	 cmp	 eax, DWORD PTR [ebx+8]
  000ca	75 04		 jne	 SHORT $LN26@erase@2

; 1256 : 				_Fixnodeparent = _Pnode;	// successor is next to erased

  000cc	8b f0		 mov	 esi, eax

; 1257 : 			else

  000ce	eb 1a		 jmp	 SHORT $LN25@erase@2
$LN26@erase@2:

; 1258 : 				{	// successor further down, link in place of erased
; 1259 : 				_Fixnodeparent =
; 1260 : 					this->_Parent(_Pnode);	// parent is successor's
; 1261 : 				if (!this->_Isnil(_Fixnode))

  000d0	80 7f 15 00	 cmp	 BYTE PTR [edi+21], 0
  000d4	8b 70 04	 mov	 esi, DWORD PTR [eax+4]
  000d7	75 03		 jne	 SHORT $LN24@erase@2

; 1262 : 					this->_Parent(_Fixnode) = _Fixnodeparent;	// link fix up

  000d9	89 77 04	 mov	 DWORD PTR [edi+4], esi
$LN24@erase@2:

; 1263 : 				this->_Left(_Fixnodeparent) = _Fixnode;	// link fix down

  000dc	89 3e		 mov	 DWORD PTR [esi], edi

; 1264 : 				this->_Right(_Pnode) =
; 1265 : 					this->_Right(_Erasednode);	// link next down

  000de	8b 53 08	 mov	 edx, DWORD PTR [ebx+8]
  000e1	89 50 08	 mov	 DWORD PTR [eax+8], edx

; 1266 : 				this->_Parent(this->_Right(_Erasednode)) =
; 1267 : 					_Pnode;	// right up

  000e4	8b 4b 08	 mov	 ecx, DWORD PTR [ebx+8]
  000e7	89 41 04	 mov	 DWORD PTR [ecx+4], eax
$LN25@erase@2:

; 1268 : 				}
; 1269 : 
; 1270 : 			if (_Root() == _Erasednode)

  000ea	8b 4d fc	 mov	 ecx, DWORD PTR _this$[ebp]
  000ed	8b 49 04	 mov	 ecx, DWORD PTR [ecx+4]
  000f0	39 59 04	 cmp	 DWORD PTR [ecx+4], ebx
  000f3	75 05		 jne	 SHORT $LN23@erase@2

; 1271 : 				_Root() = _Pnode;	// link down from root

  000f5	89 41 04	 mov	 DWORD PTR [ecx+4], eax

; 1272 : 			else if (this->_Left(this->_Parent(_Erasednode)) == _Erasednode)

  000f8	eb 0e		 jmp	 SHORT $LN20@erase@2
$LN23@erase@2:
  000fa	8b 4b 04	 mov	 ecx, DWORD PTR [ebx+4]
  000fd	39 19		 cmp	 DWORD PTR [ecx], ebx
  000ff	75 04		 jne	 SHORT $LN21@erase@2

; 1273 : 				this->_Left(this->_Parent(_Erasednode)) =
; 1274 : 					_Pnode;	// link down to left

  00101	89 01		 mov	 DWORD PTR [ecx], eax

; 1275 : 			else

  00103	eb 03		 jmp	 SHORT $LN20@erase@2
$LN21@erase@2:

; 1276 : 				this->_Right(this->_Parent(_Erasednode)) =
; 1277 : 					_Pnode;	// link down to right

  00105	89 41 08	 mov	 DWORD PTR [ecx+8], eax
$LN20@erase@2:

; 1278 : 
; 1279 : 			this->_Parent(_Pnode) =
; 1280 : 				this->_Parent(_Erasednode);	// link successor up

  00108	8b 4b 04	 mov	 ecx, DWORD PTR [ebx+4]
  0010b	89 48 04	 mov	 DWORD PTR [eax+4], ecx

; 1281 : 			_STD swap(this->_Color(_Pnode),
; 1282 : 				this->_Color(_Erasednode));	// recolor it

  0010e	8a 53 14	 mov	 dl, BYTE PTR [ebx+20]
  00111	8a 48 14	 mov	 cl, BYTE PTR [eax+20]
  00114	88 50 14	 mov	 BYTE PTR [eax+20], dl
  00117	88 4b 14	 mov	 BYTE PTR [ebx+20], cl
$LN185@erase@2:

; 1283 : 			}
; 1284 : 
; 1285 : 		if (this->_Color(_Erasednode) == this->_Black)

  0011a	80 7b 14 01	 cmp	 BYTE PTR [ebx+20], 1
  0011e	0f 85 03 01 00
	00		 jne	 $LN19@erase@2

; 1286 : 			{	// erasing black link, must recolor/rebalance tree
; 1287 : 			for (; _Fixnode != _Root()
; 1288 : 				&& this->_Color(_Fixnode) == this->_Black;
; 1289 : 				_Fixnodeparent = this->_Parent(_Fixnode))

  00124	e9 b2 00 00 00	 jmp	 $LN326@erase@2
$LL18@erase@2:
  00129	80 7f 14 01	 cmp	 BYTE PTR [edi+20], 1
  0012d	0f 85 f0 00 00
	00		 jne	 $LN16@erase@2

; 1290 : 				if (_Fixnode == this->_Left(_Fixnodeparent))

  00133	8b 06		 mov	 eax, DWORD PTR [esi]
  00135	3b f8		 cmp	 edi, eax
  00137	75 6c		 jne	 SHORT $LN15@erase@2

; 1291 : 					{	// fixup left subtree
; 1292 : 					_Pnode = this->_Right(_Fixnodeparent);

  00139	8b 46 08	 mov	 eax, DWORD PTR [esi+8]

; 1293 : 					if (this->_Color(_Pnode) == this->_Red)

  0013c	80 78 14 00	 cmp	 BYTE PTR [eax+20], 0
  00140	75 11		 jne	 SHORT $LN14@erase@2

; 1294 : 						{	// rotate red up from right subtree
; 1295 : 						this->_Color(_Pnode) = this->_Black;

  00142	c6 40 14 01	 mov	 BYTE PTR [eax+20], 1

; 1296 : 						this->_Color(_Fixnodeparent) = this->_Red;
; 1297 : 						_Lrotate(_Fixnodeparent);

  00146	56		 push	 esi
  00147	c6 46 14 00	 mov	 BYTE PTR [esi+20], 0
  0014b	e8 00 00 00 00	 call	 ?_Lrotate@?$_Tree@V?$_Tmap_traits@KPAVioUIRenderImage@@U?$less@K@std@@V?$allocator@U?$pair@$$CBKPAVioUIRenderImage@@@std@@@3@$0A@@std@@@std@@IAEXPAU_Node@?$_Tree_nod@V?$_Tmap_traits@KPAVioUIRenderImage@@U?$less@K@std@@V?$allocator@U?$pair@$$CBKPAVioUIRenderImage@@@std@@@3@$0A@@std@@@2@@Z ; std::_Tree<std::_Tmap_traits<unsigned long,ioUIRenderImage *,std::less<unsigned long>,std::allocator<std::pair<unsigned long const ,ioUIRenderImage *> >,0> >::_Lrotate

; 1298 : 						_Pnode = this->_Right(_Fixnodeparent);

  00150	8b 46 08	 mov	 eax, DWORD PTR [esi+8]
$LN14@erase@2:

; 1299 : 						}
; 1300 : 
; 1301 : 					if (this->_Isnil(_Pnode))

  00153	80 78 15 00	 cmp	 BYTE PTR [eax+21], 0

; 1302 : 						_Fixnode = _Fixnodeparent;	// shouldn't happen
; 1303 : 					else if (this->_Color(this->_Left(_Pnode)) == this->_Black

  00157	75 7d		 jne	 SHORT $LN327@erase@2

; 1304 : 						&& this->_Color(this->_Right(_Pnode)) == this->_Black)

  00159	8b 08		 mov	 ecx, DWORD PTR [eax]
  0015b	80 79 14 01	 cmp	 BYTE PTR [ecx+20], 1
  0015f	75 09		 jne	 SHORT $LN11@erase@2
  00161	8b 48 08	 mov	 ecx, DWORD PTR [eax+8]
  00164	80 79 14 01	 cmp	 BYTE PTR [ecx+20], 1
  00168	74 68		 je	 SHORT $LN328@erase@2
$LN11@erase@2:

; 1305 : 						{	// redden right subtree with black children
; 1306 : 						this->_Color(_Pnode) = this->_Red;
; 1307 : 						_Fixnode = _Fixnodeparent;
; 1308 : 						}
; 1309 : 					else
; 1310 : 						{	// must rearrange right subtree
; 1311 : 						if (this->_Color(this->_Right(_Pnode))
; 1312 : 							== this->_Black)

  0016a	8b 48 08	 mov	 ecx, DWORD PTR [eax+8]
  0016d	80 79 14 01	 cmp	 BYTE PTR [ecx+20], 1
  00171	75 16		 jne	 SHORT $LN9@erase@2

; 1313 : 							{	// rotate red up from left sub-subtree
; 1314 : 							this->_Color(this->_Left(_Pnode)) = this->_Black;

  00173	8b 08		 mov	 ecx, DWORD PTR [eax]
  00175	c6 41 14 01	 mov	 BYTE PTR [ecx+20], 1

; 1315 : 							this->_Color(_Pnode) = this->_Red;
; 1316 : 							_Rrotate(_Pnode);

  00179	8b 4d fc	 mov	 ecx, DWORD PTR _this$[ebp]
  0017c	50		 push	 eax
  0017d	c6 40 14 00	 mov	 BYTE PTR [eax+20], 0
  00181	e8 00 00 00 00	 call	 ?_Rrotate@?$_Tree@V?$_Tmap_traits@KPAVioUIRenderImage@@U?$less@K@std@@V?$allocator@U?$pair@$$CBKPAVioUIRenderImage@@@std@@@3@$0A@@std@@@std@@IAEXPAU_Node@?$_Tree_nod@V?$_Tmap_traits@KPAVioUIRenderImage@@U?$less@K@std@@V?$allocator@U?$pair@$$CBKPAVioUIRenderImage@@@std@@@3@$0A@@std@@@2@@Z ; std::_Tree<std::_Tmap_traits<unsigned long,ioUIRenderImage *,std::less<unsigned long>,std::allocator<std::pair<unsigned long const ,ioUIRenderImage *> >,0> >::_Rrotate

; 1317 : 							_Pnode = this->_Right(_Fixnodeparent);

  00186	8b 46 08	 mov	 eax, DWORD PTR [esi+8]
$LN9@erase@2:

; 1318 : 							}
; 1319 : 
; 1320 : 						this->_Color(_Pnode) = this->_Color(_Fixnodeparent);

  00189	8a 4e 14	 mov	 cl, BYTE PTR [esi+20]
  0018c	88 48 14	 mov	 BYTE PTR [eax+20], cl

; 1321 : 						this->_Color(_Fixnodeparent) = this->_Black;
; 1322 : 						this->_Color(this->_Right(_Pnode)) = this->_Black;
; 1323 : 						_Lrotate(_Fixnodeparent);

  0018f	8b 4d fc	 mov	 ecx, DWORD PTR _this$[ebp]
  00192	c6 46 14 01	 mov	 BYTE PTR [esi+20], 1
  00196	8b 40 08	 mov	 eax, DWORD PTR [eax+8]
  00199	56		 push	 esi
  0019a	c6 40 14 01	 mov	 BYTE PTR [eax+20], 1
  0019e	e8 00 00 00 00	 call	 ?_Lrotate@?$_Tree@V?$_Tmap_traits@KPAVioUIRenderImage@@U?$less@K@std@@V?$allocator@U?$pair@$$CBKPAVioUIRenderImage@@@std@@@3@$0A@@std@@@std@@IAEXPAU_Node@?$_Tree_nod@V?$_Tmap_traits@KPAVioUIRenderImage@@U?$less@K@std@@V?$allocator@U?$pair@$$CBKPAVioUIRenderImage@@@std@@@3@$0A@@std@@@2@@Z ; std::_Tree<std::_Tmap_traits<unsigned long,ioUIRenderImage *,std::less<unsigned long>,std::allocator<std::pair<unsigned long const ,ioUIRenderImage *> >,0> >::_Lrotate

; 1324 : 						break;	// tree now recolored/rebalanced

  001a3	eb 7e		 jmp	 SHORT $LN16@erase@2
$LN15@erase@2:

; 1325 : 						}
; 1326 : 					}
; 1327 : 				else
; 1328 : 					{	// fixup right subtree
; 1329 : 					_Pnode = this->_Left(_Fixnodeparent);
; 1330 : 					if (this->_Color(_Pnode) == this->_Red)

  001a5	80 78 14 00	 cmp	 BYTE PTR [eax+20], 0
  001a9	75 10		 jne	 SHORT $LN7@erase@2

; 1331 : 						{	// rotate red up from left subtree
; 1332 : 						this->_Color(_Pnode) = this->_Black;

  001ab	c6 40 14 01	 mov	 BYTE PTR [eax+20], 1

; 1333 : 						this->_Color(_Fixnodeparent) = this->_Red;
; 1334 : 						_Rrotate(_Fixnodeparent);

  001af	56		 push	 esi
  001b0	c6 46 14 00	 mov	 BYTE PTR [esi+20], 0
  001b4	e8 00 00 00 00	 call	 ?_Rrotate@?$_Tree@V?$_Tmap_traits@KPAVioUIRenderImage@@U?$less@K@std@@V?$allocator@U?$pair@$$CBKPAVioUIRenderImage@@@std@@@3@$0A@@std@@@std@@IAEXPAU_Node@?$_Tree_nod@V?$_Tmap_traits@KPAVioUIRenderImage@@U?$less@K@std@@V?$allocator@U?$pair@$$CBKPAVioUIRenderImage@@@std@@@3@$0A@@std@@@2@@Z ; std::_Tree<std::_Tmap_traits<unsigned long,ioUIRenderImage *,std::less<unsigned long>,std::allocator<std::pair<unsigned long const ,ioUIRenderImage *> >,0> >::_Rrotate

; 1335 : 						_Pnode = this->_Left(_Fixnodeparent);

  001b9	8b 06		 mov	 eax, DWORD PTR [esi]
$LN7@erase@2:

; 1336 : 						}
; 1337 : 					if (this->_Isnil(_Pnode))

  001bb	80 78 15 00	 cmp	 BYTE PTR [eax+21], 0

; 1338 : 						_Fixnode = _Fixnodeparent;	// shouldn't happen
; 1339 : 					else if (this->_Color(this->_Right(_Pnode)) ==

  001bf	75 15		 jne	 SHORT $LN327@erase@2

; 1340 : 						this->_Black
; 1341 : 						&& this->_Color(this->_Left(_Pnode)) == this->_Black)

  001c1	8b 48 08	 mov	 ecx, DWORD PTR [eax+8]
  001c4	80 79 14 01	 cmp	 BYTE PTR [ecx+20], 1
  001c8	75 22		 jne	 SHORT $LN4@erase@2
  001ca	8b 08		 mov	 ecx, DWORD PTR [eax]
  001cc	80 79 14 01	 cmp	 BYTE PTR [ecx+20], 1
  001d0	75 1a		 jne	 SHORT $LN4@erase@2
$LN328@erase@2:

; 1342 : 						{	// redden left subtree with black children
; 1343 : 						this->_Color(_Pnode) = this->_Red;

  001d2	c6 40 14 00	 mov	 BYTE PTR [eax+20], 0
$LN327@erase@2:

; 1344 : 						_Fixnode = _Fixnodeparent;

  001d6	8b fe		 mov	 edi, esi
  001d8	8b 76 04	 mov	 esi, DWORD PTR [esi+4]
$LN326@erase@2:

; 1286 : 			{	// erasing black link, must recolor/rebalance tree
; 1287 : 			for (; _Fixnode != _Root()
; 1288 : 				&& this->_Color(_Fixnode) == this->_Black;
; 1289 : 				_Fixnodeparent = this->_Parent(_Fixnode))

  001db	8b 4d fc	 mov	 ecx, DWORD PTR _this$[ebp]
  001de	8b 41 04	 mov	 eax, DWORD PTR [ecx+4]
  001e1	3b 78 04	 cmp	 edi, DWORD PTR [eax+4]
  001e4	0f 85 3f ff ff
	ff		 jne	 $LL18@erase@2
  001ea	eb 37		 jmp	 SHORT $LN16@erase@2
$LN4@erase@2:

; 1345 : 						}
; 1346 : 					else
; 1347 : 						{	// must rearrange left subtree
; 1348 : 						if (this->_Color(this->_Left(_Pnode)) == this->_Black)

  001ec	8b 08		 mov	 ecx, DWORD PTR [eax]
  001ee	80 79 14 01	 cmp	 BYTE PTR [ecx+20], 1
  001f2	75 16		 jne	 SHORT $LN2@erase@2

; 1349 : 							{	// rotate red up from right sub-subtree
; 1350 : 							this->_Color(this->_Right(_Pnode)) = this->_Black;

  001f4	8b 48 08	 mov	 ecx, DWORD PTR [eax+8]
  001f7	c6 41 14 01	 mov	 BYTE PTR [ecx+20], 1

; 1351 : 							this->_Color(_Pnode) = this->_Red;
; 1352 : 							_Lrotate(_Pnode);

  001fb	8b 4d fc	 mov	 ecx, DWORD PTR _this$[ebp]
  001fe	50		 push	 eax
  001ff	c6 40 14 00	 mov	 BYTE PTR [eax+20], 0
  00203	e8 00 00 00 00	 call	 ?_Lrotate@?$_Tree@V?$_Tmap_traits@KPAVioUIRenderImage@@U?$less@K@std@@V?$allocator@U?$pair@$$CBKPAVioUIRenderImage@@@std@@@3@$0A@@std@@@std@@IAEXPAU_Node@?$_Tree_nod@V?$_Tmap_traits@KPAVioUIRenderImage@@U?$less@K@std@@V?$allocator@U?$pair@$$CBKPAVioUIRenderImage@@@std@@@3@$0A@@std@@@2@@Z ; std::_Tree<std::_Tmap_traits<unsigned long,ioUIRenderImage *,std::less<unsigned long>,std::allocator<std::pair<unsigned long const ,ioUIRenderImage *> >,0> >::_Lrotate

; 1353 : 							_Pnode = this->_Left(_Fixnodeparent);

  00208	8b 06		 mov	 eax, DWORD PTR [esi]
$LN2@erase@2:

; 1354 : 							}
; 1355 : 
; 1356 : 						this->_Color(_Pnode) = this->_Color(_Fixnodeparent);

  0020a	8a 4e 14	 mov	 cl, BYTE PTR [esi+20]
  0020d	88 48 14	 mov	 BYTE PTR [eax+20], cl

; 1357 : 						this->_Color(_Fixnodeparent) = this->_Black;
; 1358 : 						this->_Color(this->_Left(_Pnode)) = this->_Black;
; 1359 : 						_Rrotate(_Fixnodeparent);

  00210	8b 4d fc	 mov	 ecx, DWORD PTR _this$[ebp]
  00213	c6 46 14 01	 mov	 BYTE PTR [esi+20], 1
  00217	8b 00		 mov	 eax, DWORD PTR [eax]
  00219	56		 push	 esi
  0021a	c6 40 14 01	 mov	 BYTE PTR [eax+20], 1
  0021e	e8 00 00 00 00	 call	 ?_Rrotate@?$_Tree@V?$_Tmap_traits@KPAVioUIRenderImage@@U?$less@K@std@@V?$allocator@U?$pair@$$CBKPAVioUIRenderImage@@@std@@@3@$0A@@std@@@std@@IAEXPAU_Node@?$_Tree_nod@V?$_Tmap_traits@KPAVioUIRenderImage@@U?$less@K@std@@V?$allocator@U?$pair@$$CBKPAVioUIRenderImage@@@std@@@3@$0A@@std@@@2@@Z ; std::_Tree<std::_Tmap_traits<unsigned long,ioUIRenderImage *,std::less<unsigned long>,std::allocator<std::pair<unsigned long const ,ioUIRenderImage *> >,0> >::_Rrotate
$LN16@erase@2:

; 1360 : 						break;	// tree now recolored/rebalanced
; 1361 : 						}
; 1362 : 					}
; 1363 : 
; 1364 : 			this->_Color(_Fixnode) = this->_Black;	// stopping node is black

  00223	c6 47 14 01	 mov	 BYTE PTR [edi+20], 1
$LN19@erase@2:

; 1365 : 			}
; 1366 : 
; 1367 : 		_Dest_val(this->_Alval,
; 1368 : 			_STD addressof(this->_Myval(_Erasednode)));	// delete erased node
; 1369 : 
; 1370 : 		this->_Alnod.deallocate(_Erasednode, 1);

  00227	53		 push	 ebx
  00228	e8 00 00 00 00	 call	 ??3@YAXPAX@Z		; operator delete
  0022d	59		 pop	 ecx

; 1371 : 
; 1372 : 		if (0 < this->_Mysize)

  0022e	8b 4d fc	 mov	 ecx, DWORD PTR _this$[ebp]
  00231	8b 41 08	 mov	 eax, DWORD PTR [ecx+8]
  00234	5f		 pop	 edi
  00235	5e		 pop	 esi
  00236	5b		 pop	 ebx
  00237	85 c0		 test	 eax, eax
  00239	74 04		 je	 SHORT $LN1@erase@2

; 1373 : 			--this->_Mysize;

  0023b	48		 dec	 eax
  0023c	89 41 08	 mov	 DWORD PTR [ecx+8], eax
$LN1@erase@2:

; 1374 : 
; 1375 : 		return (iterator(_Where._Ptr, this));	// return successor iterator

  0023f	8b 45 08	 mov	 eax, DWORD PTR ___$ReturnUdt$[ebp]
  00242	8b 4d 0c	 mov	 ecx, DWORD PTR __Where$[ebp]
  00245	89 08		 mov	 DWORD PTR [eax], ecx

; 1376 : 		}

  00247	c9		 leave
  00248	c2 08 00	 ret	 8
$LN322@erase@2:
?erase@?$_Tree@V?$_Tmap_traits@KPAVioUIRenderImage@@U?$less@K@std@@V?$allocator@U?$pair@$$CBKPAVioUIRenderImage@@@std@@@3@$0A@@std@@@std@@QAE?AV?$_Tree_iterator@V?$_Tree_val@V?$_Tmap_traits@KPAVioUIRenderImage@@U?$less@K@std@@V?$allocator@U?$pair@$$CBKPAVioUIRenderImage@@@std@@@3@$0A@@std@@@std@@@2@V?$_Tree_const_iterator@V?$_Tree_val@V?$_Tmap_traits@KPAVioUIRenderImage@@U?$less@K@std@@V?$allocator@U?$pair@$$CBKPAVioUIRenderImage@@@std@@@3@$0A@@std@@@std@@@2@@Z ENDP ; std::_Tree<std::_Tmap_traits<unsigned long,ioUIRenderImage *,std::less<unsigned long>,std::allocator<std::pair<unsigned long const ,ioUIRenderImage *> >,0> >::erase
_TEXT	ENDS
PUBLIC	??$find@V?$_List_iterator@V?$_List_val@KV?$allocator@K@std@@@std@@@std@@K@std@@YA?AV?$_List_iterator@V?$_List_val@KV?$allocator@K@std@@@std@@@0@V10@0ABK@Z ; std::find<std::_List_iterator<std::_List_val<unsigned long,std::allocator<unsigned long> > >,unsigned long>
; Function compile flags: /Ogsp
; File c:\program files (x86)\microsoft visual studio 10.0\vc\include\algorithm
;	COMDAT ??$find@V?$_List_iterator@V?$_List_val@KV?$allocator@K@std@@@std@@@std@@K@std@@YA?AV?$_List_iterator@V?$_List_val@KV?$allocator@K@std@@@std@@@0@V10@0ABK@Z
_TEXT	SEGMENT
$T515067 = -4						; size = 4
___$ReturnUdt$ = 8					; size = 4
__First$ = 12						; size = 4
__Last$ = 16						; size = 4
__Val$ = 20						; size = 4
??$find@V?$_List_iterator@V?$_List_val@KV?$allocator@K@std@@@std@@@std@@K@std@@YA?AV?$_List_iterator@V?$_List_val@KV?$allocator@K@std@@@std@@@0@V10@0ABK@Z PROC ; std::find<std::_List_iterator<std::_List_val<unsigned long,std::allocator<unsigned long> > >,unsigned long>, COMDAT

; 71   : 	{	// find first matching _Val

  00000	55		 push	 ebp
  00001	8b ec		 mov	 ebp, esp
  00003	51		 push	 ecx

; 72   : 	_DEBUG_RANGE(_First, _Last);
; 73   : 	return (_Rechecked(_First,
; 74   : 		_Find(_Unchecked(_First), _Unchecked(_Last), _Val)));

  00004	ff 75 14	 push	 DWORD PTR __Val$[ebp]
  00007	8d 45 fc	 lea	 eax, DWORD PTR $T515067[ebp]
  0000a	ff 75 10	 push	 DWORD PTR __Last$[ebp]
  0000d	ff 75 0c	 push	 DWORD PTR __First$[ebp]
  00010	50		 push	 eax
  00011	e8 00 00 00 00	 call	 ??$_Find@V?$_List_unchecked_iterator@V?$_List_val@KV?$allocator@K@std@@@std@@@std@@K@std@@YA?AV?$_List_unchecked_iterator@V?$_List_val@KV?$allocator@K@std@@@std@@@0@V10@0ABK@Z ; std::_Find<std::_List_unchecked_iterator<std::_List_val<unsigned long,std::allocator<unsigned long> > >,unsigned long>
  00016	8b 08		 mov	 ecx, DWORD PTR [eax]
  00018	8b 45 08	 mov	 eax, DWORD PTR ___$ReturnUdt$[ebp]
  0001b	83 c4 10	 add	 esp, 16			; 00000010H
  0001e	89 08		 mov	 DWORD PTR [eax], ecx

; 75   : 	}

  00020	c9		 leave
  00021	c3		 ret	 0
??$find@V?$_List_iterator@V?$_List_val@KV?$allocator@K@std@@@std@@@std@@K@std@@YA?AV?$_List_iterator@V?$_List_val@KV?$allocator@K@std@@@std@@@0@V10@0ABK@Z ENDP ; std::find<std::_List_iterator<std::_List_val<unsigned long,std::allocator<unsigned long> > >,unsigned long>
_TEXT	ENDS
PUBLIC	?_Linsert@?$_Tree@V?$_Tmap_traits@KPAVioUIRenderImage@@U?$less@K@std@@V?$allocator@U?$pair@$$CBKPAVioUIRenderImage@@@std@@@3@$0A@@std@@@std@@QAE?AU?$pair@V?$_Tree_iterator@V?$_Tree_val@V?$_Tmap_traits@KPAVioUIRenderImage@@U?$less@K@std@@V?$allocator@U?$pair@$$CBKPAVioUIRenderImage@@@std@@@3@$0A@@std@@@std@@@std@@_N@2@PAU_Node@?$_Tree_nod@V?$_Tmap_traits@KPAVioUIRenderImage@@U?$less@K@std@@V?$allocator@U?$pair@$$CBKPAVioUIRenderImage@@@std@@@3@$0A@@std@@@2@_N@Z ; std::_Tree<std::_Tmap_traits<unsigned long,ioUIRenderImage *,std::less<unsigned long>,std::allocator<std::pair<unsigned long const ,ioUIRenderImage *> >,0> >::_Linsert
; Function compile flags: /Ogsp
; File c:\program files (x86)\microsoft visual studio 10.0\vc\include\xtree
;	COMDAT ?_Linsert@?$_Tree@V?$_Tmap_traits@KPAVioUIRenderImage@@U?$less@K@std@@V?$allocator@U?$pair@$$CBKPAVioUIRenderImage@@@std@@@3@$0A@@std@@@std@@QAE?AU?$pair@V?$_Tree_iterator@V?$_Tree_val@V?$_Tmap_traits@KPAVioUIRenderImage@@U?$less@K@std@@V?$allocator@U?$pair@$$CBKPAVioUIRenderImage@@@std@@@3@$0A@@std@@@std@@@std@@_N@2@PAU_Node@?$_Tree_nod@V?$_Tmap_traits@KPAVioUIRenderImage@@U?$less@K@std@@V?$allocator@U?$pair@$$CBKPAVioUIRenderImage@@@std@@@3@$0A@@std@@@2@_N@Z
_TEXT	SEGMENT
__Addleft$ = -4						; size = 1
___$ReturnUdt$ = 8					; size = 4
__Node$ = 12						; size = 4
$T515171 = 16						; size = 4
__Where$510424 = 16					; size = 4
__Leftish$ = 16						; size = 1
?_Linsert@?$_Tree@V?$_Tmap_traits@KPAVioUIRenderImage@@U?$less@K@std@@V?$allocator@U?$pair@$$CBKPAVioUIRenderImage@@@std@@@3@$0A@@std@@@std@@QAE?AU?$pair@V?$_Tree_iterator@V?$_Tree_val@V?$_Tmap_traits@KPAVioUIRenderImage@@U?$less@K@std@@V?$allocator@U?$pair@$$CBKPAVioUIRenderImage@@@std@@@3@$0A@@std@@@std@@@std@@_N@2@PAU_Node@?$_Tree_nod@V?$_Tmap_traits@KPAVioUIRenderImage@@U?$less@K@std@@V?$allocator@U?$pair@$$CBKPAVioUIRenderImage@@@std@@@3@$0A@@std@@@2@_N@Z PROC ; std::_Tree<std::_Tmap_traits<unsigned long,ioUIRenderImage *,std::less<unsigned long>,std::allocator<std::pair<unsigned long const ,ioUIRenderImage *> >,0> >::_Linsert, COMDAT
; _this$ = ecx

; 944  : 		{	// try to insert node at _Node, on left if _Leftish

  00000	55		 push	 ebp
  00001	8b ec		 mov	 ebp, esp
  00003	51		 push	 ecx
  00004	53		 push	 ebx
  00005	56		 push	 esi
  00006	8b f1		 mov	 esi, ecx

; 945  : 		const value_type& _Val = this->_Myval(_Node);
; 946  : 
; 947  : 		_Nodeptr _Trynode = _Root();

  00008	8b 4e 04	 mov	 ecx, DWORD PTR [esi+4]
  0000b	8b 41 04	 mov	 eax, DWORD PTR [ecx+4]

; 948  : 		_Nodeptr _Wherenode = this->_Myhead;
; 949  : 		bool _Addleft = true;	// add to left of head if tree empty
; 950  : 		while (!this->_Isnil(_Trynode))

  0000e	80 78 15 00	 cmp	 BYTE PTR [eax+21], 0
  00012	8b d9		 mov	 ebx, ecx
  00014	b1 01		 mov	 cl, 1
  00016	57		 push	 edi
  00017	88 4d fc	 mov	 BYTE PTR __Addleft$[ebp], cl
  0001a	75 31		 jne	 SHORT $LN151@Linsert
  0001c	8b 4d 0c	 mov	 ecx, DWORD PTR __Node$[ebp]
  0001f	8b 51 0c	 mov	 edx, DWORD PTR [ecx+12]
$LL12@Linsert:

; 951  : 			{	// look for leaf to insert before (_Addleft) or after
; 952  : 			_Wherenode = _Trynode;
; 953  : 			if (_Leftish)

  00022	80 7d 10 00	 cmp	 BYTE PTR __Leftish$[ebp], 0
  00026	8b d8		 mov	 ebx, eax
  00028	74 09		 je	 SHORT $LN10@Linsert

; 954  : 				_Addleft = !_DEBUG_LT_PRED(this->comp,

  0002a	39 50 0c	 cmp	 DWORD PTR [eax+12], edx
  0002d	1a c9		 sbb	 cl, cl
  0002f	fe c1		 inc	 cl

; 955  : 					this->_Key(_Trynode),
; 956  : 					this->_Kfn(_Val));	// favor left end
; 957  : 			else

  00031	eb 06		 jmp	 SHORT $LN152@Linsert
$LN10@Linsert:

; 958  : 				_Addleft = _DEBUG_LT_PRED(this->comp,

  00033	3b 50 0c	 cmp	 edx, DWORD PTR [eax+12]
  00036	0f 92 c1	 setb	 cl
$LN152@Linsert:
  00039	88 4d fc	 mov	 BYTE PTR __Addleft$[ebp], cl

; 959  : 					this->_Kfn(_Val),
; 960  : 					this->_Key(_Trynode));	// favor right end
; 961  : 			_Trynode = _Addleft ? this->_Left(_Trynode)
; 962  : 				: this->_Right(_Trynode);

  0003c	84 c9		 test	 cl, cl
  0003e	74 04		 je	 SHORT $LN15@Linsert
  00040	8b 00		 mov	 eax, DWORD PTR [eax]
  00042	eb 03		 jmp	 SHORT $LN16@Linsert
$LN15@Linsert:
  00044	8b 40 08	 mov	 eax, DWORD PTR [eax+8]
$LN16@Linsert:

; 948  : 		_Nodeptr _Wherenode = this->_Myhead;
; 949  : 		bool _Addleft = true;	// add to left of head if tree empty
; 950  : 		while (!this->_Isnil(_Trynode))

  00047	80 78 15 00	 cmp	 BYTE PTR [eax+21], 0
  0004b	74 d5		 je	 SHORT $LL12@Linsert
$LN151@Linsert:

; 963  : 			}
; 964  : 
; 965  : 		if (this->_Multi)
; 966  : 			return (_Pairib(_Insert(_Addleft, _Wherenode, _Node), true));
; 967  : 		else
; 968  : 			{	// insert only if unique
; 969  : 			iterator _Where = iterator(_Wherenode, this);

  0004d	8b fb		 mov	 edi, ebx
  0004f	89 7d 10	 mov	 DWORD PTR __Where$510424[ebp], edi

; 970  : 			if (!_Addleft)

  00052	84 c9		 test	 cl, cl
  00054	74 30		 je	 SHORT $LN99@Linsert

; 971  : 				;	// need to test if insert after is okay
; 972  : 			else if (_Where == begin())

  00056	8b 46 04	 mov	 eax, DWORD PTR [esi+4]
  00059	3b 18		 cmp	 ebx, DWORD PTR [eax]
  0005b	75 1e		 jne	 SHORT $LN4@Linsert

; 973  : 				return (_Pairib(_Insert(true, _Wherenode, _Node), true));

  0005d	ff 75 0c	 push	 DWORD PTR __Node$[ebp]
  00060	53		 push	 ebx
  00061	6a 01		 push	 1
$LN153@Linsert:
  00063	8d 45 10	 lea	 eax, DWORD PTR $T515171[ebp]
  00066	50		 push	 eax
  00067	8b ce		 mov	 ecx, esi
  00069	e8 00 00 00 00	 call	 ?_Insert@?$_Tree@V?$_Tmap_traits@KPAVioUIRenderImage@@U?$less@K@std@@V?$allocator@U?$pair@$$CBKPAVioUIRenderImage@@@std@@@3@$0A@@std@@@std@@IAE?AV?$_Tree_iterator@V?$_Tree_val@V?$_Tmap_traits@KPAVioUIRenderImage@@U?$less@K@std@@V?$allocator@U?$pair@$$CBKPAVioUIRenderImage@@@std@@@3@$0A@@std@@@std@@@2@_NPAU_Node@?$_Tree_nod@V?$_Tmap_traits@KPAVioUIRenderImage@@U?$less@K@std@@V?$allocator@U?$pair@$$CBKPAVioUIRenderImage@@@std@@@3@$0A@@std@@@2@1@Z ; std::_Tree<std::_Tmap_traits<unsigned long,ioUIRenderImage *,std::less<unsigned long>,std::allocator<std::pair<unsigned long const ,ioUIRenderImage *> >,0> >::_Insert
  0006e	8b 08		 mov	 ecx, DWORD PTR [eax]
  00070	8b 45 08	 mov	 eax, DWORD PTR ___$ReturnUdt$[ebp]
  00073	89 08		 mov	 DWORD PTR [eax], ecx
  00075	c6 40 04 01	 mov	 BYTE PTR [eax+4], 1
  00079	eb 2c		 jmp	 SHORT $LN1@Linsert
$LN4@Linsert:

; 974  : 			else
; 975  : 				--_Where;	// need to test if insert before is okay

  0007b	8d 4d 10	 lea	 ecx, DWORD PTR __Where$510424[ebp]
  0007e	e8 00 00 00 00	 call	 ??F?$_Tree_unchecked_const_iterator@V?$_Tree_val@V?$_Tmap_traits@KPAVioUIRenderImage@@U?$less@K@std@@V?$allocator@U?$pair@$$CBKPAVioUIRenderImage@@@std@@@3@$0A@@std@@@std@@U_Iterator_base0@2@@std@@QAEAAV01@XZ ; std::_Tree_unchecked_const_iterator<std::_Tree_val<std::_Tmap_traits<unsigned long,ioUIRenderImage *,std::less<unsigned long>,std::allocator<std::pair<unsigned long const ,ioUIRenderImage *> >,0> >,std::_Iterator_base0>::operator--
  00083	8b 7d 10	 mov	 edi, DWORD PTR __Where$510424[ebp]
$LN99@Linsert:

; 976  : 
; 977  : 			if (_DEBUG_LT_PRED(this->comp,

  00086	8b 45 0c	 mov	 eax, DWORD PTR __Node$[ebp]
  00089	8b 4f 0c	 mov	 ecx, DWORD PTR [edi+12]

; 978  : 				this->_Key(_Where._Mynode()),
; 979  : 				this->_Kfn(_Val)))
; 980  : 				return (_Pairib(_Insert(_Addleft, _Wherenode, _Node), true));

  0008c	50		 push	 eax
  0008d	3b 48 0c	 cmp	 ecx, DWORD PTR [eax+12]
  00090	73 06		 jae	 SHORT $LN2@Linsert
  00092	53		 push	 ebx
  00093	ff 75 fc	 push	 DWORD PTR __Addleft$[ebp]
  00096	eb cb		 jmp	 SHORT $LN153@Linsert
$LN2@Linsert:

; 981  : 			else
; 982  : 				{	// duplicate, don't insert
; 983  : 				_Dest_val(this->_Alval,
; 984  : 					_STD addressof(this->_Myval(_Node)));
; 985  : 
; 986  : 				this->_Alnod.deallocate(_Node, 1);

  00098	e8 00 00 00 00	 call	 ??3@YAXPAX@Z		; operator delete

; 987  : 
; 988  : 				return (_Pairib(_Where, false));

  0009d	8b 45 08	 mov	 eax, DWORD PTR ___$ReturnUdt$[ebp]
  000a0	59		 pop	 ecx
  000a1	89 38		 mov	 DWORD PTR [eax], edi
  000a3	c6 40 04 00	 mov	 BYTE PTR [eax+4], 0
$LN1@Linsert:
  000a7	5f		 pop	 edi
  000a8	5e		 pop	 esi
  000a9	5b		 pop	 ebx

; 989  : 				}
; 990  : 			}
; 991  : 		}

  000aa	c9		 leave
  000ab	c2 0c 00	 ret	 12			; 0000000cH
?_Linsert@?$_Tree@V?$_Tmap_traits@KPAVioUIRenderImage@@U?$less@K@std@@V?$allocator@U?$pair@$$CBKPAVioUIRenderImage@@@std@@@3@$0A@@std@@@std@@QAE?AU?$pair@V?$_Tree_iterator@V?$_Tree_val@V?$_Tmap_traits@KPAVioUIRenderImage@@U?$less@K@std@@V?$allocator@U?$pair@$$CBKPAVioUIRenderImage@@@std@@@3@$0A@@std@@@std@@@std@@_N@2@PAU_Node@?$_Tree_nod@V?$_Tmap_traits@KPAVioUIRenderImage@@U?$less@K@std@@V?$allocator@U?$pair@$$CBKPAVioUIRenderImage@@@std@@@3@$0A@@std@@@2@_N@Z ENDP ; std::_Tree<std::_Tmap_traits<unsigned long,ioUIRenderImage *,std::less<unsigned long>,std::allocator<std::pair<unsigned long const ,ioUIRenderImage *> >,0> >::_Linsert
_TEXT	ENDS
PUBLIC	?construct@?$allocator@U?$pair@$$CBKPAVioUIRenderImage@@@std@@@std@@QAEXPAU?$pair@$$CBKPAVioUIRenderImage@@@2@$$QAU32@@Z ; std::allocator<std::pair<unsigned long const ,ioUIRenderImage *> >::construct
; Function compile flags: /Ogsp
; File c:\program files (x86)\microsoft visual studio 10.0\vc\include\xmemory
;	COMDAT ?construct@?$allocator@U?$pair@$$CBKPAVioUIRenderImage@@@std@@@std@@QAEXPAU?$pair@$$CBKPAVioUIRenderImage@@@2@$$QAU32@@Z
_TEXT	SEGMENT
__Ptr$ = 8						; size = 4
__Val$ = 12						; size = 4
?construct@?$allocator@U?$pair@$$CBKPAVioUIRenderImage@@@std@@@std@@QAEXPAU?$pair@$$CBKPAVioUIRenderImage@@@2@$$QAU32@@Z PROC ; std::allocator<std::pair<unsigned long const ,ioUIRenderImage *> >::construct, COMDAT
; _this$ = ecx

; 201  : 		{	// construct object at _Ptr with value _Val

  00000	55		 push	 ebp
  00001	8b ec		 mov	 ebp, esp

; 202  : 		::new ((void _FARQ *)_Ptr) _Ty(_STD forward<_Ty>(_Val));

  00003	8b 45 08	 mov	 eax, DWORD PTR __Ptr$[ebp]
  00006	85 c0		 test	 eax, eax
  00008	74 0d		 je	 SHORT $LN3@construct@4
  0000a	8b 4d 0c	 mov	 ecx, DWORD PTR __Val$[ebp]
  0000d	8b 11		 mov	 edx, DWORD PTR [ecx]
  0000f	89 10		 mov	 DWORD PTR [eax], edx
  00011	8b 49 04	 mov	 ecx, DWORD PTR [ecx+4]
  00014	89 48 04	 mov	 DWORD PTR [eax+4], ecx
$LN3@construct@4:

; 203  : 		}

  00017	5d		 pop	 ebp
  00018	c2 08 00	 ret	 8
?construct@?$allocator@U?$pair@$$CBKPAVioUIRenderImage@@@std@@@std@@QAEXPAU?$pair@$$CBKPAVioUIRenderImage@@@2@$$QAU32@@Z ENDP ; std::allocator<std::pair<unsigned long const ,ioUIRenderImage *> >::construct
_TEXT	ENDS
PUBLIC	?IsAlreadyLoadData@ioGuildMarkMgr@@IAE_NK@Z	; ioGuildMarkMgr::IsAlreadyLoadData
; Function compile flags: /Ogsp
; File d:\lost saga for developer\youtube\tutorial\source\src\lsclient\ioguildmarkmgr.cpp
;	COMDAT ?IsAlreadyLoadData@ioGuildMarkMgr@@IAE_NK@Z
_TEXT	SEGMENT
$T515729 = -4						; size = 4
_dwGuildIndex$ = 8					; size = 4
?IsAlreadyLoadData@ioGuildMarkMgr@@IAE_NK@Z PROC	; ioGuildMarkMgr::IsAlreadyLoadData, COMDAT
; _this$ = ecx

; 93   : {

  00000	55		 push	 ebp
  00001	8b ec		 mov	 ebp, esp
  00003	51		 push	 ecx
  00004	56		 push	 esi
  00005	8b f1		 mov	 esi, ecx

; 94   : 	LoadingMarkList::iterator iter = std::find( m_LoadingMarkList.begin(),
; 95   : 												m_LoadingMarkList.end(),
; 96   : 												dwGuildIndex );

  00007	8b 86 b4 00 00
	00		 mov	 eax, DWORD PTR [esi+180]
  0000d	8b 08		 mov	 ecx, DWORD PTR [eax]
  0000f	8d 55 08	 lea	 edx, DWORD PTR _dwGuildIndex$[ebp]
  00012	52		 push	 edx
  00013	50		 push	 eax
  00014	51		 push	 ecx
  00015	8d 45 fc	 lea	 eax, DWORD PTR $T515729[ebp]
  00018	50		 push	 eax
  00019	e8 00 00 00 00	 call	 ??$_Find@V?$_List_unchecked_iterator@V?$_List_val@KV?$allocator@K@std@@@std@@@std@@K@std@@YA?AV?$_List_unchecked_iterator@V?$_List_val@KV?$allocator@K@std@@@std@@@0@V10@0ABK@Z ; std::_Find<std::_List_unchecked_iterator<std::_List_val<unsigned long,std::allocator<unsigned long> > >,unsigned long>
  0001e	8b 00		 mov	 eax, DWORD PTR [eax]
  00020	83 c4 10	 add	 esp, 16			; 00000010H

; 97   : 
; 98   : 	if( iter != m_LoadingMarkList.end() )

  00023	3b 86 b4 00 00
	00		 cmp	 eax, DWORD PTR [esi+180]
  00029	5e		 pop	 esi
  0002a	0f 95 c0	 setne	 al

; 99   : 		return true;
; 100  : 
; 101  : 	return false;
; 102  : }

  0002d	c9		 leave
  0002e	c2 04 00	 ret	 4
?IsAlreadyLoadData@ioGuildMarkMgr@@IAE_NK@Z ENDP	; ioGuildMarkMgr::IsAlreadyLoadData
_TEXT	ENDS
PUBLIC	?GuildMarkLoadingDone@ioGuildMarkMgr@@QAEXKK_N@Z ; ioGuildMarkMgr::GuildMarkLoadingDone
; Function compile flags: /Ogsp
;	COMDAT ?GuildMarkLoadingDone@ioGuildMarkMgr@@QAEXKK_N@Z
_TEXT	SEGMENT
_dwGuildIndex$ = 8					; size = 4
_dwGuildMark$ = 12					; size = 4
_bDone$ = 16						; size = 1
?GuildMarkLoadingDone@ioGuildMarkMgr@@QAEXKK_N@Z PROC	; ioGuildMarkMgr::GuildMarkLoadingDone, COMDAT
; _this$ = ecx

; 105  : {

  00000	55		 push	 ebp
  00001	8b ec		 mov	 ebp, esp

; 106  : 	m_LoadingMarkList.remove( dwGuildIndex );

  00003	8d 45 08	 lea	 eax, DWORD PTR _dwGuildIndex$[ebp]
  00006	50		 push	 eax
  00007	81 c1 b4 00 00
	00		 add	 ecx, 180		; 000000b4H
  0000d	e8 00 00 00 00	 call	 ?remove@?$list@KV?$allocator@K@std@@@std@@QAEXABK@Z ; std::list<unsigned long,std::allocator<unsigned long> >::remove

; 107  : 
; 108  : 	//    ..;
; 109  : }

  00012	5d		 pop	 ebp
  00013	c2 0c 00	 ret	 12			; 0000000cH
?GuildMarkLoadingDone@ioGuildMarkMgr@@QAEXKK_N@Z ENDP	; ioGuildMarkMgr::GuildMarkLoadingDone
_TEXT	ENDS
PUBLIC	?clear@?$_Tree@V?$_Tmap_traits@KPAVioUIRenderImage@@U?$less@K@std@@V?$allocator@U?$pair@$$CBKPAVioUIRenderImage@@@std@@@3@$0A@@std@@@std@@QAEXXZ ; std::_Tree<std::_Tmap_traits<unsigned long,ioUIRenderImage *,std::less<unsigned long>,std::allocator<std::pair<unsigned long const ,ioUIRenderImage *> >,0> >::clear
; Function compile flags: /Ogsp
; File c:\program files (x86)\microsoft visual studio 10.0\vc\include\xtree
;	COMDAT ?clear@?$_Tree@V?$_Tmap_traits@KPAVioUIRenderImage@@U?$less@K@std@@V?$allocator@U?$pair@$$CBKPAVioUIRenderImage@@@std@@@3@$0A@@std@@@std@@QAEXXZ
_TEXT	SEGMENT
?clear@?$_Tree@V?$_Tmap_traits@KPAVioUIRenderImage@@U?$less@K@std@@V?$allocator@U?$pair@$$CBKPAVioUIRenderImage@@@std@@@3@$0A@@std@@@std@@QAEXXZ PROC ; std::_Tree<std::_Tmap_traits<unsigned long,ioUIRenderImage *,std::less<unsigned long>,std::allocator<std::pair<unsigned long const ,ioUIRenderImage *> >,0> >::clear, COMDAT
; _this$ = ecx

; 1410 : 		{	// erase all

  00000	56		 push	 esi
  00001	57		 push	 edi
  00002	8b f9		 mov	 edi, ecx

; 1411 :  #if _ITERATOR_DEBUG_LEVEL == 2
; 1412 : 		this->_Orphan_ptr(*this, 0);
; 1413 :  #endif /* _ITERATOR_DEBUG_LEVEL == 2 */
; 1414 : 
; 1415 : 		_Erase(_Root());

  00004	8b 47 04	 mov	 eax, DWORD PTR [edi+4]
  00007	ff 70 04	 push	 DWORD PTR [eax+4]
  0000a	e8 00 00 00 00	 call	 ?_Erase@?$_Tree@V?$_Tmap_traits@KPAVioUIRenderImage@@U?$less@K@std@@V?$allocator@U?$pair@$$CBKPAVioUIRenderImage@@@std@@@3@$0A@@std@@@std@@IAEXPAU_Node@?$_Tree_nod@V?$_Tmap_traits@KPAVioUIRenderImage@@U?$less@K@std@@V?$allocator@U?$pair@$$CBKPAVioUIRenderImage@@@std@@@3@$0A@@std@@@2@@Z ; std::_Tree<std::_Tmap_traits<unsigned long,ioUIRenderImage *,std::less<unsigned long>,std::allocator<std::pair<unsigned long const ,ioUIRenderImage *> >,0> >::_Erase

; 1416 : 		_Root() = this->_Myhead;

  0000f	8b 47 04	 mov	 eax, DWORD PTR [edi+4]
  00012	89 40 04	 mov	 DWORD PTR [eax+4], eax

; 1417 : 		_Lmost() = this->_Myhead;

  00015	8b 47 04	 mov	 eax, DWORD PTR [edi+4]
  00018	89 00		 mov	 DWORD PTR [eax], eax

; 1418 : 		_Rmost() = this->_Myhead;

  0001a	8b 77 04	 mov	 esi, DWORD PTR [edi+4]
  0001d	89 76 08	 mov	 DWORD PTR [esi+8], esi

; 1419 : 		this->_Mysize = 0;

  00020	83 67 08 00	 and	 DWORD PTR [edi+8], 0
  00024	5f		 pop	 edi
  00025	5e		 pop	 esi

; 1420 : 		}

  00026	c3		 ret	 0
?clear@?$_Tree@V?$_Tmap_traits@KPAVioUIRenderImage@@U?$less@K@std@@V?$allocator@U?$pair@$$CBKPAVioUIRenderImage@@@std@@@3@$0A@@std@@@std@@QAEXXZ ENDP ; std::_Tree<std::_Tmap_traits<unsigned long,ioUIRenderImage *,std::less<unsigned long>,std::allocator<std::pair<unsigned long const ,ioUIRenderImage *> >,0> >::clear
_TEXT	ENDS
PUBLIC	?find@?$_Tree@V?$_Tmap_traits@KPAVioUIRenderImage@@U?$less@K@std@@V?$allocator@U?$pair@$$CBKPAVioUIRenderImage@@@std@@@3@$0A@@std@@@std@@QAE?AV?$_Tree_iterator@V?$_Tree_val@V?$_Tmap_traits@KPAVioUIRenderImage@@U?$less@K@std@@V?$allocator@U?$pair@$$CBKPAVioUIRenderImage@@@std@@@3@$0A@@std@@@std@@@2@ABK@Z ; std::_Tree<std::_Tmap_traits<unsigned long,ioUIRenderImage *,std::less<unsigned long>,std::allocator<std::pair<unsigned long const ,ioUIRenderImage *> >,0> >::find
; Function compile flags: /Ogsp
;	COMDAT ?find@?$_Tree@V?$_Tmap_traits@KPAVioUIRenderImage@@U?$less@K@std@@V?$allocator@U?$pair@$$CBKPAVioUIRenderImage@@@std@@@3@$0A@@std@@@std@@QAE?AV?$_Tree_iterator@V?$_Tree_val@V?$_Tmap_traits@KPAVioUIRenderImage@@U?$less@K@std@@V?$allocator@U?$pair@$$CBKPAVioUIRenderImage@@@std@@@3@$0A@@std@@@std@@@2@ABK@Z
_TEXT	SEGMENT
$T515848 = -4						; size = 4
___$ReturnUdt$ = 8					; size = 4
__Where$ = 12						; size = 4
__Keyval$ = 12						; size = 4
?find@?$_Tree@V?$_Tmap_traits@KPAVioUIRenderImage@@U?$less@K@std@@V?$allocator@U?$pair@$$CBKPAVioUIRenderImage@@@std@@@3@$0A@@std@@@std@@QAE?AV?$_Tree_iterator@V?$_Tree_val@V?$_Tmap_traits@KPAVioUIRenderImage@@U?$less@K@std@@V?$allocator@U?$pair@$$CBKPAVioUIRenderImage@@@std@@@3@$0A@@std@@@std@@@2@ABK@Z PROC ; std::_Tree<std::_Tmap_traits<unsigned long,ioUIRenderImage *,std::less<unsigned long>,std::allocator<std::pair<unsigned long const ,ioUIRenderImage *> >,0> >::find, COMDAT
; _this$ = ecx

; 1423 : 		{	// find an element in mutable sequence that matches _Keyval

  00000	55		 push	 ebp
  00001	8b ec		 mov	 ebp, esp
  00003	51		 push	 ecx
  00004	56		 push	 esi
  00005	57		 push	 edi

; 1424 : 		iterator _Where = lower_bound(_Keyval);

  00006	8b 7d 0c	 mov	 edi, DWORD PTR __Keyval$[ebp]
  00009	57		 push	 edi
  0000a	8b f1		 mov	 esi, ecx
  0000c	e8 00 00 00 00	 call	 ?_Lbound@?$_Tree@V?$_Tmap_traits@KPAVioUIRenderImage@@U?$less@K@std@@V?$allocator@U?$pair@$$CBKPAVioUIRenderImage@@@std@@@3@$0A@@std@@@std@@IAEPAU_Node@?$_Tree_nod@V?$_Tmap_traits@KPAVioUIRenderImage@@U?$less@K@std@@V?$allocator@U?$pair@$$CBKPAVioUIRenderImage@@@std@@@3@$0A@@std@@@2@ABK@Z ; std::_Tree<std::_Tmap_traits<unsigned long,ioUIRenderImage *,std::less<unsigned long>,std::allocator<std::pair<unsigned long const ,ioUIRenderImage *> >,0> >::_Lbound

; 1425 : 		return (_Where == end()
; 1426 : 			|| _DEBUG_LT_PRED(this->comp,
; 1427 : 				_Keyval, this->_Key(_Where._Mynode()))
; 1428 : 					? end() : _Where);

  00011	8b 76 04	 mov	 esi, DWORD PTR [esi+4]
  00014	89 45 0c	 mov	 DWORD PTR __Where$[ebp], eax
  00017	3b c6		 cmp	 eax, esi
  00019	74 0c		 je	 SHORT $LN3@find
  0001b	8b 0f		 mov	 ecx, DWORD PTR [edi]
  0001d	3b 48 0c	 cmp	 ecx, DWORD PTR [eax+12]
  00020	72 05		 jb	 SHORT $LN3@find
  00022	8d 45 0c	 lea	 eax, DWORD PTR __Where$[ebp]
  00025	eb 06		 jmp	 SHORT $LN4@find
$LN3@find:
  00027	89 75 fc	 mov	 DWORD PTR $T515848[ebp], esi
  0002a	8d 45 fc	 lea	 eax, DWORD PTR $T515848[ebp]
$LN4@find:
  0002d	8b 08		 mov	 ecx, DWORD PTR [eax]
  0002f	8b 45 08	 mov	 eax, DWORD PTR ___$ReturnUdt$[ebp]
  00032	5f		 pop	 edi
  00033	89 08		 mov	 DWORD PTR [eax], ecx
  00035	5e		 pop	 esi

; 1429 : 		}

  00036	c9		 leave
  00037	c2 08 00	 ret	 8
?find@?$_Tree@V?$_Tmap_traits@KPAVioUIRenderImage@@U?$less@K@std@@V?$allocator@U?$pair@$$CBKPAVioUIRenderImage@@@std@@@3@$0A@@std@@@std@@QAE?AV?$_Tree_iterator@V?$_Tree_val@V?$_Tmap_traits@KPAVioUIRenderImage@@U?$less@K@std@@V?$allocator@U?$pair@$$CBKPAVioUIRenderImage@@@std@@@3@$0A@@std@@@std@@@2@ABK@Z ENDP ; std::_Tree<std::_Tmap_traits<unsigned long,ioUIRenderImage *,std::less<unsigned long>,std::allocator<std::pair<unsigned long const ,ioUIRenderImage *> >,0> >::find
_TEXT	ENDS
PUBLIC	?clear@?$vector@PAUCustomMarkData@ioGuildMarkMgr@@V?$allocator@PAUCustomMarkData@ioGuildMarkMgr@@@std@@@std@@QAEXXZ ; std::vector<ioGuildMarkMgr::CustomMarkData *,std::allocator<ioGuildMarkMgr::CustomMarkData *> >::clear
; Function compile flags: /Ogsp
; File c:\program files (x86)\microsoft visual studio 10.0\vc\include\vector
;	COMDAT ?clear@?$vector@PAUCustomMarkData@ioGuildMarkMgr@@V?$allocator@PAUCustomMarkData@ioGuildMarkMgr@@@std@@@std@@QAEXXZ
_TEXT	SEGMENT
$T515986 = -4						; size = 4
?clear@?$vector@PAUCustomMarkData@ioGuildMarkMgr@@V?$allocator@PAUCustomMarkData@ioGuildMarkMgr@@@std@@@std@@QAEXXZ PROC ; std::vector<ioGuildMarkMgr::CustomMarkData *,std::allocator<ioGuildMarkMgr::CustomMarkData *> >::clear, COMDAT
; _this$ = ecx

; 1217 : 		{	// erase all

  00000	55		 push	 ebp
  00001	8b ec		 mov	 ebp, esp
  00003	51		 push	 ecx

; 1218 : 		erase(begin(), end());

  00004	8b 41 04	 mov	 eax, DWORD PTR [ecx+4]
  00007	8b 11		 mov	 edx, DWORD PTR [ecx]
  00009	50		 push	 eax
  0000a	52		 push	 edx
  0000b	8d 45 fc	 lea	 eax, DWORD PTR $T515986[ebp]
  0000e	50		 push	 eax
  0000f	e8 00 00 00 00	 call	 ?erase@?$vector@PAUCustomMarkData@ioGuildMarkMgr@@V?$allocator@PAUCustomMarkData@ioGuildMarkMgr@@@std@@@std@@QAE?AV?$_Vector_iterator@V?$_Vector_val@PAUCustomMarkData@ioGuildMarkMgr@@V?$allocator@PAUCustomMarkData@ioGuildMarkMgr@@@std@@@std@@@2@V?$_Vector_const_iterator@V?$_Vector_val@PAUCustomMarkData@ioGuildMarkMgr@@V?$allocator@PAUCustomMarkData@ioGuildMarkMgr@@@std@@@std@@@2@0@Z ; std::vector<ioGuildMarkMgr::CustomMarkData *,std::allocator<ioGuildMarkMgr::CustomMarkData *> >::erase

; 1219 : 		}

  00014	c9		 leave
  00015	c3		 ret	 0
?clear@?$vector@PAUCustomMarkData@ioGuildMarkMgr@@V?$allocator@PAUCustomMarkData@ioGuildMarkMgr@@@std@@@std@@QAEXXZ ENDP ; std::vector<ioGuildMarkMgr::CustomMarkData *,std::allocator<ioGuildMarkMgr::CustomMarkData *> >::clear
_TEXT	ENDS
PUBLIC	?_Reserve@?$vector@PAUCustomMarkData@ioGuildMarkMgr@@V?$allocator@PAUCustomMarkData@ioGuildMarkMgr@@@std@@@std@@IAEXI@Z ; std::vector<ioGuildMarkMgr::CustomMarkData *,std::allocator<ioGuildMarkMgr::CustomMarkData *> >::_Reserve
; Function compile flags: /Ogsp
;	COMDAT ?_Reserve@?$vector@PAUCustomMarkData@ioGuildMarkMgr@@V?$allocator@PAUCustomMarkData@ioGuildMarkMgr@@@std@@@std@@IAEXI@Z
_TEXT	SEGMENT
__Count$ = 8						; size = 4
?_Reserve@?$vector@PAUCustomMarkData@ioGuildMarkMgr@@V?$allocator@PAUCustomMarkData@ioGuildMarkMgr@@@std@@@std@@IAEXI@Z PROC ; std::vector<ioGuildMarkMgr::CustomMarkData *,std::allocator<ioGuildMarkMgr::CustomMarkData *> >::_Reserve, COMDAT
; _this$ = ecx

; 1290 : 		{	// ensure room for _Count new elements, grow exponentially

  00000	55		 push	 ebp
  00001	8b ec		 mov	 ebp, esp
  00003	56		 push	 esi
  00004	8b f1		 mov	 esi, ecx

; 1291 : 		size_type _Size = size();

  00006	8b 0e		 mov	 ecx, DWORD PTR [esi]
  00008	8b 46 04	 mov	 eax, DWORD PTR [esi+4]
  0000b	2b c1		 sub	 eax, ecx

; 1292 : 		if (max_size() - _Count < _Size)

  0000d	ba ff ff ff 3f	 mov	 edx, 1073741823		; 3fffffffH
  00012	2b 55 08	 sub	 edx, DWORD PTR __Count$[ebp]
  00015	c1 f8 02	 sar	 eax, 2
  00018	3b d0		 cmp	 edx, eax
  0001a	73 0b		 jae	 SHORT $LN4@Reserve

; 1293 : 			_Xlen();

  0001c	68 00 00 00 00	 push	 OFFSET ??_C@_0BD@OLBABOEK@vector?$DMT?$DO?5too?5long?$AA@
  00021	ff 15 00 00 00
	00		 call	 DWORD PTR __imp_?_Xlength_error@std@@YAXPBD@Z
$LN21@Reserve:
$LN4@Reserve:

; 1294 : 		else if ((_Size += _Count) <= capacity())

  00027	8b 56 08	 mov	 edx, DWORD PTR [esi+8]
  0002a	03 45 08	 add	 eax, DWORD PTR __Count$[ebp]
  0002d	2b d1		 sub	 edx, ecx
  0002f	c1 fa 02	 sar	 edx, 2
  00032	3b c2		 cmp	 eax, edx
  00034	76 10		 jbe	 SHORT $LN1@Reserve

; 1295 : 			;
; 1296 : 		else
; 1297 : 			reserve(_Grow_to(_Size));

  00036	50		 push	 eax
  00037	8b ce		 mov	 ecx, esi
  00039	e8 00 00 00 00	 call	 ?_Grow_to@?$vector@PAUCustomMarkData@ioGuildMarkMgr@@V?$allocator@PAUCustomMarkData@ioGuildMarkMgr@@@std@@@std@@IBEII@Z ; std::vector<ioGuildMarkMgr::CustomMarkData *,std::allocator<ioGuildMarkMgr::CustomMarkData *> >::_Grow_to
  0003e	50		 push	 eax
  0003f	8b ce		 mov	 ecx, esi
  00041	e8 00 00 00 00	 call	 ?reserve@?$vector@PAUCustomMarkData@ioGuildMarkMgr@@V?$allocator@PAUCustomMarkData@ioGuildMarkMgr@@@std@@@std@@QAEXI@Z ; std::vector<ioGuildMarkMgr::CustomMarkData *,std::allocator<ioGuildMarkMgr::CustomMarkData *> >::reserve
$LN1@Reserve:
  00046	5e		 pop	 esi

; 1298 : 		}

  00047	5d		 pop	 ebp
  00048	c2 04 00	 ret	 4
$LN20@Reserve:
?_Reserve@?$vector@PAUCustomMarkData@ioGuildMarkMgr@@V?$allocator@PAUCustomMarkData@ioGuildMarkMgr@@@std@@@std@@IAEXI@Z ENDP ; std::vector<ioGuildMarkMgr::CustomMarkData *,std::allocator<ioGuildMarkMgr::CustomMarkData *> >::_Reserve
_TEXT	ENDS
PUBLIC	?_Insert@?$list@KV?$allocator@K@std@@@std@@QAEXV?$_List_const_iterator@V?$_List_val@KV?$allocator@K@std@@@std@@@2@ABK@Z ; std::list<unsigned long,std::allocator<unsigned long> >::_Insert
; Function compile flags: /Ogsp
; File c:\program files (x86)\microsoft visual studio 10.0\vc\include\list
;	COMDAT ?_Insert@?$list@KV?$allocator@K@std@@@std@@QAEXV?$_List_const_iterator@V?$_List_val@KV?$allocator@K@std@@@std@@@2@ABK@Z
_TEXT	SEGMENT
__Where$ = 8						; size = 4
__Val$ = 12						; size = 4
?_Insert@?$list@KV?$allocator@K@std@@@std@@QAEXV?$_List_const_iterator@V?$_List_val@KV?$allocator@K@std@@@std@@@2@ABK@Z PROC ; std::list<unsigned long,std::allocator<unsigned long> >::_Insert, COMDAT
; _this$ = ecx

; 967  : 		{	// insert _Val at _Where

  00000	55		 push	 ebp
  00001	8b ec		 mov	 ebp, esp

; 968  :  #if _ITERATOR_DEBUG_LEVEL == 2
; 969  : 		if (_Where._Getcont() != this)
; 970  : 			_DEBUG_ERROR("list insert iterator outside range");
; 971  :  #endif /* _ITERATOR_DEBUG_LEVEL == 2 */
; 972  : 
; 973  : 		_Nodeptr _Pnode = _Where._Mynode();
; 974  : 		_Nodeptr _Newnode =
; 975  : 			this->_Buynode(_Pnode, this->_Prevnode(_Pnode), _Val);

  00003	8b 45 08	 mov	 eax, DWORD PTR __Where$[ebp]
  00006	53		 push	 ebx
  00007	56		 push	 esi
  00008	57		 push	 edi
  00009	ff 75 0c	 push	 DWORD PTR __Val$[ebp]
  0000c	8d 78 04	 lea	 edi, DWORD PTR [eax+4]
  0000f	ff 37		 push	 DWORD PTR [edi]
  00011	8b d9		 mov	 ebx, ecx
  00013	50		 push	 eax
  00014	e8 00 00 00 00	 call	 ?_Buynode@?$_List_val@KV?$allocator@K@std@@@std@@QAEPAU_Node@?$_List_nod@KV?$allocator@K@std@@@2@PAU342@0ABK@Z ; std::_List_val<unsigned long,std::allocator<unsigned long> >::_Buynode

; 976  : 		_Incsize(1);

  00019	6a 01		 push	 1
  0001b	8b cb		 mov	 ecx, ebx
  0001d	8b f0		 mov	 esi, eax
  0001f	e8 00 00 00 00	 call	 ?_Incsize@?$list@KV?$allocator@K@std@@@std@@QAEXI@Z ; std::list<unsigned long,std::allocator<unsigned long> >::_Incsize

; 977  : 		this->_Prevnode(_Pnode) = _Newnode;

  00024	89 37		 mov	 DWORD PTR [edi], esi

; 978  : 		this->_Nextnode(this->_Prevnode(_Newnode)) = _Newnode;

  00026	8b 46 04	 mov	 eax, DWORD PTR [esi+4]
  00029	5f		 pop	 edi
  0002a	89 30		 mov	 DWORD PTR [eax], esi
  0002c	5e		 pop	 esi
  0002d	5b		 pop	 ebx

; 979  : 		}

  0002e	5d		 pop	 ebp
  0002f	c2 08 00	 ret	 8
?_Insert@?$list@KV?$allocator@K@std@@@std@@QAEXV?$_List_const_iterator@V?$_List_val@KV?$allocator@K@std@@@std@@@2@ABK@Z ENDP ; std::list<unsigned long,std::allocator<unsigned long> >::_Insert
_TEXT	ENDS
PUBLIC	?_Tidy@?$list@KV?$allocator@K@std@@@std@@QAEXXZ	; std::list<unsigned long,std::allocator<unsigned long> >::_Tidy
; Function compile flags: /Ogsp
;	COMDAT ?_Tidy@?$list@KV?$allocator@K@std@@@std@@QAEXXZ
_TEXT	SEGMENT
?_Tidy@?$list@KV?$allocator@K@std@@@std@@QAEXXZ PROC	; std::list<unsigned long,std::allocator<unsigned long> >::_Tidy, COMDAT
; _this$ = ecx

; 1497 : 		clear();

  00000	e9 00 00 00 00	 jmp	 ?clear@?$list@KV?$allocator@K@std@@@std@@QAEXXZ ; std::list<unsigned long,std::allocator<unsigned long> >::clear
?_Tidy@?$list@KV?$allocator@K@std@@@std@@QAEXXZ ENDP	; std::list<unsigned long,std::allocator<unsigned long> >::_Tidy
_TEXT	ENDS
PUBLIC	?erase@?$_Tree@V?$_Tmap_traits@KPAVioUIRenderImage@@U?$less@K@std@@V?$allocator@U?$pair@$$CBKPAVioUIRenderImage@@@std@@@3@$0A@@std@@@std@@QAE?AV?$_Tree_iterator@V?$_Tree_val@V?$_Tmap_traits@KPAVioUIRenderImage@@U?$less@K@std@@V?$allocator@U?$pair@$$CBKPAVioUIRenderImage@@@std@@@3@$0A@@std@@@std@@@2@V?$_Tree_const_iterator@V?$_Tree_val@V?$_Tmap_traits@KPAVioUIRenderImage@@U?$less@K@std@@V?$allocator@U?$pair@$$CBKPAVioUIRenderImage@@@std@@@3@$0A@@std@@@std@@@2@0@Z ; std::_Tree<std::_Tmap_traits<unsigned long,ioUIRenderImage *,std::less<unsigned long>,std::allocator<std::pair<unsigned long const ,ioUIRenderImage *> >,0> >::erase
; Function compile flags: /Ogsp
; File c:\program files (x86)\microsoft visual studio 10.0\vc\include\xtree
;	COMDAT ?erase@?$_Tree@V?$_Tmap_traits@KPAVioUIRenderImage@@U?$less@K@std@@V?$allocator@U?$pair@$$CBKPAVioUIRenderImage@@@std@@@3@$0A@@std@@@std@@QAE?AV?$_Tree_iterator@V?$_Tree_val@V?$_Tmap_traits@KPAVioUIRenderImage@@U?$less@K@std@@V?$allocator@U?$pair@$$CBKPAVioUIRenderImage@@@std@@@3@$0A@@std@@@std@@@2@V?$_Tree_const_iterator@V?$_Tree_val@V?$_Tmap_traits@KPAVioUIRenderImage@@U?$less@K@std@@V?$allocator@U?$pair@$$CBKPAVioUIRenderImage@@@std@@@3@$0A@@std@@@std@@@2@0@Z
_TEXT	SEGMENT
$T516094 = -4						; size = 4
___$ReturnUdt$ = 8					; size = 4
__First$ = 12						; size = 4
__Last$ = 16						; size = 4
?erase@?$_Tree@V?$_Tmap_traits@KPAVioUIRenderImage@@U?$less@K@std@@V?$allocator@U?$pair@$$CBKPAVioUIRenderImage@@@std@@@3@$0A@@std@@@std@@QAE?AV?$_Tree_iterator@V?$_Tree_val@V?$_Tmap_traits@KPAVioUIRenderImage@@U?$less@K@std@@V?$allocator@U?$pair@$$CBKPAVioUIRenderImage@@@std@@@3@$0A@@std@@@std@@@2@V?$_Tree_const_iterator@V?$_Tree_val@V?$_Tmap_traits@KPAVioUIRenderImage@@U?$less@K@std@@V?$allocator@U?$pair@$$CBKPAVioUIRenderImage@@@std@@@3@$0A@@std@@@std@@@2@0@Z PROC ; std::_Tree<std::_Tmap_traits<unsigned long,ioUIRenderImage *,std::less<unsigned long>,std::allocator<std::pair<unsigned long const ,ioUIRenderImage *> >,0> >::erase, COMDAT
; _this$ = ecx

; 1379 : 		{	// erase [_First, _Last)

  00000	55		 push	 ebp
  00001	8b ec		 mov	 ebp, esp
  00003	51		 push	 ecx
  00004	56		 push	 esi
  00005	8b f1		 mov	 esi, ecx

; 1380 : 		if (_First == begin() && _Last == end())

  00007	8b 46 04	 mov	 eax, DWORD PTR [esi+4]
  0000a	8b 4d 0c	 mov	 ecx, DWORD PTR __First$[ebp]
  0000d	3b 08		 cmp	 ecx, DWORD PTR [eax]
  0000f	75 13		 jne	 SHORT $LN65@erase@3
  00011	39 45 10	 cmp	 DWORD PTR __Last$[ebp], eax
  00014	75 0e		 jne	 SHORT $LN65@erase@3

; 1381 : 			{	// erase all
; 1382 : 			clear();

  00016	8b ce		 mov	 ecx, esi
  00018	e8 00 00 00 00	 call	 ?clear@?$_Tree@V?$_Tmap_traits@KPAVioUIRenderImage@@U?$less@K@std@@V?$allocator@U?$pair@$$CBKPAVioUIRenderImage@@@std@@@3@$0A@@std@@@std@@QAEXXZ ; std::_Tree<std::_Tmap_traits<unsigned long,ioUIRenderImage *,std::less<unsigned long>,std::allocator<std::pair<unsigned long const ,ioUIRenderImage *> >,0> >::clear

; 1383 : 			return (begin());

  0001d	8b 46 04	 mov	 eax, DWORD PTR [esi+4]
  00020	8b 08		 mov	 ecx, DWORD PTR [eax]
  00022	eb 25		 jmp	 SHORT $LN1@erase@3
$LN65@erase@3:

; 1384 : 			}
; 1385 : 		else
; 1386 : 			{	// partial erase, one at a time
; 1387 : 			while (_First != _Last)

  00024	3b 4d 10	 cmp	 ecx, DWORD PTR __Last$[ebp]
  00027	74 20		 je	 SHORT $LN1@erase@3
  00029	57		 push	 edi
$LL2@erase@3:

; 1388 : 				erase(_First++);

  0002a	8b f9		 mov	 edi, ecx
  0002c	8d 4d 0c	 lea	 ecx, DWORD PTR __First$[ebp]
  0002f	e8 00 00 00 00	 call	 ??E?$_Tree_unchecked_const_iterator@V?$_Tree_val@V?$_Tmap_traits@KPAVioUIRenderImage@@U?$less@K@std@@V?$allocator@U?$pair@$$CBKPAVioUIRenderImage@@@std@@@3@$0A@@std@@@std@@U_Iterator_base0@2@@std@@QAEAAV01@XZ ; std::_Tree_unchecked_const_iterator<std::_Tree_val<std::_Tmap_traits<unsigned long,ioUIRenderImage *,std::less<unsigned long>,std::allocator<std::pair<unsigned long const ,ioUIRenderImage *> >,0> >,std::_Iterator_base0>::operator++
  00034	57		 push	 edi
  00035	8d 45 fc	 lea	 eax, DWORD PTR $T516094[ebp]
  00038	50		 push	 eax
  00039	8b ce		 mov	 ecx, esi
  0003b	e8 00 00 00 00	 call	 ?erase@?$_Tree@V?$_Tmap_traits@KPAVioUIRenderImage@@U?$less@K@std@@V?$allocator@U?$pair@$$CBKPAVioUIRenderImage@@@std@@@3@$0A@@std@@@std@@QAE?AV?$_Tree_iterator@V?$_Tree_val@V?$_Tmap_traits@KPAVioUIRenderImage@@U?$less@K@std@@V?$allocator@U?$pair@$$CBKPAVioUIRenderImage@@@std@@@3@$0A@@std@@@std@@@2@V?$_Tree_const_iterator@V?$_Tree_val@V?$_Tmap_traits@KPAVioUIRenderImage@@U?$less@K@std@@V?$allocator@U?$pair@$$CBKPAVioUIRenderImage@@@std@@@3@$0A@@std@@@std@@@2@@Z ; std::_Tree<std::_Tmap_traits<unsigned long,ioUIRenderImage *,std::less<unsigned long>,std::allocator<std::pair<unsigned long const ,ioUIRenderImage *> >,0> >::erase
  00040	8b 4d 0c	 mov	 ecx, DWORD PTR __First$[ebp]
  00043	3b 4d 10	 cmp	 ecx, DWORD PTR __Last$[ebp]
  00046	75 e2		 jne	 SHORT $LL2@erase@3
  00048	5f		 pop	 edi
$LN1@erase@3:

; 1389 : 			return (iterator(_First._Ptr, this));

  00049	8b 45 08	 mov	 eax, DWORD PTR ___$ReturnUdt$[ebp]
  0004c	89 08		 mov	 DWORD PTR [eax], ecx
  0004e	5e		 pop	 esi

; 1390 : 			}
; 1391 : 		}

  0004f	c9		 leave
  00050	c2 0c 00	 ret	 12			; 0000000cH
?erase@?$_Tree@V?$_Tmap_traits@KPAVioUIRenderImage@@U?$less@K@std@@V?$allocator@U?$pair@$$CBKPAVioUIRenderImage@@@std@@@3@$0A@@std@@@std@@QAE?AV?$_Tree_iterator@V?$_Tree_val@V?$_Tmap_traits@KPAVioUIRenderImage@@U?$less@K@std@@V?$allocator@U?$pair@$$CBKPAVioUIRenderImage@@@std@@@3@$0A@@std@@@std@@@2@V?$_Tree_const_iterator@V?$_Tree_val@V?$_Tmap_traits@KPAVioUIRenderImage@@U?$less@K@std@@V?$allocator@U?$pair@$$CBKPAVioUIRenderImage@@@std@@@3@$0A@@std@@@std@@@2@0@Z ENDP ; std::_Tree<std::_Tmap_traits<unsigned long,ioUIRenderImage *,std::less<unsigned long>,std::allocator<std::pair<unsigned long const ,ioUIRenderImage *> >,0> >::erase
_TEXT	ENDS
PUBLIC	??$_Cons_val@V?$allocator@U?$pair@$$CBKPAVioUIRenderImage@@@std@@@std@@U?$pair@$$CBKPAVioUIRenderImage@@@2@U32@@std@@YAXAAV?$allocator@U?$pair@$$CBKPAVioUIRenderImage@@@std@@@0@PAU?$pair@$$CBKPAVioUIRenderImage@@@0@$$QAU20@@Z ; std::_Cons_val<std::allocator<std::pair<unsigned long const ,ioUIRenderImage *> >,std::pair<unsigned long const ,ioUIRenderImage *>,std::pair<unsigned long const ,ioUIRenderImage *> >
; Function compile flags: /Ogsp
; File c:\program files (x86)\microsoft visual studio 10.0\vc\include\xmemory
;	COMDAT ??$_Cons_val@V?$allocator@U?$pair@$$CBKPAVioUIRenderImage@@@std@@@std@@U?$pair@$$CBKPAVioUIRenderImage@@@2@U32@@std@@YAXAAV?$allocator@U?$pair@$$CBKPAVioUIRenderImage@@@std@@@0@PAU?$pair@$$CBKPAVioUIRenderImage@@@0@$$QAU20@@Z
_TEXT	SEGMENT
__Alval$ = 8						; size = 4
__Pdest$ = 12						; size = 4
__Src$ = 16						; size = 4
??$_Cons_val@V?$allocator@U?$pair@$$CBKPAVioUIRenderImage@@@std@@@std@@U?$pair@$$CBKPAVioUIRenderImage@@@2@U32@@std@@YAXAAV?$allocator@U?$pair@$$CBKPAVioUIRenderImage@@@std@@@0@PAU?$pair@$$CBKPAVioUIRenderImage@@@0@$$QAU20@@Z PROC ; std::_Cons_val<std::allocator<std::pair<unsigned long const ,ioUIRenderImage *> >,std::pair<unsigned long const ,ioUIRenderImage *>,std::pair<unsigned long const ,ioUIRenderImage *> >, COMDAT

; 279  : 	{	// construct using allocator

  00000	55		 push	 ebp
  00001	8b ec		 mov	 ebp, esp

; 280  : 	_Alval.construct(_Pdest, _STD forward<_Ty2>(_Src));

  00003	8b 45 0c	 mov	 eax, DWORD PTR __Pdest$[ebp]
  00006	85 c0		 test	 eax, eax
  00008	74 0d		 je	 SHORT $LN7@Cons_val@4
  0000a	8b 4d 10	 mov	 ecx, DWORD PTR __Src$[ebp]
  0000d	8b 11		 mov	 edx, DWORD PTR [ecx]
  0000f	89 10		 mov	 DWORD PTR [eax], edx
  00011	8b 49 04	 mov	 ecx, DWORD PTR [ecx+4]
  00014	89 48 04	 mov	 DWORD PTR [eax+4], ecx
$LN7@Cons_val@4:

; 281  : 	}

  00017	5d		 pop	 ebp
  00018	c3		 ret	 0
??$_Cons_val@V?$allocator@U?$pair@$$CBKPAVioUIRenderImage@@@std@@@std@@U?$pair@$$CBKPAVioUIRenderImage@@@2@U32@@std@@YAXAAV?$allocator@U?$pair@$$CBKPAVioUIRenderImage@@@std@@@0@PAU?$pair@$$CBKPAVioUIRenderImage@@@0@$$QAU20@@Z ENDP ; std::_Cons_val<std::allocator<std::pair<unsigned long const ,ioUIRenderImage *> >,std::pair<unsigned long const ,ioUIRenderImage *>,std::pair<unsigned long const ,ioUIRenderImage *> >
; Function compile flags: /Ogsp
; File d:\lost saga for developer\youtube\tutorial\source\src\lsclient\ioguildmarkmgr.cpp
_TEXT	ENDS
;	COMDAT ?Done@ioGuildMarkTask@@UAEXXZ
_TEXT	SEGMENT
$T516363 = -4						; size = 4
?Done@ioGuildMarkTask@@UAEXXZ PROC			; ioGuildMarkTask::Done, COMDAT
; _this$ = ecx

; 63   : {

  00000	55		 push	 ebp
  00001	8b ec		 mov	 ebp, esp
  00003	51		 push	 ecx

; 64   : 	g_GuildMarkMgr.GuildMarkLoadingDone( m_dwIndex, m_dwMark, m_bDone );

  00004	8b 41 24	 mov	 eax, DWORD PTR [ecx+36]
  00007	8b 0d 00 00 00
	00		 mov	 ecx, DWORD PTR ?ms_Singleton@?$Singleton@VioGuildMarkMgr@@@@1PAVioGuildMarkMgr@@A ; Singleton<ioGuildMarkMgr>::ms_Singleton
  0000d	89 45 fc	 mov	 DWORD PTR $T516363[ebp], eax
  00010	8d 45 fc	 lea	 eax, DWORD PTR $T516363[ebp]
  00013	50		 push	 eax
  00014	81 c1 b4 00 00
	00		 add	 ecx, 180		; 000000b4H
  0001a	e8 00 00 00 00	 call	 ?remove@?$list@KV?$allocator@K@std@@@std@@QAEXABK@Z ; std::list<unsigned long,std::allocator<unsigned long> >::remove

; 65   : }

  0001f	c9		 leave
  00020	c3		 ret	 0
?Done@ioGuildMarkTask@@UAEXXZ ENDP			; ioGuildMarkTask::Done
_TEXT	ENDS
PUBLIC	?ClearGuildLevelRes@ioGuildMarkMgr@@IAEXXZ	; ioGuildMarkMgr::ClearGuildLevelRes
; Function compile flags: /Ogsp
;	COMDAT ?ClearGuildLevelRes@ioGuildMarkMgr@@IAEXXZ
_TEXT	SEGMENT
_iCreate$ = -4						; size = 4
?ClearGuildLevelRes@ioGuildMarkMgr@@IAEXXZ PROC		; ioGuildMarkMgr::ClearGuildLevelRes, COMDAT
; _this$ = ecx

; 208  : {

  00000	55		 push	 ebp
  00001	8b ec		 mov	 ebp, esp
  00003	51		 push	 ecx
  00004	56		 push	 esi
  00005	57		 push	 edi
  00006	8b f9		 mov	 edi, ecx

; 209  : 	GuildLevelResMap::iterator iCreate;
; 210  : 	for( iCreate = m_GuildLevelResBlueMap.begin() ; iCreate != m_GuildLevelResBlueMap.end() ; ++iCreate )

  00008	8b 47 78	 mov	 eax, DWORD PTR [edi+120]
  0000b	8b 30		 mov	 esi, DWORD PTR [eax]
  0000d	89 75 fc	 mov	 DWORD PTR _iCreate$[ebp], esi
  00010	3b f0		 cmp	 esi, eax
  00012	74 22		 je	 SHORT $LN6@ClearGuild
$LL37@ClearGuild:

; 211  : 	{
; 212  : 		SAFEDELETE( iCreate->second );

  00014	8b 4e 10	 mov	 ecx, DWORD PTR [esi+16]
  00017	85 c9		 test	 ecx, ecx
  00019	74 0b		 je	 SHORT $LN7@ClearGuild
  0001b	8b 01		 mov	 eax, DWORD PTR [ecx]
  0001d	6a 01		 push	 1
  0001f	ff 50 40	 call	 DWORD PTR [eax+64]
  00022	83 66 10 00	 and	 DWORD PTR [esi+16], 0
$LN7@ClearGuild:

; 209  : 	GuildLevelResMap::iterator iCreate;
; 210  : 	for( iCreate = m_GuildLevelResBlueMap.begin() ; iCreate != m_GuildLevelResBlueMap.end() ; ++iCreate )

  00026	8d 4d fc	 lea	 ecx, DWORD PTR _iCreate$[ebp]
  00029	e8 00 00 00 00	 call	 ??E?$_Tree_unchecked_const_iterator@V?$_Tree_val@V?$_Tmap_traits@KPAVioUIRenderImage@@U?$less@K@std@@V?$allocator@U?$pair@$$CBKPAVioUIRenderImage@@@std@@@3@$0A@@std@@@std@@U_Iterator_base0@2@@std@@QAEAAV01@XZ ; std::_Tree_unchecked_const_iterator<std::_Tree_val<std::_Tmap_traits<unsigned long,ioUIRenderImage *,std::less<unsigned long>,std::allocator<std::pair<unsigned long const ,ioUIRenderImage *> >,0> >,std::_Iterator_base0>::operator++
  0002e	8b 75 fc	 mov	 esi, DWORD PTR _iCreate$[ebp]
  00031	3b 77 78	 cmp	 esi, DWORD PTR [edi+120]
  00034	75 de		 jne	 SHORT $LL37@ClearGuild
$LN6@ClearGuild:

; 213  : 	}
; 214  : 	m_GuildLevelResBlueMap.clear();

  00036	8d 4f 74	 lea	 ecx, DWORD PTR [edi+116]
  00039	e8 00 00 00 00	 call	 ?clear@?$_Tree@V?$_Tmap_traits@KPAVioUIRenderImage@@U?$less@K@std@@V?$allocator@U?$pair@$$CBKPAVioUIRenderImage@@@std@@@3@$0A@@std@@@std@@QAEXXZ ; std::_Tree<std::_Tmap_traits<unsigned long,ioUIRenderImage *,std::less<unsigned long>,std::allocator<std::pair<unsigned long const ,ioUIRenderImage *> >,0> >::clear

; 215  : 
; 216  : 	for( iCreate = m_GuildLevelResRedMap.begin() ; iCreate != m_GuildLevelResRedMap.end() ; ++iCreate )

  0003e	8b 87 88 00 00
	00		 mov	 eax, DWORD PTR [edi+136]
  00044	8b 30		 mov	 esi, DWORD PTR [eax]
  00046	89 75 fc	 mov	 DWORD PTR _iCreate$[ebp], esi
  00049	3b f0		 cmp	 esi, eax
  0004b	74 25		 je	 SHORT $LN2@ClearGuild
$LL93@ClearGuild:

; 217  : 	{
; 218  : 		SAFEDELETE( iCreate->second );

  0004d	8b 4e 10	 mov	 ecx, DWORD PTR [esi+16]
  00050	85 c9		 test	 ecx, ecx
  00052	74 0b		 je	 SHORT $LN3@ClearGuild
  00054	8b 01		 mov	 eax, DWORD PTR [ecx]
  00056	6a 01		 push	 1
  00058	ff 50 40	 call	 DWORD PTR [eax+64]
  0005b	83 66 10 00	 and	 DWORD PTR [esi+16], 0
$LN3@ClearGuild:

; 215  : 
; 216  : 	for( iCreate = m_GuildLevelResRedMap.begin() ; iCreate != m_GuildLevelResRedMap.end() ; ++iCreate )

  0005f	8d 4d fc	 lea	 ecx, DWORD PTR _iCreate$[ebp]
  00062	e8 00 00 00 00	 call	 ??E?$_Tree_unchecked_const_iterator@V?$_Tree_val@V?$_Tmap_traits@KPAVioUIRenderImage@@U?$less@K@std@@V?$allocator@U?$pair@$$CBKPAVioUIRenderImage@@@std@@@3@$0A@@std@@@std@@U_Iterator_base0@2@@std@@QAEAAV01@XZ ; std::_Tree_unchecked_const_iterator<std::_Tree_val<std::_Tmap_traits<unsigned long,ioUIRenderImage *,std::less<unsigned long>,std::allocator<std::pair<unsigned long const ,ioUIRenderImage *> >,0> >,std::_Iterator_base0>::operator++
  00067	8b 75 fc	 mov	 esi, DWORD PTR _iCreate$[ebp]
  0006a	3b b7 88 00 00
	00		 cmp	 esi, DWORD PTR [edi+136]
  00070	75 db		 jne	 SHORT $LL93@ClearGuild
$LN2@ClearGuild:

; 219  : 	}
; 220  : 	m_GuildLevelResRedMap.clear();

  00072	8d 8f 84 00 00
	00		 lea	 ecx, DWORD PTR [edi+132]
  00078	e8 00 00 00 00	 call	 ?clear@?$_Tree@V?$_Tmap_traits@KPAVioUIRenderImage@@U?$less@K@std@@V?$allocator@U?$pair@$$CBKPAVioUIRenderImage@@@std@@@3@$0A@@std@@@std@@QAEXXZ ; std::_Tree<std::_Tmap_traits<unsigned long,ioUIRenderImage *,std::less<unsigned long>,std::allocator<std::pair<unsigned long const ,ioUIRenderImage *> >,0> >::clear
  0007d	5f		 pop	 edi
  0007e	5e		 pop	 esi

; 221  : }

  0007f	c9		 leave
  00080	c3		 ret	 0
?ClearGuildLevelRes@ioGuildMarkMgr@@IAEXXZ ENDP		; ioGuildMarkMgr::ClearGuildLevelRes
_TEXT	ENDS
PUBLIC	?GetGuildLevelRes@ioGuildMarkMgr@@QAEPAVioUIRenderImage@@K@Z ; ioGuildMarkMgr::GetGuildLevelRes
; Function compile flags: /Ogsp
;	COMDAT ?GetGuildLevelRes@ioGuildMarkMgr@@QAEPAVioUIRenderImage@@K@Z
_TEXT	SEGMENT
_iter$ = -4						; size = 4
_dwGuildLevel$ = 8					; size = 4
?GetGuildLevelRes@ioGuildMarkMgr@@QAEPAVioUIRenderImage@@K@Z PROC ; ioGuildMarkMgr::GetGuildLevelRes, COMDAT
; _this$ = ecx

; 333  : {

  00000	55		 push	 ebp
  00001	8b ec		 mov	 ebp, esp
  00003	51		 push	 ecx
  00004	56		 push	 esi

; 334  : 	GuildLevelResMap::iterator iter = m_GuildLevelResBlueMap.find( dwGuildLevel );

  00005	8d 45 08	 lea	 eax, DWORD PTR _dwGuildLevel$[ebp]
  00008	50		 push	 eax
  00009	8b f1		 mov	 esi, ecx
  0000b	8d 45 fc	 lea	 eax, DWORD PTR _iter$[ebp]
  0000e	50		 push	 eax
  0000f	8d 4e 74	 lea	 ecx, DWORD PTR [esi+116]
  00012	e8 00 00 00 00	 call	 ?find@?$_Tree@V?$_Tmap_traits@KPAVioUIRenderImage@@U?$less@K@std@@V?$allocator@U?$pair@$$CBKPAVioUIRenderImage@@@std@@@3@$0A@@std@@@std@@QAE?AV?$_Tree_iterator@V?$_Tree_val@V?$_Tmap_traits@KPAVioUIRenderImage@@U?$less@K@std@@V?$allocator@U?$pair@$$CBKPAVioUIRenderImage@@@std@@@3@$0A@@std@@@std@@@2@ABK@Z ; std::_Tree<std::_Tmap_traits<unsigned long,ioUIRenderImage *,std::less<unsigned long>,std::allocator<std::pair<unsigned long const ,ioUIRenderImage *> >,0> >::find

; 335  : 	if( iter != m_GuildLevelResBlueMap.end() )

  00017	8b 45 fc	 mov	 eax, DWORD PTR _iter$[ebp]
  0001a	3b 46 78	 cmp	 eax, DWORD PTR [esi+120]
  0001d	5e		 pop	 esi
  0001e	74 05		 je	 SHORT $LN1@GetGuildLe

; 336  : 		return iter->second;

  00020	8b 40 10	 mov	 eax, DWORD PTR [eax+16]
  00023	eb 02		 jmp	 SHORT $LN2@GetGuildLe
$LN1@GetGuildLe:

; 337  : 	return NULL;

  00025	33 c0		 xor	 eax, eax
$LN2@GetGuildLe:

; 338  : }

  00027	c9		 leave
  00028	c2 04 00	 ret	 4
?GetGuildLevelRes@ioGuildMarkMgr@@QAEPAVioUIRenderImage@@K@Z ENDP ; ioGuildMarkMgr::GetGuildLevelRes
_TEXT	ENDS
PUBLIC	??_C@_0DE@LANKLAEI@ioGuildMarkMgr?3?3GetSmallMarkImag@ ; `string'
PUBLIC	?GetSmallMarkImageDef@ioGuildMarkMgr@@IAEPAVioUIRenderImage@@K@Z ; ioGuildMarkMgr::GetSmallMarkImageDef
EXTRN	__imp_?PrintTimeAndLog@CLog@@QAAXHPADZZ:PROC
EXTRN	__imp_?LOG@@3VCLog@@A:BYTE
;	COMDAT ??_C@_0DE@LANKLAEI@ioGuildMarkMgr?3?3GetSmallMarkImag@
; File c:\program files (x86)\microsoft visual studio 10.0\vc\include\xtree
CONST	SEGMENT
??_C@_0DE@LANKLAEI@ioGuildMarkMgr?3?3GetSmallMarkImag@ DB 'ioGuildMarkMgr'
	DB	'::GetSmallMarkImageDef Not Image : %d', 00H	; `string'
; Function compile flags: /Ogsp
; File d:\lost saga for developer\youtube\tutorial\source\src\lsclient\ioguildmarkmgr.cpp
CONST	ENDS
;	COMDAT ?GetSmallMarkImageDef@ioGuildMarkMgr@@IAEPAVioUIRenderImage@@K@Z
_TEXT	SEGMENT
_iter$ = -4						; size = 4
_dwGuildMark$ = 8					; size = 4
?GetSmallMarkImageDef@ioGuildMarkMgr@@IAEPAVioUIRenderImage@@K@Z PROC ; ioGuildMarkMgr::GetSmallMarkImageDef, COMDAT
; _this$ = ecx

; 359  : {

  00000	55		 push	 ebp
  00001	8b ec		 mov	 ebp, esp
  00003	51		 push	 ecx
  00004	56		 push	 esi

; 360  : 	GuildMarkMap::iterator iter = m_GuildSmallMarkMap.find( dwGuildMark );

  00005	8d 45 08	 lea	 eax, DWORD PTR _dwGuildMark$[ebp]
  00008	50		 push	 eax
  00009	8b f1		 mov	 esi, ecx
  0000b	8d 45 fc	 lea	 eax, DWORD PTR _iter$[ebp]
  0000e	50		 push	 eax
  0000f	8d 4e 04	 lea	 ecx, DWORD PTR [esi+4]
  00012	e8 00 00 00 00	 call	 ?find@?$_Tree@V?$_Tmap_traits@KPAVioUIRenderImage@@U?$less@K@std@@V?$allocator@U?$pair@$$CBKPAVioUIRenderImage@@@std@@@3@$0A@@std@@@std@@QAE?AV?$_Tree_iterator@V?$_Tree_val@V?$_Tmap_traits@KPAVioUIRenderImage@@U?$less@K@std@@V?$allocator@U?$pair@$$CBKPAVioUIRenderImage@@@std@@@3@$0A@@std@@@std@@@2@ABK@Z ; std::_Tree<std::_Tmap_traits<unsigned long,ioUIRenderImage *,std::less<unsigned long>,std::allocator<std::pair<unsigned long const ,ioUIRenderImage *> >,0> >::find

; 361  : 	if( iter != m_GuildSmallMarkMap.end() )

  00017	8b 45 fc	 mov	 eax, DWORD PTR _iter$[ebp]
  0001a	3b 46 08	 cmp	 eax, DWORD PTR [esi+8]
  0001d	5e		 pop	 esi
  0001e	74 05		 je	 SHORT $LN2@GetSmallMa

; 362  : 		return iter->second;

  00020	8b 40 10	 mov	 eax, DWORD PTR [eax+16]
  00023	eb 1b		 jmp	 SHORT $LN3@GetSmallMa
$LN2@GetSmallMa:

; 363  : 	else
; 364  : 	{
; 365  : 		LOG.PrintTimeAndLog( 0, "ioGuildMarkMgr::GetSmallMarkImageDef Not Image : %d", dwGuildMark );

  00025	ff 75 08	 push	 DWORD PTR _dwGuildMark$[ebp]
  00028	68 00 00 00 00	 push	 OFFSET ??_C@_0DE@LANKLAEI@ioGuildMarkMgr?3?3GetSmallMarkImag@
  0002d	6a 00		 push	 0
  0002f	ff 35 00 00 00
	00		 push	 DWORD PTR __imp_?LOG@@3VCLog@@A
  00035	ff 15 00 00 00
	00		 call	 DWORD PTR __imp_?PrintTimeAndLog@CLog@@QAAXHPADZZ
  0003b	83 c4 10	 add	 esp, 16			; 00000010H

; 366  : 	}
; 367  : 
; 368  : 	return NULL;

  0003e	33 c0		 xor	 eax, eax
$LN3@GetSmallMa:

; 369  : }

  00040	c9		 leave
  00041	c2 04 00	 ret	 4
?GetSmallMarkImageDef@ioGuildMarkMgr@@IAEPAVioUIRenderImage@@K@Z ENDP ; ioGuildMarkMgr::GetSmallMarkImageDef
_TEXT	ENDS
PUBLIC	??_C@_0DC@KOCKIEHG@ioGuildMarkMgr?3?3GetBigMarkImageD@ ; `string'
PUBLIC	?GetBigMarkImageDef@ioGuildMarkMgr@@IAEPAVioUIRenderImage@@K@Z ; ioGuildMarkMgr::GetBigMarkImageDef
;	COMDAT ??_C@_0DC@KOCKIEHG@ioGuildMarkMgr?3?3GetBigMarkImageD@
; File c:\program files (x86)\microsoft visual studio 10.0\vc\include\xtree
CONST	SEGMENT
??_C@_0DC@KOCKIEHG@ioGuildMarkMgr?3?3GetBigMarkImageD@ DB 'ioGuildMarkMgr'
	DB	'::GetBigMarkImageDef Not Image : %d', 00H	; `string'
; Function compile flags: /Ogsp
; File d:\lost saga for developer\youtube\tutorial\source\src\lsclient\ioguildmarkmgr.cpp
CONST	ENDS
;	COMDAT ?GetBigMarkImageDef@ioGuildMarkMgr@@IAEPAVioUIRenderImage@@K@Z
_TEXT	SEGMENT
_iter$ = -4						; size = 4
_dwGuildMark$ = 8					; size = 4
?GetBigMarkImageDef@ioGuildMarkMgr@@IAEPAVioUIRenderImage@@K@Z PROC ; ioGuildMarkMgr::GetBigMarkImageDef, COMDAT
; _this$ = ecx

; 486  : {

  00000	55		 push	 ebp
  00001	8b ec		 mov	 ebp, esp
  00003	51		 push	 ecx
  00004	56		 push	 esi

; 487  : 	GuildMarkMap::iterator iter = m_GuildBigMarkMap.find( dwGuildMark );

  00005	8d 45 08	 lea	 eax, DWORD PTR _dwGuildMark$[ebp]
  00008	50		 push	 eax
  00009	8b f1		 mov	 esi, ecx
  0000b	8d 45 fc	 lea	 eax, DWORD PTR _iter$[ebp]
  0000e	50		 push	 eax
  0000f	8d 4e 14	 lea	 ecx, DWORD PTR [esi+20]
  00012	e8 00 00 00 00	 call	 ?find@?$_Tree@V?$_Tmap_traits@KPAVioUIRenderImage@@U?$less@K@std@@V?$allocator@U?$pair@$$CBKPAVioUIRenderImage@@@std@@@3@$0A@@std@@@std@@QAE?AV?$_Tree_iterator@V?$_Tree_val@V?$_Tmap_traits@KPAVioUIRenderImage@@U?$less@K@std@@V?$allocator@U?$pair@$$CBKPAVioUIRenderImage@@@std@@@3@$0A@@std@@@std@@@2@ABK@Z ; std::_Tree<std::_Tmap_traits<unsigned long,ioUIRenderImage *,std::less<unsigned long>,std::allocator<std::pair<unsigned long const ,ioUIRenderImage *> >,0> >::find

; 488  : 	if( iter != m_GuildBigMarkMap.end() )

  00017	8b 45 fc	 mov	 eax, DWORD PTR _iter$[ebp]
  0001a	3b 46 18	 cmp	 eax, DWORD PTR [esi+24]
  0001d	5e		 pop	 esi
  0001e	74 05		 je	 SHORT $LN2@GetBigMark

; 489  : 		return iter->second;

  00020	8b 40 10	 mov	 eax, DWORD PTR [eax+16]
  00023	eb 1b		 jmp	 SHORT $LN3@GetBigMark
$LN2@GetBigMark:

; 490  : 	else
; 491  : 	{
; 492  : 		LOG.PrintTimeAndLog( 0, "ioGuildMarkMgr::GetBigMarkImageDef Not Image : %d", dwGuildMark );

  00025	ff 75 08	 push	 DWORD PTR _dwGuildMark$[ebp]
  00028	68 00 00 00 00	 push	 OFFSET ??_C@_0DC@KOCKIEHG@ioGuildMarkMgr?3?3GetBigMarkImageD@
  0002d	6a 00		 push	 0
  0002f	ff 35 00 00 00
	00		 push	 DWORD PTR __imp_?LOG@@3VCLog@@A
  00035	ff 15 00 00 00
	00		 call	 DWORD PTR __imp_?PrintTimeAndLog@CLog@@QAAXHPADZZ
  0003b	83 c4 10	 add	 esp, 16			; 00000010H

; 493  : 	}
; 494  : 	return NULL;

  0003e	33 c0		 xor	 eax, eax
$LN3@GetBigMark:

; 495  : }

  00040	c9		 leave
  00041	c2 04 00	 ret	 4
?GetBigMarkImageDef@ioGuildMarkMgr@@IAEPAVioUIRenderImage@@K@Z ENDP ; ioGuildMarkMgr::GetBigMarkImageDef
_TEXT	ENDS
PUBLIC	?GetGuildSmallMarkSize@ioGuildMarkMgr@@QAEHKK@Z	; ioGuildMarkMgr::GetGuildSmallMarkSize
EXTRN	__imp_?GetWidth@ioUIRenderElement@@QBEHXZ:PROC
; Function compile flags: /Ogsp
;	COMDAT ?GetGuildSmallMarkSize@ioGuildMarkMgr@@QAEHKK@Z
_TEXT	SEGMENT
_dwGUildIndex$ = 8					; size = 4
_dwGuildMark$ = 12					; size = 4
?GetGuildSmallMarkSize@ioGuildMarkMgr@@QAEHKK@Z PROC	; ioGuildMarkMgr::GetGuildSmallMarkSize, COMDAT
; _this$ = ecx

; 595  : {

  00000	55		 push	 ebp
  00001	8b ec		 mov	 ebp, esp

; 596  : 	if( dwGUildIndex == 0 )

  00003	83 7d 08 00	 cmp	 DWORD PTR _dwGUildIndex$[ebp], 0
  00007	75 04		 jne	 SHORT $LN2@GetGuildSm
$LN5@GetGuildSm:

; 597  : 		return 0;

  00009	33 c0		 xor	 eax, eax
  0000b	eb 13		 jmp	 SHORT $LN3@GetGuildSm
$LN2@GetGuildSm:

; 598  : 
; 599  : 	ioUIRenderImage *pRenderImage = GetSmallMarkImageDef( 0 );

  0000d	6a 00		 push	 0
  0000f	e8 00 00 00 00	 call	 ?GetSmallMarkImageDef@ioGuildMarkMgr@@IAEPAVioUIRenderImage@@K@Z ; ioGuildMarkMgr::GetSmallMarkImageDef

; 600  : 	if( !pRenderImage )

  00014	85 c0		 test	 eax, eax

; 601  : 		return 0;

  00016	74 f1		 je	 SHORT $LN5@GetGuildSm

; 602  : 	return pRenderImage->GetWidth();

  00018	8b c8		 mov	 ecx, eax
  0001a	ff 15 00 00 00
	00		 call	 DWORD PTR __imp_?GetWidth@ioUIRenderElement@@QBEHXZ
$LN3@GetGuildSm:

; 603  : }

  00020	5d		 pop	 ebp
  00021	c2 08 00	 ret	 8
?GetGuildSmallMarkSize@ioGuildMarkMgr@@QAEHKK@Z ENDP	; ioGuildMarkMgr::GetGuildSmallMarkSize
_TEXT	ENDS
PUBLIC	?RenderSmallMarkDefault@ioGuildMarkMgr@@QAEXKMMW4UIRenderType@@@Z ; ioGuildMarkMgr::RenderSmallMarkDefault
; Function compile flags: /Ogsp
;	COMDAT ?RenderSmallMarkDefault@ioGuildMarkMgr@@QAEXKMMW4UIRenderType@@@Z
_TEXT	SEGMENT
_dwGuildMark$ = 8					; size = 4
_fXPos$ = 12						; size = 4
_fYPos$ = 16						; size = 4
_eRenderType$ = 20					; size = 4
?RenderSmallMarkDefault@ioGuildMarkMgr@@QAEXKMMW4UIRenderType@@@Z PROC ; ioGuildMarkMgr::RenderSmallMarkDefault, COMDAT
; _this$ = ecx

; 613  : {

  00000	55		 push	 ebp
  00001	8b ec		 mov	 ebp, esp

; 614  : 	ioUIRenderImage *pRenderImage = GetSmallMarkImageDef( dwGuildMark );

  00003	ff 75 08	 push	 DWORD PTR _dwGuildMark$[ebp]
  00006	e8 00 00 00 00	 call	 ?GetSmallMarkImageDef@ioGuildMarkMgr@@IAEPAVioUIRenderImage@@K@Z ; ioGuildMarkMgr::GetSmallMarkImageDef

; 615  : 	if( pRenderImage )

  0000b	33 c9		 xor	 ecx, ecx
  0000d	3b c1		 cmp	 eax, ecx
  0000f	74 23		 je	 SHORT $LN1@RenderSmal@2

; 616  : 		pRenderImage->Render( fXPos, fYPos, eRenderType );

  00011	f3 0f 10 45 10	 movss	 xmm0, DWORD PTR _fYPos$[ebp]
  00016	8b 10		 mov	 edx, DWORD PTR [eax]
  00018	51		 push	 ecx
  00019	51		 push	 ecx
  0001a	51		 push	 ecx
  0001b	ff 75 14	 push	 DWORD PTR _eRenderType$[ebp]
  0001e	51		 push	 ecx
  0001f	51		 push	 ecx
  00020	f3 0f 11 44 24
	04		 movss	 DWORD PTR [esp+4], xmm0
  00026	f3 0f 10 45 0c	 movss	 xmm0, DWORD PTR _fXPos$[ebp]
  0002b	8b c8		 mov	 ecx, eax
  0002d	f3 0f 11 04 24	 movss	 DWORD PTR [esp], xmm0
  00032	ff 12		 call	 DWORD PTR [edx]
$LN1@RenderSmal@2:

; 617  : }

  00034	5d		 pop	 ebp
  00035	c2 10 00	 ret	 16			; 00000010H
?RenderSmallMarkDefault@ioGuildMarkMgr@@QAEXKMMW4UIRenderType@@@Z ENDP ; ioGuildMarkMgr::RenderSmallMarkDefault
_TEXT	ENDS
PUBLIC	?RenderMark80x80Default@ioGuildMarkMgr@@QAEXKMMW4UIRenderType@@@Z ; ioGuildMarkMgr::RenderMark80x80Default
; Function compile flags: /Ogsp
;	COMDAT ?RenderMark80x80Default@ioGuildMarkMgr@@QAEXKMMW4UIRenderType@@@Z
_TEXT	SEGMENT
_dwGuildMark$ = 8					; size = 4
_fXPos$ = 12						; size = 4
_fYPos$ = 16						; size = 4
_eRenderType$ = 20					; size = 4
?RenderMark80x80Default@ioGuildMarkMgr@@QAEXKMMW4UIRenderType@@@Z PROC ; ioGuildMarkMgr::RenderMark80x80Default, COMDAT
; _this$ = ecx

; 676  : {

  00000	55		 push	 ebp
  00001	8b ec		 mov	 ebp, esp
  00003	56		 push	 esi

; 677  : 	ioUIRenderImage *pRenderImage = GetBigMarkImageDef( dwGuildMark );

  00004	ff 75 08	 push	 DWORD PTR _dwGuildMark$[ebp]
  00007	e8 00 00 00 00	 call	 ?GetBigMarkImageDef@ioGuildMarkMgr@@IAEPAVioUIRenderImage@@K@Z ; ioGuildMarkMgr::GetBigMarkImageDef
  0000c	8b f0		 mov	 esi, eax

; 678  : 	if( pRenderImage )

  0000e	85 f6		 test	 esi, esi
  00010	74 31		 je	 SHORT $LN1@RenderMark@2

; 679  : 	{
; 680  : 		pRenderImage->SetSize( 80, 80 );

  00012	8b 06		 mov	 eax, DWORD PTR [esi]
  00014	6a 50		 push	 80			; 00000050H
  00016	6a 50		 push	 80			; 00000050H
  00018	8b ce		 mov	 ecx, esi
  0001a	ff 50 10	 call	 DWORD PTR [eax+16]

; 681  : 		pRenderImage->Render( fXPos, fYPos, eRenderType, TFO_BILINEAR );

  0001d	f3 0f 10 45 10	 movss	 xmm0, DWORD PTR _fYPos$[ebp]
  00022	8b 06		 mov	 eax, DWORD PTR [esi]
  00024	6a 00		 push	 0
  00026	6a 00		 push	 0
  00028	6a 01		 push	 1
  0002a	ff 75 14	 push	 DWORD PTR _eRenderType$[ebp]
  0002d	51		 push	 ecx
  0002e	51		 push	 ecx
  0002f	f3 0f 11 44 24
	04		 movss	 DWORD PTR [esp+4], xmm0
  00035	f3 0f 10 45 0c	 movss	 xmm0, DWORD PTR _fXPos$[ebp]
  0003a	8b ce		 mov	 ecx, esi
  0003c	f3 0f 11 04 24	 movss	 DWORD PTR [esp], xmm0
  00041	ff 10		 call	 DWORD PTR [eax]
$LN1@RenderMark@2:
  00043	5e		 pop	 esi

; 682  : 	}
; 683  : }

  00044	5d		 pop	 ebp
  00045	c2 10 00	 ret	 16			; 00000010H
?RenderMark80x80Default@ioGuildMarkMgr@@QAEXKMMW4UIRenderType@@@Z ENDP ; ioGuildMarkMgr::RenderMark80x80Default
_TEXT	ENDS
PUBLIC	?push_back@?$vector@PAUCustomMarkData@ioGuildMarkMgr@@V?$allocator@PAUCustomMarkData@ioGuildMarkMgr@@@std@@@std@@QAEXABQAUCustomMarkData@ioGuildMarkMgr@@@Z ; std::vector<ioGuildMarkMgr::CustomMarkData *,std::allocator<ioGuildMarkMgr::CustomMarkData *> >::push_back
; Function compile flags: /Ogsp
; File c:\program files (x86)\microsoft visual studio 10.0\vc\include\vector
;	COMDAT ?push_back@?$vector@PAUCustomMarkData@ioGuildMarkMgr@@V?$allocator@PAUCustomMarkData@ioGuildMarkMgr@@@std@@@std@@QAEXABQAUCustomMarkData@ioGuildMarkMgr@@@Z
_TEXT	SEGMENT
__Val$ = 8						; size = 4
?push_back@?$vector@PAUCustomMarkData@ioGuildMarkMgr@@V?$allocator@PAUCustomMarkData@ioGuildMarkMgr@@@std@@@std@@QAEXABQAUCustomMarkData@ioGuildMarkMgr@@@Z PROC ; std::vector<ioGuildMarkMgr::CustomMarkData *,std::allocator<ioGuildMarkMgr::CustomMarkData *> >::push_back, COMDAT
; _this$ = ecx

; 976  : 		{	// insert element at end

  00000	55		 push	 ebp
  00001	8b ec		 mov	 ebp, esp
  00003	56		 push	 esi
  00004	8b f1		 mov	 esi, ecx

; 977  : 		if (_Inside(_STD addressof(_Val)))

  00006	8b 46 04	 mov	 eax, DWORD PTR [esi+4]
  00009	57		 push	 edi
  0000a	8b 7d 08	 mov	 edi, DWORD PTR __Val$[ebp]
  0000d	3b f8		 cmp	 edi, eax
  0000f	73 27		 jae	 SHORT $LN4@push_back
  00011	8b 0e		 mov	 ecx, DWORD PTR [esi]
  00013	3b cf		 cmp	 ecx, edi
  00015	77 21		 ja	 SHORT $LN4@push_back

; 978  : 			{	// push back an element
; 979  : 			size_type _Idx = _STD addressof(_Val) - this->_Myfirst;

  00017	2b f9		 sub	 edi, ecx
  00019	c1 ff 02	 sar	 edi, 2

; 980  : 			if (this->_Mylast == this->_Myend)

  0001c	3b 46 08	 cmp	 eax, DWORD PTR [esi+8]
  0001f	75 09		 jne	 SHORT $LN3@push_back

; 981  : 				_Reserve(1);

  00021	6a 01		 push	 1
  00023	8b ce		 mov	 ecx, esi
  00025	e8 00 00 00 00	 call	 ?_Reserve@?$vector@PAUCustomMarkData@ioGuildMarkMgr@@V?$allocator@PAUCustomMarkData@ioGuildMarkMgr@@@std@@@std@@IAEXI@Z ; std::vector<ioGuildMarkMgr::CustomMarkData *,std::allocator<ioGuildMarkMgr::CustomMarkData *> >::_Reserve
$LN3@push_back:

; 982  : 			_Orphan_range(this->_Mylast, this->_Mylast);
; 983  : 			_Cons_val(this->_Alval,
; 984  : 				this->_Mylast,
; 985  : 				this->_Myfirst[_Idx]);

  0002a	8b 46 04	 mov	 eax, DWORD PTR [esi+4]
  0002d	85 c0		 test	 eax, eax
  0002f	74 20		 je	 SHORT $LN39@push_back
  00031	8b 0e		 mov	 ecx, DWORD PTR [esi]
  00033	8b 0c b9	 mov	 ecx, DWORD PTR [ecx+edi*4]

; 986  : 			++this->_Mylast;
; 987  : 			}
; 988  : 		else

  00036	eb 17		 jmp	 SHORT $LN46@push_back
$LN4@push_back:

; 989  : 			{	// push back a non-element
; 990  : 			if (this->_Mylast == this->_Myend)

  00038	3b 46 08	 cmp	 eax, DWORD PTR [esi+8]
  0003b	75 09		 jne	 SHORT $LN1@push_back

; 991  : 				_Reserve(1);

  0003d	6a 01		 push	 1
  0003f	8b ce		 mov	 ecx, esi
  00041	e8 00 00 00 00	 call	 ?_Reserve@?$vector@PAUCustomMarkData@ioGuildMarkMgr@@V?$allocator@PAUCustomMarkData@ioGuildMarkMgr@@@std@@@std@@IAEXI@Z ; std::vector<ioGuildMarkMgr::CustomMarkData *,std::allocator<ioGuildMarkMgr::CustomMarkData *> >::_Reserve
$LN1@push_back:

; 992  : 			_Orphan_range(this->_Mylast, this->_Mylast);
; 993  : 			_Cons_val(this->_Alval,
; 994  : 				this->_Mylast,
; 995  : 				_Val);

  00046	8b 46 04	 mov	 eax, DWORD PTR [esi+4]
  00049	85 c0		 test	 eax, eax
  0004b	74 04		 je	 SHORT $LN39@push_back
  0004d	8b 0f		 mov	 ecx, DWORD PTR [edi]
$LN46@push_back:
  0004f	89 08		 mov	 DWORD PTR [eax], ecx
$LN39@push_back:

; 996  : 			++this->_Mylast;

  00051	83 46 04 04	 add	 DWORD PTR [esi+4], 4
  00055	5f		 pop	 edi
  00056	5e		 pop	 esi

; 997  : 			}
; 998  : 		}

  00057	5d		 pop	 ebp
  00058	c2 04 00	 ret	 4
?push_back@?$vector@PAUCustomMarkData@ioGuildMarkMgr@@V?$allocator@PAUCustomMarkData@ioGuildMarkMgr@@@std@@@std@@QAEXABQAUCustomMarkData@ioGuildMarkMgr@@@Z ENDP ; std::vector<ioGuildMarkMgr::CustomMarkData *,std::allocator<ioGuildMarkMgr::CustomMarkData *> >::push_back
_TEXT	ENDS
PUBLIC	??1?$list@KV?$allocator@K@std@@@std@@QAE@XZ	; std::list<unsigned long,std::allocator<unsigned long> >::~list<unsigned long,std::allocator<unsigned long> >
; Function compile flags: /Ogsp
; File c:\program files (x86)\microsoft visual studio 10.0\vc\include\list
;	COMDAT ??1?$list@KV?$allocator@K@std@@@std@@QAE@XZ
_TEXT	SEGMENT
??1?$list@KV?$allocator@K@std@@@std@@QAE@XZ PROC	; std::list<unsigned long,std::allocator<unsigned long> >::~list<unsigned long,std::allocator<unsigned long> >, COMDAT
; _this$ = ecx

; 769  : 		{	// destroy the object

  00000	56		 push	 esi
  00001	8b f1		 mov	 esi, ecx

; 770  : 		_Tidy();

  00003	e8 00 00 00 00	 call	 ?clear@?$list@KV?$allocator@K@std@@@std@@QAEXXZ ; std::list<unsigned long,std::allocator<unsigned long> >::clear

; 771  : 		}

  00008	ff 36		 push	 DWORD PTR [esi]
  0000a	e8 00 00 00 00	 call	 ??3@YAXPAX@Z		; operator delete
  0000f	59		 pop	 ecx
  00010	5e		 pop	 esi
  00011	c3		 ret	 0
??1?$list@KV?$allocator@K@std@@@std@@QAE@XZ ENDP	; std::list<unsigned long,std::allocator<unsigned long> >::~list<unsigned long,std::allocator<unsigned long> >
_TEXT	ENDS
PUBLIC	?push_back@?$list@KV?$allocator@K@std@@@std@@QAEXABK@Z ; std::list<unsigned long,std::allocator<unsigned long> >::push_back
; Function compile flags: /Ogsp
;	COMDAT ?push_back@?$list@KV?$allocator@K@std@@@std@@QAEXABK@Z
_TEXT	SEGMENT
__Val$ = 8						; size = 4
?push_back@?$list@KV?$allocator@K@std@@@std@@QAEXABK@Z PROC ; std::list<unsigned long,std::allocator<unsigned long> >::push_back, COMDAT
; _this$ = ecx

; 926  : 		{	// insert element at end

  00000	55		 push	 ebp
  00001	8b ec		 mov	 ebp, esp

; 927  : 		_Insert(end(), _Val);

  00003	ff 75 08	 push	 DWORD PTR __Val$[ebp]
  00006	8b 01		 mov	 eax, DWORD PTR [ecx]
  00008	50		 push	 eax
  00009	e8 00 00 00 00	 call	 ?_Insert@?$list@KV?$allocator@K@std@@@std@@QAEXV?$_List_const_iterator@V?$_List_val@KV?$allocator@K@std@@@std@@@2@ABK@Z ; std::list<unsigned long,std::allocator<unsigned long> >::_Insert

; 928  : 		}

  0000e	5d		 pop	 ebp
  0000f	c2 04 00	 ret	 4
?push_back@?$list@KV?$allocator@K@std@@@std@@QAEXABK@Z ENDP ; std::list<unsigned long,std::allocator<unsigned long> >::push_back
_TEXT	ENDS
PUBLIC	?_Tidy@?$_Tree@V?$_Tmap_traits@KPAVioUIRenderImage@@U?$less@K@std@@V?$allocator@U?$pair@$$CBKPAVioUIRenderImage@@@std@@@3@$0A@@std@@@std@@IAEXXZ ; std::_Tree<std::_Tmap_traits<unsigned long,ioUIRenderImage *,std::less<unsigned long>,std::allocator<std::pair<unsigned long const ,ioUIRenderImage *> >,0> >::_Tidy
; Function compile flags: /Ogsp
; File c:\program files (x86)\microsoft visual studio 10.0\vc\include\xtree
;	COMDAT ?_Tidy@?$_Tree@V?$_Tmap_traits@KPAVioUIRenderImage@@U?$less@K@std@@V?$allocator@U?$pair@$$CBKPAVioUIRenderImage@@@std@@@3@$0A@@std@@@std@@IAEXXZ
_TEXT	SEGMENT
$T517149 = -4						; size = 4
?_Tidy@?$_Tree@V?$_Tmap_traits@KPAVioUIRenderImage@@U?$less@K@std@@V?$allocator@U?$pair@$$CBKPAVioUIRenderImage@@@std@@@3@$0A@@std@@@std@@IAEXXZ PROC ; std::_Tree<std::_Tmap_traits<unsigned long,ioUIRenderImage *,std::less<unsigned long>,std::allocator<std::pair<unsigned long const ,ioUIRenderImage *> >,0> >::_Tidy, COMDAT
; _this$ = ecx

; 1865 : 		{	// free all storage

  00000	55		 push	 ebp
  00001	8b ec		 mov	 ebp, esp
  00003	51		 push	 ecx

; 1866 : 		erase(begin(), end());

  00004	8b 41 04	 mov	 eax, DWORD PTR [ecx+4]
  00007	8b 10		 mov	 edx, DWORD PTR [eax]
  00009	50		 push	 eax
  0000a	52		 push	 edx
  0000b	8d 45 fc	 lea	 eax, DWORD PTR $T517149[ebp]
  0000e	50		 push	 eax
  0000f	e8 00 00 00 00	 call	 ?erase@?$_Tree@V?$_Tmap_traits@KPAVioUIRenderImage@@U?$less@K@std@@V?$allocator@U?$pair@$$CBKPAVioUIRenderImage@@@std@@@3@$0A@@std@@@std@@QAE?AV?$_Tree_iterator@V?$_Tree_val@V?$_Tmap_traits@KPAVioUIRenderImage@@U?$less@K@std@@V?$allocator@U?$pair@$$CBKPAVioUIRenderImage@@@std@@@3@$0A@@std@@@std@@@2@V?$_Tree_const_iterator@V?$_Tree_val@V?$_Tmap_traits@KPAVioUIRenderImage@@U?$less@K@std@@V?$allocator@U?$pair@$$CBKPAVioUIRenderImage@@@std@@@3@$0A@@std@@@std@@@2@0@Z ; std::_Tree<std::_Tmap_traits<unsigned long,ioUIRenderImage *,std::less<unsigned long>,std::allocator<std::pair<unsigned long const ,ioUIRenderImage *> >,0> >::erase

; 1867 : 		}

  00014	c9		 leave
  00015	c3		 ret	 0
?_Tidy@?$_Tree@V?$_Tmap_traits@KPAVioUIRenderImage@@U?$less@K@std@@V?$allocator@U?$pair@$$CBKPAVioUIRenderImage@@@std@@@3@$0A@@std@@@std@@IAEXXZ ENDP ; std::_Tree<std::_Tmap_traits<unsigned long,ioUIRenderImage *,std::less<unsigned long>,std::allocator<std::pair<unsigned long const ,ioUIRenderImage *> >,0> >::_Tidy
_TEXT	ENDS
PUBLIC	??$_Buynode@U?$pair@$$CBKPAVioUIRenderImage@@@std@@@?$_Tree_val@V?$_Tmap_traits@KPAVioUIRenderImage@@U?$less@K@std@@V?$allocator@U?$pair@$$CBKPAVioUIRenderImage@@@std@@@3@$0A@@std@@@std@@QAEPAU_Node@?$_Tree_nod@V?$_Tmap_traits@KPAVioUIRenderImage@@U?$less@K@std@@V?$allocator@U?$pair@$$CBKPAVioUIRenderImage@@@std@@@3@$0A@@std@@@1@$$QAU?$pair@$$CBKPAVioUIRenderImage@@@1@@Z ; std::_Tree_val<std::_Tmap_traits<unsigned long,ioUIRenderImage *,std::less<unsigned long>,std::allocator<std::pair<unsigned long const ,ioUIRenderImage *> >,0> >::_Buynode<std::pair<unsigned long const ,ioUIRenderImage *> >
; Function compile flags: /Ogsp
;	COMDAT ??$_Buynode@U?$pair@$$CBKPAVioUIRenderImage@@@std@@@?$_Tree_val@V?$_Tmap_traits@KPAVioUIRenderImage@@U?$less@K@std@@V?$allocator@U?$pair@$$CBKPAVioUIRenderImage@@@std@@@3@$0A@@std@@@std@@QAEPAU_Node@?$_Tree_nod@V?$_Tmap_traits@KPAVioUIRenderImage@@U?$less@K@std@@V?$allocator@U?$pair@$$CBKPAVioUIRenderImage@@@std@@@3@$0A@@std@@@1@$$QAU?$pair@$$CBKPAVioUIRenderImage@@@1@@Z
_TEXT	SEGMENT
__Val$ = 8						; size = 4
??$_Buynode@U?$pair@$$CBKPAVioUIRenderImage@@@std@@@?$_Tree_val@V?$_Tmap_traits@KPAVioUIRenderImage@@U?$less@K@std@@V?$allocator@U?$pair@$$CBKPAVioUIRenderImage@@@std@@@3@$0A@@std@@@std@@QAEPAU_Node@?$_Tree_nod@V?$_Tmap_traits@KPAVioUIRenderImage@@U?$less@K@std@@V?$allocator@U?$pair@$$CBKPAVioUIRenderImage@@@std@@@3@$0A@@std@@@1@$$QAU?$pair@$$CBKPAVioUIRenderImage@@@1@@Z PROC ; std::_Tree_val<std::_Tmap_traits<unsigned long,ioUIRenderImage *,std::less<unsigned long>,std::allocator<std::pair<unsigned long const ,ioUIRenderImage *> >,0> >::_Buynode<std::pair<unsigned long const ,ioUIRenderImage *> >, COMDAT
; _this$ = ecx

; 586  : 		_Nodeptr _Buynode(_Valty&& _Val)

  00000	55		 push	 ebp
  00001	8b ec		 mov	 ebp, esp
  00003	56		 push	 esi
  00004	57		 push	 edi
  00005	8b f1		 mov	 esi, ecx

; 587  : 		{	// allocate a node with defaults
; 588  : 		_Nodeptr _Wherenode = _Buynode();

  00007	e8 00 00 00 00	 call	 ?_Buynode@?$_Tree_val@V?$_Tmap_traits@KPAVioUIRenderImage@@U?$less@K@std@@V?$allocator@U?$pair@$$CBKPAVioUIRenderImage@@@std@@@3@$0A@@std@@@std@@QAEPAU_Node@?$_Tree_nod@V?$_Tmap_traits@KPAVioUIRenderImage@@U?$less@K@std@@V?$allocator@U?$pair@$$CBKPAVioUIRenderImage@@@std@@@3@$0A@@std@@@2@XZ ; std::_Tree_val<std::_Tmap_traits<unsigned long,ioUIRenderImage *,std::less<unsigned long>,std::allocator<std::pair<unsigned long const ,ioUIRenderImage *> >,0> >::_Buynode

; 589  : 
; 590  : 		_TRY_BEGIN
; 591  : 		_Cons_val(this->_Alval, _STD addressof(this->_Myval(_Wherenode)),
; 592  : 			_STD forward<_Valty>(_Val));

  0000c	ff 75 08	 push	 DWORD PTR __Val$[ebp]
  0000f	8b f8		 mov	 edi, eax
  00011	8d 47 0c	 lea	 eax, DWORD PTR [edi+12]
  00014	50		 push	 eax
  00015	83 c6 0d	 add	 esi, 13			; 0000000dH
  00018	56		 push	 esi
  00019	e8 00 00 00 00	 call	 ??$_Cons_val@V?$allocator@U?$pair@$$CBKPAVioUIRenderImage@@@std@@@std@@U?$pair@$$CBKPAVioUIRenderImage@@@2@U32@@std@@YAXAAV?$allocator@U?$pair@$$CBKPAVioUIRenderImage@@@std@@@0@PAU?$pair@$$CBKPAVioUIRenderImage@@@0@$$QAU20@@Z ; std::_Cons_val<std::allocator<std::pair<unsigned long const ,ioUIRenderImage *> >,std::pair<unsigned long const ,ioUIRenderImage *>,std::pair<unsigned long const ,ioUIRenderImage *> >
  0001e	83 c4 0c	 add	 esp, 12			; 0000000cH

; 593  : 		_CATCH_ALL
; 594  : 		this->_Alnod.deallocate(_Wherenode, 1);
; 595  : 		_RERAISE;
; 596  : 		_CATCH_END
; 597  : 
; 598  : 		return (_Wherenode);

  00021	8b c7		 mov	 eax, edi
  00023	5f		 pop	 edi
  00024	5e		 pop	 esi

; 599  : 		}

  00025	5d		 pop	 ebp
  00026	c2 04 00	 ret	 4
??$_Buynode@U?$pair@$$CBKPAVioUIRenderImage@@@std@@@?$_Tree_val@V?$_Tmap_traits@KPAVioUIRenderImage@@U?$less@K@std@@V?$allocator@U?$pair@$$CBKPAVioUIRenderImage@@@std@@@3@$0A@@std@@@std@@QAEPAU_Node@?$_Tree_nod@V?$_Tmap_traits@KPAVioUIRenderImage@@U?$less@K@std@@V?$allocator@U?$pair@$$CBKPAVioUIRenderImage@@@std@@@3@$0A@@std@@@1@$$QAU?$pair@$$CBKPAVioUIRenderImage@@@1@@Z ENDP ; std::_Tree_val<std::_Tmap_traits<unsigned long,ioUIRenderImage *,std::less<unsigned long>,std::allocator<std::pair<unsigned long const ,ioUIRenderImage *> >,0> >::_Buynode<std::pair<unsigned long const ,ioUIRenderImage *> >
_TEXT	ENDS
PUBLIC	??_C@_0O@NIPGIIPO@?$CFs?$CFd_?$CFd_s?4jpg?$AA@	; `string'
PUBLIC	??_C@_0P@CJCFHMGK@?$CFs?1?$CFd_?$CFd_s?4jpg?$AA@ ; `string'
PUBLIC	??_C@_0O@CKHGDILA@?$CFs?$CFd_?$CFd_l?4jpg?$AA@	; `string'
PUBLIC	??_C@_0P@NLKFMMCE@?$CFs?1?$CFd_?$CFd_l?4jpg?$AA@ ; `string'
PUBLIC	_dwGuildMark$GSCopy$
PUBLIC	_dwGuildIndex$GSCopy$
PUBLIC	?AddLoadGuildMark@ioGuildMarkMgr@@IAEXKK_N@Z	; ioGuildMarkMgr::AddLoadGuildMark
EXTRN	__imp_?AddTask@ioThreadTaskManager@@QAEXPAVIThreadTask@@@Z:PROC
EXTRN	__imp_?GetInstance@ioThreadTaskManager@@SAAAV1@XZ:PROC
EXTRN	__imp__sprintf:PROC
EXTRN	__imp_?GetLoopSec@ioFrameTimer@@QBEKXZ:PROC
EXTRN	__imp_?GetSingleton@ioFrameTimer@@SAAAV1@XZ:PROC
EXTRN	__imp_?IsEmpty@ioHashString@@QBE_NXZ:PROC
EXTRN	__EH_epilog3_GS:PROC
EXTRN	__EH_prolog3_GS:PROC
EXTRN	_memset:PROC
;	COMDAT ??_C@_0O@NIPGIIPO@?$CFs?$CFd_?$CFd_s?4jpg?$AA@
; File c:\program files (x86)\microsoft visual studio 10.0\vc\include\xutility
CONST	SEGMENT
??_C@_0O@NIPGIIPO@?$CFs?$CFd_?$CFd_s?4jpg?$AA@ DB '%s%d_%d_s.jpg', 00H ; `string'
CONST	ENDS
;	COMDAT ??_C@_0P@CJCFHMGK@?$CFs?1?$CFd_?$CFd_s?4jpg?$AA@
CONST	SEGMENT
??_C@_0P@CJCFHMGK@?$CFs?1?$CFd_?$CFd_s?4jpg?$AA@ DB '%s/%d_%d_s.jpg', 00H ; `string'
CONST	ENDS
;	COMDAT ??_C@_0O@CKHGDILA@?$CFs?$CFd_?$CFd_l?4jpg?$AA@
CONST	SEGMENT
??_C@_0O@CKHGDILA@?$CFs?$CFd_?$CFd_l?4jpg?$AA@ DB '%s%d_%d_l.jpg', 00H ; `string'
CONST	ENDS
;	COMDAT ??_C@_0P@NLKFMMCE@?$CFs?1?$CFd_?$CFd_l?4jpg?$AA@
CONST	SEGMENT
??_C@_0P@NLKFMMCE@?$CFs?1?$CFd_?$CFd_l?4jpg?$AA@ DB '%s/%d_%d_l.jpg', 00H ; `string'
CONST	ENDS
;	COMDAT xdata$x
xdata$x	SEGMENT
__unwindtable$?AddLoadGuildMark@ioGuildMarkMgr@@IAEXKK_N@Z DD 0ffffffffH
	DD	FLAT:__unwindfunclet$?AddLoadGuildMark@ioGuildMarkMgr@@IAEXKK_N@Z$0
__ehfuncinfo$?AddLoadGuildMark@ioGuildMarkMgr@@IAEXKK_N@Z DD 019930522H
	DD	01H
	DD	FLAT:__unwindtable$?AddLoadGuildMark@ioGuildMarkMgr@@IAEXKK_N@Z
	DD	2 DUP(00H)
	DD	2 DUP(00H)
	DD	00H
	DD	01H
; Function compile flags: /Ogsp
; File d:\lost saga for developer\youtube\tutorial\source\src\lsclient\ioguildmarkmgr.cpp
xdata$x	ENDS
;	COMDAT ?AddLoadGuildMark@ioGuildMarkMgr@@IAEXKK_N@Z
_TEXT	SEGMENT
$T517260 = -548						; size = 4
_dwGuildIndex$GSCopy$ = -544				; size = 4
_dwGuildMark$GSCopy$ = -540				; size = 4
_szFullURL$506243 = -536				; size = 260
_szFullName$506242 = -276				; size = 260
__$EHRec$ = -12						; size = 12
_dwGuildIndex$ = 8					; size = 4
_dwGuildMark$ = 12					; size = 4
_bLarge$ = 16						; size = 1
?AddLoadGuildMark@ioGuildMarkMgr@@IAEXKK_N@Z PROC	; ioGuildMarkMgr::AddLoadGuildMark, COMDAT
; _this$ = ecx

; 112  : {

  00000	68 18 02 00 00	 push	 536			; 00000218H
  00005	b8 00 00 00 00	 mov	 eax, __ehhandler$?AddLoadGuildMark@ioGuildMarkMgr@@IAEXKK_N@Z
  0000a	e8 00 00 00 00	 call	 __EH_prolog3_GS
  0000f	8b 5d 08	 mov	 ebx, DWORD PTR _dwGuildIndex$[ebp]

; 140  : 			sprintf( szFullURL, "%s%d_%d_s.jpg", m_szLoadingMarkURL.c_str(), dwGuildIndex, dwGuildMark );

  00012	8b 45 0c	 mov	 eax, DWORD PTR _dwGuildMark$[ebp]
  00015	8b f1		 mov	 esi, ecx
  00017	89 9d e0 fd ff
	ff		 mov	 DWORD PTR _dwGuildIndex$GSCopy$[ebp], ebx
  0001d	89 85 e4 fd ff
	ff		 mov	 DWORD PTR _dwGuildMark$GSCopy$[ebp], eax
  00023	85 db		 test	 ebx, ebx
  00025	0f 84 60 01 00
	00		 je	 $LN6@AddLoadGui

; 113  : 	if( dwGuildIndex == 0 || m_szLoadingMarkURL.IsEmpty() )

  0002b	8d 8e 94 00 00
	00		 lea	 ecx, DWORD PTR [esi+148]
  00031	ff 15 00 00 00
	00		 call	 DWORD PTR __imp_?IsEmpty@ioHashString@@QBE_NXZ
  00037	84 c0		 test	 al, al
  00039	0f 85 4c 01 00
	00		 jne	 $LN6@AddLoadGui

; 114  : 		return;
; 115  : 
; 116  : 	if( IsAlreadyLoadData( dwGuildIndex ) )

  0003f	53		 push	 ebx
  00040	8b ce		 mov	 ecx, esi
  00042	e8 00 00 00 00	 call	 ?IsAlreadyLoadData@ioGuildMarkMgr@@IAE_NK@Z ; ioGuildMarkMgr::IsAlreadyLoadData
  00047	84 c0		 test	 al, al
  00049	0f 85 3c 01 00
	00		 jne	 $LN6@AddLoadGui

; 117  : 		return;
; 118  : 
; 119  : //       
; 120  : #if defined( SRC_OVERSEAS )
; 121  : 	if( FRAMEGETTIME() - m_dwRequestTick > 5000 )

  0004f	8b 3d 00 00 00
	00		 mov	 edi, DWORD PTR __imp_?GetSingleton@ioFrameTimer@@SAAAV1@XZ
  00055	ff d7		 call	 edi
  00057	8b c8		 mov	 ecx, eax
  00059	ff 15 00 00 00
	00		 call	 DWORD PTR __imp_?GetLoopSec@ioFrameTimer@@QBEKXZ
  0005f	2b 46 70	 sub	 eax, DWORD PTR [esi+112]
  00062	3d 88 13 00 00	 cmp	 eax, 5000		; 00001388H
  00067	0f 86 1e 01 00
	00		 jbe	 $LN6@AddLoadGui

; 122  : #endif
; 123  : 	{
; 124  : 
; 125  : #if defined( SRC_OVERSEAS )
; 126  : 		m_dwRequestTick = FRAMEGETTIME();

  0006d	ff d7		 call	 edi
  0006f	8b c8		 mov	 ecx, eax
  00071	ff 15 00 00 00
	00		 call	 DWORD PTR __imp_?GetLoopSec@ioFrameTimer@@QBEKXZ

; 127  : #endif
; 128  : 
; 129  : 		char szFullName[MAX_PATH] = "";

  00077	bf 03 01 00 00	 mov	 edi, 259		; 00000103H
  0007c	57		 push	 edi
  0007d	89 46 70	 mov	 DWORD PTR [esi+112], eax
  00080	8d 85 ed fe ff
	ff		 lea	 eax, DWORD PTR _szFullName$506242[ebp+1]
  00086	6a 00		 push	 0
  00088	50		 push	 eax
  00089	c6 85 ec fe ff
	ff 00		 mov	 BYTE PTR _szFullName$506242[ebp], 0
  00090	e8 00 00 00 00	 call	 _memset

; 130  : 		char szFullURL[MAX_PATH] = "";

  00095	57		 push	 edi
  00096	8d 85 e9 fd ff
	ff		 lea	 eax, DWORD PTR _szFullURL$506243[ebp+1]
  0009c	6a 00		 push	 0
  0009e	50		 push	 eax
  0009f	c6 85 e8 fd ff
	ff 00		 mov	 BYTE PTR _szFullURL$506243[ebp], 0
  000a6	e8 00 00 00 00	 call	 _memset
  000ab	83 c4 18	 add	 esp, 24			; 00000018H

; 131  : 
; 132  : 		if( bLarge )
; 133  : 		{
; 134  : 			sprintf( szFullName, "%s/%d_%d_l.jpg", m_szAppDirectory.c_str(), dwGuildIndex, dwGuildMark );

  000ae	ff b5 e4 fd ff
	ff		 push	 DWORD PTR _dwGuildMark$GSCopy$[ebp]
  000b4	8d 8e a4 00 00
	00		 lea	 ecx, DWORD PTR [esi+164]
  000ba	53		 push	 ebx
  000bb	ff 15 00 00 00
	00		 call	 DWORD PTR __imp_?c_str@ioHashString@@QBEPBDXZ
  000c1	80 7d 10 00	 cmp	 BYTE PTR _bLarge$[ebp], 0
  000c5	8b 3d 00 00 00
	00		 mov	 edi, DWORD PTR __imp__sprintf
  000cb	50		 push	 eax
  000cc	8d 85 ec fe ff
	ff		 lea	 eax, DWORD PTR _szFullName$506242[ebp]
  000d2	74 26		 je	 SHORT $LN3@AddLoadGui
  000d4	68 00 00 00 00	 push	 OFFSET ??_C@_0P@NLKFMMCE@?$CFs?1?$CFd_?$CFd_l?4jpg?$AA@
  000d9	50		 push	 eax
  000da	ff d7		 call	 edi
  000dc	83 c4 14	 add	 esp, 20			; 00000014H

; 135  : 			sprintf( szFullURL, "%s%d_%d_l.jpg", m_szLoadingMarkURL.c_str(), dwGuildIndex, dwGuildMark );

  000df	ff b5 e4 fd ff
	ff		 push	 DWORD PTR _dwGuildMark$GSCopy$[ebp]
  000e5	8d 8e 94 00 00
	00		 lea	 ecx, DWORD PTR [esi+148]
  000eb	53		 push	 ebx
  000ec	ff 15 00 00 00
	00		 call	 DWORD PTR __imp_?c_str@ioHashString@@QBEPBDXZ
  000f2	50		 push	 eax
  000f3	68 00 00 00 00	 push	 OFFSET ??_C@_0O@CKHGDILA@?$CFs?$CFd_?$CFd_l?4jpg?$AA@

; 136  : 		}
; 137  : 		else

  000f8	eb 24		 jmp	 SHORT $LN26@AddLoadGui
$LN3@AddLoadGui:

; 138  : 		{
; 139  : 			sprintf( szFullName, "%s/%d_%d_s.jpg", m_szAppDirectory.c_str(), dwGuildIndex, dwGuildMark );

  000fa	68 00 00 00 00	 push	 OFFSET ??_C@_0P@CJCFHMGK@?$CFs?1?$CFd_?$CFd_s?4jpg?$AA@
  000ff	50		 push	 eax
  00100	ff d7		 call	 edi
  00102	83 c4 14	 add	 esp, 20			; 00000014H

; 140  : 			sprintf( szFullURL, "%s%d_%d_s.jpg", m_szLoadingMarkURL.c_str(), dwGuildIndex, dwGuildMark );

  00105	ff b5 e4 fd ff
	ff		 push	 DWORD PTR _dwGuildMark$GSCopy$[ebp]
  0010b	8d 8e 94 00 00
	00		 lea	 ecx, DWORD PTR [esi+148]
  00111	53		 push	 ebx
  00112	ff 15 00 00 00
	00		 call	 DWORD PTR __imp_?c_str@ioHashString@@QBEPBDXZ
  00118	50		 push	 eax
  00119	68 00 00 00 00	 push	 OFFSET ??_C@_0O@NIPGIIPO@?$CFs?$CFd_?$CFd_s?4jpg?$AA@
$LN26@AddLoadGui:
  0011e	8d 85 e8 fd ff
	ff		 lea	 eax, DWORD PTR _szFullURL$506243[ebp]
  00124	50		 push	 eax
  00125	ff d7		 call	 edi
  00127	83 c4 14	 add	 esp, 20			; 00000014H

; 141  : 		}
; 142  : 
; 143  : 		ioGuildMarkTask *pTask = new ioGuildMarkTask( szFullName,
; 144  : 													  szFullURL,
; 145  : 													  dwGuildIndex,
; 146  : 													  dwGuildMark );

  0012a	6a 30		 push	 48			; 00000030H
  0012c	e8 00 00 00 00	 call	 ??2@YAPAXI@Z		; operator new
  00131	59		 pop	 ecx
  00132	89 85 dc fd ff
	ff		 mov	 DWORD PTR $T517260[ebp], eax
  00138	33 ff		 xor	 edi, edi
  0013a	89 7d fc	 mov	 DWORD PTR __$EHRec$[ebp+8], edi
  0013d	3b c7		 cmp	 eax, edi
  0013f	74 1e		 je	 SHORT $LN10@AddLoadGui
  00141	ff b5 e4 fd ff
	ff		 push	 DWORD PTR _dwGuildMark$GSCopy$[ebp]
  00147	8d 8d e8 fd ff
	ff		 lea	 ecx, DWORD PTR _szFullURL$506243[ebp]
  0014d	53		 push	 ebx
  0014e	51		 push	 ecx
  0014f	8d 8d ec fe ff
	ff		 lea	 ecx, DWORD PTR _szFullName$506242[ebp]
  00155	51		 push	 ecx
  00156	8b c8		 mov	 ecx, eax
  00158	e8 00 00 00 00	 call	 ??0ioGuildMarkTask@@QAE@PBD0KK@Z ; ioGuildMarkTask::ioGuildMarkTask
  0015d	8b f8		 mov	 edi, eax
$LN10@AddLoadGui:
  0015f	83 4d fc ff	 or	 DWORD PTR __$EHRec$[ebp+8], -1

; 147  : 		if( pTask )

  00163	85 ff		 test	 edi, edi
  00165	74 24		 je	 SHORT $LN6@AddLoadGui

; 148  : 		{
; 149  : 			m_LoadingMarkList.push_back( dwGuildIndex );

  00167	8d 8e b4 00 00
	00		 lea	 ecx, DWORD PTR [esi+180]
  0016d	8b 01		 mov	 eax, DWORD PTR [ecx]
  0016f	8d 95 e0 fd ff
	ff		 lea	 edx, DWORD PTR _dwGuildIndex$GSCopy$[ebp]
  00175	52		 push	 edx
  00176	50		 push	 eax
  00177	e8 00 00 00 00	 call	 ?_Insert@?$list@KV?$allocator@K@std@@@std@@QAEXV?$_List_const_iterator@V?$_List_val@KV?$allocator@K@std@@@std@@@2@ABK@Z ; std::list<unsigned long,std::allocator<unsigned long> >::_Insert

; 150  : 			g_ThreadTaskMgr.AddTask( pTask );

  0017c	57		 push	 edi
  0017d	ff 15 00 00 00
	00		 call	 DWORD PTR __imp_?GetInstance@ioThreadTaskManager@@SAAAV1@XZ
  00183	8b c8		 mov	 ecx, eax
  00185	ff 15 00 00 00
	00		 call	 DWORD PTR __imp_?AddTask@ioThreadTaskManager@@QAEXPAVIThreadTask@@@Z
$LN6@AddLoadGui:

; 151  : 		}
; 152  : 	}
; 153  : }

  0018b	e8 00 00 00 00	 call	 __EH_epilog3_GS
  00190	c2 0c 00	 ret	 12			; 0000000cH
_TEXT	ENDS
;	COMDAT text$x
text$x	SEGMENT
__unwindfunclet$?AddLoadGuildMark@ioGuildMarkMgr@@IAEXKK_N@Z$0:
  00000	ff b5 dc fd ff
	ff		 push	 DWORD PTR $T517260[ebp]
  00006	e8 00 00 00 00	 call	 ??3@YAXPAX@Z		; operator delete
  0000b	59		 pop	 ecx
  0000c	c3		 ret	 0
__ehhandler$?AddLoadGuildMark@ioGuildMarkMgr@@IAEXKK_N@Z:
  0000d	8b 54 24 08	 mov	 edx, DWORD PTR [esp+8]
  00011	8d 42 0c	 lea	 eax, DWORD PTR [edx+12]
  00014	8b 8a d8 fd ff
	ff		 mov	 ecx, DWORD PTR [edx-552]
  0001a	33 c8		 xor	 ecx, eax
  0001c	e8 00 00 00 00	 call	 @__security_check_cookie@4
  00021	8b 4a fc	 mov	 ecx, DWORD PTR [edx-4]
  00024	33 c8		 xor	 ecx, eax
  00026	e8 00 00 00 00	 call	 @__security_check_cookie@4
  0002b	b8 00 00 00 00	 mov	 eax, OFFSET __ehfuncinfo$?AddLoadGuildMark@ioGuildMarkMgr@@IAEXKK_N@Z
  00030	e9 00 00 00 00	 jmp	 ___CxxFrameHandler3
text$x	ENDS
?AddLoadGuildMark@ioGuildMarkMgr@@IAEXKK_N@Z ENDP	; ioGuildMarkMgr::AddLoadGuildMark
PUBLIC	?ClearGuildMarkList@ioGuildMarkMgr@@IAEXXZ	; ioGuildMarkMgr::ClearGuildMarkList
; Function compile flags: /Ogsp
;	COMDAT ?ClearGuildMarkList@ioGuildMarkMgr@@IAEXXZ
_TEXT	SEGMENT
$T518401 = -8						; size = 4
$T518232 = -8						; size = 4
$T518064 = -8						; size = 4
$T517895 = -8						; size = 4
_pCustom$506717 = -8					; size = 4
_pCustom$506705 = -8					; size = 4
_pCustom$506698 = -8					; size = 4
_iEnd$ = -4						; size = 4
_iCreate$ = -4						; size = 4
?ClearGuildMarkList@ioGuildMarkMgr@@IAEXXZ PROC		; ioGuildMarkMgr::ClearGuildMarkList, COMDAT
; _this$ = ecx

; 156  : {

  00000	55		 push	 ebp
  00001	8b ec		 mov	 ebp, esp
  00003	51		 push	 ecx
  00004	51		 push	 ecx
  00005	53		 push	 ebx
  00006	56		 push	 esi
  00007	8b f1		 mov	 esi, ecx

; 157  : 	GuildMarkMap::iterator iCreate;
; 158  : 	for( iCreate = m_GuildSmallMarkMap.begin() ; iCreate != m_GuildSmallMarkMap.end() ; ++iCreate )

  00009	8b 46 08	 mov	 eax, DWORD PTR [esi+8]
  0000c	57		 push	 edi
  0000d	8b 38		 mov	 edi, DWORD PTR [eax]
  0000f	89 7d fc	 mov	 DWORD PTR _iCreate$[ebp], edi
  00012	3b f8		 cmp	 edi, eax
  00014	74 22		 je	 SHORT $LN373@ClearGuild@2
$LL57@ClearGuild@2:

; 159  : 	{
; 160  : 		SAFEDELETE( iCreate->second );

  00016	8b 4f 10	 mov	 ecx, DWORD PTR [edi+16]
  00019	85 c9		 test	 ecx, ecx
  0001b	74 0b		 je	 SHORT $LN23@ClearGuild@2
  0001d	8b 01		 mov	 eax, DWORD PTR [ecx]
  0001f	6a 01		 push	 1
  00021	ff 50 40	 call	 DWORD PTR [eax+64]
  00024	83 67 10 00	 and	 DWORD PTR [edi+16], 0
$LN23@ClearGuild@2:

; 157  : 	GuildMarkMap::iterator iCreate;
; 158  : 	for( iCreate = m_GuildSmallMarkMap.begin() ; iCreate != m_GuildSmallMarkMap.end() ; ++iCreate )

  00028	8d 4d fc	 lea	 ecx, DWORD PTR _iCreate$[ebp]
  0002b	e8 00 00 00 00	 call	 ??E?$_Tree_unchecked_const_iterator@V?$_Tree_val@V?$_Tmap_traits@KPAVioUIRenderImage@@U?$less@K@std@@V?$allocator@U?$pair@$$CBKPAVioUIRenderImage@@@std@@@3@$0A@@std@@@std@@U_Iterator_base0@2@@std@@QAEAAV01@XZ ; std::_Tree_unchecked_const_iterator<std::_Tree_val<std::_Tmap_traits<unsigned long,ioUIRenderImage *,std::less<unsigned long>,std::allocator<std::pair<unsigned long const ,ioUIRenderImage *> >,0> >,std::_Iterator_base0>::operator++
  00030	8b 7d fc	 mov	 edi, DWORD PTR _iCreate$[ebp]
  00033	3b 7e 08	 cmp	 edi, DWORD PTR [esi+8]
  00036	75 de		 jne	 SHORT $LL57@ClearGuild@2
$LN373@ClearGuild@2:

; 161  : 	}
; 162  : 	m_GuildSmallMarkMap.clear();

  00038	8d 4e 04	 lea	 ecx, DWORD PTR [esi+4]
  0003b	e8 00 00 00 00	 call	 ?clear@?$_Tree@V?$_Tmap_traits@KPAVioUIRenderImage@@U?$less@K@std@@V?$allocator@U?$pair@$$CBKPAVioUIRenderImage@@@std@@@3@$0A@@std@@@std@@QAEXXZ ; std::_Tree<std::_Tmap_traits<unsigned long,ioUIRenderImage *,std::less<unsigned long>,std::allocator<std::pair<unsigned long const ,ioUIRenderImage *> >,0> >::clear

; 163  : 
; 164  : 	for( iCreate = m_GuildBigMarkMap.begin() ; iCreate != m_GuildBigMarkMap.end() ; ++iCreate )

  00040	8b 46 18	 mov	 eax, DWORD PTR [esi+24]
  00043	8b 38		 mov	 edi, DWORD PTR [eax]
  00045	89 7d fc	 mov	 DWORD PTR _iCreate$[ebp], edi
  00048	3b f8		 cmp	 edi, eax
  0004a	74 22		 je	 SHORT $LN18@ClearGuild@2
$LL113@ClearGuild@2:

; 165  : 	{
; 166  : 		SAFEDELETE( iCreate->second );

  0004c	8b 4f 10	 mov	 ecx, DWORD PTR [edi+16]
  0004f	85 c9		 test	 ecx, ecx
  00051	74 0b		 je	 SHORT $LN19@ClearGuild@2
  00053	8b 01		 mov	 eax, DWORD PTR [ecx]
  00055	6a 01		 push	 1
  00057	ff 50 40	 call	 DWORD PTR [eax+64]
  0005a	83 67 10 00	 and	 DWORD PTR [edi+16], 0
$LN19@ClearGuild@2:

; 163  : 
; 164  : 	for( iCreate = m_GuildBigMarkMap.begin() ; iCreate != m_GuildBigMarkMap.end() ; ++iCreate )

  0005e	8d 4d fc	 lea	 ecx, DWORD PTR _iCreate$[ebp]
  00061	e8 00 00 00 00	 call	 ??E?$_Tree_unchecked_const_iterator@V?$_Tree_val@V?$_Tmap_traits@KPAVioUIRenderImage@@U?$less@K@std@@V?$allocator@U?$pair@$$CBKPAVioUIRenderImage@@@std@@@3@$0A@@std@@@std@@U_Iterator_base0@2@@std@@QAEAAV01@XZ ; std::_Tree_unchecked_const_iterator<std::_Tree_val<std::_Tmap_traits<unsigned long,ioUIRenderImage *,std::less<unsigned long>,std::allocator<std::pair<unsigned long const ,ioUIRenderImage *> >,0> >,std::_Iterator_base0>::operator++
  00066	8b 7d fc	 mov	 edi, DWORD PTR _iCreate$[ebp]
  00069	3b 7e 18	 cmp	 edi, DWORD PTR [esi+24]
  0006c	75 de		 jne	 SHORT $LL113@ClearGuild@2
$LN18@ClearGuild@2:

; 167  : 	}
; 168  : 	m_GuildBigMarkMap.clear();

  0006e	8d 4e 14	 lea	 ecx, DWORD PTR [esi+20]
  00071	e8 00 00 00 00	 call	 ?clear@?$_Tree@V?$_Tmap_traits@KPAVioUIRenderImage@@U?$less@K@std@@V?$allocator@U?$pair@$$CBKPAVioUIRenderImage@@@std@@@3@$0A@@std@@@std@@QAEXXZ ; std::_Tree<std::_Tmap_traits<unsigned long,ioUIRenderImage *,std::less<unsigned long>,std::allocator<std::pair<unsigned long const ,ioUIRenderImage *> >,0> >::clear

; 169  : 
; 170  : 	vCustomMarkData_Iter iter,iEnd;
; 171  : 
; 172  : 	iEnd = m_CustomBigMarkList.end();

  00076	8b 46 3c	 mov	 eax, DWORD PTR [esi+60]

; 173  : 	for(iter = m_CustomBigMarkList.begin();iter != iEnd;iter++)

  00079	8b 5e 38	 mov	 ebx, DWORD PTR [esi+56]
  0007c	89 45 fc	 mov	 DWORD PTR _iEnd$[ebp], eax
  0007f	3b d8		 cmp	 ebx, eax
  00081	74 19		 je	 SHORT $LN14@ClearGuild@2
$LL181@ClearGuild@2:

; 174  : 	{
; 175  : 		CustomMarkData *pCustom = *iter;

  00083	8b 03		 mov	 eax, DWORD PTR [ebx]
  00085	89 45 f8	 mov	 DWORD PTR _pCustom$506698[ebp], eax

; 176  : 		m_CustomBigMarkPool.push_back( pCustom );

  00088	8d 45 f8	 lea	 eax, DWORD PTR _pCustom$506698[ebp]
  0008b	50		 push	 eax
  0008c	8d 4e 28	 lea	 ecx, DWORD PTR [esi+40]
  0008f	e8 00 00 00 00	 call	 ?push_back@?$vector@PAUCustomMarkData@ioGuildMarkMgr@@V?$allocator@PAUCustomMarkData@ioGuildMarkMgr@@@std@@@std@@QAEXABQAUCustomMarkData@ioGuildMarkMgr@@@Z ; std::vector<ioGuildMarkMgr::CustomMarkData *,std::allocator<ioGuildMarkMgr::CustomMarkData *> >::push_back
  00094	83 c3 04	 add	 ebx, 4
  00097	3b 5d fc	 cmp	 ebx, DWORD PTR _iEnd$[ebp]
  0009a	75 e7		 jne	 SHORT $LL181@ClearGuild@2
$LN14@ClearGuild@2:

; 177  : 	}
; 178  : 	m_CustomBigMarkList.clear();

  0009c	8b 46 3c	 mov	 eax, DWORD PTR [esi+60]
  0009f	8b 4e 38	 mov	 ecx, DWORD PTR [esi+56]
  000a2	50		 push	 eax
  000a3	51		 push	 ecx
  000a4	8d 45 f8	 lea	 eax, DWORD PTR $T517895[ebp]
  000a7	50		 push	 eax
  000a8	8d 4e 38	 lea	 ecx, DWORD PTR [esi+56]
  000ab	e8 00 00 00 00	 call	 ?erase@?$vector@PAUCustomMarkData@ioGuildMarkMgr@@V?$allocator@PAUCustomMarkData@ioGuildMarkMgr@@@std@@@std@@QAE?AV?$_Vector_iterator@V?$_Vector_val@PAUCustomMarkData@ioGuildMarkMgr@@V?$allocator@PAUCustomMarkData@ioGuildMarkMgr@@@std@@@std@@@2@V?$_Vector_const_iterator@V?$_Vector_val@PAUCustomMarkData@ioGuildMarkMgr@@V?$allocator@PAUCustomMarkData@ioGuildMarkMgr@@@std@@@std@@@2@0@Z ; std::vector<ioGuildMarkMgr::CustomMarkData *,std::allocator<ioGuildMarkMgr::CustomMarkData *> >::erase

; 179  : 
; 180  : 	iEnd = m_CustomBigMarkPool.end();

  000b0	8b 46 2c	 mov	 eax, DWORD PTR [esi+44]

; 181  : 	for(iter = m_CustomBigMarkPool.begin();iter != iEnd;iter++)

  000b3	8b 5e 28	 mov	 ebx, DWORD PTR [esi+40]
  000b6	89 45 fc	 mov	 DWORD PTR _iEnd$[ebp], eax
  000b9	3b d8		 cmp	 ebx, eax
  000bb	74 29		 je	 SHORT $LN11@ClearGuild@2
$LL231@ClearGuild@2:

; 182  : 	{
; 183  : 		CustomMarkData *pCustom = *iter;

  000bd	8b 03		 mov	 eax, DWORD PTR [ebx]

; 184  : 		SAFEDELETE( pCustom->m_pCustomMark );

  000bf	8b 48 08	 mov	 ecx, DWORD PTR [eax+8]
  000c2	89 45 f8	 mov	 DWORD PTR _pCustom$506705[ebp], eax
  000c5	85 c9		 test	 ecx, ecx
  000c7	74 0e		 je	 SHORT $LN10@ClearGuild@2
  000c9	8b 01		 mov	 eax, DWORD PTR [ecx]
  000cb	6a 01		 push	 1
  000cd	ff 50 40	 call	 DWORD PTR [eax+64]
  000d0	8b 45 f8	 mov	 eax, DWORD PTR _pCustom$506705[ebp]
  000d3	83 60 08 00	 and	 DWORD PTR [eax+8], 0
$LN10@ClearGuild@2:

; 185  : 		SAFEDELETE( pCustom );

  000d7	50		 push	 eax
  000d8	e8 00 00 00 00	 call	 ??3@YAXPAX@Z		; operator delete
  000dd	83 c3 04	 add	 ebx, 4
  000e0	59		 pop	 ecx
  000e1	3b 5d fc	 cmp	 ebx, DWORD PTR _iEnd$[ebp]
  000e4	75 d7		 jne	 SHORT $LL231@ClearGuild@2
$LN11@ClearGuild@2:

; 186  : 	}
; 187  : 	m_CustomBigMarkPool.clear();	

  000e6	8b 46 2c	 mov	 eax, DWORD PTR [esi+44]
  000e9	8b 4e 28	 mov	 ecx, DWORD PTR [esi+40]
  000ec	50		 push	 eax
  000ed	51		 push	 ecx
  000ee	8d 45 f8	 lea	 eax, DWORD PTR $T518064[ebp]
  000f1	50		 push	 eax
  000f2	8d 4e 28	 lea	 ecx, DWORD PTR [esi+40]
  000f5	e8 00 00 00 00	 call	 ?erase@?$vector@PAUCustomMarkData@ioGuildMarkMgr@@V?$allocator@PAUCustomMarkData@ioGuildMarkMgr@@@std@@@std@@QAE?AV?$_Vector_iterator@V?$_Vector_val@PAUCustomMarkData@ioGuildMarkMgr@@V?$allocator@PAUCustomMarkData@ioGuildMarkMgr@@@std@@@std@@@2@V?$_Vector_const_iterator@V?$_Vector_val@PAUCustomMarkData@ioGuildMarkMgr@@V?$allocator@PAUCustomMarkData@ioGuildMarkMgr@@@std@@@std@@@2@0@Z ; std::vector<ioGuildMarkMgr::CustomMarkData *,std::allocator<ioGuildMarkMgr::CustomMarkData *> >::erase

; 188  : 
; 189  : 	iEnd = m_CustomSmallMarkList.end();

  000fa	8b 46 5c	 mov	 eax, DWORD PTR [esi+92]

; 190  : 	for(iter = m_CustomSmallMarkList.begin();iter != iEnd;iter++)

  000fd	8b 5e 58	 mov	 ebx, DWORD PTR [esi+88]
  00100	89 45 fc	 mov	 DWORD PTR _iEnd$[ebp], eax
  00103	3b d8		 cmp	 ebx, eax
  00105	74 19		 je	 SHORT $LN6@ClearGuild@2
$LL281@ClearGuild@2:

; 191  : 	{
; 192  : 		CustomMarkData *pCustom = *iter;

  00107	8b 03		 mov	 eax, DWORD PTR [ebx]
  00109	89 45 f8	 mov	 DWORD PTR _pCustom$506717[ebp], eax

; 193  : 		m_CustomSmallMarkPool.push_back( pCustom );

  0010c	8d 45 f8	 lea	 eax, DWORD PTR _pCustom$506717[ebp]
  0010f	50		 push	 eax
  00110	8d 4e 48	 lea	 ecx, DWORD PTR [esi+72]
  00113	e8 00 00 00 00	 call	 ?push_back@?$vector@PAUCustomMarkData@ioGuildMarkMgr@@V?$allocator@PAUCustomMarkData@ioGuildMarkMgr@@@std@@@std@@QAEXABQAUCustomMarkData@ioGuildMarkMgr@@@Z ; std::vector<ioGuildMarkMgr::CustomMarkData *,std::allocator<ioGuildMarkMgr::CustomMarkData *> >::push_back
  00118	83 c3 04	 add	 ebx, 4
  0011b	3b 5d fc	 cmp	 ebx, DWORD PTR _iEnd$[ebp]
  0011e	75 e7		 jne	 SHORT $LL281@ClearGuild@2
$LN6@ClearGuild@2:

; 194  : 	}
; 195  : 	m_CustomSmallMarkList.clear();

  00120	8b 46 5c	 mov	 eax, DWORD PTR [esi+92]
  00123	8b 4e 58	 mov	 ecx, DWORD PTR [esi+88]
  00126	50		 push	 eax
  00127	51		 push	 ecx
  00128	8d 45 f8	 lea	 eax, DWORD PTR $T518232[ebp]
  0012b	50		 push	 eax
  0012c	8d 4e 58	 lea	 ecx, DWORD PTR [esi+88]
  0012f	e8 00 00 00 00	 call	 ?erase@?$vector@PAUCustomMarkData@ioGuildMarkMgr@@V?$allocator@PAUCustomMarkData@ioGuildMarkMgr@@@std@@@std@@QAE?AV?$_Vector_iterator@V?$_Vector_val@PAUCustomMarkData@ioGuildMarkMgr@@V?$allocator@PAUCustomMarkData@ioGuildMarkMgr@@@std@@@std@@@2@V?$_Vector_const_iterator@V?$_Vector_val@PAUCustomMarkData@ioGuildMarkMgr@@V?$allocator@PAUCustomMarkData@ioGuildMarkMgr@@@std@@@std@@@2@0@Z ; std::vector<ioGuildMarkMgr::CustomMarkData *,std::allocator<ioGuildMarkMgr::CustomMarkData *> >::erase

; 196  : 
; 197  : 	iEnd = m_CustomSmallMarkPool.end();

  00134	8b 46 4c	 mov	 eax, DWORD PTR [esi+76]

; 198  : 	for(iter = m_CustomSmallMarkPool.begin();iter != iEnd;iter++)

  00137	8b 7e 48	 mov	 edi, DWORD PTR [esi+72]
  0013a	89 45 fc	 mov	 DWORD PTR _iEnd$[ebp], eax
  0013d	3b f8		 cmp	 edi, eax
  0013f	74 23		 je	 SHORT $LN3@ClearGuild@2
$LL331@ClearGuild@2:

; 199  : 	{
; 200  : 		CustomMarkData *pCustom = *iter;

  00141	8b 1f		 mov	 ebx, DWORD PTR [edi]

; 201  : 		SAFEDELETE( pCustom->m_pCustomMark );

  00143	8b 4b 08	 mov	 ecx, DWORD PTR [ebx+8]
  00146	85 c9		 test	 ecx, ecx
  00148	74 0b		 je	 SHORT $LN2@ClearGuild@2
  0014a	8b 01		 mov	 eax, DWORD PTR [ecx]
  0014c	6a 01		 push	 1
  0014e	ff 50 40	 call	 DWORD PTR [eax+64]
  00151	83 63 08 00	 and	 DWORD PTR [ebx+8], 0
$LN2@ClearGuild@2:

; 202  : 		SAFEDELETE( pCustom );

  00155	53		 push	 ebx
  00156	e8 00 00 00 00	 call	 ??3@YAXPAX@Z		; operator delete
  0015b	83 c7 04	 add	 edi, 4
  0015e	59		 pop	 ecx
  0015f	3b 7d fc	 cmp	 edi, DWORD PTR _iEnd$[ebp]
  00162	75 dd		 jne	 SHORT $LL331@ClearGuild@2
$LN3@ClearGuild@2:

; 203  : 	}
; 204  : 	m_CustomSmallMarkPool.clear();	

  00164	8b 46 4c	 mov	 eax, DWORD PTR [esi+76]
  00167	8b 4e 48	 mov	 ecx, DWORD PTR [esi+72]
  0016a	50		 push	 eax
  0016b	51		 push	 ecx
  0016c	8d 45 f8	 lea	 eax, DWORD PTR $T518401[ebp]
  0016f	50		 push	 eax
  00170	8d 4e 48	 lea	 ecx, DWORD PTR [esi+72]
  00173	e8 00 00 00 00	 call	 ?erase@?$vector@PAUCustomMarkData@ioGuildMarkMgr@@V?$allocator@PAUCustomMarkData@ioGuildMarkMgr@@@std@@@std@@QAE?AV?$_Vector_iterator@V?$_Vector_val@PAUCustomMarkData@ioGuildMarkMgr@@V?$allocator@PAUCustomMarkData@ioGuildMarkMgr@@@std@@@std@@@2@V?$_Vector_const_iterator@V?$_Vector_val@PAUCustomMarkData@ioGuildMarkMgr@@V?$allocator@PAUCustomMarkData@ioGuildMarkMgr@@@std@@@std@@@2@0@Z ; std::vector<ioGuildMarkMgr::CustomMarkData *,std::allocator<ioGuildMarkMgr::CustomMarkData *> >::erase
  00178	5f		 pop	 edi
  00179	5e		 pop	 esi
  0017a	5b		 pop	 ebx

; 205  : }

  0017b	c9		 leave
  0017c	c3		 ret	 0
?ClearGuildMarkList@ioGuildMarkMgr@@IAEXXZ ENDP		; ioGuildMarkMgr::ClearGuildMarkList
_TEXT	ENDS
PUBLIC	?GetSmallMarkImageCustomList@ioGuildMarkMgr@@IAEPAVioUIRenderImage@@KK@Z ; ioGuildMarkMgr::GetSmallMarkImageCustomList
; Function compile flags: /Ogsp
;	COMDAT ?GetSmallMarkImageCustomList@ioGuildMarkMgr@@IAEPAVioUIRenderImage@@KK@Z
_TEXT	SEGMENT
_pCustom$507837 = -4					; size = 4
$T518439 = 8						; size = 4
_dwGuildIndex$ = 8					; size = 4
_dwGuildMark$ = 12					; size = 4
?GetSmallMarkImageCustomList@ioGuildMarkMgr@@IAEPAVioUIRenderImage@@KK@Z PROC ; ioGuildMarkMgr::GetSmallMarkImageCustomList, COMDAT
; _this$ = ecx

; 404  : {

  00000	55		 push	 ebp
  00001	8b ec		 mov	 ebp, esp
  00003	51		 push	 ecx
  00004	53		 push	 ebx
  00005	56		 push	 esi
  00006	57		 push	 edi
  00007	8b f9		 mov	 edi, ecx

; 405  : 	vCustomMarkData_Iter iter, iEnd;
; 406  : 	iEnd = m_CustomSmallMarkList.end();

  00009	8b 4f 5c	 mov	 ecx, DWORD PTR [edi+92]

; 407  : 	for(iter = m_CustomSmallMarkList.begin();iter != iEnd;iter++)

  0000c	8b 47 58	 mov	 eax, DWORD PTR [edi+88]
  0000f	eb 0f		 jmp	 SHORT $LN54@GetSmallMa@2
$LL37@GetSmallMa@2:

; 408  : 	{
; 409  : 		CustomMarkData *pCustom = *iter;

  00011	8b 30		 mov	 esi, DWORD PTR [eax]

; 410  : 		if( pCustom->m_dwGuildIndex == dwGuildIndex )

  00013	8b 16		 mov	 edx, DWORD PTR [esi]
  00015	89 75 fc	 mov	 DWORD PTR _pCustom$507837[ebp], esi
  00018	3b 55 08	 cmp	 edx, DWORD PTR _dwGuildIndex$[ebp]
  0001b	74 09		 je	 SHORT $LN52@GetSmallMa@2

; 407  : 	for(iter = m_CustomSmallMarkList.begin();iter != iEnd;iter++)

  0001d	83 c0 04	 add	 eax, 4
$LN54@GetSmallMa@2:
  00020	3b c1		 cmp	 eax, ecx
  00022	75 ed		 jne	 SHORT $LL37@GetSmallMa@2

; 410  : 		if( pCustom->m_dwGuildIndex == dwGuildIndex )

  00024	eb 41		 jmp	 SHORT $LN4@GetSmallMa@2
$LN52@GetSmallMa@2:

; 411  : 		{
; 412  : 			if( pCustom->m_dwGuildMark == dwGuildMark )

  00026	8b 4e 04	 mov	 ecx, DWORD PTR [esi+4]
  00029	3b 4d 0c	 cmp	 ecx, DWORD PTR _dwGuildMark$[ebp]

; 413  : 			{
; 414  : 				m_CustomSmallMarkList.erase( iter );

  0002c	50		 push	 eax
  0002d	8d 45 08	 lea	 eax, DWORD PTR $T518439[ebp]
  00030	50		 push	 eax
  00031	8d 4f 58	 lea	 ecx, DWORD PTR [edi+88]
  00034	75 19		 jne	 SHORT $LN2@GetSmallMa@2
  00036	e8 00 00 00 00	 call	 ?erase@?$vector@PAUCustomMarkData@ioGuildMarkMgr@@V?$allocator@PAUCustomMarkData@ioGuildMarkMgr@@@std@@@std@@QAE?AV?$_Vector_iterator@V?$_Vector_val@PAUCustomMarkData@ioGuildMarkMgr@@V?$allocator@PAUCustomMarkData@ioGuildMarkMgr@@@std@@@std@@@2@V?$_Vector_const_iterator@V?$_Vector_val@PAUCustomMarkData@ioGuildMarkMgr@@V?$allocator@PAUCustomMarkData@ioGuildMarkMgr@@@std@@@std@@@2@@Z ; std::vector<ioGuildMarkMgr::CustomMarkData *,std::allocator<ioGuildMarkMgr::CustomMarkData *> >::erase

; 415  : 				m_CustomSmallMarkList.push_back( pCustom );        //    .

  0003b	8d 45 fc	 lea	 eax, DWORD PTR _pCustom$507837[ebp]
  0003e	50		 push	 eax
  0003f	8d 4f 58	 lea	 ecx, DWORD PTR [edi+88]
  00042	e8 00 00 00 00	 call	 ?push_back@?$vector@PAUCustomMarkData@ioGuildMarkMgr@@V?$allocator@PAUCustomMarkData@ioGuildMarkMgr@@@std@@@std@@QAEXABQAUCustomMarkData@ioGuildMarkMgr@@@Z ; std::vector<ioGuildMarkMgr::CustomMarkData *,std::allocator<ioGuildMarkMgr::CustomMarkData *> >::push_back

; 416  : 				return pCustom->m_pCustomMark;

  00047	8b 45 fc	 mov	 eax, DWORD PTR _pCustom$507837[ebp]
  0004a	8b 40 08	 mov	 eax, DWORD PTR [eax+8]
  0004d	eb 1a		 jmp	 SHORT $LN7@GetSmallMa@2
$LN2@GetSmallMa@2:

; 417  : 			}
; 418  : 			else        // 
; 419  : 			{
; 420  : 				m_CustomSmallMarkList.erase( iter );

  0004f	e8 00 00 00 00	 call	 ?erase@?$vector@PAUCustomMarkData@ioGuildMarkMgr@@V?$allocator@PAUCustomMarkData@ioGuildMarkMgr@@@std@@@std@@QAE?AV?$_Vector_iterator@V?$_Vector_val@PAUCustomMarkData@ioGuildMarkMgr@@V?$allocator@PAUCustomMarkData@ioGuildMarkMgr@@@std@@@std@@@2@V?$_Vector_const_iterator@V?$_Vector_val@PAUCustomMarkData@ioGuildMarkMgr@@V?$allocator@PAUCustomMarkData@ioGuildMarkMgr@@@std@@@std@@@2@@Z ; std::vector<ioGuildMarkMgr::CustomMarkData *,std::allocator<ioGuildMarkMgr::CustomMarkData *> >::erase

; 421  : 
; 422  : 				pCustom->Init();

  00054	83 66 04 00	 and	 DWORD PTR [esi+4], 0
  00058	83 26 00	 and	 DWORD PTR [esi], 0

; 423  : 				m_CustomSmallMarkPool.push_back( pCustom );

  0005b	8d 45 fc	 lea	 eax, DWORD PTR _pCustom$507837[ebp]
  0005e	50		 push	 eax
  0005f	8d 4f 48	 lea	 ecx, DWORD PTR [edi+72]
  00062	e8 00 00 00 00	 call	 ?push_back@?$vector@PAUCustomMarkData@ioGuildMarkMgr@@V?$allocator@PAUCustomMarkData@ioGuildMarkMgr@@@std@@@std@@QAEXABQAUCustomMarkData@ioGuildMarkMgr@@@Z ; std::vector<ioGuildMarkMgr::CustomMarkData *,std::allocator<ioGuildMarkMgr::CustomMarkData *> >::push_back
$LN4@GetSmallMa@2:

; 424  : 				return NULL;
; 425  : 			}
; 426  : 		}
; 427  : 	}
; 428  : 	return NULL;

  00067	33 c0		 xor	 eax, eax
$LN7@GetSmallMa@2:
  00069	5f		 pop	 edi
  0006a	5e		 pop	 esi
  0006b	5b		 pop	 ebx

; 429  : }

  0006c	c9		 leave
  0006d	c2 08 00	 ret	 8
?GetSmallMarkImageCustomList@ioGuildMarkMgr@@IAEPAVioUIRenderImage@@KK@Z ENDP ; ioGuildMarkMgr::GetSmallMarkImageCustomList
_TEXT	ENDS
PUBLIC	__$ArrayPad$
PUBLIC	?GetSmallMarkImageCustomCreate@ioGuildMarkMgr@@IAEPAVioUIRenderImage@@KK@Z ; ioGuildMarkMgr::GetSmallMarkImageCustomCreate
EXTRN	__imp_?FillFileImage@ioUIRenderImage@@QAE_NPBDHHPAU_D3DXIMAGE_INFO@@@Z:PROC
; Function compile flags: /Ogsp
;	COMDAT ?GetSmallMarkImageCustomCreate@ioGuildMarkMgr@@IAEPAVioUIRenderImage@@KK@Z
_TEXT	SEGMENT
$T518561 = -272						; size = 4
_pCustom$ = -268					; size = 4
_szBuf$507864 = -264					; size = 260
__$ArrayPad$ = -4					; size = 4
_dwGuildIndex$ = 8					; size = 4
_dwGuildMark$ = 12					; size = 4
?GetSmallMarkImageCustomCreate@ioGuildMarkMgr@@IAEPAVioUIRenderImage@@KK@Z PROC ; ioGuildMarkMgr::GetSmallMarkImageCustomCreate, COMDAT
; _this$ = ecx

; 432  : {

  00000	55		 push	 ebp
  00001	8b ec		 mov	 ebp, esp
  00003	81 ec 10 01 00
	00		 sub	 esp, 272		; 00000110H
  00009	a1 00 00 00 00	 mov	 eax, DWORD PTR ___security_cookie
  0000e	33 c5		 xor	 eax, ebp
  00010	89 45 fc	 mov	 DWORD PTR __$ArrayPad$[ebp], eax
  00013	56		 push	 esi
  00014	57		 push	 edi
  00015	8b f9		 mov	 edi, ecx

; 433  : 	CustomMarkData *pCustom = NULL;
; 434  : 	if( m_CustomSmallMarkPool.empty() )     //  

  00017	8d 4f 48	 lea	 ecx, DWORD PTR [edi+72]
  0001a	8b 01		 mov	 eax, DWORD PTR [ecx]
  0001c	3b 41 04	 cmp	 eax, DWORD PTR [ecx+4]
  0001f	75 1c		 jne	 SHORT $LN5@GetSmallMa@3

; 435  : 	{
; 436  : 		if( m_CustomSmallMarkList.empty() )

  00021	8b 47 58	 mov	 eax, DWORD PTR [edi+88]
  00024	3b 47 5c	 cmp	 eax, DWORD PTR [edi+92]
  00027	75 07		 jne	 SHORT $LN4@GetSmallMa@3

; 437  : 			return NULL;

  00029	33 c0		 xor	 eax, eax
  0002b	e9 ae 00 00 00	 jmp	 $LN6@GetSmallMa@3
$LN4@GetSmallMa@3:

; 438  : 
; 439  : 		vCustomMarkData_Iter iter = m_CustomSmallMarkList.begin();
; 440  : 		pCustom = *iter;

  00030	8b 08		 mov	 ecx, DWORD PTR [eax]
  00032	89 8d f4 fe ff
	ff		 mov	 DWORD PTR _pCustom$[ebp], ecx

; 441  : 		m_CustomSmallMarkList.erase( iter );

  00038	8d 4f 58	 lea	 ecx, DWORD PTR [edi+88]

; 442  : 		m_CustomSmallMarkList.push_back( pCustom );
; 443  : 	}
; 444  : 	else

  0003b	eb 08		 jmp	 SHORT $LN39@GetSmallMa@3
$LN5@GetSmallMa@3:

; 445  : 	{
; 446  : 		vCustomMarkData_Iter iter = m_CustomSmallMarkPool.begin();
; 447  : 		pCustom = *iter;

  0003d	8b 10		 mov	 edx, DWORD PTR [eax]
  0003f	89 95 f4 fe ff
	ff		 mov	 DWORD PTR _pCustom$[ebp], edx
$LN39@GetSmallMa@3:

; 448  : 		m_CustomSmallMarkPool.erase( iter );

  00045	50		 push	 eax
  00046	8d 85 f0 fe ff
	ff		 lea	 eax, DWORD PTR $T518561[ebp]
  0004c	50		 push	 eax
  0004d	e8 00 00 00 00	 call	 ?erase@?$vector@PAUCustomMarkData@ioGuildMarkMgr@@V?$allocator@PAUCustomMarkData@ioGuildMarkMgr@@@std@@@std@@QAE?AV?$_Vector_iterator@V?$_Vector_val@PAUCustomMarkData@ioGuildMarkMgr@@V?$allocator@PAUCustomMarkData@ioGuildMarkMgr@@@std@@@std@@@2@V?$_Vector_const_iterator@V?$_Vector_val@PAUCustomMarkData@ioGuildMarkMgr@@V?$allocator@PAUCustomMarkData@ioGuildMarkMgr@@@std@@@std@@@2@@Z ; std::vector<ioGuildMarkMgr::CustomMarkData *,std::allocator<ioGuildMarkMgr::CustomMarkData *> >::erase

; 449  : 		m_CustomSmallMarkList.push_back( pCustom );

  00052	8d 85 f4 fe ff
	ff		 lea	 eax, DWORD PTR _pCustom$[ebp]
  00058	50		 push	 eax
  00059	8d 4f 58	 lea	 ecx, DWORD PTR [edi+88]
  0005c	e8 00 00 00 00	 call	 ?push_back@?$vector@PAUCustomMarkData@ioGuildMarkMgr@@V?$allocator@PAUCustomMarkData@ioGuildMarkMgr@@@std@@@std@@QAEXABQAUCustomMarkData@ioGuildMarkMgr@@@Z ; std::vector<ioGuildMarkMgr::CustomMarkData *,std::allocator<ioGuildMarkMgr::CustomMarkData *> >::push_back

; 450  : 	}
; 451  : 
; 452  : 	if( pCustom )

  00061	8b b5 f4 fe ff
	ff		 mov	 esi, DWORD PTR _pCustom$[ebp]
  00067	53		 push	 ebx
  00068	33 db		 xor	 ebx, ebx
  0006a	3b f3		 cmp	 esi, ebx
  0006c	74 6d		 je	 SHORT $LN1@GetSmallMa@3

; 453  : 	{
; 454  : 		pCustom->Init();
; 455  : 		pCustom->m_dwGuildIndex = dwGuildIndex;

  0006e	8b 45 08	 mov	 eax, DWORD PTR _dwGuildIndex$[ebp]
  00071	89 06		 mov	 DWORD PTR [esi], eax

; 456  : 		pCustom->m_dwGuildMark  = dwGuildMark;

  00073	8b 45 0c	 mov	 eax, DWORD PTR _dwGuildMark$[ebp]
  00076	89 46 04	 mov	 DWORD PTR [esi+4], eax

; 457  : 		if( pCustom->m_pCustomMark  )

  00079	39 5e 08	 cmp	 DWORD PTR [esi+8], ebx
  0007c	74 5d		 je	 SHORT $LN1@GetSmallMa@3

; 458  : 		{
; 459  : 			char szBuf[MAX_PATH] = "";

  0007e	68 03 01 00 00	 push	 259			; 00000103H
  00083	8d 85 f9 fe ff
	ff		 lea	 eax, DWORD PTR _szBuf$507864[ebp+1]
  00089	53		 push	 ebx
  0008a	50		 push	 eax
  0008b	88 9d f8 fe ff
	ff		 mov	 BYTE PTR _szBuf$507864[ebp], bl
  00091	e8 00 00 00 00	 call	 _memset
  00096	83 c4 0c	 add	 esp, 12			; 0000000cH

; 460  : 			sprintf( szBuf, "%s/%d_%d_s.jpg", m_szAppDirectory.c_str(), dwGuildIndex, dwGuildMark );

  00099	ff 75 0c	 push	 DWORD PTR _dwGuildMark$[ebp]
  0009c	8d 8f a4 00 00
	00		 lea	 ecx, DWORD PTR [edi+164]
  000a2	ff 75 08	 push	 DWORD PTR _dwGuildIndex$[ebp]
  000a5	ff 15 00 00 00
	00		 call	 DWORD PTR __imp_?c_str@ioHashString@@QBEPBDXZ
  000ab	50		 push	 eax
  000ac	8d 85 f8 fe ff
	ff		 lea	 eax, DWORD PTR _szBuf$507864[ebp]
  000b2	68 00 00 00 00	 push	 OFFSET ??_C@_0P@CJCFHMGK@?$CFs?1?$CFd_?$CFd_s?4jpg?$AA@
  000b7	50		 push	 eax
  000b8	ff 15 00 00 00
	00		 call	 DWORD PTR __imp__sprintf

; 461  : 			pCustom->m_pCustomMark->FillFileImage( szBuf, 16, 16 );

  000be	8b 4e 08	 mov	 ecx, DWORD PTR [esi+8]
  000c1	83 c4 14	 add	 esp, 20			; 00000014H
  000c4	53		 push	 ebx
  000c5	6a 10		 push	 16			; 00000010H
  000c7	6a 10		 push	 16			; 00000010H
  000c9	8d 85 f8 fe ff
	ff		 lea	 eax, DWORD PTR _szBuf$507864[ebp]
  000cf	50		 push	 eax
  000d0	ff 15 00 00 00
	00		 call	 DWORD PTR __imp_?FillFileImage@ioUIRenderImage@@QAE_NPBDHHPAU_D3DXIMAGE_INFO@@@Z

; 462  : 			return pCustom->m_pCustomMark;

  000d6	8b 46 08	 mov	 eax, DWORD PTR [esi+8]
  000d9	eb 02		 jmp	 SHORT $LN38@GetSmallMa@3
$LN1@GetSmallMa@3:

; 463  : 		}
; 464  : 	}	
; 465  : 	return NULL;

  000db	33 c0		 xor	 eax, eax
$LN38@GetSmallMa@3:
  000dd	5b		 pop	 ebx
$LN6@GetSmallMa@3:

; 466  : }

  000de	8b 4d fc	 mov	 ecx, DWORD PTR __$ArrayPad$[ebp]
  000e1	5f		 pop	 edi
  000e2	33 cd		 xor	 ecx, ebp
  000e4	5e		 pop	 esi
  000e5	e8 00 00 00 00	 call	 @__security_check_cookie@4
  000ea	c9		 leave
  000eb	c2 08 00	 ret	 8
?GetSmallMarkImageCustomCreate@ioGuildMarkMgr@@IAEPAVioUIRenderImage@@KK@Z ENDP ; ioGuildMarkMgr::GetSmallMarkImageCustomCreate
_TEXT	ENDS
PUBLIC	?GetBigMarkImageCustomList@ioGuildMarkMgr@@IAEPAVioUIRenderImage@@KK@Z ; ioGuildMarkMgr::GetBigMarkImageCustomList
; Function compile flags: /Ogsp
;	COMDAT ?GetBigMarkImageCustomList@ioGuildMarkMgr@@IAEPAVioUIRenderImage@@KK@Z
_TEXT	SEGMENT
_pCustom$507914 = -4					; size = 4
$T518649 = 8						; size = 4
_dwGuildIndex$ = 8					; size = 4
_dwGuildMark$ = 12					; size = 4
?GetBigMarkImageCustomList@ioGuildMarkMgr@@IAEPAVioUIRenderImage@@KK@Z PROC ; ioGuildMarkMgr::GetBigMarkImageCustomList, COMDAT
; _this$ = ecx

; 530  : {

  00000	55		 push	 ebp
  00001	8b ec		 mov	 ebp, esp
  00003	51		 push	 ecx
  00004	53		 push	 ebx
  00005	56		 push	 esi
  00006	57		 push	 edi
  00007	8b f9		 mov	 edi, ecx

; 531  : 	vCustomMarkData_Iter iter, iEnd;
; 532  : 	iEnd = m_CustomBigMarkList.end();

  00009	8b 4f 3c	 mov	 ecx, DWORD PTR [edi+60]

; 533  : 	for(iter = m_CustomBigMarkList.begin();iter != iEnd;iter++)

  0000c	8b 47 38	 mov	 eax, DWORD PTR [edi+56]
  0000f	eb 0f		 jmp	 SHORT $LN54@GetBigMark@2
$LL37@GetBigMark@2:

; 534  : 	{
; 535  : 		CustomMarkData *pCustom = *iter;

  00011	8b 30		 mov	 esi, DWORD PTR [eax]

; 536  : 		if( pCustom->m_dwGuildIndex == dwGuildIndex )

  00013	8b 16		 mov	 edx, DWORD PTR [esi]
  00015	89 75 fc	 mov	 DWORD PTR _pCustom$507914[ebp], esi
  00018	3b 55 08	 cmp	 edx, DWORD PTR _dwGuildIndex$[ebp]
  0001b	74 09		 je	 SHORT $LN52@GetBigMark@2

; 533  : 	for(iter = m_CustomBigMarkList.begin();iter != iEnd;iter++)

  0001d	83 c0 04	 add	 eax, 4
$LN54@GetBigMark@2:
  00020	3b c1		 cmp	 eax, ecx
  00022	75 ed		 jne	 SHORT $LL37@GetBigMark@2

; 536  : 		if( pCustom->m_dwGuildIndex == dwGuildIndex )

  00024	eb 41		 jmp	 SHORT $LN4@GetBigMark@2
$LN52@GetBigMark@2:

; 537  : 		{
; 538  : 			if( pCustom->m_dwGuildMark == dwGuildMark )

  00026	8b 4e 04	 mov	 ecx, DWORD PTR [esi+4]
  00029	3b 4d 0c	 cmp	 ecx, DWORD PTR _dwGuildMark$[ebp]

; 539  : 			{
; 540  : 				m_CustomBigMarkList.erase( iter );

  0002c	50		 push	 eax
  0002d	8d 45 08	 lea	 eax, DWORD PTR $T518649[ebp]
  00030	50		 push	 eax
  00031	8d 4f 38	 lea	 ecx, DWORD PTR [edi+56]
  00034	75 19		 jne	 SHORT $LN2@GetBigMark@2
  00036	e8 00 00 00 00	 call	 ?erase@?$vector@PAUCustomMarkData@ioGuildMarkMgr@@V?$allocator@PAUCustomMarkData@ioGuildMarkMgr@@@std@@@std@@QAE?AV?$_Vector_iterator@V?$_Vector_val@PAUCustomMarkData@ioGuildMarkMgr@@V?$allocator@PAUCustomMarkData@ioGuildMarkMgr@@@std@@@std@@@2@V?$_Vector_const_iterator@V?$_Vector_val@PAUCustomMarkData@ioGuildMarkMgr@@V?$allocator@PAUCustomMarkData@ioGuildMarkMgr@@@std@@@std@@@2@@Z ; std::vector<ioGuildMarkMgr::CustomMarkData *,std::allocator<ioGuildMarkMgr::CustomMarkData *> >::erase

; 541  : 				m_CustomBigMarkList.push_back( pCustom );        //    .

  0003b	8d 45 fc	 lea	 eax, DWORD PTR _pCustom$507914[ebp]
  0003e	50		 push	 eax
  0003f	8d 4f 38	 lea	 ecx, DWORD PTR [edi+56]
  00042	e8 00 00 00 00	 call	 ?push_back@?$vector@PAUCustomMarkData@ioGuildMarkMgr@@V?$allocator@PAUCustomMarkData@ioGuildMarkMgr@@@std@@@std@@QAEXABQAUCustomMarkData@ioGuildMarkMgr@@@Z ; std::vector<ioGuildMarkMgr::CustomMarkData *,std::allocator<ioGuildMarkMgr::CustomMarkData *> >::push_back

; 542  : 				return pCustom->m_pCustomMark;

  00047	8b 45 fc	 mov	 eax, DWORD PTR _pCustom$507914[ebp]
  0004a	8b 40 08	 mov	 eax, DWORD PTR [eax+8]
  0004d	eb 1a		 jmp	 SHORT $LN7@GetBigMark@2
$LN2@GetBigMark@2:

; 543  : 			}
; 544  : 			else        // 
; 545  : 			{
; 546  : 				m_CustomBigMarkList.erase( iter );

  0004f	e8 00 00 00 00	 call	 ?erase@?$vector@PAUCustomMarkData@ioGuildMarkMgr@@V?$allocator@PAUCustomMarkData@ioGuildMarkMgr@@@std@@@std@@QAE?AV?$_Vector_iterator@V?$_Vector_val@PAUCustomMarkData@ioGuildMarkMgr@@V?$allocator@PAUCustomMarkData@ioGuildMarkMgr@@@std@@@std@@@2@V?$_Vector_const_iterator@V?$_Vector_val@PAUCustomMarkData@ioGuildMarkMgr@@V?$allocator@PAUCustomMarkData@ioGuildMarkMgr@@@std@@@std@@@2@@Z ; std::vector<ioGuildMarkMgr::CustomMarkData *,std::allocator<ioGuildMarkMgr::CustomMarkData *> >::erase

; 547  : 
; 548  : 				pCustom->Init();

  00054	83 66 04 00	 and	 DWORD PTR [esi+4], 0
  00058	83 26 00	 and	 DWORD PTR [esi], 0

; 549  : 				m_CustomBigMarkPool.push_back( pCustom );

  0005b	8d 45 fc	 lea	 eax, DWORD PTR _pCustom$507914[ebp]
  0005e	50		 push	 eax
  0005f	8d 4f 28	 lea	 ecx, DWORD PTR [edi+40]
  00062	e8 00 00 00 00	 call	 ?push_back@?$vector@PAUCustomMarkData@ioGuildMarkMgr@@V?$allocator@PAUCustomMarkData@ioGuildMarkMgr@@@std@@@std@@QAEXABQAUCustomMarkData@ioGuildMarkMgr@@@Z ; std::vector<ioGuildMarkMgr::CustomMarkData *,std::allocator<ioGuildMarkMgr::CustomMarkData *> >::push_back
$LN4@GetBigMark@2:

; 550  : 				return NULL;
; 551  : 			}
; 552  : 		}
; 553  : 	}
; 554  : 	return NULL;

  00067	33 c0		 xor	 eax, eax
$LN7@GetBigMark@2:
  00069	5f		 pop	 edi
  0006a	5e		 pop	 esi
  0006b	5b		 pop	 ebx

; 555  : }

  0006c	c9		 leave
  0006d	c2 08 00	 ret	 8
?GetBigMarkImageCustomList@ioGuildMarkMgr@@IAEPAVioUIRenderImage@@KK@Z ENDP ; ioGuildMarkMgr::GetBigMarkImageCustomList
_TEXT	ENDS
PUBLIC	__$ArrayPad$
PUBLIC	?GetBigMarkImageCustomCreate@ioGuildMarkMgr@@IAEPAVioUIRenderImage@@KK@Z ; ioGuildMarkMgr::GetBigMarkImageCustomCreate
; Function compile flags: /Ogsp
;	COMDAT ?GetBigMarkImageCustomCreate@ioGuildMarkMgr@@IAEPAVioUIRenderImage@@KK@Z
_TEXT	SEGMENT
$T518771 = -272						; size = 4
_pCustom$ = -268					; size = 4
_szBuf$507941 = -264					; size = 260
__$ArrayPad$ = -4					; size = 4
_dwGuildIndex$ = 8					; size = 4
_dwGuildMark$ = 12					; size = 4
?GetBigMarkImageCustomCreate@ioGuildMarkMgr@@IAEPAVioUIRenderImage@@KK@Z PROC ; ioGuildMarkMgr::GetBigMarkImageCustomCreate, COMDAT
; _this$ = ecx

; 558  : {

  00000	55		 push	 ebp
  00001	8b ec		 mov	 ebp, esp
  00003	81 ec 10 01 00
	00		 sub	 esp, 272		; 00000110H
  00009	a1 00 00 00 00	 mov	 eax, DWORD PTR ___security_cookie
  0000e	33 c5		 xor	 eax, ebp
  00010	89 45 fc	 mov	 DWORD PTR __$ArrayPad$[ebp], eax
  00013	56		 push	 esi
  00014	57		 push	 edi
  00015	8b f9		 mov	 edi, ecx

; 559  : 	CustomMarkData *pCustom = NULL;
; 560  : 	if( m_CustomBigMarkPool.empty() )     //  

  00017	8d 4f 28	 lea	 ecx, DWORD PTR [edi+40]
  0001a	8b 01		 mov	 eax, DWORD PTR [ecx]
  0001c	3b 41 04	 cmp	 eax, DWORD PTR [ecx+4]
  0001f	75 1c		 jne	 SHORT $LN5@GetBigMark@3

; 561  : 	{
; 562  : 		if( m_CustomBigMarkList.empty() )

  00021	8b 47 38	 mov	 eax, DWORD PTR [edi+56]
  00024	3b 47 3c	 cmp	 eax, DWORD PTR [edi+60]
  00027	75 07		 jne	 SHORT $LN4@GetBigMark@3

; 563  : 			return NULL;

  00029	33 c0		 xor	 eax, eax
  0002b	e9 b1 00 00 00	 jmp	 $LN6@GetBigMark@3
$LN4@GetBigMark@3:

; 564  : 
; 565  : 		vCustomMarkData_Iter iter = m_CustomBigMarkList.begin();
; 566  : 		pCustom = *iter;

  00030	8b 08		 mov	 ecx, DWORD PTR [eax]
  00032	89 8d f4 fe ff
	ff		 mov	 DWORD PTR _pCustom$[ebp], ecx

; 567  : 		m_CustomBigMarkList.erase( iter );

  00038	8d 4f 38	 lea	 ecx, DWORD PTR [edi+56]

; 568  : 		m_CustomBigMarkList.push_back( pCustom );
; 569  : 	}
; 570  : 	else

  0003b	eb 08		 jmp	 SHORT $LN39@GetBigMark@3
$LN5@GetBigMark@3:

; 571  : 	{
; 572  : 		vCustomMarkData_Iter iter = m_CustomBigMarkPool.begin();
; 573  : 		pCustom = *iter;

  0003d	8b 10		 mov	 edx, DWORD PTR [eax]
  0003f	89 95 f4 fe ff
	ff		 mov	 DWORD PTR _pCustom$[ebp], edx
$LN39@GetBigMark@3:

; 574  : 		m_CustomBigMarkPool.erase( iter );

  00045	50		 push	 eax
  00046	8d 85 f0 fe ff
	ff		 lea	 eax, DWORD PTR $T518771[ebp]
  0004c	50		 push	 eax
  0004d	e8 00 00 00 00	 call	 ?erase@?$vector@PAUCustomMarkData@ioGuildMarkMgr@@V?$allocator@PAUCustomMarkData@ioGuildMarkMgr@@@std@@@std@@QAE?AV?$_Vector_iterator@V?$_Vector_val@PAUCustomMarkData@ioGuildMarkMgr@@V?$allocator@PAUCustomMarkData@ioGuildMarkMgr@@@std@@@std@@@2@V?$_Vector_const_iterator@V?$_Vector_val@PAUCustomMarkData@ioGuildMarkMgr@@V?$allocator@PAUCustomMarkData@ioGuildMarkMgr@@@std@@@std@@@2@@Z ; std::vector<ioGuildMarkMgr::CustomMarkData *,std::allocator<ioGuildMarkMgr::CustomMarkData *> >::erase

; 575  : 		m_CustomBigMarkList.push_back( pCustom );

  00052	8d 85 f4 fe ff
	ff		 lea	 eax, DWORD PTR _pCustom$[ebp]
  00058	50		 push	 eax
  00059	8d 4f 38	 lea	 ecx, DWORD PTR [edi+56]
  0005c	e8 00 00 00 00	 call	 ?push_back@?$vector@PAUCustomMarkData@ioGuildMarkMgr@@V?$allocator@PAUCustomMarkData@ioGuildMarkMgr@@@std@@@std@@QAEXABQAUCustomMarkData@ioGuildMarkMgr@@@Z ; std::vector<ioGuildMarkMgr::CustomMarkData *,std::allocator<ioGuildMarkMgr::CustomMarkData *> >::push_back

; 576  : 	}
; 577  : 
; 578  : 	if( pCustom )

  00061	8b b5 f4 fe ff
	ff		 mov	 esi, DWORD PTR _pCustom$[ebp]
  00067	53		 push	 ebx
  00068	33 db		 xor	 ebx, ebx
  0006a	3b f3		 cmp	 esi, ebx
  0006c	74 70		 je	 SHORT $LN1@GetBigMark@3

; 579  : 	{
; 580  : 		pCustom->Init();
; 581  : 		pCustom->m_dwGuildIndex = dwGuildIndex;

  0006e	8b 45 08	 mov	 eax, DWORD PTR _dwGuildIndex$[ebp]
  00071	89 06		 mov	 DWORD PTR [esi], eax

; 582  : 		pCustom->m_dwGuildMark  = dwGuildMark;

  00073	8b 45 0c	 mov	 eax, DWORD PTR _dwGuildMark$[ebp]
  00076	89 46 04	 mov	 DWORD PTR [esi+4], eax

; 583  : 		if( pCustom->m_pCustomMark  )

  00079	39 5e 08	 cmp	 DWORD PTR [esi+8], ebx
  0007c	74 60		 je	 SHORT $LN1@GetBigMark@3

; 584  : 		{
; 585  : 			char szBuf[MAX_PATH] = "";

  0007e	68 03 01 00 00	 push	 259			; 00000103H
  00083	8d 85 f9 fe ff
	ff		 lea	 eax, DWORD PTR _szBuf$507941[ebp+1]
  00089	53		 push	 ebx
  0008a	50		 push	 eax
  0008b	88 9d f8 fe ff
	ff		 mov	 BYTE PTR _szBuf$507941[ebp], bl
  00091	e8 00 00 00 00	 call	 _memset
  00096	83 c4 0c	 add	 esp, 12			; 0000000cH

; 586  : 			sprintf( szBuf, "%s/%d_%d_l.jpg", m_szAppDirectory.c_str(), dwGuildIndex, dwGuildMark );

  00099	ff 75 0c	 push	 DWORD PTR _dwGuildMark$[ebp]
  0009c	8d 8f a4 00 00
	00		 lea	 ecx, DWORD PTR [edi+164]
  000a2	ff 75 08	 push	 DWORD PTR _dwGuildIndex$[ebp]
  000a5	ff 15 00 00 00
	00		 call	 DWORD PTR __imp_?c_str@ioHashString@@QBEPBDXZ
  000ab	50		 push	 eax
  000ac	8d 85 f8 fe ff
	ff		 lea	 eax, DWORD PTR _szBuf$507941[ebp]
  000b2	68 00 00 00 00	 push	 OFFSET ??_C@_0P@NLKFMMCE@?$CFs?1?$CFd_?$CFd_l?4jpg?$AA@
  000b7	50		 push	 eax
  000b8	ff 15 00 00 00
	00		 call	 DWORD PTR __imp__sprintf

; 587  : 			pCustom->m_pCustomMark->FillFileImage( szBuf, 128, 128 );

  000be	8b 4e 08	 mov	 ecx, DWORD PTR [esi+8]
  000c1	83 c4 14	 add	 esp, 20			; 00000014H
  000c4	53		 push	 ebx
  000c5	b8 80 00 00 00	 mov	 eax, 128		; 00000080H
  000ca	50		 push	 eax
  000cb	50		 push	 eax
  000cc	8d 85 f8 fe ff
	ff		 lea	 eax, DWORD PTR _szBuf$507941[ebp]
  000d2	50		 push	 eax
  000d3	ff 15 00 00 00
	00		 call	 DWORD PTR __imp_?FillFileImage@ioUIRenderImage@@QAE_NPBDHHPAU_D3DXIMAGE_INFO@@@Z

; 588  : 			return pCustom->m_pCustomMark;

  000d9	8b 46 08	 mov	 eax, DWORD PTR [esi+8]
  000dc	eb 02		 jmp	 SHORT $LN38@GetBigMark@3
$LN1@GetBigMark@3:

; 589  : 		}
; 590  : 	}	
; 591  : 	return NULL;

  000de	33 c0		 xor	 eax, eax
$LN38@GetBigMark@3:
  000e0	5b		 pop	 ebx
$LN6@GetBigMark@3:

; 592  : }

  000e1	8b 4d fc	 mov	 ecx, DWORD PTR __$ArrayPad$[ebp]
  000e4	5f		 pop	 edi
  000e5	33 cd		 xor	 ecx, ebp
  000e7	5e		 pop	 esi
  000e8	e8 00 00 00 00	 call	 @__security_check_cookie@4
  000ed	c9		 leave
  000ee	c2 08 00	 ret	 8
?GetBigMarkImageCustomCreate@ioGuildMarkMgr@@IAEPAVioUIRenderImage@@KK@Z ENDP ; ioGuildMarkMgr::GetBigMarkImageCustomCreate
_TEXT	ENDS
PUBLIC	??1?$_Tree@V?$_Tmap_traits@KPAVioUIRenderImage@@U?$less@K@std@@V?$allocator@U?$pair@$$CBKPAVioUIRenderImage@@@std@@@3@$0A@@std@@@std@@QAE@XZ ; std::_Tree<std::_Tmap_traits<unsigned long,ioUIRenderImage *,std::less<unsigned long>,std::allocator<std::pair<unsigned long const ,ioUIRenderImage *> >,0> >::~_Tree<std::_Tmap_traits<unsigned long,ioUIRenderImage *,std::less<unsigned long>,std::allocator<std::pair<unsigned long const ,ioUIRenderImage *> >,0> >
;	COMDAT xdata$x
; File c:\program files (x86)\microsoft visual studio 10.0\vc\include\xmemory
xdata$x	SEGMENT
__unwindtable$??1?$_Tree@V?$_Tmap_traits@KPAVioUIRenderImage@@U?$less@K@std@@V?$allocator@U?$pair@$$CBKPAVioUIRenderImage@@@std@@@3@$0A@@std@@@std@@QAE@XZ DD 0ffffffffH
	DD	FLAT:__unwindfunclet$??1?$_Tree@V?$_Tmap_traits@KPAVioUIRenderImage@@U?$less@K@std@@V?$allocator@U?$pair@$$CBKPAVioUIRenderImage@@@std@@@3@$0A@@std@@@std@@QAE@XZ$0
__ehfuncinfo$??1?$_Tree@V?$_Tmap_traits@KPAVioUIRenderImage@@U?$less@K@std@@V?$allocator@U?$pair@$$CBKPAVioUIRenderImage@@@std@@@3@$0A@@std@@@std@@QAE@XZ DD 019930522H
	DD	01H
	DD	FLAT:__unwindtable$??1?$_Tree@V?$_Tmap_traits@KPAVioUIRenderImage@@U?$less@K@std@@V?$allocator@U?$pair@$$CBKPAVioUIRenderImage@@@std@@@3@$0A@@std@@@std@@QAE@XZ
	DD	2 DUP(00H)
	DD	2 DUP(00H)
	DD	00H
	DD	01H
; Function compile flags: /Ogsp
; File c:\program files (x86)\microsoft visual studio 10.0\vc\include\xtree
xdata$x	ENDS
;	COMDAT ??1?$_Tree@V?$_Tmap_traits@KPAVioUIRenderImage@@U?$less@K@std@@V?$allocator@U?$pair@$$CBKPAVioUIRenderImage@@@std@@@3@$0A@@std@@@std@@QAE@XZ
_TEXT	SEGMENT
$T518953 = -20						; size = 4
_this$ = -16						; size = 4
__$EHRec$ = -12						; size = 12
??1?$_Tree@V?$_Tmap_traits@KPAVioUIRenderImage@@U?$less@K@std@@V?$allocator@U?$pair@$$CBKPAVioUIRenderImage@@@std@@@3@$0A@@std@@@std@@QAE@XZ PROC ; std::_Tree<std::_Tmap_traits<unsigned long,ioUIRenderImage *,std::less<unsigned long>,std::allocator<std::pair<unsigned long const ,ioUIRenderImage *> >,0> >::~_Tree<std::_Tmap_traits<unsigned long,ioUIRenderImage *,std::less<unsigned long>,std::allocator<std::pair<unsigned long const ,ioUIRenderImage *> >,0> >, COMDAT
; _this$ = ecx

; 790  : 		{	// destroy tree

  00000	6a 08		 push	 8
  00002	b8 00 00 00 00	 mov	 eax, __ehhandler$??1?$_Tree@V?$_Tmap_traits@KPAVioUIRenderImage@@U?$less@K@std@@V?$allocator@U?$pair@$$CBKPAVioUIRenderImage@@@std@@@3@$0A@@std@@@std@@QAE@XZ
  00007	e8 00 00 00 00	 call	 __EH_prolog3
  0000c	8b f1		 mov	 esi, ecx
  0000e	89 75 f0	 mov	 DWORD PTR _this$[ebp], esi

; 791  : 		_Tidy();

  00011	8b 46 04	 mov	 eax, DWORD PTR [esi+4]
  00014	8b 08		 mov	 ecx, DWORD PTR [eax]
  00016	83 65 fc 00	 and	 DWORD PTR __$EHRec$[ebp+8], 0
  0001a	50		 push	 eax
  0001b	51		 push	 ecx
  0001c	8d 45 ec	 lea	 eax, DWORD PTR $T518953[ebp]
  0001f	50		 push	 eax
  00020	8b ce		 mov	 ecx, esi
  00022	e8 00 00 00 00	 call	 ?erase@?$_Tree@V?$_Tmap_traits@KPAVioUIRenderImage@@U?$less@K@std@@V?$allocator@U?$pair@$$CBKPAVioUIRenderImage@@@std@@@3@$0A@@std@@@std@@QAE?AV?$_Tree_iterator@V?$_Tree_val@V?$_Tmap_traits@KPAVioUIRenderImage@@U?$less@K@std@@V?$allocator@U?$pair@$$CBKPAVioUIRenderImage@@@std@@@3@$0A@@std@@@std@@@2@V?$_Tree_const_iterator@V?$_Tree_val@V?$_Tmap_traits@KPAVioUIRenderImage@@U?$less@K@std@@V?$allocator@U?$pair@$$CBKPAVioUIRenderImage@@@std@@@3@$0A@@std@@@std@@@2@0@Z ; std::_Tree<std::_Tmap_traits<unsigned long,ioUIRenderImage *,std::less<unsigned long>,std::allocator<std::pair<unsigned long const ,ioUIRenderImage *> >,0> >::erase

; 792  : 		}

  00027	ff 76 04	 push	 DWORD PTR [esi+4]
  0002a	e8 00 00 00 00	 call	 ??3@YAXPAX@Z		; operator delete
  0002f	59		 pop	 ecx
  00030	e8 00 00 00 00	 call	 __EH_epilog3
  00035	c3		 ret	 0
_TEXT	ENDS
;	COMDAT text$x
text$x	SEGMENT
__unwindfunclet$??1?$_Tree@V?$_Tmap_traits@KPAVioUIRenderImage@@U?$less@K@std@@V?$allocator@U?$pair@$$CBKPAVioUIRenderImage@@@std@@@3@$0A@@std@@@std@@QAE@XZ$0:
  00000	8b 4d f0	 mov	 ecx, DWORD PTR _this$[ebp]
  00003	e9 00 00 00 00	 jmp	 ??1?$_Tree_val@V?$_Tmap_traits@KPAVioUIRenderImage@@U?$less@K@std@@V?$allocator@U?$pair@$$CBKPAVioUIRenderImage@@@std@@@3@$0A@@std@@@std@@QAE@XZ ; std::_Tree_val<std::_Tmap_traits<unsigned long,ioUIRenderImage *,std::less<unsigned long>,std::allocator<std::pair<unsigned long const ,ioUIRenderImage *> >,0> >::~_Tree_val<std::_Tmap_traits<unsigned long,ioUIRenderImage *,std::less<unsigned long>,std::allocator<std::pair<unsigned long const ,ioUIRenderImage *> >,0> >
__ehhandler$??1?$_Tree@V?$_Tmap_traits@KPAVioUIRenderImage@@U?$less@K@std@@V?$allocator@U?$pair@$$CBKPAVioUIRenderImage@@@std@@@3@$0A@@std@@@std@@QAE@XZ:
  00008	8b 54 24 08	 mov	 edx, DWORD PTR [esp+8]
  0000c	8d 42 0c	 lea	 eax, DWORD PTR [edx+12]
  0000f	8b 4a e8	 mov	 ecx, DWORD PTR [edx-24]
  00012	33 c8		 xor	 ecx, eax
  00014	e8 00 00 00 00	 call	 @__security_check_cookie@4
  00019	b8 00 00 00 00	 mov	 eax, OFFSET __ehfuncinfo$??1?$_Tree@V?$_Tmap_traits@KPAVioUIRenderImage@@U?$less@K@std@@V?$allocator@U?$pair@$$CBKPAVioUIRenderImage@@@std@@@3@$0A@@std@@@std@@QAE@XZ
  0001e	e9 00 00 00 00	 jmp	 ___CxxFrameHandler3
text$x	ENDS
??1?$_Tree@V?$_Tmap_traits@KPAVioUIRenderImage@@U?$less@K@std@@V?$allocator@U?$pair@$$CBKPAVioUIRenderImage@@@std@@@3@$0A@@std@@@std@@QAE@XZ ENDP ; std::_Tree<std::_Tmap_traits<unsigned long,ioUIRenderImage *,std::less<unsigned long>,std::allocator<std::pair<unsigned long const ,ioUIRenderImage *> >,0> >::~_Tree<std::_Tmap_traits<unsigned long,ioUIRenderImage *,std::less<unsigned long>,std::allocator<std::pair<unsigned long const ,ioUIRenderImage *> >,0> >
PUBLIC	??$insert@U?$pair@$$CBKPAVioUIRenderImage@@@std@@@?$_Tree@V?$_Tmap_traits@KPAVioUIRenderImage@@U?$less@K@std@@V?$allocator@U?$pair@$$CBKPAVioUIRenderImage@@@std@@@3@$0A@@std@@@std@@QAE?AU?$pair@V?$_Tree_iterator@V?$_Tree_val@V?$_Tmap_traits@KPAVioUIRenderImage@@U?$less@K@std@@V?$allocator@U?$pair@$$CBKPAVioUIRenderImage@@@std@@@3@$0A@@std@@@std@@@std@@_N@1@$$QAU?$pair@$$CBKPAVioUIRenderImage@@@1@@Z ; std::_Tree<std::_Tmap_traits<unsigned long,ioUIRenderImage *,std::less<unsigned long>,std::allocator<std::pair<unsigned long const ,ioUIRenderImage *> >,0> >::insert<std::pair<unsigned long const ,ioUIRenderImage *> >
; Function compile flags: /Ogsp
;	COMDAT ??$insert@U?$pair@$$CBKPAVioUIRenderImage@@@std@@@?$_Tree@V?$_Tmap_traits@KPAVioUIRenderImage@@U?$less@K@std@@V?$allocator@U?$pair@$$CBKPAVioUIRenderImage@@@std@@@3@$0A@@std@@@std@@QAE?AU?$pair@V?$_Tree_iterator@V?$_Tree_val@V?$_Tmap_traits@KPAVioUIRenderImage@@U?$less@K@std@@V?$allocator@U?$pair@$$CBKPAVioUIRenderImage@@@std@@@3@$0A@@std@@@std@@@std@@_N@1@$$QAU?$pair@$$CBKPAVioUIRenderImage@@@1@@Z
_TEXT	SEGMENT
___$ReturnUdt$ = 8					; size = 4
__Val$ = 12						; size = 4
??$insert@U?$pair@$$CBKPAVioUIRenderImage@@@std@@@?$_Tree@V?$_Tmap_traits@KPAVioUIRenderImage@@U?$less@K@std@@V?$allocator@U?$pair@$$CBKPAVioUIRenderImage@@@std@@@3@$0A@@std@@@std@@QAE?AU?$pair@V?$_Tree_iterator@V?$_Tree_val@V?$_Tmap_traits@KPAVioUIRenderImage@@U?$less@K@std@@V?$allocator@U?$pair@$$CBKPAVioUIRenderImage@@@std@@@3@$0A@@std@@@std@@@std@@_N@1@$$QAU?$pair@$$CBKPAVioUIRenderImage@@@1@@Z PROC ; std::_Tree<std::_Tmap_traits<unsigned long,ioUIRenderImage *,std::less<unsigned long>,std::allocator<std::pair<unsigned long const ,ioUIRenderImage *> >,0> >::insert<std::pair<unsigned long const ,ioUIRenderImage *> >, COMDAT
; _this$ = ecx

; 753  : 		_Pairib insert(_Valty&& _Val)

  00000	55		 push	 ebp
  00001	8b ec		 mov	 ebp, esp
  00003	56		 push	 esi

; 754  : 		{	// try to insert node with value _Val, favoring right side
; 755  : 		return (_Linsert(this->_Buynode(_STD forward<_Valty>(_Val)),
; 756  : 			false));

  00004	6a 00		 push	 0
  00006	ff 75 0c	 push	 DWORD PTR __Val$[ebp]
  00009	8b f1		 mov	 esi, ecx
  0000b	e8 00 00 00 00	 call	 ??$_Buynode@U?$pair@$$CBKPAVioUIRenderImage@@@std@@@?$_Tree_val@V?$_Tmap_traits@KPAVioUIRenderImage@@U?$less@K@std@@V?$allocator@U?$pair@$$CBKPAVioUIRenderImage@@@std@@@3@$0A@@std@@@std@@QAEPAU_Node@?$_Tree_nod@V?$_Tmap_traits@KPAVioUIRenderImage@@U?$less@K@std@@V?$allocator@U?$pair@$$CBKPAVioUIRenderImage@@@std@@@3@$0A@@std@@@1@$$QAU?$pair@$$CBKPAVioUIRenderImage@@@1@@Z ; std::_Tree_val<std::_Tmap_traits<unsigned long,ioUIRenderImage *,std::less<unsigned long>,std::allocator<std::pair<unsigned long const ,ioUIRenderImage *> >,0> >::_Buynode<std::pair<unsigned long const ,ioUIRenderImage *> >
  00010	50		 push	 eax
  00011	ff 75 08	 push	 DWORD PTR ___$ReturnUdt$[ebp]
  00014	8b ce		 mov	 ecx, esi
  00016	e8 00 00 00 00	 call	 ?_Linsert@?$_Tree@V?$_Tmap_traits@KPAVioUIRenderImage@@U?$less@K@std@@V?$allocator@U?$pair@$$CBKPAVioUIRenderImage@@@std@@@3@$0A@@std@@@std@@QAE?AU?$pair@V?$_Tree_iterator@V?$_Tree_val@V?$_Tmap_traits@KPAVioUIRenderImage@@U?$less@K@std@@V?$allocator@U?$pair@$$CBKPAVioUIRenderImage@@@std@@@3@$0A@@std@@@std@@@std@@_N@2@PAU_Node@?$_Tree_nod@V?$_Tmap_traits@KPAVioUIRenderImage@@U?$less@K@std@@V?$allocator@U?$pair@$$CBKPAVioUIRenderImage@@@std@@@3@$0A@@std@@@2@_N@Z ; std::_Tree<std::_Tmap_traits<unsigned long,ioUIRenderImage *,std::less<unsigned long>,std::allocator<std::pair<unsigned long const ,ioUIRenderImage *> >,0> >::_Linsert
  0001b	8b 45 08	 mov	 eax, DWORD PTR ___$ReturnUdt$[ebp]
  0001e	5e		 pop	 esi

; 757  : 		}

  0001f	5d		 pop	 ebp
  00020	c2 08 00	 ret	 8
??$insert@U?$pair@$$CBKPAVioUIRenderImage@@@std@@@?$_Tree@V?$_Tmap_traits@KPAVioUIRenderImage@@U?$less@K@std@@V?$allocator@U?$pair@$$CBKPAVioUIRenderImage@@@std@@@3@$0A@@std@@@std@@QAE?AU?$pair@V?$_Tree_iterator@V?$_Tree_val@V?$_Tmap_traits@KPAVioUIRenderImage@@U?$less@K@std@@V?$allocator@U?$pair@$$CBKPAVioUIRenderImage@@@std@@@3@$0A@@std@@@std@@@std@@_N@1@$$QAU?$pair@$$CBKPAVioUIRenderImage@@@1@@Z ENDP ; std::_Tree<std::_Tmap_traits<unsigned long,ioUIRenderImage *,std::less<unsigned long>,std::allocator<std::pair<unsigned long const ,ioUIRenderImage *> >,0> >::insert<std::pair<unsigned long const ,ioUIRenderImage *> >
_TEXT	ENDS
PUBLIC	??1?$map@KPAVioUIRenderImage@@U?$less@K@std@@V?$allocator@U?$pair@$$CBKPAVioUIRenderImage@@@std@@@3@@std@@QAE@XZ ; std::map<unsigned long,ioUIRenderImage *,std::less<unsigned long>,std::allocator<std::pair<unsigned long const ,ioUIRenderImage *> > >::~map<unsigned long,ioUIRenderImage *,std::less<unsigned long>,std::allocator<std::pair<unsigned long const ,ioUIRenderImage *> > >
; Function compile flags: /Ogsp
;	COMDAT ??1?$map@KPAVioUIRenderImage@@U?$less@K@std@@V?$allocator@U?$pair@$$CBKPAVioUIRenderImage@@@std@@@3@@std@@QAE@XZ
_TEXT	SEGMENT
??1?$map@KPAVioUIRenderImage@@U?$less@K@std@@V?$allocator@U?$pair@$$CBKPAVioUIRenderImage@@@std@@@3@@std@@QAE@XZ PROC ; std::map<unsigned long,ioUIRenderImage *,std::less<unsigned long>,std::allocator<std::pair<unsigned long const ,ioUIRenderImage *> > >::~map<unsigned long,ioUIRenderImage *,std::less<unsigned long>,std::allocator<std::pair<unsigned long const ,ioUIRenderImage *> > >, COMDAT
; _this$ = ecx
  00000	e9 00 00 00 00	 jmp	 ??1?$_Tree@V?$_Tmap_traits@KPAVioUIRenderImage@@U?$less@K@std@@V?$allocator@U?$pair@$$CBKPAVioUIRenderImage@@@std@@@3@$0A@@std@@@std@@QAE@XZ ; std::_Tree<std::_Tmap_traits<unsigned long,ioUIRenderImage *,std::less<unsigned long>,std::allocator<std::pair<unsigned long const ,ioUIRenderImage *> >,0> >::~_Tree<std::_Tmap_traits<unsigned long,ioUIRenderImage *,std::less<unsigned long>,std::allocator<std::pair<unsigned long const ,ioUIRenderImage *> >,0> >
??1?$map@KPAVioUIRenderImage@@U?$less@K@std@@V?$allocator@U?$pair@$$CBKPAVioUIRenderImage@@@std@@@3@@std@@QAE@XZ ENDP ; std::map<unsigned long,ioUIRenderImage *,std::less<unsigned long>,std::allocator<std::pair<unsigned long const ,ioUIRenderImage *> > >::~map<unsigned long,ioUIRenderImage *,std::less<unsigned long>,std::allocator<std::pair<unsigned long const ,ioUIRenderImage *> > >
_TEXT	ENDS
PUBLIC	??_7ioGuildMarkMgr@@6B@				; ioGuildMarkMgr::`vftable'
PUBLIC	??1ioGuildMarkMgr@@UAE@XZ			; ioGuildMarkMgr::~ioGuildMarkMgr
PUBLIC	??_R4ioGuildMarkMgr@@6B@			; ioGuildMarkMgr::`RTTI Complete Object Locator'
PUBLIC	??_R0?AVioGuildMarkMgr@@@8			; ioGuildMarkMgr `RTTI Type Descriptor'
PUBLIC	??_R3ioGuildMarkMgr@@8				; ioGuildMarkMgr::`RTTI Class Hierarchy Descriptor'
PUBLIC	??_R2ioGuildMarkMgr@@8				; ioGuildMarkMgr::`RTTI Base Class Array'
PUBLIC	??_R1A@?0A@EA@ioGuildMarkMgr@@8			; ioGuildMarkMgr::`RTTI Base Class Descriptor at (0,-1,0,64)'
PUBLIC	??_R13?0A@EA@?$Singleton@VioGuildMarkMgr@@@@8	; Singleton<ioGuildMarkMgr>::`RTTI Base Class Descriptor at (4,-1,0,64)'
PUBLIC	??_R0?AV?$Singleton@VioGuildMarkMgr@@@@@8	; Singleton<ioGuildMarkMgr> `RTTI Type Descriptor'
PUBLIC	??_R3?$Singleton@VioGuildMarkMgr@@@@8		; Singleton<ioGuildMarkMgr>::`RTTI Class Hierarchy Descriptor'
PUBLIC	??_R2?$Singleton@VioGuildMarkMgr@@@@8		; Singleton<ioGuildMarkMgr>::`RTTI Base Class Array'
PUBLIC	??_R1A@?0A@EA@?$Singleton@VioGuildMarkMgr@@@@8	; Singleton<ioGuildMarkMgr>::`RTTI Base Class Descriptor at (0,-1,0,64)'
EXTRN	??_EioGuildMarkMgr@@UAEPAXI@Z:PROC		; ioGuildMarkMgr::`vector deleting destructor'
;	COMDAT ??_R1A@?0A@EA@?$Singleton@VioGuildMarkMgr@@@@8
; File d:\lost saga for developer\youtube\tutorial\source\src\io3dengine\iosingleton.h
rdata$r	SEGMENT
??_R1A@?0A@EA@?$Singleton@VioGuildMarkMgr@@@@8 DD FLAT:??_R0?AV?$Singleton@VioGuildMarkMgr@@@@@8 ; Singleton<ioGuildMarkMgr>::`RTTI Base Class Descriptor at (0,-1,0,64)'
	DD	00H
	DD	00H
	DD	0ffffffffH
	DD	00H
	DD	040H
	DD	FLAT:??_R3?$Singleton@VioGuildMarkMgr@@@@8
rdata$r	ENDS
;	COMDAT ??_R2?$Singleton@VioGuildMarkMgr@@@@8
rdata$r	SEGMENT
??_R2?$Singleton@VioGuildMarkMgr@@@@8 DD FLAT:??_R1A@?0A@EA@?$Singleton@VioGuildMarkMgr@@@@8 ; Singleton<ioGuildMarkMgr>::`RTTI Base Class Array'
rdata$r	ENDS
;	COMDAT ??_R3?$Singleton@VioGuildMarkMgr@@@@8
rdata$r	SEGMENT
??_R3?$Singleton@VioGuildMarkMgr@@@@8 DD 00H		; Singleton<ioGuildMarkMgr>::`RTTI Class Hierarchy Descriptor'
	DD	00H
	DD	01H
	DD	FLAT:??_R2?$Singleton@VioGuildMarkMgr@@@@8
rdata$r	ENDS
;	COMDAT ??_R0?AV?$Singleton@VioGuildMarkMgr@@@@@8
_DATA	SEGMENT
??_R0?AV?$Singleton@VioGuildMarkMgr@@@@@8 DD FLAT:??_7type_info@@6B@ ; Singleton<ioGuildMarkMgr> `RTTI Type Descriptor'
	DD	00H
	DB	'.?AV?$Singleton@VioGuildMarkMgr@@@@', 00H
_DATA	ENDS
;	COMDAT ??_R13?0A@EA@?$Singleton@VioGuildMarkMgr@@@@8
rdata$r	SEGMENT
??_R13?0A@EA@?$Singleton@VioGuildMarkMgr@@@@8 DD FLAT:??_R0?AV?$Singleton@VioGuildMarkMgr@@@@@8 ; Singleton<ioGuildMarkMgr>::`RTTI Base Class Descriptor at (4,-1,0,64)'
	DD	00H
	DD	04H
	DD	0ffffffffH
	DD	00H
	DD	040H
	DD	FLAT:??_R3?$Singleton@VioGuildMarkMgr@@@@8
rdata$r	ENDS
;	COMDAT ??_R1A@?0A@EA@ioGuildMarkMgr@@8
rdata$r	SEGMENT
??_R1A@?0A@EA@ioGuildMarkMgr@@8 DD FLAT:??_R0?AVioGuildMarkMgr@@@8 ; ioGuildMarkMgr::`RTTI Base Class Descriptor at (0,-1,0,64)'
	DD	01H
	DD	00H
	DD	0ffffffffH
	DD	00H
	DD	040H
	DD	FLAT:??_R3ioGuildMarkMgr@@8
rdata$r	ENDS
;	COMDAT ??_R2ioGuildMarkMgr@@8
rdata$r	SEGMENT
??_R2ioGuildMarkMgr@@8 DD FLAT:??_R1A@?0A@EA@ioGuildMarkMgr@@8 ; ioGuildMarkMgr::`RTTI Base Class Array'
	DD	FLAT:??_R13?0A@EA@?$Singleton@VioGuildMarkMgr@@@@8
rdata$r	ENDS
;	COMDAT ??_R3ioGuildMarkMgr@@8
rdata$r	SEGMENT
??_R3ioGuildMarkMgr@@8 DD 00H				; ioGuildMarkMgr::`RTTI Class Hierarchy Descriptor'
	DD	00H
	DD	02H
	DD	FLAT:??_R2ioGuildMarkMgr@@8
rdata$r	ENDS
;	COMDAT ??_R0?AVioGuildMarkMgr@@@8
_DATA	SEGMENT
??_R0?AVioGuildMarkMgr@@@8 DD FLAT:??_7type_info@@6B@	; ioGuildMarkMgr `RTTI Type Descriptor'
	DD	00H
	DB	'.?AVioGuildMarkMgr@@', 00H
_DATA	ENDS
;	COMDAT ??_R4ioGuildMarkMgr@@6B@
rdata$r	SEGMENT
??_R4ioGuildMarkMgr@@6B@ DD 00H				; ioGuildMarkMgr::`RTTI Complete Object Locator'
	DD	00H
	DD	00H
	DD	FLAT:??_R0?AVioGuildMarkMgr@@@8
	DD	FLAT:??_R3ioGuildMarkMgr@@8
rdata$r	ENDS
;	COMDAT ??_7ioGuildMarkMgr@@6B@
CONST	SEGMENT
??_7ioGuildMarkMgr@@6B@ DD FLAT:??_R4ioGuildMarkMgr@@6B@ ; ioGuildMarkMgr::`vftable'
	DD	FLAT:??_EioGuildMarkMgr@@UAEPAXI@Z
CONST	ENDS
;	COMDAT xdata$x
xdata$x	SEGMENT
__ehfuncinfo$??1ioGuildMarkMgr@@UAE@XZ DD 019930522H
	DD	0cH
	DD	FLAT:__unwindtable$??1ioGuildMarkMgr@@UAE@XZ
	DD	2 DUP(00H)
	DD	2 DUP(00H)
	DD	00H
	DD	01H
__unwindtable$??1ioGuildMarkMgr@@UAE@XZ DD 0ffffffffH
	DD	FLAT:__unwindfunclet$??1ioGuildMarkMgr@@UAE@XZ$0
	DD	00H
	DD	FLAT:__unwindfunclet$??1ioGuildMarkMgr@@UAE@XZ$1
	DD	01H
	DD	FLAT:__unwindfunclet$??1ioGuildMarkMgr@@UAE@XZ$2
	DD	02H
	DD	FLAT:__unwindfunclet$??1ioGuildMarkMgr@@UAE@XZ$3
	DD	03H
	DD	FLAT:__unwindfunclet$??1ioGuildMarkMgr@@UAE@XZ$4
	DD	04H
	DD	FLAT:__unwindfunclet$??1ioGuildMarkMgr@@UAE@XZ$5
	DD	05H
	DD	FLAT:__unwindfunclet$??1ioGuildMarkMgr@@UAE@XZ$6
	DD	06H
	DD	FLAT:__unwindfunclet$??1ioGuildMarkMgr@@UAE@XZ$7
	DD	07H
	DD	FLAT:__unwindfunclet$??1ioGuildMarkMgr@@UAE@XZ$8
	DD	08H
	DD	FLAT:__unwindfunclet$??1ioGuildMarkMgr@@UAE@XZ$9
	DD	09H
	DD	FLAT:__unwindfunclet$??1ioGuildMarkMgr@@UAE@XZ$10
	DD	0aH
	DD	FLAT:__unwindfunclet$??1ioGuildMarkMgr@@UAE@XZ$11
; Function compile flags: /Ogsp
; File d:\lost saga for developer\youtube\tutorial\source\src\lsclient\ioguildmarkmgr.cpp
xdata$x	ENDS
;	COMDAT ??1ioGuildMarkMgr@@UAE@XZ
_TEXT	SEGMENT
_this$ = -16						; size = 4
__$EHRec$ = -12						; size = 12
??1ioGuildMarkMgr@@UAE@XZ PROC				; ioGuildMarkMgr::~ioGuildMarkMgr, COMDAT
; _this$ = ecx

; 80   : {	

  00000	6a 04		 push	 4
  00002	b8 00 00 00 00	 mov	 eax, __ehhandler$??1ioGuildMarkMgr@@UAE@XZ
  00007	e8 00 00 00 00	 call	 __EH_prolog3
  0000c	8b f1		 mov	 esi, ecx
  0000e	89 75 f0	 mov	 DWORD PTR _this$[ebp], esi
  00011	c7 06 00 00 00
	00		 mov	 DWORD PTR [esi], OFFSET ??_7ioGuildMarkMgr@@6B@

; 81   : 	SAFEDELETE( m_pBigMarkNone );

  00017	8b 4e 24	 mov	 ecx, DWORD PTR [esi+36]
  0001a	c7 45 fc 0b 00
	00 00		 mov	 DWORD PTR __$EHRec$[ebp+8], 11 ; 0000000bH
  00021	85 c9		 test	 ecx, ecx
  00023	74 0b		 je	 SHORT $LN1@ioGuildMar
  00025	8b 01		 mov	 eax, DWORD PTR [ecx]
  00027	6a 01		 push	 1
  00029	ff 50 40	 call	 DWORD PTR [eax+64]
  0002c	83 66 24 00	 and	 DWORD PTR [esi+36], 0
$LN1@ioGuildMar:

; 82   : 
; 83   : 	ClearGuildMarkList();

  00030	8b ce		 mov	 ecx, esi
  00032	e8 00 00 00 00	 call	 ?ClearGuildMarkList@ioGuildMarkMgr@@IAEXXZ ; ioGuildMarkMgr::ClearGuildMarkList

; 84   : 	ClearGuildLevelRes();

  00037	8b ce		 mov	 ecx, esi
  00039	e8 00 00 00 00	 call	 ?ClearGuildLevelRes@ioGuildMarkMgr@@IAEXXZ ; ioGuildMarkMgr::ClearGuildLevelRes

; 85   : }

  0003e	8d 8e b4 00 00
	00		 lea	 ecx, DWORD PTR [esi+180]
  00044	e8 00 00 00 00	 call	 ?clear@?$list@KV?$allocator@K@std@@@std@@QAEXXZ ; std::list<unsigned long,std::allocator<unsigned long> >::clear
  00049	ff b6 b4 00 00
	00		 push	 DWORD PTR [esi+180]
  0004f	e8 00 00 00 00	 call	 ??3@YAXPAX@Z		; operator delete
  00054	8b 3d 00 00 00
	00		 mov	 edi, DWORD PTR __imp_??1ioHashString@@QAE@XZ
  0005a	59		 pop	 ecx
  0005b	8d 8e a4 00 00
	00		 lea	 ecx, DWORD PTR [esi+164]
  00061	c6 45 fc 09	 mov	 BYTE PTR __$EHRec$[ebp+8], 9
  00065	ff d7		 call	 edi
  00067	8d 8e 94 00 00
	00		 lea	 ecx, DWORD PTR [esi+148]
  0006d	c6 45 fc 08	 mov	 BYTE PTR __$EHRec$[ebp+8], 8
  00071	ff d7		 call	 edi
  00073	8d 8e 84 00 00
	00		 lea	 ecx, DWORD PTR [esi+132]
  00079	c6 45 fc 07	 mov	 BYTE PTR __$EHRec$[ebp+8], 7
  0007d	e8 00 00 00 00	 call	 ??1?$_Tree@V?$_Tmap_traits@KPAVioUIRenderImage@@U?$less@K@std@@V?$allocator@U?$pair@$$CBKPAVioUIRenderImage@@@std@@@3@$0A@@std@@@std@@QAE@XZ ; std::_Tree<std::_Tmap_traits<unsigned long,ioUIRenderImage *,std::less<unsigned long>,std::allocator<std::pair<unsigned long const ,ioUIRenderImage *> >,0> >::~_Tree<std::_Tmap_traits<unsigned long,ioUIRenderImage *,std::less<unsigned long>,std::allocator<std::pair<unsigned long const ,ioUIRenderImage *> >,0> >
  00082	8d 4e 74	 lea	 ecx, DWORD PTR [esi+116]
  00085	c6 45 fc 06	 mov	 BYTE PTR __$EHRec$[ebp+8], 6
  00089	e8 00 00 00 00	 call	 ??1?$_Tree@V?$_Tmap_traits@KPAVioUIRenderImage@@U?$less@K@std@@V?$allocator@U?$pair@$$CBKPAVioUIRenderImage@@@std@@@3@$0A@@std@@@std@@QAE@XZ ; std::_Tree<std::_Tmap_traits<unsigned long,ioUIRenderImage *,std::less<unsigned long>,std::allocator<std::pair<unsigned long const ,ioUIRenderImage *> >,0> >::~_Tree<std::_Tmap_traits<unsigned long,ioUIRenderImage *,std::less<unsigned long>,std::allocator<std::pair<unsigned long const ,ioUIRenderImage *> >,0> >
  0008e	8d 4e 58	 lea	 ecx, DWORD PTR [esi+88]
  00091	c6 45 fc 05	 mov	 BYTE PTR __$EHRec$[ebp+8], 5
  00095	e8 00 00 00 00	 call	 ?_Tidy@?$vector@PAUCustomMarkData@ioGuildMarkMgr@@V?$allocator@PAUCustomMarkData@ioGuildMarkMgr@@@std@@@std@@IAEXXZ ; std::vector<ioGuildMarkMgr::CustomMarkData *,std::allocator<ioGuildMarkMgr::CustomMarkData *> >::_Tidy
  0009a	8d 4e 48	 lea	 ecx, DWORD PTR [esi+72]
  0009d	c6 45 fc 04	 mov	 BYTE PTR __$EHRec$[ebp+8], 4
  000a1	e8 00 00 00 00	 call	 ?_Tidy@?$vector@PAUCustomMarkData@ioGuildMarkMgr@@V?$allocator@PAUCustomMarkData@ioGuildMarkMgr@@@std@@@std@@IAEXXZ ; std::vector<ioGuildMarkMgr::CustomMarkData *,std::allocator<ioGuildMarkMgr::CustomMarkData *> >::_Tidy
  000a6	8d 4e 38	 lea	 ecx, DWORD PTR [esi+56]
  000a9	c6 45 fc 03	 mov	 BYTE PTR __$EHRec$[ebp+8], 3
  000ad	e8 00 00 00 00	 call	 ?_Tidy@?$vector@PAUCustomMarkData@ioGuildMarkMgr@@V?$allocator@PAUCustomMarkData@ioGuildMarkMgr@@@std@@@std@@IAEXXZ ; std::vector<ioGuildMarkMgr::CustomMarkData *,std::allocator<ioGuildMarkMgr::CustomMarkData *> >::_Tidy
  000b2	8d 4e 28	 lea	 ecx, DWORD PTR [esi+40]
  000b5	c6 45 fc 02	 mov	 BYTE PTR __$EHRec$[ebp+8], 2
  000b9	e8 00 00 00 00	 call	 ?_Tidy@?$vector@PAUCustomMarkData@ioGuildMarkMgr@@V?$allocator@PAUCustomMarkData@ioGuildMarkMgr@@@std@@@std@@IAEXXZ ; std::vector<ioGuildMarkMgr::CustomMarkData *,std::allocator<ioGuildMarkMgr::CustomMarkData *> >::_Tidy
  000be	8d 4e 14	 lea	 ecx, DWORD PTR [esi+20]
  000c1	c6 45 fc 01	 mov	 BYTE PTR __$EHRec$[ebp+8], 1
  000c5	e8 00 00 00 00	 call	 ??1?$_Tree@V?$_Tmap_traits@KPAVioUIRenderImage@@U?$less@K@std@@V?$allocator@U?$pair@$$CBKPAVioUIRenderImage@@@std@@@3@$0A@@std@@@std@@QAE@XZ ; std::_Tree<std::_Tmap_traits<unsigned long,ioUIRenderImage *,std::less<unsigned long>,std::allocator<std::pair<unsigned long const ,ioUIRenderImage *> >,0> >::~_Tree<std::_Tmap_traits<unsigned long,ioUIRenderImage *,std::less<unsigned long>,std::allocator<std::pair<unsigned long const ,ioUIRenderImage *> >,0> >
  000ca	8d 4e 04	 lea	 ecx, DWORD PTR [esi+4]
  000cd	c6 45 fc 00	 mov	 BYTE PTR __$EHRec$[ebp+8], 0
  000d1	e8 00 00 00 00	 call	 ??1?$_Tree@V?$_Tmap_traits@KPAVioUIRenderImage@@U?$less@K@std@@V?$allocator@U?$pair@$$CBKPAVioUIRenderImage@@@std@@@3@$0A@@std@@@std@@QAE@XZ ; std::_Tree<std::_Tmap_traits<unsigned long,ioUIRenderImage *,std::less<unsigned long>,std::allocator<std::pair<unsigned long const ,ioUIRenderImage *> >,0> >::~_Tree<std::_Tmap_traits<unsigned long,ioUIRenderImage *,std::less<unsigned long>,std::allocator<std::pair<unsigned long const ,ioUIRenderImage *> >,0> >
  000d6	83 25 00 00 00
	00 00		 and	 DWORD PTR ?ms_Singleton@?$Singleton@VioGuildMarkMgr@@@@1PAVioGuildMarkMgr@@A, 0 ; Singleton<ioGuildMarkMgr>::ms_Singleton
  000dd	e8 00 00 00 00	 call	 __EH_epilog3
  000e2	c3		 ret	 0
_TEXT	ENDS
;	COMDAT text$x
text$x	SEGMENT
__unwindfunclet$??1ioGuildMarkMgr@@UAE@XZ$0:
  00000	8b 4d f0	 mov	 ecx, DWORD PTR _this$[ebp]
  00003	83 c1 04	 add	 ecx, 4
  00006	e9 00 00 00 00	 jmp	 ??1?$Singleton@VioGuildMarkMgr@@@@QAE@XZ ; Singleton<ioGuildMarkMgr>::~Singleton<ioGuildMarkMgr>
__unwindfunclet$??1ioGuildMarkMgr@@UAE@XZ$1:
  0000b	8b 4d f0	 mov	 ecx, DWORD PTR _this$[ebp]
  0000e	83 c1 04	 add	 ecx, 4
  00011	e9 00 00 00 00	 jmp	 ??1?$map@KPAVioUIRenderImage@@U?$less@K@std@@V?$allocator@U?$pair@$$CBKPAVioUIRenderImage@@@std@@@3@@std@@QAE@XZ
__unwindfunclet$??1ioGuildMarkMgr@@UAE@XZ$2:
  00016	8b 4d f0	 mov	 ecx, DWORD PTR _this$[ebp]
  00019	83 c1 14	 add	 ecx, 20			; 00000014H
  0001c	e9 00 00 00 00	 jmp	 ??1?$map@KPAVioUIRenderImage@@U?$less@K@std@@V?$allocator@U?$pair@$$CBKPAVioUIRenderImage@@@std@@@3@@std@@QAE@XZ
__unwindfunclet$??1ioGuildMarkMgr@@UAE@XZ$3:
  00021	8b 4d f0	 mov	 ecx, DWORD PTR _this$[ebp]
  00024	83 c1 28	 add	 ecx, 40			; 00000028H
  00027	e9 00 00 00 00	 jmp	 ??1?$vector@PAUCustomMarkData@ioGuildMarkMgr@@V?$allocator@PAUCustomMarkData@ioGuildMarkMgr@@@std@@@std@@QAE@XZ ; std::vector<ioGuildMarkMgr::CustomMarkData *,std::allocator<ioGuildMarkMgr::CustomMarkData *> >::~vector<ioGuildMarkMgr::CustomMarkData *,std::allocator<ioGuildMarkMgr::CustomMarkData *> >
__unwindfunclet$??1ioGuildMarkMgr@@UAE@XZ$4:
  0002c	8b 4d f0	 mov	 ecx, DWORD PTR _this$[ebp]
  0002f	83 c1 38	 add	 ecx, 56			; 00000038H
  00032	e9 00 00 00 00	 jmp	 ??1?$vector@PAUCustomMarkData@ioGuildMarkMgr@@V?$allocator@PAUCustomMarkData@ioGuildMarkMgr@@@std@@@std@@QAE@XZ ; std::vector<ioGuildMarkMgr::CustomMarkData *,std::allocator<ioGuildMarkMgr::CustomMarkData *> >::~vector<ioGuildMarkMgr::CustomMarkData *,std::allocator<ioGuildMarkMgr::CustomMarkData *> >
__unwindfunclet$??1ioGuildMarkMgr@@UAE@XZ$5:
  00037	8b 4d f0	 mov	 ecx, DWORD PTR _this$[ebp]
  0003a	83 c1 48	 add	 ecx, 72			; 00000048H
  0003d	e9 00 00 00 00	 jmp	 ??1?$vector@PAUCustomMarkData@ioGuildMarkMgr@@V?$allocator@PAUCustomMarkData@ioGuildMarkMgr@@@std@@@std@@QAE@XZ ; std::vector<ioGuildMarkMgr::CustomMarkData *,std::allocator<ioGuildMarkMgr::CustomMarkData *> >::~vector<ioGuildMarkMgr::CustomMarkData *,std::allocator<ioGuildMarkMgr::CustomMarkData *> >
__unwindfunclet$??1ioGuildMarkMgr@@UAE@XZ$6:
  00042	8b 4d f0	 mov	 ecx, DWORD PTR _this$[ebp]
  00045	83 c1 58	 add	 ecx, 88			; 00000058H
  00048	e9 00 00 00 00	 jmp	 ??1?$vector@PAUCustomMarkData@ioGuildMarkMgr@@V?$allocator@PAUCustomMarkData@ioGuildMarkMgr@@@std@@@std@@QAE@XZ ; std::vector<ioGuildMarkMgr::CustomMarkData *,std::allocator<ioGuildMarkMgr::CustomMarkData *> >::~vector<ioGuildMarkMgr::CustomMarkData *,std::allocator<ioGuildMarkMgr::CustomMarkData *> >
__unwindfunclet$??1ioGuildMarkMgr@@UAE@XZ$7:
  0004d	8b 4d f0	 mov	 ecx, DWORD PTR _this$[ebp]
  00050	83 c1 74	 add	 ecx, 116		; 00000074H
  00053	e9 00 00 00 00	 jmp	 ??1?$map@KPAVioUIRenderImage@@U?$less@K@std@@V?$allocator@U?$pair@$$CBKPAVioUIRenderImage@@@std@@@3@@std@@QAE@XZ
__unwindfunclet$??1ioGuildMarkMgr@@UAE@XZ$8:
  00058	8b 4d f0	 mov	 ecx, DWORD PTR _this$[ebp]
  0005b	81 c1 84 00 00
	00		 add	 ecx, 132		; 00000084H
  00061	e9 00 00 00 00	 jmp	 ??1?$map@KPAVioUIRenderImage@@U?$less@K@std@@V?$allocator@U?$pair@$$CBKPAVioUIRenderImage@@@std@@@3@@std@@QAE@XZ
__unwindfunclet$??1ioGuildMarkMgr@@UAE@XZ$9:
  00066	8b 4d f0	 mov	 ecx, DWORD PTR _this$[ebp]
  00069	81 c1 94 00 00
	00		 add	 ecx, 148		; 00000094H
  0006f	ff 25 00 00 00
	00		 jmp	 DWORD PTR __imp_??1ioHashString@@QAE@XZ
__unwindfunclet$??1ioGuildMarkMgr@@UAE@XZ$10:
  00075	8b 4d f0	 mov	 ecx, DWORD PTR _this$[ebp]
  00078	81 c1 a4 00 00
	00		 add	 ecx, 164		; 000000a4H
  0007e	ff 25 00 00 00
	00		 jmp	 DWORD PTR __imp_??1ioHashString@@QAE@XZ
__unwindfunclet$??1ioGuildMarkMgr@@UAE@XZ$11:
  00084	8b 4d f0	 mov	 ecx, DWORD PTR _this$[ebp]
  00087	81 c1 b4 00 00
	00		 add	 ecx, 180		; 000000b4H
  0008d	e9 00 00 00 00	 jmp	 ??1?$list@KV?$allocator@K@std@@@std@@QAE@XZ ; std::list<unsigned long,std::allocator<unsigned long> >::~list<unsigned long,std::allocator<unsigned long> >
__ehhandler$??1ioGuildMarkMgr@@UAE@XZ:
  00092	8b 54 24 08	 mov	 edx, DWORD PTR [esp+8]
  00096	8d 42 0c	 lea	 eax, DWORD PTR [edx+12]
  00099	8b 4a ec	 mov	 ecx, DWORD PTR [edx-20]
  0009c	33 c8		 xor	 ecx, eax
  0009e	e8 00 00 00 00	 call	 @__security_check_cookie@4
  000a3	b8 00 00 00 00	 mov	 eax, OFFSET __ehfuncinfo$??1ioGuildMarkMgr@@UAE@XZ
  000a8	e9 00 00 00 00	 jmp	 ___CxxFrameHandler3
text$x	ENDS
??1ioGuildMarkMgr@@UAE@XZ ENDP				; ioGuildMarkMgr::~ioGuildMarkMgr
PUBLIC	?CreateGuildSmallMark@ioGuildMarkMgr@@IAEXKABVioHashString@@@Z ; ioGuildMarkMgr::CreateGuildSmallMark
EXTRN	__imp_?CreateImageByFullName@ioUIImageSetManager@@QAEPAVioUIRenderImage@@ABVioHashString@@_N@Z:PROC
EXTRN	__imp_?GetSingleton@ioUIImageSetManager@@SAAAV1@XZ:PROC
; Function compile flags: /Ogsp
;	COMDAT ?CreateGuildSmallMark@ioGuildMarkMgr@@IAEXKABVioHashString@@@Z
_TEXT	SEGMENT
$T519107 = -8						; size = 8
$T519106 = -8						; size = 8
_dwGuildMark$ = 8					; size = 4
_szMarkName$ = 12					; size = 4
?CreateGuildSmallMark@ioGuildMarkMgr@@IAEXKABVioHashString@@@Z PROC ; ioGuildMarkMgr::CreateGuildSmallMark, COMDAT
; _this$ = ecx

; 316  : {

  00000	55		 push	 ebp
  00001	8b ec		 mov	 ebp, esp
  00003	51		 push	 ecx
  00004	51		 push	 ecx

; 317  : 	ioUIRenderImage *pImg = g_UIImageSetMgr.CreateImageByFullName( szMarkName );
; 318  : 	m_GuildSmallMarkMap.insert( GuildMarkMap::value_type( dwGuildMark, pImg ) );

  00005	8b 45 08	 mov	 eax, DWORD PTR _dwGuildMark$[ebp]
  00008	56		 push	 esi
  00009	6a 00		 push	 0
  0000b	ff 75 0c	 push	 DWORD PTR _szMarkName$[ebp]
  0000e	8b f1		 mov	 esi, ecx
  00010	89 45 f8	 mov	 DWORD PTR $T519106[ebp], eax
  00013	ff 15 00 00 00
	00		 call	 DWORD PTR __imp_?GetSingleton@ioUIImageSetManager@@SAAAV1@XZ
  00019	8b c8		 mov	 ecx, eax
  0001b	ff 15 00 00 00
	00		 call	 DWORD PTR __imp_?CreateImageByFullName@ioUIImageSetManager@@QAEPAVioUIRenderImage@@ABVioHashString@@_N@Z
  00021	89 45 fc	 mov	 DWORD PTR $T519106[ebp+4], eax
  00024	6a 00		 push	 0
  00026	8d 45 f8	 lea	 eax, DWORD PTR $T519106[ebp]
  00029	50		 push	 eax
  0002a	8d 4e 04	 lea	 ecx, DWORD PTR [esi+4]
  0002d	e8 00 00 00 00	 call	 ??$_Buynode@U?$pair@$$CBKPAVioUIRenderImage@@@std@@@?$_Tree_val@V?$_Tmap_traits@KPAVioUIRenderImage@@U?$less@K@std@@V?$allocator@U?$pair@$$CBKPAVioUIRenderImage@@@std@@@3@$0A@@std@@@std@@QAEPAU_Node@?$_Tree_nod@V?$_Tmap_traits@KPAVioUIRenderImage@@U?$less@K@std@@V?$allocator@U?$pair@$$CBKPAVioUIRenderImage@@@std@@@3@$0A@@std@@@1@$$QAU?$pair@$$CBKPAVioUIRenderImage@@@1@@Z ; std::_Tree_val<std::_Tmap_traits<unsigned long,ioUIRenderImage *,std::less<unsigned long>,std::allocator<std::pair<unsigned long const ,ioUIRenderImage *> >,0> >::_Buynode<std::pair<unsigned long const ,ioUIRenderImage *> >
  00032	50		 push	 eax
  00033	8d 45 f8	 lea	 eax, DWORD PTR $T519107[ebp]
  00036	50		 push	 eax
  00037	8d 4e 04	 lea	 ecx, DWORD PTR [esi+4]
  0003a	e8 00 00 00 00	 call	 ?_Linsert@?$_Tree@V?$_Tmap_traits@KPAVioUIRenderImage@@U?$less@K@std@@V?$allocator@U?$pair@$$CBKPAVioUIRenderImage@@@std@@@3@$0A@@std@@@std@@QAE?AU?$pair@V?$_Tree_iterator@V?$_Tree_val@V?$_Tmap_traits@KPAVioUIRenderImage@@U?$less@K@std@@V?$allocator@U?$pair@$$CBKPAVioUIRenderImage@@@std@@@3@$0A@@std@@@std@@@std@@_N@2@PAU_Node@?$_Tree_nod@V?$_Tmap_traits@KPAVioUIRenderImage@@U?$less@K@std@@V?$allocator@U?$pair@$$CBKPAVioUIRenderImage@@@std@@@3@$0A@@std@@@2@_N@Z ; std::_Tree<std::_Tmap_traits<unsigned long,ioUIRenderImage *,std::less<unsigned long>,std::allocator<std::pair<unsigned long const ,ioUIRenderImage *> >,0> >::_Linsert
  0003f	5e		 pop	 esi

; 319  : }

  00040	c9		 leave
  00041	c2 08 00	 ret	 8
?CreateGuildSmallMark@ioGuildMarkMgr@@IAEXKABVioHashString@@@Z ENDP ; ioGuildMarkMgr::CreateGuildSmallMark
_TEXT	ENDS
PUBLIC	?CreateGuildBigMark@ioGuildMarkMgr@@IAEXKABVioHashString@@@Z ; ioGuildMarkMgr::CreateGuildBigMark
EXTRN	__imp_?SetVertFormatting@ioUIRenderImage@@QAEXW4VertFormatting@1@@Z:PROC
EXTRN	__imp_?SetHorzFormatting@ioUIRenderImage@@QAEXW4HorzFormatting@1@@Z:PROC
; Function compile flags: /Ogsp
;	COMDAT ?CreateGuildBigMark@ioGuildMarkMgr@@IAEXKABVioHashString@@@Z
_TEXT	SEGMENT
$T519152 = -8						; size = 8
$T519151 = -8						; size = 8
_dwGuildMark$ = 8					; size = 4
_szMarkName$ = 12					; size = 4
?CreateGuildBigMark@ioGuildMarkMgr@@IAEXKABVioHashString@@@Z PROC ; ioGuildMarkMgr::CreateGuildBigMark, COMDAT
; _this$ = ecx

; 322  : {

  00000	55		 push	 ebp
  00001	8b ec		 mov	 ebp, esp
  00003	51		 push	 ecx
  00004	51		 push	 ecx
  00005	56		 push	 esi
  00006	57		 push	 edi

; 323  : 	ioUIRenderImage *pImg = g_UIImageSetMgr.CreateImageByFullName( szMarkName );		

  00007	6a 00		 push	 0
  00009	ff 75 0c	 push	 DWORD PTR _szMarkName$[ebp]
  0000c	8b f9		 mov	 edi, ecx
  0000e	ff 15 00 00 00
	00		 call	 DWORD PTR __imp_?GetSingleton@ioUIImageSetManager@@SAAAV1@XZ
  00014	8b c8		 mov	 ecx, eax
  00016	ff 15 00 00 00
	00		 call	 DWORD PTR __imp_?CreateImageByFullName@ioUIImageSetManager@@QAEPAVioUIRenderImage@@ABVioHashString@@_N@Z
  0001c	8b f0		 mov	 esi, eax

; 324  : 	if( pImg )

  0001e	85 f6		 test	 esi, esi
  00020	74 14		 je	 SHORT $LN1@CreateGuil

; 325  : 	{
; 326  : 		pImg->SetHorzFormatting( ioUIRenderImage::HF_STRETCH );

  00022	6a 03		 push	 3
  00024	8b ce		 mov	 ecx, esi
  00026	ff 15 00 00 00
	00		 call	 DWORD PTR __imp_?SetHorzFormatting@ioUIRenderImage@@QAEXW4HorzFormatting@1@@Z

; 327  : 		pImg->SetVertFormatting( ioUIRenderImage::VF_STRETCH );

  0002c	6a 03		 push	 3
  0002e	8b ce		 mov	 ecx, esi
  00030	ff 15 00 00 00
	00		 call	 DWORD PTR __imp_?SetVertFormatting@ioUIRenderImage@@QAEXW4VertFormatting@1@@Z
$LN1@CreateGuil:

; 328  : 	}
; 329  : 	m_GuildBigMarkMap.insert( GuildMarkMap::value_type( dwGuildMark, pImg ) );

  00036	8b 45 08	 mov	 eax, DWORD PTR _dwGuildMark$[ebp]
  00039	89 45 f8	 mov	 DWORD PTR $T519151[ebp], eax
  0003c	6a 00		 push	 0
  0003e	8d 45 f8	 lea	 eax, DWORD PTR $T519151[ebp]
  00041	50		 push	 eax
  00042	8d 4f 14	 lea	 ecx, DWORD PTR [edi+20]
  00045	89 75 fc	 mov	 DWORD PTR $T519151[ebp+4], esi
  00048	e8 00 00 00 00	 call	 ??$_Buynode@U?$pair@$$CBKPAVioUIRenderImage@@@std@@@?$_Tree_val@V?$_Tmap_traits@KPAVioUIRenderImage@@U?$less@K@std@@V?$allocator@U?$pair@$$CBKPAVioUIRenderImage@@@std@@@3@$0A@@std@@@std@@QAEPAU_Node@?$_Tree_nod@V?$_Tmap_traits@KPAVioUIRenderImage@@U?$less@K@std@@V?$allocator@U?$pair@$$CBKPAVioUIRenderImage@@@std@@@3@$0A@@std@@@1@$$QAU?$pair@$$CBKPAVioUIRenderImage@@@1@@Z ; std::_Tree_val<std::_Tmap_traits<unsigned long,ioUIRenderImage *,std::less<unsigned long>,std::allocator<std::pair<unsigned long const ,ioUIRenderImage *> >,0> >::_Buynode<std::pair<unsigned long const ,ioUIRenderImage *> >
  0004d	50		 push	 eax
  0004e	8d 45 f8	 lea	 eax, DWORD PTR $T519152[ebp]
  00051	50		 push	 eax
  00052	8d 4f 14	 lea	 ecx, DWORD PTR [edi+20]
  00055	e8 00 00 00 00	 call	 ?_Linsert@?$_Tree@V?$_Tmap_traits@KPAVioUIRenderImage@@U?$less@K@std@@V?$allocator@U?$pair@$$CBKPAVioUIRenderImage@@@std@@@3@$0A@@std@@@std@@QAE?AU?$pair@V?$_Tree_iterator@V?$_Tree_val@V?$_Tmap_traits@KPAVioUIRenderImage@@U?$less@K@std@@V?$allocator@U?$pair@$$CBKPAVioUIRenderImage@@@std@@@3@$0A@@std@@@std@@@std@@_N@2@PAU_Node@?$_Tree_nod@V?$_Tmap_traits@KPAVioUIRenderImage@@U?$less@K@std@@V?$allocator@U?$pair@$$CBKPAVioUIRenderImage@@@std@@@3@$0A@@std@@@2@_N@Z ; std::_Tree<std::_Tmap_traits<unsigned long,ioUIRenderImage *,std::less<unsigned long>,std::allocator<std::pair<unsigned long const ,ioUIRenderImage *> >,0> >::_Linsert
  0005a	5f		 pop	 edi
  0005b	5e		 pop	 esi

; 330  : }

  0005c	c9		 leave
  0005d	c2 08 00	 ret	 8
?CreateGuildBigMark@ioGuildMarkMgr@@IAEXKABVioHashString@@@Z ENDP ; ioGuildMarkMgr::CreateGuildBigMark
_TEXT	ENDS
PUBLIC	??_C@_01KDCPPGHE@r?$AA@				; `string'
PUBLIC	__$ArrayPad$
PUBLIC	?GetSmallMarkImageCustom@ioGuildMarkMgr@@IAEPAVioUIRenderImage@@KK@Z ; ioGuildMarkMgr::GetSmallMarkImageCustom
EXTRN	__imp__fclose:PROC
EXTRN	__imp__fopen:PROC
;	COMDAT ??_C@_01KDCPPGHE@r?$AA@
CONST	SEGMENT
??_C@_01KDCPPGHE@r?$AA@ DB 'r', 00H			; `string'
; Function compile flags: /Ogsp
CONST	ENDS
;	COMDAT ?GetSmallMarkImageCustom@ioGuildMarkMgr@@IAEPAVioUIRenderImage@@KK@Z
_TEXT	SEGMENT
_szBuf$507818 = -264					; size = 260
__$ArrayPad$ = -4					; size = 4
_dwGuildIndex$ = 8					; size = 4
_dwGuildMark$ = 12					; size = 4
?GetSmallMarkImageCustom@ioGuildMarkMgr@@IAEPAVioUIRenderImage@@KK@Z PROC ; ioGuildMarkMgr::GetSmallMarkImageCustom, COMDAT
; _this$ = ecx

; 372  : {	

  00000	55		 push	 ebp
  00001	8b ec		 mov	 ebp, esp
  00003	81 ec 08 01 00
	00		 sub	 esp, 264		; 00000108H
  00009	a1 00 00 00 00	 mov	 eax, DWORD PTR ___security_cookie
  0000e	33 c5		 xor	 eax, ebp
  00010	89 45 fc	 mov	 DWORD PTR __$ArrayPad$[ebp], eax
  00013	53		 push	 ebx
  00014	56		 push	 esi
  00015	8b 75 08	 mov	 esi, DWORD PTR _dwGuildIndex$[ebp]
  00018	57		 push	 edi
  00019	8b 7d 0c	 mov	 edi, DWORD PTR _dwGuildMark$[ebp]

; 373  : 	{//  
; 374  : 		ioUIRenderImage *pRenderImage = GetSmallMarkImageCustomList( dwGuildIndex, dwGuildMark );

  0001c	57		 push	 edi
  0001d	56		 push	 esi
  0001e	8b d9		 mov	 ebx, ecx
  00020	e8 00 00 00 00	 call	 ?GetSmallMarkImageCustomList@ioGuildMarkMgr@@IAEPAVioUIRenderImage@@KK@Z ; ioGuildMarkMgr::GetSmallMarkImageCustomList

; 375  : 		if( pRenderImage )

  00025	85 c0		 test	 eax, eax

; 376  : 			return pRenderImage;

  00027	75 74		 jne	 SHORT $LN1@GetSmallMa@4

; 377  : 	}
; 378  : 	
; 379  : 	{//  
; 380  : 		
; 381  : 		//
; 382  : 		char szBuf[MAX_PATH] = "";

  00029	68 03 01 00 00	 push	 259			; 00000103H
  0002e	50		 push	 eax
  0002f	88 85 f8 fe ff
	ff		 mov	 BYTE PTR _szBuf$507818[ebp], al
  00035	8d 85 f9 fe ff
	ff		 lea	 eax, DWORD PTR _szBuf$507818[ebp+1]
  0003b	50		 push	 eax
  0003c	e8 00 00 00 00	 call	 _memset
  00041	83 c4 0c	 add	 esp, 12			; 0000000cH

; 383  : 		sprintf( szBuf, "%s/%d_%d_s.jpg", m_szAppDirectory.c_str(), dwGuildIndex, dwGuildMark );

  00044	57		 push	 edi
  00045	56		 push	 esi
  00046	8d 8b a4 00 00
	00		 lea	 ecx, DWORD PTR [ebx+164]
  0004c	ff 15 00 00 00
	00		 call	 DWORD PTR __imp_?c_str@ioHashString@@QBEPBDXZ
  00052	50		 push	 eax
  00053	8d 85 f8 fe ff
	ff		 lea	 eax, DWORD PTR _szBuf$507818[ebp]
  00059	68 00 00 00 00	 push	 OFFSET ??_C@_0P@CJCFHMGK@?$CFs?1?$CFd_?$CFd_s?4jpg?$AA@
  0005e	50		 push	 eax
  0005f	ff 15 00 00 00
	00		 call	 DWORD PTR __imp__sprintf

; 384  : 
; 385  : 		FILE *pFile = fopen( szBuf, "r" );

  00065	8d 85 f8 fe ff
	ff		 lea	 eax, DWORD PTR _szBuf$507818[ebp]
  0006b	68 00 00 00 00	 push	 OFFSET ??_C@_01KDCPPGHE@r?$AA@
  00070	50		 push	 eax
  00071	ff 15 00 00 00
	00		 call	 DWORD PTR __imp__fopen
  00077	83 c4 1c	 add	 esp, 28			; 0000001cH

; 386  : 		if( pFile == NULL ) 

  0007a	85 c0		 test	 eax, eax
  0007c	75 0e		 jne	 SHORT $LN2@GetSmallMa@4

; 387  : 		{
; 388  : 			// .
; 389  : 			AddLoadGuildMark( dwGuildIndex, dwGuildMark, false );

  0007e	50		 push	 eax
  0007f	57		 push	 edi
  00080	56		 push	 esi
  00081	8b cb		 mov	 ecx, ebx
  00083	e8 00 00 00 00	 call	 ?AddLoadGuildMark@ioGuildMarkMgr@@IAEXKK_N@Z ; ioGuildMarkMgr::AddLoadGuildMark

; 390  : 			return NULL;

  00088	33 c0		 xor	 eax, eax
  0008a	eb 11		 jmp	 SHORT $LN1@GetSmallMa@4
$LN2@GetSmallMa@4:

; 391  : 		}
; 392  : 		fclose( pFile );

  0008c	50		 push	 eax
  0008d	ff 15 00 00 00
	00		 call	 DWORD PTR __imp__fclose
  00093	59		 pop	 ecx

; 393  : 	}
; 394  : 
; 395  : 	{// 
; 396  : 		ioUIRenderImage *pRenderImage = GetSmallMarkImageCustomCreate( dwGuildIndex, dwGuildMark );

  00094	57		 push	 edi
  00095	56		 push	 esi
  00096	8b cb		 mov	 ecx, ebx
  00098	e8 00 00 00 00	 call	 ?GetSmallMarkImageCustomCreate@ioGuildMarkMgr@@IAEPAVioUIRenderImage@@KK@Z ; ioGuildMarkMgr::GetSmallMarkImageCustomCreate
$LN1@GetSmallMa@4:

; 397  : 		if( pRenderImage )
; 398  : 			return pRenderImage;
; 399  : 	}
; 400  : 	return NULL;
; 401  : }

  0009d	8b 4d fc	 mov	 ecx, DWORD PTR __$ArrayPad$[ebp]
  000a0	5f		 pop	 edi
  000a1	5e		 pop	 esi
  000a2	33 cd		 xor	 ecx, ebp
  000a4	5b		 pop	 ebx
  000a5	e8 00 00 00 00	 call	 @__security_check_cookie@4
  000aa	c9		 leave
  000ab	c2 08 00	 ret	 8
?GetSmallMarkImageCustom@ioGuildMarkMgr@@IAEPAVioUIRenderImage@@KK@Z ENDP ; ioGuildMarkMgr::GetSmallMarkImageCustom
_TEXT	ENDS
PUBLIC	__$ArrayPad$
PUBLIC	?GetBigMarkImageCustom@ioGuildMarkMgr@@IAEPAVioUIRenderImage@@KK@Z ; ioGuildMarkMgr::GetBigMarkImageCustom
; Function compile flags: /Ogsp
;	COMDAT ?GetBigMarkImageCustom@ioGuildMarkMgr@@IAEPAVioUIRenderImage@@KK@Z
_TEXT	SEGMENT
_szBuf$507896 = -264					; size = 260
__$ArrayPad$ = -4					; size = 4
_dwGuildIndex$ = 8					; size = 4
_dwGuildMark$ = 12					; size = 4
?GetBigMarkImageCustom@ioGuildMarkMgr@@IAEPAVioUIRenderImage@@KK@Z PROC ; ioGuildMarkMgr::GetBigMarkImageCustom, COMDAT
; _this$ = ecx

; 498  : {

  00000	55		 push	 ebp
  00001	8b ec		 mov	 ebp, esp
  00003	81 ec 08 01 00
	00		 sub	 esp, 264		; 00000108H
  00009	a1 00 00 00 00	 mov	 eax, DWORD PTR ___security_cookie
  0000e	33 c5		 xor	 eax, ebp
  00010	89 45 fc	 mov	 DWORD PTR __$ArrayPad$[ebp], eax
  00013	53		 push	 ebx
  00014	56		 push	 esi
  00015	8b 75 08	 mov	 esi, DWORD PTR _dwGuildIndex$[ebp]
  00018	57		 push	 edi
  00019	8b 7d 0c	 mov	 edi, DWORD PTR _dwGuildMark$[ebp]

; 499  : 	{//  
; 500  : 		ioUIRenderImage *pRenderImage = GetBigMarkImageCustomList( dwGuildIndex, dwGuildMark );

  0001c	57		 push	 edi
  0001d	56		 push	 esi
  0001e	8b d9		 mov	 ebx, ecx
  00020	e8 00 00 00 00	 call	 ?GetBigMarkImageCustomList@ioGuildMarkMgr@@IAEPAVioUIRenderImage@@KK@Z ; ioGuildMarkMgr::GetBigMarkImageCustomList

; 501  : 		if( pRenderImage )

  00025	85 c0		 test	 eax, eax

; 502  : 			return pRenderImage;

  00027	75 75		 jne	 SHORT $LN1@GetBigMark@4

; 503  : 	}
; 504  : 
; 505  : 	{//  
; 506  : 
; 507  : 		//
; 508  : 		char szBuf[MAX_PATH] = "";

  00029	68 03 01 00 00	 push	 259			; 00000103H
  0002e	50		 push	 eax
  0002f	88 85 f8 fe ff
	ff		 mov	 BYTE PTR _szBuf$507896[ebp], al
  00035	8d 85 f9 fe ff
	ff		 lea	 eax, DWORD PTR _szBuf$507896[ebp+1]
  0003b	50		 push	 eax
  0003c	e8 00 00 00 00	 call	 _memset
  00041	83 c4 0c	 add	 esp, 12			; 0000000cH

; 509  : 		sprintf( szBuf, "%s/%d_%d_l.jpg", m_szAppDirectory.c_str(), dwGuildIndex, dwGuildMark );

  00044	57		 push	 edi
  00045	56		 push	 esi
  00046	8d 8b a4 00 00
	00		 lea	 ecx, DWORD PTR [ebx+164]
  0004c	ff 15 00 00 00
	00		 call	 DWORD PTR __imp_?c_str@ioHashString@@QBEPBDXZ
  00052	50		 push	 eax
  00053	8d 85 f8 fe ff
	ff		 lea	 eax, DWORD PTR _szBuf$507896[ebp]
  00059	68 00 00 00 00	 push	 OFFSET ??_C@_0P@NLKFMMCE@?$CFs?1?$CFd_?$CFd_l?4jpg?$AA@
  0005e	50		 push	 eax
  0005f	ff 15 00 00 00
	00		 call	 DWORD PTR __imp__sprintf

; 510  : 
; 511  : 		FILE *pFile = fopen( szBuf, "r" );

  00065	8d 85 f8 fe ff
	ff		 lea	 eax, DWORD PTR _szBuf$507896[ebp]
  0006b	68 00 00 00 00	 push	 OFFSET ??_C@_01KDCPPGHE@r?$AA@
  00070	50		 push	 eax
  00071	ff 15 00 00 00
	00		 call	 DWORD PTR __imp__fopen
  00077	83 c4 1c	 add	 esp, 28			; 0000001cH

; 512  : 		if( pFile == NULL ) 

  0007a	85 c0		 test	 eax, eax
  0007c	75 0f		 jne	 SHORT $LN2@GetBigMark@4

; 513  : 		{
; 514  : 			// .
; 515  : 			AddLoadGuildMark( dwGuildIndex, dwGuildMark, true );

  0007e	6a 01		 push	 1
  00080	57		 push	 edi
  00081	56		 push	 esi
  00082	8b cb		 mov	 ecx, ebx
  00084	e8 00 00 00 00	 call	 ?AddLoadGuildMark@ioGuildMarkMgr@@IAEXKK_N@Z ; ioGuildMarkMgr::AddLoadGuildMark

; 516  : 			return NULL;

  00089	33 c0		 xor	 eax, eax
  0008b	eb 11		 jmp	 SHORT $LN1@GetBigMark@4
$LN2@GetBigMark@4:

; 517  : 		}
; 518  : 		fclose( pFile );

  0008d	50		 push	 eax
  0008e	ff 15 00 00 00
	00		 call	 DWORD PTR __imp__fclose
  00094	59		 pop	 ecx

; 519  : 	}
; 520  : 	
; 521  : 	{// 
; 522  : 		ioUIRenderImage *pRenderImage = GetBigMarkImageCustomCreate( dwGuildIndex, dwGuildMark );

  00095	57		 push	 edi
  00096	56		 push	 esi
  00097	8b cb		 mov	 ecx, ebx
  00099	e8 00 00 00 00	 call	 ?GetBigMarkImageCustomCreate@ioGuildMarkMgr@@IAEPAVioUIRenderImage@@KK@Z ; ioGuildMarkMgr::GetBigMarkImageCustomCreate
$LN1@GetBigMark@4:

; 523  : 		if( pRenderImage )
; 524  : 			return pRenderImage;
; 525  : 	}
; 526  : 	return NULL;
; 527  : }

  0009e	8b 4d fc	 mov	 ecx, DWORD PTR __$ArrayPad$[ebp]
  000a1	5f		 pop	 edi
  000a2	5e		 pop	 esi
  000a3	33 cd		 xor	 ecx, ebp
  000a5	5b		 pop	 ebx
  000a6	e8 00 00 00 00	 call	 @__security_check_cookie@4
  000ab	c9		 leave
  000ac	c2 08 00	 ret	 8
?GetBigMarkImageCustom@ioGuildMarkMgr@@IAEPAVioUIRenderImage@@KK@Z ENDP ; ioGuildMarkMgr::GetBigMarkImageCustom
_TEXT	ENDS
PUBLIC	??0?$map@KPAVioUIRenderImage@@U?$less@K@std@@V?$allocator@U?$pair@$$CBKPAVioUIRenderImage@@@std@@@3@@std@@QAE@XZ ; std::map<unsigned long,ioUIRenderImage *,std::less<unsigned long>,std::allocator<std::pair<unsigned long const ,ioUIRenderImage *> > >::map<unsigned long,ioUIRenderImage *,std::less<unsigned long>,std::allocator<std::pair<unsigned long const ,ioUIRenderImage *> > >
; Function compile flags: /Ogsp
; File c:\program files (x86)\microsoft visual studio 10.0\vc\include\map
;	COMDAT ??0?$map@KPAVioUIRenderImage@@U?$less@K@std@@V?$allocator@U?$pair@$$CBKPAVioUIRenderImage@@@std@@@3@@std@@QAE@XZ
_TEXT	SEGMENT
$T519220 = -8						; size = 4
$T519222 = -8						; size = 4
$T519209 = -1						; size = 1
??0?$map@KPAVioUIRenderImage@@U?$less@K@std@@V?$allocator@U?$pair@$$CBKPAVioUIRenderImage@@@std@@@3@@std@@QAE@XZ PROC ; std::map<unsigned long,ioUIRenderImage *,std::less<unsigned long>,std::allocator<std::pair<unsigned long const ,ioUIRenderImage *> > >::map<unsigned long,ioUIRenderImage *,std::less<unsigned long>,std::allocator<std::pair<unsigned long const ,ioUIRenderImage *> > >, COMDAT
; _this$ = ecx

; 106  : 		{	// construct empty map from defaults

  00000	55		 push	 ebp
  00001	8b ec		 mov	 ebp, esp
  00003	51		 push	 ecx
  00004	51		 push	 ecx
  00005	56		 push	 esi
  00006	51		 push	 ecx
  00007	89 65 f8	 mov	 DWORD PTR $T519222[ebp], esp
  0000a	8d 45 ff	 lea	 eax, DWORD PTR $T519209[ebp]
  0000d	89 65 f8	 mov	 DWORD PTR $T519220[ebp], esp
  00010	50		 push	 eax
  00011	8b f1		 mov	 esi, ecx
  00013	e8 00 00 00 00	 call	 ??0?$_Tree_val@V?$_Tmap_traits@KPAVioUIRenderImage@@U?$less@K@std@@V?$allocator@U?$pair@$$CBKPAVioUIRenderImage@@@std@@@3@$0A@@std@@@std@@QAE@ABU?$less@K@1@V?$allocator@U?$pair@$$CBKPAVioUIRenderImage@@@std@@@1@@Z ; std::_Tree_val<std::_Tmap_traits<unsigned long,ioUIRenderImage *,std::less<unsigned long>,std::allocator<std::pair<unsigned long const ,ioUIRenderImage *> >,0> >::_Tree_val<std::_Tmap_traits<unsigned long,ioUIRenderImage *,std::less<unsigned long>,std::allocator<std::pair<unsigned long const ,ioUIRenderImage *> >,0> >

; 107  : 		}

  00018	8b c6		 mov	 eax, esi
  0001a	5e		 pop	 esi
  0001b	c9		 leave
  0001c	c3		 ret	 0
??0?$map@KPAVioUIRenderImage@@U?$less@K@std@@V?$allocator@U?$pair@$$CBKPAVioUIRenderImage@@@std@@@3@@std@@QAE@XZ ENDP ; std::map<unsigned long,ioUIRenderImage *,std::less<unsigned long>,std::allocator<std::pair<unsigned long const ,ioUIRenderImage *> > >::map<unsigned long,ioUIRenderImage *,std::less<unsigned long>,std::allocator<std::pair<unsigned long const ,ioUIRenderImage *> > >
_TEXT	ENDS
PUBLIC	__real@4f800000
PUBLIC	??0ioGuildMarkMgr@@QAE@XZ			; ioGuildMarkMgr::ioGuildMarkMgr
EXTRN	__imp_??0ioHashString@@QAE@XZ:PROC
EXTRN	__ftol2_sse:PROC
;	COMDAT __real@4f800000
; File d:\lost saga for developer\youtube\tutorial\source\src\lsclient\stdafx.h
CONST	SEGMENT
__real@4f800000 DD 04f800000r			; 4.29497e+009
CONST	ENDS
;	COMDAT xdata$x
xdata$x	SEGMENT
__ehfuncinfo$??0ioGuildMarkMgr@@QAE@XZ DD 019930522H
	DD	0bH
	DD	FLAT:__unwindtable$??0ioGuildMarkMgr@@QAE@XZ
	DD	2 DUP(00H)
	DD	2 DUP(00H)
	DD	00H
	DD	01H
__unwindtable$??0ioGuildMarkMgr@@QAE@XZ DD 0ffffffffH
	DD	FLAT:__unwindfunclet$??0ioGuildMarkMgr@@QAE@XZ$0
	DD	00H
	DD	FLAT:__unwindfunclet$??0ioGuildMarkMgr@@QAE@XZ$1
	DD	01H
	DD	FLAT:__unwindfunclet$??0ioGuildMarkMgr@@QAE@XZ$2
	DD	02H
	DD	FLAT:__unwindfunclet$??0ioGuildMarkMgr@@QAE@XZ$3
	DD	03H
	DD	FLAT:__unwindfunclet$??0ioGuildMarkMgr@@QAE@XZ$4
	DD	04H
	DD	FLAT:__unwindfunclet$??0ioGuildMarkMgr@@QAE@XZ$5
	DD	05H
	DD	FLAT:__unwindfunclet$??0ioGuildMarkMgr@@QAE@XZ$6
	DD	06H
	DD	FLAT:__unwindfunclet$??0ioGuildMarkMgr@@QAE@XZ$7
	DD	07H
	DD	FLAT:__unwindfunclet$??0ioGuildMarkMgr@@QAE@XZ$8
	DD	08H
	DD	FLAT:__unwindfunclet$??0ioGuildMarkMgr@@QAE@XZ$9
	DD	09H
	DD	FLAT:__unwindfunclet$??0ioGuildMarkMgr@@QAE@XZ$10
; Function compile flags: /Ogsp
; File d:\lost saga for developer\youtube\tutorial\source\src\lsclient\ioguildmarkmgr.cpp
xdata$x	ENDS
;	COMDAT ??0ioGuildMarkMgr@@QAE@XZ
_TEXT	SEGMENT
tv563 = -24						; size = 4
$T519455 = -24						; size = 4
$T519468 = -24						; size = 4
$T519482 = -24						; size = 4
$T519424 = -24						; size = 4
$T519479 = -24						; size = 4
$T519437 = -24						; size = 4
$T519293 = -24						; size = 4
$T519305 = -24						; size = 4
$T519262 = -24						; size = 4
$T519274 = -24						; size = 4
_this$ = -20						; size = 4
$T519464 = -13						; size = 1
$T519433 = -13						; size = 1
$T519301 = -13						; size = 1
$T519270 = -13						; size = 1
__$EHRec$ = -12						; size = 12
??0ioGuildMarkMgr@@QAE@XZ PROC				; ioGuildMarkMgr::ioGuildMarkMgr, COMDAT
; _this$ = ecx

; 68   : {

  00000	6a 0c		 push	 12			; 0000000cH
  00002	b8 00 00 00 00	 mov	 eax, __ehhandler$??0ioGuildMarkMgr@@QAE@XZ
  00007	e8 00 00 00 00	 call	 __EH_prolog3
  0000c	8b f1		 mov	 esi, ecx
  0000e	89 75 ec	 mov	 DWORD PTR _this$[ebp], esi
  00011	8d 4e 04	 lea	 ecx, DWORD PTR [esi+4]
  00014	8d 41 fc	 lea	 eax, DWORD PTR [ecx-4]
  00017	a3 00 00 00 00	 mov	 DWORD PTR ?ms_Singleton@?$Singleton@VioGuildMarkMgr@@@@1PAVioGuildMarkMgr@@A, eax ; Singleton<ioGuildMarkMgr>::ms_Singleton
  0001c	51		 push	 ecx
  0001d	89 65 e8	 mov	 DWORD PTR $T519274[ebp], esp
  00020	8d 45 f3	 lea	 eax, DWORD PTR $T519270[ebp]
  00023	89 65 e8	 mov	 DWORD PTR $T519262[ebp], esp
  00026	33 ff		 xor	 edi, edi
  00028	50		 push	 eax
  00029	89 7d fc	 mov	 DWORD PTR __$EHRec$[ebp+8], edi
  0002c	c7 06 00 00 00
	00		 mov	 DWORD PTR [esi], OFFSET ??_7ioGuildMarkMgr@@6B@
  00032	e8 00 00 00 00	 call	 ??0?$_Tree_val@V?$_Tmap_traits@KPAVioUIRenderImage@@U?$less@K@std@@V?$allocator@U?$pair@$$CBKPAVioUIRenderImage@@@std@@@3@$0A@@std@@@std@@QAE@ABU?$less@K@1@V?$allocator@U?$pair@$$CBKPAVioUIRenderImage@@@std@@@1@@Z ; std::_Tree_val<std::_Tmap_traits<unsigned long,ioUIRenderImage *,std::less<unsigned long>,std::allocator<std::pair<unsigned long const ,ioUIRenderImage *> >,0> >::_Tree_val<std::_Tmap_traits<unsigned long,ioUIRenderImage *,std::less<unsigned long>,std::allocator<std::pair<unsigned long const ,ioUIRenderImage *> >,0> >
  00037	8d 4e 14	 lea	 ecx, DWORD PTR [esi+20]
  0003a	51		 push	 ecx
  0003b	89 65 e8	 mov	 DWORD PTR $T519305[ebp], esp
  0003e	8d 45 f3	 lea	 eax, DWORD PTR $T519301[ebp]
  00041	89 65 e8	 mov	 DWORD PTR $T519293[ebp], esp
  00044	50		 push	 eax
  00045	c6 45 fc 01	 mov	 BYTE PTR __$EHRec$[ebp+8], 1
  00049	e8 00 00 00 00	 call	 ??0?$_Tree_val@V?$_Tmap_traits@KPAVioUIRenderImage@@U?$less@K@std@@V?$allocator@U?$pair@$$CBKPAVioUIRenderImage@@@std@@@3@$0A@@std@@@std@@QAE@ABU?$less@K@1@V?$allocator@U?$pair@$$CBKPAVioUIRenderImage@@@std@@@1@@Z ; std::_Tree_val<std::_Tmap_traits<unsigned long,ioUIRenderImage *,std::less<unsigned long>,std::allocator<std::pair<unsigned long const ,ioUIRenderImage *> >,0> >::_Tree_val<std::_Tmap_traits<unsigned long,ioUIRenderImage *,std::less<unsigned long>,std::allocator<std::pair<unsigned long const ,ioUIRenderImage *> >,0> >
  0004e	89 7e 28	 mov	 DWORD PTR [esi+40], edi
  00051	89 7e 2c	 mov	 DWORD PTR [esi+44], edi
  00054	89 7e 30	 mov	 DWORD PTR [esi+48], edi
  00057	89 7e 38	 mov	 DWORD PTR [esi+56], edi
  0005a	89 7e 3c	 mov	 DWORD PTR [esi+60], edi
  0005d	89 7e 40	 mov	 DWORD PTR [esi+64], edi
  00060	89 7e 48	 mov	 DWORD PTR [esi+72], edi
  00063	89 7e 4c	 mov	 DWORD PTR [esi+76], edi
  00066	89 7e 50	 mov	 DWORD PTR [esi+80], edi
  00069	89 7e 58	 mov	 DWORD PTR [esi+88], edi
  0006c	89 7e 5c	 mov	 DWORD PTR [esi+92], edi
  0006f	89 7e 60	 mov	 DWORD PTR [esi+96], edi
  00072	8d 4e 74	 lea	 ecx, DWORD PTR [esi+116]
  00075	51		 push	 ecx
  00076	89 65 e8	 mov	 DWORD PTR $T519437[ebp], esp
  00079	8d 45 f3	 lea	 eax, DWORD PTR $T519433[ebp]
  0007c	89 65 e8	 mov	 DWORD PTR $T519424[ebp], esp
  0007f	50		 push	 eax
  00080	c6 45 fc 06	 mov	 BYTE PTR __$EHRec$[ebp+8], 6
  00084	e8 00 00 00 00	 call	 ??0?$_Tree_val@V?$_Tmap_traits@KPAVioUIRenderImage@@U?$less@K@std@@V?$allocator@U?$pair@$$CBKPAVioUIRenderImage@@@std@@@3@$0A@@std@@@std@@QAE@ABU?$less@K@1@V?$allocator@U?$pair@$$CBKPAVioUIRenderImage@@@std@@@1@@Z ; std::_Tree_val<std::_Tmap_traits<unsigned long,ioUIRenderImage *,std::less<unsigned long>,std::allocator<std::pair<unsigned long const ,ioUIRenderImage *> >,0> >::_Tree_val<std::_Tmap_traits<unsigned long,ioUIRenderImage *,std::less<unsigned long>,std::allocator<std::pair<unsigned long const ,ioUIRenderImage *> >,0> >
  00089	8d 8e 84 00 00
	00		 lea	 ecx, DWORD PTR [esi+132]
  0008f	51		 push	 ecx
  00090	89 65 e8	 mov	 DWORD PTR $T519468[ebp], esp
  00093	8d 45 f3	 lea	 eax, DWORD PTR $T519464[ebp]
  00096	89 65 e8	 mov	 DWORD PTR $T519455[ebp], esp
  00099	50		 push	 eax
  0009a	c6 45 fc 07	 mov	 BYTE PTR __$EHRec$[ebp+8], 7
  0009e	e8 00 00 00 00	 call	 ??0?$_Tree_val@V?$_Tmap_traits@KPAVioUIRenderImage@@U?$less@K@std@@V?$allocator@U?$pair@$$CBKPAVioUIRenderImage@@@std@@@3@$0A@@std@@@std@@QAE@ABU?$less@K@1@V?$allocator@U?$pair@$$CBKPAVioUIRenderImage@@@std@@@1@@Z ; std::_Tree_val<std::_Tmap_traits<unsigned long,ioUIRenderImage *,std::less<unsigned long>,std::allocator<std::pair<unsigned long const ,ioUIRenderImage *> >,0> >::_Tree_val<std::_Tmap_traits<unsigned long,ioUIRenderImage *,std::less<unsigned long>,std::allocator<std::pair<unsigned long const ,ioUIRenderImage *> >,0> >
  000a3	8b 1d 00 00 00
	00		 mov	 ebx, DWORD PTR __imp_??0ioHashString@@QAE@XZ
  000a9	8d 8e 94 00 00
	00		 lea	 ecx, DWORD PTR [esi+148]
  000af	c6 45 fc 08	 mov	 BYTE PTR __$EHRec$[ebp+8], 8
  000b3	ff d3		 call	 ebx
  000b5	8d 8e a4 00 00
	00		 lea	 ecx, DWORD PTR [esi+164]
  000bb	c6 45 fc 09	 mov	 BYTE PTR __$EHRec$[ebp+8], 9
  000bf	ff d3		 call	 ebx
  000c1	8d 8e b4 00 00
	00		 lea	 ecx, DWORD PTR [esi+180]
  000c7	51		 push	 ecx
  000c8	89 65 e8	 mov	 DWORD PTR $T519482[ebp], esp
  000cb	c6 45 fc 0a	 mov	 BYTE PTR __$EHRec$[ebp+8], 10 ; 0000000aH
  000cf	89 65 e8	 mov	 DWORD PTR $T519479[ebp], esp
  000d2	e8 00 00 00 00	 call	 ??0?$_List_val@KV?$allocator@K@std@@@std@@QAE@V?$allocator@K@1@@Z ; std::_List_val<unsigned long,std::allocator<unsigned long> >::_List_val<unsigned long,std::allocator<unsigned long> >

; 69   : 	m_pBigMarkNone		 = NULL;

  000d7	89 7e 24	 mov	 DWORD PTR [esi+36], edi

; 70   : 
; 71   : 	m_iMaxReserveMarkIndex = FLOAT100;

  000da	b8 64 00 00 00	 mov	 eax, 100		; 00000064H
  000df	89 45 e8	 mov	 DWORD PTR tv563[ebp], eax
  000e2	db 45 e8	 fild	 DWORD PTR tv563[ebp]
  000e5	85 c0		 test	 eax, eax
  000e7	79 06		 jns	 SHORT $LN99@ioGuildMar@2
  000e9	d8 05 00 00 00
	00		 fadd	 DWORD PTR __real@4f800000
$LN99@ioGuildMar@2:
  000ef	e8 00 00 00 00	 call	 __ftol2_sse
  000f4	89 46 6c	 mov	 DWORD PTR [esi+108], eax

; 72   : 	m_iMaxDefaultMarkSize  = 0;

  000f7	89 7e 68	 mov	 DWORD PTR [esi+104], edi

; 73   : 
; 74   : #if defined( SRC_OVERSEAS )
; 75   : 	m_dwRequestTick = 0;

  000fa	89 7e 70	 mov	 DWORD PTR [esi+112], edi

; 76   : #endif
; 77   : }

  000fd	8b c6		 mov	 eax, esi
  000ff	e8 00 00 00 00	 call	 __EH_epilog3
  00104	c3		 ret	 0
_TEXT	ENDS
;	COMDAT text$x
text$x	SEGMENT
__unwindfunclet$??0ioGuildMarkMgr@@QAE@XZ$0:
  00000	8b 4d ec	 mov	 ecx, DWORD PTR _this$[ebp]
  00003	83 c1 04	 add	 ecx, 4
  00006	e9 00 00 00 00	 jmp	 ??1?$Singleton@VioGuildMarkMgr@@@@QAE@XZ ; Singleton<ioGuildMarkMgr>::~Singleton<ioGuildMarkMgr>
__unwindfunclet$??0ioGuildMarkMgr@@QAE@XZ$1:
  0000b	8b 4d ec	 mov	 ecx, DWORD PTR _this$[ebp]
  0000e	83 c1 04	 add	 ecx, 4
  00011	e9 00 00 00 00	 jmp	 ??1?$map@KPAVioUIRenderImage@@U?$less@K@std@@V?$allocator@U?$pair@$$CBKPAVioUIRenderImage@@@std@@@3@@std@@QAE@XZ
__unwindfunclet$??0ioGuildMarkMgr@@QAE@XZ$2:
  00016	8b 4d ec	 mov	 ecx, DWORD PTR _this$[ebp]
  00019	83 c1 14	 add	 ecx, 20			; 00000014H
  0001c	e9 00 00 00 00	 jmp	 ??1?$map@KPAVioUIRenderImage@@U?$less@K@std@@V?$allocator@U?$pair@$$CBKPAVioUIRenderImage@@@std@@@3@@std@@QAE@XZ
__unwindfunclet$??0ioGuildMarkMgr@@QAE@XZ$3:
  00021	8b 4d ec	 mov	 ecx, DWORD PTR _this$[ebp]
  00024	83 c1 28	 add	 ecx, 40			; 00000028H
  00027	e9 00 00 00 00	 jmp	 ??1?$vector@PAUCustomMarkData@ioGuildMarkMgr@@V?$allocator@PAUCustomMarkData@ioGuildMarkMgr@@@std@@@std@@QAE@XZ ; std::vector<ioGuildMarkMgr::CustomMarkData *,std::allocator<ioGuildMarkMgr::CustomMarkData *> >::~vector<ioGuildMarkMgr::CustomMarkData *,std::allocator<ioGuildMarkMgr::CustomMarkData *> >
__unwindfunclet$??0ioGuildMarkMgr@@QAE@XZ$4:
  0002c	8b 4d ec	 mov	 ecx, DWORD PTR _this$[ebp]
  0002f	83 c1 38	 add	 ecx, 56			; 00000038H
  00032	e9 00 00 00 00	 jmp	 ??1?$vector@PAUCustomMarkData@ioGuildMarkMgr@@V?$allocator@PAUCustomMarkData@ioGuildMarkMgr@@@std@@@std@@QAE@XZ ; std::vector<ioGuildMarkMgr::CustomMarkData *,std::allocator<ioGuildMarkMgr::CustomMarkData *> >::~vector<ioGuildMarkMgr::CustomMarkData *,std::allocator<ioGuildMarkMgr::CustomMarkData *> >
__unwindfunclet$??0ioGuildMarkMgr@@QAE@XZ$5:
  00037	8b 4d ec	 mov	 ecx, DWORD PTR _this$[ebp]
  0003a	83 c1 48	 add	 ecx, 72			; 00000048H
  0003d	e9 00 00 00 00	 jmp	 ??1?$vector@PAUCustomMarkData@ioGuildMarkMgr@@V?$allocator@PAUCustomMarkData@ioGuildMarkMgr@@@std@@@std@@QAE@XZ ; std::vector<ioGuildMarkMgr::CustomMarkData *,std::allocator<ioGuildMarkMgr::CustomMarkData *> >::~vector<ioGuildMarkMgr::CustomMarkData *,std::allocator<ioGuildMarkMgr::CustomMarkData *> >
__unwindfunclet$??0ioGuildMarkMgr@@QAE@XZ$6:
  00042	8b 4d ec	 mov	 ecx, DWORD PTR _this$[ebp]
  00045	83 c1 58	 add	 ecx, 88			; 00000058H
  00048	e9 00 00 00 00	 jmp	 ??1?$vector@PAUCustomMarkData@ioGuildMarkMgr@@V?$allocator@PAUCustomMarkData@ioGuildMarkMgr@@@std@@@std@@QAE@XZ ; std::vector<ioGuildMarkMgr::CustomMarkData *,std::allocator<ioGuildMarkMgr::CustomMarkData *> >::~vector<ioGuildMarkMgr::CustomMarkData *,std::allocator<ioGuildMarkMgr::CustomMarkData *> >
__unwindfunclet$??0ioGuildMarkMgr@@QAE@XZ$7:
  0004d	8b 4d ec	 mov	 ecx, DWORD PTR _this$[ebp]
  00050	83 c1 74	 add	 ecx, 116		; 00000074H
  00053	e9 00 00 00 00	 jmp	 ??1?$map@KPAVioUIRenderImage@@U?$less@K@std@@V?$allocator@U?$pair@$$CBKPAVioUIRenderImage@@@std@@@3@@std@@QAE@XZ
__unwindfunclet$??0ioGuildMarkMgr@@QAE@XZ$8:
  00058	8b 4d ec	 mov	 ecx, DWORD PTR _this$[ebp]
  0005b	81 c1 84 00 00
	00		 add	 ecx, 132		; 00000084H
  00061	e9 00 00 00 00	 jmp	 ??1?$map@KPAVioUIRenderImage@@U?$less@K@std@@V?$allocator@U?$pair@$$CBKPAVioUIRenderImage@@@std@@@3@@std@@QAE@XZ
__unwindfunclet$??0ioGuildMarkMgr@@QAE@XZ$9:
  00066	8b 4d ec	 mov	 ecx, DWORD PTR _this$[ebp]
  00069	81 c1 94 00 00
	00		 add	 ecx, 148		; 00000094H
  0006f	ff 25 00 00 00
	00		 jmp	 DWORD PTR __imp_??1ioHashString@@QAE@XZ
__unwindfunclet$??0ioGuildMarkMgr@@QAE@XZ$10:
  00075	8b 4d ec	 mov	 ecx, DWORD PTR _this$[ebp]
  00078	81 c1 a4 00 00
	00		 add	 ecx, 164		; 000000a4H
  0007e	ff 25 00 00 00
	00		 jmp	 DWORD PTR __imp_??1ioHashString@@QAE@XZ
__ehhandler$??0ioGuildMarkMgr@@QAE@XZ:
  00084	8b 54 24 08	 mov	 edx, DWORD PTR [esp+8]
  00088	8d 42 0c	 lea	 eax, DWORD PTR [edx+12]
  0008b	8b 4a e4	 mov	 ecx, DWORD PTR [edx-28]
  0008e	33 c8		 xor	 ecx, eax
  00090	e8 00 00 00 00	 call	 @__security_check_cookie@4
  00095	b8 00 00 00 00	 mov	 eax, OFFSET __ehfuncinfo$??0ioGuildMarkMgr@@QAE@XZ
  0009a	e9 00 00 00 00	 jmp	 ___CxxFrameHandler3
text$x	ENDS
??0ioGuildMarkMgr@@QAE@XZ ENDP				; ioGuildMarkMgr::ioGuildMarkMgr
; Function compile flags: /Ogsp
;	COMDAT ??_GioGuildMarkMgr@@UAEPAXI@Z
_TEXT	SEGMENT
___flags$ = 8						; size = 4
??_GioGuildMarkMgr@@UAEPAXI@Z PROC			; ioGuildMarkMgr::`scalar deleting destructor', COMDAT
; _this$ = ecx
  00000	55		 push	 ebp
  00001	8b ec		 mov	 ebp, esp
  00003	56		 push	 esi
  00004	8b f1		 mov	 esi, ecx
  00006	e8 00 00 00 00	 call	 ??1ioGuildMarkMgr@@UAE@XZ ; ioGuildMarkMgr::~ioGuildMarkMgr
  0000b	f6 45 08 01	 test	 BYTE PTR ___flags$[ebp], 1
  0000f	74 07		 je	 SHORT $LN1@scalar@3
  00011	56		 push	 esi
  00012	e8 00 00 00 00	 call	 ??3@YAXPAX@Z		; operator delete
  00017	59		 pop	 ecx
$LN1@scalar@3:
  00018	8b c6		 mov	 eax, esi
  0001a	5e		 pop	 esi
  0001b	5d		 pop	 ebp
  0001c	c2 04 00	 ret	 4
??_GioGuildMarkMgr@@UAEPAXI@Z ENDP			; ioGuildMarkMgr::`scalar deleting destructor'
_TEXT	ENDS
PUBLIC	??_C@_0BH@KIPPGLEH@Guildmark_Small?$CDCS?$CF?43d?$AA@ ; `string'
PUBLIC	??_C@_0BH@KPFFAKAB@Guildmark_Large?$CDCL?$CF?43d?$AA@ ; `string'
PUBLIC	??_C@_00CNPNBAHC@?$AA@				; `string'
PUBLIC	_this$GSCopy$
PUBLIC	?Initialize@ioGuildMarkMgr@@QAEXXZ		; ioGuildMarkMgr::Initialize
EXTRN	__imp__CreateDirectoryA@8:PROC
EXTRN	__imp_??4ioHashString@@QAEAAV0@PBD@Z:PROC
EXTRN	__imp__GetCurrentDirectoryA@8:PROC
;	COMDAT ??_C@_0BH@KIPPGLEH@Guildmark_Small?$CDCS?$CF?43d?$AA@
CONST	SEGMENT
??_C@_0BH@KIPPGLEH@Guildmark_Small?$CDCS?$CF?43d?$AA@ DB 'Guildmark_Small'
	DB	'#CS%.3d', 00H				; `string'
CONST	ENDS
;	COMDAT ??_C@_0BH@KPFFAKAB@Guildmark_Large?$CDCL?$CF?43d?$AA@
CONST	SEGMENT
??_C@_0BH@KPFFAKAB@Guildmark_Large?$CDCL?$CF?43d?$AA@ DB 'Guildmark_Large'
	DB	'#CL%.3d', 00H				; `string'
CONST	ENDS
;	COMDAT ??_C@_00CNPNBAHC@?$AA@
CONST	SEGMENT
??_C@_00CNPNBAHC@?$AA@ DB 00H				; `string'
CONST	ENDS
;	COMDAT xdata$x
xdata$x	SEGMENT
__ehfuncinfo$?Initialize@ioGuildMarkMgr@@QAEXXZ DD 019930522H
	DD	08H
	DD	FLAT:__unwindtable$?Initialize@ioGuildMarkMgr@@QAEXXZ
	DD	2 DUP(00H)
	DD	2 DUP(00H)
	DD	00H
	DD	01H
__unwindtable$?Initialize@ioGuildMarkMgr@@QAEXXZ DD 0ffffffffH
	DD	FLAT:__unwindfunclet$?Initialize@ioGuildMarkMgr@@QAEXXZ$0
	DD	00H
	DD	FLAT:__unwindfunclet$?Initialize@ioGuildMarkMgr@@QAEXXZ$1
	DD	00H
	DD	FLAT:__unwindfunclet$?Initialize@ioGuildMarkMgr@@QAEXXZ$2
	DD	00H
	DD	FLAT:__unwindfunclet$?Initialize@ioGuildMarkMgr@@QAEXXZ$3
	DD	00H
	DD	FLAT:__unwindfunclet$?Initialize@ioGuildMarkMgr@@QAEXXZ$5
	DD	00H
	DD	FLAT:__unwindfunclet$?Initialize@ioGuildMarkMgr@@QAEXXZ$7
	DD	00H
	DD	FLAT:__unwindfunclet$?Initialize@ioGuildMarkMgr@@QAEXXZ$8
	DD	00H
	DD	FLAT:__unwindfunclet$?Initialize@ioGuildMarkMgr@@QAEXXZ$9
; Function compile flags: /Ogsp
xdata$x	ENDS
;	COMDAT ?Initialize@ioGuildMarkMgr@@QAEXXZ
_TEXT	SEGMENT
$T519526 = -1840					; size = 16
$T519505 = -1824					; size = 16
$T519527 = -1816					; size = 8
tv12324 = -1808						; size = 4
_this$GSCopy$ = -1808					; size = 4
_iMaxEntry$ = -1804					; size = 4
_iMaxMark$ = -1804					; size = 4
$T519506 = -1800					; size = 16
$T519524 = -1792					; size = 8
_i$520016 = -1788					; size = 4
$T519518 = -1788					; size = 4
$T519512 = -1788					; size = 4
tv14267 = -1784						; size = 4
tv12349 = -1784						; size = 4
_pCustomData$507288 = -1784				; size = 4
_pCustomData$507273 = -1784				; size = 4
$T519528 = -1780					; size = 8
tv11887 = -1776						; size = 4
_i$ = -1776						; size = 4
_kLoader$ = -1772					; size = 912
_szAppDir$ = -860					; size = 260
_szKey$ = -600						; size = 260
_szBuf$ = -340						; size = 260
$T519530 = -80						; size = 16
___encStr$506783 = -80					; size = 13
__k$520027 = -60					; size = 23
__k$520729 = -56					; size = 19
__k$520596 = -56					; size = 19
___encStr$507602 = -56					; size = 17
___encStr$507316 = -56					; size = 18
__k$520995 = -32					; size = 12
__t$520862 = -32					; size = 12
__k$520471 = -32					; size = 9
__k$520199 = -32					; size = 9
__k$520047 = -32					; size = 9
__t$519806 = -32					; size = 9
$T519522 = -32						; size = 16
$T519516 = -32						; size = 16
___encStr$507110 = -32					; size = 9
$T519511 = -32						; size = 16
___encStr$506937 = -32					; size = 11
__t$520346 = -28					; size = 7
$T519531 = -24						; size = 8
__$EHRec$ = -12						; size = 12
?Initialize@ioGuildMarkMgr@@QAEXXZ PROC			; ioGuildMarkMgr::Initialize, COMDAT
; _this$ = ecx

; 224  : {

  00000	68 24 07 00 00	 push	 1828			; 00000724H
  00005	b8 00 00 00 00	 mov	 eax, __ehhandler$?Initialize@ioGuildMarkMgr@@QAEXXZ
  0000a	e8 00 00 00 00	 call	 __EH_prolog3_GS
  0000f	8b f9		 mov	 edi, ecx

; 308  : 
; 309  : 		sprintf_e( szKey, "entry_res_red_%d", i );

  00011	89 bd f0 f8 ff
	ff		 mov	 DWORD PTR _this$GSCopy$[ebp], edi
  00017	e8 00 00 00 00	 call	 ?ClearGuildMarkList@ioGuildMarkMgr@@IAEXXZ ; ioGuildMarkMgr::ClearGuildMarkList
  0001c	8b cf		 mov	 ecx, edi
  0001e	e8 00 00 00 00	 call	 ?ClearGuildLevelRes@ioGuildMarkMgr@@IAEXXZ ; ioGuildMarkMgr::ClearGuildLevelRes
  00023	33 db		 xor	 ebx, ebx
  00025	6a 05		 push	 5
  00027	c7 85 64 fc ff
	ff 8e 83 85 8c	 mov	 DWORD PTR _kLoader$[ebp+848], -1937407090 ; 8c85838eH
  00031	c7 85 68 fc ff
	ff 84 8b c4 99	 mov	 DWORD PTR _kLoader$[ebp+852], -1715172476 ; 99c48b84H
  0003b	c7 85 6c fc ff
	ff 9d de b4 8d	 mov	 DWORD PTR _kLoader$[ebp+856], -1917526371 ; 8db4de9dH
  00045	c7 85 70 fc ff
	ff 98 85 87 8e	 mov	 DWORD PTR _kLoader$[ebp+860], -1903721064 ; 8e878598H
  0004f	c7 85 74 fc ff
	ff c3 85 85 83	 mov	 DWORD PTR _kLoader$[ebp+864], -2088401469 ; 838585c3H
  00059	8d 85 64 fc ff
	ff		 lea	 eax, DWORD PTR _kLoader$[ebp+848]
  0005f	88 9d 78 fc ff
	ff		 mov	 BYTE PTR _kLoader$[ebp+868], bl
  00065	59		 pop	 ecx
  00066	be ed ec eb ea	 mov	 esi, -353637139		; eaebecedH
$LL640@Initialize:

; 225  : 	ClearGuildMarkList();
; 226  : 	ClearGuildLevelRes();
; 227  : 
; 228  : 	ioINILoader_e kLoader( "config/sp2_guild.ini" );

  0006b	31 30		 xor	 DWORD PTR [eax], esi
  0006d	83 c0 04	 add	 eax, 4
  00070	49		 dec	 ecx
  00071	75 f8		 jne	 SHORT $LL640@Initialize
  00073	6a 01		 push	 1
  00075	8d 85 64 fc ff
	ff		 lea	 eax, DWORD PTR _kLoader$[ebp+848]
  0007b	50		 push	 eax
  0007c	8d 8d 14 f9 ff
	ff		 lea	 ecx, DWORD PTR _kLoader$[ebp]
  00082	ff 15 00 00 00
	00		 call	 DWORD PTR __imp_??0ioINILoader@@QAE@PBD_N@Z
  00088	6a 02		 push	 2
  0008a	89 5d fc	 mov	 DWORD PTR __$EHRec$[ebp+8], ebx

; 229  : 	kLoader.SetTitle_e( "resource" );

  0008d	c7 45 e0 9f 89
	98 85		 mov	 DWORD PTR __t$519806[ebp], -2053600865 ; 8598899fH
  00094	c7 45 e4 98 9e
	88 8f		 mov	 DWORD PTR __t$519806[ebp+4], -1886871912 ; 8f889e98H
  0009b	8d 45 e0	 lea	 eax, DWORD PTR __t$519806[ebp]
  0009e	88 5d e8	 mov	 BYTE PTR __t$519806[ebp+8], bl
  000a1	59		 pop	 ecx
$LL746@Initialize:
  000a2	31 30		 xor	 DWORD PTR [eax], esi
  000a4	83 c0 04	 add	 eax, 4
  000a7	49		 dec	 ecx
  000a8	75 f8		 jne	 SHORT $LL746@Initialize
  000aa	8d 45 e0	 lea	 eax, DWORD PTR __t$519806[ebp]
  000ad	50		 push	 eax
  000ae	8d 8d 14 f9 ff
	ff		 lea	 ecx, DWORD PTR _kLoader$[ebp]
  000b4	ff 15 00 00 00
	00		 call	 DWORD PTR __imp_?SetTitle@ioINILoader@@QAEXPBD@Z

; 230  : 	m_iMaxReserveMarkIndex = kLoader.LoadInt_e( "max_reserve_mark_index", FLOAT100 );

  000ba	b8 64 00 00 00	 mov	 eax, 100		; 00000064H
  000bf	6a 05		 push	 5
  000c1	c7 45 c4 80 8d
	93 b5		 mov	 DWORD PTR __k$520027[ebp], -1248621184 ; b5938d80H
  000c8	c7 45 c8 9f 89
	98 8f		 mov	 DWORD PTR __k$520027[ebp+4], -1885828705 ; 8f98899fH
  000cf	c7 45 cc 9f 9a
	8e b5		 mov	 DWORD PTR __k$520027[ebp+8], -1248945505 ; b58e9a9fH
  000d6	c7 45 d0 80 8d
	99 81		 mov	 DWORD PTR __k$520027[ebp+12], -2120643200 ; 81998d80H
  000dd	c7 45 d4 b2 85
	85 8e		 mov	 DWORD PTR __k$520027[ebp+16], -1903852110 ; 8e8585b2H
  000e4	66 c7 45 d8 88
	94		 mov	 WORD PTR __k$520027[ebp+20], 38024 ; 00009488H
  000ea	8d 4d c4	 lea	 ecx, DWORD PTR __k$520027[ebp]
  000ed	88 5d da	 mov	 BYTE PTR __k$520027[ebp+22], bl
  000f0	5a		 pop	 edx
$LL854@Initialize:
  000f1	31 31		 xor	 DWORD PTR [ecx], esi
  000f3	83 c1 04	 add	 ecx, 4
  000f6	4a		 dec	 edx
  000f7	75 f8		 jne	 SHORT $LL854@Initialize
  000f9	c7 85 04 f9 ff
	ff 14 00 00 00	 mov	 DWORD PTR _i$520016[ebp], 20 ; 00000014H
$LL851@Initialize:
  00103	8b 8d 04 f9 ff
	ff		 mov	 ecx, DWORD PTR _i$520016[ebp]
  00109	81 e1 03 00 00
	80		 and	 ecx, -2147483645	; 80000003H
  0010f	79 05		 jns	 SHORT $LN1856@Initialize
  00111	49		 dec	 ecx
  00112	83 c9 fc	 or	 ecx, -4			; fffffffcH
  00115	41		 inc	 ecx
$LN1856@Initialize:
  00116	b2 ed		 mov	 dl, -19			; ffffffedH
  00118	2a d1		 sub	 dl, cl
  0011a	8b 8d 04 f9 ff
	ff		 mov	 ecx, DWORD PTR _i$520016[ebp]
  00120	30 54 0d c4	 xor	 BYTE PTR __k$520027[ebp+ecx], dl
  00124	ff 85 04 f9 ff
	ff		 inc	 DWORD PTR _i$520016[ebp]
  0012a	83 bd 04 f9 ff
	ff 16		 cmp	 DWORD PTR _i$520016[ebp], 22 ; 00000016H
  00131	7c d0		 jl	 SHORT $LL851@Initialize
  00133	89 85 08 f9 ff
	ff		 mov	 DWORD PTR tv14267[ebp], eax
  00139	db 85 08 f9 ff
	ff		 fild	 DWORD PTR tv14267[ebp]
  0013f	85 c0		 test	 eax, eax
  00141	79 06		 jns	 SHORT $LN1857@Initialize
  00143	d8 05 00 00 00
	00		 fadd	 DWORD PTR __real@4f800000
$LN1857@Initialize:
  00149	e8 00 00 00 00	 call	 __ftol2_sse
  0014e	50		 push	 eax
  0014f	8d 45 c4	 lea	 eax, DWORD PTR __k$520027[ebp]
  00152	50		 push	 eax
  00153	8d 8d 14 f9 ff
	ff		 lea	 ecx, DWORD PTR _kLoader$[ebp]
  00159	ff 15 00 00 00
	00		 call	 DWORD PTR __imp_?LoadInt@ioINILoader@@QAEHPBDH@Z
  0015f	6a 02		 push	 2
  00161	89 47 6c	 mov	 DWORD PTR [edi+108], eax

; 231  : 
; 232  : 	m_iMaxDefaultMarkSize = kLoader.LoadInt_e( "max_mark",  0 );

  00164	c7 45 e0 80 8d
	93 b5		 mov	 DWORD PTR __k$520047[ebp], -1248621184 ; b5938d80H
  0016b	c7 45 e4 80 8d
	99 81		 mov	 DWORD PTR __k$520047[ebp+4], -2120643200 ; 81998d80H
  00172	8d 45 e0	 lea	 eax, DWORD PTR __k$520047[ebp]
  00175	88 5d e8	 mov	 BYTE PTR __k$520047[ebp+8], bl
  00178	59		 pop	 ecx
$LL960@Initialize:
  00179	31 30		 xor	 DWORD PTR [eax], esi
  0017b	83 c0 04	 add	 eax, 4
  0017e	49		 dec	 ecx
  0017f	75 f8		 jne	 SHORT $LL960@Initialize
  00181	53		 push	 ebx
  00182	8d 45 e0	 lea	 eax, DWORD PTR __k$520047[ebp]
  00185	50		 push	 eax
  00186	8d 8d 14 f9 ff
	ff		 lea	 ecx, DWORD PTR _kLoader$[ebp]
  0018c	ff 15 00 00 00
	00		 call	 DWORD PTR __imp_?LoadInt@ioINILoader@@QAEHPBDH@Z
  00192	89 47 68	 mov	 DWORD PTR [edi+104], eax

; 233  : 	char szBuf[MAX_PATH];
; 234  : 	char szKey[MAX_PATH];
; 235  : 	int i;
; 236  : 	for(i = 0;i < m_iMaxDefaultMarkSize;i++)

  00195	89 9d 10 f9 ff
	ff		 mov	 DWORD PTR _i$[ebp], ebx
  0019b	be 04 01 00 00	 mov	 esi, 260		; 00000104H
  001a0	3b c3		 cmp	 eax, ebx
  001a2	0f 8e 70 01 00
	00		 jle	 $LN513@Initialize
$LL515@Initialize:

; 231  : 
; 232  : 	m_iMaxDefaultMarkSize = kLoader.LoadInt_e( "max_mark",  0 );

  001a8	6a 03		 push	 3

; 237  : 	{
; 238  : 		sprintf_e( szKey, "def_%d_small", i );

  001aa	c7 45 b0 89 89
	8d b5		 mov	 DWORD PTR ___encStr$506783[ebp], -1249015415 ; b58d8989H
  001b1	c7 45 b4 c8 88
	b4 99		 mov	 DWORD PTR ___encStr$506783[ebp+4], -1716221752 ; 99b488c8H
  001b8	c7 45 b8 80 8d
	87 86		 mov	 DWORD PTR ___encStr$506783[ebp+8], -2037936768 ; 86878d80H
  001bf	8d 45 b0	 lea	 eax, DWORD PTR ___encStr$506783[ebp]
  001c2	88 5d bc	 mov	 BYTE PTR ___encStr$506783[ebp+12], bl
  001c5	59		 pop	 ecx
$LL968@Initialize:
  001c6	81 30 ed ec eb
	ea		 xor	 DWORD PTR [eax], -353637139 ; eaebecedH
  001cc	83 c0 04	 add	 eax, 4
  001cf	49		 dec	 ecx
  001d0	75 f4		 jne	 SHORT $LL968@Initialize
  001d2	ff b5 10 f9 ff
	ff		 push	 DWORD PTR _i$[ebp]
  001d8	8d 45 b0	 lea	 eax, DWORD PTR ___encStr$506783[ebp]
  001db	50		 push	 eax
  001dc	8d 85 a8 fd ff
	ff		 lea	 eax, DWORD PTR _szKey$[ebp]
  001e2	50		 push	 eax
  001e3	ff 15 00 00 00
	00		 call	 DWORD PTR __imp__sprintf
  001e9	83 c4 0c	 add	 esp, 12			; 0000000cH

; 239  : 		kLoader.LoadString( szKey, "", szBuf, MAX_PATH );

  001ec	56		 push	 esi
  001ed	8d 85 ac fe ff
	ff		 lea	 eax, DWORD PTR _szBuf$[ebp]
  001f3	50		 push	 eax
  001f4	68 00 00 00 00	 push	 OFFSET ??_C@_00CNPNBAHC@?$AA@
  001f9	8d 85 a8 fd ff
	ff		 lea	 eax, DWORD PTR _szKey$[ebp]
  001ff	50		 push	 eax
  00200	8d 8d 14 f9 ff
	ff		 lea	 ecx, DWORD PTR _kLoader$[ebp]
  00206	ff 15 00 00 00
	00		 call	 DWORD PTR __imp_?LoadStringA@ioINILoader@@QAEXPBD0PADH@Z

; 240  : 		CreateGuildSmallMark( i, szBuf );

  0020c	8d 85 ac fe ff
	ff		 lea	 eax, DWORD PTR _szBuf$[ebp]
  00212	50		 push	 eax
  00213	8d 8d e0 f8 ff
	ff		 lea	 ecx, DWORD PTR $T519505[ebp]
  00219	ff 15 00 00 00
	00		 call	 DWORD PTR __imp_??0ioHashString@@QAE@PBD@Z
  0021f	8d 85 e0 f8 ff
	ff		 lea	 eax, DWORD PTR $T519505[ebp]
  00225	50		 push	 eax
  00226	ff b5 10 f9 ff
	ff		 push	 DWORD PTR _i$[ebp]
  0022c	8b cf		 mov	 ecx, edi
  0022e	c6 45 fc 01	 mov	 BYTE PTR __$EHRec$[ebp+8], 1
  00232	e8 00 00 00 00	 call	 ?CreateGuildSmallMark@ioGuildMarkMgr@@IAEXKABVioHashString@@@Z ; ioGuildMarkMgr::CreateGuildSmallMark
  00237	8d 8d e0 f8 ff
	ff		 lea	 ecx, DWORD PTR $T519505[ebp]
  0023d	88 5d fc	 mov	 BYTE PTR __$EHRec$[ebp+8], bl
  00240	ff 15 00 00 00
	00		 call	 DWORD PTR __imp_??1ioHashString@@QAE@XZ
  00246	6a 02		 push	 2

; 241  : 
; 242  : 		sprintf_e( szKey, "def_%d_big", i );

  00248	c7 45 e0 89 89
	8d b5		 mov	 DWORD PTR ___encStr$506937[ebp], -1249015415 ; b58d8989H
  0024f	c7 45 e4 c8 88
	b4 88		 mov	 DWORD PTR ___encStr$506937[ebp+4], -2001434424 ; 88b488c8H
  00256	66 c7 45 e8 84
	8b		 mov	 WORD PTR ___encStr$506937[ebp+8], 35716 ; 00008b84H
  0025c	8d 45 e0	 lea	 eax, DWORD PTR ___encStr$506937[ebp]
  0025f	88 5d ea	 mov	 BYTE PTR ___encStr$506937[ebp+10], bl
  00262	59		 pop	 ecx
$LL976@Initialize:
  00263	81 30 ed ec eb
	ea		 xor	 DWORD PTR [eax], -353637139 ; eaebecedH
  00269	83 c0 04	 add	 eax, 4
  0026c	49		 dec	 ecx
  0026d	75 f4		 jne	 SHORT $LL976@Initialize
  0026f	6a 08		 push	 8
  00271	58		 pop	 eax
$LL973@Initialize:
  00272	8b c8		 mov	 ecx, eax
  00274	81 e1 03 00 00
	80		 and	 ecx, -2147483645	; 80000003H
  0027a	79 05		 jns	 SHORT $LN1858@Initialize
  0027c	49		 dec	 ecx
  0027d	83 c9 fc	 or	 ecx, -4			; fffffffcH
  00280	41		 inc	 ecx
$LN1858@Initialize:
  00281	b2 ed		 mov	 dl, -19			; ffffffedH
  00283	2a d1		 sub	 dl, cl
  00285	30 54 05 e0	 xor	 BYTE PTR ___encStr$506937[ebp+eax], dl
  00289	40		 inc	 eax
  0028a	83 f8 0a	 cmp	 eax, 10			; 0000000aH
  0028d	7c e3		 jl	 SHORT $LL973@Initialize
  0028f	ff b5 10 f9 ff
	ff		 push	 DWORD PTR _i$[ebp]
  00295	8d 45 e0	 lea	 eax, DWORD PTR ___encStr$506937[ebp]
  00298	50		 push	 eax
  00299	8d 85 a8 fd ff
	ff		 lea	 eax, DWORD PTR _szKey$[ebp]
  0029f	50		 push	 eax
  002a0	ff 15 00 00 00
	00		 call	 DWORD PTR __imp__sprintf
  002a6	83 c4 0c	 add	 esp, 12			; 0000000cH

; 243  : 		kLoader.LoadString( szKey, "", szBuf, MAX_PATH );

  002a9	56		 push	 esi
  002aa	8d 85 ac fe ff
	ff		 lea	 eax, DWORD PTR _szBuf$[ebp]
  002b0	50		 push	 eax
  002b1	68 00 00 00 00	 push	 OFFSET ??_C@_00CNPNBAHC@?$AA@
  002b6	8d 85 a8 fd ff
	ff		 lea	 eax, DWORD PTR _szKey$[ebp]
  002bc	50		 push	 eax
  002bd	8d 8d 14 f9 ff
	ff		 lea	 ecx, DWORD PTR _kLoader$[ebp]
  002c3	ff 15 00 00 00
	00		 call	 DWORD PTR __imp_?LoadStringA@ioINILoader@@QAEXPBD0PADH@Z

; 244  : 		CreateGuildBigMark( i, szBuf );

  002c9	8d 85 ac fe ff
	ff		 lea	 eax, DWORD PTR _szBuf$[ebp]
  002cf	50		 push	 eax
  002d0	8d 8d f8 f8 ff
	ff		 lea	 ecx, DWORD PTR $T519506[ebp]
  002d6	ff 15 00 00 00
	00		 call	 DWORD PTR __imp_??0ioHashString@@QAE@PBD@Z
  002dc	8d 85 f8 f8 ff
	ff		 lea	 eax, DWORD PTR $T519506[ebp]
  002e2	50		 push	 eax
  002e3	ff b5 10 f9 ff
	ff		 push	 DWORD PTR _i$[ebp]
  002e9	8b cf		 mov	 ecx, edi
  002eb	c6 45 fc 02	 mov	 BYTE PTR __$EHRec$[ebp+8], 2
  002ef	e8 00 00 00 00	 call	 ?CreateGuildBigMark@ioGuildMarkMgr@@IAEXKABVioHashString@@@Z ; ioGuildMarkMgr::CreateGuildBigMark
  002f4	8d 8d f8 f8 ff
	ff		 lea	 ecx, DWORD PTR $T519506[ebp]
  002fa	88 5d fc	 mov	 BYTE PTR __$EHRec$[ebp+8], bl
  002fd	ff 15 00 00 00
	00		 call	 DWORD PTR __imp_??1ioHashString@@QAE@XZ
  00303	ff 85 10 f9 ff
	ff		 inc	 DWORD PTR _i$[ebp]
  00309	8b 85 10 f9 ff
	ff		 mov	 eax, DWORD PTR _i$[ebp]
  0030f	3b 47 68	 cmp	 eax, DWORD PTR [edi+104]
  00312	0f 8c 90 fe ff
	ff		 jl	 $LL515@Initialize
$LN513@Initialize:

; 245  : 	}	
; 246  : 
; 247  : 	SAFEDELETE( m_pBigMarkNone );

  00318	8b 4f 24	 mov	 ecx, DWORD PTR [edi+36]
  0031b	3b cb		 cmp	 ecx, ebx
  0031d	74 0a		 je	 SHORT $LN314@Initialize
  0031f	8b 01		 mov	 eax, DWORD PTR [ecx]
  00321	6a 01		 push	 1
  00323	ff 50 40	 call	 DWORD PTR [eax+64]
  00326	89 5f 24	 mov	 DWORD PTR [edi+36], ebx
$LN314@Initialize:

; 248  : 	kLoader.LoadString_e( "big_none", "", szBuf, MAX_PATH );

  00329	6a 02		 push	 2
  0032b	c7 45 e0 8f 85
	8c b5		 mov	 DWORD PTR __k$520199[ebp], -1249081969 ; b58c858fH
  00332	c7 45 e4 83 83
	85 8f		 mov	 DWORD PTR __k$520199[ebp+4], -1887075453 ; 8f858383H
  00339	8d 45 e0	 lea	 eax, DWORD PTR __k$520199[ebp]
  0033c	88 5d e8	 mov	 BYTE PTR __k$520199[ebp+8], bl
  0033f	59		 pop	 ecx
$LL1082@Initialize:
  00340	81 30 ed ec eb
	ea		 xor	 DWORD PTR [eax], -353637139 ; eaebecedH
  00346	83 c0 04	 add	 eax, 4
  00349	49		 dec	 ecx
  0034a	75 f4		 jne	 SHORT $LL1082@Initialize
  0034c	56		 push	 esi
  0034d	8d 85 ac fe ff
	ff		 lea	 eax, DWORD PTR _szBuf$[ebp]
  00353	50		 push	 eax
  00354	68 00 00 00 00	 push	 OFFSET ??_C@_00CNPNBAHC@?$AA@
  00359	8d 45 e0	 lea	 eax, DWORD PTR __k$520199[ebp]
  0035c	50		 push	 eax
  0035d	8d 8d 14 f9 ff
	ff		 lea	 ecx, DWORD PTR _kLoader$[ebp]
  00363	ff 15 00 00 00
	00		 call	 DWORD PTR __imp_?LoadStringA@ioINILoader@@QAEXPBD0PADH@Z

; 249  : 	m_pBigMarkNone		 = g_UIImageSetMgr.CreateImageByFullName( szBuf );

  00369	8d 85 ac fe ff
	ff		 lea	 eax, DWORD PTR _szBuf$[ebp]
  0036f	50		 push	 eax
  00370	8d 4d e0	 lea	 ecx, DWORD PTR $T519511[ebp]
  00373	ff 15 00 00 00
	00		 call	 DWORD PTR __imp_??0ioHashString@@QAE@PBD@Z
  00379	8d 45 e0	 lea	 eax, DWORD PTR $T519511[ebp]
  0037c	53		 push	 ebx
  0037d	50		 push	 eax
  0037e	c6 45 fc 03	 mov	 BYTE PTR __$EHRec$[ebp+8], 3
  00382	ff 15 00 00 00
	00		 call	 DWORD PTR __imp_?GetSingleton@ioUIImageSetManager@@SAAAV1@XZ
  00388	8b c8		 mov	 ecx, eax
  0038a	ff 15 00 00 00
	00		 call	 DWORD PTR __imp_?CreateImageByFullName@ioUIImageSetManager@@QAEPAVioUIRenderImage@@ABVioHashString@@_N@Z
  00390	8d 4d e0	 lea	 ecx, DWORD PTR $T519511[ebp]
  00393	89 47 24	 mov	 DWORD PTR [edi+36], eax
  00396	88 5d fc	 mov	 BYTE PTR __$EHRec$[ebp+8], bl
  00399	ff 15 00 00 00
	00		 call	 DWORD PTR __imp_??1ioHashString@@QAE@XZ

; 250  : 	if( m_pBigMarkNone )

  0039f	8b 4f 24	 mov	 ecx, DWORD PTR [edi+36]
  003a2	3b cb		 cmp	 ecx, ebx
  003a4	74 13		 je	 SHORT $LN313@Initialize

; 251  : 	{
; 252  : 		m_pBigMarkNone->SetHorzFormatting( ioUIRenderImage::HF_STRETCH );

  003a6	6a 03		 push	 3
  003a8	ff 15 00 00 00
	00		 call	 DWORD PTR __imp_?SetHorzFormatting@ioUIRenderImage@@QAEXW4HorzFormatting@1@@Z

; 253  : 		m_pBigMarkNone->SetVertFormatting( ioUIRenderImage::VF_STRETCH );

  003ae	8b 4f 24	 mov	 ecx, DWORD PTR [edi+36]
  003b1	6a 03		 push	 3
  003b3	ff 15 00 00 00
	00		 call	 DWORD PTR __imp_?SetVertFormatting@ioUIRenderImage@@QAEXW4VertFormatting@1@@Z
$LN313@Initialize:

; 254  : 	}
; 255  : 
; 256  : 	// 
; 257  : 	char szAppDir[MAX_PATH] = "";

  003b9	68 03 01 00 00	 push	 259			; 00000103H
  003be	8d 85 a5 fc ff
	ff		 lea	 eax, DWORD PTR _szAppDir$[ebp+1]
  003c4	53		 push	 ebx
  003c5	50		 push	 eax
  003c6	88 9d a4 fc ff
	ff		 mov	 BYTE PTR _szAppDir$[ebp], bl
  003cc	e8 00 00 00 00	 call	 _memset
  003d1	83 c4 0c	 add	 esp, 12			; 0000000cH

; 258  : 	::GetCurrentDirectory( MAX_PATH, szAppDir );

  003d4	8d 85 a4 fc ff
	ff		 lea	 eax, DWORD PTR _szAppDir$[ebp]
  003da	50		 push	 eax
  003db	56		 push	 esi
  003dc	ff 15 00 00 00
	00		 call	 DWORD PTR __imp__GetCurrentDirectoryA@8
  003e2	6a 02		 push	 2

; 259  : 	sprintf_e( szBuf, "%s/Guild", szAppDir );

  003e4	c7 45 e0 c8 9f
	c4 ad		 mov	 DWORD PTR ___encStr$507110[ebp], -1379622968 ; adc49fc8H
  003eb	c7 45 e4 98 85
	87 8e		 mov	 DWORD PTR ___encStr$507110[ebp+4], -1903721064 ; 8e878598H
  003f2	8d 45 e0	 lea	 eax, DWORD PTR ___encStr$507110[ebp]
  003f5	88 5d e8	 mov	 BYTE PTR ___encStr$507110[ebp+8], bl
  003f8	59		 pop	 ecx
$LL1090@Initialize:
  003f9	81 30 ed ec eb
	ea		 xor	 DWORD PTR [eax], -353637139 ; eaebecedH
  003ff	83 c0 04	 add	 eax, 4
  00402	49		 dec	 ecx
  00403	75 f4		 jne	 SHORT $LL1090@Initialize
  00405	8d 85 a4 fc ff
	ff		 lea	 eax, DWORD PTR _szAppDir$[ebp]
  0040b	50		 push	 eax
  0040c	8d 45 e0	 lea	 eax, DWORD PTR ___encStr$507110[ebp]
  0040f	50		 push	 eax
  00410	8d 85 ac fe ff
	ff		 lea	 eax, DWORD PTR _szBuf$[ebp]
  00416	50		 push	 eax
  00417	ff 15 00 00 00
	00		 call	 DWORD PTR __imp__sprintf
  0041d	83 c4 0c	 add	 esp, 12			; 0000000cH

; 260  : 	m_szAppDirectory = szBuf;

  00420	8d 85 ac fe ff
	ff		 lea	 eax, DWORD PTR _szBuf$[ebp]
  00426	8d 8f a4 00 00
	00		 lea	 ecx, DWORD PTR [edi+164]
  0042c	50		 push	 eax
  0042d	ff 15 00 00 00
	00		 call	 DWORD PTR __imp_??4ioHashString@@QAEAAV0@PBD@Z

; 261  : 	::CreateDirectory( m_szAppDirectory.c_str(), NULL );

  00433	53		 push	 ebx
  00434	8d 8f a4 00 00
	00		 lea	 ecx, DWORD PTR [edi+164]
  0043a	ff 15 00 00 00
	00		 call	 DWORD PTR __imp_?c_str@ioHashString@@QBEPBDXZ
  00440	50		 push	 eax
  00441	ff 15 00 00 00
	00		 call	 DWORD PTR __imp__CreateDirectoryA@8

; 262  : 
; 263  : 	// Guild Mark Loading
; 264  : 	kLoader.SetTitle_e( "custom" );

  00447	6a 04		 push	 4
  00449	c7 45 e4 8e 99
	98 9e		 mov	 DWORD PTR __t$520346[ebp], -1634166386 ; 9e98998eH
  00450	81 75 e4 ed ec
	eb ea		 xor	 DWORD PTR __t$520346[ebp], -353637139 ; eaebecedH
  00457	66 c7 45 e8 82
	81		 mov	 WORD PTR __t$520346[ebp+4], 33154 ; 00008182H
  0045d	88 5d ea	 mov	 BYTE PTR __t$520346[ebp+6], bl
  00460	58		 pop	 eax
$LL1193@Initialize:
  00461	8b c8		 mov	 ecx, eax
  00463	81 e1 03 00 00
	80		 and	 ecx, -2147483645	; 80000003H
  00469	79 05		 jns	 SHORT $LN1859@Initialize
  0046b	49		 dec	 ecx
  0046c	83 c9 fc	 or	 ecx, -4			; fffffffcH
  0046f	41		 inc	 ecx
$LN1859@Initialize:
  00470	b2 ed		 mov	 dl, -19			; ffffffedH
  00472	2a d1		 sub	 dl, cl
  00474	30 54 05 e4	 xor	 BYTE PTR __t$520346[ebp+eax], dl
  00478	40		 inc	 eax
  00479	83 f8 06	 cmp	 eax, 6
  0047c	7c e3		 jl	 SHORT $LL1193@Initialize
  0047e	8d 45 e4	 lea	 eax, DWORD PTR __t$520346[ebp]
  00481	50		 push	 eax
  00482	8d 8d 14 f9 ff
	ff		 lea	 ecx, DWORD PTR _kLoader$[ebp]
  00488	ff 15 00 00 00
	00		 call	 DWORD PTR __imp_?SetTitle@ioINILoader@@QAEXPBD@Z
  0048e	6a 02		 push	 2

; 265  : 	kLoader.LoadString_e( "load_url", "", szBuf, MAX_PATH );

  00490	c7 45 e0 81 83
	8a 8e		 mov	 DWORD PTR __k$520471[ebp], -1903524991 ; 8e8a8381H
  00497	c7 45 e4 b2 99
	99 86		 mov	 DWORD PTR __k$520471[ebp+4], -2036753998 ; 869999b2H
  0049e	8d 45 e0	 lea	 eax, DWORD PTR __k$520471[ebp]
  004a1	88 5d e8	 mov	 BYTE PTR __k$520471[ebp+8], bl
  004a4	59		 pop	 ecx
$LL1302@Initialize:
  004a5	81 30 ed ec eb
	ea		 xor	 DWORD PTR [eax], -353637139 ; eaebecedH
  004ab	83 c0 04	 add	 eax, 4
  004ae	49		 dec	 ecx
  004af	75 f4		 jne	 SHORT $LL1302@Initialize
  004b1	56		 push	 esi
  004b2	8d 85 ac fe ff
	ff		 lea	 eax, DWORD PTR _szBuf$[ebp]
  004b8	50		 push	 eax
  004b9	68 00 00 00 00	 push	 OFFSET ??_C@_00CNPNBAHC@?$AA@
  004be	8d 45 e0	 lea	 eax, DWORD PTR __k$520471[ebp]
  004c1	50		 push	 eax
  004c2	8d 8d 14 f9 ff
	ff		 lea	 ecx, DWORD PTR _kLoader$[ebp]
  004c8	ff 15 00 00 00
	00		 call	 DWORD PTR __imp_?LoadStringA@ioINILoader@@QAEXPBD0PADH@Z

; 266  : 	m_szLoadingMarkURL = szBuf;

  004ce	8d 85 ac fe ff
	ff		 lea	 eax, DWORD PTR _szBuf$[ebp]
  004d4	50		 push	 eax
  004d5	8d 8f 94 00 00
	00		 lea	 ecx, DWORD PTR [edi+148]
  004db	ff 15 00 00 00
	00		 call	 DWORD PTR __imp_??4ioHashString@@QAEAAV0@PBD@Z
  004e1	6a 04		 push	 4

; 267  : 
; 268  : 	//  
; 269  : 	int iMaxMark = kLoader.LoadInt_e( "large_custom_count", 0 );

  004e3	c7 45 c8 81 8d
	99 8d		 mov	 DWORD PTR __k$520596[ebp], -1919316607 ; 8d998d81H
  004ea	c7 45 cc 88 b3
	88 9f		 mov	 DWORD PTR __k$520596[ebp+4], -1618431096 ; 9f88b388H
  004f1	c7 45 d0 9e 98
	84 87		 mov	 DWORD PTR __k$520596[ebp+8], -2021353314 ; 8784989eH
  004f8	c7 45 d4 b2 8f
	84 9f		 mov	 DWORD PTR __k$520596[ebp+12], -1618702414 ; 9f848fb2H
  004ff	66 c7 45 d8 83
	98		 mov	 WORD PTR __k$520596[ebp+16], 39043 ; 00009883H
  00505	8d 45 c8	 lea	 eax, DWORD PTR __k$520596[ebp]
  00508	88 5d da	 mov	 BYTE PTR __k$520596[ebp+18], bl
  0050b	59		 pop	 ecx
$LL1408@Initialize:
  0050c	81 30 ed ec eb
	ea		 xor	 DWORD PTR [eax], -353637139 ; eaebecedH
  00512	83 c0 04	 add	 eax, 4
  00515	49		 dec	 ecx
  00516	75 f4		 jne	 SHORT $LL1408@Initialize
  00518	6a 10		 push	 16			; 00000010H
  0051a	58		 pop	 eax
$LL1405@Initialize:
  0051b	8b c8		 mov	 ecx, eax
  0051d	81 e1 03 00 00
	80		 and	 ecx, -2147483645	; 80000003H
  00523	79 05		 jns	 SHORT $LN1860@Initialize
  00525	49		 dec	 ecx
  00526	83 c9 fc	 or	 ecx, -4			; fffffffcH
  00529	41		 inc	 ecx
$LN1860@Initialize:
  0052a	b2 ed		 mov	 dl, -19			; ffffffedH
  0052c	2a d1		 sub	 dl, cl
  0052e	30 54 05 c8	 xor	 BYTE PTR __k$520596[ebp+eax], dl
  00532	40		 inc	 eax
  00533	83 f8 12	 cmp	 eax, 18			; 00000012H
  00536	7c e3		 jl	 SHORT $LL1405@Initialize
  00538	53		 push	 ebx
  00539	8d 45 c8	 lea	 eax, DWORD PTR __k$520596[ebp]
  0053c	50		 push	 eax
  0053d	8d 8d 14 f9 ff
	ff		 lea	 ecx, DWORD PTR _kLoader$[ebp]
  00543	ff 15 00 00 00
	00		 call	 DWORD PTR __imp_?LoadInt@ioINILoader@@QAEHPBDH@Z
  00549	89 85 f4 f8 ff
	ff		 mov	 DWORD PTR _iMaxMark$[ebp], eax

; 270  : 	for(i = 0;i < iMaxMark;i++)

  0054f	89 9d 10 f9 ff
	ff		 mov	 DWORD PTR _i$[ebp], ebx
  00555	3b c3		 cmp	 eax, ebx
  00557	0f 8e e9 00 00
	00		 jle	 $LN211@Initialize
$LL213@Initialize:

; 271  : 	{
; 272  : 		CustomMarkData *pCustomData = new CustomMarkData;

  0055d	6a 0c		 push	 12			; 0000000cH
  0055f	e8 00 00 00 00	 call	 ??2@YAPAXI@Z		; operator new
  00564	59		 pop	 ecx
  00565	3b c3		 cmp	 eax, ebx
  00567	74 10		 je	 SHORT $LN520@Initialize
  00569	89 58 04	 mov	 DWORD PTR [eax+4], ebx
  0056c	89 18		 mov	 DWORD PTR [eax], ebx
  0056e	89 58 08	 mov	 DWORD PTR [eax+8], ebx
  00571	89 85 04 f9 ff
	ff		 mov	 DWORD PTR $T519512[ebp], eax
  00577	eb 06		 jmp	 SHORT $LN521@Initialize
$LN520@Initialize:
  00579	89 9d 04 f9 ff
	ff		 mov	 DWORD PTR $T519512[ebp], ebx
$LN521@Initialize:
  0057f	8b 85 04 f9 ff
	ff		 mov	 eax, DWORD PTR $T519512[ebp]
  00585	89 85 08 f9 ff
	ff		 mov	 DWORD PTR _pCustomData$507273[ebp], eax

; 273  : 		sprintf( szBuf, "Guildmark_Large#CL%.3d", i + 1 );

  0058b	8b 85 10 f9 ff
	ff		 mov	 eax, DWORD PTR _i$[ebp]
  00591	40		 inc	 eax
  00592	50		 push	 eax
  00593	89 85 10 f9 ff
	ff		 mov	 DWORD PTR tv11887[ebp], eax
  00599	8d 85 ac fe ff
	ff		 lea	 eax, DWORD PTR _szBuf$[ebp]
  0059f	68 00 00 00 00	 push	 OFFSET ??_C@_0BH@KPFFAKAB@Guildmark_Large?$CDCL?$CF?43d?$AA@
  005a4	50		 push	 eax
  005a5	ff 15 00 00 00
	00		 call	 DWORD PTR __imp__sprintf
  005ab	83 c4 0c	 add	 esp, 12			; 0000000cH

; 274  : 		pCustomData->m_pCustomMark = g_UIImageSetMgr.CreateImageByFullName( szBuf );

  005ae	8d 85 ac fe ff
	ff		 lea	 eax, DWORD PTR _szBuf$[ebp]
  005b4	50		 push	 eax
  005b5	8d 4d e0	 lea	 ecx, DWORD PTR $T519516[ebp]
  005b8	ff 15 00 00 00
	00		 call	 DWORD PTR __imp_??0ioHashString@@QAE@PBD@Z
  005be	8d 45 e0	 lea	 eax, DWORD PTR $T519516[ebp]
  005c1	53		 push	 ebx
  005c2	50		 push	 eax
  005c3	c6 45 fc 04	 mov	 BYTE PTR __$EHRec$[ebp+8], 4
  005c7	ff 15 00 00 00
	00		 call	 DWORD PTR __imp_?GetSingleton@ioUIImageSetManager@@SAAAV1@XZ
  005cd	8b c8		 mov	 ecx, eax
  005cf	ff 15 00 00 00
	00		 call	 DWORD PTR __imp_?CreateImageByFullName@ioUIImageSetManager@@QAEPAVioUIRenderImage@@ABVioHashString@@_N@Z
  005d5	8b 8d 04 f9 ff
	ff		 mov	 ecx, DWORD PTR $T519512[ebp]
  005db	89 41 08	 mov	 DWORD PTR [ecx+8], eax
  005de	8d 4d e0	 lea	 ecx, DWORD PTR $T519516[ebp]
  005e1	88 5d fc	 mov	 BYTE PTR __$EHRec$[ebp+8], bl
  005e4	ff 15 00 00 00
	00		 call	 DWORD PTR __imp_??1ioHashString@@QAE@XZ

; 275  : 		if( pCustomData->m_pCustomMark )

  005ea	8b 85 04 f9 ff
	ff		 mov	 eax, DWORD PTR $T519512[ebp]
  005f0	39 58 08	 cmp	 DWORD PTR [eax+8], ebx
  005f3	74 2d		 je	 SHORT $LN210@Initialize

; 276  : 		{
; 277  : 			pCustomData->m_pCustomMark->SetHorzFormatting( ioUIRenderImage::HF_STRETCH );

  005f5	8b 48 08	 mov	 ecx, DWORD PTR [eax+8]
  005f8	6a 03		 push	 3
  005fa	ff 15 00 00 00
	00		 call	 DWORD PTR __imp_?SetHorzFormatting@ioUIRenderImage@@QAEXW4HorzFormatting@1@@Z

; 278  : 			pCustomData->m_pCustomMark->SetVertFormatting( ioUIRenderImage::VF_STRETCH );

  00600	8b 85 04 f9 ff
	ff		 mov	 eax, DWORD PTR $T519512[ebp]
  00606	8b 48 08	 mov	 ecx, DWORD PTR [eax+8]
  00609	6a 03		 push	 3
  0060b	ff 15 00 00 00
	00		 call	 DWORD PTR __imp_?SetVertFormatting@ioUIRenderImage@@QAEXW4VertFormatting@1@@Z

; 279  : 			m_CustomBigMarkPool.push_back( pCustomData );

  00611	8d 85 08 f9 ff
	ff		 lea	 eax, DWORD PTR _pCustomData$507273[ebp]
  00617	50		 push	 eax
  00618	8d 4f 28	 lea	 ecx, DWORD PTR [edi+40]
  0061b	e8 00 00 00 00	 call	 ?push_back@?$vector@PAUCustomMarkData@ioGuildMarkMgr@@V?$allocator@PAUCustomMarkData@ioGuildMarkMgr@@@std@@@std@@QAEXABQAUCustomMarkData@ioGuildMarkMgr@@@Z ; std::vector<ioGuildMarkMgr::CustomMarkData *,std::allocator<ioGuildMarkMgr::CustomMarkData *> >::push_back

; 280  : 		}
; 281  : 		else

  00620	eb 0c		 jmp	 SHORT $LN212@Initialize
$LN210@Initialize:

; 282  : 			SAFEDELETE( pCustomData );

  00622	ff b5 04 f9 ff
	ff		 push	 DWORD PTR $T519512[ebp]
  00628	e8 00 00 00 00	 call	 ??3@YAXPAX@Z		; operator delete
  0062d	59		 pop	 ecx
$LN212@Initialize:

; 270  : 	for(i = 0;i < iMaxMark;i++)

  0062e	8b 85 10 f9 ff
	ff		 mov	 eax, DWORD PTR tv11887[ebp]
  00634	89 85 10 f9 ff
	ff		 mov	 DWORD PTR _i$[ebp], eax
  0063a	3b 85 f4 f8 ff
	ff		 cmp	 eax, DWORD PTR _iMaxMark$[ebp]
  00640	0f 8c 17 ff ff
	ff		 jl	 $LL213@Initialize
$LN211@Initialize:

; 283  : 	}
; 284  : 
; 285  : 	iMaxMark = kLoader.LoadInt_e( "small_custom_count", 0 );

  00646	6a 04		 push	 4
  00648	c7 45 c8 9e 81
	8a 86		 mov	 DWORD PTR __k$520729[ebp], -2037743202 ; 868a819eH
  0064f	c7 45 cc 81 b3
	88 9f		 mov	 DWORD PTR __k$520729[ebp+4], -1618431103 ; 9f88b381H
  00656	c7 45 d0 9e 98
	84 87		 mov	 DWORD PTR __k$520729[ebp+8], -2021353314 ; 8784989eH
  0065d	c7 45 d4 b2 8f
	84 9f		 mov	 DWORD PTR __k$520729[ebp+12], -1618702414 ; 9f848fb2H
  00664	66 c7 45 d8 83
	98		 mov	 WORD PTR __k$520729[ebp+16], 39043 ; 00009883H
  0066a	8d 45 c8	 lea	 eax, DWORD PTR __k$520729[ebp]
  0066d	88 5d da	 mov	 BYTE PTR __k$520729[ebp+18], bl
  00670	59		 pop	 ecx
$LL1518@Initialize:
  00671	81 30 ed ec eb
	ea		 xor	 DWORD PTR [eax], -353637139 ; eaebecedH
  00677	83 c0 04	 add	 eax, 4
  0067a	49		 dec	 ecx
  0067b	75 f4		 jne	 SHORT $LL1518@Initialize
  0067d	6a 10		 push	 16			; 00000010H
  0067f	58		 pop	 eax
$LL1515@Initialize:
  00680	8b c8		 mov	 ecx, eax
  00682	81 e1 03 00 00
	80		 and	 ecx, -2147483645	; 80000003H
  00688	79 05		 jns	 SHORT $LN1861@Initialize
  0068a	49		 dec	 ecx
  0068b	83 c9 fc	 or	 ecx, -4			; fffffffcH
  0068e	41		 inc	 ecx
$LN1861@Initialize:
  0068f	b2 ed		 mov	 dl, -19			; ffffffedH
  00691	2a d1		 sub	 dl, cl
  00693	30 54 05 c8	 xor	 BYTE PTR __k$520729[ebp+eax], dl
  00697	40		 inc	 eax
  00698	83 f8 12	 cmp	 eax, 18			; 00000012H
  0069b	7c e3		 jl	 SHORT $LL1515@Initialize
  0069d	53		 push	 ebx
  0069e	8d 45 c8	 lea	 eax, DWORD PTR __k$520729[ebp]
  006a1	50		 push	 eax
  006a2	8d 8d 14 f9 ff
	ff		 lea	 ecx, DWORD PTR _kLoader$[ebp]
  006a8	ff 15 00 00 00
	00		 call	 DWORD PTR __imp_?LoadInt@ioINILoader@@QAEHPBDH@Z
  006ae	89 85 f4 f8 ff
	ff		 mov	 DWORD PTR _iMaxMark$[ebp], eax

; 286  : 	for(i = 0;i < iMaxMark;i++)

  006b4	89 9d 10 f9 ff
	ff		 mov	 DWORD PTR _i$[ebp], ebx
  006ba	3b c3		 cmp	 eax, ebx
  006bc	0f 8e cd 00 00
	00		 jle	 $LN205@Initialize
$LL207@Initialize:

; 287  : 	{
; 288  : 		CustomMarkData *pCustomData = new CustomMarkData;

  006c2	6a 0c		 push	 12			; 0000000cH
  006c4	e8 00 00 00 00	 call	 ??2@YAPAXI@Z		; operator new
  006c9	59		 pop	 ecx
  006ca	3b c3		 cmp	 eax, ebx
  006cc	74 10		 je	 SHORT $LN522@Initialize
  006ce	89 58 04	 mov	 DWORD PTR [eax+4], ebx
  006d1	89 18		 mov	 DWORD PTR [eax], ebx
  006d3	89 58 08	 mov	 DWORD PTR [eax+8], ebx
  006d6	89 85 04 f9 ff
	ff		 mov	 DWORD PTR $T519518[ebp], eax
  006dc	eb 06		 jmp	 SHORT $LN523@Initialize
$LN522@Initialize:
  006de	89 9d 04 f9 ff
	ff		 mov	 DWORD PTR $T519518[ebp], ebx
$LN523@Initialize:
  006e4	8b 85 04 f9 ff
	ff		 mov	 eax, DWORD PTR $T519518[ebp]
  006ea	89 85 08 f9 ff
	ff		 mov	 DWORD PTR _pCustomData$507288[ebp], eax

; 289  : 		sprintf( szBuf, "Guildmark_Small#CS%.3d", i + 1 );

  006f0	8b 85 10 f9 ff
	ff		 mov	 eax, DWORD PTR _i$[ebp]
  006f6	40		 inc	 eax
  006f7	50		 push	 eax
  006f8	89 85 10 f9 ff
	ff		 mov	 DWORD PTR tv11887[ebp], eax
  006fe	8d 85 ac fe ff
	ff		 lea	 eax, DWORD PTR _szBuf$[ebp]
  00704	68 00 00 00 00	 push	 OFFSET ??_C@_0BH@KIPPGLEH@Guildmark_Small?$CDCS?$CF?43d?$AA@
  00709	50		 push	 eax
  0070a	ff 15 00 00 00
	00		 call	 DWORD PTR __imp__sprintf
  00710	83 c4 0c	 add	 esp, 12			; 0000000cH

; 290  : 		pCustomData->m_pCustomMark = g_UIImageSetMgr.CreateImageByFullName( szBuf );

  00713	8d 85 ac fe ff
	ff		 lea	 eax, DWORD PTR _szBuf$[ebp]
  00719	50		 push	 eax
  0071a	8d 4d e0	 lea	 ecx, DWORD PTR $T519522[ebp]
  0071d	ff 15 00 00 00
	00		 call	 DWORD PTR __imp_??0ioHashString@@QAE@PBD@Z
  00723	8d 45 e0	 lea	 eax, DWORD PTR $T519522[ebp]
  00726	53		 push	 ebx
  00727	50		 push	 eax
  00728	c6 45 fc 05	 mov	 BYTE PTR __$EHRec$[ebp+8], 5
  0072c	ff 15 00 00 00
	00		 call	 DWORD PTR __imp_?GetSingleton@ioUIImageSetManager@@SAAAV1@XZ
  00732	8b c8		 mov	 ecx, eax
  00734	ff 15 00 00 00
	00		 call	 DWORD PTR __imp_?CreateImageByFullName@ioUIImageSetManager@@QAEPAVioUIRenderImage@@ABVioHashString@@_N@Z
  0073a	8b 8d 04 f9 ff
	ff		 mov	 ecx, DWORD PTR $T519518[ebp]
  00740	89 41 08	 mov	 DWORD PTR [ecx+8], eax
  00743	8d 4d e0	 lea	 ecx, DWORD PTR $T519522[ebp]
  00746	88 5d fc	 mov	 BYTE PTR __$EHRec$[ebp+8], bl
  00749	ff 15 00 00 00
	00		 call	 DWORD PTR __imp_??1ioHashString@@QAE@XZ

; 291  : 		if( pCustomData->m_pCustomMark )

  0074f	8b 85 04 f9 ff
	ff		 mov	 eax, DWORD PTR $T519518[ebp]
  00755	39 58 08	 cmp	 DWORD PTR [eax+8], ebx
  00758	74 11		 je	 SHORT $LN204@Initialize

; 292  : 		{
; 293  : 			m_CustomSmallMarkPool.push_back( pCustomData );

  0075a	8d 85 08 f9 ff
	ff		 lea	 eax, DWORD PTR _pCustomData$507288[ebp]
  00760	50		 push	 eax
  00761	8d 4f 48	 lea	 ecx, DWORD PTR [edi+72]
  00764	e8 00 00 00 00	 call	 ?push_back@?$vector@PAUCustomMarkData@ioGuildMarkMgr@@V?$allocator@PAUCustomMarkData@ioGuildMarkMgr@@@std@@@std@@QAEXABQAUCustomMarkData@ioGuildMarkMgr@@@Z ; std::vector<ioGuildMarkMgr::CustomMarkData *,std::allocator<ioGuildMarkMgr::CustomMarkData *> >::push_back

; 294  : 		}
; 295  : 		else

  00769	eb 0c		 jmp	 SHORT $LN206@Initialize
$LN204@Initialize:

; 296  : 			SAFEDELETE( pCustomData );

  0076b	ff b5 04 f9 ff
	ff		 push	 DWORD PTR $T519518[ebp]
  00771	e8 00 00 00 00	 call	 ??3@YAXPAX@Z		; operator delete
  00776	59		 pop	 ecx
$LN206@Initialize:

; 286  : 	for(i = 0;i < iMaxMark;i++)

  00777	8b 85 10 f9 ff
	ff		 mov	 eax, DWORD PTR tv11887[ebp]
  0077d	89 85 10 f9 ff
	ff		 mov	 DWORD PTR _i$[ebp], eax
  00783	3b 85 f4 f8 ff
	ff		 cmp	 eax, DWORD PTR _iMaxMark$[ebp]
  00789	0f 8c 33 ff ff
	ff		 jl	 $LL207@Initialize
$LN205@Initialize:

; 297  : 	}	
; 298  : 
; 299  : 	//  
; 300  : 	kLoader.SetTitle_e( "guild_entry" );

  0078f	6a 02		 push	 2
  00791	c7 45 e0 8a 99
	82 86		 mov	 DWORD PTR __t$520862[ebp], -2038261366 ; 8682998aH
  00798	c7 45 e4 89 b3
	8e 84		 mov	 DWORD PTR __t$520862[ebp+4], -2071022711 ; 848eb389H
  0079f	8d 45 e0	 lea	 eax, DWORD PTR __t$520862[ebp]
  007a2	c7 45 e8 99 9e
	92 00		 mov	 DWORD PTR __t$520862[ebp+8], 9608857 ; 00929e99H
  007a9	59		 pop	 ecx
$LL1628@Initialize:
  007aa	81 30 ed ec eb
	ea		 xor	 DWORD PTR [eax], -353637139 ; eaebecedH
  007b0	83 c0 04	 add	 eax, 4
  007b3	49		 dec	 ecx
  007b4	75 f4		 jne	 SHORT $LL1628@Initialize
  007b6	6a 08		 push	 8
  007b8	5f		 pop	 edi
$LL1625@Initialize:
  007b9	8b c7		 mov	 eax, edi
  007bb	25 03 00 00 80	 and	 eax, -2147483645	; 80000003H
  007c0	79 05		 jns	 SHORT $LN1862@Initialize
  007c2	48		 dec	 eax
  007c3	83 c8 fc	 or	 eax, -4			; fffffffcH
  007c6	40		 inc	 eax
$LN1862@Initialize:
  007c7	b1 ed		 mov	 cl, -19			; ffffffedH
  007c9	2a c8		 sub	 cl, al
  007cb	30 4c 3d e0	 xor	 BYTE PTR __t$520862[ebp+edi], cl
  007cf	47		 inc	 edi
  007d0	83 ff 0b	 cmp	 edi, 11			; 0000000bH
  007d3	7c e4		 jl	 SHORT $LL1625@Initialize
  007d5	8d 45 e0	 lea	 eax, DWORD PTR __t$520862[ebp]
  007d8	50		 push	 eax
  007d9	8d 8d 14 f9 ff
	ff		 lea	 ecx, DWORD PTR _kLoader$[ebp]
  007df	ff 15 00 00 00
	00		 call	 DWORD PTR __imp_?SetTitle@ioINILoader@@QAEXPBD@Z
  007e5	6a 02		 push	 2

; 301  : 	int iMaxEntry = kLoader.LoadInt_e( "entry_count", 0 );

  007e7	c7 45 e0 88 82
	9f 98		 mov	 DWORD PTR __k$520995[ebp], -1734376824 ; 989f8288H
  007ee	c7 45 e4 94 b3
	88 85		 mov	 DWORD PTR __k$520995[ebp+4], -2054638700 ; 8588b394H
  007f5	8d 45 e0	 lea	 eax, DWORD PTR __k$520995[ebp]
  007f8	c7 45 e8 98 82
	9f 00		 mov	 DWORD PTR __k$520995[ebp+8], 10453656 ; 009f8298H
  007ff	59		 pop	 ecx
$LL1734@Initialize:
  00800	81 30 ed ec eb
	ea		 xor	 DWORD PTR [eax], -353637139 ; eaebecedH
  00806	83 c0 04	 add	 eax, 4
  00809	49		 dec	 ecx
  0080a	75 f4		 jne	 SHORT $LL1734@Initialize
  0080c	6a 08		 push	 8
  0080e	5f		 pop	 edi
$LL1731@Initialize:
  0080f	8b c7		 mov	 eax, edi
  00811	25 03 00 00 80	 and	 eax, -2147483645	; 80000003H
  00816	79 05		 jns	 SHORT $LN1863@Initialize
  00818	48		 dec	 eax
  00819	83 c8 fc	 or	 eax, -4			; fffffffcH
  0081c	40		 inc	 eax
$LN1863@Initialize:
  0081d	b1 ed		 mov	 cl, -19			; ffffffedH
  0081f	2a c8		 sub	 cl, al
  00821	30 4c 3d e0	 xor	 BYTE PTR __k$520995[ebp+edi], cl
  00825	47		 inc	 edi
  00826	83 ff 0b	 cmp	 edi, 11			; 0000000bH
  00829	7c e4		 jl	 SHORT $LL1731@Initialize
  0082b	53		 push	 ebx
  0082c	8d 45 e0	 lea	 eax, DWORD PTR __k$520995[ebp]
  0082f	50		 push	 eax
  00830	8d 8d 14 f9 ff
	ff		 lea	 ecx, DWORD PTR _kLoader$[ebp]
  00836	ff 15 00 00 00
	00		 call	 DWORD PTR __imp_?LoadInt@ioINILoader@@QAEHPBDH@Z

; 302  : 	for(int i = 0;i < iMaxEntry;i++)

  0083c	33 ff		 xor	 edi, edi
  0083e	89 85 f4 f8 ff
	ff		 mov	 DWORD PTR _iMaxEntry$[ebp], eax
  00844	3b c3		 cmp	 eax, ebx
  00846	0f 8e b0 01 00
	00		 jle	 $LN199@Initialize
  0084c	8b 85 f0 f8 ff
	ff		 mov	 eax, DWORD PTR _this$GSCopy$[ebp]
  00852	8d 48 74	 lea	 ecx, DWORD PTR [eax+116]
  00855	05 84 00 00 00	 add	 eax, 132		; 00000084H
  0085a	89 8d f0 f8 ff
	ff		 mov	 DWORD PTR tv12324[ebp], ecx
  00860	89 85 08 f9 ff
	ff		 mov	 DWORD PTR tv12349[ebp], eax
$LL201@Initialize:

; 303  : 	{
; 304  : 		//  
; 305  : 		sprintf_e( szKey, "entry_res_blue_%d", i );

  00866	6a 04		 push	 4
  00868	c7 45 c8 88 82
	9f 98		 mov	 DWORD PTR ___encStr$507316[ebp], -1734376824 ; 989f8288H
  0086f	c7 45 cc 94 b3
	99 8f		 mov	 DWORD PTR ___encStr$507316[ebp+4], -1885752428 ; 8f99b394H
  00876	c7 45 d0 9e b3
	89 86		 mov	 DWORD PTR ___encStr$507316[ebp+8], -2037795938 ; 8689b39eH
  0087d	c7 45 d4 98 89
	b4 cf		 mov	 DWORD PTR ___encStr$507316[ebp+12], -810251880 ; cfb48998H
  00884	8d 45 c8	 lea	 eax, DWORD PTR ___encStr$507316[ebp]
  00887	66 c7 45 d8 89
	00		 mov	 WORD PTR ___encStr$507316[ebp+16], 137 ; 00000089H
  0088d	59		 pop	 ecx
$LL1742@Initialize:
  0088e	81 30 ed ec eb
	ea		 xor	 DWORD PTR [eax], -353637139 ; eaebecedH
  00894	83 c0 04	 add	 eax, 4
  00897	49		 dec	 ecx
  00898	75 f4		 jne	 SHORT $LL1742@Initialize
  0089a	80 75 d8 ed	 xor	 BYTE PTR ___encStr$507316[ebp+16], -19 ; ffffffedH
  0089e	57		 push	 edi
  0089f	8d 45 c8	 lea	 eax, DWORD PTR ___encStr$507316[ebp]
  008a2	50		 push	 eax
  008a3	8d 85 a8 fd ff
	ff		 lea	 eax, DWORD PTR _szKey$[ebp]
  008a9	50		 push	 eax
  008aa	ff 15 00 00 00
	00		 call	 DWORD PTR __imp__sprintf
  008b0	83 c4 0c	 add	 esp, 12			; 0000000cH

; 306  : 		kLoader.LoadString( szKey, "", szBuf, MAX_PATH );

  008b3	56		 push	 esi
  008b4	8d 85 ac fe ff
	ff		 lea	 eax, DWORD PTR _szBuf$[ebp]
  008ba	50		 push	 eax
  008bb	68 00 00 00 00	 push	 OFFSET ??_C@_00CNPNBAHC@?$AA@
  008c0	8d 85 a8 fd ff
	ff		 lea	 eax, DWORD PTR _szKey$[ebp]
  008c6	50		 push	 eax
  008c7	8d 8d 14 f9 ff
	ff		 lea	 ecx, DWORD PTR _kLoader$[ebp]
  008cd	ff 15 00 00 00
	00		 call	 DWORD PTR __imp_?LoadStringA@ioINILoader@@QAEXPBD0PADH@Z

; 307  : 		m_GuildLevelResBlueMap.insert( GuildLevelResMap::value_type( i, g_UIImageSetMgr.CreateImageByFullName( szBuf ) ) );

  008d3	8d 85 ac fe ff
	ff		 lea	 eax, DWORD PTR _szBuf$[ebp]
  008d9	50		 push	 eax
  008da	8d 8d d0 f8 ff
	ff		 lea	 ecx, DWORD PTR $T519526[ebp]
  008e0	ff 15 00 00 00
	00		 call	 DWORD PTR __imp_??0ioHashString@@QAE@PBD@Z
  008e6	8d 85 d0 f8 ff
	ff		 lea	 eax, DWORD PTR $T519526[ebp]
  008ec	53		 push	 ebx
  008ed	50		 push	 eax
  008ee	c6 45 fc 06	 mov	 BYTE PTR __$EHRec$[ebp+8], 6
  008f2	ff 15 00 00 00
	00		 call	 DWORD PTR __imp_?GetSingleton@ioUIImageSetManager@@SAAAV1@XZ
  008f8	8b c8		 mov	 ecx, eax
  008fa	ff 15 00 00 00
	00		 call	 DWORD PTR __imp_?CreateImageByFullName@ioUIImageSetManager@@QAEPAVioUIRenderImage@@ABVioHashString@@_N@Z
  00900	8b 8d f0 f8 ff
	ff		 mov	 ecx, DWORD PTR tv12324[ebp]
  00906	89 85 04 f9 ff
	ff		 mov	 DWORD PTR $T519524[ebp+4], eax
  0090c	8d 85 00 f9 ff
	ff		 lea	 eax, DWORD PTR $T519524[ebp]
  00912	50		 push	 eax
  00913	8d 85 e8 f8 ff
	ff		 lea	 eax, DWORD PTR $T519527[ebp]
  00919	50		 push	 eax
  0091a	89 bd 00 f9 ff
	ff		 mov	 DWORD PTR $T519524[ebp], edi
  00920	e8 00 00 00 00	 call	 ??$insert@U?$pair@$$CBKPAVioUIRenderImage@@@std@@@?$_Tree@V?$_Tmap_traits@KPAVioUIRenderImage@@U?$less@K@std@@V?$allocator@U?$pair@$$CBKPAVioUIRenderImage@@@std@@@3@$0A@@std@@@std@@QAE?AU?$pair@V?$_Tree_iterator@V?$_Tree_val@V?$_Tmap_traits@KPAVioUIRenderImage@@U?$less@K@std@@V?$allocator@U?$pair@$$CBKPAVioUIRenderImage@@@std@@@3@$0A@@std@@@std@@@std@@_N@1@$$QAU?$pair@$$CBKPAVioUIRenderImage@@@1@@Z ; std::_Tree<std::_Tmap_traits<unsigned long,ioUIRenderImage *,std::less<unsigned long>,std::allocator<std::pair<unsigned long const ,ioUIRenderImage *> >,0> >::insert<std::pair<unsigned long const ,ioUIRenderImage *> >
  00925	8d 8d d0 f8 ff
	ff		 lea	 ecx, DWORD PTR $T519526[ebp]
  0092b	88 5d fc	 mov	 BYTE PTR __$EHRec$[ebp+8], bl
  0092e	ff 15 00 00 00
	00		 call	 DWORD PTR __imp_??1ioHashString@@QAE@XZ
  00934	6a 04		 push	 4

; 308  : 
; 309  : 		sprintf_e( szKey, "entry_res_red_%d", i );

  00936	c7 45 c8 88 82
	9f 98		 mov	 DWORD PTR ___encStr$507602[ebp], -1734376824 ; 989f8288H
  0093d	c7 45 cc 94 b3
	99 8f		 mov	 DWORD PTR ___encStr$507602[ebp+4], -1885752428 ; 8f99b394H
  00944	c7 45 d0 9e b3
	99 8f		 mov	 DWORD PTR ___encStr$507602[ebp+8], -1885752418 ; 8f99b39eH
  0094b	c7 45 d4 89 b3
	ce 8e		 mov	 DWORD PTR ___encStr$507602[ebp+12], -1899056247 ; 8eceb389H
  00952	8d 45 c8	 lea	 eax, DWORD PTR ___encStr$507602[ebp]
  00955	88 5d d8	 mov	 BYTE PTR ___encStr$507602[ebp+16], bl
  00958	59		 pop	 ecx
$LL1762@Initialize:
  00959	81 30 ed ec eb
	ea		 xor	 DWORD PTR [eax], -353637139 ; eaebecedH
  0095f	83 c0 04	 add	 eax, 4
  00962	49		 dec	 ecx
  00963	75 f4		 jne	 SHORT $LL1762@Initialize
  00965	57		 push	 edi
  00966	8d 45 c8	 lea	 eax, DWORD PTR ___encStr$507602[ebp]
  00969	50		 push	 eax
  0096a	8d 85 a8 fd ff
	ff		 lea	 eax, DWORD PTR _szKey$[ebp]
  00970	50		 push	 eax
  00971	ff 15 00 00 00
	00		 call	 DWORD PTR __imp__sprintf
  00977	83 c4 0c	 add	 esp, 12			; 0000000cH

; 310  : 		kLoader.LoadString( szKey, "", szBuf, MAX_PATH );

  0097a	56		 push	 esi
  0097b	8d 85 ac fe ff
	ff		 lea	 eax, DWORD PTR _szBuf$[ebp]
  00981	50		 push	 eax
  00982	68 00 00 00 00	 push	 OFFSET ??_C@_00CNPNBAHC@?$AA@
  00987	8d 85 a8 fd ff
	ff		 lea	 eax, DWORD PTR _szKey$[ebp]
  0098d	50		 push	 eax
  0098e	8d 8d 14 f9 ff
	ff		 lea	 ecx, DWORD PTR _kLoader$[ebp]
  00994	ff 15 00 00 00
	00		 call	 DWORD PTR __imp_?LoadStringA@ioINILoader@@QAEXPBD0PADH@Z

; 311  : 		m_GuildLevelResRedMap.insert( GuildLevelResMap::value_type( i, g_UIImageSetMgr.CreateImageByFullName( szBuf ) ) );

  0099a	8d 85 ac fe ff
	ff		 lea	 eax, DWORD PTR _szBuf$[ebp]
  009a0	50		 push	 eax
  009a1	8d 4d b0	 lea	 ecx, DWORD PTR $T519530[ebp]
  009a4	ff 15 00 00 00
	00		 call	 DWORD PTR __imp_??0ioHashString@@QAE@PBD@Z
  009aa	8d 45 b0	 lea	 eax, DWORD PTR $T519530[ebp]
  009ad	53		 push	 ebx
  009ae	50		 push	 eax
  009af	c6 45 fc 07	 mov	 BYTE PTR __$EHRec$[ebp+8], 7
  009b3	ff 15 00 00 00
	00		 call	 DWORD PTR __imp_?GetSingleton@ioUIImageSetManager@@SAAAV1@XZ
  009b9	8b c8		 mov	 ecx, eax
  009bb	ff 15 00 00 00
	00		 call	 DWORD PTR __imp_?CreateImageByFullName@ioUIImageSetManager@@QAEPAVioUIRenderImage@@ABVioHashString@@_N@Z
  009c1	8b 8d 08 f9 ff
	ff		 mov	 ecx, DWORD PTR tv12349[ebp]
  009c7	89 85 10 f9 ff
	ff		 mov	 DWORD PTR $T519528[ebp+4], eax
  009cd	8d 85 0c f9 ff
	ff		 lea	 eax, DWORD PTR $T519528[ebp]
  009d3	50		 push	 eax
  009d4	8d 45 e8	 lea	 eax, DWORD PTR $T519531[ebp]
  009d7	50		 push	 eax
  009d8	89 bd 0c f9 ff
	ff		 mov	 DWORD PTR $T519528[ebp], edi
  009de	e8 00 00 00 00	 call	 ??$insert@U?$pair@$$CBKPAVioUIRenderImage@@@std@@@?$_Tree@V?$_Tmap_traits@KPAVioUIRenderImage@@U?$less@K@std@@V?$allocator@U?$pair@$$CBKPAVioUIRenderImage@@@std@@@3@$0A@@std@@@std@@QAE?AU?$pair@V?$_Tree_iterator@V?$_Tree_val@V?$_Tmap_traits@KPAVioUIRenderImage@@U?$less@K@std@@V?$allocator@U?$pair@$$CBKPAVioUIRenderImage@@@std@@@3@$0A@@std@@@std@@@std@@_N@1@$$QAU?$pair@$$CBKPAVioUIRenderImage@@@1@@Z ; std::_Tree<std::_Tmap_traits<unsigned long,ioUIRenderImage *,std::less<unsigned long>,std::allocator<std::pair<unsigned long const ,ioUIRenderImage *> >,0> >::insert<std::pair<unsigned long const ,ioUIRenderImage *> >
  009e3	8d 4d b0	 lea	 ecx, DWORD PTR $T519530[ebp]
  009e6	88 5d fc	 mov	 BYTE PTR __$EHRec$[ebp+8], bl
  009e9	ff 15 00 00 00
	00		 call	 DWORD PTR __imp_??1ioHashString@@QAE@XZ
  009ef	47		 inc	 edi
  009f0	3b bd f4 f8 ff
	ff		 cmp	 edi, DWORD PTR _iMaxEntry$[ebp]
  009f6	0f 8c 6a fe ff
	ff		 jl	 $LL201@Initialize
$LN199@Initialize:

; 312  : 	}
; 313  : }

  009fc	83 4d fc ff	 or	 DWORD PTR __$EHRec$[ebp+8], -1
  00a00	8d 8d 14 f9 ff
	ff		 lea	 ecx, DWORD PTR _kLoader$[ebp]
  00a06	ff 15 00 00 00
	00		 call	 DWORD PTR __imp_??1ioINILoader@@QAE@XZ
  00a0c	e8 00 00 00 00	 call	 __EH_epilog3_GS
  00a11	c3		 ret	 0
_TEXT	ENDS
;	COMDAT text$x
text$x	SEGMENT
__unwindfunclet$?Initialize@ioGuildMarkMgr@@QAEXXZ$0:
  00000	8d 8d 14 f9 ff
	ff		 lea	 ecx, DWORD PTR _kLoader$[ebp]
  00006	e9 00 00 00 00	 jmp	 ??1ioINILoader_e@@QAE@XZ
__unwindfunclet$?Initialize@ioGuildMarkMgr@@QAEXXZ$1:
  0000b	8d 8d e0 f8 ff
	ff		 lea	 ecx, DWORD PTR $T519505[ebp]
  00011	ff 25 00 00 00
	00		 jmp	 DWORD PTR __imp_??1ioHashString@@QAE@XZ
__unwindfunclet$?Initialize@ioGuildMarkMgr@@QAEXXZ$2:
  00017	8d 8d f8 f8 ff
	ff		 lea	 ecx, DWORD PTR $T519506[ebp]
  0001d	ff 25 00 00 00
	00		 jmp	 DWORD PTR __imp_??1ioHashString@@QAE@XZ
__unwindfunclet$?Initialize@ioGuildMarkMgr@@QAEXXZ$3:
  00023	8d 4d e0	 lea	 ecx, DWORD PTR $T519511[ebp]
  00026	ff 25 00 00 00
	00		 jmp	 DWORD PTR __imp_??1ioHashString@@QAE@XZ
__unwindfunclet$?Initialize@ioGuildMarkMgr@@QAEXXZ$5:
  0002c	8d 4d e0	 lea	 ecx, DWORD PTR $T519516[ebp]
  0002f	ff 25 00 00 00
	00		 jmp	 DWORD PTR __imp_??1ioHashString@@QAE@XZ
__unwindfunclet$?Initialize@ioGuildMarkMgr@@QAEXXZ$7:
  00035	8d 4d e0	 lea	 ecx, DWORD PTR $T519522[ebp]
  00038	ff 25 00 00 00
	00		 jmp	 DWORD PTR __imp_??1ioHashString@@QAE@XZ
__unwindfunclet$?Initialize@ioGuildMarkMgr@@QAEXXZ$8:
  0003e	8d 8d d0 f8 ff
	ff		 lea	 ecx, DWORD PTR $T519526[ebp]
  00044	ff 25 00 00 00
	00		 jmp	 DWORD PTR __imp_??1ioHashString@@QAE@XZ
__unwindfunclet$?Initialize@ioGuildMarkMgr@@QAEXXZ$9:
  0004a	8d 4d b0	 lea	 ecx, DWORD PTR $T519530[ebp]
  0004d	ff 25 00 00 00
	00		 jmp	 DWORD PTR __imp_??1ioHashString@@QAE@XZ
__ehhandler$?Initialize@ioGuildMarkMgr@@QAEXXZ:
  00053	8b 54 24 08	 mov	 edx, DWORD PTR [esp+8]
  00057	8d 42 0c	 lea	 eax, DWORD PTR [edx+12]
  0005a	8b 8a cc f8 ff
	ff		 mov	 ecx, DWORD PTR [edx-1844]
  00060	33 c8		 xor	 ecx, eax
  00062	e8 00 00 00 00	 call	 @__security_check_cookie@4
  00067	8b 4a fc	 mov	 ecx, DWORD PTR [edx-4]
  0006a	33 c8		 xor	 ecx, eax
  0006c	e8 00 00 00 00	 call	 @__security_check_cookie@4
  00071	b8 00 00 00 00	 mov	 eax, OFFSET __ehfuncinfo$?Initialize@ioGuildMarkMgr@@QAEXXZ
  00076	e9 00 00 00 00	 jmp	 ___CxxFrameHandler3
text$x	ENDS
?Initialize@ioGuildMarkMgr@@QAEXXZ ENDP			; ioGuildMarkMgr::Initialize
PUBLIC	??_C@_0DG@NDDFKKBG@ioGuildMarkMgr?3?3GetSmallMarkImag@ ; `string'
PUBLIC	?GetSmallMarkImage@ioGuildMarkMgr@@IAEPAVioUIRenderImage@@KK@Z ; ioGuildMarkMgr::GetSmallMarkImage
;	COMDAT ??_C@_0DG@NDDFKKBG@ioGuildMarkMgr?3?3GetSmallMarkImag@
; File d:\lost saga for developer\youtube\tutorial\source\src\lsclient\ioguildmarkmgr.h
CONST	SEGMENT
??_C@_0DG@NDDFKKBG@ioGuildMarkMgr?3?3GetSmallMarkImag@ DB 'ioGuildMarkMgr'
	DB	'::GetSmallMarkImage Not Image : %d - %d', 00H ; `string'
; Function compile flags: /Ogsp
; File d:\lost saga for developer\youtube\tutorial\source\src\lsclient\ioguildmarkmgr.cpp
CONST	ENDS
;	COMDAT ?GetSmallMarkImage@ioGuildMarkMgr@@IAEPAVioUIRenderImage@@KK@Z
_TEXT	SEGMENT
_iter$ = -4						; size = 4
_dwGuildIndex$ = 8					; size = 4
_dwGuildMark$ = 12					; size = 4
?GetSmallMarkImage@ioGuildMarkMgr@@IAEPAVioUIRenderImage@@KK@Z PROC ; ioGuildMarkMgr::GetSmallMarkImage, COMDAT
; _this$ = ecx

; 341  : {

  00000	55		 push	 ebp
  00001	8b ec		 mov	 ebp, esp
  00003	51		 push	 ecx

; 342  : 	if( dwGuildIndex == 0 )

  00004	83 7d 08 00	 cmp	 DWORD PTR _dwGuildIndex$[ebp], 0
  00008	56		 push	 esi
  00009	8b f1		 mov	 esi, ecx
  0000b	75 04		 jne	 SHORT $LN4@GetSmallMa@5
$LN31@GetSmallMa@5:

; 343  : 		return NULL;

  0000d	33 c0		 xor	 eax, eax
  0000f	eb 48		 jmp	 SHORT $LN5@GetSmallMa@5
$LN4@GetSmallMa@5:

; 344  : 
; 345  : 	GuildMarkMap::iterator iter = m_GuildSmallMarkMap.find( dwGuildMark );

  00011	8d 45 0c	 lea	 eax, DWORD PTR _dwGuildMark$[ebp]
  00014	50		 push	 eax
  00015	8d 45 fc	 lea	 eax, DWORD PTR _iter$[ebp]
  00018	50		 push	 eax
  00019	8d 4e 04	 lea	 ecx, DWORD PTR [esi+4]
  0001c	e8 00 00 00 00	 call	 ?find@?$_Tree@V?$_Tmap_traits@KPAVioUIRenderImage@@U?$less@K@std@@V?$allocator@U?$pair@$$CBKPAVioUIRenderImage@@@std@@@3@$0A@@std@@@std@@QAE?AV?$_Tree_iterator@V?$_Tree_val@V?$_Tmap_traits@KPAVioUIRenderImage@@U?$less@K@std@@V?$allocator@U?$pair@$$CBKPAVioUIRenderImage@@@std@@@3@$0A@@std@@@std@@@2@ABK@Z ; std::_Tree<std::_Tmap_traits<unsigned long,ioUIRenderImage *,std::less<unsigned long>,std::allocator<std::pair<unsigned long const ,ioUIRenderImage *> >,0> >::find

; 346  : 	if( iter != m_GuildSmallMarkMap.end() )

  00021	8b 45 fc	 mov	 eax, DWORD PTR _iter$[ebp]
  00024	3b 46 08	 cmp	 eax, DWORD PTR [esi+8]
  00027	74 05		 je	 SHORT $LN3@GetSmallMa@5

; 347  : 		return iter->second;

  00029	8b 40 10	 mov	 eax, DWORD PTR [eax+16]
  0002c	eb 2b		 jmp	 SHORT $LN5@GetSmallMa@5
$LN3@GetSmallMa@5:

; 348  : 	else if( dwGuildMark <= (DWORD)GetMaxReserveMarkIndex() )

  0002e	8b 45 0c	 mov	 eax, DWORD PTR _dwGuildMark$[ebp]

; 349  : 	{
; 350  : 		LOG.PrintTimeAndLog( 0, "ioGuildMarkMgr::GetSmallMarkImage Not Image : %d - %d", dwGuildIndex, dwGuildMark );

  00031	50		 push	 eax
  00032	ff 75 08	 push	 DWORD PTR _dwGuildIndex$[ebp]
  00035	3b 46 6c	 cmp	 eax, DWORD PTR [esi+108]
  00038	77 18		 ja	 SHORT $LN1@GetSmallMa@5
  0003a	68 00 00 00 00	 push	 OFFSET ??_C@_0DG@NDDFKKBG@ioGuildMarkMgr?3?3GetSmallMarkImag@
  0003f	6a 00		 push	 0
  00041	ff 35 00 00 00
	00		 push	 DWORD PTR __imp_?LOG@@3VCLog@@A
  00047	ff 15 00 00 00
	00		 call	 DWORD PTR __imp_?PrintTimeAndLog@CLog@@QAAXHPADZZ
  0004d	83 c4 14	 add	 esp, 20			; 00000014H

; 351  : 		return NULL;

  00050	eb bb		 jmp	 SHORT $LN31@GetSmallMa@5
$LN1@GetSmallMa@5:

; 352  : 	}
; 353  : 
; 354  : 	//  
; 355  : 	return GetSmallMarkImageCustom( dwGuildIndex, dwGuildMark );

  00052	8b ce		 mov	 ecx, esi
  00054	e8 00 00 00 00	 call	 ?GetSmallMarkImageCustom@ioGuildMarkMgr@@IAEPAVioUIRenderImage@@KK@Z ; ioGuildMarkMgr::GetSmallMarkImageCustom
$LN5@GetSmallMa@5:
  00059	5e		 pop	 esi

; 356  : }

  0005a	c9		 leave
  0005b	c2 08 00	 ret	 8
?GetSmallMarkImage@ioGuildMarkMgr@@IAEPAVioUIRenderImage@@KK@Z ENDP ; ioGuildMarkMgr::GetSmallMarkImage
_TEXT	ENDS
PUBLIC	??_C@_0DE@LDEEFLCO@ioGuildMarkMgr?3?3GetBigMarkImage?5@ ; `string'
PUBLIC	?GetBigMarkImage@ioGuildMarkMgr@@IAEPAVioUIRenderImage@@KK@Z ; ioGuildMarkMgr::GetBigMarkImage
;	COMDAT ??_C@_0DE@LDEEFLCO@ioGuildMarkMgr?3?3GetBigMarkImage?5@
; File d:\lost saga for developer\youtube\tutorial\source\src\lsclient\ioguildmarkmgr.h
CONST	SEGMENT
??_C@_0DE@LDEEFLCO@ioGuildMarkMgr?3?3GetBigMarkImage?5@ DB 'ioGuildMarkMg'
	DB	'r::GetBigMarkImage Not Image : %d - %d', 00H ; `string'
; Function compile flags: /Ogsp
; File d:\lost saga for developer\youtube\tutorial\source\src\lsclient\ioguildmarkmgr.cpp
CONST	ENDS
;	COMDAT ?GetBigMarkImage@ioGuildMarkMgr@@IAEPAVioUIRenderImage@@KK@Z
_TEXT	SEGMENT
_iter$ = -4						; size = 4
_dwGuildIndex$ = 8					; size = 4
_dwGuildMark$ = 12					; size = 4
?GetBigMarkImage@ioGuildMarkMgr@@IAEPAVioUIRenderImage@@KK@Z PROC ; ioGuildMarkMgr::GetBigMarkImage, COMDAT
; _this$ = ecx

; 469  : {

  00000	55		 push	 ebp
  00001	8b ec		 mov	 ebp, esp
  00003	51		 push	 ecx

; 470  : 	if( dwGuildIndex == 0 )

  00004	83 7d 08 00	 cmp	 DWORD PTR _dwGuildIndex$[ebp], 0
  00008	56		 push	 esi
  00009	8b f1		 mov	 esi, ecx
  0000b	75 05		 jne	 SHORT $LN4@GetBigMark@5

; 471  : 		return m_pBigMarkNone;

  0000d	8b 46 24	 mov	 eax, DWORD PTR [esi+36]
  00010	eb 4a		 jmp	 SHORT $LN5@GetBigMark@5
$LN4@GetBigMark@5:

; 472  : 
; 473  : 	GuildMarkMap::iterator iter = m_GuildBigMarkMap.find( dwGuildMark );

  00012	8d 45 0c	 lea	 eax, DWORD PTR _dwGuildMark$[ebp]
  00015	50		 push	 eax
  00016	8d 45 fc	 lea	 eax, DWORD PTR _iter$[ebp]
  00019	50		 push	 eax
  0001a	8d 4e 14	 lea	 ecx, DWORD PTR [esi+20]
  0001d	e8 00 00 00 00	 call	 ?find@?$_Tree@V?$_Tmap_traits@KPAVioUIRenderImage@@U?$less@K@std@@V?$allocator@U?$pair@$$CBKPAVioUIRenderImage@@@std@@@3@$0A@@std@@@std@@QAE?AV?$_Tree_iterator@V?$_Tree_val@V?$_Tmap_traits@KPAVioUIRenderImage@@U?$less@K@std@@V?$allocator@U?$pair@$$CBKPAVioUIRenderImage@@@std@@@3@$0A@@std@@@std@@@2@ABK@Z ; std::_Tree<std::_Tmap_traits<unsigned long,ioUIRenderImage *,std::less<unsigned long>,std::allocator<std::pair<unsigned long const ,ioUIRenderImage *> >,0> >::find

; 474  : 	if( iter != m_GuildBigMarkMap.end() )

  00022	8b 45 fc	 mov	 eax, DWORD PTR _iter$[ebp]
  00025	3b 46 18	 cmp	 eax, DWORD PTR [esi+24]
  00028	74 05		 je	 SHORT $LN3@GetBigMark@5

; 475  : 		return iter->second;

  0002a	8b 40 10	 mov	 eax, DWORD PTR [eax+16]
  0002d	eb 2d		 jmp	 SHORT $LN5@GetBigMark@5
$LN3@GetBigMark@5:

; 476  : 	else if( dwGuildMark <= (DWORD)GetMaxReserveMarkIndex() )

  0002f	8b 45 0c	 mov	 eax, DWORD PTR _dwGuildMark$[ebp]

; 477  : 	{
; 478  : 		LOG.PrintTimeAndLog( 0, "ioGuildMarkMgr::GetBigMarkImage Not Image : %d - %d", dwGuildIndex, dwGuildMark );

  00032	50		 push	 eax
  00033	ff 75 08	 push	 DWORD PTR _dwGuildIndex$[ebp]
  00036	3b 46 6c	 cmp	 eax, DWORD PTR [esi+108]
  00039	77 1a		 ja	 SHORT $LN1@GetBigMark@5
  0003b	68 00 00 00 00	 push	 OFFSET ??_C@_0DE@LDEEFLCO@ioGuildMarkMgr?3?3GetBigMarkImage?5@
  00040	6a 00		 push	 0
  00042	ff 35 00 00 00
	00		 push	 DWORD PTR __imp_?LOG@@3VCLog@@A
  00048	ff 15 00 00 00
	00		 call	 DWORD PTR __imp_?PrintTimeAndLog@CLog@@QAAXHPADZZ
  0004e	83 c4 14	 add	 esp, 20			; 00000014H

; 479  : 		return NULL;

  00051	33 c0		 xor	 eax, eax
  00053	eb 07		 jmp	 SHORT $LN5@GetBigMark@5
$LN1@GetBigMark@5:

; 480  : 	}
; 481  : 	//  
; 482  : 	return GetBigMarkImageCustom( dwGuildIndex, dwGuildMark );

  00055	8b ce		 mov	 ecx, esi
  00057	e8 00 00 00 00	 call	 ?GetBigMarkImageCustom@ioGuildMarkMgr@@IAEPAVioUIRenderImage@@KK@Z ; ioGuildMarkMgr::GetBigMarkImageCustom
$LN5@GetBigMark@5:
  0005c	5e		 pop	 esi

; 483  : }

  0005d	c9		 leave
  0005e	c2 08 00	 ret	 8
?GetBigMarkImage@ioGuildMarkMgr@@IAEPAVioUIRenderImage@@KK@Z ENDP ; ioGuildMarkMgr::GetBigMarkImage
_TEXT	ENDS
PUBLIC	?RenderSmallMark@ioGuildMarkMgr@@QAEXKKMMW4UIRenderType@@@Z ; ioGuildMarkMgr::RenderSmallMark
; Function compile flags: /Ogsp
;	COMDAT ?RenderSmallMark@ioGuildMarkMgr@@QAEXKKMMW4UIRenderType@@@Z
_TEXT	SEGMENT
_dwGuildIndex$ = 8					; size = 4
_dwGuildMark$ = 12					; size = 4
_fXPos$ = 16						; size = 4
_fYPos$ = 20						; size = 4
_eRenderType$ = 24					; size = 4
?RenderSmallMark@ioGuildMarkMgr@@QAEXKKMMW4UIRenderType@@@Z PROC ; ioGuildMarkMgr::RenderSmallMark, COMDAT
; _this$ = ecx

; 606  : {

  00000	55		 push	 ebp
  00001	8b ec		 mov	 ebp, esp

; 607  : 	ioUIRenderImage *pRenderImage = GetSmallMarkImage( dwGuildIndex, dwGuildMark );

  00003	ff 75 0c	 push	 DWORD PTR _dwGuildMark$[ebp]
  00006	ff 75 08	 push	 DWORD PTR _dwGuildIndex$[ebp]
  00009	e8 00 00 00 00	 call	 ?GetSmallMarkImage@ioGuildMarkMgr@@IAEPAVioUIRenderImage@@KK@Z ; ioGuildMarkMgr::GetSmallMarkImage

; 608  : 	if( pRenderImage )

  0000e	33 c9		 xor	 ecx, ecx
  00010	3b c1		 cmp	 eax, ecx
  00012	74 23		 je	 SHORT $LN1@RenderSmal@3

; 609  : 		pRenderImage->Render( fXPos, fYPos, eRenderType );

  00014	f3 0f 10 45 14	 movss	 xmm0, DWORD PTR _fYPos$[ebp]
  00019	8b 10		 mov	 edx, DWORD PTR [eax]
  0001b	51		 push	 ecx
  0001c	51		 push	 ecx
  0001d	51		 push	 ecx
  0001e	ff 75 18	 push	 DWORD PTR _eRenderType$[ebp]
  00021	51		 push	 ecx
  00022	51		 push	 ecx
  00023	f3 0f 11 44 24
	04		 movss	 DWORD PTR [esp+4], xmm0
  00029	f3 0f 10 45 10	 movss	 xmm0, DWORD PTR _fXPos$[ebp]
  0002e	8b c8		 mov	 ecx, eax
  00030	f3 0f 11 04 24	 movss	 DWORD PTR [esp], xmm0
  00035	ff 12		 call	 DWORD PTR [edx]
$LN1@RenderSmal@3:

; 610  : }

  00037	5d		 pop	 ebp
  00038	c2 14 00	 ret	 20			; 00000014H
?RenderSmallMark@ioGuildMarkMgr@@QAEXKKMMW4UIRenderType@@@Z ENDP ; ioGuildMarkMgr::RenderSmallMark
_TEXT	ENDS
PUBLIC	?RenderMarkSize@ioGuildMarkMgr@@QAEXHHKKMMW4UIRenderType@@@Z ; ioGuildMarkMgr::RenderMarkSize
; Function compile flags: /Ogsp
;	COMDAT ?RenderMarkSize@ioGuildMarkMgr@@QAEXHHKKMMW4UIRenderType@@@Z
_TEXT	SEGMENT
_iSizeW$ = 8						; size = 4
_iSizeH$ = 12						; size = 4
_dwGuildIndex$ = 16					; size = 4
_dwGuildMark$ = 20					; size = 4
_fXPos$ = 24						; size = 4
_fYPos$ = 28						; size = 4
_eRenderType$ = 32					; size = 4
?RenderMarkSize@ioGuildMarkMgr@@QAEXHHKKMMW4UIRenderType@@@Z PROC ; ioGuildMarkMgr::RenderMarkSize, COMDAT
; _this$ = ecx

; 626  : {

  00000	55		 push	 ebp
  00001	8b ec		 mov	 ebp, esp
  00003	56		 push	 esi

; 627  : 	ioUIRenderImage *pRenderImage = GetBigMarkImage( dwGuildIndex, dwGuildMark );

  00004	ff 75 14	 push	 DWORD PTR _dwGuildMark$[ebp]
  00007	ff 75 10	 push	 DWORD PTR _dwGuildIndex$[ebp]
  0000a	e8 00 00 00 00	 call	 ?GetBigMarkImage@ioGuildMarkMgr@@IAEPAVioUIRenderImage@@KK@Z ; ioGuildMarkMgr::GetBigMarkImage
  0000f	8b f0		 mov	 esi, eax

; 628  : 	if( pRenderImage )

  00011	85 f6		 test	 esi, esi
  00013	74 33		 je	 SHORT $LN1@RenderMark@3

; 629  : 	{
; 630  : 		pRenderImage->SetSize( iSizeW, iSizeH );

  00015	ff 75 0c	 push	 DWORD PTR _iSizeH$[ebp]
  00018	8b 06		 mov	 eax, DWORD PTR [esi]
  0001a	ff 75 08	 push	 DWORD PTR _iSizeW$[ebp]
  0001d	8b ce		 mov	 ecx, esi
  0001f	ff 50 10	 call	 DWORD PTR [eax+16]

; 631  : 		pRenderImage->Render( fXPos, fYPos, eRenderType, TFO_BILINEAR );

  00022	f3 0f 10 45 1c	 movss	 xmm0, DWORD PTR _fYPos$[ebp]
  00027	8b 06		 mov	 eax, DWORD PTR [esi]
  00029	6a 00		 push	 0
  0002b	6a 00		 push	 0
  0002d	6a 01		 push	 1
  0002f	ff 75 20	 push	 DWORD PTR _eRenderType$[ebp]
  00032	51		 push	 ecx
  00033	51		 push	 ecx
  00034	f3 0f 11 44 24
	04		 movss	 DWORD PTR [esp+4], xmm0
  0003a	f3 0f 10 45 18	 movss	 xmm0, DWORD PTR _fXPos$[ebp]
  0003f	8b ce		 mov	 ecx, esi
  00041	f3 0f 11 04 24	 movss	 DWORD PTR [esp], xmm0
  00046	ff 10		 call	 DWORD PTR [eax]
$LN1@RenderMark@3:
  00048	5e		 pop	 esi

; 632  : 	}
; 633  : }

  00049	5d		 pop	 ebp
  0004a	c2 1c 00	 ret	 28			; 0000001cH
?RenderMarkSize@ioGuildMarkMgr@@QAEXHHKKMMW4UIRenderType@@@Z ENDP ; ioGuildMarkMgr::RenderMarkSize
_TEXT	ENDS
PUBLIC	?RenderMark56x56@ioGuildMarkMgr@@QAEXKKMMW4UIRenderType@@@Z ; ioGuildMarkMgr::RenderMark56x56
; Function compile flags: /Ogsp
;	COMDAT ?RenderMark56x56@ioGuildMarkMgr@@QAEXKKMMW4UIRenderType@@@Z
_TEXT	SEGMENT
_dwGuildIndex$ = 8					; size = 4
_dwGuildMark$ = 12					; size = 4
_fXPos$ = 16						; size = 4
_fYPos$ = 20						; size = 4
_eRenderType$ = 24					; size = 4
?RenderMark56x56@ioGuildMarkMgr@@QAEXKKMMW4UIRenderType@@@Z PROC ; ioGuildMarkMgr::RenderMark56x56, COMDAT
; _this$ = ecx

; 636  : {

  00000	55		 push	 ebp
  00001	8b ec		 mov	 ebp, esp
  00003	56		 push	 esi

; 637  : 	ioUIRenderImage *pRenderImage = GetBigMarkImage( dwGuildIndex, dwGuildMark );

  00004	ff 75 0c	 push	 DWORD PTR _dwGuildMark$[ebp]
  00007	ff 75 08	 push	 DWORD PTR _dwGuildIndex$[ebp]
  0000a	e8 00 00 00 00	 call	 ?GetBigMarkImage@ioGuildMarkMgr@@IAEPAVioUIRenderImage@@KK@Z ; ioGuildMarkMgr::GetBigMarkImage
  0000f	8b f0		 mov	 esi, eax

; 638  : 	if( pRenderImage )

  00011	85 f6		 test	 esi, esi
  00013	74 31		 je	 SHORT $LN1@RenderMark@4

; 639  : 	{
; 640  : 		pRenderImage->SetSize( 56, 56 );

  00015	8b 06		 mov	 eax, DWORD PTR [esi]
  00017	6a 38		 push	 56			; 00000038H
  00019	6a 38		 push	 56			; 00000038H
  0001b	8b ce		 mov	 ecx, esi
  0001d	ff 50 10	 call	 DWORD PTR [eax+16]

; 641  : 		pRenderImage->Render( fXPos, fYPos, eRenderType, TFO_BILINEAR );

  00020	f3 0f 10 45 14	 movss	 xmm0, DWORD PTR _fYPos$[ebp]
  00025	8b 06		 mov	 eax, DWORD PTR [esi]
  00027	6a 00		 push	 0
  00029	6a 00		 push	 0
  0002b	6a 01		 push	 1
  0002d	ff 75 18	 push	 DWORD PTR _eRenderType$[ebp]
  00030	51		 push	 ecx
  00031	51		 push	 ecx
  00032	f3 0f 11 44 24
	04		 movss	 DWORD PTR [esp+4], xmm0
  00038	f3 0f 10 45 10	 movss	 xmm0, DWORD PTR _fXPos$[ebp]
  0003d	8b ce		 mov	 ecx, esi
  0003f	f3 0f 11 04 24	 movss	 DWORD PTR [esp], xmm0
  00044	ff 10		 call	 DWORD PTR [eax]
$LN1@RenderMark@4:
  00046	5e		 pop	 esi

; 642  : 	}
; 643  : }

  00047	5d		 pop	 ebp
  00048	c2 14 00	 ret	 20			; 00000014H
?RenderMark56x56@ioGuildMarkMgr@@QAEXKKMMW4UIRenderType@@@Z ENDP ; ioGuildMarkMgr::RenderMark56x56
_TEXT	ENDS
PUBLIC	?RenderMark71x71@ioGuildMarkMgr@@QAEXKKMMW4UIRenderType@@@Z ; ioGuildMarkMgr::RenderMark71x71
; Function compile flags: /Ogsp
;	COMDAT ?RenderMark71x71@ioGuildMarkMgr@@QAEXKKMMW4UIRenderType@@@Z
_TEXT	SEGMENT
_dwGuildIndex$ = 8					; size = 4
_dwGuildMark$ = 12					; size = 4
_fXPos$ = 16						; size = 4
_fYPos$ = 20						; size = 4
_eRenderType$ = 24					; size = 4
?RenderMark71x71@ioGuildMarkMgr@@QAEXKKMMW4UIRenderType@@@Z PROC ; ioGuildMarkMgr::RenderMark71x71, COMDAT
; _this$ = ecx

; 646  : {

  00000	55		 push	 ebp
  00001	8b ec		 mov	 ebp, esp
  00003	56		 push	 esi

; 647  : 	ioUIRenderImage *pRenderImage = GetBigMarkImage( dwGuildIndex, dwGuildMark );

  00004	ff 75 0c	 push	 DWORD PTR _dwGuildMark$[ebp]
  00007	ff 75 08	 push	 DWORD PTR _dwGuildIndex$[ebp]
  0000a	e8 00 00 00 00	 call	 ?GetBigMarkImage@ioGuildMarkMgr@@IAEPAVioUIRenderImage@@KK@Z ; ioGuildMarkMgr::GetBigMarkImage
  0000f	8b f0		 mov	 esi, eax

; 648  : 	if( pRenderImage )

  00011	85 f6		 test	 esi, esi
  00013	74 31		 je	 SHORT $LN1@RenderMark@5

; 649  : 	{
; 650  : 		pRenderImage->SetSize( 71, 71 );

  00015	8b 06		 mov	 eax, DWORD PTR [esi]
  00017	6a 47		 push	 71			; 00000047H
  00019	6a 47		 push	 71			; 00000047H
  0001b	8b ce		 mov	 ecx, esi
  0001d	ff 50 10	 call	 DWORD PTR [eax+16]

; 651  : 		pRenderImage->Render( fXPos, fYPos, eRenderType, TFO_BILINEAR );

  00020	f3 0f 10 45 14	 movss	 xmm0, DWORD PTR _fYPos$[ebp]
  00025	8b 06		 mov	 eax, DWORD PTR [esi]
  00027	6a 00		 push	 0
  00029	6a 00		 push	 0
  0002b	6a 01		 push	 1
  0002d	ff 75 18	 push	 DWORD PTR _eRenderType$[ebp]
  00030	51		 push	 ecx
  00031	51		 push	 ecx
  00032	f3 0f 11 44 24
	04		 movss	 DWORD PTR [esp+4], xmm0
  00038	f3 0f 10 45 10	 movss	 xmm0, DWORD PTR _fXPos$[ebp]
  0003d	8b ce		 mov	 ecx, esi
  0003f	f3 0f 11 04 24	 movss	 DWORD PTR [esp], xmm0
  00044	ff 10		 call	 DWORD PTR [eax]
$LN1@RenderMark@5:
  00046	5e		 pop	 esi

; 652  : 	}
; 653  : }

  00047	5d		 pop	 ebp
  00048	c2 14 00	 ret	 20			; 00000014H
?RenderMark71x71@ioGuildMarkMgr@@QAEXKKMMW4UIRenderType@@@Z ENDP ; ioGuildMarkMgr::RenderMark71x71
_TEXT	ENDS
PUBLIC	?RenderMark86x86@ioGuildMarkMgr@@QAEXKKMMW4UIRenderType@@@Z ; ioGuildMarkMgr::RenderMark86x86
; Function compile flags: /Ogsp
;	COMDAT ?RenderMark86x86@ioGuildMarkMgr@@QAEXKKMMW4UIRenderType@@@Z
_TEXT	SEGMENT
_dwGuildIndex$ = 8					; size = 4
_dwGuildMark$ = 12					; size = 4
_fXPos$ = 16						; size = 4
_fYPos$ = 20						; size = 4
_eRenderType$ = 24					; size = 4
?RenderMark86x86@ioGuildMarkMgr@@QAEXKKMMW4UIRenderType@@@Z PROC ; ioGuildMarkMgr::RenderMark86x86, COMDAT
; _this$ = ecx

; 656  : {

  00000	55		 push	 ebp
  00001	8b ec		 mov	 ebp, esp
  00003	56		 push	 esi

; 657  : 	ioUIRenderImage *pRenderImage = GetBigMarkImage( dwGuildIndex, dwGuildMark );

  00004	ff 75 0c	 push	 DWORD PTR _dwGuildMark$[ebp]
  00007	ff 75 08	 push	 DWORD PTR _dwGuildIndex$[ebp]
  0000a	e8 00 00 00 00	 call	 ?GetBigMarkImage@ioGuildMarkMgr@@IAEPAVioUIRenderImage@@KK@Z ; ioGuildMarkMgr::GetBigMarkImage
  0000f	8b f0		 mov	 esi, eax

; 658  : 	if( pRenderImage )

  00011	85 f6		 test	 esi, esi
  00013	74 31		 je	 SHORT $LN1@RenderMark@6

; 659  : 	{
; 660  : 		pRenderImage->SetSize( 86, 86 );

  00015	8b 06		 mov	 eax, DWORD PTR [esi]
  00017	6a 56		 push	 86			; 00000056H
  00019	6a 56		 push	 86			; 00000056H
  0001b	8b ce		 mov	 ecx, esi
  0001d	ff 50 10	 call	 DWORD PTR [eax+16]

; 661  : 		pRenderImage->Render( fXPos, fYPos, eRenderType, TFO_BILINEAR );

  00020	f3 0f 10 45 14	 movss	 xmm0, DWORD PTR _fYPos$[ebp]
  00025	8b 06		 mov	 eax, DWORD PTR [esi]
  00027	6a 00		 push	 0
  00029	6a 00		 push	 0
  0002b	6a 01		 push	 1
  0002d	ff 75 18	 push	 DWORD PTR _eRenderType$[ebp]
  00030	51		 push	 ecx
  00031	51		 push	 ecx
  00032	f3 0f 11 44 24
	04		 movss	 DWORD PTR [esp+4], xmm0
  00038	f3 0f 10 45 10	 movss	 xmm0, DWORD PTR _fXPos$[ebp]
  0003d	8b ce		 mov	 ecx, esi
  0003f	f3 0f 11 04 24	 movss	 DWORD PTR [esp], xmm0
  00044	ff 10		 call	 DWORD PTR [eax]
$LN1@RenderMark@6:
  00046	5e		 pop	 esi

; 662  : 	}
; 663  : }

  00047	5d		 pop	 ebp
  00048	c2 14 00	 ret	 20			; 00000014H
?RenderMark86x86@ioGuildMarkMgr@@QAEXKKMMW4UIRenderType@@@Z ENDP ; ioGuildMarkMgr::RenderMark86x86
_TEXT	ENDS
PUBLIC	?RenderMark96x96@ioGuildMarkMgr@@QAEXKKMMW4UIRenderType@@@Z ; ioGuildMarkMgr::RenderMark96x96
; Function compile flags: /Ogsp
;	COMDAT ?RenderMark96x96@ioGuildMarkMgr@@QAEXKKMMW4UIRenderType@@@Z
_TEXT	SEGMENT
_dwGuildIndex$ = 8					; size = 4
_dwGuildMark$ = 12					; size = 4
_fXPos$ = 16						; size = 4
_fYPos$ = 20						; size = 4
_eRenderType$ = 24					; size = 4
?RenderMark96x96@ioGuildMarkMgr@@QAEXKKMMW4UIRenderType@@@Z PROC ; ioGuildMarkMgr::RenderMark96x96, COMDAT
; _this$ = ecx

; 666  : {

  00000	55		 push	 ebp
  00001	8b ec		 mov	 ebp, esp
  00003	56		 push	 esi

; 667  : 	ioUIRenderImage *pRenderImage = GetBigMarkImage( dwGuildIndex, dwGuildMark );

  00004	ff 75 0c	 push	 DWORD PTR _dwGuildMark$[ebp]
  00007	ff 75 08	 push	 DWORD PTR _dwGuildIndex$[ebp]
  0000a	e8 00 00 00 00	 call	 ?GetBigMarkImage@ioGuildMarkMgr@@IAEPAVioUIRenderImage@@KK@Z ; ioGuildMarkMgr::GetBigMarkImage
  0000f	8b f0		 mov	 esi, eax

; 668  : 	if( pRenderImage )

  00011	85 f6		 test	 esi, esi
  00013	74 31		 je	 SHORT $LN1@RenderMark@7

; 669  : 	{
; 670  : 		pRenderImage->SetSize( 96, 96 );

  00015	8b 06		 mov	 eax, DWORD PTR [esi]
  00017	6a 60		 push	 96			; 00000060H
  00019	6a 60		 push	 96			; 00000060H
  0001b	8b ce		 mov	 ecx, esi
  0001d	ff 50 10	 call	 DWORD PTR [eax+16]

; 671  : 		pRenderImage->Render( fXPos, fYPos, eRenderType, TFO_BILINEAR );

  00020	f3 0f 10 45 14	 movss	 xmm0, DWORD PTR _fYPos$[ebp]
  00025	8b 06		 mov	 eax, DWORD PTR [esi]
  00027	6a 00		 push	 0
  00029	6a 00		 push	 0
  0002b	6a 01		 push	 1
  0002d	ff 75 18	 push	 DWORD PTR _eRenderType$[ebp]
  00030	51		 push	 ecx
  00031	51		 push	 ecx
  00032	f3 0f 11 44 24
	04		 movss	 DWORD PTR [esp+4], xmm0
  00038	f3 0f 10 45 10	 movss	 xmm0, DWORD PTR _fXPos$[ebp]
  0003d	8b ce		 mov	 ecx, esi
  0003f	f3 0f 11 04 24	 movss	 DWORD PTR [esp], xmm0
  00044	ff 10		 call	 DWORD PTR [eax]
$LN1@RenderMark@7:
  00046	5e		 pop	 esi

; 672  : 	}
; 673  : }

  00047	5d		 pop	 ebp
  00048	c2 14 00	 ret	 20			; 00000014H
?RenderMark96x96@ioGuildMarkMgr@@QAEXKKMMW4UIRenderType@@@Z ENDP ; ioGuildMarkMgr::RenderMark96x96
_TEXT	ENDS
END
