; Listing generated by Microsoft (R) Optimizing Compiler Version 16.00.30319.01 

	TITLE	D:\Lost Saga For Developer\Youtube\Tutorial\Source\src\LSClient\ioHelipCopterAttachBuff.cpp
	.686P
	.XMM
	include listing.inc
	.model	flat

INCLUDELIB MSVCRT
INCLUDELIB OLDNAMES

PUBLIC	?_EEM_DS@?$deque@UD3DXVECTOR3@@V?$allocator@UD3DXVECTOR3@@@std@@@std@@2HB ; std::deque<D3DXVECTOR3,std::allocator<D3DXVECTOR3> >::_EEM_DS
;	COMDAT ?_EEM_DS@?$deque@UD3DXVECTOR3@@V?$allocator@UD3DXVECTOR3@@@std@@@std@@2HB
CONST	SEGMENT
?_EEM_DS@?$deque@UD3DXVECTOR3@@V?$allocator@UD3DXVECTOR3@@@std@@@std@@2HB DD 01H ; std::deque<D3DXVECTOR3,std::allocator<D3DXVECTOR3> >::_EEM_DS
CONST	ENDS
PUBLIC	?GetBaseCharList@ioPlayStage@@QBEABV?$vector@PAVioBaseChar@@V?$allocator@PAVioBaseChar@@@std@@@std@@XZ ; ioPlayStage::GetBaseCharList
; Function compile flags: /Ogsp
; File d:\lost saga for developer\youtube\tutorial\source\src\lsclient\ioplaystage.h
;	COMDAT ?GetBaseCharList@ioPlayStage@@QBEABV?$vector@PAVioBaseChar@@V?$allocator@PAVioBaseChar@@@std@@@std@@XZ
_TEXT	SEGMENT
?GetBaseCharList@ioPlayStage@@QBEABV?$vector@PAVioBaseChar@@V?$allocator@PAVioBaseChar@@@std@@@std@@XZ PROC ; ioPlayStage::GetBaseCharList, COMDAT
; _this$ = ecx

; 755  : 	const BaseCharList& GetBaseCharList() const { return m_BaseCharList; }

  00000	8d 41 2c	 lea	 eax, DWORD PTR [ecx+44]
  00003	c3		 ret	 0
?GetBaseCharList@ioPlayStage@@QBEABV?$vector@PAVioBaseChar@@V?$allocator@PAVioBaseChar@@@std@@@std@@XZ ENDP ; ioPlayStage::GetBaseCharList
_TEXT	ENDS
PUBLIC	_fabsf
EXTRN	__fltused:DWORD
; Function compile flags: /Ogsp
; File c:\program files (x86)\microsoft visual studio 10.0\vc\include\math.h
;	COMDAT _fabsf
_TEXT	SEGMENT
tv129 = 8						; size = 4
__X$ = 8						; size = 4
_fabsf	PROC						; COMDAT

; 395  :         {return ((float)fabs((double)_X)); }

  00000	55		 push	 ebp
  00001	8b ec		 mov	 ebp, esp
  00003	d9 45 08	 fld	 DWORD PTR __X$[ebp]
  00006	d9 e1		 fabs
  00008	d9 5d 08	 fstp	 DWORD PTR tv129[ebp]
  0000b	d9 45 08	 fld	 DWORD PTR tv129[ebp]
  0000e	5d		 pop	 ebp
  0000f	c3		 ret	 0
_fabsf	ENDP
_TEXT	ENDS
PUBLIC	?GetState@ioBaseChar@@QBE?AW4CharState@@XZ	; ioBaseChar::GetState
; Function compile flags: /Ogsp
; File d:\lost saga for developer\youtube\tutorial\source\src\lsclient\iobasechar.h
;	COMDAT ?GetState@ioBaseChar@@QBE?AW4CharState@@XZ
_TEXT	SEGMENT
?GetState@ioBaseChar@@QBE?AW4CharState@@XZ PROC		; ioBaseChar::GetState, COMDAT
; _this$ = ecx

; 2156 : 	inline CharState GetState() const { return m_CharState; }	

  00000	8a 81 10 03 00
	00		 mov	 al, BYTE PTR [ecx+784]
  00006	c3		 ret	 0
?GetState@ioBaseChar@@QBE?AW4CharState@@XZ ENDP		; ioBaseChar::GetState
_TEXT	ENDS
PUBLIC	_sqrtf
EXTRN	__CIsqrt:PROC
; Function compile flags: /Ogsp
; File c:\program files (x86)\microsoft visual studio 10.0\vc\include\math.h
;	COMDAT _sqrtf
_TEXT	SEGMENT
tv69 = 8						; size = 4
__X$ = 8						; size = 4
_sqrtf	PROC						; COMDAT

; 434  :         {return ((float)sqrt((double)_X)); }

  00000	55		 push	 ebp
  00001	8b ec		 mov	 ebp, esp
  00003	d9 45 08	 fld	 DWORD PTR __X$[ebp]
  00006	e8 00 00 00 00	 call	 __CIsqrt
  0000b	d9 5d 08	 fstp	 DWORD PTR tv69[ebp]
  0000e	d9 45 08	 fld	 DWORD PTR tv69[ebp]
  00011	5d		 pop	 ebp
  00012	c3		 ret	 0
_sqrtf	ENDP
_TEXT	ENDS
PUBLIC	?fabs@@YAMM@Z					; fabs
; Function compile flags: /Ogsp
;	COMDAT ?fabs@@YAMM@Z
_TEXT	SEGMENT
tv131 = 8						; size = 4
__X$ = 8						; size = 4
?fabs@@YAMM@Z PROC					; fabs, COMDAT

; 518  :         {return (fabsf(_X)); }

  00000	55		 push	 ebp
  00001	8b ec		 mov	 ebp, esp
  00003	d9 45 08	 fld	 DWORD PTR __X$[ebp]
  00006	d9 e1		 fabs
  00008	d9 5d 08	 fstp	 DWORD PTR tv131[ebp]
  0000b	d9 45 08	 fld	 DWORD PTR tv131[ebp]
  0000e	5d		 pop	 ebp
  0000f	c3		 ret	 0
?fabs@@YAMM@Z ENDP					; fabs
_TEXT	ENDS
PUBLIC	?GetCharName@ioBaseChar@@QBEABVioHashString@@XZ	; ioBaseChar::GetCharName
; Function compile flags: /Ogsp
; File d:\lost saga for developer\youtube\tutorial\source\src\lsclient\iobasechar.h
;	COMDAT ?GetCharName@ioBaseChar@@QBEABVioHashString@@XZ
_TEXT	SEGMENT
?GetCharName@ioBaseChar@@QBEABVioHashString@@XZ PROC	; ioBaseChar::GetCharName, COMDAT
; _this$ = ecx

; 2594 : 	inline const ioHashString& GetCharName() const { return m_Name; }

  00000	8d 81 d4 02 00
	00		 lea	 eax, DWORD PTR [ecx+724]
  00006	c3		 ret	 0
?GetCharName@ioBaseChar@@QBEABVioHashString@@XZ ENDP	; ioBaseChar::GetCharName
_TEXT	ENDS
PUBLIC	??_7bad_alloc@std@@6B@				; std::bad_alloc::`vftable'
PUBLIC	??0bad_alloc@std@@QAE@PBD@Z			; std::bad_alloc::bad_alloc
PUBLIC	??_R4bad_alloc@std@@6B@				; std::bad_alloc::`RTTI Complete Object Locator'
PUBLIC	??_R0?AVbad_alloc@std@@@8			; std::bad_alloc `RTTI Type Descriptor'
PUBLIC	??_R3bad_alloc@std@@8				; std::bad_alloc::`RTTI Class Hierarchy Descriptor'
PUBLIC	??_R2bad_alloc@std@@8				; std::bad_alloc::`RTTI Base Class Array'
PUBLIC	??_R1A@?0A@EA@bad_alloc@std@@8			; std::bad_alloc::`RTTI Base Class Descriptor at (0,-1,0,64)'
PUBLIC	??_R1A@?0A@EA@exception@std@@8			; std::exception::`RTTI Base Class Descriptor at (0,-1,0,64)'
PUBLIC	??_R0?AVexception@std@@@8			; std::exception `RTTI Type Descriptor'
PUBLIC	??_R3exception@std@@8				; std::exception::`RTTI Class Hierarchy Descriptor'
PUBLIC	??_R2exception@std@@8				; std::exception::`RTTI Base Class Array'
EXTRN	__imp_??0exception@std@@QAE@ABQBD@Z:PROC
EXTRN	??_7type_info@@6B@:QWORD			; type_info::`vftable'
EXTRN	??_Ebad_alloc@std@@UAEPAXI@Z:PROC		; std::bad_alloc::`vector deleting destructor'
EXTRN	?what@exception@std@@UBEPBDXZ:PROC		; std::exception::what
;	COMDAT ??_R2exception@std@@8
; File c:\program files (x86)\microsoft visual studio 10.0\vc\include\exception
rdata$r	SEGMENT
??_R2exception@std@@8 DD FLAT:??_R1A@?0A@EA@exception@std@@8 ; std::exception::`RTTI Base Class Array'
rdata$r	ENDS
;	COMDAT ??_R3exception@std@@8
rdata$r	SEGMENT
??_R3exception@std@@8 DD 00H				; std::exception::`RTTI Class Hierarchy Descriptor'
	DD	00H
	DD	01H
	DD	FLAT:??_R2exception@std@@8
rdata$r	ENDS
;	COMDAT ??_R0?AVexception@std@@@8
_DATA	SEGMENT
??_R0?AVexception@std@@@8 DD FLAT:??_7type_info@@6B@	; std::exception `RTTI Type Descriptor'
	DD	00H
	DB	'.?AVexception@std@@', 00H
_DATA	ENDS
;	COMDAT ??_R1A@?0A@EA@exception@std@@8
rdata$r	SEGMENT
??_R1A@?0A@EA@exception@std@@8 DD FLAT:??_R0?AVexception@std@@@8 ; std::exception::`RTTI Base Class Descriptor at (0,-1,0,64)'
	DD	00H
	DD	00H
	DD	0ffffffffH
	DD	00H
	DD	040H
	DD	FLAT:??_R3exception@std@@8
rdata$r	ENDS
;	COMDAT ??_R1A@?0A@EA@bad_alloc@std@@8
rdata$r	SEGMENT
??_R1A@?0A@EA@bad_alloc@std@@8 DD FLAT:??_R0?AVbad_alloc@std@@@8 ; std::bad_alloc::`RTTI Base Class Descriptor at (0,-1,0,64)'
	DD	01H
	DD	00H
	DD	0ffffffffH
	DD	00H
	DD	040H
	DD	FLAT:??_R3bad_alloc@std@@8
rdata$r	ENDS
;	COMDAT ??_R2bad_alloc@std@@8
rdata$r	SEGMENT
??_R2bad_alloc@std@@8 DD FLAT:??_R1A@?0A@EA@bad_alloc@std@@8 ; std::bad_alloc::`RTTI Base Class Array'
	DD	FLAT:??_R1A@?0A@EA@exception@std@@8
rdata$r	ENDS
;	COMDAT ??_R3bad_alloc@std@@8
rdata$r	SEGMENT
??_R3bad_alloc@std@@8 DD 00H				; std::bad_alloc::`RTTI Class Hierarchy Descriptor'
	DD	00H
	DD	02H
	DD	FLAT:??_R2bad_alloc@std@@8
rdata$r	ENDS
;	COMDAT ??_R0?AVbad_alloc@std@@@8
_DATA	SEGMENT
??_R0?AVbad_alloc@std@@@8 DD FLAT:??_7type_info@@6B@	; std::bad_alloc `RTTI Type Descriptor'
	DD	00H
	DB	'.?AVbad_alloc@std@@', 00H
_DATA	ENDS
;	COMDAT ??_R4bad_alloc@std@@6B@
rdata$r	SEGMENT
??_R4bad_alloc@std@@6B@ DD 00H				; std::bad_alloc::`RTTI Complete Object Locator'
	DD	00H
	DD	00H
	DD	FLAT:??_R0?AVbad_alloc@std@@@8
	DD	FLAT:??_R3bad_alloc@std@@8
rdata$r	ENDS
;	COMDAT ??_7bad_alloc@std@@6B@
CONST	SEGMENT
??_7bad_alloc@std@@6B@ DD FLAT:??_R4bad_alloc@std@@6B@	; std::bad_alloc::`vftable'
	DD	FLAT:??_Ebad_alloc@std@@UAEPAXI@Z
	DD	FLAT:?what@exception@std@@UBEPBDXZ
; Function compile flags: /Ogsp
CONST	ENDS
;	COMDAT ??0bad_alloc@std@@QAE@PBD@Z
_TEXT	SEGMENT
__Message$ = 8						; size = 4
??0bad_alloc@std@@QAE@PBD@Z PROC			; std::bad_alloc::bad_alloc, COMDAT
; _this$ = ecx

; 345  : 		{	// construct from message string

  00000	55		 push	 ebp
  00001	8b ec		 mov	 ebp, esp
  00003	56		 push	 esi
  00004	8d 45 08	 lea	 eax, DWORD PTR __Message$[ebp]
  00007	50		 push	 eax
  00008	8b f1		 mov	 esi, ecx
  0000a	ff 15 00 00 00
	00		 call	 DWORD PTR __imp_??0exception@std@@QAE@ABQBD@Z
  00010	c7 06 00 00 00
	00		 mov	 DWORD PTR [esi], OFFSET ??_7bad_alloc@std@@6B@

; 346  : 		}

  00016	8b c6		 mov	 eax, esi
  00018	5e		 pop	 esi
  00019	5d		 pop	 ebp
  0001a	c2 04 00	 ret	 4
??0bad_alloc@std@@QAE@PBD@Z ENDP			; std::bad_alloc::bad_alloc
_TEXT	ENDS
PUBLIC	??1bad_alloc@std@@UAE@XZ			; std::bad_alloc::~bad_alloc
EXTRN	__imp_??1exception@std@@UAE@XZ:PROC
; Function compile flags: /Ogsp
;	COMDAT ??1bad_alloc@std@@UAE@XZ
_TEXT	SEGMENT
??1bad_alloc@std@@UAE@XZ PROC				; std::bad_alloc::~bad_alloc, COMDAT
; _this$ = ecx

; 354  : 		{	// destroy the object

  00000	c7 01 00 00 00
	00		 mov	 DWORD PTR [ecx], OFFSET ??_7bad_alloc@std@@6B@

; 355  : 		}

  00006	ff 25 00 00 00
	00		 jmp	 DWORD PTR __imp_??1exception@std@@UAE@XZ
??1bad_alloc@std@@UAE@XZ ENDP				; std::bad_alloc::~bad_alloc
_TEXT	ENDS
EXTRN	??3@YAXPAX@Z:PROC				; operator delete
; Function compile flags: /Ogsp
;	COMDAT ??_Gbad_alloc@std@@UAEPAXI@Z
_TEXT	SEGMENT
___flags$ = 8						; size = 4
??_Gbad_alloc@std@@UAEPAXI@Z PROC			; std::bad_alloc::`scalar deleting destructor', COMDAT
; _this$ = ecx
  00000	55		 push	 ebp
  00001	8b ec		 mov	 ebp, esp
  00003	56		 push	 esi
  00004	8b f1		 mov	 esi, ecx
  00006	c7 06 00 00 00
	00		 mov	 DWORD PTR [esi], OFFSET ??_7bad_alloc@std@@6B@
  0000c	ff 15 00 00 00
	00		 call	 DWORD PTR __imp_??1exception@std@@UAE@XZ
  00012	f6 45 08 01	 test	 BYTE PTR ___flags$[ebp], 1
  00016	74 07		 je	 SHORT $LN1@scalar
  00018	56		 push	 esi
  00019	e8 00 00 00 00	 call	 ??3@YAXPAX@Z		; operator delete
  0001e	59		 pop	 ecx
$LN1@scalar:
  0001f	8b c6		 mov	 eax, esi
  00021	5e		 pop	 esi
  00022	5d		 pop	 ebp
  00023	c2 04 00	 ret	 4
??_Gbad_alloc@std@@UAEPAXI@Z ENDP			; std::bad_alloc::`scalar deleting destructor'
_TEXT	ENDS
PUBLIC	??2@YAPAXIPAX@Z					; operator new
; Function compile flags: /Ogsp
; File c:\program files (x86)\microsoft visual studio 10.0\vc\include\new
;	COMDAT ??2@YAPAXIPAX@Z
_TEXT	SEGMENT
___formal$ = 8						; size = 4
__Where$ = 12						; size = 4
??2@YAPAXIPAX@Z PROC					; operator new, COMDAT

; 56   : 	{	// construct array with placement at _Where

  00000	55		 push	 ebp
  00001	8b ec		 mov	 ebp, esp

; 57   : 	return (_Where);

  00003	8b 45 0c	 mov	 eax, DWORD PTR __Where$[ebp]

; 58   : 	}

  00006	5d		 pop	 ebp
  00007	c3		 ret	 0
??2@YAPAXIPAX@Z ENDP					; operator new
_TEXT	ENDS
PUBLIC	??3@YAXPAX0@Z					; operator delete
; Function compile flags: /Ogsp
;	COMDAT ??3@YAXPAX0@Z
_TEXT	SEGMENT
___formal$ = 8						; size = 4
___formal$ = 12						; size = 4
??3@YAXPAX0@Z PROC					; operator delete, COMDAT

; 62   : 	}

  00000	c3		 ret	 0
??3@YAXPAX0@Z ENDP					; operator delete
_TEXT	ENDS
PUBLIC	?GetCreator@ioBaseChar@@QAEPAVioPlayStage@@XZ	; ioBaseChar::GetCreator
; Function compile flags: /Ogsp
; File d:\lost saga for developer\youtube\tutorial\source\src\lsclient\iobasechar.h
;	COMDAT ?GetCreator@ioBaseChar@@QAEPAVioPlayStage@@XZ
_TEXT	SEGMENT
?GetCreator@ioBaseChar@@QAEPAVioPlayStage@@XZ PROC	; ioBaseChar::GetCreator, COMDAT
; _this$ = ecx

; 4013 : 	inline ioPlayStage* GetCreator() { return m_pCreator; }

  00000	8b 81 44 03 00
	00		 mov	 eax, DWORD PTR [ecx+836]
  00006	c3		 ret	 0
?GetCreator@ioBaseChar@@QAEPAVioPlayStage@@XZ ENDP	; ioBaseChar::GetCreator
_TEXT	ENDS
PUBLIC	?_Adopt@_Iterator_base0@std@@QAEXPBX@Z		; std::_Iterator_base0::_Adopt
; Function compile flags: /Ogsp
; File c:\program files (x86)\microsoft visual studio 10.0\vc\include\xutility
;	COMDAT ?_Adopt@_Iterator_base0@std@@QAEXPBX@Z
_TEXT	SEGMENT
___formal$ = 8						; size = 4
?_Adopt@_Iterator_base0@std@@QAEXPBX@Z PROC		; std::_Iterator_base0::_Adopt, COMDAT
; _this$ = ecx

; 49   : 		}

  00000	c2 04 00	 ret	 4
?_Adopt@_Iterator_base0@std@@QAEXPBX@Z ENDP		; std::_Iterator_base0::_Adopt
_TEXT	ENDS
PUBLIC	?ClearData@ioHelipCopterAttachBuff@@IAEXXZ	; ioHelipCopterAttachBuff::ClearData
EXTRN	__imp_?VEC3_ZERO@ioMath@@2UD3DXVECTOR3@@A:BYTE
; Function compile flags: /Ogsp
; File d:\lost saga for developer\youtube\tutorial\source\src\lsclient\iohelipcopterattachbuff.cpp
;	COMDAT ?ClearData@ioHelipCopterAttachBuff@@IAEXXZ
_TEXT	SEGMENT
?ClearData@ioHelipCopterAttachBuff@@IAEXXZ PROC		; ioHelipCopterAttachBuff::ClearData, COMDAT
; _this$ = ecx

; 155  : 	m_BuffState = BS_None;
; 156  : 	m_vCirclePos = ioMath::VEC3_ZERO;
; 157  : 	m_dwAttackTime = 0;
; 158  : 	m_bSetEndJump = false;
; 159  : 	m_dwFireStartTime = 0;
; 160  : 	m_dwMotionEndTime = 0;
; 161  : 	m_bDestoryDummy = false;
; 162  : 	m_fWeaponMoveSpeed = 0.0f;

  00000	0f 57 c0	 xorps	 xmm0, xmm0
  00003	56		 push	 esi
  00004	33 c0		 xor	 eax, eax
  00006	57		 push	 edi
  00007	89 81 6c 09 00
	00		 mov	 DWORD PTR [ecx+2412], eax
  0000d	8b 35 00 00 00
	00		 mov	 esi, DWORD PTR __imp_?VEC3_ZERO@ioMath@@2UD3DXVECTOR3@@A
  00013	8d b9 70 09 00
	00		 lea	 edi, DWORD PTR [ecx+2416]
  00019	a5		 movsd
  0001a	a5		 movsd
  0001b	a5		 movsd
  0001c	5f		 pop	 edi
  0001d	89 81 7c 09 00
	00		 mov	 DWORD PTR [ecx+2428], eax
  00023	88 81 80 09 00
	00		 mov	 BYTE PTR [ecx+2432], al
  00029	89 81 4c 0a 00
	00		 mov	 DWORD PTR [ecx+2636], eax
  0002f	89 81 50 0a 00
	00		 mov	 DWORD PTR [ecx+2640], eax
  00035	88 81 22 0a 00
	00		 mov	 BYTE PTR [ecx+2594], al
  0003b	f3 0f 11 81 54
	0a 00 00	 movss	 DWORD PTR [ecx+2644], xmm0

; 163  : 	m_fWeaponFloatPower = 0.0f;

  00043	f3 0f 11 81 58
	0a 00 00	 movss	 DWORD PTR [ecx+2648], xmm0
  0004b	5e		 pop	 esi

; 164  : }

  0004c	c3		 ret	 0
?ClearData@ioHelipCopterAttachBuff@@IAEXXZ ENDP		; ioHelipCopterAttachBuff::ClearData
_TEXT	ENDS
PUBLIC	??1FireTime@@QAE@XZ				; FireTime::~FireTime
EXTRN	__imp_??1ioHashString@@QAE@XZ:PROC
EXTRN	___CxxFrameHandler3:PROC
EXTRN	@__security_check_cookie@4:PROC
EXTRN	__EH_epilog3:PROC
EXTRN	__EH_prolog3:PROC
;	COMDAT xdata$x
xdata$x	SEGMENT
__unwindtable$??1FireTime@@QAE@XZ DD 0ffffffffH
	DD	FLAT:__unwindfunclet$??1FireTime@@QAE@XZ$0
	DD	00H
	DD	FLAT:__unwindfunclet$??1FireTime@@QAE@XZ$1
__ehfuncinfo$??1FireTime@@QAE@XZ DD 019930522H
	DD	02H
	DD	FLAT:__unwindtable$??1FireTime@@QAE@XZ
	DD	2 DUP(00H)
	DD	2 DUP(00H)
	DD	00H
	DD	01H
; Function compile flags: /Ogsp
xdata$x	ENDS
;	COMDAT ??1FireTime@@QAE@XZ
_TEXT	SEGMENT
_this$ = -16						; size = 4
__$EHRec$ = -12						; size = 12
??1FireTime@@QAE@XZ PROC				; FireTime::~FireTime, COMDAT
; _this$ = ecx
  00000	6a 04		 push	 4
  00002	b8 00 00 00 00	 mov	 eax, __ehhandler$??1FireTime@@QAE@XZ
  00007	e8 00 00 00 00	 call	 __EH_prolog3
  0000c	8b f9		 mov	 edi, ecx
  0000e	89 7d f0	 mov	 DWORD PTR _this$[ebp], edi
  00011	8b 35 00 00 00
	00		 mov	 esi, DWORD PTR __imp_??1ioHashString@@QAE@XZ
  00017	8d 4f 44	 lea	 ecx, DWORD PTR [edi+68]
  0001a	c7 45 fc 01 00
	00 00		 mov	 DWORD PTR __$EHRec$[ebp+8], 1
  00021	ff d6		 call	 esi
  00023	8d 4f 30	 lea	 ecx, DWORD PTR [edi+48]
  00026	c6 45 fc 00	 mov	 BYTE PTR __$EHRec$[ebp+8], 0
  0002a	ff d6		 call	 esi
  0002c	83 4d fc ff	 or	 DWORD PTR __$EHRec$[ebp+8], -1
  00030	8d 4f 14	 lea	 ecx, DWORD PTR [edi+20]
  00033	ff d6		 call	 esi
  00035	e8 00 00 00 00	 call	 __EH_epilog3
  0003a	c3		 ret	 0
_TEXT	ENDS
;	COMDAT text$x
text$x	SEGMENT
__unwindfunclet$??1FireTime@@QAE@XZ$0:
  00000	8b 4d f0	 mov	 ecx, DWORD PTR _this$[ebp]
  00003	83 c1 14	 add	 ecx, 20			; 00000014H
  00006	ff 25 00 00 00
	00		 jmp	 DWORD PTR __imp_??1ioHashString@@QAE@XZ
__unwindfunclet$??1FireTime@@QAE@XZ$1:
  0000c	8b 4d f0	 mov	 ecx, DWORD PTR _this$[ebp]
  0000f	83 c1 30	 add	 ecx, 48			; 00000030H
  00012	ff 25 00 00 00
	00		 jmp	 DWORD PTR __imp_??1ioHashString@@QAE@XZ
__ehhandler$??1FireTime@@QAE@XZ:
  00018	8b 54 24 08	 mov	 edx, DWORD PTR [esp+8]
  0001c	8d 42 0c	 lea	 eax, DWORD PTR [edx+12]
  0001f	8b 4a ec	 mov	 ecx, DWORD PTR [edx-20]
  00022	33 c8		 xor	 ecx, eax
  00024	e8 00 00 00 00	 call	 @__security_check_cookie@4
  00029	b8 00 00 00 00	 mov	 eax, OFFSET __ehfuncinfo$??1FireTime@@QAE@XZ
  0002e	e9 00 00 00 00	 jmp	 ___CxxFrameHandler3
text$x	ENDS
??1FireTime@@QAE@XZ ENDP				; FireTime::~FireTime
PUBLIC	??_C@_00CNPNBAHC@?$AA@				; `string'
PUBLIC	?SetCameraBuff@ioHelipCopterAttachBuff@@IAEXPAVioBaseChar@@@Z ; ioHelipCopterAttachBuff::SetCameraBuff
EXTRN	?ReserveAddNewBuff@ioBaseChar@@QAEXABVioHashString@@00PAVioSkill@@_N@Z:PROC ; ioBaseChar::ReserveAddNewBuff
EXTRN	__imp_??0ioHashString@@QAE@PBD@Z:PROC
EXTRN	__imp_?IsEmpty@ioHashString@@QBE_NXZ:PROC
;	COMDAT ??_C@_00CNPNBAHC@?$AA@
CONST	SEGMENT
??_C@_00CNPNBAHC@?$AA@ DB 00H				; `string'
CONST	ENDS
;	COMDAT xdata$x
xdata$x	SEGMENT
__unwindtable$?SetCameraBuff@ioHelipCopterAttachBuff@@IAEXPAVioBaseChar@@@Z DD 0ffffffffH
	DD	FLAT:__unwindfunclet$?SetCameraBuff@ioHelipCopterAttachBuff@@IAEXPAVioBaseChar@@@Z$0
	DD	00H
	DD	FLAT:__unwindfunclet$?SetCameraBuff@ioHelipCopterAttachBuff@@IAEXPAVioBaseChar@@@Z$1
__ehfuncinfo$?SetCameraBuff@ioHelipCopterAttachBuff@@IAEXPAVioBaseChar@@@Z DD 019930522H
	DD	02H
	DD	FLAT:__unwindtable$?SetCameraBuff@ioHelipCopterAttachBuff@@IAEXPAVioBaseChar@@@Z
	DD	2 DUP(00H)
	DD	2 DUP(00H)
	DD	00H
	DD	01H
; Function compile flags: /Ogsp
xdata$x	ENDS
;	COMDAT ?SetCameraBuff@ioHelipCopterAttachBuff@@IAEXPAVioBaseChar@@@Z
_TEXT	SEGMENT
$T554356 = -48						; size = 16
$T554357 = -32						; size = 16
tv129 = -16						; size = 4
__$EHRec$ = -12						; size = 12
_pOwner$ = 8						; size = 4
?SetCameraBuff@ioHelipCopterAttachBuff@@IAEXPAVioBaseChar@@@Z PROC ; ioHelipCopterAttachBuff::SetCameraBuff, COMDAT
; _this$ = ecx

; 387  : {

  00000	6a 24		 push	 36			; 00000024H
  00002	b8 00 00 00 00	 mov	 eax, __ehhandler$?SetCameraBuff@ioHelipCopterAttachBuff@@IAEXPAVioBaseChar@@@Z
  00007	e8 00 00 00 00	 call	 __EH_prolog3

; 388  : 	if( !pOwner )

  0000c	33 db		 xor	 ebx, ebx
  0000e	39 5d 08	 cmp	 DWORD PTR _pOwner$[ebp], ebx
  00011	74 5d		 je	 SHORT $LN1@SetCameraB

; 389  : 		return;
; 390  : 
; 391  : 	if( !m_szCameraBuff.IsEmpty() )

  00013	81 c1 98 09 00
	00		 add	 ecx, 2456		; 00000998H
  00019	89 4d f0	 mov	 DWORD PTR tv129[ebp], ecx
  0001c	ff 15 00 00 00
	00		 call	 DWORD PTR __imp_?IsEmpty@ioHashString@@QBE_NXZ
  00022	84 c0		 test	 al, al
  00024	75 4a		 jne	 SHORT $LN1@SetCameraB

; 392  : 		//pOwner->AddNewBuff( m_szCameraBuff, "", "", NULL );
; 393  : 		pOwner->ReserveAddNewBuff( m_szCameraBuff, "", "", NULL );

  00026	8b 35 00 00 00
	00		 mov	 esi, DWORD PTR __imp_??0ioHashString@@QAE@PBD@Z
  0002c	bf 00 00 00 00	 mov	 edi, OFFSET ??_C@_00CNPNBAHC@?$AA@
  00031	57		 push	 edi
  00032	8d 4d d0	 lea	 ecx, DWORD PTR $T554356[ebp]
  00035	ff d6		 call	 esi
  00037	57		 push	 edi
  00038	8d 4d e0	 lea	 ecx, DWORD PTR $T554357[ebp]
  0003b	89 5d fc	 mov	 DWORD PTR __$EHRec$[ebp+8], ebx
  0003e	ff d6		 call	 esi
  00040	8b 4d 08	 mov	 ecx, DWORD PTR _pOwner$[ebp]
  00043	53		 push	 ebx
  00044	53		 push	 ebx
  00045	8d 45 d0	 lea	 eax, DWORD PTR $T554356[ebp]
  00048	50		 push	 eax
  00049	8d 45 e0	 lea	 eax, DWORD PTR $T554357[ebp]
  0004c	50		 push	 eax
  0004d	ff 75 f0	 push	 DWORD PTR tv129[ebp]
  00050	c6 45 fc 01	 mov	 BYTE PTR __$EHRec$[ebp+8], 1
  00054	e8 00 00 00 00	 call	 ?ReserveAddNewBuff@ioBaseChar@@QAEXABVioHashString@@00PAVioSkill@@_N@Z ; ioBaseChar::ReserveAddNewBuff
  00059	8b 35 00 00 00
	00		 mov	 esi, DWORD PTR __imp_??1ioHashString@@QAE@XZ
  0005f	8d 4d e0	 lea	 ecx, DWORD PTR $T554357[ebp]
  00062	88 5d fc	 mov	 BYTE PTR __$EHRec$[ebp+8], bl
  00065	ff d6		 call	 esi
  00067	83 4d fc ff	 or	 DWORD PTR __$EHRec$[ebp+8], -1
  0006b	8d 4d d0	 lea	 ecx, DWORD PTR $T554356[ebp]
  0006e	ff d6		 call	 esi
$LN1@SetCameraB:

; 394  : }

  00070	e8 00 00 00 00	 call	 __EH_epilog3
  00075	c2 04 00	 ret	 4
_TEXT	ENDS
;	COMDAT text$x
text$x	SEGMENT
__unwindfunclet$?SetCameraBuff@ioHelipCopterAttachBuff@@IAEXPAVioBaseChar@@@Z$0:
  00000	8d 4d d0	 lea	 ecx, DWORD PTR $T554356[ebp]
  00003	ff 25 00 00 00
	00		 jmp	 DWORD PTR __imp_??1ioHashString@@QAE@XZ
__unwindfunclet$?SetCameraBuff@ioHelipCopterAttachBuff@@IAEXPAVioBaseChar@@@Z$1:
  00009	8d 4d e0	 lea	 ecx, DWORD PTR $T554357[ebp]
  0000c	ff 25 00 00 00
	00		 jmp	 DWORD PTR __imp_??1ioHashString@@QAE@XZ
__ehhandler$?SetCameraBuff@ioHelipCopterAttachBuff@@IAEXPAVioBaseChar@@@Z:
  00012	8b 54 24 08	 mov	 edx, DWORD PTR [esp+8]
  00016	8d 42 0c	 lea	 eax, DWORD PTR [edx+12]
  00019	8b 4a cc	 mov	 ecx, DWORD PTR [edx-52]
  0001c	33 c8		 xor	 ecx, eax
  0001e	e8 00 00 00 00	 call	 @__security_check_cookie@4
  00023	b8 00 00 00 00	 mov	 eax, OFFSET __ehfuncinfo$?SetCameraBuff@ioHelipCopterAttachBuff@@IAEXPAVioBaseChar@@@Z
  00028	e9 00 00 00 00	 jmp	 ___CxxFrameHandler3
text$x	ENDS
?SetCameraBuff@ioHelipCopterAttachBuff@@IAEXPAVioBaseChar@@@Z ENDP ; ioHelipCopterAttachBuff::SetCameraBuff
PUBLIC	?EndCameraBuff@ioHelipCopterAttachBuff@@IAEXPAVioBaseChar@@@Z ; ioHelipCopterAttachBuff::EndCameraBuff
EXTRN	?RemoveBuff@ioBaseChar@@QAE_NABVioHashString@@_N@Z:PROC ; ioBaseChar::RemoveBuff
; Function compile flags: /Ogsp
;	COMDAT ?EndCameraBuff@ioHelipCopterAttachBuff@@IAEXPAVioBaseChar@@@Z
_TEXT	SEGMENT
_pOwner$ = 8						; size = 4
?EndCameraBuff@ioHelipCopterAttachBuff@@IAEXPAVioBaseChar@@@Z PROC ; ioHelipCopterAttachBuff::EndCameraBuff, COMDAT
; _this$ = ecx

; 397  : {

  00000	55		 push	 ebp
  00001	8b ec		 mov	 ebp, esp

; 398  : 	if( !pOwner )

  00003	83 7d 08 00	 cmp	 DWORD PTR _pOwner$[ebp], 0
  00007	74 11		 je	 SHORT $LN2@EndCameraB

; 399  : 		return;
; 400  : 
; 401  : 	pOwner->RemoveBuff( m_szCameraBuff );

  00009	81 c1 98 09 00
	00		 add	 ecx, 2456		; 00000998H
  0000f	6a 01		 push	 1
  00011	51		 push	 ecx
  00012	8b 4d 08	 mov	 ecx, DWORD PTR _pOwner$[ebp]
  00015	e8 00 00 00 00	 call	 ?RemoveBuff@ioBaseChar@@QAE_NABVioHashString@@_N@Z ; ioBaseChar::RemoveBuff
$LN2@EndCameraB:

; 402  : }

  0001a	5d		 pop	 ebp
  0001b	c2 04 00	 ret	 4
?EndCameraBuff@ioHelipCopterAttachBuff@@IAEXPAVioBaseChar@@@Z ENDP ; ioHelipCopterAttachBuff::EndCameraBuff
_TEXT	ENDS
PUBLIC	?SetCameraEvent@ioHelipCopterAttachBuff@@IAEXPAVioBaseChar@@@Z ; ioHelipCopterAttachBuff::SetCameraEvent
EXTRN	?CreateCE@ioCameraEventManager@@QAEPAVioCameraEvent@@KPAVioPlayStage@@@Z:PROC ; ioCameraEventManager::CreateCE
EXTRN	?GetSingleton@ioCameraEventManager@@SAAAV1@XZ:PROC ; ioCameraEventManager::GetSingleton
; Function compile flags: /Ogsp
;	COMDAT ?SetCameraEvent@ioHelipCopterAttachBuff@@IAEXPAVioBaseChar@@@Z
_TEXT	SEGMENT
_pOwner$ = 8						; size = 4
?SetCameraEvent@ioHelipCopterAttachBuff@@IAEXPAVioBaseChar@@@Z PROC ; ioHelipCopterAttachBuff::SetCameraEvent, COMDAT
; _this$ = ecx

; 405  : {

  00000	55		 push	 ebp
  00001	8b ec		 mov	 ebp, esp

; 406  : 	if ( !pOwner)

  00003	8b 45 08	 mov	 eax, DWORD PTR _pOwner$[ebp]
  00006	85 c0		 test	 eax, eax
  00008	74 1d		 je	 SHORT $LN3@SetCameraE

; 407  : 		return;
; 408  : 
; 409  : 	ioPlayStage *pStage = pOwner->GetCreator();

  0000a	8b 80 44 03 00
	00		 mov	 eax, DWORD PTR [eax+836]

; 410  : 	if ( !pStage )

  00010	85 c0		 test	 eax, eax
  00012	74 13		 je	 SHORT $LN3@SetCameraE

; 411  : 		return;
; 412  : 
; 413  : 	g_CameraEventMgr.CreateCE( m_dwCameraEvent, pStage );

  00014	50		 push	 eax
  00015	ff b1 94 09 00
	00		 push	 DWORD PTR [ecx+2452]
  0001b	e8 00 00 00 00	 call	 ?GetSingleton@ioCameraEventManager@@SAAAV1@XZ ; ioCameraEventManager::GetSingleton
  00020	8b c8		 mov	 ecx, eax
  00022	e8 00 00 00 00	 call	 ?CreateCE@ioCameraEventManager@@QAEPAVioCameraEvent@@KPAVioPlayStage@@@Z ; ioCameraEventManager::CreateCE
$LN3@SetCameraE:

; 414  : }

  00027	5d		 pop	 ebp
  00028	c2 04 00	 ret	 4
?SetCameraEvent@ioHelipCopterAttachBuff@@IAEXPAVioBaseChar@@@Z ENDP ; ioHelipCopterAttachBuff::SetCameraEvent
_TEXT	ENDS
PUBLIC	?CheckCreatorState@ioHelipCopterAttachBuff@@IAE_NXZ ; ioHelipCopterAttachBuff::CheckCreatorState
EXTRN	?GetCreator@ioBuff@@QAEPAVioBaseChar@@XZ:PROC	; ioBuff::GetCreator
; Function compile flags: /Ogsp
;	COMDAT ?CheckCreatorState@ioHelipCopterAttachBuff@@IAE_NXZ
_TEXT	SEGMENT
?CheckCreatorState@ioHelipCopterAttachBuff@@IAE_NXZ PROC ; ioHelipCopterAttachBuff::CheckCreatorState, COMDAT
; _this$ = ecx

; 569  : {

  00000	56		 push	 esi
  00001	8b f1		 mov	 esi, ecx

; 570  : 	ioBaseChar *pCreator = GetCreator();

  00003	e8 00 00 00 00	 call	 ?GetCreator@ioBuff@@QAEPAVioBaseChar@@XZ ; ioBuff::GetCreator

; 571  : 	if ( !pCreator )

  00008	85 c0		 test	 eax, eax
  0000a	75 04		 jne	 SHORT $LN2@CheckCreat

; 572  : 		return false;

  0000c	32 c0		 xor	 al, al
  0000e	5e		 pop	 esi

; 575  : 		return false;
; 576  : 
; 577  : 	return true;
; 578  : }

  0000f	c3		 ret	 0
$LN2@CheckCreat:

; 573  : 
; 574  : 	if ( pCreator->GetState() != m_CheckCreatorState )

  00010	8a 80 10 03 00
	00		 mov	 al, BYTE PTR [eax+784]
  00016	3a 86 60 0a 00
	00		 cmp	 al, BYTE PTR [esi+2656]
  0001c	5e		 pop	 esi
  0001d	0f 94 c0	 sete	 al

; 575  : 		return false;
; 576  : 
; 577  : 	return true;
; 578  : }

  00020	c3		 ret	 0
?CheckCreatorState@ioHelipCopterAttachBuff@@IAE_NXZ ENDP ; ioHelipCopterAttachBuff::CheckCreatorState
_TEXT	ENDS
PUBLIC	?CheckEnableUseSkill@ioHelipCopterAttachBuff@@QAE_NH@Z ; ioHelipCopterAttachBuff::CheckEnableUseSkill
; Function compile flags: /Ogsp
;	COMDAT ?CheckEnableUseSkill@ioHelipCopterAttachBuff@@QAE_NH@Z
_TEXT	SEGMENT
_iSlot$ = 8						; size = 4
?CheckEnableUseSkill@ioHelipCopterAttachBuff@@QAE_NH@Z PROC ; ioHelipCopterAttachBuff::CheckEnableUseSkill, COMDAT
; _this$ = ecx

; 606  : {

  00000	55		 push	 ebp
  00001	8b ec		 mov	 ebp, esp

; 607  : 	switch( iSlot )

  00003	8b 45 08	 mov	 eax, DWORD PTR _iSlot$[ebp]
  00006	33 d2		 xor	 edx, edx
  00008	2b c2		 sub	 eax, edx
  0000a	74 21		 je	 SHORT $LN8@CheckEnabl
  0000c	48		 dec	 eax
  0000d	74 16		 je	 SHORT $LN6@CheckEnabl
  0000f	48		 dec	 eax
  00010	74 0b		 je	 SHORT $LN4@CheckEnabl
  00012	48		 dec	 eax
  00013	75 24		 jne	 SHORT $LN7@CheckEnabl

; 620  : 		break;
; 621  : 	case ES_CLOAK:
; 622  : 		if( m_bEnableCloakSkill )

  00015	38 91 ab 09 00
	00		 cmp	 BYTE PTR [ecx+2475], dl

; 623  : 			return true;

  0001b	eb 16		 jmp	 SHORT $LN13@CheckEnabl
$LN4@CheckEnabl:

; 616  : 		break;
; 617  : 	case ES_HELMET:
; 618  : 		if( m_bEnableHelmetSkill )

  0001d	38 91 aa 09 00
	00		 cmp	 BYTE PTR [ecx+2474], dl

; 619  : 			return true;

  00023	eb 0e		 jmp	 SHORT $LN13@CheckEnabl
$LN6@CheckEnabl:

; 612  : 		break;
; 613  : 	case ES_ARMOR:
; 614  : 		if( m_bEnableArmorSkill )

  00025	38 91 a9 09 00
	00		 cmp	 BYTE PTR [ecx+2473], dl

; 615  : 			return true;

  0002b	eb 06		 jmp	 SHORT $LN13@CheckEnabl
$LN8@CheckEnabl:

; 608  : 	{
; 609  : 	case ES_WEAPON:
; 610  : 		if( m_bEnableWeaponSkill )

  0002d	38 91 a8 09 00
	00		 cmp	 BYTE PTR [ecx+2472], dl
$LN13@CheckEnabl:
  00033	74 04		 je	 SHORT $LN7@CheckEnabl

; 611  : 			return true;

  00035	b0 01		 mov	 al, 1
  00037	eb 02		 jmp	 SHORT $LN11@CheckEnabl
$LN7@CheckEnabl:

; 624  : 		break;
; 625  : 	}
; 626  : 
; 627  : 	return false;

  00039	32 c0		 xor	 al, al
$LN11@CheckEnabl:

; 628  : }

  0003b	5d		 pop	 ebp
  0003c	c2 04 00	 ret	 4
?CheckEnableUseSkill@ioHelipCopterAttachBuff@@QAE_NH@Z ENDP ; ioHelipCopterAttachBuff::CheckEnableUseSkill
_TEXT	ENDS
PUBLIC	?CreateMagicCircle@ioHelipCopterAttachBuff@@IAEXPAVioBaseChar@@@Z ; ioHelipCopterAttachBuff::CreateMagicCircle
EXTRN	?CheckMagicCircle@ioBaseGUISupport@@QBE_NXZ:PROC ; ioBaseGUISupport::CheckMagicCircle
;	COMDAT xdata$x
xdata$x	SEGMENT
__unwindtable$?CreateMagicCircle@ioHelipCopterAttachBuff@@IAEXPAVioBaseChar@@@Z DD 0ffffffffH
	DD	FLAT:__unwindfunclet$?CreateMagicCircle@ioHelipCopterAttachBuff@@IAEXPAVioBaseChar@@@Z$0
__ehfuncinfo$?CreateMagicCircle@ioHelipCopterAttachBuff@@IAEXPAVioBaseChar@@@Z DD 019930522H
	DD	01H
	DD	FLAT:__unwindtable$?CreateMagicCircle@ioHelipCopterAttachBuff@@IAEXPAVioBaseChar@@@Z
	DD	2 DUP(00H)
	DD	2 DUP(00H)
	DD	00H
	DD	01H
; Function compile flags: /Ogsp
xdata$x	ENDS
;	COMDAT ?CreateMagicCircle@ioHelipCopterAttachBuff@@IAEXPAVioBaseChar@@@Z
_TEXT	SEGMENT
$T554385 = -28						; size = 16
__$EHRec$ = -12						; size = 12
_pOwner$ = 8						; size = 4
?CreateMagicCircle@ioHelipCopterAttachBuff@@IAEXPAVioBaseChar@@@Z PROC ; ioHelipCopterAttachBuff::CreateMagicCircle, COMDAT
; _this$ = ecx

; 633  : {

  00000	6a 10		 push	 16			; 00000010H
  00002	b8 00 00 00 00	 mov	 eax, __ehhandler$?CreateMagicCircle@ioHelipCopterAttachBuff@@IAEXPAVioBaseChar@@@Z
  00007	e8 00 00 00 00	 call	 __EH_prolog3
  0000c	8b f1		 mov	 esi, ecx

; 634  : 	if ( !pOwner )

  0000e	8b 45 08	 mov	 eax, DWORD PTR _pOwner$[ebp]
  00011	85 c0		 test	 eax, eax
  00013	74 51		 je	 SHORT $LN1@CreateMagi

; 635  : 		return;
; 636  : 
; 637  : 	if( !pOwner->CheckMagicCircle() )

  00015	8d b8 cc 01 00
	00		 lea	 edi, DWORD PTR [eax+460]
  0001b	8b cf		 mov	 ecx, edi
  0001d	e8 00 00 00 00	 call	 ?CheckMagicCircle@ioBaseGUISupport@@QBE_NXZ ; ioBaseGUISupport::CheckMagicCircle
  00022	84 c0		 test	 al, al
  00024	75 40		 jne	 SHORT $LN1@CreateMagi

; 638  : 	{
; 639  : 		pOwner->CreateMagicCircle( m_ReadyCircle, m_ReadyCircle, "", m_fCircleOffSet );

  00026	68 00 00 00 00	 push	 OFFSET ??_C@_00CNPNBAHC@?$AA@
  0002b	8d 4d e4	 lea	 ecx, DWORD PTR $T554385[ebp]
  0002e	ff 15 00 00 00
	00		 call	 DWORD PTR __imp_??0ioHashString@@QAE@PBD@Z
  00034	f3 0f 10 86 b8
	09 00 00	 movss	 xmm0, DWORD PTR [esi+2488]
  0003c	8b 17		 mov	 edx, DWORD PTR [edi]
  0003e	83 65 fc 00	 and	 DWORD PTR __$EHRec$[ebp+8], 0
  00042	51		 push	 ecx
  00043	f3 0f 11 04 24	 movss	 DWORD PTR [esp], xmm0
  00048	8d 4d e4	 lea	 ecx, DWORD PTR $T554385[ebp]
  0004b	51		 push	 ecx
  0004c	8d 86 bc 09 00
	00		 lea	 eax, DWORD PTR [esi+2492]
  00052	50		 push	 eax
  00053	50		 push	 eax
  00054	8b cf		 mov	 ecx, edi
  00056	ff 52 04	 call	 DWORD PTR [edx+4]
  00059	83 4d fc ff	 or	 DWORD PTR __$EHRec$[ebp+8], -1
  0005d	8d 4d e4	 lea	 ecx, DWORD PTR $T554385[ebp]
  00060	ff 15 00 00 00
	00		 call	 DWORD PTR __imp_??1ioHashString@@QAE@XZ
$LN1@CreateMagi:

; 640  : 	}
; 641  : }

  00066	e8 00 00 00 00	 call	 __EH_epilog3
  0006b	c2 04 00	 ret	 4
_TEXT	ENDS
;	COMDAT text$x
text$x	SEGMENT
__unwindfunclet$?CreateMagicCircle@ioHelipCopterAttachBuff@@IAEXPAVioBaseChar@@@Z$0:
  00000	8d 4d e4	 lea	 ecx, DWORD PTR $T554385[ebp]
  00003	ff 25 00 00 00
	00		 jmp	 DWORD PTR __imp_??1ioHashString@@QAE@XZ
__ehhandler$?CreateMagicCircle@ioHelipCopterAttachBuff@@IAEXPAVioBaseChar@@@Z:
  00009	8b 54 24 08	 mov	 edx, DWORD PTR [esp+8]
  0000d	8d 42 0c	 lea	 eax, DWORD PTR [edx+12]
  00010	8b 4a e0	 mov	 ecx, DWORD PTR [edx-32]
  00013	33 c8		 xor	 ecx, eax
  00015	e8 00 00 00 00	 call	 @__security_check_cookie@4
  0001a	b8 00 00 00 00	 mov	 eax, OFFSET __ehfuncinfo$?CreateMagicCircle@ioHelipCopterAttachBuff@@IAEXPAVioBaseChar@@@Z
  0001f	e9 00 00 00 00	 jmp	 ___CxxFrameHandler3
text$x	ENDS
?CreateMagicCircle@ioHelipCopterAttachBuff@@IAEXPAVioBaseChar@@@Z ENDP ; ioHelipCopterAttachBuff::CreateMagicCircle
PUBLIC	__$ArrayPad$
PUBLIC	?UpdateMagicCircle@ioHelipCopterAttachBuff@@IAEXPAVioBaseChar@@@Z ; ioHelipCopterAttachBuff::UpdateMagicCircle
EXTRN	?GetMagicCirclePos@ioBaseGUISupport@@QBE?AUD3DXVECTOR3@@M_N@Z:PROC ; ioBaseGUISupport::GetMagicCirclePos
EXTRN	?UpdateMagicCirclePosAll@ioBaseGUISupport@@QAEXMMM_N@Z:PROC ; ioBaseGUISupport::UpdateMagicCirclePosAll
EXTRN	?CheckChangeDirectionForMagicCircle@ioBaseGUISupport@@QAE_NXZ:PROC ; ioBaseGUISupport::CheckChangeDirectionForMagicCircle
EXTRN	___security_cookie:DWORD
; Function compile flags: /Ogsp
;	COMDAT ?UpdateMagicCircle@ioHelipCopterAttachBuff@@IAEXPAVioBaseChar@@@Z
_TEXT	SEGMENT
$T549294 = -16						; size = 12
__$ArrayPad$ = -4					; size = 4
_pOwner$ = 8						; size = 4
?UpdateMagicCircle@ioHelipCopterAttachBuff@@IAEXPAVioBaseChar@@@Z PROC ; ioHelipCopterAttachBuff::UpdateMagicCircle, COMDAT
; _this$ = ecx

; 645  : {

  00000	55		 push	 ebp
  00001	8b ec		 mov	 ebp, esp
  00003	83 ec 10	 sub	 esp, 16			; 00000010H
  00006	a1 00 00 00 00	 mov	 eax, DWORD PTR ___security_cookie
  0000b	33 c5		 xor	 eax, ebp
  0000d	89 45 fc	 mov	 DWORD PTR __$ArrayPad$[ebp], eax
  00010	8b 45 08	 mov	 eax, DWORD PTR _pOwner$[ebp]
  00013	57		 push	 edi
  00014	8b f9		 mov	 edi, ecx

; 646  : 	if ( !pOwner )

  00016	85 c0		 test	 eax, eax
  00018	74 75		 je	 SHORT $LN1@UpdateMagi

; 647  : 		return;
; 648  : 
; 649  : 	if( pOwner->CheckMagicCircle() )

  0001a	56		 push	 esi
  0001b	8d b0 cc 01 00
	00		 lea	 esi, DWORD PTR [eax+460]
  00021	8b ce		 mov	 ecx, esi
  00023	e8 00 00 00 00	 call	 ?CheckMagicCircle@ioBaseGUISupport@@QBE_NXZ ; ioBaseGUISupport::CheckMagicCircle
  00028	84 c0		 test	 al, al
  0002a	74 62		 je	 SHORT $LN5@UpdateMagi

; 650  : 	{
; 651  : 		//뱡향 체크
; 652  : 		pOwner->CheckChangeDirectionForMagicCircle();

  0002c	8b ce		 mov	 ecx, esi
  0002e	e8 00 00 00 00	 call	 ?CheckChangeDirectionForMagicCircle@ioBaseGUISupport@@QAE_NXZ ; ioBaseGUISupport::CheckChangeDirectionForMagicCircle

; 653  : 		//위치 갱신
; 654  : 		pOwner->UpdateMagicCirclePosAll( m_fCircleMoveSpeed, m_fCircleRange, m_fCircleHeightGap, false );

  00033	f3 0f 10 87 b4
	09 00 00	 movss	 xmm0, DWORD PTR [edi+2484]
  0003b	6a 00		 push	 0
  0003d	83 ec 0c	 sub	 esp, 12			; 0000000cH
  00040	f3 0f 11 44 24
	08		 movss	 DWORD PTR [esp+8], xmm0
  00046	f3 0f 10 87 ac
	09 00 00	 movss	 xmm0, DWORD PTR [edi+2476]
  0004e	f3 0f 11 44 24
	04		 movss	 DWORD PTR [esp+4], xmm0
  00054	f3 0f 10 87 b0
	09 00 00	 movss	 xmm0, DWORD PTR [edi+2480]
  0005c	8b ce		 mov	 ecx, esi
  0005e	f3 0f 11 04 24	 movss	 DWORD PTR [esp], xmm0
  00063	e8 00 00 00 00	 call	 ?UpdateMagicCirclePosAll@ioBaseGUISupport@@QAEXMMM_N@Z ; ioBaseGUISupport::UpdateMagicCirclePosAll

; 655  : 
; 656  : 		m_vCirclePos = pOwner->GetMagicCirclePos( m_fCircleOffSet, false );

  00068	f3 0f 10 87 b8
	09 00 00	 movss	 xmm0, DWORD PTR [edi+2488]
  00070	6a 00		 push	 0
  00072	51		 push	 ecx
  00073	8d 45 f0	 lea	 eax, DWORD PTR $T549294[ebp]
  00076	f3 0f 11 04 24	 movss	 DWORD PTR [esp], xmm0
  0007b	50		 push	 eax
  0007c	8b ce		 mov	 ecx, esi
  0007e	e8 00 00 00 00	 call	 ?GetMagicCirclePos@ioBaseGUISupport@@QBE?AUD3DXVECTOR3@@M_N@Z ; ioBaseGUISupport::GetMagicCirclePos
  00083	81 c7 70 09 00
	00		 add	 edi, 2416		; 00000970H
  00089	8b f0		 mov	 esi, eax
  0008b	a5		 movsd
  0008c	a5		 movsd
  0008d	a5		 movsd
$LN5@UpdateMagi:
  0008e	5e		 pop	 esi
$LN1@UpdateMagi:

; 657  : 	}
; 658  : }

  0008f	8b 4d fc	 mov	 ecx, DWORD PTR __$ArrayPad$[ebp]
  00092	33 cd		 xor	 ecx, ebp
  00094	5f		 pop	 edi
  00095	e8 00 00 00 00	 call	 @__security_check_cookie@4
  0009a	c9		 leave
  0009b	c2 04 00	 ret	 4
?UpdateMagicCircle@ioHelipCopterAttachBuff@@IAEXPAVioBaseChar@@@Z ENDP ; ioHelipCopterAttachBuff::UpdateMagicCircle
_TEXT	ENDS
PUBLIC	__real@408f400000000000
PUBLIC	__mask@@AbsDouble@
PUBLIC	__real@3f847ae140000000
PUBLIC	__real@3f847ae147ae147b
PUBLIC	__real@0000000000000000
PUBLIC	__mask@@NegFloat@
PUBLIC	?GetFlightDuration@ioHelipCopterAttachBuff@@IAEMMMM@Z ; ioHelipCopterAttachBuff::GetFlightDuration
;	COMDAT __real@408f400000000000
; File c:\program files (x86)\microsoft visual studio 10.0\vc\include\math.h
CONST	SEGMENT
__real@408f400000000000 DQ 0408f400000000000r	; 1000
CONST	ENDS
;	COMDAT __mask@@AbsDouble@
CONST	SEGMENT
__mask@@AbsDouble@ DB 0ffH, 0ffH, 0ffH, 0ffH, 0ffH, 0ffH, 0ffH, 07fH, 0ffH
	DB	0ffH, 0ffH, 0ffH, 0ffH, 0ffH, 0ffH, 07fH
CONST	ENDS
;	COMDAT __real@3f847ae140000000
CONST	SEGMENT
__real@3f847ae140000000 DQ 03f847ae140000000r	; 0.01
CONST	ENDS
;	COMDAT __real@3f847ae147ae147b
CONST	SEGMENT
__real@3f847ae147ae147b DQ 03f847ae147ae147br	; 0.01
CONST	ENDS
;	COMDAT __real@0000000000000000
CONST	SEGMENT
__real@0000000000000000 DQ 00000000000000000r	; 0
CONST	ENDS
;	COMDAT __mask@@NegFloat@
CONST	SEGMENT
__mask@@NegFloat@ DB 00H, 00H, 00H, 080H, 00H, 00H, 00H, 080H, 00H, 00H, 00H
	DB	080H, 00H, 00H, 00H, 080H
; Function compile flags: /Ogsp
; File d:\lost saga for developer\youtube\tutorial\source\src\lsclient\iohelipcopterattachbuff.cpp
CONST	ENDS
;	COMDAT ?GetFlightDuration@ioHelipCopterAttachBuff@@IAEMMMM@Z
_TEXT	SEGMENT
_fTopTime$ = -8						; size = 4
_fGapTime$ = -4						; size = 4
_fCurGravity$ = 8					; size = 4
_fCurWeaponFloatPower$ = 12				; size = 4
tv216 = 16						; size = 4
tv213 = 16						; size = 4
_fGapHeight$ = 16					; size = 4
?GetFlightDuration@ioHelipCopterAttachBuff@@IAEMMMM@Z PROC ; ioHelipCopterAttachBuff::GetFlightDuration, COMDAT
; _this$ = ecx

; 968  : {

  00000	55		 push	 ebp
  00001	8b ec		 mov	 ebp, esp
  00003	51		 push	 ecx
  00004	51		 push	 ecx

; 969  : 	float fTopTime, fGapTime;
; 970  : 	fTopTime = fGapTime = 0.0f;

  00005	0f 57 c0	 xorps	 xmm0, xmm0

; 971  : 
; 972  : 	float fNewGravity = fCurGravity;
; 973  : 	if( fNewGravity > 0.0f )

  00008	f3 0f 10 55 08	 movss	 xmm2, DWORD PTR _fCurGravity$[ebp]
  0000d	0f 2f d0	 comiss	 xmm2, xmm0
  00010	f3 0f 10 4d 0c	 movss	 xmm1, DWORD PTR _fCurWeaponFloatPower$[ebp]
  00015	f3 0f 11 45 fc	 movss	 DWORD PTR _fGapTime$[ebp], xmm0
  0001a	f3 0f 11 45 f8	 movss	 DWORD PTR _fTopTime$[ebp], xmm0
  0001f	76 13		 jbe	 SHORT $LN3@GetFlightD

; 974  : 	{
; 975  : 		fTopTime = fCurWeaponFloatPower / fNewGravity;

  00021	0f 5a d9	 cvtps2pd xmm3, xmm1
  00024	0f 5a e2	 cvtps2pd xmm4, xmm2
  00027	f2 0f 5e dc	 divsd	 xmm3, xmm4
  0002b	66 0f 5a db	 cvtpd2ps xmm3, xmm3
  0002f	f3 0f 11 5d f8	 movss	 DWORD PTR _fTopTime$[ebp], xmm3
$LN3@GetFlightD:

; 976  : 	}
; 977  : 
; 978  : 	float fCurFloatPower = -fCurWeaponFloatPower;

  00034	0f 57 0d 00 00
	00 00		 xorps	 xmm1, DWORD PTR __mask@@NegFloat@
  0003b	0f 28 d9	 movaps	 xmm3, xmm1

; 979  : 	float fCurGapHeight = 0.0f;
; 980  : 	while( fCurGapHeight < fGapHeight )

  0003e	f3 0f 10 4d 10	 movss	 xmm1, DWORD PTR _fGapHeight$[ebp]
  00043	0f 5a c9	 cvtps2pd xmm1, xmm1
  00046	66 0f 2f 0d 00
	00 00 00	 comisd	 xmm1, QWORD PTR __real@0000000000000000
  0004e	76 76		 jbe	 SHORT $LN1@GetFlightD
  00050	f2 0f 10 0d 00
	00 00 00	 movsd	 xmm1, QWORD PTR __real@3f847ae147ae147b
  00058	0f 5a d2	 cvtps2pd xmm2, xmm2
  0005b	f2 0f 59 d1	 mulsd	 xmm2, xmm1
$LL2@GetFlightD:

; 981  : 	{
; 982  : 		fCurGapHeight += fabs(fCurFloatPower * 0.01f);

  0005f	0f 57 e4	 xorps	 xmm4, xmm4
  00062	f3 0f 5a e3	 cvtss2sd xmm4, xmm3
  00066	f2 0f 59 25 00
	00 00 00	 mulsd	 xmm4, QWORD PTR __real@3f847ae140000000
  0006e	f3 0f 10 6d 10	 movss	 xmm5, DWORD PTR _fGapHeight$[ebp]
  00073	66 0f 5a e4	 cvtpd2ps xmm4, xmm4
  00077	f3 0f 5a e4	 cvtss2sd xmm4, xmm4
  0007b	66 0f 54 25 00
	00 00 00	 andpd	 xmm4, QWORD PTR __mask@@AbsDouble@
  00083	f2 0f 5a e4	 cvtsd2ss xmm4, xmm4
  00087	f3 0f 5a e4	 cvtss2sd xmm4, xmm4
  0008b	0f 5a c0	 cvtps2pd xmm0, xmm0
  0008e	f2 0f 58 e0	 addsd	 xmm4, xmm0
  00092	0f 57 c0	 xorps	 xmm0, xmm0
  00095	f2 0f 5a c4	 cvtsd2ss xmm0, xmm4

; 983  : 		fCurFloatPower -= fNewGravity * 0.01;
; 984  : 		fGapTime += 0.01;

  00099	f3 0f 10 65 fc	 movss	 xmm4, DWORD PTR _fGapTime$[ebp]
  0009e	0f 5a e4	 cvtps2pd xmm4, xmm4
  000a1	f2 0f 58 e1	 addsd	 xmm4, xmm1
  000a5	f2 0f 5a e4	 cvtsd2ss xmm4, xmm4
  000a9	f3 0f 5a db	 cvtss2sd xmm3, xmm3
  000ad	f3 0f 11 65 fc	 movss	 DWORD PTR _fGapTime$[ebp], xmm4
  000b2	0f 5a ed	 cvtps2pd xmm5, xmm5
  000b5	f2 0f 5c da	 subsd	 xmm3, xmm2
  000b9	f2 0f 5a db	 cvtsd2ss xmm3, xmm3
  000bd	0f 5a e0	 cvtps2pd xmm4, xmm0
  000c0	66 0f 2f ec	 comisd	 xmm5, xmm4
  000c4	77 99		 ja	 SHORT $LL2@GetFlightD
$LN1@GetFlightD:

; 985  : 	}
; 986  : 
; 987  : 	float fResult = 2 * fTopTime * 1000.0f;
; 988  : 	fResult += fGapTime * 1000.0f;
; 989  : 	return fResult;

  000c6	d9 45 f8	 fld	 DWORD PTR _fTopTime$[ebp]
  000c9	dc c0		 fadd	 ST(0), ST(0)
  000cb	dd 05 00 00 00
	00		 fld	 QWORD PTR __real@408f400000000000
  000d1	dc c9		 fmul	 ST(1), ST(0)
  000d3	d9 c9		 fxch	 ST(1)
  000d5	d9 5d 10	 fstp	 DWORD PTR tv216[ebp]
  000d8	d9 45 10	 fld	 DWORD PTR tv216[ebp]
  000db	d9 45 fc	 fld	 DWORD PTR _fGapTime$[ebp]
  000de	de ca		 fmulp	 ST(2), ST(0)
  000e0	de c1		 faddp	 ST(1), ST(0)
  000e2	d9 5d 10	 fstp	 DWORD PTR tv213[ebp]
  000e5	d9 45 10	 fld	 DWORD PTR tv213[ebp]

; 990  : }

  000e8	c9		 leave
  000e9	c2 0c 00	 ret	 12			; 0000000cH
?GetFlightDuration@ioHelipCopterAttachBuff@@IAEMMMM@Z ENDP ; ioHelipCopterAttachBuff::GetFlightDuration
_TEXT	ENDS
PUBLIC	__real@3fc70a3d80000000
PUBLIC	__real@4059000000000000
PUBLIC	?GetTargetTime@ioHelipCopterAttachBuff@@IAEMMMAAM@Z ; ioHelipCopterAttachBuff::GetTargetTime
;	COMDAT __real@3fc70a3d80000000
; File c:\program files (x86)\microsoft visual studio 10.0\vc\include\math.h
CONST	SEGMENT
__real@3fc70a3d80000000 DQ 03fc70a3d80000000r	; 0.18
CONST	ENDS
;	COMDAT __real@4059000000000000
CONST	SEGMENT
__real@4059000000000000 DQ 04059000000000000r	; 100
; Function compile flags: /Ogsp
; File d:\lost saga for developer\youtube\tutorial\source\src\lsclient\iohelipcopterattachbuff.cpp
CONST	ENDS
;	COMDAT ?GetTargetTime@ioHelipCopterAttachBuff@@IAEMMMAAM@Z
_TEXT	SEGMENT
_fCurGravity$ = 8					; size = 4
tv164 = 12						; size = 4
tv161 = 12						; size = 4
_fTopTime$ = 12						; size = 4
_fGapHeight$ = 12					; size = 4
_fFloatPower$ = 16					; size = 4
?GetTargetTime@ioHelipCopterAttachBuff@@IAEMMMAAM@Z PROC ; ioHelipCopterAttachBuff::GetTargetTime, COMDAT
; _this$ = ecx

; 993  : {

  00000	55		 push	 ebp
  00001	8b ec		 mov	 ebp, esp

; 994  : 	float fGapTime = 0.0f;
; 995  : 	float fCurFloatPower = 0;
; 996  : 	float fCurGapHeight = 0.0f;
; 997  : 
; 998  : 	float fRevisionH = 100.0f;
; 999  : 	float fTopHeight = fGapHeight + fRevisionH;

  00003	f3 0f 10 4d 0c	 movss	 xmm1, DWORD PTR _fGapHeight$[ebp]
  00008	0f 57 c0	 xorps	 xmm0, xmm0

; 1010 : 	} while( fCurGapHeight < fTopHeight );

  0000b	f2 0f 10 15 00
	00 00 00	 movsd	 xmm2, QWORD PTR __real@3f847ae147ae147b
  00013	0f 5a c9	 cvtps2pd xmm1, xmm1
  00016	f2 0f 58 0d 00
	00 00 00	 addsd	 xmm1, QWORD PTR __real@4059000000000000
  0001e	0f 57 ed	 xorps	 xmm5, xmm5
  00021	66 0f 5a e9	 cvtpd2ps xmm5, xmm1
  00025	f3 0f 10 4d 08	 movss	 xmm1, DWORD PTR _fCurGravity$[ebp]
  0002a	0f 5a c9	 cvtps2pd xmm1, xmm1
  0002d	0f 28 d8	 movaps	 xmm3, xmm0
  00030	0f 28 e0	 movaps	 xmm4, xmm0
  00033	f2 0f 59 ca	 mulsd	 xmm1, xmm2
$LL3@GetTargetT:

; 1000 : 
; 1001 : 	// Top Check
; 1002 : 	float fTopTime = 0.0f;
; 1003 : 	do
; 1004 : 	{
; 1005 : 		fTopTime = fGapTime;
; 1006 : 
; 1007 : 		fCurGapHeight += fabs(fCurFloatPower * 0.01f);

  00037	0f 57 f6	 xorps	 xmm6, xmm6
  0003a	f3 0f 5a f4	 cvtss2sd xmm6, xmm4
  0003e	f2 0f 59 35 00
	00 00 00	 mulsd	 xmm6, QWORD PTR __real@3f847ae140000000
  00046	66 0f 5a f6	 cvtpd2ps xmm6, xmm6
  0004a	f3 0f 5a f6	 cvtss2sd xmm6, xmm6
  0004e	66 0f 54 35 00
	00 00 00	 andpd	 xmm6, QWORD PTR __mask@@AbsDouble@
  00056	f2 0f 5a f6	 cvtsd2ss xmm6, xmm6
  0005a	0f 5a c0	 cvtps2pd xmm0, xmm0
  0005d	f3 0f 5a f6	 cvtss2sd xmm6, xmm6
  00061	f2 0f 58 f0	 addsd	 xmm6, xmm0
  00065	f3 0f 11 5d 0c	 movss	 DWORD PTR _fTopTime$[ebp], xmm3
  0006a	0f 57 c0	 xorps	 xmm0, xmm0
  0006d	f2 0f 5a c6	 cvtsd2ss xmm0, xmm6

; 1008 : 		fCurFloatPower += fCurGravity * 0.01;

  00071	f3 0f 5a e4	 cvtss2sd xmm4, xmm4

; 1009 : 		fGapTime += 0.01;

  00075	f3 0f 5a db	 cvtss2sd xmm3, xmm3

; 1010 : 	} while( fCurGapHeight < fTopHeight );

  00079	0f 57 ff	 xorps	 xmm7, xmm7
  0007c	0f 5a f0	 cvtps2pd xmm6, xmm0
  0007f	f3 0f 5a fd	 cvtss2sd xmm7, xmm5
  00083	66 0f 2f fe	 comisd	 xmm7, xmm6
  00087	f2 0f 58 e1	 addsd	 xmm4, xmm1
  0008b	f2 0f 58 da	 addsd	 xmm3, xmm2
  0008f	f2 0f 5a e4	 cvtsd2ss xmm4, xmm4
  00093	f2 0f 5a db	 cvtsd2ss xmm3, xmm3
  00097	77 9e		 ja	 SHORT $LL3@GetTargetT

; 1011 : 
; 1012 : 	fFloatPower = fCurFloatPower;
; 1013 : 
; 1014 : 
; 1015 : 	// Target Check
; 1016 : 	fGapTime = 0.0f;
; 1017 : 	fCurFloatPower = 0;
; 1018 : 	fCurGapHeight = 0.0f;
; 1019 : 
; 1020 : 	float fTargetTime = 0.18f;
; 1021 : 
; 1022 : 	fTargetTime += fTopTime;
; 1023 : 	fTargetTime *= 1000.0f;
; 1024 : 	return fTargetTime;

  00099	d9 45 0c	 fld	 DWORD PTR _fTopTime$[ebp]
  0009c	8b 45 10	 mov	 eax, DWORD PTR _fFloatPower$[ebp]
  0009f	dc 05 00 00 00
	00		 fadd	 QWORD PTR __real@3fc70a3d80000000
  000a5	f3 0f 11 20	 movss	 DWORD PTR [eax], xmm4
  000a9	d9 5d 0c	 fstp	 DWORD PTR tv164[ebp]
  000ac	d9 45 0c	 fld	 DWORD PTR tv164[ebp]
  000af	dc 0d 00 00 00
	00		 fmul	 QWORD PTR __real@408f400000000000
  000b5	d9 5d 0c	 fstp	 DWORD PTR tv161[ebp]
  000b8	d9 45 0c	 fld	 DWORD PTR tv161[ebp]

; 1025 : }

  000bb	5d		 pop	 ebp
  000bc	c2 0c 00	 ret	 12			; 0000000cH
?GetTargetTime@ioHelipCopterAttachBuff@@IAEMMMAAM@Z ENDP ; ioHelipCopterAttachBuff::GetTargetTime
_TEXT	ENDS
PUBLIC	??_7ioHelipCopterAttachSpecialState@@6B@	; ioHelipCopterAttachSpecialState::`vftable'
PUBLIC	??0ioHelipCopterAttachSpecialState@@QAE@XZ	; ioHelipCopterAttachSpecialState::ioHelipCopterAttachSpecialState
PUBLIC	??_R4ioHelipCopterAttachSpecialState@@6B@	; ioHelipCopterAttachSpecialState::`RTTI Complete Object Locator'
PUBLIC	??_R0?AVioHelipCopterAttachSpecialState@@@8	; ioHelipCopterAttachSpecialState `RTTI Type Descriptor'
PUBLIC	??_R3ioHelipCopterAttachSpecialState@@8		; ioHelipCopterAttachSpecialState::`RTTI Class Hierarchy Descriptor'
PUBLIC	??_R2ioHelipCopterAttachSpecialState@@8		; ioHelipCopterAttachSpecialState::`RTTI Base Class Array'
PUBLIC	??_R1A@?0A@EA@ioHelipCopterAttachSpecialState@@8 ; ioHelipCopterAttachSpecialState::`RTTI Base Class Descriptor at (0,-1,0,64)'
PUBLIC	??_R1A@?0A@EA@ioSpecialStateBase@@8		; ioSpecialStateBase::`RTTI Base Class Descriptor at (0,-1,0,64)'
PUBLIC	??_R0?AVioSpecialStateBase@@@8			; ioSpecialStateBase `RTTI Type Descriptor'
PUBLIC	??_R3ioSpecialStateBase@@8			; ioSpecialStateBase::`RTTI Class Hierarchy Descriptor'
PUBLIC	??_R2ioSpecialStateBase@@8			; ioSpecialStateBase::`RTTI Base Class Array'
PUBLIC	?Initialize@ioHelipCopterAttachSpecialState@@UAEXPAVioBaseChar@@W4CharState@@@Z ; ioHelipCopterAttachSpecialState::Initialize
PUBLIC	?Finalize@ioHelipCopterAttachSpecialState@@UAEXPAVioBaseChar@@W4CharState@@1@Z ; ioHelipCopterAttachSpecialState::Finalize
PUBLIC	?LoadProperty@ioSpecialStateBase@@UAEXAAVioINILoader@@@Z ; ioSpecialStateBase::LoadProperty
PUBLIC	?GetStateName@ioHelipCopterAttachSpecialState@@UAEPBDXZ ; ioHelipCopterAttachSpecialState::GetStateName
PUBLIC	?GetState@ioHelipCopterAttachSpecialState@@UAE?BW4CharState@@XZ ; ioHelipCopterAttachSpecialState::GetState
PUBLIC	?GetAttackSpeedRate@ioSpecialStateBase@@UAEMPAVioBaseChar@@M@Z ; ioSpecialStateBase::GetAttackSpeedRate
PUBLIC	?CheckSpecialState@ioHelipCopterAttachSpecialState@@UAEXPAVioBaseChar@@@Z ; ioHelipCopterAttachSpecialState::CheckSpecialState
PUBLIC	?ProcessState@ioSpecialStateBase@@UAEXPAVioBaseChar@@@Z ; ioSpecialStateBase::ProcessState
PUBLIC	?ProcessMoveSpeed@ioSpecialStateBase@@UAEXPAVioBaseChar@@@Z ; ioSpecialStateBase::ProcessMoveSpeed
PUBLIC	?ProcessMove@ioHelipCopterAttachSpecialState@@UAE_NPAVioBaseChar@@MKK@Z ; ioHelipCopterAttachSpecialState::ProcessMove
PUBLIC	?IsCanNoWound@ioSpecialStateBase@@UAE_NPAVioBaseChar@@@Z ; ioSpecialStateBase::IsCanNoWound
PUBLIC	?IsCollisionAvailableWeapon@ioSpecialStateBase@@UAE_NPAVioBaseChar@@PAVioWeapon@@@Z ; ioSpecialStateBase::IsCollisionAvailableWeapon
PUBLIC	?IsEntityCollisionSkipState@ioSpecialStateBase@@UBE_NQBVioBaseChar@@PAVioGameEntity@@@Z ; ioSpecialStateBase::IsEntityCollisionSkipState
PUBLIC	?IsSendControlInfoToUser@ioSpecialStateBase@@UAE_NPAVioBaseChar@@@Z ; ioSpecialStateBase::IsSendControlInfoToUser
PUBLIC	?IsIgnoreAttackOverDelay@ioSpecialStateBase@@UAE_NXZ ; ioSpecialStateBase::IsIgnoreAttackOverDelay
PUBLIC	?IsLandingEnable@ioSpecialStateBase@@UAE_NXZ	; ioSpecialStateBase::IsLandingEnable
PUBLIC	?IsFallStateCheck@ioSpecialStateBase@@UAE_NXZ	; ioSpecialStateBase::IsFallStateCheck
PUBLIC	?IsEnableBlowWounded@ioSpecialStateBase@@UAE_NPAVioBaseChar@@@Z ; ioSpecialStateBase::IsEnableBlowWounded
PUBLIC	?IsNoDropState@ioSpecialStateBase@@UAE_NPAVioBaseChar@@@Z ; ioSpecialStateBase::IsNoDropState
PUBLIC	?IsCanChangeJumppingState@ioSpecialStateBase@@UAE_NPAVioBaseChar@@@Z ; ioSpecialStateBase::IsCanChangeJumppingState
PUBLIC	?IsEnableDashState@ioSpecialStateBase@@UAE_NPAVioBaseChar@@@Z ; ioSpecialStateBase::IsEnableDashState
PUBLIC	?IsStateEnd@ioSpecialStateBase@@UAE_NPAVioBaseChar@@@Z ; ioSpecialStateBase::IsStateEnd
PUBLIC	?IsProcessFlyMove@ioSpecialStateBase@@UAE_NXZ	; ioSpecialStateBase::IsProcessFlyMove
PUBLIC	?IsFloatingState@ioSpecialStateBase@@UBE_NQBVioBaseChar@@@Z ; ioSpecialStateBase::IsFloatingState
PUBLIC	?IsInitializeSync@ioSpecialStateBase@@UAE_NXZ	; ioSpecialStateBase::IsInitializeSync
PUBLIC	?IsJoinSync@ioSpecialStateBase@@UAE_NXZ		; ioSpecialStateBase::IsJoinSync
PUBLIC	?CheckFallStateChange@ioHelipCopterAttachSpecialState@@UAEXPAVioBaseChar@@MM_NM@Z ; ioHelipCopterAttachSpecialState::CheckFallStateChange
EXTRN	??0ioSpecialStateBase@@QAE@XZ:PROC		; ioSpecialStateBase::ioSpecialStateBase
EXTRN	?ProcessKeyInput@ioSpecialStateBase@@UAEXPAVioBaseChar@@@Z:PROC ; ioSpecialStateBase::ProcessKeyInput
EXTRN	?IsCharCollisionSkipState@ioSpecialStateBase@@UBE_NQBVioBaseChar@@KKK_N1W4TeamType@@2@Z:PROC ; ioSpecialStateBase::IsCharCollisionSkipState
EXTRN	?GetGravity@ioSpecialStateBase@@UAEXPAVioBaseChar@@AAM@Z:PROC ; ioSpecialStateBase::GetGravity
EXTRN	?FillJoinSync@ioSpecialStateBase@@UAEXAAVSP2Packet@@PAVioBaseChar@@@Z:PROC ; ioSpecialStateBase::FillJoinSync
EXTRN	?ApplyJoinSync@ioSpecialStateBase@@UAEXAAVSP2Packet@@PAVioBaseChar@@@Z:PROC ; ioSpecialStateBase::ApplyJoinSync
EXTRN	?ApplyStateSync@ioSpecialStateBase@@UAEXAAVSP2Packet@@PAVioBaseChar@@@Z:PROC ; ioSpecialStateBase::ApplyStateSync
EXTRN	??_EioHelipCopterAttachSpecialState@@UAEPAXI@Z:PROC ; ioHelipCopterAttachSpecialState::`vector deleting destructor'
;	COMDAT ??_R2ioSpecialStateBase@@8
rdata$r	SEGMENT
??_R2ioSpecialStateBase@@8 DD FLAT:??_R1A@?0A@EA@ioSpecialStateBase@@8 ; ioSpecialStateBase::`RTTI Base Class Array'
rdata$r	ENDS
;	COMDAT ??_R3ioSpecialStateBase@@8
rdata$r	SEGMENT
??_R3ioSpecialStateBase@@8 DD 00H			; ioSpecialStateBase::`RTTI Class Hierarchy Descriptor'
	DD	00H
	DD	01H
	DD	FLAT:??_R2ioSpecialStateBase@@8
rdata$r	ENDS
;	COMDAT ??_R0?AVioSpecialStateBase@@@8
_DATA	SEGMENT
??_R0?AVioSpecialStateBase@@@8 DD FLAT:??_7type_info@@6B@ ; ioSpecialStateBase `RTTI Type Descriptor'
	DD	00H
	DB	'.?AVioSpecialStateBase@@', 00H
_DATA	ENDS
;	COMDAT ??_R1A@?0A@EA@ioSpecialStateBase@@8
rdata$r	SEGMENT
??_R1A@?0A@EA@ioSpecialStateBase@@8 DD FLAT:??_R0?AVioSpecialStateBase@@@8 ; ioSpecialStateBase::`RTTI Base Class Descriptor at (0,-1,0,64)'
	DD	00H
	DD	00H
	DD	0ffffffffH
	DD	00H
	DD	040H
	DD	FLAT:??_R3ioSpecialStateBase@@8
rdata$r	ENDS
;	COMDAT ??_R1A@?0A@EA@ioHelipCopterAttachSpecialState@@8
rdata$r	SEGMENT
??_R1A@?0A@EA@ioHelipCopterAttachSpecialState@@8 DD FLAT:??_R0?AVioHelipCopterAttachSpecialState@@@8 ; ioHelipCopterAttachSpecialState::`RTTI Base Class Descriptor at (0,-1,0,64)'
	DD	01H
	DD	00H
	DD	0ffffffffH
	DD	00H
	DD	040H
	DD	FLAT:??_R3ioHelipCopterAttachSpecialState@@8
rdata$r	ENDS
;	COMDAT ??_R2ioHelipCopterAttachSpecialState@@8
rdata$r	SEGMENT
??_R2ioHelipCopterAttachSpecialState@@8 DD FLAT:??_R1A@?0A@EA@ioHelipCopterAttachSpecialState@@8 ; ioHelipCopterAttachSpecialState::`RTTI Base Class Array'
	DD	FLAT:??_R1A@?0A@EA@ioSpecialStateBase@@8
rdata$r	ENDS
;	COMDAT ??_R3ioHelipCopterAttachSpecialState@@8
rdata$r	SEGMENT
??_R3ioHelipCopterAttachSpecialState@@8 DD 00H		; ioHelipCopterAttachSpecialState::`RTTI Class Hierarchy Descriptor'
	DD	00H
	DD	02H
	DD	FLAT:??_R2ioHelipCopterAttachSpecialState@@8
rdata$r	ENDS
;	COMDAT ??_R0?AVioHelipCopterAttachSpecialState@@@8
_DATA	SEGMENT
??_R0?AVioHelipCopterAttachSpecialState@@@8 DD FLAT:??_7type_info@@6B@ ; ioHelipCopterAttachSpecialState `RTTI Type Descriptor'
	DD	00H
	DB	'.?AVioHelipCopterAttachSpecialState@@', 00H
_DATA	ENDS
;	COMDAT ??_R4ioHelipCopterAttachSpecialState@@6B@
rdata$r	SEGMENT
??_R4ioHelipCopterAttachSpecialState@@6B@ DD 00H	; ioHelipCopterAttachSpecialState::`RTTI Complete Object Locator'
	DD	00H
	DD	00H
	DD	FLAT:??_R0?AVioHelipCopterAttachSpecialState@@@8
	DD	FLAT:??_R3ioHelipCopterAttachSpecialState@@8
rdata$r	ENDS
;	COMDAT ??_7ioHelipCopterAttachSpecialState@@6B@
CONST	SEGMENT
??_7ioHelipCopterAttachSpecialState@@6B@ DD FLAT:??_R4ioHelipCopterAttachSpecialState@@6B@ ; ioHelipCopterAttachSpecialState::`vftable'
	DD	FLAT:?Initialize@ioHelipCopterAttachSpecialState@@UAEXPAVioBaseChar@@W4CharState@@@Z
	DD	FLAT:?Finalize@ioHelipCopterAttachSpecialState@@UAEXPAVioBaseChar@@W4CharState@@1@Z
	DD	FLAT:?LoadProperty@ioSpecialStateBase@@UAEXAAVioINILoader@@@Z
	DD	FLAT:?GetStateName@ioHelipCopterAttachSpecialState@@UAEPBDXZ
	DD	FLAT:?GetState@ioHelipCopterAttachSpecialState@@UAE?BW4CharState@@XZ
	DD	FLAT:?GetAttackSpeedRate@ioSpecialStateBase@@UAEMPAVioBaseChar@@M@Z
	DD	FLAT:?CheckSpecialState@ioHelipCopterAttachSpecialState@@UAEXPAVioBaseChar@@@Z
	DD	FLAT:?ProcessState@ioSpecialStateBase@@UAEXPAVioBaseChar@@@Z
	DD	FLAT:?ProcessMoveSpeed@ioSpecialStateBase@@UAEXPAVioBaseChar@@@Z
	DD	FLAT:?ProcessMove@ioHelipCopterAttachSpecialState@@UAE_NPAVioBaseChar@@MKK@Z
	DD	FLAT:?ProcessKeyInput@ioSpecialStateBase@@UAEXPAVioBaseChar@@@Z
	DD	FLAT:?IsCanNoWound@ioSpecialStateBase@@UAE_NPAVioBaseChar@@@Z
	DD	FLAT:?IsCollisionAvailableWeapon@ioSpecialStateBase@@UAE_NPAVioBaseChar@@PAVioWeapon@@@Z
	DD	FLAT:?IsEntityCollisionSkipState@ioSpecialStateBase@@UBE_NQBVioBaseChar@@PAVioGameEntity@@@Z
	DD	FLAT:?IsCharCollisionSkipState@ioSpecialStateBase@@UBE_NQBVioBaseChar@@KKK_N1W4TeamType@@2@Z
	DD	FLAT:?IsSendControlInfoToUser@ioSpecialStateBase@@UAE_NPAVioBaseChar@@@Z
	DD	FLAT:?IsIgnoreAttackOverDelay@ioSpecialStateBase@@UAE_NXZ
	DD	FLAT:?IsLandingEnable@ioSpecialStateBase@@UAE_NXZ
	DD	FLAT:?IsFallStateCheck@ioSpecialStateBase@@UAE_NXZ
	DD	FLAT:?IsEnableBlowWounded@ioSpecialStateBase@@UAE_NPAVioBaseChar@@@Z
	DD	FLAT:?IsNoDropState@ioSpecialStateBase@@UAE_NPAVioBaseChar@@@Z
	DD	FLAT:?GetGravity@ioSpecialStateBase@@UAEXPAVioBaseChar@@AAM@Z
	DD	FLAT:?IsCanChangeJumppingState@ioSpecialStateBase@@UAE_NPAVioBaseChar@@@Z
	DD	FLAT:?IsEnableDashState@ioSpecialStateBase@@UAE_NPAVioBaseChar@@@Z
	DD	FLAT:?IsStateEnd@ioSpecialStateBase@@UAE_NPAVioBaseChar@@@Z
	DD	FLAT:?IsProcessFlyMove@ioSpecialStateBase@@UAE_NXZ
	DD	FLAT:?IsFloatingState@ioSpecialStateBase@@UBE_NQBVioBaseChar@@@Z
	DD	FLAT:?IsInitializeSync@ioSpecialStateBase@@UAE_NXZ
	DD	FLAT:?IsJoinSync@ioSpecialStateBase@@UAE_NXZ
	DD	FLAT:?FillJoinSync@ioSpecialStateBase@@UAEXAAVSP2Packet@@PAVioBaseChar@@@Z
	DD	FLAT:?ApplyJoinSync@ioSpecialStateBase@@UAEXAAVSP2Packet@@PAVioBaseChar@@@Z
	DD	FLAT:?ApplyStateSync@ioSpecialStateBase@@UAEXAAVSP2Packet@@PAVioBaseChar@@@Z
	DD	FLAT:?CheckFallStateChange@ioHelipCopterAttachSpecialState@@UAEXPAVioBaseChar@@MM_NM@Z
	DD	FLAT:??_EioHelipCopterAttachSpecialState@@UAEPAXI@Z
; Function compile flags: /Ogsp
CONST	ENDS
;	COMDAT ??0ioHelipCopterAttachSpecialState@@QAE@XZ
_TEXT	SEGMENT
??0ioHelipCopterAttachSpecialState@@QAE@XZ PROC		; ioHelipCopterAttachSpecialState::ioHelipCopterAttachSpecialState, COMDAT
; _this$ = ecx

; 1030 : {

  00000	56		 push	 esi
  00001	8b f1		 mov	 esi, ecx
  00003	e8 00 00 00 00	 call	 ??0ioSpecialStateBase@@QAE@XZ ; ioSpecialStateBase::ioSpecialStateBase
  00008	c7 06 00 00 00
	00		 mov	 DWORD PTR [esi], OFFSET ??_7ioHelipCopterAttachSpecialState@@6B@

; 1031 : }

  0000e	8b c6		 mov	 eax, esi
  00010	5e		 pop	 esi
  00011	c3		 ret	 0
??0ioHelipCopterAttachSpecialState@@QAE@XZ ENDP		; ioHelipCopterAttachSpecialState::ioHelipCopterAttachSpecialState
; Function compile flags: /Ogsp
; File d:\lost saga for developer\youtube\tutorial\source\src\lsclient\iospecialstatebase.h
_TEXT	ENDS
;	COMDAT ?LoadProperty@ioSpecialStateBase@@UAEXAAVioINILoader@@@Z
_TEXT	SEGMENT
_rkLoader$ = 8						; size = 4
?LoadProperty@ioSpecialStateBase@@UAEXAAVioINILoader@@@Z PROC ; ioSpecialStateBase::LoadProperty, COMDAT
; _this$ = ecx

; 18   : 	virtual void LoadProperty( ioINILoader &rkLoader ){}

  00000	c2 04 00	 ret	 4
?LoadProperty@ioSpecialStateBase@@UAEXAAVioINILoader@@@Z ENDP ; ioSpecialStateBase::LoadProperty
; Function compile flags: /Ogsp
_TEXT	ENDS
;	COMDAT ?GetAttackSpeedRate@ioSpecialStateBase@@UAEMPAVioBaseChar@@M@Z
_TEXT	SEGMENT
_pOwner$ = 8						; size = 4
_fMaxSpeed$ = 12					; size = 4
?GetAttackSpeedRate@ioSpecialStateBase@@UAEMPAVioBaseChar@@M@Z PROC ; ioSpecialStateBase::GetAttackSpeedRate, COMDAT
; _this$ = ecx

; 26   : 	virtual float GetAttackSpeedRate( ioBaseChar* pOwner, float fMaxSpeed ){ return fMaxSpeed; }

  00000	55		 push	 ebp
  00001	8b ec		 mov	 ebp, esp
  00003	d9 45 0c	 fld	 DWORD PTR _fMaxSpeed$[ebp]
  00006	5d		 pop	 ebp
  00007	c2 08 00	 ret	 8
?GetAttackSpeedRate@ioSpecialStateBase@@UAEMPAVioBaseChar@@M@Z ENDP ; ioSpecialStateBase::GetAttackSpeedRate
; Function compile flags: /Ogsp
_TEXT	ENDS
;	COMDAT ?ProcessState@ioSpecialStateBase@@UAEXPAVioBaseChar@@@Z
_TEXT	SEGMENT
_pOwner$ = 8						; size = 4
?ProcessState@ioSpecialStateBase@@UAEXPAVioBaseChar@@@Z PROC ; ioSpecialStateBase::ProcessState, COMDAT
; _this$ = ecx

; 30   : 	virtual void ProcessState( IN ioBaseChar* pOwner ){}

  00000	c2 04 00	 ret	 4
?ProcessState@ioSpecialStateBase@@UAEXPAVioBaseChar@@@Z ENDP ; ioSpecialStateBase::ProcessState
; Function compile flags: /Ogsp
_TEXT	ENDS
;	COMDAT ?ProcessMoveSpeed@ioSpecialStateBase@@UAEXPAVioBaseChar@@@Z
_TEXT	SEGMENT
_pOwner$ = 8						; size = 4
?ProcessMoveSpeed@ioSpecialStateBase@@UAEXPAVioBaseChar@@@Z PROC ; ioSpecialStateBase::ProcessMoveSpeed, COMDAT
; _this$ = ecx

; 31   : 	virtual void ProcessMoveSpeed( ioBaseChar* pOwner ){}

  00000	c2 04 00	 ret	 4
?ProcessMoveSpeed@ioSpecialStateBase@@UAEXPAVioBaseChar@@@Z ENDP ; ioSpecialStateBase::ProcessMoveSpeed
; Function compile flags: /Ogsp
_TEXT	ENDS
;	COMDAT ?IsCanNoWound@ioSpecialStateBase@@UAE_NPAVioBaseChar@@@Z
_TEXT	SEGMENT
_pOwner$ = 8						; size = 4
?IsCanNoWound@ioSpecialStateBase@@UAE_NPAVioBaseChar@@@Z PROC ; ioSpecialStateBase::IsCanNoWound, COMDAT
; _this$ = ecx

; 37   : 	virtual bool IsCanNoWound( ioBaseChar* pOwner ) { return false; };

  00000	32 c0		 xor	 al, al
  00002	c2 04 00	 ret	 4
?IsCanNoWound@ioSpecialStateBase@@UAE_NPAVioBaseChar@@@Z ENDP ; ioSpecialStateBase::IsCanNoWound
; Function compile flags: /Ogsp
_TEXT	ENDS
;	COMDAT ?IsCollisionAvailableWeapon@ioSpecialStateBase@@UAE_NPAVioBaseChar@@PAVioWeapon@@@Z
_TEXT	SEGMENT
_pOwner$ = 8						; size = 4
_pWeapon$ = 12						; size = 4
?IsCollisionAvailableWeapon@ioSpecialStateBase@@UAE_NPAVioBaseChar@@PAVioWeapon@@@Z PROC ; ioSpecialStateBase::IsCollisionAvailableWeapon, COMDAT
; _this$ = ecx

; 38   : 	virtual bool IsCollisionAvailableWeapon( ioBaseChar* pOwner, ioWeapon *pWeapon ) { return true; }

  00000	b0 01		 mov	 al, 1
  00002	c2 08 00	 ret	 8
?IsCollisionAvailableWeapon@ioSpecialStateBase@@UAE_NPAVioBaseChar@@PAVioWeapon@@@Z ENDP ; ioSpecialStateBase::IsCollisionAvailableWeapon
; Function compile flags: /Ogsp
_TEXT	ENDS
;	COMDAT ?IsEntityCollisionSkipState@ioSpecialStateBase@@UBE_NQBVioBaseChar@@PAVioGameEntity@@@Z
_TEXT	SEGMENT
_pOwner$ = 8						; size = 4
_pColEntity$ = 12					; size = 4
?IsEntityCollisionSkipState@ioSpecialStateBase@@UBE_NQBVioBaseChar@@PAVioGameEntity@@@Z PROC ; ioSpecialStateBase::IsEntityCollisionSkipState, COMDAT
; _this$ = ecx

; 39   : 	virtual bool IsEntityCollisionSkipState( const ioBaseChar *const pOwner, ioGameEntity* pColEntity ) const { return false; }

  00000	32 c0		 xor	 al, al
  00002	c2 08 00	 ret	 8
?IsEntityCollisionSkipState@ioSpecialStateBase@@UBE_NQBVioBaseChar@@PAVioGameEntity@@@Z ENDP ; ioSpecialStateBase::IsEntityCollisionSkipState
; Function compile flags: /Ogsp
_TEXT	ENDS
;	COMDAT ?IsSendControlInfoToUser@ioSpecialStateBase@@UAE_NPAVioBaseChar@@@Z
_TEXT	SEGMENT
_pOwner$ = 8						; size = 4
?IsSendControlInfoToUser@ioSpecialStateBase@@UAE_NPAVioBaseChar@@@Z PROC ; ioSpecialStateBase::IsSendControlInfoToUser, COMDAT
; _this$ = ecx

; 49   : 	virtual bool IsSendControlInfoToUser( ioBaseChar* pOwner ){ return true; }	

  00000	b0 01		 mov	 al, 1
  00002	c2 04 00	 ret	 4
?IsSendControlInfoToUser@ioSpecialStateBase@@UAE_NPAVioBaseChar@@@Z ENDP ; ioSpecialStateBase::IsSendControlInfoToUser
; Function compile flags: /Ogsp
_TEXT	ENDS
;	COMDAT ?IsIgnoreAttackOverDelay@ioSpecialStateBase@@UAE_NXZ
_TEXT	SEGMENT
?IsIgnoreAttackOverDelay@ioSpecialStateBase@@UAE_NXZ PROC ; ioSpecialStateBase::IsIgnoreAttackOverDelay, COMDAT
; _this$ = ecx

; 50   : 	virtual bool IsIgnoreAttackOverDelay(){ return false; }

  00000	32 c0		 xor	 al, al
  00002	c3		 ret	 0
?IsIgnoreAttackOverDelay@ioSpecialStateBase@@UAE_NXZ ENDP ; ioSpecialStateBase::IsIgnoreAttackOverDelay
; Function compile flags: /Ogsp
_TEXT	ENDS
;	COMDAT ?IsLandingEnable@ioSpecialStateBase@@UAE_NXZ
_TEXT	SEGMENT
?IsLandingEnable@ioSpecialStateBase@@UAE_NXZ PROC	; ioSpecialStateBase::IsLandingEnable, COMDAT
; _this$ = ecx

; 51   : 	virtual bool IsLandingEnable(){ return true; }

  00000	b0 01		 mov	 al, 1
  00002	c3		 ret	 0
?IsLandingEnable@ioSpecialStateBase@@UAE_NXZ ENDP	; ioSpecialStateBase::IsLandingEnable
; Function compile flags: /Ogsp
_TEXT	ENDS
;	COMDAT ?IsFallStateCheck@ioSpecialStateBase@@UAE_NXZ
_TEXT	SEGMENT
?IsFallStateCheck@ioSpecialStateBase@@UAE_NXZ PROC	; ioSpecialStateBase::IsFallStateCheck, COMDAT
; _this$ = ecx

; 52   : 	virtual bool IsFallStateCheck(){ return true; }

  00000	b0 01		 mov	 al, 1
  00002	c3		 ret	 0
?IsFallStateCheck@ioSpecialStateBase@@UAE_NXZ ENDP	; ioSpecialStateBase::IsFallStateCheck
; Function compile flags: /Ogsp
_TEXT	ENDS
;	COMDAT ?IsEnableBlowWounded@ioSpecialStateBase@@UAE_NPAVioBaseChar@@@Z
_TEXT	SEGMENT
_pOwner$ = 8						; size = 4
?IsEnableBlowWounded@ioSpecialStateBase@@UAE_NPAVioBaseChar@@@Z PROC ; ioSpecialStateBase::IsEnableBlowWounded, COMDAT
; _this$ = ecx

; 53   : 	virtual bool IsEnableBlowWounded( ioBaseChar *pOwner ){ return true; }

  00000	b0 01		 mov	 al, 1
  00002	c2 04 00	 ret	 4
?IsEnableBlowWounded@ioSpecialStateBase@@UAE_NPAVioBaseChar@@@Z ENDP ; ioSpecialStateBase::IsEnableBlowWounded
; Function compile flags: /Ogsp
_TEXT	ENDS
;	COMDAT ?IsNoDropState@ioSpecialStateBase@@UAE_NPAVioBaseChar@@@Z
_TEXT	SEGMENT
_pOwner$ = 8						; size = 4
?IsNoDropState@ioSpecialStateBase@@UAE_NPAVioBaseChar@@@Z PROC ; ioSpecialStateBase::IsNoDropState, COMDAT
; _this$ = ecx

; 54   : 	virtual bool IsNoDropState( ioBaseChar* pOwner ) { return false; }

  00000	32 c0		 xor	 al, al
  00002	c2 04 00	 ret	 4
?IsNoDropState@ioSpecialStateBase@@UAE_NPAVioBaseChar@@@Z ENDP ; ioSpecialStateBase::IsNoDropState
; Function compile flags: /Ogsp
_TEXT	ENDS
;	COMDAT ?IsCanChangeJumppingState@ioSpecialStateBase@@UAE_NPAVioBaseChar@@@Z
_TEXT	SEGMENT
_pOwner$ = 8						; size = 4
?IsCanChangeJumppingState@ioSpecialStateBase@@UAE_NPAVioBaseChar@@@Z PROC ; ioSpecialStateBase::IsCanChangeJumppingState, COMDAT
; _this$ = ecx

; 56   : 	virtual bool IsCanChangeJumppingState( ioBaseChar* pOwner ) { return false; }

  00000	32 c0		 xor	 al, al
  00002	c2 04 00	 ret	 4
?IsCanChangeJumppingState@ioSpecialStateBase@@UAE_NPAVioBaseChar@@@Z ENDP ; ioSpecialStateBase::IsCanChangeJumppingState
; Function compile flags: /Ogsp
_TEXT	ENDS
;	COMDAT ?IsEnableDashState@ioSpecialStateBase@@UAE_NPAVioBaseChar@@@Z
_TEXT	SEGMENT
_pOwner$ = 8						; size = 4
?IsEnableDashState@ioSpecialStateBase@@UAE_NPAVioBaseChar@@@Z PROC ; ioSpecialStateBase::IsEnableDashState, COMDAT
; _this$ = ecx

; 58   : 	virtual bool IsEnableDashState( ioBaseChar* pOwner ){ return false; }

  00000	32 c0		 xor	 al, al
  00002	c2 04 00	 ret	 4
?IsEnableDashState@ioSpecialStateBase@@UAE_NPAVioBaseChar@@@Z ENDP ; ioSpecialStateBase::IsEnableDashState
; Function compile flags: /Ogsp
_TEXT	ENDS
;	COMDAT ?IsStateEnd@ioSpecialStateBase@@UAE_NPAVioBaseChar@@@Z
_TEXT	SEGMENT
_pOwner$ = 8						; size = 4
?IsStateEnd@ioSpecialStateBase@@UAE_NPAVioBaseChar@@@Z PROC ; ioSpecialStateBase::IsStateEnd, COMDAT
; _this$ = ecx

; 61   : 	virtual bool IsStateEnd( ioBaseChar* pOwner ){ return false; }

  00000	32 c0		 xor	 al, al
  00002	c2 04 00	 ret	 4
?IsStateEnd@ioSpecialStateBase@@UAE_NPAVioBaseChar@@@Z ENDP ; ioSpecialStateBase::IsStateEnd
; Function compile flags: /Ogsp
_TEXT	ENDS
;	COMDAT ?IsProcessFlyMove@ioSpecialStateBase@@UAE_NXZ
_TEXT	SEGMENT
?IsProcessFlyMove@ioSpecialStateBase@@UAE_NXZ PROC	; ioSpecialStateBase::IsProcessFlyMove, COMDAT
; _this$ = ecx

; 62   : 	virtual bool IsProcessFlyMove(){ return false; }	

  00000	32 c0		 xor	 al, al
  00002	c3		 ret	 0
?IsProcessFlyMove@ioSpecialStateBase@@UAE_NXZ ENDP	; ioSpecialStateBase::IsProcessFlyMove
; Function compile flags: /Ogsp
_TEXT	ENDS
;	COMDAT ?IsFloatingState@ioSpecialStateBase@@UBE_NQBVioBaseChar@@@Z
_TEXT	SEGMENT
_pOwner$ = 8						; size = 4
?IsFloatingState@ioSpecialStateBase@@UBE_NQBVioBaseChar@@@Z PROC ; ioSpecialStateBase::IsFloatingState, COMDAT
; _this$ = ecx

; 64   : 	virtual bool IsFloatingState( const ioBaseChar * const pOwner ) const { return false; }	

  00000	32 c0		 xor	 al, al
  00002	c2 04 00	 ret	 4
?IsFloatingState@ioSpecialStateBase@@UBE_NQBVioBaseChar@@@Z ENDP ; ioSpecialStateBase::IsFloatingState
; Function compile flags: /Ogsp
_TEXT	ENDS
;	COMDAT ?IsInitializeSync@ioSpecialStateBase@@UAE_NXZ
_TEXT	SEGMENT
?IsInitializeSync@ioSpecialStateBase@@UAE_NXZ PROC	; ioSpecialStateBase::IsInitializeSync, COMDAT
; _this$ = ecx

; 68   : 	virtual bool IsInitializeSync(){ return false; }

  00000	32 c0		 xor	 al, al
  00002	c3		 ret	 0
?IsInitializeSync@ioSpecialStateBase@@UAE_NXZ ENDP	; ioSpecialStateBase::IsInitializeSync
; Function compile flags: /Ogsp
_TEXT	ENDS
;	COMDAT ?IsJoinSync@ioSpecialStateBase@@UAE_NXZ
_TEXT	SEGMENT
?IsJoinSync@ioSpecialStateBase@@UAE_NXZ PROC		; ioSpecialStateBase::IsJoinSync, COMDAT
; _this$ = ecx

; 71   : 	virtual bool IsJoinSync(){ return true; }

  00000	b0 01		 mov	 al, 1
  00002	c3		 ret	 0
?IsJoinSync@ioSpecialStateBase@@UAE_NXZ ENDP		; ioSpecialStateBase::IsJoinSync
_TEXT	ENDS
PUBLIC	??_C@_0BF@ENILFOMM@CS_HELICOPTER_ATTACH?$AA@	; `string'
;	COMDAT ??_C@_0BF@ENILFOMM@CS_HELICOPTER_ATTACH?$AA@
; File d:\lost saga for developer\youtube\tutorial\source\src\lsclient\iohelipcopterattachbuff.h
CONST	SEGMENT
??_C@_0BF@ENILFOMM@CS_HELICOPTER_ATTACH?$AA@ DB 'CS_HELICOPTER_ATTACH', 00H ; `string'
; Function compile flags: /Ogsp
CONST	ENDS
;	COMDAT ?GetStateName@ioHelipCopterAttachSpecialState@@UAEPBDXZ
_TEXT	SEGMENT
?GetStateName@ioHelipCopterAttachSpecialState@@UAEPBDXZ PROC ; ioHelipCopterAttachSpecialState::GetStateName, COMDAT
; _this$ = ecx

; 164  : 	virtual const char* GetStateName(){ return "CS_HELICOPTER_ATTACH"; }

  00000	b8 00 00 00 00	 mov	 eax, OFFSET ??_C@_0BF@ENILFOMM@CS_HELICOPTER_ATTACH?$AA@
  00005	c3		 ret	 0
?GetStateName@ioHelipCopterAttachSpecialState@@UAEPBDXZ ENDP ; ioHelipCopterAttachSpecialState::GetStateName
; Function compile flags: /Ogsp
_TEXT	ENDS
;	COMDAT ?GetState@ioHelipCopterAttachSpecialState@@UAE?BW4CharState@@XZ
_TEXT	SEGMENT
?GetState@ioHelipCopterAttachSpecialState@@UAE?BW4CharState@@XZ PROC ; ioHelipCopterAttachSpecialState::GetState, COMDAT
; _this$ = ecx

; 165  : 	virtual const CharState GetState(){ return CS_HELICOPTER_ATTACH; }	

  00000	b0 78		 mov	 al, 120			; 00000078H
  00002	c3		 ret	 0
?GetState@ioHelipCopterAttachSpecialState@@UAE?BW4CharState@@XZ ENDP ; ioHelipCopterAttachSpecialState::GetState
_TEXT	ENDS
PUBLIC	??1ioHelipCopterAttachSpecialState@@UAE@XZ	; ioHelipCopterAttachSpecialState::~ioHelipCopterAttachSpecialState
EXTRN	??1ioSpecialStateBase@@UAE@XZ:PROC		; ioSpecialStateBase::~ioSpecialStateBase
; Function compile flags: /Ogsp
; File d:\lost saga for developer\youtube\tutorial\source\src\lsclient\iohelipcopterattachbuff.cpp
;	COMDAT ??1ioHelipCopterAttachSpecialState@@UAE@XZ
_TEXT	SEGMENT
??1ioHelipCopterAttachSpecialState@@UAE@XZ PROC		; ioHelipCopterAttachSpecialState::~ioHelipCopterAttachSpecialState, COMDAT
; _this$ = ecx

; 1034 : {

  00000	c7 01 00 00 00
	00		 mov	 DWORD PTR [ecx], OFFSET ??_7ioHelipCopterAttachSpecialState@@6B@

; 1035 : }

  00006	e9 00 00 00 00	 jmp	 ??1ioSpecialStateBase@@UAE@XZ ; ioSpecialStateBase::~ioSpecialStateBase
??1ioHelipCopterAttachSpecialState@@UAE@XZ ENDP		; ioHelipCopterAttachSpecialState::~ioHelipCopterAttachSpecialState
_TEXT	ENDS
EXTRN	?Initialize@ioSpecialStateBase@@UAEXPAVioBaseChar@@W4CharState@@@Z:PROC ; ioSpecialStateBase::Initialize
; Function compile flags: /Ogsp
;	COMDAT ?Initialize@ioHelipCopterAttachSpecialState@@UAEXPAVioBaseChar@@W4CharState@@@Z
_TEXT	SEGMENT
_pOwner$ = 8						; size = 4
_eCurrState$ = 12					; size = 1
?Initialize@ioHelipCopterAttachSpecialState@@UAEXPAVioBaseChar@@W4CharState@@@Z PROC ; ioHelipCopterAttachSpecialState::Initialize, COMDAT
; _this$ = ecx

; 1038 : {

  00000	55		 push	 ebp
  00001	8b ec		 mov	 ebp, esp

; 1040 : }

  00003	5d		 pop	 ebp

; 1039 : 	ioSpecialStateBase::Initialize( pOwner, eCurrState );

  00004	e9 00 00 00 00	 jmp	 ?Initialize@ioSpecialStateBase@@UAEXPAVioBaseChar@@W4CharState@@@Z ; ioSpecialStateBase::Initialize
?Initialize@ioHelipCopterAttachSpecialState@@UAEXPAVioBaseChar@@W4CharState@@@Z ENDP ; ioHelipCopterAttachSpecialState::Initialize
_TEXT	ENDS
EXTRN	?Finalize@ioSpecialStateBase@@UAEXPAVioBaseChar@@W4CharState@@1@Z:PROC ; ioSpecialStateBase::Finalize
; Function compile flags: /Ogsp
;	COMDAT ?Finalize@ioHelipCopterAttachSpecialState@@UAEXPAVioBaseChar@@W4CharState@@1@Z
_TEXT	SEGMENT
_pOwner$ = 8						; size = 4
_eCurrState$ = 12					; size = 1
_eNewState$ = 16					; size = 1
?Finalize@ioHelipCopterAttachSpecialState@@UAEXPAVioBaseChar@@W4CharState@@1@Z PROC ; ioHelipCopterAttachSpecialState::Finalize, COMDAT
; _this$ = ecx

; 1043 : {

  00000	55		 push	 ebp
  00001	8b ec		 mov	 ebp, esp

; 1045 : }

  00003	5d		 pop	 ebp

; 1044 : 	ioSpecialStateBase::Finalize( pOwner, eCurrState, eNewState );

  00004	e9 00 00 00 00	 jmp	 ?Finalize@ioSpecialStateBase@@UAEXPAVioBaseChar@@W4CharState@@1@Z ; ioSpecialStateBase::Finalize
?Finalize@ioHelipCopterAttachSpecialState@@UAEXPAVioBaseChar@@W4CharState@@1@Z ENDP ; ioHelipCopterAttachSpecialState::Finalize
; Function compile flags: /Ogsp
_TEXT	ENDS
;	COMDAT ?CheckSpecialState@ioHelipCopterAttachSpecialState@@UAEXPAVioBaseChar@@@Z
_TEXT	SEGMENT
_pOwner$ = 8						; size = 4
?CheckSpecialState@ioHelipCopterAttachSpecialState@@UAEXPAVioBaseChar@@@Z PROC ; ioHelipCopterAttachSpecialState::CheckSpecialState, COMDAT
; _this$ = ecx

; 1049 : }

  00000	c2 04 00	 ret	 4
?CheckSpecialState@ioHelipCopterAttachSpecialState@@UAEXPAVioBaseChar@@@Z ENDP ; ioHelipCopterAttachSpecialState::CheckSpecialState
; Function compile flags: /Ogsp
_TEXT	ENDS
;	COMDAT ?CheckFallStateChange@ioHelipCopterAttachSpecialState@@UAEXPAVioBaseChar@@MM_NM@Z
_TEXT	SEGMENT
_pOwner$ = 8						; size = 4
_fMinFallHeightRate$ = 12				; size = 4
_fBottomHeight$ = 16					; size = 4
_bBottomMaxCheck$ = 20					; size = 1
_fMaxBottomHeight$ = 24					; size = 4
?CheckFallStateChange@ioHelipCopterAttachSpecialState@@UAEXPAVioBaseChar@@MM_NM@Z PROC ; ioHelipCopterAttachSpecialState::CheckFallStateChange, COMDAT
; _this$ = ecx

; 1053 : 	return;
; 1054 : }

  00000	c2 14 00	 ret	 20			; 00000014H
?CheckFallStateChange@ioHelipCopterAttachSpecialState@@UAEXPAVioBaseChar@@MM_NM@Z ENDP ; ioHelipCopterAttachSpecialState::CheckFallStateChange
; Function compile flags: /Ogsp
_TEXT	ENDS
;	COMDAT ?ProcessMove@ioHelipCopterAttachSpecialState@@UAE_NPAVioBaseChar@@MKK@Z
_TEXT	SEGMENT
_pOwner$ = 8						; size = 4
_fTimePerSec$ = 12					; size = 4
_dwPreTime$ = 16					; size = 4
_dwCurTime$ = 20					; size = 4
?ProcessMove@ioHelipCopterAttachSpecialState@@UAE_NPAVioBaseChar@@MKK@Z PROC ; ioHelipCopterAttachSpecialState::ProcessMove, COMDAT
; _this$ = ecx

; 1058 : 	return true;

  00000	b0 01		 mov	 al, 1

; 1059 : }

  00002	c2 10 00	 ret	 16			; 00000010H
?ProcessMove@ioHelipCopterAttachSpecialState@@UAE_NPAVioBaseChar@@MKK@Z ENDP ; ioHelipCopterAttachSpecialState::ProcessMove
_TEXT	ENDS
PUBLIC	?empty@?$vector@VioHashString@@V?$allocator@VioHashString@@@std@@@std@@QBE_NXZ ; std::vector<ioHashString,std::allocator<ioHashString> >::empty
; Function compile flags: /Ogsp
; File c:\program files (x86)\microsoft visual studio 10.0\vc\include\vector
;	COMDAT ?empty@?$vector@VioHashString@@V?$allocator@VioHashString@@@std@@@std@@QBE_NXZ
_TEXT	SEGMENT
?empty@?$vector@VioHashString@@V?$allocator@VioHashString@@@std@@@std@@QBE_NXZ PROC ; std::vector<ioHashString,std::allocator<ioHashString> >::empty, COMDAT
; _this$ = ecx

; 889  : 		return (this->_Myfirst == this->_Mylast);

  00000	8b 01		 mov	 eax, DWORD PTR [ecx]
  00002	2b 41 04	 sub	 eax, DWORD PTR [ecx+4]
  00005	f7 d8		 neg	 eax
  00007	1b c0		 sbb	 eax, eax
  00009	40		 inc	 eax

; 890  : 		}

  0000a	c3		 ret	 0
?empty@?$vector@VioHashString@@V?$allocator@VioHashString@@@std@@@std@@QBE_NXZ ENDP ; std::vector<ioHashString,std::allocator<ioHashString> >::empty
_TEXT	ENDS
PUBLIC	??A?$vector@VioHashString@@V?$allocator@VioHashString@@@std@@@std@@QAEAAVioHashString@@I@Z ; std::vector<ioHashString,std::allocator<ioHashString> >::operator[]
; Function compile flags: /Ogsp
;	COMDAT ??A?$vector@VioHashString@@V?$allocator@VioHashString@@@std@@@std@@QAEAAVioHashString@@I@Z
_TEXT	SEGMENT
__Pos$ = 8						; size = 4
??A?$vector@VioHashString@@V?$allocator@VioHashString@@@std@@@std@@QAEAAVioHashString@@I@Z PROC ; std::vector<ioHashString,std::allocator<ioHashString> >::operator[], COMDAT
; _this$ = ecx

; 928  : 		{	// subscript mutable sequence

  00000	55		 push	 ebp
  00001	8b ec		 mov	 ebp, esp

; 929  :  #if _ITERATOR_DEBUG_LEVEL == 2
; 930  : 		if (size() <= _Pos)
; 931  : 			{	// report error
; 932  : 			_DEBUG_ERROR("vector subscript out of range");
; 933  : 			_SCL_SECURE_OUT_OF_RANGE;
; 934  : 			}
; 935  : 
; 936  :  #elif _ITERATOR_DEBUG_LEVEL == 1
; 937  : 		_SCL_SECURE_VALIDATE_RANGE(_Pos < size());
; 938  :  #endif /* _ITERATOR_DEBUG_LEVEL */
; 939  : 
; 940  : 		return (*(this->_Myfirst + _Pos));

  00003	8b 45 08	 mov	 eax, DWORD PTR __Pos$[ebp]
  00006	c1 e0 04	 shl	 eax, 4
  00009	03 01		 add	 eax, DWORD PTR [ecx]

; 941  : 		}

  0000b	5d		 pop	 ebp
  0000c	c2 04 00	 ret	 4
??A?$vector@VioHashString@@V?$allocator@VioHashString@@@std@@@std@@QAEAAVioHashString@@I@Z ENDP ; std::vector<ioHashString,std::allocator<ioHashString> >::operator[]
_TEXT	ENDS
PUBLIC	??0?$_Vector_const_iterator@V?$_Vector_val@PAVioBaseChar@@V?$allocator@PAVioBaseChar@@@std@@@std@@@std@@QAE@XZ ; std::_Vector_const_iterator<std::_Vector_val<ioBaseChar *,std::allocator<ioBaseChar *> > >::_Vector_const_iterator<std::_Vector_val<ioBaseChar *,std::allocator<ioBaseChar *> > >
; Function compile flags: /Ogsp
;	COMDAT ??0?$_Vector_const_iterator@V?$_Vector_val@PAVioBaseChar@@V?$allocator@PAVioBaseChar@@@std@@@std@@@std@@QAE@XZ
_TEXT	SEGMENT
??0?$_Vector_const_iterator@V?$_Vector_val@PAVioBaseChar@@V?$allocator@PAVioBaseChar@@@std@@@std@@@std@@QAE@XZ PROC ; std::_Vector_const_iterator<std::_Vector_val<ioBaseChar *,std::allocator<ioBaseChar *> > >::_Vector_const_iterator<std::_Vector_val<ioBaseChar *,std::allocator<ioBaseChar *> > >, COMDAT
; _this$ = ecx

; 40   : 		{	// construct with null pointer

  00000	8b c1		 mov	 eax, ecx
  00002	83 20 00	 and	 DWORD PTR [eax], 0

; 41   : 		}

  00005	c3		 ret	 0
??0?$_Vector_const_iterator@V?$_Vector_val@PAVioBaseChar@@V?$allocator@PAVioBaseChar@@@std@@@std@@@std@@QAE@XZ ENDP ; std::_Vector_const_iterator<std::_Vector_val<ioBaseChar *,std::allocator<ioBaseChar *> > >::_Vector_const_iterator<std::_Vector_val<ioBaseChar *,std::allocator<ioBaseChar *> > >
_TEXT	ENDS
PUBLIC	??D?$_Vector_const_iterator@V?$_Vector_val@PAVioBaseChar@@V?$allocator@PAVioBaseChar@@@std@@@std@@@std@@QBEABQAVioBaseChar@@XZ ; std::_Vector_const_iterator<std::_Vector_val<ioBaseChar *,std::allocator<ioBaseChar *> > >::operator*
; Function compile flags: /Ogsp
;	COMDAT ??D?$_Vector_const_iterator@V?$_Vector_val@PAVioBaseChar@@V?$allocator@PAVioBaseChar@@@std@@@std@@@std@@QBEABQAVioBaseChar@@XZ
_TEXT	SEGMENT
??D?$_Vector_const_iterator@V?$_Vector_val@PAVioBaseChar@@V?$allocator@PAVioBaseChar@@@std@@@std@@@std@@QBEABQAVioBaseChar@@XZ PROC ; std::_Vector_const_iterator<std::_Vector_val<ioBaseChar *,std::allocator<ioBaseChar *> > >::operator*, COMDAT
; _this$ = ecx

; 64   :  #if _ITERATOR_DEBUG_LEVEL == 2
; 65   : 		if (this->_Getcont() == 0
; 66   : 			|| this->_Ptr == 0
; 67   : 			|| this->_Ptr < ((_Myvec *)this->_Getcont())->_Myfirst
; 68   : 			|| ((_Myvec *)this->_Getcont())->_Mylast <= this->_Ptr)
; 69   : 			{	// report error
; 70   : 			_DEBUG_ERROR("vector iterator not dereferencable");
; 71   : 			_SCL_SECURE_OUT_OF_RANGE;
; 72   : 			}
; 73   : 
; 74   :  #elif _ITERATOR_DEBUG_LEVEL == 1
; 75   : 		_SCL_SECURE_VALIDATE(this->_Getcont() != 0);
; 76   : 		_SCL_SECURE_VALIDATE_RANGE(
; 77   : 			this->_Ptr != 0
; 78   : 			&& ((_Myvec *)this->_Getcont())->_Myfirst <= this->_Ptr
; 79   : 			&& this->_Ptr < ((_Myvec *)this->_Getcont())->_Mylast);
; 80   :  #endif /* _ITERATOR_DEBUG_LEVEL */
; 81   : 
; 82   : 		__analysis_assume(this->_Ptr != 0);
; 83   : 
; 84   : 		return (*this->_Ptr);

  00000	8b 01		 mov	 eax, DWORD PTR [ecx]

; 85   : 		}

  00002	c3		 ret	 0
??D?$_Vector_const_iterator@V?$_Vector_val@PAVioBaseChar@@V?$allocator@PAVioBaseChar@@@std@@@std@@@std@@QBEABQAVioBaseChar@@XZ ENDP ; std::_Vector_const_iterator<std::_Vector_val<ioBaseChar *,std::allocator<ioBaseChar *> > >::operator*
_TEXT	ENDS
PUBLIC	??E?$_Vector_const_iterator@V?$_Vector_val@PAVioBaseChar@@V?$allocator@PAVioBaseChar@@@std@@@std@@@std@@QAEAAV01@XZ ; std::_Vector_const_iterator<std::_Vector_val<ioBaseChar *,std::allocator<ioBaseChar *> > >::operator++
; Function compile flags: /Ogsp
;	COMDAT ??E?$_Vector_const_iterator@V?$_Vector_val@PAVioBaseChar@@V?$allocator@PAVioBaseChar@@@std@@@std@@@std@@QAEAAV01@XZ
_TEXT	SEGMENT
??E?$_Vector_const_iterator@V?$_Vector_val@PAVioBaseChar@@V?$allocator@PAVioBaseChar@@@std@@@std@@@std@@QAEAAV01@XZ PROC ; std::_Vector_const_iterator<std::_Vector_val<ioBaseChar *,std::allocator<ioBaseChar *> > >::operator++, COMDAT
; _this$ = ecx

; 93   : 		{	// preincrement

  00000	8b c1		 mov	 eax, ecx

; 94   :  #if _ITERATOR_DEBUG_LEVEL == 2
; 95   : 		if (this->_Getcont() == 0
; 96   : 			|| this->_Ptr == 0
; 97   : 			|| ((_Myvec *)this->_Getcont())->_Mylast <= this->_Ptr)
; 98   : 			{	// report error
; 99   : 			_DEBUG_ERROR("vector iterator not incrementable");
; 100  : 			_SCL_SECURE_OUT_OF_RANGE;
; 101  : 			}
; 102  : 
; 103  :  #elif _ITERATOR_DEBUG_LEVEL == 1
; 104  : 		_SCL_SECURE_VALIDATE(this->_Getcont() != 0);
; 105  : 		_SCL_SECURE_VALIDATE_RANGE(
; 106  : 			this->_Ptr != 0
; 107  : 			&& this->_Ptr < ((_Myvec *)this->_Getcont())->_Mylast);
; 108  :  #endif /* _ITERATOR_DEBUG_LEVEL */
; 109  : 
; 110  : 		++this->_Ptr;

  00002	83 00 04	 add	 DWORD PTR [eax], 4

; 111  : 		return (*this);
; 112  : 		}

  00005	c3		 ret	 0
??E?$_Vector_const_iterator@V?$_Vector_val@PAVioBaseChar@@V?$allocator@PAVioBaseChar@@@std@@@std@@@std@@QAEAAV01@XZ ENDP ; std::_Vector_const_iterator<std::_Vector_val<ioBaseChar *,std::allocator<ioBaseChar *> > >::operator++
_TEXT	ENDS
PUBLIC	?capacity@?$vector@VioHashString@@V?$allocator@VioHashString@@@std@@@std@@QBEIXZ ; std::vector<ioHashString,std::allocator<ioHashString> >::capacity
; Function compile flags: /Ogsp
;	COMDAT ?capacity@?$vector@VioHashString@@V?$allocator@VioHashString@@@std@@@std@@QBEIXZ
_TEXT	SEGMENT
?capacity@?$vector@VioHashString@@V?$allocator@VioHashString@@@std@@@std@@QBEIXZ PROC ; std::vector<ioHashString,std::allocator<ioHashString> >::capacity, COMDAT
; _this$ = ecx

; 777  : 		return (this->_Myend - this->_Myfirst);

  00000	8b 41 08	 mov	 eax, DWORD PTR [ecx+8]
  00003	2b 01		 sub	 eax, DWORD PTR [ecx]
  00005	c1 f8 04	 sar	 eax, 4

; 778  : 		}

  00008	c3		 ret	 0
?capacity@?$vector@VioHashString@@V?$allocator@VioHashString@@@std@@@std@@QBEIXZ ENDP ; std::vector<ioHashString,std::allocator<ioHashString> >::capacity
_TEXT	ENDS
PUBLIC	?_Inside@?$vector@VioHashString@@V?$allocator@VioHashString@@@std@@@std@@IBE_NPBVioHashString@@@Z ; std::vector<ioHashString,std::allocator<ioHashString> >::_Inside
; Function compile flags: /Ogsp
;	COMDAT ?_Inside@?$vector@VioHashString@@V?$allocator@VioHashString@@@std@@@std@@IBE_NPBVioHashString@@@Z
_TEXT	SEGMENT
__Ptr$ = 8						; size = 4
?_Inside@?$vector@VioHashString@@V?$allocator@VioHashString@@@std@@@std@@IBE_NPBVioHashString@@@Z PROC ; std::vector<ioHashString,std::allocator<ioHashString> >::_Inside, COMDAT
; _this$ = ecx

; 1285 : 		{	// test if _Ptr points inside vector

  00000	55		 push	 ebp
  00001	8b ec		 mov	 ebp, esp

; 1286 : 		return (_Ptr < this->_Mylast && this->_Myfirst <= _Ptr);

  00003	8b 45 08	 mov	 eax, DWORD PTR __Ptr$[ebp]
  00006	3b 41 04	 cmp	 eax, DWORD PTR [ecx+4]
  00009	73 09		 jae	 SHORT $LN3@Inside
  0000b	39 01		 cmp	 DWORD PTR [ecx], eax
  0000d	77 05		 ja	 SHORT $LN3@Inside
  0000f	33 c0		 xor	 eax, eax
  00011	40		 inc	 eax
  00012	eb 02		 jmp	 SHORT $LN4@Inside
$LN3@Inside:
  00014	33 c0		 xor	 eax, eax
$LN4@Inside:

; 1287 : 		}

  00016	5d		 pop	 ebp
  00017	c2 04 00	 ret	 4
?_Inside@?$vector@VioHashString@@V?$allocator@VioHashString@@@std@@@std@@IBE_NPBVioHashString@@@Z ENDP ; std::vector<ioHashString,std::allocator<ioHashString> >::_Inside
_TEXT	ENDS
PUBLIC	?_Orphan_range@?$vector@VioHashString@@V?$allocator@VioHashString@@@std@@@std@@IBEXPAVioHashString@@0@Z ; std::vector<ioHashString,std::allocator<ioHashString> >::_Orphan_range
; Function compile flags: /Ogsp
;	COMDAT ?_Orphan_range@?$vector@VioHashString@@V?$allocator@VioHashString@@@std@@@std@@IBEXPAVioHashString@@0@Z
_TEXT	SEGMENT
___formal$ = 8						; size = 4
___formal$ = 12						; size = 4
?_Orphan_range@?$vector@VioHashString@@V?$allocator@VioHashString@@@std@@@std@@IBEXPAVioHashString@@0@Z PROC ; std::vector<ioHashString,std::allocator<ioHashString> >::_Orphan_range, COMDAT
; _this$ = ecx

; 1454 : 		}

  00000	c2 08 00	 ret	 8
?_Orphan_range@?$vector@VioHashString@@V?$allocator@VioHashString@@@std@@@std@@IBEXPAVioHashString@@0@Z ENDP ; std::vector<ioHashString,std::allocator<ioHashString> >::_Orphan_range
_TEXT	ENDS
PUBLIC	??0?$_Vector_const_iterator@V?$_Vector_val@PAVioBaseChar@@V?$allocator@PAVioBaseChar@@@std@@@std@@@std@@QAE@PAPAVioBaseChar@@PBU_Container_base0@1@@Z ; std::_Vector_const_iterator<std::_Vector_val<ioBaseChar *,std::allocator<ioBaseChar *> > >::_Vector_const_iterator<std::_Vector_val<ioBaseChar *,std::allocator<ioBaseChar *> > >
; Function compile flags: /Ogsp
;	COMDAT ??0?$_Vector_const_iterator@V?$_Vector_val@PAVioBaseChar@@V?$allocator@PAVioBaseChar@@@std@@@std@@@std@@QAE@PAPAVioBaseChar@@PBU_Container_base0@1@@Z
_TEXT	SEGMENT
__Parg$ = 8						; size = 4
__Pvector$ = 12						; size = 4
??0?$_Vector_const_iterator@V?$_Vector_val@PAVioBaseChar@@V?$allocator@PAVioBaseChar@@@std@@@std@@@std@@QAE@PAPAVioBaseChar@@PBU_Container_base0@1@@Z PROC ; std::_Vector_const_iterator<std::_Vector_val<ioBaseChar *,std::allocator<ioBaseChar *> > >::_Vector_const_iterator<std::_Vector_val<ioBaseChar *,std::allocator<ioBaseChar *> > >, COMDAT
; _this$ = ecx

; 45   : 		{	// construct with pointer _Parg

  00000	55		 push	 ebp
  00001	8b ec		 mov	 ebp, esp
  00003	8b c1		 mov	 eax, ecx
  00005	8b 4d 08	 mov	 ecx, DWORD PTR __Parg$[ebp]
  00008	89 08		 mov	 DWORD PTR [eax], ecx

; 46   : 		this->_Adopt(_Pvector);
; 47   : 		}

  0000a	5d		 pop	 ebp
  0000b	c2 08 00	 ret	 8
??0?$_Vector_const_iterator@V?$_Vector_val@PAVioBaseChar@@V?$allocator@PAVioBaseChar@@@std@@@std@@@std@@QAE@PAPAVioBaseChar@@PBU_Container_base0@1@@Z ENDP ; std::_Vector_const_iterator<std::_Vector_val<ioBaseChar *,std::allocator<ioBaseChar *> > >::_Vector_const_iterator<std::_Vector_val<ioBaseChar *,std::allocator<ioBaseChar *> > >
_TEXT	ENDS
PUBLIC	?_Compat@?$_Vector_const_iterator@V?$_Vector_val@PAVioBaseChar@@V?$allocator@PAVioBaseChar@@@std@@@std@@@std@@QBEXABV12@@Z ; std::_Vector_const_iterator<std::_Vector_val<ioBaseChar *,std::allocator<ioBaseChar *> > >::_Compat
; Function compile flags: /Ogsp
;	COMDAT ?_Compat@?$_Vector_const_iterator@V?$_Vector_val@PAVioBaseChar@@V?$allocator@PAVioBaseChar@@@std@@@std@@@std@@QBEXABV12@@Z
_TEXT	SEGMENT
___formal$ = 8						; size = 4
?_Compat@?$_Vector_const_iterator@V?$_Vector_val@PAVioBaseChar@@V?$allocator@PAVioBaseChar@@@std@@@std@@@std@@QBEXABV12@@Z PROC ; std::_Vector_const_iterator<std::_Vector_val<ioBaseChar *,std::allocator<ioBaseChar *> > >::_Compat, COMDAT
; _this$ = ecx

; 253  : 		}

  00000	c2 04 00	 ret	 4
?_Compat@?$_Vector_const_iterator@V?$_Vector_val@PAVioBaseChar@@V?$allocator@PAVioBaseChar@@@std@@@std@@@std@@QBEXABV12@@Z ENDP ; std::_Vector_const_iterator<std::_Vector_val<ioBaseChar *,std::allocator<ioBaseChar *> > >::_Compat
_TEXT	ENDS
PUBLIC	??0D3DXVECTOR3@@QAE@XZ				; D3DXVECTOR3::D3DXVECTOR3
; Function compile flags: /Ogsp
; File c:\program files (x86)\microsoft directx sdk (june 2010)\include\d3dx9math.h
;	COMDAT ??0D3DXVECTOR3@@QAE@XZ
_TEXT	SEGMENT
??0D3DXVECTOR3@@QAE@XZ PROC				; D3DXVECTOR3::D3DXVECTOR3, COMDAT
; _this$ = ecx

; 165  :     D3DXVECTOR3() {};

  00000	8b c1		 mov	 eax, ecx
  00002	c3		 ret	 0
??0D3DXVECTOR3@@QAE@XZ ENDP				; D3DXVECTOR3::D3DXVECTOR3
_TEXT	ENDS
PUBLIC	??0D3DXVECTOR3@@QAE@MMM@Z			; D3DXVECTOR3::D3DXVECTOR3
; Function compile flags: /Ogsp
; File c:\program files (x86)\microsoft directx sdk (june 2010)\include\d3dx9math.inl
;	COMDAT ??0D3DXVECTOR3@@QAE@MMM@Z
_TEXT	SEGMENT
_fx$ = 8						; size = 4
_fy$ = 12						; size = 4
_fz$ = 16						; size = 4
??0D3DXVECTOR3@@QAE@MMM@Z PROC				; D3DXVECTOR3::D3DXVECTOR3, COMDAT
; _this$ = ecx

; 303  : {

  00000	55		 push	 ebp
  00001	8b ec		 mov	 ebp, esp

; 304  :     x = fx;

  00003	f3 0f 10 45 08	 movss	 xmm0, DWORD PTR _fx$[ebp]
  00008	8b c1		 mov	 eax, ecx
  0000a	f3 0f 11 00	 movss	 DWORD PTR [eax], xmm0

; 305  :     y = fy;

  0000e	f3 0f 10 45 0c	 movss	 xmm0, DWORD PTR _fy$[ebp]
  00013	f3 0f 11 40 04	 movss	 DWORD PTR [eax+4], xmm0

; 306  :     z = fz;

  00018	f3 0f 10 45 10	 movss	 xmm0, DWORD PTR _fz$[ebp]
  0001d	f3 0f 11 40 08	 movss	 DWORD PTR [eax+8], xmm0

; 307  : }

  00022	5d		 pop	 ebp
  00023	c2 0c 00	 ret	 12			; 0000000cH
??0D3DXVECTOR3@@QAE@MMM@Z ENDP				; D3DXVECTOR3::D3DXVECTOR3
_TEXT	ENDS
PUBLIC	??HD3DXVECTOR3@@QBE?AU0@ABU0@@Z			; D3DXVECTOR3::operator+
; Function compile flags: /Ogsp
;	COMDAT ??HD3DXVECTOR3@@QBE?AU0@ABU0@@Z
_TEXT	SEGMENT
___$ReturnUdt$ = 8					; size = 4
_v$ = 12						; size = 4
??HD3DXVECTOR3@@QBE?AU0@ABU0@@Z PROC			; D3DXVECTOR3::operator+, COMDAT
; _this$ = ecx

; 380  : {

  00000	55		 push	 ebp
  00001	8b ec		 mov	 ebp, esp

; 381  :     return D3DXVECTOR3(x + v.x, y + v.y, z + v.z);

  00003	8b 55 0c	 mov	 edx, DWORD PTR _v$[ebp]
  00006	f3 0f 10 02	 movss	 xmm0, DWORD PTR [edx]
  0000a	f3 0f 10 09	 movss	 xmm1, DWORD PTR [ecx]
  0000e	8b 45 08	 mov	 eax, DWORD PTR ___$ReturnUdt$[ebp]
  00011	0f 5a c0	 cvtps2pd xmm0, xmm0
  00014	0f 5a c9	 cvtps2pd xmm1, xmm1
  00017	f2 0f 58 c1	 addsd	 xmm0, xmm1
  0001b	f3 0f 10 49 04	 movss	 xmm1, DWORD PTR [ecx+4]
  00020	66 0f 5a c0	 cvtpd2ps xmm0, xmm0
  00024	f3 0f 11 00	 movss	 DWORD PTR [eax], xmm0
  00028	f3 0f 10 42 04	 movss	 xmm0, DWORD PTR [edx+4]
  0002d	0f 5a c0	 cvtps2pd xmm0, xmm0
  00030	0f 5a c9	 cvtps2pd xmm1, xmm1
  00033	f2 0f 58 c1	 addsd	 xmm0, xmm1
  00037	f3 0f 10 49 08	 movss	 xmm1, DWORD PTR [ecx+8]
  0003c	66 0f 5a c0	 cvtpd2ps xmm0, xmm0
  00040	f3 0f 11 40 04	 movss	 DWORD PTR [eax+4], xmm0
  00045	f3 0f 10 42 08	 movss	 xmm0, DWORD PTR [edx+8]
  0004a	0f 5a c0	 cvtps2pd xmm0, xmm0
  0004d	0f 5a c9	 cvtps2pd xmm1, xmm1
  00050	f2 0f 58 c1	 addsd	 xmm0, xmm1
  00054	66 0f 5a c0	 cvtpd2ps xmm0, xmm0
  00058	f3 0f 11 40 08	 movss	 DWORD PTR [eax+8], xmm0

; 382  : }

  0005d	5d		 pop	 ebp
  0005e	c2 08 00	 ret	 8
??HD3DXVECTOR3@@QBE?AU0@ABU0@@Z ENDP			; D3DXVECTOR3::operator+
_TEXT	ENDS
PUBLIC	??GD3DXVECTOR3@@QBE?AU0@ABU0@@Z			; D3DXVECTOR3::operator-
; Function compile flags: /Ogsp
;	COMDAT ??GD3DXVECTOR3@@QBE?AU0@ABU0@@Z
_TEXT	SEGMENT
___$ReturnUdt$ = 8					; size = 4
_v$ = 12						; size = 4
??GD3DXVECTOR3@@QBE?AU0@ABU0@@Z PROC			; D3DXVECTOR3::operator-, COMDAT
; _this$ = ecx

; 386  : {

  00000	55		 push	 ebp
  00001	8b ec		 mov	 ebp, esp

; 387  :     return D3DXVECTOR3(x - v.x, y - v.y, z - v.z);

  00003	8b 55 0c	 mov	 edx, DWORD PTR _v$[ebp]
  00006	f3 0f 10 01	 movss	 xmm0, DWORD PTR [ecx]
  0000a	f3 0f 10 0a	 movss	 xmm1, DWORD PTR [edx]
  0000e	8b 45 08	 mov	 eax, DWORD PTR ___$ReturnUdt$[ebp]
  00011	0f 5a c0	 cvtps2pd xmm0, xmm0
  00014	0f 5a c9	 cvtps2pd xmm1, xmm1
  00017	f2 0f 5c c1	 subsd	 xmm0, xmm1
  0001b	f3 0f 10 4a 04	 movss	 xmm1, DWORD PTR [edx+4]
  00020	66 0f 5a c0	 cvtpd2ps xmm0, xmm0
  00024	f3 0f 11 00	 movss	 DWORD PTR [eax], xmm0
  00028	f3 0f 10 41 04	 movss	 xmm0, DWORD PTR [ecx+4]
  0002d	0f 5a c0	 cvtps2pd xmm0, xmm0
  00030	0f 5a c9	 cvtps2pd xmm1, xmm1
  00033	f2 0f 5c c1	 subsd	 xmm0, xmm1
  00037	f3 0f 10 4a 08	 movss	 xmm1, DWORD PTR [edx+8]
  0003c	66 0f 5a c0	 cvtpd2ps xmm0, xmm0
  00040	f3 0f 11 40 04	 movss	 DWORD PTR [eax+4], xmm0
  00045	f3 0f 10 41 08	 movss	 xmm0, DWORD PTR [ecx+8]
  0004a	0f 5a c0	 cvtps2pd xmm0, xmm0
  0004d	0f 5a c9	 cvtps2pd xmm1, xmm1
  00050	f2 0f 5c c1	 subsd	 xmm0, xmm1
  00054	66 0f 5a c0	 cvtpd2ps xmm0, xmm0
  00058	f3 0f 11 40 08	 movss	 DWORD PTR [eax+8], xmm0

; 388  : }

  0005d	5d		 pop	 ebp
  0005e	c2 08 00	 ret	 8
??GD3DXVECTOR3@@QBE?AU0@ABU0@@Z ENDP			; D3DXVECTOR3::operator-
_TEXT	ENDS
PUBLIC	??9D3DXVECTOR3@@QBEHABU0@@Z			; D3DXVECTOR3::operator!=
; Function compile flags: /Ogsp
;	COMDAT ??9D3DXVECTOR3@@QBEHABU0@@Z
_TEXT	SEGMENT
_v$ = 8							; size = 4
??9D3DXVECTOR3@@QBEHABU0@@Z PROC			; D3DXVECTOR3::operator!=, COMDAT
; _this$ = ecx

; 419  : {

  00000	55		 push	 ebp
  00001	8b ec		 mov	 ebp, esp

; 420  :     return x != v.x || y != v.y || z != v.z;

  00003	8b 55 08	 mov	 edx, DWORD PTR _v$[ebp]
  00006	f3 0f 10 01	 movss	 xmm0, DWORD PTR [ecx]
  0000a	f3 0f 10 0a	 movss	 xmm1, DWORD PTR [edx]
  0000e	0f 5a c0	 cvtps2pd xmm0, xmm0
  00011	0f 5a c9	 cvtps2pd xmm1, xmm1
  00014	66 0f 2e c1	 ucomisd xmm0, xmm1
  00018	9f		 lahf
  00019	f6 c4 44	 test	 ah, 68			; 00000044H
  0001c	7a 38		 jp	 SHORT $LN3@operator
  0001e	f3 0f 10 41 04	 movss	 xmm0, DWORD PTR [ecx+4]
  00023	f3 0f 10 4a 04	 movss	 xmm1, DWORD PTR [edx+4]
  00028	0f 5a c0	 cvtps2pd xmm0, xmm0
  0002b	0f 5a c9	 cvtps2pd xmm1, xmm1
  0002e	66 0f 2e c1	 ucomisd xmm0, xmm1
  00032	9f		 lahf
  00033	f6 c4 44	 test	 ah, 68			; 00000044H
  00036	7a 1e		 jp	 SHORT $LN3@operator
  00038	f3 0f 10 41 08	 movss	 xmm0, DWORD PTR [ecx+8]
  0003d	f3 0f 10 4a 08	 movss	 xmm1, DWORD PTR [edx+8]
  00042	0f 5a c0	 cvtps2pd xmm0, xmm0
  00045	0f 5a c9	 cvtps2pd xmm1, xmm1
  00048	66 0f 2e c1	 ucomisd xmm0, xmm1
  0004c	9f		 lahf
  0004d	f6 c4 44	 test	 ah, 68			; 00000044H
  00050	7a 04		 jp	 SHORT $LN3@operator
  00052	33 c0		 xor	 eax, eax
  00054	eb 03		 jmp	 SHORT $LN4@operator
$LN3@operator:
  00056	33 c0		 xor	 eax, eax
  00058	40		 inc	 eax
$LN4@operator:

; 421  : }

  00059	5d		 pop	 ebp
  0005a	c2 04 00	 ret	 4
??9D3DXVECTOR3@@QBEHABU0@@Z ENDP			; D3DXVECTOR3::operator!=
_TEXT	ENDS
PUBLIC	?D3DXVec3Length@@YAMPBUD3DXVECTOR3@@@Z		; D3DXVec3Length
; Function compile flags: /Ogsp
;	COMDAT ?D3DXVec3Length@@YAMPBUD3DXVECTOR3@@@Z
_TEXT	SEGMENT
tv169 = 8						; size = 4
tv160 = 8						; size = 4
_pV$ = 8						; size = 4
?D3DXVec3Length@@YAMPBUD3DXVECTOR3@@@Z PROC		; D3DXVec3Length, COMDAT

; 1710 : {

  00000	55		 push	 ebp
  00001	8b ec		 mov	 ebp, esp

; 1711 : #ifdef D3DX_DEBUG
; 1712 :     if(!pV)
; 1713 :         return 0.0f;
; 1714 : #endif
; 1715 : 
; 1716 : #ifdef __cplusplus
; 1717 :     return sqrtf(pV->x * pV->x + pV->y * pV->y + pV->z * pV->z);

  00003	8b 45 08	 mov	 eax, DWORD PTR _pV$[ebp]
  00006	d9 40 04	 fld	 DWORD PTR [eax+4]
  00009	d9 00		 fld	 DWORD PTR [eax]
  0000b	d9 40 08	 fld	 DWORD PTR [eax+8]
  0000e	d9 c1		 fld	 ST(1)
  00010	de ca		 fmulp	 ST(2), ST(0)
  00012	d9 c2		 fld	 ST(2)
  00014	de cb		 fmulp	 ST(3), ST(0)
  00016	d9 c9		 fxch	 ST(1)
  00018	de c2		 faddp	 ST(2), ST(0)
  0001a	d9 c0		 fld	 ST(0)
  0001c	de c9		 fmulp	 ST(1), ST(0)
  0001e	de c1		 faddp	 ST(1), ST(0)
  00020	d9 5d 08	 fstp	 DWORD PTR tv169[ebp]
  00023	d9 45 08	 fld	 DWORD PTR tv169[ebp]
  00026	e8 00 00 00 00	 call	 __CIsqrt
  0002b	d9 5d 08	 fstp	 DWORD PTR tv160[ebp]
  0002e	d9 45 08	 fld	 DWORD PTR tv160[ebp]

; 1718 : #else
; 1719 :     return (FLOAT) sqrt(pV->x * pV->x + pV->y * pV->y + pV->z * pV->z);
; 1720 : #endif
; 1721 : }

  00031	5d		 pop	 ebp
  00032	c3		 ret	 0
?D3DXVec3Length@@YAMPBUD3DXVECTOR3@@@Z ENDP		; D3DXVec3Length
_TEXT	ENDS
PUBLIC	??$addressof@$$CBVioHashString@@@std@@YAPBVioHashString@@ABV1@@Z ; std::addressof<ioHashString const >
; Function compile flags: /Ogsp
; File c:\program files (x86)\microsoft visual studio 10.0\vc\include\xmemory
;	COMDAT ??$addressof@$$CBVioHashString@@@std@@YAPBVioHashString@@ABV1@@Z
_TEXT	SEGMENT
__Val$ = 8						; size = 4
??$addressof@$$CBVioHashString@@@std@@YAPBVioHashString@@ABV1@@Z PROC ; std::addressof<ioHashString const >, COMDAT

; 110  : 	{	// return address of _Val

  00000	55		 push	 ebp
  00001	8b ec		 mov	 ebp, esp

; 111  : 	return ((_Ty *) &(char&)_Val);

  00003	8b 45 08	 mov	 eax, DWORD PTR __Val$[ebp]

; 112  : 	}

  00006	5d		 pop	 ebp
  00007	c3		 ret	 0
??$addressof@$$CBVioHashString@@@std@@YAPBVioHashString@@ABV1@@Z ENDP ; std::addressof<ioHashString const >
_TEXT	ENDS
PUBLIC	??$_Val_type@PAVioHashString@@@std@@YAPAVioHashString@@PAV1@@Z ; std::_Val_type<ioHashString *>
; Function compile flags: /Ogsp
; File c:\program files (x86)\microsoft visual studio 10.0\vc\include\xutility
;	COMDAT ??$_Val_type@PAVioHashString@@@std@@YAPAVioHashString@@PAV1@@Z
_TEXT	SEGMENT
___formal$ = 8						; size = 4
??$_Val_type@PAVioHashString@@@std@@YAPAVioHashString@@PAV1@@Z PROC ; std::_Val_type<ioHashString *>, COMDAT

; 790  : 	return (0);

  00000	33 c0		 xor	 eax, eax

; 791  : 	}

  00002	c3		 ret	 0
??$_Val_type@PAVioHashString@@@std@@YAPAVioHashString@@PAV1@@Z ENDP ; std::_Val_type<ioHashString *>
_TEXT	ENDS
PUBLIC	??$forward@VioHashString@@@std@@YA$$QAVioHashString@@AAV1@@Z ; std::forward<ioHashString>
; Function compile flags: /Ogsp
; File c:\program files (x86)\microsoft visual studio 10.0\vc\include\utility
;	COMDAT ??$forward@VioHashString@@@std@@YA$$QAVioHashString@@AAV1@@Z
_TEXT	SEGMENT
__Arg$ = 8						; size = 4
??$forward@VioHashString@@@std@@YA$$QAVioHashString@@AAV1@@Z PROC ; std::forward<ioHashString>, COMDAT

; 78   : 	{	// forward _Arg, given explicitly specified type parameter

  00000	55		 push	 ebp
  00001	8b ec		 mov	 ebp, esp

; 79   : 	return ((_Ty&&)_Arg);

  00003	8b 45 08	 mov	 eax, DWORD PTR __Arg$[ebp]

; 80   : 	}

  00006	5d		 pop	 ebp
  00007	c3		 ret	 0
??$forward@VioHashString@@@std@@YA$$QAVioHashString@@AAV1@@Z ENDP ; std::forward<ioHashString>
_TEXT	ENDS
PUBLIC	?_DECSTR@@YAXPADH@Z				; _DECSTR
; Function compile flags: /Ogsp
; File d:\lost saga for developer\youtube\tutorial\source\src\lsclient\stringprotect.h
;	COMDAT ?_DECSTR@@YAXPADH@Z
_TEXT	SEGMENT
_s$ = 8							; size = 4
_l$ = 12						; size = 4
?_DECSTR@@YAXPADH@Z PROC				; _DECSTR, COMDAT

; 40   : __forceinline void _DECSTR(char* s, int l){int i=0,l4=(l-1)/4,*p=(int*)s;s[l-1]=0;for(;i<l4;++i)*(p++)^=0xEAEBECED;for(i=l4*4;i<l-1;++i)s[i]^=0xED-i%4;}

  00000	55		 push	 ebp
  00001	8b ec		 mov	 ebp, esp
  00003	8b 4d 0c	 mov	 ecx, DWORD PTR _l$[ebp]
  00006	56		 push	 esi
  00007	8b 75 08	 mov	 esi, DWORD PTR _s$[ebp]
  0000a	57		 push	 edi
  0000b	8d 79 ff	 lea	 edi, DWORD PTR [ecx-1]
  0000e	8b c7		 mov	 eax, edi
  00010	99		 cdq
  00011	83 e2 03	 and	 edx, 3
  00014	03 c2		 add	 eax, edx
  00016	c1 f8 02	 sar	 eax, 2
  00019	8b d6		 mov	 edx, esi
  0001b	c6 44 0e ff 00	 mov	 BYTE PTR [esi+ecx-1], 0
  00020	85 c0		 test	 eax, eax
  00022	7e 0e		 jle	 SHORT $LN4@DECSTR
  00024	8b c8		 mov	 ecx, eax
$LL6@DECSTR:
  00026	81 32 ed ec eb
	ea		 xor	 DWORD PTR [edx], -353637139 ; eaebecedH
  0002c	83 c2 04	 add	 edx, 4
  0002f	49		 dec	 ecx
  00030	75 f4		 jne	 SHORT $LL6@DECSTR
$LN4@DECSTR:
  00032	c1 e0 02	 shl	 eax, 2
  00035	eb 17		 jmp	 SHORT $LN14@DECSTR
$LL3@DECSTR:
  00037	8b c8		 mov	 ecx, eax
  00039	81 e1 03 00 00
	80		 and	 ecx, -2147483645	; 80000003H
  0003f	79 05		 jns	 SHORT $LN13@DECSTR
  00041	49		 dec	 ecx
  00042	83 c9 fc	 or	 ecx, -4			; fffffffcH
  00045	41		 inc	 ecx
$LN13@DECSTR:
  00046	b2 ed		 mov	 dl, -19			; ffffffedH
  00048	2a d1		 sub	 dl, cl
  0004a	30 14 30	 xor	 BYTE PTR [eax+esi], dl
  0004d	40		 inc	 eax
$LN14@DECSTR:
  0004e	3b c7		 cmp	 eax, edi
  00050	7c e5		 jl	 SHORT $LL3@DECSTR
  00052	5f		 pop	 edi
  00053	5e		 pop	 esi
  00054	5d		 pop	 ebp
  00055	c3		 ret	 0
?_DECSTR@@YAXPADH@Z ENDP				; _DECSTR
_TEXT	ENDS
PUBLIC	?GetGroup@ioGameEntity@@QBEPAVioEntityGroup@@XZ	; ioGameEntity::GetGroup
; Function compile flags: /Ogsp
; File d:\lost saga for developer\youtube\tutorial\source\src\lsclient\iogameentity.h
;	COMDAT ?GetGroup@ioGameEntity@@QBEPAVioEntityGroup@@XZ
_TEXT	SEGMENT
?GetGroup@ioGameEntity@@QBEPAVioEntityGroup@@XZ PROC	; ioGameEntity::GetGroup, COMDAT
; _this$ = ecx

; 166  : 	inline ioEntityGroup* GetGroup() const { return m_pGroup; }

  00000	8b 41 04	 mov	 eax, DWORD PTR [ecx+4]
  00003	c3		 ret	 0
?GetGroup@ioGameEntity@@QBEPAVioEntityGroup@@XZ ENDP	; ioGameEntity::GetGroup
_TEXT	ENDS
PUBLIC	??0FireTime@@QAE@XZ				; FireTime::FireTime
EXTRN	__imp_??0ioHashString@@QAE@XZ:PROC
;	COMDAT xdata$x
; File d:\lost saga for developer\youtube\tutorial\source\src\lsclient\playentityhelpstruct.h
xdata$x	SEGMENT
__unwindtable$??0FireTime@@QAE@XZ DD 0ffffffffH
	DD	FLAT:__unwindfunclet$??0FireTime@@QAE@XZ$0
	DD	00H
	DD	FLAT:__unwindfunclet$??0FireTime@@QAE@XZ$1
__ehfuncinfo$??0FireTime@@QAE@XZ DD 019930522H
	DD	02H
	DD	FLAT:__unwindtable$??0FireTime@@QAE@XZ
	DD	2 DUP(00H)
	DD	2 DUP(00H)
	DD	00H
	DD	01H
; Function compile flags: /Ogsp
xdata$x	ENDS
;	COMDAT ??0FireTime@@QAE@XZ
_TEXT	SEGMENT
_this$ = -16						; size = 4
__$EHRec$ = -12						; size = 12
??0FireTime@@QAE@XZ PROC				; FireTime::FireTime, COMDAT
; _this$ = ecx

; 219  : 	FireTime()

  00000	6a 04		 push	 4
  00002	b8 00 00 00 00	 mov	 eax, __ehhandler$??0FireTime@@QAE@XZ
  00007	e8 00 00 00 00	 call	 __EH_prolog3
  0000c	8b f1		 mov	 esi, ecx
  0000e	89 75 f0	 mov	 DWORD PTR _this$[ebp], esi
  00011	8b 3d 00 00 00
	00		 mov	 edi, DWORD PTR __imp_??0ioHashString@@QAE@XZ
  00017	8d 4e 14	 lea	 ecx, DWORD PTR [esi+20]
  0001a	ff d7		 call	 edi
  0001c	33 db		 xor	 ebx, ebx
  0001e	8d 4e 30	 lea	 ecx, DWORD PTR [esi+48]
  00021	89 5d fc	 mov	 DWORD PTR __$EHRec$[ebp+8], ebx
  00024	ff d7		 call	 edi
  00026	8d 4e 44	 lea	 ecx, DWORD PTR [esi+68]
  00029	c6 45 fc 01	 mov	 BYTE PTR __$EHRec$[ebp+8], 1
  0002d	ff d7		 call	 edi

; 220  : 	{
; 221  : 		dwStart = 0;

  0002f	89 1e		 mov	 DWORD PTR [esi], ebx

; 222  : 		dwDuration = 0;

  00031	89 5e 04	 mov	 DWORD PTR [esi+4], ebx

; 223  : 
; 224  : 		iAttributeIdx = 0;

  00034	89 5e 08	 mov	 DWORD PTR [esi+8], ebx

; 225  : 		iResistanceIdx = 0;

  00037	89 5e 0c	 mov	 DWORD PTR [esi+12], ebx

; 226  : 
; 227  : 		bLoopWoundedAni = false;

  0003a	88 5e 10	 mov	 BYTE PTR [esi+16], bl

; 228  : 		dwWoundedAniDuration = 0;

  0003d	89 5e 24	 mov	 DWORD PTR [esi+36], ebx

; 229  : 
; 230  : 		dwWeaponIdx = 0;

  00040	89 5e 28	 mov	 DWORD PTR [esi+40], ebx

; 231  : 		eCollisionType = ACT_NONE;

  00043	c7 46 2c 06 00
	00 00		 mov	 DWORD PTR [esi+44], 6

; 232  : 		eFireTimeType = FTT_NORMAL_ATTACK;

  0004a	89 5e 40	 mov	 DWORD PTR [esi+64], ebx

; 233  : 
; 234  : 		m_iExtraValue = 0;

  0004d	89 5e 54	 mov	 DWORD PTR [esi+84], ebx

; 235  : 	}

  00050	8b c6		 mov	 eax, esi
  00052	e8 00 00 00 00	 call	 __EH_epilog3
  00057	c3		 ret	 0
_TEXT	ENDS
;	COMDAT text$x
text$x	SEGMENT
__unwindfunclet$??0FireTime@@QAE@XZ$0:
  00000	8b 4d f0	 mov	 ecx, DWORD PTR _this$[ebp]
  00003	83 c1 14	 add	 ecx, 20			; 00000014H
  00006	ff 25 00 00 00
	00		 jmp	 DWORD PTR __imp_??1ioHashString@@QAE@XZ
__unwindfunclet$??0FireTime@@QAE@XZ$1:
  0000c	8b 4d f0	 mov	 ecx, DWORD PTR _this$[ebp]
  0000f	83 c1 30	 add	 ecx, 48			; 00000030H
  00012	ff 25 00 00 00
	00		 jmp	 DWORD PTR __imp_??1ioHashString@@QAE@XZ
__ehhandler$??0FireTime@@QAE@XZ:
  00018	8b 54 24 08	 mov	 edx, DWORD PTR [esp+8]
  0001c	8d 42 0c	 lea	 eax, DWORD PTR [edx+12]
  0001f	8b 4a ec	 mov	 ecx, DWORD PTR [edx-20]
  00022	33 c8		 xor	 ecx, eax
  00024	e8 00 00 00 00	 call	 @__security_check_cookie@4
  00029	b8 00 00 00 00	 mov	 eax, OFFSET __ehfuncinfo$??0FireTime@@QAE@XZ
  0002e	e9 00 00 00 00	 jmp	 ___CxxFrameHandler3
text$x	ENDS
??0FireTime@@QAE@XZ ENDP				; FireTime::FireTime
PUBLIC	?GetCECode@ioCameraEvent@@QBEKXZ		; ioCameraEvent::GetCECode
; Function compile flags: /Ogsp
; File d:\lost saga for developer\youtube\tutorial\source\src\lsclient\iocameraevent.h
;	COMDAT ?GetCECode@ioCameraEvent@@QBEKXZ
_TEXT	SEGMENT
?GetCECode@ioCameraEvent@@QBEKXZ PROC			; ioCameraEvent::GetCECode, COMDAT
; _this$ = ecx

; 50   : 	inline DWORD GetCECode() const { return m_iEventCode; }

  00000	8b 41 08	 mov	 eax, DWORD PTR [ecx+8]
  00003	c3		 ret	 0
?GetCECode@ioCameraEvent@@QBEKXZ ENDP			; ioCameraEvent::GetCECode
_TEXT	ENDS
PUBLIC	?GetCurCameraEvent@ioCameraEventManager@@QBEPAVioCameraEvent@@XZ ; ioCameraEventManager::GetCurCameraEvent
; Function compile flags: /Ogsp
; File d:\lost saga for developer\youtube\tutorial\source\src\lsclient\iocameraeventmanager.h
;	COMDAT ?GetCurCameraEvent@ioCameraEventManager@@QBEPAVioCameraEvent@@XZ
_TEXT	SEGMENT
?GetCurCameraEvent@ioCameraEventManager@@QBEPAVioCameraEvent@@XZ PROC ; ioCameraEventManager::GetCurCameraEvent, COMDAT
; _this$ = ecx

; 33   : 	inline ioCameraEvent* GetCurCameraEvent() const { return m_pCameraEvent; }

  00000	8b 41 10	 mov	 eax, DWORD PTR [ecx+16]
  00003	c3		 ret	 0
?GetCurCameraEvent@ioCameraEventManager@@QBEPAVioCameraEvent@@XZ ENDP ; ioCameraEventManager::GetCurCameraEvent
_TEXT	ENDS
PUBLIC	?GetTypeID@ioBuff@@QBEHXZ			; ioBuff::GetTypeID
; Function compile flags: /Ogsp
; File d:\lost saga for developer\youtube\tutorial\source\src\lsclient\iobuff.h
;	COMDAT ?GetTypeID@ioBuff@@QBEHXZ
_TEXT	SEGMENT
?GetTypeID@ioBuff@@QBEHXZ PROC				; ioBuff::GetTypeID, COMDAT
; _this$ = ecx

; 424  : 	inline int GetTypeID() const { return m_iBuffType; }

  00000	8b 81 cc 03 00
	00		 mov	 eax, DWORD PTR [ecx+972]
  00006	c3		 ret	 0
?GetTypeID@ioBuff@@QBEHXZ ENDP				; ioBuff::GetTypeID
_TEXT	ENDS
PUBLIC	?GetName@ioBuff@@QBEABVioHashString@@XZ		; ioBuff::GetName
; Function compile flags: /Ogsp
;	COMDAT ?GetName@ioBuff@@QBEABVioHashString@@XZ
_TEXT	SEGMENT
?GetName@ioBuff@@QBEABVioHashString@@XZ PROC		; ioBuff::GetName, COMDAT
; _this$ = ecx

; 440  : 	inline const ioHashString& GetName() const { return m_Name; }

  00000	8d 81 34 02 00
	00		 lea	 eax, DWORD PTR [ecx+564]
  00006	c3		 ret	 0
?GetName@ioBuff@@QBEABVioHashString@@XZ ENDP		; ioBuff::GetName
_TEXT	ENDS
PUBLIC	?GetCreatorName@ioBuff@@QBEABVioHashString@@XZ	; ioBuff::GetCreatorName
; Function compile flags: /Ogsp
;	COMDAT ?GetCreatorName@ioBuff@@QBEABVioHashString@@XZ
_TEXT	SEGMENT
?GetCreatorName@ioBuff@@QBEABVioHashString@@XZ PROC	; ioBuff::GetCreatorName, COMDAT
; _this$ = ecx

; 442  : 	inline const ioHashString& GetCreatorName() const { return m_CreateChar; }

  00000	8d 81 88 02 00
	00		 lea	 eax, DWORD PTR [ecx+648]
  00006	c3		 ret	 0
?GetCreatorName@ioBuff@@QBEABVioHashString@@XZ ENDP	; ioBuff::GetCreatorName
_TEXT	ENDS
PUBLIC	?size@?$vector@VioHashString@@V?$allocator@VioHashString@@@std@@@std@@QBEIXZ ; std::vector<ioHashString,std::allocator<ioHashString> >::size
; Function compile flags: /Ogsp
; File c:\program files (x86)\microsoft visual studio 10.0\vc\include\vector
;	COMDAT ?size@?$vector@VioHashString@@V?$allocator@VioHashString@@@std@@@std@@QBEIXZ
_TEXT	SEGMENT
?size@?$vector@VioHashString@@V?$allocator@VioHashString@@@std@@@std@@QBEIXZ PROC ; std::vector<ioHashString,std::allocator<ioHashString> >::size, COMDAT
; _this$ = ecx

; 879  : 		return (this->_Mylast - this->_Myfirst);

  00000	8b 41 04	 mov	 eax, DWORD PTR [ecx+4]
  00003	2b 01		 sub	 eax, DWORD PTR [ecx]
  00005	c1 f8 04	 sar	 eax, 4

; 880  : 		}

  00008	c3		 ret	 0
?size@?$vector@VioHashString@@V?$allocator@VioHashString@@@std@@@std@@QBEIXZ ENDP ; std::vector<ioHashString,std::allocator<ioHashString> >::size
_TEXT	ENDS
PUBLIC	??1?$_Vector_val@VioHashString@@V?$allocator@VioHashString@@@std@@@std@@QAE@XZ ; std::_Vector_val<ioHashString,std::allocator<ioHashString> >::~_Vector_val<ioHashString,std::allocator<ioHashString> >
; Function compile flags: /Ogsp
;	COMDAT ??1?$_Vector_val@VioHashString@@V?$allocator@VioHashString@@@std@@@std@@QAE@XZ
_TEXT	SEGMENT
??1?$_Vector_val@VioHashString@@V?$allocator@VioHashString@@@std@@@std@@QAE@XZ PROC ; std::_Vector_val<ioHashString,std::allocator<ioHashString> >::~_Vector_val<ioHashString,std::allocator<ioHashString> >, COMDAT
; _this$ = ecx

; 434  : 		}

  00000	c3		 ret	 0
??1?$_Vector_val@VioHashString@@V?$allocator@VioHashString@@@std@@@std@@QAE@XZ ENDP ; std::_Vector_val<ioHashString,std::allocator<ioHashString> >::~_Vector_val<ioHashString,std::allocator<ioHashString> >
_TEXT	ENDS
PUBLIC	??0?$allocator@VioHashString@@@std@@QAE@XZ	; std::allocator<ioHashString>::allocator<ioHashString>
; Function compile flags: /Ogsp
; File c:\program files (x86)\microsoft visual studio 10.0\vc\include\xmemory
;	COMDAT ??0?$allocator@VioHashString@@@std@@QAE@XZ
_TEXT	SEGMENT
??0?$allocator@VioHashString@@@std@@QAE@XZ PROC		; std::allocator<ioHashString>::allocator<ioHashString>, COMDAT
; _this$ = ecx

; 161  : 	_ALLOCATOR() _THROW0()

  00000	8b c1		 mov	 eax, ecx

; 162  : 		{	// construct default allocator (do nothing)
; 163  : 		}

  00002	c3		 ret	 0
??0?$allocator@VioHashString@@@std@@QAE@XZ ENDP		; std::allocator<ioHashString>::allocator<ioHashString>
_TEXT	ENDS
PUBLIC	??0?$allocator@VioHashString@@@std@@QAE@ABV01@@Z ; std::allocator<ioHashString>::allocator<ioHashString>
; Function compile flags: /Ogsp
;	COMDAT ??0?$allocator@VioHashString@@@std@@QAE@ABV01@@Z
_TEXT	SEGMENT
___formal$ = 8						; size = 4
??0?$allocator@VioHashString@@@std@@QAE@ABV01@@Z PROC	; std::allocator<ioHashString>::allocator<ioHashString>, COMDAT
; _this$ = ecx

; 165  : 	_ALLOCATOR(const _ALLOCATOR<_Ty>&) _THROW0()

  00000	8b c1		 mov	 eax, ecx

; 166  : 		{	// construct by copying (do nothing)
; 167  : 		}

  00002	c2 04 00	 ret	 4
??0?$allocator@VioHashString@@@std@@QAE@ABV01@@Z ENDP	; std::allocator<ioHashString>::allocator<ioHashString>
_TEXT	ENDS
PUBLIC	?DecryptValueToPool@?$CEncrypt@M@@QAEXPAM@Z	; CEncrypt<float>::DecryptValueToPool
EXTRN	?DecryptByte@ccddaabb@@QBEXPBDPADH@Z:PROC	; ccddaabb::DecryptByte
; Function compile flags: /Ogsp
; File d:\lost saga for developer\youtube\tutorial\source\src\lsclient\encryptvalue.h
;	COMDAT ?DecryptValueToPool@?$CEncrypt@M@@QAEXPAM@Z
_TEXT	SEGMENT
_value$ = 8						; size = 4
?DecryptValueToPool@?$CEncrypt@M@@QAEXPAM@Z PROC	; CEncrypt<float>::DecryptValueToPool, COMDAT
; _this$ = ecx

; 1648 : 	{

  00000	55		 push	 ebp
  00001	8b ec		 mov	 ebp, esp
  00003	56		 push	 esi

; 1649 : 		m_RC5.DecryptByte( m_MemPool, m_TempMem, 4 );

  00004	8d 71 28	 lea	 esi, DWORD PTR [ecx+40]
  00007	6a 04		 push	 4
  00009	8d 41 1c	 lea	 eax, DWORD PTR [ecx+28]
  0000c	56		 push	 esi
  0000d	50		 push	 eax
  0000e	83 c1 0c	 add	 ecx, 12			; 0000000cH
  00011	e8 00 00 00 00	 call	 ?DecryptByte@ccddaabb@@QBEXPBDPADH@Z ; ccddaabb::DecryptByte

; 1650 : 		*value = *((float*)m_TempMem);

  00016	d9 06		 fld	 DWORD PTR [esi]
  00018	8b 45 08	 mov	 eax, DWORD PTR _value$[ebp]
  0001b	d9 18		 fstp	 DWORD PTR [eax]
  0001d	5e		 pop	 esi

; 1651 : 	}

  0001e	5d		 pop	 ebp
  0001f	c2 04 00	 ret	 4
?DecryptValueToPool@?$CEncrypt@M@@QAEXPAM@Z ENDP	; CEncrypt<float>::DecryptValueToPool
_TEXT	ENDS
PUBLIC	?EncryptValueToPool@?$CEncrypt@K@@AAEXPBD@Z	; CEncrypt<unsigned long>::EncryptValueToPool
EXTRN	?EncryptByte@ccddaabb@@QAEXPBDPADH@Z:PROC	; ccddaabb::EncryptByte
; Function compile flags: /Ogsp
;	COMDAT ?EncryptValueToPool@?$CEncrypt@K@@AAEXPBD@Z
_TEXT	SEGMENT
_value$ = 8						; size = 4
?EncryptValueToPool@?$CEncrypt@K@@AAEXPBD@Z PROC	; CEncrypt<unsigned long>::EncryptValueToPool, COMDAT
; _this$ = ecx

; 67   : 	{

  00000	55		 push	 ebp
  00001	8b ec		 mov	 ebp, esp

; 68   : 		m_RC5.EncryptByte( value, m_MemPool, max(m_ValueSize, DEFAULT_ENCRYPT) );

  00003	0f b7 41 06	 movzx	 eax, WORD PTR [ecx+6]
  00007	83 f8 04	 cmp	 eax, 4
  0000a	77 03		 ja	 SHORT $LN4@EncryptVal
  0000c	6a 04		 push	 4
  0000e	58		 pop	 eax
$LN4@EncryptVal:
  0000f	50		 push	 eax
  00010	8d 41 1c	 lea	 eax, DWORD PTR [ecx+28]
  00013	50		 push	 eax
  00014	ff 75 08	 push	 DWORD PTR _value$[ebp]
  00017	83 c1 0c	 add	 ecx, 12			; 0000000cH
  0001a	e8 00 00 00 00	 call	 ?EncryptByte@ccddaabb@@QAEXPBDPADH@Z ; ccddaabb::EncryptByte

; 69   : 		
; 70   : 	}

  0001f	5d		 pop	 ebp
  00020	c2 04 00	 ret	 4
?EncryptValueToPool@?$CEncrypt@K@@AAEXPBD@Z ENDP	; CEncrypt<unsigned long>::EncryptValueToPool
_TEXT	ENDS
PUBLIC	?DecryptValueToPool@?$CEncrypt@K@@QAEXPAK@Z	; CEncrypt<unsigned long>::DecryptValueToPool
; Function compile flags: /Ogsp
;	COMDAT ?DecryptValueToPool@?$CEncrypt@K@@QAEXPAK@Z
_TEXT	SEGMENT
_value$ = 8						; size = 4
?DecryptValueToPool@?$CEncrypt@K@@QAEXPAK@Z PROC	; CEncrypt<unsigned long>::DecryptValueToPool, COMDAT
; _this$ = ecx

; 1256 : 	{

  00000	55		 push	 ebp
  00001	8b ec		 mov	 ebp, esp
  00003	56		 push	 esi

; 1257 : 		m_RC5.DecryptByte( m_MemPool, m_TempMem, 4 );

  00004	8d 71 28	 lea	 esi, DWORD PTR [ecx+40]
  00007	6a 04		 push	 4
  00009	8d 41 1c	 lea	 eax, DWORD PTR [ecx+28]
  0000c	56		 push	 esi
  0000d	50		 push	 eax
  0000e	83 c1 0c	 add	 ecx, 12			; 0000000cH
  00011	e8 00 00 00 00	 call	 ?DecryptByte@ccddaabb@@QBEXPBDPADH@Z ; ccddaabb::DecryptByte

; 1258 : 		*value = *((DWORD*)m_TempMem);

  00016	8b 06		 mov	 eax, DWORD PTR [esi]
  00018	8b 4d 08	 mov	 ecx, DWORD PTR _value$[ebp]
  0001b	89 01		 mov	 DWORD PTR [ecx], eax
  0001d	5e		 pop	 esi

; 1259 : 	}

  0001e	5d		 pop	 ebp
  0001f	c2 04 00	 ret	 4
?DecryptValueToPool@?$CEncrypt@K@@QAEXPAK@Z ENDP	; CEncrypt<unsigned long>::DecryptValueToPool
_TEXT	ENDS
PUBLIC	?DecryptValueToPool@?$CEncrypt@_N@@QAEXPA_N@Z	; CEncrypt<bool>::DecryptValueToPool
; Function compile flags: /Ogsp
;	COMDAT ?DecryptValueToPool@?$CEncrypt@_N@@QAEXPA_N@Z
_TEXT	SEGMENT
_value$ = 8						; size = 4
?DecryptValueToPool@?$CEncrypt@_N@@QAEXPA_N@Z PROC	; CEncrypt<bool>::DecryptValueToPool, COMDAT
; _this$ = ecx

; 219  : 	{

  00000	55		 push	 ebp
  00001	8b ec		 mov	 ebp, esp
  00003	56		 push	 esi

; 220  : 		m_RC5.DecryptByte( m_MemPool, m_TempMem, 4 );

  00004	8d 71 28	 lea	 esi, DWORD PTR [ecx+40]
  00007	6a 04		 push	 4
  00009	8d 41 1c	 lea	 eax, DWORD PTR [ecx+28]
  0000c	56		 push	 esi
  0000d	50		 push	 eax
  0000e	83 c1 0c	 add	 ecx, 12			; 0000000cH
  00011	e8 00 00 00 00	 call	 ?DecryptByte@ccddaabb@@QBEXPBDPADH@Z ; ccddaabb::DecryptByte

; 221  : 		*value = *((bool*)m_TempMem);

  00016	8a 06		 mov	 al, BYTE PTR [esi]
  00018	8b 4d 08	 mov	 ecx, DWORD PTR _value$[ebp]
  0001b	88 01		 mov	 BYTE PTR [ecx], al
  0001d	5e		 pop	 esi

; 222  : 	}

  0001e	5d		 pop	 ebp
  0001f	c2 04 00	 ret	 4
?DecryptValueToPool@?$CEncrypt@_N@@QAEXPA_N@Z ENDP	; CEncrypt<bool>::DecryptValueToPool
_TEXT	ENDS
PUBLIC	??_C@_0BD@OLBABOEK@vector?$DMT?$DO?5too?5long?$AA@ ; `string'
PUBLIC	?_Xlen@?$vector@VioHashString@@V?$allocator@VioHashString@@@std@@@std@@IBEXXZ ; std::vector<ioHashString,std::allocator<ioHashString> >::_Xlen
EXTRN	__imp_?_Xlength_error@std@@YAXPBD@Z:PROC
;	COMDAT ??_C@_0BD@OLBABOEK@vector?$DMT?$DO?5too?5long?$AA@
; File c:\program files (x86)\microsoft visual studio 10.0\vc\include\vector
CONST	SEGMENT
??_C@_0BD@OLBABOEK@vector?$DMT?$DO?5too?5long?$AA@ DB 'vector<T> too long'
	DB	00H						; `string'
; Function compile flags: /Ogsp
CONST	ENDS
;	COMDAT ?_Xlen@?$vector@VioHashString@@V?$allocator@VioHashString@@@std@@@std@@IBEXXZ
_TEXT	SEGMENT
?_Xlen@?$vector@VioHashString@@V?$allocator@VioHashString@@@std@@@std@@IBEXXZ PROC ; std::vector<ioHashString,std::allocator<ioHashString> >::_Xlen, COMDAT
; _this$ = ecx

; 1427 : 		_Xlength_error("vector<T> too long");

  00000	68 00 00 00 00	 push	 OFFSET ??_C@_0BD@OLBABOEK@vector?$DMT?$DO?5too?5long?$AA@
  00005	ff 15 00 00 00
	00		 call	 DWORD PTR __imp_?_Xlength_error@std@@YAXPBD@Z
$LN4@Xlen:
$LN3@Xlen:
  0000b	cc		 int	 3
?_Xlen@?$vector@VioHashString@@V?$allocator@VioHashString@@@std@@@std@@IBEXXZ ENDP ; std::vector<ioHashString,std::allocator<ioHashString> >::_Xlen
_TEXT	ENDS
PUBLIC	?deallocate@?$allocator@VioHashString@@@std@@QAEXPAVioHashString@@I@Z ; std::allocator<ioHashString>::deallocate
; Function compile flags: /Ogsp
; File c:\program files (x86)\microsoft visual studio 10.0\vc\include\xmemory
;	COMDAT ?deallocate@?$allocator@VioHashString@@@std@@QAEXPAVioHashString@@I@Z
_TEXT	SEGMENT
__Ptr$ = 8						; size = 4
___formal$ = 12						; size = 4
?deallocate@?$allocator@VioHashString@@@std@@QAEXPAVioHashString@@I@Z PROC ; std::allocator<ioHashString>::deallocate, COMDAT
; _this$ = ecx

; 181  : 		{	// deallocate object at _Ptr, ignore size

  00000	55		 push	 ebp
  00001	8b ec		 mov	 ebp, esp

; 182  : 		::operator delete(_Ptr);

  00003	ff 75 08	 push	 DWORD PTR __Ptr$[ebp]
  00006	e8 00 00 00 00	 call	 ??3@YAXPAX@Z		; operator delete
  0000b	59		 pop	 ecx

; 183  : 		}

  0000c	5d		 pop	 ebp
  0000d	c2 08 00	 ret	 8
?deallocate@?$allocator@VioHashString@@@std@@QAEXPAVioHashString@@I@Z ENDP ; std::allocator<ioHashString>::deallocate
_TEXT	ENDS
PUBLIC	??0?$_Vector_const_iterator@V?$_Vector_val@VioHashString@@V?$allocator@VioHashString@@@std@@@std@@@std@@QAE@PAVioHashString@@PBU_Container_base0@1@@Z ; std::_Vector_const_iterator<std::_Vector_val<ioHashString,std::allocator<ioHashString> > >::_Vector_const_iterator<std::_Vector_val<ioHashString,std::allocator<ioHashString> > >
; Function compile flags: /Ogsp
; File c:\program files (x86)\microsoft visual studio 10.0\vc\include\vector
;	COMDAT ??0?$_Vector_const_iterator@V?$_Vector_val@VioHashString@@V?$allocator@VioHashString@@@std@@@std@@@std@@QAE@PAVioHashString@@PBU_Container_base0@1@@Z
_TEXT	SEGMENT
__Parg$ = 8						; size = 4
__Pvector$ = 12						; size = 4
??0?$_Vector_const_iterator@V?$_Vector_val@VioHashString@@V?$allocator@VioHashString@@@std@@@std@@@std@@QAE@PAVioHashString@@PBU_Container_base0@1@@Z PROC ; std::_Vector_const_iterator<std::_Vector_val<ioHashString,std::allocator<ioHashString> > >::_Vector_const_iterator<std::_Vector_val<ioHashString,std::allocator<ioHashString> > >, COMDAT
; _this$ = ecx

; 45   : 		{	// construct with pointer _Parg

  00000	55		 push	 ebp
  00001	8b ec		 mov	 ebp, esp
  00003	8b c1		 mov	 eax, ecx
  00005	8b 4d 08	 mov	 ecx, DWORD PTR __Parg$[ebp]
  00008	89 08		 mov	 DWORD PTR [eax], ecx

; 46   : 		this->_Adopt(_Pvector);
; 47   : 		}

  0000a	5d		 pop	 ebp
  0000b	c2 08 00	 ret	 8
??0?$_Vector_const_iterator@V?$_Vector_val@VioHashString@@V?$allocator@VioHashString@@@std@@@std@@@std@@QAE@PAVioHashString@@PBU_Container_base0@1@@Z ENDP ; std::_Vector_const_iterator<std::_Vector_val<ioHashString,std::allocator<ioHashString> > >::_Vector_const_iterator<std::_Vector_val<ioHashString,std::allocator<ioHashString> > >
_TEXT	ENDS
PUBLIC	??0?$_Vector_iterator@V?$_Vector_val@VioHashString@@V?$allocator@VioHashString@@@std@@@std@@@std@@QAE@PAVioHashString@@PBU_Container_base0@1@@Z ; std::_Vector_iterator<std::_Vector_val<ioHashString,std::allocator<ioHashString> > >::_Vector_iterator<std::_Vector_val<ioHashString,std::allocator<ioHashString> > >
; Function compile flags: /Ogsp
;	COMDAT ??0?$_Vector_iterator@V?$_Vector_val@VioHashString@@V?$allocator@VioHashString@@@std@@@std@@@std@@QAE@PAVioHashString@@PBU_Container_base0@1@@Z
_TEXT	SEGMENT
__Parg$ = 8						; size = 4
__Pvector$ = 12						; size = 4
??0?$_Vector_iterator@V?$_Vector_val@VioHashString@@V?$allocator@VioHashString@@@std@@@std@@@std@@QAE@PAVioHashString@@PBU_Container_base0@1@@Z PROC ; std::_Vector_iterator<std::_Vector_val<ioHashString,std::allocator<ioHashString> > >::_Vector_iterator<std::_Vector_val<ioHashString,std::allocator<ioHashString> > >, COMDAT
; _this$ = ecx

; 304  : 		{	// construct with pointer _Parg

  00000	55		 push	 ebp
  00001	8b ec		 mov	 ebp, esp
  00003	8b c1		 mov	 eax, ecx
  00005	8b 4d 08	 mov	 ecx, DWORD PTR __Parg$[ebp]
  00008	89 08		 mov	 DWORD PTR [eax], ecx

; 305  : 		}

  0000a	5d		 pop	 ebp
  0000b	c2 08 00	 ret	 8
??0?$_Vector_iterator@V?$_Vector_val@VioHashString@@V?$allocator@VioHashString@@@std@@@std@@@std@@QAE@PAVioHashString@@PBU_Container_base0@1@@Z ENDP ; std::_Vector_iterator<std::_Vector_val<ioHashString,std::allocator<ioHashString> > >::_Vector_iterator<std::_Vector_val<ioHashString,std::allocator<ioHashString> > >
_TEXT	ENDS
PUBLIC	?max_size@?$allocator@VioHashString@@@std@@QBEIXZ ; std::allocator<ioHashString>::max_size
; Function compile flags: /Ogsp
; File c:\program files (x86)\microsoft visual studio 10.0\vc\include\xmemory
;	COMDAT ?max_size@?$allocator@VioHashString@@@std@@QBEIXZ
_TEXT	SEGMENT
?max_size@?$allocator@VioHashString@@@std@@QBEIXZ PROC	; std::allocator<ioHashString>::max_size, COMDAT
; _this$ = ecx

; 218  : 		_SIZT _Count = (_SIZT)(-1) / sizeof (_Ty);
; 219  : 		return (0 < _Count ? _Count : 1);

  00000	b8 ff ff ff 0f	 mov	 eax, 268435455		; 0fffffffH

; 220  : 		}

  00005	c3		 ret	 0
?max_size@?$allocator@VioHashString@@@std@@QBEIXZ ENDP	; std::allocator<ioHashString>::max_size
_TEXT	ENDS
PUBLIC	?_Compat@?$_Vector_const_iterator@V?$_Vector_val@VioHashString@@V?$allocator@VioHashString@@@std@@@std@@@std@@QBEXABV12@@Z ; std::_Vector_const_iterator<std::_Vector_val<ioHashString,std::allocator<ioHashString> > >::_Compat
; Function compile flags: /Ogsp
; File c:\program files (x86)\microsoft visual studio 10.0\vc\include\vector
;	COMDAT ?_Compat@?$_Vector_const_iterator@V?$_Vector_val@VioHashString@@V?$allocator@VioHashString@@@std@@@std@@@std@@QBEXABV12@@Z
_TEXT	SEGMENT
___formal$ = 8						; size = 4
?_Compat@?$_Vector_const_iterator@V?$_Vector_val@VioHashString@@V?$allocator@VioHashString@@@std@@@std@@@std@@QBEXABV12@@Z PROC ; std::_Vector_const_iterator<std::_Vector_val<ioHashString,std::allocator<ioHashString> > >::_Compat, COMDAT
; _this$ = ecx

; 253  : 		}

  00000	c2 04 00	 ret	 4
?_Compat@?$_Vector_const_iterator@V?$_Vector_val@VioHashString@@V?$allocator@VioHashString@@@std@@@std@@@std@@QBEXABV12@@Z ENDP ; std::_Vector_const_iterator<std::_Vector_val<ioHashString,std::allocator<ioHashString> > >::_Compat
_TEXT	ENDS
PUBLIC	__TI2?AVbad_alloc@std@@
PUBLIC	??$_Allocate@VioHashString@@@std@@YAPAVioHashString@@IPAV1@@Z ; std::_Allocate<ioHashString>
PUBLIC	__CTA2?AVbad_alloc@std@@
PUBLIC	__CT??_R0?AVbad_alloc@std@@@8??0bad_alloc@std@@QAE@ABV01@@Z12
PUBLIC	??0bad_alloc@std@@QAE@ABV01@@Z			; std::bad_alloc::bad_alloc
PUBLIC	__CT??_R0?AVexception@std@@@8??0exception@std@@QAE@ABV01@@Z12
EXTRN	??2@YAPAXI@Z:PROC				; operator new
EXTRN	__CxxThrowException@8:PROC
EXTRN	??0exception@std@@QAE@ABV01@@Z:PROC		; std::exception::exception
;	COMDAT __CT??_R0?AVexception@std@@@8??0exception@std@@QAE@ABV01@@Z12
; File c:\program files (x86)\microsoft visual studio 10.0\vc\include\exception
xdata$x	SEGMENT
__CT??_R0?AVexception@std@@@8??0exception@std@@QAE@ABV01@@Z12 DD 00H
	DD	FLAT:??_R0?AVexception@std@@@8
	DD	00H
	DD	0ffffffffH
	ORG $+4
	DD	0cH
	DD	FLAT:??0exception@std@@QAE@ABV01@@Z
xdata$x	ENDS
;	COMDAT __CT??_R0?AVbad_alloc@std@@@8??0bad_alloc@std@@QAE@ABV01@@Z12
xdata$x	SEGMENT
__CT??_R0?AVbad_alloc@std@@@8??0bad_alloc@std@@QAE@ABV01@@Z12 DD 00H
	DD	FLAT:??_R0?AVbad_alloc@std@@@8
	DD	00H
	DD	0ffffffffH
	ORG $+4
	DD	0cH
	DD	FLAT:??0bad_alloc@std@@QAE@ABV01@@Z
xdata$x	ENDS
;	COMDAT __CTA2?AVbad_alloc@std@@
xdata$x	SEGMENT
__CTA2?AVbad_alloc@std@@ DD 02H
	DD	FLAT:__CT??_R0?AVbad_alloc@std@@@8??0bad_alloc@std@@QAE@ABV01@@Z12
	DD	FLAT:__CT??_R0?AVexception@std@@@8??0exception@std@@QAE@ABV01@@Z12
xdata$x	ENDS
;	COMDAT __TI2?AVbad_alloc@std@@
xdata$x	SEGMENT
__TI2?AVbad_alloc@std@@ DD 00H
	DD	FLAT:??1bad_alloc@std@@UAE@XZ
	DD	00H
	DD	FLAT:__CTA2?AVbad_alloc@std@@
; Function compile flags: /Ogsp
; File c:\program files (x86)\microsoft visual studio 10.0\vc\include\xmemory
xdata$x	ENDS
;	COMDAT ??$_Allocate@VioHashString@@@std@@YAPAVioHashString@@IPAV1@@Z
_TEXT	SEGMENT
$T554695 = -12						; size = 12
$T554700 = 8						; size = 4
__Count$ = 8						; size = 4
___formal$ = 12						; size = 4
??$_Allocate@VioHashString@@@std@@YAPAVioHashString@@IPAV1@@Z PROC ; std::_Allocate<ioHashString>, COMDAT

; 30   : 	{	// allocate storage for _Count elements of type _Ty

  00000	55		 push	 ebp
  00001	8b ec		 mov	 ebp, esp

; 31   : 	void *_Ptr = 0;
; 32   : 
; 33   : 	if (_Count <= 0)

  00003	8b 4d 08	 mov	 ecx, DWORD PTR __Count$[ebp]
  00006	83 ec 0c	 sub	 esp, 12			; 0000000cH
  00009	33 c0		 xor	 eax, eax
  0000b	85 c9		 test	 ecx, ecx

; 34   : 		_Count = 0;
; 35   : 	else if (((_SIZT)(-1) / sizeof (_Ty) < _Count)

  0000d	74 3c		 je	 SHORT $LN5@Allocate

; 36   : 		|| (_Ptr = ::operator new(_Count * sizeof (_Ty))) == 0)

  0000f	81 f9 ff ff ff
	0f		 cmp	 ecx, 268435455		; 0fffffffH
  00015	77 0e		 ja	 SHORT $LN1@Allocate
  00017	c1 e1 04	 shl	 ecx, 4
  0001a	51		 push	 ecx
  0001b	e8 00 00 00 00	 call	 ??2@YAPAXI@Z		; operator new
  00020	59		 pop	 ecx
  00021	85 c0		 test	 eax, eax

; 38   : 
; 39   : 	return ((_Ty _FARQ *)_Ptr);

  00023	75 26		 jne	 SHORT $LN5@Allocate
$LN1@Allocate:

; 37   : 		_THROW_NCEE(bad_alloc, 0);

  00025	83 65 08 00	 and	 DWORD PTR $T554700[ebp], 0
  00029	8d 45 08	 lea	 eax, DWORD PTR $T554700[ebp]
  0002c	50		 push	 eax
  0002d	8d 4d f4	 lea	 ecx, DWORD PTR $T554695[ebp]
  00030	ff 15 00 00 00
	00		 call	 DWORD PTR __imp_??0exception@std@@QAE@ABQBD@Z
  00036	68 00 00 00 00	 push	 OFFSET __TI2?AVbad_alloc@std@@
  0003b	8d 45 f4	 lea	 eax, DWORD PTR $T554695[ebp]
  0003e	50		 push	 eax
  0003f	c7 45 f4 00 00
	00 00		 mov	 DWORD PTR $T554695[ebp], OFFSET ??_7bad_alloc@std@@6B@
  00046	e8 00 00 00 00	 call	 __CxxThrowException@8
$LN10@Allocate:
$LN5@Allocate:

; 40   : 	}

  0004b	c9		 leave
  0004c	c3		 ret	 0
$LN9@Allocate:
??$_Allocate@VioHashString@@@std@@YAPAVioHashString@@IPAV1@@Z ENDP ; std::_Allocate<ioHashString>
_TEXT	ENDS
EXTRN	__imp_??0exception@std@@QAE@ABV01@@Z:PROC
; Function compile flags: /Ogsp
;	COMDAT ??0bad_alloc@std@@QAE@ABV01@@Z
_TEXT	SEGMENT
___that$ = 8						; size = 4
??0bad_alloc@std@@QAE@ABV01@@Z PROC			; std::bad_alloc::bad_alloc, COMDAT
; _this$ = ecx
  00000	55		 push	 ebp
  00001	8b ec		 mov	 ebp, esp
  00003	56		 push	 esi
  00004	ff 75 08	 push	 DWORD PTR ___that$[ebp]
  00007	8b f1		 mov	 esi, ecx
  00009	ff 15 00 00 00
	00		 call	 DWORD PTR __imp_??0exception@std@@QAE@ABV01@@Z
  0000f	c7 06 00 00 00
	00		 mov	 DWORD PTR [esi], OFFSET ??_7bad_alloc@std@@6B@
  00015	8b c6		 mov	 eax, esi
  00017	5e		 pop	 esi
  00018	5d		 pop	 ebp
  00019	c2 04 00	 ret	 4
??0bad_alloc@std@@QAE@ABV01@@Z ENDP			; std::bad_alloc::bad_alloc
_TEXT	ENDS
PUBLIC	??$forward@ABVioHashString@@@std@@YAABVioHashString@@ABV1@@Z ; std::forward<ioHashString const &>
; Function compile flags: /Ogsp
; File c:\program files (x86)\microsoft visual studio 10.0\vc\include\utility
;	COMDAT ??$forward@ABVioHashString@@@std@@YAABVioHashString@@ABV1@@Z
_TEXT	SEGMENT
__Arg$ = 8						; size = 4
??$forward@ABVioHashString@@@std@@YAABVioHashString@@ABV1@@Z PROC ; std::forward<ioHashString const &>, COMDAT

; 78   : 	{	// forward _Arg, given explicitly specified type parameter

  00000	55		 push	 ebp
  00001	8b ec		 mov	 ebp, esp

; 79   : 	return ((_Ty&&)_Arg);

  00003	8b 45 08	 mov	 eax, DWORD PTR __Arg$[ebp]

; 80   : 	}

  00006	5d		 pop	 ebp
  00007	c3		 ret	 0
??$forward@ABVioHashString@@@std@@YAABVioHashString@@ABV1@@Z ENDP ; std::forward<ioHashString const &>
_TEXT	ENDS
PUBLIC	??$forward@AAVioHashString@@@std@@YAAAVioHashString@@AAV1@@Z ; std::forward<ioHashString &>
; Function compile flags: /Ogsp
;	COMDAT ??$forward@AAVioHashString@@@std@@YAAAVioHashString@@AAV1@@Z
_TEXT	SEGMENT
__Arg$ = 8						; size = 4
??$forward@AAVioHashString@@@std@@YAAAVioHashString@@AAV1@@Z PROC ; std::forward<ioHashString &>, COMDAT

; 78   : 	{	// forward _Arg, given explicitly specified type parameter

  00000	55		 push	 ebp
  00001	8b ec		 mov	 ebp, esp

; 79   : 	return ((_Ty&&)_Arg);

  00003	8b 45 08	 mov	 eax, DWORD PTR __Arg$[ebp]

; 80   : 	}

  00006	5d		 pop	 ebp
  00007	c3		 ret	 0
??$forward@AAVioHashString@@@std@@YAAAVioHashString@@AAV1@@Z ENDP ; std::forward<ioHashString &>
_TEXT	ENDS
PUBLIC	??$_Ptr_cat@VioHashString@@V1@@std@@YA?AU_Nonscalar_ptr_iterator_tag@0@PAVioHashString@@0@Z ; std::_Ptr_cat<ioHashString,ioHashString>
; Function compile flags: /Ogsp
; File c:\program files (x86)\microsoft visual studio 10.0\vc\include\xutility
;	COMDAT ??$_Ptr_cat@VioHashString@@V1@@std@@YA?AU_Nonscalar_ptr_iterator_tag@0@PAVioHashString@@0@Z
_TEXT	SEGMENT
__Cat$ = -1						; size = 1
___formal$ = 8						; size = 4
___formal$ = 12						; size = 4
??$_Ptr_cat@VioHashString@@V1@@std@@YA?AU_Nonscalar_ptr_iterator_tag@0@PAVioHashString@@0@Z PROC ; std::_Ptr_cat<ioHashString,ioHashString>, COMDAT

; 516  : 	{	// return pointer category from pointers

  00000	55		 push	 ebp
  00001	8b ec		 mov	 ebp, esp
  00003	51		 push	 ecx

; 517  : 	typename _Ptr_cat_helper<_Elem1, _Elem2>::_Type _Cat;
; 518  : 	return (_Cat);

  00004	8a 45 ff	 mov	 al, BYTE PTR __Cat$[ebp]

; 519  : 	}

  00007	c9		 leave
  00008	c3		 ret	 0
??$_Ptr_cat@VioHashString@@V1@@std@@YA?AU_Nonscalar_ptr_iterator_tag@0@PAVioHashString@@0@Z ENDP ; std::_Ptr_cat<ioHashString,ioHashString>
_TEXT	ENDS
PUBLIC	??$_Ptr_cat@V?$_Vector_const_iterator@V?$_Vector_val@VioHashString@@V?$allocator@VioHashString@@@std@@@std@@@std@@PAVioHashString@@@std@@YA?AU_Nonscalar_ptr_iterator_tag@0@AAV?$_Vector_const_iterator@V?$_Vector_val@VioHashString@@V?$allocator@VioHashString@@@std@@@std@@@0@AAPAVioHashString@@@Z ; std::_Ptr_cat<std::_Vector_const_iterator<std::_Vector_val<ioHashString,std::allocator<ioHashString> > >,ioHashString *>
; Function compile flags: /Ogsp
;	COMDAT ??$_Ptr_cat@V?$_Vector_const_iterator@V?$_Vector_val@VioHashString@@V?$allocator@VioHashString@@@std@@@std@@@std@@PAVioHashString@@@std@@YA?AU_Nonscalar_ptr_iterator_tag@0@AAV?$_Vector_const_iterator@V?$_Vector_val@VioHashString@@V?$allocator@VioHashString@@@std@@@std@@@0@AAPAVioHashString@@@Z
_TEXT	SEGMENT
__Cat$ = -1						; size = 1
___formal$ = 8						; size = 4
___formal$ = 12						; size = 4
??$_Ptr_cat@V?$_Vector_const_iterator@V?$_Vector_val@VioHashString@@V?$allocator@VioHashString@@@std@@@std@@@std@@PAVioHashString@@@std@@YA?AU_Nonscalar_ptr_iterator_tag@0@AAV?$_Vector_const_iterator@V?$_Vector_val@VioHashString@@V?$allocator@VioHashString@@@std@@@std@@@0@AAPAVioHashString@@@Z PROC ; std::_Ptr_cat<std::_Vector_const_iterator<std::_Vector_val<ioHashString,std::allocator<ioHashString> > >,ioHashString *>, COMDAT

; 485  : 	{	// return pointer category from arbitrary arguments

  00000	55		 push	 ebp
  00001	8b ec		 mov	 ebp, esp
  00003	51		 push	 ecx

; 486  : 	_Nonscalar_ptr_iterator_tag _Cat;
; 487  : 	return (_Cat);

  00004	8a 45 ff	 mov	 al, BYTE PTR __Cat$[ebp]

; 488  : 	}

  00007	c9		 leave
  00008	c3		 ret	 0
??$_Ptr_cat@V?$_Vector_const_iterator@V?$_Vector_val@VioHashString@@V?$allocator@VioHashString@@@std@@@std@@@std@@PAVioHashString@@@std@@YA?AU_Nonscalar_ptr_iterator_tag@0@AAV?$_Vector_const_iterator@V?$_Vector_val@VioHashString@@V?$allocator@VioHashString@@@std@@@std@@@0@AAPAVioHashString@@@Z ENDP ; std::_Ptr_cat<std::_Vector_const_iterator<std::_Vector_val<ioHashString,std::allocator<ioHashString> > >,ioHashString *>
_TEXT	ENDS
PUBLIC	??$move@AAVioHashString@@@std@@YA$$QAVioHashString@@AAV1@@Z ; std::move<ioHashString &>
; Function compile flags: /Ogsp
; File c:\program files (x86)\microsoft visual studio 10.0\vc\include\utility
;	COMDAT ??$move@AAVioHashString@@@std@@YA$$QAVioHashString@@AAV1@@Z
_TEXT	SEGMENT
__Arg$ = 8						; size = 4
??$move@AAVioHashString@@@std@@YA$$QAVioHashString@@AAV1@@Z PROC ; std::move<ioHashString &>, COMDAT

; 86   : 	{	// forward _Arg as movable

  00000	55		 push	 ebp
  00001	8b ec		 mov	 ebp, esp

; 87   : 	return ((typename tr1::_Remove_reference<_Ty>::_Type&&)_Arg);

  00003	8b 45 08	 mov	 eax, DWORD PTR __Arg$[ebp]

; 88   : 	}

  00006	5d		 pop	 ebp
  00007	c3		 ret	 0
??$move@AAVioHashString@@@std@@YA$$QAVioHashString@@AAV1@@Z ENDP ; std::move<ioHashString &>
_TEXT	ENDS
PUBLIC	??D?$_Vector_const_iterator@V?$_Vector_val@VioHashString@@V?$allocator@VioHashString@@@std@@@std@@@std@@QBEABVioHashString@@XZ ; std::_Vector_const_iterator<std::_Vector_val<ioHashString,std::allocator<ioHashString> > >::operator*
; Function compile flags: /Ogsp
; File c:\program files (x86)\microsoft visual studio 10.0\vc\include\vector
;	COMDAT ??D?$_Vector_const_iterator@V?$_Vector_val@VioHashString@@V?$allocator@VioHashString@@@std@@@std@@@std@@QBEABVioHashString@@XZ
_TEXT	SEGMENT
??D?$_Vector_const_iterator@V?$_Vector_val@VioHashString@@V?$allocator@VioHashString@@@std@@@std@@@std@@QBEABVioHashString@@XZ PROC ; std::_Vector_const_iterator<std::_Vector_val<ioHashString,std::allocator<ioHashString> > >::operator*, COMDAT
; _this$ = ecx

; 64   :  #if _ITERATOR_DEBUG_LEVEL == 2
; 65   : 		if (this->_Getcont() == 0
; 66   : 			|| this->_Ptr == 0
; 67   : 			|| this->_Ptr < ((_Myvec *)this->_Getcont())->_Myfirst
; 68   : 			|| ((_Myvec *)this->_Getcont())->_Mylast <= this->_Ptr)
; 69   : 			{	// report error
; 70   : 			_DEBUG_ERROR("vector iterator not dereferencable");
; 71   : 			_SCL_SECURE_OUT_OF_RANGE;
; 72   : 			}
; 73   : 
; 74   :  #elif _ITERATOR_DEBUG_LEVEL == 1
; 75   : 		_SCL_SECURE_VALIDATE(this->_Getcont() != 0);
; 76   : 		_SCL_SECURE_VALIDATE_RANGE(
; 77   : 			this->_Ptr != 0
; 78   : 			&& ((_Myvec *)this->_Getcont())->_Myfirst <= this->_Ptr
; 79   : 			&& this->_Ptr < ((_Myvec *)this->_Getcont())->_Mylast);
; 80   :  #endif /* _ITERATOR_DEBUG_LEVEL */
; 81   : 
; 82   : 		__analysis_assume(this->_Ptr != 0);
; 83   : 
; 84   : 		return (*this->_Ptr);

  00000	8b 01		 mov	 eax, DWORD PTR [ecx]

; 85   : 		}

  00002	c3		 ret	 0
??D?$_Vector_const_iterator@V?$_Vector_val@VioHashString@@V?$allocator@VioHashString@@@std@@@std@@@std@@QBEABVioHashString@@XZ ENDP ; std::_Vector_const_iterator<std::_Vector_val<ioHashString,std::allocator<ioHashString> > >::operator*
_TEXT	ENDS
PUBLIC	??E?$_Vector_const_iterator@V?$_Vector_val@VioHashString@@V?$allocator@VioHashString@@@std@@@std@@@std@@QAEAAV01@XZ ; std::_Vector_const_iterator<std::_Vector_val<ioHashString,std::allocator<ioHashString> > >::operator++
; Function compile flags: /Ogsp
;	COMDAT ??E?$_Vector_const_iterator@V?$_Vector_val@VioHashString@@V?$allocator@VioHashString@@@std@@@std@@@std@@QAEAAV01@XZ
_TEXT	SEGMENT
??E?$_Vector_const_iterator@V?$_Vector_val@VioHashString@@V?$allocator@VioHashString@@@std@@@std@@@std@@QAEAAV01@XZ PROC ; std::_Vector_const_iterator<std::_Vector_val<ioHashString,std::allocator<ioHashString> > >::operator++, COMDAT
; _this$ = ecx

; 93   : 		{	// preincrement

  00000	8b c1		 mov	 eax, ecx

; 94   :  #if _ITERATOR_DEBUG_LEVEL == 2
; 95   : 		if (this->_Getcont() == 0
; 96   : 			|| this->_Ptr == 0
; 97   : 			|| ((_Myvec *)this->_Getcont())->_Mylast <= this->_Ptr)
; 98   : 			{	// report error
; 99   : 			_DEBUG_ERROR("vector iterator not incrementable");
; 100  : 			_SCL_SECURE_OUT_OF_RANGE;
; 101  : 			}
; 102  : 
; 103  :  #elif _ITERATOR_DEBUG_LEVEL == 1
; 104  : 		_SCL_SECURE_VALIDATE(this->_Getcont() != 0);
; 105  : 		_SCL_SECURE_VALIDATE_RANGE(
; 106  : 			this->_Ptr != 0
; 107  : 			&& this->_Ptr < ((_Myvec *)this->_Getcont())->_Mylast);
; 108  :  #endif /* _ITERATOR_DEBUG_LEVEL */
; 109  : 
; 110  : 		++this->_Ptr;

  00002	83 00 10	 add	 DWORD PTR [eax], 16	; 00000010H

; 111  : 		return (*this);
; 112  : 		}

  00005	c3		 ret	 0
??E?$_Vector_const_iterator@V?$_Vector_val@VioHashString@@V?$allocator@VioHashString@@@std@@@std@@@std@@QAEAAV01@XZ ENDP ; std::_Vector_const_iterator<std::_Vector_val<ioHashString,std::allocator<ioHashString> > >::operator++
_TEXT	ENDS
PUBLIC	??_GioHashString@@QAEPAXI@Z			; ioHashString::`scalar deleting destructor'
; Function compile flags: /Ogsp
;	COMDAT ??_GioHashString@@QAEPAXI@Z
_TEXT	SEGMENT
___flags$ = 8						; size = 4
??_GioHashString@@QAEPAXI@Z PROC			; ioHashString::`scalar deleting destructor', COMDAT
; _this$ = ecx
  00000	55		 push	 ebp
  00001	8b ec		 mov	 ebp, esp
  00003	56		 push	 esi
  00004	8b f1		 mov	 esi, ecx
  00006	ff 15 00 00 00
	00		 call	 DWORD PTR __imp_??1ioHashString@@QAE@XZ
  0000c	f6 45 08 01	 test	 BYTE PTR ___flags$[ebp], 1
  00010	74 07		 je	 SHORT $LN1@scalar@2
  00012	56		 push	 esi
  00013	e8 00 00 00 00	 call	 ??3@YAXPAX@Z		; operator delete
  00018	59		 pop	 ecx
$LN1@scalar@2:
  00019	8b c6		 mov	 eax, esi
  0001b	5e		 pop	 esi
  0001c	5d		 pop	 ebp
  0001d	c2 04 00	 ret	 4
??_GioHashString@@QAEPAXI@Z ENDP			; ioHashString::`scalar deleting destructor'
_TEXT	ENDS
PUBLIC	??$_Construct@VioHashString@@ABV1@@std@@YAXPAVioHashString@@ABV1@@Z ; std::_Construct<ioHashString,ioHashString const &>
EXTRN	__imp_??0ioHashString@@QAE@ABV0@@Z:PROC
;	COMDAT xdata$x
; File c:\program files (x86)\microsoft visual studio 10.0\vc\include\utility
xdata$x	SEGMENT
__unwindtable$??$_Construct@VioHashString@@ABV1@@std@@YAXPAVioHashString@@ABV1@@Z DD 0ffffffffH
	DD	FLAT:__unwindfunclet$??$_Construct@VioHashString@@ABV1@@std@@YAXPAVioHashString@@ABV1@@Z$0
__ehfuncinfo$??$_Construct@VioHashString@@ABV1@@std@@YAXPAVioHashString@@ABV1@@Z DD 019930522H
	DD	01H
	DD	FLAT:__unwindtable$??$_Construct@VioHashString@@ABV1@@std@@YAXPAVioHashString@@ABV1@@Z
	DD	2 DUP(00H)
	DD	2 DUP(00H)
	DD	00H
	DD	01H
; Function compile flags: /Ogsp
; File c:\program files (x86)\microsoft visual studio 10.0\vc\include\xmemory
xdata$x	ENDS
;	COMDAT ??$_Construct@VioHashString@@ABV1@@std@@YAXPAVioHashString@@ABV1@@Z
_TEXT	SEGMENT
$T554727 = -16						; size = 4
__$EHRec$ = -12						; size = 12
__Vptr$ = 8						; size = 4
__Ptr$ = 8						; size = 4
__Val$ = 12						; size = 4
??$_Construct@VioHashString@@ABV1@@std@@YAXPAVioHashString@@ABV1@@Z PROC ; std::_Construct<ioHashString,ioHashString const &>, COMDAT

; 46   : 	{	// construct object at _Ptr with value _Val

  00000	6a 04		 push	 4
  00002	b8 00 00 00 00	 mov	 eax, __ehhandler$??$_Construct@VioHashString@@ABV1@@std@@YAXPAVioHashString@@ABV1@@Z
  00007	e8 00 00 00 00	 call	 __EH_prolog3

; 47   : 	void _FARQ *_Vptr = _Ptr;

  0000c	8b 4d 08	 mov	 ecx, DWORD PTR __Ptr$[ebp]
  0000f	89 4d 08	 mov	 DWORD PTR __Vptr$[ebp], ecx

; 48   : 	::new (_Vptr) _Ty1(_STD forward<_Ty2>(_Val));

  00012	89 4d f0	 mov	 DWORD PTR $T554727[ebp], ecx
  00015	83 65 fc 00	 and	 DWORD PTR __$EHRec$[ebp+8], 0
  00019	85 c9		 test	 ecx, ecx
  0001b	74 09		 je	 SHORT $LN3@Construct
  0001d	ff 75 0c	 push	 DWORD PTR __Val$[ebp]
  00020	ff 15 00 00 00
	00		 call	 DWORD PTR __imp_??0ioHashString@@QAE@ABV0@@Z
$LN3@Construct:

; 49   : 	}

  00026	e8 00 00 00 00	 call	 __EH_epilog3
  0002b	c3		 ret	 0
_TEXT	ENDS
;	COMDAT text$x
text$x	SEGMENT
__unwindfunclet$??$_Construct@VioHashString@@ABV1@@std@@YAXPAVioHashString@@ABV1@@Z$0:
  00000	ff 75 08	 push	 DWORD PTR __Vptr$[ebp]
  00003	ff 75 f0	 push	 DWORD PTR $T554727[ebp]
  00006	e8 00 00 00 00	 call	 ??3@YAXPAX0@Z		; operator delete
  0000b	59		 pop	 ecx
  0000c	59		 pop	 ecx
  0000d	c3		 ret	 0
__ehhandler$??$_Construct@VioHashString@@ABV1@@std@@YAXPAVioHashString@@ABV1@@Z:
  0000e	8b 54 24 08	 mov	 edx, DWORD PTR [esp+8]
  00012	8d 42 0c	 lea	 eax, DWORD PTR [edx+12]
  00015	8b 4a ec	 mov	 ecx, DWORD PTR [edx-20]
  00018	33 c8		 xor	 ecx, eax
  0001a	e8 00 00 00 00	 call	 @__security_check_cookie@4
  0001f	b8 00 00 00 00	 mov	 eax, OFFSET __ehfuncinfo$??$_Construct@VioHashString@@ABV1@@std@@YAXPAVioHashString@@ABV1@@Z
  00024	e9 00 00 00 00	 jmp	 ___CxxFrameHandler3
text$x	ENDS
??$_Construct@VioHashString@@ABV1@@std@@YAXPAVioHashString@@ABV1@@Z ENDP ; std::_Construct<ioHashString,ioHashString const &>
PUBLIC	??_R0?AVioBuff@@@8				; ioBuff `RTTI Type Descriptor'
PUBLIC	??_R0?AVioDummyAttachBuff3@@@8			; ioDummyAttachBuff3 `RTTI Type Descriptor'
PUBLIC	?ToDummyAttachBuff3@@YAPAVioDummyAttachBuff3@@PAVioBuff@@@Z ; ToDummyAttachBuff3
EXTRN	___RTDynamicCast:PROC
;	COMDAT ??_R0?AVioBuff@@@8
; File d:\lost saga for developer\youtube\tutorial\source\src\lsclient\iobuff.h
_DATA	SEGMENT
??_R0?AVioBuff@@@8 DD FLAT:??_7type_info@@6B@		; ioBuff `RTTI Type Descriptor'
	DD	00H
	DB	'.?AVioBuff@@', 00H
_DATA	ENDS
;	COMDAT ??_R0?AVioDummyAttachBuff3@@@8
_DATA	SEGMENT
??_R0?AVioDummyAttachBuff3@@@8 DD FLAT:??_7type_info@@6B@ ; ioDummyAttachBuff3 `RTTI Type Descriptor'
	DD	00H
	DB	'.?AVioDummyAttachBuff3@@', 00H
; Function compile flags: /Ogsp
; File d:\lost saga for developer\youtube\tutorial\source\src\lsclient\iodummyattachbuff3.h
_DATA	ENDS
;	COMDAT ?ToDummyAttachBuff3@@YAPAVioDummyAttachBuff3@@PAVioBuff@@@Z
_TEXT	SEGMENT
_pBuff$ = 8						; size = 4
?ToDummyAttachBuff3@@YAPAVioDummyAttachBuff3@@PAVioBuff@@@Z PROC ; ToDummyAttachBuff3, COMDAT

; 84   : {

  00000	55		 push	 ebp
  00001	8b ec		 mov	 ebp, esp

; 85   : 	if( !pBuff || pBuff->GetTypeID() != BT_DUMMY_ATTACH3 )

  00003	8b 45 08	 mov	 eax, DWORD PTR _pBuff$[ebp]
  00006	85 c0		 test	 eax, eax
  00008	74 25		 je	 SHORT $LN1@ToDummyAtt
  0000a	81 b8 cc 03 00
	00 aa 00 00 00	 cmp	 DWORD PTR [eax+972], 170 ; 000000aaH
  00014	75 19		 jne	 SHORT $LN1@ToDummyAtt

; 87   : 
; 88   : 	return dynamic_cast< ioDummyAttachBuff3* >( pBuff );

  00016	6a 00		 push	 0
  00018	68 00 00 00 00	 push	 OFFSET ??_R0?AVioDummyAttachBuff3@@@8
  0001d	68 00 00 00 00	 push	 OFFSET ??_R0?AVioBuff@@@8
  00022	6a 00		 push	 0
  00024	50		 push	 eax
  00025	e8 00 00 00 00	 call	 ___RTDynamicCast
  0002a	83 c4 14	 add	 esp, 20			; 00000014H

; 89   : }

  0002d	5d		 pop	 ebp
  0002e	c3		 ret	 0
$LN1@ToDummyAtt:

; 86   : 		return NULL;

  0002f	33 c0		 xor	 eax, eax

; 89   : }

  00031	5d		 pop	 ebp
  00032	c3		 ret	 0
?ToDummyAttachBuff3@@YAPAVioDummyAttachBuff3@@PAVioBuff@@@Z ENDP ; ToDummyAttachBuff3
_TEXT	ENDS
PUBLIC	??0tagFireWeaponInfo@ioHelipCopterAttachBuff@@QAE@XZ ; ioHelipCopterAttachBuff::tagFireWeaponInfo::tagFireWeaponInfo
; Function compile flags: /Ogsp
;	COMDAT ??0tagFireWeaponInfo@ioHelipCopterAttachBuff@@QAE@XZ
_TEXT	SEGMENT
??0tagFireWeaponInfo@ioHelipCopterAttachBuff@@QAE@XZ PROC ; ioHelipCopterAttachBuff::tagFireWeaponInfo::tagFireWeaponInfo, COMDAT
; _this$ = ecx
  00000	8b c1		 mov	 eax, ecx
  00002	c3		 ret	 0
??0tagFireWeaponInfo@ioHelipCopterAttachBuff@@QAE@XZ ENDP ; ioHelipCopterAttachBuff::tagFireWeaponInfo::tagFireWeaponInfo
_TEXT	ENDS
PUBLIC	?ApplyStartBuff@ioHelipCopterAttachBuff@@UAE_NPAVioBaseChar@@KK@Z ; ioHelipCopterAttachBuff::ApplyStartBuff
EXTRN	?ApplyStartBuff@ioBuff@@UAE_NPAVioBaseChar@@KK@Z:PROC ; ioBuff::ApplyStartBuff
; Function compile flags: /Ogsp
; File d:\lost saga for developer\youtube\tutorial\source\src\lsclient\iohelipcopterattachbuff.cpp
;	COMDAT ?ApplyStartBuff@ioHelipCopterAttachBuff@@UAE_NPAVioBaseChar@@KK@Z
_TEXT	SEGMENT
_pOwner$ = 8						; size = 4
_dwGlobalTime$ = 12					; size = 4
_dwGapTime$ = 16					; size = 4
?ApplyStartBuff@ioHelipCopterAttachBuff@@UAE_NPAVioBaseChar@@KK@Z PROC ; ioHelipCopterAttachBuff::ApplyStartBuff, COMDAT
; _this$ = ecx

; 144  : {

  00000	55		 push	 ebp
  00001	8b ec		 mov	 ebp, esp
  00003	56		 push	 esi

; 145  : 	if( !ioBuff::ApplyStartBuff( pOwner, dwGlobalTime, dwGapTime ) )

  00004	ff 75 10	 push	 DWORD PTR _dwGapTime$[ebp]
  00007	8b f1		 mov	 esi, ecx
  00009	ff 75 0c	 push	 DWORD PTR _dwGlobalTime$[ebp]
  0000c	ff 75 08	 push	 DWORD PTR _pOwner$[ebp]
  0000f	e8 00 00 00 00	 call	 ?ApplyStartBuff@ioBuff@@UAE_NPAVioBaseChar@@KK@Z ; ioBuff::ApplyStartBuff
  00014	84 c0		 test	 al, al
  00016	74 09		 je	 SHORT $LN2@ApplyStart
$LN1@ApplyStart:

; 146  : 		return false;
; 147  : 
; 148  : 	ClearData();

  00018	8b ce		 mov	 ecx, esi
  0001a	e8 00 00 00 00	 call	 ?ClearData@ioHelipCopterAttachBuff@@IAEXXZ ; ioHelipCopterAttachBuff::ClearData

; 149  : 	
; 150  : 	return true;

  0001f	b0 01		 mov	 al, 1
$LN2@ApplyStart:
  00021	5e		 pop	 esi

; 151  : }

  00022	5d		 pop	 ebp
  00023	c2 0c 00	 ret	 12			; 0000000cH
?ApplyStartBuff@ioHelipCopterAttachBuff@@UAE_NPAVioBaseChar@@KK@Z ENDP ; ioHelipCopterAttachBuff::ApplyStartBuff
_TEXT	ENDS
PUBLIC	?SetOwnerBuffList@ioHelipCopterAttachBuff@@IAEXPAVioBaseChar@@@Z ; ioHelipCopterAttachBuff::SetOwnerBuffList
;	COMDAT xdata$x
; File d:\lost saga for developer\youtube\tutorial\source\src\lsclient\iobasechar.h
xdata$x	SEGMENT
__unwindtable$?SetOwnerBuffList@ioHelipCopterAttachBuff@@IAEXPAVioBaseChar@@@Z DD 0ffffffffH
	DD	FLAT:__unwindfunclet$?SetOwnerBuffList@ioHelipCopterAttachBuff@@IAEXPAVioBaseChar@@@Z$0
	DD	00H
	DD	FLAT:__unwindfunclet$?SetOwnerBuffList@ioHelipCopterAttachBuff@@IAEXPAVioBaseChar@@@Z$1
__ehfuncinfo$?SetOwnerBuffList@ioHelipCopterAttachBuff@@IAEXPAVioBaseChar@@@Z DD 019930522H
	DD	02H
	DD	FLAT:__unwindtable$?SetOwnerBuffList@ioHelipCopterAttachBuff@@IAEXPAVioBaseChar@@@Z
	DD	2 DUP(00H)
	DD	2 DUP(00H)
	DD	00H
	DD	01H
; Function compile flags: /Ogsp
; File d:\lost saga for developer\youtube\tutorial\source\src\lsclient\iohelipcopterattachbuff.cpp
xdata$x	ENDS
;	COMDAT ?SetOwnerBuffList@ioHelipCopterAttachBuff@@IAEXPAVioBaseChar@@@Z
_TEXT	SEGMENT
$T554760 = -52						; size = 16
_szBuffName$548876 = -36				; size = 16
tv160 = -20						; size = 4
tv258 = -16						; size = 4
__$EHRec$ = -12						; size = 12
_pOwner$ = 8						; size = 4
?SetOwnerBuffList@ioHelipCopterAttachBuff@@IAEXPAVioBaseChar@@@Z PROC ; ioHelipCopterAttachBuff::SetOwnerBuffList, COMDAT
; _this$ = ecx

; 339  : {

  00000	6a 28		 push	 40			; 00000028H
  00002	b8 00 00 00 00	 mov	 eax, __ehhandler$?SetOwnerBuffList@ioHelipCopterAttachBuff@@IAEXPAVioBaseChar@@@Z
  00007	e8 00 00 00 00	 call	 __EH_prolog3
  0000c	8b f9		 mov	 edi, ecx

; 340  : 	if ( !pOwner )

  0000e	8b 45 08	 mov	 eax, DWORD PTR _pOwner$[ebp]
  00011	33 db		 xor	 ebx, ebx
  00013	3b c3		 cmp	 eax, ebx
  00015	0f 84 99 00 00
	00		 je	 $LN2@SetOwnerBu

; 341  : 		return;
; 342  : 
; 343  : 	ioPlayStage *pStage = pOwner->GetCreator();
; 344  : 	if ( !pStage )

  0001b	39 98 44 03 00
	00		 cmp	 DWORD PTR [eax+836], ebx
  00021	0f 84 8d 00 00
	00		 je	 $LN2@SetOwnerBu

; 345  : 		return;
; 346  : 
; 347  : 	if( m_OwnerBuffList.empty() ) 

  00027	8b 8f 84 09 00
	00		 mov	 ecx, DWORD PTR [edi+2436]
  0002d	8b 87 88 09 00
	00		 mov	 eax, DWORD PTR [edi+2440]
  00033	3b c8		 cmp	 ecx, eax
  00035	74 7d		 je	 SHORT $LN2@SetOwnerBu

; 348  : 		return;
; 349  : 
; 350  : 	int nBuffCnt = m_OwnerBuffList.size();

  00037	2b c1		 sub	 eax, ecx
  00039	c1 f8 04	 sar	 eax, 4

; 351  : 
; 352  : 	//해당 버프를 생성
; 353  : 	for( int i=0; i < nBuffCnt; ++i )

  0003c	3b c3		 cmp	 eax, ebx
  0003e	7e 74		 jle	 SHORT $LN2@SetOwnerBu

; 348  : 		return;
; 349  : 
; 350  : 	int nBuffCnt = m_OwnerBuffList.size();

  00040	8b 35 00 00 00
	00		 mov	 esi, DWORD PTR __imp_??1ioHashString@@QAE@XZ
  00046	89 5d f0	 mov	 DWORD PTR tv258[ebp], ebx
  00049	89 45 ec	 mov	 DWORD PTR tv160[ebp], eax
$LN4@SetOwnerBu:

; 351  : 
; 352  : 	//해당 버프를 생성
; 353  : 	for( int i=0; i < nBuffCnt; ++i )

  0004c	8b 87 84 09 00
	00		 mov	 eax, DWORD PTR [edi+2436]
  00052	03 45 f0	 add	 eax, DWORD PTR tv258[ebp]

; 354  : 	{
; 355  : 		ioHashString szBuffName = m_OwnerBuffList[i];

  00055	8d 4d dc	 lea	 ecx, DWORD PTR _szBuffName$548876[ebp]
  00058	50		 push	 eax
  00059	ff 15 00 00 00
	00		 call	 DWORD PTR __imp_??0ioHashString@@QAE@ABV0@@Z

; 356  : 
; 357  : 		if( !szBuffName.IsEmpty() )

  0005f	8d 4d dc	 lea	 ecx, DWORD PTR _szBuffName$548876[ebp]
  00062	89 5d fc	 mov	 DWORD PTR __$EHRec$[ebp+8], ebx
  00065	ff 15 00 00 00
	00		 call	 DWORD PTR __imp_?IsEmpty@ioHashString@@QBE_NXZ
  0006b	84 c0		 test	 al, al
  0006d	75 33		 jne	 SHORT $LN1@SetOwnerBu

; 358  : 			//pOwner->AddNewBuff( szBuffName, pOwner->GetCharName(), "", NULL );	
; 359  : 			pOwner->ReserveAddNewBuff( szBuffName, pOwner->GetCharName(), "", NULL );

  0006f	68 00 00 00 00	 push	 OFFSET ??_C@_00CNPNBAHC@?$AA@
  00074	8d 4d cc	 lea	 ecx, DWORD PTR $T554760[ebp]
  00077	ff 15 00 00 00
	00		 call	 DWORD PTR __imp_??0ioHashString@@QAE@PBD@Z
  0007d	8b 4d 08	 mov	 ecx, DWORD PTR _pOwner$[ebp]
  00080	53		 push	 ebx
  00081	53		 push	 ebx
  00082	8d 45 cc	 lea	 eax, DWORD PTR $T554760[ebp]
  00085	50		 push	 eax
  00086	8d 81 d4 02 00
	00		 lea	 eax, DWORD PTR [ecx+724]
  0008c	50		 push	 eax
  0008d	8d 45 dc	 lea	 eax, DWORD PTR _szBuffName$548876[ebp]
  00090	50		 push	 eax
  00091	c6 45 fc 01	 mov	 BYTE PTR __$EHRec$[ebp+8], 1
  00095	e8 00 00 00 00	 call	 ?ReserveAddNewBuff@ioBaseChar@@QAEXABVioHashString@@00PAVioSkill@@_N@Z ; ioBaseChar::ReserveAddNewBuff
  0009a	8d 4d cc	 lea	 ecx, DWORD PTR $T554760[ebp]
  0009d	88 5d fc	 mov	 BYTE PTR __$EHRec$[ebp+8], bl
  000a0	ff d6		 call	 esi
$LN1@SetOwnerBu:

; 360  : 	}

  000a2	83 4d fc ff	 or	 DWORD PTR __$EHRec$[ebp+8], -1
  000a6	8d 4d dc	 lea	 ecx, DWORD PTR _szBuffName$548876[ebp]
  000a9	ff d6		 call	 esi
  000ab	83 45 f0 10	 add	 DWORD PTR tv258[ebp], 16 ; 00000010H
  000af	ff 4d ec	 dec	 DWORD PTR tv160[ebp]
  000b2	75 98		 jne	 SHORT $LN4@SetOwnerBu
$LN2@SetOwnerBu:

; 361  : }

  000b4	e8 00 00 00 00	 call	 __EH_epilog3
  000b9	c2 04 00	 ret	 4
_TEXT	ENDS
;	COMDAT text$x
text$x	SEGMENT
__unwindfunclet$?SetOwnerBuffList@ioHelipCopterAttachBuff@@IAEXPAVioBaseChar@@@Z$0:
  00000	8d 4d dc	 lea	 ecx, DWORD PTR _szBuffName$548876[ebp]
  00003	ff 25 00 00 00
	00		 jmp	 DWORD PTR __imp_??1ioHashString@@QAE@XZ
__unwindfunclet$?SetOwnerBuffList@ioHelipCopterAttachBuff@@IAEXPAVioBaseChar@@@Z$1:
  00009	8d 4d cc	 lea	 ecx, DWORD PTR $T554760[ebp]
  0000c	ff 25 00 00 00
	00		 jmp	 DWORD PTR __imp_??1ioHashString@@QAE@XZ
__ehhandler$?SetOwnerBuffList@ioHelipCopterAttachBuff@@IAEXPAVioBaseChar@@@Z:
  00012	8b 54 24 08	 mov	 edx, DWORD PTR [esp+8]
  00016	8d 42 0c	 lea	 eax, DWORD PTR [edx+12]
  00019	8b 4a c8	 mov	 ecx, DWORD PTR [edx-56]
  0001c	33 c8		 xor	 ecx, eax
  0001e	e8 00 00 00 00	 call	 @__security_check_cookie@4
  00023	b8 00 00 00 00	 mov	 eax, OFFSET __ehfuncinfo$?SetOwnerBuffList@ioHelipCopterAttachBuff@@IAEXPAVioBaseChar@@@Z
  00028	e9 00 00 00 00	 jmp	 ___CxxFrameHandler3
text$x	ENDS
?SetOwnerBuffList@ioHelipCopterAttachBuff@@IAEXPAVioBaseChar@@@Z ENDP ; ioHelipCopterAttachBuff::SetOwnerBuffList
PUBLIC	?EndCameraEvent@ioHelipCopterAttachBuff@@IAEXPAVioBaseChar@@@Z ; ioHelipCopterAttachBuff::EndCameraEvent
EXTRN	?NotifyCEDestroyed@ioCameraEventManager@@QAEXXZ:PROC ; ioCameraEventManager::NotifyCEDestroyed
; Function compile flags: /Ogsp
;	COMDAT ?EndCameraEvent@ioHelipCopterAttachBuff@@IAEXPAVioBaseChar@@@Z
_TEXT	SEGMENT
_pOwner$ = 8						; size = 4
?EndCameraEvent@ioHelipCopterAttachBuff@@IAEXPAVioBaseChar@@@Z PROC ; ioHelipCopterAttachBuff::EndCameraEvent, COMDAT
; _this$ = ecx

; 417  : {

  00000	56		 push	 esi
  00001	8b f1		 mov	 esi, ecx

; 418  : 	ioCameraEvent* pCamera = g_CameraEventMgr.GetCurCameraEvent();

  00003	e8 00 00 00 00	 call	 ?GetSingleton@ioCameraEventManager@@SAAAV1@XZ ; ioCameraEventManager::GetSingleton
  00008	8b 40 10	 mov	 eax, DWORD PTR [eax+16]

; 419  : 	if( pCamera && pCamera->GetCECode() == m_dwCameraEvent )

  0000b	85 c0		 test	 eax, eax
  0000d	74 17		 je	 SHORT $LN1@EndCameraE
  0000f	8b 40 08	 mov	 eax, DWORD PTR [eax+8]
  00012	3b 86 94 09 00
	00		 cmp	 eax, DWORD PTR [esi+2452]
  00018	75 0c		 jne	 SHORT $LN1@EndCameraE

; 420  : 	{
; 421  : 		g_CameraEventMgr.NotifyCEDestroyed();

  0001a	e8 00 00 00 00	 call	 ?GetSingleton@ioCameraEventManager@@SAAAV1@XZ ; ioCameraEventManager::GetSingleton
  0001f	8b c8		 mov	 ecx, eax
  00021	e8 00 00 00 00	 call	 ?NotifyCEDestroyed@ioCameraEventManager@@QAEXXZ ; ioCameraEventManager::NotifyCEDestroyed
$LN1@EndCameraE:
  00026	5e		 pop	 esi

; 422  : 	}
; 423  : }

  00027	c2 04 00	 ret	 4
?EndCameraEvent@ioHelipCopterAttachBuff@@IAEXPAVioBaseChar@@@Z ENDP ; ioHelipCopterAttachBuff::EndCameraEvent
_TEXT	ENDS
PUBLIC	__$ArrayPad$
PUBLIC	?SetEndState@ioHelipCopterAttachBuff@@IAEXPAVioBaseChar@@_N@Z ; ioHelipCopterAttachBuff::SetEndState
EXTRN	??1SP2Packet@@UAE@XZ:PROC			; SP2Packet::~SP2Packet
EXTRN	?SendToAllPlayingUser@P2PNetwork@@YAXAAVSP2Packet@@PAVioBaseChar@@@Z:PROC ; P2PNetwork::SendToAllPlayingUser
EXTRN	??6SP2Packet@@QAEAAV0@_N@Z:PROC			; SP2Packet::operator<<
EXTRN	??6SP2Packet@@QAEAAV0@H@Z:PROC			; SP2Packet::operator<<
EXTRN	??6SP2Packet@@QAEAAV0@ABVioHashString@@@Z:PROC	; SP2Packet::operator<<
EXTRN	??0SP2Packet@@QAE@K@Z:PROC			; SP2Packet::SP2Packet
EXTRN	?SetReserveEndBuff@ioBuff@@QAEXXZ:PROC		; ioBuff::SetReserveEndBuff
EXTRN	__chkstk:PROC
;	COMDAT xdata$x
; File d:\lost saga for developer\youtube\tutorial\source\src\lsclient\iobuff.h
xdata$x	SEGMENT
__unwindtable$?SetEndState@ioHelipCopterAttachBuff@@IAEXPAVioBaseChar@@_N@Z DD 0ffffffffH
	DD	FLAT:__unwindfunclet$?SetEndState@ioHelipCopterAttachBuff@@IAEXPAVioBaseChar@@_N@Z$0
__ehfuncinfo$?SetEndState@ioHelipCopterAttachBuff@@IAEXPAVioBaseChar@@_N@Z DD 019930522H
	DD	01H
	DD	FLAT:__unwindtable$?SetEndState@ioHelipCopterAttachBuff@@IAEXPAVioBaseChar@@_N@Z
	DD	2 DUP(00H)
	DD	2 DUP(00H)
	DD	00H
	DD	01H
; Function compile flags: /Ogsp
; File d:\lost saga for developer\youtube\tutorial\source\src\lsclient\iohelipcopterattachbuff.cpp
xdata$x	ENDS
;	COMDAT ?SetEndState@ioHelipCopterAttachBuff@@IAEXPAVioBaseChar@@_N@Z
_TEXT	SEGMENT
_kPacket$549092 = -32808				; size = 32792
__$ArrayPad$ = -16					; size = 4
__$EHRec$ = -12						; size = 12
_pOwner$ = 8						; size = 4
_bEndJump$ = 12						; size = 1
?SetEndState@ioHelipCopterAttachBuff@@IAEXPAVioBaseChar@@_N@Z PROC ; ioHelipCopterAttachBuff::SetEndState, COMDAT
; _this$ = ecx

; 458  : {

  00000	55		 push	 ebp
  00001	8b ec		 mov	 ebp, esp
  00003	6a ff		 push	 -1
  00005	68 00 00 00 00	 push	 __ehhandler$?SetEndState@ioHelipCopterAttachBuff@@IAEXPAVioBaseChar@@_N@Z
  0000a	64 a1 00 00 00
	00		 mov	 eax, DWORD PTR fs:0
  00010	50		 push	 eax
  00011	b8 1c 80 00 00	 mov	 eax, 32796		; 0000801cH
  00016	e8 00 00 00 00	 call	 __chkstk
  0001b	a1 00 00 00 00	 mov	 eax, DWORD PTR ___security_cookie
  00020	33 c5		 xor	 eax, ebp
  00022	89 45 f0	 mov	 DWORD PTR __$ArrayPad$[ebp], eax
  00025	56		 push	 esi
  00026	57		 push	 edi
  00027	50		 push	 eax
  00028	8d 45 f4	 lea	 eax, DWORD PTR __$EHRec$[ebp]
  0002b	64 a3 00 00 00
	00		 mov	 DWORD PTR fs:0, eax
  00031	8b 7d 08	 mov	 edi, DWORD PTR _pOwner$[ebp]
  00034	8b f1		 mov	 esi, ecx

; 459  : 	if ( !pOwner )

  00036	85 ff		 test	 edi, edi
  00038	0f 84 b4 00 00
	00		 je	 $LN1@SetEndStat

; 460  : 		return;
; 461  : 
; 462  : 	m_BuffState = BS_End;
; 463  : 
; 464  : 	m_bSetEndJump = bEndJump;

  0003e	8a 45 0c	 mov	 al, BYTE PTR _bEndJump$[ebp]
  00041	c7 86 6c 09 00
	00 02 00 00 00	 mov	 DWORD PTR [esi+2412], 2
  0004b	88 86 80 09 00
	00		 mov	 BYTE PTR [esi+2432], al

; 465  : 
; 466  : 	SetReserveEndBuff();

  00051	e8 00 00 00 00	 call	 ?SetReserveEndBuff@ioBuff@@QAEXXZ ; ioBuff::SetReserveEndBuff

; 467  : 
; 468  : 	if ( pOwner->IsNeedSendNetwork() )

  00056	8b 07		 mov	 eax, DWORD PTR [edi]
  00058	8b cf		 mov	 ecx, edi
  0005a	ff 90 04 01 00
	00		 call	 DWORD PTR [eax+260]
  00060	84 c0		 test	 al, al
  00062	0f 84 8a 00 00
	00		 je	 $LN1@SetEndStat

; 469  : 	{
; 470  : 		SP2Packet kPacket( CUPK_APPLY_EXTRA_BUFF_INFO );

  00068	68 45 42 00 00	 push	 16965			; 00004245H
  0006d	8d 8d d8 7f ff
	ff		 lea	 ecx, DWORD PTR _kPacket$549092[ebp]
  00073	e8 00 00 00 00	 call	 ??0SP2Packet@@QAE@K@Z	; SP2Packet::SP2Packet
  00078	83 65 fc 00	 and	 DWORD PTR __$EHRec$[ebp+8], 0

; 471  : 		kPacket << pOwner->GetCharName();

  0007c	81 c7 d4 02 00
	00		 add	 edi, 724		; 000002d4H
  00082	57		 push	 edi
  00083	8d 8d d8 7f ff
	ff		 lea	 ecx, DWORD PTR _kPacket$549092[ebp]
  00089	e8 00 00 00 00	 call	 ??6SP2Packet@@QAEAAV0@ABVioHashString@@@Z ; SP2Packet::operator<<

; 472  : 		kPacket << GetName();

  0008e	8d 86 34 02 00
	00		 lea	 eax, DWORD PTR [esi+564]
  00094	50		 push	 eax
  00095	8d 8d d8 7f ff
	ff		 lea	 ecx, DWORD PTR _kPacket$549092[ebp]
  0009b	e8 00 00 00 00	 call	 ??6SP2Packet@@QAEAAV0@ABVioHashString@@@Z ; SP2Packet::operator<<

; 473  : 		kPacket << BS_End;

  000a0	6a 02		 push	 2
  000a2	8d 8d d8 7f ff
	ff		 lea	 ecx, DWORD PTR _kPacket$549092[ebp]
  000a8	e8 00 00 00 00	 call	 ??6SP2Packet@@QAEAAV0@H@Z ; SP2Packet::operator<<

; 474  : 		kPacket << m_bSetEndJump;

  000ad	0f b6 86 80 09
	00 00		 movzx	 eax, BYTE PTR [esi+2432]
  000b4	50		 push	 eax
  000b5	8d 8d d8 7f ff
	ff		 lea	 ecx, DWORD PTR _kPacket$549092[ebp]
  000bb	e8 00 00 00 00	 call	 ??6SP2Packet@@QAEAAV0@_N@Z ; SP2Packet::operator<<

; 475  : 		kPacket << m_bDestoryDummy;

  000c0	0f b6 86 22 0a
	00 00		 movzx	 eax, BYTE PTR [esi+2594]
  000c7	50		 push	 eax
  000c8	8d 8d d8 7f ff
	ff		 lea	 ecx, DWORD PTR _kPacket$549092[ebp]
  000ce	e8 00 00 00 00	 call	 ??6SP2Packet@@QAEAAV0@_N@Z ; SP2Packet::operator<<

; 476  : 		P2PNetwork::SendToAllPlayingUser( kPacket );

  000d3	8d 85 d8 7f ff
	ff		 lea	 eax, DWORD PTR _kPacket$549092[ebp]
  000d9	6a 00		 push	 0
  000db	50		 push	 eax
  000dc	e8 00 00 00 00	 call	 ?SendToAllPlayingUser@P2PNetwork@@YAXAAVSP2Packet@@PAVioBaseChar@@@Z ; P2PNetwork::SendToAllPlayingUser

; 477  : 	}

  000e1	83 4d fc ff	 or	 DWORD PTR __$EHRec$[ebp+8], -1
  000e5	59		 pop	 ecx
  000e6	59		 pop	 ecx
  000e7	8d 8d d8 7f ff
	ff		 lea	 ecx, DWORD PTR _kPacket$549092[ebp]
  000ed	e8 00 00 00 00	 call	 ??1SP2Packet@@UAE@XZ	; SP2Packet::~SP2Packet
$LN1@SetEndStat:

; 478  : }

  000f2	8b 4d f4	 mov	 ecx, DWORD PTR __$EHRec$[ebp]
  000f5	64 89 0d 00 00
	00 00		 mov	 DWORD PTR fs:0, ecx
  000fc	59		 pop	 ecx
  000fd	5f		 pop	 edi
  000fe	5e		 pop	 esi
  000ff	8b 4d f0	 mov	 ecx, DWORD PTR __$ArrayPad$[ebp]
  00102	33 cd		 xor	 ecx, ebp
  00104	e8 00 00 00 00	 call	 @__security_check_cookie@4
  00109	c9		 leave
  0010a	c2 08 00	 ret	 8
_TEXT	ENDS
;	COMDAT text$x
text$x	SEGMENT
__unwindfunclet$?SetEndState@ioHelipCopterAttachBuff@@IAEXPAVioBaseChar@@_N@Z$0:
  00000	8d 8d d8 7f ff
	ff		 lea	 ecx, DWORD PTR _kPacket$549092[ebp]
  00006	e9 00 00 00 00	 jmp	 ??1SP2Packet@@UAE@XZ	; SP2Packet::~SP2Packet
__ehhandler$?SetEndState@ioHelipCopterAttachBuff@@IAEXPAVioBaseChar@@_N@Z:
  0000b	8b 54 24 08	 mov	 edx, DWORD PTR [esp+8]
  0000f	8d 42 0c	 lea	 eax, DWORD PTR [edx+12]
  00012	8b 8a d8 7f ff
	ff		 mov	 ecx, DWORD PTR [edx-32808]
  00018	33 c8		 xor	 ecx, eax
  0001a	e8 00 00 00 00	 call	 @__security_check_cookie@4
  0001f	8b 4a fc	 mov	 ecx, DWORD PTR [edx-4]
  00022	33 c8		 xor	 ecx, eax
  00024	e8 00 00 00 00	 call	 @__security_check_cookie@4
  00029	b8 00 00 00 00	 mov	 eax, OFFSET __ehfuncinfo$?SetEndState@ioHelipCopterAttachBuff@@IAEXPAVioBaseChar@@_N@Z
  0002e	e9 00 00 00 00	 jmp	 ___CxxFrameHandler3
text$x	ENDS
?SetEndState@ioHelipCopterAttachBuff@@IAEXPAVioBaseChar@@_N@Z ENDP ; ioHelipCopterAttachBuff::SetEndState
PUBLIC	__real@42c80000
PUBLIC	?ProcessEnd@ioHelipCopterAttachBuff@@IAEXPAVioBaseChar@@@Z ; ioHelipCopterAttachBuff::ProcessEnd
EXTRN	?ShowWeaponItemMesh@ioBaseChar@@QAEX_N0@Z:PROC	; ioBaseChar::ShowWeaponItemMesh
EXTRN	?DestroyDummyCharByName@ioDummyCharManager@@QAEXPAVioBaseChar@@ABVioHashString@@@Z:PROC ; ioDummyCharManager::DestroyDummyCharByName
EXTRN	?GetSingleton@ioDummyCharManager@@SAAAV1@XZ:PROC ; ioDummyCharManager::GetSingleton
EXTRN	?DestroyMagicCircle@ioBaseGUISupport@@QAEXXZ:PROC ; ioBaseGUISupport::DestroyMagicCircle
EXTRN	?SetMagicCircleTarget@ioBaseGUISupport@@QAEXABVioHashString@@@Z:PROC ; ioBaseGUISupport::SetMagicCircleTarget
EXTRN	?SetState@ioBaseChar@@QAEXH_N@Z:PROC		; ioBaseChar::SetState
EXTRN	?SetFallState@ioBaseChar@@QAEX_N@Z:PROC		; ioBaseChar::SetFallState
EXTRN	?SetSKillEndJumpState@ioBaseChar@@QAEXM_N0000@Z:PROC ; ioBaseChar::SetSKillEndJumpState
EXTRN	?IsFloating@ioBaseChar@@QAE_NXZ:PROC		; ioBaseChar::IsFloating
EXTRN	__imp_?ClearAllActionAni@ioEntityGroup@@QAEXM_N@Z:PROC
EXTRN	__imp_?ClearAllLoopAni@ioEntityGroup@@QAEXM_N@Z:PROC
;	COMDAT __real@42c80000
; File d:\lost saga for developer\youtube\tutorial\source\src\lsclient\iogameentity.h
CONST	SEGMENT
__real@42c80000 DD 042c80000r			; 100
CONST	ENDS
;	COMDAT xdata$x
xdata$x	SEGMENT
__unwindtable$?ProcessEnd@ioHelipCopterAttachBuff@@IAEXPAVioBaseChar@@@Z DD 0ffffffffH
	DD	FLAT:__unwindfunclet$?ProcessEnd@ioHelipCopterAttachBuff@@IAEXPAVioBaseChar@@@Z$0
__ehfuncinfo$?ProcessEnd@ioHelipCopterAttachBuff@@IAEXPAVioBaseChar@@@Z DD 019930522H
	DD	01H
	DD	FLAT:__unwindtable$?ProcessEnd@ioHelipCopterAttachBuff@@IAEXPAVioBaseChar@@@Z
	DD	2 DUP(00H)
	DD	2 DUP(00H)
	DD	00H
	DD	01H
; Function compile flags: /Ogsp
; File d:\lost saga for developer\youtube\tutorial\source\src\lsclient\iohelipcopterattachbuff.cpp
xdata$x	ENDS
;	COMDAT ?ProcessEnd@ioHelipCopterAttachBuff@@IAEXPAVioBaseChar@@@Z
_TEXT	SEGMENT
$T554822 = -28						; size = 16
__$EHRec$ = -12						; size = 12
tv70 = 8						; size = 4
_pOwner$ = 8						; size = 4
?ProcessEnd@ioHelipCopterAttachBuff@@IAEXPAVioBaseChar@@@Z PROC ; ioHelipCopterAttachBuff::ProcessEnd, COMDAT
; _this$ = ecx

; 481  : {

  00000	6a 10		 push	 16			; 00000010H
  00002	b8 00 00 00 00	 mov	 eax, __ehhandler$?ProcessEnd@ioHelipCopterAttachBuff@@IAEXPAVioBaseChar@@@Z
  00007	e8 00 00 00 00	 call	 __EH_prolog3
  0000c	8b f1		 mov	 esi, ecx

; 482  : 	if ( !pOwner || m_BuffState != BS_End )

  0000e	8b 7d 08	 mov	 edi, DWORD PTR _pOwner$[ebp]
  00011	85 ff		 test	 edi, edi
  00013	0f 84 5d 01 00
	00		 je	 $LN12@ProcessEnd
  00019	83 be 6c 09 00
	00 02		 cmp	 DWORD PTR [esi+2412], 2
  00020	0f 85 50 01 00
	00		 jne	 $LN12@ProcessEnd

; 483  : 		return;
; 484  : 	
; 485  : 	int nBuffCnt = (int)m_OwnerBuffList.size();	

  00026	8b 86 88 09 00
	00		 mov	 eax, DWORD PTR [esi+2440]
  0002c	2b 86 84 09 00
	00		 sub	 eax, DWORD PTR [esi+2436]
  00032	c1 f8 04	 sar	 eax, 4

; 486  : 	for ( int i=0; i<nBuffCnt; ++i )

  00035	85 c0		 test	 eax, eax
  00037	7e 1f		 jle	 SHORT $LN9@ProcessEnd

; 483  : 		return;
; 484  : 	
; 485  : 	int nBuffCnt = (int)m_OwnerBuffList.size();	

  00039	33 db		 xor	 ebx, ebx
  0003b	89 45 08	 mov	 DWORD PTR tv70[ebp], eax
$LL11@ProcessEnd:

; 486  : 	for ( int i=0; i<nBuffCnt; ++i )

  0003e	8b 86 84 09 00
	00		 mov	 eax, DWORD PTR [esi+2436]

; 487  : 		pOwner->RemoveBuff( m_OwnerBuffList[i], true );	

  00044	6a 01		 push	 1
  00046	03 c3		 add	 eax, ebx
  00048	50		 push	 eax
  00049	8b cf		 mov	 ecx, edi
  0004b	e8 00 00 00 00	 call	 ?RemoveBuff@ioBaseChar@@QAE_NABVioHashString@@_N@Z ; ioBaseChar::RemoveBuff
  00050	83 c3 10	 add	 ebx, 16			; 00000010H
  00053	ff 4d 08	 dec	 DWORD PTR tv70[ebp]
  00056	75 e6		 jne	 SHORT $LL11@ProcessEnd
$LN9@ProcessEnd:

; 488  : 
; 489  : 	if ( !m_szLoopAni.IsEmpty() )

  00058	8d 8e 24 0a 00
	00		 lea	 ecx, DWORD PTR [esi+2596]
  0005e	ff 15 00 00 00
	00		 call	 DWORD PTR __imp_?IsEmpty@ioHashString@@QBE_NXZ
  00064	84 c0		 test	 al, al
  00066	75 3b		 jne	 SHORT $LN8@ProcessEnd

; 490  : 	{
; 491  : 		ioEntityGroup *pGrp = pOwner->GetGroup();

  00068	8b 5f 04	 mov	 ebx, DWORD PTR [edi+4]

; 492  : 		if ( !pGrp )

  0006b	85 db		 test	 ebx, ebx
  0006d	0f 84 03 01 00
	00		 je	 $LN12@ProcessEnd

; 493  : 			return;
; 494  : 		pGrp->ClearAllLoopAni( 100.0f, true );

  00073	f3 0f 10 05 00
	00 00 00	 movss	 xmm0, DWORD PTR __real@42c80000
  0007b	6a 01		 push	 1
  0007d	51		 push	 ecx
  0007e	8b cb		 mov	 ecx, ebx
  00080	f3 0f 11 04 24	 movss	 DWORD PTR [esp], xmm0
  00085	ff 15 00 00 00
	00		 call	 DWORD PTR __imp_?ClearAllLoopAni@ioEntityGroup@@QAEXM_N@Z

; 495  : 		pGrp->ClearAllActionAni( 100.0f, true );

  0008b	f3 0f 10 05 00
	00 00 00	 movss	 xmm0, DWORD PTR __real@42c80000
  00093	6a 01		 push	 1
  00095	51		 push	 ecx
  00096	8b cb		 mov	 ecx, ebx
  00098	f3 0f 11 04 24	 movss	 DWORD PTR [esp], xmm0
  0009d	ff 15 00 00 00
	00		 call	 DWORD PTR __imp_?ClearAllActionAni@ioEntityGroup@@QAEXM_N@Z
$LN8@ProcessEnd:

; 496  : 	}
; 497  : 
; 498  : 	if ( pOwner->IsFloating() )

  000a3	8b cf		 mov	 ecx, edi
  000a5	e8 00 00 00 00	 call	 ?IsFloating@ioBaseChar@@QAE_NXZ ; ioBaseChar::IsFloating
  000aa	84 c0		 test	 al, al
  000ac	74 33		 je	 SHORT $LN6@ProcessEnd

; 499  : 	{
; 500  : 		if ( m_bSetEndJump )

  000ae	80 be 80 09 00
	00 00		 cmp	 BYTE PTR [esi+2432], 0
  000b5	74 1f		 je	 SHORT $LN5@ProcessEnd

; 501  : 			pOwner->SetSKillEndJumpState( m_fEndJumpPower, false, false, false, true );

  000b7	f3 0f 10 86 1c
	0a 00 00	 movss	 xmm0, DWORD PTR [esi+2588]
  000bf	33 c0		 xor	 eax, eax
  000c1	50		 push	 eax
  000c2	6a 01		 push	 1
  000c4	50		 push	 eax
  000c5	50		 push	 eax
  000c6	50		 push	 eax
  000c7	51		 push	 ecx
  000c8	8b cf		 mov	 ecx, edi
  000ca	f3 0f 11 04 24	 movss	 DWORD PTR [esp], xmm0
  000cf	e8 00 00 00 00	 call	 ?SetSKillEndJumpState@ioBaseChar@@QAEXM_N0000@Z ; ioBaseChar::SetSKillEndJumpState

; 502  : 		else

  000d4	eb 1c		 jmp	 SHORT $LN3@ProcessEnd
$LN5@ProcessEnd:

; 503  : 			pOwner->SetFallState( true );

  000d6	6a 01		 push	 1
  000d8	8b cf		 mov	 ecx, edi
  000da	e8 00 00 00 00	 call	 ?SetFallState@ioBaseChar@@QAEX_N@Z ; ioBaseChar::SetFallState

; 504  : 	}
; 505  : 	else

  000df	eb 11		 jmp	 SHORT $LN3@ProcessEnd
$LN6@ProcessEnd:

; 506  : 		pOwner->SetState( CS_DELAY, m_bSendDelayNetWork );

  000e1	0f b6 86 f9 08
	00 00		 movzx	 eax, BYTE PTR [esi+2297]
  000e8	50		 push	 eax
  000e9	6a 00		 push	 0
  000eb	8b cf		 mov	 ecx, edi
  000ed	e8 00 00 00 00	 call	 ?SetState@ioBaseChar@@QAEXH_N@Z ; ioBaseChar::SetState
$LN3@ProcessEnd:

; 507  : 
; 508  : 	pOwner->SetMagicCircleTarget( "" );

  000f2	68 00 00 00 00	 push	 OFFSET ??_C@_00CNPNBAHC@?$AA@
  000f7	8d 4d e4	 lea	 ecx, DWORD PTR $T554822[ebp]
  000fa	ff 15 00 00 00
	00		 call	 DWORD PTR __imp_??0ioHashString@@QAE@PBD@Z
  00100	83 65 fc 00	 and	 DWORD PTR __$EHRec$[ebp+8], 0
  00104	8d 45 e4	 lea	 eax, DWORD PTR $T554822[ebp]
  00107	50		 push	 eax
  00108	8d 8f cc 01 00
	00		 lea	 ecx, DWORD PTR [edi+460]
  0010e	e8 00 00 00 00	 call	 ?SetMagicCircleTarget@ioBaseGUISupport@@QAEXABVioHashString@@@Z ; ioBaseGUISupport::SetMagicCircleTarget
  00113	83 4d fc ff	 or	 DWORD PTR __$EHRec$[ebp+8], -1
  00117	8d 4d e4	 lea	 ecx, DWORD PTR $T554822[ebp]
  0011a	ff 15 00 00 00
	00		 call	 DWORD PTR __imp_??1ioHashString@@QAE@XZ

; 509  : 	pOwner->DestroyMagicCircle();

  00120	8d 8f cc 01 00
	00		 lea	 ecx, DWORD PTR [edi+460]
  00126	e8 00 00 00 00	 call	 ?DestroyMagicCircle@ioBaseGUISupport@@QAEXXZ ; ioBaseGUISupport::DestroyMagicCircle

; 510  : 
; 511  : 	if ( pOwner->IsNeedProcess() )

  0012b	8b 07		 mov	 eax, DWORD PTR [edi]
  0012d	8b cf		 mov	 ecx, edi
  0012f	ff 90 00 01 00
	00		 call	 DWORD PTR [eax+256]
  00135	84 c0		 test	 al, al
  00137	74 10		 je	 SHORT $LN2@ProcessEnd

; 512  : 	{
; 513  : 		EndCameraBuff( pOwner );

  00139	57		 push	 edi
  0013a	8b ce		 mov	 ecx, esi
  0013c	e8 00 00 00 00	 call	 ?EndCameraBuff@ioHelipCopterAttachBuff@@IAEXPAVioBaseChar@@@Z ; ioHelipCopterAttachBuff::EndCameraBuff

; 514  : 		EndCameraEvent( pOwner );

  00141	57		 push	 edi
  00142	8b ce		 mov	 ecx, esi
  00144	e8 00 00 00 00	 call	 ?EndCameraEvent@ioHelipCopterAttachBuff@@IAEXPAVioBaseChar@@@Z ; ioHelipCopterAttachBuff::EndCameraEvent
$LN2@ProcessEnd:

; 515  : 	}
; 516  : 
; 517  : 	if ( m_bDestoryDummy )

  00149	80 be 22 0a 00
	00 00		 cmp	 BYTE PTR [esi+2594], 0
  00150	74 19		 je	 SHORT $LN1@ProcessEnd

; 518  : 		g_DummyCharMgr.DestroyDummyCharByName( m_pOwner, m_szDummyName );

  00152	8d 86 e0 09 00
	00		 lea	 eax, DWORD PTR [esi+2528]
  00158	50		 push	 eax
  00159	ff b6 74 02 00
	00		 push	 DWORD PTR [esi+628]
  0015f	e8 00 00 00 00	 call	 ?GetSingleton@ioDummyCharManager@@SAAAV1@XZ ; ioDummyCharManager::GetSingleton
  00164	8b c8		 mov	 ecx, eax
  00166	e8 00 00 00 00	 call	 ?DestroyDummyCharByName@ioDummyCharManager@@QAEXPAVioBaseChar@@ABVioHashString@@@Z ; ioDummyCharManager::DestroyDummyCharByName
$LN1@ProcessEnd:

; 519  : 
; 520  : 	pOwner->ShowWeaponItemMesh( true );

  0016b	6a 00		 push	 0
  0016d	6a 01		 push	 1
  0016f	8b cf		 mov	 ecx, edi
  00171	e8 00 00 00 00	 call	 ?ShowWeaponItemMesh@ioBaseChar@@QAEX_N0@Z ; ioBaseChar::ShowWeaponItemMesh
$LN12@ProcessEnd:

; 521  : }

  00176	e8 00 00 00 00	 call	 __EH_epilog3
  0017b	c2 04 00	 ret	 4
_TEXT	ENDS
;	COMDAT text$x
text$x	SEGMENT
__unwindfunclet$?ProcessEnd@ioHelipCopterAttachBuff@@IAEXPAVioBaseChar@@@Z$0:
  00000	8d 4d e4	 lea	 ecx, DWORD PTR $T554822[ebp]
  00003	ff 25 00 00 00
	00		 jmp	 DWORD PTR __imp_??1ioHashString@@QAE@XZ
__ehhandler$?ProcessEnd@ioHelipCopterAttachBuff@@IAEXPAVioBaseChar@@@Z:
  00009	8b 54 24 08	 mov	 edx, DWORD PTR [esp+8]
  0000d	8d 42 0c	 lea	 eax, DWORD PTR [edx+12]
  00010	8b 4a e0	 mov	 ecx, DWORD PTR [edx-32]
  00013	33 c8		 xor	 ecx, eax
  00015	e8 00 00 00 00	 call	 @__security_check_cookie@4
  0001a	b8 00 00 00 00	 mov	 eax, OFFSET __ehfuncinfo$?ProcessEnd@ioHelipCopterAttachBuff@@IAEXPAVioBaseChar@@@Z
  0001f	e9 00 00 00 00	 jmp	 ___CxxFrameHandler3
text$x	ENDS
?ProcessEnd@ioHelipCopterAttachBuff@@IAEXPAVioBaseChar@@@Z ENDP ; ioHelipCopterAttachBuff::ProcessEnd
PUBLIC	?CheckMyBuff@ioHelipCopterAttachBuff@@IAE_NPAVioBaseChar@@@Z ; ioHelipCopterAttachBuff::CheckMyBuff
EXTRN	?HasBuff@ioBaseChar@@QBE_NABVioHashString@@0@Z:PROC ; ioBaseChar::HasBuff
; Function compile flags: /Ogsp
;	COMDAT ?CheckMyBuff@ioHelipCopterAttachBuff@@IAE_NPAVioBaseChar@@@Z
_TEXT	SEGMENT
_i$549239 = -8						; size = 4
tv211 = -4						; size = 4
_pOwner$ = 8						; size = 4
?CheckMyBuff@ioHelipCopterAttachBuff@@IAE_NPAVioBaseChar@@@Z PROC ; ioHelipCopterAttachBuff::CheckMyBuff, COMDAT
; _this$ = ecx

; 550  : {

  00000	55		 push	 ebp
  00001	8b ec		 mov	 ebp, esp
  00003	51		 push	 ecx
  00004	51		 push	 ecx

; 551  : 	if ( !pOwner )

  00005	8b 45 08	 mov	 eax, DWORD PTR _pOwner$[ebp]
  00008	57		 push	 edi
  00009	8b f9		 mov	 edi, ecx
  0000b	33 c9		 xor	 ecx, ecx
  0000d	3b c1		 cmp	 eax, ecx
  0000f	75 04		 jne	 SHORT $LN6@CheckMyBuf
$LN21@CheckMyBuf:

; 552  : 		return false;

  00011	32 c0		 xor	 al, al
  00013	eb 50		 jmp	 SHORT $LN7@CheckMyBuf
$LN6@CheckMyBuf:

; 553  : 
; 554  : 	ioPlayStage *pStage = pOwner->GetCreator();
; 555  : 	if ( !pStage )

  00015	39 88 44 03 00
	00		 cmp	 DWORD PTR [eax+836], ecx

; 556  : 		return false;

  0001b	74 f4		 je	 SHORT $LN21@CheckMyBuf

; 557  : 	
; 558  : 	int nMaxCnt = (int)m_CheckBuffList.size();

  0001d	53		 push	 ebx
  0001e	56		 push	 esi
  0001f	8b b7 00 0a 00
	00		 mov	 esi, DWORD PTR [edi+2560]
  00025	2b b7 fc 09 00
	00		 sub	 esi, DWORD PTR [edi+2556]

; 559  : 	for ( int i=0; i< nMaxCnt; ++i )

  0002b	89 4d f8	 mov	 DWORD PTR _i$549239[ebp], ecx
  0002e	c1 fe 04	 sar	 esi, 4
  00031	3b f1		 cmp	 esi, ecx
  00033	7e 2c		 jle	 SHORT $LN2@CheckMyBuf

; 557  : 	
; 558  : 	int nMaxCnt = (int)m_CheckBuffList.size();

  00035	8d 9f 88 02 00
	00		 lea	 ebx, DWORD PTR [edi+648]
  0003b	89 4d fc	 mov	 DWORD PTR tv211[ebp], ecx
$LL18@CheckMyBuf:

; 559  : 	for ( int i=0; i< nMaxCnt; ++i )

  0003e	8b 87 fc 09 00
	00		 mov	 eax, DWORD PTR [edi+2556]
  00044	03 45 fc	 add	 eax, DWORD PTR tv211[ebp]

; 560  : 	{
; 561  : 		if ( pOwner->HasBuff( m_CreateChar, m_CheckBuffList[i] ) )

  00047	8b 4d 08	 mov	 ecx, DWORD PTR _pOwner$[ebp]
  0004a	50		 push	 eax
  0004b	53		 push	 ebx
  0004c	e8 00 00 00 00	 call	 ?HasBuff@ioBaseChar@@QBE_NABVioHashString@@0@Z ; ioBaseChar::HasBuff
  00051	84 c0		 test	 al, al
  00053	75 15		 jne	 SHORT $LN16@CheckMyBuf

; 559  : 	for ( int i=0; i< nMaxCnt; ++i )

  00055	ff 45 f8	 inc	 DWORD PTR _i$549239[ebp]
  00058	83 45 fc 10	 add	 DWORD PTR tv211[ebp], 16 ; 00000010H
  0005c	39 75 f8	 cmp	 DWORD PTR _i$549239[ebp], esi
  0005f	7c dd		 jl	 SHORT $LL18@CheckMyBuf
$LN2@CheckMyBuf:

; 563  : 	}
; 564  : 
; 565  : 	return true;

  00061	b0 01		 mov	 al, 1
$LN19@CheckMyBuf:
  00063	5e		 pop	 esi
  00064	5b		 pop	 ebx
$LN7@CheckMyBuf:
  00065	5f		 pop	 edi

; 566  : }

  00066	c9		 leave
  00067	c2 04 00	 ret	 4
$LN16@CheckMyBuf:

; 562  : 			return false;

  0006a	32 c0		 xor	 al, al
  0006c	eb f5		 jmp	 SHORT $LN19@CheckMyBuf
?CheckMyBuff@ioHelipCopterAttachBuff@@IAE_NPAVioBaseChar@@@Z ENDP ; ioHelipCopterAttachBuff::CheckMyBuff
_TEXT	ENDS
PUBLIC	_pOwner$GSCopy$
PUBLIC	__$ArrayPad$
PUBLIC	?SetPos@ioHelipCopterAttachBuff@@IAE_NPAVioBaseChar@@@Z ; ioHelipCopterAttachBuff::SetPos
EXTRN	?SetTargetRotToRotate@ioBaseChar@@QAEXABUD3DXQUATERNION@@_N1@Z:PROC ; ioBaseChar::SetTargetRotToRotate
EXTRN	?SetTargetRotToTargetPos@ioBaseChar@@QAEXABUD3DXVECTOR3@@_N1@Z:PROC ; ioBaseChar::SetTargetRotToTargetPos
EXTRN	__imp_??D@YA?AUD3DXVECTOR3@@ABUD3DXQUATERNION@@ABU0@@Z:PROC
EXTRN	?FindDummyCharToName@ioDummyCharManager@@QAEPAVioDummyChar@@PAVioBaseChar@@ABVioHashString@@@Z:PROC ; ioDummyCharManager::FindDummyCharToName
; Function compile flags: /Ogsp
;	COMDAT ?SetPos@ioHelipCopterAttachBuff@@IAE_NPAVioBaseChar@@@Z
_TEXT	SEGMENT
_qtRot$ = -52						; size = 16
_pOwner$GSCopy$ = -36					; size = 4
_pDummy$ = -32						; size = 4
$T549261 = -28						; size = 12
_vNewPos$ = -16						; size = 12
__$ArrayPad$ = -4					; size = 4
_pOwner$ = 8						; size = 4
?SetPos@ioHelipCopterAttachBuff@@IAE_NPAVioBaseChar@@@Z PROC ; ioHelipCopterAttachBuff::SetPos, COMDAT
; _this$ = ecx

; 581  : {

  00000	55		 push	 ebp
  00001	8b ec		 mov	 ebp, esp
  00003	83 ec 34	 sub	 esp, 52			; 00000034H
  00006	a1 00 00 00 00	 mov	 eax, DWORD PTR ___security_cookie
  0000b	33 c5		 xor	 eax, ebp
  0000d	89 45 fc	 mov	 DWORD PTR __$ArrayPad$[ebp], eax
  00010	8b 45 08	 mov	 eax, DWORD PTR _pOwner$[ebp]
  00013	53		 push	 ebx
  00014	8b d9		 mov	 ebx, ecx

; 598  : 		m_pOwner->SetTargetRotToTargetPos( m_vCirclePos, true );

  00016	89 45 dc	 mov	 DWORD PTR _pOwner$GSCopy$[ebp], eax
  00019	85 c0		 test	 eax, eax
  0001b	75 07		 jne	 SHORT $LN5@SetPos
$LN16@SetPos:

; 582  : 	if ( !pOwner )
; 583  : 		return false;

  0001d	32 c0		 xor	 al, al
  0001f	e9 41 01 00 00	 jmp	 $LN6@SetPos
$LN5@SetPos:

; 584  : 
; 585  : 	ioBaseChar *pCreator = GetCreator();

  00024	e8 00 00 00 00	 call	 ?GetCreator@ioBuff@@QAEPAVioBaseChar@@XZ ; ioBuff::GetCreator

; 586  : 	if ( !pCreator )

  00029	85 c0		 test	 eax, eax

; 587  : 		return false;

  0002b	74 f0		 je	 SHORT $LN16@SetPos

; 588  : 
; 589  : 	ioDummyChar *pDummy = g_DummyCharMgr.FindDummyCharToName( pCreator, m_szDummyName );

  0002d	8d 8b e0 09 00
	00		 lea	 ecx, DWORD PTR [ebx+2528]
  00033	51		 push	 ecx
  00034	50		 push	 eax
  00035	e8 00 00 00 00	 call	 ?GetSingleton@ioDummyCharManager@@SAAAV1@XZ ; ioDummyCharManager::GetSingleton
  0003a	8b c8		 mov	 ecx, eax
  0003c	e8 00 00 00 00	 call	 ?FindDummyCharToName@ioDummyCharManager@@QAEPAVioDummyChar@@PAVioBaseChar@@ABVioHashString@@@Z ; ioDummyCharManager::FindDummyCharToName
  00041	89 45 e0	 mov	 DWORD PTR _pDummy$[ebp], eax

; 590  : 	if ( !pDummy )

  00044	85 c0		 test	 eax, eax

; 591  : 		return false;

  00046	74 d5		 je	 SHORT $LN16@SetPos

; 592  : 
; 593  : 	D3DXQUATERNION qtRot = pDummy->GetWorldOrientation();

  00048	8b 10		 mov	 edx, DWORD PTR [eax]
  0004a	56		 push	 esi
  0004b	57		 push	 edi
  0004c	8b c8		 mov	 ecx, eax
  0004e	ff 52 74	 call	 DWORD PTR [edx+116]
  00051	8b f0		 mov	 esi, eax
  00053	8d 7d cc	 lea	 edi, DWORD PTR _qtRot$[ebp]
  00056	a5		 movsd
  00057	a5		 movsd

; 594  : 	D3DXVECTOR3 vNewPos = pDummy->GetWorldPosition() + qtRot * m_vPosOffset;

  00058	8d 83 f0 09 00
	00		 lea	 eax, DWORD PTR [ebx+2544]
  0005e	50		 push	 eax
  0005f	8d 45 cc	 lea	 eax, DWORD PTR _qtRot$[ebp]
  00062	a5		 movsd
  00063	50		 push	 eax
  00064	8d 45 e4	 lea	 eax, DWORD PTR $T549261[ebp]
  00067	50		 push	 eax
  00068	a5		 movsd
  00069	ff 15 00 00 00
	00		 call	 DWORD PTR __imp_??D@YA?AUD3DXVECTOR3@@ABUD3DXQUATERNION@@ABU0@@Z
  0006f	8b 4d e0	 mov	 ecx, DWORD PTR _pDummy$[ebp]
  00072	8b f0		 mov	 esi, eax
  00074	8b 01		 mov	 eax, DWORD PTR [ecx]
  00076	83 c4 0c	 add	 esp, 12			; 0000000cH
  00079	ff 50 70	 call	 DWORD PTR [eax+112]
  0007c	f3 0f 10 46 04	 movss	 xmm0, DWORD PTR [esi+4]
  00081	f3 0f 10 48 04	 movss	 xmm1, DWORD PTR [eax+4]
  00086	f3 0f 10 50 08	 movss	 xmm2, DWORD PTR [eax+8]
  0008b	f3 0f 10 18	 movss	 xmm3, DWORD PTR [eax]
  0008f	0f 5a c9	 cvtps2pd xmm1, xmm1
  00092	0f 5a c0	 cvtps2pd xmm0, xmm0
  00095	f2 0f 58 c1	 addsd	 xmm0, xmm1
  00099	f3 0f 10 4e 08	 movss	 xmm1, DWORD PTR [esi+8]
  0009e	0f 5a d2	 cvtps2pd xmm2, xmm2
  000a1	0f 5a c9	 cvtps2pd xmm1, xmm1
  000a4	f2 0f 58 ca	 addsd	 xmm1, xmm2
  000a8	f3 0f 10 16	 movss	 xmm2, DWORD PTR [esi]

; 595  : 
; 596  : 	pOwner->SetWorldPosition( vNewPos );

  000ac	8b 75 dc	 mov	 esi, DWORD PTR _pOwner$GSCopy$[ebp]
  000af	8b 06		 mov	 eax, DWORD PTR [esi]
  000b1	0f 5a d2	 cvtps2pd xmm2, xmm2
  000b4	8d 4d f0	 lea	 ecx, DWORD PTR _vNewPos$[ebp]
  000b7	0f 5a db	 cvtps2pd xmm3, xmm3
  000ba	f2 0f 58 d3	 addsd	 xmm2, xmm3
  000be	51		 push	 ecx
  000bf	66 0f 5a c0	 cvtpd2ps xmm0, xmm0
  000c3	66 0f 5a c9	 cvtpd2ps xmm1, xmm1
  000c7	66 0f 5a d2	 cvtpd2ps xmm2, xmm2
  000cb	8b ce		 mov	 ecx, esi
  000cd	f3 0f 11 55 f0	 movss	 DWORD PTR _vNewPos$[ebp], xmm2
  000d2	f3 0f 11 45 f4	 movss	 DWORD PTR _vNewPos$[ebp+4], xmm0
  000d7	f3 0f 11 4d f8	 movss	 DWORD PTR _vNewPos$[ebp+8], xmm1
  000dc	ff 50 44	 call	 DWORD PTR [eax+68]

; 597  : 	if ( m_bRotateCircle && m_vCirclePos != ioMath::VEC3_ZERO )

  000df	80 bb 20 0a 00
	00 00		 cmp	 BYTE PTR [ebx+2592], 0
  000e6	74 6a		 je	 SHORT $LN2@SetPos
  000e8	8b 0d 00 00 00
	00		 mov	 ecx, DWORD PTR __imp_?VEC3_ZERO@ioMath@@2UD3DXVECTOR3@@A
  000ee	f3 0f 10 09	 movss	 xmm1, DWORD PTR [ecx]
  000f2	8d 93 70 09 00
	00		 lea	 edx, DWORD PTR [ebx+2416]
  000f8	f3 0f 10 02	 movss	 xmm0, DWORD PTR [edx]
  000fc	0f 5a c0	 cvtps2pd xmm0, xmm0
  000ff	0f 5a c9	 cvtps2pd xmm1, xmm1
  00102	66 0f 2e c1	 ucomisd xmm0, xmm1
  00106	9f		 lahf
  00107	f6 c4 44	 test	 ah, 68			; 00000044H
  0010a	7a 34		 jp	 SHORT $LN14@SetPos
  0010c	f3 0f 10 42 04	 movss	 xmm0, DWORD PTR [edx+4]
  00111	f3 0f 10 49 04	 movss	 xmm1, DWORD PTR [ecx+4]
  00116	0f 5a c0	 cvtps2pd xmm0, xmm0
  00119	0f 5a c9	 cvtps2pd xmm1, xmm1
  0011c	66 0f 2e c1	 ucomisd xmm0, xmm1
  00120	9f		 lahf
  00121	f6 c4 44	 test	 ah, 68			; 00000044H
  00124	7a 1a		 jp	 SHORT $LN14@SetPos
  00126	f3 0f 10 42 08	 movss	 xmm0, DWORD PTR [edx+8]
  0012b	f3 0f 10 49 08	 movss	 xmm1, DWORD PTR [ecx+8]
  00130	0f 5a c0	 cvtps2pd xmm0, xmm0
  00133	0f 5a c9	 cvtps2pd xmm1, xmm1
  00136	66 0f 2e c1	 ucomisd xmm0, xmm1
  0013a	9f		 lahf
  0013b	f6 c4 44	 test	 ah, 68			; 00000044H
  0013e	7b 12		 jnp	 SHORT $LN2@SetPos
$LN14@SetPos:

; 598  : 		m_pOwner->SetTargetRotToTargetPos( m_vCirclePos, true );

  00140	8b 8b 74 02 00
	00		 mov	 ecx, DWORD PTR [ebx+628]
  00146	6a 00		 push	 0
  00148	6a 01		 push	 1
  0014a	52		 push	 edx
  0014b	e8 00 00 00 00	 call	 ?SetTargetRotToTargetPos@ioBaseChar@@QAEXABUD3DXVECTOR3@@_N1@Z ; ioBaseChar::SetTargetRotToTargetPos

; 599  : 	else

  00150	eb 0f		 jmp	 SHORT $LN1@SetPos
$LN2@SetPos:

; 600  : 		pOwner->SetTargetRotToRotate( qtRot, true );

  00152	6a 00		 push	 0
  00154	6a 01		 push	 1
  00156	8d 45 cc	 lea	 eax, DWORD PTR _qtRot$[ebp]
  00159	50		 push	 eax
  0015a	8b ce		 mov	 ecx, esi
  0015c	e8 00 00 00 00	 call	 ?SetTargetRotToRotate@ioBaseChar@@QAEXABUD3DXQUATERNION@@_N1@Z ; ioBaseChar::SetTargetRotToRotate
$LN1@SetPos:

; 601  : 
; 602  : 	return true;

  00161	5f		 pop	 edi
  00162	b0 01		 mov	 al, 1
  00164	5e		 pop	 esi
$LN6@SetPos:

; 603  : }

  00165	8b 4d fc	 mov	 ecx, DWORD PTR __$ArrayPad$[ebp]
  00168	33 cd		 xor	 ecx, ebp
  0016a	5b		 pop	 ebx
  0016b	e8 00 00 00 00	 call	 @__security_check_cookie@4
  00170	c9		 leave
  00171	c2 04 00	 ret	 4
?SetPos@ioHelipCopterAttachBuff@@IAE_NPAVioBaseChar@@@Z ENDP ; ioHelipCopterAttachBuff::SetPos
_TEXT	ENDS
PUBLIC	__$ArrayPad$
PUBLIC	?SetGaugeStart@ioHelipCopterAttachBuff@@IAEXPAVioBaseChar@@@Z ; ioHelipCopterAttachBuff::SetGaugeStart
EXTRN	?SetReduceStartGauge@ioDummyAttachBuff3@@QAEXXZ:PROC ; ioDummyAttachBuff3::SetReduceStartGauge
EXTRN	?GetBuff@ioBaseChar@@QAEPAVioBuff@@ABVioHashString@@@Z:PROC ; ioBaseChar::GetBuff
;	COMDAT xdata$x
; File d:\lost saga for developer\youtube\tutorial\source\src\lsclient\iobuff.h
xdata$x	SEGMENT
__unwindtable$?SetGaugeStart@ioHelipCopterAttachBuff@@IAEXPAVioBaseChar@@@Z DD 0ffffffffH
	DD	FLAT:__unwindfunclet$?SetGaugeStart@ioHelipCopterAttachBuff@@IAEXPAVioBaseChar@@@Z$0
__ehfuncinfo$?SetGaugeStart@ioHelipCopterAttachBuff@@IAEXPAVioBaseChar@@@Z DD 019930522H
	DD	01H
	DD	FLAT:__unwindtable$?SetGaugeStart@ioHelipCopterAttachBuff@@IAEXPAVioBaseChar@@@Z
	DD	2 DUP(00H)
	DD	2 DUP(00H)
	DD	00H
	DD	01H
; Function compile flags: /Ogsp
; File d:\lost saga for developer\youtube\tutorial\source\src\lsclient\iohelipcopterattachbuff.cpp
xdata$x	ENDS
;	COMDAT ?SetGaugeStart@ioHelipCopterAttachBuff@@IAEXPAVioBaseChar@@@Z
_TEXT	SEGMENT
_kPacket$549320 = -32808				; size = 32792
__$ArrayPad$ = -16					; size = 4
__$EHRec$ = -12						; size = 12
_pOwner$ = 8						; size = 4
?SetGaugeStart@ioHelipCopterAttachBuff@@IAEXPAVioBaseChar@@@Z PROC ; ioHelipCopterAttachBuff::SetGaugeStart, COMDAT
; _this$ = ecx

; 696  : {

  00000	55		 push	 ebp
  00001	8b ec		 mov	 ebp, esp
  00003	6a ff		 push	 -1
  00005	68 00 00 00 00	 push	 __ehhandler$?SetGaugeStart@ioHelipCopterAttachBuff@@IAEXPAVioBaseChar@@@Z
  0000a	64 a1 00 00 00
	00		 mov	 eax, DWORD PTR fs:0
  00010	50		 push	 eax
  00011	b8 1c 80 00 00	 mov	 eax, 32796		; 0000801cH
  00016	e8 00 00 00 00	 call	 __chkstk
  0001b	a1 00 00 00 00	 mov	 eax, DWORD PTR ___security_cookie
  00020	33 c5		 xor	 eax, ebp
  00022	89 45 f0	 mov	 DWORD PTR __$ArrayPad$[ebp], eax
  00025	56		 push	 esi
  00026	57		 push	 edi
  00027	50		 push	 eax
  00028	8d 45 f4	 lea	 eax, DWORD PTR __$EHRec$[ebp]
  0002b	64 a3 00 00 00
	00		 mov	 DWORD PTR fs:0, eax
  00031	8b 7d 08	 mov	 edi, DWORD PTR _pOwner$[ebp]
  00034	8b f1		 mov	 esi, ecx

; 697  : 	if ( !pOwner )

  00036	85 ff		 test	 edi, edi
  00038	0f 84 9f 00 00
	00		 je	 $LN1@SetGaugeSt

; 698  : 		return;
; 699  : 
; 700  : 	ioBaseChar *pCreater = GetCreator();

  0003e	e8 00 00 00 00	 call	 ?GetCreator@ioBuff@@QAEPAVioBaseChar@@XZ ; ioBuff::GetCreator

; 701  : 	if ( !pCreater )

  00043	85 c0		 test	 eax, eax
  00045	0f 84 92 00 00
	00		 je	 $LN1@SetGaugeSt

; 702  : 		return;
; 703  : 
; 704  : 	ioBuff *pBuff = pCreater->GetBuff( m_szGaugeBuff );

  0004b	8d 8e 0c 0a 00
	00		 lea	 ecx, DWORD PTR [esi+2572]
  00051	51		 push	 ecx
  00052	8b c8		 mov	 ecx, eax
  00054	e8 00 00 00 00	 call	 ?GetBuff@ioBaseChar@@QAEPAVioBuff@@ABVioHashString@@@Z ; ioBaseChar::GetBuff

; 705  : 	ioDummyAttachBuff3 *pDummyAttachBuff3 = ToDummyAttachBuff3( pBuff );

  00059	50		 push	 eax
  0005a	e8 00 00 00 00	 call	 ?ToDummyAttachBuff3@@YAPAVioDummyAttachBuff3@@PAVioBuff@@@Z ; ToDummyAttachBuff3
  0005f	59		 pop	 ecx

; 706  : 	if ( pDummyAttachBuff3 )

  00060	85 c0		 test	 eax, eax
  00062	74 07		 je	 SHORT $LN2@SetGaugeSt

; 707  : 		pDummyAttachBuff3->SetReduceStartGauge();

  00064	8b c8		 mov	 ecx, eax
  00066	e8 00 00 00 00	 call	 ?SetReduceStartGauge@ioDummyAttachBuff3@@QAEXXZ ; ioDummyAttachBuff3::SetReduceStartGauge
$LN2@SetGaugeSt:

; 708  : 
; 709  : 	if ( pOwner->IsNeedSendNetwork() )

  0006b	8b 07		 mov	 eax, DWORD PTR [edi]
  0006d	8b cf		 mov	 ecx, edi
  0006f	ff 90 04 01 00
	00		 call	 DWORD PTR [eax+260]
  00075	84 c0		 test	 al, al
  00077	74 64		 je	 SHORT $LN1@SetGaugeSt

; 710  : 	{
; 711  : 		SP2Packet kPacket( CUPK_APPLY_EXTRA_BUFF_INFO );

  00079	68 45 42 00 00	 push	 16965			; 00004245H
  0007e	8d 8d d8 7f ff
	ff		 lea	 ecx, DWORD PTR _kPacket$549320[ebp]
  00084	e8 00 00 00 00	 call	 ??0SP2Packet@@QAE@K@Z	; SP2Packet::SP2Packet
  00089	83 65 fc 00	 and	 DWORD PTR __$EHRec$[ebp+8], 0

; 712  : 		kPacket << pOwner->GetCharName();

  0008d	81 c7 d4 02 00
	00		 add	 edi, 724		; 000002d4H
  00093	57		 push	 edi
  00094	8d 8d d8 7f ff
	ff		 lea	 ecx, DWORD PTR _kPacket$549320[ebp]
  0009a	e8 00 00 00 00	 call	 ??6SP2Packet@@QAEAAV0@ABVioHashString@@@Z ; SP2Packet::operator<<

; 713  : 		kPacket << GetName();

  0009f	81 c6 34 02 00
	00		 add	 esi, 564		; 00000234H
  000a5	56		 push	 esi
  000a6	8d 8d d8 7f ff
	ff		 lea	 ecx, DWORD PTR _kPacket$549320[ebp]
  000ac	e8 00 00 00 00	 call	 ??6SP2Packet@@QAEAAV0@ABVioHashString@@@Z ; SP2Packet::operator<<

; 714  : 		kPacket << BS_StartGauge;

  000b1	6a 04		 push	 4
  000b3	8d 8d d8 7f ff
	ff		 lea	 ecx, DWORD PTR _kPacket$549320[ebp]
  000b9	e8 00 00 00 00	 call	 ??6SP2Packet@@QAEAAV0@H@Z ; SP2Packet::operator<<

; 715  : 		P2PNetwork::SendToAllPlayingUser( kPacket );

  000be	8d 85 d8 7f ff
	ff		 lea	 eax, DWORD PTR _kPacket$549320[ebp]
  000c4	6a 00		 push	 0
  000c6	50		 push	 eax
  000c7	e8 00 00 00 00	 call	 ?SendToAllPlayingUser@P2PNetwork@@YAXAAVSP2Packet@@PAVioBaseChar@@@Z ; P2PNetwork::SendToAllPlayingUser

; 716  : 	}

  000cc	83 4d fc ff	 or	 DWORD PTR __$EHRec$[ebp+8], -1
  000d0	59		 pop	 ecx
  000d1	59		 pop	 ecx
  000d2	8d 8d d8 7f ff
	ff		 lea	 ecx, DWORD PTR _kPacket$549320[ebp]
  000d8	e8 00 00 00 00	 call	 ??1SP2Packet@@UAE@XZ	; SP2Packet::~SP2Packet
$LN1@SetGaugeSt:

; 717  : }

  000dd	8b 4d f4	 mov	 ecx, DWORD PTR __$EHRec$[ebp]
  000e0	64 89 0d 00 00
	00 00		 mov	 DWORD PTR fs:0, ecx
  000e7	59		 pop	 ecx
  000e8	5f		 pop	 edi
  000e9	5e		 pop	 esi
  000ea	8b 4d f0	 mov	 ecx, DWORD PTR __$ArrayPad$[ebp]
  000ed	33 cd		 xor	 ecx, ebp
  000ef	e8 00 00 00 00	 call	 @__security_check_cookie@4
  000f4	c9		 leave
  000f5	c2 04 00	 ret	 4
_TEXT	ENDS
;	COMDAT text$x
text$x	SEGMENT
__unwindfunclet$?SetGaugeStart@ioHelipCopterAttachBuff@@IAEXPAVioBaseChar@@@Z$0:
  00000	8d 8d d8 7f ff
	ff		 lea	 ecx, DWORD PTR _kPacket$549320[ebp]
  00006	e9 00 00 00 00	 jmp	 ??1SP2Packet@@UAE@XZ	; SP2Packet::~SP2Packet
__ehhandler$?SetGaugeStart@ioHelipCopterAttachBuff@@IAEXPAVioBaseChar@@@Z:
  0000b	8b 54 24 08	 mov	 edx, DWORD PTR [esp+8]
  0000f	8d 42 0c	 lea	 eax, DWORD PTR [edx+12]
  00012	8b 8a d8 7f ff
	ff		 mov	 ecx, DWORD PTR [edx-32808]
  00018	33 c8		 xor	 ecx, eax
  0001a	e8 00 00 00 00	 call	 @__security_check_cookie@4
  0001f	8b 4a fc	 mov	 ecx, DWORD PTR [edx-4]
  00022	33 c8		 xor	 ecx, eax
  00024	e8 00 00 00 00	 call	 @__security_check_cookie@4
  00029	b8 00 00 00 00	 mov	 eax, OFFSET __ehfuncinfo$?SetGaugeStart@ioHelipCopterAttachBuff@@IAEXPAVioBaseChar@@@Z
  0002e	e9 00 00 00 00	 jmp	 ___CxxFrameHandler3
text$x	ENDS
?SetGaugeStart@ioHelipCopterAttachBuff@@IAEXPAVioBaseChar@@@Z ENDP ; ioHelipCopterAttachBuff::SetGaugeStart
PUBLIC	__real@3ff0000000000000
PUBLIC	__real@3f800000
PUBLIC	?SetLoopAni@ioHelipCopterAttachBuff@@IAEXPAVioBaseChar@@ABVioHashString@@M@Z ; ioHelipCopterAttachBuff::SetLoopAni
EXTRN	__imp_?SetLoopAni@ioEntityGroup@@QAE_NHMMMM@Z:PROC
EXTRN	__imp_?GetAnimationIdx@ioEntityGroup@@QAEHABVioHashString@@@Z:PROC
;	COMDAT __real@3ff0000000000000
; File d:\lost saga for developer\youtube\tutorial\source\src\lsclient\iogameentity.h
CONST	SEGMENT
__real@3ff0000000000000 DQ 03ff0000000000000r	; 1
CONST	ENDS
;	COMDAT __real@3f800000
CONST	SEGMENT
__real@3f800000 DD 03f800000r			; 1
; Function compile flags: /Ogsp
; File d:\lost saga for developer\youtube\tutorial\source\src\lsclient\iohelipcopterattachbuff.cpp
CONST	ENDS
;	COMDAT ?SetLoopAni@ioHelipCopterAttachBuff@@IAEXPAVioBaseChar@@ABVioHashString@@M@Z
_TEXT	SEGMENT
_pOwner$ = 8						; size = 4
_szAniName$ = 12					; size = 4
_fRate$ = 16						; size = 4
?SetLoopAni@ioHelipCopterAttachBuff@@IAEXPAVioBaseChar@@ABVioHashString@@M@Z PROC ; ioHelipCopterAttachBuff::SetLoopAni, COMDAT
; _this$ = ecx

; 868  : {

  00000	55		 push	 ebp
  00001	8b ec		 mov	 ebp, esp
  00003	57		 push	 edi

; 869  : 	if ( !pOwner )

  00004	8b 7d 08	 mov	 edi, DWORD PTR _pOwner$[ebp]
  00007	85 ff		 test	 edi, edi
  00009	0f 84 d5 00 00
	00		 je	 $LN6@SetLoopAni

; 870  : 		return;
; 871  : 
; 872  : 	if ( szAniName.IsEmpty() )

  0000f	8b 4d 0c	 mov	 ecx, DWORD PTR _szAniName$[ebp]
  00012	ff 15 00 00 00
	00		 call	 DWORD PTR __imp_?IsEmpty@ioHashString@@QBE_NXZ
  00018	84 c0		 test	 al, al
  0001a	0f 85 c4 00 00
	00		 jne	 $LN6@SetLoopAni

; 873  : 		return;
; 874  : 
; 875  : 	ioEntityGroup *pGrp = pOwner->GetGroup();

  00020	56		 push	 esi
  00021	8b 77 04	 mov	 esi, DWORD PTR [edi+4]

; 876  : 	if ( !pGrp )

  00024	85 f6		 test	 esi, esi
  00026	0f 84 b7 00 00
	00		 je	 $LN10@SetLoopAni

; 877  : 		return;
; 878  : 
; 879  : 	int iAniID = pGrp->GetAnimationIdx( szAniName );

  0002c	53		 push	 ebx
  0002d	ff 75 0c	 push	 DWORD PTR _szAniName$[ebp]
  00030	8b ce		 mov	 ecx, esi
  00032	ff 15 00 00 00
	00		 call	 DWORD PTR __imp_?GetAnimationIdx@ioEntityGroup@@QAEHABVioHashString@@@Z
  00038	8b d8		 mov	 ebx, eax

; 880  : 	if( iAniID == -1 )	

  0003a	83 fb ff	 cmp	 ebx, -1
  0003d	0f 84 9f 00 00
	00		 je	 $LN11@SetLoopAni

; 881  : 		return;
; 882  : 
; 883  : 	if ( fRate <= 0.0f )

  00043	0f 57 c0	 xorps	 xmm0, xmm0
  00046	0f 2f 45 10	 comiss	 xmm0, DWORD PTR _fRate$[ebp]
  0004a	72 0d		 jb	 SHORT $LN1@SetLoopAni

; 884  : 		fRate = 1.0f;

  0004c	f3 0f 10 05 00
	00 00 00	 movss	 xmm0, DWORD PTR __real@3f800000
  00054	f3 0f 11 45 10	 movss	 DWORD PTR _fRate$[ebp], xmm0
$LN1@SetLoopAni:

; 885  : 
; 886  : 	pOwner->ShowWeaponItemMesh( false );

  00059	6a 00		 push	 0
  0005b	6a 00		 push	 0
  0005d	8b cf		 mov	 ecx, edi
  0005f	e8 00 00 00 00	 call	 ?ShowWeaponItemMesh@ioBaseChar@@QAEX_N0@Z ; ioBaseChar::ShowWeaponItemMesh

; 887  : 
; 888  : 	pGrp->ClearAllLoopAni( 100.0f, true );

  00064	f3 0f 10 05 00
	00 00 00	 movss	 xmm0, DWORD PTR __real@42c80000
  0006c	6a 01		 push	 1
  0006e	51		 push	 ecx
  0006f	8b ce		 mov	 ecx, esi
  00071	f3 0f 11 04 24	 movss	 DWORD PTR [esp], xmm0
  00076	ff 15 00 00 00
	00		 call	 DWORD PTR __imp_?ClearAllLoopAni@ioEntityGroup@@QAEXM_N@Z

; 889  : 	pGrp->ClearAllActionAni( 100.0f, true );

  0007c	f3 0f 10 05 00
	00 00 00	 movss	 xmm0, DWORD PTR __real@42c80000
  00084	6a 01		 push	 1
  00086	51		 push	 ecx
  00087	8b ce		 mov	 ecx, esi
  00089	f3 0f 11 04 24	 movss	 DWORD PTR [esp], xmm0
  0008e	ff 15 00 00 00
	00		 call	 DWORD PTR __imp_?ClearAllActionAni@ioEntityGroup@@QAEXM_N@Z

; 890  : 	pGrp->SetLoopAni( iAniID, 100.0f, 1.0f, 1.0f/fRate );

  00094	0f 57 c0	 xorps	 xmm0, xmm0
  00097	f2 0f 10 0d 00
	00 00 00	 movsd	 xmm1, QWORD PTR __real@3ff0000000000000
  0009f	83 ec 10	 sub	 esp, 16			; 00000010H
  000a2	f3 0f 11 44 24
	0c		 movss	 DWORD PTR [esp+12], xmm0
  000a8	f3 0f 10 45 10	 movss	 xmm0, DWORD PTR _fRate$[ebp]
  000ad	0f 5a c0	 cvtps2pd xmm0, xmm0
  000b0	f2 0f 5e c8	 divsd	 xmm1, xmm0
  000b4	8b ce		 mov	 ecx, esi
  000b6	66 0f 5a c1	 cvtpd2ps xmm0, xmm1
  000ba	f3 0f 11 44 24
	08		 movss	 DWORD PTR [esp+8], xmm0
  000c0	f3 0f 10 05 00
	00 00 00	 movss	 xmm0, DWORD PTR __real@3f800000
  000c8	f3 0f 11 44 24
	04		 movss	 DWORD PTR [esp+4], xmm0
  000ce	f3 0f 10 05 00
	00 00 00	 movss	 xmm0, DWORD PTR __real@42c80000
  000d6	f3 0f 11 04 24	 movss	 DWORD PTR [esp], xmm0
  000db	53		 push	 ebx
  000dc	ff 15 00 00 00
	00		 call	 DWORD PTR __imp_?SetLoopAni@ioEntityGroup@@QAE_NHMMMM@Z
$LN11@SetLoopAni:
  000e2	5b		 pop	 ebx
$LN10@SetLoopAni:
  000e3	5e		 pop	 esi
$LN6@SetLoopAni:
  000e4	5f		 pop	 edi

; 891  : }

  000e5	5d		 pop	 ebp
  000e6	c2 0c 00	 ret	 12			; 0000000cH
?SetLoopAni@ioHelipCopterAttachBuff@@IAEXPAVioBaseChar@@ABVioHashString@@M@Z ENDP ; ioHelipCopterAttachBuff::SetLoopAni
_TEXT	ENDS
PUBLIC	__real@4041800000000000
PUBLIC	__real@00000000
PUBLIC	__real@c1a00000
PUBLIC	_pDummy$GSCopy$
PUBLIC	_pOwner$GSCopy$
PUBLIC	__$ArrayPad$
PUBLIC	?CheckWeaponFloatInfo@ioHelipCopterAttachBuff@@IAE_NPAVioBaseChar@@PAVioWeapon@@PAVioDummyChar@@@Z ; ioHelipCopterAttachBuff::CheckWeaponFloatInfo
EXTRN	?GetMidHeightByRate@ioGameEntity@@QBEMM@Z:PROC	; ioGameEntity::GetMidHeightByRate
EXTRN	?GetRoomGravity@ioPlayStage@@QAEMXZ:PROC	; ioPlayStage::GetRoomGravity
EXTRN	?GetPlayStage@ioSkillMaker@@QAEPAVioPlayStage@@XZ:PROC ; ioSkillMaker::GetPlayStage
EXTRN	?GetSingleton@ioSkillMaker@@SAAAV1@XZ:PROC	; ioSkillMaker::GetSingleton
EXTRN	_D3DXVec3Normalize@8:PROC
EXTRN	?FindAttribute@ioWeaponManager@@QAEPBUWeaponAttribute@@H@Z:PROC ; ioWeaponManager::FindAttribute
EXTRN	?GetSingleton@ioWeaponManager@@SAAAV1@XZ:PROC	; ioWeaponManager::GetSingleton
EXTRN	?GetAttributeIndex@ioWeapon@@QBEHXZ:PROC	; ioWeapon::GetAttributeIndex
;	COMDAT __real@4041800000000000
; File c:\program files (x86)\microsoft visual studio 10.0\vc\include\math.h
CONST	SEGMENT
__real@4041800000000000 DQ 04041800000000000r	; 35
CONST	ENDS
;	COMDAT __real@00000000
CONST	SEGMENT
__real@00000000 DD 000000000r			; 0
CONST	ENDS
;	COMDAT __real@c1a00000
CONST	SEGMENT
__real@c1a00000 DD 0c1a00000r			; -20
; Function compile flags: /Ogsp
; File d:\lost saga for developer\youtube\tutorial\source\src\lsclient\iohelipcopterattachbuff.cpp
CONST	ENDS
;	COMDAT ?CheckWeaponFloatInfo@ioHelipCopterAttachBuff@@IAE_NPAVioBaseChar@@PAVioWeapon@@PAVioDummyChar@@@Z
_TEXT	SEGMENT
_qtRot$549410 = -72					; size = 16
$T549412 = -56						; size = 12
_pOwner$GSCopy$ = -44					; size = 4
_fRange$ = -40						; size = 4
_pDummy$GSCopy$ = -36					; size = 4
_fGapHeight$549423 = -36				; size = 4
_fFlightDuration$549422 = -32				; size = 4
_fCurGravity$549419 = -32				; size = 4
_pAttr$ = -32						; size = 4
_vWeapnDir$ = -28					; size = 12
$T549411 = -16						; size = 12
_vWeaponPos$ = -16					; size = 12
__$ArrayPad$ = -4					; size = 4
_pOwner$ = 8						; size = 4
_pWeapon$ = 12						; size = 4
_pDummy$ = 16						; size = 4
?CheckWeaponFloatInfo@ioHelipCopterAttachBuff@@IAE_NPAVioBaseChar@@PAVioWeapon@@PAVioDummyChar@@@Z PROC ; ioHelipCopterAttachBuff::CheckWeaponFloatInfo, COMDAT
; _this$ = ecx

; 894  : {

  00000	55		 push	 ebp
  00001	8b ec		 mov	 ebp, esp
  00003	83 ec 48	 sub	 esp, 72			; 00000048H
  00006	a1 00 00 00 00	 mov	 eax, DWORD PTR ___security_cookie
  0000b	33 c5		 xor	 eax, ebp
  0000d	89 45 fc	 mov	 DWORD PTR __$ArrayPad$[ebp], eax

; 895  : 	if ( m_fWeaponFloatMinPower <= 0.0f )

  00010	0f 57 c0	 xorps	 xmm0, xmm0
  00013	53		 push	 ebx
  00014	56		 push	 esi
  00015	8b 75 10	 mov	 esi, DWORD PTR _pDummy$[ebp]
  00018	8b d9		 mov	 ebx, ecx
  0001a	0f 2f 83 5c 0a
	00 00		 comiss	 xmm0, DWORD PTR [ebx+2652]
  00021	8b 4d 0c	 mov	 ecx, DWORD PTR _pWeapon$[ebp]
  00024	57		 push	 edi
  00025	8b 7d 08	 mov	 edi, DWORD PTR _pOwner$[ebp]

; 958  : 				m_fWeaponMoveSpeed = fRange / (fFlightDuration / 1000.0f);

  00028	89 7d d4	 mov	 DWORD PTR _pOwner$GSCopy$[ebp], edi
  0002b	89 75 dc	 mov	 DWORD PTR _pDummy$GSCopy$[ebp], esi
  0002e	0f 83 41 03 00
	00		 jae	 $LN13@CheckWeapo

; 896  : 		return false;
; 897  : 
; 898  : 	if ( !pOwner || !pWeapon )

  00034	85 ff		 test	 edi, edi
  00036	0f 84 39 03 00
	00		 je	 $LN13@CheckWeapo
  0003c	85 c9		 test	 ecx, ecx
  0003e	0f 84 31 03 00
	00		 je	 $LN13@CheckWeapo

; 900  : 
; 901  : 	const WeaponAttribute *pAttr = g_WeaponMgr.FindAttribute( pWeapon->GetAttributeIndex() );

  00044	e8 00 00 00 00	 call	 ?GetAttributeIndex@ioWeapon@@QBEHXZ ; ioWeapon::GetAttributeIndex
  00049	50		 push	 eax
  0004a	e8 00 00 00 00	 call	 ?GetSingleton@ioWeaponManager@@SAAAV1@XZ ; ioWeaponManager::GetSingleton
  0004f	8b c8		 mov	 ecx, eax
  00051	e8 00 00 00 00	 call	 ?FindAttribute@ioWeaponManager@@QAEPBUWeaponAttribute@@H@Z ; ioWeaponManager::FindAttribute
  00056	89 45 e0	 mov	 DWORD PTR _pAttr$[ebp], eax

; 902  : 	if ( !pAttr )

  00059	85 c0		 test	 eax, eax

; 903  : 		return false;

  0005b	0f 84 14 03 00
	00		 je	 $LN13@CheckWeapo

; 904  : 
; 905  : 	m_fWeaponFloatPower = 0.0f;

  00061	0f 57 c0	 xorps	 xmm0, xmm0
  00064	f3 0f 11 83 58
	0a 00 00	 movss	 DWORD PTR [ebx+2648], xmm0

; 906  : 	m_fWeaponMoveSpeed = 0.0f;

  0006c	f3 0f 11 83 54
	0a 00 00	 movss	 DWORD PTR [ebx+2644], xmm0

; 907  : 
; 908  : 	D3DXVECTOR3 vWeaponPos = ioMath::VEC3_ZERO;
; 909  : 	if ( pDummy )

  00074	85 f6		 test	 esi, esi
  00076	0f 84 8c 00 00
	00		 je	 $LN11@CheckWeapo

; 910  : 	{
; 911  : 		D3DXQUATERNION qtRot = pDummy->GetWorldOrientation();

  0007c	8b 06		 mov	 eax, DWORD PTR [esi]
  0007e	8b ce		 mov	 ecx, esi
  00080	ff 50 74	 call	 DWORD PTR [eax+116]
  00083	8b f0		 mov	 esi, eax
  00085	8d 7d b8	 lea	 edi, DWORD PTR _qtRot$549410[ebp]
  00088	a5		 movsd
  00089	a5		 movsd

; 912  : 		vWeaponPos = pDummy->GetWorldPosition() + qtRot * m_CurFireWeaponInfo.m_vWeaponOffset;

  0008a	8d 83 d0 09 00
	00		 lea	 eax, DWORD PTR [ebx+2512]
  00090	50		 push	 eax
  00091	8d 45 b8	 lea	 eax, DWORD PTR _qtRot$549410[ebp]
  00094	a5		 movsd
  00095	50		 push	 eax
  00096	8d 45 f0	 lea	 eax, DWORD PTR $T549411[ebp]
  00099	50		 push	 eax
  0009a	a5		 movsd
  0009b	ff 15 00 00 00
	00		 call	 DWORD PTR __imp_??D@YA?AUD3DXVECTOR3@@ABUD3DXQUATERNION@@ABU0@@Z
  000a1	8b 4d dc	 mov	 ecx, DWORD PTR _pDummy$GSCopy$[ebp]
  000a4	8b f0		 mov	 esi, eax
  000a6	8b 01		 mov	 eax, DWORD PTR [ecx]
  000a8	83 c4 0c	 add	 esp, 12			; 0000000cH
  000ab	ff 50 70	 call	 DWORD PTR [eax+112]
  000ae	f3 0f 10 06	 movss	 xmm0, DWORD PTR [esi]
  000b2	f3 0f 10 08	 movss	 xmm1, DWORD PTR [eax]
  000b6	0f 5a c0	 cvtps2pd xmm0, xmm0
  000b9	0f 5a c9	 cvtps2pd xmm1, xmm1
  000bc	f2 0f 58 c1	 addsd	 xmm0, xmm1
  000c0	f3 0f 10 48 04	 movss	 xmm1, DWORD PTR [eax+4]
  000c5	66 0f 5a c0	 cvtpd2ps xmm0, xmm0
  000c9	f3 0f 11 45 c8	 movss	 DWORD PTR $T549412[ebp], xmm0
  000ce	f3 0f 10 46 04	 movss	 xmm0, DWORD PTR [esi+4]
  000d3	0f 5a c0	 cvtps2pd xmm0, xmm0
  000d6	0f 5a c9	 cvtps2pd xmm1, xmm1
  000d9	f2 0f 58 c1	 addsd	 xmm0, xmm1
  000dd	f3 0f 10 48 08	 movss	 xmm1, DWORD PTR [eax+8]
  000e2	66 0f 5a c0	 cvtpd2ps xmm0, xmm0
  000e6	f3 0f 11 45 cc	 movss	 DWORD PTR $T549412[ebp+4], xmm0
  000eb	f3 0f 10 46 08	 movss	 xmm0, DWORD PTR [esi+8]
  000f0	0f 5a c0	 cvtps2pd xmm0, xmm0
  000f3	0f 5a c9	 cvtps2pd xmm1, xmm1
  000f6	f2 0f 58 c1	 addsd	 xmm0, xmm1
  000fa	66 0f 5a c0	 cvtpd2ps xmm0, xmm0
  000fe	f3 0f 11 45 d0	 movss	 DWORD PTR $T549412[ebp+8], xmm0
  00103	8d 75 c8	 lea	 esi, DWORD PTR $T549412[ebp]

; 913  : 	}
; 914  : 	else

  00106	eb 09		 jmp	 SHORT $LN36@CheckWeapo
$LN11@CheckWeapo:

; 915  : 		vWeaponPos = pOwner->GetWorldPosition();

  00108	8b 07		 mov	 eax, DWORD PTR [edi]
  0010a	8b cf		 mov	 ecx, edi
  0010c	ff 50 70	 call	 DWORD PTR [eax+112]
  0010f	8b f0		 mov	 esi, eax
$LN36@CheckWeapo:

; 916  : 
; 917  : 	D3DXVECTOR3 vWeapnDir = m_vCirclePos - vWeaponPos;

  00111	f3 0f 10 83 70
	09 00 00	 movss	 xmm0, DWORD PTR [ebx+2416]
  00119	8d 7d f0	 lea	 edi, DWORD PTR _vWeaponPos$[ebp]
  0011c	a5		 movsd
  0011d	a5		 movsd
  0011e	0f 5a c0	 cvtps2pd xmm0, xmm0
  00121	a5		 movsd
  00122	f3 0f 10 4d f0	 movss	 xmm1, DWORD PTR _vWeaponPos$[ebp]
  00127	f3 0f 10 55 f4	 movss	 xmm2, DWORD PTR _vWeaponPos$[ebp+4]
  0012c	f3 0f 10 5d f8	 movss	 xmm3, DWORD PTR _vWeaponPos$[ebp+8]
  00131	0f 5a c9	 cvtps2pd xmm1, xmm1
  00134	f2 0f 5c c1	 subsd	 xmm0, xmm1
  00138	f3 0f 10 8b 74
	09 00 00	 movss	 xmm1, DWORD PTR [ebx+2420]
  00140	0f 5a d2	 cvtps2pd xmm2, xmm2
  00143	0f 5a c9	 cvtps2pd xmm1, xmm1
  00146	f2 0f 5c ca	 subsd	 xmm1, xmm2
  0014a	f3 0f 10 93 78
	09 00 00	 movss	 xmm2, DWORD PTR [ebx+2424]
  00152	66 0f 5a c0	 cvtpd2ps xmm0, xmm0
  00156	f3 0f 11 45 e4	 movss	 DWORD PTR _vWeapnDir$[ebp], xmm0
  0015b	0f 5a d2	 cvtps2pd xmm2, xmm2
  0015e	f3 0f 5a c0	 cvtss2sd xmm0, xmm0

; 918  : 	float fRange = D3DXVec3Length( &vWeapnDir );

  00162	f2 0f 59 c0	 mulsd	 xmm0, xmm0
  00166	66 0f 5a c9	 cvtpd2ps xmm1, xmm1
  0016a	0f 5a db	 cvtps2pd xmm3, xmm3
  0016d	f2 0f 5c d3	 subsd	 xmm2, xmm3
  00171	66 0f 5a d2	 cvtpd2ps xmm2, xmm2
  00175	f3 0f 5a c9	 cvtss2sd xmm1, xmm1
  00179	f3 0f 11 55 ec	 movss	 DWORD PTR _vWeapnDir$[ebp+8], xmm2
  0017e	f2 0f 59 c9	 mulsd	 xmm1, xmm1
  00182	f2 0f 58 c8	 addsd	 xmm1, xmm0
  00186	0f 57 c0	 xorps	 xmm0, xmm0
  00189	f3 0f 5a d2	 cvtss2sd xmm2, xmm2
  0018d	f2 0f 59 d2	 mulsd	 xmm2, xmm2
  00191	f2 0f 58 ca	 addsd	 xmm1, xmm2
  00195	66 0f 5a c1	 cvtpd2ps xmm0, xmm1
  00199	0f 5a c0	 cvtps2pd xmm0, xmm0

; 919  : 	vWeapnDir.y = 0.0f;
; 920  : 	D3DXVec3Normalize( &vWeapnDir, &vWeapnDir );

  0019c	8d 45 e4	 lea	 eax, DWORD PTR _vWeapnDir$[ebp]
  0019f	f2 0f 51 c0	 sqrtsd	 xmm0, xmm0
  001a3	66 0f 5a c0	 cvtpd2ps xmm0, xmm0
  001a7	50		 push	 eax
  001a8	f3 0f 11 45 d8	 movss	 DWORD PTR _fRange$[ebp], xmm0
  001ad	0f 57 c0	 xorps	 xmm0, xmm0
  001b0	50		 push	 eax
  001b1	f3 0f 11 45 e8	 movss	 DWORD PTR _vWeapnDir$[ebp+4], xmm0
  001b6	e8 00 00 00 00	 call	 _D3DXVec3Normalize@8

; 921  : 
; 922  : 	if( fRange > 0.0f )

  001bb	f3 0f 10 4d d8	 movss	 xmm1, DWORD PTR _fRange$[ebp]
  001c0	0f 57 c0	 xorps	 xmm0, xmm0
  001c3	0f 2f c8	 comiss	 xmm1, xmm0
  001c6	0f 86 a9 01 00
	00		 jbe	 $LN13@CheckWeapo

; 923  : 	{
; 924  : 		float fRate = fRange / m_fCircleRange ;
; 925  : 		m_fWeaponFloatPower = pAttr->m_fFloatPower * fRate;

  001cc	f3 0f 10 93 ac
	09 00 00	 movss	 xmm2, DWORD PTR [ebx+2476]
  001d4	8b 45 e0	 mov	 eax, DWORD PTR _pAttr$[ebp]
  001d7	0f 5a c9	 cvtps2pd xmm1, xmm1
  001da	0f 5a d2	 cvtps2pd xmm2, xmm2
  001dd	f2 0f 5e ca	 divsd	 xmm1, xmm2
  001e1	f3 0f 10 90 a0
	01 00 00	 movss	 xmm2, DWORD PTR [eax+416]
  001e9	66 0f 5a c9	 cvtpd2ps xmm1, xmm1
  001ed	f3 0f 5a c9	 cvtss2sd xmm1, xmm1
  001f1	0f 5a d2	 cvtps2pd xmm2, xmm2
  001f4	f2 0f 59 ca	 mulsd	 xmm1, xmm2

; 926  : 		m_fWeaponFloatPower = max( m_fWeaponFloatPower, m_fWeaponFloatMinPower );

  001f8	f3 0f 10 93 5c
	0a 00 00	 movss	 xmm2, DWORD PTR [ebx+2652]
  00200	66 0f 5a c9	 cvtpd2ps xmm1, xmm1
  00204	0f 57 db	 xorps	 xmm3, xmm3
  00207	8d b3 58 0a 00
	00		 lea	 esi, DWORD PTR [ebx+2648]
  0020d	f3 0f 5a d9	 cvtss2sd xmm3, xmm1
  00211	0f 5a e2	 cvtps2pd xmm4, xmm2
  00214	66 0f 2f dc	 comisd	 xmm3, xmm4
  00218	f3 0f 11 0e	 movss	 DWORD PTR [esi], xmm1
  0021c	77 03		 ja	 SHORT $LN19@CheckWeapo
  0021e	0f 28 ca	 movaps	 xmm1, xmm2
$LN19@CheckWeapo:
  00221	f3 0f 11 0e	 movss	 DWORD PTR [esi], xmm1

; 927  : 
; 928  : 		float fCurGravity = 0.0f;

  00225	f3 0f 11 45 e0	 movss	 DWORD PTR _fCurGravity$549419[ebp], xmm0

; 929  : 		ioPlayStage *pStage = g_SkillMaker.GetPlayStage();

  0022a	e8 00 00 00 00	 call	 ?GetSingleton@ioSkillMaker@@SAAAV1@XZ ; ioSkillMaker::GetSingleton
  0022f	8b c8		 mov	 ecx, eax
  00231	e8 00 00 00 00	 call	 ?GetPlayStage@ioSkillMaker@@QAEPAVioPlayStage@@XZ ; ioSkillMaker::GetPlayStage

; 930  : 		if( pStage )

  00236	85 c0		 test	 eax, eax
  00238	74 0a		 je	 SHORT $LN8@CheckWeapo

; 931  : 			fCurGravity = pStage->GetRoomGravity() * 1.0f;

  0023a	8b c8		 mov	 ecx, eax
  0023c	e8 00 00 00 00	 call	 ?GetRoomGravity@ioPlayStage@@QAEMXZ ; ioPlayStage::GetRoomGravity
  00241	d9 5d e0	 fstp	 DWORD PTR _fCurGravity$549419[ebp]
$LN8@CheckWeapo:

; 932  : 
; 933  : 		float fFlightDuration = 0.0f;
; 934  : 		float fGapHeight = pOwner->GetMidHeightByRate(1.0f) - vWeaponPos.y;

  00244	f3 0f 10 05 00
	00 00 00	 movss	 xmm0, DWORD PTR __real@3f800000
  0024c	51		 push	 ecx
  0024d	8b 4d d4	 mov	 ecx, DWORD PTR _pOwner$GSCopy$[ebp]
  00250	f3 0f 11 04 24	 movss	 DWORD PTR [esp], xmm0
  00255	e8 00 00 00 00	 call	 ?GetMidHeightByRate@ioGameEntity@@QBEMM@Z ; ioGameEntity::GetMidHeightByRate
  0025a	d8 65 f4	 fsub	 DWORD PTR _vWeaponPos$[ebp+4]

; 935  : 		float fGapHeight2 = vWeaponPos.y - m_vCirclePos.y;

  0025d	f3 0f 10 45 f4	 movss	 xmm0, DWORD PTR _vWeaponPos$[ebp+4]
  00262	f3 0f 10 8b 74
	09 00 00	 movss	 xmm1, DWORD PTR [ebx+2420]
  0026a	0f 5a c0	 cvtps2pd xmm0, xmm0
  0026d	d9 5d dc	 fstp	 DWORD PTR _fGapHeight$549423[ebp]
  00270	0f 5a c9	 cvtps2pd xmm1, xmm1
  00273	f2 0f 5c c1	 subsd	 xmm0, xmm1

; 936  : 		if( fGapHeight2 > 0.0f )

  00277	0f 57 c9	 xorps	 xmm1, xmm1
  0027a	f2 0f 5a c0	 cvtsd2ss xmm0, xmm0
  0027e	0f 2f c1	 comiss	 xmm0, xmm1
  00281	76 16		 jbe	 SHORT $LN37@CheckWeapo

; 937  : 		{
; 938  : 			fGapHeight += fGapHeight2;
; 939  : 			fFlightDuration = GetFlightDuration( fCurGravity, m_fWeaponFloatPower, fGapHeight );

  00283	f3 0f 10 4d dc	 movss	 xmm1, DWORD PTR _fGapHeight$549423[ebp]
  00288	f3 0f 5a c0	 cvtss2sd xmm0, xmm0
  0028c	0f 5a c9	 cvtps2pd xmm1, xmm1
  0028f	f2 0f 58 c1	 addsd	 xmm0, xmm1
  00293	f2 0f 5a c0	 cvtsd2ss xmm0, xmm0

; 940  : 
; 941  : 			if( fFlightDuration > 0.0f )
; 942  : 				m_fWeaponMoveSpeed = fRange / (fFlightDuration / 1000.0f);
; 943  : 		}

  00297	eb 7e		 jmp	 SHORT $LN38@CheckWeapo
$LN37@CheckWeapo:

; 944  : 		else if( COMPARE(fGapHeight2, 0.0f, -20.0f) && fRange > 0.0f )

  00299	72 77		 jb	 SHORT $LN4@CheckWeapo
  0029b	f3 0f 10 0d 00
	00 00 00	 movss	 xmm1, DWORD PTR __real@c1a00000
  002a3	0f 2f c8	 comiss	 xmm1, xmm0
  002a6	76 6a		 jbe	 SHORT $LN4@CheckWeapo

; 945  : 		{
; 946  : 			float fNewGap = fabs( fGapHeight2 ) - fGapHeight;

  002a8	f2 0f 10 0d 00
	00 00 00	 movsd	 xmm1, QWORD PTR __mask@@AbsDouble@

; 947  : 			fFlightDuration = GetTargetTime( fCurGravity, fNewGap, m_fWeaponFloatPower );

  002b0	f3 0f 5a c0	 cvtss2sd xmm0, xmm0
  002b4	66 0f 54 c1	 andpd	 xmm0, xmm1
  002b8	f3 0f 10 4d dc	 movss	 xmm1, DWORD PTR _fGapHeight$549423[ebp]
  002bd	56		 push	 esi
  002be	f2 0f 5a c0	 cvtsd2ss xmm0, xmm0
  002c2	f3 0f 5a c0	 cvtss2sd xmm0, xmm0
  002c6	51		 push	 ecx
  002c7	51		 push	 ecx
  002c8	0f 5a c9	 cvtps2pd xmm1, xmm1
  002cb	f2 0f 5c c1	 subsd	 xmm0, xmm1
  002cf	f2 0f 5a c0	 cvtsd2ss xmm0, xmm0
  002d3	f3 0f 11 44 24
	04		 movss	 DWORD PTR [esp+4], xmm0
  002d9	f3 0f 10 45 e0	 movss	 xmm0, DWORD PTR _fCurGravity$549419[ebp]
  002de	8b cb		 mov	 ecx, ebx
  002e0	f3 0f 11 04 24	 movss	 DWORD PTR [esp], xmm0
  002e5	e8 00 00 00 00	 call	 ?GetTargetTime@ioHelipCopterAttachBuff@@IAEMMMAAM@Z ; ioHelipCopterAttachBuff::GetTargetTime
  002ea	d9 5d e0	 fstp	 DWORD PTR _fFlightDuration$549422[ebp]

; 948  : 			fRange -= 35.0f;
; 949  : 
; 950  : 			if( fFlightDuration > 0.0f )

  002ed	d9 ee		 fldz
  002ef	d9 45 e0	 fld	 DWORD PTR _fFlightDuration$549422[ebp]
  002f2	df f1		 fcomip	 ST(1)
  002f4	dd d8		 fstp	 ST(0)
  002f6	76 79		 jbe	 SHORT $LN1@CheckWeapo

; 951  : 				m_fWeaponMoveSpeed = fRange / (fFlightDuration / 1000.0f);

  002f8	f3 0f 10 45 d8	 movss	 xmm0, DWORD PTR _fRange$[ebp]
  002fd	0f 5a c0	 cvtps2pd xmm0, xmm0
  00300	f2 0f 5c 05 00
	00 00 00	 subsd	 xmm0, QWORD PTR __real@4041800000000000
  00308	f2 0f 5a c0	 cvtsd2ss xmm0, xmm0
  0030c	f3 0f 5a c0	 cvtss2sd xmm0, xmm0

; 952  : 		}
; 953  : 		else

  00310	eb 3f		 jmp	 SHORT $LN39@CheckWeapo
$LN4@CheckWeapo:

; 954  : 		{
; 955  : 			fFlightDuration = GetFlightDuration( fCurGravity, m_fWeaponFloatPower, fGapHeight );

  00312	f3 0f 10 45 dc	 movss	 xmm0, DWORD PTR _fGapHeight$549423[ebp]
$LN38@CheckWeapo:
  00317	83 ec 0c	 sub	 esp, 12			; 0000000cH
  0031a	f3 0f 11 44 24
	08		 movss	 DWORD PTR [esp+8], xmm0
  00320	f3 0f 10 06	 movss	 xmm0, DWORD PTR [esi]
  00324	f3 0f 11 44 24
	04		 movss	 DWORD PTR [esp+4], xmm0
  0032a	f3 0f 10 45 e0	 movss	 xmm0, DWORD PTR _fCurGravity$549419[ebp]
  0032f	8b cb		 mov	 ecx, ebx
  00331	f3 0f 11 04 24	 movss	 DWORD PTR [esp], xmm0
  00336	e8 00 00 00 00	 call	 ?GetFlightDuration@ioHelipCopterAttachBuff@@IAEMMMM@Z ; ioHelipCopterAttachBuff::GetFlightDuration
  0033b	d9 5d e0	 fstp	 DWORD PTR _fFlightDuration$549422[ebp]

; 956  : 
; 957  : 			if( fFlightDuration > 0.0f )

  0033e	d9 ee		 fldz
  00340	d9 45 e0	 fld	 DWORD PTR _fFlightDuration$549422[ebp]
  00343	df f1		 fcomip	 ST(1)
  00345	dd d8		 fstp	 ST(0)
  00347	76 28		 jbe	 SHORT $LN1@CheckWeapo

; 958  : 				m_fWeaponMoveSpeed = fRange / (fFlightDuration / 1000.0f);

  00349	f3 0f 10 45 d8	 movss	 xmm0, DWORD PTR _fRange$[ebp]
  0034e	0f 5a c0	 cvtps2pd xmm0, xmm0
$LN39@CheckWeapo:
  00351	f3 0f 10 4d e0	 movss	 xmm1, DWORD PTR _fFlightDuration$549422[ebp]
  00356	0f 5a c9	 cvtps2pd xmm1, xmm1
  00359	f2 0f 5e 0d 00
	00 00 00	 divsd	 xmm1, QWORD PTR __real@408f400000000000
  00361	f2 0f 5e c1	 divsd	 xmm0, xmm1
  00365	f2 0f 5a c0	 cvtsd2ss xmm0, xmm0
  00369	f3 0f 11 83 54
	0a 00 00	 movss	 DWORD PTR [ebx+2644], xmm0
$LN1@CheckWeapo:

; 959  : 		}
; 960  : 
; 961  : 		return true;

  00371	b0 01		 mov	 al, 1
  00373	eb 02		 jmp	 SHORT $LN16@CheckWeapo
$LN13@CheckWeapo:

; 899  : 		return false;

  00375	32 c0		 xor	 al, al
$LN16@CheckWeapo:

; 962  : 	}
; 963  : 
; 964  : 	return false;
; 965  : }

  00377	8b 4d fc	 mov	 ecx, DWORD PTR __$ArrayPad$[ebp]
  0037a	5f		 pop	 edi
  0037b	5e		 pop	 esi
  0037c	33 cd		 xor	 ecx, ebp
  0037e	5b		 pop	 ebx
  0037f	e8 00 00 00 00	 call	 @__security_check_cookie@4
  00384	c9		 leave
  00385	c2 0c 00	 ret	 12			; 0000000cH
?CheckWeaponFloatInfo@ioHelipCopterAttachBuff@@IAE_NPAVioBaseChar@@PAVioWeapon@@PAVioDummyChar@@@Z ENDP ; ioHelipCopterAttachBuff::CheckWeaponFloatInfo
; Function compile flags: /Ogsp
_TEXT	ENDS
;	COMDAT ??_GioHelipCopterAttachSpecialState@@UAEPAXI@Z
_TEXT	SEGMENT
___flags$ = 8						; size = 4
??_GioHelipCopterAttachSpecialState@@UAEPAXI@Z PROC	; ioHelipCopterAttachSpecialState::`scalar deleting destructor', COMDAT
; _this$ = ecx
  00000	55		 push	 ebp
  00001	8b ec		 mov	 ebp, esp
  00003	56		 push	 esi
  00004	8b f1		 mov	 esi, ecx
  00006	c7 06 00 00 00
	00		 mov	 DWORD PTR [esi], OFFSET ??_7ioHelipCopterAttachSpecialState@@6B@
  0000c	e8 00 00 00 00	 call	 ??1ioSpecialStateBase@@UAE@XZ ; ioSpecialStateBase::~ioSpecialStateBase
  00011	f6 45 08 01	 test	 BYTE PTR ___flags$[ebp], 1
  00015	74 07		 je	 SHORT $LN1@scalar@3
  00017	56		 push	 esi
  00018	e8 00 00 00 00	 call	 ??3@YAXPAX@Z		; operator delete
  0001d	59		 pop	 ecx
$LN1@scalar@3:
  0001e	8b c6		 mov	 eax, esi
  00020	5e		 pop	 esi
  00021	5d		 pop	 ebp
  00022	c2 04 00	 ret	 4
??_GioHelipCopterAttachSpecialState@@UAEPAXI@Z ENDP	; ioHelipCopterAttachSpecialState::`scalar deleting destructor'
_TEXT	ENDS
PUBLIC	??N?$CEncrypt@K@@QAE_NABK@Z			; CEncrypt<unsigned long>::operator<=
; Function compile flags: /Ogsp
; File d:\lost saga for developer\youtube\tutorial\source\src\lsclient\encryptvalue.h
;	COMDAT ??N?$CEncrypt@K@@QAE_NABK@Z
_TEXT	SEGMENT
_value$ = -4						; size = 4
_inValue$ = 8						; size = 4
??N?$CEncrypt@K@@QAE_NABK@Z PROC			; CEncrypt<unsigned long>::operator<=, COMDAT
; _this$ = ecx

; 1431 : 	{

  00000	55		 push	 ebp
  00001	8b ec		 mov	 ebp, esp
  00003	51		 push	 ecx

; 1432 : 		
; 1433 : 		type value;
; 1434 : 		DecryptValueToPool(&value);

  00004	8d 45 fc	 lea	 eax, DWORD PTR _value$[ebp]
  00007	50		 push	 eax
  00008	e8 00 00 00 00	 call	 ?DecryptValueToPool@?$CEncrypt@K@@QAEXPAK@Z ; CEncrypt<unsigned long>::DecryptValueToPool

; 1435 : #ifdef _NOTUSE
; 1436 : 		Debug();
; 1437 : #endif
; 1438 : 		return (value <= inValue);

  0000d	8b 45 08	 mov	 eax, DWORD PTR _inValue$[ebp]
  00010	8b 00		 mov	 eax, DWORD PTR [eax]
  00012	3b 45 fc	 cmp	 eax, DWORD PTR _value$[ebp]
  00015	1b c0		 sbb	 eax, eax
  00017	40		 inc	 eax

; 1439 : 	}		

  00018	c9		 leave
  00019	c2 04 00	 ret	 4
??N?$CEncrypt@K@@QAE_NABK@Z ENDP			; CEncrypt<unsigned long>::operator<=
_TEXT	ENDS
PUBLIC	?begin@?$vector@PAVioBaseChar@@V?$allocator@PAVioBaseChar@@@std@@@std@@QBE?AV?$_Vector_const_iterator@V?$_Vector_val@PAVioBaseChar@@V?$allocator@PAVioBaseChar@@@std@@@std@@@2@XZ ; std::vector<ioBaseChar *,std::allocator<ioBaseChar *> >::begin
; Function compile flags: /Ogsp
; File c:\program files (x86)\microsoft visual studio 10.0\vc\include\vector
;	COMDAT ?begin@?$vector@PAVioBaseChar@@V?$allocator@PAVioBaseChar@@@std@@@std@@QBE?AV?$_Vector_const_iterator@V?$_Vector_val@PAVioBaseChar@@V?$allocator@PAVioBaseChar@@@std@@@std@@@2@XZ
_TEXT	SEGMENT
___$ReturnUdt$ = 8					; size = 4
?begin@?$vector@PAVioBaseChar@@V?$allocator@PAVioBaseChar@@@std@@@std@@QBE?AV?$_Vector_const_iterator@V?$_Vector_val@PAVioBaseChar@@V?$allocator@PAVioBaseChar@@@std@@@std@@@2@XZ PROC ; std::vector<ioBaseChar *,std::allocator<ioBaseChar *> >::begin, COMDAT
; _this$ = ecx

; 786  : 		{	// return iterator for beginning of nonmutable sequence

  00000	55		 push	 ebp
  00001	8b ec		 mov	 ebp, esp

; 787  : 		return (const_iterator(this->_Myfirst, this));

  00003	8b 09		 mov	 ecx, DWORD PTR [ecx]
  00005	8b 45 08	 mov	 eax, DWORD PTR ___$ReturnUdt$[ebp]
  00008	89 08		 mov	 DWORD PTR [eax], ecx

; 788  : 		}

  0000a	5d		 pop	 ebp
  0000b	c2 04 00	 ret	 4
?begin@?$vector@PAVioBaseChar@@V?$allocator@PAVioBaseChar@@@std@@@std@@QBE?AV?$_Vector_const_iterator@V?$_Vector_val@PAVioBaseChar@@V?$allocator@PAVioBaseChar@@@std@@@std@@@2@XZ ENDP ; std::vector<ioBaseChar *,std::allocator<ioBaseChar *> >::begin
_TEXT	ENDS
PUBLIC	?end@?$vector@PAVioBaseChar@@V?$allocator@PAVioBaseChar@@@std@@@std@@QBE?AV?$_Vector_const_iterator@V?$_Vector_val@PAVioBaseChar@@V?$allocator@PAVioBaseChar@@@std@@@std@@@2@XZ ; std::vector<ioBaseChar *,std::allocator<ioBaseChar *> >::end
; Function compile flags: /Ogsp
;	COMDAT ?end@?$vector@PAVioBaseChar@@V?$allocator@PAVioBaseChar@@@std@@@std@@QBE?AV?$_Vector_const_iterator@V?$_Vector_val@PAVioBaseChar@@V?$allocator@PAVioBaseChar@@@std@@@std@@@2@XZ
_TEXT	SEGMENT
___$ReturnUdt$ = 8					; size = 4
?end@?$vector@PAVioBaseChar@@V?$allocator@PAVioBaseChar@@@std@@@std@@QBE?AV?$_Vector_const_iterator@V?$_Vector_val@PAVioBaseChar@@V?$allocator@PAVioBaseChar@@@std@@@std@@@2@XZ PROC ; std::vector<ioBaseChar *,std::allocator<ioBaseChar *> >::end, COMDAT
; _this$ = ecx

; 796  : 		{	// return iterator for end of nonmutable sequence

  00000	55		 push	 ebp
  00001	8b ec		 mov	 ebp, esp

; 797  : 		return (const_iterator(this->_Mylast, this));

  00003	8b 49 04	 mov	 ecx, DWORD PTR [ecx+4]
  00006	8b 45 08	 mov	 eax, DWORD PTR ___$ReturnUdt$[ebp]
  00009	89 08		 mov	 DWORD PTR [eax], ecx

; 798  : 		}

  0000b	5d		 pop	 ebp
  0000c	c2 04 00	 ret	 4
?end@?$vector@PAVioBaseChar@@V?$allocator@PAVioBaseChar@@@std@@@std@@QBE?AV?$_Vector_const_iterator@V?$_Vector_val@PAVioBaseChar@@V?$allocator@PAVioBaseChar@@@std@@@std@@@2@XZ ENDP ; std::vector<ioBaseChar *,std::allocator<ioBaseChar *> >::end
_TEXT	ENDS
PUBLIC	??8?$_Vector_const_iterator@V?$_Vector_val@PAVioBaseChar@@V?$allocator@PAVioBaseChar@@@std@@@std@@@std@@QBE_NABV01@@Z ; std::_Vector_const_iterator<std::_Vector_val<ioBaseChar *,std::allocator<ioBaseChar *> > >::operator==
; Function compile flags: /Ogsp
;	COMDAT ??8?$_Vector_const_iterator@V?$_Vector_val@PAVioBaseChar@@V?$allocator@PAVioBaseChar@@@std@@@std@@@std@@QBE_NABV01@@Z
_TEXT	SEGMENT
__Right$ = 8						; size = 4
??8?$_Vector_const_iterator@V?$_Vector_val@PAVioBaseChar@@V?$allocator@PAVioBaseChar@@@std@@@std@@@std@@QBE_NABV01@@Z PROC ; std::_Vector_const_iterator<std::_Vector_val<ioBaseChar *,std::allocator<ioBaseChar *> > >::operator==, COMDAT
; _this$ = ecx

; 201  : 		{	// test for iterator equality

  00000	55		 push	 ebp
  00001	8b ec		 mov	 ebp, esp

; 202  : 		_Compat(_Right);
; 203  : 		return (this->_Ptr == _Right._Ptr);

  00003	8b 01		 mov	 eax, DWORD PTR [ecx]
  00005	8b 4d 08	 mov	 ecx, DWORD PTR __Right$[ebp]
  00008	2b 01		 sub	 eax, DWORD PTR [ecx]
  0000a	f7 d8		 neg	 eax
  0000c	1b c0		 sbb	 eax, eax
  0000e	40		 inc	 eax

; 204  : 		}

  0000f	5d		 pop	 ebp
  00010	c2 04 00	 ret	 4
??8?$_Vector_const_iterator@V?$_Vector_val@PAVioBaseChar@@V?$allocator@PAVioBaseChar@@@std@@@std@@@std@@QBE_NABV01@@Z ENDP ; std::_Vector_const_iterator<std::_Vector_val<ioBaseChar *,std::allocator<ioBaseChar *> > >::operator==
_TEXT	ENDS
PUBLIC	__$ArrayPad$
PUBLIC	??$LoadInt_e@$0N@@ioINILoader@@QAEHAAY0N@$$CBDH@Z ; ioINILoader::LoadInt_e<13>
EXTRN	__imp_?LoadInt@ioINILoader@@QAEHPBDH@Z:PROC
; Function compile flags: /Ogsp
; File d:\lost saga for developer\youtube\tutorial\source\src\io3dengine\ioiniloader.h
;	COMDAT ??$LoadInt_e@$0N@@ioINILoader@@QAEHAAY0N@$$CBDH@Z
_TEXT	SEGMENT
__k$ = -24						; size = 13
__$ArrayPad$ = -4					; size = 4
_k$ = 8							; size = 4
_i$ = 12						; size = 4
??$LoadInt_e@$0N@@ioINILoader@@QAEHAAY0N@$$CBDH@Z PROC	; ioINILoader::LoadInt_e<13>, COMDAT
; _this$ = ecx

; 118  : 	{

  00000	55		 push	 ebp
  00001	8b ec		 mov	 ebp, esp
  00003	83 ec 18	 sub	 esp, 24			; 00000018H
  00006	a1 00 00 00 00	 mov	 eax, DWORD PTR ___security_cookie
  0000b	33 c5		 xor	 eax, ebp
  0000d	89 45 fc	 mov	 DWORD PTR __$ArrayPad$[ebp], eax
  00010	8b 45 08	 mov	 eax, DWORD PTR _k$[ebp]

; 119  : 		_ENCSTR(k, _k);

  00013	8a 10		 mov	 dl, BYTE PTR [eax]
  00015	56		 push	 esi
  00016	8b f1		 mov	 esi, ecx
  00018	84 d2		 test	 dl, dl
  0001a	0f 84 4d 01 00
	00		 je	 $LN96@LoadInt_e
  00020	80 f2 ed	 xor	 dl, -19			; ffffffedH
  00023	88 55 e8	 mov	 BYTE PTR __k$[ebp], dl
  00026	8a 50 01	 mov	 dl, BYTE PTR [eax+1]
  00029	84 d2		 test	 dl, dl
  0002b	0f 84 36 01 00
	00		 je	 $LN95@LoadInt_e
  00031	b1 ec		 mov	 cl, -20			; ffffffecH
  00033	32 d1		 xor	 dl, cl
  00035	88 55 e9	 mov	 BYTE PTR __k$[ebp+1], dl
  00038	8a 50 02	 mov	 dl, BYTE PTR [eax+2]
  0003b	84 d2		 test	 dl, dl
  0003d	0f 84 1e 01 00
	00		 je	 $LN94@LoadInt_e
  00043	80 f2 eb	 xor	 dl, -21			; ffffffebH
  00046	88 55 ea	 mov	 BYTE PTR __k$[ebp+2], dl
  00049	8a 50 03	 mov	 dl, BYTE PTR [eax+3]
  0004c	84 d2		 test	 dl, dl
  0004e	0f 84 07 01 00
	00		 je	 $LN93@LoadInt_e
  00054	80 f2 ea	 xor	 dl, -22			; ffffffeaH
  00057	88 55 eb	 mov	 BYTE PTR __k$[ebp+3], dl
  0005a	8a 50 04	 mov	 dl, BYTE PTR [eax+4]
  0005d	84 d2		 test	 dl, dl
  0005f	0f 84 f0 00 00
	00		 je	 $LN92@LoadInt_e
  00065	80 f2 ed	 xor	 dl, -19			; ffffffedH
  00068	88 55 ec	 mov	 BYTE PTR __k$[ebp+4], dl
  0006b	8a 50 05	 mov	 dl, BYTE PTR [eax+5]
  0006e	84 d2		 test	 dl, dl
  00070	0f 84 da 00 00
	00		 je	 $LN91@LoadInt_e
  00076	32 d1		 xor	 dl, cl
  00078	88 55 ed	 mov	 BYTE PTR __k$[ebp+5], dl
  0007b	8a 50 06	 mov	 dl, BYTE PTR [eax+6]
  0007e	84 d2		 test	 dl, dl
  00080	0f 84 c4 00 00
	00		 je	 $LN90@LoadInt_e
  00086	80 f2 eb	 xor	 dl, -21			; ffffffebH
  00089	88 55 ee	 mov	 BYTE PTR __k$[ebp+6], dl
  0008c	8a 50 07	 mov	 dl, BYTE PTR [eax+7]
  0008f	84 d2		 test	 dl, dl
  00091	0f 84 ad 00 00
	00		 je	 $LN89@LoadInt_e
  00097	80 f2 ea	 xor	 dl, -22			; ffffffeaH
  0009a	88 55 ef	 mov	 BYTE PTR __k$[ebp+7], dl
  0009d	8a 50 08	 mov	 dl, BYTE PTR [eax+8]
  000a0	84 d2		 test	 dl, dl
  000a2	0f 84 96 00 00
	00		 je	 $LN88@LoadInt_e
  000a8	80 f2 ed	 xor	 dl, -19			; ffffffedH
  000ab	88 55 f0	 mov	 BYTE PTR __k$[ebp+8], dl
  000ae	8a 50 09	 mov	 dl, BYTE PTR [eax+9]
  000b1	84 d2		 test	 dl, dl
  000b3	0f 84 80 00 00
	00		 je	 $LN87@LoadInt_e
  000b9	32 d1		 xor	 dl, cl
  000bb	88 55 f1	 mov	 BYTE PTR __k$[ebp+9], dl
  000be	8a 50 0a	 mov	 dl, BYTE PTR [eax+10]
  000c1	84 d2		 test	 dl, dl
  000c3	74 6e		 je	 SHORT $LN86@LoadInt_e
  000c5	80 f2 eb	 xor	 dl, -21			; ffffffebH
  000c8	88 55 f2	 mov	 BYTE PTR __k$[ebp+10], dl
  000cb	8a 50 0b	 mov	 dl, BYTE PTR [eax+11]
  000ce	84 d2		 test	 dl, dl
  000d0	74 5b		 je	 SHORT $LN85@LoadInt_e
  000d2	80 f2 ea	 xor	 dl, -22			; ffffffeaH
  000d5	80 78 0c 00	 cmp	 BYTE PTR [eax+12], 0
  000d9	88 55 f3	 mov	 BYTE PTR __k$[ebp+11], dl
  000dc	0f 84 8f 00 00
	00		 je	 $LN1@LoadInt_e
  000e2	8a 50 0d	 mov	 dl, BYTE PTR [eax+13]
  000e5	84 d2		 test	 dl, dl
  000e7	74 3f		 je	 SHORT $LN83@LoadInt_e
  000e9	32 d1		 xor	 dl, cl
  000eb	88 55 f5	 mov	 BYTE PTR __k$[ebp+13], dl
  000ee	8a 50 0e	 mov	 dl, BYTE PTR [eax+14]
  000f1	84 d2		 test	 dl, dl
  000f3	74 2d		 je	 SHORT $LN82@LoadInt_e
  000f5	80 f2 eb	 xor	 dl, -21			; ffffffebH
  000f8	88 55 f6	 mov	 BYTE PTR __k$[ebp+14], dl
  000fb	8a 50 0f	 mov	 dl, BYTE PTR [eax+15]
  000fe	84 d2		 test	 dl, dl
  00100	74 1a		 je	 SHORT $LN81@LoadInt_e
  00102	8a 40 10	 mov	 al, BYTE PTR [eax+16]
  00105	80 f2 ea	 xor	 dl, -22			; ffffffeaH
  00108	88 55 f7	 mov	 BYTE PTR __k$[ebp+15], dl
  0010b	84 c0		 test	 al, al
  0010d	74 07		 je	 SHORT $LN80@LoadInt_e
  0010f	34 ed		 xor	 al, -19			; ffffffedH
  00111	88 45 f8	 mov	 BYTE PTR __k$[ebp+16], al
  00114	eb 5b		 jmp	 SHORT $LN1@LoadInt_e
$LN80@LoadInt_e:
  00116	c6 45 f8 ed	 mov	 BYTE PTR __k$[ebp+16], -19 ; ffffffedH
  0011a	eb 55		 jmp	 SHORT $LN1@LoadInt_e
$LN81@LoadInt_e:
  0011c	c6 45 f7 ea	 mov	 BYTE PTR __k$[ebp+15], -22 ; ffffffeaH
  00120	eb 4f		 jmp	 SHORT $LN1@LoadInt_e
$LN82@LoadInt_e:
  00122	c6 45 f6 eb	 mov	 BYTE PTR __k$[ebp+14], -21 ; ffffffebH
  00126	eb 49		 jmp	 SHORT $LN1@LoadInt_e
$LN83@LoadInt_e:
  00128	88 4d f5	 mov	 BYTE PTR __k$[ebp+13], cl
  0012b	eb 44		 jmp	 SHORT $LN1@LoadInt_e
$LN85@LoadInt_e:
  0012d	c6 45 f3 ea	 mov	 BYTE PTR __k$[ebp+11], -22 ; ffffffeaH
  00131	eb 3e		 jmp	 SHORT $LN1@LoadInt_e
$LN86@LoadInt_e:
  00133	c6 45 f2 eb	 mov	 BYTE PTR __k$[ebp+10], -21 ; ffffffebH
  00137	eb 38		 jmp	 SHORT $LN1@LoadInt_e
$LN87@LoadInt_e:
  00139	88 4d f1	 mov	 BYTE PTR __k$[ebp+9], cl
  0013c	eb 33		 jmp	 SHORT $LN1@LoadInt_e
$LN88@LoadInt_e:
  0013e	c6 45 f0 ed	 mov	 BYTE PTR __k$[ebp+8], -19 ; ffffffedH
  00142	eb 2d		 jmp	 SHORT $LN1@LoadInt_e
$LN89@LoadInt_e:
  00144	c6 45 ef ea	 mov	 BYTE PTR __k$[ebp+7], -22 ; ffffffeaH
  00148	eb 27		 jmp	 SHORT $LN1@LoadInt_e
$LN90@LoadInt_e:
  0014a	c6 45 ee eb	 mov	 BYTE PTR __k$[ebp+6], -21 ; ffffffebH
  0014e	eb 21		 jmp	 SHORT $LN1@LoadInt_e
$LN91@LoadInt_e:
  00150	88 4d ed	 mov	 BYTE PTR __k$[ebp+5], cl
  00153	eb 1c		 jmp	 SHORT $LN1@LoadInt_e
$LN92@LoadInt_e:
  00155	c6 45 ec ed	 mov	 BYTE PTR __k$[ebp+4], -19 ; ffffffedH
  00159	eb 16		 jmp	 SHORT $LN1@LoadInt_e
$LN93@LoadInt_e:
  0015b	c6 45 eb ea	 mov	 BYTE PTR __k$[ebp+3], -22 ; ffffffeaH
  0015f	eb 10		 jmp	 SHORT $LN1@LoadInt_e
$LN94@LoadInt_e:
  00161	c6 45 ea eb	 mov	 BYTE PTR __k$[ebp+2], -21 ; ffffffebH
  00165	eb 0a		 jmp	 SHORT $LN1@LoadInt_e
$LN95@LoadInt_e:
  00167	c6 45 e9 ec	 mov	 BYTE PTR __k$[ebp+1], -20 ; ffffffecH
  0016b	eb 04		 jmp	 SHORT $LN1@LoadInt_e
$LN96@LoadInt_e:
  0016d	c6 45 e8 ed	 mov	 BYTE PTR __k$[ebp], -19	; ffffffedH
$LN1@LoadInt_e:
  00171	6a 03		 push	 3
  00173	8d 45 e8	 lea	 eax, DWORD PTR __k$[ebp]
  00176	c6 45 f4 00	 mov	 BYTE PTR __k$[ebp+12], 0
  0017a	5a		 pop	 edx
$LL104@LoadInt_e:
  0017b	81 30 ed ec eb
	ea		 xor	 DWORD PTR [eax], -353637139 ; eaebecedH
  00181	83 c0 04	 add	 eax, 4
  00184	4a		 dec	 edx
  00185	75 f4		 jne	 SHORT $LL104@LoadInt_e

; 120  : 		return LoadInt(_k, i);

  00187	ff 75 0c	 push	 DWORD PTR _i$[ebp]
  0018a	8d 45 e8	 lea	 eax, DWORD PTR __k$[ebp]
  0018d	50		 push	 eax
  0018e	8b ce		 mov	 ecx, esi
  00190	ff 15 00 00 00
	00		 call	 DWORD PTR __imp_?LoadInt@ioINILoader@@QAEHPBDH@Z

; 121  : 	}

  00196	8b 4d fc	 mov	 ecx, DWORD PTR __$ArrayPad$[ebp]
  00199	33 cd		 xor	 ecx, ebp
  0019b	5e		 pop	 esi
  0019c	e8 00 00 00 00	 call	 @__security_check_cookie@4
  001a1	c9		 leave
  001a2	c2 08 00	 ret	 8
??$LoadInt_e@$0N@@ioINILoader@@QAEHAAY0N@$$CBDH@Z ENDP	; ioINILoader::LoadInt_e<13>
_TEXT	ENDS
PUBLIC	_this$GSCopy$
PUBLIC	__$ArrayPad$
PUBLIC	??$LoadString_e@$0M@@ioINILoader@@QAEXAAY0M@$$CBDAAY00$$CBDPADH@Z ; ioINILoader::LoadString_e<12>
EXTRN	__imp_?LoadStringA@ioINILoader@@QAEXPBD0PADH@Z:PROC
; Function compile flags: /Ogsp
;	COMDAT ??$LoadString_e@$0M@@ioINILoader@@QAEXAAY0M@$$CBDAAY00$$CBDPADH@Z
_TEXT	SEGMENT
_this$GSCopy$ = -24					; size = 4
__k$ = -20						; size = 12
__$ArrayPad$ = -4					; size = 4
_k$ = 8							; size = 4
_d$ = 12						; size = 4
_b$ = 16						; size = 4
_i$ = 20						; size = 4
??$LoadString_e@$0M@@ioINILoader@@QAEXAAY0M@$$CBDAAY00$$CBDPADH@Z PROC ; ioINILoader::LoadString_e<12>, COMDAT
; _this$ = ecx

; 161  : 	{

  00000	55		 push	 ebp
  00001	8b ec		 mov	 ebp, esp
  00003	83 ec 18	 sub	 esp, 24			; 00000018H
  00006	a1 00 00 00 00	 mov	 eax, DWORD PTR ___security_cookie
  0000b	33 c5		 xor	 eax, ebp
  0000d	89 45 fc	 mov	 DWORD PTR __$ArrayPad$[ebp], eax
  00010	8b 45 08	 mov	 eax, DWORD PTR _k$[ebp]

; 162  : 		_ENCSTR(k, _k);

  00013	8a 10		 mov	 dl, BYTE PTR [eax]
  00015	56		 push	 esi
  00016	8b 75 0c	 mov	 esi, DWORD PTR _d$[ebp]
  00019	57		 push	 edi
  0001a	8b 7d 10	 mov	 edi, DWORD PTR _b$[ebp]
  0001d	89 4d e8	 mov	 DWORD PTR _this$GSCopy$[ebp], ecx
  00020	84 d2		 test	 dl, dl
  00022	0f 84 32 01 00
	00		 je	 $LN96@LoadString
  00028	80 f2 ed	 xor	 dl, -19			; ffffffedH
  0002b	88 55 ec	 mov	 BYTE PTR __k$[ebp], dl
  0002e	8a 50 01	 mov	 dl, BYTE PTR [eax+1]
  00031	84 d2		 test	 dl, dl
  00033	0f 84 1b 01 00
	00		 je	 $LN95@LoadString
  00039	80 f2 ec	 xor	 dl, -20			; ffffffecH
  0003c	88 55 ed	 mov	 BYTE PTR __k$[ebp+1], dl
  0003f	8a 50 02	 mov	 dl, BYTE PTR [eax+2]
  00042	84 d2		 test	 dl, dl
  00044	0f 84 04 01 00
	00		 je	 $LN94@LoadString
  0004a	b1 eb		 mov	 cl, -21			; ffffffebH
  0004c	32 d1		 xor	 dl, cl
  0004e	88 55 ee	 mov	 BYTE PTR __k$[ebp+2], dl
  00051	8a 50 03	 mov	 dl, BYTE PTR [eax+3]
  00054	84 d2		 test	 dl, dl
  00056	0f 84 ec 00 00
	00		 je	 $LN93@LoadString
  0005c	80 f2 ea	 xor	 dl, -22			; ffffffeaH
  0005f	88 55 ef	 mov	 BYTE PTR __k$[ebp+3], dl
  00062	8a 50 04	 mov	 dl, BYTE PTR [eax+4]
  00065	84 d2		 test	 dl, dl
  00067	0f 84 d5 00 00
	00		 je	 $LN92@LoadString
  0006d	80 f2 ed	 xor	 dl, -19			; ffffffedH
  00070	88 55 f0	 mov	 BYTE PTR __k$[ebp+4], dl
  00073	8a 50 05	 mov	 dl, BYTE PTR [eax+5]
  00076	84 d2		 test	 dl, dl
  00078	0f 84 be 00 00
	00		 je	 $LN91@LoadString
  0007e	80 f2 ec	 xor	 dl, -20			; ffffffecH
  00081	88 55 f1	 mov	 BYTE PTR __k$[ebp+5], dl
  00084	8a 50 06	 mov	 dl, BYTE PTR [eax+6]
  00087	84 d2		 test	 dl, dl
  00089	0f 84 a8 00 00
	00		 je	 $LN90@LoadString
  0008f	32 d1		 xor	 dl, cl
  00091	88 55 f2	 mov	 BYTE PTR __k$[ebp+6], dl
  00094	8a 50 07	 mov	 dl, BYTE PTR [eax+7]
  00097	84 d2		 test	 dl, dl
  00099	0f 84 92 00 00
	00		 je	 $LN89@LoadString
  0009f	80 f2 ea	 xor	 dl, -22			; ffffffeaH
  000a2	88 55 f3	 mov	 BYTE PTR __k$[ebp+7], dl
  000a5	8a 50 08	 mov	 dl, BYTE PTR [eax+8]
  000a8	84 d2		 test	 dl, dl
  000aa	74 7f		 je	 SHORT $LN88@LoadString
  000ac	80 f2 ed	 xor	 dl, -19			; ffffffedH
  000af	88 55 f4	 mov	 BYTE PTR __k$[ebp+8], dl
  000b2	8a 50 09	 mov	 dl, BYTE PTR [eax+9]
  000b5	84 d2		 test	 dl, dl
  000b7	74 6c		 je	 SHORT $LN87@LoadString
  000b9	80 f2 ec	 xor	 dl, -20			; ffffffecH
  000bc	88 55 f5	 mov	 BYTE PTR __k$[ebp+9], dl
  000bf	8a 50 0a	 mov	 dl, BYTE PTR [eax+10]
  000c2	84 d2		 test	 dl, dl
  000c4	74 5a		 je	 SHORT $LN86@LoadString
  000c6	32 d1		 xor	 dl, cl
  000c8	80 78 0b 00	 cmp	 BYTE PTR [eax+11], 0
  000cc	88 55 f6	 mov	 BYTE PTR __k$[ebp+10], dl
  000cf	0f 84 89 00 00
	00		 je	 $LN111@LoadString
  000d5	8a 50 0c	 mov	 dl, BYTE PTR [eax+12]
  000d8	84 d2		 test	 dl, dl
  000da	74 3e		 je	 SHORT $LN84@LoadString
  000dc	80 f2 ed	 xor	 dl, -19			; ffffffedH
  000df	88 55 f8	 mov	 BYTE PTR __k$[ebp+12], dl
  000e2	8a 50 0d	 mov	 dl, BYTE PTR [eax+13]
  000e5	84 d2		 test	 dl, dl
  000e7	74 2b		 je	 SHORT $LN83@LoadString
  000e9	80 f2 ec	 xor	 dl, -20			; ffffffecH
  000ec	88 55 f9	 mov	 BYTE PTR __k$[ebp+13], dl
  000ef	8a 50 0e	 mov	 dl, BYTE PTR [eax+14]
  000f2	84 d2		 test	 dl, dl
  000f4	74 19		 je	 SHORT $LN82@LoadString
  000f6	8a 40 0f	 mov	 al, BYTE PTR [eax+15]
  000f9	32 d1		 xor	 dl, cl
  000fb	88 55 fa	 mov	 BYTE PTR __k$[ebp+14], dl
  000fe	84 c0		 test	 al, al
  00100	74 07		 je	 SHORT $LN81@LoadString
  00102	34 ea		 xor	 al, -22			; ffffffeaH
  00104	88 45 fb	 mov	 BYTE PTR __k$[ebp+15], al
  00107	eb 55		 jmp	 SHORT $LN111@LoadString
$LN81@LoadString:
  00109	c6 45 fb ea	 mov	 BYTE PTR __k$[ebp+15], -22 ; ffffffeaH
  0010d	eb 4f		 jmp	 SHORT $LN111@LoadString
$LN82@LoadString:
  0010f	88 4d fa	 mov	 BYTE PTR __k$[ebp+14], cl
  00112	eb 4a		 jmp	 SHORT $LN111@LoadString
$LN83@LoadString:
  00114	c6 45 f9 ec	 mov	 BYTE PTR __k$[ebp+13], -20 ; ffffffecH
  00118	eb 44		 jmp	 SHORT $LN111@LoadString
$LN84@LoadString:
  0011a	c6 45 f8 ed	 mov	 BYTE PTR __k$[ebp+12], -19 ; ffffffedH
  0011e	eb 3e		 jmp	 SHORT $LN111@LoadString
$LN86@LoadString:
  00120	88 4d f6	 mov	 BYTE PTR __k$[ebp+10], cl
  00123	eb 39		 jmp	 SHORT $LN111@LoadString
$LN87@LoadString:
  00125	c6 45 f5 ec	 mov	 BYTE PTR __k$[ebp+9], -20 ; ffffffecH
  00129	eb 33		 jmp	 SHORT $LN111@LoadString
$LN88@LoadString:
  0012b	c6 45 f4 ed	 mov	 BYTE PTR __k$[ebp+8], -19 ; ffffffedH
  0012f	eb 2d		 jmp	 SHORT $LN111@LoadString
$LN89@LoadString:
  00131	c6 45 f3 ea	 mov	 BYTE PTR __k$[ebp+7], -22 ; ffffffeaH
  00135	eb 27		 jmp	 SHORT $LN111@LoadString
$LN90@LoadString:
  00137	88 4d f2	 mov	 BYTE PTR __k$[ebp+6], cl
  0013a	eb 22		 jmp	 SHORT $LN111@LoadString
$LN91@LoadString:
  0013c	c6 45 f1 ec	 mov	 BYTE PTR __k$[ebp+5], -20 ; ffffffecH
  00140	eb 1c		 jmp	 SHORT $LN111@LoadString
$LN92@LoadString:
  00142	c6 45 f0 ed	 mov	 BYTE PTR __k$[ebp+4], -19 ; ffffffedH
  00146	eb 16		 jmp	 SHORT $LN111@LoadString
$LN93@LoadString:
  00148	c6 45 ef ea	 mov	 BYTE PTR __k$[ebp+3], -22 ; ffffffeaH
  0014c	eb 10		 jmp	 SHORT $LN111@LoadString
$LN94@LoadString:
  0014e	c6 45 ee eb	 mov	 BYTE PTR __k$[ebp+2], -21 ; ffffffebH
  00152	eb 0a		 jmp	 SHORT $LN111@LoadString
$LN95@LoadString:
  00154	c6 45 ed ec	 mov	 BYTE PTR __k$[ebp+1], -20 ; ffffffecH
  00158	eb 04		 jmp	 SHORT $LN111@LoadString
$LN96@LoadString:
  0015a	c6 45 ec ed	 mov	 BYTE PTR __k$[ebp], -19	; ffffffedH
$LN111@LoadString:
  0015e	6a 02		 push	 2
  00160	8d 45 ec	 lea	 eax, DWORD PTR __k$[ebp]
  00163	c6 45 f7 00	 mov	 BYTE PTR __k$[ebp+11], 0
  00167	5a		 pop	 edx
$LL104@LoadString:
  00168	81 30 ed ec eb
	ea		 xor	 DWORD PTR [eax], -353637139 ; eaebecedH
  0016e	83 c0 04	 add	 eax, 4
  00171	4a		 dec	 edx
  00172	75 f4		 jne	 SHORT $LL104@LoadString
  00174	6a 08		 push	 8
  00176	58		 pop	 eax
$LL101@LoadString:
  00177	8b c8		 mov	 ecx, eax
  00179	81 e1 03 00 00
	80		 and	 ecx, -2147483645	; 80000003H
  0017f	79 05		 jns	 SHORT $LN112@LoadString
  00181	49		 dec	 ecx
  00182	83 c9 fc	 or	 ecx, -4			; fffffffcH
  00185	41		 inc	 ecx
$LN112@LoadString:
  00186	b2 ed		 mov	 dl, -19			; ffffffedH
  00188	2a d1		 sub	 dl, cl
  0018a	30 54 05 ec	 xor	 BYTE PTR __k$[ebp+eax], dl
  0018e	40		 inc	 eax
  0018f	83 f8 0b	 cmp	 eax, 11			; 0000000bH
  00192	7c e3		 jl	 SHORT $LL101@LoadString

; 163  : 		LoadString(_k, d, b, i);

  00194	ff 75 14	 push	 DWORD PTR _i$[ebp]
  00197	8b 4d e8	 mov	 ecx, DWORD PTR _this$GSCopy$[ebp]
  0019a	57		 push	 edi
  0019b	56		 push	 esi
  0019c	8d 45 ec	 lea	 eax, DWORD PTR __k$[ebp]
  0019f	50		 push	 eax
  001a0	ff 15 00 00 00
	00		 call	 DWORD PTR __imp_?LoadStringA@ioINILoader@@QAEXPBD0PADH@Z

; 164  : 	}

  001a6	8b 4d fc	 mov	 ecx, DWORD PTR __$ArrayPad$[ebp]
  001a9	5f		 pop	 edi
  001aa	33 cd		 xor	 ecx, ebp
  001ac	5e		 pop	 esi
  001ad	e8 00 00 00 00	 call	 @__security_check_cookie@4
  001b2	c9		 leave
  001b3	c2 10 00	 ret	 16			; 00000010H
??$LoadString_e@$0M@@ioINILoader@@QAEXAAY0M@$$CBDAAY00$$CBDPADH@Z ENDP ; ioINILoader::LoadString_e<12>
_TEXT	ENDS
PUBLIC	__$ArrayPad$
PUBLIC	??$LoadBool_e@$0BE@@ioINILoader@@QAE_NAAY0BE@$$CBD_N@Z ; ioINILoader::LoadBool_e<20>
EXTRN	__imp_?LoadBool@ioINILoader@@QAE_NPBD_N@Z:PROC
; Function compile flags: /Ogsp
;	COMDAT ??$LoadBool_e@$0BE@@ioINILoader@@QAE_NAAY0BE@$$CBD_N@Z
_TEXT	SEGMENT
__k$ = -28						; size = 20
__$ArrayPad$ = -4					; size = 4
_k$ = 8							; size = 4
_b$ = 12						; size = 1
??$LoadBool_e@$0BE@@ioINILoader@@QAE_NAAY0BE@$$CBD_N@Z PROC ; ioINILoader::LoadBool_e<20>, COMDAT
; _this$ = ecx

; 101  : 	{

  00000	55		 push	 ebp
  00001	8b ec		 mov	 ebp, esp
  00003	83 ec 1c	 sub	 esp, 28			; 0000001cH
  00006	a1 00 00 00 00	 mov	 eax, DWORD PTR ___security_cookie
  0000b	33 c5		 xor	 eax, ebp
  0000d	89 45 fc	 mov	 DWORD PTR __$ArrayPad$[ebp], eax
  00010	8b 45 08	 mov	 eax, DWORD PTR _k$[ebp]

; 102  : 		_ENCSTR(k, _k);

  00013	8a 10		 mov	 dl, BYTE PTR [eax]
  00015	53		 push	 ebx
  00016	56		 push	 esi
  00017	8b f1		 mov	 esi, ecx
  00019	84 d2		 test	 dl, dl
  0001b	0f 84 dd 01 00
	00		 je	 $LN96@LoadBool_e
  00021	80 f2 ed	 xor	 dl, -19			; ffffffedH
  00024	88 55 e4	 mov	 BYTE PTR __k$[ebp], dl
  00027	8a 50 01	 mov	 dl, BYTE PTR [eax+1]
  0002a	84 d2		 test	 dl, dl
  0002c	0f 84 c6 01 00
	00		 je	 $LN95@LoadBool_e
  00032	b3 ec		 mov	 bl, -20			; ffffffecH
  00034	32 d3		 xor	 dl, bl
  00036	88 55 e5	 mov	 BYTE PTR __k$[ebp+1], dl
  00039	8a 50 02	 mov	 dl, BYTE PTR [eax+2]
  0003c	84 d2		 test	 dl, dl
  0003e	0f 84 ae 01 00
	00		 je	 $LN94@LoadBool_e
  00044	b1 eb		 mov	 cl, -21			; ffffffebH
  00046	32 d1		 xor	 dl, cl
  00048	88 55 e6	 mov	 BYTE PTR __k$[ebp+2], dl
  0004b	8a 50 03	 mov	 dl, BYTE PTR [eax+3]
  0004e	84 d2		 test	 dl, dl
  00050	0f 84 96 01 00
	00		 je	 $LN93@LoadBool_e
  00056	80 f2 ea	 xor	 dl, -22			; ffffffeaH
  00059	88 55 e7	 mov	 BYTE PTR __k$[ebp+3], dl
  0005c	8a 50 04	 mov	 dl, BYTE PTR [eax+4]
  0005f	84 d2		 test	 dl, dl
  00061	0f 84 7f 01 00
	00		 je	 $LN92@LoadBool_e
  00067	80 f2 ed	 xor	 dl, -19			; ffffffedH
  0006a	88 55 e8	 mov	 BYTE PTR __k$[ebp+4], dl
  0006d	8a 50 05	 mov	 dl, BYTE PTR [eax+5]
  00070	84 d2		 test	 dl, dl
  00072	0f 84 69 01 00
	00		 je	 $LN91@LoadBool_e
  00078	32 d3		 xor	 dl, bl
  0007a	88 55 e9	 mov	 BYTE PTR __k$[ebp+5], dl
  0007d	8a 50 06	 mov	 dl, BYTE PTR [eax+6]
  00080	84 d2		 test	 dl, dl
  00082	0f 84 54 01 00
	00		 je	 $LN90@LoadBool_e
  00088	32 d1		 xor	 dl, cl
  0008a	88 55 ea	 mov	 BYTE PTR __k$[ebp+6], dl
  0008d	8a 50 07	 mov	 dl, BYTE PTR [eax+7]
  00090	84 d2		 test	 dl, dl
  00092	0f 84 3e 01 00
	00		 je	 $LN89@LoadBool_e
  00098	80 f2 ea	 xor	 dl, -22			; ffffffeaH
  0009b	88 55 eb	 mov	 BYTE PTR __k$[ebp+7], dl
  0009e	8a 50 08	 mov	 dl, BYTE PTR [eax+8]
  000a1	84 d2		 test	 dl, dl
  000a3	0f 84 27 01 00
	00		 je	 $LN88@LoadBool_e
  000a9	80 f2 ed	 xor	 dl, -19			; ffffffedH
  000ac	88 55 ec	 mov	 BYTE PTR __k$[ebp+8], dl
  000af	8a 50 09	 mov	 dl, BYTE PTR [eax+9]
  000b2	84 d2		 test	 dl, dl
  000b4	0f 84 11 01 00
	00		 je	 $LN87@LoadBool_e
  000ba	32 d3		 xor	 dl, bl
  000bc	88 55 ed	 mov	 BYTE PTR __k$[ebp+9], dl
  000bf	8a 50 0a	 mov	 dl, BYTE PTR [eax+10]
  000c2	84 d2		 test	 dl, dl
  000c4	0f 84 fc 00 00
	00		 je	 $LN86@LoadBool_e
  000ca	32 d1		 xor	 dl, cl
  000cc	88 55 ee	 mov	 BYTE PTR __k$[ebp+10], dl
  000cf	8a 50 0b	 mov	 dl, BYTE PTR [eax+11]
  000d2	84 d2		 test	 dl, dl
  000d4	0f 84 e6 00 00
	00		 je	 $LN85@LoadBool_e
  000da	80 f2 ea	 xor	 dl, -22			; ffffffeaH
  000dd	88 55 ef	 mov	 BYTE PTR __k$[ebp+11], dl
  000e0	8a 50 0c	 mov	 dl, BYTE PTR [eax+12]
  000e3	84 d2		 test	 dl, dl
  000e5	0f 84 cf 00 00
	00		 je	 $LN84@LoadBool_e
  000eb	80 f2 ed	 xor	 dl, -19			; ffffffedH
  000ee	88 55 f0	 mov	 BYTE PTR __k$[ebp+12], dl
  000f1	8a 50 0d	 mov	 dl, BYTE PTR [eax+13]
  000f4	84 d2		 test	 dl, dl
  000f6	0f 84 b9 00 00
	00		 je	 $LN83@LoadBool_e
  000fc	32 d3		 xor	 dl, bl
  000fe	88 55 f1	 mov	 BYTE PTR __k$[ebp+13], dl
  00101	8a 50 0e	 mov	 dl, BYTE PTR [eax+14]
  00104	84 d2		 test	 dl, dl
  00106	0f 84 a4 00 00
	00		 je	 $LN82@LoadBool_e
  0010c	32 d1		 xor	 dl, cl
  0010e	88 55 f2	 mov	 BYTE PTR __k$[ebp+14], dl
  00111	8a 50 0f	 mov	 dl, BYTE PTR [eax+15]
  00114	84 d2		 test	 dl, dl
  00116	0f 84 8e 00 00
	00		 je	 $LN81@LoadBool_e
  0011c	80 f2 ea	 xor	 dl, -22			; ffffffeaH
  0011f	88 55 f3	 mov	 BYTE PTR __k$[ebp+15], dl
  00122	8a 50 10	 mov	 dl, BYTE PTR [eax+16]
  00125	84 d2		 test	 dl, dl
  00127	74 7b		 je	 SHORT $LN80@LoadBool_e
  00129	80 f2 ed	 xor	 dl, -19			; ffffffedH
  0012c	88 55 f4	 mov	 BYTE PTR __k$[ebp+16], dl
  0012f	8a 50 11	 mov	 dl, BYTE PTR [eax+17]
  00132	84 d2		 test	 dl, dl
  00134	74 69		 je	 SHORT $LN79@LoadBool_e
  00136	32 d3		 xor	 dl, bl
  00138	88 55 f5	 mov	 BYTE PTR __k$[ebp+17], dl
  0013b	8a 50 12	 mov	 dl, BYTE PTR [eax+18]
  0013e	84 d2		 test	 dl, dl
  00140	74 58		 je	 SHORT $LN78@LoadBool_e
  00142	32 d1		 xor	 dl, cl
  00144	80 78 13 00	 cmp	 BYTE PTR [eax+19], 0
  00148	88 55 f6	 mov	 BYTE PTR __k$[ebp+18], dl
  0014b	0f 84 b1 00 00
	00		 je	 $LN1@LoadBool_e
  00151	8a 50 14	 mov	 dl, BYTE PTR [eax+20]
  00154	84 d2		 test	 dl, dl
  00156	74 3c		 je	 SHORT $LN76@LoadBool_e
  00158	80 f2 ed	 xor	 dl, -19			; ffffffedH
  0015b	88 55 f8	 mov	 BYTE PTR __k$[ebp+20], dl
  0015e	8a 50 15	 mov	 dl, BYTE PTR [eax+21]
  00161	84 d2		 test	 dl, dl
  00163	74 2a		 je	 SHORT $LN75@LoadBool_e
  00165	32 d3		 xor	 dl, bl
  00167	88 55 f9	 mov	 BYTE PTR __k$[ebp+21], dl
  0016a	8a 50 16	 mov	 dl, BYTE PTR [eax+22]
  0016d	84 d2		 test	 dl, dl
  0016f	74 19		 je	 SHORT $LN74@LoadBool_e
  00171	8a 40 17	 mov	 al, BYTE PTR [eax+23]
  00174	32 d1		 xor	 dl, cl
  00176	88 55 fa	 mov	 BYTE PTR __k$[ebp+22], dl
  00179	84 c0		 test	 al, al
  0017b	74 07		 je	 SHORT $LN73@LoadBool_e
  0017d	34 ea		 xor	 al, -22			; ffffffeaH
  0017f	88 45 fb	 mov	 BYTE PTR __k$[ebp+23], al
  00182	eb 7e		 jmp	 SHORT $LN1@LoadBool_e
$LN73@LoadBool_e:
  00184	c6 45 fb ea	 mov	 BYTE PTR __k$[ebp+23], -22 ; ffffffeaH
  00188	eb 78		 jmp	 SHORT $LN1@LoadBool_e
$LN74@LoadBool_e:
  0018a	88 4d fa	 mov	 BYTE PTR __k$[ebp+22], cl
  0018d	eb 73		 jmp	 SHORT $LN1@LoadBool_e
$LN75@LoadBool_e:
  0018f	88 5d f9	 mov	 BYTE PTR __k$[ebp+21], bl
  00192	eb 6e		 jmp	 SHORT $LN1@LoadBool_e
$LN76@LoadBool_e:
  00194	c6 45 f8 ed	 mov	 BYTE PTR __k$[ebp+20], -19 ; ffffffedH
  00198	eb 68		 jmp	 SHORT $LN1@LoadBool_e
$LN78@LoadBool_e:
  0019a	88 4d f6	 mov	 BYTE PTR __k$[ebp+18], cl
  0019d	eb 63		 jmp	 SHORT $LN1@LoadBool_e
$LN79@LoadBool_e:
  0019f	88 5d f5	 mov	 BYTE PTR __k$[ebp+17], bl
  001a2	eb 5e		 jmp	 SHORT $LN1@LoadBool_e
$LN80@LoadBool_e:
  001a4	c6 45 f4 ed	 mov	 BYTE PTR __k$[ebp+16], -19 ; ffffffedH
  001a8	eb 58		 jmp	 SHORT $LN1@LoadBool_e
$LN81@LoadBool_e:
  001aa	c6 45 f3 ea	 mov	 BYTE PTR __k$[ebp+15], -22 ; ffffffeaH
  001ae	eb 52		 jmp	 SHORT $LN1@LoadBool_e
$LN82@LoadBool_e:
  001b0	88 4d f2	 mov	 BYTE PTR __k$[ebp+14], cl
  001b3	eb 4d		 jmp	 SHORT $LN1@LoadBool_e
$LN83@LoadBool_e:
  001b5	88 5d f1	 mov	 BYTE PTR __k$[ebp+13], bl
  001b8	eb 48		 jmp	 SHORT $LN1@LoadBool_e
$LN84@LoadBool_e:
  001ba	c6 45 f0 ed	 mov	 BYTE PTR __k$[ebp+12], -19 ; ffffffedH
  001be	eb 42		 jmp	 SHORT $LN1@LoadBool_e
$LN85@LoadBool_e:
  001c0	c6 45 ef ea	 mov	 BYTE PTR __k$[ebp+11], -22 ; ffffffeaH
  001c4	eb 3c		 jmp	 SHORT $LN1@LoadBool_e
$LN86@LoadBool_e:
  001c6	88 4d ee	 mov	 BYTE PTR __k$[ebp+10], cl
  001c9	eb 37		 jmp	 SHORT $LN1@LoadBool_e
$LN87@LoadBool_e:
  001cb	88 5d ed	 mov	 BYTE PTR __k$[ebp+9], bl
  001ce	eb 32		 jmp	 SHORT $LN1@LoadBool_e
$LN88@LoadBool_e:
  001d0	c6 45 ec ed	 mov	 BYTE PTR __k$[ebp+8], -19 ; ffffffedH
  001d4	eb 2c		 jmp	 SHORT $LN1@LoadBool_e
$LN89@LoadBool_e:
  001d6	c6 45 eb ea	 mov	 BYTE PTR __k$[ebp+7], -22 ; ffffffeaH
  001da	eb 26		 jmp	 SHORT $LN1@LoadBool_e
$LN90@LoadBool_e:
  001dc	88 4d ea	 mov	 BYTE PTR __k$[ebp+6], cl
  001df	eb 21		 jmp	 SHORT $LN1@LoadBool_e
$LN91@LoadBool_e:
  001e1	88 5d e9	 mov	 BYTE PTR __k$[ebp+5], bl
  001e4	eb 1c		 jmp	 SHORT $LN1@LoadBool_e
$LN92@LoadBool_e:
  001e6	c6 45 e8 ed	 mov	 BYTE PTR __k$[ebp+4], -19 ; ffffffedH
  001ea	eb 16		 jmp	 SHORT $LN1@LoadBool_e
$LN93@LoadBool_e:
  001ec	c6 45 e7 ea	 mov	 BYTE PTR __k$[ebp+3], -22 ; ffffffeaH
  001f0	eb 10		 jmp	 SHORT $LN1@LoadBool_e
$LN94@LoadBool_e:
  001f2	c6 45 e6 eb	 mov	 BYTE PTR __k$[ebp+2], -21 ; ffffffebH
  001f6	eb 0a		 jmp	 SHORT $LN1@LoadBool_e
$LN95@LoadBool_e:
  001f8	c6 45 e5 ec	 mov	 BYTE PTR __k$[ebp+1], -20 ; ffffffecH
  001fc	eb 04		 jmp	 SHORT $LN1@LoadBool_e
$LN96@LoadBool_e:
  001fe	c6 45 e4 ed	 mov	 BYTE PTR __k$[ebp], -19	; ffffffedH
$LN1@LoadBool_e:
  00202	6a 04		 push	 4
  00204	8d 45 e4	 lea	 eax, DWORD PTR __k$[ebp]
  00207	c6 45 f7 00	 mov	 BYTE PTR __k$[ebp+19], 0
  0020b	5a		 pop	 edx
$LL104@LoadBool_e:
  0020c	81 30 ed ec eb
	ea		 xor	 DWORD PTR [eax], -353637139 ; eaebecedH
  00212	83 c0 04	 add	 eax, 4
  00215	4a		 dec	 edx
  00216	75 f4		 jne	 SHORT $LL104@LoadBool_e
  00218	6a 10		 push	 16			; 00000010H
  0021a	58		 pop	 eax
$LL101@LoadBool_e:
  0021b	8b c8		 mov	 ecx, eax
  0021d	81 e1 03 00 00
	80		 and	 ecx, -2147483645	; 80000003H
  00223	79 05		 jns	 SHORT $LN111@LoadBool_e
  00225	49		 dec	 ecx
  00226	83 c9 fc	 or	 ecx, -4			; fffffffcH
  00229	41		 inc	 ecx
$LN111@LoadBool_e:
  0022a	b2 ed		 mov	 dl, -19			; ffffffedH
  0022c	2a d1		 sub	 dl, cl
  0022e	30 54 05 e4	 xor	 BYTE PTR __k$[ebp+eax], dl
  00232	40		 inc	 eax
  00233	83 f8 13	 cmp	 eax, 19			; 00000013H
  00236	7c e3		 jl	 SHORT $LL101@LoadBool_e

; 103  : 		return LoadBool(_k, b);

  00238	ff 75 0c	 push	 DWORD PTR _b$[ebp]
  0023b	8d 45 e4	 lea	 eax, DWORD PTR __k$[ebp]
  0023e	50		 push	 eax
  0023f	8b ce		 mov	 ecx, esi
  00241	ff 15 00 00 00
	00		 call	 DWORD PTR __imp_?LoadBool@ioINILoader@@QAE_NPBD_N@Z

; 104  : 	}

  00247	8b 4d fc	 mov	 ecx, DWORD PTR __$ArrayPad$[ebp]
  0024a	5e		 pop	 esi
  0024b	33 cd		 xor	 ecx, ebp
  0024d	5b		 pop	 ebx
  0024e	e8 00 00 00 00	 call	 @__security_check_cookie@4
  00253	c9		 leave
  00254	c2 08 00	 ret	 8
??$LoadBool_e@$0BE@@ioINILoader@@QAE_NAAY0BE@$$CBD_N@Z ENDP ; ioINILoader::LoadBool_e<20>
_TEXT	ENDS
PUBLIC	__$ArrayPad$
PUBLIC	??$LoadBool_e@$0BD@@ioINILoader@@QAE_NAAY0BD@$$CBD_N@Z ; ioINILoader::LoadBool_e<19>
; Function compile flags: /Ogsp
;	COMDAT ??$LoadBool_e@$0BD@@ioINILoader@@QAE_NAAY0BD@$$CBD_N@Z
_TEXT	SEGMENT
__k$ = -28						; size = 19
__$ArrayPad$ = -4					; size = 4
_k$ = 8							; size = 4
_b$ = 12						; size = 1
??$LoadBool_e@$0BD@@ioINILoader@@QAE_NAAY0BD@$$CBD_N@Z PROC ; ioINILoader::LoadBool_e<19>, COMDAT
; _this$ = ecx

; 101  : 	{

  00000	55		 push	 ebp
  00001	8b ec		 mov	 ebp, esp
  00003	83 ec 1c	 sub	 esp, 28			; 0000001cH
  00006	a1 00 00 00 00	 mov	 eax, DWORD PTR ___security_cookie
  0000b	33 c5		 xor	 eax, ebp
  0000d	89 45 fc	 mov	 DWORD PTR __$ArrayPad$[ebp], eax
  00010	8b 45 08	 mov	 eax, DWORD PTR _k$[ebp]

; 102  : 		_ENCSTR(k, _k);

  00013	8a 10		 mov	 dl, BYTE PTR [eax]
  00015	56		 push	 esi
  00016	8b f1		 mov	 esi, ecx
  00018	84 d2		 test	 dl, dl
  0001a	0f 84 cf 01 00
	00		 je	 $LN96@LoadBool_e@2
  00020	80 f2 ed	 xor	 dl, -19			; ffffffedH
  00023	88 55 e4	 mov	 BYTE PTR __k$[ebp], dl
  00026	8a 50 01	 mov	 dl, BYTE PTR [eax+1]
  00029	84 d2		 test	 dl, dl
  0002b	0f 84 b8 01 00
	00		 je	 $LN95@LoadBool_e@2
  00031	b1 ec		 mov	 cl, -20			; ffffffecH
  00033	32 d1		 xor	 dl, cl
  00035	88 55 e5	 mov	 BYTE PTR __k$[ebp+1], dl
  00038	8a 50 02	 mov	 dl, BYTE PTR [eax+2]
  0003b	84 d2		 test	 dl, dl
  0003d	0f 84 a0 01 00
	00		 je	 $LN94@LoadBool_e@2
  00043	80 f2 eb	 xor	 dl, -21			; ffffffebH
  00046	88 55 e6	 mov	 BYTE PTR __k$[ebp+2], dl
  00049	8a 50 03	 mov	 dl, BYTE PTR [eax+3]
  0004c	84 d2		 test	 dl, dl
  0004e	0f 84 89 01 00
	00		 je	 $LN93@LoadBool_e@2
  00054	80 f2 ea	 xor	 dl, -22			; ffffffeaH
  00057	88 55 e7	 mov	 BYTE PTR __k$[ebp+3], dl
  0005a	8a 50 04	 mov	 dl, BYTE PTR [eax+4]
  0005d	84 d2		 test	 dl, dl
  0005f	0f 84 72 01 00
	00		 je	 $LN92@LoadBool_e@2
  00065	80 f2 ed	 xor	 dl, -19			; ffffffedH
  00068	88 55 e8	 mov	 BYTE PTR __k$[ebp+4], dl
  0006b	8a 50 05	 mov	 dl, BYTE PTR [eax+5]
  0006e	84 d2		 test	 dl, dl
  00070	0f 84 5c 01 00
	00		 je	 $LN91@LoadBool_e@2
  00076	32 d1		 xor	 dl, cl
  00078	88 55 e9	 mov	 BYTE PTR __k$[ebp+5], dl
  0007b	8a 50 06	 mov	 dl, BYTE PTR [eax+6]
  0007e	84 d2		 test	 dl, dl
  00080	0f 84 46 01 00
	00		 je	 $LN90@LoadBool_e@2
  00086	80 f2 eb	 xor	 dl, -21			; ffffffebH
  00089	88 55 ea	 mov	 BYTE PTR __k$[ebp+6], dl
  0008c	8a 50 07	 mov	 dl, BYTE PTR [eax+7]
  0008f	84 d2		 test	 dl, dl
  00091	0f 84 2f 01 00
	00		 je	 $LN89@LoadBool_e@2
  00097	80 f2 ea	 xor	 dl, -22			; ffffffeaH
  0009a	88 55 eb	 mov	 BYTE PTR __k$[ebp+7], dl
  0009d	8a 50 08	 mov	 dl, BYTE PTR [eax+8]
  000a0	84 d2		 test	 dl, dl
  000a2	0f 84 18 01 00
	00		 je	 $LN88@LoadBool_e@2
  000a8	80 f2 ed	 xor	 dl, -19			; ffffffedH
  000ab	88 55 ec	 mov	 BYTE PTR __k$[ebp+8], dl
  000ae	8a 50 09	 mov	 dl, BYTE PTR [eax+9]
  000b1	84 d2		 test	 dl, dl
  000b3	0f 84 02 01 00
	00		 je	 $LN87@LoadBool_e@2
  000b9	32 d1		 xor	 dl, cl
  000bb	88 55 ed	 mov	 BYTE PTR __k$[ebp+9], dl
  000be	8a 50 0a	 mov	 dl, BYTE PTR [eax+10]
  000c1	84 d2		 test	 dl, dl
  000c3	0f 84 ec 00 00
	00		 je	 $LN86@LoadBool_e@2
  000c9	80 f2 eb	 xor	 dl, -21			; ffffffebH
  000cc	88 55 ee	 mov	 BYTE PTR __k$[ebp+10], dl
  000cf	8a 50 0b	 mov	 dl, BYTE PTR [eax+11]
  000d2	84 d2		 test	 dl, dl
  000d4	0f 84 d5 00 00
	00		 je	 $LN85@LoadBool_e@2
  000da	80 f2 ea	 xor	 dl, -22			; ffffffeaH
  000dd	88 55 ef	 mov	 BYTE PTR __k$[ebp+11], dl
  000e0	8a 50 0c	 mov	 dl, BYTE PTR [eax+12]
  000e3	84 d2		 test	 dl, dl
  000e5	0f 84 be 00 00
	00		 je	 $LN84@LoadBool_e@2
  000eb	80 f2 ed	 xor	 dl, -19			; ffffffedH
  000ee	88 55 f0	 mov	 BYTE PTR __k$[ebp+12], dl
  000f1	8a 50 0d	 mov	 dl, BYTE PTR [eax+13]
  000f4	84 d2		 test	 dl, dl
  000f6	0f 84 a8 00 00
	00		 je	 $LN83@LoadBool_e@2
  000fc	32 d1		 xor	 dl, cl
  000fe	88 55 f1	 mov	 BYTE PTR __k$[ebp+13], dl
  00101	8a 50 0e	 mov	 dl, BYTE PTR [eax+14]
  00104	84 d2		 test	 dl, dl
  00106	0f 84 92 00 00
	00		 je	 $LN82@LoadBool_e@2
  0010c	80 f2 eb	 xor	 dl, -21			; ffffffebH
  0010f	88 55 f2	 mov	 BYTE PTR __k$[ebp+14], dl
  00112	8a 50 0f	 mov	 dl, BYTE PTR [eax+15]
  00115	84 d2		 test	 dl, dl
  00117	74 7f		 je	 SHORT $LN81@LoadBool_e@2
  00119	80 f2 ea	 xor	 dl, -22			; ffffffeaH
  0011c	88 55 f3	 mov	 BYTE PTR __k$[ebp+15], dl
  0011f	8a 50 10	 mov	 dl, BYTE PTR [eax+16]
  00122	84 d2		 test	 dl, dl
  00124	74 6c		 je	 SHORT $LN80@LoadBool_e@2
  00126	80 f2 ed	 xor	 dl, -19			; ffffffedH
  00129	88 55 f4	 mov	 BYTE PTR __k$[ebp+16], dl
  0012c	8a 50 11	 mov	 dl, BYTE PTR [eax+17]
  0012f	84 d2		 test	 dl, dl
  00131	74 5a		 je	 SHORT $LN79@LoadBool_e@2
  00133	32 d1		 xor	 dl, cl
  00135	80 78 12 00	 cmp	 BYTE PTR [eax+18], 0
  00139	88 55 f5	 mov	 BYTE PTR __k$[ebp+17], dl
  0013c	0f 84 b1 00 00
	00		 je	 $LN1@LoadBool_e@2
  00142	8a 50 13	 mov	 dl, BYTE PTR [eax+19]
  00145	84 d2		 test	 dl, dl
  00147	74 3e		 je	 SHORT $LN77@LoadBool_e@2
  00149	80 f2 ea	 xor	 dl, -22			; ffffffeaH
  0014c	88 55 f7	 mov	 BYTE PTR __k$[ebp+19], dl
  0014f	8a 50 14	 mov	 dl, BYTE PTR [eax+20]
  00152	84 d2		 test	 dl, dl
  00154	74 2b		 je	 SHORT $LN76@LoadBool_e@2
  00156	80 f2 ed	 xor	 dl, -19			; ffffffedH
  00159	88 55 f8	 mov	 BYTE PTR __k$[ebp+20], dl
  0015c	8a 50 15	 mov	 dl, BYTE PTR [eax+21]
  0015f	84 d2		 test	 dl, dl
  00161	74 19		 je	 SHORT $LN75@LoadBool_e@2
  00163	8a 40 16	 mov	 al, BYTE PTR [eax+22]
  00166	32 d1		 xor	 dl, cl
  00168	88 55 f9	 mov	 BYTE PTR __k$[ebp+21], dl
  0016b	84 c0		 test	 al, al
  0016d	74 07		 je	 SHORT $LN74@LoadBool_e@2
  0016f	34 eb		 xor	 al, -21			; ffffffebH
  00171	88 45 fa	 mov	 BYTE PTR __k$[ebp+22], al
  00174	eb 7d		 jmp	 SHORT $LN1@LoadBool_e@2
$LN74@LoadBool_e@2:
  00176	c6 45 fa eb	 mov	 BYTE PTR __k$[ebp+22], -21 ; ffffffebH
  0017a	eb 77		 jmp	 SHORT $LN1@LoadBool_e@2
$LN75@LoadBool_e@2:
  0017c	88 4d f9	 mov	 BYTE PTR __k$[ebp+21], cl
  0017f	eb 72		 jmp	 SHORT $LN1@LoadBool_e@2
$LN76@LoadBool_e@2:
  00181	c6 45 f8 ed	 mov	 BYTE PTR __k$[ebp+20], -19 ; ffffffedH
  00185	eb 6c		 jmp	 SHORT $LN1@LoadBool_e@2
$LN77@LoadBool_e@2:
  00187	c6 45 f7 ea	 mov	 BYTE PTR __k$[ebp+19], -22 ; ffffffeaH
  0018b	eb 66		 jmp	 SHORT $LN1@LoadBool_e@2
$LN79@LoadBool_e@2:
  0018d	88 4d f5	 mov	 BYTE PTR __k$[ebp+17], cl
  00190	eb 61		 jmp	 SHORT $LN1@LoadBool_e@2
$LN80@LoadBool_e@2:
  00192	c6 45 f4 ed	 mov	 BYTE PTR __k$[ebp+16], -19 ; ffffffedH
  00196	eb 5b		 jmp	 SHORT $LN1@LoadBool_e@2
$LN81@LoadBool_e@2:
  00198	c6 45 f3 ea	 mov	 BYTE PTR __k$[ebp+15], -22 ; ffffffeaH
  0019c	eb 55		 jmp	 SHORT $LN1@LoadBool_e@2
$LN82@LoadBool_e@2:
  0019e	c6 45 f2 eb	 mov	 BYTE PTR __k$[ebp+14], -21 ; ffffffebH
  001a2	eb 4f		 jmp	 SHORT $LN1@LoadBool_e@2
$LN83@LoadBool_e@2:
  001a4	88 4d f1	 mov	 BYTE PTR __k$[ebp+13], cl
  001a7	eb 4a		 jmp	 SHORT $LN1@LoadBool_e@2
$LN84@LoadBool_e@2:
  001a9	c6 45 f0 ed	 mov	 BYTE PTR __k$[ebp+12], -19 ; ffffffedH
  001ad	eb 44		 jmp	 SHORT $LN1@LoadBool_e@2
$LN85@LoadBool_e@2:
  001af	c6 45 ef ea	 mov	 BYTE PTR __k$[ebp+11], -22 ; ffffffeaH
  001b3	eb 3e		 jmp	 SHORT $LN1@LoadBool_e@2
$LN86@LoadBool_e@2:
  001b5	c6 45 ee eb	 mov	 BYTE PTR __k$[ebp+10], -21 ; ffffffebH
  001b9	eb 38		 jmp	 SHORT $LN1@LoadBool_e@2
$LN87@LoadBool_e@2:
  001bb	88 4d ed	 mov	 BYTE PTR __k$[ebp+9], cl
  001be	eb 33		 jmp	 SHORT $LN1@LoadBool_e@2
$LN88@LoadBool_e@2:
  001c0	c6 45 ec ed	 mov	 BYTE PTR __k$[ebp+8], -19 ; ffffffedH
  001c4	eb 2d		 jmp	 SHORT $LN1@LoadBool_e@2
$LN89@LoadBool_e@2:
  001c6	c6 45 eb ea	 mov	 BYTE PTR __k$[ebp+7], -22 ; ffffffeaH
  001ca	eb 27		 jmp	 SHORT $LN1@LoadBool_e@2
$LN90@LoadBool_e@2:
  001cc	c6 45 ea eb	 mov	 BYTE PTR __k$[ebp+6], -21 ; ffffffebH
  001d0	eb 21		 jmp	 SHORT $LN1@LoadBool_e@2
$LN91@LoadBool_e@2:
  001d2	88 4d e9	 mov	 BYTE PTR __k$[ebp+5], cl
  001d5	eb 1c		 jmp	 SHORT $LN1@LoadBool_e@2
$LN92@LoadBool_e@2:
  001d7	c6 45 e8 ed	 mov	 BYTE PTR __k$[ebp+4], -19 ; ffffffedH
  001db	eb 16		 jmp	 SHORT $LN1@LoadBool_e@2
$LN93@LoadBool_e@2:
  001dd	c6 45 e7 ea	 mov	 BYTE PTR __k$[ebp+3], -22 ; ffffffeaH
  001e1	eb 10		 jmp	 SHORT $LN1@LoadBool_e@2
$LN94@LoadBool_e@2:
  001e3	c6 45 e6 eb	 mov	 BYTE PTR __k$[ebp+2], -21 ; ffffffebH
  001e7	eb 0a		 jmp	 SHORT $LN1@LoadBool_e@2
$LN95@LoadBool_e@2:
  001e9	c6 45 e5 ec	 mov	 BYTE PTR __k$[ebp+1], -20 ; ffffffecH
  001ed	eb 04		 jmp	 SHORT $LN1@LoadBool_e@2
$LN96@LoadBool_e@2:
  001ef	c6 45 e4 ed	 mov	 BYTE PTR __k$[ebp], -19	; ffffffedH
$LN1@LoadBool_e@2:
  001f3	6a 04		 push	 4
  001f5	8d 45 e4	 lea	 eax, DWORD PTR __k$[ebp]
  001f8	c6 45 f6 00	 mov	 BYTE PTR __k$[ebp+18], 0
  001fc	5a		 pop	 edx
$LL104@LoadBool_e@2:
  001fd	81 30 ed ec eb
	ea		 xor	 DWORD PTR [eax], -353637139 ; eaebecedH
  00203	83 c0 04	 add	 eax, 4
  00206	4a		 dec	 edx
  00207	75 f4		 jne	 SHORT $LL104@LoadBool_e@2
  00209	6a 10		 push	 16			; 00000010H
  0020b	58		 pop	 eax
$LL101@LoadBool_e@2:
  0020c	8b c8		 mov	 ecx, eax
  0020e	81 e1 03 00 00
	80		 and	 ecx, -2147483645	; 80000003H
  00214	79 05		 jns	 SHORT $LN111@LoadBool_e@2
  00216	49		 dec	 ecx
  00217	83 c9 fc	 or	 ecx, -4			; fffffffcH
  0021a	41		 inc	 ecx
$LN111@LoadBool_e@2:
  0021b	b2 ed		 mov	 dl, -19			; ffffffedH
  0021d	2a d1		 sub	 dl, cl
  0021f	30 54 05 e4	 xor	 BYTE PTR __k$[ebp+eax], dl
  00223	40		 inc	 eax
  00224	83 f8 12	 cmp	 eax, 18			; 00000012H
  00227	7c e3		 jl	 SHORT $LL101@LoadBool_e@2

; 103  : 		return LoadBool(_k, b);

  00229	ff 75 0c	 push	 DWORD PTR _b$[ebp]
  0022c	8d 45 e4	 lea	 eax, DWORD PTR __k$[ebp]
  0022f	50		 push	 eax
  00230	8b ce		 mov	 ecx, esi
  00232	ff 15 00 00 00
	00		 call	 DWORD PTR __imp_?LoadBool@ioINILoader@@QAE_NPBD_N@Z

; 104  : 	}

  00238	8b 4d fc	 mov	 ecx, DWORD PTR __$ArrayPad$[ebp]
  0023b	33 cd		 xor	 ecx, ebp
  0023d	5e		 pop	 esi
  0023e	e8 00 00 00 00	 call	 @__security_check_cookie@4
  00243	c9		 leave
  00244	c2 08 00	 ret	 8
??$LoadBool_e@$0BD@@ioINILoader@@QAE_NAAY0BD@$$CBD_N@Z ENDP ; ioINILoader::LoadBool_e<19>
_TEXT	ENDS
PUBLIC	_this$GSCopy$
PUBLIC	__$ArrayPad$
PUBLIC	??$LoadString_e@$0N@@ioINILoader@@QAEXAAY0N@$$CBDAAY00$$CBDPADH@Z ; ioINILoader::LoadString_e<13>
; Function compile flags: /Ogsp
;	COMDAT ??$LoadString_e@$0N@@ioINILoader@@QAEXAAY0N@$$CBDAAY00$$CBDPADH@Z
_TEXT	SEGMENT
_this$GSCopy$ = -28					; size = 4
__k$ = -24						; size = 13
__$ArrayPad$ = -4					; size = 4
_k$ = 8							; size = 4
_d$ = 12						; size = 4
_b$ = 16						; size = 4
_i$ = 20						; size = 4
??$LoadString_e@$0N@@ioINILoader@@QAEXAAY0N@$$CBDAAY00$$CBDPADH@Z PROC ; ioINILoader::LoadString_e<13>, COMDAT
; _this$ = ecx

; 161  : 	{

  00000	55		 push	 ebp
  00001	8b ec		 mov	 ebp, esp
  00003	83 ec 1c	 sub	 esp, 28			; 0000001cH
  00006	a1 00 00 00 00	 mov	 eax, DWORD PTR ___security_cookie
  0000b	33 c5		 xor	 eax, ebp
  0000d	89 45 fc	 mov	 DWORD PTR __$ArrayPad$[ebp], eax
  00010	8b 45 08	 mov	 eax, DWORD PTR _k$[ebp]

; 162  : 		_ENCSTR(k, _k);

  00013	8a 10		 mov	 dl, BYTE PTR [eax]
  00015	56		 push	 esi
  00016	8b 75 0c	 mov	 esi, DWORD PTR _d$[ebp]
  00019	57		 push	 edi
  0001a	8b 7d 10	 mov	 edi, DWORD PTR _b$[ebp]
  0001d	89 4d e4	 mov	 DWORD PTR _this$GSCopy$[ebp], ecx
  00020	84 d2		 test	 dl, dl
  00022	0f 84 4d 01 00
	00		 je	 $LN96@LoadString@2
  00028	80 f2 ed	 xor	 dl, -19			; ffffffedH
  0002b	88 55 e8	 mov	 BYTE PTR __k$[ebp], dl
  0002e	8a 50 01	 mov	 dl, BYTE PTR [eax+1]
  00031	84 d2		 test	 dl, dl
  00033	0f 84 36 01 00
	00		 je	 $LN95@LoadString@2
  00039	b1 ec		 mov	 cl, -20			; ffffffecH
  0003b	32 d1		 xor	 dl, cl
  0003d	88 55 e9	 mov	 BYTE PTR __k$[ebp+1], dl
  00040	8a 50 02	 mov	 dl, BYTE PTR [eax+2]
  00043	84 d2		 test	 dl, dl
  00045	0f 84 1e 01 00
	00		 je	 $LN94@LoadString@2
  0004b	80 f2 eb	 xor	 dl, -21			; ffffffebH
  0004e	88 55 ea	 mov	 BYTE PTR __k$[ebp+2], dl
  00051	8a 50 03	 mov	 dl, BYTE PTR [eax+3]
  00054	84 d2		 test	 dl, dl
  00056	0f 84 07 01 00
	00		 je	 $LN93@LoadString@2
  0005c	80 f2 ea	 xor	 dl, -22			; ffffffeaH
  0005f	88 55 eb	 mov	 BYTE PTR __k$[ebp+3], dl
  00062	8a 50 04	 mov	 dl, BYTE PTR [eax+4]
  00065	84 d2		 test	 dl, dl
  00067	0f 84 f0 00 00
	00		 je	 $LN92@LoadString@2
  0006d	80 f2 ed	 xor	 dl, -19			; ffffffedH
  00070	88 55 ec	 mov	 BYTE PTR __k$[ebp+4], dl
  00073	8a 50 05	 mov	 dl, BYTE PTR [eax+5]
  00076	84 d2		 test	 dl, dl
  00078	0f 84 da 00 00
	00		 je	 $LN91@LoadString@2
  0007e	32 d1		 xor	 dl, cl
  00080	88 55 ed	 mov	 BYTE PTR __k$[ebp+5], dl
  00083	8a 50 06	 mov	 dl, BYTE PTR [eax+6]
  00086	84 d2		 test	 dl, dl
  00088	0f 84 c4 00 00
	00		 je	 $LN90@LoadString@2
  0008e	80 f2 eb	 xor	 dl, -21			; ffffffebH
  00091	88 55 ee	 mov	 BYTE PTR __k$[ebp+6], dl
  00094	8a 50 07	 mov	 dl, BYTE PTR [eax+7]
  00097	84 d2		 test	 dl, dl
  00099	0f 84 ad 00 00
	00		 je	 $LN89@LoadString@2
  0009f	80 f2 ea	 xor	 dl, -22			; ffffffeaH
  000a2	88 55 ef	 mov	 BYTE PTR __k$[ebp+7], dl
  000a5	8a 50 08	 mov	 dl, BYTE PTR [eax+8]
  000a8	84 d2		 test	 dl, dl
  000aa	0f 84 96 00 00
	00		 je	 $LN88@LoadString@2
  000b0	80 f2 ed	 xor	 dl, -19			; ffffffedH
  000b3	88 55 f0	 mov	 BYTE PTR __k$[ebp+8], dl
  000b6	8a 50 09	 mov	 dl, BYTE PTR [eax+9]
  000b9	84 d2		 test	 dl, dl
  000bb	0f 84 80 00 00
	00		 je	 $LN87@LoadString@2
  000c1	32 d1		 xor	 dl, cl
  000c3	88 55 f1	 mov	 BYTE PTR __k$[ebp+9], dl
  000c6	8a 50 0a	 mov	 dl, BYTE PTR [eax+10]
  000c9	84 d2		 test	 dl, dl
  000cb	74 6e		 je	 SHORT $LN86@LoadString@2
  000cd	80 f2 eb	 xor	 dl, -21			; ffffffebH
  000d0	88 55 f2	 mov	 BYTE PTR __k$[ebp+10], dl
  000d3	8a 50 0b	 mov	 dl, BYTE PTR [eax+11]
  000d6	84 d2		 test	 dl, dl
  000d8	74 5b		 je	 SHORT $LN85@LoadString@2
  000da	80 f2 ea	 xor	 dl, -22			; ffffffeaH
  000dd	80 78 0c 00	 cmp	 BYTE PTR [eax+12], 0
  000e1	88 55 f3	 mov	 BYTE PTR __k$[ebp+11], dl
  000e4	0f 84 8f 00 00
	00		 je	 $LN111@LoadString@2
  000ea	8a 50 0d	 mov	 dl, BYTE PTR [eax+13]
  000ed	84 d2		 test	 dl, dl
  000ef	74 3f		 je	 SHORT $LN83@LoadString@2
  000f1	32 d1		 xor	 dl, cl
  000f3	88 55 f5	 mov	 BYTE PTR __k$[ebp+13], dl
  000f6	8a 50 0e	 mov	 dl, BYTE PTR [eax+14]
  000f9	84 d2		 test	 dl, dl
  000fb	74 2d		 je	 SHORT $LN82@LoadString@2
  000fd	80 f2 eb	 xor	 dl, -21			; ffffffebH
  00100	88 55 f6	 mov	 BYTE PTR __k$[ebp+14], dl
  00103	8a 50 0f	 mov	 dl, BYTE PTR [eax+15]
  00106	84 d2		 test	 dl, dl
  00108	74 1a		 je	 SHORT $LN81@LoadString@2
