; Listing generated by Microsoft (R) Optimizing Compiler Version 16.00.30319.01 

	TITLE	D:\Lost Saga For Developer\Youtube\Tutorial\Source\src\LSClient\ioHeadScaleBuff.cpp
	.686P
	.XMM
	include listing.inc
	.model	flat

INCLUDELIB MSVCRT
INCLUDELIB OLDNAMES

PUBLIC	?return1@@YAIXZ					; return1
; Function compile flags: /Ogsp
; File d:\lost saga for developer\youtube\tutorial\source\src\lsclient\stdafx.h
;	COMDAT ?return1@@YAIXZ
_TEXT	SEGMENT
?return1@@YAIXZ PROC					; return1, COMDAT

; 17   : 	__forceinline unsigned int return1() { __asm mov eax, 1 };

  00000	b8 01 00 00 00	 mov	 eax, 1
  00005	c3		 ret	 0
?return1@@YAIXZ ENDP					; return1
_TEXT	ENDS
PUBLIC	?GetState@ioBaseChar@@QBE?AW4CharState@@XZ	; ioBaseChar::GetState
; Function compile flags: /Ogsp
; File d:\lost saga for developer\youtube\tutorial\source\src\lsclient\iobasechar.h
;	COMDAT ?GetState@ioBaseChar@@QBE?AW4CharState@@XZ
_TEXT	SEGMENT
?GetState@ioBaseChar@@QBE?AW4CharState@@XZ PROC		; ioBaseChar::GetState, COMDAT
; _this$ = ecx

; 2156 : 	inline CharState GetState() const { return m_CharState; }	

  00000	8a 81 10 03 00
	00		 mov	 al, BYTE PTR [ecx+784]
  00006	c3		 ret	 0
?GetState@ioBaseChar@@QBE?AW4CharState@@XZ ENDP		; ioBaseChar::GetState
_TEXT	ENDS
PUBLIC	__real@4f800000
PUBLIC	??_7ioHeadScaleBuff@@6B@			; ioHeadScaleBuff::`vftable'
PUBLIC	??0ioHeadScaleBuff@@QAE@XZ			; ioHeadScaleBuff::ioHeadScaleBuff
PUBLIC	??_R4ioHeadScaleBuff@@6B@			; ioHeadScaleBuff::`RTTI Complete Object Locator'
PUBLIC	??_R0?AVioHeadScaleBuff@@@8			; ioHeadScaleBuff `RTTI Type Descriptor'
PUBLIC	??_R3ioHeadScaleBuff@@8				; ioHeadScaleBuff::`RTTI Class Hierarchy Descriptor'
PUBLIC	??_R2ioHeadScaleBuff@@8				; ioHeadScaleBuff::`RTTI Base Class Array'
PUBLIC	??_R1A@?0A@EA@ioHeadScaleBuff@@8		; ioHeadScaleBuff::`RTTI Base Class Descriptor at (0,-1,0,64)'
PUBLIC	??_R1A@?0A@EA@ioBuff@@8				; ioBuff::`RTTI Base Class Descriptor at (0,-1,0,64)'
PUBLIC	??_R0?AVioBuff@@@8				; ioBuff `RTTI Type Descriptor'
PUBLIC	??_R3ioBuff@@8					; ioBuff::`RTTI Class Hierarchy Descriptor'
PUBLIC	??_R2ioBuff@@8					; ioBuff::`RTTI Base Class Array'
PUBLIC	?LoadProperty@ioHeadScaleBuff@@UAEXAAVioINILoader@@@Z ; ioHeadScaleBuff::LoadProperty
PUBLIC	?Clone@ioHeadScaleBuff@@UAEPAVioBuff@@XZ	; ioHeadScaleBuff::Clone
PUBLIC	?StartBuff@ioHeadScaleBuff@@UAEXPAVioBaseChar@@@Z ; ioHeadScaleBuff::StartBuff
PUBLIC	?ApplyStartBuff@ioHeadScaleBuff@@UAE_NPAVioBaseChar@@KK@Z ; ioHeadScaleBuff::ApplyStartBuff
PUBLIC	?ProcessBuff@ioHeadScaleBuff@@UAEXM@Z		; ioHeadScaleBuff::ProcessBuff
PUBLIC	?EndBuff@ioHeadScaleBuff@@UAEXXZ		; ioHeadScaleBuff::EndBuff
PUBLIC	?IsWaitSelfRemove@ioBuff@@UAE_NXZ		; ioBuff::IsWaitSelfRemove
EXTRN	??0ioBuff@@QAE@XZ:PROC				; ioBuff::ioBuff
EXTRN	__fltused:DWORD
EXTRN	??_7type_info@@6B@:QWORD			; type_info::`vftable'
EXTRN	?StartBuffWithAniTime@ioBuff@@UAEXPAVioBaseChar@@K@Z:PROC ; ioBuff::StartBuffWithAniTime
EXTRN	?CancelBuff@ioBuff@@UAEXXZ:PROC			; ioBuff::CancelBuff
EXTRN	?GetBuffInfo@ioBuff@@UAEXAAVSP2Packet@@@Z:PROC	; ioBuff::GetBuffInfo
EXTRN	?ApplyBuffInfo@ioBuff@@UAEXAAVSP2Packet@@@Z:PROC ; ioBuff::ApplyBuffInfo
EXTRN	?AccumulateBuff@ioBuff@@UAEXXZ:PROC		; ioBuff::AccumulateBuff
EXTRN	?IsLiveButStopped@ioBuff@@UBE_NXZ:PROC		; ioBuff::IsLiveButStopped
EXTRN	?IsCanJumpAttack@ioBuff@@UBE_NXZ:PROC		; ioBuff::IsCanJumpAttack
EXTRN	?SetAction@ioBuff@@MAEXXZ:PROC			; ioBuff::SetAction
EXTRN	?ProcessDelay@ioBuff@@MAEXM@Z:PROC		; ioBuff::ProcessDelay
EXTRN	?SetExtraDurationByGrowth@ioBuff@@UAEXM@Z:PROC	; ioBuff::SetExtraDurationByGrowth
EXTRN	?SetWeaponIndex@ioBuff@@UAEXK@Z:PROC		; ioBuff::SetWeaponIndex
EXTRN	?OnReduceGauge@ioBuff@@UBE_NXZ:PROC		; ioBuff::OnReduceGauge
EXTRN	?IsCharCollisionSkip@ioBuff@@UBE_NXZ:PROC	; ioBuff::IsCharCollisionSkip
EXTRN	?IsCollisionAvailableWeapon@ioBuff@@UBE_NXZ:PROC ; ioBuff::IsCollisionAvailableWeapon
EXTRN	?IsProtected@ioBuff@@UBE_NXZ:PROC		; ioBuff::IsProtected
EXTRN	?UseActiveCount@ioBuff@@UBE_NXZ:PROC		; ioBuff::UseActiveCount
EXTRN	?CheckActiveCount@ioBuff@@UAEXXZ:PROC		; ioBuff::CheckActiveCount
EXTRN	?CheckRemoveEquipSkillBuff@ioBuff@@UAEX_N@Z:PROC ; ioBuff::CheckRemoveEquipSkillBuff
EXTRN	?ApplyExtraBuffInfo@ioBuff@@UAEXAAVSP2Packet@@@Z:PROC ; ioBuff::ApplyExtraBuffInfo
EXTRN	?SetBuffGrapplingState@ioBuff@@UAE_NPAVioBaseChar@@ABVioHashString@@@Z:PROC ; ioBuff::SetBuffGrapplingState
EXTRN	?GetGrapplingTargetPos@ioBuff@@UAE?AUD3DXVECTOR3@@PAVioBaseChar@@@Z:PROC ; ioBuff::GetGrapplingTargetPos
EXTRN	??_EioHeadScaleBuff@@UAEPAXI@Z:PROC		; ioHeadScaleBuff::`vector deleting destructor'
;	COMDAT ??_R2ioBuff@@8
; File d:\lost saga for developer\youtube\tutorial\source\src\lsclient\stdafx.h
rdata$r	SEGMENT
??_R2ioBuff@@8 DD FLAT:??_R1A@?0A@EA@ioBuff@@8		; ioBuff::`RTTI Base Class Array'
rdata$r	ENDS
;	COMDAT ??_R3ioBuff@@8
rdata$r	SEGMENT
??_R3ioBuff@@8 DD 00H					; ioBuff::`RTTI Class Hierarchy Descriptor'
	DD	00H
	DD	01H
	DD	FLAT:??_R2ioBuff@@8
rdata$r	ENDS
;	COMDAT ??_R0?AVioBuff@@@8
_DATA	SEGMENT
??_R0?AVioBuff@@@8 DD FLAT:??_7type_info@@6B@		; ioBuff `RTTI Type Descriptor'
	DD	00H
	DB	'.?AVioBuff@@', 00H
_DATA	ENDS
;	COMDAT ??_R1A@?0A@EA@ioBuff@@8
rdata$r	SEGMENT
??_R1A@?0A@EA@ioBuff@@8 DD FLAT:??_R0?AVioBuff@@@8	; ioBuff::`RTTI Base Class Descriptor at (0,-1,0,64)'
	DD	00H
	DD	00H
	DD	0ffffffffH
	DD	00H
	DD	040H
	DD	FLAT:??_R3ioBuff@@8
rdata$r	ENDS
;	COMDAT ??_R1A@?0A@EA@ioHeadScaleBuff@@8
rdata$r	SEGMENT
??_R1A@?0A@EA@ioHeadScaleBuff@@8 DD FLAT:??_R0?AVioHeadScaleBuff@@@8 ; ioHeadScaleBuff::`RTTI Base Class Descriptor at (0,-1,0,64)'
	DD	01H
	DD	00H
	DD	0ffffffffH
	DD	00H
	DD	040H
	DD	FLAT:??_R3ioHeadScaleBuff@@8
rdata$r	ENDS
;	COMDAT ??_R2ioHeadScaleBuff@@8
rdata$r	SEGMENT
??_R2ioHeadScaleBuff@@8 DD FLAT:??_R1A@?0A@EA@ioHeadScaleBuff@@8 ; ioHeadScaleBuff::`RTTI Base Class Array'
	DD	FLAT:??_R1A@?0A@EA@ioBuff@@8
rdata$r	ENDS
;	COMDAT ??_R3ioHeadScaleBuff@@8
rdata$r	SEGMENT
??_R3ioHeadScaleBuff@@8 DD 00H				; ioHeadScaleBuff::`RTTI Class Hierarchy Descriptor'
	DD	00H
	DD	02H
	DD	FLAT:??_R2ioHeadScaleBuff@@8
rdata$r	ENDS
;	COMDAT ??_R0?AVioHeadScaleBuff@@@8
_DATA	SEGMENT
??_R0?AVioHeadScaleBuff@@@8 DD FLAT:??_7type_info@@6B@	; ioHeadScaleBuff `RTTI Type Descriptor'
	DD	00H
	DB	'.?AVioHeadScaleBuff@@', 00H
_DATA	ENDS
;	COMDAT ??_R4ioHeadScaleBuff@@6B@
rdata$r	SEGMENT
??_R4ioHeadScaleBuff@@6B@ DD 00H			; ioHeadScaleBuff::`RTTI Complete Object Locator'
	DD	00H
	DD	00H
	DD	FLAT:??_R0?AVioHeadScaleBuff@@@8
	DD	FLAT:??_R3ioHeadScaleBuff@@8
rdata$r	ENDS
;	COMDAT __real@4f800000
CONST	SEGMENT
__real@4f800000 DD 04f800000r			; 4.29497e+009
CONST	ENDS
;	COMDAT ??_7ioHeadScaleBuff@@6B@
CONST	SEGMENT
??_7ioHeadScaleBuff@@6B@ DD FLAT:??_R4ioHeadScaleBuff@@6B@ ; ioHeadScaleBuff::`vftable'
	DD	FLAT:?LoadProperty@ioHeadScaleBuff@@UAEXAAVioINILoader@@@Z
	DD	FLAT:?Clone@ioHeadScaleBuff@@UAEPAVioBuff@@XZ
	DD	FLAT:?StartBuff@ioHeadScaleBuff@@UAEXPAVioBaseChar@@@Z
	DD	FLAT:?StartBuffWithAniTime@ioBuff@@UAEXPAVioBaseChar@@K@Z
	DD	FLAT:?ApplyStartBuff@ioHeadScaleBuff@@UAE_NPAVioBaseChar@@KK@Z
	DD	FLAT:?ProcessBuff@ioHeadScaleBuff@@UAEXM@Z
	DD	FLAT:?EndBuff@ioHeadScaleBuff@@UAEXXZ
	DD	FLAT:?CancelBuff@ioBuff@@UAEXXZ
	DD	FLAT:?GetBuffInfo@ioBuff@@UAEXAAVSP2Packet@@@Z
	DD	FLAT:?ApplyBuffInfo@ioBuff@@UAEXAAVSP2Packet@@@Z
	DD	FLAT:?AccumulateBuff@ioBuff@@UAEXXZ
	DD	FLAT:?IsLiveButStopped@ioBuff@@UBE_NXZ
	DD	FLAT:?IsCanJumpAttack@ioBuff@@UBE_NXZ
	DD	FLAT:?SetAction@ioBuff@@MAEXXZ
	DD	FLAT:?ProcessDelay@ioBuff@@MAEXM@Z
	DD	FLAT:?SetExtraDurationByGrowth@ioBuff@@UAEXM@Z
	DD	FLAT:?SetWeaponIndex@ioBuff@@UAEXK@Z
	DD	FLAT:?OnReduceGauge@ioBuff@@UBE_NXZ
	DD	FLAT:?IsCharCollisionSkip@ioBuff@@UBE_NXZ
	DD	FLAT:?IsCollisionAvailableWeapon@ioBuff@@UBE_NXZ
	DD	FLAT:?IsProtected@ioBuff@@UBE_NXZ
	DD	FLAT:?UseActiveCount@ioBuff@@UBE_NXZ
	DD	FLAT:?CheckActiveCount@ioBuff@@UAEXXZ
	DD	FLAT:?CheckRemoveEquipSkillBuff@ioBuff@@UAEX_N@Z
	DD	FLAT:?ApplyExtraBuffInfo@ioBuff@@UAEXAAVSP2Packet@@@Z
	DD	FLAT:?SetBuffGrapplingState@ioBuff@@UAE_NPAVioBaseChar@@ABVioHashString@@@Z
	DD	FLAT:?GetGrapplingTargetPos@ioBuff@@UAE?AUD3DXVECTOR3@@PAVioBaseChar@@@Z
	DD	FLAT:?IsWaitSelfRemove@ioBuff@@UAE_NXZ
	DD	FLAT:??_EioHeadScaleBuff@@UAEPAXI@Z
; Function compile flags: /Ogsp
; File d:\lost saga for developer\youtube\tutorial\source\src\lsclient\ioheadscalebuff.cpp
CONST	ENDS
;	COMDAT ??0ioHeadScaleBuff@@QAE@XZ
_TEXT	SEGMENT
tv135 = -4						; size = 4
??0ioHeadScaleBuff@@QAE@XZ PROC				; ioHeadScaleBuff::ioHeadScaleBuff, COMDAT
; _this$ = ecx

; 10   : {

  00000	55		 push	 ebp
  00001	8b ec		 mov	 ebp, esp
  00003	51		 push	 ecx
  00004	56		 push	 esi
  00005	8b f1		 mov	 esi, ecx
  00007	e8 00 00 00 00	 call	 ??0ioBuff@@QAE@XZ	; ioBuff::ioBuff
  0000c	c7 06 00 00 00
	00		 mov	 DWORD PTR [esi], OFFSET ??_7ioHeadScaleBuff@@6B@

; 11   : 	m_fCurScaleRate = FLOAT1;

  00012	b8 01 00 00 00	 mov	 eax, 1
  00017	89 45 fc	 mov	 DWORD PTR tv135[ebp], eax
  0001a	db 45 fc	 fild	 DWORD PTR tv135[ebp]
  0001d	85 c0		 test	 eax, eax
  0001f	79 06		 jns	 SHORT $LN6@ioHeadScal
  00021	d8 05 00 00 00
	00		 fadd	 DWORD PTR __real@4f800000
$LN6@ioHeadScal:
  00027	d9 9e 6c 09 00
	00		 fstp	 DWORD PTR [esi+2412]

; 12   : 	m_bRemoveBuffByDrop = false;

  0002d	c6 86 74 09 00
	00 00		 mov	 BYTE PTR [esi+2420], 0

; 13   : }

  00034	8b c6		 mov	 eax, esi
  00036	5e		 pop	 esi
  00037	c9		 leave
  00038	c3		 ret	 0
??0ioHeadScaleBuff@@QAE@XZ ENDP				; ioHeadScaleBuff::ioHeadScaleBuff
_TEXT	ENDS
PUBLIC	??0ioHeadScaleBuff@@QAE@ABV0@@Z			; ioHeadScaleBuff::ioHeadScaleBuff
EXTRN	??0ioBuff@@QAE@ABV0@@Z:PROC			; ioBuff::ioBuff
; Function compile flags: /Ogsp
;	COMDAT ??0ioHeadScaleBuff@@QAE@ABV0@@Z
_TEXT	SEGMENT
tv175 = 8						; size = 4
_rhs$ = 8						; size = 4
??0ioHeadScaleBuff@@QAE@ABV0@@Z PROC			; ioHeadScaleBuff::ioHeadScaleBuff, COMDAT
; _this$ = ecx

; 19   : {

  00000	55		 push	 ebp
  00001	8b ec		 mov	 ebp, esp
  00003	56		 push	 esi
  00004	57		 push	 edi
  00005	8b 7d 08	 mov	 edi, DWORD PTR _rhs$[ebp]
  00008	57		 push	 edi
  00009	8b f1		 mov	 esi, ecx
  0000b	e8 00 00 00 00	 call	 ??0ioBuff@@QAE@ABV0@@Z	; ioBuff::ioBuff
  00010	c7 06 00 00 00
	00		 mov	 DWORD PTR [esi], OFFSET ??_7ioHeadScaleBuff@@6B@
  00016	d9 87 70 09 00
	00		 fld	 DWORD PTR [edi+2416]
  0001c	d9 9e 70 09 00
	00		 fstp	 DWORD PTR [esi+2416]
  00022	8a 87 74 09 00
	00		 mov	 al, BYTE PTR [edi+2420]
  00028	88 86 74 09 00
	00		 mov	 BYTE PTR [esi+2420], al

; 20   : 	m_fCurScaleRate = FLOAT1;

  0002e	b8 01 00 00 00	 mov	 eax, 1
  00033	89 45 08	 mov	 DWORD PTR tv175[ebp], eax
  00036	db 45 08	 fild	 DWORD PTR tv175[ebp]
  00039	85 c0		 test	 eax, eax
  0003b	79 06		 jns	 SHORT $LN6@ioHeadScal@2
  0003d	d8 05 00 00 00
	00		 fadd	 DWORD PTR __real@4f800000
$LN6@ioHeadScal@2:
  00043	5f		 pop	 edi
  00044	d9 9e 6c 09 00
	00		 fstp	 DWORD PTR [esi+2412]

; 21   : }

  0004a	8b c6		 mov	 eax, esi
  0004c	5e		 pop	 esi
  0004d	5d		 pop	 ebp
  0004e	c2 04 00	 ret	 4
??0ioHeadScaleBuff@@QAE@ABV0@@Z ENDP			; ioHeadScaleBuff::ioHeadScaleBuff
_TEXT	ENDS
PUBLIC	??1ioHeadScaleBuff@@UAE@XZ			; ioHeadScaleBuff::~ioHeadScaleBuff
EXTRN	??1ioBuff@@UAE@XZ:PROC				; ioBuff::~ioBuff
; Function compile flags: /Ogsp
;	COMDAT ??1ioHeadScaleBuff@@UAE@XZ
_TEXT	SEGMENT
??1ioHeadScaleBuff@@UAE@XZ PROC				; ioHeadScaleBuff::~ioHeadScaleBuff, COMDAT
; _this$ = ecx

; 24   : {

  00000	c7 01 00 00 00
	00		 mov	 DWORD PTR [ecx], OFFSET ??_7ioHeadScaleBuff@@6B@

; 25   : }

  00006	e9 00 00 00 00	 jmp	 ??1ioBuff@@UAE@XZ	; ioBuff::~ioBuff
??1ioHeadScaleBuff@@UAE@XZ ENDP				; ioHeadScaleBuff::~ioHeadScaleBuff
_TEXT	ENDS
EXTRN	??3@YAXPAX@Z:PROC				; operator delete
EXTRN	??2@YAPAXI@Z:PROC				; operator new
EXTRN	___CxxFrameHandler3:PROC
EXTRN	@__security_check_cookie@4:PROC
EXTRN	__EH_epilog3:PROC
EXTRN	__EH_prolog3:PROC
;	COMDAT xdata$x
xdata$x	SEGMENT
__unwindtable$?Clone@ioHeadScaleBuff@@UAEPAVioBuff@@XZ DD 0ffffffffH
	DD	FLAT:__unwindfunclet$?Clone@ioHeadScaleBuff@@UAEPAVioBuff@@XZ$0
__ehfuncinfo$?Clone@ioHeadScaleBuff@@UAEPAVioBuff@@XZ DD 019930522H
	DD	01H
	DD	FLAT:__unwindtable$?Clone@ioHeadScaleBuff@@UAEPAVioBuff@@XZ
	DD	2 DUP(00H)
	DD	2 DUP(00H)
	DD	00H
	DD	01H
; Function compile flags: /Ogsp
xdata$x	ENDS
;	COMDAT ?Clone@ioHeadScaleBuff@@UAEPAVioBuff@@XZ
_TEXT	SEGMENT
$T524418 = -16						; size = 4
__$EHRec$ = -12						; size = 12
?Clone@ioHeadScaleBuff@@UAEPAVioBuff@@XZ PROC		; ioHeadScaleBuff::Clone, COMDAT
; _this$ = ecx

; 37   : {

  00000	6a 04		 push	 4
  00002	b8 00 00 00 00	 mov	 eax, __ehhandler$?Clone@ioHeadScaleBuff@@UAEPAVioBuff@@XZ
  00007	e8 00 00 00 00	 call	 __EH_prolog3
  0000c	8b f1		 mov	 esi, ecx

; 38   : 	return new ioHeadScaleBuff( *this );

  0000e	68 78 09 00 00	 push	 2424			; 00000978H
  00013	e8 00 00 00 00	 call	 ??2@YAPAXI@Z		; operator new
  00018	59		 pop	 ecx
  00019	8b c8		 mov	 ecx, eax
  0001b	89 4d f0	 mov	 DWORD PTR $T524418[ebp], ecx
  0001e	33 c0		 xor	 eax, eax
  00020	89 45 fc	 mov	 DWORD PTR __$EHRec$[ebp+8], eax
  00023	3b c8		 cmp	 ecx, eax
  00025	74 06		 je	 SHORT $LN3@Clone
  00027	56		 push	 esi
  00028	e8 00 00 00 00	 call	 ??0ioHeadScaleBuff@@QAE@ABV0@@Z ; ioHeadScaleBuff::ioHeadScaleBuff
$LN3@Clone:

; 39   : }

  0002d	e8 00 00 00 00	 call	 __EH_epilog3
  00032	c3		 ret	 0
_TEXT	ENDS
;	COMDAT text$x
text$x	SEGMENT
__unwindfunclet$?Clone@ioHeadScaleBuff@@UAEPAVioBuff@@XZ$0:
  00000	ff 75 f0	 push	 DWORD PTR $T524418[ebp]
  00003	e8 00 00 00 00	 call	 ??3@YAXPAX@Z		; operator delete
  00008	59		 pop	 ecx
  00009	c3		 ret	 0
__ehhandler$?Clone@ioHeadScaleBuff@@UAEPAVioBuff@@XZ:
  0000a	8b 54 24 08	 mov	 edx, DWORD PTR [esp+8]
  0000e	8d 42 0c	 lea	 eax, DWORD PTR [edx+12]
  00011	8b 4a ec	 mov	 ecx, DWORD PTR [edx-20]
  00014	33 c8		 xor	 ecx, eax
  00016	e8 00 00 00 00	 call	 @__security_check_cookie@4
  0001b	b8 00 00 00 00	 mov	 eax, OFFSET __ehfuncinfo$?Clone@ioHeadScaleBuff@@UAEPAVioBuff@@XZ
  00020	e9 00 00 00 00	 jmp	 ___CxxFrameHandler3
text$x	ENDS
?Clone@ioHeadScaleBuff@@UAEPAVioBuff@@XZ ENDP		; ioHeadScaleBuff::Clone
EXTRN	?SetHeadScaleRate@ioBaseChar@@QAEXAAM@Z:PROC	; ioBaseChar::SetHeadScaleRate
EXTRN	?StartBuff@ioBuff@@UAEXPAVioBaseChar@@@Z:PROC	; ioBuff::StartBuff
; Function compile flags: /Ogsp
;	COMDAT ?StartBuff@ioHeadScaleBuff@@UAEXPAVioBaseChar@@@Z
_TEXT	SEGMENT
_pOwner$ = 8						; size = 4
?StartBuff@ioHeadScaleBuff@@UAEXPAVioBaseChar@@@Z PROC	; ioHeadScaleBuff::StartBuff, COMDAT
; _this$ = ecx

; 42   : {

  00000	55		 push	 ebp
  00001	8b ec		 mov	 ebp, esp
  00003	56		 push	 esi

; 43   : 	ioBuff::StartBuff( pOwner );

  00004	ff 75 08	 push	 DWORD PTR _pOwner$[ebp]
  00007	8b f1		 mov	 esi, ecx
  00009	e8 00 00 00 00	 call	 ?StartBuff@ioBuff@@UAEXPAVioBaseChar@@@Z ; ioBuff::StartBuff

; 44   : 
; 45   : 	m_fCurScaleRate = m_fScaleRate;

  0000e	d9 86 70 09 00
	00		 fld	 DWORD PTR [esi+2416]

; 46   : 	pOwner->SetHeadScaleRate( m_fCurScaleRate );

  00014	8b 4d 08	 mov	 ecx, DWORD PTR _pOwner$[ebp]
  00017	8d 86 6c 09 00
	00		 lea	 eax, DWORD PTR [esi+2412]
  0001d	50		 push	 eax
  0001e	d9 18		 fstp	 DWORD PTR [eax]
  00020	e8 00 00 00 00	 call	 ?SetHeadScaleRate@ioBaseChar@@QAEXAAM@Z ; ioBaseChar::SetHeadScaleRate
  00025	5e		 pop	 esi

; 47   : }

  00026	5d		 pop	 ebp
  00027	c2 04 00	 ret	 4
?StartBuff@ioHeadScaleBuff@@UAEXPAVioBaseChar@@@Z ENDP	; ioHeadScaleBuff::StartBuff
_TEXT	ENDS
EXTRN	?ApplyStartBuff@ioBuff@@UAE_NPAVioBaseChar@@KK@Z:PROC ; ioBuff::ApplyStartBuff
; Function compile flags: /Ogsp
;	COMDAT ?ApplyStartBuff@ioHeadScaleBuff@@UAE_NPAVioBaseChar@@KK@Z
_TEXT	SEGMENT
_pOwner$ = 8						; size = 4
_dwGlobalTime$ = 12					; size = 4
_dwGapTime$ = 16					; size = 4
?ApplyStartBuff@ioHeadScaleBuff@@UAE_NPAVioBaseChar@@KK@Z PROC ; ioHeadScaleBuff::ApplyStartBuff, COMDAT
; _this$ = ecx

; 50   : {

  00000	55		 push	 ebp
  00001	8b ec		 mov	 ebp, esp
  00003	56		 push	 esi

; 51   : 	if( !ioBuff::ApplyStartBuff( pOwner, dwGlobalTime, dwGapTime ) )

  00004	ff 75 10	 push	 DWORD PTR _dwGapTime$[ebp]
  00007	8b f1		 mov	 esi, ecx
  00009	ff 75 0c	 push	 DWORD PTR _dwGlobalTime$[ebp]
  0000c	ff 75 08	 push	 DWORD PTR _pOwner$[ebp]
  0000f	e8 00 00 00 00	 call	 ?ApplyStartBuff@ioBuff@@UAE_NPAVioBaseChar@@KK@Z ; ioBuff::ApplyStartBuff
  00014	84 c0		 test	 al, al
  00016	74 19		 je	 SHORT $LN2@ApplyStart
$LN1@ApplyStart:

; 52   : 		return false;
; 53   : 
; 54   : 	m_fCurScaleRate = m_fScaleRate;

  00018	d9 86 70 09 00
	00		 fld	 DWORD PTR [esi+2416]

; 55   : 	pOwner->SetHeadScaleRate( m_fCurScaleRate );

  0001e	8b 4d 08	 mov	 ecx, DWORD PTR _pOwner$[ebp]
  00021	8d 86 6c 09 00
	00		 lea	 eax, DWORD PTR [esi+2412]
  00027	50		 push	 eax
  00028	d9 18		 fstp	 DWORD PTR [eax]
  0002a	e8 00 00 00 00	 call	 ?SetHeadScaleRate@ioBaseChar@@QAEXAAM@Z ; ioBaseChar::SetHeadScaleRate

; 56   : 
; 57   : 	return true;

  0002f	b0 01		 mov	 al, 1
$LN2@ApplyStart:
  00031	5e		 pop	 esi

; 58   : }

  00032	5d		 pop	 ebp
  00033	c2 0c 00	 ret	 12			; 0000000cH
?ApplyStartBuff@ioHeadScaleBuff@@UAE_NPAVioBaseChar@@KK@Z ENDP ; ioHeadScaleBuff::ApplyStartBuff
_TEXT	ENDS
EXTRN	?CheckCallingAreaWeapon@ioBuff@@IAEXXZ:PROC	; ioBuff::CheckCallingAreaWeapon
EXTRN	?ProcessBuff@ioBuff@@UAEXM@Z:PROC		; ioBuff::ProcessBuff
EXTRN	?SetReserveEndBuff@ioBuff@@QAEXXZ:PROC		; ioBuff::SetReserveEndBuff
; Function compile flags: /Ogsp
;	COMDAT ?ProcessBuff@ioHeadScaleBuff@@UAEXM@Z
_TEXT	SEGMENT
_fTimePerSec$ = 8					; size = 4
?ProcessBuff@ioHeadScaleBuff@@UAEXM@Z PROC		; ioHeadScaleBuff::ProcessBuff, COMDAT
; _this$ = ecx

; 61   : {

  00000	55		 push	 ebp
  00001	8b ec		 mov	 ebp, esp

; 62   : 	if( m_bRemoveBuffByDrop && m_pOwner->GetState() == CS_DROP_ZONE_DOWN  )

  00003	80 b9 74 09 00
	00 00		 cmp	 BYTE PTR [ecx+2420], 0
  0000a	74 16		 je	 SHORT $LN6@ProcessBuf
  0000c	8b 81 74 02 00
	00		 mov	 eax, DWORD PTR [ecx+628]
  00012	80 b8 10 03 00
	00 10		 cmp	 BYTE PTR [eax+784], 16	; 00000010H
  00019	75 07		 jne	 SHORT $LN6@ProcessBuf

; 63   : 	{
; 64   : 		SetReserveEndBuff();

  0001b	e8 00 00 00 00	 call	 ?SetReserveEndBuff@ioBuff@@QAEXXZ ; ioBuff::SetReserveEndBuff

; 65   : 		return;

  00020	eb 29		 jmp	 SHORT $LN4@ProcessBuf
$LN6@ProcessBuf:

; 66   : 	}
; 67   : 
; 68   : 	switch( m_iOperationType )

  00022	8b 81 d0 03 00
	00		 mov	 eax, DWORD PTR [ecx+976]
  00028	83 e8 00	 sub	 eax, 0
  0002b	74 19		 je	 SHORT $LN1@ProcessBuf
  0002d	48		 dec	 eax
  0002e	74 04		 je	 SHORT $LN2@ProcessBuf
  00030	48		 dec	 eax
  00031	48		 dec	 eax
  00032	75 17		 jne	 SHORT $LN4@ProcessBuf
$LN2@ProcessBuf:

; 69   : 	{
; 70   : 	case OT_SWITCH:
; 71   : 		break;
; 72   : 	case OT_DELAY:
; 73   : 	case OT_ACTIVE:
; 74   : 		ioBuff::ProcessBuff( fTimePerSec );

  00034	f3 0f 10 45 08	 movss	 xmm0, DWORD PTR _fTimePerSec$[ebp]
  00039	51		 push	 ecx
  0003a	f3 0f 11 04 24	 movss	 DWORD PTR [esp], xmm0
  0003f	e8 00 00 00 00	 call	 ?ProcessBuff@ioBuff@@UAEXM@Z ; ioBuff::ProcessBuff

; 75   : 		break;

  00044	eb 05		 jmp	 SHORT $LN4@ProcessBuf
$LN1@ProcessBuf:

; 76   : 	case OT_PASSIVE:
; 77   : 		CheckCallingAreaWeapon();

  00046	e8 00 00 00 00	 call	 ?CheckCallingAreaWeapon@ioBuff@@IAEXXZ ; ioBuff::CheckCallingAreaWeapon
$LN4@ProcessBuf:

; 78   : 		break;
; 79   : 	}
; 80   : }

  0004b	5d		 pop	 ebp
  0004c	c2 04 00	 ret	 4
?ProcessBuff@ioHeadScaleBuff@@UAEXM@Z ENDP		; ioHeadScaleBuff::ProcessBuff
_TEXT	ENDS
EXTRN	?EndBuff@ioBuff@@UAEXXZ:PROC			; ioBuff::EndBuff
EXTRN	?RemoveHeadScaleRate@ioBaseChar@@QAEXM@Z:PROC	; ioBaseChar::RemoveHeadScaleRate
; Function compile flags: /Ogsp
;	COMDAT ?EndBuff@ioHeadScaleBuff@@UAEXXZ
_TEXT	SEGMENT
?EndBuff@ioHeadScaleBuff@@UAEXXZ PROC			; ioHeadScaleBuff::EndBuff, COMDAT
; _this$ = ecx

; 83   : {

  00000	56		 push	 esi
  00001	8b f1		 mov	 esi, ecx

; 84   : 	m_pOwner->RemoveHeadScaleRate( m_fCurScaleRate );

  00003	f3 0f 10 86 6c
	09 00 00	 movss	 xmm0, DWORD PTR [esi+2412]
  0000b	51		 push	 ecx
  0000c	8b 8e 74 02 00
	00		 mov	 ecx, DWORD PTR [esi+628]
  00012	f3 0f 11 04 24	 movss	 DWORD PTR [esp], xmm0
  00017	e8 00 00 00 00	 call	 ?RemoveHeadScaleRate@ioBaseChar@@QAEXM@Z ; ioBaseChar::RemoveHeadScaleRate

; 85   : 
; 86   : 	ioBuff::EndBuff();

  0001c	8b ce		 mov	 ecx, esi
  0001e	5e		 pop	 esi
  0001f	e9 00 00 00 00	 jmp	 ?EndBuff@ioBuff@@UAEXXZ	; ioBuff::EndBuff
?EndBuff@ioHeadScaleBuff@@UAEXXZ ENDP			; ioHeadScaleBuff::EndBuff
_TEXT	ENDS
PUBLIC	?_DECSTR@@YAXPADH@Z				; _DECSTR
; Function compile flags: /Ogsp
; File d:\lost saga for developer\youtube\tutorial\source\src\lsclient\stringprotect.h
;	COMDAT ?_DECSTR@@YAXPADH@Z
_TEXT	SEGMENT
_s$ = 8							; size = 4
_l$ = 12						; size = 4
?_DECSTR@@YAXPADH@Z PROC				; _DECSTR, COMDAT

; 40   : __forceinline void _DECSTR(char* s, int l){int i=0,l4=(l-1)/4,*p=(int*)s;s[l-1]=0;for(;i<l4;++i)*(p++)^=0xEAEBECED;for(i=l4*4;i<l-1;++i)s[i]^=0xED-i%4;}

  00000	55		 push	 ebp
  00001	8b ec		 mov	 ebp, esp
  00003	8b 4d 0c	 mov	 ecx, DWORD PTR _l$[ebp]
  00006	56		 push	 esi
  00007	8b 75 08	 mov	 esi, DWORD PTR _s$[ebp]
  0000a	57		 push	 edi
  0000b	8d 79 ff	 lea	 edi, DWORD PTR [ecx-1]
  0000e	8b c7		 mov	 eax, edi
  00010	99		 cdq
  00011	83 e2 03	 and	 edx, 3
  00014	03 c2		 add	 eax, edx
  00016	c1 f8 02	 sar	 eax, 2
  00019	8b d6		 mov	 edx, esi
  0001b	c6 44 0e ff 00	 mov	 BYTE PTR [esi+ecx-1], 0
  00020	85 c0		 test	 eax, eax
  00022	7e 0e		 jle	 SHORT $LN4@DECSTR
  00024	8b c8		 mov	 ecx, eax
$LL6@DECSTR:
  00026	81 32 ed ec eb
	ea		 xor	 DWORD PTR [edx], -353637139 ; eaebecedH
  0002c	83 c2 04	 add	 edx, 4
  0002f	49		 dec	 ecx
  00030	75 f4		 jne	 SHORT $LL6@DECSTR
$LN4@DECSTR:
  00032	c1 e0 02	 shl	 eax, 2
  00035	eb 17		 jmp	 SHORT $LN14@DECSTR
$LL3@DECSTR:
  00037	8b c8		 mov	 ecx, eax
  00039	81 e1 03 00 00
	80		 and	 ecx, -2147483645	; 80000003H
  0003f	79 05		 jns	 SHORT $LN13@DECSTR
  00041	49		 dec	 ecx
  00042	83 c9 fc	 or	 ecx, -4			; fffffffcH
  00045	41		 inc	 ecx
$LN13@DECSTR:
  00046	b2 ed		 mov	 dl, -19			; ffffffedH
  00048	2a d1		 sub	 dl, cl
  0004a	30 14 30	 xor	 BYTE PTR [eax+esi], dl
  0004d	40		 inc	 eax
$LN14@DECSTR:
  0004e	3b c7		 cmp	 eax, edi
  00050	7c e5		 jl	 SHORT $LL3@DECSTR
  00052	5f		 pop	 edi
  00053	5e		 pop	 esi
  00054	5d		 pop	 ebp
  00055	c3		 ret	 0
?_DECSTR@@YAXPADH@Z ENDP				; _DECSTR
; Function compile flags: /Ogsp
; File d:\lost saga for developer\youtube\tutorial\source\src\lsclient\iobuff.h
_TEXT	ENDS
;	COMDAT ?IsWaitSelfRemove@ioBuff@@UAE_NXZ
_TEXT	SEGMENT
?IsWaitSelfRemove@ioBuff@@UAE_NXZ PROC			; ioBuff::IsWaitSelfRemove, COMDAT
; _this$ = ecx

; 519  : 	virtual bool IsWaitSelfRemove() { return m_bWaitSelfRemove; }

  00000	8a 81 65 09 00
	00		 mov	 al, BYTE PTR [ecx+2405]
  00006	c3		 ret	 0
?IsWaitSelfRemove@ioBuff@@UAE_NXZ ENDP			; ioBuff::IsWaitSelfRemove
; Function compile flags: /Ogsp
_TEXT	ENDS
;	COMDAT ??_GioHeadScaleBuff@@UAEPAXI@Z
_TEXT	SEGMENT
___flags$ = 8						; size = 4
??_GioHeadScaleBuff@@UAEPAXI@Z PROC			; ioHeadScaleBuff::`scalar deleting destructor', COMDAT
; _this$ = ecx
  00000	55		 push	 ebp
  00001	8b ec		 mov	 ebp, esp
  00003	56		 push	 esi
  00004	8b f1		 mov	 esi, ecx
  00006	c7 06 00 00 00
	00		 mov	 DWORD PTR [esi], OFFSET ??_7ioHeadScaleBuff@@6B@
  0000c	e8 00 00 00 00	 call	 ??1ioBuff@@UAE@XZ	; ioBuff::~ioBuff
  00011	f6 45 08 01	 test	 BYTE PTR ___flags$[ebp], 1
  00015	74 07		 je	 SHORT $LN1@scalar
  00017	56		 push	 esi
  00018	e8 00 00 00 00	 call	 ??3@YAXPAX@Z		; operator delete
  0001d	59		 pop	 ecx
$LN1@scalar:
  0001e	8b c6		 mov	 eax, esi
  00020	5e		 pop	 esi
  00021	5d		 pop	 ebp
  00022	c2 04 00	 ret	 4
??_GioHeadScaleBuff@@UAEPAXI@Z ENDP			; ioHeadScaleBuff::`scalar deleting destructor'
_TEXT	ENDS
PUBLIC	__$ArrayPad$
PUBLIC	??$LoadFloat_e@$0L@@ioINILoader@@QAEMAAY0L@$$CBDM@Z ; ioINILoader::LoadFloat_e<11>
EXTRN	__imp_?LoadFloat@ioINILoader@@QAEMPBDM@Z:PROC
EXTRN	___security_cookie:DWORD
; Function compile flags: /Ogsp
; File d:\lost saga for developer\youtube\tutorial\source\src\io3dengine\ioiniloader.h
;	COMDAT ??$LoadFloat_e@$0L@@ioINILoader@@QAEMAAY0L@$$CBDM@Z
_TEXT	SEGMENT
__k$ = -20						; size = 11
__$ArrayPad$ = -4					; size = 4
_k$ = 8							; size = 4
_f$ = 12						; size = 4
??$LoadFloat_e@$0L@@ioINILoader@@QAEMAAY0L@$$CBDM@Z PROC ; ioINILoader::LoadFloat_e<11>, COMDAT
; _this$ = ecx

; 135  : 	{

  00000	55		 push	 ebp
  00001	8b ec		 mov	 ebp, esp
  00003	83 ec 14	 sub	 esp, 20			; 00000014H
  00006	a1 00 00 00 00	 mov	 eax, DWORD PTR ___security_cookie
  0000b	33 c5		 xor	 eax, ebp
  0000d	89 45 fc	 mov	 DWORD PTR __$ArrayPad$[ebp], eax
  00010	8b 45 08	 mov	 eax, DWORD PTR _k$[ebp]

; 136  : 		_ENCSTR(k, _k);

  00013	8a 10		 mov	 dl, BYTE PTR [eax]
  00015	56		 push	 esi
  00016	8b f1		 mov	 esi, ecx
  00018	84 d2		 test	 dl, dl
  0001a	0f 84 24 01 00
	00		 je	 $LN96@LoadFloat_
  00020	80 f2 ed	 xor	 dl, -19			; ffffffedH
  00023	88 55 ec	 mov	 BYTE PTR __k$[ebp], dl
  00026	8a 50 01	 mov	 dl, BYTE PTR [eax+1]
  00029	84 d2		 test	 dl, dl
  0002b	0f 84 0d 01 00
	00		 je	 $LN95@LoadFloat_
  00031	80 f2 ec	 xor	 dl, -20			; ffffffecH
  00034	88 55 ed	 mov	 BYTE PTR __k$[ebp+1], dl
  00037	8a 50 02	 mov	 dl, BYTE PTR [eax+2]
  0003a	84 d2		 test	 dl, dl
  0003c	0f 84 f6 00 00
	00		 je	 $LN94@LoadFloat_
  00042	80 f2 eb	 xor	 dl, -21			; ffffffebH
  00045	88 55 ee	 mov	 BYTE PTR __k$[ebp+2], dl
  00048	8a 50 03	 mov	 dl, BYTE PTR [eax+3]
  0004b	84 d2		 test	 dl, dl
  0004d	0f 84 df 00 00
	00		 je	 $LN93@LoadFloat_
  00053	80 f2 ea	 xor	 dl, -22			; ffffffeaH
  00056	88 55 ef	 mov	 BYTE PTR __k$[ebp+3], dl
  00059	8a 50 04	 mov	 dl, BYTE PTR [eax+4]
  0005c	84 d2		 test	 dl, dl
  0005e	0f 84 c8 00 00
	00		 je	 $LN92@LoadFloat_
  00064	80 f2 ed	 xor	 dl, -19			; ffffffedH
  00067	88 55 f0	 mov	 BYTE PTR __k$[ebp+4], dl
  0006a	8a 50 05	 mov	 dl, BYTE PTR [eax+5]
  0006d	84 d2		 test	 dl, dl
  0006f	0f 84 b1 00 00
	00		 je	 $LN91@LoadFloat_
  00075	80 f2 ec	 xor	 dl, -20			; ffffffecH
  00078	88 55 f1	 mov	 BYTE PTR __k$[ebp+5], dl
  0007b	8a 50 06	 mov	 dl, BYTE PTR [eax+6]
  0007e	84 d2		 test	 dl, dl
  00080	0f 84 9a 00 00
	00		 je	 $LN90@LoadFloat_
  00086	80 f2 eb	 xor	 dl, -21			; ffffffebH
  00089	88 55 f2	 mov	 BYTE PTR __k$[ebp+6], dl
  0008c	8a 50 07	 mov	 dl, BYTE PTR [eax+7]
  0008f	84 d2		 test	 dl, dl
  00091	0f 84 83 00 00
	00		 je	 $LN89@LoadFloat_
  00097	80 f2 ea	 xor	 dl, -22			; ffffffeaH
  0009a	88 55 f3	 mov	 BYTE PTR __k$[ebp+7], dl
  0009d	8a 50 08	 mov	 dl, BYTE PTR [eax+8]
  000a0	84 d2		 test	 dl, dl
  000a2	74 70		 je	 SHORT $LN88@LoadFloat_
  000a4	80 f2 ed	 xor	 dl, -19			; ffffffedH
  000a7	88 55 f4	 mov	 BYTE PTR __k$[ebp+8], dl
  000aa	8a 50 09	 mov	 dl, BYTE PTR [eax+9]
  000ad	84 d2		 test	 dl, dl
  000af	74 5d		 je	 SHORT $LN87@LoadFloat_
  000b1	80 f2 ec	 xor	 dl, -20			; ffffffecH
  000b4	80 78 0a 00	 cmp	 BYTE PTR [eax+10], 0
  000b8	88 55 f5	 mov	 BYTE PTR __k$[ebp+9], dl
  000bb	0f 84 87 00 00
	00		 je	 $LN1@LoadFloat_
  000c1	8a 50 0b	 mov	 dl, BYTE PTR [eax+11]
  000c4	84 d2		 test	 dl, dl
  000c6	74 40		 je	 SHORT $LN85@LoadFloat_
  000c8	80 f2 ea	 xor	 dl, -22			; ffffffeaH
  000cb	88 55 f7	 mov	 BYTE PTR __k$[ebp+11], dl
  000ce	8a 50 0c	 mov	 dl, BYTE PTR [eax+12]
  000d1	84 d2		 test	 dl, dl
  000d3	74 2d		 je	 SHORT $LN84@LoadFloat_
  000d5	80 f2 ed	 xor	 dl, -19			; ffffffedH
  000d8	88 55 f8	 mov	 BYTE PTR __k$[ebp+12], dl
  000db	8a 50 0d	 mov	 dl, BYTE PTR [eax+13]
  000de	84 d2		 test	 dl, dl
  000e0	74 1a		 je	 SHORT $LN83@LoadFloat_
  000e2	8a 40 0e	 mov	 al, BYTE PTR [eax+14]
  000e5	80 f2 ec	 xor	 dl, -20			; ffffffecH
  000e8	88 55 f9	 mov	 BYTE PTR __k$[ebp+13], dl
  000eb	84 c0		 test	 al, al
  000ed	74 07		 je	 SHORT $LN82@LoadFloat_
  000ef	34 eb		 xor	 al, -21			; ffffffebH
  000f1	88 45 fa	 mov	 BYTE PTR __k$[ebp+14], al
  000f4	eb 52		 jmp	 SHORT $LN1@LoadFloat_
$LN82@LoadFloat_:
  000f6	c6 45 fa eb	 mov	 BYTE PTR __k$[ebp+14], -21 ; ffffffebH
  000fa	eb 4c		 jmp	 SHORT $LN1@LoadFloat_
$LN83@LoadFloat_:
  000fc	c6 45 f9 ec	 mov	 BYTE PTR __k$[ebp+13], -20 ; ffffffecH
  00100	eb 46		 jmp	 SHORT $LN1@LoadFloat_
$LN84@LoadFloat_:
  00102	c6 45 f8 ed	 mov	 BYTE PTR __k$[ebp+12], -19 ; ffffffedH
  00106	eb 40		 jmp	 SHORT $LN1@LoadFloat_
$LN85@LoadFloat_:
  00108	c6 45 f7 ea	 mov	 BYTE PTR __k$[ebp+11], -22 ; ffffffeaH
  0010c	eb 3a		 jmp	 SHORT $LN1@LoadFloat_
$LN87@LoadFloat_:
  0010e	c6 45 f5 ec	 mov	 BYTE PTR __k$[ebp+9], -20 ; ffffffecH
  00112	eb 34		 jmp	 SHORT $LN1@LoadFloat_
$LN88@LoadFloat_:
  00114	c6 45 f4 ed	 mov	 BYTE PTR __k$[ebp+8], -19 ; ffffffedH
  00118	eb 2e		 jmp	 SHORT $LN1@LoadFloat_
$LN89@LoadFloat_:
  0011a	c6 45 f3 ea	 mov	 BYTE PTR __k$[ebp+7], -22 ; ffffffeaH
  0011e	eb 28		 jmp	 SHORT $LN1@LoadFloat_
$LN90@LoadFloat_:
  00120	c6 45 f2 eb	 mov	 BYTE PTR __k$[ebp+6], -21 ; ffffffebH
  00124	eb 22		 jmp	 SHORT $LN1@LoadFloat_
$LN91@LoadFloat_:
  00126	c6 45 f1 ec	 mov	 BYTE PTR __k$[ebp+5], -20 ; ffffffecH
  0012a	eb 1c		 jmp	 SHORT $LN1@LoadFloat_
$LN92@LoadFloat_:
  0012c	c6 45 f0 ed	 mov	 BYTE PTR __k$[ebp+4], -19 ; ffffffedH
  00130	eb 16		 jmp	 SHORT $LN1@LoadFloat_
$LN93@LoadFloat_:
  00132	c6 45 ef ea	 mov	 BYTE PTR __k$[ebp+3], -22 ; ffffffeaH
  00136	eb 10		 jmp	 SHORT $LN1@LoadFloat_
$LN94@LoadFloat_:
  00138	c6 45 ee eb	 mov	 BYTE PTR __k$[ebp+2], -21 ; ffffffebH
  0013c	eb 0a		 jmp	 SHORT $LN1@LoadFloat_
$LN95@LoadFloat_:
  0013e	c6 45 ed ec	 mov	 BYTE PTR __k$[ebp+1], -20 ; ffffffecH
  00142	eb 04		 jmp	 SHORT $LN1@LoadFloat_
$LN96@LoadFloat_:
  00144	c6 45 ec ed	 mov	 BYTE PTR __k$[ebp], -19	; ffffffedH
$LN1@LoadFloat_:
  00148	6a 02		 push	 2
  0014a	8d 45 ec	 lea	 eax, DWORD PTR __k$[ebp]
  0014d	c6 45 f6 00	 mov	 BYTE PTR __k$[ebp+10], 0
  00151	5a		 pop	 edx
$LL104@LoadFloat_:
  00152	81 30 ed ec eb
	ea		 xor	 DWORD PTR [eax], -353637139 ; eaebecedH
  00158	83 c0 04	 add	 eax, 4
  0015b	4a		 dec	 edx
  0015c	75 f4		 jne	 SHORT $LL104@LoadFloat_
  0015e	6a 08		 push	 8
  00160	58		 pop	 eax
$LL101@LoadFloat_:
  00161	8b c8		 mov	 ecx, eax
  00163	81 e1 03 00 00
	80		 and	 ecx, -2147483645	; 80000003H
  00169	79 05		 jns	 SHORT $LN111@LoadFloat_
  0016b	49		 dec	 ecx
  0016c	83 c9 fc	 or	 ecx, -4			; fffffffcH
  0016f	41		 inc	 ecx
$LN111@LoadFloat_:
  00170	b2 ed		 mov	 dl, -19			; ffffffedH
  00172	2a d1		 sub	 dl, cl
  00174	30 54 05 ec	 xor	 BYTE PTR __k$[ebp+eax], dl
  00178	40		 inc	 eax
  00179	83 f8 0a	 cmp	 eax, 10			; 0000000aH
  0017c	7c e3		 jl	 SHORT $LL101@LoadFloat_

; 137  : 		return LoadFloat(_k, f);

  0017e	f3 0f 10 45 0c	 movss	 xmm0, DWORD PTR _f$[ebp]
  00183	51		 push	 ecx
  00184	8d 45 ec	 lea	 eax, DWORD PTR __k$[ebp]
  00187	f3 0f 11 04 24	 movss	 DWORD PTR [esp], xmm0
  0018c	50		 push	 eax
  0018d	8b ce		 mov	 ecx, esi
  0018f	ff 15 00 00 00
	00		 call	 DWORD PTR __imp_?LoadFloat@ioINILoader@@QAEMPBDM@Z

; 138  : 	}

  00195	8b 4d fc	 mov	 ecx, DWORD PTR __$ArrayPad$[ebp]
  00198	33 cd		 xor	 ecx, ebp
  0019a	5e		 pop	 esi
  0019b	e8 00 00 00 00	 call	 @__security_check_cookie@4
  001a0	c9		 leave
  001a1	c2 08 00	 ret	 8
??$LoadFloat_e@$0L@@ioINILoader@@QAEMAAY0L@$$CBDM@Z ENDP ; ioINILoader::LoadFloat_e<11>
_TEXT	ENDS
PUBLIC	__$ArrayPad$
PUBLIC	??$LoadBool_e@$0BB@@ioINILoader@@QAE_NAAY0BB@$$CBD_N@Z ; ioINILoader::LoadBool_e<17>
EXTRN	__imp_?LoadBool@ioINILoader@@QAE_NPBD_N@Z:PROC
; Function compile flags: /Ogsp
;	COMDAT ??$LoadBool_e@$0BB@@ioINILoader@@QAE_NAAY0BB@$$CBD_N@Z
_TEXT	SEGMENT
__k$ = -28						; size = 17
__$ArrayPad$ = -4					; size = 4
_k$ = 8							; size = 4
_b$ = 12						; size = 1
??$LoadBool_e@$0BB@@ioINILoader@@QAE_NAAY0BB@$$CBD_N@Z PROC ; ioINILoader::LoadBool_e<17>, COMDAT
; _this$ = ecx

; 101  : 	{

  00000	55		 push	 ebp
  00001	8b ec		 mov	 ebp, esp
  00003	83 ec 1c	 sub	 esp, 28			; 0000001cH
  00006	a1 00 00 00 00	 mov	 eax, DWORD PTR ___security_cookie
  0000b	33 c5		 xor	 eax, ebp
  0000d	89 45 fc	 mov	 DWORD PTR __$ArrayPad$[ebp], eax
  00010	8b 45 08	 mov	 eax, DWORD PTR _k$[ebp]

; 102  : 		_ENCSTR(k, _k);

  00013	8a 10		 mov	 dl, BYTE PTR [eax]
  00015	56		 push	 esi
  00016	8b f1		 mov	 esi, ecx
  00018	84 d2		 test	 dl, dl
  0001a	0f 84 a7 01 00
	00		 je	 $LN96@LoadBool_e
  00020	80 f2 ed	 xor	 dl, -19			; ffffffedH
  00023	88 55 e4	 mov	 BYTE PTR __k$[ebp], dl
  00026	8a 50 01	 mov	 dl, BYTE PTR [eax+1]
  00029	84 d2		 test	 dl, dl
  0002b	0f 84 90 01 00
	00		 je	 $LN95@LoadBool_e
  00031	b1 ec		 mov	 cl, -20			; ffffffecH
  00033	32 d1		 xor	 dl, cl
  00035	88 55 e5	 mov	 BYTE PTR __k$[ebp+1], dl
  00038	8a 50 02	 mov	 dl, BYTE PTR [eax+2]
  0003b	84 d2		 test	 dl, dl
  0003d	0f 84 78 01 00
	00		 je	 $LN94@LoadBool_e
  00043	80 f2 eb	 xor	 dl, -21			; ffffffebH
  00046	88 55 e6	 mov	 BYTE PTR __k$[ebp+2], dl
  00049	8a 50 03	 mov	 dl, BYTE PTR [eax+3]
  0004c	84 d2		 test	 dl, dl
  0004e	0f 84 61 01 00
	00		 je	 $LN93@LoadBool_e
  00054	80 f2 ea	 xor	 dl, -22			; ffffffeaH
  00057	88 55 e7	 mov	 BYTE PTR __k$[ebp+3], dl
  0005a	8a 50 04	 mov	 dl, BYTE PTR [eax+4]
  0005d	84 d2		 test	 dl, dl
  0005f	0f 84 4a 01 00
	00		 je	 $LN92@LoadBool_e
  00065	80 f2 ed	 xor	 dl, -19			; ffffffedH
  00068	88 55 e8	 mov	 BYTE PTR __k$[ebp+4], dl
  0006b	8a 50 05	 mov	 dl, BYTE PTR [eax+5]
  0006e	84 d2		 test	 dl, dl
  00070	0f 84 34 01 00
	00		 je	 $LN91@LoadBool_e
  00076	32 d1		 xor	 dl, cl
  00078	88 55 e9	 mov	 BYTE PTR __k$[ebp+5], dl
  0007b	8a 50 06	 mov	 dl, BYTE PTR [eax+6]
  0007e	84 d2		 test	 dl, dl
  00080	0f 84 1e 01 00
	00		 je	 $LN90@LoadBool_e
  00086	80 f2 eb	 xor	 dl, -21			; ffffffebH
  00089	88 55 ea	 mov	 BYTE PTR __k$[ebp+6], dl
  0008c	8a 50 07	 mov	 dl, BYTE PTR [eax+7]
  0008f	84 d2		 test	 dl, dl
  00091	0f 84 07 01 00
	00		 je	 $LN89@LoadBool_e
  00097	80 f2 ea	 xor	 dl, -22			; ffffffeaH
  0009a	88 55 eb	 mov	 BYTE PTR __k$[ebp+7], dl
  0009d	8a 50 08	 mov	 dl, BYTE PTR [eax+8]
  000a0	84 d2		 test	 dl, dl
  000a2	0f 84 f0 00 00
	00		 je	 $LN88@LoadBool_e
  000a8	80 f2 ed	 xor	 dl, -19			; ffffffedH
  000ab	88 55 ec	 mov	 BYTE PTR __k$[ebp+8], dl
  000ae	8a 50 09	 mov	 dl, BYTE PTR [eax+9]
  000b1	84 d2		 test	 dl, dl
  000b3	0f 84 da 00 00
	00		 je	 $LN87@LoadBool_e
  000b9	32 d1		 xor	 dl, cl
  000bb	88 55 ed	 mov	 BYTE PTR __k$[ebp+9], dl
  000be	8a 50 0a	 mov	 dl, BYTE PTR [eax+10]
  000c1	84 d2		 test	 dl, dl
  000c3	0f 84 c4 00 00
	00		 je	 $LN86@LoadBool_e
  000c9	80 f2 eb	 xor	 dl, -21			; ffffffebH
  000cc	88 55 ee	 mov	 BYTE PTR __k$[ebp+10], dl
  000cf	8a 50 0b	 mov	 dl, BYTE PTR [eax+11]
  000d2	84 d2		 test	 dl, dl
  000d4	0f 84 ad 00 00
	00		 je	 $LN85@LoadBool_e
  000da	80 f2 ea	 xor	 dl, -22			; ffffffeaH
  000dd	88 55 ef	 mov	 BYTE PTR __k$[ebp+11], dl
  000e0	8a 50 0c	 mov	 dl, BYTE PTR [eax+12]
  000e3	84 d2		 test	 dl, dl
  000e5	0f 84 96 00 00
	00		 je	 $LN84@LoadBool_e
  000eb	80 f2 ed	 xor	 dl, -19			; ffffffedH
  000ee	88 55 f0	 mov	 BYTE PTR __k$[ebp+12], dl
  000f1	8a 50 0d	 mov	 dl, BYTE PTR [eax+13]
  000f4	84 d2		 test	 dl, dl
  000f6	0f 84 80 00 00
	00		 je	 $LN83@LoadBool_e
  000fc	32 d1		 xor	 dl, cl
  000fe	88 55 f1	 mov	 BYTE PTR __k$[ebp+13], dl
  00101	8a 50 0e	 mov	 dl, BYTE PTR [eax+14]
  00104	84 d2		 test	 dl, dl
  00106	74 6e		 je	 SHORT $LN82@LoadBool_e
  00108	80 f2 eb	 xor	 dl, -21			; ffffffebH
  0010b	88 55 f2	 mov	 BYTE PTR __k$[ebp+14], dl
  0010e	8a 50 0f	 mov	 dl, BYTE PTR [eax+15]
  00111	84 d2		 test	 dl, dl
  00113	74 5b		 je	 SHORT $LN81@LoadBool_e
  00115	80 f2 ea	 xor	 dl, -22			; ffffffeaH
  00118	80 78 10 00	 cmp	 BYTE PTR [eax+16], 0
  0011c	88 55 f3	 mov	 BYTE PTR __k$[ebp+15], dl
  0011f	0f 84 a6 00 00
	00		 je	 $LN1@LoadBool_e
  00125	8a 50 11	 mov	 dl, BYTE PTR [eax+17]
  00128	84 d2		 test	 dl, dl
  0012a	74 3f		 je	 SHORT $LN79@LoadBool_e
  0012c	32 d1		 xor	 dl, cl
  0012e	88 55 f5	 mov	 BYTE PTR __k$[ebp+17], dl
  00131	8a 50 12	 mov	 dl, BYTE PTR [eax+18]
  00134	84 d2		 test	 dl, dl
  00136	74 2d		 je	 SHORT $LN78@LoadBool_e
  00138	80 f2 eb	 xor	 dl, -21			; ffffffebH
  0013b	88 55 f6	 mov	 BYTE PTR __k$[ebp+18], dl
  0013e	8a 50 13	 mov	 dl, BYTE PTR [eax+19]
  00141	84 d2		 test	 dl, dl
  00143	74 1a		 je	 SHORT $LN77@LoadBool_e
  00145	8a 40 14	 mov	 al, BYTE PTR [eax+20]
  00148	80 f2 ea	 xor	 dl, -22			; ffffffeaH
  0014b	88 55 f7	 mov	 BYTE PTR __k$[ebp+19], dl
  0014e	84 c0		 test	 al, al
  00150	74 07		 je	 SHORT $LN76@LoadBool_e
  00152	34 ed		 xor	 al, -19			; ffffffedH
  00154	88 45 f8	 mov	 BYTE PTR __k$[ebp+20], al
  00157	eb 72		 jmp	 SHORT $LN1@LoadBool_e
$LN76@LoadBool_e:
  00159	c6 45 f8 ed	 mov	 BYTE PTR __k$[ebp+20], -19 ; ffffffedH
  0015d	eb 6c		 jmp	 SHORT $LN1@LoadBool_e
$LN77@LoadBool_e:
  0015f	c6 45 f7 ea	 mov	 BYTE PTR __k$[ebp+19], -22 ; ffffffeaH
  00163	eb 66		 jmp	 SHORT $LN1@LoadBool_e
$LN78@LoadBool_e:
  00165	c6 45 f6 eb	 mov	 BYTE PTR __k$[ebp+18], -21 ; ffffffebH
  00169	eb 60		 jmp	 SHORT $LN1@LoadBool_e
$LN79@LoadBool_e:
  0016b	88 4d f5	 mov	 BYTE PTR __k$[ebp+17], cl
  0016e	eb 5b		 jmp	 SHORT $LN1@LoadBool_e
$LN81@LoadBool_e:
  00170	c6 45 f3 ea	 mov	 BYTE PTR __k$[ebp+15], -22 ; ffffffeaH
  00174	eb 55		 jmp	 SHORT $LN1@LoadBool_e
$LN82@LoadBool_e:
  00176	c6 45 f2 eb	 mov	 BYTE PTR __k$[ebp+14], -21 ; ffffffebH
  0017a	eb 4f		 jmp	 SHORT $LN1@LoadBool_e
$LN83@LoadBool_e:
  0017c	88 4d f1	 mov	 BYTE PTR __k$[ebp+13], cl
  0017f	eb 4a		 jmp	 SHORT $LN1@LoadBool_e
$LN84@LoadBool_e:
  00181	c6 45 f0 ed	 mov	 BYTE PTR __k$[ebp+12], -19 ; ffffffedH
  00185	eb 44		 jmp	 SHORT $LN1@LoadBool_e
$LN85@LoadBool_e:
  00187	c6 45 ef ea	 mov	 BYTE PTR __k$[ebp+11], -22 ; ffffffeaH
  0018b	eb 3e		 jmp	 SHORT $LN1@LoadBool_e
$LN86@LoadBool_e:
  0018d	c6 45 ee eb	 mov	 BYTE PTR __k$[ebp+10], -21 ; ffffffebH
  00191	eb 38		 jmp	 SHORT $LN1@LoadBool_e
$LN87@LoadBool_e:
  00193	88 4d ed	 mov	 BYTE PTR __k$[ebp+9], cl
  00196	eb 33		 jmp	 SHORT $LN1@LoadBool_e
$LN88@LoadBool_e:
  00198	c6 45 ec ed	 mov	 BYTE PTR __k$[ebp+8], -19 ; ffffffedH
  0019c	eb 2d		 jmp	 SHORT $LN1@LoadBool_e
$LN89@LoadBool_e:
  0019e	c6 45 eb ea	 mov	 BYTE PTR __k$[ebp+7], -22 ; ffffffeaH
  001a2	eb 27		 jmp	 SHORT $LN1@LoadBool_e
$LN90@LoadBool_e:
  001a4	c6 45 ea eb	 mov	 BYTE PTR __k$[ebp+6], -21 ; ffffffebH
  001a8	eb 21		 jmp	 SHORT $LN1@LoadBool_e
$LN91@LoadBool_e:
  001aa	88 4d e9	 mov	 BYTE PTR __k$[ebp+5], cl
  001ad	eb 1c		 jmp	 SHORT $LN1@LoadBool_e
$LN92@LoadBool_e:
  001af	c6 45 e8 ed	 mov	 BYTE PTR __k$[ebp+4], -19 ; ffffffedH
  001b3	eb 16		 jmp	 SHORT $LN1@LoadBool_e
$LN93@LoadBool_e:
  001b5	c6 45 e7 ea	 mov	 BYTE PTR __k$[ebp+3], -22 ; ffffffeaH
  001b9	eb 10		 jmp	 SHORT $LN1@LoadBool_e
$LN94@LoadBool_e:
  001bb	c6 45 e6 eb	 mov	 BYTE PTR __k$[ebp+2], -21 ; ffffffebH
  001bf	eb 0a		 jmp	 SHORT $LN1@LoadBool_e
$LN95@LoadBool_e:
  001c1	c6 45 e5 ec	 mov	 BYTE PTR __k$[ebp+1], -20 ; ffffffecH
  001c5	eb 04		 jmp	 SHORT $LN1@LoadBool_e
$LN96@LoadBool_e:
  001c7	c6 45 e4 ed	 mov	 BYTE PTR __k$[ebp], -19	; ffffffedH
$LN1@LoadBool_e:
  001cb	6a 04		 push	 4
  001cd	8d 45 e4	 lea	 eax, DWORD PTR __k$[ebp]
  001d0	c6 45 f4 00	 mov	 BYTE PTR __k$[ebp+16], 0
  001d4	5a		 pop	 edx
$LL104@LoadBool_e:
  001d5	81 30 ed ec eb
	ea		 xor	 DWORD PTR [eax], -353637139 ; eaebecedH
  001db	83 c0 04	 add	 eax, 4
  001de	4a		 dec	 edx
  001df	75 f4		 jne	 SHORT $LL104@LoadBool_e

; 103  : 		return LoadBool(_k, b);

  001e1	ff 75 0c	 push	 DWORD PTR _b$[ebp]
  001e4	8d 45 e4	 lea	 eax, DWORD PTR __k$[ebp]
  001e7	50		 push	 eax
  001e8	8b ce		 mov	 ecx, esi
  001ea	ff 15 00 00 00
	00		 call	 DWORD PTR __imp_?LoadBool@ioINILoader@@QAE_NPBD_N@Z

; 104  : 	}

  001f0	8b 4d fc	 mov	 ecx, DWORD PTR __$ArrayPad$[ebp]
  001f3	33 cd		 xor	 ecx, ebp
  001f5	5e		 pop	 esi
  001f6	e8 00 00 00 00	 call	 @__security_check_cookie@4
  001fb	c9		 leave
  001fc	c2 08 00	 ret	 8
??$LoadBool_e@$0BB@@ioINILoader@@QAE_NAAY0BB@$$CBD_N@Z ENDP ; ioINILoader::LoadBool_e<17>
_TEXT	ENDS
PUBLIC	__real@0000000000000000
PUBLIC	__$ArrayPad$
EXTRN	?LoadProperty@ioBuff@@UAEXAAVioINILoader@@@Z:PROC ; ioBuff::LoadProperty
;	COMDAT __real@0000000000000000
; File d:\lost saga for developer\youtube\tutorial\source\src\lsclient\stringprotect.h
CONST	SEGMENT
__real@0000000000000000 DQ 00000000000000000r	; 0
; Function compile flags: /Ogsp
; File d:\lost saga for developer\youtube\tutorial\source\src\lsclient\ioheadscalebuff.cpp
CONST	ENDS
;	COMDAT ?LoadProperty@ioHeadScaleBuff@@UAEXAAVioINILoader@@@Z
_TEXT	SEGMENT
tv1901 = -32						; size = 4
tv591 = -32						; size = 4
$T524517 = -32						; size = 4
__k$524671 = -28					; size = 17
__k$524546 = -24					; size = 11
__$ArrayPad$ = -4					; size = 4
_rkLoader$ = 8						; size = 4
?LoadProperty@ioHeadScaleBuff@@UAEXAAVioINILoader@@@Z PROC ; ioHeadScaleBuff::LoadProperty, COMDAT
; _this$ = ecx

; 28   : {

  00000	55		 push	 ebp
  00001	8b ec		 mov	 ebp, esp
  00003	83 ec 20	 sub	 esp, 32			; 00000020H
  00006	a1 00 00 00 00	 mov	 eax, DWORD PTR ___security_cookie
  0000b	33 c5		 xor	 eax, ebp
  0000d	89 45 fc	 mov	 DWORD PTR __$ArrayPad$[ebp], eax
  00010	53		 push	 ebx
  00011	56		 push	 esi
  00012	57		 push	 edi
  00013	8b 7d 08	 mov	 edi, DWORD PTR _rkLoader$[ebp]

; 29   : 	ioBuff::LoadProperty( rkLoader );

  00016	57		 push	 edi
  00017	8b f1		 mov	 esi, ecx
  00019	e8 00 00 00 00	 call	 ?LoadProperty@ioBuff@@UAEXAAVioINILoader@@@Z ; ioBuff::LoadProperty

; 30   : 	m_fScaleRate = rkLoader.LoadFloat_e( "scale_rate", FLOAT1 );

  0001e	b8 01 00 00 00	 mov	 eax, 1
  00023	6a 02		 push	 2
  00025	89 45 e0	 mov	 DWORD PTR $T524517[ebp], eax
  00028	c7 45 e8 9e 8f
	8a 86		 mov	 DWORD PTR __k$524546[ebp], -2037739618 ; 868a8f9eH
  0002f	c7 45 ec 88 b3
	99 8b		 mov	 DWORD PTR __k$524546[ebp+4], -1952861304 ; 8b99b388H
  00036	66 c7 45 f0 99
	89		 mov	 WORD PTR __k$524546[ebp+8], 35225 ; 00008999H
  0003c	8d 4d e8	 lea	 ecx, DWORD PTR __k$524546[ebp]
  0003f	c6 45 f2 00	 mov	 BYTE PTR __k$524546[ebp+10], 0
  00043	5a		 pop	 edx
  00044	bb ed ec eb ea	 mov	 ebx, -353637139		; eaebecedH
$LL110@LoadProper:
  00049	31 19		 xor	 DWORD PTR [ecx], ebx
  0004b	83 c1 04	 add	 ecx, 4
  0004e	4a		 dec	 edx
  0004f	75 f8		 jne	 SHORT $LL110@LoadProper
  00051	6a 08		 push	 8
  00053	59		 pop	 ecx
$LL107@LoadProper:
  00054	8b c1		 mov	 eax, ecx
  00056	25 03 00 00 80	 and	 eax, -2147483645	; 80000003H
  0005b	79 05		 jns	 SHORT $LN227@LoadProper
  0005d	48		 dec	 eax
  0005e	83 c8 fc	 or	 eax, -4			; fffffffcH
  00061	40		 inc	 eax
$LN227@LoadProper:
  00062	b2 ed		 mov	 dl, -19			; ffffffedH
  00064	2a d0		 sub	 dl, al
  00066	30 54 0d e8	 xor	 BYTE PTR __k$524546[ebp+ecx], dl
  0006a	41		 inc	 ecx
  0006b	83 f9 0a	 cmp	 ecx, 10			; 0000000aH
  0006e	7c e4		 jl	 SHORT $LL107@LoadProper
  00070	8b 45 e0	 mov	 eax, DWORD PTR $T524517[ebp]
  00073	db 45 e0	 fild	 DWORD PTR $T524517[ebp]
  00076	85 c0		 test	 eax, eax
  00078	79 06		 jns	 SHORT $LN228@LoadProper
  0007a	d8 05 00 00 00
	00		 fadd	 DWORD PTR __real@4f800000
$LN228@LoadProper:
  00080	51		 push	 ecx
  00081	8d 45 e8	 lea	 eax, DWORD PTR __k$524546[ebp]
  00084	d9 1c 24	 fstp	 DWORD PTR [esp]
  00087	50		 push	 eax
  00088	8b cf		 mov	 ecx, edi
  0008a	ff 15 00 00 00
	00		 call	 DWORD PTR __imp_?LoadFloat@ioINILoader@@QAEMPBDM@Z
  00090	d9 5d e0	 fstp	 DWORD PTR tv591[ebp]
  00093	d9 45 e0	 fld	 DWORD PTR tv591[ebp]
  00096	d9 9e 70 09 00
	00		 fstp	 DWORD PTR [esi+2416]

; 31   : 	m_fScaleRate = max( 0.0f, m_fScaleRate );

  0009c	d9 45 e0	 fld	 DWORD PTR tv591[ebp]
  0009f	d9 ee		 fldz
  000a1	df f1		 fcomip	 ST(1)
  000a3	dd d8		 fstp	 ST(0)
  000a5	76 05		 jbe	 SHORT $LN3@LoadProper
  000a7	0f 57 c0	 xorps	 xmm0, xmm0
  000aa	eb 05		 jmp	 SHORT $LN4@LoadProper
$LN3@LoadProper:
  000ac	f3 0f 10 45 e0	 movss	 xmm0, DWORD PTR tv591[ebp]
$LN4@LoadProper:
  000b1	6a 04		 push	 4
  000b3	f3 0f 11 86 70
	09 00 00	 movss	 DWORD PTR [esi+2416], xmm0

; 32   : 
; 33   : 	m_bRemoveBuffByDrop = rkLoader.LoadBool_e( "remove_buff_drop", false );

  000bb	c7 45 e4 9f 89
	86 85		 mov	 DWORD PTR __k$524671[ebp], -2054780513 ; 8586899fH
  000c2	c7 45 e8 9b 89
	b4 88		 mov	 DWORD PTR __k$524671[ebp+4], -2001434213 ; 88b4899bH
  000c9	c7 45 ec 98 8a
	8d b5		 mov	 DWORD PTR __k$524671[ebp+8], -1249015144 ; b58d8a98H
  000d0	c7 45 f0 89 9e
	84 9a		 mov	 DWORD PTR __k$524671[ebp+12], -1702584695 ; 9a849e89H
  000d7	8d 45 e4	 lea	 eax, DWORD PTR __k$524671[ebp]
  000da	c6 45 f4 00	 mov	 BYTE PTR __k$524671[ebp+16], 0
  000de	59		 pop	 ecx
$LL216@LoadProper:
  000df	31 18		 xor	 DWORD PTR [eax], ebx
  000e1	83 c0 04	 add	 eax, 4
  000e4	49		 dec	 ecx
  000e5	75 f8		 jne	 SHORT $LL216@LoadProper
  000e7	51		 push	 ecx
  000e8	8d 45 e4	 lea	 eax, DWORD PTR __k$524671[ebp]
  000eb	50		 push	 eax
  000ec	8b cf		 mov	 ecx, edi
  000ee	ff 15 00 00 00
	00		 call	 DWORD PTR __imp_?LoadBool@ioINILoader@@QAE_NPBD_N@Z

; 34   : }

  000f4	8b 4d fc	 mov	 ecx, DWORD PTR __$ArrayPad$[ebp]
  000f7	5f		 pop	 edi
  000f8	88 86 74 09 00
	00		 mov	 BYTE PTR [esi+2420], al
  000fe	5e		 pop	 esi
  000ff	33 cd		 xor	 ecx, ebp
  00101	5b		 pop	 ebx
  00102	e8 00 00 00 00	 call	 @__security_check_cookie@4
  00107	c9		 leave
  00108	c2 04 00	 ret	 4
?LoadProperty@ioHeadScaleBuff@@UAEXAAVioINILoader@@@Z ENDP ; ioHeadScaleBuff::LoadProperty
_TEXT	ENDS
END
