; Listing generated by Microsoft (R) Optimizing Compiler Version 16.00.30319.01 

	TITLE	D:\Lost Saga For Developer\Youtube\Tutorial\Source\src\LSClient\ioHideBuff.cpp
	.686P
	.XMM
	include listing.inc
	.model	flat

INCLUDELIB MSVCRT
INCLUDELIB OLDNAMES

PUBLIC	?return1@@YAIXZ					; return1
; Function compile flags: /Ogsp
; File d:\lost saga for developer\youtube\tutorial\source\src\lsclient\stdafx.h
;	COMDAT ?return1@@YAIXZ
_TEXT	SEGMENT
?return1@@YAIXZ PROC					; return1, COMDAT

; 17   : 	__forceinline unsigned int return1() { __asm mov eax, 1 };

  00000	b8 01 00 00 00	 mov	 eax, 1
  00005	c3		 ret	 0
?return1@@YAIXZ ENDP					; return1
_TEXT	ENDS
PUBLIC	?GetState@ioBaseChar@@QBE?AW4CharState@@XZ	; ioBaseChar::GetState
; Function compile flags: /Ogsp
; File d:\lost saga for developer\youtube\tutorial\source\src\lsclient\iobasechar.h
;	COMDAT ?GetState@ioBaseChar@@QBE?AW4CharState@@XZ
_TEXT	SEGMENT
?GetState@ioBaseChar@@QBE?AW4CharState@@XZ PROC		; ioBaseChar::GetState, COMDAT
; _this$ = ecx

; 2156 : 	inline CharState GetState() const { return m_CharState; }	

  00000	8a 81 10 03 00
	00		 mov	 al, BYTE PTR [ecx+784]
  00006	c3		 ret	 0
?GetState@ioBaseChar@@QBE?AW4CharState@@XZ ENDP		; ioBaseChar::GetState
_TEXT	ENDS
PUBLIC	?SetEnableDashOnHideBuff@ioBaseChar@@QAEX_N@Z	; ioBaseChar::SetEnableDashOnHideBuff
; Function compile flags: /Ogsp
;	COMDAT ?SetEnableDashOnHideBuff@ioBaseChar@@QAEX_N@Z
_TEXT	SEGMENT
_bDash$ = 8						; size = 1
?SetEnableDashOnHideBuff@ioBaseChar@@QAEX_N@Z PROC	; ioBaseChar::SetEnableDashOnHideBuff, COMDAT
; _this$ = ecx

; 4043 : 	void SetEnableDashOnHideBuff( bool bDash ) { m_bEnableDashOnHideBuff = bDash; }

  00000	55		 push	 ebp
  00001	8b ec		 mov	 ebp, esp
  00003	8a 45 08	 mov	 al, BYTE PTR _bDash$[ebp]
  00006	88 81 c4 18 00
	00		 mov	 BYTE PTR [ecx+6340], al
  0000c	5d		 pop	 ebp
  0000d	c2 04 00	 ret	 4
?SetEnableDashOnHideBuff@ioBaseChar@@QAEX_N@Z ENDP	; ioBaseChar::SetEnableDashOnHideBuff
_TEXT	ENDS
PUBLIC	??_7ioHideBuff@@6B@				; ioHideBuff::`vftable'
PUBLIC	??0ioHideBuff@@QAE@XZ				; ioHideBuff::ioHideBuff
PUBLIC	??_R4ioHideBuff@@6B@				; ioHideBuff::`RTTI Complete Object Locator'
PUBLIC	??_R0?AVioHideBuff@@@8				; ioHideBuff `RTTI Type Descriptor'
PUBLIC	??_R3ioHideBuff@@8				; ioHideBuff::`RTTI Class Hierarchy Descriptor'
PUBLIC	??_R2ioHideBuff@@8				; ioHideBuff::`RTTI Base Class Array'
PUBLIC	??_R1A@?0A@EA@ioHideBuff@@8			; ioHideBuff::`RTTI Base Class Descriptor at (0,-1,0,64)'
PUBLIC	??_R1A@?0A@EA@ioBuff@@8				; ioBuff::`RTTI Base Class Descriptor at (0,-1,0,64)'
PUBLIC	??_R0?AVioBuff@@@8				; ioBuff `RTTI Type Descriptor'
PUBLIC	??_R3ioBuff@@8					; ioBuff::`RTTI Class Hierarchy Descriptor'
PUBLIC	??_R2ioBuff@@8					; ioBuff::`RTTI Base Class Array'
PUBLIC	?LoadProperty@ioHideBuff@@UAEXAAVioINILoader@@@Z ; ioHideBuff::LoadProperty
PUBLIC	?Clone@ioHideBuff@@UAEPAVioBuff@@XZ		; ioHideBuff::Clone
PUBLIC	?StartBuff@ioHideBuff@@UAEXPAVioBaseChar@@@Z	; ioHideBuff::StartBuff
PUBLIC	?ApplyStartBuff@ioHideBuff@@UAE_NPAVioBaseChar@@KK@Z ; ioHideBuff::ApplyStartBuff
PUBLIC	?ProcessBuff@ioHideBuff@@UAEXM@Z		; ioHideBuff::ProcessBuff
PUBLIC	?EndBuff@ioHideBuff@@UAEXXZ			; ioHideBuff::EndBuff
PUBLIC	?IsWaitSelfRemove@ioBuff@@UAE_NXZ		; ioBuff::IsWaitSelfRemove
EXTRN	__imp_??1ioHashString@@QAE@XZ:PROC
EXTRN	??1ioBuff@@UAE@XZ:PROC				; ioBuff::~ioBuff
EXTRN	__imp_??0ioHashString@@QAE@XZ:PROC
EXTRN	??0ioBuff@@QAE@XZ:PROC				; ioBuff::ioBuff
EXTRN	___CxxFrameHandler3:PROC
EXTRN	@__security_check_cookie@4:PROC
EXTRN	__fltused:DWORD
EXTRN	__EH_epilog3:PROC
EXTRN	__EH_prolog3:PROC
EXTRN	??_7type_info@@6B@:QWORD			; type_info::`vftable'
EXTRN	?StartBuffWithAniTime@ioBuff@@UAEXPAVioBaseChar@@K@Z:PROC ; ioBuff::StartBuffWithAniTime
EXTRN	?CancelBuff@ioBuff@@UAEXXZ:PROC			; ioBuff::CancelBuff
EXTRN	?GetBuffInfo@ioBuff@@UAEXAAVSP2Packet@@@Z:PROC	; ioBuff::GetBuffInfo
EXTRN	?ApplyBuffInfo@ioBuff@@UAEXAAVSP2Packet@@@Z:PROC ; ioBuff::ApplyBuffInfo
EXTRN	?AccumulateBuff@ioBuff@@UAEXXZ:PROC		; ioBuff::AccumulateBuff
EXTRN	?IsLiveButStopped@ioBuff@@UBE_NXZ:PROC		; ioBuff::IsLiveButStopped
EXTRN	?IsCanJumpAttack@ioBuff@@UBE_NXZ:PROC		; ioBuff::IsCanJumpAttack
EXTRN	?SetAction@ioBuff@@MAEXXZ:PROC			; ioBuff::SetAction
EXTRN	?ProcessDelay@ioBuff@@MAEXM@Z:PROC		; ioBuff::ProcessDelay
EXTRN	?SetExtraDurationByGrowth@ioBuff@@UAEXM@Z:PROC	; ioBuff::SetExtraDurationByGrowth
EXTRN	?SetWeaponIndex@ioBuff@@UAEXK@Z:PROC		; ioBuff::SetWeaponIndex
EXTRN	?OnReduceGauge@ioBuff@@UBE_NXZ:PROC		; ioBuff::OnReduceGauge
EXTRN	?IsCharCollisionSkip@ioBuff@@UBE_NXZ:PROC	; ioBuff::IsCharCollisionSkip
EXTRN	?IsCollisionAvailableWeapon@ioBuff@@UBE_NXZ:PROC ; ioBuff::IsCollisionAvailableWeapon
EXTRN	?IsProtected@ioBuff@@UBE_NXZ:PROC		; ioBuff::IsProtected
EXTRN	?UseActiveCount@ioBuff@@UBE_NXZ:PROC		; ioBuff::UseActiveCount
EXTRN	?CheckActiveCount@ioBuff@@UAEXXZ:PROC		; ioBuff::CheckActiveCount
EXTRN	?CheckRemoveEquipSkillBuff@ioBuff@@UAEX_N@Z:PROC ; ioBuff::CheckRemoveEquipSkillBuff
EXTRN	?ApplyExtraBuffInfo@ioBuff@@UAEXAAVSP2Packet@@@Z:PROC ; ioBuff::ApplyExtraBuffInfo
EXTRN	?SetBuffGrapplingState@ioBuff@@UAE_NPAVioBaseChar@@ABVioHashString@@@Z:PROC ; ioBuff::SetBuffGrapplingState
EXTRN	?GetGrapplingTargetPos@ioBuff@@UAE?AUD3DXVECTOR3@@PAVioBaseChar@@@Z:PROC ; ioBuff::GetGrapplingTargetPos
EXTRN	??_EioHideBuff@@UAEPAXI@Z:PROC			; ioHideBuff::`vector deleting destructor'
;	COMDAT ??_R2ioBuff@@8
; File d:\lost saga for developer\youtube\tutorial\source\src\lsclient\iohidebuff.cpp
rdata$r	SEGMENT
??_R2ioBuff@@8 DD FLAT:??_R1A@?0A@EA@ioBuff@@8		; ioBuff::`RTTI Base Class Array'
rdata$r	ENDS
;	COMDAT ??_R3ioBuff@@8
rdata$r	SEGMENT
??_R3ioBuff@@8 DD 00H					; ioBuff::`RTTI Class Hierarchy Descriptor'
	DD	00H
	DD	01H
	DD	FLAT:??_R2ioBuff@@8
rdata$r	ENDS
;	COMDAT ??_R0?AVioBuff@@@8
_DATA	SEGMENT
??_R0?AVioBuff@@@8 DD FLAT:??_7type_info@@6B@		; ioBuff `RTTI Type Descriptor'
	DD	00H
	DB	'.?AVioBuff@@', 00H
_DATA	ENDS
;	COMDAT ??_R1A@?0A@EA@ioBuff@@8
rdata$r	SEGMENT
??_R1A@?0A@EA@ioBuff@@8 DD FLAT:??_R0?AVioBuff@@@8	; ioBuff::`RTTI Base Class Descriptor at (0,-1,0,64)'
	DD	00H
	DD	00H
	DD	0ffffffffH
	DD	00H
	DD	040H
	DD	FLAT:??_R3ioBuff@@8
rdata$r	ENDS
;	COMDAT ??_R1A@?0A@EA@ioHideBuff@@8
rdata$r	SEGMENT
??_R1A@?0A@EA@ioHideBuff@@8 DD FLAT:??_R0?AVioHideBuff@@@8 ; ioHideBuff::`RTTI Base Class Descriptor at (0,-1,0,64)'
	DD	01H
	DD	00H
	DD	0ffffffffH
	DD	00H
	DD	040H
	DD	FLAT:??_R3ioHideBuff@@8
rdata$r	ENDS
;	COMDAT ??_R2ioHideBuff@@8
rdata$r	SEGMENT
??_R2ioHideBuff@@8 DD FLAT:??_R1A@?0A@EA@ioHideBuff@@8	; ioHideBuff::`RTTI Base Class Array'
	DD	FLAT:??_R1A@?0A@EA@ioBuff@@8
rdata$r	ENDS
;	COMDAT ??_R3ioHideBuff@@8
rdata$r	SEGMENT
??_R3ioHideBuff@@8 DD 00H				; ioHideBuff::`RTTI Class Hierarchy Descriptor'
	DD	00H
	DD	02H
	DD	FLAT:??_R2ioHideBuff@@8
rdata$r	ENDS
;	COMDAT ??_R0?AVioHideBuff@@@8
_DATA	SEGMENT
??_R0?AVioHideBuff@@@8 DD FLAT:??_7type_info@@6B@	; ioHideBuff `RTTI Type Descriptor'
	DD	00H
	DB	'.?AVioHideBuff@@', 00H
_DATA	ENDS
;	COMDAT ??_R4ioHideBuff@@6B@
rdata$r	SEGMENT
??_R4ioHideBuff@@6B@ DD 00H				; ioHideBuff::`RTTI Complete Object Locator'
	DD	00H
	DD	00H
	DD	FLAT:??_R0?AVioHideBuff@@@8
	DD	FLAT:??_R3ioHideBuff@@8
rdata$r	ENDS
;	COMDAT ??_7ioHideBuff@@6B@
CONST	SEGMENT
??_7ioHideBuff@@6B@ DD FLAT:??_R4ioHideBuff@@6B@	; ioHideBuff::`vftable'
	DD	FLAT:?LoadProperty@ioHideBuff@@UAEXAAVioINILoader@@@Z
	DD	FLAT:?Clone@ioHideBuff@@UAEPAVioBuff@@XZ
	DD	FLAT:?StartBuff@ioHideBuff@@UAEXPAVioBaseChar@@@Z
	DD	FLAT:?StartBuffWithAniTime@ioBuff@@UAEXPAVioBaseChar@@K@Z
	DD	FLAT:?ApplyStartBuff@ioHideBuff@@UAE_NPAVioBaseChar@@KK@Z
	DD	FLAT:?ProcessBuff@ioHideBuff@@UAEXM@Z
	DD	FLAT:?EndBuff@ioHideBuff@@UAEXXZ
	DD	FLAT:?CancelBuff@ioBuff@@UAEXXZ
	DD	FLAT:?GetBuffInfo@ioBuff@@UAEXAAVSP2Packet@@@Z
	DD	FLAT:?ApplyBuffInfo@ioBuff@@UAEXAAVSP2Packet@@@Z
	DD	FLAT:?AccumulateBuff@ioBuff@@UAEXXZ
	DD	FLAT:?IsLiveButStopped@ioBuff@@UBE_NXZ
	DD	FLAT:?IsCanJumpAttack@ioBuff@@UBE_NXZ
	DD	FLAT:?SetAction@ioBuff@@MAEXXZ
	DD	FLAT:?ProcessDelay@ioBuff@@MAEXM@Z
	DD	FLAT:?SetExtraDurationByGrowth@ioBuff@@UAEXM@Z
	DD	FLAT:?SetWeaponIndex@ioBuff@@UAEXK@Z
	DD	FLAT:?OnReduceGauge@ioBuff@@UBE_NXZ
	DD	FLAT:?IsCharCollisionSkip@ioBuff@@UBE_NXZ
	DD	FLAT:?IsCollisionAvailableWeapon@ioBuff@@UBE_NXZ
	DD	FLAT:?IsProtected@ioBuff@@UBE_NXZ
	DD	FLAT:?UseActiveCount@ioBuff@@UBE_NXZ
	DD	FLAT:?CheckActiveCount@ioBuff@@UAEXXZ
	DD	FLAT:?CheckRemoveEquipSkillBuff@ioBuff@@UAEX_N@Z
	DD	FLAT:?ApplyExtraBuffInfo@ioBuff@@UAEXAAVSP2Packet@@@Z
	DD	FLAT:?SetBuffGrapplingState@ioBuff@@UAE_NPAVioBaseChar@@ABVioHashString@@@Z
	DD	FLAT:?GetGrapplingTargetPos@ioBuff@@UAE?AUD3DXVECTOR3@@PAVioBaseChar@@@Z
	DD	FLAT:?IsWaitSelfRemove@ioBuff@@UAE_NXZ
	DD	FLAT:??_EioHideBuff@@UAEPAXI@Z
CONST	ENDS
;	COMDAT xdata$x
xdata$x	SEGMENT
__unwindtable$??0ioHideBuff@@QAE@XZ DD 0ffffffffH
	DD	FLAT:__unwindfunclet$??0ioHideBuff@@QAE@XZ$0
	DD	00H
	DD	FLAT:__unwindfunclet$??0ioHideBuff@@QAE@XZ$1
__ehfuncinfo$??0ioHideBuff@@QAE@XZ DD 019930522H
	DD	02H
	DD	FLAT:__unwindtable$??0ioHideBuff@@QAE@XZ
	DD	2 DUP(00H)
	DD	2 DUP(00H)
	DD	00H
	DD	01H
; Function compile flags: /Ogsp
xdata$x	ENDS
;	COMDAT ??0ioHideBuff@@QAE@XZ
_TEXT	SEGMENT
_this$ = -16						; size = 4
__$EHRec$ = -12						; size = 12
??0ioHideBuff@@QAE@XZ PROC				; ioHideBuff::ioHideBuff, COMDAT
; _this$ = ecx

; 11   : {

  00000	6a 04		 push	 4
  00002	b8 00 00 00 00	 mov	 eax, __ehhandler$??0ioHideBuff@@QAE@XZ
  00007	e8 00 00 00 00	 call	 __EH_prolog3
  0000c	8b f1		 mov	 esi, ecx
  0000e	89 75 f0	 mov	 DWORD PTR _this$[ebp], esi
  00011	e8 00 00 00 00	 call	 ??0ioBuff@@QAE@XZ	; ioBuff::ioBuff
  00016	8b 3d 00 00 00
	00		 mov	 edi, DWORD PTR __imp_??0ioHashString@@QAE@XZ
  0001c	83 65 fc 00	 and	 DWORD PTR __$EHRec$[ebp+8], 0
  00020	8d 8e 84 09 00
	00		 lea	 ecx, DWORD PTR [esi+2436]
  00026	c7 06 00 00 00
	00		 mov	 DWORD PTR [esi], OFFSET ??_7ioHideBuff@@6B@
  0002c	ff d7		 call	 edi
  0002e	8d 8e 94 09 00
	00		 lea	 ecx, DWORD PTR [esi+2452]
  00034	c6 45 fc 01	 mov	 BYTE PTR __$EHRec$[ebp+8], 1
  00038	ff d7		 call	 edi

; 12   : 	m_dwStartTime = 0;
; 13   : 	m_bSetVisible = false;
; 14   : 	m_fCurSpeed = 0.0f;

  0003a	0f 57 c0	 xorps	 xmm0, xmm0
  0003d	83 a6 80 09 00
	00 00		 and	 DWORD PTR [esi+2432], 0
  00044	c6 86 7c 09 00
	00 00		 mov	 BYTE PTR [esi+2428], 0
  0004b	f3 0f 11 86 74
	09 00 00	 movss	 DWORD PTR [esi+2420], xmm0

; 15   : }

  00053	8b c6		 mov	 eax, esi
  00055	e8 00 00 00 00	 call	 __EH_epilog3
  0005a	c3		 ret	 0
_TEXT	ENDS
;	COMDAT text$x
text$x	SEGMENT
__unwindfunclet$??0ioHideBuff@@QAE@XZ$0:
  00000	8b 4d f0	 mov	 ecx, DWORD PTR _this$[ebp]
  00003	e9 00 00 00 00	 jmp	 ??1ioBuff@@UAE@XZ	; ioBuff::~ioBuff
__unwindfunclet$??0ioHideBuff@@QAE@XZ$1:
  00008	8b 4d f0	 mov	 ecx, DWORD PTR _this$[ebp]
  0000b	81 c1 84 09 00
	00		 add	 ecx, 2436		; 00000984H
  00011	ff 25 00 00 00
	00		 jmp	 DWORD PTR __imp_??1ioHashString@@QAE@XZ
__ehhandler$??0ioHideBuff@@QAE@XZ:
  00017	8b 54 24 08	 mov	 edx, DWORD PTR [esp+8]
  0001b	8d 42 0c	 lea	 eax, DWORD PTR [edx+12]
  0001e	8b 4a ec	 mov	 ecx, DWORD PTR [edx-20]
  00021	33 c8		 xor	 ecx, eax
  00023	e8 00 00 00 00	 call	 @__security_check_cookie@4
  00028	b8 00 00 00 00	 mov	 eax, OFFSET __ehfuncinfo$??0ioHideBuff@@QAE@XZ
  0002d	e9 00 00 00 00	 jmp	 ___CxxFrameHandler3
text$x	ENDS
??0ioHideBuff@@QAE@XZ ENDP				; ioHideBuff::ioHideBuff
PUBLIC	??0ioHideBuff@@QAE@ABV0@@Z			; ioHideBuff::ioHideBuff
EXTRN	__imp_??0ioHashString@@QAE@ABV0@@Z:PROC
EXTRN	??0ioBuff@@QAE@ABV0@@Z:PROC			; ioBuff::ioBuff
;	COMDAT xdata$x
xdata$x	SEGMENT
__unwindtable$??0ioHideBuff@@QAE@ABV0@@Z DD 0ffffffffH
	DD	FLAT:__unwindfunclet$??0ioHideBuff@@QAE@ABV0@@Z$0
	DD	00H
	DD	FLAT:__unwindfunclet$??0ioHideBuff@@QAE@ABV0@@Z$1
__ehfuncinfo$??0ioHideBuff@@QAE@ABV0@@Z DD 019930522H
	DD	02H
	DD	FLAT:__unwindtable$??0ioHideBuff@@QAE@ABV0@@Z
	DD	2 DUP(00H)
	DD	2 DUP(00H)
	DD	00H
	DD	01H
; Function compile flags: /Ogsp
xdata$x	ENDS
;	COMDAT ??0ioHideBuff@@QAE@ABV0@@Z
_TEXT	SEGMENT
_this$ = -16						; size = 4
__$EHRec$ = -12						; size = 12
_rhs$ = 8						; size = 4
??0ioHideBuff@@QAE@ABV0@@Z PROC				; ioHideBuff::ioHideBuff, COMDAT
; _this$ = ecx

; 27   : {

  00000	6a 04		 push	 4
  00002	b8 00 00 00 00	 mov	 eax, __ehhandler$??0ioHideBuff@@QAE@ABV0@@Z
  00007	e8 00 00 00 00	 call	 __EH_prolog3
  0000c	8b f1		 mov	 esi, ecx
  0000e	89 75 f0	 mov	 DWORD PTR _this$[ebp], esi
  00011	8b 7d 08	 mov	 edi, DWORD PTR _rhs$[ebp]
  00014	57		 push	 edi
  00015	e8 00 00 00 00	 call	 ??0ioBuff@@QAE@ABV0@@Z	; ioBuff::ioBuff
  0001a	8b 1d 00 00 00
	00		 mov	 ebx, DWORD PTR __imp_??0ioHashString@@QAE@ABV0@@Z
  00020	83 65 fc 00	 and	 DWORD PTR __$EHRec$[ebp+8], 0
  00024	c7 06 00 00 00
	00		 mov	 DWORD PTR [esi], OFFSET ??_7ioHideBuff@@6B@
  0002a	d9 87 6c 09 00
	00		 fld	 DWORD PTR [edi+2412]
  00030	d9 9e 6c 09 00
	00		 fstp	 DWORD PTR [esi+2412]
  00036	8d 8e 84 09 00
	00		 lea	 ecx, DWORD PTR [esi+2436]
  0003c	d9 87 70 09 00
	00		 fld	 DWORD PTR [edi+2416]
  00042	d9 9e 70 09 00
	00		 fstp	 DWORD PTR [esi+2416]
  00048	8b 87 78 09 00
	00		 mov	 eax, DWORD PTR [edi+2424]
  0004e	89 86 78 09 00
	00		 mov	 DWORD PTR [esi+2424], eax
  00054	8d 87 84 09 00
	00		 lea	 eax, DWORD PTR [edi+2436]
  0005a	50		 push	 eax
  0005b	ff d3		 call	 ebx
  0005d	8d 87 94 09 00
	00		 lea	 eax, DWORD PTR [edi+2452]
  00063	50		 push	 eax
  00064	8d 8e 94 09 00
	00		 lea	 ecx, DWORD PTR [esi+2452]
  0006a	c6 45 fc 01	 mov	 BYTE PTR __$EHRec$[ebp+8], 1
  0006e	ff d3		 call	 ebx
  00070	8a 87 a4 09 00
	00		 mov	 al, BYTE PTR [edi+2468]

; 28   : 	m_dwStartTime = 0;
; 29   : 	m_bSetVisible = false;
; 30   : 	m_fCurSpeed = 0.0f;

  00076	0f 57 c0	 xorps	 xmm0, xmm0
  00079	88 86 a4 09 00
	00		 mov	 BYTE PTR [esi+2468], al
  0007f	8a 87 a5 09 00
	00		 mov	 al, BYTE PTR [edi+2469]
  00085	88 86 a5 09 00
	00		 mov	 BYTE PTR [esi+2469], al
  0008b	8a 87 a6 09 00
	00		 mov	 al, BYTE PTR [edi+2470]
  00091	83 a6 80 09 00
	00 00		 and	 DWORD PTR [esi+2432], 0
  00098	88 86 a6 09 00
	00		 mov	 BYTE PTR [esi+2470], al
  0009e	c6 86 7c 09 00
	00 00		 mov	 BYTE PTR [esi+2428], 0
  000a5	f3 0f 11 86 74
	09 00 00	 movss	 DWORD PTR [esi+2420], xmm0

; 31   : }

  000ad	8b c6		 mov	 eax, esi
  000af	e8 00 00 00 00	 call	 __EH_epilog3
  000b4	c2 04 00	 ret	 4
_TEXT	ENDS
;	COMDAT text$x
text$x	SEGMENT
__unwindfunclet$??0ioHideBuff@@QAE@ABV0@@Z$0:
  00000	8b 4d f0	 mov	 ecx, DWORD PTR _this$[ebp]
  00003	e9 00 00 00 00	 jmp	 ??1ioBuff@@UAE@XZ	; ioBuff::~ioBuff
__unwindfunclet$??0ioHideBuff@@QAE@ABV0@@Z$1:
  00008	8b 4d f0	 mov	 ecx, DWORD PTR _this$[ebp]
  0000b	81 c1 84 09 00
	00		 add	 ecx, 2436		; 00000984H
  00011	ff 25 00 00 00
	00		 jmp	 DWORD PTR __imp_??1ioHashString@@QAE@XZ
__ehhandler$??0ioHideBuff@@QAE@ABV0@@Z:
  00017	8b 54 24 08	 mov	 edx, DWORD PTR [esp+8]
  0001b	8d 42 0c	 lea	 eax, DWORD PTR [edx+12]
  0001e	8b 4a ec	 mov	 ecx, DWORD PTR [edx-20]
  00021	33 c8		 xor	 ecx, eax
  00023	e8 00 00 00 00	 call	 @__security_check_cookie@4
  00028	b8 00 00 00 00	 mov	 eax, OFFSET __ehfuncinfo$??0ioHideBuff@@QAE@ABV0@@Z
  0002d	e9 00 00 00 00	 jmp	 ___CxxFrameHandler3
text$x	ENDS
??0ioHideBuff@@QAE@ABV0@@Z ENDP				; ioHideBuff::ioHideBuff
PUBLIC	??1ioHideBuff@@UAE@XZ				; ioHideBuff::~ioHideBuff
;	COMDAT xdata$x
xdata$x	SEGMENT
__unwindtable$??1ioHideBuff@@UAE@XZ DD 0ffffffffH
	DD	FLAT:__unwindfunclet$??1ioHideBuff@@UAE@XZ$0
	DD	00H
	DD	FLAT:__unwindfunclet$??1ioHideBuff@@UAE@XZ$1
__ehfuncinfo$??1ioHideBuff@@UAE@XZ DD 019930522H
	DD	02H
	DD	FLAT:__unwindtable$??1ioHideBuff@@UAE@XZ
	DD	2 DUP(00H)
	DD	2 DUP(00H)
	DD	00H
	DD	01H
; Function compile flags: /Ogsp
xdata$x	ENDS
;	COMDAT ??1ioHideBuff@@UAE@XZ
_TEXT	SEGMENT
_this$ = -16						; size = 4
__$EHRec$ = -12						; size = 12
??1ioHideBuff@@UAE@XZ PROC				; ioHideBuff::~ioHideBuff, COMDAT
; _this$ = ecx

; 34   : {

  00000	6a 04		 push	 4
  00002	b8 00 00 00 00	 mov	 eax, __ehhandler$??1ioHideBuff@@UAE@XZ
  00007	e8 00 00 00 00	 call	 __EH_prolog3
  0000c	8b f1		 mov	 esi, ecx
  0000e	89 75 f0	 mov	 DWORD PTR _this$[ebp], esi
  00011	c7 06 00 00 00
	00		 mov	 DWORD PTR [esi], OFFSET ??_7ioHideBuff@@6B@

; 35   : }

  00017	8b 3d 00 00 00
	00		 mov	 edi, DWORD PTR __imp_??1ioHashString@@QAE@XZ
  0001d	8d 8e 94 09 00
	00		 lea	 ecx, DWORD PTR [esi+2452]
  00023	c7 45 fc 01 00
	00 00		 mov	 DWORD PTR __$EHRec$[ebp+8], 1
  0002a	ff d7		 call	 edi
  0002c	8d 8e 84 09 00
	00		 lea	 ecx, DWORD PTR [esi+2436]
  00032	c6 45 fc 00	 mov	 BYTE PTR __$EHRec$[ebp+8], 0
  00036	ff d7		 call	 edi
  00038	83 4d fc ff	 or	 DWORD PTR __$EHRec$[ebp+8], -1
  0003c	8b ce		 mov	 ecx, esi
  0003e	e8 00 00 00 00	 call	 ??1ioBuff@@UAE@XZ	; ioBuff::~ioBuff
  00043	e8 00 00 00 00	 call	 __EH_epilog3
  00048	c3		 ret	 0
_TEXT	ENDS
;	COMDAT text$x
text$x	SEGMENT
__unwindfunclet$??1ioHideBuff@@UAE@XZ$0:
  00000	8b 4d f0	 mov	 ecx, DWORD PTR _this$[ebp]
  00003	e9 00 00 00 00	 jmp	 ??1ioBuff@@UAE@XZ	; ioBuff::~ioBuff
__unwindfunclet$??1ioHideBuff@@UAE@XZ$1:
  00008	8b 4d f0	 mov	 ecx, DWORD PTR _this$[ebp]
  0000b	81 c1 84 09 00
	00		 add	 ecx, 2436		; 00000984H
  00011	ff 25 00 00 00
	00		 jmp	 DWORD PTR __imp_??1ioHashString@@QAE@XZ
__ehhandler$??1ioHideBuff@@UAE@XZ:
  00017	8b 54 24 08	 mov	 edx, DWORD PTR [esp+8]
  0001b	8d 42 0c	 lea	 eax, DWORD PTR [edx+12]
  0001e	8b 4a ec	 mov	 ecx, DWORD PTR [edx-20]
  00021	33 c8		 xor	 ecx, eax
  00023	e8 00 00 00 00	 call	 @__security_check_cookie@4
  00028	b8 00 00 00 00	 mov	 eax, OFFSET __ehfuncinfo$??1ioHideBuff@@UAE@XZ
  0002d	e9 00 00 00 00	 jmp	 ___CxxFrameHandler3
text$x	ENDS
??1ioHideBuff@@UAE@XZ ENDP				; ioHideBuff::~ioHideBuff
EXTRN	??3@YAXPAX@Z:PROC				; operator delete
EXTRN	??2@YAPAXI@Z:PROC				; operator new
;	COMDAT xdata$x
xdata$x	SEGMENT
__unwindtable$?Clone@ioHideBuff@@UAEPAVioBuff@@XZ DD 0ffffffffH
	DD	FLAT:__unwindfunclet$?Clone@ioHideBuff@@UAEPAVioBuff@@XZ$0
__ehfuncinfo$?Clone@ioHideBuff@@UAEPAVioBuff@@XZ DD 019930522H
	DD	01H
	DD	FLAT:__unwindtable$?Clone@ioHideBuff@@UAEPAVioBuff@@XZ
	DD	2 DUP(00H)
	DD	2 DUP(00H)
	DD	00H
	DD	01H
; Function compile flags: /Ogsp
xdata$x	ENDS
;	COMDAT ?Clone@ioHideBuff@@UAEPAVioBuff@@XZ
_TEXT	SEGMENT
$T525459 = -16						; size = 4
__$EHRec$ = -12						; size = 12
?Clone@ioHideBuff@@UAEPAVioBuff@@XZ PROC		; ioHideBuff::Clone, COMDAT
; _this$ = ecx

; 60   : {

  00000	6a 04		 push	 4
  00002	b8 00 00 00 00	 mov	 eax, __ehhandler$?Clone@ioHideBuff@@UAEPAVioBuff@@XZ
  00007	e8 00 00 00 00	 call	 __EH_prolog3
  0000c	8b f1		 mov	 esi, ecx

; 61   : 	return new ioHideBuff( *this );

  0000e	68 a8 09 00 00	 push	 2472			; 000009a8H
  00013	e8 00 00 00 00	 call	 ??2@YAPAXI@Z		; operator new
  00018	59		 pop	 ecx
  00019	8b c8		 mov	 ecx, eax
  0001b	89 4d f0	 mov	 DWORD PTR $T525459[ebp], ecx
  0001e	33 c0		 xor	 eax, eax
  00020	89 45 fc	 mov	 DWORD PTR __$EHRec$[ebp+8], eax
  00023	3b c8		 cmp	 ecx, eax
  00025	74 06		 je	 SHORT $LN3@Clone
  00027	56		 push	 esi
  00028	e8 00 00 00 00	 call	 ??0ioHideBuff@@QAE@ABV0@@Z ; ioHideBuff::ioHideBuff
$LN3@Clone:

; 62   : }

  0002d	e8 00 00 00 00	 call	 __EH_epilog3
  00032	c3		 ret	 0
_TEXT	ENDS
;	COMDAT text$x
text$x	SEGMENT
__unwindfunclet$?Clone@ioHideBuff@@UAEPAVioBuff@@XZ$0:
  00000	ff 75 f0	 push	 DWORD PTR $T525459[ebp]
  00003	e8 00 00 00 00	 call	 ??3@YAXPAX@Z		; operator delete
  00008	59		 pop	 ecx
  00009	c3		 ret	 0
__ehhandler$?Clone@ioHideBuff@@UAEPAVioBuff@@XZ:
  0000a	8b 54 24 08	 mov	 edx, DWORD PTR [esp+8]
  0000e	8d 42 0c	 lea	 eax, DWORD PTR [edx+12]
  00011	8b 4a ec	 mov	 ecx, DWORD PTR [edx-20]
  00014	33 c8		 xor	 ecx, eax
  00016	e8 00 00 00 00	 call	 @__security_check_cookie@4
  0001b	b8 00 00 00 00	 mov	 eax, OFFSET __ehfuncinfo$?Clone@ioHideBuff@@UAEPAVioBuff@@XZ
  00020	e9 00 00 00 00	 jmp	 ___CxxFrameHandler3
text$x	ENDS
?Clone@ioHideBuff@@UAEPAVioBuff@@XZ ENDP		; ioHideBuff::Clone
PUBLIC	__real@3f800000
EXTRN	__imp_?GetLoopSec@ioFrameTimer@@QBEKXZ:PROC
EXTRN	__imp_?GetSingleton@ioFrameTimer@@SAAAV1@XZ:PROC
EXTRN	?SetExtraMoveSpeed@ioBaseChar@@QAEXMM@Z:PROC	; ioBaseChar::SetExtraMoveSpeed
EXTRN	?SetEnableHide@ioBaseChar@@QAEX_NVioHashString@@1@Z:PROC ; ioBaseChar::SetEnableHide
EXTRN	?StartBuff@ioBuff@@UAEXPAVioBaseChar@@@Z:PROC	; ioBuff::StartBuff
;	COMDAT __real@3f800000
; File d:\lost saga for developer\youtube\tutorial\source\src\lsclient\iobasechar.h
CONST	SEGMENT
__real@3f800000 DD 03f800000r			; 1
CONST	ENDS
;	COMDAT xdata$x
xdata$x	SEGMENT
__unwindtable$?StartBuff@ioHideBuff@@UAEXPAVioBaseChar@@@Z DD 0ffffffffH
	DD	FLAT:__unwindfunclet$?StartBuff@ioHideBuff@@UAEXPAVioBaseChar@@@Z$0
__ehfuncinfo$?StartBuff@ioHideBuff@@UAEXPAVioBaseChar@@@Z DD 019930522H
	DD	01H
	DD	FLAT:__unwindtable$?StartBuff@ioHideBuff@@UAEXPAVioBaseChar@@@Z
	DD	2 DUP(00H)
	DD	2 DUP(00H)
	DD	00H
	DD	01H
; Function compile flags: /Ogsp
; File d:\lost saga for developer\youtube\tutorial\source\src\lsclient\iohidebuff.cpp
xdata$x	ENDS
;	COMDAT ?StartBuff@ioHideBuff@@UAEXPAVioBaseChar@@@Z
_TEXT	SEGMENT
$T525472 = -16						; size = 4
__$EHRec$ = -12						; size = 12
$T525471 = 8						; size = 4
_pOwner$ = 8						; size = 4
?StartBuff@ioHideBuff@@UAEXPAVioBaseChar@@@Z PROC	; ioHideBuff::StartBuff, COMDAT
; _this$ = ecx

; 65   : {

  00000	6a 04		 push	 4
  00002	b8 00 00 00 00	 mov	 eax, __ehhandler$?StartBuff@ioHideBuff@@UAEXPAVioBaseChar@@@Z
  00007	e8 00 00 00 00	 call	 __EH_prolog3
  0000c	8b f1		 mov	 esi, ecx

; 66   : 	ioBuff::StartBuff( pOwner );

  0000e	8b 5d 08	 mov	 ebx, DWORD PTR _pOwner$[ebp]
  00011	53		 push	 ebx
  00012	e8 00 00 00 00	 call	 ?StartBuff@ioBuff@@UAEXPAVioBaseChar@@@Z ; ioBuff::StartBuff

; 67   : 
; 68   : 	m_fCurSpeed = m_fAddSpeed;

  00017	d9 86 70 09 00
	00		 fld	 DWORD PTR [esi+2416]

; 69   : 
; 70   : 	pOwner->SetEnableHide( true, m_DelayAnimation, m_MoveAnimation );

  0001d	8b 3d 00 00 00
	00		 mov	 edi, DWORD PTR __imp_??0ioHashString@@QAE@ABV0@@Z
  00023	d9 9e 74 09 00
	00		 fstp	 DWORD PTR [esi+2420]
  00029	83 ec 10	 sub	 esp, 16			; 00000010H
  0002c	8d 86 94 09 00
	00		 lea	 eax, DWORD PTR [esi+2452]
  00032	8b cc		 mov	 ecx, esp
  00034	89 65 08	 mov	 DWORD PTR $T525471[ebp], esp
  00037	50		 push	 eax
  00038	ff d7		 call	 edi
  0003a	83 65 fc 00	 and	 DWORD PTR __$EHRec$[ebp+8], 0
  0003e	83 ec 10	 sub	 esp, 16			; 00000010H
  00041	8d 86 84 09 00
	00		 lea	 eax, DWORD PTR [esi+2436]
  00047	8b cc		 mov	 ecx, esp
  00049	89 65 f0	 mov	 DWORD PTR $T525472[ebp], esp
  0004c	50		 push	 eax
  0004d	ff d7		 call	 edi
  0004f	83 4d fc ff	 or	 DWORD PTR __$EHRec$[ebp+8], -1
  00053	6a 01		 push	 1
  00055	8b cb		 mov	 ecx, ebx
  00057	e8 00 00 00 00	 call	 ?SetEnableHide@ioBaseChar@@QAEX_NVioHashString@@1@Z ; ioBaseChar::SetEnableHide

; 71   : 	pOwner->SetExtraMoveSpeed( m_fCurSpeed );

  0005c	f3 0f 10 05 00
	00 00 00	 movss	 xmm0, DWORD PTR __real@3f800000
  00064	51		 push	 ecx
  00065	51		 push	 ecx
  00066	f3 0f 11 44 24
	04		 movss	 DWORD PTR [esp+4], xmm0
  0006c	f3 0f 10 86 74
	09 00 00	 movss	 xmm0, DWORD PTR [esi+2420]
  00074	8b cb		 mov	 ecx, ebx
  00076	f3 0f 11 04 24	 movss	 DWORD PTR [esp], xmm0
  0007b	e8 00 00 00 00	 call	 ?SetExtraMoveSpeed@ioBaseChar@@QAEXMM@Z ; ioBaseChar::SetExtraMoveSpeed

; 72   : 	m_dwStartTime = FRAMEGETTIME();

  00080	ff 15 00 00 00
	00		 call	 DWORD PTR __imp_?GetSingleton@ioFrameTimer@@SAAAV1@XZ
  00086	8b c8		 mov	 ecx, eax
  00088	ff 15 00 00 00
	00		 call	 DWORD PTR __imp_?GetLoopSec@ioFrameTimer@@QBEKXZ

; 73   : 	m_bSetVisible = false;
; 74   : 
; 75   : 	if( m_bEnableDash )

  0008e	80 be a5 09 00
	00 00		 cmp	 BYTE PTR [esi+2469], 0
  00095	89 86 80 09 00
	00		 mov	 DWORD PTR [esi+2432], eax
  0009b	c6 86 7c 09 00
	00 00		 mov	 BYTE PTR [esi+2428], 0
  000a2	74 07		 je	 SHORT $LN6@StartBuff

; 76   : 		pOwner->SetEnableDashOnHideBuff( true );

  000a4	c6 83 c4 18 00
	00 01		 mov	 BYTE PTR [ebx+6340], 1
$LN6@StartBuff:

; 77   : }

  000ab	e8 00 00 00 00	 call	 __EH_epilog3
  000b0	c2 04 00	 ret	 4
_TEXT	ENDS
;	COMDAT text$x
text$x	SEGMENT
__unwindfunclet$?StartBuff@ioHideBuff@@UAEXPAVioBaseChar@@@Z$0:
  00000	8b 4d 08	 mov	 ecx, DWORD PTR $T525471[ebp]
  00003	ff 25 00 00 00
	00		 jmp	 DWORD PTR __imp_??1ioHashString@@QAE@XZ
__ehhandler$?StartBuff@ioHideBuff@@UAEXPAVioBaseChar@@@Z:
  00009	8b 54 24 08	 mov	 edx, DWORD PTR [esp+8]
  0000d	8d 42 0c	 lea	 eax, DWORD PTR [edx+12]
  00010	8b 4a ec	 mov	 ecx, DWORD PTR [edx-20]
  00013	33 c8		 xor	 ecx, eax
  00015	e8 00 00 00 00	 call	 @__security_check_cookie@4
  0001a	b8 00 00 00 00	 mov	 eax, OFFSET __ehfuncinfo$?StartBuff@ioHideBuff@@UAEXPAVioBaseChar@@@Z
  0001f	e9 00 00 00 00	 jmp	 ___CxxFrameHandler3
text$x	ENDS
?StartBuff@ioHideBuff@@UAEXPAVioBaseChar@@@Z ENDP	; ioHideBuff::StartBuff
EXTRN	?ApplyStartBuff@ioBuff@@UAE_NPAVioBaseChar@@KK@Z:PROC ; ioBuff::ApplyStartBuff
;	COMDAT xdata$x
; File d:\lost saga for developer\youtube\tutorial\source\src\lsclient\iobasechar.h
xdata$x	SEGMENT
__unwindtable$?ApplyStartBuff@ioHideBuff@@UAE_NPAVioBaseChar@@KK@Z DD 0ffffffffH
	DD	FLAT:__unwindfunclet$?ApplyStartBuff@ioHideBuff@@UAE_NPAVioBaseChar@@KK@Z$0
__ehfuncinfo$?ApplyStartBuff@ioHideBuff@@UAE_NPAVioBaseChar@@KK@Z DD 019930522H
	DD	01H
	DD	FLAT:__unwindtable$?ApplyStartBuff@ioHideBuff@@UAE_NPAVioBaseChar@@KK@Z
	DD	2 DUP(00H)
	DD	2 DUP(00H)
	DD	00H
	DD	01H
; Function compile flags: /Ogsp
; File d:\lost saga for developer\youtube\tutorial\source\src\lsclient\iohidebuff.cpp
xdata$x	ENDS
;	COMDAT ?ApplyStartBuff@ioHideBuff@@UAE_NPAVioBaseChar@@KK@Z
_TEXT	SEGMENT
__$EHRec$ = -12						; size = 12
_pOwner$ = 8						; size = 4
$T525489 = 12						; size = 4
_dwGlobalTime$ = 12					; size = 4
$T525488 = 16						; size = 4
_dwGapTime$ = 16					; size = 4
?ApplyStartBuff@ioHideBuff@@UAE_NPAVioBaseChar@@KK@Z PROC ; ioHideBuff::ApplyStartBuff, COMDAT
; _this$ = ecx

; 80   : {

  00000	6a 00		 push	 0
  00002	b8 00 00 00 00	 mov	 eax, __ehhandler$?ApplyStartBuff@ioHideBuff@@UAE_NPAVioBaseChar@@KK@Z
  00007	e8 00 00 00 00	 call	 __EH_prolog3
  0000c	8b f1		 mov	 esi, ecx

; 81   : 	if( !ioBuff::ApplyStartBuff( pOwner, dwGlobalTime, dwGapTime ) )

  0000e	ff 75 10	 push	 DWORD PTR _dwGapTime$[ebp]
  00011	8b 5d 08	 mov	 ebx, DWORD PTR _pOwner$[ebp]
  00014	ff 75 0c	 push	 DWORD PTR _dwGlobalTime$[ebp]
  00017	53		 push	 ebx
  00018	e8 00 00 00 00	 call	 ?ApplyStartBuff@ioBuff@@UAE_NPAVioBaseChar@@KK@Z ; ioBuff::ApplyStartBuff
  0001d	84 c0		 test	 al, al
  0001f	0f 84 96 00 00
	00		 je	 $LN3@ApplyStart
$LN2@ApplyStart:

; 82   : 		return false;
; 83   : 
; 84   : 	m_fCurSpeed = m_fAddSpeed;

  00025	d9 86 70 09 00
	00		 fld	 DWORD PTR [esi+2416]

; 85   : 
; 86   : 	pOwner->SetEnableHide( true, m_DelayAnimation, m_MoveAnimation );

  0002b	8b 3d 00 00 00
	00		 mov	 edi, DWORD PTR __imp_??0ioHashString@@QAE@ABV0@@Z
  00031	83 ec 10	 sub	 esp, 16			; 00000010H
  00034	d9 9e 74 09 00
	00		 fstp	 DWORD PTR [esi+2420]
  0003a	8d 86 94 09 00
	00		 lea	 eax, DWORD PTR [esi+2452]
  00040	8b cc		 mov	 ecx, esp
  00042	89 65 10	 mov	 DWORD PTR $T525488[ebp], esp
  00045	50		 push	 eax
  00046	ff d7		 call	 edi
  00048	83 65 fc 00	 and	 DWORD PTR __$EHRec$[ebp+8], 0
  0004c	83 ec 10	 sub	 esp, 16			; 00000010H
  0004f	8d 86 84 09 00
	00		 lea	 eax, DWORD PTR [esi+2436]
  00055	8b cc		 mov	 ecx, esp
  00057	89 65 0c	 mov	 DWORD PTR $T525489[ebp], esp
  0005a	50		 push	 eax
  0005b	ff d7		 call	 edi
  0005d	83 4d fc ff	 or	 DWORD PTR __$EHRec$[ebp+8], -1
  00061	6a 01		 push	 1
  00063	8b cb		 mov	 ecx, ebx
  00065	e8 00 00 00 00	 call	 ?SetEnableHide@ioBaseChar@@QAEX_NVioHashString@@1@Z ; ioBaseChar::SetEnableHide

; 87   : 	pOwner->SetExtraMoveSpeed( m_fCurSpeed );

  0006a	f3 0f 10 05 00
	00 00 00	 movss	 xmm0, DWORD PTR __real@3f800000
  00072	51		 push	 ecx
  00073	51		 push	 ecx
  00074	f3 0f 11 44 24
	04		 movss	 DWORD PTR [esp+4], xmm0
  0007a	f3 0f 10 86 74
	09 00 00	 movss	 xmm0, DWORD PTR [esi+2420]
  00082	8b cb		 mov	 ecx, ebx
  00084	f3 0f 11 04 24	 movss	 DWORD PTR [esp], xmm0
  00089	e8 00 00 00 00	 call	 ?SetExtraMoveSpeed@ioBaseChar@@QAEXMM@Z ; ioBaseChar::SetExtraMoveSpeed

; 88   : 	m_dwStartTime = FRAMEGETTIME();

  0008e	ff 15 00 00 00
	00		 call	 DWORD PTR __imp_?GetSingleton@ioFrameTimer@@SAAAV1@XZ
  00094	8b c8		 mov	 ecx, eax
  00096	ff 15 00 00 00
	00		 call	 DWORD PTR __imp_?GetLoopSec@ioFrameTimer@@QBEKXZ

; 89   : 	
; 90   : 	m_bSetVisible = false;
; 91   : 
; 92   : 	if( m_bEnableDash )

  0009c	80 be a5 09 00
	00 00		 cmp	 BYTE PTR [esi+2469], 0
  000a3	89 86 80 09 00
	00		 mov	 DWORD PTR [esi+2432], eax
  000a9	c6 86 7c 09 00
	00 00		 mov	 BYTE PTR [esi+2428], 0
  000b0	74 07		 je	 SHORT $LN7@ApplyStart

; 93   : 		pOwner->SetEnableDashOnHideBuff( true );

  000b2	c6 83 c4 18 00
	00 01		 mov	 BYTE PTR [ebx+6340], 1
$LN7@ApplyStart:

; 94   : 
; 95   : 	return true;

  000b9	b0 01		 mov	 al, 1
$LN3@ApplyStart:

; 96   : }

  000bb	e8 00 00 00 00	 call	 __EH_epilog3
  000c0	c2 0c 00	 ret	 12			; 0000000cH
_TEXT	ENDS
;	COMDAT text$x
text$x	SEGMENT
__unwindfunclet$?ApplyStartBuff@ioHideBuff@@UAE_NPAVioBaseChar@@KK@Z$0:
  00000	8b 4d 10	 mov	 ecx, DWORD PTR $T525488[ebp]
  00003	ff 25 00 00 00
	00		 jmp	 DWORD PTR __imp_??1ioHashString@@QAE@XZ
__ehhandler$?ApplyStartBuff@ioHideBuff@@UAE_NPAVioBaseChar@@KK@Z:
  00009	8b 54 24 08	 mov	 edx, DWORD PTR [esp+8]
  0000d	8d 42 0c	 lea	 eax, DWORD PTR [edx+12]
  00010	8b 4a f0	 mov	 ecx, DWORD PTR [edx-16]
  00013	33 c8		 xor	 ecx, eax
  00015	e8 00 00 00 00	 call	 @__security_check_cookie@4
  0001a	b8 00 00 00 00	 mov	 eax, OFFSET __ehfuncinfo$?ApplyStartBuff@ioHideBuff@@UAE_NPAVioBaseChar@@KK@Z
  0001f	e9 00 00 00 00	 jmp	 ___CxxFrameHandler3
text$x	ENDS
?ApplyStartBuff@ioHideBuff@@UAE_NPAVioBaseChar@@KK@Z ENDP ; ioHideBuff::ApplyStartBuff
PUBLIC	??_C@_00CNPNBAHC@?$AA@				; `string'
EXTRN	?EndBuff@ioBuff@@UAEXXZ:PROC			; ioBuff::EndBuff
EXTRN	?SetState@ioBaseChar@@QAEXH_N@Z:PROC		; ioBaseChar::SetState
EXTRN	?RemoveExtraMoveSpeed@ioBaseChar@@QAEXM@Z:PROC	; ioBaseChar::RemoveExtraMoveSpeed
EXTRN	__imp_??0ioHashString@@QAE@PBD@Z:PROC
EXTRN	?SetHideChar@ioBaseChar@@QAEX_N@Z:PROC		; ioBaseChar::SetHideChar
EXTRN	?SetAlphaRateDirect@ioGameEntity@@QAEXH@Z:PROC	; ioGameEntity::SetAlphaRateDirect
EXTRN	?GetOwner@ioBuff@@QAEPAVioBaseChar@@XZ:PROC	; ioBuff::GetOwner
;	COMDAT ??_C@_00CNPNBAHC@?$AA@
; File d:\lost saga for developer\youtube\tutorial\source\src\lsclient\iobasechar.h
CONST	SEGMENT
??_C@_00CNPNBAHC@?$AA@ DB 00H				; `string'
CONST	ENDS
;	COMDAT xdata$x
xdata$x	SEGMENT
__unwindtable$?EndBuff@ioHideBuff@@UAEXXZ DD 0ffffffffH
	DD	FLAT:__unwindfunclet$?EndBuff@ioHideBuff@@UAEXXZ$0
__ehfuncinfo$?EndBuff@ioHideBuff@@UAEXXZ DD 019930522H
	DD	01H
	DD	FLAT:__unwindtable$?EndBuff@ioHideBuff@@UAEXXZ
	DD	2 DUP(00H)
	DD	2 DUP(00H)
	DD	00H
	DD	01H
; Function compile flags: /Ogsp
; File d:\lost saga for developer\youtube\tutorial\source\src\lsclient\iohidebuff.cpp
xdata$x	ENDS
;	COMDAT ?EndBuff@ioHideBuff@@UAEXXZ
_TEXT	SEGMENT
$T525504 = -24						; size = 4
$T525503 = -20						; size = 4
_this$ = -16						; size = 4
__$EHRec$ = -12						; size = 12
?EndBuff@ioHideBuff@@UAEXXZ PROC			; ioHideBuff::EndBuff, COMDAT
; _this$ = ecx

; 153  : {

  00000	6a 0c		 push	 12			; 0000000cH
  00002	b8 00 00 00 00	 mov	 eax, __ehhandler$?EndBuff@ioHideBuff@@UAEXXZ
  00007	e8 00 00 00 00	 call	 __EH_prolog3
  0000c	89 4d f0	 mov	 DWORD PTR _this$[ebp], ecx

; 154  : 	ioBaseChar *pOwner = GetOwner();

  0000f	e8 00 00 00 00	 call	 ?GetOwner@ioBuff@@QAEPAVioBaseChar@@XZ ; ioBuff::GetOwner
  00014	8b f0		 mov	 esi, eax

; 155  : 	if( !pOwner )

  00016	85 f6		 test	 esi, esi
  00018	0f 84 9b 00 00
	00		 je	 $LN6@EndBuff

; 156  : 		return;
; 157  : 
; 158  : 	pOwner->SetAlphaRateDirect( MAX_ALPHA_RATE );

  0001e	68 ff 00 00 00	 push	 255			; 000000ffH
  00023	8b ce		 mov	 ecx, esi
  00025	e8 00 00 00 00	 call	 ?SetAlphaRateDirect@ioGameEntity@@QAEXH@Z ; ioGameEntity::SetAlphaRateDirect

; 159  : 	pOwner->SetHideChar( false );

  0002a	6a 00		 push	 0
  0002c	8b ce		 mov	 ecx, esi
  0002e	e8 00 00 00 00	 call	 ?SetHideChar@ioBaseChar@@QAEX_N@Z ; ioBaseChar::SetHideChar

; 160  : 	pOwner->SetEnableHide( false );

  00033	8b 3d 00 00 00
	00		 mov	 edi, DWORD PTR __imp_??0ioHashString@@QAE@PBD@Z
  00039	83 ec 10	 sub	 esp, 16			; 00000010H
  0003c	8b cc		 mov	 ecx, esp
  0003e	89 65 ec	 mov	 DWORD PTR $T525503[ebp], esp
  00041	bb 00 00 00 00	 mov	 ebx, OFFSET ??_C@_00CNPNBAHC@?$AA@
  00046	53		 push	 ebx
  00047	ff d7		 call	 edi
  00049	83 65 fc 00	 and	 DWORD PTR __$EHRec$[ebp+8], 0
  0004d	83 ec 10	 sub	 esp, 16			; 00000010H
  00050	8b cc		 mov	 ecx, esp
  00052	89 65 e8	 mov	 DWORD PTR $T525504[ebp], esp
  00055	53		 push	 ebx
  00056	ff d7		 call	 edi
  00058	83 4d fc ff	 or	 DWORD PTR __$EHRec$[ebp+8], -1
  0005c	6a 00		 push	 0
  0005e	8b ce		 mov	 ecx, esi
  00060	e8 00 00 00 00	 call	 ?SetEnableHide@ioBaseChar@@QAEX_NVioHashString@@1@Z ; ioBaseChar::SetEnableHide

; 161  : 	pOwner->RemoveExtraMoveSpeed( m_fCurSpeed );

  00065	8b 7d f0	 mov	 edi, DWORD PTR _this$[ebp]
  00068	f3 0f 10 87 74
	09 00 00	 movss	 xmm0, DWORD PTR [edi+2420]
  00070	51		 push	 ecx
  00071	8b ce		 mov	 ecx, esi
  00073	f3 0f 11 04 24	 movss	 DWORD PTR [esp], xmm0
  00078	e8 00 00 00 00	 call	 ?RemoveExtraMoveSpeed@ioBaseChar@@QAEXM@Z ; ioBaseChar::RemoveExtraMoveSpeed

; 162  : 
; 163  : 	if( pOwner->GetState() == CS_DELAY )

  0007d	8a 86 10 03 00
	00		 mov	 al, BYTE PTR [esi+784]
  00083	84 c0		 test	 al, al
  00085	75 0c		 jne	 SHORT $LN4@EndBuff

; 164  : 	{
; 165  : 		pOwner->SetState( CS_DELAY, m_bSendDelayNetWork );

  00087	0f b6 87 f9 08
	00 00		 movzx	 eax, BYTE PTR [edi+2297]
  0008e	50		 push	 eax
  0008f	6a 00		 push	 0
  00091	eb 08		 jmp	 SHORT $LN17@EndBuff
$LN4@EndBuff:

; 166  : 	}
; 167  : 	else if( pOwner->GetState() == CS_RUN )

  00093	3c 01		 cmp	 al, 1
  00095	75 0b		 jne	 SHORT $LN2@EndBuff

; 168  : 	{
; 169  : 		pOwner->SetState( CS_RUN );

  00097	6a 01		 push	 1
  00099	6a 01		 push	 1
$LN17@EndBuff:
  0009b	8b ce		 mov	 ecx, esi
  0009d	e8 00 00 00 00	 call	 ?SetState@ioBaseChar@@QAEXH_N@Z ; ioBaseChar::SetState
$LN2@EndBuff:

; 170  : 	}
; 171  : 
; 172  : 	if( m_bEnableDash )

  000a2	80 bf a5 09 00
	00 00		 cmp	 BYTE PTR [edi+2469], 0
  000a9	74 07		 je	 SHORT $LN14@EndBuff

; 173  : 		pOwner->SetEnableDashOnHideBuff( false );

  000ab	c6 86 c4 18 00
	00 00		 mov	 BYTE PTR [esi+6340], 0
$LN14@EndBuff:

; 174  : 
; 175  : 	ioBuff::EndBuff();

  000b2	8b cf		 mov	 ecx, edi
  000b4	e8 00 00 00 00	 call	 ?EndBuff@ioBuff@@UAEXXZ	; ioBuff::EndBuff
$LN6@EndBuff:

; 176  : }

  000b9	e8 00 00 00 00	 call	 __EH_epilog3
  000be	c3		 ret	 0
_TEXT	ENDS
;	COMDAT text$x
text$x	SEGMENT
__unwindfunclet$?EndBuff@ioHideBuff@@UAEXXZ$0:
  00000	8b 4d ec	 mov	 ecx, DWORD PTR $T525503[ebp]
  00003	ff 25 00 00 00
	00		 jmp	 DWORD PTR __imp_??1ioHashString@@QAE@XZ
__ehhandler$?EndBuff@ioHideBuff@@UAEXXZ:
  00009	8b 54 24 08	 mov	 edx, DWORD PTR [esp+8]
  0000d	8d 42 0c	 lea	 eax, DWORD PTR [edx+12]
  00010	8b 4a e4	 mov	 ecx, DWORD PTR [edx-28]
  00013	33 c8		 xor	 ecx, eax
  00015	e8 00 00 00 00	 call	 @__security_check_cookie@4
  0001a	b8 00 00 00 00	 mov	 eax, OFFSET __ehfuncinfo$?EndBuff@ioHideBuff@@UAEXXZ
  0001f	e9 00 00 00 00	 jmp	 ___CxxFrameHandler3
text$x	ENDS
?EndBuff@ioHideBuff@@UAEXXZ ENDP			; ioHideBuff::EndBuff
PUBLIC	?DecryptValueToPool@?$CEncrypt@W4JumpState@@@@QAEXPAW4JumpState@@@Z ; CEncrypt<enum JumpState>::DecryptValueToPool
EXTRN	?DecryptByte@ccddaabb@@QBEXPBDPADH@Z:PROC	; ccddaabb::DecryptByte
; Function compile flags: /Ogsp
; File d:\lost saga for developer\youtube\tutorial\source\src\lsclient\encryptvalue.h
;	COMDAT ?DecryptValueToPool@?$CEncrypt@W4JumpState@@@@QAEXPAW4JumpState@@@Z
_TEXT	SEGMENT
_value$ = 8						; size = 4
?DecryptValueToPool@?$CEncrypt@W4JumpState@@@@QAEXPAW4JumpState@@@Z PROC ; CEncrypt<enum JumpState>::DecryptValueToPool, COMDAT
; _this$ = ecx

; 2317 : 	{

  00000	55		 push	 ebp
  00001	8b ec		 mov	 ebp, esp
  00003	56		 push	 esi

; 2318 : 		m_RC5.DecryptByte( m_MemPool, m_TempMem, sizeof(JumpState) );

  00004	8d 71 28	 lea	 esi, DWORD PTR [ecx+40]
  00007	6a 04		 push	 4
  00009	8d 41 1c	 lea	 eax, DWORD PTR [ecx+28]
  0000c	56		 push	 esi
  0000d	50		 push	 eax
  0000e	83 c1 0c	 add	 ecx, 12			; 0000000cH
  00011	e8 00 00 00 00	 call	 ?DecryptByte@ccddaabb@@QBEXPBDPADH@Z ; ccddaabb::DecryptByte

; 2319 : 		*value = *((JumpState*)m_TempMem);

  00016	8b 06		 mov	 eax, DWORD PTR [esi]
  00018	8b 4d 08	 mov	 ecx, DWORD PTR _value$[ebp]
  0001b	89 01		 mov	 DWORD PTR [ecx], eax
  0001d	5e		 pop	 esi

; 2320 : 	}

  0001e	5d		 pop	 ebp
  0001f	c2 04 00	 ret	 4
?DecryptValueToPool@?$CEncrypt@W4JumpState@@@@QAEXPAW4JumpState@@@Z ENDP ; CEncrypt<enum JumpState>::DecryptValueToPool
_TEXT	ENDS
PUBLIC	?_DECSTR@@YAXPADH@Z				; _DECSTR
; Function compile flags: /Ogsp
; File d:\lost saga for developer\youtube\tutorial\source\src\lsclient\stringprotect.h
;	COMDAT ?_DECSTR@@YAXPADH@Z
_TEXT	SEGMENT
_s$ = 8							; size = 4
_l$ = 12						; size = 4
?_DECSTR@@YAXPADH@Z PROC				; _DECSTR, COMDAT

; 40   : __forceinline void _DECSTR(char* s, int l){int i=0,l4=(l-1)/4,*p=(int*)s;s[l-1]=0;for(;i<l4;++i)*(p++)^=0xEAEBECED;for(i=l4*4;i<l-1;++i)s[i]^=0xED-i%4;}

  00000	55		 push	 ebp
  00001	8b ec		 mov	 ebp, esp
  00003	8b 4d 0c	 mov	 ecx, DWORD PTR _l$[ebp]
  00006	56		 push	 esi
  00007	8b 75 08	 mov	 esi, DWORD PTR _s$[ebp]
  0000a	57		 push	 edi
  0000b	8d 79 ff	 lea	 edi, DWORD PTR [ecx-1]
  0000e	8b c7		 mov	 eax, edi
  00010	99		 cdq
  00011	83 e2 03	 and	 edx, 3
  00014	03 c2		 add	 eax, edx
  00016	c1 f8 02	 sar	 eax, 2
  00019	8b d6		 mov	 edx, esi
  0001b	c6 44 0e ff 00	 mov	 BYTE PTR [esi+ecx-1], 0
  00020	85 c0		 test	 eax, eax
  00022	7e 0e		 jle	 SHORT $LN4@DECSTR
  00024	8b c8		 mov	 ecx, eax
$LL6@DECSTR:
  00026	81 32 ed ec eb
	ea		 xor	 DWORD PTR [edx], -353637139 ; eaebecedH
  0002c	83 c2 04	 add	 edx, 4
  0002f	49		 dec	 ecx
  00030	75 f4		 jne	 SHORT $LL6@DECSTR
$LN4@DECSTR:
  00032	c1 e0 02	 shl	 eax, 2
  00035	eb 17		 jmp	 SHORT $LN14@DECSTR
$LL3@DECSTR:
  00037	8b c8		 mov	 ecx, eax
  00039	81 e1 03 00 00
	80		 and	 ecx, -2147483645	; 80000003H
  0003f	79 05		 jns	 SHORT $LN13@DECSTR
  00041	49		 dec	 ecx
  00042	83 c9 fc	 or	 ecx, -4			; fffffffcH
  00045	41		 inc	 ecx
$LN13@DECSTR:
  00046	b2 ed		 mov	 dl, -19			; ffffffedH
  00048	2a d1		 sub	 dl, cl
  0004a	30 14 30	 xor	 BYTE PTR [eax+esi], dl
  0004d	40		 inc	 eax
$LN14@DECSTR:
  0004e	3b c7		 cmp	 eax, edi
  00050	7c e5		 jl	 SHORT $LL3@DECSTR
  00052	5f		 pop	 edi
  00053	5e		 pop	 esi
  00054	5d		 pop	 ebp
  00055	c3		 ret	 0
?_DECSTR@@YAXPADH@Z ENDP				; _DECSTR
; Function compile flags: /Ogsp
; File d:\lost saga for developer\youtube\tutorial\source\src\lsclient\iobuff.h
_TEXT	ENDS
;	COMDAT ?IsWaitSelfRemove@ioBuff@@UAE_NXZ
_TEXT	SEGMENT
?IsWaitSelfRemove@ioBuff@@UAE_NXZ PROC			; ioBuff::IsWaitSelfRemove, COMDAT
; _this$ = ecx

; 519  : 	virtual bool IsWaitSelfRemove() { return m_bWaitSelfRemove; }

  00000	8a 81 65 09 00
	00		 mov	 al, BYTE PTR [ecx+2405]
  00006	c3		 ret	 0
?IsWaitSelfRemove@ioBuff@@UAE_NXZ ENDP			; ioBuff::IsWaitSelfRemove
; Function compile flags: /Ogsp
_TEXT	ENDS
;	COMDAT ??_GioHideBuff@@UAEPAXI@Z
_TEXT	SEGMENT
___flags$ = 8						; size = 4
??_GioHideBuff@@UAEPAXI@Z PROC				; ioHideBuff::`scalar deleting destructor', COMDAT
; _this$ = ecx
  00000	55		 push	 ebp
  00001	8b ec		 mov	 ebp, esp
  00003	56		 push	 esi
  00004	8b f1		 mov	 esi, ecx
  00006	e8 00 00 00 00	 call	 ??1ioHideBuff@@UAE@XZ	; ioHideBuff::~ioHideBuff
  0000b	f6 45 08 01	 test	 BYTE PTR ___flags$[ebp], 1
  0000f	74 07		 je	 SHORT $LN1@scalar
  00011	56		 push	 esi
  00012	e8 00 00 00 00	 call	 ??3@YAXPAX@Z		; operator delete
  00017	59		 pop	 ecx
$LN1@scalar:
  00018	8b c6		 mov	 eax, esi
  0001a	5e		 pop	 esi
  0001b	5d		 pop	 ebp
  0001c	c2 04 00	 ret	 4
??_GioHideBuff@@UAEPAXI@Z ENDP				; ioHideBuff::`scalar deleting destructor'
_TEXT	ENDS
PUBLIC	??B?$CEncrypt@W4JumpState@@@@QBE?AW4JumpState@@XZ ; CEncrypt<enum JumpState>::operator enum JumpState
; Function compile flags: /Ogsp
; File d:\lost saga for developer\youtube\tutorial\source\src\lsclient\encryptvalue.h
;	COMDAT ??B?$CEncrypt@W4JumpState@@@@QBE?AW4JumpState@@XZ
_TEXT	SEGMENT
_value$ = -4						; size = 4
??B?$CEncrypt@W4JumpState@@@@QBE?AW4JumpState@@XZ PROC	; CEncrypt<enum JumpState>::operator enum JumpState, COMDAT
; _this$ = ecx

; 145  : 	{

  00000	55		 push	 ebp
  00001	8b ec		 mov	 ebp, esp
  00003	51		 push	 ecx

; 146  : 		//UJ 130829, const도 똑같이 하면 된다 --start
; 147  : 		type value;
; 148  : 		CEncrypt<type>* pThis = const_cast<CEncrypt<type>*>(this);
; 149  : 		pThis->DecryptValueToPool(&value);

  00004	8d 45 fc	 lea	 eax, DWORD PTR _value$[ebp]
  00007	50		 push	 eax
  00008	e8 00 00 00 00	 call	 ?DecryptValueToPool@?$CEncrypt@W4JumpState@@@@QAEXPAW4JumpState@@@Z ; CEncrypt<enum JumpState>::DecryptValueToPool

; 150  : 		//// const에서 DecryptValueToPool 사용할 수 없으므로 아래와 같이함.
; 151  :  		//type value;
; 152  : 		//char szTempMem[MAX_ENCRYPT];
; 153  : 		//m_RC5.DecryptByte( m_MemPool, szTempMem, max(m_ValueSize, DEFAULT_ENCRYPT) );
; 154  : 		//memcpy( &value, szTempMem, m_ValueSize );
; 155  : 		//UJ --end
; 156  : 
; 157  : #ifdef _NOTUSE
; 158  : 		Debug();
; 159  : #endif
; 160  : 		return value;

  0000d	8b 45 fc	 mov	 eax, DWORD PTR _value$[ebp]

; 161  : 	}

  00010	c9		 leave
  00011	c3		 ret	 0
??B?$CEncrypt@W4JumpState@@@@QBE?AW4JumpState@@XZ ENDP	; CEncrypt<enum JumpState>::operator enum JumpState
_TEXT	ENDS
PUBLIC	__$ArrayPad$
PUBLIC	??$LoadFloat_e@$09@ioINILoader@@QAEMAAY09$$CBDM@Z ; ioINILoader::LoadFloat_e<10>
EXTRN	__imp_?LoadFloat@ioINILoader@@QAEMPBDM@Z:PROC
EXTRN	___security_cookie:DWORD
; Function compile flags: /Ogsp
; File d:\lost saga for developer\youtube\tutorial\source\src\io3dengine\ioiniloader.h
;	COMDAT ??$LoadFloat_e@$09@ioINILoader@@QAEMAAY09$$CBDM@Z
_TEXT	SEGMENT
__k$ = -20						; size = 10
__$ArrayPad$ = -4					; size = 4
_k$ = 8							; size = 4
_f$ = 12						; size = 4
??$LoadFloat_e@$09@ioINILoader@@QAEMAAY09$$CBDM@Z PROC	; ioINILoader::LoadFloat_e<10>, COMDAT
; _this$ = ecx

; 135  : 	{

  00000	55		 push	 ebp
  00001	8b ec		 mov	 ebp, esp
  00003	83 ec 14	 sub	 esp, 20			; 00000014H
  00006	a1 00 00 00 00	 mov	 eax, DWORD PTR ___security_cookie
  0000b	33 c5		 xor	 eax, ebp
  0000d	89 45 fc	 mov	 DWORD PTR __$ArrayPad$[ebp], eax
  00010	8b 45 08	 mov	 eax, DWORD PTR _k$[ebp]

; 136  : 		_ENCSTR(k, _k);

  00013	8a 10		 mov	 dl, BYTE PTR [eax]
  00015	84 d2		 test	 dl, dl
  00017	0f 84 0d 01 00
	00		 je	 $LN96@LoadFloat_
  0001d	80 f2 ed	 xor	 dl, -19			; ffffffedH
  00020	88 55 ec	 mov	 BYTE PTR __k$[ebp], dl
  00023	8a 50 01	 mov	 dl, BYTE PTR [eax+1]
  00026	84 d2		 test	 dl, dl
  00028	0f 84 f6 00 00
	00		 je	 $LN95@LoadFloat_
  0002e	80 f2 ec	 xor	 dl, -20			; ffffffecH
  00031	88 55 ed	 mov	 BYTE PTR __k$[ebp+1], dl
  00034	8a 50 02	 mov	 dl, BYTE PTR [eax+2]
  00037	84 d2		 test	 dl, dl
  00039	0f 84 df 00 00
	00		 je	 $LN94@LoadFloat_
  0003f	80 f2 eb	 xor	 dl, -21			; ffffffebH
  00042	88 55 ee	 mov	 BYTE PTR __k$[ebp+2], dl
  00045	8a 50 03	 mov	 dl, BYTE PTR [eax+3]
  00048	84 d2		 test	 dl, dl
  0004a	0f 84 c8 00 00
	00		 je	 $LN93@LoadFloat_
  00050	80 f2 ea	 xor	 dl, -22			; ffffffeaH
  00053	88 55 ef	 mov	 BYTE PTR __k$[ebp+3], dl
  00056	8a 50 04	 mov	 dl, BYTE PTR [eax+4]
  00059	84 d2		 test	 dl, dl
  0005b	0f 84 b1 00 00
	00		 je	 $LN92@LoadFloat_
  00061	80 f2 ed	 xor	 dl, -19			; ffffffedH
  00064	88 55 f0	 mov	 BYTE PTR __k$[ebp+4], dl
  00067	8a 50 05	 mov	 dl, BYTE PTR [eax+5]
  0006a	84 d2		 test	 dl, dl
  0006c	0f 84 9a 00 00
	00		 je	 $LN91@LoadFloat_
  00072	80 f2 ec	 xor	 dl, -20			; ffffffecH
  00075	88 55 f1	 mov	 BYTE PTR __k$[ebp+5], dl
  00078	8a 50 06	 mov	 dl, BYTE PTR [eax+6]
  0007b	84 d2		 test	 dl, dl
  0007d	0f 84 83 00 00
	00		 je	 $LN90@LoadFloat_
  00083	80 f2 eb	 xor	 dl, -21			; ffffffebH
  00086	88 55 f2	 mov	 BYTE PTR __k$[ebp+6], dl
  00089	8a 50 07	 mov	 dl, BYTE PTR [eax+7]
  0008c	84 d2		 test	 dl, dl
  0008e	74 70		 je	 SHORT $LN89@LoadFloat_
  00090	80 f2 ea	 xor	 dl, -22			; ffffffeaH
  00093	88 55 f3	 mov	 BYTE PTR __k$[ebp+7], dl
  00096	8a 50 08	 mov	 dl, BYTE PTR [eax+8]
  00099	84 d2		 test	 dl, dl
  0009b	74 5d		 je	 SHORT $LN88@LoadFloat_
  0009d	80 f2 ed	 xor	 dl, -19			; ffffffedH
  000a0	80 78 09 00	 cmp	 BYTE PTR [eax+9], 0
  000a4	88 55 f4	 mov	 BYTE PTR __k$[ebp+8], dl
  000a7	0f 84 81 00 00
	00		 je	 $LN1@LoadFloat_
  000ad	8a 50 0a	 mov	 dl, BYTE PTR [eax+10]
  000b0	84 d2		 test	 dl, dl
  000b2	74 40		 je	 SHORT $LN86@LoadFloat_
  000b4	80 f2 eb	 xor	 dl, -21			; ffffffebH
  000b7	88 55 f6	 mov	 BYTE PTR __k$[ebp+10], dl
  000ba	8a 50 0b	 mov	 dl, BYTE PTR [eax+11]
  000bd	84 d2		 test	 dl, dl
  000bf	74 2d		 je	 SHORT $LN85@LoadFloat_
  000c1	80 f2 ea	 xor	 dl, -22			; ffffffeaH
  000c4	88 55 f7	 mov	 BYTE PTR __k$[ebp+11], dl
  000c7	8a 50 0c	 mov	 dl, BYTE PTR [eax+12]
  000ca	84 d2		 test	 dl, dl
  000cc	74 1a		 je	 SHORT $LN84@LoadFloat_
  000ce	8a 40 0d	 mov	 al, BYTE PTR [eax+13]
  000d1	80 f2 ed	 xor	 dl, -19			; ffffffedH
  000d4	88 55 f8	 mov	 BYTE PTR __k$[ebp+12], dl
  000d7	84 c0		 test	 al, al
  000d9	74 07		 je	 SHORT $LN83@LoadFloat_
  000db	34 ec		 xor	 al, -20			; ffffffecH
  000dd	88 45 f9	 mov	 BYTE PTR __k$[ebp+13], al
  000e0	eb 4c		 jmp	 SHORT $LN1@LoadFloat_
$LN83@LoadFloat_:
  000e2	c6 45 f9 ec	 mov	 BYTE PTR __k$[ebp+13], -20 ; ffffffecH
  000e6	eb 46		 jmp	 SHORT $LN1@LoadFloat_
$LN84@LoadFloat_:
  000e8	c6 45 f8 ed	 mov	 BYTE PTR __k$[ebp+12], -19 ; ffffffedH
  000ec	eb 40		 jmp	 SHORT $LN1@LoadFloat_
$LN85@LoadFloat_:
  000ee	c6 45 f7 ea	 mov	 BYTE PTR __k$[ebp+11], -22 ; ffffffeaH
  000f2	eb 3a		 jmp	 SHORT $LN1@LoadFloat_
$LN86@LoadFloat_:
  000f4	c6 45 f6 eb	 mov	 BYTE PTR __k$[ebp+10], -21 ; ffffffebH
  000f8	eb 34		 jmp	 SHORT $LN1@LoadFloat_
$LN88@LoadFloat_:
  000fa	c6 45 f4 ed	 mov	 BYTE PTR __k$[ebp+8], -19 ; ffffffedH
  000fe	eb 2e		 jmp	 SHORT $LN1@LoadFloat_
$LN89@LoadFloat_:
  00100	c6 45 f3 ea	 mov	 BYTE PTR __k$[ebp+7], -22 ; ffffffeaH
  00104	eb 28		 jmp	 SHORT $LN1@LoadFloat_
$LN90@LoadFloat_:
  00106	c6 45 f2 eb	 mov	 BYTE PTR __k$[ebp+6], -21 ; ffffffebH
  0010a	eb 22		 jmp	 SHORT $LN1@LoadFloat_
$LN91@LoadFloat_:
  0010c	c6 45 f1 ec	 mov	 BYTE PTR __k$[ebp+5], -20 ; ffffffecH
  00110	eb 1c		 jmp	 SHORT $LN1@LoadFloat_
$LN92@LoadFloat_:
  00112	c6 45 f0 ed	 mov	 BYTE PTR __k$[ebp+4], -19 ; ffffffedH
  00116	eb 16		 jmp	 SHORT $LN1@LoadFloat_
$LN93@LoadFloat_:
  00118	c6 45 ef ea	 mov	 BYTE PTR __k$[ebp+3], -22 ; ffffffeaH
  0011c	eb 10		 jmp	 SHORT $LN1@LoadFloat_
$LN94@LoadFloat_:
  0011e	c6 45 ee eb	 mov	 BYTE PTR __k$[ebp+2], -21 ; ffffffebH
  00122	eb 0a		 jmp	 SHORT $LN1@LoadFloat_
$LN95@LoadFloat_:
  00124	c6 45 ed ec	 mov	 BYTE PTR __k$[ebp+1], -20 ; ffffffecH
  00128	eb 04		 jmp	 SHORT $LN1@LoadFloat_
$LN96@LoadFloat_:
  0012a	c6 45 ec ed	 mov	 BYTE PTR __k$[ebp], -19	; ffffffedH
$LN1@LoadFloat_:
  0012e	6a 02		 push	 2
  00130	8d 45 ec	 lea	 eax, DWORD PTR __k$[ebp]
  00133	c6 45 f5 00	 mov	 BYTE PTR __k$[ebp+9], 0
  00137	5a		 pop	 edx
$LL104@LoadFloat_:
  00138	81 30 ed ec eb
	ea		 xor	 DWORD PTR [eax], -353637139 ; eaebecedH
  0013e	83 c0 04	 add	 eax, 4
  00141	4a		 dec	 edx
  00142	75 f4		 jne	 SHORT $LL104@LoadFloat_

; 137  : 		return LoadFloat(_k, f);

  00144	f3 0f 10 45 0c	 movss	 xmm0, DWORD PTR _f$[ebp]
  00149	80 75 f4 ed	 xor	 BYTE PTR __k$[ebp+8], -19 ; ffffffedH
  0014d	51		 push	 ecx
  0014e	8d 45 ec	 lea	 eax, DWORD PTR __k$[ebp]
  00151	f3 0f 11 04 24	 movss	 DWORD PTR [esp], xmm0
  00156	50		 push	 eax
  00157	ff 15 00 00 00
	00		 call	 DWORD PTR __imp_?LoadFloat@ioINILoader@@QAEMPBDM@Z

; 138  : 	}

  0015d	8b 4d fc	 mov	 ecx, DWORD PTR __$ArrayPad$[ebp]
  00160	33 cd		 xor	 ecx, ebp
  00162	e8 00 00 00 00	 call	 @__security_check_cookie@4
  00167	c9		 leave
  00168	c2 08 00	 ret	 8
??$LoadFloat_e@$09@ioINILoader@@QAEMAAY09$$CBDM@Z ENDP	; ioINILoader::LoadFloat_e<10>
_TEXT	ENDS
PUBLIC	__$ArrayPad$
PUBLIC	??$LoadFloat_e@$0BA@@ioINILoader@@QAEMAAY0BA@$$CBDM@Z ; ioINILoader::LoadFloat_e<16>
; Function compile flags: /Ogsp
;	COMDAT ??$LoadFloat_e@$0BA@@ioINILoader@@QAEMAAY0BA@$$CBDM@Z
_TEXT	SEGMENT
__k$ = -24						; size = 16
__$ArrayPad$ = -4					; size = 4
_k$ = 8							; size = 4
_f$ = 12						; size = 4
??$LoadFloat_e@$0BA@@ioINILoader@@QAEMAAY0BA@$$CBDM@Z PROC ; ioINILoader::LoadFloat_e<16>, COMDAT
; _this$ = ecx

; 135  : 	{

  00000	55		 push	 ebp
  00001	8b ec		 mov	 ebp, esp
  00003	83 ec 18	 sub	 esp, 24			; 00000018H
  00006	a1 00 00 00 00	 mov	 eax, DWORD PTR ___security_cookie
  0000b	33 c5		 xor	 eax, ebp
  0000d	89 45 fc	 mov	 DWORD PTR __$ArrayPad$[ebp], eax
  00010	8b 45 08	 mov	 eax, DWORD PTR _k$[ebp]

; 136  : 		_ENCSTR(k, _k);

  00013	8a 10		 mov	 dl, BYTE PTR [eax]
  00015	56		 push	 esi
  00016	8b f1		 mov	 esi, ecx
  00018	84 d2		 test	 dl, dl
  0001a	0f 84 8c 01 00
	00		 je	 $LN96@LoadFloat_@2
  00020	80 f2 ed	 xor	 dl, -19			; ffffffedH
  00023	88 55 e8	 mov	 BYTE PTR __k$[ebp], dl
  00026	8a 50 01	 mov	 dl, BYTE PTR [eax+1]
  00029	84 d2		 test	 dl, dl
  0002b	0f 84 75 01 00
	00		 je	 $LN95@LoadFloat_@2
  00031	80 f2 ec	 xor	 dl, -20			; ffffffecH
  00034	88 55 e9	 mov	 BYTE PTR __k$[ebp+1], dl
  00037	8a 50 02	 mov	 dl, BYTE PTR [eax+2]
  0003a	84 d2		 test	 dl, dl
  0003c	0f 84 5e 01 00
	00		 je	 $LN94@LoadFloat_@2
  00042	b1 eb		 mov	 cl, -21			; ffffffebH
  00044	32 d1		 xor	 dl, cl
  00046	88 55 ea	 mov	 BYTE PTR __k$[ebp+2], dl
  00049	8a 50 03	 mov	 dl, BYTE PTR [eax+3]
  0004c	84 d2		 test	 dl, dl
  0004e	0f 84 46 01 00
	00		 je	 $LN93@LoadFloat_@2
  00054	80 f2 ea	 xor	 dl, -22			; ffffffeaH
  00057	88 55 eb	 mov	 BYTE PTR __k$[ebp+3], dl
  0005a	8a 50 04	 mov	 dl, BYTE PTR [eax+4]
  0005d	84 d2		 test	 dl, dl
  0005f	0f 84 2f 01 00
	00		 je	 $LN92@LoadFloat_@2
  00065	80 f2 ed	 xor	 dl, -19			; ffffffedH
  00068	88 55 ec	 mov	 BYTE PTR __k$[ebp+4], dl
  0006b	8a 50 05	 mov	 dl, BYTE PTR [eax+5]
  0006e	84 d2		 test	 dl, dl
  00070	0f 84 18 01 00
	00		 je	 $LN91@LoadFloat_@2
  00076	80 f2 ec	 xor	 dl, -20			; ffffffecH
  00079	88 55 ed	 mov	 BYTE PTR __k$[ebp+5], dl
  0007c	8a 50 06	 mov	 dl, BYTE PTR [eax+6]
  0007f	84 d2		 test	 dl, dl
  00081	0f 84 02 01 00
	00		 je	 $LN90@LoadFloat_@2
  00087	32 d1		 xor	 dl, cl
  00089	88 55 ee	 mov	 BYTE PTR __k$[ebp+6], dl
  0008c	8a 50 07	 mov	 dl, BYTE PTR [eax+7]
  0008f	84 d2		 test	 dl, dl
  00091	0f 84 ec 00 00
	00		 je	 $LN89@LoadFloat_@2
  00097	80 f2 ea	 xor	 dl, -22			; ffffffeaH
  0009a	88 55 ef	 mov	 BYTE PTR __k$[ebp+7], dl
  0009d	8a 50 08	 mov	 dl, BYTE PTR [eax+8]
  000a0	84 d2		 test	 dl, dl
  000a2	0f 84 d5 00 00
	00		 je	 $LN88@LoadFloat_@2
  000a8	80 f2 ed	 xor	 dl, -19			; ffffffedH
  000ab	88 55 f0	 mov	 BYTE PTR __k$[ebp+8], dl
  000ae	8a 50 09	 mov	 dl, BYTE PTR [eax+9]
  000b1	84 d2		 test	 dl, dl
  000b3	0f 84 be 00 00
	00		 je	 $LN87@LoadFloat_@2
  000b9	80 f2 ec	 xor	 dl, -20			; ffffffecH
  000bc	88 55 f1	 mov	 BYTE PTR __k$[ebp+9], dl
  000bf	8a 50 0a	 mov	 dl, BYTE PTR [eax+10]
  000c2	84 d2		 test	 dl, dl
  000c4	0f 84 a8 00 00
	00		 je	 $LN86@LoadFloat_@2
  000ca	32 d1		 xor	 dl, cl
  000cc	88 55 f2	 mov	 BYTE PTR __k$[ebp+10], dl
  000cf	8a 50 0b	 mov	 dl, BYTE PTR [eax+11]
  000d2	84 d2		 test	 dl, dl
  000d4	0f 84 92 00 00
	00		 je	 $LN85@LoadFloat_@2
  000da	80 f2 ea	 xor	 dl, -22			; ffffffeaH
  000dd	88 55 f3	 mov	 BYTE PTR __k$[ebp+11], dl
  000e0	8a 50 0c	 mov	 dl, BYTE PTR [eax+12]
  000e3	84 d2		 test	 dl, dl
  000e5	74 7f		 je	 SHORT $LN84@LoadFloat_@2
  000e7	80 f2 ed	 xor	 dl, -19			; ffffffedH
  000ea	88 55 f4	 mov	 BYTE PTR __k$[ebp+12], dl
  000ed	8a 50 0d	 mov	 dl, BYTE PTR [eax+13]
  000f0	84 d2		 test	 dl, dl
  000f2	74 6c		 je	 SHORT $LN83@LoadFloat_@2
  000f4	80 f2 ec	 xor	 dl, -20			; ffffffecH
  000f7	88 55 f5	 mov	 BYTE PTR __k$[ebp+13], dl
  000fa	8a 50 0e	 mov	 dl, BYTE PTR [eax+14]
  000fd	84 d2		 test	 dl, dl
  000ff	74 5a		 je	 SHORT $LN82@LoadFloat_@2
  00101	32 d1		 xor	 dl, cl
  00103	80 78 0f 00	 cmp	 BYTE PTR [eax+15], 0
  00107	88 55 f6	 mov	 BYTE PTR __k$[ebp+14], dl
  0010a	0f 84 a0 00 00
	00		 je	 $LN1@LoadFloat_@2
  00110	8a 50 10	 mov	 dl, BYTE PTR [eax+16]
  00113	84 d2		 test	 dl, dl
  00115	74 3e		 je	 SHORT $LN80@LoadFloat_@2
  00117	80 f2 ed	 xor	 dl, -19			; ffffffedH
  0011a	88 55 f8	 mov	 BYTE PTR __k$[ebp+16], dl
  0011d	8a 50 11	 mov	 dl, BYTE PTR [eax+17]
  00120	84 d2		 test	 dl, dl
  00122	74 2b		 je	 SHORT $LN79@LoadFloat_@2
  00124	80 f2 ec	 xor	 dl, -20			; ffffffecH
  00127	88 55 f9	 mov	 BYTE PTR __k$[ebp+17], dl
  0012a	8a 50 12	 mov	 dl, BYTE PTR [eax+18]
  0012d	84 d2		 test	 dl, dl
  0012f	74 19		 je	 SHORT $LN78@LoadFloat_@2
  00131	8a 40 13	 mov	 al, BYTE PTR [eax+19]
  00134	32 d1		 xor	 dl, cl
  00136	88 55 fa	 mov	 BYTE PTR __k$[ebp+18], dl
  00139	84 c0		 test	 al, al
  0013b	74 07		 je	 SHORT $LN77@LoadFloat_@2
  0013d	34 ea		 xor	 al, -22			; ffffffeaH
  0013f	88 45 fb	 mov	 BYTE PTR __k$[ebp+19], al
  00142	eb 6c		 jmp	 SHORT $LN1@LoadFloat_@2
$LN77@LoadFloat_@2:
  00144	c6 45 fb ea	 mov	 BYTE PTR __k$[ebp+19], -22 ; ffffffeaH
  00148	eb 66		 jmp	 SHORT $LN1@LoadFloat_@2
$LN78@LoadFloat_@2:
  0014a	88 4d fa	 mov	 BYTE PTR __k$[ebp+18], cl
  0014d	eb 61		 jmp	 SHORT $LN1@LoadFloat_@2
$LN79@LoadFloat_@2:
  0014f	c6 45 f9 ec	 mov	 BYTE PTR __k$[ebp+17], -20 ; ffffffecH
  00153	eb 5b		 jmp	 SHORT $LN1@LoadFloat_@2
$LN80@LoadFloat_@2:
  00155	c6 45 f8 ed	 mov	 BYTE PTR __k$[ebp+16], -19 ; ffffffedH
  00159	eb 55		 jmp	 SHORT $LN1@LoadFloat_@2
$LN82@LoadFloat_@2:
  0015b	88 4d f6	 mov	 BYTE PTR __k$[ebp+14], cl
  0015e	eb 50		 jmp	 SHORT $LN1@LoadFloat_@2
$LN83@LoadFloat_@2:
  00160	c6 45 f5 ec	 mov	 BYTE PTR __k$[ebp+13], -20 ; ffffffecH
  00164	eb 4a		 jmp	 SHORT $LN1@LoadFloat_@2
$LN84@LoadFloat_@2:
  00166	c6 45 f4 ed	 mov	 BYTE PTR __k$[ebp+12], -19 ; ffffffedH
  0016a	eb 44		 jmp	 SHORT $LN1@LoadFloat_@2
$LN85@LoadFloat_@2:
  0016c	c6 45 f3 ea	 mov	 BYTE PTR __k$[ebp+11], -22 ; ffffffeaH
  00170	eb 3e		 jmp	 SHORT $LN1@LoadFloat_@2
$LN86@LoadFloat_@2:
  00172	88 4d f2	 mov	 BYTE PTR __k$[ebp+10], cl
  00175	eb 39		 jmp	 SHORT $LN1@LoadFloat_@2
$LN87@LoadFloat_@2:
  00177	c6 45 f1 ec	 mov	 BYTE PTR __k$[ebp+9], -20 ; ffffffecH
  0017b	eb 33		 jmp	 SHORT $LN1@LoadFloat_@2
$LN88@LoadFloat_@2:
  0017d	c6 45 f0 ed	 mov	 BYTE PTR __k$[ebp+8], -19 ; ffffffedH
  00181	eb 2d		 jmp	 SHORT $LN1@LoadFloat_@2
$LN89@LoadFloat_@2:
  00183	c6 45 ef ea	 mov	 BYTE PTR __k$[ebp+7], -22 ; ffffffeaH
  00187	eb 27		 jmp	 SHORT $LN1@LoadFloat_@2
$LN90@LoadFloat_@2:
  00189	88 4d ee	 mov	 BYTE PTR __k$[ebp+6], cl
  0018c	eb 22		 jmp	 SHORT $LN1@LoadFloat_@2
$LN91@LoadFloat_@2:
  0018e	c6 45 ed ec	 mov	 BYTE PTR __k$[ebp+5], -20 ; ffffffecH
  00192	eb 1c		 jmp	 SHORT $LN1@LoadFloat_@2
$LN92@LoadFloat_@2:
  00194	c6 45 ec ed	 mov	 BYTE PTR __k$[ebp+4], -19 ; ffffffedH
  00198	eb 16		 jmp	 SHORT $LN1@LoadFloat_@2
$LN93@LoadFloat_@2:
  0019a	c6 45 eb ea	 mov	 BYTE PTR __k$[ebp+3], -22 ; ffffffeaH
  0019e	eb 10		 jmp	 SHORT $LN1@LoadFloat_@2
$LN94@LoadFloat_@2:
  001a0	c6 45 ea eb	 mov	 BYTE PTR __k$[ebp+2], -21 ; ffffffebH
  001a4	eb 0a		 jmp	 SHORT $LN1@LoadFloat_@2
$LN95@LoadFloat_@2:
  001a6	c6 45 e9 ec	 mov	 BYTE PTR __k$[ebp+1], -20 ; ffffffecH
  001aa	eb 04		 jmp	 SHORT $LN1@LoadFloat_@2
$LN96@LoadFloat_@2:
  001ac	c6 45 e8 ed	 mov	 BYTE PTR __k$[ebp], -19	; ffffffedH
$LN1@LoadFloat_@2:
  001b0	6a 03		 push	 3
  001b2	8d 45 e8	 lea	 eax, DWORD PTR __k$[ebp]
  001b5	c6 45 f7 00	 mov	 BYTE PTR __k$[ebp+15], 0
  001b9	5a		 pop	 edx
$LL104@LoadFloat_@2:
  001ba	81 30 ed ec eb
	ea		 xor	 DWORD PTR [eax], -353637139 ; eaebecedH
  001c0	83 c0 04	 add	 eax, 4
  001c3	4a		 dec	 edx
  001c4	75 f4		 jne	 SHORT $LL104@LoadFloat_@2
  001c6	6a 0c		 push	 12			; 0000000cH
  001c8	58		 pop	 eax
$LL101@LoadFloat_@2:
  001c9	8b c8		 mov	 ecx, eax
  001cb	81 e1 03 00 00
	80		 and	 ecx, -2147483645	; 80000003H
  001d1	79 05		 jns	 SHORT $LN111@LoadFloat_@2
  001d3	49		 dec	 ecx
  001d4	83 c9 fc	 or	 ecx, -4			; fffffffcH
  001d7	41		 inc	 ecx
$LN111@LoadFloat_@2:
  001d8	b2 ed		 mov	 dl, -19			; ffffffedH
  001da	2a d1		 sub	 dl, cl
  001dc	30 54 05 e8	 xor	 BYTE PTR __k$[ebp+eax], dl
  001e0	40		 inc	 eax
  001e1	83 f8 0f	 cmp	 eax, 15			; 0000000fH
  001e4	7c e3		 jl	 SHORT $LL101@LoadFloat_@2

; 137  : 		return LoadFloat(_k, f);

  001e6	f3 0f 10 45 0c	 movss	 xmm0, DWORD PTR _f$[ebp]
  001eb	51		 push	 ecx
  001ec	8d 45 e8	 lea	 eax, DWORD PTR __k$[ebp]
  001ef	f3 0f 11 04 24	 movss	 DWORD PTR [esp], xmm0
  001f4	50		 push	 eax
  001f5	8b ce		 mov	 ecx, esi
  001f7	ff 15 00 00 00
	00		 call	 DWORD PTR __imp_?LoadFloat@ioINILoader@@QAEMPBDM@Z

; 138  : 	}

  001fd	8b 4d fc	 mov	 ecx, DWORD PTR __$ArrayPad$[ebp]
  00200	33 cd		 xor	 ecx, ebp
  00202	5e		 pop	 esi
  00203	e8 00 00 00 00	 call	 @__security_check_cookie@4
  00208	c9		 leave
  00209	c2 08 00	 ret	 8
??$LoadFloat_e@$0BA@@ioINILoader@@QAEMAAY0BA@$$CBDM@Z ENDP ; ioINILoader::LoadFloat_e<16>
_TEXT	ENDS
PUBLIC	__$ArrayPad$
PUBLIC	??$LoadInt_e@$0M@@ioINILoader@@QAEHAAY0M@$$CBDH@Z ; ioINILoader::LoadInt_e<12>
EXTRN	__imp_?LoadInt@ioINILoader@@QAEHPBDH@Z:PROC
; Function compile flags: /Ogsp
;	COMDAT ??$LoadInt_e@$0M@@ioINILoader@@QAEHAAY0M@$$CBDH@Z
_TEXT	SEGMENT
__k$ = -20						; size = 12
__$ArrayPad$ = -4					; size = 4
_k$ = 8							; size = 4
_i$ = 12						; size = 4
??$LoadInt_e@$0M@@ioINILoader@@QAEHAAY0M@$$CBDH@Z PROC	; ioINILoader::LoadInt_e<12>, COMDAT
; _this$ = ecx

; 118  : 	{

  00000	55		 push	 ebp
  00001	8b ec		 mov	 ebp, esp
  00003	83 ec 14	 sub	 esp, 20			; 00000014H
  00006	a1 00 00 00 00	 mov	 eax, DWORD PTR ___security_cookie
  0000b	33 c5		 xor	 eax, ebp
  0000d	89 45 fc	 mov	 DWORD PTR __$ArrayPad$[ebp], eax
  00010	8b 45 08	 mov	 eax, DWORD PTR _k$[ebp]

; 119  : 		_ENCSTR(k, _k);

  00013	8a 10		 mov	 dl, BYTE PTR [eax]
  00015	56		 push	 esi
  00016	8b f1		 mov	 esi, ecx
  00018	84 d2		 test	 dl, dl
  0001a	0f 84 32 01 00
	00		 je	 $LN96@LoadInt_e
  00020	80 f2 ed	 xor	 dl, -19			; ffffffedH
  00023	88 55 ec	 mov	 BYTE PTR __k$[ebp], dl
  00026	8a 50 01	 mov	 dl, BYTE PTR [eax+1]
  00029	84 d2		 test	 dl, dl
  0002b	0f 84 1b 01 00
	00		 je	 $LN95@LoadInt_e
  00031	80 f2 ec	 xor	 dl, -20			; ffffffecH
  00034	88 55 ed	 mov	 BYTE PTR __k$[ebp+1], dl
  00037	8a 50 02	 mov	 dl, BYTE PTR [eax+2]
  0003a	84 d2		 test	 dl, dl
  0003c	0f 84 04 01 00
	00		 je	 $LN94@LoadInt_e
  00042	b1 eb		 mov	 cl, -21			; ffffffebH
  00044	32 d1		 xor	 dl, cl
  00046	88 55 ee	 mov	 BYTE PTR __k$[ebp+2], dl
  00049	8a 50 03	 mov	 dl, BYTE PTR [eax+3]
  0004c	84 d2		 test	 dl, dl
  0004e	0f 84 ec 00 00
	00		 je	 $LN93@LoadInt_e
  00054	80 f2 ea	 xor	 dl, -22			; ffffffeaH
  00057	88 55 ef	 mov	 BYTE PTR __k$[ebp+3], dl
  0005a	8a 50 04	 mov	 dl, BYTE PTR [eax+4]
  0005d	84 d2		 test	 dl, dl
  0005f	0f 84 d5 00 00
	00		 je	 $LN92@LoadInt_e
  00065	80 f2 ed	 xor	 dl, -19			; ffffffedH
  00068	88 55 f0	 mov	 BYTE PTR __k$[ebp+4], dl
  0006b	8a 50 05	 mov	 dl, BYTE PTR [eax+5]
  0006e	84 d2		 test	 dl, dl
  00070	0f 84 be 00 00
	00		 je	 $LN91@LoadInt_e
  00076	80 f2 ec	 xor	 dl, -20			; ffffffecH
  00079	88 55 f1	 mov	 BYTE PTR __k$[ebp+5], dl
  0007c	8a 50 06	 mov	 dl, BYTE PTR [eax+6]
  0007f	84 d2		 test	 dl, dl
  00081	0f 84 a8 00 00
	00		 je	 $LN90@LoadInt_e
  00087	32 d1		 xor	 dl, cl
  00089	88 55 f2	 mov	 BYTE PTR __k$[ebp+6], dl
  0008c	8a 50 07	 mov	 dl, BYTE PTR [eax+7]
  0008f	84 d2		 test	 dl, dl
  00091	0f 84 92 00 00
	00		 je	 $LN89@LoadInt_e
  00097	80 f2 ea	 xor	 dl, -22			; ffffffeaH
  0009a	88 55 f3	 mov	 BYTE PTR __k$[ebp+7], dl
  0009d	8a 50 08	 mov	 dl, BYTE PTR [eax+8]
  000a0	84 d2		 test	 dl, dl
  000a2	74 7f		 je	 SHORT $LN88@LoadInt_e
  000a4	80 f2 ed	 xor	 dl, -19			; ffffffedH
  000a7	88 55 f4	 mov	 BYTE PTR __k$[ebp+8], dl
  000aa	8a 50 09	 mov	 dl, BYTE PTR [eax+9]
  000ad	84 d2		 test	 dl, dl
  000af	74 6c		 je	 SHORT $LN87@LoadInt_e
  000b1	80 f2 ec	 xor	 dl, -20			; ffffffecH
  000b4	88 55 f5	 mov	 BYTE PTR __k$[ebp+9], dl
  000b7	8a 50 0a	 mov	 dl, BYTE PTR [eax+10]
  000ba	84 d2		 test	 dl, dl
  000bc	74 5a		 je	 SHORT $LN86@LoadInt_e
  000be	32 d1		 xor	 dl, cl
  000c0	80 78 0b 00	 cmp	 BYTE PTR [eax+11], 0
  000c4	88 55 f6	 mov	 BYTE PTR __k$[ebp+10], dl
  000c7	0f 84 89 00 00
	00		 je	 $LN1@LoadInt_e
  000cd	8a 50 0c	 mov	 dl, BYTE PTR [eax+12]
  000d0	84 d2		 test	 dl, dl
  000d2	74 3e		 je	 SHORT $LN84@LoadInt_e
  000d4	80 f2 ed	 xor	 dl, -19			; ffffffedH
  000d7	88 55 f8	 mov	 BYTE PTR __k$[ebp+12], dl
  000da	8a 50 0d	 mov	 dl, BYTE PTR [eax+13]
  000dd	84 d2		 test	 dl, dl
  000df	74 2b		 je	 SHORT $LN83@LoadInt_e
  000e1	80 f2 ec	 xor	 dl, -20			; ffffffecH
  000e4	88 55 f9	 mov	 BYTE PTR __k$[ebp+13], dl
  000e7	8a 50 0e	 mov	 dl, BYTE PTR [eax+14]
  000ea	84 d2		 test	 dl, dl
  000ec	74 19		 je	 SHORT $LN82@LoadInt_e
  000ee	8a 40 0f	 mov	 al, BYTE PTR [eax+15]
  000f1	32 d1		 xor	 dl, cl
  000f3	88 55 fa	 mov	 BYTE PTR __k$[ebp+14], dl
  000f6	84 c0		 test	 al, al
  000f8	74 07		 je	 SHORT $LN81@LoadInt_e
  000fa	34 ea		 xor	 al, -22			; ffffffeaH
  000fc	88 45 fb	 mov	 BYTE PTR __k$[ebp+15], al
  000ff	eb 55		 jmp	 SHORT $LN1@LoadInt_e
$LN81@LoadInt_e:
  00101	c6 45 fb ea	 mov	 BYTE PTR __k$[ebp+15], -22 ; ffffffeaH
  00105	eb 4f		 jmp	 SHORT $LN1@LoadInt_e
$LN82@LoadInt_e:
  00107	88 4d fa	 mov	 BYTE PTR __k$[ebp+14], cl
  0010a	eb 4a		 jmp	 SHORT $LN1@LoadInt_e
$LN83@LoadInt_e:
  0010c	c6 45 f9 ec	 mov	 BYTE PTR __k$[ebp+13], -20 ; ffffffecH
  00110	eb 44		 jmp	 SHORT $LN1@LoadInt_e
$LN84@LoadInt_e:
  00112	c6 45 f8 ed	 mov	 BYTE PTR __k$[ebp+12], -19 ; ffffffedH
  00116	eb 3e		 jmp	 SHORT $LN1@LoadInt_e
$LN86@LoadInt_e:
  00118	88 4d f6	 mov	 BYTE PTR __k$[ebp+10], cl
  0011b	eb 39		 jmp	 SHORT $LN1@LoadInt_e
$LN87@LoadInt_e:
  0011d	c6 45 f5 ec	 mov	 BYTE PTR __k$[ebp+9], -20 ; ffffffecH
  00121	eb 33		 jmp	 SHORT $LN1@LoadInt_e
$LN88@LoadInt_e:
  00123	c6 45 f4 ed	 mov	 BYTE PTR __k$[ebp+8], -19 ; ffffffedH
  00127	eb 2d		 jmp	 SHORT $LN1@LoadInt_e
$LN89@LoadInt_e:
  00129	c6 45 f3 ea	 mov	 BYTE PTR __k$[ebp+7], -22 ; ffffffeaH
  0012d	eb 27		 jmp	 SHORT $LN1@LoadInt_e
$LN90@LoadInt_e:
  0012f	88 4d f2	 mov	 BYTE PTR __k$[ebp+6], cl
  00132	eb 22		 jmp	 SHORT $LN1@LoadInt_e
$LN91@LoadInt_e:
  00134	c6 45 f1 ec	 mov	 BYTE PTR __k$[ebp+5], -20 ; ffffffecH
  00138	eb 1c		 jmp	 SHORT $LN1@LoadInt_e
$LN92@LoadInt_e:
  0013a	c6 45 f0 ed	 mov	 BYTE PTR __k$[ebp+4], -19 ; ffffffedH
  0013e	eb 16		 jmp	 SHORT $LN1@LoadInt_e
$LN93@LoadInt_e:
  00140	c6 45 ef ea	 mov	 BYTE PTR __k$[ebp+3], -22 ; ffffffeaH
  00144	eb 10		 jmp	 SHORT $LN1@LoadInt_e
$LN94@LoadInt_e:
  00146	c6 45 ee eb	 mov	 BYTE PTR __k$[ebp+2], -21 ; ffffffebH
  0014a	eb 0a		 jmp	 SHORT $LN1@LoadInt_e
$LN95@LoadInt_e:
  0014c	c6 45 ed ec	 mov	 BYTE PTR __k$[ebp+1], -20 ; ffffffecH
  00150	eb 04		 jmp	 SHORT $LN1@LoadInt_e
$LN96@LoadInt_e:
  00152	c6 45 ec ed	 mov	 BYTE PTR __k$[ebp], -19	; ffffffedH
$LN1@LoadInt_e:
  00156	6a 02		 push	 2
  00158	8d 45 ec	 lea	 eax, DWORD PTR __k$[ebp]
  0015b	c6 45 f7 00	 mov	 BYTE PTR __k$[ebp+11], 0
  0015f	5a		 pop	 edx
$LL104@LoadInt_e:
  00160	81 30 ed ec eb
	ea		 xor	 DWORD PTR [eax], -353637139 ; eaebecedH
  00166	83 c0 04	 add	 eax, 4
  00169	4a		 dec	 edx
  0016a	75 f4		 jne	 SHORT $LL104@LoadInt_e
  0016c	6a 08		 push	 8
  0016e	58		 pop	 eax
$LL101@LoadInt_e:
  0016f	8b c8		 mov	 ecx, eax
  00171	81 e1 03 00 00
	80		 and	 ecx, -2147483645	; 80000003H
  00177	79 05		 jns	 SHORT $LN111@LoadInt_e
  00179	49		 dec	 ecx
  0017a	83 c9 fc	 or	 ecx, -4			; fffffffcH
  0017d	41		 inc	 ecx
$LN111@LoadInt_e:
  0017e	b2 ed		 mov	 dl, -19			; ffffffedH
  00180	2a d1		 sub	 dl, cl
  00182	30 54 05 ec	 xor	 BYTE PTR __k$[ebp+eax], dl
  00186	40		 inc	 eax
  00187	83 f8 0b	 cmp	 eax, 11			; 0000000bH
  0018a	7c e3		 jl	 SHORT $LL101@LoadInt_e

; 120  : 		return LoadInt(_k, i);

  0018c	ff 75 0c	 push	 DWORD PTR _i$[ebp]
  0018f	8d 45 ec	 lea	 eax, DWORD PTR __k$[ebp]
  00192	50		 push	 eax
  00193	8b ce		 mov	 ecx, esi
  00195	ff 15 00 00 00
	00		 call	 DWORD PTR __imp_?LoadInt@ioINILoader@@QAEHPBDH@Z

; 121  : 	}

  0019b	8b 4d fc	 mov	 ecx, DWORD PTR __$ArrayPad$[ebp]
  0019e	33 cd		 xor	 ecx, ebp
  001a0	5e		 pop	 esi
  001a1	e8 00 00 00 00	 call	 @__security_check_cookie@4
  001a6	c9		 leave
  001a7	c2 08 00	 ret	 8
??$LoadInt_e@$0M@@ioINILoader@@QAEHAAY0M@$$CBDH@Z ENDP	; ioINILoader::LoadInt_e<12>
_TEXT	ENDS
PUBLIC	_this$GSCopy$
PUBLIC	__$ArrayPad$
PUBLIC	??$LoadString_e@$0BA@@ioINILoader@@QAEXAAY0BA@$$CBDAAY00$$CBDPADH@Z ; ioINILoader::LoadString_e<16>
EXTRN	__imp_?LoadStringA@ioINILoader@@QAEXPBD0PADH@Z:PROC
; Function compile flags: /Ogsp
;	COMDAT ??$LoadString_e@$0BA@@ioINILoader@@QAEXAAY0BA@$$CBDAAY00$$CBDPADH@Z
_TEXT	SEGMENT
_this$GSCopy$ = -28					; size = 4
__k$ = -24						; size = 16
__$ArrayPad$ = -4					; size = 4
_k$ = 8							; size = 4
_d$ = 12						; size = 4
_b$ = 16						; size = 4
_i$ = 20						; size = 4
??$LoadString_e@$0BA@@ioINILoader@@QAEXAAY0BA@$$CBDAAY00$$CBDPADH@Z PROC ; ioINILoader::LoadString_e<16>, COMDAT
; _this$ = ecx

; 161  : 	{

  00000	55		 push	 ebp
  00001	8b ec		 mov	 ebp, esp
  00003	83 ec 1c	 sub	 esp, 28			; 0000001cH
  00006	a1 00 00 00 00	 mov	 eax, DWORD PTR ___security_cookie
  0000b	33 c5		 xor	 eax, ebp
  0000d	89 45 fc	 mov	 DWORD PTR __$ArrayPad$[ebp], eax
  00010	8b 45 08	 mov	 eax, DWORD PTR _k$[ebp]

; 162  : 		_ENCSTR(k, _k);

  00013	8a 10		 mov	 dl, BYTE PTR [eax]
  00015	56		 push	 esi
  00016	8b 75 0c	 mov	 esi, DWORD PTR _d$[ebp]
  00019	57		 push	 edi
  0001a	8b 7d 10	 mov	 edi, DWORD PTR _b$[ebp]
  0001d	89 4d e4	 mov	 DWORD PTR _this$GSCopy$[ebp], ecx
  00020	84 d2		 test	 dl, dl
  00022	0f 84 8c 01 00
	00		 je	 $LN96@LoadString
  00028	80 f2 ed	 xor	 dl, -19			; ffffffedH
  0002b	88 55 e8	 mov	 BYTE PTR __k$[ebp], dl
  0002e	8a 50 01	 mov	 dl, BYTE PTR [eax+1]
  00031	84 d2		 test	 dl, dl
  00033	0f 84 75 01 00
	00		 je	 $LN95@LoadString
  00039	80 f2 ec	 xor	 dl, -20			; ffffffecH
  0003c	88 55 e9	 mov	 BYTE PTR __k$[ebp+1], dl
  0003f	8a 50 02	 mov	 dl, BYTE PTR [eax+2]
  00042	84 d2		 test	 dl, dl
  00044	0f 84 5e 01 00
	00		 je	 $LN94@LoadString
  0004a	b1 eb		 mov	 cl, -21			; ffffffebH
  0004c	32 d1		 xor	 dl, cl
  0004e	88 55 ea	 mov	 BYTE PTR __k$[ebp+2], dl
  00051	8a 50 03	 mov	 dl, BYTE PTR [eax+3]
  00054	84 d2		 test	 dl, dl
  00056	0f 84 46 01 00
	00		 je	 $LN93@LoadString
  0005c	80 f2 ea	 xor	 dl, -22			; ffffffeaH
  0005f	88 55 eb	 mov	 BYTE PTR __k$[ebp+3], dl
  00062	8a 50 04	 mov	 dl, BYTE PTR [eax+4]
  00065	84 d2		 test	 dl, dl
  00067	0f 84 2f 01 00
	00		 je	 $LN92@LoadString
  0006d	80 f2 ed	 xor	 dl, -19			; ffffffedH
  00070	88 55 ec	 mov	 BYTE PTR __k$[ebp+4], dl
  00073	8a 50 05	 mov	 dl, BYTE PTR [eax+5]
  00076	84 d2		 test	 dl, dl
  00078	0f 84 18 01 00
	00		 je	 $LN91@LoadString
  0007e	80 f2 ec	 xor	 dl, -20			; ffffffecH
  00081	88 55 ed	 mov	 BYTE PTR __k$[ebp+5], dl
  00084	8a 50 06	 mov	 dl, BYTE PTR [eax+6]
  00087	84 d2		 test	 dl, dl
  00089	0f 84 02 01 00
	00		 je	 $LN90@LoadString
  0008f	32 d1		 xor	 dl, cl
  00091	88 55 ee	 mov	 BYTE PTR __k$[ebp+6], dl
  00094	8a 50 07	 mov	 dl, BYTE PTR [eax+7]
  00097	84 d2		 test	 dl, dl
  00099	0f 84 ec 00 00
	00		 je	 $LN89@LoadString
  0009f	80 f2 ea	 xor	 dl, -22			; ffffffeaH
  000a2	88 55 ef	 mov	 BYTE PTR __k$[ebp+7], dl
  000a5	8a 50 08	 mov	 dl, BYTE PTR [eax+8]
  000a8	84 d2		 test	 dl, dl
  000aa	0f 84 d5 00 00
	00		 je	 $LN88@LoadString
  000b0	80 f2 ed	 xor	 dl, -19			; ffffffedH
  000b3	88 55 f0	 mov	 BYTE PTR __k$[ebp+8], dl
  000b6	8a 50 09	 mov	 dl, BYTE PTR [eax+9]
  000b9	84 d2		 test	 dl, dl
  000bb	0f 84 be 00 00
	00		 je	 $LN87@LoadString
  000c1	80 f2 ec	 xor	 dl, -20			; ffffffecH
  000c4	88 55 f1	 mov	 BYTE PTR __k$[ebp+9], dl
  000c7	8a 50 0a	 mov	 dl, BYTE PTR [eax+10]
  000ca	84 d2		 test	 dl, dl
  000cc	0f 84 a8 00 00
	00		 je	 $LN86@LoadString
  000d2	32 d1		 xor	 dl, cl
  000d4	88 55 f2	 mov	 BYTE PTR __k$[ebp+10], dl
  000d7	8a 50 0b	 mov	 dl, BYTE PTR [eax+11]
  000da	84 d2		 test	 dl, dl
  000dc	0f 84 92 00 00
	00		 je	 $LN85@LoadString
  000e2	80 f2 ea	 xor	 dl, -22			; ffffffeaH
  000e5	88 55 f3	 mov	 BYTE PTR __k$[ebp+11], dl
  000e8	8a 50 0c	 mov	 dl, BYTE PTR [eax+12]
  000eb	84 d2		 test	 dl, dl
  000ed	74 7f		 je	 SHORT $LN84@LoadString
  000ef	80 f2 ed	 xor	 dl, -19			; ffffffedH
  000f2	88 55 f4	 mov	 BYTE PTR __k$[ebp+12], dl
  000f5	8a 50 0d	 mov	 dl, BYTE PTR [eax+13]
  000f8	84 d2		 test	 dl, dl
  000fa	74 6c		 je	 SHORT $LN83@LoadString
  000fc	80 f2 ec	 xor	 dl, -20			; ffffffecH
  000ff	88 55 f5	 mov	 BYTE PTR __k$[ebp+13], dl
  00102	8a 50 0e	 mov	 dl, BYTE PTR [eax+14]
  00105	84 d2		 test	 dl, dl
  00107	74 5a		 je	 SHORT $LN82@LoadString
  00109	32 d1		 xor	 dl, cl
  0010b	80 78 0f 00	 cmp	 BYTE PTR [eax+15], 0
  0010f	88 55 f6	 mov	 BYTE PTR __k$[ebp+14], dl
  00112	0f 84 a0 00 00
	00		 je	 $LN111@LoadString
  00118	8a 50 10	 mov	 dl, BYTE PTR [eax+16]
  0011b	84 d2		 test	 dl, dl
  0011d	74 3e		 je	 SHORT $LN80@LoadString
  0011f	80 f2 ed	 xor	 dl, -19			; ffffffedH
  00122	88 55 f8	 mov	 BYTE PTR __k$[ebp+16], dl
  00125	8a 50 11	 mov	 dl, BYTE PTR [eax+17]
  00128	84 d2		 test	 dl, dl
  0012a	74 2b		 je	 SHORT $LN79@LoadString
  0012c	80 f2 ec	 xor	 dl, -20			; ffffffecH
  0012f	88 55 f9	 mov	 BYTE PTR __k$[ebp+17], dl
  00132	8a 50 12	 mov	 dl, BYTE PTR [eax+18]
  00135	84 d2		 test	 dl, dl
  00137	74 19		 je	 SHORT $LN78@LoadString
  00139	8a 40 13	 mov	 al, BYTE PTR [eax+19]
  0013c	32 d1		 xor	 dl, cl
  0013e	88 55 fa	 mov	 BYTE PTR __k$[ebp+18], dl
  00141	84 c0		 test	 al, al
  00143	74 07		 je	 SHORT $LN77@LoadString
  00145	34 ea		 xor	 al, -22			; ffffffeaH
  00147	88 45 fb	 mov	 BYTE PTR __k$[ebp+19], al
  0014a	eb 6c		 jmp	 SHORT $LN111@LoadString
$LN77@LoadString:
  0014c	c6 45 fb ea	 mov	 BYTE PTR __k$[ebp+19], -22 ; ffffffeaH
  00150	eb 66		 jmp	 SHORT $LN111@LoadString
$LN78@LoadString:
  00152	88 4d fa	 mov	 BYTE PTR __k$[ebp+18], cl
  00155	eb 61		 jmp	 SHORT $LN111@LoadString
$LN79@LoadString:
  00157	c6 45 f9 ec	 mov	 BYTE PTR __k$[ebp+17], -20 ; ffffffecH
  0015b	eb 5b		 jmp	 SHORT $LN111@LoadString
$LN80@LoadString:
  0015d	c6 45 f8 ed	 mov	 BYTE PTR __k$[ebp+16], -19 ; ffffffedH
  00161	eb 55		 jmp	 SHORT $LN111@LoadString
$LN82@LoadString:
  00163	88 4d f6	 mov	 BYTE PTR __k$[ebp+14], cl
  00166	eb 50		 jmp	 SHORT $LN111@LoadString
$LN83@LoadString:
  00168	c6 45 f5 ec	 mov	 BYTE PTR __k$[ebp+13], -20 ; ffffffecH
  0016c	eb 4a		 jmp	 SHORT $LN111@LoadString
$LN84@LoadString:
  0016e	c6 45 f4 ed	 mov	 BYTE PTR __k$[ebp+12], -19 ; ffffffedH
  00172	eb 44		 jmp	 SHORT $LN111@LoadString
$LN85@LoadString:
  00174	c6 45 f3 ea	 mov	 BYTE PTR __k$[ebp+11], -22 ; ffffffeaH
  00178	eb 3e		 jmp	 SHORT $LN111@LoadString
$LN86@LoadString:
  0017a	88 4d f2	 mov	 BYTE PTR __k$[ebp+10], cl
  0017d	eb 39		 jmp	 SHORT $LN111@LoadString
$LN87@LoadString:
  0017f	c6 45 f1 ec	 mov	 BYTE PTR __k$[ebp+9], -20 ; ffffffecH
  00183	eb 33		 jmp	 SHORT $LN111@LoadString
$LN88@LoadString:
  00185	c6 45 f0 ed	 mov	 BYTE PTR __k$[ebp+8], -19 ; ffffffedH
  00189	eb 2d		 jmp	 SHORT $LN111@LoadString
$LN89@LoadString:
  0018b	c6 45 ef ea	 mov	 BYTE PTR __k$[ebp+7], -22 ; ffffffeaH
  0018f	eb 27		 jmp	 SHORT $LN111@LoadString
$LN90@LoadString:
  00191	88 4d ee	 mov	 BYTE PTR __k$[ebp+6], cl
  00194	eb 22		 jmp	 SHORT $LN111@LoadString
$LN91@LoadString:
  00196	c6 45 ed ec	 mov	 BYTE PTR __k$[ebp+5], -20 ; ffffffecH
  0019a	eb 1c		 jmp	 SHORT $LN111@LoadString
$LN92@LoadString:
  0019c	c6 45 ec ed	 mov	 BYTE PTR __k$[ebp+4], -19 ; ffffffedH
  001a0	eb 16		 jmp	 SHORT $LN111@LoadString
$LN93@LoadString:
  001a2	c6 45 eb ea	 mov	 BYTE PTR __k$[ebp+3], -22 ; ffffffeaH
  001a6	eb 10		 jmp	 SHORT $LN111@LoadString
$LN94@LoadString:
  001a8	c6 45 ea eb	 mov	 BYTE PTR __k$[ebp+2], -21 ; ffffffebH
  001ac	eb 0a		 jmp	 SHORT $LN111@LoadString
$LN95@LoadString:
  001ae	c6 45 e9 ec	 mov	 BYTE PTR __k$[ebp+1], -20 ; ffffffecH
  001b2	eb 04		 jmp	 SHORT $LN111@LoadString
$LN96@LoadString:
  001b4	c6 45 e8 ed	 mov	 BYTE PTR __k$[ebp], -19	; ffffffedH
$LN111@LoadString:
  001b8	6a 03		 push	 3
  001ba	8d 45 e8	 lea	 eax, DWORD PTR __k$[ebp]
  001bd	c6 45 f7 00	 mov	 BYTE PTR __k$[ebp+15], 0
  001c1	5a		 pop	 edx
$LL104@LoadString:
  001c2	81 30 ed ec eb
	ea		 xor	 DWORD PTR [eax], -353637139 ; eaebecedH
  001c8	83 c0 04	 add	 eax, 4
  001cb	4a		 dec	 edx
  001cc	75 f4		 jne	 SHORT $LL104@LoadString
  001ce	6a 0c		 push	 12			; 0000000cH
  001d0	58		 pop	 eax
$LL101@LoadString:
  001d1	8b c8		 mov	 ecx, eax
  001d3	81 e1 03 00 00
	80		 and	 ecx, -2147483645	; 80000003H
  001d9	79 05		 jns	 SHORT $LN112@LoadString
  001db	49		 dec	 ecx
  001dc	83 c9 fc	 or	 ecx, -4			; fffffffcH
  001df	41		 inc	 ecx
$LN112@LoadString:
  001e0	b2 ed		 mov	 dl, -19			; ffffffedH
  001e2	2a d1		 sub	 dl, cl
  001e4	30 54 05 e8	 xor	 BYTE PTR __k$[ebp+eax], dl
  001e8	40		 inc	 eax
  001e9	83 f8 0f	 cmp	 eax, 15			; 0000000fH
  001ec	7c e3		 jl	 SHORT $LL101@LoadString

; 163  : 		LoadString(_k, d, b, i);

  001ee	ff 75 14	 push	 DWORD PTR _i$[ebp]
  001f1	8b 4d e4	 mov	 ecx, DWORD PTR _this$GSCopy$[ebp]
  001f4	57		 push	 edi
  001f5	56		 push	 esi
  001f6	8d 45 e8	 lea	 eax, DWORD PTR __k$[ebp]
  001f9	50		 push	 eax
  001fa	ff 15 00 00 00
	00		 call	 DWORD PTR __imp_?LoadStringA@ioINILoader@@QAEXPBD0PADH@Z

; 164  : 	}

  00200	8b 4d fc	 mov	 ecx, DWORD PTR __$ArrayPad$[ebp]
  00203	5f		 pop	 edi
  00204	33 cd		 xor	 ecx, ebp
  00206	5e		 pop	 esi
  00207	e8 00 00 00 00	 call	 @__security_check_cookie@4
  0020c	c9		 leave
  0020d	c2 10 00	 ret	 16			; 00000010H
??$LoadString_e@$0BA@@ioINILoader@@QAEXAAY0BA@$$CBDAAY00$$CBDPADH@Z ENDP ; ioINILoader::LoadString_e<16>
_TEXT	ENDS
PUBLIC	_this$GSCopy$
PUBLIC	__$ArrayPad$
PUBLIC	??$LoadString_e@$0P@@ioINILoader@@QAEXAAY0P@$$CBDAAY00$$CBDPADH@Z ; ioINILoader::LoadString_e<15>
; Function compile flags: /Ogsp
;	COMDAT ??$LoadString_e@$0P@@ioINILoader@@QAEXAAY0P@$$CBDAAY00$$CBDPADH@Z
_TEXT	SEGMENT
_this$GSCopy$ = -28					; size = 4
__k$ = -24						; size = 15
__$ArrayPad$ = -4					; size = 4
_k$ = 8							; size = 4
_d$ = 12						; size = 4
_b$ = 16						; size = 4
_i$ = 20						; size = 4
??$LoadString_e@$0P@@ioINILoader@@QAEXAAY0P@$$CBDAAY00$$CBDPADH@Z PROC ; ioINILoader::LoadString_e<15>, COMDAT
; _this$ = ecx

; 161  : 	{

  00000	55		 push	 ebp
  00001	8b ec		 mov	 ebp, esp
  00003	83 ec 1c	 sub	 esp, 28			; 0000001cH
  00006	a1 00 00 00 00	 mov	 eax, DWORD PTR ___security_cookie
  0000b	33 c5		 xor	 eax, ebp
  0000d	89 45 fc	 mov	 DWORD PTR __$ArrayPad$[ebp], eax
  00010	8b 45 08	 mov	 eax, DWORD PTR _k$[ebp]

; 162  : 		_ENCSTR(k, _k);

  00013	8a 10		 mov	 dl, BYTE PTR [eax]
  00015	56		 push	 esi
  00016	8b 75 0c	 mov	 esi, DWORD PTR _d$[ebp]
  00019	57		 push	 edi
  0001a	8b 7d 10	 mov	 edi, DWORD PTR _b$[ebp]
  0001d	89 4d e4	 mov	 DWORD PTR _this$GSCopy$[ebp], ecx
  00020	84 d2		 test	 dl, dl
  00022	0f 84 75 01 00
	00		 je	 $LN96@LoadString@2
  00028	80 f2 ed	 xor	 dl, -19			; ffffffedH
  0002b	88 55 e8	 mov	 BYTE PTR __k$[ebp], dl
  0002e	8a 50 01	 mov	 dl, BYTE PTR [eax+1]
  00031	84 d2		 test	 dl, dl
  00033	0f 84 5e 01 00
	00		 je	 $LN95@LoadString@2
  00039	b1 ec		 mov	 cl, -20			; ffffffecH
  0003b	32 d1		 xor	 dl, cl
  0003d	88 55 e9	 mov	 BYTE PTR __k$[ebp+1], dl
  00040	8a 50 02	 mov	 dl, BYTE PTR [eax+2]
  00043	84 d2		 test	 dl, dl
  00045	0f 84 46 01 00
	00		 je	 $LN94@LoadString@2
  0004b	80 f2 eb	 xor	 dl, -21			; ffffffebH
  0004e	88 55 ea	 mov	 BYTE PTR __k$[ebp+2], dl
  00051	8a 50 03	 mov	 dl, BYTE PTR [eax+3]
  00054	84 d2		 test	 dl, dl
  00056	0f 84 2f 01 00
	00		 je	 $LN93@LoadString@2
  0005c	80 f2 ea	 xor	 dl, -22			; ffffffeaH
  0005f	88 55 eb	 mov	 BYTE PTR __k$[ebp+3], dl
  00062	8a 50 04	 mov	 dl, BYTE PTR [eax+4]
  00065	84 d2		 test	 dl, dl
  00067	0f 84 18 01 00
	00		 je	 $LN92@LoadString@2
  0006d	80 f2 ed	 xor	 dl, -19			; ffffffedH
  00070	88 55 ec	 mov	 BYTE PTR __k$[ebp+4], dl
  00073	8a 50 05	 mov	 dl, BYTE PTR [eax+5]
  00076	84 d2		 test	 dl, dl
  00078	0f 84 02 01 00
	00		 je	 $LN91@LoadString@2
  0007e	32 d1		 xor	 dl, cl
  00080	88 55 ed	 mov	 BYTE PTR __k$[ebp+5], dl
  00083	8a 50 06	 mov	 dl, BYTE PTR [eax+6]
  00086	84 d2		 test	 dl, dl
  00088	0f 84 ec 00 00
	00		 je	 $LN90@LoadString@2
  0008e	80 f2 eb	 xor	 dl, -21			; ffffffebH
  00091	88 55 ee	 mov	 BYTE PTR __k$[ebp+6], dl
  00094	8a 50 07	 mov	 dl, BYTE PTR [eax+7]
  00097	84 d2		 test	 dl, dl
  00099	0f 84 d5 00 00
	00		 je	 $LN89@LoadString@2
  0009f	80 f2 ea	 xor	 dl, -22			; ffffffeaH
  000a2	88 55 ef	 mov	 BYTE PTR __k$[ebp+7], dl
  000a5	8a 50 08	 mov	 dl, BYTE PTR [eax+8]
  000a8	84 d2		 test	 dl, dl
  000aa	0f 84 be 00 00
	00		 je	 $LN88@LoadString@2
  000b0	80 f2 ed	 xor	 dl, -19			; ffffffedH
  000b3	88 55 f0	 mov	 BYTE PTR __k$[ebp+8], dl
  000b6	8a 50 09	 mov	 dl, BYTE PTR [eax+9]
  000b9	84 d2		 test	 dl, dl
  000bb	0f 84 a8 00 00
	00		 je	 $LN87@LoadString@2
  000c1	32 d1		 xor	 dl, cl
  000c3	88 55 f1	 mov	 BYTE PTR __k$[ebp+9], dl
  000c6	8a 50 0a	 mov	 dl, BYTE PTR [eax+10]
  000c9	84 d2		 test	 dl, dl
  000cb	0f 84 92 00 00
	00		 je	 $LN86@LoadString@2
  000d1	80 f2 eb	 xor	 dl, -21			; ffffffebH
  000d4	88 55 f2	 mov	 BYTE PTR __k$[ebp+10], dl
  000d7	8a 50 0b	 mov	 dl, BYTE PTR [eax+11]
  000da	84 d2		 test	 dl, dl
  000dc	74 7f		 je	 SHORT $LN85@LoadString@2
  000de	80 f2 ea	 xor	 dl, -22			; ffffffeaH
  000e1	88 55 f3	 mov	 BYTE PTR __k$[ebp+11], dl
  000e4	8a 50 0c	 mov	 dl, BYTE PTR [eax+12]
  000e7	84 d2		 test	 dl, dl
  000e9	74 6c		 je	 SHORT $LN84@LoadString@2
  000eb	80 f2 ed	 xor	 dl, -19			; ffffffedH
  000ee	88 55 f4	 mov	 BYTE PTR __k$[ebp+12], dl
  000f1	8a 50 0d	 mov	 dl, BYTE PTR [eax+13]
  000f4	84 d2		 test	 dl, dl
  000f6	74 5a		 je	 SHORT $LN83@LoadString@2
  000f8	32 d1		 xor	 dl, cl
  000fa	80 78 0e 00	 cmp	 BYTE PTR [eax+14], 0
  000fe	88 55 f5	 mov	 BYTE PTR __k$[ebp+13], dl
  00101	0f 84 9a 00 00
	00		 je	 $LN111@LoadString@2
  00107	8a 50 0f	 mov	 dl, BYTE PTR [eax+15]
  0010a	84 d2		 test	 dl, dl
  0010c	74 3e		 je	 SHORT $LN81@LoadString@2
  0010e	80 f2 ea	 xor	 dl, -22			; ffffffeaH
  00111	88 55 f7	 mov	 BYTE PTR __k$[ebp+15], dl
  00114	8a 50 10	 mov	 dl, BYTE PTR [eax+16]
  00117	84 d2		 test	 dl, dl
  00119	74 2b		 je	 SHORT $LN80@LoadString@2
  0011b	80 f2 ed	 xor	 dl, -19			; ffffffedH
  0011e	88 55 f8	 mov	 BYTE PTR __k$[ebp+16], dl
  00121	8a 50 11	 mov	 dl, BYTE PTR [eax+17]
  00124	84 d2		 test	 dl, dl
  00126	74 19		 je	 SHORT $LN79@LoadString@2
  00128	8a 40 12	 mov	 al, BYTE PTR [eax+18]
  0012b	32 d1		 xor	 dl, cl
  0012d	88 55 f9	 mov	 BYTE PTR __k$[ebp+17], dl
  00130	84 c0		 test	 al, al
  00132	74 07		 je	 SHORT $LN78@LoadString@2
  00134	34 eb		 xor	 al, -21			; ffffffebH
  00136	88 45 fa	 mov	 BYTE PTR __k$[ebp+18], al
  00139	eb 66		 jmp	 SHORT $LN111@LoadString@2
$LN78@LoadString@2:
  0013b	c6 45 fa eb	 mov	 BYTE PTR __k$[ebp+18], -21 ; ffffffebH
  0013f	eb 60		 jmp	 SHORT $LN111@LoadString@2
$LN79@LoadString@2:
  00141	88 4d f9	 mov	 BYTE PTR __k$[ebp+17], cl
  00144	eb 5b		 jmp	 SHORT $LN111@LoadString@2
$LN80@LoadString@2:
  00146	c6 45 f8 ed	 mov	 BYTE PTR __k$[ebp+16], -19 ; ffffffedH
  0014a	eb 55		 jmp	 SHORT $LN111@LoadString@2
$LN81@LoadString@2:
  0014c	c6 45 f7 ea	 mov	 BYTE PTR __k$[ebp+15], -22 ; ffffffeaH
  00150	eb 4f		 jmp	 SHORT $LN111@LoadString@2
$LN83@LoadString@2:
  00152	88 4d f5	 mov	 BYTE PTR __k$[ebp+13], cl
  00155	eb 4a		 jmp	 SHORT $LN111@LoadString@2
$LN84@LoadString@2:
  00157	c6 45 f4 ed	 mov	 BYTE PTR __k$[ebp+12], -19 ; ffffffedH
  0015b	eb 44		 jmp	 SHORT $LN111@LoadString@2
$LN85@LoadString@2:
  0015d	c6 45 f3 ea	 mov	 BYTE PTR __k$[ebp+11], -22 ; ffffffeaH
  00161	eb 3e		 jmp	 SHORT $LN111@LoadString@2
$LN86@LoadString@2:
  00163	c6 45 f2 eb	 mov	 BYTE PTR __k$[ebp+10], -21 ; ffffffebH
  00167	eb 38		 jmp	 SHORT $LN111@LoadString@2
$LN87@LoadString@2:
  00169	88 4d f1	 mov	 BYTE PTR __k$[ebp+9], cl
  0016c	eb 33		 jmp	 SHORT $LN111@LoadString@2
$LN88@LoadString@2:
  0016e	c6 45 f0 ed	 mov	 BYTE PTR __k$[ebp+8], -19 ; ffffffedH
  00172	eb 2d		 jmp	 SHORT $LN111@LoadString@2
$LN89@LoadString@2:
  00174	c6 45 ef ea	 mov	 BYTE PTR __k$[ebp+7], -22 ; ffffffeaH
  00178	eb 27		 jmp	 SHORT $LN111@LoadString@2
$LN90@LoadString@2:
  0017a	c6 45 ee eb	 mov	 BYTE PTR __k$[ebp+6], -21 ; ffffffebH
  0017e	eb 21		 jmp	 SHORT $LN111@LoadString@2
$LN91@LoadString@2:
  00180	88 4d ed	 mov	 BYTE PTR __k$[ebp+5], cl
  00183	eb 1c		 jmp	 SHORT $LN111@LoadString@2
$LN92@LoadString@2:
  00185	c6 45 ec ed	 mov	 BYTE PTR __k$[ebp+4], -19 ; ffffffedH
  00189	eb 16		 jmp	 SHORT $LN111@LoadString@2
$LN93@LoadString@2:
  0018b	c6 45 eb ea	 mov	 BYTE PTR __k$[ebp+3], -22 ; ffffffeaH
  0018f	eb 10		 jmp	 SHORT $LN111@LoadString@2
$LN94@LoadString@2:
  00191	c6 45 ea eb	 mov	 BYTE PTR __k$[ebp+2], -21 ; ffffffebH
  00195	eb 0a		 jmp	 SHORT $LN111@LoadString@2
$LN95@LoadString@2:
  00197	c6 45 e9 ec	 mov	 BYTE PTR __k$[ebp+1], -20 ; ffffffecH
  0019b	eb 04		 jmp	 SHORT $LN111@LoadString@2
$LN96@LoadString@2:
  0019d	c6 45 e8 ed	 mov	 BYTE PTR __k$[ebp], -19	; ffffffedH
$LN111@LoadString@2:
  001a1	6a 03		 push	 3
  001a3	8d 45 e8	 lea	 eax, DWORD PTR __k$[ebp]
  001a6	c6 45 f6 00	 mov	 BYTE PTR __k$[ebp+14], 0
  001aa	5a		 pop	 edx
$LL104@LoadString@2:
  001ab	81 30 ed ec eb
	ea		 xor	 DWORD PTR [eax], -353637139 ; eaebecedH
  001b1	83 c0 04	 add	 eax, 4
  001b4	4a		 dec	 edx
  001b5	75 f4		 jne	 SHORT $LL104@LoadString@2
  001b7	6a 0c		 push	 12			; 0000000cH
  001b9	58		 pop	 eax
$LL101@LoadString@2:
  001ba	8b c8		 mov	 ecx, eax
  001bc	81 e1 03 00 00
	80		 and	 ecx, -2147483645	; 80000003H
  001c2	79 05		 jns	 SHORT $LN112@LoadString@2
  001c4	49		 dec	 ecx
  001c5	83 c9 fc	 or	 ecx, -4			; fffffffcH
  001c8	41		 inc	 ecx
$LN112@LoadString@2:
  001c9	b2 ed		 mov	 dl, -19			; ffffffedH
  001cb	2a d1		 sub	 dl, cl
  001cd	30 54 05 e8	 xor	 BYTE PTR __k$[ebp+eax], dl
  001d1	40		 inc	 eax
  001d2	83 f8 0e	 cmp	 eax, 14			; 0000000eH
  001d5	7c e3		 jl	 SHORT $LL101@LoadString@2

; 163  : 		LoadString(_k, d, b, i);

  001d7	ff 75 14	 push	 DWORD PTR _i$[ebp]
  001da	8b 4d e4	 mov	 ecx, DWORD PTR _this$GSCopy$[ebp]
  001dd	57		 push	 edi
  001de	56		 push	 esi
  001df	8d 45 e8	 lea	 eax, DWORD PTR __k$[ebp]
  001e2	50		 push	 eax
  001e3	ff 15 00 00 00
	00		 call	 DWORD PTR __imp_?LoadStringA@ioINILoader@@QAEXPBD0PADH@Z

; 164  : 	}

  001e9	8b 4d fc	 mov	 ecx, DWORD PTR __$ArrayPad$[ebp]
  001ec	5f		 pop	 edi
  001ed	33 cd		 xor	 ecx, ebp
  001ef	5e		 pop	 esi
  001f0	e8 00 00 00 00	 call	 @__security_check_cookie@4
  001f5	c9		 leave
  001f6	c2 10 00	 ret	 16			; 00000010H
??$LoadString_e@$0P@@ioINILoader@@QAEXAAY0P@$$CBDAAY00$$CBDPADH@Z ENDP ; ioINILoader::LoadString_e<15>
_TEXT	ENDS
PUBLIC	__$ArrayPad$
PUBLIC	??$LoadBool_e@$0BE@@ioINILoader@@QAE_NAAY0BE@$$CBD_N@Z ; ioINILoader::LoadBool_e<20>
EXTRN	__imp_?LoadBool@ioINILoader@@QAE_NPBD_N@Z:PROC
; Function compile flags: /Ogsp
;	COMDAT ??$LoadBool_e@$0BE@@ioINILoader@@QAE_NAAY0BE@$$CBD_N@Z
_TEXT	SEGMENT
__k$ = -28						; size = 20
__$ArrayPad$ = -4					; size = 4
_k$ = 8							; size = 4
_b$ = 12						; size = 1
??$LoadBool_e@$0BE@@ioINILoader@@QAE_NAAY0BE@$$CBD_N@Z PROC ; ioINILoader::LoadBool_e<20>, COMDAT
; _this$ = ecx

; 101  : 	{

  00000	55		 push	 ebp
  00001	8b ec		 mov	 ebp, esp
  00003	83 ec 1c	 sub	 esp, 28			; 0000001cH
  00006	a1 00 00 00 00	 mov	 eax, DWORD PTR ___security_cookie
  0000b	33 c5		 xor	 eax, ebp
  0000d	89 45 fc	 mov	 DWORD PTR __$ArrayPad$[ebp], eax
  00010	8b 45 08	 mov	 eax, DWORD PTR _k$[ebp]

; 102  : 		_ENCSTR(k, _k);

  00013	8a 10		 mov	 dl, BYTE PTR [eax]
  00015	53		 push	 ebx
  00016	56		 push	 esi
  00017	8b f1		 mov	 esi, ecx
  00019	84 d2		 test	 dl, dl
  0001b	0f 84 dd 01 00
	00		 je	 $LN96@LoadBool_e
  00021	80 f2 ed	 xor	 dl, -19			; ffffffedH
  00024	88 55 e4	 mov	 BYTE PTR __k$[ebp], dl
  00027	8a 50 01	 mov	 dl, BYTE PTR [eax+1]
  0002a	84 d2		 test	 dl, dl
  0002c	0f 84 c6 01 00
	00		 je	 $LN95@LoadBool_e
  00032	b3 ec		 mov	 bl, -20			; ffffffecH
  00034	32 d3		 xor	 dl, bl
  00036	88 55 e5	 mov	 BYTE PTR __k$[ebp+1], dl
  00039	8a 50 02	 mov	 dl, BYTE PTR [eax+2]
  0003c	84 d2		 test	 dl, dl
  0003e	0f 84 ae 01 00
	00		 je	 $LN94@LoadBool_e
  00044	b1 eb		 mov	 cl, -21			; ffffffebH
  00046	32 d1		 xor	 dl, cl
  00048	88 55 e6	 mov	 BYTE PTR __k$[ebp+2], dl
  0004b	8a 50 03	 mov	 dl, BYTE PTR [eax+3]
  0004e	84 d2		 test	 dl, dl
  00050	0f 84 96 01 00
	00		 je	 $LN93@LoadBool_e
  00056	80 f2 ea	 xor	 dl, -22			; ffffffeaH
  00059	88 55 e7	 mov	 BYTE PTR __k$[ebp+3], dl
  0005c	8a 50 04	 mov	 dl, BYTE PTR [eax+4]
  0005f	84 d2		 test	 dl, dl
  00061	0f 84 7f 01 00
	00		 je	 $LN92@LoadBool_e
  00067	80 f2 ed	 xor	 dl, -19			; ffffffedH
  0006a	88 55 e8	 mov	 BYTE PTR __k$[ebp+4], dl
  0006d	8a 50 05	 mov	 dl, BYTE PTR [eax+5]
  00070	84 d2		 test	 dl, dl
  00072	0f 84 69 01 00
	00		 je	 $LN91@LoadBool_e
  00078	32 d3		 xor	 dl, bl
  0007a	88 55 e9	 mov	 BYTE PTR __k$[ebp+5], dl
  0007d	8a 50 06	 mov	 dl, BYTE PTR [eax+6]
  00080	84 d2		 test	 dl, dl
  00082	0f 84 54 01 00
	00		 je	 $LN90@LoadBool_e
  00088	32 d1		 xor	 dl, cl
  0008a	88 55 ea	 mov	 BYTE PTR __k$[ebp+6], dl
  0008d	8a 50 07	 mov	 dl, BYTE PTR [eax+7]
  00090	84 d2		 test	 dl, dl
  00092	0f 84 3e 01 00
	00		 je	 $LN89@LoadBool_e
  00098	80 f2 ea	 xor	 dl, -22			; ffffffeaH
  0009b	88 55 eb	 mov	 BYTE PTR __k$[ebp+7], dl
  0009e	8a 50 08	 mov	 dl, BYTE PTR [eax+8]
  000a1	84 d2		 test	 dl, dl
  000a3	0f 84 27 01 00
	00		 je	 $LN88@LoadBool_e
  000a9	80 f2 ed	 xor	 dl, -19			; ffffffedH
  000ac	88 55 ec	 mov	 BYTE PTR __k$[ebp+8], dl
  000af	8a 50 09	 mov	 dl, BYTE PTR [eax+9]
  000b2	84 d2		 test	 dl, dl
  000b4	0f 84 11 01 00
	00		 je	 $LN87@LoadBool_e
  000ba	32 d3		 xor	 dl, bl
  000bc	88 55 ed	 mov	 BYTE PTR __k$[ebp+9], dl
  000bf	8a 50 0a	 mov	 dl, BYTE PTR [eax+10]
  000c2	84 d2		 test	 dl, dl
  000c4	0f 84 fc 00 00
	00		 je	 $LN86@LoadBool_e
  000ca	32 d1		 xor	 dl, cl
  000cc	88 55 ee	 mov	 BYTE PTR __k$[ebp+10], dl
  000cf	8a 50 0b	 mov	 dl, BYTE PTR [eax+11]
  000d2	84 d2		 test	 dl, dl
  000d4	0f 84 e6 00 00
	00		 je	 $LN85@LoadBool_e
  000da	80 f2 ea	 xor	 dl, -22			; ffffffeaH
  000dd	88 55 ef	 mov	 BYTE PTR __k$[ebp+11], dl
  000e0	8a 50 0c	 mov	 dl, BYTE PTR [eax+12]
  000e3	84 d2		 test	 dl, dl
  000e5	0f 84 cf 00 00
	00		 je	 $LN84@LoadBool_e
  000eb	80 f2 ed	 xor	 dl, -19			; ffffffedH
  000ee	88 55 f0	 mov	 BYTE PTR __k$[ebp+12], dl
  000f1	8a 50 0d	 mov	 dl, BYTE PTR [eax+13]
  000f4	84 d2		 test	 dl, dl
  000f6	0f 84 b9 00 00
	00		 je	 $LN83@LoadBool_e
  000fc	32 d3		 xor	 dl, bl
  000fe	88 55 f1	 mov	 BYTE PTR __k$[ebp+13], dl
  00101	8a 50 0e	 mov	 dl, BYTE PTR [eax+14]
  00104	84 d2		 test	 dl, dl
  00106	0f 84 a4 00 00
	00		 je	 $LN82@LoadBool_e
  0010c	32 d1		 xor	 dl, cl
  0010e	88 55 f2	 mov	 BYTE PTR __k$[ebp+14], dl
  00111	8a 50 0f	 mov	 dl, BYTE PTR [eax+15]
  00114	84 d2		 test	 dl, dl
  00116	0f 84 8e 00 00
	00		 je	 $LN81@LoadBool_e
  0011c	80 f2 ea	 xor	 dl, -22			; ffffffeaH
  0011f	88 55 f3	 mov	 BYTE PTR __k$[ebp+15], dl
  00122	8a 50 10	 mov	 dl, BYTE PTR [eax+16]
  00125	84 d2		 test	 dl, dl
  00127	74 7b		 je	 SHORT $LN80@LoadBool_e
  00129	80 f2 ed	 xor	 dl, -19			; ffffffedH
  0012c	88 55 f4	 mov	 BYTE PTR __k$[ebp+16], dl
  0012f	8a 50 11	 mov	 dl, BYTE PTR [eax+17]
  00132	84 d2		 test	 dl, dl
  00134	74 69		 je	 SHORT $LN79@LoadBool_e
  00136	32 d3		 xor	 dl, bl
  00138	88 55 f5	 mov	 BYTE PTR __k$[ebp+17], dl
  0013b	8a 50 12	 mov	 dl, BYTE PTR [eax+18]
  0013e	84 d2		 test	 dl, dl
  00140	74 58		 je	 SHORT $LN78@LoadBool_e
  00142	32 d1		 xor	 dl, cl
  00144	80 78 13 00	 cmp	 BYTE PTR [eax+19], 0
  00148	88 55 f6	 mov	 BYTE PTR __k$[ebp+18], dl
  0014b	0f 84 b1 00 00
	00		 je	 $LN1@LoadBool_e
  00151	8a 50 14	 mov	 dl, BYTE PTR [eax+20]
  00154	84 d2		 test	 dl, dl
  00156	74 3c		 je	 SHORT $LN76@LoadBool_e
  00158	80 f2 ed	 xor	 dl, -19			; ffffffedH
  0015b	88 55 f8	 mov	 BYTE PTR __k$[ebp+20], dl
  0015e	8a 50 15	 mov	 dl, BYTE PTR [eax+21]
  00161	84 d2		 test	 dl, dl
  00163	74 2a		 je	 SHORT $LN75@LoadBool_e
  00165	32 d3		 xor	 dl, bl
  00167	88 55 f9	 mov	 BYTE PTR __k$[ebp+21], dl
  0016a	8a 50 16	 mov	 dl, BYTE PTR [eax+22]
  0016d	84 d2		 test	 dl, dl
  0016f	74 19		 je	 SHORT $LN74@LoadBool_e
  00171	8a 40 17	 mov	 al, BYTE PTR [eax+23]
  00174	32 d1		 xor	 dl, cl
  00176	88 55 fa	 mov	 BYTE PTR __k$[ebp+22], dl
  00179	84 c0		 test	 al, al
  0017b	74 07		 je	 SHORT $LN73@LoadBool_e
  0017d	34 ea		 xor	 al, -22			; ffffffeaH
  0017f	88 45 fb	 mov	 BYTE PTR __k$[ebp+23], al
  00182	eb 7e		 jmp	 SHORT $LN1@LoadBool_e
$LN73@LoadBool_e:
  00184	c6 45 fb ea	 mov	 BYTE PTR __k$[ebp+23], -22 ; ffffffeaH
  00188	eb 78		 jmp	 SHORT $LN1@LoadBool_e
$LN74@LoadBool_e:
  0018a	88 4d fa	 mov	 BYTE PTR __k$[ebp+22], cl
  0018d	eb 73		 jmp	 SHORT $LN1@LoadBool_e
$LN75@LoadBool_e:
  0018f	88 5d f9	 mov	 BYTE PTR __k$[ebp+21], bl
  00192	eb 6e		 jmp	 SHORT $LN1@LoadBool_e
$LN76@LoadBool_e:
  00194	c6 45 f8 ed	 mov	 BYTE PTR __k$[ebp+20], -19 ; ffffffedH
  00198	eb 68		 jmp	 SHORT $LN1@LoadBool_e
$LN78@LoadBool_e:
  0019a	88 4d f6	 mov	 BYTE PTR __k$[ebp+18], cl
  0019d	eb 63		 jmp	 SHORT $LN1@LoadBool_e
$LN79@LoadBool_e:
  0019f	88 5d f5	 mov	 BYTE PTR __k$[ebp+17], bl
  001a2	eb 5e		 jmp	 SHORT $LN1@LoadBool_e
$LN80@LoadBool_e:
  001a4	c6 45 f4 ed	 mov	 BYTE PTR __k$[ebp+16], -19 ; ffffffedH
  001a8	eb 58		 jmp	 SHORT $LN1@LoadBool_e
$LN81@LoadBool_e:
  001aa	c6 45 f3 ea	 mov	 BYTE PTR __k$[ebp+15], -22 ; ffffffeaH
  001ae	eb 52		 jmp	 SHORT $LN1@LoadBool_e
$LN82@LoadBool_e:
  001b0	88 4d f2	 mov	 BYTE PTR __k$[ebp+14], cl
  001b3	eb 4d		 jmp	 SHORT $LN1@LoadBool_e
$LN83@LoadBool_e:
  001b5	88 5d f1	 mov	 BYTE PTR __k$[ebp+13], bl
  001b8	eb 48		 jmp	 SHORT $LN1@LoadBool_e
$LN84@LoadBool_e:
  001ba	c6 45 f0 ed	 mov	 BYTE PTR __k$[ebp+12], -19 ; ffffffedH
  001be	eb 42		 jmp	 SHORT $LN1@LoadBool_e
$LN85@LoadBool_e:
  001c0	c6 45 ef ea	 mov	 BYTE PTR __k$[ebp+11], -22 ; ffffffeaH
  001c4	eb 3c		 jmp	 SHORT $LN1@LoadBool_e
$LN86@LoadBool_e:
  001c6	88 4d ee	 mov	 BYTE PTR __k$[ebp+10], cl
  001c9	eb 37		 jmp	 SHORT $LN1@LoadBool_e
$LN87@LoadBool_e:
  001cb	88 5d ed	 mov	 BYTE PTR __k$[ebp+9], bl
  001ce	eb 32		 jmp	 SHORT $LN1@LoadBool_e
$LN88@LoadBool_e:
  001d0	c6 45 ec ed	 mov	 BYTE PTR __k$[ebp+8], -19 ; ffffffedH
  001d4	eb 2c		 jmp	 SHORT $LN1@LoadBool_e
$LN89@LoadBool_e:
  001d6	c6 45 eb ea	 mov	 BYTE PTR __k$[ebp+7], -22 ; ffffffeaH
  001da	eb 26		 jmp	 SHORT $LN1@LoadBool_e
$LN90@LoadBool_e:
  001dc	88 4d ea	 mov	 BYTE PTR __k$[ebp+6], cl
  001df	eb 21		 jmp	 SHORT $LN1@LoadBool_e
$LN91@LoadBool_e:
  001e1	88 5d e9	 mov	 BYTE PTR __k$[ebp+5], bl
  001e4	eb 1c		 jmp	 SHORT $LN1@LoadBool_e
$LN92@LoadBool_e:
  001e6	c6 45 e8 ed	 mov	 BYTE PTR __k$[ebp+4], -19 ; ffffffedH
  001ea	eb 16		 jmp	 SHORT $LN1@LoadBool_e
$LN93@LoadBool_e:
  001ec	c6 45 e7 ea	 mov	 BYTE PTR __k$[ebp+3], -22 ; ffffffeaH
  001f0	eb 10		 jmp	 SHORT $LN1@LoadBool_e
$LN94@LoadBool_e:
  001f2	c6 45 e6 eb	 mov	 BYTE PTR __k$[ebp+2], -21 ; ffffffebH
  001f6	eb 0a		 jmp	 SHORT $LN1@LoadBool_e
$LN95@LoadBool_e:
  001f8	c6 45 e5 ec	 mov	 BYTE PTR __k$[ebp+1], -20 ; ffffffecH
  001fc	eb 04		 jmp	 SHORT $LN1@LoadBool_e
$LN96@LoadBool_e:
  001fe	c6 45 e4 ed	 mov	 BYTE PTR __k$[ebp], -19	; ffffffedH
$LN1@LoadBool_e:
  00202	6a 04		 push	 4
  00204	8d 45 e4	 lea	 eax, DWORD PTR __k$[ebp]
  00207	c6 45 f7 00	 mov	 BYTE PTR __k$[ebp+19], 0
  0020b	5a		 pop	 edx
$LL104@LoadBool_e:
  0020c	81 30 ed ec eb
	ea		 xor	 DWORD PTR [eax], -353637139 ; eaebecedH
  00212	83 c0 04	 add	 eax, 4
  00215	4a		 dec	 edx
  00216	75 f4		 jne	 SHORT $LL104@LoadBool_e
  00218	6a 10		 push	 16			; 00000010H
  0021a	58		 pop	 eax
$LL101@LoadBool_e:
  0021b	8b c8		 mov	 ecx, eax
  0021d	81 e1 03 00 00
	80		 and	 ecx, -2147483645	; 80000003H
  00223	79 05		 jns	 SHORT $LN111@LoadBool_e
  00225	49		 dec	 ecx
  00226	83 c9 fc	 or	 ecx, -4			; fffffffcH
  00229	41		 inc	 ecx
$LN111@LoadBool_e:
  0022a	b2 ed		 mov	 dl, -19			; ffffffedH
  0022c	2a d1		 sub	 dl, cl
  0022e	30 54 05 e4	 xor	 BYTE PTR __k$[ebp+eax], dl
  00232	40		 inc	 eax
  00233	83 f8 13	 cmp	 eax, 19			; 00000013H
  00236	7c e3		 jl	 SHORT $LL101@LoadBool_e

; 103  : 		return LoadBool(_k, b);

  00238	ff 75 0c	 push	 DWORD PTR _b$[ebp]
  0023b	8d 45 e4	 lea	 eax, DWORD PTR __k$[ebp]
  0023e	50		 push	 eax
  0023f	8b ce		 mov	 ecx, esi
  00241	ff 15 00 00 00
	00		 call	 DWORD PTR __imp_?LoadBool@ioINILoader@@QAE_NPBD_N@Z

; 104  : 	}

  00247	8b 4d fc	 mov	 ecx, DWORD PTR __$ArrayPad$[ebp]
  0024a	5e		 pop	 esi
  0024b	33 cd		 xor	 ecx, ebp
  0024d	5b		 pop	 ebx
  0024e	e8 00 00 00 00	 call	 @__security_check_cookie@4
  00253	c9		 leave
  00254	c2 08 00	 ret	 8
??$LoadBool_e@$0BE@@ioINILoader@@QAE_NAAY0BE@$$CBD_N@Z ENDP ; ioINILoader::LoadBool_e<20>
_TEXT	ENDS
PUBLIC	__$ArrayPad$
PUBLIC	??$LoadBool_e@$0M@@ioINILoader@@QAE_NAAY0M@$$CBD_N@Z ; ioINILoader::LoadBool_e<12>
; Function compile flags: /Ogsp
;	COMDAT ??$LoadBool_e@$0M@@ioINILoader@@QAE_NAAY0M@$$CBD_N@Z
_TEXT	SEGMENT
__k$ = -20						; size = 12
__$ArrayPad$ = -4					; size = 4
_k$ = 8							; size = 4
_b$ = 12						; size = 1
??$LoadBool_e@$0M@@ioINILoader@@QAE_NAAY0M@$$CBD_N@Z PROC ; ioINILoader::LoadBool_e<12>, COMDAT
; _this$ = ecx

; 101  : 	{

  00000	55		 push	 ebp
  00001	8b ec		 mov	 ebp, esp
  00003	83 ec 14	 sub	 esp, 20			; 00000014H
  00006	a1 00 00 00 00	 mov	 eax, DWORD PTR ___security_cookie
  0000b	33 c5		 xor	 eax, ebp
  0000d	89 45 fc	 mov	 DWORD PTR __$ArrayPad$[ebp], eax
  00010	8b 45 08	 mov	 eax, DWORD PTR _k$[ebp]

; 102  : 		_ENCSTR(k, _k);

  00013	8a 10		 mov	 dl, BYTE PTR [eax]
  00015	56		 push	 esi
  00016	8b f1		 mov	 esi, ecx
  00018	84 d2		 test	 dl, dl
  0001a	0f 84 32 01 00
	00		 je	 $LN96@LoadBool_e@2
  00020	80 f2 ed	 xor	 dl, -19			; ffffffedH
  00023	88 55 ec	 mov	 BYTE PTR __k$[ebp], dl
  00026	8a 50 01	 mov	 dl, BYTE PTR [eax+1]
  00029	84 d2		 test	 dl, dl
  0002b	0f 84 1b 01 00
	00		 je	 $LN95@LoadBool_e@2
  00031	80 f2 ec	 xor	 dl, -20			; ffffffecH
  00034	88 55 ed	 mov	 BYTE PTR __k$[ebp+1], dl
  00037	8a 50 02	 mov	 dl, BYTE PTR [eax+2]
  0003a	84 d2		 test	 dl, dl
  0003c	0f 84 04 01 00
	00		 je	 $LN94@LoadBool_e@2
  00042	b1 eb		 mov	 cl, -21			; ffffffebH
  00044	32 d1		 xor	 dl, cl
  00046	88 55 ee	 mov	 BYTE PTR __k$[ebp+2], dl
  00049	8a 50 03	 mov	 dl, BYTE PTR [eax+3]
  0004c	84 d2		 test	 dl, dl
  0004e	0f 84 ec 00 00
	00		 je	 $LN93@LoadBool_e@2
  00054	80 f2 ea	 xor	 dl, -22			; ffffffeaH
  00057	88 55 ef	 mov	 BYTE PTR __k$[ebp+3], dl
  0005a	8a 50 04	 mov	 dl, BYTE PTR [eax+4]
  0005d	84 d2		 test	 dl, dl
  0005f	0f 84 d5 00 00
	00		 je	 $LN92@LoadBool_e@2
  00065	80 f2 ed	 xor	 dl, -19			; ffffffedH
  00068	88 55 f0	 mov	 BYTE PTR __k$[ebp+4], dl
  0006b	8a 50 05	 mov	 dl, BYTE PTR [eax+5]
  0006e	84 d2		 test	 dl, dl
  00070	0f 84 be 00 00
	00		 je	 $LN91@LoadBool_e@2
  00076	80 f2 ec	 xor	 dl, -20			; ffffffecH
  00079	88 55 f1	 mov	 BYTE PTR __k$[ebp+5], dl
  0007c	8a 50 06	 mov	 dl, BYTE PTR [eax+6]
  0007f	84 d2		 test	 dl, dl
  00081	0f 84 a8 00 00
	00		 je	 $LN90@LoadBool_e@2
  00087	32 d1		 xor	 dl, cl
  00089	88 55 f2	 mov	 BYTE PTR __k$[ebp+6], dl
  0008c	8a 50 07	 mov	 dl, BYTE PTR [eax+7]
  0008f	84 d2		 test	 dl, dl
  00091	0f 84 92 00 00
	00		 je	 $LN89@LoadBool_e@2
  00097	80 f2 ea	 xor	 dl, -22			; ffffffeaH
  0009a	88 55 f3	 mov	 BYTE PTR __k$[ebp+7], dl
  0009d	8a 50 08	 mov	 dl, BYTE PTR [eax+8]
  000a0	84 d2		 test	 dl, dl
  000a2	74 7f		 je	 SHORT $LN88@LoadBool_e@2
  000a4	80 f2 ed	 xor	 dl, -19			; ffffffedH
  000a7	88 55 f4	 mov	 BYTE PTR __k$[ebp+8], dl
  000aa	8a 50 09	 mov	 dl, BYTE PTR [eax+9]
  000ad	84 d2		 test	 dl, dl
  000af	74 6c		 je	 SHORT $LN87@LoadBool_e@2
  000b1	80 f2 ec	 xor	 dl, -20			; ffffffecH
  000b4	88 55 f5	 mov	 BYTE PTR __k$[ebp+9], dl
  000b7	8a 50 0a	 mov	 dl, BYTE PTR [eax+10]
  000ba	84 d2		 test	 dl, dl
  000bc	74 5a		 je	 SHORT $LN86@LoadBool_e@2
  000be	32 d1		 xor	 dl, cl
  000c0	80 78 0b 00	 cmp	 BYTE PTR [eax+11], 0
  000c4	88 55 f6	 mov	 BYTE PTR __k$[ebp+10], dl
  000c7	0f 84 89 00 00
	00		 je	 $LN1@LoadBool_e@2
  000cd	8a 50 0c	 mov	 dl, BYTE PTR [eax+12]
  000d0	84 d2		 test	 dl, dl
  000d2	74 3e		 je	 SHORT $LN84@LoadBool_e@2
  000d4	80 f2 ed	 xor	 dl, -19			; ffffffedH
  000d7	88 55 f8	 mov	 BYTE PTR __k$[ebp+12], dl
  000da	8a 50 0d	 mov	 dl, BYTE PTR [eax+13]
  000dd	84 d2		 test	 dl, dl
  000df	74 2b		 je	 SHORT $LN83@LoadBool_e@2
  000e1	80 f2 ec	 xor	 dl, -20			; ffffffecH
  000e4	88 55 f9	 mov	 BYTE PTR __k$[ebp+13], dl
  000e7	8a 50 0e	 mov	 dl, BYTE PTR [eax+14]
  000ea	84 d2		 test	 dl, dl
  000ec	74 19		 je	 SHORT $LN82@LoadBool_e@2
  000ee	8a 40 0f	 mov	 al, BYTE PTR [eax+15]
  000f1	32 d1		 xor	 dl, cl
  000f3	88 55 fa	 mov	 BYTE PTR __k$[ebp+14], dl
  000f6	84 c0		 test	 al, al
  000f8	74 07		 je	 SHORT $LN81@LoadBool_e@2
  000fa	34 ea		 xor	 al, -22			; ffffffeaH
  000fc	88 45 fb	 mov	 BYTE PTR __k$[ebp+15], al
  000ff	eb 55		 jmp	 SHORT $LN1@LoadBool_e@2
$LN81@LoadBool_e@2:
  00101	c6 45 fb ea	 mov	 BYTE PTR __k$[ebp+15], -22 ; ffffffeaH
  00105	eb 4f		 jmp	 SHORT $LN1@LoadBool_e@2
$LN82@LoadBool_e@2:
  00107	88 4d fa	 mov	 BYTE PTR __k$[ebp+14], cl
  0010a	eb 4a		 jmp	 SHORT $LN1@LoadBool_e@2
$LN83@LoadBool_e@2:
  0010c	c6 45 f9 ec	 mov	 BYTE PTR __k$[ebp+13], -20 ; ffffffecH
  00110	eb 44		 jmp	 SHORT $LN1@LoadBool_e@2
$LN84@LoadBool_e@2:
  00112	c6 45 f8 ed	 mov	 BYTE PTR __k$[ebp+12], -19 ; ffffffedH
  00116	eb 3e		 jmp	 SHORT $LN1@LoadBool_e@2
$LN86@LoadBool_e@2:
  00118	88 4d f6	 mov	 BYTE PTR __k$[ebp+10], cl
  0011b	eb 39		 jmp	 SHORT $LN1@LoadBool_e@2
$LN87@LoadBool_e@2:
  0011d	c6 45 f5 ec	 mov	 BYTE PTR __k$[ebp+9], -20 ; ffffffecH
  00121	eb 33		 jmp	 SHORT $LN1@LoadBool_e@2
$LN88@LoadBool_e@2:
  00123	c6 45 f4 ed	 mov	 BYTE PTR __k$[ebp+8], -19 ; ffffffedH
  00127	eb 2d		 jmp	 SHORT $LN1@LoadBool_e@2
$LN89@LoadBool_e@2:
  00129	c6 45 f3 ea	 mov	 BYTE PTR __k$[ebp+7], -22 ; ffffffeaH
  0012d	eb 27		 jmp	 SHORT $LN1@LoadBool_e@2
$LN90@LoadBool_e@2:
  0012f	88 4d f2	 mov	 BYTE PTR __k$[ebp+6], cl
  00132	eb 22		 jmp	 SHORT $LN1@LoadBool_e@2
$LN91@LoadBool_e@2:
  00134	c6 45 f1 ec	 mov	 BYTE PTR __k$[ebp+5], -20 ; ffffffecH
  00138	eb 1c		 jmp	 SHORT $LN1@LoadBool_e@2
$LN92@LoadBool_e@2:
  0013a	c6 45 f0 ed	 mov	 BYTE PTR __k$[ebp+4], -19 ; ffffffedH
  0013e	eb 16		 jmp	 SHORT $LN1@LoadBool_e@2
$LN93@LoadBool_e@2:
  00140	c6 45 ef ea	 mov	 BYTE PTR __k$[ebp+3], -22 ; ffffffeaH
  00144	eb 10		 jmp	 SHORT $LN1@LoadBool_e@2
$LN94@LoadBool_e@2:
  00146	c6 45 ee eb	 mov	 BYTE PTR __k$[ebp+2], -21 ; ffffffebH
  0014a	eb 0a		 jmp	 SHORT $LN1@LoadBool_e@2
$LN95@LoadBool_e@2:
  0014c	c6 45 ed ec	 mov	 BYTE PTR __k$[ebp+1], -20 ; ffffffecH
  00150	eb 04		 jmp	 SHORT $LN1@LoadBool_e@2
$LN96@LoadBool_e@2:
  00152	c6 45 ec ed	 mov	 BYTE PTR __k$[ebp], -19	; ffffffedH
$LN1@LoadBool_e@2:
  00156	6a 02		 push	 2
  00158	8d 45 ec	 lea	 eax, DWORD PTR __k$[ebp]
  0015b	c6 45 f7 00	 mov	 BYTE PTR __k$[ebp+11], 0
  0015f	5a		 pop	 edx
$LL104@LoadBool_e@2:
  00160	81 30 ed ec eb
	ea		 xor	 DWORD PTR [eax], -353637139 ; eaebecedH
  00166	83 c0 04	 add	 eax, 4
  00169	4a		 dec	 edx
  0016a	75 f4		 jne	 SHORT $LL104@LoadBool_e@2
  0016c	6a 08		 push	 8
  0016e	58		 pop	 eax
$LL101@LoadBool_e@2:
  0016f	8b c8		 mov	 ecx, eax
  00171	81 e1 03 00 00
	80		 and	 ecx, -2147483645	; 80000003H
  00177	79 05		 jns	 SHORT $LN111@LoadBool_e@2
  00179	49		 dec	 ecx
  0017a	83 c9 fc	 or	 ecx, -4			; fffffffcH
  0017d	41		 inc	 ecx
$LN111@LoadBool_e@2:
  0017e	b2 ed		 mov	 dl, -19			; ffffffedH
  00180	2a d1		 sub	 dl, cl
  00182	30 54 05 ec	 xor	 BYTE PTR __k$[ebp+eax], dl
  00186	40		 inc	 eax
  00187	83 f8 0b	 cmp	 eax, 11			; 0000000bH
  0018a	7c e3		 jl	 SHORT $LL101@LoadBool_e@2

; 103  : 		return LoadBool(_k, b);

  0018c	ff 75 0c	 push	 DWORD PTR _b$[ebp]
  0018f	8d 45 ec	 lea	 eax, DWORD PTR __k$[ebp]
  00192	50		 push	 eax
  00193	8b ce		 mov	 ecx, esi
  00195	ff 15 00 00 00
	00		 call	 DWORD PTR __imp_?LoadBool@ioINILoader@@QAE_NPBD_N@Z

; 104  : 	}

  0019b	8b 4d fc	 mov	 ecx, DWORD PTR __$ArrayPad$[ebp]
  0019e	33 cd		 xor	 ecx, ebp
  001a0	5e		 pop	 esi
  001a1	e8 00 00 00 00	 call	 @__security_check_cookie@4
  001a6	c9		 leave
  001a7	c2 08 00	 ret	 8
??$LoadBool_e@$0M@@ioINILoader@@QAE_NAAY0M@$$CBD_N@Z ENDP ; ioINILoader::LoadBool_e<12>
_TEXT	ENDS
PUBLIC	__$ArrayPad$
PUBLIC	??$LoadBool_e@$0BF@@ioINILoader@@QAE_NAAY0BF@$$CBD_N@Z ; ioINILoader::LoadBool_e<21>
; Function compile flags: /Ogsp
;	COMDAT ??$LoadBool_e@$0BF@@ioINILoader@@QAE_NAAY0BF@$$CBD_N@Z
_TEXT	SEGMENT
__k$ = -32						; size = 21
__$ArrayPad$ = -4					; size = 4
_k$ = 8							; size = 4
_b$ = 12						; size = 1
??$LoadBool_e@$0BF@@ioINILoader@@QAE_NAAY0BF@$$CBD_N@Z PROC ; ioINILoader::LoadBool_e<21>, COMDAT
; _this$ = ecx

; 101  : 	{

  00000	55		 push	 ebp
  00001	8b ec		 mov	 ebp, esp
  00003	83 ec 20	 sub	 esp, 32			; 00000020H
  00006	a1 00 00 00 00	 mov	 eax, DWORD PTR ___security_cookie
  0000b	33 c5		 xor	 eax, ebp
  0000d	89 45 fc	 mov	 DWORD PTR __$ArrayPad$[ebp], eax
  00010	8b 45 08	 mov	 eax, DWORD PTR _k$[ebp]

; 102  : 		_ENCSTR(k, _k);

  00013	8a 10		 mov	 dl, BYTE PTR [eax]
  00015	53		 push	 ebx
  00016	56		 push	 esi
  00017	8b f1		 mov	 esi, ecx
  00019	84 d2		 test	 dl, dl
  0001b	0f 84 f7 01 00
	00		 je	 $LN96@LoadBool_e@3
  00021	80 f2 ed	 xor	 dl, -19			; ffffffedH
  00024	88 55 e0	 mov	 BYTE PTR __k$[ebp], dl
  00027	8a 50 01	 mov	 dl, BYTE PTR [eax+1]
  0002a	84 d2		 test	 dl, dl
  0002c	0f 84 e0 01 00
	00		 je	 $LN95@LoadBool_e@3
  00032	b1 ec		 mov	 cl, -20			; ffffffecH
  00034	32 d1		 xor	 dl, cl
  00036	88 55 e1	 mov	 BYTE PTR __k$[ebp+1], dl
  00039	8a 50 02	 mov	 dl, BYTE PTR [eax+2]
  0003c	84 d2		 test	 dl, dl
  0003e	0f 84 c8 01 00
	00		 je	 $LN94@LoadBool_e@3
  00044	b3 eb		 mov	 bl, -21			; ffffffebH
  00046	32 d3		 xor	 dl, bl
  00048	88 55 e2	 mov	 BYTE PTR __k$[ebp+2], dl
  0004b	8a 50 03	 mov	 dl, BYTE PTR [eax+3]
  0004e	84 d2		 test	 dl, dl
  00050	0f 84 b0 01 00
	00		 je	 $LN93@LoadBool_e@3
  00056	80 f2 ea	 xor	 dl, -22			; ffffffeaH
  00059	88 55 e3	 mov	 BYTE PTR __k$[ebp+3], dl
  0005c	8a 50 04	 mov	 dl, BYTE PTR [eax+4]
  0005f	84 d2		 test	 dl, dl
  00061	0f 84 99 01 00
	00		 je	 $LN92@LoadBool_e@3
  00067	80 f2 ed	 xor	 dl, -19			; ffffffedH
  0006a	88 55 e4	 mov	 BYTE PTR __k$[ebp+4], dl
  0006d	8a 50 05	 mov	 dl, BYTE PTR [eax+5]
  00070	84 d2		 test	 dl, dl
  00072	0f 84 83 01 00
	00		 je	 $LN91@LoadBool_e@3
  00078	32 d1		 xor	 dl, cl
  0007a	88 55 e5	 mov	 BYTE PTR __k$[ebp+5], dl
  0007d	8a 50 06	 mov	 dl, BYTE PTR [eax+6]
  00080	84 d2		 test	 dl, dl
  00082	0f 84 6e 01 00
	00		 je	 $LN90@LoadBool_e@3
  00088	32 d3		 xor	 dl, bl
  0008a	88 55 e6	 mov	 BYTE PTR __k$[ebp+6], dl
  0008d	8a 50 07	 mov	 dl, BYTE PTR [eax+7]
  00090	84 d2		 test	 dl, dl
  00092	0f 84 58 01 00
	00		 je	 $LN89@LoadBool_e@3
  00098	80 f2 ea	 xor	 dl, -22			; ffffffeaH
  0009b	88 55 e7	 mov	 BYTE PTR __k$[ebp+7], dl
  0009e	8a 50 08	 mov	 dl, BYTE PTR [eax+8]
  000a1	84 d2		 test	 dl, dl
  000a3	0f 84 41 01 00
	00		 je	 $LN88@LoadBool_e@3
  000a9	80 f2 ed	 xor	 dl, -19			; ffffffedH
  000ac	88 55 e8	 mov	 BYTE PTR __k$[ebp+8], dl
  000af	8a 50 09	 mov	 dl, BYTE PTR [eax+9]
  000b2	84 d2		 test	 dl, dl
  000b4	0f 84 2b 01 00
	00		 je	 $LN87@LoadBool_e@3
  000ba	32 d1		 xor	 dl, cl
  000bc	88 55 e9	 mov	 BYTE PTR __k$[ebp+9], dl
  000bf	8a 50 0a	 mov	 dl, BYTE PTR [eax+10]
  000c2	84 d2		 test	 dl, dl
  000c4	0f 84 16 01 00
	00		 je	 $LN86@LoadBool_e@3
  000ca	32 d3		 xor	 dl, bl
  000cc	88 55 ea	 mov	 BYTE PTR __k$[ebp+10], dl
  000cf	8a 50 0b	 mov	 dl, BYTE PTR [eax+11]
  000d2	84 d2		 test	 dl, dl
  000d4	0f 84 00 01 00
	00		 je	 $LN85@LoadBool_e@3
  000da	80 f2 ea	 xor	 dl, -22			; ffffffeaH
  000dd	88 55 eb	 mov	 BYTE PTR __k$[ebp+11], dl
  000e0	8a 50 0c	 mov	 dl, BYTE PTR [eax+12]
  000e3	84 d2		 test	 dl, dl
  000e5	0f 84 e9 00 00
	00		 je	 $LN84@LoadBool_e@3
  000eb	80 f2 ed	 xor	 dl, -19			; ffffffedH
  000ee	88 55 ec	 mov	 BYTE PTR __k$[ebp+12], dl
  000f1	8a 50 0d	 mov	 dl, BYTE PTR [eax+13]
  000f4	84 d2		 test	 dl, dl
  000f6	0f 84 d3 00 00
	00		 je	 $LN83@LoadBool_e@3
  000fc	32 d1		 xor	 dl, cl
  000fe	88 55 ed	 mov	 BYTE PTR __k$[ebp+13], dl
  00101	8a 50 0e	 mov	 dl, BYTE PTR [eax+14]
  00104	84 d2		 test	 dl, dl
  00106	0f 84 be 00 00
	00		 je	 $LN82@LoadBool_e@3
  0010c	32 d3		 xor	 dl, bl
  0010e	88 55 ee	 mov	 BYTE PTR __k$[ebp+14], dl
  00111	8a 50 0f	 mov	 dl, BYTE PTR [eax+15]
  00114	84 d2		 test	 dl, dl
  00116	0f 84 a8 00 00
	00		 je	 $LN81@LoadBool_e@3
  0011c	80 f2 ea	 xor	 dl, -22			; ffffffeaH
  0011f	88 55 ef	 mov	 BYTE PTR __k$[ebp+15], dl
  00122	8a 50 10	 mov	 dl, BYTE PTR [eax+16]
  00125	84 d2		 test	 dl, dl
  00127	0f 84 91 00 00
	00		 je	 $LN80@LoadBool_e@3
  0012d	80 f2 ed	 xor	 dl, -19			; ffffffedH
  00130	88 55 f0	 mov	 BYTE PTR __k$[ebp+16], dl
  00133	8a 50 11	 mov	 dl, BYTE PTR [eax+17]
  00136	84 d2		 test	 dl, dl
  00138	74 7f		 je	 SHORT $LN79@LoadBool_e@3
  0013a	32 d1		 xor	 dl, cl
  0013c	88 55 f1	 mov	 BYTE PTR __k$[ebp+17], dl
  0013f	8a 50 12	 mov	 dl, BYTE PTR [eax+18]
  00142	84 d2		 test	 dl, dl
  00144	74 6e		 je	 SHORT $LN78@LoadBool_e@3
  00146	32 d3		 xor	 dl, bl
  00148	88 55 f2	 mov	 BYTE PTR __k$[ebp+18], dl
  0014b	8a 50 13	 mov	 dl, BYTE PTR [eax+19]
  0014e	84 d2		 test	 dl, dl
  00150	74 5c		 je	 SHORT $LN77@LoadBool_e@3
  00152	80 f2 ea	 xor	 dl, -22			; ffffffeaH
  00155	80 78 14 00	 cmp	 BYTE PTR [eax+20], 0
  00159	88 55 f3	 mov	 BYTE PTR __k$[ebp+19], dl
  0015c	0f 84 ba 00 00
	00		 je	 $LN1@LoadBool_e@3
  00162	8a 50 15	 mov	 dl, BYTE PTR [eax+21]
  00165	84 d2		 test	 dl, dl
  00167	74 40		 je	 SHORT $LN75@LoadBool_e@3
  00169	32 d1		 xor	 dl, cl
  0016b	88 55 f5	 mov	 BYTE PTR __k$[ebp+21], dl
  0016e	8a 50 16	 mov	 dl, BYTE PTR [eax+22]
  00171	84 d2		 test	 dl, dl
  00173	74 2f		 je	 SHORT $LN74@LoadBool_e@3
  00175	32 d3		 xor	 dl, bl
  00177	88 55 f6	 mov	 BYTE PTR __k$[ebp+22], dl
  0017a	8a 50 17	 mov	 dl, BYTE PTR [eax+23]
  0017d	84 d2		 test	 dl, dl
  0017f	74 1d		 je	 SHORT $LN73@LoadBool_e@3
  00181	8a 40 18	 mov	 al, BYTE PTR [eax+24]
  00184	80 f2 ea	 xor	 dl, -22			; ffffffeaH
  00187	88 55 f7	 mov	 BYTE PTR __k$[ebp+23], dl
  0018a	84 c0		 test	 al, al
  0018c	74 0a		 je	 SHORT $LN72@LoadBool_e@3
  0018e	34 ed		 xor	 al, -19			; ffffffedH
  00190	88 45 f8	 mov	 BYTE PTR __k$[ebp+24], al
  00193	e9 84 00 00 00	 jmp	 $LN1@LoadBool_e@3
$LN72@LoadBool_e@3:
  00198	c6 45 f8 ed	 mov	 BYTE PTR __k$[ebp+24], -19 ; ffffffedH
  0019c	eb 7e		 jmp	 SHORT $LN1@LoadBool_e@3
$LN73@LoadBool_e@3:
  0019e	c6 45 f7 ea	 mov	 BYTE PTR __k$[ebp+23], -22 ; ffffffeaH
  001a2	eb 78		 jmp	 SHORT $LN1@LoadBool_e@3
$LN74@LoadBool_e@3:
  001a4	88 5d f6	 mov	 BYTE PTR __k$[ebp+22], bl
  001a7	eb 73		 jmp	 SHORT $LN1@LoadBool_e@3
$LN75@LoadBool_e@3:
  001a9	88 4d f5	 mov	 BYTE PTR __k$[ebp+21], cl
  001ac	eb 6e		 jmp	 SHORT $LN1@LoadBool_e@3
$LN77@LoadBool_e@3:
  001ae	c6 45 f3 ea	 mov	 BYTE PTR __k$[ebp+19], -22 ; ffffffeaH
  001b2	eb 68		 jmp	 SHORT $LN1@LoadBool_e@3
$LN78@LoadBool_e@3:
  001b4	88 5d f2	 mov	 BYTE PTR __k$[ebp+18], bl
  001b7	eb 63		 jmp	 SHORT $LN1@LoadBool_e@3
$LN79@LoadBool_e@3:
  001b9	88 4d f1	 mov	 BYTE PTR __k$[ebp+17], cl
  001bc	eb 5e		 jmp	 SHORT $LN1@LoadBool_e@3
$LN80@LoadBool_e@3:
  001be	c6 45 f0 ed	 mov	 BYTE PTR __k$[ebp+16], -19 ; ffffffedH
  001c2	eb 58		 jmp	 SHORT $LN1@LoadBool_e@3
$LN81@LoadBool_e@3:
  001c4	c6 45 ef ea	 mov	 BYTE PTR __k$[ebp+15], -22 ; ffffffeaH
  001c8	eb 52		 jmp	 SHORT $LN1@LoadBool_e@3
$LN82@LoadBool_e@3:
  001ca	88 5d ee	 mov	 BYTE PTR __k$[ebp+14], bl
  001cd	eb 4d		 jmp	 SHORT $LN1@LoadBool_e@3
$LN83@LoadBool_e@3:
  001cf	88 4d ed	 mov	 BYTE PTR __k$[ebp+13], cl
  001d2	eb 48		 jmp	 SHORT $LN1@LoadBool_e@3
$LN84@LoadBool_e@3:
  001d4	c6 45 ec ed	 mov	 BYTE PTR __k$[ebp+12], -19 ; ffffffedH
  001d8	eb 42		 jmp	 SHORT $LN1@LoadBool_e@3
$LN85@LoadBool_e@3:
  001da	c6 45 eb ea	 mov	 BYTE PTR __k$[ebp+11], -22 ; ffffffeaH
  001de	eb 3c		 jmp	 SHORT $LN1@LoadBool_e@3
$LN86@LoadBool_e@3:
  001e0	88 5d ea	 mov	 BYTE PTR __k$[ebp+10], bl
  001e3	eb 37		 jmp	 SHORT $LN1@LoadBool_e@3
$LN87@LoadBool_e@3:
  001e5	88 4d e9	 mov	 BYTE PTR __k$[ebp+9], cl
  001e8	eb 32		 jmp	 SHORT $LN1@LoadBool_e@3
$LN88@LoadBool_e@3:
  001ea	c6 45 e8 ed	 mov	 BYTE PTR __k$[ebp+8], -19 ; ffffffedH
  001ee	eb 2c		 jmp	 SHORT $LN1@LoadBool_e@3
$LN89@LoadBool_e@3:
  001f0	c6 45 e7 ea	 mov	 BYTE PTR __k$[ebp+7], -22 ; ffffffeaH
  001f4	eb 26		 jmp	 SHORT $LN1@LoadBool_e@3
$LN90@LoadBool_e@3:
  001f6	88 5d e6	 mov	 BYTE PTR __k$[ebp+6], bl
  001f9	eb 21		 jmp	 SHORT $LN1@LoadBool_e@3
$LN91@LoadBool_e@3:
  001fb	88 4d e5	 mov	 BYTE PTR __k$[ebp+5], cl
  001fe	eb 1c		 jmp	 SHORT $LN1@LoadBool_e@3
$LN92@LoadBool_e@3:
  00200	c6 45 e4 ed	 mov	 BYTE PTR __k$[ebp+4], -19 ; ffffffedH
  00204	eb 16		 jmp	 SHORT $LN1@LoadBool_e@3
$LN93@LoadBool_e@3:
  00206	c6 45 e3 ea	 mov	 BYTE PTR __k$[ebp+3], -22 ; ffffffeaH
  0020a	eb 10		 jmp	 SHORT $LN1@LoadBool_e@3
$LN94@LoadBool_e@3:
  0020c	c6 45 e2 eb	 mov	 BYTE PTR __k$[ebp+2], -21 ; ffffffebH
  00210	eb 0a		 jmp	 SHORT $LN1@LoadBool_e@3
$LN95@LoadBool_e@3:
  00212	c6 45 e1 ec	 mov	 BYTE PTR __k$[ebp+1], -20 ; ffffffecH
  00216	eb 04		 jmp	 SHORT $LN1@LoadBool_e@3
$LN96@LoadBool_e@3:
  00218	c6 45 e0 ed	 mov	 BYTE PTR __k$[ebp], -19	; ffffffedH
$LN1@LoadBool_e@3:
  0021c	6a 05		 push	 5
  0021e	8d 45 e0	 lea	 eax, DWORD PTR __k$[ebp]
  00221	c6 45 f4 00	 mov	 BYTE PTR __k$[ebp+20], 0
  00225	5a		 pop	 edx
$LL104@LoadBool_e@3:
  00226	81 30 ed ec eb
	ea		 xor	 DWORD PTR [eax], -353637139 ; eaebecedH
  0022c	83 c0 04	 add	 eax, 4
  0022f	4a		 dec	 edx
  00230	75 f4		 jne	 SHORT $LL104@LoadBool_e@3

; 103  : 		return LoadBool(_k, b);

  00232	ff 75 0c	 push	 DWORD PTR _b$[ebp]
  00235	8d 45 e0	 lea	 eax, DWORD PTR __k$[ebp]
  00238	50		 push	 eax
  00239	8b ce		 mov	 ecx, esi
  0023b	ff 15 00 00 00
	00		 call	 DWORD PTR __imp_?LoadBool@ioINILoader@@QAE_NPBD_N@Z

; 104  : 	}

  00241	8b 4d fc	 mov	 ecx, DWORD PTR __$ArrayPad$[ebp]
  00244	5e		 pop	 esi
  00245	33 cd		 xor	 ecx, ebp
  00247	5b		 pop	 ebx
  00248	e8 00 00 00 00	 call	 @__security_check_cookie@4
  0024d	c9		 leave
  0024e	c2 08 00	 ret	 8
??$LoadBool_e@$0BF@@ioINILoader@@QAE_NAAY0BF@$$CBD_N@Z ENDP ; ioINILoader::LoadBool_e<21>
_TEXT	ENDS
PUBLIC	?GetJumpState@ioBaseChar@@QBE?AW4JumpState@@XZ	; ioBaseChar::GetJumpState
; Function compile flags: /Ogsp
; File d:\lost saga for developer\youtube\tutorial\source\src\lsclient\iobasechar.h
;	COMDAT ?GetJumpState@ioBaseChar@@QBE?AW4JumpState@@XZ
_TEXT	SEGMENT
_value$525728 = -4					; size = 4
?GetJumpState@ioBaseChar@@QBE?AW4JumpState@@XZ PROC	; ioBaseChar::GetJumpState, COMDAT
; _this$ = ecx

; 2158 : 	inline JumpState GetJumpState() const { return m_JumpState; }

  00000	55		 push	 ebp
  00001	8b ec		 mov	 ebp, esp
  00003	51		 push	 ecx
  00004	8d 45 fc	 lea	 eax, DWORD PTR _value$525728[ebp]
  00007	50		 push	 eax
  00008	81 c1 40 0e 00
	00		 add	 ecx, 3648		; 00000e40H
  0000e	e8 00 00 00 00	 call	 ?DecryptValueToPool@?$CEncrypt@W4JumpState@@@@QAEXPAW4JumpState@@@Z ; CEncrypt<enum JumpState>::DecryptValueToPool
  00013	8b 45 fc	 mov	 eax, DWORD PTR _value$525728[ebp]
  00016	c9		 leave
  00017	c3		 ret	 0
?GetJumpState@ioBaseChar@@QBE?AW4JumpState@@XZ ENDP	; ioBaseChar::GetJumpState
_TEXT	ENDS
PUBLIC	__real@4f800000
PUBLIC	_rkLoader$GSCopy$
PUBLIC	__$ArrayPad$
EXTRN	__imp_??4ioHashString@@QAEAAV0@PBD@Z:PROC
EXTRN	?LoadProperty@ioBuff@@UAEXAAVioINILoader@@@Z:PROC ; ioBuff::LoadProperty
;	COMDAT __real@4f800000
; File d:\lost saga for developer\youtube\tutorial\source\src\lsclient\stringprotect.h
CONST	SEGMENT
__real@4f800000 DD 04f800000r			; 4.29497e+009
; Function compile flags: /Ogsp
; File d:\lost saga for developer\youtube\tutorial\source\src\lsclient\iohidebuff.cpp
CONST	ENDS
;	COMDAT ?LoadProperty@ioHideBuff@@UAEXAAVioINILoader@@@Z
_TEXT	SEGMENT
tv7382 = -300						; size = 4
_rkLoader$GSCopy$ = -296				; size = 4
_szBuf$ = -292						; size = 260
__k$526640 = -32					; size = 21
__k$526390 = -32					; size = 20
__k$526252 = -28					; size = 15
__k$526127 = -28					; size = 16
__k$525890 = -28					; size = 16
__k$526515 = -24					; size = 12
__k$526002 = -24					; size = 12
__k$525765 = -24					; size = 10
__$ArrayPad$ = -4					; size = 4
_rkLoader$ = 8						; size = 4
?LoadProperty@ioHideBuff@@UAEXAAVioINILoader@@@Z PROC	; ioHideBuff::LoadProperty, COMDAT
; _this$ = ecx

; 38   : {

  00000	55		 push	 ebp
  00001	8b ec		 mov	 ebp, esp
  00003	81 ec 2c 01 00
	00		 sub	 esp, 300		; 0000012cH
  00009	a1 00 00 00 00	 mov	 eax, DWORD PTR ___security_cookie
  0000e	33 c5		 xor	 eax, ebp
  00010	89 45 fc	 mov	 DWORD PTR __$ArrayPad$[ebp], eax
  00013	53		 push	 ebx
  00014	56		 push	 esi
  00015	57		 push	 edi
  00016	8b 7d 08	 mov	 edi, DWORD PTR _rkLoader$[ebp]

; 39   : 	ioBuff::LoadProperty( rkLoader );

  00019	57		 push	 edi
  0001a	8b f1		 mov	 esi, ecx

; 49   : 	rkLoader.LoadString_e( "move_animation", "", szBuf, MAX_PATH );

  0001c	89 bd d8 fe ff
	ff		 mov	 DWORD PTR _rkLoader$GSCopy$[ebp], edi
  00022	e8 00 00 00 00	 call	 ?LoadProperty@ioBuff@@UAEXAAVioINILoader@@@Z ; ioBuff::LoadProperty

; 40   : 
; 41   : 	char szBuf[MAX_PATH];
; 42   : 
; 43   : 	m_fHideRate = rkLoader.LoadFloat_e( "hide_rate", FLOAT1 );

  00027	b8 01 00 00 00	 mov	 eax, 1

; 49   : 	rkLoader.LoadString_e( "move_animation", "", szBuf, MAX_PATH );

  0002c	6a 02		 push	 2
  0002e	c7 45 e8 85 85
	8f 8f		 mov	 DWORD PTR __k$525765[ebp], -1886419579 ; 8f8f8585H
  00035	c7 45 ec b2 9e
	8a 9e		 mov	 DWORD PTR __k$525765[ebp+4], -1635082574 ; 9e8a9eb2H
  0003c	8d 4d e8	 lea	 ecx, DWORD PTR __k$525765[ebp]
  0003f	66 c7 45 f0 88
	00		 mov	 WORD PTR __k$525765[ebp+8], 136 ; 00000088H
  00045	5a		 pop	 edx
$LL108@LoadProper:

; 40   : 
; 41   : 	char szBuf[MAX_PATH];
; 42   : 
; 43   : 	m_fHideRate = rkLoader.LoadFloat_e( "hide_rate", FLOAT1 );

  00046	81 31 ed ec eb
	ea		 xor	 DWORD PTR [ecx], -353637139 ; eaebecedH
  0004c	83 c1 04	 add	 ecx, 4
  0004f	4a		 dec	 edx
  00050	75 f4		 jne	 SHORT $LL108@LoadProper
  00052	80 75 f0 ed	 xor	 BYTE PTR __k$525765[ebp+8], -19 ; ffffffedH
  00056	89 85 d4 fe ff
	ff		 mov	 DWORD PTR tv7382[ebp], eax
  0005c	db 85 d4 fe ff
	ff		 fild	 DWORD PTR tv7382[ebp]
  00062	85 c0		 test	 eax, eax
  00064	79 06		 jns	 SHORT $LN885@LoadProper
  00066	d8 05 00 00 00
	00		 fadd	 DWORD PTR __real@4f800000
$LN885@LoadProper:
  0006c	51		 push	 ecx
  0006d	8d 45 e8	 lea	 eax, DWORD PTR __k$525765[ebp]
  00070	d9 1c 24	 fstp	 DWORD PTR [esp]
  00073	50		 push	 eax
  00074	8b cf		 mov	 ecx, edi
  00076	ff 15 00 00 00
	00		 call	 DWORD PTR __imp_?LoadFloat@ioINILoader@@QAEMPBDM@Z
  0007c	d9 9e 6c 09 00
	00		 fstp	 DWORD PTR [esi+2412]
  00082	6a 03		 push	 3

; 44   : 	m_fAddSpeed = rkLoader.LoadFloat_e( "speed_add_value", 0.0f );

  00084	c7 45 e4 9e 9c
	8e 8f		 mov	 DWORD PTR __k$525890[ebp], -1886479202 ; 8f8e9c9eH
  0008b	c7 45 e8 89 b3
	8a 8e		 mov	 DWORD PTR __k$525890[ebp+4], -1903512695 ; 8e8ab389H
  00092	c7 45 ec 89 b3
	9d 8b		 mov	 DWORD PTR __k$525890[ebp+8], -1952599159 ; 8b9db389H
  00099	8d 45 e4	 lea	 eax, DWORD PTR __k$525890[ebp]
  0009c	c7 45 f0 81 99
	8e 00		 mov	 DWORD PTR __k$525890[ebp+12], 9345409 ; 008e9981H
  000a3	59		 pop	 ecx
$LL214@LoadProper:
  000a4	81 30 ed ec eb
	ea		 xor	 DWORD PTR [eax], -353637139 ; eaebecedH
  000aa	83 c0 04	 add	 eax, 4
  000ad	49		 dec	 ecx
  000ae	75 f4		 jne	 SHORT $LL214@LoadProper
  000b0	6a 0c		 push	 12			; 0000000cH
  000b2	58		 pop	 eax
$LL211@LoadProper:
  000b3	8b c8		 mov	 ecx, eax
  000b5	81 e1 03 00 00
	80		 and	 ecx, -2147483645	; 80000003H
  000bb	79 05		 jns	 SHORT $LN886@LoadProper
  000bd	49		 dec	 ecx
  000be	83 c9 fc	 or	 ecx, -4			; fffffffcH
  000c1	41		 inc	 ecx
$LN886@LoadProper:
  000c2	b2 ed		 mov	 dl, -19			; ffffffedH
  000c4	2a d1		 sub	 dl, cl
  000c6	30 54 05 e4	 xor	 BYTE PTR __k$525890[ebp+eax], dl
  000ca	40		 inc	 eax
  000cb	83 f8 0f	 cmp	 eax, 15			; 0000000fH
  000ce	7c e3		 jl	 SHORT $LL211@LoadProper
  000d0	0f 57 c0	 xorps	 xmm0, xmm0
  000d3	51		 push	 ecx
  000d4	8d 45 e4	 lea	 eax, DWORD PTR __k$525890[ebp]
  000d7	f3 0f 11 04 24	 movss	 DWORD PTR [esp], xmm0
  000dc	50		 push	 eax
  000dd	8b cf		 mov	 ecx, edi
  000df	ff 15 00 00 00
	00		 call	 DWORD PTR __imp_?LoadFloat@ioINILoader@@QAEMPBDM@Z
  000e5	d9 9e 70 09 00
	00		 fstp	 DWORD PTR [esi+2416]
  000eb	6a 02		 push	 2

; 45   : 	m_dwHidingTime = rkLoader.LoadInt_e( "hiding_time", 1 );

  000ed	c7 45 e8 85 85
	8f 83		 mov	 DWORD PTR __k$526002[ebp], -2087746171 ; 838f8585H
  000f4	c7 45 ec 83 8b
	b4 9e		 mov	 DWORD PTR __k$526002[ebp+4], -1632334973 ; 9eb48b83H
  000fb	8d 45 e8	 lea	 eax, DWORD PTR __k$526002[ebp]
  000fe	c7 45 f0 84 81
	8e 00		 mov	 DWORD PTR __k$526002[ebp+8], 9339268 ; 008e8184H
  00105	59		 pop	 ecx
$LL320@LoadProper:
  00106	81 30 ed ec eb
	ea		 xor	 DWORD PTR [eax], -353637139 ; eaebecedH
  0010c	83 c0 04	 add	 eax, 4
  0010f	49		 dec	 ecx
  00110	75 f4		 jne	 SHORT $LL320@LoadProper
  00112	6a 08		 push	 8
  00114	58		 pop	 eax
$LL317@LoadProper:
  00115	8b c8		 mov	 ecx, eax
  00117	81 e1 03 00 00
	80		 and	 ecx, -2147483645	; 80000003H
  0011d	79 05		 jns	 SHORT $LN887@LoadProper
  0011f	49		 dec	 ecx
  00120	83 c9 fc	 or	 ecx, -4			; fffffffcH
  00123	41		 inc	 ecx
$LN887@LoadProper:
  00124	b2 ed		 mov	 dl, -19			; ffffffedH
  00126	2a d1		 sub	 dl, cl
  00128	30 54 05 e8	 xor	 BYTE PTR __k$526002[ebp+eax], dl
  0012c	40		 inc	 eax
  0012d	83 f8 0b	 cmp	 eax, 11			; 0000000bH
  00130	7c e3		 jl	 SHORT $LL317@LoadProper
  00132	6a 01		 push	 1
  00134	8d 45 e8	 lea	 eax, DWORD PTR __k$526002[ebp]
  00137	50		 push	 eax
  00138	8b cf		 mov	 ecx, edi
  0013a	ff 15 00 00 00
	00		 call	 DWORD PTR __imp_?LoadInt@ioINILoader@@QAEHPBDH@Z
  00140	6a 03		 push	 3
  00142	89 86 78 09 00
	00		 mov	 DWORD PTR [esi+2424], eax

; 46   : 
; 47   : 	rkLoader.LoadString_e( "delay_animation", "", szBuf, MAX_PATH );

  00148	c7 45 e4 89 89
	87 8b		 mov	 DWORD PTR __k$526127[ebp], -1954051703 ; 8b878989H
  0014f	c7 45 e8 94 b3
	8a 84		 mov	 DWORD PTR __k$526127[ebp+4], -2071284844 ; 848ab394H
  00156	c7 45 ec 84 81
	8a 9e		 mov	 DWORD PTR __k$526127[ebp+8], -1635090044 ; 9e8a8184H
  0015d	8d 45 e4	 lea	 eax, DWORD PTR __k$526127[ebp]
  00160	c7 45 f0 84 83
	85 00		 mov	 DWORD PTR __k$526127[ebp+12], 8749956 ; 00858384H
  00167	59		 pop	 ecx
$LL426@LoadProper:
  00168	81 30 ed ec eb
	ea		 xor	 DWORD PTR [eax], -353637139 ; eaebecedH
  0016e	83 c0 04	 add	 eax, 4
  00171	49		 dec	 ecx
  00172	75 f4		 jne	 SHORT $LL426@LoadProper
  00174	6a 0c		 push	 12			; 0000000cH
  00176	58		 pop	 eax
$LL423@LoadProper:
  00177	8b c8		 mov	 ecx, eax
  00179	81 e1 03 00 00
	80		 and	 ecx, -2147483645	; 80000003H
  0017f	79 05		 jns	 SHORT $LN888@LoadProper
  00181	49		 dec	 ecx
  00182	83 c9 fc	 or	 ecx, -4			; fffffffcH
  00185	41		 inc	 ecx
$LN888@LoadProper:
  00186	b2 ed		 mov	 dl, -19			; ffffffedH
  00188	2a d1		 sub	 dl, cl
  0018a	30 54 05 e4	 xor	 BYTE PTR __k$526127[ebp+eax], dl
  0018e	40		 inc	 eax
  0018f	83 f8 0f	 cmp	 eax, 15			; 0000000fH
  00192	7c e3		 jl	 SHORT $LL423@LoadProper
  00194	68 04 01 00 00	 push	 260			; 00000104H
  00199	8d 85 dc fe ff
	ff		 lea	 eax, DWORD PTR _szBuf$[ebp]
  0019f	50		 push	 eax
  001a0	68 00 00 00 00	 push	 OFFSET ??_C@_00CNPNBAHC@?$AA@
  001a5	8d 45 e4	 lea	 eax, DWORD PTR __k$526127[ebp]
  001a8	8b cf		 mov	 ecx, edi
  001aa	8b 3d 00 00 00
	00		 mov	 edi, DWORD PTR __imp_?LoadStringA@ioINILoader@@QAEXPBD0PADH@Z
  001b0	50		 push	 eax
  001b1	ff d7		 call	 edi

; 48   : 	m_DelayAnimation = szBuf;

  001b3	8b 1d 00 00 00
	00		 mov	 ebx, DWORD PTR __imp_??4ioHashString@@QAEAAV0@PBD@Z
  001b9	8d 85 dc fe ff
	ff		 lea	 eax, DWORD PTR _szBuf$[ebp]
  001bf	50		 push	 eax
  001c0	8d 8e 84 09 00
	00		 lea	 ecx, DWORD PTR [esi+2436]
  001c6	ff d3		 call	 ebx
  001c8	6a 03		 push	 3

; 49   : 	rkLoader.LoadString_e( "move_animation", "", szBuf, MAX_PATH );

  001ca	c7 45 e4 80 83
	9d 8f		 mov	 DWORD PTR __k$526252[ebp], -1885502592 ; 8f9d8380H
  001d1	c7 45 e8 b2 8d
	85 83		 mov	 DWORD PTR __k$526252[ebp+4], -2088399438 ; 83858db2H
  001d8	c7 45 ec 80 8d
	9f 83		 mov	 DWORD PTR __k$526252[ebp+8], -2086695552 ; 839f8d80H
  001df	66 c7 45 f0 82
	82		 mov	 WORD PTR __k$526252[ebp+12], 33410 ; 00008282H
  001e5	8d 45 e4	 lea	 eax, DWORD PTR __k$526252[ebp]
  001e8	c6 45 f2 00	 mov	 BYTE PTR __k$526252[ebp+14], 0
  001ec	59		 pop	 ecx
$LL532@LoadProper:
  001ed	81 30 ed ec eb
	ea		 xor	 DWORD PTR [eax], -353637139 ; eaebecedH
  001f3	83 c0 04	 add	 eax, 4
  001f6	49		 dec	 ecx
  001f7	75 f4		 jne	 SHORT $LL532@LoadProper
  001f9	6a 0c		 push	 12			; 0000000cH
  001fb	58		 pop	 eax
$LL529@LoadProper:
  001fc	8b c8		 mov	 ecx, eax
  001fe	81 e1 03 00 00
	80		 and	 ecx, -2147483645	; 80000003H
  00204	79 05		 jns	 SHORT $LN889@LoadProper
  00206	49		 dec	 ecx
  00207	83 c9 fc	 or	 ecx, -4			; fffffffcH
  0020a	41		 inc	 ecx
$LN889@LoadProper:
  0020b	b2 ed		 mov	 dl, -19			; ffffffedH
  0020d	2a d1		 sub	 dl, cl
  0020f	30 54 05 e4	 xor	 BYTE PTR __k$526252[ebp+eax], dl
  00213	40		 inc	 eax
  00214	83 f8 0e	 cmp	 eax, 14			; 0000000eH
  00217	7c e3		 jl	 SHORT $LL529@LoadProper
  00219	8b 8d d8 fe ff
	ff		 mov	 ecx, DWORD PTR _rkLoader$GSCopy$[ebp]
  0021f	68 04 01 00 00	 push	 260			; 00000104H
  00224	8d 85 dc fe ff
	ff		 lea	 eax, DWORD PTR _szBuf$[ebp]
  0022a	50		 push	 eax
  0022b	68 00 00 00 00	 push	 OFFSET ??_C@_00CNPNBAHC@?$AA@
  00230	8d 45 e4	 lea	 eax, DWORD PTR __k$526252[ebp]
  00233	50		 push	 eax
  00234	ff d7		 call	 edi

; 50   : 	m_MoveAnimation = szBuf;

  00236	8d 85 dc fe ff
	ff		 lea	 eax, DWORD PTR _szBuf$[ebp]
  0023c	50		 push	 eax
  0023d	8d 8e 94 09 00
	00		 lea	 ecx, DWORD PTR [esi+2452]
  00243	ff d3		 call	 ebx
  00245	6a 04		 push	 4

; 51   : 
; 52   : 	m_bNoCheckCharState = rkLoader.LoadBool_e( "no_check_char_state", false );

  00247	c7 45 e0 83 83
	b4 89		 mov	 DWORD PTR __k$526390[ebp], -1984658557 ; 89b48383H
  0024e	c7 45 e4 85 89
	88 81		 mov	 DWORD PTR __k$526390[ebp+4], -2121758331 ; 81888985H
  00255	c7 45 e8 b2 8f
	83 8b		 mov	 DWORD PTR __k$526390[ebp+8], -1954312270 ; 8b838fb2H
  0025c	c7 45 ec 9f b3
	98 9e		 mov	 DWORD PTR __k$526390[ebp+12], -1634159713 ; 9e98b39fH
  00263	8d 45 e0	 lea	 eax, DWORD PTR __k$526390[ebp]
  00266	c7 45 f0 8c 98
	8e 00		 mov	 DWORD PTR __k$526390[ebp+16], 9345164 ; 008e988cH
  0026d	59		 pop	 ecx
$LL638@LoadProper:
  0026e	81 30 ed ec eb
	ea		 xor	 DWORD PTR [eax], -353637139 ; eaebecedH
  00274	83 c0 04	 add	 eax, 4
  00277	49		 dec	 ecx
  00278	75 f4		 jne	 SHORT $LL638@LoadProper
  0027a	6a 10		 push	 16			; 00000010H
  0027c	58		 pop	 eax
$LL635@LoadProper:
  0027d	8b c8		 mov	 ecx, eax
  0027f	81 e1 03 00 00
	80		 and	 ecx, -2147483645	; 80000003H
  00285	79 05		 jns	 SHORT $LN890@LoadProper
  00287	49		 dec	 ecx
  00288	83 c9 fc	 or	 ecx, -4			; fffffffcH
  0028b	41		 inc	 ecx
$LN890@LoadProper:
  0028c	b2 ed		 mov	 dl, -19			; ffffffedH
  0028e	2a d1		 sub	 dl, cl
  00290	30 54 05 e0	 xor	 BYTE PTR __k$526390[ebp+eax], dl
  00294	40		 inc	 eax
  00295	83 f8 13	 cmp	 eax, 19			; 00000013H
  00298	7c e3		 jl	 SHORT $LL635@LoadProper
  0029a	8b 8d d8 fe ff
	ff		 mov	 ecx, DWORD PTR _rkLoader$GSCopy$[ebp]
  002a0	8b 3d 00 00 00
	00		 mov	 edi, DWORD PTR __imp_?LoadBool@ioINILoader@@QAE_NPBD_N@Z
  002a6	33 db		 xor	 ebx, ebx
  002a8	53		 push	 ebx
  002a9	8d 45 e0	 lea	 eax, DWORD PTR __k$526390[ebp]
  002ac	50		 push	 eax
  002ad	ff d7		 call	 edi
  002af	6a 02		 push	 2
  002b1	88 86 a4 09 00
	00		 mov	 BYTE PTR [esi+2468], al

; 53   : 
; 54   : 	m_bEnableDash = rkLoader.LoadBool_e( "enable_dash", false );

  002b7	c7 45 e8 88 82
	8a 88		 mov	 DWORD PTR __k$526515[ebp], -2004188536 ; 888a8288H
  002be	c7 45 ec 81 89
	b4 8e		 mov	 DWORD PTR __k$526515[ebp+4], -1900770943 ; 8eb48981H
  002c5	8d 45 e8	 lea	 eax, DWORD PTR __k$526515[ebp]
  002c8	c7 45 f0 8c 9f
	83 00		 mov	 DWORD PTR __k$526515[ebp+8], 8626060 ; 00839f8cH
  002cf	59		 pop	 ecx
$LL744@LoadProper:
  002d0	81 30 ed ec eb
	ea		 xor	 DWORD PTR [eax], -353637139 ; eaebecedH
  002d6	83 c0 04	 add	 eax, 4
  002d9	49		 dec	 ecx
  002da	75 f4		 jne	 SHORT $LL744@LoadProper
  002dc	6a 08		 push	 8
  002de	58		 pop	 eax
$LL741@LoadProper:
  002df	8b c8		 mov	 ecx, eax
  002e1	81 e1 03 00 00
	80		 and	 ecx, -2147483645	; 80000003H
  002e7	79 05		 jns	 SHORT $LN891@LoadProper
  002e9	49		 dec	 ecx
  002ea	83 c9 fc	 or	 ecx, -4			; fffffffcH
  002ed	41		 inc	 ecx
$LN891@LoadProper:
  002ee	b2 ed		 mov	 dl, -19			; ffffffedH
  002f0	2a d1		 sub	 dl, cl
  002f2	30 54 05 e8	 xor	 BYTE PTR __k$526515[ebp+eax], dl
  002f6	40		 inc	 eax
  002f7	83 f8 0b	 cmp	 eax, 11			; 0000000bH
  002fa	7c e3		 jl	 SHORT $LL741@LoadProper
  002fc	8b 8d d8 fe ff
	ff		 mov	 ecx, DWORD PTR _rkLoader$GSCopy$[ebp]
  00302	53		 push	 ebx
  00303	8d 45 e8	 lea	 eax, DWORD PTR __k$526515[ebp]
  00306	50		 push	 eax
  00307	ff d7		 call	 edi
  00309	6a 05		 push	 5
  0030b	88 86 a5 09 00
	00		 mov	 BYTE PTR [esi+2469], al

; 55   : 
; 56   : 	m_bEnableJummpingHide = rkLoader.LoadBool_e( "enable_jummping_hide", false );

  00311	c7 45 e0 88 82
	8a 88		 mov	 DWORD PTR __k$526640[ebp], -2004188536 ; 888a8288H
  00318	c7 45 e4 81 89
	b4 80		 mov	 DWORD PTR __k$526640[ebp+4], -2135651967 ; 80b48981H
  0031f	c7 45 e8 98 81
	86 9a		 mov	 DWORD PTR __k$526640[ebp+8], -1702461032 ; 9a868198H
  00326	c7 45 ec 84 82
	8c b5		 mov	 DWORD PTR __k$526640[ebp+12], -1249082748 ; b58c8284H
  0032d	c7 45 f0 85 85
	8f 8f		 mov	 DWORD PTR __k$526640[ebp+16], -1886419579 ; 8f8f8585H
  00334	8d 45 e0	 lea	 eax, DWORD PTR __k$526640[ebp]
  00337	88 5d f4	 mov	 BYTE PTR __k$526640[ebp+20], bl
  0033a	59		 pop	 ecx
$LL850@LoadProper:
  0033b	81 30 ed ec eb
	ea		 xor	 DWORD PTR [eax], -353637139 ; eaebecedH
  00341	83 c0 04	 add	 eax, 4
  00344	49		 dec	 ecx
  00345	75 f4		 jne	 SHORT $LL850@LoadProper
  00347	8b 8d d8 fe ff
	ff		 mov	 ecx, DWORD PTR _rkLoader$GSCopy$[ebp]
  0034d	53		 push	 ebx
  0034e	8d 45 e0	 lea	 eax, DWORD PTR __k$526640[ebp]
  00351	50		 push	 eax
  00352	ff d7		 call	 edi

; 57   : }

  00354	8b 4d fc	 mov	 ecx, DWORD PTR __$ArrayPad$[ebp]
  00357	5f		 pop	 edi
  00358	88 86 a6 09 00
	00		 mov	 BYTE PTR [esi+2470], al
  0035e	5e		 pop	 esi
  0035f	33 cd		 xor	 ecx, ebp
  00361	5b		 pop	 ebx
  00362	e8 00 00 00 00	 call	 @__security_check_cookie@4
  00367	c9		 leave
  00368	c2 04 00	 ret	 4
?LoadProperty@ioHideBuff@@UAEXAAVioINILoader@@@Z ENDP	; ioHideBuff::LoadProperty
_TEXT	ENDS
PUBLIC	?CheckJummpingState@ioHideBuff@@IAE_NPAVioBaseChar@@@Z ; ioHideBuff::CheckJummpingState
; Function compile flags: /Ogsp
;	COMDAT ?CheckJummpingState@ioHideBuff@@IAE_NPAVioBaseChar@@@Z
_TEXT	SEGMENT
_value$526796 = 8					; size = 4
_pOwner$ = 8						; size = 4
?CheckJummpingState@ioHideBuff@@IAE_NPAVioBaseChar@@@Z PROC ; ioHideBuff::CheckJummpingState, COMDAT
; _this$ = ecx

; 179  : {

  00000	55		 push	 ebp
  00001	8b ec		 mov	 ebp, esp

; 180  : 	if ( !m_bEnableJummpingHide )

  00003	80 b9 a6 09 00
	00 00		 cmp	 BYTE PTR [ecx+2470], 0

; 181  : 		return false;

  0000a	74 35		 je	 SHORT $LN4@CheckJummp

; 182  : 
; 183  : 	if ( !pOwner || pOwner->GetState() != CS_JUMP )

  0000c	8b 45 08	 mov	 eax, DWORD PTR _pOwner$[ebp]
  0000f	85 c0		 test	 eax, eax
  00011	74 2e		 je	 SHORT $LN4@CheckJummp
  00013	80 b8 10 03 00
	00 04		 cmp	 BYTE PTR [eax+784], 4
  0001a	75 25		 jne	 SHORT $LN4@CheckJummp

; 185  : 
; 186  : 	switch( pOwner->GetJumpState() )

  0001c	8d 4d 08	 lea	 ecx, DWORD PTR _value$526796[ebp]
  0001f	51		 push	 ecx
  00020	8d 88 40 0e 00
	00		 lea	 ecx, DWORD PTR [eax+3648]
  00026	e8 00 00 00 00	 call	 ?DecryptValueToPool@?$CEncrypt@W4JumpState@@@@QAEXPAW4JumpState@@@Z ; CEncrypt<enum JumpState>::DecryptValueToPool
  0002b	83 7d 08 00	 cmp	 DWORD PTR _value$526796[ebp], 0
  0002f	7e 10		 jle	 SHORT $LN4@CheckJummp
  00031	83 7d 08 02	 cmp	 DWORD PTR _value$526796[ebp], 2
  00035	7e 06		 jle	 SHORT $LN1@CheckJummp
  00037	83 7d 08 08	 cmp	 DWORD PTR _value$526796[ebp], 8
  0003b	75 04		 jne	 SHORT $LN4@CheckJummp
$LN1@CheckJummp:

; 187  : 	{
; 188  : 	case JS_READY:
; 189  : 	case JS_JUMPPING:
; 190  : 	case JS_LANDING:
; 191  : 		return true;

  0003d	b0 01		 mov	 al, 1
  0003f	eb 02		 jmp	 SHORT $LN7@CheckJummp
$LN4@CheckJummp:

; 184  : 		return false;

  00041	32 c0		 xor	 al, al
$LN7@CheckJummp:

; 192  : 	}
; 193  : 
; 194  : 	return false;
; 195  : }

  00043	5d		 pop	 ebp
  00044	c2 04 00	 ret	 4
?CheckJummpingState@ioHideBuff@@IAE_NPAVioBaseChar@@@Z ENDP ; ioHideBuff::CheckJummpingState
_TEXT	ENDS
PUBLIC	__real@406fe00000000000
EXTRN	?CheckCallingAreaWeapon@ioBuff@@IAEXXZ:PROC	; ioBuff::CheckCallingAreaWeapon
EXTRN	?CheckCallingProcess@ioBuff@@IAEXXZ:PROC	; ioBuff::CheckCallingProcess
EXTRN	?CheckSwitchType@ioBuff@@IAE_NM@Z:PROC		; ioBuff::CheckSwitchType
EXTRN	?ProcessBuff@ioBuff@@UAEXM@Z:PROC		; ioBuff::ProcessBuff
EXTRN	?SetReserveEndBuff@ioBuff@@QAEXXZ:PROC		; ioBuff::SetReserveEndBuff
EXTRN	?CheckUseBuffSkill@ioBaseChar@@QAEXABVioHashString@@_N@Z:PROC ; ioBaseChar::CheckUseBuffSkill
EXTRN	?IsCanHide@ioBaseChar@@QAE_NXZ:PROC		; ioBaseChar::IsCanHide
EXTRN	?CheckEnableDelayState@ioBuff@@IAE_NXZ:PROC	; ioBuff::CheckEnableDelayState
EXTRN	__ftol2_sse:PROC
;	COMDAT __real@406fe00000000000
; File d:\lost saga for developer\youtube\tutorial\source\src\lsclient\stdafx.h
CONST	SEGMENT
__real@406fe00000000000 DQ 0406fe00000000000r	; 255
; Function compile flags: /Ogsp
; File d:\lost saga for developer\youtube\tutorial\source\src\lsclient\iohidebuff.cpp
CONST	ENDS
;	COMDAT ?ProcessBuff@ioHideBuff@@UAEXM@Z
_TEXT	SEGMENT
tv321 = -4						; size = 4
tv306 = -4						; size = 4
tv301 = -4						; size = 4
tv329 = 8						; size = 4
tv326 = 8						; size = 4
tv312 = 8						; size = 4
tv290 = 8						; size = 4
_fGapRate$523858 = 8					; size = 4
_fTimePerSec$ = 8					; size = 4
?ProcessBuff@ioHideBuff@@UAEXM@Z PROC			; ioHideBuff::ProcessBuff, COMDAT
; _this$ = ecx

; 99   : {

  00000	55		 push	 ebp
  00001	8b ec		 mov	 ebp, esp
  00003	51		 push	 ecx
  00004	56		 push	 esi
  00005	8b f1		 mov	 esi, ecx

; 100  : 	if( CheckEnableDelayState() )

  00007	e8 00 00 00 00	 call	 ?CheckEnableDelayState@ioBuff@@IAE_NXZ ; ioBuff::CheckEnableDelayState
  0000c	84 c0		 test	 al, al
  0000e	0f 85 ac 01 00
	00		 jne	 $LN2@ProcessBuf

; 101  : 		return;
; 102  : 	
; 103  : 	if( !m_bNoCheckCharState && !m_pOwner->IsCanHide() )

  00014	38 86 a4 09 00
	00		 cmp	 BYTE PTR [esi+2468], al
  0001a	75 44		 jne	 SHORT $LN10@ProcessBuf
  0001c	8b 8e 74 02 00
	00		 mov	 ecx, DWORD PTR [esi+628]
  00022	e8 00 00 00 00	 call	 ?IsCanHide@ioBaseChar@@QAE_NXZ ; ioBaseChar::IsCanHide
  00027	84 c0		 test	 al, al
  00029	75 35		 jne	 SHORT $LN10@ProcessBuf

; 104  : 	{
; 105  : 		if ( !CheckJummpingState(m_pOwner ) )

  0002b	ff b6 74 02 00
	00		 push	 DWORD PTR [esi+628]
  00031	8b ce		 mov	 ecx, esi
  00033	e8 00 00 00 00	 call	 ?CheckJummpingState@ioHideBuff@@IAE_NPAVioBaseChar@@@Z ; ioHideBuff::CheckJummpingState
  00038	84 c0		 test	 al, al
  0003a	0f 85 80 01 00
	00		 jne	 $LN2@ProcessBuf

; 106  : 		{
; 107  : 			m_pOwner->CheckUseBuffSkill( m_Name, false );

  00040	8b 8e 74 02 00
	00		 mov	 ecx, DWORD PTR [esi+628]
  00046	6a 00		 push	 0
  00048	8d 86 34 02 00
	00		 lea	 eax, DWORD PTR [esi+564]
  0004e	50		 push	 eax
  0004f	e8 00 00 00 00	 call	 ?CheckUseBuffSkill@ioBaseChar@@QAEXABVioHashString@@_N@Z ; ioBaseChar::CheckUseBuffSkill

; 108  : 			SetReserveEndBuff();

  00054	8b ce		 mov	 ecx, esi
$LN35@ProcessBuf:
  00056	e8 00 00 00 00	 call	 ?SetReserveEndBuff@ioBuff@@QAEXXZ ; ioBuff::SetReserveEndBuff

; 109  : 		}
; 110  : 		
; 111  : 		return;

  0005b	e9 60 01 00 00	 jmp	 $LN2@ProcessBuf
$LN10@ProcessBuf:

; 112  : 	}
; 113  : 
; 114  : 	switch( m_iOperationType )

  00060	8b 86 d0 03 00
	00		 mov	 eax, DWORD PTR [esi+976]
  00066	83 e8 00	 sub	 eax, 0
  00069	74 3c		 je	 SHORT $LN3@ProcessBuf
  0006b	48		 dec	 eax
  0006c	74 06		 je	 SHORT $LN4@ProcessBuf
  0006e	48		 dec	 eax
  0006f	74 17		 je	 SHORT $LN6@ProcessBuf
  00071	48		 dec	 eax
  00072	75 3a		 jne	 SHORT $LN7@ProcessBuf
$LN4@ProcessBuf:

; 125  : 	case OT_DELAY:
; 126  : 	case OT_ACTIVE:
; 127  : 		ioBuff::ProcessBuff( fTimePerSec );

  00074	f3 0f 10 45 08	 movss	 xmm0, DWORD PTR _fTimePerSec$[ebp]
  00079	51		 push	 ecx
  0007a	8b ce		 mov	 ecx, esi
  0007c	f3 0f 11 04 24	 movss	 DWORD PTR [esp], xmm0
  00081	e8 00 00 00 00	 call	 ?ProcessBuff@ioBuff@@UAEXM@Z ; ioBuff::ProcessBuff

; 128  : 		break;

  00086	eb 26		 jmp	 SHORT $LN7@ProcessBuf
$LN6@ProcessBuf:

; 115  : 	{
; 116  : 	case OT_SWITCH:
; 117  : 		if( !CheckSwitchType( fTimePerSec ) )

  00088	f3 0f 10 45 08	 movss	 xmm0, DWORD PTR _fTimePerSec$[ebp]
  0008d	51		 push	 ecx
  0008e	8b ce		 mov	 ecx, esi
  00090	f3 0f 11 04 24	 movss	 DWORD PTR [esp], xmm0
  00095	e8 00 00 00 00	 call	 ?CheckSwitchType@ioBuff@@IAE_NM@Z ; ioBuff::CheckSwitchType

; 118  : 		{
; 119  : 			SetReserveEndBuff();

  0009a	8b ce		 mov	 ecx, esi
  0009c	84 c0		 test	 al, al

; 120  : 			return;

  0009e	74 b6		 je	 SHORT $LN35@ProcessBuf

; 121  : 		}
; 122  : 
; 123  : 		CheckCallingProcess();

  000a0	e8 00 00 00 00	 call	 ?CheckCallingProcess@ioBuff@@IAEXXZ ; ioBuff::CheckCallingProcess

; 124  : 		break;

  000a5	eb 07		 jmp	 SHORT $LN7@ProcessBuf
$LN3@ProcessBuf:

; 129  : 	case OT_PASSIVE:
; 130  : 		CheckCallingAreaWeapon();

  000a7	8b ce		 mov	 ecx, esi
  000a9	e8 00 00 00 00	 call	 ?CheckCallingAreaWeapon@ioBuff@@IAEXXZ ; ioBuff::CheckCallingAreaWeapon
$LN7@ProcessBuf:

; 131  : 		break;
; 132  : 	}
; 133  : 
; 134  : 	if( !m_bSetVisible )

  000ae	80 be 7c 09 00
	00 00		 cmp	 BYTE PTR [esi+2428], 0
  000b5	0f 85 05 01 00
	00		 jne	 $LN2@ProcessBuf

; 135  : 	{
; 136  : 		DWORD dwGap = FRAMEGETTIME() - m_dwStartTime;

  000bb	ff 15 00 00 00
	00		 call	 DWORD PTR __imp_?GetSingleton@ioFrameTimer@@SAAAV1@XZ
  000c1	8b c8		 mov	 ecx, eax
  000c3	ff 15 00 00 00
	00		 call	 DWORD PTR __imp_?GetLoopSec@ioFrameTimer@@QBEKXZ
  000c9	2b 86 80 09 00
	00		 sub	 eax, DWORD PTR [esi+2432]

; 137  : 		float fGapRate = (float)dwGap / (float)m_dwHidingTime;

  000cf	89 45 08	 mov	 DWORD PTR tv329[ebp], eax
  000d2	db 45 08	 fild	 DWORD PTR tv329[ebp]
  000d5	79 06		 jns	 SHORT $LN28@ProcessBuf
  000d7	d8 05 00 00 00
	00		 fadd	 DWORD PTR __real@4f800000
$LN28@ProcessBuf:
  000dd	8b 86 78 09 00
	00		 mov	 eax, DWORD PTR [esi+2424]
  000e3	db 86 78 09 00
	00		 fild	 DWORD PTR [esi+2424]
  000e9	85 c0		 test	 eax, eax
  000eb	79 06		 jns	 SHORT $LN29@ProcessBuf
  000ed	d8 05 00 00 00
	00		 fadd	 DWORD PTR __real@4f800000
$LN29@ProcessBuf:
  000f3	de f9		 fdivp	 ST(1), ST(0)
  000f5	d9 5d 08	 fstp	 DWORD PTR _fGapRate$523858[ebp]

; 138  : 		fGapRate = min( fGapRate, FLOAT1 );

  000f8	b8 01 00 00 00	 mov	 eax, 1
  000fd	d9 45 08	 fld	 DWORD PTR _fGapRate$523858[ebp]
  00100	89 45 fc	 mov	 DWORD PTR tv321[ebp], eax
  00103	db 45 fc	 fild	 DWORD PTR tv321[ebp]
  00106	85 c0		 test	 eax, eax
  00108	79 06		 jns	 SHORT $LN30@ProcessBuf
  0010a	d8 05 00 00 00
	00		 fadd	 DWORD PTR __real@4f800000
$LN30@ProcessBuf:
  00110	df f1		 fcomip	 ST(1)
  00112	dd d8		 fstp	 ST(0)
  00114	77 18		 ja	 SHORT $LN15@ProcessBuf
  00116	b8 01 00 00 00	 mov	 eax, 1
  0011b	89 45 08	 mov	 DWORD PTR tv312[ebp], eax
  0011e	db 45 08	 fild	 DWORD PTR tv312[ebp]
  00121	85 c0		 test	 eax, eax
  00123	79 06		 jns	 SHORT $LN31@ProcessBuf
  00125	d8 05 00 00 00
	00		 fadd	 DWORD PTR __real@4f800000
$LN31@ProcessBuf:
  0012b	d9 5d 08	 fstp	 DWORD PTR _fGapRate$523858[ebp]
$LN15@ProcessBuf:
  0012e	57		 push	 edi

; 139  : 		int iAlphaRate =  (FLOAT1 - (FLOAT1 - m_fHideRate)*fGapRate ) * MAX_ALPHA_RATE;

  0012f	b8 01 00 00 00	 mov	 eax, 1
  00134	8b c8		 mov	 ecx, eax
  00136	b8 01 00 00 00	 mov	 eax, 1
  0013b	89 4d fc	 mov	 DWORD PTR tv306[ebp], ecx
  0013e	db 45 fc	 fild	 DWORD PTR tv306[ebp]
  00141	85 c9		 test	 ecx, ecx
  00143	79 06		 jns	 SHORT $LN32@ProcessBuf
  00145	d8 05 00 00 00
	00		 fadd	 DWORD PTR __real@4f800000
$LN32@ProcessBuf:
  0014b	89 45 fc	 mov	 DWORD PTR tv301[ebp], eax
  0014e	db 45 fc	 fild	 DWORD PTR tv301[ebp]
  00151	85 c0		 test	 eax, eax
  00153	79 06		 jns	 SHORT $LN33@ProcessBuf
  00155	d8 05 00 00 00
	00		 fadd	 DWORD PTR __real@4f800000
$LN33@ProcessBuf:
  0015b	d8 a6 6c 09 00
	00		 fsub	 DWORD PTR [esi+2412]
  00161	d8 4d 08	 fmul	 DWORD PTR _fGapRate$523858[ebp]
  00164	de e9		 fsubp	 ST(1), ST(0)
  00166	dc 0d 00 00 00
	00		 fmul	 QWORD PTR __real@406fe00000000000
  0016c	e8 00 00 00 00	 call	 __ftol2_sse
  00171	8b f8		 mov	 edi, eax

; 140  : 
; 141  : 		if( fGapRate == FLOAT1 )

  00173	b8 01 00 00 00	 mov	 eax, 1
  00178	d9 45 08	 fld	 DWORD PTR _fGapRate$523858[ebp]
  0017b	89 45 08	 mov	 DWORD PTR tv290[ebp], eax
  0017e	db 45 08	 fild	 DWORD PTR tv290[ebp]
  00181	85 c0		 test	 eax, eax
  00183	79 06		 jns	 SHORT $LN34@ProcessBuf
  00185	d8 05 00 00 00
	00		 fadd	 DWORD PTR __real@4f800000
$LN34@ProcessBuf:
  0018b	d9 c9		 fxch	 ST(1)
  0018d	df e9		 fucomip ST(1)
  0018f	dd d8		 fstp	 ST(0)
  00191	9f		 lahf
  00192	f6 c4 44	 test	 ah, 68			; 00000044H
  00195	7a 14		 jp	 SHORT $LN1@ProcessBuf

; 142  : 		{
; 143  : 			m_bSetVisible = true;
; 144  : 			m_pOwner->SetHideChar( true );

  00197	8b 8e 74 02 00
	00		 mov	 ecx, DWORD PTR [esi+628]
  0019d	6a 01		 push	 1
  0019f	c6 86 7c 09 00
	00 01		 mov	 BYTE PTR [esi+2428], 1
  001a6	e8 00 00 00 00	 call	 ?SetHideChar@ioBaseChar@@QAEX_N@Z ; ioBaseChar::SetHideChar
$LN1@ProcessBuf:

; 145  : 		}
; 146  : 
; 147  : 		iAlphaRate = max( 1, iAlphaRate );

  001ab	83 ff 01	 cmp	 edi, 1
  001ae	7d 03		 jge	 SHORT $LN16@ProcessBuf
  001b0	33 ff		 xor	 edi, edi
  001b2	47		 inc	 edi
$LN16@ProcessBuf:

; 148  : 		m_pOwner->SetAlphaRateDirect( iAlphaRate );

  001b3	8b 8e 74 02 00
	00		 mov	 ecx, DWORD PTR [esi+628]
  001b9	57		 push	 edi
  001ba	e8 00 00 00 00	 call	 ?SetAlphaRateDirect@ioGameEntity@@QAEXH@Z ; ioGameEntity::SetAlphaRateDirect
  001bf	5f		 pop	 edi
$LN2@ProcessBuf:
  001c0	5e		 pop	 esi

; 149  : 	}
; 150  : }

  001c1	c9		 leave
  001c2	c2 04 00	 ret	 4
?ProcessBuff@ioHideBuff@@UAEXM@Z ENDP			; ioHideBuff::ProcessBuff
_TEXT	ENDS
END
