; Listing generated by Microsoft (R) Optimizing Compiler Version 16.00.30319.01 

	TITLE	D:\Lost Saga For Developer\Youtube\Tutorial\Source\src\LSClient\ioHide2Buff.cpp
	.686P
	.XMM
	include listing.inc
	.model	flat

INCLUDELIB MSVCRT
INCLUDELIB OLDNAMES

PUBLIC	?return1@@YAIXZ					; return1
; Function compile flags: /Ogsp
; File d:\lost saga for developer\youtube\tutorial\source\src\lsclient\stdafx.h
;	COMDAT ?return1@@YAIXZ
_TEXT	SEGMENT
?return1@@YAIXZ PROC					; return1, COMDAT

; 17   : 	__forceinline unsigned int return1() { __asm mov eax, 1 };

  00000	b8 01 00 00 00	 mov	 eax, 1
  00005	c3		 ret	 0
?return1@@YAIXZ ENDP					; return1
_TEXT	ENDS
PUBLIC	?GetLandingType@ioBaseChar@@QAE?AW4CharLandingType@@XZ ; ioBaseChar::GetLandingType
; Function compile flags: /Ogsp
; File d:\lost saga for developer\youtube\tutorial\source\src\lsclient\iobasechar.h
;	COMDAT ?GetLandingType@ioBaseChar@@QAE?AW4CharLandingType@@XZ
_TEXT	SEGMENT
?GetLandingType@ioBaseChar@@QAE?AW4CharLandingType@@XZ PROC ; ioBaseChar::GetLandingType, COMDAT
; _this$ = ecx

; 2127 : 	CharLandingType GetLandingType() { return m_CharLandType; }

  00000	8b 81 18 03 00
	00		 mov	 eax, DWORD PTR [ecx+792]
  00006	c3		 ret	 0
?GetLandingType@ioBaseChar@@QAE?AW4CharLandingType@@XZ ENDP ; ioBaseChar::GetLandingType
_TEXT	ENDS
PUBLIC	?GetState@ioBaseChar@@QBE?AW4CharState@@XZ	; ioBaseChar::GetState
; Function compile flags: /Ogsp
;	COMDAT ?GetState@ioBaseChar@@QBE?AW4CharState@@XZ
_TEXT	SEGMENT
?GetState@ioBaseChar@@QBE?AW4CharState@@XZ PROC		; ioBaseChar::GetState, COMDAT
; _this$ = ecx

; 2156 : 	inline CharState GetState() const { return m_CharState; }	

  00000	8a 81 10 03 00
	00		 mov	 al, BYTE PTR [ecx+784]
  00006	c3		 ret	 0
?GetState@ioBaseChar@@QBE?AW4CharState@@XZ ENDP		; ioBaseChar::GetState
_TEXT	ENDS
PUBLIC	?GetJumpType@ioBaseChar@@QBE?AW4JumpType@@XZ	; ioBaseChar::GetJumpType
; Function compile flags: /Ogsp
;	COMDAT ?GetJumpType@ioBaseChar@@QBE?AW4JumpType@@XZ
_TEXT	SEGMENT
?GetJumpType@ioBaseChar@@QBE?AW4JumpType@@XZ PROC	; ioBaseChar::GetJumpType, COMDAT
; _this$ = ecx

; 2159 : 	inline JumpType GetJumpType() const { return m_CurJumpType; }

  00000	8b 81 34 03 00
	00		 mov	 eax, DWORD PTR [ecx+820]
  00006	c3		 ret	 0
?GetJumpType@ioBaseChar@@QBE?AW4JumpType@@XZ ENDP	; ioBaseChar::GetJumpType
_TEXT	ENDS
PUBLIC	?GetWitchFlyState@ioWitchItem@@QAE?AW4WitchFlyState@1@XZ ; ioWitchItem::GetWitchFlyState
; Function compile flags: /Ogsp
; File d:\lost saga for developer\youtube\tutorial\source\src\lsclient\iowitchitem.h
;	COMDAT ?GetWitchFlyState@ioWitchItem@@QAE?AW4WitchFlyState@1@XZ
_TEXT	SEGMENT
?GetWitchFlyState@ioWitchItem@@QAE?AW4WitchFlyState@1@XZ PROC ; ioWitchItem::GetWitchFlyState, COMDAT
; _this$ = ecx

; 123  : 	WitchFlyState GetWitchFlyState() { return m_WitchFlyState; }

  00000	8b 81 68 19 00
	00		 mov	 eax, DWORD PTR [ecx+6504]
  00006	c3		 ret	 0
?GetWitchFlyState@ioWitchItem@@QAE?AW4WitchFlyState@1@XZ ENDP ; ioWitchItem::GetWitchFlyState
_TEXT	ENDS
PUBLIC	?GetMechanicsFlyState@ioMechanicsItem@@QAE?AW4MechanicsFlyState@1@XZ ; ioMechanicsItem::GetMechanicsFlyState
; Function compile flags: /Ogsp
; File d:\lost saga for developer\youtube\tutorial\source\src\lsclient\iomechanicsitem.h
;	COMDAT ?GetMechanicsFlyState@ioMechanicsItem@@QAE?AW4MechanicsFlyState@1@XZ
_TEXT	SEGMENT
?GetMechanicsFlyState@ioMechanicsItem@@QAE?AW4MechanicsFlyState@1@XZ PROC ; ioMechanicsItem::GetMechanicsFlyState, COMDAT
; _this$ = ecx

; 135  : 	MechanicsFlyState GetMechanicsFlyState() { return m_MechanicsFlyState; }

  00000	8b 81 68 19 00
	00		 mov	 eax, DWORD PTR [ecx+6504]
  00006	c3		 ret	 0
?GetMechanicsFlyState@ioMechanicsItem@@QAE?AW4MechanicsFlyState@1@XZ ENDP ; ioMechanicsItem::GetMechanicsFlyState
_TEXT	ENDS
PUBLIC	?GetMichaelFlyState@ioMichaelItem@@QBE?BHXZ	; ioMichaelItem::GetMichaelFlyState
; Function compile flags: /Ogsp
; File d:\lost saga for developer\youtube\tutorial\source\src\lsclient\iomichaelitem.h
;	COMDAT ?GetMichaelFlyState@ioMichaelItem@@QBE?BHXZ
_TEXT	SEGMENT
?GetMichaelFlyState@ioMichaelItem@@QBE?BHXZ PROC	; ioMichaelItem::GetMichaelFlyState, COMDAT
; _this$ = ecx

; 164  : 	inline const int GetMichaelFlyState() const { return (int)m_MichaelFlyState; }

  00000	8b 81 70 19 00
	00		 mov	 eax, DWORD PTR [ecx+6512]
  00006	c3		 ret	 0
?GetMichaelFlyState@ioMichaelItem@@QBE?BHXZ ENDP	; ioMichaelItem::GetMichaelFlyState
_TEXT	ENDS
PUBLIC	?GetPhantomFlyState@ioPhantomItem@@QBE?BHXZ	; ioPhantomItem::GetPhantomFlyState
; Function compile flags: /Ogsp
; File d:\lost saga for developer\youtube\tutorial\source\src\lsclient\iophantomitem.h
;	COMDAT ?GetPhantomFlyState@ioPhantomItem@@QBE?BHXZ
_TEXT	SEGMENT
?GetPhantomFlyState@ioPhantomItem@@QBE?BHXZ PROC	; ioPhantomItem::GetPhantomFlyState, COMDAT
; _this$ = ecx

; 171  : 	inline const int GetPhantomFlyState() const { return (int)m_PhantomFlyState; }

  00000	8b 81 68 19 00
	00		 mov	 eax, DWORD PTR [ecx+6504]
  00006	c3		 ret	 0
?GetPhantomFlyState@ioPhantomItem@@QBE?BHXZ ENDP	; ioPhantomItem::GetPhantomFlyState
_TEXT	ENDS
PUBLIC	?GetFlyState@ioLuciferItem@@QAE?AW4LuciferFlyState@1@XZ ; ioLuciferItem::GetFlyState
; Function compile flags: /Ogsp
; File d:\lost saga for developer\youtube\tutorial\source\src\lsclient\ioluciferitem.h
;	COMDAT ?GetFlyState@ioLuciferItem@@QAE?AW4LuciferFlyState@1@XZ
_TEXT	SEGMENT
?GetFlyState@ioLuciferItem@@QAE?AW4LuciferFlyState@1@XZ PROC ; ioLuciferItem::GetFlyState, COMDAT
; _this$ = ecx

; 198  : 	LuciferFlyState GetFlyState() { return m_FlyState; }

  00000	8b 81 68 19 00
	00		 mov	 eax, DWORD PTR [ecx+6504]
  00006	c3		 ret	 0
?GetFlyState@ioLuciferItem@@QAE?AW4LuciferFlyState@1@XZ ENDP ; ioLuciferItem::GetFlyState
_TEXT	ENDS
PUBLIC	?GetWitchFlyState@ioNakoruruItem@@QAE?AW4WitchFlyState@1@XZ ; ioNakoruruItem::GetWitchFlyState
; Function compile flags: /Ogsp
; File d:\lost saga for developer\youtube\tutorial\source\src\lsclient\ionakoruruitem.h
;	COMDAT ?GetWitchFlyState@ioNakoruruItem@@QAE?AW4WitchFlyState@1@XZ
_TEXT	SEGMENT
?GetWitchFlyState@ioNakoruruItem@@QAE?AW4WitchFlyState@1@XZ PROC ; ioNakoruruItem::GetWitchFlyState, COMDAT
; _this$ = ecx

; 107  : 	WitchFlyState GetWitchFlyState() { return m_WitchFlyState; }

  00000	8b 81 c0 1c 00
	00		 mov	 eax, DWORD PTR [ecx+7360]
  00006	c3		 ret	 0
?GetWitchFlyState@ioNakoruruItem@@QAE?AW4WitchFlyState@1@XZ ENDP ; ioNakoruruItem::GetWitchFlyState
_TEXT	ENDS
PUBLIC	?GetDestroyerFlyState@ioDestroyerItem@@QAE?AW4DestroyerFlyState@1@XZ ; ioDestroyerItem::GetDestroyerFlyState
; Function compile flags: /Ogsp
; File d:\lost saga for developer\youtube\tutorial\source\src\lsclient\iodestroyeritem.h
;	COMDAT ?GetDestroyerFlyState@ioDestroyerItem@@QAE?AW4DestroyerFlyState@1@XZ
_TEXT	SEGMENT
?GetDestroyerFlyState@ioDestroyerItem@@QAE?AW4DestroyerFlyState@1@XZ PROC ; ioDestroyerItem::GetDestroyerFlyState, COMDAT
; _this$ = ecx

; 172  : 	DestroyerFlyState GetDestroyerFlyState() { return m_DestroyerFlyState; }

  00000	8b 81 68 19 00
	00		 mov	 eax, DWORD PTR [ecx+6504]
  00006	c3		 ret	 0
?GetDestroyerFlyState@ioDestroyerItem@@QAE?AW4DestroyerFlyState@1@XZ ENDP ; ioDestroyerItem::GetDestroyerFlyState
_TEXT	ENDS
PUBLIC	?GetFlyState@ioDevilItem@@QAE?AW4DevilFlyState@1@XZ ; ioDevilItem::GetFlyState
; Function compile flags: /Ogsp
; File d:\lost saga for developer\youtube\tutorial\source\src\lsclient\iodevilitem.h
;	COMDAT ?GetFlyState@ioDevilItem@@QAE?AW4DevilFlyState@1@XZ
_TEXT	SEGMENT
?GetFlyState@ioDevilItem@@QAE?AW4DevilFlyState@1@XZ PROC ; ioDevilItem::GetFlyState, COMDAT
; _this$ = ecx

; 150  : 	DevilFlyState GetFlyState() { return m_FlyState; }

  00000	8b 81 68 19 00
	00		 mov	 eax, DWORD PTR [ecx+6504]
  00006	c3		 ret	 0
?GetFlyState@ioDevilItem@@QAE?AW4DevilFlyState@1@XZ ENDP ; ioDevilItem::GetFlyState
_TEXT	ENDS
PUBLIC	??_R0?AVioExtendJump@@@8			; ioExtendJump `RTTI Type Descriptor'
PUBLIC	??_R0?AVioDoubleJump@@@8			; ioDoubleJump `RTTI Type Descriptor'
PUBLIC	?ToDoubleJump@@YAPAVioDoubleJump@@PAVioExtendJump@@@Z ; ToDoubleJump
EXTRN	___RTDynamicCast:PROC
EXTRN	??_7type_info@@6B@:QWORD			; type_info::`vftable'
;	COMDAT ??_R0?AVioExtendJump@@@8
; File d:\lost saga for developer\youtube\tutorial\source\src\lsclient\iodoublejump.h
_DATA	SEGMENT
??_R0?AVioExtendJump@@@8 DD FLAT:??_7type_info@@6B@	; ioExtendJump `RTTI Type Descriptor'
	DD	00H
	DB	'.?AVioExtendJump@@', 00H
_DATA	ENDS
;	COMDAT ??_R0?AVioDoubleJump@@@8
_DATA	SEGMENT
??_R0?AVioDoubleJump@@@8 DD FLAT:??_7type_info@@6B@	; ioDoubleJump `RTTI Type Descriptor'
	DD	00H
	DB	'.?AVioDoubleJump@@', 00H
; Function compile flags: /Ogsp
_DATA	ENDS
;	COMDAT ?ToDoubleJump@@YAPAVioDoubleJump@@PAVioExtendJump@@@Z
_TEXT	SEGMENT
_pJump$ = 8						; size = 4
?ToDoubleJump@@YAPAVioDoubleJump@@PAVioExtendJump@@@Z PROC ; ToDoubleJump, COMDAT

; 103  : {

  00000	55		 push	 ebp
  00001	8b ec		 mov	 ebp, esp
  00003	56		 push	 esi

; 104  : 	if( !pJump || pJump->GetType() != JT_DOUBLE_JUMP )

  00004	8b 75 08	 mov	 esi, DWORD PTR _pJump$[ebp]
  00007	85 f6		 test	 esi, esi
  00009	74 25		 je	 SHORT $LN1@ToDoubleJu
  0000b	8b 06		 mov	 eax, DWORD PTR [esi]
  0000d	8b ce		 mov	 ecx, esi
  0000f	ff 50 08	 call	 DWORD PTR [eax+8]
  00012	83 f8 04	 cmp	 eax, 4
  00015	75 19		 jne	 SHORT $LN1@ToDoubleJu

; 106  : 
; 107  : 	return dynamic_cast< ioDoubleJump* >( pJump );

  00017	6a 00		 push	 0
  00019	68 00 00 00 00	 push	 OFFSET ??_R0?AVioDoubleJump@@@8
  0001e	68 00 00 00 00	 push	 OFFSET ??_R0?AVioExtendJump@@@8
  00023	6a 00		 push	 0
  00025	56		 push	 esi
  00026	e8 00 00 00 00	 call	 ___RTDynamicCast
  0002b	83 c4 14	 add	 esp, 20			; 00000014H
  0002e	eb 02		 jmp	 SHORT $LN3@ToDoubleJu
$LN1@ToDoubleJu:

; 105  : 		return NULL;

  00030	33 c0		 xor	 eax, eax
$LN3@ToDoubleJu:
  00032	5e		 pop	 esi

; 108  : }

  00033	5d		 pop	 ebp
  00034	c3		 ret	 0
?ToDoubleJump@@YAPAVioDoubleJump@@PAVioExtendJump@@@Z ENDP ; ToDoubleJump
_TEXT	ENDS
PUBLIC	?GetJumpState@ioKisaragiJump@@QAE?AW4KisaragiJumpState@1@XZ ; ioKisaragiJump::GetJumpState
; Function compile flags: /Ogsp
; File d:\lost saga for developer\youtube\tutorial\source\src\lsclient\iokisaragijump.h
;	COMDAT ?GetJumpState@ioKisaragiJump@@QAE?AW4KisaragiJumpState@1@XZ
_TEXT	SEGMENT
?GetJumpState@ioKisaragiJump@@QAE?AW4KisaragiJumpState@1@XZ PROC ; ioKisaragiJump::GetJumpState, COMDAT
; _this$ = ecx

; 70   : 	KisaragiJumpState GetJumpState() { return m_CurJumpState; }

  00000	8b 81 24 01 00
	00		 mov	 eax, DWORD PTR [ecx+292]
  00006	c3		 ret	 0
?GetJumpState@ioKisaragiJump@@QAE?AW4KisaragiJumpState@1@XZ ENDP ; ioKisaragiJump::GetJumpState
_TEXT	ENDS
PUBLIC	??_R0?AVioKisaragiJump@@@8			; ioKisaragiJump `RTTI Type Descriptor'
PUBLIC	?ToKisaragiJump@@YAPAVioKisaragiJump@@PAVioExtendJump@@@Z ; ToKisaragiJump
;	COMDAT ??_R0?AVioKisaragiJump@@@8
_DATA	SEGMENT
??_R0?AVioKisaragiJump@@@8 DD FLAT:??_7type_info@@6B@	; ioKisaragiJump `RTTI Type Descriptor'
	DD	00H
	DB	'.?AVioKisaragiJump@@', 00H
; Function compile flags: /Ogsp
_DATA	ENDS
;	COMDAT ?ToKisaragiJump@@YAPAVioKisaragiJump@@PAVioExtendJump@@@Z
_TEXT	SEGMENT
_pJump$ = 8						; size = 4
?ToKisaragiJump@@YAPAVioKisaragiJump@@PAVioExtendJump@@@Z PROC ; ToKisaragiJump, COMDAT

; 88   : {

  00000	55		 push	 ebp
  00001	8b ec		 mov	 ebp, esp
  00003	56		 push	 esi

; 89   : 	if( !pJump || pJump->GetType() != JT_KISARAGI_JUMP )

  00004	8b 75 08	 mov	 esi, DWORD PTR _pJump$[ebp]
  00007	85 f6		 test	 esi, esi
  00009	74 25		 je	 SHORT $LN1@ToKisaragi
  0000b	8b 06		 mov	 eax, DWORD PTR [esi]
  0000d	8b ce		 mov	 ecx, esi
  0000f	ff 50 08	 call	 DWORD PTR [eax+8]
  00012	83 f8 0c	 cmp	 eax, 12			; 0000000cH
  00015	75 19		 jne	 SHORT $LN1@ToKisaragi

; 91   : 
; 92   : 	return dynamic_cast< ioKisaragiJump* >( pJump );

  00017	6a 00		 push	 0
  00019	68 00 00 00 00	 push	 OFFSET ??_R0?AVioKisaragiJump@@@8
  0001e	68 00 00 00 00	 push	 OFFSET ??_R0?AVioExtendJump@@@8
  00023	6a 00		 push	 0
  00025	56		 push	 esi
  00026	e8 00 00 00 00	 call	 ___RTDynamicCast
  0002b	83 c4 14	 add	 esp, 20			; 00000014H
  0002e	eb 02		 jmp	 SHORT $LN3@ToKisaragi
$LN1@ToKisaragi:

; 90   : 		return NULL;

  00030	33 c0		 xor	 eax, eax
$LN3@ToKisaragi:
  00032	5e		 pop	 esi

; 93   : }

  00033	5d		 pop	 ebp
  00034	c3		 ret	 0
?ToKisaragiJump@@YAPAVioKisaragiJump@@PAVioExtendJump@@@Z ENDP ; ToKisaragiJump
_TEXT	ENDS
PUBLIC	??_7ioHide2Buff@@6B@				; ioHide2Buff::`vftable'
PUBLIC	??0ioHide2Buff@@QAE@XZ				; ioHide2Buff::ioHide2Buff
PUBLIC	??_R4ioHide2Buff@@6B@				; ioHide2Buff::`RTTI Complete Object Locator'
PUBLIC	??_R0?AVioHide2Buff@@@8				; ioHide2Buff `RTTI Type Descriptor'
PUBLIC	??_R3ioHide2Buff@@8				; ioHide2Buff::`RTTI Class Hierarchy Descriptor'
PUBLIC	??_R2ioHide2Buff@@8				; ioHide2Buff::`RTTI Base Class Array'
PUBLIC	??_R1A@?0A@EA@ioHide2Buff@@8			; ioHide2Buff::`RTTI Base Class Descriptor at (0,-1,0,64)'
PUBLIC	??_R1A@?0A@EA@ioBuff@@8				; ioBuff::`RTTI Base Class Descriptor at (0,-1,0,64)'
PUBLIC	??_R0?AVioBuff@@@8				; ioBuff `RTTI Type Descriptor'
PUBLIC	??_R3ioBuff@@8					; ioBuff::`RTTI Class Hierarchy Descriptor'
PUBLIC	??_R2ioBuff@@8					; ioBuff::`RTTI Base Class Array'
PUBLIC	?LoadProperty@ioHide2Buff@@UAEXAAVioINILoader@@@Z ; ioHide2Buff::LoadProperty
PUBLIC	?Clone@ioHide2Buff@@UAEPAVioBuff@@XZ		; ioHide2Buff::Clone
PUBLIC	?StartBuff@ioHide2Buff@@UAEXPAVioBaseChar@@@Z	; ioHide2Buff::StartBuff
PUBLIC	?ApplyStartBuff@ioHide2Buff@@UAE_NPAVioBaseChar@@KK@Z ; ioHide2Buff::ApplyStartBuff
PUBLIC	?ProcessBuff@ioHide2Buff@@UAEXM@Z		; ioHide2Buff::ProcessBuff
PUBLIC	?EndBuff@ioHide2Buff@@UAEXXZ			; ioHide2Buff::EndBuff
PUBLIC	?IsWaitSelfRemove@ioBuff@@UAE_NXZ		; ioBuff::IsWaitSelfRemove
EXTRN	??0ioBuff@@QAE@XZ:PROC				; ioBuff::ioBuff
EXTRN	__fltused:DWORD
EXTRN	?StartBuffWithAniTime@ioBuff@@UAEXPAVioBaseChar@@K@Z:PROC ; ioBuff::StartBuffWithAniTime
EXTRN	?CancelBuff@ioBuff@@UAEXXZ:PROC			; ioBuff::CancelBuff
EXTRN	?GetBuffInfo@ioBuff@@UAEXAAVSP2Packet@@@Z:PROC	; ioBuff::GetBuffInfo
EXTRN	?ApplyBuffInfo@ioBuff@@UAEXAAVSP2Packet@@@Z:PROC ; ioBuff::ApplyBuffInfo
EXTRN	?AccumulateBuff@ioBuff@@UAEXXZ:PROC		; ioBuff::AccumulateBuff
EXTRN	?IsLiveButStopped@ioBuff@@UBE_NXZ:PROC		; ioBuff::IsLiveButStopped
EXTRN	?IsCanJumpAttack@ioBuff@@UBE_NXZ:PROC		; ioBuff::IsCanJumpAttack
EXTRN	?SetAction@ioBuff@@MAEXXZ:PROC			; ioBuff::SetAction
EXTRN	?ProcessDelay@ioBuff@@MAEXM@Z:PROC		; ioBuff::ProcessDelay
EXTRN	?SetExtraDurationByGrowth@ioBuff@@UAEXM@Z:PROC	; ioBuff::SetExtraDurationByGrowth
EXTRN	?SetWeaponIndex@ioBuff@@UAEXK@Z:PROC		; ioBuff::SetWeaponIndex
EXTRN	?OnReduceGauge@ioBuff@@UBE_NXZ:PROC		; ioBuff::OnReduceGauge
EXTRN	?IsCharCollisionSkip@ioBuff@@UBE_NXZ:PROC	; ioBuff::IsCharCollisionSkip
EXTRN	?IsCollisionAvailableWeapon@ioBuff@@UBE_NXZ:PROC ; ioBuff::IsCollisionAvailableWeapon
EXTRN	?IsProtected@ioBuff@@UBE_NXZ:PROC		; ioBuff::IsProtected
EXTRN	?UseActiveCount@ioBuff@@UBE_NXZ:PROC		; ioBuff::UseActiveCount
EXTRN	?CheckActiveCount@ioBuff@@UAEXXZ:PROC		; ioBuff::CheckActiveCount
EXTRN	?CheckRemoveEquipSkillBuff@ioBuff@@UAEX_N@Z:PROC ; ioBuff::CheckRemoveEquipSkillBuff
EXTRN	?ApplyExtraBuffInfo@ioBuff@@UAEXAAVSP2Packet@@@Z:PROC ; ioBuff::ApplyExtraBuffInfo
EXTRN	?SetBuffGrapplingState@ioBuff@@UAE_NPAVioBaseChar@@ABVioHashString@@@Z:PROC ; ioBuff::SetBuffGrapplingState
EXTRN	?GetGrapplingTargetPos@ioBuff@@UAE?AUD3DXVECTOR3@@PAVioBaseChar@@@Z:PROC ; ioBuff::GetGrapplingTargetPos
EXTRN	??_EioHide2Buff@@UAEPAXI@Z:PROC			; ioHide2Buff::`vector deleting destructor'
;	COMDAT ??_R2ioBuff@@8
; File d:\lost saga for developer\youtube\tutorial\source\src\lsclient\iohide2buff.cpp
rdata$r	SEGMENT
??_R2ioBuff@@8 DD FLAT:??_R1A@?0A@EA@ioBuff@@8		; ioBuff::`RTTI Base Class Array'
rdata$r	ENDS
;	COMDAT ??_R3ioBuff@@8
rdata$r	SEGMENT
??_R3ioBuff@@8 DD 00H					; ioBuff::`RTTI Class Hierarchy Descriptor'
	DD	00H
	DD	01H
	DD	FLAT:??_R2ioBuff@@8
rdata$r	ENDS
;	COMDAT ??_R0?AVioBuff@@@8
_DATA	SEGMENT
??_R0?AVioBuff@@@8 DD FLAT:??_7type_info@@6B@		; ioBuff `RTTI Type Descriptor'
	DD	00H
	DB	'.?AVioBuff@@', 00H
_DATA	ENDS
;	COMDAT ??_R1A@?0A@EA@ioBuff@@8
rdata$r	SEGMENT
??_R1A@?0A@EA@ioBuff@@8 DD FLAT:??_R0?AVioBuff@@@8	; ioBuff::`RTTI Base Class Descriptor at (0,-1,0,64)'
	DD	00H
	DD	00H
	DD	0ffffffffH
	DD	00H
	DD	040H
	DD	FLAT:??_R3ioBuff@@8
rdata$r	ENDS
;	COMDAT ??_R1A@?0A@EA@ioHide2Buff@@8
rdata$r	SEGMENT
??_R1A@?0A@EA@ioHide2Buff@@8 DD FLAT:??_R0?AVioHide2Buff@@@8 ; ioHide2Buff::`RTTI Base Class Descriptor at (0,-1,0,64)'
	DD	01H
	DD	00H
	DD	0ffffffffH
	DD	00H
	DD	040H
	DD	FLAT:??_R3ioHide2Buff@@8
rdata$r	ENDS
;	COMDAT ??_R2ioHide2Buff@@8
rdata$r	SEGMENT
??_R2ioHide2Buff@@8 DD FLAT:??_R1A@?0A@EA@ioHide2Buff@@8 ; ioHide2Buff::`RTTI Base Class Array'
	DD	FLAT:??_R1A@?0A@EA@ioBuff@@8
rdata$r	ENDS
;	COMDAT ??_R3ioHide2Buff@@8
rdata$r	SEGMENT
??_R3ioHide2Buff@@8 DD 00H				; ioHide2Buff::`RTTI Class Hierarchy Descriptor'
	DD	00H
	DD	02H
	DD	FLAT:??_R2ioHide2Buff@@8
rdata$r	ENDS
;	COMDAT ??_R0?AVioHide2Buff@@@8
_DATA	SEGMENT
??_R0?AVioHide2Buff@@@8 DD FLAT:??_7type_info@@6B@	; ioHide2Buff `RTTI Type Descriptor'
	DD	00H
	DB	'.?AVioHide2Buff@@', 00H
_DATA	ENDS
;	COMDAT ??_R4ioHide2Buff@@6B@
rdata$r	SEGMENT
??_R4ioHide2Buff@@6B@ DD 00H				; ioHide2Buff::`RTTI Complete Object Locator'
	DD	00H
	DD	00H
	DD	FLAT:??_R0?AVioHide2Buff@@@8
	DD	FLAT:??_R3ioHide2Buff@@8
rdata$r	ENDS
;	COMDAT ??_7ioHide2Buff@@6B@
CONST	SEGMENT
??_7ioHide2Buff@@6B@ DD FLAT:??_R4ioHide2Buff@@6B@	; ioHide2Buff::`vftable'
	DD	FLAT:?LoadProperty@ioHide2Buff@@UAEXAAVioINILoader@@@Z
	DD	FLAT:?Clone@ioHide2Buff@@UAEPAVioBuff@@XZ
	DD	FLAT:?StartBuff@ioHide2Buff@@UAEXPAVioBaseChar@@@Z
	DD	FLAT:?StartBuffWithAniTime@ioBuff@@UAEXPAVioBaseChar@@K@Z
	DD	FLAT:?ApplyStartBuff@ioHide2Buff@@UAE_NPAVioBaseChar@@KK@Z
	DD	FLAT:?ProcessBuff@ioHide2Buff@@UAEXM@Z
	DD	FLAT:?EndBuff@ioHide2Buff@@UAEXXZ
	DD	FLAT:?CancelBuff@ioBuff@@UAEXXZ
	DD	FLAT:?GetBuffInfo@ioBuff@@UAEXAAVSP2Packet@@@Z
	DD	FLAT:?ApplyBuffInfo@ioBuff@@UAEXAAVSP2Packet@@@Z
	DD	FLAT:?AccumulateBuff@ioBuff@@UAEXXZ
	DD	FLAT:?IsLiveButStopped@ioBuff@@UBE_NXZ
	DD	FLAT:?IsCanJumpAttack@ioBuff@@UBE_NXZ
	DD	FLAT:?SetAction@ioBuff@@MAEXXZ
	DD	FLAT:?ProcessDelay@ioBuff@@MAEXM@Z
	DD	FLAT:?SetExtraDurationByGrowth@ioBuff@@UAEXM@Z
	DD	FLAT:?SetWeaponIndex@ioBuff@@UAEXK@Z
	DD	FLAT:?OnReduceGauge@ioBuff@@UBE_NXZ
	DD	FLAT:?IsCharCollisionSkip@ioBuff@@UBE_NXZ
	DD	FLAT:?IsCollisionAvailableWeapon@ioBuff@@UBE_NXZ
	DD	FLAT:?IsProtected@ioBuff@@UBE_NXZ
	DD	FLAT:?UseActiveCount@ioBuff@@UBE_NXZ
	DD	FLAT:?CheckActiveCount@ioBuff@@UAEXXZ
	DD	FLAT:?CheckRemoveEquipSkillBuff@ioBuff@@UAEX_N@Z
	DD	FLAT:?ApplyExtraBuffInfo@ioBuff@@UAEXAAVSP2Packet@@@Z
	DD	FLAT:?SetBuffGrapplingState@ioBuff@@UAE_NPAVioBaseChar@@ABVioHashString@@@Z
	DD	FLAT:?GetGrapplingTargetPos@ioBuff@@UAE?AUD3DXVECTOR3@@PAVioBaseChar@@@Z
	DD	FLAT:?IsWaitSelfRemove@ioBuff@@UAE_NXZ
	DD	FLAT:??_EioHide2Buff@@UAEPAXI@Z
; Function compile flags: /Ogsp
CONST	ENDS
;	COMDAT ??0ioHide2Buff@@QAE@XZ
_TEXT	SEGMENT
??0ioHide2Buff@@QAE@XZ PROC				; ioHide2Buff::ioHide2Buff, COMDAT
; _this$ = ecx

; 13   : {

  00000	56		 push	 esi
  00001	8b f1		 mov	 esi, ecx
  00003	e8 00 00 00 00	 call	 ??0ioBuff@@QAE@XZ	; ioBuff::ioBuff

; 14   : 	m_dwStartTime = 0;
; 15   : 	m_fCurSpeed = 0.0f;

  00008	0f 57 c0	 xorps	 xmm0, xmm0
  0000b	83 a6 78 09 00
	00 00		 and	 DWORD PTR [esi+2424], 0
  00012	c7 06 00 00 00
	00		 mov	 DWORD PTR [esi], OFFSET ??_7ioHide2Buff@@6B@
  00018	f3 0f 11 86 74
	09 00 00	 movss	 DWORD PTR [esi+2420], xmm0

; 16   : 	m_bSetVisible = false;

  00020	c6 86 7c 09 00
	00 00		 mov	 BYTE PTR [esi+2428], 0

; 17   : }

  00027	8b c6		 mov	 eax, esi
  00029	5e		 pop	 esi
  0002a	c3		 ret	 0
??0ioHide2Buff@@QAE@XZ ENDP				; ioHide2Buff::ioHide2Buff
_TEXT	ENDS
PUBLIC	??0ioHide2Buff@@QAE@ABV0@@Z			; ioHide2Buff::ioHide2Buff
EXTRN	??0ioBuff@@QAE@ABV0@@Z:PROC			; ioBuff::ioBuff
; Function compile flags: /Ogsp
;	COMDAT ??0ioHide2Buff@@QAE@ABV0@@Z
_TEXT	SEGMENT
_rhs$ = 8						; size = 4
??0ioHide2Buff@@QAE@ABV0@@Z PROC			; ioHide2Buff::ioHide2Buff, COMDAT
; _this$ = ecx

; 23   : {

  00000	55		 push	 ebp
  00001	8b ec		 mov	 ebp, esp
  00003	56		 push	 esi
  00004	57		 push	 edi
  00005	8b 7d 08	 mov	 edi, DWORD PTR _rhs$[ebp]
  00008	57		 push	 edi
  00009	8b f1		 mov	 esi, ecx
  0000b	e8 00 00 00 00	 call	 ??0ioBuff@@QAE@ABV0@@Z	; ioBuff::ioBuff

; 24   : 	m_dwStartTime = 0;
; 25   : 	m_fCurSpeed = 0.0f;

  00010	0f 57 c0	 xorps	 xmm0, xmm0
  00013	c7 06 00 00 00
	00		 mov	 DWORD PTR [esi], OFFSET ??_7ioHide2Buff@@6B@
  00019	d9 87 6c 09 00
	00		 fld	 DWORD PTR [edi+2412]
  0001f	d9 9e 6c 09 00
	00		 fstp	 DWORD PTR [esi+2412]

; 26   : 	m_bSetVisible = false;
; 27   : }

  00025	8b c6		 mov	 eax, esi
  00027	d9 87 70 09 00
	00		 fld	 DWORD PTR [edi+2416]
  0002d	83 a6 78 09 00
	00 00		 and	 DWORD PTR [esi+2424], 0
  00034	5f		 pop	 edi
  00035	d9 9e 70 09 00
	00		 fstp	 DWORD PTR [esi+2416]
  0003b	f3 0f 11 86 74
	09 00 00	 movss	 DWORD PTR [esi+2420], xmm0
  00043	c6 86 7c 09 00
	00 00		 mov	 BYTE PTR [esi+2428], 0
  0004a	5e		 pop	 esi
  0004b	5d		 pop	 ebp
  0004c	c2 04 00	 ret	 4
??0ioHide2Buff@@QAE@ABV0@@Z ENDP			; ioHide2Buff::ioHide2Buff
_TEXT	ENDS
PUBLIC	??1ioHide2Buff@@UAE@XZ				; ioHide2Buff::~ioHide2Buff
EXTRN	??1ioBuff@@UAE@XZ:PROC				; ioBuff::~ioBuff
; Function compile flags: /Ogsp
;	COMDAT ??1ioHide2Buff@@UAE@XZ
_TEXT	SEGMENT
??1ioHide2Buff@@UAE@XZ PROC				; ioHide2Buff::~ioHide2Buff, COMDAT
; _this$ = ecx

; 30   : {

  00000	c7 01 00 00 00
	00		 mov	 DWORD PTR [ecx], OFFSET ??_7ioHide2Buff@@6B@

; 31   : }

  00006	e9 00 00 00 00	 jmp	 ??1ioBuff@@UAE@XZ	; ioBuff::~ioBuff
??1ioHide2Buff@@UAE@XZ ENDP				; ioHide2Buff::~ioHide2Buff
_TEXT	ENDS
EXTRN	??3@YAXPAX@Z:PROC				; operator delete
EXTRN	??2@YAPAXI@Z:PROC				; operator new
EXTRN	___CxxFrameHandler3:PROC
EXTRN	@__security_check_cookie@4:PROC
EXTRN	__EH_epilog3:PROC
EXTRN	__EH_prolog3:PROC
;	COMDAT xdata$x
xdata$x	SEGMENT
__unwindtable$?Clone@ioHide2Buff@@UAEPAVioBuff@@XZ DD 0ffffffffH
	DD	FLAT:__unwindfunclet$?Clone@ioHide2Buff@@UAEPAVioBuff@@XZ$0
__ehfuncinfo$?Clone@ioHide2Buff@@UAEPAVioBuff@@XZ DD 019930522H
	DD	01H
	DD	FLAT:__unwindtable$?Clone@ioHide2Buff@@UAEPAVioBuff@@XZ
	DD	2 DUP(00H)
	DD	2 DUP(00H)
	DD	00H
	DD	01H
; Function compile flags: /Ogsp
xdata$x	ENDS
;	COMDAT ?Clone@ioHide2Buff@@UAEPAVioBuff@@XZ
_TEXT	SEGMENT
$T586187 = -16						; size = 4
__$EHRec$ = -12						; size = 12
?Clone@ioHide2Buff@@UAEPAVioBuff@@XZ PROC		; ioHide2Buff::Clone, COMDAT
; _this$ = ecx

; 42   : {

  00000	6a 04		 push	 4
  00002	b8 00 00 00 00	 mov	 eax, __ehhandler$?Clone@ioHide2Buff@@UAEPAVioBuff@@XZ
  00007	e8 00 00 00 00	 call	 __EH_prolog3
  0000c	8b f1		 mov	 esi, ecx

; 43   : 	return new ioHide2Buff( *this );

  0000e	68 80 09 00 00	 push	 2432			; 00000980H
  00013	e8 00 00 00 00	 call	 ??2@YAPAXI@Z		; operator new
  00018	59		 pop	 ecx
  00019	8b c8		 mov	 ecx, eax
  0001b	89 4d f0	 mov	 DWORD PTR $T586187[ebp], ecx
  0001e	33 c0		 xor	 eax, eax
  00020	89 45 fc	 mov	 DWORD PTR __$EHRec$[ebp+8], eax
  00023	3b c8		 cmp	 ecx, eax
  00025	74 06		 je	 SHORT $LN3@Clone
  00027	56		 push	 esi
  00028	e8 00 00 00 00	 call	 ??0ioHide2Buff@@QAE@ABV0@@Z ; ioHide2Buff::ioHide2Buff
$LN3@Clone:

; 44   : }

  0002d	e8 00 00 00 00	 call	 __EH_epilog3
  00032	c3		 ret	 0
_TEXT	ENDS
;	COMDAT text$x
text$x	SEGMENT
__unwindfunclet$?Clone@ioHide2Buff@@UAEPAVioBuff@@XZ$0:
  00000	ff 75 f0	 push	 DWORD PTR $T586187[ebp]
  00003	e8 00 00 00 00	 call	 ??3@YAXPAX@Z		; operator delete
  00008	59		 pop	 ecx
  00009	c3		 ret	 0
__ehhandler$?Clone@ioHide2Buff@@UAEPAVioBuff@@XZ:
  0000a	8b 54 24 08	 mov	 edx, DWORD PTR [esp+8]
  0000e	8d 42 0c	 lea	 eax, DWORD PTR [edx+12]
  00011	8b 4a ec	 mov	 ecx, DWORD PTR [edx-20]
  00014	33 c8		 xor	 ecx, eax
  00016	e8 00 00 00 00	 call	 @__security_check_cookie@4
  0001b	b8 00 00 00 00	 mov	 eax, OFFSET __ehfuncinfo$?Clone@ioHide2Buff@@UAEPAVioBuff@@XZ
  00020	e9 00 00 00 00	 jmp	 ___CxxFrameHandler3
text$x	ENDS
?Clone@ioHide2Buff@@UAEPAVioBuff@@XZ ENDP		; ioHide2Buff::Clone
PUBLIC	__real@406fe00000000000
PUBLIC	?SetHide@ioHide2Buff@@IAEX_N@Z			; ioHide2Buff::SetHide
EXTRN	?SetHideChar@ioBaseChar@@QAEX_N@Z:PROC		; ioBaseChar::SetHideChar
EXTRN	?SetAlphaRateDirect@ioGameEntity@@QAEXH@Z:PROC	; ioGameEntity::SetAlphaRateDirect
;	COMDAT __real@406fe00000000000
CONST	SEGMENT
__real@406fe00000000000 DQ 0406fe00000000000r	; 255
; Function compile flags: /Ogsp
CONST	ENDS
;	COMDAT ?SetHide@ioHide2Buff@@IAEX_N@Z
_TEXT	SEGMENT
_bHide$ = 8						; size = 1
?SetHide@ioHide2Buff@@IAEX_N@Z PROC			; ioHide2Buff::SetHide, COMDAT
; _this$ = ecx

; 117  : {

  00000	55		 push	 ebp
  00001	8b ec		 mov	 ebp, esp
  00003	53		 push	 ebx
  00004	56		 push	 esi
  00005	8b f1		 mov	 esi, ecx

; 118  : 	if( !m_pOwner )

  00007	8b 8e 74 02 00
	00		 mov	 ecx, DWORD PTR [esi+628]
  0000d	33 db		 xor	 ebx, ebx
  0000f	3b cb		 cmp	 ecx, ebx
  00011	74 66		 je	 SHORT $LN1@SetHide

; 119  : 		return;
; 120  : 
; 121  : 	if( bHide && !m_bSetVisible )

  00013	38 5d 08	 cmp	 BYTE PTR _bHide$[ebp], bl
  00016	74 3b		 je	 SHORT $LN7@SetHide
  00018	38 9e 7c 09 00
	00		 cmp	 BYTE PTR [esi+2428], bl
  0001e	75 59		 jne	 SHORT $LN1@SetHide

; 122  : 	{
; 123  : 		int iAlphaRate = m_fHideRate * MAX_ALPHA_RATE;
; 124  : 		m_pOwner->SetAlphaRateDirect( iAlphaRate );

  00020	f3 0f 10 86 6c
	09 00 00	 movss	 xmm0, DWORD PTR [esi+2412]
  00028	0f 5a c0	 cvtps2pd xmm0, xmm0
  0002b	f2 0f 59 05 00
	00 00 00	 mulsd	 xmm0, QWORD PTR __real@406fe00000000000
  00033	f2 0f 2c c0	 cvttsd2si eax, xmm0
  00037	50		 push	 eax
  00038	e8 00 00 00 00	 call	 ?SetAlphaRateDirect@ioGameEntity@@QAEXH@Z ; ioGameEntity::SetAlphaRateDirect

; 125  : 		m_pOwner->SetHideChar( true );

  0003d	8b 8e 74 02 00
	00		 mov	 ecx, DWORD PTR [esi+628]
  00043	6a 01		 push	 1
  00045	e8 00 00 00 00	 call	 ?SetHideChar@ioBaseChar@@QAEX_N@Z ; ioBaseChar::SetHideChar

; 126  : 		m_bSetVisible = true;

  0004a	c6 86 7c 09 00
	00 01		 mov	 BYTE PTR [esi+2428], 1
  00051	eb 26		 jmp	 SHORT $LN1@SetHide
$LN7@SetHide:
  00053	57		 push	 edi

; 127  : 	}
; 128  : 	else if( !bHide && m_bSetVisible )

  00054	38 9e 7c 09 00
	00		 cmp	 BYTE PTR [esi+2428], bl
  0005a	74 1c		 je	 SHORT $LN8@SetHide

; 129  : 	{
; 130  : 		m_pOwner->SetAlphaRateDirect( MAX_ALPHA_RATE );

  0005c	68 ff 00 00 00	 push	 255			; 000000ffH
  00061	e8 00 00 00 00	 call	 ?SetAlphaRateDirect@ioGameEntity@@QAEXH@Z ; ioGameEntity::SetAlphaRateDirect

; 131  : 		m_pOwner->SetHideChar( false );

  00066	8b 8e 74 02 00
	00		 mov	 ecx, DWORD PTR [esi+628]
  0006c	53		 push	 ebx
  0006d	e8 00 00 00 00	 call	 ?SetHideChar@ioBaseChar@@QAEX_N@Z ; ioBaseChar::SetHideChar

; 132  : 		m_bSetVisible = false;

  00072	88 9e 7c 09 00
	00		 mov	 BYTE PTR [esi+2428], bl
$LN8@SetHide:
  00078	5f		 pop	 edi
$LN1@SetHide:
  00079	5e		 pop	 esi
  0007a	5b		 pop	 ebx

; 133  : 	}
; 134  : }

  0007b	5d		 pop	 ebp
  0007c	c2 04 00	 ret	 4
?SetHide@ioHide2Buff@@IAEX_N@Z ENDP			; ioHide2Buff::SetHide
_TEXT	ENDS
PUBLIC	?DecryptValueToPool@?$CEncrypt@W4JumpState@@@@QAEXPAW4JumpState@@@Z ; CEncrypt<enum JumpState>::DecryptValueToPool
EXTRN	?DecryptByte@ccddaabb@@QBEXPBDPADH@Z:PROC	; ccddaabb::DecryptByte
; Function compile flags: /Ogsp
; File d:\lost saga for developer\youtube\tutorial\source\src\lsclient\encryptvalue.h
;	COMDAT ?DecryptValueToPool@?$CEncrypt@W4JumpState@@@@QAEXPAW4JumpState@@@Z
_TEXT	SEGMENT
_value$ = 8						; size = 4
?DecryptValueToPool@?$CEncrypt@W4JumpState@@@@QAEXPAW4JumpState@@@Z PROC ; CEncrypt<enum JumpState>::DecryptValueToPool, COMDAT
; _this$ = ecx

; 2317 : 	{

  00000	55		 push	 ebp
  00001	8b ec		 mov	 ebp, esp
  00003	56		 push	 esi

; 2318 : 		m_RC5.DecryptByte( m_MemPool, m_TempMem, sizeof(JumpState) );

  00004	8d 71 28	 lea	 esi, DWORD PTR [ecx+40]
  00007	6a 04		 push	 4
  00009	8d 41 1c	 lea	 eax, DWORD PTR [ecx+28]
  0000c	56		 push	 esi
  0000d	50		 push	 eax
  0000e	83 c1 0c	 add	 ecx, 12			; 0000000cH
  00011	e8 00 00 00 00	 call	 ?DecryptByte@ccddaabb@@QBEXPBDPADH@Z ; ccddaabb::DecryptByte

; 2319 : 		*value = *((JumpState*)m_TempMem);

  00016	8b 06		 mov	 eax, DWORD PTR [esi]
  00018	8b 4d 08	 mov	 ecx, DWORD PTR _value$[ebp]
  0001b	89 01		 mov	 DWORD PTR [ecx], eax
  0001d	5e		 pop	 esi

; 2320 : 	}

  0001e	5d		 pop	 ebp
  0001f	c2 04 00	 ret	 4
?DecryptValueToPool@?$CEncrypt@W4JumpState@@@@QAEXPAW4JumpState@@@Z ENDP ; CEncrypt<enum JumpState>::DecryptValueToPool
_TEXT	ENDS
PUBLIC	?DecryptValueToPool@?$CEncrypt@W4BlowWoundedState@@@@QAEXPAW4BlowWoundedState@@@Z ; CEncrypt<enum BlowWoundedState>::DecryptValueToPool
; Function compile flags: /Ogsp
;	COMDAT ?DecryptValueToPool@?$CEncrypt@W4BlowWoundedState@@@@QAEXPAW4BlowWoundedState@@@Z
_TEXT	SEGMENT
_value$ = 8						; size = 4
?DecryptValueToPool@?$CEncrypt@W4BlowWoundedState@@@@QAEXPAW4BlowWoundedState@@@Z PROC ; CEncrypt<enum BlowWoundedState>::DecryptValueToPool, COMDAT
; _this$ = ecx

; 2397 : 	{

  00000	55		 push	 ebp
  00001	8b ec		 mov	 ebp, esp
  00003	56		 push	 esi

; 2398 : 		m_RC5.DecryptByte( m_MemPool, m_TempMem, sizeof(BlowWoundedState) );

  00004	8d 71 28	 lea	 esi, DWORD PTR [ecx+40]
  00007	6a 04		 push	 4
  00009	8d 41 1c	 lea	 eax, DWORD PTR [ecx+28]
  0000c	56		 push	 esi
  0000d	50		 push	 eax
  0000e	83 c1 0c	 add	 ecx, 12			; 0000000cH
  00011	e8 00 00 00 00	 call	 ?DecryptByte@ccddaabb@@QBEXPBDPADH@Z ; ccddaabb::DecryptByte

; 2399 : 		*value = *((BlowWoundedState*)m_TempMem);

  00016	8b 06		 mov	 eax, DWORD PTR [esi]
  00018	8b 4d 08	 mov	 ecx, DWORD PTR _value$[ebp]
  0001b	89 01		 mov	 DWORD PTR [ecx], eax
  0001d	5e		 pop	 esi

; 2400 : 	}

  0001e	5d		 pop	 ebp
  0001f	c2 04 00	 ret	 4
?DecryptValueToPool@?$CEncrypt@W4BlowWoundedState@@@@QAEXPAW4BlowWoundedState@@@Z ENDP ; CEncrypt<enum BlowWoundedState>::DecryptValueToPool
_TEXT	ENDS
PUBLIC	?_DECSTR@@YAXPADH@Z				; _DECSTR
; Function compile flags: /Ogsp
; File d:\lost saga for developer\youtube\tutorial\source\src\lsclient\stringprotect.h
;	COMDAT ?_DECSTR@@YAXPADH@Z
_TEXT	SEGMENT
_s$ = 8							; size = 4
_l$ = 12						; size = 4
?_DECSTR@@YAXPADH@Z PROC				; _DECSTR, COMDAT

; 40   : __forceinline void _DECSTR(char* s, int l){int i=0,l4=(l-1)/4,*p=(int*)s;s[l-1]=0;for(;i<l4;++i)*(p++)^=0xEAEBECED;for(i=l4*4;i<l-1;++i)s[i]^=0xED-i%4;}

  00000	55		 push	 ebp
  00001	8b ec		 mov	 ebp, esp
  00003	8b 4d 0c	 mov	 ecx, DWORD PTR _l$[ebp]
  00006	56		 push	 esi
  00007	8b 75 08	 mov	 esi, DWORD PTR _s$[ebp]
  0000a	57		 push	 edi
  0000b	8d 79 ff	 lea	 edi, DWORD PTR [ecx-1]
  0000e	8b c7		 mov	 eax, edi
  00010	99		 cdq
  00011	83 e2 03	 and	 edx, 3
  00014	03 c2		 add	 eax, edx
  00016	c1 f8 02	 sar	 eax, 2
  00019	8b d6		 mov	 edx, esi
  0001b	c6 44 0e ff 00	 mov	 BYTE PTR [esi+ecx-1], 0
  00020	85 c0		 test	 eax, eax
  00022	7e 0e		 jle	 SHORT $LN4@DECSTR
  00024	8b c8		 mov	 ecx, eax
$LL6@DECSTR:
  00026	81 32 ed ec eb
	ea		 xor	 DWORD PTR [edx], -353637139 ; eaebecedH
  0002c	83 c2 04	 add	 edx, 4
  0002f	49		 dec	 ecx
  00030	75 f4		 jne	 SHORT $LL6@DECSTR
$LN4@DECSTR:
  00032	c1 e0 02	 shl	 eax, 2
  00035	eb 17		 jmp	 SHORT $LN14@DECSTR
$LL3@DECSTR:
  00037	8b c8		 mov	 ecx, eax
  00039	81 e1 03 00 00
	80		 and	 ecx, -2147483645	; 80000003H
  0003f	79 05		 jns	 SHORT $LN13@DECSTR
  00041	49		 dec	 ecx
  00042	83 c9 fc	 or	 ecx, -4			; fffffffcH
  00045	41		 inc	 ecx
$LN13@DECSTR:
  00046	b2 ed		 mov	 dl, -19			; ffffffedH
  00048	2a d1		 sub	 dl, cl
  0004a	30 14 30	 xor	 BYTE PTR [eax+esi], dl
  0004d	40		 inc	 eax
$LN14@DECSTR:
  0004e	3b c7		 cmp	 eax, edi
  00050	7c e5		 jl	 SHORT $LL3@DECSTR
  00052	5f		 pop	 edi
  00053	5e		 pop	 esi
  00054	5d		 pop	 ebp
  00055	c3		 ret	 0
?_DECSTR@@YAXPADH@Z ENDP				; _DECSTR
_TEXT	ENDS
PUBLIC	??_R0?AVioItem@@@8				; ioItem `RTTI Type Descriptor'
PUBLIC	??_R0?AVioWeaponItem@@@8			; ioWeaponItem `RTTI Type Descriptor'
PUBLIC	?ToWeaponItem@@YAPAVioWeaponItem@@PAVioItem@@@Z	; ToWeaponItem
;	COMDAT ??_R0?AVioItem@@@8
; File d:\lost saga for developer\youtube\tutorial\source\src\lsclient\ioweaponitem.h
_DATA	SEGMENT
??_R0?AVioItem@@@8 DD FLAT:??_7type_info@@6B@		; ioItem `RTTI Type Descriptor'
	DD	00H
	DB	'.?AVioItem@@', 00H
_DATA	ENDS
;	COMDAT ??_R0?AVioWeaponItem@@@8
_DATA	SEGMENT
??_R0?AVioWeaponItem@@@8 DD FLAT:??_7type_info@@6B@	; ioWeaponItem `RTTI Type Descriptor'
	DD	00H
	DB	'.?AVioWeaponItem@@', 00H
; Function compile flags: /Ogsp
_DATA	ENDS
;	COMDAT ?ToWeaponItem@@YAPAVioWeaponItem@@PAVioItem@@@Z
_TEXT	SEGMENT
_pItem$ = 8						; size = 4
?ToWeaponItem@@YAPAVioWeaponItem@@PAVioItem@@@Z PROC	; ToWeaponItem, COMDAT

; 303  : {

  00000	55		 push	 ebp
  00001	8b ec		 mov	 ebp, esp
  00003	56		 push	 esi

; 304  : 	if( !pItem || pItem->GetType() != ioItem::IT_WEAPON )

  00004	8b 75 08	 mov	 esi, DWORD PTR _pItem$[ebp]
  00007	85 f6		 test	 esi, esi
  00009	74 25		 je	 SHORT $LN1@ToWeaponIt
  0000b	8b 06		 mov	 eax, DWORD PTR [esi]
  0000d	8b ce		 mov	 ecx, esi
  0000f	ff 50 08	 call	 DWORD PTR [eax+8]
  00012	83 f8 01	 cmp	 eax, 1
  00015	75 19		 jne	 SHORT $LN1@ToWeaponIt

; 306  : 
; 307  : 	return dynamic_cast< ioWeaponItem* >( pItem );

  00017	6a 00		 push	 0
  00019	68 00 00 00 00	 push	 OFFSET ??_R0?AVioWeaponItem@@@8
  0001e	68 00 00 00 00	 push	 OFFSET ??_R0?AVioItem@@@8
  00023	6a 00		 push	 0
  00025	56		 push	 esi
  00026	e8 00 00 00 00	 call	 ___RTDynamicCast
  0002b	83 c4 14	 add	 esp, 20			; 00000014H
  0002e	eb 02		 jmp	 SHORT $LN3@ToWeaponIt
$LN1@ToWeaponIt:

; 305  : 		return NULL;

  00030	33 c0		 xor	 eax, eax
$LN3@ToWeaponIt:
  00032	5e		 pop	 esi

; 308  : }

  00033	5d		 pop	 ebp
  00034	c3		 ret	 0
?ToWeaponItem@@YAPAVioWeaponItem@@PAVioItem@@@Z ENDP	; ToWeaponItem
; Function compile flags: /Ogsp
; File d:\lost saga for developer\youtube\tutorial\source\src\lsclient\iobuff.h
_TEXT	ENDS
;	COMDAT ?IsWaitSelfRemove@ioBuff@@UAE_NXZ
_TEXT	SEGMENT
?IsWaitSelfRemove@ioBuff@@UAE_NXZ PROC			; ioBuff::IsWaitSelfRemove, COMDAT
; _this$ = ecx

; 519  : 	virtual bool IsWaitSelfRemove() { return m_bWaitSelfRemove; }

  00000	8a 81 65 09 00
	00		 mov	 al, BYTE PTR [ecx+2405]
  00006	c3		 ret	 0
?IsWaitSelfRemove@ioBuff@@UAE_NXZ ENDP			; ioBuff::IsWaitSelfRemove
_TEXT	ENDS
PUBLIC	??_R0?AVioWitchItem@@@8				; ioWitchItem `RTTI Type Descriptor'
PUBLIC	?ToWitchItem@@YAPAVioWitchItem@@PAVioItem@@@Z	; ToWitchItem
;	COMDAT ??_R0?AVioWitchItem@@@8
; File d:\lost saga for developer\youtube\tutorial\source\src\lsclient\iowitchitem.h
_DATA	SEGMENT
??_R0?AVioWitchItem@@@8 DD FLAT:??_7type_info@@6B@	; ioWitchItem `RTTI Type Descriptor'
	DD	00H
	DB	'.?AVioWitchItem@@', 00H
; Function compile flags: /Ogsp
_DATA	ENDS
;	COMDAT ?ToWitchItem@@YAPAVioWitchItem@@PAVioItem@@@Z
_TEXT	SEGMENT
_pItem$ = 8						; size = 4
?ToWitchItem@@YAPAVioWitchItem@@PAVioItem@@@Z PROC	; ToWitchItem, COMDAT

; 171  : {

  00000	55		 push	 ebp
  00001	8b ec		 mov	 ebp, esp

; 172  : 	ioWeaponItem *pWeapon = ToWeaponItem( pItem );

  00003	ff 75 08	 push	 DWORD PTR _pItem$[ebp]
  00006	e8 00 00 00 00	 call	 ?ToWeaponItem@@YAPAVioWeaponItem@@PAVioItem@@@Z ; ToWeaponItem
  0000b	59		 pop	 ecx

; 173  : 	if( !pWeapon || pWeapon->GetSubType() != ioWeaponItem::WST_WITCH )

  0000c	85 c0		 test	 eax, eax
  0000e	74 2a		 je	 SHORT $LN1@ToWitchIte
  00010	8b 10		 mov	 edx, DWORD PTR [eax]
  00012	8b c8		 mov	 ecx, eax
  00014	ff 92 f0 02 00
	00		 call	 DWORD PTR [edx+752]
  0001a	83 f8 2e	 cmp	 eax, 46			; 0000002eH
  0001d	75 1b		 jne	 SHORT $LN1@ToWitchIte

; 175  : 
; 176  : 	return dynamic_cast< ioWitchItem* >( pItem );

  0001f	6a 00		 push	 0
  00021	68 00 00 00 00	 push	 OFFSET ??_R0?AVioWitchItem@@@8
  00026	68 00 00 00 00	 push	 OFFSET ??_R0?AVioItem@@@8
  0002b	6a 00		 push	 0
  0002d	ff 75 08	 push	 DWORD PTR _pItem$[ebp]
  00030	e8 00 00 00 00	 call	 ___RTDynamicCast
  00035	83 c4 14	 add	 esp, 20			; 00000014H

; 177  : }

  00038	5d		 pop	 ebp
  00039	c3		 ret	 0
$LN1@ToWitchIte:

; 174  : 		return NULL;

  0003a	33 c0		 xor	 eax, eax

; 177  : }

  0003c	5d		 pop	 ebp
  0003d	c3		 ret	 0
?ToWitchItem@@YAPAVioWitchItem@@PAVioItem@@@Z ENDP	; ToWitchItem
_TEXT	ENDS
PUBLIC	??_R0?AVioMechanicsItem@@@8			; ioMechanicsItem `RTTI Type Descriptor'
PUBLIC	?ToMechanicsItem@@YAPAVioMechanicsItem@@PAVioItem@@@Z ; ToMechanicsItem
;	COMDAT ??_R0?AVioMechanicsItem@@@8
; File d:\lost saga for developer\youtube\tutorial\source\src\lsclient\iomechanicsitem.h
_DATA	SEGMENT
??_R0?AVioMechanicsItem@@@8 DD FLAT:??_7type_info@@6B@	; ioMechanicsItem `RTTI Type Descriptor'
	DD	00H
	DB	'.?AVioMechanicsItem@@', 00H
; Function compile flags: /Ogsp
_DATA	ENDS
;	COMDAT ?ToMechanicsItem@@YAPAVioMechanicsItem@@PAVioItem@@@Z
_TEXT	SEGMENT
_pItem$ = 8						; size = 4
?ToMechanicsItem@@YAPAVioMechanicsItem@@PAVioItem@@@Z PROC ; ToMechanicsItem, COMDAT

; 203  : {

  00000	55		 push	 ebp
  00001	8b ec		 mov	 ebp, esp

; 204  : 	ioWeaponItem *pWeapon = ToWeaponItem( pItem );

  00003	ff 75 08	 push	 DWORD PTR _pItem$[ebp]
  00006	e8 00 00 00 00	 call	 ?ToWeaponItem@@YAPAVioWeaponItem@@PAVioItem@@@Z ; ToWeaponItem
  0000b	59		 pop	 ecx

; 205  : 	if( !pWeapon || pWeapon->GetSubType() != ioWeaponItem::WST_MECHANICS )

  0000c	85 c0		 test	 eax, eax
  0000e	74 2a		 je	 SHORT $LN1@ToMechanic
  00010	8b 10		 mov	 edx, DWORD PTR [eax]
  00012	8b c8		 mov	 ecx, eax
  00014	ff 92 f0 02 00
	00		 call	 DWORD PTR [edx+752]
  0001a	83 f8 30	 cmp	 eax, 48			; 00000030H
  0001d	75 1b		 jne	 SHORT $LN1@ToMechanic

; 207  : 
; 208  : 	return dynamic_cast< ioMechanicsItem* >( pItem );

  0001f	6a 00		 push	 0
  00021	68 00 00 00 00	 push	 OFFSET ??_R0?AVioMechanicsItem@@@8
  00026	68 00 00 00 00	 push	 OFFSET ??_R0?AVioItem@@@8
  0002b	6a 00		 push	 0
  0002d	ff 75 08	 push	 DWORD PTR _pItem$[ebp]
  00030	e8 00 00 00 00	 call	 ___RTDynamicCast
  00035	83 c4 14	 add	 esp, 20			; 00000014H

; 209  : }

  00038	5d		 pop	 ebp
  00039	c3		 ret	 0
$LN1@ToMechanic:

; 206  : 		return NULL;

  0003a	33 c0		 xor	 eax, eax

; 209  : }

  0003c	5d		 pop	 ebp
  0003d	c3		 ret	 0
?ToMechanicsItem@@YAPAVioMechanicsItem@@PAVioItem@@@Z ENDP ; ToMechanicsItem
_TEXT	ENDS
PUBLIC	??_R0?AVioMichaelItem@@@8			; ioMichaelItem `RTTI Type Descriptor'
PUBLIC	?ToMichaelItem@@YAPAVioMichaelItem@@PAVioItem@@@Z ; ToMichaelItem
;	COMDAT ??_R0?AVioMichaelItem@@@8
; File d:\lost saga for developer\youtube\tutorial\source\src\lsclient\iomichaelitem.h
_DATA	SEGMENT
??_R0?AVioMichaelItem@@@8 DD FLAT:??_7type_info@@6B@	; ioMichaelItem `RTTI Type Descriptor'
	DD	00H
	DB	'.?AVioMichaelItem@@', 00H
; Function compile flags: /Ogsp
_DATA	ENDS
;	COMDAT ?ToMichaelItem@@YAPAVioMichaelItem@@PAVioItem@@@Z
_TEXT	SEGMENT
_pItem$ = 8						; size = 4
?ToMichaelItem@@YAPAVioMichaelItem@@PAVioItem@@@Z PROC	; ToMichaelItem, COMDAT

; 222  : {

  00000	55		 push	 ebp
  00001	8b ec		 mov	 ebp, esp

; 223  : 	ioWeaponItem *pWeapon = ToWeaponItem( pItem );

  00003	ff 75 08	 push	 DWORD PTR _pItem$[ebp]
  00006	e8 00 00 00 00	 call	 ?ToWeaponItem@@YAPAVioWeaponItem@@PAVioItem@@@Z ; ToWeaponItem
  0000b	59		 pop	 ecx

; 224  : 	if( !pWeapon || pWeapon->GetSubType() != ioWeaponItem::WST_MICHAEL )

  0000c	85 c0		 test	 eax, eax
  0000e	74 2a		 je	 SHORT $LN1@ToMichaelI
  00010	8b 10		 mov	 edx, DWORD PTR [eax]
  00012	8b c8		 mov	 ecx, eax
  00014	ff 92 f0 02 00
	00		 call	 DWORD PTR [edx+752]
  0001a	83 f8 3c	 cmp	 eax, 60			; 0000003cH
  0001d	75 1b		 jne	 SHORT $LN1@ToMichaelI

; 226  : 
; 227  : 	return dynamic_cast< ioMichaelItem* >( pItem );

  0001f	6a 00		 push	 0
  00021	68 00 00 00 00	 push	 OFFSET ??_R0?AVioMichaelItem@@@8
  00026	68 00 00 00 00	 push	 OFFSET ??_R0?AVioItem@@@8
  0002b	6a 00		 push	 0
  0002d	ff 75 08	 push	 DWORD PTR _pItem$[ebp]
  00030	e8 00 00 00 00	 call	 ___RTDynamicCast
  00035	83 c4 14	 add	 esp, 20			; 00000014H

; 228  : }

  00038	5d		 pop	 ebp
  00039	c3		 ret	 0
$LN1@ToMichaelI:

; 225  : 		return NULL;

  0003a	33 c0		 xor	 eax, eax

; 228  : }

  0003c	5d		 pop	 ebp
  0003d	c3		 ret	 0
?ToMichaelItem@@YAPAVioMichaelItem@@PAVioItem@@@Z ENDP	; ToMichaelItem
_TEXT	ENDS
PUBLIC	??_R0?AVioPhantomItem@@@8			; ioPhantomItem `RTTI Type Descriptor'
PUBLIC	?ToPhantomItem@@YAPAVioPhantomItem@@PAVioItem@@@Z ; ToPhantomItem
;	COMDAT ??_R0?AVioPhantomItem@@@8
; File d:\lost saga for developer\youtube\tutorial\source\src\lsclient\iophantomitem.h
_DATA	SEGMENT
??_R0?AVioPhantomItem@@@8 DD FLAT:??_7type_info@@6B@	; ioPhantomItem `RTTI Type Descriptor'
	DD	00H
	DB	'.?AVioPhantomItem@@', 00H
; Function compile flags: /Ogsp
_DATA	ENDS
;	COMDAT ?ToPhantomItem@@YAPAVioPhantomItem@@PAVioItem@@@Z
_TEXT	SEGMENT
_pItem$ = 8						; size = 4
?ToPhantomItem@@YAPAVioPhantomItem@@PAVioItem@@@Z PROC	; ToPhantomItem, COMDAT

; 233  : {

  00000	55		 push	 ebp
  00001	8b ec		 mov	 ebp, esp

; 234  : 	ioWeaponItem *pWeapon = ToWeaponItem( pItem );

  00003	ff 75 08	 push	 DWORD PTR _pItem$[ebp]
  00006	e8 00 00 00 00	 call	 ?ToWeaponItem@@YAPAVioWeaponItem@@PAVioItem@@@Z ; ToWeaponItem
  0000b	59		 pop	 ecx

; 235  : 	if( !pWeapon || pWeapon->GetSubType() != ioWeaponItem::WST_PHANTOM )

  0000c	85 c0		 test	 eax, eax
  0000e	74 2a		 je	 SHORT $LN1@ToPhantomI
  00010	8b 10		 mov	 edx, DWORD PTR [eax]
  00012	8b c8		 mov	 ecx, eax
  00014	ff 92 f0 02 00
	00		 call	 DWORD PTR [edx+752]
  0001a	83 f8 35	 cmp	 eax, 53			; 00000035H
  0001d	75 1b		 jne	 SHORT $LN1@ToPhantomI

; 237  : 
; 238  : 	return dynamic_cast< ioPhantomItem* >( pItem );

  0001f	6a 00		 push	 0
  00021	68 00 00 00 00	 push	 OFFSET ??_R0?AVioPhantomItem@@@8
  00026	68 00 00 00 00	 push	 OFFSET ??_R0?AVioItem@@@8
  0002b	6a 00		 push	 0
  0002d	ff 75 08	 push	 DWORD PTR _pItem$[ebp]
  00030	e8 00 00 00 00	 call	 ___RTDynamicCast
  00035	83 c4 14	 add	 esp, 20			; 00000014H

; 239  : }

  00038	5d		 pop	 ebp
  00039	c3		 ret	 0
$LN1@ToPhantomI:

; 236  : 		return NULL;

  0003a	33 c0		 xor	 eax, eax

; 239  : }

  0003c	5d		 pop	 ebp
  0003d	c3		 ret	 0
?ToPhantomItem@@YAPAVioPhantomItem@@PAVioItem@@@Z ENDP	; ToPhantomItem
_TEXT	ENDS
PUBLIC	??_R0?AVioLuciferItem@@@8			; ioLuciferItem `RTTI Type Descriptor'
PUBLIC	?ToLuciferItem@@YAPAVioLuciferItem@@PAVioItem@@@Z ; ToLuciferItem
;	COMDAT ??_R0?AVioLuciferItem@@@8
; File d:\lost saga for developer\youtube\tutorial\source\src\lsclient\ioluciferitem.h
_DATA	SEGMENT
??_R0?AVioLuciferItem@@@8 DD FLAT:??_7type_info@@6B@	; ioLuciferItem `RTTI Type Descriptor'
	DD	00H
	DB	'.?AVioLuciferItem@@', 00H
; Function compile flags: /Ogsp
_DATA	ENDS
;	COMDAT ?ToLuciferItem@@YAPAVioLuciferItem@@PAVioItem@@@Z
_TEXT	SEGMENT
_pItem$ = 8						; size = 4
?ToLuciferItem@@YAPAVioLuciferItem@@PAVioItem@@@Z PROC	; ToLuciferItem, COMDAT

; 292  : {

  00000	55		 push	 ebp
  00001	8b ec		 mov	 ebp, esp

; 293  : 	ioWeaponItem *pWeapon = ToWeaponItem( pItem );

  00003	ff 75 08	 push	 DWORD PTR _pItem$[ebp]
  00006	e8 00 00 00 00	 call	 ?ToWeaponItem@@YAPAVioWeaponItem@@PAVioItem@@@Z ; ToWeaponItem
  0000b	59		 pop	 ecx

; 294  : 	if( !pWeapon || pWeapon->GetSubType() != ioWeaponItem::WST_LUCIFER )

  0000c	85 c0		 test	 eax, eax
  0000e	74 2a		 je	 SHORT $LN1@ToLuciferI
  00010	8b 10		 mov	 edx, DWORD PTR [eax]
  00012	8b c8		 mov	 ecx, eax
  00014	ff 92 f0 02 00
	00		 call	 DWORD PTR [edx+752]
  0001a	83 f8 38	 cmp	 eax, 56			; 00000038H
  0001d	75 1b		 jne	 SHORT $LN1@ToLuciferI

; 296  : 
; 297  : 	return dynamic_cast< ioLuciferItem* >( pItem );

  0001f	6a 00		 push	 0
  00021	68 00 00 00 00	 push	 OFFSET ??_R0?AVioLuciferItem@@@8
  00026	68 00 00 00 00	 push	 OFFSET ??_R0?AVioItem@@@8
  0002b	6a 00		 push	 0
  0002d	ff 75 08	 push	 DWORD PTR _pItem$[ebp]
  00030	e8 00 00 00 00	 call	 ___RTDynamicCast
  00035	83 c4 14	 add	 esp, 20			; 00000014H

; 298  : }

  00038	5d		 pop	 ebp
  00039	c3		 ret	 0
$LN1@ToLuciferI:

; 295  : 		return NULL;

  0003a	33 c0		 xor	 eax, eax

; 298  : }

  0003c	5d		 pop	 ebp
  0003d	c3		 ret	 0
?ToLuciferItem@@YAPAVioLuciferItem@@PAVioItem@@@Z ENDP	; ToLuciferItem
_TEXT	ENDS
PUBLIC	??_R0?AVioNakoruruItem@@@8			; ioNakoruruItem `RTTI Type Descriptor'
PUBLIC	?ToNakoruruItem@@YAPAVioNakoruruItem@@PAVioItem@@@Z ; ToNakoruruItem
;	COMDAT ??_R0?AVioNakoruruItem@@@8
; File d:\lost saga for developer\youtube\tutorial\source\src\lsclient\ionakoruruitem.h
_DATA	SEGMENT
??_R0?AVioNakoruruItem@@@8 DD FLAT:??_7type_info@@6B@	; ioNakoruruItem `RTTI Type Descriptor'
	DD	00H
	DB	'.?AVioNakoruruItem@@', 00H
; Function compile flags: /Ogsp
_DATA	ENDS
;	COMDAT ?ToNakoruruItem@@YAPAVioNakoruruItem@@PAVioItem@@@Z
_TEXT	SEGMENT
_pItem$ = 8						; size = 4
?ToNakoruruItem@@YAPAVioNakoruruItem@@PAVioItem@@@Z PROC ; ToNakoruruItem, COMDAT

; 184  : {

  00000	55		 push	 ebp
  00001	8b ec		 mov	 ebp, esp

; 185  : 	ioWeaponItem *pWeapon = ToWeaponItem( pItem );

  00003	ff 75 08	 push	 DWORD PTR _pItem$[ebp]
  00006	e8 00 00 00 00	 call	 ?ToWeaponItem@@YAPAVioWeaponItem@@PAVioItem@@@Z ; ToWeaponItem
  0000b	59		 pop	 ecx

; 186  : 	if( !pWeapon || pWeapon->GetSubType() != ioWeaponItem::WST_NAKORURU )

  0000c	85 c0		 test	 eax, eax
  0000e	74 2a		 je	 SHORT $LN1@ToNakoruru
  00010	8b 10		 mov	 edx, DWORD PTR [eax]
  00012	8b c8		 mov	 ecx, eax
  00014	ff 92 f0 02 00
	00		 call	 DWORD PTR [edx+752]
  0001a	83 f8 3a	 cmp	 eax, 58			; 0000003aH
  0001d	75 1b		 jne	 SHORT $LN1@ToNakoruru

; 188  : 
; 189  : 	return dynamic_cast< ioNakoruruItem* >( pItem );

  0001f	6a 00		 push	 0
  00021	68 00 00 00 00	 push	 OFFSET ??_R0?AVioNakoruruItem@@@8
  00026	68 00 00 00 00	 push	 OFFSET ??_R0?AVioItem@@@8
  0002b	6a 00		 push	 0
  0002d	ff 75 08	 push	 DWORD PTR _pItem$[ebp]
  00030	e8 00 00 00 00	 call	 ___RTDynamicCast
  00035	83 c4 14	 add	 esp, 20			; 00000014H

; 190  : }

  00038	5d		 pop	 ebp
  00039	c3		 ret	 0
$LN1@ToNakoruru:

; 187  : 		return NULL;

  0003a	33 c0		 xor	 eax, eax

; 190  : }

  0003c	5d		 pop	 ebp
  0003d	c3		 ret	 0
?ToNakoruruItem@@YAPAVioNakoruruItem@@PAVioItem@@@Z ENDP ; ToNakoruruItem
_TEXT	ENDS
PUBLIC	??_R0?AVioDestroyerItem@@@8			; ioDestroyerItem `RTTI Type Descriptor'
PUBLIC	?ToDestroyerItem@@YAPAVioDestroyerItem@@PAVioItem@@@Z ; ToDestroyerItem
;	COMDAT ??_R0?AVioDestroyerItem@@@8
; File d:\lost saga for developer\youtube\tutorial\source\src\lsclient\iodestroyeritem.h
_DATA	SEGMENT
??_R0?AVioDestroyerItem@@@8 DD FLAT:??_7type_info@@6B@	; ioDestroyerItem `RTTI Type Descriptor'
	DD	00H
	DB	'.?AVioDestroyerItem@@', 00H
; Function compile flags: /Ogsp
_DATA	ENDS
;	COMDAT ?ToDestroyerItem@@YAPAVioDestroyerItem@@PAVioItem@@@Z
_TEXT	SEGMENT
_pItem$ = 8						; size = 4
?ToDestroyerItem@@YAPAVioDestroyerItem@@PAVioItem@@@Z PROC ; ToDestroyerItem, COMDAT

; 267  : {

  00000	55		 push	 ebp
  00001	8b ec		 mov	 ebp, esp

; 268  : 	ioWeaponItem *pWeapon = ToWeaponItem( pItem );

  00003	ff 75 08	 push	 DWORD PTR _pItem$[ebp]
  00006	e8 00 00 00 00	 call	 ?ToWeaponItem@@YAPAVioWeaponItem@@PAVioItem@@@Z ; ToWeaponItem
  0000b	59		 pop	 ecx

; 269  : 	if( !pWeapon || pWeapon->GetSubType() != ioWeaponItem::WST_DESTROYER )

  0000c	85 c0		 test	 eax, eax
  0000e	74 2a		 je	 SHORT $LN1@ToDestroye
  00010	8b 10		 mov	 edx, DWORD PTR [eax]
  00012	8b c8		 mov	 ecx, eax
  00014	ff 92 f0 02 00
	00		 call	 DWORD PTR [edx+752]
  0001a	83 f8 3b	 cmp	 eax, 59			; 0000003bH
  0001d	75 1b		 jne	 SHORT $LN1@ToDestroye

; 271  : 
; 272  : 	return dynamic_cast< ioDestroyerItem* >( pItem );

  0001f	6a 00		 push	 0
  00021	68 00 00 00 00	 push	 OFFSET ??_R0?AVioDestroyerItem@@@8
  00026	68 00 00 00 00	 push	 OFFSET ??_R0?AVioItem@@@8
  0002b	6a 00		 push	 0
  0002d	ff 75 08	 push	 DWORD PTR _pItem$[ebp]
  00030	e8 00 00 00 00	 call	 ___RTDynamicCast
  00035	83 c4 14	 add	 esp, 20			; 00000014H

; 273  : }

  00038	5d		 pop	 ebp
  00039	c3		 ret	 0
$LN1@ToDestroye:

; 270  : 		return NULL;

  0003a	33 c0		 xor	 eax, eax

; 273  : }

  0003c	5d		 pop	 ebp
  0003d	c3		 ret	 0
?ToDestroyerItem@@YAPAVioDestroyerItem@@PAVioItem@@@Z ENDP ; ToDestroyerItem
_TEXT	ENDS
PUBLIC	??_R0?AVioDevilItem@@@8				; ioDevilItem `RTTI Type Descriptor'
PUBLIC	?ToDevilItem@@YAPAVioDevilItem@@PAVioItem@@@Z	; ToDevilItem
;	COMDAT ??_R0?AVioDevilItem@@@8
; File d:\lost saga for developer\youtube\tutorial\source\src\lsclient\iodevilitem.h
_DATA	SEGMENT
??_R0?AVioDevilItem@@@8 DD FLAT:??_7type_info@@6B@	; ioDevilItem `RTTI Type Descriptor'
	DD	00H
	DB	'.?AVioDevilItem@@', 00H
; Function compile flags: /Ogsp
_DATA	ENDS
;	COMDAT ?ToDevilItem@@YAPAVioDevilItem@@PAVioItem@@@Z
_TEXT	SEGMENT
_pItem$ = 8						; size = 4
?ToDevilItem@@YAPAVioDevilItem@@PAVioItem@@@Z PROC	; ToDevilItem, COMDAT

; 200  : {

  00000	55		 push	 ebp
  00001	8b ec		 mov	 ebp, esp

; 201  : 	ioWeaponItem *pWeapon = ToWeaponItem( pItem );

  00003	ff 75 08	 push	 DWORD PTR _pItem$[ebp]
  00006	e8 00 00 00 00	 call	 ?ToWeaponItem@@YAPAVioWeaponItem@@PAVioItem@@@Z ; ToWeaponItem
  0000b	59		 pop	 ecx

; 202  : 	if( !pWeapon || pWeapon->GetSubType() != ioWeaponItem::WST_DEVIL)

  0000c	85 c0		 test	 eax, eax
  0000e	74 2a		 je	 SHORT $LN1@ToDevilIte
  00010	8b 10		 mov	 edx, DWORD PTR [eax]
  00012	8b c8		 mov	 ecx, eax
  00014	ff 92 f0 02 00
	00		 call	 DWORD PTR [edx+752]
  0001a	83 f8 4d	 cmp	 eax, 77			; 0000004dH
  0001d	75 1b		 jne	 SHORT $LN1@ToDevilIte

; 204  : 
; 205  : 	return dynamic_cast< ioDevilItem* >( pItem );

  0001f	6a 00		 push	 0
  00021	68 00 00 00 00	 push	 OFFSET ??_R0?AVioDevilItem@@@8
  00026	68 00 00 00 00	 push	 OFFSET ??_R0?AVioItem@@@8
  0002b	6a 00		 push	 0
  0002d	ff 75 08	 push	 DWORD PTR _pItem$[ebp]
  00030	e8 00 00 00 00	 call	 ___RTDynamicCast
  00035	83 c4 14	 add	 esp, 20			; 00000014H

; 206  : }

  00038	5d		 pop	 ebp
  00039	c3		 ret	 0
$LN1@ToDevilIte:

; 203  : 		return NULL;

  0003a	33 c0		 xor	 eax, eax

; 206  : }

  0003c	5d		 pop	 ebp
  0003d	c3		 ret	 0
?ToDevilItem@@YAPAVioDevilItem@@PAVioItem@@@Z ENDP	; ToDevilItem
_TEXT	ENDS
PUBLIC	??_R0?AVioMephistoItem@@@8			; ioMephistoItem `RTTI Type Descriptor'
PUBLIC	?ToMephistoItem@@YAPAVioMephistoItem@@PAVioItem@@@Z ; ToMephistoItem
;	COMDAT ??_R0?AVioMephistoItem@@@8
; File d:\lost saga for developer\youtube\tutorial\source\src\lsclient\iomephistoitem.h
_DATA	SEGMENT
??_R0?AVioMephistoItem@@@8 DD FLAT:??_7type_info@@6B@	; ioMephistoItem `RTTI Type Descriptor'
	DD	00H
	DB	'.?AVioMephistoItem@@', 00H
; Function compile flags: /Ogsp
_DATA	ENDS
;	COMDAT ?ToMephistoItem@@YAPAVioMephistoItem@@PAVioItem@@@Z
_TEXT	SEGMENT
_pItem$ = 8						; size = 4
?ToMephistoItem@@YAPAVioMephistoItem@@PAVioItem@@@Z PROC ; ToMephistoItem, COMDAT

; 251  : {

  00000	55		 push	 ebp
  00001	8b ec		 mov	 ebp, esp

; 252  : 	ioWeaponItem *pWeapon = ToWeaponItem( pItem );

  00003	ff 75 08	 push	 DWORD PTR _pItem$[ebp]
  00006	e8 00 00 00 00	 call	 ?ToWeaponItem@@YAPAVioWeaponItem@@PAVioItem@@@Z ; ToWeaponItem
  0000b	59		 pop	 ecx

; 253  : 	if( !pWeapon || pWeapon->GetSubType() != ioWeaponItem::WST_MEPHISTO )

  0000c	85 c0		 test	 eax, eax
  0000e	74 2c		 je	 SHORT $LN1@ToMephisto
  00010	8b 10		 mov	 edx, DWORD PTR [eax]
  00012	8b c8		 mov	 ecx, eax
  00014	ff 92 f0 02 00
	00		 call	 DWORD PTR [edx+752]
  0001a	3d 96 00 00 00	 cmp	 eax, 150		; 00000096H
  0001f	75 1b		 jne	 SHORT $LN1@ToMephisto

; 255  : 
; 256  : 	return dynamic_cast< ioMephistoItem* >( pItem );

  00021	6a 00		 push	 0
  00023	68 00 00 00 00	 push	 OFFSET ??_R0?AVioMephistoItem@@@8
  00028	68 00 00 00 00	 push	 OFFSET ??_R0?AVioItem@@@8
  0002d	6a 00		 push	 0
  0002f	ff 75 08	 push	 DWORD PTR _pItem$[ebp]
  00032	e8 00 00 00 00	 call	 ___RTDynamicCast
  00037	83 c4 14	 add	 esp, 20			; 00000014H

; 257  : }

  0003a	5d		 pop	 ebp
  0003b	c3		 ret	 0
$LN1@ToMephisto:

; 254  : 		return NULL;

  0003c	33 c0		 xor	 eax, eax

; 257  : }

  0003e	5d		 pop	 ebp
  0003f	c3		 ret	 0
?ToMephistoItem@@YAPAVioMephistoItem@@PAVioItem@@@Z ENDP ; ToMephistoItem
; Function compile flags: /Ogsp
_TEXT	ENDS
;	COMDAT ??_GioHide2Buff@@UAEPAXI@Z
_TEXT	SEGMENT
___flags$ = 8						; size = 4
??_GioHide2Buff@@UAEPAXI@Z PROC				; ioHide2Buff::`scalar deleting destructor', COMDAT
; _this$ = ecx
  00000	55		 push	 ebp
  00001	8b ec		 mov	 ebp, esp
  00003	56		 push	 esi
  00004	8b f1		 mov	 esi, ecx
  00006	c7 06 00 00 00
	00		 mov	 DWORD PTR [esi], OFFSET ??_7ioHide2Buff@@6B@
  0000c	e8 00 00 00 00	 call	 ??1ioBuff@@UAE@XZ	; ioBuff::~ioBuff
  00011	f6 45 08 01	 test	 BYTE PTR ___flags$[ebp], 1
  00015	74 07		 je	 SHORT $LN1@scalar
  00017	56		 push	 esi
  00018	e8 00 00 00 00	 call	 ??3@YAXPAX@Z		; operator delete
  0001d	59		 pop	 ecx
$LN1@scalar:
  0001e	8b c6		 mov	 eax, esi
  00020	5e		 pop	 esi
  00021	5d		 pop	 ebp
  00022	c2 04 00	 ret	 4
??_GioHide2Buff@@UAEPAXI@Z ENDP				; ioHide2Buff::`scalar deleting destructor'
_TEXT	ENDS
PUBLIC	__real@3f800000
EXTRN	__imp_?GetLoopSec@ioFrameTimer@@QBEKXZ:PROC
EXTRN	__imp_?GetSingleton@ioFrameTimer@@SAAAV1@XZ:PROC
EXTRN	?SetExtraMoveSpeed@ioBaseChar@@QAEXMM@Z:PROC	; ioBaseChar::SetExtraMoveSpeed
EXTRN	?StartBuff@ioBuff@@UAEXPAVioBaseChar@@@Z:PROC	; ioBuff::StartBuff
;	COMDAT __real@3f800000
; File d:\lost saga for developer\youtube\tutorial\source\src\lsclient\iohide2buff.cpp
CONST	SEGMENT
__real@3f800000 DD 03f800000r			; 1
; Function compile flags: /Ogsp
CONST	ENDS
;	COMDAT ?StartBuff@ioHide2Buff@@UAEXPAVioBaseChar@@@Z
_TEXT	SEGMENT
_pOwner$ = 8						; size = 4
?StartBuff@ioHide2Buff@@UAEXPAVioBaseChar@@@Z PROC	; ioHide2Buff::StartBuff, COMDAT
; _this$ = ecx

; 47   : {

  00000	55		 push	 ebp
  00001	8b ec		 mov	 ebp, esp
  00003	56		 push	 esi

; 48   : 	ioBuff::StartBuff( pOwner );

  00004	ff 75 08	 push	 DWORD PTR _pOwner$[ebp]
  00007	8b f1		 mov	 esi, ecx
  00009	e8 00 00 00 00	 call	 ?StartBuff@ioBuff@@UAEXPAVioBaseChar@@@Z ; ioBuff::StartBuff

; 49   : 
; 50   : 	SetHide( true );

  0000e	6a 01		 push	 1
  00010	8b ce		 mov	 ecx, esi
  00012	e8 00 00 00 00	 call	 ?SetHide@ioHide2Buff@@IAEX_N@Z ; ioHide2Buff::SetHide

; 51   : 
; 52   : 	m_fCurSpeed = m_fAddSpeed;

  00017	f3 0f 10 86 70
	09 00 00	 movss	 xmm0, DWORD PTR [esi+2416]

; 53   : 	pOwner->SetExtraMoveSpeed( m_fCurSpeed );

  0001f	f3 0f 10 0d 00
	00 00 00	 movss	 xmm1, DWORD PTR __real@3f800000
  00027	51		 push	 ecx
  00028	51		 push	 ecx
  00029	8b 4d 08	 mov	 ecx, DWORD PTR _pOwner$[ebp]
  0002c	f3 0f 11 4c 24
	04		 movss	 DWORD PTR [esp+4], xmm1
  00032	f3 0f 11 86 74
	09 00 00	 movss	 DWORD PTR [esi+2420], xmm0
  0003a	f3 0f 11 04 24	 movss	 DWORD PTR [esp], xmm0
  0003f	e8 00 00 00 00	 call	 ?SetExtraMoveSpeed@ioBaseChar@@QAEXMM@Z ; ioBaseChar::SetExtraMoveSpeed

; 54   : 	m_dwStartTime = FRAMEGETTIME();

  00044	ff 15 00 00 00
	00		 call	 DWORD PTR __imp_?GetSingleton@ioFrameTimer@@SAAAV1@XZ
  0004a	8b c8		 mov	 ecx, eax
  0004c	ff 15 00 00 00
	00		 call	 DWORD PTR __imp_?GetLoopSec@ioFrameTimer@@QBEKXZ
  00052	89 86 78 09 00
	00		 mov	 DWORD PTR [esi+2424], eax
  00058	5e		 pop	 esi

; 55   : }

  00059	5d		 pop	 ebp
  0005a	c2 04 00	 ret	 4
?StartBuff@ioHide2Buff@@UAEXPAVioBaseChar@@@Z ENDP	; ioHide2Buff::StartBuff
_TEXT	ENDS
EXTRN	?ApplyStartBuff@ioBuff@@UAE_NPAVioBaseChar@@KK@Z:PROC ; ioBuff::ApplyStartBuff
; Function compile flags: /Ogsp
;	COMDAT ?ApplyStartBuff@ioHide2Buff@@UAE_NPAVioBaseChar@@KK@Z
_TEXT	SEGMENT
_pOwner$ = 8						; size = 4
_dwGlobalTime$ = 12					; size = 4
_dwGapTime$ = 16					; size = 4
?ApplyStartBuff@ioHide2Buff@@UAE_NPAVioBaseChar@@KK@Z PROC ; ioHide2Buff::ApplyStartBuff, COMDAT
; _this$ = ecx

; 58   : {

  00000	55		 push	 ebp
  00001	8b ec		 mov	 ebp, esp
  00003	56		 push	 esi

; 59   : 	if( !ioBuff::ApplyStartBuff( pOwner, dwGlobalTime, dwGapTime ) )

  00004	ff 75 10	 push	 DWORD PTR _dwGapTime$[ebp]
  00007	8b f1		 mov	 esi, ecx
  00009	ff 75 0c	 push	 DWORD PTR _dwGlobalTime$[ebp]
  0000c	ff 75 08	 push	 DWORD PTR _pOwner$[ebp]
  0000f	e8 00 00 00 00	 call	 ?ApplyStartBuff@ioBuff@@UAE_NPAVioBaseChar@@KK@Z ; ioBuff::ApplyStartBuff
  00014	84 c0		 test	 al, al
  00016	74 4c		 je	 SHORT $LN2@ApplyStart
$LN1@ApplyStart:

; 60   : 		return false;
; 61   : 
; 62   : 	SetHide( true );

  00018	6a 01		 push	 1
  0001a	8b ce		 mov	 ecx, esi
  0001c	e8 00 00 00 00	 call	 ?SetHide@ioHide2Buff@@IAEX_N@Z ; ioHide2Buff::SetHide

; 63   : 
; 64   : 	m_fCurSpeed = m_fAddSpeed;

  00021	f3 0f 10 86 70
	09 00 00	 movss	 xmm0, DWORD PTR [esi+2416]

; 65   : 	pOwner->SetExtraMoveSpeed( m_fCurSpeed );

  00029	f3 0f 10 0d 00
	00 00 00	 movss	 xmm1, DWORD PTR __real@3f800000
  00031	51		 push	 ecx
  00032	51		 push	 ecx
  00033	8b 4d 08	 mov	 ecx, DWORD PTR _pOwner$[ebp]
  00036	f3 0f 11 4c 24
	04		 movss	 DWORD PTR [esp+4], xmm1
  0003c	f3 0f 11 86 74
	09 00 00	 movss	 DWORD PTR [esi+2420], xmm0
  00044	f3 0f 11 04 24	 movss	 DWORD PTR [esp], xmm0
  00049	e8 00 00 00 00	 call	 ?SetExtraMoveSpeed@ioBaseChar@@QAEXMM@Z ; ioBaseChar::SetExtraMoveSpeed

; 66   : 	m_dwStartTime = FRAMEGETTIME();

  0004e	ff 15 00 00 00
	00		 call	 DWORD PTR __imp_?GetSingleton@ioFrameTimer@@SAAAV1@XZ
  00054	8b c8		 mov	 ecx, eax
  00056	ff 15 00 00 00
	00		 call	 DWORD PTR __imp_?GetLoopSec@ioFrameTimer@@QBEKXZ
  0005c	89 86 78 09 00
	00		 mov	 DWORD PTR [esi+2424], eax

; 67   : 	
; 68   : 	return true;

  00062	b0 01		 mov	 al, 1
$LN2@ApplyStart:
  00064	5e		 pop	 esi

; 69   : }

  00065	5d		 pop	 ebp
  00066	c2 0c 00	 ret	 12			; 0000000cH
?ApplyStartBuff@ioHide2Buff@@UAE_NPAVioBaseChar@@KK@Z ENDP ; ioHide2Buff::ApplyStartBuff
_TEXT	ENDS
EXTRN	?EndBuff@ioBuff@@UAEXXZ:PROC			; ioBuff::EndBuff
EXTRN	?SetState@ioBaseChar@@QAEXH_N@Z:PROC		; ioBaseChar::SetState
EXTRN	?RemoveExtraMoveSpeed@ioBaseChar@@QAEXM@Z:PROC	; ioBaseChar::RemoveExtraMoveSpeed
; Function compile flags: /Ogsp
;	COMDAT ?EndBuff@ioHide2Buff@@UAEXXZ
_TEXT	SEGMENT
?EndBuff@ioHide2Buff@@UAEXXZ PROC			; ioHide2Buff::EndBuff, COMDAT
; _this$ = ecx

; 100  : {

  00000	56		 push	 esi
  00001	57		 push	 edi

; 101  : 	SetHide( false );

  00002	6a 00		 push	 0
  00004	8b f1		 mov	 esi, ecx
  00006	e8 00 00 00 00	 call	 ?SetHide@ioHide2Buff@@IAEX_N@Z ; ioHide2Buff::SetHide

; 102  : 	m_pOwner->RemoveExtraMoveSpeed( m_fCurSpeed );

  0000b	f3 0f 10 86 74
	09 00 00	 movss	 xmm0, DWORD PTR [esi+2420]
  00013	51		 push	 ecx
  00014	8b 8e 74 02 00
	00		 mov	 ecx, DWORD PTR [esi+628]
  0001a	f3 0f 11 04 24	 movss	 DWORD PTR [esp], xmm0
  0001f	e8 00 00 00 00	 call	 ?RemoveExtraMoveSpeed@ioBaseChar@@QAEXM@Z ; ioBaseChar::RemoveExtraMoveSpeed

; 103  : 
; 104  : 	if( m_pOwner->GetState() == CS_DELAY )

  00024	8b 8e 74 02 00
	00		 mov	 ecx, DWORD PTR [esi+628]
  0002a	8a 81 10 03 00
	00		 mov	 al, BYTE PTR [ecx+784]
  00030	84 c0		 test	 al, al
  00032	75 0c		 jne	 SHORT $LN3@EndBuff

; 105  : 	{
; 106  : 		m_pOwner->SetState( CS_DELAY, m_bSendDelayNetWork );

  00034	0f b6 86 f9 08
	00 00		 movzx	 eax, BYTE PTR [esi+2297]
  0003b	50		 push	 eax
  0003c	6a 00		 push	 0
  0003e	eb 08		 jmp	 SHORT $LN12@EndBuff
$LN3@EndBuff:

; 107  : 	}
; 108  : 	else if( m_pOwner->GetState() == CS_RUN )

  00040	3c 01		 cmp	 al, 1
  00042	75 09		 jne	 SHORT $LN1@EndBuff

; 109  : 	{
; 110  : 		m_pOwner->SetState( CS_RUN );

  00044	6a 01		 push	 1
  00046	6a 01		 push	 1
$LN12@EndBuff:
  00048	e8 00 00 00 00	 call	 ?SetState@ioBaseChar@@QAEXH_N@Z ; ioBaseChar::SetState
$LN1@EndBuff:
  0004d	5f		 pop	 edi

; 111  : 	}
; 112  : 
; 113  : 	ioBuff::EndBuff();

  0004e	8b ce		 mov	 ecx, esi
  00050	5e		 pop	 esi
  00051	e9 00 00 00 00	 jmp	 ?EndBuff@ioBuff@@UAEXXZ	; ioBuff::EndBuff
?EndBuff@ioHide2Buff@@UAEXXZ ENDP			; ioHide2Buff::EndBuff
_TEXT	ENDS
PUBLIC	?CheckHideCharOnFlyState@ioHide2Buff@@IAE_NXZ	; ioHide2Buff::CheckHideCharOnFlyState
EXTRN	?IsFlyState@ioMephistoItem@@QAE_NXZ:PROC	; ioMephistoItem::IsFlyState
EXTRN	?GetPriorityItem@ioBaseChar@@QBEPAVioAttackableItem@@W4StatePriorityType@@@Z:PROC ; ioBaseChar::GetPriorityItem
EXTRN	?GetOwner@ioBuff@@QAEPAVioBaseChar@@XZ:PROC	; ioBuff::GetOwner
; Function compile flags: /Ogsp
;	COMDAT ?CheckHideCharOnFlyState@ioHide2Buff@@IAE_NXZ
_TEXT	SEGMENT
_bHideChar$ = -1					; size = 1
?CheckHideCharOnFlyState@ioHide2Buff@@IAE_NXZ PROC	; ioHide2Buff::CheckHideCharOnFlyState, COMDAT
; _this$ = ecx

; 269  : {

  00000	55		 push	 ebp
  00001	8b ec		 mov	 ebp, esp
  00003	51		 push	 ecx

; 270  : 	ioBaseChar *pOwner = GetOwner();

  00004	e8 00 00 00 00	 call	 ?GetOwner@ioBuff@@QAEPAVioBaseChar@@XZ ; ioBuff::GetOwner

; 271  : 	if( !pOwner )

  00009	85 c0		 test	 eax, eax
  0000b	75 04		 jne	 SHORT $LN14@CheckHideC
$LN52@CheckHideC:

; 272  : 		return false;

  0000d	32 c0		 xor	 al, al

; 337  : }

  0000f	c9		 leave
  00010	c3		 ret	 0
$LN14@CheckHideC:
  00011	53		 push	 ebx
  00012	56		 push	 esi

; 273  : 	
; 274  : 	bool bHideChar = true;
; 275  : 	
; 276  : 	ioAttackableItem *pItem = pOwner->GetPriorityItem( SPT_ATTACK );

  00013	6a 05		 push	 5
  00015	5b		 pop	 ebx
  00016	53		 push	 ebx
  00017	8b c8		 mov	 ecx, eax
  00019	c6 45 ff 01	 mov	 BYTE PTR _bHideChar$[ebp], 1
  0001d	e8 00 00 00 00	 call	 ?GetPriorityItem@ioBaseChar@@QBEPAVioAttackableItem@@W4StatePriorityType@@@Z ; ioBaseChar::GetPriorityItem
  00022	8b f0		 mov	 esi, eax

; 277  : 
; 278  : 	// 
; 279  : 	ioWitchItem *pWitch = ToWitchItem( pItem );

  00024	56		 push	 esi
  00025	e8 00 00 00 00	 call	 ?ToWitchItem@@YAPAVioWitchItem@@PAVioItem@@@Z ; ToWitchItem
  0002a	59		 pop	 ecx

; 280  : 	if( pWitch && pWitch->GetWitchFlyState() == ioWitchItem::WFS_ATTACK )

  0002b	85 c0		 test	 eax, eax
  0002d	74 0c		 je	 SHORT $LN13@CheckHideC
  0002f	39 98 68 19 00
	00		 cmp	 DWORD PTR [eax+6504], ebx
  00035	75 04		 jne	 SHORT $LN13@CheckHideC

; 281  : 		bHideChar = false;

  00037	c6 45 ff 00	 mov	 BYTE PTR _bHideChar$[ebp], 0
$LN13@CheckHideC:

; 282  : 
; 283  : 	// 
; 284  : 	ioMechanicsItem *pMechanics = ToMechanicsItem( pItem );

  0003b	56		 push	 esi
  0003c	e8 00 00 00 00	 call	 ?ToMechanicsItem@@YAPAVioMechanicsItem@@PAVioItem@@@Z ; ToMechanicsItem
  00041	59		 pop	 ecx

; 285  : 	if( pMechanics && pMechanics->GetMechanicsFlyState() == ioMechanicsItem::MFS_ATTACK )

  00042	85 c0		 test	 eax, eax
  00044	74 0c		 je	 SHORT $LN12@CheckHideC
  00046	39 98 68 19 00
	00		 cmp	 DWORD PTR [eax+6504], ebx
  0004c	75 04		 jne	 SHORT $LN12@CheckHideC

; 286  : 		bHideChar = false;

  0004e	c6 45 ff 00	 mov	 BYTE PTR _bHideChar$[ebp], 0
$LN12@CheckHideC:

; 287  : 
; 288  : 	// 
; 289  : 	ioLuciferItem *pLucifer = ToLuciferItem( pItem );

  00052	56		 push	 esi
  00053	e8 00 00 00 00	 call	 ?ToLuciferItem@@YAPAVioLuciferItem@@PAVioItem@@@Z ; ToLuciferItem
  00058	59		 pop	 ecx

; 290  : 	if( pLucifer &&
; 291  : 		( pLucifer->GetFlyState() == ioLuciferItem::LFS_FLY_ATTACK ||
; 292  : 		  pLucifer->GetFlyState() == ioLuciferItem::LFS_FLY_GRAP ||
; 293  : 		  pLucifer->GetFlyState() == ioLuciferItem::LFS_LAND_ATTACK ) )

  00059	85 c0		 test	 eax, eax
  0005b	74 18		 je	 SHORT $LN11@CheckHideC
  0005d	8b 80 68 19 00
	00		 mov	 eax, DWORD PTR [eax+6504]
  00063	83 f8 04	 cmp	 eax, 4
  00066	74 09		 je	 SHORT $LN10@CheckHideC
  00068	3b c3		 cmp	 eax, ebx
  0006a	74 05		 je	 SHORT $LN10@CheckHideC
  0006c	83 f8 06	 cmp	 eax, 6
  0006f	75 04		 jne	 SHORT $LN11@CheckHideC
$LN10@CheckHideC:

; 294  : 		bHideChar = false;

  00071	c6 45 ff 00	 mov	 BYTE PTR _bHideChar$[ebp], 0
$LN11@CheckHideC:

; 295  : 
; 296  : 	//
; 297  : 	ioDevilItem *pDevilItem = ToDevilItem( pItem );

  00075	56		 push	 esi
  00076	e8 00 00 00 00	 call	 ?ToDevilItem@@YAPAVioDevilItem@@PAVioItem@@@Z ; ToDevilItem
  0007b	59		 pop	 ecx

; 298  : 	if( pDevilItem &&
; 299  : 		( pDevilItem->GetFlyState() != ioDevilItem::DFS_NONE ) )

  0007c	85 c0		 test	 eax, eax
  0007e	74 0d		 je	 SHORT $LN9@CheckHideC
  00080	83 b8 68 19 00
	00 00		 cmp	 DWORD PTR [eax+6504], 0
  00087	74 04		 je	 SHORT $LN9@CheckHideC

; 300  : 		bHideChar = false;

  00089	c6 45 ff 00	 mov	 BYTE PTR _bHideChar$[ebp], 0
$LN9@CheckHideC:

; 301  : 
; 302  : 	// 
; 303  : 	ioPhantomItem *pPhantom = ToPhantomItem( pItem );

  0008d	56		 push	 esi
  0008e	e8 00 00 00 00	 call	 ?ToPhantomItem@@YAPAVioPhantomItem@@PAVioItem@@@Z ; ToPhantomItem
  00093	59		 pop	 ecx

; 304  : 	if( pPhantom &&
; 305  : 		( pPhantom->GetPhantomFlyState() == ioPhantomItem::PFS_TRACE_MOVE ||
; 306  : 		  pPhantom->GetPhantomFlyState() == ioPhantomItem::PFS_POSSESSION ) )

  00094	85 c0		 test	 eax, eax
  00096	74 13		 je	 SHORT $LN8@CheckHideC
  00098	8b 80 68 19 00
	00		 mov	 eax, DWORD PTR [eax+6504]
  0009e	83 f8 04	 cmp	 eax, 4
  000a1	74 04		 je	 SHORT $LN7@CheckHideC
  000a3	3b c3		 cmp	 eax, ebx
  000a5	75 04		 jne	 SHORT $LN8@CheckHideC
$LN7@CheckHideC:

; 307  : 		bHideChar = false;

  000a7	c6 45 ff 00	 mov	 BYTE PTR _bHideChar$[ebp], 0
$LN8@CheckHideC:

; 308  : 
; 309  : 	// 
; 310  : 	ioNakoruruItem *pNakoruru = ToNakoruruItem( pItem );

  000ab	56		 push	 esi
  000ac	e8 00 00 00 00	 call	 ?ToNakoruruItem@@YAPAVioNakoruruItem@@PAVioItem@@@Z ; ToNakoruruItem
  000b1	59		 pop	 ecx

; 311  : 	if( pNakoruru && pNakoruru->GetWitchFlyState() == ioNakoruruItem::WFS_ATTACK )

  000b2	85 c0		 test	 eax, eax
  000b4	74 0c		 je	 SHORT $LN6@CheckHideC
  000b6	39 98 c0 1c 00
	00		 cmp	 DWORD PTR [eax+7360], ebx
  000bc	75 04		 jne	 SHORT $LN6@CheckHideC

; 312  : 		bHideChar = false;

  000be	c6 45 ff 00	 mov	 BYTE PTR _bHideChar$[ebp], 0
$LN6@CheckHideC:

; 313  : 
; 314  : 	// 
; 315  : 	ioDestroyerItem *pDestroy = ToDestroyerItem( pItem );

  000c2	56		 push	 esi
  000c3	e8 00 00 00 00	 call	 ?ToDestroyerItem@@YAPAVioDestroyerItem@@PAVioItem@@@Z ; ToDestroyerItem
  000c8	59		 pop	 ecx

; 316  : 	if( pDestroy && 
; 317  : 		( pDestroy->GetDestroyerFlyState() == ioDestroyerItem::CFS_ATTACK ||
; 318  : 		  pDestroy->GetDestroyerFlyState() == ioDestroyerItem::CFS_CHARGING ||
; 319  : 		  pDestroy->GetDestroyerFlyState() == ioDestroyerItem::CFS_CHARGED ||
; 320  : 		  pDestroy->GetDestroyerFlyState() == ioDestroyerItem::CFS_CHARGE_ATTACK ) )

  000c9	85 c0		 test	 eax, eax
  000cb	74 1d		 je	 SHORT $LN5@CheckHideC
  000cd	8b 80 68 19 00
	00		 mov	 eax, DWORD PTR [eax+6504]
  000d3	83 f8 04	 cmp	 eax, 4
  000d6	74 0e		 je	 SHORT $LN4@CheckHideC
  000d8	3b c3		 cmp	 eax, ebx
  000da	74 0a		 je	 SHORT $LN4@CheckHideC
  000dc	83 f8 06	 cmp	 eax, 6
  000df	74 05		 je	 SHORT $LN4@CheckHideC
  000e1	83 f8 07	 cmp	 eax, 7
  000e4	75 04		 jne	 SHORT $LN5@CheckHideC
$LN4@CheckHideC:

; 321  : 		bHideChar = false;

  000e6	c6 45 ff 00	 mov	 BYTE PTR _bHideChar$[ebp], 0
$LN5@CheckHideC:

; 322  : 
; 323  : 	// 
; 324  : 	ioMichaelItem *pMichael = ToMichaelItem( pItem );

  000ea	56		 push	 esi
  000eb	e8 00 00 00 00	 call	 ?ToMichaelItem@@YAPAVioMichaelItem@@PAVioItem@@@Z ; ToMichaelItem
  000f0	59		 pop	 ecx

; 325  : 	if( pMichael &&
; 326  : 		(pMichael->GetMichaelFlyState() == ioMichaelItem::MFS_ATTACK_MOVE ||
; 327  : 		 pMichael->GetMichaelFlyState() == ioMichaelItem::MFS_GRAPPLING_LOOP ||
; 328  : 		 pMichael->GetMichaelFlyState() == ioMichaelItem::MFS_GRAPPLING_MOVE ||
; 329  : 		 pMichael->GetMichaelFlyState() == ioMichaelItem::MFS_END_ATTACK ) )

  000f1	85 c0		 test	 eax, eax
  000f3	74 1d		 je	 SHORT $LN51@CheckHideC
  000f5	8b 80 70 19 00
	00		 mov	 eax, DWORD PTR [eax+6512]
  000fb	83 f8 02	 cmp	 eax, 2
  000fe	74 0e		 je	 SHORT $LN2@CheckHideC
  00100	83 f8 03	 cmp	 eax, 3
  00103	74 09		 je	 SHORT $LN2@CheckHideC
  00105	83 f8 04	 cmp	 eax, 4
  00108	74 04		 je	 SHORT $LN2@CheckHideC
  0010a	3b c3		 cmp	 eax, ebx
  0010c	75 04		 jne	 SHORT $LN51@CheckHideC
$LN2@CheckHideC:

; 330  : 		bHideChar = false;

  0010e	c6 45 ff 00	 mov	 BYTE PTR _bHideChar$[ebp], 0
$LN51@CheckHideC:

; 331  : 
; 332  : 	ioMephistoItem* pMephistoItem = ToMephistoItem( pItem );

  00112	56		 push	 esi
  00113	e8 00 00 00 00	 call	 ?ToMephistoItem@@YAPAVioMephistoItem@@PAVioItem@@@Z ; ToMephistoItem
  00118	59		 pop	 ecx
  00119	5e		 pop	 esi
  0011a	5b		 pop	 ebx

; 333  : 	if( pMephistoItem && pMephistoItem->IsFlyState() )

  0011b	85 c0		 test	 eax, eax
  0011d	74 0f		 je	 SHORT $LN1@CheckHideC
  0011f	8b c8		 mov	 ecx, eax
  00121	e8 00 00 00 00	 call	 ?IsFlyState@ioMephistoItem@@QAE_NXZ ; ioMephistoItem::IsFlyState
  00126	84 c0		 test	 al, al

; 334  : 		return false;

  00128	0f 85 df fe ff
	ff		 jne	 $LN52@CheckHideC
$LN1@CheckHideC:

; 335  : 
; 336  : 	return bHideChar;

  0012e	8a 45 ff	 mov	 al, BYTE PTR _bHideChar$[ebp]

; 337  : }

  00131	c9		 leave
  00132	c3		 ret	 0
?CheckHideCharOnFlyState@ioHide2Buff@@IAE_NXZ ENDP	; ioHide2Buff::CheckHideCharOnFlyState
_TEXT	ENDS
PUBLIC	??B?$CEncrypt@W4JumpState@@@@QBE?AW4JumpState@@XZ ; CEncrypt<enum JumpState>::operator enum JumpState
; Function compile flags: /Ogsp
; File d:\lost saga for developer\youtube\tutorial\source\src\lsclient\encryptvalue.h
;	COMDAT ??B?$CEncrypt@W4JumpState@@@@QBE?AW4JumpState@@XZ
_TEXT	SEGMENT
_value$ = -4						; size = 4
??B?$CEncrypt@W4JumpState@@@@QBE?AW4JumpState@@XZ PROC	; CEncrypt<enum JumpState>::operator enum JumpState, COMDAT
; _this$ = ecx

; 145  : 	{

  00000	55		 push	 ebp
  00001	8b ec		 mov	 ebp, esp
  00003	51		 push	 ecx

; 146  : 		//UJ 130829, const    --start
; 147  : 		type value;
; 148  : 		CEncrypt<type>* pThis = const_cast<CEncrypt<type>*>(this);
; 149  : 		pThis->DecryptValueToPool(&value);

  00004	8d 45 fc	 lea	 eax, DWORD PTR _value$[ebp]
  00007	50		 push	 eax
  00008	e8 00 00 00 00	 call	 ?DecryptValueToPool@?$CEncrypt@W4JumpState@@@@QAEXPAW4JumpState@@@Z ; CEncrypt<enum JumpState>::DecryptValueToPool

; 150  : 		//// const DecryptValueToPool     .
; 151  :  		//type value;
; 152  : 		//char szTempMem[MAX_ENCRYPT];
; 153  : 		//m_RC5.DecryptByte( m_MemPool, szTempMem, max(m_ValueSize, DEFAULT_ENCRYPT) );
; 154  : 		//memcpy( &value, szTempMem, m_ValueSize );
; 155  : 		//UJ --end
; 156  : 
; 157  : #ifdef _NOTUSE
; 158  : 		Debug();
; 159  : #endif
; 160  : 		return value;

  0000d	8b 45 fc	 mov	 eax, DWORD PTR _value$[ebp]

; 161  : 	}

  00010	c9		 leave
  00011	c3		 ret	 0
??B?$CEncrypt@W4JumpState@@@@QBE?AW4JumpState@@XZ ENDP	; CEncrypt<enum JumpState>::operator enum JumpState
_TEXT	ENDS
PUBLIC	??B?$CEncrypt@W4BlowWoundedState@@@@QBE?AW4BlowWoundedState@@XZ ; CEncrypt<enum BlowWoundedState>::operator enum BlowWoundedState
; Function compile flags: /Ogsp
;	COMDAT ??B?$CEncrypt@W4BlowWoundedState@@@@QBE?AW4BlowWoundedState@@XZ
_TEXT	SEGMENT
_value$ = -4						; size = 4
??B?$CEncrypt@W4BlowWoundedState@@@@QBE?AW4BlowWoundedState@@XZ PROC ; CEncrypt<enum BlowWoundedState>::operator enum BlowWoundedState, COMDAT
; _this$ = ecx

; 145  : 	{

  00000	55		 push	 ebp
  00001	8b ec		 mov	 ebp, esp
  00003	51		 push	 ecx

; 146  : 		//UJ 130829, const    --start
; 147  : 		type value;
; 148  : 		CEncrypt<type>* pThis = const_cast<CEncrypt<type>*>(this);
; 149  : 		pThis->DecryptValueToPool(&value);

  00004	8d 45 fc	 lea	 eax, DWORD PTR _value$[ebp]
  00007	50		 push	 eax
  00008	e8 00 00 00 00	 call	 ?DecryptValueToPool@?$CEncrypt@W4BlowWoundedState@@@@QAEXPAW4BlowWoundedState@@@Z ; CEncrypt<enum BlowWoundedState>::DecryptValueToPool

; 150  : 		//// const DecryptValueToPool     .
; 151  :  		//type value;
; 152  : 		//char szTempMem[MAX_ENCRYPT];
; 153  : 		//m_RC5.DecryptByte( m_MemPool, szTempMem, max(m_ValueSize, DEFAULT_ENCRYPT) );
; 154  : 		//memcpy( &value, szTempMem, m_ValueSize );
; 155  : 		//UJ --end
; 156  : 
; 157  : #ifdef _NOTUSE
; 158  : 		Debug();
; 159  : #endif
; 160  : 		return value;

  0000d	8b 45 fc	 mov	 eax, DWORD PTR _value$[ebp]

; 161  : 	}

  00010	c9		 leave
  00011	c3		 ret	 0
??B?$CEncrypt@W4BlowWoundedState@@@@QBE?AW4BlowWoundedState@@XZ ENDP ; CEncrypt<enum BlowWoundedState>::operator enum BlowWoundedState
_TEXT	ENDS
PUBLIC	__$ArrayPad$
PUBLIC	??$LoadFloat_e@$09@ioINILoader@@QAEMAAY09$$CBDM@Z ; ioINILoader::LoadFloat_e<10>
EXTRN	__imp_?LoadFloat@ioINILoader@@QAEMPBDM@Z:PROC
EXTRN	___security_cookie:DWORD
; Function compile flags: /Ogsp
; File d:\lost saga for developer\youtube\tutorial\source\src\io3dengine\ioiniloader.h
;	COMDAT ??$LoadFloat_e@$09@ioINILoader@@QAEMAAY09$$CBDM@Z
_TEXT	SEGMENT
__k$ = -20						; size = 10
__$ArrayPad$ = -4					; size = 4
_k$ = 8							; size = 4
_f$ = 12						; size = 4
??$LoadFloat_e@$09@ioINILoader@@QAEMAAY09$$CBDM@Z PROC	; ioINILoader::LoadFloat_e<10>, COMDAT
; _this$ = ecx

; 135  : 	{

  00000	55		 push	 ebp
  00001	8b ec		 mov	 ebp, esp
  00003	83 ec 14	 sub	 esp, 20			; 00000014H
  00006	a1 00 00 00 00	 mov	 eax, DWORD PTR ___security_cookie
  0000b	33 c5		 xor	 eax, ebp
  0000d	89 45 fc	 mov	 DWORD PTR __$ArrayPad$[ebp], eax
  00010	8b 45 08	 mov	 eax, DWORD PTR _k$[ebp]

; 136  : 		_ENCSTR(k, _k);

  00013	8a 10		 mov	 dl, BYTE PTR [eax]
  00015	84 d2		 test	 dl, dl
  00017	0f 84 0d 01 00
	00		 je	 $LN96@LoadFloat_
  0001d	80 f2 ed	 xor	 dl, -19			; ffffffedH
  00020	88 55 ec	 mov	 BYTE PTR __k$[ebp], dl
  00023	8a 50 01	 mov	 dl, BYTE PTR [eax+1]
  00026	84 d2		 test	 dl, dl
  00028	0f 84 f6 00 00
	00		 je	 $LN95@LoadFloat_
  0002e	80 f2 ec	 xor	 dl, -20			; ffffffecH
  00031	88 55 ed	 mov	 BYTE PTR __k$[ebp+1], dl
  00034	8a 50 02	 mov	 dl, BYTE PTR [eax+2]
  00037	84 d2		 test	 dl, dl
  00039	0f 84 df 00 00
	00		 je	 $LN94@LoadFloat_
  0003f	80 f2 eb	 xor	 dl, -21			; ffffffebH
  00042	88 55 ee	 mov	 BYTE PTR __k$[ebp+2], dl
  00045	8a 50 03	 mov	 dl, BYTE PTR [eax+3]
  00048	84 d2		 test	 dl, dl
  0004a	0f 84 c8 00 00
	00		 je	 $LN93@LoadFloat_
  00050	80 f2 ea	 xor	 dl, -22			; ffffffeaH
  00053	88 55 ef	 mov	 BYTE PTR __k$[ebp+3], dl
  00056	8a 50 04	 mov	 dl, BYTE PTR [eax+4]
  00059	84 d2		 test	 dl, dl
  0005b	0f 84 b1 00 00
	00		 je	 $LN92@LoadFloat_
  00061	80 f2 ed	 xor	 dl, -19			; ffffffedH
  00064	88 55 f0	 mov	 BYTE PTR __k$[ebp+4], dl
  00067	8a 50 05	 mov	 dl, BYTE PTR [eax+5]
  0006a	84 d2		 test	 dl, dl
  0006c	0f 84 9a 00 00
	00		 je	 $LN91@LoadFloat_
  00072	80 f2 ec	 xor	 dl, -20			; ffffffecH
  00075	88 55 f1	 mov	 BYTE PTR __k$[ebp+5], dl
  00078	8a 50 06	 mov	 dl, BYTE PTR [eax+6]
  0007b	84 d2		 test	 dl, dl
  0007d	0f 84 83 00 00
	00		 je	 $LN90@LoadFloat_
  00083	80 f2 eb	 xor	 dl, -21			; ffffffebH
  00086	88 55 f2	 mov	 BYTE PTR __k$[ebp+6], dl
  00089	8a 50 07	 mov	 dl, BYTE PTR [eax+7]
  0008c	84 d2		 test	 dl, dl
  0008e	74 70		 je	 SHORT $LN89@LoadFloat_
  00090	80 f2 ea	 xor	 dl, -22			; ffffffeaH
  00093	88 55 f3	 mov	 BYTE PTR __k$[ebp+7], dl
  00096	8a 50 08	 mov	 dl, BYTE PTR [eax+8]
  00099	84 d2		 test	 dl, dl
  0009b	74 5d		 je	 SHORT $LN88@LoadFloat_
  0009d	80 f2 ed	 xor	 dl, -19			; ffffffedH
  000a0	80 78 09 00	 cmp	 BYTE PTR [eax+9], 0
  000a4	88 55 f4	 mov	 BYTE PTR __k$[ebp+8], dl
  000a7	0f 84 81 00 00
	00		 je	 $LN1@LoadFloat_
  000ad	8a 50 0a	 mov	 dl, BYTE PTR [eax+10]
  000b0	84 d2		 test	 dl, dl
  000b2	74 40		 je	 SHORT $LN86@LoadFloat_
  000b4	80 f2 eb	 xor	 dl, -21			; ffffffebH
  000b7	88 55 f6	 mov	 BYTE PTR __k$[ebp+10], dl
  000ba	8a 50 0b	 mov	 dl, BYTE PTR [eax+11]
  000bd	84 d2		 test	 dl, dl
  000bf	74 2d		 je	 SHORT $LN85@LoadFloat_
  000c1	80 f2 ea	 xor	 dl, -22			; ffffffeaH
  000c4	88 55 f7	 mov	 BYTE PTR __k$[ebp+11], dl
  000c7	8a 50 0c	 mov	 dl, BYTE PTR [eax+12]
  000ca	84 d2		 test	 dl, dl
  000cc	74 1a		 je	 SHORT $LN84@LoadFloat_
  000ce	8a 40 0d	 mov	 al, BYTE PTR [eax+13]
  000d1	80 f2 ed	 xor	 dl, -19			; ffffffedH
  000d4	88 55 f8	 mov	 BYTE PTR __k$[ebp+12], dl
  000d7	84 c0		 test	 al, al
  000d9	74 07		 je	 SHORT $LN83@LoadFloat_
  000db	34 ec		 xor	 al, -20			; ffffffecH
  000dd	88 45 f9	 mov	 BYTE PTR __k$[ebp+13], al
  000e0	eb 4c		 jmp	 SHORT $LN1@LoadFloat_
$LN83@LoadFloat_:
  000e2	c6 45 f9 ec	 mov	 BYTE PTR __k$[ebp+13], -20 ; ffffffecH
  000e6	eb 46		 jmp	 SHORT $LN1@LoadFloat_
$LN84@LoadFloat_:
  000e8	c6 45 f8 ed	 mov	 BYTE PTR __k$[ebp+12], -19 ; ffffffedH
  000ec	eb 40		 jmp	 SHORT $LN1@LoadFloat_
$LN85@LoadFloat_:
  000ee	c6 45 f7 ea	 mov	 BYTE PTR __k$[ebp+11], -22 ; ffffffeaH
  000f2	eb 3a		 jmp	 SHORT $LN1@LoadFloat_
$LN86@LoadFloat_:
  000f4	c6 45 f6 eb	 mov	 BYTE PTR __k$[ebp+10], -21 ; ffffffebH
  000f8	eb 34		 jmp	 SHORT $LN1@LoadFloat_
$LN88@LoadFloat_:
  000fa	c6 45 f4 ed	 mov	 BYTE PTR __k$[ebp+8], -19 ; ffffffedH
  000fe	eb 2e		 jmp	 SHORT $LN1@LoadFloat_
$LN89@LoadFloat_:
  00100	c6 45 f3 ea	 mov	 BYTE PTR __k$[ebp+7], -22 ; ffffffeaH
  00104	eb 28		 jmp	 SHORT $LN1@LoadFloat_
$LN90@LoadFloat_:
  00106	c6 45 f2 eb	 mov	 BYTE PTR __k$[ebp+6], -21 ; ffffffebH
  0010a	eb 22		 jmp	 SHORT $LN1@LoadFloat_
$LN91@LoadFloat_:
  0010c	c6 45 f1 ec	 mov	 BYTE PTR __k$[ebp+5], -20 ; ffffffecH
  00110	eb 1c		 jmp	 SHORT $LN1@LoadFloat_
$LN92@LoadFloat_:
  00112	c6 45 f0 ed	 mov	 BYTE PTR __k$[ebp+4], -19 ; ffffffedH
  00116	eb 16		 jmp	 SHORT $LN1@LoadFloat_
$LN93@LoadFloat_:
  00118	c6 45 ef ea	 mov	 BYTE PTR __k$[ebp+3], -22 ; ffffffeaH
  0011c	eb 10		 jmp	 SHORT $LN1@LoadFloat_
$LN94@LoadFloat_:
  0011e	c6 45 ee eb	 mov	 BYTE PTR __k$[ebp+2], -21 ; ffffffebH
  00122	eb 0a		 jmp	 SHORT $LN1@LoadFloat_
$LN95@LoadFloat_:
  00124	c6 45 ed ec	 mov	 BYTE PTR __k$[ebp+1], -20 ; ffffffecH
  00128	eb 04		 jmp	 SHORT $LN1@LoadFloat_
$LN96@LoadFloat_:
  0012a	c6 45 ec ed	 mov	 BYTE PTR __k$[ebp], -19	; ffffffedH
$LN1@LoadFloat_:
  0012e	6a 02		 push	 2
  00130	8d 45 ec	 lea	 eax, DWORD PTR __k$[ebp]
  00133	c6 45 f5 00	 mov	 BYTE PTR __k$[ebp+9], 0
  00137	5a		 pop	 edx
$LL104@LoadFloat_:
  00138	81 30 ed ec eb
	ea		 xor	 DWORD PTR [eax], -353637139 ; eaebecedH
  0013e	83 c0 04	 add	 eax, 4
  00141	4a		 dec	 edx
  00142	75 f4		 jne	 SHORT $LL104@LoadFloat_

; 137  : 		return LoadFloat(_k, f);

  00144	f3 0f 10 45 0c	 movss	 xmm0, DWORD PTR _f$[ebp]
  00149	80 75 f4 ed	 xor	 BYTE PTR __k$[ebp+8], -19 ; ffffffedH
  0014d	51		 push	 ecx
  0014e	8d 45 ec	 lea	 eax, DWORD PTR __k$[ebp]
  00151	f3 0f 11 04 24	 movss	 DWORD PTR [esp], xmm0
  00156	50		 push	 eax
  00157	ff 15 00 00 00
	00		 call	 DWORD PTR __imp_?LoadFloat@ioINILoader@@QAEMPBDM@Z

; 138  : 	}

  0015d	8b 4d fc	 mov	 ecx, DWORD PTR __$ArrayPad$[ebp]
  00160	33 cd		 xor	 ecx, ebp
  00162	e8 00 00 00 00	 call	 @__security_check_cookie@4
  00167	c9		 leave
  00168	c2 08 00	 ret	 8
??$LoadFloat_e@$09@ioINILoader@@QAEMAAY09$$CBDM@Z ENDP	; ioINILoader::LoadFloat_e<10>
_TEXT	ENDS
PUBLIC	__$ArrayPad$
PUBLIC	??$LoadFloat_e@$0BA@@ioINILoader@@QAEMAAY0BA@$$CBDM@Z ; ioINILoader::LoadFloat_e<16>
; Function compile flags: /Ogsp
;	COMDAT ??$LoadFloat_e@$0BA@@ioINILoader@@QAEMAAY0BA@$$CBDM@Z
_TEXT	SEGMENT
__k$ = -24						; size = 16
__$ArrayPad$ = -4					; size = 4
_k$ = 8							; size = 4
_f$ = 12						; size = 4
??$LoadFloat_e@$0BA@@ioINILoader@@QAEMAAY0BA@$$CBDM@Z PROC ; ioINILoader::LoadFloat_e<16>, COMDAT
; _this$ = ecx

; 135  : 	{

  00000	55		 push	 ebp
  00001	8b ec		 mov	 ebp, esp
  00003	83 ec 18	 sub	 esp, 24			; 00000018H
  00006	a1 00 00 00 00	 mov	 eax, DWORD PTR ___security_cookie
  0000b	33 c5		 xor	 eax, ebp
  0000d	89 45 fc	 mov	 DWORD PTR __$ArrayPad$[ebp], eax
  00010	8b 45 08	 mov	 eax, DWORD PTR _k$[ebp]

; 136  : 		_ENCSTR(k, _k);

  00013	8a 10		 mov	 dl, BYTE PTR [eax]
  00015	56		 push	 esi
  00016	8b f1		 mov	 esi, ecx
  00018	84 d2		 test	 dl, dl
  0001a	0f 84 8c 01 00
	00		 je	 $LN96@LoadFloat_@2
  00020	80 f2 ed	 xor	 dl, -19			; ffffffedH
  00023	88 55 e8	 mov	 BYTE PTR __k$[ebp], dl
  00026	8a 50 01	 mov	 dl, BYTE PTR [eax+1]
  00029	84 d2		 test	 dl, dl
  0002b	0f 84 75 01 00
	00		 je	 $LN95@LoadFloat_@2
  00031	80 f2 ec	 xor	 dl, -20			; ffffffecH
  00034	88 55 e9	 mov	 BYTE PTR __k$[ebp+1], dl
  00037	8a 50 02	 mov	 dl, BYTE PTR [eax+2]
  0003a	84 d2		 test	 dl, dl
  0003c	0f 84 5e 01 00
	00		 je	 $LN94@LoadFloat_@2
  00042	b1 eb		 mov	 cl, -21			; ffffffebH
  00044	32 d1		 xor	 dl, cl
  00046	88 55 ea	 mov	 BYTE PTR __k$[ebp+2], dl
  00049	8a 50 03	 mov	 dl, BYTE PTR [eax+3]
  0004c	84 d2		 test	 dl, dl
  0004e	0f 84 46 01 00
	00		 je	 $LN93@LoadFloat_@2
  00054	80 f2 ea	 xor	 dl, -22			; ffffffeaH
  00057	88 55 eb	 mov	 BYTE PTR __k$[ebp+3], dl
  0005a	8a 50 04	 mov	 dl, BYTE PTR [eax+4]
  0005d	84 d2		 test	 dl, dl
  0005f	0f 84 2f 01 00
	00		 je	 $LN92@LoadFloat_@2
  00065	80 f2 ed	 xor	 dl, -19			; ffffffedH
  00068	88 55 ec	 mov	 BYTE PTR __k$[ebp+4], dl
  0006b	8a 50 05	 mov	 dl, BYTE PTR [eax+5]
  0006e	84 d2		 test	 dl, dl
  00070	0f 84 18 01 00
	00		 je	 $LN91@LoadFloat_@2
  00076	80 f2 ec	 xor	 dl, -20			; ffffffecH
  00079	88 55 ed	 mov	 BYTE PTR __k$[ebp+5], dl
  0007c	8a 50 06	 mov	 dl, BYTE PTR [eax+6]
  0007f	84 d2		 test	 dl, dl
  00081	0f 84 02 01 00
	00		 je	 $LN90@LoadFloat_@2
  00087	32 d1		 xor	 dl, cl
  00089	88 55 ee	 mov	 BYTE PTR __k$[ebp+6], dl
  0008c	8a 50 07	 mov	 dl, BYTE PTR [eax+7]
  0008f	84 d2		 test	 dl, dl
  00091	0f 84 ec 00 00
	00		 je	 $LN89@LoadFloat_@2
  00097	80 f2 ea	 xor	 dl, -22			; ffffffeaH
  0009a	88 55 ef	 mov	 BYTE PTR __k$[ebp+7], dl
  0009d	8a 50 08	 mov	 dl, BYTE PTR [eax+8]
  000a0	84 d2		 test	 dl, dl
  000a2	0f 84 d5 00 00
	00		 je	 $LN88@LoadFloat_@2
  000a8	80 f2 ed	 xor	 dl, -19			; ffffffedH
  000ab	88 55 f0	 mov	 BYTE PTR __k$[ebp+8], dl
  000ae	8a 50 09	 mov	 dl, BYTE PTR [eax+9]
  000b1	84 d2		 test	 dl, dl
  000b3	0f 84 be 00 00
	00		 je	 $LN87@LoadFloat_@2
  000b9	80 f2 ec	 xor	 dl, -20			; ffffffecH
  000bc	88 55 f1	 mov	 BYTE PTR __k$[ebp+9], dl
  000bf	8a 50 0a	 mov	 dl, BYTE PTR [eax+10]
  000c2	84 d2		 test	 dl, dl
  000c4	0f 84 a8 00 00
	00		 je	 $LN86@LoadFloat_@2
  000ca	32 d1		 xor	 dl, cl
  000cc	88 55 f2	 mov	 BYTE PTR __k$[ebp+10], dl
  000cf	8a 50 0b	 mov	 dl, BYTE PTR [eax+11]
  000d2	84 d2		 test	 dl, dl
  000d4	0f 84 92 00 00
	00		 je	 $LN85@LoadFloat_@2
  000da	80 f2 ea	 xor	 dl, -22			; ffffffeaH
  000dd	88 55 f3	 mov	 BYTE PTR __k$[ebp+11], dl
  000e0	8a 50 0c	 mov	 dl, BYTE PTR [eax+12]
  000e3	84 d2		 test	 dl, dl
  000e5	74 7f		 je	 SHORT $LN84@LoadFloat_@2
  000e7	80 f2 ed	 xor	 dl, -19			; ffffffedH
  000ea	88 55 f4	 mov	 BYTE PTR __k$[ebp+12], dl
  000ed	8a 50 0d	 mov	 dl, BYTE PTR [eax+13]
  000f0	84 d2		 test	 dl, dl
  000f2	74 6c		 je	 SHORT $LN83@LoadFloat_@2
  000f4	80 f2 ec	 xor	 dl, -20			; ffffffecH
  000f7	88 55 f5	 mov	 BYTE PTR __k$[ebp+13], dl
  000fa	8a 50 0e	 mov	 dl, BYTE PTR [eax+14]
  000fd	84 d2		 test	 dl, dl
  000ff	74 5a		 je	 SHORT $LN82@LoadFloat_@2
  00101	32 d1		 xor	 dl, cl
  00103	80 78 0f 00	 cmp	 BYTE PTR [eax+15], 0
  00107	88 55 f6	 mov	 BYTE PTR __k$[ebp+14], dl
  0010a	0f 84 a0 00 00
	00		 je	 $LN1@LoadFloat_@2
  00110	8a 50 10	 mov	 dl, BYTE PTR [eax+16]
  00113	84 d2		 test	 dl, dl
  00115	74 3e		 je	 SHORT $LN80@LoadFloat_@2
  00117	80 f2 ed	 xor	 dl, -19			; ffffffedH
  0011a	88 55 f8	 mov	 BYTE PTR __k$[ebp+16], dl
  0011d	8a 50 11	 mov	 dl, BYTE PTR [eax+17]
  00120	84 d2		 test	 dl, dl
  00122	74 2b		 je	 SHORT $LN79@LoadFloat_@2
  00124	80 f2 ec	 xor	 dl, -20			; ffffffecH
  00127	88 55 f9	 mov	 BYTE PTR __k$[ebp+17], dl
  0012a	8a 50 12	 mov	 dl, BYTE PTR [eax+18]
  0012d	84 d2		 test	 dl, dl
  0012f	74 19		 je	 SHORT $LN78@LoadFloat_@2
  00131	8a 40 13	 mov	 al, BYTE PTR [eax+19]
  00134	32 d1		 xor	 dl, cl
  00136	88 55 fa	 mov	 BYTE PTR __k$[ebp+18], dl
  00139	84 c0		 test	 al, al
  0013b	74 07		 je	 SHORT $LN77@LoadFloat_@2
  0013d	34 ea		 xor	 al, -22			; ffffffeaH
  0013f	88 45 fb	 mov	 BYTE PTR __k$[ebp+19], al
  00142	eb 6c		 jmp	 SHORT $LN1@LoadFloat_@2
$LN77@LoadFloat_@2:
  00144	c6 45 fb ea	 mov	 BYTE PTR __k$[ebp+19], -22 ; ffffffeaH
  00148	eb 66		 jmp	 SHORT $LN1@LoadFloat_@2
$LN78@LoadFloat_@2:
  0014a	88 4d fa	 mov	 BYTE PTR __k$[ebp+18], cl
  0014d	eb 61		 jmp	 SHORT $LN1@LoadFloat_@2
$LN79@LoadFloat_@2:
  0014f	c6 45 f9 ec	 mov	 BYTE PTR __k$[ebp+17], -20 ; ffffffecH
  00153	eb 5b		 jmp	 SHORT $LN1@LoadFloat_@2
$LN80@LoadFloat_@2:
  00155	c6 45 f8 ed	 mov	 BYTE PTR __k$[ebp+16], -19 ; ffffffedH
  00159	eb 55		 jmp	 SHORT $LN1@LoadFloat_@2
$LN82@LoadFloat_@2:
  0015b	88 4d f6	 mov	 BYTE PTR __k$[ebp+14], cl
  0015e	eb 50		 jmp	 SHORT $LN1@LoadFloat_@2
$LN83@LoadFloat_@2:
  00160	c6 45 f5 ec	 mov	 BYTE PTR __k$[ebp+13], -20 ; ffffffecH
  00164	eb 4a		 jmp	 SHORT $LN1@LoadFloat_@2
$LN84@LoadFloat_@2:
  00166	c6 45 f4 ed	 mov	 BYTE PTR __k$[ebp+12], -19 ; ffffffedH
  0016a	eb 44		 jmp	 SHORT $LN1@LoadFloat_@2
$LN85@LoadFloat_@2:
  0016c	c6 45 f3 ea	 mov	 BYTE PTR __k$[ebp+11], -22 ; ffffffeaH
  00170	eb 3e		 jmp	 SHORT $LN1@LoadFloat_@2
$LN86@LoadFloat_@2:
  00172	88 4d f2	 mov	 BYTE PTR __k$[ebp+10], cl
  00175	eb 39		 jmp	 SHORT $LN1@LoadFloat_@2
$LN87@LoadFloat_@2:
  00177	c6 45 f1 ec	 mov	 BYTE PTR __k$[ebp+9], -20 ; ffffffecH
  0017b	eb 33		 jmp	 SHORT $LN1@LoadFloat_@2
$LN88@LoadFloat_@2:
  0017d	c6 45 f0 ed	 mov	 BYTE PTR __k$[ebp+8], -19 ; ffffffedH
  00181	eb 2d		 jmp	 SHORT $LN1@LoadFloat_@2
$LN89@LoadFloat_@2:
  00183	c6 45 ef ea	 mov	 BYTE PTR __k$[ebp+7], -22 ; ffffffeaH
  00187	eb 27		 jmp	 SHORT $LN1@LoadFloat_@2
$LN90@LoadFloat_@2:
  00189	88 4d ee	 mov	 BYTE PTR __k$[ebp+6], cl
  0018c	eb 22		 jmp	 SHORT $LN1@LoadFloat_@2
$LN91@LoadFloat_@2:
  0018e	c6 45 ed ec	 mov	 BYTE PTR __k$[ebp+5], -20 ; ffffffecH
  00192	eb 1c		 jmp	 SHORT $LN1@LoadFloat_@2
$LN92@LoadFloat_@2:
  00194	c6 45 ec ed	 mov	 BYTE PTR __k$[ebp+4], -19 ; ffffffedH
  00198	eb 16		 jmp	 SHORT $LN1@LoadFloat_@2
$LN93@LoadFloat_@2:
  0019a	c6 45 eb ea	 mov	 BYTE PTR __k$[ebp+3], -22 ; ffffffeaH
  0019e	eb 10		 jmp	 SHORT $LN1@LoadFloat_@2
$LN94@LoadFloat_@2:
  001a0	c6 45 ea eb	 mov	 BYTE PTR __k$[ebp+2], -21 ; ffffffebH
  001a4	eb 0a		 jmp	 SHORT $LN1@LoadFloat_@2
$LN95@LoadFloat_@2:
  001a6	c6 45 e9 ec	 mov	 BYTE PTR __k$[ebp+1], -20 ; ffffffecH
  001aa	eb 04		 jmp	 SHORT $LN1@LoadFloat_@2
$LN96@LoadFloat_@2:
  001ac	c6 45 e8 ed	 mov	 BYTE PTR __k$[ebp], -19	; ffffffedH
$LN1@LoadFloat_@2:
  001b0	6a 03		 push	 3
  001b2	8d 45 e8	 lea	 eax, DWORD PTR __k$[ebp]
  001b5	c6 45 f7 00	 mov	 BYTE PTR __k$[ebp+15], 0
  001b9	5a		 pop	 edx
$LL104@LoadFloat_@2:
  001ba	81 30 ed ec eb
	ea		 xor	 DWORD PTR [eax], -353637139 ; eaebecedH
  001c0	83 c0 04	 add	 eax, 4
  001c3	4a		 dec	 edx
  001c4	75 f4		 jne	 SHORT $LL104@LoadFloat_@2
  001c6	6a 0c		 push	 12			; 0000000cH
  001c8	58		 pop	 eax
$LL101@LoadFloat_@2:
  001c9	8b c8		 mov	 ecx, eax
  001cb	81 e1 03 00 00
	80		 and	 ecx, -2147483645	; 80000003H
  001d1	79 05		 jns	 SHORT $LN111@LoadFloat_@2
  001d3	49		 dec	 ecx
  001d4	83 c9 fc	 or	 ecx, -4			; fffffffcH
  001d7	41		 inc	 ecx
$LN111@LoadFloat_@2:
  001d8	b2 ed		 mov	 dl, -19			; ffffffedH
  001da	2a d1		 sub	 dl, cl
  001dc	30 54 05 e8	 xor	 BYTE PTR __k$[ebp+eax], dl
  001e0	40		 inc	 eax
  001e1	83 f8 0f	 cmp	 eax, 15			; 0000000fH
  001e4	7c e3		 jl	 SHORT $LL101@LoadFloat_@2

; 137  : 		return LoadFloat(_k, f);

  001e6	f3 0f 10 45 0c	 movss	 xmm0, DWORD PTR _f$[ebp]
  001eb	51		 push	 ecx
  001ec	8d 45 e8	 lea	 eax, DWORD PTR __k$[ebp]
  001ef	f3 0f 11 04 24	 movss	 DWORD PTR [esp], xmm0
  001f4	50		 push	 eax
  001f5	8b ce		 mov	 ecx, esi
  001f7	ff 15 00 00 00
	00		 call	 DWORD PTR __imp_?LoadFloat@ioINILoader@@QAEMPBDM@Z

; 138  : 	}

  001fd	8b 4d fc	 mov	 ecx, DWORD PTR __$ArrayPad$[ebp]
  00200	33 cd		 xor	 ecx, ebp
  00202	5e		 pop	 esi
  00203	e8 00 00 00 00	 call	 @__security_check_cookie@4
  00208	c9		 leave
  00209	c2 08 00	 ret	 8
??$LoadFloat_e@$0BA@@ioINILoader@@QAEMAAY0BA@$$CBDM@Z ENDP ; ioINILoader::LoadFloat_e<16>
_TEXT	ENDS
PUBLIC	?GetJumpState@ioBaseChar@@QBE?AW4JumpState@@XZ	; ioBaseChar::GetJumpState
; Function compile flags: /Ogsp
; File d:\lost saga for developer\youtube\tutorial\source\src\lsclient\iobasechar.h
;	COMDAT ?GetJumpState@ioBaseChar@@QBE?AW4JumpState@@XZ
_TEXT	SEGMENT
_value$586394 = -4					; size = 4
?GetJumpState@ioBaseChar@@QBE?AW4JumpState@@XZ PROC	; ioBaseChar::GetJumpState, COMDAT
; _this$ = ecx

; 2158 : 	inline JumpState GetJumpState() const { return m_JumpState; }

  00000	55		 push	 ebp
  00001	8b ec		 mov	 ebp, esp
  00003	51		 push	 ecx
  00004	8d 45 fc	 lea	 eax, DWORD PTR _value$586394[ebp]
  00007	50		 push	 eax
  00008	81 c1 40 0e 00
	00		 add	 ecx, 3648		; 00000e40H
  0000e	e8 00 00 00 00	 call	 ?DecryptValueToPool@?$CEncrypt@W4JumpState@@@@QAEXPAW4JumpState@@@Z ; CEncrypt<enum JumpState>::DecryptValueToPool
  00013	8b 45 fc	 mov	 eax, DWORD PTR _value$586394[ebp]
  00016	c9		 leave
  00017	c3		 ret	 0
?GetJumpState@ioBaseChar@@QBE?AW4JumpState@@XZ ENDP	; ioBaseChar::GetJumpState
_TEXT	ENDS
PUBLIC	?GetBlowWoundedState@ioBaseChar@@QBE?AW4BlowWoundedState@@XZ ; ioBaseChar::GetBlowWoundedState
; Function compile flags: /Ogsp
;	COMDAT ?GetBlowWoundedState@ioBaseChar@@QBE?AW4BlowWoundedState@@XZ
_TEXT	SEGMENT
_value$586401 = -4					; size = 4
?GetBlowWoundedState@ioBaseChar@@QBE?AW4BlowWoundedState@@XZ PROC ; ioBaseChar::GetBlowWoundedState, COMDAT
; _this$ = ecx

; 2161 : 	inline BlowWoundedState GetBlowWoundedState() const { return m_BlowState; }

  00000	55		 push	 ebp
  00001	8b ec		 mov	 ebp, esp
  00003	51		 push	 ecx
  00004	8d 45 fc	 lea	 eax, DWORD PTR _value$586401[ebp]
  00007	50		 push	 eax
  00008	81 c1 58 0f 00
	00		 add	 ecx, 3928		; 00000f58H
  0000e	e8 00 00 00 00	 call	 ?DecryptValueToPool@?$CEncrypt@W4BlowWoundedState@@@@QAEXPAW4BlowWoundedState@@@Z ; CEncrypt<enum BlowWoundedState>::DecryptValueToPool
  00013	8b 45 fc	 mov	 eax, DWORD PTR _value$586401[ebp]
  00016	c9		 leave
  00017	c3		 ret	 0
?GetBlowWoundedState@ioBaseChar@@QBE?AW4BlowWoundedState@@XZ ENDP ; ioBaseChar::GetBlowWoundedState
_TEXT	ENDS
PUBLIC	__real@4f800000
PUBLIC	__$ArrayPad$
EXTRN	?LoadProperty@ioBuff@@UAEXAAVioINILoader@@@Z:PROC ; ioBuff::LoadProperty
;	COMDAT __real@4f800000
; File d:\lost saga for developer\youtube\tutorial\source\src\lsclient\stringprotect.h
CONST	SEGMENT
__real@4f800000 DD 04f800000r			; 4.29497e+009
; Function compile flags: /Ogsp
; File d:\lost saga for developer\youtube\tutorial\source\src\lsclient\iohide2buff.cpp
CONST	ENDS
;	COMDAT ?LoadProperty@ioHide2Buff@@UAEXAAVioINILoader@@@Z
_TEXT	SEGMENT
tv86 = -28						; size = 4
__k$586550 = -24					; size = 16
__k$586425 = -20					; size = 10
__$ArrayPad$ = -4					; size = 4
_rkLoader$ = 8						; size = 4
?LoadProperty@ioHide2Buff@@UAEXAAVioINILoader@@@Z PROC	; ioHide2Buff::LoadProperty, COMDAT
; _this$ = ecx

; 34   : {

  00000	55		 push	 ebp
  00001	8b ec		 mov	 ebp, esp
  00003	83 ec 1c	 sub	 esp, 28			; 0000001cH
  00006	a1 00 00 00 00	 mov	 eax, DWORD PTR ___security_cookie
  0000b	33 c5		 xor	 eax, ebp
  0000d	89 45 fc	 mov	 DWORD PTR __$ArrayPad$[ebp], eax
  00010	53		 push	 ebx
  00011	56		 push	 esi
  00012	57		 push	 edi
  00013	8b 7d 08	 mov	 edi, DWORD PTR _rkLoader$[ebp]

; 35   : 	ioBuff::LoadProperty( rkLoader );

  00016	57		 push	 edi
  00017	8b f1		 mov	 esi, ecx
  00019	e8 00 00 00 00	 call	 ?LoadProperty@ioBuff@@UAEXAAVioINILoader@@@Z ; ioBuff::LoadProperty

; 36   : 
; 37   : 	m_fHideRate = rkLoader.LoadFloat_e( "hide_rate", FLOAT1 );

  0001e	b8 01 00 00 00	 mov	 eax, 1
  00023	6a 02		 push	 2
  00025	c7 45 ec 85 85
	8f 8f		 mov	 DWORD PTR __k$586425[ebp], -1886419579 ; 8f8f8585H
  0002c	c7 45 f0 b2 9e
	8a 9e		 mov	 DWORD PTR __k$586425[ebp+4], -1635082574 ; 9e8a9eb2H
  00033	8d 4d ec	 lea	 ecx, DWORD PTR __k$586425[ebp]
  00036	66 c7 45 f4 88
	00		 mov	 WORD PTR __k$586425[ebp+8], 136 ; 00000088H
  0003c	5a		 pop	 edx
  0003d	bb ed ec eb ea	 mov	 ebx, -353637139		; eaebecedH
$LL108@LoadProper:
  00042	31 19		 xor	 DWORD PTR [ecx], ebx
  00044	83 c1 04	 add	 ecx, 4
  00047	4a		 dec	 edx
  00048	75 f8		 jne	 SHORT $LL108@LoadProper
  0004a	80 75 f4 ed	 xor	 BYTE PTR __k$586425[ebp+8], -19 ; ffffffedH
  0004e	89 45 e4	 mov	 DWORD PTR tv86[ebp], eax
  00051	db 45 e4	 fild	 DWORD PTR tv86[ebp]
  00054	85 c0		 test	 eax, eax
  00056	79 06		 jns	 SHORT $LN225@LoadProper
  00058	d8 05 00 00 00
	00		 fadd	 DWORD PTR __real@4f800000
$LN225@LoadProper:
  0005e	51		 push	 ecx
  0005f	8d 45 ec	 lea	 eax, DWORD PTR __k$586425[ebp]
  00062	d9 1c 24	 fstp	 DWORD PTR [esp]
  00065	50		 push	 eax
  00066	8b cf		 mov	 ecx, edi
  00068	ff 15 00 00 00
	00		 call	 DWORD PTR __imp_?LoadFloat@ioINILoader@@QAEMPBDM@Z
  0006e	d9 9e 6c 09 00
	00		 fstp	 DWORD PTR [esi+2412]
  00074	6a 03		 push	 3

; 38   : 	m_fAddSpeed = rkLoader.LoadFloat_e( "speed_add_value", 0.0f );

  00076	c7 45 e8 9e 9c
	8e 8f		 mov	 DWORD PTR __k$586550[ebp], -1886479202 ; 8f8e9c9eH
  0007d	c7 45 ec 89 b3
	8a 8e		 mov	 DWORD PTR __k$586550[ebp+4], -1903512695 ; 8e8ab389H
  00084	c7 45 f0 89 b3
	9d 8b		 mov	 DWORD PTR __k$586550[ebp+8], -1952599159 ; 8b9db389H
  0008b	8d 45 e8	 lea	 eax, DWORD PTR __k$586550[ebp]
  0008e	c7 45 f4 81 99
	8e 00		 mov	 DWORD PTR __k$586550[ebp+12], 9345409 ; 008e9981H
  00095	59		 pop	 ecx
$LL214@LoadProper:
  00096	31 18		 xor	 DWORD PTR [eax], ebx
  00098	83 c0 04	 add	 eax, 4
  0009b	49		 dec	 ecx
  0009c	75 f8		 jne	 SHORT $LL214@LoadProper
  0009e	6a 0c		 push	 12			; 0000000cH
  000a0	58		 pop	 eax
$LL211@LoadProper:
  000a1	8b c8		 mov	 ecx, eax
  000a3	81 e1 03 00 00
	80		 and	 ecx, -2147483645	; 80000003H
  000a9	79 05		 jns	 SHORT $LN226@LoadProper
  000ab	49		 dec	 ecx
  000ac	83 c9 fc	 or	 ecx, -4			; fffffffcH
  000af	41		 inc	 ecx
$LN226@LoadProper:
  000b0	b2 ed		 mov	 dl, -19			; ffffffedH
  000b2	2a d1		 sub	 dl, cl
  000b4	30 54 05 e8	 xor	 BYTE PTR __k$586550[ebp+eax], dl
  000b8	40		 inc	 eax
  000b9	83 f8 0f	 cmp	 eax, 15			; 0000000fH
  000bc	7c e3		 jl	 SHORT $LL211@LoadProper
  000be	0f 57 c0	 xorps	 xmm0, xmm0
  000c1	51		 push	 ecx
  000c2	8d 45 e8	 lea	 eax, DWORD PTR __k$586550[ebp]
  000c5	f3 0f 11 04 24	 movss	 DWORD PTR [esp], xmm0
  000ca	50		 push	 eax
  000cb	8b cf		 mov	 ecx, edi
  000cd	ff 15 00 00 00
	00		 call	 DWORD PTR __imp_?LoadFloat@ioINILoader@@QAEMPBDM@Z
  000d3	d9 9e 70 09 00
	00		 fstp	 DWORD PTR [esi+2416]

; 39   : }

  000d9	8b 4d fc	 mov	 ecx, DWORD PTR __$ArrayPad$[ebp]
  000dc	5f		 pop	 edi
  000dd	5e		 pop	 esi
  000de	33 cd		 xor	 ecx, ebp
  000e0	5b		 pop	 ebx
  000e1	e8 00 00 00 00	 call	 @__security_check_cookie@4
  000e6	c9		 leave
  000e7	c2 04 00	 ret	 4
?LoadProperty@ioHide2Buff@@UAEXAAVioINILoader@@@Z ENDP	; ioHide2Buff::LoadProperty
_TEXT	ENDS
PUBLIC	?CheckHideCharOnJumpState@ioHide2Buff@@IAE_NXZ	; ioHide2Buff::CheckHideCharOnJumpState
EXTRN	?GetCurJumpState@ioDoubleJump@@QAEHXZ:PROC	; ioDoubleJump::GetCurJumpState
EXTRN	?GetCurExtendJump@ioAttackableItem@@QAEPAVioExtendJump@@XZ:PROC ; ioAttackableItem::GetCurExtendJump
; Function compile flags: /Ogsp
;	COMDAT ?CheckHideCharOnJumpState@ioHide2Buff@@IAE_NXZ
_TEXT	SEGMENT
_value$586685 = -8					; size = 4
_bHideChar$ = -1					; size = 1
?CheckHideCharOnJumpState@ioHide2Buff@@IAE_NXZ PROC	; ioHide2Buff::CheckHideCharOnJumpState, COMDAT
; _this$ = ecx

; 214  : {

  00000	55		 push	 ebp
  00001	8b ec		 mov	 ebp, esp
  00003	51		 push	 ecx
  00004	51		 push	 ecx
  00005	56		 push	 esi

; 215  : 	ioBaseChar *pOwner = GetOwner();

  00006	e8 00 00 00 00	 call	 ?GetOwner@ioBuff@@QAEPAVioBaseChar@@XZ ; ioBuff::GetOwner
  0000b	8b f0		 mov	 esi, eax

; 216  : 	if( !pOwner )

  0000d	85 f6		 test	 esi, esi
  0000f	75 07		 jne	 SHORT $LN16@CheckHideC@2

; 217  : 		return false;

  00011	32 c0		 xor	 al, al
  00013	e9 a2 00 00 00	 jmp	 $LN17@CheckHideC@2
$LN16@CheckHideC@2:
  00018	57		 push	 edi

; 218  : 
; 219  : 	bool bHideChar = true;
; 220  : 
; 221  : 	JumpState eJumpState = pOwner->GetJumpState();

  00019	8d 45 f8	 lea	 eax, DWORD PTR _value$586685[ebp]
  0001c	50		 push	 eax
  0001d	8d 8e 40 0e 00
	00		 lea	 ecx, DWORD PTR [esi+3648]
  00023	c6 45 ff 01	 mov	 BYTE PTR _bHideChar$[ebp], 1
  00027	e8 00 00 00 00	 call	 ?DecryptValueToPool@?$CEncrypt@W4JumpState@@@@QAEXPAW4JumpState@@@Z ; CEncrypt<enum JumpState>::DecryptValueToPool

; 222  : 	JumpType  eJumpType = pOwner->GetJumpType();
; 223  : 	switch( eJumpState )

  0002c	8b 45 f8	 mov	 eax, DWORD PTR _value$586685[ebp]
  0002f	8b be 34 03 00
	00		 mov	 edi, DWORD PTR [esi+820]
  00035	83 f8 02	 cmp	 eax, 2
  00038	74 26		 je	 SHORT $LN13@CheckHideC@2
  0003a	7e 7a		 jle	 SHORT $LN31@CheckHideC@2
  0003c	83 f8 04	 cmp	 eax, 4
  0003f	7e 71		 jle	 SHORT $LN2@CheckHideC@2
  00041	83 f8 08	 cmp	 eax, 8
  00044	74 0a		 je	 SHORT $LN4@CheckHideC@2
  00046	83 f8 0a	 cmp	 eax, 10			; 0000000aH
  00049	74 67		 je	 SHORT $LN2@CheckHideC@2
  0004b	83 f8 0b	 cmp	 eax, 11			; 0000000bH

; 260  : 	case JS_COMBO_DASH:
; 261  : 		bHideChar = false;
; 262  : 		break;

  0004e	eb 60		 jmp	 SHORT $LN33@CheckHideC@2
$LN4@CheckHideC@2:

; 245  : 				}
; 246  : 				break;
; 247  : 			}
; 248  : 		}
; 249  : 		break;
; 250  : 	case JS_AIM_JUMP:
; 251  : 	case JS_AIM_JUMP2:
; 252  : 	case JS_JUMP_ATTACK:
; 253  : 		bHideChar = false;
; 254  : 		break;
; 255  : 	case JS_LANDING:
; 256  : 		if( pOwner->GetLandingType() == CLT_LAND_ATTACK ||
; 257  : 			pOwner->GetLandingType() == CLT_EXTEDN_LAND_ATTTACK )

  00050	8b b6 18 03 00
	00		 mov	 esi, DWORD PTR [esi+792]
  00056	83 fe 02	 cmp	 esi, 2
  00059	74 57		 je	 SHORT $LN2@CheckHideC@2
  0005b	83 fe 03	 cmp	 esi, 3

; 258  : 			bHideChar = false;
; 259  : 		break;

  0005e	eb 50		 jmp	 SHORT $LN33@CheckHideC@2
$LN13@CheckHideC@2:

; 224  : 	{
; 225  : 	case JS_JUMPPING:
; 226  : 		{
; 227  : 			ioAttackableItem *pItem = pOwner->GetPriorityItem( SPT_JUMP );

  00060	6a 02		 push	 2
  00062	8b ce		 mov	 ecx, esi
  00064	e8 00 00 00 00	 call	 ?GetPriorityItem@ioBaseChar@@QBEPAVioAttackableItem@@W4StatePriorityType@@@Z ; ioBaseChar::GetPriorityItem
  00069	8b c8		 mov	 ecx, eax

; 228  : 			if( !pItem )

  0006b	85 c9		 test	 ecx, ecx
  0006d	75 04		 jne	 SHORT $LN12@CheckHideC@2

; 229  : 				return false;

  0006f	32 c0		 xor	 al, al
  00071	eb 46		 jmp	 SHORT $LN32@CheckHideC@2
$LN12@CheckHideC@2:

; 230  : 
; 231  : 			switch( eJumpType )

  00073	83 ff 04	 cmp	 edi, 4
  00076	74 1e		 je	 SHORT $LN7@CheckHideC@2
  00078	83 ff 0c	 cmp	 edi, 12			; 0000000cH
  0007b	75 39		 jne	 SHORT $LN31@CheckHideC@2

; 232  : 			{
; 233  : 			case JT_KISARAGI_JUMP:
; 234  : 				{
; 235  : 					ioKisaragiJump *pJump = ToKisaragiJump( pItem->GetCurExtendJump() );

  0007d	e8 00 00 00 00	 call	 ?GetCurExtendJump@ioAttackableItem@@QAEPAVioExtendJump@@XZ ; ioAttackableItem::GetCurExtendJump
  00082	50		 push	 eax
  00083	e8 00 00 00 00	 call	 ?ToKisaragiJump@@YAPAVioKisaragiJump@@PAVioExtendJump@@@Z ; ToKisaragiJump
  00088	59		 pop	 ecx

; 236  : 					if( pJump && pJump->GetJumpState() == ioKisaragiJump::KJS_DASH )

  00089	85 c0		 test	 eax, eax
  0008b	74 29		 je	 SHORT $LN31@CheckHideC@2
  0008d	83 b8 24 01 00
	00 03		 cmp	 DWORD PTR [eax+292], 3

; 237  : 						bHideChar = false;
; 238  : 				}
; 239  : 				break;

  00094	eb 1a		 jmp	 SHORT $LN33@CheckHideC@2
$LN7@CheckHideC@2:

; 240  : 			case JT_DOUBLE_JUMP:
; 241  : 				{
; 242  : 					ioDoubleJump *pJump = ToDoubleJump( pItem->GetCurExtendJump() );

  00096	e8 00 00 00 00	 call	 ?GetCurExtendJump@ioAttackableItem@@QAEPAVioExtendJump@@XZ ; ioAttackableItem::GetCurExtendJump
  0009b	50		 push	 eax
  0009c	e8 00 00 00 00	 call	 ?ToDoubleJump@@YAPAVioDoubleJump@@PAVioExtendJump@@@Z ; ToDoubleJump
  000a1	59		 pop	 ecx

; 243  : 					if( pJump && pJump->GetCurJumpState() == ioDoubleJump::DJS_DASH )

  000a2	85 c0		 test	 eax, eax
  000a4	74 10		 je	 SHORT $LN31@CheckHideC@2
  000a6	8b c8		 mov	 ecx, eax
  000a8	e8 00 00 00 00	 call	 ?GetCurJumpState@ioDoubleJump@@QAEHXZ ; ioDoubleJump::GetCurJumpState
  000ad	83 f8 02	 cmp	 eax, 2
$LN33@CheckHideC@2:
  000b0	75 04		 jne	 SHORT $LN31@CheckHideC@2
$LN2@CheckHideC@2:

; 244  : 						bHideChar = false;

  000b2	c6 45 ff 00	 mov	 BYTE PTR _bHideChar$[ebp], 0
$LN31@CheckHideC@2:

; 263  : 	}
; 264  : 
; 265  : 	return bHideChar;

  000b6	8a 45 ff	 mov	 al, BYTE PTR _bHideChar$[ebp]
$LN32@CheckHideC@2:
  000b9	5f		 pop	 edi
$LN17@CheckHideC@2:
  000ba	5e		 pop	 esi

; 266  : }

  000bb	c9		 leave
  000bc	c3		 ret	 0
?CheckHideCharOnJumpState@ioHide2Buff@@IAE_NXZ ENDP	; ioHide2Buff::CheckHideCharOnJumpState
_TEXT	ENDS
PUBLIC	?CheckOwnerState@ioHide2Buff@@IAEXXZ		; ioHide2Buff::CheckOwnerState
; Function compile flags: /Ogsp
;	COMDAT ?CheckOwnerState@ioHide2Buff@@IAEXXZ
_TEXT	SEGMENT
_value$586733 = -8					; size = 4
_value$586720 = -8					; size = 4
_bCharHide$ = -4					; size = 1
?CheckOwnerState@ioHide2Buff@@IAEXXZ PROC		; ioHide2Buff::CheckOwnerState, COMDAT
; _this$ = ecx

; 137  : {

  00000	55		 push	 ebp
  00001	8b ec		 mov	 ebp, esp
  00003	51		 push	 ecx
  00004	51		 push	 ecx
  00005	56		 push	 esi
  00006	8b f1		 mov	 esi, ecx

; 138  : 	if( !m_pOwner )

  00008	8b 86 74 02 00
	00		 mov	 eax, DWORD PTR [esi+628]
  0000e	85 c0		 test	 eax, eax
  00010	74 76		 je	 SHORT $LN12@CheckOwner

; 139  : 		return;
; 140  : 
; 141  : 	bool bCharHide = true;
; 142  : 
; 143  : 	CharState eState = m_pOwner->GetState();
; 144  : 	switch( eState )

  00012	0f b6 88 10 03
	00 00		 movzx	 ecx, BYTE PTR [eax+784]
  00019	83 c1 fd	 add	 ecx, -3			; fffffffdH
  0001c	c6 45 fc 01	 mov	 BYTE PTR _bCharHide$[ebp], 1
  00020	81 f9 98 00 00
	00		 cmp	 ecx, 152		; 00000098H
  00026	77 56		 ja	 SHORT $LN1@CheckOwner
  00028	0f b6 89 00 00
	00 00		 movzx	 ecx, BYTE PTR $LN24@CheckOwner[ecx]
  0002f	ff 24 8d 00 00
	00 00		 jmp	 DWORD PTR $LN27@CheckOwner[ecx*4]
$LN7@CheckOwner:

; 145  : 	{
; 146  : 	case CS_ATTACK:
; 147  : 	case CS_DASH_ATTACK:
; 148  : 	case CS_USING_SKILL:
; 149  : 	case CS_WOUNDED:
; 150  : 	case CS_COUNTER_ATTACK:
; 151  : 	case CS_FISHING:
; 152  : 	case CS_EXCAVATING:
; 153  : 	case CS_CONSTRUCT_HOUSE:
; 154  : 	case CS_BUFF_AIR_ATTACK:
; 155  : 	case CS_NEW_JUMP_ATTACK:
; 156  : 	case CS_DEFENSE_ATTACK:
; 157  : 	case CS_GRAPPLING:
; 158  : 	case CS_GRAPPLING_EXPANSION:
; 159  : 	case CS_GRAPPLING_WOUNDED:
; 160  : 	case CS_GRAPPLING_PUSHED:
; 161  : 	case CS_GRAPPLING_WOUNDED_SKILL:
; 162  : 	case CS_GRAPPLING_WOUNDED_SWING:
; 163  : 	case CS_LAND_AFTER_STATE:
; 164  : 	case CS_BLOW_EXTEND_WOUND:
; 165  : 	case CS_BLOW_DASH_ATTACK:
; 166  : 	case CS_JUMP_GRAPPLING:
; 167  : 	case CS_JUMP_GRAPPLING_WOUNDED:
; 168  : 	case CS_ADHESIVE_BUFF:
; 169  : 	case CS_GRAPPLING_WOUNDED_ITEM:
; 170  : 	case CS_GRAPPLING_WOUNDED_BUFF:
; 171  : 	case CS_CMD_STATE:
; 172  : 	case CS_EXTEND_DASH:
; 173  : 	case CS_CHANGE_WAIT:
; 174  : 	case CS_ROULETTE:
; 175  : 		{
; 176  : 			bCharHide = false;
; 177  : 		}
; 178  : 		break;
; 179  : 	case CS_JUMP:
; 180  : 		{
; 181  : 			if( !CheckHideCharOnJumpState() )

  00036	8b ce		 mov	 ecx, esi
  00038	e8 00 00 00 00	 call	 ?CheckHideCharOnJumpState@ioHide2Buff@@IAE_NXZ ; ioHide2Buff::CheckHideCharOnJumpState

; 182  : 				bCharHide = false;
; 183  : 		}
; 184  : 		break;

  0003d	eb 37		 jmp	 SHORT $LN25@CheckOwner
$LN5@CheckOwner:

; 185  : 	case CS_BOUND_BLOW_WOUNDED:
; 186  : 	case CS_BLOW_WOUNDED:
; 187  : 		{
; 188  : 			if( m_pOwner->GetBlowWoundedState() == BW_BLOWING ||
; 189  : 				m_pOwner->GetBlowWoundedState() == BW_BOUND_BLOWING )

  0003f	8d 4d f8	 lea	 ecx, DWORD PTR _value$586720[ebp]
  00042	51		 push	 ecx
  00043	8d 88 58 0f 00
	00		 lea	 ecx, DWORD PTR [eax+3928]
  00049	e8 00 00 00 00	 call	 ?DecryptValueToPool@?$CEncrypt@W4BlowWoundedState@@@@QAEXPAW4BlowWoundedState@@@Z ; CEncrypt<enum BlowWoundedState>::DecryptValueToPool
  0004e	83 7d f8 01	 cmp	 DWORD PTR _value$586720[ebp], 1
  00052	74 26		 je	 SHORT $LN8@CheckOwner
  00054	8b 8e 74 02 00
	00		 mov	 ecx, DWORD PTR [esi+628]
  0005a	8d 45 f8	 lea	 eax, DWORD PTR _value$586733[ebp]
  0005d	50		 push	 eax
  0005e	81 c1 58 0f 00
	00		 add	 ecx, 3928		; 00000f58H
  00064	e8 00 00 00 00	 call	 ?DecryptValueToPool@?$CEncrypt@W4BlowWoundedState@@@@QAEXPAW4BlowWoundedState@@@Z ; CEncrypt<enum BlowWoundedState>::DecryptValueToPool
  00069	83 7d f8 04	 cmp	 DWORD PTR _value$586733[ebp], 4

; 190  : 				bCharHide = false;
; 191  : 		}
; 192  : 		break;

  0006d	eb 09		 jmp	 SHORT $LN26@CheckOwner
$LN2@CheckOwner:

; 193  : 	case CS_WITCH_FLY:
; 194  : 	case CS_NAKORURU_FLY:
; 195  : 	case CS_MECHANICS_FLY:
; 196  : 	case CS_LUCIFER_FLY:
; 197  : 	case CS_PHANTOM_FLY:
; 198  : 	case CS_DESTROYER_FLY:
; 199  : 	case CS_MICHAEL_FLY:
; 200  : 	case CS_DEVIL_FLY:
; 201  : 	case CS_SUPER_DIMENSION_DASH:
; 202  : 	case CS_JUMPER_SPECIAL:
; 203  : 		{
; 204  : 			if( !CheckHideCharOnFlyState() )

  0006f	8b ce		 mov	 ecx, esi
  00071	e8 00 00 00 00	 call	 ?CheckHideCharOnFlyState@ioHide2Buff@@IAE_NXZ ; ioHide2Buff::CheckHideCharOnFlyState
$LN25@CheckOwner:
  00076	84 c0		 test	 al, al
$LN26@CheckOwner:
  00078	75 04		 jne	 SHORT $LN1@CheckOwner
$LN8@CheckOwner:

; 205  : 				bCharHide = false;

  0007a	c6 45 fc 00	 mov	 BYTE PTR _bCharHide$[ebp], 0
$LN1@CheckOwner:

; 206  : 		}
; 207  : 		break;
; 208  : 	}
; 209  : 
; 210  : 	SetHide( bCharHide );

  0007e	ff 75 fc	 push	 DWORD PTR _bCharHide$[ebp]
  00081	8b ce		 mov	 ecx, esi
  00083	e8 00 00 00 00	 call	 ?SetHide@ioHide2Buff@@IAEX_N@Z ; ioHide2Buff::SetHide
$LN12@CheckOwner:
  00088	5e		 pop	 esi

; 211  : }

  00089	c9		 leave
  0008a	c3		 ret	 0
  0008b	90		 npad	 1
$LN27@CheckOwner:
  0008c	00 00 00 00	 DD	 $LN8@CheckOwner
  00090	00 00 00 00	 DD	 $LN7@CheckOwner
  00094	00 00 00 00	 DD	 $LN5@CheckOwner
  00098	00 00 00 00	 DD	 $LN2@CheckOwner
  0009c	00 00 00 00	 DD	 $LN1@CheckOwner
$LN24@CheckOwner:
  000a0	00		 DB	 0
  000a1	01		 DB	 1
  000a2	00		 DB	 0
  000a3	00		 DB	 0
  000a4	00		 DB	 0
  000a5	04		 DB	 4
  000a6	04		 DB	 4
  000a7	04		 DB	 4
  000a8	00		 DB	 0
  000a9	02		 DB	 2
  000aa	04		 DB	 4
  000ab	04		 DB	 4
  000ac	04		 DB	 4
  000ad	04		 DB	 4
  000ae	00		 DB	 0
  000af	04		 DB	 4
  000b0	04		 DB	 4
  000b1	04		 DB	 4
  000b2	04		 DB	 4
  000b3	04		 DB	 4
  000b4	04		 DB	 4
  000b5	04		 DB	 4
  000b6	04		 DB	 4
  000b7	04		 DB	 4
  000b8	04		 DB	 4
  000b9	00		 DB	 0
  000ba	04		 DB	 4
  000bb	04		 DB	 4
  000bc	04		 DB	 4
  000bd	04		 DB	 4
  000be	04		 DB	 4
  000bf	04		 DB	 4
  000c0	04		 DB	 4
  000c1	04		 DB	 4
  000c2	04		 DB	 4
  000c3	04		 DB	 4
  000c4	04		 DB	 4
  000c5	04		 DB	 4
  000c6	04		 DB	 4
  000c7	04		 DB	 4
  000c8	00		 DB	 0
  000c9	04		 DB	 4
  000ca	04		 DB	 4
  000cb	04		 DB	 4
  000cc	00		 DB	 0
  000cd	04		 DB	 4
  000ce	02		 DB	 2
  000cf	04		 DB	 4
  000d0	04		 DB	 4
  000d1	04		 DB	 4
  000d2	04		 DB	 4
  000d3	04		 DB	 4
  000d4	04		 DB	 4
  000d5	00		 DB	 0
  000d6	04		 DB	 4
  000d7	04		 DB	 4
  000d8	04		 DB	 4
  000d9	00		 DB	 0
  000da	04		 DB	 4
  000db	00		 DB	 0
  000dc	04		 DB	 4
  000dd	00		 DB	 0
  000de	00		 DB	 0
  000df	00		 DB	 0
  000e0	00		 DB	 0
  000e1	00		 DB	 0
  000e2	00		 DB	 0
  000e3	00		 DB	 0
  000e4	00		 DB	 0
  000e5	04		 DB	 4
  000e6	00		 DB	 0
  000e7	00		 DB	 0
  000e8	04		 DB	 4
  000e9	04		 DB	 4
  000ea	04		 DB	 4
  000eb	03		 DB	 3
  000ec	04		 DB	 4
  000ed	03		 DB	 3
  000ee	00		 DB	 0
  000ef	04		 DB	 4
  000f0	00		 DB	 0
  000f1	03		 DB	 3
  000f2	04		 DB	 4
  000f3	03		 DB	 3
  000f4	00		 DB	 0
  000f5	04		 DB	 4
  000f6	04		 DB	 4
  000f7	03		 DB	 3
  000f8	03		 DB	 3
  000f9	04		 DB	 4
  000fa	00		 DB	 0
  000fb	04		 DB	 4
  000fc	04		 DB	 4
  000fd	04		 DB	 4
  000fe	04		 DB	 4
  000ff	04		 DB	 4
  00100	04		 DB	 4
  00101	04		 DB	 4
  00102	04		 DB	 4
  00103	04		 DB	 4
  00104	04		 DB	 4
  00105	04		 DB	 4
  00106	04		 DB	 4
  00107	03		 DB	 3
  00108	04		 DB	 4
  00109	04		 DB	 4
  0010a	04		 DB	 4
  0010b	04		 DB	 4
  0010c	04		 DB	 4
  0010d	04		 DB	 4
  0010e	04		 DB	 4
  0010f	04		 DB	 4
  00110	04		 DB	 4
  00111	03		 DB	 3
  00112	04		 DB	 4
  00113	04		 DB	 4
  00114	04		 DB	 4
  00115	04		 DB	 4
  00116	04		 DB	 4
  00117	04		 DB	 4
  00118	04		 DB	 4
  00119	04		 DB	 4
  0011a	04		 DB	 4
  0011b	04		 DB	 4
  0011c	04		 DB	 4
  0011d	04		 DB	 4
  0011e	04		 DB	 4
  0011f	04		 DB	 4
  00120	04		 DB	 4
  00121	04		 DB	 4
  00122	04		 DB	 4
  00123	04		 DB	 4
  00124	04		 DB	 4
  00125	03		 DB	 3
  00126	04		 DB	 4
  00127	04		 DB	 4
  00128	00		 DB	 0
  00129	04		 DB	 4
  0012a	04		 DB	 4
  0012b	04		 DB	 4
  0012c	04		 DB	 4
  0012d	03		 DB	 3
  0012e	04		 DB	 4
  0012f	04		 DB	 4
  00130	04		 DB	 4
  00131	04		 DB	 4
  00132	04		 DB	 4
  00133	04		 DB	 4
  00134	00		 DB	 0
  00135	04		 DB	 4
  00136	04		 DB	 4
  00137	04		 DB	 4
  00138	00		 DB	 0
?CheckOwnerState@ioHide2Buff@@IAEXXZ ENDP		; ioHide2Buff::CheckOwnerState
_TEXT	ENDS
EXTRN	?CheckCallingAreaWeapon@ioBuff@@IAEXXZ:PROC	; ioBuff::CheckCallingAreaWeapon
EXTRN	?CheckCallingProcess@ioBuff@@IAEXXZ:PROC	; ioBuff::CheckCallingProcess
EXTRN	?SetReserveEndBuff@ioBuff@@QAEXXZ:PROC		; ioBuff::SetReserveEndBuff
EXTRN	?CheckSwitchType@ioBuff@@IAE_NM@Z:PROC		; ioBuff::CheckSwitchType
EXTRN	?ProcessBuff@ioBuff@@UAEXM@Z:PROC		; ioBuff::ProcessBuff
EXTRN	?CheckEnableDelayState@ioBuff@@IAE_NXZ:PROC	; ioBuff::CheckEnableDelayState
; Function compile flags: /Ogsp
;	COMDAT ?ProcessBuff@ioHide2Buff@@UAEXM@Z
_TEXT	SEGMENT
_fTimePerSec$ = 8					; size = 4
?ProcessBuff@ioHide2Buff@@UAEXM@Z PROC			; ioHide2Buff::ProcessBuff, COMDAT
; _this$ = ecx

; 72   : {

  00000	55		 push	 ebp
  00001	8b ec		 mov	 ebp, esp
  00003	56		 push	 esi
  00004	8b f1		 mov	 esi, ecx

; 73   : 	if( CheckEnableDelayState() )

  00006	e8 00 00 00 00	 call	 ?CheckEnableDelayState@ioBuff@@IAE_NXZ ; ioBuff::CheckEnableDelayState
  0000b	84 c0		 test	 al, al
  0000d	75 5c		 jne	 SHORT $LN8@ProcessBuf

; 74   : 		return;
; 75   : 
; 76   : 	switch( m_iOperationType )

  0000f	8b 86 d0 03 00
	00		 mov	 eax, DWORD PTR [esi+976]
  00015	83 e8 00	 sub	 eax, 0
  00018	74 43		 je	 SHORT $LN1@ProcessBuf
  0001a	48		 dec	 eax
  0001b	74 06		 je	 SHORT $LN2@ProcessBuf
  0001d	48		 dec	 eax
  0001e	74 17		 je	 SHORT $LN4@ProcessBuf
  00020	48		 dec	 eax
  00021	75 41		 jne	 SHORT $LN5@ProcessBuf
$LN2@ProcessBuf:

; 87   : 	case OT_DELAY:
; 88   : 	case OT_ACTIVE:
; 89   : 		ioBuff::ProcessBuff( fTimePerSec );

  00023	f3 0f 10 45 08	 movss	 xmm0, DWORD PTR _fTimePerSec$[ebp]
  00028	51		 push	 ecx
  00029	8b ce		 mov	 ecx, esi
  0002b	f3 0f 11 04 24	 movss	 DWORD PTR [esp], xmm0
  00030	e8 00 00 00 00	 call	 ?ProcessBuff@ioBuff@@UAEXM@Z ; ioBuff::ProcessBuff

; 90   : 		break;

  00035	eb 2d		 jmp	 SHORT $LN5@ProcessBuf
$LN4@ProcessBuf:

; 77   : 	{
; 78   : 	case OT_SWITCH:
; 79   : 		if( !CheckSwitchType( fTimePerSec ) )

  00037	f3 0f 10 45 08	 movss	 xmm0, DWORD PTR _fTimePerSec$[ebp]
  0003c	51		 push	 ecx
  0003d	8b ce		 mov	 ecx, esi
  0003f	f3 0f 11 04 24	 movss	 DWORD PTR [esp], xmm0
  00044	e8 00 00 00 00	 call	 ?CheckSwitchType@ioBuff@@IAE_NM@Z ; ioBuff::CheckSwitchType

; 80   : 		{
; 81   : 			SetReserveEndBuff();

  00049	8b ce		 mov	 ecx, esi
  0004b	84 c0		 test	 al, al
  0004d	75 07		 jne	 SHORT $LN3@ProcessBuf
  0004f	e8 00 00 00 00	 call	 ?SetReserveEndBuff@ioBuff@@QAEXXZ ; ioBuff::SetReserveEndBuff

; 82   : 			return;

  00054	eb 15		 jmp	 SHORT $LN8@ProcessBuf
$LN3@ProcessBuf:

; 83   : 		}
; 84   : 
; 85   : 		CheckCallingProcess();

  00056	e8 00 00 00 00	 call	 ?CheckCallingProcess@ioBuff@@IAEXXZ ; ioBuff::CheckCallingProcess

; 86   : 		break;

  0005b	eb 07		 jmp	 SHORT $LN5@ProcessBuf
$LN1@ProcessBuf:

; 91   : 	case OT_PASSIVE:
; 92   : 		CheckCallingAreaWeapon();

  0005d	8b ce		 mov	 ecx, esi
  0005f	e8 00 00 00 00	 call	 ?CheckCallingAreaWeapon@ioBuff@@IAEXXZ ; ioBuff::CheckCallingAreaWeapon
$LN5@ProcessBuf:

; 93   : 		break;
; 94   : 	}
; 95   : 
; 96   : 	CheckOwnerState();

  00064	8b ce		 mov	 ecx, esi
  00066	e8 00 00 00 00	 call	 ?CheckOwnerState@ioHide2Buff@@IAEXXZ ; ioHide2Buff::CheckOwnerState
$LN8@ProcessBuf:
  0006b	5e		 pop	 esi

; 97   : }

  0006c	5d		 pop	 ebp
  0006d	c2 04 00	 ret	 4
?ProcessBuff@ioHide2Buff@@UAEXM@Z ENDP			; ioHide2Buff::ProcessBuff
_TEXT	ENDS
END
