; Listing generated by Microsoft (R) Optimizing Compiler Version 16.00.30319.01 

	TITLE	D:\Lost Saga For Developer\Youtube\Tutorial\Source\src\LSClient\GUI\ioHousingBlockInvenWnd.cpp
	.686P
	.XMM
	include listing.inc
	.model	flat

INCLUDELIB MSVCRT
INCLUDELIB OLDNAMES

PUBLIC	?_EEM_DS@?$deque@UD3DXVECTOR3@@V?$allocator@UD3DXVECTOR3@@@std@@@std@@2HB ; std::deque<D3DXVECTOR3,std::allocator<D3DXVECTOR3> >::_EEM_DS
;	COMDAT ?_EEM_DS@?$deque@UD3DXVECTOR3@@V?$allocator@UD3DXVECTOR3@@@std@@@std@@2HB
CONST	SEGMENT
?_EEM_DS@?$deque@UD3DXVECTOR3@@V?$allocator@UD3DXVECTOR3@@@std@@@std@@2HB DD 01H ; std::deque<D3DXVECTOR3,std::allocator<D3DXVECTOR3> >::_EEM_DS
CONST	ENDS
PUBLIC	??0TilePos@@QAE@HHH@Z				; TilePos::TilePos
; Function compile flags: /Ogsp
; File d:\lost saga for developer\youtube\tutorial\source\src\lsclient\housing\blockdefine.h
;	COMDAT ??0TilePos@@QAE@HHH@Z
_TEXT	SEGMENT
_nX$ = 8						; size = 4
_nY$ = 12						; size = 4
_nZ$ = 16						; size = 4
??0TilePos@@QAE@HHH@Z PROC				; TilePos::TilePos, COMDAT
; _this$ = ecx

; 96   : 	TilePos( int nX, int nY, int nZ )

  00000	55		 push	 ebp
  00001	8b ec		 mov	 ebp, esp
  00003	8b c1		 mov	 eax, ecx

; 97   : 	{
; 98   : 		x		= nX;

  00005	8b 4d 08	 mov	 ecx, DWORD PTR _nX$[ebp]

; 99   : 		y		= nY;
; 100  : 		z		= nZ;
; 101  : 		event	= 0;

  00008	83 60 0c 00	 and	 DWORD PTR [eax+12], 0
  0000c	89 08		 mov	 DWORD PTR [eax], ecx
  0000e	8b 4d 0c	 mov	 ecx, DWORD PTR _nY$[ebp]
  00011	89 48 08	 mov	 DWORD PTR [eax+8], ecx
  00014	8b 4d 10	 mov	 ecx, DWORD PTR _nZ$[ebp]
  00017	89 48 04	 mov	 DWORD PTR [eax+4], ecx

; 102  : 	}

  0001a	5d		 pop	 ebp
  0001b	c2 0c 00	 ret	 12			; 0000000cH
??0TilePos@@QAE@HHH@Z ENDP				; TilePos::TilePos
_TEXT	ENDS
PUBLIC	?GetCode@ioHousingBlockInvenItemButton@@QAEHXZ	; ioHousingBlockInvenItemButton::GetCode
; Function compile flags: /Ogsp
; File d:\lost saga for developer\youtube\tutorial\source\src\lsclient\gui\iohousingblockinvenwnd.h
;	COMDAT ?GetCode@ioHousingBlockInvenItemButton@@QAEHXZ
_TEXT	SEGMENT
?GetCode@ioHousingBlockInvenItemButton@@QAEHXZ PROC	; ioHousingBlockInvenItemButton::GetCode, COMDAT
; _this$ = ecx

; 57   : 	inline int GetCode(){ return m_nBlockCode; }

  00000	8b 81 1c 02 00
	00		 mov	 eax, DWORD PTR [ecx+540]
  00006	c3		 ret	 0
?GetCode@ioHousingBlockInvenItemButton@@QAEHXZ ENDP	; ioHousingBlockInvenItemButton::GetCode
_TEXT	ENDS
PUBLIC	?GetCount@ioHousingBlockInvenItemButton@@QAEHXZ	; ioHousingBlockInvenItemButton::GetCount
; Function compile flags: /Ogsp
;	COMDAT ?GetCount@ioHousingBlockInvenItemButton@@QAEHXZ
_TEXT	SEGMENT
?GetCount@ioHousingBlockInvenItemButton@@QAEHXZ PROC	; ioHousingBlockInvenItemButton::GetCount, COMDAT
; _this$ = ecx

; 59   : 	inline int GetCount(){ return m_nCount; }

  00000	8b 81 24 02 00
	00		 mov	 eax, DWORD PTR [ecx+548]
  00006	c3		 ret	 0
?GetCount@ioHousingBlockInvenItemButton@@QAEHXZ ENDP	; ioHousingBlockInvenItemButton::GetCount
_TEXT	ENDS
PUBLIC	??_7ioHousingBlockInvenIcon@@6B@		; ioHousingBlockInvenIcon::`vftable'
PUBLIC	??0ioHousingBlockInvenIcon@@QAE@XZ		; ioHousingBlockInvenIcon::ioHousingBlockInvenIcon
PUBLIC	??_R4ioHousingBlockInvenIcon@@6B@		; ioHousingBlockInvenIcon::`RTTI Complete Object Locator'
PUBLIC	??_R0?AVioHousingBlockInvenIcon@@@8		; ioHousingBlockInvenIcon `RTTI Type Descriptor'
PUBLIC	??_R3ioHousingBlockInvenIcon@@8			; ioHousingBlockInvenIcon::`RTTI Class Hierarchy Descriptor'
PUBLIC	??_R2ioHousingBlockInvenIcon@@8			; ioHousingBlockInvenIcon::`RTTI Base Class Array'
PUBLIC	??_R1A@?0A@EA@ioHousingBlockInvenIcon@@8	; ioHousingBlockInvenIcon::`RTTI Base Class Descriptor at (0,-1,0,64)'
PUBLIC	??_R1A@?0A@EA@ioButton@@8			; ioButton::`RTTI Base Class Descriptor at (0,-1,0,64)'
PUBLIC	??_R0?AVioButton@@@8				; ioButton `RTTI Type Descriptor'
PUBLIC	??_R3ioButton@@8				; ioButton::`RTTI Class Hierarchy Descriptor'
PUBLIC	??_R2ioButton@@8				; ioButton::`RTTI Base Class Array'
PUBLIC	??_R1A@?0A@EA@ioWnd@@8				; ioWnd::`RTTI Base Class Descriptor at (0,-1,0,64)'
PUBLIC	??_R0?AVioWnd@@@8				; ioWnd `RTTI Type Descriptor'
PUBLIC	??_R3ioWnd@@8					; ioWnd::`RTTI Class Hierarchy Descriptor'
PUBLIC	??_R2ioWnd@@8					; ioWnd::`RTTI Base Class Array'
PUBLIC	?AddRenderImage@ioHousingBlockInvenIcon@@UAEXABVioHashString@@PAVioUIRenderImage@@@Z ; ioHousingBlockInvenIcon::AddRenderImage
PUBLIC	?OnDrawNormal@ioHousingBlockInvenIcon@@UAEXHH@Z	; ioHousingBlockInvenIcon::OnDrawNormal
PUBLIC	?OnDrawOvered@ioHousingBlockInvenIcon@@UAEXHH@Z	; ioHousingBlockInvenIcon::OnDrawOvered
PUBLIC	?OnDrawPushed@ioHousingBlockInvenIcon@@UAEXHH@Z	; ioHousingBlockInvenIcon::OnDrawPushed
PUBLIC	?OnDrawDisabled@ioHousingBlockInvenIcon@@UAEXHH@Z ; ioHousingBlockInvenIcon::OnDrawDisabled
EXTRN	__imp_??0ioButton@@QAE@XZ:PROC
EXTRN	??_7type_info@@6B@:QWORD			; type_info::`vftable'
EXTRN	?AddRenderFrame@ioButton@@UAEXABVioHashString@@PAVioUIRenderFrame@@@Z:PROC ; ioButton::AddRenderFrame
EXTRN	?AddTooltipHelp@ioWnd@@UAEXABVioHashString@@00@Z:PROC ; ioWnd::AddTooltipHelp
EXTRN	?ParseExtraInfo@ioButton@@UAEXAAVioXMLElement@@@Z:PROC ; ioButton::ParseExtraInfo
EXTRN	?AddNamedRenderImage@ioWnd@@UAEXABVioHashString@@PAVioUIRenderImage@@@Z:PROC ; ioWnd::AddNamedRenderImage
EXTRN	?RemoveNamedRenderImage@ioWnd@@UAEXABVioHashString@@@Z:PROC ; ioWnd::RemoveNamedRenderImage
EXTRN	?GetNamedRenderImage@ioWnd@@UBEPAVioUIRenderImage@@ABVioHashString@@@Z:PROC ; ioWnd::GetNamedRenderImage
EXTRN	?SetWindowAlpha@ioButton@@UAEXH@Z:PROC		; ioButton::SetWindowAlpha
EXTRN	?SetActive@ioWnd@@UAEXXZ:PROC			; ioWnd::SetActive
EXTRN	?SetInActive@ioWnd@@UAEXXZ:PROC			; ioWnd::SetInActive
EXTRN	?ClearElementImageList@ioWnd@@UAEXXZ:PROC	; ioWnd::ClearElementImageList
EXTRN	?SetSize@ioWnd@@UAEXHH@Z:PROC			; ioWnd::SetSize
EXTRN	?SetPositionToDefault@ioWnd@@UAEXHH_N0@Z:PROC	; ioWnd::SetPositionToDefault
EXTRN	?IsNeedProcess@ioWnd@@UBE_NXZ:PROC		; ioWnd::IsNeedProcess
EXTRN	?IsCanMouseReaction@ioWnd@@UBE_NXZ:PROC		; ioWnd::IsCanMouseReaction
EXTRN	?AddChild@ioWnd@@UAEXPAV1@@Z:PROC		; ioWnd::AddChild
EXTRN	?DeleteChild@ioWnd@@UAEXK@Z:PROC		; ioWnd::DeleteChild
EXTRN	?DeleteAllChild@ioWnd@@UAEXXZ:PROC		; ioWnd::DeleteAllChild
EXTRN	?OnRenderShowAndHide@ioWnd@@MAE_NXZ:PROC	; ioWnd::OnRenderShowAndHide
EXTRN	?OnRenderShowAndHideByDefault@ioWnd@@MAE_NK@Z:PROC ; ioWnd::OnRenderShowAndHideByDefault
EXTRN	?OnRenderShowAndHideByTop@ioWnd@@MAE_NK@Z:PROC	; ioWnd::OnRenderShowAndHideByTop
EXTRN	?OnRenderShowAndHideByDown@ioWnd@@MAE_NK@Z:PROC	; ioWnd::OnRenderShowAndHideByDown
EXTRN	?OnRender@ioButton@@MAEXXZ:PROC			; ioButton::OnRender
EXTRN	?OnRenderAfterChild@ioWnd@@MAEXXZ:PROC		; ioWnd::OnRenderAfterChild
EXTRN	?OnProcess@ioWnd@@MAEXM@Z:PROC			; ioWnd::OnProcess
EXTRN	?OnMouseProcess@ioWnd@@MAEXABVioMouse@@@Z:PROC	; ioWnd::OnMouseProcess
EXTRN	?CheckFrameReSize@ioButton@@MAEXHHHH@Z:PROC	; ioButton::CheckFrameReSize
EXTRN	?RenderImageList@ioWnd@@MAEXHHW4UIRenderType@@@Z:PROC ; ioWnd::RenderImageList
EXTRN	?iwm_create@ioWnd@@UAEXXZ:PROC			; ioWnd::iwm_create
EXTRN	?iwm_destroy@ioWnd@@UAEXXZ:PROC			; ioWnd::iwm_destroy
EXTRN	?iwm_lbuttondown@ioButton@@UAEXABVioMouse@@@Z:PROC ; ioButton::iwm_lbuttondown
EXTRN	?iwm_lbuttonup@ioButton@@UAEXABVioMouse@@@Z:PROC ; ioButton::iwm_lbuttonup
EXTRN	?iwm_lbuttonDBLCLK@ioButton@@UAEXABVioMouse@@@Z:PROC ; ioButton::iwm_lbuttonDBLCLK
EXTRN	?iwm_rbuttondown@ioButton@@UAEXABVioMouse@@@Z:PROC ; ioButton::iwm_rbuttondown
EXTRN	?iwm_rbuttonup@ioButton@@UAEXABVioMouse@@@Z:PROC ; ioButton::iwm_rbuttonup
EXTRN	?iwm_command@ioWnd@@UAEXPAV1@HK@Z:PROC		; ioWnd::iwm_command
EXTRN	?iwm_mouseover@ioButton@@UAEXABVioMouse@@@Z:PROC ; ioButton::iwm_mouseover
EXTRN	?iwm_mousemove@ioWnd@@UAEXABVioMouse@@@Z:PROC	; ioWnd::iwm_mousemove
EXTRN	?iwm_mouseleave@ioWnd@@UAEXABVioMouse@@@Z:PROC	; ioWnd::iwm_mouseleave
EXTRN	?iwm_vscroll@ioWnd@@UAEXKH@Z:PROC		; ioWnd::iwm_vscroll
EXTRN	?iwm_wheel@ioWnd@@UAEXH@Z:PROC			; ioWnd::iwm_wheel
EXTRN	?iwm_show@ioWnd@@UAEXXZ:PROC			; ioWnd::iwm_show
EXTRN	?iwm_hide@ioWnd@@UAEXXZ:PROC			; ioWnd::iwm_hide
EXTRN	?iwm_esc@ioWnd@@UAE_NXZ:PROC			; ioWnd::iwm_esc
EXTRN	?iwm_spacebar@ioWnd@@UAE_NXZ:PROC		; ioWnd::iwm_spacebar
EXTRN	?iwm_gototop@ioWnd@@UAEXXZ:PROC			; ioWnd::iwm_gototop
EXTRN	?iwm_dragenter@ioWnd@@UAE?AW4IWDropEffect@@PAVioDragItem@@ABVioMouse@@@Z:PROC ; ioWnd::iwm_dragenter
EXTRN	?iwm_dragover@ioWnd@@UAE?AW4IWDropEffect@@PAVioDragItem@@ABVioMouse@@@Z:PROC ; ioWnd::iwm_dragover
EXTRN	?iwm_dragleave@ioWnd@@UAEXXZ:PROC		; ioWnd::iwm_dragleave
EXTRN	?iwm_dropitem@ioWnd@@UAE_NPAVioDragItem@@ABVioMouse@@PAV1@@Z:PROC ; ioWnd::iwm_dropitem
EXTRN	?iwm_dropdone@ioWnd@@UAEXPAVioDragItem@@PAV1@_N@Z:PROC ; ioWnd::iwm_dropdone
EXTRN	?IsEXType@ioWnd@@UBE_NXZ:PROC			; ioWnd::IsEXType
EXTRN	?GetWndType@ioButton@@UBEKXZ:PROC		; ioButton::GetWndType
EXTRN	?RenderWnd@ioWnd@@UAEXXZ:PROC			; ioWnd::RenderWnd
EXTRN	?SetIDEX@ioWnd@@UAEXAAK_N@Z:PROC		; ioWnd::SetIDEX
EXTRN	?ParseXML@ioWnd@@UAEXAAVioXMLElement@@@Z:PROC	; ioWnd::ParseXML
EXTRN	?GetHeaderFileName@ioButton@@UAEPBDXZ:PROC	; ioButton::GetHeaderFileName
EXTRN	?GetTemplateName@ioButton@@UAEPBDXZ:PROC	; ioButton::GetTemplateName
EXTRN	?GetDefClassName@ioButton@@UBEPBDXZ:PROC	; ioButton::GetDefClassName
EXTRN	?_Clone@ioButton@@UAEPAVioWnd@@XZ:PROC		; ioButton::_Clone
EXTRN	?Copy@ioButton@@UAEXPAVioWnd@@@Z:PROC		; ioButton::Copy
EXTRN	?Save@ioWnd@@UAE_NAAVioXMLElement@@@Z:PROC	; ioWnd::Save
EXTRN	?SetSaveData@ioButton@@UAEXAAVioXMLElement@@@Z:PROC ; ioButton::SetSaveData
EXTRN	?SetPosX@ioWnd@@UAEXH@Z:PROC			; ioWnd::SetPosX
EXTRN	?SetPosY@ioWnd@@UAEXH@Z:PROC			; ioWnd::SetPosY
EXTRN	?SetWidth@ioWnd@@UAEXH@Z:PROC			; ioWnd::SetWidth
EXTRN	?SetHeight@ioWnd@@UAEXH@Z:PROC			; ioWnd::SetHeight
EXTRN	?GetNumFixedRenderFrame@ioButton@@UBEHXZ:PROC	; ioButton::GetNumFixedRenderFrame
EXTRN	?GetFixedRenderFrameType@ioButton@@UAEPBDH@Z:PROC ; ioButton::GetFixedRenderFrameType
EXTRN	?GetRenderFrame@ioButton@@UAEPAPAVioUIRenderElement@@PBD@Z:PROC ; ioButton::GetRenderFrame
EXTRN	?GetNumFixedRenderImage@ioButton@@UBEHXZ:PROC	; ioButton::GetNumFixedRenderImage
EXTRN	?GetFixedRenderImageType@ioButton@@UAEPBDH@Z:PROC ; ioButton::GetFixedRenderImageType
EXTRN	?GetRenderImage@ioButton@@UAEPAPAVioUIRenderElement@@PBD@Z:PROC ; ioButton::GetRenderImage
EXTRN	?AddEffect@ioWnd@@UAEXABVioHashString@@PAVioUI3DEffectRender@@@Z:PROC ; ioWnd::AddEffect
EXTRN	?GetEffect@ioWnd@@UAEPAVioUI3DEffectRender@@VioHashString@@@Z:PROC ; ioWnd::GetEffect
EXTRN	??_EioHousingBlockInvenIcon@@UAEPAXI@Z:PROC	; ioHousingBlockInvenIcon::`vector deleting destructor'
EXTRN	?OnDrawOveredAdd@ioButton@@MAEXHH@Z:PROC	; ioButton::OnDrawOveredAdd
EXTRN	?OnDrawExDisabledNormal@ioButton@@MAEXHH@Z:PROC	; ioButton::OnDrawExDisabledNormal
EXTRN	?OnDrawExDisabledOvered@ioButton@@MAEXHH@Z:PROC	; ioButton::OnDrawExDisabledOvered
EXTRN	?OnDrawExDisabledPushed@ioButton@@MAEXHH@Z:PROC	; ioButton::OnDrawExDisabledPushed
EXTRN	?OnDrawBack@ioButton@@MAEXHH@Z:PROC		; ioButton::OnDrawBack
EXTRN	?OnDrawNormalList@ioButton@@MAEXHH@Z:PROC	; ioButton::OnDrawNormalList
EXTRN	?OnDrawDisableList@ioButton@@MAEXHH@Z:PROC	; ioButton::OnDrawDisableList
;	COMDAT ??_R2ioWnd@@8
; File d:\lost saga for developer\youtube\tutorial\source\src\lsclient\gui\iohousingblockinvenwnd.cpp
rdata$r	SEGMENT
??_R2ioWnd@@8 DD FLAT:??_R1A@?0A@EA@ioWnd@@8		; ioWnd::`RTTI Base Class Array'
rdata$r	ENDS
;	COMDAT ??_R3ioWnd@@8
rdata$r	SEGMENT
??_R3ioWnd@@8 DD 00H					; ioWnd::`RTTI Class Hierarchy Descriptor'
	DD	00H
	DD	01H
	DD	FLAT:??_R2ioWnd@@8
rdata$r	ENDS
;	COMDAT ??_R0?AVioWnd@@@8
_DATA	SEGMENT
??_R0?AVioWnd@@@8 DD FLAT:??_7type_info@@6B@		; ioWnd `RTTI Type Descriptor'
	DD	00H
	DB	'.?AVioWnd@@', 00H
_DATA	ENDS
;	COMDAT ??_R1A@?0A@EA@ioWnd@@8
rdata$r	SEGMENT
??_R1A@?0A@EA@ioWnd@@8 DD FLAT:??_R0?AVioWnd@@@8	; ioWnd::`RTTI Base Class Descriptor at (0,-1,0,64)'
	DD	00H
	DD	00H
	DD	0ffffffffH
	DD	00H
	DD	040H
	DD	FLAT:??_R3ioWnd@@8
rdata$r	ENDS
;	COMDAT ??_R2ioButton@@8
rdata$r	SEGMENT
??_R2ioButton@@8 DD FLAT:??_R1A@?0A@EA@ioButton@@8	; ioButton::`RTTI Base Class Array'
	DD	FLAT:??_R1A@?0A@EA@ioWnd@@8
rdata$r	ENDS
;	COMDAT ??_R3ioButton@@8
rdata$r	SEGMENT
??_R3ioButton@@8 DD 00H					; ioButton::`RTTI Class Hierarchy Descriptor'
	DD	00H
	DD	02H
	DD	FLAT:??_R2ioButton@@8
rdata$r	ENDS
;	COMDAT ??_R0?AVioButton@@@8
_DATA	SEGMENT
??_R0?AVioButton@@@8 DD FLAT:??_7type_info@@6B@		; ioButton `RTTI Type Descriptor'
	DD	00H
	DB	'.?AVioButton@@', 00H
_DATA	ENDS
;	COMDAT ??_R1A@?0A@EA@ioButton@@8
rdata$r	SEGMENT
??_R1A@?0A@EA@ioButton@@8 DD FLAT:??_R0?AVioButton@@@8	; ioButton::`RTTI Base Class Descriptor at (0,-1,0,64)'
	DD	01H
	DD	00H
	DD	0ffffffffH
	DD	00H
	DD	040H
	DD	FLAT:??_R3ioButton@@8
rdata$r	ENDS
;	COMDAT ??_R1A@?0A@EA@ioHousingBlockInvenIcon@@8
rdata$r	SEGMENT
??_R1A@?0A@EA@ioHousingBlockInvenIcon@@8 DD FLAT:??_R0?AVioHousingBlockInvenIcon@@@8 ; ioHousingBlockInvenIcon::`RTTI Base Class Descriptor at (0,-1,0,64)'
	DD	02H
	DD	00H
	DD	0ffffffffH
	DD	00H
	DD	040H
	DD	FLAT:??_R3ioHousingBlockInvenIcon@@8
rdata$r	ENDS
;	COMDAT ??_R2ioHousingBlockInvenIcon@@8
rdata$r	SEGMENT
??_R2ioHousingBlockInvenIcon@@8 DD FLAT:??_R1A@?0A@EA@ioHousingBlockInvenIcon@@8 ; ioHousingBlockInvenIcon::`RTTI Base Class Array'
	DD	FLAT:??_R1A@?0A@EA@ioButton@@8
	DD	FLAT:??_R1A@?0A@EA@ioWnd@@8
rdata$r	ENDS
;	COMDAT ??_R3ioHousingBlockInvenIcon@@8
rdata$r	SEGMENT
??_R3ioHousingBlockInvenIcon@@8 DD 00H			; ioHousingBlockInvenIcon::`RTTI Class Hierarchy Descriptor'
	DD	00H
	DD	03H
	DD	FLAT:??_R2ioHousingBlockInvenIcon@@8
rdata$r	ENDS
;	COMDAT ??_R0?AVioHousingBlockInvenIcon@@@8
_DATA	SEGMENT
??_R0?AVioHousingBlockInvenIcon@@@8 DD FLAT:??_7type_info@@6B@ ; ioHousingBlockInvenIcon `RTTI Type Descriptor'
	DD	00H
	DB	'.?AVioHousingBlockInvenIcon@@', 00H
_DATA	ENDS
;	COMDAT ??_R4ioHousingBlockInvenIcon@@6B@
rdata$r	SEGMENT
??_R4ioHousingBlockInvenIcon@@6B@ DD 00H		; ioHousingBlockInvenIcon::`RTTI Complete Object Locator'
	DD	00H
	DD	00H
	DD	FLAT:??_R0?AVioHousingBlockInvenIcon@@@8
	DD	FLAT:??_R3ioHousingBlockInvenIcon@@8
rdata$r	ENDS
;	COMDAT ??_7ioHousingBlockInvenIcon@@6B@
CONST	SEGMENT
??_7ioHousingBlockInvenIcon@@6B@ DD FLAT:??_R4ioHousingBlockInvenIcon@@6B@ ; ioHousingBlockInvenIcon::`vftable'
	DD	FLAT:?AddRenderFrame@ioButton@@UAEXABVioHashString@@PAVioUIRenderFrame@@@Z
	DD	FLAT:?AddRenderImage@ioHousingBlockInvenIcon@@UAEXABVioHashString@@PAVioUIRenderImage@@@Z
	DD	FLAT:?AddTooltipHelp@ioWnd@@UAEXABVioHashString@@00@Z
	DD	FLAT:?ParseExtraInfo@ioButton@@UAEXAAVioXMLElement@@@Z
	DD	FLAT:?AddNamedRenderImage@ioWnd@@UAEXABVioHashString@@PAVioUIRenderImage@@@Z
	DD	FLAT:?RemoveNamedRenderImage@ioWnd@@UAEXABVioHashString@@@Z
	DD	FLAT:?GetNamedRenderImage@ioWnd@@UBEPAVioUIRenderImage@@ABVioHashString@@@Z
	DD	FLAT:?SetWindowAlpha@ioButton@@UAEXH@Z
	DD	FLAT:?SetActive@ioWnd@@UAEXXZ
	DD	FLAT:?SetInActive@ioWnd@@UAEXXZ
	DD	FLAT:?ClearElementImageList@ioWnd@@UAEXXZ
	DD	FLAT:?SetSize@ioWnd@@UAEXHH@Z
	DD	FLAT:?SetPositionToDefault@ioWnd@@UAEXHH_N0@Z
	DD	FLAT:?IsNeedProcess@ioWnd@@UBE_NXZ
	DD	FLAT:?IsCanMouseReaction@ioWnd@@UBE_NXZ
	DD	FLAT:?AddChild@ioWnd@@UAEXPAV1@@Z
	DD	FLAT:?DeleteChild@ioWnd@@UAEXK@Z
	DD	FLAT:?DeleteAllChild@ioWnd@@UAEXXZ
	DD	FLAT:?OnRenderShowAndHide@ioWnd@@MAE_NXZ
	DD	FLAT:?OnRenderShowAndHideByDefault@ioWnd@@MAE_NK@Z
	DD	FLAT:?OnRenderShowAndHideByTop@ioWnd@@MAE_NK@Z
	DD	FLAT:?OnRenderShowAndHideByDown@ioWnd@@MAE_NK@Z
	DD	FLAT:?OnRender@ioButton@@MAEXXZ
	DD	FLAT:?OnRenderAfterChild@ioWnd@@MAEXXZ
	DD	FLAT:?OnProcess@ioWnd@@MAEXM@Z
	DD	FLAT:?OnMouseProcess@ioWnd@@MAEXABVioMouse@@@Z
	DD	FLAT:?CheckFrameReSize@ioButton@@MAEXHHHH@Z
	DD	FLAT:?RenderImageList@ioWnd@@MAEXHHW4UIRenderType@@@Z
	DD	FLAT:?iwm_create@ioWnd@@UAEXXZ
	DD	FLAT:?iwm_destroy@ioWnd@@UAEXXZ
	DD	FLAT:?iwm_lbuttondown@ioButton@@UAEXABVioMouse@@@Z
	DD	FLAT:?iwm_lbuttonup@ioButton@@UAEXABVioMouse@@@Z
	DD	FLAT:?iwm_lbuttonDBLCLK@ioButton@@UAEXABVioMouse@@@Z
	DD	FLAT:?iwm_rbuttondown@ioButton@@UAEXABVioMouse@@@Z
	DD	FLAT:?iwm_rbuttonup@ioButton@@UAEXABVioMouse@@@Z
	DD	FLAT:?iwm_command@ioWnd@@UAEXPAV1@HK@Z
	DD	FLAT:?iwm_mouseover@ioButton@@UAEXABVioMouse@@@Z
	DD	FLAT:?iwm_mousemove@ioWnd@@UAEXABVioMouse@@@Z
	DD	FLAT:?iwm_mouseleave@ioWnd@@UAEXABVioMouse@@@Z
	DD	FLAT:?iwm_vscroll@ioWnd@@UAEXKH@Z
	DD	FLAT:?iwm_wheel@ioWnd@@UAEXH@Z
	DD	FLAT:?iwm_show@ioWnd@@UAEXXZ
	DD	FLAT:?iwm_hide@ioWnd@@UAEXXZ
	DD	FLAT:?iwm_esc@ioWnd@@UAE_NXZ
	DD	FLAT:?iwm_spacebar@ioWnd@@UAE_NXZ
	DD	FLAT:?iwm_gototop@ioWnd@@UAEXXZ
	DD	FLAT:?iwm_dragenter@ioWnd@@UAE?AW4IWDropEffect@@PAVioDragItem@@ABVioMouse@@@Z
	DD	FLAT:?iwm_dragover@ioWnd@@UAE?AW4IWDropEffect@@PAVioDragItem@@ABVioMouse@@@Z
	DD	FLAT:?iwm_dragleave@ioWnd@@UAEXXZ
	DD	FLAT:?iwm_dropitem@ioWnd@@UAE_NPAVioDragItem@@ABVioMouse@@PAV1@@Z
	DD	FLAT:?iwm_dropdone@ioWnd@@UAEXPAVioDragItem@@PAV1@_N@Z
	DD	FLAT:?IsEXType@ioWnd@@UBE_NXZ
	DD	FLAT:?GetWndType@ioButton@@UBEKXZ
	DD	FLAT:?RenderWnd@ioWnd@@UAEXXZ
	DD	FLAT:?SetIDEX@ioWnd@@UAEXAAK_N@Z
	DD	FLAT:?ParseXML@ioWnd@@UAEXAAVioXMLElement@@@Z
	DD	FLAT:?GetHeaderFileName@ioButton@@UAEPBDXZ
	DD	FLAT:?GetTemplateName@ioButton@@UAEPBDXZ
	DD	FLAT:?GetDefClassName@ioButton@@UBEPBDXZ
	DD	FLAT:?_Clone@ioButton@@UAEPAVioWnd@@XZ
	DD	FLAT:?Copy@ioButton@@UAEXPAVioWnd@@@Z
	DD	FLAT:?Save@ioWnd@@UAE_NAAVioXMLElement@@@Z
	DD	FLAT:?SetSaveData@ioButton@@UAEXAAVioXMLElement@@@Z
	DD	FLAT:?SetPosX@ioWnd@@UAEXH@Z
	DD	FLAT:?SetPosY@ioWnd@@UAEXH@Z
	DD	FLAT:?SetWidth@ioWnd@@UAEXH@Z
	DD	FLAT:?SetHeight@ioWnd@@UAEXH@Z
	DD	FLAT:?GetNumFixedRenderFrame@ioButton@@UBEHXZ
	DD	FLAT:?GetFixedRenderFrameType@ioButton@@UAEPBDH@Z
	DD	FLAT:?GetRenderFrame@ioButton@@UAEPAPAVioUIRenderElement@@PBD@Z
	DD	FLAT:?GetNumFixedRenderImage@ioButton@@UBEHXZ
	DD	FLAT:?GetFixedRenderImageType@ioButton@@UAEPBDH@Z
	DD	FLAT:?GetRenderImage@ioButton@@UAEPAPAVioUIRenderElement@@PBD@Z
	DD	FLAT:?AddEffect@ioWnd@@UAEXABVioHashString@@PAVioUI3DEffectRender@@@Z
	DD	FLAT:?GetEffect@ioWnd@@UAEPAVioUI3DEffectRender@@VioHashString@@@Z
	DD	FLAT:??_EioHousingBlockInvenIcon@@UAEPAXI@Z
	DD	FLAT:?OnDrawNormal@ioHousingBlockInvenIcon@@UAEXHH@Z
	DD	FLAT:?OnDrawOvered@ioHousingBlockInvenIcon@@UAEXHH@Z
	DD	FLAT:?OnDrawOveredAdd@ioButton@@MAEXHH@Z
	DD	FLAT:?OnDrawPushed@ioHousingBlockInvenIcon@@UAEXHH@Z
	DD	FLAT:?OnDrawDisabled@ioHousingBlockInvenIcon@@UAEXHH@Z
	DD	FLAT:?OnDrawExDisabledNormal@ioButton@@MAEXHH@Z
	DD	FLAT:?OnDrawExDisabledOvered@ioButton@@MAEXHH@Z
	DD	FLAT:?OnDrawExDisabledPushed@ioButton@@MAEXHH@Z
	DD	FLAT:?OnDrawBack@ioButton@@MAEXHH@Z
	DD	FLAT:?OnDrawNormalList@ioButton@@MAEXHH@Z
	DD	FLAT:?OnDrawDisableList@ioButton@@MAEXHH@Z
; Function compile flags: /Ogsp
CONST	ENDS
;	COMDAT ??0ioHousingBlockInvenIcon@@QAE@XZ
_TEXT	SEGMENT
??0ioHousingBlockInvenIcon@@QAE@XZ PROC			; ioHousingBlockInvenIcon::ioHousingBlockInvenIcon, COMDAT
; _this$ = ecx

; 16   : {

  00000	56		 push	 esi
  00001	8b f1		 mov	 esi, ecx
  00003	ff 15 00 00 00
	00		 call	 DWORD PTR __imp_??0ioButton@@QAE@XZ

; 17   : 	m_pIcon		= NULL;

  00009	83 a6 00 02 00
	00 00		 and	 DWORD PTR [esi+512], 0

; 18   : 	m_pIconBack	= NULL;

  00010	83 a6 fc 01 00
	00 00		 and	 DWORD PTR [esi+508], 0
  00017	c7 06 00 00 00
	00		 mov	 DWORD PTR [esi], OFFSET ??_7ioHousingBlockInvenIcon@@6B@

; 19   : }

  0001d	8b c6		 mov	 eax, esi
  0001f	5e		 pop	 esi
  00020	c3		 ret	 0
??0ioHousingBlockInvenIcon@@QAE@XZ ENDP			; ioHousingBlockInvenIcon::ioHousingBlockInvenIcon
_TEXT	ENDS
PUBLIC	??1ioHousingBlockInvenIcon@@UAE@XZ		; ioHousingBlockInvenIcon::~ioHousingBlockInvenIcon
EXTRN	__imp_??1ioButton@@UAE@XZ:PROC
EXTRN	___CxxFrameHandler3:PROC
EXTRN	@__security_check_cookie@4:PROC
EXTRN	__EH_epilog3:PROC
EXTRN	__EH_prolog3:PROC
;	COMDAT xdata$x
xdata$x	SEGMENT
__unwindtable$??1ioHousingBlockInvenIcon@@UAE@XZ DD 0ffffffffH
	DD	FLAT:__unwindfunclet$??1ioHousingBlockInvenIcon@@UAE@XZ$0
__ehfuncinfo$??1ioHousingBlockInvenIcon@@UAE@XZ DD 019930522H
	DD	01H
	DD	FLAT:__unwindtable$??1ioHousingBlockInvenIcon@@UAE@XZ
	DD	2 DUP(00H)
	DD	2 DUP(00H)
	DD	00H
	DD	01H
; Function compile flags: /Ogsp
xdata$x	ENDS
;	COMDAT ??1ioHousingBlockInvenIcon@@UAE@XZ
_TEXT	SEGMENT
_this$ = -16						; size = 4
__$EHRec$ = -12						; size = 12
??1ioHousingBlockInvenIcon@@UAE@XZ PROC			; ioHousingBlockInvenIcon::~ioHousingBlockInvenIcon, COMDAT
; _this$ = ecx

; 22   : {

  00000	6a 04		 push	 4
  00002	b8 00 00 00 00	 mov	 eax, __ehhandler$??1ioHousingBlockInvenIcon@@UAE@XZ
  00007	e8 00 00 00 00	 call	 __EH_prolog3
  0000c	8b f9		 mov	 edi, ecx
  0000e	89 7d f0	 mov	 DWORD PTR _this$[ebp], edi
  00011	c7 07 00 00 00
	00		 mov	 DWORD PTR [edi], OFFSET ??_7ioHousingBlockInvenIcon@@6B@

; 23   : 	SAFEDELETE( m_pIconBack );

  00017	8b 8f fc 01 00
	00		 mov	 ecx, DWORD PTR [edi+508]
  0001d	83 65 fc 00	 and	 DWORD PTR __$EHRec$[ebp+8], 0
  00021	85 c9		 test	 ecx, ecx
  00023	74 0e		 je	 SHORT $LN2@ioHousingB
  00025	8b 01		 mov	 eax, DWORD PTR [ecx]
  00027	6a 01		 push	 1
  00029	ff 50 40	 call	 DWORD PTR [eax+64]
  0002c	83 a7 fc 01 00
	00 00		 and	 DWORD PTR [edi+508], 0
$LN2@ioHousingB:

; 24   : 	SAFEDELETE( m_pIcon );

  00033	8b 8f 00 02 00
	00		 mov	 ecx, DWORD PTR [edi+512]
  00039	85 c9		 test	 ecx, ecx
  0003b	74 0e		 je	 SHORT $LN1@ioHousingB
  0003d	8b 01		 mov	 eax, DWORD PTR [ecx]
  0003f	6a 01		 push	 1
  00041	ff 50 40	 call	 DWORD PTR [eax+64]
  00044	83 a7 00 02 00
	00 00		 and	 DWORD PTR [edi+512], 0
$LN1@ioHousingB:

; 25   : }

  0004b	83 4d fc ff	 or	 DWORD PTR __$EHRec$[ebp+8], -1
  0004f	8b cf		 mov	 ecx, edi
  00051	ff 15 00 00 00
	00		 call	 DWORD PTR __imp_??1ioButton@@UAE@XZ
  00057	e8 00 00 00 00	 call	 __EH_epilog3
  0005c	c3		 ret	 0
_TEXT	ENDS
;	COMDAT text$x
text$x	SEGMENT
__unwindfunclet$??1ioHousingBlockInvenIcon@@UAE@XZ$0:
  00000	8b 4d f0	 mov	 ecx, DWORD PTR _this$[ebp]
  00003	ff 25 00 00 00
	00		 jmp	 DWORD PTR __imp_??1ioButton@@UAE@XZ
__ehhandler$??1ioHousingBlockInvenIcon@@UAE@XZ:
  00009	8b 54 24 08	 mov	 edx, DWORD PTR [esp+8]
  0000d	8d 42 0c	 lea	 eax, DWORD PTR [edx+12]
  00010	8b 4a ec	 mov	 ecx, DWORD PTR [edx-20]
  00013	33 c8		 xor	 ecx, eax
  00015	e8 00 00 00 00	 call	 @__security_check_cookie@4
  0001a	b8 00 00 00 00	 mov	 eax, OFFSET __ehfuncinfo$??1ioHousingBlockInvenIcon@@UAE@XZ
  0001f	e9 00 00 00 00	 jmp	 ___CxxFrameHandler3
text$x	ENDS
??1ioHousingBlockInvenIcon@@UAE@XZ ENDP			; ioHousingBlockInvenIcon::~ioHousingBlockInvenIcon
PUBLIC	__real@3f400000
PUBLIC	?SetIcon@ioHousingBlockInvenIcon@@QAEXABVioHashString@@@Z ; ioHousingBlockInvenIcon::SetIcon
EXTRN	__imp_??1ioHashString@@QAE@XZ:PROC
EXTRN	__imp_?CreateImageByFullName@ioUIImageSetManager@@QAEPAVioUIRenderImage@@ABVioHashString@@_N@Z:PROC
EXTRN	__imp_?GetSingleton@ioUIImageSetManager@@SAAAV1@XZ:PROC
EXTRN	__imp_??0ioHashString@@QAE@PBD@Z:PROC
EXTRN	__imp_?c_str@ioHashString@@QBEPBDXZ:PROC
EXTRN	__fltused:DWORD
;	COMDAT __real@3f400000
CONST	SEGMENT
__real@3f400000 DD 03f400000r			; 0.75
CONST	ENDS
;	COMDAT xdata$x
xdata$x	SEGMENT
__unwindtable$?SetIcon@ioHousingBlockInvenIcon@@QAEXABVioHashString@@@Z DD 0ffffffffH
	DD	FLAT:__unwindfunclet$?SetIcon@ioHousingBlockInvenIcon@@QAEXABVioHashString@@@Z$0
__ehfuncinfo$?SetIcon@ioHousingBlockInvenIcon@@QAEXABVioHashString@@@Z DD 019930522H
	DD	01H
	DD	FLAT:__unwindtable$?SetIcon@ioHousingBlockInvenIcon@@QAEXABVioHashString@@@Z
	DD	2 DUP(00H)
	DD	2 DUP(00H)
	DD	00H
	DD	01H
; Function compile flags: /Ogsp
xdata$x	ENDS
;	COMDAT ?SetIcon@ioHousingBlockInvenIcon@@QAEXABVioHashString@@@Z
_TEXT	SEGMENT
$T518414 = -28						; size = 16
__$EHRec$ = -12						; size = 12
_szName$ = 8						; size = 4
?SetIcon@ioHousingBlockInvenIcon@@QAEXABVioHashString@@@Z PROC ; ioHousingBlockInvenIcon::SetIcon, COMDAT
; _this$ = ecx

; 41   : {

  00000	6a 10		 push	 16			; 00000010H
  00002	b8 00 00 00 00	 mov	 eax, __ehhandler$?SetIcon@ioHousingBlockInvenIcon@@QAEXABVioHashString@@@Z
  00007	e8 00 00 00 00	 call	 __EH_prolog3
  0000c	8b f1		 mov	 esi, ecx

; 42   : 	SAFEDELETE( m_pIcon );

  0000e	8b 8e 00 02 00
	00		 mov	 ecx, DWORD PTR [esi+512]
  00014	85 c9		 test	 ecx, ecx
  00016	74 0e		 je	 SHORT $LN3@SetIcon
  00018	8b 01		 mov	 eax, DWORD PTR [ecx]
  0001a	6a 01		 push	 1
  0001c	ff 50 40	 call	 DWORD PTR [eax+64]
  0001f	83 a6 00 02 00
	00 00		 and	 DWORD PTR [esi+512], 0
$LN3@SetIcon:

; 43   : 	m_pIcon = g_UIImageSetMgr.CreateImageByFullName( szName.c_str() );

  00026	8b 4d 08	 mov	 ecx, DWORD PTR _szName$[ebp]
  00029	ff 15 00 00 00
	00		 call	 DWORD PTR __imp_?c_str@ioHashString@@QBEPBDXZ
  0002f	50		 push	 eax
  00030	8d 4d e4	 lea	 ecx, DWORD PTR $T518414[ebp]
  00033	ff 15 00 00 00
	00		 call	 DWORD PTR __imp_??0ioHashString@@QAE@PBD@Z
  00039	83 65 fc 00	 and	 DWORD PTR __$EHRec$[ebp+8], 0
  0003d	8d 45 e4	 lea	 eax, DWORD PTR $T518414[ebp]
  00040	6a 00		 push	 0
  00042	50		 push	 eax
  00043	ff 15 00 00 00
	00		 call	 DWORD PTR __imp_?GetSingleton@ioUIImageSetManager@@SAAAV1@XZ
  00049	8b c8		 mov	 ecx, eax
  0004b	ff 15 00 00 00
	00		 call	 DWORD PTR __imp_?CreateImageByFullName@ioUIImageSetManager@@QAEPAVioUIRenderImage@@ABVioHashString@@_N@Z
  00051	83 4d fc ff	 or	 DWORD PTR __$EHRec$[ebp+8], -1
  00055	8d 4d e4	 lea	 ecx, DWORD PTR $T518414[ebp]
  00058	89 86 00 02 00
	00		 mov	 DWORD PTR [esi+512], eax
  0005e	ff 15 00 00 00
	00		 call	 DWORD PTR __imp_??1ioHashString@@QAE@XZ

; 44   : 
; 45   : 	if( m_pIconBack )

  00064	8b 8e fc 01 00
	00		 mov	 ecx, DWORD PTR [esi+508]
  0006a	f3 0f 10 05 00
	00 00 00	 movss	 xmm0, DWORD PTR __real@3f400000
  00072	85 c9		 test	 ecx, ecx
  00074	74 1a		 je	 SHORT $LN2@SetIcon

; 46   : 		m_pIconBack->SetScale( 0.75f, 0.75f );

  00076	8b 01		 mov	 eax, DWORD PTR [ecx]
  00078	51		 push	 ecx
  00079	51		 push	 ecx
  0007a	f3 0f 11 44 24
	04		 movss	 DWORD PTR [esp+4], xmm0
  00080	f3 0f 11 04 24	 movss	 DWORD PTR [esp], xmm0
  00085	ff 50 18	 call	 DWORD PTR [eax+24]
  00088	f3 0f 10 05 00
	00 00 00	 movss	 xmm0, DWORD PTR __real@3f400000
$LN2@SetIcon:

; 47   : 
; 48   : 	if( m_pIcon )

  00090	8b 8e 00 02 00
	00		 mov	 ecx, DWORD PTR [esi+512]
  00096	85 c9		 test	 ecx, ecx
  00098	74 12		 je	 SHORT $LN1@SetIcon

; 49   : 		m_pIcon->SetScale( 0.75f, 0.75f );

  0009a	8b 01		 mov	 eax, DWORD PTR [ecx]
  0009c	51		 push	 ecx
  0009d	51		 push	 ecx
  0009e	f3 0f 11 44 24
	04		 movss	 DWORD PTR [esp+4], xmm0
  000a4	f3 0f 11 04 24	 movss	 DWORD PTR [esp], xmm0
  000a9	ff 50 18	 call	 DWORD PTR [eax+24]
$LN1@SetIcon:

; 50   : }

  000ac	e8 00 00 00 00	 call	 __EH_epilog3
  000b1	c2 04 00	 ret	 4
_TEXT	ENDS
;	COMDAT text$x
text$x	SEGMENT
__unwindfunclet$?SetIcon@ioHousingBlockInvenIcon@@QAEXABVioHashString@@@Z$0:
  00000	8d 4d e4	 lea	 ecx, DWORD PTR $T518414[ebp]
  00003	ff 25 00 00 00
	00		 jmp	 DWORD PTR __imp_??1ioHashString@@QAE@XZ
__ehhandler$?SetIcon@ioHousingBlockInvenIcon@@QAEXABVioHashString@@@Z:
  00009	8b 54 24 08	 mov	 edx, DWORD PTR [esp+8]
  0000d	8d 42 0c	 lea	 eax, DWORD PTR [edx+12]
  00010	8b 4a e0	 mov	 ecx, DWORD PTR [edx-32]
  00013	33 c8		 xor	 ecx, eax
  00015	e8 00 00 00 00	 call	 @__security_check_cookie@4
  0001a	b8 00 00 00 00	 mov	 eax, OFFSET __ehfuncinfo$?SetIcon@ioHousingBlockInvenIcon@@QAEXABVioHashString@@@Z
  0001f	e9 00 00 00 00	 jmp	 ___CxxFrameHandler3
text$x	ENDS
?SetIcon@ioHousingBlockInvenIcon@@QAEXABVioHashString@@@Z ENDP ; ioHousingBlockInvenIcon::SetIcon
EXTRN	__imp_?GetWidth@ioWnd@@QBEHXZ:PROC
EXTRN	__imp_?GetHeight@ioWnd@@QBEHXZ:PROC
EXTRN	__imp_?OnDrawNormal@ioButton@@MAEXHH@Z:PROC
; Function compile flags: /Ogsp
;	COMDAT ?OnDrawNormal@ioHousingBlockInvenIcon@@UAEXHH@Z
_TEXT	SEGMENT
_iXPos$ = 8						; size = 4
_iYPos$ = 12						; size = 4
?OnDrawNormal@ioHousingBlockInvenIcon@@UAEXHH@Z PROC	; ioHousingBlockInvenIcon::OnDrawNormal, COMDAT
; _this$ = ecx

; 53   : {

  00000	55		 push	 ebp
  00001	8b ec		 mov	 ebp, esp
  00003	53		 push	 ebx
  00004	56		 push	 esi
  00005	57		 push	 edi

; 54   : 	ioButton::OnDrawNormal( iXPos, iYPos );

  00006	ff 75 0c	 push	 DWORD PTR _iYPos$[ebp]
  00009	8b f1		 mov	 esi, ecx
  0000b	ff 75 08	 push	 DWORD PTR _iXPos$[ebp]
  0000e	ff 15 00 00 00
	00		 call	 DWORD PTR __imp_?OnDrawNormal@ioButton@@MAEXHH@Z

; 55   : 
; 56   : 	if( m_pIconBack )

  00014	33 ff		 xor	 edi, edi
  00016	39 be fc 01 00
	00		 cmp	 DWORD PTR [esi+508], edi
  0001c	74 50		 je	 SHORT $LN2@OnDrawNorm

; 57   : 		m_pIconBack->Render( iXPos + GetWidth() / 2, iYPos + GetHeight() / 2, UI_RENDER_MULTIPLY, TFO_BILINEAR );	

  0001e	8b 86 fc 01 00
	00		 mov	 eax, DWORD PTR [esi+508]
  00024	8b 18		 mov	 ebx, DWORD PTR [eax]
  00026	57		 push	 edi
  00027	57		 push	 edi
  00028	6a 01		 push	 1
  0002a	6a 08		 push	 8
  0002c	8b ce		 mov	 ecx, esi
  0002e	ff 15 00 00 00
	00		 call	 DWORD PTR __imp_?GetHeight@ioWnd@@QBEHXZ
  00034	99		 cdq
  00035	2b c2		 sub	 eax, edx
  00037	d1 f8		 sar	 eax, 1
  00039	03 45 0c	 add	 eax, DWORD PTR _iYPos$[ebp]
  0003c	51		 push	 ecx
  0003d	0f 57 c0	 xorps	 xmm0, xmm0
  00040	f3 0f 2a c0	 cvtsi2ss xmm0, eax
  00044	8b ce		 mov	 ecx, esi
  00046	f3 0f 11 04 24	 movss	 DWORD PTR [esp], xmm0
  0004b	ff 15 00 00 00
	00		 call	 DWORD PTR __imp_?GetWidth@ioWnd@@QBEHXZ
  00051	99		 cdq
  00052	2b c2		 sub	 eax, edx
  00054	d1 f8		 sar	 eax, 1
  00056	03 45 08	 add	 eax, DWORD PTR _iXPos$[ebp]
  00059	51		 push	 ecx
  0005a	8b 8e fc 01 00
	00		 mov	 ecx, DWORD PTR [esi+508]
  00060	0f 57 c0	 xorps	 xmm0, xmm0
  00063	f3 0f 2a c0	 cvtsi2ss xmm0, eax
  00067	f3 0f 11 04 24	 movss	 DWORD PTR [esp], xmm0
  0006c	ff 13		 call	 DWORD PTR [ebx]
$LN2@OnDrawNorm:

; 58   : 
; 59   : 	if( m_pIcon )

  0006e	39 be 00 02 00
	00		 cmp	 DWORD PTR [esi+512], edi
  00074	74 4f		 je	 SHORT $LN1@OnDrawNorm

; 60   : 		m_pIcon->Render( iXPos + GetWidth() / 2, iYPos + GetHeight() / 2, UI_RENDER_NORMAL, TFO_BILINEAR );

  00076	8b 86 00 02 00
	00		 mov	 eax, DWORD PTR [esi+512]
  0007c	8b 18		 mov	 ebx, DWORD PTR [eax]
  0007e	57		 push	 edi
  0007f	57		 push	 edi
  00080	6a 01		 push	 1
  00082	57		 push	 edi
  00083	8b ce		 mov	 ecx, esi
  00085	ff 15 00 00 00
	00		 call	 DWORD PTR __imp_?GetHeight@ioWnd@@QBEHXZ
  0008b	99		 cdq
  0008c	2b c2		 sub	 eax, edx
  0008e	d1 f8		 sar	 eax, 1
  00090	03 45 0c	 add	 eax, DWORD PTR _iYPos$[ebp]
  00093	51		 push	 ecx
  00094	0f 57 c0	 xorps	 xmm0, xmm0
  00097	f3 0f 2a c0	 cvtsi2ss xmm0, eax
  0009b	8b ce		 mov	 ecx, esi
  0009d	f3 0f 11 04 24	 movss	 DWORD PTR [esp], xmm0
  000a2	ff 15 00 00 00
	00		 call	 DWORD PTR __imp_?GetWidth@ioWnd@@QBEHXZ
  000a8	99		 cdq
  000a9	2b c2		 sub	 eax, edx
  000ab	d1 f8		 sar	 eax, 1
  000ad	03 45 08	 add	 eax, DWORD PTR _iXPos$[ebp]
  000b0	51		 push	 ecx
  000b1	8b 8e 00 02 00
	00		 mov	 ecx, DWORD PTR [esi+512]
  000b7	0f 57 c0	 xorps	 xmm0, xmm0
  000ba	f3 0f 2a c0	 cvtsi2ss xmm0, eax
  000be	f3 0f 11 04 24	 movss	 DWORD PTR [esp], xmm0
  000c3	ff 13		 call	 DWORD PTR [ebx]
$LN1@OnDrawNorm:
  000c5	5f		 pop	 edi
  000c6	5e		 pop	 esi
  000c7	5b		 pop	 ebx

; 61   : }

  000c8	5d		 pop	 ebp
  000c9	c2 08 00	 ret	 8
?OnDrawNormal@ioHousingBlockInvenIcon@@UAEXHH@Z ENDP	; ioHousingBlockInvenIcon::OnDrawNormal
_TEXT	ENDS
EXTRN	__imp_?OnDrawOvered@ioButton@@MAEXHH@Z:PROC
EXTRN	__imp_?HasWndStyle@ioWnd@@QBE_NK@Z:PROC
; Function compile flags: /Ogsp
;	COMDAT ?OnDrawOvered@ioHousingBlockInvenIcon@@UAEXHH@Z
_TEXT	SEGMENT
_iXPos$ = 8						; size = 4
_iYPos$ = 12						; size = 4
?OnDrawOvered@ioHousingBlockInvenIcon@@UAEXHH@Z PROC	; ioHousingBlockInvenIcon::OnDrawOvered, COMDAT
; _this$ = ecx

; 64   : {

  00000	55		 push	 ebp
  00001	8b ec		 mov	 ebp, esp
  00003	53		 push	 ebx
  00004	56		 push	 esi
  00005	57		 push	 edi

; 65   : 	if( HasWndStyle( IWS_INACTIVE ) )

  00006	6a 02		 push	 2
  00008	8b f1		 mov	 esi, ecx
  0000a	ff 15 00 00 00
	00		 call	 DWORD PTR __imp_?HasWndStyle@ioWnd@@QBE_NK@Z

; 66   : 	{
; 67   : 		ioButton::OnDrawNormal( iXPos, iYPos );

  00010	ff 75 0c	 push	 DWORD PTR _iYPos$[ebp]
  00013	8b ce		 mov	 ecx, esi
  00015	ff 75 08	 push	 DWORD PTR _iXPos$[ebp]
  00018	84 c0		 test	 al, al
  0001a	74 77		 je	 SHORT $LN6@OnDrawOver
  0001c	ff 15 00 00 00
	00		 call	 DWORD PTR __imp_?OnDrawNormal@ioButton@@MAEXHH@Z

; 68   : 
; 69   : 		if( m_pIconBack )

  00022	33 ff		 xor	 edi, edi
  00024	39 be fc 01 00
	00		 cmp	 DWORD PTR [esi+508], edi
  0002a	74 50		 je	 SHORT $LN9@OnDrawOver

; 70   : 			m_pIconBack->Render( iXPos + GetWidth() / 2, iYPos + GetHeight() / 2, UI_RENDER_MULTIPLY, TFO_BILINEAR );

  0002c	8b 86 fc 01 00
	00		 mov	 eax, DWORD PTR [esi+508]
  00032	8b 18		 mov	 ebx, DWORD PTR [eax]
  00034	57		 push	 edi
  00035	57		 push	 edi
  00036	6a 01		 push	 1
  00038	6a 08		 push	 8
  0003a	8b ce		 mov	 ecx, esi
  0003c	ff 15 00 00 00
	00		 call	 DWORD PTR __imp_?GetHeight@ioWnd@@QBEHXZ
  00042	99		 cdq
  00043	2b c2		 sub	 eax, edx
  00045	d1 f8		 sar	 eax, 1
  00047	03 45 0c	 add	 eax, DWORD PTR _iYPos$[ebp]
  0004a	51		 push	 ecx
  0004b	0f 57 c0	 xorps	 xmm0, xmm0
  0004e	f3 0f 2a c0	 cvtsi2ss xmm0, eax
  00052	8b ce		 mov	 ecx, esi
  00054	f3 0f 11 04 24	 movss	 DWORD PTR [esp], xmm0
  00059	ff 15 00 00 00
	00		 call	 DWORD PTR __imp_?GetWidth@ioWnd@@QBEHXZ
  0005f	99		 cdq
  00060	2b c2		 sub	 eax, edx
  00062	d1 f8		 sar	 eax, 1
  00064	03 45 08	 add	 eax, DWORD PTR _iXPos$[ebp]
  00067	51		 push	 ecx
  00068	8b 8e fc 01 00
	00		 mov	 ecx, DWORD PTR [esi+508]
  0006e	0f 57 c0	 xorps	 xmm0, xmm0
  00071	f3 0f 2a c0	 cvtsi2ss xmm0, eax
  00075	f3 0f 11 04 24	 movss	 DWORD PTR [esp], xmm0
  0007a	ff 13		 call	 DWORD PTR [ebx]
$LN9@OnDrawOver:

; 71   : 
; 72   : 		if( m_pIcon )

  0007c	39 be 00 02 00
	00		 cmp	 DWORD PTR [esi+512], edi
  00082	0f 84 16 01 00
	00		 je	 $LN1@OnDrawOver

; 73   : 			m_pIcon->Render( iXPos + GetWidth() / 2, iYPos + GetHeight() / 2, UI_RENDER_GRAY, TFO_BILINEAR );

  00088	57		 push	 edi
  00089	57		 push	 edi
  0008a	6a 01		 push	 1
  0008c	6a 02		 push	 2

; 74   : 	}
; 75   : 	else

  0008e	e9 c1 00 00 00	 jmp	 $LN10@OnDrawOver
$LN6@OnDrawOver:

; 76   : 	{
; 77   : 		ioButton::OnDrawOvered( iXPos, iYPos );

  00093	ff 15 00 00 00
	00		 call	 DWORD PTR __imp_?OnDrawOvered@ioButton@@MAEXHH@Z

; 78   : 		if( m_pIconBack )

  00099	33 ff		 xor	 edi, edi
  0009b	39 be fc 01 00
	00		 cmp	 DWORD PTR [esi+508], edi
  000a1	74 50		 je	 SHORT $LN2@OnDrawOver

; 79   : 			m_pIconBack->Render( iXPos + GetWidth() / 2, iYPos + GetHeight() / 2, UI_RENDER_MULTIPLY, TFO_BILINEAR );

  000a3	8b 86 fc 01 00
	00		 mov	 eax, DWORD PTR [esi+508]
  000a9	8b 18		 mov	 ebx, DWORD PTR [eax]
  000ab	57		 push	 edi
  000ac	57		 push	 edi
  000ad	6a 01		 push	 1
  000af	6a 08		 push	 8
  000b1	8b ce		 mov	 ecx, esi
  000b3	ff 15 00 00 00
	00		 call	 DWORD PTR __imp_?GetHeight@ioWnd@@QBEHXZ
  000b9	99		 cdq
  000ba	2b c2		 sub	 eax, edx
  000bc	d1 f8		 sar	 eax, 1
  000be	03 45 0c	 add	 eax, DWORD PTR _iYPos$[ebp]
  000c1	51		 push	 ecx
  000c2	0f 57 c0	 xorps	 xmm0, xmm0
  000c5	f3 0f 2a c0	 cvtsi2ss xmm0, eax
  000c9	8b ce		 mov	 ecx, esi
  000cb	f3 0f 11 04 24	 movss	 DWORD PTR [esp], xmm0
  000d0	ff 15 00 00 00
	00		 call	 DWORD PTR __imp_?GetWidth@ioWnd@@QBEHXZ
  000d6	99		 cdq
  000d7	2b c2		 sub	 eax, edx
  000d9	d1 f8		 sar	 eax, 1
  000db	03 45 08	 add	 eax, DWORD PTR _iXPos$[ebp]
  000de	51		 push	 ecx
  000df	8b 8e fc 01 00
	00		 mov	 ecx, DWORD PTR [esi+508]
  000e5	0f 57 c0	 xorps	 xmm0, xmm0
  000e8	f3 0f 2a c0	 cvtsi2ss xmm0, eax
  000ec	f3 0f 11 04 24	 movss	 DWORD PTR [esp], xmm0
  000f1	ff 13		 call	 DWORD PTR [ebx]
$LN2@OnDrawOver:

; 80   : 
; 81   : 		if( m_pIcon )

  000f3	39 be 00 02 00
	00		 cmp	 DWORD PTR [esi+512], edi
  000f9	0f 84 9f 00 00
	00		 je	 $LN1@OnDrawOver

; 82   : 		{
; 83   : 			m_pIcon->Render( iXPos + GetWidth() / 2, iYPos + GetHeight() / 2, UI_RENDER_NORMAL, TFO_BILINEAR );		

  000ff	8b 86 00 02 00
	00		 mov	 eax, DWORD PTR [esi+512]
  00105	8b 18		 mov	 ebx, DWORD PTR [eax]
  00107	57		 push	 edi
  00108	57		 push	 edi
  00109	6a 01		 push	 1
  0010b	57		 push	 edi
  0010c	8b ce		 mov	 ecx, esi
  0010e	ff 15 00 00 00
	00		 call	 DWORD PTR __imp_?GetHeight@ioWnd@@QBEHXZ
  00114	99		 cdq
  00115	2b c2		 sub	 eax, edx
  00117	d1 f8		 sar	 eax, 1
  00119	03 45 0c	 add	 eax, DWORD PTR _iYPos$[ebp]
  0011c	51		 push	 ecx
  0011d	0f 57 c0	 xorps	 xmm0, xmm0
  00120	f3 0f 2a c0	 cvtsi2ss xmm0, eax
  00124	8b ce		 mov	 ecx, esi
  00126	f3 0f 11 04 24	 movss	 DWORD PTR [esp], xmm0
  0012b	ff 15 00 00 00
	00		 call	 DWORD PTR __imp_?GetWidth@ioWnd@@QBEHXZ
  00131	99		 cdq
  00132	2b c2		 sub	 eax, edx
  00134	d1 f8		 sar	 eax, 1
  00136	03 45 08	 add	 eax, DWORD PTR _iXPos$[ebp]
  00139	51		 push	 ecx
  0013a	8b 8e 00 02 00
	00		 mov	 ecx, DWORD PTR [esi+512]
  00140	0f 57 c0	 xorps	 xmm0, xmm0
  00143	f3 0f 2a c0	 cvtsi2ss xmm0, eax
  00147	f3 0f 11 04 24	 movss	 DWORD PTR [esp], xmm0
  0014c	ff 13		 call	 DWORD PTR [ebx]

; 84   : 			m_pIcon->Render( iXPos + GetWidth() / 2, iYPos + GetHeight() / 2, UI_RENDER_SCREEN, TFO_BILINEAR );

  0014e	57		 push	 edi
  0014f	57		 push	 edi
  00150	6a 01		 push	 1
  00152	6a 01		 push	 1
$LN10@OnDrawOver:
  00154	8b 86 00 02 00
	00		 mov	 eax, DWORD PTR [esi+512]
  0015a	8b 18		 mov	 ebx, DWORD PTR [eax]
  0015c	8b ce		 mov	 ecx, esi
  0015e	ff 15 00 00 00
	00		 call	 DWORD PTR __imp_?GetHeight@ioWnd@@QBEHXZ
  00164	99		 cdq
  00165	2b c2		 sub	 eax, edx
  00167	d1 f8		 sar	 eax, 1
  00169	03 45 0c	 add	 eax, DWORD PTR _iYPos$[ebp]
  0016c	51		 push	 ecx
  0016d	0f 57 c0	 xorps	 xmm0, xmm0
  00170	f3 0f 2a c0	 cvtsi2ss xmm0, eax
  00174	8b ce		 mov	 ecx, esi
  00176	f3 0f 11 04 24	 movss	 DWORD PTR [esp], xmm0
  0017b	ff 15 00 00 00
	00		 call	 DWORD PTR __imp_?GetWidth@ioWnd@@QBEHXZ
  00181	99		 cdq
  00182	2b c2		 sub	 eax, edx
  00184	d1 f8		 sar	 eax, 1
  00186	03 45 08	 add	 eax, DWORD PTR _iXPos$[ebp]
  00189	51		 push	 ecx
  0018a	8b 8e 00 02 00
	00		 mov	 ecx, DWORD PTR [esi+512]
  00190	0f 57 c0	 xorps	 xmm0, xmm0
  00193	f3 0f 2a c0	 cvtsi2ss xmm0, eax
  00197	f3 0f 11 04 24	 movss	 DWORD PTR [esp], xmm0
  0019c	ff 13		 call	 DWORD PTR [ebx]
$LN1@OnDrawOver:
  0019e	5f		 pop	 edi
  0019f	5e		 pop	 esi
  001a0	5b		 pop	 ebx

; 85   : 		}
; 86   : 	}
; 87   : }

  001a1	5d		 pop	 ebp
  001a2	c2 08 00	 ret	 8
?OnDrawOvered@ioHousingBlockInvenIcon@@UAEXHH@Z ENDP	; ioHousingBlockInvenIcon::OnDrawOvered
; Function compile flags: /Ogsp
_TEXT	ENDS
;	COMDAT ?OnDrawPushed@ioHousingBlockInvenIcon@@UAEXHH@Z
_TEXT	SEGMENT
_iXPos$ = 8						; size = 4
_iYPos$ = 12						; size = 4
?OnDrawPushed@ioHousingBlockInvenIcon@@UAEXHH@Z PROC	; ioHousingBlockInvenIcon::OnDrawPushed, COMDAT
; _this$ = ecx

; 90   : {

  00000	55		 push	 ebp
  00001	8b ec		 mov	 ebp, esp
  00003	53		 push	 ebx
  00004	56		 push	 esi
  00005	57		 push	 edi

; 91   : 	if( HasWndStyle( IWS_INACTIVE ) )

  00006	6a 02		 push	 2
  00008	8b f1		 mov	 esi, ecx
  0000a	ff 15 00 00 00
	00		 call	 DWORD PTR __imp_?HasWndStyle@ioWnd@@QBE_NK@Z

; 92   : 	{
; 93   : 		ioButton::OnDrawNormal( iXPos, iYPos );

  00010	ff 75 0c	 push	 DWORD PTR _iYPos$[ebp]
  00013	8b ce		 mov	 ecx, esi
  00015	ff 75 08	 push	 DWORD PTR _iXPos$[ebp]
  00018	84 c0		 test	 al, al
  0001a	74 77		 je	 SHORT $LN6@OnDrawPush
  0001c	ff 15 00 00 00
	00		 call	 DWORD PTR __imp_?OnDrawNormal@ioButton@@MAEXHH@Z

; 94   : 
; 95   : 		if( m_pIconBack )

  00022	33 ff		 xor	 edi, edi
  00024	39 be fc 01 00
	00		 cmp	 DWORD PTR [esi+508], edi
  0002a	74 50		 je	 SHORT $LN9@OnDrawPush

; 96   : 			m_pIconBack->Render( iXPos + GetWidth() / 2, iYPos + GetHeight() / 2, UI_RENDER_MULTIPLY, TFO_BILINEAR );

  0002c	8b 86 fc 01 00
	00		 mov	 eax, DWORD PTR [esi+508]
  00032	8b 18		 mov	 ebx, DWORD PTR [eax]
  00034	57		 push	 edi
  00035	57		 push	 edi
  00036	6a 01		 push	 1
  00038	6a 08		 push	 8
  0003a	8b ce		 mov	 ecx, esi
  0003c	ff 15 00 00 00
	00		 call	 DWORD PTR __imp_?GetHeight@ioWnd@@QBEHXZ
  00042	99		 cdq
  00043	2b c2		 sub	 eax, edx
  00045	d1 f8		 sar	 eax, 1
  00047	03 45 0c	 add	 eax, DWORD PTR _iYPos$[ebp]
  0004a	51		 push	 ecx
  0004b	0f 57 c0	 xorps	 xmm0, xmm0
  0004e	f3 0f 2a c0	 cvtsi2ss xmm0, eax
  00052	8b ce		 mov	 ecx, esi
  00054	f3 0f 11 04 24	 movss	 DWORD PTR [esp], xmm0
  00059	ff 15 00 00 00
	00		 call	 DWORD PTR __imp_?GetWidth@ioWnd@@QBEHXZ
  0005f	99		 cdq
  00060	2b c2		 sub	 eax, edx
  00062	d1 f8		 sar	 eax, 1
  00064	03 45 08	 add	 eax, DWORD PTR _iXPos$[ebp]
  00067	51		 push	 ecx
  00068	8b 8e fc 01 00
	00		 mov	 ecx, DWORD PTR [esi+508]
  0006e	0f 57 c0	 xorps	 xmm0, xmm0
  00071	f3 0f 2a c0	 cvtsi2ss xmm0, eax
  00075	f3 0f 11 04 24	 movss	 DWORD PTR [esp], xmm0
  0007a	ff 13		 call	 DWORD PTR [ebx]
$LN9@OnDrawPush:

; 97   : 
; 98   : 		if( m_pIcon )

  0007c	39 be 00 02 00
	00		 cmp	 DWORD PTR [esi+512], edi
  00082	0f 84 16 01 00
	00		 je	 $LN1@OnDrawPush

; 99   : 			m_pIcon->Render( iXPos + GetWidth() / 2, iYPos + GetHeight() / 2, UI_RENDER_GRAY, TFO_BILINEAR );

  00088	57		 push	 edi
  00089	57		 push	 edi
  0008a	6a 01		 push	 1
  0008c	6a 02		 push	 2

; 100  : 	}
; 101  : 	else

  0008e	e9 c1 00 00 00	 jmp	 $LN10@OnDrawPush
$LN6@OnDrawPush:

; 102  : 	{
; 103  : 		ioButton::OnDrawOvered( iXPos, iYPos );

  00093	ff 15 00 00 00
	00		 call	 DWORD PTR __imp_?OnDrawOvered@ioButton@@MAEXHH@Z

; 104  : 
; 105  : 		if( m_pIconBack )

  00099	33 ff		 xor	 edi, edi
  0009b	39 be fc 01 00
	00		 cmp	 DWORD PTR [esi+508], edi
  000a1	74 50		 je	 SHORT $LN2@OnDrawPush

; 106  : 			m_pIconBack->Render( iXPos + GetWidth() / 2, iYPos + GetHeight() / 2, UI_RENDER_MULTIPLY, TFO_BILINEAR );

  000a3	8b 86 fc 01 00
	00		 mov	 eax, DWORD PTR [esi+508]
  000a9	8b 18		 mov	 ebx, DWORD PTR [eax]
  000ab	57		 push	 edi
  000ac	57		 push	 edi
  000ad	6a 01		 push	 1
  000af	6a 08		 push	 8
  000b1	8b ce		 mov	 ecx, esi
  000b3	ff 15 00 00 00
	00		 call	 DWORD PTR __imp_?GetHeight@ioWnd@@QBEHXZ
  000b9	99		 cdq
  000ba	2b c2		 sub	 eax, edx
  000bc	d1 f8		 sar	 eax, 1
  000be	03 45 0c	 add	 eax, DWORD PTR _iYPos$[ebp]
  000c1	51		 push	 ecx
  000c2	0f 57 c0	 xorps	 xmm0, xmm0
  000c5	f3 0f 2a c0	 cvtsi2ss xmm0, eax
  000c9	8b ce		 mov	 ecx, esi
  000cb	f3 0f 11 04 24	 movss	 DWORD PTR [esp], xmm0
  000d0	ff 15 00 00 00
	00		 call	 DWORD PTR __imp_?GetWidth@ioWnd@@QBEHXZ
  000d6	99		 cdq
  000d7	2b c2		 sub	 eax, edx
  000d9	d1 f8		 sar	 eax, 1
  000db	03 45 08	 add	 eax, DWORD PTR _iXPos$[ebp]
  000de	51		 push	 ecx
  000df	8b 8e fc 01 00
	00		 mov	 ecx, DWORD PTR [esi+508]
  000e5	0f 57 c0	 xorps	 xmm0, xmm0
  000e8	f3 0f 2a c0	 cvtsi2ss xmm0, eax
  000ec	f3 0f 11 04 24	 movss	 DWORD PTR [esp], xmm0
  000f1	ff 13		 call	 DWORD PTR [ebx]
$LN2@OnDrawPush:

; 107  : 
; 108  : 		if( m_pIcon )

  000f3	39 be 00 02 00
	00		 cmp	 DWORD PTR [esi+512], edi
  000f9	0f 84 9f 00 00
	00		 je	 $LN1@OnDrawPush

; 109  : 		{
; 110  : 			m_pIcon->Render( iXPos + GetWidth() / 2, iYPos + GetHeight() / 2, UI_RENDER_NORMAL, TFO_BILINEAR );		

  000ff	8b 86 00 02 00
	00		 mov	 eax, DWORD PTR [esi+512]
  00105	8b 18		 mov	 ebx, DWORD PTR [eax]
  00107	57		 push	 edi
  00108	57		 push	 edi
  00109	6a 01		 push	 1
  0010b	57		 push	 edi
  0010c	8b ce		 mov	 ecx, esi
  0010e	ff 15 00 00 00
	00		 call	 DWORD PTR __imp_?GetHeight@ioWnd@@QBEHXZ
  00114	99		 cdq
  00115	2b c2		 sub	 eax, edx
  00117	d1 f8		 sar	 eax, 1
  00119	03 45 0c	 add	 eax, DWORD PTR _iYPos$[ebp]
  0011c	51		 push	 ecx
  0011d	0f 57 c0	 xorps	 xmm0, xmm0
  00120	f3 0f 2a c0	 cvtsi2ss xmm0, eax
  00124	8b ce		 mov	 ecx, esi
  00126	f3 0f 11 04 24	 movss	 DWORD PTR [esp], xmm0
  0012b	ff 15 00 00 00
	00		 call	 DWORD PTR __imp_?GetWidth@ioWnd@@QBEHXZ
  00131	99		 cdq
  00132	2b c2		 sub	 eax, edx
  00134	d1 f8		 sar	 eax, 1
  00136	03 45 08	 add	 eax, DWORD PTR _iXPos$[ebp]
  00139	51		 push	 ecx
  0013a	8b 8e 00 02 00
	00		 mov	 ecx, DWORD PTR [esi+512]
  00140	0f 57 c0	 xorps	 xmm0, xmm0
  00143	f3 0f 2a c0	 cvtsi2ss xmm0, eax
  00147	f3 0f 11 04 24	 movss	 DWORD PTR [esp], xmm0
  0014c	ff 13		 call	 DWORD PTR [ebx]

; 111  : 			m_pIcon->Render( iXPos + GetWidth() / 2, iYPos + GetHeight() / 2, UI_RENDER_SCREEN, TFO_BILINEAR );

  0014e	57		 push	 edi
  0014f	57		 push	 edi
  00150	6a 01		 push	 1
  00152	6a 01		 push	 1
$LN10@OnDrawPush:
  00154	8b 86 00 02 00
	00		 mov	 eax, DWORD PTR [esi+512]
  0015a	8b 18		 mov	 ebx, DWORD PTR [eax]
  0015c	8b ce		 mov	 ecx, esi
  0015e	ff 15 00 00 00
	00		 call	 DWORD PTR __imp_?GetHeight@ioWnd@@QBEHXZ
  00164	99		 cdq
  00165	2b c2		 sub	 eax, edx
  00167	d1 f8		 sar	 eax, 1
  00169	03 45 0c	 add	 eax, DWORD PTR _iYPos$[ebp]
  0016c	51		 push	 ecx
  0016d	0f 57 c0	 xorps	 xmm0, xmm0
  00170	f3 0f 2a c0	 cvtsi2ss xmm0, eax
  00174	8b ce		 mov	 ecx, esi
  00176	f3 0f 11 04 24	 movss	 DWORD PTR [esp], xmm0
  0017b	ff 15 00 00 00
	00		 call	 DWORD PTR __imp_?GetWidth@ioWnd@@QBEHXZ
  00181	99		 cdq
  00182	2b c2		 sub	 eax, edx
  00184	d1 f8		 sar	 eax, 1
  00186	03 45 08	 add	 eax, DWORD PTR _iXPos$[ebp]
  00189	51		 push	 ecx
  0018a	8b 8e 00 02 00
	00		 mov	 ecx, DWORD PTR [esi+512]
  00190	0f 57 c0	 xorps	 xmm0, xmm0
  00193	f3 0f 2a c0	 cvtsi2ss xmm0, eax
  00197	f3 0f 11 04 24	 movss	 DWORD PTR [esp], xmm0
  0019c	ff 13		 call	 DWORD PTR [ebx]
$LN1@OnDrawPush:
  0019e	5f		 pop	 edi
  0019f	5e		 pop	 esi
  001a0	5b		 pop	 ebx

; 112  : 		}
; 113  : 	}
; 114  : }

  001a1	5d		 pop	 ebp
  001a2	c2 08 00	 ret	 8
?OnDrawPushed@ioHousingBlockInvenIcon@@UAEXHH@Z ENDP	; ioHousingBlockInvenIcon::OnDrawPushed
_TEXT	ENDS
EXTRN	__imp_?OnDrawDisabled@ioButton@@MAEXHH@Z:PROC
; Function compile flags: /Ogsp
;	COMDAT ?OnDrawDisabled@ioHousingBlockInvenIcon@@UAEXHH@Z
_TEXT	SEGMENT
_iXPos$ = 8						; size = 4
_iYPos$ = 12						; size = 4
?OnDrawDisabled@ioHousingBlockInvenIcon@@UAEXHH@Z PROC	; ioHousingBlockInvenIcon::OnDrawDisabled, COMDAT
; _this$ = ecx

; 117  : {

  00000	55		 push	 ebp
  00001	8b ec		 mov	 ebp, esp
  00003	53		 push	 ebx
  00004	56		 push	 esi
  00005	57		 push	 edi

; 118  : 	ioButton::OnDrawDisabled( iXPos, iYPos );

  00006	ff 75 0c	 push	 DWORD PTR _iYPos$[ebp]
  00009	8b f1		 mov	 esi, ecx
  0000b	ff 75 08	 push	 DWORD PTR _iXPos$[ebp]
  0000e	ff 15 00 00 00
	00		 call	 DWORD PTR __imp_?OnDrawDisabled@ioButton@@MAEXHH@Z

; 119  : 
; 120  : 	if( m_pIconBack )

  00014	33 db		 xor	 ebx, ebx
  00016	39 9e fc 01 00
	00		 cmp	 DWORD PTR [esi+508], ebx
  0001c	74 50		 je	 SHORT $LN2@OnDrawDisa

; 121  : 		m_pIconBack->Render( iXPos + GetWidth() / 2, iYPos + GetHeight() / 2, UI_RENDER_MULTIPLY, TFO_BILINEAR );

  0001e	8b 86 fc 01 00
	00		 mov	 eax, DWORD PTR [esi+508]
  00024	8b 38		 mov	 edi, DWORD PTR [eax]
  00026	53		 push	 ebx
  00027	53		 push	 ebx
  00028	6a 01		 push	 1
  0002a	6a 08		 push	 8
  0002c	8b ce		 mov	 ecx, esi
  0002e	ff 15 00 00 00
	00		 call	 DWORD PTR __imp_?GetHeight@ioWnd@@QBEHXZ
  00034	99		 cdq
  00035	2b c2		 sub	 eax, edx
  00037	d1 f8		 sar	 eax, 1
  00039	03 45 0c	 add	 eax, DWORD PTR _iYPos$[ebp]
  0003c	51		 push	 ecx
  0003d	0f 57 c0	 xorps	 xmm0, xmm0
  00040	f3 0f 2a c0	 cvtsi2ss xmm0, eax
  00044	8b ce		 mov	 ecx, esi
  00046	f3 0f 11 04 24	 movss	 DWORD PTR [esp], xmm0
  0004b	ff 15 00 00 00
	00		 call	 DWORD PTR __imp_?GetWidth@ioWnd@@QBEHXZ
  00051	99		 cdq
  00052	2b c2		 sub	 eax, edx
  00054	d1 f8		 sar	 eax, 1
  00056	03 45 08	 add	 eax, DWORD PTR _iXPos$[ebp]
  00059	51		 push	 ecx
  0005a	8b 8e fc 01 00
	00		 mov	 ecx, DWORD PTR [esi+508]
  00060	0f 57 c0	 xorps	 xmm0, xmm0
  00063	f3 0f 2a c0	 cvtsi2ss xmm0, eax
  00067	f3 0f 11 04 24	 movss	 DWORD PTR [esp], xmm0
  0006c	ff 17		 call	 DWORD PTR [edi]
$LN2@OnDrawDisa:

; 122  : 
; 123  : 	if( m_pIcon )

  0006e	39 9e 00 02 00
	00		 cmp	 DWORD PTR [esi+512], ebx
  00074	74 50		 je	 SHORT $LN1@OnDrawDisa

; 124  : 		m_pIcon->Render( iXPos + GetWidth() / 2, iYPos + GetHeight() / 2, UI_RENDER_GRAY, TFO_BILINEAR );

  00076	8b 86 00 02 00
	00		 mov	 eax, DWORD PTR [esi+512]
  0007c	8b 38		 mov	 edi, DWORD PTR [eax]
  0007e	53		 push	 ebx
  0007f	53		 push	 ebx
  00080	6a 01		 push	 1
  00082	6a 02		 push	 2
  00084	8b ce		 mov	 ecx, esi
  00086	ff 15 00 00 00
	00		 call	 DWORD PTR __imp_?GetHeight@ioWnd@@QBEHXZ
  0008c	99		 cdq
  0008d	2b c2		 sub	 eax, edx
  0008f	d1 f8		 sar	 eax, 1
  00091	03 45 0c	 add	 eax, DWORD PTR _iYPos$[ebp]
  00094	51		 push	 ecx
  00095	0f 57 c0	 xorps	 xmm0, xmm0
  00098	f3 0f 2a c0	 cvtsi2ss xmm0, eax
  0009c	8b ce		 mov	 ecx, esi
  0009e	f3 0f 11 04 24	 movss	 DWORD PTR [esp], xmm0
  000a3	ff 15 00 00 00
	00		 call	 DWORD PTR __imp_?GetWidth@ioWnd@@QBEHXZ
  000a9	99		 cdq
  000aa	2b c2		 sub	 eax, edx
  000ac	d1 f8		 sar	 eax, 1
  000ae	03 45 08	 add	 eax, DWORD PTR _iXPos$[ebp]
  000b1	51		 push	 ecx
  000b2	8b 8e 00 02 00
	00		 mov	 ecx, DWORD PTR [esi+512]
  000b8	0f 57 c0	 xorps	 xmm0, xmm0
  000bb	f3 0f 2a c0	 cvtsi2ss xmm0, eax
  000bf	f3 0f 11 04 24	 movss	 DWORD PTR [esp], xmm0
  000c4	ff 17		 call	 DWORD PTR [edi]
$LN1@OnDrawDisa:
  000c6	5f		 pop	 edi
  000c7	5e		 pop	 esi
  000c8	5b		 pop	 ebx

; 125  : }

  000c9	5d		 pop	 ebp
  000ca	c2 08 00	 ret	 8
?OnDrawDisabled@ioHousingBlockInvenIcon@@UAEXHH@Z ENDP	; ioHousingBlockInvenIcon::OnDrawDisabled
_TEXT	ENDS
PUBLIC	??_7bad_alloc@std@@6B@				; std::bad_alloc::`vftable'
PUBLIC	??0bad_alloc@std@@QAE@PBD@Z			; std::bad_alloc::bad_alloc
PUBLIC	??_R4bad_alloc@std@@6B@				; std::bad_alloc::`RTTI Complete Object Locator'
PUBLIC	??_R0?AVbad_alloc@std@@@8			; std::bad_alloc `RTTI Type Descriptor'
PUBLIC	??_R3bad_alloc@std@@8				; std::bad_alloc::`RTTI Class Hierarchy Descriptor'
PUBLIC	??_R2bad_alloc@std@@8				; std::bad_alloc::`RTTI Base Class Array'
PUBLIC	??_R1A@?0A@EA@bad_alloc@std@@8			; std::bad_alloc::`RTTI Base Class Descriptor at (0,-1,0,64)'
PUBLIC	??_R1A@?0A@EA@exception@std@@8			; std::exception::`RTTI Base Class Descriptor at (0,-1,0,64)'
PUBLIC	??_R0?AVexception@std@@@8			; std::exception `RTTI Type Descriptor'
PUBLIC	??_R3exception@std@@8				; std::exception::`RTTI Class Hierarchy Descriptor'
PUBLIC	??_R2exception@std@@8				; std::exception::`RTTI Base Class Array'
EXTRN	__imp_??0exception@std@@QAE@ABQBD@Z:PROC
EXTRN	??_Ebad_alloc@std@@UAEPAXI@Z:PROC		; std::bad_alloc::`vector deleting destructor'
EXTRN	?what@exception@std@@UBEPBDXZ:PROC		; std::exception::what
;	COMDAT ??_R2exception@std@@8
; File c:\program files (x86)\microsoft visual studio 10.0\vc\include\exception
rdata$r	SEGMENT
??_R2exception@std@@8 DD FLAT:??_R1A@?0A@EA@exception@std@@8 ; std::exception::`RTTI Base Class Array'
rdata$r	ENDS
;	COMDAT ??_R3exception@std@@8
rdata$r	SEGMENT
??_R3exception@std@@8 DD 00H				; std::exception::`RTTI Class Hierarchy Descriptor'
	DD	00H
	DD	01H
	DD	FLAT:??_R2exception@std@@8
rdata$r	ENDS
;	COMDAT ??_R0?AVexception@std@@@8
_DATA	SEGMENT
??_R0?AVexception@std@@@8 DD FLAT:??_7type_info@@6B@	; std::exception `RTTI Type Descriptor'
	DD	00H
	DB	'.?AVexception@std@@', 00H
_DATA	ENDS
;	COMDAT ??_R1A@?0A@EA@exception@std@@8
rdata$r	SEGMENT
??_R1A@?0A@EA@exception@std@@8 DD FLAT:??_R0?AVexception@std@@@8 ; std::exception::`RTTI Base Class Descriptor at (0,-1,0,64)'
	DD	00H
	DD	00H
	DD	0ffffffffH
	DD	00H
	DD	040H
	DD	FLAT:??_R3exception@std@@8
rdata$r	ENDS
;	COMDAT ??_R1A@?0A@EA@bad_alloc@std@@8
rdata$r	SEGMENT
??_R1A@?0A@EA@bad_alloc@std@@8 DD FLAT:??_R0?AVbad_alloc@std@@@8 ; std::bad_alloc::`RTTI Base Class Descriptor at (0,-1,0,64)'
	DD	01H
	DD	00H
	DD	0ffffffffH
	DD	00H
	DD	040H
	DD	FLAT:??_R3bad_alloc@std@@8
rdata$r	ENDS
;	COMDAT ??_R2bad_alloc@std@@8
rdata$r	SEGMENT
??_R2bad_alloc@std@@8 DD FLAT:??_R1A@?0A@EA@bad_alloc@std@@8 ; std::bad_alloc::`RTTI Base Class Array'
	DD	FLAT:??_R1A@?0A@EA@exception@std@@8
rdata$r	ENDS
;	COMDAT ??_R3bad_alloc@std@@8
rdata$r	SEGMENT
??_R3bad_alloc@std@@8 DD 00H				; std::bad_alloc::`RTTI Class Hierarchy Descriptor'
	DD	00H
	DD	02H
	DD	FLAT:??_R2bad_alloc@std@@8
rdata$r	ENDS
;	COMDAT ??_R0?AVbad_alloc@std@@@8
_DATA	SEGMENT
??_R0?AVbad_alloc@std@@@8 DD FLAT:??_7type_info@@6B@	; std::bad_alloc `RTTI Type Descriptor'
	DD	00H
	DB	'.?AVbad_alloc@std@@', 00H
_DATA	ENDS
;	COMDAT ??_R4bad_alloc@std@@6B@
rdata$r	SEGMENT
??_R4bad_alloc@std@@6B@ DD 00H				; std::bad_alloc::`RTTI Complete Object Locator'
	DD	00H
	DD	00H
	DD	FLAT:??_R0?AVbad_alloc@std@@@8
	DD	FLAT:??_R3bad_alloc@std@@8
rdata$r	ENDS
;	COMDAT ??_7bad_alloc@std@@6B@
CONST	SEGMENT
??_7bad_alloc@std@@6B@ DD FLAT:??_R4bad_alloc@std@@6B@	; std::bad_alloc::`vftable'
	DD	FLAT:??_Ebad_alloc@std@@UAEPAXI@Z
	DD	FLAT:?what@exception@std@@UBEPBDXZ
; Function compile flags: /Ogsp
CONST	ENDS
;	COMDAT ??0bad_alloc@std@@QAE@PBD@Z
_TEXT	SEGMENT
__Message$ = 8						; size = 4
??0bad_alloc@std@@QAE@PBD@Z PROC			; std::bad_alloc::bad_alloc, COMDAT
; _this$ = ecx

; 345  : 		{	// construct from message string

  00000	55		 push	 ebp
  00001	8b ec		 mov	 ebp, esp
  00003	56		 push	 esi
  00004	8d 45 08	 lea	 eax, DWORD PTR __Message$[ebp]
  00007	50		 push	 eax
  00008	8b f1		 mov	 esi, ecx
  0000a	ff 15 00 00 00
	00		 call	 DWORD PTR __imp_??0exception@std@@QAE@ABQBD@Z
  00010	c7 06 00 00 00
	00		 mov	 DWORD PTR [esi], OFFSET ??_7bad_alloc@std@@6B@

; 346  : 		}

  00016	8b c6		 mov	 eax, esi
  00018	5e		 pop	 esi
  00019	5d		 pop	 ebp
  0001a	c2 04 00	 ret	 4
??0bad_alloc@std@@QAE@PBD@Z ENDP			; std::bad_alloc::bad_alloc
_TEXT	ENDS
PUBLIC	??_7ioHousingBlockInvenItemButton@@6B@		; ioHousingBlockInvenItemButton::`vftable'
PUBLIC	??0ioHousingBlockInvenItemButton@@QAE@XZ	; ioHousingBlockInvenItemButton::ioHousingBlockInvenItemButton
PUBLIC	??_R4ioHousingBlockInvenItemButton@@6B@		; ioHousingBlockInvenItemButton::`RTTI Complete Object Locator'
PUBLIC	??_R0?AVioHousingBlockInvenItemButton@@@8	; ioHousingBlockInvenItemButton `RTTI Type Descriptor'
PUBLIC	??_R3ioHousingBlockInvenItemButton@@8		; ioHousingBlockInvenItemButton::`RTTI Class Hierarchy Descriptor'
PUBLIC	??_R2ioHousingBlockInvenItemButton@@8		; ioHousingBlockInvenItemButton::`RTTI Base Class Array'
PUBLIC	??_R1A@?0A@EA@ioHousingBlockInvenItemButton@@8	; ioHousingBlockInvenItemButton::`RTTI Base Class Descriptor at (0,-1,0,64)'
PUBLIC	?OnRender@ioHousingBlockInvenItemButton@@UAEXXZ	; ioHousingBlockInvenItemButton::OnRender
PUBLIC	?OnProcess@ioHousingBlockInvenItemButton@@UAEXM@Z ; ioHousingBlockInvenItemButton::OnProcess
PUBLIC	?iwm_command@ioHousingBlockInvenItemButton@@UAEXPAVioWnd@@HK@Z ; ioHousingBlockInvenItemButton::iwm_command
PUBLIC	?iwm_show@ioHousingBlockInvenItemButton@@UAEXXZ	; ioHousingBlockInvenItemButton::iwm_show
PUBLIC	?iwm_hide@ioHousingBlockInvenItemButton@@UAEXXZ	; ioHousingBlockInvenItemButton::iwm_hide
EXTRN	__imp_??0ioHashString@@QAE@XZ:PROC
EXTRN	?AddRenderImage@ioButton@@UAEXABVioHashString@@PAVioUIRenderImage@@@Z:PROC ; ioButton::AddRenderImage
EXTRN	??_EioHousingBlockInvenItemButton@@UAEPAXI@Z:PROC ; ioHousingBlockInvenItemButton::`vector deleting destructor'
EXTRN	?OnDrawNormal@ioButton@@MAEXHH@Z:PROC		; ioButton::OnDrawNormal
EXTRN	?OnDrawOvered@ioButton@@MAEXHH@Z:PROC		; ioButton::OnDrawOvered
EXTRN	?OnDrawPushed@ioButton@@MAEXHH@Z:PROC		; ioButton::OnDrawPushed
EXTRN	?OnDrawDisabled@ioButton@@MAEXHH@Z:PROC		; ioButton::OnDrawDisabled
;	COMDAT ??_R1A@?0A@EA@ioHousingBlockInvenItemButton@@8
; File d:\lost saga for developer\youtube\tutorial\source\src\lsclient\gui\iohousingblockinvenwnd.cpp
rdata$r	SEGMENT
??_R1A@?0A@EA@ioHousingBlockInvenItemButton@@8 DD FLAT:??_R0?AVioHousingBlockInvenItemButton@@@8 ; ioHousingBlockInvenItemButton::`RTTI Base Class Descriptor at (0,-1,0,64)'
	DD	02H
	DD	00H
	DD	0ffffffffH
	DD	00H
	DD	040H
	DD	FLAT:??_R3ioHousingBlockInvenItemButton@@8
rdata$r	ENDS
;	COMDAT ??_R2ioHousingBlockInvenItemButton@@8
rdata$r	SEGMENT
??_R2ioHousingBlockInvenItemButton@@8 DD FLAT:??_R1A@?0A@EA@ioHousingBlockInvenItemButton@@8 ; ioHousingBlockInvenItemButton::`RTTI Base Class Array'
	DD	FLAT:??_R1A@?0A@EA@ioButton@@8
	DD	FLAT:??_R1A@?0A@EA@ioWnd@@8
rdata$r	ENDS
;	COMDAT ??_R3ioHousingBlockInvenItemButton@@8
rdata$r	SEGMENT
??_R3ioHousingBlockInvenItemButton@@8 DD 00H		; ioHousingBlockInvenItemButton::`RTTI Class Hierarchy Descriptor'
	DD	00H
	DD	03H
	DD	FLAT:??_R2ioHousingBlockInvenItemButton@@8
rdata$r	ENDS
;	COMDAT ??_R0?AVioHousingBlockInvenItemButton@@@8
_DATA	SEGMENT
??_R0?AVioHousingBlockInvenItemButton@@@8 DD FLAT:??_7type_info@@6B@ ; ioHousingBlockInvenItemButton `RTTI Type Descriptor'
	DD	00H
	DB	'.?AVioHousingBlockInvenItemButton@@', 00H
_DATA	ENDS
;	COMDAT ??_R4ioHousingBlockInvenItemButton@@6B@
rdata$r	SEGMENT
??_R4ioHousingBlockInvenItemButton@@6B@ DD 00H		; ioHousingBlockInvenItemButton::`RTTI Complete Object Locator'
	DD	00H
	DD	00H
	DD	FLAT:??_R0?AVioHousingBlockInvenItemButton@@@8
	DD	FLAT:??_R3ioHousingBlockInvenItemButton@@8
rdata$r	ENDS
;	COMDAT ??_7ioHousingBlockInvenItemButton@@6B@
CONST	SEGMENT
??_7ioHousingBlockInvenItemButton@@6B@ DD FLAT:??_R4ioHousingBlockInvenItemButton@@6B@ ; ioHousingBlockInvenItemButton::`vftable'
	DD	FLAT:?AddRenderFrame@ioButton@@UAEXABVioHashString@@PAVioUIRenderFrame@@@Z
	DD	FLAT:?AddRenderImage@ioButton@@UAEXABVioHashString@@PAVioUIRenderImage@@@Z
	DD	FLAT:?AddTooltipHelp@ioWnd@@UAEXABVioHashString@@00@Z
	DD	FLAT:?ParseExtraInfo@ioButton@@UAEXAAVioXMLElement@@@Z
	DD	FLAT:?AddNamedRenderImage@ioWnd@@UAEXABVioHashString@@PAVioUIRenderImage@@@Z
	DD	FLAT:?RemoveNamedRenderImage@ioWnd@@UAEXABVioHashString@@@Z
	DD	FLAT:?GetNamedRenderImage@ioWnd@@UBEPAVioUIRenderImage@@ABVioHashString@@@Z
	DD	FLAT:?SetWindowAlpha@ioButton@@UAEXH@Z
	DD	FLAT:?SetActive@ioWnd@@UAEXXZ
	DD	FLAT:?SetInActive@ioWnd@@UAEXXZ
	DD	FLAT:?ClearElementImageList@ioWnd@@UAEXXZ
	DD	FLAT:?SetSize@ioWnd@@UAEXHH@Z
	DD	FLAT:?SetPositionToDefault@ioWnd@@UAEXHH_N0@Z
	DD	FLAT:?IsNeedProcess@ioWnd@@UBE_NXZ
	DD	FLAT:?IsCanMouseReaction@ioWnd@@UBE_NXZ
	DD	FLAT:?AddChild@ioWnd@@UAEXPAV1@@Z
	DD	FLAT:?DeleteChild@ioWnd@@UAEXK@Z
	DD	FLAT:?DeleteAllChild@ioWnd@@UAEXXZ
	DD	FLAT:?OnRenderShowAndHide@ioWnd@@MAE_NXZ
	DD	FLAT:?OnRenderShowAndHideByDefault@ioWnd@@MAE_NK@Z
	DD	FLAT:?OnRenderShowAndHideByTop@ioWnd@@MAE_NK@Z
	DD	FLAT:?OnRenderShowAndHideByDown@ioWnd@@MAE_NK@Z
	DD	FLAT:?OnRender@ioHousingBlockInvenItemButton@@UAEXXZ
	DD	FLAT:?OnRenderAfterChild@ioWnd@@MAEXXZ
	DD	FLAT:?OnProcess@ioHousingBlockInvenItemButton@@UAEXM@Z
	DD	FLAT:?OnMouseProcess@ioWnd@@MAEXABVioMouse@@@Z
	DD	FLAT:?CheckFrameReSize@ioButton@@MAEXHHHH@Z
	DD	FLAT:?RenderImageList@ioWnd@@MAEXHHW4UIRenderType@@@Z
	DD	FLAT:?iwm_create@ioWnd@@UAEXXZ
	DD	FLAT:?iwm_destroy@ioWnd@@UAEXXZ
	DD	FLAT:?iwm_lbuttondown@ioButton@@UAEXABVioMouse@@@Z
	DD	FLAT:?iwm_lbuttonup@ioButton@@UAEXABVioMouse@@@Z
	DD	FLAT:?iwm_lbuttonDBLCLK@ioButton@@UAEXABVioMouse@@@Z
	DD	FLAT:?iwm_rbuttondown@ioButton@@UAEXABVioMouse@@@Z
	DD	FLAT:?iwm_rbuttonup@ioButton@@UAEXABVioMouse@@@Z
	DD	FLAT:?iwm_command@ioHousingBlockInvenItemButton@@UAEXPAVioWnd@@HK@Z
	DD	FLAT:?iwm_mouseover@ioButton@@UAEXABVioMouse@@@Z
	DD	FLAT:?iwm_mousemove@ioWnd@@UAEXABVioMouse@@@Z
	DD	FLAT:?iwm_mouseleave@ioWnd@@UAEXABVioMouse@@@Z
	DD	FLAT:?iwm_vscroll@ioWnd@@UAEXKH@Z
	DD	FLAT:?iwm_wheel@ioWnd@@UAEXH@Z
	DD	FLAT:?iwm_show@ioHousingBlockInvenItemButton@@UAEXXZ
	DD	FLAT:?iwm_hide@ioHousingBlockInvenItemButton@@UAEXXZ
	DD	FLAT:?iwm_esc@ioWnd@@UAE_NXZ
	DD	FLAT:?iwm_spacebar@ioWnd@@UAE_NXZ
	DD	FLAT:?iwm_gototop@ioWnd@@UAEXXZ
	DD	FLAT:?iwm_dragenter@ioWnd@@UAE?AW4IWDropEffect@@PAVioDragItem@@ABVioMouse@@@Z
	DD	FLAT:?iwm_dragover@ioWnd@@UAE?AW4IWDropEffect@@PAVioDragItem@@ABVioMouse@@@Z
	DD	FLAT:?iwm_dragleave@ioWnd@@UAEXXZ
	DD	FLAT:?iwm_dropitem@ioWnd@@UAE_NPAVioDragItem@@ABVioMouse@@PAV1@@Z
	DD	FLAT:?iwm_dropdone@ioWnd@@UAEXPAVioDragItem@@PAV1@_N@Z
	DD	FLAT:?IsEXType@ioWnd@@UBE_NXZ
	DD	FLAT:?GetWndType@ioButton@@UBEKXZ
	DD	FLAT:?RenderWnd@ioWnd@@UAEXXZ
	DD	FLAT:?SetIDEX@ioWnd@@UAEXAAK_N@Z
	DD	FLAT:?ParseXML@ioWnd@@UAEXAAVioXMLElement@@@Z
	DD	FLAT:?GetHeaderFileName@ioButton@@UAEPBDXZ
	DD	FLAT:?GetTemplateName@ioButton@@UAEPBDXZ
	DD	FLAT:?GetDefClassName@ioButton@@UBEPBDXZ
	DD	FLAT:?_Clone@ioButton@@UAEPAVioWnd@@XZ
	DD	FLAT:?Copy@ioButton@@UAEXPAVioWnd@@@Z
	DD	FLAT:?Save@ioWnd@@UAE_NAAVioXMLElement@@@Z
	DD	FLAT:?SetSaveData@ioButton@@UAEXAAVioXMLElement@@@Z
	DD	FLAT:?SetPosX@ioWnd@@UAEXH@Z
	DD	FLAT:?SetPosY@ioWnd@@UAEXH@Z
	DD	FLAT:?SetWidth@ioWnd@@UAEXH@Z
	DD	FLAT:?SetHeight@ioWnd@@UAEXH@Z
	DD	FLAT:?GetNumFixedRenderFrame@ioButton@@UBEHXZ
	DD	FLAT:?GetFixedRenderFrameType@ioButton@@UAEPBDH@Z
	DD	FLAT:?GetRenderFrame@ioButton@@UAEPAPAVioUIRenderElement@@PBD@Z
	DD	FLAT:?GetNumFixedRenderImage@ioButton@@UBEHXZ
	DD	FLAT:?GetFixedRenderImageType@ioButton@@UAEPBDH@Z
	DD	FLAT:?GetRenderImage@ioButton@@UAEPAPAVioUIRenderElement@@PBD@Z
	DD	FLAT:?AddEffect@ioWnd@@UAEXABVioHashString@@PAVioUI3DEffectRender@@@Z
	DD	FLAT:?GetEffect@ioWnd@@UAEPAVioUI3DEffectRender@@VioHashString@@@Z
	DD	FLAT:??_EioHousingBlockInvenItemButton@@UAEPAXI@Z
	DD	FLAT:?OnDrawNormal@ioButton@@MAEXHH@Z
	DD	FLAT:?OnDrawOvered@ioButton@@MAEXHH@Z
	DD	FLAT:?OnDrawOveredAdd@ioButton@@MAEXHH@Z
	DD	FLAT:?OnDrawPushed@ioButton@@MAEXHH@Z
	DD	FLAT:?OnDrawDisabled@ioButton@@MAEXHH@Z
	DD	FLAT:?OnDrawExDisabledNormal@ioButton@@MAEXHH@Z
	DD	FLAT:?OnDrawExDisabledOvered@ioButton@@MAEXHH@Z
	DD	FLAT:?OnDrawExDisabledPushed@ioButton@@MAEXHH@Z
	DD	FLAT:?OnDrawBack@ioButton@@MAEXHH@Z
	DD	FLAT:?OnDrawNormalList@ioButton@@MAEXHH@Z
	DD	FLAT:?OnDrawDisableList@ioButton@@MAEXHH@Z
CONST	ENDS
;	COMDAT xdata$x
xdata$x	SEGMENT
__unwindtable$??0ioHousingBlockInvenItemButton@@QAE@XZ DD 0ffffffffH
	DD	FLAT:__unwindfunclet$??0ioHousingBlockInvenItemButton@@QAE@XZ$0
	DD	00H
	DD	FLAT:__unwindfunclet$??0ioHousingBlockInvenItemButton@@QAE@XZ$1
__ehfuncinfo$??0ioHousingBlockInvenItemButton@@QAE@XZ DD 019930522H
	DD	02H
	DD	FLAT:__unwindtable$??0ioHousingBlockInvenItemButton@@QAE@XZ
	DD	2 DUP(00H)
	DD	2 DUP(00H)
	DD	00H
	DD	01H
; Function compile flags: /Ogsp
xdata$x	ENDS
;	COMDAT ??0ioHousingBlockInvenItemButton@@QAE@XZ
_TEXT	SEGMENT
_this$ = -16						; size = 4
__$EHRec$ = -12						; size = 12
??0ioHousingBlockInvenItemButton@@QAE@XZ PROC		; ioHousingBlockInvenItemButton::ioHousingBlockInvenItemButton, COMDAT
; _this$ = ecx

; 130  : {

  00000	6a 04		 push	 4
  00002	b8 00 00 00 00	 mov	 eax, __ehhandler$??0ioHousingBlockInvenItemButton@@QAE@XZ
  00007	e8 00 00 00 00	 call	 __EH_prolog3
  0000c	8b f1		 mov	 esi, ecx
  0000e	89 75 f0	 mov	 DWORD PTR _this$[ebp], esi
  00011	ff 15 00 00 00
	00		 call	 DWORD PTR __imp_??0ioButton@@QAE@XZ
  00017	8b 3d 00 00 00
	00		 mov	 edi, DWORD PTR __imp_??0ioHashString@@QAE@XZ
  0001d	33 db		 xor	 ebx, ebx
  0001f	8d 8e fc 01 00
	00		 lea	 ecx, DWORD PTR [esi+508]
  00025	89 5d fc	 mov	 DWORD PTR __$EHRec$[ebp+8], ebx
  00028	c7 06 00 00 00
	00		 mov	 DWORD PTR [esi], OFFSET ??_7ioHousingBlockInvenItemButton@@6B@
  0002e	ff d7		 call	 edi
  00030	8d 8e 0c 02 00
	00		 lea	 ecx, DWORD PTR [esi+524]
  00036	c6 45 fc 01	 mov	 BYTE PTR __$EHRec$[ebp+8], 1
  0003a	ff d7		 call	 edi
  0003c	89 9e 1c 02 00
	00		 mov	 DWORD PTR [esi+540], ebx
  00042	89 9e 20 02 00
	00		 mov	 DWORD PTR [esi+544], ebx
  00048	89 9e 24 02 00
	00		 mov	 DWORD PTR [esi+548], ebx
  0004e	88 9e 28 02 00
	00		 mov	 BYTE PTR [esi+552], bl

; 131  : }

  00054	8b c6		 mov	 eax, esi
  00056	e8 00 00 00 00	 call	 __EH_epilog3
  0005b	c3		 ret	 0
_TEXT	ENDS
;	COMDAT text$x
text$x	SEGMENT
__unwindfunclet$??0ioHousingBlockInvenItemButton@@QAE@XZ$0:
  00000	8b 4d f0	 mov	 ecx, DWORD PTR _this$[ebp]
  00003	ff 25 00 00 00
	00		 jmp	 DWORD PTR __imp_??1ioButton@@UAE@XZ
__unwindfunclet$??0ioHousingBlockInvenItemButton@@QAE@XZ$1:
  00009	8b 4d f0	 mov	 ecx, DWORD PTR _this$[ebp]
  0000c	81 c1 fc 01 00
	00		 add	 ecx, 508		; 000001fcH
  00012	ff 25 00 00 00
	00		 jmp	 DWORD PTR __imp_??1ioHashString@@QAE@XZ
__ehhandler$??0ioHousingBlockInvenItemButton@@QAE@XZ:
  00018	8b 54 24 08	 mov	 edx, DWORD PTR [esp+8]
  0001c	8d 42 0c	 lea	 eax, DWORD PTR [edx+12]
  0001f	8b 4a ec	 mov	 ecx, DWORD PTR [edx-20]
  00022	33 c8		 xor	 ecx, eax
  00024	e8 00 00 00 00	 call	 @__security_check_cookie@4
  00029	b8 00 00 00 00	 mov	 eax, OFFSET __ehfuncinfo$??0ioHousingBlockInvenItemButton@@QAE@XZ
  0002e	e9 00 00 00 00	 jmp	 ___CxxFrameHandler3
text$x	ENDS
??0ioHousingBlockInvenItemButton@@QAE@XZ ENDP		; ioHousingBlockInvenItemButton::ioHousingBlockInvenItemButton
PUBLIC	??1bad_alloc@std@@UAE@XZ			; std::bad_alloc::~bad_alloc
EXTRN	__imp_??1exception@std@@UAE@XZ:PROC
; Function compile flags: /Ogsp
; File c:\program files (x86)\microsoft visual studio 10.0\vc\include\exception
;	COMDAT ??1bad_alloc@std@@UAE@XZ
_TEXT	SEGMENT
??1bad_alloc@std@@UAE@XZ PROC				; std::bad_alloc::~bad_alloc, COMDAT
; _this$ = ecx

; 354  : 		{	// destroy the object

  00000	c7 01 00 00 00
	00		 mov	 DWORD PTR [ecx], OFFSET ??_7bad_alloc@std@@6B@

; 355  : 		}

  00006	ff 25 00 00 00
	00		 jmp	 DWORD PTR __imp_??1exception@std@@UAE@XZ
??1bad_alloc@std@@UAE@XZ ENDP				; std::bad_alloc::~bad_alloc
_TEXT	ENDS
EXTRN	??3@YAXPAX@Z:PROC				; operator delete
; Function compile flags: /Ogsp
;	COMDAT ??_Gbad_alloc@std@@UAEPAXI@Z
_TEXT	SEGMENT
___flags$ = 8						; size = 4
??_Gbad_alloc@std@@UAEPAXI@Z PROC			; std::bad_alloc::`scalar deleting destructor', COMDAT
; _this$ = ecx
  00000	55		 push	 ebp
  00001	8b ec		 mov	 ebp, esp
  00003	56		 push	 esi
  00004	8b f1		 mov	 esi, ecx
  00006	c7 06 00 00 00
	00		 mov	 DWORD PTR [esi], OFFSET ??_7bad_alloc@std@@6B@
  0000c	ff 15 00 00 00
	00		 call	 DWORD PTR __imp_??1exception@std@@UAE@XZ
  00012	f6 45 08 01	 test	 BYTE PTR ___flags$[ebp], 1
  00016	74 07		 je	 SHORT $LN1@scalar
  00018	56		 push	 esi
  00019	e8 00 00 00 00	 call	 ??3@YAXPAX@Z		; operator delete
  0001e	59		 pop	 ecx
$LN1@scalar:
  0001f	8b c6		 mov	 eax, esi
  00021	5e		 pop	 esi
  00022	5d		 pop	 ebp
  00023	c2 04 00	 ret	 4
??_Gbad_alloc@std@@UAEPAXI@Z ENDP			; std::bad_alloc::`scalar deleting destructor'
_TEXT	ENDS
PUBLIC	??1ioHousingBlockInvenItemButton@@UAE@XZ	; ioHousingBlockInvenItemButton::~ioHousingBlockInvenItemButton
;	COMDAT xdata$x
; File d:\lost saga for developer\youtube\tutorial\source\src\lsclient\gui\iohousingblockinvenwnd.cpp
xdata$x	SEGMENT
__unwindtable$??1ioHousingBlockInvenItemButton@@UAE@XZ DD 0ffffffffH
	DD	FLAT:__unwindfunclet$??1ioHousingBlockInvenItemButton@@UAE@XZ$0
	DD	00H
	DD	FLAT:__unwindfunclet$??1ioHousingBlockInvenItemButton@@UAE@XZ$1
__ehfuncinfo$??1ioHousingBlockInvenItemButton@@UAE@XZ DD 019930522H
	DD	02H
	DD	FLAT:__unwindtable$??1ioHousingBlockInvenItemButton@@UAE@XZ
	DD	2 DUP(00H)
	DD	2 DUP(00H)
	DD	00H
	DD	01H
; Function compile flags: /Ogsp
xdata$x	ENDS
;	COMDAT ??1ioHousingBlockInvenItemButton@@UAE@XZ
_TEXT	SEGMENT
_this$ = -16						; size = 4
__$EHRec$ = -12						; size = 12
??1ioHousingBlockInvenItemButton@@UAE@XZ PROC		; ioHousingBlockInvenItemButton::~ioHousingBlockInvenItemButton, COMDAT
; _this$ = ecx

; 134  : {

  00000	6a 04		 push	 4
  00002	b8 00 00 00 00	 mov	 eax, __ehhandler$??1ioHousingBlockInvenItemButton@@UAE@XZ
  00007	e8 00 00 00 00	 call	 __EH_prolog3
  0000c	8b f1		 mov	 esi, ecx
  0000e	89 75 f0	 mov	 DWORD PTR _this$[ebp], esi
  00011	c7 06 00 00 00
	00		 mov	 DWORD PTR [esi], OFFSET ??_7ioHousingBlockInvenItemButton@@6B@

; 135  : }

  00017	8b 3d 00 00 00
	00		 mov	 edi, DWORD PTR __imp_??1ioHashString@@QAE@XZ
  0001d	8d 8e 0c 02 00
	00		 lea	 ecx, DWORD PTR [esi+524]
  00023	c7 45 fc 01 00
	00 00		 mov	 DWORD PTR __$EHRec$[ebp+8], 1
  0002a	ff d7		 call	 edi
  0002c	8d 8e fc 01 00
	00		 lea	 ecx, DWORD PTR [esi+508]
  00032	c6 45 fc 00	 mov	 BYTE PTR __$EHRec$[ebp+8], 0
  00036	ff d7		 call	 edi
  00038	83 4d fc ff	 or	 DWORD PTR __$EHRec$[ebp+8], -1
  0003c	8b ce		 mov	 ecx, esi
  0003e	ff 15 00 00 00
	00		 call	 DWORD PTR __imp_??1ioButton@@UAE@XZ
  00044	e8 00 00 00 00	 call	 __EH_epilog3
  00049	c3		 ret	 0
_TEXT	ENDS
;	COMDAT text$x
text$x	SEGMENT
__unwindfunclet$??1ioHousingBlockInvenItemButton@@UAE@XZ$0:
  00000	8b 4d f0	 mov	 ecx, DWORD PTR _this$[ebp]
  00003	ff 25 00 00 00
	00		 jmp	 DWORD PTR __imp_??1ioButton@@UAE@XZ
__unwindfunclet$??1ioHousingBlockInvenItemButton@@UAE@XZ$1:
  00009	8b 4d f0	 mov	 ecx, DWORD PTR _this$[ebp]
  0000c	81 c1 fc 01 00
	00		 add	 ecx, 508		; 000001fcH
  00012	ff 25 00 00 00
	00		 jmp	 DWORD PTR __imp_??1ioHashString@@QAE@XZ
__ehhandler$??1ioHousingBlockInvenItemButton@@UAE@XZ:
  00018	8b 54 24 08	 mov	 edx, DWORD PTR [esp+8]
  0001c	8d 42 0c	 lea	 eax, DWORD PTR [edx+12]
  0001f	8b 4a ec	 mov	 ecx, DWORD PTR [edx-20]
  00022	33 c8		 xor	 ecx, eax
  00024	e8 00 00 00 00	 call	 @__security_check_cookie@4
  00029	b8 00 00 00 00	 mov	 eax, OFFSET __ehfuncinfo$??1ioHousingBlockInvenItemButton@@UAE@XZ
  0002e	e9 00 00 00 00	 jmp	 ___CxxFrameHandler3
text$x	ENDS
??1ioHousingBlockInvenItemButton@@UAE@XZ ENDP		; ioHousingBlockInvenItemButton::~ioHousingBlockInvenItemButton
; Function compile flags: /Ogsp
;	COMDAT ?iwm_show@ioHousingBlockInvenItemButton@@UAEXXZ
_TEXT	SEGMENT
?iwm_show@ioHousingBlockInvenItemButton@@UAEXXZ PROC	; ioHousingBlockInvenItemButton::iwm_show, COMDAT
; _this$ = ecx

; 139  : }

  00000	c3		 ret	 0
?iwm_show@ioHousingBlockInvenItemButton@@UAEXXZ ENDP	; ioHousingBlockInvenItemButton::iwm_show
; Function compile flags: /Ogsp
_TEXT	ENDS
;	COMDAT ?iwm_hide@ioHousingBlockInvenItemButton@@UAEXXZ
_TEXT	SEGMENT
?iwm_hide@ioHousingBlockInvenItemButton@@UAEXXZ PROC	; ioHousingBlockInvenItemButton::iwm_hide, COMDAT
; _this$ = ecx

; 143  : }

  00000	c3		 ret	 0
?iwm_hide@ioHousingBlockInvenItemButton@@UAEXXZ ENDP	; ioHousingBlockInvenItemButton::iwm_hide
_TEXT	ENDS
PUBLIC	?SetInfo@ioHousingBlockInvenItemButton@@QAEXABVioHashString@@0HHH@Z ; ioHousingBlockInvenItemButton::SetInfo
EXTRN	__imp_?ShowWnd@ioWnd@@QAEXXZ:PROC
EXTRN	__imp_?FindChildWnd@ioWnd@@QAEPAV1@K@Z:PROC
EXTRN	__imp_?HideChildWnd@ioWnd@@QAEXK_N@Z:PROC
EXTRN	__imp_?ShowChildWnd@ioWnd@@QAEXK_N@Z:PROC
EXTRN	__imp_?IsEmpty@ioHashString@@QBE_NXZ:PROC
EXTRN	__imp_??4ioHashString@@QAEAAV0@ABV0@@Z:PROC
EXTRN	___RTDynamicCast:PROC
; Function compile flags: /Ogsp
;	COMDAT ?SetInfo@ioHousingBlockInvenItemButton@@QAEXABVioHashString@@0HHH@Z
_TEXT	SEGMENT
_szName$ = 8						; size = 4
_szIcon$ = 12						; size = 4
_nBlockCode$ = 16					; size = 4
_nEtcCode$ = 20						; size = 4
_nCount$ = 24						; size = 4
?SetInfo@ioHousingBlockInvenItemButton@@QAEXABVioHashString@@0HHH@Z PROC ; ioHousingBlockInvenItemButton::SetInfo, COMDAT
; _this$ = ecx

; 146  : {

  00000	55		 push	 ebp
  00001	8b ec		 mov	 ebp, esp
  00003	53		 push	 ebx
  00004	56		 push	 esi
  00005	57		 push	 edi

; 147  : 	m_szName		= szName;

  00006	ff 75 08	 push	 DWORD PTR _szName$[ebp]
  00009	8b 3d 00 00 00
	00		 mov	 edi, DWORD PTR __imp_??4ioHashString@@QAEAAV0@ABV0@@Z
  0000f	8b f1		 mov	 esi, ecx
  00011	8d 8e fc 01 00
	00		 lea	 ecx, DWORD PTR [esi+508]
  00017	ff d7		 call	 edi

; 148  : 	m_szIcon		= szIcon;

  00019	ff 75 0c	 push	 DWORD PTR _szIcon$[ebp]
  0001c	8d 8e 0c 02 00
	00		 lea	 ecx, DWORD PTR [esi+524]
  00022	ff d7		 call	 edi

; 149  : 	m_nBlockCode	= nBlockCode;

  00024	8b 45 10	 mov	 eax, DWORD PTR _nBlockCode$[ebp]

; 150  : 	m_nEtcCode		= nEtcCode;

  00027	8b 4d 14	 mov	 ecx, DWORD PTR _nEtcCode$[ebp]

; 151  : 	m_nCount		= nCount;

  0002a	8b 55 18	 mov	 edx, DWORD PTR _nCount$[ebp]

; 152  : 
; 153  : 	if( nBlockCode == 0 || nEtcCode == 0 || m_szName.IsEmpty() || m_szIcon.IsEmpty() )

  0002d	33 ff		 xor	 edi, edi
  0002f	89 86 1c 02 00
	00		 mov	 DWORD PTR [esi+540], eax
  00035	89 8e 20 02 00
	00		 mov	 DWORD PTR [esi+544], ecx
  0003b	89 96 24 02 00
	00		 mov	 DWORD PTR [esi+548], edx
  00041	3b c7		 cmp	 eax, edi
  00043	74 38		 je	 SHORT $LN7@SetInfo
  00045	3b cf		 cmp	 ecx, edi
  00047	74 34		 je	 SHORT $LN7@SetInfo
  00049	8d 8e fc 01 00
	00		 lea	 ecx, DWORD PTR [esi+508]
  0004f	ff 15 00 00 00
	00		 call	 DWORD PTR __imp_?IsEmpty@ioHashString@@QBE_NXZ
  00055	84 c0		 test	 al, al
  00057	75 24		 jne	 SHORT $LN7@SetInfo
  00059	8d 8e 0c 02 00
	00		 lea	 ecx, DWORD PTR [esi+524]
  0005f	ff 15 00 00 00
	00		 call	 DWORD PTR __imp_?IsEmpty@ioHashString@@QBE_NXZ
  00065	84 c0		 test	 al, al
  00067	75 14		 jne	 SHORT $LN7@SetInfo

; 157  : 	}
; 158  : 	else
; 159  : 	{
; 160  : 		ShowChildWnd( ID_ICON );

  00069	57		 push	 edi
  0006a	6a 01		 push	 1
  0006c	8b ce		 mov	 ecx, esi
  0006e	ff 15 00 00 00
	00		 call	 DWORD PTR __imp_?ShowChildWnd@ioWnd@@QAEXK_N@Z

; 161  : 		SetActive();

  00074	8b 06		 mov	 eax, DWORD PTR [esi]
  00076	8b ce		 mov	 ecx, esi
  00078	ff 50 20	 call	 DWORD PTR [eax+32]
  0007b	eb 12		 jmp	 SHORT $LN6@SetInfo
$LN7@SetInfo:

; 154  : 	{
; 155  : 		HideChildWnd( ID_ICON );

  0007d	57		 push	 edi
  0007e	6a 01		 push	 1
  00080	8b ce		 mov	 ecx, esi
  00082	ff 15 00 00 00
	00		 call	 DWORD PTR __imp_?HideChildWnd@ioWnd@@QAEXK_N@Z

; 156  : 		SetInActive();

  00088	8b 06		 mov	 eax, DWORD PTR [esi]
  0008a	8b ce		 mov	 ecx, esi
  0008c	ff 50 24	 call	 DWORD PTR [eax+36]
$LN6@SetInfo:

; 162  : 	}
; 163  : 
; 164  : 	if( m_nCount == 0 )

  0008f	39 be 24 02 00
	00		 cmp	 DWORD PTR [esi+548], edi
  00095	75 09		 jne	 SHORT $LN5@SetInfo

; 165  : 		m_bGray = true;

  00097	c6 86 28 02 00
	00 01		 mov	 BYTE PTR [esi+552], 1

; 166  : 	else

  0009e	eb 07		 jmp	 SHORT $LN4@SetInfo
$LN5@SetInfo:

; 167  : 		m_bGray = false;

  000a0	c6 86 28 02 00
	00 00		 mov	 BYTE PTR [esi+552], 0
$LN4@SetInfo:

; 168  : 
; 169  : 	ioHousingBlockInvenIcon* pIcon = dynamic_cast<ioHousingBlockInvenIcon*>( FindChildWnd( ID_ICON ) );

  000a7	57		 push	 edi
  000a8	68 00 00 00 00	 push	 OFFSET ??_R0?AVioHousingBlockInvenIcon@@@8
  000ad	68 00 00 00 00	 push	 OFFSET ??_R0?AVioWnd@@@8
  000b2	57		 push	 edi
  000b3	6a 01		 push	 1
  000b5	8b ce		 mov	 ecx, esi
  000b7	ff 15 00 00 00
	00		 call	 DWORD PTR __imp_?FindChildWnd@ioWnd@@QAEPAV1@K@Z
  000bd	50		 push	 eax
  000be	e8 00 00 00 00	 call	 ___RTDynamicCast
  000c3	8b d8		 mov	 ebx, eax
  000c5	83 c4 14	 add	 esp, 20			; 00000014H

; 170  : 	if( pIcon )

  000c8	3b df		 cmp	 ebx, edi
  000ca	74 1f		 je	 SHORT $LN3@SetInfo

; 171  : 	{
; 172  : 		if( m_bGray )

  000cc	80 be 28 02 00
	00 00		 cmp	 BYTE PTR [esi+552], 0

; 173  : 			pIcon->SetInActive();

  000d3	8b 03		 mov	 eax, DWORD PTR [ebx]
  000d5	8b cb		 mov	 ecx, ebx
  000d7	74 05		 je	 SHORT $LN2@SetInfo
  000d9	ff 50 24	 call	 DWORD PTR [eax+36]

; 174  : 		else

  000dc	eb 03		 jmp	 SHORT $LN1@SetInfo
$LN2@SetInfo:

; 175  : 			pIcon->SetActive();

  000de	ff 50 20	 call	 DWORD PTR [eax+32]
$LN1@SetInfo:

; 176  : 
; 177  : 		pIcon->SetIcon( szIcon );

  000e1	ff 75 0c	 push	 DWORD PTR _szIcon$[ebp]
  000e4	8b cb		 mov	 ecx, ebx
  000e6	e8 00 00 00 00	 call	 ?SetIcon@ioHousingBlockInvenIcon@@QAEXABVioHashString@@@Z ; ioHousingBlockInvenIcon::SetIcon
$LN3@SetInfo:

; 178  : 	}
; 179  : 
; 180  : 	ShowWnd();

  000eb	8b ce		 mov	 ecx, esi
  000ed	ff 15 00 00 00
	00		 call	 DWORD PTR __imp_?ShowWnd@ioWnd@@QAEXXZ
  000f3	5f		 pop	 edi
  000f4	5e		 pop	 esi
  000f5	5b		 pop	 ebx

; 181  : }

  000f6	5d		 pop	 ebp
  000f7	c2 14 00	 ret	 20			; 00000014H
?SetInfo@ioHousingBlockInvenItemButton@@QAEXABVioHashString@@0HHH@Z ENDP ; ioHousingBlockInvenItemButton::SetInfo
_TEXT	ENDS
PUBLIC	?IsOver@ioHousingBlockInvenItemButton@@QAE_NPAVioLSMouse@@@Z ; ioHousingBlockInvenItemButton::IsOver
EXTRN	__imp_?IsInWndRect@ioWnd@@QAE_NABUtagPOINT@@@Z:PROC
EXTRN	__imp_?GetMousePos@ioMouse@@QBEABUtagPOINT@@XZ:PROC
; Function compile flags: /Ogsp
;	COMDAT ?IsOver@ioHousingBlockInvenItemButton@@QAE_NPAVioLSMouse@@@Z
_TEXT	SEGMENT
_pMouse$ = 8						; size = 4
?IsOver@ioHousingBlockInvenItemButton@@QAE_NPAVioLSMouse@@@Z PROC ; ioHousingBlockInvenItemButton::IsOver, COMDAT
; _this$ = ecx

; 184  : {

  00000	55		 push	 ebp
  00001	8b ec		 mov	 ebp, esp
  00003	56		 push	 esi

; 185  : 	ioHousingBlockInvenIcon* pIcon = dynamic_cast<ioHousingBlockInvenIcon*>( FindChildWnd( ID_ICON ) );

  00004	6a 00		 push	 0
  00006	68 00 00 00 00	 push	 OFFSET ??_R0?AVioHousingBlockInvenIcon@@@8
  0000b	68 00 00 00 00	 push	 OFFSET ??_R0?AVioWnd@@@8
  00010	6a 00		 push	 0
  00012	6a 01		 push	 1
  00014	ff 15 00 00 00
	00		 call	 DWORD PTR __imp_?FindChildWnd@ioWnd@@QAEPAV1@K@Z
  0001a	50		 push	 eax
  0001b	e8 00 00 00 00	 call	 ___RTDynamicCast
  00020	8b f0		 mov	 esi, eax
  00022	83 c4 14	 add	 esp, 20			; 00000014H

; 186  : 	if( pIcon && pMouse && pIcon->IsInWndRect( pMouse->GetMousePos() ) )

  00025	85 f6		 test	 esi, esi
  00027	74 1e		 je	 SHORT $LN1@IsOver
  00029	8b 4d 08	 mov	 ecx, DWORD PTR _pMouse$[ebp]
  0002c	85 c9		 test	 ecx, ecx
  0002e	74 17		 je	 SHORT $LN1@IsOver
  00030	ff 15 00 00 00
	00		 call	 DWORD PTR __imp_?GetMousePos@ioMouse@@QBEABUtagPOINT@@XZ
  00036	50		 push	 eax
  00037	8b ce		 mov	 ecx, esi
  00039	ff 15 00 00 00
	00		 call	 DWORD PTR __imp_?IsInWndRect@ioWnd@@QAE_NABUtagPOINT@@@Z
  0003f	84 c0		 test	 al, al
  00041	74 04		 je	 SHORT $LN1@IsOver

; 187  : 		return true;

  00043	b0 01		 mov	 al, 1
  00045	eb 02		 jmp	 SHORT $LN2@IsOver
$LN1@IsOver:

; 188  : 	
; 189  : 	return false;

  00047	32 c0		 xor	 al, al
$LN2@IsOver:
  00049	5e		 pop	 esi

; 190  : }

  0004a	5d		 pop	 ebp
  0004b	c2 04 00	 ret	 4
?IsOver@ioHousingBlockInvenItemButton@@QAE_NPAVioLSMouse@@@Z ENDP ; ioHousingBlockInvenItemButton::IsOver
_TEXT	ENDS
EXTRN	__imp_?IsShow@ioWnd@@QBE_NXZ:PROC
; Function compile flags: /Ogsp
;	COMDAT ?OnProcess@ioHousingBlockInvenItemButton@@UAEXM@Z
_TEXT	SEGMENT
_fTimePerSec$ = 8					; size = 4
?OnProcess@ioHousingBlockInvenItemButton@@UAEXM@Z PROC	; ioHousingBlockInvenItemButton::OnProcess, COMDAT
; _this$ = ecx

; 194  : 	if( !IsShow() )

  00000	ff 15 00 00 00
	00		 call	 DWORD PTR __imp_?IsShow@ioWnd@@QBE_NXZ

; 195  : 		return;
; 196  : }

  00006	c2 04 00	 ret	 4
?OnProcess@ioHousingBlockInvenItemButton@@UAEXM@Z ENDP	; ioHousingBlockInvenItemButton::OnProcess
_TEXT	ENDS
EXTRN	__imp_?GetParent@ioWnd@@QAEPAV1@XZ:PROC
EXTRN	__imp_?GetID@ioWnd@@QBEKXZ:PROC
; Function compile flags: /Ogsp
;	COMDAT ?iwm_command@ioHousingBlockInvenItemButton@@UAEXPAVioWnd@@HK@Z
_TEXT	SEGMENT
_pWnd$ = 8						; size = 4
_cmd$ = 12						; size = 4
_param$ = 16						; size = 4
?iwm_command@ioHousingBlockInvenItemButton@@UAEXPAVioWnd@@HK@Z PROC ; ioHousingBlockInvenItemButton::iwm_command, COMDAT
; _this$ = ecx

; 199  : {

  00000	55		 push	 ebp
  00001	8b ec		 mov	 ebp, esp
  00003	56		 push	 esi
  00004	8b f1		 mov	 esi, ecx

; 200  : 	DWORD dwID = pWnd->GetID();

  00006	8b 4d 08	 mov	 ecx, DWORD PTR _pWnd$[ebp]
  00009	ff 15 00 00 00
	00		 call	 DWORD PTR __imp_?GetID@ioWnd@@QBEKXZ

; 201  : 	switch( dwID )

  0000f	48		 dec	 eax
  00010	75 36		 jne	 SHORT $LN1@iwm_comman

; 202  : 	{
; 203  : 	case ID_ICON:
; 204  : 		if( cmd == IOBN_BTNUP || cmd == IOWN_OVERED || cmd == IOWN_LEAVED )

  00012	57		 push	 edi
  00013	8b 7d 0c	 mov	 edi, DWORD PTR _cmd$[ebp]
  00016	83 ff 11	 cmp	 edi, 17			; 00000011H
  00019	74 0a		 je	 SHORT $LN2@iwm_comman
  0001b	83 ff 04	 cmp	 edi, 4
  0001e	74 05		 je	 SHORT $LN2@iwm_comman
  00020	83 ff 03	 cmp	 edi, 3
  00023	75 22		 jne	 SHORT $LN9@iwm_comman
$LN2@iwm_comman:

; 205  : 		{
; 206  : 			if( GetParent() )

  00025	8b ce		 mov	 ecx, esi
  00027	ff 15 00 00 00
	00		 call	 DWORD PTR __imp_?GetParent@ioWnd@@QAEPAV1@XZ
  0002d	85 c0		 test	 eax, eax
  0002f	74 16		 je	 SHORT $LN9@iwm_comman

; 207  : 				GetParent()->iwm_command( this, cmd, dwID );

  00031	8b ce		 mov	 ecx, esi
  00033	ff 15 00 00 00
	00		 call	 DWORD PTR __imp_?GetParent@ioWnd@@QAEPAV1@XZ
  00039	8b 10		 mov	 edx, DWORD PTR [eax]
  0003b	6a 01		 push	 1
  0003d	57		 push	 edi
  0003e	56		 push	 esi
  0003f	8b c8		 mov	 ecx, eax
  00041	ff 92 8c 00 00
	00		 call	 DWORD PTR [edx+140]
$LN9@iwm_comman:
  00047	5f		 pop	 edi
$LN1@iwm_comman:
  00048	5e		 pop	 esi

; 208  : 		}
; 209  : 		break;
; 210  : 	}
; 211  : }

  00049	5d		 pop	 ebp
  0004a	c2 0c 00	 ret	 12			; 0000000cH
?iwm_command@ioHousingBlockInvenItemButton@@UAEXPAVioWnd@@HK@Z ENDP ; ioHousingBlockInvenItemButton::iwm_command
_TEXT	ENDS
PUBLIC	??2@YAPAXIPAX@Z					; operator new
; Function compile flags: /Ogsp
; File c:\program files (x86)\microsoft visual studio 10.0\vc\include\new
;	COMDAT ??2@YAPAXIPAX@Z
_TEXT	SEGMENT
___formal$ = 8						; size = 4
__Where$ = 12						; size = 4
??2@YAPAXIPAX@Z PROC					; operator new, COMDAT

; 56   : 	{	// construct array with placement at _Where

  00000	55		 push	 ebp
  00001	8b ec		 mov	 ebp, esp

; 57   : 	return (_Where);

  00003	8b 45 0c	 mov	 eax, DWORD PTR __Where$[ebp]

; 58   : 	}

  00006	5d		 pop	 ebp
  00007	c3		 ret	 0
??2@YAPAXIPAX@Z ENDP					; operator new
_TEXT	ENDS
PUBLIC	__real@42a40000
PUBLIC	__real@3f19999a
PUBLIC	??_C@_0CI@JHPONKIJ@ioHousingBlockInvenItemButton?3?3O@ ; `string'
PUBLIC	??_C@_00CNPNBAHC@?$AA@				; `string'
PUBLIC	_this$GSCopy$
PUBLIC	__$ArrayPad$
EXTRN	?ConvertNumToStrComma@Help@@YAXHPADH@Z:PROC	; Help::ConvertNumToStrComma
EXTRN	__imp_?PrintTextWidthCut@ioFontManager@@QAEXMMMMPBD0@Z:PROC
EXTRN	__imp_?PrintText@ioFontManager@@QAEXMMMPBD0@Z:PROC
EXTRN	__imp_?GetString@ioStringManager@@QAEPADPBD0HW4FileNamePrefix@1@@Z:PROC
EXTRN	__imp_?GetSingleton@ioStringManager@@SAAAV1@XZ:PROC
EXTRN	__imp_?SetTextColor@ioFontManager@@QAEXK@Z:PROC
EXTRN	__imp_?SetBkColor@ioFontManager@@QAEXHHH@Z:PROC
EXTRN	__imp_?SetTextStyle@ioFontManager@@QAEXW4TextStyle@@@Z:PROC
EXTRN	__imp_?SetAlignType@ioFontManager@@QAEXW4TextAlignType@@@Z:PROC
EXTRN	__imp_?GetSingleton@ioFontManager@@SAAAV1@XZ:PROC
EXTRN	__imp_?GetDerivedPosY@ioWnd@@QBEHXZ:PROC
EXTRN	__imp_?GetDerivedPosX@ioWnd@@QBEHXZ:PROC
EXTRN	__imp_?OnRender@ioButton@@MAEXXZ:PROC
EXTRN	___security_cookie:DWORD
;	COMDAT __real@42a40000
; File d:\lost saga for developer\youtube\tutorial\source\src\lsclient\gui\iohousingblockinvenwnd.cpp
CONST	SEGMENT
__real@42a40000 DD 042a40000r			; 82
CONST	ENDS
;	COMDAT __real@3f19999a
CONST	SEGMENT
__real@3f19999a DD 03f19999ar			; 0.6
CONST	ENDS
;	COMDAT ??_C@_0CI@JHPONKIJ@ioHousingBlockInvenItemButton?3?3O@
CONST	SEGMENT
??_C@_0CI@JHPONKIJ@ioHousingBlockInvenItemButton?3?3O@ DB 'ioHousingBlock'
	DB	'InvenItemButton::OnRender', 00H		; `string'
CONST	ENDS
;	COMDAT ??_C@_00CNPNBAHC@?$AA@
CONST	SEGMENT
??_C@_00CNPNBAHC@?$AA@ DB 00H				; `string'
; Function compile flags: /Ogsp
CONST	ENDS
;	COMDAT ?OnRender@ioHousingBlockInvenItemButton@@UAEXXZ
_TEXT	SEGMENT
_iYPos$ = -280						; size = 4
_this$GSCopy$ = -276					; size = 4
tv327 = -272						; size = 4
tv329 = -268						; size = 4
_szNum$ = -264						; size = 260
__$ArrayPad$ = -4					; size = 4
?OnRender@ioHousingBlockInvenItemButton@@UAEXXZ PROC	; ioHousingBlockInvenItemButton::OnRender, COMDAT
; _this$ = ecx

; 214  : {

  00000	55		 push	 ebp
  00001	8b ec		 mov	 ebp, esp
  00003	81 ec 18 01 00
	00		 sub	 esp, 280		; 00000118H
  00009	a1 00 00 00 00	 mov	 eax, DWORD PTR ___security_cookie
  0000e	33 c5		 xor	 eax, ebp
  00010	89 45 fc	 mov	 DWORD PTR __$ArrayPad$[ebp], eax
  00013	53		 push	 ebx
  00014	57		 push	 edi
  00015	8b f9		 mov	 edi, ecx

; 215  : 	ioButton::OnRender();
; 216  : 
; 217  : 	int iXPos, iYPos;
; 218  : 	iXPos = GetDerivedPosX();
; 219  : 	iYPos = GetDerivedPosY();

  00017	89 bd ec fe ff
	ff		 mov	 DWORD PTR _this$GSCopy$[ebp], edi
  0001d	ff 15 00 00 00
	00		 call	 DWORD PTR __imp_?OnRender@ioButton@@MAEXXZ
  00023	8b cf		 mov	 ecx, edi
  00025	ff 15 00 00 00
	00		 call	 DWORD PTR __imp_?GetDerivedPosX@ioWnd@@QBEHXZ
  0002b	8b cf		 mov	 ecx, edi
  0002d	8b d8		 mov	 ebx, eax
  0002f	ff 15 00 00 00
	00		 call	 DWORD PTR __imp_?GetDerivedPosY@ioWnd@@QBEHXZ

; 220  : 
; 221  : 	if( HasWndStyle( IWS_INACTIVE ) )

  00035	6a 02		 push	 2
  00037	8b cf		 mov	 ecx, edi
  00039	89 85 e8 fe ff
	ff		 mov	 DWORD PTR _iYPos$[ebp], eax
  0003f	ff 15 00 00 00
	00		 call	 DWORD PTR __imp_?HasWndStyle@ioWnd@@QBE_NK@Z
  00045	84 c0		 test	 al, al
  00047	0f 85 d9 02 00
	00		 jne	 $LN1@OnRender

; 222  : 		return;
; 223  : 
; 224  : 	g_FontMgr.SetAlignType( TAT_CENTER );

  0004d	56		 push	 esi
  0004e	8b 35 00 00 00
	00		 mov	 esi, DWORD PTR __imp_?GetSingleton@ioFontManager@@SAAAV1@XZ
  00054	6a 01		 push	 1
  00056	ff d6		 call	 esi
  00058	8b c8		 mov	 ecx, eax
  0005a	ff 15 00 00 00
	00		 call	 DWORD PTR __imp_?SetAlignType@ioFontManager@@QAEXW4TextAlignType@@@Z

; 225  : 	g_FontMgr.SetTextStyle( TS_NORMAL );

  00060	6a 00		 push	 0
  00062	ff d6		 call	 esi
  00064	8b c8		 mov	 ecx, eax
  00066	ff 15 00 00 00
	00		 call	 DWORD PTR __imp_?SetTextStyle@ioFontManager@@QAEXW4TextStyle@@@Z

; 226  : 	g_FontMgr.SetBkColor( 0, 0, 0 );

  0006c	33 c0		 xor	 eax, eax
  0006e	50		 push	 eax
  0006f	50		 push	 eax
  00070	50		 push	 eax
  00071	ff d6		 call	 esi
  00073	8b c8		 mov	 ecx, eax
  00075	ff 15 00 00 00
	00		 call	 DWORD PTR __imp_?SetBkColor@ioFontManager@@QAEXHHH@Z

; 227  : 
; 228  : 	if( m_bGray )

  0007b	80 bf 28 02 00
	00 00		 cmp	 BYTE PTR [edi+552], 0
  00082	0f 84 b9 00 00
	00		 je	 $LN4@OnRender

; 229  : 	{
; 230  : 		g_FontMgr.SetTextColor( TCT_DEFAULT_GRAY );

  00088	68 6e 6e 6e ff	 push	 -9539986		; ff6e6e6eH
  0008d	ff d6		 call	 esi
  0008f	8b c8		 mov	 ecx, eax
  00091	ff 15 00 00 00
	00		 call	 DWORD PTR __imp_?SetTextColor@ioFontManager@@QAEXK@Z

; 231  : 		g_FontMgr.PrintText( iXPos + 42, iYPos + 73, FONT_SIZE_12, STR(1), m_szName.c_str() );

  00097	8b 85 e8 fe ff
	ff		 mov	 eax, DWORD PTR _iYPos$[ebp]
  0009d	0f 57 c0	 xorps	 xmm0, xmm0
  000a0	83 c0 49	 add	 eax, 73			; 00000049H
  000a3	f3 0f 2a c0	 cvtsi2ss xmm0, eax
  000a7	f3 0f 11 85 f0
	fe ff ff	 movss	 DWORD PTR tv327[ebp], xmm0
  000af	83 c3 2a	 add	 ebx, 42			; 0000002aH
  000b2	0f 57 c0	 xorps	 xmm0, xmm0
  000b5	f3 0f 2a c3	 cvtsi2ss xmm0, ebx
  000b9	8d 8f fc 01 00
	00		 lea	 ecx, DWORD PTR [edi+508]
  000bf	f3 0f 11 85 f4
	fe ff ff	 movss	 DWORD PTR tv329[ebp], xmm0
  000c7	ff 15 00 00 00
	00		 call	 DWORD PTR __imp_?c_str@ioHashString@@QBEPBDXZ
  000cd	8b 3d 00 00 00
	00		 mov	 edi, DWORD PTR __imp_?GetSingleton@ioStringManager@@SAAAV1@XZ
  000d3	50		 push	 eax
  000d4	6a 00		 push	 0
  000d6	6a 01		 push	 1
  000d8	68 00 00 00 00	 push	 OFFSET ??_C@_00CNPNBAHC@?$AA@
  000dd	68 00 00 00 00	 push	 OFFSET ??_C@_0CI@JHPONKIJ@ioHousingBlockInvenItemButton?3?3O@
  000e2	ff d7		 call	 edi
  000e4	8b 1d 00 00 00
	00		 mov	 ebx, DWORD PTR __imp_?GetString@ioStringManager@@QAEPADPBD0HW4FileNamePrefix@1@@Z
  000ea	8b c8		 mov	 ecx, eax
  000ec	ff d3		 call	 ebx
  000ee	f3 0f 10 05 00
	00 00 00	 movss	 xmm0, DWORD PTR __real@3f19999a
  000f6	50		 push	 eax
  000f7	83 ec 0c	 sub	 esp, 12			; 0000000cH
  000fa	f3 0f 11 44 24
	08		 movss	 DWORD PTR [esp+8], xmm0
  00100	f3 0f 10 85 f0
	fe ff ff	 movss	 xmm0, DWORD PTR tv327[ebp]
  00108	f3 0f 11 44 24
	04		 movss	 DWORD PTR [esp+4], xmm0
  0010e	f3 0f 10 85 f4
	fe ff ff	 movss	 xmm0, DWORD PTR tv329[ebp]
  00116	f3 0f 11 04 24	 movss	 DWORD PTR [esp], xmm0
  0011b	ff d6		 call	 esi
  0011d	8b c8		 mov	 ecx, eax
  0011f	ff 15 00 00 00
	00		 call	 DWORD PTR __imp_?PrintText@ioFontManager@@QAEXMMMPBD0@Z

; 232  : 		g_FontMgr.PrintTextWidthCut( iXPos + 42, iYPos + 73, FONT_SIZE_12, 82, STR(1), m_szName.c_str() );

  00125	8b 8d ec fe ff
	ff		 mov	 ecx, DWORD PTR _this$GSCopy$[ebp]
  0012b	81 c1 fc 01 00
	00		 add	 ecx, 508		; 000001fcH
  00131	ff 15 00 00 00
	00		 call	 DWORD PTR __imp_?c_str@ioHashString@@QBEPBDXZ
  00137	50		 push	 eax
  00138	6a 00		 push	 0
  0013a	6a 01		 push	 1

; 233  : 	}
; 234  : 	else

  0013c	e9 b4 00 00 00	 jmp	 $LN9@OnRender
$LN4@OnRender:

; 235  : 	{
; 236  : 		g_FontMgr.SetTextColor( TCT_DEFAULT_DARKGRAY );

  00141	68 3a 3a 3a ff	 push	 -12961222		; ff3a3a3aH
  00146	ff d6		 call	 esi
  00148	8b c8		 mov	 ecx, eax
  0014a	ff 15 00 00 00
	00		 call	 DWORD PTR __imp_?SetTextColor@ioFontManager@@QAEXK@Z

; 237  : 		g_FontMgr.PrintText( iXPos + 42, iYPos + 73, FONT_SIZE_12, STR(2), m_szName.c_str() );

  00150	8b 85 e8 fe ff
	ff		 mov	 eax, DWORD PTR _iYPos$[ebp]
  00156	0f 57 c0	 xorps	 xmm0, xmm0
  00159	83 c0 49	 add	 eax, 73			; 00000049H
  0015c	f3 0f 2a c0	 cvtsi2ss xmm0, eax
  00160	f3 0f 11 85 f0
	fe ff ff	 movss	 DWORD PTR tv327[ebp], xmm0
  00168	83 c3 2a	 add	 ebx, 42			; 0000002aH
  0016b	0f 57 c0	 xorps	 xmm0, xmm0
  0016e	f3 0f 2a c3	 cvtsi2ss xmm0, ebx
  00172	8d 8f fc 01 00
	00		 lea	 ecx, DWORD PTR [edi+508]
  00178	f3 0f 11 85 f4
	fe ff ff	 movss	 DWORD PTR tv329[ebp], xmm0
  00180	ff 15 00 00 00
	00		 call	 DWORD PTR __imp_?c_str@ioHashString@@QBEPBDXZ
  00186	8b 3d 00 00 00
	00		 mov	 edi, DWORD PTR __imp_?GetSingleton@ioStringManager@@SAAAV1@XZ
  0018c	50		 push	 eax
  0018d	6a 00		 push	 0
  0018f	6a 02		 push	 2
  00191	68 00 00 00 00	 push	 OFFSET ??_C@_00CNPNBAHC@?$AA@
  00196	68 00 00 00 00	 push	 OFFSET ??_C@_0CI@JHPONKIJ@ioHousingBlockInvenItemButton?3?3O@
  0019b	ff d7		 call	 edi
  0019d	8b 1d 00 00 00
	00		 mov	 ebx, DWORD PTR __imp_?GetString@ioStringManager@@QAEPADPBD0HW4FileNamePrefix@1@@Z
  001a3	8b c8		 mov	 ecx, eax
  001a5	ff d3		 call	 ebx
  001a7	f3 0f 10 05 00
	00 00 00	 movss	 xmm0, DWORD PTR __real@3f19999a
  001af	50		 push	 eax
  001b0	83 ec 0c	 sub	 esp, 12			; 0000000cH
  001b3	f3 0f 11 44 24
	08		 movss	 DWORD PTR [esp+8], xmm0
  001b9	f3 0f 10 85 f0
	fe ff ff	 movss	 xmm0, DWORD PTR tv327[ebp]
  001c1	f3 0f 11 44 24
	04		 movss	 DWORD PTR [esp+4], xmm0
  001c7	f3 0f 10 85 f4
	fe ff ff	 movss	 xmm0, DWORD PTR tv329[ebp]
  001cf	f3 0f 11 04 24	 movss	 DWORD PTR [esp], xmm0
  001d4	ff d6		 call	 esi
  001d6	8b c8		 mov	 ecx, eax
  001d8	ff 15 00 00 00
	00		 call	 DWORD PTR __imp_?PrintText@ioFontManager@@QAEXMMMPBD0@Z

; 238  : 		g_FontMgr.PrintTextWidthCut( iXPos + 42, iYPos + 73, FONT_SIZE_12, 82, STR(2), m_szName.c_str() );

  001de	8b 8d ec fe ff
	ff		 mov	 ecx, DWORD PTR _this$GSCopy$[ebp]
  001e4	81 c1 fc 01 00
	00		 add	 ecx, 508		; 000001fcH
  001ea	ff 15 00 00 00
	00		 call	 DWORD PTR __imp_?c_str@ioHashString@@QBEPBDXZ
  001f0	50		 push	 eax
  001f1	6a 00		 push	 0
  001f3	6a 02		 push	 2
$LN9@OnRender:
  001f5	68 00 00 00 00	 push	 OFFSET ??_C@_00CNPNBAHC@?$AA@
  001fa	68 00 00 00 00	 push	 OFFSET ??_C@_0CI@JHPONKIJ@ioHousingBlockInvenItemButton?3?3O@
  001ff	ff d7		 call	 edi
  00201	8b c8		 mov	 ecx, eax
  00203	ff d3		 call	 ebx
  00205	f3 0f 10 05 00
	00 00 00	 movss	 xmm0, DWORD PTR __real@42a40000
  0020d	50		 push	 eax
  0020e	83 ec 10	 sub	 esp, 16			; 00000010H
  00211	f3 0f 11 44 24
	0c		 movss	 DWORD PTR [esp+12], xmm0
  00217	f3 0f 10 05 00
	00 00 00	 movss	 xmm0, DWORD PTR __real@3f19999a
  0021f	f3 0f 11 44 24
	08		 movss	 DWORD PTR [esp+8], xmm0
  00225	f3 0f 10 85 f0
	fe ff ff	 movss	 xmm0, DWORD PTR tv327[ebp]
  0022d	f3 0f 11 44 24
	04		 movss	 DWORD PTR [esp+4], xmm0
  00233	f3 0f 10 85 f4
	fe ff ff	 movss	 xmm0, DWORD PTR tv329[ebp]
  0023b	f3 0f 11 04 24	 movss	 DWORD PTR [esp], xmm0
  00240	ff d6		 call	 esi
  00242	8b c8		 mov	 ecx, eax
  00244	ff 15 00 00 00
	00		 call	 DWORD PTR __imp_?PrintTextWidthCut@ioFontManager@@QAEXMMMMPBD0@Z

; 239  : 	}
; 240  : 
; 241  : 	g_FontMgr.SetAlignType( TAT_CENTER );

  0024a	6a 01		 push	 1
  0024c	ff d6		 call	 esi
  0024e	8b c8		 mov	 ecx, eax
  00250	ff 15 00 00 00
	00		 call	 DWORD PTR __imp_?SetAlignType@ioFontManager@@QAEXW4TextAlignType@@@Z

; 242  : 	g_FontMgr.SetTextStyle( TS_NORMAL );

  00256	6a 00		 push	 0
  00258	ff d6		 call	 esi
  0025a	8b c8		 mov	 ecx, eax
  0025c	ff 15 00 00 00
	00		 call	 DWORD PTR __imp_?SetTextStyle@ioFontManager@@QAEXW4TextStyle@@@Z

; 243  : 	g_FontMgr.SetBkColor( 0, 0, 0 );	

  00262	33 c0		 xor	 eax, eax
  00264	50		 push	 eax
  00265	50		 push	 eax
  00266	50		 push	 eax
  00267	ff d6		 call	 esi
  00269	8b c8		 mov	 ecx, eax
  0026b	ff 15 00 00 00
	00		 call	 DWORD PTR __imp_?SetBkColor@ioFontManager@@QAEXHHH@Z

; 244  : 
; 245  : 	char szNum[MAX_PATH];
; 246  : 	Help::ConvertNumToStrComma( m_nCount, szNum, MAX_PATH );

  00271	68 04 01 00 00	 push	 260			; 00000104H
  00276	8d 85 f8 fe ff
	ff		 lea	 eax, DWORD PTR _szNum$[ebp]
  0027c	50		 push	 eax
  0027d	8b 85 ec fe ff
	ff		 mov	 eax, DWORD PTR _this$GSCopy$[ebp]
  00283	ff b0 24 02 00
	00		 push	 DWORD PTR [eax+548]
  00289	e8 00 00 00 00	 call	 ?ConvertNumToStrComma@Help@@YAXHPADH@Z ; Help::ConvertNumToStrComma

; 247  : 
; 248  : 	if( m_bGray )

  0028e	8b 85 ec fe ff
	ff		 mov	 eax, DWORD PTR _this$GSCopy$[ebp]
  00294	83 c4 0c	 add	 esp, 12			; 0000000cH
  00297	80 b8 28 02 00
	00 00		 cmp	 BYTE PTR [eax+552], 0
  0029e	74 1c		 je	 SHORT $LN2@OnRender

; 249  : 	{
; 250  : 		g_FontMgr.SetTextColor( TCT_DEFAULT_GRAY );

  002a0	68 6e 6e 6e ff	 push	 -9539986		; ff6e6e6eH
  002a5	ff d6		 call	 esi
  002a7	8b c8		 mov	 ecx, eax
  002a9	ff 15 00 00 00
	00		 call	 DWORD PTR __imp_?SetTextColor@ioFontManager@@QAEXK@Z

; 251  : 		g_FontMgr.PrintText( iXPos + 42, iYPos + 89, FONT_SIZE_12, STR(3), szNum );

  002af	8d 85 f8 fe ff
	ff		 lea	 eax, DWORD PTR _szNum$[ebp]
  002b5	50		 push	 eax
  002b6	6a 00		 push	 0
  002b8	6a 03		 push	 3

; 252  : 	}
; 253  : 	else

  002ba	eb 1a		 jmp	 SHORT $LN10@OnRender
$LN2@OnRender:

; 254  : 	{
; 255  : 		g_FontMgr.SetTextColor( TCT_DEFAULT_RED );

  002bc	68 00 16 b9 ff	 push	 -4647424		; ffb91600H
  002c1	ff d6		 call	 esi
  002c3	8b c8		 mov	 ecx, eax
  002c5	ff 15 00 00 00
	00		 call	 DWORD PTR __imp_?SetTextColor@ioFontManager@@QAEXK@Z

; 256  : 		g_FontMgr.PrintText( iXPos + 42, iYPos + 89, FONT_SIZE_12, STR(4), szNum );

  002cb	8d 85 f8 fe ff
	ff		 lea	 eax, DWORD PTR _szNum$[ebp]
  002d1	50		 push	 eax
  002d2	6a 00		 push	 0
  002d4	6a 04		 push	 4
$LN10@OnRender:
  002d6	68 00 00 00 00	 push	 OFFSET ??_C@_00CNPNBAHC@?$AA@
  002db	68 00 00 00 00	 push	 OFFSET ??_C@_0CI@JHPONKIJ@ioHousingBlockInvenItemButton?3?3O@
  002e0	ff d7		 call	 edi
  002e2	8b c8		 mov	 ecx, eax
  002e4	ff d3		 call	 ebx
  002e6	f3 0f 10 05 00
	00 00 00	 movss	 xmm0, DWORD PTR __real@3f19999a
  002ee	50		 push	 eax
  002ef	8b 85 e8 fe ff
	ff		 mov	 eax, DWORD PTR _iYPos$[ebp]
  002f5	83 ec 0c	 sub	 esp, 12			; 0000000cH
  002f8	f3 0f 11 44 24
	08		 movss	 DWORD PTR [esp+8], xmm0
  002fe	0f 57 c0	 xorps	 xmm0, xmm0
  00301	83 c0 59	 add	 eax, 89			; 00000059H
  00304	f3 0f 2a c0	 cvtsi2ss xmm0, eax
  00308	f3 0f 11 44 24
	04		 movss	 DWORD PTR [esp+4], xmm0
  0030e	f3 0f 10 85 f4
	fe ff ff	 movss	 xmm0, DWORD PTR tv329[ebp]
  00316	f3 0f 11 04 24	 movss	 DWORD PTR [esp], xmm0
  0031b	ff d6		 call	 esi
  0031d	8b c8		 mov	 ecx, eax
  0031f	ff 15 00 00 00
	00		 call	 DWORD PTR __imp_?PrintText@ioFontManager@@QAEXMMMPBD0@Z
  00325	5e		 pop	 esi
$LN1@OnRender:

; 257  : 	}
; 258  : }

  00326	8b 4d fc	 mov	 ecx, DWORD PTR __$ArrayPad$[ebp]
  00329	5f		 pop	 edi
  0032a	33 cd		 xor	 ecx, ebp
  0032c	5b		 pop	 ebx
  0032d	e8 00 00 00 00	 call	 @__security_check_cookie@4
  00332	c9		 leave
  00333	c3		 ret	 0
?OnRender@ioHousingBlockInvenItemButton@@UAEXXZ ENDP	; ioHousingBlockInvenItemButton::OnRender
_TEXT	ENDS
PUBLIC	??3@YAXPAX0@Z					; operator delete
; Function compile flags: /Ogsp
; File c:\program files (x86)\microsoft visual studio 10.0\vc\include\new
;	COMDAT ??3@YAXPAX0@Z
_TEXT	SEGMENT
___formal$ = 8						; size = 4
___formal$ = 12						; size = 4
??3@YAXPAX0@Z PROC					; operator delete, COMDAT

; 62   : 	}

  00000	c3		 ret	 0
??3@YAXPAX0@Z ENDP					; operator delete
_TEXT	ENDS
PUBLIC	??_7ioHousingBlockInvenWnd@@6B@			; ioHousingBlockInvenWnd::`vftable'
PUBLIC	??0ioHousingBlockInvenWnd@@QAE@XZ		; ioHousingBlockInvenWnd::ioHousingBlockInvenWnd
PUBLIC	??_R4ioHousingBlockInvenWnd@@6B@		; ioHousingBlockInvenWnd::`RTTI Complete Object Locator'
PUBLIC	??_R0?AVioHousingBlockInvenWnd@@@8		; ioHousingBlockInvenWnd `RTTI Type Descriptor'
PUBLIC	??_R3ioHousingBlockInvenWnd@@8			; ioHousingBlockInvenWnd::`RTTI Class Hierarchy Descriptor'
PUBLIC	??_R2ioHousingBlockInvenWnd@@8			; ioHousingBlockInvenWnd::`RTTI Base Class Array'
PUBLIC	??_R1A@?0A@EA@ioHousingBlockInvenWnd@@8		; ioHousingBlockInvenWnd::`RTTI Base Class Descriptor at (0,-1,0,64)'
PUBLIC	?OnRender@ioHousingBlockInvenWnd@@UAEXXZ	; ioHousingBlockInvenWnd::OnRender
PUBLIC	?OnProcess@ioHousingBlockInvenWnd@@UAEXM@Z	; ioHousingBlockInvenWnd::OnProcess
PUBLIC	?iwm_command@ioHousingBlockInvenWnd@@UAEXPAVioWnd@@HK@Z ; ioHousingBlockInvenWnd::iwm_command
PUBLIC	?iwm_vscroll@ioHousingBlockInvenWnd@@UAEXKH@Z	; ioHousingBlockInvenWnd::iwm_vscroll
PUBLIC	?iwm_wheel@ioHousingBlockInvenWnd@@UAEXH@Z	; ioHousingBlockInvenWnd::iwm_wheel
PUBLIC	?iwm_show@ioHousingBlockInvenWnd@@UAEXXZ	; ioHousingBlockInvenWnd::iwm_show
PUBLIC	?iwm_hide@ioHousingBlockInvenWnd@@UAEXXZ	; ioHousingBlockInvenWnd::iwm_hide
PUBLIC	?iwm_esc@ioHousingBlockInvenWnd@@UAE_NXZ	; ioHousingBlockInvenWnd::iwm_esc
EXTRN	__imp_??1ioWnd@@UAE@XZ:PROC
EXTRN	__imp_??0ioWnd@@QAE@XZ:PROC
EXTRN	?AddRenderFrame@ioWnd@@UAEXABVioHashString@@PAVioUIRenderFrame@@@Z:PROC ; ioWnd::AddRenderFrame
EXTRN	?AddRenderImage@ioWnd@@UAEXABVioHashString@@PAVioUIRenderImage@@@Z:PROC ; ioWnd::AddRenderImage
EXTRN	?ParseExtraInfo@ioWnd@@UAEXAAVioXMLElement@@@Z:PROC ; ioWnd::ParseExtraInfo
EXTRN	?SetWindowAlpha@ioWnd@@UAEXH@Z:PROC		; ioWnd::SetWindowAlpha
EXTRN	?CheckFrameReSize@ioWnd@@MAEXHHHH@Z:PROC	; ioWnd::CheckFrameReSize
EXTRN	?iwm_lbuttondown@ioWnd@@UAEXABVioMouse@@@Z:PROC	; ioWnd::iwm_lbuttondown
EXTRN	?iwm_lbuttonup@ioWnd@@UAEXABVioMouse@@@Z:PROC	; ioWnd::iwm_lbuttonup
EXTRN	?iwm_lbuttonDBLCLK@ioWnd@@UAEXABVioMouse@@@Z:PROC ; ioWnd::iwm_lbuttonDBLCLK
EXTRN	?iwm_rbuttondown@ioWnd@@UAEXABVioMouse@@@Z:PROC	; ioWnd::iwm_rbuttondown
EXTRN	?iwm_rbuttonup@ioWnd@@UAEXABVioMouse@@@Z:PROC	; ioWnd::iwm_rbuttonup
EXTRN	?iwm_mouseover@ioWnd@@UAEXABVioMouse@@@Z:PROC	; ioWnd::iwm_mouseover
EXTRN	?GetWndType@ioWnd@@UBEKXZ:PROC			; ioWnd::GetWndType
EXTRN	?GetHeaderFileName@ioWnd@@UAEPBDXZ:PROC		; ioWnd::GetHeaderFileName
EXTRN	?GetTemplateName@ioWnd@@UAEPBDXZ:PROC		; ioWnd::GetTemplateName
EXTRN	?GetDefClassName@ioWnd@@UBEPBDXZ:PROC		; ioWnd::GetDefClassName
EXTRN	?_Clone@ioWnd@@UAEPAV1@XZ:PROC			; ioWnd::_Clone
EXTRN	?Copy@ioWnd@@UAEXPAV1@@Z:PROC			; ioWnd::Copy
EXTRN	?SetSaveData@ioWnd@@UAEXAAVioXMLElement@@@Z:PROC ; ioWnd::SetSaveData
EXTRN	?GetNumFixedRenderFrame@ioWnd@@UBEHXZ:PROC	; ioWnd::GetNumFixedRenderFrame
EXTRN	?GetFixedRenderFrameType@ioWnd@@UAEPBDH@Z:PROC	; ioWnd::GetFixedRenderFrameType
EXTRN	?GetRenderFrame@ioWnd@@UAEPAPAVioUIRenderElement@@PBD@Z:PROC ; ioWnd::GetRenderFrame
EXTRN	?GetNumFixedRenderImage@ioWnd@@UBEHXZ:PROC	; ioWnd::GetNumFixedRenderImage
EXTRN	?GetFixedRenderImageType@ioWnd@@UAEPBDH@Z:PROC	; ioWnd::GetFixedRenderImageType
EXTRN	?GetRenderImage@ioWnd@@UAEPAPAVioUIRenderElement@@PBD@Z:PROC ; ioWnd::GetRenderImage
EXTRN	??_EioHousingBlockInvenWnd@@UAEPAXI@Z:PROC	; ioHousingBlockInvenWnd::`vector deleting destructor'
;	COMDAT ??_R1A@?0A@EA@ioHousingBlockInvenWnd@@8
; File d:\lost saga for developer\youtube\tutorial\source\src\lsclient\gui\iohousingblockinvenwnd.cpp
rdata$r	SEGMENT
??_R1A@?0A@EA@ioHousingBlockInvenWnd@@8 DD FLAT:??_R0?AVioHousingBlockInvenWnd@@@8 ; ioHousingBlockInvenWnd::`RTTI Base Class Descriptor at (0,-1,0,64)'
	DD	01H
	DD	00H
	DD	0ffffffffH
	DD	00H
	DD	040H
	DD	FLAT:??_R3ioHousingBlockInvenWnd@@8
rdata$r	ENDS
;	COMDAT ??_R2ioHousingBlockInvenWnd@@8
rdata$r	SEGMENT
??_R2ioHousingBlockInvenWnd@@8 DD FLAT:??_R1A@?0A@EA@ioHousingBlockInvenWnd@@8 ; ioHousingBlockInvenWnd::`RTTI Base Class Array'
	DD	FLAT:??_R1A@?0A@EA@ioWnd@@8
rdata$r	ENDS
;	COMDAT ??_R3ioHousingBlockInvenWnd@@8
rdata$r	SEGMENT
??_R3ioHousingBlockInvenWnd@@8 DD 00H			; ioHousingBlockInvenWnd::`RTTI Class Hierarchy Descriptor'
	DD	00H
	DD	02H
	DD	FLAT:??_R2ioHousingBlockInvenWnd@@8
rdata$r	ENDS
;	COMDAT ??_R0?AVioHousingBlockInvenWnd@@@8
_DATA	SEGMENT
??_R0?AVioHousingBlockInvenWnd@@@8 DD FLAT:??_7type_info@@6B@ ; ioHousingBlockInvenWnd `RTTI Type Descriptor'
	DD	00H
	DB	'.?AVioHousingBlockInvenWnd@@', 00H
_DATA	ENDS
;	COMDAT ??_R4ioHousingBlockInvenWnd@@6B@
rdata$r	SEGMENT
??_R4ioHousingBlockInvenWnd@@6B@ DD 00H			; ioHousingBlockInvenWnd::`RTTI Complete Object Locator'
	DD	00H
	DD	00H
	DD	FLAT:??_R0?AVioHousingBlockInvenWnd@@@8
	DD	FLAT:??_R3ioHousingBlockInvenWnd@@8
rdata$r	ENDS
;	COMDAT ??_7ioHousingBlockInvenWnd@@6B@
CONST	SEGMENT
??_7ioHousingBlockInvenWnd@@6B@ DD FLAT:??_R4ioHousingBlockInvenWnd@@6B@ ; ioHousingBlockInvenWnd::`vftable'
	DD	FLAT:?AddRenderFrame@ioWnd@@UAEXABVioHashString@@PAVioUIRenderFrame@@@Z
	DD	FLAT:?AddRenderImage@ioWnd@@UAEXABVioHashString@@PAVioUIRenderImage@@@Z
	DD	FLAT:?AddTooltipHelp@ioWnd@@UAEXABVioHashString@@00@Z
	DD	FLAT:?ParseExtraInfo@ioWnd@@UAEXAAVioXMLElement@@@Z
	DD	FLAT:?AddNamedRenderImage@ioWnd@@UAEXABVioHashString@@PAVioUIRenderImage@@@Z
	DD	FLAT:?RemoveNamedRenderImage@ioWnd@@UAEXABVioHashString@@@Z
	DD	FLAT:?GetNamedRenderImage@ioWnd@@UBEPAVioUIRenderImage@@ABVioHashString@@@Z
	DD	FLAT:?SetWindowAlpha@ioWnd@@UAEXH@Z
	DD	FLAT:?SetActive@ioWnd@@UAEXXZ
	DD	FLAT:?SetInActive@ioWnd@@UAEXXZ
	DD	FLAT:?ClearElementImageList@ioWnd@@UAEXXZ
	DD	FLAT:?SetSize@ioWnd@@UAEXHH@Z
	DD	FLAT:?SetPositionToDefault@ioWnd@@UAEXHH_N0@Z
	DD	FLAT:?IsNeedProcess@ioWnd@@UBE_NXZ
	DD	FLAT:?IsCanMouseReaction@ioWnd@@UBE_NXZ
	DD	FLAT:?AddChild@ioWnd@@UAEXPAV1@@Z
	DD	FLAT:?DeleteChild@ioWnd@@UAEXK@Z
	DD	FLAT:?DeleteAllChild@ioWnd@@UAEXXZ
	DD	FLAT:?OnRenderShowAndHide@ioWnd@@MAE_NXZ
	DD	FLAT:?OnRenderShowAndHideByDefault@ioWnd@@MAE_NK@Z
	DD	FLAT:?OnRenderShowAndHideByTop@ioWnd@@MAE_NK@Z
	DD	FLAT:?OnRenderShowAndHideByDown@ioWnd@@MAE_NK@Z
	DD	FLAT:?OnRender@ioHousingBlockInvenWnd@@UAEXXZ
	DD	FLAT:?OnRenderAfterChild@ioWnd@@MAEXXZ
	DD	FLAT:?OnProcess@ioHousingBlockInvenWnd@@UAEXM@Z
	DD	FLAT:?OnMouseProcess@ioWnd@@MAEXABVioMouse@@@Z
	DD	FLAT:?CheckFrameReSize@ioWnd@@MAEXHHHH@Z
	DD	FLAT:?RenderImageList@ioWnd@@MAEXHHW4UIRenderType@@@Z
	DD	FLAT:?iwm_create@ioWnd@@UAEXXZ
	DD	FLAT:?iwm_destroy@ioWnd@@UAEXXZ
	DD	FLAT:?iwm_lbuttondown@ioWnd@@UAEXABVioMouse@@@Z
	DD	FLAT:?iwm_lbuttonup@ioWnd@@UAEXABVioMouse@@@Z
	DD	FLAT:?iwm_lbuttonDBLCLK@ioWnd@@UAEXABVioMouse@@@Z
	DD	FLAT:?iwm_rbuttondown@ioWnd@@UAEXABVioMouse@@@Z
	DD	FLAT:?iwm_rbuttonup@ioWnd@@UAEXABVioMouse@@@Z
	DD	FLAT:?iwm_command@ioHousingBlockInvenWnd@@UAEXPAVioWnd@@HK@Z
	DD	FLAT:?iwm_mouseover@ioWnd@@UAEXABVioMouse@@@Z
	DD	FLAT:?iwm_mousemove@ioWnd@@UAEXABVioMouse@@@Z
	DD	FLAT:?iwm_mouseleave@ioWnd@@UAEXABVioMouse@@@Z
	DD	FLAT:?iwm_vscroll@ioHousingBlockInvenWnd@@UAEXKH@Z
	DD	FLAT:?iwm_wheel@ioHousingBlockInvenWnd@@UAEXH@Z
	DD	FLAT:?iwm_show@ioHousingBlockInvenWnd@@UAEXXZ
	DD	FLAT:?iwm_hide@ioHousingBlockInvenWnd@@UAEXXZ
	DD	FLAT:?iwm_esc@ioHousingBlockInvenWnd@@UAE_NXZ
	DD	FLAT:?iwm_spacebar@ioWnd@@UAE_NXZ
	DD	FLAT:?iwm_gototop@ioWnd@@UAEXXZ
	DD	FLAT:?iwm_dragenter@ioWnd@@UAE?AW4IWDropEffect@@PAVioDragItem@@ABVioMouse@@@Z
	DD	FLAT:?iwm_dragover@ioWnd@@UAE?AW4IWDropEffect@@PAVioDragItem@@ABVioMouse@@@Z
	DD	FLAT:?iwm_dragleave@ioWnd@@UAEXXZ
	DD	FLAT:?iwm_dropitem@ioWnd@@UAE_NPAVioDragItem@@ABVioMouse@@PAV1@@Z
	DD	FLAT:?iwm_dropdone@ioWnd@@UAEXPAVioDragItem@@PAV1@_N@Z
	DD	FLAT:?IsEXType@ioWnd@@UBE_NXZ
	DD	FLAT:?GetWndType@ioWnd@@UBEKXZ
	DD	FLAT:?RenderWnd@ioWnd@@UAEXXZ
	DD	FLAT:?SetIDEX@ioWnd@@UAEXAAK_N@Z
	DD	FLAT:?ParseXML@ioWnd@@UAEXAAVioXMLElement@@@Z
	DD	FLAT:?GetHeaderFileName@ioWnd@@UAEPBDXZ
	DD	FLAT:?GetTemplateName@ioWnd@@UAEPBDXZ
	DD	FLAT:?GetDefClassName@ioWnd@@UBEPBDXZ
	DD	FLAT:?_Clone@ioWnd@@UAEPAV1@XZ
	DD	FLAT:?Copy@ioWnd@@UAEXPAV1@@Z
	DD	FLAT:?Save@ioWnd@@UAE_NAAVioXMLElement@@@Z
	DD	FLAT:?SetSaveData@ioWnd@@UAEXAAVioXMLElement@@@Z
	DD	FLAT:?SetPosX@ioWnd@@UAEXH@Z
	DD	FLAT:?SetPosY@ioWnd@@UAEXH@Z
	DD	FLAT:?SetWidth@ioWnd@@UAEXH@Z
	DD	FLAT:?SetHeight@ioWnd@@UAEXH@Z
	DD	FLAT:?GetNumFixedRenderFrame@ioWnd@@UBEHXZ
	DD	FLAT:?GetFixedRenderFrameType@ioWnd@@UAEPBDH@Z
	DD	FLAT:?GetRenderFrame@ioWnd@@UAEPAPAVioUIRenderElement@@PBD@Z
	DD	FLAT:?GetNumFixedRenderImage@ioWnd@@UBEHXZ
	DD	FLAT:?GetFixedRenderImageType@ioWnd@@UAEPBDH@Z
	DD	FLAT:?GetRenderImage@ioWnd@@UAEPAPAVioUIRenderElement@@PBD@Z
	DD	FLAT:?AddEffect@ioWnd@@UAEXABVioHashString@@PAVioUI3DEffectRender@@@Z
	DD	FLAT:?GetEffect@ioWnd@@UAEPAVioUI3DEffectRender@@VioHashString@@@Z
	DD	FLAT:??_EioHousingBlockInvenWnd@@UAEPAXI@Z
CONST	ENDS
;	COMDAT xdata$x
xdata$x	SEGMENT
__unwindtable$??0ioHousingBlockInvenWnd@@QAE@XZ DD 0ffffffffH
	DD	FLAT:__unwindfunclet$??0ioHousingBlockInvenWnd@@QAE@XZ$0
__ehfuncinfo$??0ioHousingBlockInvenWnd@@QAE@XZ DD 019930522H
	DD	01H
	DD	FLAT:__unwindtable$??0ioHousingBlockInvenWnd@@QAE@XZ
	DD	2 DUP(00H)
	DD	2 DUP(00H)
	DD	00H
	DD	01H
; Function compile flags: /Ogsp
xdata$x	ENDS
;	COMDAT ??0ioHousingBlockInvenWnd@@QAE@XZ
_TEXT	SEGMENT
_this$ = -16						; size = 4
__$EHRec$ = -12						; size = 12
??0ioHousingBlockInvenWnd@@QAE@XZ PROC			; ioHousingBlockInvenWnd::ioHousingBlockInvenWnd, COMDAT
; _this$ = ecx

; 263  : {

  00000	6a 04		 push	 4
  00002	b8 00 00 00 00	 mov	 eax, __ehhandler$??0ioHousingBlockInvenWnd@@QAE@XZ
  00007	e8 00 00 00 00	 call	 __EH_prolog3
  0000c	8b f1		 mov	 esi, ecx
  0000e	89 75 f0	 mov	 DWORD PTR _this$[ebp], esi
  00011	ff 15 00 00 00
	00		 call	 DWORD PTR __imp_??0ioWnd@@QAE@XZ
  00017	83 65 fc 00	 and	 DWORD PTR __$EHRec$[ebp+8], 0
  0001b	8d 8e 78 01 00
	00		 lea	 ecx, DWORD PTR [esi+376]
  00021	c7 06 00 00 00
	00		 mov	 DWORD PTR [esi], OFFSET ??_7ioHousingBlockInvenWnd@@6B@
  00027	ff 15 00 00 00
	00		 call	 DWORD PTR __imp_??0ioHashString@@QAE@XZ

; 264  : 	m_pPreEdit			= NULL;

  0002d	83 a6 74 01 00
	00 00		 and	 DWORD PTR [esi+372], 0

; 265  : 	m_eBlockModeType	= 0;

  00034	83 a6 68 01 00
	00 00		 and	 DWORD PTR [esi+360], 0

; 266  : }

  0003b	8b c6		 mov	 eax, esi
  0003d	e8 00 00 00 00	 call	 __EH_epilog3
  00042	c3		 ret	 0
_TEXT	ENDS
;	COMDAT text$x
text$x	SEGMENT
__unwindfunclet$??0ioHousingBlockInvenWnd@@QAE@XZ$0:
  00000	8b 4d f0	 mov	 ecx, DWORD PTR _this$[ebp]
  00003	ff 25 00 00 00
	00		 jmp	 DWORD PTR __imp_??1ioWnd@@UAE@XZ
__ehhandler$??0ioHousingBlockInvenWnd@@QAE@XZ:
  00009	8b 54 24 08	 mov	 edx, DWORD PTR [esp+8]
  0000d	8d 42 0c	 lea	 eax, DWORD PTR [edx+12]
  00010	8b 4a ec	 mov	 ecx, DWORD PTR [edx-20]
  00013	33 c8		 xor	 ecx, eax
  00015	e8 00 00 00 00	 call	 @__security_check_cookie@4
  0001a	b8 00 00 00 00	 mov	 eax, OFFSET __ehfuncinfo$??0ioHousingBlockInvenWnd@@QAE@XZ
  0001f	e9 00 00 00 00	 jmp	 ___CxxFrameHandler3
text$x	ENDS
??0ioHousingBlockInvenWnd@@QAE@XZ ENDP			; ioHousingBlockInvenWnd::ioHousingBlockInvenWnd
PUBLIC	??1ioHousingBlockInvenWnd@@UAE@XZ		; ioHousingBlockInvenWnd::~ioHousingBlockInvenWnd
;	COMDAT xdata$x
xdata$x	SEGMENT
__unwindtable$??1ioHousingBlockInvenWnd@@UAE@XZ DD 0ffffffffH
	DD	FLAT:__unwindfunclet$??1ioHousingBlockInvenWnd@@UAE@XZ$0
__ehfuncinfo$??1ioHousingBlockInvenWnd@@UAE@XZ DD 019930522H
	DD	01H
	DD	FLAT:__unwindtable$??1ioHousingBlockInvenWnd@@UAE@XZ
	DD	2 DUP(00H)
	DD	2 DUP(00H)
	DD	00H
	DD	01H
; Function compile flags: /Ogsp
xdata$x	ENDS
;	COMDAT ??1ioHousingBlockInvenWnd@@UAE@XZ
_TEXT	SEGMENT
_this$ = -16						; size = 4
__$EHRec$ = -12						; size = 12
??1ioHousingBlockInvenWnd@@UAE@XZ PROC			; ioHousingBlockInvenWnd::~ioHousingBlockInvenWnd, COMDAT
; _this$ = ecx

; 269  : {

  00000	6a 04		 push	 4
  00002	b8 00 00 00 00	 mov	 eax, __ehhandler$??1ioHousingBlockInvenWnd@@UAE@XZ
  00007	e8 00 00 00 00	 call	 __EH_prolog3
  0000c	8b f1		 mov	 esi, ecx
  0000e	89 75 f0	 mov	 DWORD PTR _this$[ebp], esi
  00011	c7 06 00 00 00
	00		 mov	 DWORD PTR [esi], OFFSET ??_7ioHousingBlockInvenWnd@@6B@
  00017	83 65 fc 00	 and	 DWORD PTR __$EHRec$[ebp+8], 0

; 270  : }

  0001b	8d 8e 78 01 00
	00		 lea	 ecx, DWORD PTR [esi+376]
  00021	ff 15 00 00 00
	00		 call	 DWORD PTR __imp_??1ioHashString@@QAE@XZ
  00027	83 4d fc ff	 or	 DWORD PTR __$EHRec$[ebp+8], -1
  0002b	8b ce		 mov	 ecx, esi
  0002d	ff 15 00 00 00
	00		 call	 DWORD PTR __imp_??1ioWnd@@UAE@XZ
  00033	e8 00 00 00 00	 call	 __EH_epilog3
  00038	c3		 ret	 0
_TEXT	ENDS
;	COMDAT text$x
text$x	SEGMENT
__unwindfunclet$??1ioHousingBlockInvenWnd@@UAE@XZ$0:
  00000	8b 4d f0	 mov	 ecx, DWORD PTR _this$[ebp]
  00003	ff 25 00 00 00
	00		 jmp	 DWORD PTR __imp_??1ioWnd@@UAE@XZ
__ehhandler$??1ioHousingBlockInvenWnd@@UAE@XZ:
  00009	8b 54 24 08	 mov	 edx, DWORD PTR [esp+8]
  0000d	8d 42 0c	 lea	 eax, DWORD PTR [edx+12]
  00010	8b 4a ec	 mov	 ecx, DWORD PTR [edx-20]
  00013	33 c8		 xor	 ecx, eax
  00015	e8 00 00 00 00	 call	 @__security_check_cookie@4
  0001a	b8 00 00 00 00	 mov	 eax, OFFSET __ehfuncinfo$??1ioHousingBlockInvenWnd@@UAE@XZ
  0001f	e9 00 00 00 00	 jmp	 ___CxxFrameHandler3
text$x	ENDS
??1ioHousingBlockInvenWnd@@UAE@XZ ENDP			; ioHousingBlockInvenWnd::~ioHousingBlockInvenWnd
EXTRN	__imp_?HideWnd@ioWnd@@QAEXXZ:PROC
; Function compile flags: /Ogsp
;	COMDAT ?iwm_esc@ioHousingBlockInvenWnd@@UAE_NXZ
_TEXT	SEGMENT
?iwm_esc@ioHousingBlockInvenWnd@@UAE_NXZ PROC		; ioHousingBlockInvenWnd::iwm_esc, COMDAT
; _this$ = ecx

; 327  : 	HideWnd();

  00000	ff 15 00 00 00
	00		 call	 DWORD PTR __imp_?HideWnd@ioWnd@@QAEXXZ

; 328  : 	return true;

  00006	b0 01		 mov	 al, 1

; 329  : }

  00008	c3		 ret	 0
?iwm_esc@ioHousingBlockInvenWnd@@UAE_NXZ ENDP		; ioHousingBlockInvenWnd::iwm_esc
_TEXT	ENDS
PUBLIC	??_R0?AVioEdit@@@8				; ioEdit `RTTI Type Descriptor'
PUBLIC	?EnableEditFocus@ioHousingBlockInvenWnd@@QAEXXZ	; ioHousingBlockInvenWnd::EnableEditFocus
EXTRN	__imp_?Clear@ioHashString@@QAEXXZ:PROC
EXTRN	__imp_?SetString@ioInputBox@@QAEXPBD@Z:PROC
EXTRN	__imp_?GetSingleton@ioInputBox@@SAAAV1@XZ:PROC
EXTRN	__imp_?ClearString@ioEdit@@QAEXXZ:PROC
EXTRN	__imp_?m_pKeyFocusEdit@ioEdit@@2PAV1@A:DWORD
;	COMDAT ??_R0?AVioEdit@@@8
_DATA	SEGMENT
??_R0?AVioEdit@@@8 DD FLAT:??_7type_info@@6B@		; ioEdit `RTTI Type Descriptor'
	DD	00H
	DB	'.?AVioEdit@@', 00H
; Function compile flags: /Ogsp
_DATA	ENDS
;	COMDAT ?EnableEditFocus@ioHousingBlockInvenWnd@@QAEXXZ
_TEXT	SEGMENT
?EnableEditFocus@ioHousingBlockInvenWnd@@QAEXXZ PROC	; ioHousingBlockInvenWnd::EnableEditFocus, COMDAT
; _this$ = ecx

; 332  : {

  00000	56		 push	 esi
  00001	57		 push	 edi

; 333  : 	ioEdit *pEdit = dynamic_cast<ioEdit*>( FindChildWnd( ID_EDITBOX ) );

  00002	6a 00		 push	 0
  00004	68 00 00 00 00	 push	 OFFSET ??_R0?AVioEdit@@@8
  00009	68 00 00 00 00	 push	 OFFSET ??_R0?AVioWnd@@@8
  0000e	6a 00		 push	 0
  00010	6a 03		 push	 3
  00012	8b f9		 mov	 edi, ecx
  00014	ff 15 00 00 00
	00		 call	 DWORD PTR __imp_?FindChildWnd@ioWnd@@QAEPAV1@K@Z
  0001a	50		 push	 eax
  0001b	e8 00 00 00 00	 call	 ___RTDynamicCast
  00020	8b f0		 mov	 esi, eax
  00022	83 c4 14	 add	 esp, 20			; 00000014H

; 334  : 	if( pEdit && pEdit->IsShow() )

  00025	85 f6		 test	 esi, esi
  00027	74 55		 je	 SHORT $LN2@EnableEdit
  00029	8b ce		 mov	 ecx, esi
  0002b	ff 15 00 00 00
	00		 call	 DWORD PTR __imp_?IsShow@ioWnd@@QBE_NXZ
  00031	84 c0		 test	 al, al
  00033	74 49		 je	 SHORT $LN2@EnableEdit

; 335  : 	{
; 336  : 		if( m_pPreEdit != pEdit )

  00035	39 b7 74 01 00
	00		 cmp	 DWORD PTR [edi+372], esi
  0003b	74 0e		 je	 SHORT $LN1@EnableEdit

; 337  : 			m_pPreEdit = ioEdit::m_pKeyFocusEdit;

  0003d	8b 0d 00 00 00
	00		 mov	 ecx, DWORD PTR __imp_?m_pKeyFocusEdit@ioEdit@@2PAV1@A
  00043	8b 09		 mov	 ecx, DWORD PTR [ecx]
  00045	89 8f 74 01 00
	00		 mov	 DWORD PTR [edi+372], ecx
$LN1@EnableEdit:

; 338  : 
; 339  : 		pEdit->ClearString();

  0004b	8b ce		 mov	 ecx, esi
  0004d	ff 15 00 00 00
	00		 call	 DWORD PTR __imp_?ClearString@ioEdit@@QAEXXZ

; 340  : 		pEdit->SetKeyFocus();

  00053	8b 06		 mov	 eax, DWORD PTR [esi]
  00055	8b ce		 mov	 ecx, esi
  00057	ff 90 30 01 00
	00		 call	 DWORD PTR [eax+304]

; 341  : 		g_InputBox.SetString( "" );

  0005d	68 00 00 00 00	 push	 OFFSET ??_C@_00CNPNBAHC@?$AA@
  00062	ff 15 00 00 00
	00		 call	 DWORD PTR __imp_?GetSingleton@ioInputBox@@SAAAV1@XZ
  00068	8b c8		 mov	 ecx, eax
  0006a	ff 15 00 00 00
	00		 call	 DWORD PTR __imp_?SetString@ioInputBox@@QAEXPBD@Z

; 342  : 		m_KeyWord.Clear();

  00070	8d 8f 78 01 00
	00		 lea	 ecx, DWORD PTR [edi+376]
  00076	5f		 pop	 edi
  00077	5e		 pop	 esi
  00078	ff 25 00 00 00
	00		 jmp	 DWORD PTR __imp_?Clear@ioHashString@@QAEXXZ
$LN2@EnableEdit:
  0007e	5f		 pop	 edi
  0007f	5e		 pop	 esi

; 343  : 	}
; 344  : }

  00080	c3		 ret	 0
?EnableEditFocus@ioHousingBlockInvenWnd@@QAEXXZ ENDP	; ioHousingBlockInvenWnd::EnableEditFocus
_TEXT	ENDS
PUBLIC	?length@?$char_traits@D@std@@SAIPBD@Z		; std::char_traits<char>::length
; Function compile flags: /Ogsp
; File c:\program files (x86)\microsoft visual studio 10.0\vc\include\iosfwd
;	COMDAT ?length@?$char_traits@D@std@@SAIPBD@Z
_TEXT	SEGMENT
__First$ = 8						; size = 4
?length@?$char_traits@D@std@@SAIPBD@Z PROC		; std::char_traits<char>::length, COMDAT

; 490  : 		{	// find length of null-terminated string

  00000	55		 push	 ebp
  00001	8b ec		 mov	 ebp, esp

; 491  : 		return (_CSTD strlen(_First));

  00003	8b 45 08	 mov	 eax, DWORD PTR __First$[ebp]
  00006	8d 50 01	 lea	 edx, DWORD PTR [eax+1]
$LL3@length:
  00009	8a 08		 mov	 cl, BYTE PTR [eax]
  0000b	40		 inc	 eax
  0000c	84 c9		 test	 cl, cl
  0000e	75 f9		 jne	 SHORT $LL3@length
  00010	2b c2		 sub	 eax, edx

; 492  : 		}

  00012	5d		 pop	 ebp
  00013	c3		 ret	 0
?length@?$char_traits@D@std@@SAIPBD@Z ENDP		; std::char_traits<char>::length
_TEXT	ENDS
PUBLIC	?copy@?$char_traits@D@std@@SAPADPADPBDI@Z	; std::char_traits<char>::copy
EXTRN	_memcpy:PROC
; Function compile flags: /Ogsp
;	COMDAT ?copy@?$char_traits@D@std@@SAPADPADPBDI@Z
_TEXT	SEGMENT
__First1$ = 8						; size = 4
__First2$ = 12						; size = 4
__Count$ = 16						; size = 4
?copy@?$char_traits@D@std@@SAPADPADPBDI@Z PROC		; std::char_traits<char>::copy, COMDAT

; 496  : 		{	// copy [_First1, _First1 + _Count) to [_First2, ...)

  00000	55		 push	 ebp
  00001	8b ec		 mov	 ebp, esp

; 498  : 		}

  00003	5d		 pop	 ebp

; 497  : 		return ((_Elem *)_CSTD memcpy(_First1, _First2, _Count));

  00004	e9 00 00 00 00	 jmp	 _memcpy
?copy@?$char_traits@D@std@@SAPADPADPBDI@Z ENDP		; std::char_traits<char>::copy
_TEXT	ENDS
PUBLIC	?DisableEditFocus@ioHousingBlockInvenWnd@@QAEXXZ ; ioHousingBlockInvenWnd::DisableEditFocus
; Function compile flags: /Ogsp
; File d:\lost saga for developer\youtube\tutorial\source\src\lsclient\gui\iohousingblockinvenwnd.cpp
;	COMDAT ?DisableEditFocus@ioHousingBlockInvenWnd@@QAEXXZ
_TEXT	SEGMENT
?DisableEditFocus@ioHousingBlockInvenWnd@@QAEXXZ PROC	; ioHousingBlockInvenWnd::DisableEditFocus, COMDAT
; _this$ = ecx

; 347  : {

  00000	56		 push	 esi
  00001	8b f1		 mov	 esi, ecx
  00003	57		 push	 edi

; 348  : 	ioEdit* pEdit = dynamic_cast<ioEdit*>( m_pPreEdit );

  00004	8b be 74 01 00
	00		 mov	 edi, DWORD PTR [esi+372]

; 349  : 	if( pEdit )	

  0000a	85 ff		 test	 edi, edi
  0000c	74 22		 je	 SHORT $LN1@DisableEdi

; 350  : 	{
; 351  : 		ioWnd *pParent = pEdit->GetParent();

  0000e	8b cf		 mov	 ecx, edi
  00010	ff 15 00 00 00
	00		 call	 DWORD PTR __imp_?GetParent@ioWnd@@QAEPAV1@XZ

; 352  : 		if( pParent )

  00016	85 c0		 test	 eax, eax
  00018	74 16		 je	 SHORT $LN1@DisableEdi

; 353  : 		{
; 354  : 			if( pParent->IsShow() )

  0001a	8b c8		 mov	 ecx, eax
  0001c	ff 15 00 00 00
	00		 call	 DWORD PTR __imp_?IsShow@ioWnd@@QBE_NXZ
  00022	84 c0		 test	 al, al
  00024	74 0a		 je	 SHORT $LN1@DisableEdi

; 355  : 			{
; 356  : 				pEdit->SetKeyFocus();

  00026	8b 07		 mov	 eax, DWORD PTR [edi]
  00028	8b cf		 mov	 ecx, edi
  0002a	ff 90 30 01 00
	00		 call	 DWORD PTR [eax+304]
$LN1@DisableEdi:

; 357  : 			}
; 358  : 		}
; 359  : 	}
; 360  : 	m_pPreEdit = NULL;

  00030	83 a6 74 01 00
	00 00		 and	 DWORD PTR [esi+372], 0
  00037	5f		 pop	 edi

; 361  : 	m_KeyWord.Clear();

  00038	8d 8e 78 01 00
	00		 lea	 ecx, DWORD PTR [esi+376]
  0003e	5e		 pop	 esi
  0003f	ff 25 00 00 00
	00		 jmp	 DWORD PTR __imp_?Clear@ioHashString@@QAEXXZ
?DisableEditFocus@ioHousingBlockInvenWnd@@QAEXXZ ENDP	; ioHousingBlockInvenWnd::DisableEditFocus
_TEXT	ENDS
PUBLIC	?move@?$char_traits@D@std@@SAPADPADPBDI@Z	; std::char_traits<char>::move
EXTRN	__imp__memmove:PROC
; Function compile flags: /Ogsp
; File c:\program files (x86)\microsoft visual studio 10.0\vc\include\iosfwd
;	COMDAT ?move@?$char_traits@D@std@@SAPADPADPBDI@Z
_TEXT	SEGMENT
__First1$ = 8						; size = 4
__First2$ = 12						; size = 4
__Count$ = 16						; size = 4
?move@?$char_traits@D@std@@SAPADPADPBDI@Z PROC		; std::char_traits<char>::move, COMDAT

; 516  : 		{	// copy [_First1, _First1 + _Count) to [_First2, ...)

  00000	55		 push	 ebp
  00001	8b ec		 mov	 ebp, esp

; 518  : 		}

  00003	5d		 pop	 ebp

; 517  : 		return ((_Elem *)_CSTD memmove(_First1, _First2, _Count));

  00004	ff 25 00 00 00
	00		 jmp	 DWORD PTR __imp__memmove
?move@?$char_traits@D@std@@SAPADPADPBDI@Z ENDP		; std::char_traits<char>::move
_TEXT	ENDS
PUBLIC	?IsKeyFocus@ioHousingBlockInvenWnd@@QAE_NXZ	; ioHousingBlockInvenWnd::IsKeyFocus
EXTRN	__imp_?IsKeyFocus@ioEdit@@QBE_NXZ:PROC
; Function compile flags: /Ogsp
; File d:\lost saga for developer\youtube\tutorial\source\src\lsclient\gui\iohousingblockinvenwnd.cpp
;	COMDAT ?IsKeyFocus@ioHousingBlockInvenWnd@@QAE_NXZ
_TEXT	SEGMENT
?IsKeyFocus@ioHousingBlockInvenWnd@@QAE_NXZ PROC	; ioHousingBlockInvenWnd::IsKeyFocus, COMDAT
; _this$ = ecx

; 365  : {

  00000	56		 push	 esi

; 366  : 	ioEdit *pEdit = dynamic_cast<ioEdit*>( FindChildWnd( ID_EDITBOX ) );

  00001	6a 00		 push	 0
  00003	68 00 00 00 00	 push	 OFFSET ??_R0?AVioEdit@@@8
  00008	68 00 00 00 00	 push	 OFFSET ??_R0?AVioWnd@@@8
  0000d	6a 00		 push	 0
  0000f	6a 03		 push	 3
  00011	ff 15 00 00 00
	00		 call	 DWORD PTR __imp_?FindChildWnd@ioWnd@@QAEPAV1@K@Z
  00017	50		 push	 eax
  00018	e8 00 00 00 00	 call	 ___RTDynamicCast
  0001d	8b f0		 mov	 esi, eax
  0001f	83 c4 14	 add	 esp, 20			; 00000014H

; 367  : 	if( pEdit && pEdit->IsShow() && pEdit->IsKeyFocus() )

  00022	85 f6		 test	 esi, esi
  00024	74 1c		 je	 SHORT $LN1@IsKeyFocus
  00026	8b ce		 mov	 ecx, esi
  00028	ff 15 00 00 00
	00		 call	 DWORD PTR __imp_?IsShow@ioWnd@@QBE_NXZ
  0002e	84 c0		 test	 al, al
  00030	74 10		 je	 SHORT $LN1@IsKeyFocus
  00032	8b ce		 mov	 ecx, esi
  00034	ff 15 00 00 00
	00		 call	 DWORD PTR __imp_?IsKeyFocus@ioEdit@@QBE_NXZ
  0003a	84 c0		 test	 al, al
  0003c	74 04		 je	 SHORT $LN1@IsKeyFocus

; 368  : 	{
; 369  : 		return true;

  0003e	b0 01		 mov	 al, 1
  00040	5e		 pop	 esi

; 373  : }

  00041	c3		 ret	 0
$LN1@IsKeyFocus:

; 370  : 	}
; 371  : 
; 372  : 	return false;

  00042	32 c0		 xor	 al, al
  00044	5e		 pop	 esi

; 373  : }

  00045	c3		 ret	 0
?IsKeyFocus@ioHousingBlockInvenWnd@@QAE_NXZ ENDP	; ioHousingBlockInvenWnd::IsKeyFocus
_TEXT	ENDS
PUBLIC	?assign@?$char_traits@D@std@@SAXAADABD@Z	; std::char_traits<char>::assign
; Function compile flags: /Ogsp
; File c:\program files (x86)\microsoft visual studio 10.0\vc\include\iosfwd
;	COMDAT ?assign@?$char_traits@D@std@@SAXAADABD@Z
_TEXT	SEGMENT
__Left$ = 8						; size = 4
__Right$ = 12						; size = 4
?assign@?$char_traits@D@std@@SAXAADABD@Z PROC		; std::char_traits<char>::assign, COMDAT

; 526  : 		{	// assign an element

  00000	55		 push	 ebp
  00001	8b ec		 mov	 ebp, esp

; 527  : 		_Left = _Right;

  00003	8b 45 0c	 mov	 eax, DWORD PTR __Right$[ebp]
  00006	8a 00		 mov	 al, BYTE PTR [eax]
  00008	8b 4d 08	 mov	 ecx, DWORD PTR __Left$[ebp]
  0000b	88 01		 mov	 BYTE PTR [ecx], al

; 528  : 		}

  0000d	5d		 pop	 ebp
  0000e	c3		 ret	 0
?assign@?$char_traits@D@std@@SAXAADABD@Z ENDP		; std::char_traits<char>::assign
_TEXT	ENDS
PUBLIC	?ParseScroll@ioHousingBlockInvenWnd@@QAEXXZ	; ioHousingBlockInvenWnd::ParseScroll
; Function compile flags: /Ogsp
; File d:\lost saga for developer\youtube\tutorial\source\src\lsclient\gui\iohousingblockinvenwnd.cpp
;	COMDAT ?ParseScroll@ioHousingBlockInvenWnd@@QAEXXZ
_TEXT	SEGMENT
?ParseScroll@ioHousingBlockInvenWnd@@QAEXXZ PROC	; ioHousingBlockInvenWnd::ParseScroll, COMDAT
; _this$ = ecx

; 454  : {

  00000	56		 push	 esi
  00001	57		 push	 edi

; 455  : 	ioScroll *pScroll = (ioScroll*)FindChildWnd( ID_SCROLL );

  00002	68 e8 03 00 00	 push	 1000			; 000003e8H
  00007	8b f1		 mov	 esi, ecx
  00009	ff 15 00 00 00
	00		 call	 DWORD PTR __imp_?FindChildWnd@ioWnd@@QAEPAV1@K@Z
  0000f	8b f8		 mov	 edi, eax

; 456  : 	if( pScroll )

  00011	85 ff		 test	 edi, edi
  00013	74 2e		 je	 SHORT $LN2@ParseScrol

; 457  : 	{
; 458  : 		int nMax =  m_nCurrnItemMax / PAGE_ELEMENT_COUNT;

  00015	8b 86 6c 01 00
	00		 mov	 eax, DWORD PTR [esi+364]
  0001b	6a 15		 push	 21			; 00000015H
  0001d	99		 cdq
  0001e	59		 pop	 ecx
  0001f	f7 f9		 idiv	 ecx

; 459  : 		if( m_nCurrnItemMax % PAGE_ELEMENT_COUNT )

  00021	85 d2		 test	 edx, edx
  00023	74 01		 je	 SHORT $LN1@ParseScrol

; 460  : 			nMax++;

  00025	40		 inc	 eax
$LN1@ParseScrol:

; 461  : 
; 462  : 		pScroll->SetScrollRange( 0, nMax );

  00026	8b 17		 mov	 edx, DWORD PTR [edi]
  00028	50		 push	 eax
  00029	6a 00		 push	 0
  0002b	8b cf		 mov	 ecx, edi
  0002d	ff 92 30 01 00
	00		 call	 DWORD PTR [edx+304]

; 463  : 		pScroll->SetScrollPos( m_nCurrPage );

  00033	ff b6 60 01 00
	00		 push	 DWORD PTR [esi+352]
  00039	8b 07		 mov	 eax, DWORD PTR [edi]
  0003b	8b cf		 mov	 ecx, edi
  0003d	ff 90 38 01 00
	00		 call	 DWORD PTR [eax+312]
$LN2@ParseScrol:

; 464  : 	}
; 465  : }

  00043	5f		 pop	 edi
  00044	5e		 pop	 esi
  00045	c3		 ret	 0
?ParseScroll@ioHousingBlockInvenWnd@@QAEXXZ ENDP	; ioHousingBlockInvenWnd::ParseScroll
_TEXT	ENDS
PUBLIC	?ProcessEdit@ioHousingBlockInvenWnd@@QAEXXZ	; ioHousingBlockInvenWnd::ProcessEdit
EXTRN	__imp_??4ioHashString@@QAEAAV0@PBD@Z:PROC
EXTRN	__imp_?GetString@ioInputBox@@QBEPBDXZ:PROC
EXTRN	__imp_?IsEnter@ioInputBox@@QAE_NXZ:PROC
; Function compile flags: /Ogsp
;	COMDAT ?ProcessEdit@ioHousingBlockInvenWnd@@QAEXXZ
_TEXT	SEGMENT
?ProcessEdit@ioHousingBlockInvenWnd@@QAEXXZ PROC	; ioHousingBlockInvenWnd::ProcessEdit, COMDAT
; _this$ = ecx

; 486  : {

  00000	56		 push	 esi
  00001	57		 push	 edi

; 487  : 	ioEdit* pEdit = dynamic_cast<ioEdit*>( FindChildWnd( ID_EDITBOX ) );

  00002	8b 3d 00 00 00
	00		 mov	 edi, DWORD PTR __imp_?FindChildWnd@ioWnd@@QAEPAV1@K@Z
  00008	6a 00		 push	 0
  0000a	68 00 00 00 00	 push	 OFFSET ??_R0?AVioEdit@@@8
  0000f	68 00 00 00 00	 push	 OFFSET ??_R0?AVioWnd@@@8
  00014	6a 00		 push	 0
  00016	6a 03		 push	 3
  00018	8b f1		 mov	 esi, ecx
  0001a	ff d7		 call	 edi
  0001c	50		 push	 eax
  0001d	e8 00 00 00 00	 call	 ___RTDynamicCast
  00022	83 c4 14	 add	 esp, 20			; 00000014H

; 488  : 	if( pEdit && pEdit->IsKeyFocus() )

  00025	85 c0		 test	 eax, eax
  00027	74 55		 je	 SHORT $LN1@ProcessEdi
  00029	8b c8		 mov	 ecx, eax
  0002b	ff 15 00 00 00
	00		 call	 DWORD PTR __imp_?IsKeyFocus@ioEdit@@QBE_NXZ
  00031	84 c0		 test	 al, al
  00033	74 49		 je	 SHORT $LN1@ProcessEdi

; 489  : 	{
; 490  : 		if( g_InputBox.IsEnter() )

  00035	53		 push	 ebx
  00036	8b 1d 00 00 00
	00		 mov	 ebx, DWORD PTR __imp_?GetSingleton@ioInputBox@@SAAAV1@XZ
  0003c	ff d3		 call	 ebx
  0003e	8b c8		 mov	 ecx, eax
  00040	ff 15 00 00 00
	00		 call	 DWORD PTR __imp_?IsEnter@ioInputBox@@QAE_NXZ
  00046	84 c0		 test	 al, al
  00048	74 33		 je	 SHORT $LN5@ProcessEdi

; 491  : 		{
; 492  : 			m_KeyWord	= g_InputBox.GetString();

  0004a	ff d3		 call	 ebx
  0004c	8b c8		 mov	 ecx, eax
  0004e	ff 15 00 00 00
	00		 call	 DWORD PTR __imp_?GetString@ioInputBox@@QBEPBDXZ
  00054	50		 push	 eax
  00055	8d 8e 78 01 00
	00		 lea	 ecx, DWORD PTR [esi+376]
  0005b	ff 15 00 00 00
	00		 call	 DWORD PTR __imp_??4ioHashString@@QAEAAV0@PBD@Z

; 493  : 			m_nCurrPage	= 0;

  00061	83 a6 60 01 00
	00 00		 and	 DWORD PTR [esi+352], 0

; 494  : 			iwm_command( FindChildWnd( ID_EDIT_OK ), IOBN_BTNUP, 0 );

  00068	8b 1e		 mov	 ebx, DWORD PTR [esi]
  0006a	6a 00		 push	 0
  0006c	6a 11		 push	 17			; 00000011H
  0006e	6a 04		 push	 4
  00070	8b ce		 mov	 ecx, esi
  00072	ff d7		 call	 edi
  00074	50		 push	 eax
  00075	8b ce		 mov	 ecx, esi
  00077	ff 93 8c 00 00
	00		 call	 DWORD PTR [ebx+140]
$LN5@ProcessEdi:
  0007d	5b		 pop	 ebx
$LN1@ProcessEdi:
  0007e	5f		 pop	 edi
  0007f	5e		 pop	 esi

; 495  : 		}
; 496  : 	}
; 497  : }

  00080	c3		 ret	 0
?ProcessEdit@ioHousingBlockInvenWnd@@QAEXXZ ENDP	; ioHousingBlockInvenWnd::ProcessEdit
_TEXT	ENDS
PUBLIC	?UpdateTab@ioHousingBlockInvenWnd@@QAEXK@Z	; ioHousingBlockInvenWnd::UpdateTab
EXTRN	__imp_?CheckRadioButton@ioWnd@@QAEXKKK@Z:PROC
; Function compile flags: /Ogsp
;	COMDAT ?UpdateTab@ioHousingBlockInvenWnd@@QAEXK@Z
_TEXT	SEGMENT
_dwID$ = 8						; size = 4
?UpdateTab@ioHousingBlockInvenWnd@@QAEXK@Z PROC		; ioHousingBlockInvenWnd::UpdateTab, COMDAT
; _this$ = ecx

; 509  : {

  00000	55		 push	 ebp
  00001	8b ec		 mov	 ebp, esp

; 510  : 	m_dwCurrTab = dwID;

  00003	8b 45 08	 mov	 eax, DWORD PTR _dwID$[ebp]
  00006	56		 push	 esi
  00007	57		 push	 edi

; 511  : 	CheckRadioButton( ID_TAB01, ID_TAB05, m_dwCurrTab );

  00008	50		 push	 eax
  00009	6a 0f		 push	 15			; 0000000fH
  0000b	8b f9		 mov	 edi, ecx
  0000d	6a 0b		 push	 11			; 0000000bH
  0000f	89 87 70 01 00
	00		 mov	 DWORD PTR [edi+368], eax
  00015	ff 15 00 00 00
	00		 call	 DWORD PTR __imp_?CheckRadioButton@ioWnd@@QAEXKKK@Z

; 512  : 	switch( m_dwCurrTab )

  0001b	8b b7 70 01 00
	00		 mov	 esi, DWORD PTR [edi+368]
  00021	83 ee 0b	 sub	 esi, 11			; 0000000bH
  00024	74 3c		 je	 SHORT $LN5@UpdateTab
  00026	4e		 dec	 esi
  00027	74 2d		 je	 SHORT $LN4@UpdateTab
  00029	4e		 dec	 esi
  0002a	74 1e		 je	 SHORT $LN3@UpdateTab
  0002c	4e		 dec	 esi
  0002d	74 0f		 je	 SHORT $LN2@UpdateTab
  0002f	4e		 dec	 esi
  00030	75 37		 jne	 SHORT $LN6@UpdateTab

; 526  : 	case ID_TAB05:
; 527  : 		m_eCategory = ioBlockProperty::IC_FUNCTION;

  00032	c7 87 64 01 00
	00 04 00 00 00	 mov	 DWORD PTR [edi+356], 4

; 528  : 		break;

  0003c	eb 2b		 jmp	 SHORT $LN6@UpdateTab
$LN2@UpdateTab:

; 523  : 	case ID_TAB04:
; 524  : 		m_eCategory = ioBlockProperty::IC_DECO;

  0003e	c7 87 64 01 00
	00 03 00 00 00	 mov	 DWORD PTR [edi+356], 3

; 525  : 		break;

  00048	eb 1f		 jmp	 SHORT $LN6@UpdateTab
$LN3@UpdateTab:

; 520  : 	case ID_TAB03:
; 521  : 		m_eCategory = ioBlockProperty::IC_TILE;

  0004a	c7 87 64 01 00
	00 02 00 00 00	 mov	 DWORD PTR [edi+356], 2

; 522  : 		break;

  00054	eb 13		 jmp	 SHORT $LN6@UpdateTab
$LN4@UpdateTab:

; 516  : 		break;
; 517  : 	case ID_TAB02:
; 518  : 		m_eCategory = ioBlockProperty::IC_BLOCK;

  00056	c7 87 64 01 00
	00 01 00 00 00	 mov	 DWORD PTR [edi+356], 1

; 519  : 		break;

  00060	eb 07		 jmp	 SHORT $LN6@UpdateTab
$LN5@UpdateTab:

; 513  : 	{
; 514  : 	case ID_TAB01:
; 515  : 		m_eCategory = ioBlockProperty::IC_NONE;

  00062	83 a7 64 01 00
	00 00		 and	 DWORD PTR [edi+356], 0
$LN6@UpdateTab:
  00069	5f		 pop	 edi
  0006a	5e		 pop	 esi

; 529  : 	}
; 530  : }

  0006b	5d		 pop	 ebp
  0006c	c2 04 00	 ret	 4
?UpdateTab@ioHousingBlockInvenWnd@@QAEXK@Z ENDP		; ioHousingBlockInvenWnd::UpdateTab
_TEXT	ENDS
EXTRN	?IsMouseBusy@ioApplication@@QAE_NXZ:PROC	; ioApplication::IsMouseBusy
EXTRN	?GetSingleton@ioApplication@@SAAAV1@XZ:PROC	; ioApplication::GetSingleton
EXTRN	__imp_?iwm_wheel@ioWnd@@UAEXH@Z:PROC
; Function compile flags: /Ogsp
;	COMDAT ?iwm_wheel@ioHousingBlockInvenWnd@@UAEXH@Z
_TEXT	SEGMENT
_zDelta$ = 8						; size = 4
?iwm_wheel@ioHousingBlockInvenWnd@@UAEXH@Z PROC		; ioHousingBlockInvenWnd::iwm_wheel, COMDAT
; _this$ = ecx

; 533  : {

  00000	55		 push	 ebp
  00001	8b ec		 mov	 ebp, esp
  00003	57		 push	 edi
  00004	8b f9		 mov	 edi, ecx

; 534  : 	if( !IsShow() )

  00006	ff 15 00 00 00
	00		 call	 DWORD PTR __imp_?IsShow@ioWnd@@QBE_NXZ
  0000c	84 c0		 test	 al, al
  0000e	75 0d		 jne	 SHORT $LN8@iwm_wheel

; 535  : 	{
; 536  : 		ioWnd::iwm_wheel( zDelta );

  00010	ff 75 08	 push	 DWORD PTR _zDelta$[ebp]
  00013	8b cf		 mov	 ecx, edi
  00015	ff 15 00 00 00
	00		 call	 DWORD PTR __imp_?iwm_wheel@ioWnd@@UAEXH@Z

; 537  : 	}
; 538  : 	else

  0001b	eb 58		 jmp	 SHORT $LN1@iwm_wheel
$LN8@iwm_wheel:

; 539  : 	{
; 540  : 		if( g_App.IsMouseBusy() )

  0001d	e8 00 00 00 00	 call	 ?GetSingleton@ioApplication@@SAAAV1@XZ ; ioApplication::GetSingleton
  00022	8b c8		 mov	 ecx, eax
  00024	e8 00 00 00 00	 call	 ?IsMouseBusy@ioApplication@@QAE_NXZ ; ioApplication::IsMouseBusy
  00029	84 c0		 test	 al, al
  0002b	75 48		 jne	 SHORT $LN1@iwm_wheel

; 541  : 			return;
; 542  : 
; 543  : 		ioScroll *pScroll = (ioScroll*)FindChildWnd( ID_SCROLL );

  0002d	56		 push	 esi
  0002e	68 e8 03 00 00	 push	 1000			; 000003e8H
  00033	8b cf		 mov	 ecx, edi
  00035	ff 15 00 00 00
	00		 call	 DWORD PTR __imp_?FindChildWnd@ioWnd@@QAEPAV1@K@Z
  0003b	8b f0		 mov	 esi, eax

; 544  : 		if( pScroll == NULL )

  0003d	85 f6		 test	 esi, esi
  0003f	74 33		 je	 SHORT $LN11@iwm_wheel

; 545  : 			return;
; 546  : 
; 547  : 		if( !pScroll->IsShow() )

  00041	8b ce		 mov	 ecx, esi
  00043	ff 15 00 00 00
	00		 call	 DWORD PTR __imp_?IsShow@ioWnd@@QBE_NXZ
  00049	84 c0		 test	 al, al
  0004b	74 27		 je	 SHORT $LN11@iwm_wheel

; 548  : 			return;
; 549  : 
; 550  : 		if( zDelta == WHEEL_DELTA )

  0004d	83 7d 08 78	 cmp	 DWORD PTR _zDelta$[ebp], 120 ; 00000078H
  00051	75 09		 jne	 SHORT $LN3@iwm_wheel

; 551  : 			pScroll->SetScrollPos( m_nCurrPage - 1 );

  00053	8b 8f 60 01 00
	00		 mov	 ecx, DWORD PTR [edi+352]
  00059	49		 dec	 ecx
  0005a	eb 0d		 jmp	 SHORT $LN12@iwm_wheel
$LN3@iwm_wheel:

; 552  : 		else if( zDelta == -WHEEL_DELTA )

  0005c	83 7d 08 88	 cmp	 DWORD PTR _zDelta$[ebp], -120 ; ffffff88H
  00060	75 12		 jne	 SHORT $LN11@iwm_wheel

; 553  : 			pScroll->SetScrollPos( m_nCurrPage + 1 );

  00062	8b 8f 60 01 00
	00		 mov	 ecx, DWORD PTR [edi+352]
  00068	41		 inc	 ecx
$LN12@iwm_wheel:
  00069	8b 06		 mov	 eax, DWORD PTR [esi]
  0006b	51		 push	 ecx
  0006c	8b ce		 mov	 ecx, esi
  0006e	ff 90 38 01 00
	00		 call	 DWORD PTR [eax+312]
$LN11@iwm_wheel:
  00074	5e		 pop	 esi
$LN1@iwm_wheel:
  00075	5f		 pop	 edi

; 554  : 	}
; 555  : }

  00076	5d		 pop	 ebp
  00077	c2 04 00	 ret	 4
?iwm_wheel@ioHousingBlockInvenWnd@@UAEXH@Z ENDP		; ioHousingBlockInvenWnd::iwm_wheel
; Function compile flags: /Ogsp
_TEXT	ENDS
;	COMDAT ?iwm_vscroll@ioHousingBlockInvenWnd@@UAEXKH@Z
_TEXT	SEGMENT
_dwID$ = 8						; size = 4
_curPos$ = 12						; size = 4
?iwm_vscroll@ioHousingBlockInvenWnd@@UAEXKH@Z PROC	; ioHousingBlockInvenWnd::iwm_vscroll, COMDAT
; _this$ = ecx

; 558  : {

  00000	55		 push	 ebp
  00001	8b ec		 mov	 ebp, esp
  00003	56		 push	 esi

; 559  : 	ioScroll *pScroll = (ioScroll*)FindChildWnd( ID_SCROLL );

  00004	68 e8 03 00 00	 push	 1000			; 000003e8H
  00009	8b f1		 mov	 esi, ecx
  0000b	ff 15 00 00 00
	00		 call	 DWORD PTR __imp_?FindChildWnd@ioWnd@@QAEPAV1@K@Z

; 560  : 	if( pScroll == NULL )

  00011	85 c0		 test	 eax, eax
  00013	74 15		 je	 SHORT $LN3@iwm_vscrol

; 561  : 		return;
; 562  : 
; 563  : 	if( !pScroll->IsShow() )

  00015	8b c8		 mov	 ecx, eax
  00017	ff 15 00 00 00
	00		 call	 DWORD PTR __imp_?IsShow@ioWnd@@QBE_NXZ
  0001d	84 c0		 test	 al, al
  0001f	74 09		 je	 SHORT $LN3@iwm_vscrol

; 564  : 		return;
; 565  : 
; 566  : 	m_nCurrPage = curPos;

  00021	8b 45 0c	 mov	 eax, DWORD PTR _curPos$[ebp]
  00024	89 86 60 01 00
	00		 mov	 DWORD PTR [esi+352], eax
$LN3@iwm_vscrol:
  0002a	5e		 pop	 esi

; 567  : }

  0002b	5d		 pop	 ebp
  0002c	c2 08 00	 ret	 8
?iwm_vscroll@ioHousingBlockInvenWnd@@UAEXKH@Z ENDP	; ioHousingBlockInvenWnd::iwm_vscroll
_TEXT	ENDS
EXTRN	__imp_?OnRender@ioWnd@@MAEXXZ:PROC
; Function compile flags: /Ogsp
;	COMDAT ?OnRender@ioHousingBlockInvenWnd@@UAEXXZ
_TEXT	SEGMENT
?OnRender@ioHousingBlockInvenWnd@@UAEXXZ PROC		; ioHousingBlockInvenWnd::OnRender, COMDAT
; _this$ = ecx

; 647  : {

  00000	56		 push	 esi
  00001	8b f1		 mov	 esi, ecx

; 648  : 	ioWnd::OnRender();

  00003	ff 15 00 00 00
	00		 call	 DWORD PTR __imp_?OnRender@ioWnd@@MAEXXZ

; 649  : 
; 650  : 	int iXPos, iYPos;
; 651  : 	iXPos = GetDerivedPosX();

  00009	8b ce		 mov	 ecx, esi
  0000b	ff 15 00 00 00
	00		 call	 DWORD PTR __imp_?GetDerivedPosX@ioWnd@@QBEHXZ

; 652  : 	iYPos = GetDerivedPosY();

  00011	8b ce		 mov	 ecx, esi
  00013	5e		 pop	 esi
  00014	ff 25 00 00 00
	00		 jmp	 DWORD PTR __imp_?GetDerivedPosY@ioWnd@@QBEHXZ
?OnRender@ioHousingBlockInvenWnd@@UAEXXZ ENDP		; ioHousingBlockInvenWnd::OnRender
_TEXT	ENDS
PUBLIC	??_7ioHousingBlockInvenToolTip@@6B@		; ioHousingBlockInvenToolTip::`vftable'
PUBLIC	??0ioHousingBlockInvenToolTip@@QAE@XZ		; ioHousingBlockInvenToolTip::ioHousingBlockInvenToolTip
PUBLIC	??_R4ioHousingBlockInvenToolTip@@6B@		; ioHousingBlockInvenToolTip::`RTTI Complete Object Locator'
PUBLIC	??_R0?AVioHousingBlockInvenToolTip@@@8		; ioHousingBlockInvenToolTip `RTTI Type Descriptor'
PUBLIC	??_R3ioHousingBlockInvenToolTip@@8		; ioHousingBlockInvenToolTip::`RTTI Class Hierarchy Descriptor'
PUBLIC	??_R2ioHousingBlockInvenToolTip@@8		; ioHousingBlockInvenToolTip::`RTTI Base Class Array'
PUBLIC	??_R1A@?0A@EA@ioHousingBlockInvenToolTip@@8	; ioHousingBlockInvenToolTip::`RTTI Base Class Descriptor at (0,-1,0,64)'
PUBLIC	?OnRender@ioHousingBlockInvenToolTip@@UAEXXZ	; ioHousingBlockInvenToolTip::OnRender
PUBLIC	?OnProcess@ioHousingBlockInvenToolTip@@UAEXM@Z	; ioHousingBlockInvenToolTip::OnProcess
PUBLIC	?iwm_show@ioHousingBlockInvenToolTip@@UAEXXZ	; ioHousingBlockInvenToolTip::iwm_show
PUBLIC	?iwm_hide@ioHousingBlockInvenToolTip@@UAEXXZ	; ioHousingBlockInvenToolTip::iwm_hide
EXTRN	??_EioHousingBlockInvenToolTip@@UAEPAXI@Z:PROC	; ioHousingBlockInvenToolTip::`vector deleting destructor'
;	COMDAT ??_R1A@?0A@EA@ioHousingBlockInvenToolTip@@8
rdata$r	SEGMENT
??_R1A@?0A@EA@ioHousingBlockInvenToolTip@@8 DD FLAT:??_R0?AVioHousingBlockInvenToolTip@@@8 ; ioHousingBlockInvenToolTip::`RTTI Base Class Descriptor at (0,-1,0,64)'
	DD	01H
	DD	00H
	DD	0ffffffffH
	DD	00H
	DD	040H
	DD	FLAT:??_R3ioHousingBlockInvenToolTip@@8
rdata$r	ENDS
;	COMDAT ??_R2ioHousingBlockInvenToolTip@@8
rdata$r	SEGMENT
??_R2ioHousingBlockInvenToolTip@@8 DD FLAT:??_R1A@?0A@EA@ioHousingBlockInvenToolTip@@8 ; ioHousingBlockInvenToolTip::`RTTI Base Class Array'
	DD	FLAT:??_R1A@?0A@EA@ioWnd@@8
rdata$r	ENDS
;	COMDAT ??_R3ioHousingBlockInvenToolTip@@8
rdata$r	SEGMENT
??_R3ioHousingBlockInvenToolTip@@8 DD 00H		; ioHousingBlockInvenToolTip::`RTTI Class Hierarchy Descriptor'
	DD	00H
	DD	02H
	DD	FLAT:??_R2ioHousingBlockInvenToolTip@@8
rdata$r	ENDS
;	COMDAT ??_R0?AVioHousingBlockInvenToolTip@@@8
_DATA	SEGMENT
??_R0?AVioHousingBlockInvenToolTip@@@8 DD FLAT:??_7type_info@@6B@ ; ioHousingBlockInvenToolTip `RTTI Type Descriptor'
	DD	00H
	DB	'.?AVioHousingBlockInvenToolTip@@', 00H
_DATA	ENDS
;	COMDAT ??_R4ioHousingBlockInvenToolTip@@6B@
rdata$r	SEGMENT
??_R4ioHousingBlockInvenToolTip@@6B@ DD 00H		; ioHousingBlockInvenToolTip::`RTTI Complete Object Locator'
	DD	00H
	DD	00H
	DD	FLAT:??_R0?AVioHousingBlockInvenToolTip@@@8
	DD	FLAT:??_R3ioHousingBlockInvenToolTip@@8
rdata$r	ENDS
;	COMDAT ??_7ioHousingBlockInvenToolTip@@6B@
CONST	SEGMENT
??_7ioHousingBlockInvenToolTip@@6B@ DD FLAT:??_R4ioHousingBlockInvenToolTip@@6B@ ; ioHousingBlockInvenToolTip::`vftable'
	DD	FLAT:?AddRenderFrame@ioWnd@@UAEXABVioHashString@@PAVioUIRenderFrame@@@Z
	DD	FLAT:?AddRenderImage@ioWnd@@UAEXABVioHashString@@PAVioUIRenderImage@@@Z
	DD	FLAT:?AddTooltipHelp@ioWnd@@UAEXABVioHashString@@00@Z
	DD	FLAT:?ParseExtraInfo@ioWnd@@UAEXAAVioXMLElement@@@Z
	DD	FLAT:?AddNamedRenderImage@ioWnd@@UAEXABVioHashString@@PAVioUIRenderImage@@@Z
	DD	FLAT:?RemoveNamedRenderImage@ioWnd@@UAEXABVioHashString@@@Z
	DD	FLAT:?GetNamedRenderImage@ioWnd@@UBEPAVioUIRenderImage@@ABVioHashString@@@Z
	DD	FLAT:?SetWindowAlpha@ioWnd@@UAEXH@Z
	DD	FLAT:?SetActive@ioWnd@@UAEXXZ
	DD	FLAT:?SetInActive@ioWnd@@UAEXXZ
	DD	FLAT:?ClearElementImageList@ioWnd@@UAEXXZ
	DD	FLAT:?SetSize@ioWnd@@UAEXHH@Z
	DD	FLAT:?SetPositionToDefault@ioWnd@@UAEXHH_N0@Z
	DD	FLAT:?IsNeedProcess@ioWnd@@UBE_NXZ
	DD	FLAT:?IsCanMouseReaction@ioWnd@@UBE_NXZ
	DD	FLAT:?AddChild@ioWnd@@UAEXPAV1@@Z
	DD	FLAT:?DeleteChild@ioWnd@@UAEXK@Z
	DD	FLAT:?DeleteAllChild@ioWnd@@UAEXXZ
	DD	FLAT:?OnRenderShowAndHide@ioWnd@@MAE_NXZ
	DD	FLAT:?OnRenderShowAndHideByDefault@ioWnd@@MAE_NK@Z
	DD	FLAT:?OnRenderShowAndHideByTop@ioWnd@@MAE_NK@Z
	DD	FLAT:?OnRenderShowAndHideByDown@ioWnd@@MAE_NK@Z
	DD	FLAT:?OnRender@ioHousingBlockInvenToolTip@@UAEXXZ
	DD	FLAT:?OnRenderAfterChild@ioWnd@@MAEXXZ
	DD	FLAT:?OnProcess@ioHousingBlockInvenToolTip@@UAEXM@Z
	DD	FLAT:?OnMouseProcess@ioWnd@@MAEXABVioMouse@@@Z
	DD	FLAT:?CheckFrameReSize@ioWnd@@MAEXHHHH@Z
	DD	FLAT:?RenderImageList@ioWnd@@MAEXHHW4UIRenderType@@@Z
	DD	FLAT:?iwm_create@ioWnd@@UAEXXZ
	DD	FLAT:?iwm_destroy@ioWnd@@UAEXXZ
	DD	FLAT:?iwm_lbuttondown@ioWnd@@UAEXABVioMouse@@@Z
	DD	FLAT:?iwm_lbuttonup@ioWnd@@UAEXABVioMouse@@@Z
	DD	FLAT:?iwm_lbuttonDBLCLK@ioWnd@@UAEXABVioMouse@@@Z
	DD	FLAT:?iwm_rbuttondown@ioWnd@@UAEXABVioMouse@@@Z
	DD	FLAT:?iwm_rbuttonup@ioWnd@@UAEXABVioMouse@@@Z
	DD	FLAT:?iwm_command@ioWnd@@UAEXPAV1@HK@Z
	DD	FLAT:?iwm_mouseover@ioWnd@@UAEXABVioMouse@@@Z
	DD	FLAT:?iwm_mousemove@ioWnd@@UAEXABVioMouse@@@Z
	DD	FLAT:?iwm_mouseleave@ioWnd@@UAEXABVioMouse@@@Z
	DD	FLAT:?iwm_vscroll@ioWnd@@UAEXKH@Z
	DD	FLAT:?iwm_wheel@ioWnd@@UAEXH@Z
	DD	FLAT:?iwm_show@ioHousingBlockInvenToolTip@@UAEXXZ
	DD	FLAT:?iwm_hide@ioHousingBlockInvenToolTip@@UAEXXZ
	DD	FLAT:?iwm_esc@ioWnd@@UAE_NXZ
	DD	FLAT:?iwm_spacebar@ioWnd@@UAE_NXZ
	DD	FLAT:?iwm_gototop@ioWnd@@UAEXXZ
	DD	FLAT:?iwm_dragenter@ioWnd@@UAE?AW4IWDropEffect@@PAVioDragItem@@ABVioMouse@@@Z
	DD	FLAT:?iwm_dragover@ioWnd@@UAE?AW4IWDropEffect@@PAVioDragItem@@ABVioMouse@@@Z
	DD	FLAT:?iwm_dragleave@ioWnd@@UAEXXZ
	DD	FLAT:?iwm_dropitem@ioWnd@@UAE_NPAVioDragItem@@ABVioMouse@@PAV1@@Z
	DD	FLAT:?iwm_dropdone@ioWnd@@UAEXPAVioDragItem@@PAV1@_N@Z
	DD	FLAT:?IsEXType@ioWnd@@UBE_NXZ
	DD	FLAT:?GetWndType@ioWnd@@UBEKXZ
	DD	FLAT:?RenderWnd@ioWnd@@UAEXXZ
	DD	FLAT:?SetIDEX@ioWnd@@UAEXAAK_N@Z
	DD	FLAT:?ParseXML@ioWnd@@UAEXAAVioXMLElement@@@Z
	DD	FLAT:?GetHeaderFileName@ioWnd@@UAEPBDXZ
	DD	FLAT:?GetTemplateName@ioWnd@@UAEPBDXZ
	DD	FLAT:?GetDefClassName@ioWnd@@UBEPBDXZ
	DD	FLAT:?_Clone@ioWnd@@UAEPAV1@XZ
	DD	FLAT:?Copy@ioWnd@@UAEXPAV1@@Z
	DD	FLAT:?Save@ioWnd@@UAE_NAAVioXMLElement@@@Z
	DD	FLAT:?SetSaveData@ioWnd@@UAEXAAVioXMLElement@@@Z
	DD	FLAT:?SetPosX@ioWnd@@UAEXH@Z
	DD	FLAT:?SetPosY@ioWnd@@UAEXH@Z
	DD	FLAT:?SetWidth@ioWnd@@UAEXH@Z
	DD	FLAT:?SetHeight@ioWnd@@UAEXH@Z
	DD	FLAT:?GetNumFixedRenderFrame@ioWnd@@UBEHXZ
	DD	FLAT:?GetFixedRenderFrameType@ioWnd@@UAEPBDH@Z
	DD	FLAT:?GetRenderFrame@ioWnd@@UAEPAPAVioUIRenderElement@@PBD@Z
	DD	FLAT:?GetNumFixedRenderImage@ioWnd@@UBEHXZ
	DD	FLAT:?GetFixedRenderImageType@ioWnd@@UAEPBDH@Z
	DD	FLAT:?GetRenderImage@ioWnd@@UAEPAPAVioUIRenderElement@@PBD@Z
	DD	FLAT:?AddEffect@ioWnd@@UAEXABVioHashString@@PAVioUI3DEffectRender@@@Z
	DD	FLAT:?GetEffect@ioWnd@@UAEPAVioUI3DEffectRender@@VioHashString@@@Z
	DD	FLAT:??_EioHousingBlockInvenToolTip@@UAEPAXI@Z
CONST	ENDS
;	COMDAT xdata$x
xdata$x	SEGMENT
__unwindtable$??0ioHousingBlockInvenToolTip@@QAE@XZ DD 0ffffffffH
	DD	FLAT:__unwindfunclet$??0ioHousingBlockInvenToolTip@@QAE@XZ$0
	DD	00H
	DD	FLAT:__unwindfunclet$??0ioHousingBlockInvenToolTip@@QAE@XZ$1
__ehfuncinfo$??0ioHousingBlockInvenToolTip@@QAE@XZ DD 019930522H
	DD	02H
	DD	FLAT:__unwindtable$??0ioHousingBlockInvenToolTip@@QAE@XZ
	DD	2 DUP(00H)
	DD	2 DUP(00H)
	DD	00H
	DD	01H
; Function compile flags: /Ogsp
xdata$x	ENDS
;	COMDAT ??0ioHousingBlockInvenToolTip@@QAE@XZ
_TEXT	SEGMENT
_this$ = -16						; size = 4
__$EHRec$ = -12						; size = 12
??0ioHousingBlockInvenToolTip@@QAE@XZ PROC		; ioHousingBlockInvenToolTip::ioHousingBlockInvenToolTip, COMDAT
; _this$ = ecx

; 658  : {

  00000	6a 04		 push	 4
  00002	b8 00 00 00 00	 mov	 eax, __ehhandler$??0ioHousingBlockInvenToolTip@@QAE@XZ
  00007	e8 00 00 00 00	 call	 __EH_prolog3
  0000c	8b f1		 mov	 esi, ecx
  0000e	89 75 f0	 mov	 DWORD PTR _this$[ebp], esi
  00011	ff 15 00 00 00
	00		 call	 DWORD PTR __imp_??0ioWnd@@QAE@XZ
  00017	8b 3d 00 00 00
	00		 mov	 edi, DWORD PTR __imp_??0ioHashString@@QAE@XZ
  0001d	83 65 fc 00	 and	 DWORD PTR __$EHRec$[ebp+8], 0
  00021	8d 8e 60 01 00
	00		 lea	 ecx, DWORD PTR [esi+352]
  00027	c7 06 00 00 00
	00		 mov	 DWORD PTR [esi], OFFSET ??_7ioHousingBlockInvenToolTip@@6B@
  0002d	ff d7		 call	 edi
  0002f	8d 8e 70 01 00
	00		 lea	 ecx, DWORD PTR [esi+368]
  00035	c6 45 fc 01	 mov	 BYTE PTR __$EHRec$[ebp+8], 1
  00039	ff d7		 call	 edi
  0003b	83 a6 80 01 00
	00 00		 and	 DWORD PTR [esi+384], 0

; 659  : }

  00042	8b c6		 mov	 eax, esi
  00044	e8 00 00 00 00	 call	 __EH_epilog3
  00049	c3		 ret	 0
_TEXT	ENDS
;	COMDAT text$x
text$x	SEGMENT
__unwindfunclet$??0ioHousingBlockInvenToolTip@@QAE@XZ$0:
  00000	8b 4d f0	 mov	 ecx, DWORD PTR _this$[ebp]
  00003	ff 25 00 00 00
	00		 jmp	 DWORD PTR __imp_??1ioWnd@@UAE@XZ
__unwindfunclet$??0ioHousingBlockInvenToolTip@@QAE@XZ$1:
  00009	8b 4d f0	 mov	 ecx, DWORD PTR _this$[ebp]
  0000c	81 c1 60 01 00
	00		 add	 ecx, 352		; 00000160H
  00012	ff 25 00 00 00
	00		 jmp	 DWORD PTR __imp_??1ioHashString@@QAE@XZ
__ehhandler$??0ioHousingBlockInvenToolTip@@QAE@XZ:
  00018	8b 54 24 08	 mov	 edx, DWORD PTR [esp+8]
  0001c	8d 42 0c	 lea	 eax, DWORD PTR [edx+12]
  0001f	8b 4a ec	 mov	 ecx, DWORD PTR [edx-20]
  00022	33 c8		 xor	 ecx, eax
  00024	e8 00 00 00 00	 call	 @__security_check_cookie@4
  00029	b8 00 00 00 00	 mov	 eax, OFFSET __ehfuncinfo$??0ioHousingBlockInvenToolTip@@QAE@XZ
  0002e	e9 00 00 00 00	 jmp	 ___CxxFrameHandler3
text$x	ENDS
??0ioHousingBlockInvenToolTip@@QAE@XZ ENDP		; ioHousingBlockInvenToolTip::ioHousingBlockInvenToolTip
PUBLIC	??1ioHousingBlockInvenToolTip@@UAE@XZ		; ioHousingBlockInvenToolTip::~ioHousingBlockInvenToolTip
;	COMDAT xdata$x
xdata$x	SEGMENT
__unwindtable$??1ioHousingBlockInvenToolTip@@UAE@XZ DD 0ffffffffH
	DD	FLAT:__unwindfunclet$??1ioHousingBlockInvenToolTip@@UAE@XZ$0
	DD	00H
	DD	FLAT:__unwindfunclet$??1ioHousingBlockInvenToolTip@@UAE@XZ$1
__ehfuncinfo$??1ioHousingBlockInvenToolTip@@UAE@XZ DD 019930522H
	DD	02H
	DD	FLAT:__unwindtable$??1ioHousingBlockInvenToolTip@@UAE@XZ
	DD	2 DUP(00H)
	DD	2 DUP(00H)
	DD	00H
	DD	01H
; Function compile flags: /Ogsp
xdata$x	ENDS
;	COMDAT ??1ioHousingBlockInvenToolTip@@UAE@XZ
_TEXT	SEGMENT
_this$ = -16						; size = 4
__$EHRec$ = -12						; size = 12
??1ioHousingBlockInvenToolTip@@UAE@XZ PROC		; ioHousingBlockInvenToolTip::~ioHousingBlockInvenToolTip, COMDAT
; _this$ = ecx

; 662  : {

  00000	6a 04		 push	 4
  00002	b8 00 00 00 00	 mov	 eax, __ehhandler$??1ioHousingBlockInvenToolTip@@UAE@XZ
  00007	e8 00 00 00 00	 call	 __EH_prolog3
  0000c	8b f1		 mov	 esi, ecx
  0000e	89 75 f0	 mov	 DWORD PTR _this$[ebp], esi
  00011	c7 06 00 00 00
	00		 mov	 DWORD PTR [esi], OFFSET ??_7ioHousingBlockInvenToolTip@@6B@

; 663  : }

  00017	8b 3d 00 00 00
	00		 mov	 edi, DWORD PTR __imp_??1ioHashString@@QAE@XZ
  0001d	8d 8e 70 01 00
	00		 lea	 ecx, DWORD PTR [esi+368]
  00023	c7 45 fc 01 00
	00 00		 mov	 DWORD PTR __$EHRec$[ebp+8], 1
  0002a	ff d7		 call	 edi
  0002c	8d 8e 60 01 00
	00		 lea	 ecx, DWORD PTR [esi+352]
  00032	c6 45 fc 00	 mov	 BYTE PTR __$EHRec$[ebp+8], 0
  00036	ff d7		 call	 edi
  00038	83 4d fc ff	 or	 DWORD PTR __$EHRec$[ebp+8], -1
  0003c	8b ce		 mov	 ecx, esi
  0003e	ff 15 00 00 00
	00		 call	 DWORD PTR __imp_??1ioWnd@@UAE@XZ
  00044	e8 00 00 00 00	 call	 __EH_epilog3
  00049	c3		 ret	 0
_TEXT	ENDS
;	COMDAT text$x
text$x	SEGMENT
__unwindfunclet$??1ioHousingBlockInvenToolTip@@UAE@XZ$0:
  00000	8b 4d f0	 mov	 ecx, DWORD PTR _this$[ebp]
  00003	ff 25 00 00 00
	00		 jmp	 DWORD PTR __imp_??1ioWnd@@UAE@XZ
__unwindfunclet$??1ioHousingBlockInvenToolTip@@UAE@XZ$1:
  00009	8b 4d f0	 mov	 ecx, DWORD PTR _this$[ebp]
  0000c	81 c1 60 01 00
	00		 add	 ecx, 352		; 00000160H
  00012	ff 25 00 00 00
	00		 jmp	 DWORD PTR __imp_??1ioHashString@@QAE@XZ
__ehhandler$??1ioHousingBlockInvenToolTip@@UAE@XZ:
  00018	8b 54 24 08	 mov	 edx, DWORD PTR [esp+8]
  0001c	8d 42 0c	 lea	 eax, DWORD PTR [edx+12]
  0001f	8b 4a ec	 mov	 ecx, DWORD PTR [edx-20]
  00022	33 c8		 xor	 ecx, eax
  00024	e8 00 00 00 00	 call	 @__security_check_cookie@4
  00029	b8 00 00 00 00	 mov	 eax, OFFSET __ehfuncinfo$??1ioHousingBlockInvenToolTip@@UAE@XZ
  0002e	e9 00 00 00 00	 jmp	 ___CxxFrameHandler3
text$x	ENDS
??1ioHousingBlockInvenToolTip@@UAE@XZ ENDP		; ioHousingBlockInvenToolTip::~ioHousingBlockInvenToolTip
; Function compile flags: /Ogsp
;	COMDAT ?iwm_show@ioHousingBlockInvenToolTip@@UAEXXZ
_TEXT	SEGMENT
?iwm_show@ioHousingBlockInvenToolTip@@UAEXXZ PROC	; ioHousingBlockInvenToolTip::iwm_show, COMDAT
; _this$ = ecx

; 667  : }

  00000	c3		 ret	 0
?iwm_show@ioHousingBlockInvenToolTip@@UAEXXZ ENDP	; ioHousingBlockInvenToolTip::iwm_show
; Function compile flags: /Ogsp
_TEXT	ENDS
;	COMDAT ?iwm_hide@ioHousingBlockInvenToolTip@@UAEXXZ
_TEXT	SEGMENT
?iwm_hide@ioHousingBlockInvenToolTip@@UAEXXZ PROC	; ioHousingBlockInvenToolTip::iwm_hide, COMDAT
; _this$ = ecx

; 671  : }

  00000	c3		 ret	 0
?iwm_hide@ioHousingBlockInvenToolTip@@UAEXXZ ENDP	; ioHousingBlockInvenToolTip::iwm_hide
_TEXT	ENDS
PUBLIC	?_Adopt@_Iterator_base0@std@@QAEXPBX@Z		; std::_Iterator_base0::_Adopt
; Function compile flags: /Ogsp
; File c:\program files (x86)\microsoft visual studio 10.0\vc\include\xutility
;	COMDAT ?_Adopt@_Iterator_base0@std@@QAEXPBX@Z
_TEXT	SEGMENT
___formal$ = 8						; size = 4
?_Adopt@_Iterator_base0@std@@QAEXPBX@Z PROC		; std::_Iterator_base0::_Adopt, COMDAT
; _this$ = ecx

; 49   : 		}

  00000	c2 04 00	 ret	 4
?_Adopt@_Iterator_base0@std@@QAEXPBX@Z ENDP		; std::_Iterator_base0::_Adopt
_TEXT	ENDS
PUBLIC	__real@3f266666
PUBLIC	__real@3f59999a
PUBLIC	__real@43020000
PUBLIC	??_C@_0CH@CGMCOENK@ioHousingBlockInvenToolTip?3?3Rend@ ; `string'
PUBLIC	?RenderDesc@ioHousingBlockInvenToolTip@@QAEXHH@Z ; ioHousingBlockInvenToolTip::RenderDesc
;	COMDAT __real@3f266666
; File d:\lost saga for developer\youtube\tutorial\source\src\lsclient\gui\iohousingblockinvenwnd.cpp
CONST	SEGMENT
__real@3f266666 DD 03f266666r			; 0.65
CONST	ENDS
;	COMDAT __real@3f59999a
CONST	SEGMENT
__real@3f59999a DD 03f59999ar			; 0.85
CONST	ENDS
;	COMDAT __real@43020000
CONST	SEGMENT
__real@43020000 DD 043020000r			; 130
CONST	ENDS
;	COMDAT ??_C@_0CH@CGMCOENK@ioHousingBlockInvenToolTip?3?3Rend@
CONST	SEGMENT
??_C@_0CH@CGMCOENK@ioHousingBlockInvenToolTip?3?3Rend@ DB 'ioHousingBlock'
	DB	'InvenToolTip::RenderDesc', 00H		; `string'
; Function compile flags: /Ogsp
CONST	ENDS
;	COMDAT ?RenderDesc@ioHousingBlockInvenToolTip@@QAEXHH@Z
_TEXT	SEGMENT
_this$ = -4						; size = 4
tv196 = 8						; size = 4
_iXPos$ = 8						; size = 4
_iYPos$ = 12						; size = 4
?RenderDesc@ioHousingBlockInvenToolTip@@QAEXHH@Z PROC	; ioHousingBlockInvenToolTip::RenderDesc, COMDAT
; _this$ = ecx

; 842  : {

  00000	55		 push	 ebp
  00001	8b ec		 mov	 ebp, esp
  00003	51		 push	 ecx
  00004	53		 push	 ebx
  00005	56		 push	 esi

; 843  : 	g_FontMgr.SetAlignType( TAT_LEFT );

  00006	8b 35 00 00 00
	00		 mov	 esi, DWORD PTR __imp_?GetSingleton@ioFontManager@@SAAAV1@XZ
  0000c	57		 push	 edi
  0000d	33 db		 xor	 ebx, ebx
  0000f	53		 push	 ebx
  00010	89 4d fc	 mov	 DWORD PTR _this$[ebp], ecx
  00013	ff d6		 call	 esi
  00015	8b c8		 mov	 ecx, eax
  00017	ff 15 00 00 00
	00		 call	 DWORD PTR __imp_?SetAlignType@ioFontManager@@QAEXW4TextAlignType@@@Z

; 844  : 	g_FontMgr.SetTextStyle( TS_NORMAL );

  0001d	53		 push	 ebx
  0001e	ff d6		 call	 esi
  00020	8b c8		 mov	 ecx, eax
  00022	ff 15 00 00 00
	00		 call	 DWORD PTR __imp_?SetTextStyle@ioFontManager@@QAEXW4TextStyle@@@Z

; 845  : 	g_FontMgr.SetBkColor( 0, 0, 0 );

  00028	53		 push	 ebx
  00029	53		 push	 ebx
  0002a	53		 push	 ebx
  0002b	ff d6		 call	 esi
  0002d	8b c8		 mov	 ecx, eax
  0002f	ff 15 00 00 00
	00		 call	 DWORD PTR __imp_?SetBkColor@ioFontManager@@QAEXHHH@Z

; 846  : 	g_FontMgr.SetTextColor( TCT_DEFAULT_DARKGRAY );

  00035	68 3a 3a 3a ff	 push	 -12961222		; ff3a3a3aH
  0003a	ff d6		 call	 esi
  0003c	8b 3d 00 00 00
	00		 mov	 edi, DWORD PTR __imp_?SetTextColor@ioFontManager@@QAEXK@Z
  00042	8b c8		 mov	 ecx, eax
  00044	ff d7		 call	 edi

; 847  : 	g_FontMgr.PrintTextWidthCut( iXPos + 90, iYPos + 32, FONT_SIZE_17, 130.0f, STR(1), m_Name.c_str() );

  00046	8b 45 08	 mov	 eax, DWORD PTR _iXPos$[ebp]
  00049	8b 4d fc	 mov	 ecx, DWORD PTR _this$[ebp]
  0004c	83 c0 5a	 add	 eax, 90			; 0000005aH
  0004f	0f 57 c0	 xorps	 xmm0, xmm0
  00052	f3 0f 2a c0	 cvtsi2ss xmm0, eax
  00056	81 c1 60 01 00
	00		 add	 ecx, 352		; 00000160H
  0005c	f3 0f 11 45 08	 movss	 DWORD PTR tv196[ebp], xmm0
  00061	ff 15 00 00 00
	00		 call	 DWORD PTR __imp_?c_str@ioHashString@@QBEPBDXZ
  00067	50		 push	 eax
  00068	53		 push	 ebx
  00069	8b 1d 00 00 00
	00		 mov	 ebx, DWORD PTR __imp_?GetSingleton@ioStringManager@@SAAAV1@XZ
  0006f	6a 01		 push	 1
  00071	68 00 00 00 00	 push	 OFFSET ??_C@_00CNPNBAHC@?$AA@
  00076	68 00 00 00 00	 push	 OFFSET ??_C@_0CH@CGMCOENK@ioHousingBlockInvenToolTip?3?3Rend@
  0007b	ff d3		 call	 ebx
  0007d	8b c8		 mov	 ecx, eax
  0007f	ff 15 00 00 00
	00		 call	 DWORD PTR __imp_?GetString@ioStringManager@@QAEPADPBD0HW4FileNamePrefix@1@@Z
  00085	f3 0f 10 05 00
	00 00 00	 movss	 xmm0, DWORD PTR __real@43020000
  0008d	50		 push	 eax
  0008e	8b 45 0c	 mov	 eax, DWORD PTR _iYPos$[ebp]
  00091	83 ec 10	 sub	 esp, 16			; 00000010H
  00094	f3 0f 11 44 24
	0c		 movss	 DWORD PTR [esp+12], xmm0
  0009a	f3 0f 10 05 00
	00 00 00	 movss	 xmm0, DWORD PTR __real@3f59999a
  000a2	f3 0f 11 44 24
	08		 movss	 DWORD PTR [esp+8], xmm0
  000a8	83 c0 20	 add	 eax, 32			; 00000020H
  000ab	0f 57 c0	 xorps	 xmm0, xmm0
  000ae	f3 0f 2a c0	 cvtsi2ss xmm0, eax
  000b2	f3 0f 11 44 24
	04		 movss	 DWORD PTR [esp+4], xmm0
  000b8	f3 0f 10 45 08	 movss	 xmm0, DWORD PTR tv196[ebp]
  000bd	f3 0f 11 04 24	 movss	 DWORD PTR [esp], xmm0
  000c2	ff d6		 call	 esi
  000c4	8b c8		 mov	 ecx, eax
  000c6	ff 15 00 00 00
	00		 call	 DWORD PTR __imp_?PrintTextWidthCut@ioFontManager@@QAEXMMMMPBD0@Z

; 848  : 
; 849  : 	g_FontMgr.SetTextColor( TCT_DEFAULT_RED );

  000cc	68 00 16 b9 ff	 push	 -4647424		; ffb91600H
  000d1	ff d6		 call	 esi
  000d3	8b c8		 mov	 ecx, eax
  000d5	ff d7		 call	 edi

; 850  : 	g_FontMgr.PrintTextWidthCut( iXPos + 90, iYPos + 53, FONT_SIZE_13, 130.0f, STR(2), m_Count.c_str() );

  000d7	8b 4d fc	 mov	 ecx, DWORD PTR _this$[ebp]
  000da	81 c1 70 01 00
	00		 add	 ecx, 368		; 00000170H
  000e0	ff 15 00 00 00
	00		 call	 DWORD PTR __imp_?c_str@ioHashString@@QBEPBDXZ
  000e6	50		 push	 eax
  000e7	6a 00		 push	 0
  000e9	6a 02		 push	 2
  000eb	68 00 00 00 00	 push	 OFFSET ??_C@_00CNPNBAHC@?$AA@
  000f0	68 00 00 00 00	 push	 OFFSET ??_C@_0CH@CGMCOENK@ioHousingBlockInvenToolTip?3?3Rend@
  000f5	ff d3		 call	 ebx
  000f7	8b c8		 mov	 ecx, eax
  000f9	ff 15 00 00 00
	00		 call	 DWORD PTR __imp_?GetString@ioStringManager@@QAEPADPBD0HW4FileNamePrefix@1@@Z
  000ff	f3 0f 10 05 00
	00 00 00	 movss	 xmm0, DWORD PTR __real@43020000
  00107	50		 push	 eax
  00108	8b 45 0c	 mov	 eax, DWORD PTR _iYPos$[ebp]
  0010b	83 ec 10	 sub	 esp, 16			; 00000010H
  0010e	f3 0f 11 44 24
	0c		 movss	 DWORD PTR [esp+12], xmm0
  00114	f3 0f 10 05 00
	00 00 00	 movss	 xmm0, DWORD PTR __real@3f266666
  0011c	f3 0f 11 44 24
	08		 movss	 DWORD PTR [esp+8], xmm0
  00122	83 c0 35	 add	 eax, 53			; 00000035H
  00125	0f 57 c0	 xorps	 xmm0, xmm0
  00128	f3 0f 2a c0	 cvtsi2ss xmm0, eax
  0012c	f3 0f 11 44 24
	04		 movss	 DWORD PTR [esp+4], xmm0
  00132	f3 0f 10 45 08	 movss	 xmm0, DWORD PTR tv196[ebp]
  00137	f3 0f 11 04 24	 movss	 DWORD PTR [esp], xmm0
  0013c	ff d6		 call	 esi
  0013e	8b c8		 mov	 ecx, eax
  00140	ff 15 00 00 00
	00		 call	 DWORD PTR __imp_?PrintTextWidthCut@ioFontManager@@QAEXMMMMPBD0@Z
  00146	5f		 pop	 edi
  00147	5e		 pop	 esi
  00148	5b		 pop	 ebx

; 851  : }

  00149	c9		 leave
  0014a	c2 08 00	 ret	 8
?RenderDesc@ioHousingBlockInvenToolTip@@QAEXHH@Z ENDP	; ioHousingBlockInvenToolTip::RenderDesc
_TEXT	ENDS
PUBLIC	?size@?$vector@UInvenBlockItem@ioUserBlockStorage@@V?$allocator@UInvenBlockItem@ioUserBlockStorage@@@std@@@std@@QBEIXZ ; std::vector<ioUserBlockStorage::InvenBlockItem,std::allocator<ioUserBlockStorage::InvenBlockItem> >::size
; Function compile flags: /Ogsp
; File c:\program files (x86)\microsoft visual studio 10.0\vc\include\vector
;	COMDAT ?size@?$vector@UInvenBlockItem@ioUserBlockStorage@@V?$allocator@UInvenBlockItem@ioUserBlockStorage@@@std@@@std@@QBEIXZ
_TEXT	SEGMENT
?size@?$vector@UInvenBlockItem@ioUserBlockStorage@@V?$allocator@UInvenBlockItem@ioUserBlockStorage@@@std@@@std@@QBEIXZ PROC ; std::vector<ioUserBlockStorage::InvenBlockItem,std::allocator<ioUserBlockStorage::InvenBlockItem> >::size, COMDAT
; _this$ = ecx

; 879  : 		return (this->_Mylast - this->_Myfirst);

  00000	8b 41 04	 mov	 eax, DWORD PTR [ecx+4]
  00003	2b 01		 sub	 eax, DWORD PTR [ecx]
  00005	6a 38		 push	 56			; 00000038H
  00007	99		 cdq
  00008	59		 pop	 ecx
  00009	f7 f9		 idiv	 ecx

; 880  : 		}

  0000b	c3		 ret	 0
?size@?$vector@UInvenBlockItem@ioUserBlockStorage@@V?$allocator@UInvenBlockItem@ioUserBlockStorage@@@std@@@std@@QBEIXZ ENDP ; std::vector<ioUserBlockStorage::InvenBlockItem,std::allocator<ioUserBlockStorage::InvenBlockItem> >::size
_TEXT	ENDS
PUBLIC	??A?$vector@UInvenBlockItem@ioUserBlockStorage@@V?$allocator@UInvenBlockItem@ioUserBlockStorage@@@std@@@std@@QAEAAUInvenBlockItem@ioUserBlockStorage@@I@Z ; std::vector<ioUserBlockStorage::InvenBlockItem,std::allocator<ioUserBlockStorage::InvenBlockItem> >::operator[]
; Function compile flags: /Ogsp
;	COMDAT ??A?$vector@UInvenBlockItem@ioUserBlockStorage@@V?$allocator@UInvenBlockItem@ioUserBlockStorage@@@std@@@std@@QAEAAUInvenBlockItem@ioUserBlockStorage@@I@Z
_TEXT	SEGMENT
__Pos$ = 8						; size = 4
??A?$vector@UInvenBlockItem@ioUserBlockStorage@@V?$allocator@UInvenBlockItem@ioUserBlockStorage@@@std@@@std@@QAEAAUInvenBlockItem@ioUserBlockStorage@@I@Z PROC ; std::vector<ioUserBlockStorage::InvenBlockItem,std::allocator<ioUserBlockStorage::InvenBlockItem> >::operator[], COMDAT
; _this$ = ecx

; 928  : 		{	// subscript mutable sequence

  00000	55		 push	 ebp
  00001	8b ec		 mov	 ebp, esp

; 929  :  #if _ITERATOR_DEBUG_LEVEL == 2
; 930  : 		if (size() <= _Pos)
; 931  : 			{	// report error
; 932  : 			_DEBUG_ERROR("vector subscript out of range");
; 933  : 			_SCL_SECURE_OUT_OF_RANGE;
; 934  : 			}
; 935  : 
; 936  :  #elif _ITERATOR_DEBUG_LEVEL == 1
; 937  : 		_SCL_SECURE_VALIDATE_RANGE(_Pos < size());
; 938  :  #endif /* _ITERATOR_DEBUG_LEVEL */
; 939  : 
; 940  : 		return (*(this->_Myfirst + _Pos));

  00003	8b 45 08	 mov	 eax, DWORD PTR __Pos$[ebp]
  00006	6b c0 38	 imul	 eax, 56			; 00000038H
  00009	03 01		 add	 eax, DWORD PTR [ecx]

; 941  : 		}

  0000b	5d		 pop	 ebp
  0000c	c2 04 00	 ret	 4
??A?$vector@UInvenBlockItem@ioUserBlockStorage@@V?$allocator@UInvenBlockItem@ioUserBlockStorage@@@std@@@std@@QAEAAUInvenBlockItem@ioUserBlockStorage@@I@Z ENDP ; std::vector<ioUserBlockStorage::InvenBlockItem,std::allocator<ioUserBlockStorage::InvenBlockItem> >::operator[]
_TEXT	ENDS
PUBLIC	?GetSingletonPtr@?$Singleton@VioBlockSetupManager@@@@SAPAVioBlockSetupManager@@XZ ; Singleton<ioBlockSetupManager>::GetSingletonPtr
EXTRN	?ms_Singleton@?$Singleton@VioBlockSetupManager@@@@1PAVioBlockSetupManager@@A:DWORD ; Singleton<ioBlockSetupManager>::ms_Singleton
; Function compile flags: /Ogsp
; File d:\lost saga for developer\youtube\tutorial\source\src\io3dengine\iosingleton.h
;	COMDAT ?GetSingletonPtr@?$Singleton@VioBlockSetupManager@@@@SAPAVioBlockSetupManager@@XZ
_TEXT	SEGMENT
?GetSingletonPtr@?$Singleton@VioBlockSetupManager@@@@SAPAVioBlockSetupManager@@XZ PROC ; Singleton<ioBlockSetupManager>::GetSingletonPtr, COMDAT

; 48   : 		return ( ms_Singleton );

  00000	a1 00 00 00 00	 mov	 eax, DWORD PTR ?ms_Singleton@?$Singleton@VioBlockSetupManager@@@@1PAVioBlockSetupManager@@A ; Singleton<ioBlockSetupManager>::ms_Singleton

; 49   : 	}

  00005	c3		 ret	 0
?GetSingletonPtr@?$Singleton@VioBlockSetupManager@@@@SAPAVioBlockSetupManager@@XZ ENDP ; Singleton<ioBlockSetupManager>::GetSingletonPtr
_TEXT	ENDS
PUBLIC	?_Inside@?$vector@UInvenBlockItem@ioUserBlockStorage@@V?$allocator@UInvenBlockItem@ioUserBlockStorage@@@std@@@std@@IBE_NPBUInvenBlockItem@ioUserBlockStorage@@@Z ; std::vector<ioUserBlockStorage::InvenBlockItem,std::allocator<ioUserBlockStorage::InvenBlockItem> >::_Inside
; Function compile flags: /Ogsp
; File c:\program files (x86)\microsoft visual studio 10.0\vc\include\vector
;	COMDAT ?_Inside@?$vector@UInvenBlockItem@ioUserBlockStorage@@V?$allocator@UInvenBlockItem@ioUserBlockStorage@@@std@@@std@@IBE_NPBUInvenBlockItem@ioUserBlockStorage@@@Z
_TEXT	SEGMENT
__Ptr$ = 8						; size = 4
?_Inside@?$vector@UInvenBlockItem@ioUserBlockStorage@@V?$allocator@UInvenBlockItem@ioUserBlockStorage@@@std@@@std@@IBE_NPBUInvenBlockItem@ioUserBlockStorage@@@Z PROC ; std::vector<ioUserBlockStorage::InvenBlockItem,std::allocator<ioUserBlockStorage::InvenBlockItem> >::_Inside, COMDAT
; _this$ = ecx

; 1285 : 		{	// test if _Ptr points inside vector

  00000	55		 push	 ebp
  00001	8b ec		 mov	 ebp, esp

; 1286 : 		return (_Ptr < this->_Mylast && this->_Myfirst <= _Ptr);

  00003	8b 45 08	 mov	 eax, DWORD PTR __Ptr$[ebp]
  00006	3b 41 04	 cmp	 eax, DWORD PTR [ecx+4]
  00009	73 09		 jae	 SHORT $LN3@Inside
  0000b	39 01		 cmp	 DWORD PTR [ecx], eax
  0000d	77 05		 ja	 SHORT $LN3@Inside
  0000f	33 c0		 xor	 eax, eax
  00011	40		 inc	 eax
  00012	eb 02		 jmp	 SHORT $LN4@Inside
$LN3@Inside:
  00014	33 c0		 xor	 eax, eax
$LN4@Inside:

; 1287 : 		}

  00016	5d		 pop	 ebp
  00017	c2 04 00	 ret	 4
?_Inside@?$vector@UInvenBlockItem@ioUserBlockStorage@@V?$allocator@UInvenBlockItem@ioUserBlockStorage@@@std@@@std@@IBE_NPBUInvenBlockItem@ioUserBlockStorage@@@Z ENDP ; std::vector<ioUserBlockStorage::InvenBlockItem,std::allocator<ioUserBlockStorage::InvenBlockItem> >::_Inside
_TEXT	ENDS
PUBLIC	?_Orphan_range@?$vector@UInvenBlockItem@ioUserBlockStorage@@V?$allocator@UInvenBlockItem@ioUserBlockStorage@@@std@@@std@@IBEXPAUInvenBlockItem@ioUserBlockStorage@@0@Z ; std::vector<ioUserBlockStorage::InvenBlockItem,std::allocator<ioUserBlockStorage::InvenBlockItem> >::_Orphan_range
; Function compile flags: /Ogsp
;	COMDAT ?_Orphan_range@?$vector@UInvenBlockItem@ioUserBlockStorage@@V?$allocator@UInvenBlockItem@ioUserBlockStorage@@@std@@@std@@IBEXPAUInvenBlockItem@ioUserBlockStorage@@0@Z
_TEXT	SEGMENT
___formal$ = 8						; size = 4
___formal$ = 12						; size = 4
?_Orphan_range@?$vector@UInvenBlockItem@ioUserBlockStorage@@V?$allocator@UInvenBlockItem@ioUserBlockStorage@@@std@@@std@@IBEXPAUInvenBlockItem@ioUserBlockStorage@@0@Z PROC ; std::vector<ioUserBlockStorage::InvenBlockItem,std::allocator<ioUserBlockStorage::InvenBlockItem> >::_Orphan_range, COMDAT
; _this$ = ecx

; 1454 : 		}

  00000	c2 08 00	 ret	 8
?_Orphan_range@?$vector@UInvenBlockItem@ioUserBlockStorage@@V?$allocator@UInvenBlockItem@ioUserBlockStorage@@@std@@@std@@IBEXPAUInvenBlockItem@ioUserBlockStorage@@0@Z ENDP ; std::vector<ioUserBlockStorage::InvenBlockItem,std::allocator<ioUserBlockStorage::InvenBlockItem> >::_Orphan_range
_TEXT	ENDS
PUBLIC	??1?$_Vector_val@UInvenBlockItem@ioUserBlockStorage@@V?$allocator@UInvenBlockItem@ioUserBlockStorage@@@std@@@std@@QAE@XZ ; std::_Vector_val<ioUserBlockStorage::InvenBlockItem,std::allocator<ioUserBlockStorage::InvenBlockItem> >::~_Vector_val<ioUserBlockStorage::InvenBlockItem,std::allocator<ioUserBlockStorage::InvenBlockItem> >
; Function compile flags: /Ogsp
;	COMDAT ??1?$_Vector_val@UInvenBlockItem@ioUserBlockStorage@@V?$allocator@UInvenBlockItem@ioUserBlockStorage@@@std@@@std@@QAE@XZ
_TEXT	SEGMENT
??1?$_Vector_val@UInvenBlockItem@ioUserBlockStorage@@V?$allocator@UInvenBlockItem@ioUserBlockStorage@@@std@@@std@@QAE@XZ PROC ; std::_Vector_val<ioUserBlockStorage::InvenBlockItem,std::allocator<ioUserBlockStorage::InvenBlockItem> >::~_Vector_val<ioUserBlockStorage::InvenBlockItem,std::allocator<ioUserBlockStorage::InvenBlockItem> >, COMDAT
; _this$ = ecx

; 434  : 		}

  00000	c3		 ret	 0
??1?$_Vector_val@UInvenBlockItem@ioUserBlockStorage@@V?$allocator@UInvenBlockItem@ioUserBlockStorage@@@std@@@std@@QAE@XZ ENDP ; std::_Vector_val<ioUserBlockStorage::InvenBlockItem,std::allocator<ioUserBlockStorage::InvenBlockItem> >::~_Vector_val<ioUserBlockStorage::InvenBlockItem,std::allocator<ioUserBlockStorage::InvenBlockItem> >
_TEXT	ENDS
PUBLIC	??0?$allocator@UInvenBlockItem@ioUserBlockStorage@@@std@@QAE@XZ ; std::allocator<ioUserBlockStorage::InvenBlockItem>::allocator<ioUserBlockStorage::InvenBlockItem>
; Function compile flags: /Ogsp
; File c:\program files (x86)\microsoft visual studio 10.0\vc\include\xmemory
;	COMDAT ??0?$allocator@UInvenBlockItem@ioUserBlockStorage@@@std@@QAE@XZ
_TEXT	SEGMENT
??0?$allocator@UInvenBlockItem@ioUserBlockStorage@@@std@@QAE@XZ PROC ; std::allocator<ioUserBlockStorage::InvenBlockItem>::allocator<ioUserBlockStorage::InvenBlockItem>, COMDAT
; _this$ = ecx

; 161  : 	_ALLOCATOR() _THROW0()

  00000	8b c1		 mov	 eax, ecx

; 162  : 		{	// construct default allocator (do nothing)
; 163  : 		}

  00002	c3		 ret	 0
??0?$allocator@UInvenBlockItem@ioUserBlockStorage@@@std@@QAE@XZ ENDP ; std::allocator<ioUserBlockStorage::InvenBlockItem>::allocator<ioUserBlockStorage::InvenBlockItem>
_TEXT	ENDS
PUBLIC	?capacity@?$vector@UInvenBlockItem@ioUserBlockStorage@@V?$allocator@UInvenBlockItem@ioUserBlockStorage@@@std@@@std@@QBEIXZ ; std::vector<ioUserBlockStorage::InvenBlockItem,std::allocator<ioUserBlockStorage::InvenBlockItem> >::capacity
; Function compile flags: /Ogsp
; File c:\program files (x86)\microsoft visual studio 10.0\vc\include\vector
;	COMDAT ?capacity@?$vector@UInvenBlockItem@ioUserBlockStorage@@V?$allocator@UInvenBlockItem@ioUserBlockStorage@@@std@@@std@@QBEIXZ
_TEXT	SEGMENT
?capacity@?$vector@UInvenBlockItem@ioUserBlockStorage@@V?$allocator@UInvenBlockItem@ioUserBlockStorage@@@std@@@std@@QBEIXZ PROC ; std::vector<ioUserBlockStorage::InvenBlockItem,std::allocator<ioUserBlockStorage::InvenBlockItem> >::capacity, COMDAT
; _this$ = ecx

; 777  : 		return (this->_Myend - this->_Myfirst);

  00000	8b 41 08	 mov	 eax, DWORD PTR [ecx+8]
  00003	2b 01		 sub	 eax, DWORD PTR [ecx]
  00005	6a 38		 push	 56			; 00000038H
  00007	99		 cdq
  00008	59		 pop	 ecx
  00009	f7 f9		 idiv	 ecx

; 778  : 		}

  0000b	c3		 ret	 0
?capacity@?$vector@UInvenBlockItem@ioUserBlockStorage@@V?$allocator@UInvenBlockItem@ioUserBlockStorage@@@std@@@std@@QBEIXZ ENDP ; std::vector<ioUserBlockStorage::InvenBlockItem,std::allocator<ioUserBlockStorage::InvenBlockItem> >::capacity
_TEXT	ENDS
PUBLIC	??_C@_0BD@OLBABOEK@vector?$DMT?$DO?5too?5long?$AA@ ; `string'
PUBLIC	?_Xlen@?$vector@UInvenBlockItem@ioUserBlockStorage@@V?$allocator@UInvenBlockItem@ioUserBlockStorage@@@std@@@std@@IBEXXZ ; std::vector<ioUserBlockStorage::InvenBlockItem,std::allocator<ioUserBlockStorage::InvenBlockItem> >::_Xlen
EXTRN	__imp_?_Xlength_error@std@@YAXPBD@Z:PROC
;	COMDAT ??_C@_0BD@OLBABOEK@vector?$DMT?$DO?5too?5long?$AA@
CONST	SEGMENT
??_C@_0BD@OLBABOEK@vector?$DMT?$DO?5too?5long?$AA@ DB 'vector<T> too long'
	DB	00H						; `string'
; Function compile flags: /Ogsp
CONST	ENDS
;	COMDAT ?_Xlen@?$vector@UInvenBlockItem@ioUserBlockStorage@@V?$allocator@UInvenBlockItem@ioUserBlockStorage@@@std@@@std@@IBEXXZ
_TEXT	SEGMENT
?_Xlen@?$vector@UInvenBlockItem@ioUserBlockStorage@@V?$allocator@UInvenBlockItem@ioUserBlockStorage@@@std@@@std@@IBEXXZ PROC ; std::vector<ioUserBlockStorage::InvenBlockItem,std::allocator<ioUserBlockStorage::InvenBlockItem> >::_Xlen, COMDAT
; _this$ = ecx

; 1427 : 		_Xlength_error("vector<T> too long");

  00000	68 00 00 00 00	 push	 OFFSET ??_C@_0BD@OLBABOEK@vector?$DMT?$DO?5too?5long?$AA@
  00005	ff 15 00 00 00
	00		 call	 DWORD PTR __imp_?_Xlength_error@std@@YAXPBD@Z
$LN4@Xlen:
$LN3@Xlen:
  0000b	cc		 int	 3
?_Xlen@?$vector@UInvenBlockItem@ioUserBlockStorage@@V?$allocator@UInvenBlockItem@ioUserBlockStorage@@@std@@@std@@IBEXXZ ENDP ; std::vector<ioUserBlockStorage::InvenBlockItem,std::allocator<ioUserBlockStorage::InvenBlockItem> >::_Xlen
_TEXT	ENDS
PUBLIC	??0?$allocator@UInvenBlockItem@ioUserBlockStorage@@@std@@QAE@ABV01@@Z ; std::allocator<ioUserBlockStorage::InvenBlockItem>::allocator<ioUserBlockStorage::InvenBlockItem>
; Function compile flags: /Ogsp
; File c:\program files (x86)\microsoft visual studio 10.0\vc\include\xmemory
;	COMDAT ??0?$allocator@UInvenBlockItem@ioUserBlockStorage@@@std@@QAE@ABV01@@Z
_TEXT	SEGMENT
___formal$ = 8						; size = 4
??0?$allocator@UInvenBlockItem@ioUserBlockStorage@@@std@@QAE@ABV01@@Z PROC ; std::allocator<ioUserBlockStorage::InvenBlockItem>::allocator<ioUserBlockStorage::InvenBlockItem>, COMDAT
; _this$ = ecx

; 165  : 	_ALLOCATOR(const _ALLOCATOR<_Ty>&) _THROW0()

  00000	8b c1		 mov	 eax, ecx

; 166  : 		{	// construct by copying (do nothing)
; 167  : 		}

  00002	c2 04 00	 ret	 4
??0?$allocator@UInvenBlockItem@ioUserBlockStorage@@@std@@QAE@ABV01@@Z ENDP ; std::allocator<ioUserBlockStorage::InvenBlockItem>::allocator<ioUserBlockStorage::InvenBlockItem>
_TEXT	ENDS
PUBLIC	?deallocate@?$allocator@UInvenBlockItem@ioUserBlockStorage@@@std@@QAEXPAUInvenBlockItem@ioUserBlockStorage@@I@Z ; std::allocator<ioUserBlockStorage::InvenBlockItem>::deallocate
; Function compile flags: /Ogsp
;	COMDAT ?deallocate@?$allocator@UInvenBlockItem@ioUserBlockStorage@@@std@@QAEXPAUInvenBlockItem@ioUserBlockStorage@@I@Z
_TEXT	SEGMENT
__Ptr$ = 8						; size = 4
___formal$ = 12						; size = 4
?deallocate@?$allocator@UInvenBlockItem@ioUserBlockStorage@@@std@@QAEXPAUInvenBlockItem@ioUserBlockStorage@@I@Z PROC ; std::allocator<ioUserBlockStorage::InvenBlockItem>::deallocate, COMDAT
; _this$ = ecx

; 181  : 		{	// deallocate object at _Ptr, ignore size

  00000	55		 push	 ebp
  00001	8b ec		 mov	 ebp, esp

; 182  : 		::operator delete(_Ptr);

  00003	ff 75 08	 push	 DWORD PTR __Ptr$[ebp]
  00006	e8 00 00 00 00	 call	 ??3@YAXPAX@Z		; operator delete
  0000b	59		 pop	 ecx

; 183  : 		}

  0000c	5d		 pop	 ebp
  0000d	c2 08 00	 ret	 8
?deallocate@?$allocator@UInvenBlockItem@ioUserBlockStorage@@@std@@QAEXPAUInvenBlockItem@ioUserBlockStorage@@I@Z ENDP ; std::allocator<ioUserBlockStorage::InvenBlockItem>::deallocate
_TEXT	ENDS
PUBLIC	?max_size@?$allocator@UInvenBlockItem@ioUserBlockStorage@@@std@@QBEIXZ ; std::allocator<ioUserBlockStorage::InvenBlockItem>::max_size
; Function compile flags: /Ogsp
;	COMDAT ?max_size@?$allocator@UInvenBlockItem@ioUserBlockStorage@@@std@@QBEIXZ
_TEXT	SEGMENT
?max_size@?$allocator@UInvenBlockItem@ioUserBlockStorage@@@std@@QBEIXZ PROC ; std::allocator<ioUserBlockStorage::InvenBlockItem>::max_size, COMDAT
; _this$ = ecx

; 218  : 		_SIZT _Count = (_SIZT)(-1) / sizeof (_Ty);
; 219  : 		return (0 < _Count ? _Count : 1);

  00000	b8 24 49 92 04	 mov	 eax, 76695844		; 04924924H

; 220  : 		}

  00005	c3		 ret	 0
?max_size@?$allocator@UInvenBlockItem@ioUserBlockStorage@@@std@@QBEIXZ ENDP ; std::allocator<ioUserBlockStorage::InvenBlockItem>::max_size
_TEXT	ENDS
PUBLIC	??$addressof@$$CBUInvenBlockItem@ioUserBlockStorage@@@std@@YAPBUInvenBlockItem@ioUserBlockStorage@@ABU12@@Z ; std::addressof<ioUserBlockStorage::InvenBlockItem const >
; Function compile flags: /Ogsp
;	COMDAT ??$addressof@$$CBUInvenBlockItem@ioUserBlockStorage@@@std@@YAPBUInvenBlockItem@ioUserBlockStorage@@ABU12@@Z
_TEXT	SEGMENT
__Val$ = 8						; size = 4
??$addressof@$$CBUInvenBlockItem@ioUserBlockStorage@@@std@@YAPBUInvenBlockItem@ioUserBlockStorage@@ABU12@@Z PROC ; std::addressof<ioUserBlockStorage::InvenBlockItem const >, COMDAT

; 110  : 	{	// return address of _Val

  00000	55		 push	 ebp
  00001	8b ec		 mov	 ebp, esp

; 111  : 	return ((_Ty *) &(char&)_Val);

  00003	8b 45 08	 mov	 eax, DWORD PTR __Val$[ebp]

; 112  : 	}

  00006	5d		 pop	 ebp
  00007	c3		 ret	 0
??$addressof@$$CBUInvenBlockItem@ioUserBlockStorage@@@std@@YAPBUInvenBlockItem@ioUserBlockStorage@@ABU12@@Z ENDP ; std::addressof<ioUserBlockStorage::InvenBlockItem const >
_TEXT	ENDS
PUBLIC	__TI2?AVbad_alloc@std@@
PUBLIC	??$_Allocate@UInvenBlockItem@ioUserBlockStorage@@@std@@YAPAUInvenBlockItem@ioUserBlockStorage@@IPAU12@@Z ; std::_Allocate<ioUserBlockStorage::InvenBlockItem>
PUBLIC	__CTA2?AVbad_alloc@std@@
PUBLIC	__CT??_R0?AVbad_alloc@std@@@8??0bad_alloc@std@@QAE@ABV01@@Z12
PUBLIC	??0bad_alloc@std@@QAE@ABV01@@Z			; std::bad_alloc::bad_alloc
PUBLIC	__CT??_R0?AVexception@std@@@8??0exception@std@@QAE@ABV01@@Z12
EXTRN	??2@YAPAXI@Z:PROC				; operator new
EXTRN	__CxxThrowException@8:PROC
EXTRN	??0exception@std@@QAE@ABV01@@Z:PROC		; std::exception::exception
;	COMDAT __CT??_R0?AVexception@std@@@8??0exception@std@@QAE@ABV01@@Z12
; File c:\program files (x86)\microsoft visual studio 10.0\vc\include\exception
xdata$x	SEGMENT
__CT??_R0?AVexception@std@@@8??0exception@std@@QAE@ABV01@@Z12 DD 00H
	DD	FLAT:??_R0?AVexception@std@@@8
	DD	00H
	DD	0ffffffffH
	ORG $+4
	DD	0cH
	DD	FLAT:??0exception@std@@QAE@ABV01@@Z
xdata$x	ENDS
;	COMDAT __CT??_R0?AVbad_alloc@std@@@8??0bad_alloc@std@@QAE@ABV01@@Z12
xdata$x	SEGMENT
__CT??_R0?AVbad_alloc@std@@@8??0bad_alloc@std@@QAE@ABV01@@Z12 DD 00H
	DD	FLAT:??_R0?AVbad_alloc@std@@@8
	DD	00H
	DD	0ffffffffH
	ORG $+4
	DD	0cH
	DD	FLAT:??0bad_alloc@std@@QAE@ABV01@@Z
xdata$x	ENDS
;	COMDAT __CTA2?AVbad_alloc@std@@
xdata$x	SEGMENT
__CTA2?AVbad_alloc@std@@ DD 02H
	DD	FLAT:__CT??_R0?AVbad_alloc@std@@@8??0bad_alloc@std@@QAE@ABV01@@Z12
	DD	FLAT:__CT??_R0?AVexception@std@@@8??0exception@std@@QAE@ABV01@@Z12
xdata$x	ENDS
;	COMDAT __TI2?AVbad_alloc@std@@
xdata$x	SEGMENT
__TI2?AVbad_alloc@std@@ DD 00H
	DD	FLAT:??1bad_alloc@std@@UAE@XZ
	DD	00H
	DD	FLAT:__CTA2?AVbad_alloc@std@@
; Function compile flags: /Ogsp
; File c:\program files (x86)\microsoft visual studio 10.0\vc\include\xmemory
xdata$x	ENDS
;	COMDAT ??$_Allocate@UInvenBlockItem@ioUserBlockStorage@@@std@@YAPAUInvenBlockItem@ioUserBlockStorage@@IPAU12@@Z
_TEXT	SEGMENT
$T518651 = -12						; size = 12
$T518656 = 8						; size = 4
__Count$ = 8						; size = 4
___formal$ = 12						; size = 4
??$_Allocate@UInvenBlockItem@ioUserBlockStorage@@@std@@YAPAUInvenBlockItem@ioUserBlockStorage@@IPAU12@@Z PROC ; std::_Allocate<ioUserBlockStorage::InvenBlockItem>, COMDAT

; 30   : 	{	// allocate storage for _Count elements of type _Ty

  00000	55		 push	 ebp
  00001	8b ec		 mov	 ebp, esp

; 31   : 	void *_Ptr = 0;
; 32   : 
; 33   : 	if (_Count <= 0)

  00003	8b 4d 08	 mov	 ecx, DWORD PTR __Count$[ebp]
  00006	83 ec 0c	 sub	 esp, 12			; 0000000cH
  00009	33 c0		 xor	 eax, eax
  0000b	85 c9		 test	 ecx, ecx

; 34   : 		_Count = 0;
; 35   : 	else if (((_SIZT)(-1) / sizeof (_Ty) < _Count)

  0000d	74 3c		 je	 SHORT $LN5@Allocate

; 36   : 		|| (_Ptr = ::operator new(_Count * sizeof (_Ty))) == 0)

  0000f	81 f9 24 49 92
	04		 cmp	 ecx, 76695844		; 04924924H
  00015	77 0e		 ja	 SHORT $LN1@Allocate
  00017	6b c9 38	 imul	 ecx, 56			; 00000038H
  0001a	51		 push	 ecx
  0001b	e8 00 00 00 00	 call	 ??2@YAPAXI@Z		; operator new
  00020	59		 pop	 ecx
  00021	85 c0		 test	 eax, eax

; 38   : 
; 39   : 	return ((_Ty _FARQ *)_Ptr);

  00023	75 26		 jne	 SHORT $LN5@Allocate
$LN1@Allocate:

; 37   : 		_THROW_NCEE(bad_alloc, 0);

  00025	83 65 08 00	 and	 DWORD PTR $T518656[ebp], 0
  00029	8d 45 08	 lea	 eax, DWORD PTR $T518656[ebp]
  0002c	50		 push	 eax
  0002d	8d 4d f4	 lea	 ecx, DWORD PTR $T518651[ebp]
  00030	ff 15 00 00 00
	00		 call	 DWORD PTR __imp_??0exception@std@@QAE@ABQBD@Z
  00036	68 00 00 00 00	 push	 OFFSET __TI2?AVbad_alloc@std@@
  0003b	8d 45 f4	 lea	 eax, DWORD PTR $T518651[ebp]
  0003e	50		 push	 eax
  0003f	c7 45 f4 00 00
	00 00		 mov	 DWORD PTR $T518651[ebp], OFFSET ??_7bad_alloc@std@@6B@
  00046	e8 00 00 00 00	 call	 __CxxThrowException@8
$LN10@Allocate:
$LN5@Allocate:

; 40   : 	}

  0004b	c9		 leave
  0004c	c3		 ret	 0
$LN9@Allocate:
??$_Allocate@UInvenBlockItem@ioUserBlockStorage@@@std@@YAPAUInvenBlockItem@ioUserBlockStorage@@IPAU12@@Z ENDP ; std::_Allocate<ioUserBlockStorage::InvenBlockItem>
_TEXT	ENDS
PUBLIC	??$forward@AAUInvenBlockItem@ioUserBlockStorage@@@std@@YAAAUInvenBlockItem@ioUserBlockStorage@@AAU12@@Z ; std::forward<ioUserBlockStorage::InvenBlockItem &>
; Function compile flags: /Ogsp
; File c:\program files (x86)\microsoft visual studio 10.0\vc\include\utility
;	COMDAT ??$forward@AAUInvenBlockItem@ioUserBlockStorage@@@std@@YAAAUInvenBlockItem@ioUserBlockStorage@@AAU12@@Z
_TEXT	SEGMENT
__Arg$ = 8						; size = 4
??$forward@AAUInvenBlockItem@ioUserBlockStorage@@@std@@YAAAUInvenBlockItem@ioUserBlockStorage@@AAU12@@Z PROC ; std::forward<ioUserBlockStorage::InvenBlockItem &>, COMDAT

; 78   : 	{	// forward _Arg, given explicitly specified type parameter

  00000	55		 push	 ebp
  00001	8b ec		 mov	 ebp, esp

; 79   : 	return ((_Ty&&)_Arg);

  00003	8b 45 08	 mov	 eax, DWORD PTR __Arg$[ebp]

; 80   : 	}

  00006	5d		 pop	 ebp
  00007	c3		 ret	 0
??$forward@AAUInvenBlockItem@ioUserBlockStorage@@@std@@YAAAUInvenBlockItem@ioUserBlockStorage@@AAU12@@Z ENDP ; std::forward<ioUserBlockStorage::InvenBlockItem &>
_TEXT	ENDS
PUBLIC	??$forward@ABUInvenBlockItem@ioUserBlockStorage@@@std@@YAABUInvenBlockItem@ioUserBlockStorage@@ABU12@@Z ; std::forward<ioUserBlockStorage::InvenBlockItem const &>
; Function compile flags: /Ogsp
;	COMDAT ??$forward@ABUInvenBlockItem@ioUserBlockStorage@@@std@@YAABUInvenBlockItem@ioUserBlockStorage@@ABU12@@Z
_TEXT	SEGMENT
__Arg$ = 8						; size = 4
??$forward@ABUInvenBlockItem@ioUserBlockStorage@@@std@@YAABUInvenBlockItem@ioUserBlockStorage@@ABU12@@Z PROC ; std::forward<ioUserBlockStorage::InvenBlockItem const &>, COMDAT

; 78   : 	{	// forward _Arg, given explicitly specified type parameter

  00000	55		 push	 ebp
  00001	8b ec		 mov	 ebp, esp

; 79   : 	return ((_Ty&&)_Arg);

  00003	8b 45 08	 mov	 eax, DWORD PTR __Arg$[ebp]

; 80   : 	}

  00006	5d		 pop	 ebp
  00007	c3		 ret	 0
??$forward@ABUInvenBlockItem@ioUserBlockStorage@@@std@@YAABUInvenBlockItem@ioUserBlockStorage@@ABU12@@Z ENDP ; std::forward<ioUserBlockStorage::InvenBlockItem const &>
_TEXT	ENDS
PUBLIC	??$_Ptr_cat@UInvenBlockItem@ioUserBlockStorage@@U12@@std@@YA?AU_Nonscalar_ptr_iterator_tag@0@PAUInvenBlockItem@ioUserBlockStorage@@0@Z ; std::_Ptr_cat<ioUserBlockStorage::InvenBlockItem,ioUserBlockStorage::InvenBlockItem>
; Function compile flags: /Ogsp
; File c:\program files (x86)\microsoft visual studio 10.0\vc\include\xutility
;	COMDAT ??$_Ptr_cat@UInvenBlockItem@ioUserBlockStorage@@U12@@std@@YA?AU_Nonscalar_ptr_iterator_tag@0@PAUInvenBlockItem@ioUserBlockStorage@@0@Z
_TEXT	SEGMENT
__Cat$ = -1						; size = 1
___formal$ = 8						; size = 4
___formal$ = 12						; size = 4
??$_Ptr_cat@UInvenBlockItem@ioUserBlockStorage@@U12@@std@@YA?AU_Nonscalar_ptr_iterator_tag@0@PAUInvenBlockItem@ioUserBlockStorage@@0@Z PROC ; std::_Ptr_cat<ioUserBlockStorage::InvenBlockItem,ioUserBlockStorage::InvenBlockItem>, COMDAT

; 516  : 	{	// return pointer category from pointers

  00000	55		 push	 ebp
  00001	8b ec		 mov	 ebp, esp
  00003	51		 push	 ecx

; 517  : 	typename _Ptr_cat_helper<_Elem1, _Elem2>::_Type _Cat;
; 518  : 	return (_Cat);

  00004	8a 45 ff	 mov	 al, BYTE PTR __Cat$[ebp]

; 519  : 	}

  00007	c9		 leave
  00008	c3		 ret	 0
??$_Ptr_cat@UInvenBlockItem@ioUserBlockStorage@@U12@@std@@YA?AU_Nonscalar_ptr_iterator_tag@0@PAUInvenBlockItem@ioUserBlockStorage@@0@Z ENDP ; std::_Ptr_cat<ioUserBlockStorage::InvenBlockItem,ioUserBlockStorage::InvenBlockItem>
_TEXT	ENDS
PUBLIC	??0InvenBlockItem@ioUserBlockStorage@@QAE@ABU01@@Z ; ioUserBlockStorage::InvenBlockItem::InvenBlockItem
EXTRN	__imp_??0ioHashString@@QAE@ABV0@@Z:PROC
;	COMDAT xdata$x
xdata$x	SEGMENT
__unwindtable$??0InvenBlockItem@ioUserBlockStorage@@QAE@ABU01@@Z DD 0ffffffffH
	DD	FLAT:__unwindfunclet$??0InvenBlockItem@ioUserBlockStorage@@QAE@ABU01@@Z$0
__ehfuncinfo$??0InvenBlockItem@ioUserBlockStorage@@QAE@ABU01@@Z DD 019930522H
	DD	01H
	DD	FLAT:__unwindtable$??0InvenBlockItem@ioUserBlockStorage@@QAE@ABU01@@Z
	DD	2 DUP(00H)
	DD	2 DUP(00H)
	DD	00H
	DD	01H
; Function compile flags: /Ogsp
xdata$x	ENDS
;	COMDAT ??0InvenBlockItem@ioUserBlockStorage@@QAE@ABU01@@Z
_TEXT	SEGMENT
_this$ = -16						; size = 4
__$EHRec$ = -12						; size = 12
___that$ = 8						; size = 4
??0InvenBlockItem@ioUserBlockStorage@@QAE@ABU01@@Z PROC	; ioUserBlockStorage::InvenBlockItem::InvenBlockItem, COMDAT
; _this$ = ecx
  00000	6a 04		 push	 4
  00002	b8 00 00 00 00	 mov	 eax, __ehhandler$??0InvenBlockItem@ioUserBlockStorage@@QAE@ABU01@@Z
  00007	e8 00 00 00 00	 call	 __EH_prolog3
  0000c	8b f1		 mov	 esi, ecx
  0000e	89 75 f0	 mov	 DWORD PTR _this$[ebp], esi
  00011	8b 7d 08	 mov	 edi, DWORD PTR ___that$[ebp]
  00014	8b 1d 00 00 00
	00		 mov	 ebx, DWORD PTR __imp_??0ioHashString@@QAE@ABV0@@Z
  0001a	57		 push	 edi
  0001b	ff d3		 call	 ebx
  0001d	83 65 fc 00	 and	 DWORD PTR __$EHRec$[ebp+8], 0
  00021	8d 47 10	 lea	 eax, DWORD PTR [edi+16]
  00024	50		 push	 eax
  00025	8d 4e 10	 lea	 ecx, DWORD PTR [esi+16]
  00028	ff d3		 call	 ebx
  0002a	8b 47 20	 mov	 eax, DWORD PTR [edi+32]
  0002d	89 46 20	 mov	 DWORD PTR [esi+32], eax
  00030	8b 47 24	 mov	 eax, DWORD PTR [edi+36]
  00033	89 46 24	 mov	 DWORD PTR [esi+36], eax
  00036	8b 47 28	 mov	 eax, DWORD PTR [edi+40]
  00039	89 46 28	 mov	 DWORD PTR [esi+40], eax
  0003c	8b 47 2c	 mov	 eax, DWORD PTR [edi+44]
  0003f	89 46 2c	 mov	 DWORD PTR [esi+44], eax
  00042	8b 47 30	 mov	 eax, DWORD PTR [edi+48]
  00045	89 46 30	 mov	 DWORD PTR [esi+48], eax
  00048	8b 47 34	 mov	 eax, DWORD PTR [edi+52]
  0004b	89 46 34	 mov	 DWORD PTR [esi+52], eax
  0004e	8b c6		 mov	 eax, esi
  00050	e8 00 00 00 00	 call	 __EH_epilog3
  00055	c2 04 00	 ret	 4
_TEXT	ENDS
;	COMDAT text$x
text$x	SEGMENT
__unwindfunclet$??0InvenBlockItem@ioUserBlockStorage@@QAE@ABU01@@Z$0:
  00000	8b 4d f0	 mov	 ecx, DWORD PTR _this$[ebp]
  00003	ff 25 00 00 00
	00		 jmp	 DWORD PTR __imp_??1ioHashString@@QAE@XZ
__ehhandler$??0InvenBlockItem@ioUserBlockStorage@@QAE@ABU01@@Z:
  00009	8b 54 24 08	 mov	 edx, DWORD PTR [esp+8]
  0000d	8d 42 0c	 lea	 eax, DWORD PTR [edx+12]
  00010	8b 4a ec	 mov	 ecx, DWORD PTR [edx-20]
  00013	33 c8		 xor	 ecx, eax
  00015	e8 00 00 00 00	 call	 @__security_check_cookie@4
  0001a	b8 00 00 00 00	 mov	 eax, OFFSET __ehfuncinfo$??0InvenBlockItem@ioUserBlockStorage@@QAE@ABU01@@Z
  0001f	e9 00 00 00 00	 jmp	 ___CxxFrameHandler3
text$x	ENDS
??0InvenBlockItem@ioUserBlockStorage@@QAE@ABU01@@Z ENDP	; ioUserBlockStorage::InvenBlockItem::InvenBlockItem
PUBLIC	?_Unchecked@?$_String_iterator@DU?$char_traits@D@std@@V?$allocator@D@2@@std@@QBEPADXZ ; std::_String_iterator<char,std::char_traits<char>,std::allocator<char> >::_Unchecked
; Function compile flags: /Ogsp
; File c:\program files (x86)\microsoft visual studio 10.0\vc\include\xstring
;	COMDAT ?_Unchecked@?$_String_iterator@DU?$char_traits@D@std@@V?$allocator@D@2@@std@@QBEPADXZ
_TEXT	SEGMENT
?_Unchecked@?$_String_iterator@DU?$char_traits@D@std@@V?$allocator@D@2@@std@@QBEPADXZ PROC ; std::_String_iterator<char,std::char_traits<char>,std::allocator<char> >::_Unchecked, COMDAT
; _this$ = ecx

; 338  : 		return (_Unchecked_type(this->_Ptr));

  00000	8b 01		 mov	 eax, DWORD PTR [ecx]

; 339  : 		}

  00002	c3		 ret	 0
?_Unchecked@?$_String_iterator@DU?$char_traits@D@std@@V?$allocator@D@2@@std@@QBEPADXZ ENDP ; std::_String_iterator<char,std::char_traits<char>,std::allocator<char> >::_Unchecked
_TEXT	ENDS
PUBLIC	??$_Val_type@PAUInvenBlockItem@ioUserBlockStorage@@@std@@YAPAUInvenBlockItem@ioUserBlockStorage@@PAU12@@Z ; std::_Val_type<ioUserBlockStorage::InvenBlockItem *>
; Function compile flags: /Ogsp
; File c:\program files (x86)\microsoft visual studio 10.0\vc\include\xutility
;	COMDAT ??$_Val_type@PAUInvenBlockItem@ioUserBlockStorage@@@std@@YAPAUInvenBlockItem@ioUserBlockStorage@@PAU12@@Z
_TEXT	SEGMENT
___formal$ = 8						; size = 4
??$_Val_type@PAUInvenBlockItem@ioUserBlockStorage@@@std@@YAPAUInvenBlockItem@ioUserBlockStorage@@PAU12@@Z PROC ; std::_Val_type<ioUserBlockStorage::InvenBlockItem *>, COMDAT

; 790  : 	return (0);

  00000	33 c0		 xor	 eax, eax

; 791  : 	}

  00002	c3		 ret	 0
??$_Val_type@PAUInvenBlockItem@ioUserBlockStorage@@@std@@YAPAUInvenBlockItem@ioUserBlockStorage@@PAU12@@Z ENDP ; std::_Val_type<ioUserBlockStorage::InvenBlockItem *>
_TEXT	ENDS
PUBLIC	??1InvenBlockItem@ioUserBlockStorage@@QAE@XZ	; ioUserBlockStorage::InvenBlockItem::~InvenBlockItem
;	COMDAT xdata$x
xdata$x	SEGMENT
__unwindtable$??1InvenBlockItem@ioUserBlockStorage@@QAE@XZ DD 0ffffffffH
	DD	FLAT:__unwindfunclet$??1InvenBlockItem@ioUserBlockStorage@@QAE@XZ$0
__ehfuncinfo$??1InvenBlockItem@ioUserBlockStorage@@QAE@XZ DD 019930522H
	DD	01H
	DD	FLAT:__unwindtable$??1InvenBlockItem@ioUserBlockStorage@@QAE@XZ
	DD	2 DUP(00H)
	DD	2 DUP(00H)
	DD	00H
	DD	01H
; Function compile flags: /Ogsp
xdata$x	ENDS
;	COMDAT ??1InvenBlockItem@ioUserBlockStorage@@QAE@XZ
_TEXT	SEGMENT
_this$ = -16						; size = 4
__$EHRec$ = -12						; size = 12
??1InvenBlockItem@ioUserBlockStorage@@QAE@XZ PROC	; ioUserBlockStorage::InvenBlockItem::~InvenBlockItem, COMDAT
; _this$ = ecx
  00000	6a 04		 push	 4
  00002	b8 00 00 00 00	 mov	 eax, __ehhandler$??1InvenBlockItem@ioUserBlockStorage@@QAE@XZ
  00007	e8 00 00 00 00	 call	 __EH_prolog3
  0000c	8b f9		 mov	 edi, ecx
  0000e	89 7d f0	 mov	 DWORD PTR _this$[ebp], edi
  00011	8b 35 00 00 00
	00		 mov	 esi, DWORD PTR __imp_??1ioHashString@@QAE@XZ
  00017	83 65 fc 00	 and	 DWORD PTR __$EHRec$[ebp+8], 0
  0001b	8d 4f 10	 lea	 ecx, DWORD PTR [edi+16]
  0001e	ff d6		 call	 esi
  00020	83 4d fc ff	 or	 DWORD PTR __$EHRec$[ebp+8], -1
  00024	8b cf		 mov	 ecx, edi
  00026	ff d6		 call	 esi
  00028	e8 00 00 00 00	 call	 __EH_epilog3
  0002d	c3		 ret	 0
_TEXT	ENDS
;	COMDAT text$x
text$x	SEGMENT
__unwindfunclet$??1InvenBlockItem@ioUserBlockStorage@@QAE@XZ$0:
  00000	8b 4d f0	 mov	 ecx, DWORD PTR _this$[ebp]
  00003	ff 25 00 00 00
	00		 jmp	 DWORD PTR __imp_??1ioHashString@@QAE@XZ
__ehhandler$??1InvenBlockItem@ioUserBlockStorage@@QAE@XZ:
  00009	8b 54 24 08	 mov	 edx, DWORD PTR [esp+8]
  0000d	8d 42 0c	 lea	 eax, DWORD PTR [edx+12]
  00010	8b 4a ec	 mov	 ecx, DWORD PTR [edx-20]
  00013	33 c8		 xor	 ecx, eax
  00015	e8 00 00 00 00	 call	 @__security_check_cookie@4
  0001a	b8 00 00 00 00	 mov	 eax, OFFSET __ehfuncinfo$??1InvenBlockItem@ioUserBlockStorage@@QAE@XZ
  0001f	e9 00 00 00 00	 jmp	 ___CxxFrameHandler3
text$x	ENDS
??1InvenBlockItem@ioUserBlockStorage@@QAE@XZ ENDP	; ioUserBlockStorage::InvenBlockItem::~InvenBlockItem
PUBLIC	??$forward@UInvenBlockItem@ioUserBlockStorage@@@std@@YA$$QAUInvenBlockItem@ioUserBlockStorage@@AAU12@@Z ; std::forward<ioUserBlockStorage::InvenBlockItem>
; Function compile flags: /Ogsp
; File c:\program files (x86)\microsoft visual studio 10.0\vc\include\utility
;	COMDAT ??$forward@UInvenBlockItem@ioUserBlockStorage@@@std@@YA$$QAUInvenBlockItem@ioUserBlockStorage@@AAU12@@Z
_TEXT	SEGMENT
__Arg$ = 8						; size = 4
??$forward@UInvenBlockItem@ioUserBlockStorage@@@std@@YA$$QAUInvenBlockItem@ioUserBlockStorage@@AAU12@@Z PROC ; std::forward<ioUserBlockStorage::InvenBlockItem>, COMDAT

; 78   : 	{	// forward _Arg, given explicitly specified type parameter

  00000	55		 push	 ebp
  00001	8b ec		 mov	 ebp, esp

; 79   : 	return ((_Ty&&)_Arg);

  00003	8b 45 08	 mov	 eax, DWORD PTR __Arg$[ebp]

; 80   : 	}

  00006	5d		 pop	 ebp
  00007	c3		 ret	 0
??$forward@UInvenBlockItem@ioUserBlockStorage@@@std@@YA$$QAUInvenBlockItem@ioUserBlockStorage@@AAU12@@Z ENDP ; std::forward<ioUserBlockStorage::InvenBlockItem>
_TEXT	ENDS
PUBLIC	?_DECSTR@@YAXPADH@Z				; _DECSTR
; Function compile flags: /Ogsp
; File d:\lost saga for developer\youtube\tutorial\source\src\lsclient\stringprotect.h
;	COMDAT ?_DECSTR@@YAXPADH@Z
_TEXT	SEGMENT
_s$ = 8							; size = 4
_l$ = 12						; size = 4
?_DECSTR@@YAXPADH@Z PROC				; _DECSTR, COMDAT

; 40   : __forceinline void _DECSTR(char* s, int l){int i=0,l4=(l-1)/4,*p=(int*)s;s[l-1]=0;for(;i<l4;++i)*(p++)^=0xEAEBECED;for(i=l4*4;i<l-1;++i)s[i]^=0xED-i%4;}

  00000	55		 push	 ebp
  00001	8b ec		 mov	 ebp, esp
  00003	8b 4d 0c	 mov	 ecx, DWORD PTR _l$[ebp]
  00006	56		 push	 esi
  00007	8b 75 08	 mov	 esi, DWORD PTR _s$[ebp]
  0000a	57		 push	 edi
  0000b	8d 79 ff	 lea	 edi, DWORD PTR [ecx-1]
  0000e	8b c7		 mov	 eax, edi
  00010	99		 cdq
  00011	83 e2 03	 and	 edx, 3
  00014	03 c2		 add	 eax, edx
  00016	c1 f8 02	 sar	 eax, 2
  00019	8b d6		 mov	 edx, esi
  0001b	c6 44 0e ff 00	 mov	 BYTE PTR [esi+ecx-1], 0
  00020	85 c0		 test	 eax, eax
  00022	7e 0e		 jle	 SHORT $LN4@DECSTR
  00024	8b c8		 mov	 ecx, eax
$LL6@DECSTR:
  00026	81 32 ed ec eb
	ea		 xor	 DWORD PTR [edx], -353637139 ; eaebecedH
  0002c	83 c2 04	 add	 edx, 4
  0002f	49		 dec	 ecx
  00030	75 f4		 jne	 SHORT $LL6@DECSTR
$LN4@DECSTR:
  00032	c1 e0 02	 shl	 eax, 2
  00035	eb 17		 jmp	 SHORT $LN14@DECSTR
$LL3@DECSTR:
  00037	8b c8		 mov	 ecx, eax
  00039	81 e1 03 00 00
	80		 and	 ecx, -2147483645	; 80000003H
  0003f	79 05		 jns	 SHORT $LN13@DECSTR
  00041	49		 dec	 ecx
  00042	83 c9 fc	 or	 ecx, -4			; fffffffcH
  00045	41		 inc	 ecx
$LN13@DECSTR:
  00046	b2 ed		 mov	 dl, -19			; ffffffedH
  00048	2a d1		 sub	 dl, cl
  0004a	30 14 30	 xor	 BYTE PTR [eax+esi], dl
  0004d	40		 inc	 eax
$LN14@DECSTR:
  0004e	3b c7		 cmp	 eax, edi
  00050	7c e5		 jl	 SHORT $LL3@DECSTR
  00052	5f		 pop	 edi
  00053	5e		 pop	 esi
  00054	5d		 pop	 ebp
  00055	c3		 ret	 0
?_DECSTR@@YAXPADH@Z ENDP				; _DECSTR
_TEXT	ENDS
PUBLIC	?GetFullWidth@ioComplexStringPrinter@@QBEMXZ	; ioComplexStringPrinter::GetFullWidth
; Function compile flags: /Ogsp
; File d:\lost saga for developer\youtube\tutorial\source\src\lsclient\iocomplexstringprinter.h
;	COMDAT ?GetFullWidth@ioComplexStringPrinter@@QBEMXZ
_TEXT	SEGMENT
?GetFullWidth@ioComplexStringPrinter@@QBEMXZ PROC	; ioComplexStringPrinter::GetFullWidth, COMDAT
; _this$ = ecx

; 125  : 	inline float GetFullWidth() const { return m_fFullWidth; }

  00000	d9 41 1c	 fld	 DWORD PTR [ecx+28]
  00003	c3		 ret	 0
?GetFullWidth@ioComplexStringPrinter@@QBEMXZ ENDP	; ioComplexStringPrinter::GetFullWidth
_TEXT	ENDS
PUBLIC	?SetToolTipWndID@ioLSMouse@@QAEXK@Z		; ioLSMouse::SetToolTipWndID
; Function compile flags: /Ogsp
; File d:\lost saga for developer\youtube\tutorial\source\src\lsclient\iolsmouse.h
;	COMDAT ?SetToolTipWndID@ioLSMouse@@QAEXK@Z
_TEXT	SEGMENT
_dwToolTipWndID$ = 8					; size = 4
?SetToolTipWndID@ioLSMouse@@QAEXK@Z PROC		; ioLSMouse::SetToolTipWndID, COMDAT
; _this$ = ecx

; 56   : 	void SetToolTipWndID(DWORD dwToolTipWndID) { m_dwToolTipWndID = dwToolTipWndID; }

  00000	55		 push	 ebp
  00001	8b ec		 mov	 ebp, esp
  00003	8b 45 08	 mov	 eax, DWORD PTR _dwToolTipWndID$[ebp]
  00006	89 41 74	 mov	 DWORD PTR [ecx+116], eax
  00009	5d		 pop	 ebp
  0000a	c2 04 00	 ret	 4
?SetToolTipWndID@ioLSMouse@@QAEXK@Z ENDP		; ioLSMouse::SetToolTipWndID
_TEXT	ENDS
PUBLIC	?GetToolTipWndID@ioLSMouse@@QBEKXZ		; ioLSMouse::GetToolTipWndID
; Function compile flags: /Ogsp
;	COMDAT ?GetToolTipWndID@ioLSMouse@@QBEKXZ
_TEXT	SEGMENT
?GetToolTipWndID@ioLSMouse@@QBEKXZ PROC			; ioLSMouse::GetToolTipWndID, COMDAT
; _this$ = ecx

; 59   : 	DWORD GetToolTipWndID() const { return m_dwToolTipWndID; }

  00000	8b 41 74	 mov	 eax, DWORD PTR [ecx+116]
  00003	c3		 ret	 0
?GetToolTipWndID@ioLSMouse@@QBEKXZ ENDP			; ioLSMouse::GetToolTipWndID
_TEXT	ENDS
PUBLIC	?GetMouse@ioApplication@@QAEPAVioLSMouse@@XZ	; ioApplication::GetMouse
; Function compile flags: /Ogsp
; File d:\lost saga for developer\youtube\tutorial\source\src\lsclient\ioapplication.h
;	COMDAT ?GetMouse@ioApplication@@QAEPAVioLSMouse@@XZ
_TEXT	SEGMENT
?GetMouse@ioApplication@@QAEPAVioLSMouse@@XZ PROC	; ioApplication::GetMouse, COMDAT
; _this$ = ecx

; 796  : 	inline ioLSMouse* GetMouse(){ return &m_Mouse;	}

  00000	8d 81 90 00 00
	00		 lea	 eax, DWORD PTR [ecx+144]
  00006	c3		 ret	 0
?GetMouse@ioApplication@@QAEPAVioLSMouse@@XZ ENDP	; ioApplication::GetMouse
_TEXT	ENDS
PUBLIC	?GetGuildStorage@ioApplication@@QAEPAVioUserBlockStorage@@XZ ; ioApplication::GetGuildStorage
; Function compile flags: /Ogsp
;	COMDAT ?GetGuildStorage@ioApplication@@QAEPAVioUserBlockStorage@@XZ
_TEXT	SEGMENT
?GetGuildStorage@ioApplication@@QAEPAVioUserBlockStorage@@XZ PROC ; ioApplication::GetGuildStorage, COMDAT
; _this$ = ecx

; 1448 : 	ioUserBlockStorage* GetGuildStorage(){ return m_pGuildBlockStorage; }

  00000	8b 81 b0 04 00
	00		 mov	 eax, DWORD PTR [ecx+1200]
  00006	c3		 ret	 0
?GetGuildStorage@ioApplication@@QAEPAVioUserBlockStorage@@XZ ENDP ; ioApplication::GetGuildStorage
_TEXT	ENDS
PUBLIC	?GetHomeStorage@ioApplication@@QAEPAVioUserBlockStorage@@XZ ; ioApplication::GetHomeStorage
; Function compile flags: /Ogsp
;	COMDAT ?GetHomeStorage@ioApplication@@QAEPAVioUserBlockStorage@@XZ
_TEXT	SEGMENT
?GetHomeStorage@ioApplication@@QAEPAVioUserBlockStorage@@XZ PROC ; ioApplication::GetHomeStorage, COMDAT
; _this$ = ecx

; 1449 : 	ioUserBlockStorage* GetHomeStorage(){ return m_pHomeBlockStorage; }

  00000	8b 81 b4 04 00
	00		 mov	 eax, DWORD PTR [ecx+1204]
  00006	c3		 ret	 0
?GetHomeStorage@ioApplication@@QAEPAVioUserBlockStorage@@XZ ENDP ; ioApplication::GetHomeStorage
_TEXT	ENDS
PUBLIC	?GetPlayStage@ioSP2GUIManager@@QAEPAVioPlayStage@@XZ ; ioSP2GUIManager::GetPlayStage
; Function compile flags: /Ogsp
; File d:\lost saga for developer\youtube\tutorial\source\src\lsclient\gui\iosp2guimanager.h
;	COMDAT ?GetPlayStage@ioSP2GUIManager@@QAEPAVioPlayStage@@XZ
_TEXT	SEGMENT
?GetPlayStage@ioSP2GUIManager@@QAEPAVioPlayStage@@XZ PROC ; ioSP2GUIManager::GetPlayStage, COMDAT
; _this$ = ecx

; 259  : 	ioPlayStage* GetPlayStage(){ return m_pPlayStage; }

  00000	8b 81 e8 04 00
	00		 mov	 eax, DWORD PTR [ecx+1256]
  00006	c3		 ret	 0
?GetPlayStage@ioSP2GUIManager@@QAEPAVioPlayStage@@XZ ENDP ; ioSP2GUIManager::GetPlayStage
_TEXT	ENDS
PUBLIC	?size@?$basic_string@DU?$char_traits@D@std@@V?$allocator@D@2@@std@@QBEIXZ ; std::basic_string<char,std::char_traits<char>,std::allocator<char> >::size
; Function compile flags: /Ogsp
; File c:\program files (x86)\microsoft visual studio 10.0\vc\include\xstring
;	COMDAT ?size@?$basic_string@DU?$char_traits@D@std@@V?$allocator@D@2@@std@@QBEIXZ
_TEXT	SEGMENT
?size@?$basic_string@DU?$char_traits@D@std@@V?$allocator@D@2@@std@@QBEIXZ PROC ; std::basic_string<char,std::char_traits<char>,std::allocator<char> >::size, COMDAT
; _this$ = ecx

; 1512 : 		return (this->_Mysize);

  00000	8b 41 10	 mov	 eax, DWORD PTR [ecx+16]

; 1513 : 		}

  00003	c3		 ret	 0
?size@?$basic_string@DU?$char_traits@D@std@@V?$allocator@D@2@@std@@QBEIXZ ENDP ; std::basic_string<char,std::char_traits<char>,std::allocator<char> >::size
_TEXT	ENDS
PUBLIC	?_Myptr@?$basic_string@DU?$char_traits@D@std@@V?$allocator@D@2@@std@@QBEPBDXZ ; std::basic_string<char,std::char_traits<char>,std::allocator<char> >::_Myptr
; Function compile flags: /Ogsp
;	COMDAT ?_Myptr@?$basic_string@DU?$char_traits@D@std@@V?$allocator@D@2@@std@@QBEPBDXZ
_TEXT	SEGMENT
?_Myptr@?$basic_string@DU?$char_traits@D@std@@V?$allocator@D@2@@std@@QBEPBDXZ PROC ; std::basic_string<char,std::char_traits<char>,std::allocator<char> >::_Myptr, COMDAT
; _this$ = ecx

; 2010 : 		return (this->_BUF_SIZE <= this->_Myres ? this->_Bx._Ptr
; 2011 : 			: this->_Bx._Buf);

  00000	83 79 14 10	 cmp	 DWORD PTR [ecx+20], 16	; 00000010H
  00004	72 03		 jb	 SHORT $LN3@Myptr
  00006	8b 01		 mov	 eax, DWORD PTR [ecx]

; 2012 : 		}

  00008	c3		 ret	 0
$LN3@Myptr:

; 2010 : 		return (this->_BUF_SIZE <= this->_Myres ? this->_Bx._Ptr
; 2011 : 			: this->_Bx._Buf);

  00009	8b c1		 mov	 eax, ecx

; 2012 : 		}

  0000b	c3		 ret	 0
?_Myptr@?$basic_string@DU?$char_traits@D@std@@V?$allocator@D@2@@std@@QBEPBDXZ ENDP ; std::basic_string<char,std::char_traits<char>,std::allocator<char> >::_Myptr
_TEXT	ENDS
PUBLIC	??1?$_String_val@DV?$allocator@D@std@@@std@@QAE@XZ ; std::_String_val<char,std::allocator<char> >::~_String_val<char,std::allocator<char> >
; Function compile flags: /Ogsp
;	COMDAT ??1?$_String_val@DV?$allocator@D@std@@@std@@QAE@XZ
_TEXT	SEGMENT
??1?$_String_val@DV?$allocator@D@std@@@std@@QAE@XZ PROC	; std::_String_val<char,std::allocator<char> >::~_String_val<char,std::allocator<char> >, COMDAT
; _this$ = ecx

; 459  : 		}

  00000	c3		 ret	 0
??1?$_String_val@DV?$allocator@D@std@@@std@@QAE@XZ ENDP	; std::_String_val<char,std::allocator<char> >::~_String_val<char,std::allocator<char> >
_TEXT	ENDS
PUBLIC	??0?$allocator@D@std@@QAE@XZ			; std::allocator<char>::allocator<char>
; Function compile flags: /Ogsp
; File c:\program files (x86)\microsoft visual studio 10.0\vc\include\xmemory
;	COMDAT ??0?$allocator@D@std@@QAE@XZ
_TEXT	SEGMENT
??0?$allocator@D@std@@QAE@XZ PROC			; std::allocator<char>::allocator<char>, COMDAT
; _this$ = ecx

; 161  : 	_ALLOCATOR() _THROW0()

  00000	8b c1		 mov	 eax, ecx

; 162  : 		{	// construct default allocator (do nothing)
; 163  : 		}

  00002	c3		 ret	 0
??0?$allocator@D@std@@QAE@XZ ENDP			; std::allocator<char>::allocator<char>
_TEXT	ENDS
PUBLIC	??0?$allocator@D@std@@QAE@ABV01@@Z		; std::allocator<char>::allocator<char>
; Function compile flags: /Ogsp
;	COMDAT ??0?$allocator@D@std@@QAE@ABV01@@Z
_TEXT	SEGMENT
___formal$ = 8						; size = 4
??0?$allocator@D@std@@QAE@ABV01@@Z PROC			; std::allocator<char>::allocator<char>, COMDAT
; _this$ = ecx

; 165  : 	_ALLOCATOR(const _ALLOCATOR<_Ty>&) _THROW0()

  00000	8b c1		 mov	 eax, ecx

; 166  : 		{	// construct by copying (do nothing)
; 167  : 		}

  00002	c2 04 00	 ret	 4
??0?$allocator@D@std@@QAE@ABV01@@Z ENDP			; std::allocator<char>::allocator<char>
_TEXT	ENDS
PUBLIC	??D?$_String_const_iterator@DU?$char_traits@D@std@@V?$allocator@D@2@@std@@QBEABDXZ ; std::_String_const_iterator<char,std::char_traits<char>,std::allocator<char> >::operator*
; Function compile flags: /Ogsp
; File c:\program files (x86)\microsoft visual studio 10.0\vc\include\xstring
;	COMDAT ??D?$_String_const_iterator@DU?$char_traits@D@std@@V?$allocator@D@2@@std@@QBEABDXZ
_TEXT	SEGMENT
??D?$_String_const_iterator@DU?$char_traits@D@std@@V?$allocator@D@2@@std@@QBEABDXZ PROC ; std::_String_const_iterator<char,std::char_traits<char>,std::allocator<char> >::operator*, COMDAT
; _this$ = ecx

; 71   :  #if _ITERATOR_DEBUG_LEVEL == 2
; 72   : 		if (this->_Getcont() == 0
; 73   : 			|| this->_Ptr == 0
; 74   : 			|| this->_Ptr < ((_Mystr *)this->_Getcont())->_Myptr()
; 75   : 			|| ((_Mystr *)this->_Getcont())->_Myptr()
; 76   : 				+ ((_Mystr *)this->_Getcont())->_Mysize <= this->_Ptr)
; 77   : 			{	// report error
; 78   : 			_DEBUG_ERROR("string iterator not dereferencable");
; 79   : 			_SCL_SECURE_OUT_OF_RANGE;
; 80   : 			}
; 81   : 
; 82   :  #elif _ITERATOR_DEBUG_LEVEL == 1
; 83   : 		_SCL_SECURE_VALIDATE(this->_Getcont() != 0 && this->_Ptr != 0);
; 84   : 		_SCL_SECURE_VALIDATE_RANGE(
; 85   : 			((_Mystr *)this->_Getcont())->_Myptr() <= this->_Ptr
; 86   : 			&& this->_Ptr < ((_Mystr *)this->_Getcont())->_Myptr()
; 87   : 				+ ((_Mystr *)this->_Getcont())->_Mysize);
; 88   :  #endif /* _ITERATOR_DEBUG_LEVEL */
; 89   : 
; 90   : 		__analysis_assume(this->_Ptr != 0);
; 91   : 
; 92   : 		return (*this->_Ptr);

  00000	8b 01		 mov	 eax, DWORD PTR [ecx]

; 93   : 		}

  00002	c3		 ret	 0
??D?$_String_const_iterator@DU?$char_traits@D@std@@V?$allocator@D@2@@std@@QBEABDXZ ENDP ; std::_String_const_iterator<char,std::char_traits<char>,std::allocator<char> >::operator*
_TEXT	ENDS
PUBLIC	??E?$_String_const_iterator@DU?$char_traits@D@std@@V?$allocator@D@2@@std@@QAEAAV01@XZ ; std::_String_const_iterator<char,std::char_traits<char>,std::allocator<char> >::operator++
; Function compile flags: /Ogsp
;	COMDAT ??E?$_String_const_iterator@DU?$char_traits@D@std@@V?$allocator@D@2@@std@@QAEAAV01@XZ
_TEXT	SEGMENT
??E?$_String_const_iterator@DU?$char_traits@D@std@@V?$allocator@D@2@@std@@QAEAAV01@XZ PROC ; std::_String_const_iterator<char,std::char_traits<char>,std::allocator<char> >::operator++, COMDAT
; _this$ = ecx

; 101  : 		{	// preincrement

  00000	8b c1		 mov	 eax, ecx

; 102  :  #if _ITERATOR_DEBUG_LEVEL == 2
; 103  : 		if (this->_Getcont() == 0
; 104  : 			|| this->_Ptr == 0
; 105  : 			|| ((_Mystr *)this->_Getcont())->_Myptr()
; 106  : 				+ ((_Mystr *)this->_Getcont())->_Mysize <= this->_Ptr)
; 107  : 			{	// report error
; 108  : 			_DEBUG_ERROR("string iterator not incrementable");
; 109  : 			_SCL_SECURE_OUT_OF_RANGE;
; 110  : 			}
; 111  : 
; 112  :  #elif _ITERATOR_DEBUG_LEVEL == 1
; 113  : 		_SCL_SECURE_VALIDATE(this->_Getcont() != 0 && this->_Ptr != 0);
; 114  : 		_SCL_SECURE_VALIDATE_RANGE(
; 115  : 			this->_Ptr < ((_Mystr *)this->_Getcont())->_Myptr()
; 116  : 				+ ((_Mystr *)this->_Getcont())->_Mysize);
; 117  :  #endif /* _ITERATOR_DEBUG_LEVEL */
; 118  : 
; 119  : 		++this->_Ptr;

  00002	ff 00		 inc	 DWORD PTR [eax]

; 120  : 		return (*this);
; 121  : 		}

  00004	c3		 ret	 0
??E?$_String_const_iterator@DU?$char_traits@D@std@@V?$allocator@D@2@@std@@QAEAAV01@XZ ENDP ; std::_String_const_iterator<char,std::char_traits<char>,std::allocator<char> >::operator++
_TEXT	ENDS
PUBLIC	?_Myptr@?$basic_string@DU?$char_traits@D@std@@V?$allocator@D@2@@std@@QAEPADXZ ; std::basic_string<char,std::char_traits<char>,std::allocator<char> >::_Myptr
; Function compile flags: /Ogsp
;	COMDAT ?_Myptr@?$basic_string@DU?$char_traits@D@std@@V?$allocator@D@2@@std@@QAEPADXZ
_TEXT	SEGMENT
?_Myptr@?$basic_string@DU?$char_traits@D@std@@V?$allocator@D@2@@std@@QAEPADXZ PROC ; std::basic_string<char,std::char_traits<char>,std::allocator<char> >::_Myptr, COMDAT
; _this$ = ecx

; 2004 : 		return (this->_BUF_SIZE <= this->_Myres ? this->_Bx._Ptr
; 2005 : 			: this->_Bx._Buf);

  00000	83 79 14 10	 cmp	 DWORD PTR [ecx+20], 16	; 00000010H
  00004	72 03		 jb	 SHORT $LN3@Myptr@2
  00006	8b 01		 mov	 eax, DWORD PTR [ecx]

; 2006 : 		}

  00008	c3		 ret	 0
$LN3@Myptr@2:

; 2004 : 		return (this->_BUF_SIZE <= this->_Myres ? this->_Bx._Ptr
; 2005 : 			: this->_Bx._Buf);

  00009	8b c1		 mov	 eax, ecx

; 2006 : 		}

  0000b	c3		 ret	 0
?_Myptr@?$basic_string@DU?$char_traits@D@std@@V?$allocator@D@2@@std@@QAEPADXZ ENDP ; std::basic_string<char,std::char_traits<char>,std::allocator<char> >::_Myptr
_TEXT	ENDS
PUBLIC	??_C@_0BA@JFNIOLAK@string?5too?5long?$AA@	; `string'
PUBLIC	?_Xlen@?$basic_string@DU?$char_traits@D@std@@V?$allocator@D@2@@std@@QBEXXZ ; std::basic_string<char,std::char_traits<char>,std::allocator<char> >::_Xlen
;	COMDAT ??_C@_0BA@JFNIOLAK@string?5too?5long?$AA@
CONST	SEGMENT
??_C@_0BA@JFNIOLAK@string?5too?5long?$AA@ DB 'string too long', 00H ; `string'
; Function compile flags: /Ogsp
CONST	ENDS
;	COMDAT ?_Xlen@?$basic_string@DU?$char_traits@D@std@@V?$allocator@D@2@@std@@QBEXXZ
_TEXT	SEGMENT
?_Xlen@?$basic_string@DU?$char_traits@D@std@@V?$allocator@D@2@@std@@QBEXXZ PROC ; std::basic_string<char,std::char_traits<char>,std::allocator<char> >::_Xlen, COMDAT
; _this$ = ecx

; 2016 : 		_Xlength_error("string too long");

  00000	68 00 00 00 00	 push	 OFFSET ??_C@_0BA@JFNIOLAK@string?5too?5long?$AA@
  00005	ff 15 00 00 00
	00		 call	 DWORD PTR __imp_?_Xlength_error@std@@YAXPBD@Z
$LN4@Xlen@2:
$LN3@Xlen@2:
  0000b	cc		 int	 3
?_Xlen@?$basic_string@DU?$char_traits@D@std@@V?$allocator@D@2@@std@@QBEXXZ ENDP ; std::basic_string<char,std::char_traits<char>,std::allocator<char> >::_Xlen
_TEXT	ENDS
PUBLIC	??_C@_0BI@CFPLBAOH@invalid?5string?5position?$AA@ ; `string'
PUBLIC	?_Xran@?$basic_string@DU?$char_traits@D@std@@V?$allocator@D@2@@std@@QBEXXZ ; std::basic_string<char,std::char_traits<char>,std::allocator<char> >::_Xran
EXTRN	__imp_?_Xout_of_range@std@@YAXPBD@Z:PROC
;	COMDAT ??_C@_0BI@CFPLBAOH@invalid?5string?5position?$AA@
CONST	SEGMENT
??_C@_0BI@CFPLBAOH@invalid?5string?5position?$AA@ DB 'invalid string posi'
	DB	'tion', 00H					; `string'
; Function compile flags: /Ogsp
CONST	ENDS
;	COMDAT ?_Xran@?$basic_string@DU?$char_traits@D@std@@V?$allocator@D@2@@std@@QBEXXZ
_TEXT	SEGMENT
?_Xran@?$basic_string@DU?$char_traits@D@std@@V?$allocator@D@2@@std@@QBEXXZ PROC ; std::basic_string<char,std::char_traits<char>,std::allocator<char> >::_Xran, COMDAT
; _this$ = ecx

; 2021 : 		_Xout_of_range("invalid string position");

  00000	68 00 00 00 00	 push	 OFFSET ??_C@_0BI@CFPLBAOH@invalid?5string?5position?$AA@
  00005	ff 15 00 00 00
	00		 call	 DWORD PTR __imp_?_Xout_of_range@std@@YAXPBD@Z
$LN4@Xran:
$LN3@Xran:
  0000b	cc		 int	 3
?_Xran@?$basic_string@DU?$char_traits@D@std@@V?$allocator@D@2@@std@@QBEXXZ ENDP ; std::basic_string<char,std::char_traits<char>,std::allocator<char> >::_Xran
_TEXT	ENDS
PUBLIC	?deallocate@?$allocator@D@std@@QAEXPADI@Z	; std::allocator<char>::deallocate
; Function compile flags: /Ogsp
; File c:\program files (x86)\microsoft visual studio 10.0\vc\include\xmemory
;	COMDAT ?deallocate@?$allocator@D@std@@QAEXPADI@Z
_TEXT	SEGMENT
__Ptr$ = 8						; size = 4
___formal$ = 12						; size = 4
?deallocate@?$allocator@D@std@@QAEXPADI@Z PROC		; std::allocator<char>::deallocate, COMDAT
; _this$ = ecx

; 181  : 		{	// deallocate object at _Ptr, ignore size

  00000	55		 push	 ebp
  00001	8b ec		 mov	 ebp, esp

; 182  : 		::operator delete(_Ptr);

  00003	ff 75 08	 push	 DWORD PTR __Ptr$[ebp]
  00006	e8 00 00 00 00	 call	 ??3@YAXPAX@Z		; operator delete
  0000b	59		 pop	 ecx

; 183  : 		}

  0000c	5d		 pop	 ebp
  0000d	c2 08 00	 ret	 8
?deallocate@?$allocator@D@std@@QAEXPADI@Z ENDP		; std::allocator<char>::deallocate
_TEXT	ENDS
PUBLIC	?_Inside@?$basic_string@DU?$char_traits@D@std@@V?$allocator@D@2@@std@@QAE_NPBD@Z ; std::basic_string<char,std::char_traits<char>,std::allocator<char> >::_Inside
; Function compile flags: /Ogsp
; File c:\program files (x86)\microsoft visual studio 10.0\vc\include\xstring
;	COMDAT ?_Inside@?$basic_string@DU?$char_traits@D@std@@V?$allocator@D@2@@std@@QAE_NPBD@Z
_TEXT	SEGMENT
__Ptr$ = 8						; size = 4
?_Inside@?$basic_string@DU?$char_traits@D@std@@V?$allocator@D@2@@std@@QAE_NPBD@Z PROC ; std::basic_string<char,std::char_traits<char>,std::allocator<char> >::_Inside, COMDAT
; _this$ = ecx

; 1973 : 		{	// test if _Ptr points inside string

  00000	55		 push	 ebp
  00001	8b ec		 mov	 ebp, esp

; 1974 : 		if (_Ptr == 0 || _Ptr < _Myptr() || _Myptr() + this->_Mysize <= _Ptr)

  00003	83 7d 08 00	 cmp	 DWORD PTR __Ptr$[ebp], 0
  00007	74 2c		 je	 SHORT $LN2@Inside@2
  00009	8b 51 14	 mov	 edx, DWORD PTR [ecx+20]
  0000c	83 fa 10	 cmp	 edx, 16			; 00000010H
  0000f	72 04		 jb	 SHORT $LN8@Inside@2
  00011	8b 01		 mov	 eax, DWORD PTR [ecx]
  00013	eb 02		 jmp	 SHORT $LN9@Inside@2
$LN8@Inside@2:
  00015	8b c1		 mov	 eax, ecx
$LN9@Inside@2:
  00017	39 45 08	 cmp	 DWORD PTR __Ptr$[ebp], eax
  0001a	72 19		 jb	 SHORT $LN2@Inside@2
  0001c	83 fa 10	 cmp	 edx, 16			; 00000010H
  0001f	72 04		 jb	 SHORT $LN12@Inside@2
  00021	8b 01		 mov	 eax, DWORD PTR [ecx]
  00023	eb 02		 jmp	 SHORT $LN13@Inside@2
$LN12@Inside@2:
  00025	8b c1		 mov	 eax, ecx
$LN13@Inside@2:
  00027	8b 49 10	 mov	 ecx, DWORD PTR [ecx+16]
  0002a	03 c8		 add	 ecx, eax
  0002c	3b 4d 08	 cmp	 ecx, DWORD PTR __Ptr$[ebp]
  0002f	76 04		 jbe	 SHORT $LN2@Inside@2

; 1976 : 		else
; 1977 : 			return (true);

  00031	b0 01		 mov	 al, 1
  00033	eb 02		 jmp	 SHORT $LN1@Inside@2
$LN2@Inside@2:

; 1975 : 			return (false);	// don't ask

  00035	32 c0		 xor	 al, al
$LN1@Inside@2:

; 1978 : 		}

  00037	5d		 pop	 ebp
  00038	c2 04 00	 ret	 4
?_Inside@?$basic_string@DU?$char_traits@D@std@@V?$allocator@D@2@@std@@QAE_NPBD@Z ENDP ; std::basic_string<char,std::char_traits<char>,std::allocator<char> >::_Inside
_TEXT	ENDS
PUBLIC	??0?$_String_const_iterator@DU?$char_traits@D@std@@V?$allocator@D@2@@std@@QAE@PBDPBU_Container_base0@1@@Z ; std::_String_const_iterator<char,std::char_traits<char>,std::allocator<char> >::_String_const_iterator<char,std::char_traits<char>,std::allocator<char> >
; Function compile flags: /Ogsp
;	COMDAT ??0?$_String_const_iterator@DU?$char_traits@D@std@@V?$allocator@D@2@@std@@QAE@PBDPBU_Container_base0@1@@Z
_TEXT	SEGMENT
__Parg$ = 8						; size = 4
__Pstring$ = 12						; size = 4
??0?$_String_const_iterator@DU?$char_traits@D@std@@V?$allocator@D@2@@std@@QAE@PBDPBU_Container_base0@1@@Z PROC ; std::_String_const_iterator<char,std::char_traits<char>,std::allocator<char> >::_String_const_iterator<char,std::char_traits<char>,std::allocator<char> >, COMDAT
; _this$ = ecx

; 50   : 	_String_const_iterator(pointer _Parg, const _Container_base *_Pstring)

  00000	55		 push	 ebp
  00001	8b ec		 mov	 ebp, esp
  00003	8b c1		 mov	 eax, ecx

; 51   : 		{	// construct with pointer _Parg
; 52   : 		this->_Adopt(_Pstring);
; 53   : 		this->_Ptr = _Parg;

  00005	8b 4d 08	 mov	 ecx, DWORD PTR __Parg$[ebp]
  00008	89 08		 mov	 DWORD PTR [eax], ecx

; 54   : 		}

  0000a	5d		 pop	 ebp
  0000b	c2 08 00	 ret	 8
??0?$_String_const_iterator@DU?$char_traits@D@std@@V?$allocator@D@2@@std@@QAE@PBDPBU_Container_base0@1@@Z ENDP ; std::_String_const_iterator<char,std::char_traits<char>,std::allocator<char> >::_String_const_iterator<char,std::char_traits<char>,std::allocator<char> >
_TEXT	ENDS
PUBLIC	?max_size@?$allocator@D@std@@QBEIXZ		; std::allocator<char>::max_size
; Function compile flags: /Ogsp
; File c:\program files (x86)\microsoft visual studio 10.0\vc\include\xmemory
;	COMDAT ?max_size@?$allocator@D@std@@QBEIXZ
_TEXT	SEGMENT
?max_size@?$allocator@D@std@@QBEIXZ PROC		; std::allocator<char>::max_size, COMDAT
; _this$ = ecx

; 218  : 		_SIZT _Count = (_SIZT)(-1) / sizeof (_Ty);
; 219  : 		return (0 < _Count ? _Count : 1);

  00000	83 c8 ff	 or	 eax, -1

; 220  : 		}

  00003	c3		 ret	 0
?max_size@?$allocator@D@std@@QBEIXZ ENDP		; std::allocator<char>::max_size
_TEXT	ENDS
PUBLIC	?_Compat@?$_String_const_iterator@DU?$char_traits@D@std@@V?$allocator@D@2@@std@@QBEXABV12@@Z ; std::_String_const_iterator<char,std::char_traits<char>,std::allocator<char> >::_Compat
; Function compile flags: /Ogsp
; File c:\program files (x86)\microsoft visual studio 10.0\vc\include\xstring
;	COMDAT ?_Compat@?$_String_const_iterator@DU?$char_traits@D@std@@V?$allocator@D@2@@std@@QBEXABV12@@Z
_TEXT	SEGMENT
___formal$ = 8						; size = 4
?_Compat@?$_String_const_iterator@DU?$char_traits@D@std@@V?$allocator@D@2@@std@@QBEXABV12@@Z PROC ; std::_String_const_iterator<char,std::char_traits<char>,std::allocator<char> >::_Compat, COMDAT
; _this$ = ecx

; 264  : 		}

  00000	c2 04 00	 ret	 4
?_Compat@?$_String_const_iterator@DU?$char_traits@D@std@@V?$allocator@D@2@@std@@QBEXABV12@@Z ENDP ; std::_String_const_iterator<char,std::char_traits<char>,std::allocator<char> >::_Compat
_TEXT	ENDS
PUBLIC	??$_Allocate@D@std@@YAPADIPAD@Z			; std::_Allocate<char>
; Function compile flags: /Ogsp
; File c:\program files (x86)\microsoft visual studio 10.0\vc\include\xmemory
;	COMDAT ??$_Allocate@D@std@@YAPADIPAD@Z
_TEXT	SEGMENT
$T518792 = -12						; size = 12
$T518796 = 8						; size = 4
__Count$ = 8						; size = 4
___formal$ = 12						; size = 4
??$_Allocate@D@std@@YAPADIPAD@Z PROC			; std::_Allocate<char>, COMDAT

; 30   : 	{	// allocate storage for _Count elements of type _Ty

  00000	55		 push	 ebp
  00001	8b ec		 mov	 ebp, esp

; 31   : 	void *_Ptr = 0;

  00003	33 c0		 xor	 eax, eax
  00005	83 ec 0c	 sub	 esp, 12			; 0000000cH

; 32   : 
; 33   : 	if (_Count <= 0)

  00008	39 45 08	 cmp	 DWORD PTR __Count$[ebp], eax

; 34   : 		_Count = 0;
; 35   : 	else if (((_SIZT)(-1) / sizeof (_Ty) < _Count)

  0000b	76 39		 jbe	 SHORT $LN5@Allocate@2

; 36   : 		|| (_Ptr = ::operator new(_Count * sizeof (_Ty))) == 0)

  0000d	83 7d 08 ff	 cmp	 DWORD PTR __Count$[ebp], -1
  00011	77 0d		 ja	 SHORT $LN1@Allocate@2
  00013	ff 75 08	 push	 DWORD PTR __Count$[ebp]
  00016	e8 00 00 00 00	 call	 ??2@YAPAXI@Z		; operator new
  0001b	59		 pop	 ecx
  0001c	85 c0		 test	 eax, eax

; 38   : 
; 39   : 	return ((_Ty _FARQ *)_Ptr);

  0001e	75 26		 jne	 SHORT $LN5@Allocate@2
$LN1@Allocate@2:

; 37   : 		_THROW_NCEE(bad_alloc, 0);

  00020	83 65 08 00	 and	 DWORD PTR $T518796[ebp], 0
  00024	8d 45 08	 lea	 eax, DWORD PTR $T518796[ebp]
  00027	50		 push	 eax
  00028	8d 4d f4	 lea	 ecx, DWORD PTR $T518792[ebp]
  0002b	ff 15 00 00 00
	00		 call	 DWORD PTR __imp_??0exception@std@@QAE@ABQBD@Z
  00031	68 00 00 00 00	 push	 OFFSET __TI2?AVbad_alloc@std@@
  00036	8d 45 f4	 lea	 eax, DWORD PTR $T518792[ebp]
  00039	50		 push	 eax
  0003a	c7 45 f4 00 00
	00 00		 mov	 DWORD PTR $T518792[ebp], OFFSET ??_7bad_alloc@std@@6B@
  00041	e8 00 00 00 00	 call	 __CxxThrowException@8
$LN10@Allocate@2:
$LN5@Allocate@2:

; 40   : 	}

  00046	c9		 leave
  00047	c3		 ret	 0
$LN9@Allocate@2:
??$_Allocate@D@std@@YAPADIPAD@Z ENDP			; std::_Allocate<char>
_TEXT	ENDS
EXTRN	__imp_??0exception@std@@QAE@ABV01@@Z:PROC
; Function compile flags: /Ogsp
;	COMDAT ??0bad_alloc@std@@QAE@ABV01@@Z
_TEXT	SEGMENT
___that$ = 8						; size = 4
??0bad_alloc@std@@QAE@ABV01@@Z PROC			; std::bad_alloc::bad_alloc, COMDAT
; _this$ = ecx
  00000	55		 push	 ebp
  00001	8b ec		 mov	 ebp, esp
  00003	56		 push	 esi
  00004	ff 75 08	 push	 DWORD PTR ___that$[ebp]
  00007	8b f1		 mov	 esi, ecx
  00009	ff 15 00 00 00
	00		 call	 DWORD PTR __imp_??0exception@std@@QAE@ABV01@@Z
  0000f	c7 06 00 00 00
	00		 mov	 DWORD PTR [esi], OFFSET ??_7bad_alloc@std@@6B@
  00015	8b c6		 mov	 eax, esi
  00017	5e		 pop	 esi
  00018	5d		 pop	 ebp
  00019	c2 04 00	 ret	 4
??0bad_alloc@std@@QAE@ABV01@@Z ENDP			; std::bad_alloc::bad_alloc
; Function compile flags: /Ogsp
_TEXT	ENDS
;	COMDAT ??_GioHousingBlockInvenIcon@@UAEPAXI@Z
_TEXT	SEGMENT
___flags$ = 8						; size = 4
??_GioHousingBlockInvenIcon@@UAEPAXI@Z PROC		; ioHousingBlockInvenIcon::`scalar deleting destructor', COMDAT
; _this$ = ecx
  00000	55		 push	 ebp
  00001	8b ec		 mov	 ebp, esp
  00003	56		 push	 esi
  00004	8b f1		 mov	 esi, ecx
  00006	e8 00 00 00 00	 call	 ??1ioHousingBlockInvenIcon@@UAE@XZ ; ioHousingBlockInvenIcon::~ioHousingBlockInvenIcon
  0000b	f6 45 08 01	 test	 BYTE PTR ___flags$[ebp], 1
  0000f	74 07		 je	 SHORT $LN1@scalar@2
  00011	56		 push	 esi
  00012	e8 00 00 00 00	 call	 ??3@YAXPAX@Z		; operator delete
  00017	59		 pop	 ecx
$LN1@scalar@2:
  00018	8b c6		 mov	 eax, esi
  0001a	5e		 pop	 esi
  0001b	5d		 pop	 ebp
  0001c	c2 04 00	 ret	 4
??_GioHousingBlockInvenIcon@@UAEPAXI@Z ENDP		; ioHousingBlockInvenIcon::`scalar deleting destructor'
; Function compile flags: /Ogsp
_TEXT	ENDS
;	COMDAT ??_GioHousingBlockInvenItemButton@@UAEPAXI@Z
_TEXT	SEGMENT
___flags$ = 8						; size = 4
??_GioHousingBlockInvenItemButton@@UAEPAXI@Z PROC	; ioHousingBlockInvenItemButton::`scalar deleting destructor', COMDAT
; _this$ = ecx
  00000	55		 push	 ebp
  00001	8b ec		 mov	 ebp, esp
  00003	56		 push	 esi
  00004	8b f1		 mov	 esi, ecx
  00006	e8 00 00 00 00	 call	 ??1ioHousingBlockInvenItemButton@@UAE@XZ ; ioHousingBlockInvenItemButton::~ioHousingBlockInvenItemButton
  0000b	f6 45 08 01	 test	 BYTE PTR ___flags$[ebp], 1
  0000f	74 07		 je	 SHORT $LN1@scalar@3
  00011	56		 push	 esi
  00012	e8 00 00 00 00	 call	 ??3@YAXPAX@Z		; operator delete
  00017	59		 pop	 ecx
$LN1@scalar@3:
  00018	8b c6		 mov	 eax, esi
  0001a	5e		 pop	 esi
  0001b	5d		 pop	 ebp
  0001c	c2 04 00	 ret	 4
??_GioHousingBlockInvenItemButton@@UAEPAXI@Z ENDP	; ioHousingBlockInvenItemButton::`scalar deleting destructor'
; Function compile flags: /Ogsp
_TEXT	ENDS
;	COMDAT ??_GioHousingBlockInvenWnd@@UAEPAXI@Z
_TEXT	SEGMENT
___flags$ = 8						; size = 4
??_GioHousingBlockInvenWnd@@UAEPAXI@Z PROC		; ioHousingBlockInvenWnd::`scalar deleting destructor', COMDAT
; _this$ = ecx
  00000	55		 push	 ebp
  00001	8b ec		 mov	 ebp, esp
  00003	56		 push	 esi
  00004	8b f1		 mov	 esi, ecx
  00006	e8 00 00 00 00	 call	 ??1ioHousingBlockInvenWnd@@UAE@XZ ; ioHousingBlockInvenWnd::~ioHousingBlockInvenWnd
  0000b	f6 45 08 01	 test	 BYTE PTR ___flags$[ebp], 1
  0000f	74 07		 je	 SHORT $LN1@scalar@4
  00011	56		 push	 esi
  00012	e8 00 00 00 00	 call	 ??3@YAXPAX@Z		; operator delete
  00017	59		 pop	 ecx
$LN1@scalar@4:
  00018	8b c6		 mov	 eax, esi
  0001a	5e		 pop	 esi
  0001b	5d		 pop	 ebp
  0001c	c2 04 00	 ret	 4
??_GioHousingBlockInvenWnd@@UAEPAXI@Z ENDP		; ioHousingBlockInvenWnd::`scalar deleting destructor'
_TEXT	ENDS
PUBLIC	?GetStorage@ioHousingBlockInvenWnd@@QAEPAVioUserBlockStorage@@XZ ; ioHousingBlockInvenWnd::GetStorage
; Function compile flags: /Ogsp
; File d:\lost saga for developer\youtube\tutorial\source\src\lsclient\gui\iohousingblockinvenwnd.cpp
;	COMDAT ?GetStorage@ioHousingBlockInvenWnd@@QAEPAVioUserBlockStorage@@XZ
_TEXT	SEGMENT
?GetStorage@ioHousingBlockInvenWnd@@QAEPAVioUserBlockStorage@@XZ PROC ; ioHousingBlockInvenWnd::GetStorage, COMDAT
; _this$ = ecx

; 274  : 	ioUserBlockStorage* pStorage = NULL;
; 275  : 	switch( m_eBlockModeType )

  00000	8b 89 68 01 00
	00		 mov	 ecx, DWORD PTR [ecx+360]
  00006	33 c0		 xor	 eax, eax
  00008	2b c8		 sub	 ecx, eax
  0000a	74 0f		 je	 SHORT $LN2@GetStorage
  0000c	49		 dec	 ecx
  0000d	75 17		 jne	 SHORT $LN3@GetStorage

; 279  : 		break;
; 280  : 	case BMT_PERSONAL:
; 281  : 		pStorage = g_App.GetHomeStorage();

  0000f	e8 00 00 00 00	 call	 ?GetSingleton@ioApplication@@SAAAV1@XZ ; ioApplication::GetSingleton
  00014	8b 80 b4 04 00
	00		 mov	 eax, DWORD PTR [eax+1204]

; 282  : 		break;
; 283  : 	}
; 284  : 
; 285  : 	return pStorage;
; 286  : }

  0001a	c3		 ret	 0
$LN2@GetStorage:

; 276  : 	{
; 277  : 	case BMT_GUILD:
; 278  : 		pStorage = g_App.GetGuildStorage();

  0001b	e8 00 00 00 00	 call	 ?GetSingleton@ioApplication@@SAAAV1@XZ ; ioApplication::GetSingleton
  00020	8b 80 b0 04 00
	00		 mov	 eax, DWORD PTR [eax+1200]
$LN3@GetStorage:

; 282  : 		break;
; 283  : 	}
; 284  : 
; 285  : 	return pStorage;
; 286  : }

  00026	c3		 ret	 0
?GetStorage@ioHousingBlockInvenWnd@@QAEPAVioUserBlockStorage@@XZ ENDP ; ioHousingBlockInvenWnd::GetStorage
_TEXT	ENDS
EXTRN	__imp_?HideWnd@ioGUIManager@@QAEXK_N@Z:PROC
EXTRN	?GetSingleton@ioSP2GUIManager@@SAAAV1@XZ:PROC	; ioSP2GUIManager::GetSingleton
; Function compile flags: /Ogsp
;	COMDAT ?iwm_hide@ioHousingBlockInvenWnd@@UAEXXZ
_TEXT	SEGMENT
?iwm_hide@ioHousingBlockInvenWnd@@UAEXXZ PROC		; ioHousingBlockInvenWnd::iwm_hide, COMDAT
; _this$ = ecx

; 320  : {

  00000	56		 push	 esi

; 321  : 	g_GUIMgr.HideWnd( HOUSING_BLOCK_INVEN_TOOLTIP );

  00001	6a 00		 push	 0
  00003	68 8b 18 00 00	 push	 6283			; 0000188bH
  00008	8b f1		 mov	 esi, ecx
  0000a	e8 00 00 00 00	 call	 ?GetSingleton@ioSP2GUIManager@@SAAAV1@XZ ; ioSP2GUIManager::GetSingleton
  0000f	8b c8		 mov	 ecx, eax
  00011	ff 15 00 00 00
	00		 call	 DWORD PTR __imp_?HideWnd@ioGUIManager@@QAEXK_N@Z

; 322  : 	DisableEditFocus();

  00017	8b ce		 mov	 ecx, esi
  00019	5e		 pop	 esi
  0001a	e9 00 00 00 00	 jmp	 ?DisableEditFocus@ioHousingBlockInvenWnd@@QAEXXZ ; ioHousingBlockInvenWnd::DisableEditFocus
?iwm_hide@ioHousingBlockInvenWnd@@UAEXXZ ENDP		; ioHousingBlockInvenWnd::iwm_hide
_TEXT	ENDS
PUBLIC	?ProcessToolTip@ioHousingBlockInvenWnd@@QAEXXZ	; ioHousingBlockInvenWnd::ProcessToolTip
; Function compile flags: /Ogsp
;	COMDAT ?ProcessToolTip@ioHousingBlockInvenWnd@@QAEXXZ
_TEXT	SEGMENT
_this$ = -8						; size = 4
_i$516570 = -4						; size = 4
?ProcessToolTip@ioHousingBlockInvenWnd@@QAEXXZ PROC	; ioHousingBlockInvenWnd::ProcessToolTip, COMDAT
; _this$ = ecx

; 468  : {

  00000	55		 push	 ebp
  00001	8b ec		 mov	 ebp, esp
  00003	51		 push	 ecx
  00004	51		 push	 ecx
  00005	56		 push	 esi
  00006	89 4d f8	 mov	 DWORD PTR _this$[ebp], ecx

; 469  : 	ioLSMouse *pMouse = g_App.GetMouse();

  00009	e8 00 00 00 00	 call	 ?GetSingleton@ioApplication@@SAAAV1@XZ ; ioApplication::GetSingleton
  0000e	8b f0		 mov	 esi, eax
  00010	81 c6 90 00 00
	00		 add	 esi, 144		; 00000090H

; 470  : 	if( pMouse )

  00016	74 54		 je	 SHORT $LN2@ProcessToo

; 471  : 	{
; 472  : 		pMouse->SetToolTipWndID( 0 );

  00018	83 66 74 00	 and	 DWORD PTR [esi+116], 0

; 473  : 
; 474  : 		for(int i = ID_ITEM101; i < ID_ITEM_MAX ; ++i )

  0001c	c7 45 fc 65 00
	00 00		 mov	 DWORD PTR _i$516570[ebp], 101 ; 00000065H
  00023	57		 push	 edi
$LL18@ProcessToo:

; 475  : 		{
; 476  : 			ioHousingBlockInvenItemButton *pButton = dynamic_cast<ioHousingBlockInvenItemButton*> ( FindChildWnd( i ) );

  00024	8b 4d f8	 mov	 ecx, DWORD PTR _this$[ebp]
  00027	6a 00		 push	 0
  00029	68 00 00 00 00	 push	 OFFSET ??_R0?AVioHousingBlockInvenItemButton@@@8
  0002e	68 00 00 00 00	 push	 OFFSET ??_R0?AVioWnd@@@8
  00033	6a 00		 push	 0
  00035	ff 75 fc	 push	 DWORD PTR _i$516570[ebp]
  00038	ff 15 00 00 00
	00		 call	 DWORD PTR __imp_?FindChildWnd@ioWnd@@QAEPAV1@K@Z
  0003e	50		 push	 eax
  0003f	e8 00 00 00 00	 call	 ___RTDynamicCast
  00044	8b f8		 mov	 edi, eax
  00046	83 c4 14	 add	 esp, 20			; 00000014H

; 477  : 			if( pButton && pButton->IsOver( pMouse ) )

  00049	85 ff		 test	 edi, edi
  0004b	74 15		 je	 SHORT $LN3@ProcessToo
  0004d	56		 push	 esi
  0004e	8b cf		 mov	 ecx, edi
  00050	e8 00 00 00 00	 call	 ?IsOver@ioHousingBlockInvenItemButton@@QAE_NPAVioLSMouse@@@Z ; ioHousingBlockInvenItemButton::IsOver
  00055	84 c0		 test	 al, al
  00057	74 09		 je	 SHORT $LN3@ProcessToo

; 478  : 			{
; 479  : 				pMouse->SetToolTipWndID( pButton->GetCode() );

  00059	8b 87 1c 02 00
	00		 mov	 eax, DWORD PTR [edi+540]
  0005f	89 46 74	 mov	 DWORD PTR [esi+116], eax
$LN3@ProcessToo:

; 473  : 
; 474  : 		for(int i = ID_ITEM101; i < ID_ITEM_MAX ; ++i )

  00062	ff 45 fc	 inc	 DWORD PTR _i$516570[ebp]
  00065	83 7d fc 7a	 cmp	 DWORD PTR _i$516570[ebp], 122 ; 0000007aH
  00069	7c b9		 jl	 SHORT $LL18@ProcessToo
  0006b	5f		 pop	 edi
$LN2@ProcessToo:
  0006c	5e		 pop	 esi

; 480  : 			}
; 481  : 		}
; 482  : 	}
; 483  : }

  0006d	c9		 leave
  0006e	c3		 ret	 0
?ProcessToolTip@ioHousingBlockInvenWnd@@QAEXXZ ENDP	; ioHousingBlockInvenWnd::ProcessToolTip
_TEXT	ENDS
PUBLIC	?GetMaxPage@ioHousingBlockInvenWnd@@QAEHXZ	; ioHousingBlockInvenWnd::GetMaxPage
EXTRN	?GetInvenItemCount@ioUserBlockStorage@@QAEHXZ:PROC ; ioUserBlockStorage::GetInvenItemCount
; Function compile flags: /Ogsp
;	COMDAT ?GetMaxPage@ioHousingBlockInvenWnd@@QAEHXZ
_TEXT	SEGMENT
?GetMaxPage@ioHousingBlockInvenWnd@@QAEHXZ PROC		; ioHousingBlockInvenWnd::GetMaxPage, COMDAT
; _this$ = ecx

; 501  : 	ioUserBlockStorage* pStorage = GetStorage();	

  00000	e8 00 00 00 00	 call	 ?GetStorage@ioHousingBlockInvenWnd@@QAEPAVioUserBlockStorage@@XZ ; ioHousingBlockInvenWnd::GetStorage

; 502  : 	if( pStorage == NULL )

  00005	85 c0		 test	 eax, eax
  00007	75 01		 jne	 SHORT $LN1@GetMaxPage

; 506  : }

  00009	c3		 ret	 0
$LN1@GetMaxPage:

; 503  : 		return 0;
; 504  : 
; 505  : 	return pStorage->GetInvenItemCount() / PAGE_ELEMENT_COUNT;

  0000a	8b c8		 mov	 ecx, eax
  0000c	e8 00 00 00 00	 call	 ?GetInvenItemCount@ioUserBlockStorage@@QAEHXZ ; ioUserBlockStorage::GetInvenItemCount
  00011	6a 15		 push	 21			; 00000015H
  00013	99		 cdq
  00014	59		 pop	 ecx
  00015	f7 f9		 idiv	 ecx

; 506  : }

  00017	c3		 ret	 0
?GetMaxPage@ioHousingBlockInvenWnd@@QAEHXZ ENDP		; ioHousingBlockInvenWnd::GetMaxPage
; Function compile flags: /Ogsp
_TEXT	ENDS
;	COMDAT ??_GioHousingBlockInvenToolTip@@UAEPAXI@Z
_TEXT	SEGMENT
___flags$ = 8						; size = 4
??_GioHousingBlockInvenToolTip@@UAEPAXI@Z PROC		; ioHousingBlockInvenToolTip::`scalar deleting destructor', COMDAT
; _this$ = ecx
  00000	55		 push	 ebp
  00001	8b ec		 mov	 ebp, esp
  00003	56		 push	 esi
  00004	8b f1		 mov	 esi, ecx
  00006	e8 00 00 00 00	 call	 ??1ioHousingBlockInvenToolTip@@UAE@XZ ; ioHousingBlockInvenToolTip::~ioHousingBlockInvenToolTip
  0000b	f6 45 08 01	 test	 BYTE PTR ___flags$[ebp], 1
  0000f	74 07		 je	 SHORT $LN1@scalar@5
  00011	56		 push	 esi
  00012	e8 00 00 00 00	 call	 ??3@YAXPAX@Z		; operator delete
  00017	59		 pop	 ecx
$LN1@scalar@5:
  00018	8b c6		 mov	 eax, esi
  0001a	5e		 pop	 esi
  0001b	5d		 pop	 ebp
  0001c	c2 04 00	 ret	 4
??_GioHousingBlockInvenToolTip@@UAEPAXI@Z ENDP		; ioHousingBlockInvenToolTip::`scalar deleting destructor'
_TEXT	ENDS
PUBLIC	__real@434c0000
PUBLIC	__real@4069800000000000
PUBLIC	?UpdateWndSize@ioHousingBlockInvenToolTip@@QAEXXZ ; ioHousingBlockInvenToolTip::UpdateWndSize
EXTRN	??1ioComplexStringPrinter@@QAE@XZ:PROC		; ioComplexStringPrinter::~ioComplexStringPrinter
EXTRN	?ClearList@ioComplexStringPrinter@@QAEXXZ:PROC	; ioComplexStringPrinter::ClearList
EXTRN	?CopyFullText@ioComplexStringPrinter@@QBEXAAV1@@Z:PROC ; ioComplexStringPrinter::CopyFullText
EXTRN	?SplitFullText@ioComplexStringPrinter@@QAEXAAV1@0M@Z:PROC ; ioComplexStringPrinter::SplitFullText
EXTRN	??0ioComplexStringPrinter@@QAE@XZ:PROC		; ioComplexStringPrinter::ioComplexStringPrinter
EXTRN	?GetLocal@ioLocalManager@@QAEPAVioLocalParent@@W4LocalType@ioLocalManagerParent@@@Z:PROC ; ioLocalManager::GetLocal
EXTRN	?GetSingleton@ioLocalManager@@SAAAV1@XZ:PROC	; ioLocalManager::GetSingleton
EXTRN	__imp_?GetLocalType@ioLocalManagerParent@@SA?AW4LocalType@1@XZ:PROC
EXTRN	?GetSingletonPtr@ioEtcInvenManualMgr@@SAPAV1@XZ:PROC ; ioEtcInvenManualMgr::GetSingletonPtr
;	COMDAT __real@434c0000
; File d:\lost saga for developer\youtube\tutorial\source\src\lsclient\iocomplexstringprinter.h
CONST	SEGMENT
__real@434c0000 DD 0434c0000r			; 204
CONST	ENDS
;	COMDAT __real@4069800000000000
CONST	SEGMENT
__real@4069800000000000 DQ 04069800000000000r	; 204
CONST	ENDS
;	COMDAT xdata$x
xdata$x	SEGMENT
__unwindtable$?UpdateWndSize@ioHousingBlockInvenToolTip@@QAEXXZ DD 0ffffffffH
	DD	FLAT:__unwindfunclet$?UpdateWndSize@ioHousingBlockInvenToolTip@@QAEXXZ$0
	DD	00H
	DD	FLAT:__unwindfunclet$?UpdateWndSize@ioHousingBlockInvenToolTip@@QAEXXZ$1
	DD	01H
	DD	FLAT:__unwindfunclet$?UpdateWndSize@ioHousingBlockInvenToolTip@@QAEXXZ$2
__ehfuncinfo$?UpdateWndSize@ioHousingBlockInvenToolTip@@QAEXXZ DD 019930522H
	DD	03H
	DD	FLAT:__unwindtable$?UpdateWndSize@ioHousingBlockInvenToolTip@@QAEXXZ
	DD	2 DUP(00H)
	DD	2 DUP(00H)
	DD	00H
	DD	01H
; Function compile flags: /Ogsp
; File d:\lost saga for developer\youtube\tutorial\source\src\lsclient\gui\iohousingblockinvenwnd.cpp
xdata$x	ENDS
;	COMDAT ?UpdateWndSize@ioHousingBlockInvenToolTip@@QAEXXZ
_TEXT	SEGMENT
_kPrinterA$516748 = -124				; size = 32
_kPrinterB$516749 = -92					; size = 32
_kPrinter$516732 = -60					; size = 32
_iMaxLine$516729 = -28					; size = 4
_i$516741 = -24						; size = 4
_iLine$516735 = -20					; size = 4
_iTotalLineGap$516733 = -16				; size = 4
__$EHRec$ = -12						; size = 12
?UpdateWndSize@ioHousingBlockInvenToolTip@@QAEXXZ PROC	; ioHousingBlockInvenToolTip::UpdateWndSize, COMDAT
; _this$ = ecx

; 753  : {

  00000	6a 70		 push	 112			; 00000070H
  00002	b8 00 00 00 00	 mov	 eax, __ehhandler$?UpdateWndSize@ioHousingBlockInvenToolTip@@QAEXXZ
  00007	e8 00 00 00 00	 call	 __EH_prolog3
  0000c	8b f9		 mov	 edi, ecx

; 754  : 	ManualMgr *pManual = ioEtcInvenManualMgr::GetSingletonPtr();

  0000e	e8 00 00 00 00	 call	 ?GetSingletonPtr@ioEtcInvenManualMgr@@SAPAV1@XZ ; ioEtcInvenManualMgr::GetSingletonPtr
  00013	8b f0		 mov	 esi, eax

; 755  : 	if( !pManual )

  00015	85 f6		 test	 esi, esi
  00017	0f 84 b7 01 00
	00		 je	 $LN14@UpdateWndS

; 756  : 		return;
; 757  : 
; 758  : 	bool bAutoLine = false;
; 759  : 	ioLocalParent *pLocal = g_LocalMgr.GetLocal( ioLocalManager::GetLocalType() );

  0001d	ff 15 00 00 00
	00		 call	 DWORD PTR __imp_?GetLocalType@ioLocalManagerParent@@SA?AW4LocalType@1@XZ
  00023	50		 push	 eax
  00024	e8 00 00 00 00	 call	 ?GetSingleton@ioLocalManager@@SAAAV1@XZ ; ioLocalManager::GetSingleton
  00029	8b c8		 mov	 ecx, eax
  0002b	e8 00 00 00 00	 call	 ?GetLocal@ioLocalManager@@QAEPAVioLocalParent@@W4LocalType@ioLocalManagerParent@@@Z ; ioLocalManager::GetLocal

; 760  : 	if( pLocal && pLocal->IsTooltipAutoLine() )

  00030	85 c0		 test	 eax, eax
  00032	74 0e		 je	 SHORT $LN31@UpdateWndS
  00034	8b 10		 mov	 edx, DWORD PTR [eax]
  00036	8b c8		 mov	 ecx, eax
  00038	ff 92 b0 00 00
	00		 call	 DWORD PTR [edx+176]
  0003e	84 c0		 test	 al, al
  00040	75 30		 jne	 SHORT $LN16@UpdateWndS
$LN31@UpdateWndS:

; 761  : 		bAutoLine = true;
; 762  : 
; 763  : 	if( !bAutoLine )
; 764  : 	{
; 765  : 		int iMaxLine = pManual->GetMaxLine( m_nManualIndex );

  00042	ff b7 80 01 00
	00		 push	 DWORD PTR [edi+384]
  00048	8b 06		 mov	 eax, DWORD PTR [esi]
  0004a	8b ce		 mov	 ecx, esi
  0004c	ff 50 08	 call	 DWORD PTR [eax+8]

; 766  : 
; 767  : 		 // 1  
; 768  : 		iMaxLine--;

  0004f	48		 dec	 eax

; 769  : 		if( iMaxLine <= 0 )

  00050	85 c0		 test	 eax, eax
  00052	7f 02		 jg	 SHORT $LN15@UpdateWndS

; 770  : 			iMaxLine = 0;

  00054	33 c0		 xor	 eax, eax
$LN15@UpdateWndS:

; 771  : 
; 772  : 		SetSize( GetWidth(), 123 + 18 * iMaxLine );

  00056	8b 37		 mov	 esi, DWORD PTR [edi]
  00058	6b c0 12	 imul	 eax, 18			; 00000012H
  0005b	83 c0 7b	 add	 eax, 123		; 0000007bH
  0005e	50		 push	 eax
  0005f	8b cf		 mov	 ecx, edi
  00061	ff 15 00 00 00
	00		 call	 DWORD PTR __imp_?GetWidth@ioWnd@@QBEHXZ
  00067	50		 push	 eax
  00068	8b cf		 mov	 ecx, edi
  0006a	ff 56 2c	 call	 DWORD PTR [esi+44]

; 773  : 	}
; 774  : 	else

  0006d	e9 62 01 00 00	 jmp	 $LN14@UpdateWndS
$LN16@UpdateWndS:

; 775  : 	{
; 776  : 		int iMaxLine = pManual->GetMaxLine( m_nManualIndex );

  00072	ff b7 80 01 00
	00		 push	 DWORD PTR [edi+384]
  00078	8b 06		 mov	 eax, DWORD PTR [esi]
  0007a	8b ce		 mov	 ecx, esi
  0007c	ff 50 08	 call	 DWORD PTR [eax+8]

; 777  : 
; 778  : 		// 1  
; 779  : 		int iNewLine = iMaxLine - 1; 

  0007f	8d 58 ff	 lea	 ebx, DWORD PTR [eax-1]
  00082	89 45 e4	 mov	 DWORD PTR _iMaxLine$516729[ebp], eax

; 780  : 		if( iNewLine <= 0 )

  00085	85 db		 test	 ebx, ebx
  00087	7f 02		 jg	 SHORT $LN13@UpdateWndS

; 781  : 			iNewLine = 0;

  00089	33 db		 xor	 ebx, ebx
$LN13@UpdateWndS:

; 782  : 
; 783  : 		ioComplexStringPrinter kPrinter;

  0008b	8d 4d c4	 lea	 ecx, DWORD PTR _kPrinter$516732[ebp]
  0008e	e8 00 00 00 00	 call	 ??0ioComplexStringPrinter@@QAE@XZ ; ioComplexStringPrinter::ioComplexStringPrinter
  00093	83 65 fc 00	 and	 DWORD PTR __$EHRec$[ebp+8], 0

; 784  : 		int iTotalLineGap = 18;

  00097	c7 45 f0 12 00
	00 00		 mov	 DWORD PTR _iTotalLineGap$516733[ebp], 18 ; 00000012H

; 785  : 		if( iNewLine > 0 )

  0009e	85 db		 test	 ebx, ebx
  000a0	0f 8e 0b 01 00
	00		 jle	 $LN9@UpdateWndS

; 786  : 		{
; 787  : 			for(int iLine = 1; iLine < iMaxLine; iLine++)

  000a6	33 c0		 xor	 eax, eax
  000a8	40		 inc	 eax
  000a9	89 45 ec	 mov	 DWORD PTR _iLine$516735[ebp], eax
  000ac	39 45 e4	 cmp	 DWORD PTR _iMaxLine$516729[ebp], eax
  000af	0f 8e fc 00 00
	00		 jle	 $LN9@UpdateWndS
$LN11@UpdateWndS:

; 788  : 			{
; 789  : 				int iGap = pManual->GetSpaceLine( m_nManualIndex, iLine );				

  000b5	ff 75 ec	 push	 DWORD PTR _iLine$516735[ebp]
  000b8	8b 06		 mov	 eax, DWORD PTR [esi]
  000ba	ff b7 80 01 00
	00		 push	 DWORD PTR [edi+384]
  000c0	8b ce		 mov	 ecx, esi
  000c2	ff 50 0c	 call	 DWORD PTR [eax+12]

; 790  : 				bool bFirstGap = true;
; 791  : 				for (int i = 0; i < 20 ; i++)

  000c5	83 65 e8 00	 and	 DWORD PTR _i$516741[ebp], 0
  000c9	b3 01		 mov	 bl, 1
$LL8@UpdateWndS:

; 792  : 				{
; 793  : 					if( kPrinter.GetFullWidth() < DESC_WIDTH )

  000cb	f3 0f 10 45 e0	 movss	 xmm0, DWORD PTR _kPrinter$516732[ebp+28]
  000d0	f2 0f 10 0d 00
	00 00 00	 movsd	 xmm1, QWORD PTR __real@4069800000000000
  000d8	0f 5a c0	 cvtps2pd xmm0, xmm0
  000db	66 0f 2f c8	 comisd	 xmm1, xmm0
  000df	0f 87 98 00 00
	00		 ja	 $LN28@UpdateWndS

; 803  : 						break;
; 804  : 					}
; 805  : 
; 806  : 					ioComplexStringPrinter kPrinterA, kPrinterB;

  000e5	8d 4d 84	 lea	 ecx, DWORD PTR _kPrinterA$516748[ebp]
  000e8	e8 00 00 00 00	 call	 ??0ioComplexStringPrinter@@QAE@XZ ; ioComplexStringPrinter::ioComplexStringPrinter
  000ed	8d 4d a4	 lea	 ecx, DWORD PTR _kPrinterB$516749[ebp]
  000f0	c6 45 fc 01	 mov	 BYTE PTR __$EHRec$[ebp+8], 1
  000f4	e8 00 00 00 00	 call	 ??0ioComplexStringPrinter@@QAE@XZ ; ioComplexStringPrinter::ioComplexStringPrinter

; 807  : 					kPrinter.SplitFullText( kPrinterA, kPrinterB, DESC_WIDTH );

  000f9	f3 0f 10 05 00
	00 00 00	 movss	 xmm0, DWORD PTR __real@434c0000
  00101	51		 push	 ecx
  00102	f3 0f 11 04 24	 movss	 DWORD PTR [esp], xmm0
  00107	8d 45 a4	 lea	 eax, DWORD PTR _kPrinterB$516749[ebp]
  0010a	50		 push	 eax
  0010b	8d 45 84	 lea	 eax, DWORD PTR _kPrinterA$516748[ebp]
  0010e	50		 push	 eax
  0010f	8d 4d c4	 lea	 ecx, DWORD PTR _kPrinter$516732[ebp]
  00112	c6 45 fc 02	 mov	 BYTE PTR __$EHRec$[ebp+8], 2
  00116	e8 00 00 00 00	 call	 ?SplitFullText@ioComplexStringPrinter@@QAEXAAV1@0M@Z ; ioComplexStringPrinter::SplitFullText

; 808  : 					if( bFirstGap )

  0011b	84 db		 test	 bl, bl
  0011d	74 17		 je	 SHORT $LN2@UpdateWndS

; 809  : 					{
; 810  : 						iTotalLineGap += pManual->GetSpaceLine( m_nManualIndex, iLine);

  0011f	ff 75 ec	 push	 DWORD PTR _iLine$516735[ebp]
  00122	8b 06		 mov	 eax, DWORD PTR [esi]
  00124	ff b7 80 01 00
	00		 push	 DWORD PTR [edi+384]
  0012a	8b ce		 mov	 ecx, esi
  0012c	ff 50 0c	 call	 DWORD PTR [eax+12]
  0012f	01 45 f0	 add	 DWORD PTR _iTotalLineGap$516733[ebp], eax

; 811  : 						bFirstGap = false;

  00132	32 db		 xor	 bl, bl

; 812  : 					}
; 813  : 					else

  00134	eb 04		 jmp	 SHORT $LN1@UpdateWndS
$LN2@UpdateWndS:

; 814  : 					{
; 815  : 						iTotalLineGap += 18;

  00136	83 45 f0 12	 add	 DWORD PTR _iTotalLineGap$516733[ebp], 18 ; 00000012H
$LN1@UpdateWndS:

; 816  : 					}
; 817  : 
; 818  : 					kPrinterB.CopyFullText( kPrinter );

  0013a	8d 45 c4	 lea	 eax, DWORD PTR _kPrinter$516732[ebp]
  0013d	50		 push	 eax
  0013e	8d 4d a4	 lea	 ecx, DWORD PTR _kPrinterB$516749[ebp]
  00141	e8 00 00 00 00	 call	 ?CopyFullText@ioComplexStringPrinter@@QBEXAAV1@@Z ; ioComplexStringPrinter::CopyFullText

; 819  : 					kPrinterA.ClearList();

  00146	8d 4d 84	 lea	 ecx, DWORD PTR _kPrinterA$516748[ebp]
  00149	e8 00 00 00 00	 call	 ?ClearList@ioComplexStringPrinter@@QAEXXZ ; ioComplexStringPrinter::ClearList

; 820  : 					kPrinterB.ClearList();

  0014e	8d 4d a4	 lea	 ecx, DWORD PTR _kPrinterB$516749[ebp]
  00151	e8 00 00 00 00	 call	 ?ClearList@ioComplexStringPrinter@@QAEXXZ ; ioComplexStringPrinter::ClearList

; 821  : 				}

  00156	8d 4d a4	 lea	 ecx, DWORD PTR _kPrinterB$516749[ebp]
  00159	c6 45 fc 01	 mov	 BYTE PTR __$EHRec$[ebp+8], 1
  0015d	e8 00 00 00 00	 call	 ??1ioComplexStringPrinter@@QAE@XZ ; ioComplexStringPrinter::~ioComplexStringPrinter
  00162	8d 4d 84	 lea	 ecx, DWORD PTR _kPrinterA$516748[ebp]
  00165	c6 45 fc 00	 mov	 BYTE PTR __$EHRec$[ebp+8], 0
  00169	e8 00 00 00 00	 call	 ??1ioComplexStringPrinter@@QAE@XZ ; ioComplexStringPrinter::~ioComplexStringPrinter
  0016e	ff 45 e8	 inc	 DWORD PTR _i$516741[ebp]
  00171	83 7d e8 14	 cmp	 DWORD PTR _i$516741[ebp], 20 ; 00000014H
  00175	0f 8c 50 ff ff
	ff		 jl	 $LL8@UpdateWndS

; 792  : 				{
; 793  : 					if( kPrinter.GetFullWidth() < DESC_WIDTH )

  0017b	eb 25		 jmp	 SHORT $LN10@UpdateWndS
$LN28@UpdateWndS:

; 794  : 					{
; 795  : 						if( bFirstGap )

  0017d	84 db		 test	 bl, bl
  0017f	74 15		 je	 SHORT $LN4@UpdateWndS

; 796  : 						{
; 797  : 							iTotalLineGap += pManual->GetSpaceLine( m_nManualIndex, iLine);

  00181	ff 75 ec	 push	 DWORD PTR _iLine$516735[ebp]
  00184	8b 06		 mov	 eax, DWORD PTR [esi]
  00186	ff b7 80 01 00
	00		 push	 DWORD PTR [edi+384]
  0018c	8b ce		 mov	 ecx, esi
  0018e	ff 50 0c	 call	 DWORD PTR [eax+12]
  00191	01 45 f0	 add	 DWORD PTR _iTotalLineGap$516733[ebp], eax

; 798  : 							bFirstGap = false;
; 799  : 						}
; 800  : 						else

  00194	eb 04		 jmp	 SHORT $LN3@UpdateWndS
$LN4@UpdateWndS:

; 801  : 							iTotalLineGap += 18;

  00196	83 45 f0 12	 add	 DWORD PTR _iTotalLineGap$516733[ebp], 18 ; 00000012H
$LN3@UpdateWndS:

; 802  : 						kPrinter.ClearList();

  0019a	8d 4d c4	 lea	 ecx, DWORD PTR _kPrinter$516732[ebp]
  0019d	e8 00 00 00 00	 call	 ?ClearList@ioComplexStringPrinter@@QAEXXZ ; ioComplexStringPrinter::ClearList
$LN10@UpdateWndS:

; 786  : 		{
; 787  : 			for(int iLine = 1; iLine < iMaxLine; iLine++)

  001a2	ff 45 ec	 inc	 DWORD PTR _iLine$516735[ebp]
  001a5	8b 45 ec	 mov	 eax, DWORD PTR _iLine$516735[ebp]
  001a8	3b 45 e4	 cmp	 eax, DWORD PTR _iMaxLine$516729[ebp]
  001ab	0f 8c 04 ff ff
	ff		 jl	 $LN11@UpdateWndS
$LN9@UpdateWndS:

; 822  : 			}
; 823  : 		}
; 824  : 
; 825  : 		SetSize( GetWidth(), 123 + iTotalLineGap );

  001b1	8b 45 f0	 mov	 eax, DWORD PTR _iTotalLineGap$516733[ebp]
  001b4	8b 37		 mov	 esi, DWORD PTR [edi]
  001b6	83 c0 7b	 add	 eax, 123		; 0000007bH
  001b9	50		 push	 eax
  001ba	8b cf		 mov	 ecx, edi
  001bc	ff 15 00 00 00
	00		 call	 DWORD PTR __imp_?GetWidth@ioWnd@@QBEHXZ
  001c2	50		 push	 eax
  001c3	8b cf		 mov	 ecx, edi
  001c5	ff 56 2c	 call	 DWORD PTR [esi+44]

; 826  : 	}

  001c8	83 4d fc ff	 or	 DWORD PTR __$EHRec$[ebp+8], -1
  001cc	8d 4d c4	 lea	 ecx, DWORD PTR _kPrinter$516732[ebp]
  001cf	e8 00 00 00 00	 call	 ??1ioComplexStringPrinter@@QAE@XZ ; ioComplexStringPrinter::~ioComplexStringPrinter
$LN14@UpdateWndS:

; 827  : }

  001d4	e8 00 00 00 00	 call	 __EH_epilog3
  001d9	c3		 ret	 0
_TEXT	ENDS
;	COMDAT text$x
text$x	SEGMENT
__unwindfunclet$?UpdateWndSize@ioHousingBlockInvenToolTip@@QAEXXZ$0:
  00000	8d 4d c4	 lea	 ecx, DWORD PTR _kPrinter$516732[ebp]
  00003	e9 00 00 00 00	 jmp	 ??1ioComplexStringPrinter@@QAE@XZ ; ioComplexStringPrinter::~ioComplexStringPrinter
__unwindfunclet$?UpdateWndSize@ioHousingBlockInvenToolTip@@QAEXXZ$1:
  00008	8d 4d 84	 lea	 ecx, DWORD PTR _kPrinterA$516748[ebp]
  0000b	e9 00 00 00 00	 jmp	 ??1ioComplexStringPrinter@@QAE@XZ ; ioComplexStringPrinter::~ioComplexStringPrinter
__unwindfunclet$?UpdateWndSize@ioHousingBlockInvenToolTip@@QAEXXZ$2:
  00010	8d 4d a4	 lea	 ecx, DWORD PTR _kPrinterB$516749[ebp]
  00013	e9 00 00 00 00	 jmp	 ??1ioComplexStringPrinter@@QAE@XZ ; ioComplexStringPrinter::~ioComplexStringPrinter
__ehhandler$?UpdateWndSize@ioHousingBlockInvenToolTip@@QAEXXZ:
  00018	8b 54 24 08	 mov	 edx, DWORD PTR [esp+8]
  0001c	8d 42 0c	 lea	 eax, DWORD PTR [edx+12]
  0001f	8b 4a 80	 mov	 ecx, DWORD PTR [edx-128]
  00022	33 c8		 xor	 ecx, eax
  00024	e8 00 00 00 00	 call	 @__security_check_cookie@4
  00029	b8 00 00 00 00	 mov	 eax, OFFSET __ehfuncinfo$?UpdateWndSize@ioHousingBlockInvenToolTip@@QAEXXZ
  0002e	e9 00 00 00 00	 jmp	 ___CxxFrameHandler3
text$x	ENDS
?UpdateWndSize@ioHousingBlockInvenToolTip@@QAEXXZ ENDP	; ioHousingBlockInvenToolTip::UpdateWndSize
PUBLIC	?PrintManual@ioHousingBlockInvenToolTip@@QAEXHHM@Z ; ioHousingBlockInvenToolTip::PrintManual
EXTRN	?PrintFullText@ioComplexStringPrinter@@QAEXMMW4TextAlignType@@E@Z:PROC ; ioComplexStringPrinter::PrintFullText
EXTRN	?PrintFullTextWidthCut@ioComplexStringPrinter@@QAEXMMW4TextAlignType@@ME@Z:PROC ; ioComplexStringPrinter::PrintFullTextWidthCut
;	COMDAT xdata$x
; File d:\lost saga for developer\youtube\tutorial\source\src\lsclient\iocomplexstringprinter.h
xdata$x	SEGMENT
__unwindtable$?PrintManual@ioHousingBlockInvenToolTip@@QAEXHHM@Z DD 0ffffffffH
	DD	FLAT:__unwindfunclet$?PrintManual@ioHousingBlockInvenToolTip@@QAEXHHM@Z$0
	DD	00H
	DD	FLAT:__unwindfunclet$?PrintManual@ioHousingBlockInvenToolTip@@QAEXHHM@Z$1
	DD	01H
	DD	FLAT:__unwindfunclet$?PrintManual@ioHousingBlockInvenToolTip@@QAEXHHM@Z$2
__ehfuncinfo$?PrintManual@ioHousingBlockInvenToolTip@@QAEXHHM@Z DD 019930522H
	DD	03H
	DD	FLAT:__unwindtable$?PrintManual@ioHousingBlockInvenToolTip@@QAEXHHM@Z
	DD	2 DUP(00H)
	DD	2 DUP(00H)
	DD	00H
	DD	01H
; Function compile flags: /Ogsp
; File d:\lost saga for developer\youtube\tutorial\source\src\lsclient\gui\iohousingblockinvenwnd.cpp
xdata$x	ENDS
;	COMDAT ?PrintManual@ioHousingBlockInvenToolTip@@QAEXHHM@Z
_TEXT	SEGMENT
_kPrinterA$516792 = -128				; size = 32
_kPrinterB$516793 = -96					; size = 32
_kPrinter$ = -64					; size = 32
_iMaxLine$ = -32					; size = 4
tv282 = -28						; size = 4
_i$516785 = -24						; size = 4
_iLine$516778 = -20					; size = 4
_bAutoLine$ = -13					; size = 1
__$EHRec$ = -12						; size = 12
_iXPos$ = 8						; size = 4
_bFirstGap$516784 = 11					; size = 1
_iYPos$ = 12						; size = 4
_fScale$ = 16						; size = 4
?PrintManual@ioHousingBlockInvenToolTip@@QAEXHHM@Z PROC	; ioHousingBlockInvenToolTip::PrintManual, COMDAT
; _this$ = ecx

; 854  : {

  00000	6a 74		 push	 116			; 00000074H
  00002	b8 00 00 00 00	 mov	 eax, __ehhandler$?PrintManual@ioHousingBlockInvenToolTip@@QAEXHHM@Z
  00007	e8 00 00 00 00	 call	 __EH_prolog3
  0000c	8b f9		 mov	 edi, ecx

; 855  : 	ManualMgr* pManual = ioEtcInvenManualMgr::GetSingletonPtr();

  0000e	e8 00 00 00 00	 call	 ?GetSingletonPtr@ioEtcInvenManualMgr@@SAPAV1@XZ ; ioEtcInvenManualMgr::GetSingletonPtr
  00013	8b f0		 mov	 esi, eax

; 856  : 	if( !pManual )

  00015	85 f6		 test	 esi, esi
  00017	0f 84 23 02 00
	00		 je	 $LN16@PrintManua

; 857  : 		return;
; 858  : 
; 859  : 	bool bAutoLine = false;

  0001d	c6 45 f3 00	 mov	 BYTE PTR _bAutoLine$[ebp], 0

; 860  : 	ioLocalParent *pLocal = g_LocalMgr.GetLocal( ioLocalManager::GetLocalType() );

  00021	ff 15 00 00 00
	00		 call	 DWORD PTR __imp_?GetLocalType@ioLocalManagerParent@@SA?AW4LocalType@1@XZ
  00027	50		 push	 eax
  00028	e8 00 00 00 00	 call	 ?GetSingleton@ioLocalManager@@SAAAV1@XZ ; ioLocalManager::GetSingleton
  0002d	8b c8		 mov	 ecx, eax
  0002f	e8 00 00 00 00	 call	 ?GetLocal@ioLocalManager@@QAEPAVioLocalParent@@W4LocalType@ioLocalManagerParent@@@Z ; ioLocalManager::GetLocal

; 861  : 	if( pLocal && pLocal->IsTooltipAutoLine() )

  00034	85 c0		 test	 eax, eax
  00036	74 12		 je	 SHORT $LN14@PrintManua
  00038	8b 10		 mov	 edx, DWORD PTR [eax]
  0003a	8b c8		 mov	 ecx, eax
  0003c	ff 92 b0 00 00
	00		 call	 DWORD PTR [edx+176]
  00042	84 c0		 test	 al, al
  00044	74 04		 je	 SHORT $LN14@PrintManua

; 862  : 		bAutoLine = true;

  00046	c6 45 f3 01	 mov	 BYTE PTR _bAutoLine$[ebp], 1
$LN14@PrintManua:

; 863  : 
; 864  : 
; 865  : 	ioComplexStringPrinter kPrinter;

  0004a	8d 4d c0	 lea	 ecx, DWORD PTR _kPrinter$[ebp]
  0004d	e8 00 00 00 00	 call	 ??0ioComplexStringPrinter@@QAE@XZ ; ioComplexStringPrinter::ioComplexStringPrinter

; 866  : 	int iMaxLine = pManual->GetMaxLine( m_nManualIndex );

  00052	ff b7 80 01 00
	00		 push	 DWORD PTR [edi+384]
  00058	8b 06		 mov	 eax, DWORD PTR [esi]
  0005a	83 65 fc 00	 and	 DWORD PTR __$EHRec$[ebp+8], 0
  0005e	8b ce		 mov	 ecx, esi
  00060	ff 50 08	 call	 DWORD PTR [eax+8]

; 867  : 	for(int iLine = 1; iLine < iMaxLine; iLine++ )

  00063	33 c9		 xor	 ecx, ecx
  00065	41		 inc	 ecx
  00066	89 45 e0	 mov	 DWORD PTR _iMaxLine$[ebp], eax
  00069	89 4d ec	 mov	 DWORD PTR _iLine$516778[ebp], ecx
  0006c	3b c1		 cmp	 eax, ecx
  0006e	0f 8e c0 01 00
	00		 jle	 $LN11@PrintManua
  00074	66 0f 6e 45 08	 movd	 xmm0, DWORD PTR _iXPos$[ebp]
  00079	0f 5b c0	 cvtdq2ps xmm0, xmm0
  0007c	f3 0f 11 45 e4	 movss	 DWORD PTR tv282[ebp], xmm0
  00081	bb ff 00 00 00	 mov	 ebx, 255		; 000000ffH
$LN13@PrintManua:

; 868  : 	{
; 869  : 		if( !bAutoLine )
; 870  : 		{
; 871  : 			pManual->SetPrinter( m_nManualIndex, iLine, fScale, kPrinter);

  00086	f3 0f 10 45 10	 movss	 xmm0, DWORD PTR _fScale$[ebp]
  0008b	8b 06		 mov	 eax, DWORD PTR [esi]
  0008d	8d 4d c0	 lea	 ecx, DWORD PTR _kPrinter$[ebp]
  00090	51		 push	 ecx
  00091	51		 push	 ecx
  00092	f3 0f 11 04 24	 movss	 DWORD PTR [esp], xmm0
  00097	ff 75 ec	 push	 DWORD PTR _iLine$516778[ebp]
  0009a	8b ce		 mov	 ecx, esi
  0009c	ff b7 80 01 00
	00		 push	 DWORD PTR [edi+384]
  000a2	ff 50 10	 call	 DWORD PTR [eax+16]
  000a5	80 7d f3 00	 cmp	 BYTE PTR _bAutoLine$[ebp], 0
  000a9	75 4b		 jne	 SHORT $LN10@PrintManua

; 872  : 			iYPos += pManual->GetSpaceLine( m_nManualIndex, iLine);

  000ab	ff 75 ec	 push	 DWORD PTR _iLine$516778[ebp]
  000ae	8b 06		 mov	 eax, DWORD PTR [esi]
  000b0	ff b7 80 01 00
	00		 push	 DWORD PTR [edi+384]
  000b6	8b ce		 mov	 ecx, esi
  000b8	ff 50 0c	 call	 DWORD PTR [eax+12]

; 873  : 			kPrinter.PrintFullTextWidthCut( iXPos, iYPos, TAT_LEFT, DESC_WIDTH );

  000bb	f3 0f 10 05 00
	00 00 00	 movss	 xmm0, DWORD PTR __real@434c0000
  000c3	01 45 0c	 add	 DWORD PTR _iYPos$[ebp], eax
  000c6	53		 push	 ebx
  000c7	51		 push	 ecx
  000c8	f3 0f 11 04 24	 movss	 DWORD PTR [esp], xmm0
  000cd	66 0f 6e 45 0c	 movd	 xmm0, DWORD PTR _iYPos$[ebp]
  000d2	6a 00		 push	 0
  000d4	51		 push	 ecx
  000d5	51		 push	 ecx
  000d6	0f 5b c0	 cvtdq2ps xmm0, xmm0
  000d9	f3 0f 11 44 24
	04		 movss	 DWORD PTR [esp+4], xmm0
  000df	f3 0f 10 45 e4	 movss	 xmm0, DWORD PTR tv282[ebp]
  000e4	8d 4d c0	 lea	 ecx, DWORD PTR _kPrinter$[ebp]
  000e7	f3 0f 11 04 24	 movss	 DWORD PTR [esp], xmm0
  000ec	e8 00 00 00 00	 call	 ?PrintFullTextWidthCut@ioComplexStringPrinter@@QAEXMMW4TextAlignType@@ME@Z ; ioComplexStringPrinter::PrintFullTextWidthCut

; 874  : 			kPrinter.ClearList();
; 875  : 		}
; 876  : 		else

  000f1	e9 27 01 00 00	 jmp	 $LN31@PrintManua
$LN10@PrintManua:

; 877  : 		{
; 878  : 			pManual->SetPrinter( m_nManualIndex, iLine, fScale, kPrinter);
; 879  : 
; 880  : 			bool bFirstGap = true;
; 881  : 			for( int i = 0; i < 20 ; ++i )

  000f6	83 65 e8 00	 and	 DWORD PTR _i$516785[ebp], 0
  000fa	c6 45 0b 01	 mov	 BYTE PTR _bFirstGap$516784[ebp], 1
$LN8@PrintManua:

; 882  : 			{
; 883  : 				if( kPrinter.GetFullWidth() < DESC_WIDTH )

  000fe	f3 0f 10 45 dc	 movss	 xmm0, DWORD PTR _kPrinter$[ebp+28]
  00103	f2 0f 10 0d 00
	00 00 00	 movsd	 xmm1, QWORD PTR __real@4069800000000000
  0010b	0f 5a c0	 cvtps2pd xmm0, xmm0
  0010e	66 0f 2f c8	 comisd	 xmm1, xmm0
  00112	0f 87 c1 00 00
	00		 ja	 $LN25@PrintManua

; 894  : 					break;
; 895  : 				}
; 896  : 
; 897  : 				ioComplexStringPrinter kPrinterA, kPrinterB;

  00118	8d 4d 80	 lea	 ecx, DWORD PTR _kPrinterA$516792[ebp]
  0011b	e8 00 00 00 00	 call	 ??0ioComplexStringPrinter@@QAE@XZ ; ioComplexStringPrinter::ioComplexStringPrinter
  00120	8d 4d a0	 lea	 ecx, DWORD PTR _kPrinterB$516793[ebp]
  00123	c6 45 fc 01	 mov	 BYTE PTR __$EHRec$[ebp+8], 1
  00127	e8 00 00 00 00	 call	 ??0ioComplexStringPrinter@@QAE@XZ ; ioComplexStringPrinter::ioComplexStringPrinter

; 898  : 				kPrinter.SplitFullText( kPrinterA, kPrinterB, DESC_WIDTH );

  0012c	f3 0f 10 05 00
	00 00 00	 movss	 xmm0, DWORD PTR __real@434c0000
  00134	51		 push	 ecx
  00135	f3 0f 11 04 24	 movss	 DWORD PTR [esp], xmm0
  0013a	8d 45 a0	 lea	 eax, DWORD PTR _kPrinterB$516793[ebp]
  0013d	50		 push	 eax
  0013e	8d 45 80	 lea	 eax, DWORD PTR _kPrinterA$516792[ebp]
  00141	50		 push	 eax
  00142	8d 4d c0	 lea	 ecx, DWORD PTR _kPrinter$[ebp]
  00145	c6 45 fc 02	 mov	 BYTE PTR __$EHRec$[ebp+8], 2
  00149	e8 00 00 00 00	 call	 ?SplitFullText@ioComplexStringPrinter@@QAEXAAV1@0M@Z ; ioComplexStringPrinter::SplitFullText

; 899  : 				if( bFirstGap )

  0014e	80 7d 0b 00	 cmp	 BYTE PTR _bFirstGap$516784[ebp], 0
  00152	74 19		 je	 SHORT $LN2@PrintManua

; 900  : 				{
; 901  : 					iYPos += pManual->GetSpaceLine( m_nManualIndex, iLine);

  00154	ff 75 ec	 push	 DWORD PTR _iLine$516778[ebp]
  00157	8b 06		 mov	 eax, DWORD PTR [esi]
  00159	ff b7 80 01 00
	00		 push	 DWORD PTR [edi+384]
  0015f	8b ce		 mov	 ecx, esi
  00161	ff 50 0c	 call	 DWORD PTR [eax+12]
  00164	01 45 0c	 add	 DWORD PTR _iYPos$[ebp], eax

; 902  : 					bFirstGap = false;

  00167	c6 45 0b 00	 mov	 BYTE PTR _bFirstGap$516784[ebp], 0

; 903  : 				}
; 904  : 				else

  0016b	eb 04		 jmp	 SHORT $LN1@PrintManua
$LN2@PrintManua:

; 905  : 					iYPos += 18;

  0016d	83 45 0c 12	 add	 DWORD PTR _iYPos$[ebp], 18 ; 00000012H
$LN1@PrintManua:

; 906  : 				kPrinterA.PrintFullText( iXPos, iYPos, TAT_LEFT );

  00171	66 0f 6e 45 0c	 movd	 xmm0, DWORD PTR _iYPos$[ebp]
  00176	53		 push	 ebx
  00177	6a 00		 push	 0
  00179	51		 push	 ecx
  0017a	51		 push	 ecx
  0017b	0f 5b c0	 cvtdq2ps xmm0, xmm0
  0017e	f3 0f 11 44 24
	04		 movss	 DWORD PTR [esp+4], xmm0
  00184	f3 0f 10 45 e4	 movss	 xmm0, DWORD PTR tv282[ebp]
  00189	8d 4d 80	 lea	 ecx, DWORD PTR _kPrinterA$516792[ebp]
  0018c	f3 0f 11 04 24	 movss	 DWORD PTR [esp], xmm0
  00191	e8 00 00 00 00	 call	 ?PrintFullText@ioComplexStringPrinter@@QAEXMMW4TextAlignType@@E@Z ; ioComplexStringPrinter::PrintFullText

; 907  : 				kPrinterB.CopyFullText( kPrinter );

  00196	8d 45 c0	 lea	 eax, DWORD PTR _kPrinter$[ebp]
  00199	50		 push	 eax
  0019a	8d 4d a0	 lea	 ecx, DWORD PTR _kPrinterB$516793[ebp]
  0019d	e8 00 00 00 00	 call	 ?CopyFullText@ioComplexStringPrinter@@QBEXAAV1@@Z ; ioComplexStringPrinter::CopyFullText

; 908  : 				kPrinterA.ClearList();

  001a2	8d 4d 80	 lea	 ecx, DWORD PTR _kPrinterA$516792[ebp]
  001a5	e8 00 00 00 00	 call	 ?ClearList@ioComplexStringPrinter@@QAEXXZ ; ioComplexStringPrinter::ClearList

; 909  : 				kPrinterB.ClearList();

  001aa	8d 4d a0	 lea	 ecx, DWORD PTR _kPrinterB$516793[ebp]
  001ad	e8 00 00 00 00	 call	 ?ClearList@ioComplexStringPrinter@@QAEXXZ ; ioComplexStringPrinter::ClearList

; 910  : 			}

  001b2	8d 4d a0	 lea	 ecx, DWORD PTR _kPrinterB$516793[ebp]
  001b5	c6 45 fc 01	 mov	 BYTE PTR __$EHRec$[ebp+8], 1
  001b9	e8 00 00 00 00	 call	 ??1ioComplexStringPrinter@@QAE@XZ ; ioComplexStringPrinter::~ioComplexStringPrinter
  001be	8d 4d 80	 lea	 ecx, DWORD PTR _kPrinterA$516792[ebp]
  001c1	c6 45 fc 00	 mov	 BYTE PTR __$EHRec$[ebp+8], 0
  001c5	e8 00 00 00 00	 call	 ??1ioComplexStringPrinter@@QAE@XZ ; ioComplexStringPrinter::~ioComplexStringPrinter
  001ca	ff 45 e8	 inc	 DWORD PTR _i$516785[ebp]
  001cd	83 7d e8 14	 cmp	 DWORD PTR _i$516785[ebp], 20 ; 00000014H
  001d1	0f 8c 27 ff ff
	ff		 jl	 $LN8@PrintManua

; 882  : 			{
; 883  : 				if( kPrinter.GetFullWidth() < DESC_WIDTH )

  001d7	eb 4c		 jmp	 SHORT $LN12@PrintManua
$LN25@PrintManua:

; 884  : 				{
; 885  : 					if( bFirstGap )

  001d9	80 7d 0b 00	 cmp	 BYTE PTR _bFirstGap$516784[ebp], 0
  001dd	74 15		 je	 SHORT $LN4@PrintManua

; 886  : 					{
; 887  : 						iYPos += pManual->GetSpaceLine( m_nManualIndex, iLine);

  001df	ff 75 ec	 push	 DWORD PTR _iLine$516778[ebp]
  001e2	8b 06		 mov	 eax, DWORD PTR [esi]
  001e4	ff b7 80 01 00
	00		 push	 DWORD PTR [edi+384]
  001ea	8b ce		 mov	 ecx, esi
  001ec	ff 50 0c	 call	 DWORD PTR [eax+12]
  001ef	01 45 0c	 add	 DWORD PTR _iYPos$[ebp], eax

; 888  : 						bFirstGap = false;
; 889  : 					}
; 890  : 					else

  001f2	eb 04		 jmp	 SHORT $LN3@PrintManua
$LN4@PrintManua:

; 891  : 						iYPos += 18;

  001f4	83 45 0c 12	 add	 DWORD PTR _iYPos$[ebp], 18 ; 00000012H
$LN3@PrintManua:

; 892  : 					kPrinter.PrintFullText( iXPos, iYPos, TAT_LEFT );

  001f8	66 0f 6e 45 0c	 movd	 xmm0, DWORD PTR _iYPos$[ebp]
  001fd	53		 push	 ebx
  001fe	6a 00		 push	 0
  00200	51		 push	 ecx
  00201	51		 push	 ecx
  00202	0f 5b c0	 cvtdq2ps xmm0, xmm0
  00205	f3 0f 11 44 24
	04		 movss	 DWORD PTR [esp+4], xmm0
  0020b	f3 0f 10 45 e4	 movss	 xmm0, DWORD PTR tv282[ebp]
  00210	8d 4d c0	 lea	 ecx, DWORD PTR _kPrinter$[ebp]
  00213	f3 0f 11 04 24	 movss	 DWORD PTR [esp], xmm0
  00218	e8 00 00 00 00	 call	 ?PrintFullText@ioComplexStringPrinter@@QAEXMMW4TextAlignType@@E@Z ; ioComplexStringPrinter::PrintFullText
$LN31@PrintManua:

; 893  : 					kPrinter.ClearList();

  0021d	8d 4d c0	 lea	 ecx, DWORD PTR _kPrinter$[ebp]
  00220	e8 00 00 00 00	 call	 ?ClearList@ioComplexStringPrinter@@QAEXXZ ; ioComplexStringPrinter::ClearList
$LN12@PrintManua:

; 867  : 	for(int iLine = 1; iLine < iMaxLine; iLine++ )

  00225	ff 45 ec	 inc	 DWORD PTR _iLine$516778[ebp]
  00228	8b 45 ec	 mov	 eax, DWORD PTR _iLine$516778[ebp]
  0022b	3b 45 e0	 cmp	 eax, DWORD PTR _iMaxLine$[ebp]
  0022e	0f 8c 52 fe ff
	ff		 jl	 $LN13@PrintManua
$LN11@PrintManua:

; 911  : 		}
; 912  : 	}	
; 913  : }

  00234	83 4d fc ff	 or	 DWORD PTR __$EHRec$[ebp+8], -1
  00238	8d 4d c0	 lea	 ecx, DWORD PTR _kPrinter$[ebp]
  0023b	e8 00 00 00 00	 call	 ??1ioComplexStringPrinter@@QAE@XZ ; ioComplexStringPrinter::~ioComplexStringPrinter
$LN16@PrintManua:
  00240	e8 00 00 00 00	 call	 __EH_epilog3
  00245	c2 0c 00	 ret	 12			; 0000000cH
_TEXT	ENDS
;	COMDAT text$x
text$x	SEGMENT
__unwindfunclet$?PrintManual@ioHousingBlockInvenToolTip@@QAEXHHM@Z$0:
  00000	8d 4d c0	 lea	 ecx, DWORD PTR _kPrinter$[ebp]
  00003	e9 00 00 00 00	 jmp	 ??1ioComplexStringPrinter@@QAE@XZ ; ioComplexStringPrinter::~ioComplexStringPrinter
__unwindfunclet$?PrintManual@ioHousingBlockInvenToolTip@@QAEXHHM@Z$1:
  00008	8d 4d 80	 lea	 ecx, DWORD PTR _kPrinterA$516792[ebp]
  0000b	e9 00 00 00 00	 jmp	 ??1ioComplexStringPrinter@@QAE@XZ ; ioComplexStringPrinter::~ioComplexStringPrinter
__unwindfunclet$?PrintManual@ioHousingBlockInvenToolTip@@QAEXHHM@Z$2:
  00010	8d 4d a0	 lea	 ecx, DWORD PTR _kPrinterB$516793[ebp]
  00013	e9 00 00 00 00	 jmp	 ??1ioComplexStringPrinter@@QAE@XZ ; ioComplexStringPrinter::~ioComplexStringPrinter
__ehhandler$?PrintManual@ioHousingBlockInvenToolTip@@QAEXHHM@Z:
  00018	8b 54 24 08	 mov	 edx, DWORD PTR [esp+8]
  0001c	8d 42 0c	 lea	 eax, DWORD PTR [edx+12]
  0001f	8b 8a 7c ff ff
	ff		 mov	 ecx, DWORD PTR [edx-132]
  00025	33 c8		 xor	 ecx, eax
  00027	e8 00 00 00 00	 call	 @__security_check_cookie@4
  0002c	b8 00 00 00 00	 mov	 eax, OFFSET __ehfuncinfo$?PrintManual@ioHousingBlockInvenToolTip@@QAEXHHM@Z
  00031	e9 00 00 00 00	 jmp	 ___CxxFrameHandler3
text$x	ENDS
?PrintManual@ioHousingBlockInvenToolTip@@QAEXHHM@Z ENDP	; ioHousingBlockInvenToolTip::PrintManual
PUBLIC	??0?$_Vector_val@UInvenBlockItem@ioUserBlockStorage@@V?$allocator@UInvenBlockItem@ioUserBlockStorage@@@std@@@std@@QAE@V?$allocator@UInvenBlockItem@ioUserBlockStorage@@@1@@Z ; std::_Vector_val<ioUserBlockStorage::InvenBlockItem,std::allocator<ioUserBlockStorage::InvenBlockItem> >::_Vector_val<ioUserBlockStorage::InvenBlockItem,std::allocator<ioUserBlockStorage::InvenBlockItem> >
; Function compile flags: /Ogsp
; File c:\program files (x86)\microsoft visual studio 10.0\vc\include\vector
;	COMDAT ??0?$_Vector_val@UInvenBlockItem@ioUserBlockStorage@@V?$allocator@UInvenBlockItem@ioUserBlockStorage@@@std@@@std@@QAE@V?$allocator@UInvenBlockItem@ioUserBlockStorage@@@1@@Z
_TEXT	SEGMENT
__Al$ = 8						; size = 1
??0?$_Vector_val@UInvenBlockItem@ioUserBlockStorage@@V?$allocator@UInvenBlockItem@ioUserBlockStorage@@@std@@@std@@QAE@V?$allocator@UInvenBlockItem@ioUserBlockStorage@@@1@@Z PROC ; std::_Vector_val<ioUserBlockStorage::InvenBlockItem,std::allocator<ioUserBlockStorage::InvenBlockItem> >::_Vector_val<ioUserBlockStorage::InvenBlockItem,std::allocator<ioUserBlockStorage::InvenBlockItem> >, COMDAT
; _this$ = ecx

; 426  : 		{	// construct allocator from _Al

  00000	8b c1		 mov	 eax, ecx

; 427  : 		_Myfirst = 0;

  00002	33 c9		 xor	 ecx, ecx
  00004	89 08		 mov	 DWORD PTR [eax], ecx

; 428  : 		_Mylast = 0;

  00006	89 48 04	 mov	 DWORD PTR [eax+4], ecx

; 429  : 		_Myend = 0;

  00009	89 48 08	 mov	 DWORD PTR [eax+8], ecx

; 430  : 		}

  0000c	c2 04 00	 ret	 4
??0?$_Vector_val@UInvenBlockItem@ioUserBlockStorage@@V?$allocator@UInvenBlockItem@ioUserBlockStorage@@@std@@@std@@QAE@V?$allocator@UInvenBlockItem@ioUserBlockStorage@@@1@@Z ENDP ; std::_Vector_val<ioUserBlockStorage::InvenBlockItem,std::allocator<ioUserBlockStorage::InvenBlockItem> >::_Vector_val<ioUserBlockStorage::InvenBlockItem,std::allocator<ioUserBlockStorage::InvenBlockItem> >
_TEXT	ENDS
PUBLIC	?max_size@?$vector@UInvenBlockItem@ioUserBlockStorage@@V?$allocator@UInvenBlockItem@ioUserBlockStorage@@@std@@@std@@QBEIXZ ; std::vector<ioUserBlockStorage::InvenBlockItem,std::allocator<ioUserBlockStorage::InvenBlockItem> >::max_size
; Function compile flags: /Ogsp
;	COMDAT ?max_size@?$vector@UInvenBlockItem@ioUserBlockStorage@@V?$allocator@UInvenBlockItem@ioUserBlockStorage@@@std@@@std@@QBEIXZ
_TEXT	SEGMENT
?max_size@?$vector@UInvenBlockItem@ioUserBlockStorage@@V?$allocator@UInvenBlockItem@ioUserBlockStorage@@@std@@@std@@QBEIXZ PROC ; std::vector<ioUserBlockStorage::InvenBlockItem,std::allocator<ioUserBlockStorage::InvenBlockItem> >::max_size, COMDAT
; _this$ = ecx

; 884  : 		return (this->_Alval.max_size());

  00000	b8 24 49 92 04	 mov	 eax, 76695844		; 04924924H

; 885  : 		}

  00005	c3		 ret	 0
?max_size@?$vector@UInvenBlockItem@ioUserBlockStorage@@V?$allocator@UInvenBlockItem@ioUserBlockStorage@@@std@@@std@@QBEIXZ ENDP ; std::vector<ioUserBlockStorage::InvenBlockItem,std::allocator<ioUserBlockStorage::InvenBlockItem> >::max_size
_TEXT	ENDS
PUBLIC	?_Grow_to@?$vector@UInvenBlockItem@ioUserBlockStorage@@V?$allocator@UInvenBlockItem@ioUserBlockStorage@@@std@@@std@@IBEII@Z ; std::vector<ioUserBlockStorage::InvenBlockItem,std::allocator<ioUserBlockStorage::InvenBlockItem> >::_Grow_to
; Function compile flags: /Ogsp
;	COMDAT ?_Grow_to@?$vector@UInvenBlockItem@ioUserBlockStorage@@V?$allocator@UInvenBlockItem@ioUserBlockStorage@@@std@@@std@@IBEII@Z
_TEXT	SEGMENT
__Count$ = 8						; size = 4
?_Grow_to@?$vector@UInvenBlockItem@ioUserBlockStorage@@V?$allocator@UInvenBlockItem@ioUserBlockStorage@@@std@@@std@@IBEII@Z PROC ; std::vector<ioUserBlockStorage::InvenBlockItem,std::allocator<ioUserBlockStorage::InvenBlockItem> >::_Grow_to, COMDAT
; _this$ = ecx

; 1274 : 		{	// grow by 50% or at least to _Count

  00000	55		 push	 ebp
  00001	8b ec		 mov	 ebp, esp

; 1275 : 		size_type _Capacity = capacity();

  00003	8b 41 08	 mov	 eax, DWORD PTR [ecx+8]
  00006	2b 01		 sub	 eax, DWORD PTR [ecx]
  00008	6a 38		 push	 56			; 00000038H
  0000a	99		 cdq
  0000b	59		 pop	 ecx
  0000c	f7 f9		 idiv	 ecx

; 1276 : 
; 1277 : 		_Capacity = max_size() - _Capacity / 2 < _Capacity
; 1278 : 			? 0 : _Capacity + _Capacity / 2;	// try to grow by 50%

  0000e	ba 24 49 92 04	 mov	 edx, 76695844		; 04924924H
  00013	8b c8		 mov	 ecx, eax
  00015	d1 e9		 shr	 ecx, 1
  00017	2b d1		 sub	 edx, ecx
  00019	3b d0		 cmp	 edx, eax
  0001b	73 04		 jae	 SHORT $LN4@Grow_to
  0001d	33 c0		 xor	 eax, eax
  0001f	eb 02		 jmp	 SHORT $LN5@Grow_to
$LN4@Grow_to:
  00021	03 c1		 add	 eax, ecx
$LN5@Grow_to:

; 1279 : 		if (_Capacity < _Count)

  00023	3b 45 08	 cmp	 eax, DWORD PTR __Count$[ebp]

; 1280 : 			_Capacity = _Count;

  00026	0f 42 45 08	 cmovb	 eax, DWORD PTR __Count$[ebp]

; 1281 : 		return (_Capacity);
; 1282 : 		}

  0002a	5d		 pop	 ebp
  0002b	c2 04 00	 ret	 4
?_Grow_to@?$vector@UInvenBlockItem@ioUserBlockStorage@@V?$allocator@UInvenBlockItem@ioUserBlockStorage@@@std@@@std@@IBEII@Z ENDP ; std::vector<ioUserBlockStorage::InvenBlockItem,std::allocator<ioUserBlockStorage::InvenBlockItem> >::_Grow_to
_TEXT	ENDS
PUBLIC	?allocate@?$allocator@UInvenBlockItem@ioUserBlockStorage@@@std@@QAEPAUInvenBlockItem@ioUserBlockStorage@@I@Z ; std::allocator<ioUserBlockStorage::InvenBlockItem>::allocate
; Function compile flags: /Ogsp
; File c:\program files (x86)\microsoft visual studio 10.0\vc\include\xmemory
;	COMDAT ?allocate@?$allocator@UInvenBlockItem@ioUserBlockStorage@@@std@@QAEPAUInvenBlockItem@ioUserBlockStorage@@I@Z
_TEXT	SEGMENT
__Count$ = 8						; size = 4
?allocate@?$allocator@UInvenBlockItem@ioUserBlockStorage@@@std@@QAEPAUInvenBlockItem@ioUserBlockStorage@@I@Z PROC ; std::allocator<ioUserBlockStorage::InvenBlockItem>::allocate, COMDAT
; _this$ = ecx

; 186  : 		{	// allocate array of _Count elements

  00000	55		 push	 ebp
  00001	8b ec		 mov	 ebp, esp

; 187  : 		return (_Allocate(_Count, (pointer)0));

  00003	6a 00		 push	 0
  00005	ff 75 08	 push	 DWORD PTR __Count$[ebp]
  00008	e8 00 00 00 00	 call	 ??$_Allocate@UInvenBlockItem@ioUserBlockStorage@@@std@@YAPAUInvenBlockItem@ioUserBlockStorage@@IPAU12@@Z ; std::_Allocate<ioUserBlockStorage::InvenBlockItem>
  0000d	59		 pop	 ecx
  0000e	59		 pop	 ecx

; 188  : 		}

  0000f	5d		 pop	 ebp
  00010	c2 04 00	 ret	 4
?allocate@?$allocator@UInvenBlockItem@ioUserBlockStorage@@@std@@QAEPAUInvenBlockItem@ioUserBlockStorage@@I@Z ENDP ; std::allocator<ioUserBlockStorage::InvenBlockItem>::allocate
_TEXT	ENDS
PUBLIC	__$ArrayPad$
PUBLIC	??$?8$08@@YA_NABVioHashString@@AAY08$$CBD@Z	; operator==<9>
; Function compile flags: /Ogsp
; File d:\lost saga for developer\youtube\tutorial\source\src\io3dengine\iohashstring.h
;	COMDAT ??$?8$08@@YA_NABVioHashString@@AAY08$$CBD@Z
_TEXT	SEGMENT
__t$ = -20						; size = 9
__$ArrayPad$ = -4					; size = 4
_lhs$ = 8						; size = 4
_t$ = 12						; size = 4
??$?8$08@@YA_NABVioHashString@@AAY08$$CBD@Z PROC	; operator==<9>, COMDAT

; 146  : {

  00000	55		 push	 ebp
  00001	8b ec		 mov	 ebp, esp
  00003	83 ec 14	 sub	 esp, 20			; 00000014H
  00006	a1 00 00 00 00	 mov	 eax, DWORD PTR ___security_cookie
  0000b	33 c5		 xor	 eax, ebp
  0000d	89 45 fc	 mov	 DWORD PTR __$ArrayPad$[ebp], eax
  00010	8b 45 0c	 mov	 eax, DWORD PTR _t$[ebp]

; 147  : 	_ENCSTR(t, _t); return ( strcmp( lhs.c_str(), _t ) == 0 );

  00013	8a 10		 mov	 dl, BYTE PTR [eax]
  00015	8b 4d 08	 mov	 ecx, DWORD PTR _lhs$[ebp]
  00018	84 d2		 test	 dl, dl
  0001a	0f 84 ee 00 00
	00		 je	 $LN96@operator
  00020	80 f2 ed	 xor	 dl, -19			; ffffffedH
  00023	88 55 ec	 mov	 BYTE PTR __t$[ebp], dl
  00026	8a 50 01	 mov	 dl, BYTE PTR [eax+1]
  00029	84 d2		 test	 dl, dl
  0002b	0f 84 d7 00 00
	00		 je	 $LN95@operator
  00031	80 f2 ec	 xor	 dl, -20			; ffffffecH
  00034	88 55 ed	 mov	 BYTE PTR __t$[ebp+1], dl
  00037	8a 50 02	 mov	 dl, BYTE PTR [eax+2]
  0003a	84 d2		 test	 dl, dl
  0003c	0f 84 c0 00 00
	00		 je	 $LN94@operator
  00042	80 f2 eb	 xor	 dl, -21			; ffffffebH
  00045	88 55 ee	 mov	 BYTE PTR __t$[ebp+2], dl
  00048	8a 50 03	 mov	 dl, BYTE PTR [eax+3]
  0004b	84 d2		 test	 dl, dl
  0004d	0f 84 a9 00 00
	00		 je	 $LN93@operator
  00053	80 f2 ea	 xor	 dl, -22			; ffffffeaH
  00056	88 55 ef	 mov	 BYTE PTR __t$[ebp+3], dl
  00059	8a 50 04	 mov	 dl, BYTE PTR [eax+4]
  0005c	84 d2		 test	 dl, dl
  0005e	0f 84 92 00 00
	00		 je	 $LN92@operator
  00064	80 f2 ed	 xor	 dl, -19			; ffffffedH
  00067	88 55 f0	 mov	 BYTE PTR __t$[ebp+4], dl
  0006a	8a 50 05	 mov	 dl, BYTE PTR [eax+5]
  0006d	84 d2		 test	 dl, dl
  0006f	74 7f		 je	 SHORT $LN91@operator
  00071	80 f2 ec	 xor	 dl, -20			; ffffffecH
  00074	88 55 f1	 mov	 BYTE PTR __t$[ebp+5], dl
  00077	8a 50 06	 mov	 dl, BYTE PTR [eax+6]
  0007a	84 d2		 test	 dl, dl
  0007c	74 6c		 je	 SHORT $LN90@operator
  0007e	80 f2 eb	 xor	 dl, -21			; ffffffebH
  00081	88 55 f2	 mov	 BYTE PTR __t$[ebp+6], dl
  00084	8a 50 07	 mov	 dl, BYTE PTR [eax+7]
  00087	84 d2		 test	 dl, dl
  00089	74 59		 je	 SHORT $LN89@operator
  0008b	80 f2 ea	 xor	 dl, -22			; ffffffeaH
  0008e	80 78 08 00	 cmp	 BYTE PTR [eax+8], 0
  00092	88 55 f3	 mov	 BYTE PTR __t$[ebp+7], dl
  00095	74 7b		 je	 SHORT $LN1@operator
  00097	8a 50 09	 mov	 dl, BYTE PTR [eax+9]
  0009a	84 d2		 test	 dl, dl
  0009c	74 40		 je	 SHORT $LN87@operator
  0009e	80 f2 ec	 xor	 dl, -20			; ffffffecH
  000a1	88 55 f5	 mov	 BYTE PTR __t$[ebp+9], dl
  000a4	8a 50 0a	 mov	 dl, BYTE PTR [eax+10]
  000a7	84 d2		 test	 dl, dl
  000a9	74 2d		 je	 SHORT $LN86@operator
  000ab	80 f2 eb	 xor	 dl, -21			; ffffffebH
  000ae	88 55 f6	 mov	 BYTE PTR __t$[ebp+10], dl
  000b1	8a 50 0b	 mov	 dl, BYTE PTR [eax+11]
  000b4	84 d2		 test	 dl, dl
  000b6	74 1a		 je	 SHORT $LN85@operator
  000b8	8a 40 0c	 mov	 al, BYTE PTR [eax+12]
  000bb	80 f2 ea	 xor	 dl, -22			; ffffffeaH
  000be	88 55 f7	 mov	 BYTE PTR __t$[ebp+11], dl
  000c1	84 c0		 test	 al, al
  000c3	74 07		 je	 SHORT $LN84@operator
  000c5	34 ed		 xor	 al, -19			; ffffffedH
  000c7	88 45 f8	 mov	 BYTE PTR __t$[ebp+12], al
  000ca	eb 46		 jmp	 SHORT $LN1@operator
$LN84@operator:
  000cc	c6 45 f8 ed	 mov	 BYTE PTR __t$[ebp+12], -19 ; ffffffedH
  000d0	eb 40		 jmp	 SHORT $LN1@operator
$LN85@operator:
  000d2	c6 45 f7 ea	 mov	 BYTE PTR __t$[ebp+11], -22 ; ffffffeaH
  000d6	eb 3a		 jmp	 SHORT $LN1@operator
$LN86@operator:
  000d8	c6 45 f6 eb	 mov	 BYTE PTR __t$[ebp+10], -21 ; ffffffebH
  000dc	eb 34		 jmp	 SHORT $LN1@operator
$LN87@operator:
  000de	c6 45 f5 ec	 mov	 BYTE PTR __t$[ebp+9], -20 ; ffffffecH
  000e2	eb 2e		 jmp	 SHORT $LN1@operator
$LN89@operator:
  000e4	c6 45 f3 ea	 mov	 BYTE PTR __t$[ebp+7], -22 ; ffffffeaH
  000e8	eb 28		 jmp	 SHORT $LN1@operator
$LN90@operator:
  000ea	c6 45 f2 eb	 mov	 BYTE PTR __t$[ebp+6], -21 ; ffffffebH
  000ee	eb 22		 jmp	 SHORT $LN1@operator
$LN91@operator:
  000f0	c6 45 f1 ec	 mov	 BYTE PTR __t$[ebp+5], -20 ; ffffffecH
  000f4	eb 1c		 jmp	 SHORT $LN1@operator
$LN92@operator:
  000f6	c6 45 f0 ed	 mov	 BYTE PTR __t$[ebp+4], -19 ; ffffffedH
  000fa	eb 16		 jmp	 SHORT $LN1@operator
$LN93@operator:
  000fc	c6 45 ef ea	 mov	 BYTE PTR __t$[ebp+3], -22 ; ffffffeaH
  00100	eb 10		 jmp	 SHORT $LN1@operator
$LN94@operator:
  00102	c6 45 ee eb	 mov	 BYTE PTR __t$[ebp+2], -21 ; ffffffebH
  00106	eb 0a		 jmp	 SHORT $LN1@operator
$LN95@operator:
  00108	c6 45 ed ec	 mov	 BYTE PTR __t$[ebp+1], -20 ; ffffffecH
  0010c	eb 04		 jmp	 SHORT $LN1@operator
$LN96@operator:
  0010e	c6 45 ec ed	 mov	 BYTE PTR __t$[ebp], -19	; ffffffedH
$LN1@operator:
  00112	6a 02		 push	 2
  00114	8d 45 ec	 lea	 eax, DWORD PTR __t$[ebp]
  00117	c6 45 f4 00	 mov	 BYTE PTR __t$[ebp+8], 0
  0011b	5a		 pop	 edx
$LL104@operator:
  0011c	81 30 ed ec eb
	ea		 xor	 DWORD PTR [eax], -353637139 ; eaebecedH
  00122	83 c0 04	 add	 eax, 4
  00125	4a		 dec	 edx
  00126	75 f4		 jne	 SHORT $LL104@operator
  00128	56		 push	 esi
  00129	8d 75 ec	 lea	 esi, DWORD PTR __t$[ebp]
  0012c	ff 15 00 00 00
	00		 call	 DWORD PTR __imp_?c_str@ioHashString@@QBEPBDXZ
$LL111@operator:
  00132	8a 08		 mov	 cl, BYTE PTR [eax]
  00134	3a 0e		 cmp	 cl, BYTE PTR [esi]
  00136	75 1a		 jne	 SHORT $LN112@operator
  00138	84 c9		 test	 cl, cl
  0013a	74 12		 je	 SHORT $LN113@operator
  0013c	8a 48 01	 mov	 cl, BYTE PTR [eax+1]
  0013f	3a 4e 01	 cmp	 cl, BYTE PTR [esi+1]
  00142	75 0e		 jne	 SHORT $LN112@operator
  00144	83 c0 02	 add	 eax, 2
  00147	83 c6 02	 add	 esi, 2
  0014a	84 c9		 test	 cl, cl
  0014c	75 e4		 jne	 SHORT $LL111@operator
$LN113@operator:
  0014e	33 c0		 xor	 eax, eax
  00150	eb 05		 jmp	 SHORT $LN114@operator
$LN112@operator:
  00152	1b c0		 sbb	 eax, eax
  00154	83 d8 ff	 sbb	 eax, -1
$LN114@operator:
  00157	33 c9		 xor	 ecx, ecx
  00159	85 c0		 test	 eax, eax
  0015b	0f 94 c0	 sete	 al

; 148  : }

  0015e	8b 4d fc	 mov	 ecx, DWORD PTR __$ArrayPad$[ebp]
  00161	33 cd		 xor	 ecx, ebp
  00163	5e		 pop	 esi
  00164	e8 00 00 00 00	 call	 @__security_check_cookie@4
  00169	c9		 leave
  0016a	c3		 ret	 0
??$?8$08@@YA_NABVioHashString@@AAY08$$CBD@Z ENDP	; operator==<9>
_TEXT	ENDS
PUBLIC	??$_Unchecked@DU?$char_traits@D@std@@V?$allocator@D@2@@std@@YAPADV?$_String_iterator@DU?$char_traits@D@std@@V?$allocator@D@2@@0@@Z ; std::_Unchecked<char,std::char_traits<char>,std::allocator<char> >
; Function compile flags: /Ogsp
; File c:\program files (x86)\microsoft visual studio 10.0\vc\include\xstring
;	COMDAT ??$_Unchecked@DU?$char_traits@D@std@@V?$allocator@D@2@@std@@YAPADV?$_String_iterator@DU?$char_traits@D@std@@V?$allocator@D@2@@0@@Z
_TEXT	SEGMENT
__Iter$ = 8						; size = 4
??$_Unchecked@DU?$char_traits@D@std@@V?$allocator@D@2@@std@@YAPADV?$_String_iterator@DU?$char_traits@D@std@@V?$allocator@D@2@@0@@Z PROC ; std::_Unchecked<char,std::char_traits<char>,std::allocator<char> >, COMDAT

; 416  : 	{	// convert to unchecked

  00000	55		 push	 ebp
  00001	8b ec		 mov	 ebp, esp

; 417  : 	return (_Iter._Unchecked());

  00003	8b 45 08	 mov	 eax, DWORD PTR __Iter$[ebp]

; 418  : 	}

  00006	5d		 pop	 ebp
  00007	c3		 ret	 0
??$_Unchecked@DU?$char_traits@D@std@@V?$allocator@D@2@@std@@YAPADV?$_String_iterator@DU?$char_traits@D@std@@V?$allocator@D@2@@0@@Z ENDP ; std::_Unchecked<char,std::char_traits<char>,std::allocator<char> >
_TEXT	ENDS
PUBLIC	??$construct@AAUInvenBlockItem@ioUserBlockStorage@@@?$allocator@UInvenBlockItem@ioUserBlockStorage@@@std@@QAEXPAUInvenBlockItem@ioUserBlockStorage@@AAU23@@Z ; std::allocator<ioUserBlockStorage::InvenBlockItem>::construct<ioUserBlockStorage::InvenBlockItem &>
;	COMDAT xdata$x
; File c:\program files (x86)\microsoft visual studio 10.0\vc\include\utility
xdata$x	SEGMENT
__unwindtable$??$construct@AAUInvenBlockItem@ioUserBlockStorage@@@?$allocator@UInvenBlockItem@ioUserBlockStorage@@@std@@QAEXPAUInvenBlockItem@ioUserBlockStorage@@AAU23@@Z DD 0ffffffffH
	DD	FLAT:__unwindfunclet$??$construct@AAUInvenBlockItem@ioUserBlockStorage@@@?$allocator@UInvenBlockItem@ioUserBlockStorage@@@std@@QAEXPAUInvenBlockItem@ioUserBlockStorage@@AAU23@@Z$0
__ehfuncinfo$??$construct@AAUInvenBlockItem@ioUserBlockStorage@@@?$allocator@UInvenBlockItem@ioUserBlockStorage@@@std@@QAEXPAUInvenBlockItem@ioUserBlockStorage@@AAU23@@Z DD 019930522H
	DD	01H
	DD	FLAT:__unwindtable$??$construct@AAUInvenBlockItem@ioUserBlockStorage@@@?$allocator@UInvenBlockItem@ioUserBlockStorage@@@std@@QAEXPAUInvenBlockItem@ioUserBlockStorage@@AAU23@@Z
	DD	2 DUP(00H)
	DD	2 DUP(00H)
	DD	00H
	DD	01H
; Function compile flags: /Ogsp
; File c:\program files (x86)\microsoft visual studio 10.0\vc\include\xmemory
xdata$x	ENDS
;	COMDAT ??$construct@AAUInvenBlockItem@ioUserBlockStorage@@@?$allocator@UInvenBlockItem@ioUserBlockStorage@@@std@@QAEXPAUInvenBlockItem@ioUserBlockStorage@@AAU23@@Z
_TEXT	SEGMENT
$T518972 = -16						; size = 4
__$EHRec$ = -12						; size = 12
__Ptr$ = 8						; size = 4
__Val$ = 12						; size = 4
??$construct@AAUInvenBlockItem@ioUserBlockStorage@@@?$allocator@UInvenBlockItem@ioUserBlockStorage@@@std@@QAEXPAUInvenBlockItem@ioUserBlockStorage@@AAU23@@Z PROC ; std::allocator<ioUserBlockStorage::InvenBlockItem>::construct<ioUserBlockStorage::InvenBlockItem &>, COMDAT
; _this$ = ecx

; 206  : 		void construct(pointer _Ptr, _Other&& _Val)

  00000	6a 04		 push	 4
  00002	b8 00 00 00 00	 mov	 eax, __ehhandler$??$construct@AAUInvenBlockItem@ioUserBlockStorage@@@?$allocator@UInvenBlockItem@ioUserBlockStorage@@@std@@QAEXPAUInvenBlockItem@ioUserBlockStorage@@AAU23@@Z
  00007	e8 00 00 00 00	 call	 __EH_prolog3

; 207  : 		{	// construct object at _Ptr with value _Val
; 208  : 		::new ((void _FARQ *)_Ptr) _Ty(_STD forward<_Other>(_Val));

  0000c	8b 4d 08	 mov	 ecx, DWORD PTR __Ptr$[ebp]
  0000f	89 4d f0	 mov	 DWORD PTR $T518972[ebp], ecx
  00012	83 65 fc 00	 and	 DWORD PTR __$EHRec$[ebp+8], 0
  00016	85 c9		 test	 ecx, ecx
  00018	74 08		 je	 SHORT $LN3@construct
  0001a	ff 75 0c	 push	 DWORD PTR __Val$[ebp]
  0001d	e8 00 00 00 00	 call	 ??0InvenBlockItem@ioUserBlockStorage@@QAE@ABU01@@Z
$LN3@construct:

; 209  : 		}

  00022	e8 00 00 00 00	 call	 __EH_epilog3
  00027	c2 08 00	 ret	 8
_TEXT	ENDS
;	COMDAT text$x
text$x	SEGMENT
__unwindfunclet$??$construct@AAUInvenBlockItem@ioUserBlockStorage@@@?$allocator@UInvenBlockItem@ioUserBlockStorage@@@std@@QAEXPAUInvenBlockItem@ioUserBlockStorage@@AAU23@@Z$0:
  00000	ff 75 08	 push	 DWORD PTR __Ptr$[ebp]
  00003	ff 75 f0	 push	 DWORD PTR $T518972[ebp]
  00006	e8 00 00 00 00	 call	 ??3@YAXPAX0@Z		; operator delete
  0000b	59		 pop	 ecx
  0000c	59		 pop	 ecx
  0000d	c3		 ret	 0
__ehhandler$??$construct@AAUInvenBlockItem@ioUserBlockStorage@@@?$allocator@UInvenBlockItem@ioUserBlockStorage@@@std@@QAEXPAUInvenBlockItem@ioUserBlockStorage@@AAU23@@Z:
  0000e	8b 54 24 08	 mov	 edx, DWORD PTR [esp+8]
  00012	8d 42 0c	 lea	 eax, DWORD PTR [edx+12]
  00015	8b 4a ec	 mov	 ecx, DWORD PTR [edx-20]
  00018	33 c8		 xor	 ecx, eax
  0001a	e8 00 00 00 00	 call	 @__security_check_cookie@4
  0001f	b8 00 00 00 00	 mov	 eax, OFFSET __ehfuncinfo$??$construct@AAUInvenBlockItem@ioUserBlockStorage@@@?$allocator@UInvenBlockItem@ioUserBlockStorage@@@std@@QAEXPAUInvenBlockItem@ioUserBlockStorage@@AAU23@@Z
  00024	e9 00 00 00 00	 jmp	 ___CxxFrameHandler3
text$x	ENDS
??$construct@AAUInvenBlockItem@ioUserBlockStorage@@@?$allocator@UInvenBlockItem@ioUserBlockStorage@@@std@@QAEXPAUInvenBlockItem@ioUserBlockStorage@@AAU23@@Z ENDP ; std::allocator<ioUserBlockStorage::InvenBlockItem>::construct<ioUserBlockStorage::InvenBlockItem &>
PUBLIC	??$_Construct@UInvenBlockItem@ioUserBlockStorage@@ABU12@@std@@YAXPAUInvenBlockItem@ioUserBlockStorage@@ABU12@@Z ; std::_Construct<ioUserBlockStorage::InvenBlockItem,ioUserBlockStorage::InvenBlockItem const &>
;	COMDAT xdata$x
; File c:\program files (x86)\microsoft visual studio 10.0\vc\include\utility
xdata$x	SEGMENT
__unwindtable$??$_Construct@UInvenBlockItem@ioUserBlockStorage@@ABU12@@std@@YAXPAUInvenBlockItem@ioUserBlockStorage@@ABU12@@Z DD 0ffffffffH
	DD	FLAT:__unwindfunclet$??$_Construct@UInvenBlockItem@ioUserBlockStorage@@ABU12@@std@@YAXPAUInvenBlockItem@ioUserBlockStorage@@ABU12@@Z$0
__ehfuncinfo$??$_Construct@UInvenBlockItem@ioUserBlockStorage@@ABU12@@std@@YAXPAUInvenBlockItem@ioUserBlockStorage@@ABU12@@Z DD 019930522H
	DD	01H
	DD	FLAT:__unwindtable$??$_Construct@UInvenBlockItem@ioUserBlockStorage@@ABU12@@std@@YAXPAUInvenBlockItem@ioUserBlockStorage@@ABU12@@Z
	DD	2 DUP(00H)
	DD	2 DUP(00H)
	DD	00H
	DD	01H
; Function compile flags: /Ogsp
; File c:\program files (x86)\microsoft visual studio 10.0\vc\include\xmemory
xdata$x	ENDS
;	COMDAT ??$_Construct@UInvenBlockItem@ioUserBlockStorage@@ABU12@@std@@YAXPAUInvenBlockItem@ioUserBlockStorage@@ABU12@@Z
_TEXT	SEGMENT
$T518991 = -16						; size = 4
__$EHRec$ = -12						; size = 12
__Vptr$ = 8						; size = 4
__Ptr$ = 8						; size = 4
__Val$ = 12						; size = 4
??$_Construct@UInvenBlockItem@ioUserBlockStorage@@ABU12@@std@@YAXPAUInvenBlockItem@ioUserBlockStorage@@ABU12@@Z PROC ; std::_Construct<ioUserBlockStorage::InvenBlockItem,ioUserBlockStorage::InvenBlockItem const &>, COMDAT

; 46   : 	{	// construct object at _Ptr with value _Val

  00000	6a 04		 push	 4
  00002	b8 00 00 00 00	 mov	 eax, __ehhandler$??$_Construct@UInvenBlockItem@ioUserBlockStorage@@ABU12@@std@@YAXPAUInvenBlockItem@ioUserBlockStorage@@ABU12@@Z
  00007	e8 00 00 00 00	 call	 __EH_prolog3

; 47   : 	void _FARQ *_Vptr = _Ptr;

  0000c	8b 4d 08	 mov	 ecx, DWORD PTR __Ptr$[ebp]
  0000f	89 4d 08	 mov	 DWORD PTR __Vptr$[ebp], ecx

; 48   : 	::new (_Vptr) _Ty1(_STD forward<_Ty2>(_Val));

  00012	89 4d f0	 mov	 DWORD PTR $T518991[ebp], ecx
  00015	83 65 fc 00	 and	 DWORD PTR __$EHRec$[ebp+8], 0
  00019	85 c9		 test	 ecx, ecx
  0001b	74 08		 je	 SHORT $LN3@Construct
  0001d	ff 75 0c	 push	 DWORD PTR __Val$[ebp]
  00020	e8 00 00 00 00	 call	 ??0InvenBlockItem@ioUserBlockStorage@@QAE@ABU01@@Z
$LN3@Construct:

; 49   : 	}

  00025	e8 00 00 00 00	 call	 __EH_epilog3
  0002a	c3		 ret	 0
_TEXT	ENDS
;	COMDAT text$x
text$x	SEGMENT
__unwindfunclet$??$_Construct@UInvenBlockItem@ioUserBlockStorage@@ABU12@@std@@YAXPAUInvenBlockItem@ioUserBlockStorage@@ABU12@@Z$0:
  00000	ff 75 08	 push	 DWORD PTR __Vptr$[ebp]
  00003	ff 75 f0	 push	 DWORD PTR $T518991[ebp]
  00006	e8 00 00 00 00	 call	 ??3@YAXPAX0@Z		; operator delete
  0000b	59		 pop	 ecx
  0000c	59		 pop	 ecx
  0000d	c3		 ret	 0
__ehhandler$??$_Construct@UInvenBlockItem@ioUserBlockStorage@@ABU12@@std@@YAXPAUInvenBlockItem@ioUserBlockStorage@@ABU12@@Z:
  0000e	8b 54 24 08	 mov	 edx, DWORD PTR [esp+8]
  00012	8d 42 0c	 lea	 eax, DWORD PTR [edx+12]
  00015	8b 4a ec	 mov	 ecx, DWORD PTR [edx-20]
  00018	33 c8		 xor	 ecx, eax
  0001a	e8 00 00 00 00	 call	 @__security_check_cookie@4
  0001f	b8 00 00 00 00	 mov	 eax, OFFSET __ehfuncinfo$??$_Construct@UInvenBlockItem@ioUserBlockStorage@@ABU12@@std@@YAXPAUInvenBlockItem@ioUserBlockStorage@@ABU12@@Z
  00024	e9 00 00 00 00	 jmp	 ___CxxFrameHandler3
text$x	ENDS
??$_Construct@UInvenBlockItem@ioUserBlockStorage@@ABU12@@std@@YAXPAUInvenBlockItem@ioUserBlockStorage@@ABU12@@Z ENDP ; std::_Construct<ioUserBlockStorage::InvenBlockItem,ioUserBlockStorage::InvenBlockItem const &>
PUBLIC	??E?$_String_iterator@DU?$char_traits@D@std@@V?$allocator@D@2@@std@@QAEAAV01@XZ ; std::_String_iterator<char,std::char_traits<char>,std::allocator<char> >::operator++
; Function compile flags: /Ogsp
; File c:\program files (x86)\microsoft visual studio 10.0\vc\include\xstring
;	COMDAT ??E?$_String_iterator@DU?$char_traits@D@std@@V?$allocator@D@2@@std@@QAEAAV01@XZ
_TEXT	SEGMENT
??E?$_String_iterator@DU?$char_traits@D@std@@V?$allocator@D@2@@std@@QAEAAV01@XZ PROC ; std::_String_iterator<char,std::char_traits<char>,std::allocator<char> >::operator++, COMDAT
; _this$ = ecx

; 352  : 		{	// preincrement

  00000	8b c1		 mov	 eax, ecx

; 353  : 		++*(_Mybase *)this;

  00002	ff 00		 inc	 DWORD PTR [eax]

; 354  : 		return (*this);
; 355  : 		}

  00004	c3		 ret	 0
??E?$_String_iterator@DU?$char_traits@D@std@@V?$allocator@D@2@@std@@QAEAAV01@XZ ENDP ; std::_String_iterator<char,std::char_traits<char>,std::allocator<char> >::operator++
_TEXT	ENDS
PUBLIC	??_GInvenBlockItem@ioUserBlockStorage@@QAEPAXI@Z ; ioUserBlockStorage::InvenBlockItem::`scalar deleting destructor'
; Function compile flags: /Ogsp
;	COMDAT ??_GInvenBlockItem@ioUserBlockStorage@@QAEPAXI@Z
_TEXT	SEGMENT
___flags$ = 8						; size = 4
??_GInvenBlockItem@ioUserBlockStorage@@QAEPAXI@Z PROC	; ioUserBlockStorage::InvenBlockItem::`scalar deleting destructor', COMDAT
; _this$ = ecx
  00000	55		 push	 ebp
  00001	8b ec		 mov	 ebp, esp
  00003	56		 push	 esi
  00004	8b f1		 mov	 esi, ecx
  00006	e8 00 00 00 00	 call	 ??1InvenBlockItem@ioUserBlockStorage@@QAE@XZ
  0000b	f6 45 08 01	 test	 BYTE PTR ___flags$[ebp], 1
  0000f	74 07		 je	 SHORT $LN1@scalar@6
  00011	56		 push	 esi
  00012	e8 00 00 00 00	 call	 ??3@YAXPAX@Z		; operator delete
  00017	59		 pop	 ecx
$LN1@scalar@6:
  00018	8b c6		 mov	 eax, esi
  0001a	5e		 pop	 esi
  0001b	5d		 pop	 ebp
  0001c	c2 04 00	 ret	 4
??_GInvenBlockItem@ioUserBlockStorage@@QAEPAXI@Z ENDP	; ioUserBlockStorage::InvenBlockItem::`scalar deleting destructor'
_TEXT	ENDS
PUBLIC	?construct@?$allocator@UInvenBlockItem@ioUserBlockStorage@@@std@@QAEXPAUInvenBlockItem@ioUserBlockStorage@@$$QAU34@@Z ; std::allocator<ioUserBlockStorage::InvenBlockItem>::construct
;	COMDAT xdata$x
; File c:\program files (x86)\microsoft visual studio 10.0\vc\include\utility
xdata$x	SEGMENT
__unwindtable$?construct@?$allocator@UInvenBlockItem@ioUserBlockStorage@@@std@@QAEXPAUInvenBlockItem@ioUserBlockStorage@@$$QAU34@@Z DD 0ffffffffH
	DD	FLAT:__unwindfunclet$?construct@?$allocator@UInvenBlockItem@ioUserBlockStorage@@@std@@QAEXPAUInvenBlockItem@ioUserBlockStorage@@$$QAU34@@Z$0
__ehfuncinfo$?construct@?$allocator@UInvenBlockItem@ioUserBlockStorage@@@std@@QAEXPAUInvenBlockItem@ioUserBlockStorage@@$$QAU34@@Z DD 019930522H
	DD	01H
	DD	FLAT:__unwindtable$?construct@?$allocator@UInvenBlockItem@ioUserBlockStorage@@@std@@QAEXPAUInvenBlockItem@ioUserBlockStorage@@$$QAU34@@Z
	DD	2 DUP(00H)
	DD	2 DUP(00H)
	DD	00H
	DD	01H
; Function compile flags: /Ogsp
; File c:\program files (x86)\microsoft visual studio 10.0\vc\include\xmemory
xdata$x	ENDS
;	COMDAT ?construct@?$allocator@UInvenBlockItem@ioUserBlockStorage@@@std@@QAEXPAUInvenBlockItem@ioUserBlockStorage@@$$QAU34@@Z
_TEXT	SEGMENT
$T519018 = -16						; size = 4
__$EHRec$ = -12						; size = 12
__Ptr$ = 8						; size = 4
__Val$ = 12						; size = 4
?construct@?$allocator@UInvenBlockItem@ioUserBlockStorage@@@std@@QAEXPAUInvenBlockItem@ioUserBlockStorage@@$$QAU34@@Z PROC ; std::allocator<ioUserBlockStorage::InvenBlockItem>::construct, COMDAT
; _this$ = ecx

; 201  : 		{	// construct object at _Ptr with value _Val

  00000	6a 04		 push	 4
  00002	b8 00 00 00 00	 mov	 eax, __ehhandler$?construct@?$allocator@UInvenBlockItem@ioUserBlockStorage@@@std@@QAEXPAUInvenBlockItem@ioUserBlockStorage@@$$QAU34@@Z
  00007	e8 00 00 00 00	 call	 __EH_prolog3

; 202  : 		::new ((void _FARQ *)_Ptr) _Ty(_STD forward<_Ty>(_Val));

  0000c	8b 4d 08	 mov	 ecx, DWORD PTR __Ptr$[ebp]
  0000f	89 4d f0	 mov	 DWORD PTR $T519018[ebp], ecx
  00012	83 65 fc 00	 and	 DWORD PTR __$EHRec$[ebp+8], 0
  00016	85 c9		 test	 ecx, ecx
  00018	74 08		 je	 SHORT $LN3@construct@2
  0001a	ff 75 0c	 push	 DWORD PTR __Val$[ebp]
  0001d	e8 00 00 00 00	 call	 ??0InvenBlockItem@ioUserBlockStorage@@QAE@ABU01@@Z
$LN3@construct@2:

; 203  : 		}

  00022	e8 00 00 00 00	 call	 __EH_epilog3
  00027	c2 08 00	 ret	 8
_TEXT	ENDS
;	COMDAT text$x
text$x	SEGMENT
__unwindfunclet$?construct@?$allocator@UInvenBlockItem@ioUserBlockStorage@@@std@@QAEXPAUInvenBlockItem@ioUserBlockStorage@@$$QAU34@@Z$0:
  00000	ff 75 08	 push	 DWORD PTR __Ptr$[ebp]
  00003	ff 75 f0	 push	 DWORD PTR $T519018[ebp]
  00006	e8 00 00 00 00	 call	 ??3@YAXPAX0@Z		; operator delete
  0000b	59		 pop	 ecx
  0000c	59		 pop	 ecx
  0000d	c3		 ret	 0
__ehhandler$?construct@?$allocator@UInvenBlockItem@ioUserBlockStorage@@@std@@QAEXPAUInvenBlockItem@ioUserBlockStorage@@$$QAU34@@Z:
  0000e	8b 54 24 08	 mov	 edx, DWORD PTR [esp+8]
  00012	8d 42 0c	 lea	 eax, DWORD PTR [edx+12]
  00015	8b 4a ec	 mov	 ecx, DWORD PTR [edx-20]
  00018	33 c8		 xor	 ecx, eax
  0001a	e8 00 00 00 00	 call	 @__security_check_cookie@4
  0001f	b8 00 00 00 00	 mov	 eax, OFFSET __ehfuncinfo$?construct@?$allocator@UInvenBlockItem@ioUserBlockStorage@@@std@@QAEXPAUInvenBlockItem@ioUserBlockStorage@@$$QAU34@@Z
  00024	e9 00 00 00 00	 jmp	 ___CxxFrameHandler3
text$x	ENDS
?construct@?$allocator@UInvenBlockItem@ioUserBlockStorage@@@std@@QAEXPAUInvenBlockItem@ioUserBlockStorage@@$$QAU34@@Z ENDP ; std::allocator<ioUserBlockStorage::InvenBlockItem>::construct
PUBLIC	?c_str@?$basic_string@DU?$char_traits@D@std@@V?$allocator@D@2@@std@@QBEPBDXZ ; std::basic_string<char,std::char_traits<char>,std::allocator<char> >::c_str
; Function compile flags: /Ogsp
; File c:\program files (x86)\microsoft visual studio 10.0\vc\include\xstring
;	COMDAT ?c_str@?$basic_string@DU?$char_traits@D@std@@V?$allocator@D@2@@std@@QBEPBDXZ
_TEXT	SEGMENT
?c_str@?$basic_string@DU?$char_traits@D@std@@V?$allocator@D@2@@std@@QBEPBDXZ PROC ; std::basic_string<char,std::char_traits<char>,std::allocator<char> >::c_str, COMDAT
; _this$ = ecx

; 1497 : 		return (_Myptr());

  00000	83 79 14 10	 cmp	 DWORD PTR [ecx+20], 16	; 00000010H
  00004	72 03		 jb	 SHORT $LN5@c_str
  00006	8b 01		 mov	 eax, DWORD PTR [ecx]

; 1498 : 		}

  00008	c3		 ret	 0

; 1497 : 		return (_Myptr());

$LN5@c_str:
  00009	8b c1		 mov	 eax, ecx

; 1498 : 		}

  0000b	c3		 ret	 0
?c_str@?$basic_string@DU?$char_traits@D@std@@V?$allocator@D@2@@std@@QBEPBDXZ ENDP ; std::basic_string<char,std::char_traits<char>,std::allocator<char> >::c_str
_TEXT	ENDS
PUBLIC	??0?$_String_val@DV?$allocator@D@std@@@std@@QAE@V?$allocator@D@1@@Z ; std::_String_val<char,std::allocator<char> >::_String_val<char,std::allocator<char> >
; Function compile flags: /Ogsp
;	COMDAT ??0?$_String_val@DV?$allocator@D@std@@@std@@QAE@V?$allocator@D@1@@Z
_TEXT	SEGMENT
__Al$ = 8						; size = 1
??0?$_String_val@DV?$allocator@D@std@@@std@@QAE@V?$allocator@D@1@@Z PROC ; std::_String_val<char,std::allocator<char> >::_String_val<char,std::allocator<char> >, COMDAT
; _this$ = ecx

; 454  : 		{	// construct allocator from _Al

  00000	8b c1		 mov	 eax, ecx

; 455  : 		}

  00002	c2 04 00	 ret	 4
??0?$_String_val@DV?$allocator@D@std@@@std@@QAE@V?$allocator@D@1@@Z ENDP ; std::_String_val<char,std::allocator<char> >::_String_val<char,std::allocator<char> >
_TEXT	ENDS
PUBLIC	??D?$_String_iterator@DU?$char_traits@D@std@@V?$allocator@D@2@@std@@QBEAADXZ ; std::_String_iterator<char,std::char_traits<char>,std::allocator<char> >::operator*
; Function compile flags: /Ogsp
;	COMDAT ??D?$_String_iterator@DU?$char_traits@D@std@@V?$allocator@D@2@@std@@QBEAADXZ
_TEXT	SEGMENT
??D?$_String_iterator@DU?$char_traits@D@std@@V?$allocator@D@2@@std@@QBEAADXZ PROC ; std::_String_iterator<char,std::char_traits<char>,std::allocator<char> >::operator*, COMDAT
; _this$ = ecx

; 343  : 		return ((reference)**(_Mybase *)this);

  00000	8b 01		 mov	 eax, DWORD PTR [ecx]

; 344  : 		}

  00002	c3		 ret	 0
??D?$_String_iterator@DU?$char_traits@D@std@@V?$allocator@D@2@@std@@QBEAADXZ ENDP ; std::_String_iterator<char,std::char_traits<char>,std::allocator<char> >::operator*
_TEXT	ENDS
PUBLIC	?_Eos@?$basic_string@DU?$char_traits@D@std@@V?$allocator@D@2@@std@@QAEXI@Z ; std::basic_string<char,std::char_traits<char>,std::allocator<char> >::_Eos
; Function compile flags: /Ogsp
;	COMDAT ?_Eos@?$basic_string@DU?$char_traits@D@std@@V?$allocator@D@2@@std@@QAEXI@Z
_TEXT	SEGMENT
__Newsize$ = 8						; size = 4
?_Eos@?$basic_string@DU?$char_traits@D@std@@V?$allocator@D@2@@std@@QAEXI@Z PROC ; std::basic_string<char,std::char_traits<char>,std::allocator<char> >::_Eos, COMDAT
; _this$ = ecx

; 1953 : 		{	// set new length and null terminator

  00000	55		 push	 ebp
  00001	8b ec		 mov	 ebp, esp

; 1954 : 		_Traits::assign(_Myptr()[this->_Mysize = _Newsize], _Elem());

  00003	83 79 14 10	 cmp	 DWORD PTR [ecx+20], 16	; 00000010H
  00007	8b 45 08	 mov	 eax, DWORD PTR __Newsize$[ebp]
  0000a	89 41 10	 mov	 DWORD PTR [ecx+16], eax
  0000d	72 02		 jb	 SHORT $LN5@Eos
  0000f	8b 09		 mov	 ecx, DWORD PTR [ecx]
$LN5@Eos:
  00011	c6 04 01 00	 mov	 BYTE PTR [ecx+eax], 0

; 1955 : 		}

  00015	5d		 pop	 ebp
  00016	c2 04 00	 ret	 4
?_Eos@?$basic_string@DU?$char_traits@D@std@@V?$allocator@D@2@@std@@QAEXI@Z ENDP ; std::basic_string<char,std::char_traits<char>,std::allocator<char> >::_Eos
_TEXT	ENDS
PUBLIC	??0?$_String_iterator@DU?$char_traits@D@std@@V?$allocator@D@2@@std@@QAE@PADPBU_Container_base0@1@@Z ; std::_String_iterator<char,std::char_traits<char>,std::allocator<char> >::_String_iterator<char,std::char_traits<char>,std::allocator<char> >
; Function compile flags: /Ogsp
;	COMDAT ??0?$_String_iterator@DU?$char_traits@D@std@@V?$allocator@D@2@@std@@QAE@PADPBU_Container_base0@1@@Z
_TEXT	SEGMENT
__Parg$ = 8						; size = 4
__Pstring$ = 12						; size = 4
??0?$_String_iterator@DU?$char_traits@D@std@@V?$allocator@D@2@@std@@QAE@PADPBU_Container_base0@1@@Z PROC ; std::_String_iterator<char,std::char_traits<char>,std::allocator<char> >::_String_iterator<char,std::char_traits<char>,std::allocator<char> >, COMDAT
; _this$ = ecx

; 325  : 		{	// construct with pointer _Parg

  00000	55		 push	 ebp
  00001	8b ec		 mov	 ebp, esp
  00003	8b c1		 mov	 eax, ecx
  00005	8b 4d 08	 mov	 ecx, DWORD PTR __Parg$[ebp]
  00008	89 08		 mov	 DWORD PTR [eax], ecx

; 326  : 		}

  0000a	5d		 pop	 ebp
  0000b	c2 08 00	 ret	 8
??0?$_String_iterator@DU?$char_traits@D@std@@V?$allocator@D@2@@std@@QAE@PADPBU_Container_base0@1@@Z ENDP ; std::_String_iterator<char,std::char_traits<char>,std::allocator<char> >::_String_iterator<char,std::char_traits<char>,std::allocator<char> >
_TEXT	ENDS
PUBLIC	?max_size@?$basic_string@DU?$char_traits@D@std@@V?$allocator@D@2@@std@@QBEIXZ ; std::basic_string<char,std::char_traits<char>,std::allocator<char> >::max_size
; Function compile flags: /Ogsp
;	COMDAT ?max_size@?$basic_string@DU?$char_traits@D@std@@V?$allocator@D@2@@std@@QBEIXZ
_TEXT	SEGMENT
?max_size@?$basic_string@DU?$char_traits@D@std@@V?$allocator@D@2@@std@@QBEIXZ PROC ; std::basic_string<char,std::char_traits<char>,std::allocator<char> >::max_size, COMDAT
; _this$ = ecx

; 1517 : 		size_type _Num = this->_Alval.max_size();
; 1518 : 		return (_Num <= 1 ? 1 : _Num - 1);

  00000	6a fe		 push	 -2			; fffffffeH
  00002	58		 pop	 eax

; 1519 : 		}

  00003	c3		 ret	 0
?max_size@?$basic_string@DU?$char_traits@D@std@@V?$allocator@D@2@@std@@QBEIXZ ENDP ; std::basic_string<char,std::char_traits<char>,std::allocator<char> >::max_size
_TEXT	ENDS
PUBLIC	??8?$_String_const_iterator@DU?$char_traits@D@std@@V?$allocator@D@2@@std@@QBE_NABV01@@Z ; std::_String_const_iterator<char,std::char_traits<char>,std::allocator<char> >::operator==
; Function compile flags: /Ogsp
;	COMDAT ??8?$_String_const_iterator@DU?$char_traits@D@std@@V?$allocator@D@2@@std@@QBE_NABV01@@Z
_TEXT	SEGMENT
__Right$ = 8						; size = 4
??8?$_String_const_iterator@DU?$char_traits@D@std@@V?$allocator@D@2@@std@@QBE_NABV01@@Z PROC ; std::_String_const_iterator<char,std::char_traits<char>,std::allocator<char> >::operator==, COMDAT
; _this$ = ecx

; 212  : 		{	// test for iterator equality

  00000	55		 push	 ebp
  00001	8b ec		 mov	 ebp, esp

; 213  : 		_Compat(_Right);
; 214  : 		return (this->_Ptr == _Right._Ptr);

  00003	8b 01		 mov	 eax, DWORD PTR [ecx]
  00005	8b 4d 08	 mov	 ecx, DWORD PTR __Right$[ebp]
  00008	2b 01		 sub	 eax, DWORD PTR [ecx]
  0000a	f7 d8		 neg	 eax
  0000c	1b c0		 sbb	 eax, eax
  0000e	40		 inc	 eax

; 215  : 		}

  0000f	5d		 pop	 ebp
  00010	c2 04 00	 ret	 4
??8?$_String_const_iterator@DU?$char_traits@D@std@@V?$allocator@D@2@@std@@QBE_NABV01@@Z ENDP ; std::_String_const_iterator<char,std::char_traits<char>,std::allocator<char> >::operator==
_TEXT	ENDS
PUBLIC	?allocate@?$allocator@D@std@@QAEPADI@Z		; std::allocator<char>::allocate
; Function compile flags: /Ogsp
; File c:\program files (x86)\microsoft visual studio 10.0\vc\include\xmemory
;	COMDAT ?allocate@?$allocator@D@std@@QAEPADI@Z
_TEXT	SEGMENT
__Count$ = 8						; size = 4
?allocate@?$allocator@D@std@@QAEPADI@Z PROC		; std::allocator<char>::allocate, COMDAT
; _this$ = ecx

; 186  : 		{	// allocate array of _Count elements

  00000	55		 push	 ebp
  00001	8b ec		 mov	 ebp, esp

; 187  : 		return (_Allocate(_Count, (pointer)0));

  00003	6a 00		 push	 0
  00005	ff 75 08	 push	 DWORD PTR __Count$[ebp]
  00008	e8 00 00 00 00	 call	 ??$_Allocate@D@std@@YAPADIPAD@Z ; std::_Allocate<char>
  0000d	59		 pop	 ecx
  0000e	59		 pop	 ecx

; 188  : 		}

  0000f	5d		 pop	 ebp
  00010	c2 04 00	 ret	 4
?allocate@?$allocator@D@std@@QAEPADI@Z ENDP		; std::allocator<char>::allocate
_TEXT	ENDS
PUBLIC	_this$GSCopy$
PUBLIC	__$ArrayPad$
EXTRN	__imp_?AddRenderImage@ioButton@@UAEXABVioHashString@@PAVioUIRenderImage@@@Z:PROC
; Function compile flags: /Ogsp
; File d:\lost saga for developer\youtube\tutorial\source\src\lsclient\gui\iohousingblockinvenwnd.cpp
;	COMDAT ?AddRenderImage@ioHousingBlockInvenIcon@@UAEXABVioHashString@@PAVioUIRenderImage@@@Z
_TEXT	SEGMENT
_this$GSCopy$ = -24					; size = 4
__t$519121 = -20					; size = 9
__$ArrayPad$ = -4					; size = 4
_szType$ = 8						; size = 4
_pImage$ = 12						; size = 4
?AddRenderImage@ioHousingBlockInvenIcon@@UAEXABVioHashString@@PAVioUIRenderImage@@@Z PROC ; ioHousingBlockInvenIcon::AddRenderImage, COMDAT
; _this$ = ecx

; 28   : {

  00000	55		 push	 ebp
  00001	8b ec		 mov	 ebp, esp
  00003	83 ec 18	 sub	 esp, 24			; 00000018H
  00006	a1 00 00 00 00	 mov	 eax, DWORD PTR ___security_cookie
  0000b	33 c5		 xor	 eax, ebp
  0000d	89 45 fc	 mov	 DWORD PTR __$ArrayPad$[ebp], eax
  00010	53		 push	 ebx
  00011	8b 5d 0c	 mov	 ebx, DWORD PTR _pImage$[ebp]
  00014	56		 push	 esi
  00015	57		 push	 edi
  00016	8b 7d 08	 mov	 edi, DWORD PTR _szType$[ebp]

; 29   : 	if( szType == "IconBack" )

  00019	6a 02		 push	 2
  0001b	89 4d e8	 mov	 DWORD PTR _this$GSCopy$[ebp], ecx
  0001e	c7 45 ec a4 8f
	84 84		 mov	 DWORD PTR __t$519121[ebp], -2071687260 ; 84848fa4H
  00025	c7 45 f0 af 8d
	88 81		 mov	 DWORD PTR __t$519121[ebp+4], -2121757265 ; 81888dafH
  0002c	8d 45 ec	 lea	 eax, DWORD PTR __t$519121[ebp]
  0002f	c6 45 f4 00	 mov	 BYTE PTR __t$519121[ebp+8], 0
  00033	59		 pop	 ecx
$LL111@AddRenderI:
  00034	81 30 ed ec eb
	ea		 xor	 DWORD PTR [eax], -353637139 ; eaebecedH
  0003a	83 c0 04	 add	 eax, 4
  0003d	49		 dec	 ecx
  0003e	75 f4		 jne	 SHORT $LL111@AddRenderI
  00040	8b cf		 mov	 ecx, edi
  00042	8d 75 ec	 lea	 esi, DWORD PTR __t$519121[ebp]
  00045	ff 15 00 00 00
	00		 call	 DWORD PTR __imp_?c_str@ioHashString@@QBEPBDXZ
$LL118@AddRenderI:
  0004b	8a 08		 mov	 cl, BYTE PTR [eax]
  0004d	3a 0e		 cmp	 cl, BYTE PTR [esi]
  0004f	75 1a		 jne	 SHORT $LN119@AddRenderI
  00051	84 c9		 test	 cl, cl
  00053	74 12		 je	 SHORT $LN120@AddRenderI
  00055	8a 48 01	 mov	 cl, BYTE PTR [eax+1]
  00058	3a 4e 01	 cmp	 cl, BYTE PTR [esi+1]
  0005b	75 0e		 jne	 SHORT $LN119@AddRenderI
  0005d	83 c0 02	 add	 eax, 2
  00060	83 c6 02	 add	 esi, 2
  00063	84 c9		 test	 cl, cl
  00065	75 e4		 jne	 SHORT $LL118@AddRenderI
$LN120@AddRenderI:
  00067	33 c0		 xor	 eax, eax
  00069	eb 05		 jmp	 SHORT $LN121@AddRenderI
$LN119@AddRenderI:
  0006b	1b c0		 sbb	 eax, eax
  0006d	83 d8 ff	 sbb	 eax, -1
$LN121@AddRenderI:
  00070	85 c0		 test	 eax, eax
  00072	75 23		 jne	 SHORT $LN3@AddRenderI

; 30   : 	{
; 31   : 		SAFEDELETE( m_pIconBack );

  00074	8b 75 e8	 mov	 esi, DWORD PTR _this$GSCopy$[ebp]
  00077	8b 8e fc 01 00
	00		 mov	 ecx, DWORD PTR [esi+508]
  0007d	85 c9		 test	 ecx, ecx
  0007f	74 0e		 je	 SHORT $LN2@AddRenderI
  00081	8b 01		 mov	 eax, DWORD PTR [ecx]
  00083	6a 01		 push	 1
  00085	ff 50 40	 call	 DWORD PTR [eax+64]
  00088	83 a6 fc 01 00
	00 00		 and	 DWORD PTR [esi+508], 0
$LN2@AddRenderI:

; 32   : 		m_pIconBack = pImage;

  0008f	89 9e fc 01 00
	00		 mov	 DWORD PTR [esi+508], ebx

; 33   : 	}
; 34   : 	else

  00095	eb 0b		 jmp	 SHORT $LN1@AddRenderI
$LN3@AddRenderI:

; 35   : 	{
; 36   : 		ioButton::AddRenderImage( szType, pImage );

  00097	8b 4d e8	 mov	 ecx, DWORD PTR _this$GSCopy$[ebp]
  0009a	53		 push	 ebx
  0009b	57		 push	 edi
  0009c	ff 15 00 00 00
	00		 call	 DWORD PTR __imp_?AddRenderImage@ioButton@@UAEXABVioHashString@@PAVioUIRenderImage@@@Z
$LN1@AddRenderI:

; 37   : 	}
; 38   : }

  000a2	8b 4d fc	 mov	 ecx, DWORD PTR __$ArrayPad$[ebp]
  000a5	5f		 pop	 edi
  000a6	5e		 pop	 esi
  000a7	33 cd		 xor	 ecx, ebp
  000a9	5b		 pop	 ebx
  000aa	e8 00 00 00 00	 call	 @__security_check_cookie@4
  000af	c9		 leave
  000b0	c2 08 00	 ret	 8
?AddRenderImage@ioHousingBlockInvenIcon@@UAEXABVioHashString@@PAVioUIRenderImage@@@Z ENDP ; ioHousingBlockInvenIcon::AddRenderImage
_TEXT	ENDS
PUBLIC	__real@3f800000
PUBLIC	??_R0?AVInventoryIconBtn@@@8			; InventoryIconBtn `RTTI Type Descriptor'
PUBLIC	__$ArrayPad$
PUBLIC	?SetBlockInvenItemInfo@ioHousingBlockInvenToolTip@@QAEXH@Z ; ioHousingBlockInvenToolTip::SetBlockInvenItemInfo
EXTRN	?SetIcon@InventoryIconBtn@@QAE_NPAVioUIRenderImage@@MMHW4NumberType@1@@Z:PROC ; InventoryIconBtn::SetIcon
EXTRN	?GetInvenBlockItemByCode@ioUserBlockStorage@@QAEPAUInvenBlockItem@1@H_N@Z:PROC ; ioUserBlockStorage::GetInvenBlockItemByCode
EXTRN	__imp_?FindWnd@ioGUIManager@@QAEPAVioWnd@@K@Z:PROC
;	COMDAT __real@3f800000
CONST	SEGMENT
__real@3f800000 DD 03f800000r			; 1
CONST	ENDS
;	COMDAT ??_R0?AVInventoryIconBtn@@@8
_DATA	SEGMENT
??_R0?AVInventoryIconBtn@@@8 DD FLAT:??_7type_info@@6B@	; InventoryIconBtn `RTTI Type Descriptor'
	DD	00H
	DB	'.?AVInventoryIconBtn@@', 00H
; Function compile flags: /Ogsp
_DATA	ENDS
;	COMDAT ?SetBlockInvenItemInfo@ioHousingBlockInvenToolTip@@QAEXH@Z
_TEXT	SEGMENT
_pWnd$ = -268						; size = 4
_szNum$516693 = -264					; size = 260
__$ArrayPad$ = -4					; size = 4
_nBlockCode$ = 8					; size = 4
?SetBlockInvenItemInfo@ioHousingBlockInvenToolTip@@QAEXH@Z PROC ; ioHousingBlockInvenToolTip::SetBlockInvenItemInfo, COMDAT
; _this$ = ecx

; 674  : {

  00000	55		 push	 ebp
  00001	8b ec		 mov	 ebp, esp
  00003	81 ec 0c 01 00
	00		 sub	 esp, 268		; 0000010cH
  00009	a1 00 00 00 00	 mov	 eax, DWORD PTR ___security_cookie
  0000e	33 c5		 xor	 eax, ebp
  00010	89 45 fc	 mov	 DWORD PTR __$ArrayPad$[ebp], eax
  00013	53		 push	 ebx
  00014	56		 push	 esi
  00015	57		 push	 edi
  00016	8b 7d 08	 mov	 edi, DWORD PTR _nBlockCode$[ebp]

; 675  : 	m_nBlockCode = nBlockCode;
; 676  : 
; 677  : 	ioUserBlockStorage* pStorage = NULL;
; 678  : 	ioHousingBlockInvenWnd* pWnd = dynamic_cast<ioHousingBlockInvenWnd*>( g_GUIMgr.FindWnd( HOUSING_BLOCK_INVEN_WND ) );

  00019	6a 00		 push	 0
  0001b	68 00 00 00 00	 push	 OFFSET ??_R0?AVioHousingBlockInvenWnd@@@8
  00020	bb 00 00 00 00	 mov	 ebx, OFFSET ??_R0?AVioWnd@@@8
  00025	53		 push	 ebx
  00026	8b f1		 mov	 esi, ecx
  00028	6a 00		 push	 0
  0002a	68 8a 18 00 00	 push	 6282			; 0000188aH
  0002f	89 be 84 01 00
	00		 mov	 DWORD PTR [esi+388], edi
  00035	e8 00 00 00 00	 call	 ?GetSingleton@ioSP2GUIManager@@SAAAV1@XZ ; ioSP2GUIManager::GetSingleton
  0003a	8b c8		 mov	 ecx, eax
  0003c	ff 15 00 00 00
	00		 call	 DWORD PTR __imp_?FindWnd@ioGUIManager@@QAEPAVioWnd@@K@Z
  00042	50		 push	 eax
  00043	e8 00 00 00 00	 call	 ___RTDynamicCast
  00048	8b c8		 mov	 ecx, eax
  0004a	83 c4 14	 add	 esp, 20			; 00000014H
  0004d	89 8d f4 fe ff
	ff		 mov	 DWORD PTR _pWnd$[ebp], ecx

; 679  : 	if( pWnd && pWnd->IsShow() )

  00053	85 c9		 test	 ecx, ecx
  00055	0f 84 ed 00 00
	00		 je	 $LN4@SetBlockIn
  0005b	ff 15 00 00 00
	00		 call	 DWORD PTR __imp_?IsShow@ioWnd@@QBE_NXZ
  00061	84 c0		 test	 al, al
  00063	0f 84 df 00 00
	00		 je	 $LN4@SetBlockIn

; 680  : 	{
; 681  : 		pStorage = pWnd->GetStorage();

  00069	8b 8d f4 fe ff
	ff		 mov	 ecx, DWORD PTR _pWnd$[ebp]
  0006f	e8 00 00 00 00	 call	 ?GetStorage@ioHousingBlockInvenWnd@@QAEPAVioUserBlockStorage@@XZ ; ioHousingBlockInvenWnd::GetStorage

; 682  : 	}
; 683  : 	
; 684  : 	if( pStorage )

  00074	85 c0		 test	 eax, eax
  00076	0f 84 cc 00 00
	00		 je	 $LN4@SetBlockIn

; 685  : 	{
; 686  : 		ioUserBlockStorage::InvenBlockItem* pItem = pStorage->GetInvenBlockItemByCode( nBlockCode, true );

  0007c	6a 01		 push	 1
  0007e	57		 push	 edi
  0007f	8b c8		 mov	 ecx, eax
  00081	e8 00 00 00 00	 call	 ?GetInvenBlockItemByCode@ioUserBlockStorage@@QAEPAUInvenBlockItem@1@H_N@Z ; ioUserBlockStorage::GetInvenBlockItemByCode
  00086	8b f8		 mov	 edi, eax

; 687  : 		if( pItem )

  00088	85 ff		 test	 edi, edi
  0008a	0f 84 b8 00 00
	00		 je	 $LN4@SetBlockIn

; 688  : 		{
; 689  : 			m_Name			= pItem->m_szName;

  00090	57		 push	 edi
  00091	8d 8e 60 01 00
	00		 lea	 ecx, DWORD PTR [esi+352]
  00097	ff 15 00 00 00
	00		 call	 DWORD PTR __imp_??4ioHashString@@QAEAAV0@ABV0@@Z

; 690  : 			m_nManualIndex	= pItem->m_nManualIdx;

  0009d	8b 47 2c	 mov	 eax, DWORD PTR [edi+44]
  000a0	89 86 80 01 00
	00		 mov	 DWORD PTR [esi+384], eax

; 691  : 
; 692  : 			char szNum[MAX_PATH];
; 693  : 			Help::ConvertNumToStrComma( pItem->m_nCount, szNum, MAX_PATH );

  000a6	68 04 01 00 00	 push	 260			; 00000104H
  000ab	8d 85 f8 fe ff
	ff		 lea	 eax, DWORD PTR _szNum$516693[ebp]
  000b1	50		 push	 eax
  000b2	ff 77 30	 push	 DWORD PTR [edi+48]
  000b5	e8 00 00 00 00	 call	 ?ConvertNumToStrComma@Help@@YAXHPADH@Z ; Help::ConvertNumToStrComma
  000ba	83 c4 0c	 add	 esp, 12			; 0000000cH

; 694  : 			m_Count = szNum;

  000bd	8d 85 f8 fe ff
	ff		 lea	 eax, DWORD PTR _szNum$516693[ebp]
  000c3	50		 push	 eax
  000c4	8d 8e 70 01 00
	00		 lea	 ecx, DWORD PTR [esi+368]
  000ca	ff 15 00 00 00
	00		 call	 DWORD PTR __imp_??4ioHashString@@QAEAAV0@PBD@Z

; 695  : 
; 696  : 			InventoryIconBtn *pIcon = dynamic_cast<InventoryIconBtn*>( FindChildWnd( ID_ICON ) );

  000d0	6a 00		 push	 0
  000d2	68 00 00 00 00	 push	 OFFSET ??_R0?AVInventoryIconBtn@@@8
  000d7	53		 push	 ebx
  000d8	6a 00		 push	 0
  000da	6a 01		 push	 1
  000dc	8b ce		 mov	 ecx, esi
  000de	ff 15 00 00 00
	00		 call	 DWORD PTR __imp_?FindChildWnd@ioWnd@@QAEPAV1@K@Z
  000e4	50		 push	 eax
  000e5	e8 00 00 00 00	 call	 ___RTDynamicCast
  000ea	8b d8		 mov	 ebx, eax

; 697  : 			if( pIcon )

  000ec	33 c0		 xor	 eax, eax
  000ee	83 c4 14	 add	 esp, 20			; 00000014H
  000f1	3b d8		 cmp	 ebx, eax
  000f3	74 44		 je	 SHORT $LN1@SetBlockIn

; 698  : 			{
; 699  : 				pIcon->SetIcon( g_UIImageSetMgr.CreateImageByFullName( pItem->m_szIcon ), 1.0f, 1.0f );

  000f5	f3 0f 10 05 00
	00 00 00	 movss	 xmm0, DWORD PTR __real@3f800000
  000fd	50		 push	 eax
  000fe	50		 push	 eax
  000ff	51		 push	 ecx
  00100	51		 push	 ecx
  00101	f3 0f 11 44 24
	04		 movss	 DWORD PTR [esp+4], xmm0
  00107	f3 0f 11 04 24	 movss	 DWORD PTR [esp], xmm0
  0010c	50		 push	 eax
  0010d	8d 47 10	 lea	 eax, DWORD PTR [edi+16]
  00110	50		 push	 eax
  00111	ff 15 00 00 00
	00		 call	 DWORD PTR __imp_?GetSingleton@ioUIImageSetManager@@SAAAV1@XZ
  00117	8b c8		 mov	 ecx, eax
  00119	ff 15 00 00 00
	00		 call	 DWORD PTR __imp_?CreateImageByFullName@ioUIImageSetManager@@QAEPAVioUIRenderImage@@ABVioHashString@@_N@Z
  0011f	50		 push	 eax
  00120	8b cb		 mov	 ecx, ebx
  00122	e8 00 00 00 00	 call	 ?SetIcon@InventoryIconBtn@@QAE_NPAVioUIRenderImage@@MMHW4NumberType@1@@Z ; InventoryIconBtn::SetIcon

; 700  : 				if( pItem->m_nCount == 0 )			

  00127	83 7f 30 00	 cmp	 DWORD PTR [edi+48], 0

; 701  : 					pIcon->SetInActive();

  0012b	8b 03		 mov	 eax, DWORD PTR [ebx]
  0012d	8b cb		 mov	 ecx, ebx
  0012f	75 05		 jne	 SHORT $LN2@SetBlockIn
  00131	ff 50 24	 call	 DWORD PTR [eax+36]

; 702  : 				else

  00134	eb 03		 jmp	 SHORT $LN1@SetBlockIn
$LN2@SetBlockIn:

; 703  : 					pIcon->SetActive();

  00136	ff 50 20	 call	 DWORD PTR [eax+32]
$LN1@SetBlockIn:

; 704  : 			}
; 705  : 
; 706  : 			UpdateWndSize();

  00139	8b ce		 mov	 ecx, esi
  0013b	e8 00 00 00 00	 call	 ?UpdateWndSize@ioHousingBlockInvenToolTip@@QAEXXZ ; ioHousingBlockInvenToolTip::UpdateWndSize

; 707  : 			ShowWnd();

  00140	8b ce		 mov	 ecx, esi
  00142	ff 15 00 00 00
	00		 call	 DWORD PTR __imp_?ShowWnd@ioWnd@@QAEXXZ
$LN4@SetBlockIn:

; 708  : 		}
; 709  : 	}
; 710  : }

  00148	8b 4d fc	 mov	 ecx, DWORD PTR __$ArrayPad$[ebp]
  0014b	5f		 pop	 edi
  0014c	5e		 pop	 esi
  0014d	33 cd		 xor	 ecx, ebp
  0014f	5b		 pop	 ebx
  00150	e8 00 00 00 00	 call	 @__security_check_cookie@4
  00155	c9		 leave
  00156	c2 04 00	 ret	 4
?SetBlockInvenItemInfo@ioHousingBlockInvenToolTip@@QAEXH@Z ENDP ; ioHousingBlockInvenToolTip::SetBlockInvenItemInfo
_TEXT	ENDS
EXTRN	__imp_?SetWndPos@ioWnd@@QAEXHH@Z:PROC
EXTRN	?GetNotCutWndPos@Help@@YAXHHHHAAH0@Z:PROC	; Help::GetNotCutWndPos
EXTRN	?SetToolTipCursor@ioLSMouse@@QAEXXZ:PROC	; ioLSMouse::SetToolTipCursor
; Function compile flags: /Ogsp
;	COMDAT ?OnProcess@ioHousingBlockInvenToolTip@@UAEXM@Z
_TEXT	SEGMENT
_nCode$516713 = -12					; size = 4
_nCode$516707 = -12					; size = 4
_iYPos$516716 = -8					; size = 4
_iXPos$516709 = -8					; size = 4
_iXPos$516715 = -4					; size = 4
_iYPos$516710 = -4					; size = 4
_fTimePerSec$ = 8					; size = 4
?OnProcess@ioHousingBlockInvenToolTip@@UAEXM@Z PROC	; ioHousingBlockInvenToolTip::OnProcess, COMDAT
; _this$ = ecx

; 713  : {

  00000	55		 push	 ebp
  00001	8b ec		 mov	 ebp, esp
  00003	83 ec 0c	 sub	 esp, 12			; 0000000cH
  00006	56		 push	 esi
  00007	57		 push	 edi
  00008	8b f9		 mov	 edi, ecx

; 714  : 	ioLSMouse *pMouse = g_App.GetMouse();

  0000a	e8 00 00 00 00	 call	 ?GetSingleton@ioApplication@@SAAAV1@XZ ; ioApplication::GetSingleton
  0000f	8b f0		 mov	 esi, eax
  00011	81 c6 90 00 00
	00		 add	 esi, 144		; 00000090H

; 715  : 	if( pMouse )

  00017	0f 84 d0 00 00
	00		 je	 $LN1@OnProcess

; 716  : 	{
; 717  : 		if( IsShow() )

  0001d	53		 push	 ebx
  0001e	8b cf		 mov	 ecx, edi
  00020	ff 15 00 00 00
	00		 call	 DWORD PTR __imp_?IsShow@ioWnd@@QBE_NXZ

; 718  : 		{
; 719  : 			int nCode = pMouse->GetToolTipWndID();
; 720  : 			if( nCode > 0 )

  00026	33 db		 xor	 ebx, ebx
  00028	84 c0		 test	 al, al
  0002a	8b 46 74	 mov	 eax, DWORD PTR [esi+116]
  0002d	89 45 f4	 mov	 DWORD PTR _nCode$516707[ebp], eax
  00030	74 5f		 je	 SHORT $LN5@OnProcess
  00032	3b c3		 cmp	 eax, ebx
  00034	7e 51		 jle	 SHORT $LN4@OnProcess

; 721  : 			{
; 722  : 				pMouse->SetToolTipWndID( 0 );
; 723  : 				pMouse->SetToolTipCursor();

  00036	8b ce		 mov	 ecx, esi
  00038	89 5e 74	 mov	 DWORD PTR [esi+116], ebx
  0003b	e8 00 00 00 00	 call	 ?SetToolTipCursor@ioLSMouse@@QAEXXZ ; ioLSMouse::SetToolTipCursor

; 724  : 				int iXPos = 0;
; 725  : 				int iYPos = 0;
; 726  : 				Help::GetNotCutWndPos( pMouse->GetMousePos().x, pMouse->GetMousePos().y, GetWidth(), GetHeight(), iXPos, iYPos );

  00040	8b ce		 mov	 ecx, esi
  00042	89 5d f8	 mov	 DWORD PTR _iXPos$516709[ebp], ebx
  00045	89 5d fc	 mov	 DWORD PTR _iYPos$516710[ebp], ebx
  00048	ff 15 00 00 00
	00		 call	 DWORD PTR __imp_?GetMousePos@ioMouse@@QBEABUtagPOINT@@XZ
  0004e	8b d8		 mov	 ebx, eax
  00050	8d 45 fc	 lea	 eax, DWORD PTR _iYPos$516710[ebp]
  00053	50		 push	 eax
  00054	8d 45 f8	 lea	 eax, DWORD PTR _iXPos$516709[ebp]
  00057	50		 push	 eax
  00058	8b cf		 mov	 ecx, edi
  0005a	ff 15 00 00 00
	00		 call	 DWORD PTR __imp_?GetHeight@ioWnd@@QBEHXZ
  00060	50		 push	 eax
  00061	8b cf		 mov	 ecx, edi
  00063	ff 15 00 00 00
	00		 call	 DWORD PTR __imp_?GetWidth@ioWnd@@QBEHXZ
  00069	50		 push	 eax
  0006a	8b ce		 mov	 ecx, esi
  0006c	ff 15 00 00 00
	00		 call	 DWORD PTR __imp_?GetMousePos@ioMouse@@QBEABUtagPOINT@@XZ
  00072	ff 70 04	 push	 DWORD PTR [eax+4]
  00075	ff 33		 push	 DWORD PTR [ebx]
  00077	e8 00 00 00 00	 call	 ?GetNotCutWndPos@Help@@YAXHHHHAAH0@Z ; Help::GetNotCutWndPos
  0007c	83 c4 18	 add	 esp, 24			; 00000018H

; 727  : 				SetWndPos( iXPos, iYPos );

  0007f	ff 75 fc	 push	 DWORD PTR _iYPos$516710[ebp]
  00082	ff 75 f8	 push	 DWORD PTR _iXPos$516709[ebp]

; 728  : 
; 729  : 				SetBlockInvenItemInfo( nCode );
; 730  : 			}
; 731  : 			else

  00085	eb 53		 jmp	 SHORT $LN18@OnProcess
$LN4@OnProcess:

; 732  : 			{
; 733  : 				HideWnd();

  00087	8b cf		 mov	 ecx, edi
  00089	ff 15 00 00 00
	00		 call	 DWORD PTR __imp_?HideWnd@ioWnd@@QAEXXZ

; 734  : 			}
; 735  : 		}
; 736  : 		else

  0008f	eb 5b		 jmp	 SHORT $LN17@OnProcess
$LN5@OnProcess:

; 737  : 		{
; 738  : 			int nCode = pMouse->GetToolTipWndID();
; 739  : 			if( nCode > 0 )

  00091	3b c3		 cmp	 eax, ebx
  00093	7e 57		 jle	 SHORT $LN17@OnProcess

; 740  : 			{
; 741  : 				int iXPos = 0;
; 742  : 				int iYPos = 0;
; 743  : 				Help::GetNotCutWndPos( pMouse->GetMousePos().x, pMouse->GetMousePos().y, GetWidth(), GetHeight(), iXPos, iYPos );

  00095	8b ce		 mov	 ecx, esi
  00097	89 5d fc	 mov	 DWORD PTR _iXPos$516715[ebp], ebx
  0009a	89 5d f8	 mov	 DWORD PTR _iYPos$516716[ebp], ebx
  0009d	ff 15 00 00 00
	00		 call	 DWORD PTR __imp_?GetMousePos@ioMouse@@QBEABUtagPOINT@@XZ
  000a3	8b d8		 mov	 ebx, eax
  000a5	8d 45 f8	 lea	 eax, DWORD PTR _iYPos$516716[ebp]
  000a8	50		 push	 eax
  000a9	8d 45 fc	 lea	 eax, DWORD PTR _iXPos$516715[ebp]
  000ac	50		 push	 eax
  000ad	8b cf		 mov	 ecx, edi
  000af	ff 15 00 00 00
	00		 call	 DWORD PTR __imp_?GetHeight@ioWnd@@QBEHXZ
  000b5	50		 push	 eax
  000b6	8b cf		 mov	 ecx, edi
  000b8	ff 15 00 00 00
	00		 call	 DWORD PTR __imp_?GetWidth@ioWnd@@QBEHXZ
  000be	50		 push	 eax
  000bf	8b ce		 mov	 ecx, esi
  000c1	ff 15 00 00 00
	00		 call	 DWORD PTR __imp_?GetMousePos@ioMouse@@QBEABUtagPOINT@@XZ
  000c7	ff 70 04	 push	 DWORD PTR [eax+4]
  000ca	ff 33		 push	 DWORD PTR [ebx]
  000cc	e8 00 00 00 00	 call	 ?GetNotCutWndPos@Help@@YAXHHHHAAH0@Z ; Help::GetNotCutWndPos
  000d1	83 c4 18	 add	 esp, 24			; 00000018H

; 744  : 				SetWndPos( iXPos, iYPos );

  000d4	ff 75 f8	 push	 DWORD PTR _iYPos$516716[ebp]
  000d7	ff 75 fc	 push	 DWORD PTR _iXPos$516715[ebp]
$LN18@OnProcess:
  000da	8b cf		 mov	 ecx, edi
  000dc	ff 15 00 00 00
	00		 call	 DWORD PTR __imp_?SetWndPos@ioWnd@@QAEXHH@Z

; 745  : 
; 746  : 				SetBlockInvenItemInfo( nCode );

  000e2	ff 75 f4	 push	 DWORD PTR _nCode$516713[ebp]
  000e5	8b cf		 mov	 ecx, edi
  000e7	e8 00 00 00 00	 call	 ?SetBlockInvenItemInfo@ioHousingBlockInvenToolTip@@QAEXH@Z ; ioHousingBlockInvenToolTip::SetBlockInvenItemInfo
$LN17@OnProcess:
  000ec	5b		 pop	 ebx
$LN1@OnProcess:
  000ed	5f		 pop	 edi
  000ee	5e		 pop	 esi

; 747  : 			}
; 748  : 		}
; 749  : 	}
; 750  : }

  000ef	c9		 leave
  000f0	c2 04 00	 ret	 4
?OnProcess@ioHousingBlockInvenToolTip@@UAEXM@Z ENDP	; ioHousingBlockInvenToolTip::OnProcess
; Function compile flags: /Ogsp
_TEXT	ENDS
;	COMDAT ?OnRender@ioHousingBlockInvenToolTip@@UAEXXZ
_TEXT	SEGMENT
?OnRender@ioHousingBlockInvenToolTip@@UAEXXZ PROC	; ioHousingBlockInvenToolTip::OnRender, COMDAT
; _this$ = ecx

; 830  : {

  00000	53		 push	 ebx
  00001	56		 push	 esi
  00002	57		 push	 edi
  00003	8b f1		 mov	 esi, ecx

; 831  : 	ioWnd::OnRender();

  00005	ff 15 00 00 00
	00		 call	 DWORD PTR __imp_?OnRender@ioWnd@@MAEXXZ

; 832  : 
; 833  : 	int iXPos, iYPos;
; 834  : 	iXPos = GetDerivedPosX();

  0000b	8b ce		 mov	 ecx, esi
  0000d	ff 15 00 00 00
	00		 call	 DWORD PTR __imp_?GetDerivedPosX@ioWnd@@QBEHXZ

; 835  : 	iYPos = GetDerivedPosY();

  00013	8b ce		 mov	 ecx, esi
  00015	8b f8		 mov	 edi, eax
  00017	ff 15 00 00 00
	00		 call	 DWORD PTR __imp_?GetDerivedPosY@ioWnd@@QBEHXZ
  0001d	8b d8		 mov	 ebx, eax

; 836  : 
; 837  : 	RenderDesc( iXPos, iYPos );

  0001f	53		 push	 ebx
  00020	57		 push	 edi
  00021	8b ce		 mov	 ecx, esi
  00023	e8 00 00 00 00	 call	 ?RenderDesc@ioHousingBlockInvenToolTip@@QAEXHH@Z ; ioHousingBlockInvenToolTip::RenderDesc

; 838  : 	PrintManual( iXPos + 14, iYPos + 99, FONT_SIZE_12 );

  00028	f3 0f 10 05 00
	00 00 00	 movss	 xmm0, DWORD PTR __real@3f19999a
  00030	51		 push	 ecx
  00031	f3 0f 11 04 24	 movss	 DWORD PTR [esp], xmm0
  00036	83 c3 63	 add	 ebx, 99			; 00000063H
  00039	53		 push	 ebx
  0003a	83 c7 0e	 add	 edi, 14			; 0000000eH
  0003d	57		 push	 edi
  0003e	8b ce		 mov	 ecx, esi
  00040	e8 00 00 00 00	 call	 ?PrintManual@ioHousingBlockInvenToolTip@@QAEXHHM@Z ; ioHousingBlockInvenToolTip::PrintManual
  00045	5f		 pop	 edi
  00046	5e		 pop	 esi
  00047	5b		 pop	 ebx

; 839  : }

  00048	c3		 ret	 0
?OnRender@ioHousingBlockInvenToolTip@@UAEXXZ ENDP	; ioHousingBlockInvenToolTip::OnRender
_TEXT	ENDS
PUBLIC	??0?$vector@UInvenBlockItem@ioUserBlockStorage@@V?$allocator@UInvenBlockItem@ioUserBlockStorage@@@std@@@std@@QAE@XZ ; std::vector<ioUserBlockStorage::InvenBlockItem,std::allocator<ioUserBlockStorage::InvenBlockItem> >::vector<ioUserBlockStorage::InvenBlockItem,std::allocator<ioUserBlockStorage::InvenBlockItem> >
; Function compile flags: /Ogsp
; File c:\program files (x86)\microsoft visual studio 10.0\vc\include\vector
;	COMDAT ??0?$vector@UInvenBlockItem@ioUserBlockStorage@@V?$allocator@UInvenBlockItem@ioUserBlockStorage@@@std@@@std@@QAE@XZ
_TEXT	SEGMENT
??0?$vector@UInvenBlockItem@ioUserBlockStorage@@V?$allocator@UInvenBlockItem@ioUserBlockStorage@@@std@@@std@@QAE@XZ PROC ; std::vector<ioUserBlockStorage::InvenBlockItem,std::allocator<ioUserBlockStorage::InvenBlockItem> >::vector<ioUserBlockStorage::InvenBlockItem,std::allocator<ioUserBlockStorage::InvenBlockItem> >, COMDAT
; _this$ = ecx

; 507  : 		{	// construct empty vector

  00000	8b c1		 mov	 eax, ecx
  00002	33 c9		 xor	 ecx, ecx
  00004	89 08		 mov	 DWORD PTR [eax], ecx
  00006	89 48 04	 mov	 DWORD PTR [eax+4], ecx
  00009	89 48 08	 mov	 DWORD PTR [eax+8], ecx

; 508  : 		}

  0000c	c3		 ret	 0
??0?$vector@UInvenBlockItem@ioUserBlockStorage@@V?$allocator@UInvenBlockItem@ioUserBlockStorage@@@std@@@std@@QAE@XZ ENDP ; std::vector<ioUserBlockStorage::InvenBlockItem,std::allocator<ioUserBlockStorage::InvenBlockItem> >::vector<ioUserBlockStorage::InvenBlockItem,std::allocator<ioUserBlockStorage::InvenBlockItem> >
_TEXT	ENDS
PUBLIC	??$_Cons_val@V?$allocator@UInvenBlockItem@ioUserBlockStorage@@@std@@UInvenBlockItem@ioUserBlockStorage@@AAU34@@std@@YAXAAV?$allocator@UInvenBlockItem@ioUserBlockStorage@@@0@PAUInvenBlockItem@ioUserBlockStorage@@AAU23@@Z ; std::_Cons_val<std::allocator<ioUserBlockStorage::InvenBlockItem>,ioUserBlockStorage::InvenBlockItem,ioUserBlockStorage::InvenBlockItem &>
;	COMDAT xdata$x
; File c:\program files (x86)\microsoft visual studio 10.0\vc\include\utility
xdata$x	SEGMENT
__unwindtable$??$_Cons_val@V?$allocator@UInvenBlockItem@ioUserBlockStorage@@@std@@UInvenBlockItem@ioUserBlockStorage@@AAU34@@std@@YAXAAV?$allocator@UInvenBlockItem@ioUserBlockStorage@@@0@PAUInvenBlockItem@ioUserBlockStorage@@AAU23@@Z DD 0ffffffffH
	DD	FLAT:__unwindfunclet$??$_Cons_val@V?$allocator@UInvenBlockItem@ioUserBlockStorage@@@std@@UInvenBlockItem@ioUserBlockStorage@@AAU34@@std@@YAXAAV?$allocator@UInvenBlockItem@ioUserBlockStorage@@@0@PAUInvenBlockItem@ioUserBlockStorage@@AAU23@@Z$0
__ehfuncinfo$??$_Cons_val@V?$allocator@UInvenBlockItem@ioUserBlockStorage@@@std@@UInvenBlockItem@ioUserBlockStorage@@AAU34@@std@@YAXAAV?$allocator@UInvenBlockItem@ioUserBlockStorage@@@0@PAUInvenBlockItem@ioUserBlockStorage@@AAU23@@Z DD 019930522H
	DD	01H
	DD	FLAT:__unwindtable$??$_Cons_val@V?$allocator@UInvenBlockItem@ioUserBlockStorage@@@std@@UInvenBlockItem@ioUserBlockStorage@@AAU34@@std@@YAXAAV?$allocator@UInvenBlockItem@ioUserBlockStorage@@@0@PAUInvenBlockItem@ioUserBlockStorage@@AAU23@@Z
	DD	2 DUP(00H)
	DD	2 DUP(00H)
	DD	00H
	DD	01H
; Function compile flags: /Ogsp
; File c:\program files (x86)\microsoft visual studio 10.0\vc\include\xmemory
xdata$x	ENDS
;	COMDAT ??$_Cons_val@V?$allocator@UInvenBlockItem@ioUserBlockStorage@@@std@@UInvenBlockItem@ioUserBlockStorage@@AAU34@@std@@YAXAAV?$allocator@UInvenBlockItem@ioUserBlockStorage@@@0@PAUInvenBlockItem@ioUserBlockStorage@@AAU23@@Z
_TEXT	SEGMENT
$T519307 = -16						; size = 4
__$EHRec$ = -12						; size = 12
__Alval$ = 8						; size = 4
__Pdest$ = 12						; size = 4
__Src$ = 16						; size = 4
??$_Cons_val@V?$allocator@UInvenBlockItem@ioUserBlockStorage@@@std@@UInvenBlockItem@ioUserBlockStorage@@AAU34@@std@@YAXAAV?$allocator@UInvenBlockItem@ioUserBlockStorage@@@0@PAUInvenBlockItem@ioUserBlockStorage@@AAU23@@Z PROC ; std::_Cons_val<std::allocator<ioUserBlockStorage::InvenBlockItem>,ioUserBlockStorage::InvenBlockItem,ioUserBlockStorage::InvenBlockItem &>, COMDAT

; 279  : 	{	// construct using allocator

  00000	6a 04		 push	 4
  00002	b8 00 00 00 00	 mov	 eax, __ehhandler$??$_Cons_val@V?$allocator@UInvenBlockItem@ioUserBlockStorage@@@std@@UInvenBlockItem@ioUserBlockStorage@@AAU34@@std@@YAXAAV?$allocator@UInvenBlockItem@ioUserBlockStorage@@@0@PAUInvenBlockItem@ioUserBlockStorage@@AAU23@@Z
  00007	e8 00 00 00 00	 call	 __EH_prolog3

; 280  : 	_Alval.construct(_Pdest, _STD forward<_Ty2>(_Src));

  0000c	8b 4d 0c	 mov	 ecx, DWORD PTR __Pdest$[ebp]
  0000f	89 4d f0	 mov	 DWORD PTR $T519307[ebp], ecx
  00012	83 65 fc 00	 and	 DWORD PTR __$EHRec$[ebp+8], 0
  00016	85 c9		 test	 ecx, ecx
  00018	74 08		 je	 SHORT $LN7@Cons_val
  0001a	ff 75 10	 push	 DWORD PTR __Src$[ebp]
  0001d	e8 00 00 00 00	 call	 ??0InvenBlockItem@ioUserBlockStorage@@QAE@ABU01@@Z
$LN7@Cons_val:

; 281  : 	}

  00022	e8 00 00 00 00	 call	 __EH_epilog3
  00027	c3		 ret	 0
_TEXT	ENDS
;	COMDAT text$x
text$x	SEGMENT
__unwindfunclet$??$_Cons_val@V?$allocator@UInvenBlockItem@ioUserBlockStorage@@@std@@UInvenBlockItem@ioUserBlockStorage@@AAU34@@std@@YAXAAV?$allocator@UInvenBlockItem@ioUserBlockStorage@@@0@PAUInvenBlockItem@ioUserBlockStorage@@AAU23@@Z$0:
  00000	ff 75 0c	 push	 DWORD PTR __Pdest$[ebp]
  00003	ff 75 f0	 push	 DWORD PTR $T519307[ebp]
  00006	e8 00 00 00 00	 call	 ??3@YAXPAX0@Z		; operator delete
  0000b	59		 pop	 ecx
  0000c	59		 pop	 ecx
  0000d	c3		 ret	 0
__ehhandler$??$_Cons_val@V?$allocator@UInvenBlockItem@ioUserBlockStorage@@@std@@UInvenBlockItem@ioUserBlockStorage@@AAU34@@std@@YAXAAV?$allocator@UInvenBlockItem@ioUserBlockStorage@@@0@PAUInvenBlockItem@ioUserBlockStorage@@AAU23@@Z:
  0000e	8b 54 24 08	 mov	 edx, DWORD PTR [esp+8]
  00012	8d 42 0c	 lea	 eax, DWORD PTR [edx+12]
  00015	8b 4a ec	 mov	 ecx, DWORD PTR [edx-20]
  00018	33 c8		 xor	 ecx, eax
  0001a	e8 00 00 00 00	 call	 @__security_check_cookie@4
  0001f	b8 00 00 00 00	 mov	 eax, OFFSET __ehfuncinfo$??$_Cons_val@V?$allocator@UInvenBlockItem@ioUserBlockStorage@@@std@@UInvenBlockItem@ioUserBlockStorage@@AAU34@@std@@YAXAAV?$allocator@UInvenBlockItem@ioUserBlockStorage@@@0@PAUInvenBlockItem@ioUserBlockStorage@@AAU23@@Z
  00024	e9 00 00 00 00	 jmp	 ___CxxFrameHandler3
text$x	ENDS
??$_Cons_val@V?$allocator@UInvenBlockItem@ioUserBlockStorage@@@std@@UInvenBlockItem@ioUserBlockStorage@@AAU34@@std@@YAXAAV?$allocator@UInvenBlockItem@ioUserBlockStorage@@@0@PAUInvenBlockItem@ioUserBlockStorage@@AAU23@@Z ENDP ; std::_Cons_val<std::allocator<ioUserBlockStorage::InvenBlockItem>,ioUserBlockStorage::InvenBlockItem,ioUserBlockStorage::InvenBlockItem &>
PUBLIC	?construct@?$allocator@UInvenBlockItem@ioUserBlockStorage@@@std@@QAEXPAUInvenBlockItem@ioUserBlockStorage@@ABU34@@Z ; std::allocator<ioUserBlockStorage::InvenBlockItem>::construct
; Function compile flags: /Ogsp
;	COMDAT ?construct@?$allocator@UInvenBlockItem@ioUserBlockStorage@@@std@@QAEXPAUInvenBlockItem@ioUserBlockStorage@@ABU34@@Z
_TEXT	SEGMENT
__Ptr$ = 8						; size = 4
__Val$ = 12						; size = 4
?construct@?$allocator@UInvenBlockItem@ioUserBlockStorage@@@std@@QAEXPAUInvenBlockItem@ioUserBlockStorage@@ABU34@@Z PROC ; std::allocator<ioUserBlockStorage::InvenBlockItem>::construct, COMDAT
; _this$ = ecx

; 196  : 		{	// construct object at _Ptr with value _Val

  00000	55		 push	 ebp
  00001	8b ec		 mov	 ebp, esp

; 197  : 		_Construct(_Ptr, _Val);

  00003	ff 75 0c	 push	 DWORD PTR __Val$[ebp]
  00006	ff 75 08	 push	 DWORD PTR __Ptr$[ebp]
  00009	e8 00 00 00 00	 call	 ??$_Construct@UInvenBlockItem@ioUserBlockStorage@@ABU12@@std@@YAXPAUInvenBlockItem@ioUserBlockStorage@@ABU12@@Z ; std::_Construct<ioUserBlockStorage::InvenBlockItem,ioUserBlockStorage::InvenBlockItem const &>
  0000e	59		 pop	 ecx
  0000f	59		 pop	 ecx

; 198  : 		}

  00010	5d		 pop	 ebp
  00011	c2 08 00	 ret	 8
?construct@?$allocator@UInvenBlockItem@ioUserBlockStorage@@@std@@QAEXPAUInvenBlockItem@ioUserBlockStorage@@ABU34@@Z ENDP ; std::allocator<ioUserBlockStorage::InvenBlockItem>::construct
_TEXT	ENDS
PUBLIC	??$_Transform@PADV?$_String_iterator@DU?$char_traits@D@std@@V?$allocator@D@2@@std@@P6AHH@Z@std@@YA?AV?$_String_iterator@DU?$char_traits@D@std@@V?$allocator@D@2@@0@PAD0V10@P6AHH@Z@Z ; std::_Transform<char *,std::_String_iterator<char,std::char_traits<char>,std::allocator<char> >,int (__cdecl*)(int)>
; Function compile flags: /Ogsp
; File c:\program files (x86)\microsoft visual studio 10.0\vc\include\algorithm
;	COMDAT ??$_Transform@PADV?$_String_iterator@DU?$char_traits@D@std@@V?$allocator@D@2@@std@@P6AHH@Z@std@@YA?AV?$_String_iterator@DU?$char_traits@D@std@@V?$allocator@D@2@@0@PAD0V10@P6AHH@Z@Z
_TEXT	SEGMENT
___$ReturnUdt$ = 8					; size = 4
__First$ = 12						; size = 4
__Last$ = 16						; size = 4
__Dest$ = 20						; size = 4
__Func$ = 24						; size = 4
??$_Transform@PADV?$_String_iterator@DU?$char_traits@D@std@@V?$allocator@D@2@@std@@P6AHH@Z@std@@YA?AV?$_String_iterator@DU?$char_traits@D@std@@V?$allocator@D@2@@0@PAD0V10@P6AHH@Z@Z PROC ; std::_Transform<char *,std::_String_iterator<char,std::char_traits<char>,std::allocator<char> >,int (__cdecl*)(int)>, COMDAT

; 1041 : 	{	// transform [_First, _Last) with _Func

  00000	55		 push	 ebp
  00001	8b ec		 mov	 ebp, esp
  00003	56		 push	 esi

; 1042 : 	for (; _First != _Last; ++_First, ++_Dest)

  00004	8b 75 0c	 mov	 esi, DWORD PTR __First$[ebp]
  00007	3b 75 10	 cmp	 esi, DWORD PTR __Last$[ebp]
  0000a	74 18		 je	 SHORT $LN16@Transform
  0000c	57		 push	 edi
$LL8@Transform:

; 1043 : 		*_Dest = _Func(*_First);

  0000d	0f be 06	 movsx	 eax, BYTE PTR [esi]
  00010	8b 7d 14	 mov	 edi, DWORD PTR __Dest$[ebp]
  00013	50		 push	 eax
  00014	ff 55 18	 call	 DWORD PTR __Func$[ebp]
  00017	46		 inc	 esi
  00018	88 07		 mov	 BYTE PTR [edi], al
  0001a	ff 45 14	 inc	 DWORD PTR __Dest$[ebp]
  0001d	59		 pop	 ecx
  0001e	3b 75 10	 cmp	 esi, DWORD PTR __Last$[ebp]
  00021	75 ea		 jne	 SHORT $LL8@Transform
  00023	5f		 pop	 edi
$LN16@Transform:

; 1044 : 	return (_Dest);

  00024	8b 45 08	 mov	 eax, DWORD PTR ___$ReturnUdt$[ebp]
  00027	8b 4d 14	 mov	 ecx, DWORD PTR __Dest$[ebp]
  0002a	89 08		 mov	 DWORD PTR [eax], ecx
  0002c	5e		 pop	 esi

; 1045 : 	}

  0002d	5d		 pop	 ebp
  0002e	c3		 ret	 0
??$_Transform@PADV?$_String_iterator@DU?$char_traits@D@std@@V?$allocator@D@2@@std@@P6AHH@Z@std@@YA?AV?$_String_iterator@DU?$char_traits@D@std@@V?$allocator@D@2@@0@PAD0V10@P6AHH@Z@Z ENDP ; std::_Transform<char *,std::_String_iterator<char,std::char_traits<char>,std::allocator<char> >,int (__cdecl*)(int)>
_TEXT	ENDS
PUBLIC	??$_Cons_val@V?$allocator@UInvenBlockItem@ioUserBlockStorage@@@std@@UInvenBlockItem@ioUserBlockStorage@@U34@@std@@YAXAAV?$allocator@UInvenBlockItem@ioUserBlockStorage@@@0@PAUInvenBlockItem@ioUserBlockStorage@@$$QAU23@@Z ; std::_Cons_val<std::allocator<ioUserBlockStorage::InvenBlockItem>,ioUserBlockStorage::InvenBlockItem,ioUserBlockStorage::InvenBlockItem>
;	COMDAT xdata$x
; File c:\program files (x86)\microsoft visual studio 10.0\vc\include\utility
xdata$x	SEGMENT
__unwindtable$??$_Cons_val@V?$allocator@UInvenBlockItem@ioUserBlockStorage@@@std@@UInvenBlockItem@ioUserBlockStorage@@U34@@std@@YAXAAV?$allocator@UInvenBlockItem@ioUserBlockStorage@@@0@PAUInvenBlockItem@ioUserBlockStorage@@$$QAU23@@Z DD 0ffffffffH
	DD	FLAT:__unwindfunclet$??$_Cons_val@V?$allocator@UInvenBlockItem@ioUserBlockStorage@@@std@@UInvenBlockItem@ioUserBlockStorage@@U34@@std@@YAXAAV?$allocator@UInvenBlockItem@ioUserBlockStorage@@@0@PAUInvenBlockItem@ioUserBlockStorage@@$$QAU23@@Z$0
__ehfuncinfo$??$_Cons_val@V?$allocator@UInvenBlockItem@ioUserBlockStorage@@@std@@UInvenBlockItem@ioUserBlockStorage@@U34@@std@@YAXAAV?$allocator@UInvenBlockItem@ioUserBlockStorage@@@0@PAUInvenBlockItem@ioUserBlockStorage@@$$QAU23@@Z DD 019930522H
	DD	01H
	DD	FLAT:__unwindtable$??$_Cons_val@V?$allocator@UInvenBlockItem@ioUserBlockStorage@@@std@@UInvenBlockItem@ioUserBlockStorage@@U34@@std@@YAXAAV?$allocator@UInvenBlockItem@ioUserBlockStorage@@@0@PAUInvenBlockItem@ioUserBlockStorage@@$$QAU23@@Z
	DD	2 DUP(00H)
	DD	2 DUP(00H)
	DD	00H
	DD	01H
; Function compile flags: /Ogsp
; File c:\program files (x86)\microsoft visual studio 10.0\vc\include\xmemory
xdata$x	ENDS
;	COMDAT ??$_Cons_val@V?$allocator@UInvenBlockItem@ioUserBlockStorage@@@std@@UInvenBlockItem@ioUserBlockStorage@@U34@@std@@YAXAAV?$allocator@UInvenBlockItem@ioUserBlockStorage@@@0@PAUInvenBlockItem@ioUserBlockStorage@@$$QAU23@@Z
_TEXT	SEGMENT
$T519364 = -16						; size = 4
__$EHRec$ = -12						; size = 12
__Alval$ = 8						; size = 4
__Pdest$ = 12						; size = 4
__Src$ = 16						; size = 4
??$_Cons_val@V?$allocator@UInvenBlockItem@ioUserBlockStorage@@@std@@UInvenBlockItem@ioUserBlockStorage@@U34@@std@@YAXAAV?$allocator@UInvenBlockItem@ioUserBlockStorage@@@0@PAUInvenBlockItem@ioUserBlockStorage@@$$QAU23@@Z PROC ; std::_Cons_val<std::allocator<ioUserBlockStorage::InvenBlockItem>,ioUserBlockStorage::InvenBlockItem,ioUserBlockStorage::InvenBlockItem>, COMDAT

; 279  : 	{	// construct using allocator

  00000	6a 04		 push	 4
  00002	b8 00 00 00 00	 mov	 eax, __ehhandler$??$_Cons_val@V?$allocator@UInvenBlockItem@ioUserBlockStorage@@@std@@UInvenBlockItem@ioUserBlockStorage@@U34@@std@@YAXAAV?$allocator@UInvenBlockItem@ioUserBlockStorage@@@0@PAUInvenBlockItem@ioUserBlockStorage@@$$QAU23@@Z
  00007	e8 00 00 00 00	 call	 __EH_prolog3

; 280  : 	_Alval.construct(_Pdest, _STD forward<_Ty2>(_Src));

  0000c	8b 4d 0c	 mov	 ecx, DWORD PTR __Pdest$[ebp]
  0000f	89 4d f0	 mov	 DWORD PTR $T519364[ebp], ecx
  00012	83 65 fc 00	 and	 DWORD PTR __$EHRec$[ebp+8], 0
  00016	85 c9		 test	 ecx, ecx
  00018	74 08		 je	 SHORT $LN7@Cons_val@2
  0001a	ff 75 10	 push	 DWORD PTR __Src$[ebp]
  0001d	e8 00 00 00 00	 call	 ??0InvenBlockItem@ioUserBlockStorage@@QAE@ABU01@@Z
$LN7@Cons_val@2:

; 281  : 	}

  00022	e8 00 00 00 00	 call	 __EH_epilog3
  00027	c3		 ret	 0
_TEXT	ENDS
;	COMDAT text$x
text$x	SEGMENT
__unwindfunclet$??$_Cons_val@V?$allocator@UInvenBlockItem@ioUserBlockStorage@@@std@@UInvenBlockItem@ioUserBlockStorage@@U34@@std@@YAXAAV?$allocator@UInvenBlockItem@ioUserBlockStorage@@@0@PAUInvenBlockItem@ioUserBlockStorage@@$$QAU23@@Z$0:
  00000	ff 75 0c	 push	 DWORD PTR __Pdest$[ebp]
  00003	ff 75 f0	 push	 DWORD PTR $T519364[ebp]
  00006	e8 00 00 00 00	 call	 ??3@YAXPAX0@Z		; operator delete
  0000b	59		 pop	 ecx
  0000c	59		 pop	 ecx
  0000d	c3		 ret	 0
__ehhandler$??$_Cons_val@V?$allocator@UInvenBlockItem@ioUserBlockStorage@@@std@@UInvenBlockItem@ioUserBlockStorage@@U34@@std@@YAXAAV?$allocator@UInvenBlockItem@ioUserBlockStorage@@@0@PAUInvenBlockItem@ioUserBlockStorage@@$$QAU23@@Z:
  0000e	8b 54 24 08	 mov	 edx, DWORD PTR [esp+8]
  00012	8d 42 0c	 lea	 eax, DWORD PTR [edx+12]
  00015	8b 4a ec	 mov	 ecx, DWORD PTR [edx-20]
  00018	33 c8		 xor	 ecx, eax
  0001a	e8 00 00 00 00	 call	 @__security_check_cookie@4
  0001f	b8 00 00 00 00	 mov	 eax, OFFSET __ehfuncinfo$??$_Cons_val@V?$allocator@UInvenBlockItem@ioUserBlockStorage@@@std@@UInvenBlockItem@ioUserBlockStorage@@U34@@std@@YAXAAV?$allocator@UInvenBlockItem@ioUserBlockStorage@@@0@PAUInvenBlockItem@ioUserBlockStorage@@$$QAU23@@Z
  00024	e9 00 00 00 00	 jmp	 ___CxxFrameHandler3
text$x	ENDS
??$_Cons_val@V?$allocator@UInvenBlockItem@ioUserBlockStorage@@@std@@UInvenBlockItem@ioUserBlockStorage@@U34@@std@@YAXAAV?$allocator@UInvenBlockItem@ioUserBlockStorage@@@0@PAUInvenBlockItem@ioUserBlockStorage@@$$QAU23@@Z ENDP ; std::_Cons_val<std::allocator<ioUserBlockStorage::InvenBlockItem>,ioUserBlockStorage::InvenBlockItem,ioUserBlockStorage::InvenBlockItem>
PUBLIC	??$_Destroy@UInvenBlockItem@ioUserBlockStorage@@@std@@YAXPAUInvenBlockItem@ioUserBlockStorage@@@Z ; std::_Destroy<ioUserBlockStorage::InvenBlockItem>
; Function compile flags: /Ogsp
;	COMDAT ??$_Destroy@UInvenBlockItem@ioUserBlockStorage@@@std@@YAXPAUInvenBlockItem@ioUserBlockStorage@@@Z
_TEXT	SEGMENT
__Ptr$ = 8						; size = 4
??$_Destroy@UInvenBlockItem@ioUserBlockStorage@@@std@@YAXPAUInvenBlockItem@ioUserBlockStorage@@@Z PROC ; std::_Destroy<ioUserBlockStorage::InvenBlockItem>, COMDAT

; 62   : 	{	// destroy object at _Ptr

  00000	55		 push	 ebp
  00001	8b ec		 mov	 ebp, esp

; 63   : 	_Ptr->~_Ty();

  00003	8b 4d 08	 mov	 ecx, DWORD PTR __Ptr$[ebp]

; 64   : 	}

  00006	5d		 pop	 ebp

; 63   : 	_Ptr->~_Ty();

  00007	e9 00 00 00 00	 jmp	 ??1InvenBlockItem@ioUserBlockStorage@@QAE@XZ
??$_Destroy@UInvenBlockItem@ioUserBlockStorage@@@std@@YAXPAUInvenBlockItem@ioUserBlockStorage@@@Z ENDP ; std::_Destroy<ioUserBlockStorage::InvenBlockItem>
_TEXT	ENDS
PUBLIC	?begin@?$basic_string@DU?$char_traits@D@std@@V?$allocator@D@2@@std@@QAE?AV?$_String_iterator@DU?$char_traits@D@std@@V?$allocator@D@2@@2@XZ ; std::basic_string<char,std::char_traits<char>,std::allocator<char> >::begin
; Function compile flags: /Ogsp
; File c:\program files (x86)\microsoft visual studio 10.0\vc\include\xstring
;	COMDAT ?begin@?$basic_string@DU?$char_traits@D@std@@V?$allocator@D@2@@std@@QAE?AV?$_String_iterator@DU?$char_traits@D@std@@V?$allocator@D@2@@2@XZ
_TEXT	SEGMENT
___$ReturnUdt$ = 8					; size = 4
?begin@?$basic_string@DU?$char_traits@D@std@@V?$allocator@D@2@@std@@QAE?AV?$_String_iterator@DU?$char_traits@D@std@@V?$allocator@D@2@@2@XZ PROC ; std::basic_string<char,std::char_traits<char>,std::allocator<char> >::begin, COMDAT
; _this$ = ecx

; 1351 : 		{	// return iterator for beginning of mutable sequence

  00000	55		 push	 ebp
  00001	8b ec		 mov	 ebp, esp

; 1352 : 		return (_STRING_ITERATOR(_Myptr()));

  00003	83 79 14 10	 cmp	 DWORD PTR [ecx+20], 16	; 00000010H
  00007	72 02		 jb	 SHORT $LN5@begin
  00009	8b 09		 mov	 ecx, DWORD PTR [ecx]
$LN5@begin:
  0000b	8b 45 08	 mov	 eax, DWORD PTR ___$ReturnUdt$[ebp]
  0000e	89 08		 mov	 DWORD PTR [eax], ecx

; 1353 : 		}

  00010	5d		 pop	 ebp
  00011	c2 04 00	 ret	 4
?begin@?$basic_string@DU?$char_traits@D@std@@V?$allocator@D@2@@std@@QAE?AV?$_String_iterator@DU?$char_traits@D@std@@V?$allocator@D@2@@2@XZ ENDP ; std::basic_string<char,std::char_traits<char>,std::allocator<char> >::begin
_TEXT	ENDS
PUBLIC	?end@?$basic_string@DU?$char_traits@D@std@@V?$allocator@D@2@@std@@QAE?AV?$_String_iterator@DU?$char_traits@D@std@@V?$allocator@D@2@@2@XZ ; std::basic_string<char,std::char_traits<char>,std::allocator<char> >::end
; Function compile flags: /Ogsp
;	COMDAT ?end@?$basic_string@DU?$char_traits@D@std@@V?$allocator@D@2@@std@@QAE?AV?$_String_iterator@DU?$char_traits@D@std@@V?$allocator@D@2@@2@XZ
_TEXT	SEGMENT
___$ReturnUdt$ = 8					; size = 4
?end@?$basic_string@DU?$char_traits@D@std@@V?$allocator@D@2@@std@@QAE?AV?$_String_iterator@DU?$char_traits@D@std@@V?$allocator@D@2@@2@XZ PROC ; std::basic_string<char,std::char_traits<char>,std::allocator<char> >::end, COMDAT
; _this$ = ecx

; 1361 : 		{	// return iterator for end of mutable sequence

  00000	55		 push	 ebp
  00001	8b ec		 mov	 ebp, esp

; 1362 : 		return (_STRING_ITERATOR(_Myptr() + this->_Mysize));

  00003	83 79 14 10	 cmp	 DWORD PTR [ecx+20], 16	; 00000010H
  00007	72 04		 jb	 SHORT $LN5@end
  00009	8b 01		 mov	 eax, DWORD PTR [ecx]
  0000b	eb 02		 jmp	 SHORT $LN6@end
$LN5@end:
  0000d	8b c1		 mov	 eax, ecx
$LN6@end:
  0000f	8b 49 10	 mov	 ecx, DWORD PTR [ecx+16]
  00012	03 c8		 add	 ecx, eax
  00014	8b 45 08	 mov	 eax, DWORD PTR ___$ReturnUdt$[ebp]
  00017	89 08		 mov	 DWORD PTR [eax], ecx

; 1363 : 		}

  00019	5d		 pop	 ebp
  0001a	c2 04 00	 ret	 4
?end@?$basic_string@DU?$char_traits@D@std@@V?$allocator@D@2@@std@@QAE?AV?$_String_iterator@DU?$char_traits@D@std@@V?$allocator@D@2@@2@XZ ENDP ; std::basic_string<char,std::char_traits<char>,std::allocator<char> >::end
_TEXT	ENDS
PUBLIC	?_Tidy@?$basic_string@DU?$char_traits@D@std@@V?$allocator@D@2@@std@@QAEX_NI@Z ; std::basic_string<char,std::char_traits<char>,std::allocator<char> >::_Tidy
; Function compile flags: /Ogsp
;	COMDAT ?_Tidy@?$basic_string@DU?$char_traits@D@std@@V?$allocator@D@2@@std@@QAEX_NI@Z
_TEXT	SEGMENT
__Built$ = 8						; size = 1
__Newsize$ = 12						; size = 4
?_Tidy@?$basic_string@DU?$char_traits@D@std@@V?$allocator@D@2@@std@@QAEX_NI@Z PROC ; std::basic_string<char,std::char_traits<char>,std::allocator<char> >::_Tidy, COMDAT
; _this$ = ecx

; 1988 : 		{	// initialize buffer, deallocating any storage

  00000	55		 push	 ebp
  00001	8b ec		 mov	 ebp, esp

; 1989 : 		if (!_Built)

  00003	80 7d 08 00	 cmp	 BYTE PTR __Built$[ebp], 0
  00007	56		 push	 esi
  00008	57		 push	 edi
  00009	8b 7d 0c	 mov	 edi, DWORD PTR __Newsize$[ebp]
  0000c	8b f1		 mov	 esi, ecx
  0000e	74 20		 je	 SHORT $LN9@Tidy

; 1990 : 			;
; 1991 : 		else if (this->_BUF_SIZE <= this->_Myres)

  00010	83 7e 14 10	 cmp	 DWORD PTR [esi+20], 16	; 00000010H
  00014	72 1a		 jb	 SHORT $LN9@Tidy

; 1992 : 			{	// copy any leftovers to small buffer and deallocate
; 1993 : 			_Elem *_Ptr = this->_Bx._Ptr;

  00016	53		 push	 ebx
  00017	8b 1e		 mov	 ebx, DWORD PTR [esi]

; 1994 : 			if (0 < _Newsize)

  00019	85 ff		 test	 edi, edi
  0001b	74 0b		 je	 SHORT $LN7@Tidy

; 1995 : 				_Traits::copy(this->_Bx._Buf, _Ptr, _Newsize);

  0001d	57		 push	 edi
  0001e	53		 push	 ebx
  0001f	56		 push	 esi
  00020	e8 00 00 00 00	 call	 _memcpy
  00025	83 c4 0c	 add	 esp, 12			; 0000000cH
$LN7@Tidy:

; 1996 : 			this->_Alval.deallocate(_Ptr, this->_Myres + 1);

  00028	53		 push	 ebx
  00029	e8 00 00 00 00	 call	 ??3@YAXPAX@Z		; operator delete
  0002e	59		 pop	 ecx
  0002f	5b		 pop	 ebx
$LN9@Tidy:

; 1997 : 			}
; 1998 : 		this->_Myres = this->_BUF_SIZE - 1;
; 1999 : 		_Eos(_Newsize);

  00030	89 7e 10	 mov	 DWORD PTR [esi+16], edi
  00033	c7 46 14 0f 00
	00 00		 mov	 DWORD PTR [esi+20], 15	; 0000000fH
  0003a	c6 04 37 00	 mov	 BYTE PTR [edi+esi], 0
  0003e	5f		 pop	 edi
  0003f	5e		 pop	 esi

; 2000 : 		}

  00040	5d		 pop	 ebp
  00041	c2 08 00	 ret	 8
?_Tidy@?$basic_string@DU?$char_traits@D@std@@V?$allocator@D@2@@std@@QAEX_NI@Z ENDP ; std::basic_string<char,std::char_traits<char>,std::allocator<char> >::_Tidy
_TEXT	ENDS
PUBLIC	?erase@?$basic_string@DU?$char_traits@D@std@@V?$allocator@D@2@@std@@QAEAAV12@II@Z ; std::basic_string<char,std::char_traits<char>,std::allocator<char> >::erase
; Function compile flags: /Ogsp
;	COMDAT ?erase@?$basic_string@DU?$char_traits@D@std@@V?$allocator@D@2@@std@@QAEAAV12@II@Z
_TEXT	SEGMENT
__Off$ = 8						; size = 4
__Count$ = 12						; size = 4
?erase@?$basic_string@DU?$char_traits@D@std@@V?$allocator@D@2@@std@@QAEAAV12@II@Z PROC ; std::basic_string<char,std::char_traits<char>,std::allocator<char> >::erase, COMDAT
; _this$ = ecx

; 1109 : 		{	// erase elements [_Off, _Off + _Count)

  00000	55		 push	 ebp
  00001	8b ec		 mov	 ebp, esp
  00003	53		 push	 ebx
  00004	56		 push	 esi
  00005	8b f1		 mov	 esi, ecx

; 1110 : 		if (this->_Mysize < _Off)

  00007	8b 46 10	 mov	 eax, DWORD PTR [esi+16]
  0000a	8b 4d 08	 mov	 ecx, DWORD PTR __Off$[ebp]
  0000d	3b c1		 cmp	 eax, ecx
  0000f	73 0b		 jae	 SHORT $LN3@erase

; 1111 : 			_Xran();	// _Off off end

  00011	68 00 00 00 00	 push	 OFFSET ??_C@_0BI@CFPLBAOH@invalid?5string?5position?$AA@
  00016	ff 15 00 00 00
	00		 call	 DWORD PTR __imp_?_Xout_of_range@std@@YAXPBD@Z
$LN28@erase:
$LN3@erase:

; 1112 : 		if (this->_Mysize - _Off < _Count)

  0001c	8b 5d 0c	 mov	 ebx, DWORD PTR __Count$[ebp]
  0001f	2b c1		 sub	 eax, ecx
  00021	3b c3		 cmp	 eax, ebx

; 1113 : 			_Count = this->_Mysize - _Off;	// trim _Count

  00023	0f 42 d8	 cmovb	 ebx, eax

; 1114 : 		if (0 < _Count)

  00026	85 db		 test	 ebx, ebx
  00028	74 47		 je	 SHORT $LN25@erase

; 1115 : 			{	// move elements down
; 1116 : 			_Traits::move(_Myptr() + _Off, _Myptr() + _Off + _Count,
; 1117 : 				this->_Mysize - _Off - _Count);

  0002a	8b 56 14	 mov	 edx, DWORD PTR [esi+20]
  0002d	57		 push	 edi
  0002e	83 fa 10	 cmp	 edx, 16			; 00000010H
  00031	72 04		 jb	 SHORT $LN11@erase
  00033	8b 3e		 mov	 edi, DWORD PTR [esi]
  00035	eb 02		 jmp	 SHORT $LN12@erase
$LN11@erase:
  00037	8b fe		 mov	 edi, esi
$LN12@erase:
  00039	83 fa 10	 cmp	 edx, 16			; 00000010H
  0003c	72 04		 jb	 SHORT $LN15@erase
  0003e	8b 16		 mov	 edx, DWORD PTR [esi]
  00040	eb 02		 jmp	 SHORT $LN16@erase
$LN15@erase:
  00042	8b d6		 mov	 edx, esi
$LN16@erase:
  00044	2b c3		 sub	 eax, ebx
  00046	03 f9		 add	 edi, ecx
  00048	50		 push	 eax
  00049	03 fb		 add	 edi, ebx
  0004b	03 d1		 add	 edx, ecx
  0004d	57		 push	 edi
  0004e	52		 push	 edx
  0004f	ff 15 00 00 00
	00		 call	 DWORD PTR __imp__memmove

; 1118 : 			size_type _Newsize = this->_Mysize - _Count;

  00055	8b 46 10	 mov	 eax, DWORD PTR [esi+16]
  00058	83 c4 0c	 add	 esp, 12			; 0000000cH
  0005b	2b c3		 sub	 eax, ebx

; 1119 : 			_Eos(_Newsize);

  0005d	83 7e 14 10	 cmp	 DWORD PTR [esi+20], 16	; 00000010H
  00061	89 46 10	 mov	 DWORD PTR [esi+16], eax
  00064	5f		 pop	 edi
  00065	72 04		 jb	 SHORT $LN23@erase
  00067	8b 0e		 mov	 ecx, DWORD PTR [esi]
  00069	eb 02		 jmp	 SHORT $LN24@erase
$LN23@erase:
  0006b	8b ce		 mov	 ecx, esi
$LN24@erase:
  0006d	c6 04 01 00	 mov	 BYTE PTR [ecx+eax], 0
$LN25@erase:

; 1120 : 			}
; 1121 : 		return (*this);

  00071	8b c6		 mov	 eax, esi
  00073	5e		 pop	 esi
  00074	5b		 pop	 ebx

; 1122 : 		}

  00075	5d		 pop	 ebp
  00076	c2 08 00	 ret	 8
$LN27@erase:
?erase@?$basic_string@DU?$char_traits@D@std@@V?$allocator@D@2@@std@@QAEAAV12@II@Z ENDP ; std::basic_string<char,std::char_traits<char>,std::allocator<char> >::erase
_TEXT	ENDS
PUBLIC	??9?$_String_const_iterator@DU?$char_traits@D@std@@V?$allocator@D@2@@std@@QBE_NABV01@@Z ; std::_String_const_iterator<char,std::char_traits<char>,std::allocator<char> >::operator!=
; Function compile flags: /Ogsp
;	COMDAT ??9?$_String_const_iterator@DU?$char_traits@D@std@@V?$allocator@D@2@@std@@QBE_NABV01@@Z
_TEXT	SEGMENT
__Right$ = 8						; size = 4
??9?$_String_const_iterator@DU?$char_traits@D@std@@V?$allocator@D@2@@std@@QBE_NABV01@@Z PROC ; std::_String_const_iterator<char,std::char_traits<char>,std::allocator<char> >::operator!=, COMDAT
; _this$ = ecx

; 218  : 		{	// test for iterator inequality

  00000	55		 push	 ebp
  00001	8b ec		 mov	 ebp, esp

; 219  : 		return (!(*this == _Right));

  00003	8b 01		 mov	 eax, DWORD PTR [ecx]
  00005	8b 55 08	 mov	 edx, DWORD PTR __Right$[ebp]
  00008	33 c9		 xor	 ecx, ecx
  0000a	3b 02		 cmp	 eax, DWORD PTR [edx]
  0000c	0f 95 c0	 setne	 al

; 220  : 		}

  0000f	5d		 pop	 ebp
  00010	c2 04 00	 ret	 4
??9?$_String_const_iterator@DU?$char_traits@D@std@@V?$allocator@D@2@@std@@QBE_NABV01@@Z ENDP ; std::_String_const_iterator<char,std::char_traits<char>,std::allocator<char> >::operator!=
_TEXT	ENDS
PUBLIC	?_Copy@?$basic_string@DU?$char_traits@D@std@@V?$allocator@D@2@@std@@QAEXII@Z ; std::basic_string<char,std::char_traits<char>,std::allocator<char> >::_Copy
EXTRN	__EH_prolog3_catch:PROC
;	COMDAT xdata$x
; File c:\program files (x86)\microsoft visual studio 10.0\vc\include\iosfwd
xdata$x	SEGMENT
__catchsym$?_Copy@?$basic_string@DU?$char_traits@D@std@@V?$allocator@D@2@@std@@QAEXII@Z$5 DD 040H
	DD	00H
	DD	00H
	DD	FLAT:__catch$?_Copy@?$basic_string@DU?$char_traits@D@std@@V?$allocator@D@2@@std@@QAEXII@Z$0
__catchsym$?_Copy@?$basic_string@DU?$char_traits@D@std@@V?$allocator@D@2@@std@@QAEXII@Z$4 DD 040H
	DD	00H
	DD	00H
	DD	FLAT:__catch$?_Copy@?$basic_string@DU?$char_traits@D@std@@V?$allocator@D@2@@std@@QAEXII@Z$1
__unwindtable$?_Copy@?$basic_string@DU?$char_traits@D@std@@V?$allocator@D@2@@std@@QAEXII@Z DD 0ffffffffH
	DD	00H
	DD	0ffffffffH
	DD	00H
	DD	01H
	DD	00H
	DD	01H
	DD	00H
__ehfuncinfo$?_Copy@?$basic_string@DU?$char_traits@D@std@@V?$allocator@D@2@@std@@QAEXII@Z DD 019930522H
	DD	04H
	DD	FLAT:__unwindtable$?_Copy@?$basic_string@DU?$char_traits@D@std@@V?$allocator@D@2@@std@@QAEXII@Z
	DD	02H
	DD	FLAT:__tryblocktable$?_Copy@?$basic_string@DU?$char_traits@D@std@@V?$allocator@D@2@@std@@QAEXII@Z
	DD	2 DUP(00H)
	DD	00H
	DD	01H
__tryblocktable$?_Copy@?$basic_string@DU?$char_traits@D@std@@V?$allocator@D@2@@std@@QAEXII@Z DD 02H
	DD	02H
	DD	03H
	DD	01H
	DD	FLAT:__catchsym$?_Copy@?$basic_string@DU?$char_traits@D@std@@V?$allocator@D@2@@std@@QAEXII@Z$4
	DD	00H
	DD	00H
	DD	03H
	DD	01H
	DD	FLAT:__catchsym$?_Copy@?$basic_string@DU?$char_traits@D@std@@V?$allocator@D@2@@std@@QAEXII@Z$5
; Function compile flags: /Ogsp
; File c:\program files (x86)\microsoft visual studio 10.0\vc\include\xstring
xdata$x	ENDS
;	COMDAT ?_Copy@?$basic_string@DU?$char_traits@D@std@@V?$allocator@D@2@@std@@QAEXII@Z
_TEXT	SEGMENT
_this$ = -24						; size = 4
tv296 = -20						; size = 4
__Newres$ = -20						; size = 4
__$EHRec$ = -16						; size = 16
__Ptr$ = 8						; size = 4
__Newsize$ = 8						; size = 4
__Oldlen$ = 12						; size = 4
?_Copy@?$basic_string@DU?$char_traits@D@std@@V?$allocator@D@2@@std@@QAEXII@Z PROC ; std::basic_string<char,std::char_traits<char>,std::allocator<char> >::_Copy, COMDAT
; _this$ = ecx

; 1919 : 		{	// copy _Oldlen elements to newly allocated buffer

  00000	6a 0c		 push	 12			; 0000000cH
  00002	b8 00 00 00 00	 mov	 eax, __ehhandler$?_Copy@?$basic_string@DU?$char_traits@D@std@@V?$allocator@D@2@@std@@QAEXII@Z
  00007	e8 00 00 00 00	 call	 __EH_prolog3_catch
  0000c	8b f1		 mov	 esi, ecx
  0000e	89 75 e8	 mov	 DWORD PTR _this$[ebp], esi

; 1920 : 		size_type _Newres = _Newsize | this->_ALLOC_MASK;

  00011	8b 7d 08	 mov	 edi, DWORD PTR __Newsize$[ebp]
  00014	83 cf 0f	 or	 edi, 15			; 0000000fH

; 1921 : 		if (max_size() < _Newres)

  00017	83 ff fe	 cmp	 edi, -2			; fffffffeH
  0001a	76 05		 jbe	 SHORT $LN9@Copy

; 1922 : 			_Newres = _Newsize;	// undo roundup if too big

  0001c	8b 7d 08	 mov	 edi, DWORD PTR __Newsize$[ebp]
  0001f	eb 27		 jmp	 SHORT $LN5@Copy
$LN9@Copy:

; 1923 : 		else if (this->_Myres / 2 <= _Newres / 3)

  00021	33 d2		 xor	 edx, edx
  00023	6a 03		 push	 3
  00025	8b c7		 mov	 eax, edi
  00027	5b		 pop	 ebx
  00028	f7 f3		 div	 ebx
  0002a	8b 4e 14	 mov	 ecx, DWORD PTR [esi+20]
  0002d	89 4d ec	 mov	 DWORD PTR tv296[ebp], ecx
  00030	d1 6d ec	 shr	 DWORD PTR tv296[ebp], 1
  00033	8b 55 ec	 mov	 edx, DWORD PTR tv296[ebp]
  00036	3b d0		 cmp	 edx, eax
  00038	76 0e		 jbe	 SHORT $LN5@Copy

; 1924 : 			;
; 1925 : 		else if (this->_Myres <= max_size() - this->_Myres / 2)

  0003a	6a fe		 push	 -2			; fffffffeH
  0003c	5f		 pop	 edi
  0003d	8b c7		 mov	 eax, edi
  0003f	2b c2		 sub	 eax, edx
  00041	3b c8		 cmp	 ecx, eax
  00043	77 03		 ja	 SHORT $LN5@Copy

; 1926 : 			_Newres = this->_Myres
; 1927 : 				+ this->_Myres / 2;	// grow exponentially if possible

  00045	8d 3c 0a	 lea	 edi, DWORD PTR [edx+ecx]
$LN5@Copy:

; 1928 : 		else
; 1929 : 			_Newres = max_size();	// settle for max_size()
; 1930 : 
; 1931 : 		_Elem *_Ptr;
; 1932 : 		_TRY_BEGIN

  00048	83 65 fc 00	 and	 DWORD PTR __$EHRec$[ebp+12], 0

; 1933 : 			_Ptr = this->_Alval.allocate(_Newres + 1);

  0004c	8d 47 01	 lea	 eax, DWORD PTR [edi+1]
  0004f	6a 00		 push	 0
  00051	50		 push	 eax
  00052	e8 00 00 00 00	 call	 ??$_Allocate@D@std@@YAPADIPAD@Z ; std::_Allocate<char>
  00057	59		 pop	 ecx
  00058	59		 pop	 ecx
  00059	89 45 08	 mov	 DWORD PTR __Ptr$[ebp], eax
  0005c	eb 27		 jmp	 SHORT $LN19@Copy
__catch$?_Copy@?$basic_string@DU?$char_traits@D@std@@V?$allocator@D@2@@std@@QAEXII@Z$0:

; 1934 : 		_CATCH_ALL
; 1935 : 			_Newres = _Newsize;	// allocation failed, undo roundup and retry

  0005e	8b 45 08	 mov	 eax, DWORD PTR __Newsize$[ebp]
  00061	89 65 f0	 mov	 DWORD PTR __$EHRec$[ebp], esp
  00064	89 45 ec	 mov	 DWORD PTR __Newres$[ebp], eax

; 1936 : 			_TRY_BEGIN
; 1937 : 				_Ptr = this->_Alval.allocate(_Newres + 1);

  00067	40		 inc	 eax
  00068	6a 00		 push	 0
  0006a	50		 push	 eax
  0006b	c6 45 fc 02	 mov	 BYTE PTR __$EHRec$[ebp+12], 2
  0006f	e8 00 00 00 00	 call	 ??$_Allocate@D@std@@YAPADIPAD@Z ; std::_Allocate<char>
  00074	59		 pop	 ecx
  00075	89 45 08	 mov	 DWORD PTR __Ptr$[ebp], eax
  00078	59		 pop	 ecx

; 1941 : 			_CATCH_END
; 1942 : 		_CATCH_END

  00079	b8 00 00 00 00	 mov	 eax, $LN63@Copy
  0007e	c3		 ret	 0
$LN63@Copy:
  0007f	8b 75 e8	 mov	 esi, DWORD PTR _this$[ebp]
  00082	8b 7d ec	 mov	 edi, DWORD PTR __Newres$[ebp]
$LN19@Copy:

; 1943 : 
; 1944 : 		if (0 < _Oldlen)

  00085	8b 5d 0c	 mov	 ebx, DWORD PTR __Oldlen$[ebp]
  00088	85 db		 test	 ebx, ebx
  0008a	74 19		 je	 SHORT $LN52@Copy

; 1945 : 			_Traits::copy(_Ptr, _Myptr(), _Oldlen);	// copy existing elements

  0008c	83 7e 14 10	 cmp	 DWORD PTR [esi+20], 16	; 00000010H
  00090	72 04		 jb	 SHORT $LN50@Copy
  00092	8b 06		 mov	 eax, DWORD PTR [esi]
  00094	eb 02		 jmp	 SHORT $LN51@Copy
$LN50@Copy:
  00096	8b c6		 mov	 eax, esi
$LN51@Copy:
  00098	53		 push	 ebx
  00099	50		 push	 eax
  0009a	ff 75 08	 push	 DWORD PTR __Ptr$[ebp]
  0009d	e8 00 00 00 00	 call	 _memcpy
  000a2	83 c4 0c	 add	 esp, 12			; 0000000cH
$LN52@Copy:

; 1946 : 		_Tidy(true);

  000a5	6a 00		 push	 0
  000a7	6a 01		 push	 1
  000a9	8b ce		 mov	 ecx, esi
  000ab	e8 00 00 00 00	 call	 ?_Tidy@?$basic_string@DU?$char_traits@D@std@@V?$allocator@D@2@@std@@QAEX_NI@Z ; std::basic_string<char,std::char_traits<char>,std::allocator<char> >::_Tidy

; 1947 : 		this->_Bx._Ptr = _Ptr;

  000b0	8b 45 08	 mov	 eax, DWORD PTR __Ptr$[ebp]
  000b3	89 06		 mov	 DWORD PTR [esi], eax

; 1948 : 		this->_Myres = _Newres;
; 1949 : 		_Eos(_Oldlen);

  000b5	83 ff 10	 cmp	 edi, 16			; 00000010H
  000b8	89 7e 14	 mov	 DWORD PTR [esi+20], edi
  000bb	89 5e 10	 mov	 DWORD PTR [esi+16], ebx
  000be	0f 42 c6	 cmovb	 eax, esi
  000c1	c6 04 18 00	 mov	 BYTE PTR [eax+ebx], 0

; 1950 : 		}

  000c5	e8 00 00 00 00	 call	 __EH_epilog3
  000ca	c2 08 00	 ret	 8
__catch$?_Copy@?$basic_string@DU?$char_traits@D@std@@V?$allocator@D@2@@std@@QAEXII@Z$1:

; 1938 : 			_CATCH_ALL
; 1939 : 			_Tidy(true);	// failed again, discard storage and reraise

  000cd	8b 4d e8	 mov	 ecx, DWORD PTR _this$[ebp]
  000d0	33 f6		 xor	 esi, esi
  000d2	56		 push	 esi
  000d3	6a 01		 push	 1
  000d5	e8 00 00 00 00	 call	 ?_Tidy@?$basic_string@DU?$char_traits@D@std@@V?$allocator@D@2@@std@@QAEX_NI@Z ; std::basic_string<char,std::char_traits<char>,std::allocator<char> >::_Tidy

; 1940 : 			_RERAISE;

  000da	56		 push	 esi
  000db	56		 push	 esi
  000dc	e8 00 00 00 00	 call	 __CxxThrowException@8
$LN67@Copy:
$LN66@Copy:
  000e1	cc		 int	 3
_TEXT	ENDS
;	COMDAT text$x
text$x	SEGMENT
__ehhandler$?_Copy@?$basic_string@DU?$char_traits@D@std@@V?$allocator@D@2@@std@@QAEXII@Z:
  00000	8b 54 24 08	 mov	 edx, DWORD PTR [esp+8]
  00004	8d 42 0c	 lea	 eax, DWORD PTR [edx+12]
  00007	8b 4a e4	 mov	 ecx, DWORD PTR [edx-28]
  0000a	33 c8		 xor	 ecx, eax
  0000c	e8 00 00 00 00	 call	 @__security_check_cookie@4
  00011	b8 00 00 00 00	 mov	 eax, OFFSET __ehfuncinfo$?_Copy@?$basic_string@DU?$char_traits@D@std@@V?$allocator@D@2@@std@@QAEXII@Z
  00016	e9 00 00 00 00	 jmp	 ___CxxFrameHandler3
text$x	ENDS
?_Copy@?$basic_string@DU?$char_traits@D@std@@V?$allocator@D@2@@std@@QAEXII@Z ENDP ; std::basic_string<char,std::char_traits<char>,std::allocator<char> >::_Copy
PUBLIC	??$transform@V?$_String_iterator@DU?$char_traits@D@std@@V?$allocator@D@2@@std@@V12@P6AHH@Z@std@@YA?AV?$_String_iterator@DU?$char_traits@D@std@@V?$allocator@D@2@@0@V10@00P6AHH@Z@Z ; std::transform<std::_String_iterator<char,std::char_traits<char>,std::allocator<char> >,std::_String_iterator<char,std::char_traits<char>,std::allocator<char> >,int (__cdecl*)(int)>
; Function compile flags: /Ogsp
; File c:\program files (x86)\microsoft visual studio 10.0\vc\include\algorithm
;	COMDAT ??$transform@V?$_String_iterator@DU?$char_traits@D@std@@V?$allocator@D@2@@std@@V12@P6AHH@Z@std@@YA?AV?$_String_iterator@DU?$char_traits@D@std@@V?$allocator@D@2@@0@V10@00P6AHH@Z@Z
_TEXT	SEGMENT
___$ReturnUdt$ = 8					; size = 4
__First$ = 12						; size = 4
__Last$ = 16						; size = 4
__Dest$ = 20						; size = 4
__Func$ = 24						; size = 4
??$transform@V?$_String_iterator@DU?$char_traits@D@std@@V?$allocator@D@2@@std@@V12@P6AHH@Z@std@@YA?AV?$_String_iterator@DU?$char_traits@D@std@@V?$allocator@D@2@@0@V10@00P6AHH@Z@Z PROC ; std::transform<std::_String_iterator<char,std::char_traits<char>,std::allocator<char> >,std::_String_iterator<char,std::char_traits<char>,std::allocator<char> >,int (__cdecl*)(int)>, COMDAT

; 1053 : 	{	// transform [_First, _Last) with _Func

  00000	55		 push	 ebp
  00001	8b ec		 mov	 ebp, esp

; 1054 : 	if (_First != _Last)

  00003	8b 45 0c	 mov	 eax, DWORD PTR __First$[ebp]
  00006	3b 45 10	 cmp	 eax, DWORD PTR __Last$[ebp]
  00009	74 1a		 je	 SHORT $LN1@transform

; 1055 : 		return (_Transform(_Unchecked(_First), _Unchecked(_Last),
; 1056 : 			_Dest, _Func));

  0000b	ff 75 18	 push	 DWORD PTR __Func$[ebp]
  0000e	ff 75 14	 push	 DWORD PTR __Dest$[ebp]
  00011	ff 75 10	 push	 DWORD PTR __Last$[ebp]
  00014	50		 push	 eax
  00015	ff 75 08	 push	 DWORD PTR ___$ReturnUdt$[ebp]
  00018	e8 00 00 00 00	 call	 ??$_Transform@PADV?$_String_iterator@DU?$char_traits@D@std@@V?$allocator@D@2@@std@@P6AHH@Z@std@@YA?AV?$_String_iterator@DU?$char_traits@D@std@@V?$allocator@D@2@@0@PAD0V10@P6AHH@Z@Z ; std::_Transform<char *,std::_String_iterator<char,std::char_traits<char>,std::allocator<char> >,int (__cdecl*)(int)>
  0001d	8b 45 08	 mov	 eax, DWORD PTR ___$ReturnUdt$[ebp]
  00020	83 c4 14	 add	 esp, 20			; 00000014H

; 1058 : 	}

  00023	5d		 pop	 ebp
  00024	c3		 ret	 0
$LN1@transform:

; 1057 : 	return (_Dest);

  00025	8b 45 08	 mov	 eax, DWORD PTR ___$ReturnUdt$[ebp]
  00028	8b 4d 14	 mov	 ecx, DWORD PTR __Dest$[ebp]
  0002b	89 08		 mov	 DWORD PTR [eax], ecx

; 1058 : 	}

  0002d	5d		 pop	 ebp
  0002e	c3		 ret	 0
??$transform@V?$_String_iterator@DU?$char_traits@D@std@@V?$allocator@D@2@@std@@V12@P6AHH@Z@std@@YA?AV?$_String_iterator@DU?$char_traits@D@std@@V?$allocator@D@2@@0@V10@00P6AHH@Z@Z ENDP ; std::transform<std::_String_iterator<char,std::char_traits<char>,std::allocator<char> >,std::_String_iterator<char,std::char_traits<char>,std::allocator<char> >,int (__cdecl*)(int)>
_TEXT	ENDS
PUBLIC	??$_Cons_val@V?$allocator@UInvenBlockItem@ioUserBlockStorage@@@std@@UInvenBlockItem@ioUserBlockStorage@@ABU34@@std@@YAXAAV?$allocator@UInvenBlockItem@ioUserBlockStorage@@@0@PAUInvenBlockItem@ioUserBlockStorage@@ABU23@@Z ; std::_Cons_val<std::allocator<ioUserBlockStorage::InvenBlockItem>,ioUserBlockStorage::InvenBlockItem,ioUserBlockStorage::InvenBlockItem const &>
; Function compile flags: /Ogsp
; File c:\program files (x86)\microsoft visual studio 10.0\vc\include\xmemory
;	COMDAT ??$_Cons_val@V?$allocator@UInvenBlockItem@ioUserBlockStorage@@@std@@UInvenBlockItem@ioUserBlockStorage@@ABU34@@std@@YAXAAV?$allocator@UInvenBlockItem@ioUserBlockStorage@@@0@PAUInvenBlockItem@ioUserBlockStorage@@ABU23@@Z
_TEXT	SEGMENT
__Alval$ = 8						; size = 4
__Pdest$ = 12						; size = 4
__Src$ = 16						; size = 4
??$_Cons_val@V?$allocator@UInvenBlockItem@ioUserBlockStorage@@@std@@UInvenBlockItem@ioUserBlockStorage@@ABU34@@std@@YAXAAV?$allocator@UInvenBlockItem@ioUserBlockStorage@@@0@PAUInvenBlockItem@ioUserBlockStorage@@ABU23@@Z PROC ; std::_Cons_val<std::allocator<ioUserBlockStorage::InvenBlockItem>,ioUserBlockStorage::InvenBlockItem,ioUserBlockStorage::InvenBlockItem const &>, COMDAT

; 279  : 	{	// construct using allocator

  00000	55		 push	 ebp
  00001	8b ec		 mov	 ebp, esp

; 280  : 	_Alval.construct(_Pdest, _STD forward<_Ty2>(_Src));

  00003	ff 75 10	 push	 DWORD PTR __Src$[ebp]
  00006	ff 75 0c	 push	 DWORD PTR __Pdest$[ebp]
  00009	e8 00 00 00 00	 call	 ??$_Construct@UInvenBlockItem@ioUserBlockStorage@@ABU12@@std@@YAXPAUInvenBlockItem@ioUserBlockStorage@@ABU12@@Z ; std::_Construct<ioUserBlockStorage::InvenBlockItem,ioUserBlockStorage::InvenBlockItem const &>
  0000e	59		 pop	 ecx
  0000f	59		 pop	 ecx

; 281  : 	}

  00010	5d		 pop	 ebp
  00011	c3		 ret	 0
??$_Cons_val@V?$allocator@UInvenBlockItem@ioUserBlockStorage@@@std@@UInvenBlockItem@ioUserBlockStorage@@ABU34@@std@@YAXAAV?$allocator@UInvenBlockItem@ioUserBlockStorage@@@0@PAUInvenBlockItem@ioUserBlockStorage@@ABU23@@Z ENDP ; std::_Cons_val<std::allocator<ioUserBlockStorage::InvenBlockItem>,ioUserBlockStorage::InvenBlockItem,ioUserBlockStorage::InvenBlockItem const &>
_TEXT	ENDS
PUBLIC	?destroy@?$allocator@UInvenBlockItem@ioUserBlockStorage@@@std@@QAEXPAUInvenBlockItem@ioUserBlockStorage@@@Z ; std::allocator<ioUserBlockStorage::InvenBlockItem>::destroy
; Function compile flags: /Ogsp
;	COMDAT ?destroy@?$allocator@UInvenBlockItem@ioUserBlockStorage@@@std@@QAEXPAUInvenBlockItem@ioUserBlockStorage@@@Z
_TEXT	SEGMENT
__Ptr$ = 8						; size = 4
?destroy@?$allocator@UInvenBlockItem@ioUserBlockStorage@@@std@@QAEXPAUInvenBlockItem@ioUserBlockStorage@@@Z PROC ; std::allocator<ioUserBlockStorage::InvenBlockItem>::destroy, COMDAT
; _this$ = ecx

; 212  : 		{	// destroy object at _Ptr

  00000	55		 push	 ebp
  00001	8b ec		 mov	 ebp, esp

; 213  : 		_Destroy(_Ptr);

  00003	8b 4d 08	 mov	 ecx, DWORD PTR __Ptr$[ebp]
  00006	e8 00 00 00 00	 call	 ??1InvenBlockItem@ioUserBlockStorage@@QAE@XZ

; 214  : 		}

  0000b	5d		 pop	 ebp
  0000c	c2 04 00	 ret	 4
?destroy@?$allocator@UInvenBlockItem@ioUserBlockStorage@@@std@@QAEXPAUInvenBlockItem@ioUserBlockStorage@@@Z ENDP ; std::allocator<ioUserBlockStorage::InvenBlockItem>::destroy
_TEXT	ENDS
PUBLIC	??1?$basic_string@DU?$char_traits@D@std@@V?$allocator@D@2@@std@@QAE@XZ ; std::basic_string<char,std::char_traits<char>,std::allocator<char> >::~basic_string<char,std::char_traits<char>,std::allocator<char> >
; Function compile flags: /Ogsp
; File c:\program files (x86)\microsoft visual studio 10.0\vc\include\xstring
;	COMDAT ??1?$basic_string@DU?$char_traits@D@std@@V?$allocator@D@2@@std@@QAE@XZ
_TEXT	SEGMENT
??1?$basic_string@DU?$char_traits@D@std@@V?$allocator@D@2@@std@@QAE@XZ PROC ; std::basic_string<char,std::char_traits<char>,std::allocator<char> >::~basic_string<char,std::char_traits<char>,std::allocator<char> >, COMDAT
; _this$ = ecx

; 754  : 		_Tidy(true);

  00000	6a 00		 push	 0
  00002	6a 01		 push	 1
  00004	e8 00 00 00 00	 call	 ?_Tidy@?$basic_string@DU?$char_traits@D@std@@V?$allocator@D@2@@std@@QAEX_NI@Z ; std::basic_string<char,std::char_traits<char>,std::allocator<char> >::_Tidy

; 755  : 		}

  00009	c3		 ret	 0
??1?$basic_string@DU?$char_traits@D@std@@V?$allocator@D@2@@std@@QAE@XZ ENDP ; std::basic_string<char,std::char_traits<char>,std::allocator<char> >::~basic_string<char,std::char_traits<char>,std::allocator<char> >
_TEXT	ENDS
PUBLIC	?_Grow@?$basic_string@DU?$char_traits@D@std@@V?$allocator@D@2@@std@@QAE_NI_N@Z ; std::basic_string<char,std::char_traits<char>,std::allocator<char> >::_Grow
; Function compile flags: /Ogsp
;	COMDAT ?_Grow@?$basic_string@DU?$char_traits@D@std@@V?$allocator@D@2@@std@@QAE_NI_N@Z
_TEXT	SEGMENT
__Newsize$ = 8						; size = 4
__Trim$ = 12						; size = 1
?_Grow@?$basic_string@DU?$char_traits@D@std@@V?$allocator@D@2@@std@@QAE_NI_N@Z PROC ; std::basic_string<char,std::char_traits<char>,std::allocator<char> >::_Grow, COMDAT
; _this$ = ecx

; 1959 : 		{	// ensure buffer is big enough, trim to size if _Trim is true

  00000	55		 push	 ebp
  00001	8b ec		 mov	 ebp, esp
  00003	56		 push	 esi

; 1960 : 		if (max_size() < _Newsize)

  00004	8b 75 08	 mov	 esi, DWORD PTR __Newsize$[ebp]
  00007	83 fe fe	 cmp	 esi, -2			; fffffffeH
  0000a	76 0b		 jbe	 SHORT $LN6@Grow

; 1961 : 			_Xlen();	// result too long

  0000c	68 00 00 00 00	 push	 OFFSET ??_C@_0BA@JFNIOLAK@string?5too?5long?$AA@
  00011	ff 15 00 00 00
	00		 call	 DWORD PTR __imp_?_Xlength_error@std@@YAXPBD@Z
$LN31@Grow:
$LN6@Grow:

; 1962 : 		if (this->_Myres < _Newsize)

  00017	8b 41 14	 mov	 eax, DWORD PTR [ecx+20]
  0001a	3b c6		 cmp	 eax, esi
  0001c	73 0b		 jae	 SHORT $LN5@Grow

; 1963 : 			_Copy(_Newsize, this->_Mysize);	// reallocate to grow

  0001e	ff 71 10	 push	 DWORD PTR [ecx+16]
  00021	56		 push	 esi
  00022	e8 00 00 00 00	 call	 ?_Copy@?$basic_string@DU?$char_traits@D@std@@V?$allocator@D@2@@std@@QAEXII@Z ; std::basic_string<char,std::char_traits<char>,std::allocator<char> >::_Copy
  00027	eb 2e		 jmp	 SHORT $LN28@Grow
$LN5@Grow:

; 1964 : 		else if (_Trim && _Newsize < this->_BUF_SIZE)

  00029	33 d2		 xor	 edx, edx
  0002b	38 55 0c	 cmp	 BYTE PTR __Trim$[ebp], dl
  0002e	74 17		 je	 SHORT $LN3@Grow
  00030	83 fe 10	 cmp	 esi, 16			; 00000010H
  00033	73 12		 jae	 SHORT $LN3@Grow

; 1965 : 			_Tidy(true,	// copy and deallocate if trimming to small string
; 1966 : 				_Newsize < this->_Mysize ? _Newsize : this->_Mysize);

  00035	8b 41 10	 mov	 eax, DWORD PTR [ecx+16]
  00038	3b f0		 cmp	 esi, eax
  0003a	0f 42 c6	 cmovb	 eax, esi
  0003d	50		 push	 eax
  0003e	6a 01		 push	 1
  00040	e8 00 00 00 00	 call	 ?_Tidy@?$basic_string@DU?$char_traits@D@std@@V?$allocator@D@2@@std@@QAEX_NI@Z ; std::basic_string<char,std::char_traits<char>,std::allocator<char> >::_Tidy
  00045	eb 10		 jmp	 SHORT $LN28@Grow
$LN3@Grow:

; 1967 : 		else if (_Newsize == 0)

  00047	3b f2		 cmp	 esi, edx
  00049	75 0c		 jne	 SHORT $LN28@Grow

; 1968 : 			_Eos(0);	// new size is zero, just null terminate

  0004b	89 51 10	 mov	 DWORD PTR [ecx+16], edx
  0004e	83 f8 10	 cmp	 eax, 16			; 00000010H
  00051	72 02		 jb	 SHORT $LN26@Grow
  00053	8b 09		 mov	 ecx, DWORD PTR [ecx]
$LN26@Grow:
  00055	88 11		 mov	 BYTE PTR [ecx], dl
$LN28@Grow:

; 1969 : 		return (0 < _Newsize);	// return true only if more work to do

  00057	33 c0		 xor	 eax, eax
  00059	3b c6		 cmp	 eax, esi
  0005b	1b c0		 sbb	 eax, eax
  0005d	f7 d8		 neg	 eax
  0005f	5e		 pop	 esi

; 1970 : 		}

  00060	5d		 pop	 ebp
  00061	c2 08 00	 ret	 8
$LN30@Grow:
?_Grow@?$basic_string@DU?$char_traits@D@std@@V?$allocator@D@2@@std@@QAE_NI_N@Z ENDP ; std::basic_string<char,std::char_traits<char>,std::allocator<char> >::_Grow
_TEXT	ENDS
PUBLIC	??$_Dest_val@V?$allocator@UInvenBlockItem@ioUserBlockStorage@@@std@@UInvenBlockItem@ioUserBlockStorage@@@std@@YAXAAV?$allocator@UInvenBlockItem@ioUserBlockStorage@@@0@PAUInvenBlockItem@ioUserBlockStorage@@@Z ; std::_Dest_val<std::allocator<ioUserBlockStorage::InvenBlockItem>,ioUserBlockStorage::InvenBlockItem>
; Function compile flags: /Ogsp
; File c:\program files (x86)\microsoft visual studio 10.0\vc\include\xmemory
;	COMDAT ??$_Dest_val@V?$allocator@UInvenBlockItem@ioUserBlockStorage@@@std@@UInvenBlockItem@ioUserBlockStorage@@@std@@YAXAAV?$allocator@UInvenBlockItem@ioUserBlockStorage@@@0@PAUInvenBlockItem@ioUserBlockStorage@@@Z
_TEXT	SEGMENT
__Alval$ = 8						; size = 4
__Pdest$ = 12						; size = 4
??$_Dest_val@V?$allocator@UInvenBlockItem@ioUserBlockStorage@@@std@@UInvenBlockItem@ioUserBlockStorage@@@std@@YAXAAV?$allocator@UInvenBlockItem@ioUserBlockStorage@@@0@PAUInvenBlockItem@ioUserBlockStorage@@@Z PROC ; std::_Dest_val<std::allocator<ioUserBlockStorage::InvenBlockItem>,ioUserBlockStorage::InvenBlockItem>, COMDAT

; 286  : 	{	// destroy using allocator

  00000	55		 push	 ebp
  00001	8b ec		 mov	 ebp, esp

; 287  : 	_Alval.destroy(_Pdest);

  00003	8b 4d 0c	 mov	 ecx, DWORD PTR __Pdest$[ebp]

; 288  : 	}

  00006	5d		 pop	 ebp

; 287  : 	_Alval.destroy(_Pdest);

  00007	e9 00 00 00 00	 jmp	 ??1InvenBlockItem@ioUserBlockStorage@@QAE@XZ
??$_Dest_val@V?$allocator@UInvenBlockItem@ioUserBlockStorage@@@std@@UInvenBlockItem@ioUserBlockStorage@@@std@@YAXAAV?$allocator@UInvenBlockItem@ioUserBlockStorage@@@0@PAUInvenBlockItem@ioUserBlockStorage@@@Z ENDP ; std::_Dest_val<std::allocator<ioUserBlockStorage::InvenBlockItem>,ioUserBlockStorage::InvenBlockItem>
_TEXT	ENDS
PUBLIC	?assign@?$basic_string@DU?$char_traits@D@std@@V?$allocator@D@2@@std@@QAEAAV12@ABV12@II@Z ; std::basic_string<char,std::char_traits<char>,std::allocator<char> >::assign
; Function compile flags: /Ogsp
; File c:\program files (x86)\microsoft visual studio 10.0\vc\include\xstring
;	COMDAT ?assign@?$basic_string@DU?$char_traits@D@std@@V?$allocator@D@2@@std@@QAEAAV12@ABV12@II@Z
_TEXT	SEGMENT
__Right$ = 8						; size = 4
__Roff$ = 12						; size = 4
__Count$ = 16						; size = 4
?assign@?$basic_string@DU?$char_traits@D@std@@V?$allocator@D@2@@std@@QAEAAV12@ABV12@II@Z PROC ; std::basic_string<char,std::char_traits<char>,std::allocator<char> >::assign, COMDAT
; _this$ = ecx

; 893  : 		{	// assign _Right [_Roff, _Roff + _Count)

  00000	55		 push	 ebp
  00001	8b ec		 mov	 ebp, esp
  00003	53		 push	 ebx

; 894  : 		if (_Right.size() < _Roff)

  00004	8b 5d 08	 mov	 ebx, DWORD PTR __Right$[ebp]
  00007	8b 43 10	 mov	 eax, DWORD PTR [ebx+16]
  0000a	56		 push	 esi
  0000b	8b f1		 mov	 esi, ecx
  0000d	8b 4d 0c	 mov	 ecx, DWORD PTR __Roff$[ebp]
  00010	57		 push	 edi
  00011	3b c1		 cmp	 eax, ecx
  00013	73 0b		 jae	 SHORT $LN5@assign

; 895  : 			_Xran();	// _Roff off end

  00015	68 00 00 00 00	 push	 OFFSET ??_C@_0BI@CFPLBAOH@invalid?5string?5position?$AA@
  0001a	ff 15 00 00 00
	00		 call	 DWORD PTR __imp_?_Xout_of_range@std@@YAXPBD@Z
$LN34@assign:
$LN5@assign:

; 896  : 		size_type _Num = _Right.size() - _Roff;

  00020	2b c1		 sub	 eax, ecx
  00022	8b f8		 mov	 edi, eax

; 897  : 		if (_Count < _Num)

  00024	39 7d 10	 cmp	 DWORD PTR __Count$[ebp], edi

; 898  : 			_Num = _Count;	// trim _Num to size

  00027	0f 42 7d 10	 cmovb	 edi, DWORD PTR __Count$[ebp]

; 899  : 
; 900  : 		if (this == &_Right)

  0002b	3b f3		 cmp	 esi, ebx
  0002d	75 1a		 jne	 SHORT $LN3@assign

; 901  : 			erase((size_type)(_Roff + _Num)), erase(0, _Roff);	// substring

  0002f	03 f9		 add	 edi, ecx
  00031	6a ff		 push	 -1
  00033	57		 push	 edi
  00034	8b ce		 mov	 ecx, esi
  00036	e8 00 00 00 00	 call	 ?erase@?$basic_string@DU?$char_traits@D@std@@V?$allocator@D@2@@std@@QAEAAV12@II@Z ; std::basic_string<char,std::char_traits<char>,std::allocator<char> >::erase
  0003b	ff 75 0c	 push	 DWORD PTR __Roff$[ebp]
  0003e	8b ce		 mov	 ecx, esi
  00040	6a 00		 push	 0
  00042	e8 00 00 00 00	 call	 ?erase@?$basic_string@DU?$char_traits@D@std@@V?$allocator@D@2@@std@@QAEAAV12@II@Z ; std::basic_string<char,std::char_traits<char>,std::allocator<char> >::erase
  00047	eb 47		 jmp	 SHORT $LN31@assign
$LN3@assign:

; 902  : 		else if (_Grow(_Num))

  00049	6a 00		 push	 0
  0004b	57		 push	 edi
  0004c	8b ce		 mov	 ecx, esi
  0004e	e8 00 00 00 00	 call	 ?_Grow@?$basic_string@DU?$char_traits@D@std@@V?$allocator@D@2@@std@@QAE_NI_N@Z ; std::basic_string<char,std::char_traits<char>,std::allocator<char> >::_Grow
  00053	84 c0		 test	 al, al
  00055	74 39		 je	 SHORT $LN31@assign

; 903  : 			{	// make room and assign new stuff
; 904  : 			_Traits::copy(_Myptr(), _Right._Myptr() + _Roff, _Num);

  00057	83 7b 14 10	 cmp	 DWORD PTR [ebx+20], 16	; 00000010H
  0005b	72 04		 jb	 SHORT $LN17@assign
  0005d	8b 03		 mov	 eax, DWORD PTR [ebx]
  0005f	eb 02		 jmp	 SHORT $LN18@assign
$LN17@assign:
  00061	8b c3		 mov	 eax, ebx
$LN18@assign:
  00063	83 7e 14 10	 cmp	 DWORD PTR [esi+20], 16	; 00000010H
  00067	72 04		 jb	 SHORT $LN21@assign
  00069	8b 0e		 mov	 ecx, DWORD PTR [esi]
  0006b	eb 02		 jmp	 SHORT $LN22@assign
$LN21@assign:
  0006d	8b ce		 mov	 ecx, esi
$LN22@assign:
  0006f	03 45 0c	 add	 eax, DWORD PTR __Roff$[ebp]
  00072	57		 push	 edi
  00073	50		 push	 eax
  00074	51		 push	 ecx
  00075	e8 00 00 00 00	 call	 _memcpy
  0007a	83 c4 0c	 add	 esp, 12			; 0000000cH

; 905  : 			_Eos(_Num);

  0007d	83 7e 14 10	 cmp	 DWORD PTR [esi+20], 16	; 00000010H
  00081	89 7e 10	 mov	 DWORD PTR [esi+16], edi
  00084	72 04		 jb	 SHORT $LN29@assign
  00086	8b 06		 mov	 eax, DWORD PTR [esi]
  00088	eb 02		 jmp	 SHORT $LN30@assign
$LN29@assign:
  0008a	8b c6		 mov	 eax, esi
$LN30@assign:
  0008c	c6 04 38 00	 mov	 BYTE PTR [eax+edi], 0
$LN31@assign:

; 906  : 			}
; 907  : 		return (*this);

  00090	5f		 pop	 edi
  00091	8b c6		 mov	 eax, esi
  00093	5e		 pop	 esi
  00094	5b		 pop	 ebx

; 908  : 		}

  00095	5d		 pop	 ebp
  00096	c2 0c 00	 ret	 12			; 0000000cH
$LN33@assign:
?assign@?$basic_string@DU?$char_traits@D@std@@V?$allocator@D@2@@std@@QAEAAV12@ABV12@II@Z ENDP ; std::basic_string<char,std::char_traits<char>,std::allocator<char> >::assign
_TEXT	ENDS
PUBLIC	?assign@?$basic_string@DU?$char_traits@D@std@@V?$allocator@D@2@@std@@QAEAAV12@PBDI@Z ; std::basic_string<char,std::char_traits<char>,std::allocator<char> >::assign
; Function compile flags: /Ogsp
;	COMDAT ?assign@?$basic_string@DU?$char_traits@D@std@@V?$allocator@D@2@@std@@QAEAAV12@PBDI@Z
_TEXT	SEGMENT
__Ptr$ = 8						; size = 4
__Count$ = 12						; size = 4
?assign@?$basic_string@DU?$char_traits@D@std@@V?$allocator@D@2@@std@@QAEAAV12@PBDI@Z PROC ; std::basic_string<char,std::char_traits<char>,std::allocator<char> >::assign, COMDAT
; _this$ = ecx

; 911  : 		{	// assign [_Ptr, _Ptr + _Count)

  00000	55		 push	 ebp
  00001	8b ec		 mov	 ebp, esp
  00003	53		 push	 ebx

; 912  :  #if _ITERATOR_DEBUG_LEVEL == 2
; 913  : 		if (_Count != 0)
; 914  : 			_DEBUG_POINTER(_Ptr);
; 915  :  #endif /* _ITERATOR_DEBUG_LEVEL == 2 */
; 916  : 
; 917  : 		if (_Inside(_Ptr))

  00004	8b 5d 08	 mov	 ebx, DWORD PTR __Ptr$[ebp]
  00007	56		 push	 esi
  00008	53		 push	 ebx
  00009	8b f1		 mov	 esi, ecx
  0000b	e8 00 00 00 00	 call	 ?_Inside@?$basic_string@DU?$char_traits@D@std@@V?$allocator@D@2@@std@@QAE_NPBD@Z ; std::basic_string<char,std::char_traits<char>,std::allocator<char> >::_Inside
  00010	84 c0		 test	 al, al
  00012	74 1c		 je	 SHORT $LN2@assign@2

; 918  : 			return (assign(*this, _Ptr - _Myptr(), _Count));	// substring

  00014	83 7e 14 10	 cmp	 DWORD PTR [esi+20], 16	; 00000010H
  00018	72 04		 jb	 SHORT $LN7@assign@2
  0001a	8b 06		 mov	 eax, DWORD PTR [esi]
  0001c	eb 02		 jmp	 SHORT $LN8@assign@2
$LN7@assign@2:
  0001e	8b c6		 mov	 eax, esi
$LN8@assign@2:
  00020	ff 75 0c	 push	 DWORD PTR __Count$[ebp]
  00023	2b d8		 sub	 ebx, eax
  00025	53		 push	 ebx
  00026	56		 push	 esi
  00027	8b ce		 mov	 ecx, esi
  00029	e8 00 00 00 00	 call	 ?assign@?$basic_string@DU?$char_traits@D@std@@V?$allocator@D@2@@std@@QAEAAV12@ABV12@II@Z ; std::basic_string<char,std::char_traits<char>,std::allocator<char> >::assign
  0002e	eb 3f		 jmp	 SHORT $LN3@assign@2
$LN2@assign@2:
  00030	57		 push	 edi

; 919  : 
; 920  : 		if (_Grow(_Count))

  00031	8b 7d 0c	 mov	 edi, DWORD PTR __Count$[ebp]
  00034	6a 00		 push	 0
  00036	57		 push	 edi
  00037	8b ce		 mov	 ecx, esi
  00039	e8 00 00 00 00	 call	 ?_Grow@?$basic_string@DU?$char_traits@D@std@@V?$allocator@D@2@@std@@QAE_NI_N@Z ; std::basic_string<char,std::char_traits<char>,std::allocator<char> >::_Grow
  0003e	84 c0		 test	 al, al
  00040	74 2a		 je	 SHORT $LN21@assign@2

; 921  : 			{	// make room and assign new stuff
; 922  : 			_Traits::copy(_Myptr(), _Ptr, _Count);

  00042	83 7e 14 10	 cmp	 DWORD PTR [esi+20], 16	; 00000010H
  00046	72 04		 jb	 SHORT $LN11@assign@2
  00048	8b 06		 mov	 eax, DWORD PTR [esi]
  0004a	eb 02		 jmp	 SHORT $LN12@assign@2
$LN11@assign@2:
  0004c	8b c6		 mov	 eax, esi
$LN12@assign@2:
  0004e	57		 push	 edi
  0004f	53		 push	 ebx
  00050	50		 push	 eax
  00051	e8 00 00 00 00	 call	 _memcpy
  00056	83 c4 0c	 add	 esp, 12			; 0000000cH

; 923  : 			_Eos(_Count);

  00059	83 7e 14 10	 cmp	 DWORD PTR [esi+20], 16	; 00000010H
  0005d	89 7e 10	 mov	 DWORD PTR [esi+16], edi
  00060	72 04		 jb	 SHORT $LN19@assign@2
  00062	8b 06		 mov	 eax, DWORD PTR [esi]
  00064	eb 02		 jmp	 SHORT $LN20@assign@2
$LN19@assign@2:
  00066	8b c6		 mov	 eax, esi
$LN20@assign@2:
  00068	c6 04 38 00	 mov	 BYTE PTR [eax+edi], 0
$LN21@assign@2:

; 924  : 			}
; 925  : 		return (*this);

  0006c	8b c6		 mov	 eax, esi
  0006e	5f		 pop	 edi
$LN3@assign@2:
  0006f	5e		 pop	 esi
  00070	5b		 pop	 ebx

; 926  : 		}

  00071	5d		 pop	 ebp
  00072	c2 08 00	 ret	 8
?assign@?$basic_string@DU?$char_traits@D@std@@V?$allocator@D@2@@std@@QAEAAV12@PBDI@Z ENDP ; std::basic_string<char,std::char_traits<char>,std::allocator<char> >::assign
_TEXT	ENDS
PUBLIC	??$_Destroy_range@V?$allocator@UInvenBlockItem@ioUserBlockStorage@@@std@@@std@@YAXPAUInvenBlockItem@ioUserBlockStorage@@0AAV?$allocator@UInvenBlockItem@ioUserBlockStorage@@@0@U_Nonscalar_ptr_iterator_tag@0@@Z ; std::_Destroy_range<std::allocator<ioUserBlockStorage::InvenBlockItem> >
; Function compile flags: /Ogsp
; File c:\program files (x86)\microsoft visual studio 10.0\vc\include\xmemory
;	COMDAT ??$_Destroy_range@V?$allocator@UInvenBlockItem@ioUserBlockStorage@@@std@@@std@@YAXPAUInvenBlockItem@ioUserBlockStorage@@0AAV?$allocator@UInvenBlockItem@ioUserBlockStorage@@@0@U_Nonscalar_ptr_iterator_tag@0@@Z
_TEXT	SEGMENT
__First$ = 8						; size = 4
__Last$ = 12						; size = 4
__Al$ = 16						; size = 4
___formal$ = 20						; size = 1
??$_Destroy_range@V?$allocator@UInvenBlockItem@ioUserBlockStorage@@@std@@@std@@YAXPAUInvenBlockItem@ioUserBlockStorage@@0AAV?$allocator@UInvenBlockItem@ioUserBlockStorage@@@0@U_Nonscalar_ptr_iterator_tag@0@@Z PROC ; std::_Destroy_range<std::allocator<ioUserBlockStorage::InvenBlockItem> >, COMDAT

; 95   : 	{	// destroy [_First, _Last), arbitrary type

  00000	55		 push	 ebp
  00001	8b ec		 mov	 ebp, esp
  00003	56		 push	 esi

; 96   : 	for (; _First != _Last; ++_First)

  00004	8b 75 08	 mov	 esi, DWORD PTR __First$[ebp]
  00007	eb 0a		 jmp	 SHORT $LN17@Destroy_ra
$LL3@Destroy_ra:

; 97   : 		_Dest_val(_Al, _First);

  00009	8b ce		 mov	 ecx, esi
  0000b	e8 00 00 00 00	 call	 ??1InvenBlockItem@ioUserBlockStorage@@QAE@XZ
  00010	83 c6 38	 add	 esi, 56			; 00000038H
$LN17@Destroy_ra:

; 96   : 	for (; _First != _Last; ++_First)

  00013	3b 75 0c	 cmp	 esi, DWORD PTR __Last$[ebp]
  00016	75 f1		 jne	 SHORT $LL3@Destroy_ra
  00018	5e		 pop	 esi

; 98   : 	}

  00019	5d		 pop	 ebp
  0001a	c3		 ret	 0
??$_Destroy_range@V?$allocator@UInvenBlockItem@ioUserBlockStorage@@@std@@@std@@YAXPAUInvenBlockItem@ioUserBlockStorage@@0AAV?$allocator@UInvenBlockItem@ioUserBlockStorage@@@0@U_Nonscalar_ptr_iterator_tag@0@@Z ENDP ; std::_Destroy_range<std::allocator<ioUserBlockStorage::InvenBlockItem> >
_TEXT	ENDS
PUBLIC	??$_Uninit_move@PAUInvenBlockItem@ioUserBlockStorage@@PAU12@V?$allocator@UInvenBlockItem@ioUserBlockStorage@@@std@@U12@@std@@YAPAUInvenBlockItem@ioUserBlockStorage@@PAU12@00AAV?$allocator@UInvenBlockItem@ioUserBlockStorage@@@0@0U_Nonscalar_ptr_iterator_tag@0@@Z ; std::_Uninit_move<ioUserBlockStorage::InvenBlockItem *,ioUserBlockStorage::InvenBlockItem *,std::allocator<ioUserBlockStorage::InvenBlockItem>,ioUserBlockStorage::InvenBlockItem>
;	COMDAT xdata$x
xdata$x	SEGMENT
__catchsym$??$_Uninit_move@PAUInvenBlockItem@ioUserBlockStorage@@PAU12@V?$allocator@UInvenBlockItem@ioUserBlockStorage@@@std@@U12@@std@@YAPAUInvenBlockItem@ioUserBlockStorage@@PAU12@00AAV?$allocator@UInvenBlockItem@ioUserBlockStorage@@@0@0U_Nonscalar_ptr_iterator_tag@0@@Z$2 DD 040H
	DD	00H
	DD	00H
	DD	FLAT:__catch$??$_Uninit_move@PAUInvenBlockItem@ioUserBlockStorage@@PAU12@V?$allocator@UInvenBlockItem@ioUserBlockStorage@@@std@@U12@@std@@YAPAUInvenBlockItem@ioUserBlockStorage@@PAU12@00AAV?$allocator@UInvenBlockItem@ioUserBlockStorage@@@0@0U_Nonscalar_ptr_iterator_tag@0@@Z$0
__unwindtable$??$_Uninit_move@PAUInvenBlockItem@ioUserBlockStorage@@PAU12@V?$allocator@UInvenBlockItem@ioUserBlockStorage@@@std@@U12@@std@@YAPAUInvenBlockItem@ioUserBlockStorage@@PAU12@00AAV?$allocator@UInvenBlockItem@ioUserBlockStorage@@@0@0U_Nonscalar_ptr_iterator_tag@0@@Z DD 0ffffffffH
	DD	00H
	DD	0ffffffffH
	DD	00H
__tryblocktable$??$_Uninit_move@PAUInvenBlockItem@ioUserBlockStorage@@PAU12@V?$allocator@UInvenBlockItem@ioUserBlockStorage@@@std@@U12@@std@@YAPAUInvenBlockItem@ioUserBlockStorage@@PAU12@00AAV?$allocator@UInvenBlockItem@ioUserBlockStorage@@@0@0U_Nonscalar_ptr_iterator_tag@0@@Z DD 00H
	DD	00H
	DD	01H
	DD	01H
	DD	FLAT:__catchsym$??$_Uninit_move@PAUInvenBlockItem@ioUserBlockStorage@@PAU12@V?$allocator@UInvenBlockItem@ioUserBlockStorage@@@std@@U12@@std@@YAPAUInvenBlockItem@ioUserBlockStorage@@PAU12@00AAV?$allocator@UInvenBlockItem@ioUserBlockStorage@@@0@0U_Nonscalar_ptr_iterator_tag@0@@Z$2
__ehfuncinfo$??$_Uninit_move@PAUInvenBlockItem@ioUserBlockStorage@@PAU12@V?$allocator@UInvenBlockItem@ioUserBlockStorage@@@std@@U12@@std@@YAPAUInvenBlockItem@ioUserBlockStorage@@PAU12@00AAV?$allocator@UInvenBlockItem@ioUserBlockStorage@@@0@0U_Nonscalar_ptr_iterator_tag@0@@Z DD 019930522H
	DD	02H
	DD	FLAT:__unwindtable$??$_Uninit_move@PAUInvenBlockItem@ioUserBlockStorage@@PAU12@V?$allocator@UInvenBlockItem@ioUserBlockStorage@@@std@@U12@@std@@YAPAUInvenBlockItem@ioUserBlockStorage@@PAU12@00AAV?$allocator@UInvenBlockItem@ioUserBlockStorage@@@0@0U_Nonscalar_ptr_iterator_tag@0@@Z
	DD	01H
	DD	FLAT:__tryblocktable$??$_Uninit_move@PAUInvenBlockItem@ioUserBlockStorage@@PAU12@V?$allocator@UInvenBlockItem@ioUserBlockStorage@@@std@@U12@@std@@YAPAUInvenBlockItem@ioUserBlockStorage@@PAU12@00AAV?$allocator@UInvenBlockItem@ioUserBlockStorage@@@0@0U_Nonscalar_ptr_iterator_tag@0@@Z
	DD	2 DUP(00H)
	DD	00H
	DD	01H
; Function compile flags: /Ogsp
; File c:\program files (x86)\microsoft visual studio 10.0\vc\include\memory
xdata$x	ENDS
;	COMDAT ??$_Uninit_move@PAUInvenBlockItem@ioUserBlockStorage@@PAU12@V?$allocator@UInvenBlockItem@ioUserBlockStorage@@@std@@U12@@std@@YAPAUInvenBlockItem@ioUserBlockStorage@@PAU12@00AAV?$allocator@UInvenBlockItem@ioUserBlockStorage@@@0@0U_Nonscalar_ptr_iterator_tag@0@@Z
_TEXT	SEGMENT
__Next$ = -20						; size = 4
__$EHRec$ = -16						; size = 16
__First$ = 8						; size = 4
__Last$ = 12						; size = 4
__Dest$ = 16						; size = 4
__Al$ = 20						; size = 4
___formal$ = 24						; size = 4
___formal$ = 28						; size = 1
??$_Uninit_move@PAUInvenBlockItem@ioUserBlockStorage@@PAU12@V?$allocator@UInvenBlockItem@ioUserBlockStorage@@@std@@U12@@std@@YAPAUInvenBlockItem@ioUserBlockStorage@@PAU12@00AAV?$allocator@UInvenBlockItem@ioUserBlockStorage@@@0@0U_Nonscalar_ptr_iterator_tag@0@@Z PROC ; std::_Uninit_move<ioUserBlockStorage::InvenBlockItem *,ioUserBlockStorage::InvenBlockItem *,std::allocator<ioUserBlockStorage::InvenBlockItem>,ioUserBlockStorage::InvenBlockItem>, COMDAT

; 424  : 	{	// move [_First, _Last) to raw _Dest, using _Al, arbitrary type

  00000	6a 08		 push	 8
  00002	b8 00 00 00 00	 mov	 eax, __ehhandler$??$_Uninit_move@PAUInvenBlockItem@ioUserBlockStorage@@PAU12@V?$allocator@UInvenBlockItem@ioUserBlockStorage@@@std@@U12@@std@@YAPAUInvenBlockItem@ioUserBlockStorage@@PAU12@00AAV?$allocator@UInvenBlockItem@ioUserBlockStorage@@@0@0U_Nonscalar_ptr_iterator_tag@0@@Z
  00007	e8 00 00 00 00	 call	 __EH_prolog3_catch

; 425  : 	_DEBUG_RANGE(_First, _Last);
; 426  : 	_DEBUG_POINTER(_Dest);
; 427  : 	_FwdIt _Next = _Dest;

  0000c	8b 45 10	 mov	 eax, DWORD PTR __Dest$[ebp]

; 428  : 
; 429  : 	_TRY_BEGIN

  0000f	83 65 fc 00	 and	 DWORD PTR __$EHRec$[ebp+12], 0
  00013	8b 75 08	 mov	 esi, DWORD PTR __First$[ebp]
  00016	89 45 ec	 mov	 DWORD PTR __Next$[ebp], eax
$LL6@Uninit_mov:

; 430  : 	for (; _First != _Last; ++_Dest, ++_First)

  00019	3b 75 0c	 cmp	 esi, DWORD PTR __Last$[ebp]
  0001c	74 35		 je	 SHORT $LN4@Uninit_mov

; 431  : 		_Cons_val(_Al, _Dest, (_Valty &&)*_First);

  0001e	56		 push	 esi
  0001f	ff 75 10	 push	 DWORD PTR __Dest$[ebp]
  00022	ff 75 14	 push	 DWORD PTR __Al$[ebp]
  00025	e8 00 00 00 00	 call	 ??$_Cons_val@V?$allocator@UInvenBlockItem@ioUserBlockStorage@@@std@@UInvenBlockItem@ioUserBlockStorage@@U34@@std@@YAXAAV?$allocator@UInvenBlockItem@ioUserBlockStorage@@@0@PAUInvenBlockItem@ioUserBlockStorage@@$$QAU23@@Z ; std::_Cons_val<std::allocator<ioUserBlockStorage::InvenBlockItem>,ioUserBlockStorage::InvenBlockItem,ioUserBlockStorage::InvenBlockItem>
  0002a	83 45 10 38	 add	 DWORD PTR __Dest$[ebp], 56 ; 00000038H
  0002e	83 c4 0c	 add	 esp, 12			; 0000000cH
  00031	83 c6 38	 add	 esi, 56			; 00000038H
  00034	eb e3		 jmp	 SHORT $LL6@Uninit_mov
__catch$??$_Uninit_move@PAUInvenBlockItem@ioUserBlockStorage@@PAU12@V?$allocator@UInvenBlockItem@ioUserBlockStorage@@@std@@U12@@std@@YAPAUInvenBlockItem@ioUserBlockStorage@@PAU12@00AAV?$allocator@UInvenBlockItem@ioUserBlockStorage@@@0@0U_Nonscalar_ptr_iterator_tag@0@@Z$0:

; 432  : 	_CATCH_ALL
; 433  : 	for (; _Next != _Dest; ++_Next)

  00036	8b 75 ec	 mov	 esi, DWORD PTR __Next$[ebp]
  00039	eb 0a		 jmp	 SHORT $LN29@Uninit_mov
$LL3@Uninit_mov:

; 434  : 		_Dest_val(_Al, _Next);

  0003b	8b ce		 mov	 ecx, esi
  0003d	e8 00 00 00 00	 call	 ??1InvenBlockItem@ioUserBlockStorage@@QAE@XZ
  00042	83 c6 38	 add	 esi, 56			; 00000038H
$LN29@Uninit_mov:

; 432  : 	_CATCH_ALL
; 433  : 	for (; _Next != _Dest; ++_Next)

  00045	3b 75 10	 cmp	 esi, DWORD PTR __Dest$[ebp]
  00048	75 f1		 jne	 SHORT $LL3@Uninit_mov

; 435  : 	_RERAISE;

  0004a	6a 00		 push	 0
  0004c	6a 00		 push	 0
  0004e	e8 00 00 00 00	 call	 __CxxThrowException@8
$LN30@Uninit_mov:
$LN4@Uninit_mov:

; 436  : 	_CATCH_END
; 437  : 	return (_Dest);

  00053	8b 45 10	 mov	 eax, DWORD PTR __Dest$[ebp]

; 438  : 	}

  00056	e8 00 00 00 00	 call	 __EH_epilog3
  0005b	c3		 ret	 0
$LN28@Uninit_mov:
_TEXT	ENDS
;	COMDAT text$x
text$x	SEGMENT
__ehhandler$??$_Uninit_move@PAUInvenBlockItem@ioUserBlockStorage@@PAU12@V?$allocator@UInvenBlockItem@ioUserBlockStorage@@@std@@U12@@std@@YAPAUInvenBlockItem@ioUserBlockStorage@@PAU12@00AAV?$allocator@UInvenBlockItem@ioUserBlockStorage@@@0@0U_Nonscalar_ptr_iterator_tag@0@@Z:
  00000	8b 54 24 08	 mov	 edx, DWORD PTR [esp+8]
  00004	8d 42 0c	 lea	 eax, DWORD PTR [edx+12]
  00007	8b 4a e8	 mov	 ecx, DWORD PTR [edx-24]
  0000a	33 c8		 xor	 ecx, eax
  0000c	e8 00 00 00 00	 call	 @__security_check_cookie@4
  00011	b8 00 00 00 00	 mov	 eax, OFFSET __ehfuncinfo$??$_Uninit_move@PAUInvenBlockItem@ioUserBlockStorage@@PAU12@V?$allocator@UInvenBlockItem@ioUserBlockStorage@@@std@@U12@@std@@YAPAUInvenBlockItem@ioUserBlockStorage@@PAU12@00AAV?$allocator@UInvenBlockItem@ioUserBlockStorage@@@0@0U_Nonscalar_ptr_iterator_tag@0@@Z
  00016	e9 00 00 00 00	 jmp	 ___CxxFrameHandler3
text$x	ENDS
??$_Uninit_move@PAUInvenBlockItem@ioUserBlockStorage@@PAU12@V?$allocator@UInvenBlockItem@ioUserBlockStorage@@@std@@U12@@std@@YAPAUInvenBlockItem@ioUserBlockStorage@@PAU12@00AAV?$allocator@UInvenBlockItem@ioUserBlockStorage@@@0@0U_Nonscalar_ptr_iterator_tag@0@@Z ENDP ; std::_Uninit_move<ioUserBlockStorage::InvenBlockItem *,ioUserBlockStorage::InvenBlockItem *,std::allocator<ioUserBlockStorage::InvenBlockItem>,ioUserBlockStorage::InvenBlockItem>
PUBLIC	?assign@?$basic_string@DU?$char_traits@D@std@@V?$allocator@D@2@@std@@QAEAAV12@PBD@Z ; std::basic_string<char,std::char_traits<char>,std::allocator<char> >::assign
; Function compile flags: /Ogsp
; File c:\program files (x86)\microsoft visual studio 10.0\vc\include\xstring
;	COMDAT ?assign@?$basic_string@DU?$char_traits@D@std@@V?$allocator@D@2@@std@@QAEAAV12@PBD@Z
_TEXT	SEGMENT
__Ptr$ = 8						; size = 4
?assign@?$basic_string@DU?$char_traits@D@std@@V?$allocator@D@2@@std@@QAEAAV12@PBD@Z PROC ; std::basic_string<char,std::char_traits<char>,std::allocator<char> >::assign, COMDAT
; _this$ = ecx

; 929  : 		{	// assign [_Ptr, <null>)

  00000	55		 push	 ebp
  00001	8b ec		 mov	 ebp, esp

; 930  : 		_DEBUG_POINTER(_Ptr);
; 931  : 		return (assign(_Ptr, _Traits::length(_Ptr)));

  00003	8b 45 08	 mov	 eax, DWORD PTR __Ptr$[ebp]
  00006	8d 50 01	 lea	 edx, DWORD PTR [eax+1]
  00009	53		 push	 ebx
$LL5@assign@3:
  0000a	8a 18		 mov	 bl, BYTE PTR [eax]
  0000c	40		 inc	 eax
  0000d	84 db		 test	 bl, bl
  0000f	75 f9		 jne	 SHORT $LL5@assign@3
  00011	2b c2		 sub	 eax, edx
  00013	50		 push	 eax
  00014	ff 75 08	 push	 DWORD PTR __Ptr$[ebp]
  00017	e8 00 00 00 00	 call	 ?assign@?$basic_string@DU?$char_traits@D@std@@V?$allocator@D@2@@std@@QAEAAV12@PBDI@Z ; std::basic_string<char,std::char_traits<char>,std::allocator<char> >::assign
  0001c	5b		 pop	 ebx

; 932  : 		}

  0001d	5d		 pop	 ebp
  0001e	c2 04 00	 ret	 4
?assign@?$basic_string@DU?$char_traits@D@std@@V?$allocator@D@2@@std@@QAEAAV12@PBD@Z ENDP ; std::basic_string<char,std::char_traits<char>,std::allocator<char> >::assign
_TEXT	ENDS
PUBLIC	??$_Destroy_range@V?$allocator@UInvenBlockItem@ioUserBlockStorage@@@std@@@std@@YAXPAUInvenBlockItem@ioUserBlockStorage@@0AAV?$allocator@UInvenBlockItem@ioUserBlockStorage@@@0@@Z ; std::_Destroy_range<std::allocator<ioUserBlockStorage::InvenBlockItem> >
; Function compile flags: /Ogsp
; File c:\program files (x86)\microsoft visual studio 10.0\vc\include\xmemory
;	COMDAT ??$_Destroy_range@V?$allocator@UInvenBlockItem@ioUserBlockStorage@@@std@@@std@@YAXPAUInvenBlockItem@ioUserBlockStorage@@0AAV?$allocator@UInvenBlockItem@ioUserBlockStorage@@@0@@Z
_TEXT	SEGMENT
__First$ = 8						; size = 4
__Last$ = 12						; size = 4
__Al$ = 16						; size = 4
??$_Destroy_range@V?$allocator@UInvenBlockItem@ioUserBlockStorage@@@std@@@std@@YAXPAUInvenBlockItem@ioUserBlockStorage@@0AAV?$allocator@UInvenBlockItem@ioUserBlockStorage@@@0@@Z PROC ; std::_Destroy_range<std::allocator<ioUserBlockStorage::InvenBlockItem> >, COMDAT

; 87   : 	{	// destroy [_First, _Last)

  00000	55		 push	 ebp
  00001	8b ec		 mov	 ebp, esp
  00003	56		 push	 esi

; 88   : 	_Destroy_range(_First, _Last, _Al, _Ptr_cat(_First, _Last));

  00004	8b 75 08	 mov	 esi, DWORD PTR __First$[ebp]
  00007	eb 0a		 jmp	 SHORT $LN21@Destroy_ra@2
$LL7@Destroy_ra@2:
  00009	8b ce		 mov	 ecx, esi
  0000b	e8 00 00 00 00	 call	 ??1InvenBlockItem@ioUserBlockStorage@@QAE@XZ
  00010	83 c6 38	 add	 esi, 56			; 00000038H
$LN21@Destroy_ra@2:
  00013	3b 75 0c	 cmp	 esi, DWORD PTR __Last$[ebp]
  00016	75 f1		 jne	 SHORT $LL7@Destroy_ra@2
  00018	5e		 pop	 esi

; 89   : 	}

  00019	5d		 pop	 ebp
  0001a	c3		 ret	 0
??$_Destroy_range@V?$allocator@UInvenBlockItem@ioUserBlockStorage@@@std@@@std@@YAXPAUInvenBlockItem@ioUserBlockStorage@@0AAV?$allocator@UInvenBlockItem@ioUserBlockStorage@@@0@@Z ENDP ; std::_Destroy_range<std::allocator<ioUserBlockStorage::InvenBlockItem> >
_TEXT	ENDS
PUBLIC	??$_Uninitialized_move@PAUInvenBlockItem@ioUserBlockStorage@@PAU12@V?$allocator@UInvenBlockItem@ioUserBlockStorage@@@std@@@std@@YAPAUInvenBlockItem@ioUserBlockStorage@@PAU12@00AAV?$allocator@UInvenBlockItem@ioUserBlockStorage@@@0@@Z ; std::_Uninitialized_move<ioUserBlockStorage::InvenBlockItem *,ioUserBlockStorage::InvenBlockItem *,std::allocator<ioUserBlockStorage::InvenBlockItem> >
; Function compile flags: /Ogsp
; File c:\program files (x86)\microsoft visual studio 10.0\vc\include\memory
;	COMDAT ??$_Uninitialized_move@PAUInvenBlockItem@ioUserBlockStorage@@PAU12@V?$allocator@UInvenBlockItem@ioUserBlockStorage@@@std@@@std@@YAPAUInvenBlockItem@ioUserBlockStorage@@PAU12@00AAV?$allocator@UInvenBlockItem@ioUserBlockStorage@@@0@@Z
_TEXT	SEGMENT
__Cat$520027 = -4					; size = 1
__First$ = 8						; size = 4
__Last$ = 12						; size = 4
__Dest$ = 16						; size = 4
__Al$ = 20						; size = 4
??$_Uninitialized_move@PAUInvenBlockItem@ioUserBlockStorage@@PAU12@V?$allocator@UInvenBlockItem@ioUserBlockStorage@@@std@@@std@@YAPAUInvenBlockItem@ioUserBlockStorage@@PAU12@00AAV?$allocator@UInvenBlockItem@ioUserBlockStorage@@@0@@Z PROC ; std::_Uninitialized_move<ioUserBlockStorage::InvenBlockItem *,ioUserBlockStorage::InvenBlockItem *,std::allocator<ioUserBlockStorage::InvenBlockItem> >, COMDAT

; 469  : 	{	// move [_First, _Last) to raw _Dest, using _Al

  00000	55		 push	 ebp
  00001	8b ec		 mov	 ebp, esp
  00003	51		 push	 ecx

; 470  : 	return (_Uninit_move(_First, _Last, _Dest, _Al,
; 471  : 		_Val_type(_First), _Ptr_cat(_First, _Dest)));

  00004	ff 75 fc	 push	 DWORD PTR __Cat$520027[ebp]
  00007	6a 00		 push	 0
  00009	ff 75 14	 push	 DWORD PTR __Al$[ebp]
  0000c	ff 75 10	 push	 DWORD PTR __Dest$[ebp]
  0000f	ff 75 0c	 push	 DWORD PTR __Last$[ebp]
  00012	ff 75 08	 push	 DWORD PTR __First$[ebp]
  00015	e8 00 00 00 00	 call	 ??$_Uninit_move@PAUInvenBlockItem@ioUserBlockStorage@@PAU12@V?$allocator@UInvenBlockItem@ioUserBlockStorage@@@std@@U12@@std@@YAPAUInvenBlockItem@ioUserBlockStorage@@PAU12@00AAV?$allocator@UInvenBlockItem@ioUserBlockStorage@@@0@0U_Nonscalar_ptr_iterator_tag@0@@Z ; std::_Uninit_move<ioUserBlockStorage::InvenBlockItem *,ioUserBlockStorage::InvenBlockItem *,std::allocator<ioUserBlockStorage::InvenBlockItem>,ioUserBlockStorage::InvenBlockItem>
  0001a	83 c4 18	 add	 esp, 24			; 00000018H

; 472  : 	}

  0001d	c9		 leave
  0001e	c3		 ret	 0
??$_Uninitialized_move@PAUInvenBlockItem@ioUserBlockStorage@@PAU12@V?$allocator@UInvenBlockItem@ioUserBlockStorage@@@std@@@std@@YAPAUInvenBlockItem@ioUserBlockStorage@@PAU12@00AAV?$allocator@UInvenBlockItem@ioUserBlockStorage@@@0@@Z ENDP ; std::_Uninitialized_move<ioUserBlockStorage::InvenBlockItem *,ioUserBlockStorage::InvenBlockItem *,std::allocator<ioUserBlockStorage::InvenBlockItem> >
_TEXT	ENDS
PUBLIC	??0?$basic_string@DU?$char_traits@D@std@@V?$allocator@D@2@@std@@QAE@PBD@Z ; std::basic_string<char,std::char_traits<char>,std::allocator<char> >::basic_string<char,std::char_traits<char>,std::allocator<char> >
; Function compile flags: /Ogsp
; File c:\program files (x86)\microsoft visual studio 10.0\vc\include\xstring
;	COMDAT ??0?$basic_string@DU?$char_traits@D@std@@V?$allocator@D@2@@std@@QAE@PBD@Z
_TEXT	SEGMENT
__Ptr$ = 8						; size = 4
??0?$basic_string@DU?$char_traits@D@std@@V?$allocator@D@2@@std@@QAE@PBD@Z PROC ; std::basic_string<char,std::char_traits<char>,std::allocator<char> >::basic_string<char,std::char_traits<char>,std::allocator<char> >, COMDAT
; _this$ = ecx

; 592  : 		{	// construct from [_Ptr, <null>)

  00000	55		 push	 ebp
  00001	8b ec		 mov	 ebp, esp
  00003	56		 push	 esi

; 593  : 		_Tidy();
; 594  : 		assign(_Ptr);

  00004	ff 75 08	 push	 DWORD PTR __Ptr$[ebp]
  00007	8b f1		 mov	 esi, ecx
  00009	83 66 10 00	 and	 DWORD PTR [esi+16], 0
  0000d	c7 46 14 0f 00
	00 00		 mov	 DWORD PTR [esi+20], 15	; 0000000fH
  00014	c6 06 00	 mov	 BYTE PTR [esi], 0
  00017	e8 00 00 00 00	 call	 ?assign@?$basic_string@DU?$char_traits@D@std@@V?$allocator@D@2@@std@@QAEAAV12@PBD@Z ; std::basic_string<char,std::char_traits<char>,std::allocator<char> >::assign

; 595  : 		}

  0001c	8b c6		 mov	 eax, esi
  0001e	5e		 pop	 esi
  0001f	5d		 pop	 ebp
  00020	c2 04 00	 ret	 4
??0?$basic_string@DU?$char_traits@D@std@@V?$allocator@D@2@@std@@QAE@PBD@Z ENDP ; std::basic_string<char,std::char_traits<char>,std::allocator<char> >::basic_string<char,std::char_traits<char>,std::allocator<char> >
_TEXT	ENDS
PUBLIC	?_Destroy@?$vector@UInvenBlockItem@ioUserBlockStorage@@V?$allocator@UInvenBlockItem@ioUserBlockStorage@@@std@@@std@@IAEXPAUInvenBlockItem@ioUserBlockStorage@@0@Z ; std::vector<ioUserBlockStorage::InvenBlockItem,std::allocator<ioUserBlockStorage::InvenBlockItem> >::_Destroy
; Function compile flags: /Ogsp
; File c:\program files (x86)\microsoft visual studio 10.0\vc\include\vector
;	COMDAT ?_Destroy@?$vector@UInvenBlockItem@ioUserBlockStorage@@V?$allocator@UInvenBlockItem@ioUserBlockStorage@@@std@@@std@@IAEXPAUInvenBlockItem@ioUserBlockStorage@@0@Z
_TEXT	SEGMENT
__First$ = 8						; size = 4
__Last$ = 12						; size = 4
?_Destroy@?$vector@UInvenBlockItem@ioUserBlockStorage@@V?$allocator@UInvenBlockItem@ioUserBlockStorage@@@std@@@std@@IAEXPAUInvenBlockItem@ioUserBlockStorage@@0@Z PROC ; std::vector<ioUserBlockStorage::InvenBlockItem,std::allocator<ioUserBlockStorage::InvenBlockItem> >::_Destroy, COMDAT
; _this$ = ecx

; 1269 : 		{	// destroy [_First, _Last) using allocator

  00000	55		 push	 ebp
  00001	8b ec		 mov	 ebp, esp
  00003	56		 push	 esi

; 1270 : 		_Destroy_range(_First, _Last, this->_Alval);

  00004	8b 75 08	 mov	 esi, DWORD PTR __First$[ebp]
  00007	eb 0a		 jmp	 SHORT $LN23@Destroy
$LL9@Destroy:
  00009	8b ce		 mov	 ecx, esi
  0000b	e8 00 00 00 00	 call	 ??1InvenBlockItem@ioUserBlockStorage@@QAE@XZ
  00010	83 c6 38	 add	 esi, 56			; 00000038H
$LN23@Destroy:
  00013	3b 75 0c	 cmp	 esi, DWORD PTR __Last$[ebp]
  00016	75 f1		 jne	 SHORT $LL9@Destroy
  00018	5e		 pop	 esi

; 1271 : 		}

  00019	5d		 pop	 ebp
  0001a	c2 08 00	 ret	 8
?_Destroy@?$vector@UInvenBlockItem@ioUserBlockStorage@@V?$allocator@UInvenBlockItem@ioUserBlockStorage@@@std@@@std@@IAEXPAUInvenBlockItem@ioUserBlockStorage@@0@Z ENDP ; std::vector<ioUserBlockStorage::InvenBlockItem,std::allocator<ioUserBlockStorage::InvenBlockItem> >::_Destroy
_TEXT	ENDS
PUBLIC	??$_Umove@PAUInvenBlockItem@ioUserBlockStorage@@@?$vector@UInvenBlockItem@ioUserBlockStorage@@V?$allocator@UInvenBlockItem@ioUserBlockStorage@@@std@@@std@@IAEPAUInvenBlockItem@ioUserBlockStorage@@PAU23@00@Z ; std::vector<ioUserBlockStorage::InvenBlockItem,std::allocator<ioUserBlockStorage::InvenBlockItem> >::_Umove<ioUserBlockStorage::InvenBlockItem *>
; Function compile flags: /Ogsp
;	COMDAT ??$_Umove@PAUInvenBlockItem@ioUserBlockStorage@@@?$vector@UInvenBlockItem@ioUserBlockStorage@@V?$allocator@UInvenBlockItem@ioUserBlockStorage@@@std@@@std@@IAEPAUInvenBlockItem@ioUserBlockStorage@@PAU23@00@Z
_TEXT	SEGMENT
__First$ = 8						; size = 4
__Last$ = 12						; size = 4
__Ptr$ = 16						; size = 4
??$_Umove@PAUInvenBlockItem@ioUserBlockStorage@@@?$vector@UInvenBlockItem@ioUserBlockStorage@@V?$allocator@UInvenBlockItem@ioUserBlockStorage@@@std@@@std@@IAEPAUInvenBlockItem@ioUserBlockStorage@@PAU23@00@Z PROC ; std::vector<ioUserBlockStorage::InvenBlockItem,std::allocator<ioUserBlockStorage::InvenBlockItem> >::_Umove<ioUserBlockStorage::InvenBlockItem *>, COMDAT
; _this$ = ecx

; 1322 : 		pointer _Umove(_Iter _First, _Iter _Last, pointer _Ptr)

  00000	55		 push	 ebp
  00001	8b ec		 mov	 ebp, esp

; 1323 : 		{	// move initializing [_First, _Last), using allocator
; 1324 : 		return (_Uninitialized_move(_First, _Last,
; 1325 : 			_Ptr, this->_Alval));

  00003	83 c1 0c	 add	 ecx, 12			; 0000000cH
  00006	51		 push	 ecx
  00007	ff 75 10	 push	 DWORD PTR __Ptr$[ebp]
  0000a	ff 75 0c	 push	 DWORD PTR __Last$[ebp]
  0000d	ff 75 08	 push	 DWORD PTR __First$[ebp]
  00010	e8 00 00 00 00	 call	 ??$_Uninitialized_move@PAUInvenBlockItem@ioUserBlockStorage@@PAU12@V?$allocator@UInvenBlockItem@ioUserBlockStorage@@@std@@@std@@YAPAUInvenBlockItem@ioUserBlockStorage@@PAU12@00AAV?$allocator@UInvenBlockItem@ioUserBlockStorage@@@0@@Z ; std::_Uninitialized_move<ioUserBlockStorage::InvenBlockItem *,ioUserBlockStorage::InvenBlockItem *,std::allocator<ioUserBlockStorage::InvenBlockItem> >
  00015	83 c4 10	 add	 esp, 16			; 00000010H

; 1326 : 		}

  00018	5d		 pop	 ebp
  00019	c2 0c 00	 ret	 12			; 0000000cH
??$_Umove@PAUInvenBlockItem@ioUserBlockStorage@@@?$vector@UInvenBlockItem@ioUserBlockStorage@@V?$allocator@UInvenBlockItem@ioUserBlockStorage@@@std@@@std@@IAEPAUInvenBlockItem@ioUserBlockStorage@@PAU23@00@Z ENDP ; std::vector<ioUserBlockStorage::InvenBlockItem,std::allocator<ioUserBlockStorage::InvenBlockItem> >::_Umove<ioUserBlockStorage::InvenBlockItem *>
_TEXT	ENDS
PUBLIC	?_Tidy@?$vector@UInvenBlockItem@ioUserBlockStorage@@V?$allocator@UInvenBlockItem@ioUserBlockStorage@@@std@@@std@@IAEXXZ ; std::vector<ioUserBlockStorage::InvenBlockItem,std::allocator<ioUserBlockStorage::InvenBlockItem> >::_Tidy
EXTRN	__imp_?_Orphan_all@_Container_base0@std@@QAEXXZ:PROC
; Function compile flags: /Ogsp
;	COMDAT ?_Tidy@?$vector@UInvenBlockItem@ioUserBlockStorage@@V?$allocator@UInvenBlockItem@ioUserBlockStorage@@@std@@@std@@IAEXXZ
_TEXT	SEGMENT
?_Tidy@?$vector@UInvenBlockItem@ioUserBlockStorage@@V?$allocator@UInvenBlockItem@ioUserBlockStorage@@@std@@@std@@IAEXXZ PROC ; std::vector<ioUserBlockStorage::InvenBlockItem,std::allocator<ioUserBlockStorage::InvenBlockItem> >::_Tidy, COMDAT
; _this$ = ecx

; 1301 : 		{	// free all storage

  00000	56		 push	 esi
  00001	8b f1		 mov	 esi, ecx

; 1302 : 		if (this->_Myfirst != 0)

  00003	83 3e 00	 cmp	 DWORD PTR [esi], 0
  00006	74 27		 je	 SHORT $LN24@Tidy@2

; 1303 : 			{	// something to free, destroy and deallocate it
; 1304 : 			this->_Orphan_all();

  00008	53		 push	 ebx
  00009	57		 push	 edi
  0000a	ff 15 00 00 00
	00		 call	 DWORD PTR __imp_?_Orphan_all@_Container_base0@std@@QAEXXZ

; 1305 : 			_Destroy(this->_Myfirst, this->_Mylast);

  00010	8b 5e 04	 mov	 ebx, DWORD PTR [esi+4]
  00013	8b 3e		 mov	 edi, DWORD PTR [esi]
  00015	eb 0a		 jmp	 SHORT $LN28@Tidy@2
$LL12@Tidy@2:
  00017	8b cf		 mov	 ecx, edi
  00019	e8 00 00 00 00	 call	 ??1InvenBlockItem@ioUserBlockStorage@@QAE@XZ
  0001e	83 c7 38	 add	 edi, 56			; 00000038H
$LN28@Tidy@2:
  00021	3b fb		 cmp	 edi, ebx
  00023	75 f2		 jne	 SHORT $LL12@Tidy@2

; 1306 : 			this->_Alval.deallocate(this->_Myfirst,
; 1307 : 				this->_Myend - this->_Myfirst);

  00025	ff 36		 push	 DWORD PTR [esi]
  00027	e8 00 00 00 00	 call	 ??3@YAXPAX@Z		; operator delete
  0002c	59		 pop	 ecx
  0002d	5f		 pop	 edi
  0002e	5b		 pop	 ebx
$LN24@Tidy@2:

; 1308 : 			}
; 1309 : 		this->_Myfirst = 0;

  0002f	33 c0		 xor	 eax, eax
  00031	89 06		 mov	 DWORD PTR [esi], eax

; 1310 : 		this->_Mylast = 0;

  00033	89 46 04	 mov	 DWORD PTR [esi+4], eax

; 1311 : 		this->_Myend = 0;

  00036	89 46 08	 mov	 DWORD PTR [esi+8], eax
  00039	5e		 pop	 esi

; 1312 : 		}

  0003a	c3		 ret	 0
?_Tidy@?$vector@UInvenBlockItem@ioUserBlockStorage@@V?$allocator@UInvenBlockItem@ioUserBlockStorage@@@std@@@std@@IAEXXZ ENDP ; std::vector<ioUserBlockStorage::InvenBlockItem,std::allocator<ioUserBlockStorage::InvenBlockItem> >::_Tidy
_TEXT	ENDS
PUBLIC	?reserve@?$vector@UInvenBlockItem@ioUserBlockStorage@@V?$allocator@UInvenBlockItem@ioUserBlockStorage@@@std@@@std@@QAEXI@Z ; std::vector<ioUserBlockStorage::InvenBlockItem,std::allocator<ioUserBlockStorage::InvenBlockItem> >::reserve
;	COMDAT xdata$x
; File c:\program files (x86)\microsoft visual studio 10.0\vc\include\xmemory
xdata$x	SEGMENT
__catchsym$?reserve@?$vector@UInvenBlockItem@ioUserBlockStorage@@V?$allocator@UInvenBlockItem@ioUserBlockStorage@@@std@@@std@@QAEXI@Z$2 DD 040H
	DD	00H
	DD	00H
	DD	FLAT:__catch$?reserve@?$vector@UInvenBlockItem@ioUserBlockStorage@@V?$allocator@UInvenBlockItem@ioUserBlockStorage@@@std@@@std@@QAEXI@Z$0
__unwindtable$?reserve@?$vector@UInvenBlockItem@ioUserBlockStorage@@V?$allocator@UInvenBlockItem@ioUserBlockStorage@@@std@@@std@@QAEXI@Z DD 0ffffffffH
	DD	00H
	DD	0ffffffffH
	DD	00H
__tryblocktable$?reserve@?$vector@UInvenBlockItem@ioUserBlockStorage@@V?$allocator@UInvenBlockItem@ioUserBlockStorage@@@std@@@std@@QAEXI@Z DD 00H
	DD	00H
	DD	01H
	DD	01H
	DD	FLAT:__catchsym$?reserve@?$vector@UInvenBlockItem@ioUserBlockStorage@@V?$allocator@UInvenBlockItem@ioUserBlockStorage@@@std@@@std@@QAEXI@Z$2
__ehfuncinfo$?reserve@?$vector@UInvenBlockItem@ioUserBlockStorage@@V?$allocator@UInvenBlockItem@ioUserBlockStorage@@@std@@@std@@QAEXI@Z DD 019930522H
	DD	02H
	DD	FLAT:__unwindtable$?reserve@?$vector@UInvenBlockItem@ioUserBlockStorage@@V?$allocator@UInvenBlockItem@ioUserBlockStorage@@@std@@@std@@QAEXI@Z
	DD	01H
	DD	FLAT:__tryblocktable$?reserve@?$vector@UInvenBlockItem@ioUserBlockStorage@@V?$allocator@UInvenBlockItem@ioUserBlockStorage@@@std@@@std@@QAEXI@Z
	DD	2 DUP(00H)
	DD	00H
	DD	01H
; Function compile flags: /Ogsp
; File c:\program files (x86)\microsoft visual studio 10.0\vc\include\vector
xdata$x	ENDS
;	COMDAT ?reserve@?$vector@UInvenBlockItem@ioUserBlockStorage@@V?$allocator@UInvenBlockItem@ioUserBlockStorage@@@std@@@std@@QAEXI@Z
_TEXT	SEGMENT
__Ptr$516915 = -24					; size = 4
$T520373 = -20						; size = 4
__$EHRec$ = -16						; size = 16
__Count$ = 8						; size = 4
?reserve@?$vector@UInvenBlockItem@ioUserBlockStorage@@V?$allocator@UInvenBlockItem@ioUserBlockStorage@@@std@@@std@@QAEXI@Z PROC ; std::vector<ioUserBlockStorage::InvenBlockItem,std::allocator<ioUserBlockStorage::InvenBlockItem> >::reserve, COMDAT
; _this$ = ecx

; 746  : 		{	// determine new minimum length of allocated storage

  00000	6a 0c		 push	 12			; 0000000cH
  00002	b8 00 00 00 00	 mov	 eax, __ehhandler$?reserve@?$vector@UInvenBlockItem@ioUserBlockStorage@@V?$allocator@UInvenBlockItem@ioUserBlockStorage@@@std@@@std@@QAEXI@Z
  00007	e8 00 00 00 00	 call	 __EH_prolog3_catch
  0000c	8b f1		 mov	 esi, ecx

; 747  : 		if (max_size() < _Count)

  0000e	81 7d 08 24 49
	92 04		 cmp	 DWORD PTR __Count$[ebp], 76695844 ; 04924924H
  00015	76 0b		 jbe	 SHORT $LN5@reserve

; 748  : 			_Xlen();	// result too long

  00017	68 00 00 00 00	 push	 OFFSET ??_C@_0BD@OLBABOEK@vector?$DMT?$DO?5too?5long?$AA@
  0001c	ff 15 00 00 00
	00		 call	 DWORD PTR __imp_?_Xlength_error@std@@YAXPBD@Z
$LN59@reserve:
$LN5@reserve:

; 749  : 		else if (capacity() < _Count)

  00022	8b 46 08	 mov	 eax, DWORD PTR [esi+8]
  00025	2b 06		 sub	 eax, DWORD PTR [esi]
  00027	6a 38		 push	 56			; 00000038H
  00029	99		 cdq
  0002a	59		 pop	 ecx
  0002b	f7 f9		 idiv	 ecx
  0002d	3b 45 08	 cmp	 eax, DWORD PTR __Count$[ebp]
  00030	0f 83 80 00 00
	00		 jae	 $LN3@reserve

; 750  : 			{	// not enough room, reallocate
; 751  : 			pointer _Ptr = this->_Alval.allocate(_Count);

  00036	6a 00		 push	 0
  00038	ff 75 08	 push	 DWORD PTR __Count$[ebp]
  0003b	e8 00 00 00 00	 call	 ??$_Allocate@UInvenBlockItem@ioUserBlockStorage@@@std@@YAPAUInvenBlockItem@ioUserBlockStorage@@IPAU12@@Z ; std::_Allocate<ioUserBlockStorage::InvenBlockItem>

; 752  : 
; 753  : 			_TRY_BEGIN
; 754  : 			_Umove(this->_Myfirst, this->_Mylast, _Ptr);

  00040	8b 0e		 mov	 ecx, DWORD PTR [esi]
  00042	83 65 fc 00	 and	 DWORD PTR __$EHRec$[ebp+12], 0
  00046	8d 56 0c	 lea	 edx, DWORD PTR [esi+12]
  00049	52		 push	 edx
  0004a	89 45 e8	 mov	 DWORD PTR __Ptr$516915[ebp], eax
  0004d	ff 75 e8	 push	 DWORD PTR __Ptr$516915[ebp]
  00050	8b 46 04	 mov	 eax, DWORD PTR [esi+4]
  00053	50		 push	 eax
  00054	51		 push	 ecx
  00055	e8 00 00 00 00	 call	 ??$_Uninitialized_move@PAUInvenBlockItem@ioUserBlockStorage@@PAU12@V?$allocator@UInvenBlockItem@ioUserBlockStorage@@@std@@@std@@YAPAUInvenBlockItem@ioUserBlockStorage@@PAU12@00AAV?$allocator@UInvenBlockItem@ioUserBlockStorage@@@0@@Z ; std::_Uninitialized_move<ioUserBlockStorage::InvenBlockItem *,ioUserBlockStorage::InvenBlockItem *,std::allocator<ioUserBlockStorage::InvenBlockItem> >

; 758  : 			_CATCH_END
; 759  : 
; 760  : 			size_type _Size = size();

  0005a	8b 5e 04	 mov	 ebx, DWORD PTR [esi+4]
  0005d	8b 0e		 mov	 ecx, DWORD PTR [esi]
  0005f	83 c4 18	 add	 esp, 24			; 00000018H
  00062	8b c3		 mov	 eax, ebx
  00064	2b c1		 sub	 eax, ecx
  00066	6a 38		 push	 56			; 00000038H
  00068	99		 cdq
  00069	5f		 pop	 edi
  0006a	f7 ff		 idiv	 edi
  0006c	83 4d fc ff	 or	 DWORD PTR __$EHRec$[ebp+12], -1
  00070	8b f8		 mov	 edi, eax
  00072	85 c9		 test	 ecx, ecx
  00074	74 20		 je	 SHORT $LN51@reserve

; 761  : 			if (this->_Myfirst != 0)
; 762  : 				{	// destroy and deallocate old array
; 763  : 				_Destroy(this->_Myfirst, this->_Mylast);

  00076	89 4d ec	 mov	 DWORD PTR $T520373[ebp], ecx
  00079	3b cb		 cmp	 ecx, ebx
  0007b	74 11		 je	 SHORT $LN37@reserve
$LN39@reserve:
  0007d	8b 4d ec	 mov	 ecx, DWORD PTR $T520373[ebp]
  00080	e8 00 00 00 00	 call	 ??1InvenBlockItem@ioUserBlockStorage@@QAE@XZ
  00085	83 45 ec 38	 add	 DWORD PTR $T520373[ebp], 56 ; 00000038H
  00089	39 5d ec	 cmp	 DWORD PTR $T520373[ebp], ebx
  0008c	75 ef		 jne	 SHORT $LN39@reserve
$LN37@reserve:

; 764  : 				this->_Alval.deallocate(this->_Myfirst,
; 765  : 					this->_Myend - this->_Myfirst);

  0008e	ff 36		 push	 DWORD PTR [esi]
  00090	e8 00 00 00 00	 call	 ??3@YAXPAX@Z		; operator delete
  00095	59		 pop	 ecx
$LN51@reserve:

; 766  : 				}
; 767  : 
; 768  : 			this->_Orphan_all();

  00096	8b ce		 mov	 ecx, esi
  00098	ff 15 00 00 00
	00		 call	 DWORD PTR __imp_?_Orphan_all@_Container_base0@std@@QAEXXZ

; 769  : 			this->_Myend = _Ptr + _Count;
; 770  : 			this->_Mylast = _Ptr + _Size;

  0009e	6b ff 38	 imul	 edi, 56			; 00000038H
  000a1	8b 45 08	 mov	 eax, DWORD PTR __Count$[ebp]
  000a4	8b 4d e8	 mov	 ecx, DWORD PTR __Ptr$516915[ebp]
  000a7	6b c0 38	 imul	 eax, 56			; 00000038H
  000aa	03 c1		 add	 eax, ecx
  000ac	03 f9		 add	 edi, ecx
  000ae	89 46 08	 mov	 DWORD PTR [esi+8], eax
  000b1	89 7e 04	 mov	 DWORD PTR [esi+4], edi

; 771  : 			this->_Myfirst = _Ptr;

  000b4	89 0e		 mov	 DWORD PTR [esi], ecx
$LN3@reserve:

; 772  : 			}
; 773  : 		}

  000b6	e8 00 00 00 00	 call	 __EH_epilog3
  000bb	c2 04 00	 ret	 4
__catch$?reserve@?$vector@UInvenBlockItem@ioUserBlockStorage@@V?$allocator@UInvenBlockItem@ioUserBlockStorage@@@std@@@std@@QAEXI@Z$0:

; 755  : 			_CATCH_ALL
; 756  : 			this->_Alval.deallocate(_Ptr, _Count);

  000be	ff 75 e8	 push	 DWORD PTR __Ptr$516915[ebp]
  000c1	e8 00 00 00 00	 call	 ??3@YAXPAX@Z		; operator delete
  000c6	59		 pop	 ecx

; 757  : 			_RERAISE;

  000c7	6a 00		 push	 0
  000c9	6a 00		 push	 0
  000cb	e8 00 00 00 00	 call	 __CxxThrowException@8
$LN60@reserve:
$LN58@reserve:
  000d0	cc		 int	 3
_TEXT	ENDS
;	COMDAT text$x
text$x	SEGMENT
__ehhandler$?reserve@?$vector@UInvenBlockItem@ioUserBlockStorage@@V?$allocator@UInvenBlockItem@ioUserBlockStorage@@@std@@@std@@QAEXI@Z:
  00000	8b 54 24 08	 mov	 edx, DWORD PTR [esp+8]
  00004	8d 42 0c	 lea	 eax, DWORD PTR [edx+12]
  00007	8b 4a e4	 mov	 ecx, DWORD PTR [edx-28]
  0000a	33 c8		 xor	 ecx, eax
  0000c	e8 00 00 00 00	 call	 @__security_check_cookie@4
  00011	b8 00 00 00 00	 mov	 eax, OFFSET __ehfuncinfo$?reserve@?$vector@UInvenBlockItem@ioUserBlockStorage@@V?$allocator@UInvenBlockItem@ioUserBlockStorage@@@std@@@std@@QAEXI@Z
  00016	e9 00 00 00 00	 jmp	 ___CxxFrameHandler3
text$x	ENDS
?reserve@?$vector@UInvenBlockItem@ioUserBlockStorage@@V?$allocator@UInvenBlockItem@ioUserBlockStorage@@@std@@@std@@QAEXI@Z ENDP ; std::vector<ioUserBlockStorage::InvenBlockItem,std::allocator<ioUserBlockStorage::InvenBlockItem> >::reserve
PUBLIC	??1?$vector@UInvenBlockItem@ioUserBlockStorage@@V?$allocator@UInvenBlockItem@ioUserBlockStorage@@@std@@@std@@QAE@XZ ; std::vector<ioUserBlockStorage::InvenBlockItem,std::allocator<ioUserBlockStorage::InvenBlockItem> >::~vector<ioUserBlockStorage::InvenBlockItem,std::allocator<ioUserBlockStorage::InvenBlockItem> >
; Function compile flags: /Ogsp
;	COMDAT ??1?$vector@UInvenBlockItem@ioUserBlockStorage@@V?$allocator@UInvenBlockItem@ioUserBlockStorage@@@std@@@std@@QAE@XZ
_TEXT	SEGMENT
??1?$vector@UInvenBlockItem@ioUserBlockStorage@@V?$allocator@UInvenBlockItem@ioUserBlockStorage@@@std@@@std@@QAE@XZ PROC ; std::vector<ioUserBlockStorage::InvenBlockItem,std::allocator<ioUserBlockStorage::InvenBlockItem> >::~vector<ioUserBlockStorage::InvenBlockItem,std::allocator<ioUserBlockStorage::InvenBlockItem> >, COMDAT
; _this$ = ecx

; 705  : 		_Tidy();

  00000	e9 00 00 00 00	 jmp	 ?_Tidy@?$vector@UInvenBlockItem@ioUserBlockStorage@@V?$allocator@UInvenBlockItem@ioUserBlockStorage@@@std@@@std@@IAEXXZ ; std::vector<ioUserBlockStorage::InvenBlockItem,std::allocator<ioUserBlockStorage::InvenBlockItem> >::_Tidy
??1?$vector@UInvenBlockItem@ioUserBlockStorage@@V?$allocator@UInvenBlockItem@ioUserBlockStorage@@@std@@@std@@QAE@XZ ENDP ; std::vector<ioUserBlockStorage::InvenBlockItem,std::allocator<ioUserBlockStorage::InvenBlockItem> >::~vector<ioUserBlockStorage::InvenBlockItem,std::allocator<ioUserBlockStorage::InvenBlockItem> >
_TEXT	ENDS
PUBLIC	?_Reserve@?$vector@UInvenBlockItem@ioUserBlockStorage@@V?$allocator@UInvenBlockItem@ioUserBlockStorage@@@std@@@std@@IAEXI@Z ; std::vector<ioUserBlockStorage::InvenBlockItem,std::allocator<ioUserBlockStorage::InvenBlockItem> >::_Reserve
; Function compile flags: /Ogsp
;	COMDAT ?_Reserve@?$vector@UInvenBlockItem@ioUserBlockStorage@@V?$allocator@UInvenBlockItem@ioUserBlockStorage@@@std@@@std@@IAEXI@Z
_TEXT	SEGMENT
__Count$ = 8						; size = 4
?_Reserve@?$vector@UInvenBlockItem@ioUserBlockStorage@@V?$allocator@UInvenBlockItem@ioUserBlockStorage@@@std@@@std@@IAEXI@Z PROC ; std::vector<ioUserBlockStorage::InvenBlockItem,std::allocator<ioUserBlockStorage::InvenBlockItem> >::_Reserve, COMDAT
; _this$ = ecx

; 1290 : 		{	// ensure room for _Count new elements, grow exponentially

  00000	55		 push	 ebp
  00001	8b ec		 mov	 ebp, esp
  00003	56		 push	 esi
  00004	8b f1		 mov	 esi, ecx

; 1291 : 		size_type _Size = size();

  00006	8b 0e		 mov	 ecx, DWORD PTR [esi]
  00008	8b 46 04	 mov	 eax, DWORD PTR [esi+4]
  0000b	2b c1		 sub	 eax, ecx
  0000d	57		 push	 edi
  0000e	99		 cdq
  0000f	6a 38		 push	 56			; 00000038H
  00011	5f		 pop	 edi
  00012	f7 ff		 idiv	 edi
  00014	8b f8		 mov	 edi, eax

; 1292 : 		if (max_size() - _Count < _Size)

  00016	b8 24 49 92 04	 mov	 eax, 76695844		; 04924924H
  0001b	2b 45 08	 sub	 eax, DWORD PTR __Count$[ebp]
  0001e	3b c7		 cmp	 eax, edi
  00020	73 0b		 jae	 SHORT $LN4@Reserve

; 1293 : 			_Xlen();

  00022	68 00 00 00 00	 push	 OFFSET ??_C@_0BD@OLBABOEK@vector?$DMT?$DO?5too?5long?$AA@
  00027	ff 15 00 00 00
	00		 call	 DWORD PTR __imp_?_Xlength_error@std@@YAXPBD@Z
$LN21@Reserve:
$LN4@Reserve:

; 1294 : 		else if ((_Size += _Count) <= capacity())

  0002d	8b 46 08	 mov	 eax, DWORD PTR [esi+8]
  00030	2b c1		 sub	 eax, ecx
  00032	6a 38		 push	 56			; 00000038H
  00034	99		 cdq
  00035	59		 pop	 ecx
  00036	f7 f9		 idiv	 ecx
  00038	03 7d 08	 add	 edi, DWORD PTR __Count$[ebp]
  0003b	3b f8		 cmp	 edi, eax
  0003d	76 10		 jbe	 SHORT $LN1@Reserve

; 1295 : 			;
; 1296 : 		else
; 1297 : 			reserve(_Grow_to(_Size));

  0003f	57		 push	 edi
  00040	8b ce		 mov	 ecx, esi
  00042	e8 00 00 00 00	 call	 ?_Grow_to@?$vector@UInvenBlockItem@ioUserBlockStorage@@V?$allocator@UInvenBlockItem@ioUserBlockStorage@@@std@@@std@@IBEII@Z ; std::vector<ioUserBlockStorage::InvenBlockItem,std::allocator<ioUserBlockStorage::InvenBlockItem> >::_Grow_to
  00047	50		 push	 eax
  00048	8b ce		 mov	 ecx, esi
  0004a	e8 00 00 00 00	 call	 ?reserve@?$vector@UInvenBlockItem@ioUserBlockStorage@@V?$allocator@UInvenBlockItem@ioUserBlockStorage@@@std@@@std@@QAEXI@Z ; std::vector<ioUserBlockStorage::InvenBlockItem,std::allocator<ioUserBlockStorage::InvenBlockItem> >::reserve
$LN1@Reserve:
  0004f	5f		 pop	 edi
  00050	5e		 pop	 esi

; 1298 : 		}

  00051	5d		 pop	 ebp
  00052	c2 04 00	 ret	 4
$LN20@Reserve:
?_Reserve@?$vector@UInvenBlockItem@ioUserBlockStorage@@V?$allocator@UInvenBlockItem@ioUserBlockStorage@@@std@@@std@@IAEXI@Z ENDP ; std::vector<ioUserBlockStorage::InvenBlockItem,std::allocator<ioUserBlockStorage::InvenBlockItem> >::_Reserve
_TEXT	ENDS
PUBLIC	?push_back@?$vector@UInvenBlockItem@ioUserBlockStorage@@V?$allocator@UInvenBlockItem@ioUserBlockStorage@@@std@@@std@@QAEXABUInvenBlockItem@ioUserBlockStorage@@@Z ; std::vector<ioUserBlockStorage::InvenBlockItem,std::allocator<ioUserBlockStorage::InvenBlockItem> >::push_back
; Function compile flags: /Ogsp
;	COMDAT ?push_back@?$vector@UInvenBlockItem@ioUserBlockStorage@@V?$allocator@UInvenBlockItem@ioUserBlockStorage@@@std@@@std@@QAEXABUInvenBlockItem@ioUserBlockStorage@@@Z
_TEXT	SEGMENT
__Val$ = 8						; size = 4
?push_back@?$vector@UInvenBlockItem@ioUserBlockStorage@@V?$allocator@UInvenBlockItem@ioUserBlockStorage@@@std@@@std@@QAEXABUInvenBlockItem@ioUserBlockStorage@@@Z PROC ; std::vector<ioUserBlockStorage::InvenBlockItem,std::allocator<ioUserBlockStorage::InvenBlockItem> >::push_back, COMDAT
; _this$ = ecx

; 976  : 		{	// insert element at end

  00000	55		 push	 ebp
  00001	8b ec		 mov	 ebp, esp
  00003	56		 push	 esi
  00004	8b f1		 mov	 esi, ecx

; 977  : 		if (_Inside(_STD addressof(_Val)))

  00006	8b 4e 04	 mov	 ecx, DWORD PTR [esi+4]
  00009	57		 push	 edi
  0000a	8b 7d 08	 mov	 edi, DWORD PTR __Val$[ebp]
  0000d	3b f9		 cmp	 edi, ecx
  0000f	73 37		 jae	 SHORT $LN4@push_back
  00011	8b 16		 mov	 edx, DWORD PTR [esi]
  00013	3b d7		 cmp	 edx, edi
  00015	77 31		 ja	 SHORT $LN4@push_back

; 978  : 			{	// push back an element
; 979  : 			size_type _Idx = _STD addressof(_Val) - this->_Myfirst;

  00017	8b c7		 mov	 eax, edi
  00019	2b c2		 sub	 eax, edx
  0001b	6a 38		 push	 56			; 00000038H
  0001d	99		 cdq
  0001e	5f		 pop	 edi
  0001f	f7 ff		 idiv	 edi
  00021	8b f8		 mov	 edi, eax

; 980  : 			if (this->_Mylast == this->_Myend)

  00023	3b 4e 08	 cmp	 ecx, DWORD PTR [esi+8]
  00026	75 09		 jne	 SHORT $LN3@push_back

; 981  : 				_Reserve(1);

  00028	6a 01		 push	 1
  0002a	8b ce		 mov	 ecx, esi
  0002c	e8 00 00 00 00	 call	 ?_Reserve@?$vector@UInvenBlockItem@ioUserBlockStorage@@V?$allocator@UInvenBlockItem@ioUserBlockStorage@@@std@@@std@@IAEXI@Z ; std::vector<ioUserBlockStorage::InvenBlockItem,std::allocator<ioUserBlockStorage::InvenBlockItem> >::_Reserve
$LN3@push_back:

; 982  : 			_Orphan_range(this->_Mylast, this->_Mylast);
; 983  : 			_Cons_val(this->_Alval,
; 984  : 				this->_Mylast,
; 985  : 				this->_Myfirst[_Idx]);

  00031	6b ff 38	 imul	 edi, 56			; 00000038H
  00034	03 3e		 add	 edi, DWORD PTR [esi]
  00036	8d 46 0c	 lea	 eax, DWORD PTR [esi+12]
  00039	57		 push	 edi
  0003a	ff 76 04	 push	 DWORD PTR [esi+4]
  0003d	50		 push	 eax
  0003e	e8 00 00 00 00	 call	 ??$_Cons_val@V?$allocator@UInvenBlockItem@ioUserBlockStorage@@@std@@UInvenBlockItem@ioUserBlockStorage@@AAU34@@std@@YAXAAV?$allocator@UInvenBlockItem@ioUserBlockStorage@@@0@PAUInvenBlockItem@ioUserBlockStorage@@AAU23@@Z ; std::_Cons_val<std::allocator<ioUserBlockStorage::InvenBlockItem>,ioUserBlockStorage::InvenBlockItem,ioUserBlockStorage::InvenBlockItem &>
  00043	83 c4 0c	 add	 esp, 12			; 0000000cH

; 986  : 			++this->_Mylast;
; 987  : 			}
; 988  : 		else

  00046	eb 19		 jmp	 SHORT $LN26@push_back
$LN4@push_back:

; 989  : 			{	// push back a non-element
; 990  : 			if (this->_Mylast == this->_Myend)

  00048	3b 4e 08	 cmp	 ecx, DWORD PTR [esi+8]
  0004b	75 09		 jne	 SHORT $LN1@push_back

; 991  : 				_Reserve(1);

  0004d	6a 01		 push	 1
  0004f	8b ce		 mov	 ecx, esi
  00051	e8 00 00 00 00	 call	 ?_Reserve@?$vector@UInvenBlockItem@ioUserBlockStorage@@V?$allocator@UInvenBlockItem@ioUserBlockStorage@@@std@@@std@@IAEXI@Z ; std::vector<ioUserBlockStorage::InvenBlockItem,std::allocator<ioUserBlockStorage::InvenBlockItem> >::_Reserve
$LN1@push_back:

; 992  : 			_Orphan_range(this->_Mylast, this->_Mylast);
; 993  : 			_Cons_val(this->_Alval,
; 994  : 				this->_Mylast,
; 995  : 				_Val);

  00056	57		 push	 edi
  00057	ff 76 04	 push	 DWORD PTR [esi+4]
  0005a	e8 00 00 00 00	 call	 ??$_Construct@UInvenBlockItem@ioUserBlockStorage@@ABU12@@std@@YAXPAUInvenBlockItem@ioUserBlockStorage@@ABU12@@Z ; std::_Construct<ioUserBlockStorage::InvenBlockItem,ioUserBlockStorage::InvenBlockItem const &>
  0005f	59		 pop	 ecx
  00060	59		 pop	 ecx
$LN26@push_back:

; 996  : 			++this->_Mylast;

  00061	83 46 04 38	 add	 DWORD PTR [esi+4], 56	; 00000038H
  00065	5f		 pop	 edi
  00066	5e		 pop	 esi

; 997  : 			}
; 998  : 		}

  00067	5d		 pop	 ebp
  00068	c2 04 00	 ret	 4
?push_back@?$vector@UInvenBlockItem@ioUserBlockStorage@@V?$allocator@UInvenBlockItem@ioUserBlockStorage@@@std@@@std@@QAEXABUInvenBlockItem@ioUserBlockStorage@@@Z ENDP ; std::vector<ioUserBlockStorage::InvenBlockItem,std::allocator<ioUserBlockStorage::InvenBlockItem> >::push_back
_TEXT	ENDS
PUBLIC	_this$GSCopy$
PUBLIC	?ParseButton@ioHousingBlockInvenWnd@@QAEXXZ	; ioHousingBlockInvenWnd::ParseButton
EXTRN	__imp__strstr:PROC
EXTRN	?Strstr@Help@@YA_NPBD0@Z:PROC			; Help::Strstr
EXTRN	__imp__tolower:PROC
EXTRN	?GetInvenBlockItem@ioUserBlockStorage@@QAEPAUInvenBlockItem@1@H_N@Z:PROC ; ioUserBlockStorage::GetInvenBlockItem
EXTRN	__EH_epilog3_GS:PROC
EXTRN	__EH_prolog3_GS:PROC
;	COMDAT xdata$x
xdata$x	SEGMENT
__unwindtable$?ParseButton@ioHousingBlockInvenWnd@@QAEXXZ DD 0ffffffffH
	DD	FLAT:__unwindfunclet$?ParseButton@ioHousingBlockInvenWnd@@QAEXXZ$0
	DD	00H
	DD	FLAT:__unwindfunclet$?ParseButton@ioHousingBlockInvenWnd@@QAEXXZ$1
	DD	00H
	DD	FLAT:__unwindfunclet$?ParseButton@ioHousingBlockInvenWnd@@QAEXXZ$2
	DD	02H
	DD	FLAT:__unwindfunclet$?ParseButton@ioHousingBlockInvenWnd@@QAEXXZ$3
__ehfuncinfo$?ParseButton@ioHousingBlockInvenWnd@@QAEXXZ DD 019930522H
	DD	04H
	DD	FLAT:__unwindtable$?ParseButton@ioHousingBlockInvenWnd@@QAEXXZ
	DD	2 DUP(00H)
	DD	2 DUP(00H)
	DD	00H
	DD	01H
; Function compile flags: /Ogsp
; File d:\lost saga for developer\youtube\tutorial\source\src\lsclient\gui\iohousingblockinvenwnd.cpp
xdata$x	ENDS
;	COMDAT ?ParseButton@ioHousingBlockInvenWnd@@QAEXXZ
_TEXT	SEGMENT
$T520520 = -96						; size = 16
$T520518 = -80						; size = 4
_List$ = -76						; size = 16
_this$GSCopy$ = -60					; size = 4
_pButton$516547 = -56					; size = 4
_pItem$516519 = -56					; size = 4
tv745 = -52						; size = 4
_pStorage$ = -52					; size = 4
_nBtn$516543 = -48					; size = 4
_i$516515 = -48						; size = 4
_szName$516523 = -44					; size = 28
$T520519 = -32						; size = 16
__$EHRec$ = -12						; size = 12
?ParseButton@ioHousingBlockInvenWnd@@QAEXXZ PROC	; ioHousingBlockInvenWnd::ParseButton, COMDAT
; _this$ = ecx

; 387  : {

  00000	6a 54		 push	 84			; 00000054H
  00002	b8 00 00 00 00	 mov	 eax, __ehhandler$?ParseButton@ioHousingBlockInvenWnd@@QAEXXZ
  00007	e8 00 00 00 00	 call	 __EH_prolog3_GS
  0000c	8b f1		 mov	 esi, ecx

; 433  : 	}
; 434  : 
; 435  : 	for( int nBtn = ID_ITEM101; nBtn < ID_ITEM_MAX; ++nBtn )

  0000e	89 75 c4	 mov	 DWORD PTR _this$GSCopy$[ebp], esi
  00011	e8 00 00 00 00	 call	 ?GetMaxPage@ioHousingBlockInvenWnd@@QAEHXZ ; ioHousingBlockInvenWnd::GetMaxPage
  00016	39 86 60 01 00
	00		 cmp	 DWORD PTR [esi+352], eax
  0001c	7e 0d		 jle	 SHORT $LN19@ParseButto

; 388  : 	if( m_nCurrPage > GetMaxPage() )
; 389  : 		m_nCurrPage = GetMaxPage();

  0001e	8b ce		 mov	 ecx, esi
  00020	e8 00 00 00 00	 call	 ?GetMaxPage@ioHousingBlockInvenWnd@@QAEHXZ ; ioHousingBlockInvenWnd::GetMaxPage
  00025	89 86 60 01 00
	00		 mov	 DWORD PTR [esi+352], eax
$LN19@ParseButto:

; 390  : 
; 391  : 	ioUserBlockStorage* pStorage = GetStorage();

  0002b	8b ce		 mov	 ecx, esi
  0002d	e8 00 00 00 00	 call	 ?GetStorage@ioHousingBlockInvenWnd@@QAEPAVioUserBlockStorage@@XZ ; ioHousingBlockInvenWnd::GetStorage
  00032	8b c8		 mov	 ecx, eax

; 392  : 	if( pStorage == NULL )

  00034	33 db		 xor	 ebx, ebx
  00036	89 4d cc	 mov	 DWORD PTR _pStorage$[ebp], ecx
  00039	3b cb		 cmp	 ecx, ebx
  0003b	0f 84 65 02 00
	00		 je	 $LN132@ParseButto

; 393  : 		return;
; 394  : 
; 395  : 	m_nCurrnItemMax = 0;

  00041	89 9e 6c 01 00
	00		 mov	 DWORD PTR [esi+364], ebx

; 396  : 	ioUserBlockStorage::InvenBlockItemList List;

  00047	89 5d b4	 mov	 DWORD PTR _List$[ebp], ebx
  0004a	89 5d b8	 mov	 DWORD PTR _List$[ebp+4], ebx
  0004d	89 5d bc	 mov	 DWORD PTR _List$[ebp+8], ebx
  00050	89 5d fc	 mov	 DWORD PTR __$EHRec$[ebp+8], ebx

; 397  : 	for( int i = 0; i < pStorage->GetInvenItemCount(); ++i )

  00053	89 5d d0	 mov	 DWORD PTR _i$516515[ebp], ebx
  00056	e8 00 00 00 00	 call	 ?GetInvenItemCount@ioUserBlockStorage@@QAEHXZ ; ioUserBlockStorage::GetInvenItemCount
  0005b	85 c0		 test	 eax, eax
  0005d	0f 8e 67 01 00
	00		 jle	 $LN15@ParseButto
$LN17@ParseButto:

; 398  : 	{
; 399  : 		ioUserBlockStorage::InvenBlockItem* pItem = pStorage->GetInvenBlockItem( i, true );

  00063	8b 4d cc	 mov	 ecx, DWORD PTR _pStorage$[ebp]
  00066	6a 01		 push	 1
  00068	ff 75 d0	 push	 DWORD PTR _i$516515[ebp]
  0006b	e8 00 00 00 00	 call	 ?GetInvenBlockItem@ioUserBlockStorage@@QAEPAUInvenBlockItem@1@H_N@Z ; ioUserBlockStorage::GetInvenBlockItem
  00070	8b f8		 mov	 edi, eax
  00072	89 7d c8	 mov	 DWORD PTR _pItem$516519[ebp], edi

; 400  : 		if( !pItem )

  00075	3b fb		 cmp	 edi, ebx
  00077	0f 84 39 01 00
	00		 je	 $LN16@ParseButto

; 401  : 			continue;
; 402  : 		
; 403  : 		if( m_eCategory != ioBlockProperty::IC_NONE && m_eCategory != pItem->m_nItemCategory )

  0007d	8b 86 64 01 00
	00		 mov	 eax, DWORD PTR [esi+356]
  00083	3b c3		 cmp	 eax, ebx
  00085	74 09		 je	 SHORT $LN13@ParseButto
  00087	3b 47 34	 cmp	 eax, DWORD PTR [edi+52]
  0008a	0f 85 26 01 00
	00		 jne	 $LN16@ParseButto
$LN13@ParseButto:

; 404  : 			continue;
; 405  : 
; 406  : 		// 
; 407  : 		if( !pItem->m_szName.IsEmpty() && !m_KeyWord.IsEmpty() )

  00090	8b cf		 mov	 ecx, edi
  00092	ff 15 00 00 00
	00		 call	 DWORD PTR __imp_?IsEmpty@ioHashString@@QBE_NXZ
  00098	84 c0		 test	 al, al
  0009a	0f 85 f6 00 00
	00		 jne	 $LN116@ParseButto
  000a0	8d 8e 78 01 00
	00		 lea	 ecx, DWORD PTR [esi+376]
  000a6	ff 15 00 00 00
	00		 call	 DWORD PTR __imp_?IsEmpty@ioHashString@@QBE_NXZ
  000ac	84 c0		 test	 al, al
  000ae	0f 85 e2 00 00
	00		 jne	 $LN116@ParseButto

; 408  : 		{
; 409  : 			std::string szName = pItem->m_szName.c_str();

  000b4	8b cf		 mov	 ecx, edi
  000b6	ff 15 00 00 00
	00		 call	 DWORD PTR __imp_?c_str@ioHashString@@QBEPBDXZ
  000bc	50		 push	 eax
  000bd	8d 4d d4	 lea	 ecx, DWORD PTR _szName$516523[ebp]
  000c0	c7 45 e8 0f 00
	00 00		 mov	 DWORD PTR _szName$516523[ebp+20], 15 ; 0000000fH
  000c7	89 5d e4	 mov	 DWORD PTR _szName$516523[ebp+16], ebx
  000ca	c6 45 d4 00	 mov	 BYTE PTR _szName$516523[ebp], 0
  000ce	e8 00 00 00 00	 call	 ?assign@?$basic_string@DU?$char_traits@D@std@@V?$allocator@D@2@@std@@QAEAAV12@PBD@Z ; std::basic_string<char,std::char_traits<char>,std::allocator<char> >::assign

; 410  : 			std::transform( szName.begin(), szName.end(), szName.begin(), tolower );

  000d3	83 7d e8 10	 cmp	 DWORD PTR _szName$516523[ebp+20], 16 ; 00000010H
  000d7	8b 4d d4	 mov	 ecx, DWORD PTR _szName$516523[ebp]
  000da	c6 45 fc 01	 mov	 BYTE PTR __$EHRec$[ebp+8], 1
  000de	8b d1		 mov	 edx, ecx
  000e0	0f 83 80 00 00
	00		 jae	 $LN144@ParseButto
  000e6	8d 55 d4	 lea	 edx, DWORD PTR _szName$516523[ebp]
  000e9	8b c2		 mov	 eax, edx
$LN77@ParseButto:
  000eb	03 45 e4	 add	 eax, DWORD PTR _szName$516523[ebp+16]
  000ee	83 7d e8 10	 cmp	 DWORD PTR _szName$516523[ebp+20], 16 ; 00000010H
  000f2	73 03		 jae	 SHORT $LN89@ParseButto
  000f4	8d 4d d4	 lea	 ecx, DWORD PTR _szName$516523[ebp]
$LN89@ParseButto:
  000f7	ff 35 00 00 00
	00		 push	 DWORD PTR __imp__tolower
  000fd	52		 push	 edx
  000fe	50		 push	 eax
  000ff	51		 push	 ecx
  00100	8d 45 b0	 lea	 eax, DWORD PTR $T520518[ebp]
  00103	50		 push	 eax
  00104	e8 00 00 00 00	 call	 ??$transform@V?$_String_iterator@DU?$char_traits@D@std@@V?$allocator@D@2@@std@@V12@P6AHH@Z@std@@YA?AV?$_String_iterator@DU?$char_traits@D@std@@V?$allocator@D@2@@0@V10@00P6AHH@Z@Z ; std::transform<std::_String_iterator<char,std::char_traits<char>,std::allocator<char> >,std::_String_iterator<char,std::char_traits<char>,std::allocator<char> >,int (__cdecl*)(int)>
  00109	83 c4 14	 add	 esp, 20			; 00000014H

; 411  : 
; 412  : 			ioLocalParent *pLocal = g_LocalMgr.GetLocal( ioLocalManager::GetLocalType() );

  0010c	ff 15 00 00 00
	00		 call	 DWORD PTR __imp_?GetLocalType@ioLocalManagerParent@@SA?AW4LocalType@1@XZ
  00112	50		 push	 eax
  00113	e8 00 00 00 00	 call	 ?GetSingleton@ioLocalManager@@SAAAV1@XZ ; ioLocalManager::GetSingleton
  00118	8b c8		 mov	 ecx, eax
  0011a	e8 00 00 00 00	 call	 ?GetLocal@ioLocalManager@@QAEPAVioLocalParent@@W4LocalType@ioLocalManagerParent@@@Z ; ioLocalManager::GetLocal

; 413  : 			if( pLocal && pLocal->GetType() == ioLocalManager::LCT_KOREA )

  0011f	3b c3		 cmp	 eax, ebx
  00121	74 47		 je	 SHORT $LN11@ParseButto
  00123	8b 10		 mov	 edx, DWORD PTR [eax]
  00125	8b c8		 mov	 ecx, eax
  00127	ff 12		 call	 DWORD PTR [edx]
  00129	3d 06 2e 1f 07	 cmp	 eax, 119483910		; 071f2e06H
  0012e	75 3a		 jne	 SHORT $LN11@ParseButto

; 414  : 			{
; 415  : 				//  (  )
; 416  : 				if( !Help::Strstr( szName.c_str(), m_KeyWord.c_str() ) )

  00130	83 7d e8 10	 cmp	 DWORD PTR _szName$516523[ebp+20], 16 ; 00000010H
  00134	8b 7d d4	 mov	 edi, DWORD PTR _szName$516523[ebp]
  00137	73 03		 jae	 SHORT $LN101@ParseButto
  00139	8d 7d d4	 lea	 edi, DWORD PTR _szName$516523[ebp]
$LN101@ParseButto:
  0013c	8d 8e 78 01 00
	00		 lea	 ecx, DWORD PTR [esi+376]
  00142	ff 15 00 00 00
	00		 call	 DWORD PTR __imp_?c_str@ioHashString@@QBEPBDXZ
  00148	50		 push	 eax
  00149	57		 push	 edi
  0014a	e8 00 00 00 00	 call	 ?Strstr@Help@@YA_NPBD0@Z ; Help::Strstr
  0014f	84 c0		 test	 al, al
$LN146@ParseButto:
  00151	59		 pop	 ecx
  00152	59		 pop	 ecx

; 417  : 					continue;

  00153	53		 push	 ebx
  00154	c6 45 fc 00	 mov	 BYTE PTR __$EHRec$[ebp+8], 0
  00158	8d 4d d4	 lea	 ecx, DWORD PTR _szName$516523[ebp]
  0015b	6a 01		 push	 1
  0015d	75 2f		 jne	 SHORT $LN8@ParseButto
  0015f	e8 00 00 00 00	 call	 ?_Tidy@?$basic_string@DU?$char_traits@D@std@@V?$allocator@D@2@@std@@QAEX_NI@Z ; std::basic_string<char,std::char_traits<char>,std::allocator<char> >::_Tidy
  00164	eb 50		 jmp	 SHORT $LN16@ParseButto
$LN144@ParseButto:

; 410  : 			std::transform( szName.begin(), szName.end(), szName.begin(), tolower );

  00166	8b c1		 mov	 eax, ecx
  00168	eb 81		 jmp	 SHORT $LN77@ParseButto
$LN11@ParseButto:

; 418  : 			}
; 419  : 			else
; 420  : 			{
; 421  : 				if( strstr( szName.c_str(), m_KeyWord.c_str() ) == NULL )

  0016a	83 7d e8 10	 cmp	 DWORD PTR _szName$516523[ebp+20], 16 ; 00000010H
  0016e	8b 7d d4	 mov	 edi, DWORD PTR _szName$516523[ebp]
  00171	73 03		 jae	 SHORT $LN111@ParseButto
  00173	8d 7d d4	 lea	 edi, DWORD PTR _szName$516523[ebp]
$LN111@ParseButto:
  00176	8d 8e 78 01 00
	00		 lea	 ecx, DWORD PTR [esi+376]
  0017c	ff 15 00 00 00
	00		 call	 DWORD PTR __imp_?c_str@ioHashString@@QBEPBDXZ
  00182	50		 push	 eax
  00183	57		 push	 edi
  00184	ff 15 00 00 00
	00		 call	 DWORD PTR __imp__strstr
  0018a	85 c0		 test	 eax, eax

; 422  : 					continue;

  0018c	eb c3		 jmp	 SHORT $LN146@ParseButto
$LN8@ParseButto:

; 423  : 			}
; 424  : 		}

  0018e	e8 00 00 00 00	 call	 ?_Tidy@?$basic_string@DU?$char_traits@D@std@@V?$allocator@D@2@@std@@QAEX_NI@Z ; std::basic_string<char,std::char_traits<char>,std::allocator<char> >::_Tidy
  00193	8b 7d c8	 mov	 edi, DWORD PTR _pItem$516519[ebp]
$LN116@ParseButto:

; 425  : 
; 426  : 		//          
; 427  : 		m_nCurrnItemMax++;
; 428  : 
; 429  : 		if( m_nCurrnItemMax < m_nCurrPage * PAGE_ELEMENT_COUNT )

  00196	8b 8e 60 01 00
	00		 mov	 ecx, DWORD PTR [esi+352]
  0019c	ff 86 6c 01 00
	00		 inc	 DWORD PTR [esi+364]
  001a2	6b c9 15	 imul	 ecx, 21			; 00000015H
  001a5	39 8e 6c 01 00
	00		 cmp	 DWORD PTR [esi+364], ecx
  001ab	7c 09		 jl	 SHORT $LN16@ParseButto

; 430  : 			continue;
; 431  : 
; 432  : 		List.push_back( *pItem );

  001ad	57		 push	 edi
  001ae	8d 4d b4	 lea	 ecx, DWORD PTR _List$[ebp]
  001b1	e8 00 00 00 00	 call	 ?push_back@?$vector@UInvenBlockItem@ioUserBlockStorage@@V?$allocator@UInvenBlockItem@ioUserBlockStorage@@@std@@@std@@QAEXABUInvenBlockItem@ioUserBlockStorage@@@Z ; std::vector<ioUserBlockStorage::InvenBlockItem,std::allocator<ioUserBlockStorage::InvenBlockItem> >::push_back
$LN16@ParseButto:

; 397  : 	for( int i = 0; i < pStorage->GetInvenItemCount(); ++i )

  001b6	8b 4d cc	 mov	 ecx, DWORD PTR _pStorage$[ebp]
  001b9	ff 45 d0	 inc	 DWORD PTR _i$516515[ebp]
  001bc	e8 00 00 00 00	 call	 ?GetInvenItemCount@ioUserBlockStorage@@QAEHXZ ; ioUserBlockStorage::GetInvenItemCount
  001c1	39 45 d0	 cmp	 DWORD PTR _i$516515[ebp], eax
  001c4	0f 8c 99 fe ff
	ff		 jl	 $LN17@ParseButto
$LN15@ParseButto:

; 433  : 	}
; 434  : 
; 435  : 	for( int nBtn = ID_ITEM101; nBtn < ID_ITEM_MAX; ++nBtn )

  001ca	8b 35 00 00 00
	00		 mov	 esi, DWORD PTR __imp_??0ioHashString@@QAE@PBD@Z
  001d0	8b 3d 00 00 00
	00		 mov	 edi, DWORD PTR __imp_??1ioHashString@@QAE@XZ
  001d6	89 5d cc	 mov	 DWORD PTR tv745[ebp], ebx
  001d9	c7 45 d0 65 00
	00 00		 mov	 DWORD PTR _nBtn$516543[ebp], 101 ; 00000065H
  001e0	bb 00 00 00 00	 mov	 ebx, OFFSET ??_C@_00CNPNBAHC@?$AA@
$LN6@ParseButto:

; 436  : 	{
; 437  : 		ioHousingBlockInvenItemButton* pButton = dynamic_cast<ioHousingBlockInvenItemButton*>( FindChildWnd( nBtn ) );

  001e5	8b 4d c4	 mov	 ecx, DWORD PTR _this$GSCopy$[ebp]
  001e8	6a 00		 push	 0
  001ea	68 00 00 00 00	 push	 OFFSET ??_R0?AVioHousingBlockInvenItemButton@@@8
  001ef	68 00 00 00 00	 push	 OFFSET ??_R0?AVioWnd@@@8
  001f4	6a 00		 push	 0
  001f6	ff 75 d0	 push	 DWORD PTR _nBtn$516543[ebp]
  001f9	ff 15 00 00 00
	00		 call	 DWORD PTR __imp_?FindChildWnd@ioWnd@@QAEPAV1@K@Z
  001ff	50		 push	 eax
  00200	e8 00 00 00 00	 call	 ___RTDynamicCast
  00205	83 c4 14	 add	 esp, 20			; 00000014H
  00208	89 45 c8	 mov	 DWORD PTR _pButton$516547[ebp], eax

; 438  : 		if( pButton )

  0020b	85 c0		 test	 eax, eax
  0020d	74 77		 je	 SHORT $LN5@ParseButto

; 439  : 		{
; 440  : 			int nIndex = nBtn - ID_ITEM101;
; 441  : 			if( COMPARE( nIndex, 0, (int)List.size() ) )

  0020f	8b 45 d0	 mov	 eax, DWORD PTR _nBtn$516543[ebp]
  00212	83 c0 9b	 add	 eax, -101		; ffffff9bH
  00215	78 34		 js	 SHORT $LN2@ParseButto
  00217	8b 45 b8	 mov	 eax, DWORD PTR _List$[ebp+4]
  0021a	2b 45 b4	 sub	 eax, DWORD PTR _List$[ebp]
  0021d	6a 38		 push	 56			; 00000038H
  0021f	99		 cdq
  00220	59		 pop	 ecx
  00221	f7 f9		 idiv	 ecx
  00223	8b 4d d0	 mov	 ecx, DWORD PTR _nBtn$516543[ebp]
  00226	83 c1 9b	 add	 ecx, -101		; ffffff9bH
  00229	3b c8		 cmp	 ecx, eax
  0022b	7d 1e		 jge	 SHORT $LN2@ParseButto

; 442  : 			{
; 443  : 				pButton->SetInfo( List[nIndex].m_szName, List[nIndex].m_szIcon, List[nIndex].m_nBlockCode, List[nIndex].m_nEtcCode, List[nIndex].m_nCount );

  0022d	8b 45 cc	 mov	 eax, DWORD PTR tv745[ebp]
  00230	03 45 b4	 add	 eax, DWORD PTR _List$[ebp]
  00233	ff 70 30	 push	 DWORD PTR [eax+48]
  00236	8d 48 10	 lea	 ecx, DWORD PTR [eax+16]
  00239	ff 70 28	 push	 DWORD PTR [eax+40]
  0023c	ff 70 20	 push	 DWORD PTR [eax+32]
  0023f	51		 push	 ecx
  00240	8b 4d c8	 mov	 ecx, DWORD PTR _pButton$516547[ebp]
  00243	50		 push	 eax
  00244	e8 00 00 00 00	 call	 ?SetInfo@ioHousingBlockInvenItemButton@@QAEXABVioHashString@@0HHH@Z ; ioHousingBlockInvenItemButton::SetInfo

; 444  : 			}
; 445  : 			else

  00249	eb 3b		 jmp	 SHORT $LN5@ParseButto
$LN2@ParseButto:

; 446  : 			{
; 447  : 				pButton->SetInfo( "", "", 0, 0, 0 );

  0024b	53		 push	 ebx
  0024c	8d 4d e0	 lea	 ecx, DWORD PTR $T520519[ebp]
  0024f	ff d6		 call	 esi
  00251	53		 push	 ebx
  00252	8d 4d a0	 lea	 ecx, DWORD PTR $T520520[ebp]
  00255	c6 45 fc 02	 mov	 BYTE PTR __$EHRec$[ebp+8], 2
  00259	ff d6		 call	 esi
  0025b	8b 4d c8	 mov	 ecx, DWORD PTR _pButton$516547[ebp]
  0025e	33 c0		 xor	 eax, eax
  00260	50		 push	 eax
  00261	50		 push	 eax
  00262	50		 push	 eax
  00263	8d 45 e0	 lea	 eax, DWORD PTR $T520519[ebp]
  00266	50		 push	 eax
  00267	8d 45 a0	 lea	 eax, DWORD PTR $T520520[ebp]
  0026a	50		 push	 eax
  0026b	c6 45 fc 03	 mov	 BYTE PTR __$EHRec$[ebp+8], 3
  0026f	e8 00 00 00 00	 call	 ?SetInfo@ioHousingBlockInvenItemButton@@QAEXABVioHashString@@0HHH@Z ; ioHousingBlockInvenItemButton::SetInfo
  00274	8d 4d a0	 lea	 ecx, DWORD PTR $T520520[ebp]
  00277	c6 45 fc 02	 mov	 BYTE PTR __$EHRec$[ebp+8], 2
  0027b	ff d7		 call	 edi
  0027d	8d 4d e0	 lea	 ecx, DWORD PTR $T520519[ebp]
  00280	c6 45 fc 00	 mov	 BYTE PTR __$EHRec$[ebp+8], 0
  00284	ff d7		 call	 edi
$LN5@ParseButto:

; 433  : 	}
; 434  : 
; 435  : 	for( int nBtn = ID_ITEM101; nBtn < ID_ITEM_MAX; ++nBtn )

  00286	83 45 cc 38	 add	 DWORD PTR tv745[ebp], 56 ; 00000038H
  0028a	ff 45 d0	 inc	 DWORD PTR _nBtn$516543[ebp]
  0028d	81 7d cc 98 04
	00 00		 cmp	 DWORD PTR tv745[ebp], 1176 ; 00000498H
  00294	0f 8c 4b ff ff
	ff		 jl	 $LN6@ParseButto

; 448  : 			}
; 449  : 		}
; 450  : 	}
; 451  : }

  0029a	83 4d fc ff	 or	 DWORD PTR __$EHRec$[ebp+8], -1
  0029e	8d 4d b4	 lea	 ecx, DWORD PTR _List$[ebp]
  002a1	e8 00 00 00 00	 call	 ?_Tidy@?$vector@UInvenBlockItem@ioUserBlockStorage@@V?$allocator@UInvenBlockItem@ioUserBlockStorage@@@std@@@std@@IAEXXZ ; std::vector<ioUserBlockStorage::InvenBlockItem,std::allocator<ioUserBlockStorage::InvenBlockItem> >::_Tidy
$LN132@ParseButto:
  002a6	e8 00 00 00 00	 call	 __EH_epilog3_GS
  002ab	c3		 ret	 0
_TEXT	ENDS
;	COMDAT text$x
text$x	SEGMENT
__unwindfunclet$?ParseButton@ioHousingBlockInvenWnd@@QAEXXZ$0:
  00000	8d 4d b4	 lea	 ecx, DWORD PTR _List$[ebp]
  00003	e9 00 00 00 00	 jmp	 ??1?$vector@UInvenBlockItem@ioUserBlockStorage@@V?$allocator@UInvenBlockItem@ioUserBlockStorage@@@std@@@std@@QAE@XZ ; std::vector<ioUserBlockStorage::InvenBlockItem,std::allocator<ioUserBlockStorage::InvenBlockItem> >::~vector<ioUserBlockStorage::InvenBlockItem,std::allocator<ioUserBlockStorage::InvenBlockItem> >
__unwindfunclet$?ParseButton@ioHousingBlockInvenWnd@@QAEXXZ$1:
  00008	8d 4d d4	 lea	 ecx, DWORD PTR _szName$516523[ebp]
  0000b	e9 00 00 00 00	 jmp	 ??1?$basic_string@DU?$char_traits@D@std@@V?$allocator@D@2@@std@@QAE@XZ ; std::basic_string<char,std::char_traits<char>,std::allocator<char> >::~basic_string<char,std::char_traits<char>,std::allocator<char> >
__unwindfunclet$?ParseButton@ioHousingBlockInvenWnd@@QAEXXZ$2:
  00010	8d 4d e0	 lea	 ecx, DWORD PTR $T520519[ebp]
  00013	ff 25 00 00 00
	00		 jmp	 DWORD PTR __imp_??1ioHashString@@QAE@XZ
__unwindfunclet$?ParseButton@ioHousingBlockInvenWnd@@QAEXXZ$3:
  00019	8d 4d a0	 lea	 ecx, DWORD PTR $T520520[ebp]
  0001c	ff 25 00 00 00
	00		 jmp	 DWORD PTR __imp_??1ioHashString@@QAE@XZ
__ehhandler$?ParseButton@ioHousingBlockInvenWnd@@QAEXXZ:
  00022	8b 54 24 08	 mov	 edx, DWORD PTR [esp+8]
  00026	8d 42 0c	 lea	 eax, DWORD PTR [edx+12]
  00029	8b 4a 9c	 mov	 ecx, DWORD PTR [edx-100]
  0002c	33 c8		 xor	 ecx, eax
  0002e	e8 00 00 00 00	 call	 @__security_check_cookie@4
  00033	8b 4a fc	 mov	 ecx, DWORD PTR [edx-4]
  00036	33 c8		 xor	 ecx, eax
  00038	e8 00 00 00 00	 call	 @__security_check_cookie@4
  0003d	b8 00 00 00 00	 mov	 eax, OFFSET __ehfuncinfo$?ParseButton@ioHousingBlockInvenWnd@@QAEXXZ
  00042	e9 00 00 00 00	 jmp	 ___CxxFrameHandler3
text$x	ENDS
?ParseButton@ioHousingBlockInvenWnd@@QAEXXZ ENDP	; ioHousingBlockInvenWnd::ParseButton
PUBLIC	??_C@_0CE@ILEGMEGC@ioHousingBlockInvenWnd?3?3iwm_comm@ ; `string'
PUBLIC	??_R0?AVNewShopWnd@@@8				; NewShopWnd `RTTI Type Descriptor'
EXTRN	?SetMsgBox@ioSP2GUIManager@@QAAXHPAVioWnd@@PBDZZ:PROC ; ioSP2GUIManager::SetMsgBox
EXTRN	?ChangeToSetUp@ioBlockSetupManager@@QAEXXZ:PROC	; ioBlockSetupManager::ChangeToSetUp
EXTRN	?SelectItem@ioUserBlockStorage@@QAEXH@Z:PROC	; ioUserBlockStorage::SelectItem
EXTRN	?EndSetUpState@ioBlockSetupManager@@QAEXXZ:PROC	; ioBlockSetupManager::EndSetUpState
EXTRN	?GetSingleton@ioBlockSetupManager@@SAAAV1@XZ:PROC ; ioBlockSetupManager::GetSingleton
EXTRN	?ShowEtcItemTab@NewShopWnd@@QAEXXZ:PROC		; NewShopWnd::ShowEtcItemTab
;	COMDAT ??_C@_0CE@ILEGMEGC@ioHousingBlockInvenWnd?3?3iwm_comm@
; File d:\lost saga for developer\youtube\tutorial\source\src\io3dengine\iosingleton.h
CONST	SEGMENT
??_C@_0CE@ILEGMEGC@ioHousingBlockInvenWnd?3?3iwm_comm@ DB 'ioHousingBlock'
	DB	'InvenWnd::iwm_command', 00H			; `string'
CONST	ENDS
;	COMDAT ??_R0?AVNewShopWnd@@@8
_DATA	SEGMENT
??_R0?AVNewShopWnd@@@8 DD FLAT:??_7type_info@@6B@	; NewShopWnd `RTTI Type Descriptor'
	DD	00H
	DB	'.?AVNewShopWnd@@', 00H
; Function compile flags: /Ogsp
; File d:\lost saga for developer\youtube\tutorial\source\src\lsclient\gui\iohousingblockinvenwnd.cpp
_DATA	ENDS
;	COMDAT ?iwm_command@ioHousingBlockInvenWnd@@UAEXPAVioWnd@@HK@Z
_TEXT	SEGMENT
_pWnd$ = 8						; size = 4
_cmd$ = 12						; size = 4
_param$ = 16						; size = 4
?iwm_command@ioHousingBlockInvenWnd@@UAEXPAVioWnd@@HK@Z PROC ; ioHousingBlockInvenWnd::iwm_command, COMDAT
; _this$ = ecx

; 570  : {

  00000	55		 push	 ebp
  00001	8b ec		 mov	 ebp, esp
  00003	53		 push	 ebx
  00004	56		 push	 esi
  00005	57		 push	 edi
  00006	8b f9		 mov	 edi, ecx

; 571  : 	DWORD dwID = pWnd->GetID();

  00008	8b 4d 08	 mov	 ecx, DWORD PTR _pWnd$[ebp]
  0000b	ff 15 00 00 00
	00		 call	 DWORD PTR __imp_?GetID@ioWnd@@QBEKXZ
  00011	8b d8		 mov	 ebx, eax

; 572  : 	switch( dwID )

  00013	be 00 00 00 00	 mov	 esi, OFFSET ??_R0?AVioWnd@@@8
  00018	83 fb 01	 cmp	 ebx, 1
  0001b	0f 84 ca 00 00
	00		 je	 $LN17@iwm_comman@2
  00021	83 fb 02	 cmp	 ebx, 2
  00024	74 70		 je	 SHORT $LN15@iwm_comman@2
  00026	83 fb 04	 cmp	 ebx, 4
  00029	74 3e		 je	 SHORT $LN9@iwm_comman@2
  0002b	83 fb 0a	 cmp	 ebx, 10			; 0000000aH
  0002e	0f 86 c5 00 00
	00		 jbe	 $LN30@iwm_comman@2
  00034	83 fb 0f	 cmp	 ebx, 15			; 0000000fH
  00037	0f 87 bc 00 00
	00		 ja	 $LN30@iwm_comman@2

; 593  : 	case ID_TAB01:
; 594  : 	case ID_TAB02:
; 595  : 	case ID_TAB03:
; 596  : 	case ID_TAB04:
; 597  : 	case ID_TAB05:
; 598  : 		if( cmd == IOBN_BTNUP )

  0003d	83 7d 0c 11	 cmp	 DWORD PTR _cmd$[ebp], 17 ; 00000011H
  00041	0f 85 b2 00 00
	00		 jne	 $LN30@iwm_comman@2

; 599  : 		{
; 600  : 			EnableEditFocus();

  00047	8b cf		 mov	 ecx, edi
  00049	e8 00 00 00 00	 call	 ?EnableEditFocus@ioHousingBlockInvenWnd@@QAEXXZ ; ioHousingBlockInvenWnd::EnableEditFocus

; 601  : 			UpdateTab( dwID );

  0004e	53		 push	 ebx
$LN35@iwm_comman@2:
  0004f	8b cf		 mov	 ecx, edi
  00051	e8 00 00 00 00	 call	 ?UpdateTab@ioHousingBlockInvenWnd@@QAEXK@Z ; ioHousingBlockInvenWnd::UpdateTab

; 602  : 			ParseButton();

  00056	8b cf		 mov	 ecx, edi
  00058	e8 00 00 00 00	 call	 ?ParseButton@ioHousingBlockInvenWnd@@QAEXXZ ; ioHousingBlockInvenWnd::ParseButton

; 603  : 			ParseScroll();

  0005d	8b cf		 mov	 ecx, edi
  0005f	e8 00 00 00 00	 call	 ?ParseScroll@ioHousingBlockInvenWnd@@QAEXXZ ; ioHousingBlockInvenWnd::ParseScroll

; 604  : 		}
; 605  : 		break;

  00064	e9 90 00 00 00	 jmp	 $LN30@iwm_comman@2
$LN9@iwm_comman@2:

; 606  : 	case ID_EDIT_OK:
; 607  : 		{
; 608  : 			if( cmd == IOBN_BTNUP )

  00069	83 7d 0c 11	 cmp	 DWORD PTR _cmd$[ebp], 17 ; 00000011H
  0006d	0f 85 86 00 00
	00		 jne	 $LN30@iwm_comman@2

; 609  : 			{
; 610  : 				m_KeyWord = g_InputBox.GetString();

  00073	ff 15 00 00 00
	00		 call	 DWORD PTR __imp_?GetSingleton@ioInputBox@@SAAAV1@XZ
  00079	8b c8		 mov	 ecx, eax
  0007b	ff 15 00 00 00
	00		 call	 DWORD PTR __imp_?GetString@ioInputBox@@QBEPBDXZ
  00081	50		 push	 eax
  00082	8d 8f 78 01 00
	00		 lea	 ecx, DWORD PTR [edi+376]
  00088	ff 15 00 00 00
	00		 call	 DWORD PTR __imp_??4ioHashString@@QAEAAV0@PBD@Z

; 611  : 				UpdateTab( m_dwCurrTab );

  0008e	ff b7 70 01 00
	00		 push	 DWORD PTR [edi+368]

; 612  : 				ParseButton();
; 613  : 				ParseScroll();
; 614  : 			}
; 615  : 		}
; 616  : 		break;

  00094	eb b9		 jmp	 SHORT $LN35@iwm_comman@2
$LN15@iwm_comman@2:

; 578  : 		}
; 579  : 		break;
; 580  : 	case ID_SHOP:
; 581  : 		if( cmd == IOBN_BTNUP )

  00096	83 7d 0c 11	 cmp	 DWORD PTR _cmd$[ebp], 17 ; 00000011H
  0009a	75 5d		 jne	 SHORT $LN30@iwm_comman@2

; 582  : 		{
; 583  : 			HideWnd();

  0009c	8b cf		 mov	 ecx, edi
  0009e	ff 15 00 00 00
	00		 call	 DWORD PTR __imp_?HideWnd@ioWnd@@QAEXXZ

; 584  : 
; 585  : 			NewShopWnd *pShopWnd = dynamic_cast<NewShopWnd*>( g_GUIMgr.FindWnd(NEW_SHOP_WND) );

  000a4	6a 00		 push	 0
  000a6	68 00 00 00 00	 push	 OFFSET ??_R0?AVNewShopWnd@@@8
  000ab	56		 push	 esi
  000ac	6a 00		 push	 0
  000ae	68 f8 17 00 00	 push	 6136			; 000017f8H
  000b3	e8 00 00 00 00	 call	 ?GetSingleton@ioSP2GUIManager@@SAAAV1@XZ ; ioSP2GUIManager::GetSingleton
  000b8	8b c8		 mov	 ecx, eax
  000ba	ff 15 00 00 00
	00		 call	 DWORD PTR __imp_?FindWnd@ioGUIManager@@QAEPAVioWnd@@K@Z
  000c0	50		 push	 eax
  000c1	e8 00 00 00 00	 call	 ___RTDynamicCast
  000c6	83 c4 14	 add	 esp, 20			; 00000014H

; 586  : 			if( pShopWnd )

  000c9	85 c0		 test	 eax, eax
  000cb	74 07		 je	 SHORT $LN13@iwm_comman@2

; 587  : 				pShopWnd->ShowEtcItemTab();

  000cd	8b c8		 mov	 ecx, eax
  000cf	e8 00 00 00 00	 call	 ?ShowEtcItemTab@NewShopWnd@@QAEXXZ ; NewShopWnd::ShowEtcItemTab
$LN13@iwm_comman@2:

; 588  : 
; 589  : 			if( ioBlockSetupManager::GetSingletonPtr() )

  000d4	83 3d 00 00 00
	00 00		 cmp	 DWORD PTR ?ms_Singleton@?$Singleton@VioBlockSetupManager@@@@1PAVioBlockSetupManager@@A, 0 ; Singleton<ioBlockSetupManager>::ms_Singleton
  000db	74 1c		 je	 SHORT $LN30@iwm_comman@2

; 590  : 				g_BlockSetupManager.EndSetUpState();

  000dd	e8 00 00 00 00	 call	 ?GetSingleton@ioBlockSetupManager@@SAAAV1@XZ ; ioBlockSetupManager::GetSingleton
  000e2	8b c8		 mov	 ecx, eax
  000e4	e8 00 00 00 00	 call	 ?EndSetUpState@ioBlockSetupManager@@QAEXXZ ; ioBlockSetupManager::EndSetUpState

; 591  : 		}
; 592  : 		break;

  000e9	eb 0e		 jmp	 SHORT $LN30@iwm_comman@2
$LN17@iwm_comman@2:

; 573  : 	{
; 574  : 	case ID_EXIT:
; 575  : 		if( cmd == IOBN_BTNUP )

  000eb	83 7d 0c 11	 cmp	 DWORD PTR _cmd$[ebp], 17 ; 00000011H
  000ef	75 08		 jne	 SHORT $LN30@iwm_comman@2

; 576  : 		{
; 577  : 			HideWnd();

  000f1	8b cf		 mov	 ecx, edi
  000f3	ff 15 00 00 00
	00		 call	 DWORD PTR __imp_?HideWnd@ioWnd@@QAEXXZ
$LN30@iwm_comman@2:

; 617  : 	}
; 618  : 
; 619  : 	if( COMPARE( dwID, ID_ITEM101, ID_ITEM_MAX ) )

  000f9	83 c3 9b	 add	 ebx, -101		; ffffff9bH
  000fc	83 fb 14	 cmp	 ebx, 20			; 00000014H
  000ff	0f 87 91 00 00
	00		 ja	 $LN1@iwm_comman@2

; 620  : 	{
; 621  : 		if( cmd == IOBN_BTNUP )

  00105	83 7d 0c 11	 cmp	 DWORD PTR _cmd$[ebp], 17 ; 00000011H
  00109	0f 85 87 00 00
	00		 jne	 $LN1@iwm_comman@2

; 622  : 		{
; 623  : 			ioHousingBlockInvenItemButton* pItem = dynamic_cast<ioHousingBlockInvenItemButton*>( pWnd );

  0010f	6a 00		 push	 0
  00111	68 00 00 00 00	 push	 OFFSET ??_R0?AVioHousingBlockInvenItemButton@@@8
  00116	56		 push	 esi
  00117	6a 00		 push	 0
  00119	ff 75 08	 push	 DWORD PTR _pWnd$[ebp]
  0011c	e8 00 00 00 00	 call	 ___RTDynamicCast
  00121	8b f0		 mov	 esi, eax

; 624  : 			if( pItem )

  00123	33 db		 xor	 ebx, ebx
  00125	83 c4 14	 add	 esp, 20			; 00000014H
  00128	3b f3		 cmp	 esi, ebx
  0012a	74 6a		 je	 SHORT $LN1@iwm_comman@2

; 625  : 			{
; 626  : 				if( 0 < pItem->GetCount() )

  0012c	39 9e 24 02 00
	00		 cmp	 DWORD PTR [esi+548], ebx
  00132	7e 36		 jle	 SHORT $LN4@iwm_comman@2

; 627  : 				{
; 628  : 					ioUserBlockStorage* pStorage = GetStorage();

  00134	8b cf		 mov	 ecx, edi
  00136	e8 00 00 00 00	 call	 ?GetStorage@ioHousingBlockInvenWnd@@QAEPAVioUserBlockStorage@@XZ ; ioHousingBlockInvenWnd::GetStorage

; 629  : 					if( pStorage )

  0013b	3b c3		 cmp	 eax, ebx
  0013d	74 0d		 je	 SHORT $LN3@iwm_comman@2

; 630  : 						pStorage->SelectItem( pItem->GetCode() );

  0013f	ff b6 1c 02 00
	00		 push	 DWORD PTR [esi+540]
  00145	8b c8		 mov	 ecx, eax
  00147	e8 00 00 00 00	 call	 ?SelectItem@ioUserBlockStorage@@QAEXH@Z ; ioUserBlockStorage::SelectItem
$LN3@iwm_comman@2:

; 631  : 
; 632  : 					if( ioBlockSetupManager::GetSingletonPtr() )

  0014c	39 1d 00 00 00
	00		 cmp	 DWORD PTR ?ms_Singleton@?$Singleton@VioBlockSetupManager@@@@1PAVioBlockSetupManager@@A, ebx ; Singleton<ioBlockSetupManager>::ms_Singleton
  00152	74 0c		 je	 SHORT $LN2@iwm_comman@2

; 633  : 						g_BlockSetupManager.ChangeToSetUp();

  00154	e8 00 00 00 00	 call	 ?GetSingleton@ioBlockSetupManager@@SAAAV1@XZ ; ioBlockSetupManager::GetSingleton
  00159	8b c8		 mov	 ecx, eax
  0015b	e8 00 00 00 00	 call	 ?ChangeToSetUp@ioBlockSetupManager@@QAEXXZ ; ioBlockSetupManager::ChangeToSetUp
$LN2@iwm_comman@2:

; 634  : 
; 635  : 					HideWnd();

  00160	8b cf		 mov	 ecx, edi
  00162	ff 15 00 00 00
	00		 call	 DWORD PTR __imp_?HideWnd@ioWnd@@QAEXXZ

; 636  : 				}
; 637  : 				else

  00168	eb 2c		 jmp	 SHORT $LN1@iwm_comman@2
$LN4@iwm_comman@2:

; 638  : 				{
; 639  : 					g_GUIMgr.SetMsgBox( MB_OK, NULL, STR(1) );

  0016a	53		 push	 ebx
  0016b	6a 01		 push	 1
  0016d	68 00 00 00 00	 push	 OFFSET ??_C@_00CNPNBAHC@?$AA@
  00172	68 00 00 00 00	 push	 OFFSET ??_C@_0CE@ILEGMEGC@ioHousingBlockInvenWnd?3?3iwm_comm@
  00177	ff 15 00 00 00
	00		 call	 DWORD PTR __imp_?GetSingleton@ioStringManager@@SAAAV1@XZ
  0017d	8b c8		 mov	 ecx, eax
  0017f	ff 15 00 00 00
	00		 call	 DWORD PTR __imp_?GetString@ioStringManager@@QAEPADPBD0HW4FileNamePrefix@1@@Z
  00185	50		 push	 eax
  00186	53		 push	 ebx
  00187	53		 push	 ebx
  00188	e8 00 00 00 00	 call	 ?GetSingleton@ioSP2GUIManager@@SAAAV1@XZ ; ioSP2GUIManager::GetSingleton
  0018d	50		 push	 eax
  0018e	e8 00 00 00 00	 call	 ?SetMsgBox@ioSP2GUIManager@@QAAXHPAVioWnd@@PBDZZ ; ioSP2GUIManager::SetMsgBox
  00193	83 c4 10	 add	 esp, 16			; 00000010H
$LN1@iwm_comman@2:
  00196	5f		 pop	 edi
  00197	5e		 pop	 esi
  00198	5b		 pop	 ebx

; 640  : 				}
; 641  : 			}
; 642  : 		}
; 643  : 	}
; 644  : }

  00199	5d		 pop	 ebp
  0019a	c2 0c 00	 ret	 12			; 0000000cH
?iwm_command@ioHousingBlockInvenWnd@@UAEXPAVioWnd@@HK@Z ENDP ; ioHousingBlockInvenWnd::iwm_command
_TEXT	ENDS
PUBLIC	??_C@_0CB@FDOKABLM@ioHousingBlockInvenWnd?3?3iwm_show@ ; `string'
EXTRN	__imp_?SetTitleText@ioWnd@@QAEXPBD0H@Z:PROC
EXTRN	?ClearCameraModeFixed@ioPlayStage@@QAEXK@Z:PROC	; ioPlayStage::ClearCameraModeFixed
EXTRN	?HasCameraFixedStyle@ioPlayStage@@QAE_NK@Z:PROC	; ioPlayStage::HasCameraFixedStyle
;	COMDAT ??_C@_0CB@FDOKABLM@ioHousingBlockInvenWnd?3?3iwm_show@
; File d:\lost saga for developer\youtube\tutorial\source\src\lsclient\gui\iosp2guimanager.h
CONST	SEGMENT
??_C@_0CB@FDOKABLM@ioHousingBlockInvenWnd?3?3iwm_show@ DB 'ioHousingBlock'
	DB	'InvenWnd::iwm_show', 00H			; `string'
; Function compile flags: /Ogsp
; File d:\lost saga for developer\youtube\tutorial\source\src\lsclient\gui\iohousingblockinvenwnd.cpp
CONST	ENDS
;	COMDAT ?iwm_show@ioHousingBlockInvenWnd@@UAEXXZ
_TEXT	SEGMENT
?iwm_show@ioHousingBlockInvenWnd@@UAEXXZ PROC		; ioHousingBlockInvenWnd::iwm_show, COMDAT
; _this$ = ecx

; 289  : {

  00000	53		 push	 ebx
  00001	56		 push	 esi
  00002	57		 push	 edi

; 290  : 	g_GUIMgr.HideWnd( NEW_SHOP_WND );

  00003	33 ff		 xor	 edi, edi
  00005	57		 push	 edi
  00006	68 f8 17 00 00	 push	 6136			; 000017f8H
  0000b	8b f1		 mov	 esi, ecx
  0000d	e8 00 00 00 00	 call	 ?GetSingleton@ioSP2GUIManager@@SAAAV1@XZ ; ioSP2GUIManager::GetSingleton
  00012	8b c8		 mov	 ecx, eax
  00014	ff 15 00 00 00
	00		 call	 DWORD PTR __imp_?HideWnd@ioGUIManager@@QAEXK_N@Z

; 291  : 
; 292  : 	ioPlayStage* pStage = g_GUIMgr.GetPlayStage();

  0001a	e8 00 00 00 00	 call	 ?GetSingleton@ioSP2GUIManager@@SAAAV1@XZ ; ioSP2GUIManager::GetSingleton
  0001f	8b 98 e8 04 00
	00		 mov	 ebx, DWORD PTR [eax+1256]

; 293  : 	if( pStage->HasCameraFixedStyle( CAMERA_STYLE_HOUSING ) )

  00025	6a 04		 push	 4
  00027	8b cb		 mov	 ecx, ebx
  00029	e8 00 00 00 00	 call	 ?HasCameraFixedStyle@ioPlayStage@@QAE_NK@Z ; ioPlayStage::HasCameraFixedStyle
  0002e	84 c0		 test	 al, al
  00030	74 09		 je	 SHORT $LN6@iwm_show

; 294  : 		pStage->ClearCameraModeFixed( CAMERA_STYLE_HOUSING );	

  00032	6a 04		 push	 4
  00034	8b cb		 mov	 ecx, ebx
  00036	e8 00 00 00 00	 call	 ?ClearCameraModeFixed@ioPlayStage@@QAEXK@Z ; ioPlayStage::ClearCameraModeFixed
$LN6@iwm_show:

; 295  : 
; 296  : 	m_nCurrPage		= 0;
; 297  : 	m_nCurrnItemMax	= 0;
; 298  : 
; 299  : 	UpdateTab( ID_TAB01 );

  0003b	6a 0b		 push	 11			; 0000000bH
  0003d	8b ce		 mov	 ecx, esi
  0003f	89 be 60 01 00
	00		 mov	 DWORD PTR [esi+352], edi
  00045	89 be 6c 01 00
	00		 mov	 DWORD PTR [esi+364], edi
  0004b	e8 00 00 00 00	 call	 ?UpdateTab@ioHousingBlockInvenWnd@@QAEXK@Z ; ioHousingBlockInvenWnd::UpdateTab

; 300  : 	ParseButton();

  00050	8b ce		 mov	 ecx, esi
  00052	e8 00 00 00 00	 call	 ?ParseButton@ioHousingBlockInvenWnd@@QAEXXZ ; ioHousingBlockInvenWnd::ParseButton

; 301  : 	ParseScroll();

  00057	8b ce		 mov	 ecx, esi
  00059	e8 00 00 00 00	 call	 ?ParseScroll@ioHousingBlockInvenWnd@@QAEXXZ ; ioHousingBlockInvenWnd::ParseScroll

; 302  : 
; 303  : 	ioUserBlockStorage* pStorage = GetStorage();

  0005e	8b ce		 mov	 ecx, esi
  00060	e8 00 00 00 00	 call	 ?GetStorage@ioHousingBlockInvenWnd@@QAEPAVioUserBlockStorage@@XZ ; ioHousingBlockInvenWnd::GetStorage

; 304  : 	if( pStorage )

  00065	3b c7		 cmp	 eax, edi
  00067	74 07		 je	 SHORT $LN5@iwm_show

; 305  : 		pStorage->SendBlockInvenSync();

  00069	8b 10		 mov	 edx, DWORD PTR [eax]
  0006b	57		 push	 edi
  0006c	8b c8		 mov	 ecx, eax
  0006e	ff 12		 call	 DWORD PTR [edx]
$LN5@iwm_show:

; 306  : 
; 307  : 	EnableEditFocus();

  00070	8b ce		 mov	 ecx, esi
  00072	e8 00 00 00 00	 call	 ?EnableEditFocus@ioHousingBlockInvenWnd@@QAEXXZ ; ioHousingBlockInvenWnd::EnableEditFocus

; 308  : 	switch( m_eBlockModeType )

  00077	8b 86 68 01 00
	00		 mov	 eax, DWORD PTR [esi+360]
  0007d	2b c7		 sub	 eax, edi
  0007f	74 0f		 je	 SHORT $LN2@iwm_show
  00081	48		 dec	 eax
  00082	75 33		 jne	 SHORT $LN3@iwm_show

; 312  : 		break;
; 313  : 	case BMT_PERSONAL:
; 314  : 		SetTitleText( STR(2) );

  00084	57		 push	 edi
  00085	b8 00 00 00 00	 mov	 eax, OFFSET ??_C@_00CNPNBAHC@?$AA@
  0008a	50		 push	 eax
  0008b	57		 push	 edi
  0008c	6a 02		 push	 2

; 315  : 		break;

  0008e	eb 0a		 jmp	 SHORT $LN11@iwm_show
$LN2@iwm_show:

; 309  : 	{
; 310  : 	case BMT_GUILD:
; 311  : 		SetTitleText( STR(1) );

  00090	57		 push	 edi
  00091	b8 00 00 00 00	 mov	 eax, OFFSET ??_C@_00CNPNBAHC@?$AA@
  00096	50		 push	 eax
  00097	57		 push	 edi
  00098	6a 01		 push	 1
$LN11@iwm_show:
  0009a	50		 push	 eax
  0009b	68 00 00 00 00	 push	 OFFSET ??_C@_0CB@FDOKABLM@ioHousingBlockInvenWnd?3?3iwm_show@
  000a0	ff 15 00 00 00
	00		 call	 DWORD PTR __imp_?GetSingleton@ioStringManager@@SAAAV1@XZ
  000a6	8b c8		 mov	 ecx, eax
  000a8	ff 15 00 00 00
	00		 call	 DWORD PTR __imp_?GetString@ioStringManager@@QAEPADPBD0HW4FileNamePrefix@1@@Z
  000ae	50		 push	 eax
  000af	8b ce		 mov	 ecx, esi
  000b1	ff 15 00 00 00
	00		 call	 DWORD PTR __imp_?SetTitleText@ioWnd@@QAEXPBD0H@Z
$LN3@iwm_show:

; 316  : 	}
; 317  : }

  000b7	5f		 pop	 edi
  000b8	5e		 pop	 esi
  000b9	5b		 pop	 ebx
  000ba	c3		 ret	 0
?iwm_show@ioHousingBlockInvenWnd@@UAEXXZ ENDP		; ioHousingBlockInvenWnd::iwm_show
; Function compile flags: /Ogsp
_TEXT	ENDS
;	COMDAT ?OnProcess@ioHousingBlockInvenWnd@@UAEXM@Z
_TEXT	SEGMENT
_fTimePerSec$ = 8					; size = 4
?OnProcess@ioHousingBlockInvenWnd@@UAEXM@Z PROC		; ioHousingBlockInvenWnd::OnProcess, COMDAT
; _this$ = ecx

; 376  : {

  00000	56		 push	 esi
  00001	8b f1		 mov	 esi, ecx

; 377  : 	if( !IsShow() )

  00003	ff 15 00 00 00
	00		 call	 DWORD PTR __imp_?IsShow@ioWnd@@QBE_NXZ
  00009	84 c0		 test	 al, al
  0000b	74 15		 je	 SHORT $LN2@OnProcess@2

; 378  : 		return;
; 379  : 
; 380  : 	//      OnProcess 
; 381  : 	ProcessEdit();

  0000d	8b ce		 mov	 ecx, esi
  0000f	e8 00 00 00 00	 call	 ?ProcessEdit@ioHousingBlockInvenWnd@@QAEXXZ ; ioHousingBlockInvenWnd::ProcessEdit

; 382  : 	ParseButton();

  00014	8b ce		 mov	 ecx, esi
  00016	e8 00 00 00 00	 call	 ?ParseButton@ioHousingBlockInvenWnd@@QAEXXZ ; ioHousingBlockInvenWnd::ParseButton

; 383  : 	ProcessToolTip();	

  0001b	8b ce		 mov	 ecx, esi
  0001d	e8 00 00 00 00	 call	 ?ProcessToolTip@ioHousingBlockInvenWnd@@QAEXXZ ; ioHousingBlockInvenWnd::ProcessToolTip
$LN2@OnProcess@2:
  00022	5e		 pop	 esi

; 384  : }

  00023	c2 04 00	 ret	 4
?OnProcess@ioHousingBlockInvenWnd@@UAEXM@Z ENDP		; ioHousingBlockInvenWnd::OnProcess
_TEXT	ENDS
_BSS	SEGMENT
_ZERO_TILE_POS DB 010H DUP (?)
_BSS	ENDS
END
