; Listing generated by Microsoft (R) Optimizing Compiler Version 16.00.30319.01 

	TITLE	D:\Lost Saga For Developer\Youtube\Tutorial\Source\src\LSClient\ioHunterCoinModeItem.cpp
	.686P
	.XMM
	include listing.inc
	.model	flat

INCLUDELIB MSVCRT
INCLUDELIB OLDNAMES

PUBLIC	?_EEM_DS@?$deque@UD3DXVECTOR3@@V?$allocator@UD3DXVECTOR3@@@std@@@std@@2HB ; std::deque<D3DXVECTOR3,std::allocator<D3DXVECTOR3> >::_EEM_DS
;	COMDAT ?_EEM_DS@?$deque@UD3DXVECTOR3@@V?$allocator@UD3DXVECTOR3@@@std@@@std@@2HB
CONST	SEGMENT
?_EEM_DS@?$deque@UD3DXVECTOR3@@V?$allocator@UD3DXVECTOR3@@@std@@@std@@2HB DD 01H ; std::deque<D3DXVECTOR3,std::allocator<D3DXVECTOR3> >::_EEM_DS
CONST	ENDS
PUBLIC	?SetUniqueID@ioModeItem@@QAEXK@Z		; ioModeItem::SetUniqueID
; Function compile flags: /Ogsp
; File d:\lost saga for developer\youtube\tutorial\source\src\lsclient\iomodeitem.h
;	COMDAT ?SetUniqueID@ioModeItem@@QAEXK@Z
_TEXT	SEGMENT
_dwID$ = 8						; size = 4
?SetUniqueID@ioModeItem@@QAEXK@Z PROC			; ioModeItem::SetUniqueID, COMDAT
; _this$ = ecx

; 62   : 	inline void  SetUniqueID( DWORD dwID ) { m_dwID = dwID; }

  00000	55		 push	 ebp
  00001	8b ec		 mov	 ebp, esp
  00003	8b 45 08	 mov	 eax, DWORD PTR _dwID$[ebp]
  00006	89 41 0c	 mov	 DWORD PTR [ecx+12], eax
  00009	5d		 pop	 ebp
  0000a	c2 04 00	 ret	 4
?SetUniqueID@ioModeItem@@QAEXK@Z ENDP			; ioModeItem::SetUniqueID
_TEXT	ENDS
PUBLIC	?SetDirection@ioHunterCoinModeItem@@QAEXUD3DXVECTOR3@@@Z ; ioHunterCoinModeItem::SetDirection
; Function compile flags: /Ogsp
; File d:\lost saga for developer\youtube\tutorial\source\src\lsclient\iohuntercoinmodeitem.h
;	COMDAT ?SetDirection@ioHunterCoinModeItem@@QAEXUD3DXVECTOR3@@@Z
_TEXT	SEGMENT
_vDir$ = 8						; size = 12
?SetDirection@ioHunterCoinModeItem@@QAEXUD3DXVECTOR3@@@Z PROC ; ioHunterCoinModeItem::SetDirection, COMDAT
; _this$ = ecx

; 47   : 	inline void SetDirection( D3DXVECTOR3 vDir ) { m_vMoveDirection = vDir; }

  00000	55		 push	 ebp
  00001	8b ec		 mov	 ebp, esp
  00003	56		 push	 esi
  00004	57		 push	 edi
  00005	8d b9 f0 00 00
	00		 lea	 edi, DWORD PTR [ecx+240]
  0000b	8d 75 08	 lea	 esi, DWORD PTR _vDir$[ebp]
  0000e	a5		 movsd
  0000f	a5		 movsd
  00010	a5		 movsd
  00011	5f		 pop	 edi
  00012	5e		 pop	 esi
  00013	5d		 pop	 ebp
  00014	c2 0c 00	 ret	 12			; 0000000cH
?SetDirection@ioHunterCoinModeItem@@QAEXUD3DXVECTOR3@@@Z ENDP ; ioHunterCoinModeItem::SetDirection
_TEXT	ENDS
PUBLIC	??_7ioHunterCoinModeItem@@6B@			; ioHunterCoinModeItem::`vftable'
PUBLIC	??1ioHunterCoinModeItem@@UAE@XZ			; ioHunterCoinModeItem::~ioHunterCoinModeItem
PUBLIC	??_R4ioHunterCoinModeItem@@6B@			; ioHunterCoinModeItem::`RTTI Complete Object Locator'
PUBLIC	??_R0?AVioHunterCoinModeItem@@@8		; ioHunterCoinModeItem `RTTI Type Descriptor'
PUBLIC	??_R3ioHunterCoinModeItem@@8			; ioHunterCoinModeItem::`RTTI Class Hierarchy Descriptor'
PUBLIC	??_R2ioHunterCoinModeItem@@8			; ioHunterCoinModeItem::`RTTI Base Class Array'
PUBLIC	??_R1A@?0A@EA@ioHunterCoinModeItem@@8		; ioHunterCoinModeItem::`RTTI Base Class Descriptor at (0,-1,0,64)'
PUBLIC	??_R1A@?0A@EA@ioModeItem@@8			; ioModeItem::`RTTI Base Class Descriptor at (0,-1,0,64)'
PUBLIC	??_R0?AVioModeItem@@@8				; ioModeItem `RTTI Type Descriptor'
PUBLIC	??_R3ioModeItem@@8				; ioModeItem::`RTTI Class Hierarchy Descriptor'
PUBLIC	??_R2ioModeItem@@8				; ioModeItem::`RTTI Base Class Array'
PUBLIC	?LoadProperty@ioHunterCoinModeItem@@UAEXAAVioINILoader@@@Z ; ioHunterCoinModeItem::LoadProperty
PUBLIC	?Clone@ioHunterCoinModeItem@@UAEPAVioModeItem@@XZ ; ioHunterCoinModeItem::Clone
PUBLIC	?OnCreate@ioHunterCoinModeItem@@UAEXXZ		; ioHunterCoinModeItem::OnCreate
PUBLIC	?OnDestroy@ioHunterCoinModeItem@@UAEXXZ		; ioHunterCoinModeItem::OnDestroy
PUBLIC	?Process@ioHunterCoinModeItem@@UAEXXZ		; ioHunterCoinModeItem::Process
PUBLIC	?IsCollision@ioHunterCoinModeItem@@UAE_NPAVioBaseChar@@@Z ; ioHunterCoinModeItem::IsCollision
PUBLIC	?TestMapCollision@ioHunterCoinModeItem@@UAE_NPAVioOpcodeShape@@PAVioPlayStage@@PBUD3DXMATRIX@@@Z ; ioHunterCoinModeItem::TestMapCollision
EXTRN	??1ioModeItem@@UAE@XZ:PROC			; ioModeItem::~ioModeItem
EXTRN	__imp_??1ioHashString@@QAE@XZ:PROC
EXTRN	___CxxFrameHandler3:PROC
EXTRN	@__security_check_cookie@4:PROC
EXTRN	__EH_epilog3:PROC
EXTRN	__EH_prolog3:PROC
EXTRN	??_7type_info@@6B@:QWORD			; type_info::`vftable'
EXTRN	?SetItemValue@ioModeItem@@UAEXKMM@Z:PROC	; ioModeItem::SetItemValue
EXTRN	?SetPosition@ioModeItem@@UAEXUD3DXVECTOR3@@@Z:PROC ; ioModeItem::SetPosition
EXTRN	?GetMidPositionByOffset@ioModeItem@@UBE?AUD3DXVECTOR3@@XZ:PROC ; ioModeItem::GetMidPositionByOffset
EXTRN	?GetPosition@ioModeItem@@UBE?AUD3DXVECTOR3@@XZ:PROC ; ioModeItem::GetPosition
EXTRN	?SendGetModeItem@ioModeItem@@MAEXPAVioBaseChar@@@Z:PROC ; ioModeItem::SendGetModeItem
EXTRN	?IsAttach@ioModeItem@@UAE_NXZ:PROC		; ioModeItem::IsAttach
EXTRN	?UpdateAttackBox@ioModeItem@@UAEXXZ:PROC	; ioModeItem::UpdateAttackBox
EXTRN	?GetAttackBox@ioModeItem@@UBEABVioOrientBox@@XZ:PROC ; ioModeItem::GetAttackBox
EXTRN	??_EioHunterCoinModeItem@@UAEPAXI@Z:PROC	; ioHunterCoinModeItem::`vector deleting destructor'
;	COMDAT ??_R2ioModeItem@@8
; File d:\lost saga for developer\youtube\tutorial\source\src\lsclient\iohuntercoinmodeitem.cpp
rdata$r	SEGMENT
??_R2ioModeItem@@8 DD FLAT:??_R1A@?0A@EA@ioModeItem@@8	; ioModeItem::`RTTI Base Class Array'
rdata$r	ENDS
;	COMDAT ??_R3ioModeItem@@8
rdata$r	SEGMENT
??_R3ioModeItem@@8 DD 00H				; ioModeItem::`RTTI Class Hierarchy Descriptor'
	DD	00H
	DD	01H
	DD	FLAT:??_R2ioModeItem@@8
rdata$r	ENDS
;	COMDAT ??_R0?AVioModeItem@@@8
_DATA	SEGMENT
??_R0?AVioModeItem@@@8 DD FLAT:??_7type_info@@6B@	; ioModeItem `RTTI Type Descriptor'
	DD	00H
	DB	'.?AVioModeItem@@', 00H
_DATA	ENDS
;	COMDAT ??_R1A@?0A@EA@ioModeItem@@8
rdata$r	SEGMENT
??_R1A@?0A@EA@ioModeItem@@8 DD FLAT:??_R0?AVioModeItem@@@8 ; ioModeItem::`RTTI Base Class Descriptor at (0,-1,0,64)'
	DD	00H
	DD	00H
	DD	0ffffffffH
	DD	00H
	DD	040H
	DD	FLAT:??_R3ioModeItem@@8
rdata$r	ENDS
;	COMDAT ??_R1A@?0A@EA@ioHunterCoinModeItem@@8
rdata$r	SEGMENT
??_R1A@?0A@EA@ioHunterCoinModeItem@@8 DD FLAT:??_R0?AVioHunterCoinModeItem@@@8 ; ioHunterCoinModeItem::`RTTI Base Class Descriptor at (0,-1,0,64)'
	DD	01H
	DD	00H
	DD	0ffffffffH
	DD	00H
	DD	040H
	DD	FLAT:??_R3ioHunterCoinModeItem@@8
rdata$r	ENDS
;	COMDAT ??_R2ioHunterCoinModeItem@@8
rdata$r	SEGMENT
??_R2ioHunterCoinModeItem@@8 DD FLAT:??_R1A@?0A@EA@ioHunterCoinModeItem@@8 ; ioHunterCoinModeItem::`RTTI Base Class Array'
	DD	FLAT:??_R1A@?0A@EA@ioModeItem@@8
rdata$r	ENDS
;	COMDAT ??_R3ioHunterCoinModeItem@@8
rdata$r	SEGMENT
??_R3ioHunterCoinModeItem@@8 DD 00H			; ioHunterCoinModeItem::`RTTI Class Hierarchy Descriptor'
	DD	00H
	DD	02H
	DD	FLAT:??_R2ioHunterCoinModeItem@@8
rdata$r	ENDS
;	COMDAT ??_R0?AVioHunterCoinModeItem@@@8
_DATA	SEGMENT
??_R0?AVioHunterCoinModeItem@@@8 DD FLAT:??_7type_info@@6B@ ; ioHunterCoinModeItem `RTTI Type Descriptor'
	DD	00H
	DB	'.?AVioHunterCoinModeItem@@', 00H
_DATA	ENDS
;	COMDAT ??_R4ioHunterCoinModeItem@@6B@
rdata$r	SEGMENT
??_R4ioHunterCoinModeItem@@6B@ DD 00H			; ioHunterCoinModeItem::`RTTI Complete Object Locator'
	DD	00H
	DD	00H
	DD	FLAT:??_R0?AVioHunterCoinModeItem@@@8
	DD	FLAT:??_R3ioHunterCoinModeItem@@8
rdata$r	ENDS
;	COMDAT ??_7ioHunterCoinModeItem@@6B@
CONST	SEGMENT
??_7ioHunterCoinModeItem@@6B@ DD FLAT:??_R4ioHunterCoinModeItem@@6B@ ; ioHunterCoinModeItem::`vftable'
	DD	FLAT:?LoadProperty@ioHunterCoinModeItem@@UAEXAAVioINILoader@@@Z
	DD	FLAT:?Clone@ioHunterCoinModeItem@@UAEPAVioModeItem@@XZ
	DD	FLAT:?OnCreate@ioHunterCoinModeItem@@UAEXXZ
	DD	FLAT:?OnDestroy@ioHunterCoinModeItem@@UAEXXZ
	DD	FLAT:?SetItemValue@ioModeItem@@UAEXKMM@Z
	DD	FLAT:?Process@ioHunterCoinModeItem@@UAEXXZ
	DD	FLAT:?IsCollision@ioHunterCoinModeItem@@UAE_NPAVioBaseChar@@@Z
	DD	FLAT:?SetPosition@ioModeItem@@UAEXUD3DXVECTOR3@@@Z
	DD	FLAT:?GetMidPositionByOffset@ioModeItem@@UBE?AUD3DXVECTOR3@@XZ
	DD	FLAT:?GetPosition@ioModeItem@@UBE?AUD3DXVECTOR3@@XZ
	DD	FLAT:?SendGetModeItem@ioModeItem@@MAEXPAVioBaseChar@@@Z
	DD	FLAT:?IsAttach@ioModeItem@@UAE_NXZ
	DD	FLAT:?UpdateAttackBox@ioModeItem@@UAEXXZ
	DD	FLAT:?GetAttackBox@ioModeItem@@UBEABVioOrientBox@@XZ
	DD	FLAT:?TestMapCollision@ioHunterCoinModeItem@@UAE_NPAVioOpcodeShape@@PAVioPlayStage@@PBUD3DXMATRIX@@@Z
	DD	FLAT:??_EioHunterCoinModeItem@@UAEPAXI@Z
CONST	ENDS
;	COMDAT xdata$x
xdata$x	SEGMENT
__unwindtable$??1ioHunterCoinModeItem@@UAE@XZ DD 0ffffffffH
	DD	FLAT:__unwindfunclet$??1ioHunterCoinModeItem@@UAE@XZ$0
__ehfuncinfo$??1ioHunterCoinModeItem@@UAE@XZ DD 019930522H
	DD	01H
	DD	FLAT:__unwindtable$??1ioHunterCoinModeItem@@UAE@XZ
	DD	2 DUP(00H)
	DD	2 DUP(00H)
	DD	00H
	DD	01H
; Function compile flags: /Ogsp
xdata$x	ENDS
;	COMDAT ??1ioHunterCoinModeItem@@UAE@XZ
_TEXT	SEGMENT
_this$ = -16						; size = 4
__$EHRec$ = -12						; size = 12
??1ioHunterCoinModeItem@@UAE@XZ PROC			; ioHunterCoinModeItem::~ioHunterCoinModeItem, COMDAT
; _this$ = ecx

; 27   : {

  00000	6a 04		 push	 4
  00002	b8 00 00 00 00	 mov	 eax, __ehhandler$??1ioHunterCoinModeItem@@UAE@XZ
  00007	e8 00 00 00 00	 call	 __EH_prolog3
  0000c	8b f1		 mov	 esi, ecx
  0000e	89 75 f0	 mov	 DWORD PTR _this$[ebp], esi
  00011	c7 06 00 00 00
	00		 mov	 DWORD PTR [esi], OFFSET ??_7ioHunterCoinModeItem@@6B@
  00017	83 65 fc 00	 and	 DWORD PTR __$EHRec$[ebp+8], 0

; 28   : 
; 29   : }

  0001b	8d 8e dc 00 00
	00		 lea	 ecx, DWORD PTR [esi+220]
  00021	ff 15 00 00 00
	00		 call	 DWORD PTR __imp_??1ioHashString@@QAE@XZ
  00027	83 4d fc ff	 or	 DWORD PTR __$EHRec$[ebp+8], -1
  0002b	8b ce		 mov	 ecx, esi
  0002d	e8 00 00 00 00	 call	 ??1ioModeItem@@UAE@XZ	; ioModeItem::~ioModeItem
  00032	e8 00 00 00 00	 call	 __EH_epilog3
  00037	c3		 ret	 0
_TEXT	ENDS
;	COMDAT text$x
text$x	SEGMENT
__unwindfunclet$??1ioHunterCoinModeItem@@UAE@XZ$0:
  00000	8b 4d f0	 mov	 ecx, DWORD PTR _this$[ebp]
  00003	e9 00 00 00 00	 jmp	 ??1ioModeItem@@UAE@XZ	; ioModeItem::~ioModeItem
__ehhandler$??1ioHunterCoinModeItem@@UAE@XZ:
  00008	8b 54 24 08	 mov	 edx, DWORD PTR [esp+8]
  0000c	8d 42 0c	 lea	 eax, DWORD PTR [edx+12]
  0000f	8b 4a ec	 mov	 ecx, DWORD PTR [edx-20]
  00012	33 c8		 xor	 ecx, eax
  00014	e8 00 00 00 00	 call	 @__security_check_cookie@4
  00019	b8 00 00 00 00	 mov	 eax, OFFSET __ehfuncinfo$??1ioHunterCoinModeItem@@UAE@XZ
  0001e	e9 00 00 00 00	 jmp	 ___CxxFrameHandler3
text$x	ENDS
??1ioHunterCoinModeItem@@UAE@XZ ENDP			; ioHunterCoinModeItem::~ioHunterCoinModeItem
EXTRN	?DestroyMapEffect@ioPlayStage@@QAEXK@Z:PROC	; ioPlayStage::DestroyMapEffect
EXTRN	?OnDestroy@ioModeItem@@UAEXXZ:PROC		; ioModeItem::OnDestroy
; Function compile flags: /Ogsp
;	COMDAT ?OnDestroy@ioHunterCoinModeItem@@UAEXXZ
_TEXT	SEGMENT
?OnDestroy@ioHunterCoinModeItem@@UAEXXZ PROC		; ioHunterCoinModeItem::OnDestroy, COMDAT
; _this$ = ecx

; 60   : {

  00000	57		 push	 edi
  00001	8b f9		 mov	 edi, ecx

; 61   : 	if( !m_pCreator )

  00003	83 7f 04 00	 cmp	 DWORD PTR [edi+4], 0
  00007	74 22		 je	 SHORT $LN1@OnDestroy

; 62   : 		return;
; 63   : 
; 64   : 	ioModeItem::OnDestroy();

  00009	56		 push	 esi
  0000a	e8 00 00 00 00	 call	 ?OnDestroy@ioModeItem@@UAEXXZ ; ioModeItem::OnDestroy

; 65   : 
; 66   : 	if( m_dwLoopEffectID != -1 )

  0000f	8b 87 ec 00 00
	00		 mov	 eax, DWORD PTR [edi+236]
  00015	83 f8 ff	 cmp	 eax, -1
  00018	74 10		 je	 SHORT $LN5@OnDestroy

; 67   : 	{
; 68   : 		m_pCreator->DestroyMapEffect( m_dwLoopEffectID );

  0001a	8b 4f 04	 mov	 ecx, DWORD PTR [edi+4]
  0001d	50		 push	 eax
  0001e	e8 00 00 00 00	 call	 ?DestroyMapEffect@ioPlayStage@@QAEXK@Z ; ioPlayStage::DestroyMapEffect

; 69   : 		m_dwLoopEffectID = -1;

  00023	83 8f ec 00 00
	00 ff		 or	 DWORD PTR [edi+236], -1
$LN5@OnDestroy:
  0002a	5e		 pop	 esi
$LN1@OnDestroy:
  0002b	5f		 pop	 edi

; 70   : 	}
; 71   : }

  0002c	c3		 ret	 0
?OnDestroy@ioHunterCoinModeItem@@UAEXXZ ENDP		; ioHunterCoinModeItem::OnDestroy
_TEXT	ENDS
PUBLIC	?ProcessDelay@ioHunterCoinModeItem@@QAEXXZ	; ioHunterCoinModeItem::ProcessDelay
; Function compile flags: /Ogsp
;	COMDAT ?ProcessDelay@ioHunterCoinModeItem@@QAEXXZ
_TEXT	SEGMENT
?ProcessDelay@ioHunterCoinModeItem@@QAEXXZ PROC		; ioHunterCoinModeItem::ProcessDelay, COMDAT
; _this$ = ecx

; 215  : }

  00000	c3		 ret	 0
?ProcessDelay@ioHunterCoinModeItem@@QAEXXZ ENDP		; ioHunterCoinModeItem::ProcessDelay
_TEXT	ENDS
PUBLIC	?SetMoveState@ioHunterCoinModeItem@@IAEXXZ	; ioHunterCoinModeItem::SetMoveState
EXTRN	__fltused:DWORD
; Function compile flags: /Ogsp
;	COMDAT ?SetMoveState@ioHunterCoinModeItem@@IAEXXZ
_TEXT	SEGMENT
?SetMoveState@ioHunterCoinModeItem@@IAEXXZ PROC		; ioHunterCoinModeItem::SetMoveState, COMDAT
; _this$ = ecx

; 219  : 	if( m_State == IS_MOVE )

  00000	6a 02		 push	 2
  00002	5a		 pop	 edx
  00003	39 91 d8 00 00
	00		 cmp	 DWORD PTR [ecx+216], edx
  00009	74 28		 je	 SHORT $LN2@SetMoveSta

; 220  : 		return;
; 221  : 
; 222  : 	m_State = IS_MOVE;
; 223  : 
; 224  : 	m_fCurMoveSpeed = m_fMoveSpeed;

  0000b	d9 81 fc 00 00
	00		 fld	 DWORD PTR [ecx+252]
  00011	89 91 d8 00 00
	00		 mov	 DWORD PTR [ecx+216], edx
  00017	d9 99 04 01 00
	00		 fstp	 DWORD PTR [ecx+260]

; 225  : 	m_fCurFloatingPower  = m_fFloatingPower;
; 226  : 	m_iCurPingPongCnt = 1;

  0001d	c7 81 0c 01 00
	00 01 00 00 00	 mov	 DWORD PTR [ecx+268], 1
  00027	d9 81 00 01 00
	00		 fld	 DWORD PTR [ecx+256]
  0002d	d9 99 08 01 00
	00		 fstp	 DWORD PTR [ecx+264]
$LN2@SetMoveSta:

; 227  : }

  00033	c3		 ret	 0
?SetMoveState@ioHunterCoinModeItem@@IAEXXZ ENDP		; ioHunterCoinModeItem::SetMoveState
_TEXT	ENDS
PUBLIC	__real@3fe0000000000000
PUBLIC	?SetPingpongState@ioHunterCoinModeItem@@IAEXXZ	; ioHunterCoinModeItem::SetPingpongState
;	COMDAT __real@3fe0000000000000
CONST	SEGMENT
__real@3fe0000000000000 DQ 03fe0000000000000r	; 0.5
; Function compile flags: /Ogsp
CONST	ENDS
;	COMDAT ?SetPingpongState@ioHunterCoinModeItem@@IAEXXZ
_TEXT	SEGMENT
?SetPingpongState@ioHunterCoinModeItem@@IAEXXZ PROC	; ioHunterCoinModeItem::SetPingpongState, COMDAT
; _this$ = ecx

; 231  : 	if( m_State == IS_PINGPONG )

  00000	6a 03		 push	 3
  00002	5a		 pop	 edx
  00003	39 91 d8 00 00
	00		 cmp	 DWORD PTR [ecx+216], edx
  00009	74 44		 je	 SHORT $LN2@SetPingpon

; 232  : 		return;
; 233  : 
; 234  : 	m_State = IS_PINGPONG;	
; 235  : 
; 236  : 	m_fCurMoveSpeed = m_fMoveSpeed * 0.5f;

  0000b	f3 0f 10 81 fc
	00 00 00	 movss	 xmm0, DWORD PTR [ecx+252]
  00013	0f 5a c8	 cvtps2pd xmm1, xmm0
  00016	f2 0f 59 0d 00
	00 00 00	 mulsd	 xmm1, QWORD PTR __real@3fe0000000000000
  0001e	66 0f 5a c9	 cvtpd2ps xmm1, xmm1
  00022	f3 0f 11 89 04
	01 00 00	 movss	 DWORD PTR [ecx+260], xmm1

; 237  : 	m_fCurFloatingPower  = m_fFloatingPower * 0.5f;	

  0002a	f3 0f 10 89 00
	01 00 00	 movss	 xmm1, DWORD PTR [ecx+256]
  00032	0f 5a c9	 cvtps2pd xmm1, xmm1
  00035	f2 0f 59 0d 00
	00 00 00	 mulsd	 xmm1, QWORD PTR __real@3fe0000000000000
  0003d	66 0f 5a c1	 cvtpd2ps xmm0, xmm1
  00041	89 91 d8 00 00
	00		 mov	 DWORD PTR [ecx+216], edx
  00047	f3 0f 11 81 08
	01 00 00	 movss	 DWORD PTR [ecx+264], xmm0
$LN2@SetPingpon:

; 238  : }

  0004f	c3		 ret	 0
?SetPingpongState@ioHunterCoinModeItem@@IAEXXZ ENDP	; ioHunterCoinModeItem::SetPingpongState
_TEXT	ENDS
PUBLIC	?SetDelayState@ioHunterCoinModeItem@@IAEXXZ	; ioHunterCoinModeItem::SetDelayState
; Function compile flags: /Ogsp
;	COMDAT ?SetDelayState@ioHunterCoinModeItem@@IAEXXZ
_TEXT	SEGMENT
?SetDelayState@ioHunterCoinModeItem@@IAEXXZ PROC	; ioHunterCoinModeItem::SetDelayState, COMDAT
; _this$ = ecx

; 242  : 	if( m_State == IS_DELAY )

  00000	8d 81 d8 00 00
	00		 lea	 eax, DWORD PTR [ecx+216]
  00006	33 c9		 xor	 ecx, ecx
  00008	41		 inc	 ecx
  00009	39 08		 cmp	 DWORD PTR [eax], ecx
  0000b	74 02		 je	 SHORT $LN2@SetDelaySt

; 243  : 		return;
; 244  : 
; 245  : 	m_State = IS_DELAY;

  0000d	89 08		 mov	 DWORD PTR [eax], ecx
$LN2@SetDelaySt:

; 246  : }

  0000f	c3		 ret	 0
?SetDelayState@ioHunterCoinModeItem@@IAEXXZ ENDP	; ioHunterCoinModeItem::SetDelayState
_TEXT	ENDS
EXTRN	?IsCollision@ioModeItem@@UAE_NPAVioBaseChar@@@Z:PROC ; ioModeItem::IsCollision
EXTRN	__imp_?GetLoopSec@ioFrameTimer@@QBEKXZ:PROC
EXTRN	__imp_?GetSingleton@ioFrameTimer@@SAAAV1@XZ:PROC
; Function compile flags: /Ogsp
;	COMDAT ?IsCollision@ioHunterCoinModeItem@@UAE_NPAVioBaseChar@@@Z
_TEXT	SEGMENT
_pChar$ = 8						; size = 4
?IsCollision@ioHunterCoinModeItem@@UAE_NPAVioBaseChar@@@Z PROC ; ioHunterCoinModeItem::IsCollision, COMDAT
; _this$ = ecx

; 249  : {

  00000	55		 push	 ebp
  00001	8b ec		 mov	 ebp, esp
  00003	56		 push	 esi
  00004	57		 push	 edi
  00005	8b f9		 mov	 edi, ecx

; 250  : 	if ( m_dwCurCollisionTime <= 0 || m_dwCurCollisionTime > FRAMEGETTIME() )

  00007	83 bf 18 01 00
	00 00		 cmp	 DWORD PTR [edi+280], 0
  0000e	76 22		 jbe	 SHORT $LN1@IsCollisio
  00010	ff 15 00 00 00
	00		 call	 DWORD PTR __imp_?GetSingleton@ioFrameTimer@@SAAAV1@XZ
  00016	8b c8		 mov	 ecx, eax
  00018	ff 15 00 00 00
	00		 call	 DWORD PTR __imp_?GetLoopSec@ioFrameTimer@@QBEKXZ
  0001e	39 87 18 01 00
	00		 cmp	 DWORD PTR [edi+280], eax
  00024	77 0c		 ja	 SHORT $LN1@IsCollisio

; 252  : 
; 253  : 	return ioModeItem::IsCollision( pChar );

  00026	ff 75 08	 push	 DWORD PTR _pChar$[ebp]
  00029	8b cf		 mov	 ecx, edi
  0002b	e8 00 00 00 00	 call	 ?IsCollision@ioModeItem@@UAE_NPAVioBaseChar@@@Z ; ioModeItem::IsCollision
  00030	eb 02		 jmp	 SHORT $LN3@IsCollisio
$LN1@IsCollisio:

; 251  : 		return false;

  00032	32 c0		 xor	 al, al
$LN3@IsCollisio:
  00034	5f		 pop	 edi
  00035	5e		 pop	 esi

; 254  : }

  00036	5d		 pop	 ebp
  00037	c2 04 00	 ret	 4
?IsCollision@ioHunterCoinModeItem@@UAE_NPAVioBaseChar@@@Z ENDP ; ioHunterCoinModeItem::IsCollision
_TEXT	ENDS
PUBLIC	__real@3f91df46a2526c7a
PUBLIC	??$DEGtoRAD@M@@YAMM@Z				; DEGtoRAD<float>
;	COMDAT __real@3f91df46a2526c7a
; File d:\lost saga for developer\youtube\tutorial\source\src\lsclient\veryoftenusedefine.h
CONST	SEGMENT
__real@3f91df46a2526c7a DQ 03f91df46a2526c7ar	; 0.0174533
; Function compile flags: /Ogsp
CONST	ENDS
;	COMDAT ??$DEGtoRAD@M@@YAMM@Z
_TEXT	SEGMENT
tv129 = 8						; size = 4
_val$ = 8						; size = 4
??$DEGtoRAD@M@@YAMM@Z PROC				; DEGtoRAD<float>, COMDAT

; 20   : type  DEGtoRAD (type val) {return (type) (val * 0.0174532925199);}

  00000	55		 push	 ebp
  00001	8b ec		 mov	 ebp, esp
  00003	d9 45 08	 fld	 DWORD PTR _val$[ebp]
  00006	dc 0d 00 00 00
	00		 fmul	 QWORD PTR __real@3f91df46a2526c7a
  0000c	d9 5d 08	 fstp	 DWORD PTR tv129[ebp]
  0000f	d9 45 08	 fld	 DWORD PTR tv129[ebp]
  00012	5d		 pop	 ebp
  00013	c3		 ret	 0
??$DEGtoRAD@M@@YAMM@Z ENDP				; DEGtoRAD<float>
_TEXT	ENDS
PUBLIC	??0D3DXVECTOR3@@QAE@XZ				; D3DXVECTOR3::D3DXVECTOR3
; Function compile flags: /Ogsp
; File c:\program files (x86)\microsoft directx sdk (june 2010)\include\d3dx9math.h
;	COMDAT ??0D3DXVECTOR3@@QAE@XZ
_TEXT	SEGMENT
??0D3DXVECTOR3@@QAE@XZ PROC				; D3DXVECTOR3::D3DXVECTOR3, COMDAT
; _this$ = ecx

; 165  :     D3DXVECTOR3() {};

  00000	8b c1		 mov	 eax, ecx
  00002	c3		 ret	 0
??0D3DXVECTOR3@@QAE@XZ ENDP				; D3DXVECTOR3::D3DXVECTOR3
_TEXT	ENDS
PUBLIC	??0D3DXQUATERNION@@QAE@XZ			; D3DXQUATERNION::D3DXQUATERNION
; Function compile flags: /Ogsp
;	COMDAT ??0D3DXQUATERNION@@QAE@XZ
_TEXT	SEGMENT
??0D3DXQUATERNION@@QAE@XZ PROC				; D3DXQUATERNION::D3DXQUATERNION, COMDAT
; _this$ = ecx

; 429  :     D3DXQUATERNION() {}

  00000	8b c1		 mov	 eax, ecx
  00002	c3		 ret	 0
??0D3DXQUATERNION@@QAE@XZ ENDP				; D3DXQUATERNION::D3DXQUATERNION
_TEXT	ENDS
PUBLIC	??0D3DXVECTOR3@@QAE@MMM@Z			; D3DXVECTOR3::D3DXVECTOR3
; Function compile flags: /Ogsp
; File c:\program files (x86)\microsoft directx sdk (june 2010)\include\d3dx9math.inl
;	COMDAT ??0D3DXVECTOR3@@QAE@MMM@Z
_TEXT	SEGMENT
_fx$ = 8						; size = 4
_fy$ = 12						; size = 4
_fz$ = 16						; size = 4
??0D3DXVECTOR3@@QAE@MMM@Z PROC				; D3DXVECTOR3::D3DXVECTOR3, COMDAT
; _this$ = ecx

; 303  : {

  00000	55		 push	 ebp
  00001	8b ec		 mov	 ebp, esp

; 304  :     x = fx;

  00003	f3 0f 10 45 08	 movss	 xmm0, DWORD PTR _fx$[ebp]
  00008	8b c1		 mov	 eax, ecx
  0000a	f3 0f 11 00	 movss	 DWORD PTR [eax], xmm0

; 305  :     y = fy;

  0000e	f3 0f 10 45 0c	 movss	 xmm0, DWORD PTR _fy$[ebp]
  00013	f3 0f 11 40 04	 movss	 DWORD PTR [eax+4], xmm0

; 306  :     z = fz;

  00018	f3 0f 10 45 10	 movss	 xmm0, DWORD PTR _fz$[ebp]
  0001d	f3 0f 11 40 08	 movss	 DWORD PTR [eax+8], xmm0

; 307  : }

  00022	5d		 pop	 ebp
  00023	c2 0c 00	 ret	 12			; 0000000cH
??0D3DXVECTOR3@@QAE@MMM@Z ENDP				; D3DXVECTOR3::D3DXVECTOR3
_TEXT	ENDS
PUBLIC	__mask@@NegFloat@
PUBLIC	??GD3DXVECTOR3@@QBE?AU0@XZ			; D3DXVECTOR3::operator-
;	COMDAT __mask@@NegFloat@
CONST	SEGMENT
__mask@@NegFloat@ DB 00H, 00H, 00H, 080H, 00H, 00H, 00H, 080H, 00H, 00H, 00H
	DB	080H, 00H, 00H, 00H, 080H
; Function compile flags: /Ogsp
CONST	ENDS
;	COMDAT ??GD3DXVECTOR3@@QBE?AU0@XZ
_TEXT	SEGMENT
___$ReturnUdt$ = 8					; size = 4
??GD3DXVECTOR3@@QBE?AU0@XZ PROC				; D3DXVECTOR3::operator-, COMDAT
; _this$ = ecx

; 372  : {

  00000	55		 push	 ebp
  00001	8b ec		 mov	 ebp, esp

; 373  :     return D3DXVECTOR3(-x, -y, -z);

  00003	f3 0f 10 05 00
	00 00 00	 movss	 xmm0, DWORD PTR __mask@@NegFloat@
  0000b	8b 45 08	 mov	 eax, DWORD PTR ___$ReturnUdt$[ebp]
  0000e	f3 0f 10 09	 movss	 xmm1, DWORD PTR [ecx]
  00012	0f 57 c8	 xorps	 xmm1, xmm0
  00015	f3 0f 11 08	 movss	 DWORD PTR [eax], xmm1
  00019	f3 0f 10 49 04	 movss	 xmm1, DWORD PTR [ecx+4]
  0001e	0f 57 c8	 xorps	 xmm1, xmm0
  00021	f3 0f 11 48 04	 movss	 DWORD PTR [eax+4], xmm1
  00026	f3 0f 10 49 08	 movss	 xmm1, DWORD PTR [ecx+8]
  0002b	0f 57 c8	 xorps	 xmm1, xmm0
  0002e	f3 0f 11 48 08	 movss	 DWORD PTR [eax+8], xmm1

; 374  : }

  00033	5d		 pop	 ebp
  00034	c2 04 00	 ret	 4
??GD3DXVECTOR3@@QBE?AU0@XZ ENDP				; D3DXVECTOR3::operator-
_TEXT	ENDS
PUBLIC	??HD3DXVECTOR3@@QBE?AU0@ABU0@@Z			; D3DXVECTOR3::operator+
; Function compile flags: /Ogsp
;	COMDAT ??HD3DXVECTOR3@@QBE?AU0@ABU0@@Z
_TEXT	SEGMENT
___$ReturnUdt$ = 8					; size = 4
_v$ = 12						; size = 4
??HD3DXVECTOR3@@QBE?AU0@ABU0@@Z PROC			; D3DXVECTOR3::operator+, COMDAT
; _this$ = ecx

; 380  : {

  00000	55		 push	 ebp
  00001	8b ec		 mov	 ebp, esp

; 381  :     return D3DXVECTOR3(x + v.x, y + v.y, z + v.z);

  00003	8b 55 0c	 mov	 edx, DWORD PTR _v$[ebp]
  00006	f3 0f 10 02	 movss	 xmm0, DWORD PTR [edx]
  0000a	f3 0f 10 09	 movss	 xmm1, DWORD PTR [ecx]
  0000e	8b 45 08	 mov	 eax, DWORD PTR ___$ReturnUdt$[ebp]
  00011	0f 5a c0	 cvtps2pd xmm0, xmm0
  00014	0f 5a c9	 cvtps2pd xmm1, xmm1
  00017	f2 0f 58 c1	 addsd	 xmm0, xmm1
  0001b	f3 0f 10 49 04	 movss	 xmm1, DWORD PTR [ecx+4]
  00020	66 0f 5a c0	 cvtpd2ps xmm0, xmm0
  00024	f3 0f 11 00	 movss	 DWORD PTR [eax], xmm0
  00028	f3 0f 10 42 04	 movss	 xmm0, DWORD PTR [edx+4]
  0002d	0f 5a c0	 cvtps2pd xmm0, xmm0
  00030	0f 5a c9	 cvtps2pd xmm1, xmm1
  00033	f2 0f 58 c1	 addsd	 xmm0, xmm1
  00037	f3 0f 10 49 08	 movss	 xmm1, DWORD PTR [ecx+8]
  0003c	66 0f 5a c0	 cvtpd2ps xmm0, xmm0
  00040	f3 0f 11 40 04	 movss	 DWORD PTR [eax+4], xmm0
  00045	f3 0f 10 42 08	 movss	 xmm0, DWORD PTR [edx+8]
  0004a	0f 5a c0	 cvtps2pd xmm0, xmm0
  0004d	0f 5a c9	 cvtps2pd xmm1, xmm1
  00050	f2 0f 58 c1	 addsd	 xmm0, xmm1
  00054	66 0f 5a c0	 cvtpd2ps xmm0, xmm0
  00058	f3 0f 11 40 08	 movss	 DWORD PTR [eax+8], xmm0

; 382  : }

  0005d	5d		 pop	 ebp
  0005e	c2 08 00	 ret	 8
??HD3DXVECTOR3@@QBE?AU0@ABU0@@Z ENDP			; D3DXVECTOR3::operator+
_TEXT	ENDS
PUBLIC	??GD3DXVECTOR3@@QBE?AU0@ABU0@@Z			; D3DXVECTOR3::operator-
; Function compile flags: /Ogsp
;	COMDAT ??GD3DXVECTOR3@@QBE?AU0@ABU0@@Z
_TEXT	SEGMENT
___$ReturnUdt$ = 8					; size = 4
_v$ = 12						; size = 4
??GD3DXVECTOR3@@QBE?AU0@ABU0@@Z PROC			; D3DXVECTOR3::operator-, COMDAT
; _this$ = ecx

; 386  : {

  00000	55		 push	 ebp
  00001	8b ec		 mov	 ebp, esp

; 387  :     return D3DXVECTOR3(x - v.x, y - v.y, z - v.z);

  00003	8b 55 0c	 mov	 edx, DWORD PTR _v$[ebp]
  00006	f3 0f 10 01	 movss	 xmm0, DWORD PTR [ecx]
  0000a	f3 0f 10 0a	 movss	 xmm1, DWORD PTR [edx]
  0000e	8b 45 08	 mov	 eax, DWORD PTR ___$ReturnUdt$[ebp]
  00011	0f 5a c0	 cvtps2pd xmm0, xmm0
  00014	0f 5a c9	 cvtps2pd xmm1, xmm1
  00017	f2 0f 5c c1	 subsd	 xmm0, xmm1
  0001b	f3 0f 10 4a 04	 movss	 xmm1, DWORD PTR [edx+4]
  00020	66 0f 5a c0	 cvtpd2ps xmm0, xmm0
  00024	f3 0f 11 00	 movss	 DWORD PTR [eax], xmm0
  00028	f3 0f 10 41 04	 movss	 xmm0, DWORD PTR [ecx+4]
  0002d	0f 5a c0	 cvtps2pd xmm0, xmm0
  00030	0f 5a c9	 cvtps2pd xmm1, xmm1
  00033	f2 0f 5c c1	 subsd	 xmm0, xmm1
  00037	f3 0f 10 4a 08	 movss	 xmm1, DWORD PTR [edx+8]
  0003c	66 0f 5a c0	 cvtpd2ps xmm0, xmm0
  00040	f3 0f 11 40 04	 movss	 DWORD PTR [eax+4], xmm0
  00045	f3 0f 10 41 08	 movss	 xmm0, DWORD PTR [ecx+8]
  0004a	0f 5a c0	 cvtps2pd xmm0, xmm0
  0004d	0f 5a c9	 cvtps2pd xmm1, xmm1
  00050	f2 0f 5c c1	 subsd	 xmm0, xmm1
  00054	66 0f 5a c0	 cvtpd2ps xmm0, xmm0
  00058	f3 0f 11 40 08	 movss	 DWORD PTR [eax+8], xmm0

; 388  : }

  0005d	5d		 pop	 ebp
  0005e	c2 08 00	 ret	 8
??GD3DXVECTOR3@@QBE?AU0@ABU0@@Z ENDP			; D3DXVECTOR3::operator-
_TEXT	ENDS
PUBLIC	??DD3DXVECTOR3@@QBE?AU0@M@Z			; D3DXVECTOR3::operator*
; Function compile flags: /Ogsp
;	COMDAT ??DD3DXVECTOR3@@QBE?AU0@M@Z
_TEXT	SEGMENT
___$ReturnUdt$ = 8					; size = 4
_f$ = 12						; size = 4
??DD3DXVECTOR3@@QBE?AU0@M@Z PROC			; D3DXVECTOR3::operator*, COMDAT
; _this$ = ecx

; 392  : {

  00000	55		 push	 ebp
  00001	8b ec		 mov	 ebp, esp

; 393  :     return D3DXVECTOR3(x * f, y * f, z * f);

  00003	f3 0f 10 4d 0c	 movss	 xmm1, DWORD PTR _f$[ebp]
  00008	f3 0f 10 01	 movss	 xmm0, DWORD PTR [ecx]
  0000c	8b 45 08	 mov	 eax, DWORD PTR ___$ReturnUdt$[ebp]
  0000f	0f 5a c0	 cvtps2pd xmm0, xmm0
  00012	0f 5a c9	 cvtps2pd xmm1, xmm1
  00015	f2 0f 59 c1	 mulsd	 xmm0, xmm1
  00019	f3 0f 10 4d 0c	 movss	 xmm1, DWORD PTR _f$[ebp]
  0001e	66 0f 5a c0	 cvtpd2ps xmm0, xmm0
  00022	f3 0f 11 00	 movss	 DWORD PTR [eax], xmm0
  00026	f3 0f 10 41 04	 movss	 xmm0, DWORD PTR [ecx+4]
  0002b	0f 5a c0	 cvtps2pd xmm0, xmm0
  0002e	0f 5a c9	 cvtps2pd xmm1, xmm1
  00031	f2 0f 59 c1	 mulsd	 xmm0, xmm1
  00035	f3 0f 10 4d 0c	 movss	 xmm1, DWORD PTR _f$[ebp]
  0003a	66 0f 5a c0	 cvtpd2ps xmm0, xmm0
  0003e	f3 0f 11 40 04	 movss	 DWORD PTR [eax+4], xmm0
  00043	f3 0f 10 41 08	 movss	 xmm0, DWORD PTR [ecx+8]
  00048	0f 5a c0	 cvtps2pd xmm0, xmm0
  0004b	0f 5a c9	 cvtps2pd xmm1, xmm1
  0004e	f2 0f 59 c1	 mulsd	 xmm0, xmm1
  00052	66 0f 5a c0	 cvtpd2ps xmm0, xmm0
  00056	f3 0f 11 40 08	 movss	 DWORD PTR [eax+8], xmm0

; 394  : }

  0005b	5d		 pop	 ebp
  0005c	c2 08 00	 ret	 8
??DD3DXVECTOR3@@QBE?AU0@M@Z ENDP			; D3DXVECTOR3::operator*
_TEXT	ENDS
PUBLIC	??D@YA?AUD3DXVECTOR3@@MABU0@@Z			; operator*
; Function compile flags: /Ogsp
;	COMDAT ??D@YA?AUD3DXVECTOR3@@MABU0@@Z
_TEXT	SEGMENT
___$ReturnUdt$ = 8					; size = 4
_f$ = 12						; size = 4
_v$ = 16						; size = 4
??D@YA?AUD3DXVECTOR3@@MABU0@@Z PROC			; operator*, COMDAT

; 406  : {

  00000	55		 push	 ebp
  00001	8b ec		 mov	 ebp, esp

; 407  :     return D3DXVECTOR3(f * v.x, f * v.y, f * v.z);

  00003	8b 4d 10	 mov	 ecx, DWORD PTR _v$[ebp]
  00006	f3 0f 10 4d 0c	 movss	 xmm1, DWORD PTR _f$[ebp]
  0000b	f3 0f 10 01	 movss	 xmm0, DWORD PTR [ecx]
  0000f	8b 45 08	 mov	 eax, DWORD PTR ___$ReturnUdt$[ebp]
  00012	0f 5a c0	 cvtps2pd xmm0, xmm0
  00015	0f 5a c9	 cvtps2pd xmm1, xmm1
  00018	f2 0f 59 c1	 mulsd	 xmm0, xmm1
  0001c	f3 0f 10 4d 0c	 movss	 xmm1, DWORD PTR _f$[ebp]
  00021	66 0f 5a c0	 cvtpd2ps xmm0, xmm0
  00025	f3 0f 11 00	 movss	 DWORD PTR [eax], xmm0
  00029	f3 0f 10 41 04	 movss	 xmm0, DWORD PTR [ecx+4]
  0002e	0f 5a c0	 cvtps2pd xmm0, xmm0
  00031	0f 5a c9	 cvtps2pd xmm1, xmm1
  00034	f2 0f 59 c1	 mulsd	 xmm0, xmm1
  00038	f3 0f 10 4d 0c	 movss	 xmm1, DWORD PTR _f$[ebp]
  0003d	66 0f 5a c0	 cvtpd2ps xmm0, xmm0
  00041	f3 0f 11 40 04	 movss	 DWORD PTR [eax+4], xmm0
  00046	f3 0f 10 41 08	 movss	 xmm0, DWORD PTR [ecx+8]
  0004b	0f 5a c0	 cvtps2pd xmm0, xmm0
  0004e	0f 5a c9	 cvtps2pd xmm1, xmm1
  00051	f2 0f 59 c1	 mulsd	 xmm0, xmm1
  00055	66 0f 5a c0	 cvtpd2ps xmm0, xmm0
  00059	f3 0f 11 40 08	 movss	 DWORD PTR [eax+8], xmm0

; 408  : }

  0005e	5d		 pop	 ebp
  0005f	c3		 ret	 0
??D@YA?AUD3DXVECTOR3@@MABU0@@Z ENDP			; operator*
_TEXT	ENDS
PUBLIC	?D3DXVec3Dot@@YAMPBUD3DXVECTOR3@@0@Z		; D3DXVec3Dot
; Function compile flags: /Ogsp
;	COMDAT ?D3DXVec3Dot@@YAMPBUD3DXVECTOR3@@0@Z
_TEXT	SEGMENT
tv188 = 8						; size = 4
_pV1$ = 8						; size = 4
_pV2$ = 12						; size = 4
?D3DXVec3Dot@@YAMPBUD3DXVECTOR3@@0@Z PROC		; D3DXVec3Dot, COMDAT

; 1736 : {

  00000	55		 push	 ebp
  00001	8b ec		 mov	 ebp, esp

; 1737 : #ifdef D3DX_DEBUG
; 1738 :     if(!pV1 || !pV2)
; 1739 :         return 0.0f;
; 1740 : #endif
; 1741 : 
; 1742 :     return pV1->x * pV2->x + pV1->y * pV2->y + pV1->z * pV2->z;

  00003	8b 45 08	 mov	 eax, DWORD PTR _pV1$[ebp]
  00006	8b 4d 0c	 mov	 ecx, DWORD PTR _pV2$[ebp]
  00009	d9 40 04	 fld	 DWORD PTR [eax+4]
  0000c	d8 49 04	 fmul	 DWORD PTR [ecx+4]
  0000f	d9 00		 fld	 DWORD PTR [eax]
  00011	d8 09		 fmul	 DWORD PTR [ecx]
  00013	de c1		 faddp	 ST(1), ST(0)
  00015	d9 40 08	 fld	 DWORD PTR [eax+8]
  00018	d8 49 08	 fmul	 DWORD PTR [ecx+8]
  0001b	de c1		 faddp	 ST(1), ST(0)
  0001d	d9 5d 08	 fstp	 DWORD PTR tv188[ebp]
  00020	d9 45 08	 fld	 DWORD PTR tv188[ebp]

; 1743 : }

  00023	5d		 pop	 ebp
  00024	c3		 ret	 0
?D3DXVec3Dot@@YAMPBUD3DXVECTOR3@@0@Z ENDP		; D3DXVec3Dot
_TEXT	ENDS
PUBLIC	?_DECSTR@@YAXPADH@Z				; _DECSTR
; Function compile flags: /Ogsp
; File d:\lost saga for developer\youtube\tutorial\source\src\lsclient\stringprotect.h
;	COMDAT ?_DECSTR@@YAXPADH@Z
_TEXT	SEGMENT
_s$ = 8							; size = 4
_l$ = 12						; size = 4
?_DECSTR@@YAXPADH@Z PROC				; _DECSTR, COMDAT

; 40   : __forceinline void _DECSTR(char* s, int l){int i=0,l4=(l-1)/4,*p=(int*)s;s[l-1]=0;for(;i<l4;++i)*(p++)^=0xEAEBECED;for(i=l4*4;i<l-1;++i)s[i]^=0xED-i%4;}

  00000	55		 push	 ebp
  00001	8b ec		 mov	 ebp, esp
  00003	8b 4d 0c	 mov	 ecx, DWORD PTR _l$[ebp]
  00006	56		 push	 esi
  00007	8b 75 08	 mov	 esi, DWORD PTR _s$[ebp]
  0000a	57		 push	 edi
  0000b	8d 79 ff	 lea	 edi, DWORD PTR [ecx-1]
  0000e	8b c7		 mov	 eax, edi
  00010	99		 cdq
  00011	83 e2 03	 and	 edx, 3
  00014	03 c2		 add	 eax, edx
  00016	c1 f8 02	 sar	 eax, 2
  00019	8b d6		 mov	 edx, esi
  0001b	c6 44 0e ff 00	 mov	 BYTE PTR [esi+ecx-1], 0
  00020	85 c0		 test	 eax, eax
  00022	7e 0e		 jle	 SHORT $LN4@DECSTR
  00024	8b c8		 mov	 ecx, eax
$LL6@DECSTR:
  00026	81 32 ed ec eb
	ea		 xor	 DWORD PTR [edx], -353637139 ; eaebecedH
  0002c	83 c2 04	 add	 edx, 4
  0002f	49		 dec	 ecx
  00030	75 f4		 jne	 SHORT $LL6@DECSTR
$LN4@DECSTR:
  00032	c1 e0 02	 shl	 eax, 2
  00035	eb 17		 jmp	 SHORT $LN14@DECSTR
$LL3@DECSTR:
  00037	8b c8		 mov	 ecx, eax
  00039	81 e1 03 00 00
	80		 and	 ecx, -2147483645	; 80000003H
  0003f	79 05		 jns	 SHORT $LN13@DECSTR
  00041	49		 dec	 ecx
  00042	83 c9 fc	 or	 ecx, -4			; fffffffcH
  00045	41		 inc	 ecx
$LN13@DECSTR:
  00046	b2 ed		 mov	 dl, -19			; ffffffedH
  00048	2a d1		 sub	 dl, cl
  0004a	30 14 30	 xor	 BYTE PTR [eax+esi], dl
  0004d	40		 inc	 eax
$LN14@DECSTR:
  0004e	3b c7		 cmp	 eax, edi
  00050	7c e5		 jl	 SHORT $LL3@DECSTR
  00052	5f		 pop	 edi
  00053	5e		 pop	 esi
  00054	5d		 pop	 ebp
  00055	c3		 ret	 0
?_DECSTR@@YAXPADH@Z ENDP				; _DECSTR
_TEXT	ENDS
PUBLIC	??0ioHunterCoinModeItem@@QAE@XZ			; ioHunterCoinModeItem::ioHunterCoinModeItem
EXTRN	__imp_?UNIT_Z@ioMath@@2UD3DXVECTOR3@@A:BYTE
EXTRN	__imp_??0ioHashString@@QAE@XZ:PROC
EXTRN	??0ioModeItem@@QAE@XZ:PROC			; ioModeItem::ioModeItem
;	COMDAT xdata$x
; File c:\program files (x86)\microsoft directx sdk (june 2010)\include\d3dx9math.inl
xdata$x	SEGMENT
__unwindtable$??0ioHunterCoinModeItem@@QAE@XZ DD 0ffffffffH
	DD	FLAT:__unwindfunclet$??0ioHunterCoinModeItem@@QAE@XZ$0
__ehfuncinfo$??0ioHunterCoinModeItem@@QAE@XZ DD 019930522H
	DD	01H
	DD	FLAT:__unwindtable$??0ioHunterCoinModeItem@@QAE@XZ
	DD	2 DUP(00H)
	DD	2 DUP(00H)
	DD	00H
	DD	01H
; Function compile flags: /Ogsp
; File d:\lost saga for developer\youtube\tutorial\source\src\lsclient\iohuntercoinmodeitem.cpp
xdata$x	ENDS
;	COMDAT ??0ioHunterCoinModeItem@@QAE@XZ
_TEXT	SEGMENT
$T530619 = -28						; size = 12
_this$ = -16						; size = 4
__$EHRec$ = -12						; size = 12
??0ioHunterCoinModeItem@@QAE@XZ PROC			; ioHunterCoinModeItem::ioHunterCoinModeItem, COMDAT
; _this$ = ecx

; 8    : {

  00000	6a 10		 push	 16			; 00000010H
  00002	b8 00 00 00 00	 mov	 eax, __ehhandler$??0ioHunterCoinModeItem@@QAE@XZ
  00007	e8 00 00 00 00	 call	 __EH_prolog3
  0000c	8b d9		 mov	 ebx, ecx
  0000e	89 5d f0	 mov	 DWORD PTR _this$[ebp], ebx
  00011	e8 00 00 00 00	 call	 ??0ioModeItem@@QAE@XZ	; ioModeItem::ioModeItem
  00016	83 65 fc 00	 and	 DWORD PTR __$EHRec$[ebp+8], 0
  0001a	8d 8b dc 00 00
	00		 lea	 ecx, DWORD PTR [ebx+220]
  00020	c7 03 00 00 00
	00		 mov	 DWORD PTR [ebx], OFFSET ??_7ioHunterCoinModeItem@@6B@
  00026	ff 15 00 00 00
	00		 call	 DWORD PTR __imp_??0ioHashString@@QAE@XZ

; 9    : 	m_State = IS_WAIT;

  0002c	83 a3 d8 00 00
	00 00		 and	 DWORD PTR [ebx+216], 0

; 10   : 	m_vMoveDirection = -ioMath::UNIT_Z;

  00033	a1 00 00 00 00	 mov	 eax, DWORD PTR __imp_?UNIT_Z@ioMath@@2UD3DXVECTOR3@@A
  00038	f3 0f 10 05 00
	00 00 00	 movss	 xmm0, DWORD PTR __mask@@NegFloat@
  00040	f3 0f 10 08	 movss	 xmm1, DWORD PTR [eax]
  00044	0f 57 c8	 xorps	 xmm1, xmm0
  00047	f3 0f 11 4d e4	 movss	 DWORD PTR $T530619[ebp], xmm1
  0004c	f3 0f 10 48 04	 movss	 xmm1, DWORD PTR [eax+4]
  00051	0f 57 c8	 xorps	 xmm1, xmm0
  00054	f3 0f 11 4d e8	 movss	 DWORD PTR $T530619[ebp+4], xmm1
  00059	f3 0f 10 48 08	 movss	 xmm1, DWORD PTR [eax+8]

; 11   : 	m_dwActivateTime = 0;

  0005e	83 a3 10 01 00
	00 00		 and	 DWORD PTR [ebx+272], 0

; 12   : 	m_dwCurCollisionTime = 0;

  00065	83 a3 18 01 00
	00 00		 and	 DWORD PTR [ebx+280], 0
  0006c	0f 57 c8	 xorps	 xmm1, xmm0
  0006f	f3 0f 11 4d ec	 movss	 DWORD PTR $T530619[ebp+8], xmm1
  00074	8d bb f0 00 00
	00		 lea	 edi, DWORD PTR [ebx+240]
  0007a	8d 75 e4	 lea	 esi, DWORD PTR $T530619[ebp]
  0007d	a5		 movsd
  0007e	a5		 movsd
  0007f	a5		 movsd

; 13   : }

  00080	8b c3		 mov	 eax, ebx
  00082	e8 00 00 00 00	 call	 __EH_epilog3
  00087	c3		 ret	 0
_TEXT	ENDS
;	COMDAT text$x
text$x	SEGMENT
__unwindfunclet$??0ioHunterCoinModeItem@@QAE@XZ$0:
  00000	8b 4d f0	 mov	 ecx, DWORD PTR _this$[ebp]
  00003	e9 00 00 00 00	 jmp	 ??1ioModeItem@@UAE@XZ	; ioModeItem::~ioModeItem
__ehhandler$??0ioHunterCoinModeItem@@QAE@XZ:
  00008	8b 54 24 08	 mov	 edx, DWORD PTR [esp+8]
  0000c	8d 42 0c	 lea	 eax, DWORD PTR [edx+12]
  0000f	8b 4a e0	 mov	 ecx, DWORD PTR [edx-32]
  00012	33 c8		 xor	 ecx, eax
  00014	e8 00 00 00 00	 call	 @__security_check_cookie@4
  00019	b8 00 00 00 00	 mov	 eax, OFFSET __ehfuncinfo$??0ioHunterCoinModeItem@@QAE@XZ
  0001e	e9 00 00 00 00	 jmp	 ___CxxFrameHandler3
text$x	ENDS
??0ioHunterCoinModeItem@@QAE@XZ ENDP			; ioHunterCoinModeItem::ioHunterCoinModeItem
EXTRN	??3@YAXPAX@Z:PROC				; operator delete
; Function compile flags: /Ogsp
;	COMDAT ??_GioHunterCoinModeItem@@UAEPAXI@Z
_TEXT	SEGMENT
___flags$ = 8						; size = 4
??_GioHunterCoinModeItem@@UAEPAXI@Z PROC		; ioHunterCoinModeItem::`scalar deleting destructor', COMDAT
; _this$ = ecx
  00000	55		 push	 ebp
  00001	8b ec		 mov	 ebp, esp
  00003	56		 push	 esi
  00004	8b f1		 mov	 esi, ecx
  00006	e8 00 00 00 00	 call	 ??1ioHunterCoinModeItem@@UAE@XZ ; ioHunterCoinModeItem::~ioHunterCoinModeItem
  0000b	f6 45 08 01	 test	 BYTE PTR ___flags$[ebp], 1
  0000f	74 07		 je	 SHORT $LN1@scalar
  00011	56		 push	 esi
  00012	e8 00 00 00 00	 call	 ??3@YAXPAX@Z		; operator delete
  00017	59		 pop	 ecx
$LN1@scalar:
  00018	8b c6		 mov	 eax, esi
  0001a	5e		 pop	 esi
  0001b	5d		 pop	 ebp
  0001c	c2 04 00	 ret	 4
??_GioHunterCoinModeItem@@UAEPAXI@Z ENDP		; ioHunterCoinModeItem::`scalar deleting destructor'
_TEXT	ENDS
PUBLIC	??0ioHunterCoinModeItem@@QAE@ABV0@@Z		; ioHunterCoinModeItem::ioHunterCoinModeItem
EXTRN	__imp_??0ioHashString@@QAE@ABV0@@Z:PROC
EXTRN	??0ioModeItem@@QAE@ABV0@@Z:PROC			; ioModeItem::ioModeItem
;	COMDAT xdata$x
; File c:\program files (x86)\microsoft directx sdk (june 2010)\include\d3dx9math.inl
xdata$x	SEGMENT
__unwindtable$??0ioHunterCoinModeItem@@QAE@ABV0@@Z DD 0ffffffffH
	DD	FLAT:__unwindfunclet$??0ioHunterCoinModeItem@@QAE@ABV0@@Z$0
__ehfuncinfo$??0ioHunterCoinModeItem@@QAE@ABV0@@Z DD 019930522H
	DD	01H
	DD	FLAT:__unwindtable$??0ioHunterCoinModeItem@@QAE@ABV0@@Z
	DD	2 DUP(00H)
	DD	2 DUP(00H)
	DD	00H
	DD	01H
; Function compile flags: /Ogsp
; File d:\lost saga for developer\youtube\tutorial\source\src\lsclient\iohuntercoinmodeitem.cpp
xdata$x	ENDS
;	COMDAT ??0ioHunterCoinModeItem@@QAE@ABV0@@Z
_TEXT	SEGMENT
$T530628 = -28						; size = 12
_this$ = -16						; size = 4
__$EHRec$ = -12						; size = 12
_rhs$ = 8						; size = 4
??0ioHunterCoinModeItem@@QAE@ABV0@@Z PROC		; ioHunterCoinModeItem::ioHunterCoinModeItem, COMDAT
; _this$ = ecx

; 19   : {

  00000	6a 10		 push	 16			; 00000010H
  00002	b8 00 00 00 00	 mov	 eax, __ehhandler$??0ioHunterCoinModeItem@@QAE@ABV0@@Z
  00007	e8 00 00 00 00	 call	 __EH_prolog3
  0000c	8b d9		 mov	 ebx, ecx
  0000e	89 5d f0	 mov	 DWORD PTR _this$[ebp], ebx
  00011	8b 75 08	 mov	 esi, DWORD PTR _rhs$[ebp]
  00014	56		 push	 esi
  00015	e8 00 00 00 00	 call	 ??0ioModeItem@@QAE@ABV0@@Z ; ioModeItem::ioModeItem
  0001a	83 65 fc 00	 and	 DWORD PTR __$EHRec$[ebp+8], 0
  0001e	8d 86 dc 00 00
	00		 lea	 eax, DWORD PTR [esi+220]
  00024	50		 push	 eax
  00025	8d 8b dc 00 00
	00		 lea	 ecx, DWORD PTR [ebx+220]
  0002b	c7 03 00 00 00
	00		 mov	 DWORD PTR [ebx], OFFSET ??_7ioHunterCoinModeItem@@6B@
  00031	ff 15 00 00 00
	00		 call	 DWORD PTR __imp_??0ioHashString@@QAE@ABV0@@Z
  00037	8b 86 14 01 00
	00		 mov	 eax, DWORD PTR [esi+276]

; 20   : 	m_State = IS_WAIT;

  0003d	83 a3 d8 00 00
	00 00		 and	 DWORD PTR [ebx+216], 0
  00044	89 83 14 01 00
	00		 mov	 DWORD PTR [ebx+276], eax

; 21   : 	m_vMoveDirection = -ioMath::UNIT_Z;

  0004a	a1 00 00 00 00	 mov	 eax, DWORD PTR __imp_?UNIT_Z@ioMath@@2UD3DXVECTOR3@@A
  0004f	f3 0f 10 05 00
	00 00 00	 movss	 xmm0, DWORD PTR __mask@@NegFloat@
  00057	f3 0f 10 08	 movss	 xmm1, DWORD PTR [eax]
  0005b	0f 57 c8	 xorps	 xmm1, xmm0
  0005e	f3 0f 11 4d e4	 movss	 DWORD PTR $T530628[ebp], xmm1
  00063	f3 0f 10 48 04	 movss	 xmm1, DWORD PTR [eax+4]
  00068	0f 57 c8	 xorps	 xmm1, xmm0
  0006b	f3 0f 11 4d e8	 movss	 DWORD PTR $T530628[ebp+4], xmm1
  00070	f3 0f 10 48 08	 movss	 xmm1, DWORD PTR [eax+8]

; 22   : 	m_dwActivateTime = 0;

  00075	83 a3 10 01 00
	00 00		 and	 DWORD PTR [ebx+272], 0

; 23   : 	m_dwCurCollisionTime = 0;

  0007c	83 a3 18 01 00
	00 00		 and	 DWORD PTR [ebx+280], 0
  00083	0f 57 c8	 xorps	 xmm1, xmm0
  00086	f3 0f 11 4d ec	 movss	 DWORD PTR $T530628[ebp+8], xmm1
  0008b	8d bb f0 00 00
	00		 lea	 edi, DWORD PTR [ebx+240]
  00091	8d 75 e4	 lea	 esi, DWORD PTR $T530628[ebp]
  00094	a5		 movsd
  00095	a5		 movsd
  00096	a5		 movsd

; 24   : }

  00097	8b c3		 mov	 eax, ebx
  00099	e8 00 00 00 00	 call	 __EH_epilog3
  0009e	c2 04 00	 ret	 4
_TEXT	ENDS
;	COMDAT text$x
text$x	SEGMENT
__unwindfunclet$??0ioHunterCoinModeItem@@QAE@ABV0@@Z$0:
  00000	8b 4d f0	 mov	 ecx, DWORD PTR _this$[ebp]
  00003	e9 00 00 00 00	 jmp	 ??1ioModeItem@@UAE@XZ	; ioModeItem::~ioModeItem
__ehhandler$??0ioHunterCoinModeItem@@QAE@ABV0@@Z:
  00008	8b 54 24 08	 mov	 edx, DWORD PTR [esp+8]
  0000c	8d 42 0c	 lea	 eax, DWORD PTR [edx+12]
  0000f	8b 4a e0	 mov	 ecx, DWORD PTR [edx-32]
  00012	33 c8		 xor	 ecx, eax
  00014	e8 00 00 00 00	 call	 @__security_check_cookie@4
  00019	b8 00 00 00 00	 mov	 eax, OFFSET __ehfuncinfo$??0ioHunterCoinModeItem@@QAE@ABV0@@Z
  0001e	e9 00 00 00 00	 jmp	 ___CxxFrameHandler3
text$x	ENDS
??0ioHunterCoinModeItem@@QAE@ABV0@@Z ENDP		; ioHunterCoinModeItem::ioHunterCoinModeItem
EXTRN	??2@YAPAXI@Z:PROC				; operator new
;	COMDAT xdata$x
xdata$x	SEGMENT
__unwindtable$?Clone@ioHunterCoinModeItem@@UAEPAVioModeItem@@XZ DD 0ffffffffH
	DD	FLAT:__unwindfunclet$?Clone@ioHunterCoinModeItem@@UAEPAVioModeItem@@XZ$0
__ehfuncinfo$?Clone@ioHunterCoinModeItem@@UAEPAVioModeItem@@XZ DD 019930522H
	DD	01H
	DD	FLAT:__unwindtable$?Clone@ioHunterCoinModeItem@@UAEPAVioModeItem@@XZ
	DD	2 DUP(00H)
	DD	2 DUP(00H)
	DD	00H
	DD	01H
; Function compile flags: /Ogsp
xdata$x	ENDS
;	COMDAT ?Clone@ioHunterCoinModeItem@@UAEPAVioModeItem@@XZ
_TEXT	SEGMENT
$T531628 = -16						; size = 4
__$EHRec$ = -12						; size = 12
?Clone@ioHunterCoinModeItem@@UAEPAVioModeItem@@XZ PROC	; ioHunterCoinModeItem::Clone, COMDAT
; _this$ = ecx

; 42   : {

  00000	6a 04		 push	 4
  00002	b8 00 00 00 00	 mov	 eax, __ehhandler$?Clone@ioHunterCoinModeItem@@UAEPAVioModeItem@@XZ
  00007	e8 00 00 00 00	 call	 __EH_prolog3
  0000c	8b f1		 mov	 esi, ecx

; 43   : 	return new ioHunterCoinModeItem( *this );

  0000e	68 1c 01 00 00	 push	 284			; 0000011cH
  00013	e8 00 00 00 00	 call	 ??2@YAPAXI@Z		; operator new
  00018	59		 pop	 ecx
  00019	8b c8		 mov	 ecx, eax
  0001b	89 4d f0	 mov	 DWORD PTR $T531628[ebp], ecx
  0001e	33 c0		 xor	 eax, eax
  00020	89 45 fc	 mov	 DWORD PTR __$EHRec$[ebp+8], eax
  00023	3b c8		 cmp	 ecx, eax
  00025	74 06		 je	 SHORT $LN3@Clone
  00027	56		 push	 esi
  00028	e8 00 00 00 00	 call	 ??0ioHunterCoinModeItem@@QAE@ABV0@@Z ; ioHunterCoinModeItem::ioHunterCoinModeItem
$LN3@Clone:

; 44   : }

  0002d	e8 00 00 00 00	 call	 __EH_epilog3
  00032	c3		 ret	 0
_TEXT	ENDS
;	COMDAT text$x
text$x	SEGMENT
__unwindfunclet$?Clone@ioHunterCoinModeItem@@UAEPAVioModeItem@@XZ$0:
  00000	ff 75 f0	 push	 DWORD PTR $T531628[ebp]
  00003	e8 00 00 00 00	 call	 ??3@YAXPAX@Z		; operator delete
  00008	59		 pop	 ecx
  00009	c3		 ret	 0
__ehhandler$?Clone@ioHunterCoinModeItem@@UAEPAVioModeItem@@XZ:
  0000a	8b 54 24 08	 mov	 edx, DWORD PTR [esp+8]
  0000e	8d 42 0c	 lea	 eax, DWORD PTR [edx+12]
  00011	8b 4a ec	 mov	 ecx, DWORD PTR [edx-20]
  00014	33 c8		 xor	 ecx, eax
  00016	e8 00 00 00 00	 call	 @__security_check_cookie@4
  0001b	b8 00 00 00 00	 mov	 eax, OFFSET __ehfuncinfo$?Clone@ioHunterCoinModeItem@@UAEPAVioModeItem@@XZ
  00020	e9 00 00 00 00	 jmp	 ___CxxFrameHandler3
text$x	ENDS
?Clone@ioHunterCoinModeItem@@UAEPAVioModeItem@@XZ ENDP	; ioHunterCoinModeItem::Clone
PUBLIC	__real@3f800000
PUBLIC	__$ArrayPad$
EXTRN	?GetUniqueID@ioMapEffect@@QBEKXZ:PROC		; ioMapEffect::GetUniqueID
EXTRN	?CreateMapEffect@ioPlayStage@@QAEPAVioMapEffect@@ABVioHashString@@ABUD3DXVECTOR3@@1@Z:PROC ; ioPlayStage::CreateMapEffect
EXTRN	?OnCreate@ioModeItem@@UAEXXZ:PROC		; ioModeItem::OnCreate
EXTRN	___security_cookie:DWORD
;	COMDAT __real@3f800000
; File c:\program files (x86)\microsoft directx sdk (june 2010)\include\d3dx9math.inl
CONST	SEGMENT
__real@3f800000 DD 03f800000r			; 1
; Function compile flags: /Ogsp
; File d:\lost saga for developer\youtube\tutorial\source\src\lsclient\iohuntercoinmodeitem.cpp
CONST	ENDS
;	COMDAT ?OnCreate@ioHunterCoinModeItem@@UAEXXZ
_TEXT	SEGMENT
$T530668 = -28						; size = 12
$T530669 = -16						; size = 12
__$ArrayPad$ = -4					; size = 4
?OnCreate@ioHunterCoinModeItem@@UAEXXZ PROC		; ioHunterCoinModeItem::OnCreate, COMDAT
; _this$ = ecx

; 47   : {

  00000	55		 push	 ebp
  00001	8b ec		 mov	 ebp, esp
  00003	83 ec 1c	 sub	 esp, 28			; 0000001cH
  00006	a1 00 00 00 00	 mov	 eax, DWORD PTR ___security_cookie
  0000b	33 c5		 xor	 eax, ebp
  0000d	89 45 fc	 mov	 DWORD PTR __$ArrayPad$[ebp], eax
  00010	56		 push	 esi
  00011	8b f1		 mov	 esi, ecx

; 48   : 	if( !m_pCreator )

  00013	83 7e 04 00	 cmp	 DWORD PTR [esi+4], 0
  00017	74 4c		 je	 SHORT $LN1@OnCreate

; 49   : 		return;
; 50   : 
; 51   : 	ioModeItem::OnCreate();

  00019	e8 00 00 00 00	 call	 ?OnCreate@ioModeItem@@UAEXXZ ; ioModeItem::OnCreate

; 52   : 	ioMapEffect *pEffect = m_pCreator->CreateMapEffect( m_LoopEffectName, GetPosition(), D3DXVECTOR3( 1.0f, 1.0f, 1.0f ) );

  0001e	f3 0f 10 05 00
	00 00 00	 movss	 xmm0, DWORD PTR __real@3f800000
  00026	8d 45 f0	 lea	 eax, DWORD PTR $T530669[ebp]
  00029	50		 push	 eax
  0002a	8b 06		 mov	 eax, DWORD PTR [esi]
  0002c	8d 4d e4	 lea	 ecx, DWORD PTR $T530668[ebp]
  0002f	51		 push	 ecx
  00030	8b ce		 mov	 ecx, esi
  00032	f3 0f 11 45 f0	 movss	 DWORD PTR $T530669[ebp], xmm0
  00037	f3 0f 11 45 f4	 movss	 DWORD PTR $T530669[ebp+4], xmm0
  0003c	f3 0f 11 45 f8	 movss	 DWORD PTR $T530669[ebp+8], xmm0
  00041	ff 50 24	 call	 DWORD PTR [eax+36]
  00044	8b 4e 04	 mov	 ecx, DWORD PTR [esi+4]
  00047	50		 push	 eax
  00048	8d 86 dc 00 00
	00		 lea	 eax, DWORD PTR [esi+220]
  0004e	50		 push	 eax
  0004f	e8 00 00 00 00	 call	 ?CreateMapEffect@ioPlayStage@@QAEPAVioMapEffect@@ABVioHashString@@ABUD3DXVECTOR3@@1@Z ; ioPlayStage::CreateMapEffect

; 53   : 	if( pEffect )

  00054	85 c0		 test	 eax, eax
  00056	74 0d		 je	 SHORT $LN1@OnCreate

; 54   : 	{				
; 55   : 		m_dwLoopEffectID = pEffect->GetUniqueID();

  00058	8b c8		 mov	 ecx, eax
  0005a	e8 00 00 00 00	 call	 ?GetUniqueID@ioMapEffect@@QBEKXZ ; ioMapEffect::GetUniqueID
  0005f	89 86 ec 00 00
	00		 mov	 DWORD PTR [esi+236], eax
$LN1@OnCreate:

; 56   : 	}
; 57   : }

  00065	8b 4d fc	 mov	 ecx, DWORD PTR __$ArrayPad$[ebp]
  00068	33 cd		 xor	 ecx, ebp
  0006a	5e		 pop	 esi
  0006b	e8 00 00 00 00	 call	 @__security_check_cookie@4
  00070	c9		 leave
  00071	c3		 ret	 0
?OnCreate@ioHunterCoinModeItem@@UAEXXZ ENDP		; ioHunterCoinModeItem::OnCreate
_TEXT	ENDS
PUBLIC	__real@bf800000
PUBLIC	__real@0000000000000000
PUBLIC	__$ArrayPad$
PUBLIC	?SetItemValue@ioHunterCoinModeItem@@QAEXKMMHMMK@Z ; ioHunterCoinModeItem::SetItemValue
EXTRN	__imp_??D@YA?AUD3DXVECTOR3@@ABUD3DXQUATERNION@@ABU0@@Z:PROC
EXTRN	_D3DXQuaternionRotationAxis@12:PROC
EXTRN	__imp_?UNIT_Y@ioMath@@2UD3DXVECTOR3@@A:BYTE
EXTRN	?GetMapHeight@ioPlayStage@@QAEMMMPBVioGameEntity@@_NM1@Z:PROC ; ioPlayStage::GetMapHeight
;	COMDAT __real@bf800000
; File d:\lost saga for developer\youtube\tutorial\source\src\lsclient\iohuntercoinmodeitem.h
CONST	SEGMENT
__real@bf800000 DD 0bf800000r			; -1
CONST	ENDS
;	COMDAT __real@0000000000000000
CONST	SEGMENT
__real@0000000000000000 DQ 00000000000000000r	; 0
; Function compile flags: /Ogsp
; File d:\lost saga for developer\youtube\tutorial\source\src\lsclient\iohuntercoinmodeitem.cpp
CONST	ENDS
;	COMDAT ?SetItemValue@ioHunterCoinModeItem@@QAEXKMMHMMK@Z
_TEXT	SEGMENT
_qtRot$ = -56						; size = 16
$T531671 = -40						; size = 12
_vPos$ = -40						; size = 12
$T530697 = -28						; size = 12
_vDir$ = -16						; size = 12
__$ArrayPad$ = -4					; size = 4
_dwIndex$ = 8						; size = 4
_fXPos$ = 12						; size = 4
_fZPos$ = 16						; size = 4
_iAngle$ = 20						; size = 4
_fSpeed$ = 24						; size = 4
_fPower$ = 28						; size = 4
_dwActivateTime$ = 32					; size = 4
?SetItemValue@ioHunterCoinModeItem@@QAEXKMMHMMK@Z PROC	; ioHunterCoinModeItem::SetItemValue, COMDAT
; _this$ = ecx

; 74   : {

  00000	55		 push	 ebp
  00001	8b ec		 mov	 ebp, esp
  00003	83 ec 38	 sub	 esp, 56			; 00000038H
  00006	a1 00 00 00 00	 mov	 eax, DWORD PTR ___security_cookie
  0000b	33 c5		 xor	 eax, ebp
  0000d	89 45 fc	 mov	 DWORD PTR __$ArrayPad$[ebp], eax

; 75   : 	SetUniqueID( dwIndex );
; 76   : 
; 77   : 	D3DXVECTOR3 vPos = D3DXVECTOR3( fXPos, 0.0f, fZPos );
; 78   : 	vPos.y += m_pCreator->GetMapHeight( vPos.x, vPos.z, NULL );

  00010	0f 57 d2	 xorps	 xmm2, xmm2
  00013	f3 0f 10 4d 10	 movss	 xmm1, DWORD PTR _fZPos$[ebp]
  00018	8b 45 08	 mov	 eax, DWORD PTR _dwIndex$[ebp]
  0001b	f3 0f 10 45 0c	 movss	 xmm0, DWORD PTR _fXPos$[ebp]
  00020	53		 push	 ebx
  00021	56		 push	 esi
  00022	57		 push	 edi
  00023	6a 00		 push	 0
  00025	51		 push	 ecx
  00026	f3 0f 11 14 24	 movss	 DWORD PTR [esp], xmm2
  0002b	6a 01		 push	 1
  0002d	6a 00		 push	 0
  0002f	51		 push	 ecx
  00030	51		 push	 ecx
  00031	8b d9		 mov	 ebx, ecx
  00033	8b 4b 04	 mov	 ecx, DWORD PTR [ebx+4]
  00036	f3 0f 11 4c 24
	04		 movss	 DWORD PTR [esp+4], xmm1
  0003c	89 43 0c	 mov	 DWORD PTR [ebx+12], eax
  0003f	f3 0f 11 45 d8	 movss	 DWORD PTR _vPos$[ebp], xmm0
  00044	f3 0f 11 4d e0	 movss	 DWORD PTR _vPos$[ebp+8], xmm1
  00049	f3 0f 11 04 24	 movss	 DWORD PTR [esp], xmm0
  0004e	e8 00 00 00 00	 call	 ?GetMapHeight@ioPlayStage@@QAEMMMPBVioGameEntity@@_NM1@Z ; ioPlayStage::GetMapHeight
  00053	dc 05 00 00 00
	00		 fadd	 QWORD PTR __real@0000000000000000

; 79   : 	SetPosition( vPos );

  00059	8b 03		 mov	 eax, DWORD PTR [ebx]
  0005b	83 ec 0c	 sub	 esp, 12			; 0000000cH
  0005e	d9 5d dc	 fstp	 DWORD PTR _vPos$[ebp+4]
  00061	8b fc		 mov	 edi, esp
  00063	8d 75 d8	 lea	 esi, DWORD PTR _vPos$[ebp]
  00066	a5		 movsd
  00067	a5		 movsd
  00068	8b cb		 mov	 ecx, ebx
  0006a	a5		 movsd
  0006b	ff 50 1c	 call	 DWORD PTR [eax+28]

; 80   : 	
; 81   : 	D3DXVECTOR3 vDir = D3DXVECTOR3( 0.0f, 0.0f, -1.0f );

  0006e	0f 57 c0	 xorps	 xmm0, xmm0
  00071	f3 0f 11 45 f0	 movss	 DWORD PTR _vDir$[ebp], xmm0
  00076	f3 0f 11 45 f4	 movss	 DWORD PTR _vDir$[ebp+4], xmm0
  0007b	f3 0f 10 05 00
	00 00 00	 movss	 xmm0, DWORD PTR __real@bf800000
  00083	f3 0f 11 45 f8	 movss	 DWORD PTR _vDir$[ebp+8], xmm0

; 82   : 	D3DXQUATERNION qtRot;
; 83   : 	float fAngle = static_cast<float>( iAngle );
; 84   : 	D3DXQuaternionRotationAxis( &qtRot, &ioMath::UNIT_Y, DEGtoRAD(fAngle) );

  00088	66 0f 6e 45 14	 movd	 xmm0, DWORD PTR _iAngle$[ebp]
  0008d	0f 5b c0	 cvtdq2ps xmm0, xmm0
  00090	f3 0f 5a c0	 cvtss2sd xmm0, xmm0
  00094	f2 0f 59 05 00
	00 00 00	 mulsd	 xmm0, QWORD PTR __real@3f91df46a2526c7a
  0009c	51		 push	 ecx
  0009d	f2 0f 5a c0	 cvtsd2ss xmm0, xmm0
  000a1	f3 0f 11 04 24	 movss	 DWORD PTR [esp], xmm0
  000a6	ff 35 00 00 00
	00		 push	 DWORD PTR __imp_?UNIT_Y@ioMath@@2UD3DXVECTOR3@@A
  000ac	8d 45 c8	 lea	 eax, DWORD PTR _qtRot$[ebp]
  000af	50		 push	 eax
  000b0	e8 00 00 00 00	 call	 _D3DXQuaternionRotationAxis@12

; 85   : 	vDir = qtRot * vDir;

  000b5	8d 45 f0	 lea	 eax, DWORD PTR _vDir$[ebp]
  000b8	50		 push	 eax
  000b9	8d 45 c8	 lea	 eax, DWORD PTR _qtRot$[ebp]
  000bc	50		 push	 eax
  000bd	8d 45 e4	 lea	 eax, DWORD PTR $T530697[ebp]
  000c0	50		 push	 eax
  000c1	ff 15 00 00 00
	00		 call	 DWORD PTR __imp_??D@YA?AUD3DXVECTOR3@@ABUD3DXQUATERNION@@ABU0@@Z
  000c7	8b f0		 mov	 esi, eax
  000c9	8d 7d f0	 lea	 edi, DWORD PTR _vDir$[ebp]
  000cc	a5		 movsd
  000cd	a5		 movsd
  000ce	a5		 movsd

; 86   : 	SetDirection( vDir );
; 87   : 
; 88   : 	m_fFloatingPower = fPower;

  000cf	f3 0f 10 45 1c	 movss	 xmm0, DWORD PTR _fPower$[ebp]
  000d4	8b f0		 mov	 esi, eax
  000d6	8d 7d d8	 lea	 edi, DWORD PTR $T531671[ebp]
  000d9	a5		 movsd
  000da	a5		 movsd
  000db	a5		 movsd
  000dc	8d bb f0 00 00
	00		 lea	 edi, DWORD PTR [ebx+240]
  000e2	8d 75 d8	 lea	 esi, DWORD PTR $T531671[ebp]
  000e5	a5		 movsd
  000e6	a5		 movsd
  000e7	f3 0f 11 83 00
	01 00 00	 movss	 DWORD PTR [ebx+256], xmm0

; 89   : 	m_fMoveSpeed = fSpeed;

  000ef	f3 0f 10 45 18	 movss	 xmm0, DWORD PTR _fSpeed$[ebp]
  000f4	83 c4 0c	 add	 esp, 12			; 0000000cH
  000f7	a5		 movsd
  000f8	f3 0f 11 83 fc
	00 00 00	 movss	 DWORD PTR [ebx+252], xmm0

; 90   : 
; 91   : 	m_dwActivateTime = FRAMEGETTIME() + dwActivateTime;

  00100	ff 15 00 00 00
	00		 call	 DWORD PTR __imp_?GetSingleton@ioFrameTimer@@SAAAV1@XZ
  00106	8b c8		 mov	 ecx, eax
  00108	ff 15 00 00 00
	00		 call	 DWORD PTR __imp_?GetLoopSec@ioFrameTimer@@QBEKXZ
  0010e	03 45 20	 add	 eax, DWORD PTR _dwActivateTime$[ebp]
  00111	89 83 10 01 00
	00		 mov	 DWORD PTR [ebx+272], eax

; 92   : 	m_dwCurCollisionTime = m_dwActivateTime + m_dwCollisionTime;

  00117	8b 8b 14 01 00
	00		 mov	 ecx, DWORD PTR [ebx+276]
  0011d	03 c8		 add	 ecx, eax
  0011f	89 8b 18 01 00
	00		 mov	 DWORD PTR [ebx+280], ecx

; 93   : }

  00125	8b 4d fc	 mov	 ecx, DWORD PTR __$ArrayPad$[ebp]
  00128	5f		 pop	 edi
  00129	5e		 pop	 esi
  0012a	33 cd		 xor	 ecx, ebp
  0012c	5b		 pop	 ebx
  0012d	e8 00 00 00 00	 call	 @__security_check_cookie@4
  00132	c9		 leave
  00133	c2 1c 00	 ret	 28			; 0000001cH
?SetItemValue@ioHunterCoinModeItem@@QAEXKMMHMMK@Z ENDP	; ioHunterCoinModeItem::SetItemValue
_TEXT	ENDS
PUBLIC	__$ArrayPad$
PUBLIC	?SetItemValue@ioHunterCoinModeItem@@QAEXKUD3DXVECTOR3@@HMMK@Z ; ioHunterCoinModeItem::SetItemValue
; Function compile flags: /Ogsp
;	COMDAT ?SetItemValue@ioHunterCoinModeItem@@QAEXKUD3DXVECTOR3@@HMMK@Z
_TEXT	SEGMENT
_qtRot$ = -56						; size = 16
$T531699 = -40						; size = 12
$T530713 = -28						; size = 12
_vDir$ = -16						; size = 12
__$ArrayPad$ = -4					; size = 4
_dwIndex$ = 8						; size = 4
_vPos$ = 12						; size = 12
_iAngle$ = 24						; size = 4
_fSpeed$ = 28						; size = 4
_fPower$ = 32						; size = 4
_dwActivateTime$ = 36					; size = 4
?SetItemValue@ioHunterCoinModeItem@@QAEXKUD3DXVECTOR3@@HMMK@Z PROC ; ioHunterCoinModeItem::SetItemValue, COMDAT
; _this$ = ecx

; 96   : {

  00000	55		 push	 ebp
  00001	8b ec		 mov	 ebp, esp
  00003	83 ec 38	 sub	 esp, 56			; 00000038H
  00006	a1 00 00 00 00	 mov	 eax, DWORD PTR ___security_cookie
  0000b	33 c5		 xor	 eax, ebp
  0000d	89 45 fc	 mov	 DWORD PTR __$ArrayPad$[ebp], eax

; 97   : 	SetUniqueID( dwIndex );
; 98   : 
; 99   : 	float fHeight = m_pCreator->GetMapHeight( vPos.x, vPos.z, NULL );	

  00010	0f 57 c0	 xorps	 xmm0, xmm0
  00013	8b 45 08	 mov	 eax, DWORD PTR _dwIndex$[ebp]
  00016	53		 push	 ebx
  00017	56		 push	 esi
  00018	57		 push	 edi
  00019	6a 00		 push	 0
  0001b	51		 push	 ecx
  0001c	f3 0f 11 04 24	 movss	 DWORD PTR [esp], xmm0
  00021	f3 0f 10 45 14	 movss	 xmm0, DWORD PTR _vPos$[ebp+8]
  00026	6a 01		 push	 1
  00028	6a 00		 push	 0
  0002a	51		 push	 ecx
  0002b	51		 push	 ecx
  0002c	8b d9		 mov	 ebx, ecx
  0002e	8b 4b 04	 mov	 ecx, DWORD PTR [ebx+4]
  00031	f3 0f 11 44 24
	04		 movss	 DWORD PTR [esp+4], xmm0
  00037	f3 0f 10 45 0c	 movss	 xmm0, DWORD PTR _vPos$[ebp]
  0003c	89 43 0c	 mov	 DWORD PTR [ebx+12], eax
  0003f	f3 0f 11 04 24	 movss	 DWORD PTR [esp], xmm0
  00044	e8 00 00 00 00	 call	 ?GetMapHeight@ioPlayStage@@QAEMMMPBVioGameEntity@@_NM1@Z ; ioPlayStage::GetMapHeight
  00049	dd d8		 fstp	 ST(0)

; 100  : 	SetPosition( vPos );

  0004b	8b 03		 mov	 eax, DWORD PTR [ebx]
  0004d	83 ec 0c	 sub	 esp, 12			; 0000000cH
  00050	8b fc		 mov	 edi, esp
  00052	8d 75 0c	 lea	 esi, DWORD PTR _vPos$[ebp]
  00055	a5		 movsd
  00056	a5		 movsd
  00057	8b cb		 mov	 ecx, ebx
  00059	a5		 movsd
  0005a	ff 50 1c	 call	 DWORD PTR [eax+28]

; 101  : 
; 102  : 	D3DXVECTOR3 vDir = D3DXVECTOR3( 0.0f, 0.0f, -1.0f );

  0005d	0f 57 c0	 xorps	 xmm0, xmm0
  00060	f3 0f 11 45 f0	 movss	 DWORD PTR _vDir$[ebp], xmm0
  00065	f3 0f 11 45 f4	 movss	 DWORD PTR _vDir$[ebp+4], xmm0
  0006a	f3 0f 10 05 00
	00 00 00	 movss	 xmm0, DWORD PTR __real@bf800000
  00072	f3 0f 11 45 f8	 movss	 DWORD PTR _vDir$[ebp+8], xmm0

; 103  : 	D3DXQUATERNION qtRot;
; 104  : 	float fAngle = static_cast<float>( iAngle );
; 105  : 	D3DXQuaternionRotationAxis( &qtRot, &ioMath::UNIT_Y, DEGtoRAD(fAngle) );

  00077	66 0f 6e 45 18	 movd	 xmm0, DWORD PTR _iAngle$[ebp]
  0007c	0f 5b c0	 cvtdq2ps xmm0, xmm0
  0007f	f3 0f 5a c0	 cvtss2sd xmm0, xmm0
  00083	f2 0f 59 05 00
	00 00 00	 mulsd	 xmm0, QWORD PTR __real@3f91df46a2526c7a
  0008b	51		 push	 ecx
  0008c	f2 0f 5a c0	 cvtsd2ss xmm0, xmm0
  00090	f3 0f 11 04 24	 movss	 DWORD PTR [esp], xmm0
  00095	ff 35 00 00 00
	00		 push	 DWORD PTR __imp_?UNIT_Y@ioMath@@2UD3DXVECTOR3@@A
  0009b	8d 45 c8	 lea	 eax, DWORD PTR _qtRot$[ebp]
  0009e	50		 push	 eax
  0009f	e8 00 00 00 00	 call	 _D3DXQuaternionRotationAxis@12

; 106  : 	vDir = qtRot * vDir;

  000a4	8d 45 f0	 lea	 eax, DWORD PTR _vDir$[ebp]
  000a7	50		 push	 eax
  000a8	8d 45 c8	 lea	 eax, DWORD PTR _qtRot$[ebp]
  000ab	50		 push	 eax
  000ac	8d 45 e4	 lea	 eax, DWORD PTR $T530713[ebp]
  000af	50		 push	 eax
  000b0	ff 15 00 00 00
	00		 call	 DWORD PTR __imp_??D@YA?AUD3DXVECTOR3@@ABUD3DXQUATERNION@@ABU0@@Z
  000b6	8b f0		 mov	 esi, eax
  000b8	8d 7d f0	 lea	 edi, DWORD PTR _vDir$[ebp]
  000bb	a5		 movsd
  000bc	a5		 movsd
  000bd	a5		 movsd

; 107  : 	SetDirection( vDir );
; 108  : 
; 109  : 	m_fFloatingPower = fPower;

  000be	f3 0f 10 45 20	 movss	 xmm0, DWORD PTR _fPower$[ebp]
  000c3	8b f0		 mov	 esi, eax
  000c5	8d 7d d8	 lea	 edi, DWORD PTR $T531699[ebp]
  000c8	a5		 movsd
  000c9	a5		 movsd
  000ca	a5		 movsd
  000cb	8d bb f0 00 00
	00		 lea	 edi, DWORD PTR [ebx+240]
  000d1	8d 75 d8	 lea	 esi, DWORD PTR $T531699[ebp]
  000d4	a5		 movsd
  000d5	a5		 movsd
  000d6	f3 0f 11 83 00
	01 00 00	 movss	 DWORD PTR [ebx+256], xmm0

; 110  : 	m_fMoveSpeed = fSpeed;

  000de	f3 0f 10 45 1c	 movss	 xmm0, DWORD PTR _fSpeed$[ebp]
  000e3	83 c4 0c	 add	 esp, 12			; 0000000cH
  000e6	a5		 movsd
  000e7	f3 0f 11 83 fc
	00 00 00	 movss	 DWORD PTR [ebx+252], xmm0

; 111  : 
; 112  : 	m_dwActivateTime = FRAMEGETTIME() + dwActivateTime;

  000ef	ff 15 00 00 00
	00		 call	 DWORD PTR __imp_?GetSingleton@ioFrameTimer@@SAAAV1@XZ
  000f5	8b c8		 mov	 ecx, eax
  000f7	ff 15 00 00 00
	00		 call	 DWORD PTR __imp_?GetLoopSec@ioFrameTimer@@QBEKXZ
  000fd	03 45 24	 add	 eax, DWORD PTR _dwActivateTime$[ebp]

; 113  : 	m_dwCurCollisionTime = m_dwActivateTime + m_dwCollisionTime;

  00100	8b 8b 14 01 00
	00		 mov	 ecx, DWORD PTR [ebx+276]
  00106	03 c8		 add	 ecx, eax
  00108	89 83 10 01 00
	00		 mov	 DWORD PTR [ebx+272], eax
  0010e	89 8b 18 01 00
	00		 mov	 DWORD PTR [ebx+280], ecx

; 114  : }

  00114	8b 4d fc	 mov	 ecx, DWORD PTR __$ArrayPad$[ebp]
  00117	5f		 pop	 edi
  00118	5e		 pop	 esi
  00119	33 cd		 xor	 ecx, ebp
  0011b	5b		 pop	 ebx
  0011c	e8 00 00 00 00	 call	 @__security_check_cookie@4
  00121	c9		 leave
  00122	c2 20 00	 ret	 32			; 00000020H
?SetItemValue@ioHunterCoinModeItem@@QAEXKUD3DXVECTOR3@@HMMK@Z ENDP ; ioHunterCoinModeItem::SetItemValue
_TEXT	ENDS
PUBLIC	?ProcessWait@ioHunterCoinModeItem@@QAEXXZ	; ioHunterCoinModeItem::ProcessWait
; Function compile flags: /Ogsp
;	COMDAT ?ProcessWait@ioHunterCoinModeItem@@QAEXXZ
_TEXT	SEGMENT
?ProcessWait@ioHunterCoinModeItem@@QAEXXZ PROC		; ioHunterCoinModeItem::ProcessWait, COMDAT
; _this$ = ecx

; 137  : {

  00000	56		 push	 esi
  00001	57		 push	 edi
  00002	8b f9		 mov	 edi, ecx

; 138  : 	if( m_dwActivateTime > 0 && m_dwActivateTime < FRAMEGETTIME() )

  00004	83 bf 10 01 00
	00 00		 cmp	 DWORD PTR [edi+272], 0
  0000b	76 26		 jbe	 SHORT $LN1@ProcessWai
  0000d	ff 15 00 00 00
	00		 call	 DWORD PTR __imp_?GetSingleton@ioFrameTimer@@SAAAV1@XZ
  00013	8b c8		 mov	 ecx, eax
  00015	ff 15 00 00 00
	00		 call	 DWORD PTR __imp_?GetLoopSec@ioFrameTimer@@QBEKXZ
  0001b	39 87 10 01 00
	00		 cmp	 DWORD PTR [edi+272], eax
  00021	73 10		 jae	 SHORT $LN1@ProcessWai

; 139  : 	{
; 140  : 		OnCreate();

  00023	8b 07		 mov	 eax, DWORD PTR [edi]
  00025	8b cf		 mov	 ecx, edi
  00027	ff 50 08	 call	 DWORD PTR [eax+8]

; 141  : 		SetMoveState();

  0002a	8b cf		 mov	 ecx, edi
  0002c	5f		 pop	 edi
  0002d	5e		 pop	 esi
  0002e	e9 00 00 00 00	 jmp	 ?SetMoveState@ioHunterCoinModeItem@@IAEXXZ ; ioHunterCoinModeItem::SetMoveState
$LN1@ProcessWai:
  00033	5f		 pop	 edi
  00034	5e		 pop	 esi

; 142  : 	}
; 143  : }

  00035	c3		 ret	 0
?ProcessWait@ioHunterCoinModeItem@@QAEXXZ ENDP		; ioHunterCoinModeItem::ProcessWait
_TEXT	ENDS
PUBLIC	__$ArrayPad$
PUBLIC	?ProcessMove@ioHunterCoinModeItem@@QAEXXZ	; ioHunterCoinModeItem::ProcessMove
EXTRN	?SetWorldPosition@ioMapEffect@@QAEXABUD3DXVECTOR3@@@Z:PROC ; ioMapEffect::SetWorldPosition
EXTRN	?FindMapEffect@ioPlayStage@@QAEPAVioMapEffect@@K@Z:PROC ; ioPlayStage::FindMapEffect
EXTRN	?GetRoomGravity@ioPlayStage@@QAEMXZ:PROC	; ioPlayStage::GetRoomGravity
EXTRN	__imp_?GetSecPerFrame@ioFrameTimer@@QBEMXZ:PROC
; Function compile flags: /Ogsp
;	COMDAT ?ProcessMove@ioHunterCoinModeItem@@QAEXXZ
_TEXT	SEGMENT
_vMove$ = -48						; size = 12
_fMapHeight$ = -36					; size = 4
_fCurGravity$ = -36					; size = 4
_fTimePerSec$ = -32					; size = 4
$T530738 = -28						; size = 12
_vPos$ = -16						; size = 12
__$ArrayPad$ = -4					; size = 4
?ProcessMove@ioHunterCoinModeItem@@QAEXXZ PROC		; ioHunterCoinModeItem::ProcessMove, COMDAT
; _this$ = ecx

; 146  : {

  00000	55		 push	 ebp
  00001	8b ec		 mov	 ebp, esp
  00003	83 ec 30	 sub	 esp, 48			; 00000030H
  00006	a1 00 00 00 00	 mov	 eax, DWORD PTR ___security_cookie
  0000b	33 c5		 xor	 eax, ebp
  0000d	89 45 fc	 mov	 DWORD PTR __$ArrayPad$[ebp], eax
  00010	53		 push	 ebx
  00011	56		 push	 esi
  00012	8b d9		 mov	 ebx, ecx

; 147  : 	if( !m_pCreator )

  00014	33 f6		 xor	 esi, esi
  00016	57		 push	 edi
  00017	39 73 04	 cmp	 DWORD PTR [ebx+4], esi
  0001a	0f 84 ae 01 00
	00		 je	 $LN1@ProcessMov

; 148  : 		return;
; 149  : 
; 150  : 	float fTimePerSec = g_FrameTimer.GetSecPerFrame();

  00020	ff 15 00 00 00
	00		 call	 DWORD PTR __imp_?GetSingleton@ioFrameTimer@@SAAAV1@XZ
  00026	8b c8		 mov	 ecx, eax
  00028	ff 15 00 00 00
	00		 call	 DWORD PTR __imp_?GetSecPerFrame@ioFrameTimer@@QBEMXZ
  0002e	d9 5d e0	 fstp	 DWORD PTR _fTimePerSec$[ebp]

; 151  : 	float fCurGravity = m_pCreator->GetRoomGravity() * fTimePerSec;

  00031	8b 4b 04	 mov	 ecx, DWORD PTR [ebx+4]
  00034	e8 00 00 00 00	 call	 ?GetRoomGravity@ioPlayStage@@QAEMXZ ; ioPlayStage::GetRoomGravity
  00039	d8 4d e0	 fmul	 DWORD PTR _fTimePerSec$[ebp]

; 152  : 
; 153  : 	D3DXVECTOR3 vMove = m_vMoveDirection * ( m_fCurMoveSpeed * fTimePerSec );

  0003c	f3 0f 10 83 04
	01 00 00	 movss	 xmm0, DWORD PTR [ebx+260]
  00044	f3 0f 10 4d e0	 movss	 xmm1, DWORD PTR _fTimePerSec$[ebp]

; 154  : 
; 155  : 	vMove.y += m_fCurFloatingPower * fTimePerSec;

  00049	f3 0f 10 5d e0	 movss	 xmm3, DWORD PTR _fTimePerSec$[ebp]
  0004e	d9 5d dc	 fstp	 DWORD PTR _fCurGravity$[ebp]
  00051	0f 5a c9	 cvtps2pd xmm1, xmm1
  00054	0f 5a c0	 cvtps2pd xmm0, xmm0
  00057	f2 0f 59 c1	 mulsd	 xmm0, xmm1
  0005b	f3 0f 10 8b f0
	00 00 00	 movss	 xmm1, DWORD PTR [ebx+240]
  00063	0f 5a c9	 cvtps2pd xmm1, xmm1
  00066	66 0f 5a c0	 cvtpd2ps xmm0, xmm0
  0006a	0f 57 d2	 xorps	 xmm2, xmm2
  0006d	f3 0f 5a d0	 cvtss2sd xmm2, xmm0
  00071	f2 0f 59 ca	 mulsd	 xmm1, xmm2
  00075	66 0f 5a c9	 cvtpd2ps xmm1, xmm1

; 156  : 	m_fCurFloatingPower -= fCurGravity;
; 157  : 		
; 158  : 	D3DXVECTOR3 vPos = GetPosition() + vMove;

  00079	8b 03		 mov	 eax, DWORD PTR [ebx]
  0007b	f3 0f 11 4d d0	 movss	 DWORD PTR _vMove$[ebp], xmm1
  00080	f3 0f 10 8b f4
	00 00 00	 movss	 xmm1, DWORD PTR [ebx+244]
  00088	0f 57 d2	 xorps	 xmm2, xmm2
  0008b	f3 0f 5a d0	 cvtss2sd xmm2, xmm0
  0008f	0f 5a c9	 cvtps2pd xmm1, xmm1
  00092	f2 0f 59 ca	 mulsd	 xmm1, xmm2
  00096	f3 0f 10 93 f8
	00 00 00	 movss	 xmm2, DWORD PTR [ebx+248]
  0009e	f3 0f 5a c0	 cvtss2sd xmm0, xmm0
  000a2	0f 5a d2	 cvtps2pd xmm2, xmm2
  000a5	f2 0f 59 d0	 mulsd	 xmm2, xmm0
  000a9	0f 57 c0	 xorps	 xmm0, xmm0
  000ac	66 0f 5a c2	 cvtpd2ps xmm0, xmm2
  000b0	f3 0f 11 45 d8	 movss	 DWORD PTR _vMove$[ebp+8], xmm0
  000b5	f3 0f 10 83 08
	01 00 00	 movss	 xmm0, DWORD PTR [ebx+264]
  000bd	66 0f 5a c9	 cvtpd2ps xmm1, xmm1
  000c1	0f 5a d0	 cvtps2pd xmm2, xmm0
  000c4	f3 0f 5a c9	 cvtss2sd xmm1, xmm1
  000c8	0f 5a db	 cvtps2pd xmm3, xmm3
  000cb	f2 0f 59 d3	 mulsd	 xmm2, xmm3
  000cf	f2 0f 58 d1	 addsd	 xmm2, xmm1
  000d3	0f 57 c9	 xorps	 xmm1, xmm1
  000d6	66 0f 5a ca	 cvtpd2ps xmm1, xmm2
  000da	f3 0f 11 4d d4	 movss	 DWORD PTR _vMove$[ebp+4], xmm1
  000df	f3 0f 10 4d dc	 movss	 xmm1, DWORD PTR _fCurGravity$[ebp]
  000e4	0f 5a c0	 cvtps2pd xmm0, xmm0
  000e7	8d 4d e4	 lea	 ecx, DWORD PTR $T530738[ebp]
  000ea	0f 5a c9	 cvtps2pd xmm1, xmm1
  000ed	f2 0f 5c c1	 subsd	 xmm0, xmm1
  000f1	51		 push	 ecx
  000f2	66 0f 5a c0	 cvtpd2ps xmm0, xmm0
  000f6	8b cb		 mov	 ecx, ebx
  000f8	f3 0f 11 83 08
	01 00 00	 movss	 DWORD PTR [ebx+264], xmm0
  00100	ff 50 24	 call	 DWORD PTR [eax+36]
  00103	f3 0f 10 4d d4	 movss	 xmm1, DWORD PTR _vMove$[ebp+4]
  00108	f3 0f 10 40 04	 movss	 xmm0, DWORD PTR [eax+4]
  0010d	f3 0f 10 55 d8	 movss	 xmm2, DWORD PTR _vMove$[ebp+8]
  00112	f3 0f 10 18	 movss	 xmm3, DWORD PTR [eax]
  00116	0f 5a c9	 cvtps2pd xmm1, xmm1
  00119	0f 5a c0	 cvtps2pd xmm0, xmm0
  0011c	f2 0f 58 c1	 addsd	 xmm0, xmm1
  00120	0f 5a d2	 cvtps2pd xmm2, xmm2

; 159  : 
; 160  : 	float fMapHeight = m_pCreator->GetMapHeight( vPos.x, vPos.z, NULL, false );

  00123	56		 push	 esi
  00124	51		 push	 ecx
  00125	66 0f 5a c8	 cvtpd2ps xmm1, xmm0
  00129	f3 0f 10 40 08	 movss	 xmm0, DWORD PTR [eax+8]
  0012e	0f 5a c0	 cvtps2pd xmm0, xmm0
  00131	f2 0f 58 c2	 addsd	 xmm0, xmm2
  00135	f3 0f 10 55 d0	 movss	 xmm2, DWORD PTR _vMove$[ebp]
  0013a	0f 5a d2	 cvtps2pd xmm2, xmm2
  0013d	0f 5a db	 cvtps2pd xmm3, xmm3
  00140	f3 0f 11 4d f4	 movss	 DWORD PTR _vPos$[ebp+4], xmm1
  00145	0f 57 c9	 xorps	 xmm1, xmm1
  00148	f2 0f 58 d3	 addsd	 xmm2, xmm3
  0014c	66 0f 5a c0	 cvtpd2ps xmm0, xmm0
  00150	f2 0f 5a d2	 cvtsd2ss xmm2, xmm2
  00154	f3 0f 11 0c 24	 movss	 DWORD PTR [esp], xmm1
  00159	f3 0f 11 55 f0	 movss	 DWORD PTR _vPos$[ebp], xmm2
  0015e	f3 0f 11 45 f8	 movss	 DWORD PTR _vPos$[ebp+8], xmm0
  00163	56		 push	 esi
  00164	56		 push	 esi
  00165	51		 push	 ecx
  00166	51		 push	 ecx
  00167	8b 4b 04	 mov	 ecx, DWORD PTR [ebx+4]
  0016a	f3 0f 11 44 24
	04		 movss	 DWORD PTR [esp+4], xmm0
  00170	f3 0f 11 14 24	 movss	 DWORD PTR [esp], xmm2
  00175	e8 00 00 00 00	 call	 ?GetMapHeight@ioPlayStage@@QAEMMMPBVioGameEntity@@_NM1@Z ; ioPlayStage::GetMapHeight
  0017a	d9 5d dc	 fstp	 DWORD PTR _fMapHeight$[ebp]

; 161  : 	if( vPos.y < fMapHeight )

  0017d	f3 0f 10 45 f4	 movss	 xmm0, DWORD PTR _vPos$[ebp+4]
  00182	0f 5a c8	 cvtps2pd xmm1, xmm0
  00185	f3 0f 10 45 dc	 movss	 xmm0, DWORD PTR _fMapHeight$[ebp]
  0018a	0f 5a d0	 cvtps2pd xmm2, xmm0
  0018d	66 0f 2f d1	 comisd	 xmm2, xmm1
  00191	76 0c		 jbe	 SHORT $LN2@ProcessMov

; 162  : 	{			
; 163  : 		vPos.y = fMapHeight;
; 164  : 		SetPingpongState();

  00193	8b cb		 mov	 ecx, ebx
  00195	f3 0f 11 45 f4	 movss	 DWORD PTR _vPos$[ebp+4], xmm0
  0019a	e8 00 00 00 00	 call	 ?SetPingpongState@ioHunterCoinModeItem@@IAEXXZ ; ioHunterCoinModeItem::SetPingpongState
$LN2@ProcessMov:

; 165  : 	}
; 166  : 	SetPosition( vPos );

  0019f	8b 03		 mov	 eax, DWORD PTR [ebx]
  001a1	83 ec 0c	 sub	 esp, 12			; 0000000cH
  001a4	8b fc		 mov	 edi, esp
  001a6	8d 75 f0	 lea	 esi, DWORD PTR _vPos$[ebp]
  001a9	a5		 movsd
  001aa	a5		 movsd
  001ab	8b cb		 mov	 ecx, ebx
  001ad	a5		 movsd
  001ae	ff 50 1c	 call	 DWORD PTR [eax+28]

; 167  : 	
; 168  : 
; 169  : 	ioMapEffect* pMapEffect = m_pCreator->FindMapEffect( m_dwLoopEffectID );

  001b1	ff b3 ec 00 00
	00		 push	 DWORD PTR [ebx+236]
  001b7	8b 4b 04	 mov	 ecx, DWORD PTR [ebx+4]
  001ba	e8 00 00 00 00	 call	 ?FindMapEffect@ioPlayStage@@QAEPAVioMapEffect@@K@Z ; ioPlayStage::FindMapEffect

; 170  : 	if( pMapEffect )

  001bf	85 c0		 test	 eax, eax
  001c1	74 0b		 je	 SHORT $LN1@ProcessMov

; 171  : 	{
; 172  : 		pMapEffect->SetWorldPosition( vPos );

  001c3	8d 4d f0	 lea	 ecx, DWORD PTR _vPos$[ebp]
  001c6	51		 push	 ecx
  001c7	8b c8		 mov	 ecx, eax
  001c9	e8 00 00 00 00	 call	 ?SetWorldPosition@ioMapEffect@@QAEXABUD3DXVECTOR3@@@Z ; ioMapEffect::SetWorldPosition
$LN1@ProcessMov:

; 173  : 	}
; 174  : }

  001ce	8b 4d fc	 mov	 ecx, DWORD PTR __$ArrayPad$[ebp]
  001d1	5f		 pop	 edi
  001d2	5e		 pop	 esi
  001d3	33 cd		 xor	 ecx, ebp
  001d5	5b		 pop	 ebx
  001d6	e8 00 00 00 00	 call	 @__security_check_cookie@4
  001db	c9		 leave
  001dc	c3		 ret	 0
?ProcessMove@ioHunterCoinModeItem@@QAEXXZ ENDP		; ioHunterCoinModeItem::ProcessMove
_TEXT	ENDS
PUBLIC	__$ArrayPad$
PUBLIC	?ProcessPingpong@ioHunterCoinModeItem@@QAEXXZ	; ioHunterCoinModeItem::ProcessPingpong
; Function compile flags: /Ogsp
;	COMDAT ?ProcessPingpong@ioHunterCoinModeItem@@QAEXXZ
_TEXT	SEGMENT
_vMove$ = -48						; size = 12
_fMapHeight$ = -36					; size = 4
_fCurGravity$ = -36					; size = 4
_fTimePerSec$ = -32					; size = 4
$T530753 = -28						; size = 12
_vPos$ = -16						; size = 12
__$ArrayPad$ = -4					; size = 4
?ProcessPingpong@ioHunterCoinModeItem@@QAEXXZ PROC	; ioHunterCoinModeItem::ProcessPingpong, COMDAT
; _this$ = ecx

; 177  : {

  00000	55		 push	 ebp
  00001	8b ec		 mov	 ebp, esp
  00003	83 ec 30	 sub	 esp, 48			; 00000030H
  00006	a1 00 00 00 00	 mov	 eax, DWORD PTR ___security_cookie
  0000b	33 c5		 xor	 eax, ebp
  0000d	89 45 fc	 mov	 DWORD PTR __$ArrayPad$[ebp], eax
  00010	53		 push	 ebx
  00011	56		 push	 esi
  00012	8b d9		 mov	 ebx, ecx

; 178  : 	if( !m_pCreator )

  00014	33 f6		 xor	 esi, esi
  00016	57		 push	 edi
  00017	39 73 04	 cmp	 DWORD PTR [ebx+4], esi
  0001a	0f 84 07 02 00
	00		 je	 $LN1@ProcessPin

; 179  : 		return;
; 180  : 
; 181  : 	float fTimePerSec = g_FrameTimer.GetSecPerFrame();

  00020	ff 15 00 00 00
	00		 call	 DWORD PTR __imp_?GetSingleton@ioFrameTimer@@SAAAV1@XZ
  00026	8b c8		 mov	 ecx, eax
  00028	ff 15 00 00 00
	00		 call	 DWORD PTR __imp_?GetSecPerFrame@ioFrameTimer@@QBEMXZ
  0002e	d9 5d e0	 fstp	 DWORD PTR _fTimePerSec$[ebp]

; 182  : 	float fCurGravity = m_pCreator->GetRoomGravity() * fTimePerSec;

  00031	8b 4b 04	 mov	 ecx, DWORD PTR [ebx+4]
  00034	e8 00 00 00 00	 call	 ?GetRoomGravity@ioPlayStage@@QAEMXZ ; ioPlayStage::GetRoomGravity
  00039	d8 4d e0	 fmul	 DWORD PTR _fTimePerSec$[ebp]

; 183  : 
; 184  : 	D3DXVECTOR3 vMove = m_vMoveDirection * ( m_fCurMoveSpeed * fTimePerSec );

  0003c	f3 0f 10 45 e0	 movss	 xmm0, DWORD PTR _fTimePerSec$[ebp]
  00041	f3 0f 10 8b 04
	01 00 00	 movss	 xmm1, DWORD PTR [ebx+260]

; 185  : 
; 186  : 	vMove.y += m_fCurFloatingPower * fTimePerSec;

  00049	f3 0f 10 5d e0	 movss	 xmm3, DWORD PTR _fTimePerSec$[ebp]
  0004e	d9 5d dc	 fstp	 DWORD PTR _fCurGravity$[ebp]
  00051	0f 5a c9	 cvtps2pd xmm1, xmm1
  00054	0f 5a c0	 cvtps2pd xmm0, xmm0
  00057	f2 0f 59 c1	 mulsd	 xmm0, xmm1
  0005b	f3 0f 10 8b f0
	00 00 00	 movss	 xmm1, DWORD PTR [ebx+240]
  00063	0f 5a c9	 cvtps2pd xmm1, xmm1
  00066	f2 0f 5a c0	 cvtsd2ss xmm0, xmm0
  0006a	0f 57 d2	 xorps	 xmm2, xmm2
  0006d	f3 0f 5a d0	 cvtss2sd xmm2, xmm0
  00071	f2 0f 59 ca	 mulsd	 xmm1, xmm2
  00075	66 0f 5a c9	 cvtpd2ps xmm1, xmm1

; 187  : 	m_fCurFloatingPower -= fCurGravity;
; 188  : 
; 189  : 	D3DXVECTOR3 vPos = GetPosition() + vMove;

  00079	8b 03		 mov	 eax, DWORD PTR [ebx]
  0007b	f3 0f 11 4d d0	 movss	 DWORD PTR _vMove$[ebp], xmm1
  00080	f3 0f 10 8b f4
	00 00 00	 movss	 xmm1, DWORD PTR [ebx+244]
  00088	0f 57 d2	 xorps	 xmm2, xmm2
  0008b	f3 0f 5a d0	 cvtss2sd xmm2, xmm0
  0008f	0f 5a c9	 cvtps2pd xmm1, xmm1
  00092	f2 0f 59 ca	 mulsd	 xmm1, xmm2
  00096	f3 0f 10 93 f8
	00 00 00	 movss	 xmm2, DWORD PTR [ebx+248]
  0009e	f3 0f 5a c0	 cvtss2sd xmm0, xmm0
  000a2	0f 5a d2	 cvtps2pd xmm2, xmm2
  000a5	f2 0f 59 d0	 mulsd	 xmm2, xmm0
  000a9	0f 57 c0	 xorps	 xmm0, xmm0
  000ac	66 0f 5a c2	 cvtpd2ps xmm0, xmm2
  000b0	f3 0f 11 45 d8	 movss	 DWORD PTR _vMove$[ebp+8], xmm0
  000b5	f3 0f 10 83 08
	01 00 00	 movss	 xmm0, DWORD PTR [ebx+264]
  000bd	66 0f 5a c9	 cvtpd2ps xmm1, xmm1
  000c1	0f 5a d0	 cvtps2pd xmm2, xmm0
  000c4	f3 0f 5a c9	 cvtss2sd xmm1, xmm1
  000c8	0f 5a db	 cvtps2pd xmm3, xmm3
  000cb	f2 0f 59 d3	 mulsd	 xmm2, xmm3
  000cf	f2 0f 58 d1	 addsd	 xmm2, xmm1
  000d3	0f 57 c9	 xorps	 xmm1, xmm1
  000d6	66 0f 5a ca	 cvtpd2ps xmm1, xmm2
  000da	f3 0f 11 4d d4	 movss	 DWORD PTR _vMove$[ebp+4], xmm1
  000df	f3 0f 10 4d dc	 movss	 xmm1, DWORD PTR _fCurGravity$[ebp]
  000e4	0f 5a c0	 cvtps2pd xmm0, xmm0
  000e7	8d 4d e4	 lea	 ecx, DWORD PTR $T530753[ebp]
  000ea	0f 5a c9	 cvtps2pd xmm1, xmm1
  000ed	f2 0f 5c c1	 subsd	 xmm0, xmm1
  000f1	51		 push	 ecx
  000f2	66 0f 5a c0	 cvtpd2ps xmm0, xmm0
  000f6	8b cb		 mov	 ecx, ebx
  000f8	f3 0f 11 83 08
	01 00 00	 movss	 DWORD PTR [ebx+264], xmm0
  00100	ff 50 24	 call	 DWORD PTR [eax+36]
  00103	f3 0f 10 4d d4	 movss	 xmm1, DWORD PTR _vMove$[ebp+4]
  00108	f3 0f 10 40 04	 movss	 xmm0, DWORD PTR [eax+4]
  0010d	f3 0f 10 55 d8	 movss	 xmm2, DWORD PTR _vMove$[ebp+8]
  00112	f3 0f 10 18	 movss	 xmm3, DWORD PTR [eax]
  00116	0f 5a c9	 cvtps2pd xmm1, xmm1
  00119	0f 5a c0	 cvtps2pd xmm0, xmm0
  0011c	f2 0f 58 c1	 addsd	 xmm0, xmm1
  00120	0f 5a d2	 cvtps2pd xmm2, xmm2

; 190  : 	float fMapHeight = m_pCreator->GetMapHeight( vPos.x, vPos.z, NULL, false );

  00123	56		 push	 esi
  00124	51		 push	 ecx
  00125	66 0f 5a c8	 cvtpd2ps xmm1, xmm0
  00129	f3 0f 10 40 08	 movss	 xmm0, DWORD PTR [eax+8]
  0012e	0f 5a c0	 cvtps2pd xmm0, xmm0
  00131	f2 0f 58 c2	 addsd	 xmm0, xmm2
  00135	f3 0f 10 55 d0	 movss	 xmm2, DWORD PTR _vMove$[ebp]
  0013a	0f 5a d2	 cvtps2pd xmm2, xmm2
  0013d	0f 5a db	 cvtps2pd xmm3, xmm3
  00140	f3 0f 11 4d f4	 movss	 DWORD PTR _vPos$[ebp+4], xmm1
  00145	0f 57 c9	 xorps	 xmm1, xmm1
  00148	f2 0f 58 d3	 addsd	 xmm2, xmm3
  0014c	66 0f 5a c0	 cvtpd2ps xmm0, xmm0
  00150	f2 0f 5a d2	 cvtsd2ss xmm2, xmm2
  00154	f3 0f 11 0c 24	 movss	 DWORD PTR [esp], xmm1
  00159	f3 0f 11 55 f0	 movss	 DWORD PTR _vPos$[ebp], xmm2
  0015e	f3 0f 11 45 f8	 movss	 DWORD PTR _vPos$[ebp+8], xmm0
  00163	56		 push	 esi
  00164	56		 push	 esi
  00165	51		 push	 ecx
  00166	51		 push	 ecx
  00167	8b 4b 04	 mov	 ecx, DWORD PTR [ebx+4]
  0016a	f3 0f 11 44 24
	04		 movss	 DWORD PTR [esp+4], xmm0
  00170	f3 0f 11 14 24	 movss	 DWORD PTR [esp], xmm2
  00175	e8 00 00 00 00	 call	 ?GetMapHeight@ioPlayStage@@QAEMMMPBVioGameEntity@@_NM1@Z ; ioPlayStage::GetMapHeight
  0017a	d9 5d dc	 fstp	 DWORD PTR _fMapHeight$[ebp]

; 191  : 	if( vPos.y < fMapHeight )

  0017d	f3 0f 10 45 f4	 movss	 xmm0, DWORD PTR _vPos$[ebp+4]
  00182	0f 57 c9	 xorps	 xmm1, xmm1
  00185	0f 5a c8	 cvtps2pd xmm1, xmm0
  00188	f3 0f 10 45 dc	 movss	 xmm0, DWORD PTR _fMapHeight$[ebp]
  0018d	0f 5a d0	 cvtps2pd xmm2, xmm0
  00190	66 0f 2f d1	 comisd	 xmm2, xmm1
  00194	76 62		 jbe	 SHORT $LN2@ProcessPin

; 192  : 	{			
; 193  : 		vPos.y = fMapHeight;
; 194  : 
; 195  : 		m_iCurPingPongCnt++;

  00196	ff 83 0c 01 00
	00		 inc	 DWORD PTR [ebx+268]
  0019c	8b 83 0c 01 00
	00		 mov	 eax, DWORD PTR [ebx+268]
  001a2	f3 0f 11 45 f4	 movss	 DWORD PTR _vPos$[ebp+4], xmm0

; 196  : 		if( m_iCurPingPongCnt >= 8 )

  001a7	83 f8 08	 cmp	 eax, 8
  001aa	7c 09		 jl	 SHORT $LN3@ProcessPin

; 197  : 		{
; 198  : 			SetDelayState();

  001ac	8b cb		 mov	 ecx, ebx
  001ae	e8 00 00 00 00	 call	 ?SetDelayState@ioHunterCoinModeItem@@IAEXXZ ; ioHunterCoinModeItem::SetDelayState

; 199  : 		}
; 200  : 		else

  001b3	eb 43		 jmp	 SHORT $LN2@ProcessPin
$LN3@ProcessPin:

; 201  : 		{
; 202  : 			m_fCurMoveSpeed     = m_fMoveSpeed/m_iCurPingPongCnt;

  001b5	f3 0f 10 8b fc
	00 00 00	 movss	 xmm1, DWORD PTR [ebx+252]
  001bd	0f 57 c0	 xorps	 xmm0, xmm0
  001c0	f3 0f 2a c0	 cvtsi2ss xmm0, eax
  001c4	0f 5a c9	 cvtps2pd xmm1, xmm1
  001c7	0f 5a d0	 cvtps2pd xmm2, xmm0
  001ca	f2 0f 5e ca	 divsd	 xmm1, xmm2
  001ce	66 0f 5a c9	 cvtpd2ps xmm1, xmm1

; 203  : 			m_fCurFloatingPower = m_fFloatingPower/m_iCurPingPongCnt;

  001d2	0f 5a c0	 cvtps2pd xmm0, xmm0
  001d5	f3 0f 11 8b 04
	01 00 00	 movss	 DWORD PTR [ebx+260], xmm1
  001dd	f3 0f 10 8b 00
	01 00 00	 movss	 xmm1, DWORD PTR [ebx+256]
  001e5	0f 5a c9	 cvtps2pd xmm1, xmm1
  001e8	f2 0f 5e c8	 divsd	 xmm1, xmm0
  001ec	66 0f 5a c1	 cvtpd2ps xmm0, xmm1
  001f0	f3 0f 11 83 08
	01 00 00	 movss	 DWORD PTR [ebx+264], xmm0
$LN2@ProcessPin:

; 204  : 		}
; 205  : 	}
; 206  : 	SetPosition( vPos );

  001f8	8b 03		 mov	 eax, DWORD PTR [ebx]
  001fa	83 ec 0c	 sub	 esp, 12			; 0000000cH
  001fd	8b fc		 mov	 edi, esp
  001ff	8d 75 f0	 lea	 esi, DWORD PTR _vPos$[ebp]
  00202	a5		 movsd
  00203	a5		 movsd
  00204	8b cb		 mov	 ecx, ebx
  00206	a5		 movsd
  00207	ff 50 1c	 call	 DWORD PTR [eax+28]

; 207  : 
; 208  : 	ioMapEffect* pMapEffect = m_pCreator->FindMapEffect( m_dwLoopEffectID );

  0020a	ff b3 ec 00 00
	00		 push	 DWORD PTR [ebx+236]
  00210	8b 4b 04	 mov	 ecx, DWORD PTR [ebx+4]
  00213	e8 00 00 00 00	 call	 ?FindMapEffect@ioPlayStage@@QAEPAVioMapEffect@@K@Z ; ioPlayStage::FindMapEffect

; 209  : 	if( pMapEffect )		

  00218	85 c0		 test	 eax, eax
  0021a	74 0b		 je	 SHORT $LN1@ProcessPin

; 210  : 		pMapEffect->SetWorldPosition( vPos );

  0021c	8d 4d f0	 lea	 ecx, DWORD PTR _vPos$[ebp]
  0021f	51		 push	 ecx
  00220	8b c8		 mov	 ecx, eax
  00222	e8 00 00 00 00	 call	 ?SetWorldPosition@ioMapEffect@@QAEXABUD3DXVECTOR3@@@Z ; ioMapEffect::SetWorldPosition
$LN1@ProcessPin:

; 211  : }

  00227	8b 4d fc	 mov	 ecx, DWORD PTR __$ArrayPad$[ebp]
  0022a	5f		 pop	 edi
  0022b	5e		 pop	 esi
  0022c	33 cd		 xor	 ecx, ebp
  0022e	5b		 pop	 ebx
  0022f	e8 00 00 00 00	 call	 @__security_check_cookie@4
  00234	c9		 leave
  00235	c3		 ret	 0
?ProcessPingpong@ioHunterCoinModeItem@@QAEXXZ ENDP	; ioHunterCoinModeItem::ProcessPingpong
_TEXT	ENDS
PUBLIC	__real@4000000000000000
PUBLIC	__real@3fb99999a0000000
PUBLIC	__$ArrayPad$
PUBLIC	?SetWallCollision@ioHunterCoinModeItem@@QAEXABUD3DXVECTOR3@@@Z ; ioHunterCoinModeItem::SetWallCollision
EXTRN	_D3DXVec3Normalize@8:PROC
;	COMDAT __real@4000000000000000
; File c:\program files (x86)\microsoft directx sdk (june 2010)\include\d3dx9math.inl
CONST	SEGMENT
__real@4000000000000000 DQ 04000000000000000r	; 2
CONST	ENDS
;	COMDAT __real@3fb99999a0000000
CONST	SEGMENT
__real@3fb99999a0000000 DQ 03fb99999a0000000r	; 0.1
; Function compile flags: /Ogsp
; File d:\lost saga for developer\youtube\tutorial\source\src\lsclient\iohuntercoinmodeitem.cpp
CONST	ENDS
;	COMDAT ?SetWallCollision@ioHunterCoinModeItem@@QAEXABUD3DXVECTOR3@@@Z
_TEXT	SEGMENT
tv320 = -32						; size = 4
_vReflect$ = -28					; size = 12
_vMoveDir$ = -16					; size = 12
__$ArrayPad$ = -4					; size = 4
_vFaceNrm$ = 8						; size = 4
?SetWallCollision@ioHunterCoinModeItem@@QAEXABUD3DXVECTOR3@@@Z PROC ; ioHunterCoinModeItem::SetWallCollision, COMDAT
; _this$ = ecx

; 276  : {

  00000	55		 push	 ebp
  00001	8b ec		 mov	 ebp, esp
  00003	83 ec 20	 sub	 esp, 32			; 00000020H
  00006	a1 00 00 00 00	 mov	 eax, DWORD PTR ___security_cookie
  0000b	33 c5		 xor	 eax, ebp
  0000d	89 45 fc	 mov	 DWORD PTR __$ArrayPad$[ebp], eax

; 277  : 	D3DXVECTOR3 vMoveDir = m_vMoveDirection;
; 278  : 	vMoveDir.y = 0.0f;

  00010	0f 57 c0	 xorps	 xmm0, xmm0
  00013	53		 push	 ebx
  00014	8b 5d 08	 mov	 ebx, DWORD PTR _vFaceNrm$[ebp]
  00017	56		 push	 esi
  00018	57		 push	 edi
  00019	8d b1 f0 00 00
	00		 lea	 esi, DWORD PTR [ecx+240]
  0001f	89 75 e0	 mov	 DWORD PTR tv320[ebp], esi
  00022	8d 7d f0	 lea	 edi, DWORD PTR _vMoveDir$[ebp]
  00025	a5		 movsd
  00026	a5		 movsd

; 279  : 	D3DXVec3Normalize( &vMoveDir, &vMoveDir );

  00027	8d 45 f0	 lea	 eax, DWORD PTR _vMoveDir$[ebp]
  0002a	50		 push	 eax
  0002b	a5		 movsd
  0002c	50		 push	 eax
  0002d	f3 0f 11 45 f4	 movss	 DWORD PTR _vMoveDir$[ebp+4], xmm0
  00032	e8 00 00 00 00	 call	 _D3DXVec3Normalize@8

; 280  : 
; 281  : 	float fDotValue = D3DXVec3Dot( &vMoveDir, &vFaceNrm );

  00037	f3 0f 10 5d f4	 movss	 xmm3, DWORD PTR _vMoveDir$[ebp+4]
  0003c	f3 0f 10 43 04	 movss	 xmm0, DWORD PTR [ebx+4]
  00041	f3 0f 10 65 f0	 movss	 xmm4, DWORD PTR _vMoveDir$[ebp]
  00046	f3 0f 10 0b	 movss	 xmm1, DWORD PTR [ebx]
  0004a	f3 0f 10 53 08	 movss	 xmm2, DWORD PTR [ebx+8]
  0004f	0f 5a db	 cvtps2pd xmm3, xmm3
  00052	0f 5a c0	 cvtps2pd xmm0, xmm0
  00055	f2 0f 59 c3	 mulsd	 xmm0, xmm3
  00059	0f 5a e4	 cvtps2pd xmm4, xmm4
  0005c	0f 5a d9	 cvtps2pd xmm3, xmm1
  0005f	f2 0f 59 dc	 mulsd	 xmm3, xmm4
  00063	f3 0f 10 65 f8	 movss	 xmm4, DWORD PTR _vMoveDir$[ebp+8]
  00068	f2 0f 58 c3	 addsd	 xmm0, xmm3
  0006c	0f 5a e4	 cvtps2pd xmm4, xmm4
  0006f	0f 5a da	 cvtps2pd xmm3, xmm2
  00072	f2 0f 59 dc	 mulsd	 xmm3, xmm4
  00076	f2 0f 58 c3	 addsd	 xmm0, xmm3
  0007a	66 0f 5a c0	 cvtpd2ps xmm0, xmm0

; 282  : 	if( fDotValue > 0.1f )

  0007e	0f 57 db	 xorps	 xmm3, xmm3
  00081	f3 0f 5a d8	 cvtss2sd xmm3, xmm0
  00085	66 0f 2f 1d 00
	00 00 00	 comisd	 xmm3, QWORD PTR __real@3fb99999a0000000
  0008d	0f 87 91 00 00
	00		 ja	 $LN2@SetWallCol

; 283  : 		return;
; 284  : 
; 285  : 	D3DXVECTOR3 vReflect = vMoveDir - 2.0f * fDotValue * vFaceNrm;

  00093	f3 0f 5a c0	 cvtss2sd xmm0, xmm0
  00097	f2 0f 59 05 00
	00 00 00	 mulsd	 xmm0, QWORD PTR __real@4000000000000000
  0009f	66 0f 5a c0	 cvtpd2ps xmm0, xmm0
  000a3	0f 5a c9	 cvtps2pd xmm1, xmm1
  000a6	0f 5a d2	 cvtps2pd xmm2, xmm2
  000a9	0f 57 db	 xorps	 xmm3, xmm3
  000ac	f3 0f 5a d8	 cvtss2sd xmm3, xmm0
  000b0	f3 0f 5a c0	 cvtss2sd xmm0, xmm0
  000b4	f2 0f 59 d0	 mulsd	 xmm2, xmm0
  000b8	f2 0f 59 cb	 mulsd	 xmm1, xmm3
  000bc	0f 57 c0	 xorps	 xmm0, xmm0
  000bf	66 0f 5a c2	 cvtpd2ps xmm0, xmm2
  000c3	f3 0f 10 55 f0	 movss	 xmm2, DWORD PTR _vMoveDir$[ebp]
  000c8	66 0f 5a c9	 cvtpd2ps xmm1, xmm1
  000cc	f3 0f 5a c9	 cvtss2sd xmm1, xmm1
  000d0	0f 5a d2	 cvtps2pd xmm2, xmm2
  000d3	f2 0f 5c d1	 subsd	 xmm2, xmm1
  000d7	0f 57 c9	 xorps	 xmm1, xmm1
  000da	f2 0f 5a ca	 cvtsd2ss xmm1, xmm2
  000de	f3 0f 11 4d e4	 movss	 DWORD PTR _vReflect$[ebp], xmm1
  000e3	f3 0f 10 4d f8	 movss	 xmm1, DWORD PTR _vMoveDir$[ebp+8]
  000e8	0f 5a c0	 cvtps2pd xmm0, xmm0
  000eb	0f 5a c9	 cvtps2pd xmm1, xmm1
  000ee	f2 0f 5c c8	 subsd	 xmm1, xmm0

; 286  : 	vReflect.y = 0.0f;
; 287  : 	D3DXVec3Normalize( &vReflect, &vReflect );

  000f2	8d 45 e4	 lea	 eax, DWORD PTR _vReflect$[ebp]
  000f5	0f 57 c0	 xorps	 xmm0, xmm0
  000f8	f2 0f 5a c1	 cvtsd2ss xmm0, xmm1
  000fc	50		 push	 eax
  000fd	f3 0f 11 45 ec	 movss	 DWORD PTR _vReflect$[ebp+8], xmm0
  00102	0f 57 c0	 xorps	 xmm0, xmm0
  00105	50		 push	 eax
  00106	f3 0f 11 45 e8	 movss	 DWORD PTR _vReflect$[ebp+4], xmm0
  0010b	e8 00 00 00 00	 call	 _D3DXVec3Normalize@8

; 288  : 
; 289  : 	m_vMoveDirection = vReflect;

  00110	8b 7d e0	 mov	 edi, DWORD PTR tv320[ebp]

; 290  : 	D3DXVec3Normalize( &m_vMoveDirection, &m_vMoveDirection );

  00113	ff 75 e0	 push	 DWORD PTR tv320[ebp]
  00116	8d 75 e4	 lea	 esi, DWORD PTR _vReflect$[ebp]
  00119	ff 75 e0	 push	 DWORD PTR tv320[ebp]
  0011c	a5		 movsd
  0011d	a5		 movsd
  0011e	a5		 movsd
  0011f	e8 00 00 00 00	 call	 _D3DXVec3Normalize@8
$LN2@SetWallCol:

; 291  : }

  00124	8b 4d fc	 mov	 ecx, DWORD PTR __$ArrayPad$[ebp]
  00127	5f		 pop	 edi
  00128	5e		 pop	 esi
  00129	33 cd		 xor	 ecx, ebp
  0012b	5b		 pop	 ebx
  0012c	e8 00 00 00 00	 call	 @__security_check_cookie@4
  00131	c9		 leave
  00132	c2 04 00	 ret	 4
?SetWallCollision@ioHunterCoinModeItem@@QAEXABUD3DXVECTOR3@@@Z ENDP ; ioHunterCoinModeItem::SetWallCollision
_TEXT	ENDS
PUBLIC	_this$GSCopy$
PUBLIC	__$ArrayPad$
PUBLIC	??$LoadString_e@$0M@@ioINILoader@@QAEXAAY0M@$$CBDAAY00$$CBDPADH@Z ; ioINILoader::LoadString_e<12>
EXTRN	__imp_?LoadStringA@ioINILoader@@QAEXPBD0PADH@Z:PROC
; Function compile flags: /Ogsp
; File d:\lost saga for developer\youtube\tutorial\source\src\io3dengine\ioiniloader.h
;	COMDAT ??$LoadString_e@$0M@@ioINILoader@@QAEXAAY0M@$$CBDAAY00$$CBDPADH@Z
_TEXT	SEGMENT
_this$GSCopy$ = -24					; size = 4
__k$ = -20						; size = 12
__$ArrayPad$ = -4					; size = 4
_k$ = 8							; size = 4
_d$ = 12						; size = 4
_b$ = 16						; size = 4
_i$ = 20						; size = 4
??$LoadString_e@$0M@@ioINILoader@@QAEXAAY0M@$$CBDAAY00$$CBDPADH@Z PROC ; ioINILoader::LoadString_e<12>, COMDAT
; _this$ = ecx

; 161  : 	{

  00000	55		 push	 ebp
  00001	8b ec		 mov	 ebp, esp
  00003	83 ec 18	 sub	 esp, 24			; 00000018H
  00006	a1 00 00 00 00	 mov	 eax, DWORD PTR ___security_cookie
  0000b	33 c5		 xor	 eax, ebp
  0000d	89 45 fc	 mov	 DWORD PTR __$ArrayPad$[ebp], eax
  00010	8b 45 08	 mov	 eax, DWORD PTR _k$[ebp]

; 162  : 		_ENCSTR(k, _k);

  00013	8a 10		 mov	 dl, BYTE PTR [eax]
  00015	56		 push	 esi
  00016	8b 75 0c	 mov	 esi, DWORD PTR _d$[ebp]
  00019	57		 push	 edi
  0001a	8b 7d 10	 mov	 edi, DWORD PTR _b$[ebp]
  0001d	89 4d e8	 mov	 DWORD PTR _this$GSCopy$[ebp], ecx
  00020	84 d2		 test	 dl, dl
  00022	0f 84 32 01 00
	00		 je	 $LN96@LoadString
  00028	80 f2 ed	 xor	 dl, -19			; ffffffedH
  0002b	88 55 ec	 mov	 BYTE PTR __k$[ebp], dl
  0002e	8a 50 01	 mov	 dl, BYTE PTR [eax+1]
  00031	84 d2		 test	 dl, dl
  00033	0f 84 1b 01 00
	00		 je	 $LN95@LoadString
  00039	80 f2 ec	 xor	 dl, -20			; ffffffecH
  0003c	88 55 ed	 mov	 BYTE PTR __k$[ebp+1], dl
  0003f	8a 50 02	 mov	 dl, BYTE PTR [eax+2]
  00042	84 d2		 test	 dl, dl
  00044	0f 84 04 01 00
	00		 je	 $LN94@LoadString
  0004a	b1 eb		 mov	 cl, -21			; ffffffebH
  0004c	32 d1		 xor	 dl, cl
  0004e	88 55 ee	 mov	 BYTE PTR __k$[ebp+2], dl
  00051	8a 50 03	 mov	 dl, BYTE PTR [eax+3]
  00054	84 d2		 test	 dl, dl
  00056	0f 84 ec 00 00
	00		 je	 $LN93@LoadString
  0005c	80 f2 ea	 xor	 dl, -22			; ffffffeaH
  0005f	88 55 ef	 mov	 BYTE PTR __k$[ebp+3], dl
  00062	8a 50 04	 mov	 dl, BYTE PTR [eax+4]
  00065	84 d2		 test	 dl, dl
  00067	0f 84 d5 00 00
	00		 je	 $LN92@LoadString
  0006d	80 f2 ed	 xor	 dl, -19			; ffffffedH
  00070	88 55 f0	 mov	 BYTE PTR __k$[ebp+4], dl
  00073	8a 50 05	 mov	 dl, BYTE PTR [eax+5]
  00076	84 d2		 test	 dl, dl
  00078	0f 84 be 00 00
	00		 je	 $LN91@LoadString
  0007e	80 f2 ec	 xor	 dl, -20			; ffffffecH
  00081	88 55 f1	 mov	 BYTE PTR __k$[ebp+5], dl
  00084	8a 50 06	 mov	 dl, BYTE PTR [eax+6]
  00087	84 d2		 test	 dl, dl
  00089	0f 84 a8 00 00
	00		 je	 $LN90@LoadString
  0008f	32 d1		 xor	 dl, cl
  00091	88 55 f2	 mov	 BYTE PTR __k$[ebp+6], dl
  00094	8a 50 07	 mov	 dl, BYTE PTR [eax+7]
  00097	84 d2		 test	 dl, dl
  00099	0f 84 92 00 00
	00		 je	 $LN89@LoadString
  0009f	80 f2 ea	 xor	 dl, -22			; ffffffeaH
  000a2	88 55 f3	 mov	 BYTE PTR __k$[ebp+7], dl
  000a5	8a 50 08	 mov	 dl, BYTE PTR [eax+8]
  000a8	84 d2		 test	 dl, dl
  000aa	74 7f		 je	 SHORT $LN88@LoadString
  000ac	80 f2 ed	 xor	 dl, -19			; ffffffedH
  000af	88 55 f4	 mov	 BYTE PTR __k$[ebp+8], dl
  000b2	8a 50 09	 mov	 dl, BYTE PTR [eax+9]
  000b5	84 d2		 test	 dl, dl
  000b7	74 6c		 je	 SHORT $LN87@LoadString
  000b9	80 f2 ec	 xor	 dl, -20			; ffffffecH
  000bc	88 55 f5	 mov	 BYTE PTR __k$[ebp+9], dl
  000bf	8a 50 0a	 mov	 dl, BYTE PTR [eax+10]
  000c2	84 d2		 test	 dl, dl
  000c4	74 5a		 je	 SHORT $LN86@LoadString
  000c6	32 d1		 xor	 dl, cl
  000c8	80 78 0b 00	 cmp	 BYTE PTR [eax+11], 0
  000cc	88 55 f6	 mov	 BYTE PTR __k$[ebp+10], dl
  000cf	0f 84 89 00 00
	00		 je	 $LN111@LoadString
  000d5	8a 50 0c	 mov	 dl, BYTE PTR [eax+12]
  000d8	84 d2		 test	 dl, dl
  000da	74 3e		 je	 SHORT $LN84@LoadString
  000dc	80 f2 ed	 xor	 dl, -19			; ffffffedH
  000df	88 55 f8	 mov	 BYTE PTR __k$[ebp+12], dl
  000e2	8a 50 0d	 mov	 dl, BYTE PTR [eax+13]
  000e5	84 d2		 test	 dl, dl
  000e7	74 2b		 je	 SHORT $LN83@LoadString
  000e9	80 f2 ec	 xor	 dl, -20			; ffffffecH
  000ec	88 55 f9	 mov	 BYTE PTR __k$[ebp+13], dl
  000ef	8a 50 0e	 mov	 dl, BYTE PTR [eax+14]
  000f2	84 d2		 test	 dl, dl
  000f4	74 19		 je	 SHORT $LN82@LoadString
  000f6	8a 40 0f	 mov	 al, BYTE PTR [eax+15]
  000f9	32 d1		 xor	 dl, cl
  000fb	88 55 fa	 mov	 BYTE PTR __k$[ebp+14], dl
  000fe	84 c0		 test	 al, al
  00100	74 07		 je	 SHORT $LN81@LoadString
  00102	34 ea		 xor	 al, -22			; ffffffeaH
  00104	88 45 fb	 mov	 BYTE PTR __k$[ebp+15], al
  00107	eb 55		 jmp	 SHORT $LN111@LoadString
$LN81@LoadString:
  00109	c6 45 fb ea	 mov	 BYTE PTR __k$[ebp+15], -22 ; ffffffeaH
  0010d	eb 4f		 jmp	 SHORT $LN111@LoadString
$LN82@LoadString:
  0010f	88 4d fa	 mov	 BYTE PTR __k$[ebp+14], cl
  00112	eb 4a		 jmp	 SHORT $LN111@LoadString
$LN83@LoadString:
  00114	c6 45 f9 ec	 mov	 BYTE PTR __k$[ebp+13], -20 ; ffffffecH
  00118	eb 44		 jmp	 SHORT $LN111@LoadString
$LN84@LoadString:
  0011a	c6 45 f8 ed	 mov	 BYTE PTR __k$[ebp+12], -19 ; ffffffedH
  0011e	eb 3e		 jmp	 SHORT $LN111@LoadString
$LN86@LoadString:
  00120	88 4d f6	 mov	 BYTE PTR __k$[ebp+10], cl
  00123	eb 39		 jmp	 SHORT $LN111@LoadString
$LN87@LoadString:
  00125	c6 45 f5 ec	 mov	 BYTE PTR __k$[ebp+9], -20 ; ffffffecH
  00129	eb 33		 jmp	 SHORT $LN111@LoadString
$LN88@LoadString:
  0012b	c6 45 f4 ed	 mov	 BYTE PTR __k$[ebp+8], -19 ; ffffffedH
  0012f	eb 2d		 jmp	 SHORT $LN111@LoadString
$LN89@LoadString:
  00131	c6 45 f3 ea	 mov	 BYTE PTR __k$[ebp+7], -22 ; ffffffeaH
  00135	eb 27		 jmp	 SHORT $LN111@LoadString
$LN90@LoadString:
  00137	88 4d f2	 mov	 BYTE PTR __k$[ebp+6], cl
  0013a	eb 22		 jmp	 SHORT $LN111@LoadString
$LN91@LoadString:
  0013c	c6 45 f1 ec	 mov	 BYTE PTR __k$[ebp+5], -20 ; ffffffecH
  00140	eb 1c		 jmp	 SHORT $LN111@LoadString
$LN92@LoadString:
  00142	c6 45 f0 ed	 mov	 BYTE PTR __k$[ebp+4], -19 ; ffffffedH
  00146	eb 16		 jmp	 SHORT $LN111@LoadString
$LN93@LoadString:
  00148	c6 45 ef ea	 mov	 BYTE PTR __k$[ebp+3], -22 ; ffffffeaH
  0014c	eb 10		 jmp	 SHORT $LN111@LoadString
$LN94@LoadString:
  0014e	c6 45 ee eb	 mov	 BYTE PTR __k$[ebp+2], -21 ; ffffffebH
  00152	eb 0a		 jmp	 SHORT $LN111@LoadString
$LN95@LoadString:
  00154	c6 45 ed ec	 mov	 BYTE PTR __k$[ebp+1], -20 ; ffffffecH
  00158	eb 04		 jmp	 SHORT $LN111@LoadString
$LN96@LoadString:
  0015a	c6 45 ec ed	 mov	 BYTE PTR __k$[ebp], -19	; ffffffedH
$LN111@LoadString:
  0015e	6a 02		 push	 2
  00160	8d 45 ec	 lea	 eax, DWORD PTR __k$[ebp]
  00163	c6 45 f7 00	 mov	 BYTE PTR __k$[ebp+11], 0
  00167	5a		 pop	 edx
$LL104@LoadString:
  00168	81 30 ed ec eb
	ea		 xor	 DWORD PTR [eax], -353637139 ; eaebecedH
  0016e	83 c0 04	 add	 eax, 4
  00171	4a		 dec	 edx
  00172	75 f4		 jne	 SHORT $LL104@LoadString
  00174	6a 08		 push	 8
  00176	58		 pop	 eax
$LL101@LoadString:
  00177	8b c8		 mov	 ecx, eax
  00179	81 e1 03 00 00
	80		 and	 ecx, -2147483645	; 80000003H
  0017f	79 05		 jns	 SHORT $LN112@LoadString
  00181	49		 dec	 ecx
  00182	83 c9 fc	 or	 ecx, -4			; fffffffcH
  00185	41		 inc	 ecx
$LN112@LoadString:
  00186	b2 ed		 mov	 dl, -19			; ffffffedH
  00188	2a d1		 sub	 dl, cl
  0018a	30 54 05 ec	 xor	 BYTE PTR __k$[ebp+eax], dl
  0018e	40		 inc	 eax
  0018f	83 f8 0b	 cmp	 eax, 11			; 0000000bH
  00192	7c e3		 jl	 SHORT $LL101@LoadString

; 163  : 		LoadString(_k, d, b, i);

  00194	ff 75 14	 push	 DWORD PTR _i$[ebp]
  00197	8b 4d e8	 mov	 ecx, DWORD PTR _this$GSCopy$[ebp]
  0019a	57		 push	 edi
  0019b	56		 push	 esi
  0019c	8d 45 ec	 lea	 eax, DWORD PTR __k$[ebp]
  0019f	50		 push	 eax
  001a0	ff 15 00 00 00
	00		 call	 DWORD PTR __imp_?LoadStringA@ioINILoader@@QAEXPBD0PADH@Z

; 164  : 	}

  001a6	8b 4d fc	 mov	 ecx, DWORD PTR __$ArrayPad$[ebp]
  001a9	5f		 pop	 edi
  001aa	33 cd		 xor	 ecx, ebp
  001ac	5e		 pop	 esi
  001ad	e8 00 00 00 00	 call	 @__security_check_cookie@4
  001b2	c9		 leave
  001b3	c2 10 00	 ret	 16			; 00000010H
??$LoadString_e@$0M@@ioINILoader@@QAEXAAY0M@$$CBDAAY00$$CBDPADH@Z ENDP ; ioINILoader::LoadString_e<12>
_TEXT	ENDS
PUBLIC	__$ArrayPad$
PUBLIC	??$LoadInt_e@$0P@@ioINILoader@@QAEHAAY0P@$$CBDH@Z ; ioINILoader::LoadInt_e<15>
EXTRN	__imp_?LoadInt@ioINILoader@@QAEHPBDH@Z:PROC
; Function compile flags: /Ogsp
;	COMDAT ??$LoadInt_e@$0P@@ioINILoader@@QAEHAAY0P@$$CBDH@Z
_TEXT	SEGMENT
__k$ = -24						; size = 15
__$ArrayPad$ = -4					; size = 4
_k$ = 8							; size = 4
_i$ = 12						; size = 4
??$LoadInt_e@$0P@@ioINILoader@@QAEHAAY0P@$$CBDH@Z PROC	; ioINILoader::LoadInt_e<15>, COMDAT
; _this$ = ecx

; 118  : 	{

  00000	55		 push	 ebp
  00001	8b ec		 mov	 ebp, esp
  00003	83 ec 18	 sub	 esp, 24			; 00000018H
  00006	a1 00 00 00 00	 mov	 eax, DWORD PTR ___security_cookie
  0000b	33 c5		 xor	 eax, ebp
  0000d	89 45 fc	 mov	 DWORD PTR __$ArrayPad$[ebp], eax
  00010	8b 45 08	 mov	 eax, DWORD PTR _k$[ebp]

; 119  : 		_ENCSTR(k, _k);

  00013	8a 10		 mov	 dl, BYTE PTR [eax]
  00015	56		 push	 esi
  00016	8b f1		 mov	 esi, ecx
  00018	84 d2		 test	 dl, dl
  0001a	0f 84 75 01 00
	00		 je	 $LN96@LoadInt_e
  00020	80 f2 ed	 xor	 dl, -19			; ffffffedH
  00023	88 55 e8	 mov	 BYTE PTR __k$[ebp], dl
  00026	8a 50 01	 mov	 dl, BYTE PTR [eax+1]
  00029	84 d2		 test	 dl, dl
  0002b	0f 84 5e 01 00
	00		 je	 $LN95@LoadInt_e
  00031	b1 ec		 mov	 cl, -20			; ffffffecH
  00033	32 d1		 xor	 dl, cl
  00035	88 55 e9	 mov	 BYTE PTR __k$[ebp+1], dl
  00038	8a 50 02	 mov	 dl, BYTE PTR [eax+2]
  0003b	84 d2		 test	 dl, dl
  0003d	0f 84 46 01 00
	00		 je	 $LN94@LoadInt_e
  00043	80 f2 eb	 xor	 dl, -21			; ffffffebH
  00046	88 55 ea	 mov	 BYTE PTR __k$[ebp+2], dl
  00049	8a 50 03	 mov	 dl, BYTE PTR [eax+3]
  0004c	84 d2		 test	 dl, dl
  0004e	0f 84 2f 01 00
	00		 je	 $LN93@LoadInt_e
  00054	80 f2 ea	 xor	 dl, -22			; ffffffeaH
  00057	88 55 eb	 mov	 BYTE PTR __k$[ebp+3], dl
  0005a	8a 50 04	 mov	 dl, BYTE PTR [eax+4]
  0005d	84 d2		 test	 dl, dl
  0005f	0f 84 18 01 00
	00		 je	 $LN92@LoadInt_e
  00065	80 f2 ed	 xor	 dl, -19			; ffffffedH
  00068	88 55 ec	 mov	 BYTE PTR __k$[ebp+4], dl
  0006b	8a 50 05	 mov	 dl, BYTE PTR [eax+5]
  0006e	84 d2		 test	 dl, dl
  00070	0f 84 02 01 00
	00		 je	 $LN91@LoadInt_e
  00076	32 d1		 xor	 dl, cl
  00078	88 55 ed	 mov	 BYTE PTR __k$[ebp+5], dl
  0007b	8a 50 06	 mov	 dl, BYTE PTR [eax+6]
  0007e	84 d2		 test	 dl, dl
  00080	0f 84 ec 00 00
	00		 je	 $LN90@LoadInt_e
  00086	80 f2 eb	 xor	 dl, -21			; ffffffebH
  00089	88 55 ee	 mov	 BYTE PTR __k$[ebp+6], dl
  0008c	8a 50 07	 mov	 dl, BYTE PTR [eax+7]
  0008f	84 d2		 test	 dl, dl
  00091	0f 84 d5 00 00
	00		 je	 $LN89@LoadInt_e
  00097	80 f2 ea	 xor	 dl, -22			; ffffffeaH
  0009a	88 55 ef	 mov	 BYTE PTR __k$[ebp+7], dl
  0009d	8a 50 08	 mov	 dl, BYTE PTR [eax+8]
  000a0	84 d2		 test	 dl, dl
  000a2	0f 84 be 00 00
	00		 je	 $LN88@LoadInt_e
  000a8	80 f2 ed	 xor	 dl, -19			; ffffffedH
  000ab	88 55 f0	 mov	 BYTE PTR __k$[ebp+8], dl
  000ae	8a 50 09	 mov	 dl, BYTE PTR [eax+9]
  000b1	84 d2		 test	 dl, dl
  000b3	0f 84 a8 00 00
	00		 je	 $LN87@LoadInt_e
  000b9	32 d1		 xor	 dl, cl
  000bb	88 55 f1	 mov	 BYTE PTR __k$[ebp+9], dl
  000be	8a 50 0a	 mov	 dl, BYTE PTR [eax+10]
  000c1	84 d2		 test	 dl, dl
  000c3	0f 84 92 00 00
	00		 je	 $LN86@LoadInt_e
  000c9	80 f2 eb	 xor	 dl, -21			; ffffffebH
  000cc	88 55 f2	 mov	 BYTE PTR __k$[ebp+10], dl
  000cf	8a 50 0b	 mov	 dl, BYTE PTR [eax+11]
  000d2	84 d2		 test	 dl, dl
  000d4	74 7f		 je	 SHORT $LN85@LoadInt_e
  000d6	80 f2 ea	 xor	 dl, -22			; ffffffeaH
  000d9	88 55 f3	 mov	 BYTE PTR __k$[ebp+11], dl
  000dc	8a 50 0c	 mov	 dl, BYTE PTR [eax+12]
  000df	84 d2		 test	 dl, dl
  000e1	74 6c		 je	 SHORT $LN84@LoadInt_e
  000e3	80 f2 ed	 xor	 dl, -19			; ffffffedH
  000e6	88 55 f4	 mov	 BYTE PTR __k$[ebp+12], dl
  000e9	8a 50 0d	 mov	 dl, BYTE PTR [eax+13]
  000ec	84 d2		 test	 dl, dl
  000ee	74 5a		 je	 SHORT $LN83@LoadInt_e
  000f0	32 d1		 xor	 dl, cl
  000f2	80 78 0e 00	 cmp	 BYTE PTR [eax+14], 0
  000f6	88 55 f5	 mov	 BYTE PTR __k$[ebp+13], dl
  000f9	0f 84 9a 00 00
	00		 je	 $LN1@LoadInt_e
  000ff	8a 50 0f	 mov	 dl, BYTE PTR [eax+15]
  00102	84 d2		 test	 dl, dl
  00104	74 3e		 je	 SHORT $LN81@LoadInt_e
  00106	80 f2 ea	 xor	 dl, -22			; ffffffeaH
  00109	88 55 f7	 mov	 BYTE PTR __k$[ebp+15], dl
  0010c	8a 50 10	 mov	 dl, BYTE PTR [eax+16]
  0010f	84 d2		 test	 dl, dl
  00111	74 2b		 je	 SHORT $LN80@LoadInt_e
  00113	80 f2 ed	 xor	 dl, -19			; ffffffedH
  00116	88 55 f8	 mov	 BYTE PTR __k$[ebp+16], dl
  00119	8a 50 11	 mov	 dl, BYTE PTR [eax+17]
  0011c	84 d2		 test	 dl, dl
  0011e	74 19		 je	 SHORT $LN79@LoadInt_e
  00120	8a 40 12	 mov	 al, BYTE PTR [eax+18]
  00123	32 d1		 xor	 dl, cl
  00125	88 55 f9	 mov	 BYTE PTR __k$[ebp+17], dl
  00128	84 c0		 test	 al, al
  0012a	74 07		 je	 SHORT $LN78@LoadInt_e
  0012c	34 eb		 xor	 al, -21			; ffffffebH
  0012e	88 45 fa	 mov	 BYTE PTR __k$[ebp+18], al
  00131	eb 66		 jmp	 SHORT $LN1@LoadInt_e
$LN78@LoadInt_e:
  00133	c6 45 fa eb	 mov	 BYTE PTR __k$[ebp+18], -21 ; ffffffebH
  00137	eb 60		 jmp	 SHORT $LN1@LoadInt_e
$LN79@LoadInt_e:
  00139	88 4d f9	 mov	 BYTE PTR __k$[ebp+17], cl
  0013c	eb 5b		 jmp	 SHORT $LN1@LoadInt_e
$LN80@LoadInt_e:
  0013e	c6 45 f8 ed	 mov	 BYTE PTR __k$[ebp+16], -19 ; ffffffedH
  00142	eb 55		 jmp	 SHORT $LN1@LoadInt_e
$LN81@LoadInt_e:
  00144	c6 45 f7 ea	 mov	 BYTE PTR __k$[ebp+15], -22 ; ffffffeaH
  00148	eb 4f		 jmp	 SHORT $LN1@LoadInt_e
$LN83@LoadInt_e:
  0014a	88 4d f5	 mov	 BYTE PTR __k$[ebp+13], cl
  0014d	eb 4a		 jmp	 SHORT $LN1@LoadInt_e
$LN84@LoadInt_e:
  0014f	c6 45 f4 ed	 mov	 BYTE PTR __k$[ebp+12], -19 ; ffffffedH
  00153	eb 44		 jmp	 SHORT $LN1@LoadInt_e
$LN85@LoadInt_e:
  00155	c6 45 f3 ea	 mov	 BYTE PTR __k$[ebp+11], -22 ; ffffffeaH
  00159	eb 3e		 jmp	 SHORT $LN1@LoadInt_e
$LN86@LoadInt_e:
  0015b	c6 45 f2 eb	 mov	 BYTE PTR __k$[ebp+10], -21 ; ffffffebH
  0015f	eb 38		 jmp	 SHORT $LN1@LoadInt_e
$LN87@LoadInt_e:
  00161	88 4d f1	 mov	 BYTE PTR __k$[ebp+9], cl
  00164	eb 33		 jmp	 SHORT $LN1@LoadInt_e
$LN88@LoadInt_e:
  00166	c6 45 f0 ed	 mov	 BYTE PTR __k$[ebp+8], -19 ; ffffffedH
  0016a	eb 2d		 jmp	 SHORT $LN1@LoadInt_e
$LN89@LoadInt_e:
  0016c	c6 45 ef ea	 mov	 BYTE PTR __k$[ebp+7], -22 ; ffffffeaH
  00170	eb 27		 jmp	 SHORT $LN1@LoadInt_e
$LN90@LoadInt_e:
  00172	c6 45 ee eb	 mov	 BYTE PTR __k$[ebp+6], -21 ; ffffffebH
  00176	eb 21		 jmp	 SHORT $LN1@LoadInt_e
$LN91@LoadInt_e:
  00178	88 4d ed	 mov	 BYTE PTR __k$[ebp+5], cl
  0017b	eb 1c		 jmp	 SHORT $LN1@LoadInt_e
$LN92@LoadInt_e:
  0017d	c6 45 ec ed	 mov	 BYTE PTR __k$[ebp+4], -19 ; ffffffedH
  00181	eb 16		 jmp	 SHORT $LN1@LoadInt_e
$LN93@LoadInt_e:
  00183	c6 45 eb ea	 mov	 BYTE PTR __k$[ebp+3], -22 ; ffffffeaH
  00187	eb 10		 jmp	 SHORT $LN1@LoadInt_e
$LN94@LoadInt_e:
  00189	c6 45 ea eb	 mov	 BYTE PTR __k$[ebp+2], -21 ; ffffffebH
  0018d	eb 0a		 jmp	 SHORT $LN1@LoadInt_e
$LN95@LoadInt_e:
  0018f	c6 45 e9 ec	 mov	 BYTE PTR __k$[ebp+1], -20 ; ffffffecH
  00193	eb 04		 jmp	 SHORT $LN1@LoadInt_e
$LN96@LoadInt_e:
  00195	c6 45 e8 ed	 mov	 BYTE PTR __k$[ebp], -19	; ffffffedH
$LN1@LoadInt_e:
  00199	6a 03		 push	 3
  0019b	8d 45 e8	 lea	 eax, DWORD PTR __k$[ebp]
  0019e	c6 45 f6 00	 mov	 BYTE PTR __k$[ebp+14], 0
  001a2	5a		 pop	 edx
$LL104@LoadInt_e:
  001a3	81 30 ed ec eb
	ea		 xor	 DWORD PTR [eax], -353637139 ; eaebecedH
  001a9	83 c0 04	 add	 eax, 4
  001ac	4a		 dec	 edx
  001ad	75 f4		 jne	 SHORT $LL104@LoadInt_e
  001af	6a 0c		 push	 12			; 0000000cH
  001b1	58		 pop	 eax
$LL101@LoadInt_e:
  001b2	8b c8		 mov	 ecx, eax
  001b4	81 e1 03 00 00
	80		 and	 ecx, -2147483645	; 80000003H
  001ba	79 05		 jns	 SHORT $LN111@LoadInt_e
  001bc	49		 dec	 ecx
  001bd	83 c9 fc	 or	 ecx, -4			; fffffffcH
  001c0	41		 inc	 ecx
$LN111@LoadInt_e:
  001c1	b2 ed		 mov	 dl, -19			; ffffffedH
  001c3	2a d1		 sub	 dl, cl
  001c5	30 54 05 e8	 xor	 BYTE PTR __k$[ebp+eax], dl
  001c9	40		 inc	 eax
  001ca	83 f8 0e	 cmp	 eax, 14			; 0000000eH
  001cd	7c e3		 jl	 SHORT $LL101@LoadInt_e

; 120  : 		return LoadInt(_k, i);

  001cf	ff 75 0c	 push	 DWORD PTR _i$[ebp]
  001d2	8d 45 e8	 lea	 eax, DWORD PTR __k$[ebp]
  001d5	50		 push	 eax
  001d6	8b ce		 mov	 ecx, esi
  001d8	ff 15 00 00 00
	00		 call	 DWORD PTR __imp_?LoadInt@ioINILoader@@QAEHPBDH@Z

; 121  : 	}

  001de	8b 4d fc	 mov	 ecx, DWORD PTR __$ArrayPad$[ebp]
  001e1	33 cd		 xor	 ecx, ebp
  001e3	5e		 pop	 esi
  001e4	e8 00 00 00 00	 call	 @__security_check_cookie@4
  001e9	c9		 leave
  001ea	c2 08 00	 ret	 8
??$LoadInt_e@$0P@@ioINILoader@@QAEHAAY0P@$$CBDH@Z ENDP	; ioINILoader::LoadInt_e<15>
_TEXT	ENDS
PUBLIC	??_C@_00CNPNBAHC@?$AA@				; `string'
PUBLIC	__$ArrayPad$
EXTRN	__imp_??4ioHashString@@QAEAAV0@PBD@Z:PROC
EXTRN	?LoadProperty@ioModeItem@@UAEXAAVioINILoader@@@Z:PROC ; ioModeItem::LoadProperty
EXTRN	_memset:PROC
;	COMDAT ??_C@_00CNPNBAHC@?$AA@
; File d:\lost saga for developer\youtube\tutorial\source\src\lsclient\stringprotect.h
CONST	SEGMENT
??_C@_00CNPNBAHC@?$AA@ DB 00H				; `string'
; Function compile flags: /Ogsp
; File d:\lost saga for developer\youtube\tutorial\source\src\lsclient\iohuntercoinmodeitem.cpp
CONST	ENDS
;	COMDAT ?LoadProperty@ioHunterCoinModeItem@@UAEXAAVioINILoader@@@Z
_TEXT	SEGMENT
_szBuf$ = -284						; size = 260
__k$532002 = -24					; size = 15
__k$531877 = -24					; size = 12
__$ArrayPad$ = -4					; size = 4
_rkLoader$ = 8						; size = 4
?LoadProperty@ioHunterCoinModeItem@@UAEXAAVioINILoader@@@Z PROC ; ioHunterCoinModeItem::LoadProperty, COMDAT
; _this$ = ecx

; 32   : {

  00000	55		 push	 ebp
  00001	8b ec		 mov	 ebp, esp
  00003	81 ec 1c 01 00
	00		 sub	 esp, 284		; 0000011cH
  00009	a1 00 00 00 00	 mov	 eax, DWORD PTR ___security_cookie
  0000e	33 c5		 xor	 eax, ebp
  00010	89 45 fc	 mov	 DWORD PTR __$ArrayPad$[ebp], eax
  00013	53		 push	 ebx
  00014	56		 push	 esi
  00015	57		 push	 edi
  00016	8b 7d 08	 mov	 edi, DWORD PTR _rkLoader$[ebp]

; 33   : 	ioModeItem::LoadProperty( rkLoader );

  00019	57		 push	 edi
  0001a	8b f1		 mov	 esi, ecx
  0001c	e8 00 00 00 00	 call	 ?LoadProperty@ioModeItem@@UAEXAAVioINILoader@@@Z ; ioModeItem::LoadProperty

; 34   : 
; 35   : 	char szBuf[MAX_PATH] = "";

  00021	33 db		 xor	 ebx, ebx
  00023	68 03 01 00 00	 push	 259			; 00000103H
  00028	8d 85 e5 fe ff
	ff		 lea	 eax, DWORD PTR _szBuf$[ebp+1]
  0002e	53		 push	 ebx
  0002f	50		 push	 eax
  00030	88 9d e4 fe ff
	ff		 mov	 BYTE PTR _szBuf$[ebp], bl
  00036	e8 00 00 00 00	 call	 _memset
  0003b	83 c4 0c	 add	 esp, 12			; 0000000cH

; 36   : 	rkLoader.LoadString_e( "loop_effect", "", szBuf, MAX_PATH );

  0003e	6a 02		 push	 2
  00040	c7 45 e8 81 83
	84 9a		 mov	 DWORD PTR __k$531877[ebp], -1702591615 ; 9a848381H
  00047	c7 45 ec b2 89
	8d 8c		 mov	 DWORD PTR __k$531877[ebp+4], -1936881230 ; 8c8d89b2H
  0004e	8d 45 e8	 lea	 eax, DWORD PTR __k$531877[ebp]
  00051	c7 45 f0 88 8f
	9f 00		 mov	 DWORD PTR __k$531877[ebp+8], 10456968 ; 009f8f88H
  00058	59		 pop	 ecx
$LL106@LoadProper:
  00059	81 30 ed ec eb
	ea		 xor	 DWORD PTR [eax], -353637139 ; eaebecedH
  0005f	83 c0 04	 add	 eax, 4
  00062	49		 dec	 ecx
  00063	75 f4		 jne	 SHORT $LL106@LoadProper
  00065	6a 08		 push	 8
  00067	58		 pop	 eax
$LL103@LoadProper:
  00068	8b c8		 mov	 ecx, eax
  0006a	81 e1 03 00 00
	80		 and	 ecx, -2147483645	; 80000003H
  00070	79 05		 jns	 SHORT $LN223@LoadProper
  00072	49		 dec	 ecx
  00073	83 c9 fc	 or	 ecx, -4			; fffffffcH
  00076	41		 inc	 ecx
$LN223@LoadProper:
  00077	b2 ed		 mov	 dl, -19			; ffffffedH
  00079	2a d1		 sub	 dl, cl
  0007b	30 54 05 e8	 xor	 BYTE PTR __k$531877[ebp+eax], dl
  0007f	40		 inc	 eax
  00080	83 f8 0b	 cmp	 eax, 11			; 0000000bH
  00083	7c e3		 jl	 SHORT $LL103@LoadProper
  00085	68 04 01 00 00	 push	 260			; 00000104H
  0008a	8d 85 e4 fe ff
	ff		 lea	 eax, DWORD PTR _szBuf$[ebp]
  00090	50		 push	 eax
  00091	68 00 00 00 00	 push	 OFFSET ??_C@_00CNPNBAHC@?$AA@
  00096	8d 45 e8	 lea	 eax, DWORD PTR __k$531877[ebp]
  00099	50		 push	 eax
  0009a	8b cf		 mov	 ecx, edi
  0009c	ff 15 00 00 00
	00		 call	 DWORD PTR __imp_?LoadStringA@ioINILoader@@QAEXPBD0PADH@Z

; 37   : 	m_LoopEffectName = szBuf;

  000a2	8d 85 e4 fe ff
	ff		 lea	 eax, DWORD PTR _szBuf$[ebp]
  000a8	50		 push	 eax
  000a9	8d 8e dc 00 00
	00		 lea	 ecx, DWORD PTR [esi+220]
  000af	ff 15 00 00 00
	00		 call	 DWORD PTR __imp_??4ioHashString@@QAEAAV0@PBD@Z
  000b5	6a 03		 push	 3

; 38   : 
; 39   : 	m_dwCollisionTime = rkLoader.LoadInt_e( "collision_time", 0 );

  000b7	c7 45 e8 8e 83
	87 86		 mov	 DWORD PTR __k$532002[ebp], -2037939314 ; 8687838eH
  000be	c7 45 ec 84 9f
	82 85		 mov	 DWORD PTR __k$532002[ebp+4], -2055037052 ; 85829f84H
  000c5	c7 45 f0 83 b3
	9f 83		 mov	 DWORD PTR __k$532002[ebp+8], -2086685821 ; 839fb383H
  000cc	66 c7 45 f4 80
	89		 mov	 WORD PTR __k$532002[ebp+12], 35200 ; 00008980H
  000d2	8d 45 e8	 lea	 eax, DWORD PTR __k$532002[ebp]
  000d5	88 5d f6	 mov	 BYTE PTR __k$532002[ebp+14], bl
  000d8	59		 pop	 ecx
$LL212@LoadProper:
  000d9	81 30 ed ec eb
	ea		 xor	 DWORD PTR [eax], -353637139 ; eaebecedH
  000df	83 c0 04	 add	 eax, 4
  000e2	49		 dec	 ecx
  000e3	75 f4		 jne	 SHORT $LL212@LoadProper
  000e5	6a 0c		 push	 12			; 0000000cH
  000e7	58		 pop	 eax
$LL209@LoadProper:
  000e8	8b c8		 mov	 ecx, eax
  000ea	81 e1 03 00 00
	80		 and	 ecx, -2147483645	; 80000003H
  000f0	79 05		 jns	 SHORT $LN224@LoadProper
  000f2	49		 dec	 ecx
  000f3	83 c9 fc	 or	 ecx, -4			; fffffffcH
  000f6	41		 inc	 ecx
$LN224@LoadProper:
  000f7	b2 ed		 mov	 dl, -19			; ffffffedH
  000f9	2a d1		 sub	 dl, cl
  000fb	30 54 05 e8	 xor	 BYTE PTR __k$532002[ebp+eax], dl
  000ff	40		 inc	 eax
  00100	83 f8 0e	 cmp	 eax, 14			; 0000000eH
  00103	7c e3		 jl	 SHORT $LL209@LoadProper
  00105	53		 push	 ebx
  00106	8d 45 e8	 lea	 eax, DWORD PTR __k$532002[ebp]
  00109	50		 push	 eax
  0010a	8b cf		 mov	 ecx, edi
  0010c	ff 15 00 00 00
	00		 call	 DWORD PTR __imp_?LoadInt@ioINILoader@@QAEHPBDH@Z

; 40   : }

  00112	8b 4d fc	 mov	 ecx, DWORD PTR __$ArrayPad$[ebp]
  00115	5f		 pop	 edi
  00116	89 86 14 01 00
	00		 mov	 DWORD PTR [esi+276], eax
  0011c	5e		 pop	 esi
  0011d	33 cd		 xor	 ecx, ebp
  0011f	5b		 pop	 ebx
  00120	e8 00 00 00 00	 call	 @__security_check_cookie@4
  00125	c9		 leave
  00126	c2 04 00	 ret	 4
?LoadProperty@ioHunterCoinModeItem@@UAEXAAVioINILoader@@@Z ENDP ; ioHunterCoinModeItem::LoadProperty
_TEXT	ENDS
EXTRN	?Process@ioModeItem@@UAEXXZ:PROC		; ioModeItem::Process
; Function compile flags: /Ogsp
;	COMDAT ?Process@ioHunterCoinModeItem@@UAEXXZ
_TEXT	SEGMENT
?Process@ioHunterCoinModeItem@@UAEXXZ PROC		; ioHunterCoinModeItem::Process, COMDAT
; _this$ = ecx

; 117  : {

  00000	56		 push	 esi
  00001	8b f1		 mov	 esi, ecx

; 118  : 	ioModeItem::Process();

  00003	e8 00 00 00 00	 call	 ?Process@ioModeItem@@UAEXXZ ; ioModeItem::Process

; 119  : 
; 120  : 	switch( m_State )

  00008	8b 86 d8 00 00
	00		 mov	 eax, DWORD PTR [esi+216]
  0000e	83 e8 00	 sub	 eax, 0
  00011	74 19		 je	 SHORT $LN4@Process
  00013	48		 dec	 eax
  00014	74 1e		 je	 SHORT $LN5@Process
  00016	48		 dec	 eax
  00017	74 0b		 je	 SHORT $LN3@Process
  00019	48		 dec	 eax
  0001a	75 18		 jne	 SHORT $LN5@Process

; 127  : 		break;
; 128  : 	case IS_PINGPONG:
; 129  : 		ProcessPingpong();

  0001c	8b ce		 mov	 ecx, esi
  0001e	5e		 pop	 esi
  0001f	e9 00 00 00 00	 jmp	 ?ProcessPingpong@ioHunterCoinModeItem@@QAEXXZ ; ioHunterCoinModeItem::ProcessPingpong
$LN3@Process:

; 124  : 		break;
; 125  : 	case IS_MOVE:
; 126  : 		ProcessMove();

  00024	8b ce		 mov	 ecx, esi
  00026	5e		 pop	 esi
  00027	e9 00 00 00 00	 jmp	 ?ProcessMove@ioHunterCoinModeItem@@QAEXXZ ; ioHunterCoinModeItem::ProcessMove
$LN4@Process:

; 121  : 	{
; 122  : 	case IS_WAIT:
; 123  : 		ProcessWait();

  0002c	8b ce		 mov	 ecx, esi
  0002e	5e		 pop	 esi
  0002f	e9 00 00 00 00	 jmp	 ?ProcessWait@ioHunterCoinModeItem@@QAEXXZ ; ioHunterCoinModeItem::ProcessWait
$LN5@Process:
  00034	5e		 pop	 esi

; 130  : 	case IS_DELAY:
; 131  : 		ProcessDelay();
; 132  : 		break;		
; 133  : 	}
; 134  : }

  00035	c3		 ret	 0
?Process@ioHunterCoinModeItem@@UAEXXZ ENDP		; ioHunterCoinModeItem::Process
_TEXT	ENDS
PUBLIC	_pShapeWorldMat$GSCopy$
PUBLIC	__$ArrayPad$
; Function compile flags: /Ogsp
;	COMDAT ?TestMapCollision@ioHunterCoinModeItem@@UAE_NPAVioOpcodeShape@@PAVioPlayStage@@PBUD3DXMATRIX@@@Z
_TEXT	SEGMENT
_pShapeWorldMat$GSCopy$ = -24				; size = 4
_iFaceIndex$ = -20					; size = 4
_vNormal$ = -16						; size = 12
__$ArrayPad$ = -4					; size = 4
_pShape$ = 8						; size = 4
_pStage$ = 12						; size = 4
_pShapeWorldMat$ = 16					; size = 4
?TestMapCollision@ioHunterCoinModeItem@@UAE_NPAVioOpcodeShape@@PAVioPlayStage@@PBUD3DXMATRIX@@@Z PROC ; ioHunterCoinModeItem::TestMapCollision, COMDAT
; _this$ = ecx

; 257  : {

  00000	55		 push	 ebp
  00001	8b ec		 mov	 ebp, esp
  00003	83 ec 18	 sub	 esp, 24			; 00000018H
  00006	a1 00 00 00 00	 mov	 eax, DWORD PTR ___security_cookie
  0000b	33 c5		 xor	 eax, ebp
  0000d	89 45 fc	 mov	 DWORD PTR __$ArrayPad$[ebp], eax
  00010	8b 45 10	 mov	 eax, DWORD PTR _pShapeWorldMat$[ebp]
  00013	56		 push	 esi
  00014	8b 75 08	 mov	 esi, DWORD PTR _pShape$[ebp]
  00017	57		 push	 edi
  00018	8b f9		 mov	 edi, ecx

; 263  : 
; 264  : 	int iFaceIndex = 0;

  0001a	89 45 e8	 mov	 DWORD PTR _pShapeWorldMat$GSCopy$[ebp], eax
  0001d	8b 87 d8 00 00
	00		 mov	 eax, DWORD PTR [edi+216]
  00023	83 f8 02	 cmp	 eax, 2
  00026	74 05		 je	 SHORT $LN2@TestMapCol

; 258  : 	//pShape        TRUE
; 259  : 	//     1   N   TestMapCollision()   
; 260  : 
; 261  : 	if( m_State != IS_MOVE && m_State != IS_PINGPONG )

  00028	83 f8 03	 cmp	 eax, 3

; 262  : 		return true;

  0002b	75 37		 jne	 SHORT $LN7@TestMapCol
$LN2@TestMapCol:

; 263  : 
; 264  : 	int iFaceIndex = 0;

  0002d	83 65 ec 00	 and	 DWORD PTR _iFaceIndex$[ebp], 0
  00031	53		 push	 ebx

; 265  : 	if( !pShape->FindIntersection( pShapeWorldMat, GetAttackBox(), &iFaceIndex ) )

  00032	8b 1e		 mov	 ebx, DWORD PTR [esi]
  00034	8d 45 ec	 lea	 eax, DWORD PTR _iFaceIndex$[ebp]
  00037	50		 push	 eax
  00038	8b 07		 mov	 eax, DWORD PTR [edi]
  0003a	ff 50 34	 call	 DWORD PTR [eax+52]
  0003d	50		 push	 eax
  0003e	ff 75 e8	 push	 DWORD PTR _pShapeWorldMat$GSCopy$[ebp]
  00041	8b ce		 mov	 ecx, esi
  00043	ff 53 30	 call	 DWORD PTR [ebx+48]
  00046	5b		 pop	 ebx
  00047	84 c0		 test	 al, al
  00049	74 1b		 je	 SHORT $LN3@TestMapCol
$LN1@TestMapCol:

; 266  : 		return false;
; 267  : 
; 268  : 	D3DXVECTOR3 vNormal;
; 269  : 	pShape->GetTriNormalInModelSpace( iFaceIndex, vNormal );

  0004b	8b 06		 mov	 eax, DWORD PTR [esi]
  0004d	8d 4d f0	 lea	 ecx, DWORD PTR _vNormal$[ebp]
  00050	51		 push	 ecx
  00051	ff 75 ec	 push	 DWORD PTR _iFaceIndex$[ebp]
  00054	8b ce		 mov	 ecx, esi
  00056	ff 50 38	 call	 DWORD PTR [eax+56]

; 270  : 
; 271  : 	SetWallCollision( vNormal );

  00059	8d 45 f0	 lea	 eax, DWORD PTR _vNormal$[ebp]
  0005c	50		 push	 eax
  0005d	8b cf		 mov	 ecx, edi
  0005f	e8 00 00 00 00	 call	 ?SetWallCollision@ioHunterCoinModeItem@@QAEXABUD3DXVECTOR3@@@Z ; ioHunterCoinModeItem::SetWallCollision
$LN7@TestMapCol:

; 272  : 	return true;

  00064	b0 01		 mov	 al, 1
$LN3@TestMapCol:

; 273  : }

  00066	8b 4d fc	 mov	 ecx, DWORD PTR __$ArrayPad$[ebp]
  00069	5f		 pop	 edi
  0006a	33 cd		 xor	 ecx, ebp
  0006c	5e		 pop	 esi
  0006d	e8 00 00 00 00	 call	 @__security_check_cookie@4
  00072	c9		 leave
  00073	c2 0c 00	 ret	 12			; 0000000cH
?TestMapCollision@ioHunterCoinModeItem@@UAE_NPAVioOpcodeShape@@PAVioPlayStage@@PBUD3DXMATRIX@@@Z ENDP ; ioHunterCoinModeItem::TestMapCollision
_TEXT	ENDS
END
