; Listing generated by Microsoft (R) Optimizing Compiler Version 16.00.30319.01 

	TITLE	D:\Lost Saga For Developer\Youtube\Tutorial\Source\src\LSClient\ioInfectionBuff.cpp
	.686P
	.XMM
	include listing.inc
	.model	flat

INCLUDELIB MSVCRT
INCLUDELIB OLDNAMES

PUBLIC	?_EEM_DS@?$deque@UD3DXVECTOR3@@V?$allocator@UD3DXVECTOR3@@@std@@@std@@2HB ; std::deque<D3DXVECTOR3,std::allocator<D3DXVECTOR3> >::_EEM_DS
;	COMDAT ?_EEM_DS@?$deque@UD3DXVECTOR3@@V?$allocator@UD3DXVECTOR3@@@std@@@std@@2HB
CONST	SEGMENT
?_EEM_DS@?$deque@UD3DXVECTOR3@@V?$allocator@UD3DXVECTOR3@@@std@@@std@@2HB DD 01H ; std::deque<D3DXVECTOR3,std::allocator<D3DXVECTOR3> >::_EEM_DS
CONST	ENDS
PUBLIC	?GetBaseCharList@ioPlayStage@@QBEABV?$vector@PAVioBaseChar@@V?$allocator@PAVioBaseChar@@@std@@@std@@XZ ; ioPlayStage::GetBaseCharList
; Function compile flags: /Ogsp
; File d:\lost saga for developer\youtube\tutorial\source\src\lsclient\ioplaystage.h
;	COMDAT ?GetBaseCharList@ioPlayStage@@QBEABV?$vector@PAVioBaseChar@@V?$allocator@PAVioBaseChar@@@std@@@std@@XZ
_TEXT	SEGMENT
?GetBaseCharList@ioPlayStage@@QBEABV?$vector@PAVioBaseChar@@V?$allocator@PAVioBaseChar@@@std@@@std@@XZ PROC ; ioPlayStage::GetBaseCharList, COMDAT
; _this$ = ecx

; 755  : 	const BaseCharList& GetBaseCharList() const { return m_BaseCharList; }

  00000	8d 41 2c	 lea	 eax, DWORD PTR [ecx+44]
  00003	c3		 ret	 0
?GetBaseCharList@ioPlayStage@@QBEABV?$vector@PAVioBaseChar@@V?$allocator@PAVioBaseChar@@@std@@@std@@XZ ENDP ; ioPlayStage::GetBaseCharList
_TEXT	ENDS
PUBLIC	?return100@@YAIXZ				; return100
; Function compile flags: /Ogsp
; File d:\lost saga for developer\youtube\tutorial\source\src\lsclient\stdafx.h
;	COMDAT ?return100@@YAIXZ
_TEXT	SEGMENT
?return100@@YAIXZ PROC					; return100, COMDAT

; 25   : 	__forceinline unsigned int return100() { __asm mov eax, 100 };

  00000	b8 64 00 00 00	 mov	 eax, 100		; 00000064H
  00005	c3		 ret	 0
?return100@@YAIXZ ENDP					; return100
_TEXT	ENDS
PUBLIC	?GetBlowStopMotionState@ioBaseChar@@QBE_NXZ	; ioBaseChar::GetBlowStopMotionState
; Function compile flags: /Ogsp
; File d:\lost saga for developer\youtube\tutorial\source\src\lsclient\iobasechar.h
;	COMDAT ?GetBlowStopMotionState@ioBaseChar@@QBE_NXZ
_TEXT	SEGMENT
?GetBlowStopMotionState@ioBaseChar@@QBE_NXZ PROC	; ioBaseChar::GetBlowStopMotionState, COMDAT
; _this$ = ecx

; 1566 : 	inline bool GetBlowStopMotionState() const { return m_bBlowStopMotion; }

  00000	8a 81 c7 15 00
	00		 mov	 al, BYTE PTR [ecx+5575]
  00006	c3		 ret	 0
?GetBlowStopMotionState@ioBaseChar@@QBE_NXZ ENDP	; ioBaseChar::GetBlowStopMotionState
_TEXT	ENDS
PUBLIC	?GetBlowFrozenState@ioBaseChar@@QBE_NXZ		; ioBaseChar::GetBlowFrozenState
; Function compile flags: /Ogsp
;	COMDAT ?GetBlowFrozenState@ioBaseChar@@QBE_NXZ
_TEXT	SEGMENT
?GetBlowFrozenState@ioBaseChar@@QBE_NXZ PROC		; ioBaseChar::GetBlowFrozenState, COMDAT
; _this$ = ecx

; 1571 : 	inline bool GetBlowFrozenState() const { return m_bBlowFrozenState; }

  00000	8a 81 c5 15 00
	00		 mov	 al, BYTE PTR [ecx+5573]
  00006	c3		 ret	 0
?GetBlowFrozenState@ioBaseChar@@QBE_NXZ ENDP		; ioBaseChar::GetBlowFrozenState
_TEXT	ENDS
PUBLIC	?GetState@ioBaseChar@@QBE?AW4CharState@@XZ	; ioBaseChar::GetState
; Function compile flags: /Ogsp
;	COMDAT ?GetState@ioBaseChar@@QBE?AW4CharState@@XZ
_TEXT	SEGMENT
?GetState@ioBaseChar@@QBE?AW4CharState@@XZ PROC		; ioBaseChar::GetState, COMDAT
; _this$ = ecx

; 2156 : 	inline CharState GetState() const { return m_CharState; }	

  00000	8a 81 10 03 00
	00		 mov	 al, BYTE PTR [ecx+784]
  00006	c3		 ret	 0
?GetState@ioBaseChar@@QBE?AW4CharState@@XZ ENDP		; ioBaseChar::GetState
_TEXT	ENDS
PUBLIC	?GetCharName@ioBaseChar@@QBEABVioHashString@@XZ	; ioBaseChar::GetCharName
; Function compile flags: /Ogsp
;	COMDAT ?GetCharName@ioBaseChar@@QBEABVioHashString@@XZ
_TEXT	SEGMENT
?GetCharName@ioBaseChar@@QBEABVioHashString@@XZ PROC	; ioBaseChar::GetCharName, COMDAT
; _this$ = ecx

; 2594 : 	inline const ioHashString& GetCharName() const { return m_Name; }

  00000	8d 81 d4 02 00
	00		 lea	 eax, DWORD PTR [ecx+724]
  00006	c3		 ret	 0
?GetCharName@ioBaseChar@@QBEABVioHashString@@XZ ENDP	; ioBaseChar::GetCharName
_TEXT	ENDS
PUBLIC	??_7bad_alloc@std@@6B@				; std::bad_alloc::`vftable'
PUBLIC	??0bad_alloc@std@@QAE@PBD@Z			; std::bad_alloc::bad_alloc
PUBLIC	??_R4bad_alloc@std@@6B@				; std::bad_alloc::`RTTI Complete Object Locator'
PUBLIC	??_R0?AVbad_alloc@std@@@8			; std::bad_alloc `RTTI Type Descriptor'
PUBLIC	??_R3bad_alloc@std@@8				; std::bad_alloc::`RTTI Class Hierarchy Descriptor'
PUBLIC	??_R2bad_alloc@std@@8				; std::bad_alloc::`RTTI Base Class Array'
PUBLIC	??_R1A@?0A@EA@bad_alloc@std@@8			; std::bad_alloc::`RTTI Base Class Descriptor at (0,-1,0,64)'
PUBLIC	??_R1A@?0A@EA@exception@std@@8			; std::exception::`RTTI Base Class Descriptor at (0,-1,0,64)'
PUBLIC	??_R0?AVexception@std@@@8			; std::exception `RTTI Type Descriptor'
PUBLIC	??_R3exception@std@@8				; std::exception::`RTTI Class Hierarchy Descriptor'
PUBLIC	??_R2exception@std@@8				; std::exception::`RTTI Base Class Array'
EXTRN	__imp_??0exception@std@@QAE@ABQBD@Z:PROC
EXTRN	??_7type_info@@6B@:QWORD			; type_info::`vftable'
EXTRN	??_Ebad_alloc@std@@UAEPAXI@Z:PROC		; std::bad_alloc::`vector deleting destructor'
EXTRN	?what@exception@std@@UBEPBDXZ:PROC		; std::exception::what
;	COMDAT ??_R2exception@std@@8
; File c:\program files (x86)\microsoft visual studio 10.0\vc\include\exception
rdata$r	SEGMENT
??_R2exception@std@@8 DD FLAT:??_R1A@?0A@EA@exception@std@@8 ; std::exception::`RTTI Base Class Array'
rdata$r	ENDS
;	COMDAT ??_R3exception@std@@8
rdata$r	SEGMENT
??_R3exception@std@@8 DD 00H				; std::exception::`RTTI Class Hierarchy Descriptor'
	DD	00H
	DD	01H
	DD	FLAT:??_R2exception@std@@8
rdata$r	ENDS
;	COMDAT ??_R0?AVexception@std@@@8
_DATA	SEGMENT
??_R0?AVexception@std@@@8 DD FLAT:??_7type_info@@6B@	; std::exception `RTTI Type Descriptor'
	DD	00H
	DB	'.?AVexception@std@@', 00H
_DATA	ENDS
;	COMDAT ??_R1A@?0A@EA@exception@std@@8
rdata$r	SEGMENT
??_R1A@?0A@EA@exception@std@@8 DD FLAT:??_R0?AVexception@std@@@8 ; std::exception::`RTTI Base Class Descriptor at (0,-1,0,64)'
	DD	00H
	DD	00H
	DD	0ffffffffH
	DD	00H
	DD	040H
	DD	FLAT:??_R3exception@std@@8
rdata$r	ENDS
;	COMDAT ??_R1A@?0A@EA@bad_alloc@std@@8
rdata$r	SEGMENT
??_R1A@?0A@EA@bad_alloc@std@@8 DD FLAT:??_R0?AVbad_alloc@std@@@8 ; std::bad_alloc::`RTTI Base Class Descriptor at (0,-1,0,64)'
	DD	01H
	DD	00H
	DD	0ffffffffH
	DD	00H
	DD	040H
	DD	FLAT:??_R3bad_alloc@std@@8
rdata$r	ENDS
;	COMDAT ??_R2bad_alloc@std@@8
rdata$r	SEGMENT
??_R2bad_alloc@std@@8 DD FLAT:??_R1A@?0A@EA@bad_alloc@std@@8 ; std::bad_alloc::`RTTI Base Class Array'
	DD	FLAT:??_R1A@?0A@EA@exception@std@@8
rdata$r	ENDS
;	COMDAT ??_R3bad_alloc@std@@8
rdata$r	SEGMENT
??_R3bad_alloc@std@@8 DD 00H				; std::bad_alloc::`RTTI Class Hierarchy Descriptor'
	DD	00H
	DD	02H
	DD	FLAT:??_R2bad_alloc@std@@8
rdata$r	ENDS
;	COMDAT ??_R0?AVbad_alloc@std@@@8
_DATA	SEGMENT
??_R0?AVbad_alloc@std@@@8 DD FLAT:??_7type_info@@6B@	; std::bad_alloc `RTTI Type Descriptor'
	DD	00H
	DB	'.?AVbad_alloc@std@@', 00H
_DATA	ENDS
;	COMDAT ??_R4bad_alloc@std@@6B@
rdata$r	SEGMENT
??_R4bad_alloc@std@@6B@ DD 00H				; std::bad_alloc::`RTTI Complete Object Locator'
	DD	00H
	DD	00H
	DD	FLAT:??_R0?AVbad_alloc@std@@@8
	DD	FLAT:??_R3bad_alloc@std@@8
rdata$r	ENDS
;	COMDAT ??_7bad_alloc@std@@6B@
CONST	SEGMENT
??_7bad_alloc@std@@6B@ DD FLAT:??_R4bad_alloc@std@@6B@	; std::bad_alloc::`vftable'
	DD	FLAT:??_Ebad_alloc@std@@UAEPAXI@Z
	DD	FLAT:?what@exception@std@@UBEPBDXZ
; Function compile flags: /Ogsp
CONST	ENDS
;	COMDAT ??0bad_alloc@std@@QAE@PBD@Z
_TEXT	SEGMENT
__Message$ = 8						; size = 4
??0bad_alloc@std@@QAE@PBD@Z PROC			; std::bad_alloc::bad_alloc, COMDAT
; _this$ = ecx

; 345  : 		{	// construct from message string

  00000	55		 push	 ebp
  00001	8b ec		 mov	 ebp, esp
  00003	56		 push	 esi
  00004	8d 45 08	 lea	 eax, DWORD PTR __Message$[ebp]
  00007	50		 push	 eax
  00008	8b f1		 mov	 esi, ecx
  0000a	ff 15 00 00 00
	00		 call	 DWORD PTR __imp_??0exception@std@@QAE@ABQBD@Z
  00010	c7 06 00 00 00
	00		 mov	 DWORD PTR [esi], OFFSET ??_7bad_alloc@std@@6B@

; 346  : 		}

  00016	8b c6		 mov	 eax, esi
  00018	5e		 pop	 esi
  00019	5d		 pop	 ebp
  0001a	c2 04 00	 ret	 4
??0bad_alloc@std@@QAE@PBD@Z ENDP			; std::bad_alloc::bad_alloc
_TEXT	ENDS
PUBLIC	??1bad_alloc@std@@UAE@XZ			; std::bad_alloc::~bad_alloc
EXTRN	__imp_??1exception@std@@UAE@XZ:PROC
; Function compile flags: /Ogsp
;	COMDAT ??1bad_alloc@std@@UAE@XZ
_TEXT	SEGMENT
??1bad_alloc@std@@UAE@XZ PROC				; std::bad_alloc::~bad_alloc, COMDAT
; _this$ = ecx

; 354  : 		{	// destroy the object

  00000	c7 01 00 00 00
	00		 mov	 DWORD PTR [ecx], OFFSET ??_7bad_alloc@std@@6B@

; 355  : 		}

  00006	ff 25 00 00 00
	00		 jmp	 DWORD PTR __imp_??1exception@std@@UAE@XZ
??1bad_alloc@std@@UAE@XZ ENDP				; std::bad_alloc::~bad_alloc
_TEXT	ENDS
EXTRN	??3@YAXPAX@Z:PROC				; operator delete
; Function compile flags: /Ogsp
;	COMDAT ??_Gbad_alloc@std@@UAEPAXI@Z
_TEXT	SEGMENT
___flags$ = 8						; size = 4
??_Gbad_alloc@std@@UAEPAXI@Z PROC			; std::bad_alloc::`scalar deleting destructor', COMDAT
; _this$ = ecx
  00000	55		 push	 ebp
  00001	8b ec		 mov	 ebp, esp
  00003	56		 push	 esi
  00004	8b f1		 mov	 esi, ecx
  00006	c7 06 00 00 00
	00		 mov	 DWORD PTR [esi], OFFSET ??_7bad_alloc@std@@6B@
  0000c	ff 15 00 00 00
	00		 call	 DWORD PTR __imp_??1exception@std@@UAE@XZ
  00012	f6 45 08 01	 test	 BYTE PTR ___flags$[ebp], 1
  00016	74 07		 je	 SHORT $LN1@scalar
  00018	56		 push	 esi
  00019	e8 00 00 00 00	 call	 ??3@YAXPAX@Z		; operator delete
  0001e	59		 pop	 ecx
$LN1@scalar:
  0001f	8b c6		 mov	 eax, esi
  00021	5e		 pop	 esi
  00022	5d		 pop	 ebp
  00023	c2 04 00	 ret	 4
??_Gbad_alloc@std@@UAEPAXI@Z ENDP			; std::bad_alloc::`scalar deleting destructor'
_TEXT	ENDS
PUBLIC	?GetRandomSeed@ioBaseChar@@QBEKXZ		; ioBaseChar::GetRandomSeed
; Function compile flags: /Ogsp
; File d:\lost saga for developer\youtube\tutorial\source\src\lsclient\iobasechar.h
;	COMDAT ?GetRandomSeed@ioBaseChar@@QBEKXZ
_TEXT	SEGMENT
?GetRandomSeed@ioBaseChar@@QBEKXZ PROC			; ioBaseChar::GetRandomSeed, COMDAT
; _this$ = ecx

; 3372 : 	inline DWORD GetRandomSeed() const { return m_dwRandomSeed; }

  00000	8b 81 74 16 00
	00		 mov	 eax, DWORD PTR [ecx+5748]
  00006	c3		 ret	 0
?GetRandomSeed@ioBaseChar@@QBEKXZ ENDP			; ioBaseChar::GetRandomSeed
_TEXT	ENDS
PUBLIC	??2@YAPAXIPAX@Z					; operator new
; Function compile flags: /Ogsp
; File c:\program files (x86)\microsoft visual studio 10.0\vc\include\new
;	COMDAT ??2@YAPAXIPAX@Z
_TEXT	SEGMENT
___formal$ = 8						; size = 4
__Where$ = 12						; size = 4
??2@YAPAXIPAX@Z PROC					; operator new, COMDAT

; 56   : 	{	// construct array with placement at _Where

  00000	55		 push	 ebp
  00001	8b ec		 mov	 ebp, esp

; 57   : 	return (_Where);

  00003	8b 45 0c	 mov	 eax, DWORD PTR __Where$[ebp]

; 58   : 	}

  00006	5d		 pop	 ebp
  00007	c3		 ret	 0
??2@YAPAXIPAX@Z ENDP					; operator new
_TEXT	ENDS
PUBLIC	??3@YAXPAX0@Z					; operator delete
; Function compile flags: /Ogsp
;	COMDAT ??3@YAXPAX0@Z
_TEXT	SEGMENT
___formal$ = 8						; size = 4
___formal$ = 12						; size = 4
??3@YAXPAX0@Z PROC					; operator delete, COMDAT

; 62   : 	}

  00000	c3		 ret	 0
??3@YAXPAX0@Z ENDP					; operator delete
_TEXT	ENDS
PUBLIC	?_Adopt@_Iterator_base0@std@@QAEXPBX@Z		; std::_Iterator_base0::_Adopt
; Function compile flags: /Ogsp
; File c:\program files (x86)\microsoft visual studio 10.0\vc\include\xutility
;	COMDAT ?_Adopt@_Iterator_base0@std@@QAEXPBX@Z
_TEXT	SEGMENT
___formal$ = 8						; size = 4
?_Adopt@_Iterator_base0@std@@QAEXPBX@Z PROC		; std::_Iterator_base0::_Adopt, COMDAT
; _this$ = ecx

; 49   : 		}

  00000	c2 04 00	 ret	 4
?_Adopt@_Iterator_base0@std@@QAEXPBX@Z ENDP		; std::_Iterator_base0::_Adopt
_TEXT	ENDS
PUBLIC	??1CallBuff@@QAE@XZ				; CallBuff::~CallBuff
EXTRN	__imp_??1ioHashString@@QAE@XZ:PROC
; Function compile flags: /Ogsp
;	COMDAT ??1CallBuff@@QAE@XZ
_TEXT	SEGMENT
??1CallBuff@@QAE@XZ PROC				; CallBuff::~CallBuff, COMDAT
; _this$ = ecx
  00000	ff 25 00 00 00
	00		 jmp	 DWORD PTR __imp_??1ioHashString@@QAE@XZ
??1CallBuff@@QAE@XZ ENDP				; CallBuff::~CallBuff
_TEXT	ENDS
PUBLIC	?EndBuff@ioInfectionBuff@@UAEXXZ		; ioInfectionBuff::EndBuff
EXTRN	?EndBuff@ioBuff@@UAEXXZ:PROC			; ioBuff::EndBuff
; Function compile flags: /Ogsp
; File d:\lost saga for developer\youtube\tutorial\source\src\lsclient\ioinfectionbuff.cpp
;	COMDAT ?EndBuff@ioInfectionBuff@@UAEXXZ
_TEXT	SEGMENT
?EndBuff@ioInfectionBuff@@UAEXXZ PROC			; ioInfectionBuff::EndBuff, COMDAT
; _this$ = ecx

; 189  : 	ioBuff::EndBuff();

  00000	e9 00 00 00 00	 jmp	 ?EndBuff@ioBuff@@UAEXXZ	; ioBuff::EndBuff
?EndBuff@ioInfectionBuff@@UAEXXZ ENDP			; ioInfectionBuff::EndBuff
_TEXT	ENDS
PUBLIC	??0CallBuff@@QAE@ABU0@@Z			; CallBuff::CallBuff
EXTRN	__imp_??0ioHashString@@QAE@ABV0@@Z:PROC
; Function compile flags: /Ogsp
;	COMDAT ??0CallBuff@@QAE@ABU0@@Z
_TEXT	SEGMENT
___that$ = 8						; size = 4
??0CallBuff@@QAE@ABU0@@Z PROC				; CallBuff::CallBuff, COMDAT
; _this$ = ecx
  00000	55		 push	 ebp
  00001	8b ec		 mov	 ebp, esp
  00003	56		 push	 esi
  00004	57		 push	 edi
  00005	8b 7d 08	 mov	 edi, DWORD PTR ___that$[ebp]
  00008	57		 push	 edi
  00009	8b f1		 mov	 esi, ecx
  0000b	ff 15 00 00 00
	00		 call	 DWORD PTR __imp_??0ioHashString@@QAE@ABV0@@Z
  00011	8b 47 10	 mov	 eax, DWORD PTR [edi+16]
  00014	89 46 10	 mov	 DWORD PTR [esi+16], eax
  00017	5f		 pop	 edi
  00018	8b c6		 mov	 eax, esi
  0001a	5e		 pop	 esi
  0001b	5d		 pop	 ebp
  0001c	c2 04 00	 ret	 4
??0CallBuff@@QAE@ABU0@@Z ENDP				; CallBuff::CallBuff
_TEXT	ENDS
PUBLIC	?CheckOwnerStateCheck@ioInfectionBuff@@IAEXXZ	; ioInfectionBuff::CheckOwnerStateCheck
EXTRN	?IsApplyDownState@ioBaseChar@@QAE_N_N@Z:PROC	; ioBaseChar::IsApplyDownState
EXTRN	?IsFloatingState@ioBaseChar@@QBE_NXZ:PROC	; ioBaseChar::IsFloatingState
EXTRN	?SetReserveEndBuff@ioBuff@@QAEXXZ:PROC		; ioBuff::SetReserveEndBuff
; Function compile flags: /Ogsp
;	COMDAT ?CheckOwnerStateCheck@ioInfectionBuff@@IAEXXZ
_TEXT	SEGMENT
?CheckOwnerStateCheck@ioInfectionBuff@@IAEXXZ PROC	; ioInfectionBuff::CheckOwnerStateCheck, COMDAT
; _this$ = ecx

; 434  : {

  00000	56		 push	 esi
  00001	8b f1		 mov	 esi, ecx

; 435  : 	if( !m_pOwner ) return;

  00003	8b 8e 74 02 00
	00		 mov	 ecx, DWORD PTR [esi+628]
  00009	33 d2		 xor	 edx, edx
  0000b	3b ca		 cmp	 ecx, edx
  0000d	74 57		 je	 SHORT $LN1@CheckOwner

; 436  : 
; 437  : 	CharState eState = m_pOwner->GetState();

  0000f	8a 81 10 03 00
	00		 mov	 al, BYTE PTR [ecx+784]

; 438  : 
; 439  : 	if( m_bDisableDownState )

  00015	38 96 6c 09 00
	00		 cmp	 BYTE PTR [esi+2412], dl
  0001b	74 49		 je	 SHORT $LN1@CheckOwner

; 440  : 	{	
; 441  : 		if( eState == CS_FROZEN && m_pOwner->GetBlowFrozenState() )

  0001d	3c 17		 cmp	 al, 23			; 00000017H
  0001f	75 10		 jne	 SHORT $LN13@CheckOwner
  00021	38 91 c5 15 00
	00		 cmp	 BYTE PTR [ecx+5573], dl
$LN29@CheckOwner:
  00027	74 3d		 je	 SHORT $LN1@CheckOwner
$LN28@CheckOwner:

; 442  : 			SetReserveEndBuff();

  00029	8b ce		 mov	 ecx, esi
  0002b	5e		 pop	 esi
  0002c	e9 00 00 00 00	 jmp	 ?SetReserveEndBuff@ioBuff@@QAEXXZ ; ioBuff::SetReserveEndBuff
$LN13@CheckOwner:

; 443  : 		else if( eState == CS_BLOW_WOUNDED && !m_pOwner->IsFloatingState() )

  00031	3c 0c		 cmp	 al, 12			; 0000000cH
  00033	75 0b		 jne	 SHORT $LN11@CheckOwner
$LN31@CheckOwner:
  00035	e8 00 00 00 00	 call	 ?IsFloatingState@ioBaseChar@@QBE_NXZ ; ioBaseChar::IsFloatingState
  0003a	84 c0		 test	 al, al
  0003c	75 28		 jne	 SHORT $LN1@CheckOwner

; 444  : 			SetReserveEndBuff();

  0003e	eb e9		 jmp	 SHORT $LN28@CheckOwner
$LN11@CheckOwner:

; 445  : 		else if( eState == CS_BOUND_BLOW_WOUNDED && !m_pOwner->IsFloatingState() )

  00040	3c 31		 cmp	 al, 49			; 00000031H

; 446  : 			SetReserveEndBuff();

  00042	74 f1		 je	 SHORT $LN31@CheckOwner

; 447  : 		else if( eState == CS_ETC_STATE && m_pOwner->IsApplyDownState(false) )

  00044	3c 0f		 cmp	 al, 15			; 0000000fH
  00046	75 0a		 jne	 SHORT $LN7@CheckOwner
  00048	52		 push	 edx
  00049	e8 00 00 00 00	 call	 ?IsApplyDownState@ioBaseChar@@QAE_N_N@Z ; ioBaseChar::IsApplyDownState
  0004e	84 c0		 test	 al, al

; 448  : 			SetReserveEndBuff();

  00050	eb d5		 jmp	 SHORT $LN29@CheckOwner
$LN7@CheckOwner:

; 449  : 		else if( eState == CS_STOP_MOTION && m_pOwner->GetBlowStopMotionState() )

  00052	3c 26		 cmp	 al, 38			; 00000026H
  00054	75 08		 jne	 SHORT $LN5@CheckOwner
$LN30@CheckOwner:
  00056	38 91 c7 15 00
	00		 cmp	 BYTE PTR [ecx+5575], dl

; 450  : 			SetReserveEndBuff();

  0005c	eb c9		 jmp	 SHORT $LN29@CheckOwner
$LN5@CheckOwner:

; 451  : 		else if( eState == CS_DROP_ZONE_DOWN )

  0005e	3c 10		 cmp	 al, 16			; 00000010H

; 452  : 			SetReserveEndBuff();

  00060	74 c7		 je	 SHORT $LN28@CheckOwner

; 453  : 		else if( eState == CS_ICE_STATE && m_pOwner->GetBlowStopMotionState() )

  00062	3c 3b		 cmp	 al, 59			; 0000003bH

; 454  : 			SetReserveEndBuff();

  00064	74 f0		 je	 SHORT $LN30@CheckOwner
$LN1@CheckOwner:
  00066	5e		 pop	 esi

; 455  : 	}
; 456  : }

  00067	c3		 ret	 0
?CheckOwnerStateCheck@ioInfectionBuff@@IAEXXZ ENDP	; ioInfectionBuff::CheckOwnerStateCheck
_TEXT	ENDS
PUBLIC	?empty@?$vector@VioHashString@@V?$allocator@VioHashString@@@std@@@std@@QBE_NXZ ; std::vector<ioHashString,std::allocator<ioHashString> >::empty
; Function compile flags: /Ogsp
; File c:\program files (x86)\microsoft visual studio 10.0\vc\include\vector
;	COMDAT ?empty@?$vector@VioHashString@@V?$allocator@VioHashString@@@std@@@std@@QBE_NXZ
_TEXT	SEGMENT
?empty@?$vector@VioHashString@@V?$allocator@VioHashString@@@std@@@std@@QBE_NXZ PROC ; std::vector<ioHashString,std::allocator<ioHashString> >::empty, COMDAT
; _this$ = ecx

; 889  : 		return (this->_Myfirst == this->_Mylast);

  00000	8b 01		 mov	 eax, DWORD PTR [ecx]
  00002	2b 41 04	 sub	 eax, DWORD PTR [ecx+4]
  00005	f7 d8		 neg	 eax
  00007	1b c0		 sbb	 eax, eax
  00009	40		 inc	 eax

; 890  : 		}

  0000a	c3		 ret	 0
?empty@?$vector@VioHashString@@V?$allocator@VioHashString@@@std@@@std@@QBE_NXZ ENDP ; std::vector<ioHashString,std::allocator<ioHashString> >::empty
_TEXT	ENDS
PUBLIC	??A?$vector@VioHashString@@V?$allocator@VioHashString@@@std@@@std@@QAEAAVioHashString@@I@Z ; std::vector<ioHashString,std::allocator<ioHashString> >::operator[]
; Function compile flags: /Ogsp
;	COMDAT ??A?$vector@VioHashString@@V?$allocator@VioHashString@@@std@@@std@@QAEAAVioHashString@@I@Z
_TEXT	SEGMENT
__Pos$ = 8						; size = 4
??A?$vector@VioHashString@@V?$allocator@VioHashString@@@std@@@std@@QAEAAVioHashString@@I@Z PROC ; std::vector<ioHashString,std::allocator<ioHashString> >::operator[], COMDAT
; _this$ = ecx

; 928  : 		{	// subscript mutable sequence

  00000	55		 push	 ebp
  00001	8b ec		 mov	 ebp, esp

; 929  :  #if _ITERATOR_DEBUG_LEVEL == 2
; 930  : 		if (size() <= _Pos)
; 931  : 			{	// report error
; 932  : 			_DEBUG_ERROR("vector subscript out of range");
; 933  : 			_SCL_SECURE_OUT_OF_RANGE;
; 934  : 			}
; 935  : 
; 936  :  #elif _ITERATOR_DEBUG_LEVEL == 1
; 937  : 		_SCL_SECURE_VALIDATE_RANGE(_Pos < size());
; 938  :  #endif /* _ITERATOR_DEBUG_LEVEL */
; 939  : 
; 940  : 		return (*(this->_Myfirst + _Pos));

  00003	8b 45 08	 mov	 eax, DWORD PTR __Pos$[ebp]
  00006	c1 e0 04	 shl	 eax, 4
  00009	03 01		 add	 eax, DWORD PTR [ecx]

; 941  : 		}

  0000b	5d		 pop	 ebp
  0000c	c2 04 00	 ret	 4
??A?$vector@VioHashString@@V?$allocator@VioHashString@@@std@@@std@@QAEAAVioHashString@@I@Z ENDP ; std::vector<ioHashString,std::allocator<ioHashString> >::operator[]
_TEXT	ENDS
PUBLIC	?empty@?$vector@UCallBuff@@V?$allocator@UCallBuff@@@std@@@std@@QBE_NXZ ; std::vector<CallBuff,std::allocator<CallBuff> >::empty
; Function compile flags: /Ogsp
;	COMDAT ?empty@?$vector@UCallBuff@@V?$allocator@UCallBuff@@@std@@@std@@QBE_NXZ
_TEXT	SEGMENT
?empty@?$vector@UCallBuff@@V?$allocator@UCallBuff@@@std@@@std@@QBE_NXZ PROC ; std::vector<CallBuff,std::allocator<CallBuff> >::empty, COMDAT
; _this$ = ecx

; 889  : 		return (this->_Myfirst == this->_Mylast);

  00000	8b 01		 mov	 eax, DWORD PTR [ecx]
  00002	2b 41 04	 sub	 eax, DWORD PTR [ecx+4]
  00005	f7 d8		 neg	 eax
  00007	1b c0		 sbb	 eax, eax
  00009	40		 inc	 eax

; 890  : 		}

  0000a	c3		 ret	 0
?empty@?$vector@UCallBuff@@V?$allocator@UCallBuff@@@std@@@std@@QBE_NXZ ENDP ; std::vector<CallBuff,std::allocator<CallBuff> >::empty
_TEXT	ENDS
PUBLIC	??0?$_Vector_const_iterator@V?$_Vector_val@PAVioBaseChar@@V?$allocator@PAVioBaseChar@@@std@@@std@@@std@@QAE@XZ ; std::_Vector_const_iterator<std::_Vector_val<ioBaseChar *,std::allocator<ioBaseChar *> > >::_Vector_const_iterator<std::_Vector_val<ioBaseChar *,std::allocator<ioBaseChar *> > >
; Function compile flags: /Ogsp
;	COMDAT ??0?$_Vector_const_iterator@V?$_Vector_val@PAVioBaseChar@@V?$allocator@PAVioBaseChar@@@std@@@std@@@std@@QAE@XZ
_TEXT	SEGMENT
??0?$_Vector_const_iterator@V?$_Vector_val@PAVioBaseChar@@V?$allocator@PAVioBaseChar@@@std@@@std@@@std@@QAE@XZ PROC ; std::_Vector_const_iterator<std::_Vector_val<ioBaseChar *,std::allocator<ioBaseChar *> > >::_Vector_const_iterator<std::_Vector_val<ioBaseChar *,std::allocator<ioBaseChar *> > >, COMDAT
; _this$ = ecx

; 40   : 		{	// construct with null pointer

  00000	8b c1		 mov	 eax, ecx
  00002	83 20 00	 and	 DWORD PTR [eax], 0

; 41   : 		}

  00005	c3		 ret	 0
??0?$_Vector_const_iterator@V?$_Vector_val@PAVioBaseChar@@V?$allocator@PAVioBaseChar@@@std@@@std@@@std@@QAE@XZ ENDP ; std::_Vector_const_iterator<std::_Vector_val<ioBaseChar *,std::allocator<ioBaseChar *> > >::_Vector_const_iterator<std::_Vector_val<ioBaseChar *,std::allocator<ioBaseChar *> > >
_TEXT	ENDS
PUBLIC	??D?$_Vector_const_iterator@V?$_Vector_val@PAVioBaseChar@@V?$allocator@PAVioBaseChar@@@std@@@std@@@std@@QBEABQAVioBaseChar@@XZ ; std::_Vector_const_iterator<std::_Vector_val<ioBaseChar *,std::allocator<ioBaseChar *> > >::operator*
; Function compile flags: /Ogsp
;	COMDAT ??D?$_Vector_const_iterator@V?$_Vector_val@PAVioBaseChar@@V?$allocator@PAVioBaseChar@@@std@@@std@@@std@@QBEABQAVioBaseChar@@XZ
_TEXT	SEGMENT
??D?$_Vector_const_iterator@V?$_Vector_val@PAVioBaseChar@@V?$allocator@PAVioBaseChar@@@std@@@std@@@std@@QBEABQAVioBaseChar@@XZ PROC ; std::_Vector_const_iterator<std::_Vector_val<ioBaseChar *,std::allocator<ioBaseChar *> > >::operator*, COMDAT
; _this$ = ecx

; 64   :  #if _ITERATOR_DEBUG_LEVEL == 2
; 65   : 		if (this->_Getcont() == 0
; 66   : 			|| this->_Ptr == 0
; 67   : 			|| this->_Ptr < ((_Myvec *)this->_Getcont())->_Myfirst
; 68   : 			|| ((_Myvec *)this->_Getcont())->_Mylast <= this->_Ptr)
; 69   : 			{	// report error
; 70   : 			_DEBUG_ERROR("vector iterator not dereferencable");
; 71   : 			_SCL_SECURE_OUT_OF_RANGE;
; 72   : 			}
; 73   : 
; 74   :  #elif _ITERATOR_DEBUG_LEVEL == 1
; 75   : 		_SCL_SECURE_VALIDATE(this->_Getcont() != 0);
; 76   : 		_SCL_SECURE_VALIDATE_RANGE(
; 77   : 			this->_Ptr != 0
; 78   : 			&& ((_Myvec *)this->_Getcont())->_Myfirst <= this->_Ptr
; 79   : 			&& this->_Ptr < ((_Myvec *)this->_Getcont())->_Mylast);
; 80   :  #endif /* _ITERATOR_DEBUG_LEVEL */
; 81   : 
; 82   : 		__analysis_assume(this->_Ptr != 0);
; 83   : 
; 84   : 		return (*this->_Ptr);

  00000	8b 01		 mov	 eax, DWORD PTR [ecx]

; 85   : 		}

  00002	c3		 ret	 0
??D?$_Vector_const_iterator@V?$_Vector_val@PAVioBaseChar@@V?$allocator@PAVioBaseChar@@@std@@@std@@@std@@QBEABQAVioBaseChar@@XZ ENDP ; std::_Vector_const_iterator<std::_Vector_val<ioBaseChar *,std::allocator<ioBaseChar *> > >::operator*
_TEXT	ENDS
PUBLIC	??E?$_Vector_const_iterator@V?$_Vector_val@PAVioBaseChar@@V?$allocator@PAVioBaseChar@@@std@@@std@@@std@@QAEAAV01@XZ ; std::_Vector_const_iterator<std::_Vector_val<ioBaseChar *,std::allocator<ioBaseChar *> > >::operator++
; Function compile flags: /Ogsp
;	COMDAT ??E?$_Vector_const_iterator@V?$_Vector_val@PAVioBaseChar@@V?$allocator@PAVioBaseChar@@@std@@@std@@@std@@QAEAAV01@XZ
_TEXT	SEGMENT
??E?$_Vector_const_iterator@V?$_Vector_val@PAVioBaseChar@@V?$allocator@PAVioBaseChar@@@std@@@std@@@std@@QAEAAV01@XZ PROC ; std::_Vector_const_iterator<std::_Vector_val<ioBaseChar *,std::allocator<ioBaseChar *> > >::operator++, COMDAT
; _this$ = ecx

; 93   : 		{	// preincrement

  00000	8b c1		 mov	 eax, ecx

; 94   :  #if _ITERATOR_DEBUG_LEVEL == 2
; 95   : 		if (this->_Getcont() == 0
; 96   : 			|| this->_Ptr == 0
; 97   : 			|| ((_Myvec *)this->_Getcont())->_Mylast <= this->_Ptr)
; 98   : 			{	// report error
; 99   : 			_DEBUG_ERROR("vector iterator not incrementable");
; 100  : 			_SCL_SECURE_OUT_OF_RANGE;
; 101  : 			}
; 102  : 
; 103  :  #elif _ITERATOR_DEBUG_LEVEL == 1
; 104  : 		_SCL_SECURE_VALIDATE(this->_Getcont() != 0);
; 105  : 		_SCL_SECURE_VALIDATE_RANGE(
; 106  : 			this->_Ptr != 0
; 107  : 			&& this->_Ptr < ((_Myvec *)this->_Getcont())->_Mylast);
; 108  :  #endif /* _ITERATOR_DEBUG_LEVEL */
; 109  : 
; 110  : 		++this->_Ptr;

  00002	83 00 04	 add	 DWORD PTR [eax], 4

; 111  : 		return (*this);
; 112  : 		}

  00005	c3		 ret	 0
??E?$_Vector_const_iterator@V?$_Vector_val@PAVioBaseChar@@V?$allocator@PAVioBaseChar@@@std@@@std@@@std@@QAEAAV01@XZ ENDP ; std::_Vector_const_iterator<std::_Vector_val<ioBaseChar *,std::allocator<ioBaseChar *> > >::operator++
_TEXT	ENDS
PUBLIC	??0?$_Vector_iterator@V?$_Vector_val@PAVioBaseChar@@V?$allocator@PAVioBaseChar@@@std@@@std@@@std@@QAE@XZ ; std::_Vector_iterator<std::_Vector_val<ioBaseChar *,std::allocator<ioBaseChar *> > >::_Vector_iterator<std::_Vector_val<ioBaseChar *,std::allocator<ioBaseChar *> > >
; Function compile flags: /Ogsp
;	COMDAT ??0?$_Vector_iterator@V?$_Vector_val@PAVioBaseChar@@V?$allocator@PAVioBaseChar@@@std@@@std@@@std@@QAE@XZ
_TEXT	SEGMENT
??0?$_Vector_iterator@V?$_Vector_val@PAVioBaseChar@@V?$allocator@PAVioBaseChar@@@std@@@std@@@std@@QAE@XZ PROC ; std::_Vector_iterator<std::_Vector_val<ioBaseChar *,std::allocator<ioBaseChar *> > >::_Vector_iterator<std::_Vector_val<ioBaseChar *,std::allocator<ioBaseChar *> > >, COMDAT
; _this$ = ecx

; 298  : 	_Vector_iterator()

  00000	8b c1		 mov	 eax, ecx
  00002	83 20 00	 and	 DWORD PTR [eax], 0

; 299  : 		{	// construct with null vector pointer
; 300  : 		}

  00005	c3		 ret	 0
??0?$_Vector_iterator@V?$_Vector_val@PAVioBaseChar@@V?$allocator@PAVioBaseChar@@@std@@@std@@@std@@QAE@XZ ENDP ; std::_Vector_iterator<std::_Vector_val<ioBaseChar *,std::allocator<ioBaseChar *> > >::_Vector_iterator<std::_Vector_val<ioBaseChar *,std::allocator<ioBaseChar *> > >
_TEXT	ENDS
PUBLIC	??D?$_Vector_iterator@V?$_Vector_val@PAVioBaseChar@@V?$allocator@PAVioBaseChar@@@std@@@std@@@std@@QBEAAPAVioBaseChar@@XZ ; std::_Vector_iterator<std::_Vector_val<ioBaseChar *,std::allocator<ioBaseChar *> > >::operator*
; Function compile flags: /Ogsp
;	COMDAT ??D?$_Vector_iterator@V?$_Vector_val@PAVioBaseChar@@V?$allocator@PAVioBaseChar@@@std@@@std@@@std@@QBEAAPAVioBaseChar@@XZ
_TEXT	SEGMENT
??D?$_Vector_iterator@V?$_Vector_val@PAVioBaseChar@@V?$allocator@PAVioBaseChar@@@std@@@std@@@std@@QBEAAPAVioBaseChar@@XZ PROC ; std::_Vector_iterator<std::_Vector_val<ioBaseChar *,std::allocator<ioBaseChar *> > >::operator*, COMDAT
; _this$ = ecx

; 322  : 		return ((reference)**(_Mybase *)this);

  00000	8b 01		 mov	 eax, DWORD PTR [ecx]

; 323  : 		}

  00002	c3		 ret	 0
??D?$_Vector_iterator@V?$_Vector_val@PAVioBaseChar@@V?$allocator@PAVioBaseChar@@@std@@@std@@@std@@QBEAAPAVioBaseChar@@XZ ENDP ; std::_Vector_iterator<std::_Vector_val<ioBaseChar *,std::allocator<ioBaseChar *> > >::operator*
_TEXT	ENDS
PUBLIC	??E?$_Vector_iterator@V?$_Vector_val@PAVioBaseChar@@V?$allocator@PAVioBaseChar@@@std@@@std@@@std@@QAEAAV01@XZ ; std::_Vector_iterator<std::_Vector_val<ioBaseChar *,std::allocator<ioBaseChar *> > >::operator++
; Function compile flags: /Ogsp
;	COMDAT ??E?$_Vector_iterator@V?$_Vector_val@PAVioBaseChar@@V?$allocator@PAVioBaseChar@@@std@@@std@@@std@@QAEAAV01@XZ
_TEXT	SEGMENT
??E?$_Vector_iterator@V?$_Vector_val@PAVioBaseChar@@V?$allocator@PAVioBaseChar@@@std@@@std@@@std@@QAEAAV01@XZ PROC ; std::_Vector_iterator<std::_Vector_val<ioBaseChar *,std::allocator<ioBaseChar *> > >::operator++, COMDAT
; _this$ = ecx

; 331  : 		{	// preincrement

  00000	8b c1		 mov	 eax, ecx

; 332  : 		++*(_Mybase *)this;

  00002	83 00 04	 add	 DWORD PTR [eax], 4

; 333  : 		return (*this);
; 334  : 		}

  00005	c3		 ret	 0
??E?$_Vector_iterator@V?$_Vector_val@PAVioBaseChar@@V?$allocator@PAVioBaseChar@@@std@@@std@@@std@@QAEAAV01@XZ ENDP ; std::_Vector_iterator<std::_Vector_val<ioBaseChar *,std::allocator<ioBaseChar *> > >::operator++
_TEXT	ENDS
PUBLIC	?capacity@?$vector@VioHashString@@V?$allocator@VioHashString@@@std@@@std@@QBEIXZ ; std::vector<ioHashString,std::allocator<ioHashString> >::capacity
; Function compile flags: /Ogsp
;	COMDAT ?capacity@?$vector@VioHashString@@V?$allocator@VioHashString@@@std@@@std@@QBEIXZ
_TEXT	SEGMENT
?capacity@?$vector@VioHashString@@V?$allocator@VioHashString@@@std@@@std@@QBEIXZ PROC ; std::vector<ioHashString,std::allocator<ioHashString> >::capacity, COMDAT
; _this$ = ecx

; 777  : 		return (this->_Myend - this->_Myfirst);

  00000	8b 41 08	 mov	 eax, DWORD PTR [ecx+8]
  00003	2b 01		 sub	 eax, DWORD PTR [ecx]
  00005	c1 f8 04	 sar	 eax, 4

; 778  : 		}

  00008	c3		 ret	 0
?capacity@?$vector@VioHashString@@V?$allocator@VioHashString@@@std@@@std@@QBEIXZ ENDP ; std::vector<ioHashString,std::allocator<ioHashString> >::capacity
_TEXT	ENDS
PUBLIC	?_Inside@?$vector@VioHashString@@V?$allocator@VioHashString@@@std@@@std@@IBE_NPBVioHashString@@@Z ; std::vector<ioHashString,std::allocator<ioHashString> >::_Inside
; Function compile flags: /Ogsp
;	COMDAT ?_Inside@?$vector@VioHashString@@V?$allocator@VioHashString@@@std@@@std@@IBE_NPBVioHashString@@@Z
_TEXT	SEGMENT
__Ptr$ = 8						; size = 4
?_Inside@?$vector@VioHashString@@V?$allocator@VioHashString@@@std@@@std@@IBE_NPBVioHashString@@@Z PROC ; std::vector<ioHashString,std::allocator<ioHashString> >::_Inside, COMDAT
; _this$ = ecx

; 1285 : 		{	// test if _Ptr points inside vector

  00000	55		 push	 ebp
  00001	8b ec		 mov	 ebp, esp

; 1286 : 		return (_Ptr < this->_Mylast && this->_Myfirst <= _Ptr);

  00003	8b 45 08	 mov	 eax, DWORD PTR __Ptr$[ebp]
  00006	3b 41 04	 cmp	 eax, DWORD PTR [ecx+4]
  00009	73 09		 jae	 SHORT $LN3@Inside
  0000b	39 01		 cmp	 DWORD PTR [ecx], eax
  0000d	77 05		 ja	 SHORT $LN3@Inside
  0000f	33 c0		 xor	 eax, eax
  00011	40		 inc	 eax
  00012	eb 02		 jmp	 SHORT $LN4@Inside
$LN3@Inside:
  00014	33 c0		 xor	 eax, eax
$LN4@Inside:

; 1287 : 		}

  00016	5d		 pop	 ebp
  00017	c2 04 00	 ret	 4
?_Inside@?$vector@VioHashString@@V?$allocator@VioHashString@@@std@@@std@@IBE_NPBVioHashString@@@Z ENDP ; std::vector<ioHashString,std::allocator<ioHashString> >::_Inside
_TEXT	ENDS
PUBLIC	?_Orphan_range@?$vector@VioHashString@@V?$allocator@VioHashString@@@std@@@std@@IBEXPAVioHashString@@0@Z ; std::vector<ioHashString,std::allocator<ioHashString> >::_Orphan_range
; Function compile flags: /Ogsp
;	COMDAT ?_Orphan_range@?$vector@VioHashString@@V?$allocator@VioHashString@@@std@@@std@@IBEXPAVioHashString@@0@Z
_TEXT	SEGMENT
___formal$ = 8						; size = 4
___formal$ = 12						; size = 4
?_Orphan_range@?$vector@VioHashString@@V?$allocator@VioHashString@@@std@@@std@@IBEXPAVioHashString@@0@Z PROC ; std::vector<ioHashString,std::allocator<ioHashString> >::_Orphan_range, COMDAT
; _this$ = ecx

; 1454 : 		}

  00000	c2 08 00	 ret	 8
?_Orphan_range@?$vector@VioHashString@@V?$allocator@VioHashString@@@std@@@std@@IBEXPAVioHashString@@0@Z ENDP ; std::vector<ioHashString,std::allocator<ioHashString> >::_Orphan_range
_TEXT	ENDS
PUBLIC	?_Inside@?$vector@PAVioBaseChar@@V?$allocator@PAVioBaseChar@@@std@@@std@@IBE_NPBQAVioBaseChar@@@Z ; std::vector<ioBaseChar *,std::allocator<ioBaseChar *> >::_Inside
; Function compile flags: /Ogsp
;	COMDAT ?_Inside@?$vector@PAVioBaseChar@@V?$allocator@PAVioBaseChar@@@std@@@std@@IBE_NPBQAVioBaseChar@@@Z
_TEXT	SEGMENT
__Ptr$ = 8						; size = 4
?_Inside@?$vector@PAVioBaseChar@@V?$allocator@PAVioBaseChar@@@std@@@std@@IBE_NPBQAVioBaseChar@@@Z PROC ; std::vector<ioBaseChar *,std::allocator<ioBaseChar *> >::_Inside, COMDAT
; _this$ = ecx

; 1285 : 		{	// test if _Ptr points inside vector

  00000	55		 push	 ebp
  00001	8b ec		 mov	 ebp, esp

; 1286 : 		return (_Ptr < this->_Mylast && this->_Myfirst <= _Ptr);

  00003	8b 45 08	 mov	 eax, DWORD PTR __Ptr$[ebp]
  00006	3b 41 04	 cmp	 eax, DWORD PTR [ecx+4]
  00009	73 09		 jae	 SHORT $LN3@Inside@2
  0000b	39 01		 cmp	 DWORD PTR [ecx], eax
  0000d	77 05		 ja	 SHORT $LN3@Inside@2
  0000f	33 c0		 xor	 eax, eax
  00011	40		 inc	 eax
  00012	eb 02		 jmp	 SHORT $LN4@Inside@2
$LN3@Inside@2:
  00014	33 c0		 xor	 eax, eax
$LN4@Inside@2:

; 1287 : 		}

  00016	5d		 pop	 ebp
  00017	c2 04 00	 ret	 4
?_Inside@?$vector@PAVioBaseChar@@V?$allocator@PAVioBaseChar@@@std@@@std@@IBE_NPBQAVioBaseChar@@@Z ENDP ; std::vector<ioBaseChar *,std::allocator<ioBaseChar *> >::_Inside
_TEXT	ENDS
PUBLIC	?_Orphan_range@?$vector@PAVioBaseChar@@V?$allocator@PAVioBaseChar@@@std@@@std@@IBEXPAPAVioBaseChar@@0@Z ; std::vector<ioBaseChar *,std::allocator<ioBaseChar *> >::_Orphan_range
; Function compile flags: /Ogsp
;	COMDAT ?_Orphan_range@?$vector@PAVioBaseChar@@V?$allocator@PAVioBaseChar@@@std@@@std@@IBEXPAPAVioBaseChar@@0@Z
_TEXT	SEGMENT
___formal$ = 8						; size = 4
___formal$ = 12						; size = 4
?_Orphan_range@?$vector@PAVioBaseChar@@V?$allocator@PAVioBaseChar@@@std@@@std@@IBEXPAPAVioBaseChar@@0@Z PROC ; std::vector<ioBaseChar *,std::allocator<ioBaseChar *> >::_Orphan_range, COMDAT
; _this$ = ecx

; 1454 : 		}

  00000	c2 08 00	 ret	 8
?_Orphan_range@?$vector@PAVioBaseChar@@V?$allocator@PAVioBaseChar@@@std@@@std@@IBEXPAPAVioBaseChar@@0@Z ENDP ; std::vector<ioBaseChar *,std::allocator<ioBaseChar *> >::_Orphan_range
_TEXT	ENDS
PUBLIC	??1?$_Vector_val@PAVioBaseChar@@V?$allocator@PAVioBaseChar@@@std@@@std@@QAE@XZ ; std::_Vector_val<ioBaseChar *,std::allocator<ioBaseChar *> >::~_Vector_val<ioBaseChar *,std::allocator<ioBaseChar *> >
; Function compile flags: /Ogsp
;	COMDAT ??1?$_Vector_val@PAVioBaseChar@@V?$allocator@PAVioBaseChar@@@std@@@std@@QAE@XZ
_TEXT	SEGMENT
??1?$_Vector_val@PAVioBaseChar@@V?$allocator@PAVioBaseChar@@@std@@@std@@QAE@XZ PROC ; std::_Vector_val<ioBaseChar *,std::allocator<ioBaseChar *> >::~_Vector_val<ioBaseChar *,std::allocator<ioBaseChar *> >, COMDAT
; _this$ = ecx

; 434  : 		}

  00000	c3		 ret	 0
??1?$_Vector_val@PAVioBaseChar@@V?$allocator@PAVioBaseChar@@@std@@@std@@QAE@XZ ENDP ; std::_Vector_val<ioBaseChar *,std::allocator<ioBaseChar *> >::~_Vector_val<ioBaseChar *,std::allocator<ioBaseChar *> >
_TEXT	ENDS
PUBLIC	??0?$allocator@PAVioBaseChar@@@std@@QAE@XZ	; std::allocator<ioBaseChar *>::allocator<ioBaseChar *>
; Function compile flags: /Ogsp
; File c:\program files (x86)\microsoft visual studio 10.0\vc\include\xmemory
;	COMDAT ??0?$allocator@PAVioBaseChar@@@std@@QAE@XZ
_TEXT	SEGMENT
??0?$allocator@PAVioBaseChar@@@std@@QAE@XZ PROC		; std::allocator<ioBaseChar *>::allocator<ioBaseChar *>, COMDAT
; _this$ = ecx

; 161  : 	_ALLOCATOR() _THROW0()

  00000	8b c1		 mov	 eax, ecx

; 162  : 		{	// construct default allocator (do nothing)
; 163  : 		}

  00002	c3		 ret	 0
??0?$allocator@PAVioBaseChar@@@std@@QAE@XZ ENDP		; std::allocator<ioBaseChar *>::allocator<ioBaseChar *>
_TEXT	ENDS
PUBLIC	?capacity@?$vector@UCallBuff@@V?$allocator@UCallBuff@@@std@@@std@@QBEIXZ ; std::vector<CallBuff,std::allocator<CallBuff> >::capacity
; Function compile flags: /Ogsp
; File c:\program files (x86)\microsoft visual studio 10.0\vc\include\vector
;	COMDAT ?capacity@?$vector@UCallBuff@@V?$allocator@UCallBuff@@@std@@@std@@QBEIXZ
_TEXT	SEGMENT
?capacity@?$vector@UCallBuff@@V?$allocator@UCallBuff@@@std@@@std@@QBEIXZ PROC ; std::vector<CallBuff,std::allocator<CallBuff> >::capacity, COMDAT
; _this$ = ecx

; 777  : 		return (this->_Myend - this->_Myfirst);

  00000	8b 41 08	 mov	 eax, DWORD PTR [ecx+8]
  00003	2b 01		 sub	 eax, DWORD PTR [ecx]
  00005	6a 14		 push	 20			; 00000014H
  00007	99		 cdq
  00008	59		 pop	 ecx
  00009	f7 f9		 idiv	 ecx

; 778  : 		}

  0000b	c3		 ret	 0
?capacity@?$vector@UCallBuff@@V?$allocator@UCallBuff@@@std@@@std@@QBEIXZ ENDP ; std::vector<CallBuff,std::allocator<CallBuff> >::capacity
_TEXT	ENDS
PUBLIC	?size@?$vector@UCallBuff@@V?$allocator@UCallBuff@@@std@@@std@@QBEIXZ ; std::vector<CallBuff,std::allocator<CallBuff> >::size
; Function compile flags: /Ogsp
;	COMDAT ?size@?$vector@UCallBuff@@V?$allocator@UCallBuff@@@std@@@std@@QBEIXZ
_TEXT	SEGMENT
?size@?$vector@UCallBuff@@V?$allocator@UCallBuff@@@std@@@std@@QBEIXZ PROC ; std::vector<CallBuff,std::allocator<CallBuff> >::size, COMDAT
; _this$ = ecx

; 879  : 		return (this->_Mylast - this->_Myfirst);

  00000	8b 41 04	 mov	 eax, DWORD PTR [ecx+4]
  00003	2b 01		 sub	 eax, DWORD PTR [ecx]
  00005	6a 14		 push	 20			; 00000014H
  00007	99		 cdq
  00008	59		 pop	 ecx
  00009	f7 f9		 idiv	 ecx

; 880  : 		}

  0000b	c3		 ret	 0
?size@?$vector@UCallBuff@@V?$allocator@UCallBuff@@@std@@@std@@QBEIXZ ENDP ; std::vector<CallBuff,std::allocator<CallBuff> >::size
_TEXT	ENDS
PUBLIC	?_Inside@?$vector@UCallBuff@@V?$allocator@UCallBuff@@@std@@@std@@IBE_NPBUCallBuff@@@Z ; std::vector<CallBuff,std::allocator<CallBuff> >::_Inside
; Function compile flags: /Ogsp
;	COMDAT ?_Inside@?$vector@UCallBuff@@V?$allocator@UCallBuff@@@std@@@std@@IBE_NPBUCallBuff@@@Z
_TEXT	SEGMENT
__Ptr$ = 8						; size = 4
?_Inside@?$vector@UCallBuff@@V?$allocator@UCallBuff@@@std@@@std@@IBE_NPBUCallBuff@@@Z PROC ; std::vector<CallBuff,std::allocator<CallBuff> >::_Inside, COMDAT
; _this$ = ecx

; 1285 : 		{	// test if _Ptr points inside vector

  00000	55		 push	 ebp
  00001	8b ec		 mov	 ebp, esp

; 1286 : 		return (_Ptr < this->_Mylast && this->_Myfirst <= _Ptr);

  00003	8b 45 08	 mov	 eax, DWORD PTR __Ptr$[ebp]
  00006	3b 41 04	 cmp	 eax, DWORD PTR [ecx+4]
  00009	73 09		 jae	 SHORT $LN3@Inside@3
  0000b	39 01		 cmp	 DWORD PTR [ecx], eax
  0000d	77 05		 ja	 SHORT $LN3@Inside@3
  0000f	33 c0		 xor	 eax, eax
  00011	40		 inc	 eax
  00012	eb 02		 jmp	 SHORT $LN4@Inside@3
$LN3@Inside@3:
  00014	33 c0		 xor	 eax, eax
$LN4@Inside@3:

; 1287 : 		}

  00016	5d		 pop	 ebp
  00017	c2 04 00	 ret	 4
?_Inside@?$vector@UCallBuff@@V?$allocator@UCallBuff@@@std@@@std@@IBE_NPBUCallBuff@@@Z ENDP ; std::vector<CallBuff,std::allocator<CallBuff> >::_Inside
_TEXT	ENDS
PUBLIC	??_C@_0BD@OLBABOEK@vector?$DMT?$DO?5too?5long?$AA@ ; `string'
PUBLIC	?_Xlen@?$vector@UCallBuff@@V?$allocator@UCallBuff@@@std@@@std@@IBEXXZ ; std::vector<CallBuff,std::allocator<CallBuff> >::_Xlen
EXTRN	__imp_?_Xlength_error@std@@YAXPBD@Z:PROC
;	COMDAT ??_C@_0BD@OLBABOEK@vector?$DMT?$DO?5too?5long?$AA@
CONST	SEGMENT
??_C@_0BD@OLBABOEK@vector?$DMT?$DO?5too?5long?$AA@ DB 'vector<T> too long'
	DB	00H						; `string'
; Function compile flags: /Ogsp
CONST	ENDS
;	COMDAT ?_Xlen@?$vector@UCallBuff@@V?$allocator@UCallBuff@@@std@@@std@@IBEXXZ
_TEXT	SEGMENT
?_Xlen@?$vector@UCallBuff@@V?$allocator@UCallBuff@@@std@@@std@@IBEXXZ PROC ; std::vector<CallBuff,std::allocator<CallBuff> >::_Xlen, COMDAT
; _this$ = ecx

; 1427 : 		_Xlength_error("vector<T> too long");

  00000	68 00 00 00 00	 push	 OFFSET ??_C@_0BD@OLBABOEK@vector?$DMT?$DO?5too?5long?$AA@
  00005	ff 15 00 00 00
	00		 call	 DWORD PTR __imp_?_Xlength_error@std@@YAXPBD@Z
$LN4@Xlen:
$LN3@Xlen:
  0000b	cc		 int	 3
?_Xlen@?$vector@UCallBuff@@V?$allocator@UCallBuff@@@std@@@std@@IBEXXZ ENDP ; std::vector<CallBuff,std::allocator<CallBuff> >::_Xlen
_TEXT	ENDS
PUBLIC	?_Orphan_range@?$vector@UCallBuff@@V?$allocator@UCallBuff@@@std@@@std@@IBEXPAUCallBuff@@0@Z ; std::vector<CallBuff,std::allocator<CallBuff> >::_Orphan_range
; Function compile flags: /Ogsp
;	COMDAT ?_Orphan_range@?$vector@UCallBuff@@V?$allocator@UCallBuff@@@std@@@std@@IBEXPAUCallBuff@@0@Z
_TEXT	SEGMENT
___formal$ = 8						; size = 4
___formal$ = 12						; size = 4
?_Orphan_range@?$vector@UCallBuff@@V?$allocator@UCallBuff@@@std@@@std@@IBEXPAUCallBuff@@0@Z PROC ; std::vector<CallBuff,std::allocator<CallBuff> >::_Orphan_range, COMDAT
; _this$ = ecx

; 1454 : 		}

  00000	c2 08 00	 ret	 8
?_Orphan_range@?$vector@UCallBuff@@V?$allocator@UCallBuff@@@std@@@std@@IBEXPAUCallBuff@@0@Z ENDP ; std::vector<CallBuff,std::allocator<CallBuff> >::_Orphan_range
_TEXT	ENDS
PUBLIC	??1?$_Vector_val@UCallBuff@@V?$allocator@UCallBuff@@@std@@@std@@QAE@XZ ; std::_Vector_val<CallBuff,std::allocator<CallBuff> >::~_Vector_val<CallBuff,std::allocator<CallBuff> >
; Function compile flags: /Ogsp
;	COMDAT ??1?$_Vector_val@UCallBuff@@V?$allocator@UCallBuff@@@std@@@std@@QAE@XZ
_TEXT	SEGMENT
??1?$_Vector_val@UCallBuff@@V?$allocator@UCallBuff@@@std@@@std@@QAE@XZ PROC ; std::_Vector_val<CallBuff,std::allocator<CallBuff> >::~_Vector_val<CallBuff,std::allocator<CallBuff> >, COMDAT
; _this$ = ecx

; 434  : 		}

  00000	c3		 ret	 0
??1?$_Vector_val@UCallBuff@@V?$allocator@UCallBuff@@@std@@@std@@QAE@XZ ENDP ; std::_Vector_val<CallBuff,std::allocator<CallBuff> >::~_Vector_val<CallBuff,std::allocator<CallBuff> >
_TEXT	ENDS
PUBLIC	??0?$allocator@UCallBuff@@@std@@QAE@XZ		; std::allocator<CallBuff>::allocator<CallBuff>
; Function compile flags: /Ogsp
; File c:\program files (x86)\microsoft visual studio 10.0\vc\include\xmemory
;	COMDAT ??0?$allocator@UCallBuff@@@std@@QAE@XZ
_TEXT	SEGMENT
??0?$allocator@UCallBuff@@@std@@QAE@XZ PROC		; std::allocator<CallBuff>::allocator<CallBuff>, COMDAT
; _this$ = ecx

; 161  : 	_ALLOCATOR() _THROW0()

  00000	8b c1		 mov	 eax, ecx

; 162  : 		{	// construct default allocator (do nothing)
; 163  : 		}

  00002	c3		 ret	 0
??0?$allocator@UCallBuff@@@std@@QAE@XZ ENDP		; std::allocator<CallBuff>::allocator<CallBuff>
_TEXT	ENDS
PUBLIC	??0?$allocator@UCallBuff@@@std@@QAE@ABV01@@Z	; std::allocator<CallBuff>::allocator<CallBuff>
; Function compile flags: /Ogsp
;	COMDAT ??0?$allocator@UCallBuff@@@std@@QAE@ABV01@@Z
_TEXT	SEGMENT
___formal$ = 8						; size = 4
??0?$allocator@UCallBuff@@@std@@QAE@ABV01@@Z PROC	; std::allocator<CallBuff>::allocator<CallBuff>, COMDAT
; _this$ = ecx

; 165  : 	_ALLOCATOR(const _ALLOCATOR<_Ty>&) _THROW0()

  00000	8b c1		 mov	 eax, ecx

; 166  : 		{	// construct by copying (do nothing)
; 167  : 		}

  00002	c2 04 00	 ret	 4
??0?$allocator@UCallBuff@@@std@@QAE@ABV01@@Z ENDP	; std::allocator<CallBuff>::allocator<CallBuff>
_TEXT	ENDS
PUBLIC	?deallocate@?$allocator@UCallBuff@@@std@@QAEXPAUCallBuff@@I@Z ; std::allocator<CallBuff>::deallocate
; Function compile flags: /Ogsp
;	COMDAT ?deallocate@?$allocator@UCallBuff@@@std@@QAEXPAUCallBuff@@I@Z
_TEXT	SEGMENT
__Ptr$ = 8						; size = 4
___formal$ = 12						; size = 4
?deallocate@?$allocator@UCallBuff@@@std@@QAEXPAUCallBuff@@I@Z PROC ; std::allocator<CallBuff>::deallocate, COMDAT
; _this$ = ecx

; 181  : 		{	// deallocate object at _Ptr, ignore size

  00000	55		 push	 ebp
  00001	8b ec		 mov	 ebp, esp

; 182  : 		::operator delete(_Ptr);

  00003	ff 75 08	 push	 DWORD PTR __Ptr$[ebp]
  00006	e8 00 00 00 00	 call	 ??3@YAXPAX@Z		; operator delete
  0000b	59		 pop	 ecx

; 183  : 		}

  0000c	5d		 pop	 ebp
  0000d	c2 08 00	 ret	 8
?deallocate@?$allocator@UCallBuff@@@std@@QAEXPAUCallBuff@@I@Z ENDP ; std::allocator<CallBuff>::deallocate
_TEXT	ENDS
PUBLIC	??0?$_Vector_const_iterator@V?$_Vector_val@VioHashString@@V?$allocator@VioHashString@@@std@@@std@@@std@@QAE@XZ ; std::_Vector_const_iterator<std::_Vector_val<ioHashString,std::allocator<ioHashString> > >::_Vector_const_iterator<std::_Vector_val<ioHashString,std::allocator<ioHashString> > >
; Function compile flags: /Ogsp
; File c:\program files (x86)\microsoft visual studio 10.0\vc\include\vector
;	COMDAT ??0?$_Vector_const_iterator@V?$_Vector_val@VioHashString@@V?$allocator@VioHashString@@@std@@@std@@@std@@QAE@XZ
_TEXT	SEGMENT
??0?$_Vector_const_iterator@V?$_Vector_val@VioHashString@@V?$allocator@VioHashString@@@std@@@std@@@std@@QAE@XZ PROC ; std::_Vector_const_iterator<std::_Vector_val<ioHashString,std::allocator<ioHashString> > >::_Vector_const_iterator<std::_Vector_val<ioHashString,std::allocator<ioHashString> > >, COMDAT
; _this$ = ecx

; 40   : 		{	// construct with null pointer

  00000	8b c1		 mov	 eax, ecx
  00002	83 20 00	 and	 DWORD PTR [eax], 0

; 41   : 		}

  00005	c3		 ret	 0
??0?$_Vector_const_iterator@V?$_Vector_val@VioHashString@@V?$allocator@VioHashString@@@std@@@std@@@std@@QAE@XZ ENDP ; std::_Vector_const_iterator<std::_Vector_val<ioHashString,std::allocator<ioHashString> > >::_Vector_const_iterator<std::_Vector_val<ioHashString,std::allocator<ioHashString> > >
_TEXT	ENDS
PUBLIC	??0?$_Vector_const_iterator@V?$_Vector_val@UCallBuff@@V?$allocator@UCallBuff@@@std@@@std@@@std@@QAE@XZ ; std::_Vector_const_iterator<std::_Vector_val<CallBuff,std::allocator<CallBuff> > >::_Vector_const_iterator<std::_Vector_val<CallBuff,std::allocator<CallBuff> > >
; Function compile flags: /Ogsp
;	COMDAT ??0?$_Vector_const_iterator@V?$_Vector_val@UCallBuff@@V?$allocator@UCallBuff@@@std@@@std@@@std@@QAE@XZ
_TEXT	SEGMENT
??0?$_Vector_const_iterator@V?$_Vector_val@UCallBuff@@V?$allocator@UCallBuff@@@std@@@std@@@std@@QAE@XZ PROC ; std::_Vector_const_iterator<std::_Vector_val<CallBuff,std::allocator<CallBuff> > >::_Vector_const_iterator<std::_Vector_val<CallBuff,std::allocator<CallBuff> > >, COMDAT
; _this$ = ecx

; 40   : 		{	// construct with null pointer

  00000	8b c1		 mov	 eax, ecx
  00002	83 20 00	 and	 DWORD PTR [eax], 0

; 41   : 		}

  00005	c3		 ret	 0
??0?$_Vector_const_iterator@V?$_Vector_val@UCallBuff@@V?$allocator@UCallBuff@@@std@@@std@@@std@@QAE@XZ ENDP ; std::_Vector_const_iterator<std::_Vector_val<CallBuff,std::allocator<CallBuff> > >::_Vector_const_iterator<std::_Vector_val<CallBuff,std::allocator<CallBuff> > >
_TEXT	ENDS
PUBLIC	??D?$_Vector_const_iterator@V?$_Vector_val@UCallBuff@@V?$allocator@UCallBuff@@@std@@@std@@@std@@QBEABUCallBuff@@XZ ; std::_Vector_const_iterator<std::_Vector_val<CallBuff,std::allocator<CallBuff> > >::operator*
; Function compile flags: /Ogsp
;	COMDAT ??D?$_Vector_const_iterator@V?$_Vector_val@UCallBuff@@V?$allocator@UCallBuff@@@std@@@std@@@std@@QBEABUCallBuff@@XZ
_TEXT	SEGMENT
??D?$_Vector_const_iterator@V?$_Vector_val@UCallBuff@@V?$allocator@UCallBuff@@@std@@@std@@@std@@QBEABUCallBuff@@XZ PROC ; std::_Vector_const_iterator<std::_Vector_val<CallBuff,std::allocator<CallBuff> > >::operator*, COMDAT
; _this$ = ecx

; 64   :  #if _ITERATOR_DEBUG_LEVEL == 2
; 65   : 		if (this->_Getcont() == 0
; 66   : 			|| this->_Ptr == 0
; 67   : 			|| this->_Ptr < ((_Myvec *)this->_Getcont())->_Myfirst
; 68   : 			|| ((_Myvec *)this->_Getcont())->_Mylast <= this->_Ptr)
; 69   : 			{	// report error
; 70   : 			_DEBUG_ERROR("vector iterator not dereferencable");
; 71   : 			_SCL_SECURE_OUT_OF_RANGE;
; 72   : 			}
; 73   : 
; 74   :  #elif _ITERATOR_DEBUG_LEVEL == 1
; 75   : 		_SCL_SECURE_VALIDATE(this->_Getcont() != 0);
; 76   : 		_SCL_SECURE_VALIDATE_RANGE(
; 77   : 			this->_Ptr != 0
; 78   : 			&& ((_Myvec *)this->_Getcont())->_Myfirst <= this->_Ptr
; 79   : 			&& this->_Ptr < ((_Myvec *)this->_Getcont())->_Mylast);
; 80   :  #endif /* _ITERATOR_DEBUG_LEVEL */
; 81   : 
; 82   : 		__analysis_assume(this->_Ptr != 0);
; 83   : 
; 84   : 		return (*this->_Ptr);

  00000	8b 01		 mov	 eax, DWORD PTR [ecx]

; 85   : 		}

  00002	c3		 ret	 0
??D?$_Vector_const_iterator@V?$_Vector_val@UCallBuff@@V?$allocator@UCallBuff@@@std@@@std@@@std@@QBEABUCallBuff@@XZ ENDP ; std::_Vector_const_iterator<std::_Vector_val<CallBuff,std::allocator<CallBuff> > >::operator*
_TEXT	ENDS
PUBLIC	??E?$_Vector_const_iterator@V?$_Vector_val@UCallBuff@@V?$allocator@UCallBuff@@@std@@@std@@@std@@QAEAAV01@XZ ; std::_Vector_const_iterator<std::_Vector_val<CallBuff,std::allocator<CallBuff> > >::operator++
; Function compile flags: /Ogsp
;	COMDAT ??E?$_Vector_const_iterator@V?$_Vector_val@UCallBuff@@V?$allocator@UCallBuff@@@std@@@std@@@std@@QAEAAV01@XZ
_TEXT	SEGMENT
??E?$_Vector_const_iterator@V?$_Vector_val@UCallBuff@@V?$allocator@UCallBuff@@@std@@@std@@@std@@QAEAAV01@XZ PROC ; std::_Vector_const_iterator<std::_Vector_val<CallBuff,std::allocator<CallBuff> > >::operator++, COMDAT
; _this$ = ecx

; 93   : 		{	// preincrement

  00000	8b c1		 mov	 eax, ecx

; 94   :  #if _ITERATOR_DEBUG_LEVEL == 2
; 95   : 		if (this->_Getcont() == 0
; 96   : 			|| this->_Ptr == 0
; 97   : 			|| ((_Myvec *)this->_Getcont())->_Mylast <= this->_Ptr)
; 98   : 			{	// report error
; 99   : 			_DEBUG_ERROR("vector iterator not incrementable");
; 100  : 			_SCL_SECURE_OUT_OF_RANGE;
; 101  : 			}
; 102  : 
; 103  :  #elif _ITERATOR_DEBUG_LEVEL == 1
; 104  : 		_SCL_SECURE_VALIDATE(this->_Getcont() != 0);
; 105  : 		_SCL_SECURE_VALIDATE_RANGE(
; 106  : 			this->_Ptr != 0
; 107  : 			&& this->_Ptr < ((_Myvec *)this->_Getcont())->_Mylast);
; 108  :  #endif /* _ITERATOR_DEBUG_LEVEL */
; 109  : 
; 110  : 		++this->_Ptr;

  00002	83 00 14	 add	 DWORD PTR [eax], 20	; 00000014H

; 111  : 		return (*this);
; 112  : 		}

  00005	c3		 ret	 0
??E?$_Vector_const_iterator@V?$_Vector_val@UCallBuff@@V?$allocator@UCallBuff@@@std@@@std@@@std@@QAEAAV01@XZ ENDP ; std::_Vector_const_iterator<std::_Vector_val<CallBuff,std::allocator<CallBuff> > >::operator++
_TEXT	ENDS
PUBLIC	??0?$_Vector_const_iterator@V?$_Vector_val@PAVioBaseChar@@V?$allocator@PAVioBaseChar@@@std@@@std@@@std@@QAE@PAPAVioBaseChar@@PBU_Container_base0@1@@Z ; std::_Vector_const_iterator<std::_Vector_val<ioBaseChar *,std::allocator<ioBaseChar *> > >::_Vector_const_iterator<std::_Vector_val<ioBaseChar *,std::allocator<ioBaseChar *> > >
; Function compile flags: /Ogsp
;	COMDAT ??0?$_Vector_const_iterator@V?$_Vector_val@PAVioBaseChar@@V?$allocator@PAVioBaseChar@@@std@@@std@@@std@@QAE@PAPAVioBaseChar@@PBU_Container_base0@1@@Z
_TEXT	SEGMENT
__Parg$ = 8						; size = 4
__Pvector$ = 12						; size = 4
??0?$_Vector_const_iterator@V?$_Vector_val@PAVioBaseChar@@V?$allocator@PAVioBaseChar@@@std@@@std@@@std@@QAE@PAPAVioBaseChar@@PBU_Container_base0@1@@Z PROC ; std::_Vector_const_iterator<std::_Vector_val<ioBaseChar *,std::allocator<ioBaseChar *> > >::_Vector_const_iterator<std::_Vector_val<ioBaseChar *,std::allocator<ioBaseChar *> > >, COMDAT
; _this$ = ecx

; 45   : 		{	// construct with pointer _Parg

  00000	55		 push	 ebp
  00001	8b ec		 mov	 ebp, esp
  00003	8b c1		 mov	 eax, ecx
  00005	8b 4d 08	 mov	 ecx, DWORD PTR __Parg$[ebp]
  00008	89 08		 mov	 DWORD PTR [eax], ecx

; 46   : 		this->_Adopt(_Pvector);
; 47   : 		}

  0000a	5d		 pop	 ebp
  0000b	c2 08 00	 ret	 8
??0?$_Vector_const_iterator@V?$_Vector_val@PAVioBaseChar@@V?$allocator@PAVioBaseChar@@@std@@@std@@@std@@QAE@PAPAVioBaseChar@@PBU_Container_base0@1@@Z ENDP ; std::_Vector_const_iterator<std::_Vector_val<ioBaseChar *,std::allocator<ioBaseChar *> > >::_Vector_const_iterator<std::_Vector_val<ioBaseChar *,std::allocator<ioBaseChar *> > >
_TEXT	ENDS
PUBLIC	??0?$_Vector_iterator@V?$_Vector_val@PAVioBaseChar@@V?$allocator@PAVioBaseChar@@@std@@@std@@@std@@QAE@PAPAVioBaseChar@@PBU_Container_base0@1@@Z ; std::_Vector_iterator<std::_Vector_val<ioBaseChar *,std::allocator<ioBaseChar *> > >::_Vector_iterator<std::_Vector_val<ioBaseChar *,std::allocator<ioBaseChar *> > >
; Function compile flags: /Ogsp
;	COMDAT ??0?$_Vector_iterator@V?$_Vector_val@PAVioBaseChar@@V?$allocator@PAVioBaseChar@@@std@@@std@@@std@@QAE@PAPAVioBaseChar@@PBU_Container_base0@1@@Z
_TEXT	SEGMENT
__Parg$ = 8						; size = 4
__Pvector$ = 12						; size = 4
??0?$_Vector_iterator@V?$_Vector_val@PAVioBaseChar@@V?$allocator@PAVioBaseChar@@@std@@@std@@@std@@QAE@PAPAVioBaseChar@@PBU_Container_base0@1@@Z PROC ; std::_Vector_iterator<std::_Vector_val<ioBaseChar *,std::allocator<ioBaseChar *> > >::_Vector_iterator<std::_Vector_val<ioBaseChar *,std::allocator<ioBaseChar *> > >, COMDAT
; _this$ = ecx

; 304  : 		{	// construct with pointer _Parg

  00000	55		 push	 ebp
  00001	8b ec		 mov	 ebp, esp
  00003	8b c1		 mov	 eax, ecx
  00005	8b 4d 08	 mov	 ecx, DWORD PTR __Parg$[ebp]
  00008	89 08		 mov	 DWORD PTR [eax], ecx

; 305  : 		}

  0000a	5d		 pop	 ebp
  0000b	c2 08 00	 ret	 8
??0?$_Vector_iterator@V?$_Vector_val@PAVioBaseChar@@V?$allocator@PAVioBaseChar@@@std@@@std@@@std@@QAE@PAPAVioBaseChar@@PBU_Container_base0@1@@Z ENDP ; std::_Vector_iterator<std::_Vector_val<ioBaseChar *,std::allocator<ioBaseChar *> > >::_Vector_iterator<std::_Vector_val<ioBaseChar *,std::allocator<ioBaseChar *> > >
_TEXT	ENDS
PUBLIC	?capacity@?$vector@PAVioBaseChar@@V?$allocator@PAVioBaseChar@@@std@@@std@@QBEIXZ ; std::vector<ioBaseChar *,std::allocator<ioBaseChar *> >::capacity
; Function compile flags: /Ogsp
;	COMDAT ?capacity@?$vector@PAVioBaseChar@@V?$allocator@PAVioBaseChar@@@std@@@std@@QBEIXZ
_TEXT	SEGMENT
?capacity@?$vector@PAVioBaseChar@@V?$allocator@PAVioBaseChar@@@std@@@std@@QBEIXZ PROC ; std::vector<ioBaseChar *,std::allocator<ioBaseChar *> >::capacity, COMDAT
; _this$ = ecx

; 777  : 		return (this->_Myend - this->_Myfirst);

  00000	8b 41 08	 mov	 eax, DWORD PTR [ecx+8]
  00003	2b 01		 sub	 eax, DWORD PTR [ecx]
  00005	c1 f8 02	 sar	 eax, 2

; 778  : 		}

  00008	c3		 ret	 0
?capacity@?$vector@PAVioBaseChar@@V?$allocator@PAVioBaseChar@@@std@@@std@@QBEIXZ ENDP ; std::vector<ioBaseChar *,std::allocator<ioBaseChar *> >::capacity
_TEXT	ENDS
PUBLIC	?_Make_iter@?$vector@PAVioBaseChar@@V?$allocator@PAVioBaseChar@@@std@@@std@@QBE?AV?$_Vector_iterator@V?$_Vector_val@PAVioBaseChar@@V?$allocator@PAVioBaseChar@@@std@@@std@@@2@V?$_Vector_const_iterator@V?$_Vector_val@PAVioBaseChar@@V?$allocator@PAVioBaseChar@@@std@@@std@@@2@@Z ; std::vector<ioBaseChar *,std::allocator<ioBaseChar *> >::_Make_iter
; Function compile flags: /Ogsp
;	COMDAT ?_Make_iter@?$vector@PAVioBaseChar@@V?$allocator@PAVioBaseChar@@@std@@@std@@QBE?AV?$_Vector_iterator@V?$_Vector_val@PAVioBaseChar@@V?$allocator@PAVioBaseChar@@@std@@@std@@@2@V?$_Vector_const_iterator@V?$_Vector_val@PAVioBaseChar@@V?$allocator@PAVioBaseChar@@@std@@@std@@@2@@Z
_TEXT	SEGMENT
___$ReturnUdt$ = 8					; size = 4
__Where$ = 12						; size = 4
?_Make_iter@?$vector@PAVioBaseChar@@V?$allocator@PAVioBaseChar@@@std@@@std@@QBE?AV?$_Vector_iterator@V?$_Vector_val@PAVioBaseChar@@V?$allocator@PAVioBaseChar@@@std@@@std@@@2@V?$_Vector_const_iterator@V?$_Vector_val@PAVioBaseChar@@V?$allocator@PAVioBaseChar@@@std@@@std@@@2@@Z PROC ; std::vector<ioBaseChar *,std::allocator<ioBaseChar *> >::_Make_iter, COMDAT
; _this$ = ecx

; 801  : 		{	// make iterator from const_iterator

  00000	55		 push	 ebp
  00001	8b ec		 mov	 ebp, esp

; 802  : 		return (iterator(_Where._Ptr, this));

  00003	8b 45 08	 mov	 eax, DWORD PTR ___$ReturnUdt$[ebp]
  00006	8b 4d 0c	 mov	 ecx, DWORD PTR __Where$[ebp]
  00009	89 08		 mov	 DWORD PTR [eax], ecx

; 803  : 		}

  0000b	5d		 pop	 ebp
  0000c	c2 08 00	 ret	 8
?_Make_iter@?$vector@PAVioBaseChar@@V?$allocator@PAVioBaseChar@@@std@@@std@@QBE?AV?$_Vector_iterator@V?$_Vector_val@PAVioBaseChar@@V?$allocator@PAVioBaseChar@@@std@@@std@@@2@V?$_Vector_const_iterator@V?$_Vector_val@PAVioBaseChar@@V?$allocator@PAVioBaseChar@@@std@@@std@@@2@@Z ENDP ; std::vector<ioBaseChar *,std::allocator<ioBaseChar *> >::_Make_iter
_TEXT	ENDS
PUBLIC	?size@?$vector@PAVioBaseChar@@V?$allocator@PAVioBaseChar@@@std@@@std@@QBEIXZ ; std::vector<ioBaseChar *,std::allocator<ioBaseChar *> >::size
; Function compile flags: /Ogsp
;	COMDAT ?size@?$vector@PAVioBaseChar@@V?$allocator@PAVioBaseChar@@@std@@@std@@QBEIXZ
_TEXT	SEGMENT
?size@?$vector@PAVioBaseChar@@V?$allocator@PAVioBaseChar@@@std@@@std@@QBEIXZ PROC ; std::vector<ioBaseChar *,std::allocator<ioBaseChar *> >::size, COMDAT
; _this$ = ecx

; 879  : 		return (this->_Mylast - this->_Myfirst);

  00000	8b 41 04	 mov	 eax, DWORD PTR [ecx+4]
  00003	2b 01		 sub	 eax, DWORD PTR [ecx]
  00005	c1 f8 02	 sar	 eax, 2

; 880  : 		}

  00008	c3		 ret	 0
?size@?$vector@PAVioBaseChar@@V?$allocator@PAVioBaseChar@@@std@@@std@@QBEIXZ ENDP ; std::vector<ioBaseChar *,std::allocator<ioBaseChar *> >::size
_TEXT	ENDS
PUBLIC	?_Xlen@?$vector@PAVioBaseChar@@V?$allocator@PAVioBaseChar@@@std@@@std@@IBEXXZ ; std::vector<ioBaseChar *,std::allocator<ioBaseChar *> >::_Xlen
; Function compile flags: /Ogsp
;	COMDAT ?_Xlen@?$vector@PAVioBaseChar@@V?$allocator@PAVioBaseChar@@@std@@@std@@IBEXXZ
_TEXT	SEGMENT
?_Xlen@?$vector@PAVioBaseChar@@V?$allocator@PAVioBaseChar@@@std@@@std@@IBEXXZ PROC ; std::vector<ioBaseChar *,std::allocator<ioBaseChar *> >::_Xlen, COMDAT
; _this$ = ecx

; 1427 : 		_Xlength_error("vector<T> too long");

  00000	68 00 00 00 00	 push	 OFFSET ??_C@_0BD@OLBABOEK@vector?$DMT?$DO?5too?5long?$AA@
  00005	ff 15 00 00 00
	00		 call	 DWORD PTR __imp_?_Xlength_error@std@@YAXPBD@Z
$LN4@Xlen@2:
$LN3@Xlen@2:
  0000b	cc		 int	 3
?_Xlen@?$vector@PAVioBaseChar@@V?$allocator@PAVioBaseChar@@@std@@@std@@IBEXXZ ENDP ; std::vector<ioBaseChar *,std::allocator<ioBaseChar *> >::_Xlen
_TEXT	ENDS
PUBLIC	??0?$allocator@PAVioBaseChar@@@std@@QAE@ABV01@@Z ; std::allocator<ioBaseChar *>::allocator<ioBaseChar *>
; Function compile flags: /Ogsp
; File c:\program files (x86)\microsoft visual studio 10.0\vc\include\xmemory
;	COMDAT ??0?$allocator@PAVioBaseChar@@@std@@QAE@ABV01@@Z
_TEXT	SEGMENT
___formal$ = 8						; size = 4
??0?$allocator@PAVioBaseChar@@@std@@QAE@ABV01@@Z PROC	; std::allocator<ioBaseChar *>::allocator<ioBaseChar *>, COMDAT
; _this$ = ecx

; 165  : 	_ALLOCATOR(const _ALLOCATOR<_Ty>&) _THROW0()

  00000	8b c1		 mov	 eax, ecx

; 166  : 		{	// construct by copying (do nothing)
; 167  : 		}

  00002	c2 04 00	 ret	 4
??0?$allocator@PAVioBaseChar@@@std@@QAE@ABV01@@Z ENDP	; std::allocator<ioBaseChar *>::allocator<ioBaseChar *>
_TEXT	ENDS
PUBLIC	?deallocate@?$allocator@PAVioBaseChar@@@std@@QAEXPAPAVioBaseChar@@I@Z ; std::allocator<ioBaseChar *>::deallocate
; Function compile flags: /Ogsp
;	COMDAT ?deallocate@?$allocator@PAVioBaseChar@@@std@@QAEXPAPAVioBaseChar@@I@Z
_TEXT	SEGMENT
__Ptr$ = 8						; size = 4
___formal$ = 12						; size = 4
?deallocate@?$allocator@PAVioBaseChar@@@std@@QAEXPAPAVioBaseChar@@I@Z PROC ; std::allocator<ioBaseChar *>::deallocate, COMDAT
; _this$ = ecx

; 181  : 		{	// deallocate object at _Ptr, ignore size

  00000	55		 push	 ebp
  00001	8b ec		 mov	 ebp, esp

; 182  : 		::operator delete(_Ptr);

  00003	ff 75 08	 push	 DWORD PTR __Ptr$[ebp]
  00006	e8 00 00 00 00	 call	 ??3@YAXPAX@Z		; operator delete
  0000b	59		 pop	 ecx

; 183  : 		}

  0000c	5d		 pop	 ebp
  0000d	c2 08 00	 ret	 8
?deallocate@?$allocator@PAVioBaseChar@@@std@@QAEXPAPAVioBaseChar@@I@Z ENDP ; std::allocator<ioBaseChar *>::deallocate
_TEXT	ENDS
PUBLIC	?max_size@?$allocator@UCallBuff@@@std@@QBEIXZ	; std::allocator<CallBuff>::max_size
; Function compile flags: /Ogsp
;	COMDAT ?max_size@?$allocator@UCallBuff@@@std@@QBEIXZ
_TEXT	SEGMENT
?max_size@?$allocator@UCallBuff@@@std@@QBEIXZ PROC	; std::allocator<CallBuff>::max_size, COMDAT
; _this$ = ecx

; 218  : 		_SIZT _Count = (_SIZT)(-1) / sizeof (_Ty);
; 219  : 		return (0 < _Count ? _Count : 1);

  00000	b8 cc cc cc 0c	 mov	 eax, 214748364		; 0cccccccH

; 220  : 		}

  00005	c3		 ret	 0
?max_size@?$allocator@UCallBuff@@@std@@QBEIXZ ENDP	; std::allocator<CallBuff>::max_size
_TEXT	ENDS
PUBLIC	??0?$_Vector_const_iterator@V?$_Vector_val@UCallBuff@@V?$allocator@UCallBuff@@@std@@@std@@@std@@QAE@PAUCallBuff@@PBU_Container_base0@1@@Z ; std::_Vector_const_iterator<std::_Vector_val<CallBuff,std::allocator<CallBuff> > >::_Vector_const_iterator<std::_Vector_val<CallBuff,std::allocator<CallBuff> > >
; Function compile flags: /Ogsp
; File c:\program files (x86)\microsoft visual studio 10.0\vc\include\vector
;	COMDAT ??0?$_Vector_const_iterator@V?$_Vector_val@UCallBuff@@V?$allocator@UCallBuff@@@std@@@std@@@std@@QAE@PAUCallBuff@@PBU_Container_base0@1@@Z
_TEXT	SEGMENT
__Parg$ = 8						; size = 4
__Pvector$ = 12						; size = 4
??0?$_Vector_const_iterator@V?$_Vector_val@UCallBuff@@V?$allocator@UCallBuff@@@std@@@std@@@std@@QAE@PAUCallBuff@@PBU_Container_base0@1@@Z PROC ; std::_Vector_const_iterator<std::_Vector_val<CallBuff,std::allocator<CallBuff> > >::_Vector_const_iterator<std::_Vector_val<CallBuff,std::allocator<CallBuff> > >, COMDAT
; _this$ = ecx

; 45   : 		{	// construct with pointer _Parg

  00000	55		 push	 ebp
  00001	8b ec		 mov	 ebp, esp
  00003	8b c1		 mov	 eax, ecx
  00005	8b 4d 08	 mov	 ecx, DWORD PTR __Parg$[ebp]
  00008	89 08		 mov	 DWORD PTR [eax], ecx

; 46   : 		this->_Adopt(_Pvector);
; 47   : 		}

  0000a	5d		 pop	 ebp
  0000b	c2 08 00	 ret	 8
??0?$_Vector_const_iterator@V?$_Vector_val@UCallBuff@@V?$allocator@UCallBuff@@@std@@@std@@@std@@QAE@PAUCallBuff@@PBU_Container_base0@1@@Z ENDP ; std::_Vector_const_iterator<std::_Vector_val<CallBuff,std::allocator<CallBuff> > >::_Vector_const_iterator<std::_Vector_val<CallBuff,std::allocator<CallBuff> > >
_TEXT	ENDS
PUBLIC	?_Compat@?$_Vector_const_iterator@V?$_Vector_val@UCallBuff@@V?$allocator@UCallBuff@@@std@@@std@@@std@@QBEXABV12@@Z ; std::_Vector_const_iterator<std::_Vector_val<CallBuff,std::allocator<CallBuff> > >::_Compat
; Function compile flags: /Ogsp
;	COMDAT ?_Compat@?$_Vector_const_iterator@V?$_Vector_val@UCallBuff@@V?$allocator@UCallBuff@@@std@@@std@@@std@@QBEXABV12@@Z
_TEXT	SEGMENT
___formal$ = 8						; size = 4
?_Compat@?$_Vector_const_iterator@V?$_Vector_val@UCallBuff@@V?$allocator@UCallBuff@@@std@@@std@@@std@@QBEXABV12@@Z PROC ; std::_Vector_const_iterator<std::_Vector_val<CallBuff,std::allocator<CallBuff> > >::_Compat, COMDAT
; _this$ = ecx

; 253  : 		}

  00000	c2 04 00	 ret	 4
?_Compat@?$_Vector_const_iterator@V?$_Vector_val@UCallBuff@@V?$allocator@UCallBuff@@@std@@@std@@@std@@QBEXABV12@@Z ENDP ; std::_Vector_const_iterator<std::_Vector_val<CallBuff,std::allocator<CallBuff> > >::_Compat
_TEXT	ENDS
PUBLIC	?_Compat@?$_Vector_const_iterator@V?$_Vector_val@PAVioBaseChar@@V?$allocator@PAVioBaseChar@@@std@@@std@@@std@@QBEXABV12@@Z ; std::_Vector_const_iterator<std::_Vector_val<ioBaseChar *,std::allocator<ioBaseChar *> > >::_Compat
; Function compile flags: /Ogsp
;	COMDAT ?_Compat@?$_Vector_const_iterator@V?$_Vector_val@PAVioBaseChar@@V?$allocator@PAVioBaseChar@@@std@@@std@@@std@@QBEXABV12@@Z
_TEXT	SEGMENT
___formal$ = 8						; size = 4
?_Compat@?$_Vector_const_iterator@V?$_Vector_val@PAVioBaseChar@@V?$allocator@PAVioBaseChar@@@std@@@std@@@std@@QBEXABV12@@Z PROC ; std::_Vector_const_iterator<std::_Vector_val<ioBaseChar *,std::allocator<ioBaseChar *> > >::_Compat, COMDAT
; _this$ = ecx

; 253  : 		}

  00000	c2 04 00	 ret	 4
?_Compat@?$_Vector_const_iterator@V?$_Vector_val@PAVioBaseChar@@V?$allocator@PAVioBaseChar@@@std@@@std@@@std@@QBEXABV12@@Z ENDP ; std::_Vector_const_iterator<std::_Vector_val<ioBaseChar *,std::allocator<ioBaseChar *> > >::_Compat
_TEXT	ENDS
PUBLIC	?max_size@?$allocator@PAVioBaseChar@@@std@@QBEIXZ ; std::allocator<ioBaseChar *>::max_size
; Function compile flags: /Ogsp
; File c:\program files (x86)\microsoft visual studio 10.0\vc\include\xmemory
;	COMDAT ?max_size@?$allocator@PAVioBaseChar@@@std@@QBEIXZ
_TEXT	SEGMENT
?max_size@?$allocator@PAVioBaseChar@@@std@@QBEIXZ PROC	; std::allocator<ioBaseChar *>::max_size, COMDAT
; _this$ = ecx

; 218  : 		_SIZT _Count = (_SIZT)(-1) / sizeof (_Ty);
; 219  : 		return (0 < _Count ? _Count : 1);

  00000	b8 ff ff ff 3f	 mov	 eax, 1073741823		; 3fffffffH

; 220  : 		}

  00005	c3		 ret	 0
?max_size@?$allocator@PAVioBaseChar@@@std@@QBEIXZ ENDP	; std::allocator<ioBaseChar *>::max_size
_TEXT	ENDS
PUBLIC	??$addressof@$$CBVioHashString@@@std@@YAPBVioHashString@@ABV1@@Z ; std::addressof<ioHashString const >
; Function compile flags: /Ogsp
;	COMDAT ??$addressof@$$CBVioHashString@@@std@@YAPBVioHashString@@ABV1@@Z
_TEXT	SEGMENT
__Val$ = 8						; size = 4
??$addressof@$$CBVioHashString@@@std@@YAPBVioHashString@@ABV1@@Z PROC ; std::addressof<ioHashString const >, COMDAT

; 110  : 	{	// return address of _Val

  00000	55		 push	 ebp
  00001	8b ec		 mov	 ebp, esp

; 111  : 	return ((_Ty *) &(char&)_Val);

  00003	8b 45 08	 mov	 eax, DWORD PTR __Val$[ebp]

; 112  : 	}

  00006	5d		 pop	 ebp
  00007	c3		 ret	 0
??$addressof@$$CBVioHashString@@@std@@YAPBVioHashString@@ABV1@@Z ENDP ; std::addressof<ioHashString const >
_TEXT	ENDS
PUBLIC	??$addressof@QAVioBaseChar@@@std@@YAPBQAVioBaseChar@@ABQAV1@@Z ; std::addressof<ioBaseChar * const>
; Function compile flags: /Ogsp
;	COMDAT ??$addressof@QAVioBaseChar@@@std@@YAPBQAVioBaseChar@@ABQAV1@@Z
_TEXT	SEGMENT
__Val$ = 8						; size = 4
??$addressof@QAVioBaseChar@@@std@@YAPBQAVioBaseChar@@ABQAV1@@Z PROC ; std::addressof<ioBaseChar * const>, COMDAT

; 110  : 	{	// return address of _Val

  00000	55		 push	 ebp
  00001	8b ec		 mov	 ebp, esp

; 111  : 	return ((_Ty *) &(char&)_Val);

  00003	8b 45 08	 mov	 eax, DWORD PTR __Val$[ebp]

; 112  : 	}

  00006	5d		 pop	 ebp
  00007	c3		 ret	 0
??$addressof@QAVioBaseChar@@@std@@YAPBQAVioBaseChar@@ABQAV1@@Z ENDP ; std::addressof<ioBaseChar * const>
_TEXT	ENDS
PUBLIC	??$addressof@$$CBUCallBuff@@@std@@YAPBUCallBuff@@ABU1@@Z ; std::addressof<CallBuff const >
; Function compile flags: /Ogsp
;	COMDAT ??$addressof@$$CBUCallBuff@@@std@@YAPBUCallBuff@@ABU1@@Z
_TEXT	SEGMENT
__Val$ = 8						; size = 4
??$addressof@$$CBUCallBuff@@@std@@YAPBUCallBuff@@ABU1@@Z PROC ; std::addressof<CallBuff const >, COMDAT

; 110  : 	{	// return address of _Val

  00000	55		 push	 ebp
  00001	8b ec		 mov	 ebp, esp

; 111  : 	return ((_Ty *) &(char&)_Val);

  00003	8b 45 08	 mov	 eax, DWORD PTR __Val$[ebp]

; 112  : 	}

  00006	5d		 pop	 ebp
  00007	c3		 ret	 0
??$addressof@$$CBUCallBuff@@@std@@YAPBUCallBuff@@ABU1@@Z ENDP ; std::addressof<CallBuff const >
_TEXT	ENDS
PUBLIC	__TI2?AVbad_alloc@std@@
PUBLIC	??$_Allocate@UCallBuff@@@std@@YAPAUCallBuff@@IPAU1@@Z ; std::_Allocate<CallBuff>
PUBLIC	__CTA2?AVbad_alloc@std@@
PUBLIC	__CT??_R0?AVbad_alloc@std@@@8??0bad_alloc@std@@QAE@ABV01@@Z12
PUBLIC	??0bad_alloc@std@@QAE@ABV01@@Z			; std::bad_alloc::bad_alloc
PUBLIC	__CT??_R0?AVexception@std@@@8??0exception@std@@QAE@ABV01@@Z12
EXTRN	??2@YAPAXI@Z:PROC				; operator new
EXTRN	__CxxThrowException@8:PROC
EXTRN	??0exception@std@@QAE@ABV01@@Z:PROC		; std::exception::exception
;	COMDAT __CT??_R0?AVexception@std@@@8??0exception@std@@QAE@ABV01@@Z12
; File c:\program files (x86)\microsoft visual studio 10.0\vc\include\exception
xdata$x	SEGMENT
__CT??_R0?AVexception@std@@@8??0exception@std@@QAE@ABV01@@Z12 DD 00H
	DD	FLAT:??_R0?AVexception@std@@@8
	DD	00H
	DD	0ffffffffH
	ORG $+4
	DD	0cH
	DD	FLAT:??0exception@std@@QAE@ABV01@@Z
xdata$x	ENDS
;	COMDAT __CT??_R0?AVbad_alloc@std@@@8??0bad_alloc@std@@QAE@ABV01@@Z12
xdata$x	SEGMENT
__CT??_R0?AVbad_alloc@std@@@8??0bad_alloc@std@@QAE@ABV01@@Z12 DD 00H
	DD	FLAT:??_R0?AVbad_alloc@std@@@8
	DD	00H
	DD	0ffffffffH
	ORG $+4
	DD	0cH
	DD	FLAT:??0bad_alloc@std@@QAE@ABV01@@Z
xdata$x	ENDS
;	COMDAT __CTA2?AVbad_alloc@std@@
xdata$x	SEGMENT
__CTA2?AVbad_alloc@std@@ DD 02H
	DD	FLAT:__CT??_R0?AVbad_alloc@std@@@8??0bad_alloc@std@@QAE@ABV01@@Z12
	DD	FLAT:__CT??_R0?AVexception@std@@@8??0exception@std@@QAE@ABV01@@Z12
xdata$x	ENDS
;	COMDAT __TI2?AVbad_alloc@std@@
xdata$x	SEGMENT
__TI2?AVbad_alloc@std@@ DD 00H
	DD	FLAT:??1bad_alloc@std@@UAE@XZ
	DD	00H
	DD	FLAT:__CTA2?AVbad_alloc@std@@
; Function compile flags: /Ogsp
; File c:\program files (x86)\microsoft visual studio 10.0\vc\include\xmemory
xdata$x	ENDS
;	COMDAT ??$_Allocate@UCallBuff@@@std@@YAPAUCallBuff@@IPAU1@@Z
_TEXT	SEGMENT
$T535090 = -12						; size = 12
$T535095 = 8						; size = 4
__Count$ = 8						; size = 4
___formal$ = 12						; size = 4
??$_Allocate@UCallBuff@@@std@@YAPAUCallBuff@@IPAU1@@Z PROC ; std::_Allocate<CallBuff>, COMDAT

; 30   : 	{	// allocate storage for _Count elements of type _Ty

  00000	55		 push	 ebp
  00001	8b ec		 mov	 ebp, esp

; 31   : 	void *_Ptr = 0;
; 32   : 
; 33   : 	if (_Count <= 0)

  00003	8b 4d 08	 mov	 ecx, DWORD PTR __Count$[ebp]
  00006	83 ec 0c	 sub	 esp, 12			; 0000000cH
  00009	33 c0		 xor	 eax, eax
  0000b	85 c9		 test	 ecx, ecx

; 34   : 		_Count = 0;
; 35   : 	else if (((_SIZT)(-1) / sizeof (_Ty) < _Count)

  0000d	74 3c		 je	 SHORT $LN5@Allocate

; 36   : 		|| (_Ptr = ::operator new(_Count * sizeof (_Ty))) == 0)

  0000f	81 f9 cc cc cc
	0c		 cmp	 ecx, 214748364		; 0cccccccH
  00015	77 0e		 ja	 SHORT $LN1@Allocate
  00017	6b c9 14	 imul	 ecx, 20			; 00000014H
  0001a	51		 push	 ecx
  0001b	e8 00 00 00 00	 call	 ??2@YAPAXI@Z		; operator new
  00020	59		 pop	 ecx
  00021	85 c0		 test	 eax, eax

; 38   : 
; 39   : 	return ((_Ty _FARQ *)_Ptr);

  00023	75 26		 jne	 SHORT $LN5@Allocate
$LN1@Allocate:

; 37   : 		_THROW_NCEE(bad_alloc, 0);

  00025	83 65 08 00	 and	 DWORD PTR $T535095[ebp], 0
  00029	8d 45 08	 lea	 eax, DWORD PTR $T535095[ebp]
  0002c	50		 push	 eax
  0002d	8d 4d f4	 lea	 ecx, DWORD PTR $T535090[ebp]
  00030	ff 15 00 00 00
	00		 call	 DWORD PTR __imp_??0exception@std@@QAE@ABQBD@Z
  00036	68 00 00 00 00	 push	 OFFSET __TI2?AVbad_alloc@std@@
  0003b	8d 45 f4	 lea	 eax, DWORD PTR $T535090[ebp]
  0003e	50		 push	 eax
  0003f	c7 45 f4 00 00
	00 00		 mov	 DWORD PTR $T535090[ebp], OFFSET ??_7bad_alloc@std@@6B@
  00046	e8 00 00 00 00	 call	 __CxxThrowException@8
$LN10@Allocate:
$LN5@Allocate:

; 40   : 	}

  0004b	c9		 leave
  0004c	c3		 ret	 0
$LN9@Allocate:
??$_Allocate@UCallBuff@@@std@@YAPAUCallBuff@@IPAU1@@Z ENDP ; std::_Allocate<CallBuff>
_TEXT	ENDS
PUBLIC	??$_Allocate@PAVioBaseChar@@@std@@YAPAPAVioBaseChar@@IPAPAV1@@Z ; std::_Allocate<ioBaseChar *>
; Function compile flags: /Ogsp
;	COMDAT ??$_Allocate@PAVioBaseChar@@@std@@YAPAPAVioBaseChar@@IPAPAV1@@Z
_TEXT	SEGMENT
$T535100 = -12						; size = 12
$T535104 = 8						; size = 4
__Count$ = 8						; size = 4
___formal$ = 12						; size = 4
??$_Allocate@PAVioBaseChar@@@std@@YAPAPAVioBaseChar@@IPAPAV1@@Z PROC ; std::_Allocate<ioBaseChar *>, COMDAT

; 30   : 	{	// allocate storage for _Count elements of type _Ty

  00000	55		 push	 ebp
  00001	8b ec		 mov	 ebp, esp

; 31   : 	void *_Ptr = 0;
; 32   : 
; 33   : 	if (_Count <= 0)

  00003	8b 4d 08	 mov	 ecx, DWORD PTR __Count$[ebp]
  00006	83 ec 0c	 sub	 esp, 12			; 0000000cH
  00009	33 c0		 xor	 eax, eax
  0000b	85 c9		 test	 ecx, ecx

; 34   : 		_Count = 0;
; 35   : 	else if (((_SIZT)(-1) / sizeof (_Ty) < _Count)

  0000d	74 3e		 je	 SHORT $LN5@Allocate@2

; 36   : 		|| (_Ptr = ::operator new(_Count * sizeof (_Ty))) == 0)

  0000f	81 f9 ff ff ff
	3f		 cmp	 ecx, 1073741823		; 3fffffffH
  00015	77 10		 ja	 SHORT $LN1@Allocate@2
  00017	8b c1		 mov	 eax, ecx
  00019	c1 e0 02	 shl	 eax, 2
  0001c	50		 push	 eax
  0001d	e8 00 00 00 00	 call	 ??2@YAPAXI@Z		; operator new
  00022	59		 pop	 ecx
  00023	85 c0		 test	 eax, eax

; 38   : 
; 39   : 	return ((_Ty _FARQ *)_Ptr);

  00025	75 26		 jne	 SHORT $LN5@Allocate@2
$LN1@Allocate@2:

; 37   : 		_THROW_NCEE(bad_alloc, 0);

  00027	83 65 08 00	 and	 DWORD PTR $T535104[ebp], 0
  0002b	8d 45 08	 lea	 eax, DWORD PTR $T535104[ebp]
  0002e	50		 push	 eax
  0002f	8d 4d f4	 lea	 ecx, DWORD PTR $T535100[ebp]
  00032	ff 15 00 00 00
	00		 call	 DWORD PTR __imp_??0exception@std@@QAE@ABQBD@Z
  00038	68 00 00 00 00	 push	 OFFSET __TI2?AVbad_alloc@std@@
  0003d	8d 45 f4	 lea	 eax, DWORD PTR $T535100[ebp]
  00040	50		 push	 eax
  00041	c7 45 f4 00 00
	00 00		 mov	 DWORD PTR $T535100[ebp], OFFSET ??_7bad_alloc@std@@6B@
  00048	e8 00 00 00 00	 call	 __CxxThrowException@8
$LN10@Allocate@2:
$LN5@Allocate@2:

; 40   : 	}

  0004d	c9		 leave
  0004e	c3		 ret	 0
$LN9@Allocate@2:
??$_Allocate@PAVioBaseChar@@@std@@YAPAPAVioBaseChar@@IPAPAV1@@Z ENDP ; std::_Allocate<ioBaseChar *>
_TEXT	ENDS
PUBLIC	??G?$_Vector_const_iterator@V?$_Vector_val@UCallBuff@@V?$allocator@UCallBuff@@@std@@@std@@@std@@QBEHABV01@@Z ; std::_Vector_const_iterator<std::_Vector_val<CallBuff,std::allocator<CallBuff> > >::operator-
; Function compile flags: /Ogsp
; File c:\program files (x86)\microsoft visual studio 10.0\vc\include\vector
;	COMDAT ??G?$_Vector_const_iterator@V?$_Vector_val@UCallBuff@@V?$allocator@UCallBuff@@@std@@@std@@@std@@QBEHABV01@@Z
_TEXT	SEGMENT
__Right$ = 8						; size = 4
??G?$_Vector_const_iterator@V?$_Vector_val@UCallBuff@@V?$allocator@UCallBuff@@@std@@@std@@@std@@QBEHABV01@@Z PROC ; std::_Vector_const_iterator<std::_Vector_val<CallBuff,std::allocator<CallBuff> > >::operator-, COMDAT
; _this$ = ecx

; 190  : 		{	// return difference of iterators

  00000	55		 push	 ebp
  00001	8b ec		 mov	 ebp, esp

; 191  : 		_Compat(_Right);
; 192  : 		return (this->_Ptr - _Right._Ptr);

  00003	8b 01		 mov	 eax, DWORD PTR [ecx]
  00005	8b 4d 08	 mov	 ecx, DWORD PTR __Right$[ebp]
  00008	2b 01		 sub	 eax, DWORD PTR [ecx]
  0000a	6a 14		 push	 20			; 00000014H
  0000c	99		 cdq
  0000d	59		 pop	 ecx
  0000e	f7 f9		 idiv	 ecx

; 193  : 		}

  00010	5d		 pop	 ebp
  00011	c2 04 00	 ret	 4
??G?$_Vector_const_iterator@V?$_Vector_val@UCallBuff@@V?$allocator@UCallBuff@@@std@@@std@@@std@@QBEHABV01@@Z ENDP ; std::_Vector_const_iterator<std::_Vector_val<CallBuff,std::allocator<CallBuff> > >::operator-
_TEXT	ENDS
PUBLIC	??$forward@AAPAVioBaseChar@@@std@@YAAAPAVioBaseChar@@AAPAV1@@Z ; std::forward<ioBaseChar * &>
; Function compile flags: /Ogsp
; File c:\program files (x86)\microsoft visual studio 10.0\vc\include\utility
;	COMDAT ??$forward@AAPAVioBaseChar@@@std@@YAAAPAVioBaseChar@@AAPAV1@@Z
_TEXT	SEGMENT
__Arg$ = 8						; size = 4
??$forward@AAPAVioBaseChar@@@std@@YAAAPAVioBaseChar@@AAPAV1@@Z PROC ; std::forward<ioBaseChar * &>, COMDAT

; 78   : 	{	// forward _Arg, given explicitly specified type parameter

  00000	55		 push	 ebp
  00001	8b ec		 mov	 ebp, esp

; 79   : 	return ((_Ty&&)_Arg);

  00003	8b 45 08	 mov	 eax, DWORD PTR __Arg$[ebp]

; 80   : 	}

  00006	5d		 pop	 ebp
  00007	c3		 ret	 0
??$forward@AAPAVioBaseChar@@@std@@YAAAPAVioBaseChar@@AAPAV1@@Z ENDP ; std::forward<ioBaseChar * &>
_TEXT	ENDS
PUBLIC	??$construct@AAPAVioBaseChar@@@?$allocator@PAVioBaseChar@@@std@@QAEXPAPAVioBaseChar@@AAPAV2@@Z ; std::allocator<ioBaseChar *>::construct<ioBaseChar * &>
; Function compile flags: /Ogsp
; File c:\program files (x86)\microsoft visual studio 10.0\vc\include\xmemory
;	COMDAT ??$construct@AAPAVioBaseChar@@@?$allocator@PAVioBaseChar@@@std@@QAEXPAPAVioBaseChar@@AAPAV2@@Z
_TEXT	SEGMENT
__Ptr$ = 8						; size = 4
__Val$ = 12						; size = 4
??$construct@AAPAVioBaseChar@@@?$allocator@PAVioBaseChar@@@std@@QAEXPAPAVioBaseChar@@AAPAV2@@Z PROC ; std::allocator<ioBaseChar *>::construct<ioBaseChar * &>, COMDAT
; _this$ = ecx

; 206  : 		void construct(pointer _Ptr, _Other&& _Val)

  00000	55		 push	 ebp
  00001	8b ec		 mov	 ebp, esp

; 207  : 		{	// construct object at _Ptr with value _Val
; 208  : 		::new ((void _FARQ *)_Ptr) _Ty(_STD forward<_Other>(_Val));

  00003	8b 45 08	 mov	 eax, DWORD PTR __Ptr$[ebp]
  00006	85 c0		 test	 eax, eax
  00008	74 07		 je	 SHORT $LN3@construct
  0000a	8b 4d 0c	 mov	 ecx, DWORD PTR __Val$[ebp]
  0000d	8b 09		 mov	 ecx, DWORD PTR [ecx]
  0000f	89 08		 mov	 DWORD PTR [eax], ecx
$LN3@construct:

; 209  : 		}

  00011	5d		 pop	 ebp
  00012	c2 08 00	 ret	 8
??$construct@AAPAVioBaseChar@@@?$allocator@PAVioBaseChar@@@std@@QAEXPAPAVioBaseChar@@AAPAV2@@Z ENDP ; std::allocator<ioBaseChar *>::construct<ioBaseChar * &>
_TEXT	ENDS
PUBLIC	??$forward@ABQAVioBaseChar@@@std@@YAABQAVioBaseChar@@ABQAV1@@Z ; std::forward<ioBaseChar * const &>
; Function compile flags: /Ogsp
; File c:\program files (x86)\microsoft visual studio 10.0\vc\include\utility
;	COMDAT ??$forward@ABQAVioBaseChar@@@std@@YAABQAVioBaseChar@@ABQAV1@@Z
_TEXT	SEGMENT
__Arg$ = 8						; size = 4
??$forward@ABQAVioBaseChar@@@std@@YAABQAVioBaseChar@@ABQAV1@@Z PROC ; std::forward<ioBaseChar * const &>, COMDAT

; 78   : 	{	// forward _Arg, given explicitly specified type parameter

  00000	55		 push	 ebp
  00001	8b ec		 mov	 ebp, esp

; 79   : 	return ((_Ty&&)_Arg);

  00003	8b 45 08	 mov	 eax, DWORD PTR __Arg$[ebp]

; 80   : 	}

  00006	5d		 pop	 ebp
  00007	c3		 ret	 0
??$forward@ABQAVioBaseChar@@@std@@YAABQAVioBaseChar@@ABQAV1@@Z ENDP ; std::forward<ioBaseChar * const &>
_TEXT	ENDS
PUBLIC	??$forward@AAUCallBuff@@@std@@YAAAUCallBuff@@AAU1@@Z ; std::forward<CallBuff &>
; Function compile flags: /Ogsp
;	COMDAT ??$forward@AAUCallBuff@@@std@@YAAAUCallBuff@@AAU1@@Z
_TEXT	SEGMENT
__Arg$ = 8						; size = 4
??$forward@AAUCallBuff@@@std@@YAAAUCallBuff@@AAU1@@Z PROC ; std::forward<CallBuff &>, COMDAT

; 78   : 	{	// forward _Arg, given explicitly specified type parameter

  00000	55		 push	 ebp
  00001	8b ec		 mov	 ebp, esp

; 79   : 	return ((_Ty&&)_Arg);

  00003	8b 45 08	 mov	 eax, DWORD PTR __Arg$[ebp]

; 80   : 	}

  00006	5d		 pop	 ebp
  00007	c3		 ret	 0
??$forward@AAUCallBuff@@@std@@YAAAUCallBuff@@AAU1@@Z ENDP ; std::forward<CallBuff &>
_TEXT	ENDS
PUBLIC	??$construct@AAUCallBuff@@@?$allocator@UCallBuff@@@std@@QAEXPAUCallBuff@@AAU2@@Z ; std::allocator<CallBuff>::construct<CallBuff &>
EXTRN	___CxxFrameHandler3:PROC
EXTRN	@__security_check_cookie@4:PROC
EXTRN	__EH_epilog3:PROC
EXTRN	__EH_prolog3:PROC
;	COMDAT xdata$x
; File d:\lost saga for developer\youtube\tutorial\source\src\lsclient\ioinfectionbuff.cpp
xdata$x	SEGMENT
__unwindtable$??$construct@AAUCallBuff@@@?$allocator@UCallBuff@@@std@@QAEXPAUCallBuff@@AAU2@@Z DD 0ffffffffH
	DD	FLAT:__unwindfunclet$??$construct@AAUCallBuff@@@?$allocator@UCallBuff@@@std@@QAEXPAUCallBuff@@AAU2@@Z$0
__ehfuncinfo$??$construct@AAUCallBuff@@@?$allocator@UCallBuff@@@std@@QAEXPAUCallBuff@@AAU2@@Z DD 019930522H
	DD	01H
	DD	FLAT:__unwindtable$??$construct@AAUCallBuff@@@?$allocator@UCallBuff@@@std@@QAEXPAUCallBuff@@AAU2@@Z
	DD	2 DUP(00H)
	DD	2 DUP(00H)
	DD	00H
	DD	01H
; Function compile flags: /Ogsp
; File c:\program files (x86)\microsoft visual studio 10.0\vc\include\xmemory
xdata$x	ENDS
;	COMDAT ??$construct@AAUCallBuff@@@?$allocator@UCallBuff@@@std@@QAEXPAUCallBuff@@AAU2@@Z
_TEXT	SEGMENT
$T535134 = -16						; size = 4
__$EHRec$ = -12						; size = 12
__Ptr$ = 8						; size = 4
__Val$ = 12						; size = 4
??$construct@AAUCallBuff@@@?$allocator@UCallBuff@@@std@@QAEXPAUCallBuff@@AAU2@@Z PROC ; std::allocator<CallBuff>::construct<CallBuff &>, COMDAT
; _this$ = ecx

; 206  : 		void construct(pointer _Ptr, _Other&& _Val)

  00000	6a 04		 push	 4
  00002	b8 00 00 00 00	 mov	 eax, __ehhandler$??$construct@AAUCallBuff@@@?$allocator@UCallBuff@@@std@@QAEXPAUCallBuff@@AAU2@@Z
  00007	e8 00 00 00 00	 call	 __EH_prolog3

; 207  : 		{	// construct object at _Ptr with value _Val
; 208  : 		::new ((void _FARQ *)_Ptr) _Ty(_STD forward<_Other>(_Val));

  0000c	8b 75 08	 mov	 esi, DWORD PTR __Ptr$[ebp]
  0000f	89 75 f0	 mov	 DWORD PTR $T535134[ebp], esi
  00012	83 65 fc 00	 and	 DWORD PTR __$EHRec$[ebp+8], 0
  00016	85 f6		 test	 esi, esi
  00018	74 12		 je	 SHORT $LN3@construct@2
  0001a	8b 7d 0c	 mov	 edi, DWORD PTR __Val$[ebp]
  0001d	57		 push	 edi
  0001e	8b ce		 mov	 ecx, esi
  00020	ff 15 00 00 00
	00		 call	 DWORD PTR __imp_??0ioHashString@@QAE@ABV0@@Z
  00026	8b 47 10	 mov	 eax, DWORD PTR [edi+16]
  00029	89 46 10	 mov	 DWORD PTR [esi+16], eax
$LN3@construct@2:

; 209  : 		}

  0002c	e8 00 00 00 00	 call	 __EH_epilog3
  00031	c2 08 00	 ret	 8
_TEXT	ENDS
;	COMDAT text$x
text$x	SEGMENT
__unwindfunclet$??$construct@AAUCallBuff@@@?$allocator@UCallBuff@@@std@@QAEXPAUCallBuff@@AAU2@@Z$0:
  00000	ff 75 08	 push	 DWORD PTR __Ptr$[ebp]
  00003	ff 75 f0	 push	 DWORD PTR $T535134[ebp]
  00006	e8 00 00 00 00	 call	 ??3@YAXPAX0@Z		; operator delete
  0000b	59		 pop	 ecx
  0000c	59		 pop	 ecx
  0000d	c3		 ret	 0
__ehhandler$??$construct@AAUCallBuff@@@?$allocator@UCallBuff@@@std@@QAEXPAUCallBuff@@AAU2@@Z:
  0000e	8b 54 24 08	 mov	 edx, DWORD PTR [esp+8]
  00012	8d 42 0c	 lea	 eax, DWORD PTR [edx+12]
  00015	8b 4a ec	 mov	 ecx, DWORD PTR [edx-20]
  00018	33 c8		 xor	 ecx, eax
  0001a	e8 00 00 00 00	 call	 @__security_check_cookie@4
  0001f	b8 00 00 00 00	 mov	 eax, OFFSET __ehfuncinfo$??$construct@AAUCallBuff@@@?$allocator@UCallBuff@@@std@@QAEXPAUCallBuff@@AAU2@@Z
  00024	e9 00 00 00 00	 jmp	 ___CxxFrameHandler3
text$x	ENDS
??$construct@AAUCallBuff@@@?$allocator@UCallBuff@@@std@@QAEXPAUCallBuff@@AAU2@@Z ENDP ; std::allocator<CallBuff>::construct<CallBuff &>
PUBLIC	??$forward@ABUCallBuff@@@std@@YAABUCallBuff@@ABU1@@Z ; std::forward<CallBuff const &>
; Function compile flags: /Ogsp
; File c:\program files (x86)\microsoft visual studio 10.0\vc\include\utility
;	COMDAT ??$forward@ABUCallBuff@@@std@@YAABUCallBuff@@ABU1@@Z
_TEXT	SEGMENT
__Arg$ = 8						; size = 4
??$forward@ABUCallBuff@@@std@@YAABUCallBuff@@ABU1@@Z PROC ; std::forward<CallBuff const &>, COMDAT

; 78   : 	{	// forward _Arg, given explicitly specified type parameter

  00000	55		 push	 ebp
  00001	8b ec		 mov	 ebp, esp

; 79   : 	return ((_Ty&&)_Arg);

  00003	8b 45 08	 mov	 eax, DWORD PTR __Arg$[ebp]

; 80   : 	}

  00006	5d		 pop	 ebp
  00007	c3		 ret	 0
??$forward@ABUCallBuff@@@std@@YAABUCallBuff@@ABU1@@Z ENDP ; std::forward<CallBuff const &>
_TEXT	ENDS
PUBLIC	??$_Ptr_cat@PAVioBaseChar@@PAV1@@std@@YA?AU_Scalar_ptr_iterator_tag@0@PAPAVioBaseChar@@0@Z ; std::_Ptr_cat<ioBaseChar *,ioBaseChar *>
; Function compile flags: /Ogsp
; File c:\program files (x86)\microsoft visual studio 10.0\vc\include\xutility
;	COMDAT ??$_Ptr_cat@PAVioBaseChar@@PAV1@@std@@YA?AU_Scalar_ptr_iterator_tag@0@PAPAVioBaseChar@@0@Z
_TEXT	SEGMENT
__Cat$ = -1						; size = 1
___formal$ = 8						; size = 4
___formal$ = 12						; size = 4
??$_Ptr_cat@PAVioBaseChar@@PAV1@@std@@YA?AU_Scalar_ptr_iterator_tag@0@PAPAVioBaseChar@@0@Z PROC ; std::_Ptr_cat<ioBaseChar *,ioBaseChar *>, COMDAT

; 516  : 	{	// return pointer category from pointers

  00000	55		 push	 ebp
  00001	8b ec		 mov	 ebp, esp
  00003	51		 push	 ecx

; 517  : 	typename _Ptr_cat_helper<_Elem1, _Elem2>::_Type _Cat;
; 518  : 	return (_Cat);

  00004	8a 45 ff	 mov	 al, BYTE PTR __Cat$[ebp]

; 519  : 	}

  00007	c9		 leave
  00008	c3		 ret	 0
??$_Ptr_cat@PAVioBaseChar@@PAV1@@std@@YA?AU_Scalar_ptr_iterator_tag@0@PAPAVioBaseChar@@0@Z ENDP ; std::_Ptr_cat<ioBaseChar *,ioBaseChar *>
_TEXT	ENDS
PUBLIC	??$_Move@PAPAVioBaseChar@@PAPAV1@@std@@YAPAPAVioBaseChar@@PAPAV1@00U_Scalar_ptr_iterator_tag@0@@Z ; std::_Move<ioBaseChar * *,ioBaseChar * *>
EXTRN	__imp__memmove:PROC
; Function compile flags: /Ogsp
;	COMDAT ??$_Move@PAPAVioBaseChar@@PAPAV1@@std@@YAPAPAVioBaseChar@@PAPAV1@00U_Scalar_ptr_iterator_tag@0@@Z
_TEXT	SEGMENT
__First$ = 8						; size = 4
__Last$ = 12						; size = 4
__Dest$ = 16						; size = 4
___formal$ = 20						; size = 1
??$_Move@PAPAVioBaseChar@@PAPAV1@@std@@YAPAPAVioBaseChar@@PAPAV1@00U_Scalar_ptr_iterator_tag@0@@Z PROC ; std::_Move<ioBaseChar * *,ioBaseChar * *>, COMDAT

; 2522 : 	{	// move [_First, _Last) to [_Dest, ...), pointers to scalars

  00000	55		 push	 ebp
  00001	8b ec		 mov	 ebp, esp
  00003	56		 push	 esi

; 2523 : 	ptrdiff_t _Count = _Last - _First;

  00004	8b 75 0c	 mov	 esi, DWORD PTR __Last$[ebp]
  00007	2b 75 08	 sub	 esi, DWORD PTR __First$[ebp]
  0000a	57		 push	 edi

; 2524 : 	_CSTD memmove(&*_Dest, &*_First,
; 2525 : 		_Count * sizeof (*_First));

  0000b	8b 7d 10	 mov	 edi, DWORD PTR __Dest$[ebp]
  0000e	c1 fe 02	 sar	 esi, 2
  00011	c1 e6 02	 shl	 esi, 2
  00014	56		 push	 esi
  00015	ff 75 08	 push	 DWORD PTR __First$[ebp]
  00018	57		 push	 edi
  00019	ff 15 00 00 00
	00		 call	 DWORD PTR __imp__memmove
  0001f	83 c4 0c	 add	 esp, 12			; 0000000cH

; 2526 : 	return (_Dest + _Count);

  00022	8d 04 3e	 lea	 eax, DWORD PTR [esi+edi]
  00025	5f		 pop	 edi
  00026	5e		 pop	 esi

; 2527 : 	}

  00027	5d		 pop	 ebp
  00028	c3		 ret	 0
??$_Move@PAPAVioBaseChar@@PAPAV1@@std@@YAPAPAVioBaseChar@@PAPAV1@00U_Scalar_ptr_iterator_tag@0@@Z ENDP ; std::_Move<ioBaseChar * *,ioBaseChar * *>
_TEXT	ENDS
PUBLIC	??$_Ptr_cat@UCallBuff@@U1@@std@@YA?AU_Nonscalar_ptr_iterator_tag@0@PAUCallBuff@@0@Z ; std::_Ptr_cat<CallBuff,CallBuff>
; Function compile flags: /Ogsp
;	COMDAT ??$_Ptr_cat@UCallBuff@@U1@@std@@YA?AU_Nonscalar_ptr_iterator_tag@0@PAUCallBuff@@0@Z
_TEXT	SEGMENT
__Cat$ = -1						; size = 1
___formal$ = 8						; size = 4
___formal$ = 12						; size = 4
??$_Ptr_cat@UCallBuff@@U1@@std@@YA?AU_Nonscalar_ptr_iterator_tag@0@PAUCallBuff@@0@Z PROC ; std::_Ptr_cat<CallBuff,CallBuff>, COMDAT

; 516  : 	{	// return pointer category from pointers

  00000	55		 push	 ebp
  00001	8b ec		 mov	 ebp, esp
  00003	51		 push	 ecx

; 517  : 	typename _Ptr_cat_helper<_Elem1, _Elem2>::_Type _Cat;
; 518  : 	return (_Cat);

  00004	8a 45 ff	 mov	 al, BYTE PTR __Cat$[ebp]

; 519  : 	}

  00007	c9		 leave
  00008	c3		 ret	 0
??$_Ptr_cat@UCallBuff@@U1@@std@@YA?AU_Nonscalar_ptr_iterator_tag@0@PAUCallBuff@@0@Z ENDP ; std::_Ptr_cat<CallBuff,CallBuff>
_TEXT	ENDS
PUBLIC	??$_Destroy_range@V?$allocator@PAVioBaseChar@@@std@@@std@@YAXPAPAVioBaseChar@@0AAV?$allocator@PAVioBaseChar@@@0@U_Scalar_ptr_iterator_tag@0@@Z ; std::_Destroy_range<std::allocator<ioBaseChar *> >
; Function compile flags: /Ogsp
; File c:\program files (x86)\microsoft visual studio 10.0\vc\include\xmemory
;	COMDAT ??$_Destroy_range@V?$allocator@PAVioBaseChar@@@std@@@std@@YAXPAPAVioBaseChar@@0AAV?$allocator@PAVioBaseChar@@@0@U_Scalar_ptr_iterator_tag@0@@Z
_TEXT	SEGMENT
__First$ = 8						; size = 4
__Last$ = 12						; size = 4
__Al$ = 16						; size = 4
___formal$ = 20						; size = 1
??$_Destroy_range@V?$allocator@PAVioBaseChar@@@std@@@std@@YAXPAPAVioBaseChar@@0AAV?$allocator@PAVioBaseChar@@@0@U_Scalar_ptr_iterator_tag@0@@Z PROC ; std::_Destroy_range<std::allocator<ioBaseChar *> >, COMDAT

; 105  : 	}

  00000	c3		 ret	 0
??$_Destroy_range@V?$allocator@PAVioBaseChar@@@std@@@std@@YAXPAPAVioBaseChar@@0AAV?$allocator@PAVioBaseChar@@@0@U_Scalar_ptr_iterator_tag@0@@Z ENDP ; std::_Destroy_range<std::allocator<ioBaseChar *> >
_TEXT	ENDS
PUBLIC	??$_Construct@PAVioBaseChar@@ABQAV1@@std@@YAXPAPAVioBaseChar@@ABQAV1@@Z ; std::_Construct<ioBaseChar *,ioBaseChar * const &>
; Function compile flags: /Ogsp
;	COMDAT ??$_Construct@PAVioBaseChar@@ABQAV1@@std@@YAXPAPAVioBaseChar@@ABQAV1@@Z
_TEXT	SEGMENT
__Ptr$ = 8						; size = 4
__Val$ = 12						; size = 4
??$_Construct@PAVioBaseChar@@ABQAV1@@std@@YAXPAPAVioBaseChar@@ABQAV1@@Z PROC ; std::_Construct<ioBaseChar *,ioBaseChar * const &>, COMDAT

; 46   : 	{	// construct object at _Ptr with value _Val

  00000	55		 push	 ebp
  00001	8b ec		 mov	 ebp, esp

; 47   : 	void _FARQ *_Vptr = _Ptr;
; 48   : 	::new (_Vptr) _Ty1(_STD forward<_Ty2>(_Val));

  00003	8b 45 08	 mov	 eax, DWORD PTR __Ptr$[ebp]
  00006	85 c0		 test	 eax, eax
  00008	74 07		 je	 SHORT $LN3@Construct
  0000a	8b 4d 0c	 mov	 ecx, DWORD PTR __Val$[ebp]
  0000d	8b 09		 mov	 ecx, DWORD PTR [ecx]
  0000f	89 08		 mov	 DWORD PTR [eax], ecx
$LN3@Construct:

; 49   : 	}

  00011	5d		 pop	 ebp
  00012	c3		 ret	 0
??$_Construct@PAVioBaseChar@@ABQAV1@@std@@YAXPAPAVioBaseChar@@ABQAV1@@Z ENDP ; std::_Construct<ioBaseChar *,ioBaseChar * const &>
_TEXT	ENDS
PUBLIC	??$_Construct@UCallBuff@@ABU1@@std@@YAXPAUCallBuff@@ABU1@@Z ; std::_Construct<CallBuff,CallBuff const &>
;	COMDAT xdata$x
; File d:\lost saga for developer\youtube\tutorial\source\src\lsclient\ioinfectionbuff.cpp
xdata$x	SEGMENT
__unwindtable$??$_Construct@UCallBuff@@ABU1@@std@@YAXPAUCallBuff@@ABU1@@Z DD 0ffffffffH
	DD	FLAT:__unwindfunclet$??$_Construct@UCallBuff@@ABU1@@std@@YAXPAUCallBuff@@ABU1@@Z$0
__ehfuncinfo$??$_Construct@UCallBuff@@ABU1@@std@@YAXPAUCallBuff@@ABU1@@Z DD 019930522H
	DD	01H
	DD	FLAT:__unwindtable$??$_Construct@UCallBuff@@ABU1@@std@@YAXPAUCallBuff@@ABU1@@Z
	DD	2 DUP(00H)
	DD	2 DUP(00H)
	DD	00H
	DD	01H
; Function compile flags: /Ogsp
; File c:\program files (x86)\microsoft visual studio 10.0\vc\include\xmemory
xdata$x	ENDS
;	COMDAT ??$_Construct@UCallBuff@@ABU1@@std@@YAXPAUCallBuff@@ABU1@@Z
_TEXT	SEGMENT
$T535187 = -16						; size = 4
__$EHRec$ = -12						; size = 12
__Vptr$ = 8						; size = 4
__Ptr$ = 8						; size = 4
__Val$ = 12						; size = 4
??$_Construct@UCallBuff@@ABU1@@std@@YAXPAUCallBuff@@ABU1@@Z PROC ; std::_Construct<CallBuff,CallBuff const &>, COMDAT

; 46   : 	{	// construct object at _Ptr with value _Val

  00000	6a 04		 push	 4
  00002	b8 00 00 00 00	 mov	 eax, __ehhandler$??$_Construct@UCallBuff@@ABU1@@std@@YAXPAUCallBuff@@ABU1@@Z
  00007	e8 00 00 00 00	 call	 __EH_prolog3

; 47   : 	void _FARQ *_Vptr = _Ptr;

  0000c	8b 75 08	 mov	 esi, DWORD PTR __Ptr$[ebp]
  0000f	89 75 08	 mov	 DWORD PTR __Vptr$[ebp], esi

; 48   : 	::new (_Vptr) _Ty1(_STD forward<_Ty2>(_Val));

  00012	89 75 f0	 mov	 DWORD PTR $T535187[ebp], esi
  00015	83 65 fc 00	 and	 DWORD PTR __$EHRec$[ebp+8], 0
  00019	85 f6		 test	 esi, esi
  0001b	74 12		 je	 SHORT $LN3@Construct@2
  0001d	8b 7d 0c	 mov	 edi, DWORD PTR __Val$[ebp]
  00020	57		 push	 edi
  00021	8b ce		 mov	 ecx, esi
  00023	ff 15 00 00 00
	00		 call	 DWORD PTR __imp_??0ioHashString@@QAE@ABV0@@Z
  00029	8b 47 10	 mov	 eax, DWORD PTR [edi+16]
  0002c	89 46 10	 mov	 DWORD PTR [esi+16], eax
$LN3@Construct@2:

; 49   : 	}

  0002f	e8 00 00 00 00	 call	 __EH_epilog3
  00034	c3		 ret	 0
_TEXT	ENDS
;	COMDAT text$x
text$x	SEGMENT
__unwindfunclet$??$_Construct@UCallBuff@@ABU1@@std@@YAXPAUCallBuff@@ABU1@@Z$0:
  00000	ff 75 08	 push	 DWORD PTR __Vptr$[ebp]
  00003	ff 75 f0	 push	 DWORD PTR $T535187[ebp]
  00006	e8 00 00 00 00	 call	 ??3@YAXPAX0@Z		; operator delete
  0000b	59		 pop	 ecx
  0000c	59		 pop	 ecx
  0000d	c3		 ret	 0
__ehhandler$??$_Construct@UCallBuff@@ABU1@@std@@YAXPAUCallBuff@@ABU1@@Z:
  0000e	8b 54 24 08	 mov	 edx, DWORD PTR [esp+8]
  00012	8d 42 0c	 lea	 eax, DWORD PTR [edx+12]
  00015	8b 4a ec	 mov	 ecx, DWORD PTR [edx-20]
  00018	33 c8		 xor	 ecx, eax
  0001a	e8 00 00 00 00	 call	 @__security_check_cookie@4
  0001f	b8 00 00 00 00	 mov	 eax, OFFSET __ehfuncinfo$??$_Construct@UCallBuff@@ABU1@@std@@YAXPAUCallBuff@@ABU1@@Z
  00024	e9 00 00 00 00	 jmp	 ___CxxFrameHandler3
text$x	ENDS
??$_Construct@UCallBuff@@ABU1@@std@@YAXPAUCallBuff@@ABU1@@Z ENDP ; std::_Construct<CallBuff,CallBuff const &>
PUBLIC	??4CallBuff@@QAEAAU0@ABU0@@Z			; CallBuff::operator=
EXTRN	__imp_??4ioHashString@@QAEAAV0@ABV0@@Z:PROC
; Function compile flags: /Ogsp
;	COMDAT ??4CallBuff@@QAEAAU0@ABU0@@Z
_TEXT	SEGMENT
___that$ = 8						; size = 4
??4CallBuff@@QAEAAU0@ABU0@@Z PROC			; CallBuff::operator=, COMDAT
; _this$ = ecx
  00000	55		 push	 ebp
  00001	8b ec		 mov	 ebp, esp
  00003	56		 push	 esi
  00004	57		 push	 edi
  00005	8b 7d 08	 mov	 edi, DWORD PTR ___that$[ebp]
  00008	57		 push	 edi
  00009	8b f1		 mov	 esi, ecx
  0000b	ff 15 00 00 00
	00		 call	 DWORD PTR __imp_??4ioHashString@@QAEAAV0@ABV0@@Z
  00011	8b 47 10	 mov	 eax, DWORD PTR [edi+16]
  00014	89 46 10	 mov	 DWORD PTR [esi+16], eax
  00017	5f		 pop	 edi
  00018	8b c6		 mov	 eax, esi
  0001a	5e		 pop	 esi
  0001b	5d		 pop	 ebp
  0001c	c2 04 00	 ret	 4
??4CallBuff@@QAEAAU0@ABU0@@Z ENDP			; CallBuff::operator=
_TEXT	ENDS
PUBLIC	?_Unchecked@?$_Vector_iterator@V?$_Vector_val@UCallBuff@@V?$allocator@UCallBuff@@@std@@@std@@@std@@QBEPAUCallBuff@@XZ ; std::_Vector_iterator<std::_Vector_val<CallBuff,std::allocator<CallBuff> > >::_Unchecked
; Function compile flags: /Ogsp
; File c:\program files (x86)\microsoft visual studio 10.0\vc\include\vector
;	COMDAT ?_Unchecked@?$_Vector_iterator@V?$_Vector_val@UCallBuff@@V?$allocator@UCallBuff@@@std@@@std@@@std@@QBEPAUCallBuff@@XZ
_TEXT	SEGMENT
?_Unchecked@?$_Vector_iterator@V?$_Vector_val@UCallBuff@@V?$allocator@UCallBuff@@@std@@@std@@@std@@QBEPAUCallBuff@@XZ PROC ; std::_Vector_iterator<std::_Vector_val<CallBuff,std::allocator<CallBuff> > >::_Unchecked, COMDAT
; _this$ = ecx

; 317  : 		return (_Unchecked_type(this->_Ptr));

  00000	8b 01		 mov	 eax, DWORD PTR [ecx]

; 318  : 		}

  00002	c3		 ret	 0
?_Unchecked@?$_Vector_iterator@V?$_Vector_val@UCallBuff@@V?$allocator@UCallBuff@@@std@@@std@@@std@@QBEPAUCallBuff@@XZ ENDP ; std::_Vector_iterator<std::_Vector_val<CallBuff,std::allocator<CallBuff> > >::_Unchecked
_TEXT	ENDS
PUBLIC	??$_Val_type@PAVioHashString@@@std@@YAPAVioHashString@@PAV1@@Z ; std::_Val_type<ioHashString *>
; Function compile flags: /Ogsp
; File c:\program files (x86)\microsoft visual studio 10.0\vc\include\xutility
;	COMDAT ??$_Val_type@PAVioHashString@@@std@@YAPAVioHashString@@PAV1@@Z
_TEXT	SEGMENT
___formal$ = 8						; size = 4
??$_Val_type@PAVioHashString@@@std@@YAPAVioHashString@@PAV1@@Z PROC ; std::_Val_type<ioHashString *>, COMDAT

; 790  : 	return (0);

  00000	33 c0		 xor	 eax, eax

; 791  : 	}

  00002	c3		 ret	 0
??$_Val_type@PAVioHashString@@@std@@YAPAVioHashString@@PAV1@@Z ENDP ; std::_Val_type<ioHashString *>
_TEXT	ENDS
PUBLIC	??$_Ptr_cat@V?$_Vector_const_iterator@V?$_Vector_val@UCallBuff@@V?$allocator@UCallBuff@@@std@@@std@@@std@@PAUCallBuff@@@std@@YA?AU_Nonscalar_ptr_iterator_tag@0@AAV?$_Vector_const_iterator@V?$_Vector_val@UCallBuff@@V?$allocator@UCallBuff@@@std@@@std@@@0@AAPAUCallBuff@@@Z ; std::_Ptr_cat<std::_Vector_const_iterator<std::_Vector_val<CallBuff,std::allocator<CallBuff> > >,CallBuff *>
; Function compile flags: /Ogsp
;	COMDAT ??$_Ptr_cat@V?$_Vector_const_iterator@V?$_Vector_val@UCallBuff@@V?$allocator@UCallBuff@@@std@@@std@@@std@@PAUCallBuff@@@std@@YA?AU_Nonscalar_ptr_iterator_tag@0@AAV?$_Vector_const_iterator@V?$_Vector_val@UCallBuff@@V?$allocator@UCallBuff@@@std@@@std@@@0@AAPAUCallBuff@@@Z
_TEXT	SEGMENT
__Cat$ = -1						; size = 1
___formal$ = 8						; size = 4
___formal$ = 12						; size = 4
??$_Ptr_cat@V?$_Vector_const_iterator@V?$_Vector_val@UCallBuff@@V?$allocator@UCallBuff@@@std@@@std@@@std@@PAUCallBuff@@@std@@YA?AU_Nonscalar_ptr_iterator_tag@0@AAV?$_Vector_const_iterator@V?$_Vector_val@UCallBuff@@V?$allocator@UCallBuff@@@std@@@std@@@0@AAPAUCallBuff@@@Z PROC ; std::_Ptr_cat<std::_Vector_const_iterator<std::_Vector_val<CallBuff,std::allocator<CallBuff> > >,CallBuff *>, COMDAT

; 485  : 	{	// return pointer category from arbitrary arguments

  00000	55		 push	 ebp
  00001	8b ec		 mov	 ebp, esp
  00003	51		 push	 ecx

; 486  : 	_Nonscalar_ptr_iterator_tag _Cat;
; 487  : 	return (_Cat);

  00004	8a 45 ff	 mov	 al, BYTE PTR __Cat$[ebp]

; 488  : 	}

  00007	c9		 leave
  00008	c3		 ret	 0
??$_Ptr_cat@V?$_Vector_const_iterator@V?$_Vector_val@UCallBuff@@V?$allocator@UCallBuff@@@std@@@std@@@std@@PAUCallBuff@@@std@@YA?AU_Nonscalar_ptr_iterator_tag@0@AAV?$_Vector_const_iterator@V?$_Vector_val@UCallBuff@@V?$allocator@UCallBuff@@@std@@@std@@@0@AAPAUCallBuff@@@Z ENDP ; std::_Ptr_cat<std::_Vector_const_iterator<std::_Vector_val<CallBuff,std::allocator<CallBuff> > >,CallBuff *>
_TEXT	ENDS
PUBLIC	??$_Val_type@PAUCallBuff@@@std@@YAPAUCallBuff@@PAU1@@Z ; std::_Val_type<CallBuff *>
; Function compile flags: /Ogsp
;	COMDAT ??$_Val_type@PAUCallBuff@@@std@@YAPAUCallBuff@@PAU1@@Z
_TEXT	SEGMENT
___formal$ = 8						; size = 4
??$_Val_type@PAUCallBuff@@@std@@YAPAUCallBuff@@PAU1@@Z PROC ; std::_Val_type<CallBuff *>, COMDAT

; 790  : 	return (0);

  00000	33 c0		 xor	 eax, eax

; 791  : 	}

  00002	c3		 ret	 0
??$_Val_type@PAUCallBuff@@@std@@YAPAUCallBuff@@PAU1@@Z ENDP ; std::_Val_type<CallBuff *>
_TEXT	ENDS
PUBLIC	??$move@AAUCallBuff@@@std@@YA$$QAUCallBuff@@AAU1@@Z ; std::move<CallBuff &>
; Function compile flags: /Ogsp
; File c:\program files (x86)\microsoft visual studio 10.0\vc\include\utility
;	COMDAT ??$move@AAUCallBuff@@@std@@YA$$QAUCallBuff@@AAU1@@Z
_TEXT	SEGMENT
__Arg$ = 8						; size = 4
??$move@AAUCallBuff@@@std@@YA$$QAUCallBuff@@AAU1@@Z PROC ; std::move<CallBuff &>, COMDAT

; 86   : 	{	// forward _Arg as movable

  00000	55		 push	 ebp
  00001	8b ec		 mov	 ebp, esp

; 87   : 	return ((typename tr1::_Remove_reference<_Ty>::_Type&&)_Arg);

  00003	8b 45 08	 mov	 eax, DWORD PTR __Arg$[ebp]

; 88   : 	}

  00006	5d		 pop	 ebp
  00007	c3		 ret	 0
??$move@AAUCallBuff@@@std@@YA$$QAUCallBuff@@AAU1@@Z ENDP ; std::move<CallBuff &>
_TEXT	ENDS
PUBLIC	??$_Val_type@PAPAVioBaseChar@@@std@@YAPAPAVioBaseChar@@PAPAV1@@Z ; std::_Val_type<ioBaseChar * *>
; Function compile flags: /Ogsp
; File c:\program files (x86)\microsoft visual studio 10.0\vc\include\xutility
;	COMDAT ??$_Val_type@PAPAVioBaseChar@@@std@@YAPAPAVioBaseChar@@PAPAV1@@Z
_TEXT	SEGMENT
___formal$ = 8						; size = 4
??$_Val_type@PAPAVioBaseChar@@@std@@YAPAPAVioBaseChar@@PAPAV1@@Z PROC ; std::_Val_type<ioBaseChar * *>, COMDAT

; 790  : 	return (0);

  00000	33 c0		 xor	 eax, eax

; 791  : 	}

  00002	c3		 ret	 0
??$_Val_type@PAPAVioBaseChar@@@std@@YAPAPAVioBaseChar@@PAPAV1@@Z ENDP ; std::_Val_type<ioBaseChar * *>
_TEXT	ENDS
PUBLIC	??$_Uninit_move@PAVioBaseChar@@PAV1@PAV1@@std@@YAPAPAVioBaseChar@@PAPAV1@00AAV?$allocator@PAVioBaseChar@@@0@0U_Scalar_ptr_iterator_tag@0@@Z ; std::_Uninit_move<ioBaseChar *,ioBaseChar *,ioBaseChar *>
; Function compile flags: /Ogsp
; File c:\program files (x86)\microsoft visual studio 10.0\vc\include\memory
;	COMDAT ??$_Uninit_move@PAVioBaseChar@@PAV1@PAV1@@std@@YAPAPAVioBaseChar@@PAPAV1@00AAV?$allocator@PAVioBaseChar@@@0@0U_Scalar_ptr_iterator_tag@0@@Z
_TEXT	SEGMENT
__First$ = 8						; size = 4
__Last$ = 12						; size = 4
__Dest$ = 16						; size = 4
___formal$ = 20						; size = 4
___formal$ = 24						; size = 4
___formal$ = 28						; size = 1
??$_Uninit_move@PAVioBaseChar@@PAV1@PAV1@@std@@YAPAPAVioBaseChar@@PAPAV1@00AAV?$allocator@PAVioBaseChar@@@0@0U_Scalar_ptr_iterator_tag@0@@Z PROC ; std::_Uninit_move<ioBaseChar *,ioBaseChar *,ioBaseChar *>, COMDAT

; 456  : 	{	// move [_First, _Last) to raw _Dest, scalar type

  00000	55		 push	 ebp
  00001	8b ec		 mov	 ebp, esp
  00003	56		 push	 esi

; 457  : 	_DEBUG_RANGE(_First, _Last);
; 458  : 	_DEBUG_POINTER(_Dest);
; 459  : 	size_t _Count = (size_t)(_Last - _First);

  00004	8b 75 0c	 mov	 esi, DWORD PTR __Last$[ebp]
  00007	2b 75 08	 sub	 esi, DWORD PTR __First$[ebp]
  0000a	c1 fe 02	 sar	 esi, 2

; 460  : 	return ((_Ty2 *)_CSTD memmove(&*_Dest, &*_First,
; 461  : 		_Count * sizeof (*_First)) + _Count);	// NB: non-overlapping move

  0000d	c1 e6 02	 shl	 esi, 2
  00010	56		 push	 esi
  00011	ff 75 08	 push	 DWORD PTR __First$[ebp]
  00014	ff 75 10	 push	 DWORD PTR __Dest$[ebp]
  00017	ff 15 00 00 00
	00		 call	 DWORD PTR __imp__memmove
  0001d	83 c4 0c	 add	 esp, 12			; 0000000cH
  00020	03 c6		 add	 eax, esi
  00022	5e		 pop	 esi

; 462  : 	}

  00023	5d		 pop	 ebp
  00024	c3		 ret	 0
??$_Uninit_move@PAVioBaseChar@@PAV1@PAV1@@std@@YAPAPAVioBaseChar@@PAPAV1@00AAV?$allocator@PAVioBaseChar@@@0@0U_Scalar_ptr_iterator_tag@0@@Z ENDP ; std::_Uninit_move<ioBaseChar *,ioBaseChar *,ioBaseChar *>
_TEXT	ENDS
PUBLIC	??$_Unchecked@PAUCallBuff@@@std@@YAPAUCallBuff@@PAU1@@Z ; std::_Unchecked<CallBuff *>
; Function compile flags: /Ogsp
; File c:\program files (x86)\microsoft visual studio 10.0\vc\include\xutility
;	COMDAT ??$_Unchecked@PAUCallBuff@@@std@@YAPAUCallBuff@@PAU1@@Z
_TEXT	SEGMENT
__Src$ = 8						; size = 4
??$_Unchecked@PAUCallBuff@@@std@@YAPAUCallBuff@@PAU1@@Z PROC ; std::_Unchecked<CallBuff *>, COMDAT

; 266  : 	{	// construct unchecked from checked, generic

  00000	55		 push	 ebp
  00001	8b ec		 mov	 ebp, esp

; 267  : 	return (_Src);

  00003	8b 45 08	 mov	 eax, DWORD PTR __Src$[ebp]

; 268  : 	}

  00006	5d		 pop	 ebp
  00007	c3		 ret	 0
??$_Unchecked@PAUCallBuff@@@std@@YAPAUCallBuff@@PAU1@@Z ENDP ; std::_Unchecked<CallBuff *>
_TEXT	ENDS
PUBLIC	??$_Dist_type@PAUCallBuff@@@std@@YAPAHPAUCallBuff@@@Z ; std::_Dist_type<CallBuff *>
; Function compile flags: /Ogsp
;	COMDAT ??$_Dist_type@PAUCallBuff@@@std@@YAPAHPAUCallBuff@@@Z
_TEXT	SEGMENT
___formal$ = 8						; size = 4
??$_Dist_type@PAUCallBuff@@@std@@YAPAHPAUCallBuff@@@Z PROC ; std::_Dist_type<CallBuff *>, COMDAT

; 850  : 	return (0);

  00000	33 c0		 xor	 eax, eax

; 851  : 	}

  00002	c3		 ret	 0
??$_Dist_type@PAUCallBuff@@@std@@YAPAHPAUCallBuff@@@Z ENDP ; std::_Dist_type<CallBuff *>
_TEXT	ENDS
PUBLIC	??_GCallBuff@@QAEPAXI@Z				; CallBuff::`scalar deleting destructor'
; Function compile flags: /Ogsp
;	COMDAT ??_GCallBuff@@QAEPAXI@Z
_TEXT	SEGMENT
___flags$ = 8						; size = 4
??_GCallBuff@@QAEPAXI@Z PROC				; CallBuff::`scalar deleting destructor', COMDAT
; _this$ = ecx
  00000	55		 push	 ebp
  00001	8b ec		 mov	 ebp, esp
  00003	56		 push	 esi
  00004	8b f1		 mov	 esi, ecx
  00006	ff 15 00 00 00
	00		 call	 DWORD PTR __imp_??1ioHashString@@QAE@XZ
  0000c	f6 45 08 01	 test	 BYTE PTR ___flags$[ebp], 1
  00010	74 07		 je	 SHORT $LN1@scalar@2
  00012	56		 push	 esi
  00013	e8 00 00 00 00	 call	 ??3@YAXPAX@Z		; operator delete
  00018	59		 pop	 ecx
$LN1@scalar@2:
  00019	8b c6		 mov	 eax, esi
  0001b	5e		 pop	 esi
  0001c	5d		 pop	 ebp
  0001d	c2 04 00	 ret	 4
??_GCallBuff@@QAEPAXI@Z ENDP				; CallBuff::`scalar deleting destructor'
_TEXT	ENDS
PUBLIC	??$forward@AAPAUCallBuff@@@std@@YAAAPAUCallBuff@@AAPAU1@@Z ; std::forward<CallBuff * &>
; Function compile flags: /Ogsp
; File c:\program files (x86)\microsoft visual studio 10.0\vc\include\utility
;	COMDAT ??$forward@AAPAUCallBuff@@@std@@YAAAPAUCallBuff@@AAPAU1@@Z
_TEXT	SEGMENT
__Arg$ = 8						; size = 4
??$forward@AAPAUCallBuff@@@std@@YAAAPAUCallBuff@@AAPAU1@@Z PROC ; std::forward<CallBuff * &>, COMDAT

; 78   : 	{	// forward _Arg, given explicitly specified type parameter

  00000	55		 push	 ebp
  00001	8b ec		 mov	 ebp, esp

; 79   : 	return ((_Ty&&)_Arg);

  00003	8b 45 08	 mov	 eax, DWORD PTR __Arg$[ebp]

; 80   : 	}

  00006	5d		 pop	 ebp
  00007	c3		 ret	 0
??$forward@AAPAUCallBuff@@@std@@YAAAPAUCallBuff@@AAPAU1@@Z ENDP ; std::forward<CallBuff * &>
_TEXT	ENDS
PUBLIC	??$?0AAPAUCallBuff@@AAPAU0@@?$_Pair_base@PAUCallBuff@@PAU1@@std@@QAE@AAPAUCallBuff@@0@Z ; std::_Pair_base<CallBuff *,CallBuff *>::_Pair_base<CallBuff *,CallBuff *><CallBuff * &,CallBuff * &>
; Function compile flags: /Ogsp
;	COMDAT ??$?0AAPAUCallBuff@@AAPAU0@@?$_Pair_base@PAUCallBuff@@PAU1@@std@@QAE@AAPAUCallBuff@@0@Z
_TEXT	SEGMENT
__Val1$ = 8						; size = 4
__Val2$ = 12						; size = 4
??$?0AAPAUCallBuff@@AAPAU0@@?$_Pair_base@PAUCallBuff@@PAU1@@std@@QAE@AAPAUCallBuff@@0@Z PROC ; std::_Pair_base<CallBuff *,CallBuff *>::_Pair_base<CallBuff *,CallBuff *><CallBuff * &,CallBuff * &>, COMDAT
; _this$ = ecx

; 163  : 		{	// construct from moved values

  00000	55		 push	 ebp
  00001	8b ec		 mov	 ebp, esp
  00003	8b c1		 mov	 eax, ecx
  00005	8b 4d 08	 mov	 ecx, DWORD PTR __Val1$[ebp]
  00008	8b 09		 mov	 ecx, DWORD PTR [ecx]
  0000a	89 08		 mov	 DWORD PTR [eax], ecx
  0000c	8b 4d 0c	 mov	 ecx, DWORD PTR __Val2$[ebp]
  0000f	8b 09		 mov	 ecx, DWORD PTR [ecx]
  00011	89 48 04	 mov	 DWORD PTR [eax+4], ecx

; 164  : 		}

  00014	5d		 pop	 ebp
  00015	c2 08 00	 ret	 8
??$?0AAPAUCallBuff@@AAPAU0@@?$_Pair_base@PAUCallBuff@@PAU1@@std@@QAE@AAPAUCallBuff@@0@Z ENDP ; std::_Pair_base<CallBuff *,CallBuff *>::_Pair_base<CallBuff *,CallBuff *><CallBuff * &,CallBuff * &>
_TEXT	ENDS
PUBLIC	??$_Move@AAUCallBuff@@@std@@YA$$QAUCallBuff@@AAU1@@Z ; std::_Move<CallBuff &>
; Function compile flags: /Ogsp
;	COMDAT ??$_Move@AAUCallBuff@@@std@@YA$$QAUCallBuff@@AAU1@@Z
_TEXT	SEGMENT
__Arg$ = 8						; size = 4
??$_Move@AAUCallBuff@@@std@@YA$$QAUCallBuff@@AAU1@@Z PROC ; std::_Move<CallBuff &>, COMDAT

; 94   : 	{	// forward _Arg as movable

  00000	55		 push	 ebp
  00001	8b ec		 mov	 ebp, esp

; 95   : 	return ((typename tr1::_Remove_reference<_Ty>::_Type&&)_Arg);

  00003	8b 45 08	 mov	 eax, DWORD PTR __Arg$[ebp]

; 96   : 	}

  00006	5d		 pop	 ebp
  00007	c3		 ret	 0
??$_Move@AAUCallBuff@@@std@@YA$$QAUCallBuff@@AAU1@@Z ENDP ; std::_Move<CallBuff &>
_TEXT	ENDS
PUBLIC	??$forward@VioHashString@@@std@@YA$$QAVioHashString@@AAV1@@Z ; std::forward<ioHashString>
; Function compile flags: /Ogsp
;	COMDAT ??$forward@VioHashString@@@std@@YA$$QAVioHashString@@AAV1@@Z
_TEXT	SEGMENT
__Arg$ = 8						; size = 4
??$forward@VioHashString@@@std@@YA$$QAVioHashString@@AAV1@@Z PROC ; std::forward<ioHashString>, COMDAT

; 78   : 	{	// forward _Arg, given explicitly specified type parameter

  00000	55		 push	 ebp
  00001	8b ec		 mov	 ebp, esp

; 79   : 	return ((_Ty&&)_Arg);

  00003	8b 45 08	 mov	 eax, DWORD PTR __Arg$[ebp]

; 80   : 	}

  00006	5d		 pop	 ebp
  00007	c3		 ret	 0
??$forward@VioHashString@@@std@@YA$$QAVioHashString@@AAV1@@Z ENDP ; std::forward<ioHashString>
_TEXT	ENDS
PUBLIC	??$forward@UCallBuff@@@std@@YA$$QAUCallBuff@@AAU1@@Z ; std::forward<CallBuff>
; Function compile flags: /Ogsp
;	COMDAT ??$forward@UCallBuff@@@std@@YA$$QAUCallBuff@@AAU1@@Z
_TEXT	SEGMENT
__Arg$ = 8						; size = 4
??$forward@UCallBuff@@@std@@YA$$QAUCallBuff@@AAU1@@Z PROC ; std::forward<CallBuff>, COMDAT

; 78   : 	{	// forward _Arg, given explicitly specified type parameter

  00000	55		 push	 ebp
  00001	8b ec		 mov	 ebp, esp

; 79   : 	return ((_Ty&&)_Arg);

  00003	8b 45 08	 mov	 eax, DWORD PTR __Arg$[ebp]

; 80   : 	}

  00006	5d		 pop	 ebp
  00007	c3		 ret	 0
??$forward@UCallBuff@@@std@@YA$$QAUCallBuff@@AAU1@@Z ENDP ; std::forward<CallBuff>
_TEXT	ENDS
PUBLIC	??$_Move_backward@PAUCallBuff@@PAU1@@std@@YAPAUCallBuff@@PAU1@00U_Nonscalar_ptr_iterator_tag@0@@Z ; std::_Move_backward<CallBuff *,CallBuff *>
; Function compile flags: /Ogsp
; File c:\program files (x86)\microsoft visual studio 10.0\vc\include\xutility
;	COMDAT ??$_Move_backward@PAUCallBuff@@PAU1@@std@@YAPAUCallBuff@@PAU1@00U_Nonscalar_ptr_iterator_tag@0@@Z
_TEXT	SEGMENT
__First$ = 8						; size = 4
__Last$ = 12						; size = 4
__Dest$ = 16						; size = 4
___formal$ = 20						; size = 1
??$_Move_backward@PAUCallBuff@@PAU1@@std@@YAPAUCallBuff@@PAU1@00U_Nonscalar_ptr_iterator_tag@0@@Z PROC ; std::_Move_backward<CallBuff *,CallBuff *>, COMDAT

; 2617 : 	{	// move [_First, _Last) backwards to [..., _Dest), arbitrary iterators

  00000	55		 push	 ebp
  00001	8b ec		 mov	 ebp, esp
  00003	56		 push	 esi

; 2618 : 	while (_First != _Last)

  00004	8b 75 0c	 mov	 esi, DWORD PTR __Last$[ebp]
  00007	39 75 08	 cmp	 DWORD PTR __First$[ebp], esi
  0000a	74 1f		 je	 SHORT $LN11@Move_backw
$LL2@Move_backw:

; 2619 : 		*--_Dest = _STD move(*--_Last);

  0000c	83 6d 10 14	 sub	 DWORD PTR __Dest$[ebp], 20 ; 00000014H
  00010	8b 4d 10	 mov	 ecx, DWORD PTR __Dest$[ebp]
  00013	83 ee 14	 sub	 esi, 20			; 00000014H
  00016	56		 push	 esi
  00017	ff 15 00 00 00
	00		 call	 DWORD PTR __imp_??4ioHashString@@QAEAAV0@ABV0@@Z
  0001d	8b 46 10	 mov	 eax, DWORD PTR [esi+16]
  00020	8b 4d 10	 mov	 ecx, DWORD PTR __Dest$[ebp]
  00023	89 41 10	 mov	 DWORD PTR [ecx+16], eax
  00026	3b 75 08	 cmp	 esi, DWORD PTR __First$[ebp]
  00029	75 e1		 jne	 SHORT $LL2@Move_backw
$LN11@Move_backw:

; 2620 : 	return (_Dest);

  0002b	8b 45 10	 mov	 eax, DWORD PTR __Dest$[ebp]
  0002e	5e		 pop	 esi

; 2621 : 	}

  0002f	5d		 pop	 ebp
  00030	c3		 ret	 0
??$_Move_backward@PAUCallBuff@@PAU1@@std@@YAPAUCallBuff@@PAU1@00U_Nonscalar_ptr_iterator_tag@0@@Z ENDP ; std::_Move_backward<CallBuff *,CallBuff *>
_TEXT	ENDS
PUBLIC	??0D3DXVECTOR3@@QAE@MMM@Z			; D3DXVECTOR3::D3DXVECTOR3
EXTRN	__fltused:DWORD
; Function compile flags: /Ogsp
; File c:\program files (x86)\microsoft directx sdk (june 2010)\include\d3dx9math.inl
;	COMDAT ??0D3DXVECTOR3@@QAE@MMM@Z
_TEXT	SEGMENT
_fx$ = 8						; size = 4
_fy$ = 12						; size = 4
_fz$ = 16						; size = 4
??0D3DXVECTOR3@@QAE@MMM@Z PROC				; D3DXVECTOR3::D3DXVECTOR3, COMDAT
; _this$ = ecx

; 303  : {

  00000	55		 push	 ebp
  00001	8b ec		 mov	 ebp, esp

; 304  :     x = fx;

  00003	f3 0f 10 45 08	 movss	 xmm0, DWORD PTR _fx$[ebp]
  00008	8b c1		 mov	 eax, ecx
  0000a	f3 0f 11 00	 movss	 DWORD PTR [eax], xmm0

; 305  :     y = fy;

  0000e	f3 0f 10 45 0c	 movss	 xmm0, DWORD PTR _fy$[ebp]
  00013	f3 0f 11 40 04	 movss	 DWORD PTR [eax+4], xmm0

; 306  :     z = fz;

  00018	f3 0f 10 45 10	 movss	 xmm0, DWORD PTR _fz$[ebp]
  0001d	f3 0f 11 40 08	 movss	 DWORD PTR [eax+8], xmm0

; 307  : }

  00022	5d		 pop	 ebp
  00023	c2 0c 00	 ret	 12			; 0000000cH
??0D3DXVECTOR3@@QAE@MMM@Z ENDP				; D3DXVECTOR3::D3DXVECTOR3
_TEXT	ENDS
PUBLIC	??GD3DXVECTOR3@@QBE?AU0@ABU0@@Z			; D3DXVECTOR3::operator-
; Function compile flags: /Ogsp
;	COMDAT ??GD3DXVECTOR3@@QBE?AU0@ABU0@@Z
_TEXT	SEGMENT
___$ReturnUdt$ = 8					; size = 4
_v$ = 12						; size = 4
??GD3DXVECTOR3@@QBE?AU0@ABU0@@Z PROC			; D3DXVECTOR3::operator-, COMDAT
; _this$ = ecx

; 386  : {

  00000	55		 push	 ebp
  00001	8b ec		 mov	 ebp, esp

; 387  :     return D3DXVECTOR3(x - v.x, y - v.y, z - v.z);

  00003	8b 55 0c	 mov	 edx, DWORD PTR _v$[ebp]
  00006	f3 0f 10 01	 movss	 xmm0, DWORD PTR [ecx]
  0000a	f3 0f 10 0a	 movss	 xmm1, DWORD PTR [edx]
  0000e	8b 45 08	 mov	 eax, DWORD PTR ___$ReturnUdt$[ebp]
  00011	0f 5a c0	 cvtps2pd xmm0, xmm0
  00014	0f 5a c9	 cvtps2pd xmm1, xmm1
  00017	f2 0f 5c c1	 subsd	 xmm0, xmm1
  0001b	f3 0f 10 4a 04	 movss	 xmm1, DWORD PTR [edx+4]
  00020	66 0f 5a c0	 cvtpd2ps xmm0, xmm0
  00024	f3 0f 11 00	 movss	 DWORD PTR [eax], xmm0
  00028	f3 0f 10 41 04	 movss	 xmm0, DWORD PTR [ecx+4]
  0002d	0f 5a c0	 cvtps2pd xmm0, xmm0
  00030	0f 5a c9	 cvtps2pd xmm1, xmm1
  00033	f2 0f 5c c1	 subsd	 xmm0, xmm1
  00037	f3 0f 10 4a 08	 movss	 xmm1, DWORD PTR [edx+8]
  0003c	66 0f 5a c0	 cvtpd2ps xmm0, xmm0
  00040	f3 0f 11 40 04	 movss	 DWORD PTR [eax+4], xmm0
  00045	f3 0f 10 41 08	 movss	 xmm0, DWORD PTR [ecx+8]
  0004a	0f 5a c0	 cvtps2pd xmm0, xmm0
  0004d	0f 5a c9	 cvtps2pd xmm1, xmm1
  00050	f2 0f 5c c1	 subsd	 xmm0, xmm1
  00054	66 0f 5a c0	 cvtpd2ps xmm0, xmm0
  00058	f3 0f 11 40 08	 movss	 DWORD PTR [eax+8], xmm0

; 388  : }

  0005d	5d		 pop	 ebp
  0005e	c2 08 00	 ret	 8
??GD3DXVECTOR3@@QBE?AU0@ABU0@@Z ENDP			; D3DXVECTOR3::operator-
_TEXT	ENDS
PUBLIC	?D3DXVec3LengthSq@@YAMPBUD3DXVECTOR3@@@Z	; D3DXVec3LengthSq
; Function compile flags: /Ogsp
;	COMDAT ?D3DXVec3LengthSq@@YAMPBUD3DXVECTOR3@@@Z
_TEXT	SEGMENT
tv165 = 8						; size = 4
_pV$ = 8						; size = 4
?D3DXVec3LengthSq@@YAMPBUD3DXVECTOR3@@@Z PROC		; D3DXVec3LengthSq, COMDAT

; 1725 : {

  00000	55		 push	 ebp
  00001	8b ec		 mov	 ebp, esp

; 1726 : #ifdef D3DX_DEBUG
; 1727 :     if(!pV)
; 1728 :         return 0.0f;
; 1729 : #endif
; 1730 : 
; 1731 :     return pV->x * pV->x + pV->y * pV->y + pV->z * pV->z;

  00003	8b 45 08	 mov	 eax, DWORD PTR _pV$[ebp]
  00006	d9 40 04	 fld	 DWORD PTR [eax+4]
  00009	d9 00		 fld	 DWORD PTR [eax]
  0000b	d9 40 08	 fld	 DWORD PTR [eax+8]
  0000e	d9 c1		 fld	 ST(1)
  00010	de ca		 fmulp	 ST(2), ST(0)
  00012	d9 c2		 fld	 ST(2)
  00014	de cb		 fmulp	 ST(3), ST(0)
  00016	d9 c9		 fxch	 ST(1)
  00018	de c2		 faddp	 ST(2), ST(0)
  0001a	d9 c0		 fld	 ST(0)
  0001c	de c9		 fmulp	 ST(1), ST(0)
  0001e	de c1		 faddp	 ST(1), ST(0)
  00020	d9 5d 08	 fstp	 DWORD PTR tv165[ebp]
  00023	d9 45 08	 fld	 DWORD PTR tv165[ebp]

; 1732 : }

  00026	5d		 pop	 ebp
  00027	c3		 ret	 0
?D3DXVec3LengthSq@@YAMPBUD3DXVECTOR3@@@Z ENDP		; D3DXVec3LengthSq
_TEXT	ENDS
PUBLIC	?_DECSTR@@YAXPADH@Z				; _DECSTR
; Function compile flags: /Ogsp
; File d:\lost saga for developer\youtube\tutorial\source\src\lsclient\stringprotect.h
;	COMDAT ?_DECSTR@@YAXPADH@Z
_TEXT	SEGMENT
_s$ = 8							; size = 4
_l$ = 12						; size = 4
?_DECSTR@@YAXPADH@Z PROC				; _DECSTR, COMDAT

; 40   : __forceinline void _DECSTR(char* s, int l){int i=0,l4=(l-1)/4,*p=(int*)s;s[l-1]=0;for(;i<l4;++i)*(p++)^=0xEAEBECED;for(i=l4*4;i<l-1;++i)s[i]^=0xED-i%4;}

  00000	55		 push	 ebp
  00001	8b ec		 mov	 ebp, esp
  00003	8b 4d 0c	 mov	 ecx, DWORD PTR _l$[ebp]
  00006	56		 push	 esi
  00007	8b 75 08	 mov	 esi, DWORD PTR _s$[ebp]
  0000a	57		 push	 edi
  0000b	8d 79 ff	 lea	 edi, DWORD PTR [ecx-1]
  0000e	8b c7		 mov	 eax, edi
  00010	99		 cdq
  00011	83 e2 03	 and	 edx, 3
  00014	03 c2		 add	 eax, edx
  00016	c1 f8 02	 sar	 eax, 2
  00019	8b d6		 mov	 edx, esi
  0001b	c6 44 0e ff 00	 mov	 BYTE PTR [esi+ecx-1], 0
  00020	85 c0		 test	 eax, eax
  00022	7e 0e		 jle	 SHORT $LN4@DECSTR
  00024	8b c8		 mov	 ecx, eax
$LL6@DECSTR:
  00026	81 32 ed ec eb
	ea		 xor	 DWORD PTR [edx], -353637139 ; eaebecedH
  0002c	83 c2 04	 add	 edx, 4
  0002f	49		 dec	 ecx
  00030	75 f4		 jne	 SHORT $LL6@DECSTR
$LN4@DECSTR:
  00032	c1 e0 02	 shl	 eax, 2
  00035	eb 17		 jmp	 SHORT $LN14@DECSTR
$LL3@DECSTR:
  00037	8b c8		 mov	 ecx, eax
  00039	81 e1 03 00 00
	80		 and	 ecx, -2147483645	; 80000003H
  0003f	79 05		 jns	 SHORT $LN13@DECSTR
  00041	49		 dec	 ecx
  00042	83 c9 fc	 or	 ecx, -4			; fffffffcH
  00045	41		 inc	 ecx
$LN13@DECSTR:
  00046	b2 ed		 mov	 dl, -19			; ffffffedH
  00048	2a d1		 sub	 dl, cl
  0004a	30 14 30	 xor	 BYTE PTR [eax+esi], dl
  0004d	40		 inc	 eax
$LN14@DECSTR:
  0004e	3b c7		 cmp	 eax, edi
  00050	7c e5		 jl	 SHORT $LL3@DECSTR
  00052	5f		 pop	 edi
  00053	5e		 pop	 esi
  00054	5d		 pop	 ebp
  00055	c3		 ret	 0
?_DECSTR@@YAXPADH@Z ENDP				; _DECSTR
_TEXT	ENDS
PUBLIC	??0CallBuff@@QAE@XZ				; CallBuff::CallBuff
EXTRN	__imp_??0ioHashString@@QAE@XZ:PROC
; Function compile flags: /Ogsp
; File d:\lost saga for developer\youtube\tutorial\source\src\lsclient\iobuff.h
;	COMDAT ??0CallBuff@@QAE@XZ
_TEXT	SEGMENT
??0CallBuff@@QAE@XZ PROC				; CallBuff::CallBuff, COMDAT
; _this$ = ecx

; 69   : 	CallBuff()

  00000	56		 push	 esi
  00001	8b f1		 mov	 esi, ecx
  00003	ff 15 00 00 00
	00		 call	 DWORD PTR __imp_??0ioHashString@@QAE@XZ

; 70   : 	{
; 71   : 		m_dwBuffCallTime = 0;

  00009	83 66 10 00	 and	 DWORD PTR [esi+16], 0

; 72   : 	}

  0000d	8b c6		 mov	 eax, esi
  0000f	5e		 pop	 esi
  00010	c3		 ret	 0
??0CallBuff@@QAE@XZ ENDP				; CallBuff::CallBuff
_TEXT	ENDS
PUBLIC	??RCallBuffSort@@QBE_NABUCallBuff@@0@Z		; CallBuffSort::operator()
EXTRN	__imp__stricmp:PROC
EXTRN	__imp_?c_str@ioHashString@@QBEPBDXZ:PROC
; Function compile flags: /Ogsp
;	COMDAT ??RCallBuffSort@@QBE_NABUCallBuff@@0@Z
_TEXT	SEGMENT
_lhs$ = 8						; size = 4
_rhs$ = 12						; size = 4
??RCallBuffSort@@QBE_NABUCallBuff@@0@Z PROC		; CallBuffSort::operator(), COMDAT
; _this$ = ecx

; 81   : 	{

  00000	55		 push	 ebp
  00001	8b ec		 mov	 ebp, esp

; 82   : 		if( lhs.m_dwBuffCallTime < rhs.m_dwBuffCallTime )

  00003	8b 4d 0c	 mov	 ecx, DWORD PTR _rhs$[ebp]
  00006	8b 51 10	 mov	 edx, DWORD PTR [ecx+16]
  00009	56		 push	 esi
  0000a	8b 75 08	 mov	 esi, DWORD PTR _lhs$[ebp]
  0000d	8b 46 10	 mov	 eax, DWORD PTR [esi+16]
  00010	3b c2		 cmp	 eax, edx
  00012	73 04		 jae	 SHORT $LN7@operator
$LN8@operator:

; 83   : 		{
; 84   : 			return true;

  00014	b0 01		 mov	 al, 1
  00016	eb 20		 jmp	 SHORT $LN5@operator
$LN7@operator:

; 85   : 		}
; 86   : 		else if( lhs.m_dwBuffCallTime == rhs.m_dwBuffCallTime )

  00018	75 1c		 jne	 SHORT $LN1@operator

; 87   : 		{
; 88   : 			int iCmpValue = stricmp( lhs.m_szBuffName.c_str(), rhs.m_szBuffName.c_str() );     

  0001a	ff 15 00 00 00
	00		 call	 DWORD PTR __imp_?c_str@ioHashString@@QBEPBDXZ
  00020	50		 push	 eax
  00021	8b ce		 mov	 ecx, esi
  00023	ff 15 00 00 00
	00		 call	 DWORD PTR __imp_?c_str@ioHashString@@QBEPBDXZ
  00029	50		 push	 eax
  0002a	ff 15 00 00 00
	00		 call	 DWORD PTR __imp__stricmp
  00030	59		 pop	 ecx
  00031	59		 pop	 ecx

; 89   : 			if( iCmpValue < 0 )

  00032	85 c0		 test	 eax, eax

; 90   : 				return true;

  00034	78 de		 js	 SHORT $LN8@operator
$LN1@operator:

; 91   : 		}
; 92   : 		return false;

  00036	32 c0		 xor	 al, al
$LN5@operator:
  00038	5e		 pop	 esi

; 93   : 	}

  00039	5d		 pop	 ebp
  0003a	c2 08 00	 ret	 8
??RCallBuffSort@@QBE_NABUCallBuff@@0@Z ENDP		; CallBuffSort::operator()
_TEXT	ENDS
PUBLIC	?GetTypeID@ioBuff@@QBEHXZ			; ioBuff::GetTypeID
; Function compile flags: /Ogsp
;	COMDAT ?GetTypeID@ioBuff@@QBEHXZ
_TEXT	SEGMENT
?GetTypeID@ioBuff@@QBEHXZ PROC				; ioBuff::GetTypeID, COMDAT
; _this$ = ecx

; 424  : 	inline int GetTypeID() const { return m_iBuffType; }

  00000	8b 81 cc 03 00
	00		 mov	 eax, DWORD PTR [ecx+972]
  00006	c3		 ret	 0
?GetTypeID@ioBuff@@QBEHXZ ENDP				; ioBuff::GetTypeID
_TEXT	ENDS
PUBLIC	?GetName@ioBuff@@QBEABVioHashString@@XZ		; ioBuff::GetName
; Function compile flags: /Ogsp
;	COMDAT ?GetName@ioBuff@@QBEABVioHashString@@XZ
_TEXT	SEGMENT
?GetName@ioBuff@@QBEABVioHashString@@XZ PROC		; ioBuff::GetName, COMDAT
; _this$ = ecx

; 440  : 	inline const ioHashString& GetName() const { return m_Name; }

  00000	8d 81 34 02 00
	00		 lea	 eax, DWORD PTR [ecx+564]
  00006	c3		 ret	 0
?GetName@ioBuff@@QBEABVioHashString@@XZ ENDP		; ioBuff::GetName
_TEXT	ENDS
PUBLIC	?size@?$vector@VioHashString@@V?$allocator@VioHashString@@@std@@@std@@QBEIXZ ; std::vector<ioHashString,std::allocator<ioHashString> >::size
; Function compile flags: /Ogsp
; File c:\program files (x86)\microsoft visual studio 10.0\vc\include\vector
;	COMDAT ?size@?$vector@VioHashString@@V?$allocator@VioHashString@@@std@@@std@@QBEIXZ
_TEXT	SEGMENT
?size@?$vector@VioHashString@@V?$allocator@VioHashString@@@std@@@std@@QBEIXZ PROC ; std::vector<ioHashString,std::allocator<ioHashString> >::size, COMDAT
; _this$ = ecx

; 879  : 		return (this->_Mylast - this->_Myfirst);

  00000	8b 41 04	 mov	 eax, DWORD PTR [ecx+4]
  00003	2b 01		 sub	 eax, DWORD PTR [ecx]
  00005	c1 f8 04	 sar	 eax, 4

; 880  : 		}

  00008	c3		 ret	 0
?size@?$vector@VioHashString@@V?$allocator@VioHashString@@@std@@@std@@QBEIXZ ENDP ; std::vector<ioHashString,std::allocator<ioHashString> >::size
_TEXT	ENDS
PUBLIC	??_7?$CEncrypt@M@@6B@				; CEncrypt<float>::`vftable'
PUBLIC	??1?$CEncrypt@M@@UAE@XZ				; CEncrypt<float>::~CEncrypt<float>
PUBLIC	??_R4?$CEncrypt@M@@6B@				; CEncrypt<float>::`RTTI Complete Object Locator'
PUBLIC	??_R0?AV?$CEncrypt@M@@@8			; CEncrypt<float> `RTTI Type Descriptor'
PUBLIC	??_R3?$CEncrypt@M@@8				; CEncrypt<float>::`RTTI Class Hierarchy Descriptor'
PUBLIC	??_R2?$CEncrypt@M@@8				; CEncrypt<float>::`RTTI Base Class Array'
PUBLIC	??_R1A@?0A@EA@?$CEncrypt@M@@8			; CEncrypt<float>::`RTTI Base Class Descriptor at (0,-1,0,64)'
EXTRN	??1ccddaabb@@UAE@XZ:PROC			; ccddaabb::~ccddaabb
EXTRN	??_E?$CEncrypt@M@@UAEPAXI@Z:PROC		; CEncrypt<float>::`vector deleting destructor'
;	COMDAT ??_R1A@?0A@EA@?$CEncrypt@M@@8
; File d:\lost saga for developer\youtube\tutorial\source\src\lsclient\encryptvalue.h
rdata$r	SEGMENT
??_R1A@?0A@EA@?$CEncrypt@M@@8 DD FLAT:??_R0?AV?$CEncrypt@M@@@8 ; CEncrypt<float>::`RTTI Base Class Descriptor at (0,-1,0,64)'
	DD	00H
	DD	00H
	DD	0ffffffffH
	DD	00H
	DD	040H
	DD	FLAT:??_R3?$CEncrypt@M@@8
rdata$r	ENDS
;	COMDAT ??_R2?$CEncrypt@M@@8
rdata$r	SEGMENT
??_R2?$CEncrypt@M@@8 DD FLAT:??_R1A@?0A@EA@?$CEncrypt@M@@8 ; CEncrypt<float>::`RTTI Base Class Array'
rdata$r	ENDS
;	COMDAT ??_R3?$CEncrypt@M@@8
rdata$r	SEGMENT
??_R3?$CEncrypt@M@@8 DD 00H				; CEncrypt<float>::`RTTI Class Hierarchy Descriptor'
	DD	00H
	DD	01H
	DD	FLAT:??_R2?$CEncrypt@M@@8
rdata$r	ENDS
;	COMDAT ??_R0?AV?$CEncrypt@M@@@8
_DATA	SEGMENT
??_R0?AV?$CEncrypt@M@@@8 DD FLAT:??_7type_info@@6B@	; CEncrypt<float> `RTTI Type Descriptor'
	DD	00H
	DB	'.?AV?$CEncrypt@M@@', 00H
_DATA	ENDS
;	COMDAT ??_R4?$CEncrypt@M@@6B@
rdata$r	SEGMENT
??_R4?$CEncrypt@M@@6B@ DD 00H				; CEncrypt<float>::`RTTI Complete Object Locator'
	DD	00H
	DD	00H
	DD	FLAT:??_R0?AV?$CEncrypt@M@@@8
	DD	FLAT:??_R3?$CEncrypt@M@@8
rdata$r	ENDS
;	COMDAT ??_7?$CEncrypt@M@@6B@
CONST	SEGMENT
??_7?$CEncrypt@M@@6B@ DD FLAT:??_R4?$CEncrypt@M@@6B@	; CEncrypt<float>::`vftable'
	DD	FLAT:??_E?$CEncrypt@M@@UAEPAXI@Z
; Function compile flags: /Ogsp
CONST	ENDS
;	COMDAT ??1?$CEncrypt@M@@UAE@XZ
_TEXT	SEGMENT
??1?$CEncrypt@M@@UAE@XZ PROC				; CEncrypt<float>::~CEncrypt<float>, COMDAT
; _this$ = ecx

; 127  : 	{

  00000	c7 01 00 00 00
	00		 mov	 DWORD PTR [ecx], OFFSET ??_7?$CEncrypt@M@@6B@

; 128  : 	}

  00006	83 c1 0c	 add	 ecx, 12			; 0000000cH
  00009	e9 00 00 00 00	 jmp	 ??1ccddaabb@@UAE@XZ	; ccddaabb::~ccddaabb
??1?$CEncrypt@M@@UAE@XZ ENDP				; CEncrypt<float>::~CEncrypt<float>
; Function compile flags: /Ogsp
_TEXT	ENDS
;	COMDAT ??_G?$CEncrypt@M@@UAEPAXI@Z
_TEXT	SEGMENT
___flags$ = 8						; size = 4
??_G?$CEncrypt@M@@UAEPAXI@Z PROC			; CEncrypt<float>::`scalar deleting destructor', COMDAT
; _this$ = ecx
  00000	55		 push	 ebp
  00001	8b ec		 mov	 ebp, esp
  00003	56		 push	 esi
  00004	8b f1		 mov	 esi, ecx
  00006	8d 4e 0c	 lea	 ecx, DWORD PTR [esi+12]
  00009	c7 06 00 00 00
	00		 mov	 DWORD PTR [esi], OFFSET ??_7?$CEncrypt@M@@6B@
  0000f	e8 00 00 00 00	 call	 ??1ccddaabb@@UAE@XZ	; ccddaabb::~ccddaabb
  00014	f6 45 08 01	 test	 BYTE PTR ___flags$[ebp], 1
  00018	74 07		 je	 SHORT $LN1@scalar@3
  0001a	56		 push	 esi
  0001b	e8 00 00 00 00	 call	 ??3@YAXPAX@Z		; operator delete
  00020	59		 pop	 ecx
$LN1@scalar@3:
  00021	8b c6		 mov	 eax, esi
  00023	5e		 pop	 esi
  00024	5d		 pop	 ebp
  00025	c2 04 00	 ret	 4
??_G?$CEncrypt@M@@UAEPAXI@Z ENDP			; CEncrypt<float>::`scalar deleting destructor'
_TEXT	ENDS
PUBLIC	??1?$_Vector_val@VioHashString@@V?$allocator@VioHashString@@@std@@@std@@QAE@XZ ; std::_Vector_val<ioHashString,std::allocator<ioHashString> >::~_Vector_val<ioHashString,std::allocator<ioHashString> >
; Function compile flags: /Ogsp
; File c:\program files (x86)\microsoft visual studio 10.0\vc\include\vector
;	COMDAT ??1?$_Vector_val@VioHashString@@V?$allocator@VioHashString@@@std@@@std@@QAE@XZ
_TEXT	SEGMENT
??1?$_Vector_val@VioHashString@@V?$allocator@VioHashString@@@std@@@std@@QAE@XZ PROC ; std::_Vector_val<ioHashString,std::allocator<ioHashString> >::~_Vector_val<ioHashString,std::allocator<ioHashString> >, COMDAT
; _this$ = ecx

; 434  : 		}

  00000	c3		 ret	 0
??1?$_Vector_val@VioHashString@@V?$allocator@VioHashString@@@std@@@std@@QAE@XZ ENDP ; std::_Vector_val<ioHashString,std::allocator<ioHashString> >::~_Vector_val<ioHashString,std::allocator<ioHashString> >
_TEXT	ENDS
PUBLIC	??0?$allocator@VioHashString@@@std@@QAE@XZ	; std::allocator<ioHashString>::allocator<ioHashString>
; Function compile flags: /Ogsp
; File c:\program files (x86)\microsoft visual studio 10.0\vc\include\xmemory
;	COMDAT ??0?$allocator@VioHashString@@@std@@QAE@XZ
_TEXT	SEGMENT
??0?$allocator@VioHashString@@@std@@QAE@XZ PROC		; std::allocator<ioHashString>::allocator<ioHashString>, COMDAT
; _this$ = ecx

; 161  : 	_ALLOCATOR() _THROW0()

  00000	8b c1		 mov	 eax, ecx

; 162  : 		{	// construct default allocator (do nothing)
; 163  : 		}

  00002	c3		 ret	 0
??0?$allocator@VioHashString@@@std@@QAE@XZ ENDP		; std::allocator<ioHashString>::allocator<ioHashString>
_TEXT	ENDS
PUBLIC	??0?$allocator@VioHashString@@@std@@QAE@ABV01@@Z ; std::allocator<ioHashString>::allocator<ioHashString>
; Function compile flags: /Ogsp
;	COMDAT ??0?$allocator@VioHashString@@@std@@QAE@ABV01@@Z
_TEXT	SEGMENT
___formal$ = 8						; size = 4
??0?$allocator@VioHashString@@@std@@QAE@ABV01@@Z PROC	; std::allocator<ioHashString>::allocator<ioHashString>, COMDAT
; _this$ = ecx

; 165  : 	_ALLOCATOR(const _ALLOCATOR<_Ty>&) _THROW0()

  00000	8b c1		 mov	 eax, ecx

; 166  : 		{	// construct by copying (do nothing)
; 167  : 		}

  00002	c2 04 00	 ret	 4
??0?$allocator@VioHashString@@@std@@QAE@ABV01@@Z ENDP	; std::allocator<ioHashString>::allocator<ioHashString>
_TEXT	ENDS
PUBLIC	?EncryptValueToPool@?$CEncrypt@M@@AAEXPBD@Z	; CEncrypt<float>::EncryptValueToPool
EXTRN	?EncryptByte@ccddaabb@@QAEXPBDPADH@Z:PROC	; ccddaabb::EncryptByte
; Function compile flags: /Ogsp
; File d:\lost saga for developer\youtube\tutorial\source\src\lsclient\encryptvalue.h
;	COMDAT ?EncryptValueToPool@?$CEncrypt@M@@AAEXPBD@Z
_TEXT	SEGMENT
_value$ = 8						; size = 4
?EncryptValueToPool@?$CEncrypt@M@@AAEXPBD@Z PROC	; CEncrypt<float>::EncryptValueToPool, COMDAT
; _this$ = ecx

; 67   : 	{

  00000	55		 push	 ebp
  00001	8b ec		 mov	 ebp, esp

; 68   : 		m_RC5.EncryptByte( value, m_MemPool, max(m_ValueSize, DEFAULT_ENCRYPT) );

  00003	0f b7 41 06	 movzx	 eax, WORD PTR [ecx+6]
  00007	83 f8 04	 cmp	 eax, 4
  0000a	77 03		 ja	 SHORT $LN4@EncryptVal
  0000c	6a 04		 push	 4
  0000e	58		 pop	 eax
$LN4@EncryptVal:
  0000f	50		 push	 eax
  00010	8d 41 1c	 lea	 eax, DWORD PTR [ecx+28]
  00013	50		 push	 eax
  00014	ff 75 08	 push	 DWORD PTR _value$[ebp]
  00017	83 c1 0c	 add	 ecx, 12			; 0000000cH
  0001a	e8 00 00 00 00	 call	 ?EncryptByte@ccddaabb@@QAEXPBDPADH@Z ; ccddaabb::EncryptByte

; 69   : 		
; 70   : 	}

  0001f	5d		 pop	 ebp
  00020	c2 04 00	 ret	 4
?EncryptValueToPool@?$CEncrypt@M@@AAEXPBD@Z ENDP	; CEncrypt<float>::EncryptValueToPool
_TEXT	ENDS
PUBLIC	?Init@?$CEncrypt@M@@AAEXXZ			; CEncrypt<float>::Init
EXTRN	?Setup@ccddaabb@@QAEXPBDHH@Z:PROC		; ccddaabb::Setup
EXTRN	__imp__rand:PROC
EXTRN	__imp__timeGetTime@0:PROC
EXTRN	__imp__GetCurrentProcessId@0:PROC
; Function compile flags: /Ogsp
;	COMDAT ?Init@?$CEncrypt@M@@AAEXXZ
_TEXT	SEGMENT
_pid$ = -8						; size = 4
_tick$ = -4						; size = 4
?Init@?$CEncrypt@M@@AAEXXZ PROC				; CEncrypt<float>::Init, COMDAT
; _this$ = ecx

; 73   : 	{

  00000	55		 push	 ebp
  00001	8b ec		 mov	 ebp, esp
  00003	51		 push	 ecx
  00004	51		 push	 ecx
  00005	53		 push	 ebx
  00006	56		 push	 esi
  00007	57		 push	 edi
  00008	8b f1		 mov	 esi, ecx

; 74   : 		DWORD pid = GetCurrentProcessId();

  0000a	ff 15 00 00 00
	00		 call	 DWORD PTR __imp__GetCurrentProcessId@0
  00010	89 45 f8	 mov	 DWORD PTR _pid$[ebp], eax

; 75   : 		DWORD tick = timeGetTime();

  00013	ff 15 00 00 00
	00		 call	 DWORD PTR __imp__timeGetTime@0

; 76   : 		m_ValueSize    = sizeof(type);
; 77   : 		m_MemPoolPos   = (unsigned short)( rand()+pid+tick )%(MAX_MEM_POOL-m_ValueSize);

  00019	8b 3d 00 00 00
	00		 mov	 edi, DWORD PTR __imp__rand
  0001f	89 45 fc	 mov	 DWORD PTR _tick$[ebp], eax
  00022	6a 04		 push	 4
  00024	58		 pop	 eax
  00025	66 89 46 06	 mov	 WORD PTR [esi+6], ax
  00029	ff d7		 call	 edi
  0002b	03 45 f8	 add	 eax, DWORD PTR _pid$[ebp]
  0002e	0f b7 4e 06	 movzx	 ecx, WORD PTR [esi+6]
  00032	03 45 fc	 add	 eax, DWORD PTR _tick$[ebp]
  00035	6a 0c		 push	 12			; 0000000cH
  00037	0f b7 c0	 movzx	 eax, ax
  0003a	5b		 pop	 ebx
  0003b	99		 cdq
  0003c	2b d9		 sub	 ebx, ecx
  0003e	f7 fb		 idiv	 ebx
  00040	66 89 56 04	 mov	 WORD PTR [esi+4], dx

; 78   : 		m_EncryptSeed  = (char)( rand()+pid+tick )%256;

  00044	ff d7		 call	 edi
  00046	02 45 f8	 add	 al, BYTE PTR _pid$[ebp]
  00049	02 45 fc	 add	 al, BYTE PTR _tick$[ebp]
  0004c	0f be c0	 movsx	 eax, al
  0004f	25 ff 00 00 80	 and	 eax, -2147483393	; 800000ffH
  00054	79 07		 jns	 SHORT $LN8@Init
  00056	48		 dec	 eax
  00057	0d 00 ff ff ff	 or	 eax, -256		; ffffff00H
  0005c	40		 inc	 eax
$LN8@Init:
  0005d	88 46 08	 mov	 BYTE PTR [esi+8], al

; 79   : 
; 80   : 		for (int i = 0; i < MAX_MEM_POOL ; i++)

  00060	33 db		 xor	 ebx, ebx
$LL3@Init:

; 81   : 			m_MemPool[i] = (char)( rand()+pid+tick )%256; // 

  00062	ff d7		 call	 edi
  00064	02 45 f8	 add	 al, BYTE PTR _pid$[ebp]
  00067	02 45 fc	 add	 al, BYTE PTR _tick$[ebp]
  0006a	0f be c0	 movsx	 eax, al
  0006d	25 ff 00 00 80	 and	 eax, -2147483393	; 800000ffH
  00072	79 07		 jns	 SHORT $LN9@Init
  00074	48		 dec	 eax
  00075	0d 00 ff ff ff	 or	 eax, -256		; ffffff00H
  0007a	40		 inc	 eax
$LN9@Init:
  0007b	88 44 1e 1c	 mov	 BYTE PTR [esi+ebx+28], al
  0007f	43		 inc	 ebx
  00080	83 fb 0c	 cmp	 ebx, 12			; 0000000cH
  00083	7c dd		 jl	 SHORT $LL3@Init

; 82   : 
; 83   : 		//UJ 130913, : szKey  
; 84   : 		//char szKey[ccddaabb::KEY_SIZE];//="";
; 85   : 		//for (int i = 0; i < ccddaabb::KEY_SIZE  ; i++)
; 86   : 		//	szKey[i] = (char)( rand()+pid+tick )%256; // 
; 87   : 		m_RC5.Setup( NULL, pid, tick );

  00085	ff 75 fc	 push	 DWORD PTR _tick$[ebp]
  00088	8d 4e 0c	 lea	 ecx, DWORD PTR [esi+12]
  0008b	ff 75 f8	 push	 DWORD PTR _pid$[ebp]
  0008e	6a 00		 push	 0
  00090	e8 00 00 00 00	 call	 ?Setup@ccddaabb@@QAEXPBDHH@Z ; ccddaabb::Setup
  00095	5f		 pop	 edi
  00096	5e		 pop	 esi
  00097	5b		 pop	 ebx

; 88   : 
; 89   : #ifdef _NOTUSE
; 90   : 		m_value        = 0;
; 91   : 		EncryptValueToPool((char*)&m_value);
; 92   : 		Debug();
; 93   : #endif
; 94   : 	}

  00098	c9		 leave
  00099	c3		 ret	 0
?Init@?$CEncrypt@M@@AAEXXZ ENDP				; CEncrypt<float>::Init
_TEXT	ENDS
PUBLIC	?DecryptValueToPool@?$CEncrypt@M@@QAEXPAM@Z	; CEncrypt<float>::DecryptValueToPool
EXTRN	?DecryptByte@ccddaabb@@QBEXPBDPADH@Z:PROC	; ccddaabb::DecryptByte
; Function compile flags: /Ogsp
;	COMDAT ?DecryptValueToPool@?$CEncrypt@M@@QAEXPAM@Z
_TEXT	SEGMENT
_value$ = 8						; size = 4
?DecryptValueToPool@?$CEncrypt@M@@QAEXPAM@Z PROC	; CEncrypt<float>::DecryptValueToPool, COMDAT
; _this$ = ecx

; 1648 : 	{

  00000	55		 push	 ebp
  00001	8b ec		 mov	 ebp, esp
  00003	56		 push	 esi

; 1649 : 		m_RC5.DecryptByte( m_MemPool, m_TempMem, 4 );

  00004	8d 71 28	 lea	 esi, DWORD PTR [ecx+40]
  00007	6a 04		 push	 4
  00009	8d 41 1c	 lea	 eax, DWORD PTR [ecx+28]
  0000c	56		 push	 esi
  0000d	50		 push	 eax
  0000e	83 c1 0c	 add	 ecx, 12			; 0000000cH
  00011	e8 00 00 00 00	 call	 ?DecryptByte@ccddaabb@@QBEXPBDPADH@Z ; ccddaabb::DecryptByte

; 1650 : 		*value = *((float*)m_TempMem);

  00016	d9 06		 fld	 DWORD PTR [esi]
  00018	8b 45 08	 mov	 eax, DWORD PTR _value$[ebp]
  0001b	d9 18		 fstp	 DWORD PTR [eax]
  0001d	5e		 pop	 esi

; 1651 : 	}

  0001e	5d		 pop	 ebp
  0001f	c2 04 00	 ret	 4
?DecryptValueToPool@?$CEncrypt@M@@QAEXPAM@Z ENDP	; CEncrypt<float>::DecryptValueToPool
_TEXT	ENDS
PUBLIC	?EncryptValueToPool@?$CEncrypt@K@@AAEXPBD@Z	; CEncrypt<unsigned long>::EncryptValueToPool
; Function compile flags: /Ogsp
;	COMDAT ?EncryptValueToPool@?$CEncrypt@K@@AAEXPBD@Z
_TEXT	SEGMENT
_value$ = 8						; size = 4
?EncryptValueToPool@?$CEncrypt@K@@AAEXPBD@Z PROC	; CEncrypt<unsigned long>::EncryptValueToPool, COMDAT
; _this$ = ecx

; 67   : 	{

  00000	55		 push	 ebp
  00001	8b ec		 mov	 ebp, esp

; 68   : 		m_RC5.EncryptByte( value, m_MemPool, max(m_ValueSize, DEFAULT_ENCRYPT) );

  00003	0f b7 41 06	 movzx	 eax, WORD PTR [ecx+6]
  00007	83 f8 04	 cmp	 eax, 4
  0000a	77 03		 ja	 SHORT $LN4@EncryptVal@2
  0000c	6a 04		 push	 4
  0000e	58		 pop	 eax
$LN4@EncryptVal@2:
  0000f	50		 push	 eax
  00010	8d 41 1c	 lea	 eax, DWORD PTR [ecx+28]
  00013	50		 push	 eax
  00014	ff 75 08	 push	 DWORD PTR _value$[ebp]
  00017	83 c1 0c	 add	 ecx, 12			; 0000000cH
  0001a	e8 00 00 00 00	 call	 ?EncryptByte@ccddaabb@@QAEXPBDPADH@Z ; ccddaabb::EncryptByte

; 69   : 		
; 70   : 	}

  0001f	5d		 pop	 ebp
  00020	c2 04 00	 ret	 4
?EncryptValueToPool@?$CEncrypt@K@@AAEXPBD@Z ENDP	; CEncrypt<unsigned long>::EncryptValueToPool
_TEXT	ENDS
PUBLIC	?DecryptValueToPool@?$CEncrypt@K@@QAEXPAK@Z	; CEncrypt<unsigned long>::DecryptValueToPool
; Function compile flags: /Ogsp
;	COMDAT ?DecryptValueToPool@?$CEncrypt@K@@QAEXPAK@Z
_TEXT	SEGMENT
_value$ = 8						; size = 4
?DecryptValueToPool@?$CEncrypt@K@@QAEXPAK@Z PROC	; CEncrypt<unsigned long>::DecryptValueToPool, COMDAT
; _this$ = ecx

; 1256 : 	{

  00000	55		 push	 ebp
  00001	8b ec		 mov	 ebp, esp
  00003	56		 push	 esi

; 1257 : 		m_RC5.DecryptByte( m_MemPool, m_TempMem, 4 );

  00004	8d 71 28	 lea	 esi, DWORD PTR [ecx+40]
  00007	6a 04		 push	 4
  00009	8d 41 1c	 lea	 eax, DWORD PTR [ecx+28]
  0000c	56		 push	 esi
  0000d	50		 push	 eax
  0000e	83 c1 0c	 add	 ecx, 12			; 0000000cH
  00011	e8 00 00 00 00	 call	 ?DecryptByte@ccddaabb@@QBEXPBDPADH@Z ; ccddaabb::DecryptByte

; 1258 : 		*value = *((DWORD*)m_TempMem);

  00016	8b 06		 mov	 eax, DWORD PTR [esi]
  00018	8b 4d 08	 mov	 ecx, DWORD PTR _value$[ebp]
  0001b	89 01		 mov	 DWORD PTR [ecx], eax
  0001d	5e		 pop	 esi

; 1259 : 	}

  0001e	5d		 pop	 ebp
  0001f	c2 04 00	 ret	 4
?DecryptValueToPool@?$CEncrypt@K@@QAEXPAK@Z ENDP	; CEncrypt<unsigned long>::DecryptValueToPool
_TEXT	ENDS
PUBLIC	?EncryptValueToPool@?$CEncrypt@_N@@AAEXPBD@Z	; CEncrypt<bool>::EncryptValueToPool
; Function compile flags: /Ogsp
;	COMDAT ?EncryptValueToPool@?$CEncrypt@_N@@AAEXPBD@Z
_TEXT	SEGMENT
_value$ = 8						; size = 4
?EncryptValueToPool@?$CEncrypt@_N@@AAEXPBD@Z PROC	; CEncrypt<bool>::EncryptValueToPool, COMDAT
; _this$ = ecx

; 67   : 	{

  00000	55		 push	 ebp
  00001	8b ec		 mov	 ebp, esp

; 68   : 		m_RC5.EncryptByte( value, m_MemPool, max(m_ValueSize, DEFAULT_ENCRYPT) );

  00003	0f b7 41 06	 movzx	 eax, WORD PTR [ecx+6]
  00007	83 f8 04	 cmp	 eax, 4
  0000a	77 03		 ja	 SHORT $LN4@EncryptVal@3
  0000c	6a 04		 push	 4
  0000e	58		 pop	 eax
$LN4@EncryptVal@3:
  0000f	50		 push	 eax
  00010	8d 41 1c	 lea	 eax, DWORD PTR [ecx+28]
  00013	50		 push	 eax
  00014	ff 75 08	 push	 DWORD PTR _value$[ebp]
  00017	83 c1 0c	 add	 ecx, 12			; 0000000cH
  0001a	e8 00 00 00 00	 call	 ?EncryptByte@ccddaabb@@QAEXPBDPADH@Z ; ccddaabb::EncryptByte

; 69   : 		
; 70   : 	}

  0001f	5d		 pop	 ebp
  00020	c2 04 00	 ret	 4
?EncryptValueToPool@?$CEncrypt@_N@@AAEXPBD@Z ENDP	; CEncrypt<bool>::EncryptValueToPool
_TEXT	ENDS
PUBLIC	?DecryptValueToPool@?$CEncrypt@_N@@QAEXPA_N@Z	; CEncrypt<bool>::DecryptValueToPool
; Function compile flags: /Ogsp
;	COMDAT ?DecryptValueToPool@?$CEncrypt@_N@@QAEXPA_N@Z
_TEXT	SEGMENT
_value$ = 8						; size = 4
?DecryptValueToPool@?$CEncrypt@_N@@QAEXPA_N@Z PROC	; CEncrypt<bool>::DecryptValueToPool, COMDAT
; _this$ = ecx

; 219  : 	{

  00000	55		 push	 ebp
  00001	8b ec		 mov	 ebp, esp
  00003	56		 push	 esi

; 220  : 		m_RC5.DecryptByte( m_MemPool, m_TempMem, 4 );

  00004	8d 71 28	 lea	 esi, DWORD PTR [ecx+40]
  00007	6a 04		 push	 4
  00009	8d 41 1c	 lea	 eax, DWORD PTR [ecx+28]
  0000c	56		 push	 esi
  0000d	50		 push	 eax
  0000e	83 c1 0c	 add	 ecx, 12			; 0000000cH
  00011	e8 00 00 00 00	 call	 ?DecryptByte@ccddaabb@@QBEXPBDPADH@Z ; ccddaabb::DecryptByte

; 221  : 		*value = *((bool*)m_TempMem);

  00016	8a 06		 mov	 al, BYTE PTR [esi]
  00018	8b 4d 08	 mov	 ecx, DWORD PTR _value$[ebp]
  0001b	88 01		 mov	 BYTE PTR [ecx], al
  0001d	5e		 pop	 esi

; 222  : 	}

  0001e	5d		 pop	 ebp
  0001f	c2 04 00	 ret	 4
?DecryptValueToPool@?$CEncrypt@_N@@QAEXPA_N@Z ENDP	; CEncrypt<bool>::DecryptValueToPool
_TEXT	ENDS
PUBLIC	?DecryptValueToPool@?$CEncrypt@W4TeamType@@@@QAEXPAW4TeamType@@@Z ; CEncrypt<enum TeamType>::DecryptValueToPool
; Function compile flags: /Ogsp
;	COMDAT ?DecryptValueToPool@?$CEncrypt@W4TeamType@@@@QAEXPAW4TeamType@@@Z
_TEXT	SEGMENT
_value$ = 8						; size = 4
?DecryptValueToPool@?$CEncrypt@W4TeamType@@@@QAEXPAW4TeamType@@@Z PROC ; CEncrypt<enum TeamType>::DecryptValueToPool, COMDAT
; _this$ = ecx

; 2959 : 	{

  00000	55		 push	 ebp
  00001	8b ec		 mov	 ebp, esp
  00003	56		 push	 esi

; 2960 : 		m_RC5.DecryptByte( m_MemPool, m_TempMem, sizeof(TeamType) );

  00004	8d 71 28	 lea	 esi, DWORD PTR [ecx+40]
  00007	6a 04		 push	 4
  00009	8d 41 1c	 lea	 eax, DWORD PTR [ecx+28]
  0000c	56		 push	 esi
  0000d	50		 push	 eax
  0000e	83 c1 0c	 add	 ecx, 12			; 0000000cH
  00011	e8 00 00 00 00	 call	 ?DecryptByte@ccddaabb@@QBEXPBDPADH@Z ; ccddaabb::DecryptByte

; 2961 : 		*value = *((TeamType*)m_TempMem);

  00016	8b 06		 mov	 eax, DWORD PTR [esi]
  00018	8b 4d 08	 mov	 ecx, DWORD PTR _value$[ebp]
  0001b	89 01		 mov	 DWORD PTR [ecx], eax
  0001d	5e		 pop	 esi

; 2962 : 	}

  0001e	5d		 pop	 ebp
  0001f	c2 04 00	 ret	 4
?DecryptValueToPool@?$CEncrypt@W4TeamType@@@@QAEXPAW4TeamType@@@Z ENDP ; CEncrypt<enum TeamType>::DecryptValueToPool
_TEXT	ENDS
PUBLIC	?_Xlen@?$vector@VioHashString@@V?$allocator@VioHashString@@@std@@@std@@IBEXXZ ; std::vector<ioHashString,std::allocator<ioHashString> >::_Xlen
; Function compile flags: /Ogsp
; File c:\program files (x86)\microsoft visual studio 10.0\vc\include\vector
;	COMDAT ?_Xlen@?$vector@VioHashString@@V?$allocator@VioHashString@@@std@@@std@@IBEXXZ
_TEXT	SEGMENT
?_Xlen@?$vector@VioHashString@@V?$allocator@VioHashString@@@std@@@std@@IBEXXZ PROC ; std::vector<ioHashString,std::allocator<ioHashString> >::_Xlen, COMDAT
; _this$ = ecx

; 1427 : 		_Xlength_error("vector<T> too long");

  00000	68 00 00 00 00	 push	 OFFSET ??_C@_0BD@OLBABOEK@vector?$DMT?$DO?5too?5long?$AA@
  00005	ff 15 00 00 00
	00		 call	 DWORD PTR __imp_?_Xlength_error@std@@YAXPBD@Z
$LN4@Xlen@3:
$LN3@Xlen@3:
  0000b	cc		 int	 3
?_Xlen@?$vector@VioHashString@@V?$allocator@VioHashString@@@std@@@std@@IBEXXZ ENDP ; std::vector<ioHashString,std::allocator<ioHashString> >::_Xlen
_TEXT	ENDS
PUBLIC	?deallocate@?$allocator@VioHashString@@@std@@QAEXPAVioHashString@@I@Z ; std::allocator<ioHashString>::deallocate
; Function compile flags: /Ogsp
; File c:\program files (x86)\microsoft visual studio 10.0\vc\include\xmemory
;	COMDAT ?deallocate@?$allocator@VioHashString@@@std@@QAEXPAVioHashString@@I@Z
_TEXT	SEGMENT
__Ptr$ = 8						; size = 4
___formal$ = 12						; size = 4
?deallocate@?$allocator@VioHashString@@@std@@QAEXPAVioHashString@@I@Z PROC ; std::allocator<ioHashString>::deallocate, COMDAT
; _this$ = ecx

; 181  : 		{	// deallocate object at _Ptr, ignore size

  00000	55		 push	 ebp
  00001	8b ec		 mov	 ebp, esp

; 182  : 		::operator delete(_Ptr);

  00003	ff 75 08	 push	 DWORD PTR __Ptr$[ebp]
  00006	e8 00 00 00 00	 call	 ??3@YAXPAX@Z		; operator delete
  0000b	59		 pop	 ecx

; 183  : 		}

  0000c	5d		 pop	 ebp
  0000d	c2 08 00	 ret	 8
?deallocate@?$allocator@VioHashString@@@std@@QAEXPAVioHashString@@I@Z ENDP ; std::allocator<ioHashString>::deallocate
_TEXT	ENDS
PUBLIC	??0?$_Vector_const_iterator@V?$_Vector_val@VioHashString@@V?$allocator@VioHashString@@@std@@@std@@@std@@QAE@PAVioHashString@@PBU_Container_base0@1@@Z ; std::_Vector_const_iterator<std::_Vector_val<ioHashString,std::allocator<ioHashString> > >::_Vector_const_iterator<std::_Vector_val<ioHashString,std::allocator<ioHashString> > >
; Function compile flags: /Ogsp
; File c:\program files (x86)\microsoft visual studio 10.0\vc\include\vector
;	COMDAT ??0?$_Vector_const_iterator@V?$_Vector_val@VioHashString@@V?$allocator@VioHashString@@@std@@@std@@@std@@QAE@PAVioHashString@@PBU_Container_base0@1@@Z
_TEXT	SEGMENT
__Parg$ = 8						; size = 4
__Pvector$ = 12						; size = 4
??0?$_Vector_const_iterator@V?$_Vector_val@VioHashString@@V?$allocator@VioHashString@@@std@@@std@@@std@@QAE@PAVioHashString@@PBU_Container_base0@1@@Z PROC ; std::_Vector_const_iterator<std::_Vector_val<ioHashString,std::allocator<ioHashString> > >::_Vector_const_iterator<std::_Vector_val<ioHashString,std::allocator<ioHashString> > >, COMDAT
; _this$ = ecx

; 45   : 		{	// construct with pointer _Parg

  00000	55		 push	 ebp
  00001	8b ec		 mov	 ebp, esp
  00003	8b c1		 mov	 eax, ecx
  00005	8b 4d 08	 mov	 ecx, DWORD PTR __Parg$[ebp]
  00008	89 08		 mov	 DWORD PTR [eax], ecx

; 46   : 		this->_Adopt(_Pvector);
; 47   : 		}

  0000a	5d		 pop	 ebp
  0000b	c2 08 00	 ret	 8
??0?$_Vector_const_iterator@V?$_Vector_val@VioHashString@@V?$allocator@VioHashString@@@std@@@std@@@std@@QAE@PAVioHashString@@PBU_Container_base0@1@@Z ENDP ; std::_Vector_const_iterator<std::_Vector_val<ioHashString,std::allocator<ioHashString> > >::_Vector_const_iterator<std::_Vector_val<ioHashString,std::allocator<ioHashString> > >
_TEXT	ENDS
PUBLIC	??0?$_Vector_iterator@V?$_Vector_val@VioHashString@@V?$allocator@VioHashString@@@std@@@std@@@std@@QAE@PAVioHashString@@PBU_Container_base0@1@@Z ; std::_Vector_iterator<std::_Vector_val<ioHashString,std::allocator<ioHashString> > >::_Vector_iterator<std::_Vector_val<ioHashString,std::allocator<ioHashString> > >
; Function compile flags: /Ogsp
;	COMDAT ??0?$_Vector_iterator@V?$_Vector_val@VioHashString@@V?$allocator@VioHashString@@@std@@@std@@@std@@QAE@PAVioHashString@@PBU_Container_base0@1@@Z
_TEXT	SEGMENT
__Parg$ = 8						; size = 4
__Pvector$ = 12						; size = 4
??0?$_Vector_iterator@V?$_Vector_val@VioHashString@@V?$allocator@VioHashString@@@std@@@std@@@std@@QAE@PAVioHashString@@PBU_Container_base0@1@@Z PROC ; std::_Vector_iterator<std::_Vector_val<ioHashString,std::allocator<ioHashString> > >::_Vector_iterator<std::_Vector_val<ioHashString,std::allocator<ioHashString> > >, COMDAT
; _this$ = ecx

; 304  : 		{	// construct with pointer _Parg

  00000	55		 push	 ebp
  00001	8b ec		 mov	 ebp, esp
  00003	8b c1		 mov	 eax, ecx
  00005	8b 4d 08	 mov	 ecx, DWORD PTR __Parg$[ebp]
  00008	89 08		 mov	 DWORD PTR [eax], ecx

; 305  : 		}

  0000a	5d		 pop	 ebp
  0000b	c2 08 00	 ret	 8
??0?$_Vector_iterator@V?$_Vector_val@VioHashString@@V?$allocator@VioHashString@@@std@@@std@@@std@@QAE@PAVioHashString@@PBU_Container_base0@1@@Z ENDP ; std::_Vector_iterator<std::_Vector_val<ioHashString,std::allocator<ioHashString> > >::_Vector_iterator<std::_Vector_val<ioHashString,std::allocator<ioHashString> > >
_TEXT	ENDS
PUBLIC	?max_size@?$allocator@VioHashString@@@std@@QBEIXZ ; std::allocator<ioHashString>::max_size
; Function compile flags: /Ogsp
; File c:\program files (x86)\microsoft visual studio 10.0\vc\include\xmemory
;	COMDAT ?max_size@?$allocator@VioHashString@@@std@@QBEIXZ
_TEXT	SEGMENT
?max_size@?$allocator@VioHashString@@@std@@QBEIXZ PROC	; std::allocator<ioHashString>::max_size, COMDAT
; _this$ = ecx

; 218  : 		_SIZT _Count = (_SIZT)(-1) / sizeof (_Ty);
; 219  : 		return (0 < _Count ? _Count : 1);

  00000	b8 ff ff ff 0f	 mov	 eax, 268435455		; 0fffffffH

; 220  : 		}

  00005	c3		 ret	 0
?max_size@?$allocator@VioHashString@@@std@@QBEIXZ ENDP	; std::allocator<ioHashString>::max_size
_TEXT	ENDS
PUBLIC	?_Compat@?$_Vector_const_iterator@V?$_Vector_val@VioHashString@@V?$allocator@VioHashString@@@std@@@std@@@std@@QBEXABV12@@Z ; std::_Vector_const_iterator<std::_Vector_val<ioHashString,std::allocator<ioHashString> > >::_Compat
; Function compile flags: /Ogsp
; File c:\program files (x86)\microsoft visual studio 10.0\vc\include\vector
;	COMDAT ?_Compat@?$_Vector_const_iterator@V?$_Vector_val@VioHashString@@V?$allocator@VioHashString@@@std@@@std@@@std@@QBEXABV12@@Z
_TEXT	SEGMENT
___formal$ = 8						; size = 4
?_Compat@?$_Vector_const_iterator@V?$_Vector_val@VioHashString@@V?$allocator@VioHashString@@@std@@@std@@@std@@QBEXABV12@@Z PROC ; std::_Vector_const_iterator<std::_Vector_val<ioHashString,std::allocator<ioHashString> > >::_Compat, COMDAT
; _this$ = ecx

; 253  : 		}

  00000	c2 04 00	 ret	 4
?_Compat@?$_Vector_const_iterator@V?$_Vector_val@VioHashString@@V?$allocator@VioHashString@@@std@@@std@@@std@@QBEXABV12@@Z ENDP ; std::_Vector_const_iterator<std::_Vector_val<ioHashString,std::allocator<ioHashString> > >::_Compat
_TEXT	ENDS
PUBLIC	??$_Allocate@VioHashString@@@std@@YAPAVioHashString@@IPAV1@@Z ; std::_Allocate<ioHashString>
; Function compile flags: /Ogsp
; File c:\program files (x86)\microsoft visual studio 10.0\vc\include\xmemory
;	COMDAT ??$_Allocate@VioHashString@@@std@@YAPAVioHashString@@IPAV1@@Z
_TEXT	SEGMENT
$T535381 = -12						; size = 12
$T535385 = 8						; size = 4
__Count$ = 8						; size = 4
___formal$ = 12						; size = 4
??$_Allocate@VioHashString@@@std@@YAPAVioHashString@@IPAV1@@Z PROC ; std::_Allocate<ioHashString>, COMDAT

; 30   : 	{	// allocate storage for _Count elements of type _Ty

  00000	55		 push	 ebp
  00001	8b ec		 mov	 ebp, esp

; 31   : 	void *_Ptr = 0;
; 32   : 
; 33   : 	if (_Count <= 0)

  00003	8b 4d 08	 mov	 ecx, DWORD PTR __Count$[ebp]
  00006	83 ec 0c	 sub	 esp, 12			; 0000000cH
  00009	33 c0		 xor	 eax, eax
  0000b	85 c9		 test	 ecx, ecx

; 34   : 		_Count = 0;
; 35   : 	else if (((_SIZT)(-1) / sizeof (_Ty) < _Count)

  0000d	74 3c		 je	 SHORT $LN5@Allocate@3

; 36   : 		|| (_Ptr = ::operator new(_Count * sizeof (_Ty))) == 0)

  0000f	81 f9 ff ff ff
	0f		 cmp	 ecx, 268435455		; 0fffffffH
  00015	77 0e		 ja	 SHORT $LN1@Allocate@3
  00017	c1 e1 04	 shl	 ecx, 4
  0001a	51		 push	 ecx
  0001b	e8 00 00 00 00	 call	 ??2@YAPAXI@Z		; operator new
  00020	59		 pop	 ecx
  00021	85 c0		 test	 eax, eax

; 38   : 
; 39   : 	return ((_Ty _FARQ *)_Ptr);

  00023	75 26		 jne	 SHORT $LN5@Allocate@3
$LN1@Allocate@3:

; 37   : 		_THROW_NCEE(bad_alloc, 0);

  00025	83 65 08 00	 and	 DWORD PTR $T535385[ebp], 0
  00029	8d 45 08	 lea	 eax, DWORD PTR $T535385[ebp]
  0002c	50		 push	 eax
  0002d	8d 4d f4	 lea	 ecx, DWORD PTR $T535381[ebp]
  00030	ff 15 00 00 00
	00		 call	 DWORD PTR __imp_??0exception@std@@QAE@ABQBD@Z
  00036	68 00 00 00 00	 push	 OFFSET __TI2?AVbad_alloc@std@@
  0003b	8d 45 f4	 lea	 eax, DWORD PTR $T535381[ebp]
  0003e	50		 push	 eax
  0003f	c7 45 f4 00 00
	00 00		 mov	 DWORD PTR $T535381[ebp], OFFSET ??_7bad_alloc@std@@6B@
  00046	e8 00 00 00 00	 call	 __CxxThrowException@8
$LN10@Allocate@3:
$LN5@Allocate@3:

; 40   : 	}

  0004b	c9		 leave
  0004c	c3		 ret	 0
$LN9@Allocate@3:
??$_Allocate@VioHashString@@@std@@YAPAVioHashString@@IPAV1@@Z ENDP ; std::_Allocate<ioHashString>
_TEXT	ENDS
EXTRN	__imp_??0exception@std@@QAE@ABV01@@Z:PROC
; Function compile flags: /Ogsp
;	COMDAT ??0bad_alloc@std@@QAE@ABV01@@Z
_TEXT	SEGMENT
___that$ = 8						; size = 4
??0bad_alloc@std@@QAE@ABV01@@Z PROC			; std::bad_alloc::bad_alloc, COMDAT
; _this$ = ecx
  00000	55		 push	 ebp
  00001	8b ec		 mov	 ebp, esp
  00003	56		 push	 esi
  00004	ff 75 08	 push	 DWORD PTR ___that$[ebp]
  00007	8b f1		 mov	 esi, ecx
  00009	ff 15 00 00 00
	00		 call	 DWORD PTR __imp_??0exception@std@@QAE@ABV01@@Z
  0000f	c7 06 00 00 00
	00		 mov	 DWORD PTR [esi], OFFSET ??_7bad_alloc@std@@6B@
  00015	8b c6		 mov	 eax, esi
  00017	5e		 pop	 esi
  00018	5d		 pop	 ebp
  00019	c2 04 00	 ret	 4
??0bad_alloc@std@@QAE@ABV01@@Z ENDP			; std::bad_alloc::bad_alloc
_TEXT	ENDS
PUBLIC	??$forward@ABVioHashString@@@std@@YAABVioHashString@@ABV1@@Z ; std::forward<ioHashString const &>
; Function compile flags: /Ogsp
; File c:\program files (x86)\microsoft visual studio 10.0\vc\include\utility
;	COMDAT ??$forward@ABVioHashString@@@std@@YAABVioHashString@@ABV1@@Z
_TEXT	SEGMENT
__Arg$ = 8						; size = 4
??$forward@ABVioHashString@@@std@@YAABVioHashString@@ABV1@@Z PROC ; std::forward<ioHashString const &>, COMDAT

; 78   : 	{	// forward _Arg, given explicitly specified type parameter

  00000	55		 push	 ebp
  00001	8b ec		 mov	 ebp, esp

; 79   : 	return ((_Ty&&)_Arg);

  00003	8b 45 08	 mov	 eax, DWORD PTR __Arg$[ebp]

; 80   : 	}

  00006	5d		 pop	 ebp
  00007	c3		 ret	 0
??$forward@ABVioHashString@@@std@@YAABVioHashString@@ABV1@@Z ENDP ; std::forward<ioHashString const &>
_TEXT	ENDS
PUBLIC	??$forward@AAVioHashString@@@std@@YAAAVioHashString@@AAV1@@Z ; std::forward<ioHashString &>
; Function compile flags: /Ogsp
;	COMDAT ??$forward@AAVioHashString@@@std@@YAAAVioHashString@@AAV1@@Z
_TEXT	SEGMENT
__Arg$ = 8						; size = 4
??$forward@AAVioHashString@@@std@@YAAAVioHashString@@AAV1@@Z PROC ; std::forward<ioHashString &>, COMDAT

; 78   : 	{	// forward _Arg, given explicitly specified type parameter

  00000	55		 push	 ebp
  00001	8b ec		 mov	 ebp, esp

; 79   : 	return ((_Ty&&)_Arg);

  00003	8b 45 08	 mov	 eax, DWORD PTR __Arg$[ebp]

; 80   : 	}

  00006	5d		 pop	 ebp
  00007	c3		 ret	 0
??$forward@AAVioHashString@@@std@@YAAAVioHashString@@AAV1@@Z ENDP ; std::forward<ioHashString &>
_TEXT	ENDS
PUBLIC	??$_Ptr_cat@VioHashString@@V1@@std@@YA?AU_Nonscalar_ptr_iterator_tag@0@PAVioHashString@@0@Z ; std::_Ptr_cat<ioHashString,ioHashString>
; Function compile flags: /Ogsp
; File c:\program files (x86)\microsoft visual studio 10.0\vc\include\xutility
;	COMDAT ??$_Ptr_cat@VioHashString@@V1@@std@@YA?AU_Nonscalar_ptr_iterator_tag@0@PAVioHashString@@0@Z
_TEXT	SEGMENT
__Cat$ = -1						; size = 1
___formal$ = 8						; size = 4
___formal$ = 12						; size = 4
??$_Ptr_cat@VioHashString@@V1@@std@@YA?AU_Nonscalar_ptr_iterator_tag@0@PAVioHashString@@0@Z PROC ; std::_Ptr_cat<ioHashString,ioHashString>, COMDAT

; 516  : 	{	// return pointer category from pointers

  00000	55		 push	 ebp
  00001	8b ec		 mov	 ebp, esp
  00003	51		 push	 ecx

; 517  : 	typename _Ptr_cat_helper<_Elem1, _Elem2>::_Type _Cat;
; 518  : 	return (_Cat);

  00004	8a 45 ff	 mov	 al, BYTE PTR __Cat$[ebp]

; 519  : 	}

  00007	c9		 leave
  00008	c3		 ret	 0
??$_Ptr_cat@VioHashString@@V1@@std@@YA?AU_Nonscalar_ptr_iterator_tag@0@PAVioHashString@@0@Z ENDP ; std::_Ptr_cat<ioHashString,ioHashString>
_TEXT	ENDS
PUBLIC	??$_Ptr_cat@V?$_Vector_const_iterator@V?$_Vector_val@VioHashString@@V?$allocator@VioHashString@@@std@@@std@@@std@@PAVioHashString@@@std@@YA?AU_Nonscalar_ptr_iterator_tag@0@AAV?$_Vector_const_iterator@V?$_Vector_val@VioHashString@@V?$allocator@VioHashString@@@std@@@std@@@0@AAPAVioHashString@@@Z ; std::_Ptr_cat<std::_Vector_const_iterator<std::_Vector_val<ioHashString,std::allocator<ioHashString> > >,ioHashString *>
; Function compile flags: /Ogsp
;	COMDAT ??$_Ptr_cat@V?$_Vector_const_iterator@V?$_Vector_val@VioHashString@@V?$allocator@VioHashString@@@std@@@std@@@std@@PAVioHashString@@@std@@YA?AU_Nonscalar_ptr_iterator_tag@0@AAV?$_Vector_const_iterator@V?$_Vector_val@VioHashString@@V?$allocator@VioHashString@@@std@@@std@@@0@AAPAVioHashString@@@Z
_TEXT	SEGMENT
__Cat$ = -1						; size = 1
___formal$ = 8						; size = 4
___formal$ = 12						; size = 4
??$_Ptr_cat@V?$_Vector_const_iterator@V?$_Vector_val@VioHashString@@V?$allocator@VioHashString@@@std@@@std@@@std@@PAVioHashString@@@std@@YA?AU_Nonscalar_ptr_iterator_tag@0@AAV?$_Vector_const_iterator@V?$_Vector_val@VioHashString@@V?$allocator@VioHashString@@@std@@@std@@@0@AAPAVioHashString@@@Z PROC ; std::_Ptr_cat<std::_Vector_const_iterator<std::_Vector_val<ioHashString,std::allocator<ioHashString> > >,ioHashString *>, COMDAT

; 485  : 	{	// return pointer category from arbitrary arguments

  00000	55		 push	 ebp
  00001	8b ec		 mov	 ebp, esp
  00003	51		 push	 ecx

; 486  : 	_Nonscalar_ptr_iterator_tag _Cat;
; 487  : 	return (_Cat);

  00004	8a 45 ff	 mov	 al, BYTE PTR __Cat$[ebp]

; 488  : 	}

  00007	c9		 leave
  00008	c3		 ret	 0
??$_Ptr_cat@V?$_Vector_const_iterator@V?$_Vector_val@VioHashString@@V?$allocator@VioHashString@@@std@@@std@@@std@@PAVioHashString@@@std@@YA?AU_Nonscalar_ptr_iterator_tag@0@AAV?$_Vector_const_iterator@V?$_Vector_val@VioHashString@@V?$allocator@VioHashString@@@std@@@std@@@0@AAPAVioHashString@@@Z ENDP ; std::_Ptr_cat<std::_Vector_const_iterator<std::_Vector_val<ioHashString,std::allocator<ioHashString> > >,ioHashString *>
_TEXT	ENDS
PUBLIC	??$move@AAVioHashString@@@std@@YA$$QAVioHashString@@AAV1@@Z ; std::move<ioHashString &>
; Function compile flags: /Ogsp
; File c:\program files (x86)\microsoft visual studio 10.0\vc\include\utility
;	COMDAT ??$move@AAVioHashString@@@std@@YA$$QAVioHashString@@AAV1@@Z
_TEXT	SEGMENT
__Arg$ = 8						; size = 4
??$move@AAVioHashString@@@std@@YA$$QAVioHashString@@AAV1@@Z PROC ; std::move<ioHashString &>, COMDAT

; 86   : 	{	// forward _Arg as movable

  00000	55		 push	 ebp
  00001	8b ec		 mov	 ebp, esp

; 87   : 	return ((typename tr1::_Remove_reference<_Ty>::_Type&&)_Arg);

  00003	8b 45 08	 mov	 eax, DWORD PTR __Arg$[ebp]

; 88   : 	}

  00006	5d		 pop	 ebp
  00007	c3		 ret	 0
??$move@AAVioHashString@@@std@@YA$$QAVioHashString@@AAV1@@Z ENDP ; std::move<ioHashString &>
_TEXT	ENDS
PUBLIC	??D?$_Vector_const_iterator@V?$_Vector_val@VioHashString@@V?$allocator@VioHashString@@@std@@@std@@@std@@QBEABVioHashString@@XZ ; std::_Vector_const_iterator<std::_Vector_val<ioHashString,std::allocator<ioHashString> > >::operator*
; Function compile flags: /Ogsp
; File c:\program files (x86)\microsoft visual studio 10.0\vc\include\vector
;	COMDAT ??D?$_Vector_const_iterator@V?$_Vector_val@VioHashString@@V?$allocator@VioHashString@@@std@@@std@@@std@@QBEABVioHashString@@XZ
_TEXT	SEGMENT
??D?$_Vector_const_iterator@V?$_Vector_val@VioHashString@@V?$allocator@VioHashString@@@std@@@std@@@std@@QBEABVioHashString@@XZ PROC ; std::_Vector_const_iterator<std::_Vector_val<ioHashString,std::allocator<ioHashString> > >::operator*, COMDAT
; _this$ = ecx

; 64   :  #if _ITERATOR_DEBUG_LEVEL == 2
; 65   : 		if (this->_Getcont() == 0
; 66   : 			|| this->_Ptr == 0
; 67   : 			|| this->_Ptr < ((_Myvec *)this->_Getcont())->_Myfirst
; 68   : 			|| ((_Myvec *)this->_Getcont())->_Mylast <= this->_Ptr)
; 69   : 			{	// report error
; 70   : 			_DEBUG_ERROR("vector iterator not dereferencable");
; 71   : 			_SCL_SECURE_OUT_OF_RANGE;
; 72   : 			}
; 73   : 
; 74   :  #elif _ITERATOR_DEBUG_LEVEL == 1
; 75   : 		_SCL_SECURE_VALIDATE(this->_Getcont() != 0);
; 76   : 		_SCL_SECURE_VALIDATE_RANGE(
; 77   : 			this->_Ptr != 0
; 78   : 			&& ((_Myvec *)this->_Getcont())->_Myfirst <= this->_Ptr
; 79   : 			&& this->_Ptr < ((_Myvec *)this->_Getcont())->_Mylast);
; 80   :  #endif /* _ITERATOR_DEBUG_LEVEL */
; 81   : 
; 82   : 		__analysis_assume(this->_Ptr != 0);
; 83   : 
; 84   : 		return (*this->_Ptr);

  00000	8b 01		 mov	 eax, DWORD PTR [ecx]

; 85   : 		}

  00002	c3		 ret	 0
??D?$_Vector_const_iterator@V?$_Vector_val@VioHashString@@V?$allocator@VioHashString@@@std@@@std@@@std@@QBEABVioHashString@@XZ ENDP ; std::_Vector_const_iterator<std::_Vector_val<ioHashString,std::allocator<ioHashString> > >::operator*
_TEXT	ENDS
PUBLIC	??E?$_Vector_const_iterator@V?$_Vector_val@VioHashString@@V?$allocator@VioHashString@@@std@@@std@@@std@@QAEAAV01@XZ ; std::_Vector_const_iterator<std::_Vector_val<ioHashString,std::allocator<ioHashString> > >::operator++
; Function compile flags: /Ogsp
;	COMDAT ??E?$_Vector_const_iterator@V?$_Vector_val@VioHashString@@V?$allocator@VioHashString@@@std@@@std@@@std@@QAEAAV01@XZ
_TEXT	SEGMENT
??E?$_Vector_const_iterator@V?$_Vector_val@VioHashString@@V?$allocator@VioHashString@@@std@@@std@@@std@@QAEAAV01@XZ PROC ; std::_Vector_const_iterator<std::_Vector_val<ioHashString,std::allocator<ioHashString> > >::operator++, COMDAT
; _this$ = ecx

; 93   : 		{	// preincrement

  00000	8b c1		 mov	 eax, ecx

; 94   :  #if _ITERATOR_DEBUG_LEVEL == 2
; 95   : 		if (this->_Getcont() == 0
; 96   : 			|| this->_Ptr == 0
; 97   : 			|| ((_Myvec *)this->_Getcont())->_Mylast <= this->_Ptr)
; 98   : 			{	// report error
; 99   : 			_DEBUG_ERROR("vector iterator not incrementable");
; 100  : 			_SCL_SECURE_OUT_OF_RANGE;
; 101  : 			}
; 102  : 
; 103  :  #elif _ITERATOR_DEBUG_LEVEL == 1
; 104  : 		_SCL_SECURE_VALIDATE(this->_Getcont() != 0);
; 105  : 		_SCL_SECURE_VALIDATE_RANGE(
; 106  : 			this->_Ptr != 0
; 107  : 			&& this->_Ptr < ((_Myvec *)this->_Getcont())->_Mylast);
; 108  :  #endif /* _ITERATOR_DEBUG_LEVEL */
; 109  : 
; 110  : 		++this->_Ptr;

  00002	83 00 10	 add	 DWORD PTR [eax], 16	; 00000010H

; 111  : 		return (*this);
; 112  : 		}

  00005	c3		 ret	 0
??E?$_Vector_const_iterator@V?$_Vector_val@VioHashString@@V?$allocator@VioHashString@@@std@@@std@@@std@@QAEAAV01@XZ ENDP ; std::_Vector_const_iterator<std::_Vector_val<ioHashString,std::allocator<ioHashString> > >::operator++
_TEXT	ENDS
PUBLIC	??_GioHashString@@QAEPAXI@Z			; ioHashString::`scalar deleting destructor'
; Function compile flags: /Ogsp
;	COMDAT ??_GioHashString@@QAEPAXI@Z
_TEXT	SEGMENT
___flags$ = 8						; size = 4
??_GioHashString@@QAEPAXI@Z PROC			; ioHashString::`scalar deleting destructor', COMDAT
; _this$ = ecx
  00000	55		 push	 ebp
  00001	8b ec		 mov	 ebp, esp
  00003	56		 push	 esi
  00004	8b f1		 mov	 esi, ecx
  00006	ff 15 00 00 00
	00		 call	 DWORD PTR __imp_??1ioHashString@@QAE@XZ
  0000c	f6 45 08 01	 test	 BYTE PTR ___flags$[ebp], 1
  00010	74 07		 je	 SHORT $LN1@scalar@4
  00012	56		 push	 esi
  00013	e8 00 00 00 00	 call	 ??3@YAXPAX@Z		; operator delete
  00018	59		 pop	 ecx
$LN1@scalar@4:
  00019	8b c6		 mov	 eax, esi
  0001b	5e		 pop	 esi
  0001c	5d		 pop	 ebp
  0001d	c2 04 00	 ret	 4
??_GioHashString@@QAEPAXI@Z ENDP			; ioHashString::`scalar deleting destructor'
_TEXT	ENDS
PUBLIC	??$_Construct@VioHashString@@ABV1@@std@@YAXPAVioHashString@@ABV1@@Z ; std::_Construct<ioHashString,ioHashString const &>
;	COMDAT xdata$x
; File c:\program files (x86)\microsoft visual studio 10.0\vc\include\utility
xdata$x	SEGMENT
__unwindtable$??$_Construct@VioHashString@@ABV1@@std@@YAXPAVioHashString@@ABV1@@Z DD 0ffffffffH
	DD	FLAT:__unwindfunclet$??$_Construct@VioHashString@@ABV1@@std@@YAXPAVioHashString@@ABV1@@Z$0
__ehfuncinfo$??$_Construct@VioHashString@@ABV1@@std@@YAXPAVioHashString@@ABV1@@Z DD 019930522H
	DD	01H
	DD	FLAT:__unwindtable$??$_Construct@VioHashString@@ABV1@@std@@YAXPAVioHashString@@ABV1@@Z
	DD	2 DUP(00H)
	DD	2 DUP(00H)
	DD	00H
	DD	01H
; Function compile flags: /Ogsp
; File c:\program files (x86)\microsoft visual studio 10.0\vc\include\xmemory
xdata$x	ENDS
;	COMDAT ??$_Construct@VioHashString@@ABV1@@std@@YAXPAVioHashString@@ABV1@@Z
_TEXT	SEGMENT
$T535412 = -16						; size = 4
__$EHRec$ = -12						; size = 12
__Vptr$ = 8						; size = 4
__Ptr$ = 8						; size = 4
__Val$ = 12						; size = 4
??$_Construct@VioHashString@@ABV1@@std@@YAXPAVioHashString@@ABV1@@Z PROC ; std::_Construct<ioHashString,ioHashString const &>, COMDAT

; 46   : 	{	// construct object at _Ptr with value _Val

  00000	6a 04		 push	 4
  00002	b8 00 00 00 00	 mov	 eax, __ehhandler$??$_Construct@VioHashString@@ABV1@@std@@YAXPAVioHashString@@ABV1@@Z
  00007	e8 00 00 00 00	 call	 __EH_prolog3

; 47   : 	void _FARQ *_Vptr = _Ptr;

  0000c	8b 4d 08	 mov	 ecx, DWORD PTR __Ptr$[ebp]
  0000f	89 4d 08	 mov	 DWORD PTR __Vptr$[ebp], ecx

; 48   : 	::new (_Vptr) _Ty1(_STD forward<_Ty2>(_Val));

  00012	89 4d f0	 mov	 DWORD PTR $T535412[ebp], ecx
  00015	83 65 fc 00	 and	 DWORD PTR __$EHRec$[ebp+8], 0
  00019	85 c9		 test	 ecx, ecx
  0001b	74 09		 je	 SHORT $LN3@Construct@3
  0001d	ff 75 0c	 push	 DWORD PTR __Val$[ebp]
  00020	ff 15 00 00 00
	00		 call	 DWORD PTR __imp_??0ioHashString@@QAE@ABV0@@Z
$LN3@Construct@3:

; 49   : 	}

  00026	e8 00 00 00 00	 call	 __EH_epilog3
  0002b	c3		 ret	 0
_TEXT	ENDS
;	COMDAT text$x
text$x	SEGMENT
__unwindfunclet$??$_Construct@VioHashString@@ABV1@@std@@YAXPAVioHashString@@ABV1@@Z$0:
  00000	ff 75 08	 push	 DWORD PTR __Vptr$[ebp]
  00003	ff 75 f0	 push	 DWORD PTR $T535412[ebp]
  00006	e8 00 00 00 00	 call	 ??3@YAXPAX0@Z		; operator delete
  0000b	59		 pop	 ecx
  0000c	59		 pop	 ecx
  0000d	c3		 ret	 0
__ehhandler$??$_Construct@VioHashString@@ABV1@@std@@YAXPAVioHashString@@ABV1@@Z:
  0000e	8b 54 24 08	 mov	 edx, DWORD PTR [esp+8]
  00012	8d 42 0c	 lea	 eax, DWORD PTR [edx+12]
  00015	8b 4a ec	 mov	 ecx, DWORD PTR [edx-20]
  00018	33 c8		 xor	 ecx, eax
  0001a	e8 00 00 00 00	 call	 @__security_check_cookie@4
  0001f	b8 00 00 00 00	 mov	 eax, OFFSET __ehfuncinfo$??$_Construct@VioHashString@@ABV1@@std@@YAXPAVioHashString@@ABV1@@Z
  00024	e9 00 00 00 00	 jmp	 ___CxxFrameHandler3
text$x	ENDS
??$_Construct@VioHashString@@ABV1@@std@@YAXPAVioHashString@@ABV1@@Z ENDP ; std::_Construct<ioHashString,ioHashString const &>
PUBLIC	??D?$CEncrypt@M@@QAEMABM@Z			; CEncrypt<float>::operator*
; Function compile flags: /Ogsp
; File d:\lost saga for developer\youtube\tutorial\source\src\lsclient\encryptvalue.h
;	COMDAT ??D?$CEncrypt@M@@QAEMABM@Z
_TEXT	SEGMENT
_value$ = -4						; size = 4
tv130 = 8						; size = 4
_inValue$ = 8						; size = 4
??D?$CEncrypt@M@@QAEMABM@Z PROC				; CEncrypt<float>::operator*, COMDAT
; _this$ = ecx

; 1685 : 	{	

  00000	55		 push	 ebp
  00001	8b ec		 mov	 ebp, esp
  00003	51		 push	 ecx

; 1686 : 		type value;
; 1687 : 		DecryptValueToPool(&value);

  00004	8d 45 fc	 lea	 eax, DWORD PTR _value$[ebp]
  00007	50		 push	 eax
  00008	e8 00 00 00 00	 call	 ?DecryptValueToPool@?$CEncrypt@M@@QAEXPAM@Z ; CEncrypt<float>::DecryptValueToPool

; 1688 : #ifdef _NOTUSE
; 1689 : 		Debug();
; 1690 : #endif
; 1691 : 		return value * inValue;

  0000d	8b 45 08	 mov	 eax, DWORD PTR _inValue$[ebp]
  00010	d9 00		 fld	 DWORD PTR [eax]
  00012	d8 4d fc	 fmul	 DWORD PTR _value$[ebp]
  00015	d9 5d 08	 fstp	 DWORD PTR tv130[ebp]
  00018	d9 45 08	 fld	 DWORD PTR tv130[ebp]

; 1692 : 	}

  0001b	c9		 leave
  0001c	c2 04 00	 ret	 4
??D?$CEncrypt@M@@QAEMABM@Z ENDP				; CEncrypt<float>::operator*
_TEXT	ENDS
PUBLIC	??G?$CEncrypt@K@@QAEKABK@Z			; CEncrypt<unsigned long>::operator-
; Function compile flags: /Ogsp
;	COMDAT ??G?$CEncrypt@K@@QAEKABK@Z
_TEXT	SEGMENT
_value$ = -4						; size = 4
_inValue$ = 8						; size = 4
??G?$CEncrypt@K@@QAEKABK@Z PROC				; CEncrypt<unsigned long>::operator-, COMDAT
; _this$ = ecx

; 1274 : 	{

  00000	55		 push	 ebp
  00001	8b ec		 mov	 ebp, esp
  00003	51		 push	 ecx

; 1275 : 		
; 1276 : 		type value;
; 1277 : 		DecryptValueToPool(&value);

  00004	8d 45 fc	 lea	 eax, DWORD PTR _value$[ebp]
  00007	50		 push	 eax
  00008	e8 00 00 00 00	 call	 ?DecryptValueToPool@?$CEncrypt@K@@QAEXPAK@Z ; CEncrypt<unsigned long>::DecryptValueToPool

; 1278 : #ifdef _NOTUSE
; 1279 : 		Debug();
; 1280 : #endif
; 1281 : 		return value - inValue;

  0000d	8b 45 fc	 mov	 eax, DWORD PTR _value$[ebp]
  00010	8b 4d 08	 mov	 ecx, DWORD PTR _inValue$[ebp]
  00013	2b 01		 sub	 eax, DWORD PTR [ecx]

; 1282 : 	}

  00015	c9		 leave
  00016	c2 04 00	 ret	 4
??G?$CEncrypt@K@@QAEKABK@Z ENDP				; CEncrypt<unsigned long>::operator-
_TEXT	ENDS
PUBLIC	??H?$CEncrypt@K@@QAEKABK@Z			; CEncrypt<unsigned long>::operator+
; Function compile flags: /Ogsp
;	COMDAT ??H?$CEncrypt@K@@QAEKABK@Z
_TEXT	SEGMENT
_value$ = -4						; size = 4
_inValue$ = 8						; size = 4
??H?$CEncrypt@K@@QAEKABK@Z PROC				; CEncrypt<unsigned long>::operator+, COMDAT
; _this$ = ecx

; 1285 : 	{

  00000	55		 push	 ebp
  00001	8b ec		 mov	 ebp, esp
  00003	51		 push	 ecx

; 1286 : 		type value;
; 1287 : 		DecryptValueToPool(&value);

  00004	8d 45 fc	 lea	 eax, DWORD PTR _value$[ebp]
  00007	50		 push	 eax
  00008	e8 00 00 00 00	 call	 ?DecryptValueToPool@?$CEncrypt@K@@QAEXPAK@Z ; CEncrypt<unsigned long>::DecryptValueToPool

; 1288 : #ifdef _NOTUSE
; 1289 : 		Debug();
; 1290 : #endif
; 1291 : 		return value + inValue;

  0000d	8b 45 08	 mov	 eax, DWORD PTR _inValue$[ebp]
  00010	8b 00		 mov	 eax, DWORD PTR [eax]
  00012	03 45 fc	 add	 eax, DWORD PTR _value$[ebp]

; 1292 : 	}

  00015	c9		 leave
  00016	c2 04 00	 ret	 4
??H?$CEncrypt@K@@QAEKABK@Z ENDP				; CEncrypt<unsigned long>::operator+
_TEXT	ENDS
PUBLIC	??Y?$CEncrypt@K@@QAEAAKABK@Z			; CEncrypt<unsigned long>::operator+=
; Function compile flags: /Ogsp
;	COMDAT ??Y?$CEncrypt@K@@QAEAAKABK@Z
_TEXT	SEGMENT
_value$ = -4						; size = 4
_inValue$ = 8						; size = 4
??Y?$CEncrypt@K@@QAEAAKABK@Z PROC			; CEncrypt<unsigned long>::operator+=, COMDAT
; _this$ = ecx

; 1325 : 	{

  00000	55		 push	 ebp
  00001	8b ec		 mov	 ebp, esp
  00003	51		 push	 ecx
  00004	56		 push	 esi

; 1326 : 		type value;
; 1327 : 		DecryptValueToPool(&value);

  00005	8d 45 fc	 lea	 eax, DWORD PTR _value$[ebp]
  00008	50		 push	 eax
  00009	8b f1		 mov	 esi, ecx
  0000b	e8 00 00 00 00	 call	 ?DecryptValueToPool@?$CEncrypt@K@@QAEXPAK@Z ; CEncrypt<unsigned long>::DecryptValueToPool

; 1328 : 		value += inValue;

  00010	8b 45 08	 mov	 eax, DWORD PTR _inValue$[ebp]
  00013	8b 00		 mov	 eax, DWORD PTR [eax]
  00015	01 45 fc	 add	 DWORD PTR _value$[ebp], eax

; 1329 : 		EncryptValueToPool((char*)&value);

  00018	8d 45 fc	 lea	 eax, DWORD PTR _value$[ebp]
  0001b	50		 push	 eax
  0001c	8b ce		 mov	 ecx, esi
  0001e	e8 00 00 00 00	 call	 ?EncryptValueToPool@?$CEncrypt@K@@AAEXPBD@Z ; CEncrypt<unsigned long>::EncryptValueToPool

; 1330 : #ifdef _NOTUSE
; 1331 : 		m_value += inValue;
; 1332 : 		Debug();
; 1333 : #endif
; 1334 : 		return value;

  00023	8d 45 fc	 lea	 eax, DWORD PTR _value$[ebp]
  00026	5e		 pop	 esi

; 1335 : 	} 

  00027	c9		 leave
  00028	c2 04 00	 ret	 4
??Y?$CEncrypt@K@@QAEAAKABK@Z ENDP			; CEncrypt<unsigned long>::operator+=
_TEXT	ENDS
PUBLIC	??M?$CEncrypt@K@@QAE_NABK@Z			; CEncrypt<unsigned long>::operator<
; Function compile flags: /Ogsp
;	COMDAT ??M?$CEncrypt@K@@QAE_NABK@Z
_TEXT	SEGMENT
_value$ = -4						; size = 4
_inValue$ = 8						; size = 4
??M?$CEncrypt@K@@QAE_NABK@Z PROC			; CEncrypt<unsigned long>::operator<, COMDAT
; _this$ = ecx

; 1401 : 	{

  00000	55		 push	 ebp
  00001	8b ec		 mov	 ebp, esp
  00003	51		 push	 ecx

; 1402 : 		type value;
; 1403 : 		DecryptValueToPool(&value);

  00004	8d 45 fc	 lea	 eax, DWORD PTR _value$[ebp]
  00007	50		 push	 eax
  00008	e8 00 00 00 00	 call	 ?DecryptValueToPool@?$CEncrypt@K@@QAEXPAK@Z ; CEncrypt<unsigned long>::DecryptValueToPool

; 1404 : #ifdef _NOTUSE
; 1405 : 		Debug();
; 1406 : #endif
; 1407 : 		return (value < inValue);

  0000d	8b 45 08	 mov	 eax, DWORD PTR _inValue$[ebp]
  00010	8b 4d fc	 mov	 ecx, DWORD PTR _value$[ebp]
  00013	3b 08		 cmp	 ecx, DWORD PTR [eax]
  00015	1b c0		 sbb	 eax, eax
  00017	f7 d8		 neg	 eax

; 1408 : 	} 

  00019	c9		 leave
  0001a	c2 04 00	 ret	 4
??M?$CEncrypt@K@@QAE_NABK@Z ENDP			; CEncrypt<unsigned long>::operator<
_TEXT	ENDS
PUBLIC	??N?$CEncrypt@K@@QAE_NABK@Z			; CEncrypt<unsigned long>::operator<=
; Function compile flags: /Ogsp
;	COMDAT ??N?$CEncrypt@K@@QAE_NABK@Z
_TEXT	SEGMENT
_value$ = -4						; size = 4
_inValue$ = 8						; size = 4
??N?$CEncrypt@K@@QAE_NABK@Z PROC			; CEncrypt<unsigned long>::operator<=, COMDAT
; _this$ = ecx

; 1431 : 	{

  00000	55		 push	 ebp
  00001	8b ec		 mov	 ebp, esp
  00003	51		 push	 ecx

; 1432 : 		
; 1433 : 		type value;
; 1434 : 		DecryptValueToPool(&value);

  00004	8d 45 fc	 lea	 eax, DWORD PTR _value$[ebp]
  00007	50		 push	 eax
  00008	e8 00 00 00 00	 call	 ?DecryptValueToPool@?$CEncrypt@K@@QAEXPAK@Z ; CEncrypt<unsigned long>::DecryptValueToPool

; 1435 : #ifdef _NOTUSE
; 1436 : 		Debug();
; 1437 : #endif
; 1438 : 		return (value <= inValue);

  0000d	8b 45 08	 mov	 eax, DWORD PTR _inValue$[ebp]
  00010	8b 00		 mov	 eax, DWORD PTR [eax]
  00012	3b 45 fc	 cmp	 eax, DWORD PTR _value$[ebp]
  00015	1b c0		 sbb	 eax, eax
  00017	40		 inc	 eax

; 1439 : 	}		

  00018	c9		 leave
  00019	c2 04 00	 ret	 4
??N?$CEncrypt@K@@QAE_NABK@Z ENDP			; CEncrypt<unsigned long>::operator<=
_TEXT	ENDS
PUBLIC	?begin@?$vector@PAVioBaseChar@@V?$allocator@PAVioBaseChar@@@std@@@std@@QAE?AV?$_Vector_iterator@V?$_Vector_val@PAVioBaseChar@@V?$allocator@PAVioBaseChar@@@std@@@std@@@2@XZ ; std::vector<ioBaseChar *,std::allocator<ioBaseChar *> >::begin
; Function compile flags: /Ogsp
; File c:\program files (x86)\microsoft visual studio 10.0\vc\include\vector
;	COMDAT ?begin@?$vector@PAVioBaseChar@@V?$allocator@PAVioBaseChar@@@std@@@std@@QAE?AV?$_Vector_iterator@V?$_Vector_val@PAVioBaseChar@@V?$allocator@PAVioBaseChar@@@std@@@std@@@2@XZ
_TEXT	SEGMENT
___$ReturnUdt$ = 8					; size = 4
?begin@?$vector@PAVioBaseChar@@V?$allocator@PAVioBaseChar@@@std@@@std@@QAE?AV?$_Vector_iterator@V?$_Vector_val@PAVioBaseChar@@V?$allocator@PAVioBaseChar@@@std@@@std@@@2@XZ PROC ; std::vector<ioBaseChar *,std::allocator<ioBaseChar *> >::begin, COMDAT
; _this$ = ecx

; 781  : 		{	// return iterator for beginning of mutable sequence

  00000	55		 push	 ebp
  00001	8b ec		 mov	 ebp, esp

; 782  : 		return (iterator(this->_Myfirst, this));

  00003	8b 09		 mov	 ecx, DWORD PTR [ecx]
  00005	8b 45 08	 mov	 eax, DWORD PTR ___$ReturnUdt$[ebp]
  00008	89 08		 mov	 DWORD PTR [eax], ecx

; 783  : 		}

  0000a	5d		 pop	 ebp
  0000b	c2 04 00	 ret	 4
?begin@?$vector@PAVioBaseChar@@V?$allocator@PAVioBaseChar@@@std@@@std@@QAE?AV?$_Vector_iterator@V?$_Vector_val@PAVioBaseChar@@V?$allocator@PAVioBaseChar@@@std@@@std@@@2@XZ ENDP ; std::vector<ioBaseChar *,std::allocator<ioBaseChar *> >::begin
_TEXT	ENDS
PUBLIC	?begin@?$vector@PAVioBaseChar@@V?$allocator@PAVioBaseChar@@@std@@@std@@QBE?AV?$_Vector_const_iterator@V?$_Vector_val@PAVioBaseChar@@V?$allocator@PAVioBaseChar@@@std@@@std@@@2@XZ ; std::vector<ioBaseChar *,std::allocator<ioBaseChar *> >::begin
; Function compile flags: /Ogsp
;	COMDAT ?begin@?$vector@PAVioBaseChar@@V?$allocator@PAVioBaseChar@@@std@@@std@@QBE?AV?$_Vector_const_iterator@V?$_Vector_val@PAVioBaseChar@@V?$allocator@PAVioBaseChar@@@std@@@std@@@2@XZ
_TEXT	SEGMENT
___$ReturnUdt$ = 8					; size = 4
?begin@?$vector@PAVioBaseChar@@V?$allocator@PAVioBaseChar@@@std@@@std@@QBE?AV?$_Vector_const_iterator@V?$_Vector_val@PAVioBaseChar@@V?$allocator@PAVioBaseChar@@@std@@@std@@@2@XZ PROC ; std::vector<ioBaseChar *,std::allocator<ioBaseChar *> >::begin, COMDAT
; _this$ = ecx

; 786  : 		{	// return iterator for beginning of nonmutable sequence

  00000	55		 push	 ebp
  00001	8b ec		 mov	 ebp, esp

; 787  : 		return (const_iterator(this->_Myfirst, this));

  00003	8b 09		 mov	 ecx, DWORD PTR [ecx]
  00005	8b 45 08	 mov	 eax, DWORD PTR ___$ReturnUdt$[ebp]
  00008	89 08		 mov	 DWORD PTR [eax], ecx

; 788  : 		}

  0000a	5d		 pop	 ebp
  0000b	c2 04 00	 ret	 4
?begin@?$vector@PAVioBaseChar@@V?$allocator@PAVioBaseChar@@@std@@@std@@QBE?AV?$_Vector_const_iterator@V?$_Vector_val@PAVioBaseChar@@V?$allocator@PAVioBaseChar@@@std@@@std@@@2@XZ ENDP ; std::vector<ioBaseChar *,std::allocator<ioBaseChar *> >::begin
_TEXT	ENDS
PUBLIC	?end@?$vector@PAVioBaseChar@@V?$allocator@PAVioBaseChar@@@std@@@std@@QAE?AV?$_Vector_iterator@V?$_Vector_val@PAVioBaseChar@@V?$allocator@PAVioBaseChar@@@std@@@std@@@2@XZ ; std::vector<ioBaseChar *,std::allocator<ioBaseChar *> >::end
; Function compile flags: /Ogsp
;	COMDAT ?end@?$vector@PAVioBaseChar@@V?$allocator@PAVioBaseChar@@@std@@@std@@QAE?AV?$_Vector_iterator@V?$_Vector_val@PAVioBaseChar@@V?$allocator@PAVioBaseChar@@@std@@@std@@@2@XZ
_TEXT	SEGMENT
___$ReturnUdt$ = 8					; size = 4
?end@?$vector@PAVioBaseChar@@V?$allocator@PAVioBaseChar@@@std@@@std@@QAE?AV?$_Vector_iterator@V?$_Vector_val@PAVioBaseChar@@V?$allocator@PAVioBaseChar@@@std@@@std@@@2@XZ PROC ; std::vector<ioBaseChar *,std::allocator<ioBaseChar *> >::end, COMDAT
; _this$ = ecx

; 791  : 		{	// return iterator for end of mutable sequence

  00000	55		 push	 ebp
  00001	8b ec		 mov	 ebp, esp

; 792  : 		return (iterator(this->_Mylast, this));

  00003	8b 49 04	 mov	 ecx, DWORD PTR [ecx+4]
  00006	8b 45 08	 mov	 eax, DWORD PTR ___$ReturnUdt$[ebp]
  00009	89 08		 mov	 DWORD PTR [eax], ecx

; 793  : 		}

  0000b	5d		 pop	 ebp
  0000c	c2 04 00	 ret	 4
?end@?$vector@PAVioBaseChar@@V?$allocator@PAVioBaseChar@@@std@@@std@@QAE?AV?$_Vector_iterator@V?$_Vector_val@PAVioBaseChar@@V?$allocator@PAVioBaseChar@@@std@@@std@@@2@XZ ENDP ; std::vector<ioBaseChar *,std::allocator<ioBaseChar *> >::end
_TEXT	ENDS
PUBLIC	?end@?$vector@PAVioBaseChar@@V?$allocator@PAVioBaseChar@@@std@@@std@@QBE?AV?$_Vector_const_iterator@V?$_Vector_val@PAVioBaseChar@@V?$allocator@PAVioBaseChar@@@std@@@std@@@2@XZ ; std::vector<ioBaseChar *,std::allocator<ioBaseChar *> >::end
; Function compile flags: /Ogsp
;	COMDAT ?end@?$vector@PAVioBaseChar@@V?$allocator@PAVioBaseChar@@@std@@@std@@QBE?AV?$_Vector_const_iterator@V?$_Vector_val@PAVioBaseChar@@V?$allocator@PAVioBaseChar@@@std@@@std@@@2@XZ
_TEXT	SEGMENT
___$ReturnUdt$ = 8					; size = 4
?end@?$vector@PAVioBaseChar@@V?$allocator@PAVioBaseChar@@@std@@@std@@QBE?AV?$_Vector_const_iterator@V?$_Vector_val@PAVioBaseChar@@V?$allocator@PAVioBaseChar@@@std@@@std@@@2@XZ PROC ; std::vector<ioBaseChar *,std::allocator<ioBaseChar *> >::end, COMDAT
; _this$ = ecx

; 796  : 		{	// return iterator for end of nonmutable sequence

  00000	55		 push	 ebp
  00001	8b ec		 mov	 ebp, esp

; 797  : 		return (const_iterator(this->_Mylast, this));

  00003	8b 49 04	 mov	 ecx, DWORD PTR [ecx+4]
  00006	8b 45 08	 mov	 eax, DWORD PTR ___$ReturnUdt$[ebp]
  00009	89 08		 mov	 DWORD PTR [eax], ecx

; 798  : 		}

  0000b	5d		 pop	 ebp
  0000c	c2 04 00	 ret	 4
?end@?$vector@PAVioBaseChar@@V?$allocator@PAVioBaseChar@@@std@@@std@@QBE?AV?$_Vector_const_iterator@V?$_Vector_val@PAVioBaseChar@@V?$allocator@PAVioBaseChar@@@std@@@std@@@2@XZ ENDP ; std::vector<ioBaseChar *,std::allocator<ioBaseChar *> >::end
_TEXT	ENDS
PUBLIC	??0?$_Vector_iterator@V?$_Vector_val@VioHashString@@V?$allocator@VioHashString@@@std@@@std@@@std@@QAE@XZ ; std::_Vector_iterator<std::_Vector_val<ioHashString,std::allocator<ioHashString> > >::_Vector_iterator<std::_Vector_val<ioHashString,std::allocator<ioHashString> > >
; Function compile flags: /Ogsp
;	COMDAT ??0?$_Vector_iterator@V?$_Vector_val@VioHashString@@V?$allocator@VioHashString@@@std@@@std@@@std@@QAE@XZ
_TEXT	SEGMENT
??0?$_Vector_iterator@V?$_Vector_val@VioHashString@@V?$allocator@VioHashString@@@std@@@std@@@std@@QAE@XZ PROC ; std::_Vector_iterator<std::_Vector_val<ioHashString,std::allocator<ioHashString> > >::_Vector_iterator<std::_Vector_val<ioHashString,std::allocator<ioHashString> > >, COMDAT
; _this$ = ecx

; 298  : 	_Vector_iterator()

  00000	8b c1		 mov	 eax, ecx
  00002	83 20 00	 and	 DWORD PTR [eax], 0

; 299  : 		{	// construct with null vector pointer
; 300  : 		}

  00005	c3		 ret	 0
??0?$_Vector_iterator@V?$_Vector_val@VioHashString@@V?$allocator@VioHashString@@@std@@@std@@@std@@QAE@XZ ENDP ; std::_Vector_iterator<std::_Vector_val<ioHashString,std::allocator<ioHashString> > >::_Vector_iterator<std::_Vector_val<ioHashString,std::allocator<ioHashString> > >
_TEXT	ENDS
PUBLIC	??D?$_Vector_iterator@V?$_Vector_val@VioHashString@@V?$allocator@VioHashString@@@std@@@std@@@std@@QBEAAVioHashString@@XZ ; std::_Vector_iterator<std::_Vector_val<ioHashString,std::allocator<ioHashString> > >::operator*
; Function compile flags: /Ogsp
;	COMDAT ??D?$_Vector_iterator@V?$_Vector_val@VioHashString@@V?$allocator@VioHashString@@@std@@@std@@@std@@QBEAAVioHashString@@XZ
_TEXT	SEGMENT
??D?$_Vector_iterator@V?$_Vector_val@VioHashString@@V?$allocator@VioHashString@@@std@@@std@@@std@@QBEAAVioHashString@@XZ PROC ; std::_Vector_iterator<std::_Vector_val<ioHashString,std::allocator<ioHashString> > >::operator*, COMDAT
; _this$ = ecx

; 322  : 		return ((reference)**(_Mybase *)this);

  00000	8b 01		 mov	 eax, DWORD PTR [ecx]

; 323  : 		}

  00002	c3		 ret	 0
??D?$_Vector_iterator@V?$_Vector_val@VioHashString@@V?$allocator@VioHashString@@@std@@@std@@@std@@QBEAAVioHashString@@XZ ENDP ; std::_Vector_iterator<std::_Vector_val<ioHashString,std::allocator<ioHashString> > >::operator*
_TEXT	ENDS
PUBLIC	??E?$_Vector_iterator@V?$_Vector_val@VioHashString@@V?$allocator@VioHashString@@@std@@@std@@@std@@QAEAAV01@XZ ; std::_Vector_iterator<std::_Vector_val<ioHashString,std::allocator<ioHashString> > >::operator++
; Function compile flags: /Ogsp
;	COMDAT ??E?$_Vector_iterator@V?$_Vector_val@VioHashString@@V?$allocator@VioHashString@@@std@@@std@@@std@@QAEAAV01@XZ
_TEXT	SEGMENT
??E?$_Vector_iterator@V?$_Vector_val@VioHashString@@V?$allocator@VioHashString@@@std@@@std@@@std@@QAEAAV01@XZ PROC ; std::_Vector_iterator<std::_Vector_val<ioHashString,std::allocator<ioHashString> > >::operator++, COMDAT
; _this$ = ecx

; 331  : 		{	// preincrement

  00000	8b c1		 mov	 eax, ecx

; 332  : 		++*(_Mybase *)this;

  00002	83 00 10	 add	 DWORD PTR [eax], 16	; 00000010H

; 333  : 		return (*this);
; 334  : 		}

  00005	c3		 ret	 0
??E?$_Vector_iterator@V?$_Vector_val@VioHashString@@V?$allocator@VioHashString@@@std@@@std@@@std@@QAEAAV01@XZ ENDP ; std::_Vector_iterator<std::_Vector_val<ioHashString,std::allocator<ioHashString> > >::operator++
_TEXT	ENDS
PUBLIC	??0?$_Vector_iterator@V?$_Vector_val@UCallBuff@@V?$allocator@UCallBuff@@@std@@@std@@@std@@QAE@XZ ; std::_Vector_iterator<std::_Vector_val<CallBuff,std::allocator<CallBuff> > >::_Vector_iterator<std::_Vector_val<CallBuff,std::allocator<CallBuff> > >
; Function compile flags: /Ogsp
;	COMDAT ??0?$_Vector_iterator@V?$_Vector_val@UCallBuff@@V?$allocator@UCallBuff@@@std@@@std@@@std@@QAE@XZ
_TEXT	SEGMENT
??0?$_Vector_iterator@V?$_Vector_val@UCallBuff@@V?$allocator@UCallBuff@@@std@@@std@@@std@@QAE@XZ PROC ; std::_Vector_iterator<std::_Vector_val<CallBuff,std::allocator<CallBuff> > >::_Vector_iterator<std::_Vector_val<CallBuff,std::allocator<CallBuff> > >, COMDAT
; _this$ = ecx

; 298  : 	_Vector_iterator()

  00000	8b c1		 mov	 eax, ecx
  00002	83 20 00	 and	 DWORD PTR [eax], 0

; 299  : 		{	// construct with null vector pointer
; 300  : 		}

  00005	c3		 ret	 0
??0?$_Vector_iterator@V?$_Vector_val@UCallBuff@@V?$allocator@UCallBuff@@@std@@@std@@@std@@QAE@XZ ENDP ; std::_Vector_iterator<std::_Vector_val<CallBuff,std::allocator<CallBuff> > >::_Vector_iterator<std::_Vector_val<CallBuff,std::allocator<CallBuff> > >
_TEXT	ENDS
PUBLIC	??D?$_Vector_iterator@V?$_Vector_val@UCallBuff@@V?$allocator@UCallBuff@@@std@@@std@@@std@@QBEAAUCallBuff@@XZ ; std::_Vector_iterator<std::_Vector_val<CallBuff,std::allocator<CallBuff> > >::operator*
; Function compile flags: /Ogsp
;	COMDAT ??D?$_Vector_iterator@V?$_Vector_val@UCallBuff@@V?$allocator@UCallBuff@@@std@@@std@@@std@@QBEAAUCallBuff@@XZ
_TEXT	SEGMENT
??D?$_Vector_iterator@V?$_Vector_val@UCallBuff@@V?$allocator@UCallBuff@@@std@@@std@@@std@@QBEAAUCallBuff@@XZ PROC ; std::_Vector_iterator<std::_Vector_val<CallBuff,std::allocator<CallBuff> > >::operator*, COMDAT
; _this$ = ecx

; 322  : 		return ((reference)**(_Mybase *)this);

  00000	8b 01		 mov	 eax, DWORD PTR [ecx]

; 323  : 		}

  00002	c3		 ret	 0
??D?$_Vector_iterator@V?$_Vector_val@UCallBuff@@V?$allocator@UCallBuff@@@std@@@std@@@std@@QBEAAUCallBuff@@XZ ENDP ; std::_Vector_iterator<std::_Vector_val<CallBuff,std::allocator<CallBuff> > >::operator*
_TEXT	ENDS
PUBLIC	??E?$_Vector_iterator@V?$_Vector_val@UCallBuff@@V?$allocator@UCallBuff@@@std@@@std@@@std@@QAEAAV01@XZ ; std::_Vector_iterator<std::_Vector_val<CallBuff,std::allocator<CallBuff> > >::operator++
; Function compile flags: /Ogsp
;	COMDAT ??E?$_Vector_iterator@V?$_Vector_val@UCallBuff@@V?$allocator@UCallBuff@@@std@@@std@@@std@@QAEAAV01@XZ
_TEXT	SEGMENT
??E?$_Vector_iterator@V?$_Vector_val@UCallBuff@@V?$allocator@UCallBuff@@@std@@@std@@@std@@QAEAAV01@XZ PROC ; std::_Vector_iterator<std::_Vector_val<CallBuff,std::allocator<CallBuff> > >::operator++, COMDAT
; _this$ = ecx

; 331  : 		{	// preincrement

  00000	8b c1		 mov	 eax, ecx

; 332  : 		++*(_Mybase *)this;

  00002	83 00 14	 add	 DWORD PTR [eax], 20	; 00000014H

; 333  : 		return (*this);
; 334  : 		}

  00005	c3		 ret	 0
??E?$_Vector_iterator@V?$_Vector_val@UCallBuff@@V?$allocator@UCallBuff@@@std@@@std@@@std@@QAEAAV01@XZ ENDP ; std::_Vector_iterator<std::_Vector_val<CallBuff,std::allocator<CallBuff> > >::operator++
_TEXT	ENDS
PUBLIC	??0?$_Vector_val@PAVioBaseChar@@V?$allocator@PAVioBaseChar@@@std@@@std@@QAE@V?$allocator@PAVioBaseChar@@@1@@Z ; std::_Vector_val<ioBaseChar *,std::allocator<ioBaseChar *> >::_Vector_val<ioBaseChar *,std::allocator<ioBaseChar *> >
; Function compile flags: /Ogsp
;	COMDAT ??0?$_Vector_val@PAVioBaseChar@@V?$allocator@PAVioBaseChar@@@std@@@std@@QAE@V?$allocator@PAVioBaseChar@@@1@@Z
_TEXT	SEGMENT
__Al$ = 8						; size = 1
??0?$_Vector_val@PAVioBaseChar@@V?$allocator@PAVioBaseChar@@@std@@@std@@QAE@V?$allocator@PAVioBaseChar@@@1@@Z PROC ; std::_Vector_val<ioBaseChar *,std::allocator<ioBaseChar *> >::_Vector_val<ioBaseChar *,std::allocator<ioBaseChar *> >, COMDAT
; _this$ = ecx

; 426  : 		{	// construct allocator from _Al

  00000	8b c1		 mov	 eax, ecx

; 427  : 		_Myfirst = 0;

  00002	33 c9		 xor	 ecx, ecx
  00004	89 08		 mov	 DWORD PTR [eax], ecx

; 428  : 		_Mylast = 0;

  00006	89 48 04	 mov	 DWORD PTR [eax+4], ecx

; 429  : 		_Myend = 0;

  00009	89 48 08	 mov	 DWORD PTR [eax+8], ecx

; 430  : 		}

  0000c	c2 04 00	 ret	 4
??0?$_Vector_val@PAVioBaseChar@@V?$allocator@PAVioBaseChar@@@std@@@std@@QAE@V?$allocator@PAVioBaseChar@@@1@@Z ENDP ; std::_Vector_val<ioBaseChar *,std::allocator<ioBaseChar *> >::_Vector_val<ioBaseChar *,std::allocator<ioBaseChar *> >
_TEXT	ENDS
PUBLIC	?begin@?$vector@UCallBuff@@V?$allocator@UCallBuff@@@std@@@std@@QBE?AV?$_Vector_const_iterator@V?$_Vector_val@UCallBuff@@V?$allocator@UCallBuff@@@std@@@std@@@2@XZ ; std::vector<CallBuff,std::allocator<CallBuff> >::begin
; Function compile flags: /Ogsp
;	COMDAT ?begin@?$vector@UCallBuff@@V?$allocator@UCallBuff@@@std@@@std@@QBE?AV?$_Vector_const_iterator@V?$_Vector_val@UCallBuff@@V?$allocator@UCallBuff@@@std@@@std@@@2@XZ
_TEXT	SEGMENT
___$ReturnUdt$ = 8					; size = 4
?begin@?$vector@UCallBuff@@V?$allocator@UCallBuff@@@std@@@std@@QBE?AV?$_Vector_const_iterator@V?$_Vector_val@UCallBuff@@V?$allocator@UCallBuff@@@std@@@std@@@2@XZ PROC ; std::vector<CallBuff,std::allocator<CallBuff> >::begin, COMDAT
; _this$ = ecx

; 786  : 		{	// return iterator for beginning of nonmutable sequence

  00000	55		 push	 ebp
  00001	8b ec		 mov	 ebp, esp

; 787  : 		return (const_iterator(this->_Myfirst, this));

  00003	8b 09		 mov	 ecx, DWORD PTR [ecx]
  00005	8b 45 08	 mov	 eax, DWORD PTR ___$ReturnUdt$[ebp]
  00008	89 08		 mov	 DWORD PTR [eax], ecx

; 788  : 		}

  0000a	5d		 pop	 ebp
  0000b	c2 04 00	 ret	 4
?begin@?$vector@UCallBuff@@V?$allocator@UCallBuff@@@std@@@std@@QBE?AV?$_Vector_const_iterator@V?$_Vector_val@UCallBuff@@V?$allocator@UCallBuff@@@std@@@std@@@2@XZ ENDP ; std::vector<CallBuff,std::allocator<CallBuff> >::begin
_TEXT	ENDS
PUBLIC	?end@?$vector@UCallBuff@@V?$allocator@UCallBuff@@@std@@@std@@QBE?AV?$_Vector_const_iterator@V?$_Vector_val@UCallBuff@@V?$allocator@UCallBuff@@@std@@@std@@@2@XZ ; std::vector<CallBuff,std::allocator<CallBuff> >::end
; Function compile flags: /Ogsp
;	COMDAT ?end@?$vector@UCallBuff@@V?$allocator@UCallBuff@@@std@@@std@@QBE?AV?$_Vector_const_iterator@V?$_Vector_val@UCallBuff@@V?$allocator@UCallBuff@@@std@@@std@@@2@XZ
_TEXT	SEGMENT
___$ReturnUdt$ = 8					; size = 4
?end@?$vector@UCallBuff@@V?$allocator@UCallBuff@@@std@@@std@@QBE?AV?$_Vector_const_iterator@V?$_Vector_val@UCallBuff@@V?$allocator@UCallBuff@@@std@@@std@@@2@XZ PROC ; std::vector<CallBuff,std::allocator<CallBuff> >::end, COMDAT
; _this$ = ecx

; 796  : 		{	// return iterator for end of nonmutable sequence

  00000	55		 push	 ebp
  00001	8b ec		 mov	 ebp, esp

; 797  : 		return (const_iterator(this->_Mylast, this));

  00003	8b 49 04	 mov	 ecx, DWORD PTR [ecx+4]
  00006	8b 45 08	 mov	 eax, DWORD PTR ___$ReturnUdt$[ebp]
  00009	89 08		 mov	 DWORD PTR [eax], ecx

; 798  : 		}

  0000b	5d		 pop	 ebp
  0000c	c2 04 00	 ret	 4
?end@?$vector@UCallBuff@@V?$allocator@UCallBuff@@@std@@@std@@QBE?AV?$_Vector_const_iterator@V?$_Vector_val@UCallBuff@@V?$allocator@UCallBuff@@@std@@@std@@@2@XZ ENDP ; std::vector<CallBuff,std::allocator<CallBuff> >::end
_TEXT	ENDS
PUBLIC	?max_size@?$vector@UCallBuff@@V?$allocator@UCallBuff@@@std@@@std@@QBEIXZ ; std::vector<CallBuff,std::allocator<CallBuff> >::max_size
; Function compile flags: /Ogsp
;	COMDAT ?max_size@?$vector@UCallBuff@@V?$allocator@UCallBuff@@@std@@@std@@QBEIXZ
_TEXT	SEGMENT
?max_size@?$vector@UCallBuff@@V?$allocator@UCallBuff@@@std@@@std@@QBEIXZ PROC ; std::vector<CallBuff,std::allocator<CallBuff> >::max_size, COMDAT
; _this$ = ecx

; 884  : 		return (this->_Alval.max_size());

  00000	b8 cc cc cc 0c	 mov	 eax, 214748364		; 0cccccccH

; 885  : 		}

  00005	c3		 ret	 0
?max_size@?$vector@UCallBuff@@V?$allocator@UCallBuff@@@std@@@std@@QBEIXZ ENDP ; std::vector<CallBuff,std::allocator<CallBuff> >::max_size
_TEXT	ENDS
PUBLIC	??0?$_Vector_val@UCallBuff@@V?$allocator@UCallBuff@@@std@@@std@@QAE@V?$allocator@UCallBuff@@@1@@Z ; std::_Vector_val<CallBuff,std::allocator<CallBuff> >::_Vector_val<CallBuff,std::allocator<CallBuff> >
; Function compile flags: /Ogsp
;	COMDAT ??0?$_Vector_val@UCallBuff@@V?$allocator@UCallBuff@@@std@@@std@@QAE@V?$allocator@UCallBuff@@@1@@Z
_TEXT	SEGMENT
__Al$ = 8						; size = 1
??0?$_Vector_val@UCallBuff@@V?$allocator@UCallBuff@@@std@@@std@@QAE@V?$allocator@UCallBuff@@@1@@Z PROC ; std::_Vector_val<CallBuff,std::allocator<CallBuff> >::_Vector_val<CallBuff,std::allocator<CallBuff> >, COMDAT
; _this$ = ecx

; 426  : 		{	// construct allocator from _Al

  00000	8b c1		 mov	 eax, ecx

; 427  : 		_Myfirst = 0;

  00002	33 c9		 xor	 ecx, ecx
  00004	89 08		 mov	 DWORD PTR [eax], ecx

; 428  : 		_Mylast = 0;

  00006	89 48 04	 mov	 DWORD PTR [eax+4], ecx

; 429  : 		_Myend = 0;

  00009	89 48 08	 mov	 DWORD PTR [eax+8], ecx

; 430  : 		}

  0000c	c2 04 00	 ret	 4
??0?$_Vector_val@UCallBuff@@V?$allocator@UCallBuff@@@std@@@std@@QAE@V?$allocator@UCallBuff@@@1@@Z ENDP ; std::_Vector_val<CallBuff,std::allocator<CallBuff> >::_Vector_val<CallBuff,std::allocator<CallBuff> >
_TEXT	ENDS
PUBLIC	?allocate@?$allocator@UCallBuff@@@std@@QAEPAUCallBuff@@I@Z ; std::allocator<CallBuff>::allocate
; Function compile flags: /Ogsp
; File c:\program files (x86)\microsoft visual studio 10.0\vc\include\xmemory
;	COMDAT ?allocate@?$allocator@UCallBuff@@@std@@QAEPAUCallBuff@@I@Z
_TEXT	SEGMENT
__Count$ = 8						; size = 4
?allocate@?$allocator@UCallBuff@@@std@@QAEPAUCallBuff@@I@Z PROC ; std::allocator<CallBuff>::allocate, COMDAT
; _this$ = ecx

; 186  : 		{	// allocate array of _Count elements

  00000	55		 push	 ebp
  00001	8b ec		 mov	 ebp, esp

; 187  : 		return (_Allocate(_Count, (pointer)0));

  00003	6a 00		 push	 0
  00005	ff 75 08	 push	 DWORD PTR __Count$[ebp]
  00008	e8 00 00 00 00	 call	 ??$_Allocate@UCallBuff@@@std@@YAPAUCallBuff@@IPAU1@@Z ; std::_Allocate<CallBuff>
  0000d	59		 pop	 ecx
  0000e	59		 pop	 ecx

; 188  : 		}

  0000f	5d		 pop	 ebp
  00010	c2 04 00	 ret	 4
?allocate@?$allocator@UCallBuff@@@std@@QAEPAUCallBuff@@I@Z ENDP ; std::allocator<CallBuff>::allocate
_TEXT	ENDS
PUBLIC	??0?$_Vector_iterator@V?$_Vector_val@UCallBuff@@V?$allocator@UCallBuff@@@std@@@std@@@std@@QAE@PAUCallBuff@@PBU_Container_base0@1@@Z ; std::_Vector_iterator<std::_Vector_val<CallBuff,std::allocator<CallBuff> > >::_Vector_iterator<std::_Vector_val<CallBuff,std::allocator<CallBuff> > >
; Function compile flags: /Ogsp
; File c:\program files (x86)\microsoft visual studio 10.0\vc\include\vector
;	COMDAT ??0?$_Vector_iterator@V?$_Vector_val@UCallBuff@@V?$allocator@UCallBuff@@@std@@@std@@@std@@QAE@PAUCallBuff@@PBU_Container_base0@1@@Z
_TEXT	SEGMENT
__Parg$ = 8						; size = 4
__Pvector$ = 12						; size = 4
??0?$_Vector_iterator@V?$_Vector_val@UCallBuff@@V?$allocator@UCallBuff@@@std@@@std@@@std@@QAE@PAUCallBuff@@PBU_Container_base0@1@@Z PROC ; std::_Vector_iterator<std::_Vector_val<CallBuff,std::allocator<CallBuff> > >::_Vector_iterator<std::_Vector_val<CallBuff,std::allocator<CallBuff> > >, COMDAT
; _this$ = ecx

; 304  : 		{	// construct with pointer _Parg

  00000	55		 push	 ebp
  00001	8b ec		 mov	 ebp, esp
  00003	8b c1		 mov	 eax, ecx
  00005	8b 4d 08	 mov	 ecx, DWORD PTR __Parg$[ebp]
  00008	89 08		 mov	 DWORD PTR [eax], ecx

; 305  : 		}

  0000a	5d		 pop	 ebp
  0000b	c2 08 00	 ret	 8
??0?$_Vector_iterator@V?$_Vector_val@UCallBuff@@V?$allocator@UCallBuff@@@std@@@std@@@std@@QAE@PAUCallBuff@@PBU_Container_base0@1@@Z ENDP ; std::_Vector_iterator<std::_Vector_val<CallBuff,std::allocator<CallBuff> > >::_Vector_iterator<std::_Vector_val<CallBuff,std::allocator<CallBuff> > >
_TEXT	ENDS
PUBLIC	??8?$_Vector_const_iterator@V?$_Vector_val@UCallBuff@@V?$allocator@UCallBuff@@@std@@@std@@@std@@QBE_NABV01@@Z ; std::_Vector_const_iterator<std::_Vector_val<CallBuff,std::allocator<CallBuff> > >::operator==
; Function compile flags: /Ogsp
;	COMDAT ??8?$_Vector_const_iterator@V?$_Vector_val@UCallBuff@@V?$allocator@UCallBuff@@@std@@@std@@@std@@QBE_NABV01@@Z
_TEXT	SEGMENT
__Right$ = 8						; size = 4
??8?$_Vector_const_iterator@V?$_Vector_val@UCallBuff@@V?$allocator@UCallBuff@@@std@@@std@@@std@@QBE_NABV01@@Z PROC ; std::_Vector_const_iterator<std::_Vector_val<CallBuff,std::allocator<CallBuff> > >::operator==, COMDAT
; _this$ = ecx

; 201  : 		{	// test for iterator equality

  00000	55		 push	 ebp
  00001	8b ec		 mov	 ebp, esp

; 202  : 		_Compat(_Right);
; 203  : 		return (this->_Ptr == _Right._Ptr);

  00003	8b 01		 mov	 eax, DWORD PTR [ecx]
  00005	8b 4d 08	 mov	 ecx, DWORD PTR __Right$[ebp]
  00008	2b 01		 sub	 eax, DWORD PTR [ecx]
  0000a	f7 d8		 neg	 eax
  0000c	1b c0		 sbb	 eax, eax
  0000e	40		 inc	 eax

; 204  : 		}

  0000f	5d		 pop	 ebp
  00010	c2 04 00	 ret	 4
??8?$_Vector_const_iterator@V?$_Vector_val@UCallBuff@@V?$allocator@UCallBuff@@@std@@@std@@@std@@QBE_NABV01@@Z ENDP ; std::_Vector_const_iterator<std::_Vector_val<CallBuff,std::allocator<CallBuff> > >::operator==
_TEXT	ENDS
PUBLIC	??8?$_Vector_const_iterator@V?$_Vector_val@PAVioBaseChar@@V?$allocator@PAVioBaseChar@@@std@@@std@@@std@@QBE_NABV01@@Z ; std::_Vector_const_iterator<std::_Vector_val<ioBaseChar *,std::allocator<ioBaseChar *> > >::operator==
; Function compile flags: /Ogsp
;	COMDAT ??8?$_Vector_const_iterator@V?$_Vector_val@PAVioBaseChar@@V?$allocator@PAVioBaseChar@@@std@@@std@@@std@@QBE_NABV01@@Z
_TEXT	SEGMENT
__Right$ = 8						; size = 4
??8?$_Vector_const_iterator@V?$_Vector_val@PAVioBaseChar@@V?$allocator@PAVioBaseChar@@@std@@@std@@@std@@QBE_NABV01@@Z PROC ; std::_Vector_const_iterator<std::_Vector_val<ioBaseChar *,std::allocator<ioBaseChar *> > >::operator==, COMDAT
; _this$ = ecx

; 201  : 		{	// test for iterator equality

  00000	55		 push	 ebp
  00001	8b ec		 mov	 ebp, esp

; 202  : 		_Compat(_Right);
; 203  : 		return (this->_Ptr == _Right._Ptr);

  00003	8b 01		 mov	 eax, DWORD PTR [ecx]
  00005	8b 4d 08	 mov	 ecx, DWORD PTR __Right$[ebp]
  00008	2b 01		 sub	 eax, DWORD PTR [ecx]
  0000a	f7 d8		 neg	 eax
  0000c	1b c0		 sbb	 eax, eax
  0000e	40		 inc	 eax

; 204  : 		}

  0000f	5d		 pop	 ebp
  00010	c2 04 00	 ret	 4
??8?$_Vector_const_iterator@V?$_Vector_val@PAVioBaseChar@@V?$allocator@PAVioBaseChar@@@std@@@std@@@std@@QBE_NABV01@@Z ENDP ; std::_Vector_const_iterator<std::_Vector_val<ioBaseChar *,std::allocator<ioBaseChar *> > >::operator==
_TEXT	ENDS
PUBLIC	?max_size@?$vector@PAVioBaseChar@@V?$allocator@PAVioBaseChar@@@std@@@std@@QBEIXZ ; std::vector<ioBaseChar *,std::allocator<ioBaseChar *> >::max_size
; Function compile flags: /Ogsp
;	COMDAT ?max_size@?$vector@PAVioBaseChar@@V?$allocator@PAVioBaseChar@@@std@@@std@@QBEIXZ
_TEXT	SEGMENT
?max_size@?$vector@PAVioBaseChar@@V?$allocator@PAVioBaseChar@@@std@@@std@@QBEIXZ PROC ; std::vector<ioBaseChar *,std::allocator<ioBaseChar *> >::max_size, COMDAT
; _this$ = ecx

; 884  : 		return (this->_Alval.max_size());

  00000	b8 ff ff ff 3f	 mov	 eax, 1073741823		; 3fffffffH

; 885  : 		}

  00005	c3		 ret	 0
?max_size@?$vector@PAVioBaseChar@@V?$allocator@PAVioBaseChar@@@std@@@std@@QBEIXZ ENDP ; std::vector<ioBaseChar *,std::allocator<ioBaseChar *> >::max_size
_TEXT	ENDS
PUBLIC	?_Grow_to@?$vector@PAVioBaseChar@@V?$allocator@PAVioBaseChar@@@std@@@std@@IBEII@Z ; std::vector<ioBaseChar *,std::allocator<ioBaseChar *> >::_Grow_to
; Function compile flags: /Ogsp
;	COMDAT ?_Grow_to@?$vector@PAVioBaseChar@@V?$allocator@PAVioBaseChar@@@std@@@std@@IBEII@Z
_TEXT	SEGMENT
__Count$ = 8						; size = 4
?_Grow_to@?$vector@PAVioBaseChar@@V?$allocator@PAVioBaseChar@@@std@@@std@@IBEII@Z PROC ; std::vector<ioBaseChar *,std::allocator<ioBaseChar *> >::_Grow_to, COMDAT
; _this$ = ecx

; 1274 : 		{	// grow by 50% or at least to _Count

  00000	55		 push	 ebp
  00001	8b ec		 mov	 ebp, esp

; 1275 : 		size_type _Capacity = capacity();

  00003	8b 41 08	 mov	 eax, DWORD PTR [ecx+8]
  00006	2b 01		 sub	 eax, DWORD PTR [ecx]

; 1276 : 
; 1277 : 		_Capacity = max_size() - _Capacity / 2 < _Capacity
; 1278 : 			? 0 : _Capacity + _Capacity / 2;	// try to grow by 50%

  00008	ba ff ff ff 3f	 mov	 edx, 1073741823		; 3fffffffH
  0000d	c1 f8 02	 sar	 eax, 2
  00010	8b c8		 mov	 ecx, eax
  00012	d1 e9		 shr	 ecx, 1
  00014	2b d1		 sub	 edx, ecx
  00016	3b d0		 cmp	 edx, eax
  00018	73 04		 jae	 SHORT $LN4@Grow_to
  0001a	33 c0		 xor	 eax, eax
  0001c	eb 02		 jmp	 SHORT $LN5@Grow_to
$LN4@Grow_to:
  0001e	03 c1		 add	 eax, ecx
$LN5@Grow_to:

; 1279 : 		if (_Capacity < _Count)

  00020	3b 45 08	 cmp	 eax, DWORD PTR __Count$[ebp]

; 1280 : 			_Capacity = _Count;

  00023	0f 42 45 08	 cmovb	 eax, DWORD PTR __Count$[ebp]

; 1281 : 		return (_Capacity);
; 1282 : 		}

  00027	5d		 pop	 ebp
  00028	c2 04 00	 ret	 4
?_Grow_to@?$vector@PAVioBaseChar@@V?$allocator@PAVioBaseChar@@@std@@@std@@IBEII@Z ENDP ; std::vector<ioBaseChar *,std::allocator<ioBaseChar *> >::_Grow_to
_TEXT	ENDS
PUBLIC	?_Make_iter@?$vector@UCallBuff@@V?$allocator@UCallBuff@@@std@@@std@@QBE?AV?$_Vector_iterator@V?$_Vector_val@UCallBuff@@V?$allocator@UCallBuff@@@std@@@std@@@2@V?$_Vector_const_iterator@V?$_Vector_val@UCallBuff@@V?$allocator@UCallBuff@@@std@@@std@@@2@@Z ; std::vector<CallBuff,std::allocator<CallBuff> >::_Make_iter
; Function compile flags: /Ogsp
;	COMDAT ?_Make_iter@?$vector@UCallBuff@@V?$allocator@UCallBuff@@@std@@@std@@QBE?AV?$_Vector_iterator@V?$_Vector_val@UCallBuff@@V?$allocator@UCallBuff@@@std@@@std@@@2@V?$_Vector_const_iterator@V?$_Vector_val@UCallBuff@@V?$allocator@UCallBuff@@@std@@@std@@@2@@Z
_TEXT	SEGMENT
___$ReturnUdt$ = 8					; size = 4
__Where$ = 12						; size = 4
?_Make_iter@?$vector@UCallBuff@@V?$allocator@UCallBuff@@@std@@@std@@QBE?AV?$_Vector_iterator@V?$_Vector_val@UCallBuff@@V?$allocator@UCallBuff@@@std@@@std@@@2@V?$_Vector_const_iterator@V?$_Vector_val@UCallBuff@@V?$allocator@UCallBuff@@@std@@@std@@@2@@Z PROC ; std::vector<CallBuff,std::allocator<CallBuff> >::_Make_iter, COMDAT
; _this$ = ecx

; 801  : 		{	// make iterator from const_iterator

  00000	55		 push	 ebp
  00001	8b ec		 mov	 ebp, esp

; 802  : 		return (iterator(_Where._Ptr, this));

  00003	8b 45 08	 mov	 eax, DWORD PTR ___$ReturnUdt$[ebp]
  00006	8b 4d 0c	 mov	 ecx, DWORD PTR __Where$[ebp]
  00009	89 08		 mov	 DWORD PTR [eax], ecx

; 803  : 		}

  0000b	5d		 pop	 ebp
  0000c	c2 08 00	 ret	 8
?_Make_iter@?$vector@UCallBuff@@V?$allocator@UCallBuff@@@std@@@std@@QBE?AV?$_Vector_iterator@V?$_Vector_val@UCallBuff@@V?$allocator@UCallBuff@@@std@@@std@@@2@V?$_Vector_const_iterator@V?$_Vector_val@UCallBuff@@V?$allocator@UCallBuff@@@std@@@std@@@2@@Z ENDP ; std::vector<CallBuff,std::allocator<CallBuff> >::_Make_iter
_TEXT	ENDS
PUBLIC	?_Grow_to@?$vector@UCallBuff@@V?$allocator@UCallBuff@@@std@@@std@@IBEII@Z ; std::vector<CallBuff,std::allocator<CallBuff> >::_Grow_to
; Function compile flags: /Ogsp
;	COMDAT ?_Grow_to@?$vector@UCallBuff@@V?$allocator@UCallBuff@@@std@@@std@@IBEII@Z
_TEXT	SEGMENT
__Count$ = 8						; size = 4
?_Grow_to@?$vector@UCallBuff@@V?$allocator@UCallBuff@@@std@@@std@@IBEII@Z PROC ; std::vector<CallBuff,std::allocator<CallBuff> >::_Grow_to, COMDAT
; _this$ = ecx

; 1274 : 		{	// grow by 50% or at least to _Count

  00000	55		 push	 ebp
  00001	8b ec		 mov	 ebp, esp

; 1275 : 		size_type _Capacity = capacity();

  00003	8b 41 08	 mov	 eax, DWORD PTR [ecx+8]
  00006	2b 01		 sub	 eax, DWORD PTR [ecx]
  00008	6a 14		 push	 20			; 00000014H
  0000a	99		 cdq
  0000b	59		 pop	 ecx
  0000c	f7 f9		 idiv	 ecx

; 1276 : 
; 1277 : 		_Capacity = max_size() - _Capacity / 2 < _Capacity
; 1278 : 			? 0 : _Capacity + _Capacity / 2;	// try to grow by 50%

  0000e	ba cc cc cc 0c	 mov	 edx, 214748364		; 0cccccccH
  00013	8b c8		 mov	 ecx, eax
  00015	d1 e9		 shr	 ecx, 1
  00017	2b d1		 sub	 edx, ecx
  00019	3b d0		 cmp	 edx, eax
  0001b	73 04		 jae	 SHORT $LN4@Grow_to@2
  0001d	33 c0		 xor	 eax, eax
  0001f	eb 02		 jmp	 SHORT $LN5@Grow_to@2
$LN4@Grow_to@2:
  00021	03 c1		 add	 eax, ecx
$LN5@Grow_to@2:

; 1279 : 		if (_Capacity < _Count)

  00023	3b 45 08	 cmp	 eax, DWORD PTR __Count$[ebp]

; 1280 : 			_Capacity = _Count;

  00026	0f 42 45 08	 cmovb	 eax, DWORD PTR __Count$[ebp]

; 1281 : 		return (_Capacity);
; 1282 : 		}

  0002a	5d		 pop	 ebp
  0002b	c2 04 00	 ret	 4
?_Grow_to@?$vector@UCallBuff@@V?$allocator@UCallBuff@@@std@@@std@@IBEII@Z ENDP ; std::vector<CallBuff,std::allocator<CallBuff> >::_Grow_to
_TEXT	ENDS
PUBLIC	?allocate@?$allocator@PAVioBaseChar@@@std@@QAEPAPAVioBaseChar@@I@Z ; std::allocator<ioBaseChar *>::allocate
; Function compile flags: /Ogsp
; File c:\program files (x86)\microsoft visual studio 10.0\vc\include\xmemory
;	COMDAT ?allocate@?$allocator@PAVioBaseChar@@@std@@QAEPAPAVioBaseChar@@I@Z
_TEXT	SEGMENT
__Count$ = 8						; size = 4
?allocate@?$allocator@PAVioBaseChar@@@std@@QAEPAPAVioBaseChar@@I@Z PROC ; std::allocator<ioBaseChar *>::allocate, COMDAT
; _this$ = ecx

; 186  : 		{	// allocate array of _Count elements

  00000	55		 push	 ebp
  00001	8b ec		 mov	 ebp, esp

; 187  : 		return (_Allocate(_Count, (pointer)0));

  00003	6a 00		 push	 0
  00005	ff 75 08	 push	 DWORD PTR __Count$[ebp]
  00008	e8 00 00 00 00	 call	 ??$_Allocate@PAVioBaseChar@@@std@@YAPAPAVioBaseChar@@IPAPAV1@@Z ; std::_Allocate<ioBaseChar *>
  0000d	59		 pop	 ecx
  0000e	59		 pop	 ecx

; 188  : 		}

  0000f	5d		 pop	 ebp
  00010	c2 04 00	 ret	 4
?allocate@?$allocator@PAVioBaseChar@@@std@@QAEPAPAVioBaseChar@@I@Z ENDP ; std::allocator<ioBaseChar *>::allocate
_TEXT	ENDS
PUBLIC	__$ArrayPad$
PUBLIC	??$LoadBool_e@$0BD@@ioINILoader@@QAE_NAAY0BD@$$CBD_N@Z ; ioINILoader::LoadBool_e<19>
EXTRN	__imp_?LoadBool@ioINILoader@@QAE_NPBD_N@Z:PROC
EXTRN	___security_cookie:DWORD
; Function compile flags: /Ogsp
; File d:\lost saga for developer\youtube\tutorial\source\src\io3dengine\ioiniloader.h
;	COMDAT ??$LoadBool_e@$0BD@@ioINILoader@@QAE_NAAY0BD@$$CBD_N@Z
_TEXT	SEGMENT
__k$ = -28						; size = 19
__$ArrayPad$ = -4					; size = 4
_k$ = 8							; size = 4
_b$ = 12						; size = 1
??$LoadBool_e@$0BD@@ioINILoader@@QAE_NAAY0BD@$$CBD_N@Z PROC ; ioINILoader::LoadBool_e<19>, COMDAT
; _this$ = ecx

; 101  : 	{

  00000	55		 push	 ebp
  00001	8b ec		 mov	 ebp, esp
  00003	83 ec 1c	 sub	 esp, 28			; 0000001cH
  00006	a1 00 00 00 00	 mov	 eax, DWORD PTR ___security_cookie
  0000b	33 c5		 xor	 eax, ebp
  0000d	89 45 fc	 mov	 DWORD PTR __$ArrayPad$[ebp], eax
  00010	8b 45 08	 mov	 eax, DWORD PTR _k$[ebp]

; 102  : 		_ENCSTR(k, _k);

  00013	8a 10		 mov	 dl, BYTE PTR [eax]
  00015	56		 push	 esi
  00016	8b f1		 mov	 esi, ecx
  00018	84 d2		 test	 dl, dl
  0001a	0f 84 cf 01 00
	00		 je	 $LN96@LoadBool_e
  00020	80 f2 ed	 xor	 dl, -19			; ffffffedH
  00023	88 55 e4	 mov	 BYTE PTR __k$[ebp], dl
  00026	8a 50 01	 mov	 dl, BYTE PTR [eax+1]
  00029	84 d2		 test	 dl, dl
  0002b	0f 84 b8 01 00
	00		 je	 $LN95@LoadBool_e
  00031	b1 ec		 mov	 cl, -20			; ffffffecH
  00033	32 d1		 xor	 dl, cl
  00035	88 55 e5	 mov	 BYTE PTR __k$[ebp+1], dl
  00038	8a 50 02	 mov	 dl, BYTE PTR [eax+2]
  0003b	84 d2		 test	 dl, dl
  0003d	0f 84 a0 01 00
	00		 je	 $LN94@LoadBool_e
  00043	80 f2 eb	 xor	 dl, -21			; ffffffebH
  00046	88 55 e6	 mov	 BYTE PTR __k$[ebp+2], dl
  00049	8a 50 03	 mov	 dl, BYTE PTR [eax+3]
  0004c	84 d2		 test	 dl, dl
  0004e	0f 84 89 01 00
	00		 je	 $LN93@LoadBool_e
  00054	80 f2 ea	 xor	 dl, -22			; ffffffeaH
  00057	88 55 e7	 mov	 BYTE PTR __k$[ebp+3], dl
  0005a	8a 50 04	 mov	 dl, BYTE PTR [eax+4]
  0005d	84 d2		 test	 dl, dl
  0005f	0f 84 72 01 00
	00		 je	 $LN92@LoadBool_e
  00065	80 f2 ed	 xor	 dl, -19			; ffffffedH
  00068	88 55 e8	 mov	 BYTE PTR __k$[ebp+4], dl
  0006b	8a 50 05	 mov	 dl, BYTE PTR [eax+5]
  0006e	84 d2		 test	 dl, dl
  00070	0f 84 5c 01 00
	00		 je	 $LN91@LoadBool_e
  00076	32 d1		 xor	 dl, cl
  00078	88 55 e9	 mov	 BYTE PTR __k$[ebp+5], dl
  0007b	8a 50 06	 mov	 dl, BYTE PTR [eax+6]
  0007e	84 d2		 test	 dl, dl
  00080	0f 84 46 01 00
	00		 je	 $LN90@LoadBool_e
  00086	80 f2 eb	 xor	 dl, -21			; ffffffebH
  00089	88 55 ea	 mov	 BYTE PTR __k$[ebp+6], dl
  0008c	8a 50 07	 mov	 dl, BYTE PTR [eax+7]
  0008f	84 d2		 test	 dl, dl
  00091	0f 84 2f 01 00
	00		 je	 $LN89@LoadBool_e
  00097	80 f2 ea	 xor	 dl, -22			; ffffffeaH
  0009a	88 55 eb	 mov	 BYTE PTR __k$[ebp+7], dl
  0009d	8a 50 08	 mov	 dl, BYTE PTR [eax+8]
  000a0	84 d2		 test	 dl, dl
  000a2	0f 84 18 01 00
	00		 je	 $LN88@LoadBool_e
  000a8	80 f2 ed	 xor	 dl, -19			; ffffffedH
  000ab	88 55 ec	 mov	 BYTE PTR __k$[ebp+8], dl
  000ae	8a 50 09	 mov	 dl, BYTE PTR [eax+9]
  000b1	84 d2		 test	 dl, dl
  000b3	0f 84 02 01 00
	00		 je	 $LN87@LoadBool_e
  000b9	32 d1		 xor	 dl, cl
  000bb	88 55 ed	 mov	 BYTE PTR __k$[ebp+9], dl
  000be	8a 50 0a	 mov	 dl, BYTE PTR [eax+10]
  000c1	84 d2		 test	 dl, dl
  000c3	0f 84 ec 00 00
	00		 je	 $LN86@LoadBool_e
  000c9	80 f2 eb	 xor	 dl, -21			; ffffffebH
  000cc	88 55 ee	 mov	 BYTE PTR __k$[ebp+10], dl
  000cf	8a 50 0b	 mov	 dl, BYTE PTR [eax+11]
  000d2	84 d2		 test	 dl, dl
  000d4	0f 84 d5 00 00
	00		 je	 $LN85@LoadBool_e
  000da	80 f2 ea	 xor	 dl, -22			; ffffffeaH
  000dd	88 55 ef	 mov	 BYTE PTR __k$[ebp+11], dl
  000e0	8a 50 0c	 mov	 dl, BYTE PTR [eax+12]
  000e3	84 d2		 test	 dl, dl
  000e5	0f 84 be 00 00
	00		 je	 $LN84@LoadBool_e
  000eb	80 f2 ed	 xor	 dl, -19			; ffffffedH
  000ee	88 55 f0	 mov	 BYTE PTR __k$[ebp+12], dl
  000f1	8a 50 0d	 mov	 dl, BYTE PTR [eax+13]
  000f4	84 d2		 test	 dl, dl
  000f6	0f 84 a8 00 00
	00		 je	 $LN83@LoadBool_e
  000fc	32 d1		 xor	 dl, cl
  000fe	88 55 f1	 mov	 BYTE PTR __k$[ebp+13], dl
  00101	8a 50 0e	 mov	 dl, BYTE PTR [eax+14]
  00104	84 d2		 test	 dl, dl
  00106	0f 84 92 00 00
	00		 je	 $LN82@LoadBool_e
  0010c	80 f2 eb	 xor	 dl, -21			; ffffffebH
  0010f	88 55 f2	 mov	 BYTE PTR __k$[ebp+14], dl
  00112	8a 50 0f	 mov	 dl, BYTE PTR [eax+15]
  00115	84 d2		 test	 dl, dl
  00117	74 7f		 je	 SHORT $LN81@LoadBool_e
  00119	80 f2 ea	 xor	 dl, -22			; ffffffeaH
  0011c	88 55 f3	 mov	 BYTE PTR __k$[ebp+15], dl
  0011f	8a 50 10	 mov	 dl, BYTE PTR [eax+16]
  00122	84 d2		 test	 dl, dl
  00124	74 6c		 je	 SHORT $LN80@LoadBool_e
  00126	80 f2 ed	 xor	 dl, -19			; ffffffedH
  00129	88 55 f4	 mov	 BYTE PTR __k$[ebp+16], dl
  0012c	8a 50 11	 mov	 dl, BYTE PTR [eax+17]
  0012f	84 d2		 test	 dl, dl
  00131	74 5a		 je	 SHORT $LN79@LoadBool_e
  00133	32 d1		 xor	 dl, cl
  00135	80 78 12 00	 cmp	 BYTE PTR [eax+18], 0
  00139	88 55 f5	 mov	 BYTE PTR __k$[ebp+17], dl
  0013c	0f 84 b1 00 00
	00		 je	 $LN1@LoadBool_e
  00142	8a 50 13	 mov	 dl, BYTE PTR [eax+19]
  00145	84 d2		 test	 dl, dl
  00147	74 3e		 je	 SHORT $LN77@LoadBool_e
  00149	80 f2 ea	 xor	 dl, -22			; ffffffeaH
  0014c	88 55 f7	 mov	 BYTE PTR __k$[ebp+19], dl
  0014f	8a 50 14	 mov	 dl, BYTE PTR [eax+20]
  00152	84 d2		 test	 dl, dl
  00154	74 2b		 je	 SHORT $LN76@LoadBool_e
  00156	80 f2 ed	 xor	 dl, -19			; ffffffedH
  00159	88 55 f8	 mov	 BYTE PTR __k$[ebp+20], dl
  0015c	8a 50 15	 mov	 dl, BYTE PTR [eax+21]
  0015f	84 d2		 test	 dl, dl
  00161	74 19		 je	 SHORT $LN75@LoadBool_e
  00163	8a 40 16	 mov	 al, BYTE PTR [eax+22]
  00166	32 d1		 xor	 dl, cl
  00168	88 55 f9	 mov	 BYTE PTR __k$[ebp+21], dl
  0016b	84 c0		 test	 al, al
  0016d	74 07		 je	 SHORT $LN74@LoadBool_e
  0016f	34 eb		 xor	 al, -21			; ffffffebH
  00171	88 45 fa	 mov	 BYTE PTR __k$[ebp+22], al
  00174	eb 7d		 jmp	 SHORT $LN1@LoadBool_e
$LN74@LoadBool_e:
  00176	c6 45 fa eb	 mov	 BYTE PTR __k$[ebp+22], -21 ; ffffffebH
  0017a	eb 77		 jmp	 SHORT $LN1@LoadBool_e
$LN75@LoadBool_e:
  0017c	88 4d f9	 mov	 BYTE PTR __k$[ebp+21], cl
  0017f	eb 72		 jmp	 SHORT $LN1@LoadBool_e
$LN76@LoadBool_e:
  00181	c6 45 f8 ed	 mov	 BYTE PTR __k$[ebp+20], -19 ; ffffffedH
  00185	eb 6c		 jmp	 SHORT $LN1@LoadBool_e
$LN77@LoadBool_e:
  00187	c6 45 f7 ea	 mov	 BYTE PTR __k$[ebp+19], -22 ; ffffffeaH
  0018b	eb 66		 jmp	 SHORT $LN1@LoadBool_e
$LN79@LoadBool_e:
  0018d	88 4d f5	 mov	 BYTE PTR __k$[ebp+17], cl
  00190	eb 61		 jmp	 SHORT $LN1@LoadBool_e
$LN80@LoadBool_e:
  00192	c6 45 f4 ed	 mov	 BYTE PTR __k$[ebp+16], -19 ; ffffffedH
  00196	eb 5b		 jmp	 SHORT $LN1@LoadBool_e
$LN81@LoadBool_e:
  00198	c6 45 f3 ea	 mov	 BYTE PTR __k$[ebp+15], -22 ; ffffffeaH
  0019c	eb 55		 jmp	 SHORT $LN1@LoadBool_e
$LN82@LoadBool_e:
  0019e	c6 45 f2 eb	 mov	 BYTE PTR __k$[ebp+14], -21 ; ffffffebH
  001a2	eb 4f		 jmp	 SHORT $LN1@LoadBool_e
$LN83@LoadBool_e:
  001a4	88 4d f1	 mov	 BYTE PTR __k$[ebp+13], cl
  001a7	eb 4a		 jmp	 SHORT $LN1@LoadBool_e
$LN84@LoadBool_e:
  001a9	c6 45 f0 ed	 mov	 BYTE PTR __k$[ebp+12], -19 ; ffffffedH
  001ad	eb 44		 jmp	 SHORT $LN1@LoadBool_e
$LN85@LoadBool_e:
  001af	c6 45 ef ea	 mov	 BYTE PTR __k$[ebp+11], -22 ; ffffffeaH
  001b3	eb 3e		 jmp	 SHORT $LN1@LoadBool_e
$LN86@LoadBool_e:
  001b5	c6 45 ee eb	 mov	 BYTE PTR __k$[ebp+10], -21 ; ffffffebH
  001b9	eb 38		 jmp	 SHORT $LN1@LoadBool_e
$LN87@LoadBool_e:
  001bb	88 4d ed	 mov	 BYTE PTR __k$[ebp+9], cl
  001be	eb 33		 jmp	 SHORT $LN1@LoadBool_e
$LN88@LoadBool_e:
  001c0	c6 45 ec ed	 mov	 BYTE PTR __k$[ebp+8], -19 ; ffffffedH
  001c4	eb 2d		 jmp	 SHORT $LN1@LoadBool_e
$LN89@LoadBool_e:
  001c6	c6 45 eb ea	 mov	 BYTE PTR __k$[ebp+7], -22 ; ffffffeaH
  001ca	eb 27		 jmp	 SHORT $LN1@LoadBool_e
$LN90@LoadBool_e:
  001cc	c6 45 ea eb	 mov	 BYTE PTR __k$[ebp+6], -21 ; ffffffebH
  001d0	eb 21		 jmp	 SHORT $LN1@LoadBool_e
$LN91@LoadBool_e:
  001d2	88 4d e9	 mov	 BYTE PTR __k$[ebp+5], cl
  001d5	eb 1c		 jmp	 SHORT $LN1@LoadBool_e
$LN92@LoadBool_e:
  001d7	c6 45 e8 ed	 mov	 BYTE PTR __k$[ebp+4], -19 ; ffffffedH
  001db	eb 16		 jmp	 SHORT $LN1@LoadBool_e
$LN93@LoadBool_e:
  001dd	c6 45 e7 ea	 mov	 BYTE PTR __k$[ebp+3], -22 ; ffffffeaH
  001e1	eb 10		 jmp	 SHORT $LN1@LoadBool_e
$LN94@LoadBool_e:
  001e3	c6 45 e6 eb	 mov	 BYTE PTR __k$[ebp+2], -21 ; ffffffebH
  001e7	eb 0a		 jmp	 SHORT $LN1@LoadBool_e
$LN95@LoadBool_e:
  001e9	c6 45 e5 ec	 mov	 BYTE PTR __k$[ebp+1], -20 ; ffffffecH
  001ed	eb 04		 jmp	 SHORT $LN1@LoadBool_e
$LN96@LoadBool_e:
  001ef	c6 45 e4 ed	 mov	 BYTE PTR __k$[ebp], -19	; ffffffedH
$LN1@LoadBool_e:
  001f3	6a 04		 push	 4
  001f5	8d 45 e4	 lea	 eax, DWORD PTR __k$[ebp]
  001f8	c6 45 f6 00	 mov	 BYTE PTR __k$[ebp+18], 0
  001fc	5a		 pop	 edx
$LL104@LoadBool_e:
  001fd	81 30 ed ec eb
	ea		 xor	 DWORD PTR [eax], -353637139 ; eaebecedH
  00203	83 c0 04	 add	 eax, 4
  00206	4a		 dec	 edx
  00207	75 f4		 jne	 SHORT $LL104@LoadBool_e
  00209	6a 10		 push	 16			; 00000010H
  0020b	58		 pop	 eax
$LL101@LoadBool_e:
  0020c	8b c8		 mov	 ecx, eax
  0020e	81 e1 03 00 00
	80		 and	 ecx, -2147483645	; 80000003H
  00214	79 05		 jns	 SHORT $LN111@LoadBool_e
  00216	49		 dec	 ecx
  00217	83 c9 fc	 or	 ecx, -4			; fffffffcH
  0021a	41		 inc	 ecx
$LN111@LoadBool_e:
  0021b	b2 ed		 mov	 dl, -19			; ffffffedH
  0021d	2a d1		 sub	 dl, cl
  0021f	30 54 05 e4	 xor	 BYTE PTR __k$[ebp+eax], dl
  00223	40		 inc	 eax
  00224	83 f8 12	 cmp	 eax, 18			; 00000012H
  00227	7c e3		 jl	 SHORT $LL101@LoadBool_e

; 103  : 		return LoadBool(_k, b);

  00229	ff 75 0c	 push	 DWORD PTR _b$[ebp]
  0022c	8d 45 e4	 lea	 eax, DWORD PTR __k$[ebp]
  0022f	50		 push	 eax
  00230	8b ce		 mov	 ecx, esi
  00232	ff 15 00 00 00
	00		 call	 DWORD PTR __imp_?LoadBool@ioINILoader@@QAE_NPBD_N@Z

; 104  : 	}

  00238	8b 4d fc	 mov	 ecx, DWORD PTR __$ArrayPad$[ebp]
  0023b	33 cd		 xor	 ecx, ebp
  0023d	5e		 pop	 esi
  0023e	e8 00 00 00 00	 call	 @__security_check_cookie@4
  00243	c9		 leave
  00244	c2 08 00	 ret	 8
??$LoadBool_e@$0BD@@ioINILoader@@QAE_NAAY0BD@$$CBD_N@Z ENDP ; ioINILoader::LoadBool_e<19>
_TEXT	ENDS
PUBLIC	__$ArrayPad$
PUBLIC	??$LoadFloat_e@$0BA@@ioINILoader@@QAEMAAY0BA@$$CBDM@Z ; ioINILoader::LoadFloat_e<16>
EXTRN	__imp_?LoadFloat@ioINILoader@@QAEMPBDM@Z:PROC
; Function compile flags: /Ogsp
;	COMDAT ??$LoadFloat_e@$0BA@@ioINILoader@@QAEMAAY0BA@$$CBDM@Z
_TEXT	SEGMENT
__k$ = -24						; size = 16
__$ArrayPad$ = -4					; size = 4
_k$ = 8							; size = 4
_f$ = 12						; size = 4
??$LoadFloat_e@$0BA@@ioINILoader@@QAEMAAY0BA@$$CBDM@Z PROC ; ioINILoader::LoadFloat_e<16>, COMDAT
; _this$ = ecx

; 135  : 	{

  00000	55		 push	 ebp
  00001	8b ec		 mov	 ebp, esp
  00003	83 ec 18	 sub	 esp, 24			; 00000018H
  00006	a1 00 00 00 00	 mov	 eax, DWORD PTR ___security_cookie
  0000b	33 c5		 xor	 eax, ebp
  0000d	89 45 fc	 mov	 DWORD PTR __$ArrayPad$[ebp], eax
  00010	8b 45 08	 mov	 eax, DWORD PTR _k$[ebp]

; 136  : 		_ENCSTR(k, _k);

  00013	8a 10		 mov	 dl, BYTE PTR [eax]
  00015	56		 push	 esi
  00016	8b f1		 mov	 esi, ecx
  00018	84 d2		 test	 dl, dl
  0001a	0f 84 8c 01 00
	00		 je	 $LN96@LoadFloat_
  00020	80 f2 ed	 xor	 dl, -19			; ffffffedH
  00023	88 55 e8	 mov	 BYTE PTR __k$[ebp], dl
  00026	8a 50 01	 mov	 dl, BYTE PTR [eax+1]
  00029	84 d2		 test	 dl, dl
  0002b	0f 84 75 01 00
	00		 je	 $LN95@LoadFloat_
  00031	80 f2 ec	 xor	 dl, -20			; ffffffecH
  00034	88 55 e9	 mov	 BYTE PTR __k$[ebp+1], dl
  00037	8a 50 02	 mov	 dl, BYTE PTR [eax+2]
  0003a	84 d2		 test	 dl, dl
  0003c	0f 84 5e 01 00
	00		 je	 $LN94@LoadFloat_
  00042	b1 eb		 mov	 cl, -21			; ffffffebH
  00044	32 d1		 xor	 dl, cl
  00046	88 55 ea	 mov	 BYTE PTR __k$[ebp+2], dl
  00049	8a 50 03	 mov	 dl, BYTE PTR [eax+3]
  0004c	84 d2		 test	 dl, dl
  0004e	0f 84 46 01 00
	00		 je	 $LN93@LoadFloat_
  00054	80 f2 ea	 xor	 dl, -22			; ffffffeaH
  00057	88 55 eb	 mov	 BYTE PTR __k$[ebp+3], dl
  0005a	8a 50 04	 mov	 dl, BYTE PTR [eax+4]
  0005d	84 d2		 test	 dl, dl
  0005f	0f 84 2f 01 00
	00		 je	 $LN92@LoadFloat_
  00065	80 f2 ed	 xor	 dl, -19			; ffffffedH
  00068	88 55 ec	 mov	 BYTE PTR __k$[ebp+4], dl
  0006b	8a 50 05	 mov	 dl, BYTE PTR [eax+5]
  0006e	84 d2		 test	 dl, dl
  00070	0f 84 18 01 00
	00		 je	 $LN91@LoadFloat_
  00076	80 f2 ec	 xor	 dl, -20			; ffffffecH
  00079	88 55 ed	 mov	 BYTE PTR __k$[ebp+5], dl
  0007c	8a 50 06	 mov	 dl, BYTE PTR [eax+6]
  0007f	84 d2		 test	 dl, dl
  00081	0f 84 02 01 00
	00		 je	 $LN90@LoadFloat_
  00087	32 d1		 xor	 dl, cl
  00089	88 55 ee	 mov	 BYTE PTR __k$[ebp+6], dl
  0008c	8a 50 07	 mov	 dl, BYTE PTR [eax+7]
  0008f	84 d2		 test	 dl, dl
  00091	0f 84 ec 00 00
	00		 je	 $LN89@LoadFloat_
  00097	80 f2 ea	 xor	 dl, -22			; ffffffeaH
  0009a	88 55 ef	 mov	 BYTE PTR __k$[ebp+7], dl
  0009d	8a 50 08	 mov	 dl, BYTE PTR [eax+8]
  000a0	84 d2		 test	 dl, dl
  000a2	0f 84 d5 00 00
	00		 je	 $LN88@LoadFloat_
  000a8	80 f2 ed	 xor	 dl, -19			; ffffffedH
  000ab	88 55 f0	 mov	 BYTE PTR __k$[ebp+8], dl
  000ae	8a 50 09	 mov	 dl, BYTE PTR [eax+9]
  000b1	84 d2		 test	 dl, dl
  000b3	0f 84 be 00 00
	00		 je	 $LN87@LoadFloat_
  000b9	80 f2 ec	 xor	 dl, -20			; ffffffecH
  000bc	88 55 f1	 mov	 BYTE PTR __k$[ebp+9], dl
  000bf	8a 50 0a	 mov	 dl, BYTE PTR [eax+10]
  000c2	84 d2		 test	 dl, dl
  000c4	0f 84 a8 00 00
	00		 je	 $LN86@LoadFloat_
  000ca	32 d1		 xor	 dl, cl
  000cc	88 55 f2	 mov	 BYTE PTR __k$[ebp+10], dl
  000cf	8a 50 0b	 mov	 dl, BYTE PTR [eax+11]
  000d2	84 d2		 test	 dl, dl
  000d4	0f 84 92 00 00
	00		 je	 $LN85@LoadFloat_
  000da	80 f2 ea	 xor	 dl, -22			; ffffffeaH
  000dd	88 55 f3	 mov	 BYTE PTR __k$[ebp+11], dl
  000e0	8a 50 0c	 mov	 dl, BYTE PTR [eax+12]
  000e3	84 d2		 test	 dl, dl
  000e5	74 7f		 je	 SHORT $LN84@LoadFloat_
  000e7	80 f2 ed	 xor	 dl, -19			; ffffffedH
  000ea	88 55 f4	 mov	 BYTE PTR __k$[ebp+12], dl
  000ed	8a 50 0d	 mov	 dl, BYTE PTR [eax+13]
  000f0	84 d2		 test	 dl, dl
  000f2	74 6c		 je	 SHORT $LN83@LoadFloat_
  000f4	80 f2 ec	 xor	 dl, -20			; ffffffecH
  000f7	88 55 f5	 mov	 BYTE PTR __k$[ebp+13], dl
  000fa	8a 50 0e	 mov	 dl, BYTE PTR [eax+14]
  000fd	84 d2		 test	 dl, dl
  000ff	74 5a		 je	 SHORT $LN82@LoadFloat_
  00101	32 d1		 xor	 dl, cl
  00103	80 78 0f 00	 cmp	 BYTE PTR [eax+15], 0
  00107	88 55 f6	 mov	 BYTE PTR __k$[ebp+14], dl
  0010a	0f 84 a0 00 00
	00		 je	 $LN1@LoadFloat_
  00110	8a 50 10	 mov	 dl, BYTE PTR [eax+16]
  00113	84 d2		 test	 dl, dl
  00115	74 3e		 je	 SHORT $LN80@LoadFloat_
  00117	80 f2 ed	 xor	 dl, -19			; ffffffedH
  0011a	88 55 f8	 mov	 BYTE PTR __k$[ebp+16], dl
  0011d	8a 50 11	 mov	 dl, BYTE PTR [eax+17]
  00120	84 d2		 test	 dl, dl
  00122	74 2b		 je	 SHORT $LN79@LoadFloat_
  00124	80 f2 ec	 xor	 dl, -20			; ffffffecH
  00127	88 55 f9	 mov	 BYTE PTR __k$[ebp+17], dl
  0012a	8a 50 12	 mov	 dl, BYTE PTR [eax+18]
  0012d	84 d2		 test	 dl, dl
  0012f	74 19		 je	 SHORT $LN78@LoadFloat_
  00131	8a 40 13	 mov	 al, BYTE PTR [eax+19]
  00134	32 d1		 xor	 dl, cl
  00136	88 55 fa	 mov	 BYTE PTR __k$[ebp+18], dl
  00139	84 c0		 test	 al, al
  0013b	74 07		 je	 SHORT $LN77@LoadFloat_
  0013d	34 ea		 xor	 al, -22			; ffffffeaH
  0013f	88 45 fb	 mov	 BYTE PTR __k$[ebp+19], al
  00142	eb 6c		 jmp	 SHORT $LN1@LoadFloat_
$LN77@LoadFloat_:
  00144	c6 45 fb ea	 mov	 BYTE PTR __k$[ebp+19], -22 ; ffffffeaH
  00148	eb 66		 jmp	 SHORT $LN1@LoadFloat_
$LN78@LoadFloat_:
  0014a	88 4d fa	 mov	 BYTE PTR __k$[ebp+18], cl
  0014d	eb 61		 jmp	 SHORT $LN1@LoadFloat_
$LN79@LoadFloat_:
  0014f	c6 45 f9 ec	 mov	 BYTE PTR __k$[ebp+17], -20 ; ffffffecH
  00153	eb 5b		 jmp	 SHORT $LN1@LoadFloat_
$LN80@LoadFloat_:
  00155	c6 45 f8 ed	 mov	 BYTE PTR __k$[ebp+16], -19 ; ffffffedH
  00159	eb 55		 jmp	 SHORT $LN1@LoadFloat_
$LN82@LoadFloat_:
  0015b	88 4d f6	 mov	 BYTE PTR __k$[ebp+14], cl
  0015e	eb 50		 jmp	 SHORT $LN1@LoadFloat_
$LN83@LoadFloat_:
  00160	c6 45 f5 ec	 mov	 BYTE PTR __k$[ebp+13], -20 ; ffffffecH
  00164	eb 4a		 jmp	 SHORT $LN1@LoadFloat_
$LN84@LoadFloat_:
  00166	c6 45 f4 ed	 mov	 BYTE PTR __k$[ebp+12], -19 ; ffffffedH
  0016a	eb 44		 jmp	 SHORT $LN1@LoadFloat_
$LN85@LoadFloat_:
  0016c	c6 45 f3 ea	 mov	 BYTE PTR __k$[ebp+11], -22 ; ffffffeaH
  00170	eb 3e		 jmp	 SHORT $LN1@LoadFloat_
$LN86@LoadFloat_:
  00172	88 4d f2	 mov	 BYTE PTR __k$[ebp+10], cl
  00175	eb 39		 jmp	 SHORT $LN1@LoadFloat_
$LN87@LoadFloat_:
  00177	c6 45 f1 ec	 mov	 BYTE PTR __k$[ebp+9], -20 ; ffffffecH
  0017b	eb 33		 jmp	 SHORT $LN1@LoadFloat_
$LN88@LoadFloat_:
  0017d	c6 45 f0 ed	 mov	 BYTE PTR __k$[ebp+8], -19 ; ffffffedH
  00181	eb 2d		 jmp	 SHORT $LN1@LoadFloat_
$LN89@LoadFloat_:
  00183	c6 45 ef ea	 mov	 BYTE PTR __k$[ebp+7], -22 ; ffffffeaH
  00187	eb 27		 jmp	 SHORT $LN1@LoadFloat_
$LN90@LoadFloat_:
  00189	88 4d ee	 mov	 BYTE PTR __k$[ebp+6], cl
  0018c	eb 22		 jmp	 SHORT $LN1@LoadFloat_
$LN91@LoadFloat_:
  0018e	c6 45 ed ec	 mov	 BYTE PTR __k$[ebp+5], -20 ; ffffffecH
  00192	eb 1c		 jmp	 SHORT $LN1@LoadFloat_
$LN92@LoadFloat_:
  00194	c6 45 ec ed	 mov	 BYTE PTR __k$[ebp+4], -19 ; ffffffedH
  00198	eb 16		 jmp	 SHORT $LN1@LoadFloat_
$LN93@LoadFloat_:
  0019a	c6 45 eb ea	 mov	 BYTE PTR __k$[ebp+3], -22 ; ffffffeaH
  0019e	eb 10		 jmp	 SHORT $LN1@LoadFloat_
$LN94@LoadFloat_:
  001a0	c6 45 ea eb	 mov	 BYTE PTR __k$[ebp+2], -21 ; ffffffebH
  001a4	eb 0a		 jmp	 SHORT $LN1@LoadFloat_
$LN95@LoadFloat_:
  001a6	c6 45 e9 ec	 mov	 BYTE PTR __k$[ebp+1], -20 ; ffffffecH
  001aa	eb 04		 jmp	 SHORT $LN1@LoadFloat_
$LN96@LoadFloat_:
  001ac	c6 45 e8 ed	 mov	 BYTE PTR __k$[ebp], -19	; ffffffedH
$LN1@LoadFloat_:
  001b0	6a 03		 push	 3
  001b2	8d 45 e8	 lea	 eax, DWORD PTR __k$[ebp]
  001b5	c6 45 f7 00	 mov	 BYTE PTR __k$[ebp+15], 0
  001b9	5a		 pop	 edx
$LL104@LoadFloat_:
  001ba	81 30 ed ec eb
	ea		 xor	 DWORD PTR [eax], -353637139 ; eaebecedH
  001c0	83 c0 04	 add	 eax, 4
  001c3	4a		 dec	 edx
  001c4	75 f4		 jne	 SHORT $LL104@LoadFloat_
  001c6	6a 0c		 push	 12			; 0000000cH
  001c8	58		 pop	 eax
$LL101@LoadFloat_:
  001c9	8b c8		 mov	 ecx, eax
  001cb	81 e1 03 00 00
	80		 and	 ecx, -2147483645	; 80000003H
  001d1	79 05		 jns	 SHORT $LN111@LoadFloat_
  001d3	49		 dec	 ecx
  001d4	83 c9 fc	 or	 ecx, -4			; fffffffcH
  001d7	41		 inc	 ecx
$LN111@LoadFloat_:
  001d8	b2 ed		 mov	 dl, -19			; ffffffedH
  001da	2a d1		 sub	 dl, cl
  001dc	30 54 05 e8	 xor	 BYTE PTR __k$[ebp+eax], dl
  001e0	40		 inc	 eax
  001e1	83 f8 0f	 cmp	 eax, 15			; 0000000fH
  001e4	7c e3		 jl	 SHORT $LL101@LoadFloat_

; 137  : 		return LoadFloat(_k, f);

  001e6	f3 0f 10 45 0c	 movss	 xmm0, DWORD PTR _f$[ebp]
  001eb	51		 push	 ecx
  001ec	8d 45 e8	 lea	 eax, DWORD PTR __k$[ebp]
  001ef	f3 0f 11 04 24	 movss	 DWORD PTR [esp], xmm0
  001f4	50		 push	 eax
  001f5	8b ce		 mov	 ecx, esi
  001f7	ff 15 00 00 00
	00		 call	 DWORD PTR __imp_?LoadFloat@ioINILoader@@QAEMPBDM@Z

; 138  : 	}

  001fd	8b 4d fc	 mov	 ecx, DWORD PTR __$ArrayPad$[ebp]
  00200	33 cd		 xor	 ecx, ebp
  00202	5e		 pop	 esi
  00203	e8 00 00 00 00	 call	 @__security_check_cookie@4
  00208	c9		 leave
  00209	c2 08 00	 ret	 8
??$LoadFloat_e@$0BA@@ioINILoader@@QAEMAAY0BA@$$CBDM@Z ENDP ; ioINILoader::LoadFloat_e<16>
_TEXT	ENDS
PUBLIC	__$ArrayPad$
PUBLIC	??$LoadInt_e@$0BF@@ioINILoader@@QAEHAAY0BF@$$CBDH@Z ; ioINILoader::LoadInt_e<21>
EXTRN	__imp_?LoadInt@ioINILoader@@QAEHPBDH@Z:PROC
; Function compile flags: /Ogsp
;	COMDAT ??$LoadInt_e@$0BF@@ioINILoader@@QAEHAAY0BF@$$CBDH@Z
_TEXT	SEGMENT
__k$ = -32						; size = 21
__$ArrayPad$ = -4					; size = 4
_k$ = 8							; size = 4
_i$ = 12						; size = 4
??$LoadInt_e@$0BF@@ioINILoader@@QAEHAAY0BF@$$CBDH@Z PROC ; ioINILoader::LoadInt_e<21>, COMDAT
; _this$ = ecx

; 118  : 	{

  00000	55		 push	 ebp
  00001	8b ec		 mov	 ebp, esp
  00003	83 ec 20	 sub	 esp, 32			; 00000020H
  00006	a1 00 00 00 00	 mov	 eax, DWORD PTR ___security_cookie
  0000b	33 c5		 xor	 eax, ebp
  0000d	89 45 fc	 mov	 DWORD PTR __$ArrayPad$[ebp], eax
  00010	8b 45 08	 mov	 eax, DWORD PTR _k$[ebp]

; 119  : 		_ENCSTR(k, _k);

  00013	8a 10		 mov	 dl, BYTE PTR [eax]
  00015	53		 push	 ebx
  00016	56		 push	 esi
  00017	8b f1		 mov	 esi, ecx
  00019	84 d2		 test	 dl, dl
  0001b	0f 84 f7 01 00
	00		 je	 $LN96@LoadInt_e
  00021	80 f2 ed	 xor	 dl, -19			; ffffffedH
  00024	88 55 e0	 mov	 BYTE PTR __k$[ebp], dl
  00027	8a 50 01	 mov	 dl, BYTE PTR [eax+1]
  0002a	84 d2		 test	 dl, dl
  0002c	0f 84 e0 01 00
	00		 je	 $LN95@LoadInt_e
  00032	b1 ec		 mov	 cl, -20			; ffffffecH
  00034	32 d1		 xor	 dl, cl
  00036	88 55 e1	 mov	 BYTE PTR __k$[ebp+1], dl
  00039	8a 50 02	 mov	 dl, BYTE PTR [eax+2]
  0003c	84 d2		 test	 dl, dl
  0003e	0f 84 c8 01 00
	00		 je	 $LN94@LoadInt_e
  00044	b3 eb		 mov	 bl, -21			; ffffffebH
  00046	32 d3		 xor	 dl, bl
  00048	88 55 e2	 mov	 BYTE PTR __k$[ebp+2], dl
  0004b	8a 50 03	 mov	 dl, BYTE PTR [eax+3]
  0004e	84 d2		 test	 dl, dl
  00050	0f 84 b0 01 00
	00		 je	 $LN93@LoadInt_e
  00056	80 f2 ea	 xor	 dl, -22			; ffffffeaH
  00059	88 55 e3	 mov	 BYTE PTR __k$[ebp+3], dl
  0005c	8a 50 04	 mov	 dl, BYTE PTR [eax+4]
  0005f	84 d2		 test	 dl, dl
  00061	0f 84 99 01 00
	00		 je	 $LN92@LoadInt_e
  00067	80 f2 ed	 xor	 dl, -19			; ffffffedH
  0006a	88 55 e4	 mov	 BYTE PTR __k$[ebp+4], dl
  0006d	8a 50 05	 mov	 dl, BYTE PTR [eax+5]
  00070	84 d2		 test	 dl, dl
  00072	0f 84 83 01 00
	00		 je	 $LN91@LoadInt_e
  00078	32 d1		 xor	 dl, cl
  0007a	88 55 e5	 mov	 BYTE PTR __k$[ebp+5], dl
  0007d	8a 50 06	 mov	 dl, BYTE PTR [eax+6]
  00080	84 d2		 test	 dl, dl
  00082	0f 84 6e 01 00
	00		 je	 $LN90@LoadInt_e
  00088	32 d3		 xor	 dl, bl
  0008a	88 55 e6	 mov	 BYTE PTR __k$[ebp+6], dl
  0008d	8a 50 07	 mov	 dl, BYTE PTR [eax+7]
  00090	84 d2		 test	 dl, dl
  00092	0f 84 58 01 00
	00		 je	 $LN89@LoadInt_e
  00098	80 f2 ea	 xor	 dl, -22			; ffffffeaH
  0009b	88 55 e7	 mov	 BYTE PTR __k$[ebp+7], dl
  0009e	8a 50 08	 mov	 dl, BYTE PTR [eax+8]
  000a1	84 d2		 test	 dl, dl
  000a3	0f 84 41 01 00
	00		 je	 $LN88@LoadInt_e
  000a9	80 f2 ed	 xor	 dl, -19			; ffffffedH
  000ac	88 55 e8	 mov	 BYTE PTR __k$[ebp+8], dl
  000af	8a 50 09	 mov	 dl, BYTE PTR [eax+9]
  000b2	84 d2		 test	 dl, dl
  000b4	0f 84 2b 01 00
	00		 je	 $LN87@LoadInt_e
  000ba	32 d1		 xor	 dl, cl
  000bc	88 55 e9	 mov	 BYTE PTR __k$[ebp+9], dl
  000bf	8a 50 0a	 mov	 dl, BYTE PTR [eax+10]
  000c2	84 d2		 test	 dl, dl
  000c4	0f 84 16 01 00
	00		 je	 $LN86@LoadInt_e
  000ca	32 d3		 xor	 dl, bl
  000cc	88 55 ea	 mov	 BYTE PTR __k$[ebp+10], dl
  000cf	8a 50 0b	 mov	 dl, BYTE PTR [eax+11]
  000d2	84 d2		 test	 dl, dl
  000d4	0f 84 00 01 00
	00		 je	 $LN85@LoadInt_e
  000da	80 f2 ea	 xor	 dl, -22			; ffffffeaH
  000dd	88 55 eb	 mov	 BYTE PTR __k$[ebp+11], dl
  000e0	8a 50 0c	 mov	 dl, BYTE PTR [eax+12]
  000e3	84 d2		 test	 dl, dl
  000e5	0f 84 e9 00 00
	00		 je	 $LN84@LoadInt_e
  000eb	80 f2 ed	 xor	 dl, -19			; ffffffedH
  000ee	88 55 ec	 mov	 BYTE PTR __k$[ebp+12], dl
  000f1	8a 50 0d	 mov	 dl, BYTE PTR [eax+13]
  000f4	84 d2		 test	 dl, dl
  000f6	0f 84 d3 00 00
	00		 je	 $LN83@LoadInt_e
  000fc	32 d1		 xor	 dl, cl
  000fe	88 55 ed	 mov	 BYTE PTR __k$[ebp+13], dl
  00101	8a 50 0e	 mov	 dl, BYTE PTR [eax+14]
  00104	84 d2		 test	 dl, dl
  00106	0f 84 be 00 00
	00		 je	 $LN82@LoadInt_e
  0010c	32 d3		 xor	 dl, bl
  0010e	88 55 ee	 mov	 BYTE PTR __k$[ebp+14], dl
  00111	8a 50 0f	 mov	 dl, BYTE PTR [eax+15]
  00114	84 d2		 test	 dl, dl
  00116	0f 84 a8 00 00
	00		 je	 $LN81@LoadInt_e
  0011c	80 f2 ea	 xor	 dl, -22			; ffffffeaH
  0011f	88 55 ef	 mov	 BYTE PTR __k$[ebp+15], dl
  00122	8a 50 10	 mov	 dl, BYTE PTR [eax+16]
  00125	84 d2		 test	 dl, dl
  00127	0f 84 91 00 00
	00		 je	 $LN80@LoadInt_e
  0012d	80 f2 ed	 xor	 dl, -19			; ffffffedH
  00130	88 55 f0	 mov	 BYTE PTR __k$[ebp+16], dl
  00133	8a 50 11	 mov	 dl, BYTE PTR [eax+17]
  00136	84 d2		 test	 dl, dl
  00138	74 7f		 je	 SHORT $LN79@LoadInt_e
  0013a	32 d1		 xor	 dl, cl
  0013c	88 55 f1	 mov	 BYTE PTR __k$[ebp+17], dl
  0013f	8a 50 12	 mov	 dl, BYTE PTR [eax+18]
  00142	84 d2		 test	 dl, dl
  00144	74 6e		 je	 SHORT $LN78@LoadInt_e
  00146	32 d3		 xor	 dl, bl
  00148	88 55 f2	 mov	 BYTE PTR __k$[ebp+18], dl
  0014b	8a 50 13	 mov	 dl, BYTE PTR [eax+19]
  0014e	84 d2		 test	 dl, dl
  00150	74 5c		 je	 SHORT $LN77@LoadInt_e
  00152	80 f2 ea	 xor	 dl, -22			; ffffffeaH
  00155	80 78 14 00	 cmp	 BYTE PTR [eax+20], 0
  00159	88 55 f3	 mov	 BYTE PTR __k$[ebp+19], dl
  0015c	0f 84 ba 00 00
	00		 je	 $LN1@LoadInt_e
  00162	8a 50 15	 mov	 dl, BYTE PTR [eax+21]
  00165	84 d2		 test	 dl, dl
  00167	74 40		 je	 SHORT $LN75@LoadInt_e
  00169	32 d1		 xor	 dl, cl
  0016b	88 55 f5	 mov	 BYTE PTR __k$[ebp+21], dl
  0016e	8a 50 16	 mov	 dl, BYTE PTR [eax+22]
  00171	84 d2		 test	 dl, dl
  00173	74 2f		 je	 SHORT $LN74@LoadInt_e
  00175	32 d3		 xor	 dl, bl
  00177	88 55 f6	 mov	 BYTE PTR __k$[ebp+22], dl
  0017a	8a 50 17	 mov	 dl, BYTE PTR [eax+23]
  0017d	84 d2		 test	 dl, dl
  0017f	74 1d		 je	 SHORT $LN73@LoadInt_e
  00181	8a 40 18	 mov	 al, BYTE PTR [eax+24]
  00184	80 f2 ea	 xor	 dl, -22			; ffffffeaH
  00187	88 55 f7	 mov	 BYTE PTR __k$[ebp+23], dl
  0018a	84 c0		 test	 al, al
  0018c	74 0a		 je	 SHORT $LN72@LoadInt_e
  0018e	34 ed		 xor	 al, -19			; ffffffedH
  00190	88 45 f8	 mov	 BYTE PTR __k$[ebp+24], al
  00193	e9 84 00 00 00	 jmp	 $LN1@LoadInt_e
$LN72@LoadInt_e:
  00198	c6 45 f8 ed	 mov	 BYTE PTR __k$[ebp+24], -19 ; ffffffedH
  0019c	eb 7e		 jmp	 SHORT $LN1@LoadInt_e
$LN73@LoadInt_e:
  0019e	c6 45 f7 ea	 mov	 BYTE PTR __k$[ebp+23], -22 ; ffffffeaH
  001a2	eb 78		 jmp	 SHORT $LN1@LoadInt_e
$LN74@LoadInt_e:
  001a4	88 5d f6	 mov	 BYTE PTR __k$[ebp+22], bl
  001a7	eb 73		 jmp	 SHORT $LN1@LoadInt_e
$LN75@LoadInt_e:
  001a9	88 4d f5	 mov	 BYTE PTR __k$[ebp+21], cl
  001ac	eb 6e		 jmp	 SHORT $LN1@LoadInt_e
$LN77@LoadInt_e:
  001ae	c6 45 f3 ea	 mov	 BYTE PTR __k$[ebp+19], -22 ; ffffffeaH
  001b2	eb 68		 jmp	 SHORT $LN1@LoadInt_e
$LN78@LoadInt_e:
  001b4	88 5d f2	 mov	 BYTE PTR __k$[ebp+18], bl
  001b7	eb 63		 jmp	 SHORT $LN1@LoadInt_e
$LN79@LoadInt_e:
  001b9	88 4d f1	 mov	 BYTE PTR __k$[ebp+17], cl
  001bc	eb 5e		 jmp	 SHORT $LN1@LoadInt_e
$LN80@LoadInt_e:
  001be	c6 45 f0 ed	 mov	 BYTE PTR __k$[ebp+16], -19 ; ffffffedH
  001c2	eb 58		 jmp	 SHORT $LN1@LoadInt_e
$LN81@LoadInt_e:
  001c4	c6 45 ef ea	 mov	 BYTE PTR __k$[ebp+15], -22 ; ffffffeaH
  001c8	eb 52		 jmp	 SHORT $LN1@LoadInt_e
$LN82@LoadInt_e:
  001ca	88 5d ee	 mov	 BYTE PTR __k$[ebp+14], bl
  001cd	eb 4d		 jmp	 SHORT $LN1@LoadInt_e
$LN83@LoadInt_e:
  001cf	88 4d ed	 mov	 BYTE PTR __k$[ebp+13], cl
  001d2	eb 48		 jmp	 SHORT $LN1@LoadInt_e
$LN84@LoadInt_e:
  001d4	c6 45 ec ed	 mov	 BYTE PTR __k$[ebp+12], -19 ; ffffffedH
  001d8	eb 42		 jmp	 SHORT $LN1@LoadInt_e
$LN85@LoadInt_e:
  001da	c6 45 eb ea	 mov	 BYTE PTR __k$[ebp+11], -22 ; ffffffeaH
  001de	eb 3c		 jmp	 SHORT $LN1@LoadInt_e
$LN86@LoadInt_e:
  001e0	88 5d ea	 mov	 BYTE PTR __k$[ebp+10], bl
  001e3	eb 37		 jmp	 SHORT $LN1@LoadInt_e
$LN87@LoadInt_e:
  001e5	88 4d e9	 mov	 BYTE PTR __k$[ebp+9], cl
  001e8	eb 32		 jmp	 SHORT $LN1@LoadInt_e
$LN88@LoadInt_e:
  001ea	c6 45 e8 ed	 mov	 BYTE PTR __k$[ebp+8], -19 ; ffffffedH
  001ee	eb 2c		 jmp	 SHORT $LN1@LoadInt_e
$LN89@LoadInt_e:
  001f0	c6 45 e7 ea	 mov	 BYTE PTR __k$[ebp+7], -22 ; ffffffeaH
  001f4	eb 26		 jmp	 SHORT $LN1@LoadInt_e
$LN90@LoadInt_e:
  001f6	88 5d e6	 mov	 BYTE PTR __k$[ebp+6], bl
  001f9	eb 21		 jmp	 SHORT $LN1@LoadInt_e
$LN91@LoadInt_e:
  001fb	88 4d e5	 mov	 BYTE PTR __k$[ebp+5], cl
  001fe	eb 1c		 jmp	 SHORT $LN1@LoadInt_e
$LN92@LoadInt_e:
  00200	c6 45 e4 ed	 mov	 BYTE PTR __k$[ebp+4], -19 ; ffffffedH
  00204	eb 16		 jmp	 SHORT $LN1@LoadInt_e
$LN93@LoadInt_e:
  00206	c6 45 e3 ea	 mov	 BYTE PTR __k$[ebp+3], -22 ; ffffffeaH
  0020a	eb 10		 jmp	 SHORT $LN1@LoadInt_e
$LN94@LoadInt_e:
  0020c	c6 45 e2 eb	 mov	 BYTE PTR __k$[ebp+2], -21 ; ffffffebH
  00210	eb 0a		 jmp	 SHORT $LN1@LoadInt_e
$LN95@LoadInt_e:
  00212	c6 45 e1 ec	 mov	 BYTE PTR __k$[ebp+1], -20 ; ffffffecH
  00216	eb 04		 jmp	 SHORT $LN1@LoadInt_e
$LN96@LoadInt_e:
  00218	c6 45 e0 ed	 mov	 BYTE PTR __k$[ebp], -19	; ffffffedH
$LN1@LoadInt_e:
  0021c	6a 05		 push	 5
  0021e	8d 45 e0	 lea	 eax, DWORD PTR __k$[ebp]
  00221	c6 45 f4 00	 mov	 BYTE PTR __k$[ebp+20], 0
  00225	5a		 pop	 edx
$LL104@LoadInt_e:
  00226	81 30 ed ec eb
	ea		 xor	 DWORD PTR [eax], -353637139 ; eaebecedH
  0022c	83 c0 04	 add	 eax, 4
  0022f	4a		 dec	 edx
  00230	75 f4		 jne	 SHORT $LL104@LoadInt_e

; 120  : 		return LoadInt(_k, i);

  00232	ff 75 0c	 push	 DWORD PTR _i$[ebp]
  00235	8d 45 e0	 lea	 eax, DWORD PTR __k$[ebp]
  00238	50		 push	 eax
  00239	8b ce		 mov	 ecx, esi
  0023b	ff 15 00 00 00
	00		 call	 DWORD PTR __imp_?LoadInt@ioINILoader@@QAEHPBDH@Z

; 121  : 	}

  00241	8b 4d fc	 mov	 ecx, DWORD PTR __$ArrayPad$[ebp]
  00244	5e		 pop	 esi
  00245	33 cd		 xor	 ecx, ebp
  00247	5b		 pop	 ebx
  00248	e8 00 00 00 00	 call	 @__security_check_cookie@4
  0024d	c9		 leave
  0024e	c2 08 00	 ret	 8
??$LoadInt_e@$0BF@@ioINILoader@@QAEHAAY0BF@$$CBDH@Z ENDP ; ioINILoader::LoadInt_e<21>
_TEXT	ENDS
PUBLIC	__$ArrayPad$
PUBLIC	??$LoadInt_e@$0BM@@ioINILoader@@QAEHAAY0BM@$$CBDH@Z ; ioINILoader::LoadInt_e<28>
; Function compile flags: /Ogsp
;	COMDAT ??$LoadInt_e@$0BM@@ioINILoader@@QAEHAAY0BM@$$CBDH@Z
_TEXT	SEGMENT
__k$ = -36						; size = 28
__$ArrayPad$ = -4					; size = 4
_k$ = 8							; size = 4
_i$ = 12						; size = 4
??$LoadInt_e@$0BM@@ioINILoader@@QAEHAAY0BM@$$CBDH@Z PROC ; ioINILoader::LoadInt_e<28>, COMDAT
; _this$ = ecx

; 118  : 	{

  00000	55		 push	 ebp
  00001	8b ec		 mov	 ebp, esp
  00003	83 ec 24	 sub	 esp, 36			; 00000024H
  00006	a1 00 00 00 00	 mov	 eax, DWORD PTR ___security_cookie
  0000b	33 c5		 xor	 eax, ebp
  0000d	89 45 fc	 mov	 DWORD PTR __$ArrayPad$[ebp], eax
  00010	8b 45 08	 mov	 eax, DWORD PTR _k$[ebp]

; 119  : 		_ENCSTR(k, _k);

  00013	8a 10		 mov	 dl, BYTE PTR [eax]
  00015	53		 push	 ebx
  00016	56		 push	 esi
  00017	8b f1		 mov	 esi, ecx
  00019	84 d2		 test	 dl, dl
  0001b	0f 84 a9 02 00
	00		 je	 $LN96@LoadInt_e@2
  00021	80 f2 ed	 xor	 dl, -19			; ffffffedH
  00024	88 55 dc	 mov	 BYTE PTR __k$[ebp], dl
  00027	8a 50 01	 mov	 dl, BYTE PTR [eax+1]
  0002a	84 d2		 test	 dl, dl
  0002c	0f 84 92 02 00
	00		 je	 $LN95@LoadInt_e@2
  00032	b3 ec		 mov	 bl, -20			; ffffffecH
  00034	32 d3		 xor	 dl, bl
  00036	88 55 dd	 mov	 BYTE PTR __k$[ebp+1], dl
  00039	8a 50 02	 mov	 dl, BYTE PTR [eax+2]
  0003c	84 d2		 test	 dl, dl
  0003e	0f 84 7a 02 00
	00		 je	 $LN94@LoadInt_e@2
  00044	b1 eb		 mov	 cl, -21			; ffffffebH
  00046	32 d1		 xor	 dl, cl
  00048	88 55 de	 mov	 BYTE PTR __k$[ebp+2], dl
  0004b	8a 50 03	 mov	 dl, BYTE PTR [eax+3]
  0004e	84 d2		 test	 dl, dl
  00050	0f 84 62 02 00
	00		 je	 $LN93@LoadInt_e@2
  00056	80 f2 ea	 xor	 dl, -22			; ffffffeaH
  00059	88 55 df	 mov	 BYTE PTR __k$[ebp+3], dl
  0005c	8a 50 04	 mov	 dl, BYTE PTR [eax+4]
  0005f	84 d2		 test	 dl, dl
  00061	0f 84 4b 02 00
	00		 je	 $LN92@LoadInt_e@2
  00067	80 f2 ed	 xor	 dl, -19			; ffffffedH
  0006a	88 55 e0	 mov	 BYTE PTR __k$[ebp+4], dl
  0006d	8a 50 05	 mov	 dl, BYTE PTR [eax+5]
  00070	84 d2		 test	 dl, dl
  00072	0f 84 35 02 00
	00		 je	 $LN91@LoadInt_e@2
  00078	32 d3		 xor	 dl, bl
  0007a	88 55 e1	 mov	 BYTE PTR __k$[ebp+5], dl
  0007d	8a 50 06	 mov	 dl, BYTE PTR [eax+6]
  00080	84 d2		 test	 dl, dl
  00082	0f 84 20 02 00
	00		 je	 $LN90@LoadInt_e@2
  00088	32 d1		 xor	 dl, cl
  0008a	88 55 e2	 mov	 BYTE PTR __k$[ebp+6], dl
  0008d	8a 50 07	 mov	 dl, BYTE PTR [eax+7]
  00090	84 d2		 test	 dl, dl
  00092	0f 84 0a 02 00
	00		 je	 $LN89@LoadInt_e@2
  00098	80 f2 ea	 xor	 dl, -22			; ffffffeaH
  0009b	88 55 e3	 mov	 BYTE PTR __k$[ebp+7], dl
  0009e	8a 50 08	 mov	 dl, BYTE PTR [eax+8]
  000a1	84 d2		 test	 dl, dl
  000a3	0f 84 f3 01 00
	00		 je	 $LN88@LoadInt_e@2
  000a9	80 f2 ed	 xor	 dl, -19			; ffffffedH
  000ac	88 55 e4	 mov	 BYTE PTR __k$[ebp+8], dl
  000af	8a 50 09	 mov	 dl, BYTE PTR [eax+9]
  000b2	84 d2		 test	 dl, dl
  000b4	0f 84 dd 01 00
	00		 je	 $LN87@LoadInt_e@2
  000ba	32 d3		 xor	 dl, bl
  000bc	88 55 e5	 mov	 BYTE PTR __k$[ebp+9], dl
  000bf	8a 50 0a	 mov	 dl, BYTE PTR [eax+10]
  000c2	84 d2		 test	 dl, dl
  000c4	0f 84 c8 01 00
	00		 je	 $LN86@LoadInt_e@2
  000ca	32 d1		 xor	 dl, cl
  000cc	88 55 e6	 mov	 BYTE PTR __k$[ebp+10], dl
  000cf	8a 50 0b	 mov	 dl, BYTE PTR [eax+11]
  000d2	84 d2		 test	 dl, dl
  000d4	0f 84 b2 01 00
	00		 je	 $LN85@LoadInt_e@2
  000da	80 f2 ea	 xor	 dl, -22			; ffffffeaH
  000dd	88 55 e7	 mov	 BYTE PTR __k$[ebp+11], dl
  000e0	8a 50 0c	 mov	 dl, BYTE PTR [eax+12]
  000e3	84 d2		 test	 dl, dl
  000e5	0f 84 9b 01 00
	00		 je	 $LN84@LoadInt_e@2
  000eb	80 f2 ed	 xor	 dl, -19			; ffffffedH
  000ee	88 55 e8	 mov	 BYTE PTR __k$[ebp+12], dl
  000f1	8a 50 0d	 mov	 dl, BYTE PTR [eax+13]
  000f4	84 d2		 test	 dl, dl
  000f6	0f 84 85 01 00
	00		 je	 $LN83@LoadInt_e@2
  000fc	32 d3		 xor	 dl, bl
  000fe	88 55 e9	 mov	 BYTE PTR __k$[ebp+13], dl
  00101	8a 50 0e	 mov	 dl, BYTE PTR [eax+14]
  00104	84 d2		 test	 dl, dl
  00106	0f 84 70 01 00
	00		 je	 $LN82@LoadInt_e@2
  0010c	32 d1		 xor	 dl, cl
  0010e	88 55 ea	 mov	 BYTE PTR __k$[ebp+14], dl
  00111	8a 50 0f	 mov	 dl, BYTE PTR [eax+15]
  00114	84 d2		 test	 dl, dl
  00116	0f 84 5a 01 00
	00		 je	 $LN81@LoadInt_e@2
  0011c	80 f2 ea	 xor	 dl, -22			; ffffffeaH
  0011f	88 55 eb	 mov	 BYTE PTR __k$[ebp+15], dl
  00122	8a 50 10	 mov	 dl, BYTE PTR [eax+16]
  00125	84 d2		 test	 dl, dl
  00127	0f 84 43 01 00
	00		 je	 $LN80@LoadInt_e@2
  0012d	80 f2 ed	 xor	 dl, -19			; ffffffedH
  00130	88 55 ec	 mov	 BYTE PTR __k$[ebp+16], dl
  00133	8a 50 11	 mov	 dl, BYTE PTR [eax+17]
  00136	84 d2		 test	 dl, dl
  00138	0f 84 2d 01 00
	00		 je	 $LN79@LoadInt_e@2
  0013e	32 d3		 xor	 dl, bl
  00140	88 55 ed	 mov	 BYTE PTR __k$[ebp+17], dl
  00143	8a 50 12	 mov	 dl, BYTE PTR [eax+18]
  00146	84 d2		 test	 dl, dl
  00148	0f 84 18 01 00
	00		 je	 $LN78@LoadInt_e@2
  0014e	32 d1		 xor	 dl, cl
  00150	88 55 ee	 mov	 BYTE PTR __k$[ebp+18], dl
  00153	8a 50 13	 mov	 dl, BYTE PTR [eax+19]
  00156	84 d2		 test	 dl, dl
  00158	0f 84 02 01 00
	00		 je	 $LN77@LoadInt_e@2
  0015e	80 f2 ea	 xor	 dl, -22			; ffffffeaH
  00161	88 55 ef	 mov	 BYTE PTR __k$[ebp+19], dl
  00164	8a 50 14	 mov	 dl, BYTE PTR [eax+20]
  00167	84 d2		 test	 dl, dl
  00169	0f 84 eb 00 00
	00		 je	 $LN76@LoadInt_e@2
  0016f	80 f2 ed	 xor	 dl, -19			; ffffffedH
  00172	88 55 f0	 mov	 BYTE PTR __k$[ebp+20], dl
  00175	8a 50 15	 mov	 dl, BYTE PTR [eax+21]
  00178	84 d2		 test	 dl, dl
  0017a	0f 84 d5 00 00
	00		 je	 $LN75@LoadInt_e@2
  00180	32 d3		 xor	 dl, bl
  00182	88 55 f1	 mov	 BYTE PTR __k$[ebp+21], dl
  00185	8a 50 16	 mov	 dl, BYTE PTR [eax+22]
  00188	84 d2		 test	 dl, dl
  0018a	0f 84 c0 00 00
	00		 je	 $LN74@LoadInt_e@2
  00190	32 d1		 xor	 dl, cl
  00192	88 55 f2	 mov	 BYTE PTR __k$[ebp+22], dl
  00195	8a 50 17	 mov	 dl, BYTE PTR [eax+23]
  00198	84 d2		 test	 dl, dl
  0019a	0f 84 aa 00 00
	00		 je	 $LN73@LoadInt_e@2
  001a0	80 f2 ea	 xor	 dl, -22			; ffffffeaH
  001a3	88 55 f3	 mov	 BYTE PTR __k$[ebp+23], dl
  001a6	8a 50 18	 mov	 dl, BYTE PTR [eax+24]
  001a9	84 d2		 test	 dl, dl
  001ab	0f 84 90 00 00
	00		 je	 $LN72@LoadInt_e@2
  001b1	80 f2 ed	 xor	 dl, -19			; ffffffedH
  001b4	88 55 f4	 mov	 BYTE PTR __k$[ebp+24], dl
  001b7	8a 50 19	 mov	 dl, BYTE PTR [eax+25]
  001ba	84 d2		 test	 dl, dl
  001bc	74 7b		 je	 SHORT $LN71@LoadInt_e@2
  001be	32 d3		 xor	 dl, bl
  001c0	88 55 f5	 mov	 BYTE PTR __k$[ebp+25], dl
  001c3	8a 50 1a	 mov	 dl, BYTE PTR [eax+26]
  001c6	84 d2		 test	 dl, dl
  001c8	74 67		 je	 SHORT $LN70@LoadInt_e@2
  001ca	32 d1		 xor	 dl, cl
  001cc	80 78 1b 00	 cmp	 BYTE PTR [eax+27], 0
  001d0	88 55 f6	 mov	 BYTE PTR __k$[ebp+26], dl
  001d3	0f 84 f5 00 00
	00		 je	 $LN1@LoadInt_e@2
  001d9	8a 50 1c	 mov	 dl, BYTE PTR [eax+28]
  001dc	84 d2		 test	 dl, dl
  001de	74 48		 je	 SHORT $LN68@LoadInt_e@2
  001e0	80 f2 ed	 xor	 dl, -19			; ffffffedH
  001e3	88 55 f8	 mov	 BYTE PTR __k$[ebp+28], dl
  001e6	8a 50 1d	 mov	 dl, BYTE PTR [eax+29]
  001e9	84 d2		 test	 dl, dl
  001eb	74 33		 je	 SHORT $LN67@LoadInt_e@2
  001ed	32 d3		 xor	 dl, bl
  001ef	88 55 f9	 mov	 BYTE PTR __k$[ebp+29], dl
  001f2	8a 50 1e	 mov	 dl, BYTE PTR [eax+30]
  001f5	84 d2		 test	 dl, dl
  001f7	74 1f		 je	 SHORT $LN66@LoadInt_e@2
  001f9	8a 40 1f	 mov	 al, BYTE PTR [eax+31]
  001fc	32 d1		 xor	 dl, cl
  001fe	88 55 fa	 mov	 BYTE PTR __k$[ebp+30], dl
  00201	84 c0		 test	 al, al
  00203	74 0a		 je	 SHORT $LN65@LoadInt_e@2
  00205	34 ea		 xor	 al, -22			; ffffffeaH
  00207	88 45 fb	 mov	 BYTE PTR __k$[ebp+31], al
  0020a	e9 bf 00 00 00	 jmp	 $LN1@LoadInt_e@2
$LN65@LoadInt_e@2:
  0020f	c6 45 fb ea	 mov	 BYTE PTR __k$[ebp+31], -22 ; ffffffeaH
  00213	e9 b6 00 00 00	 jmp	 $LN1@LoadInt_e@2
$LN66@LoadInt_e@2:
  00218	88 4d fa	 mov	 BYTE PTR __k$[ebp+30], cl
  0021b	e9 ae 00 00 00	 jmp	 $LN1@LoadInt_e@2
$LN67@LoadInt_e@2:
  00220	88 5d f9	 mov	 BYTE PTR __k$[ebp+29], bl
  00223	e9 a6 00 00 00	 jmp	 $LN1@LoadInt_e@2
$LN68@LoadInt_e@2:
  00228	c6 45 f8 ed	 mov	 BYTE PTR __k$[ebp+28], -19 ; ffffffedH
  0022c	e9 9d 00 00 00	 jmp	 $LN1@LoadInt_e@2
$LN70@LoadInt_e@2:
  00231	88 4d f6	 mov	 BYTE PTR __k$[ebp+26], cl
  00234	e9 95 00 00 00	 jmp	 $LN1@LoadInt_e@2
$LN71@LoadInt_e@2:
  00239	88 5d f5	 mov	 BYTE PTR __k$[ebp+25], bl
  0023c	e9 8d 00 00 00	 jmp	 $LN1@LoadInt_e@2
$LN72@LoadInt_e@2:
  00241	c6 45 f4 ed	 mov	 BYTE PTR __k$[ebp+24], -19 ; ffffffedH
  00245	e9 84 00 00 00	 jmp	 $LN1@LoadInt_e@2
$LN73@LoadInt_e@2:
  0024a	c6 45 f3 ea	 mov	 BYTE PTR __k$[ebp+23], -22 ; ffffffeaH
  0024e	eb 7e		 jmp	 SHORT $LN1@LoadInt_e@2
$LN74@LoadInt_e@2:
  00250	88 4d f2	 mov	 BYTE PTR __k$[ebp+22], cl
  00253	eb 79		 jmp	 SHORT $LN1@LoadInt_e@2
$LN75@LoadInt_e@2:
  00255	88 5d f1	 mov	 BYTE PTR __k$[ebp+21], bl
  00258	eb 74		 jmp	 SHORT $LN1@LoadInt_e@2
$LN76@LoadInt_e@2:
  0025a	c6 45 f0 ed	 mov	 BYTE PTR __k$[ebp+20], -19 ; ffffffedH
  0025e	eb 6e		 jmp	 SHORT $LN1@LoadInt_e@2
$LN77@LoadInt_e@2:
  00260	c6 45 ef ea	 mov	 BYTE PTR __k$[ebp+19], -22 ; ffffffeaH
  00264	eb 68		 jmp	 SHORT $LN1@LoadInt_e@2
$LN78@LoadInt_e@2:
  00266	88 4d ee	 mov	 BYTE PTR __k$[ebp+18], cl
  00269	eb 63		 jmp	 SHORT $LN1@LoadInt_e@2
$LN79@LoadInt_e@2:
  0026b	88 5d ed	 mov	 BYTE PTR __k$[ebp+17], bl
  0026e	eb 5e		 jmp	 SHORT $LN1@LoadInt_e@2
$LN80@LoadInt_e@2:
  00270	c6 45 ec ed	 mov	 BYTE PTR __k$[ebp+16], -19 ; ffffffedH
  00274	eb 58		 jmp	 SHORT $LN1@LoadInt_e@2
$LN81@LoadInt_e@2:
  00276	c6 45 eb ea	 mov	 BYTE PTR __k$[ebp+15], -22 ; ffffffeaH
  0027a	eb 52		 jmp	 SHORT $LN1@LoadInt_e@2
$LN82@LoadInt_e@2:
  0027c	88 4d ea	 mov	 BYTE PTR __k$[ebp+14], cl
  0027f	eb 4d		 jmp	 SHORT $LN1@LoadInt_e@2
$LN83@LoadInt_e@2:
  00281	88 5d e9	 mov	 BYTE PTR __k$[ebp+13], bl
  00284	eb 48		 jmp	 SHORT $LN1@LoadInt_e@2
$LN84@LoadInt_e@2:
  00286	c6 45 e8 ed	 mov	 BYTE PTR __k$[ebp+12], -19 ; ffffffedH
  0028a	eb 42		 jmp	 SHORT $LN1@LoadInt_e@2
$LN85@LoadInt_e@2:
  0028c	c6 45 e7 ea	 mov	 BYTE PTR __k$[ebp+11], -22 ; ffffffeaH
  00290	eb 3c		 jmp	 SHORT $LN1@LoadInt_e@2
$LN86@LoadInt_e@2:
  00292	88 4d e6	 mov	 BYTE PTR __k$[ebp+10], cl
  00295	eb 37		 jmp	 SHORT $LN1@LoadInt_e@2
$LN87@LoadInt_e@2:
  00297	88 5d e5	 mov	 BYTE PTR __k$[ebp+9], bl
  0029a	eb 32		 jmp	 SHORT $LN1@LoadInt_e@2
$LN88@LoadInt_e@2:
  0029c	c6 45 e4 ed	 mov	 BYTE PTR __k$[ebp+8], -19 ; ffffffedH
  002a0	eb 2c		 jmp	 SHORT $LN1@LoadInt_e@2
$LN89@LoadInt_e@2:
  002a2	c6 45 e3 ea	 mov	 BYTE PTR __k$[ebp+7], -22 ; ffffffeaH
  002a6	eb 26		 jmp	 SHORT $LN1@LoadInt_e@2
$LN90@LoadInt_e@2:
  002a8	88 4d e2	 mov	 BYTE PTR __k$[ebp+6], cl
  002ab	eb 21		 jmp	 SHORT $LN1@LoadInt_e@2
$LN91@LoadInt_e@2:
  002ad	88 5d e1	 mov	 BYTE PTR __k$[ebp+5], bl
  002b0	eb 1c		 jmp	 SHORT $LN1@LoadInt_e@2
$LN92@LoadInt_e@2:
  002b2	c6 45 e0 ed	 mov	 BYTE PTR __k$[ebp+4], -19 ; ffffffedH
  002b6	eb 16		 jmp	 SHORT $LN1@LoadInt_e@2
$LN93@LoadInt_e@2:
  002b8	c6 45 df ea	 mov	 BYTE PTR __k$[ebp+3], -22 ; ffffffeaH
  002bc	eb 10		 jmp	 SHORT $LN1@LoadInt_e@2
$LN94@LoadInt_e@2:
  002be	c6 45 de eb	 mov	 BYTE PTR __k$[ebp+2], -21 ; ffffffebH
  002c2	eb 0a		 jmp	 SHORT $LN1@LoadInt_e@2
$LN95@LoadInt_e@2:
  002c4	c6 45 dd ec	 mov	 BYTE PTR __k$[ebp+1], -20 ; ffffffecH
  002c8	eb 04		 jmp	 SHORT $LN1@LoadInt_e@2
$LN96@LoadInt_e@2:
  002ca	c6 45 dc ed	 mov	 BYTE PTR __k$[ebp], -19	; ffffffedH
$LN1@LoadInt_e@2:
  002ce	6a 06		 push	 6
  002d0	8d 45 dc	 lea	 eax, DWORD PTR __k$[ebp]
  002d3	c6 45 f7 00	 mov	 BYTE PTR __k$[ebp+27], 0
  002d7	5a		 pop	 edx
$LL104@LoadInt_e@2:
  002d8	81 30 ed ec eb
	ea		 xor	 DWORD PTR [eax], -353637139 ; eaebecedH
  002de	83 c0 04	 add	 eax, 4
  002e1	4a		 dec	 edx
  002e2	75 f4		 jne	 SHORT $LL104@LoadInt_e@2
  002e4	6a 18		 push	 24			; 00000018H
  002e6	58		 pop	 eax
$LL101@LoadInt_e@2:
  002e7	8b c8		 mov	 ecx, eax
  002e9	81 e1 03 00 00
	80		 and	 ecx, -2147483645	; 80000003H
  002ef	79 05		 jns	 SHORT $LN111@LoadInt_e@2
  002f1	49		 dec	 ecx
  002f2	83 c9 fc	 or	 ecx, -4			; fffffffcH
  002f5	41		 inc	 ecx
$LN111@LoadInt_e@2:
  002f6	b2 ed		 mov	 dl, -19			; ffffffedH
  002f8	2a d1		 sub	 dl, cl
  002fa	30 54 05 dc	 xor	 BYTE PTR __k$[ebp+eax], dl
  002fe	40		 inc	 eax
  002ff	83 f8 1b	 cmp	 eax, 27			; 0000001bH
  00302	7c e3		 jl	 SHORT $LL101@LoadInt_e@2

; 120  : 		return LoadInt(_k, i);

  00304	ff 75 0c	 push	 DWORD PTR _i$[ebp]
  00307	8d 45 dc	 lea	 eax, DWORD PTR __k$[ebp]
  0030a	50		 push	 eax
  0030b	8b ce		 mov	 ecx, esi
  0030d	ff 15 00 00 00
	00		 call	 DWORD PTR __imp_?LoadInt@ioINILoader@@QAEHPBDH@Z

; 121  : 	}

  00313	8b 4d fc	 mov	 ecx, DWORD PTR __$ArrayPad$[ebp]
  00316	5e		 pop	 esi
  00317	33 cd		 xor	 ecx, ebp
  00319	5b		 pop	 ebx
  0031a	e8 00 00 00 00	 call	 @__security_check_cookie@4
  0031f	c9		 leave
  00320	c2 08 00	 ret	 8
??$LoadInt_e@$0BM@@ioINILoader@@QAEHAAY0BM@$$CBDH@Z ENDP ; ioINILoader::LoadInt_e<28>
_TEXT	ENDS
PUBLIC	??$_Cons_val@V?$allocator@PAVioBaseChar@@@std@@PAVioBaseChar@@AAPAV3@@std@@YAXAAV?$allocator@PAVioBaseChar@@@0@PAPAVioBaseChar@@AAPAV2@@Z ; std::_Cons_val<std::allocator<ioBaseChar *>,ioBaseChar *,ioBaseChar * &>
; Function compile flags: /Ogsp
; File c:\program files (x86)\microsoft visual studio 10.0\vc\include\xmemory
;	COMDAT ??$_Cons_val@V?$allocator@PAVioBaseChar@@@std@@PAVioBaseChar@@AAPAV3@@std@@YAXAAV?$allocator@PAVioBaseChar@@@0@PAPAVioBaseChar@@AAPAV2@@Z
_TEXT	SEGMENT
__Alval$ = 8						; size = 4
__Pdest$ = 12						; size = 4
__Src$ = 16						; size = 4
??$_Cons_val@V?$allocator@PAVioBaseChar@@@std@@PAVioBaseChar@@AAPAV3@@std@@YAXAAV?$allocator@PAVioBaseChar@@@0@PAPAVioBaseChar@@AAPAV2@@Z PROC ; std::_Cons_val<std::allocator<ioBaseChar *>,ioBaseChar *,ioBaseChar * &>, COMDAT

; 279  : 	{	// construct using allocator

  00000	55		 push	 ebp
  00001	8b ec		 mov	 ebp, esp

; 280  : 	_Alval.construct(_Pdest, _STD forward<_Ty2>(_Src));

  00003	8b 45 0c	 mov	 eax, DWORD PTR __Pdest$[ebp]
  00006	85 c0		 test	 eax, eax
  00008	74 07		 je	 SHORT $LN7@Cons_val
  0000a	8b 4d 10	 mov	 ecx, DWORD PTR __Src$[ebp]
  0000d	8b 09		 mov	 ecx, DWORD PTR [ecx]
  0000f	89 08		 mov	 DWORD PTR [eax], ecx
$LN7@Cons_val:

; 281  : 	}

  00011	5d		 pop	 ebp
  00012	c3		 ret	 0
??$_Cons_val@V?$allocator@PAVioBaseChar@@@std@@PAVioBaseChar@@AAPAV3@@std@@YAXAAV?$allocator@PAVioBaseChar@@@0@PAPAVioBaseChar@@AAPAV2@@Z ENDP ; std::_Cons_val<std::allocator<ioBaseChar *>,ioBaseChar *,ioBaseChar * &>
_TEXT	ENDS
PUBLIC	??$_Cons_val@V?$allocator@UCallBuff@@@std@@UCallBuff@@AAU3@@std@@YAXAAV?$allocator@UCallBuff@@@0@PAUCallBuff@@AAU2@@Z ; std::_Cons_val<std::allocator<CallBuff>,CallBuff,CallBuff &>
; Function compile flags: /Ogsp
;	COMDAT ??$_Cons_val@V?$allocator@UCallBuff@@@std@@UCallBuff@@AAU3@@std@@YAXAAV?$allocator@UCallBuff@@@0@PAUCallBuff@@AAU2@@Z
_TEXT	SEGMENT
__Alval$ = 8						; size = 4
__Pdest$ = 12						; size = 4
__Src$ = 16						; size = 4
??$_Cons_val@V?$allocator@UCallBuff@@@std@@UCallBuff@@AAU3@@std@@YAXAAV?$allocator@UCallBuff@@@0@PAUCallBuff@@AAU2@@Z PROC ; std::_Cons_val<std::allocator<CallBuff>,CallBuff,CallBuff &>, COMDAT

; 279  : 	{	// construct using allocator

  00000	55		 push	 ebp
  00001	8b ec		 mov	 ebp, esp

; 280  : 	_Alval.construct(_Pdest, _STD forward<_Ty2>(_Src));

  00003	ff 75 10	 push	 DWORD PTR __Src$[ebp]
  00006	8b 4d 08	 mov	 ecx, DWORD PTR __Alval$[ebp]
  00009	ff 75 0c	 push	 DWORD PTR __Pdest$[ebp]
  0000c	e8 00 00 00 00	 call	 ??$construct@AAUCallBuff@@@?$allocator@UCallBuff@@@std@@QAEXPAUCallBuff@@AAU2@@Z ; std::allocator<CallBuff>::construct<CallBuff &>

; 281  : 	}

  00011	5d		 pop	 ebp
  00012	c3		 ret	 0
??$_Cons_val@V?$allocator@UCallBuff@@@std@@UCallBuff@@AAU3@@std@@YAXAAV?$allocator@UCallBuff@@@0@PAUCallBuff@@AAU2@@Z ENDP ; std::_Cons_val<std::allocator<CallBuff>,CallBuff,CallBuff &>
_TEXT	ENDS
PUBLIC	??$_Move@PAPAVioBaseChar@@PAPAV1@@std@@YAPAPAVioBaseChar@@PAPAV1@00@Z ; std::_Move<ioBaseChar * *,ioBaseChar * *>
; Function compile flags: /Ogsp
; File c:\program files (x86)\microsoft visual studio 10.0\vc\include\xutility
;	COMDAT ??$_Move@PAPAVioBaseChar@@PAPAV1@@std@@YAPAPAVioBaseChar@@PAPAV1@00@Z
_TEXT	SEGMENT
__Cat$535804 = -4					; size = 1
__First$ = 8						; size = 4
__Last$ = 12						; size = 4
__Dest$ = 16						; size = 4
??$_Move@PAPAVioBaseChar@@PAPAV1@@std@@YAPAPAVioBaseChar@@PAPAV1@00@Z PROC ; std::_Move<ioBaseChar * *,ioBaseChar * *>, COMDAT

; 2533 : 	{	// move [_First, _Last) to [_Dest, ...), unchecked

  00000	55		 push	 ebp
  00001	8b ec		 mov	 ebp, esp
  00003	51		 push	 ecx

; 2534 : 	return (_Move(_First, _Last,
; 2535 : 		_Dest, _Ptr_cat(_First, _Dest)));

  00004	ff 75 fc	 push	 DWORD PTR __Cat$535804[ebp]
  00007	ff 75 10	 push	 DWORD PTR __Dest$[ebp]
  0000a	ff 75 0c	 push	 DWORD PTR __Last$[ebp]
  0000d	ff 75 08	 push	 DWORD PTR __First$[ebp]
  00010	e8 00 00 00 00	 call	 ??$_Move@PAPAVioBaseChar@@PAPAV1@@std@@YAPAPAVioBaseChar@@PAPAV1@00U_Scalar_ptr_iterator_tag@0@@Z ; std::_Move<ioBaseChar * *,ioBaseChar * *>
  00015	83 c4 10	 add	 esp, 16			; 00000010H

; 2536 : 	}

  00018	c9		 leave
  00019	c3		 ret	 0
??$_Move@PAPAVioBaseChar@@PAPAV1@@std@@YAPAPAVioBaseChar@@PAPAV1@00@Z ENDP ; std::_Move<ioBaseChar * *,ioBaseChar * *>
_TEXT	ENDS
PUBLIC	??$_Destroy_range@V?$allocator@PAVioBaseChar@@@std@@@std@@YAXPAPAVioBaseChar@@0AAV?$allocator@PAVioBaseChar@@@0@@Z ; std::_Destroy_range<std::allocator<ioBaseChar *> >
; Function compile flags: /Ogsp
; File c:\program files (x86)\microsoft visual studio 10.0\vc\include\xmemory
;	COMDAT ??$_Destroy_range@V?$allocator@PAVioBaseChar@@@std@@@std@@YAXPAPAVioBaseChar@@0AAV?$allocator@PAVioBaseChar@@@0@@Z
_TEXT	SEGMENT
__First$ = 8						; size = 4
__Last$ = 12						; size = 4
__Al$ = 16						; size = 4
??$_Destroy_range@V?$allocator@PAVioBaseChar@@@std@@@std@@YAXPAPAVioBaseChar@@0AAV?$allocator@PAVioBaseChar@@@0@@Z PROC ; std::_Destroy_range<std::allocator<ioBaseChar *> >, COMDAT

; 88   : 	_Destroy_range(_First, _Last, _Al, _Ptr_cat(_First, _Last));
; 89   : 	}

  00000	c3		 ret	 0
??$_Destroy_range@V?$allocator@PAVioBaseChar@@@std@@@std@@YAXPAPAVioBaseChar@@0AAV?$allocator@PAVioBaseChar@@@0@@Z ENDP ; std::_Destroy_range<std::allocator<ioBaseChar *> >
_TEXT	ENDS
PUBLIC	?construct@?$allocator@PAVioBaseChar@@@std@@QAEXPAPAVioBaseChar@@ABQAV3@@Z ; std::allocator<ioBaseChar *>::construct
; Function compile flags: /Ogsp
;	COMDAT ?construct@?$allocator@PAVioBaseChar@@@std@@QAEXPAPAVioBaseChar@@ABQAV3@@Z
_TEXT	SEGMENT
__Ptr$ = 8						; size = 4
__Val$ = 12						; size = 4
?construct@?$allocator@PAVioBaseChar@@@std@@QAEXPAPAVioBaseChar@@ABQAV3@@Z PROC ; std::allocator<ioBaseChar *>::construct, COMDAT
; _this$ = ecx

; 196  : 		{	// construct object at _Ptr with value _Val

  00000	55		 push	 ebp
  00001	8b ec		 mov	 ebp, esp

; 197  : 		_Construct(_Ptr, _Val);

  00003	8b 45 08	 mov	 eax, DWORD PTR __Ptr$[ebp]
  00006	85 c0		 test	 eax, eax
  00008	74 07		 je	 SHORT $LN5@construct@3
  0000a	8b 4d 0c	 mov	 ecx, DWORD PTR __Val$[ebp]
  0000d	8b 09		 mov	 ecx, DWORD PTR [ecx]
  0000f	89 08		 mov	 DWORD PTR [eax], ecx
$LN5@construct@3:

; 198  : 		}

  00011	5d		 pop	 ebp
  00012	c2 08 00	 ret	 8
?construct@?$allocator@PAVioBaseChar@@@std@@QAEXPAPAVioBaseChar@@ABQAV3@@Z ENDP ; std::allocator<ioBaseChar *>::construct
_TEXT	ENDS
PUBLIC	?construct@?$allocator@UCallBuff@@@std@@QAEXPAUCallBuff@@ABU3@@Z ; std::allocator<CallBuff>::construct
; Function compile flags: /Ogsp
;	COMDAT ?construct@?$allocator@UCallBuff@@@std@@QAEXPAUCallBuff@@ABU3@@Z
_TEXT	SEGMENT
__Ptr$ = 8						; size = 4
__Val$ = 12						; size = 4
?construct@?$allocator@UCallBuff@@@std@@QAEXPAUCallBuff@@ABU3@@Z PROC ; std::allocator<CallBuff>::construct, COMDAT
; _this$ = ecx

; 196  : 		{	// construct object at _Ptr with value _Val

  00000	55		 push	 ebp
  00001	8b ec		 mov	 ebp, esp

; 197  : 		_Construct(_Ptr, _Val);

  00003	ff 75 0c	 push	 DWORD PTR __Val$[ebp]
  00006	ff 75 08	 push	 DWORD PTR __Ptr$[ebp]
  00009	e8 00 00 00 00	 call	 ??$_Construct@UCallBuff@@ABU1@@std@@YAXPAUCallBuff@@ABU1@@Z ; std::_Construct<CallBuff,CallBuff const &>
  0000e	59		 pop	 ecx
  0000f	59		 pop	 ecx

; 198  : 		}

  00010	5d		 pop	 ebp
  00011	c2 08 00	 ret	 8
?construct@?$allocator@UCallBuff@@@std@@QAEXPAUCallBuff@@ABU3@@Z ENDP ; std::allocator<CallBuff>::construct
_TEXT	ENDS
PUBLIC	??G?$_Vector_iterator@V?$_Vector_val@UCallBuff@@V?$allocator@UCallBuff@@@std@@@std@@@std@@QBEHABV?$_Vector_const_iterator@V?$_Vector_val@UCallBuff@@V?$allocator@UCallBuff@@@std@@@std@@@1@@Z ; std::_Vector_iterator<std::_Vector_val<CallBuff,std::allocator<CallBuff> > >::operator-
; Function compile flags: /Ogsp
; File c:\program files (x86)\microsoft visual studio 10.0\vc\include\vector
;	COMDAT ??G?$_Vector_iterator@V?$_Vector_val@UCallBuff@@V?$allocator@UCallBuff@@@std@@@std@@@std@@QBEHABV?$_Vector_const_iterator@V?$_Vector_val@UCallBuff@@V?$allocator@UCallBuff@@@std@@@std@@@1@@Z
_TEXT	SEGMENT
__Right$ = 8						; size = 4
??G?$_Vector_iterator@V?$_Vector_val@UCallBuff@@V?$allocator@UCallBuff@@@std@@@std@@@std@@QBEHABV?$_Vector_const_iterator@V?$_Vector_val@UCallBuff@@V?$allocator@UCallBuff@@@std@@@std@@@1@@Z PROC ; std::_Vector_iterator<std::_Vector_val<CallBuff,std::allocator<CallBuff> > >::operator-, COMDAT
; _this$ = ecx

; 380  : 		{	// return difference of iterators

  00000	55		 push	 ebp
  00001	8b ec		 mov	 ebp, esp

; 381  : 		return (*(_Mybase *)this - _Right);

  00003	8b 01		 mov	 eax, DWORD PTR [ecx]
  00005	8b 4d 08	 mov	 ecx, DWORD PTR __Right$[ebp]
  00008	2b 01		 sub	 eax, DWORD PTR [ecx]
  0000a	6a 14		 push	 20			; 00000014H
  0000c	99		 cdq
  0000d	59		 pop	 ecx
  0000e	f7 f9		 idiv	 ecx

; 382  : 		}

  00010	5d		 pop	 ebp
  00011	c2 04 00	 ret	 4
??G?$_Vector_iterator@V?$_Vector_val@UCallBuff@@V?$allocator@UCallBuff@@@std@@@std@@@std@@QBEHABV?$_Vector_const_iterator@V?$_Vector_val@UCallBuff@@V?$allocator@UCallBuff@@@std@@@std@@@1@@Z ENDP ; std::_Vector_iterator<std::_Vector_val<CallBuff,std::allocator<CallBuff> > >::operator-
_TEXT	ENDS
PUBLIC	??$_Unchecked@V?$_Vector_val@UCallBuff@@V?$allocator@UCallBuff@@@std@@@std@@@std@@YAPAUCallBuff@@V?$_Vector_iterator@V?$_Vector_val@UCallBuff@@V?$allocator@UCallBuff@@@std@@@std@@@0@@Z ; std::_Unchecked<std::_Vector_val<CallBuff,std::allocator<CallBuff> > >
; Function compile flags: /Ogsp
;	COMDAT ??$_Unchecked@V?$_Vector_val@UCallBuff@@V?$allocator@UCallBuff@@@std@@@std@@@std@@YAPAUCallBuff@@V?$_Vector_iterator@V?$_Vector_val@UCallBuff@@V?$allocator@UCallBuff@@@std@@@std@@@0@@Z
_TEXT	SEGMENT
__Iter$ = 8						; size = 4
??$_Unchecked@V?$_Vector_val@UCallBuff@@V?$allocator@UCallBuff@@@std@@@std@@@std@@YAPAUCallBuff@@V?$_Vector_iterator@V?$_Vector_val@UCallBuff@@V?$allocator@UCallBuff@@@std@@@std@@@0@@Z PROC ; std::_Unchecked<std::_Vector_val<CallBuff,std::allocator<CallBuff> > >, COMDAT

; 393  : 	{	// convert to unchecked

  00000	55		 push	 ebp
  00001	8b ec		 mov	 ebp, esp

; 394  : 	return (_Iter._Unchecked());

  00003	8b 45 08	 mov	 eax, DWORD PTR __Iter$[ebp]

; 395  : 	}

  00006	5d		 pop	 ebp
  00007	c3		 ret	 0
??$_Unchecked@V?$_Vector_val@UCallBuff@@V?$allocator@UCallBuff@@@std@@@std@@@std@@YAPAUCallBuff@@V?$_Vector_iterator@V?$_Vector_val@UCallBuff@@V?$allocator@UCallBuff@@@std@@@std@@@0@@Z ENDP ; std::_Unchecked<std::_Vector_val<CallBuff,std::allocator<CallBuff> > >
_TEXT	ENDS
PUBLIC	??$construct@AAVioHashString@@@?$allocator@VioHashString@@@std@@QAEXPAVioHashString@@AAV2@@Z ; std::allocator<ioHashString>::construct<ioHashString &>
;	COMDAT xdata$x
; File c:\program files (x86)\microsoft visual studio 10.0\vc\include\utility
xdata$x	SEGMENT
__unwindtable$??$construct@AAVioHashString@@@?$allocator@VioHashString@@@std@@QAEXPAVioHashString@@AAV2@@Z DD 0ffffffffH
	DD	FLAT:__unwindfunclet$??$construct@AAVioHashString@@@?$allocator@VioHashString@@@std@@QAEXPAVioHashString@@AAV2@@Z$0
__ehfuncinfo$??$construct@AAVioHashString@@@?$allocator@VioHashString@@@std@@QAEXPAVioHashString@@AAV2@@Z DD 019930522H
	DD	01H
	DD	FLAT:__unwindtable$??$construct@AAVioHashString@@@?$allocator@VioHashString@@@std@@QAEXPAVioHashString@@AAV2@@Z
	DD	2 DUP(00H)
	DD	2 DUP(00H)
	DD	00H
	DD	01H
; Function compile flags: /Ogsp
; File c:\program files (x86)\microsoft visual studio 10.0\vc\include\xmemory
xdata$x	ENDS
;	COMDAT ??$construct@AAVioHashString@@@?$allocator@VioHashString@@@std@@QAEXPAVioHashString@@AAV2@@Z
_TEXT	SEGMENT
$T535860 = -16						; size = 4
__$EHRec$ = -12						; size = 12
__Ptr$ = 8						; size = 4
__Val$ = 12						; size = 4
??$construct@AAVioHashString@@@?$allocator@VioHashString@@@std@@QAEXPAVioHashString@@AAV2@@Z PROC ; std::allocator<ioHashString>::construct<ioHashString &>, COMDAT
; _this$ = ecx

; 206  : 		void construct(pointer _Ptr, _Other&& _Val)

  00000	6a 04		 push	 4
  00002	b8 00 00 00 00	 mov	 eax, __ehhandler$??$construct@AAVioHashString@@@?$allocator@VioHashString@@@std@@QAEXPAVioHashString@@AAV2@@Z
  00007	e8 00 00 00 00	 call	 __EH_prolog3

; 207  : 		{	// construct object at _Ptr with value _Val
; 208  : 		::new ((void _FARQ *)_Ptr) _Ty(_STD forward<_Other>(_Val));

  0000c	8b 4d 08	 mov	 ecx, DWORD PTR __Ptr$[ebp]
  0000f	89 4d f0	 mov	 DWORD PTR $T535860[ebp], ecx
  00012	83 65 fc 00	 and	 DWORD PTR __$EHRec$[ebp+8], 0
  00016	85 c9		 test	 ecx, ecx
  00018	74 09		 je	 SHORT $LN3@construct@4
  0001a	ff 75 0c	 push	 DWORD PTR __Val$[ebp]
  0001d	ff 15 00 00 00
	00		 call	 DWORD PTR __imp_??0ioHashString@@QAE@ABV0@@Z
$LN3@construct@4:

; 209  : 		}

  00023	e8 00 00 00 00	 call	 __EH_epilog3
  00028	c2 08 00	 ret	 8
_TEXT	ENDS
;	COMDAT text$x
text$x	SEGMENT
__unwindfunclet$??$construct@AAVioHashString@@@?$allocator@VioHashString@@@std@@QAEXPAVioHashString@@AAV2@@Z$0:
  00000	ff 75 08	 push	 DWORD PTR __Ptr$[ebp]
  00003	ff 75 f0	 push	 DWORD PTR $T535860[ebp]
  00006	e8 00 00 00 00	 call	 ??3@YAXPAX0@Z		; operator delete
  0000b	59		 pop	 ecx
  0000c	59		 pop	 ecx
  0000d	c3		 ret	 0
__ehhandler$??$construct@AAVioHashString@@@?$allocator@VioHashString@@@std@@QAEXPAVioHashString@@AAV2@@Z:
  0000e	8b 54 24 08	 mov	 edx, DWORD PTR [esp+8]
  00012	8d 42 0c	 lea	 eax, DWORD PTR [edx+12]
  00015	8b 4a ec	 mov	 ecx, DWORD PTR [edx-20]
  00018	33 c8		 xor	 ecx, eax
  0001a	e8 00 00 00 00	 call	 @__security_check_cookie@4
  0001f	b8 00 00 00 00	 mov	 eax, OFFSET __ehfuncinfo$??$construct@AAVioHashString@@@?$allocator@VioHashString@@@std@@QAEXPAVioHashString@@AAV2@@Z
  00024	e9 00 00 00 00	 jmp	 ___CxxFrameHandler3
text$x	ENDS
??$construct@AAVioHashString@@@?$allocator@VioHashString@@@std@@QAEXPAVioHashString@@AAV2@@Z ENDP ; std::allocator<ioHashString>::construct<ioHashString &>
PUBLIC	??$_Move@PAUCallBuff@@PAU1@@std@@YAPAUCallBuff@@PAU1@00U_Nonscalar_ptr_iterator_tag@0@@Z ; std::_Move<CallBuff *,CallBuff *>
; Function compile flags: /Ogsp
; File c:\program files (x86)\microsoft visual studio 10.0\vc\include\xutility
;	COMDAT ??$_Move@PAUCallBuff@@PAU1@@std@@YAPAUCallBuff@@PAU1@00U_Nonscalar_ptr_iterator_tag@0@@Z
_TEXT	SEGMENT
__First$ = 8						; size = 4
__Last$ = 12						; size = 4
__Dest$ = 16						; size = 4
___formal$ = 20						; size = 1
??$_Move@PAUCallBuff@@PAU1@@std@@YAPAUCallBuff@@PAU1@00U_Nonscalar_ptr_iterator_tag@0@@Z PROC ; std::_Move<CallBuff *,CallBuff *>, COMDAT

; 2512 : 	{	// move [_First, _Last) to [_Dest, ...), arbitrary iterators

  00000	55		 push	 ebp
  00001	8b ec		 mov	 ebp, esp
  00003	56		 push	 esi

; 2513 : 	for (; _First != _Last; ++_Dest, ++_First)

  00004	8b 75 08	 mov	 esi, DWORD PTR __First$[ebp]
  00007	eb 1a		 jmp	 SHORT $LN13@Move
$LL3@Move:

; 2514 : 		*_Dest = _STD move(*_First);

  00009	8b 4d 10	 mov	 ecx, DWORD PTR __Dest$[ebp]
  0000c	56		 push	 esi
  0000d	ff 15 00 00 00
	00		 call	 DWORD PTR __imp_??4ioHashString@@QAEAAV0@ABV0@@Z
  00013	8b 46 10	 mov	 eax, DWORD PTR [esi+16]
  00016	8b 4d 10	 mov	 ecx, DWORD PTR __Dest$[ebp]
  00019	83 45 10 14	 add	 DWORD PTR __Dest$[ebp], 20 ; 00000014H
  0001d	89 41 10	 mov	 DWORD PTR [ecx+16], eax
  00020	83 c6 14	 add	 esi, 20			; 00000014H
$LN13@Move:

; 2513 : 	for (; _First != _Last; ++_Dest, ++_First)

  00023	3b 75 0c	 cmp	 esi, DWORD PTR __Last$[ebp]
  00026	75 e1		 jne	 SHORT $LL3@Move

; 2515 : 	return (_Dest);

  00028	8b 45 10	 mov	 eax, DWORD PTR __Dest$[ebp]
  0002b	5e		 pop	 esi

; 2516 : 	}

  0002c	5d		 pop	 ebp
  0002d	c3		 ret	 0
??$_Move@PAUCallBuff@@PAU1@@std@@YAPAUCallBuff@@PAU1@00U_Nonscalar_ptr_iterator_tag@0@@Z ENDP ; std::_Move<CallBuff *,CallBuff *>
_TEXT	ENDS
PUBLIC	??$_Uninitialized_move@PAPAVioBaseChar@@PAPAV1@V?$allocator@PAVioBaseChar@@@std@@@std@@YAPAPAVioBaseChar@@PAPAV1@00AAV?$allocator@PAVioBaseChar@@@0@@Z ; std::_Uninitialized_move<ioBaseChar * *,ioBaseChar * *,std::allocator<ioBaseChar *> >
; Function compile flags: /Ogsp
; File c:\program files (x86)\microsoft visual studio 10.0\vc\include\memory
;	COMDAT ??$_Uninitialized_move@PAPAVioBaseChar@@PAPAV1@V?$allocator@PAVioBaseChar@@@std@@@std@@YAPAPAVioBaseChar@@PAPAV1@00AAV?$allocator@PAVioBaseChar@@@0@@Z
_TEXT	SEGMENT
__First$ = 8						; size = 4
__Last$ = 12						; size = 4
__Dest$ = 16						; size = 4
__Al$ = 20						; size = 4
??$_Uninitialized_move@PAPAVioBaseChar@@PAPAV1@V?$allocator@PAVioBaseChar@@@std@@@std@@YAPAPAVioBaseChar@@PAPAV1@00AAV?$allocator@PAVioBaseChar@@@0@@Z PROC ; std::_Uninitialized_move<ioBaseChar * *,ioBaseChar * *,std::allocator<ioBaseChar *> >, COMDAT

; 469  : 	{	// move [_First, _Last) to raw _Dest, using _Al

  00000	55		 push	 ebp
  00001	8b ec		 mov	 ebp, esp
  00003	56		 push	 esi

; 470  : 	return (_Uninit_move(_First, _Last, _Dest, _Al,
; 471  : 		_Val_type(_First), _Ptr_cat(_First, _Dest)));

  00004	8b 75 0c	 mov	 esi, DWORD PTR __Last$[ebp]
  00007	2b 75 08	 sub	 esi, DWORD PTR __First$[ebp]
  0000a	c1 fe 02	 sar	 esi, 2
  0000d	c1 e6 02	 shl	 esi, 2
  00010	56		 push	 esi
  00011	ff 75 08	 push	 DWORD PTR __First$[ebp]
  00014	ff 75 10	 push	 DWORD PTR __Dest$[ebp]
  00017	ff 15 00 00 00
	00		 call	 DWORD PTR __imp__memmove
  0001d	83 c4 0c	 add	 esp, 12			; 0000000cH
  00020	03 c6		 add	 eax, esi
  00022	5e		 pop	 esi

; 472  : 	}

  00023	5d		 pop	 ebp
  00024	c3		 ret	 0
??$_Uninitialized_move@PAPAVioBaseChar@@PAPAV1@V?$allocator@PAVioBaseChar@@@std@@@std@@YAPAPAVioBaseChar@@PAPAV1@00AAV?$allocator@PAVioBaseChar@@@0@@Z ENDP ; std::_Uninitialized_move<ioBaseChar * *,ioBaseChar * *,std::allocator<ioBaseChar *> >
_TEXT	ENDS
PUBLIC	??$?0AAPAUCallBuff@@AAPAU0@@?$pair@PAUCallBuff@@PAU1@@std@@QAE@AAPAUCallBuff@@0@Z ; std::pair<CallBuff *,CallBuff *>::pair<CallBuff *,CallBuff *><CallBuff * &,CallBuff * &>
; Function compile flags: /Ogsp
; File c:\program files (x86)\microsoft visual studio 10.0\vc\include\utility
;	COMDAT ??$?0AAPAUCallBuff@@AAPAU0@@?$pair@PAUCallBuff@@PAU1@@std@@QAE@AAPAUCallBuff@@0@Z
_TEXT	SEGMENT
__Val1$ = 8						; size = 4
__Val2$ = 12						; size = 4
??$?0AAPAUCallBuff@@AAPAU0@@?$pair@PAUCallBuff@@PAU1@@std@@QAE@AAPAUCallBuff@@0@Z PROC ; std::pair<CallBuff *,CallBuff *>::pair<CallBuff *,CallBuff *><CallBuff * &,CallBuff * &>, COMDAT
; _this$ = ecx

; 247  : 		{	// construct from moved values

  00000	55		 push	 ebp
  00001	8b ec		 mov	 ebp, esp
  00003	8b c1		 mov	 eax, ecx
  00005	8b 4d 08	 mov	 ecx, DWORD PTR __Val1$[ebp]
  00008	8b 09		 mov	 ecx, DWORD PTR [ecx]
  0000a	89 08		 mov	 DWORD PTR [eax], ecx
  0000c	8b 4d 0c	 mov	 ecx, DWORD PTR __Val2$[ebp]
  0000f	8b 09		 mov	 ecx, DWORD PTR [ecx]
  00011	89 48 04	 mov	 DWORD PTR [eax+4], ecx

; 248  : 		}

  00014	5d		 pop	 ebp
  00015	c2 08 00	 ret	 8
??$?0AAPAUCallBuff@@AAPAU0@@?$pair@PAUCallBuff@@PAU1@@std@@QAE@AAPAUCallBuff@@0@Z ENDP ; std::pair<CallBuff *,CallBuff *>::pair<CallBuff *,CallBuff *><CallBuff * &,CallBuff * &>
_TEXT	ENDS
PUBLIC	??$_Destroy@UCallBuff@@@std@@YAXPAUCallBuff@@@Z	; std::_Destroy<CallBuff>
; Function compile flags: /Ogsp
; File c:\program files (x86)\microsoft visual studio 10.0\vc\include\xmemory
;	COMDAT ??$_Destroy@UCallBuff@@@std@@YAXPAUCallBuff@@@Z
_TEXT	SEGMENT
__Ptr$ = 8						; size = 4
??$_Destroy@UCallBuff@@@std@@YAXPAUCallBuff@@@Z PROC	; std::_Destroy<CallBuff>, COMDAT

; 62   : 	{	// destroy object at _Ptr

  00000	55		 push	 ebp
  00001	8b ec		 mov	 ebp, esp

; 63   : 	_Ptr->~_Ty();

  00003	8b 4d 08	 mov	 ecx, DWORD PTR __Ptr$[ebp]

; 64   : 	}

  00006	5d		 pop	 ebp

; 63   : 	_Ptr->~_Ty();

  00007	ff 25 00 00 00
	00		 jmp	 DWORD PTR __imp_??1ioHashString@@QAE@XZ
??$_Destroy@UCallBuff@@@std@@YAXPAUCallBuff@@@Z ENDP	; std::_Destroy<CallBuff>
_TEXT	ENDS
PUBLIC	?construct@?$allocator@VioHashString@@@std@@QAEXPAVioHashString@@$$QAV3@@Z ; std::allocator<ioHashString>::construct
;	COMDAT xdata$x
; File c:\program files (x86)\microsoft visual studio 10.0\vc\include\utility
xdata$x	SEGMENT
__unwindtable$?construct@?$allocator@VioHashString@@@std@@QAEXPAVioHashString@@$$QAV3@@Z DD 0ffffffffH
	DD	FLAT:__unwindfunclet$?construct@?$allocator@VioHashString@@@std@@QAEXPAVioHashString@@$$QAV3@@Z$0
__ehfuncinfo$?construct@?$allocator@VioHashString@@@std@@QAEXPAVioHashString@@$$QAV3@@Z DD 019930522H
	DD	01H
	DD	FLAT:__unwindtable$?construct@?$allocator@VioHashString@@@std@@QAEXPAVioHashString@@$$QAV3@@Z
	DD	2 DUP(00H)
	DD	2 DUP(00H)
	DD	00H
	DD	01H
; Function compile flags: /Ogsp
; File c:\program files (x86)\microsoft visual studio 10.0\vc\include\xmemory
xdata$x	ENDS
;	COMDAT ?construct@?$allocator@VioHashString@@@std@@QAEXPAVioHashString@@$$QAV3@@Z
_TEXT	SEGMENT
$T535939 = -16						; size = 4
__$EHRec$ = -12						; size = 12
__Ptr$ = 8						; size = 4
__Val$ = 12						; size = 4
?construct@?$allocator@VioHashString@@@std@@QAEXPAVioHashString@@$$QAV3@@Z PROC ; std::allocator<ioHashString>::construct, COMDAT
; _this$ = ecx

; 201  : 		{	// construct object at _Ptr with value _Val

  00000	6a 04		 push	 4
  00002	b8 00 00 00 00	 mov	 eax, __ehhandler$?construct@?$allocator@VioHashString@@@std@@QAEXPAVioHashString@@$$QAV3@@Z
  00007	e8 00 00 00 00	 call	 __EH_prolog3

; 202  : 		::new ((void _FARQ *)_Ptr) _Ty(_STD forward<_Ty>(_Val));

  0000c	8b 4d 08	 mov	 ecx, DWORD PTR __Ptr$[ebp]
  0000f	89 4d f0	 mov	 DWORD PTR $T535939[ebp], ecx
  00012	83 65 fc 00	 and	 DWORD PTR __$EHRec$[ebp+8], 0
  00016	85 c9		 test	 ecx, ecx
  00018	74 09		 je	 SHORT $LN3@construct@5
  0001a	ff 75 0c	 push	 DWORD PTR __Val$[ebp]
  0001d	ff 15 00 00 00
	00		 call	 DWORD PTR __imp_??0ioHashString@@QAE@ABV0@@Z
$LN3@construct@5:

; 203  : 		}

  00023	e8 00 00 00 00	 call	 __EH_epilog3
  00028	c2 08 00	 ret	 8
_TEXT	ENDS
;	COMDAT text$x
text$x	SEGMENT
__unwindfunclet$?construct@?$allocator@VioHashString@@@std@@QAEXPAVioHashString@@$$QAV3@@Z$0:
  00000	ff 75 08	 push	 DWORD PTR __Ptr$[ebp]
  00003	ff 75 f0	 push	 DWORD PTR $T535939[ebp]
  00006	e8 00 00 00 00	 call	 ??3@YAXPAX0@Z		; operator delete
  0000b	59		 pop	 ecx
  0000c	59		 pop	 ecx
  0000d	c3		 ret	 0
__ehhandler$?construct@?$allocator@VioHashString@@@std@@QAEXPAVioHashString@@$$QAV3@@Z:
  0000e	8b 54 24 08	 mov	 edx, DWORD PTR [esp+8]
  00012	8d 42 0c	 lea	 eax, DWORD PTR [edx+12]
  00015	8b 4a ec	 mov	 ecx, DWORD PTR [edx-20]
  00018	33 c8		 xor	 ecx, eax
  0001a	e8 00 00 00 00	 call	 @__security_check_cookie@4
  0001f	b8 00 00 00 00	 mov	 eax, OFFSET __ehfuncinfo$?construct@?$allocator@VioHashString@@@std@@QAEXPAVioHashString@@$$QAV3@@Z
  00024	e9 00 00 00 00	 jmp	 ___CxxFrameHandler3
text$x	ENDS
?construct@?$allocator@VioHashString@@@std@@QAEXPAVioHashString@@$$QAV3@@Z ENDP ; std::allocator<ioHashString>::construct
PUBLIC	?construct@?$allocator@UCallBuff@@@std@@QAEXPAUCallBuff@@$$QAU3@@Z ; std::allocator<CallBuff>::construct
;	COMDAT xdata$x
; File d:\lost saga for developer\youtube\tutorial\source\src\lsclient\ioinfectionbuff.cpp
xdata$x	SEGMENT
__unwindtable$?construct@?$allocator@UCallBuff@@@std@@QAEXPAUCallBuff@@$$QAU3@@Z DD 0ffffffffH
	DD	FLAT:__unwindfunclet$?construct@?$allocator@UCallBuff@@@std@@QAEXPAUCallBuff@@$$QAU3@@Z$0
__ehfuncinfo$?construct@?$allocator@UCallBuff@@@std@@QAEXPAUCallBuff@@$$QAU3@@Z DD 019930522H
	DD	01H
	DD	FLAT:__unwindtable$?construct@?$allocator@UCallBuff@@@std@@QAEXPAUCallBuff@@$$QAU3@@Z
	DD	2 DUP(00H)
	DD	2 DUP(00H)
	DD	00H
	DD	01H
; Function compile flags: /Ogsp
; File c:\program files (x86)\microsoft visual studio 10.0\vc\include\xmemory
xdata$x	ENDS
;	COMDAT ?construct@?$allocator@UCallBuff@@@std@@QAEXPAUCallBuff@@$$QAU3@@Z
_TEXT	SEGMENT
$T535958 = -16						; size = 4
__$EHRec$ = -12						; size = 12
__Ptr$ = 8						; size = 4
__Val$ = 12						; size = 4
?construct@?$allocator@UCallBuff@@@std@@QAEXPAUCallBuff@@$$QAU3@@Z PROC ; std::allocator<CallBuff>::construct, COMDAT
; _this$ = ecx

; 201  : 		{	// construct object at _Ptr with value _Val

  00000	6a 04		 push	 4
  00002	b8 00 00 00 00	 mov	 eax, __ehhandler$?construct@?$allocator@UCallBuff@@@std@@QAEXPAUCallBuff@@$$QAU3@@Z
  00007	e8 00 00 00 00	 call	 __EH_prolog3

; 202  : 		::new ((void _FARQ *)_Ptr) _Ty(_STD forward<_Ty>(_Val));

  0000c	8b 75 08	 mov	 esi, DWORD PTR __Ptr$[ebp]
  0000f	89 75 f0	 mov	 DWORD PTR $T535958[ebp], esi
  00012	83 65 fc 00	 and	 DWORD PTR __$EHRec$[ebp+8], 0
  00016	85 f6		 test	 esi, esi
  00018	74 12		 je	 SHORT $LN3@construct@6
  0001a	8b 7d 0c	 mov	 edi, DWORD PTR __Val$[ebp]
  0001d	57		 push	 edi
  0001e	8b ce		 mov	 ecx, esi
  00020	ff 15 00 00 00
	00		 call	 DWORD PTR __imp_??0ioHashString@@QAE@ABV0@@Z
  00026	8b 47 10	 mov	 eax, DWORD PTR [edi+16]
  00029	89 46 10	 mov	 DWORD PTR [esi+16], eax
$LN3@construct@6:

; 203  : 		}

  0002c	e8 00 00 00 00	 call	 __EH_epilog3
  00031	c2 08 00	 ret	 8
_TEXT	ENDS
;	COMDAT text$x
text$x	SEGMENT
__unwindfunclet$?construct@?$allocator@UCallBuff@@@std@@QAEXPAUCallBuff@@$$QAU3@@Z$0:
  00000	ff 75 08	 push	 DWORD PTR __Ptr$[ebp]
  00003	ff 75 f0	 push	 DWORD PTR $T535958[ebp]
  00006	e8 00 00 00 00	 call	 ??3@YAXPAX0@Z		; operator delete
  0000b	59		 pop	 ecx
  0000c	59		 pop	 ecx
  0000d	c3		 ret	 0
__ehhandler$?construct@?$allocator@UCallBuff@@@std@@QAEXPAUCallBuff@@$$QAU3@@Z:
  0000e	8b 54 24 08	 mov	 edx, DWORD PTR [esp+8]
  00012	8d 42 0c	 lea	 eax, DWORD PTR [edx+12]
  00015	8b 4a ec	 mov	 ecx, DWORD PTR [edx-20]
  00018	33 c8		 xor	 ecx, eax
  0001a	e8 00 00 00 00	 call	 @__security_check_cookie@4
  0001f	b8 00 00 00 00	 mov	 eax, OFFSET __ehfuncinfo$?construct@?$allocator@UCallBuff@@@std@@QAEXPAUCallBuff@@$$QAU3@@Z
  00024	e9 00 00 00 00	 jmp	 ___CxxFrameHandler3
text$x	ENDS
?construct@?$allocator@UCallBuff@@@std@@QAEXPAUCallBuff@@$$QAU3@@Z ENDP ; std::allocator<CallBuff>::construct
PUBLIC	??$swap@UCallBuff@@@std@@YAXAAUCallBuff@@0@Z	; std::swap<CallBuff>
;	COMDAT xdata$x
; File d:\lost saga for developer\youtube\tutorial\source\src\lsclient\ioinfectionbuff.cpp
xdata$x	SEGMENT
__unwindtable$??$swap@UCallBuff@@@std@@YAXAAUCallBuff@@0@Z DD 0ffffffffH
	DD	FLAT:__unwindfunclet$??$swap@UCallBuff@@@std@@YAXAAUCallBuff@@0@Z$0
__ehfuncinfo$??$swap@UCallBuff@@@std@@YAXAAUCallBuff@@0@Z DD 019930522H
	DD	01H
	DD	FLAT:__unwindtable$??$swap@UCallBuff@@@std@@YAXAAUCallBuff@@0@Z
	DD	2 DUP(00H)
	DD	2 DUP(00H)
	DD	00H
	DD	01H
; Function compile flags: /Ogsp
; File c:\program files (x86)\microsoft visual studio 10.0\vc\include\utility
xdata$x	ENDS
;	COMDAT ??$swap@UCallBuff@@@std@@YAXAAUCallBuff@@0@Z
_TEXT	SEGMENT
__Tmp$ = -32						; size = 20
__$EHRec$ = -12						; size = 12
__Left$ = 8						; size = 4
__Right$ = 12						; size = 4
??$swap@UCallBuff@@@std@@YAXAAUCallBuff@@0@Z PROC	; std::swap<CallBuff>, COMDAT

; 101  : 	{	// exchange values stored at _Left and _Right

  00000	6a 14		 push	 20			; 00000014H
  00002	b8 00 00 00 00	 mov	 eax, __ehhandler$??$swap@UCallBuff@@@std@@YAXAAUCallBuff@@0@Z
  00007	e8 00 00 00 00	 call	 __EH_prolog3

; 102  : 	_Ty _Tmp = _Move(_Left);

  0000c	8b 75 08	 mov	 esi, DWORD PTR __Left$[ebp]
  0000f	56		 push	 esi
  00010	8d 4d e0	 lea	 ecx, DWORD PTR __Tmp$[ebp]
  00013	ff 15 00 00 00
	00		 call	 DWORD PTR __imp_??0ioHashString@@QAE@ABV0@@Z
  00019	8b 46 10	 mov	 eax, DWORD PTR [esi+16]
  0001c	89 45 f0	 mov	 DWORD PTR __Tmp$[ebp+16], eax

; 103  : 	_Left = _Move(_Right);

  0001f	8b 7d 0c	 mov	 edi, DWORD PTR __Right$[ebp]
  00022	8b 1d 00 00 00
	00		 mov	 ebx, DWORD PTR __imp_??4ioHashString@@QAEAAV0@ABV0@@Z
  00028	83 65 fc 00	 and	 DWORD PTR __$EHRec$[ebp+8], 0
  0002c	57		 push	 edi
  0002d	8b ce		 mov	 ecx, esi
  0002f	ff d3		 call	 ebx
  00031	8b 47 10	 mov	 eax, DWORD PTR [edi+16]
  00034	89 46 10	 mov	 DWORD PTR [esi+16], eax

; 104  : 	_Right = _Move(_Tmp);

  00037	8d 45 e0	 lea	 eax, DWORD PTR __Tmp$[ebp]
  0003a	50		 push	 eax
  0003b	8b cf		 mov	 ecx, edi
  0003d	ff d3		 call	 ebx
  0003f	8b 45 f0	 mov	 eax, DWORD PTR __Tmp$[ebp+16]

; 105  : 	}

  00042	83 4d fc ff	 or	 DWORD PTR __$EHRec$[ebp+8], -1
  00046	8d 4d e0	 lea	 ecx, DWORD PTR __Tmp$[ebp]
  00049	89 47 10	 mov	 DWORD PTR [edi+16], eax
  0004c	ff 15 00 00 00
	00		 call	 DWORD PTR __imp_??1ioHashString@@QAE@XZ
  00052	e8 00 00 00 00	 call	 __EH_epilog3
  00057	c3		 ret	 0
_TEXT	ENDS
;	COMDAT text$x
text$x	SEGMENT
__unwindfunclet$??$swap@UCallBuff@@@std@@YAXAAUCallBuff@@0@Z$0:
  00000	8d 4d e0	 lea	 ecx, DWORD PTR __Tmp$[ebp]
  00003	e9 00 00 00 00	 jmp	 ??1CallBuff@@QAE@XZ
__ehhandler$??$swap@UCallBuff@@@std@@YAXAAUCallBuff@@0@Z:
  00008	8b 54 24 08	 mov	 edx, DWORD PTR [esp+8]
  0000c	8d 42 0c	 lea	 eax, DWORD PTR [edx+12]
  0000f	8b 4a dc	 mov	 ecx, DWORD PTR [edx-36]
  00012	33 c8		 xor	 ecx, eax
  00014	e8 00 00 00 00	 call	 @__security_check_cookie@4
  00019	b8 00 00 00 00	 mov	 eax, OFFSET __ehfuncinfo$??$swap@UCallBuff@@@std@@YAXAAUCallBuff@@0@Z
  0001e	e9 00 00 00 00	 jmp	 ___CxxFrameHandler3
text$x	ENDS
??$swap@UCallBuff@@@std@@YAXAAUCallBuff@@0@Z ENDP	; std::swap<CallBuff>
PUBLIC	??$_Move_backward@PAUCallBuff@@PAU1@@std@@YAPAUCallBuff@@PAU1@00@Z ; std::_Move_backward<CallBuff *,CallBuff *>
; Function compile flags: /Ogsp
; File c:\program files (x86)\microsoft visual studio 10.0\vc\include\xutility
;	COMDAT ??$_Move_backward@PAUCallBuff@@PAU1@@std@@YAPAUCallBuff@@PAU1@00@Z
_TEXT	SEGMENT
__Cat$536015 = -4					; size = 1
__First$ = 8						; size = 4
__Last$ = 12						; size = 4
__Dest$ = 16						; size = 4
??$_Move_backward@PAUCallBuff@@PAU1@@std@@YAPAUCallBuff@@PAU1@00@Z PROC ; std::_Move_backward<CallBuff *,CallBuff *>, COMDAT

; 2638 : 	{	// move [_First, _Last) backwards to [..., _Dest), unchecked

  00000	55		 push	 ebp
  00001	8b ec		 mov	 ebp, esp
  00003	51		 push	 ecx

; 2639 : 	return (_Move_backward(_First, _Last,
; 2640 : 		_Dest, _Ptr_cat(_First, _Dest)));

  00004	ff 75 fc	 push	 DWORD PTR __Cat$536015[ebp]
  00007	ff 75 10	 push	 DWORD PTR __Dest$[ebp]
  0000a	ff 75 0c	 push	 DWORD PTR __Last$[ebp]
  0000d	ff 75 08	 push	 DWORD PTR __First$[ebp]
  00010	e8 00 00 00 00	 call	 ??$_Move_backward@PAUCallBuff@@PAU1@@std@@YAPAUCallBuff@@PAU1@00U_Nonscalar_ptr_iterator_tag@0@@Z ; std::_Move_backward<CallBuff *,CallBuff *>
  00015	83 c4 10	 add	 esp, 16			; 00000010H

; 2641 : 	}

  00018	c9		 leave
  00019	c3		 ret	 0
??$_Move_backward@PAUCallBuff@@PAU1@@std@@YAPAUCallBuff@@PAU1@00@Z ENDP ; std::_Move_backward<CallBuff *,CallBuff *>
_TEXT	ENDS
PUBLIC	??$_Push_heap@PAUCallBuff@@HU1@VCallBuffSort@@@std@@YAXPAUCallBuff@@HH$$QAU1@VCallBuffSort@@@Z ; std::_Push_heap<CallBuff *,int,CallBuff,CallBuffSort>
; Function compile flags: /Ogsp
; File c:\program files (x86)\microsoft visual studio 10.0\vc\include\algorithm
;	COMDAT ??$_Push_heap@PAUCallBuff@@HU1@VCallBuffSort@@@std@@YAXPAUCallBuff@@HH$$QAU1@VCallBuffSort@@@Z
_TEXT	SEGMENT
__First$ = 8						; size = 4
tv164 = 12						; size = 4
__Hole$ = 12						; size = 4
__Top$ = 16						; size = 4
__Val$ = 20						; size = 4
__Pred$ = 24						; size = 1
??$_Push_heap@PAUCallBuff@@HU1@VCallBuffSort@@@std@@YAXPAUCallBuff@@HH$$QAU1@VCallBuffSort@@@Z PROC ; std::_Push_heap<CallBuff *,int,CallBuff,CallBuffSort>, COMDAT

; 2455 : 	{	// percolate _Hole to _Top or where _Val belongs, using operator<

  00000	55		 push	 ebp
  00001	8b ec		 mov	 ebp, esp
  00003	53		 push	 ebx

; 2456 : 	for (_Diff _Idx = (_Hole - 1) / 2;
; 2457 : 		_Top < _Hole && _DEBUG_LT_PRED(_Pred, *(_First + _Idx), _Val);
; 2458 : 		_Idx = (_Hole - 1) / 2)

  00004	8b 5d 08	 mov	 ebx, DWORD PTR __First$[ebp]
  00007	56		 push	 esi
  00008	8b 75 0c	 mov	 esi, DWORD PTR __Hole$[ebp]
  0000b	8d 46 ff	 lea	 eax, DWORD PTR [esi-1]
  0000e	99		 cdq
  0000f	2b c2		 sub	 eax, edx
  00011	57		 push	 edi
  00012	8b f8		 mov	 edi, eax
  00014	d1 ff		 sar	 edi, 1
  00016	eb 3f		 jmp	 SHORT $LN16@Push_heap
$LL3@Push_heap:
  00018	ff 75 14	 push	 DWORD PTR __Val$[ebp]
  0001b	8b c7		 mov	 eax, edi
  0001d	6b c0 14	 imul	 eax, 20			; 00000014H
  00020	03 c3		 add	 eax, ebx
  00022	50		 push	 eax
  00023	8d 4d 18	 lea	 ecx, DWORD PTR __Pred$[ebp]
  00026	89 45 0c	 mov	 DWORD PTR tv164[ebp], eax
  00029	e8 00 00 00 00	 call	 ??RCallBuffSort@@QBE_NABUCallBuff@@0@Z ; CallBuffSort::operator()
  0002e	84 c0		 test	 al, al
  00030	74 2a		 je	 SHORT $LN1@Push_heap

; 2459 : 		{	// move _Hole up to parent
; 2460 : 		*(_First + _Hole) = _Move(*(_First + _Idx));

  00032	ff 75 0c	 push	 DWORD PTR tv164[ebp]
  00035	6b f6 14	 imul	 esi, 20			; 00000014H
  00038	03 f3		 add	 esi, ebx
  0003a	8b ce		 mov	 ecx, esi
  0003c	ff 15 00 00 00
	00		 call	 DWORD PTR __imp_??4ioHashString@@QAEAAV0@ABV0@@Z
  00042	8b 45 0c	 mov	 eax, DWORD PTR tv164[ebp]
  00045	8b 40 10	 mov	 eax, DWORD PTR [eax+16]
  00048	89 46 10	 mov	 DWORD PTR [esi+16], eax
  0004b	8d 47 ff	 lea	 eax, DWORD PTR [edi-1]
  0004e	99		 cdq
  0004f	2b c2		 sub	 eax, edx
  00051	d1 f8		 sar	 eax, 1

; 2461 : 		_Hole = _Idx;

  00053	8b f7		 mov	 esi, edi
  00055	8b f8		 mov	 edi, eax
$LN16@Push_heap:

; 2456 : 	for (_Diff _Idx = (_Hole - 1) / 2;
; 2457 : 		_Top < _Hole && _DEBUG_LT_PRED(_Pred, *(_First + _Idx), _Val);
; 2458 : 		_Idx = (_Hole - 1) / 2)

  00057	39 75 10	 cmp	 DWORD PTR __Top$[ebp], esi
  0005a	7c bc		 jl	 SHORT $LL3@Push_heap
$LN1@Push_heap:

; 2462 : 		}
; 2463 : 
; 2464 : 	*(_First + _Hole) = _Move(_Val);	// drop _Val into final hole

  0005c	8b 7d 14	 mov	 edi, DWORD PTR __Val$[ebp]
  0005f	6b f6 14	 imul	 esi, 20			; 00000014H
  00062	03 f3		 add	 esi, ebx
  00064	57		 push	 edi
  00065	8b ce		 mov	 ecx, esi
  00067	ff 15 00 00 00
	00		 call	 DWORD PTR __imp_??4ioHashString@@QAEAAV0@ABV0@@Z
  0006d	8b 47 10	 mov	 eax, DWORD PTR [edi+16]
  00070	5f		 pop	 edi
  00071	89 46 10	 mov	 DWORD PTR [esi+16], eax
  00074	5e		 pop	 esi
  00075	5b		 pop	 ebx

; 2465 : 	}

  00076	5d		 pop	 ebp
  00077	c3		 ret	 0
??$_Push_heap@PAUCallBuff@@HU1@VCallBuffSort@@@std@@YAXPAUCallBuff@@HH$$QAU1@VCallBuffSort@@@Z ENDP ; std::_Push_heap<CallBuff *,int,CallBuff,CallBuffSort>
_TEXT	ENDS
PUBLIC	??0?$CEncrypt@M@@QAE@XZ				; CEncrypt<float>::CEncrypt<float>
EXTRN	??0ccddaabb@@QAE@XZ:PROC			; ccddaabb::ccddaabb
;	COMDAT xdata$x
; File d:\lost saga for developer\youtube\tutorial\source\src\lsclient\encryptvalue.h
xdata$x	SEGMENT
__unwindtable$??0?$CEncrypt@M@@QAE@XZ DD 0ffffffffH
	DD	FLAT:__unwindfunclet$??0?$CEncrypt@M@@QAE@XZ$0
__ehfuncinfo$??0?$CEncrypt@M@@QAE@XZ DD 019930522H
	DD	01H
	DD	FLAT:__unwindtable$??0?$CEncrypt@M@@QAE@XZ
	DD	2 DUP(00H)
	DD	2 DUP(00H)
	DD	00H
	DD	01H
; Function compile flags: /Ogsp
xdata$x	ENDS
;	COMDAT ??0?$CEncrypt@M@@QAE@XZ
_TEXT	SEGMENT
_this$ = -16						; size = 4
__$EHRec$ = -12						; size = 12
??0?$CEncrypt@M@@QAE@XZ PROC				; CEncrypt<float>::CEncrypt<float>, COMDAT
; _this$ = ecx

; 109  : 	CEncrypt()

  00000	6a 04		 push	 4
  00002	b8 00 00 00 00	 mov	 eax, __ehhandler$??0?$CEncrypt@M@@QAE@XZ
  00007	e8 00 00 00 00	 call	 __EH_prolog3
  0000c	8b f1		 mov	 esi, ecx
  0000e	89 75 f0	 mov	 DWORD PTR _this$[ebp], esi
  00011	8d 4e 0c	 lea	 ecx, DWORD PTR [esi+12]
  00014	c7 06 00 00 00
	00		 mov	 DWORD PTR [esi], OFFSET ??_7?$CEncrypt@M@@6B@
  0001a	e8 00 00 00 00	 call	 ??0ccddaabb@@QAE@XZ	; ccddaabb::ccddaabb
  0001f	83 65 fc 00	 and	 DWORD PTR __$EHRec$[ebp+8], 0

; 110  : 	{
; 111  : 		Init();

  00023	8b ce		 mov	 ecx, esi
  00025	e8 00 00 00 00	 call	 ?Init@?$CEncrypt@M@@AAEXXZ ; CEncrypt<float>::Init

; 112  : 	}

  0002a	8b c6		 mov	 eax, esi
  0002c	e8 00 00 00 00	 call	 __EH_epilog3
  00031	c3		 ret	 0
_TEXT	ENDS
;	COMDAT text$x
text$x	SEGMENT
__unwindfunclet$??0?$CEncrypt@M@@QAE@XZ$0:
  00000	8b 4d f0	 mov	 ecx, DWORD PTR _this$[ebp]
  00003	83 c1 0c	 add	 ecx, 12			; 0000000cH
  00006	e9 00 00 00 00	 jmp	 ??1ccddaabb@@UAE@XZ	; ccddaabb::~ccddaabb
__ehhandler$??0?$CEncrypt@M@@QAE@XZ:
  0000b	8b 54 24 08	 mov	 edx, DWORD PTR [esp+8]
  0000f	8d 42 0c	 lea	 eax, DWORD PTR [edx+12]
  00012	8b 4a ec	 mov	 ecx, DWORD PTR [edx-20]
  00015	33 c8		 xor	 ecx, eax
  00017	e8 00 00 00 00	 call	 @__security_check_cookie@4
  0001c	b8 00 00 00 00	 mov	 eax, OFFSET __ehfuncinfo$??0?$CEncrypt@M@@QAE@XZ
  00021	e9 00 00 00 00	 jmp	 ___CxxFrameHandler3
text$x	ENDS
??0?$CEncrypt@M@@QAE@XZ ENDP				; CEncrypt<float>::CEncrypt<float>
PUBLIC	??B?$CEncrypt@M@@QAEMXZ				; CEncrypt<float>::operator float
; Function compile flags: /Ogsp
;	COMDAT ??B?$CEncrypt@M@@QAEMXZ
_TEXT	SEGMENT
_value$ = -4						; size = 4
??B?$CEncrypt@M@@QAEMXZ PROC				; CEncrypt<float>::operator float, COMDAT
; _this$ = ecx

; 134  : 	{

  00000	55		 push	 ebp
  00001	8b ec		 mov	 ebp, esp
  00003	51		 push	 ecx

; 135  : 		type value;
; 136  : 		DecryptValueToPool(&value);

  00004	8d 45 fc	 lea	 eax, DWORD PTR _value$[ebp]
  00007	50		 push	 eax
  00008	e8 00 00 00 00	 call	 ?DecryptValueToPool@?$CEncrypt@M@@QAEXPAM@Z ; CEncrypt<float>::DecryptValueToPool

; 137  : 
; 138  : #ifdef _NOTUSE
; 139  : 		Debug();
; 140  : #endif
; 141  : 		return value;

  0000d	d9 45 fc	 fld	 DWORD PTR _value$[ebp]

; 142  : 	}

  00010	c9		 leave
  00011	c3		 ret	 0
??B?$CEncrypt@M@@QAEMXZ ENDP				; CEncrypt<float>::operator float
_TEXT	ENDS
PUBLIC	??B?$CEncrypt@M@@QBEMXZ				; CEncrypt<float>::operator float
; Function compile flags: /Ogsp
;	COMDAT ??B?$CEncrypt@M@@QBEMXZ
_TEXT	SEGMENT
_value$ = -4						; size = 4
??B?$CEncrypt@M@@QBEMXZ PROC				; CEncrypt<float>::operator float, COMDAT
; _this$ = ecx

; 145  : 	{

  00000	55		 push	 ebp
  00001	8b ec		 mov	 ebp, esp
  00003	51		 push	 ecx

; 146  : 		//UJ 130829, const    --start
; 147  : 		type value;
; 148  : 		CEncrypt<type>* pThis = const_cast<CEncrypt<type>*>(this);
; 149  : 		pThis->DecryptValueToPool(&value);

  00004	8d 45 fc	 lea	 eax, DWORD PTR _value$[ebp]
  00007	50		 push	 eax
  00008	e8 00 00 00 00	 call	 ?DecryptValueToPool@?$CEncrypt@M@@QAEXPAM@Z ; CEncrypt<float>::DecryptValueToPool

; 150  : 		//// const DecryptValueToPool     .
; 151  :  		//type value;
; 152  : 		//char szTempMem[MAX_ENCRYPT];
; 153  : 		//m_RC5.DecryptByte( m_MemPool, szTempMem, max(m_ValueSize, DEFAULT_ENCRYPT) );
; 154  : 		//memcpy( &value, szTempMem, m_ValueSize );
; 155  : 		//UJ --end
; 156  : 
; 157  : #ifdef _NOTUSE
; 158  : 		Debug();
; 159  : #endif
; 160  : 		return value;

  0000d	d9 45 fc	 fld	 DWORD PTR _value$[ebp]

; 161  : 	}

  00010	c9		 leave
  00011	c3		 ret	 0
??B?$CEncrypt@M@@QBEMXZ ENDP				; CEncrypt<float>::operator float
_TEXT	ENDS
PUBLIC	??4?$CEncrypt@M@@QAEMM@Z			; CEncrypt<float>::operator=
; Function compile flags: /Ogsp
;	COMDAT ??4?$CEncrypt@M@@QAEMM@Z
_TEXT	SEGMENT
_value$ = 8						; size = 4
_inValue$ = 8						; size = 4
??4?$CEncrypt@M@@QAEMM@Z PROC				; CEncrypt<float>::operator=, COMDAT
; _this$ = ecx

; 1654 : 	{	

  00000	55		 push	 ebp
  00001	8b ec		 mov	 ebp, esp

; 1655 : 		type value = inValue;

  00003	d9 45 08	 fld	 DWORD PTR _inValue$[ebp]

; 1656 : 		EncryptValueToPool((char*)&value);

  00006	8d 45 08	 lea	 eax, DWORD PTR _value$[ebp]
  00009	50		 push	 eax
  0000a	d9 5d 08	 fstp	 DWORD PTR _value$[ebp]
  0000d	e8 00 00 00 00	 call	 ?EncryptValueToPool@?$CEncrypt@M@@AAEXPBD@Z ; CEncrypt<float>::EncryptValueToPool

; 1657 : #ifdef _NOTUSE
; 1658 : 		m_value = inValue;
; 1659 : 		Debug();
; 1660 : #endif
; 1661 : 		return value;

  00012	d9 45 08	 fld	 DWORD PTR _value$[ebp]

; 1662 : 	}

  00015	5d		 pop	 ebp
  00016	c2 04 00	 ret	 4
??4?$CEncrypt@M@@QAEMM@Z ENDP				; CEncrypt<float>::operator=
_TEXT	ENDS
PUBLIC	??B?$CEncrypt@K@@QBEKXZ				; CEncrypt<unsigned long>::operator unsigned long
; Function compile flags: /Ogsp
;	COMDAT ??B?$CEncrypt@K@@QBEKXZ
_TEXT	SEGMENT
_value$ = -4						; size = 4
??B?$CEncrypt@K@@QBEKXZ PROC				; CEncrypt<unsigned long>::operator unsigned long, COMDAT
; _this$ = ecx

; 145  : 	{

  00000	55		 push	 ebp
  00001	8b ec		 mov	 ebp, esp
  00003	51		 push	 ecx

; 146  : 		//UJ 130829, const    --start
; 147  : 		type value;
; 148  : 		CEncrypt<type>* pThis = const_cast<CEncrypt<type>*>(this);
; 149  : 		pThis->DecryptValueToPool(&value);

  00004	8d 45 fc	 lea	 eax, DWORD PTR _value$[ebp]
  00007	50		 push	 eax
  00008	e8 00 00 00 00	 call	 ?DecryptValueToPool@?$CEncrypt@K@@QAEXPAK@Z ; CEncrypt<unsigned long>::DecryptValueToPool

; 150  : 		//// const DecryptValueToPool     .
; 151  :  		//type value;
; 152  : 		//char szTempMem[MAX_ENCRYPT];
; 153  : 		//m_RC5.DecryptByte( m_MemPool, szTempMem, max(m_ValueSize, DEFAULT_ENCRYPT) );
; 154  : 		//memcpy( &value, szTempMem, m_ValueSize );
; 155  : 		//UJ --end
; 156  : 
; 157  : #ifdef _NOTUSE
; 158  : 		Debug();
; 159  : #endif
; 160  : 		return value;

  0000d	8b 45 fc	 mov	 eax, DWORD PTR _value$[ebp]

; 161  : 	}

  00010	c9		 leave
  00011	c3		 ret	 0
??B?$CEncrypt@K@@QBEKXZ ENDP				; CEncrypt<unsigned long>::operator unsigned long
_TEXT	ENDS
PUBLIC	??4?$CEncrypt@K@@QAEKK@Z			; CEncrypt<unsigned long>::operator=
; Function compile flags: /Ogsp
;	COMDAT ??4?$CEncrypt@K@@QAEKK@Z
_TEXT	SEGMENT
_value$ = 8						; size = 4
_inValue$ = 8						; size = 4
??4?$CEncrypt@K@@QAEKK@Z PROC				; CEncrypt<unsigned long>::operator=, COMDAT
; _this$ = ecx

; 1262 : 	{

  00000	55		 push	 ebp
  00001	8b ec		 mov	 ebp, esp

; 1263 : 		
; 1264 : 		type value = inValue;

  00003	8b 45 08	 mov	 eax, DWORD PTR _inValue$[ebp]
  00006	89 45 08	 mov	 DWORD PTR _value$[ebp], eax

; 1265 : 		EncryptValueToPool((char*)&value);

  00009	8d 45 08	 lea	 eax, DWORD PTR _value$[ebp]
  0000c	50		 push	 eax
  0000d	e8 00 00 00 00	 call	 ?EncryptValueToPool@?$CEncrypt@K@@AAEXPBD@Z ; CEncrypt<unsigned long>::EncryptValueToPool

; 1266 : #ifdef _NOTUSE
; 1267 : 		m_value = inValue;
; 1268 : 		Debug();
; 1269 : #endif
; 1270 : 		return value;

  00012	8b 45 08	 mov	 eax, DWORD PTR _value$[ebp]

; 1271 : 	}

  00015	5d		 pop	 ebp
  00016	c2 04 00	 ret	 4
??4?$CEncrypt@K@@QAEKK@Z ENDP				; CEncrypt<unsigned long>::operator=
_TEXT	ENDS
PUBLIC	??B?$CEncrypt@_N@@QBE_NXZ			; CEncrypt<bool>::operator bool
; Function compile flags: /Ogsp
;	COMDAT ??B?$CEncrypt@_N@@QBE_NXZ
_TEXT	SEGMENT
_value$ = -1						; size = 1
??B?$CEncrypt@_N@@QBE_NXZ PROC				; CEncrypt<bool>::operator bool, COMDAT
; _this$ = ecx

; 145  : 	{

  00000	55		 push	 ebp
  00001	8b ec		 mov	 ebp, esp
  00003	51		 push	 ecx

; 146  : 		//UJ 130829, const    --start
; 147  : 		type value;
; 148  : 		CEncrypt<type>* pThis = const_cast<CEncrypt<type>*>(this);
; 149  : 		pThis->DecryptValueToPool(&value);

  00004	8d 45 ff	 lea	 eax, DWORD PTR _value$[ebp]
  00007	50		 push	 eax
  00008	e8 00 00 00 00	 call	 ?DecryptValueToPool@?$CEncrypt@_N@@QAEXPA_N@Z ; CEncrypt<bool>::DecryptValueToPool

; 150  : 		//// const DecryptValueToPool     .
; 151  :  		//type value;
; 152  : 		//char szTempMem[MAX_ENCRYPT];
; 153  : 		//m_RC5.DecryptByte( m_MemPool, szTempMem, max(m_ValueSize, DEFAULT_ENCRYPT) );
; 154  : 		//memcpy( &value, szTempMem, m_ValueSize );
; 155  : 		//UJ --end
; 156  : 
; 157  : #ifdef _NOTUSE
; 158  : 		Debug();
; 159  : #endif
; 160  : 		return value;

  0000d	8a 45 ff	 mov	 al, BYTE PTR _value$[ebp]

; 161  : 	}

  00010	c9		 leave
  00011	c3		 ret	 0
??B?$CEncrypt@_N@@QBE_NXZ ENDP				; CEncrypt<bool>::operator bool
_TEXT	ENDS
PUBLIC	??4?$CEncrypt@_N@@QAE_N_N@Z			; CEncrypt<bool>::operator=
; Function compile flags: /Ogsp
;	COMDAT ??4?$CEncrypt@_N@@QAE_N_N@Z
_TEXT	SEGMENT
_inValue$ = 8						; size = 1
_value$ = 11						; size = 1
??4?$CEncrypt@_N@@QAE_N_N@Z PROC			; CEncrypt<bool>::operator=, COMDAT
; _this$ = ecx

; 225  : 	{

  00000	55		 push	 ebp
  00001	8b ec		 mov	 ebp, esp

; 226  : 		type value = inValue;

  00003	8a 45 08	 mov	 al, BYTE PTR _inValue$[ebp]
  00006	88 45 0b	 mov	 BYTE PTR _value$[ebp], al

; 227  : 		EncryptValueToPool((char*)&value);

  00009	8d 45 0b	 lea	 eax, DWORD PTR _value$[ebp]
  0000c	50		 push	 eax
  0000d	e8 00 00 00 00	 call	 ?EncryptValueToPool@?$CEncrypt@_N@@AAEXPBD@Z ; CEncrypt<bool>::EncryptValueToPool

; 228  : #ifdef _NOTUSE
; 229  : 		m_value = inValue;
; 230  : 		Debug();
; 231  : #endif
; 232  : 		return value;

  00012	8a 45 0b	 mov	 al, BYTE PTR _value$[ebp]

; 233  : 	}

  00015	5d		 pop	 ebp
  00016	c2 04 00	 ret	 4
??4?$CEncrypt@_N@@QAE_N_N@Z ENDP			; CEncrypt<bool>::operator=
_TEXT	ENDS
PUBLIC	??B?$CEncrypt@W4TeamType@@@@QBE?AW4TeamType@@XZ	; CEncrypt<enum TeamType>::operator enum TeamType
; Function compile flags: /Ogsp
;	COMDAT ??B?$CEncrypt@W4TeamType@@@@QBE?AW4TeamType@@XZ
_TEXT	SEGMENT
_value$ = -4						; size = 4
??B?$CEncrypt@W4TeamType@@@@QBE?AW4TeamType@@XZ PROC	; CEncrypt<enum TeamType>::operator enum TeamType, COMDAT
; _this$ = ecx

; 145  : 	{

  00000	55		 push	 ebp
  00001	8b ec		 mov	 ebp, esp
  00003	51		 push	 ecx

; 146  : 		//UJ 130829, const    --start
; 147  : 		type value;
; 148  : 		CEncrypt<type>* pThis = const_cast<CEncrypt<type>*>(this);
; 149  : 		pThis->DecryptValueToPool(&value);

  00004	8d 45 fc	 lea	 eax, DWORD PTR _value$[ebp]
  00007	50		 push	 eax
  00008	e8 00 00 00 00	 call	 ?DecryptValueToPool@?$CEncrypt@W4TeamType@@@@QAEXPAW4TeamType@@@Z ; CEncrypt<enum TeamType>::DecryptValueToPool

; 150  : 		//// const DecryptValueToPool     .
; 151  :  		//type value;
; 152  : 		//char szTempMem[MAX_ENCRYPT];
; 153  : 		//m_RC5.DecryptByte( m_MemPool, szTempMem, max(m_ValueSize, DEFAULT_ENCRYPT) );
; 154  : 		//memcpy( &value, szTempMem, m_ValueSize );
; 155  : 		//UJ --end
; 156  : 
; 157  : #ifdef _NOTUSE
; 158  : 		Debug();
; 159  : #endif
; 160  : 		return value;

  0000d	8b 45 fc	 mov	 eax, DWORD PTR _value$[ebp]

; 161  : 	}

  00010	c9		 leave
  00011	c3		 ret	 0
??B?$CEncrypt@W4TeamType@@@@QBE?AW4TeamType@@XZ ENDP	; CEncrypt<enum TeamType>::operator enum TeamType
_TEXT	ENDS
PUBLIC	?begin@?$vector@VioHashString@@V?$allocator@VioHashString@@@std@@@std@@QAE?AV?$_Vector_iterator@V?$_Vector_val@VioHashString@@V?$allocator@VioHashString@@@std@@@std@@@2@XZ ; std::vector<ioHashString,std::allocator<ioHashString> >::begin
; Function compile flags: /Ogsp
; File c:\program files (x86)\microsoft visual studio 10.0\vc\include\vector
;	COMDAT ?begin@?$vector@VioHashString@@V?$allocator@VioHashString@@@std@@@std@@QAE?AV?$_Vector_iterator@V?$_Vector_val@VioHashString@@V?$allocator@VioHashString@@@std@@@std@@@2@XZ
_TEXT	SEGMENT
___$ReturnUdt$ = 8					; size = 4
?begin@?$vector@VioHashString@@V?$allocator@VioHashString@@@std@@@std@@QAE?AV?$_Vector_iterator@V?$_Vector_val@VioHashString@@V?$allocator@VioHashString@@@std@@@std@@@2@XZ PROC ; std::vector<ioHashString,std::allocator<ioHashString> >::begin, COMDAT
; _this$ = ecx

; 781  : 		{	// return iterator for beginning of mutable sequence

  00000	55		 push	 ebp
  00001	8b ec		 mov	 ebp, esp

; 782  : 		return (iterator(this->_Myfirst, this));

  00003	8b 09		 mov	 ecx, DWORD PTR [ecx]
  00005	8b 45 08	 mov	 eax, DWORD PTR ___$ReturnUdt$[ebp]
  00008	89 08		 mov	 DWORD PTR [eax], ecx

; 783  : 		}

  0000a	5d		 pop	 ebp
  0000b	c2 04 00	 ret	 4
?begin@?$vector@VioHashString@@V?$allocator@VioHashString@@@std@@@std@@QAE?AV?$_Vector_iterator@V?$_Vector_val@VioHashString@@V?$allocator@VioHashString@@@std@@@std@@@2@XZ ENDP ; std::vector<ioHashString,std::allocator<ioHashString> >::begin
_TEXT	ENDS
PUBLIC	?begin@?$vector@VioHashString@@V?$allocator@VioHashString@@@std@@@std@@QBE?AV?$_Vector_const_iterator@V?$_Vector_val@VioHashString@@V?$allocator@VioHashString@@@std@@@std@@@2@XZ ; std::vector<ioHashString,std::allocator<ioHashString> >::begin
; Function compile flags: /Ogsp
;	COMDAT ?begin@?$vector@VioHashString@@V?$allocator@VioHashString@@@std@@@std@@QBE?AV?$_Vector_const_iterator@V?$_Vector_val@VioHashString@@V?$allocator@VioHashString@@@std@@@std@@@2@XZ
_TEXT	SEGMENT
___$ReturnUdt$ = 8					; size = 4
?begin@?$vector@VioHashString@@V?$allocator@VioHashString@@@std@@@std@@QBE?AV?$_Vector_const_iterator@V?$_Vector_val@VioHashString@@V?$allocator@VioHashString@@@std@@@std@@@2@XZ PROC ; std::vector<ioHashString,std::allocator<ioHashString> >::begin, COMDAT
; _this$ = ecx

; 786  : 		{	// return iterator for beginning of nonmutable sequence

  00000	55		 push	 ebp
  00001	8b ec		 mov	 ebp, esp

; 787  : 		return (const_iterator(this->_Myfirst, this));

  00003	8b 09		 mov	 ecx, DWORD PTR [ecx]
  00005	8b 45 08	 mov	 eax, DWORD PTR ___$ReturnUdt$[ebp]
  00008	89 08		 mov	 DWORD PTR [eax], ecx

; 788  : 		}

  0000a	5d		 pop	 ebp
  0000b	c2 04 00	 ret	 4
?begin@?$vector@VioHashString@@V?$allocator@VioHashString@@@std@@@std@@QBE?AV?$_Vector_const_iterator@V?$_Vector_val@VioHashString@@V?$allocator@VioHashString@@@std@@@std@@@2@XZ ENDP ; std::vector<ioHashString,std::allocator<ioHashString> >::begin
_TEXT	ENDS
PUBLIC	?end@?$vector@VioHashString@@V?$allocator@VioHashString@@@std@@@std@@QAE?AV?$_Vector_iterator@V?$_Vector_val@VioHashString@@V?$allocator@VioHashString@@@std@@@std@@@2@XZ ; std::vector<ioHashString,std::allocator<ioHashString> >::end
; Function compile flags: /Ogsp
;	COMDAT ?end@?$vector@VioHashString@@V?$allocator@VioHashString@@@std@@@std@@QAE?AV?$_Vector_iterator@V?$_Vector_val@VioHashString@@V?$allocator@VioHashString@@@std@@@std@@@2@XZ
_TEXT	SEGMENT
___$ReturnUdt$ = 8					; size = 4
?end@?$vector@VioHashString@@V?$allocator@VioHashString@@@std@@@std@@QAE?AV?$_Vector_iterator@V?$_Vector_val@VioHashString@@V?$allocator@VioHashString@@@std@@@std@@@2@XZ PROC ; std::vector<ioHashString,std::allocator<ioHashString> >::end, COMDAT
; _this$ = ecx

; 791  : 		{	// return iterator for end of mutable sequence

  00000	55		 push	 ebp
  00001	8b ec		 mov	 ebp, esp

; 792  : 		return (iterator(this->_Mylast, this));

  00003	8b 49 04	 mov	 ecx, DWORD PTR [ecx+4]
  00006	8b 45 08	 mov	 eax, DWORD PTR ___$ReturnUdt$[ebp]
  00009	89 08		 mov	 DWORD PTR [eax], ecx

; 793  : 		}

  0000b	5d		 pop	 ebp
  0000c	c2 04 00	 ret	 4
?end@?$vector@VioHashString@@V?$allocator@VioHashString@@@std@@@std@@QAE?AV?$_Vector_iterator@V?$_Vector_val@VioHashString@@V?$allocator@VioHashString@@@std@@@std@@@2@XZ ENDP ; std::vector<ioHashString,std::allocator<ioHashString> >::end
_TEXT	ENDS
PUBLIC	?end@?$vector@VioHashString@@V?$allocator@VioHashString@@@std@@@std@@QBE?AV?$_Vector_const_iterator@V?$_Vector_val@VioHashString@@V?$allocator@VioHashString@@@std@@@std@@@2@XZ ; std::vector<ioHashString,std::allocator<ioHashString> >::end
; Function compile flags: /Ogsp
;	COMDAT ?end@?$vector@VioHashString@@V?$allocator@VioHashString@@@std@@@std@@QBE?AV?$_Vector_const_iterator@V?$_Vector_val@VioHashString@@V?$allocator@VioHashString@@@std@@@std@@@2@XZ
_TEXT	SEGMENT
___$ReturnUdt$ = 8					; size = 4
?end@?$vector@VioHashString@@V?$allocator@VioHashString@@@std@@@std@@QBE?AV?$_Vector_const_iterator@V?$_Vector_val@VioHashString@@V?$allocator@VioHashString@@@std@@@std@@@2@XZ PROC ; std::vector<ioHashString,std::allocator<ioHashString> >::end, COMDAT
; _this$ = ecx

; 796  : 		{	// return iterator for end of nonmutable sequence

  00000	55		 push	 ebp
  00001	8b ec		 mov	 ebp, esp

; 797  : 		return (const_iterator(this->_Mylast, this));

  00003	8b 49 04	 mov	 ecx, DWORD PTR [ecx+4]
  00006	8b 45 08	 mov	 eax, DWORD PTR ___$ReturnUdt$[ebp]
  00009	89 08		 mov	 DWORD PTR [eax], ecx

; 798  : 		}

  0000b	5d		 pop	 ebp
  0000c	c2 04 00	 ret	 4
?end@?$vector@VioHashString@@V?$allocator@VioHashString@@@std@@@std@@QBE?AV?$_Vector_const_iterator@V?$_Vector_val@VioHashString@@V?$allocator@VioHashString@@@std@@@std@@@2@XZ ENDP ; std::vector<ioHashString,std::allocator<ioHashString> >::end
_TEXT	ENDS
PUBLIC	??0?$_Vector_val@VioHashString@@V?$allocator@VioHashString@@@std@@@std@@QAE@V?$allocator@VioHashString@@@1@@Z ; std::_Vector_val<ioHashString,std::allocator<ioHashString> >::_Vector_val<ioHashString,std::allocator<ioHashString> >
; Function compile flags: /Ogsp
;	COMDAT ??0?$_Vector_val@VioHashString@@V?$allocator@VioHashString@@@std@@@std@@QAE@V?$allocator@VioHashString@@@1@@Z
_TEXT	SEGMENT
__Al$ = 8						; size = 1
??0?$_Vector_val@VioHashString@@V?$allocator@VioHashString@@@std@@@std@@QAE@V?$allocator@VioHashString@@@1@@Z PROC ; std::_Vector_val<ioHashString,std::allocator<ioHashString> >::_Vector_val<ioHashString,std::allocator<ioHashString> >, COMDAT
; _this$ = ecx

; 426  : 		{	// construct allocator from _Al

  00000	8b c1		 mov	 eax, ecx

; 427  : 		_Myfirst = 0;

  00002	33 c9		 xor	 ecx, ecx
  00004	89 08		 mov	 DWORD PTR [eax], ecx

; 428  : 		_Mylast = 0;

  00006	89 48 04	 mov	 DWORD PTR [eax+4], ecx

; 429  : 		_Myend = 0;

  00009	89 48 08	 mov	 DWORD PTR [eax+8], ecx

; 430  : 		}

  0000c	c2 04 00	 ret	 4
??0?$_Vector_val@VioHashString@@V?$allocator@VioHashString@@@std@@@std@@QAE@V?$allocator@VioHashString@@@1@@Z ENDP ; std::_Vector_val<ioHashString,std::allocator<ioHashString> >::_Vector_val<ioHashString,std::allocator<ioHashString> >
_TEXT	ENDS
PUBLIC	?_Make_iter@?$vector@VioHashString@@V?$allocator@VioHashString@@@std@@@std@@QBE?AV?$_Vector_iterator@V?$_Vector_val@VioHashString@@V?$allocator@VioHashString@@@std@@@std@@@2@V?$_Vector_const_iterator@V?$_Vector_val@VioHashString@@V?$allocator@VioHashString@@@std@@@std@@@2@@Z ; std::vector<ioHashString,std::allocator<ioHashString> >::_Make_iter
; Function compile flags: /Ogsp
;	COMDAT ?_Make_iter@?$vector@VioHashString@@V?$allocator@VioHashString@@@std@@@std@@QBE?AV?$_Vector_iterator@V?$_Vector_val@VioHashString@@V?$allocator@VioHashString@@@std@@@std@@@2@V?$_Vector_const_iterator@V?$_Vector_val@VioHashString@@V?$allocator@VioHashString@@@std@@@std@@@2@@Z
_TEXT	SEGMENT
___$ReturnUdt$ = 8					; size = 4
__Where$ = 12						; size = 4
?_Make_iter@?$vector@VioHashString@@V?$allocator@VioHashString@@@std@@@std@@QBE?AV?$_Vector_iterator@V?$_Vector_val@VioHashString@@V?$allocator@VioHashString@@@std@@@std@@@2@V?$_Vector_const_iterator@V?$_Vector_val@VioHashString@@V?$allocator@VioHashString@@@std@@@std@@@2@@Z PROC ; std::vector<ioHashString,std::allocator<ioHashString> >::_Make_iter, COMDAT
; _this$ = ecx

; 801  : 		{	// make iterator from const_iterator

  00000	55		 push	 ebp
  00001	8b ec		 mov	 ebp, esp

; 802  : 		return (iterator(_Where._Ptr, this));

  00003	8b 45 08	 mov	 eax, DWORD PTR ___$ReturnUdt$[ebp]
  00006	8b 4d 0c	 mov	 ecx, DWORD PTR __Where$[ebp]
  00009	89 08		 mov	 DWORD PTR [eax], ecx

; 803  : 		}

  0000b	5d		 pop	 ebp
  0000c	c2 08 00	 ret	 8
?_Make_iter@?$vector@VioHashString@@V?$allocator@VioHashString@@@std@@@std@@QBE?AV?$_Vector_iterator@V?$_Vector_val@VioHashString@@V?$allocator@VioHashString@@@std@@@std@@@2@V?$_Vector_const_iterator@V?$_Vector_val@VioHashString@@V?$allocator@VioHashString@@@std@@@std@@@2@@Z ENDP ; std::vector<ioHashString,std::allocator<ioHashString> >::_Make_iter
_TEXT	ENDS
PUBLIC	?max_size@?$vector@VioHashString@@V?$allocator@VioHashString@@@std@@@std@@QBEIXZ ; std::vector<ioHashString,std::allocator<ioHashString> >::max_size
; Function compile flags: /Ogsp
;	COMDAT ?max_size@?$vector@VioHashString@@V?$allocator@VioHashString@@@std@@@std@@QBEIXZ
_TEXT	SEGMENT
?max_size@?$vector@VioHashString@@V?$allocator@VioHashString@@@std@@@std@@QBEIXZ PROC ; std::vector<ioHashString,std::allocator<ioHashString> >::max_size, COMDAT
; _this$ = ecx

; 884  : 		return (this->_Alval.max_size());

  00000	b8 ff ff ff 0f	 mov	 eax, 268435455		; 0fffffffH

; 885  : 		}

  00005	c3		 ret	 0
?max_size@?$vector@VioHashString@@V?$allocator@VioHashString@@@std@@@std@@QBEIXZ ENDP ; std::vector<ioHashString,std::allocator<ioHashString> >::max_size
_TEXT	ENDS
PUBLIC	?allocate@?$allocator@VioHashString@@@std@@QAEPAVioHashString@@I@Z ; std::allocator<ioHashString>::allocate
; Function compile flags: /Ogsp
; File c:\program files (x86)\microsoft visual studio 10.0\vc\include\xmemory
;	COMDAT ?allocate@?$allocator@VioHashString@@@std@@QAEPAVioHashString@@I@Z
_TEXT	SEGMENT
__Count$ = 8						; size = 4
?allocate@?$allocator@VioHashString@@@std@@QAEPAVioHashString@@I@Z PROC ; std::allocator<ioHashString>::allocate, COMDAT
; _this$ = ecx

; 186  : 		{	// allocate array of _Count elements

  00000	55		 push	 ebp
  00001	8b ec		 mov	 ebp, esp

; 187  : 		return (_Allocate(_Count, (pointer)0));

  00003	6a 00		 push	 0
  00005	ff 75 08	 push	 DWORD PTR __Count$[ebp]
  00008	e8 00 00 00 00	 call	 ??$_Allocate@VioHashString@@@std@@YAPAVioHashString@@IPAV1@@Z ; std::_Allocate<ioHashString>
  0000d	59		 pop	 ecx
  0000e	59		 pop	 ecx

; 188  : 		}

  0000f	5d		 pop	 ebp
  00010	c2 04 00	 ret	 4
?allocate@?$allocator@VioHashString@@@std@@QAEPAVioHashString@@I@Z ENDP ; std::allocator<ioHashString>::allocate
_TEXT	ENDS
PUBLIC	??8?$_Vector_const_iterator@V?$_Vector_val@VioHashString@@V?$allocator@VioHashString@@@std@@@std@@@std@@QBE_NABV01@@Z ; std::_Vector_const_iterator<std::_Vector_val<ioHashString,std::allocator<ioHashString> > >::operator==
; Function compile flags: /Ogsp
; File c:\program files (x86)\microsoft visual studio 10.0\vc\include\vector
;	COMDAT ??8?$_Vector_const_iterator@V?$_Vector_val@VioHashString@@V?$allocator@VioHashString@@@std@@@std@@@std@@QBE_NABV01@@Z
_TEXT	SEGMENT
__Right$ = 8						; size = 4
??8?$_Vector_const_iterator@V?$_Vector_val@VioHashString@@V?$allocator@VioHashString@@@std@@@std@@@std@@QBE_NABV01@@Z PROC ; std::_Vector_const_iterator<std::_Vector_val<ioHashString,std::allocator<ioHashString> > >::operator==, COMDAT
; _this$ = ecx

; 201  : 		{	// test for iterator equality

  00000	55		 push	 ebp
  00001	8b ec		 mov	 ebp, esp

; 202  : 		_Compat(_Right);
; 203  : 		return (this->_Ptr == _Right._Ptr);

  00003	8b 01		 mov	 eax, DWORD PTR [ecx]
  00005	8b 4d 08	 mov	 ecx, DWORD PTR __Right$[ebp]
  00008	2b 01		 sub	 eax, DWORD PTR [ecx]
  0000a	f7 d8		 neg	 eax
  0000c	1b c0		 sbb	 eax, eax
  0000e	40		 inc	 eax

; 204  : 		}

  0000f	5d		 pop	 ebp
  00010	c2 04 00	 ret	 4
??8?$_Vector_const_iterator@V?$_Vector_val@VioHashString@@V?$allocator@VioHashString@@@std@@@std@@@std@@QBE_NABV01@@Z ENDP ; std::_Vector_const_iterator<std::_Vector_val<ioHashString,std::allocator<ioHashString> > >::operator==
_TEXT	ENDS
PUBLIC	??$_Move@PAVioHashString@@PAV1@@std@@YAPAVioHashString@@PAV1@00U_Nonscalar_ptr_iterator_tag@0@@Z ; std::_Move<ioHashString *,ioHashString *>
; Function compile flags: /Ogsp
; File c:\program files (x86)\microsoft visual studio 10.0\vc\include\xutility
;	COMDAT ??$_Move@PAVioHashString@@PAV1@@std@@YAPAVioHashString@@PAV1@00U_Nonscalar_ptr_iterator_tag@0@@Z
_TEXT	SEGMENT
__First$ = 8						; size = 4
__Last$ = 12						; size = 4
__Dest$ = 16						; size = 4
___formal$ = 20						; size = 1
??$_Move@PAVioHashString@@PAV1@@std@@YAPAVioHashString@@PAV1@00U_Nonscalar_ptr_iterator_tag@0@@Z PROC ; std::_Move<ioHashString *,ioHashString *>, COMDAT

; 2512 : 	{	// move [_First, _Last) to [_Dest, ...), arbitrary iterators

  00000	55		 push	 ebp
  00001	8b ec		 mov	 ebp, esp
  00003	56		 push	 esi

; 2513 : 	for (; _First != _Last; ++_Dest, ++_First)

  00004	8b 75 08	 mov	 esi, DWORD PTR __First$[ebp]
  00007	eb 11		 jmp	 SHORT $LN11@Move@2
$LL3@Move@2:

; 2514 : 		*_Dest = _STD move(*_First);

  00009	8b 4d 10	 mov	 ecx, DWORD PTR __Dest$[ebp]
  0000c	56		 push	 esi
  0000d	ff 15 00 00 00
	00		 call	 DWORD PTR __imp_??4ioHashString@@QAEAAV0@ABV0@@Z
  00013	83 45 10 10	 add	 DWORD PTR __Dest$[ebp], 16 ; 00000010H
  00017	83 c6 10	 add	 esi, 16			; 00000010H
$LN11@Move@2:

; 2513 : 	for (; _First != _Last; ++_Dest, ++_First)

  0001a	3b 75 0c	 cmp	 esi, DWORD PTR __Last$[ebp]
  0001d	75 ea		 jne	 SHORT $LL3@Move@2

; 2515 : 	return (_Dest);

  0001f	8b 45 10	 mov	 eax, DWORD PTR __Dest$[ebp]
  00022	5e		 pop	 esi

; 2516 : 	}

  00023	5d		 pop	 ebp
  00024	c3		 ret	 0
??$_Move@PAVioHashString@@PAV1@@std@@YAPAVioHashString@@PAV1@00U_Nonscalar_ptr_iterator_tag@0@@Z ENDP ; std::_Move<ioHashString *,ioHashString *>
_TEXT	ENDS
PUBLIC	??$_Destroy@VioHashString@@@std@@YAXPAVioHashString@@@Z ; std::_Destroy<ioHashString>
; Function compile flags: /Ogsp
; File c:\program files (x86)\microsoft visual studio 10.0\vc\include\xmemory
;	COMDAT ??$_Destroy@VioHashString@@@std@@YAXPAVioHashString@@@Z
_TEXT	SEGMENT
__Ptr$ = 8						; size = 4
??$_Destroy@VioHashString@@@std@@YAXPAVioHashString@@@Z PROC ; std::_Destroy<ioHashString>, COMDAT

; 62   : 	{	// destroy object at _Ptr

  00000	55		 push	 ebp
  00001	8b ec		 mov	 ebp, esp

; 63   : 	_Ptr->~_Ty();

  00003	8b 4d 08	 mov	 ecx, DWORD PTR __Ptr$[ebp]

; 64   : 	}

  00006	5d		 pop	 ebp

; 63   : 	_Ptr->~_Ty();

  00007	ff 25 00 00 00
	00		 jmp	 DWORD PTR __imp_??1ioHashString@@QAE@XZ
??$_Destroy@VioHashString@@@std@@YAXPAVioHashString@@@Z ENDP ; std::_Destroy<ioHashString>
_TEXT	ENDS
PUBLIC	?construct@?$allocator@VioHashString@@@std@@QAEXPAVioHashString@@ABV3@@Z ; std::allocator<ioHashString>::construct
; Function compile flags: /Ogsp
;	COMDAT ?construct@?$allocator@VioHashString@@@std@@QAEXPAVioHashString@@ABV3@@Z
_TEXT	SEGMENT
__Ptr$ = 8						; size = 4
__Val$ = 12						; size = 4
?construct@?$allocator@VioHashString@@@std@@QAEXPAVioHashString@@ABV3@@Z PROC ; std::allocator<ioHashString>::construct, COMDAT
; _this$ = ecx

; 196  : 		{	// construct object at _Ptr with value _Val

  00000	55		 push	 ebp
  00001	8b ec		 mov	 ebp, esp

; 197  : 		_Construct(_Ptr, _Val);

  00003	ff 75 0c	 push	 DWORD PTR __Val$[ebp]
  00006	ff 75 08	 push	 DWORD PTR __Ptr$[ebp]
  00009	e8 00 00 00 00	 call	 ??$_Construct@VioHashString@@ABV1@@std@@YAXPAVioHashString@@ABV1@@Z ; std::_Construct<ioHashString,ioHashString const &>
  0000e	59		 pop	 ecx
  0000f	59		 pop	 ecx

; 198  : 		}

  00010	5d		 pop	 ebp
  00011	c2 08 00	 ret	 8
?construct@?$allocator@VioHashString@@@std@@QAEXPAVioHashString@@ABV3@@Z ENDP ; std::allocator<ioHashString>::construct
_TEXT	ENDS
PUBLIC	?GetExperienceMode@ioBaseChar@@QBE?BKXZ		; ioBaseChar::GetExperienceMode
; Function compile flags: /Ogsp
; File d:\lost saga for developer\youtube\tutorial\source\src\lsclient\iobasechar.h
;	COMDAT ?GetExperienceMode@ioBaseChar@@QBE?BKXZ
_TEXT	SEGMENT
_value$536184 = -4					; size = 4
?GetExperienceMode@ioBaseChar@@QBE?BKXZ PROC		; ioBaseChar::GetExperienceMode, COMDAT
; _this$ = ecx

; 3193 : 	inline const DWORD GetExperienceMode() const { return m_ExperienceMode; }

  00000	55		 push	 ebp
  00001	8b ec		 mov	 ebp, esp
  00003	51		 push	 ecx
  00004	8d 45 fc	 lea	 eax, DWORD PTR _value$536184[ebp]
  00007	50		 push	 eax
  00008	81 c1 94 1d 00
	00		 add	 ecx, 7572		; 00001d94H
  0000e	e8 00 00 00 00	 call	 ?DecryptValueToPool@?$CEncrypt@K@@QAEXPAK@Z ; CEncrypt<unsigned long>::DecryptValueToPool
  00013	8b 45 fc	 mov	 eax, DWORD PTR _value$536184[ebp]
  00016	c9		 leave
  00017	c3		 ret	 0
?GetExperienceMode@ioBaseChar@@QBE?BKXZ ENDP		; ioBaseChar::GetExperienceMode
_TEXT	ENDS
PUBLIC	?IsExcavating@ioBaseChar@@QBE_NXZ		; ioBaseChar::IsExcavating
; Function compile flags: /Ogsp
;	COMDAT ?IsExcavating@ioBaseChar@@QBE_NXZ
_TEXT	SEGMENT
_value$536191 = -1					; size = 1
?IsExcavating@ioBaseChar@@QBE_NXZ PROC			; ioBaseChar::IsExcavating, COMDAT
; _this$ = ecx

; 4001 : 	bool IsExcavating() const { return m_bExcavating; }

  00000	55		 push	 ebp
  00001	8b ec		 mov	 ebp, esp
  00003	51		 push	 ecx
  00004	8d 45 ff	 lea	 eax, DWORD PTR _value$536191[ebp]
  00007	50		 push	 eax
  00008	81 c1 20 30 00
	00		 add	 ecx, 12320		; 00003020H
  0000e	e8 00 00 00 00	 call	 ?DecryptValueToPool@?$CEncrypt@_N@@QAEXPA_N@Z ; CEncrypt<bool>::DecryptValueToPool
  00013	8a 45 ff	 mov	 al, BYTE PTR _value$536191[ebp]
  00016	c9		 leave
  00017	c3		 ret	 0
?IsExcavating@ioBaseChar@@QBE_NXZ ENDP			; ioBaseChar::IsExcavating
_TEXT	ENDS
PUBLIC	__real@4f800000
PUBLIC	?StartBuff@ioInfectionBuff@@UAEXPAVioBaseChar@@@Z ; ioInfectionBuff::StartBuff
EXTRN	?GetBuffDuration@ioBuff@@IAEKXZ:PROC		; ioBuff::GetBuffDuration
EXTRN	?GetMemberBalanceRateForStateProtectionTime@ioBaseChar@@QAEMH@Z:PROC ; ioBaseChar::GetMemberBalanceRateForStateProtectionTime
EXTRN	__imp_?GetLoopSec@ioFrameTimer@@QBEKXZ:PROC
EXTRN	__imp_?GetSingleton@ioFrameTimer@@SAAAV1@XZ:PROC
EXTRN	__ftol2:PROC
;	COMDAT __real@4f800000
; File d:\lost saga for developer\youtube\tutorial\source\src\lsclient\encryptvalue.h
CONST	SEGMENT
__real@4f800000 DD 04f800000r			; 4.29497e+009
; Function compile flags: /Ogsp
; File d:\lost saga for developer\youtube\tutorial\source\src\lsclient\ioinfectionbuff.cpp
CONST	ENDS
;	COMDAT ?StartBuff@ioInfectionBuff@@UAEXPAVioBaseChar@@@Z
_TEXT	SEGMENT
tv155 = -8						; size = 8
tv254 = 8						; size = 4
_value$536218 = 8					; size = 4
_value$536213 = 8					; size = 4
_value$536208 = 8					; size = 4
_value$536201 = 8					; size = 4
_pOwner$ = 8						; size = 4
_value$536222 = 11					; size = 1
?StartBuff@ioInfectionBuff@@UAEXPAVioBaseChar@@@Z PROC	; ioInfectionBuff::StartBuff, COMDAT
; _this$ = ecx

; 88   : {

  00000	55		 push	 ebp
  00001	8b ec		 mov	 ebp, esp
  00003	51		 push	 ecx
  00004	51		 push	 ecx
  00005	53		 push	 ebx

; 89   : #ifndef SHIPPING 
; 90   : 	if( Setting::ShowExtraInfo() )
; 91   : 	{
; 92   : 		LOG.PrintTimeAndLog( 0, "BuffCheck - %s, StartTime: %d", m_Name.c_str(), FRAMEGETTIME() );
; 93   : 	}
; 94   : #endif
; 95   : 
; 96   : 	if( !pOwner )

  00006	8b 5d 08	 mov	 ebx, DWORD PTR _pOwner$[ebp]
  00009	56		 push	 esi
  0000a	8b f1		 mov	 esi, ecx
  0000c	85 db		 test	 ebx, ebx
  0000e	0f 84 e4 00 00
	00		 je	 $LN1@StartBuff

; 97   : 		return;
; 98   : 
; 99   : 	DWORD dwCurTime = FRAMEGETTIME();

  00014	57		 push	 edi
  00015	ff 15 00 00 00
	00		 call	 DWORD PTR __imp_?GetSingleton@ioFrameTimer@@SAAAV1@XZ
  0001b	8b c8		 mov	 ecx, eax
  0001d	ff 15 00 00 00
	00		 call	 DWORD PTR __imp_?GetLoopSec@ioFrameTimer@@QBEKXZ
  00023	8b f8		 mov	 edi, eax

; 100  : 	m_pOwner = pOwner;
; 101  : 	m_OwnerName = pOwner->GetCharName();

  00025	8d 83 d4 02 00
	00		 lea	 eax, DWORD PTR [ebx+724]
  0002b	50		 push	 eax
  0002c	8d 8e 78 02 00
	00		 lea	 ecx, DWORD PTR [esi+632]
  00032	89 9e 74 02 00
	00		 mov	 DWORD PTR [esi+628], ebx
  00038	ff 15 00 00 00
	00		 call	 DWORD PTR __imp_??4ioHashString@@QAEAAV0@ABV0@@Z

; 102  : 
; 103  : 	m_dwBuffStartTime = dwCurTime;

  0003e	8d 45 08	 lea	 eax, DWORD PTR _value$536201[ebp]
  00041	8d 8e 6c 03 00
	00		 lea	 ecx, DWORD PTR [esi+876]
  00047	50		 push	 eax
  00048	89 7d 08	 mov	 DWORD PTR _value$536201[ebp], edi
  0004b	e8 00 00 00 00	 call	 ?EncryptValueToPool@?$CEncrypt@K@@AAEXPBD@Z ; CEncrypt<unsigned long>::EncryptValueToPool

; 104  : 	if( m_iOperationType == OT_DELAY )

  00050	83 be d0 03 00
	00 03		 cmp	 DWORD PTR [esi+976], 3
  00057	75 12		 jne	 SHORT $LN2@StartBuff

; 105  : 	{
; 106  : 		m_dwBuffStartTime += m_dwDelayDuration;

  00059	8d 86 d8 02 00
	00		 lea	 eax, DWORD PTR [esi+728]
  0005f	50		 push	 eax
  00060	8d 8e 6c 03 00
	00		 lea	 ecx, DWORD PTR [esi+876]
  00066	e8 00 00 00 00	 call	 ??Y?$CEncrypt@K@@QAEAAKABK@Z ; CEncrypt<unsigned long>::operator+=
$LN2@StartBuff:

; 107  : 	}
; 108  : 
; 109  : 	DWORD dwCurDuration = GetBuffDuration() * pOwner->GetMemberBalanceRateForStateProtectionTime( GetTypeID() );

  0006b	ff b6 cc 03 00
	00		 push	 DWORD PTR [esi+972]
  00071	8b cb		 mov	 ecx, ebx
  00073	e8 00 00 00 00	 call	 ?GetMemberBalanceRateForStateProtectionTime@ioBaseChar@@QAEMH@Z ; ioBaseChar::GetMemberBalanceRateForStateProtectionTime
  00078	dd 5d f8	 fstp	 QWORD PTR tv155[ebp]
  0007b	8b ce		 mov	 ecx, esi
  0007d	e8 00 00 00 00	 call	 ?GetBuffDuration@ioBuff@@IAEKXZ ; ioBuff::GetBuffDuration
  00082	89 45 08	 mov	 DWORD PTR tv254[ebp], eax
  00085	db 45 08	 fild	 DWORD PTR tv254[ebp]
  00088	85 c0		 test	 eax, eax
  0008a	79 06		 jns	 SHORT $LN20@StartBuff
  0008c	d8 05 00 00 00
	00		 fadd	 DWORD PTR __real@4f800000
$LN20@StartBuff:
  00092	dc 4d f8	 fmul	 QWORD PTR tv155[ebp]
  00095	e8 00 00 00 00	 call	 __ftol2
  0009a	8b d8		 mov	 ebx, eax

; 110  : 	m_dwBuffEndTime = m_dwBuffStartTime + dwCurDuration;

  0009c	8d 45 08	 lea	 eax, DWORD PTR _value$536208[ebp]
  0009f	50		 push	 eax
  000a0	8d 8e 6c 03 00
	00		 lea	 ecx, DWORD PTR [esi+876]
  000a6	e8 00 00 00 00	 call	 ?DecryptValueToPool@?$CEncrypt@K@@QAEXPAK@Z ; CEncrypt<unsigned long>::DecryptValueToPool
  000ab	8b 45 08	 mov	 eax, DWORD PTR _value$536208[ebp]
  000ae	03 c3		 add	 eax, ebx
  000b0	89 45 08	 mov	 DWORD PTR _value$536213[ebp], eax
  000b3	8d 45 08	 lea	 eax, DWORD PTR _value$536213[ebp]
  000b6	50		 push	 eax
  000b7	8d 8e 9c 03 00
	00		 lea	 ecx, DWORD PTR [esi+924]
  000bd	e8 00 00 00 00	 call	 ?EncryptValueToPool@?$CEncrypt@K@@AAEXPBD@Z ; CEncrypt<unsigned long>::EncryptValueToPool

; 111  : 	m_dwCheckTime = dwCurTime;

  000c2	8d 45 08	 lea	 eax, DWORD PTR _value$536218[ebp]
  000c5	50		 push	 eax
  000c6	8d 8e 3c 03 00
	00		 lea	 ecx, DWORD PTR [esi+828]
  000cc	89 7d 08	 mov	 DWORD PTR _value$536218[ebp], edi
  000cf	e8 00 00 00 00	 call	 ?EncryptValueToPool@?$CEncrypt@K@@AAEXPBD@Z ; CEncrypt<unsigned long>::EncryptValueToPool

; 112  : 
; 113  : 	m_bLive = true;

  000d4	8d 45 0b	 lea	 eax, DWORD PTR _value$536222[ebp]
  000d7	50		 push	 eax
  000d8	8d 8e 70 07 00
	00		 lea	 ecx, DWORD PTR [esi+1904]
  000de	c6 45 0b 01	 mov	 BYTE PTR _value$536222[ebp], 1
  000e2	e8 00 00 00 00	 call	 ?EncryptValueToPool@?$CEncrypt@_N@@AAEXPBD@Z ; CEncrypt<bool>::EncryptValueToPool

; 114  : 
; 115  : 	if( m_iOperationType != OT_DELAY )

  000e7	83 be d0 03 00
	00 03		 cmp	 DWORD PTR [esi+976], 3
  000ee	5f		 pop	 edi
  000ef	74 07		 je	 SHORT $LN1@StartBuff

; 116  : 	{
; 117  : 		SetAction();

  000f1	8b 06		 mov	 eax, DWORD PTR [esi]
  000f3	8b ce		 mov	 ecx, esi
  000f5	ff 50 34	 call	 DWORD PTR [eax+52]
$LN1@StartBuff:
  000f8	5e		 pop	 esi
  000f9	5b		 pop	 ebx

; 118  : 	}	
; 119  : }

  000fa	c9		 leave
  000fb	c2 04 00	 ret	 4
?StartBuff@ioInfectionBuff@@UAEXPAVioBaseChar@@@Z ENDP	; ioInfectionBuff::StartBuff
_TEXT	ENDS
PUBLIC	?ApplyStartBuff@ioInfectionBuff@@UAE_NPAVioBaseChar@@KK@Z ; ioInfectionBuff::ApplyStartBuff
EXTRN	?CalcGlobalGapTime@ioGlobalTimer@@QBEKK@Z:PROC	; ioGlobalTimer::CalcGlobalGapTime
EXTRN	?GetSingleton@ioGlobalTimer@@SAAAV1@XZ:PROC	; ioGlobalTimer::GetSingleton
; Function compile flags: /Ogsp
;	COMDAT ?ApplyStartBuff@ioInfectionBuff@@UAE_NPAVioBaseChar@@KK@Z
_TEXT	SEGMENT
tv140 = -8						; size = 8
tv245 = 8						; size = 4
_value$536250 = 8					; size = 4
_value$536245 = 8					; size = 4
_value$536240 = 8					; size = 4
_pOwner$ = 8						; size = 4
_value$536255 = 11					; size = 1
_value$536232 = 12					; size = 4
_dwCurDuration$531187 = 12				; size = 4
_dwGlobalTimeGap$ = 12					; size = 4
_dwGlobalTime$ = 12					; size = 4
_dwGapTime$ = 16					; size = 4
?ApplyStartBuff@ioInfectionBuff@@UAE_NPAVioBaseChar@@KK@Z PROC ; ioInfectionBuff::ApplyStartBuff, COMDAT
; _this$ = ecx

; 122  : {

  00000	55		 push	 ebp
  00001	8b ec		 mov	 ebp, esp
  00003	51		 push	 ecx
  00004	51		 push	 ecx

; 123  : 	m_pOwner = pOwner;

  00005	8b 45 08	 mov	 eax, DWORD PTR _pOwner$[ebp]
  00008	53		 push	 ebx
  00009	56		 push	 esi
  0000a	57		 push	 edi

; 124  : 	DWORD dwGlobalTimeGap = g_GlobalTimer.CalcGlobalGapTime( dwGlobalTime );

  0000b	ff 75 0c	 push	 DWORD PTR _dwGlobalTime$[ebp]
  0000e	8b f1		 mov	 esi, ecx
  00010	89 86 74 02 00
	00		 mov	 DWORD PTR [esi+628], eax
  00016	e8 00 00 00 00	 call	 ?GetSingleton@ioGlobalTimer@@SAAAV1@XZ ; ioGlobalTimer::GetSingleton
  0001b	8b c8		 mov	 ecx, eax
  0001d	e8 00 00 00 00	 call	 ?CalcGlobalGapTime@ioGlobalTimer@@QBEKK@Z ; ioGlobalTimer::CalcGlobalGapTime

; 125  : 	
; 126  : 	if( m_iOperationType != OT_SWITCH )

  00022	83 be d0 03 00
	00 02		 cmp	 DWORD PTR [esi+976], 2
  00029	8b 1d 00 00 00
	00		 mov	 ebx, DWORD PTR __imp_?GetSingleton@ioFrameTimer@@SAAAV1@XZ
  0002f	89 45 0c	 mov	 DWORD PTR _dwGlobalTimeGap$[ebp], eax
  00032	0f 84 89 00 00
	00		 je	 $LN12@ApplyStart

; 127  : 	{
; 128  : 		if( dwGlobalTimeGap > dwGapTime )

  00038	8b 7d 10	 mov	 edi, DWORD PTR _dwGapTime$[ebp]
  0003b	3b c7		 cmp	 eax, edi
  0003d	76 07		 jbe	 SHORT $LN2@ApplyStart

; 129  : 			return false;

  0003f	32 c0		 xor	 al, al
  00041	e9 bc 00 00 00	 jmp	 $LN4@ApplyStart
$LN2@ApplyStart:

; 130  : 
; 131  : 		dwGapTime -= dwGlobalTimeGap;
; 132  : 		m_dwBuffEndTime = FRAMEGETTIME() + dwGapTime;

  00046	ff d3		 call	 ebx
  00048	8b c8		 mov	 ecx, eax
  0004a	ff 15 00 00 00
	00		 call	 DWORD PTR __imp_?GetLoopSec@ioFrameTimer@@QBEKXZ
  00050	2b 7d 0c	 sub	 edi, DWORD PTR _dwGlobalTimeGap$[ebp]
  00053	8d 8e 9c 03 00
	00		 lea	 ecx, DWORD PTR [esi+924]
  00059	03 c7		 add	 eax, edi
  0005b	89 45 0c	 mov	 DWORD PTR _value$536232[ebp], eax
  0005e	8d 45 0c	 lea	 eax, DWORD PTR _value$536232[ebp]
  00061	50		 push	 eax
  00062	e8 00 00 00 00	 call	 ?EncryptValueToPool@?$CEncrypt@K@@AAEXPBD@Z ; CEncrypt<unsigned long>::EncryptValueToPool

; 133  : 
; 134  : 		DWORD dwCurDuration = GetBuffDuration() * pOwner->GetMemberBalanceRateForStateProtectionTime( GetTypeID() );

  00067	ff b6 cc 03 00
	00		 push	 DWORD PTR [esi+972]
  0006d	8b 4d 08	 mov	 ecx, DWORD PTR _pOwner$[ebp]
  00070	e8 00 00 00 00	 call	 ?GetMemberBalanceRateForStateProtectionTime@ioBaseChar@@QAEMH@Z ; ioBaseChar::GetMemberBalanceRateForStateProtectionTime
  00075	dd 5d f8	 fstp	 QWORD PTR tv140[ebp]
  00078	8b ce		 mov	 ecx, esi
  0007a	e8 00 00 00 00	 call	 ?GetBuffDuration@ioBuff@@IAEKXZ ; ioBuff::GetBuffDuration
  0007f	89 45 08	 mov	 DWORD PTR tv245[ebp], eax
  00082	db 45 08	 fild	 DWORD PTR tv245[ebp]
  00085	85 c0		 test	 eax, eax
  00087	79 06		 jns	 SHORT $LN18@ApplyStart
  00089	d8 05 00 00 00
	00		 fadd	 DWORD PTR __real@4f800000
$LN18@ApplyStart:
  0008f	dc 4d f8	 fmul	 QWORD PTR tv140[ebp]
  00092	e8 00 00 00 00	 call	 __ftol2
  00097	89 45 0c	 mov	 DWORD PTR _dwCurDuration$531187[ebp], eax

; 135  : 		m_dwBuffStartTime = m_dwBuffEndTime - dwCurDuration;

  0009a	8d 45 08	 lea	 eax, DWORD PTR _value$536240[ebp]
  0009d	50		 push	 eax
  0009e	8d 8e 9c 03 00
	00		 lea	 ecx, DWORD PTR [esi+924]
  000a4	e8 00 00 00 00	 call	 ?DecryptValueToPool@?$CEncrypt@K@@QAEXPAK@Z ; CEncrypt<unsigned long>::DecryptValueToPool
  000a9	8b 45 08	 mov	 eax, DWORD PTR _value$536240[ebp]
  000ac	2b 45 0c	 sub	 eax, DWORD PTR _dwCurDuration$531187[ebp]
  000af	8d 8e 6c 03 00
	00		 lea	 ecx, DWORD PTR [esi+876]
  000b5	89 45 08	 mov	 DWORD PTR _value$536245[ebp], eax
  000b8	8d 45 08	 lea	 eax, DWORD PTR _value$536245[ebp]
  000bb	50		 push	 eax
  000bc	e8 00 00 00 00	 call	 ?EncryptValueToPool@?$CEncrypt@K@@AAEXPBD@Z ; CEncrypt<unsigned long>::EncryptValueToPool
$LN12@ApplyStart:

; 136  : 	}
; 137  : 
; 138  : 	m_dwCheckTime = FRAMEGETTIME();

  000c1	ff d3		 call	 ebx
  000c3	8b c8		 mov	 ecx, eax
  000c5	ff 15 00 00 00
	00		 call	 DWORD PTR __imp_?GetLoopSec@ioFrameTimer@@QBEKXZ
  000cb	89 45 08	 mov	 DWORD PTR _value$536250[ebp], eax
  000ce	8d 45 08	 lea	 eax, DWORD PTR _value$536250[ebp]
  000d1	50		 push	 eax
  000d2	8d 8e 3c 03 00
	00		 lea	 ecx, DWORD PTR [esi+828]
  000d8	e8 00 00 00 00	 call	 ?EncryptValueToPool@?$CEncrypt@K@@AAEXPBD@Z ; CEncrypt<unsigned long>::EncryptValueToPool

; 139  : 	m_bLive = true;

  000dd	8d 45 0b	 lea	 eax, DWORD PTR _value$536255[ebp]
  000e0	50		 push	 eax
  000e1	8d 8e 70 07 00
	00		 lea	 ecx, DWORD PTR [esi+1904]
  000e7	c6 45 0b 01	 mov	 BYTE PTR _value$536255[ebp], 1
  000eb	e8 00 00 00 00	 call	 ?EncryptValueToPool@?$CEncrypt@_N@@AAEXPBD@Z ; CEncrypt<bool>::EncryptValueToPool

; 140  : 
; 141  : 	if( m_iOperationType != OT_DELAY )

  000f0	83 be d0 03 00
	00 03		 cmp	 DWORD PTR [esi+976], 3
  000f7	74 07		 je	 SHORT $LN1@ApplyStart

; 142  : 	{
; 143  : 		SetAction();

  000f9	8b 06		 mov	 eax, DWORD PTR [esi]
  000fb	8b ce		 mov	 ecx, esi
  000fd	ff 50 34	 call	 DWORD PTR [eax+52]
$LN1@ApplyStart:

; 144  : 	}
; 145  : 
; 146  : 	return true;

  00100	b0 01		 mov	 al, 1
$LN4@ApplyStart:
  00102	5f		 pop	 edi
  00103	5e		 pop	 esi
  00104	5b		 pop	 ebx

; 147  : }

  00105	c9		 leave
  00106	c2 0c 00	 ret	 12			; 0000000cH
?ApplyStartBuff@ioInfectionBuff@@UAE_NPAVioBaseChar@@KK@Z ENDP ; ioInfectionBuff::ApplyStartBuff
_TEXT	ENDS
PUBLIC	__real@00000000
PUBLIC	?SetExtraDurationByGrowth@ioInfectionBuff@@UAEXM@Z ; ioInfectionBuff::SetExtraDurationByGrowth
;	COMDAT __real@00000000
; File d:\lost saga for developer\youtube\tutorial\source\src\lsclient\encryptvalue.h
CONST	SEGMENT
__real@00000000 DD 000000000r			; 0
; Function compile flags: /Ogsp
; File d:\lost saga for developer\youtube\tutorial\source\src\lsclient\ioinfectionbuff.cpp
CONST	ENDS
;	COMDAT ?SetExtraDurationByGrowth@ioInfectionBuff@@UAEXM@Z
_TEXT	SEGMENT
tv129 = -8						; size = 8
tv206 = 8						; size = 4
_value$536270 = 8					; size = 4
_value$536265 = 8					; size = 4
_fDuration$ = 8						; size = 4
?SetExtraDurationByGrowth@ioInfectionBuff@@UAEXM@Z PROC	; ioInfectionBuff::SetExtraDurationByGrowth, COMDAT
; _this$ = ecx

; 150  : {

  00000	55		 push	 ebp
  00001	8b ec		 mov	 ebp, esp
  00003	51		 push	 ecx
  00004	51		 push	 ecx
  00005	56		 push	 esi
  00006	8b f1		 mov	 esi, ecx

; 151  : 	m_dwExtraDurationByGrowth = 0;

  00008	83 a6 60 05 00
	00 00		 and	 DWORD PTR [esi+1376], 0

; 152  : 
; 153  : 	if( m_bDisableGrowth )

  0000f	80 be fc 04 00
	00 00		 cmp	 BYTE PTR [esi+1276], 0
  00016	0f 85 90 00 00
	00		 jne	 $LN10@SetExtraDu

; 154  : 		return;
; 155  : 
; 156  : 	if( GetBuffDuration() == 0 ) return;

  0001c	e8 00 00 00 00	 call	 ?GetBuffDuration@ioBuff@@IAEKXZ ; ioBuff::GetBuffDuration
  00021	85 c0		 test	 eax, eax
  00023	0f 84 83 00 00
	00		 je	 $LN10@SetExtraDu

; 157  : 	if( fDuration == 0.0f ) return;

  00029	f3 0f 10 45 08	 movss	 xmm0, DWORD PTR _fDuration$[ebp]
  0002e	0f 2e 05 00 00
	00 00		 ucomiss xmm0, DWORD PTR __real@00000000
  00035	9f		 lahf
  00036	f6 c4 44	 test	 ah, 68			; 00000044H
  00039	7b 71		 jnp	 SHORT $LN10@SetExtraDu

; 158  : 
; 159  : 	m_dwExtraDurationByGrowth = (DWORD)fDuration;

  0003b	d9 45 08	 fld	 DWORD PTR _fDuration$[ebp]
  0003e	57		 push	 edi
  0003f	e8 00 00 00 00	 call	 __ftol2

; 160  : 
; 161  : 	DWORD dwCurDuration = GetBuffDuration() * m_pOwner->GetMemberBalanceRateForStateProtectionTime( GetTypeID() );

  00044	ff b6 cc 03 00
	00		 push	 DWORD PTR [esi+972]
  0004a	8b 8e 74 02 00
	00		 mov	 ecx, DWORD PTR [esi+628]
  00050	89 86 60 05 00
	00		 mov	 DWORD PTR [esi+1376], eax
  00056	e8 00 00 00 00	 call	 ?GetMemberBalanceRateForStateProtectionTime@ioBaseChar@@QAEMH@Z ; ioBaseChar::GetMemberBalanceRateForStateProtectionTime
  0005b	dd 5d f8	 fstp	 QWORD PTR tv129[ebp]
  0005e	8b ce		 mov	 ecx, esi
  00060	e8 00 00 00 00	 call	 ?GetBuffDuration@ioBuff@@IAEKXZ ; ioBuff::GetBuffDuration
  00065	89 45 08	 mov	 DWORD PTR tv206[ebp], eax
  00068	db 45 08	 fild	 DWORD PTR tv206[ebp]
  0006b	85 c0		 test	 eax, eax
  0006d	79 06		 jns	 SHORT $LN12@SetExtraDu
  0006f	d8 05 00 00 00
	00		 fadd	 DWORD PTR __real@4f800000
$LN12@SetExtraDu:
  00075	dc 4d f8	 fmul	 QWORD PTR tv129[ebp]
  00078	e8 00 00 00 00	 call	 __ftol2
  0007d	8b f8		 mov	 edi, eax

; 162  : 	m_dwBuffEndTime = m_dwBuffStartTime + dwCurDuration + m_dwExtraDurationByGrowth;

  0007f	8d 45 08	 lea	 eax, DWORD PTR _value$536265[ebp]
  00082	50		 push	 eax
  00083	8d 8e 6c 03 00
	00		 lea	 ecx, DWORD PTR [esi+876]
  00089	e8 00 00 00 00	 call	 ?DecryptValueToPool@?$CEncrypt@K@@QAEXPAK@Z ; CEncrypt<unsigned long>::DecryptValueToPool
  0008e	8b 45 08	 mov	 eax, DWORD PTR _value$536265[ebp]
  00091	03 c7		 add	 eax, edi
  00093	03 86 60 05 00
	00		 add	 eax, DWORD PTR [esi+1376]
  00099	8d 8e 9c 03 00
	00		 lea	 ecx, DWORD PTR [esi+924]
  0009f	89 45 08	 mov	 DWORD PTR _value$536270[ebp], eax
  000a2	8d 45 08	 lea	 eax, DWORD PTR _value$536270[ebp]
  000a5	50		 push	 eax
  000a6	e8 00 00 00 00	 call	 ?EncryptValueToPool@?$CEncrypt@K@@AAEXPBD@Z ; CEncrypt<unsigned long>::EncryptValueToPool
  000ab	5f		 pop	 edi
$LN10@SetExtraDu:
  000ac	5e		 pop	 esi

; 163  : }

  000ad	c9		 leave
  000ae	c2 04 00	 ret	 4
?SetExtraDurationByGrowth@ioInfectionBuff@@UAEXM@Z ENDP	; ioInfectionBuff::SetExtraDurationByGrowth
_TEXT	ENDS
PUBLIC	?SetAction@ioInfectionBuff@@MAEXXZ		; ioInfectionBuff::SetAction
EXTRN	?PlaySoundA@ioGameEntity@@QAEKABVioHashString@@_N@Z:PROC ; ioGameEntity::PlaySoundA
EXTRN	__imp_?IsEmpty@ioHashString@@QBE_NXZ:PROC
EXTRN	?AttachEffect@ioBaseChar@@QAEPAVioEffect@@ABVioHashString@@PAVioEntityEvent@@_N@Z:PROC ; ioBaseChar::AttachEffect
EXTRN	?GetEffectEventOwner@ioBuff@@IAEPAVioBaseChar@@XZ:PROC ; ioBuff::GetEffectEventOwner
EXTRN	?CheckBuffDesc@ioBuff@@IAEXXZ:PROC		; ioBuff::CheckBuffDesc
EXTRN	?CheckChangeColor@ioBuff@@IAEX_N@Z:PROC		; ioBuff::CheckChangeColor
EXTRN	?CheckChangeSkill@ioBuff@@IAEX_N@Z:PROC		; ioBuff::CheckChangeSkill
EXTRN	?CheckInvisibleHelmet@ioBuff@@IAEX_N@Z:PROC	; ioBuff::CheckInvisibleHelmet
EXTRN	?CheckInvisibleCloak@ioBuff@@IAEX_N@Z:PROC	; ioBuff::CheckInvisibleCloak
EXTRN	?CheckInvisibleWeapon@ioBuff@@IAEX_N@Z:PROC	; ioBuff::CheckInvisibleWeapon
; Function compile flags: /Ogsp
;	COMDAT ?SetAction@ioInfectionBuff@@MAEXXZ
_TEXT	SEGMENT
_value$536280 = -1					; size = 1
?SetAction@ioInfectionBuff@@MAEXXZ PROC			; ioInfectionBuff::SetAction, COMDAT
; _this$ = ecx

; 166  : {

  00000	55		 push	 ebp
  00001	8b ec		 mov	 ebp, esp
  00003	51		 push	 ecx
  00004	56		 push	 esi
  00005	57		 push	 edi

; 167  : 	CheckInvisibleWeapon( false );

  00006	33 ff		 xor	 edi, edi
  00008	57		 push	 edi
  00009	8b f1		 mov	 esi, ecx
  0000b	e8 00 00 00 00	 call	 ?CheckInvisibleWeapon@ioBuff@@IAEX_N@Z ; ioBuff::CheckInvisibleWeapon

; 168  : 	CheckInvisibleCloak( false );

  00010	57		 push	 edi
  00011	8b ce		 mov	 ecx, esi
  00013	e8 00 00 00 00	 call	 ?CheckInvisibleCloak@ioBuff@@IAEX_N@Z ; ioBuff::CheckInvisibleCloak

; 169  : 	CheckInvisibleHelmet( false );

  00018	57		 push	 edi
  00019	8b ce		 mov	 ecx, esi
  0001b	e8 00 00 00 00	 call	 ?CheckInvisibleHelmet@ioBuff@@IAEX_N@Z ; ioBuff::CheckInvisibleHelmet

; 170  : 
; 171  : 	CheckChangeSkill( true );

  00020	6a 01		 push	 1
  00022	8b ce		 mov	 ecx, esi
  00024	e8 00 00 00 00	 call	 ?CheckChangeSkill@ioBuff@@IAEX_N@Z ; ioBuff::CheckChangeSkill

; 172  : 
; 173  : 	CheckChangeColor( true );

  00029	6a 01		 push	 1
  0002b	8b ce		 mov	 ecx, esi
  0002d	e8 00 00 00 00	 call	 ?CheckChangeColor@ioBuff@@IAEX_N@Z ; ioBuff::CheckChangeColor

; 174  : 	CheckBuffDesc();

  00032	8b ce		 mov	 ecx, esi
  00034	e8 00 00 00 00	 call	 ?CheckBuffDesc@ioBuff@@IAEXXZ ; ioBuff::CheckBuffDesc

; 175  : 
; 176  : 	m_pOwner->AttachEffect( m_BuffEffect, GetEffectEventOwner() );

  00039	6a 01		 push	 1
  0003b	8b ce		 mov	 ecx, esi
  0003d	e8 00 00 00 00	 call	 ?GetEffectEventOwner@ioBuff@@IAEPAVioBaseChar@@XZ ; ioBuff::GetEffectEventOwner
  00042	8b 8e 74 02 00
	00		 mov	 ecx, DWORD PTR [esi+628]
  00048	50		 push	 eax
  00049	8d 86 7c 05 00
	00		 lea	 eax, DWORD PTR [esi+1404]
  0004f	50		 push	 eax
  00050	e8 00 00 00 00	 call	 ?AttachEffect@ioBaseChar@@QAEPAVioEffect@@ABVioHashString@@PAVioEntityEvent@@_N@Z ; ioBaseChar::AttachEffect

; 177  : 
; 178  : 	if( !m_LoopSound.IsEmpty() )

  00055	8d be fc 05 00
	00		 lea	 edi, DWORD PTR [esi+1532]
  0005b	8b cf		 mov	 ecx, edi
  0005d	ff 15 00 00 00
	00		 call	 DWORD PTR __imp_?IsEmpty@ioHashString@@QBE_NXZ
  00063	84 c0		 test	 al, al
  00065	75 27		 jne	 SHORT $LN4@SetAction

; 179  : 	{
; 180  : 		m_LoopSoundID = m_pOwner->PlaySound( m_LoopSound, true );

  00067	8b 8e 74 02 00
	00		 mov	 ecx, DWORD PTR [esi+628]
  0006d	6a 01		 push	 1
  0006f	57		 push	 edi
  00070	e8 00 00 00 00	 call	 ?PlaySoundA@ioGameEntity@@QAEKABVioHashString@@_N@Z ; ioGameEntity::PlaySoundA
  00075	89 86 0c 06 00
	00		 mov	 DWORD PTR [esi+1548], eax

; 181  : 		m_bLoopSoundPlayed = true;

  0007b	8d 45 ff	 lea	 eax, DWORD PTR _value$536280[ebp]
  0007e	50		 push	 eax
  0007f	8d 8e 60 08 00
	00		 lea	 ecx, DWORD PTR [esi+2144]
  00085	c6 45 ff 01	 mov	 BYTE PTR _value$536280[ebp], 1
  00089	e8 00 00 00 00	 call	 ?EncryptValueToPool@?$CEncrypt@_N@@AAEXPBD@Z ; CEncrypt<bool>::EncryptValueToPool
$LN4@SetAction:

; 182  : 	}
; 183  : 
; 184  : 	m_bBuffStart = true;

  0008e	5f		 pop	 edi
  0008f	c6 86 d5 02 00
	00 01		 mov	 BYTE PTR [esi+725], 1
  00096	5e		 pop	 esi

; 185  : }

  00097	c9		 leave
  00098	c3		 ret	 0
?SetAction@ioInfectionBuff@@MAEXXZ ENDP			; ioInfectionBuff::SetAction
_TEXT	ENDS
PUBLIC	??0?$vector@PAVioBaseChar@@V?$allocator@PAVioBaseChar@@@std@@@std@@QAE@XZ ; std::vector<ioBaseChar *,std::allocator<ioBaseChar *> >::vector<ioBaseChar *,std::allocator<ioBaseChar *> >
; Function compile flags: /Ogsp
; File c:\program files (x86)\microsoft visual studio 10.0\vc\include\vector
;	COMDAT ??0?$vector@PAVioBaseChar@@V?$allocator@PAVioBaseChar@@@std@@@std@@QAE@XZ
_TEXT	SEGMENT
??0?$vector@PAVioBaseChar@@V?$allocator@PAVioBaseChar@@@std@@@std@@QAE@XZ PROC ; std::vector<ioBaseChar *,std::allocator<ioBaseChar *> >::vector<ioBaseChar *,std::allocator<ioBaseChar *> >, COMDAT
; _this$ = ecx

; 507  : 		{	// construct empty vector

  00000	8b c1		 mov	 eax, ecx
  00002	33 c9		 xor	 ecx, ecx
  00004	89 08		 mov	 DWORD PTR [eax], ecx
  00006	89 48 04	 mov	 DWORD PTR [eax+4], ecx
  00009	89 48 08	 mov	 DWORD PTR [eax+8], ecx

; 508  : 		}

  0000c	c3		 ret	 0
??0?$vector@PAVioBaseChar@@V?$allocator@PAVioBaseChar@@@std@@@std@@QAE@XZ ENDP ; std::vector<ioBaseChar *,std::allocator<ioBaseChar *> >::vector<ioBaseChar *,std::allocator<ioBaseChar *> >
_TEXT	ENDS
PUBLIC	??0?$vector@UCallBuff@@V?$allocator@UCallBuff@@@std@@@std@@QAE@XZ ; std::vector<CallBuff,std::allocator<CallBuff> >::vector<CallBuff,std::allocator<CallBuff> >
; Function compile flags: /Ogsp
;	COMDAT ??0?$vector@UCallBuff@@V?$allocator@UCallBuff@@@std@@@std@@QAE@XZ
_TEXT	SEGMENT
??0?$vector@UCallBuff@@V?$allocator@UCallBuff@@@std@@@std@@QAE@XZ PROC ; std::vector<CallBuff,std::allocator<CallBuff> >::vector<CallBuff,std::allocator<CallBuff> >, COMDAT
; _this$ = ecx

; 507  : 		{	// construct empty vector

  00000	8b c1		 mov	 eax, ecx
  00002	33 c9		 xor	 ecx, ecx
  00004	89 08		 mov	 DWORD PTR [eax], ecx
  00006	89 48 04	 mov	 DWORD PTR [eax+4], ecx
  00009	89 48 08	 mov	 DWORD PTR [eax+8], ecx

; 508  : 		}

  0000c	c3		 ret	 0
??0?$vector@UCallBuff@@V?$allocator@UCallBuff@@@std@@@std@@QAE@XZ ENDP ; std::vector<CallBuff,std::allocator<CallBuff> >::vector<CallBuff,std::allocator<CallBuff> >
_TEXT	ENDS
PUBLIC	?begin@?$vector@UCallBuff@@V?$allocator@UCallBuff@@@std@@@std@@QAE?AV?$_Vector_iterator@V?$_Vector_val@UCallBuff@@V?$allocator@UCallBuff@@@std@@@std@@@2@XZ ; std::vector<CallBuff,std::allocator<CallBuff> >::begin
; Function compile flags: /Ogsp
;	COMDAT ?begin@?$vector@UCallBuff@@V?$allocator@UCallBuff@@@std@@@std@@QAE?AV?$_Vector_iterator@V?$_Vector_val@UCallBuff@@V?$allocator@UCallBuff@@@std@@@std@@@2@XZ
_TEXT	SEGMENT
___$ReturnUdt$ = 8					; size = 4
?begin@?$vector@UCallBuff@@V?$allocator@UCallBuff@@@std@@@std@@QAE?AV?$_Vector_iterator@V?$_Vector_val@UCallBuff@@V?$allocator@UCallBuff@@@std@@@std@@@2@XZ PROC ; std::vector<CallBuff,std::allocator<CallBuff> >::begin, COMDAT
; _this$ = ecx

; 781  : 		{	// return iterator for beginning of mutable sequence

  00000	55		 push	 ebp
  00001	8b ec		 mov	 ebp, esp

; 782  : 		return (iterator(this->_Myfirst, this));

  00003	8b 09		 mov	 ecx, DWORD PTR [ecx]
  00005	8b 45 08	 mov	 eax, DWORD PTR ___$ReturnUdt$[ebp]
  00008	89 08		 mov	 DWORD PTR [eax], ecx

; 783  : 		}

  0000a	5d		 pop	 ebp
  0000b	c2 04 00	 ret	 4
?begin@?$vector@UCallBuff@@V?$allocator@UCallBuff@@@std@@@std@@QAE?AV?$_Vector_iterator@V?$_Vector_val@UCallBuff@@V?$allocator@UCallBuff@@@std@@@std@@@2@XZ ENDP ; std::vector<CallBuff,std::allocator<CallBuff> >::begin
_TEXT	ENDS
PUBLIC	?end@?$vector@UCallBuff@@V?$allocator@UCallBuff@@@std@@@std@@QAE?AV?$_Vector_iterator@V?$_Vector_val@UCallBuff@@V?$allocator@UCallBuff@@@std@@@std@@@2@XZ ; std::vector<CallBuff,std::allocator<CallBuff> >::end
; Function compile flags: /Ogsp
;	COMDAT ?end@?$vector@UCallBuff@@V?$allocator@UCallBuff@@@std@@@std@@QAE?AV?$_Vector_iterator@V?$_Vector_val@UCallBuff@@V?$allocator@UCallBuff@@@std@@@std@@@2@XZ
_TEXT	SEGMENT
___$ReturnUdt$ = 8					; size = 4
?end@?$vector@UCallBuff@@V?$allocator@UCallBuff@@@std@@@std@@QAE?AV?$_Vector_iterator@V?$_Vector_val@UCallBuff@@V?$allocator@UCallBuff@@@std@@@std@@@2@XZ PROC ; std::vector<CallBuff,std::allocator<CallBuff> >::end, COMDAT
; _this$ = ecx

; 791  : 		{	// return iterator for end of mutable sequence

  00000	55		 push	 ebp
  00001	8b ec		 mov	 ebp, esp

; 792  : 		return (iterator(this->_Mylast, this));

  00003	8b 49 04	 mov	 ecx, DWORD PTR [ecx+4]
  00006	8b 45 08	 mov	 eax, DWORD PTR ___$ReturnUdt$[ebp]
  00009	89 08		 mov	 DWORD PTR [eax], ecx

; 793  : 		}

  0000b	5d		 pop	 ebp
  0000c	c2 04 00	 ret	 4
?end@?$vector@UCallBuff@@V?$allocator@UCallBuff@@@std@@@std@@QAE?AV?$_Vector_iterator@V?$_Vector_val@UCallBuff@@V?$allocator@UCallBuff@@@std@@@std@@@2@XZ ENDP ; std::vector<CallBuff,std::allocator<CallBuff> >::end
_TEXT	ENDS
PUBLIC	??9?$_Vector_const_iterator@V?$_Vector_val@UCallBuff@@V?$allocator@UCallBuff@@@std@@@std@@@std@@QBE_NABV01@@Z ; std::_Vector_const_iterator<std::_Vector_val<CallBuff,std::allocator<CallBuff> > >::operator!=
; Function compile flags: /Ogsp
;	COMDAT ??9?$_Vector_const_iterator@V?$_Vector_val@UCallBuff@@V?$allocator@UCallBuff@@@std@@@std@@@std@@QBE_NABV01@@Z
_TEXT	SEGMENT
__Right$ = 8						; size = 4
??9?$_Vector_const_iterator@V?$_Vector_val@UCallBuff@@V?$allocator@UCallBuff@@@std@@@std@@@std@@QBE_NABV01@@Z PROC ; std::_Vector_const_iterator<std::_Vector_val<CallBuff,std::allocator<CallBuff> > >::operator!=, COMDAT
; _this$ = ecx

; 207  : 		{	// test for iterator inequality

  00000	55		 push	 ebp
  00001	8b ec		 mov	 ebp, esp

; 208  : 		return (!(*this == _Right));

  00003	8b 01		 mov	 eax, DWORD PTR [ecx]
  00005	8b 55 08	 mov	 edx, DWORD PTR __Right$[ebp]
  00008	33 c9		 xor	 ecx, ecx
  0000a	3b 02		 cmp	 eax, DWORD PTR [edx]
  0000c	0f 95 c0	 setne	 al

; 209  : 		}

  0000f	5d		 pop	 ebp
  00010	c2 04 00	 ret	 4
??9?$_Vector_const_iterator@V?$_Vector_val@UCallBuff@@V?$allocator@UCallBuff@@@std@@@std@@@std@@QBE_NABV01@@Z ENDP ; std::_Vector_const_iterator<std::_Vector_val<CallBuff,std::allocator<CallBuff> > >::operator!=
_TEXT	ENDS
PUBLIC	??9?$_Vector_const_iterator@V?$_Vector_val@PAVioBaseChar@@V?$allocator@PAVioBaseChar@@@std@@@std@@@std@@QBE_NABV01@@Z ; std::_Vector_const_iterator<std::_Vector_val<ioBaseChar *,std::allocator<ioBaseChar *> > >::operator!=
; Function compile flags: /Ogsp
;	COMDAT ??9?$_Vector_const_iterator@V?$_Vector_val@PAVioBaseChar@@V?$allocator@PAVioBaseChar@@@std@@@std@@@std@@QBE_NABV01@@Z
_TEXT	SEGMENT
__Right$ = 8						; size = 4
??9?$_Vector_const_iterator@V?$_Vector_val@PAVioBaseChar@@V?$allocator@PAVioBaseChar@@@std@@@std@@@std@@QBE_NABV01@@Z PROC ; std::_Vector_const_iterator<std::_Vector_val<ioBaseChar *,std::allocator<ioBaseChar *> > >::operator!=, COMDAT
; _this$ = ecx

; 207  : 		{	// test for iterator inequality

  00000	55		 push	 ebp
  00001	8b ec		 mov	 ebp, esp

; 208  : 		return (!(*this == _Right));

  00003	8b 01		 mov	 eax, DWORD PTR [ecx]
  00005	8b 55 08	 mov	 edx, DWORD PTR __Right$[ebp]
  00008	33 c9		 xor	 ecx, ecx
  0000a	3b 02		 cmp	 eax, DWORD PTR [edx]
  0000c	0f 95 c0	 setne	 al

; 209  : 		}

  0000f	5d		 pop	 ebp
  00010	c2 04 00	 ret	 4
??9?$_Vector_const_iterator@V?$_Vector_val@PAVioBaseChar@@V?$allocator@PAVioBaseChar@@@std@@@std@@@std@@QBE_NABV01@@Z ENDP ; std::_Vector_const_iterator<std::_Vector_val<ioBaseChar *,std::allocator<ioBaseChar *> > >::operator!=
_TEXT	ENDS
PUBLIC	?_Buy@?$vector@UCallBuff@@V?$allocator@UCallBuff@@@std@@@std@@IAE_NI@Z ; std::vector<CallBuff,std::allocator<CallBuff> >::_Buy
; Function compile flags: /Ogsp
;	COMDAT ?_Buy@?$vector@UCallBuff@@V?$allocator@UCallBuff@@@std@@@std@@IAE_NI@Z
_TEXT	SEGMENT
__Capacity$ = 8						; size = 4
?_Buy@?$vector@UCallBuff@@V?$allocator@UCallBuff@@@std@@@std@@IAE_NI@Z PROC ; std::vector<CallBuff,std::allocator<CallBuff> >::_Buy, COMDAT
; _this$ = ecx

; 1250 : 		{	// allocate array with _Capacity elements

  00000	55		 push	 ebp
  00001	8b ec		 mov	 ebp, esp
  00003	56		 push	 esi

; 1251 : 		this->_Myfirst = 0;

  00004	33 c0		 xor	 eax, eax
  00006	57		 push	 edi

; 1252 : 		this->_Mylast = 0;
; 1253 : 		this->_Myend = 0;
; 1254 : 
; 1255 : 		if (_Capacity == 0)

  00007	8b 7d 08	 mov	 edi, DWORD PTR __Capacity$[ebp]
  0000a	8b f1		 mov	 esi, ecx
  0000c	89 06		 mov	 DWORD PTR [esi], eax
  0000e	89 46 04	 mov	 DWORD PTR [esi+4], eax
  00011	89 46 08	 mov	 DWORD PTR [esi+8], eax
  00014	3b f8		 cmp	 edi, eax
  00016	75 04		 jne	 SHORT $LN4@Buy

; 1256 : 			return (false);

  00018	32 c0		 xor	 al, al
  0001a	eb 2b		 jmp	 SHORT $LN5@Buy
$LN4@Buy:

; 1257 : 		else if (max_size() < _Capacity)

  0001c	81 ff cc cc cc
	0c		 cmp	 edi, 214748364		; 0cccccccH
  00022	76 0b		 jbe	 SHORT $LN2@Buy

; 1258 : 			_Xlen();	// result too long

  00024	68 00 00 00 00	 push	 OFFSET ??_C@_0BD@OLBABOEK@vector?$DMT?$DO?5too?5long?$AA@
  00029	ff 15 00 00 00
	00		 call	 DWORD PTR __imp_?_Xlength_error@std@@YAXPBD@Z
$LN19@Buy:
$LN2@Buy:

; 1259 : 		else
; 1260 : 			{	// nonempty array, allocate storage
; 1261 : 			this->_Myfirst = this->_Alval.allocate(_Capacity);

  0002f	50		 push	 eax
  00030	57		 push	 edi
  00031	e8 00 00 00 00	 call	 ??$_Allocate@UCallBuff@@@std@@YAPAUCallBuff@@IPAU1@@Z ; std::_Allocate<CallBuff>

; 1262 : 			this->_Mylast = this->_Myfirst;
; 1263 : 			this->_Myend = this->_Myfirst + _Capacity;

  00036	6b ff 14	 imul	 edi, 20			; 00000014H
  00039	03 f8		 add	 edi, eax
  0003b	59		 pop	 ecx
  0003c	89 06		 mov	 DWORD PTR [esi], eax
  0003e	89 46 04	 mov	 DWORD PTR [esi+4], eax
  00041	59		 pop	 ecx
  00042	89 7e 08	 mov	 DWORD PTR [esi+8], edi

; 1264 : 			}
; 1265 : 		return (true);

  00045	b0 01		 mov	 al, 1
$LN5@Buy:
  00047	5f		 pop	 edi
  00048	5e		 pop	 esi

; 1266 : 		}

  00049	5d		 pop	 ebp
  0004a	c2 04 00	 ret	 4
$LN18@Buy:
?_Buy@?$vector@UCallBuff@@V?$allocator@UCallBuff@@@std@@@std@@IAE_NI@Z ENDP ; std::vector<CallBuff,std::allocator<CallBuff> >::_Buy
_TEXT	ENDS
PUBLIC	?_Grow_to@?$vector@VioHashString@@V?$allocator@VioHashString@@@std@@@std@@IBEII@Z ; std::vector<ioHashString,std::allocator<ioHashString> >::_Grow_to
; Function compile flags: /Ogsp
;	COMDAT ?_Grow_to@?$vector@VioHashString@@V?$allocator@VioHashString@@@std@@@std@@IBEII@Z
_TEXT	SEGMENT
__Count$ = 8						; size = 4
?_Grow_to@?$vector@VioHashString@@V?$allocator@VioHashString@@@std@@@std@@IBEII@Z PROC ; std::vector<ioHashString,std::allocator<ioHashString> >::_Grow_to, COMDAT
; _this$ = ecx

; 1274 : 		{	// grow by 50% or at least to _Count

  00000	55		 push	 ebp
  00001	8b ec		 mov	 ebp, esp

; 1275 : 		size_type _Capacity = capacity();

  00003	8b 41 08	 mov	 eax, DWORD PTR [ecx+8]
  00006	2b 01		 sub	 eax, DWORD PTR [ecx]

; 1276 : 
; 1277 : 		_Capacity = max_size() - _Capacity / 2 < _Capacity
; 1278 : 			? 0 : _Capacity + _Capacity / 2;	// try to grow by 50%

  00008	ba ff ff ff 0f	 mov	 edx, 268435455		; 0fffffffH
  0000d	c1 f8 04	 sar	 eax, 4
  00010	8b c8		 mov	 ecx, eax
  00012	d1 e9		 shr	 ecx, 1
  00014	2b d1		 sub	 edx, ecx
  00016	3b d0		 cmp	 edx, eax
  00018	73 04		 jae	 SHORT $LN4@Grow_to@3
  0001a	33 c0		 xor	 eax, eax
  0001c	eb 02		 jmp	 SHORT $LN5@Grow_to@3
$LN4@Grow_to@3:
  0001e	03 c1		 add	 eax, ecx
$LN5@Grow_to@3:

; 1279 : 		if (_Capacity < _Count)

  00020	3b 45 08	 cmp	 eax, DWORD PTR __Count$[ebp]

; 1280 : 			_Capacity = _Count;

  00023	0f 42 45 08	 cmovb	 eax, DWORD PTR __Count$[ebp]

; 1281 : 		return (_Capacity);
; 1282 : 		}

  00027	5d		 pop	 ebp
  00028	c2 04 00	 ret	 4
?_Grow_to@?$vector@VioHashString@@V?$allocator@VioHashString@@@std@@@std@@IBEII@Z ENDP ; std::vector<ioHashString,std::allocator<ioHashString> >::_Grow_to
_TEXT	ENDS
PUBLIC	?_Destroy@?$vector@PAVioBaseChar@@V?$allocator@PAVioBaseChar@@@std@@@std@@IAEXPAPAVioBaseChar@@0@Z ; std::vector<ioBaseChar *,std::allocator<ioBaseChar *> >::_Destroy
; Function compile flags: /Ogsp
;	COMDAT ?_Destroy@?$vector@PAVioBaseChar@@V?$allocator@PAVioBaseChar@@@std@@@std@@IAEXPAPAVioBaseChar@@0@Z
_TEXT	SEGMENT
__First$ = 8						; size = 4
__Last$ = 12						; size = 4
?_Destroy@?$vector@PAVioBaseChar@@V?$allocator@PAVioBaseChar@@@std@@@std@@IAEXPAPAVioBaseChar@@0@Z PROC ; std::vector<ioBaseChar *,std::allocator<ioBaseChar *> >::_Destroy, COMDAT
; _this$ = ecx

; 1270 : 		_Destroy_range(_First, _Last, this->_Alval);
; 1271 : 		}

  00000	c2 08 00	 ret	 8
?_Destroy@?$vector@PAVioBaseChar@@V?$allocator@PAVioBaseChar@@@std@@@std@@IAEXPAPAVioBaseChar@@0@Z ENDP ; std::vector<ioBaseChar *,std::allocator<ioBaseChar *> >::_Destroy
_TEXT	ENDS
PUBLIC	??$_Cons_val@V?$allocator@VioHashString@@@std@@VioHashString@@AAV3@@std@@YAXAAV?$allocator@VioHashString@@@0@PAVioHashString@@AAV2@@Z ; std::_Cons_val<std::allocator<ioHashString>,ioHashString,ioHashString &>
; Function compile flags: /Ogsp
; File c:\program files (x86)\microsoft visual studio 10.0\vc\include\xmemory
;	COMDAT ??$_Cons_val@V?$allocator@VioHashString@@@std@@VioHashString@@AAV3@@std@@YAXAAV?$allocator@VioHashString@@@0@PAVioHashString@@AAV2@@Z
_TEXT	SEGMENT
__Alval$ = 8						; size = 4
__Pdest$ = 12						; size = 4
__Src$ = 16						; size = 4
??$_Cons_val@V?$allocator@VioHashString@@@std@@VioHashString@@AAV3@@std@@YAXAAV?$allocator@VioHashString@@@0@PAVioHashString@@AAV2@@Z PROC ; std::_Cons_val<std::allocator<ioHashString>,ioHashString,ioHashString &>, COMDAT

; 279  : 	{	// construct using allocator

  00000	55		 push	 ebp
  00001	8b ec		 mov	 ebp, esp

; 280  : 	_Alval.construct(_Pdest, _STD forward<_Ty2>(_Src));

  00003	ff 75 10	 push	 DWORD PTR __Src$[ebp]
  00006	8b 4d 08	 mov	 ecx, DWORD PTR __Alval$[ebp]
  00009	ff 75 0c	 push	 DWORD PTR __Pdest$[ebp]
  0000c	e8 00 00 00 00	 call	 ??$construct@AAVioHashString@@@?$allocator@VioHashString@@@std@@QAEXPAVioHashString@@AAV2@@Z ; std::allocator<ioHashString>::construct<ioHashString &>

; 281  : 	}

  00011	5d		 pop	 ebp
  00012	c3		 ret	 0
??$_Cons_val@V?$allocator@VioHashString@@@std@@VioHashString@@AAV3@@std@@YAXAAV?$allocator@VioHashString@@@0@PAVioHashString@@AAV2@@Z ENDP ; std::_Cons_val<std::allocator<ioHashString>,ioHashString,ioHashString &>
_TEXT	ENDS
PUBLIC	??$_Cons_val@V?$allocator@PAVioBaseChar@@@std@@PAVioBaseChar@@ABQAV3@@std@@YAXAAV?$allocator@PAVioBaseChar@@@0@PAPAVioBaseChar@@ABQAV2@@Z ; std::_Cons_val<std::allocator<ioBaseChar *>,ioBaseChar *,ioBaseChar * const &>
; Function compile flags: /Ogsp
;	COMDAT ??$_Cons_val@V?$allocator@PAVioBaseChar@@@std@@PAVioBaseChar@@ABQAV3@@std@@YAXAAV?$allocator@PAVioBaseChar@@@0@PAPAVioBaseChar@@ABQAV2@@Z
_TEXT	SEGMENT
__Alval$ = 8						; size = 4
__Pdest$ = 12						; size = 4
__Src$ = 16						; size = 4
??$_Cons_val@V?$allocator@PAVioBaseChar@@@std@@PAVioBaseChar@@ABQAV3@@std@@YAXAAV?$allocator@PAVioBaseChar@@@0@PAPAVioBaseChar@@ABQAV2@@Z PROC ; std::_Cons_val<std::allocator<ioBaseChar *>,ioBaseChar *,ioBaseChar * const &>, COMDAT

; 279  : 	{	// construct using allocator

  00000	55		 push	 ebp
  00001	8b ec		 mov	 ebp, esp

; 280  : 	_Alval.construct(_Pdest, _STD forward<_Ty2>(_Src));

  00003	8b 45 0c	 mov	 eax, DWORD PTR __Pdest$[ebp]
  00006	85 c0		 test	 eax, eax
  00008	74 07		 je	 SHORT $LN9@Cons_val@2
  0000a	8b 4d 10	 mov	 ecx, DWORD PTR __Src$[ebp]
  0000d	8b 09		 mov	 ecx, DWORD PTR [ecx]
  0000f	89 08		 mov	 DWORD PTR [eax], ecx
$LN9@Cons_val@2:

; 281  : 	}

  00011	5d		 pop	 ebp
  00012	c3		 ret	 0
??$_Cons_val@V?$allocator@PAVioBaseChar@@@std@@PAVioBaseChar@@ABQAV3@@std@@YAXAAV?$allocator@PAVioBaseChar@@@0@PAPAVioBaseChar@@ABQAV2@@Z ENDP ; std::_Cons_val<std::allocator<ioBaseChar *>,ioBaseChar *,ioBaseChar * const &>
_TEXT	ENDS
PUBLIC	??$_Cons_val@V?$allocator@UCallBuff@@@std@@UCallBuff@@ABU3@@std@@YAXAAV?$allocator@UCallBuff@@@0@PAUCallBuff@@ABU2@@Z ; std::_Cons_val<std::allocator<CallBuff>,CallBuff,CallBuff const &>
; Function compile flags: /Ogsp
;	COMDAT ??$_Cons_val@V?$allocator@UCallBuff@@@std@@UCallBuff@@ABU3@@std@@YAXAAV?$allocator@UCallBuff@@@0@PAUCallBuff@@ABU2@@Z
_TEXT	SEGMENT
__Alval$ = 8						; size = 4
__Pdest$ = 12						; size = 4
__Src$ = 16						; size = 4
??$_Cons_val@V?$allocator@UCallBuff@@@std@@UCallBuff@@ABU3@@std@@YAXAAV?$allocator@UCallBuff@@@0@PAUCallBuff@@ABU2@@Z PROC ; std::_Cons_val<std::allocator<CallBuff>,CallBuff,CallBuff const &>, COMDAT

; 279  : 	{	// construct using allocator

  00000	55		 push	 ebp
  00001	8b ec		 mov	 ebp, esp

; 280  : 	_Alval.construct(_Pdest, _STD forward<_Ty2>(_Src));

  00003	ff 75 10	 push	 DWORD PTR __Src$[ebp]
  00006	ff 75 0c	 push	 DWORD PTR __Pdest$[ebp]
  00009	e8 00 00 00 00	 call	 ??$_Construct@UCallBuff@@ABU1@@std@@YAXPAUCallBuff@@ABU1@@Z ; std::_Construct<CallBuff,CallBuff const &>
  0000e	59		 pop	 ecx
  0000f	59		 pop	 ecx

; 281  : 	}

  00010	5d		 pop	 ebp
  00011	c3		 ret	 0
??$_Cons_val@V?$allocator@UCallBuff@@@std@@UCallBuff@@ABU3@@std@@YAXAAV?$allocator@UCallBuff@@@0@PAUCallBuff@@ABU2@@Z ENDP ; std::_Cons_val<std::allocator<CallBuff>,CallBuff,CallBuff const &>
_TEXT	ENDS
PUBLIC	??$_Move@PAUCallBuff@@PAU1@@std@@YAPAUCallBuff@@PAU1@00@Z ; std::_Move<CallBuff *,CallBuff *>
; Function compile flags: /Ogsp
; File c:\program files (x86)\microsoft visual studio 10.0\vc\include\xutility
;	COMDAT ??$_Move@PAUCallBuff@@PAU1@@std@@YAPAUCallBuff@@PAU1@00@Z
_TEXT	SEGMENT
__Cat$536500 = -4					; size = 1
__First$ = 8						; size = 4
__Last$ = 12						; size = 4
__Dest$ = 16						; size = 4
??$_Move@PAUCallBuff@@PAU1@@std@@YAPAUCallBuff@@PAU1@00@Z PROC ; std::_Move<CallBuff *,CallBuff *>, COMDAT

; 2533 : 	{	// move [_First, _Last) to [_Dest, ...), unchecked

  00000	55		 push	 ebp
  00001	8b ec		 mov	 ebp, esp
  00003	51		 push	 ecx

; 2534 : 	return (_Move(_First, _Last,
; 2535 : 		_Dest, _Ptr_cat(_First, _Dest)));

  00004	ff 75 fc	 push	 DWORD PTR __Cat$536500[ebp]
  00007	ff 75 10	 push	 DWORD PTR __Dest$[ebp]
  0000a	ff 75 0c	 push	 DWORD PTR __Last$[ebp]
  0000d	ff 75 08	 push	 DWORD PTR __First$[ebp]
  00010	e8 00 00 00 00	 call	 ??$_Move@PAUCallBuff@@PAU1@@std@@YAPAUCallBuff@@PAU1@00U_Nonscalar_ptr_iterator_tag@0@@Z ; std::_Move<CallBuff *,CallBuff *>
  00015	83 c4 10	 add	 esp, 16			; 00000010H

; 2536 : 	}

  00018	c9		 leave
  00019	c3		 ret	 0
??$_Move@PAUCallBuff@@PAU1@@std@@YAPAUCallBuff@@PAU1@00@Z ENDP ; std::_Move<CallBuff *,CallBuff *>
_TEXT	ENDS
PUBLIC	??$_Umove@PAPAVioBaseChar@@@?$vector@PAVioBaseChar@@V?$allocator@PAVioBaseChar@@@std@@@std@@IAEPAPAVioBaseChar@@PAPAV2@00@Z ; std::vector<ioBaseChar *,std::allocator<ioBaseChar *> >::_Umove<ioBaseChar * *>
; Function compile flags: /Ogsp
; File c:\program files (x86)\microsoft visual studio 10.0\vc\include\vector
;	COMDAT ??$_Umove@PAPAVioBaseChar@@@?$vector@PAVioBaseChar@@V?$allocator@PAVioBaseChar@@@std@@@std@@IAEPAPAVioBaseChar@@PAPAV2@00@Z
_TEXT	SEGMENT
__First$ = 8						; size = 4
__Last$ = 12						; size = 4
__Ptr$ = 16						; size = 4
??$_Umove@PAPAVioBaseChar@@@?$vector@PAVioBaseChar@@V?$allocator@PAVioBaseChar@@@std@@@std@@IAEPAPAVioBaseChar@@PAPAV2@00@Z PROC ; std::vector<ioBaseChar *,std::allocator<ioBaseChar *> >::_Umove<ioBaseChar * *>, COMDAT
; _this$ = ecx

; 1322 : 		pointer _Umove(_Iter _First, _Iter _Last, pointer _Ptr)

  00000	55		 push	 ebp
  00001	8b ec		 mov	 ebp, esp

; 1323 : 		{	// move initializing [_First, _Last), using allocator
; 1324 : 		return (_Uninitialized_move(_First, _Last,
; 1325 : 			_Ptr, this->_Alval));

  00003	83 c1 0c	 add	 ecx, 12			; 0000000cH
  00006	51		 push	 ecx
  00007	ff 75 10	 push	 DWORD PTR __Ptr$[ebp]
  0000a	ff 75 0c	 push	 DWORD PTR __Last$[ebp]
  0000d	ff 75 08	 push	 DWORD PTR __First$[ebp]
  00010	e8 00 00 00 00	 call	 ??$_Uninitialized_move@PAPAVioBaseChar@@PAPAV1@V?$allocator@PAVioBaseChar@@@std@@@std@@YAPAPAVioBaseChar@@PAPAV1@00AAV?$allocator@PAVioBaseChar@@@0@@Z ; std::_Uninitialized_move<ioBaseChar * *,ioBaseChar * *,std::allocator<ioBaseChar *> >
  00015	83 c4 10	 add	 esp, 16			; 00000010H

; 1326 : 		}

  00018	5d		 pop	 ebp
  00019	c2 0c 00	 ret	 12			; 0000000cH
??$_Umove@PAPAVioBaseChar@@@?$vector@PAVioBaseChar@@V?$allocator@PAVioBaseChar@@@std@@@std@@IAEPAPAVioBaseChar@@PAPAV2@00@Z ENDP ; std::vector<ioBaseChar *,std::allocator<ioBaseChar *> >::_Umove<ioBaseChar * *>
_TEXT	ENDS
PUBLIC	?destroy@?$allocator@UCallBuff@@@std@@QAEXPAUCallBuff@@@Z ; std::allocator<CallBuff>::destroy
; Function compile flags: /Ogsp
; File c:\program files (x86)\microsoft visual studio 10.0\vc\include\xmemory
;	COMDAT ?destroy@?$allocator@UCallBuff@@@std@@QAEXPAUCallBuff@@@Z
_TEXT	SEGMENT
__Ptr$ = 8						; size = 4
?destroy@?$allocator@UCallBuff@@@std@@QAEXPAUCallBuff@@@Z PROC ; std::allocator<CallBuff>::destroy, COMDAT
; _this$ = ecx

; 212  : 		{	// destroy object at _Ptr

  00000	55		 push	 ebp
  00001	8b ec		 mov	 ebp, esp

; 213  : 		_Destroy(_Ptr);

  00003	8b 4d 08	 mov	 ecx, DWORD PTR __Ptr$[ebp]
  00006	ff 15 00 00 00
	00		 call	 DWORD PTR __imp_??1ioHashString@@QAE@XZ

; 214  : 		}

  0000c	5d		 pop	 ebp
  0000d	c2 04 00	 ret	 4
?destroy@?$allocator@UCallBuff@@@std@@QAEXPAUCallBuff@@@Z ENDP ; std::allocator<CallBuff>::destroy
_TEXT	ENDS
PUBLIC	??$iter_swap@PAUCallBuff@@PAU1@@std@@YAXPAUCallBuff@@0@Z ; std::iter_swap<CallBuff *,CallBuff *>
; Function compile flags: /Ogsp
; File c:\program files (x86)\microsoft visual studio 10.0\vc\include\xutility
;	COMDAT ??$iter_swap@PAUCallBuff@@PAU1@@std@@YAXPAUCallBuff@@0@Z
_TEXT	SEGMENT
__Left$ = 8						; size = 4
__Right$ = 12						; size = 4
??$iter_swap@PAUCallBuff@@PAU1@@std@@YAXPAUCallBuff@@0@Z PROC ; std::iter_swap<CallBuff *,CallBuff *>, COMDAT

; 2133 : 	{	// swap *_Left and *_Right

  00000	55		 push	 ebp
  00001	8b ec		 mov	 ebp, esp

; 2135 : 	}

  00003	5d		 pop	 ebp

; 2134 : 	swap(*_Left, *_Right);

  00004	e9 00 00 00 00	 jmp	 ??$swap@UCallBuff@@@std@@YAXAAUCallBuff@@0@Z ; std::swap<CallBuff>
??$iter_swap@PAUCallBuff@@PAU1@@std@@YAXPAUCallBuff@@0@Z ENDP ; std::iter_swap<CallBuff *,CallBuff *>
_TEXT	ENDS
PUBLIC	??$_Insertion_sort1@PAUCallBuff@@VCallBuffSort@@U1@@std@@YAXPAUCallBuff@@0VCallBuffSort@@0@Z ; std::_Insertion_sort1<CallBuff *,CallBuffSort,CallBuff>
;	COMDAT xdata$x
; File d:\lost saga for developer\youtube\tutorial\source\src\lsclient\ioinfectionbuff.cpp
xdata$x	SEGMENT
__unwindtable$??$_Insertion_sort1@PAUCallBuff@@VCallBuffSort@@U1@@std@@YAXPAUCallBuff@@0VCallBuffSort@@0@Z DD 0ffffffffH
	DD	FLAT:__unwindfunclet$??$_Insertion_sort1@PAUCallBuff@@VCallBuffSort@@U1@@std@@YAXPAUCallBuff@@0VCallBuffSort@@0@Z$0
__ehfuncinfo$??$_Insertion_sort1@PAUCallBuff@@VCallBuffSort@@U1@@std@@YAXPAUCallBuff@@0VCallBuffSort@@0@Z DD 019930522H
	DD	01H
	DD	FLAT:__unwindtable$??$_Insertion_sort1@PAUCallBuff@@VCallBuffSort@@U1@@std@@YAXPAUCallBuff@@0VCallBuffSort@@0@Z
	DD	2 DUP(00H)
	DD	2 DUP(00H)
	DD	00H
	DD	01H
; Function compile flags: /Ogsp
; File c:\program files (x86)\microsoft visual studio 10.0\vc\include\algorithm
xdata$x	ENDS
;	COMDAT ??$_Insertion_sort1@PAUCallBuff@@VCallBuffSort@@U1@@std@@YAXPAUCallBuff@@0VCallBuffSort@@0@Z
_TEXT	SEGMENT
__Val$534121 = -36					; size = 20
tv215 = -16						; size = 4
__$EHRec$ = -12						; size = 12
__Cat$536548 = 8					; size = 1
__First$ = 8						; size = 4
__Last$ = 12						; size = 4
__Pred$ = 16						; size = 1
___formal$ = 20						; size = 4
??$_Insertion_sort1@PAUCallBuff@@VCallBuffSort@@U1@@std@@YAXPAUCallBuff@@0VCallBuffSort@@0@Z PROC ; std::_Insertion_sort1<CallBuff *,CallBuffSort,CallBuff>, COMDAT

; 3650 : 	{	// insertion sort [_First, _Last), using _Pred

  00000	6a 18		 push	 24			; 00000018H
  00002	b8 00 00 00 00	 mov	 eax, __ehhandler$??$_Insertion_sort1@PAUCallBuff@@VCallBuffSort@@U1@@std@@YAXPAUCallBuff@@0VCallBuffSort@@0@Z
  00007	e8 00 00 00 00	 call	 __EH_prolog3

; 3651 : 	if (_First != _Last)

  0000c	8b 7d 08	 mov	 edi, DWORD PTR __First$[ebp]
  0000f	3b 7d 0c	 cmp	 edi, DWORD PTR __Last$[ebp]
  00012	0f 84 bd 00 00
	00		 je	 $LN6@Insertion_

; 3652 : 		for (_BidIt _Next = _First; ++_Next != _Last; )

  00018	83 c7 14	 add	 edi, 20			; 00000014H
  0001b	3b 7d 0c	 cmp	 edi, DWORD PTR __Last$[ebp]
  0001e	0f 84 b1 00 00
	00		 je	 $LN6@Insertion_
  00024	8d 47 ec	 lea	 eax, DWORD PTR [edi-20]
  00027	89 45 f0	 mov	 DWORD PTR tv215[ebp], eax
$LN7@Insertion_:

; 3653 : 			{	// order next element
; 3654 : 			_BidIt _Next1 = _Next;
; 3655 : 			_Ty _Val = _Move(*_Next);

  0002a	57		 push	 edi
  0002b	8d 4d dc	 lea	 ecx, DWORD PTR __Val$534121[ebp]
  0002e	8b df		 mov	 ebx, edi
  00030	ff 15 00 00 00
	00		 call	 DWORD PTR __imp_??0ioHashString@@QAE@ABV0@@Z
  00036	8b 75 f0	 mov	 esi, DWORD PTR tv215[ebp]
  00039	8b 46 24	 mov	 eax, DWORD PTR [esi+36]
  0003c	83 c6 28	 add	 esi, 40			; 00000028H
  0003f	89 45 ec	 mov	 DWORD PTR __Val$534121[ebp+16], eax

; 3656 : 
; 3657 : 			if (_DEBUG_LT_PRED(_Pred, _Val, *_First))

  00042	ff 75 08	 push	 DWORD PTR __First$[ebp]
  00045	83 65 fc 00	 and	 DWORD PTR __$EHRec$[ebp+8], 0
  00049	8d 45 dc	 lea	 eax, DWORD PTR __Val$534121[ebp]
  0004c	50		 push	 eax
  0004d	8d 4d 10	 lea	 ecx, DWORD PTR __Pred$[ebp]
  00050	e8 00 00 00 00	 call	 ??RCallBuffSort@@QBE_NABUCallBuff@@0@Z ; CallBuffSort::operator()
  00055	84 c0		 test	 al, al
  00057	74 25		 je	 SHORT $LN5@Insertion_

; 3658 : 				{	// found new earliest element, move to front
; 3659 : 				_Move_backward(_First, _Next, ++_Next1);

  00059	ff 75 08	 push	 DWORD PTR __Cat$536548[ebp]
  0005c	56		 push	 esi
  0005d	8b 75 08	 mov	 esi, DWORD PTR __First$[ebp]
  00060	57		 push	 edi
  00061	56		 push	 esi
  00062	e8 00 00 00 00	 call	 ??$_Move_backward@PAUCallBuff@@PAU1@@std@@YAPAUCallBuff@@PAU1@00U_Nonscalar_ptr_iterator_tag@0@@Z ; std::_Move_backward<CallBuff *,CallBuff *>
  00067	83 c4 10	 add	 esp, 16			; 00000010H

; 3660 : 				*_First = _Move(_Val);

  0006a	8d 45 dc	 lea	 eax, DWORD PTR __Val$534121[ebp]
  0006d	50		 push	 eax
  0006e	8b ce		 mov	 ecx, esi
  00070	ff 15 00 00 00
	00		 call	 DWORD PTR __imp_??4ioHashString@@QAEAAV0@ABV0@@Z
  00076	8b 45 ec	 mov	 eax, DWORD PTR __Val$534121[ebp+16]
  00079	89 46 10	 mov	 DWORD PTR [esi+16], eax

; 3661 : 				}
; 3662 : 			else

  0007c	eb 3a		 jmp	 SHORT $LN31@Insertion_
$LN5@Insertion_:

; 3663 : 				{	// look for insertion point after first
; 3664 : 				for (_BidIt _First1 = _Next1;
; 3665 : 					_DEBUG_LT_PRED(_Pred, _Val, *--_First1);
; 3666 : 					_Next1 = _First1)

  0007e	8b 75 f0	 mov	 esi, DWORD PTR tv215[ebp]
  00081	eb 12		 jmp	 SHORT $LN43@Insertion_
$LL3@Insertion_:

; 3667 : 					*_Next1 = _Move(*_First1);	// move hole down

  00083	56		 push	 esi
  00084	ff 15 00 00 00
	00		 call	 DWORD PTR __imp_??4ioHashString@@QAEAAV0@ABV0@@Z
  0008a	8b 46 10	 mov	 eax, DWORD PTR [esi+16]
  0008d	89 43 10	 mov	 DWORD PTR [ebx+16], eax
  00090	8b de		 mov	 ebx, esi
  00092	83 ee 14	 sub	 esi, 20			; 00000014H
$LN43@Insertion_:

; 3663 : 				{	// look for insertion point after first
; 3664 : 				for (_BidIt _First1 = _Next1;
; 3665 : 					_DEBUG_LT_PRED(_Pred, _Val, *--_First1);
; 3666 : 					_Next1 = _First1)

  00095	56		 push	 esi
  00096	8d 45 dc	 lea	 eax, DWORD PTR __Val$534121[ebp]
  00099	50		 push	 eax
  0009a	8d 4d 10	 lea	 ecx, DWORD PTR __Pred$[ebp]
  0009d	e8 00 00 00 00	 call	 ??RCallBuffSort@@QBE_NABUCallBuff@@0@Z ; CallBuffSort::operator()

; 3668 : 				*_Next1 = _Move(_Val);	// insert element in hole

  000a2	8b cb		 mov	 ecx, ebx
  000a4	84 c0		 test	 al, al
  000a6	75 db		 jne	 SHORT $LL3@Insertion_
  000a8	8d 45 dc	 lea	 eax, DWORD PTR __Val$534121[ebp]
  000ab	50		 push	 eax
  000ac	ff 15 00 00 00
	00		 call	 DWORD PTR __imp_??4ioHashString@@QAEAAV0@ABV0@@Z
  000b2	8b 45 ec	 mov	 eax, DWORD PTR __Val$534121[ebp+16]
  000b5	89 43 10	 mov	 DWORD PTR [ebx+16], eax
$LN31@Insertion_:

; 3669 : 				}
; 3670 : 			}

  000b8	83 4d fc ff	 or	 DWORD PTR __$EHRec$[ebp+8], -1
  000bc	8d 4d dc	 lea	 ecx, DWORD PTR __Val$534121[ebp]
  000bf	ff 15 00 00 00
	00		 call	 DWORD PTR __imp_??1ioHashString@@QAE@XZ
  000c5	83 45 f0 14	 add	 DWORD PTR tv215[ebp], 20 ; 00000014H
  000c9	83 c7 14	 add	 edi, 20			; 00000014H
  000cc	3b 7d 0c	 cmp	 edi, DWORD PTR __Last$[ebp]
  000cf	0f 85 55 ff ff
	ff		 jne	 $LN7@Insertion_
$LN6@Insertion_:

; 3671 : 	}

  000d5	e8 00 00 00 00	 call	 __EH_epilog3
  000da	c3		 ret	 0
_TEXT	ENDS
;	COMDAT text$x
text$x	SEGMENT
__unwindfunclet$??$_Insertion_sort1@PAUCallBuff@@VCallBuffSort@@U1@@std@@YAXPAUCallBuff@@0VCallBuffSort@@0@Z$0:
  00000	8d 4d dc	 lea	 ecx, DWORD PTR __Val$534121[ebp]
  00003	e9 00 00 00 00	 jmp	 ??1CallBuff@@QAE@XZ
__ehhandler$??$_Insertion_sort1@PAUCallBuff@@VCallBuffSort@@U1@@std@@YAXPAUCallBuff@@0VCallBuffSort@@0@Z:
  00008	8b 54 24 08	 mov	 edx, DWORD PTR [esp+8]
  0000c	8d 42 0c	 lea	 eax, DWORD PTR [edx+12]
  0000f	8b 4a d8	 mov	 ecx, DWORD PTR [edx-40]
  00012	33 c8		 xor	 ecx, eax
  00014	e8 00 00 00 00	 call	 @__security_check_cookie@4
  00019	b8 00 00 00 00	 mov	 eax, OFFSET __ehfuncinfo$??$_Insertion_sort1@PAUCallBuff@@VCallBuffSort@@U1@@std@@YAXPAUCallBuff@@0VCallBuffSort@@0@Z
  0001e	e9 00 00 00 00	 jmp	 ___CxxFrameHandler3
text$x	ENDS
??$_Insertion_sort1@PAUCallBuff@@VCallBuffSort@@U1@@std@@YAXPAUCallBuff@@0VCallBuffSort@@0@Z ENDP ; std::_Insertion_sort1<CallBuff *,CallBuffSort,CallBuff>
PUBLIC	??$_Cons_val@V?$allocator@VioHashString@@@std@@VioHashString@@V3@@std@@YAXAAV?$allocator@VioHashString@@@0@PAVioHashString@@$$QAV2@@Z ; std::_Cons_val<std::allocator<ioHashString>,ioHashString,ioHashString>
; Function compile flags: /Ogsp
; File c:\program files (x86)\microsoft visual studio 10.0\vc\include\xmemory
;	COMDAT ??$_Cons_val@V?$allocator@VioHashString@@@std@@VioHashString@@V3@@std@@YAXAAV?$allocator@VioHashString@@@0@PAVioHashString@@$$QAV2@@Z
_TEXT	SEGMENT
__Alval$ = 8						; size = 4
__Pdest$ = 12						; size = 4
__Src$ = 16						; size = 4
??$_Cons_val@V?$allocator@VioHashString@@@std@@VioHashString@@V3@@std@@YAXAAV?$allocator@VioHashString@@@0@PAVioHashString@@$$QAV2@@Z PROC ; std::_Cons_val<std::allocator<ioHashString>,ioHashString,ioHashString>, COMDAT

; 279  : 	{	// construct using allocator

  00000	55		 push	 ebp
  00001	8b ec		 mov	 ebp, esp

; 280  : 	_Alval.construct(_Pdest, _STD forward<_Ty2>(_Src));

  00003	ff 75 10	 push	 DWORD PTR __Src$[ebp]
  00006	8b 4d 08	 mov	 ecx, DWORD PTR __Alval$[ebp]
  00009	ff 75 0c	 push	 DWORD PTR __Pdest$[ebp]
  0000c	e8 00 00 00 00	 call	 ?construct@?$allocator@VioHashString@@@std@@QAEXPAVioHashString@@$$QAV3@@Z ; std::allocator<ioHashString>::construct

; 281  : 	}

  00011	5d		 pop	 ebp
  00012	c3		 ret	 0
??$_Cons_val@V?$allocator@VioHashString@@@std@@VioHashString@@V3@@std@@YAXAAV?$allocator@VioHashString@@@0@PAVioHashString@@$$QAV2@@Z ENDP ; std::_Cons_val<std::allocator<ioHashString>,ioHashString,ioHashString>
_TEXT	ENDS
PUBLIC	??$_Cons_val@V?$allocator@UCallBuff@@@std@@UCallBuff@@U3@@std@@YAXAAV?$allocator@UCallBuff@@@0@PAUCallBuff@@$$QAU2@@Z ; std::_Cons_val<std::allocator<CallBuff>,CallBuff,CallBuff>
; Function compile flags: /Ogsp
;	COMDAT ??$_Cons_val@V?$allocator@UCallBuff@@@std@@UCallBuff@@U3@@std@@YAXAAV?$allocator@UCallBuff@@@0@PAUCallBuff@@$$QAU2@@Z
_TEXT	SEGMENT
__Alval$ = 8						; size = 4
__Pdest$ = 12						; size = 4
__Src$ = 16						; size = 4
??$_Cons_val@V?$allocator@UCallBuff@@@std@@UCallBuff@@U3@@std@@YAXAAV?$allocator@UCallBuff@@@0@PAUCallBuff@@$$QAU2@@Z PROC ; std::_Cons_val<std::allocator<CallBuff>,CallBuff,CallBuff>, COMDAT

; 279  : 	{	// construct using allocator

  00000	55		 push	 ebp
  00001	8b ec		 mov	 ebp, esp

; 280  : 	_Alval.construct(_Pdest, _STD forward<_Ty2>(_Src));

  00003	ff 75 10	 push	 DWORD PTR __Src$[ebp]
  00006	8b 4d 08	 mov	 ecx, DWORD PTR __Alval$[ebp]
  00009	ff 75 0c	 push	 DWORD PTR __Pdest$[ebp]
  0000c	e8 00 00 00 00	 call	 ?construct@?$allocator@UCallBuff@@@std@@QAEXPAUCallBuff@@$$QAU3@@Z ; std::allocator<CallBuff>::construct

; 281  : 	}

  00011	5d		 pop	 ebp
  00012	c3		 ret	 0
??$_Cons_val@V?$allocator@UCallBuff@@@std@@UCallBuff@@U3@@std@@YAXAAV?$allocator@UCallBuff@@@0@PAUCallBuff@@$$QAU2@@Z ENDP ; std::_Cons_val<std::allocator<CallBuff>,CallBuff,CallBuff>
_TEXT	ENDS
PUBLIC	??$_Med3@PAUCallBuff@@VCallBuffSort@@@std@@YAXPAUCallBuff@@00VCallBuffSort@@@Z ; std::_Med3<CallBuff *,CallBuffSort>
; Function compile flags: /Ogsp
; File c:\program files (x86)\microsoft visual studio 10.0\vc\include\algorithm
;	COMDAT ??$_Med3@PAUCallBuff@@VCallBuffSort@@@std@@YAXPAUCallBuff@@00VCallBuffSort@@@Z
_TEXT	SEGMENT
__First$ = 8						; size = 4
__Mid$ = 12						; size = 4
__Last$ = 16						; size = 4
__Pred$ = 20						; size = 1
??$_Med3@PAUCallBuff@@VCallBuffSort@@@std@@YAXPAUCallBuff@@00VCallBuffSort@@@Z PROC ; std::_Med3<CallBuff *,CallBuffSort>, COMDAT

; 3683 : 	{	// sort median of three elements to middle

  00000	55		 push	 ebp
  00001	8b ec		 mov	 ebp, esp
  00003	56		 push	 esi

; 3684 : 	if (_DEBUG_LT_PRED(_Pred, *_Mid, *_First))

  00004	8b 75 0c	 mov	 esi, DWORD PTR __Mid$[ebp]
  00007	57		 push	 edi
  00008	8b 7d 08	 mov	 edi, DWORD PTR __First$[ebp]
  0000b	57		 push	 edi
  0000c	56		 push	 esi
  0000d	8d 4d 14	 lea	 ecx, DWORD PTR __Pred$[ebp]
  00010	e8 00 00 00 00	 call	 ??RCallBuffSort@@QBE_NABUCallBuff@@0@Z ; CallBuffSort::operator()
  00015	84 c0		 test	 al, al
  00017	74 09		 je	 SHORT $LN6@Med3

; 3685 : 		_STD iter_swap(_Mid, _First);

  00019	57		 push	 edi
  0001a	56		 push	 esi
  0001b	e8 00 00 00 00	 call	 ??$swap@UCallBuff@@@std@@YAXAAUCallBuff@@0@Z ; std::swap<CallBuff>
  00020	59		 pop	 ecx
  00021	59		 pop	 ecx
$LN6@Med3:

; 3686 : 	if (_DEBUG_LT_PRED(_Pred, *_Last, *_Mid))

  00022	56		 push	 esi
  00023	ff 75 10	 push	 DWORD PTR __Last$[ebp]
  00026	8d 4d 14	 lea	 ecx, DWORD PTR __Pred$[ebp]
  00029	e8 00 00 00 00	 call	 ??RCallBuffSort@@QBE_NABUCallBuff@@0@Z ; CallBuffSort::operator()
  0002e	84 c0		 test	 al, al
  00030	74 0b		 je	 SHORT $LN8@Med3

; 3687 : 		_STD iter_swap(_Last, _Mid);

  00032	56		 push	 esi
  00033	ff 75 10	 push	 DWORD PTR __Last$[ebp]
  00036	e8 00 00 00 00	 call	 ??$swap@UCallBuff@@@std@@YAXAAUCallBuff@@0@Z ; std::swap<CallBuff>
  0003b	59		 pop	 ecx
  0003c	59		 pop	 ecx
$LN8@Med3:

; 3688 : 	if (_DEBUG_LT_PRED(_Pred, *_Mid, *_First))

  0003d	57		 push	 edi
  0003e	56		 push	 esi
  0003f	8d 4d 14	 lea	 ecx, DWORD PTR __Pred$[ebp]
  00042	e8 00 00 00 00	 call	 ??RCallBuffSort@@QBE_NABUCallBuff@@0@Z ; CallBuffSort::operator()
  00047	84 c0		 test	 al, al
  00049	74 09		 je	 SHORT $LN10@Med3

; 3689 : 		_STD iter_swap(_Mid, _First);

  0004b	57		 push	 edi
  0004c	56		 push	 esi
  0004d	e8 00 00 00 00	 call	 ??$swap@UCallBuff@@@std@@YAXAAUCallBuff@@0@Z ; std::swap<CallBuff>
  00052	59		 pop	 ecx
  00053	59		 pop	 ecx
$LN10@Med3:
  00054	5f		 pop	 edi
  00055	5e		 pop	 esi

; 3690 : 	}

  00056	5d		 pop	 ebp
  00057	c3		 ret	 0
??$_Med3@PAUCallBuff@@VCallBuffSort@@@std@@YAXPAUCallBuff@@00VCallBuffSort@@@Z ENDP ; std::_Med3<CallBuff *,CallBuffSort>
_TEXT	ENDS
PUBLIC	??$_Adjust_heap@PAUCallBuff@@HU1@VCallBuffSort@@@std@@YAXPAUCallBuff@@HH$$QAU1@VCallBuffSort@@@Z ; std::_Adjust_heap<CallBuff *,int,CallBuff,CallBuffSort>
; Function compile flags: /Ogsp
;	COMDAT ??$_Adjust_heap@PAUCallBuff@@HU1@VCallBuffSort@@@std@@YAXPAUCallBuff@@HH$$QAU1@VCallBuffSort@@@Z
_TEXT	SEGMENT
__Top$ = -4						; size = 4
__First$ = 8						; size = 4
tv169 = 12						; size = 4
__Hole$ = 12						; size = 4
__Bottom$ = 16						; size = 4
__Val$ = 20						; size = 4
__Pred$ = 24						; size = 1
??$_Adjust_heap@PAUCallBuff@@HU1@VCallBuffSort@@@std@@YAXPAUCallBuff@@HH$$QAU1@VCallBuffSort@@@Z PROC ; std::_Adjust_heap<CallBuff *,int,CallBuff,CallBuffSort>, COMDAT

; 2565 : 	{	// percolate _Hole to _Bottom, then push _Val, using _Pred

  00000	55		 push	 ebp
  00001	8b ec		 mov	 ebp, esp
  00003	51		 push	 ecx

; 2566 : 	_Diff _Top = _Hole;

  00004	8b 45 0c	 mov	 eax, DWORD PTR __Hole$[ebp]
  00007	53		 push	 ebx
  00008	56		 push	 esi

; 2567 : 	_Diff _Idx = 2 * _Hole + 2;
; 2568 : 
; 2569 : 	for (; _Idx < _Bottom; _Idx = 2 * _Idx + 2)

  00009	8b 75 08	 mov	 esi, DWORD PTR __First$[ebp]
  0000c	57		 push	 edi
  0000d	89 45 fc	 mov	 DWORD PTR __Top$[ebp], eax
  00010	8d 7c 00 02	 lea	 edi, DWORD PTR [eax+eax+2]
  00014	eb 42		 jmp	 SHORT $LN20@Adjust_hea
$LL5@Adjust_hea:

; 2570 : 		{	// move _Hole down to larger child
; 2571 : 		if (_DEBUG_LT_PRED(_Pred, *(_First + _Idx), *(_First + (_Idx - 1))))

  00016	8b c7		 mov	 eax, edi
  00018	6b c0 14	 imul	 eax, 20			; 00000014H
  0001b	03 c6		 add	 eax, esi
  0001d	8d 48 ec	 lea	 ecx, DWORD PTR [eax-20]
  00020	51		 push	 ecx
  00021	50		 push	 eax
  00022	8d 4d 18	 lea	 ecx, DWORD PTR __Pred$[ebp]
  00025	e8 00 00 00 00	 call	 ??RCallBuffSort@@QBE_NABUCallBuff@@0@Z ; CallBuffSort::operator()
  0002a	84 c0		 test	 al, al
  0002c	74 01		 je	 SHORT $LN2@Adjust_hea

; 2572 : 			--_Idx;

  0002e	4f		 dec	 edi
$LN2@Adjust_hea:

; 2573 : 		*(_First + _Hole) = _Move(*(_First + _Idx));

  0002f	8b 4d 0c	 mov	 ecx, DWORD PTR __Hole$[ebp]
  00032	8b df		 mov	 ebx, edi
  00034	6b c9 14	 imul	 ecx, 20			; 00000014H
  00037	6b db 14	 imul	 ebx, 20			; 00000014H
  0003a	03 de		 add	 ebx, esi
  0003c	03 ce		 add	 ecx, esi
  0003e	53		 push	 ebx
  0003f	89 4d 0c	 mov	 DWORD PTR tv169[ebp], ecx
  00042	ff 15 00 00 00
	00		 call	 DWORD PTR __imp_??4ioHashString@@QAEAAV0@ABV0@@Z
  00048	8b 4d 0c	 mov	 ecx, DWORD PTR tv169[ebp]
  0004b	8b 43 10	 mov	 eax, DWORD PTR [ebx+16]

; 2574 : 		_Hole = _Idx;

  0004e	89 7d 0c	 mov	 DWORD PTR __Hole$[ebp], edi
  00051	89 41 10	 mov	 DWORD PTR [ecx+16], eax
  00054	8d 7c 3f 02	 lea	 edi, DWORD PTR [edi+edi+2]
$LN20@Adjust_hea:

; 2567 : 	_Diff _Idx = 2 * _Hole + 2;
; 2568 : 
; 2569 : 	for (; _Idx < _Bottom; _Idx = 2 * _Idx + 2)

  00058	3b 7d 10	 cmp	 edi, DWORD PTR __Bottom$[ebp]
  0005b	7c b9		 jl	 SHORT $LL5@Adjust_hea

; 2575 : 		}
; 2576 : 
; 2577 : 	if (_Idx == _Bottom)

  0005d	75 28		 jne	 SHORT $LN1@Adjust_hea

; 2578 : 		{	// only child at bottom, move _Hole down to it
; 2579 : 		*(_First + _Hole) = _Move(*(_First + (_Bottom - 1)));

  0005f	8b 45 10	 mov	 eax, DWORD PTR __Bottom$[ebp]
  00062	8b 5d 0c	 mov	 ebx, DWORD PTR __Hole$[ebp]
  00065	6b c0 14	 imul	 eax, 20			; 00000014H
  00068	6b db 14	 imul	 ebx, 20			; 00000014H
  0006b	8d 7c 30 ec	 lea	 edi, DWORD PTR [eax+esi-20]
  0006f	03 de		 add	 ebx, esi
  00071	57		 push	 edi
  00072	8b cb		 mov	 ecx, ebx
  00074	ff 15 00 00 00
	00		 call	 DWORD PTR __imp_??4ioHashString@@QAEAAV0@ABV0@@Z
  0007a	8b 47 10	 mov	 eax, DWORD PTR [edi+16]
  0007d	89 43 10	 mov	 DWORD PTR [ebx+16], eax

; 2580 : 		_Hole = _Bottom - 1;

  00080	8b 45 10	 mov	 eax, DWORD PTR __Bottom$[ebp]
  00083	48		 dec	 eax
  00084	89 45 0c	 mov	 DWORD PTR __Hole$[ebp], eax
$LN1@Adjust_hea:

; 2581 : 		}
; 2582 : 	_Push_heap(_First, _Hole, _Top, _Move(_Val), _Pred);

  00087	ff 75 18	 push	 DWORD PTR __Pred$[ebp]
  0008a	ff 75 14	 push	 DWORD PTR __Val$[ebp]
  0008d	ff 75 fc	 push	 DWORD PTR __Top$[ebp]
  00090	ff 75 0c	 push	 DWORD PTR __Hole$[ebp]
  00093	56		 push	 esi
  00094	e8 00 00 00 00	 call	 ??$_Push_heap@PAUCallBuff@@HU1@VCallBuffSort@@@std@@YAXPAUCallBuff@@HH$$QAU1@VCallBuffSort@@@Z ; std::_Push_heap<CallBuff *,int,CallBuff,CallBuffSort>
  00099	83 c4 14	 add	 esp, 20			; 00000014H
  0009c	5f		 pop	 edi
  0009d	5e		 pop	 esi
  0009e	5b		 pop	 ebx

; 2583 : 	}

  0009f	c9		 leave
  000a0	c3		 ret	 0
??$_Adjust_heap@PAUCallBuff@@HU1@VCallBuffSort@@@std@@YAXPAUCallBuff@@HH$$QAU1@VCallBuffSort@@@Z ENDP ; std::_Adjust_heap<CallBuff *,int,CallBuff,CallBuffSort>
_TEXT	ENDS
PUBLIC	??$_Pop_heap@PAUCallBuff@@HU1@VCallBuffSort@@@std@@YAXPAUCallBuff@@00$$QAU1@VCallBuffSort@@PAH@Z ; std::_Pop_heap<CallBuff *,int,CallBuff,CallBuffSort>
; Function compile flags: /Ogsp
;	COMDAT ??$_Pop_heap@PAUCallBuff@@HU1@VCallBuffSort@@@std@@YAXPAUCallBuff@@00$$QAU1@VCallBuffSort@@PAH@Z
_TEXT	SEGMENT
__First$ = 8						; size = 4
__Last$ = 12						; size = 4
__Dest$ = 16						; size = 4
__Val$ = 20						; size = 4
__Pred$ = 24						; size = 1
___formal$ = 28						; size = 4
??$_Pop_heap@PAUCallBuff@@HU1@VCallBuffSort@@@std@@YAXPAUCallBuff@@00$$QAU1@VCallBuffSort@@PAH@Z PROC ; std::_Pop_heap<CallBuff *,int,CallBuff,CallBuffSort>, COMDAT

; 2591 : 	{	// pop *_First to *_Dest and reheap, using _Pred

  00000	55		 push	 ebp
  00001	8b ec		 mov	 ebp, esp
  00003	56		 push	 esi

; 2592 : 	*_Dest = _Move(*_First);

  00004	8b 75 08	 mov	 esi, DWORD PTR __First$[ebp]
  00007	57		 push	 edi
  00008	8b 7d 10	 mov	 edi, DWORD PTR __Dest$[ebp]
  0000b	56		 push	 esi
  0000c	8b cf		 mov	 ecx, edi
  0000e	ff 15 00 00 00
	00		 call	 DWORD PTR __imp_??4ioHashString@@QAEAAV0@ABV0@@Z

; 2593 : 	_Adjust_heap(_First, _Diff(0), _Diff(_Last - _First),
; 2594 : 		_Move(_Val), _Pred);

  00014	ff 75 18	 push	 DWORD PTR __Pred$[ebp]
  00017	8b 46 10	 mov	 eax, DWORD PTR [esi+16]
  0001a	ff 75 14	 push	 DWORD PTR __Val$[ebp]
  0001d	89 47 10	 mov	 DWORD PTR [edi+16], eax
  00020	8b 45 0c	 mov	 eax, DWORD PTR __Last$[ebp]
  00023	2b c6		 sub	 eax, esi
  00025	6a 14		 push	 20			; 00000014H
  00027	59		 pop	 ecx
  00028	99		 cdq
  00029	f7 f9		 idiv	 ecx
  0002b	50		 push	 eax
  0002c	6a 00		 push	 0
  0002e	56		 push	 esi
  0002f	e8 00 00 00 00	 call	 ??$_Adjust_heap@PAUCallBuff@@HU1@VCallBuffSort@@@std@@YAXPAUCallBuff@@HH$$QAU1@VCallBuffSort@@@Z ; std::_Adjust_heap<CallBuff *,int,CallBuff,CallBuffSort>
  00034	83 c4 14	 add	 esp, 20			; 00000014H
  00037	5f		 pop	 edi
  00038	5e		 pop	 esi

; 2595 : 	}

  00039	5d		 pop	 ebp
  0003a	c3		 ret	 0
??$_Pop_heap@PAUCallBuff@@HU1@VCallBuffSort@@@std@@YAXPAUCallBuff@@00$$QAU1@VCallBuffSort@@PAH@Z ENDP ; std::_Pop_heap<CallBuff *,int,CallBuff,CallBuffSort>
_TEXT	ENDS
PUBLIC	?GetTeam@ioPlayEntity@@QBE?AW4TeamType@@XZ	; ioPlayEntity::GetTeam
; Function compile flags: /Ogsp
; File d:\lost saga for developer\youtube\tutorial\source\src\lsclient\ioplayentity.h
;	COMDAT ?GetTeam@ioPlayEntity@@QBE?AW4TeamType@@XZ
_TEXT	SEGMENT
_value$536646 = -4					; size = 4
?GetTeam@ioPlayEntity@@QBE?AW4TeamType@@XZ PROC		; ioPlayEntity::GetTeam, COMDAT
; _this$ = ecx

; 107  : 	inline TeamType GetTeam() const { return m_TeamType; }

  00000	55		 push	 ebp
  00001	8b ec		 mov	 ebp, esp
  00003	51		 push	 ecx
  00004	8d 45 fc	 lea	 eax, DWORD PTR _value$536646[ebp]
  00007	50		 push	 eax
  00008	81 c1 90 00 00
	00		 add	 ecx, 144		; 00000090H
  0000e	e8 00 00 00 00	 call	 ?DecryptValueToPool@?$CEncrypt@W4TeamType@@@@QAEXPAW4TeamType@@@Z ; CEncrypt<enum TeamType>::DecryptValueToPool
  00013	8b 45 fc	 mov	 eax, DWORD PTR _value$536646[ebp]
  00016	c9		 leave
  00017	c3		 ret	 0
?GetTeam@ioPlayEntity@@QBE?AW4TeamType@@XZ ENDP		; ioPlayEntity::GetTeam
_TEXT	ENDS
PUBLIC	??0?$vector@VioHashString@@V?$allocator@VioHashString@@@std@@@std@@QAE@XZ ; std::vector<ioHashString,std::allocator<ioHashString> >::vector<ioHashString,std::allocator<ioHashString> >
; Function compile flags: /Ogsp
; File c:\program files (x86)\microsoft visual studio 10.0\vc\include\vector
;	COMDAT ??0?$vector@VioHashString@@V?$allocator@VioHashString@@@std@@@std@@QAE@XZ
_TEXT	SEGMENT
??0?$vector@VioHashString@@V?$allocator@VioHashString@@@std@@@std@@QAE@XZ PROC ; std::vector<ioHashString,std::allocator<ioHashString> >::vector<ioHashString,std::allocator<ioHashString> >, COMDAT
; _this$ = ecx

; 507  : 		{	// construct empty vector

  00000	8b c1		 mov	 eax, ecx
  00002	33 c9		 xor	 ecx, ecx
  00004	89 08		 mov	 DWORD PTR [eax], ecx
  00006	89 48 04	 mov	 DWORD PTR [eax+4], ecx
  00009	89 48 08	 mov	 DWORD PTR [eax+8], ecx

; 508  : 		}

  0000c	c3		 ret	 0
??0?$vector@VioHashString@@V?$allocator@VioHashString@@@std@@@std@@QAE@XZ ENDP ; std::vector<ioHashString,std::allocator<ioHashString> >::vector<ioHashString,std::allocator<ioHashString> >
_TEXT	ENDS
PUBLIC	??0?$CEncrypt@M@@QAE@ABV0@@Z			; CEncrypt<float>::CEncrypt<float>
;	COMDAT xdata$x
; File d:\lost saga for developer\youtube\tutorial\source\src\lsclient\encryptvalue.h
xdata$x	SEGMENT
__unwindtable$??0?$CEncrypt@M@@QAE@ABV0@@Z DD 0ffffffffH
	DD	FLAT:__unwindfunclet$??0?$CEncrypt@M@@QAE@ABV0@@Z$0
__ehfuncinfo$??0?$CEncrypt@M@@QAE@ABV0@@Z DD 019930522H
	DD	01H
	DD	FLAT:__unwindtable$??0?$CEncrypt@M@@QAE@ABV0@@Z
	DD	2 DUP(00H)
	DD	2 DUP(00H)
	DD	00H
	DD	01H
; Function compile flags: /Ogsp
xdata$x	ENDS
;	COMDAT ??0?$CEncrypt@M@@QAE@ABV0@@Z
_TEXT	SEGMENT
_this$ = -16						; size = 4
__$EHRec$ = -12						; size = 12
_value$536676 = 8					; size = 4
_value$536671 = 8					; size = 4
_inValue$ = 8						; size = 4
??0?$CEncrypt@M@@QAE@ABV0@@Z PROC			; CEncrypt<float>::CEncrypt<float>, COMDAT
; _this$ = ecx

; 120  : 	CEncrypt( const CEncrypt<type> &inValue )   //     

  00000	6a 04		 push	 4
  00002	b8 00 00 00 00	 mov	 eax, __ehhandler$??0?$CEncrypt@M@@QAE@ABV0@@Z
  00007	e8 00 00 00 00	 call	 __EH_prolog3
  0000c	8b f1		 mov	 esi, ecx
  0000e	89 75 f0	 mov	 DWORD PTR _this$[ebp], esi
  00011	8d 4e 0c	 lea	 ecx, DWORD PTR [esi+12]
  00014	c7 06 00 00 00
	00		 mov	 DWORD PTR [esi], OFFSET ??_7?$CEncrypt@M@@6B@
  0001a	e8 00 00 00 00	 call	 ??0ccddaabb@@QAE@XZ	; ccddaabb::ccddaabb
  0001f	83 65 fc 00	 and	 DWORD PTR __$EHRec$[ebp+8], 0

; 121  : 	{
; 122  : 		Init();

  00023	8b ce		 mov	 ecx, esi
  00025	e8 00 00 00 00	 call	 ?Init@?$CEncrypt@M@@AAEXXZ ; CEncrypt<float>::Init

; 123  : 		*this = inValue;

  0002a	8b 4d 08	 mov	 ecx, DWORD PTR _inValue$[ebp]
  0002d	8d 45 08	 lea	 eax, DWORD PTR _value$536671[ebp]
  00030	50		 push	 eax
  00031	e8 00 00 00 00	 call	 ?DecryptValueToPool@?$CEncrypt@M@@QAEXPAM@Z ; CEncrypt<float>::DecryptValueToPool
  00036	f3 0f 10 45 08	 movss	 xmm0, DWORD PTR _value$536671[ebp]
  0003b	8d 45 08	 lea	 eax, DWORD PTR _value$536676[ebp]
  0003e	50		 push	 eax
  0003f	8b ce		 mov	 ecx, esi
  00041	f3 0f 11 45 08	 movss	 DWORD PTR _value$536676[ebp], xmm0
  00046	e8 00 00 00 00	 call	 ?EncryptValueToPool@?$CEncrypt@M@@AAEXPBD@Z ; CEncrypt<float>::EncryptValueToPool

; 124  : 	}

  0004b	8b c6		 mov	 eax, esi
  0004d	e8 00 00 00 00	 call	 __EH_epilog3
  00052	c2 04 00	 ret	 4
_TEXT	ENDS
;	COMDAT text$x
text$x	SEGMENT
__unwindfunclet$??0?$CEncrypt@M@@QAE@ABV0@@Z$0:
  00000	8b 4d f0	 mov	 ecx, DWORD PTR _this$[ebp]
  00003	83 c1 0c	 add	 ecx, 12			; 0000000cH
  00006	e9 00 00 00 00	 jmp	 ??1ccddaabb@@UAE@XZ	; ccddaabb::~ccddaabb
__ehhandler$??0?$CEncrypt@M@@QAE@ABV0@@Z:
  0000b	8b 54 24 08	 mov	 edx, DWORD PTR [esp+8]
  0000f	8d 42 0c	 lea	 eax, DWORD PTR [edx+12]
  00012	8b 4a ec	 mov	 ecx, DWORD PTR [edx-20]
  00015	33 c8		 xor	 ecx, eax
  00017	e8 00 00 00 00	 call	 @__security_check_cookie@4
  0001c	b8 00 00 00 00	 mov	 eax, OFFSET __ehfuncinfo$??0?$CEncrypt@M@@QAE@ABV0@@Z
  00021	e9 00 00 00 00	 jmp	 ___CxxFrameHandler3
text$x	ENDS
??0?$CEncrypt@M@@QAE@ABV0@@Z ENDP			; CEncrypt<float>::CEncrypt<float>
PUBLIC	?_Buy@?$vector@VioHashString@@V?$allocator@VioHashString@@@std@@@std@@IAE_NI@Z ; std::vector<ioHashString,std::allocator<ioHashString> >::_Buy
; Function compile flags: /Ogsp
; File c:\program files (x86)\microsoft visual studio 10.0\vc\include\vector
;	COMDAT ?_Buy@?$vector@VioHashString@@V?$allocator@VioHashString@@@std@@@std@@IAE_NI@Z
_TEXT	SEGMENT
__Capacity$ = 8						; size = 4
?_Buy@?$vector@VioHashString@@V?$allocator@VioHashString@@@std@@@std@@IAE_NI@Z PROC ; std::vector<ioHashString,std::allocator<ioHashString> >::_Buy, COMDAT
; _this$ = ecx

; 1250 : 		{	// allocate array with _Capacity elements

  00000	55		 push	 ebp
  00001	8b ec		 mov	 ebp, esp
  00003	56		 push	 esi

; 1251 : 		this->_Myfirst = 0;

  00004	33 c0		 xor	 eax, eax
  00006	57		 push	 edi

; 1252 : 		this->_Mylast = 0;
; 1253 : 		this->_Myend = 0;
; 1254 : 
; 1255 : 		if (_Capacity == 0)

  00007	8b 7d 08	 mov	 edi, DWORD PTR __Capacity$[ebp]
  0000a	8b f1		 mov	 esi, ecx
  0000c	89 06		 mov	 DWORD PTR [esi], eax
  0000e	89 46 04	 mov	 DWORD PTR [esi+4], eax
  00011	89 46 08	 mov	 DWORD PTR [esi+8], eax
  00014	3b f8		 cmp	 edi, eax
  00016	75 04		 jne	 SHORT $LN4@Buy@2

; 1256 : 			return (false);

  00018	32 c0		 xor	 al, al
  0001a	eb 2b		 jmp	 SHORT $LN5@Buy@2
$LN4@Buy@2:

; 1257 : 		else if (max_size() < _Capacity)

  0001c	81 ff ff ff ff
	0f		 cmp	 edi, 268435455		; 0fffffffH
  00022	76 0b		 jbe	 SHORT $LN2@Buy@2

; 1258 : 			_Xlen();	// result too long

  00024	68 00 00 00 00	 push	 OFFSET ??_C@_0BD@OLBABOEK@vector?$DMT?$DO?5too?5long?$AA@
  00029	ff 15 00 00 00
	00		 call	 DWORD PTR __imp_?_Xlength_error@std@@YAXPBD@Z
$LN19@Buy@2:
$LN2@Buy@2:

; 1259 : 		else
; 1260 : 			{	// nonempty array, allocate storage
; 1261 : 			this->_Myfirst = this->_Alval.allocate(_Capacity);

  0002f	50		 push	 eax
  00030	57		 push	 edi
  00031	e8 00 00 00 00	 call	 ??$_Allocate@VioHashString@@@std@@YAPAVioHashString@@IPAV1@@Z ; std::_Allocate<ioHashString>

; 1262 : 			this->_Mylast = this->_Myfirst;
; 1263 : 			this->_Myend = this->_Myfirst + _Capacity;

  00036	c1 e7 04	 shl	 edi, 4
  00039	03 f8		 add	 edi, eax
  0003b	59		 pop	 ecx
  0003c	89 06		 mov	 DWORD PTR [esi], eax
  0003e	89 46 04	 mov	 DWORD PTR [esi+4], eax
  00041	59		 pop	 ecx
  00042	89 7e 08	 mov	 DWORD PTR [esi+8], edi

; 1264 : 			}
; 1265 : 		return (true);

  00045	b0 01		 mov	 al, 1
$LN5@Buy@2:
  00047	5f		 pop	 edi
  00048	5e		 pop	 esi

; 1266 : 		}

  00049	5d		 pop	 ebp
  0004a	c2 04 00	 ret	 4
$LN18@Buy@2:
?_Buy@?$vector@VioHashString@@V?$allocator@VioHashString@@@std@@@std@@IAE_NI@Z ENDP ; std::vector<ioHashString,std::allocator<ioHashString> >::_Buy
_TEXT	ENDS
PUBLIC	??9?$_Vector_const_iterator@V?$_Vector_val@VioHashString@@V?$allocator@VioHashString@@@std@@@std@@@std@@QBE_NABV01@@Z ; std::_Vector_const_iterator<std::_Vector_val<ioHashString,std::allocator<ioHashString> > >::operator!=
; Function compile flags: /Ogsp
;	COMDAT ??9?$_Vector_const_iterator@V?$_Vector_val@VioHashString@@V?$allocator@VioHashString@@@std@@@std@@@std@@QBE_NABV01@@Z
_TEXT	SEGMENT
__Right$ = 8						; size = 4
??9?$_Vector_const_iterator@V?$_Vector_val@VioHashString@@V?$allocator@VioHashString@@@std@@@std@@@std@@QBE_NABV01@@Z PROC ; std::_Vector_const_iterator<std::_Vector_val<ioHashString,std::allocator<ioHashString> > >::operator!=, COMDAT
; _this$ = ecx

; 207  : 		{	// test for iterator inequality

  00000	55		 push	 ebp
  00001	8b ec		 mov	 ebp, esp

; 208  : 		return (!(*this == _Right));

  00003	8b 01		 mov	 eax, DWORD PTR [ecx]
  00005	8b 55 08	 mov	 edx, DWORD PTR __Right$[ebp]
  00008	33 c9		 xor	 ecx, ecx
  0000a	3b 02		 cmp	 eax, DWORD PTR [edx]
  0000c	0f 95 c0	 setne	 al

; 209  : 		}

  0000f	5d		 pop	 ebp
  00010	c2 04 00	 ret	 4
??9?$_Vector_const_iterator@V?$_Vector_val@VioHashString@@V?$allocator@VioHashString@@@std@@@std@@@std@@QBE_NABV01@@Z ENDP ; std::_Vector_const_iterator<std::_Vector_val<ioHashString,std::allocator<ioHashString> > >::operator!=
_TEXT	ENDS
PUBLIC	??$_Move@PAVioHashString@@PAV1@@std@@YAPAVioHashString@@PAV1@00@Z ; std::_Move<ioHashString *,ioHashString *>
; Function compile flags: /Ogsp
; File c:\program files (x86)\microsoft visual studio 10.0\vc\include\xutility
;	COMDAT ??$_Move@PAVioHashString@@PAV1@@std@@YAPAVioHashString@@PAV1@00@Z
_TEXT	SEGMENT
__Cat$536727 = -4					; size = 1
__First$ = 8						; size = 4
__Last$ = 12						; size = 4
__Dest$ = 16						; size = 4
??$_Move@PAVioHashString@@PAV1@@std@@YAPAVioHashString@@PAV1@00@Z PROC ; std::_Move<ioHashString *,ioHashString *>, COMDAT

; 2533 : 	{	// move [_First, _Last) to [_Dest, ...), unchecked

  00000	55		 push	 ebp
  00001	8b ec		 mov	 ebp, esp
  00003	51		 push	 ecx

; 2534 : 	return (_Move(_First, _Last,
; 2535 : 		_Dest, _Ptr_cat(_First, _Dest)));

  00004	ff 75 fc	 push	 DWORD PTR __Cat$536727[ebp]
  00007	ff 75 10	 push	 DWORD PTR __Dest$[ebp]
  0000a	ff 75 0c	 push	 DWORD PTR __Last$[ebp]
  0000d	ff 75 08	 push	 DWORD PTR __First$[ebp]
  00010	e8 00 00 00 00	 call	 ??$_Move@PAVioHashString@@PAV1@@std@@YAPAVioHashString@@PAV1@00U_Nonscalar_ptr_iterator_tag@0@@Z ; std::_Move<ioHashString *,ioHashString *>
  00015	83 c4 10	 add	 esp, 16			; 00000010H

; 2536 : 	}

  00018	c9		 leave
  00019	c3		 ret	 0
??$_Move@PAVioHashString@@PAV1@@std@@YAPAVioHashString@@PAV1@00@Z ENDP ; std::_Move<ioHashString *,ioHashString *>
_TEXT	ENDS
PUBLIC	?destroy@?$allocator@VioHashString@@@std@@QAEXPAVioHashString@@@Z ; std::allocator<ioHashString>::destroy
; Function compile flags: /Ogsp
; File c:\program files (x86)\microsoft visual studio 10.0\vc\include\xmemory
;	COMDAT ?destroy@?$allocator@VioHashString@@@std@@QAEXPAVioHashString@@@Z
_TEXT	SEGMENT
__Ptr$ = 8						; size = 4
?destroy@?$allocator@VioHashString@@@std@@QAEXPAVioHashString@@@Z PROC ; std::allocator<ioHashString>::destroy, COMDAT
; _this$ = ecx

; 212  : 		{	// destroy object at _Ptr

  00000	55		 push	 ebp
  00001	8b ec		 mov	 ebp, esp

; 213  : 		_Destroy(_Ptr);

  00003	8b 4d 08	 mov	 ecx, DWORD PTR __Ptr$[ebp]
  00006	ff 15 00 00 00
	00		 call	 DWORD PTR __imp_??1ioHashString@@QAE@XZ

; 214  : 		}

  0000c	5d		 pop	 ebp
  0000d	c2 04 00	 ret	 4
?destroy@?$allocator@VioHashString@@@std@@QAEXPAVioHashString@@@Z ENDP ; std::allocator<ioHashString>::destroy
_TEXT	ENDS
PUBLIC	??$_Cons_val@V?$allocator@VioHashString@@@std@@VioHashString@@ABV3@@std@@YAXAAV?$allocator@VioHashString@@@0@PAVioHashString@@ABV2@@Z ; std::_Cons_val<std::allocator<ioHashString>,ioHashString,ioHashString const &>
; Function compile flags: /Ogsp
;	COMDAT ??$_Cons_val@V?$allocator@VioHashString@@@std@@VioHashString@@ABV3@@std@@YAXAAV?$allocator@VioHashString@@@0@PAVioHashString@@ABV2@@Z
_TEXT	SEGMENT
__Alval$ = 8						; size = 4
__Pdest$ = 12						; size = 4
__Src$ = 16						; size = 4
??$_Cons_val@V?$allocator@VioHashString@@@std@@VioHashString@@ABV3@@std@@YAXAAV?$allocator@VioHashString@@@0@PAVioHashString@@ABV2@@Z PROC ; std::_Cons_val<std::allocator<ioHashString>,ioHashString,ioHashString const &>, COMDAT

; 279  : 	{	// construct using allocator

  00000	55		 push	 ebp
  00001	8b ec		 mov	 ebp, esp

; 280  : 	_Alval.construct(_Pdest, _STD forward<_Ty2>(_Src));

  00003	ff 75 10	 push	 DWORD PTR __Src$[ebp]
  00006	ff 75 0c	 push	 DWORD PTR __Pdest$[ebp]
  00009	e8 00 00 00 00	 call	 ??$_Construct@VioHashString@@ABV1@@std@@YAXPAVioHashString@@ABV1@@Z ; std::_Construct<ioHashString,ioHashString const &>
  0000e	59		 pop	 ecx
  0000f	59		 pop	 ecx

; 281  : 	}

  00010	5d		 pop	 ebp
  00011	c3		 ret	 0
??$_Cons_val@V?$allocator@VioHashString@@@std@@VioHashString@@ABV3@@std@@YAXAAV?$allocator@VioHashString@@@0@PAVioHashString@@ABV2@@Z ENDP ; std::_Cons_val<std::allocator<ioHashString>,ioHashString,ioHashString const &>
_TEXT	ENDS
PUBLIC	?erase@?$vector@PAVioBaseChar@@V?$allocator@PAVioBaseChar@@@std@@@std@@QAE?AV?$_Vector_iterator@V?$_Vector_val@PAVioBaseChar@@V?$allocator@PAVioBaseChar@@@std@@@std@@@2@V?$_Vector_const_iterator@V?$_Vector_val@PAVioBaseChar@@V?$allocator@PAVioBaseChar@@@std@@@std@@@2@0@Z ; std::vector<ioBaseChar *,std::allocator<ioBaseChar *> >::erase
; Function compile flags: /Ogsp
; File c:\program files (x86)\microsoft visual studio 10.0\vc\include\vector
;	COMDAT ?erase@?$vector@PAVioBaseChar@@V?$allocator@PAVioBaseChar@@@std@@@std@@QAE?AV?$_Vector_iterator@V?$_Vector_val@PAVioBaseChar@@V?$allocator@PAVioBaseChar@@@std@@@std@@@2@V?$_Vector_const_iterator@V?$_Vector_val@PAVioBaseChar@@V?$allocator@PAVioBaseChar@@@std@@@std@@@2@0@Z
_TEXT	SEGMENT
___$ReturnUdt$ = 8					; size = 4
__First_arg$ = 12					; size = 4
__Cat$536823 = 16					; size = 1
__Last_arg$ = 16					; size = 4
?erase@?$vector@PAVioBaseChar@@V?$allocator@PAVioBaseChar@@@std@@@std@@QAE?AV?$_Vector_iterator@V?$_Vector_val@PAVioBaseChar@@V?$allocator@PAVioBaseChar@@@std@@@std@@@2@V?$_Vector_const_iterator@V?$_Vector_val@PAVioBaseChar@@V?$allocator@PAVioBaseChar@@@std@@@std@@@2@0@Z PROC ; std::vector<ioBaseChar *,std::allocator<ioBaseChar *> >::erase, COMDAT
; _this$ = ecx

; 1190 : 		{	// erase [_First, _Last)

  00000	55		 push	 ebp
  00001	8b ec		 mov	 ebp, esp

; 1191 : 		iterator _First = _Make_iter(_First_arg);

  00003	8b 45 0c	 mov	 eax, DWORD PTR __First_arg$[ebp]
  00006	56		 push	 esi
  00007	57		 push	 edi
  00008	8b 7d 08	 mov	 edi, DWORD PTR ___$ReturnUdt$[ebp]
  0000b	8b f1		 mov	 esi, ecx
  0000d	89 07		 mov	 DWORD PTR [edi], eax

; 1192 : 		iterator _Last = _Make_iter(_Last_arg);
; 1193 : 
; 1194 : 		if (_First != _Last)

  0000f	3b 45 10	 cmp	 eax, DWORD PTR __Last_arg$[ebp]
  00012	74 16		 je	 SHORT $LN1@erase

; 1195 : 			{	// worth doing, copy down over hole
; 1196 :  #if _ITERATOR_DEBUG_LEVEL == 2
; 1197 : 			if (_Last < _First || _VICONT(_First) != this
; 1198 : 				|| _VIPTR(_First) < this->_Myfirst
; 1199 : 				|| this->_Mylast < _VIPTR(_Last))
; 1200 : 				_DEBUG_ERROR("vector erase iterator outside range");
; 1201 : 			pointer _Ptr = _Move(_VIPTR(_Last), this->_Mylast,
; 1202 : 				_VIPTR(_First));
; 1203 : 			_Orphan_range(_VIPTR(_First), this->_Mylast);
; 1204 : 
; 1205 :  #else /* _ITERATOR_DEBUG_LEVEL == 2 */
; 1206 : 			pointer _Ptr = _Move(_VIPTR(_Last), this->_Mylast,
; 1207 : 				_VIPTR(_First));

  00014	ff 75 10	 push	 DWORD PTR __Cat$536823[ebp]
  00017	8b 4e 04	 mov	 ecx, DWORD PTR [esi+4]
  0001a	50		 push	 eax
  0001b	51		 push	 ecx
  0001c	ff 75 10	 push	 DWORD PTR __Last_arg$[ebp]
  0001f	e8 00 00 00 00	 call	 ??$_Move@PAPAVioBaseChar@@PAPAV1@@std@@YAPAPAVioBaseChar@@PAPAV1@00U_Scalar_ptr_iterator_tag@0@@Z ; std::_Move<ioBaseChar * *,ioBaseChar * *>
  00024	83 c4 10	 add	 esp, 16			; 00000010H

; 1208 :  #endif /* _ITERATOR_DEBUG_LEVEL == 2 */
; 1209 : 
; 1210 : 			_Destroy(_Ptr, this->_Mylast);
; 1211 : 			this->_Mylast = _Ptr;

  00027	89 46 04	 mov	 DWORD PTR [esi+4], eax
$LN1@erase:

; 1212 : 			}
; 1213 : 		return (_First);

  0002a	8b c7		 mov	 eax, edi
  0002c	5f		 pop	 edi
  0002d	5e		 pop	 esi

; 1214 : 		}

  0002e	5d		 pop	 ebp
  0002f	c2 0c 00	 ret	 12			; 0000000cH
?erase@?$vector@PAVioBaseChar@@V?$allocator@PAVioBaseChar@@@std@@@std@@QAE?AV?$_Vector_iterator@V?$_Vector_val@PAVioBaseChar@@V?$allocator@PAVioBaseChar@@@std@@@std@@@2@V?$_Vector_const_iterator@V?$_Vector_val@PAVioBaseChar@@V?$allocator@PAVioBaseChar@@@std@@@std@@@2@0@Z ENDP ; std::vector<ioBaseChar *,std::allocator<ioBaseChar *> >::erase
_TEXT	ENDS
PUBLIC	?_Tidy@?$vector@PAVioBaseChar@@V?$allocator@PAVioBaseChar@@@std@@@std@@IAEXXZ ; std::vector<ioBaseChar *,std::allocator<ioBaseChar *> >::_Tidy
EXTRN	__imp_?_Orphan_all@_Container_base0@std@@QAEXXZ:PROC
; Function compile flags: /Ogsp
;	COMDAT ?_Tidy@?$vector@PAVioBaseChar@@V?$allocator@PAVioBaseChar@@@std@@@std@@IAEXXZ
_TEXT	SEGMENT
?_Tidy@?$vector@PAVioBaseChar@@V?$allocator@PAVioBaseChar@@@std@@@std@@IAEXXZ PROC ; std::vector<ioBaseChar *,std::allocator<ioBaseChar *> >::_Tidy, COMDAT
; _this$ = ecx

; 1301 : 		{	// free all storage

  00000	56		 push	 esi
  00001	8b f1		 mov	 esi, ecx

; 1302 : 		if (this->_Myfirst != 0)

  00003	83 3e 00	 cmp	 DWORD PTR [esi], 0
  00006	74 0e		 je	 SHORT $LN12@Tidy

; 1303 : 			{	// something to free, destroy and deallocate it
; 1304 : 			this->_Orphan_all();

  00008	ff 15 00 00 00
	00		 call	 DWORD PTR __imp_?_Orphan_all@_Container_base0@std@@QAEXXZ

; 1305 : 			_Destroy(this->_Myfirst, this->_Mylast);
; 1306 : 			this->_Alval.deallocate(this->_Myfirst,
; 1307 : 				this->_Myend - this->_Myfirst);

  0000e	ff 36		 push	 DWORD PTR [esi]
  00010	e8 00 00 00 00	 call	 ??3@YAXPAX@Z		; operator delete
  00015	59		 pop	 ecx
$LN12@Tidy:

; 1308 : 			}
; 1309 : 		this->_Myfirst = 0;

  00016	83 26 00	 and	 DWORD PTR [esi], 0

; 1310 : 		this->_Mylast = 0;

  00019	83 66 04 00	 and	 DWORD PTR [esi+4], 0

; 1311 : 		this->_Myend = 0;

  0001d	83 66 08 00	 and	 DWORD PTR [esi+8], 0
  00021	5e		 pop	 esi

; 1312 : 		}

  00022	c3		 ret	 0
?_Tidy@?$vector@PAVioBaseChar@@V?$allocator@PAVioBaseChar@@@std@@@std@@IAEXXZ ENDP ; std::vector<ioBaseChar *,std::allocator<ioBaseChar *> >::_Tidy
_TEXT	ENDS
PUBLIC	?reserve@?$vector@PAVioBaseChar@@V?$allocator@PAVioBaseChar@@@std@@@std@@QAEXI@Z ; std::vector<ioBaseChar *,std::allocator<ioBaseChar *> >::reserve
; Function compile flags: /Ogsp
;	COMDAT ?reserve@?$vector@PAVioBaseChar@@V?$allocator@PAVioBaseChar@@@std@@@std@@QAEXI@Z
_TEXT	SEGMENT
__Count$ = 8						; size = 4
?reserve@?$vector@PAVioBaseChar@@V?$allocator@PAVioBaseChar@@@std@@@std@@QAEXI@Z PROC ; std::vector<ioBaseChar *,std::allocator<ioBaseChar *> >::reserve, COMDAT
; _this$ = ecx

; 746  : 		{	// determine new minimum length of allocated storage

  00000	55		 push	 ebp
  00001	8b ec		 mov	 ebp, esp

; 747  : 		if (max_size() < _Count)

  00003	81 7d 08 ff ff
	ff 3f		 cmp	 DWORD PTR __Count$[ebp], 1073741823 ; 3fffffffH
  0000a	56		 push	 esi
  0000b	8b f1		 mov	 esi, ecx
  0000d	76 0b		 jbe	 SHORT $LN5@reserve

; 748  : 			_Xlen();	// result too long

  0000f	68 00 00 00 00	 push	 OFFSET ??_C@_0BD@OLBABOEK@vector?$DMT?$DO?5too?5long?$AA@
  00014	ff 15 00 00 00
	00		 call	 DWORD PTR __imp_?_Xlength_error@std@@YAXPBD@Z
$LN43@reserve:
$LN5@reserve:

; 749  : 		else if (capacity() < _Count)

  0001a	8b 46 08	 mov	 eax, DWORD PTR [esi+8]
  0001d	2b 06		 sub	 eax, DWORD PTR [esi]
  0001f	c1 f8 02	 sar	 eax, 2
  00022	3b 45 08	 cmp	 eax, DWORD PTR __Count$[ebp]
  00025	73 52		 jae	 SHORT $LN3@reserve

; 750  : 			{	// not enough room, reallocate
; 751  : 			pointer _Ptr = this->_Alval.allocate(_Count);

  00027	53		 push	 ebx
  00028	57		 push	 edi
  00029	6a 00		 push	 0
  0002b	ff 75 08	 push	 DWORD PTR __Count$[ebp]
  0002e	e8 00 00 00 00	 call	 ??$_Allocate@PAVioBaseChar@@@std@@YAPAPAVioBaseChar@@IPAPAV1@@Z ; std::_Allocate<ioBaseChar *>

; 752  : 
; 753  : 			_TRY_BEGIN
; 754  : 			_Umove(this->_Myfirst, this->_Mylast, _Ptr);

  00033	8b 0e		 mov	 ecx, DWORD PTR [esi]
  00035	8d 56 0c	 lea	 edx, DWORD PTR [esi+12]
  00038	52		 push	 edx
  00039	8b d8		 mov	 ebx, eax
  0003b	8b 46 04	 mov	 eax, DWORD PTR [esi+4]
  0003e	53		 push	 ebx
  0003f	50		 push	 eax
  00040	51		 push	 ecx
  00041	e8 00 00 00 00	 call	 ??$_Uninitialized_move@PAPAVioBaseChar@@PAPAV1@V?$allocator@PAVioBaseChar@@@std@@@std@@YAPAPAVioBaseChar@@PAPAV1@00AAV?$allocator@PAVioBaseChar@@@0@@Z ; std::_Uninitialized_move<ioBaseChar * *,ioBaseChar * *,std::allocator<ioBaseChar *> >

; 755  : 			_CATCH_ALL
; 756  : 			this->_Alval.deallocate(_Ptr, _Count);
; 757  : 			_RERAISE;
; 758  : 			_CATCH_END
; 759  : 
; 760  : 			size_type _Size = size();

  00046	8b 06		 mov	 eax, DWORD PTR [esi]
  00048	8b 7e 04	 mov	 edi, DWORD PTR [esi+4]
  0004b	2b f8		 sub	 edi, eax
  0004d	83 c4 18	 add	 esp, 24			; 00000018H
  00050	c1 ff 02	 sar	 edi, 2

; 761  : 			if (this->_Myfirst != 0)

  00053	85 c0		 test	 eax, eax
  00055	74 07		 je	 SHORT $LN39@reserve

; 762  : 				{	// destroy and deallocate old array
; 763  : 				_Destroy(this->_Myfirst, this->_Mylast);
; 764  : 				this->_Alval.deallocate(this->_Myfirst,
; 765  : 					this->_Myend - this->_Myfirst);

  00057	50		 push	 eax
  00058	e8 00 00 00 00	 call	 ??3@YAXPAX@Z		; operator delete
  0005d	59		 pop	 ecx
$LN39@reserve:

; 766  : 				}
; 767  : 
; 768  : 			this->_Orphan_all();

  0005e	8b ce		 mov	 ecx, esi
  00060	ff 15 00 00 00
	00		 call	 DWORD PTR __imp_?_Orphan_all@_Container_base0@std@@QAEXXZ

; 769  : 			this->_Myend = _Ptr + _Count;

  00066	8b 45 08	 mov	 eax, DWORD PTR __Count$[ebp]
  00069	8d 04 83	 lea	 eax, DWORD PTR [ebx+eax*4]
  0006c	89 46 08	 mov	 DWORD PTR [esi+8], eax

; 770  : 			this->_Mylast = _Ptr + _Size;

  0006f	8d 04 bb	 lea	 eax, DWORD PTR [ebx+edi*4]
  00072	5f		 pop	 edi

; 771  : 			this->_Myfirst = _Ptr;

  00073	89 1e		 mov	 DWORD PTR [esi], ebx
  00075	89 46 04	 mov	 DWORD PTR [esi+4], eax
  00078	5b		 pop	 ebx
$LN3@reserve:
  00079	5e		 pop	 esi

; 772  : 			}
; 773  : 		}

  0007a	5d		 pop	 ebp
  0007b	c2 04 00	 ret	 4
$LN42@reserve:
?reserve@?$vector@PAVioBaseChar@@V?$allocator@PAVioBaseChar@@@std@@@std@@QAEXI@Z ENDP ; std::vector<ioBaseChar *,std::allocator<ioBaseChar *> >::reserve
_TEXT	ENDS
PUBLIC	??$_Insertion_sort@PAUCallBuff@@VCallBuffSort@@@std@@YAXPAUCallBuff@@0VCallBuffSort@@@Z ; std::_Insertion_sort<CallBuff *,CallBuffSort>
; Function compile flags: /Ogsp
; File c:\program files (x86)\microsoft visual studio 10.0\vc\include\algorithm
;	COMDAT ??$_Insertion_sort@PAUCallBuff@@VCallBuffSort@@@std@@YAXPAUCallBuff@@0VCallBuffSort@@@Z
_TEXT	SEGMENT
__First$ = 8						; size = 4
__Last$ = 12						; size = 4
__Pred$ = 16						; size = 1
??$_Insertion_sort@PAUCallBuff@@VCallBuffSort@@@std@@YAXPAUCallBuff@@0VCallBuffSort@@@Z PROC ; std::_Insertion_sort<CallBuff *,CallBuffSort>, COMDAT

; 3676 : 	{	// insertion sort [_First, _Last), using _Pred

  00000	55		 push	 ebp
  00001	8b ec		 mov	 ebp, esp

; 3677 : 	_Insertion_sort1(_First, _Last, _Pred, _Val_type(_First));

  00003	6a 00		 push	 0
  00005	ff 75 10	 push	 DWORD PTR __Pred$[ebp]
  00008	ff 75 0c	 push	 DWORD PTR __Last$[ebp]
  0000b	ff 75 08	 push	 DWORD PTR __First$[ebp]
  0000e	e8 00 00 00 00	 call	 ??$_Insertion_sort1@PAUCallBuff@@VCallBuffSort@@U1@@std@@YAXPAUCallBuff@@0VCallBuffSort@@0@Z ; std::_Insertion_sort1<CallBuff *,CallBuffSort,CallBuff>
  00013	83 c4 10	 add	 esp, 16			; 00000010H

; 3678 : 	}

  00016	5d		 pop	 ebp
  00017	c3		 ret	 0
??$_Insertion_sort@PAUCallBuff@@VCallBuffSort@@@std@@YAXPAUCallBuff@@0VCallBuffSort@@@Z ENDP ; std::_Insertion_sort<CallBuff *,CallBuffSort>
_TEXT	ENDS
PUBLIC	??$_Dest_val@V?$allocator@UCallBuff@@@std@@UCallBuff@@@std@@YAXAAV?$allocator@UCallBuff@@@0@PAUCallBuff@@@Z ; std::_Dest_val<std::allocator<CallBuff>,CallBuff>
; Function compile flags: /Ogsp
; File c:\program files (x86)\microsoft visual studio 10.0\vc\include\xmemory
;	COMDAT ??$_Dest_val@V?$allocator@UCallBuff@@@std@@UCallBuff@@@std@@YAXAAV?$allocator@UCallBuff@@@0@PAUCallBuff@@@Z
_TEXT	SEGMENT
__Alval$ = 8						; size = 4
__Pdest$ = 12						; size = 4
??$_Dest_val@V?$allocator@UCallBuff@@@std@@UCallBuff@@@std@@YAXAAV?$allocator@UCallBuff@@@0@PAUCallBuff@@@Z PROC ; std::_Dest_val<std::allocator<CallBuff>,CallBuff>, COMDAT

; 286  : 	{	// destroy using allocator

  00000	55		 push	 ebp
  00001	8b ec		 mov	 ebp, esp

; 287  : 	_Alval.destroy(_Pdest);

  00003	8b 4d 0c	 mov	 ecx, DWORD PTR __Pdest$[ebp]

; 288  : 	}

  00006	5d		 pop	 ebp

; 287  : 	_Alval.destroy(_Pdest);

  00007	ff 25 00 00 00
	00		 jmp	 DWORD PTR __imp_??1ioHashString@@QAE@XZ
??$_Dest_val@V?$allocator@UCallBuff@@@std@@UCallBuff@@@std@@YAXAAV?$allocator@UCallBuff@@@0@PAUCallBuff@@@Z ENDP ; std::_Dest_val<std::allocator<CallBuff>,CallBuff>
_TEXT	ENDS
PUBLIC	??$_Median@PAUCallBuff@@VCallBuffSort@@@std@@YAXPAUCallBuff@@00VCallBuffSort@@@Z ; std::_Median<CallBuff *,CallBuffSort>
; Function compile flags: /Ogsp
; File c:\program files (x86)\microsoft visual studio 10.0\vc\include\algorithm
;	COMDAT ??$_Median@PAUCallBuff@@VCallBuffSort@@@std@@YAXPAUCallBuff@@00VCallBuffSort@@@Z
_TEXT	SEGMENT
tv200 = 8						; size = 4
__First$ = 8						; size = 4
__Mid$ = 12						; size = 4
tv203 = 16						; size = 4
__Last$ = 16						; size = 4
__Pred$ = 20						; size = 1
??$_Median@PAUCallBuff@@VCallBuffSort@@@std@@YAXPAUCallBuff@@00VCallBuffSort@@@Z PROC ; std::_Median<CallBuff *,CallBuffSort>, COMDAT

; 3695 : 	{	// sort median element to middle

  00000	55		 push	 ebp
  00001	8b ec		 mov	 ebp, esp

; 3696 : 	if (40 < _Last - _First)

  00003	8b 4d 08	 mov	 ecx, DWORD PTR __First$[ebp]
  00006	53		 push	 ebx
  00007	8b 5d 10	 mov	 ebx, DWORD PTR __Last$[ebp]
  0000a	56		 push	 esi
  0000b	8b c3		 mov	 eax, ebx
  0000d	2b c1		 sub	 eax, ecx
  0000f	6a 14		 push	 20			; 00000014H
  00011	99		 cdq
  00012	5e		 pop	 esi
  00013	f7 fe		 idiv	 esi
  00015	83 f8 28	 cmp	 eax, 40			; 00000028H
  00018	7e 68		 jle	 SHORT $LN2@Median

; 3697 : 		{	// median of nine
; 3698 : 		size_t _Step = (_Last - _First + 1) / 8;

  0001a	40		 inc	 eax
  0001b	99		 cdq
  0001c	83 e2 07	 and	 edx, 7
  0001f	03 c2		 add	 eax, edx
  00021	57		 push	 edi

; 3699 : 		_Med3(_First, _First + _Step, _First + 2 * _Step, _Pred);

  00022	ff 75 14	 push	 DWORD PTR __Pred$[ebp]
  00025	c1 f8 03	 sar	 eax, 3
  00028	8b f8		 mov	 edi, eax
  0002a	8b f0		 mov	 esi, eax
  0002c	6b ff 28	 imul	 edi, 40			; 00000028H
  0002f	6b f6 14	 imul	 esi, 20			; 00000014H
  00032	8d 14 0f	 lea	 edx, DWORD PTR [edi+ecx]
  00035	8d 04 0e	 lea	 eax, DWORD PTR [esi+ecx]
  00038	52		 push	 edx
  00039	50		 push	 eax
  0003a	51		 push	 ecx
  0003b	89 45 08	 mov	 DWORD PTR tv200[ebp], eax
  0003e	e8 00 00 00 00	 call	 ??$_Med3@PAUCallBuff@@VCallBuffSort@@@std@@YAXPAUCallBuff@@00VCallBuffSort@@@Z ; std::_Med3<CallBuff *,CallBuffSort>

; 3700 : 		_Med3(_Mid - _Step, _Mid, _Mid + _Step, _Pred);

  00043	ff 75 14	 push	 DWORD PTR __Pred$[ebp]
  00046	8b 45 0c	 mov	 eax, DWORD PTR __Mid$[ebp]
  00049	8d 0c 06	 lea	 ecx, DWORD PTR [esi+eax]
  0004c	51		 push	 ecx
  0004d	50		 push	 eax
  0004e	2b c6		 sub	 eax, esi
  00050	50		 push	 eax
  00051	e8 00 00 00 00	 call	 ??$_Med3@PAUCallBuff@@VCallBuffSort@@@std@@YAXPAUCallBuff@@00VCallBuffSort@@@Z ; std::_Med3<CallBuff *,CallBuffSort>

; 3701 : 		_Med3(_Last - 2 * _Step, _Last - _Step, _Last, _Pred);

  00056	ff 75 14	 push	 DWORD PTR __Pred$[ebp]
  00059	89 5d 10	 mov	 DWORD PTR tv203[ebp], ebx
  0005c	29 75 10	 sub	 DWORD PTR tv203[ebp], esi
  0005f	53		 push	 ebx
  00060	ff 75 10	 push	 DWORD PTR tv203[ebp]
  00063	2b df		 sub	 ebx, edi
  00065	53		 push	 ebx
  00066	e8 00 00 00 00	 call	 ??$_Med3@PAUCallBuff@@VCallBuffSort@@@std@@YAXPAUCallBuff@@00VCallBuffSort@@@Z ; std::_Med3<CallBuff *,CallBuffSort>

; 3702 : 		_Med3(_First + _Step, _Mid, _Last - _Step, _Pred);

  0006b	ff 75 14	 push	 DWORD PTR __Pred$[ebp]
  0006e	ff 75 10	 push	 DWORD PTR tv203[ebp]
  00071	ff 75 0c	 push	 DWORD PTR __Mid$[ebp]
  00074	ff 75 08	 push	 DWORD PTR tv200[ebp]
  00077	e8 00 00 00 00	 call	 ??$_Med3@PAUCallBuff@@VCallBuffSort@@@std@@YAXPAUCallBuff@@00VCallBuffSort@@@Z ; std::_Med3<CallBuff *,CallBuffSort>
  0007c	83 c4 40	 add	 esp, 64			; 00000040H
  0007f	5f		 pop	 edi

; 3703 : 		}
; 3704 : 	else

  00080	eb 10		 jmp	 SHORT $LN1@Median
$LN2@Median:

; 3705 : 		_Med3(_First, _Mid, _Last, _Pred);

  00082	ff 75 14	 push	 DWORD PTR __Pred$[ebp]
  00085	53		 push	 ebx
  00086	ff 75 0c	 push	 DWORD PTR __Mid$[ebp]
  00089	51		 push	 ecx
  0008a	e8 00 00 00 00	 call	 ??$_Med3@PAUCallBuff@@VCallBuffSort@@@std@@YAXPAUCallBuff@@00VCallBuffSort@@@Z ; std::_Med3<CallBuff *,CallBuffSort>
  0008f	83 c4 10	 add	 esp, 16			; 00000010H
$LN1@Median:
  00092	5e		 pop	 esi
  00093	5b		 pop	 ebx

; 3706 : 	}

  00094	5d		 pop	 ebp
  00095	c3		 ret	 0
??$_Median@PAUCallBuff@@VCallBuffSort@@@std@@YAXPAUCallBuff@@00VCallBuffSort@@@Z ENDP ; std::_Median<CallBuff *,CallBuffSort>
_TEXT	ENDS
PUBLIC	??$_Make_heap@PAUCallBuff@@HU1@VCallBuffSort@@@std@@YAXPAUCallBuff@@0VCallBuffSort@@PAH0@Z ; std::_Make_heap<CallBuff *,int,CallBuff,CallBuffSort>
;	COMDAT xdata$x
; File d:\lost saga for developer\youtube\tutorial\source\src\lsclient\ioinfectionbuff.cpp
xdata$x	SEGMENT
__unwindtable$??$_Make_heap@PAUCallBuff@@HU1@VCallBuffSort@@@std@@YAXPAUCallBuff@@0VCallBuffSort@@PAH0@Z DD 0ffffffffH
	DD	FLAT:__unwindfunclet$??$_Make_heap@PAUCallBuff@@HU1@VCallBuffSort@@@std@@YAXPAUCallBuff@@0VCallBuffSort@@PAH0@Z$0
__ehfuncinfo$??$_Make_heap@PAUCallBuff@@HU1@VCallBuffSort@@@std@@YAXPAUCallBuff@@0VCallBuffSort@@PAH0@Z DD 019930522H
	DD	01H
	DD	FLAT:__unwindtable$??$_Make_heap@PAUCallBuff@@HU1@VCallBuffSort@@@std@@YAXPAUCallBuff@@0VCallBuffSort@@PAH0@Z
	DD	2 DUP(00H)
	DD	2 DUP(00H)
	DD	00H
	DD	01H
; Function compile flags: /Ogsp
; File c:\program files (x86)\microsoft visual studio 10.0\vc\include\algorithm
xdata$x	ENDS
;	COMDAT ??$_Make_heap@PAUCallBuff@@HU1@VCallBuffSort@@@std@@YAXPAUCallBuff@@0VCallBuffSort@@PAH0@Z
_TEXT	SEGMENT
__Val$534086 = -32					; size = 20
__$EHRec$ = -12						; size = 12
__First$ = 8						; size = 4
__Last$ = 12						; size = 4
__Pred$ = 16						; size = 1
___formal$ = 20						; size = 4
___formal$ = 24						; size = 4
??$_Make_heap@PAUCallBuff@@HU1@VCallBuffSort@@@std@@YAXPAUCallBuff@@0VCallBuffSort@@PAH0@Z PROC ; std::_Make_heap<CallBuff *,int,CallBuff,CallBuffSort>, COMDAT

; 2658 : 	{	// make nontrivial [_First, _Last) into a heap, using _Pred

  00000	6a 14		 push	 20			; 00000014H
  00002	b8 00 00 00 00	 mov	 eax, __ehhandler$??$_Make_heap@PAUCallBuff@@HU1@VCallBuffSort@@@std@@YAXPAUCallBuff@@0VCallBuffSort@@PAH0@Z
  00007	e8 00 00 00 00	 call	 __EH_prolog3

; 2659 : 	_Diff _Bottom = _Last - _First;

  0000c	8b 45 0c	 mov	 eax, DWORD PTR __Last$[ebp]
  0000f	2b 45 08	 sub	 eax, DWORD PTR __First$[ebp]
  00012	6a 14		 push	 20			; 00000014H
  00014	99		 cdq
  00015	59		 pop	 ecx
  00016	f7 f9		 idiv	 ecx
  00018	8b d8		 mov	 ebx, eax

; 2660 : 	for (_Diff _Hole = _Bottom / 2; 0 < _Hole; )

  0001a	99		 cdq
  0001b	2b c2		 sub	 eax, edx
  0001d	8b f8		 mov	 edi, eax
  0001f	d1 ff		 sar	 edi, 1
  00021	85 ff		 test	 edi, edi
  00023	7e 45		 jle	 SHORT $LN1@Make_heap

; 2659 : 	_Diff _Bottom = _Last - _First;

  00025	8b f7		 mov	 esi, edi
  00027	6b f6 14	 imul	 esi, 20			; 00000014H
  0002a	03 75 08	 add	 esi, DWORD PTR __First$[ebp]
$LN2@Make_heap:

; 2661 : 		{	// reheap top half, bottom to top
; 2662 : 		--_Hole;

  0002d	83 ee 14	 sub	 esi, 20			; 00000014H

; 2663 : 		_Ty _Val = _Move(*(_First + _Hole));

  00030	56		 push	 esi
  00031	8d 4d e0	 lea	 ecx, DWORD PTR __Val$534086[ebp]
  00034	4f		 dec	 edi
  00035	ff 15 00 00 00
	00		 call	 DWORD PTR __imp_??0ioHashString@@QAE@ABV0@@Z
  0003b	8b 46 10	 mov	 eax, DWORD PTR [esi+16]
  0003e	89 45 f0	 mov	 DWORD PTR __Val$534086[ebp+16], eax

; 2664 : 		_Adjust_heap(_First, _Hole, _Bottom,
; 2665 : 			_Move(_Val), _Pred);

  00041	ff 75 10	 push	 DWORD PTR __Pred$[ebp]
  00044	83 65 fc 00	 and	 DWORD PTR __$EHRec$[ebp+8], 0
  00048	8d 45 e0	 lea	 eax, DWORD PTR __Val$534086[ebp]
  0004b	50		 push	 eax
  0004c	53		 push	 ebx
  0004d	57		 push	 edi
  0004e	ff 75 08	 push	 DWORD PTR __First$[ebp]
  00051	e8 00 00 00 00	 call	 ??$_Adjust_heap@PAUCallBuff@@HU1@VCallBuffSort@@@std@@YAXPAUCallBuff@@HH$$QAU1@VCallBuffSort@@@Z ; std::_Adjust_heap<CallBuff *,int,CallBuff,CallBuffSort>

; 2666 : 		}

  00056	83 4d fc ff	 or	 DWORD PTR __$EHRec$[ebp+8], -1
  0005a	83 c4 14	 add	 esp, 20			; 00000014H
  0005d	8d 4d e0	 lea	 ecx, DWORD PTR __Val$534086[ebp]
  00060	ff 15 00 00 00
	00		 call	 DWORD PTR __imp_??1ioHashString@@QAE@XZ
  00066	85 ff		 test	 edi, edi
  00068	7f c3		 jg	 SHORT $LN2@Make_heap
$LN1@Make_heap:

; 2667 : 	}

  0006a	e8 00 00 00 00	 call	 __EH_epilog3
  0006f	c3		 ret	 0
_TEXT	ENDS
;	COMDAT text$x
text$x	SEGMENT
__unwindfunclet$??$_Make_heap@PAUCallBuff@@HU1@VCallBuffSort@@@std@@YAXPAUCallBuff@@0VCallBuffSort@@PAH0@Z$0:
  00000	8d 4d e0	 lea	 ecx, DWORD PTR __Val$534086[ebp]
  00003	e9 00 00 00 00	 jmp	 ??1CallBuff@@QAE@XZ
__ehhandler$??$_Make_heap@PAUCallBuff@@HU1@VCallBuffSort@@@std@@YAXPAUCallBuff@@0VCallBuffSort@@PAH0@Z:
  00008	8b 54 24 08	 mov	 edx, DWORD PTR [esp+8]
  0000c	8d 42 0c	 lea	 eax, DWORD PTR [edx+12]
  0000f	8b 4a dc	 mov	 ecx, DWORD PTR [edx-36]
  00012	33 c8		 xor	 ecx, eax
  00014	e8 00 00 00 00	 call	 @__security_check_cookie@4
  00019	b8 00 00 00 00	 mov	 eax, OFFSET __ehfuncinfo$??$_Make_heap@PAUCallBuff@@HU1@VCallBuffSort@@@std@@YAXPAUCallBuff@@0VCallBuffSort@@PAH0@Z
  0001e	e9 00 00 00 00	 jmp	 ___CxxFrameHandler3
text$x	ENDS
??$_Make_heap@PAUCallBuff@@HU1@VCallBuffSort@@@std@@YAXPAUCallBuff@@0VCallBuffSort@@PAH0@Z ENDP ; std::_Make_heap<CallBuff *,int,CallBuff,CallBuffSort>
PUBLIC	??$_Pop_heap_0@PAUCallBuff@@U1@VCallBuffSort@@@std@@YAXPAUCallBuff@@0VCallBuffSort@@0@Z ; std::_Pop_heap_0<CallBuff *,CallBuff,CallBuffSort>
;	COMDAT xdata$x
; File d:\lost saga for developer\youtube\tutorial\source\src\lsclient\ioinfectionbuff.cpp
xdata$x	SEGMENT
__unwindtable$??$_Pop_heap_0@PAUCallBuff@@U1@VCallBuffSort@@@std@@YAXPAUCallBuff@@0VCallBuffSort@@0@Z DD 0ffffffffH
	DD	FLAT:__unwindfunclet$??$_Pop_heap_0@PAUCallBuff@@U1@VCallBuffSort@@@std@@YAXPAUCallBuff@@0VCallBuffSort@@0@Z$0
__ehfuncinfo$??$_Pop_heap_0@PAUCallBuff@@U1@VCallBuffSort@@@std@@YAXPAUCallBuff@@0VCallBuffSort@@0@Z DD 019930522H
	DD	01H
	DD	FLAT:__unwindtable$??$_Pop_heap_0@PAUCallBuff@@U1@VCallBuffSort@@@std@@YAXPAUCallBuff@@0VCallBuffSort@@0@Z
	DD	2 DUP(00H)
	DD	2 DUP(00H)
	DD	00H
	DD	01H
; Function compile flags: /Ogsp
; File c:\program files (x86)\microsoft visual studio 10.0\vc\include\algorithm
xdata$x	ENDS
;	COMDAT ??$_Pop_heap_0@PAUCallBuff@@U1@VCallBuffSort@@@std@@YAXPAUCallBuff@@0VCallBuffSort@@0@Z
_TEXT	SEGMENT
__Val$ = -32						; size = 20
__$EHRec$ = -12						; size = 12
__First$ = 8						; size = 4
__Last$ = 12						; size = 4
__Pred$ = 16						; size = 1
___formal$ = 20						; size = 4
??$_Pop_heap_0@PAUCallBuff@@U1@VCallBuffSort@@@std@@YAXPAUCallBuff@@0VCallBuffSort@@0@Z PROC ; std::_Pop_heap_0<CallBuff *,CallBuff,CallBuffSort>, COMDAT

; 2601 : 	{	// pop *_First to *(_Last - 1) and reheap, using _Pred

  00000	6a 14		 push	 20			; 00000014H
  00002	b8 00 00 00 00	 mov	 eax, __ehhandler$??$_Pop_heap_0@PAUCallBuff@@U1@VCallBuffSort@@@std@@YAXPAUCallBuff@@0VCallBuffSort@@0@Z
  00007	e8 00 00 00 00	 call	 __EH_prolog3

; 2602 : 	_Ty _Val = _Move(*(_Last - 1));

  0000c	8b 75 0c	 mov	 esi, DWORD PTR __Last$[ebp]
  0000f	83 c6 ec	 add	 esi, -20		; ffffffecH
  00012	56		 push	 esi
  00013	8d 4d e0	 lea	 ecx, DWORD PTR __Val$[ebp]
  00016	ff 15 00 00 00
	00		 call	 DWORD PTR __imp_??0ioHashString@@QAE@ABV0@@Z
  0001c	8b 46 10	 mov	 eax, DWORD PTR [esi+16]
  0001f	89 45 f0	 mov	 DWORD PTR __Val$[ebp+16], eax
  00022	83 65 fc 00	 and	 DWORD PTR __$EHRec$[ebp+8], 0

; 2603 : 	_Pop_heap(_First, _Last - 1, _Last - 1,
; 2604 : 		_Move(_Val), _Pred, _Dist_type(_First));

  00026	6a 00		 push	 0
  00028	ff 75 10	 push	 DWORD PTR __Pred$[ebp]
  0002b	8d 45 e0	 lea	 eax, DWORD PTR __Val$[ebp]
  0002e	50		 push	 eax
  0002f	56		 push	 esi
  00030	56		 push	 esi
  00031	ff 75 08	 push	 DWORD PTR __First$[ebp]
  00034	e8 00 00 00 00	 call	 ??$_Pop_heap@PAUCallBuff@@HU1@VCallBuffSort@@@std@@YAXPAUCallBuff@@00$$QAU1@VCallBuffSort@@PAH@Z ; std::_Pop_heap<CallBuff *,int,CallBuff,CallBuffSort>

; 2605 : 	}

  00039	83 4d fc ff	 or	 DWORD PTR __$EHRec$[ebp+8], -1
  0003d	83 c4 18	 add	 esp, 24			; 00000018H
  00040	8d 4d e0	 lea	 ecx, DWORD PTR __Val$[ebp]
  00043	ff 15 00 00 00
	00		 call	 DWORD PTR __imp_??1ioHashString@@QAE@XZ
  00049	e8 00 00 00 00	 call	 __EH_epilog3
  0004e	c3		 ret	 0
_TEXT	ENDS
;	COMDAT text$x
text$x	SEGMENT
__unwindfunclet$??$_Pop_heap_0@PAUCallBuff@@U1@VCallBuffSort@@@std@@YAXPAUCallBuff@@0VCallBuffSort@@0@Z$0:
  00000	8d 4d e0	 lea	 ecx, DWORD PTR __Val$[ebp]
  00003	e9 00 00 00 00	 jmp	 ??1CallBuff@@QAE@XZ
__ehhandler$??$_Pop_heap_0@PAUCallBuff@@U1@VCallBuffSort@@@std@@YAXPAUCallBuff@@0VCallBuffSort@@0@Z:
  00008	8b 54 24 08	 mov	 edx, DWORD PTR [esp+8]
  0000c	8d 42 0c	 lea	 eax, DWORD PTR [edx+12]
  0000f	8b 4a dc	 mov	 ecx, DWORD PTR [edx-36]
  00012	33 c8		 xor	 ecx, eax
  00014	e8 00 00 00 00	 call	 @__security_check_cookie@4
  00019	b8 00 00 00 00	 mov	 eax, OFFSET __ehfuncinfo$??$_Pop_heap_0@PAUCallBuff@@U1@VCallBuffSort@@@std@@YAXPAUCallBuff@@0VCallBuffSort@@0@Z
  0001e	e9 00 00 00 00	 jmp	 ___CxxFrameHandler3
text$x	ENDS
??$_Pop_heap_0@PAUCallBuff@@U1@VCallBuffSort@@@std@@YAXPAUCallBuff@@0VCallBuffSort@@0@Z ENDP ; std::_Pop_heap_0<CallBuff *,CallBuff,CallBuffSort>
PUBLIC	??$_Dest_val@V?$allocator@VioHashString@@@std@@VioHashString@@@std@@YAXAAV?$allocator@VioHashString@@@0@PAVioHashString@@@Z ; std::_Dest_val<std::allocator<ioHashString>,ioHashString>
; Function compile flags: /Ogsp
; File c:\program files (x86)\microsoft visual studio 10.0\vc\include\xmemory
;	COMDAT ??$_Dest_val@V?$allocator@VioHashString@@@std@@VioHashString@@@std@@YAXAAV?$allocator@VioHashString@@@0@PAVioHashString@@@Z
_TEXT	SEGMENT
__Alval$ = 8						; size = 4
__Pdest$ = 12						; size = 4
??$_Dest_val@V?$allocator@VioHashString@@@std@@VioHashString@@@std@@YAXAAV?$allocator@VioHashString@@@0@PAVioHashString@@@Z PROC ; std::_Dest_val<std::allocator<ioHashString>,ioHashString>, COMDAT

; 286  : 	{	// destroy using allocator

  00000	55		 push	 ebp
  00001	8b ec		 mov	 ebp, esp

; 287  : 	_Alval.destroy(_Pdest);

  00003	8b 4d 0c	 mov	 ecx, DWORD PTR __Pdest$[ebp]

; 288  : 	}

  00006	5d		 pop	 ebp

; 287  : 	_Alval.destroy(_Pdest);

  00007	ff 25 00 00 00
	00		 jmp	 DWORD PTR __imp_??1ioHashString@@QAE@XZ
??$_Dest_val@V?$allocator@VioHashString@@@std@@VioHashString@@@std@@YAXAAV?$allocator@VioHashString@@@0@PAVioHashString@@@Z ENDP ; std::_Dest_val<std::allocator<ioHashString>,ioHashString>
_TEXT	ENDS
PUBLIC	??1?$vector@PAVioBaseChar@@V?$allocator@PAVioBaseChar@@@std@@@std@@QAE@XZ ; std::vector<ioBaseChar *,std::allocator<ioBaseChar *> >::~vector<ioBaseChar *,std::allocator<ioBaseChar *> >
; Function compile flags: /Ogsp
; File c:\program files (x86)\microsoft visual studio 10.0\vc\include\vector
;	COMDAT ??1?$vector@PAVioBaseChar@@V?$allocator@PAVioBaseChar@@@std@@@std@@QAE@XZ
_TEXT	SEGMENT
??1?$vector@PAVioBaseChar@@V?$allocator@PAVioBaseChar@@@std@@@std@@QAE@XZ PROC ; std::vector<ioBaseChar *,std::allocator<ioBaseChar *> >::~vector<ioBaseChar *,std::allocator<ioBaseChar *> >, COMDAT
; _this$ = ecx

; 705  : 		_Tidy();

  00000	e9 00 00 00 00	 jmp	 ?_Tidy@?$vector@PAVioBaseChar@@V?$allocator@PAVioBaseChar@@@std@@@std@@IAEXXZ ; std::vector<ioBaseChar *,std::allocator<ioBaseChar *> >::_Tidy
??1?$vector@PAVioBaseChar@@V?$allocator@PAVioBaseChar@@@std@@@std@@QAE@XZ ENDP ; std::vector<ioBaseChar *,std::allocator<ioBaseChar *> >::~vector<ioBaseChar *,std::allocator<ioBaseChar *> >
_TEXT	ENDS
PUBLIC	?clear@?$vector@PAVioBaseChar@@V?$allocator@PAVioBaseChar@@@std@@@std@@QAEXXZ ; std::vector<ioBaseChar *,std::allocator<ioBaseChar *> >::clear
; Function compile flags: /Ogsp
;	COMDAT ?clear@?$vector@PAVioBaseChar@@V?$allocator@PAVioBaseChar@@@std@@@std@@QAEXXZ
_TEXT	SEGMENT
$T537099 = -4						; size = 4
?clear@?$vector@PAVioBaseChar@@V?$allocator@PAVioBaseChar@@@std@@@std@@QAEXXZ PROC ; std::vector<ioBaseChar *,std::allocator<ioBaseChar *> >::clear, COMDAT
; _this$ = ecx

; 1217 : 		{	// erase all

  00000	55		 push	 ebp
  00001	8b ec		 mov	 ebp, esp
  00003	51		 push	 ecx

; 1218 : 		erase(begin(), end());

  00004	8b 41 04	 mov	 eax, DWORD PTR [ecx+4]
  00007	8b 11		 mov	 edx, DWORD PTR [ecx]
  00009	50		 push	 eax
  0000a	52		 push	 edx
  0000b	8d 45 fc	 lea	 eax, DWORD PTR $T537099[ebp]
  0000e	50		 push	 eax
  0000f	e8 00 00 00 00	 call	 ?erase@?$vector@PAVioBaseChar@@V?$allocator@PAVioBaseChar@@@std@@@std@@QAE?AV?$_Vector_iterator@V?$_Vector_val@PAVioBaseChar@@V?$allocator@PAVioBaseChar@@@std@@@std@@@2@V?$_Vector_const_iterator@V?$_Vector_val@PAVioBaseChar@@V?$allocator@PAVioBaseChar@@@std@@@std@@@2@0@Z ; std::vector<ioBaseChar *,std::allocator<ioBaseChar *> >::erase

; 1219 : 		}

  00014	c9		 leave
  00015	c3		 ret	 0
?clear@?$vector@PAVioBaseChar@@V?$allocator@PAVioBaseChar@@@std@@@std@@QAEXXZ ENDP ; std::vector<ioBaseChar *,std::allocator<ioBaseChar *> >::clear
_TEXT	ENDS
PUBLIC	?_Reserve@?$vector@PAVioBaseChar@@V?$allocator@PAVioBaseChar@@@std@@@std@@IAEXI@Z ; std::vector<ioBaseChar *,std::allocator<ioBaseChar *> >::_Reserve
; Function compile flags: /Ogsp
;	COMDAT ?_Reserve@?$vector@PAVioBaseChar@@V?$allocator@PAVioBaseChar@@@std@@@std@@IAEXI@Z
_TEXT	SEGMENT
__Count$ = 8						; size = 4
?_Reserve@?$vector@PAVioBaseChar@@V?$allocator@PAVioBaseChar@@@std@@@std@@IAEXI@Z PROC ; std::vector<ioBaseChar *,std::allocator<ioBaseChar *> >::_Reserve, COMDAT
; _this$ = ecx

; 1290 : 		{	// ensure room for _Count new elements, grow exponentially

  00000	55		 push	 ebp
  00001	8b ec		 mov	 ebp, esp
  00003	56		 push	 esi
  00004	8b f1		 mov	 esi, ecx

; 1291 : 		size_type _Size = size();

  00006	8b 0e		 mov	 ecx, DWORD PTR [esi]
  00008	8b 46 04	 mov	 eax, DWORD PTR [esi+4]
  0000b	2b c1		 sub	 eax, ecx

; 1292 : 		if (max_size() - _Count < _Size)

  0000d	ba ff ff ff 3f	 mov	 edx, 1073741823		; 3fffffffH
  00012	2b 55 08	 sub	 edx, DWORD PTR __Count$[ebp]
  00015	c1 f8 02	 sar	 eax, 2
  00018	3b d0		 cmp	 edx, eax
  0001a	73 0b		 jae	 SHORT $LN4@Reserve

; 1293 : 			_Xlen();

  0001c	68 00 00 00 00	 push	 OFFSET ??_C@_0BD@OLBABOEK@vector?$DMT?$DO?5too?5long?$AA@
  00021	ff 15 00 00 00
	00		 call	 DWORD PTR __imp_?_Xlength_error@std@@YAXPBD@Z
$LN21@Reserve:
$LN4@Reserve:

; 1294 : 		else if ((_Size += _Count) <= capacity())

  00027	8b 56 08	 mov	 edx, DWORD PTR [esi+8]
  0002a	03 45 08	 add	 eax, DWORD PTR __Count$[ebp]
  0002d	2b d1		 sub	 edx, ecx
  0002f	c1 fa 02	 sar	 edx, 2
  00032	3b c2		 cmp	 eax, edx
  00034	76 10		 jbe	 SHORT $LN1@Reserve

; 1295 : 			;
; 1296 : 		else
; 1297 : 			reserve(_Grow_to(_Size));

  00036	50		 push	 eax
  00037	8b ce		 mov	 ecx, esi
  00039	e8 00 00 00 00	 call	 ?_Grow_to@?$vector@PAVioBaseChar@@V?$allocator@PAVioBaseChar@@@std@@@std@@IBEII@Z ; std::vector<ioBaseChar *,std::allocator<ioBaseChar *> >::_Grow_to
  0003e	50		 push	 eax
  0003f	8b ce		 mov	 ecx, esi
  00041	e8 00 00 00 00	 call	 ?reserve@?$vector@PAVioBaseChar@@V?$allocator@PAVioBaseChar@@@std@@@std@@QAEXI@Z ; std::vector<ioBaseChar *,std::allocator<ioBaseChar *> >::reserve
$LN1@Reserve:
  00046	5e		 pop	 esi

; 1298 : 		}

  00047	5d		 pop	 ebp
  00048	c2 04 00	 ret	 4
$LN20@Reserve:
?_Reserve@?$vector@PAVioBaseChar@@V?$allocator@PAVioBaseChar@@@std@@@std@@IAEXI@Z ENDP ; std::vector<ioBaseChar *,std::allocator<ioBaseChar *> >::_Reserve
_TEXT	ENDS
PUBLIC	??$_Destroy_range@V?$allocator@UCallBuff@@@std@@@std@@YAXPAUCallBuff@@0AAV?$allocator@UCallBuff@@@0@U_Nonscalar_ptr_iterator_tag@0@@Z ; std::_Destroy_range<std::allocator<CallBuff> >
; Function compile flags: /Ogsp
; File c:\program files (x86)\microsoft visual studio 10.0\vc\include\xmemory
;	COMDAT ??$_Destroy_range@V?$allocator@UCallBuff@@@std@@@std@@YAXPAUCallBuff@@0AAV?$allocator@UCallBuff@@@0@U_Nonscalar_ptr_iterator_tag@0@@Z
_TEXT	SEGMENT
__First$ = 8						; size = 4
__Last$ = 12						; size = 4
__Al$ = 16						; size = 4
___formal$ = 20						; size = 1
??$_Destroy_range@V?$allocator@UCallBuff@@@std@@@std@@YAXPAUCallBuff@@0AAV?$allocator@UCallBuff@@@0@U_Nonscalar_ptr_iterator_tag@0@@Z PROC ; std::_Destroy_range<std::allocator<CallBuff> >, COMDAT

; 95   : 	{	// destroy [_First, _Last), arbitrary type

  00000	55		 push	 ebp
  00001	8b ec		 mov	 ebp, esp
  00003	56		 push	 esi

; 96   : 	for (; _First != _Last; ++_First)

  00004	8b 75 08	 mov	 esi, DWORD PTR __First$[ebp]
  00007	eb 0b		 jmp	 SHORT $LN20@Destroy_ra
$LL3@Destroy_ra:

; 97   : 		_Dest_val(_Al, _First);

  00009	8b ce		 mov	 ecx, esi
  0000b	ff 15 00 00 00
	00		 call	 DWORD PTR __imp_??1ioHashString@@QAE@XZ
  00011	83 c6 14	 add	 esi, 20			; 00000014H
$LN20@Destroy_ra:

; 96   : 	for (; _First != _Last; ++_First)

  00014	3b 75 0c	 cmp	 esi, DWORD PTR __Last$[ebp]
  00017	75 f0		 jne	 SHORT $LL3@Destroy_ra
  00019	5e		 pop	 esi

; 98   : 	}

  0001a	5d		 pop	 ebp
  0001b	c3		 ret	 0
??$_Destroy_range@V?$allocator@UCallBuff@@@std@@@std@@YAXPAUCallBuff@@0AAV?$allocator@UCallBuff@@@0@U_Nonscalar_ptr_iterator_tag@0@@Z ENDP ; std::_Destroy_range<std::allocator<CallBuff> >
_TEXT	ENDS
PUBLIC	??$_Unguarded_partition@PAUCallBuff@@VCallBuffSort@@@std@@YA?AU?$pair@PAUCallBuff@@PAU1@@0@PAUCallBuff@@0VCallBuffSort@@@Z ; std::_Unguarded_partition<CallBuff *,CallBuffSort>
; Function compile flags: /Ogsp
; File c:\program files (x86)\microsoft visual studio 10.0\vc\include\algorithm
;	COMDAT ??$_Unguarded_partition@PAUCallBuff@@VCallBuffSort@@@std@@YA?AU?$pair@PAUCallBuff@@PAU1@@0@PAUCallBuff@@0VCallBuffSort@@@Z
_TEXT	SEGMENT
tv320 = -8						; size = 4
tv264 = -8						; size = 4
__Glast$ = -4						; size = 4
___$ReturnUdt$ = 8					; size = 4
__First$ = 12						; size = 4
__Last$ = 16						; size = 4
__Pred$ = 20						; size = 1
??$_Unguarded_partition@PAUCallBuff@@VCallBuffSort@@@std@@YA?AU?$pair@PAUCallBuff@@PAU1@@0@PAUCallBuff@@0VCallBuffSort@@@Z PROC ; std::_Unguarded_partition<CallBuff *,CallBuffSort>, COMDAT

; 3712 : 	{	// partition [_First, _Last), using _Pred

  00000	55		 push	 ebp
  00001	8b ec		 mov	 ebp, esp
  00003	51		 push	 ecx
  00004	51		 push	 ecx

; 3713 : 	_RanIt _Mid = _First + (_Last - _First) / 2;

  00005	8b 4d 10	 mov	 ecx, DWORD PTR __Last$[ebp]
  00008	53		 push	 ebx
  00009	8b 5d 0c	 mov	 ebx, DWORD PTR __First$[ebp]
  0000c	56		 push	 esi
  0000d	57		 push	 edi
  0000e	8b c1		 mov	 eax, ecx
  00010	2b c3		 sub	 eax, ebx
  00012	6a 14		 push	 20			; 00000014H
  00014	5e		 pop	 esi
  00015	99		 cdq
  00016	f7 fe		 idiv	 esi

; 3714 : 	_Median(_First, _Mid, _Last - 1, _Pred);

  00018	ff 75 14	 push	 DWORD PTR __Pred$[ebp]
  0001b	83 c1 ec	 add	 ecx, -20		; ffffffecH
  0001e	51		 push	 ecx
  0001f	99		 cdq
  00020	2b c2		 sub	 eax, edx
  00022	8b f0		 mov	 esi, eax
  00024	d1 fe		 sar	 esi, 1
  00026	6b f6 14	 imul	 esi, 20			; 00000014H
  00029	03 f3		 add	 esi, ebx
  0002b	56		 push	 esi
  0002c	53		 push	 ebx
  0002d	e8 00 00 00 00	 call	 ??$_Median@PAUCallBuff@@VCallBuffSort@@@std@@YAXPAUCallBuff@@00VCallBuffSort@@@Z ; std::_Median<CallBuff *,CallBuffSort>
  00032	83 c4 10	 add	 esp, 16			; 00000010H

; 3715 : 	_RanIt _Pfirst = _Mid;
; 3716 : 	_RanIt _Plast = _Pfirst + 1;

  00035	8d 7e 14	 lea	 edi, DWORD PTR [esi+20]
  00038	eb 27		 jmp	 SHORT $LN72@Unguarded_
$LL27@Unguarded_:

; 3717 : 
; 3718 : 	while (_First < _Pfirst
; 3719 : 		&& !_DEBUG_LT_PRED(_Pred, *(_Pfirst - 1), *_Pfirst)
; 3720 : 		&& !_Pred(*_Pfirst, *(_Pfirst - 1)))

  0003a	8d 46 ec	 lea	 eax, DWORD PTR [esi-20]
  0003d	56		 push	 esi
  0003e	50		 push	 eax
  0003f	8d 4d 14	 lea	 ecx, DWORD PTR __Pred$[ebp]
  00042	89 45 f8	 mov	 DWORD PTR tv264[ebp], eax
  00045	e8 00 00 00 00	 call	 ??RCallBuffSort@@QBE_NABUCallBuff@@0@Z ; CallBuffSort::operator()
  0004a	84 c0		 test	 al, al
  0004c	75 38		 jne	 SHORT $LN73@Unguarded_
  0004e	ff 75 f8	 push	 DWORD PTR tv264[ebp]
  00051	8d 4d 14	 lea	 ecx, DWORD PTR __Pred$[ebp]
  00054	56		 push	 esi
  00055	e8 00 00 00 00	 call	 ??RCallBuffSort@@QBE_NABUCallBuff@@0@Z ; CallBuffSort::operator()
  0005a	84 c0		 test	 al, al
  0005c	75 28		 jne	 SHORT $LN73@Unguarded_

; 3721 : 		--_Pfirst;

  0005e	8b 75 f8	 mov	 esi, DWORD PTR tv264[ebp]
$LN72@Unguarded_:

; 3717 : 
; 3718 : 	while (_First < _Pfirst
; 3719 : 		&& !_DEBUG_LT_PRED(_Pred, *(_Pfirst - 1), *_Pfirst)
; 3720 : 		&& !_Pred(*_Pfirst, *(_Pfirst - 1)))

  00061	3b de		 cmp	 ebx, esi
  00063	72 d5		 jb	 SHORT $LL27@Unguarded_

; 3725 : 		++_Plast;

  00065	eb 1f		 jmp	 SHORT $LN73@Unguarded_
$LL25@Unguarded_:

; 3722 : 	while (_Plast < _Last
; 3723 : 		&& !_DEBUG_LT_PRED(_Pred, *_Plast, *_Pfirst)
; 3724 : 		&& !_Pred(*_Pfirst, *_Plast))

  00067	56		 push	 esi
  00068	57		 push	 edi
  00069	8d 4d 14	 lea	 ecx, DWORD PTR __Pred$[ebp]
  0006c	e8 00 00 00 00	 call	 ??RCallBuffSort@@QBE_NABUCallBuff@@0@Z ; CallBuffSort::operator()
  00071	84 c0		 test	 al, al
  00073	75 16		 jne	 SHORT $LN24@Unguarded_
  00075	57		 push	 edi
  00076	56		 push	 esi
  00077	8d 4d 14	 lea	 ecx, DWORD PTR __Pred$[ebp]
  0007a	e8 00 00 00 00	 call	 ??RCallBuffSort@@QBE_NABUCallBuff@@0@Z ; CallBuffSort::operator()
  0007f	84 c0		 test	 al, al
  00081	75 08		 jne	 SHORT $LN24@Unguarded_

; 3725 : 		++_Plast;

  00083	83 c7 14	 add	 edi, 20			; 00000014H
$LN73@Unguarded_:

; 3722 : 	while (_Plast < _Last
; 3723 : 		&& !_DEBUG_LT_PRED(_Pred, *_Plast, *_Pfirst)
; 3724 : 		&& !_Pred(*_Pfirst, *_Plast))

  00086	3b 7d 10	 cmp	 edi, DWORD PTR __Last$[ebp]
  00089	72 dc		 jb	 SHORT $LL25@Unguarded_
$LN24@Unguarded_:

; 3726 : 
; 3727 : 	_RanIt _Gfirst = _Plast;

  0008b	8b df		 mov	 ebx, edi

; 3728 : 	_RanIt _Glast = _Pfirst;

  0008d	89 75 fc	 mov	 DWORD PTR __Glast$[ebp], esi

; 3729 : 
; 3730 : 	for (; ; )
; 3731 : 		{	// partition
; 3732 : 		for (; _Gfirst < _Last; ++_Gfirst)

  00090	eb 2d		 jmp	 SHORT $LN75@Unguarded_
$LL21@Unguarded_:

; 3733 : 			if (_DEBUG_LT_PRED(_Pred, *_Pfirst, *_Gfirst))

  00092	53		 push	 ebx
  00093	56		 push	 esi
  00094	8d 4d 14	 lea	 ecx, DWORD PTR __Pred$[ebp]
  00097	e8 00 00 00 00	 call	 ??RCallBuffSort@@QBE_NABUCallBuff@@0@Z ; CallBuffSort::operator()
  0009c	84 c0		 test	 al, al
  0009e	75 1c		 jne	 SHORT $LN20@Unguarded_

; 3734 : 				;
; 3735 : 			else if (_Pred(*_Gfirst, *_Pfirst))

  000a0	56		 push	 esi
  000a1	53		 push	 ebx
  000a2	8d 4d 14	 lea	 ecx, DWORD PTR __Pred$[ebp]
  000a5	e8 00 00 00 00	 call	 ??RCallBuffSort@@QBE_NABUCallBuff@@0@Z ; CallBuffSort::operator()
  000aa	84 c0		 test	 al, al
  000ac	75 16		 jne	 SHORT $LN69@Unguarded_

; 3736 : 				break;
; 3737 : 			else
; 3738 : 				_STD iter_swap(_Plast++, _Gfirst);

  000ae	8b c7		 mov	 eax, edi
  000b0	53		 push	 ebx
  000b1	83 c7 14	 add	 edi, 20			; 00000014H
  000b4	50		 push	 eax
$LN76@Unguarded_:
  000b5	e8 00 00 00 00	 call	 ??$swap@UCallBuff@@@std@@YAXAAUCallBuff@@0@Z ; std::swap<CallBuff>
  000ba	59		 pop	 ecx
  000bb	59		 pop	 ecx
$LN20@Unguarded_:

; 3729 : 
; 3730 : 	for (; ; )
; 3731 : 		{	// partition
; 3732 : 		for (; _Gfirst < _Last; ++_Gfirst)

  000bc	83 c3 14	 add	 ebx, 20			; 00000014H
$LN75@Unguarded_:
  000bf	3b 5d 10	 cmp	 ebx, DWORD PTR __Last$[ebp]
  000c2	72 ce		 jb	 SHORT $LL21@Unguarded_
$LN69@Unguarded_:

; 3739 : 		for (; _First < _Glast; --_Glast)

  000c4	8b 45 fc	 mov	 eax, DWORD PTR __Glast$[ebp]
  000c7	39 45 0c	 cmp	 DWORD PTR __First$[ebp], eax
  000ca	73 44		 jae	 SHORT $LN71@Unguarded_
  000cc	83 c0 ec	 add	 eax, -20		; ffffffecH
  000cf	89 45 f8	 mov	 DWORD PTR tv320[ebp], eax
$LL70@Unguarded_:

; 3740 : 			if (_DEBUG_LT_PRED(_Pred, *(_Glast - 1), *_Pfirst))

  000d2	56		 push	 esi
  000d3	ff 75 f8	 push	 DWORD PTR tv320[ebp]
  000d6	8d 4d 14	 lea	 ecx, DWORD PTR __Pred$[ebp]
  000d9	e8 00 00 00 00	 call	 ??RCallBuffSort@@QBE_NABUCallBuff@@0@Z ; CallBuffSort::operator()
  000de	84 c0		 test	 al, al
  000e0	75 1e		 jne	 SHORT $LN13@Unguarded_

; 3741 : 				;
; 3742 : 			else if (_Pred(*_Pfirst, *(_Glast - 1)))

  000e2	ff 75 f8	 push	 DWORD PTR tv320[ebp]
  000e5	8d 4d 14	 lea	 ecx, DWORD PTR __Pred$[ebp]
  000e8	56		 push	 esi
  000e9	e8 00 00 00 00	 call	 ??RCallBuffSort@@QBE_NABUCallBuff@@0@Z ; CallBuffSort::operator()
  000ee	84 c0		 test	 al, al
  000f0	75 1e		 jne	 SHORT $LN71@Unguarded_

; 3743 : 				break;
; 3744 : 			else
; 3745 : 				_STD iter_swap(--_Pfirst, _Glast - 1);

  000f2	ff 75 f8	 push	 DWORD PTR tv320[ebp]
  000f5	83 ee 14	 sub	 esi, 20			; 00000014H
  000f8	56		 push	 esi
  000f9	e8 00 00 00 00	 call	 ??$swap@UCallBuff@@@std@@YAXAAUCallBuff@@0@Z ; std::swap<CallBuff>
  000fe	59		 pop	 ecx
  000ff	59		 pop	 ecx
$LN13@Unguarded_:

; 3739 : 		for (; _First < _Glast; --_Glast)

  00100	83 6d fc 14	 sub	 DWORD PTR __Glast$[ebp], 20 ; 00000014H
  00104	8b 45 0c	 mov	 eax, DWORD PTR __First$[ebp]
  00107	83 6d f8 14	 sub	 DWORD PTR tv320[ebp], 20 ; 00000014H
  0010b	3b 45 fc	 cmp	 eax, DWORD PTR __Glast$[ebp]
  0010e	72 c2		 jb	 SHORT $LL70@Unguarded_
$LN71@Unguarded_:

; 3746 : 		if (_Glast == _First && _Gfirst == _Last)

  00110	8b 45 fc	 mov	 eax, DWORD PTR __Glast$[ebp]
  00113	3b 45 0c	 cmp	 eax, DWORD PTR __First$[ebp]
  00116	75 1f		 jne	 SHORT $LN6@Unguarded_
  00118	3b 5d 10	 cmp	 ebx, DWORD PTR __Last$[ebp]
  0011b	74 4d		 je	 SHORT $LN64@Unguarded_

; 3748 : 
; 3749 : 		if (_Glast == _First)
; 3750 : 			{	// no room at bottom, rotate pivot upward
; 3751 : 			if (_Plast != _Gfirst)

  0011d	3b fb		 cmp	 edi, ebx
  0011f	74 09		 je	 SHORT $LN46@Unguarded_

; 3752 : 				_STD iter_swap(_Pfirst, _Plast);

  00121	57		 push	 edi
  00122	56		 push	 esi
  00123	e8 00 00 00 00	 call	 ??$swap@UCallBuff@@@std@@YAXAAUCallBuff@@0@Z ; std::swap<CallBuff>
  00128	59		 pop	 ecx
  00129	59		 pop	 ecx
$LN46@Unguarded_:

; 3753 : 			++_Plast;
; 3754 : 			_STD iter_swap(_Pfirst++, _Gfirst++);

  0012a	53		 push	 ebx
  0012b	56		 push	 esi
  0012c	83 c7 14	 add	 edi, 20			; 00000014H
  0012f	83 c6 14	 add	 esi, 20			; 00000014H
  00132	83 c3 14	 add	 ebx, 20			; 00000014H
  00135	eb 20		 jmp	 SHORT $LN74@Unguarded_
$LN6@Unguarded_:

; 3755 : 			}
; 3756 : 		else if (_Gfirst == _Last)
; 3757 : 			{	// no room at top, rotate pivot downward
; 3758 : 			if (--_Glast != --_Pfirst)

  00137	83 e8 14	 sub	 eax, 20			; 00000014H
  0013a	89 45 fc	 mov	 DWORD PTR __Glast$[ebp], eax
  0013d	3b 5d 10	 cmp	 ebx, DWORD PTR __Last$[ebp]
  00140	75 21		 jne	 SHORT $LN3@Unguarded_
  00142	83 ee 14	 sub	 esi, 20			; 00000014H
  00145	3b c6		 cmp	 eax, esi
  00147	74 09		 je	 SHORT $LN50@Unguarded_

; 3759 : 				_STD iter_swap(_Glast, _Pfirst);

  00149	56		 push	 esi
  0014a	50		 push	 eax
  0014b	e8 00 00 00 00	 call	 ??$swap@UCallBuff@@@std@@YAXAAUCallBuff@@0@Z ; std::swap<CallBuff>
  00150	59		 pop	 ecx
  00151	59		 pop	 ecx
$LN50@Unguarded_:

; 3760 : 			_STD iter_swap(_Pfirst, --_Plast);

  00152	83 ef 14	 sub	 edi, 20			; 00000014H
  00155	57		 push	 edi
  00156	56		 push	 esi
$LN74@Unguarded_:
  00157	e8 00 00 00 00	 call	 ??$swap@UCallBuff@@@std@@YAXAAUCallBuff@@0@Z ; std::swap<CallBuff>
  0015c	59		 pop	 ecx
  0015d	59		 pop	 ecx

; 3761 : 			}
; 3762 : 		else

  0015e	e9 5c ff ff ff	 jmp	 $LN75@Unguarded_
$LN3@Unguarded_:

; 3763 : 			_STD iter_swap(_Gfirst++, --_Glast);

  00163	50		 push	 eax
  00164	53		 push	 ebx

; 3764 : 		}

  00165	e9 4b ff ff ff	 jmp	 $LN76@Unguarded_
$LN64@Unguarded_:

; 3747 : 			return (_STD pair<_RanIt, _RanIt>(_Pfirst, _Plast));

  0016a	8b 45 08	 mov	 eax, DWORD PTR ___$ReturnUdt$[ebp]
  0016d	89 78 04	 mov	 DWORD PTR [eax+4], edi
  00170	5f		 pop	 edi
  00171	89 30		 mov	 DWORD PTR [eax], esi
  00173	5e		 pop	 esi
  00174	5b		 pop	 ebx

; 3765 : 	}

  00175	c9		 leave
  00176	c3		 ret	 0
??$_Unguarded_partition@PAUCallBuff@@VCallBuffSort@@@std@@YA?AU?$pair@PAUCallBuff@@PAU1@@0@PAUCallBuff@@0VCallBuffSort@@@Z ENDP ; std::_Unguarded_partition<CallBuff *,CallBuffSort>
_TEXT	ENDS
PUBLIC	??$make_heap@PAUCallBuff@@VCallBuffSort@@@std@@YAXPAUCallBuff@@0VCallBuffSort@@@Z ; std::make_heap<CallBuff *,CallBuffSort>
; Function compile flags: /Ogsp
;	COMDAT ??$make_heap@PAUCallBuff@@VCallBuffSort@@@std@@YAXPAUCallBuff@@0VCallBuffSort@@@Z
_TEXT	SEGMENT
__First$ = 8						; size = 4
__Last$ = 12						; size = 4
__Pred$ = 16						; size = 1
??$make_heap@PAUCallBuff@@VCallBuffSort@@@std@@YAXPAUCallBuff@@0VCallBuffSort@@@Z PROC ; std::make_heap<CallBuff *,CallBuffSort>, COMDAT

; 2672 : 	{	// make [_First, _Last) into a heap, using _Pred

  00000	55		 push	 ebp
  00001	8b ec		 mov	 ebp, esp

; 2673 : 	_DEBUG_RANGE(_First, _Last);
; 2674 : 	_DEBUG_POINTER(_Pred);
; 2675 : 	if (1 < _Last - _First)

  00003	8b 45 0c	 mov	 eax, DWORD PTR __Last$[ebp]
  00006	2b 45 08	 sub	 eax, DWORD PTR __First$[ebp]
  00009	6a 14		 push	 20			; 00000014H
  0000b	99		 cdq
  0000c	59		 pop	 ecx
  0000d	f7 f9		 idiv	 ecx
  0000f	83 f8 01	 cmp	 eax, 1
  00012	7e 15		 jle	 SHORT $LN1@make_heap

; 2676 : 		_Make_heap(_Unchecked(_First), _Unchecked(_Last), _Pred,
; 2677 : 			_Dist_type(_First), _Val_type(_First));

  00014	6a 00		 push	 0
  00016	6a 00		 push	 0
  00018	ff 75 10	 push	 DWORD PTR __Pred$[ebp]
  0001b	ff 75 0c	 push	 DWORD PTR __Last$[ebp]
  0001e	ff 75 08	 push	 DWORD PTR __First$[ebp]
  00021	e8 00 00 00 00	 call	 ??$_Make_heap@PAUCallBuff@@HU1@VCallBuffSort@@@std@@YAXPAUCallBuff@@0VCallBuffSort@@PAH0@Z ; std::_Make_heap<CallBuff *,int,CallBuff,CallBuffSort>
  00026	83 c4 14	 add	 esp, 20			; 00000014H
$LN1@make_heap:

; 2678 : 	}

  00029	5d		 pop	 ebp
  0002a	c3		 ret	 0
??$make_heap@PAUCallBuff@@VCallBuffSort@@@std@@YAXPAUCallBuff@@0VCallBuffSort@@@Z ENDP ; std::make_heap<CallBuff *,CallBuffSort>
_TEXT	ENDS
PUBLIC	??$_Uninit_move@PAVioHashString@@PAV1@V?$allocator@VioHashString@@@std@@V1@@std@@YAPAVioHashString@@PAV1@00AAV?$allocator@VioHashString@@@0@0U_Nonscalar_ptr_iterator_tag@0@@Z ; std::_Uninit_move<ioHashString *,ioHashString *,std::allocator<ioHashString>,ioHashString>
EXTRN	__EH_prolog3_catch:PROC
;	COMDAT xdata$x
; File c:\program files (x86)\microsoft visual studio 10.0\vc\include\vector
xdata$x	SEGMENT
__catchsym$??$_Uninit_move@PAVioHashString@@PAV1@V?$allocator@VioHashString@@@std@@V1@@std@@YAPAVioHashString@@PAV1@00AAV?$allocator@VioHashString@@@0@0U_Nonscalar_ptr_iterator_tag@0@@Z$2 DD 040H
	DD	00H
	DD	00H
	DD	FLAT:__catch$??$_Uninit_move@PAVioHashString@@PAV1@V?$allocator@VioHashString@@@std@@V1@@std@@YAPAVioHashString@@PAV1@00AAV?$allocator@VioHashString@@@0@0U_Nonscalar_ptr_iterator_tag@0@@Z$0
__unwindtable$??$_Uninit_move@PAVioHashString@@PAV1@V?$allocator@VioHashString@@@std@@V1@@std@@YAPAVioHashString@@PAV1@00AAV?$allocator@VioHashString@@@0@0U_Nonscalar_ptr_iterator_tag@0@@Z DD 0ffffffffH
	DD	00H
	DD	0ffffffffH
	DD	00H
__tryblocktable$??$_Uninit_move@PAVioHashString@@PAV1@V?$allocator@VioHashString@@@std@@V1@@std@@YAPAVioHashString@@PAV1@00AAV?$allocator@VioHashString@@@0@0U_Nonscalar_ptr_iterator_tag@0@@Z DD 00H
	DD	00H
	DD	01H
	DD	01H
	DD	FLAT:__catchsym$??$_Uninit_move@PAVioHashString@@PAV1@V?$allocator@VioHashString@@@std@@V1@@std@@YAPAVioHashString@@PAV1@00AAV?$allocator@VioHashString@@@0@0U_Nonscalar_ptr_iterator_tag@0@@Z$2
__ehfuncinfo$??$_Uninit_move@PAVioHashString@@PAV1@V?$allocator@VioHashString@@@std@@V1@@std@@YAPAVioHashString@@PAV1@00AAV?$allocator@VioHashString@@@0@0U_Nonscalar_ptr_iterator_tag@0@@Z DD 019930522H
	DD	02H
	DD	FLAT:__unwindtable$??$_Uninit_move@PAVioHashString@@PAV1@V?$allocator@VioHashString@@@std@@V1@@std@@YAPAVioHashString@@PAV1@00AAV?$allocator@VioHashString@@@0@0U_Nonscalar_ptr_iterator_tag@0@@Z
	DD	01H
	DD	FLAT:__tryblocktable$??$_Uninit_move@PAVioHashString@@PAV1@V?$allocator@VioHashString@@@std@@V1@@std@@YAPAVioHashString@@PAV1@00AAV?$allocator@VioHashString@@@0@0U_Nonscalar_ptr_iterator_tag@0@@Z
	DD	2 DUP(00H)
	DD	00H
	DD	01H
; Function compile flags: /Ogsp
; File c:\program files (x86)\microsoft visual studio 10.0\vc\include\memory
xdata$x	ENDS
;	COMDAT ??$_Uninit_move@PAVioHashString@@PAV1@V?$allocator@VioHashString@@@std@@V1@@std@@YAPAVioHashString@@PAV1@00AAV?$allocator@VioHashString@@@0@0U_Nonscalar_ptr_iterator_tag@0@@Z
_TEXT	SEGMENT
__Next$ = -20						; size = 4
__$EHRec$ = -16						; size = 16
__First$ = 8						; size = 4
__Last$ = 12						; size = 4
__Dest$ = 16						; size = 4
__Al$ = 20						; size = 4
___formal$ = 24						; size = 4
___formal$ = 28						; size = 1
??$_Uninit_move@PAVioHashString@@PAV1@V?$allocator@VioHashString@@@std@@V1@@std@@YAPAVioHashString@@PAV1@00AAV?$allocator@VioHashString@@@0@0U_Nonscalar_ptr_iterator_tag@0@@Z PROC ; std::_Uninit_move<ioHashString *,ioHashString *,std::allocator<ioHashString>,ioHashString>, COMDAT

; 424  : 	{	// move [_First, _Last) to raw _Dest, using _Al, arbitrary type

  00000	6a 08		 push	 8
  00002	b8 00 00 00 00	 mov	 eax, __ehhandler$??$_Uninit_move@PAVioHashString@@PAV1@V?$allocator@VioHashString@@@std@@V1@@std@@YAPAVioHashString@@PAV1@00AAV?$allocator@VioHashString@@@0@0U_Nonscalar_ptr_iterator_tag@0@@Z
  00007	e8 00 00 00 00	 call	 __EH_prolog3_catch

; 425  : 	_DEBUG_RANGE(_First, _Last);
; 426  : 	_DEBUG_POINTER(_Dest);
; 427  : 	_FwdIt _Next = _Dest;

  0000c	8b 45 10	 mov	 eax, DWORD PTR __Dest$[ebp]

; 428  : 
; 429  : 	_TRY_BEGIN

  0000f	83 65 fc 00	 and	 DWORD PTR __$EHRec$[ebp+12], 0
  00013	8b 75 08	 mov	 esi, DWORD PTR __First$[ebp]
  00016	89 45 ec	 mov	 DWORD PTR __Next$[ebp], eax
$LL6@Uninit_mov:

; 430  : 	for (; _First != _Last; ++_Dest, ++_First)

  00019	3b 75 0c	 cmp	 esi, DWORD PTR __Last$[ebp]
  0001c	74 33		 je	 SHORT $LN4@Uninit_mov

; 431  : 		_Cons_val(_Al, _Dest, (_Valty &&)*_First);

  0001e	8b 4d 14	 mov	 ecx, DWORD PTR __Al$[ebp]
  00021	56		 push	 esi
  00022	ff 75 10	 push	 DWORD PTR __Dest$[ebp]
  00025	e8 00 00 00 00	 call	 ?construct@?$allocator@VioHashString@@@std@@QAEXPAVioHashString@@$$QAV3@@Z ; std::allocator<ioHashString>::construct
  0002a	83 45 10 10	 add	 DWORD PTR __Dest$[ebp], 16 ; 00000010H
  0002e	83 c6 10	 add	 esi, 16			; 00000010H
  00031	eb e6		 jmp	 SHORT $LL6@Uninit_mov
__catch$??$_Uninit_move@PAVioHashString@@PAV1@V?$allocator@VioHashString@@@std@@V1@@std@@YAPAVioHashString@@PAV1@00AAV?$allocator@VioHashString@@@0@0U_Nonscalar_ptr_iterator_tag@0@@Z$0:

; 432  : 	_CATCH_ALL
; 433  : 	for (; _Next != _Dest; ++_Next)

  00033	8b 75 ec	 mov	 esi, DWORD PTR __Next$[ebp]
  00036	eb 0b		 jmp	 SHORT $LN33@Uninit_mov
$LL3@Uninit_mov:

; 434  : 		_Dest_val(_Al, _Next);

  00038	8b ce		 mov	 ecx, esi
  0003a	ff 15 00 00 00
	00		 call	 DWORD PTR __imp_??1ioHashString@@QAE@XZ
  00040	83 c6 10	 add	 esi, 16			; 00000010H
$LN33@Uninit_mov:

; 432  : 	_CATCH_ALL
; 433  : 	for (; _Next != _Dest; ++_Next)

  00043	3b 75 10	 cmp	 esi, DWORD PTR __Dest$[ebp]
  00046	75 f0		 jne	 SHORT $LL3@Uninit_mov

; 435  : 	_RERAISE;

  00048	6a 00		 push	 0
  0004a	6a 00		 push	 0
  0004c	e8 00 00 00 00	 call	 __CxxThrowException@8
$LN34@Uninit_mov:
$LN4@Uninit_mov:

; 436  : 	_CATCH_END
; 437  : 	return (_Dest);

  00051	8b 45 10	 mov	 eax, DWORD PTR __Dest$[ebp]

; 438  : 	}

  00054	e8 00 00 00 00	 call	 __EH_epilog3
  00059	c3		 ret	 0
$LN32@Uninit_mov:
_TEXT	ENDS
;	COMDAT text$x
text$x	SEGMENT
__ehhandler$??$_Uninit_move@PAVioHashString@@PAV1@V?$allocator@VioHashString@@@std@@V1@@std@@YAPAVioHashString@@PAV1@00AAV?$allocator@VioHashString@@@0@0U_Nonscalar_ptr_iterator_tag@0@@Z:
  00000	8b 54 24 08	 mov	 edx, DWORD PTR [esp+8]
  00004	8d 42 0c	 lea	 eax, DWORD PTR [edx+12]
  00007	8b 4a e8	 mov	 ecx, DWORD PTR [edx-24]
  0000a	33 c8		 xor	 ecx, eax
  0000c	e8 00 00 00 00	 call	 @__security_check_cookie@4
  00011	b8 00 00 00 00	 mov	 eax, OFFSET __ehfuncinfo$??$_Uninit_move@PAVioHashString@@PAV1@V?$allocator@VioHashString@@@std@@V1@@std@@YAPAVioHashString@@PAV1@00AAV?$allocator@VioHashString@@@0@0U_Nonscalar_ptr_iterator_tag@0@@Z
  00016	e9 00 00 00 00	 jmp	 ___CxxFrameHandler3
text$x	ENDS
??$_Uninit_move@PAVioHashString@@PAV1@V?$allocator@VioHashString@@@std@@V1@@std@@YAPAVioHashString@@PAV1@00AAV?$allocator@VioHashString@@@0@0U_Nonscalar_ptr_iterator_tag@0@@Z ENDP ; std::_Uninit_move<ioHashString *,ioHashString *,std::allocator<ioHashString>,ioHashString>
PUBLIC	??$_Uninit_copy@V?$_Vector_const_iterator@V?$_Vector_val@UCallBuff@@V?$allocator@UCallBuff@@@std@@@std@@@std@@PAUCallBuff@@V?$allocator@UCallBuff@@@2@@std@@YAPAUCallBuff@@V?$_Vector_const_iterator@V?$_Vector_val@UCallBuff@@V?$allocator@UCallBuff@@@std@@@std@@@0@0PAU1@AAV?$allocator@UCallBuff@@@0@U_Nonscalar_ptr_iterator_tag@0@@Z ; std::_Uninit_copy<std::_Vector_const_iterator<std::_Vector_val<CallBuff,std::allocator<CallBuff> > >,CallBuff *,std::allocator<CallBuff> >
;	COMDAT xdata$x
; File d:\lost saga for developer\youtube\tutorial\source\src\lsclient\ioinfectionbuff.cpp
xdata$x	SEGMENT
__catchsym$??$_Uninit_copy@V?$_Vector_const_iterator@V?$_Vector_val@UCallBuff@@V?$allocator@UCallBuff@@@std@@@std@@@std@@PAUCallBuff@@V?$allocator@UCallBuff@@@2@@std@@YAPAUCallBuff@@V?$_Vector_const_iterator@V?$_Vector_val@UCallBuff@@V?$allocator@UCallBuff@@@std@@@std@@@0@0PAU1@AAV?$allocator@UCallBuff@@@0@U_Nonscalar_ptr_iterator_tag@0@@Z$3 DD 040H
	DD	00H
	DD	00H
	DD	FLAT:__catch$??$_Uninit_copy@V?$_Vector_const_iterator@V?$_Vector_val@UCallBuff@@V?$allocator@UCallBuff@@@std@@@std@@@std@@PAUCallBuff@@V?$allocator@UCallBuff@@@2@@std@@YAPAUCallBuff@@V?$_Vector_const_iterator@V?$_Vector_val@UCallBuff@@V?$allocator@UCallBuff@@@std@@@std@@@0@0PAU1@AAV?$allocator@UCallBuff@@@0@U_Nonscalar_ptr_iterator_tag@0@@Z$0
__unwindtable$??$_Uninit_copy@V?$_Vector_const_iterator@V?$_Vector_val@UCallBuff@@V?$allocator@UCallBuff@@@std@@@std@@@std@@PAUCallBuff@@V?$allocator@UCallBuff@@@2@@std@@YAPAUCallBuff@@V?$_Vector_const_iterator@V?$_Vector_val@UCallBuff@@V?$allocator@UCallBuff@@@std@@@std@@@0@0PAU1@AAV?$allocator@UCallBuff@@@0@U_Nonscalar_ptr_iterator_tag@0@@Z DD 0ffffffffH
	DD	00H
	DD	0ffffffffH
	DD	00H
__tryblocktable$??$_Uninit_copy@V?$_Vector_const_iterator@V?$_Vector_val@UCallBuff@@V?$allocator@UCallBuff@@@std@@@std@@@std@@PAUCallBuff@@V?$allocator@UCallBuff@@@2@@std@@YAPAUCallBuff@@V?$_Vector_const_iterator@V?$_Vector_val@UCallBuff@@V?$allocator@UCallBuff@@@std@@@std@@@0@0PAU1@AAV?$allocator@UCallBuff@@@0@U_Nonscalar_ptr_iterator_tag@0@@Z DD 00H
	DD	00H
	DD	01H
	DD	01H
	DD	FLAT:__catchsym$??$_Uninit_copy@V?$_Vector_const_iterator@V?$_Vector_val@UCallBuff@@V?$allocator@UCallBuff@@@std@@@std@@@std@@PAUCallBuff@@V?$allocator@UCallBuff@@@2@@std@@YAPAUCallBuff@@V?$_Vector_const_iterator@V?$_Vector_val@UCallBuff@@V?$allocator@UCallBuff@@@std@@@std@@@0@0PAU1@AAV?$allocator@UCallBuff@@@0@U_Nonscalar_ptr_iterator_tag@0@@Z$3
__ehfuncinfo$??$_Uninit_copy@V?$_Vector_const_iterator@V?$_Vector_val@UCallBuff@@V?$allocator@UCallBuff@@@std@@@std@@@std@@PAUCallBuff@@V?$allocator@UCallBuff@@@2@@std@@YAPAUCallBuff@@V?$_Vector_const_iterator@V?$_Vector_val@UCallBuff@@V?$allocator@UCallBuff@@@std@@@std@@@0@0PAU1@AAV?$allocator@UCallBuff@@@0@U_Nonscalar_ptr_iterator_tag@0@@Z DD 019930522H
	DD	02H
	DD	FLAT:__unwindtable$??$_Uninit_copy@V?$_Vector_const_iterator@V?$_Vector_val@UCallBuff@@V?$allocator@UCallBuff@@@std@@@std@@@std@@PAUCallBuff@@V?$allocator@UCallBuff@@@2@@std@@YAPAUCallBuff@@V?$_Vector_const_iterator@V?$_Vector_val@UCallBuff@@V?$allocator@UCallBuff@@@std@@@std@@@0@0PAU1@AAV?$allocator@UCallBuff@@@0@U_Nonscalar_ptr_iterator_tag@0@@Z
	DD	01H
	DD	FLAT:__tryblocktable$??$_Uninit_copy@V?$_Vector_const_iterator@V?$_Vector_val@UCallBuff@@V?$allocator@UCallBuff@@@std@@@std@@@std@@PAUCallBuff@@V?$allocator@UCallBuff@@@2@@std@@YAPAUCallBuff@@V?$_Vector_const_iterator@V?$_Vector_val@UCallBuff@@V?$allocator@UCallBuff@@@std@@@std@@@0@0PAU1@AAV?$allocator@UCallBuff@@@0@U_Nonscalar_ptr_iterator_tag@0@@Z
	DD	2 DUP(00H)
	DD	00H
	DD	01H
; Function compile flags: /Ogsp
; File c:\program files (x86)\microsoft visual studio 10.0\vc\include\memory
xdata$x	ENDS
;	COMDAT ??$_Uninit_copy@V?$_Vector_const_iterator@V?$_Vector_val@UCallBuff@@V?$allocator@UCallBuff@@@std@@@std@@@std@@PAUCallBuff@@V?$allocator@UCallBuff@@@2@@std@@YAPAUCallBuff@@V?$_Vector_const_iterator@V?$_Vector_val@UCallBuff@@V?$allocator@UCallBuff@@@std@@@std@@@0@0PAU1@AAV?$allocator@UCallBuff@@@0@U_Nonscalar_ptr_iterator_tag@0@@Z
_TEXT	SEGMENT
__Next$ = -20						; size = 4
__$EHRec$ = -16						; size = 16
__First$ = 8						; size = 4
__Last$ = 12						; size = 4
__Dest$ = 16						; size = 4
__Al$ = 20						; size = 4
___formal$ = 24						; size = 1
??$_Uninit_copy@V?$_Vector_const_iterator@V?$_Vector_val@UCallBuff@@V?$allocator@UCallBuff@@@std@@@std@@@std@@PAUCallBuff@@V?$allocator@UCallBuff@@@2@@std@@YAPAUCallBuff@@V?$_Vector_const_iterator@V?$_Vector_val@UCallBuff@@V?$allocator@UCallBuff@@@std@@@std@@@0@0PAU1@AAV?$allocator@UCallBuff@@@0@U_Nonscalar_ptr_iterator_tag@0@@Z PROC ; std::_Uninit_copy<std::_Vector_const_iterator<std::_Vector_val<CallBuff,std::allocator<CallBuff> > >,CallBuff *,std::allocator<CallBuff> >, COMDAT

; 369  : 	{	// copy [_First, _Last) to raw _Dest, using _Al, arbitrary type

  00000	6a 08		 push	 8
  00002	b8 00 00 00 00	 mov	 eax, __ehhandler$??$_Uninit_copy@V?$_Vector_const_iterator@V?$_Vector_val@UCallBuff@@V?$allocator@UCallBuff@@@std@@@std@@@std@@PAUCallBuff@@V?$allocator@UCallBuff@@@2@@std@@YAPAUCallBuff@@V?$_Vector_const_iterator@V?$_Vector_val@UCallBuff@@V?$allocator@UCallBuff@@@std@@@std@@@0@0PAU1@AAV?$allocator@UCallBuff@@@0@U_Nonscalar_ptr_iterator_tag@0@@Z
  00007	e8 00 00 00 00	 call	 __EH_prolog3_catch

; 370  : 	_DEBUG_RANGE(_First, _Last);
; 371  : 	_DEBUG_POINTER(_Dest);
; 372  : 	_FwdIt _Next = _Dest;

  0000c	8b 45 10	 mov	 eax, DWORD PTR __Dest$[ebp]

; 373  : 
; 374  : 	_TRY_BEGIN

  0000f	83 65 fc 00	 and	 DWORD PTR __$EHRec$[ebp+12], 0
  00013	89 45 ec	 mov	 DWORD PTR __Next$[ebp], eax

; 375  : 	for (; _First != _Last; ++_Dest, ++_First)

$LL14@Uninit_cop:
  00016	8b 45 08	 mov	 eax, DWORD PTR __First$[ebp]
  00019	3b 45 0c	 cmp	 eax, DWORD PTR __Last$[ebp]
  0001c	74 33		 je	 SHORT $LN4@Uninit_cop

; 376  : 		_Cons_val(_Al, _Dest, *_First);

  0001e	50		 push	 eax
  0001f	ff 75 10	 push	 DWORD PTR __Dest$[ebp]
  00022	e8 00 00 00 00	 call	 ??$_Construct@UCallBuff@@ABU1@@std@@YAXPAUCallBuff@@ABU1@@Z ; std::_Construct<CallBuff,CallBuff const &>
  00027	83 45 10 14	 add	 DWORD PTR __Dest$[ebp], 20 ; 00000014H
  0002b	83 45 08 14	 add	 DWORD PTR __First$[ebp], 20 ; 00000014H
  0002f	59		 pop	 ecx
  00030	59		 pop	 ecx
  00031	eb e3		 jmp	 SHORT $LL14@Uninit_cop
__catch$??$_Uninit_copy@V?$_Vector_const_iterator@V?$_Vector_val@UCallBuff@@V?$allocator@UCallBuff@@@std@@@std@@@std@@PAUCallBuff@@V?$allocator@UCallBuff@@@2@@std@@YAPAUCallBuff@@V?$_Vector_const_iterator@V?$_Vector_val@UCallBuff@@V?$allocator@UCallBuff@@@std@@@std@@@0@0PAU1@AAV?$allocator@UCallBuff@@@0@U_Nonscalar_ptr_iterator_tag@0@@Z$0:

; 377  : 	_CATCH_ALL
; 378  : 	for (; _Next != _Dest; ++_Next)

  00033	8b 75 ec	 mov	 esi, DWORD PTR __Next$[ebp]
  00036	eb 0b		 jmp	 SHORT $LN48@Uninit_cop
$LL3@Uninit_cop:

; 379  : 		_Dest_val(_Al, _Next);

  00038	8b ce		 mov	 ecx, esi
  0003a	ff 15 00 00 00
	00		 call	 DWORD PTR __imp_??1ioHashString@@QAE@XZ
  00040	83 c6 14	 add	 esi, 20			; 00000014H
$LN48@Uninit_cop:

; 377  : 	_CATCH_ALL
; 378  : 	for (; _Next != _Dest; ++_Next)

  00043	3b 75 10	 cmp	 esi, DWORD PTR __Dest$[ebp]
  00046	75 f0		 jne	 SHORT $LL3@Uninit_cop

; 380  : 	_RERAISE;

  00048	6a 00		 push	 0
  0004a	6a 00		 push	 0
  0004c	e8 00 00 00 00	 call	 __CxxThrowException@8
$LN49@Uninit_cop:
$LN4@Uninit_cop:

; 381  : 	_CATCH_END
; 382  : 	return (_Dest);

  00051	8b 45 10	 mov	 eax, DWORD PTR __Dest$[ebp]

; 383  : 	}

  00054	e8 00 00 00 00	 call	 __EH_epilog3
  00059	c3		 ret	 0
$LN47@Uninit_cop:
_TEXT	ENDS
;	COMDAT text$x
text$x	SEGMENT
__ehhandler$??$_Uninit_copy@V?$_Vector_const_iterator@V?$_Vector_val@UCallBuff@@V?$allocator@UCallBuff@@@std@@@std@@@std@@PAUCallBuff@@V?$allocator@UCallBuff@@@2@@std@@YAPAUCallBuff@@V?$_Vector_const_iterator@V?$_Vector_val@UCallBuff@@V?$allocator@UCallBuff@@@std@@@std@@@0@0PAU1@AAV?$allocator@UCallBuff@@@0@U_Nonscalar_ptr_iterator_tag@0@@Z:
  00000	8b 54 24 08	 mov	 edx, DWORD PTR [esp+8]
  00004	8d 42 0c	 lea	 eax, DWORD PTR [edx+12]
  00007	8b 4a e8	 mov	 ecx, DWORD PTR [edx-24]
  0000a	33 c8		 xor	 ecx, eax
  0000c	e8 00 00 00 00	 call	 @__security_check_cookie@4
  00011	b8 00 00 00 00	 mov	 eax, OFFSET __ehfuncinfo$??$_Uninit_copy@V?$_Vector_const_iterator@V?$_Vector_val@UCallBuff@@V?$allocator@UCallBuff@@@std@@@std@@@std@@PAUCallBuff@@V?$allocator@UCallBuff@@@2@@std@@YAPAUCallBuff@@V?$_Vector_const_iterator@V?$_Vector_val@UCallBuff@@V?$allocator@UCallBuff@@@std@@@std@@@0@0PAU1@AAV?$allocator@UCallBuff@@@0@U_Nonscalar_ptr_iterator_tag@0@@Z
  00016	e9 00 00 00 00	 jmp	 ___CxxFrameHandler3
text$x	ENDS
??$_Uninit_copy@V?$_Vector_const_iterator@V?$_Vector_val@UCallBuff@@V?$allocator@UCallBuff@@@std@@@std@@@std@@PAUCallBuff@@V?$allocator@UCallBuff@@@2@@std@@YAPAUCallBuff@@V?$_Vector_const_iterator@V?$_Vector_val@UCallBuff@@V?$allocator@UCallBuff@@@std@@@std@@@0@0PAU1@AAV?$allocator@UCallBuff@@@0@U_Nonscalar_ptr_iterator_tag@0@@Z ENDP ; std::_Uninit_copy<std::_Vector_const_iterator<std::_Vector_val<CallBuff,std::allocator<CallBuff> > >,CallBuff *,std::allocator<CallBuff> >
PUBLIC	??$_Uninit_move@PAUCallBuff@@PAU1@V?$allocator@UCallBuff@@@std@@U1@@std@@YAPAUCallBuff@@PAU1@00AAV?$allocator@UCallBuff@@@0@0U_Nonscalar_ptr_iterator_tag@0@@Z ; std::_Uninit_move<CallBuff *,CallBuff *,std::allocator<CallBuff>,CallBuff>
;	COMDAT xdata$x
; File d:\lost saga for developer\youtube\tutorial\source\src\lsclient\ioinfectionbuff.cpp
xdata$x	SEGMENT
__catchsym$??$_Uninit_move@PAUCallBuff@@PAU1@V?$allocator@UCallBuff@@@std@@U1@@std@@YAPAUCallBuff@@PAU1@00AAV?$allocator@UCallBuff@@@0@0U_Nonscalar_ptr_iterator_tag@0@@Z$3 DD 040H
	DD	00H
	DD	00H
	DD	FLAT:__catch$??$_Uninit_move@PAUCallBuff@@PAU1@V?$allocator@UCallBuff@@@std@@U1@@std@@YAPAUCallBuff@@PAU1@00AAV?$allocator@UCallBuff@@@0@0U_Nonscalar_ptr_iterator_tag@0@@Z$0
__unwindtable$??$_Uninit_move@PAUCallBuff@@PAU1@V?$allocator@UCallBuff@@@std@@U1@@std@@YAPAUCallBuff@@PAU1@00AAV?$allocator@UCallBuff@@@0@0U_Nonscalar_ptr_iterator_tag@0@@Z DD 0ffffffffH
	DD	00H
	DD	0ffffffffH
	DD	00H
__tryblocktable$??$_Uninit_move@PAUCallBuff@@PAU1@V?$allocator@UCallBuff@@@std@@U1@@std@@YAPAUCallBuff@@PAU1@00AAV?$allocator@UCallBuff@@@0@0U_Nonscalar_ptr_iterator_tag@0@@Z DD 00H
	DD	00H
	DD	01H
	DD	01H
	DD	FLAT:__catchsym$??$_Uninit_move@PAUCallBuff@@PAU1@V?$allocator@UCallBuff@@@std@@U1@@std@@YAPAUCallBuff@@PAU1@00AAV?$allocator@UCallBuff@@@0@0U_Nonscalar_ptr_iterator_tag@0@@Z$3
__ehfuncinfo$??$_Uninit_move@PAUCallBuff@@PAU1@V?$allocator@UCallBuff@@@std@@U1@@std@@YAPAUCallBuff@@PAU1@00AAV?$allocator@UCallBuff@@@0@0U_Nonscalar_ptr_iterator_tag@0@@Z DD 019930522H
	DD	02H
	DD	FLAT:__unwindtable$??$_Uninit_move@PAUCallBuff@@PAU1@V?$allocator@UCallBuff@@@std@@U1@@std@@YAPAUCallBuff@@PAU1@00AAV?$allocator@UCallBuff@@@0@0U_Nonscalar_ptr_iterator_tag@0@@Z
	DD	01H
	DD	FLAT:__tryblocktable$??$_Uninit_move@PAUCallBuff@@PAU1@V?$allocator@UCallBuff@@@std@@U1@@std@@YAPAUCallBuff@@PAU1@00AAV?$allocator@UCallBuff@@@0@0U_Nonscalar_ptr_iterator_tag@0@@Z
	DD	2 DUP(00H)
	DD	00H
	DD	01H
; Function compile flags: /Ogsp
; File c:\program files (x86)\microsoft visual studio 10.0\vc\include\memory
xdata$x	ENDS
;	COMDAT ??$_Uninit_move@PAUCallBuff@@PAU1@V?$allocator@UCallBuff@@@std@@U1@@std@@YAPAUCallBuff@@PAU1@00AAV?$allocator@UCallBuff@@@0@0U_Nonscalar_ptr_iterator_tag@0@@Z
_TEXT	SEGMENT
__Next$ = -20						; size = 4
__$EHRec$ = -16						; size = 16
__First$ = 8						; size = 4
__Last$ = 12						; size = 4
__Dest$ = 16						; size = 4
__Al$ = 20						; size = 4
___formal$ = 24						; size = 4
___formal$ = 28						; size = 1
??$_Uninit_move@PAUCallBuff@@PAU1@V?$allocator@UCallBuff@@@std@@U1@@std@@YAPAUCallBuff@@PAU1@00AAV?$allocator@UCallBuff@@@0@0U_Nonscalar_ptr_iterator_tag@0@@Z PROC ; std::_Uninit_move<CallBuff *,CallBuff *,std::allocator<CallBuff>,CallBuff>, COMDAT

; 424  : 	{	// move [_First, _Last) to raw _Dest, using _Al, arbitrary type

  00000	6a 08		 push	 8
  00002	b8 00 00 00 00	 mov	 eax, __ehhandler$??$_Uninit_move@PAUCallBuff@@PAU1@V?$allocator@UCallBuff@@@std@@U1@@std@@YAPAUCallBuff@@PAU1@00AAV?$allocator@UCallBuff@@@0@0U_Nonscalar_ptr_iterator_tag@0@@Z
  00007	e8 00 00 00 00	 call	 __EH_prolog3_catch

; 425  : 	_DEBUG_RANGE(_First, _Last);
; 426  : 	_DEBUG_POINTER(_Dest);
; 427  : 	_FwdIt _Next = _Dest;

  0000c	8b 45 10	 mov	 eax, DWORD PTR __Dest$[ebp]

; 428  : 
; 429  : 	_TRY_BEGIN

  0000f	83 65 fc 00	 and	 DWORD PTR __$EHRec$[ebp+12], 0
  00013	8b 75 08	 mov	 esi, DWORD PTR __First$[ebp]
  00016	89 45 ec	 mov	 DWORD PTR __Next$[ebp], eax
$LL6@Uninit_mov@2:

; 430  : 	for (; _First != _Last; ++_Dest, ++_First)

  00019	3b 75 0c	 cmp	 esi, DWORD PTR __Last$[ebp]
  0001c	74 33		 je	 SHORT $LN4@Uninit_mov@2

; 431  : 		_Cons_val(_Al, _Dest, (_Valty &&)*_First);

  0001e	8b 4d 14	 mov	 ecx, DWORD PTR __Al$[ebp]
  00021	56		 push	 esi
  00022	ff 75 10	 push	 DWORD PTR __Dest$[ebp]
  00025	e8 00 00 00 00	 call	 ?construct@?$allocator@UCallBuff@@@std@@QAEXPAUCallBuff@@$$QAU3@@Z ; std::allocator<CallBuff>::construct
  0002a	83 45 10 14	 add	 DWORD PTR __Dest$[ebp], 20 ; 00000014H
  0002e	83 c6 14	 add	 esi, 20			; 00000014H
  00031	eb e6		 jmp	 SHORT $LL6@Uninit_mov@2
__catch$??$_Uninit_move@PAUCallBuff@@PAU1@V?$allocator@UCallBuff@@@std@@U1@@std@@YAPAUCallBuff@@PAU1@00AAV?$allocator@UCallBuff@@@0@0U_Nonscalar_ptr_iterator_tag@0@@Z$0:

; 432  : 	_CATCH_ALL
; 433  : 	for (; _Next != _Dest; ++_Next)

  00033	8b 75 ec	 mov	 esi, DWORD PTR __Next$[ebp]
  00036	eb 0b		 jmp	 SHORT $LN36@Uninit_mov@2
$LL3@Uninit_mov@2:

; 434  : 		_Dest_val(_Al, _Next);

  00038	8b ce		 mov	 ecx, esi
  0003a	ff 15 00 00 00
	00		 call	 DWORD PTR __imp_??1ioHashString@@QAE@XZ
  00040	83 c6 14	 add	 esi, 20			; 00000014H
$LN36@Uninit_mov@2:

; 432  : 	_CATCH_ALL
; 433  : 	for (; _Next != _Dest; ++_Next)

  00043	3b 75 10	 cmp	 esi, DWORD PTR __Dest$[ebp]
  00046	75 f0		 jne	 SHORT $LL3@Uninit_mov@2

; 435  : 	_RERAISE;

  00048	6a 00		 push	 0
  0004a	6a 00		 push	 0
  0004c	e8 00 00 00 00	 call	 __CxxThrowException@8
$LN37@Uninit_mov@2:
$LN4@Uninit_mov@2:

; 436  : 	_CATCH_END
; 437  : 	return (_Dest);

  00051	8b 45 10	 mov	 eax, DWORD PTR __Dest$[ebp]

; 438  : 	}

  00054	e8 00 00 00 00	 call	 __EH_epilog3
  00059	c3		 ret	 0
$LN35@Uninit_mov@2:
_TEXT	ENDS
;	COMDAT text$x
text$x	SEGMENT
__ehhandler$??$_Uninit_move@PAUCallBuff@@PAU1@V?$allocator@UCallBuff@@@std@@U1@@std@@YAPAUCallBuff@@PAU1@00AAV?$allocator@UCallBuff@@@0@0U_Nonscalar_ptr_iterator_tag@0@@Z:
  00000	8b 54 24 08	 mov	 edx, DWORD PTR [esp+8]
  00004	8d 42 0c	 lea	 eax, DWORD PTR [edx+12]
  00007	8b 4a e8	 mov	 ecx, DWORD PTR [edx-24]
  0000a	33 c8		 xor	 ecx, eax
  0000c	e8 00 00 00 00	 call	 @__security_check_cookie@4
  00011	b8 00 00 00 00	 mov	 eax, OFFSET __ehfuncinfo$??$_Uninit_move@PAUCallBuff@@PAU1@V?$allocator@UCallBuff@@@std@@U1@@std@@YAPAUCallBuff@@PAU1@00AAV?$allocator@UCallBuff@@@0@0U_Nonscalar_ptr_iterator_tag@0@@Z
  00016	e9 00 00 00 00	 jmp	 ___CxxFrameHandler3
text$x	ENDS
??$_Uninit_move@PAUCallBuff@@PAU1@V?$allocator@UCallBuff@@@std@@U1@@std@@YAPAUCallBuff@@PAU1@00AAV?$allocator@UCallBuff@@@0@0U_Nonscalar_ptr_iterator_tag@0@@Z ENDP ; std::_Uninit_move<CallBuff *,CallBuff *,std::allocator<CallBuff>,CallBuff>
PUBLIC	??$_Pop_heap@PAUCallBuff@@VCallBuffSort@@@std@@YAXPAUCallBuff@@0VCallBuffSort@@@Z ; std::_Pop_heap<CallBuff *,CallBuffSort>
; Function compile flags: /Ogsp
; File c:\program files (x86)\microsoft visual studio 10.0\vc\include\algorithm
;	COMDAT ??$_Pop_heap@PAUCallBuff@@VCallBuffSort@@@std@@YAXPAUCallBuff@@0VCallBuffSort@@@Z
_TEXT	SEGMENT
__First$ = 8						; size = 4
__Last$ = 12						; size = 4
__Pred$ = 16						; size = 1
??$_Pop_heap@PAUCallBuff@@VCallBuffSort@@@std@@YAXPAUCallBuff@@0VCallBuffSort@@@Z PROC ; std::_Pop_heap<CallBuff *,CallBuffSort>, COMDAT

; 2610 : 	{	// pop *_First to *(_Last - 1) and reheap, using _Pred

  00000	55		 push	 ebp
  00001	8b ec		 mov	 ebp, esp

; 2611 : 	_Pop_heap_0(_Unchecked(_First), _Unchecked(_Last), _Pred,
; 2612 : 		_Val_type(_First));

  00003	6a 00		 push	 0
  00005	ff 75 10	 push	 DWORD PTR __Pred$[ebp]
  00008	ff 75 0c	 push	 DWORD PTR __Last$[ebp]
  0000b	ff 75 08	 push	 DWORD PTR __First$[ebp]
  0000e	e8 00 00 00 00	 call	 ??$_Pop_heap_0@PAUCallBuff@@U1@VCallBuffSort@@@std@@YAXPAUCallBuff@@0VCallBuffSort@@0@Z ; std::_Pop_heap_0<CallBuff *,CallBuff,CallBuffSort>
  00013	83 c4 10	 add	 esp, 16			; 00000010H

; 2613 : 	}

  00016	5d		 pop	 ebp
  00017	c3		 ret	 0
??$_Pop_heap@PAUCallBuff@@VCallBuffSort@@@std@@YAXPAUCallBuff@@0VCallBuffSort@@@Z ENDP ; std::_Pop_heap<CallBuff *,CallBuffSort>
_TEXT	ENDS
PUBLIC	??$_Destroy_range@V?$allocator@VioHashString@@@std@@@std@@YAXPAVioHashString@@0AAV?$allocator@VioHashString@@@0@U_Nonscalar_ptr_iterator_tag@0@@Z ; std::_Destroy_range<std::allocator<ioHashString> >
; Function compile flags: /Ogsp
; File c:\program files (x86)\microsoft visual studio 10.0\vc\include\xmemory
;	COMDAT ??$_Destroy_range@V?$allocator@VioHashString@@@std@@@std@@YAXPAVioHashString@@0AAV?$allocator@VioHashString@@@0@U_Nonscalar_ptr_iterator_tag@0@@Z
_TEXT	SEGMENT
__First$ = 8						; size = 4
__Last$ = 12						; size = 4
__Al$ = 16						; size = 4
___formal$ = 20						; size = 1
??$_Destroy_range@V?$allocator@VioHashString@@@std@@@std@@YAXPAVioHashString@@0AAV?$allocator@VioHashString@@@0@U_Nonscalar_ptr_iterator_tag@0@@Z PROC ; std::_Destroy_range<std::allocator<ioHashString> >, COMDAT

; 95   : 	{	// destroy [_First, _Last), arbitrary type

  00000	55		 push	 ebp
  00001	8b ec		 mov	 ebp, esp
  00003	56		 push	 esi

; 96   : 	for (; _First != _Last; ++_First)

  00004	8b 75 08	 mov	 esi, DWORD PTR __First$[ebp]
  00007	eb 0b		 jmp	 SHORT $LN17@Destroy_ra@2
$LL3@Destroy_ra@2:

; 97   : 		_Dest_val(_Al, _First);

  00009	8b ce		 mov	 ecx, esi
  0000b	ff 15 00 00 00
	00		 call	 DWORD PTR __imp_??1ioHashString@@QAE@XZ
  00011	83 c6 10	 add	 esi, 16			; 00000010H
$LN17@Destroy_ra@2:

; 96   : 	for (; _First != _Last; ++_First)

  00014	3b 75 0c	 cmp	 esi, DWORD PTR __Last$[ebp]
  00017	75 f0		 jne	 SHORT $LL3@Destroy_ra@2
  00019	5e		 pop	 esi

; 98   : 	}

  0001a	5d		 pop	 ebp
  0001b	c3		 ret	 0
??$_Destroy_range@V?$allocator@VioHashString@@@std@@@std@@YAXPAVioHashString@@0AAV?$allocator@VioHashString@@@0@U_Nonscalar_ptr_iterator_tag@0@@Z ENDP ; std::_Destroy_range<std::allocator<ioHashString> >
_TEXT	ENDS
PUBLIC	??$_Uninit_copy@V?$_Vector_const_iterator@V?$_Vector_val@VioHashString@@V?$allocator@VioHashString@@@std@@@std@@@std@@PAVioHashString@@V?$allocator@VioHashString@@@2@@std@@YAPAVioHashString@@V?$_Vector_const_iterator@V?$_Vector_val@VioHashString@@V?$allocator@VioHashString@@@std@@@std@@@0@0PAV1@AAV?$allocator@VioHashString@@@0@U_Nonscalar_ptr_iterator_tag@0@@Z ; std::_Uninit_copy<std::_Vector_const_iterator<std::_Vector_val<ioHashString,std::allocator<ioHashString> > >,ioHashString *,std::allocator<ioHashString> >
;	COMDAT xdata$x
; File c:\program files (x86)\microsoft visual studio 10.0\vc\include\vector
xdata$x	SEGMENT
__catchsym$??$_Uninit_copy@V?$_Vector_const_iterator@V?$_Vector_val@VioHashString@@V?$allocator@VioHashString@@@std@@@std@@@std@@PAVioHashString@@V?$allocator@VioHashString@@@2@@std@@YAPAVioHashString@@V?$_Vector_const_iterator@V?$_Vector_val@VioHashString@@V?$allocator@VioHashString@@@std@@@std@@@0@0PAV1@AAV?$allocator@VioHashString@@@0@U_Nonscalar_ptr_iterator_tag@0@@Z$2 DD 040H
	DD	00H
	DD	00H
	DD	FLAT:__catch$??$_Uninit_copy@V?$_Vector_const_iterator@V?$_Vector_val@VioHashString@@V?$allocator@VioHashString@@@std@@@std@@@std@@PAVioHashString@@V?$allocator@VioHashString@@@2@@std@@YAPAVioHashString@@V?$_Vector_const_iterator@V?$_Vector_val@VioHashString@@V?$allocator@VioHashString@@@std@@@std@@@0@0PAV1@AAV?$allocator@VioHashString@@@0@U_Nonscalar_ptr_iterator_tag@0@@Z$0
__unwindtable$??$_Uninit_copy@V?$_Vector_const_iterator@V?$_Vector_val@VioHashString@@V?$allocator@VioHashString@@@std@@@std@@@std@@PAVioHashString@@V?$allocator@VioHashString@@@2@@std@@YAPAVioHashString@@V?$_Vector_const_iterator@V?$_Vector_val@VioHashString@@V?$allocator@VioHashString@@@std@@@std@@@0@0PAV1@AAV?$allocator@VioHashString@@@0@U_Nonscalar_ptr_iterator_tag@0@@Z DD 0ffffffffH
	DD	00H
	DD	0ffffffffH
	DD	00H
__tryblocktable$??$_Uninit_copy@V?$_Vector_const_iterator@V?$_Vector_val@VioHashString@@V?$allocator@VioHashString@@@std@@@std@@@std@@PAVioHashString@@V?$allocator@VioHashString@@@2@@std@@YAPAVioHashString@@V?$_Vector_const_iterator@V?$_Vector_val@VioHashString@@V?$allocator@VioHashString@@@std@@@std@@@0@0PAV1@AAV?$allocator@VioHashString@@@0@U_Nonscalar_ptr_iterator_tag@0@@Z DD 00H
	DD	00H
	DD	01H
	DD	01H
	DD	FLAT:__catchsym$??$_Uninit_copy@V?$_Vector_const_iterator@V?$_Vector_val@VioHashString@@V?$allocator@VioHashString@@@std@@@std@@@std@@PAVioHashString@@V?$allocator@VioHashString@@@2@@std@@YAPAVioHashString@@V?$_Vector_const_iterator@V?$_Vector_val@VioHashString@@V?$allocator@VioHashString@@@std@@@std@@@0@0PAV1@AAV?$allocator@VioHashString@@@0@U_Nonscalar_ptr_iterator_tag@0@@Z$2
__ehfuncinfo$??$_Uninit_copy@V?$_Vector_const_iterator@V?$_Vector_val@VioHashString@@V?$allocator@VioHashString@@@std@@@std@@@std@@PAVioHashString@@V?$allocator@VioHashString@@@2@@std@@YAPAVioHashString@@V?$_Vector_const_iterator@V?$_Vector_val@VioHashString@@V?$allocator@VioHashString@@@std@@@std@@@0@0PAV1@AAV?$allocator@VioHashString@@@0@U_Nonscalar_ptr_iterator_tag@0@@Z DD 019930522H
	DD	02H
	DD	FLAT:__unwindtable$??$_Uninit_copy@V?$_Vector_const_iterator@V?$_Vector_val@VioHashString@@V?$allocator@VioHashString@@@std@@@std@@@std@@PAVioHashString@@V?$allocator@VioHashString@@@2@@std@@YAPAVioHashString@@V?$_Vector_const_iterator@V?$_Vector_val@VioHashString@@V?$allocator@VioHashString@@@std@@@std@@@0@0PAV1@AAV?$allocator@VioHashString@@@0@U_Nonscalar_ptr_iterator_tag@0@@Z
	DD	01H
	DD	FLAT:__tryblocktable$??$_Uninit_copy@V?$_Vector_const_iterator@V?$_Vector_val@VioHashString@@V?$allocator@VioHashString@@@std@@@std@@@std@@PAVioHashString@@V?$allocator@VioHashString@@@2@@std@@YAPAVioHashString@@V?$_Vector_const_iterator@V?$_Vector_val@VioHashString@@V?$allocator@VioHashString@@@std@@@std@@@0@0PAV1@AAV?$allocator@VioHashString@@@0@U_Nonscalar_ptr_iterator_tag@0@@Z
	DD	2 DUP(00H)
	DD	00H
	DD	01H
; Function compile flags: /Ogsp
; File c:\program files (x86)\microsoft visual studio 10.0\vc\include\memory
xdata$x	ENDS
;	COMDAT ??$_Uninit_copy@V?$_Vector_const_iterator@V?$_Vector_val@VioHashString@@V?$allocator@VioHashString@@@std@@@std@@@std@@PAVioHashString@@V?$allocator@VioHashString@@@2@@std@@YAPAVioHashString@@V?$_Vector_const_iterator@V?$_Vector_val@VioHashString@@V?$allocator@VioHashString@@@std@@@std@@@0@0PAV1@AAV?$allocator@VioHashString@@@0@U_Nonscalar_ptr_iterator_tag@0@@Z
_TEXT	SEGMENT
__Next$ = -20						; size = 4
__$EHRec$ = -16						; size = 16
__First$ = 8						; size = 4
__Last$ = 12						; size = 4
__Dest$ = 16						; size = 4
__Al$ = 20						; size = 4
___formal$ = 24						; size = 1
??$_Uninit_copy@V?$_Vector_const_iterator@V?$_Vector_val@VioHashString@@V?$allocator@VioHashString@@@std@@@std@@@std@@PAVioHashString@@V?$allocator@VioHashString@@@2@@std@@YAPAVioHashString@@V?$_Vector_const_iterator@V?$_Vector_val@VioHashString@@V?$allocator@VioHashString@@@std@@@std@@@0@0PAV1@AAV?$allocator@VioHashString@@@0@U_Nonscalar_ptr_iterator_tag@0@@Z PROC ; std::_Uninit_copy<std::_Vector_const_iterator<std::_Vector_val<ioHashString,std::allocator<ioHashString> > >,ioHashString *,std::allocator<ioHashString> >, COMDAT

; 369  : 	{	// copy [_First, _Last) to raw _Dest, using _Al, arbitrary type

  00000	6a 08		 push	 8
  00002	b8 00 00 00 00	 mov	 eax, __ehhandler$??$_Uninit_copy@V?$_Vector_const_iterator@V?$_Vector_val@VioHashString@@V?$allocator@VioHashString@@@std@@@std@@@std@@PAVioHashString@@V?$allocator@VioHashString@@@2@@std@@YAPAVioHashString@@V?$_Vector_const_iterator@V?$_Vector_val@VioHashString@@V?$allocator@VioHashString@@@std@@@std@@@0@0PAV1@AAV?$allocator@VioHashString@@@0@U_Nonscalar_ptr_iterator_tag@0@@Z
  00007	e8 00 00 00 00	 call	 __EH_prolog3_catch

; 370  : 	_DEBUG_RANGE(_First, _Last);
; 371  : 	_DEBUG_POINTER(_Dest);
; 372  : 	_FwdIt _Next = _Dest;

  0000c	8b 45 10	 mov	 eax, DWORD PTR __Dest$[ebp]

; 373  : 
; 374  : 	_TRY_BEGIN

  0000f	83 65 fc 00	 and	 DWORD PTR __$EHRec$[ebp+12], 0
  00013	89 45 ec	 mov	 DWORD PTR __Next$[ebp], eax

; 375  : 	for (; _First != _Last; ++_Dest, ++_First)

$LL14@Uninit_cop@2:
  00016	8b 45 08	 mov	 eax, DWORD PTR __First$[ebp]
  00019	3b 45 0c	 cmp	 eax, DWORD PTR __Last$[ebp]
  0001c	74 33		 je	 SHORT $LN4@Uninit_cop@2

; 376  : 		_Cons_val(_Al, _Dest, *_First);

  0001e	50		 push	 eax
  0001f	ff 75 10	 push	 DWORD PTR __Dest$[ebp]
  00022	e8 00 00 00 00	 call	 ??$_Construct@VioHashString@@ABV1@@std@@YAXPAVioHashString@@ABV1@@Z ; std::_Construct<ioHashString,ioHashString const &>
  00027	83 45 10 10	 add	 DWORD PTR __Dest$[ebp], 16 ; 00000010H
  0002b	83 45 08 10	 add	 DWORD PTR __First$[ebp], 16 ; 00000010H
  0002f	59		 pop	 ecx
  00030	59		 pop	 ecx
  00031	eb e3		 jmp	 SHORT $LL14@Uninit_cop@2
__catch$??$_Uninit_copy@V?$_Vector_const_iterator@V?$_Vector_val@VioHashString@@V?$allocator@VioHashString@@@std@@@std@@@std@@PAVioHashString@@V?$allocator@VioHashString@@@2@@std@@YAPAVioHashString@@V?$_Vector_const_iterator@V?$_Vector_val@VioHashString@@V?$allocator@VioHashString@@@std@@@std@@@0@0PAV1@AAV?$allocator@VioHashString@@@0@U_Nonscalar_ptr_iterator_tag@0@@Z$0:

; 377  : 	_CATCH_ALL
; 378  : 	for (; _Next != _Dest; ++_Next)

  00033	8b 75 ec	 mov	 esi, DWORD PTR __Next$[ebp]
  00036	eb 0b		 jmp	 SHORT $LN45@Uninit_cop@2
$LL3@Uninit_cop@2:

; 379  : 		_Dest_val(_Al, _Next);

  00038	8b ce		 mov	 ecx, esi
  0003a	ff 15 00 00 00
	00		 call	 DWORD PTR __imp_??1ioHashString@@QAE@XZ
  00040	83 c6 10	 add	 esi, 16			; 00000010H
$LN45@Uninit_cop@2:

; 377  : 	_CATCH_ALL
; 378  : 	for (; _Next != _Dest; ++_Next)

  00043	3b 75 10	 cmp	 esi, DWORD PTR __Dest$[ebp]
  00046	75 f0		 jne	 SHORT $LL3@Uninit_cop@2

; 380  : 	_RERAISE;

  00048	6a 00		 push	 0
  0004a	6a 00		 push	 0
  0004c	e8 00 00 00 00	 call	 __CxxThrowException@8
$LN46@Uninit_cop@2:
$LN4@Uninit_cop@2:

; 381  : 	_CATCH_END
; 382  : 	return (_Dest);

  00051	8b 45 10	 mov	 eax, DWORD PTR __Dest$[ebp]

; 383  : 	}

  00054	e8 00 00 00 00	 call	 __EH_epilog3
  00059	c3		 ret	 0
$LN44@Uninit_cop@2:
_TEXT	ENDS
;	COMDAT text$x
text$x	SEGMENT
__ehhandler$??$_Uninit_copy@V?$_Vector_const_iterator@V?$_Vector_val@VioHashString@@V?$allocator@VioHashString@@@std@@@std@@@std@@PAVioHashString@@V?$allocator@VioHashString@@@2@@std@@YAPAVioHashString@@V?$_Vector_const_iterator@V?$_Vector_val@VioHashString@@V?$allocator@VioHashString@@@std@@@std@@@0@0PAV1@AAV?$allocator@VioHashString@@@0@U_Nonscalar_ptr_iterator_tag@0@@Z:
  00000	8b 54 24 08	 mov	 edx, DWORD PTR [esp+8]
  00004	8d 42 0c	 lea	 eax, DWORD PTR [edx+12]
  00007	8b 4a e8	 mov	 ecx, DWORD PTR [edx-24]
  0000a	33 c8		 xor	 ecx, eax
  0000c	e8 00 00 00 00	 call	 @__security_check_cookie@4
  00011	b8 00 00 00 00	 mov	 eax, OFFSET __ehfuncinfo$??$_Uninit_copy@V?$_Vector_const_iterator@V?$_Vector_val@VioHashString@@V?$allocator@VioHashString@@@std@@@std@@@std@@PAVioHashString@@V?$allocator@VioHashString@@@2@@std@@YAPAVioHashString@@V?$_Vector_const_iterator@V?$_Vector_val@VioHashString@@V?$allocator@VioHashString@@@std@@@std@@@0@0PAV1@AAV?$allocator@VioHashString@@@0@U_Nonscalar_ptr_iterator_tag@0@@Z
  00016	e9 00 00 00 00	 jmp	 ___CxxFrameHandler3
text$x	ENDS
??$_Uninit_copy@V?$_Vector_const_iterator@V?$_Vector_val@VioHashString@@V?$allocator@VioHashString@@@std@@@std@@@std@@PAVioHashString@@V?$allocator@VioHashString@@@2@@std@@YAPAVioHashString@@V?$_Vector_const_iterator@V?$_Vector_val@VioHashString@@V?$allocator@VioHashString@@@std@@@std@@@0@0PAV1@AAV?$allocator@VioHashString@@@0@U_Nonscalar_ptr_iterator_tag@0@@Z ENDP ; std::_Uninit_copy<std::_Vector_const_iterator<std::_Vector_val<ioHashString,std::allocator<ioHashString> > >,ioHashString *,std::allocator<ioHashString> >
PUBLIC	?push_back@?$vector@PAVioBaseChar@@V?$allocator@PAVioBaseChar@@@std@@@std@@QAEXABQAVioBaseChar@@@Z ; std::vector<ioBaseChar *,std::allocator<ioBaseChar *> >::push_back
; Function compile flags: /Ogsp
; File c:\program files (x86)\microsoft visual studio 10.0\vc\include\vector
;	COMDAT ?push_back@?$vector@PAVioBaseChar@@V?$allocator@PAVioBaseChar@@@std@@@std@@QAEXABQAVioBaseChar@@@Z
_TEXT	SEGMENT
__Val$ = 8						; size = 4
?push_back@?$vector@PAVioBaseChar@@V?$allocator@PAVioBaseChar@@@std@@@std@@QAEXABQAVioBaseChar@@@Z PROC ; std::vector<ioBaseChar *,std::allocator<ioBaseChar *> >::push_back, COMDAT
; _this$ = ecx

; 976  : 		{	// insert element at end

  00000	55		 push	 ebp
  00001	8b ec		 mov	 ebp, esp
  00003	56		 push	 esi
  00004	8b f1		 mov	 esi, ecx

; 977  : 		if (_Inside(_STD addressof(_Val)))

  00006	8b 46 04	 mov	 eax, DWORD PTR [esi+4]
  00009	57		 push	 edi
  0000a	8b 7d 08	 mov	 edi, DWORD PTR __Val$[ebp]
  0000d	3b f8		 cmp	 edi, eax
  0000f	73 27		 jae	 SHORT $LN4@push_back
  00011	8b 0e		 mov	 ecx, DWORD PTR [esi]
  00013	3b cf		 cmp	 ecx, edi
  00015	77 21		 ja	 SHORT $LN4@push_back

; 978  : 			{	// push back an element
; 979  : 			size_type _Idx = _STD addressof(_Val) - this->_Myfirst;

  00017	2b f9		 sub	 edi, ecx
  00019	c1 ff 02	 sar	 edi, 2

; 980  : 			if (this->_Mylast == this->_Myend)

  0001c	3b 46 08	 cmp	 eax, DWORD PTR [esi+8]
  0001f	75 09		 jne	 SHORT $LN3@push_back

; 981  : 				_Reserve(1);

  00021	6a 01		 push	 1
  00023	8b ce		 mov	 ecx, esi
  00025	e8 00 00 00 00	 call	 ?_Reserve@?$vector@PAVioBaseChar@@V?$allocator@PAVioBaseChar@@@std@@@std@@IAEXI@Z ; std::vector<ioBaseChar *,std::allocator<ioBaseChar *> >::_Reserve
$LN3@push_back:

; 982  : 			_Orphan_range(this->_Mylast, this->_Mylast);
; 983  : 			_Cons_val(this->_Alval,
; 984  : 				this->_Mylast,
; 985  : 				this->_Myfirst[_Idx]);

  0002a	8b 46 04	 mov	 eax, DWORD PTR [esi+4]
  0002d	85 c0		 test	 eax, eax
  0002f	74 20		 je	 SHORT $LN39@push_back
  00031	8b 0e		 mov	 ecx, DWORD PTR [esi]
  00033	8b 0c b9	 mov	 ecx, DWORD PTR [ecx+edi*4]

; 986  : 			++this->_Mylast;
; 987  : 			}
; 988  : 		else

  00036	eb 17		 jmp	 SHORT $LN46@push_back
$LN4@push_back:

; 989  : 			{	// push back a non-element
; 990  : 			if (this->_Mylast == this->_Myend)

  00038	3b 46 08	 cmp	 eax, DWORD PTR [esi+8]
  0003b	75 09		 jne	 SHORT $LN1@push_back

; 991  : 				_Reserve(1);

  0003d	6a 01		 push	 1
  0003f	8b ce		 mov	 ecx, esi
  00041	e8 00 00 00 00	 call	 ?_Reserve@?$vector@PAVioBaseChar@@V?$allocator@PAVioBaseChar@@@std@@@std@@IAEXI@Z ; std::vector<ioBaseChar *,std::allocator<ioBaseChar *> >::_Reserve
$LN1@push_back:

; 992  : 			_Orphan_range(this->_Mylast, this->_Mylast);
; 993  : 			_Cons_val(this->_Alval,
; 994  : 				this->_Mylast,
; 995  : 				_Val);

  00046	8b 46 04	 mov	 eax, DWORD PTR [esi+4]
  00049	85 c0		 test	 eax, eax
  0004b	74 04		 je	 SHORT $LN39@push_back
  0004d	8b 0f		 mov	 ecx, DWORD PTR [edi]
$LN46@push_back:
  0004f	89 08		 mov	 DWORD PTR [eax], ecx
$LN39@push_back:

; 996  : 			++this->_Mylast;

  00051	83 46 04 04	 add	 DWORD PTR [esi+4], 4
  00055	5f		 pop	 edi
  00056	5e		 pop	 esi

; 997  : 			}
; 998  : 		}

  00057	5d		 pop	 ebp
  00058	c2 04 00	 ret	 4
?push_back@?$vector@PAVioBaseChar@@V?$allocator@PAVioBaseChar@@@std@@@std@@QAEXABQAVioBaseChar@@@Z ENDP ; std::vector<ioBaseChar *,std::allocator<ioBaseChar *> >::push_back
_TEXT	ENDS
PUBLIC	??$_Destroy_range@V?$allocator@UCallBuff@@@std@@@std@@YAXPAUCallBuff@@0AAV?$allocator@UCallBuff@@@0@@Z ; std::_Destroy_range<std::allocator<CallBuff> >
; Function compile flags: /Ogsp
; File c:\program files (x86)\microsoft visual studio 10.0\vc\include\xmemory
;	COMDAT ??$_Destroy_range@V?$allocator@UCallBuff@@@std@@@std@@YAXPAUCallBuff@@0AAV?$allocator@UCallBuff@@@0@@Z
_TEXT	SEGMENT
__First$ = 8						; size = 4
__Last$ = 12						; size = 4
__Al$ = 16						; size = 4
??$_Destroy_range@V?$allocator@UCallBuff@@@std@@@std@@YAXPAUCallBuff@@0AAV?$allocator@UCallBuff@@@0@@Z PROC ; std::_Destroy_range<std::allocator<CallBuff> >, COMDAT

; 87   : 	{	// destroy [_First, _Last)

  00000	55		 push	 ebp
  00001	8b ec		 mov	 ebp, esp
  00003	56		 push	 esi

; 88   : 	_Destroy_range(_First, _Last, _Al, _Ptr_cat(_First, _Last));

  00004	8b 75 08	 mov	 esi, DWORD PTR __First$[ebp]
  00007	eb 0b		 jmp	 SHORT $LN24@Destroy_ra@3
$LL7@Destroy_ra@3:
  00009	8b ce		 mov	 ecx, esi
  0000b	ff 15 00 00 00
	00		 call	 DWORD PTR __imp_??1ioHashString@@QAE@XZ
  00011	83 c6 14	 add	 esi, 20			; 00000014H
$LN24@Destroy_ra@3:
  00014	3b 75 0c	 cmp	 esi, DWORD PTR __Last$[ebp]
  00017	75 f0		 jne	 SHORT $LL7@Destroy_ra@3
  00019	5e		 pop	 esi

; 89   : 	}

  0001a	5d		 pop	 ebp
  0001b	c3		 ret	 0
??$_Destroy_range@V?$allocator@UCallBuff@@@std@@@std@@YAXPAUCallBuff@@0AAV?$allocator@UCallBuff@@@0@@Z ENDP ; std::_Destroy_range<std::allocator<CallBuff> >
_TEXT	ENDS
PUBLIC	??$_Uninitialized_move@PAVioHashString@@PAV1@V?$allocator@VioHashString@@@std@@@std@@YAPAVioHashString@@PAV1@00AAV?$allocator@VioHashString@@@0@@Z ; std::_Uninitialized_move<ioHashString *,ioHashString *,std::allocator<ioHashString> >
; Function compile flags: /Ogsp
; File c:\program files (x86)\microsoft visual studio 10.0\vc\include\memory
;	COMDAT ??$_Uninitialized_move@PAVioHashString@@PAV1@V?$allocator@VioHashString@@@std@@@std@@YAPAVioHashString@@PAV1@00AAV?$allocator@VioHashString@@@0@@Z
_TEXT	SEGMENT
__Cat$537872 = -4					; size = 1
__First$ = 8						; size = 4
__Last$ = 12						; size = 4
__Dest$ = 16						; size = 4
__Al$ = 20						; size = 4
??$_Uninitialized_move@PAVioHashString@@PAV1@V?$allocator@VioHashString@@@std@@@std@@YAPAVioHashString@@PAV1@00AAV?$allocator@VioHashString@@@0@@Z PROC ; std::_Uninitialized_move<ioHashString *,ioHashString *,std::allocator<ioHashString> >, COMDAT

; 469  : 	{	// move [_First, _Last) to raw _Dest, using _Al

  00000	55		 push	 ebp
  00001	8b ec		 mov	 ebp, esp
  00003	51		 push	 ecx

; 470  : 	return (_Uninit_move(_First, _Last, _Dest, _Al,
; 471  : 		_Val_type(_First), _Ptr_cat(_First, _Dest)));

  00004	ff 75 fc	 push	 DWORD PTR __Cat$537872[ebp]
  00007	6a 00		 push	 0
  00009	ff 75 14	 push	 DWORD PTR __Al$[ebp]
  0000c	ff 75 10	 push	 DWORD PTR __Dest$[ebp]
  0000f	ff 75 0c	 push	 DWORD PTR __Last$[ebp]
  00012	ff 75 08	 push	 DWORD PTR __First$[ebp]
  00015	e8 00 00 00 00	 call	 ??$_Uninit_move@PAVioHashString@@PAV1@V?$allocator@VioHashString@@@std@@V1@@std@@YAPAVioHashString@@PAV1@00AAV?$allocator@VioHashString@@@0@0U_Nonscalar_ptr_iterator_tag@0@@Z ; std::_Uninit_move<ioHashString *,ioHashString *,std::allocator<ioHashString>,ioHashString>
  0001a	83 c4 18	 add	 esp, 24			; 00000018H

; 472  : 	}

  0001d	c9		 leave
  0001e	c3		 ret	 0
??$_Uninitialized_move@PAVioHashString@@PAV1@V?$allocator@VioHashString@@@std@@@std@@YAPAVioHashString@@PAV1@00AAV?$allocator@VioHashString@@@0@@Z ENDP ; std::_Uninitialized_move<ioHashString *,ioHashString *,std::allocator<ioHashString> >
_TEXT	ENDS
PUBLIC	??$_Uninitialized_copy@V?$_Vector_const_iterator@V?$_Vector_val@UCallBuff@@V?$allocator@UCallBuff@@@std@@@std@@@std@@PAUCallBuff@@V?$allocator@UCallBuff@@@2@@std@@YAPAUCallBuff@@V?$_Vector_const_iterator@V?$_Vector_val@UCallBuff@@V?$allocator@UCallBuff@@@std@@@std@@@0@0PAU1@AAV?$allocator@UCallBuff@@@0@@Z ; std::_Uninitialized_copy<std::_Vector_const_iterator<std::_Vector_val<CallBuff,std::allocator<CallBuff> > >,CallBuff *,std::allocator<CallBuff> >
; Function compile flags: /Ogsp
;	COMDAT ??$_Uninitialized_copy@V?$_Vector_const_iterator@V?$_Vector_val@UCallBuff@@V?$allocator@UCallBuff@@@std@@@std@@@std@@PAUCallBuff@@V?$allocator@UCallBuff@@@2@@std@@YAPAUCallBuff@@V?$_Vector_const_iterator@V?$_Vector_val@UCallBuff@@V?$allocator@UCallBuff@@@std@@@std@@@0@0PAU1@AAV?$allocator@UCallBuff@@@0@@Z
_TEXT	SEGMENT
__Cat$537882 = -4					; size = 1
__First$ = 8						; size = 4
__Last$ = 12						; size = 4
__Dest$ = 16						; size = 4
__Al$ = 20						; size = 4
??$_Uninitialized_copy@V?$_Vector_const_iterator@V?$_Vector_val@UCallBuff@@V?$allocator@UCallBuff@@@std@@@std@@@std@@PAUCallBuff@@V?$allocator@UCallBuff@@@2@@std@@YAPAUCallBuff@@V?$_Vector_const_iterator@V?$_Vector_val@UCallBuff@@V?$allocator@UCallBuff@@@std@@@std@@@0@0PAU1@AAV?$allocator@UCallBuff@@@0@@Z PROC ; std::_Uninitialized_copy<std::_Vector_const_iterator<std::_Vector_val<CallBuff,std::allocator<CallBuff> > >,CallBuff *,std::allocator<CallBuff> >, COMDAT

; 412  : 	{	// copy [_First, _Last) to raw _Dest, using _Al

  00000	55		 push	 ebp
  00001	8b ec		 mov	 ebp, esp
  00003	51		 push	 ecx

; 413  : 	return (_Uninit_copy(_First, _Last, _Dest, _Al,
; 414  : 		_Ptr_cat(_First, _Dest)));

  00004	ff 75 fc	 push	 DWORD PTR __Cat$537882[ebp]
  00007	ff 75 14	 push	 DWORD PTR __Al$[ebp]
  0000a	ff 75 10	 push	 DWORD PTR __Dest$[ebp]
  0000d	ff 75 0c	 push	 DWORD PTR __Last$[ebp]
  00010	ff 75 08	 push	 DWORD PTR __First$[ebp]
  00013	e8 00 00 00 00	 call	 ??$_Uninit_copy@V?$_Vector_const_iterator@V?$_Vector_val@UCallBuff@@V?$allocator@UCallBuff@@@std@@@std@@@std@@PAUCallBuff@@V?$allocator@UCallBuff@@@2@@std@@YAPAUCallBuff@@V?$_Vector_const_iterator@V?$_Vector_val@UCallBuff@@V?$allocator@UCallBuff@@@std@@@std@@@0@0PAU1@AAV?$allocator@UCallBuff@@@0@U_Nonscalar_ptr_iterator_tag@0@@Z ; std::_Uninit_copy<std::_Vector_const_iterator<std::_Vector_val<CallBuff,std::allocator<CallBuff> > >,CallBuff *,std::allocator<CallBuff> >
  00018	83 c4 14	 add	 esp, 20			; 00000014H

; 415  : 	}

  0001b	c9		 leave
  0001c	c3		 ret	 0
??$_Uninitialized_copy@V?$_Vector_const_iterator@V?$_Vector_val@UCallBuff@@V?$allocator@UCallBuff@@@std@@@std@@@std@@PAUCallBuff@@V?$allocator@UCallBuff@@@2@@std@@YAPAUCallBuff@@V?$_Vector_const_iterator@V?$_Vector_val@UCallBuff@@V?$allocator@UCallBuff@@@std@@@std@@@0@0PAU1@AAV?$allocator@UCallBuff@@@0@@Z ENDP ; std::_Uninitialized_copy<std::_Vector_const_iterator<std::_Vector_val<CallBuff,std::allocator<CallBuff> > >,CallBuff *,std::allocator<CallBuff> >
_TEXT	ENDS
PUBLIC	??$_Uninitialized_move@PAUCallBuff@@PAU1@V?$allocator@UCallBuff@@@std@@@std@@YAPAUCallBuff@@PAU1@00AAV?$allocator@UCallBuff@@@0@@Z ; std::_Uninitialized_move<CallBuff *,CallBuff *,std::allocator<CallBuff> >
; Function compile flags: /Ogsp
;	COMDAT ??$_Uninitialized_move@PAUCallBuff@@PAU1@V?$allocator@UCallBuff@@@std@@@std@@YAPAUCallBuff@@PAU1@00AAV?$allocator@UCallBuff@@@0@@Z
_TEXT	SEGMENT
__Cat$537888 = -4					; size = 1
__First$ = 8						; size = 4
__Last$ = 12						; size = 4
__Dest$ = 16						; size = 4
__Al$ = 20						; size = 4
??$_Uninitialized_move@PAUCallBuff@@PAU1@V?$allocator@UCallBuff@@@std@@@std@@YAPAUCallBuff@@PAU1@00AAV?$allocator@UCallBuff@@@0@@Z PROC ; std::_Uninitialized_move<CallBuff *,CallBuff *,std::allocator<CallBuff> >, COMDAT

; 469  : 	{	// move [_First, _Last) to raw _Dest, using _Al

  00000	55		 push	 ebp
  00001	8b ec		 mov	 ebp, esp
  00003	51		 push	 ecx

; 470  : 	return (_Uninit_move(_First, _Last, _Dest, _Al,
; 471  : 		_Val_type(_First), _Ptr_cat(_First, _Dest)));

  00004	ff 75 fc	 push	 DWORD PTR __Cat$537888[ebp]
  00007	6a 00		 push	 0
  00009	ff 75 14	 push	 DWORD PTR __Al$[ebp]
  0000c	ff 75 10	 push	 DWORD PTR __Dest$[ebp]
  0000f	ff 75 0c	 push	 DWORD PTR __Last$[ebp]
  00012	ff 75 08	 push	 DWORD PTR __First$[ebp]
  00015	e8 00 00 00 00	 call	 ??$_Uninit_move@PAUCallBuff@@PAU1@V?$allocator@UCallBuff@@@std@@U1@@std@@YAPAUCallBuff@@PAU1@00AAV?$allocator@UCallBuff@@@0@0U_Nonscalar_ptr_iterator_tag@0@@Z ; std::_Uninit_move<CallBuff *,CallBuff *,std::allocator<CallBuff>,CallBuff>
  0001a	83 c4 18	 add	 esp, 24			; 00000018H

; 472  : 	}

  0001d	c9		 leave
  0001e	c3		 ret	 0
??$_Uninitialized_move@PAUCallBuff@@PAU1@V?$allocator@UCallBuff@@@std@@@std@@YAPAUCallBuff@@PAU1@00AAV?$allocator@UCallBuff@@@0@@Z ENDP ; std::_Uninitialized_move<CallBuff *,CallBuff *,std::allocator<CallBuff> >
_TEXT	ENDS
PUBLIC	??$_Sort_heap@PAUCallBuff@@VCallBuffSort@@@std@@YAXPAUCallBuff@@0VCallBuffSort@@@Z ; std::_Sort_heap<CallBuff *,CallBuffSort>
; Function compile flags: /Ogsp
; File c:\program files (x86)\microsoft visual studio 10.0\vc\include\algorithm
;	COMDAT ??$_Sort_heap@PAUCallBuff@@VCallBuffSort@@@std@@YAXPAUCallBuff@@0VCallBuffSort@@@Z
_TEXT	SEGMENT
__First$ = 8						; size = 4
__Last$ = 12						; size = 4
__Pred$ = 16						; size = 1
??$_Sort_heap@PAUCallBuff@@VCallBuffSort@@@std@@YAXPAUCallBuff@@0VCallBuffSort@@@Z PROC ; std::_Sort_heap<CallBuff *,CallBuffSort>, COMDAT

; 2700 : 	{	// order heap by repeatedly popping, using _Pred

  00000	55		 push	 ebp
  00001	8b ec		 mov	 ebp, esp

; 2701 : 	for (; 1 < _Last - _First; --_Last)

  00003	8b 4d 0c	 mov	 ecx, DWORD PTR __Last$[ebp]
  00006	2b 4d 08	 sub	 ecx, DWORD PTR __First$[ebp]
  00009	57		 push	 edi
  0000a	8b c1		 mov	 eax, ecx
  0000c	6a 14		 push	 20			; 00000014H
  0000e	99		 cdq
  0000f	5f		 pop	 edi
  00010	f7 ff		 idiv	 edi
  00012	83 f8 01	 cmp	 eax, 1
  00015	7e 29		 jle	 SHORT $LN1@Sort_heap
  00017	8b f9		 mov	 edi, ecx
$LL3@Sort_heap:

; 2702 : 		_Pop_heap(_First, _Last, _Pred);

  00019	6a 00		 push	 0
  0001b	ff 75 10	 push	 DWORD PTR __Pred$[ebp]
  0001e	ff 75 0c	 push	 DWORD PTR __Last$[ebp]
  00021	ff 75 08	 push	 DWORD PTR __First$[ebp]
  00024	e8 00 00 00 00	 call	 ??$_Pop_heap_0@PAUCallBuff@@U1@VCallBuffSort@@@std@@YAXPAUCallBuff@@0VCallBuffSort@@0@Z ; std::_Pop_heap_0<CallBuff *,CallBuff,CallBuffSort>
  00029	83 c4 10	 add	 esp, 16			; 00000010H
  0002c	83 ef 14	 sub	 edi, 20			; 00000014H
  0002f	8b c7		 mov	 eax, edi
  00031	6a 14		 push	 20			; 00000014H
  00033	99		 cdq
  00034	59		 pop	 ecx
  00035	f7 f9		 idiv	 ecx
  00037	83 6d 0c 14	 sub	 DWORD PTR __Last$[ebp], 20 ; 00000014H
  0003b	83 f8 01	 cmp	 eax, 1
  0003e	7f d9		 jg	 SHORT $LL3@Sort_heap
$LN1@Sort_heap:
  00040	5f		 pop	 edi

; 2703 : 	}

  00041	5d		 pop	 ebp
  00042	c3		 ret	 0
??$_Sort_heap@PAUCallBuff@@VCallBuffSort@@@std@@YAXPAUCallBuff@@0VCallBuffSort@@@Z ENDP ; std::_Sort_heap<CallBuff *,CallBuffSort>
_TEXT	ENDS
PUBLIC	??$_Destroy_range@V?$allocator@VioHashString@@@std@@@std@@YAXPAVioHashString@@0AAV?$allocator@VioHashString@@@0@@Z ; std::_Destroy_range<std::allocator<ioHashString> >
; Function compile flags: /Ogsp
; File c:\program files (x86)\microsoft visual studio 10.0\vc\include\xmemory
;	COMDAT ??$_Destroy_range@V?$allocator@VioHashString@@@std@@@std@@YAXPAVioHashString@@0AAV?$allocator@VioHashString@@@0@@Z
_TEXT	SEGMENT
__First$ = 8						; size = 4
__Last$ = 12						; size = 4
__Al$ = 16						; size = 4
??$_Destroy_range@V?$allocator@VioHashString@@@std@@@std@@YAXPAVioHashString@@0AAV?$allocator@VioHashString@@@0@@Z PROC ; std::_Destroy_range<std::allocator<ioHashString> >, COMDAT

; 87   : 	{	// destroy [_First, _Last)

  00000	55		 push	 ebp
  00001	8b ec		 mov	 ebp, esp
  00003	56		 push	 esi

; 88   : 	_Destroy_range(_First, _Last, _Al, _Ptr_cat(_First, _Last));

  00004	8b 75 08	 mov	 esi, DWORD PTR __First$[ebp]
  00007	eb 0b		 jmp	 SHORT $LN21@Destroy_ra@4
$LL7@Destroy_ra@4:
  00009	8b ce		 mov	 ecx, esi
  0000b	ff 15 00 00 00
	00		 call	 DWORD PTR __imp_??1ioHashString@@QAE@XZ
  00011	83 c6 10	 add	 esi, 16			; 00000010H
$LN21@Destroy_ra@4:
  00014	3b 75 0c	 cmp	 esi, DWORD PTR __Last$[ebp]
  00017	75 f0		 jne	 SHORT $LL7@Destroy_ra@4
  00019	5e		 pop	 esi

; 89   : 	}

  0001a	5d		 pop	 ebp
  0001b	c3		 ret	 0
??$_Destroy_range@V?$allocator@VioHashString@@@std@@@std@@YAXPAVioHashString@@0AAV?$allocator@VioHashString@@@0@@Z ENDP ; std::_Destroy_range<std::allocator<ioHashString> >
_TEXT	ENDS
PUBLIC	??$_Uninitialized_copy@V?$_Vector_const_iterator@V?$_Vector_val@VioHashString@@V?$allocator@VioHashString@@@std@@@std@@@std@@PAVioHashString@@V?$allocator@VioHashString@@@2@@std@@YAPAVioHashString@@V?$_Vector_const_iterator@V?$_Vector_val@VioHashString@@V?$allocator@VioHashString@@@std@@@std@@@0@0PAV1@AAV?$allocator@VioHashString@@@0@@Z ; std::_Uninitialized_copy<std::_Vector_const_iterator<std::_Vector_val<ioHashString,std::allocator<ioHashString> > >,ioHashString *,std::allocator<ioHashString> >
; Function compile flags: /Ogsp
; File c:\program files (x86)\microsoft visual studio 10.0\vc\include\memory
;	COMDAT ??$_Uninitialized_copy@V?$_Vector_const_iterator@V?$_Vector_val@VioHashString@@V?$allocator@VioHashString@@@std@@@std@@@std@@PAVioHashString@@V?$allocator@VioHashString@@@2@@std@@YAPAVioHashString@@V?$_Vector_const_iterator@V?$_Vector_val@VioHashString@@V?$allocator@VioHashString@@@std@@@std@@@0@0PAV1@AAV?$allocator@VioHashString@@@0@@Z
_TEXT	SEGMENT
__Cat$537974 = -4					; size = 1
__First$ = 8						; size = 4
__Last$ = 12						; size = 4
__Dest$ = 16						; size = 4
__Al$ = 20						; size = 4
??$_Uninitialized_copy@V?$_Vector_const_iterator@V?$_Vector_val@VioHashString@@V?$allocator@VioHashString@@@std@@@std@@@std@@PAVioHashString@@V?$allocator@VioHashString@@@2@@std@@YAPAVioHashString@@V?$_Vector_const_iterator@V?$_Vector_val@VioHashString@@V?$allocator@VioHashString@@@std@@@std@@@0@0PAV1@AAV?$allocator@VioHashString@@@0@@Z PROC ; std::_Uninitialized_copy<std::_Vector_const_iterator<std::_Vector_val<ioHashString,std::allocator<ioHashString> > >,ioHashString *,std::allocator<ioHashString> >, COMDAT

; 412  : 	{	// copy [_First, _Last) to raw _Dest, using _Al

  00000	55		 push	 ebp
  00001	8b ec		 mov	 ebp, esp
  00003	51		 push	 ecx

; 413  : 	return (_Uninit_copy(_First, _Last, _Dest, _Al,
; 414  : 		_Ptr_cat(_First, _Dest)));

  00004	ff 75 fc	 push	 DWORD PTR __Cat$537974[ebp]
  00007	ff 75 14	 push	 DWORD PTR __Al$[ebp]
  0000a	ff 75 10	 push	 DWORD PTR __Dest$[ebp]
  0000d	ff 75 0c	 push	 DWORD PTR __Last$[ebp]
  00010	ff 75 08	 push	 DWORD PTR __First$[ebp]
  00013	e8 00 00 00 00	 call	 ??$_Uninit_copy@V?$_Vector_const_iterator@V?$_Vector_val@VioHashString@@V?$allocator@VioHashString@@@std@@@std@@@std@@PAVioHashString@@V?$allocator@VioHashString@@@2@@std@@YAPAVioHashString@@V?$_Vector_const_iterator@V?$_Vector_val@VioHashString@@V?$allocator@VioHashString@@@std@@@std@@@0@0PAV1@AAV?$allocator@VioHashString@@@0@U_Nonscalar_ptr_iterator_tag@0@@Z ; std::_Uninit_copy<std::_Vector_const_iterator<std::_Vector_val<ioHashString,std::allocator<ioHashString> > >,ioHashString *,std::allocator<ioHashString> >
  00018	83 c4 14	 add	 esp, 20			; 00000014H

; 415  : 	}

  0001b	c9		 leave
  0001c	c3		 ret	 0
??$_Uninitialized_copy@V?$_Vector_const_iterator@V?$_Vector_val@VioHashString@@V?$allocator@VioHashString@@@std@@@std@@@std@@PAVioHashString@@V?$allocator@VioHashString@@@2@@std@@YAPAVioHashString@@V?$_Vector_const_iterator@V?$_Vector_val@VioHashString@@V?$allocator@VioHashString@@@std@@@std@@@0@0PAV1@AAV?$allocator@VioHashString@@@0@@Z ENDP ; std::_Uninitialized_copy<std::_Vector_const_iterator<std::_Vector_val<ioHashString,std::allocator<ioHashString> > >,ioHashString *,std::allocator<ioHashString> >
_TEXT	ENDS
PUBLIC	?CheckNonInfectionList@ioInfectionBuff@@IAEXPAVioBaseChar@@0PAVioPlayStage@@@Z ; ioInfectionBuff::CheckNonInfectionList
EXTRN	?HasBuff@ioBaseChar@@QBE_NABVioHashString@@@Z:PROC ; ioBaseChar::HasBuff
EXTRN	?HasBuff@ioBaseChar@@QBE_NH@Z:PROC		; ioBaseChar::HasBuff
EXTRN	?IsProtectState@ioBaseChar@@QAE_NXZ:PROC	; ioBaseChar::IsProtectState
EXTRN	?HasCollisionAvailableBuff@ioBaseChar@@QBE_NXZ:PROC ; ioBaseChar::HasCollisionAvailableBuff
EXTRN	?CheckTargetNoCollision@Help@@YA_NW4CharState@@@Z:PROC ; Help::CheckTargetNoCollision
EXTRN	?IsSkipState@ioBaseChar@@QBE?B_NXZ:PROC		; ioBaseChar::IsSkipState
EXTRN	?CheckGrapplingExceptionState@ioBaseChar@@QAE_NXZ:PROC ; ioBaseChar::CheckGrapplingExceptionState
;	COMDAT xdata$x
; File d:\lost saga for developer\youtube\tutorial\source\src\lsclient\encryptvalue.h
xdata$x	SEGMENT
__unwindtable$?CheckNonInfectionList@ioInfectionBuff@@IAEXPAVioBaseChar@@0PAVioPlayStage@@@Z DD 0ffffffffH
	DD	FLAT:__unwindfunclet$?CheckNonInfectionList@ioInfectionBuff@@IAEXPAVioBaseChar@@0PAVioPlayStage@@@Z$0
__ehfuncinfo$?CheckNonInfectionList@ioInfectionBuff@@IAEXPAVioBaseChar@@0PAVioPlayStage@@@Z DD 019930522H
	DD	01H
	DD	FLAT:__unwindtable$?CheckNonInfectionList@ioInfectionBuff@@IAEXPAVioBaseChar@@0PAVioPlayStage@@@Z
	DD	2 DUP(00H)
	DD	2 DUP(00H)
	DD	00H
	DD	01H
; Function compile flags: /Ogsp
; File d:\lost saga for developer\youtube\tutorial\source\src\lsclient\ioinfectionbuff.cpp
xdata$x	ENDS
;	COMDAT ?CheckNonInfectionList@ioInfectionBuff@@IAEXPAVioBaseChar@@0PAVioPlayStage@@@Z
_TEXT	SEGMENT
_pBuffName$531380 = -76					; size = 16
_vDiff$531384 = -60					; size = 12
$T538053 = -48						; size = 4
_pTarget$531361 = -48					; size = 4
_value$538300 = -44					; size = 4
_value$538303 = -40					; size = 4
$T538186 = -36						; size = 1
_value$538162 = -32					; size = 4
_value$538149 = -28					; size = 4
_value$538084 = -24					; size = 4
_iter$ = -24						; size = 4
_CallExCnt$531372 = -20					; size = 4
_value$538180 = -13					; size = 1
__$EHRec$ = -12						; size = 12
_pInfectionHost$ = 8					; size = 4
_pInfectioner$ = 12					; size = 4
_pStage$ = 16						; size = 4
?CheckNonInfectionList@ioInfectionBuff@@IAEXPAVioBaseChar@@0PAVioPlayStage@@@Z PROC ; ioInfectionBuff::CheckNonInfectionList, COMDAT
; _this$ = ecx

; 288  : {

  00000	6a 40		 push	 64			; 00000040H
  00002	b8 00 00 00 00	 mov	 eax, __ehhandler$?CheckNonInfectionList@ioInfectionBuff@@IAEXPAVioBaseChar@@0PAVioPlayStage@@@Z
  00007	e8 00 00 00 00	 call	 __EH_prolog3
  0000c	8b d9		 mov	 ebx, ecx

; 289  : 	const BaseCharList &rkTargetList = pStage->GetBaseCharList();
; 290  : 	
; 291  : 	BaseCharList::const_iterator iter;
; 292  : 	m_TargetList.clear();

  0000e	8d 8b 70 09 00
	00		 lea	 ecx, DWORD PTR [ebx+2416]
  00014	8b 41 04	 mov	 eax, DWORD PTR [ecx+4]
  00017	8b 11		 mov	 edx, DWORD PTR [ecx]
  00019	50		 push	 eax
  0001a	52		 push	 edx
  0001b	8d 45 d0	 lea	 eax, DWORD PTR $T538053[ebp]
  0001e	50		 push	 eax
  0001f	e8 00 00 00 00	 call	 ?erase@?$vector@PAVioBaseChar@@V?$allocator@PAVioBaseChar@@@std@@@std@@QAE?AV?$_Vector_iterator@V?$_Vector_val@PAVioBaseChar@@V?$allocator@PAVioBaseChar@@@std@@@std@@@2@V?$_Vector_const_iterator@V?$_Vector_val@PAVioBaseChar@@V?$allocator@PAVioBaseChar@@@std@@@std@@@2@0@Z ; std::vector<ioBaseChar *,std::allocator<ioBaseChar *> >::erase

; 293  : 	
; 294  : 	if( m_TargetCallBuffList.empty() ) return;

  00024	8b 8b b0 09 00
	00		 mov	 ecx, DWORD PTR [ebx+2480]
  0002a	3b 8b b4 09 00
	00		 cmp	 ecx, DWORD PTR [ebx+2484]
  00030	0f 84 78 02 00
	00		 je	 $LN19@CheckNonIn

; 295  : 
; 296  : 	if(pInfectionHost && pInfectionHost->GetExperienceMode() == EMS_EXPERIENCE )

  00036	8b 75 08	 mov	 esi, DWORD PTR _pInfectionHost$[ebp]
  00039	85 f6		 test	 esi, esi
  0003b	74 19		 je	 SHORT $LN22@CheckNonIn
  0003d	8d 45 e8	 lea	 eax, DWORD PTR _value$538084[ebp]
  00040	8d 8e 94 1d 00
	00		 lea	 ecx, DWORD PTR [esi+7572]
  00046	50		 push	 eax
  00047	e8 00 00 00 00	 call	 ?DecryptValueToPool@?$CEncrypt@K@@QAEXPAK@Z ; CEncrypt<unsigned long>::DecryptValueToPool
  0004c	83 7d e8 02	 cmp	 DWORD PTR _value$538084[ebp], 2
  00050	0f 84 58 02 00
	00		 je	 $LN19@CheckNonIn
$LN22@CheckNonIn:

; 297  : 		return;
; 298  : 
; 299  : 	int i = 0;
; 300  : 	for( iter = rkTargetList.begin(); iter != rkTargetList.end(); ++iter )

  00056	8b 4d 10	 mov	 ecx, DWORD PTR _pStage$[ebp]
  00059	8b 41 2c	 mov	 eax, DWORD PTR [ecx+44]
  0005c	89 45 e8	 mov	 DWORD PTR _iter$[ebp], eax
  0005f	3b 41 30	 cmp	 eax, DWORD PTR [ecx+48]
  00062	0f 84 46 02 00
	00		 je	 $LN19@CheckNonIn
  00068	eb 03		 jmp	 SHORT $LN61@CheckNonIn
$LL146@CheckNonIn:
  0006a	8b 75 08	 mov	 esi, DWORD PTR _pInfectionHost$[ebp]
$LN61@CheckNonIn:

; 301  : 	{
; 302  : 		ioBaseChar *pTarget = (*iter);

  0006d	8b 38		 mov	 edi, DWORD PTR [eax]
  0006f	89 7d d0	 mov	 DWORD PTR _pTarget$531361[ebp], edi

; 303  : 		if( !pTarget )

  00072	85 ff		 test	 edi, edi
  00074	0f 84 1f 02 00
	00		 je	 $LN20@CheckNonIn

; 304  : 			continue;
; 305  : 		
; 306  : 		if( !pTarget->IsNeedProcess() )

  0007a	8b 07		 mov	 eax, DWORD PTR [edi]
  0007c	8b cf		 mov	 ecx, edi
  0007e	ff 90 00 01 00
	00		 call	 DWORD PTR [eax+256]
  00084	84 c0		 test	 al, al
  00086	0f 84 0d 02 00
	00		 je	 $LN20@CheckNonIn

; 307  : 			continue;
; 308  : 
; 309  : 		//     
; 310  : 		if( pInfectionHost->GetTeam() == pTarget->GetTeam() )

  0008c	8d 45 e4	 lea	 eax, DWORD PTR _value$538149[ebp]
  0008f	8d 8e 90 00 00
	00		 lea	 ecx, DWORD PTR [esi+144]
  00095	50		 push	 eax
  00096	e8 00 00 00 00	 call	 ?DecryptValueToPool@?$CEncrypt@W4TeamType@@@@QAEXPAW4TeamType@@@Z ; CEncrypt<enum TeamType>::DecryptValueToPool
  0009b	8d 45 e0	 lea	 eax, DWORD PTR _value$538162[ebp]
  0009e	8d 8f 90 00 00
	00		 lea	 ecx, DWORD PTR [edi+144]
  000a4	50		 push	 eax
  000a5	e8 00 00 00 00	 call	 ?DecryptValueToPool@?$CEncrypt@W4TeamType@@@@QAEXPAW4TeamType@@@Z ; CEncrypt<enum TeamType>::DecryptValueToPool
  000aa	8b 45 e4	 mov	 eax, DWORD PTR _value$538149[ebp]
  000ad	3b 45 e0	 cmp	 eax, DWORD PTR _value$538162[ebp]
  000b0	0f 84 e3 01 00
	00		 je	 $LN20@CheckNonIn

; 311  : 		{				
; 312  : 			continue;
; 313  : 		}
; 314  : 	
; 315  : 		//      
; 316  : 		if( !pTarget->CheckGrapplingExceptionState() )

  000b6	8b cf		 mov	 ecx, edi
  000b8	e8 00 00 00 00	 call	 ?CheckGrapplingExceptionState@ioBaseChar@@QAE_NXZ ; ioBaseChar::CheckGrapplingExceptionState
  000bd	84 c0		 test	 al, al
  000bf	0f 84 d4 01 00
	00		 je	 $LN20@CheckNonIn

; 317  : 			continue;
; 318  : 
; 319  : 		if( pTarget->GetState() == CS_SKIP_STUN || pTarget->IsSkipState() || pTarget->IsExcavating() )

  000c5	80 bf 10 03 00
	00 48		 cmp	 BYTE PTR [edi+784], 72	; 00000048H
  000cc	0f 84 c7 01 00
	00		 je	 $LN20@CheckNonIn
  000d2	8b cf		 mov	 ecx, edi
  000d4	e8 00 00 00 00	 call	 ?IsSkipState@ioBaseChar@@QBE?B_NXZ ; ioBaseChar::IsSkipState
  000d9	84 c0		 test	 al, al
  000db	0f 85 b8 01 00
	00		 jne	 $LN20@CheckNonIn
  000e1	8d 45 f3	 lea	 eax, DWORD PTR _value$538180[ebp]
  000e4	8d 8f 20 30 00
	00		 lea	 ecx, DWORD PTR [edi+12320]
  000ea	50		 push	 eax
  000eb	e8 00 00 00 00	 call	 ?DecryptValueToPool@?$CEncrypt@_N@@QAEXPA_N@Z ; CEncrypt<bool>::DecryptValueToPool
  000f0	80 7d f3 00	 cmp	 BYTE PTR _value$538180[ebp], 0
  000f4	0f 85 9f 01 00
	00		 jne	 $LN20@CheckNonIn

; 320  : 			continue;
; 321  : 
; 322  : 		if( Help::CheckTargetNoCollision( pTarget->GetState() ) )

  000fa	8a 87 10 03 00
	00		 mov	 al, BYTE PTR [edi+784]
  00100	88 45 dc	 mov	 BYTE PTR $T538186[ebp], al
  00103	ff 75 dc	 push	 DWORD PTR $T538186[ebp]
  00106	e8 00 00 00 00	 call	 ?CheckTargetNoCollision@Help@@YA_NW4CharState@@@Z ; Help::CheckTargetNoCollision
  0010b	59		 pop	 ecx
  0010c	84 c0		 test	 al, al
  0010e	0f 85 85 01 00
	00		 jne	 $LN20@CheckNonIn

; 323  : 			continue;
; 324  : 
; 325  : 		if( !pTarget->HasCollisionAvailableBuff() )

  00114	8b cf		 mov	 ecx, edi
  00116	e8 00 00 00 00	 call	 ?HasCollisionAvailableBuff@ioBaseChar@@QBE_NXZ ; ioBaseChar::HasCollisionAvailableBuff
  0011b	84 c0		 test	 al, al
  0011d	0f 84 76 01 00
	00		 je	 $LN20@CheckNonIn

; 326  : 			continue;
; 327  : 
; 328  : 		// 
; 329  : 		if( pTarget->IsProtectState() )

  00123	8b cf		 mov	 ecx, edi
  00125	e8 00 00 00 00	 call	 ?IsProtectState@ioBaseChar@@QAE_NXZ ; ioBaseChar::IsProtectState
  0012a	84 c0		 test	 al, al
  0012c	0f 85 67 01 00
	00		 jne	 $LN20@CheckNonIn

; 330  : 			continue;
; 331  : 		
; 332  : 		//   
; 333  : 		if( pTarget->HasBuff( BT_INFECTION ) )

  00132	6a 67		 push	 103			; 00000067H
  00134	8b cf		 mov	 ecx, edi
  00136	e8 00 00 00 00	 call	 ?HasBuff@ioBaseChar@@QBE_NH@Z ; ioBaseChar::HasBuff
  0013b	84 c0		 test	 al, al
  0013d	0f 85 56 01 00
	00		 jne	 $LN20@CheckNonIn

; 334  : 			continue;
; 335  : 
; 336  : 		//
; 337  : 		int CallExCnt = 0;
; 338  : 		if( !m_TargetCallExceptBuffList.empty() )

  00143	8b 8b c0 09 00
	00		 mov	 ecx, DWORD PTR [ebx+2496]
  00149	83 65 ec 00	 and	 DWORD PTR _CallExCnt$531372[ebp], 0
  0014d	3b 8b c4 09 00
	00		 cmp	 ecx, DWORD PTR [ebx+2500]
  00153	74 59		 je	 SHORT $LN143@CheckNonIn

; 339  : 		{
; 340  : 			ioHashStringVec::iterator callex_iter;
; 341  : 			for( callex_iter = m_TargetCallExceptBuffList.begin(); callex_iter != m_TargetCallExceptBuffList.end(); ++callex_iter )

  00155	8b f1		 mov	 esi, ecx
  00157	3b b3 c4 09 00
	00		 cmp	 esi, DWORD PTR [ebx+2500]
  0015d	74 4f		 je	 SHORT $LN143@CheckNonIn
$LL109@CheckNonIn:

; 342  : 			{
; 343  : 				ioHashString pBuffName = (*callex_iter);

  0015f	56		 push	 esi
  00160	8d 4d b4	 lea	 ecx, DWORD PTR _pBuffName$531380[ebp]
  00163	ff 15 00 00 00
	00		 call	 DWORD PTR __imp_??0ioHashString@@QAE@ABV0@@Z
  00169	83 65 fc 00	 and	 DWORD PTR __$EHRec$[ebp+8], 0

; 344  : 				if( !pBuffName.IsEmpty() )

  0016d	8d 4d b4	 lea	 ecx, DWORD PTR _pBuffName$531380[ebp]
  00170	ff 15 00 00 00
	00		 call	 DWORD PTR __imp_?IsEmpty@ioHashString@@QBE_NXZ
  00176	84 c0		 test	 al, al
  00178	75 12		 jne	 SHORT $LN3@CheckNonIn

; 345  : 				{
; 346  : 					if( pTarget->HasBuff( pBuffName ) )

  0017a	8d 45 b4	 lea	 eax, DWORD PTR _pBuffName$531380[ebp]
  0017d	50		 push	 eax
  0017e	8b cf		 mov	 ecx, edi
  00180	e8 00 00 00 00	 call	 ?HasBuff@ioBaseChar@@QBE_NABVioHashString@@@Z ; ioBaseChar::HasBuff
  00185	84 c0		 test	 al, al
  00187	74 03		 je	 SHORT $LN3@CheckNonIn

; 347  : 						CallExCnt++;

  00189	ff 45 ec	 inc	 DWORD PTR _CallExCnt$531372[ebp]
$LN3@CheckNonIn:

; 348  : 				}
; 349  : 			}

  0018c	83 4d fc ff	 or	 DWORD PTR __$EHRec$[ebp+8], -1
  00190	8d 4d b4	 lea	 ecx, DWORD PTR _pBuffName$531380[ebp]
  00193	ff 15 00 00 00
	00		 call	 DWORD PTR __imp_??1ioHashString@@QAE@XZ
  00199	83 c6 10	 add	 esi, 16			; 00000010H
  0019c	3b b3 c4 09 00
	00		 cmp	 esi, DWORD PTR [ebx+2500]
  001a2	75 bb		 jne	 SHORT $LL109@CheckNonIn

; 350  : 		}
; 351  : 
; 352  : 		if( 0 < CallExCnt )

  001a4	83 7d ec 00	 cmp	 DWORD PTR _CallExCnt$531372[ebp], 0
  001a8	0f 8f eb 00 00
	00		 jg	 $LN20@CheckNonIn
$LN143@CheckNonIn:

; 353  : 			continue;
; 354  : 
; 355  : 		D3DXVECTOR3 vDiff = pTarget->GetWorldPosition() - pInfectioner->GetWorldPosition();

  001ae	8b 4d 0c	 mov	 ecx, DWORD PTR _pInfectioner$[ebp]
  001b1	8b 01		 mov	 eax, DWORD PTR [ecx]
  001b3	ff 50 70	 call	 DWORD PTR [eax+112]
  001b6	8b f0		 mov	 esi, eax
  001b8	8b 07		 mov	 eax, DWORD PTR [edi]
  001ba	8b cf		 mov	 ecx, edi
  001bc	ff 50 70	 call	 DWORD PTR [eax+112]
  001bf	f3 0f 10 00	 movss	 xmm0, DWORD PTR [eax]
  001c3	f3 0f 10 0e	 movss	 xmm1, DWORD PTR [esi]
  001c7	0f 5a c0	 cvtps2pd xmm0, xmm0
  001ca	0f 5a c9	 cvtps2pd xmm1, xmm1
  001cd	f2 0f 5c c1	 subsd	 xmm0, xmm1
  001d1	f3 0f 10 4e 04	 movss	 xmm1, DWORD PTR [esi+4]
  001d6	66 0f 5a c0	 cvtpd2ps xmm0, xmm0
  001da	f3 0f 11 45 c4	 movss	 DWORD PTR _vDiff$531384[ebp], xmm0
  001df	f3 0f 10 40 04	 movss	 xmm0, DWORD PTR [eax+4]
  001e4	0f 5a c0	 cvtps2pd xmm0, xmm0
  001e7	0f 5a c9	 cvtps2pd xmm1, xmm1
  001ea	f2 0f 5c c1	 subsd	 xmm0, xmm1
  001ee	f3 0f 10 4e 08	 movss	 xmm1, DWORD PTR [esi+8]
  001f3	66 0f 5a c0	 cvtpd2ps xmm0, xmm0
  001f7	f3 0f 11 45 c8	 movss	 DWORD PTR _vDiff$531384[ebp+4], xmm0
  001fc	f3 0f 10 40 08	 movss	 xmm0, DWORD PTR [eax+8]
  00201	0f 5a c0	 cvtps2pd xmm0, xmm0
  00204	0f 5a c9	 cvtps2pd xmm1, xmm1

; 356  : 
; 357  : 		float fDistSq = D3DXVec3LengthSq( &vDiff );
; 358  : 		float fRangeSq = m_fInfectionRange*m_fInfectionRange;

  00207	8d 45 d4	 lea	 eax, DWORD PTR _value$538300[ebp]
  0020a	f2 0f 5c c1	 subsd	 xmm0, xmm1
  0020e	66 0f 5a c0	 cvtpd2ps xmm0, xmm0
  00212	50		 push	 eax
  00213	8d 8b 80 09 00
	00		 lea	 ecx, DWORD PTR [ebx+2432]
  00219	f3 0f 11 45 cc	 movss	 DWORD PTR _vDiff$531384[ebp+8], xmm0
  0021e	e8 00 00 00 00	 call	 ?DecryptValueToPool@?$CEncrypt@M@@QAEXPAM@Z ; CEncrypt<float>::DecryptValueToPool
  00223	8d 45 d8	 lea	 eax, DWORD PTR _value$538303[ebp]
  00226	50		 push	 eax
  00227	8d 8b 80 09 00
	00		 lea	 ecx, DWORD PTR [ebx+2432]
  0022d	e8 00 00 00 00	 call	 ?DecryptValueToPool@?$CEncrypt@M@@QAEXPAM@Z ; CEncrypt<float>::DecryptValueToPool
  00232	f3 0f 10 45 c8	 movss	 xmm0, DWORD PTR _vDiff$531384[ebp+4]
  00237	f3 0f 10 4d c4	 movss	 xmm1, DWORD PTR _vDiff$531384[ebp]
  0023c	f3 0f 10 55 cc	 movss	 xmm2, DWORD PTR _vDiff$531384[ebp+8]
  00241	0f 5a c9	 cvtps2pd xmm1, xmm1
  00244	f2 0f 59 c9	 mulsd	 xmm1, xmm1
  00248	0f 5a c0	 cvtps2pd xmm0, xmm0
  0024b	f2 0f 59 c0	 mulsd	 xmm0, xmm0
  0024f	f2 0f 58 c8	 addsd	 xmm1, xmm0
  00253	0f 5a d2	 cvtps2pd xmm2, xmm2
  00256	f2 0f 59 d2	 mulsd	 xmm2, xmm2
  0025a	f2 0f 58 ca	 addsd	 xmm1, xmm2

; 359  : 
; 360  : 		if( fDistSq < fRangeSq )

  0025e	f3 0f 10 55 d4	 movss	 xmm2, DWORD PTR _value$538300[ebp]
  00263	0f 57 c0	 xorps	 xmm0, xmm0
  00266	f2 0f 5a c1	 cvtsd2ss xmm0, xmm1
  0026a	f3 0f 10 4d d8	 movss	 xmm1, DWORD PTR _value$538303[ebp]
  0026f	0f 5a c9	 cvtps2pd xmm1, xmm1
  00272	0f 5a d2	 cvtps2pd xmm2, xmm2
  00275	f2 0f 59 ca	 mulsd	 xmm1, xmm2
  00279	66 0f 5a c9	 cvtpd2ps xmm1, xmm1
  0027d	0f 5a c0	 cvtps2pd xmm0, xmm0
  00280	f3 0f 5a c9	 cvtss2sd xmm1, xmm1
  00284	66 0f 2f c8	 comisd	 xmm1, xmm0
  00288	76 0f		 jbe	 SHORT $LN20@CheckNonIn

; 361  : 		{
; 362  : 			m_TargetList.push_back(pTarget);

  0028a	8d 45 d0	 lea	 eax, DWORD PTR _pTarget$531361[ebp]
  0028d	50		 push	 eax
  0028e	8d 8b 70 09 00
	00		 lea	 ecx, DWORD PTR [ebx+2416]
  00294	e8 00 00 00 00	 call	 ?push_back@?$vector@PAVioBaseChar@@V?$allocator@PAVioBaseChar@@@std@@@std@@QAEXABQAVioBaseChar@@@Z ; std::vector<ioBaseChar *,std::allocator<ioBaseChar *> >::push_back
$LN20@CheckNonIn:

; 297  : 		return;
; 298  : 
; 299  : 	int i = 0;
; 300  : 	for( iter = rkTargetList.begin(); iter != rkTargetList.end(); ++iter )

  00299	8b 45 e8	 mov	 eax, DWORD PTR _iter$[ebp]
  0029c	8b 4d 10	 mov	 ecx, DWORD PTR _pStage$[ebp]
  0029f	83 c0 04	 add	 eax, 4
  002a2	89 45 e8	 mov	 DWORD PTR _iter$[ebp], eax
  002a5	3b 41 30	 cmp	 eax, DWORD PTR [ecx+48]
  002a8	0f 85 bc fd ff
	ff		 jne	 $LL146@CheckNonIn
$LN19@CheckNonIn:

; 363  : 		}
; 364  : 	}
; 365  : }

  002ae	e8 00 00 00 00	 call	 __EH_epilog3
  002b3	c2 0c 00	 ret	 12			; 0000000cH
_TEXT	ENDS
;	COMDAT text$x
text$x	SEGMENT
__unwindfunclet$?CheckNonInfectionList@ioInfectionBuff@@IAEXPAVioBaseChar@@0PAVioPlayStage@@@Z$0:
  00000	8d 4d b4	 lea	 ecx, DWORD PTR _pBuffName$531380[ebp]
  00003	ff 25 00 00 00
	00		 jmp	 DWORD PTR __imp_??1ioHashString@@QAE@XZ
__ehhandler$?CheckNonInfectionList@ioInfectionBuff@@IAEXPAVioBaseChar@@0PAVioPlayStage@@@Z:
  00009	8b 54 24 08	 mov	 edx, DWORD PTR [esp+8]
  0000d	8d 42 0c	 lea	 eax, DWORD PTR [edx+12]
  00010	8b 4a b0	 mov	 ecx, DWORD PTR [edx-80]
  00013	33 c8		 xor	 ecx, eax
  00015	e8 00 00 00 00	 call	 @__security_check_cookie@4
  0001a	b8 00 00 00 00	 mov	 eax, OFFSET __ehfuncinfo$?CheckNonInfectionList@ioInfectionBuff@@IAEXPAVioBaseChar@@0PAVioPlayStage@@@Z
  0001f	e9 00 00 00 00	 jmp	 ___CxxFrameHandler3
text$x	ENDS
?CheckNonInfectionList@ioInfectionBuff@@IAEXPAVioBaseChar@@0PAVioPlayStage@@@Z ENDP ; ioInfectionBuff::CheckNonInfectionList
PUBLIC	?_Destroy@?$vector@UCallBuff@@V?$allocator@UCallBuff@@@std@@@std@@IAEXPAUCallBuff@@0@Z ; std::vector<CallBuff,std::allocator<CallBuff> >::_Destroy
; Function compile flags: /Ogsp
; File c:\program files (x86)\microsoft visual studio 10.0\vc\include\vector
;	COMDAT ?_Destroy@?$vector@UCallBuff@@V?$allocator@UCallBuff@@@std@@@std@@IAEXPAUCallBuff@@0@Z
_TEXT	SEGMENT
__First$ = 8						; size = 4
__Last$ = 12						; size = 4
?_Destroy@?$vector@UCallBuff@@V?$allocator@UCallBuff@@@std@@@std@@IAEXPAUCallBuff@@0@Z PROC ; std::vector<CallBuff,std::allocator<CallBuff> >::_Destroy, COMDAT
; _this$ = ecx

; 1269 : 		{	// destroy [_First, _Last) using allocator

  00000	55		 push	 ebp
  00001	8b ec		 mov	 ebp, esp
  00003	56		 push	 esi

; 1270 : 		_Destroy_range(_First, _Last, this->_Alval);

  00004	8b 75 08	 mov	 esi, DWORD PTR __First$[ebp]
  00007	eb 0b		 jmp	 SHORT $LN26@Destroy
$LL9@Destroy:
  00009	8b ce		 mov	 ecx, esi
  0000b	ff 15 00 00 00
	00		 call	 DWORD PTR __imp_??1ioHashString@@QAE@XZ
  00011	83 c6 14	 add	 esi, 20			; 00000014H
$LN26@Destroy:
  00014	3b 75 0c	 cmp	 esi, DWORD PTR __Last$[ebp]
  00017	75 f0		 jne	 SHORT $LL9@Destroy
  00019	5e		 pop	 esi

; 1271 : 		}

  0001a	5d		 pop	 ebp
  0001b	c2 08 00	 ret	 8
?_Destroy@?$vector@UCallBuff@@V?$allocator@UCallBuff@@@std@@@std@@IAEXPAUCallBuff@@0@Z ENDP ; std::vector<CallBuff,std::allocator<CallBuff> >::_Destroy
_TEXT	ENDS
PUBLIC	?_Tidy@?$vector@UCallBuff@@V?$allocator@UCallBuff@@@std@@@std@@IAEXXZ ; std::vector<CallBuff,std::allocator<CallBuff> >::_Tidy
; Function compile flags: /Ogsp
;	COMDAT ?_Tidy@?$vector@UCallBuff@@V?$allocator@UCallBuff@@@std@@@std@@IAEXXZ
_TEXT	SEGMENT
?_Tidy@?$vector@UCallBuff@@V?$allocator@UCallBuff@@@std@@@std@@IAEXXZ PROC ; std::vector<CallBuff,std::allocator<CallBuff> >::_Tidy, COMDAT
; _this$ = ecx

; 1301 : 		{	// free all storage

  00000	56		 push	 esi
  00001	8b f1		 mov	 esi, ecx

; 1302 : 		if (this->_Myfirst != 0)

  00003	83 3e 00	 cmp	 DWORD PTR [esi], 0
  00006	74 28		 je	 SHORT $LN27@Tidy@2

; 1303 : 			{	// something to free, destroy and deallocate it
; 1304 : 			this->_Orphan_all();

  00008	53		 push	 ebx
  00009	57		 push	 edi
  0000a	ff 15 00 00 00
	00		 call	 DWORD PTR __imp_?_Orphan_all@_Container_base0@std@@QAEXXZ

; 1305 : 			_Destroy(this->_Myfirst, this->_Mylast);

  00010	8b 5e 04	 mov	 ebx, DWORD PTR [esi+4]
  00013	8b 3e		 mov	 edi, DWORD PTR [esi]
  00015	eb 0b		 jmp	 SHORT $LN31@Tidy@2
$LL12@Tidy@2:
  00017	8b cf		 mov	 ecx, edi
  00019	ff 15 00 00 00
	00		 call	 DWORD PTR __imp_??1ioHashString@@QAE@XZ
  0001f	83 c7 14	 add	 edi, 20			; 00000014H
$LN31@Tidy@2:
  00022	3b fb		 cmp	 edi, ebx
  00024	75 f1		 jne	 SHORT $LL12@Tidy@2

; 1306 : 			this->_Alval.deallocate(this->_Myfirst,
; 1307 : 				this->_Myend - this->_Myfirst);

  00026	ff 36		 push	 DWORD PTR [esi]
  00028	e8 00 00 00 00	 call	 ??3@YAXPAX@Z		; operator delete
  0002d	59		 pop	 ecx
  0002e	5f		 pop	 edi
  0002f	5b		 pop	 ebx
$LN27@Tidy@2:

; 1308 : 			}
; 1309 : 		this->_Myfirst = 0;

  00030	33 c0		 xor	 eax, eax
  00032	89 06		 mov	 DWORD PTR [esi], eax

; 1310 : 		this->_Mylast = 0;

  00034	89 46 04	 mov	 DWORD PTR [esi+4], eax

; 1311 : 		this->_Myend = 0;

  00037	89 46 08	 mov	 DWORD PTR [esi+8], eax
  0003a	5e		 pop	 esi

; 1312 : 		}

  0003b	c3		 ret	 0
?_Tidy@?$vector@UCallBuff@@V?$allocator@UCallBuff@@@std@@@std@@IAEXXZ ENDP ; std::vector<CallBuff,std::allocator<CallBuff> >::_Tidy
_TEXT	ENDS
PUBLIC	??$_Umove@PAVioHashString@@@?$vector@VioHashString@@V?$allocator@VioHashString@@@std@@@std@@IAEPAVioHashString@@PAV2@00@Z ; std::vector<ioHashString,std::allocator<ioHashString> >::_Umove<ioHashString *>
; Function compile flags: /Ogsp
;	COMDAT ??$_Umove@PAVioHashString@@@?$vector@VioHashString@@V?$allocator@VioHashString@@@std@@@std@@IAEPAVioHashString@@PAV2@00@Z
_TEXT	SEGMENT
__First$ = 8						; size = 4
__Last$ = 12						; size = 4
__Ptr$ = 16						; size = 4
??$_Umove@PAVioHashString@@@?$vector@VioHashString@@V?$allocator@VioHashString@@@std@@@std@@IAEPAVioHashString@@PAV2@00@Z PROC ; std::vector<ioHashString,std::allocator<ioHashString> >::_Umove<ioHashString *>, COMDAT
; _this$ = ecx

; 1322 : 		pointer _Umove(_Iter _First, _Iter _Last, pointer _Ptr)

  00000	55		 push	 ebp
  00001	8b ec		 mov	 ebp, esp

; 1323 : 		{	// move initializing [_First, _Last), using allocator
; 1324 : 		return (_Uninitialized_move(_First, _Last,
; 1325 : 			_Ptr, this->_Alval));

  00003	83 c1 0c	 add	 ecx, 12			; 0000000cH
  00006	51		 push	 ecx
  00007	ff 75 10	 push	 DWORD PTR __Ptr$[ebp]
  0000a	ff 75 0c	 push	 DWORD PTR __Last$[ebp]
  0000d	ff 75 08	 push	 DWORD PTR __First$[ebp]
  00010	e8 00 00 00 00	 call	 ??$_Uninitialized_move@PAVioHashString@@PAV1@V?$allocator@VioHashString@@@std@@@std@@YAPAVioHashString@@PAV1@00AAV?$allocator@VioHashString@@@0@@Z ; std::_Uninitialized_move<ioHashString *,ioHashString *,std::allocator<ioHashString> >
  00015	83 c4 10	 add	 esp, 16			; 00000010H

; 1326 : 		}

  00018	5d		 pop	 ebp
  00019	c2 0c 00	 ret	 12			; 0000000cH
??$_Umove@PAVioHashString@@@?$vector@VioHashString@@V?$allocator@VioHashString@@@std@@@std@@IAEPAVioHashString@@PAV2@00@Z ENDP ; std::vector<ioHashString,std::allocator<ioHashString> >::_Umove<ioHashString *>
_TEXT	ENDS
PUBLIC	??$_Ucopy@V?$_Vector_const_iterator@V?$_Vector_val@UCallBuff@@V?$allocator@UCallBuff@@@std@@@std@@@std@@@?$vector@UCallBuff@@V?$allocator@UCallBuff@@@std@@@std@@IAEPAUCallBuff@@V?$_Vector_const_iterator@V?$_Vector_val@UCallBuff@@V?$allocator@UCallBuff@@@std@@@std@@@1@0PAU2@@Z ; std::vector<CallBuff,std::allocator<CallBuff> >::_Ucopy<std::_Vector_const_iterator<std::_Vector_val<CallBuff,std::allocator<CallBuff> > > >
; Function compile flags: /Ogsp
;	COMDAT ??$_Ucopy@V?$_Vector_const_iterator@V?$_Vector_val@UCallBuff@@V?$allocator@UCallBuff@@@std@@@std@@@std@@@?$vector@UCallBuff@@V?$allocator@UCallBuff@@@std@@@std@@IAEPAUCallBuff@@V?$_Vector_const_iterator@V?$_Vector_val@UCallBuff@@V?$allocator@UCallBuff@@@std@@@std@@@1@0PAU2@@Z
_TEXT	SEGMENT
__First$ = 8						; size = 4
__Last$ = 12						; size = 4
__Cat$538548 = 16					; size = 1
__Ptr$ = 16						; size = 4
??$_Ucopy@V?$_Vector_const_iterator@V?$_Vector_val@UCallBuff@@V?$allocator@UCallBuff@@@std@@@std@@@std@@@?$vector@UCallBuff@@V?$allocator@UCallBuff@@@std@@@std@@IAEPAUCallBuff@@V?$_Vector_const_iterator@V?$_Vector_val@UCallBuff@@V?$allocator@UCallBuff@@@std@@@std@@@1@0PAU2@@Z PROC ; std::vector<CallBuff,std::allocator<CallBuff> >::_Ucopy<std::_Vector_const_iterator<std::_Vector_val<CallBuff,std::allocator<CallBuff> > > >, COMDAT
; _this$ = ecx

; 1315 : 		pointer _Ucopy(_Iter _First, _Iter _Last, pointer _Ptr)

  00000	55		 push	 ebp
  00001	8b ec		 mov	 ebp, esp

; 1316 : 		{	// copy initializing [_First, _Last), using allocator
; 1317 : 		return (_Uninitialized_copy(_First, _Last,
; 1318 : 			_Ptr, this->_Alval));

  00003	ff 75 10	 push	 DWORD PTR __Cat$538548[ebp]
  00006	83 c1 0c	 add	 ecx, 12			; 0000000cH
  00009	51		 push	 ecx
  0000a	ff 75 10	 push	 DWORD PTR __Ptr$[ebp]
  0000d	ff 75 0c	 push	 DWORD PTR __Last$[ebp]
  00010	ff 75 08	 push	 DWORD PTR __First$[ebp]
  00013	e8 00 00 00 00	 call	 ??$_Uninit_copy@V?$_Vector_const_iterator@V?$_Vector_val@UCallBuff@@V?$allocator@UCallBuff@@@std@@@std@@@std@@PAUCallBuff@@V?$allocator@UCallBuff@@@2@@std@@YAPAUCallBuff@@V?$_Vector_const_iterator@V?$_Vector_val@UCallBuff@@V?$allocator@UCallBuff@@@std@@@std@@@0@0PAU1@AAV?$allocator@UCallBuff@@@0@U_Nonscalar_ptr_iterator_tag@0@@Z ; std::_Uninit_copy<std::_Vector_const_iterator<std::_Vector_val<CallBuff,std::allocator<CallBuff> > >,CallBuff *,std::allocator<CallBuff> >
  00018	83 c4 14	 add	 esp, 20			; 00000014H

; 1319 : 		}

  0001b	5d		 pop	 ebp
  0001c	c2 0c 00	 ret	 12			; 0000000cH
??$_Ucopy@V?$_Vector_const_iterator@V?$_Vector_val@UCallBuff@@V?$allocator@UCallBuff@@@std@@@std@@@std@@@?$vector@UCallBuff@@V?$allocator@UCallBuff@@@std@@@std@@IAEPAUCallBuff@@V?$_Vector_const_iterator@V?$_Vector_val@UCallBuff@@V?$allocator@UCallBuff@@@std@@@std@@@1@0PAU2@@Z ENDP ; std::vector<CallBuff,std::allocator<CallBuff> >::_Ucopy<std::_Vector_const_iterator<std::_Vector_val<CallBuff,std::allocator<CallBuff> > > >
_TEXT	ENDS
PUBLIC	??$_Umove@PAUCallBuff@@@?$vector@UCallBuff@@V?$allocator@UCallBuff@@@std@@@std@@IAEPAUCallBuff@@PAU2@00@Z ; std::vector<CallBuff,std::allocator<CallBuff> >::_Umove<CallBuff *>
; Function compile flags: /Ogsp
;	COMDAT ??$_Umove@PAUCallBuff@@@?$vector@UCallBuff@@V?$allocator@UCallBuff@@@std@@@std@@IAEPAUCallBuff@@PAU2@00@Z
_TEXT	SEGMENT
__First$ = 8						; size = 4
__Last$ = 12						; size = 4
__Ptr$ = 16						; size = 4
??$_Umove@PAUCallBuff@@@?$vector@UCallBuff@@V?$allocator@UCallBuff@@@std@@@std@@IAEPAUCallBuff@@PAU2@00@Z PROC ; std::vector<CallBuff,std::allocator<CallBuff> >::_Umove<CallBuff *>, COMDAT
; _this$ = ecx

; 1322 : 		pointer _Umove(_Iter _First, _Iter _Last, pointer _Ptr)

  00000	55		 push	 ebp
  00001	8b ec		 mov	 ebp, esp

; 1323 : 		{	// move initializing [_First, _Last), using allocator
; 1324 : 		return (_Uninitialized_move(_First, _Last,
; 1325 : 			_Ptr, this->_Alval));

  00003	83 c1 0c	 add	 ecx, 12			; 0000000cH
  00006	51		 push	 ecx
  00007	ff 75 10	 push	 DWORD PTR __Ptr$[ebp]
  0000a	ff 75 0c	 push	 DWORD PTR __Last$[ebp]
  0000d	ff 75 08	 push	 DWORD PTR __First$[ebp]
  00010	e8 00 00 00 00	 call	 ??$_Uninitialized_move@PAUCallBuff@@PAU1@V?$allocator@UCallBuff@@@std@@@std@@YAPAUCallBuff@@PAU1@00AAV?$allocator@UCallBuff@@@0@@Z ; std::_Uninitialized_move<CallBuff *,CallBuff *,std::allocator<CallBuff> >
  00015	83 c4 10	 add	 esp, 16			; 00000010H

; 1326 : 		}

  00018	5d		 pop	 ebp
  00019	c2 0c 00	 ret	 12			; 0000000cH
??$_Umove@PAUCallBuff@@@?$vector@UCallBuff@@V?$allocator@UCallBuff@@@std@@@std@@IAEPAUCallBuff@@PAU2@00@Z ENDP ; std::vector<CallBuff,std::allocator<CallBuff> >::_Umove<CallBuff *>
_TEXT	ENDS
PUBLIC	??$sort_heap@PAUCallBuff@@VCallBuffSort@@@std@@YAXPAUCallBuff@@0VCallBuffSort@@@Z ; std::sort_heap<CallBuff *,CallBuffSort>
; Function compile flags: /Ogsp
; File c:\program files (x86)\microsoft visual studio 10.0\vc\include\algorithm
;	COMDAT ??$sort_heap@PAUCallBuff@@VCallBuffSort@@@std@@YAXPAUCallBuff@@0VCallBuffSort@@@Z
_TEXT	SEGMENT
__First$ = 8						; size = 4
__Last$ = 12						; size = 4
__Pred$ = 16						; size = 1
??$sort_heap@PAUCallBuff@@VCallBuffSort@@@std@@YAXPAUCallBuff@@0VCallBuffSort@@@Z PROC ; std::sort_heap<CallBuff *,CallBuffSort>, COMDAT

; 2708 : 	{	// order heap by repeatedly popping, using _Pred

  00000	55		 push	 ebp
  00001	8b ec		 mov	 ebp, esp

; 2709 : 	_DEBUG_RANGE(_First, _Last);
; 2710 : 	_DEBUG_POINTER(_Pred);
; 2711 : 	_DEBUG_HEAP_PRED(_First, _Last, _Pred);
; 2712 : 	_Sort_heap(_Unchecked(_First), _Unchecked(_Last), _Pred);

  00003	ff 75 10	 push	 DWORD PTR __Pred$[ebp]
  00006	ff 75 0c	 push	 DWORD PTR __Last$[ebp]
  00009	ff 75 08	 push	 DWORD PTR __First$[ebp]
  0000c	e8 00 00 00 00	 call	 ??$_Sort_heap@PAUCallBuff@@VCallBuffSort@@@std@@YAXPAUCallBuff@@0VCallBuffSort@@@Z ; std::_Sort_heap<CallBuff *,CallBuffSort>
  00011	83 c4 0c	 add	 esp, 12			; 0000000cH

; 2713 : 	}

  00014	5d		 pop	 ebp
  00015	c3		 ret	 0
??$sort_heap@PAUCallBuff@@VCallBuffSort@@@std@@YAXPAUCallBuff@@0VCallBuffSort@@@Z ENDP ; std::sort_heap<CallBuff *,CallBuffSort>
_TEXT	ENDS
PUBLIC	?_Destroy@?$vector@VioHashString@@V?$allocator@VioHashString@@@std@@@std@@IAEXPAVioHashString@@0@Z ; std::vector<ioHashString,std::allocator<ioHashString> >::_Destroy
; Function compile flags: /Ogsp
; File c:\program files (x86)\microsoft visual studio 10.0\vc\include\vector
;	COMDAT ?_Destroy@?$vector@VioHashString@@V?$allocator@VioHashString@@@std@@@std@@IAEXPAVioHashString@@0@Z
_TEXT	SEGMENT
__First$ = 8						; size = 4
__Last$ = 12						; size = 4
?_Destroy@?$vector@VioHashString@@V?$allocator@VioHashString@@@std@@@std@@IAEXPAVioHashString@@0@Z PROC ; std::vector<ioHashString,std::allocator<ioHashString> >::_Destroy, COMDAT
; _this$ = ecx

; 1269 : 		{	// destroy [_First, _Last) using allocator

  00000	55		 push	 ebp
  00001	8b ec		 mov	 ebp, esp
  00003	56		 push	 esi

; 1270 : 		_Destroy_range(_First, _Last, this->_Alval);

  00004	8b 75 08	 mov	 esi, DWORD PTR __First$[ebp]
  00007	eb 0b		 jmp	 SHORT $LN23@Destroy@2
$LL9@Destroy@2:
  00009	8b ce		 mov	 ecx, esi
  0000b	ff 15 00 00 00
	00		 call	 DWORD PTR __imp_??1ioHashString@@QAE@XZ
  00011	83 c6 10	 add	 esi, 16			; 00000010H
$LN23@Destroy@2:
  00014	3b 75 0c	 cmp	 esi, DWORD PTR __Last$[ebp]
  00017	75 f0		 jne	 SHORT $LL9@Destroy@2
  00019	5e		 pop	 esi

; 1271 : 		}

  0001a	5d		 pop	 ebp
  0001b	c2 08 00	 ret	 8
?_Destroy@?$vector@VioHashString@@V?$allocator@VioHashString@@@std@@@std@@IAEXPAVioHashString@@0@Z ENDP ; std::vector<ioHashString,std::allocator<ioHashString> >::_Destroy
_TEXT	ENDS
PUBLIC	??$_Ucopy@V?$_Vector_const_iterator@V?$_Vector_val@VioHashString@@V?$allocator@VioHashString@@@std@@@std@@@std@@@?$vector@VioHashString@@V?$allocator@VioHashString@@@std@@@std@@IAEPAVioHashString@@V?$_Vector_const_iterator@V?$_Vector_val@VioHashString@@V?$allocator@VioHashString@@@std@@@std@@@1@0PAV2@@Z ; std::vector<ioHashString,std::allocator<ioHashString> >::_Ucopy<std::_Vector_const_iterator<std::_Vector_val<ioHashString,std::allocator<ioHashString> > > >
; Function compile flags: /Ogsp
;	COMDAT ??$_Ucopy@V?$_Vector_const_iterator@V?$_Vector_val@VioHashString@@V?$allocator@VioHashString@@@std@@@std@@@std@@@?$vector@VioHashString@@V?$allocator@VioHashString@@@std@@@std@@IAEPAVioHashString@@V?$_Vector_const_iterator@V?$_Vector_val@VioHashString@@V?$allocator@VioHashString@@@std@@@std@@@1@0PAV2@@Z
_TEXT	SEGMENT
__First$ = 8						; size = 4
__Last$ = 12						; size = 4
__Cat$538649 = 16					; size = 1
__Ptr$ = 16						; size = 4
??$_Ucopy@V?$_Vector_const_iterator@V?$_Vector_val@VioHashString@@V?$allocator@VioHashString@@@std@@@std@@@std@@@?$vector@VioHashString@@V?$allocator@VioHashString@@@std@@@std@@IAEPAVioHashString@@V?$_Vector_const_iterator@V?$_Vector_val@VioHashString@@V?$allocator@VioHashString@@@std@@@std@@@1@0PAV2@@Z PROC ; std::vector<ioHashString,std::allocator<ioHashString> >::_Ucopy<std::_Vector_const_iterator<std::_Vector_val<ioHashString,std::allocator<ioHashString> > > >, COMDAT
; _this$ = ecx

; 1315 : 		pointer _Ucopy(_Iter _First, _Iter _Last, pointer _Ptr)

  00000	55		 push	 ebp
  00001	8b ec		 mov	 ebp, esp

; 1316 : 		{	// copy initializing [_First, _Last), using allocator
; 1317 : 		return (_Uninitialized_copy(_First, _Last,
; 1318 : 			_Ptr, this->_Alval));

  00003	ff 75 10	 push	 DWORD PTR __Cat$538649[ebp]
  00006	83 c1 0c	 add	 ecx, 12			; 0000000cH
  00009	51		 push	 ecx
  0000a	ff 75 10	 push	 DWORD PTR __Ptr$[ebp]
  0000d	ff 75 0c	 push	 DWORD PTR __Last$[ebp]
  00010	ff 75 08	 push	 DWORD PTR __First$[ebp]
  00013	e8 00 00 00 00	 call	 ??$_Uninit_copy@V?$_Vector_const_iterator@V?$_Vector_val@VioHashString@@V?$allocator@VioHashString@@@std@@@std@@@std@@PAVioHashString@@V?$allocator@VioHashString@@@2@@std@@YAPAVioHashString@@V?$_Vector_const_iterator@V?$_Vector_val@VioHashString@@V?$allocator@VioHashString@@@std@@@std@@@0@0PAV1@AAV?$allocator@VioHashString@@@0@U_Nonscalar_ptr_iterator_tag@0@@Z ; std::_Uninit_copy<std::_Vector_const_iterator<std::_Vector_val<ioHashString,std::allocator<ioHashString> > >,ioHashString *,std::allocator<ioHashString> >
  00018	83 c4 14	 add	 esp, 20			; 00000014H

; 1319 : 		}

  0001b	5d		 pop	 ebp
  0001c	c2 0c 00	 ret	 12			; 0000000cH
??$_Ucopy@V?$_Vector_const_iterator@V?$_Vector_val@VioHashString@@V?$allocator@VioHashString@@@std@@@std@@@std@@@?$vector@VioHashString@@V?$allocator@VioHashString@@@std@@@std@@IAEPAVioHashString@@V?$_Vector_const_iterator@V?$_Vector_val@VioHashString@@V?$allocator@VioHashString@@@std@@@std@@@1@0PAV2@@Z ENDP ; std::vector<ioHashString,std::allocator<ioHashString> >::_Ucopy<std::_Vector_const_iterator<std::_Vector_val<ioHashString,std::allocator<ioHashString> > > >
_TEXT	ENDS
PUBLIC	?reserve@?$vector@VioHashString@@V?$allocator@VioHashString@@@std@@@std@@QAEXI@Z ; std::vector<ioHashString,std::allocator<ioHashString> >::reserve
;	COMDAT xdata$x
; File c:\program files (x86)\microsoft visual studio 10.0\vc\include\xmemory
xdata$x	SEGMENT
__catchsym$?reserve@?$vector@VioHashString@@V?$allocator@VioHashString@@@std@@@std@@QAEXI@Z$2 DD 040H
	DD	00H
	DD	00H
	DD	FLAT:__catch$?reserve@?$vector@VioHashString@@V?$allocator@VioHashString@@@std@@@std@@QAEXI@Z$0
__unwindtable$?reserve@?$vector@VioHashString@@V?$allocator@VioHashString@@@std@@@std@@QAEXI@Z DD 0ffffffffH
	DD	00H
	DD	0ffffffffH
	DD	00H
__tryblocktable$?reserve@?$vector@VioHashString@@V?$allocator@VioHashString@@@std@@@std@@QAEXI@Z DD 00H
	DD	00H
	DD	01H
	DD	01H
	DD	FLAT:__catchsym$?reserve@?$vector@VioHashString@@V?$allocator@VioHashString@@@std@@@std@@QAEXI@Z$2
__ehfuncinfo$?reserve@?$vector@VioHashString@@V?$allocator@VioHashString@@@std@@@std@@QAEXI@Z DD 019930522H
	DD	02H
	DD	FLAT:__unwindtable$?reserve@?$vector@VioHashString@@V?$allocator@VioHashString@@@std@@@std@@QAEXI@Z
	DD	01H
	DD	FLAT:__tryblocktable$?reserve@?$vector@VioHashString@@V?$allocator@VioHashString@@@std@@@std@@QAEXI@Z
	DD	2 DUP(00H)
	DD	00H
	DD	01H
; Function compile flags: /Ogsp
; File c:\program files (x86)\microsoft visual studio 10.0\vc\include\vector
xdata$x	ENDS
;	COMDAT ?reserve@?$vector@VioHashString@@V?$allocator@VioHashString@@@std@@@std@@QAEXI@Z
_TEXT	SEGMENT
tv300 = -24						; size = 4
__Ptr$531527 = -20					; size = 4
__$EHRec$ = -16						; size = 16
$T538746 = 8						; size = 4
__Count$ = 8						; size = 4
?reserve@?$vector@VioHashString@@V?$allocator@VioHashString@@@std@@@std@@QAEXI@Z PROC ; std::vector<ioHashString,std::allocator<ioHashString> >::reserve, COMDAT
; _this$ = ecx

; 746  : 		{	// determine new minimum length of allocated storage

  00000	6a 0c		 push	 12			; 0000000cH
  00002	b8 00 00 00 00	 mov	 eax, __ehhandler$?reserve@?$vector@VioHashString@@V?$allocator@VioHashString@@@std@@@std@@QAEXI@Z
  00007	e8 00 00 00 00	 call	 __EH_prolog3_catch
  0000c	8b f1		 mov	 esi, ecx

; 747  : 		if (max_size() < _Count)

  0000e	8b 5d 08	 mov	 ebx, DWORD PTR __Count$[ebp]
  00011	81 fb ff ff ff
	0f		 cmp	 ebx, 268435455		; 0fffffffH
  00017	76 0b		 jbe	 SHORT $LN5@reserve@2

; 748  : 			_Xlen();	// result too long

  00019	68 00 00 00 00	 push	 OFFSET ??_C@_0BD@OLBABOEK@vector?$DMT?$DO?5too?5long?$AA@
  0001e	ff 15 00 00 00
	00		 call	 DWORD PTR __imp_?_Xlength_error@std@@YAXPBD@Z
$LN59@reserve@2:
$LN5@reserve@2:

; 749  : 		else if (capacity() < _Count)

  00024	8b 46 08	 mov	 eax, DWORD PTR [esi+8]
  00027	2b 06		 sub	 eax, DWORD PTR [esi]
  00029	c1 f8 04	 sar	 eax, 4
  0002c	3b c3		 cmp	 eax, ebx
  0002e	73 7a		 jae	 SHORT $LN3@reserve@2

; 750  : 			{	// not enough room, reallocate
; 751  : 			pointer _Ptr = this->_Alval.allocate(_Count);

  00030	6a 00		 push	 0
  00032	53		 push	 ebx
  00033	e8 00 00 00 00	 call	 ??$_Allocate@VioHashString@@@std@@YAPAVioHashString@@IPAV1@@Z ; std::_Allocate<ioHashString>

; 752  : 
; 753  : 			_TRY_BEGIN
; 754  : 			_Umove(this->_Myfirst, this->_Mylast, _Ptr);

  00038	8b 0e		 mov	 ecx, DWORD PTR [esi]
  0003a	83 65 fc 00	 and	 DWORD PTR __$EHRec$[ebp+12], 0
  0003e	8d 56 0c	 lea	 edx, DWORD PTR [esi+12]
  00041	52		 push	 edx
  00042	89 45 ec	 mov	 DWORD PTR __Ptr$531527[ebp], eax
  00045	ff 75 ec	 push	 DWORD PTR __Ptr$531527[ebp]
  00048	8b 46 04	 mov	 eax, DWORD PTR [esi+4]
  0004b	50		 push	 eax
  0004c	51		 push	 ecx
  0004d	e8 00 00 00 00	 call	 ??$_Uninitialized_move@PAVioHashString@@PAV1@V?$allocator@VioHashString@@@std@@@std@@YAPAVioHashString@@PAV1@00AAV?$allocator@VioHashString@@@0@@Z ; std::_Uninitialized_move<ioHashString *,ioHashString *,std::allocator<ioHashString> >

; 758  : 			_CATCH_END
; 759  : 
; 760  : 			size_type _Size = size();

  00052	8b 4e 04	 mov	 ecx, DWORD PTR [esi+4]
  00055	8b 06		 mov	 eax, DWORD PTR [esi]
  00057	83 4d fc ff	 or	 DWORD PTR __$EHRec$[ebp+12], -1
  0005b	8b f9		 mov	 edi, ecx
  0005d	83 c4 18	 add	 esp, 24			; 00000018H
  00060	2b f8		 sub	 edi, eax
  00062	89 4d e8	 mov	 DWORD PTR tv300[ebp], ecx
  00065	85 c0		 test	 eax, eax
  00067	74 24		 je	 SHORT $LN51@reserve@2

; 761  : 			if (this->_Myfirst != 0)
; 762  : 				{	// destroy and deallocate old array
; 763  : 				_Destroy(this->_Myfirst, this->_Mylast);

  00069	89 45 08	 mov	 DWORD PTR $T538746[ebp], eax
  0006c	3b c1		 cmp	 eax, ecx
  0006e	74 15		 je	 SHORT $LN37@reserve@2
$LN39@reserve@2:
  00070	8b 4d 08	 mov	 ecx, DWORD PTR $T538746[ebp]
  00073	ff 15 00 00 00
	00		 call	 DWORD PTR __imp_??1ioHashString@@QAE@XZ
  00079	83 45 08 10	 add	 DWORD PTR $T538746[ebp], 16 ; 00000010H
  0007d	8b 45 08	 mov	 eax, DWORD PTR $T538746[ebp]
  00080	3b 45 e8	 cmp	 eax, DWORD PTR tv300[ebp]
  00083	75 eb		 jne	 SHORT $LN39@reserve@2
$LN37@reserve@2:

; 764  : 				this->_Alval.deallocate(this->_Myfirst,
; 765  : 					this->_Myend - this->_Myfirst);

  00085	ff 36		 push	 DWORD PTR [esi]
  00087	e8 00 00 00 00	 call	 ??3@YAXPAX@Z		; operator delete
  0008c	59		 pop	 ecx
$LN51@reserve@2:

; 766  : 				}
; 767  : 
; 768  : 			this->_Orphan_all();

  0008d	8b ce		 mov	 ecx, esi
  0008f	ff 15 00 00 00
	00		 call	 DWORD PTR __imp_?_Orphan_all@_Container_base0@std@@QAEXXZ

; 769  : 			this->_Myend = _Ptr + _Count;

  00095	8b 45 ec	 mov	 eax, DWORD PTR __Ptr$531527[ebp]
  00098	c1 e3 04	 shl	 ebx, 4
  0009b	03 d8		 add	 ebx, eax

; 770  : 			this->_Mylast = _Ptr + _Size;

  0009d	83 e7 f0	 and	 edi, -16		; fffffff0H
  000a0	03 f8		 add	 edi, eax
  000a2	89 5e 08	 mov	 DWORD PTR [esi+8], ebx
  000a5	89 7e 04	 mov	 DWORD PTR [esi+4], edi

; 771  : 			this->_Myfirst = _Ptr;

  000a8	89 06		 mov	 DWORD PTR [esi], eax
$LN3@reserve@2:

; 772  : 			}
; 773  : 		}

  000aa	e8 00 00 00 00	 call	 __EH_epilog3
  000af	c2 04 00	 ret	 4
__catch$?reserve@?$vector@VioHashString@@V?$allocator@VioHashString@@@std@@@std@@QAEXI@Z$0:

; 755  : 			_CATCH_ALL
; 756  : 			this->_Alval.deallocate(_Ptr, _Count);

  000b2	ff 75 ec	 push	 DWORD PTR __Ptr$531527[ebp]
  000b5	e8 00 00 00 00	 call	 ??3@YAXPAX@Z		; operator delete
  000ba	59		 pop	 ecx

; 757  : 			_RERAISE;

  000bb	6a 00		 push	 0
  000bd	6a 00		 push	 0
  000bf	e8 00 00 00 00	 call	 __CxxThrowException@8
$LN60@reserve@2:
$LN58@reserve@2:
  000c4	cc		 int	 3
_TEXT	ENDS
;	COMDAT text$x
text$x	SEGMENT
__ehhandler$?reserve@?$vector@VioHashString@@V?$allocator@VioHashString@@@std@@@std@@QAEXI@Z:
  00000	8b 54 24 08	 mov	 edx, DWORD PTR [esp+8]
  00004	8d 42 0c	 lea	 eax, DWORD PTR [edx+12]
  00007	8b 4a e4	 mov	 ecx, DWORD PTR [edx-28]
  0000a	33 c8		 xor	 ecx, eax
  0000c	e8 00 00 00 00	 call	 @__security_check_cookie@4
  00011	b8 00 00 00 00	 mov	 eax, OFFSET __ehfuncinfo$?reserve@?$vector@VioHashString@@V?$allocator@VioHashString@@@std@@@std@@QAEXI@Z
  00016	e9 00 00 00 00	 jmp	 ___CxxFrameHandler3
text$x	ENDS
?reserve@?$vector@VioHashString@@V?$allocator@VioHashString@@@std@@@std@@QAEXI@Z ENDP ; std::vector<ioHashString,std::allocator<ioHashString> >::reserve
PUBLIC	??0?$vector@UCallBuff@@V?$allocator@UCallBuff@@@std@@@std@@QAE@ABV01@@Z ; std::vector<CallBuff,std::allocator<CallBuff> >::vector<CallBuff,std::allocator<CallBuff> >
;	COMDAT xdata$x
; File c:\program files (x86)\microsoft visual studio 10.0\vc\include\xutility
xdata$x	SEGMENT
__catchsym$??0?$vector@UCallBuff@@V?$allocator@UCallBuff@@@std@@@std@@QAE@ABV01@@Z$2 DD 040H
	DD	00H
	DD	00H
	DD	FLAT:__catch$??0?$vector@UCallBuff@@V?$allocator@UCallBuff@@@std@@@std@@QAE@ABV01@@Z$0
__unwindtable$??0?$vector@UCallBuff@@V?$allocator@UCallBuff@@@std@@@std@@QAE@ABV01@@Z DD 0ffffffffH
	DD	00H
	DD	0ffffffffH
	DD	00H
__tryblocktable$??0?$vector@UCallBuff@@V?$allocator@UCallBuff@@@std@@@std@@QAE@ABV01@@Z DD 00H
	DD	00H
	DD	01H
	DD	01H
	DD	FLAT:__catchsym$??0?$vector@UCallBuff@@V?$allocator@UCallBuff@@@std@@@std@@QAE@ABV01@@Z$2
__ehfuncinfo$??0?$vector@UCallBuff@@V?$allocator@UCallBuff@@@std@@@std@@QAE@ABV01@@Z DD 019930522H
	DD	02H
	DD	FLAT:__unwindtable$??0?$vector@UCallBuff@@V?$allocator@UCallBuff@@@std@@@std@@QAE@ABV01@@Z
	DD	01H
	DD	FLAT:__tryblocktable$??0?$vector@UCallBuff@@V?$allocator@UCallBuff@@@std@@@std@@QAE@ABV01@@Z
	DD	2 DUP(00H)
	DD	00H
	DD	01H
; Function compile flags: /Ogsp
; File c:\program files (x86)\microsoft visual studio 10.0\vc\include\vector
xdata$x	ENDS
;	COMDAT ??0?$vector@UCallBuff@@V?$allocator@UCallBuff@@@std@@@std@@QAE@ABV01@@Z
_TEXT	SEGMENT
_this$ = -20						; size = 4
__$EHRec$ = -16						; size = 16
__Cat$538890 = 8					; size = 1
__Right$ = 8						; size = 4
??0?$vector@UCallBuff@@V?$allocator@UCallBuff@@@std@@@std@@QAE@ABV01@@Z PROC ; std::vector<CallBuff,std::allocator<CallBuff> >::vector<CallBuff,std::allocator<CallBuff> >, COMDAT
; _this$ = ecx

; 535  : 		{	// construct by copying _Right

  00000	6a 08		 push	 8
  00002	b8 00 00 00 00	 mov	 eax, __ehhandler$??0?$vector@UCallBuff@@V?$allocator@UCallBuff@@@std@@@std@@QAE@ABV01@@Z
  00007	e8 00 00 00 00	 call	 __EH_prolog3_catch
  0000c	8b f1		 mov	 esi, ecx
  0000e	89 75 ec	 mov	 DWORD PTR _this$[ebp], esi

; 536  : 		if (_Buy(_Right.size()))

  00011	8b 7d 08	 mov	 edi, DWORD PTR __Right$[ebp]
  00014	33 db		 xor	 ebx, ebx
  00016	89 1e		 mov	 DWORD PTR [esi], ebx
  00018	89 5e 04	 mov	 DWORD PTR [esi+4], ebx
  0001b	89 5e 08	 mov	 DWORD PTR [esi+8], ebx
  0001e	8b 47 04	 mov	 eax, DWORD PTR [edi+4]
  00021	2b 07		 sub	 eax, DWORD PTR [edi]
  00023	6a 14		 push	 20			; 00000014H
  00025	59		 pop	 ecx
  00026	99		 cdq
  00027	f7 f9		 idiv	 ecx
  00029	8b ce		 mov	 ecx, esi
  0002b	50		 push	 eax
  0002c	e8 00 00 00 00	 call	 ?_Buy@?$vector@UCallBuff@@V?$allocator@UCallBuff@@@std@@@std@@IAE_NI@Z ; std::vector<CallBuff,std::allocator<CallBuff> >::_Buy
  00031	84 c0		 test	 al, al
  00033	74 1f		 je	 SHORT $LN7@vector

; 537  : 			_TRY_BEGIN
; 538  : 			this->_Mylast = _Ucopy(_Right.begin(), _Right.end(),
; 539  : 				this->_Myfirst);

  00035	ff 75 08	 push	 DWORD PTR __Cat$538890[ebp]
  00038	8b 0e		 mov	 ecx, DWORD PTR [esi]
  0003a	8b 47 04	 mov	 eax, DWORD PTR [edi+4]
  0003d	8b 3f		 mov	 edi, DWORD PTR [edi]
  0003f	8d 56 0c	 lea	 edx, DWORD PTR [esi+12]
  00042	52		 push	 edx
  00043	51		 push	 ecx
  00044	50		 push	 eax
  00045	57		 push	 edi
  00046	89 5d fc	 mov	 DWORD PTR __$EHRec$[ebp+12], ebx
  00049	e8 00 00 00 00	 call	 ??$_Uninit_copy@V?$_Vector_const_iterator@V?$_Vector_val@UCallBuff@@V?$allocator@UCallBuff@@@std@@@std@@@std@@PAUCallBuff@@V?$allocator@UCallBuff@@@2@@std@@YAPAUCallBuff@@V?$_Vector_const_iterator@V?$_Vector_val@UCallBuff@@V?$allocator@UCallBuff@@@std@@@std@@@0@0PAU1@AAV?$allocator@UCallBuff@@@0@U_Nonscalar_ptr_iterator_tag@0@@Z ; std::_Uninit_copy<std::_Vector_const_iterator<std::_Vector_val<CallBuff,std::allocator<CallBuff> > >,CallBuff *,std::allocator<CallBuff> >
  0004e	83 c4 14	 add	 esp, 20			; 00000014H
  00051	89 46 04	 mov	 DWORD PTR [esi+4], eax
$LN7@vector:

; 543  : 			_CATCH_END
; 544  : 		}

  00054	8b c6		 mov	 eax, esi
  00056	e8 00 00 00 00	 call	 __EH_epilog3
  0005b	c2 04 00	 ret	 4
__catch$??0?$vector@UCallBuff@@V?$allocator@UCallBuff@@@std@@@std@@QAE@ABV01@@Z$0:

; 540  : 			_CATCH_ALL
; 541  : 			_Tidy();

  0005e	8b 4d ec	 mov	 ecx, DWORD PTR _this$[ebp]
  00061	e8 00 00 00 00	 call	 ?_Tidy@?$vector@UCallBuff@@V?$allocator@UCallBuff@@@std@@@std@@IAEXXZ ; std::vector<CallBuff,std::allocator<CallBuff> >::_Tidy

; 542  : 			_RERAISE;

  00066	33 db		 xor	 ebx, ebx
  00068	53		 push	 ebx
  00069	53		 push	 ebx
  0006a	e8 00 00 00 00	 call	 __CxxThrowException@8
$LN38@vector:
$LN37@vector:
  0006f	cc		 int	 3
_TEXT	ENDS
;	COMDAT text$x
text$x	SEGMENT
__ehhandler$??0?$vector@UCallBuff@@V?$allocator@UCallBuff@@@std@@@std@@QAE@ABV01@@Z:
  00000	8b 54 24 08	 mov	 edx, DWORD PTR [esp+8]
  00004	8d 42 0c	 lea	 eax, DWORD PTR [edx+12]
  00007	8b 4a e8	 mov	 ecx, DWORD PTR [edx-24]
  0000a	33 c8		 xor	 ecx, eax
  0000c	e8 00 00 00 00	 call	 @__security_check_cookie@4
  00011	b8 00 00 00 00	 mov	 eax, OFFSET __ehfuncinfo$??0?$vector@UCallBuff@@V?$allocator@UCallBuff@@@std@@@std@@QAE@ABV01@@Z
  00016	e9 00 00 00 00	 jmp	 ___CxxFrameHandler3
text$x	ENDS
??0?$vector@UCallBuff@@V?$allocator@UCallBuff@@@std@@@std@@QAE@ABV01@@Z ENDP ; std::vector<CallBuff,std::allocator<CallBuff> >::vector<CallBuff,std::allocator<CallBuff> >
PUBLIC	??1?$vector@UCallBuff@@V?$allocator@UCallBuff@@@std@@@std@@QAE@XZ ; std::vector<CallBuff,std::allocator<CallBuff> >::~vector<CallBuff,std::allocator<CallBuff> >
; Function compile flags: /Ogsp
;	COMDAT ??1?$vector@UCallBuff@@V?$allocator@UCallBuff@@@std@@@std@@QAE@XZ
_TEXT	SEGMENT
??1?$vector@UCallBuff@@V?$allocator@UCallBuff@@@std@@@std@@QAE@XZ PROC ; std::vector<CallBuff,std::allocator<CallBuff> >::~vector<CallBuff,std::allocator<CallBuff> >, COMDAT
; _this$ = ecx

; 705  : 		_Tidy();

  00000	e9 00 00 00 00	 jmp	 ?_Tidy@?$vector@UCallBuff@@V?$allocator@UCallBuff@@@std@@@std@@IAEXXZ ; std::vector<CallBuff,std::allocator<CallBuff> >::_Tidy
??1?$vector@UCallBuff@@V?$allocator@UCallBuff@@@std@@@std@@QAE@XZ ENDP ; std::vector<CallBuff,std::allocator<CallBuff> >::~vector<CallBuff,std::allocator<CallBuff> >
_TEXT	ENDS
PUBLIC	?reserve@?$vector@UCallBuff@@V?$allocator@UCallBuff@@@std@@@std@@QAEXI@Z ; std::vector<CallBuff,std::allocator<CallBuff> >::reserve
;	COMDAT xdata$x
; File c:\program files (x86)\microsoft visual studio 10.0\vc\include\xmemory
xdata$x	SEGMENT
__catchsym$?reserve@?$vector@UCallBuff@@V?$allocator@UCallBuff@@@std@@@std@@QAEXI@Z$3 DD 040H
	DD	00H
	DD	00H
	DD	FLAT:__catch$?reserve@?$vector@UCallBuff@@V?$allocator@UCallBuff@@@std@@@std@@QAEXI@Z$0
__unwindtable$?reserve@?$vector@UCallBuff@@V?$allocator@UCallBuff@@@std@@@std@@QAEXI@Z DD 0ffffffffH
	DD	00H
	DD	0ffffffffH
	DD	00H
__tryblocktable$?reserve@?$vector@UCallBuff@@V?$allocator@UCallBuff@@@std@@@std@@QAEXI@Z DD 00H
	DD	00H
	DD	01H
	DD	01H
	DD	FLAT:__catchsym$?reserve@?$vector@UCallBuff@@V?$allocator@UCallBuff@@@std@@@std@@QAEXI@Z$3
__ehfuncinfo$?reserve@?$vector@UCallBuff@@V?$allocator@UCallBuff@@@std@@@std@@QAEXI@Z DD 019930522H
	DD	02H
	DD	FLAT:__unwindtable$?reserve@?$vector@UCallBuff@@V?$allocator@UCallBuff@@@std@@@std@@QAEXI@Z
	DD	01H
	DD	FLAT:__tryblocktable$?reserve@?$vector@UCallBuff@@V?$allocator@UCallBuff@@@std@@@std@@QAEXI@Z
	DD	2 DUP(00H)
	DD	00H
	DD	01H
; Function compile flags: /Ogsp
; File c:\program files (x86)\microsoft visual studio 10.0\vc\include\vector
xdata$x	ENDS
;	COMDAT ?reserve@?$vector@UCallBuff@@V?$allocator@UCallBuff@@@std@@@std@@QAEXI@Z
_TEXT	SEGMENT
__Ptr$531669 = -24					; size = 4
$T539020 = -20						; size = 4
__$EHRec$ = -16						; size = 16
__Count$ = 8						; size = 4
?reserve@?$vector@UCallBuff@@V?$allocator@UCallBuff@@@std@@@std@@QAEXI@Z PROC ; std::vector<CallBuff,std::allocator<CallBuff> >::reserve, COMDAT
; _this$ = ecx

; 746  : 		{	// determine new minimum length of allocated storage

  00000	6a 0c		 push	 12			; 0000000cH
  00002	b8 00 00 00 00	 mov	 eax, __ehhandler$?reserve@?$vector@UCallBuff@@V?$allocator@UCallBuff@@@std@@@std@@QAEXI@Z
  00007	e8 00 00 00 00	 call	 __EH_prolog3_catch
  0000c	8b f1		 mov	 esi, ecx

; 747  : 		if (max_size() < _Count)

  0000e	81 7d 08 cc cc
	cc 0c		 cmp	 DWORD PTR __Count$[ebp], 214748364 ; 0cccccccH
  00015	76 0b		 jbe	 SHORT $LN5@reserve@3

; 748  : 			_Xlen();	// result too long

  00017	68 00 00 00 00	 push	 OFFSET ??_C@_0BD@OLBABOEK@vector?$DMT?$DO?5too?5long?$AA@
  0001c	ff 15 00 00 00
	00		 call	 DWORD PTR __imp_?_Xlength_error@std@@YAXPBD@Z
$LN62@reserve@3:
$LN5@reserve@3:

; 749  : 		else if (capacity() < _Count)

  00022	8b 46 08	 mov	 eax, DWORD PTR [esi+8]
  00025	2b 06		 sub	 eax, DWORD PTR [esi]
  00027	6a 14		 push	 20			; 00000014H
  00029	99		 cdq
  0002a	59		 pop	 ecx
  0002b	f7 f9		 idiv	 ecx
  0002d	3b 45 08	 cmp	 eax, DWORD PTR __Count$[ebp]
  00030	0f 83 81 00 00
	00		 jae	 $LN3@reserve@3

; 750  : 			{	// not enough room, reallocate
; 751  : 			pointer _Ptr = this->_Alval.allocate(_Count);

  00036	6a 00		 push	 0
  00038	ff 75 08	 push	 DWORD PTR __Count$[ebp]
  0003b	e8 00 00 00 00	 call	 ??$_Allocate@UCallBuff@@@std@@YAPAUCallBuff@@IPAU1@@Z ; std::_Allocate<CallBuff>

; 752  : 
; 753  : 			_TRY_BEGIN
; 754  : 			_Umove(this->_Myfirst, this->_Mylast, _Ptr);

  00040	8b 0e		 mov	 ecx, DWORD PTR [esi]
  00042	83 65 fc 00	 and	 DWORD PTR __$EHRec$[ebp+12], 0
  00046	8d 56 0c	 lea	 edx, DWORD PTR [esi+12]
  00049	52		 push	 edx
  0004a	89 45 e8	 mov	 DWORD PTR __Ptr$531669[ebp], eax
  0004d	ff 75 e8	 push	 DWORD PTR __Ptr$531669[ebp]
  00050	8b 46 04	 mov	 eax, DWORD PTR [esi+4]
  00053	50		 push	 eax
  00054	51		 push	 ecx
  00055	e8 00 00 00 00	 call	 ??$_Uninitialized_move@PAUCallBuff@@PAU1@V?$allocator@UCallBuff@@@std@@@std@@YAPAUCallBuff@@PAU1@00AAV?$allocator@UCallBuff@@@0@@Z ; std::_Uninitialized_move<CallBuff *,CallBuff *,std::allocator<CallBuff> >

; 758  : 			_CATCH_END
; 759  : 
; 760  : 			size_type _Size = size();

  0005a	8b 5e 04	 mov	 ebx, DWORD PTR [esi+4]
  0005d	8b 0e		 mov	 ecx, DWORD PTR [esi]
  0005f	83 c4 18	 add	 esp, 24			; 00000018H
  00062	8b c3		 mov	 eax, ebx
  00064	2b c1		 sub	 eax, ecx
  00066	6a 14		 push	 20			; 00000014H
  00068	99		 cdq
  00069	5f		 pop	 edi
  0006a	f7 ff		 idiv	 edi
  0006c	83 4d fc ff	 or	 DWORD PTR __$EHRec$[ebp+12], -1
  00070	8b f8		 mov	 edi, eax
  00072	85 c9		 test	 ecx, ecx
  00074	74 21		 je	 SHORT $LN54@reserve@3

; 761  : 			if (this->_Myfirst != 0)
; 762  : 				{	// destroy and deallocate old array
; 763  : 				_Destroy(this->_Myfirst, this->_Mylast);

  00076	89 4d ec	 mov	 DWORD PTR $T539020[ebp], ecx
  00079	3b cb		 cmp	 ecx, ebx
  0007b	74 12		 je	 SHORT $LN37@reserve@3
$LN39@reserve@3:
  0007d	8b 4d ec	 mov	 ecx, DWORD PTR $T539020[ebp]
  00080	ff 15 00 00 00
	00		 call	 DWORD PTR __imp_??1ioHashString@@QAE@XZ
  00086	83 45 ec 14	 add	 DWORD PTR $T539020[ebp], 20 ; 00000014H
  0008a	39 5d ec	 cmp	 DWORD PTR $T539020[ebp], ebx
  0008d	75 ee		 jne	 SHORT $LN39@reserve@3
$LN37@reserve@3:

; 764  : 				this->_Alval.deallocate(this->_Myfirst,
; 765  : 					this->_Myend - this->_Myfirst);

  0008f	ff 36		 push	 DWORD PTR [esi]
  00091	e8 00 00 00 00	 call	 ??3@YAXPAX@Z		; operator delete
  00096	59		 pop	 ecx
$LN54@reserve@3:

; 766  : 				}
; 767  : 
; 768  : 			this->_Orphan_all();

  00097	8b ce		 mov	 ecx, esi
  00099	ff 15 00 00 00
	00		 call	 DWORD PTR __imp_?_Orphan_all@_Container_base0@std@@QAEXXZ

; 769  : 			this->_Myend = _Ptr + _Count;
; 770  : 			this->_Mylast = _Ptr + _Size;

  0009f	6b ff 14	 imul	 edi, 20			; 00000014H
  000a2	8b 45 08	 mov	 eax, DWORD PTR __Count$[ebp]
  000a5	8b 4d e8	 mov	 ecx, DWORD PTR __Ptr$531669[ebp]
  000a8	6b c0 14	 imul	 eax, 20			; 00000014H
  000ab	03 c1		 add	 eax, ecx
  000ad	03 f9		 add	 edi, ecx
  000af	89 46 08	 mov	 DWORD PTR [esi+8], eax
  000b2	89 7e 04	 mov	 DWORD PTR [esi+4], edi

; 771  : 			this->_Myfirst = _Ptr;

  000b5	89 0e		 mov	 DWORD PTR [esi], ecx
$LN3@reserve@3:

; 772  : 			}
; 773  : 		}

  000b7	e8 00 00 00 00	 call	 __EH_epilog3
  000bc	c2 04 00	 ret	 4
__catch$?reserve@?$vector@UCallBuff@@V?$allocator@UCallBuff@@@std@@@std@@QAEXI@Z$0:

; 755  : 			_CATCH_ALL
; 756  : 			this->_Alval.deallocate(_Ptr, _Count);

  000bf	ff 75 e8	 push	 DWORD PTR __Ptr$531669[ebp]
  000c2	e8 00 00 00 00	 call	 ??3@YAXPAX@Z		; operator delete
  000c7	59		 pop	 ecx

; 757  : 			_RERAISE;

  000c8	6a 00		 push	 0
  000ca	6a 00		 push	 0
  000cc	e8 00 00 00 00	 call	 __CxxThrowException@8
$LN63@reserve@3:
$LN61@reserve@3:
  000d1	cc		 int	 3
_TEXT	ENDS
;	COMDAT text$x
text$x	SEGMENT
__ehhandler$?reserve@?$vector@UCallBuff@@V?$allocator@UCallBuff@@@std@@@std@@QAEXI@Z:
  00000	8b 54 24 08	 mov	 edx, DWORD PTR [esp+8]
  00004	8d 42 0c	 lea	 eax, DWORD PTR [edx+12]
  00007	8b 4a e4	 mov	 ecx, DWORD PTR [edx-28]
  0000a	33 c8		 xor	 ecx, eax
  0000c	e8 00 00 00 00	 call	 @__security_check_cookie@4
  00011	b8 00 00 00 00	 mov	 eax, OFFSET __ehfuncinfo$?reserve@?$vector@UCallBuff@@V?$allocator@UCallBuff@@@std@@@std@@QAEXI@Z
  00016	e9 00 00 00 00	 jmp	 ___CxxFrameHandler3
text$x	ENDS
?reserve@?$vector@UCallBuff@@V?$allocator@UCallBuff@@@std@@@std@@QAEXI@Z ENDP ; std::vector<CallBuff,std::allocator<CallBuff> >::reserve
PUBLIC	?_Reserve@?$vector@VioHashString@@V?$allocator@VioHashString@@@std@@@std@@IAEXI@Z ; std::vector<ioHashString,std::allocator<ioHashString> >::_Reserve
; Function compile flags: /Ogsp
;	COMDAT ?_Reserve@?$vector@VioHashString@@V?$allocator@VioHashString@@@std@@@std@@IAEXI@Z
_TEXT	SEGMENT
__Count$ = 8						; size = 4
?_Reserve@?$vector@VioHashString@@V?$allocator@VioHashString@@@std@@@std@@IAEXI@Z PROC ; std::vector<ioHashString,std::allocator<ioHashString> >::_Reserve, COMDAT
; _this$ = ecx

; 1290 : 		{	// ensure room for _Count new elements, grow exponentially

  00000	55		 push	 ebp
  00001	8b ec		 mov	 ebp, esp
  00003	56		 push	 esi
  00004	8b f1		 mov	 esi, ecx

; 1291 : 		size_type _Size = size();

  00006	8b 0e		 mov	 ecx, DWORD PTR [esi]
  00008	8b 46 04	 mov	 eax, DWORD PTR [esi+4]
  0000b	2b c1		 sub	 eax, ecx

; 1292 : 		if (max_size() - _Count < _Size)

  0000d	ba ff ff ff 0f	 mov	 edx, 268435455		; 0fffffffH
  00012	2b 55 08	 sub	 edx, DWORD PTR __Count$[ebp]
  00015	c1 f8 04	 sar	 eax, 4
  00018	3b d0		 cmp	 edx, eax
  0001a	73 0b		 jae	 SHORT $LN4@Reserve@2

; 1293 : 			_Xlen();

  0001c	68 00 00 00 00	 push	 OFFSET ??_C@_0BD@OLBABOEK@vector?$DMT?$DO?5too?5long?$AA@
  00021	ff 15 00 00 00
	00		 call	 DWORD PTR __imp_?_Xlength_error@std@@YAXPBD@Z
$LN21@Reserve@2:
$LN4@Reserve@2:

; 1294 : 		else if ((_Size += _Count) <= capacity())

  00027	8b 56 08	 mov	 edx, DWORD PTR [esi+8]
  0002a	03 45 08	 add	 eax, DWORD PTR __Count$[ebp]
  0002d	2b d1		 sub	 edx, ecx
  0002f	c1 fa 04	 sar	 edx, 4
  00032	3b c2		 cmp	 eax, edx
  00034	76 10		 jbe	 SHORT $LN1@Reserve@2

; 1295 : 			;
; 1296 : 		else
; 1297 : 			reserve(_Grow_to(_Size));

  00036	50		 push	 eax
  00037	8b ce		 mov	 ecx, esi
  00039	e8 00 00 00 00	 call	 ?_Grow_to@?$vector@VioHashString@@V?$allocator@VioHashString@@@std@@@std@@IBEII@Z ; std::vector<ioHashString,std::allocator<ioHashString> >::_Grow_to
  0003e	50		 push	 eax
  0003f	8b ce		 mov	 ecx, esi
  00041	e8 00 00 00 00	 call	 ?reserve@?$vector@VioHashString@@V?$allocator@VioHashString@@@std@@@std@@QAEXI@Z ; std::vector<ioHashString,std::allocator<ioHashString> >::reserve
$LN1@Reserve@2:
  00046	5e		 pop	 esi

; 1298 : 		}

  00047	5d		 pop	 ebp
  00048	c2 04 00	 ret	 4
$LN20@Reserve@2:
?_Reserve@?$vector@VioHashString@@V?$allocator@VioHashString@@@std@@@std@@IAEXI@Z ENDP ; std::vector<ioHashString,std::allocator<ioHashString> >::_Reserve
_TEXT	ENDS
PUBLIC	?erase@?$vector@UCallBuff@@V?$allocator@UCallBuff@@@std@@@std@@QAE?AV?$_Vector_iterator@V?$_Vector_val@UCallBuff@@V?$allocator@UCallBuff@@@std@@@std@@@2@V?$_Vector_const_iterator@V?$_Vector_val@UCallBuff@@V?$allocator@UCallBuff@@@std@@@std@@@2@0@Z ; std::vector<CallBuff,std::allocator<CallBuff> >::erase
; Function compile flags: /Ogsp
;	COMDAT ?erase@?$vector@UCallBuff@@V?$allocator@UCallBuff@@@std@@@std@@QAE?AV?$_Vector_iterator@V?$_Vector_val@UCallBuff@@V?$allocator@UCallBuff@@@std@@@std@@@2@V?$_Vector_const_iterator@V?$_Vector_val@UCallBuff@@V?$allocator@UCallBuff@@@std@@@std@@@2@0@Z
_TEXT	SEGMENT
$T539263 = -4						; size = 4
___$ReturnUdt$ = 8					; size = 4
__First_arg$ = 12					; size = 4
__Cat$539193 = 16					; size = 1
__Last_arg$ = 16					; size = 4
?erase@?$vector@UCallBuff@@V?$allocator@UCallBuff@@@std@@@std@@QAE?AV?$_Vector_iterator@V?$_Vector_val@UCallBuff@@V?$allocator@UCallBuff@@@std@@@std@@@2@V?$_Vector_const_iterator@V?$_Vector_val@UCallBuff@@V?$allocator@UCallBuff@@@std@@@std@@@2@0@Z PROC ; std::vector<CallBuff,std::allocator<CallBuff> >::erase, COMDAT
; _this$ = ecx

; 1190 : 		{	// erase [_First, _Last)

  00000	55		 push	 ebp
  00001	8b ec		 mov	 ebp, esp
  00003	51		 push	 ecx

; 1191 : 		iterator _First = _Make_iter(_First_arg);

  00004	8b 45 08	 mov	 eax, DWORD PTR ___$ReturnUdt$[ebp]
  00007	56		 push	 esi
  00008	8b f1		 mov	 esi, ecx
  0000a	8b 4d 0c	 mov	 ecx, DWORD PTR __First_arg$[ebp]
  0000d	89 08		 mov	 DWORD PTR [eax], ecx

; 1192 : 		iterator _Last = _Make_iter(_Last_arg);
; 1193 : 
; 1194 : 		if (_First != _Last)

  0000f	3b 4d 10	 cmp	 ecx, DWORD PTR __Last_arg$[ebp]
  00012	74 38		 je	 SHORT $LN1@erase@2

; 1195 : 			{	// worth doing, copy down over hole
; 1196 :  #if _ITERATOR_DEBUG_LEVEL == 2
; 1197 : 			if (_Last < _First || _VICONT(_First) != this
; 1198 : 				|| _VIPTR(_First) < this->_Myfirst
; 1199 : 				|| this->_Mylast < _VIPTR(_Last))
; 1200 : 				_DEBUG_ERROR("vector erase iterator outside range");
; 1201 : 			pointer _Ptr = _Move(_VIPTR(_Last), this->_Mylast,
; 1202 : 				_VIPTR(_First));
; 1203 : 			_Orphan_range(_VIPTR(_First), this->_Mylast);
; 1204 : 
; 1205 :  #else /* _ITERATOR_DEBUG_LEVEL == 2 */
; 1206 : 			pointer _Ptr = _Move(_VIPTR(_Last), this->_Mylast,
; 1207 : 				_VIPTR(_First));

  00014	8b 46 04	 mov	 eax, DWORD PTR [esi+4]
  00017	53		 push	 ebx
  00018	57		 push	 edi
  00019	ff 75 10	 push	 DWORD PTR __Cat$539193[ebp]
  0001c	51		 push	 ecx
  0001d	50		 push	 eax
  0001e	ff 75 10	 push	 DWORD PTR __Last_arg$[ebp]
  00021	e8 00 00 00 00	 call	 ??$_Move@PAUCallBuff@@PAU1@@std@@YAPAUCallBuff@@PAU1@00U_Nonscalar_ptr_iterator_tag@0@@Z ; std::_Move<CallBuff *,CallBuff *>

; 1208 :  #endif /* _ITERATOR_DEBUG_LEVEL == 2 */
; 1209 : 
; 1210 : 			_Destroy(_Ptr, this->_Mylast);

  00026	8b 7e 04	 mov	 edi, DWORD PTR [esi+4]
  00029	8b d8		 mov	 ebx, eax
  0002b	83 c4 10	 add	 esp, 16			; 00000010H
  0002e	89 5d fc	 mov	 DWORD PTR $T539263[ebp], ebx
  00031	3b df		 cmp	 ebx, edi
  00033	74 12		 je	 SHORT $LN36@erase@2
$LL55@erase@2:
  00035	8b 4d fc	 mov	 ecx, DWORD PTR $T539263[ebp]
  00038	ff 15 00 00 00
	00		 call	 DWORD PTR __imp_??1ioHashString@@QAE@XZ
  0003e	83 45 fc 14	 add	 DWORD PTR $T539263[ebp], 20 ; 00000014H
  00042	39 7d fc	 cmp	 DWORD PTR $T539263[ebp], edi
  00045	75 ee		 jne	 SHORT $LL55@erase@2
$LN36@erase@2:

; 1211 : 			this->_Mylast = _Ptr;

  00047	5f		 pop	 edi
  00048	89 5e 04	 mov	 DWORD PTR [esi+4], ebx
  0004b	5b		 pop	 ebx
$LN1@erase@2:

; 1212 : 			}
; 1213 : 		return (_First);

  0004c	8b 45 08	 mov	 eax, DWORD PTR ___$ReturnUdt$[ebp]
  0004f	5e		 pop	 esi

; 1214 : 		}

  00050	c9		 leave
  00051	c2 0c 00	 ret	 12			; 0000000cH
?erase@?$vector@UCallBuff@@V?$allocator@UCallBuff@@@std@@@std@@QAE?AV?$_Vector_iterator@V?$_Vector_val@UCallBuff@@V?$allocator@UCallBuff@@@std@@@std@@@2@V?$_Vector_const_iterator@V?$_Vector_val@UCallBuff@@V?$allocator@UCallBuff@@@std@@@std@@@2@0@Z ENDP ; std::vector<CallBuff,std::allocator<CallBuff> >::erase
_TEXT	ENDS
PUBLIC	?_Reserve@?$vector@UCallBuff@@V?$allocator@UCallBuff@@@std@@@std@@IAEXI@Z ; std::vector<CallBuff,std::allocator<CallBuff> >::_Reserve
; Function compile flags: /Ogsp
;	COMDAT ?_Reserve@?$vector@UCallBuff@@V?$allocator@UCallBuff@@@std@@@std@@IAEXI@Z
_TEXT	SEGMENT
__Count$ = 8						; size = 4
?_Reserve@?$vector@UCallBuff@@V?$allocator@UCallBuff@@@std@@@std@@IAEXI@Z PROC ; std::vector<CallBuff,std::allocator<CallBuff> >::_Reserve, COMDAT
; _this$ = ecx

; 1290 : 		{	// ensure room for _Count new elements, grow exponentially

  00000	55		 push	 ebp
  00001	8b ec		 mov	 ebp, esp
  00003	56		 push	 esi
  00004	8b f1		 mov	 esi, ecx

; 1291 : 		size_type _Size = size();

  00006	8b 0e		 mov	 ecx, DWORD PTR [esi]
  00008	8b 46 04	 mov	 eax, DWORD PTR [esi+4]
  0000b	2b c1		 sub	 eax, ecx
  0000d	57		 push	 edi
  0000e	99		 cdq
  0000f	6a 14		 push	 20			; 00000014H
  00011	5f		 pop	 edi
  00012	f7 ff		 idiv	 edi
  00014	8b f8		 mov	 edi, eax

; 1292 : 		if (max_size() - _Count < _Size)

  00016	b8 cc cc cc 0c	 mov	 eax, 214748364		; 0cccccccH
  0001b	2b 45 08	 sub	 eax, DWORD PTR __Count$[ebp]
  0001e	3b c7		 cmp	 eax, edi
  00020	73 0b		 jae	 SHORT $LN4@Reserve@3

; 1293 : 			_Xlen();

  00022	68 00 00 00 00	 push	 OFFSET ??_C@_0BD@OLBABOEK@vector?$DMT?$DO?5too?5long?$AA@
  00027	ff 15 00 00 00
	00		 call	 DWORD PTR __imp_?_Xlength_error@std@@YAXPBD@Z
$LN21@Reserve@3:
$LN4@Reserve@3:

; 1294 : 		else if ((_Size += _Count) <= capacity())

  0002d	8b 46 08	 mov	 eax, DWORD PTR [esi+8]
  00030	2b c1		 sub	 eax, ecx
  00032	6a 14		 push	 20			; 00000014H
  00034	99		 cdq
  00035	59		 pop	 ecx
  00036	f7 f9		 idiv	 ecx
  00038	03 7d 08	 add	 edi, DWORD PTR __Count$[ebp]
  0003b	3b f8		 cmp	 edi, eax
  0003d	76 10		 jbe	 SHORT $LN1@Reserve@3

; 1295 : 			;
; 1296 : 		else
; 1297 : 			reserve(_Grow_to(_Size));

  0003f	57		 push	 edi
  00040	8b ce		 mov	 ecx, esi
  00042	e8 00 00 00 00	 call	 ?_Grow_to@?$vector@UCallBuff@@V?$allocator@UCallBuff@@@std@@@std@@IBEII@Z ; std::vector<CallBuff,std::allocator<CallBuff> >::_Grow_to
  00047	50		 push	 eax
  00048	8b ce		 mov	 ecx, esi
  0004a	e8 00 00 00 00	 call	 ?reserve@?$vector@UCallBuff@@V?$allocator@UCallBuff@@@std@@@std@@QAEXI@Z ; std::vector<CallBuff,std::allocator<CallBuff> >::reserve
$LN1@Reserve@3:
  0004f	5f		 pop	 edi
  00050	5e		 pop	 esi

; 1298 : 		}

  00051	5d		 pop	 ebp
  00052	c2 04 00	 ret	 4
$LN20@Reserve@3:
?_Reserve@?$vector@UCallBuff@@V?$allocator@UCallBuff@@@std@@@std@@IAEXI@Z ENDP ; std::vector<CallBuff,std::allocator<CallBuff> >::_Reserve
_TEXT	ENDS
PUBLIC	??$_Sort@PAUCallBuff@@HVCallBuffSort@@@std@@YAXPAUCallBuff@@0HVCallBuffSort@@@Z ; std::_Sort<CallBuff *,int,CallBuffSort>
; Function compile flags: /Ogsp
; File c:\program files (x86)\microsoft visual studio 10.0\vc\include\algorithm
;	COMDAT ??$_Sort@PAUCallBuff@@HVCallBuffSort@@@std@@YAXPAUCallBuff@@0HVCallBuffSort@@@Z
_TEXT	SEGMENT
__Mid$533517 = -8					; size = 8
__First$ = 8						; size = 4
__Last$ = 12						; size = 4
__Ideal$ = 16						; size = 4
__Pred$ = 20						; size = 1
??$_Sort@PAUCallBuff@@HVCallBuffSort@@@std@@YAXPAUCallBuff@@0HVCallBuffSort@@@Z PROC ; std::_Sort<CallBuff *,int,CallBuffSort>, COMDAT

; 3771 : 	{	// order [_First, _Last), using _Pred

  00000	55		 push	 ebp
  00001	8b ec		 mov	 ebp, esp
  00003	51		 push	 ecx
  00004	51		 push	 ecx
  00005	53		 push	 ebx

; 3772 : 	_Diff _Count;
; 3773 : 	for (; _ISORT_MAX < (_Count = _Last - _First) && 0 < _Ideal; )

  00006	8b 5d 08	 mov	 ebx, DWORD PTR __First$[ebp]
  00009	57		 push	 edi
  0000a	8b 7d 0c	 mov	 edi, DWORD PTR __Last$[ebp]
  0000d	8b c7		 mov	 eax, edi
  0000f	2b c3		 sub	 eax, ebx
  00011	6a 14		 push	 20			; 00000014H
  00013	99		 cdq
  00014	59		 pop	 ecx
  00015	f7 f9		 idiv	 ecx
  00017	83 f8 20	 cmp	 eax, 32			; 00000020H
  0001a	0f 8e 9c 00 00
	00		 jle	 $LN22@Sort
  00020	56		 push	 esi
  00021	8b 75 10	 mov	 esi, DWORD PTR __Ideal$[ebp]
$LL7@Sort:
  00024	85 f6		 test	 esi, esi
  00026	7e 75		 jle	 SHORT $LN6@Sort

; 3774 : 		{	// divide and conquer by quicksort
; 3775 : 		_STD pair<_RanIt, _RanIt> _Mid =
; 3776 : 			_Unguarded_partition(_First, _Last, _Pred);

  00028	ff 75 14	 push	 DWORD PTR __Pred$[ebp]
  0002b	8d 45 f8	 lea	 eax, DWORD PTR __Mid$533517[ebp]
  0002e	57		 push	 edi
  0002f	53		 push	 ebx
  00030	50		 push	 eax
  00031	e8 00 00 00 00	 call	 ??$_Unguarded_partition@PAUCallBuff@@VCallBuffSort@@@std@@YA?AU?$pair@PAUCallBuff@@PAU1@@0@PAUCallBuff@@0VCallBuffSort@@@Z ; std::_Unguarded_partition<CallBuff *,CallBuffSort>

; 3777 : 		_Ideal /= 2, _Ideal += _Ideal / 2;	// allow 1.5 log2(N) divisions

  00036	8b c6		 mov	 eax, esi
  00038	99		 cdq
  00039	2b c2		 sub	 eax, edx
  0003b	d1 f8		 sar	 eax, 1
  0003d	8b f0		 mov	 esi, eax
  0003f	99		 cdq
  00040	2b c2		 sub	 eax, edx
  00042	d1 f8		 sar	 eax, 1
  00044	03 f0		 add	 esi, eax
  00046	83 c4 10	 add	 esp, 16			; 00000010H

; 3778 : 
; 3779 : 		if (_Mid.first - _First < _Last - _Mid.second)

  00049	8b c7		 mov	 eax, edi
  0004b	2b 45 fc	 sub	 eax, DWORD PTR __Mid$533517[ebp+4]
  0004e	6a 14		 push	 20			; 00000014H
  00050	99		 cdq
  00051	59		 pop	 ecx
  00052	f7 f9		 idiv	 ecx
  00054	6a 14		 push	 20			; 00000014H
  00056	8b c8		 mov	 ecx, eax
  00058	8b 45 f8	 mov	 eax, DWORD PTR __Mid$533517[ebp]
  0005b	2b c3		 sub	 eax, ebx
  0005d	5b		 pop	 ebx
  0005e	99		 cdq
  0005f	f7 fb		 idiv	 ebx

; 3780 : 			{	// loop on second half
; 3781 : 			_Sort(_First, _Mid.first, _Ideal, _Pred);

  00061	ff 75 14	 push	 DWORD PTR __Pred$[ebp]
  00064	56		 push	 esi
  00065	3b c1		 cmp	 eax, ecx
  00067	7d 13		 jge	 SHORT $LN5@Sort
  00069	ff 75 f8	 push	 DWORD PTR __Mid$533517[ebp]
  0006c	ff 75 08	 push	 DWORD PTR __First$[ebp]
  0006f	e8 00 00 00 00	 call	 ??$_Sort@PAUCallBuff@@HVCallBuffSort@@@std@@YAXPAUCallBuff@@0HVCallBuffSort@@@Z ; std::_Sort<CallBuff *,int,CallBuffSort>

; 3782 : 			_First = _Mid.second;

  00074	8b 5d fc	 mov	 ebx, DWORD PTR __Mid$533517[ebp+4]
  00077	89 5d 08	 mov	 DWORD PTR __First$[ebp], ebx

; 3783 : 			}
; 3784 : 		else

  0007a	eb 0f		 jmp	 SHORT $LN23@Sort
$LN5@Sort:

; 3785 : 			{	// loop on first half
; 3786 : 			_Sort(_Mid.second, _Last, _Ideal, _Pred);

  0007c	57		 push	 edi
  0007d	ff 75 fc	 push	 DWORD PTR __Mid$533517[ebp+4]
  00080	e8 00 00 00 00	 call	 ??$_Sort@PAUCallBuff@@HVCallBuffSort@@@std@@YAXPAUCallBuff@@0HVCallBuffSort@@@Z ; std::_Sort<CallBuff *,int,CallBuffSort>

; 3787 : 			_Last = _Mid.first;

  00085	8b 7d f8	 mov	 edi, DWORD PTR __Mid$533517[ebp]
  00088	8b 5d 08	 mov	 ebx, DWORD PTR __First$[ebp]
$LN23@Sort:

; 3772 : 	_Diff _Count;
; 3773 : 	for (; _ISORT_MAX < (_Count = _Last - _First) && 0 < _Ideal; )

  0008b	83 c4 10	 add	 esp, 16			; 00000010H
  0008e	8b c7		 mov	 eax, edi
  00090	2b c3		 sub	 eax, ebx
  00092	6a 14		 push	 20			; 00000014H
  00094	99		 cdq
  00095	59		 pop	 ecx
  00096	f7 f9		 idiv	 ecx
  00098	83 f8 20	 cmp	 eax, 32			; 00000020H
  0009b	7f 87		 jg	 SHORT $LL7@Sort
$LN6@Sort:
  0009d	5e		 pop	 esi

; 3788 : 			}
; 3789 : 		}
; 3790 : 
; 3791 : 	if (_ISORT_MAX < _Count)

  0009e	83 f8 20	 cmp	 eax, 32			; 00000020H
  000a1	7e 19		 jle	 SHORT $LN22@Sort

; 3792 : 		{	// heap sort if too many divisions
; 3793 : 		_STD make_heap(_First, _Last, _Pred);

  000a3	ff 75 14	 push	 DWORD PTR __Pred$[ebp]
  000a6	57		 push	 edi
  000a7	53		 push	 ebx
  000a8	e8 00 00 00 00	 call	 ??$make_heap@PAUCallBuff@@VCallBuffSort@@@std@@YAXPAUCallBuff@@0VCallBuffSort@@@Z ; std::make_heap<CallBuff *,CallBuffSort>

; 3794 : 		_STD sort_heap(_First, _Last, _Pred);

  000ad	ff 75 14	 push	 DWORD PTR __Pred$[ebp]
  000b0	57		 push	 edi
  000b1	53		 push	 ebx
  000b2	e8 00 00 00 00	 call	 ??$_Sort_heap@PAUCallBuff@@VCallBuffSort@@@std@@YAXPAUCallBuff@@0VCallBuffSort@@@Z ; std::_Sort_heap<CallBuff *,CallBuffSort>
  000b7	83 c4 18	 add	 esp, 24			; 00000018H
  000ba	eb 14		 jmp	 SHORT $LN16@Sort
$LN22@Sort:

; 3795 : 		}
; 3796 : 	else if (1 < _Count)

  000bc	83 f8 01	 cmp	 eax, 1
  000bf	7e 0f		 jle	 SHORT $LN16@Sort

; 3797 : 		_Insertion_sort(_First, _Last, _Pred);	// small

  000c1	6a 00		 push	 0
  000c3	ff 75 14	 push	 DWORD PTR __Pred$[ebp]
  000c6	57		 push	 edi
  000c7	53		 push	 ebx
  000c8	e8 00 00 00 00	 call	 ??$_Insertion_sort1@PAUCallBuff@@VCallBuffSort@@U1@@std@@YAXPAUCallBuff@@0VCallBuffSort@@0@Z ; std::_Insertion_sort1<CallBuff *,CallBuffSort,CallBuff>
  000cd	83 c4 10	 add	 esp, 16			; 00000010H
$LN16@Sort:
  000d0	5f		 pop	 edi
  000d1	5b		 pop	 ebx

; 3798 : 	}

  000d2	c9		 leave
  000d3	c3		 ret	 0
??$_Sort@PAUCallBuff@@HVCallBuffSort@@@std@@YAXPAUCallBuff@@0HVCallBuffSort@@@Z ENDP ; std::_Sort<CallBuff *,int,CallBuffSort>
_TEXT	ENDS
PUBLIC	?erase@?$vector@VioHashString@@V?$allocator@VioHashString@@@std@@@std@@QAE?AV?$_Vector_iterator@V?$_Vector_val@VioHashString@@V?$allocator@VioHashString@@@std@@@std@@@2@V?$_Vector_const_iterator@V?$_Vector_val@VioHashString@@V?$allocator@VioHashString@@@std@@@std@@@2@0@Z ; std::vector<ioHashString,std::allocator<ioHashString> >::erase
; Function compile flags: /Ogsp
; File c:\program files (x86)\microsoft visual studio 10.0\vc\include\vector
;	COMDAT ?erase@?$vector@VioHashString@@V?$allocator@VioHashString@@@std@@@std@@QAE?AV?$_Vector_iterator@V?$_Vector_val@VioHashString@@V?$allocator@VioHashString@@@std@@@std@@@2@V?$_Vector_const_iterator@V?$_Vector_val@VioHashString@@V?$allocator@VioHashString@@@std@@@std@@@2@0@Z
_TEXT	SEGMENT
$T539501 = -4						; size = 4
___$ReturnUdt$ = 8					; size = 4
__First_arg$ = 12					; size = 4
__Cat$539445 = 16					; size = 1
__Last_arg$ = 16					; size = 4
?erase@?$vector@VioHashString@@V?$allocator@VioHashString@@@std@@@std@@QAE?AV?$_Vector_iterator@V?$_Vector_val@VioHashString@@V?$allocator@VioHashString@@@std@@@std@@@2@V?$_Vector_const_iterator@V?$_Vector_val@VioHashString@@V?$allocator@VioHashString@@@std@@@std@@@2@0@Z PROC ; std::vector<ioHashString,std::allocator<ioHashString> >::erase, COMDAT
; _this$ = ecx

; 1190 : 		{	// erase [_First, _Last)

  00000	55		 push	 ebp
  00001	8b ec		 mov	 ebp, esp
  00003	51		 push	 ecx

; 1191 : 		iterator _First = _Make_iter(_First_arg);

  00004	8b 45 08	 mov	 eax, DWORD PTR ___$ReturnUdt$[ebp]
  00007	56		 push	 esi
  00008	8b f1		 mov	 esi, ecx
  0000a	8b 4d 0c	 mov	 ecx, DWORD PTR __First_arg$[ebp]
  0000d	89 08		 mov	 DWORD PTR [eax], ecx

; 1192 : 		iterator _Last = _Make_iter(_Last_arg);
; 1193 : 
; 1194 : 		if (_First != _Last)

  0000f	3b 4d 10	 cmp	 ecx, DWORD PTR __Last_arg$[ebp]
  00012	74 38		 je	 SHORT $LN1@erase@3

; 1195 : 			{	// worth doing, copy down over hole
; 1196 :  #if _ITERATOR_DEBUG_LEVEL == 2
; 1197 : 			if (_Last < _First || _VICONT(_First) != this
; 1198 : 				|| _VIPTR(_First) < this->_Myfirst
; 1199 : 				|| this->_Mylast < _VIPTR(_Last))
; 1200 : 				_DEBUG_ERROR("vector erase iterator outside range");
; 1201 : 			pointer _Ptr = _Move(_VIPTR(_Last), this->_Mylast,
; 1202 : 				_VIPTR(_First));
; 1203 : 			_Orphan_range(_VIPTR(_First), this->_Mylast);
; 1204 : 
; 1205 :  #else /* _ITERATOR_DEBUG_LEVEL == 2 */
; 1206 : 			pointer _Ptr = _Move(_VIPTR(_Last), this->_Mylast,
; 1207 : 				_VIPTR(_First));

  00014	8b 46 04	 mov	 eax, DWORD PTR [esi+4]
  00017	53		 push	 ebx
  00018	57		 push	 edi
  00019	ff 75 10	 push	 DWORD PTR __Cat$539445[ebp]
  0001c	51		 push	 ecx
  0001d	50		 push	 eax
  0001e	ff 75 10	 push	 DWORD PTR __Last_arg$[ebp]
  00021	e8 00 00 00 00	 call	 ??$_Move@PAVioHashString@@PAV1@@std@@YAPAVioHashString@@PAV1@00U_Nonscalar_ptr_iterator_tag@0@@Z ; std::_Move<ioHashString *,ioHashString *>

; 1208 :  #endif /* _ITERATOR_DEBUG_LEVEL == 2 */
; 1209 : 
; 1210 : 			_Destroy(_Ptr, this->_Mylast);

  00026	8b 7e 04	 mov	 edi, DWORD PTR [esi+4]
  00029	8b d8		 mov	 ebx, eax
  0002b	83 c4 10	 add	 esp, 16			; 00000010H
  0002e	89 5d fc	 mov	 DWORD PTR $T539501[ebp], ebx
  00031	3b df		 cmp	 ebx, edi
  00033	74 12		 je	 SHORT $LN36@erase@3
$LL52@erase@3:
  00035	8b 4d fc	 mov	 ecx, DWORD PTR $T539501[ebp]
  00038	ff 15 00 00 00
	00		 call	 DWORD PTR __imp_??1ioHashString@@QAE@XZ
  0003e	83 45 fc 10	 add	 DWORD PTR $T539501[ebp], 16 ; 00000010H
  00042	39 7d fc	 cmp	 DWORD PTR $T539501[ebp], edi
  00045	75 ee		 jne	 SHORT $LL52@erase@3
$LN36@erase@3:

; 1211 : 			this->_Mylast = _Ptr;

  00047	5f		 pop	 edi
  00048	89 5e 04	 mov	 DWORD PTR [esi+4], ebx
  0004b	5b		 pop	 ebx
$LN1@erase@3:

; 1212 : 			}
; 1213 : 		return (_First);

  0004c	8b 45 08	 mov	 eax, DWORD PTR ___$ReturnUdt$[ebp]
  0004f	5e		 pop	 esi

; 1214 : 		}

  00050	c9		 leave
  00051	c2 0c 00	 ret	 12			; 0000000cH
?erase@?$vector@VioHashString@@V?$allocator@VioHashString@@@std@@@std@@QAE?AV?$_Vector_iterator@V?$_Vector_val@VioHashString@@V?$allocator@VioHashString@@@std@@@std@@@2@V?$_Vector_const_iterator@V?$_Vector_val@VioHashString@@V?$allocator@VioHashString@@@std@@@std@@@2@0@Z ENDP ; std::vector<ioHashString,std::allocator<ioHashString> >::erase
_TEXT	ENDS
PUBLIC	?_Tidy@?$vector@VioHashString@@V?$allocator@VioHashString@@@std@@@std@@IAEXXZ ; std::vector<ioHashString,std::allocator<ioHashString> >::_Tidy
; Function compile flags: /Ogsp
;	COMDAT ?_Tidy@?$vector@VioHashString@@V?$allocator@VioHashString@@@std@@@std@@IAEXXZ
_TEXT	SEGMENT
?_Tidy@?$vector@VioHashString@@V?$allocator@VioHashString@@@std@@@std@@IAEXXZ PROC ; std::vector<ioHashString,std::allocator<ioHashString> >::_Tidy, COMDAT
; _this$ = ecx

; 1301 : 		{	// free all storage

  00000	56		 push	 esi
  00001	8b f1		 mov	 esi, ecx

; 1302 : 		if (this->_Myfirst != 0)

  00003	83 3e 00	 cmp	 DWORD PTR [esi], 0
  00006	74 28		 je	 SHORT $LN24@Tidy@3

; 1303 : 			{	// something to free, destroy and deallocate it
; 1304 : 			this->_Orphan_all();

  00008	53		 push	 ebx
  00009	57		 push	 edi
  0000a	ff 15 00 00 00
	00		 call	 DWORD PTR __imp_?_Orphan_all@_Container_base0@std@@QAEXXZ

; 1305 : 			_Destroy(this->_Myfirst, this->_Mylast);

  00010	8b 5e 04	 mov	 ebx, DWORD PTR [esi+4]
  00013	8b 3e		 mov	 edi, DWORD PTR [esi]
  00015	eb 0b		 jmp	 SHORT $LN28@Tidy@3
$LL12@Tidy@3:
  00017	8b cf		 mov	 ecx, edi
  00019	ff 15 00 00 00
	00		 call	 DWORD PTR __imp_??1ioHashString@@QAE@XZ
  0001f	83 c7 10	 add	 edi, 16			; 00000010H
$LN28@Tidy@3:
  00022	3b fb		 cmp	 edi, ebx
  00024	75 f1		 jne	 SHORT $LL12@Tidy@3

; 1306 : 			this->_Alval.deallocate(this->_Myfirst,
; 1307 : 				this->_Myend - this->_Myfirst);

  00026	ff 36		 push	 DWORD PTR [esi]
  00028	e8 00 00 00 00	 call	 ??3@YAXPAX@Z		; operator delete
  0002d	59		 pop	 ecx
  0002e	5f		 pop	 edi
  0002f	5b		 pop	 ebx
$LN24@Tidy@3:

; 1308 : 			}
; 1309 : 		this->_Myfirst = 0;

  00030	33 c0		 xor	 eax, eax
  00032	89 06		 mov	 DWORD PTR [esi], eax

; 1310 : 		this->_Mylast = 0;

  00034	89 46 04	 mov	 DWORD PTR [esi+4], eax

; 1311 : 		this->_Myend = 0;

  00037	89 46 08	 mov	 DWORD PTR [esi+8], eax
  0003a	5e		 pop	 esi

; 1312 : 		}

  0003b	c3		 ret	 0
?_Tidy@?$vector@VioHashString@@V?$allocator@VioHashString@@@std@@@std@@IAEXXZ ENDP ; std::vector<ioHashString,std::allocator<ioHashString> >::_Tidy
_TEXT	ENDS
PUBLIC	?push_back@?$vector@VioHashString@@V?$allocator@VioHashString@@@std@@@std@@QAEXABVioHashString@@@Z ; std::vector<ioHashString,std::allocator<ioHashString> >::push_back
; Function compile flags: /Ogsp
;	COMDAT ?push_back@?$vector@VioHashString@@V?$allocator@VioHashString@@@std@@@std@@QAEXABVioHashString@@@Z
_TEXT	SEGMENT
__Val$ = 8						; size = 4
?push_back@?$vector@VioHashString@@V?$allocator@VioHashString@@@std@@@std@@QAEXABVioHashString@@@Z PROC ; std::vector<ioHashString,std::allocator<ioHashString> >::push_back, COMDAT
; _this$ = ecx

; 976  : 		{	// insert element at end

  00000	55		 push	 ebp
  00001	8b ec		 mov	 ebp, esp
  00003	56		 push	 esi
  00004	8b f1		 mov	 esi, ecx

; 977  : 		if (_Inside(_STD addressof(_Val)))

  00006	8b 46 04	 mov	 eax, DWORD PTR [esi+4]
  00009	57		 push	 edi
  0000a	8b 7d 08	 mov	 edi, DWORD PTR __Val$[ebp]
  0000d	3b f8		 cmp	 edi, eax
  0000f	73 29		 jae	 SHORT $LN4@push_back@2
  00011	8b 0e		 mov	 ecx, DWORD PTR [esi]
  00013	3b cf		 cmp	 ecx, edi
  00015	77 23		 ja	 SHORT $LN4@push_back@2

; 978  : 			{	// push back an element
; 979  : 			size_type _Idx = _STD addressof(_Val) - this->_Myfirst;

  00017	2b f9		 sub	 edi, ecx

; 980  : 			if (this->_Mylast == this->_Myend)

  00019	3b 46 08	 cmp	 eax, DWORD PTR [esi+8]
  0001c	75 09		 jne	 SHORT $LN3@push_back@2

; 981  : 				_Reserve(1);

  0001e	6a 01		 push	 1
  00020	8b ce		 mov	 ecx, esi
  00022	e8 00 00 00 00	 call	 ?_Reserve@?$vector@VioHashString@@V?$allocator@VioHashString@@@std@@@std@@IAEXI@Z ; std::vector<ioHashString,std::allocator<ioHashString> >::_Reserve
$LN3@push_back@2:

; 982  : 			_Orphan_range(this->_Mylast, this->_Mylast);
; 983  : 			_Cons_val(this->_Alval,
; 984  : 				this->_Mylast,
; 985  : 				this->_Myfirst[_Idx]);

  00027	83 e7 f0	 and	 edi, -16		; fffffff0H
  0002a	03 3e		 add	 edi, DWORD PTR [esi]
  0002c	8d 4e 0c	 lea	 ecx, DWORD PTR [esi+12]
  0002f	57		 push	 edi
  00030	ff 76 04	 push	 DWORD PTR [esi+4]
  00033	e8 00 00 00 00	 call	 ??$construct@AAVioHashString@@@?$allocator@VioHashString@@@std@@QAEXPAVioHashString@@AAV2@@Z ; std::allocator<ioHashString>::construct<ioHashString &>

; 986  : 			++this->_Mylast;
; 987  : 			}
; 988  : 		else

  00038	eb 19		 jmp	 SHORT $LN30@push_back@2
$LN4@push_back@2:

; 989  : 			{	// push back a non-element
; 990  : 			if (this->_Mylast == this->_Myend)

  0003a	3b 46 08	 cmp	 eax, DWORD PTR [esi+8]
  0003d	75 09		 jne	 SHORT $LN1@push_back@2

; 991  : 				_Reserve(1);

  0003f	6a 01		 push	 1
  00041	8b ce		 mov	 ecx, esi
  00043	e8 00 00 00 00	 call	 ?_Reserve@?$vector@VioHashString@@V?$allocator@VioHashString@@@std@@@std@@IAEXI@Z ; std::vector<ioHashString,std::allocator<ioHashString> >::_Reserve
$LN1@push_back@2:

; 992  : 			_Orphan_range(this->_Mylast, this->_Mylast);
; 993  : 			_Cons_val(this->_Alval,
; 994  : 				this->_Mylast,
; 995  : 				_Val);

  00048	57		 push	 edi
  00049	ff 76 04	 push	 DWORD PTR [esi+4]
  0004c	e8 00 00 00 00	 call	 ??$_Construct@VioHashString@@ABV1@@std@@YAXPAVioHashString@@ABV1@@Z ; std::_Construct<ioHashString,ioHashString const &>
  00051	59		 pop	 ecx
  00052	59		 pop	 ecx
$LN30@push_back@2:

; 996  : 			++this->_Mylast;

  00053	83 46 04 10	 add	 DWORD PTR [esi+4], 16	; 00000010H
  00057	5f		 pop	 edi
  00058	5e		 pop	 esi

; 997  : 			}
; 998  : 		}

  00059	5d		 pop	 ebp
  0005a	c2 04 00	 ret	 4
?push_back@?$vector@VioHashString@@V?$allocator@VioHashString@@@std@@@std@@QAEXABVioHashString@@@Z ENDP ; std::vector<ioHashString,std::allocator<ioHashString> >::push_back
_TEXT	ENDS
PUBLIC	?push_back@?$vector@UCallBuff@@V?$allocator@UCallBuff@@@std@@@std@@QAEXABUCallBuff@@@Z ; std::vector<CallBuff,std::allocator<CallBuff> >::push_back
; Function compile flags: /Ogsp
;	COMDAT ?push_back@?$vector@UCallBuff@@V?$allocator@UCallBuff@@@std@@@std@@QAEXABUCallBuff@@@Z
_TEXT	SEGMENT
__Val$ = 8						; size = 4
?push_back@?$vector@UCallBuff@@V?$allocator@UCallBuff@@@std@@@std@@QAEXABUCallBuff@@@Z PROC ; std::vector<CallBuff,std::allocator<CallBuff> >::push_back, COMDAT
; _this$ = ecx

; 976  : 		{	// insert element at end

  00000	55		 push	 ebp
  00001	8b ec		 mov	 ebp, esp
  00003	56		 push	 esi
  00004	8b f1		 mov	 esi, ecx

; 977  : 		if (_Inside(_STD addressof(_Val)))

  00006	8b 4e 04	 mov	 ecx, DWORD PTR [esi+4]
  00009	57		 push	 edi
  0000a	8b 7d 08	 mov	 edi, DWORD PTR __Val$[ebp]
  0000d	3b f9		 cmp	 edi, ecx
  0000f	73 33		 jae	 SHORT $LN4@push_back@3
  00011	8b 16		 mov	 edx, DWORD PTR [esi]
  00013	3b d7		 cmp	 edx, edi
  00015	77 2d		 ja	 SHORT $LN4@push_back@3

; 978  : 			{	// push back an element
; 979  : 			size_type _Idx = _STD addressof(_Val) - this->_Myfirst;

  00017	8b c7		 mov	 eax, edi
  00019	2b c2		 sub	 eax, edx
  0001b	6a 14		 push	 20			; 00000014H
  0001d	99		 cdq
  0001e	5f		 pop	 edi
  0001f	f7 ff		 idiv	 edi
  00021	8b f8		 mov	 edi, eax

; 980  : 			if (this->_Mylast == this->_Myend)

  00023	3b 4e 08	 cmp	 ecx, DWORD PTR [esi+8]
  00026	75 09		 jne	 SHORT $LN3@push_back@3

; 981  : 				_Reserve(1);

  00028	6a 01		 push	 1
  0002a	8b ce		 mov	 ecx, esi
  0002c	e8 00 00 00 00	 call	 ?_Reserve@?$vector@UCallBuff@@V?$allocator@UCallBuff@@@std@@@std@@IAEXI@Z ; std::vector<CallBuff,std::allocator<CallBuff> >::_Reserve
$LN3@push_back@3:

; 982  : 			_Orphan_range(this->_Mylast, this->_Mylast);
; 983  : 			_Cons_val(this->_Alval,
; 984  : 				this->_Mylast,
; 985  : 				this->_Myfirst[_Idx]);

  00031	6b ff 14	 imul	 edi, 20			; 00000014H
  00034	03 3e		 add	 edi, DWORD PTR [esi]
  00036	8d 4e 0c	 lea	 ecx, DWORD PTR [esi+12]
  00039	57		 push	 edi
  0003a	ff 76 04	 push	 DWORD PTR [esi+4]
  0003d	e8 00 00 00 00	 call	 ??$construct@AAUCallBuff@@@?$allocator@UCallBuff@@@std@@QAEXPAUCallBuff@@AAU2@@Z ; std::allocator<CallBuff>::construct<CallBuff &>

; 986  : 			++this->_Mylast;
; 987  : 			}
; 988  : 		else

  00042	eb 19		 jmp	 SHORT $LN30@push_back@3
$LN4@push_back@3:

; 989  : 			{	// push back a non-element
; 990  : 			if (this->_Mylast == this->_Myend)

  00044	3b 4e 08	 cmp	 ecx, DWORD PTR [esi+8]
  00047	75 09		 jne	 SHORT $LN1@push_back@3

; 991  : 				_Reserve(1);

  00049	6a 01		 push	 1
  0004b	8b ce		 mov	 ecx, esi
  0004d	e8 00 00 00 00	 call	 ?_Reserve@?$vector@UCallBuff@@V?$allocator@UCallBuff@@@std@@@std@@IAEXI@Z ; std::vector<CallBuff,std::allocator<CallBuff> >::_Reserve
$LN1@push_back@3:

; 992  : 			_Orphan_range(this->_Mylast, this->_Mylast);
; 993  : 			_Cons_val(this->_Alval,
; 994  : 				this->_Mylast,
; 995  : 				_Val);

  00052	57		 push	 edi
  00053	ff 76 04	 push	 DWORD PTR [esi+4]
  00056	e8 00 00 00 00	 call	 ??$_Construct@UCallBuff@@ABU1@@std@@YAXPAUCallBuff@@ABU1@@Z ; std::_Construct<CallBuff,CallBuff const &>
  0005b	59		 pop	 ecx
  0005c	59		 pop	 ecx
$LN30@push_back@3:

; 996  : 			++this->_Mylast;

  0005d	83 46 04 14	 add	 DWORD PTR [esi+4], 20	; 00000014H
  00061	5f		 pop	 edi
  00062	5e		 pop	 esi

; 997  : 			}
; 998  : 		}

  00063	5d		 pop	 ebp
  00064	c2 04 00	 ret	 4
?push_back@?$vector@UCallBuff@@V?$allocator@UCallBuff@@@std@@@std@@QAEXABUCallBuff@@@Z ENDP ; std::vector<CallBuff,std::allocator<CallBuff> >::push_back
_TEXT	ENDS
PUBLIC	?clear@?$vector@UCallBuff@@V?$allocator@UCallBuff@@@std@@@std@@QAEXXZ ; std::vector<CallBuff,std::allocator<CallBuff> >::clear
; Function compile flags: /Ogsp
;	COMDAT ?clear@?$vector@UCallBuff@@V?$allocator@UCallBuff@@@std@@@std@@QAEXXZ
_TEXT	SEGMENT
$T539754 = -4						; size = 4
?clear@?$vector@UCallBuff@@V?$allocator@UCallBuff@@@std@@@std@@QAEXXZ PROC ; std::vector<CallBuff,std::allocator<CallBuff> >::clear, COMDAT
; _this$ = ecx

; 1217 : 		{	// erase all

  00000	55		 push	 ebp
  00001	8b ec		 mov	 ebp, esp
  00003	51		 push	 ecx

; 1218 : 		erase(begin(), end());

  00004	8b 41 04	 mov	 eax, DWORD PTR [ecx+4]
  00007	8b 11		 mov	 edx, DWORD PTR [ecx]
  00009	50		 push	 eax
  0000a	52		 push	 edx
  0000b	8d 45 fc	 lea	 eax, DWORD PTR $T539754[ebp]
  0000e	50		 push	 eax
  0000f	e8 00 00 00 00	 call	 ?erase@?$vector@UCallBuff@@V?$allocator@UCallBuff@@@std@@@std@@QAE?AV?$_Vector_iterator@V?$_Vector_val@UCallBuff@@V?$allocator@UCallBuff@@@std@@@std@@@2@V?$_Vector_const_iterator@V?$_Vector_val@UCallBuff@@V?$allocator@UCallBuff@@@std@@@std@@@2@0@Z ; std::vector<CallBuff,std::allocator<CallBuff> >::erase

; 1219 : 		}

  00014	c9		 leave
  00015	c3		 ret	 0
?clear@?$vector@UCallBuff@@V?$allocator@UCallBuff@@@std@@@std@@QAEXXZ ENDP ; std::vector<CallBuff,std::allocator<CallBuff> >::clear
_TEXT	ENDS
PUBLIC	??$sort@V?$_Vector_iterator@V?$_Vector_val@UCallBuff@@V?$allocator@UCallBuff@@@std@@@std@@@std@@VCallBuffSort@@@std@@YAXV?$_Vector_iterator@V?$_Vector_val@UCallBuff@@V?$allocator@UCallBuff@@@std@@@std@@@0@0VCallBuffSort@@@Z ; std::sort<std::_Vector_iterator<std::_Vector_val<CallBuff,std::allocator<CallBuff> > >,CallBuffSort>
; Function compile flags: /Ogsp
; File c:\program files (x86)\microsoft visual studio 10.0\vc\include\algorithm
;	COMDAT ??$sort@V?$_Vector_iterator@V?$_Vector_val@UCallBuff@@V?$allocator@UCallBuff@@@std@@@std@@@std@@VCallBuffSort@@@std@@YAXV?$_Vector_iterator@V?$_Vector_val@UCallBuff@@V?$allocator@UCallBuff@@@std@@@std@@@0@0VCallBuffSort@@@Z
_TEXT	SEGMENT
__First$ = 8						; size = 4
__Last$ = 12						; size = 4
__Pred$ = 16						; size = 1
??$sort@V?$_Vector_iterator@V?$_Vector_val@UCallBuff@@V?$allocator@UCallBuff@@@std@@@std@@@std@@VCallBuffSort@@@std@@YAXV?$_Vector_iterator@V?$_Vector_val@UCallBuff@@V?$allocator@UCallBuff@@@std@@@std@@@0@0VCallBuffSort@@@Z PROC ; std::sort<std::_Vector_iterator<std::_Vector_val<CallBuff,std::allocator<CallBuff> > >,CallBuffSort>, COMDAT

; 3803 : 	{	// order [_First, _Last), using _Pred

  00000	55		 push	 ebp
  00001	8b ec		 mov	 ebp, esp

; 3804 : 	_DEBUG_RANGE(_First, _Last);
; 3805 : 	_DEBUG_POINTER(_Pred);
; 3806 : 	_Sort(_Unchecked(_First), _Unchecked(_Last), _Last - _First, _Pred);

  00003	ff 75 10	 push	 DWORD PTR __Pred$[ebp]
  00006	8b 45 0c	 mov	 eax, DWORD PTR __Last$[ebp]
  00009	2b 45 08	 sub	 eax, DWORD PTR __First$[ebp]
  0000c	6a 14		 push	 20			; 00000014H
  0000e	59		 pop	 ecx
  0000f	99		 cdq
  00010	f7 f9		 idiv	 ecx
  00012	50		 push	 eax
  00013	ff 75 0c	 push	 DWORD PTR __Last$[ebp]
  00016	ff 75 08	 push	 DWORD PTR __First$[ebp]
  00019	e8 00 00 00 00	 call	 ??$_Sort@PAUCallBuff@@HVCallBuffSort@@@std@@YAXPAUCallBuff@@0HVCallBuffSort@@@Z ; std::_Sort<CallBuff *,int,CallBuffSort>
  0001e	83 c4 10	 add	 esp, 16			; 00000010H

; 3807 : 	}

  00021	5d		 pop	 ebp
  00022	c3		 ret	 0
??$sort@V?$_Vector_iterator@V?$_Vector_val@UCallBuff@@V?$allocator@UCallBuff@@@std@@@std@@@std@@VCallBuffSort@@@std@@YAXV?$_Vector_iterator@V?$_Vector_val@UCallBuff@@V?$allocator@UCallBuff@@@std@@@std@@@0@0VCallBuffSort@@@Z ENDP ; std::sort<std::_Vector_iterator<std::_Vector_val<CallBuff,std::allocator<CallBuff> > >,CallBuffSort>
_TEXT	ENDS
PUBLIC	??0?$vector@VioHashString@@V?$allocator@VioHashString@@@std@@@std@@QAE@ABV01@@Z ; std::vector<ioHashString,std::allocator<ioHashString> >::vector<ioHashString,std::allocator<ioHashString> >
;	COMDAT xdata$x
; File c:\program files (x86)\microsoft visual studio 10.0\vc\include\xutility
xdata$x	SEGMENT
__catchsym$??0?$vector@VioHashString@@V?$allocator@VioHashString@@@std@@@std@@QAE@ABV01@@Z$2 DD 040H
	DD	00H
	DD	00H
	DD	FLAT:__catch$??0?$vector@VioHashString@@V?$allocator@VioHashString@@@std@@@std@@QAE@ABV01@@Z$0
__unwindtable$??0?$vector@VioHashString@@V?$allocator@VioHashString@@@std@@@std@@QAE@ABV01@@Z DD 0ffffffffH
	DD	00H
	DD	0ffffffffH
	DD	00H
__tryblocktable$??0?$vector@VioHashString@@V?$allocator@VioHashString@@@std@@@std@@QAE@ABV01@@Z DD 00H
	DD	00H
	DD	01H
	DD	01H
	DD	FLAT:__catchsym$??0?$vector@VioHashString@@V?$allocator@VioHashString@@@std@@@std@@QAE@ABV01@@Z$2
__ehfuncinfo$??0?$vector@VioHashString@@V?$allocator@VioHashString@@@std@@@std@@QAE@ABV01@@Z DD 019930522H
	DD	02H
	DD	FLAT:__unwindtable$??0?$vector@VioHashString@@V?$allocator@VioHashString@@@std@@@std@@QAE@ABV01@@Z
	DD	01H
	DD	FLAT:__tryblocktable$??0?$vector@VioHashString@@V?$allocator@VioHashString@@@std@@@std@@QAE@ABV01@@Z
	DD	2 DUP(00H)
	DD	00H
	DD	01H
; Function compile flags: /Ogsp
; File c:\program files (x86)\microsoft visual studio 10.0\vc\include\vector
xdata$x	ENDS
;	COMDAT ??0?$vector@VioHashString@@V?$allocator@VioHashString@@@std@@@std@@QAE@ABV01@@Z
_TEXT	SEGMENT
_this$ = -20						; size = 4
__$EHRec$ = -16						; size = 16
__Cat$539918 = 8					; size = 1
__Right$ = 8						; size = 4
??0?$vector@VioHashString@@V?$allocator@VioHashString@@@std@@@std@@QAE@ABV01@@Z PROC ; std::vector<ioHashString,std::allocator<ioHashString> >::vector<ioHashString,std::allocator<ioHashString> >, COMDAT
; _this$ = ecx

; 535  : 		{	// construct by copying _Right

  00000	6a 08		 push	 8
  00002	b8 00 00 00 00	 mov	 eax, __ehhandler$??0?$vector@VioHashString@@V?$allocator@VioHashString@@@std@@@std@@QAE@ABV01@@Z
  00007	e8 00 00 00 00	 call	 __EH_prolog3_catch
  0000c	8b f1		 mov	 esi, ecx
  0000e	89 75 ec	 mov	 DWORD PTR _this$[ebp], esi

; 536  : 		if (_Buy(_Right.size()))

  00011	8b 7d 08	 mov	 edi, DWORD PTR __Right$[ebp]
  00014	33 db		 xor	 ebx, ebx
  00016	89 1e		 mov	 DWORD PTR [esi], ebx
  00018	89 5e 04	 mov	 DWORD PTR [esi+4], ebx
  0001b	89 5e 08	 mov	 DWORD PTR [esi+8], ebx
  0001e	8b 47 04	 mov	 eax, DWORD PTR [edi+4]
  00021	2b 07		 sub	 eax, DWORD PTR [edi]
  00023	c1 f8 04	 sar	 eax, 4
  00026	50		 push	 eax
  00027	e8 00 00 00 00	 call	 ?_Buy@?$vector@VioHashString@@V?$allocator@VioHashString@@@std@@@std@@IAE_NI@Z ; std::vector<ioHashString,std::allocator<ioHashString> >::_Buy
  0002c	84 c0		 test	 al, al
  0002e	74 1f		 je	 SHORT $LN7@vector@2

; 537  : 			_TRY_BEGIN
; 538  : 			this->_Mylast = _Ucopy(_Right.begin(), _Right.end(),
; 539  : 				this->_Myfirst);

  00030	ff 75 08	 push	 DWORD PTR __Cat$539918[ebp]
  00033	8b 0e		 mov	 ecx, DWORD PTR [esi]
  00035	8b 47 04	 mov	 eax, DWORD PTR [edi+4]
  00038	8b 3f		 mov	 edi, DWORD PTR [edi]
  0003a	8d 56 0c	 lea	 edx, DWORD PTR [esi+12]
  0003d	52		 push	 edx
  0003e	51		 push	 ecx
  0003f	50		 push	 eax
  00040	57		 push	 edi
  00041	89 5d fc	 mov	 DWORD PTR __$EHRec$[ebp+12], ebx
  00044	e8 00 00 00 00	 call	 ??$_Uninit_copy@V?$_Vector_const_iterator@V?$_Vector_val@VioHashString@@V?$allocator@VioHashString@@@std@@@std@@@std@@PAVioHashString@@V?$allocator@VioHashString@@@2@@std@@YAPAVioHashString@@V?$_Vector_const_iterator@V?$_Vector_val@VioHashString@@V?$allocator@VioHashString@@@std@@@std@@@0@0PAV1@AAV?$allocator@VioHashString@@@0@U_Nonscalar_ptr_iterator_tag@0@@Z ; std::_Uninit_copy<std::_Vector_const_iterator<std::_Vector_val<ioHashString,std::allocator<ioHashString> > >,ioHashString *,std::allocator<ioHashString> >
  00049	83 c4 14	 add	 esp, 20			; 00000014H
  0004c	89 46 04	 mov	 DWORD PTR [esi+4], eax
$LN7@vector@2:

; 543  : 			_CATCH_END
; 544  : 		}

  0004f	8b c6		 mov	 eax, esi
  00051	e8 00 00 00 00	 call	 __EH_epilog3
  00056	c2 04 00	 ret	 4
__catch$??0?$vector@VioHashString@@V?$allocator@VioHashString@@@std@@@std@@QAE@ABV01@@Z$0:

; 540  : 			_CATCH_ALL
; 541  : 			_Tidy();

  00059	8b 4d ec	 mov	 ecx, DWORD PTR _this$[ebp]
  0005c	e8 00 00 00 00	 call	 ?_Tidy@?$vector@VioHashString@@V?$allocator@VioHashString@@@std@@@std@@IAEXXZ ; std::vector<ioHashString,std::allocator<ioHashString> >::_Tidy

; 542  : 			_RERAISE;

  00061	33 db		 xor	 ebx, ebx
  00063	53		 push	 ebx
  00064	53		 push	 ebx
  00065	e8 00 00 00 00	 call	 __CxxThrowException@8
$LN38@vector@2:
$LN37@vector@2:
  0006a	cc		 int	 3
_TEXT	ENDS
;	COMDAT text$x
text$x	SEGMENT
__ehhandler$??0?$vector@VioHashString@@V?$allocator@VioHashString@@@std@@@std@@QAE@ABV01@@Z:
  00000	8b 54 24 08	 mov	 edx, DWORD PTR [esp+8]
  00004	8d 42 0c	 lea	 eax, DWORD PTR [edx+12]
  00007	8b 4a e8	 mov	 ecx, DWORD PTR [edx-24]
  0000a	33 c8		 xor	 ecx, eax
  0000c	e8 00 00 00 00	 call	 @__security_check_cookie@4
  00011	b8 00 00 00 00	 mov	 eax, OFFSET __ehfuncinfo$??0?$vector@VioHashString@@V?$allocator@VioHashString@@@std@@@std@@QAE@ABV01@@Z
  00016	e9 00 00 00 00	 jmp	 ___CxxFrameHandler3
text$x	ENDS
??0?$vector@VioHashString@@V?$allocator@VioHashString@@@std@@@std@@QAE@ABV01@@Z ENDP ; std::vector<ioHashString,std::allocator<ioHashString> >::vector<ioHashString,std::allocator<ioHashString> >
PUBLIC	??1?$vector@VioHashString@@V?$allocator@VioHashString@@@std@@@std@@QAE@XZ ; std::vector<ioHashString,std::allocator<ioHashString> >::~vector<ioHashString,std::allocator<ioHashString> >
; Function compile flags: /Ogsp
;	COMDAT ??1?$vector@VioHashString@@V?$allocator@VioHashString@@@std@@@std@@QAE@XZ
_TEXT	SEGMENT
??1?$vector@VioHashString@@V?$allocator@VioHashString@@@std@@@std@@QAE@XZ PROC ; std::vector<ioHashString,std::allocator<ioHashString> >::~vector<ioHashString,std::allocator<ioHashString> >, COMDAT
; _this$ = ecx

; 705  : 		_Tidy();

  00000	e9 00 00 00 00	 jmp	 ?_Tidy@?$vector@VioHashString@@V?$allocator@VioHashString@@@std@@@std@@IAEXXZ ; std::vector<ioHashString,std::allocator<ioHashString> >::_Tidy
??1?$vector@VioHashString@@V?$allocator@VioHashString@@@std@@@std@@QAE@XZ ENDP ; std::vector<ioHashString,std::allocator<ioHashString> >::~vector<ioHashString,std::allocator<ioHashString> >
_TEXT	ENDS
PUBLIC	?clear@?$vector@VioHashString@@V?$allocator@VioHashString@@@std@@@std@@QAEXXZ ; std::vector<ioHashString,std::allocator<ioHashString> >::clear
; Function compile flags: /Ogsp
;	COMDAT ?clear@?$vector@VioHashString@@V?$allocator@VioHashString@@@std@@@std@@QAEXXZ
_TEXT	SEGMENT
$T539948 = -4						; size = 4
?clear@?$vector@VioHashString@@V?$allocator@VioHashString@@@std@@@std@@QAEXXZ PROC ; std::vector<ioHashString,std::allocator<ioHashString> >::clear, COMDAT
; _this$ = ecx

; 1217 : 		{	// erase all

  00000	55		 push	 ebp
  00001	8b ec		 mov	 ebp, esp
  00003	51		 push	 ecx

; 1218 : 		erase(begin(), end());

  00004	8b 41 04	 mov	 eax, DWORD PTR [ecx+4]
  00007	8b 11		 mov	 edx, DWORD PTR [ecx]
  00009	50		 push	 eax
  0000a	52		 push	 edx
  0000b	8d 45 fc	 lea	 eax, DWORD PTR $T539948[ebp]
  0000e	50		 push	 eax
  0000f	e8 00 00 00 00	 call	 ?erase@?$vector@VioHashString@@V?$allocator@VioHashString@@@std@@@std@@QAE?AV?$_Vector_iterator@V?$_Vector_val@VioHashString@@V?$allocator@VioHashString@@@std@@@std@@@2@V?$_Vector_const_iterator@V?$_Vector_val@VioHashString@@V?$allocator@VioHashString@@@std@@@std@@@2@0@Z ; std::vector<ioHashString,std::allocator<ioHashString> >::erase

; 1219 : 		}

  00014	c9		 leave
  00015	c3		 ret	 0
?clear@?$vector@VioHashString@@V?$allocator@VioHashString@@@std@@@std@@QAEXXZ ENDP ; std::vector<ioHashString,std::allocator<ioHashString> >::clear
_TEXT	ENDS
PUBLIC	??_7ioInfectionBuff@@6B@			; ioInfectionBuff::`vftable'
PUBLIC	??0ioInfectionBuff@@QAE@XZ			; ioInfectionBuff::ioInfectionBuff
PUBLIC	??_R4ioInfectionBuff@@6B@			; ioInfectionBuff::`RTTI Complete Object Locator'
PUBLIC	??_R0?AVioInfectionBuff@@@8			; ioInfectionBuff `RTTI Type Descriptor'
PUBLIC	??_R3ioInfectionBuff@@8				; ioInfectionBuff::`RTTI Class Hierarchy Descriptor'
PUBLIC	??_R2ioInfectionBuff@@8				; ioInfectionBuff::`RTTI Base Class Array'
PUBLIC	??_R1A@?0A@EA@ioInfectionBuff@@8		; ioInfectionBuff::`RTTI Base Class Descriptor at (0,-1,0,64)'
PUBLIC	??_R1A@?0A@EA@ioBuff@@8				; ioBuff::`RTTI Base Class Descriptor at (0,-1,0,64)'
PUBLIC	??_R0?AVioBuff@@@8				; ioBuff `RTTI Type Descriptor'
PUBLIC	??_R3ioBuff@@8					; ioBuff::`RTTI Class Hierarchy Descriptor'
PUBLIC	??_R2ioBuff@@8					; ioBuff::`RTTI Base Class Array'
PUBLIC	?LoadProperty@ioInfectionBuff@@UAEXAAVioINILoader@@@Z ; ioInfectionBuff::LoadProperty
PUBLIC	?Clone@ioInfectionBuff@@UAEPAVioBuff@@XZ	; ioInfectionBuff::Clone
PUBLIC	?ProcessBuff@ioInfectionBuff@@UAEXM@Z		; ioInfectionBuff::ProcessBuff
PUBLIC	?ProcessDelay@ioInfectionBuff@@MAEXM@Z		; ioInfectionBuff::ProcessDelay
PUBLIC	?IsWaitSelfRemove@ioBuff@@UAE_NXZ		; ioBuff::IsWaitSelfRemove
EXTRN	??1ioBuff@@UAE@XZ:PROC				; ioBuff::~ioBuff
EXTRN	??0ioBuff@@QAE@XZ:PROC				; ioBuff::ioBuff
EXTRN	?StartBuffWithAniTime@ioBuff@@UAEXPAVioBaseChar@@K@Z:PROC ; ioBuff::StartBuffWithAniTime
EXTRN	?CancelBuff@ioBuff@@UAEXXZ:PROC			; ioBuff::CancelBuff
EXTRN	?GetBuffInfo@ioBuff@@UAEXAAVSP2Packet@@@Z:PROC	; ioBuff::GetBuffInfo
EXTRN	?ApplyBuffInfo@ioBuff@@UAEXAAVSP2Packet@@@Z:PROC ; ioBuff::ApplyBuffInfo
EXTRN	?AccumulateBuff@ioBuff@@UAEXXZ:PROC		; ioBuff::AccumulateBuff
EXTRN	?IsLiveButStopped@ioBuff@@UBE_NXZ:PROC		; ioBuff::IsLiveButStopped
EXTRN	?IsCanJumpAttack@ioBuff@@UBE_NXZ:PROC		; ioBuff::IsCanJumpAttack
EXTRN	?SetWeaponIndex@ioBuff@@UAEXK@Z:PROC		; ioBuff::SetWeaponIndex
EXTRN	?OnReduceGauge@ioBuff@@UBE_NXZ:PROC		; ioBuff::OnReduceGauge
EXTRN	?IsCharCollisionSkip@ioBuff@@UBE_NXZ:PROC	; ioBuff::IsCharCollisionSkip
EXTRN	?IsCollisionAvailableWeapon@ioBuff@@UBE_NXZ:PROC ; ioBuff::IsCollisionAvailableWeapon
EXTRN	?IsProtected@ioBuff@@UBE_NXZ:PROC		; ioBuff::IsProtected
EXTRN	?UseActiveCount@ioBuff@@UBE_NXZ:PROC		; ioBuff::UseActiveCount
EXTRN	?CheckActiveCount@ioBuff@@UAEXXZ:PROC		; ioBuff::CheckActiveCount
EXTRN	?CheckRemoveEquipSkillBuff@ioBuff@@UAEX_N@Z:PROC ; ioBuff::CheckRemoveEquipSkillBuff
EXTRN	?ApplyExtraBuffInfo@ioBuff@@UAEXAAVSP2Packet@@@Z:PROC ; ioBuff::ApplyExtraBuffInfo
EXTRN	?SetBuffGrapplingState@ioBuff@@UAE_NPAVioBaseChar@@ABVioHashString@@@Z:PROC ; ioBuff::SetBuffGrapplingState
EXTRN	?GetGrapplingTargetPos@ioBuff@@UAE?AUD3DXVECTOR3@@PAVioBaseChar@@@Z:PROC ; ioBuff::GetGrapplingTargetPos
EXTRN	??_EioInfectionBuff@@UAEPAXI@Z:PROC		; ioInfectionBuff::`vector deleting destructor'
;	COMDAT ??_R2ioBuff@@8
; File c:\program files (x86)\microsoft visual studio 10.0\vc\include\xmemory
rdata$r	SEGMENT
??_R2ioBuff@@8 DD FLAT:??_R1A@?0A@EA@ioBuff@@8		; ioBuff::`RTTI Base Class Array'
rdata$r	ENDS
;	COMDAT ??_R3ioBuff@@8
rdata$r	SEGMENT
??_R3ioBuff@@8 DD 00H					; ioBuff::`RTTI Class Hierarchy Descriptor'
	DD	00H
	DD	01H
	DD	FLAT:??_R2ioBuff@@8
rdata$r	ENDS
;	COMDAT ??_R0?AVioBuff@@@8
_DATA	SEGMENT
??_R0?AVioBuff@@@8 DD FLAT:??_7type_info@@6B@		; ioBuff `RTTI Type Descriptor'
	DD	00H
	DB	'.?AVioBuff@@', 00H
_DATA	ENDS
;	COMDAT ??_R1A@?0A@EA@ioBuff@@8
rdata$r	SEGMENT
??_R1A@?0A@EA@ioBuff@@8 DD FLAT:??_R0?AVioBuff@@@8	; ioBuff::`RTTI Base Class Descriptor at (0,-1,0,64)'
	DD	00H
	DD	00H
	DD	0ffffffffH
	DD	00H
	DD	040H
	DD	FLAT:??_R3ioBuff@@8
rdata$r	ENDS
;	COMDAT ??_R1A@?0A@EA@ioInfectionBuff@@8
rdata$r	SEGMENT
??_R1A@?0A@EA@ioInfectionBuff@@8 DD FLAT:??_R0?AVioInfectionBuff@@@8 ; ioInfectionBuff::`RTTI Base Class Descriptor at (0,-1,0,64)'
	DD	01H
	DD	00H
	DD	0ffffffffH
	DD	00H
	DD	040H
	DD	FLAT:??_R3ioInfectionBuff@@8
rdata$r	ENDS
;	COMDAT ??_R2ioInfectionBuff@@8
rdata$r	SEGMENT
??_R2ioInfectionBuff@@8 DD FLAT:??_R1A@?0A@EA@ioInfectionBuff@@8 ; ioInfectionBuff::`RTTI Base Class Array'
	DD	FLAT:??_R1A@?0A@EA@ioBuff@@8
rdata$r	ENDS
;	COMDAT ??_R3ioInfectionBuff@@8
rdata$r	SEGMENT
??_R3ioInfectionBuff@@8 DD 00H				; ioInfectionBuff::`RTTI Class Hierarchy Descriptor'
	DD	00H
	DD	02H
	DD	FLAT:??_R2ioInfectionBuff@@8
rdata$r	ENDS
;	COMDAT ??_R0?AVioInfectionBuff@@@8
_DATA	SEGMENT
??_R0?AVioInfectionBuff@@@8 DD FLAT:??_7type_info@@6B@	; ioInfectionBuff `RTTI Type Descriptor'
	DD	00H
	DB	'.?AVioInfectionBuff@@', 00H
_DATA	ENDS
;	COMDAT ??_R4ioInfectionBuff@@6B@
rdata$r	SEGMENT
??_R4ioInfectionBuff@@6B@ DD 00H			; ioInfectionBuff::`RTTI Complete Object Locator'
	DD	00H
	DD	00H
	DD	FLAT:??_R0?AVioInfectionBuff@@@8
	DD	FLAT:??_R3ioInfectionBuff@@8
rdata$r	ENDS
;	COMDAT ??_7ioInfectionBuff@@6B@
CONST	SEGMENT
??_7ioInfectionBuff@@6B@ DD FLAT:??_R4ioInfectionBuff@@6B@ ; ioInfectionBuff::`vftable'
	DD	FLAT:?LoadProperty@ioInfectionBuff@@UAEXAAVioINILoader@@@Z
	DD	FLAT:?Clone@ioInfectionBuff@@UAEPAVioBuff@@XZ
	DD	FLAT:?StartBuff@ioInfectionBuff@@UAEXPAVioBaseChar@@@Z
	DD	FLAT:?StartBuffWithAniTime@ioBuff@@UAEXPAVioBaseChar@@K@Z
	DD	FLAT:?ApplyStartBuff@ioInfectionBuff@@UAE_NPAVioBaseChar@@KK@Z
	DD	FLAT:?ProcessBuff@ioInfectionBuff@@UAEXM@Z
	DD	FLAT:?EndBuff@ioInfectionBuff@@UAEXXZ
	DD	FLAT:?CancelBuff@ioBuff@@UAEXXZ
	DD	FLAT:?GetBuffInfo@ioBuff@@UAEXAAVSP2Packet@@@Z
	DD	FLAT:?ApplyBuffInfo@ioBuff@@UAEXAAVSP2Packet@@@Z
	DD	FLAT:?AccumulateBuff@ioBuff@@UAEXXZ
	DD	FLAT:?IsLiveButStopped@ioBuff@@UBE_NXZ
	DD	FLAT:?IsCanJumpAttack@ioBuff@@UBE_NXZ
	DD	FLAT:?SetAction@ioInfectionBuff@@MAEXXZ
	DD	FLAT:?ProcessDelay@ioInfectionBuff@@MAEXM@Z
	DD	FLAT:?SetExtraDurationByGrowth@ioInfectionBuff@@UAEXM@Z
	DD	FLAT:?SetWeaponIndex@ioBuff@@UAEXK@Z
	DD	FLAT:?OnReduceGauge@ioBuff@@UBE_NXZ
	DD	FLAT:?IsCharCollisionSkip@ioBuff@@UBE_NXZ
	DD	FLAT:?IsCollisionAvailableWeapon@ioBuff@@UBE_NXZ
	DD	FLAT:?IsProtected@ioBuff@@UBE_NXZ
	DD	FLAT:?UseActiveCount@ioBuff@@UBE_NXZ
	DD	FLAT:?CheckActiveCount@ioBuff@@UAEXXZ
	DD	FLAT:?CheckRemoveEquipSkillBuff@ioBuff@@UAEX_N@Z
	DD	FLAT:?ApplyExtraBuffInfo@ioBuff@@UAEXAAVSP2Packet@@@Z
	DD	FLAT:?SetBuffGrapplingState@ioBuff@@UAE_NPAVioBaseChar@@ABVioHashString@@@Z
	DD	FLAT:?GetGrapplingTargetPos@ioBuff@@UAE?AUD3DXVECTOR3@@PAVioBaseChar@@@Z
	DD	FLAT:?IsWaitSelfRemove@ioBuff@@UAE_NXZ
	DD	FLAT:??_EioInfectionBuff@@UAEPAXI@Z
CONST	ENDS
;	COMDAT xdata$x
xdata$x	SEGMENT
__unwindtable$??0ioInfectionBuff@@QAE@XZ DD 0ffffffffH
	DD	FLAT:__unwindfunclet$??0ioInfectionBuff@@QAE@XZ$0
	DD	00H
	DD	FLAT:__unwindfunclet$??0ioInfectionBuff@@QAE@XZ$1
__ehfuncinfo$??0ioInfectionBuff@@QAE@XZ DD 019930522H
	DD	02H
	DD	FLAT:__unwindtable$??0ioInfectionBuff@@QAE@XZ
	DD	2 DUP(00H)
	DD	2 DUP(00H)
	DD	00H
	DD	01H
; Function compile flags: /Ogsp
; File d:\lost saga for developer\youtube\tutorial\source\src\lsclient\ioinfectionbuff.cpp
xdata$x	ENDS
;	COMDAT ??0ioInfectionBuff@@QAE@XZ
_TEXT	SEGMENT
_this$ = -16						; size = 4
__$EHRec$ = -12						; size = 12
??0ioInfectionBuff@@QAE@XZ PROC				; ioInfectionBuff::ioInfectionBuff, COMDAT
; _this$ = ecx

; 10   : {

  00000	6a 04		 push	 4
  00002	b8 00 00 00 00	 mov	 eax, __ehhandler$??0ioInfectionBuff@@QAE@XZ
  00007	e8 00 00 00 00	 call	 __EH_prolog3
  0000c	8b f1		 mov	 esi, ecx
  0000e	89 75 f0	 mov	 DWORD PTR _this$[ebp], esi
  00011	e8 00 00 00 00	 call	 ??0ioBuff@@QAE@XZ	; ioBuff::ioBuff
  00016	33 ff		 xor	 edi, edi
  00018	c7 06 00 00 00
	00		 mov	 DWORD PTR [esi], OFFSET ??_7ioInfectionBuff@@6B@
  0001e	89 7d fc	 mov	 DWORD PTR __$EHRec$[ebp+8], edi
  00021	89 be 70 09 00
	00		 mov	 DWORD PTR [esi+2416], edi
  00027	89 be 74 09 00
	00		 mov	 DWORD PTR [esi+2420], edi
  0002d	89 be 78 09 00
	00		 mov	 DWORD PTR [esi+2424], edi
  00033	8d 8e 80 09 00
	00		 lea	 ecx, DWORD PTR [esi+2432]
  00039	c6 45 fc 01	 mov	 BYTE PTR __$EHRec$[ebp+8], 1
  0003d	e8 00 00 00 00	 call	 ??0?$CEncrypt@M@@QAE@XZ	; CEncrypt<float>::CEncrypt<float>
  00042	89 be b0 09 00
	00		 mov	 DWORD PTR [esi+2480], edi
  00048	89 be b4 09 00
	00		 mov	 DWORD PTR [esi+2484], edi
  0004e	89 be b8 09 00
	00		 mov	 DWORD PTR [esi+2488], edi
  00054	89 be c0 09 00
	00		 mov	 DWORD PTR [esi+2496], edi
  0005a	89 be c4 09 00
	00		 mov	 DWORD PTR [esi+2500], edi
  00060	89 be c8 09 00
	00		 mov	 DWORD PTR [esi+2504], edi

; 11   : }

  00066	8b c6		 mov	 eax, esi
  00068	e8 00 00 00 00	 call	 __EH_epilog3
  0006d	c3		 ret	 0
_TEXT	ENDS
;	COMDAT text$x
text$x	SEGMENT
__unwindfunclet$??0ioInfectionBuff@@QAE@XZ$0:
  00000	8b 4d f0	 mov	 ecx, DWORD PTR _this$[ebp]
  00003	e9 00 00 00 00	 jmp	 ??1ioBuff@@UAE@XZ	; ioBuff::~ioBuff
__unwindfunclet$??0ioInfectionBuff@@QAE@XZ$1:
  00008	8b 4d f0	 mov	 ecx, DWORD PTR _this$[ebp]
  0000b	81 c1 70 09 00
	00		 add	 ecx, 2416		; 00000970H
  00011	e9 00 00 00 00	 jmp	 ??1?$vector@PAVioBaseChar@@V?$allocator@PAVioBaseChar@@@std@@@std@@QAE@XZ ; std::vector<ioBaseChar *,std::allocator<ioBaseChar *> >::~vector<ioBaseChar *,std::allocator<ioBaseChar *> >
__ehhandler$??0ioInfectionBuff@@QAE@XZ:
  00016	8b 54 24 08	 mov	 edx, DWORD PTR [esp+8]
  0001a	8d 42 0c	 lea	 eax, DWORD PTR [edx+12]
  0001d	8b 4a ec	 mov	 ecx, DWORD PTR [edx-20]
  00020	33 c8		 xor	 ecx, eax
  00022	e8 00 00 00 00	 call	 @__security_check_cookie@4
  00027	b8 00 00 00 00	 mov	 eax, OFFSET __ehfuncinfo$??0ioInfectionBuff@@QAE@XZ
  0002c	e9 00 00 00 00	 jmp	 ___CxxFrameHandler3
text$x	ENDS
??0ioInfectionBuff@@QAE@XZ ENDP				; ioInfectionBuff::ioInfectionBuff
; Function compile flags: /Ogsp
; File d:\lost saga for developer\youtube\tutorial\source\src\lsclient\iobuff.h
;	COMDAT ?IsWaitSelfRemove@ioBuff@@UAE_NXZ
_TEXT	SEGMENT
?IsWaitSelfRemove@ioBuff@@UAE_NXZ PROC			; ioBuff::IsWaitSelfRemove, COMDAT
; _this$ = ecx

; 519  : 	virtual bool IsWaitSelfRemove() { return m_bWaitSelfRemove; }

  00000	8a 81 65 09 00
	00		 mov	 al, BYTE PTR [ecx+2405]
  00006	c3		 ret	 0
?IsWaitSelfRemove@ioBuff@@UAE_NXZ ENDP			; ioBuff::IsWaitSelfRemove
_TEXT	ENDS
PUBLIC	??0ioInfectionBuff@@QAE@ABV0@@Z			; ioInfectionBuff::ioInfectionBuff
EXTRN	??0ioBuff@@QAE@ABV0@@Z:PROC			; ioBuff::ioBuff
;	COMDAT xdata$x
; File c:\program files (x86)\microsoft visual studio 10.0\vc\include\xutility
xdata$x	SEGMENT
__unwindtable$??0ioInfectionBuff@@QAE@ABV0@@Z DD 0ffffffffH
	DD	FLAT:__unwindfunclet$??0ioInfectionBuff@@QAE@ABV0@@Z$0
	DD	00H
	DD	FLAT:__unwindfunclet$??0ioInfectionBuff@@QAE@ABV0@@Z$1
	DD	01H
	DD	FLAT:__unwindfunclet$??0ioInfectionBuff@@QAE@ABV0@@Z$2
	DD	02H
	DD	FLAT:__unwindfunclet$??0ioInfectionBuff@@QAE@ABV0@@Z$3
__ehfuncinfo$??0ioInfectionBuff@@QAE@ABV0@@Z DD 019930522H
	DD	04H
	DD	FLAT:__unwindtable$??0ioInfectionBuff@@QAE@ABV0@@Z
	DD	2 DUP(00H)
	DD	2 DUP(00H)
	DD	00H
	DD	01H
; Function compile flags: /Ogsp
; File d:\lost saga for developer\youtube\tutorial\source\src\lsclient\ioinfectionbuff.cpp
xdata$x	ENDS
;	COMDAT ??0ioInfectionBuff@@QAE@ABV0@@Z
_TEXT	SEGMENT
_this$ = -16						; size = 4
__$EHRec$ = -12						; size = 12
$T540184 = 8						; size = 4
_rhs$ = 8						; size = 4
??0ioInfectionBuff@@QAE@ABV0@@Z PROC			; ioInfectionBuff::ioInfectionBuff, COMDAT
; _this$ = ecx

; 19   : {	

  00000	6a 04		 push	 4
  00002	b8 00 00 00 00	 mov	 eax, __ehhandler$??0ioInfectionBuff@@QAE@ABV0@@Z
  00007	e8 00 00 00 00	 call	 __EH_prolog3
  0000c	8b f1		 mov	 esi, ecx
  0000e	89 75 f0	 mov	 DWORD PTR _this$[ebp], esi
  00011	8b 5d 08	 mov	 ebx, DWORD PTR _rhs$[ebp]
  00014	53		 push	 ebx
  00015	e8 00 00 00 00	 call	 ??0ioBuff@@QAE@ABV0@@Z	; ioBuff::ioBuff
  0001a	c7 06 00 00 00
	00		 mov	 DWORD PTR [esi], OFFSET ??_7ioInfectionBuff@@6B@
  00020	8a 8b 6c 09 00
	00		 mov	 cl, BYTE PTR [ebx+2412]
  00026	33 c0		 xor	 eax, eax
  00028	88 8e 6c 09 00
	00		 mov	 BYTE PTR [esi+2412], cl
  0002e	89 45 fc	 mov	 DWORD PTR __$EHRec$[ebp+8], eax
  00031	89 86 70 09 00
	00		 mov	 DWORD PTR [esi+2416], eax
  00037	89 86 74 09 00
	00		 mov	 DWORD PTR [esi+2420], eax
  0003d	89 86 78 09 00
	00		 mov	 DWORD PTR [esi+2424], eax
  00043	8d 83 80 09 00
	00		 lea	 eax, DWORD PTR [ebx+2432]
  00049	50		 push	 eax
  0004a	8d 8e 80 09 00
	00		 lea	 ecx, DWORD PTR [esi+2432]
  00050	c6 45 fc 01	 mov	 BYTE PTR __$EHRec$[ebp+8], 1
  00054	e8 00 00 00 00	 call	 ??0?$CEncrypt@M@@QAE@ABV0@@Z ; CEncrypt<float>::CEncrypt<float>
  00059	8d 83 b0 09 00
	00		 lea	 eax, DWORD PTR [ebx+2480]
  0005f	50		 push	 eax
  00060	8d 8e b0 09 00
	00		 lea	 ecx, DWORD PTR [esi+2480]
  00066	c6 45 fc 02	 mov	 BYTE PTR __$EHRec$[ebp+8], 2
  0006a	e8 00 00 00 00	 call	 ??0?$vector@UCallBuff@@V?$allocator@UCallBuff@@@std@@@std@@QAE@ABV01@@Z ; std::vector<CallBuff,std::allocator<CallBuff> >::vector<CallBuff,std::allocator<CallBuff> >
  0006f	81 c3 c0 09 00
	00		 add	 ebx, 2496		; 000009c0H
  00075	53		 push	 ebx
  00076	8d 8e c0 09 00
	00		 lea	 ecx, DWORD PTR [esi+2496]
  0007c	c6 45 fc 03	 mov	 BYTE PTR __$EHRec$[ebp+8], 3
  00080	e8 00 00 00 00	 call	 ??0?$vector@VioHashString@@V?$allocator@VioHashString@@@std@@@std@@QAE@ABV01@@Z ; std::vector<ioHashString,std::allocator<ioHashString> >::vector<ioHashString,std::allocator<ioHashString> >

; 20   : 	m_TargetList.clear();

  00085	8b 86 74 09 00
	00		 mov	 eax, DWORD PTR [esi+2420]
  0008b	8b 8e 70 09 00
	00		 mov	 ecx, DWORD PTR [esi+2416]
  00091	50		 push	 eax
  00092	51		 push	 ecx
  00093	8d 45 08	 lea	 eax, DWORD PTR $T540184[ebp]
  00096	50		 push	 eax
  00097	8d 8e 70 09 00
	00		 lea	 ecx, DWORD PTR [esi+2416]
  0009d	e8 00 00 00 00	 call	 ?erase@?$vector@PAVioBaseChar@@V?$allocator@PAVioBaseChar@@@std@@@std@@QAE?AV?$_Vector_iterator@V?$_Vector_val@PAVioBaseChar@@V?$allocator@PAVioBaseChar@@@std@@@std@@@2@V?$_Vector_const_iterator@V?$_Vector_val@PAVioBaseChar@@V?$allocator@PAVioBaseChar@@@std@@@std@@@2@0@Z ; std::vector<ioBaseChar *,std::allocator<ioBaseChar *> >::erase

; 21   : }

  000a2	8b c6		 mov	 eax, esi
  000a4	e8 00 00 00 00	 call	 __EH_epilog3
  000a9	c2 04 00	 ret	 4
_TEXT	ENDS
;	COMDAT text$x
text$x	SEGMENT
__unwindfunclet$??0ioInfectionBuff@@QAE@ABV0@@Z$0:
  00000	8b 4d f0	 mov	 ecx, DWORD PTR _this$[ebp]
  00003	e9 00 00 00 00	 jmp	 ??1ioBuff@@UAE@XZ	; ioBuff::~ioBuff
__unwindfunclet$??0ioInfectionBuff@@QAE@ABV0@@Z$1:
  00008	8b 4d f0	 mov	 ecx, DWORD PTR _this$[ebp]
  0000b	81 c1 70 09 00
	00		 add	 ecx, 2416		; 00000970H
  00011	e9 00 00 00 00	 jmp	 ??1?$vector@PAVioBaseChar@@V?$allocator@PAVioBaseChar@@@std@@@std@@QAE@XZ ; std::vector<ioBaseChar *,std::allocator<ioBaseChar *> >::~vector<ioBaseChar *,std::allocator<ioBaseChar *> >
__unwindfunclet$??0ioInfectionBuff@@QAE@ABV0@@Z$2:
  00016	8b 4d f0	 mov	 ecx, DWORD PTR _this$[ebp]
  00019	81 c1 80 09 00
	00		 add	 ecx, 2432		; 00000980H
  0001f	e9 00 00 00 00	 jmp	 ??1?$CEncrypt@M@@UAE@XZ	; CEncrypt<float>::~CEncrypt<float>
__unwindfunclet$??0ioInfectionBuff@@QAE@ABV0@@Z$3:
  00024	8b 4d f0	 mov	 ecx, DWORD PTR _this$[ebp]
  00027	81 c1 b0 09 00
	00		 add	 ecx, 2480		; 000009b0H
  0002d	e9 00 00 00 00	 jmp	 ??1?$vector@UCallBuff@@V?$allocator@UCallBuff@@@std@@@std@@QAE@XZ ; std::vector<CallBuff,std::allocator<CallBuff> >::~vector<CallBuff,std::allocator<CallBuff> >
__ehhandler$??0ioInfectionBuff@@QAE@ABV0@@Z:
  00032	8b 54 24 08	 mov	 edx, DWORD PTR [esp+8]
  00036	8d 42 0c	 lea	 eax, DWORD PTR [edx+12]
  00039	8b 4a ec	 mov	 ecx, DWORD PTR [edx-20]
  0003c	33 c8		 xor	 ecx, eax
  0003e	e8 00 00 00 00	 call	 @__security_check_cookie@4
  00043	b8 00 00 00 00	 mov	 eax, OFFSET __ehfuncinfo$??0ioInfectionBuff@@QAE@ABV0@@Z
  00048	e9 00 00 00 00	 jmp	 ___CxxFrameHandler3
text$x	ENDS
??0ioInfectionBuff@@QAE@ABV0@@Z ENDP			; ioInfectionBuff::ioInfectionBuff
PUBLIC	??1ioInfectionBuff@@UAE@XZ			; ioInfectionBuff::~ioInfectionBuff
;	COMDAT xdata$x
; File c:\program files (x86)\microsoft visual studio 10.0\vc\include\vector
xdata$x	SEGMENT
__unwindtable$??1ioInfectionBuff@@UAE@XZ DD 0ffffffffH
	DD	FLAT:__unwindfunclet$??1ioInfectionBuff@@UAE@XZ$0
	DD	00H
	DD	FLAT:__unwindfunclet$??1ioInfectionBuff@@UAE@XZ$1
	DD	01H
	DD	FLAT:__unwindfunclet$??1ioInfectionBuff@@UAE@XZ$2
	DD	02H
	DD	FLAT:__unwindfunclet$??1ioInfectionBuff@@UAE@XZ$3
__ehfuncinfo$??1ioInfectionBuff@@UAE@XZ DD 019930522H
	DD	04H
	DD	FLAT:__unwindtable$??1ioInfectionBuff@@UAE@XZ
	DD	2 DUP(00H)
	DD	2 DUP(00H)
	DD	00H
	DD	01H
; Function compile flags: /Ogsp
; File d:\lost saga for developer\youtube\tutorial\source\src\lsclient\ioinfectionbuff.cpp
xdata$x	ENDS
;	COMDAT ??1ioInfectionBuff@@UAE@XZ
_TEXT	SEGMENT
_this$ = -16						; size = 4
__$EHRec$ = -12						; size = 12
??1ioInfectionBuff@@UAE@XZ PROC				; ioInfectionBuff::~ioInfectionBuff, COMDAT
; _this$ = ecx

; 24   : {

  00000	6a 04		 push	 4
  00002	b8 00 00 00 00	 mov	 eax, __ehhandler$??1ioInfectionBuff@@UAE@XZ
  00007	e8 00 00 00 00	 call	 __EH_prolog3
  0000c	8b f1		 mov	 esi, ecx
  0000e	89 75 f0	 mov	 DWORD PTR _this$[ebp], esi
  00011	c7 06 00 00 00
	00		 mov	 DWORD PTR [esi], OFFSET ??_7ioInfectionBuff@@6B@

; 25   : }

  00017	8d 8e c0 09 00
	00		 lea	 ecx, DWORD PTR [esi+2496]
  0001d	c7 45 fc 03 00
	00 00		 mov	 DWORD PTR __$EHRec$[ebp+8], 3
  00024	e8 00 00 00 00	 call	 ?_Tidy@?$vector@VioHashString@@V?$allocator@VioHashString@@@std@@@std@@IAEXXZ ; std::vector<ioHashString,std::allocator<ioHashString> >::_Tidy
  00029	8d 8e b0 09 00
	00		 lea	 ecx, DWORD PTR [esi+2480]
  0002f	c6 45 fc 02	 mov	 BYTE PTR __$EHRec$[ebp+8], 2
  00033	e8 00 00 00 00	 call	 ?_Tidy@?$vector@UCallBuff@@V?$allocator@UCallBuff@@@std@@@std@@IAEXXZ ; std::vector<CallBuff,std::allocator<CallBuff> >::_Tidy
  00038	8d 8e 8c 09 00
	00		 lea	 ecx, DWORD PTR [esi+2444]
  0003e	c6 45 fc 01	 mov	 BYTE PTR __$EHRec$[ebp+8], 1
  00042	c7 86 80 09 00
	00 00 00 00 00	 mov	 DWORD PTR [esi+2432], OFFSET ??_7?$CEncrypt@M@@6B@
  0004c	e8 00 00 00 00	 call	 ??1ccddaabb@@UAE@XZ	; ccddaabb::~ccddaabb
  00051	8d 8e 70 09 00
	00		 lea	 ecx, DWORD PTR [esi+2416]
  00057	c6 45 fc 00	 mov	 BYTE PTR __$EHRec$[ebp+8], 0
  0005b	e8 00 00 00 00	 call	 ?_Tidy@?$vector@PAVioBaseChar@@V?$allocator@PAVioBaseChar@@@std@@@std@@IAEXXZ ; std::vector<ioBaseChar *,std::allocator<ioBaseChar *> >::_Tidy
  00060	83 4d fc ff	 or	 DWORD PTR __$EHRec$[ebp+8], -1
  00064	8b ce		 mov	 ecx, esi
  00066	e8 00 00 00 00	 call	 ??1ioBuff@@UAE@XZ	; ioBuff::~ioBuff
  0006b	e8 00 00 00 00	 call	 __EH_epilog3
  00070	c3		 ret	 0
_TEXT	ENDS
;	COMDAT text$x
text$x	SEGMENT
__unwindfunclet$??1ioInfectionBuff@@UAE@XZ$0:
  00000	8b 4d f0	 mov	 ecx, DWORD PTR _this$[ebp]
  00003	e9 00 00 00 00	 jmp	 ??1ioBuff@@UAE@XZ	; ioBuff::~ioBuff
__unwindfunclet$??1ioInfectionBuff@@UAE@XZ$1:
  00008	8b 4d f0	 mov	 ecx, DWORD PTR _this$[ebp]
  0000b	81 c1 70 09 00
	00		 add	 ecx, 2416		; 00000970H
  00011	e9 00 00 00 00	 jmp	 ??1?$vector@PAVioBaseChar@@V?$allocator@PAVioBaseChar@@@std@@@std@@QAE@XZ ; std::vector<ioBaseChar *,std::allocator<ioBaseChar *> >::~vector<ioBaseChar *,std::allocator<ioBaseChar *> >
__unwindfunclet$??1ioInfectionBuff@@UAE@XZ$2:
  00016	8b 4d f0	 mov	 ecx, DWORD PTR _this$[ebp]
  00019	81 c1 80 09 00
	00		 add	 ecx, 2432		; 00000980H
  0001f	e9 00 00 00 00	 jmp	 ??1?$CEncrypt@M@@UAE@XZ	; CEncrypt<float>::~CEncrypt<float>
__unwindfunclet$??1ioInfectionBuff@@UAE@XZ$3:
  00024	8b 4d f0	 mov	 ecx, DWORD PTR _this$[ebp]
  00027	81 c1 b0 09 00
	00		 add	 ecx, 2480		; 000009b0H
  0002d	e9 00 00 00 00	 jmp	 ??1?$vector@UCallBuff@@V?$allocator@UCallBuff@@@std@@@std@@QAE@XZ ; std::vector<CallBuff,std::allocator<CallBuff> >::~vector<CallBuff,std::allocator<CallBuff> >
__ehhandler$??1ioInfectionBuff@@UAE@XZ:
  00032	8b 54 24 08	 mov	 edx, DWORD PTR [esp+8]
  00036	8d 42 0c	 lea	 eax, DWORD PTR [edx+12]
  00039	8b 4a ec	 mov	 ecx, DWORD PTR [edx-20]
  0003c	33 c8		 xor	 ecx, eax
  0003e	e8 00 00 00 00	 call	 @__security_check_cookie@4
  00043	b8 00 00 00 00	 mov	 eax, OFFSET __ehfuncinfo$??1ioInfectionBuff@@UAE@XZ
  00048	e9 00 00 00 00	 jmp	 ___CxxFrameHandler3
text$x	ENDS
??1ioInfectionBuff@@UAE@XZ ENDP				; ioInfectionBuff::~ioInfectionBuff
PUBLIC	??_C@_00CNPNBAHC@?$AA@				; `string'
PUBLIC	_this$GSCopy$
PUBLIC	_rkLoader$GSCopy$
PUBLIC	?LoadCallBuffList@ioInfectionBuff@@QAEXAAVioINILoader@@@Z ; ioInfectionBuff::LoadCallBuffList
EXTRN	__imp_??0ioHashString@@QAE@PBD@Z:PROC
EXTRN	__imp_??4ioHashString@@QAEAAV0@PBD@Z:PROC
EXTRN	__imp_?LoadStringA@ioINILoader@@QAEXPBD0PADH@Z:PROC
EXTRN	__imp__wsprintfA:PROC
EXTRN	__EH_epilog3_GS:PROC
EXTRN	__EH_prolog3_GS:PROC
;	COMDAT ??_C@_00CNPNBAHC@?$AA@
; File d:\lost saga for developer\youtube\tutorial\source\src\lsclient\stringprotect.h
CONST	SEGMENT
??_C@_00CNPNBAHC@?$AA@ DB 00H				; `string'
CONST	ENDS
;	COMDAT xdata$x
xdata$x	SEGMENT
__unwindtable$?LoadCallBuffList@ioInfectionBuff@@QAEXAAVioINILoader@@@Z DD 0ffffffffH
	DD	FLAT:__unwindfunclet$?LoadCallBuffList@ioInfectionBuff@@QAEXAAVioINILoader@@@Z$0
	DD	0ffffffffH
	DD	FLAT:__unwindfunclet$?LoadCallBuffList@ioInfectionBuff@@QAEXAAVioINILoader@@@Z$1
__ehfuncinfo$?LoadCallBuffList@ioInfectionBuff@@QAEXAAVioINILoader@@@Z DD 019930522H
	DD	02H
	DD	FLAT:__unwindtable$?LoadCallBuffList@ioInfectionBuff@@QAEXAAVioINILoader@@@Z
	DD	2 DUP(00H)
	DD	2 DUP(00H)
	DD	00H
	DD	01H
; Function compile flags: /Ogsp
; File d:\lost saga for developer\youtube\tutorial\source\src\lsclient\ioinfectionbuff.cpp
xdata$x	ENDS
;	COMDAT ?LoadCallBuffList@ioInfectionBuff@@QAEXAAVioINILoader@@@Z
_TEXT	SEGMENT
$T540253 = -644						; size = 1
_this$GSCopy$ = -644					; size = 4
tv4480 = -640						; size = 4
_rkLoader$GSCopy$ = -636				; size = 4
$T540401 = -632						; size = 4
$T540321 = -632						; size = 4
_iExceptCnt$ = -632					; size = 4
tv149 = -632						; size = 4
_iCnt$ = -632						; size = 4
_szBuf$ = -628						; size = 260
_szKey$ = -368						; size = 260
___encStr$530556 = -108					; size = 24
$T540256 = -96						; size = 16
__k$540488 = -80					; size = 21
_kCallBuff$530552 = -76					; size = 20
__k$540645 = -52					; size = 28
___encStr$531010 = -52					; size = 31
___encStr$530709 = -48					; size = 24
__$EHRec$ = -12						; size = 12
_rkLoader$ = 8						; size = 4
?LoadCallBuffList@ioInfectionBuff@@QAEXAAVioINILoader@@@Z PROC ; ioInfectionBuff::LoadCallBuffList, COMDAT
; _this$ = ecx

; 38   : {

  00000	68 78 02 00 00	 push	 632			; 00000278H
  00005	b8 00 00 00 00	 mov	 eax, __ehhandler$?LoadCallBuffList@ioInfectionBuff@@QAEXAAVioINILoader@@@Z
  0000a	e8 00 00 00 00	 call	 __EH_prolog3_GS
  0000f	8b 45 08	 mov	 eax, DWORD PTR _rkLoader$[ebp]
  00012	8b f9		 mov	 edi, ecx

; 39   : 	m_TargetCallBuffList.clear();

  00014	8d b7 b0 09 00
	00		 lea	 esi, DWORD PTR [edi+2480]
  0001a	8b 0e		 mov	 ecx, DWORD PTR [esi]

; 40   : 	m_TargetCallExceptBuffList.clear();
; 41   : 
; 42   : 	char szBuf[MAX_PATH], szKey[MAX_PATH];
; 43   : 
; 44   : 	int iCnt = rkLoader.LoadInt_e( "target_call_buff_cnt", 0 );

  0001c	89 85 84 fd ff
	ff		 mov	 DWORD PTR _rkLoader$GSCopy$[ebp], eax
  00022	8b 46 04	 mov	 eax, DWORD PTR [esi+4]
  00025	50		 push	 eax
  00026	51		 push	 ecx
  00027	8d 85 88 fd ff
	ff		 lea	 eax, DWORD PTR $T540321[ebp]
  0002d	50		 push	 eax
  0002e	8b ce		 mov	 ecx, esi
  00030	89 bd 7c fd ff
	ff		 mov	 DWORD PTR _this$GSCopy$[ebp], edi
  00036	e8 00 00 00 00	 call	 ?erase@?$vector@UCallBuff@@V?$allocator@UCallBuff@@@std@@@std@@QAE?AV?$_Vector_iterator@V?$_Vector_val@UCallBuff@@V?$allocator@UCallBuff@@@std@@@std@@@2@V?$_Vector_const_iterator@V?$_Vector_val@UCallBuff@@V?$allocator@UCallBuff@@@std@@@std@@@2@0@Z ; std::vector<CallBuff,std::allocator<CallBuff> >::erase
  0003b	8b 87 c4 09 00
	00		 mov	 eax, DWORD PTR [edi+2500]
  00041	81 c7 c0 09 00
	00		 add	 edi, 2496		; 000009c0H
  00047	8b 0f		 mov	 ecx, DWORD PTR [edi]
  00049	50		 push	 eax
  0004a	51		 push	 ecx
  0004b	8d 85 88 fd ff
	ff		 lea	 eax, DWORD PTR $T540401[ebp]
  00051	50		 push	 eax
  00052	8b cf		 mov	 ecx, edi
  00054	e8 00 00 00 00	 call	 ?erase@?$vector@VioHashString@@V?$allocator@VioHashString@@@std@@@std@@QAE?AV?$_Vector_iterator@V?$_Vector_val@VioHashString@@V?$allocator@VioHashString@@@std@@@std@@@2@V?$_Vector_const_iterator@V?$_Vector_val@VioHashString@@V?$allocator@VioHashString@@@std@@@std@@@2@0@Z ; std::vector<ioHashString,std::allocator<ioHashString> >::erase
  00059	33 db		 xor	 ebx, ebx
  0005b	6a 05		 push	 5
  0005d	c7 45 b0 99 8d
	99 8d		 mov	 DWORD PTR __k$540488[ebp], -1919316583 ; 8d998d99H
  00064	c7 45 b4 88 98
	b4 89		 mov	 DWORD PTR __k$540488[ebp+4], -1984653176 ; 89b49888H
  0006b	c7 45 b8 8c 80
	87 b5		 mov	 DWORD PTR __k$540488[ebp+8], -1249410932 ; b587808cH
  00072	c7 45 bc 8f 99
	8d 8c		 mov	 DWORD PTR __k$540488[ebp+12], -1936877169 ; 8c8d998fH
  00079	c7 45 c0 b2 8f
	85 9e		 mov	 DWORD PTR __k$540488[ebp+16], -1635414094 ; 9e858fb2H
  00080	8d 45 b0	 lea	 eax, DWORD PTR __k$540488[ebp]
  00083	88 5d c4	 mov	 BYTE PTR __k$540488[ebp+20], bl
  00086	59		 pop	 ecx
$LL450@LoadCallBu:
  00087	81 30 ed ec eb
	ea		 xor	 DWORD PTR [eax], -353637139 ; eaebecedH
  0008d	83 c0 04	 add	 eax, 4
  00090	49		 dec	 ecx
  00091	75 f4		 jne	 SHORT $LL450@LoadCallBu
  00093	8b 8d 84 fd ff
	ff		 mov	 ecx, DWORD PTR _rkLoader$GSCopy$[ebp]
  00099	53		 push	 ebx
  0009a	8d 45 b0	 lea	 eax, DWORD PTR __k$540488[ebp]
  0009d	50		 push	 eax
  0009e	ff 15 00 00 00
	00		 call	 DWORD PTR __imp_?LoadInt@ioINILoader@@QAEHPBDH@Z
  000a4	89 85 88 fd ff
	ff		 mov	 DWORD PTR _iCnt$[ebp], eax

; 45   : 	if( iCnt > 0 )

  000aa	3b c3		 cmp	 eax, ebx
  000ac	0f 8e b9 01 00
	00		 jle	 $LN104@LoadCallBu

; 46   : 	{
; 47   : 		m_TargetCallBuffList.reserve( iCnt );

  000b2	50		 push	 eax
  000b3	8b ce		 mov	 ecx, esi
  000b5	e8 00 00 00 00	 call	 ?reserve@?$vector@UCallBuff@@V?$allocator@UCallBuff@@@std@@@std@@QAEXI@Z ; std::vector<CallBuff,std::allocator<CallBuff> >::reserve

; 48   : 
; 49   : 		for( int i=0; i<iCnt; ++i )

  000ba	8b 85 88 fd ff
	ff		 mov	 eax, DWORD PTR _iCnt$[ebp]
  000c0	3b c3		 cmp	 eax, ebx
  000c2	0f 8e 80 01 00
	00		 jle	 $LN303@LoadCallBu

; 46   : 	{
; 47   : 		m_TargetCallBuffList.reserve( iCnt );

  000c8	c7 85 80 fd ff
	ff 01 00 00 00	 mov	 DWORD PTR tv4480[ebp], 1
  000d2	89 85 88 fd ff
	ff		 mov	 DWORD PTR tv149[ebp], eax
$LL305@LoadCallBu:

; 50   : 		{
; 51   : 			CallBuff kCallBuff;

  000d8	8d 4d b4	 lea	 ecx, DWORD PTR _kCallBuff$530552[ebp]
  000db	ff 15 00 00 00
	00		 call	 DWORD PTR __imp_??0ioHashString@@QAE@XZ
  000e1	89 5d c4	 mov	 DWORD PTR _kCallBuff$530552[ebp+16], ebx
  000e4	6a 05		 push	 5
  000e6	89 5d fc	 mov	 DWORD PTR __$EHRec$[ebp+8], ebx

; 52   : 
; 53   : 			wsprintf_e( szKey, "target_call_buff%d_name", i+1 );

  000e9	c7 45 94 99 8d
	99 8d		 mov	 DWORD PTR ___encStr$530556[ebp], -1919316583 ; 8d998d99H
  000f0	c7 45 98 88 98
	b4 89		 mov	 DWORD PTR ___encStr$530556[ebp+4], -1984653176 ; 89b49888H
  000f7	c7 45 9c 8c 80
	87 b5		 mov	 DWORD PTR ___encStr$530556[ebp+8], -1249410932 ; b587808cH
  000fe	c7 45 a0 8f 99
	8d 8c		 mov	 DWORD PTR ___encStr$530556[ebp+12], -1936877169 ; 8c8d998fH
  00105	c7 45 a4 c8 88
	b4 84		 mov	 DWORD PTR ___encStr$530556[ebp+16], -2068543288 ; 84b488c8H
  0010c	8d 45 94	 lea	 eax, DWORD PTR ___encStr$530556[ebp]
  0010f	c7 45 a8 8c 81
	8e 00		 mov	 DWORD PTR ___encStr$530556[ebp+20], 9339276 ; 008e818cH
  00116	59		 pop	 ecx
$LL461@LoadCallBu:
  00117	81 30 ed ec eb
	ea		 xor	 DWORD PTR [eax], -353637139 ; eaebecedH
  0011d	83 c0 04	 add	 eax, 4
  00120	49		 dec	 ecx
  00121	75 f4		 jne	 SHORT $LL461@LoadCallBu
  00123	6a 14		 push	 20			; 00000014H
  00125	58		 pop	 eax
$LL458@LoadCallBu:
  00126	8b c8		 mov	 ecx, eax
  00128	81 e1 03 00 00
	80		 and	 ecx, -2147483645	; 80000003H
  0012e	79 05		 jns	 SHORT $LN633@LoadCallBu
  00130	49		 dec	 ecx
  00131	83 c9 fc	 or	 ecx, -4			; fffffffcH
  00134	41		 inc	 ecx
$LN633@LoadCallBu:
  00135	b2 ed		 mov	 dl, -19			; ffffffedH
  00137	2a d1		 sub	 dl, cl
  00139	30 54 05 94	 xor	 BYTE PTR ___encStr$530556[ebp+eax], dl
  0013d	40		 inc	 eax
  0013e	83 f8 17	 cmp	 eax, 23			; 00000017H
  00141	7c e3		 jl	 SHORT $LL458@LoadCallBu
  00143	ff b5 80 fd ff
	ff		 push	 DWORD PTR tv4480[ebp]
  00149	8d 45 94	 lea	 eax, DWORD PTR ___encStr$530556[ebp]
  0014c	50		 push	 eax
  0014d	8d 85 90 fe ff
	ff		 lea	 eax, DWORD PTR _szKey$[ebp]
  00153	50		 push	 eax
  00154	ff 15 00 00 00
	00		 call	 DWORD PTR __imp__wsprintfA

; 54   : 			rkLoader.LoadString( szKey, "", szBuf, MAX_PATH );

  0015a	8b 8d 84 fd ff
	ff		 mov	 ecx, DWORD PTR _rkLoader$GSCopy$[ebp]
  00160	83 c4 0c	 add	 esp, 12			; 0000000cH
  00163	68 04 01 00 00	 push	 260			; 00000104H
  00168	8d 85 8c fd ff
	ff		 lea	 eax, DWORD PTR _szBuf$[ebp]
  0016e	50		 push	 eax
  0016f	68 00 00 00 00	 push	 OFFSET ??_C@_00CNPNBAHC@?$AA@
  00174	8d 85 90 fe ff
	ff		 lea	 eax, DWORD PTR _szKey$[ebp]
  0017a	50		 push	 eax
  0017b	ff 15 00 00 00
	00		 call	 DWORD PTR __imp_?LoadStringA@ioINILoader@@QAEXPBD0PADH@Z

; 55   : 			kCallBuff.m_szBuffName = szBuf;

  00181	8d 85 8c fd ff
	ff		 lea	 eax, DWORD PTR _szBuf$[ebp]
  00187	50		 push	 eax
  00188	8d 4d b4	 lea	 ecx, DWORD PTR _kCallBuff$530552[ebp]
  0018b	ff 15 00 00 00
	00		 call	 DWORD PTR __imp_??4ioHashString@@QAEAAV0@PBD@Z
  00191	6a 05		 push	 5

; 56   : 
; 57   : 			wsprintf_e( szKey, "target_call_buff%d_time", i+1 );

  00193	c7 45 d0 99 8d
	99 8d		 mov	 DWORD PTR ___encStr$530709[ebp], -1919316583 ; 8d998d99H
  0019a	c7 45 d4 88 98
	b4 89		 mov	 DWORD PTR ___encStr$530709[ebp+4], -1984653176 ; 89b49888H
  001a1	c7 45 d8 8c 80
	87 b5		 mov	 DWORD PTR ___encStr$530709[ebp+8], -1249410932 ; b587808cH
  001a8	c7 45 dc 8f 99
	8d 8c		 mov	 DWORD PTR ___encStr$530709[ebp+12], -1936877169 ; 8c8d998fH
  001af	c7 45 e0 c8 88
	b4 9e		 mov	 DWORD PTR ___encStr$530709[ebp+16], -1632335672 ; 9eb488c8H
  001b6	8d 45 d0	 lea	 eax, DWORD PTR ___encStr$530709[ebp]
  001b9	c7 45 e4 84 81
	8e 00		 mov	 DWORD PTR ___encStr$530709[ebp+20], 9339268 ; 008e8184H
  001c0	59		 pop	 ecx
$LL469@LoadCallBu:
  001c1	81 30 ed ec eb
	ea		 xor	 DWORD PTR [eax], -353637139 ; eaebecedH
  001c7	83 c0 04	 add	 eax, 4
  001ca	49		 dec	 ecx
  001cb	75 f4		 jne	 SHORT $LL469@LoadCallBu
  001cd	6a 14		 push	 20			; 00000014H
  001cf	58		 pop	 eax
$LL466@LoadCallBu:
  001d0	8b c8		 mov	 ecx, eax
  001d2	81 e1 03 00 00
	80		 and	 ecx, -2147483645	; 80000003H
  001d8	79 05		 jns	 SHORT $LN634@LoadCallBu
  001da	49		 dec	 ecx
  001db	83 c9 fc	 or	 ecx, -4			; fffffffcH
  001de	41		 inc	 ecx
$LN634@LoadCallBu:
  001df	b2 ed		 mov	 dl, -19			; ffffffedH
  001e1	2a d1		 sub	 dl, cl
  001e3	30 54 05 d0	 xor	 BYTE PTR ___encStr$530709[ebp+eax], dl
  001e7	40		 inc	 eax
  001e8	83 f8 17	 cmp	 eax, 23			; 00000017H
  001eb	7c e3		 jl	 SHORT $LL466@LoadCallBu
  001ed	ff b5 80 fd ff
	ff		 push	 DWORD PTR tv4480[ebp]
  001f3	8d 45 d0	 lea	 eax, DWORD PTR ___encStr$530709[ebp]
  001f6	50		 push	 eax
  001f7	8d 85 90 fe ff
	ff		 lea	 eax, DWORD PTR _szKey$[ebp]
  001fd	50		 push	 eax
  001fe	ff 15 00 00 00
	00		 call	 DWORD PTR __imp__wsprintfA

; 58   : 			kCallBuff.m_dwBuffCallTime = (DWORD)rkLoader.LoadInt( szKey, 0 );

  00204	8b 8d 84 fd ff
	ff		 mov	 ecx, DWORD PTR _rkLoader$GSCopy$[ebp]
  0020a	83 c4 0c	 add	 esp, 12			; 0000000cH
  0020d	53		 push	 ebx
  0020e	8d 85 90 fe ff
	ff		 lea	 eax, DWORD PTR _szKey$[ebp]
  00214	50		 push	 eax
  00215	ff 15 00 00 00
	00		 call	 DWORD PTR __imp_?LoadInt@ioINILoader@@QAEHPBDH@Z
  0021b	89 45 c4	 mov	 DWORD PTR _kCallBuff$530552[ebp+16], eax

; 59   : 
; 60   : 			m_TargetCallBuffList.push_back( kCallBuff );

  0021e	8d 45 b4	 lea	 eax, DWORD PTR _kCallBuff$530552[ebp]
  00221	50		 push	 eax
  00222	8b ce		 mov	 ecx, esi
  00224	e8 00 00 00 00	 call	 ?push_back@?$vector@UCallBuff@@V?$allocator@UCallBuff@@@std@@@std@@QAEXABUCallBuff@@@Z ; std::vector<CallBuff,std::allocator<CallBuff> >::push_back

; 61   : 		}

  00229	83 4d fc ff	 or	 DWORD PTR __$EHRec$[ebp+8], -1
  0022d	8d 4d b4	 lea	 ecx, DWORD PTR _kCallBuff$530552[ebp]
  00230	ff 15 00 00 00
	00		 call	 DWORD PTR __imp_??1ioHashString@@QAE@XZ
  00236	ff 85 80 fd ff
	ff		 inc	 DWORD PTR tv4480[ebp]
  0023c	ff 8d 88 fd ff
	ff		 dec	 DWORD PTR tv149[ebp]
  00242	0f 85 90 fe ff
	ff		 jne	 $LL305@LoadCallBu
$LN303@LoadCallBu:

; 62   : 
; 63   : 		if( !m_TargetCallBuffList.empty() )

  00248	8b 06		 mov	 eax, DWORD PTR [esi]
  0024a	3b 46 04	 cmp	 eax, DWORD PTR [esi+4]
  0024d	74 1c		 je	 SHORT $LN104@LoadCallBu

; 64   : 			std::sort( m_TargetCallBuffList.begin(), m_TargetCallBuffList.end(), CallBuffSort() );

  0024f	8b 8d 7c fd ff
	ff		 mov	 ecx, DWORD PTR _this$GSCopy$[ebp]
  00255	ff b5 7c fd ff
	ff		 push	 DWORD PTR $T540253[ebp]
  0025b	8b 89 b4 09 00
	00		 mov	 ecx, DWORD PTR [ecx+2484]
  00261	51		 push	 ecx
  00262	50		 push	 eax
  00263	e8 00 00 00 00	 call	 ??$sort@V?$_Vector_iterator@V?$_Vector_val@UCallBuff@@V?$allocator@UCallBuff@@@std@@@std@@@std@@VCallBuffSort@@@std@@YAXV?$_Vector_iterator@V?$_Vector_val@UCallBuff@@V?$allocator@UCallBuff@@@std@@@std@@@0@0VCallBuffSort@@@Z ; std::sort<std::_Vector_iterator<std::_Vector_val<CallBuff,std::allocator<CallBuff> > >,CallBuffSort>
  00268	83 c4 0c	 add	 esp, 12			; 0000000cH
$LN104@LoadCallBu:

; 65   : 	}
; 66   : 
; 67   : 	int iExceptCnt = rkLoader.LoadInt_e( "target_call_except_buff_cnt", 0 );

  0026b	6a 06		 push	 6
  0026d	c7 45 cc 99 8d
	99 8d		 mov	 DWORD PTR __k$540645[ebp], -1919316583 ; 8d998d99H
  00274	c7 45 d0 88 98
	b4 89		 mov	 DWORD PTR __k$540645[ebp+4], -1984653176 ; 89b49888H
  0027b	c7 45 d4 8c 80
	87 b5		 mov	 DWORD PTR __k$540645[ebp+8], -1249410932 ; b587808cH
  00282	c7 45 d8 88 94
	88 8f		 mov	 DWORD PTR __k$540645[ebp+12], -1886874488 ; 8f889488H
  00289	c7 45 dc 9d 98
	b4 88		 mov	 DWORD PTR __k$540645[ebp+16], -2001430371 ; 88b4989dH
  00290	c7 45 e0 98 8a
	8d b5		 mov	 DWORD PTR __k$540645[ebp+20], -1249015144 ; b58d8a98H
  00297	8d 45 cc	 lea	 eax, DWORD PTR __k$540645[ebp]
  0029a	c7 45 e4 8e 82
	9f 00		 mov	 DWORD PTR __k$540645[ebp+24], 10453646 ; 009f828eH
  002a1	59		 pop	 ecx
$LL596@LoadCallBu:
  002a2	81 30 ed ec eb
	ea		 xor	 DWORD PTR [eax], -353637139 ; eaebecedH
  002a8	83 c0 04	 add	 eax, 4
  002ab	49		 dec	 ecx
  002ac	75 f4		 jne	 SHORT $LL596@LoadCallBu
  002ae	6a 18		 push	 24			; 00000018H
  002b0	5e		 pop	 esi
$LL593@LoadCallBu:
  002b1	8b c6		 mov	 eax, esi
  002b3	25 03 00 00 80	 and	 eax, -2147483645	; 80000003H
  002b8	79 05		 jns	 SHORT $LN635@LoadCallBu
  002ba	48		 dec	 eax
  002bb	83 c8 fc	 or	 eax, -4			; fffffffcH
  002be	40		 inc	 eax
$LN635@LoadCallBu:
  002bf	b1 ed		 mov	 cl, -19			; ffffffedH
  002c1	2a c8		 sub	 cl, al
  002c3	30 4c 35 cc	 xor	 BYTE PTR __k$540645[ebp+esi], cl
  002c7	46		 inc	 esi
  002c8	83 fe 1b	 cmp	 esi, 27			; 0000001bH
  002cb	7c e4		 jl	 SHORT $LL593@LoadCallBu
  002cd	8b 8d 84 fd ff
	ff		 mov	 ecx, DWORD PTR _rkLoader$GSCopy$[ebp]
  002d3	53		 push	 ebx
  002d4	8d 45 cc	 lea	 eax, DWORD PTR __k$540645[ebp]
  002d7	50		 push	 eax
  002d8	ff 15 00 00 00
	00		 call	 DWORD PTR __imp_?LoadInt@ioINILoader@@QAEHPBDH@Z
  002de	89 85 88 fd ff
	ff		 mov	 DWORD PTR _iExceptCnt$[ebp], eax

; 68   : 	if( iExceptCnt > 0 )

  002e4	3b c3		 cmp	 eax, ebx
  002e6	0f 8e f7 00 00
	00		 jle	 $LN100@LoadCallBu

; 69   : 	{
; 70   : 		m_TargetCallExceptBuffList.reserve( iExceptCnt );

  002ec	50		 push	 eax
  002ed	8b cf		 mov	 ecx, edi
  002ef	e8 00 00 00 00	 call	 ?reserve@?$vector@VioHashString@@V?$allocator@VioHashString@@@std@@@std@@QAEXI@Z ; std::vector<ioHashString,std::allocator<ioHashString> >::reserve

; 71   : 
; 72   : 		for( int i=0; i < iExceptCnt; ++i )

  002f4	33 f6		 xor	 esi, esi
  002f6	39 9d 88 fd ff
	ff		 cmp	 DWORD PTR _iExceptCnt$[ebp], ebx
  002fc	0f 8e e1 00 00
	00		 jle	 $LN100@LoadCallBu
$LL102@LoadCallBu:

; 65   : 	}
; 66   : 
; 67   : 	int iExceptCnt = rkLoader.LoadInt_e( "target_call_except_buff_cnt", 0 );

  00302	6a 07		 push	 7

; 73   : 		{
; 74   : 			wsprintf_e( szKey, "target_call_except_buff%d_name", i+1 );

  00304	c7 45 cc 99 8d
	99 8d		 mov	 DWORD PTR ___encStr$531010[ebp], -1919316583 ; 8d998d99H
  0030b	c7 45 d0 88 98
	b4 89		 mov	 DWORD PTR ___encStr$531010[ebp+4], -1984653176 ; 89b49888H
  00312	c7 45 d4 8c 80
	87 b5		 mov	 DWORD PTR ___encStr$531010[ebp+8], -1249410932 ; b587808cH
  00319	c7 45 d8 88 94
	88 8f		 mov	 DWORD PTR ___encStr$531010[ebp+12], -1886874488 ; 8f889488H
  00320	c7 45 dc 9d 98
	b4 88		 mov	 DWORD PTR ___encStr$531010[ebp+16], -2001430371 ; 88b4989dH
  00327	c7 45 e0 98 8a
	8d cf		 mov	 DWORD PTR ___encStr$531010[ebp+20], -812807528 ; cf8d8a98H
  0032e	c7 45 e4 89 b3
	85 8b		 mov	 DWORD PTR ___encStr$531010[ebp+24], -1954172023 ; 8b85b389H
  00335	66 c7 45 e8 80
	89		 mov	 WORD PTR ___encStr$531010[ebp+28], 35200 ; 00008980H
  0033b	8d 45 cc	 lea	 eax, DWORD PTR ___encStr$531010[ebp]
  0033e	88 5d ea	 mov	 BYTE PTR ___encStr$531010[ebp+30], bl
  00341	59		 pop	 ecx
$LL604@LoadCallBu:
  00342	81 30 ed ec eb
	ea		 xor	 DWORD PTR [eax], -353637139 ; eaebecedH
  00348	83 c0 04	 add	 eax, 4
  0034b	49		 dec	 ecx
  0034c	75 f4		 jne	 SHORT $LL604@LoadCallBu
  0034e	6a 1c		 push	 28			; 0000001cH
  00350	58		 pop	 eax
$LL601@LoadCallBu:
  00351	8b c8		 mov	 ecx, eax
  00353	81 e1 03 00 00
	80		 and	 ecx, -2147483645	; 80000003H
  00359	79 05		 jns	 SHORT $LN636@LoadCallBu
  0035b	49		 dec	 ecx
  0035c	83 c9 fc	 or	 ecx, -4			; fffffffcH
  0035f	41		 inc	 ecx
$LN636@LoadCallBu:
  00360	b2 ed		 mov	 dl, -19			; ffffffedH
  00362	2a d1		 sub	 dl, cl
  00364	30 54 05 cc	 xor	 BYTE PTR ___encStr$531010[ebp+eax], dl
  00368	40		 inc	 eax
  00369	83 f8 1e	 cmp	 eax, 30			; 0000001eH
  0036c	7c e3		 jl	 SHORT $LL601@LoadCallBu
  0036e	46		 inc	 esi
  0036f	56		 push	 esi
  00370	8d 45 cc	 lea	 eax, DWORD PTR ___encStr$531010[ebp]
  00373	50		 push	 eax
  00374	8d 85 90 fe ff
	ff		 lea	 eax, DWORD PTR _szKey$[ebp]
  0037a	50		 push	 eax
  0037b	ff 15 00 00 00
	00		 call	 DWORD PTR __imp__wsprintfA

; 75   : 			rkLoader.LoadString( szKey, "", szBuf, MAX_PATH );

  00381	8b 8d 84 fd ff
	ff		 mov	 ecx, DWORD PTR _rkLoader$GSCopy$[ebp]
  00387	83 c4 0c	 add	 esp, 12			; 0000000cH
  0038a	68 04 01 00 00	 push	 260			; 00000104H
  0038f	8d 85 8c fd ff
	ff		 lea	 eax, DWORD PTR _szBuf$[ebp]
  00395	50		 push	 eax
  00396	68 00 00 00 00	 push	 OFFSET ??_C@_00CNPNBAHC@?$AA@
  0039b	8d 85 90 fe ff
	ff		 lea	 eax, DWORD PTR _szKey$[ebp]
  003a1	50		 push	 eax
  003a2	ff 15 00 00 00
	00		 call	 DWORD PTR __imp_?LoadStringA@ioINILoader@@QAEXPBD0PADH@Z

; 76   : 
; 77   : 			m_TargetCallExceptBuffList.push_back( szBuf );

  003a8	8d 85 8c fd ff
	ff		 lea	 eax, DWORD PTR _szBuf$[ebp]
  003ae	50		 push	 eax
  003af	8d 4d a0	 lea	 ecx, DWORD PTR $T540256[ebp]
  003b2	ff 15 00 00 00
	00		 call	 DWORD PTR __imp_??0ioHashString@@QAE@PBD@Z
  003b8	8d 45 a0	 lea	 eax, DWORD PTR $T540256[ebp]
  003bb	50		 push	 eax
  003bc	8b cf		 mov	 ecx, edi
  003be	c7 45 fc 01 00
	00 00		 mov	 DWORD PTR __$EHRec$[ebp+8], 1
  003c5	e8 00 00 00 00	 call	 ?push_back@?$vector@VioHashString@@V?$allocator@VioHashString@@@std@@@std@@QAEXABVioHashString@@@Z ; std::vector<ioHashString,std::allocator<ioHashString> >::push_back
  003ca	83 4d fc ff	 or	 DWORD PTR __$EHRec$[ebp+8], -1
  003ce	8d 4d a0	 lea	 ecx, DWORD PTR $T540256[ebp]
  003d1	ff 15 00 00 00
	00		 call	 DWORD PTR __imp_??1ioHashString@@QAE@XZ
  003d7	3b b5 88 fd ff
	ff		 cmp	 esi, DWORD PTR _iExceptCnt$[ebp]
  003dd	0f 8c 1f ff ff
	ff		 jl	 $LL102@LoadCallBu
$LN100@LoadCallBu:

; 78   : 		}
; 79   : 	}
; 80   : }

  003e3	e8 00 00 00 00	 call	 __EH_epilog3_GS
  003e8	c2 04 00	 ret	 4
_TEXT	ENDS
;	COMDAT text$x
text$x	SEGMENT
__unwindfunclet$?LoadCallBuffList@ioInfectionBuff@@QAEXAAVioINILoader@@@Z$0:
  00000	8d 4d b4	 lea	 ecx, DWORD PTR _kCallBuff$530552[ebp]
  00003	e9 00 00 00 00	 jmp	 ??1CallBuff@@QAE@XZ
__unwindfunclet$?LoadCallBuffList@ioInfectionBuff@@QAEXAAVioINILoader@@@Z$1:
  00008	8d 4d a0	 lea	 ecx, DWORD PTR $T540256[ebp]
  0000b	ff 25 00 00 00
	00		 jmp	 DWORD PTR __imp_??1ioHashString@@QAE@XZ
__ehhandler$?LoadCallBuffList@ioInfectionBuff@@QAEXAAVioINILoader@@@Z:
  00011	8b 54 24 08	 mov	 edx, DWORD PTR [esp+8]
  00015	8d 42 0c	 lea	 eax, DWORD PTR [edx+12]
  00018	8b 8a 78 fd ff
	ff		 mov	 ecx, DWORD PTR [edx-648]
  0001e	33 c8		 xor	 ecx, eax
  00020	e8 00 00 00 00	 call	 @__security_check_cookie@4
  00025	8b 4a fc	 mov	 ecx, DWORD PTR [edx-4]
  00028	33 c8		 xor	 ecx, eax
  0002a	e8 00 00 00 00	 call	 @__security_check_cookie@4
  0002f	b8 00 00 00 00	 mov	 eax, OFFSET __ehfuncinfo$?LoadCallBuffList@ioInfectionBuff@@QAEXAAVioINILoader@@@Z
  00034	e9 00 00 00 00	 jmp	 ___CxxFrameHandler3
text$x	ENDS
?LoadCallBuffList@ioInfectionBuff@@QAEXAAVioINILoader@@@Z ENDP ; ioInfectionBuff::LoadCallBuffList
;	COMDAT xdata$x
xdata$x	SEGMENT
__unwindtable$?Clone@ioInfectionBuff@@UAEPAVioBuff@@XZ DD 0ffffffffH
	DD	FLAT:__unwindfunclet$?Clone@ioInfectionBuff@@UAEPAVioBuff@@XZ$0
__ehfuncinfo$?Clone@ioInfectionBuff@@UAEPAVioBuff@@XZ DD 019930522H
	DD	01H
	DD	FLAT:__unwindtable$?Clone@ioInfectionBuff@@UAEPAVioBuff@@XZ
	DD	2 DUP(00H)
	DD	2 DUP(00H)
	DD	00H
	DD	01H
; Function compile flags: /Ogsp
xdata$x	ENDS
;	COMDAT ?Clone@ioInfectionBuff@@UAEPAVioBuff@@XZ
_TEXT	SEGMENT
$T540809 = -16						; size = 4
__$EHRec$ = -12						; size = 12
?Clone@ioInfectionBuff@@UAEPAVioBuff@@XZ PROC		; ioInfectionBuff::Clone, COMDAT
; _this$ = ecx

; 83   : {

  00000	6a 04		 push	 4
  00002	b8 00 00 00 00	 mov	 eax, __ehhandler$?Clone@ioInfectionBuff@@UAEPAVioBuff@@XZ
  00007	e8 00 00 00 00	 call	 __EH_prolog3
  0000c	8b f1		 mov	 esi, ecx

; 84   : 	return new ioInfectionBuff( *this );

  0000e	68 d0 09 00 00	 push	 2512			; 000009d0H
  00013	e8 00 00 00 00	 call	 ??2@YAPAXI@Z		; operator new
  00018	59		 pop	 ecx
  00019	8b c8		 mov	 ecx, eax
  0001b	89 4d f0	 mov	 DWORD PTR $T540809[ebp], ecx
  0001e	33 c0		 xor	 eax, eax
  00020	89 45 fc	 mov	 DWORD PTR __$EHRec$[ebp+8], eax
  00023	3b c8		 cmp	 ecx, eax
  00025	74 06		 je	 SHORT $LN3@Clone
  00027	56		 push	 esi
  00028	e8 00 00 00 00	 call	 ??0ioInfectionBuff@@QAE@ABV0@@Z ; ioInfectionBuff::ioInfectionBuff
$LN3@Clone:

; 85   : }

  0002d	e8 00 00 00 00	 call	 __EH_epilog3
  00032	c3		 ret	 0
_TEXT	ENDS
;	COMDAT text$x
text$x	SEGMENT
__unwindfunclet$?Clone@ioInfectionBuff@@UAEPAVioBuff@@XZ$0:
  00000	ff 75 f0	 push	 DWORD PTR $T540809[ebp]
  00003	e8 00 00 00 00	 call	 ??3@YAXPAX@Z		; operator delete
  00008	59		 pop	 ecx
  00009	c3		 ret	 0
__ehhandler$?Clone@ioInfectionBuff@@UAEPAVioBuff@@XZ:
  0000a	8b 54 24 08	 mov	 edx, DWORD PTR [esp+8]
  0000e	8d 42 0c	 lea	 eax, DWORD PTR [edx+12]
  00011	8b 4a ec	 mov	 ecx, DWORD PTR [edx-20]
  00014	33 c8		 xor	 ecx, eax
  00016	e8 00 00 00 00	 call	 @__security_check_cookie@4
  0001b	b8 00 00 00 00	 mov	 eax, OFFSET __ehfuncinfo$?Clone@ioInfectionBuff@@UAEPAVioBuff@@XZ
  00020	e9 00 00 00 00	 jmp	 ___CxxFrameHandler3
text$x	ENDS
?Clone@ioInfectionBuff@@UAEPAVioBuff@@XZ ENDP		; ioInfectionBuff::Clone
PUBLIC	??_C@_0BK@OAOGBKMA@PC?5?9BuffAddBuff2?5?3?5?$CFs?0?5?$CFd?$AA@ ; `string'
PUBLIC	__$ArrayPad$
PUBLIC	?SetTargetInfection@ioInfectionBuff@@IAEXVioHashString@@0@Z ; ioInfectionBuff::SetTargetInfection
EXTRN	??1SP2Packet@@UAE@XZ:PROC			; SP2Packet::~SP2Packet
EXTRN	?SendToAllPlayingUser@P2PNetwork@@YAXAAVSP2Packet@@PAVioBaseChar@@@Z:PROC ; P2PNetwork::SendToAllPlayingUser
EXTRN	??6SP2Packet@@QAEAAV0@H@Z:PROC			; SP2Packet::operator<<
EXTRN	??6SP2Packet@@QAEAAV0@M@Z:PROC			; SP2Packet::operator<<
EXTRN	??6SP2Packet@@QAEAAV0@_N@Z:PROC			; SP2Packet::operator<<
EXTRN	??6SP2Packet@@QAEAAV0@K@Z:PROC			; SP2Packet::operator<<
EXTRN	??6SP2Packet@@QAEAAV0@ABVioHashString@@@Z:PROC	; SP2Packet::operator<<
EXTRN	??0SP2Packet@@QAE@K@Z:PROC			; SP2Packet::SP2Packet
EXTRN	__imp_?PrintTimeAndLog@CLog@@QAAXHPADZZ:PROC
EXTRN	__imp_?LOG@@3VCLog@@A:BYTE
EXTRN	?CheckEnableTimeGapUser@Help@@YA_NH@Z:PROC	; Help::CheckEnableTimeGapUser
EXTRN	?AddNewBuff@ioBaseChar@@QAEPAVioBuff@@ABVioHashString@@00PAVioSkill@@_N@Z:PROC ; ioBaseChar::AddNewBuff
EXTRN	__chkstk:PROC
;	COMDAT ??_C@_0BK@OAOGBKMA@PC?5?9BuffAddBuff2?5?3?5?$CFs?0?5?$CFd?$AA@
; File c:\program files (x86)\microsoft visual studio 10.0\vc\include\vector
CONST	SEGMENT
??_C@_0BK@OAOGBKMA@PC?5?9BuffAddBuff2?5?3?5?$CFs?0?5?$CFd?$AA@ DB 'PC -Bu'
	DB	'ffAddBuff2 : %s, %d', 00H			; `string'
CONST	ENDS
;	COMDAT xdata$x
xdata$x	SEGMENT
__ehfuncinfo$?SetTargetInfection@ioInfectionBuff@@IAEXVioHashString@@0@Z DD 019930522H
	DD	05H
	DD	FLAT:__unwindtable$?SetTargetInfection@ioInfectionBuff@@IAEXVioHashString@@0@Z
	DD	2 DUP(00H)
	DD	2 DUP(00H)
	DD	00H
	DD	01H
__unwindtable$?SetTargetInfection@ioInfectionBuff@@IAEXVioHashString@@0@Z DD 0ffffffffH
	DD	FLAT:__unwindfunclet$?SetTargetInfection@ioInfectionBuff@@IAEXVioHashString@@0@Z$0
	DD	00H
	DD	FLAT:__unwindfunclet$?SetTargetInfection@ioInfectionBuff@@IAEXVioHashString@@0@Z$1
	DD	01H
	DD	FLAT:__unwindfunclet$?SetTargetInfection@ioInfectionBuff@@IAEXVioHashString@@0@Z$2
	DD	02H
	DD	FLAT:__unwindfunclet$?SetTargetInfection@ioInfectionBuff@@IAEXVioHashString@@0@Z$3
	DD	02H
	DD	FLAT:__unwindfunclet$?SetTargetInfection@ioInfectionBuff@@IAEXVioHashString@@0@Z$4
; Function compile flags: /Ogsp
; File d:\lost saga for developer\youtube\tutorial\source\src\lsclient\ioinfectionbuff.cpp
xdata$x	ENDS
;	COMDAT ?SetTargetInfection@ioInfectionBuff@@IAEXVioHashString@@0@Z
_TEXT	SEGMENT
_CallInfo$531488 = -32848				; size = 20
_vBuffList$531465 = -32828				; size = 16
_iter$ = -32812						; size = 4
_kPacket$531495 = -32808				; size = 32792
__$ArrayPad$ = -16					; size = 4
__$EHRec$ = -12						; size = 12
_pInfectionHost$ = 8					; size = 16
_pInfectionHostItemName$ = 24				; size = 16
?SetTargetInfection@ioInfectionBuff@@IAEXVioHashString@@0@Z PROC ; ioInfectionBuff::SetTargetInfection, COMDAT
; _this$ = ecx

; 368  : {

  00000	55		 push	 ebp
  00001	8b ec		 mov	 ebp, esp
  00003	6a ff		 push	 -1
  00005	68 00 00 00 00	 push	 __ehhandler$?SetTargetInfection@ioInfectionBuff@@IAEXVioHashString@@0@Z
  0000a	64 a1 00 00 00
	00		 mov	 eax, DWORD PTR fs:0
  00010	50		 push	 eax
  00011	b8 44 80 00 00	 mov	 eax, 32836		; 00008044H
  00016	e8 00 00 00 00	 call	 __chkstk
  0001b	a1 00 00 00 00	 mov	 eax, DWORD PTR ___security_cookie
  00020	33 c5		 xor	 eax, ebp
  00022	89 45 f0	 mov	 DWORD PTR __$ArrayPad$[ebp], eax
  00025	53		 push	 ebx
  00026	56		 push	 esi
  00027	57		 push	 edi
  00028	50		 push	 eax
  00029	8d 45 f4	 lea	 eax, DWORD PTR __$EHRec$[ebp]
  0002c	64 a3 00 00 00
	00		 mov	 DWORD PTR fs:0, eax
  00032	8b f1		 mov	 esi, ecx

; 369  : 	
; 370  : 	if( m_TargetCallBuffList.empty() ) return;

  00034	8b 86 b0 09 00
	00		 mov	 eax, DWORD PTR [esi+2480]
  0003a	c7 45 fc 01 00
	00 00		 mov	 DWORD PTR __$EHRec$[ebp+8], 1
  00041	3b 86 b4 09 00
	00		 cmp	 eax, DWORD PTR [esi+2484]
  00047	0f 84 4c 02 00
	00		 je	 $LN12@SetTargetI

; 371  : 
; 372  : 	BaseCharList::iterator iter;
; 373  : 	for( iter = m_TargetList.begin(); iter != m_TargetList.end(); ++iter )

  0004d	8b be 70 09 00
	00		 mov	 edi, DWORD PTR [esi+2416]
  00053	e9 2f 02 00 00	 jmp	 $LN128@SetTargetI
$LL39@SetTargetI:

; 374  : 	{	
; 375  : 		ioBaseChar *pTarget = (*iter);

  00058	8b 1f		 mov	 ebx, DWORD PTR [edi]

; 376  : 		if( !pTarget )

  0005a	85 db		 test	 ebx, ebx
  0005c	0f 84 22 02 00
	00		 je	 $LN13@SetTargetI

; 377  : 			continue;
; 378  : 
; 379  : 		if( !pTarget->IsNeedProcess() )

  00062	8b 03		 mov	 eax, DWORD PTR [ebx]
  00064	8b cb		 mov	 ecx, ebx
  00066	ff 90 00 01 00
	00		 call	 DWORD PTR [eax+256]
  0006c	84 c0		 test	 al, al
  0006e	0f 84 10 02 00
	00		 je	 $LN13@SetTargetI

; 380  : 			continue;
; 381  : 
; 382  : 		// 
; 383  : 		ioHashStringVec vBuffList;

  00074	33 c0		 xor	 eax, eax
  00076	89 85 c4 7f ff
	ff		 mov	 DWORD PTR _vBuffList$531465[ebp], eax
  0007c	89 85 c8 7f ff
	ff		 mov	 DWORD PTR _vBuffList$531465[ebp+4], eax
  00082	89 85 cc 7f ff
	ff		 mov	 DWORD PTR _vBuffList$531465[ebp+8], eax

; 384  : 		CallBuffList::iterator call_iter;
; 385  : 		for( call_iter = m_TargetCallBuffList.begin(); call_iter != m_TargetCallBuffList.end(); ++call_iter )

  00088	8b be b0 09 00
	00		 mov	 edi, DWORD PTR [esi+2480]
  0008e	c6 45 fc 02	 mov	 BYTE PTR __$EHRec$[ebp+8], 2
  00092	3b be b4 09 00
	00		 cmp	 edi, DWORD PTR [esi+2484]
  00098	74 6b		 je	 SHORT $LN7@SetTargetI
$LL81@SetTargetI:

; 386  : 		{
; 387  : 			CallBuff CallInfo = (*call_iter);

  0009a	57		 push	 edi
  0009b	8d 8d b0 7f ff
	ff		 lea	 ecx, DWORD PTR _CallInfo$531488[ebp]
  000a1	ff 15 00 00 00
	00		 call	 DWORD PTR __imp_??0ioHashString@@QAE@ABV0@@Z
  000a7	8b 47 10	 mov	 eax, DWORD PTR [edi+16]
  000aa	89 85 c0 7f ff
	ff		 mov	 DWORD PTR _CallInfo$531488[ebp+16], eax

; 388  : 			ioBuff* pTargetBuff = pTarget->AddNewBuff( CallInfo.m_szBuffName,
; 389  : 				pInfectionHost,
; 390  : 				pInfectionHostItemName,
; 391  : 				NULL );

  000b0	6a 00		 push	 0
  000b2	6a 00		 push	 0
  000b4	8d 45 18	 lea	 eax, DWORD PTR _pInfectionHostItemName$[ebp]
  000b7	50		 push	 eax
  000b8	8d 45 08	 lea	 eax, DWORD PTR _pInfectionHost$[ebp]
  000bb	50		 push	 eax
  000bc	8d 85 b0 7f ff
	ff		 lea	 eax, DWORD PTR _CallInfo$531488[ebp]
  000c2	50		 push	 eax
  000c3	8b cb		 mov	 ecx, ebx
  000c5	c6 45 fc 03	 mov	 BYTE PTR __$EHRec$[ebp+8], 3
  000c9	e8 00 00 00 00	 call	 ?AddNewBuff@ioBaseChar@@QAEPAVioBuff@@ABVioHashString@@00PAVioSkill@@_N@Z ; ioBaseChar::AddNewBuff

; 392  : 			//pTarget->ReserveAddNewBuff( CallInfo.m_szBuffName, pInfectionHost, pInfectionHostItemName, NULL );
; 393  : 
; 394  : 			if( pTargetBuff )

  000ce	85 c0		 test	 eax, eax
  000d0	74 12		 je	 SHORT $LN6@SetTargetI

; 395  : 			{
; 396  : 				vBuffList.push_back( CallInfo.m_szBuffName );

  000d2	8d 85 b0 7f ff
	ff		 lea	 eax, DWORD PTR _CallInfo$531488[ebp]
  000d8	50		 push	 eax
  000d9	8d 8d c4 7f ff
	ff		 lea	 ecx, DWORD PTR _vBuffList$531465[ebp]
  000df	e8 00 00 00 00	 call	 ?push_back@?$vector@VioHashString@@V?$allocator@VioHashString@@@std@@@std@@QAEXABVioHashString@@@Z ; std::vector<ioHashString,std::allocator<ioHashString> >::push_back
$LN6@SetTargetI:

; 397  : 			}
; 398  : 		}

  000e4	8d 8d b0 7f ff
	ff		 lea	 ecx, DWORD PTR _CallInfo$531488[ebp]
  000ea	c6 45 fc 02	 mov	 BYTE PTR __$EHRec$[ebp+8], 2
  000ee	ff 15 00 00 00
	00		 call	 DWORD PTR __imp_??1ioHashString@@QAE@XZ
  000f4	83 c7 14	 add	 edi, 20			; 00000014H
  000f7	3b be b4 09 00
	00		 cmp	 edi, DWORD PTR [esi+2484]
  000fd	75 9b		 jne	 SHORT $LL81@SetTargetI

; 384  : 		CallBuffList::iterator call_iter;
; 385  : 		for( call_iter = m_TargetCallBuffList.begin(); call_iter != m_TargetCallBuffList.end(); ++call_iter )

  000ff	8b 85 c8 7f ff
	ff		 mov	 eax, DWORD PTR _vBuffList$531465[ebp+4]
$LN7@SetTargetI:

; 399  : 
; 400  : 		int iCurBuffCnt = vBuffList.size();

  00105	2b 85 c4 7f ff
	ff		 sub	 eax, DWORD PTR _vBuffList$531465[ebp]

; 401  : 		if( pTarget->IsNeedSendNetwork() && iCurBuffCnt > 0 )

  0010b	8b cb		 mov	 ecx, ebx
  0010d	c1 f8 04	 sar	 eax, 4
  00110	8b f8		 mov	 edi, eax
  00112	8b 03		 mov	 eax, DWORD PTR [ebx]
  00114	ff 90 04 01 00
	00		 call	 DWORD PTR [eax+260]
  0011a	84 c0		 test	 al, al
  0011c	0f 84 4d 01 00
	00		 je	 $LN5@SetTargetI
  00122	85 ff		 test	 edi, edi
  00124	0f 8e 45 01 00
	00		 jle	 $LN5@SetTargetI

; 402  : 		{
; 403  : 			if( Help::CheckEnableTimeGapUser() )

  0012a	6a 00		 push	 0
  0012c	e8 00 00 00 00	 call	 ?CheckEnableTimeGapUser@Help@@YA_NH@Z ; Help::CheckEnableTimeGapUser
  00131	59		 pop	 ecx
  00132	84 c0		 test	 al, al
  00134	74 32		 je	 SHORT $LN4@SetTargetI

; 404  : 			{
; 405  : 				LOG.PrintTimeAndLog( 0, "PC -BuffAddBuff2 : %s, %d", GetName().c_str(), FRAMEGETTIME() );

  00136	ff 15 00 00 00
	00		 call	 DWORD PTR __imp_?GetSingleton@ioFrameTimer@@SAAAV1@XZ
  0013c	8b c8		 mov	 ecx, eax
  0013e	ff 15 00 00 00
	00		 call	 DWORD PTR __imp_?GetLoopSec@ioFrameTimer@@QBEKXZ
  00144	50		 push	 eax
  00145	8d 8e 34 02 00
	00		 lea	 ecx, DWORD PTR [esi+564]
  0014b	ff 15 00 00 00
	00		 call	 DWORD PTR __imp_?c_str@ioHashString@@QBEPBDXZ
  00151	50		 push	 eax
  00152	68 00 00 00 00	 push	 OFFSET ??_C@_0BK@OAOGBKMA@PC?5?9BuffAddBuff2?5?3?5?$CFs?0?5?$CFd?$AA@
  00157	6a 00		 push	 0
  00159	ff 35 00 00 00
	00		 push	 DWORD PTR __imp_?LOG@@3VCLog@@A
  0015f	ff 15 00 00 00
	00		 call	 DWORD PTR __imp_?PrintTimeAndLog@CLog@@QAAXHPADZZ
  00165	83 c4 14	 add	 esp, 20			; 00000014H
$LN4@SetTargetI:

; 406  : 			}
; 407  : 
; 408  : 			SP2Packet kPacket( CUPK_ADD_NEW_BUFF );

  00168	68 31 41 00 00	 push	 16689			; 00004131H
  0016d	8d 8d d8 7f ff
	ff		 lea	 ecx, DWORD PTR _kPacket$531495[ebp]
  00173	e8 00 00 00 00	 call	 ??0SP2Packet@@QAE@K@Z	; SP2Packet::SP2Packet

; 409  : 			kPacket << pTarget->GetCharName();

  00178	8d 83 d4 02 00
	00		 lea	 eax, DWORD PTR [ebx+724]
  0017e	50		 push	 eax
  0017f	8d 8d d8 7f ff
	ff		 lea	 ecx, DWORD PTR _kPacket$531495[ebp]
  00185	c6 45 fc 04	 mov	 BYTE PTR __$EHRec$[ebp+8], 4
  00189	e8 00 00 00 00	 call	 ??6SP2Packet@@QAEAAV0@ABVioHashString@@@Z ; SP2Packet::operator<<

; 410  : 			kPacket << m_CreateChar;

  0018e	8d 86 88 02 00
	00		 lea	 eax, DWORD PTR [esi+648]
  00194	50		 push	 eax
  00195	8d 8d d8 7f ff
	ff		 lea	 ecx, DWORD PTR _kPacket$531495[ebp]
  0019b	e8 00 00 00 00	 call	 ??6SP2Packet@@QAEAAV0@ABVioHashString@@@Z ; SP2Packet::operator<<

; 411  : 			kPacket << m_ItemName;

  001a0	8d 86 44 02 00
	00		 lea	 eax, DWORD PTR [esi+580]
  001a6	50		 push	 eax
  001a7	8d 8d d8 7f ff
	ff		 lea	 ecx, DWORD PTR _kPacket$531495[ebp]
  001ad	e8 00 00 00 00	 call	 ??6SP2Packet@@QAEAAV0@ABVioHashString@@@Z ; SP2Packet::operator<<

; 412  : 			kPacket << pTarget->GetRandomSeed();

  001b2	ff b3 74 16 00
	00		 push	 DWORD PTR [ebx+5748]
  001b8	8d 8d d8 7f ff
	ff		 lea	 ecx, DWORD PTR _kPacket$531495[ebp]
  001be	e8 00 00 00 00	 call	 ??6SP2Packet@@QAEAAV0@K@Z ; SP2Packet::operator<<

; 413  : 			kPacket << false;					//  

  001c3	33 db		 xor	 ebx, ebx
  001c5	53		 push	 ebx
  001c6	8d 8d d8 7f ff
	ff		 lea	 ecx, DWORD PTR _kPacket$531495[ebp]
  001cc	e8 00 00 00 00	 call	 ??6SP2Packet@@QAEAAV0@_N@Z ; SP2Packet::operator<<

; 414  : 			kPacket << 0.0f;

  001d1	0f 57 c0	 xorps	 xmm0, xmm0
  001d4	51		 push	 ecx
  001d5	8d 8d d8 7f ff
	ff		 lea	 ecx, DWORD PTR _kPacket$531495[ebp]
  001db	f3 0f 11 04 24	 movss	 DWORD PTR [esp], xmm0
  001e0	e8 00 00 00 00	 call	 ??6SP2Packet@@QAEAAV0@M@Z ; SP2Packet::operator<<

; 415  : 			kPacket << 0.0f;

  001e5	0f 57 c0	 xorps	 xmm0, xmm0
  001e8	51		 push	 ecx
  001e9	8d 8d d8 7f ff
	ff		 lea	 ecx, DWORD PTR _kPacket$531495[ebp]
  001ef	f3 0f 11 04 24	 movss	 DWORD PTR [esp], xmm0
  001f4	e8 00 00 00 00	 call	 ??6SP2Packet@@QAEAAV0@M@Z ; SP2Packet::operator<<

; 416  : 			kPacket << 0.0f;

  001f9	0f 57 c0	 xorps	 xmm0, xmm0
  001fc	51		 push	 ecx
  001fd	8d 8d d8 7f ff
	ff		 lea	 ecx, DWORD PTR _kPacket$531495[ebp]
  00203	f3 0f 11 04 24	 movss	 DWORD PTR [esp], xmm0
  00208	e8 00 00 00 00	 call	 ??6SP2Packet@@QAEAAV0@M@Z ; SP2Packet::operator<<

; 417  : 			kPacket << COWT_NONE;				// Check CloseOrderBuff(12.07.13 )

  0020d	53		 push	 ebx
  0020e	8d 8d d8 7f ff
	ff		 lea	 ecx, DWORD PTR _kPacket$531495[ebp]
  00214	e8 00 00 00 00	 call	 ??6SP2Packet@@QAEAAV0@H@Z ; SP2Packet::operator<<

; 418  : 			kPacket << iCurBuffCnt;

  00219	57		 push	 edi
  0021a	8d 8d d8 7f ff
	ff		 lea	 ecx, DWORD PTR _kPacket$531495[ebp]
  00220	e8 00 00 00 00	 call	 ??6SP2Packet@@QAEAAV0@H@Z ; SP2Packet::operator<<

; 419  : 
; 420  : 			for( int i=0; i < iCurBuffCnt; i++ )

  00225	3b fb		 cmp	 edi, ebx
  00227	7e 1a		 jle	 SHORT $LN1@SetTargetI
$LL3@SetTargetI:
  00229	8b 85 c4 7f ff
	ff		 mov	 eax, DWORD PTR _vBuffList$531465[ebp]
  0022f	03 c3		 add	 eax, ebx

; 421  : 			{				
; 422  : 				kPacket << vBuffList[i];

  00231	50		 push	 eax
  00232	8d 8d d8 7f ff
	ff		 lea	 ecx, DWORD PTR _kPacket$531495[ebp]
  00238	e8 00 00 00 00	 call	 ??6SP2Packet@@QAEAAV0@ABVioHashString@@@Z ; SP2Packet::operator<<
  0023d	83 c3 10	 add	 ebx, 16			; 00000010H
  00240	4f		 dec	 edi
  00241	75 e6		 jne	 SHORT $LL3@SetTargetI
$LN1@SetTargetI:

; 423  : 				//kPacket << m_TargetCallBuffList[i].m_szBuffName;
; 424  : 			}
; 425  : 
; 426  : 			kPacket << false;					// Use Force

  00243	6a 00		 push	 0
  00245	8d 8d d8 7f ff
	ff		 lea	 ecx, DWORD PTR _kPacket$531495[ebp]
  0024b	e8 00 00 00 00	 call	 ??6SP2Packet@@QAEAAV0@_N@Z ; SP2Packet::operator<<

; 427  : 
; 428  : 			P2PNetwork::SendToAllPlayingUser( kPacket );

  00250	8d 85 d8 7f ff
	ff		 lea	 eax, DWORD PTR _kPacket$531495[ebp]
  00256	6a 00		 push	 0
  00258	50		 push	 eax
  00259	e8 00 00 00 00	 call	 ?SendToAllPlayingUser@P2PNetwork@@YAXAAVSP2Packet@@PAVioBaseChar@@@Z ; P2PNetwork::SendToAllPlayingUser
  0025e	59		 pop	 ecx
  0025f	59		 pop	 ecx

; 429  : 		}

  00260	8d 8d d8 7f ff
	ff		 lea	 ecx, DWORD PTR _kPacket$531495[ebp]
  00266	c6 45 fc 02	 mov	 BYTE PTR __$EHRec$[ebp+8], 2
  0026a	e8 00 00 00 00	 call	 ??1SP2Packet@@UAE@XZ	; SP2Packet::~SP2Packet
$LN5@SetTargetI:

; 430  : 	}

  0026f	8d 8d c4 7f ff
	ff		 lea	 ecx, DWORD PTR _vBuffList$531465[ebp]
  00275	c6 45 fc 01	 mov	 BYTE PTR __$EHRec$[ebp+8], 1
  00279	e8 00 00 00 00	 call	 ?_Tidy@?$vector@VioHashString@@V?$allocator@VioHashString@@@std@@@std@@IAEXXZ ; std::vector<ioHashString,std::allocator<ioHashString> >::_Tidy
  0027e	8b bd d4 7f ff
	ff		 mov	 edi, DWORD PTR _iter$[ebp]
$LN13@SetTargetI:

; 371  : 
; 372  : 	BaseCharList::iterator iter;
; 373  : 	for( iter = m_TargetList.begin(); iter != m_TargetList.end(); ++iter )

  00284	83 c7 04	 add	 edi, 4
$LN128@SetTargetI:
  00287	89 bd d4 7f ff
	ff		 mov	 DWORD PTR _iter$[ebp], edi
  0028d	3b be 74 09 00
	00		 cmp	 edi, DWORD PTR [esi+2420]
  00293	0f 85 bf fd ff
	ff		 jne	 $LL39@SetTargetI
$LN12@SetTargetI:

; 431  : }

  00299	8b 35 00 00 00
	00		 mov	 esi, DWORD PTR __imp_??1ioHashString@@QAE@XZ
  0029f	8d 4d 08	 lea	 ecx, DWORD PTR _pInfectionHost$[ebp]
  002a2	c6 45 fc 00	 mov	 BYTE PTR __$EHRec$[ebp+8], 0
  002a6	ff d6		 call	 esi
  002a8	83 4d fc ff	 or	 DWORD PTR __$EHRec$[ebp+8], -1
  002ac	8d 4d 18	 lea	 ecx, DWORD PTR _pInfectionHostItemName$[ebp]
  002af	ff d6		 call	 esi
  002b1	8b 4d f4	 mov	 ecx, DWORD PTR __$EHRec$[ebp]
  002b4	64 89 0d 00 00
	00 00		 mov	 DWORD PTR fs:0, ecx
  002bb	59		 pop	 ecx
  002bc	5f		 pop	 edi
  002bd	5e		 pop	 esi
  002be	5b		 pop	 ebx
  002bf	8b 4d f0	 mov	 ecx, DWORD PTR __$ArrayPad$[ebp]
  002c2	33 cd		 xor	 ecx, ebp
  002c4	e8 00 00 00 00	 call	 @__security_check_cookie@4
  002c9	c9		 leave
  002ca	c2 20 00	 ret	 32			; 00000020H
_TEXT	ENDS
;	COMDAT text$x
text$x	SEGMENT
__unwindfunclet$?SetTargetInfection@ioInfectionBuff@@IAEXVioHashString@@0@Z$0:
  00000	8d 4d 18	 lea	 ecx, DWORD PTR _pInfectionHostItemName$[ebp]
  00003	ff 25 00 00 00
	00		 jmp	 DWORD PTR __imp_??1ioHashString@@QAE@XZ
__unwindfunclet$?SetTargetInfection@ioInfectionBuff@@IAEXVioHashString@@0@Z$1:
  00009	8d 4d 08	 lea	 ecx, DWORD PTR _pInfectionHost$[ebp]
  0000c	ff 25 00 00 00
	00		 jmp	 DWORD PTR __imp_??1ioHashString@@QAE@XZ
__unwindfunclet$?SetTargetInfection@ioInfectionBuff@@IAEXVioHashString@@0@Z$2:
  00012	8d 8d c4 7f ff
	ff		 lea	 ecx, DWORD PTR _vBuffList$531465[ebp]
  00018	e9 00 00 00 00	 jmp	 ??1?$vector@VioHashString@@V?$allocator@VioHashString@@@std@@@std@@QAE@XZ ; std::vector<ioHashString,std::allocator<ioHashString> >::~vector<ioHashString,std::allocator<ioHashString> >
__unwindfunclet$?SetTargetInfection@ioInfectionBuff@@IAEXVioHashString@@0@Z$3:
  0001d	8d 8d b0 7f ff
	ff		 lea	 ecx, DWORD PTR _CallInfo$531488[ebp]
  00023	e9 00 00 00 00	 jmp	 ??1CallBuff@@QAE@XZ
__unwindfunclet$?SetTargetInfection@ioInfectionBuff@@IAEXVioHashString@@0@Z$4:
  00028	8d 8d d8 7f ff
	ff		 lea	 ecx, DWORD PTR _kPacket$531495[ebp]
  0002e	e9 00 00 00 00	 jmp	 ??1SP2Packet@@UAE@XZ	; SP2Packet::~SP2Packet
__ehhandler$?SetTargetInfection@ioInfectionBuff@@IAEXVioHashString@@0@Z:
  00033	8b 54 24 08	 mov	 edx, DWORD PTR [esp+8]
  00037	8d 42 0c	 lea	 eax, DWORD PTR [edx+12]
  0003a	8b 8a ac 7f ff
	ff		 mov	 ecx, DWORD PTR [edx-32852]
  00040	33 c8		 xor	 ecx, eax
  00042	e8 00 00 00 00	 call	 @__security_check_cookie@4
  00047	8b 4a fc	 mov	 ecx, DWORD PTR [edx-4]
  0004a	33 c8		 xor	 ecx, eax
  0004c	e8 00 00 00 00	 call	 @__security_check_cookie@4
  00051	b8 00 00 00 00	 mov	 eax, OFFSET __ehfuncinfo$?SetTargetInfection@ioInfectionBuff@@IAEXVioHashString@@0@Z
  00056	e9 00 00 00 00	 jmp	 ___CxxFrameHandler3
text$x	ENDS
?SetTargetInfection@ioInfectionBuff@@IAEXVioHashString@@0@Z ENDP ; ioInfectionBuff::SetTargetInfection
; Function compile flags: /Ogsp
;	COMDAT ??_GioInfectionBuff@@UAEPAXI@Z
_TEXT	SEGMENT
___flags$ = 8						; size = 4
??_GioInfectionBuff@@UAEPAXI@Z PROC			; ioInfectionBuff::`scalar deleting destructor', COMDAT
; _this$ = ecx
  00000	55		 push	 ebp
  00001	8b ec		 mov	 ebp, esp
  00003	56		 push	 esi
  00004	8b f1		 mov	 esi, ecx
  00006	e8 00 00 00 00	 call	 ??1ioInfectionBuff@@UAE@XZ ; ioInfectionBuff::~ioInfectionBuff
  0000b	f6 45 08 01	 test	 BYTE PTR ___flags$[ebp], 1
  0000f	74 07		 je	 SHORT $LN1@scalar@5
  00011	56		 push	 esi
  00012	e8 00 00 00 00	 call	 ??3@YAXPAX@Z		; operator delete
  00017	59		 pop	 ecx
$LN1@scalar@5:
  00018	8b c6		 mov	 eax, esi
  0001a	5e		 pop	 esi
  0001b	5d		 pop	 ebp
  0001c	c2 04 00	 ret	 4
??_GioInfectionBuff@@UAEPAXI@Z ENDP			; ioInfectionBuff::`scalar deleting destructor'
_TEXT	ENDS
PUBLIC	__$ArrayPad$
EXTRN	?LoadProperty@ioBuff@@UAEXAAVioINILoader@@@Z:PROC ; ioBuff::LoadProperty
; Function compile flags: /Ogsp
;	COMDAT ?LoadProperty@ioInfectionBuff@@UAEXAAVioINILoader@@@Z
_TEXT	SEGMENT
tv1951 = -32						; size = 4
_value$541346 = -32					; size = 4
__k$541246 = -28					; size = 16
__k$541117 = -28					; size = 19
__$ArrayPad$ = -4					; size = 4
_rkLoader$ = 8						; size = 4
?LoadProperty@ioInfectionBuff@@UAEXAAVioINILoader@@@Z PROC ; ioInfectionBuff::LoadProperty, COMDAT
; _this$ = ecx

; 28   : {

  00000	55		 push	 ebp
  00001	8b ec		 mov	 ebp, esp
  00003	83 ec 20	 sub	 esp, 32			; 00000020H
  00006	a1 00 00 00 00	 mov	 eax, DWORD PTR ___security_cookie
  0000b	33 c5		 xor	 eax, ebp
  0000d	89 45 fc	 mov	 DWORD PTR __$ArrayPad$[ebp], eax
  00010	53		 push	 ebx
  00011	56		 push	 esi
  00012	57		 push	 edi
  00013	8b 7d 08	 mov	 edi, DWORD PTR _rkLoader$[ebp]

; 29   : 	ioBuff::LoadProperty( rkLoader );

  00016	57		 push	 edi
  00017	8b f1		 mov	 esi, ecx
  00019	e8 00 00 00 00	 call	 ?LoadProperty@ioBuff@@UAEXAAVioINILoader@@@Z ; ioBuff::LoadProperty

; 30   : 	m_bDisableDownState = rkLoader.LoadBool_e( "disable_down_state", false );

  0001e	33 db		 xor	 ebx, ebx
  00020	6a 04		 push	 4
  00022	c7 45 e4 89 85
	98 8b		 mov	 DWORD PTR __k$541117[ebp], -1952938615 ; 8b988589H
  00029	c7 45 e8 8f 80
	8e b5		 mov	 DWORD PTR __k$541117[ebp+4], -1248952177 ; b58e808fH
  00030	c7 45 ec 89 83
	9c 84		 mov	 DWORD PTR __k$541117[ebp+8], -2070117495 ; 849c8389H
  00037	c7 45 f0 b2 9f
	9f 8b		 mov	 DWORD PTR __k$541117[ebp+12], -1952473166 ; 8b9f9fb2H
  0003e	66 c7 45 f4 99
	89		 mov	 WORD PTR __k$541117[ebp+16], 35225 ; 00008999H
  00044	8d 45 e4	 lea	 eax, DWORD PTR __k$541117[ebp]
  00047	88 5d f6	 mov	 BYTE PTR __k$541117[ebp+18], bl
  0004a	59		 pop	 ecx
$LL106@LoadProper:
  0004b	81 30 ed ec eb
	ea		 xor	 DWORD PTR [eax], -353637139 ; eaebecedH
  00051	83 c0 04	 add	 eax, 4
  00054	49		 dec	 ecx
  00055	75 f4		 jne	 SHORT $LL106@LoadProper
  00057	6a 10		 push	 16			; 00000010H
  00059	58		 pop	 eax
$LL103@LoadProper:
  0005a	8b c8		 mov	 ecx, eax
  0005c	81 e1 03 00 00
	80		 and	 ecx, -2147483645	; 80000003H
  00062	79 05		 jns	 SHORT $LN227@LoadProper
  00064	49		 dec	 ecx
  00065	83 c9 fc	 or	 ecx, -4			; fffffffcH
  00068	41		 inc	 ecx
$LN227@LoadProper:
  00069	b2 ed		 mov	 dl, -19			; ffffffedH
  0006b	2a d1		 sub	 dl, cl
  0006d	30 54 05 e4	 xor	 BYTE PTR __k$541117[ebp+eax], dl
  00071	40		 inc	 eax
  00072	83 f8 12	 cmp	 eax, 18			; 00000012H
  00075	7c e3		 jl	 SHORT $LL103@LoadProper
  00077	53		 push	 ebx
  00078	8d 45 e4	 lea	 eax, DWORD PTR __k$541117[ebp]
  0007b	50		 push	 eax
  0007c	8b cf		 mov	 ecx, edi
  0007e	ff 15 00 00 00
	00		 call	 DWORD PTR __imp_?LoadBool@ioINILoader@@QAE_NPBD_N@Z
  00084	88 86 6c 09 00
	00		 mov	 BYTE PTR [esi+2412], al

; 31   : 
; 32   : 	m_fInfectionRange = rkLoader.LoadFloat_e( "infection_range", FLOAT100 );

  0008a	b8 64 00 00 00	 mov	 eax, 100		; 00000064H
  0008f	6a 03		 push	 3
  00091	c7 45 e4 84 82
	8d 8f		 mov	 DWORD PTR __k$541246[ebp], -1886551420 ; 8f8d8284H
  00098	c7 45 e8 8e 98
	82 85		 mov	 DWORD PTR __k$541246[ebp+4], -2055038834 ; 8582988eH
  0009f	c7 45 ec 83 b3
	99 8b		 mov	 DWORD PTR __k$541246[ebp+8], -1952861309 ; 8b99b383H
  000a6	8d 4d e4	 lea	 ecx, DWORD PTR __k$541246[ebp]
  000a9	c7 45 f0 83 8b
	8e 00		 mov	 DWORD PTR __k$541246[ebp+12], 9341827 ; 008e8b83H
  000b0	5a		 pop	 edx
$LL214@LoadProper:
  000b1	81 31 ed ec eb
	ea		 xor	 DWORD PTR [ecx], -353637139 ; eaebecedH
  000b7	83 c1 04	 add	 ecx, 4
  000ba	4a		 dec	 edx
  000bb	75 f4		 jne	 SHORT $LL214@LoadProper
  000bd	6a 0c		 push	 12			; 0000000cH
  000bf	59		 pop	 ecx
$LL211@LoadProper:
  000c0	8b d1		 mov	 edx, ecx
  000c2	81 e2 03 00 00
	80		 and	 edx, -2147483645	; 80000003H
  000c8	79 05		 jns	 SHORT $LN228@LoadProper
  000ca	4a		 dec	 edx
  000cb	83 ca fc	 or	 edx, -4			; fffffffcH
  000ce	42		 inc	 edx
$LN228@LoadProper:
  000cf	b3 ed		 mov	 bl, -19			; ffffffedH
  000d1	2a da		 sub	 bl, dl
  000d3	30 5c 0d e4	 xor	 BYTE PTR __k$541246[ebp+ecx], bl
  000d7	41		 inc	 ecx
  000d8	83 f9 0f	 cmp	 ecx, 15			; 0000000fH
  000db	7c e3		 jl	 SHORT $LL211@LoadProper
  000dd	89 45 e0	 mov	 DWORD PTR tv1951[ebp], eax
  000e0	db 45 e0	 fild	 DWORD PTR tv1951[ebp]
  000e3	85 c0		 test	 eax, eax
  000e5	79 06		 jns	 SHORT $LN229@LoadProper
  000e7	d8 05 00 00 00
	00		 fadd	 DWORD PTR __real@4f800000
$LN229@LoadProper:
  000ed	51		 push	 ecx
  000ee	8d 45 e4	 lea	 eax, DWORD PTR __k$541246[ebp]
  000f1	d9 1c 24	 fstp	 DWORD PTR [esp]
  000f4	50		 push	 eax
  000f5	8b cf		 mov	 ecx, edi
  000f7	ff 15 00 00 00
	00		 call	 DWORD PTR __imp_?LoadFloat@ioINILoader@@QAEMPBDM@Z
  000fd	d9 5d e0	 fstp	 DWORD PTR _value$541346[ebp]
  00100	8d 45 e0	 lea	 eax, DWORD PTR _value$541346[ebp]
  00103	50		 push	 eax
  00104	8d 8e 80 09 00
	00		 lea	 ecx, DWORD PTR [esi+2432]
  0010a	e8 00 00 00 00	 call	 ?EncryptValueToPool@?$CEncrypt@M@@AAEXPBD@Z ; CEncrypt<float>::EncryptValueToPool

; 33   : 	
; 34   : 	LoadCallBuffList( rkLoader );	

  0010f	57		 push	 edi
  00110	8b ce		 mov	 ecx, esi
  00112	e8 00 00 00 00	 call	 ?LoadCallBuffList@ioInfectionBuff@@QAEXAAVioINILoader@@@Z ; ioInfectionBuff::LoadCallBuffList

; 35   : }

  00117	8b 4d fc	 mov	 ecx, DWORD PTR __$ArrayPad$[ebp]
  0011a	5f		 pop	 edi
  0011b	5e		 pop	 esi
  0011c	33 cd		 xor	 ecx, ebp
  0011e	5b		 pop	 ebx
  0011f	e8 00 00 00 00	 call	 @__security_check_cookie@4
  00124	c9		 leave
  00125	c2 04 00	 ret	 4
?LoadProperty@ioInfectionBuff@@UAEXAAVioINILoader@@@Z ENDP ; ioInfectionBuff::LoadProperty
_TEXT	ENDS
PUBLIC	?CheckExtendCallingProcess@ioInfectionBuff@@QAEXXZ ; ioInfectionBuff::CheckExtendCallingProcess
EXTRN	?CheckCallingAreaWeapon@ioBuff@@IAEXXZ:PROC	; ioBuff::CheckCallingAreaWeapon
EXTRN	?CheckCallingAttribute@ioBuff@@IAEXXZ:PROC	; ioBuff::CheckCallingAttribute
EXTRN	?CheckExceptCallingBuff@ioBuff@@IAEXXZ:PROC	; ioBuff::CheckExceptCallingBuff
EXTRN	?GetBaseChar@ioPlayStage@@QAEPAVioBaseChar@@ABVioHashString@@@Z:PROC ; ioPlayStage::GetBaseChar
EXTRN	?GetPlayStage@ioItemMaker@@QAEPAVioPlayStage@@XZ:PROC ; ioItemMaker::GetPlayStage
EXTRN	?GetSingleton@ioItemMaker@@SAAAV1@XZ:PROC	; ioItemMaker::GetSingleton
;	COMDAT xdata$x
xdata$x	SEGMENT
__unwindtable$?CheckExtendCallingProcess@ioInfectionBuff@@QAEXXZ DD 0ffffffffH
	DD	FLAT:__unwindfunclet$?CheckExtendCallingProcess@ioInfectionBuff@@QAEXXZ$0
__ehfuncinfo$?CheckExtendCallingProcess@ioInfectionBuff@@QAEXXZ DD 019930522H
	DD	01H
	DD	FLAT:__unwindtable$?CheckExtendCallingProcess@ioInfectionBuff@@QAEXXZ
	DD	2 DUP(00H)
	DD	2 DUP(00H)
	DD	00H
	DD	01H
; Function compile flags: /Ogsp
xdata$x	ENDS
;	COMDAT ?CheckExtendCallingProcess@ioInfectionBuff@@QAEXXZ
_TEXT	SEGMENT
$T541364 = -20						; size = 4
$T541363 = -16						; size = 4
_pInfectionHost$531241 = -16				; size = 4
__$EHRec$ = -12						; size = 12
?CheckExtendCallingProcess@ioInfectionBuff@@QAEXXZ PROC	; ioInfectionBuff::CheckExtendCallingProcess, COMDAT
; _this$ = ecx

; 264  : {	

  00000	6a 08		 push	 8
  00002	b8 00 00 00 00	 mov	 eax, __ehhandler$?CheckExtendCallingProcess@ioInfectionBuff@@QAEXXZ
  00007	e8 00 00 00 00	 call	 __EH_prolog3
  0000c	8b f1		 mov	 esi, ecx

; 265  : 	ioPlayStage *pStage = g_ItemMaker.GetPlayStage();

  0000e	e8 00 00 00 00	 call	 ?GetSingleton@ioItemMaker@@SAAAV1@XZ ; ioItemMaker::GetSingleton
  00013	8b c8		 mov	 ecx, eax
  00015	e8 00 00 00 00	 call	 ?GetPlayStage@ioItemMaker@@QAEPAVioPlayStage@@XZ ; ioItemMaker::GetPlayStage
  0001a	8b f8		 mov	 edi, eax

; 266  : 	if( pStage )

  0001c	85 ff		 test	 edi, edi
  0001e	74 66		 je	 SHORT $LN1@CheckExten

; 267  : 	{
; 268  : 		ioBaseChar *pInfectionHost = pStage->GetBaseChar( m_CreateChar );

  00020	8d 9e 88 02 00
	00		 lea	 ebx, DWORD PTR [esi+648]
  00026	53		 push	 ebx
  00027	8b cf		 mov	 ecx, edi
  00029	e8 00 00 00 00	 call	 ?GetBaseChar@ioPlayStage@@QAEPAVioBaseChar@@ABVioHashString@@@Z ; ioPlayStage::GetBaseChar
  0002e	89 45 f0	 mov	 DWORD PTR _pInfectionHost$531241[ebp], eax

; 269  : 		ioBaseChar *pInfectioner = pStage->GetBaseChar( m_OwnerName );

  00031	8d 86 78 02 00
	00		 lea	 eax, DWORD PTR [esi+632]
  00037	50		 push	 eax
  00038	8b cf		 mov	 ecx, edi
  0003a	e8 00 00 00 00	 call	 ?GetBaseChar@ioPlayStage@@QAEPAVioBaseChar@@ABVioHashString@@@Z ; ioPlayStage::GetBaseChar

; 270  : 		if( !pInfectioner )

  0003f	85 c0		 test	 eax, eax
  00041	74 58		 je	 SHORT $LN4@CheckExten

; 271  : 			return;
; 272  : 
; 273  : 		if( pInfectionHost )

  00043	83 7d f0 00	 cmp	 DWORD PTR _pInfectionHost$531241[ebp], 0
  00047	74 3d		 je	 SHORT $LN1@CheckExten

; 274  : 		{
; 275  : 			CheckNonInfectionList( pInfectionHost, pInfectioner, pStage );

  00049	57		 push	 edi
  0004a	50		 push	 eax
  0004b	ff 75 f0	 push	 DWORD PTR _pInfectionHost$531241[ebp]
  0004e	8b ce		 mov	 ecx, esi
  00050	e8 00 00 00 00	 call	 ?CheckNonInfectionList@ioInfectionBuff@@IAEXPAVioBaseChar@@0PAVioPlayStage@@@Z ; ioInfectionBuff::CheckNonInfectionList

; 276  : 			SetTargetInfection( m_CreateChar, m_ItemName );

  00055	8b 3d 00 00 00
	00		 mov	 edi, DWORD PTR __imp_??0ioHashString@@QAE@ABV0@@Z
  0005b	83 ec 10	 sub	 esp, 16			; 00000010H
  0005e	8d 86 44 02 00
	00		 lea	 eax, DWORD PTR [esi+580]
  00064	8b cc		 mov	 ecx, esp
  00066	89 65 f0	 mov	 DWORD PTR $T541363[ebp], esp
  00069	50		 push	 eax
  0006a	ff d7		 call	 edi
  0006c	83 65 fc 00	 and	 DWORD PTR __$EHRec$[ebp+8], 0
  00070	83 ec 10	 sub	 esp, 16			; 00000010H
  00073	8b cc		 mov	 ecx, esp
  00075	89 65 ec	 mov	 DWORD PTR $T541364[ebp], esp
  00078	53		 push	 ebx
  00079	ff d7		 call	 edi
  0007b	83 4d fc ff	 or	 DWORD PTR __$EHRec$[ebp+8], -1
  0007f	8b ce		 mov	 ecx, esi
  00081	e8 00 00 00 00	 call	 ?SetTargetInfection@ioInfectionBuff@@IAEXVioHashString@@0@Z ; ioInfectionBuff::SetTargetInfection
$LN1@CheckExten:

; 277  : 		}
; 278  : 	}
; 279  : 	
; 280  : 	CheckExceptCallingBuff();

  00086	8b ce		 mov	 ecx, esi
  00088	e8 00 00 00 00	 call	 ?CheckExceptCallingBuff@ioBuff@@IAEXXZ ; ioBuff::CheckExceptCallingBuff

; 281  : 
; 282  : 	CheckCallingAttribute();

  0008d	8b ce		 mov	 ecx, esi
  0008f	e8 00 00 00 00	 call	 ?CheckCallingAttribute@ioBuff@@IAEXXZ ; ioBuff::CheckCallingAttribute

; 283  : 	CheckCallingAreaWeapon();

  00094	8b ce		 mov	 ecx, esi
  00096	e8 00 00 00 00	 call	 ?CheckCallingAreaWeapon@ioBuff@@IAEXXZ ; ioBuff::CheckCallingAreaWeapon
$LN4@CheckExten:

; 284  : }

  0009b	e8 00 00 00 00	 call	 __EH_epilog3
  000a0	c3		 ret	 0
_TEXT	ENDS
;	COMDAT text$x
text$x	SEGMENT
__unwindfunclet$?CheckExtendCallingProcess@ioInfectionBuff@@QAEXXZ$0:
  00000	8b 4d f0	 mov	 ecx, DWORD PTR $T541363[ebp]
  00003	ff 25 00 00 00
	00		 jmp	 DWORD PTR __imp_??1ioHashString@@QAE@XZ
__ehhandler$?CheckExtendCallingProcess@ioInfectionBuff@@QAEXXZ:
  00009	8b 54 24 08	 mov	 edx, DWORD PTR [esp+8]
  0000d	8d 42 0c	 lea	 eax, DWORD PTR [edx+12]
  00010	8b 4a e8	 mov	 ecx, DWORD PTR [edx-24]
  00013	33 c8		 xor	 ecx, eax
  00015	e8 00 00 00 00	 call	 @__security_check_cookie@4
  0001a	b8 00 00 00 00	 mov	 eax, OFFSET __ehfuncinfo$?CheckExtendCallingProcess@ioInfectionBuff@@QAEXXZ
  0001f	e9 00 00 00 00	 jmp	 ___CxxFrameHandler3
text$x	ENDS
?CheckExtendCallingProcess@ioInfectionBuff@@QAEXXZ ENDP	; ioInfectionBuff::CheckExtendCallingProcess
EXTRN	?CheckEnableDelayState@ioBuff@@IAE_NXZ:PROC	; ioBuff::CheckEnableDelayState
; Function compile flags: /Ogsp
;	COMDAT ?ProcessDelay@ioInfectionBuff@@MAEXM@Z
_TEXT	SEGMENT
_value$541385 = -4					; size = 4
_value$541381 = -4					; size = 4
_value$541377 = -4					; size = 4
_fTimePerSec$ = 8					; size = 4
?ProcessDelay@ioInfectionBuff@@MAEXM@Z PROC		; ioInfectionBuff::ProcessDelay, COMDAT
; _this$ = ecx

; 220  : {

  00000	55		 push	 ebp
  00001	8b ec		 mov	 ebp, esp
  00003	51		 push	 ecx
  00004	56		 push	 esi
  00005	57		 push	 edi
  00006	8b f1		 mov	 esi, ecx

; 221  : 	DWORD dwCurTime = FRAMEGETTIME();

  00008	ff 15 00 00 00
	00		 call	 DWORD PTR __imp_?GetSingleton@ioFrameTimer@@SAAAV1@XZ
  0000e	8b c8		 mov	 ecx, eax
  00010	ff 15 00 00 00
	00		 call	 DWORD PTR __imp_?GetLoopSec@ioFrameTimer@@QBEKXZ

; 222  : 
; 223  : 	if( CheckEnableDelayState() )

  00016	8b ce		 mov	 ecx, esi
  00018	8b f8		 mov	 edi, eax
  0001a	e8 00 00 00 00	 call	 ?CheckEnableDelayState@ioBuff@@IAE_NXZ ; ioBuff::CheckEnableDelayState
  0001f	84 c0		 test	 al, al
  00021	75 76		 jne	 SHORT $LN6@ProcessDel

; 224  : 		return;
; 225  : 
; 226  : 	if( GetBuffDuration() == 0 )

  00023	8b ce		 mov	 ecx, esi
  00025	e8 00 00 00 00	 call	 ?GetBuffDuration@ioBuff@@IAEKXZ ; ioBuff::GetBuffDuration
  0002a	85 c0		 test	 eax, eax
  0002c	75 25		 jne	 SHORT $LN4@ProcessDel

; 227  : 	{
; 228  : 		if( !m_bBuffStart && m_dwBuffStartTime < dwCurTime )

  0002e	38 86 d5 02 00
	00		 cmp	 BYTE PTR [esi+725], al
  00034	75 63		 jne	 SHORT $LN6@ProcessDel
  00036	8d 45 fc	 lea	 eax, DWORD PTR _value$541377[ebp]
  00039	50		 push	 eax
  0003a	8d 8e 6c 03 00
	00		 lea	 ecx, DWORD PTR [esi+876]
  00040	e8 00 00 00 00	 call	 ?DecryptValueToPool@?$CEncrypt@K@@QAEXPAK@Z ; CEncrypt<unsigned long>::DecryptValueToPool
  00045	39 7d fc	 cmp	 DWORD PTR _value$541377[ebp], edi
  00048	73 4f		 jae	 SHORT $LN6@ProcessDel

; 229  : 			SetAction();

  0004a	8b 06		 mov	 eax, DWORD PTR [esi]
  0004c	8b ce		 mov	 ecx, esi
  0004e	ff 50 34	 call	 DWORD PTR [eax+52]

; 230  : 		return;

  00051	eb 46		 jmp	 SHORT $LN6@ProcessDel
$LN4@ProcessDel:

; 231  : 	}
; 232  : 
; 233  : 	if( !m_bBuffStart && m_dwBuffStartTime < dwCurTime )

  00053	80 be d5 02 00
	00 00		 cmp	 BYTE PTR [esi+725], 0
  0005a	75 1b		 jne	 SHORT $LN2@ProcessDel
  0005c	8d 45 fc	 lea	 eax, DWORD PTR _value$541381[ebp]
  0005f	50		 push	 eax
  00060	8d 8e 6c 03 00
	00		 lea	 ecx, DWORD PTR [esi+876]
  00066	e8 00 00 00 00	 call	 ?DecryptValueToPool@?$CEncrypt@K@@QAEXPAK@Z ; CEncrypt<unsigned long>::DecryptValueToPool
  0006b	39 7d fc	 cmp	 DWORD PTR _value$541381[ebp], edi
  0006e	73 07		 jae	 SHORT $LN2@ProcessDel

; 234  : 		SetAction();

  00070	8b 06		 mov	 eax, DWORD PTR [esi]
  00072	8b ce		 mov	 ecx, esi
  00074	ff 50 34	 call	 DWORD PTR [eax+52]
$LN2@ProcessDel:

; 235  : 
; 236  : 	if( m_dwBuffEndTime <= dwCurTime )

  00077	8d 45 fc	 lea	 eax, DWORD PTR _value$541385[ebp]
  0007a	50		 push	 eax
  0007b	8d 8e 9c 03 00
	00		 lea	 ecx, DWORD PTR [esi+924]
  00081	e8 00 00 00 00	 call	 ?DecryptValueToPool@?$CEncrypt@K@@QAEXPAK@Z ; CEncrypt<unsigned long>::DecryptValueToPool

; 237  : 	{		
; 238  : 		SetReserveEndBuff();

  00086	8b ce		 mov	 ecx, esi
  00088	39 7d fc	 cmp	 DWORD PTR _value$541385[ebp], edi
  0008b	77 07		 ja	 SHORT $LN1@ProcessDel
  0008d	e8 00 00 00 00	 call	 ?SetReserveEndBuff@ioBuff@@QAEXXZ ; ioBuff::SetReserveEndBuff

; 239  : 		return;

  00092	eb 05		 jmp	 SHORT $LN6@ProcessDel
$LN1@ProcessDel:

; 240  : 	}
; 241  : 
; 242  : 	CheckExtendCallingProcess();

  00094	e8 00 00 00 00	 call	 ?CheckExtendCallingProcess@ioInfectionBuff@@QAEXXZ ; ioInfectionBuff::CheckExtendCallingProcess
$LN6@ProcessDel:
  00099	5f		 pop	 edi
  0009a	5e		 pop	 esi

; 243  : }

  0009b	c9		 leave
  0009c	c2 04 00	 ret	 4
?ProcessDelay@ioInfectionBuff@@MAEXM@Z ENDP		; ioInfectionBuff::ProcessDelay
_TEXT	ENDS
PUBLIC	?ProcessActive@ioInfectionBuff@@QAEXM@Z		; ioInfectionBuff::ProcessActive
; Function compile flags: /Ogsp
;	COMDAT ?ProcessActive@ioInfectionBuff@@QAEXM@Z
_TEXT	SEGMENT
_value$541392 = -4					; size = 4
_fTimePerSec$ = 8					; size = 4
?ProcessActive@ioInfectionBuff@@QAEXM@Z PROC		; ioInfectionBuff::ProcessActive, COMDAT
; _this$ = ecx

; 246  : {

  00000	55		 push	 ebp
  00001	8b ec		 mov	 ebp, esp
  00003	51		 push	 ecx
  00004	56		 push	 esi
  00005	8b f1		 mov	 esi, ecx

; 247  : 
; 248  : 	if( CheckEnableDelayState() )

  00007	e8 00 00 00 00	 call	 ?CheckEnableDelayState@ioBuff@@IAE_NXZ ; ioBuff::CheckEnableDelayState
  0000c	84 c0		 test	 al, al
  0000e	75 3f		 jne	 SHORT $LN1@ProcessAct

; 249  : 		return;
; 250  : 
; 251  : 	CheckExtendCallingProcess();

  00010	8b ce		 mov	 ecx, esi
  00012	e8 00 00 00 00	 call	 ?CheckExtendCallingProcess@ioInfectionBuff@@QAEXXZ ; ioInfectionBuff::CheckExtendCallingProcess

; 252  : 
; 253  : 	if( GetBuffDuration() == 0 )

  00017	8b ce		 mov	 ecx, esi
  00019	e8 00 00 00 00	 call	 ?GetBuffDuration@ioBuff@@IAEKXZ ; ioBuff::GetBuffDuration
  0001e	85 c0		 test	 eax, eax
  00020	74 2d		 je	 SHORT $LN1@ProcessAct

; 254  : 		return;	
; 255  : 
; 256  : 	if( m_dwBuffEndTime <= FRAMEGETTIME() )

  00022	57		 push	 edi
  00023	ff 15 00 00 00
	00		 call	 DWORD PTR __imp_?GetSingleton@ioFrameTimer@@SAAAV1@XZ
  00029	8b c8		 mov	 ecx, eax
  0002b	ff 15 00 00 00
	00		 call	 DWORD PTR __imp_?GetLoopSec@ioFrameTimer@@QBEKXZ
  00031	8b f8		 mov	 edi, eax
  00033	8d 45 fc	 lea	 eax, DWORD PTR _value$541392[ebp]
  00036	50		 push	 eax
  00037	8d 8e 9c 03 00
	00		 lea	 ecx, DWORD PTR [esi+924]
  0003d	e8 00 00 00 00	 call	 ?DecryptValueToPool@?$CEncrypt@K@@QAEXPAK@Z ; CEncrypt<unsigned long>::DecryptValueToPool
  00042	39 7d fc	 cmp	 DWORD PTR _value$541392[ebp], edi
  00045	5f		 pop	 edi
  00046	77 07		 ja	 SHORT $LN1@ProcessAct

; 257  : 	{		
; 258  : 		SetReserveEndBuff();

  00048	8b ce		 mov	 ecx, esi
  0004a	e8 00 00 00 00	 call	 ?SetReserveEndBuff@ioBuff@@QAEXXZ ; ioBuff::SetReserveEndBuff
$LN1@ProcessAct:
  0004f	5e		 pop	 esi

; 259  : 		return;
; 260  : 	}
; 261  : }

  00050	c9		 leave
  00051	c2 04 00	 ret	 4
?ProcessActive@ioInfectionBuff@@QAEXM@Z ENDP		; ioInfectionBuff::ProcessActive
_TEXT	ENDS
EXTRN	?CheckSwitchType@ioBuff@@IAE_NM@Z:PROC		; ioBuff::CheckSwitchType
; Function compile flags: /Ogsp
;	COMDAT ?ProcessBuff@ioInfectionBuff@@UAEXM@Z
_TEXT	SEGMENT
_fTimePerSec$ = 8					; size = 4
?ProcessBuff@ioInfectionBuff@@UAEXM@Z PROC		; ioInfectionBuff::ProcessBuff, COMDAT
; _this$ = ecx

; 193  : {

  00000	55		 push	 ebp
  00001	8b ec		 mov	 ebp, esp
  00003	56		 push	 esi
  00004	8b f1		 mov	 esi, ecx

; 194  : 	CheckOwnerStateCheck();

  00006	e8 00 00 00 00	 call	 ?CheckOwnerStateCheck@ioInfectionBuff@@IAEXXZ ; ioInfectionBuff::CheckOwnerStateCheck

; 195  : 
; 196  : 	switch( m_iOperationType )

  0000b	8b 86 d0 03 00
	00		 mov	 eax, DWORD PTR [esi+976]
  00011	83 e8 00	 sub	 eax, 0
  00014	74 57		 je	 SHORT $LN1@ProcessBuf
  00016	48		 dec	 eax
  00017	74 40		 je	 SHORT $LN2@ProcessBuf
  00019	48		 dec	 eax
  0001a	74 17		 je	 SHORT $LN5@ProcessBuf
  0001c	48		 dec	 eax
  0001d	75 55		 jne	 SHORT $LN6@ProcessBuf

; 207  : 	case OT_DELAY:
; 208  : 		ProcessDelay( fTimePerSec );

  0001f	f3 0f 10 45 08	 movss	 xmm0, DWORD PTR _fTimePerSec$[ebp]
  00024	8b 06		 mov	 eax, DWORD PTR [esi]
  00026	51		 push	 ecx
  00027	8b ce		 mov	 ecx, esi
  00029	f3 0f 11 04 24	 movss	 DWORD PTR [esp], xmm0
  0002e	ff 50 38	 call	 DWORD PTR [eax+56]

; 209  : 		break;

  00031	eb 41		 jmp	 SHORT $LN6@ProcessBuf
$LN5@ProcessBuf:

; 197  : 	{
; 198  : 	case OT_SWITCH:
; 199  : 		if( !CheckSwitchType( fTimePerSec ) )

  00033	f3 0f 10 45 08	 movss	 xmm0, DWORD PTR _fTimePerSec$[ebp]
  00038	51		 push	 ecx
  00039	8b ce		 mov	 ecx, esi
  0003b	f3 0f 11 04 24	 movss	 DWORD PTR [esp], xmm0
  00040	e8 00 00 00 00	 call	 ?CheckSwitchType@ioBuff@@IAE_NM@Z ; ioBuff::CheckSwitchType

; 200  : 		{
; 201  : 			SetReserveEndBuff();

  00045	8b ce		 mov	 ecx, esi
  00047	84 c0		 test	 al, al
  00049	75 07		 jne	 SHORT $LN4@ProcessBuf
  0004b	e8 00 00 00 00	 call	 ?SetReserveEndBuff@ioBuff@@QAEXXZ ; ioBuff::SetReserveEndBuff

; 202  : 			return;

  00050	eb 22		 jmp	 SHORT $LN6@ProcessBuf
$LN4@ProcessBuf:

; 203  : 		}
; 204  : 
; 205  : 		CheckExtendCallingProcess();

  00052	e8 00 00 00 00	 call	 ?CheckExtendCallingProcess@ioInfectionBuff@@QAEXXZ ; ioInfectionBuff::CheckExtendCallingProcess

; 206  : 		break;

  00057	eb 1b		 jmp	 SHORT $LN6@ProcessBuf
$LN2@ProcessBuf:

; 210  : 	case OT_ACTIVE:
; 211  : 		ProcessActive( fTimePerSec );

  00059	f3 0f 10 45 08	 movss	 xmm0, DWORD PTR _fTimePerSec$[ebp]
  0005e	51		 push	 ecx
  0005f	8b ce		 mov	 ecx, esi
  00061	f3 0f 11 04 24	 movss	 DWORD PTR [esp], xmm0
  00066	e8 00 00 00 00	 call	 ?ProcessActive@ioInfectionBuff@@QAEXM@Z ; ioInfectionBuff::ProcessActive

; 212  : 		break;

  0006b	eb 07		 jmp	 SHORT $LN6@ProcessBuf
$LN1@ProcessBuf:

; 213  : 	case OT_PASSIVE:
; 214  : 		CheckCallingAreaWeapon();

  0006d	8b ce		 mov	 ecx, esi
  0006f	e8 00 00 00 00	 call	 ?CheckCallingAreaWeapon@ioBuff@@IAEXXZ ; ioBuff::CheckCallingAreaWeapon
$LN6@ProcessBuf:
  00074	5e		 pop	 esi

; 215  : 		break;
; 216  : 	}
; 217  : }

  00075	5d		 pop	 ebp
  00076	c2 04 00	 ret	 4
?ProcessBuff@ioInfectionBuff@@UAEXM@Z ENDP		; ioInfectionBuff::ProcessBuff
_TEXT	ENDS
END
