; Listing generated by Microsoft (R) Optimizing Compiler Version 16.00.30319.01 

	TITLE	D:\Lost Saga For Developer\Youtube\Tutorial\Source\src\LSClient\ioItemNShopRight.cpp
	.686P
	.XMM
	include listing.inc
	.model	flat

INCLUDELIB MSVCRT
INCLUDELIB OLDNAMES

PUBLIC	??_7ioItemNShopRight@@6B@			; ioItemNShopRight::`vftable'
PUBLIC	??0ioItemNShopRight@@QAE@XZ			; ioItemNShopRight::ioItemNShopRight
PUBLIC	??_R4ioItemNShopRight@@6B@			; ioItemNShopRight::`RTTI Complete Object Locator'
PUBLIC	??_R0?AVioItemNShopRight@@@8			; ioItemNShopRight `RTTI Type Descriptor'
PUBLIC	??_R3ioItemNShopRight@@8			; ioItemNShopRight::`RTTI Class Hierarchy Descriptor'
PUBLIC	??_R2ioItemNShopRight@@8			; ioItemNShopRight::`RTTI Base Class Array'
PUBLIC	??_R1A@?0A@EA@ioItemNShopRight@@8		; ioItemNShopRight::`RTTI Base Class Descriptor at (0,-1,0,64)'
PUBLIC	??_R1A@?0A@EA@ioItemRight@@8			; ioItemRight::`RTTI Base Class Descriptor at (0,-1,0,64)'
PUBLIC	??_R0?AVioItemRight@@@8				; ioItemRight `RTTI Type Descriptor'
PUBLIC	??_R3ioItemRight@@8				; ioItemRight::`RTTI Class Hierarchy Descriptor'
PUBLIC	??_R2ioItemRight@@8				; ioItemRight::`RTTI Base Class Array'
PUBLIC	?ExecuteFirstFunc@ioItemNShopRight@@UBEXPAVioWnd@@@Z ; ioItemNShopRight::ExecuteFirstFunc
PUBLIC	?ExecuteSecondFunc@ioItemNShopRight@@UBEXPAVioWnd@@@Z ; ioItemNShopRight::ExecuteSecondFunc
PUBLIC	?GetType@ioItemNShopRight@@UBE?AW4RightType@ioItemRight@@XZ ; ioItemNShopRight::GetType
EXTRN	??0ioItemRight@@QAE@XZ:PROC			; ioItemRight::ioItemRight
EXTRN	??_7type_info@@6B@:QWORD			; type_info::`vftable'
EXTRN	?IsRightValid@ioItemRight@@UBE_NXZ:PROC		; ioItemRight::IsRightValid
EXTRN	?LoadProperty@ioItemRight@@UAEXAAVioINILoader@@@Z:PROC ; ioItemRight::LoadProperty
EXTRN	?CheckPreCondition@ioItemRight@@UBE_NPAVioWnd@@@Z:PROC ; ioItemRight::CheckPreCondition
EXTRN	??_EioItemNShopRight@@UAEPAXI@Z:PROC		; ioItemNShopRight::`vector deleting destructor'
;	COMDAT ??_R2ioItemRight@@8
; File d:\lost saga for developer\youtube\tutorial\source\src\lsclient\ioitemnshopright.cpp
rdata$r	SEGMENT
??_R2ioItemRight@@8 DD FLAT:??_R1A@?0A@EA@ioItemRight@@8 ; ioItemRight::`RTTI Base Class Array'
rdata$r	ENDS
;	COMDAT ??_R3ioItemRight@@8
rdata$r	SEGMENT
??_R3ioItemRight@@8 DD 00H				; ioItemRight::`RTTI Class Hierarchy Descriptor'
	DD	00H
	DD	01H
	DD	FLAT:??_R2ioItemRight@@8
rdata$r	ENDS
;	COMDAT ??_R0?AVioItemRight@@@8
_DATA	SEGMENT
??_R0?AVioItemRight@@@8 DD FLAT:??_7type_info@@6B@	; ioItemRight `RTTI Type Descriptor'
	DD	00H
	DB	'.?AVioItemRight@@', 00H
_DATA	ENDS
;	COMDAT ??_R1A@?0A@EA@ioItemRight@@8
rdata$r	SEGMENT
??_R1A@?0A@EA@ioItemRight@@8 DD FLAT:??_R0?AVioItemRight@@@8 ; ioItemRight::`RTTI Base Class Descriptor at (0,-1,0,64)'
	DD	00H
	DD	00H
	DD	0ffffffffH
	DD	00H
	DD	040H
	DD	FLAT:??_R3ioItemRight@@8
rdata$r	ENDS
;	COMDAT ??_R1A@?0A@EA@ioItemNShopRight@@8
rdata$r	SEGMENT
??_R1A@?0A@EA@ioItemNShopRight@@8 DD FLAT:??_R0?AVioItemNShopRight@@@8 ; ioItemNShopRight::`RTTI Base Class Descriptor at (0,-1,0,64)'
	DD	01H
	DD	00H
	DD	0ffffffffH
	DD	00H
	DD	040H
	DD	FLAT:??_R3ioItemNShopRight@@8
rdata$r	ENDS
;	COMDAT ??_R2ioItemNShopRight@@8
rdata$r	SEGMENT
??_R2ioItemNShopRight@@8 DD FLAT:??_R1A@?0A@EA@ioItemNShopRight@@8 ; ioItemNShopRight::`RTTI Base Class Array'
	DD	FLAT:??_R1A@?0A@EA@ioItemRight@@8
rdata$r	ENDS
;	COMDAT ??_R3ioItemNShopRight@@8
rdata$r	SEGMENT
??_R3ioItemNShopRight@@8 DD 00H				; ioItemNShopRight::`RTTI Class Hierarchy Descriptor'
	DD	00H
	DD	02H
	DD	FLAT:??_R2ioItemNShopRight@@8
rdata$r	ENDS
;	COMDAT ??_R0?AVioItemNShopRight@@@8
_DATA	SEGMENT
??_R0?AVioItemNShopRight@@@8 DD FLAT:??_7type_info@@6B@	; ioItemNShopRight `RTTI Type Descriptor'
	DD	00H
	DB	'.?AVioItemNShopRight@@', 00H
_DATA	ENDS
;	COMDAT ??_R4ioItemNShopRight@@6B@
rdata$r	SEGMENT
??_R4ioItemNShopRight@@6B@ DD 00H			; ioItemNShopRight::`RTTI Complete Object Locator'
	DD	00H
	DD	00H
	DD	FLAT:??_R0?AVioItemNShopRight@@@8
	DD	FLAT:??_R3ioItemNShopRight@@8
rdata$r	ENDS
;	COMDAT ??_7ioItemNShopRight@@6B@
CONST	SEGMENT
??_7ioItemNShopRight@@6B@ DD FLAT:??_R4ioItemNShopRight@@6B@ ; ioItemNShopRight::`vftable'
	DD	FLAT:?IsRightValid@ioItemRight@@UBE_NXZ
	DD	FLAT:?LoadProperty@ioItemRight@@UAEXAAVioINILoader@@@Z
	DD	FLAT:?CheckPreCondition@ioItemRight@@UBE_NPAVioWnd@@@Z
	DD	FLAT:?ExecuteFirstFunc@ioItemNShopRight@@UBEXPAVioWnd@@@Z
	DD	FLAT:?ExecuteSecondFunc@ioItemNShopRight@@UBEXPAVioWnd@@@Z
	DD	FLAT:?GetType@ioItemNShopRight@@UBE?AW4RightType@ioItemRight@@XZ
	DD	FLAT:??_EioItemNShopRight@@UAEPAXI@Z
; Function compile flags: /Ogsp
CONST	ENDS
;	COMDAT ??0ioItemNShopRight@@QAE@XZ
_TEXT	SEGMENT
??0ioItemNShopRight@@QAE@XZ PROC			; ioItemNShopRight::ioItemNShopRight, COMDAT
; _this$ = ecx

; 8    : {

  00000	56		 push	 esi
  00001	8b f1		 mov	 esi, ecx
  00003	e8 00 00 00 00	 call	 ??0ioItemRight@@QAE@XZ	; ioItemRight::ioItemRight
  00008	c7 06 00 00 00
	00		 mov	 DWORD PTR [esi], OFFSET ??_7ioItemNShopRight@@6B@

; 9    : }

  0000e	8b c6		 mov	 eax, esi
  00010	5e		 pop	 esi
  00011	c3		 ret	 0
??0ioItemNShopRight@@QAE@XZ ENDP			; ioItemNShopRight::ioItemNShopRight
_TEXT	ENDS
PUBLIC	??1ioItemNShopRight@@UAE@XZ			; ioItemNShopRight::~ioItemNShopRight
EXTRN	??1ioItemRight@@UAE@XZ:PROC			; ioItemRight::~ioItemRight
; Function compile flags: /Ogsp
;	COMDAT ??1ioItemNShopRight@@UAE@XZ
_TEXT	SEGMENT
??1ioItemNShopRight@@UAE@XZ PROC			; ioItemNShopRight::~ioItemNShopRight, COMDAT
; _this$ = ecx

; 12   : {

  00000	c7 01 00 00 00
	00		 mov	 DWORD PTR [ecx], OFFSET ??_7ioItemNShopRight@@6B@

; 13   : }

  00006	e9 00 00 00 00	 jmp	 ??1ioItemRight@@UAE@XZ	; ioItemRight::~ioItemRight
??1ioItemNShopRight@@UAE@XZ ENDP			; ioItemNShopRight::~ioItemNShopRight
_TEXT	ENDS
EXTRN	__imp_?HideWnd@ioWnd@@QAEXXZ:PROC
; Function compile flags: /Ogsp
;	COMDAT ?ExecuteFirstFunc@ioItemNShopRight@@UBEXPAVioWnd@@@Z
_TEXT	SEGMENT
_pWnd$ = 8						; size = 4
?ExecuteFirstFunc@ioItemNShopRight@@UBEXPAVioWnd@@@Z PROC ; ioItemNShopRight::ExecuteFirstFunc, COMDAT
; _this$ = ecx

; 16   : {

  00000	55		 push	 ebp
  00001	8b ec		 mov	 ebp, esp

; 17   : 	pWnd->HideWnd();

  00003	8b 4d 08	 mov	 ecx, DWORD PTR _pWnd$[ebp]
  00006	ff 15 00 00 00
	00		 call	 DWORD PTR __imp_?HideWnd@ioWnd@@QAEXXZ

; 18   : }

  0000c	5d		 pop	 ebp
  0000d	c2 04 00	 ret	 4
?ExecuteFirstFunc@ioItemNShopRight@@UBEXPAVioWnd@@@Z ENDP ; ioItemNShopRight::ExecuteFirstFunc
; Function compile flags: /Ogsp
_TEXT	ENDS
;	COMDAT ?ExecuteSecondFunc@ioItemNShopRight@@UBEXPAVioWnd@@@Z
_TEXT	SEGMENT
_pWnd$ = 8						; size = 4
?ExecuteSecondFunc@ioItemNShopRight@@UBEXPAVioWnd@@@Z PROC ; ioItemNShopRight::ExecuteSecondFunc, COMDAT
; _this$ = ecx

; 22   : }

  00000	c2 04 00	 ret	 4
?ExecuteSecondFunc@ioItemNShopRight@@UBEXPAVioWnd@@@Z ENDP ; ioItemNShopRight::ExecuteSecondFunc
; Function compile flags: /Ogsp
_TEXT	ENDS
;	COMDAT ?GetType@ioItemNShopRight@@UBE?AW4RightType@ioItemRight@@XZ
_TEXT	SEGMENT
?GetType@ioItemNShopRight@@UBE?AW4RightType@ioItemRight@@XZ PROC ; ioItemNShopRight::GetType, COMDAT
; _this$ = ecx

; 26   : 	return RT_ITEM_SHOP;

  00000	6a 03		 push	 3
  00002	58		 pop	 eax

; 27   : }

  00003	c3		 ret	 0
?GetType@ioItemNShopRight@@UBE?AW4RightType@ioItemRight@@XZ ENDP ; ioItemNShopRight::GetType
_TEXT	ENDS
EXTRN	??3@YAXPAX@Z:PROC				; operator delete
; Function compile flags: /Ogsp
;	COMDAT ??_GioItemNShopRight@@UAEPAXI@Z
_TEXT	SEGMENT
___flags$ = 8						; size = 4
??_GioItemNShopRight@@UAEPAXI@Z PROC			; ioItemNShopRight::`scalar deleting destructor', COMDAT
; _this$ = ecx
  00000	55		 push	 ebp
  00001	8b ec		 mov	 ebp, esp
  00003	56		 push	 esi
  00004	8b f1		 mov	 esi, ecx
  00006	c7 06 00 00 00
	00		 mov	 DWORD PTR [esi], OFFSET ??_7ioItemNShopRight@@6B@
  0000c	e8 00 00 00 00	 call	 ??1ioItemRight@@UAE@XZ	; ioItemRight::~ioItemRight
  00011	f6 45 08 01	 test	 BYTE PTR ___flags$[ebp], 1
  00015	74 07		 je	 SHORT $LN1@scalar
  00017	56		 push	 esi
  00018	e8 00 00 00 00	 call	 ??3@YAXPAX@Z		; operator delete
  0001d	59		 pop	 ecx
$LN1@scalar:
  0001e	8b c6		 mov	 eax, esi
  00020	5e		 pop	 esi
  00021	5d		 pop	 ebp
  00022	c2 04 00	 ret	 4
??_GioItemNShopRight@@UAEPAXI@Z ENDP			; ioItemNShopRight::`scalar deleting destructor'
_TEXT	ENDS
END
